; Listing generated by Microsoft (R) Optimizing Compiler Version 16.00.30319.01 

	TITLE	D:\Lost Saga For Developer\Youtube\Tutorial\Source\src\LSClient\ioItemRechargeManager.cpp
	.686P
	.XMM
	include listing.inc
	.model	flat

INCLUDELIB MSVCRT
INCLUDELIB OLDNAMES

PUBLIC	?ms_Singleton@?$Singleton@VioItemRechargeManager@@@@1PAVioItemRechargeManager@@A ; Singleton<ioItemRechargeManager>::ms_Singleton
;	COMDAT ?ms_Singleton@?$Singleton@VioItemRechargeManager@@@@1PAVioItemRechargeManager@@A
_BSS	SEGMENT
?ms_Singleton@?$Singleton@VioItemRechargeManager@@@@1PAVioItemRechargeManager@@A DD 01H DUP (?) ; Singleton<ioItemRechargeManager>::ms_Singleton
_BSS	ENDS
PUBLIC	?return1000@@YAIXZ				; return1000
; Function compile flags: /Ogsp
; File d:\lost saga for developer\youtube\tutorial\source\src\lsclient\stdafx.h
;	COMDAT ?return1000@@YAIXZ
_TEXT	SEGMENT
?return1000@@YAIXZ PROC					; return1000, COMDAT

; 29   : 	__forceinline unsigned int return1000() { __asm mov eax, 1000 };

  00000	b8 e8 03 00 00	 mov	 eax, 1000		; 000003e8H
  00005	c3		 ret	 0
?return1000@@YAIXZ ENDP					; return1000
_TEXT	ENDS
PUBLIC	??1ioINILoader_e@@QAE@XZ			; ioINILoader_e::~ioINILoader_e
EXTRN	__imp_??1ioINILoader@@QAE@XZ:PROC
; Function compile flags: /Ogsp
;	COMDAT ??1ioINILoader_e@@QAE@XZ
_TEXT	SEGMENT
??1ioINILoader_e@@QAE@XZ PROC				; ioINILoader_e::~ioINILoader_e, COMDAT
; _this$ = ecx
  00000	ff 25 00 00 00
	00		 jmp	 DWORD PTR __imp_??1ioINILoader@@QAE@XZ
??1ioINILoader_e@@QAE@XZ ENDP				; ioINILoader_e::~ioINILoader_e
_TEXT	ENDS
PUBLIC	??1EXTRAITEMSLOT@@QAE@XZ			; EXTRAITEMSLOT::~EXTRAITEMSLOT
EXTRN	__imp_??1ioHashString@@QAE@XZ:PROC
EXTRN	___CxxFrameHandler3:PROC
EXTRN	@__security_check_cookie@4:PROC
EXTRN	__EH_epilog3:PROC
EXTRN	__EH_prolog3:PROC
;	COMDAT xdata$x
xdata$x	SEGMENT
__unwindtable$??1EXTRAITEMSLOT@@QAE@XZ DD 0ffffffffH
	DD	FLAT:__unwindfunclet$??1EXTRAITEMSLOT@@QAE@XZ$0
__ehfuncinfo$??1EXTRAITEMSLOT@@QAE@XZ DD 019930522H
	DD	01H
	DD	FLAT:__unwindtable$??1EXTRAITEMSLOT@@QAE@XZ
	DD	2 DUP(00H)
	DD	2 DUP(00H)
	DD	00H
	DD	01H
; Function compile flags: /Ogsp
xdata$x	ENDS
;	COMDAT ??1EXTRAITEMSLOT@@QAE@XZ
_TEXT	SEGMENT
_this$ = -16						; size = 4
__$EHRec$ = -12						; size = 12
??1EXTRAITEMSLOT@@QAE@XZ PROC				; EXTRAITEMSLOT::~EXTRAITEMSLOT, COMDAT
; _this$ = ecx
  00000	6a 04		 push	 4
  00002	b8 00 00 00 00	 mov	 eax, __ehhandler$??1EXTRAITEMSLOT@@QAE@XZ
  00007	e8 00 00 00 00	 call	 __EH_prolog3
  0000c	8b f9		 mov	 edi, ecx
  0000e	89 7d f0	 mov	 DWORD PTR _this$[ebp], edi
  00011	8b 35 00 00 00
	00		 mov	 esi, DWORD PTR __imp_??1ioHashString@@QAE@XZ
  00017	83 65 fc 00	 and	 DWORD PTR __$EHRec$[ebp+8], 0
  0001b	8d 4f 38	 lea	 ecx, DWORD PTR [edi+56]
  0001e	ff d6		 call	 esi
  00020	83 4d fc ff	 or	 DWORD PTR __$EHRec$[ebp+8], -1
  00024	8d 4f 28	 lea	 ecx, DWORD PTR [edi+40]
  00027	ff d6		 call	 esi
  00029	e8 00 00 00 00	 call	 __EH_epilog3
  0002e	c3		 ret	 0
_TEXT	ENDS
;	COMDAT text$x
text$x	SEGMENT
__unwindfunclet$??1EXTRAITEMSLOT@@QAE@XZ$0:
  00000	8b 4d f0	 mov	 ecx, DWORD PTR _this$[ebp]
  00003	83 c1 28	 add	 ecx, 40			; 00000028H
  00006	ff 25 00 00 00
	00		 jmp	 DWORD PTR __imp_??1ioHashString@@QAE@XZ
__ehhandler$??1EXTRAITEMSLOT@@QAE@XZ:
  0000c	8b 54 24 08	 mov	 edx, DWORD PTR [esp+8]
  00010	8d 42 0c	 lea	 eax, DWORD PTR [edx+12]
  00013	8b 4a ec	 mov	 ecx, DWORD PTR [edx-20]
  00016	33 c8		 xor	 ecx, eax
  00018	e8 00 00 00 00	 call	 @__security_check_cookie@4
  0001d	b8 00 00 00 00	 mov	 eax, OFFSET __ehfuncinfo$??1EXTRAITEMSLOT@@QAE@XZ
  00022	e9 00 00 00 00	 jmp	 ___CxxFrameHandler3
text$x	ENDS
??1EXTRAITEMSLOT@@QAE@XZ ENDP				; EXTRAITEMSLOT::~EXTRAITEMSLOT
PUBLIC	??_7bad_alloc@std@@6B@				; std::bad_alloc::`vftable'
PUBLIC	??0bad_alloc@std@@QAE@PBD@Z			; std::bad_alloc::bad_alloc
PUBLIC	??_R4bad_alloc@std@@6B@				; std::bad_alloc::`RTTI Complete Object Locator'
PUBLIC	??_R0?AVbad_alloc@std@@@8			; std::bad_alloc `RTTI Type Descriptor'
PUBLIC	??_R3bad_alloc@std@@8				; std::bad_alloc::`RTTI Class Hierarchy Descriptor'
PUBLIC	??_R2bad_alloc@std@@8				; std::bad_alloc::`RTTI Base Class Array'
PUBLIC	??_R1A@?0A@EA@bad_alloc@std@@8			; std::bad_alloc::`RTTI Base Class Descriptor at (0,-1,0,64)'
PUBLIC	??_R1A@?0A@EA@exception@std@@8			; std::exception::`RTTI Base Class Descriptor at (0,-1,0,64)'
PUBLIC	??_R0?AVexception@std@@@8			; std::exception `RTTI Type Descriptor'
PUBLIC	??_R3exception@std@@8				; std::exception::`RTTI Class Hierarchy Descriptor'
PUBLIC	??_R2exception@std@@8				; std::exception::`RTTI Base Class Array'
EXTRN	__imp_??0exception@std@@QAE@ABQBD@Z:PROC
EXTRN	??_7type_info@@6B@:QWORD			; type_info::`vftable'
EXTRN	??_Ebad_alloc@std@@UAEPAXI@Z:PROC		; std::bad_alloc::`vector deleting destructor'
EXTRN	?what@exception@std@@UBEPBDXZ:PROC		; std::exception::what
;	COMDAT ??_R2exception@std@@8
; File c:\program files (x86)\microsoft visual studio 10.0\vc\include\exception
rdata$r	SEGMENT
??_R2exception@std@@8 DD FLAT:??_R1A@?0A@EA@exception@std@@8 ; std::exception::`RTTI Base Class Array'
rdata$r	ENDS
;	COMDAT ??_R3exception@std@@8
rdata$r	SEGMENT
??_R3exception@std@@8 DD 00H				; std::exception::`RTTI Class Hierarchy Descriptor'
	DD	00H
	DD	01H
	DD	FLAT:??_R2exception@std@@8
rdata$r	ENDS
;	COMDAT ??_R0?AVexception@std@@@8
_DATA	SEGMENT
??_R0?AVexception@std@@@8 DD FLAT:??_7type_info@@6B@	; std::exception `RTTI Type Descriptor'
	DD	00H
	DB	'.?AVexception@std@@', 00H
_DATA	ENDS
;	COMDAT ??_R1A@?0A@EA@exception@std@@8
rdata$r	SEGMENT
??_R1A@?0A@EA@exception@std@@8 DD FLAT:??_R0?AVexception@std@@@8 ; std::exception::`RTTI Base Class Descriptor at (0,-1,0,64)'
	DD	00H
	DD	00H
	DD	0ffffffffH
	DD	00H
	DD	040H
	DD	FLAT:??_R3exception@std@@8
rdata$r	ENDS
;	COMDAT ??_R1A@?0A@EA@bad_alloc@std@@8
rdata$r	SEGMENT
??_R1A@?0A@EA@bad_alloc@std@@8 DD FLAT:??_R0?AVbad_alloc@std@@@8 ; std::bad_alloc::`RTTI Base Class Descriptor at (0,-1,0,64)'
	DD	01H
	DD	00H
	DD	0ffffffffH
	DD	00H
	DD	040H
	DD	FLAT:??_R3bad_alloc@std@@8
rdata$r	ENDS
;	COMDAT ??_R2bad_alloc@std@@8
rdata$r	SEGMENT
??_R2bad_alloc@std@@8 DD FLAT:??_R1A@?0A@EA@bad_alloc@std@@8 ; std::bad_alloc::`RTTI Base Class Array'
	DD	FLAT:??_R1A@?0A@EA@exception@std@@8
rdata$r	ENDS
;	COMDAT ??_R3bad_alloc@std@@8
rdata$r	SEGMENT
??_R3bad_alloc@std@@8 DD 00H				; std::bad_alloc::`RTTI Class Hierarchy Descriptor'
	DD	00H
	DD	02H
	DD	FLAT:??_R2bad_alloc@std@@8
rdata$r	ENDS
;	COMDAT ??_R0?AVbad_alloc@std@@@8
_DATA	SEGMENT
??_R0?AVbad_alloc@std@@@8 DD FLAT:??_7type_info@@6B@	; std::bad_alloc `RTTI Type Descriptor'
	DD	00H
	DB	'.?AVbad_alloc@std@@', 00H
_DATA	ENDS
;	COMDAT ??_R4bad_alloc@std@@6B@
rdata$r	SEGMENT
??_R4bad_alloc@std@@6B@ DD 00H				; std::bad_alloc::`RTTI Complete Object Locator'
	DD	00H
	DD	00H
	DD	FLAT:??_R0?AVbad_alloc@std@@@8
	DD	FLAT:??_R3bad_alloc@std@@8
rdata$r	ENDS
;	COMDAT ??_7bad_alloc@std@@6B@
CONST	SEGMENT
??_7bad_alloc@std@@6B@ DD FLAT:??_R4bad_alloc@std@@6B@	; std::bad_alloc::`vftable'
	DD	FLAT:??_Ebad_alloc@std@@UAEPAXI@Z
	DD	FLAT:?what@exception@std@@UBEPBDXZ
; Function compile flags: /Ogsp
CONST	ENDS
;	COMDAT ??0bad_alloc@std@@QAE@PBD@Z
_TEXT	SEGMENT
__Message$ = 8						; size = 4
??0bad_alloc@std@@QAE@PBD@Z PROC			; std::bad_alloc::bad_alloc, COMDAT
; _this$ = ecx

; 345  : 		{	// construct from message string

  00000	55		 push	 ebp
  00001	8b ec		 mov	 ebp, esp
  00003	56		 push	 esi
  00004	8d 45 08	 lea	 eax, DWORD PTR __Message$[ebp]
  00007	50		 push	 eax
  00008	8b f1		 mov	 esi, ecx
  0000a	ff 15 00 00 00
	00		 call	 DWORD PTR __imp_??0exception@std@@QAE@ABQBD@Z
  00010	c7 06 00 00 00
	00		 mov	 DWORD PTR [esi], OFFSET ??_7bad_alloc@std@@6B@

; 346  : 		}

  00016	8b c6		 mov	 eax, esi
  00018	5e		 pop	 esi
  00019	5d		 pop	 ebp
  0001a	c2 04 00	 ret	 4
??0bad_alloc@std@@QAE@PBD@Z ENDP			; std::bad_alloc::bad_alloc
_TEXT	ENDS
PUBLIC	??1bad_alloc@std@@UAE@XZ			; std::bad_alloc::~bad_alloc
EXTRN	__imp_??1exception@std@@UAE@XZ:PROC
; Function compile flags: /Ogsp
;	COMDAT ??1bad_alloc@std@@UAE@XZ
_TEXT	SEGMENT
??1bad_alloc@std@@UAE@XZ PROC				; std::bad_alloc::~bad_alloc, COMDAT
; _this$ = ecx

; 354  : 		{	// destroy the object

  00000	c7 01 00 00 00
	00		 mov	 DWORD PTR [ecx], OFFSET ??_7bad_alloc@std@@6B@

; 355  : 		}

  00006	ff 25 00 00 00
	00		 jmp	 DWORD PTR __imp_??1exception@std@@UAE@XZ
??1bad_alloc@std@@UAE@XZ ENDP				; std::bad_alloc::~bad_alloc
_TEXT	ENDS
EXTRN	??3@YAXPAX@Z:PROC				; operator delete
; Function compile flags: /Ogsp
;	COMDAT ??_Gbad_alloc@std@@UAEPAXI@Z
_TEXT	SEGMENT
___flags$ = 8						; size = 4
??_Gbad_alloc@std@@UAEPAXI@Z PROC			; std::bad_alloc::`scalar deleting destructor', COMDAT
; _this$ = ecx
  00000	55		 push	 ebp
  00001	8b ec		 mov	 ebp, esp
  00003	56		 push	 esi
  00004	8b f1		 mov	 esi, ecx
  00006	c7 06 00 00 00
	00		 mov	 DWORD PTR [esi], OFFSET ??_7bad_alloc@std@@6B@
  0000c	ff 15 00 00 00
	00		 call	 DWORD PTR __imp_??1exception@std@@UAE@XZ
  00012	f6 45 08 01	 test	 BYTE PTR ___flags$[ebp], 1
  00016	74 07		 je	 SHORT $LN1@scalar
  00018	56		 push	 esi
  00019	e8 00 00 00 00	 call	 ??3@YAXPAX@Z		; operator delete
  0001e	59		 pop	 ecx
$LN1@scalar:
  0001f	8b c6		 mov	 eax, esi
  00021	5e		 pop	 esi
  00022	5d		 pop	 ebp
  00023	c2 04 00	 ret	 4
??_Gbad_alloc@std@@UAEPAXI@Z ENDP			; std::bad_alloc::`scalar deleting destructor'
_TEXT	ENDS
PUBLIC	??0?$Singleton@VioItemRechargeManager@@@@QAE@XZ	; Singleton<ioItemRechargeManager>::Singleton<ioItemRechargeManager>
; Function compile flags: /Ogsp
; File d:\lost saga for developer\youtube\tutorial\source\src\io3dengine\iosingleton.h
;	COMDAT ??0?$Singleton@VioItemRechargeManager@@@@QAE@XZ
_TEXT	SEGMENT
??0?$Singleton@VioItemRechargeManager@@@@QAE@XZ PROC	; Singleton<ioItemRechargeManager>::Singleton<ioItemRechargeManager>, COMDAT
; _this$ = ecx

; 27   : 	Singleton()

  00000	8b c1		 mov	 eax, ecx

; 28   : 	{
; 29   : 		assert( !ms_Singleton );
; 30   : 		int offset = (int)(T*)1 - (int)(Singleton <T>*)(T*)1;
; 31   : 		ms_Singleton = (T*)((int)this + offset);

  00002	8d 48 fc	 lea	 ecx, DWORD PTR [eax-4]
  00005	89 0d 00 00 00
	00		 mov	 DWORD PTR ?ms_Singleton@?$Singleton@VioItemRechargeManager@@@@1PAVioItemRechargeManager@@A, ecx ; Singleton<ioItemRechargeManager>::ms_Singleton

; 32   : 	}

  0000b	c3		 ret	 0
??0?$Singleton@VioItemRechargeManager@@@@QAE@XZ ENDP	; Singleton<ioItemRechargeManager>::Singleton<ioItemRechargeManager>
_TEXT	ENDS
PUBLIC	??1?$Singleton@VioItemRechargeManager@@@@QAE@XZ	; Singleton<ioItemRechargeManager>::~Singleton<ioItemRechargeManager>
; Function compile flags: /Ogsp
;	COMDAT ??1?$Singleton@VioItemRechargeManager@@@@QAE@XZ
_TEXT	SEGMENT
??1?$Singleton@VioItemRechargeManager@@@@QAE@XZ PROC	; Singleton<ioItemRechargeManager>::~Singleton<ioItemRechargeManager>, COMDAT
; _this$ = ecx

; 36   : 		assert( ms_Singleton );
; 37   : 		ms_Singleton = 0;

  00000	83 25 00 00 00
	00 00		 and	 DWORD PTR ?ms_Singleton@?$Singleton@VioItemRechargeManager@@@@1PAVioItemRechargeManager@@A, 0 ; Singleton<ioItemRechargeManager>::ms_Singleton

; 38   : 	}

  00007	c3		 ret	 0
??1?$Singleton@VioItemRechargeManager@@@@QAE@XZ ENDP	; Singleton<ioItemRechargeManager>::~Singleton<ioItemRechargeManager>
_TEXT	ENDS
PUBLIC	?GetSingleton@?$Singleton@VioItemRechargeManager@@@@SAAAVioItemRechargeManager@@XZ ; Singleton<ioItemRechargeManager>::GetSingleton
; Function compile flags: /Ogsp
;	COMDAT ?GetSingleton@?$Singleton@VioItemRechargeManager@@@@SAAAVioItemRechargeManager@@XZ
_TEXT	SEGMENT
?GetSingleton@?$Singleton@VioItemRechargeManager@@@@SAAAVioItemRechargeManager@@XZ PROC ; Singleton<ioItemRechargeManager>::GetSingleton, COMDAT

; 42   : 		assert( ms_Singleton );
; 43   : 		return (*ms_Singleton);

  00000	a1 00 00 00 00	 mov	 eax, DWORD PTR ?ms_Singleton@?$Singleton@VioItemRechargeManager@@@@1PAVioItemRechargeManager@@A ; Singleton<ioItemRechargeManager>::ms_Singleton

; 44   : 	}

  00005	c3		 ret	 0
?GetSingleton@?$Singleton@VioItemRechargeManager@@@@SAAAVioItemRechargeManager@@XZ ENDP ; Singleton<ioItemRechargeManager>::GetSingleton
_TEXT	ENDS
PUBLIC	??R?$less@H@std@@QBE_NABH0@Z			; std::less<int>::operator()
; Function compile flags: /Ogsp
; File c:\program files (x86)\microsoft visual studio 10.0\vc\include\xfunctional
;	COMDAT ??R?$less@H@std@@QBE_NABH0@Z
_TEXT	SEGMENT
__Left$ = 8						; size = 4
__Right$ = 12						; size = 4
??R?$less@H@std@@QBE_NABH0@Z PROC			; std::less<int>::operator(), COMDAT
; _this$ = ecx

; 124  : 		{	// apply operator< to operands

  00000	55		 push	 ebp
  00001	8b ec		 mov	 ebp, esp

; 125  : 		return (_Left < _Right);

  00003	8b 45 08	 mov	 eax, DWORD PTR __Left$[ebp]
  00006	8b 00		 mov	 eax, DWORD PTR [eax]
  00008	8b 55 0c	 mov	 edx, DWORD PTR __Right$[ebp]
  0000b	33 c9		 xor	 ecx, ecx
  0000d	3b 02		 cmp	 eax, DWORD PTR [edx]
  0000f	0f 9c c0	 setl	 al

; 126  : 		}

  00012	5d		 pop	 ebp
  00013	c2 08 00	 ret	 8
??R?$less@H@std@@QBE_NABH0@Z ENDP			; std::less<int>::operator()
_TEXT	ENDS
PUBLIC	??0?$allocator@U?$pair@$$CBHH@std@@@std@@QAE@XZ	; std::allocator<std::pair<int const ,int> >::allocator<std::pair<int const ,int> >
; Function compile flags: /Ogsp
; File c:\program files (x86)\microsoft visual studio 10.0\vc\include\xmemory
;	COMDAT ??0?$allocator@U?$pair@$$CBHH@std@@@std@@QAE@XZ
_TEXT	SEGMENT
??0?$allocator@U?$pair@$$CBHH@std@@@std@@QAE@XZ PROC	; std::allocator<std::pair<int const ,int> >::allocator<std::pair<int const ,int> >, COMDAT
; _this$ = ecx

; 161  : 	_ALLOCATOR() _THROW0()

  00000	8b c1		 mov	 eax, ecx

; 162  : 		{	// construct default allocator (do nothing)
; 163  : 		}

  00002	c3		 ret	 0
??0?$allocator@U?$pair@$$CBHH@std@@@std@@QAE@XZ ENDP	; std::allocator<std::pair<int const ,int> >::allocator<std::pair<int const ,int> >
_TEXT	ENDS
PUBLIC	??2@YAPAXIPAX@Z					; operator new
; Function compile flags: /Ogsp
; File c:\program files (x86)\microsoft visual studio 10.0\vc\include\new
;	COMDAT ??2@YAPAXIPAX@Z
_TEXT	SEGMENT
___formal$ = 8						; size = 4
__Where$ = 12						; size = 4
??2@YAPAXIPAX@Z PROC					; operator new, COMDAT

; 56   : 	{	// construct array with placement at _Where

  00000	55		 push	 ebp
  00001	8b ec		 mov	 ebp, esp

; 57   : 	return (_Where);

  00003	8b 45 0c	 mov	 eax, DWORD PTR __Where$[ebp]

; 58   : 	}

  00006	5d		 pop	 ebp
  00007	c3		 ret	 0
??2@YAPAXIPAX@Z ENDP					; operator new
_TEXT	ENDS
PUBLIC	??3@YAXPAX0@Z					; operator delete
; Function compile flags: /Ogsp
;	COMDAT ??3@YAXPAX0@Z
_TEXT	SEGMENT
___formal$ = 8						; size = 4
___formal$ = 12						; size = 4
??3@YAXPAX0@Z PROC					; operator delete, COMDAT

; 62   : 	}

  00000	c3		 ret	 0
??3@YAXPAX0@Z ENDP					; operator delete
_TEXT	ENDS
PUBLIC	??0?$allocator@U?$pair@$$CBHH@std@@@std@@QAE@ABV01@@Z ; std::allocator<std::pair<int const ,int> >::allocator<std::pair<int const ,int> >
; Function compile flags: /Ogsp
; File c:\program files (x86)\microsoft visual studio 10.0\vc\include\xmemory
;	COMDAT ??0?$allocator@U?$pair@$$CBHH@std@@@std@@QAE@ABV01@@Z
_TEXT	SEGMENT
___formal$ = 8						; size = 4
??0?$allocator@U?$pair@$$CBHH@std@@@std@@QAE@ABV01@@Z PROC ; std::allocator<std::pair<int const ,int> >::allocator<std::pair<int const ,int> >, COMDAT
; _this$ = ecx

; 165  : 	_ALLOCATOR(const _ALLOCATOR<_Ty>&) _THROW0()

  00000	8b c1		 mov	 eax, ecx

; 166  : 		{	// construct by copying (do nothing)
; 167  : 		}

  00002	c2 04 00	 ret	 4
??0?$allocator@U?$pair@$$CBHH@std@@@std@@QAE@ABV01@@Z ENDP ; std::allocator<std::pair<int const ,int> >::allocator<std::pair<int const ,int> >
_TEXT	ENDS
PUBLIC	??0?$_Tmap_traits@HHU?$less@H@std@@V?$allocator@U?$pair@$$CBHH@std@@@2@$0A@@std@@QAE@U?$less@H@1@@Z ; std::_Tmap_traits<int,int,std::less<int>,std::allocator<std::pair<int const ,int> >,0>::_Tmap_traits<int,int,std::less<int>,std::allocator<std::pair<int const ,int> >,0>
; Function compile flags: /Ogsp
; File c:\program files (x86)\microsoft visual studio 10.0\vc\include\map
;	COMDAT ??0?$_Tmap_traits@HHU?$less@H@std@@V?$allocator@U?$pair@$$CBHH@std@@@2@$0A@@std@@QAE@U?$less@H@1@@Z
_TEXT	SEGMENT
__Parg$ = 8						; size = 1
??0?$_Tmap_traits@HHU?$less@H@std@@V?$allocator@U?$pair@$$CBHH@std@@@2@$0A@@std@@QAE@U?$less@H@1@@Z PROC ; std::_Tmap_traits<int,int,std::less<int>,std::allocator<std::pair<int const ,int> >,0>::_Tmap_traits<int,int,std::less<int>,std::allocator<std::pair<int const ,int> >,0>, COMDAT
; _this$ = ecx

; 40   : 		{	// construct with specified comparator

  00000	8b c1		 mov	 eax, ecx

; 41   : 		}

  00002	c2 04 00	 ret	 4
??0?$_Tmap_traits@HHU?$less@H@std@@V?$allocator@U?$pair@$$CBHH@std@@@2@$0A@@std@@QAE@U?$less@H@1@@Z ENDP ; std::_Tmap_traits<int,int,std::less<int>,std::allocator<std::pair<int const ,int> >,0>::_Tmap_traits<int,int,std::less<int>,std::allocator<std::pair<int const ,int> >,0>
_TEXT	ENDS
PUBLIC	?_Adopt@_Iterator_base0@std@@QAEXPBX@Z		; std::_Iterator_base0::_Adopt
; Function compile flags: /Ogsp
; File c:\program files (x86)\microsoft visual studio 10.0\vc\include\xutility
;	COMDAT ?_Adopt@_Iterator_base0@std@@QAEXPBX@Z
_TEXT	SEGMENT
___formal$ = 8						; size = 4
?_Adopt@_Iterator_base0@std@@QAEXPBX@Z PROC		; std::_Iterator_base0::_Adopt, COMDAT
; _this$ = ecx

; 49   : 		}

  00000	c2 04 00	 ret	 4
?_Adopt@_Iterator_base0@std@@QAEXPBX@Z ENDP		; std::_Iterator_base0::_Adopt
_TEXT	ENDS
PUBLIC	??$_Kfn@$$CBHH@?$_Tmap_traits@HHU?$less@H@std@@V?$allocator@U?$pair@$$CBHH@std@@@2@$0A@@std@@SAABHABU?$pair@$$CBHH@1@@Z ; std::_Tmap_traits<int,int,std::less<int>,std::allocator<std::pair<int const ,int> >,0>::_Kfn<int const ,int>
; Function compile flags: /Ogsp
; File c:\program files (x86)\microsoft visual studio 10.0\vc\include\map
;	COMDAT ??$_Kfn@$$CBHH@?$_Tmap_traits@HHU?$less@H@std@@V?$allocator@U?$pair@$$CBHH@std@@@2@$0A@@std@@SAABHABU?$pair@$$CBHH@1@@Z
_TEXT	SEGMENT
__Val$ = 8						; size = 4
??$_Kfn@$$CBHH@?$_Tmap_traits@HHU?$less@H@std@@V?$allocator@U?$pair@$$CBHH@std@@@2@$0A@@std@@SAABHABU?$pair@$$CBHH@1@@Z PROC ; std::_Tmap_traits<int,int,std::less<int>,std::allocator<std::pair<int const ,int> >,0>::_Kfn<int const ,int>, COMDAT

; 66   : 		static const _Kty& _Kfn(const _STD pair<_Ty1, _Ty2>& _Val)

  00000	55		 push	 ebp
  00001	8b ec		 mov	 ebp, esp

; 67   : 		{	// extract key from element value
; 68   : 		return (_Val.first);

  00003	8b 45 08	 mov	 eax, DWORD PTR __Val$[ebp]

; 69   : 		}

  00006	5d		 pop	 ebp
  00007	c3		 ret	 0
??$_Kfn@$$CBHH@?$_Tmap_traits@HHU?$less@H@std@@V?$allocator@U?$pair@$$CBHH@std@@@2@$0A@@std@@SAABHABU?$pair@$$CBHH@1@@Z ENDP ; std::_Tmap_traits<int,int,std::less<int>,std::allocator<std::pair<int const ,int> >,0>::_Kfn<int const ,int>
_TEXT	ENDS
PUBLIC	??$?0U?$pair@$$CBHH@std@@@?$allocator@U_Node@?$_Tree_nod@V?$_Tmap_traits@HHU?$less@H@std@@V?$allocator@U?$pair@$$CBHH@std@@@2@$0A@@std@@@std@@@std@@QAE@ABV?$allocator@U?$pair@$$CBHH@std@@@1@@Z ; std::allocator<std::_Tree_nod<std::_Tmap_traits<int,int,std::less<int>,std::allocator<std::pair<int const ,int> >,0> >::_Node>::allocator<std::_Tree_nod<std::_Tmap_traits<int,int,std::less<int>,std::allocator<std::pair<int const ,int> >,0> >::_Node><std::pair<int const ,int> >
; Function compile flags: /Ogsp
; File c:\program files (x86)\microsoft visual studio 10.0\vc\include\xmemory
;	COMDAT ??$?0U?$pair@$$CBHH@std@@@?$allocator@U_Node@?$_Tree_nod@V?$_Tmap_traits@HHU?$less@H@std@@V?$allocator@U?$pair@$$CBHH@std@@@2@$0A@@std@@@std@@@std@@QAE@ABV?$allocator@U?$pair@$$CBHH@std@@@1@@Z
_TEXT	SEGMENT
___formal$ = 8						; size = 4
??$?0U?$pair@$$CBHH@std@@@?$allocator@U_Node@?$_Tree_nod@V?$_Tmap_traits@HHU?$less@H@std@@V?$allocator@U?$pair@$$CBHH@std@@@2@$0A@@std@@@std@@@std@@QAE@ABV?$allocator@U?$pair@$$CBHH@std@@@1@@Z PROC ; std::allocator<std::_Tree_nod<std::_Tmap_traits<int,int,std::less<int>,std::allocator<std::pair<int const ,int> >,0> >::_Node>::allocator<std::_Tree_nod<std::_Tmap_traits<int,int,std::less<int>,std::allocator<std::pair<int const ,int> >,0> >::_Node><std::pair<int const ,int> >, COMDAT
; _this$ = ecx

; 170  : 		_ALLOCATOR(const _ALLOCATOR<_Other>&) _THROW0()

  00000	8b c1		 mov	 eax, ecx

; 171  : 		{	// construct from a related allocator (do nothing)
; 172  : 		}

  00002	c2 04 00	 ret	 4
??$?0U?$pair@$$CBHH@std@@@?$allocator@U_Node@?$_Tree_nod@V?$_Tmap_traits@HHU?$less@H@std@@V?$allocator@U?$pair@$$CBHH@std@@@2@$0A@@std@@@std@@@std@@QAE@ABV?$allocator@U?$pair@$$CBHH@std@@@1@@Z ENDP ; std::allocator<std::_Tree_nod<std::_Tmap_traits<int,int,std::less<int>,std::allocator<std::pair<int const ,int> >,0> >::_Node>::allocator<std::_Tree_nod<std::_Tmap_traits<int,int,std::less<int>,std::allocator<std::pair<int const ,int> >,0> >::_Node><std::pair<int const ,int> >
_TEXT	ENDS
PUBLIC	__TI2?AVbad_alloc@std@@
PUBLIC	??$_Allocate@U_Node@?$_Tree_nod@V?$_Tmap_traits@HHU?$less@H@std@@V?$allocator@U?$pair@$$CBHH@std@@@2@$0A@@std@@@std@@@std@@YAPAU_Node@?$_Tree_nod@V?$_Tmap_traits@HHU?$less@H@std@@V?$allocator@U?$pair@$$CBHH@std@@@2@$0A@@std@@@0@IPAU120@@Z ; std::_Allocate<std::_Tree_nod<std::_Tmap_traits<int,int,std::less<int>,std::allocator<std::pair<int const ,int> >,0> >::_Node>
PUBLIC	__CTA2?AVbad_alloc@std@@
PUBLIC	__CT??_R0?AVbad_alloc@std@@@8??0bad_alloc@std@@QAE@ABV01@@Z12
PUBLIC	??0bad_alloc@std@@QAE@ABV01@@Z			; std::bad_alloc::bad_alloc
PUBLIC	__CT??_R0?AVexception@std@@@8??0exception@std@@QAE@ABV01@@Z12
EXTRN	??2@YAPAXI@Z:PROC				; operator new
EXTRN	__CxxThrowException@8:PROC
EXTRN	??0exception@std@@QAE@ABV01@@Z:PROC		; std::exception::exception
;	COMDAT __CT??_R0?AVexception@std@@@8??0exception@std@@QAE@ABV01@@Z12
; File c:\program files (x86)\microsoft visual studio 10.0\vc\include\exception
xdata$x	SEGMENT
__CT??_R0?AVexception@std@@@8??0exception@std@@QAE@ABV01@@Z12 DD 00H
	DD	FLAT:??_R0?AVexception@std@@@8
	DD	00H
	DD	0ffffffffH
	ORG $+4
	DD	0cH
	DD	FLAT:??0exception@std@@QAE@ABV01@@Z
xdata$x	ENDS
;	COMDAT __CT??_R0?AVbad_alloc@std@@@8??0bad_alloc@std@@QAE@ABV01@@Z12
xdata$x	SEGMENT
__CT??_R0?AVbad_alloc@std@@@8??0bad_alloc@std@@QAE@ABV01@@Z12 DD 00H
	DD	FLAT:??_R0?AVbad_alloc@std@@@8
	DD	00H
	DD	0ffffffffH
	ORG $+4
	DD	0cH
	DD	FLAT:??0bad_alloc@std@@QAE@ABV01@@Z
xdata$x	ENDS
;	COMDAT __CTA2?AVbad_alloc@std@@
xdata$x	SEGMENT
__CTA2?AVbad_alloc@std@@ DD 02H
	DD	FLAT:__CT??_R0?AVbad_alloc@std@@@8??0bad_alloc@std@@QAE@ABV01@@Z12
	DD	FLAT:__CT??_R0?AVexception@std@@@8??0exception@std@@QAE@ABV01@@Z12
xdata$x	ENDS
;	COMDAT __TI2?AVbad_alloc@std@@
xdata$x	SEGMENT
__TI2?AVbad_alloc@std@@ DD 00H
	DD	FLAT:??1bad_alloc@std@@UAE@XZ
	DD	00H
	DD	FLAT:__CTA2?AVbad_alloc@std@@
; Function compile flags: /Ogsp
; File c:\program files (x86)\microsoft visual studio 10.0\vc\include\xmemory
xdata$x	ENDS
;	COMDAT ??$_Allocate@U_Node@?$_Tree_nod@V?$_Tmap_traits@HHU?$less@H@std@@V?$allocator@U?$pair@$$CBHH@std@@@2@$0A@@std@@@std@@@std@@YAPAU_Node@?$_Tree_nod@V?$_Tmap_traits@HHU?$less@H@std@@V?$allocator@U?$pair@$$CBHH@std@@@2@$0A@@std@@@0@IPAU120@@Z
_TEXT	SEGMENT
$T508060 = -12						; size = 12
$T508065 = 8						; size = 4
__Count$ = 8						; size = 4
___formal$ = 12						; size = 4
??$_Allocate@U_Node@?$_Tree_nod@V?$_Tmap_traits@HHU?$less@H@std@@V?$allocator@U?$pair@$$CBHH@std@@@2@$0A@@std@@@std@@@std@@YAPAU_Node@?$_Tree_nod@V?$_Tmap_traits@HHU?$less@H@std@@V?$allocator@U?$pair@$$CBHH@std@@@2@$0A@@std@@@0@IPAU120@@Z PROC ; std::_Allocate<std::_Tree_nod<std::_Tmap_traits<int,int,std::less<int>,std::allocator<std::pair<int const ,int> >,0> >::_Node>, COMDAT

; 30   : 	{	// allocate storage for _Count elements of type _Ty

  00000	55		 push	 ebp
  00001	8b ec		 mov	 ebp, esp

; 31   : 	void *_Ptr = 0;
; 32   : 
; 33   : 	if (_Count <= 0)

  00003	8b 4d 08	 mov	 ecx, DWORD PTR __Count$[ebp]
  00006	83 ec 0c	 sub	 esp, 12			; 0000000cH
  00009	33 c0		 xor	 eax, eax
  0000b	85 c9		 test	 ecx, ecx

; 34   : 		_Count = 0;
; 35   : 	else if (((_SIZT)(-1) / sizeof (_Ty) < _Count)

  0000d	74 3c		 je	 SHORT $LN5@Allocate

; 36   : 		|| (_Ptr = ::operator new(_Count * sizeof (_Ty))) == 0)

  0000f	81 f9 aa aa aa
	0a		 cmp	 ecx, 178956970		; 0aaaaaaaH
  00015	77 0e		 ja	 SHORT $LN1@Allocate
  00017	6b c9 18	 imul	 ecx, 24			; 00000018H
  0001a	51		 push	 ecx
  0001b	e8 00 00 00 00	 call	 ??2@YAPAXI@Z		; operator new
  00020	59		 pop	 ecx
  00021	85 c0		 test	 eax, eax

; 38   : 
; 39   : 	return ((_Ty _FARQ *)_Ptr);

  00023	75 26		 jne	 SHORT $LN5@Allocate
$LN1@Allocate:

; 37   : 		_THROW_NCEE(bad_alloc, 0);

  00025	83 65 08 00	 and	 DWORD PTR $T508065[ebp], 0
  00029	8d 45 08	 lea	 eax, DWORD PTR $T508065[ebp]
  0002c	50		 push	 eax
  0002d	8d 4d f4	 lea	 ecx, DWORD PTR $T508060[ebp]
  00030	ff 15 00 00 00
	00		 call	 DWORD PTR __imp_??0exception@std@@QAE@ABQBD@Z
  00036	68 00 00 00 00	 push	 OFFSET __TI2?AVbad_alloc@std@@
  0003b	8d 45 f4	 lea	 eax, DWORD PTR $T508060[ebp]
  0003e	50		 push	 eax
  0003f	c7 45 f4 00 00
	00 00		 mov	 DWORD PTR $T508060[ebp], OFFSET ??_7bad_alloc@std@@6B@
  00046	e8 00 00 00 00	 call	 __CxxThrowException@8
$LN10@Allocate:
$LN5@Allocate:

; 40   : 	}

  0004b	c9		 leave
  0004c	c3		 ret	 0
$LN9@Allocate:
??$_Allocate@U_Node@?$_Tree_nod@V?$_Tmap_traits@HHU?$less@H@std@@V?$allocator@U?$pair@$$CBHH@std@@@2@$0A@@std@@@std@@@std@@YAPAU_Node@?$_Tree_nod@V?$_Tmap_traits@HHU?$less@H@std@@V?$allocator@U?$pair@$$CBHH@std@@@2@$0A@@std@@@0@IPAU120@@Z ENDP ; std::_Allocate<std::_Tree_nod<std::_Tmap_traits<int,int,std::less<int>,std::allocator<std::pair<int const ,int> >,0> >::_Node>
_TEXT	ENDS
PUBLIC	?max_size@?$allocator@U?$pair@$$CBHH@std@@@std@@QBEIXZ ; std::allocator<std::pair<int const ,int> >::max_size
; Function compile flags: /Ogsp
;	COMDAT ?max_size@?$allocator@U?$pair@$$CBHH@std@@@std@@QBEIXZ
_TEXT	SEGMENT
?max_size@?$allocator@U?$pair@$$CBHH@std@@@std@@QBEIXZ PROC ; std::allocator<std::pair<int const ,int> >::max_size, COMDAT
; _this$ = ecx

; 218  : 		_SIZT _Count = (_SIZT)(-1) / sizeof (_Ty);
; 219  : 		return (0 < _Count ? _Count : 1);

  00000	b8 ff ff ff 1f	 mov	 eax, 536870911		; 1fffffffH

; 220  : 		}

  00005	c3		 ret	 0
?max_size@?$allocator@U?$pair@$$CBHH@std@@@std@@QBEIXZ ENDP ; std::allocator<std::pair<int const ,int> >::max_size
_TEXT	ENDS
PUBLIC	??$forward@U?$pair@$$CBHH@std@@@std@@YA$$QAU?$pair@$$CBHH@0@AAU10@@Z ; std::forward<std::pair<int const ,int> >
; Function compile flags: /Ogsp
; File c:\program files (x86)\microsoft visual studio 10.0\vc\include\utility
;	COMDAT ??$forward@U?$pair@$$CBHH@std@@@std@@YA$$QAU?$pair@$$CBHH@0@AAU10@@Z
_TEXT	SEGMENT
__Arg$ = 8						; size = 4
??$forward@U?$pair@$$CBHH@std@@@std@@YA$$QAU?$pair@$$CBHH@0@AAU10@@Z PROC ; std::forward<std::pair<int const ,int> >, COMDAT

; 78   : 	{	// forward _Arg, given explicitly specified type parameter

  00000	55		 push	 ebp
  00001	8b ec		 mov	 ebp, esp

; 79   : 	return ((_Ty&&)_Arg);

  00003	8b 45 08	 mov	 eax, DWORD PTR __Arg$[ebp]

; 80   : 	}

  00006	5d		 pop	 ebp
  00007	c3		 ret	 0
??$forward@U?$pair@$$CBHH@std@@@std@@YA$$QAU?$pair@$$CBHH@0@AAU10@@Z ENDP ; std::forward<std::pair<int const ,int> >
_TEXT	ENDS
PUBLIC	??$move@AAV?$_Tree_iterator@V?$_Tree_val@V?$_Tmap_traits@HHU?$less@H@std@@V?$allocator@U?$pair@$$CBHH@std@@@2@$0A@@std@@@std@@@std@@@std@@YA$$QAV?$_Tree_iterator@V?$_Tree_val@V?$_Tmap_traits@HHU?$less@H@std@@V?$allocator@U?$pair@$$CBHH@std@@@2@$0A@@std@@@std@@@0@AAV10@@Z ; std::move<std::_Tree_iterator<std::_Tree_val<std::_Tmap_traits<int,int,std::less<int>,std::allocator<std::pair<int const ,int> >,0> > > &>
; Function compile flags: /Ogsp
;	COMDAT ??$move@AAV?$_Tree_iterator@V?$_Tree_val@V?$_Tmap_traits@HHU?$less@H@std@@V?$allocator@U?$pair@$$CBHH@std@@@2@$0A@@std@@@std@@@std@@@std@@YA$$QAV?$_Tree_iterator@V?$_Tree_val@V?$_Tmap_traits@HHU?$less@H@std@@V?$allocator@U?$pair@$$CBHH@std@@@2@$0A@@std@@@std@@@0@AAV10@@Z
_TEXT	SEGMENT
__Arg$ = 8						; size = 4
??$move@AAV?$_Tree_iterator@V?$_Tree_val@V?$_Tmap_traits@HHU?$less@H@std@@V?$allocator@U?$pair@$$CBHH@std@@@2@$0A@@std@@@std@@@std@@@std@@YA$$QAV?$_Tree_iterator@V?$_Tree_val@V?$_Tmap_traits@HHU?$less@H@std@@V?$allocator@U?$pair@$$CBHH@std@@@2@$0A@@std@@@std@@@0@AAV10@@Z PROC ; std::move<std::_Tree_iterator<std::_Tree_val<std::_Tmap_traits<int,int,std::less<int>,std::allocator<std::pair<int const ,int> >,0> > > &>, COMDAT

; 86   : 	{	// forward _Arg as movable

  00000	55		 push	 ebp
  00001	8b ec		 mov	 ebp, esp

; 87   : 	return ((typename tr1::_Remove_reference<_Ty>::_Type&&)_Arg);

  00003	8b 45 08	 mov	 eax, DWORD PTR __Arg$[ebp]

; 88   : 	}

  00006	5d		 pop	 ebp
  00007	c3		 ret	 0
??$move@AAV?$_Tree_iterator@V?$_Tree_val@V?$_Tmap_traits@HHU?$less@H@std@@V?$allocator@U?$pair@$$CBHH@std@@@2@$0A@@std@@@std@@@std@@@std@@YA$$QAV?$_Tree_iterator@V?$_Tree_val@V?$_Tmap_traits@HHU?$less@H@std@@V?$allocator@U?$pair@$$CBHH@std@@@2@$0A@@std@@@std@@@0@AAV10@@Z ENDP ; std::move<std::_Tree_iterator<std::_Tree_val<std::_Tmap_traits<int,int,std::less<int>,std::allocator<std::pair<int const ,int> >,0> > > &>
_TEXT	ENDS
PUBLIC	??$forward@AAV?$_Tree_iterator@V?$_Tree_val@V?$_Tmap_traits@HHU?$less@H@std@@V?$allocator@U?$pair@$$CBHH@std@@@2@$0A@@std@@@std@@@std@@@std@@YAAAV?$_Tree_iterator@V?$_Tree_val@V?$_Tmap_traits@HHU?$less@H@std@@V?$allocator@U?$pair@$$CBHH@std@@@2@$0A@@std@@@std@@@0@AAV10@@Z ; std::forward<std::_Tree_iterator<std::_Tree_val<std::_Tmap_traits<int,int,std::less<int>,std::allocator<std::pair<int const ,int> >,0> > > &>
; Function compile flags: /Ogsp
;	COMDAT ??$forward@AAV?$_Tree_iterator@V?$_Tree_val@V?$_Tmap_traits@HHU?$less@H@std@@V?$allocator@U?$pair@$$CBHH@std@@@2@$0A@@std@@@std@@@std@@@std@@YAAAV?$_Tree_iterator@V?$_Tree_val@V?$_Tmap_traits@HHU?$less@H@std@@V?$allocator@U?$pair@$$CBHH@std@@@2@$0A@@std@@@std@@@0@AAV10@@Z
_TEXT	SEGMENT
__Arg$ = 8						; size = 4
??$forward@AAV?$_Tree_iterator@V?$_Tree_val@V?$_Tmap_traits@HHU?$less@H@std@@V?$allocator@U?$pair@$$CBHH@std@@@2@$0A@@std@@@std@@@std@@@std@@YAAAV?$_Tree_iterator@V?$_Tree_val@V?$_Tmap_traits@HHU?$less@H@std@@V?$allocator@U?$pair@$$CBHH@std@@@2@$0A@@std@@@std@@@0@AAV10@@Z PROC ; std::forward<std::_Tree_iterator<std::_Tree_val<std::_Tmap_traits<int,int,std::less<int>,std::allocator<std::pair<int const ,int> >,0> > > &>, COMDAT

; 78   : 	{	// forward _Arg, given explicitly specified type parameter

  00000	55		 push	 ebp
  00001	8b ec		 mov	 ebp, esp

; 79   : 	return ((_Ty&&)_Arg);

  00003	8b 45 08	 mov	 eax, DWORD PTR __Arg$[ebp]

; 80   : 	}

  00006	5d		 pop	 ebp
  00007	c3		 ret	 0
??$forward@AAV?$_Tree_iterator@V?$_Tree_val@V?$_Tmap_traits@HHU?$less@H@std@@V?$allocator@U?$pair@$$CBHH@std@@@2@$0A@@std@@@std@@@std@@@std@@YAAAV?$_Tree_iterator@V?$_Tree_val@V?$_Tmap_traits@HHU?$less@H@std@@V?$allocator@U?$pair@$$CBHH@std@@@2@$0A@@std@@@std@@@0@AAV10@@Z ENDP ; std::forward<std::_Tree_iterator<std::_Tree_val<std::_Tmap_traits<int,int,std::less<int>,std::allocator<std::pair<int const ,int> >,0> > > &>
_TEXT	ENDS
PUBLIC	??$forward@$$CBH@std@@YA$$QBHABH@Z		; std::forward<int const >
; Function compile flags: /Ogsp
;	COMDAT ??$forward@$$CBH@std@@YA$$QBHABH@Z
_TEXT	SEGMENT
__Arg$ = 8						; size = 4
??$forward@$$CBH@std@@YA$$QBHABH@Z PROC			; std::forward<int const >, COMDAT

; 78   : 	{	// forward _Arg, given explicitly specified type parameter

  00000	55		 push	 ebp
  00001	8b ec		 mov	 ebp, esp

; 79   : 	return ((_Ty&&)_Arg);

  00003	8b 45 08	 mov	 eax, DWORD PTR __Arg$[ebp]

; 80   : 	}

  00006	5d		 pop	 ebp
  00007	c3		 ret	 0
??$forward@$$CBH@std@@YA$$QBHABH@Z ENDP			; std::forward<int const >
_TEXT	ENDS
PUBLIC	??$move@ABH@std@@YA$$QBHABH@Z			; std::move<int const &>
; Function compile flags: /Ogsp
;	COMDAT ??$move@ABH@std@@YA$$QBHABH@Z
_TEXT	SEGMENT
__Arg$ = 8						; size = 4
??$move@ABH@std@@YA$$QBHABH@Z PROC			; std::move<int const &>, COMDAT

; 86   : 	{	// forward _Arg as movable

  00000	55		 push	 ebp
  00001	8b ec		 mov	 ebp, esp

; 87   : 	return ((typename tr1::_Remove_reference<_Ty>::_Type&&)_Arg);

  00003	8b 45 08	 mov	 eax, DWORD PTR __Arg$[ebp]

; 88   : 	}

  00006	5d		 pop	 ebp
  00007	c3		 ret	 0
??$move@ABH@std@@YA$$QBHABH@Z ENDP			; std::move<int const &>
_TEXT	ENDS
PUBLIC	?_DECSTR@@YAXPADH@Z				; _DECSTR
; Function compile flags: /Ogsp
; File d:\lost saga for developer\youtube\tutorial\source\src\lsclient\stringprotect.h
;	COMDAT ?_DECSTR@@YAXPADH@Z
_TEXT	SEGMENT
_s$ = 8							; size = 4
_l$ = 12						; size = 4
?_DECSTR@@YAXPADH@Z PROC				; _DECSTR, COMDAT

; 40   : __forceinline void _DECSTR(char* s, int l){int i=0,l4=(l-1)/4,*p=(int*)s;s[l-1]=0;for(;i<l4;++i)*(p++)^=0xEAEBECED;for(i=l4*4;i<l-1;++i)s[i]^=0xED-i%4;}

  00000	55		 push	 ebp
  00001	8b ec		 mov	 ebp, esp
  00003	8b 4d 0c	 mov	 ecx, DWORD PTR _l$[ebp]
  00006	56		 push	 esi
  00007	8b 75 08	 mov	 esi, DWORD PTR _s$[ebp]
  0000a	57		 push	 edi
  0000b	8d 79 ff	 lea	 edi, DWORD PTR [ecx-1]
  0000e	8b c7		 mov	 eax, edi
  00010	99		 cdq
  00011	83 e2 03	 and	 edx, 3
  00014	03 c2		 add	 eax, edx
  00016	c1 f8 02	 sar	 eax, 2
  00019	8b d6		 mov	 edx, esi
  0001b	c6 44 0e ff 00	 mov	 BYTE PTR [esi+ecx-1], 0
  00020	85 c0		 test	 eax, eax
  00022	7e 0e		 jle	 SHORT $LN4@DECSTR
  00024	8b c8		 mov	 ecx, eax
$LL6@DECSTR:
  00026	81 32 ed ec eb
	ea		 xor	 DWORD PTR [edx], -353637139 ; eaebecedH
  0002c	83 c2 04	 add	 edx, 4
  0002f	49		 dec	 ecx
  00030	75 f4		 jne	 SHORT $LL6@DECSTR
$LN4@DECSTR:
  00032	c1 e0 02	 shl	 eax, 2
  00035	eb 17		 jmp	 SHORT $LN14@DECSTR
$LL3@DECSTR:
  00037	8b c8		 mov	 ecx, eax
  00039	81 e1 03 00 00
	80		 and	 ecx, -2147483645	; 80000003H
  0003f	79 05		 jns	 SHORT $LN13@DECSTR
  00041	49		 dec	 ecx
  00042	83 c9 fc	 or	 ecx, -4			; fffffffcH
  00045	41		 inc	 ecx
$LN13@DECSTR:
  00046	b2 ed		 mov	 dl, -19			; ffffffedH
  00048	2a d1		 sub	 dl, cl
  0004a	30 14 30	 xor	 BYTE PTR [eax+esi], dl
  0004d	40		 inc	 eax
$LN14@DECSTR:
  0004e	3b c7		 cmp	 eax, edi
  00050	7c e5		 jl	 SHORT $LL3@DECSTR
  00052	5f		 pop	 edi
  00053	5e		 pop	 esi
  00054	5d		 pop	 ebp
  00055	c3		 ret	 0
?_DECSTR@@YAXPADH@Z ENDP				; _DECSTR
_TEXT	ENDS
PUBLIC	?Init@EXTRAITEMSLOT@@QAEXXZ			; EXTRAITEMSLOT::Init
; Function compile flags: /Ogsp
; File d:\lost saga for developer\youtube\tutorial\source\src\lsclient\iouserextraitem.h
;	COMDAT ?Init@EXTRAITEMSLOT@@QAEXXZ
_TEXT	SEGMENT
?Init@EXTRAITEMSLOT@@QAEXXZ PROC			; EXTRAITEMSLOT::Init, COMDAT
; _this$ = ecx

; 50   : 		m_iItemCode = 0;

  00000	33 c0		 xor	 eax, eax

; 51   : 		m_iReinforce = 0;
; 52   : 		m_iIndex = 0;
; 53   : 
; 54   : 		m_PeriodType = EPT_TIME;
; 55   : 		m_iValue1 = 0;
; 56   : 		m_iValue2 = 0;
; 57   : 
; 58   : 		m_iTradeState = EET_DISABLE;
; 59   : 	
; 60   : 		m_dwMaleCustom = 0;
; 61   : 		m_dwFemaleCustom = 0;
; 62   : 		m_failExp = 0;

  00002	33 d2		 xor	 edx, edx
  00004	89 01		 mov	 DWORD PTR [ecx], eax
  00006	89 41 04	 mov	 DWORD PTR [ecx+4], eax
  00009	89 41 08	 mov	 DWORD PTR [ecx+8], eax
  0000c	89 41 0c	 mov	 DWORD PTR [ecx+12], eax
  0000f	89 41 10	 mov	 DWORD PTR [ecx+16], eax
  00012	89 41 14	 mov	 DWORD PTR [ecx+20], eax
  00015	89 41 18	 mov	 DWORD PTR [ecx+24], eax
  00018	89 41 1c	 mov	 DWORD PTR [ecx+28], eax
  0001b	89 41 20	 mov	 DWORD PTR [ecx+32], eax
  0001e	66 89 51 24	 mov	 WORD PTR [ecx+36], dx

; 63   : 
; 64   : 		m_bCharEquip = false;

  00022	88 41 26	 mov	 BYTE PTR [ecx+38], al

; 65   : 	}

  00025	c3		 ret	 0
?Init@EXTRAITEMSLOT@@QAEXXZ ENDP			; EXTRAITEMSLOT::Init
_TEXT	ENDS
PUBLIC	?GetUserExtraItem@ioMyInfo@@QAEPAVioUserExtraItem@@XZ ; ioMyInfo::GetUserExtraItem
; Function compile flags: /Ogsp
; File d:\lost saga for developer\youtube\tutorial\source\src\lsclient\iomyinfo.h
;	COMDAT ?GetUserExtraItem@ioMyInfo@@QAEPAVioUserExtraItem@@XZ
_TEXT	SEGMENT
?GetUserExtraItem@ioMyInfo@@QAEPAVioUserExtraItem@@XZ PROC ; ioMyInfo::GetUserExtraItem, COMDAT
; _this$ = ecx

; 636  : 	ioUserExtraItem* GetUserExtraItem() { return &m_UserExtraItem; }

  00000	8d 81 ac 01 00
	00		 lea	 eax, DWORD PTR [ecx+428]
  00006	c3		 ret	 0
?GetUserExtraItem@ioMyInfo@@QAEPAVioUserExtraItem@@XZ ENDP ; ioMyInfo::GetUserExtraItem
_TEXT	ENDS
PUBLIC	?deallocate@?$allocator@U_Node@?$_Tree_nod@V?$_Tmap_traits@HHU?$less@H@std@@V?$allocator@U?$pair@$$CBHH@std@@@2@$0A@@std@@@std@@@std@@QAEXPAU_Node@?$_Tree_nod@V?$_Tmap_traits@HHU?$less@H@std@@V?$allocator@U?$pair@$$CBHH@std@@@2@$0A@@std@@@2@I@Z ; std::allocator<std::_Tree_nod<std::_Tmap_traits<int,int,std::less<int>,std::allocator<std::pair<int const ,int> >,0> >::_Node>::deallocate
; Function compile flags: /Ogsp
; File c:\program files (x86)\microsoft visual studio 10.0\vc\include\xmemory
;	COMDAT ?deallocate@?$allocator@U_Node@?$_Tree_nod@V?$_Tmap_traits@HHU?$less@H@std@@V?$allocator@U?$pair@$$CBHH@std@@@2@$0A@@std@@@std@@@std@@QAEXPAU_Node@?$_Tree_nod@V?$_Tmap_traits@HHU?$less@H@std@@V?$allocator@U?$pair@$$CBHH@std@@@2@$0A@@std@@@2@I@Z
_TEXT	SEGMENT
__Ptr$ = 8						; size = 4
___formal$ = 12						; size = 4
?deallocate@?$allocator@U_Node@?$_Tree_nod@V?$_Tmap_traits@HHU?$less@H@std@@V?$allocator@U?$pair@$$CBHH@std@@@2@$0A@@std@@@std@@@std@@QAEXPAU_Node@?$_Tree_nod@V?$_Tmap_traits@HHU?$less@H@std@@V?$allocator@U?$pair@$$CBHH@std@@@2@$0A@@std@@@2@I@Z PROC ; std::allocator<std::_Tree_nod<std::_Tmap_traits<int,int,std::less<int>,std::allocator<std::pair<int const ,int> >,0> >::_Node>::deallocate, COMDAT
; _this$ = ecx

; 181  : 		{	// deallocate object at _Ptr, ignore size

  00000	55		 push	 ebp
  00001	8b ec		 mov	 ebp, esp

; 182  : 		::operator delete(_Ptr);

  00003	ff 75 08	 push	 DWORD PTR __Ptr$[ebp]
  00006	e8 00 00 00 00	 call	 ??3@YAXPAX@Z		; operator delete
  0000b	59		 pop	 ecx

; 183  : 		}

  0000c	5d		 pop	 ebp
  0000d	c2 08 00	 ret	 8
?deallocate@?$allocator@U_Node@?$_Tree_nod@V?$_Tmap_traits@HHU?$less@H@std@@V?$allocator@U?$pair@$$CBHH@std@@@2@$0A@@std@@@std@@@std@@QAEXPAU_Node@?$_Tree_nod@V?$_Tmap_traits@HHU?$less@H@std@@V?$allocator@U?$pair@$$CBHH@std@@@2@$0A@@std@@@2@I@Z ENDP ; std::allocator<std::_Tree_nod<std::_Tmap_traits<int,int,std::less<int>,std::allocator<std::pair<int const ,int> >,0> >::_Node>::deallocate
_TEXT	ENDS
PUBLIC	??8?$_Tree_const_iterator@V?$_Tree_val@V?$_Tmap_traits@HHU?$less@H@std@@V?$allocator@U?$pair@$$CBHH@std@@@2@$0A@@std@@@std@@@std@@QBE_NABV01@@Z ; std::_Tree_const_iterator<std::_Tree_val<std::_Tmap_traits<int,int,std::less<int>,std::allocator<std::pair<int const ,int> >,0> > >::operator==
; Function compile flags: /Ogsp
; File c:\program files (x86)\microsoft visual studio 10.0\vc\include\xtree
;	COMDAT ??8?$_Tree_const_iterator@V?$_Tree_val@V?$_Tmap_traits@HHU?$less@H@std@@V?$allocator@U?$pair@$$CBHH@std@@@2@$0A@@std@@@std@@@std@@QBE_NABV01@@Z
_TEXT	SEGMENT
__Right$ = 8						; size = 4
??8?$_Tree_const_iterator@V?$_Tree_val@V?$_Tmap_traits@HHU?$less@H@std@@V?$allocator@U?$pair@$$CBHH@std@@@2@$0A@@std@@@std@@@std@@QBE_NABV01@@Z PROC ; std::_Tree_const_iterator<std::_Tree_val<std::_Tmap_traits<int,int,std::less<int>,std::allocator<std::pair<int const ,int> >,0> > >::operator==, COMDAT
; _this$ = ecx

; 316  : 		{	// test for iterator equality

  00000	55		 push	 ebp
  00001	8b ec		 mov	 ebp, esp

; 317  :  #if _ITERATOR_DEBUG_LEVEL == 2
; 318  : 		if (this->_Getcont() == 0
; 319  : 			|| this->_Getcont() != _Right._Getcont())
; 320  : 			{	// report error
; 321  : 			_DEBUG_ERROR("map/set iterators incompatible");
; 322  : 			_SCL_SECURE_INVALID_ARGUMENT;
; 323  : 			}
; 324  : 
; 325  :  #elif _ITERATOR_DEBUG_LEVEL == 1
; 326  : 		_SCL_SECURE_VALIDATE(this->_Getcont() != 0
; 327  : 			&& this->_Getcont() == _Right._Getcont());
; 328  :  #endif /* _ITERATOR_DEBUG_LEVEL */
; 329  : 
; 330  : 		return (this->_Ptr == _Right._Ptr);

  00003	8b 01		 mov	 eax, DWORD PTR [ecx]
  00005	8b 4d 08	 mov	 ecx, DWORD PTR __Right$[ebp]
  00008	2b 01		 sub	 eax, DWORD PTR [ecx]
  0000a	f7 d8		 neg	 eax
  0000c	1b c0		 sbb	 eax, eax
  0000e	40		 inc	 eax

; 331  : 		}

  0000f	5d		 pop	 ebp
  00010	c2 04 00	 ret	 4
??8?$_Tree_const_iterator@V?$_Tree_val@V?$_Tmap_traits@HHU?$less@H@std@@V?$allocator@U?$pair@$$CBHH@std@@@2@$0A@@std@@@std@@@std@@QBE_NABV01@@Z ENDP ; std::_Tree_const_iterator<std::_Tree_val<std::_Tmap_traits<int,int,std::less<int>,std::allocator<std::pair<int const ,int> >,0> > >::operator==
_TEXT	ENDS
PUBLIC	??9?$_Tree_const_iterator@V?$_Tree_val@V?$_Tmap_traits@HHU?$less@H@std@@V?$allocator@U?$pair@$$CBHH@std@@@2@$0A@@std@@@std@@@std@@QBE_NABV01@@Z ; std::_Tree_const_iterator<std::_Tree_val<std::_Tmap_traits<int,int,std::less<int>,std::allocator<std::pair<int const ,int> >,0> > >::operator!=
; Function compile flags: /Ogsp
;	COMDAT ??9?$_Tree_const_iterator@V?$_Tree_val@V?$_Tmap_traits@HHU?$less@H@std@@V?$allocator@U?$pair@$$CBHH@std@@@2@$0A@@std@@@std@@@std@@QBE_NABV01@@Z
_TEXT	SEGMENT
__Right$ = 8						; size = 4
??9?$_Tree_const_iterator@V?$_Tree_val@V?$_Tmap_traits@HHU?$less@H@std@@V?$allocator@U?$pair@$$CBHH@std@@@2@$0A@@std@@@std@@@std@@QBE_NABV01@@Z PROC ; std::_Tree_const_iterator<std::_Tree_val<std::_Tmap_traits<int,int,std::less<int>,std::allocator<std::pair<int const ,int> >,0> > >::operator!=, COMDAT
; _this$ = ecx

; 334  : 		{	// test for iterator inequality

  00000	55		 push	 ebp
  00001	8b ec		 mov	 ebp, esp

; 335  : 		return (!(*this == _Right));

  00003	8b 01		 mov	 eax, DWORD PTR [ecx]
  00005	8b 55 08	 mov	 edx, DWORD PTR __Right$[ebp]
  00008	33 c9		 xor	 ecx, ecx
  0000a	3b 02		 cmp	 eax, DWORD PTR [edx]
  0000c	0f 95 c0	 setne	 al

; 336  : 		}

  0000f	5d		 pop	 ebp
  00010	c2 04 00	 ret	 4
??9?$_Tree_const_iterator@V?$_Tree_val@V?$_Tmap_traits@HHU?$less@H@std@@V?$allocator@U?$pair@$$CBHH@std@@@2@$0A@@std@@@std@@@std@@QBE_NABV01@@Z ENDP ; std::_Tree_const_iterator<std::_Tree_val<std::_Tmap_traits<int,int,std::less<int>,std::allocator<std::pair<int const ,int> >,0> > >::operator!=
_TEXT	ENDS
PUBLIC	?_Color@?$_Tree_val@V?$_Tmap_traits@HHU?$less@H@std@@V?$allocator@U?$pair@$$CBHH@std@@@2@$0A@@std@@@std@@SAAADPAU_Node@?$_Tree_nod@V?$_Tmap_traits@HHU?$less@H@std@@V?$allocator@U?$pair@$$CBHH@std@@@2@$0A@@std@@@2@@Z ; std::_Tree_val<std::_Tmap_traits<int,int,std::less<int>,std::allocator<std::pair<int const ,int> >,0> >::_Color
; Function compile flags: /Ogsp
;	COMDAT ?_Color@?$_Tree_val@V?$_Tmap_traits@HHU?$less@H@std@@V?$allocator@U?$pair@$$CBHH@std@@@2@$0A@@std@@@std@@SAAADPAU_Node@?$_Tree_nod@V?$_Tmap_traits@HHU?$less@H@std@@V?$allocator@U?$pair@$$CBHH@std@@@2@$0A@@std@@@2@@Z
_TEXT	SEGMENT
__Pnode$ = 8						; size = 4
?_Color@?$_Tree_val@V?$_Tmap_traits@HHU?$less@H@std@@V?$allocator@U?$pair@$$CBHH@std@@@2@$0A@@std@@@std@@SAAADPAU_Node@?$_Tree_nod@V?$_Tmap_traits@HHU?$less@H@std@@V?$allocator@U?$pair@$$CBHH@std@@@2@$0A@@std@@@2@@Z PROC ; std::_Tree_val<std::_Tmap_traits<int,int,std::less<int>,std::allocator<std::pair<int const ,int> >,0> >::_Color, COMDAT

; 606  : 		{	// return reference to color in node

  00000	55		 push	 ebp
  00001	8b ec		 mov	 ebp, esp

; 607  : 		return ((char&)(*_Pnode)._Color);

  00003	8b 45 08	 mov	 eax, DWORD PTR __Pnode$[ebp]
  00006	83 c0 14	 add	 eax, 20			; 00000014H

; 608  : 		}

  00009	5d		 pop	 ebp
  0000a	c3		 ret	 0
?_Color@?$_Tree_val@V?$_Tmap_traits@HHU?$less@H@std@@V?$allocator@U?$pair@$$CBHH@std@@@2@$0A@@std@@@std@@SAAADPAU_Node@?$_Tree_nod@V?$_Tmap_traits@HHU?$less@H@std@@V?$allocator@U?$pair@$$CBHH@std@@@2@$0A@@std@@@2@@Z ENDP ; std::_Tree_val<std::_Tmap_traits<int,int,std::less<int>,std::allocator<std::pair<int const ,int> >,0> >::_Color
_TEXT	ENDS
PUBLIC	?_Isnil@?$_Tree_val@V?$_Tmap_traits@HHU?$less@H@std@@V?$allocator@U?$pair@$$CBHH@std@@@2@$0A@@std@@@std@@SAAADPAU_Node@?$_Tree_nod@V?$_Tmap_traits@HHU?$less@H@std@@V?$allocator@U?$pair@$$CBHH@std@@@2@$0A@@std@@@2@@Z ; std::_Tree_val<std::_Tmap_traits<int,int,std::less<int>,std::allocator<std::pair<int const ,int> >,0> >::_Isnil
; Function compile flags: /Ogsp
;	COMDAT ?_Isnil@?$_Tree_val@V?$_Tmap_traits@HHU?$less@H@std@@V?$allocator@U?$pair@$$CBHH@std@@@2@$0A@@std@@@std@@SAAADPAU_Node@?$_Tree_nod@V?$_Tmap_traits@HHU?$less@H@std@@V?$allocator@U?$pair@$$CBHH@std@@@2@$0A@@std@@@2@@Z
_TEXT	SEGMENT
__Pnode$ = 8						; size = 4
?_Isnil@?$_Tree_val@V?$_Tmap_traits@HHU?$less@H@std@@V?$allocator@U?$pair@$$CBHH@std@@@2@$0A@@std@@@std@@SAAADPAU_Node@?$_Tree_nod@V?$_Tmap_traits@HHU?$less@H@std@@V?$allocator@U?$pair@$$CBHH@std@@@2@$0A@@std@@@2@@Z PROC ; std::_Tree_val<std::_Tmap_traits<int,int,std::less<int>,std::allocator<std::pair<int const ,int> >,0> >::_Isnil, COMDAT

; 611  : 		{	// return reference to nil flag in node

  00000	55		 push	 ebp
  00001	8b ec		 mov	 ebp, esp

; 612  : 		return ((char&)(*_Pnode)._Isnil);

  00003	8b 45 08	 mov	 eax, DWORD PTR __Pnode$[ebp]
  00006	83 c0 15	 add	 eax, 21			; 00000015H

; 613  : 		}

  00009	5d		 pop	 ebp
  0000a	c3		 ret	 0
?_Isnil@?$_Tree_val@V?$_Tmap_traits@HHU?$less@H@std@@V?$allocator@U?$pair@$$CBHH@std@@@2@$0A@@std@@@std@@SAAADPAU_Node@?$_Tree_nod@V?$_Tmap_traits@HHU?$less@H@std@@V?$allocator@U?$pair@$$CBHH@std@@@2@$0A@@std@@@2@@Z ENDP ; std::_Tree_val<std::_Tmap_traits<int,int,std::less<int>,std::allocator<std::pair<int const ,int> >,0> >::_Isnil
_TEXT	ENDS
PUBLIC	?_Left@?$_Tree_val@V?$_Tmap_traits@HHU?$less@H@std@@V?$allocator@U?$pair@$$CBHH@std@@@2@$0A@@std@@@std@@SAAAPAU_Node@?$_Tree_nod@V?$_Tmap_traits@HHU?$less@H@std@@V?$allocator@U?$pair@$$CBHH@std@@@2@$0A@@std@@@2@PAU342@@Z ; std::_Tree_val<std::_Tmap_traits<int,int,std::less<int>,std::allocator<std::pair<int const ,int> >,0> >::_Left
; Function compile flags: /Ogsp
;	COMDAT ?_Left@?$_Tree_val@V?$_Tmap_traits@HHU?$less@H@std@@V?$allocator@U?$pair@$$CBHH@std@@@2@$0A@@std@@@std@@SAAAPAU_Node@?$_Tree_nod@V?$_Tmap_traits@HHU?$less@H@std@@V?$allocator@U?$pair@$$CBHH@std@@@2@$0A@@std@@@2@PAU342@@Z
_TEXT	SEGMENT
__Pnode$ = 8						; size = 4
?_Left@?$_Tree_val@V?$_Tmap_traits@HHU?$less@H@std@@V?$allocator@U?$pair@$$CBHH@std@@@2@$0A@@std@@@std@@SAAAPAU_Node@?$_Tree_nod@V?$_Tmap_traits@HHU?$less@H@std@@V?$allocator@U?$pair@$$CBHH@std@@@2@$0A@@std@@@2@PAU342@@Z PROC ; std::_Tree_val<std::_Tmap_traits<int,int,std::less<int>,std::allocator<std::pair<int const ,int> >,0> >::_Left, COMDAT

; 621  : 		{	// return reference to left pointer in node

  00000	55		 push	 ebp
  00001	8b ec		 mov	 ebp, esp

; 622  : 		return ((_Nodepref)(*_Pnode)._Left);

  00003	8b 45 08	 mov	 eax, DWORD PTR __Pnode$[ebp]

; 623  : 		}

  00006	5d		 pop	 ebp
  00007	c3		 ret	 0
?_Left@?$_Tree_val@V?$_Tmap_traits@HHU?$less@H@std@@V?$allocator@U?$pair@$$CBHH@std@@@2@$0A@@std@@@std@@SAAAPAU_Node@?$_Tree_nod@V?$_Tmap_traits@HHU?$less@H@std@@V?$allocator@U?$pair@$$CBHH@std@@@2@$0A@@std@@@2@PAU342@@Z ENDP ; std::_Tree_val<std::_Tmap_traits<int,int,std::less<int>,std::allocator<std::pair<int const ,int> >,0> >::_Left
_TEXT	ENDS
PUBLIC	?_Parent@?$_Tree_val@V?$_Tmap_traits@HHU?$less@H@std@@V?$allocator@U?$pair@$$CBHH@std@@@2@$0A@@std@@@std@@SAAAPAU_Node@?$_Tree_nod@V?$_Tmap_traits@HHU?$less@H@std@@V?$allocator@U?$pair@$$CBHH@std@@@2@$0A@@std@@@2@PAU342@@Z ; std::_Tree_val<std::_Tmap_traits<int,int,std::less<int>,std::allocator<std::pair<int const ,int> >,0> >::_Parent
; Function compile flags: /Ogsp
;	COMDAT ?_Parent@?$_Tree_val@V?$_Tmap_traits@HHU?$less@H@std@@V?$allocator@U?$pair@$$CBHH@std@@@2@$0A@@std@@@std@@SAAAPAU_Node@?$_Tree_nod@V?$_Tmap_traits@HHU?$less@H@std@@V?$allocator@U?$pair@$$CBHH@std@@@2@$0A@@std@@@2@PAU342@@Z
_TEXT	SEGMENT
__Pnode$ = 8						; size = 4
?_Parent@?$_Tree_val@V?$_Tmap_traits@HHU?$less@H@std@@V?$allocator@U?$pair@$$CBHH@std@@@2@$0A@@std@@@std@@SAAAPAU_Node@?$_Tree_nod@V?$_Tmap_traits@HHU?$less@H@std@@V?$allocator@U?$pair@$$CBHH@std@@@2@$0A@@std@@@2@PAU342@@Z PROC ; std::_Tree_val<std::_Tmap_traits<int,int,std::less<int>,std::allocator<std::pair<int const ,int> >,0> >::_Parent, COMDAT

; 626  : 		{	// return reference to parent pointer in node

  00000	55		 push	 ebp
  00001	8b ec		 mov	 ebp, esp

; 627  : 		return ((_Nodepref)(*_Pnode)._Parent);

  00003	8b 45 08	 mov	 eax, DWORD PTR __Pnode$[ebp]
  00006	83 c0 04	 add	 eax, 4

; 628  : 		}

  00009	5d		 pop	 ebp
  0000a	c3		 ret	 0
?_Parent@?$_Tree_val@V?$_Tmap_traits@HHU?$less@H@std@@V?$allocator@U?$pair@$$CBHH@std@@@2@$0A@@std@@@std@@SAAAPAU_Node@?$_Tree_nod@V?$_Tmap_traits@HHU?$less@H@std@@V?$allocator@U?$pair@$$CBHH@std@@@2@$0A@@std@@@2@PAU342@@Z ENDP ; std::_Tree_val<std::_Tmap_traits<int,int,std::less<int>,std::allocator<std::pair<int const ,int> >,0> >::_Parent
_TEXT	ENDS
PUBLIC	?_Right@?$_Tree_val@V?$_Tmap_traits@HHU?$less@H@std@@V?$allocator@U?$pair@$$CBHH@std@@@2@$0A@@std@@@std@@SAAAPAU_Node@?$_Tree_nod@V?$_Tmap_traits@HHU?$less@H@std@@V?$allocator@U?$pair@$$CBHH@std@@@2@$0A@@std@@@2@PAU342@@Z ; std::_Tree_val<std::_Tmap_traits<int,int,std::less<int>,std::allocator<std::pair<int const ,int> >,0> >::_Right
; Function compile flags: /Ogsp
;	COMDAT ?_Right@?$_Tree_val@V?$_Tmap_traits@HHU?$less@H@std@@V?$allocator@U?$pair@$$CBHH@std@@@2@$0A@@std@@@std@@SAAAPAU_Node@?$_Tree_nod@V?$_Tmap_traits@HHU?$less@H@std@@V?$allocator@U?$pair@$$CBHH@std@@@2@$0A@@std@@@2@PAU342@@Z
_TEXT	SEGMENT
__Pnode$ = 8						; size = 4
?_Right@?$_Tree_val@V?$_Tmap_traits@HHU?$less@H@std@@V?$allocator@U?$pair@$$CBHH@std@@@2@$0A@@std@@@std@@SAAAPAU_Node@?$_Tree_nod@V?$_Tmap_traits@HHU?$less@H@std@@V?$allocator@U?$pair@$$CBHH@std@@@2@$0A@@std@@@2@PAU342@@Z PROC ; std::_Tree_val<std::_Tmap_traits<int,int,std::less<int>,std::allocator<std::pair<int const ,int> >,0> >::_Right, COMDAT

; 631  : 		{	// return reference to right pointer in node

  00000	55		 push	 ebp
  00001	8b ec		 mov	 ebp, esp

; 632  : 		return ((_Nodepref)(*_Pnode)._Right);

  00003	8b 45 08	 mov	 eax, DWORD PTR __Pnode$[ebp]
  00006	83 c0 08	 add	 eax, 8

; 633  : 		}

  00009	5d		 pop	 ebp
  0000a	c3		 ret	 0
?_Right@?$_Tree_val@V?$_Tmap_traits@HHU?$less@H@std@@V?$allocator@U?$pair@$$CBHH@std@@@2@$0A@@std@@@std@@SAAAPAU_Node@?$_Tree_nod@V?$_Tmap_traits@HHU?$less@H@std@@V?$allocator@U?$pair@$$CBHH@std@@@2@$0A@@std@@@2@PAU342@@Z ENDP ; std::_Tree_val<std::_Tmap_traits<int,int,std::less<int>,std::allocator<std::pair<int const ,int> >,0> >::_Right
_TEXT	ENDS
PUBLIC	?_Myval@?$_Tree_val@V?$_Tmap_traits@HHU?$less@H@std@@V?$allocator@U?$pair@$$CBHH@std@@@2@$0A@@std@@@std@@SAAAU?$pair@$$CBHH@2@PAU_Node@?$_Tree_nod@V?$_Tmap_traits@HHU?$less@H@std@@V?$allocator@U?$pair@$$CBHH@std@@@2@$0A@@std@@@2@@Z ; std::_Tree_val<std::_Tmap_traits<int,int,std::less<int>,std::allocator<std::pair<int const ,int> >,0> >::_Myval
; Function compile flags: /Ogsp
;	COMDAT ?_Myval@?$_Tree_val@V?$_Tmap_traits@HHU?$less@H@std@@V?$allocator@U?$pair@$$CBHH@std@@@2@$0A@@std@@@std@@SAAAU?$pair@$$CBHH@2@PAU_Node@?$_Tree_nod@V?$_Tmap_traits@HHU?$less@H@std@@V?$allocator@U?$pair@$$CBHH@std@@@2@$0A@@std@@@2@@Z
_TEXT	SEGMENT
__Pnode$ = 8						; size = 4
?_Myval@?$_Tree_val@V?$_Tmap_traits@HHU?$less@H@std@@V?$allocator@U?$pair@$$CBHH@std@@@2@$0A@@std@@@std@@SAAAU?$pair@$$CBHH@2@PAU_Node@?$_Tree_nod@V?$_Tmap_traits@HHU?$less@H@std@@V?$allocator@U?$pair@$$CBHH@std@@@2@$0A@@std@@@2@@Z PROC ; std::_Tree_val<std::_Tmap_traits<int,int,std::less<int>,std::allocator<std::pair<int const ,int> >,0> >::_Myval, COMDAT

; 636  : 		{	// return reference to value in node

  00000	55		 push	 ebp
  00001	8b ec		 mov	 ebp, esp

; 637  : 		return ((reference)(*_Pnode)._Myval);

  00003	8b 45 08	 mov	 eax, DWORD PTR __Pnode$[ebp]
  00006	83 c0 0c	 add	 eax, 12			; 0000000cH

; 638  : 		}

  00009	5d		 pop	 ebp
  0000a	c3		 ret	 0
?_Myval@?$_Tree_val@V?$_Tmap_traits@HHU?$less@H@std@@V?$allocator@U?$pair@$$CBHH@std@@@2@$0A@@std@@@std@@SAAAU?$pair@$$CBHH@2@PAU_Node@?$_Tree_nod@V?$_Tmap_traits@HHU?$less@H@std@@V?$allocator@U?$pair@$$CBHH@std@@@2@$0A@@std@@@2@@Z ENDP ; std::_Tree_val<std::_Tmap_traits<int,int,std::less<int>,std::allocator<std::pair<int const ,int> >,0> >::_Myval
_TEXT	ENDS
PUBLIC	?_Max@?$_Tree_val@V?$_Tmap_traits@HHU?$less@H@std@@V?$allocator@U?$pair@$$CBHH@std@@@2@$0A@@std@@@std@@SAPAU_Node@?$_Tree_nod@V?$_Tmap_traits@HHU?$less@H@std@@V?$allocator@U?$pair@$$CBHH@std@@@2@$0A@@std@@@2@PAU342@@Z ; std::_Tree_val<std::_Tmap_traits<int,int,std::less<int>,std::allocator<std::pair<int const ,int> >,0> >::_Max
; Function compile flags: /Ogsp
;	COMDAT ?_Max@?$_Tree_val@V?$_Tmap_traits@HHU?$less@H@std@@V?$allocator@U?$pair@$$CBHH@std@@@2@$0A@@std@@@std@@SAPAU_Node@?$_Tree_nod@V?$_Tmap_traits@HHU?$less@H@std@@V?$allocator@U?$pair@$$CBHH@std@@@2@$0A@@std@@@2@PAU342@@Z
_TEXT	SEGMENT
__Pnode$ = 8						; size = 4
?_Max@?$_Tree_val@V?$_Tmap_traits@HHU?$less@H@std@@V?$allocator@U?$pair@$$CBHH@std@@@2@$0A@@std@@@std@@SAPAU_Node@?$_Tree_nod@V?$_Tmap_traits@HHU?$less@H@std@@V?$allocator@U?$pair@$$CBHH@std@@@2@$0A@@std@@@2@PAU342@@Z PROC ; std::_Tree_val<std::_Tmap_traits<int,int,std::less<int>,std::allocator<std::pair<int const ,int> >,0> >::_Max, COMDAT

; 641  : 		{	// return rightmost node in subtree at _Pnode

  00000	55		 push	 ebp
  00001	8b ec		 mov	 ebp, esp

; 642  : 		while (!_Isnil(_Right(_Pnode)))

  00003	8b 45 08	 mov	 eax, DWORD PTR __Pnode$[ebp]
  00006	eb 02		 jmp	 SHORT $LN14@Max
$LL2@Max:

; 643  : 			_Pnode = _Right(_Pnode);

  00008	8b c1		 mov	 eax, ecx
$LN14@Max:

; 642  : 		while (!_Isnil(_Right(_Pnode)))

  0000a	8b 48 08	 mov	 ecx, DWORD PTR [eax+8]
  0000d	80 79 15 00	 cmp	 BYTE PTR [ecx+21], 0
  00011	74 f5		 je	 SHORT $LL2@Max

; 644  : 		return (_Pnode);
; 645  : 		}

  00013	5d		 pop	 ebp
  00014	c3		 ret	 0
?_Max@?$_Tree_val@V?$_Tmap_traits@HHU?$less@H@std@@V?$allocator@U?$pair@$$CBHH@std@@@2@$0A@@std@@@std@@SAPAU_Node@?$_Tree_nod@V?$_Tmap_traits@HHU?$less@H@std@@V?$allocator@U?$pair@$$CBHH@std@@@2@$0A@@std@@@2@PAU342@@Z ENDP ; std::_Tree_val<std::_Tmap_traits<int,int,std::less<int>,std::allocator<std::pair<int const ,int> >,0> >::_Max
_TEXT	ENDS
PUBLIC	?_Min@?$_Tree_val@V?$_Tmap_traits@HHU?$less@H@std@@V?$allocator@U?$pair@$$CBHH@std@@@2@$0A@@std@@@std@@SAPAU_Node@?$_Tree_nod@V?$_Tmap_traits@HHU?$less@H@std@@V?$allocator@U?$pair@$$CBHH@std@@@2@$0A@@std@@@2@PAU342@@Z ; std::_Tree_val<std::_Tmap_traits<int,int,std::less<int>,std::allocator<std::pair<int const ,int> >,0> >::_Min
; Function compile flags: /Ogsp
;	COMDAT ?_Min@?$_Tree_val@V?$_Tmap_traits@HHU?$less@H@std@@V?$allocator@U?$pair@$$CBHH@std@@@2@$0A@@std@@@std@@SAPAU_Node@?$_Tree_nod@V?$_Tmap_traits@HHU?$less@H@std@@V?$allocator@U?$pair@$$CBHH@std@@@2@$0A@@std@@@2@PAU342@@Z
_TEXT	SEGMENT
__Pnode$ = 8						; size = 4
?_Min@?$_Tree_val@V?$_Tmap_traits@HHU?$less@H@std@@V?$allocator@U?$pair@$$CBHH@std@@@2@$0A@@std@@@std@@SAPAU_Node@?$_Tree_nod@V?$_Tmap_traits@HHU?$less@H@std@@V?$allocator@U?$pair@$$CBHH@std@@@2@$0A@@std@@@2@PAU342@@Z PROC ; std::_Tree_val<std::_Tmap_traits<int,int,std::less<int>,std::allocator<std::pair<int const ,int> >,0> >::_Min, COMDAT

; 648  : 		{	// return leftmost node in subtree at _Pnode

  00000	55		 push	 ebp
  00001	8b ec		 mov	 ebp, esp

; 649  : 		while (!_Isnil(_Left(_Pnode)))

  00003	8b 45 08	 mov	 eax, DWORD PTR __Pnode$[ebp]
  00006	eb 02		 jmp	 SHORT $LN14@Min
$LL2@Min:

; 650  : 			_Pnode = _Left(_Pnode);

  00008	8b c1		 mov	 eax, ecx
$LN14@Min:

; 649  : 		while (!_Isnil(_Left(_Pnode)))

  0000a	8b 08		 mov	 ecx, DWORD PTR [eax]
  0000c	80 79 15 00	 cmp	 BYTE PTR [ecx+21], 0
  00010	74 f6		 je	 SHORT $LL2@Min

; 651  : 		return (_Pnode);
; 652  : 		}

  00012	5d		 pop	 ebp
  00013	c3		 ret	 0
?_Min@?$_Tree_val@V?$_Tmap_traits@HHU?$less@H@std@@V?$allocator@U?$pair@$$CBHH@std@@@2@$0A@@std@@@std@@SAPAU_Node@?$_Tree_nod@V?$_Tmap_traits@HHU?$less@H@std@@V?$allocator@U?$pair@$$CBHH@std@@@2@$0A@@std@@@2@PAU342@@Z ENDP ; std::_Tree_val<std::_Tmap_traits<int,int,std::less<int>,std::allocator<std::pair<int const ,int> >,0> >::_Min
_TEXT	ENDS
PUBLIC	?_Mynode@?$_Tree_unchecked_const_iterator@V?$_Tree_val@V?$_Tmap_traits@HHU?$less@H@std@@V?$allocator@U?$pair@$$CBHH@std@@@2@$0A@@std@@@std@@U_Iterator_base0@2@@std@@QBEPAU_Node@?$_Tree_nod@V?$_Tmap_traits@HHU?$less@H@std@@V?$allocator@U?$pair@$$CBHH@std@@@2@$0A@@std@@@2@XZ ; std::_Tree_unchecked_const_iterator<std::_Tree_val<std::_Tmap_traits<int,int,std::less<int>,std::allocator<std::pair<int const ,int> >,0> >,std::_Iterator_base0>::_Mynode
; Function compile flags: /Ogsp
;	COMDAT ?_Mynode@?$_Tree_unchecked_const_iterator@V?$_Tree_val@V?$_Tmap_traits@HHU?$less@H@std@@V?$allocator@U?$pair@$$CBHH@std@@@2@$0A@@std@@@std@@U_Iterator_base0@2@@std@@QBEPAU_Node@?$_Tree_nod@V?$_Tmap_traits@HHU?$less@H@std@@V?$allocator@U?$pair@$$CBHH@std@@@2@$0A@@std@@@2@XZ
_TEXT	SEGMENT
?_Mynode@?$_Tree_unchecked_const_iterator@V?$_Tree_val@V?$_Tmap_traits@HHU?$less@H@std@@V?$allocator@U?$pair@$$CBHH@std@@@2@$0A@@std@@@std@@U_Iterator_base0@2@@std@@QBEPAU_Node@?$_Tree_nod@V?$_Tmap_traits@HHU?$less@H@std@@V?$allocator@U?$pair@$$CBHH@std@@@2@$0A@@std@@@2@XZ PROC ; std::_Tree_unchecked_const_iterator<std::_Tree_val<std::_Tmap_traits<int,int,std::less<int>,std::allocator<std::pair<int const ,int> >,0> >,std::_Iterator_base0>::_Mynode, COMDAT
; _this$ = ecx

; 122  : 		return (_Ptr);

  00000	8b 01		 mov	 eax, DWORD PTR [ecx]

; 123  : 		}

  00002	c3		 ret	 0
?_Mynode@?$_Tree_unchecked_const_iterator@V?$_Tree_val@V?$_Tmap_traits@HHU?$less@H@std@@V?$allocator@U?$pair@$$CBHH@std@@@2@$0A@@std@@@std@@U_Iterator_base0@2@@std@@QBEPAU_Node@?$_Tree_nod@V?$_Tmap_traits@HHU?$less@H@std@@V?$allocator@U?$pair@$$CBHH@std@@@2@$0A@@std@@@2@XZ ENDP ; std::_Tree_unchecked_const_iterator<std::_Tree_val<std::_Tmap_traits<int,int,std::less<int>,std::allocator<std::pair<int const ,int> >,0> >,std::_Iterator_base0>::_Mynode
_TEXT	ENDS
PUBLIC	??0?$_Tree_unchecked_const_iterator@V?$_Tree_val@V?$_Tmap_traits@HHU?$less@H@std@@V?$allocator@U?$pair@$$CBHH@std@@@2@$0A@@std@@@std@@U_Iterator_base0@2@@std@@QAE@PAU_Node@?$_Tree_nod@V?$_Tmap_traits@HHU?$less@H@std@@V?$allocator@U?$pair@$$CBHH@std@@@2@$0A@@std@@@1@PBV?$_Tree_val@V?$_Tmap_traits@HHU?$less@H@std@@V?$allocator@U?$pair@$$CBHH@std@@@2@$0A@@std@@@1@@Z ; std::_Tree_unchecked_const_iterator<std::_Tree_val<std::_Tmap_traits<int,int,std::less<int>,std::allocator<std::pair<int const ,int> >,0> >,std::_Iterator_base0>::_Tree_unchecked_const_iterator<std::_Tree_val<std::_Tmap_traits<int,int,std::less<int>,std::allocator<std::pair<int const ,int> >,0> >,std::_Iterator_base0>
; Function compile flags: /Ogsp
;	COMDAT ??0?$_Tree_unchecked_const_iterator@V?$_Tree_val@V?$_Tmap_traits@HHU?$less@H@std@@V?$allocator@U?$pair@$$CBHH@std@@@2@$0A@@std@@@std@@U_Iterator_base0@2@@std@@QAE@PAU_Node@?$_Tree_nod@V?$_Tmap_traits@HHU?$less@H@std@@V?$allocator@U?$pair@$$CBHH@std@@@2@$0A@@std@@@1@PBV?$_Tree_val@V?$_Tmap_traits@HHU?$less@H@std@@V?$allocator@U?$pair@$$CBHH@std@@@2@$0A@@std@@@1@@Z
_TEXT	SEGMENT
__Pnode$ = 8						; size = 4
__Plist$ = 12						; size = 4
??0?$_Tree_unchecked_const_iterator@V?$_Tree_val@V?$_Tmap_traits@HHU?$less@H@std@@V?$allocator@U?$pair@$$CBHH@std@@@2@$0A@@std@@@std@@U_Iterator_base0@2@@std@@QAE@PAU_Node@?$_Tree_nod@V?$_Tmap_traits@HHU?$less@H@std@@V?$allocator@U?$pair@$$CBHH@std@@@2@$0A@@std@@@1@PBV?$_Tree_val@V?$_Tmap_traits@HHU?$less@H@std@@V?$allocator@U?$pair@$$CBHH@std@@@2@$0A@@std@@@1@@Z PROC ; std::_Tree_unchecked_const_iterator<std::_Tree_val<std::_Tmap_traits<int,int,std::less<int>,std::allocator<std::pair<int const ,int> >,0> >,std::_Iterator_base0>::_Tree_unchecked_const_iterator<std::_Tree_val<std::_Tmap_traits<int,int,std::less<int>,std::allocator<std::pair<int const ,int> >,0> >,std::_Iterator_base0>, COMDAT
; _this$ = ecx

; 43   : 		{	// construct with node pointer _Pnode

  00000	55		 push	 ebp
  00001	8b ec		 mov	 ebp, esp
  00003	8b c1		 mov	 eax, ecx
  00005	8b 4d 08	 mov	 ecx, DWORD PTR __Pnode$[ebp]
  00008	89 08		 mov	 DWORD PTR [eax], ecx

; 44   : 		this->_Adopt(_Plist);
; 45   : 		}

  0000a	5d		 pop	 ebp
  0000b	c2 08 00	 ret	 8
??0?$_Tree_unchecked_const_iterator@V?$_Tree_val@V?$_Tmap_traits@HHU?$less@H@std@@V?$allocator@U?$pair@$$CBHH@std@@@2@$0A@@std@@@std@@U_Iterator_base0@2@@std@@QAE@PAU_Node@?$_Tree_nod@V?$_Tmap_traits@HHU?$less@H@std@@V?$allocator@U?$pair@$$CBHH@std@@@2@$0A@@std@@@1@PBV?$_Tree_val@V?$_Tmap_traits@HHU?$less@H@std@@V?$allocator@U?$pair@$$CBHH@std@@@2@$0A@@std@@@1@@Z ENDP ; std::_Tree_unchecked_const_iterator<std::_Tree_val<std::_Tmap_traits<int,int,std::less<int>,std::allocator<std::pair<int const ,int> >,0> >,std::_Iterator_base0>::_Tree_unchecked_const_iterator<std::_Tree_val<std::_Tmap_traits<int,int,std::less<int>,std::allocator<std::pair<int const ,int> >,0> >,std::_Iterator_base0>
_TEXT	ENDS
PUBLIC	??E?$_Tree_unchecked_const_iterator@V?$_Tree_val@V?$_Tmap_traits@HHU?$less@H@std@@V?$allocator@U?$pair@$$CBHH@std@@@2@$0A@@std@@@std@@U_Iterator_base0@2@@std@@QAEAAV01@XZ ; std::_Tree_unchecked_const_iterator<std::_Tree_val<std::_Tmap_traits<int,int,std::less<int>,std::allocator<std::pair<int const ,int> >,0> >,std::_Iterator_base0>::operator++
; Function compile flags: /Ogsp
;	COMDAT ??E?$_Tree_unchecked_const_iterator@V?$_Tree_val@V?$_Tmap_traits@HHU?$less@H@std@@V?$allocator@U?$pair@$$CBHH@std@@@2@$0A@@std@@@std@@U_Iterator_base0@2@@std@@QAEAAV01@XZ
_TEXT	SEGMENT
??E?$_Tree_unchecked_const_iterator@V?$_Tree_val@V?$_Tmap_traits@HHU?$less@H@std@@V?$allocator@U?$pair@$$CBHH@std@@@2@$0A@@std@@@std@@U_Iterator_base0@2@@std@@QAEAAV01@XZ PROC ; std::_Tree_unchecked_const_iterator<std::_Tree_val<std::_Tmap_traits<int,int,std::less<int>,std::allocator<std::pair<int const ,int> >,0> >,std::_Iterator_base0>::operator++, COMDAT
; _this$ = ecx

; 58   : 		{	// preincrement

  00000	8b c1		 mov	 eax, ecx

; 59   : 		if (_Mytree::_Isnil(_Ptr))

  00002	8b 08		 mov	 ecx, DWORD PTR [eax]
  00004	53		 push	 ebx
  00005	32 db		 xor	 bl, bl
  00007	38 59 15	 cmp	 BYTE PTR [ecx+21], bl
  0000a	75 2d		 jne	 SHORT $LN3@operator

; 60   : 			;	// end() shouldn't be incremented, don't move
; 61   : 		else if (!_Mytree::_Isnil(_Mytree::_Right(_Ptr)))

  0000c	8b 51 08	 mov	 edx, DWORD PTR [ecx+8]
  0000f	38 5a 15	 cmp	 BYTE PTR [edx+21], bl
  00012	75 0d		 jne	 SHORT $LN34@operator

; 62   : 			_Ptr = _Mytree::_Min(
; 63   : 				_Mytree::_Right(_Ptr));	// ==> smallest of right subtree

$LL18@operator:
  00014	8b ca		 mov	 ecx, edx
  00016	8b 11		 mov	 edx, DWORD PTR [ecx]
  00018	38 5a 15	 cmp	 BYTE PTR [edx+21], bl
  0001b	74 f7		 je	 SHORT $LL18@operator
  0001d	89 08		 mov	 DWORD PTR [eax], ecx
  0001f	5b		 pop	 ebx

; 71   : 			}
; 72   : 		return (*this);
; 73   : 		}

  00020	c3		 ret	 0
$LN34@operator:

; 64   : 		else
; 65   : 			{	// climb looking for right subtree
; 66   : 			_Nodeptr _Pnode;
; 67   : 			while (!_Mytree::_Isnil(_Pnode = _Mytree::_Parent(_Ptr))
; 68   : 				&& _Ptr == _Mytree::_Right(_Pnode))

  00021	8b 51 04	 mov	 edx, DWORD PTR [ecx+4]
  00024	eb 0c		 jmp	 SHORT $LN38@operator
$LL2@operator:
  00026	8b 08		 mov	 ecx, DWORD PTR [eax]
  00028	3b 4a 08	 cmp	 ecx, DWORD PTR [edx+8]
  0002b	75 0a		 jne	 SHORT $LN1@operator

; 69   : 				_Ptr = _Pnode;	// ==> parent while right subtree

  0002d	89 10		 mov	 DWORD PTR [eax], edx
  0002f	8b 52 04	 mov	 edx, DWORD PTR [edx+4]
$LN38@operator:

; 64   : 		else
; 65   : 			{	// climb looking for right subtree
; 66   : 			_Nodeptr _Pnode;
; 67   : 			while (!_Mytree::_Isnil(_Pnode = _Mytree::_Parent(_Ptr))
; 68   : 				&& _Ptr == _Mytree::_Right(_Pnode))

  00032	38 5a 15	 cmp	 BYTE PTR [edx+21], bl
  00035	74 ef		 je	 SHORT $LL2@operator
$LN1@operator:

; 70   : 			_Ptr = _Pnode;	// ==> parent (head if end())

  00037	89 10		 mov	 DWORD PTR [eax], edx
$LN3@operator:
  00039	5b		 pop	 ebx

; 71   : 			}
; 72   : 		return (*this);
; 73   : 		}

  0003a	c3		 ret	 0
??E?$_Tree_unchecked_const_iterator@V?$_Tree_val@V?$_Tmap_traits@HHU?$less@H@std@@V?$allocator@U?$pair@$$CBHH@std@@@2@$0A@@std@@@std@@U_Iterator_base0@2@@std@@QAEAAV01@XZ ENDP ; std::_Tree_unchecked_const_iterator<std::_Tree_val<std::_Tmap_traits<int,int,std::less<int>,std::allocator<std::pair<int const ,int> >,0> >,std::_Iterator_base0>::operator++
_TEXT	ENDS
PUBLIC	??$addressof@U?$pair@$$CBHH@std@@@std@@YAPAU?$pair@$$CBHH@0@AAU10@@Z ; std::addressof<std::pair<int const ,int> >
; Function compile flags: /Ogsp
; File c:\program files (x86)\microsoft visual studio 10.0\vc\include\xmemory
;	COMDAT ??$addressof@U?$pair@$$CBHH@std@@@std@@YAPAU?$pair@$$CBHH@0@AAU10@@Z
_TEXT	SEGMENT
__Val$ = 8						; size = 4
??$addressof@U?$pair@$$CBHH@std@@@std@@YAPAU?$pair@$$CBHH@0@AAU10@@Z PROC ; std::addressof<std::pair<int const ,int> >, COMDAT

; 110  : 	{	// return address of _Val

  00000	55		 push	 ebp
  00001	8b ec		 mov	 ebp, esp

; 111  : 	return ((_Ty *) &(char&)_Val);

  00003	8b 45 08	 mov	 eax, DWORD PTR __Val$[ebp]

; 112  : 	}

  00006	5d		 pop	 ebp
  00007	c3		 ret	 0
??$addressof@U?$pair@$$CBHH@std@@@std@@YAPAU?$pair@$$CBHH@0@AAU10@@Z ENDP ; std::addressof<std::pair<int const ,int> >
_TEXT	ENDS
EXTRN	__imp_??0exception@std@@QAE@ABV01@@Z:PROC
; Function compile flags: /Ogsp
;	COMDAT ??0bad_alloc@std@@QAE@ABV01@@Z
_TEXT	SEGMENT
___that$ = 8						; size = 4
??0bad_alloc@std@@QAE@ABV01@@Z PROC			; std::bad_alloc::bad_alloc, COMDAT
; _this$ = ecx
  00000	55		 push	 ebp
  00001	8b ec		 mov	 ebp, esp
  00003	56		 push	 esi
  00004	ff 75 08	 push	 DWORD PTR ___that$[ebp]
  00007	8b f1		 mov	 esi, ecx
  00009	ff 15 00 00 00
	00		 call	 DWORD PTR __imp_??0exception@std@@QAE@ABV01@@Z
  0000f	c7 06 00 00 00
	00		 mov	 DWORD PTR [esi], OFFSET ??_7bad_alloc@std@@6B@
  00015	8b c6		 mov	 eax, esi
  00017	5e		 pop	 esi
  00018	5d		 pop	 ebp
  00019	c2 04 00	 ret	 4
??0bad_alloc@std@@QAE@ABV01@@Z ENDP			; std::bad_alloc::bad_alloc
_TEXT	ENDS
PUBLIC	??$forward@AAH@std@@YAAAHAAH@Z			; std::forward<int &>
; Function compile flags: /Ogsp
; File c:\program files (x86)\microsoft visual studio 10.0\vc\include\utility
;	COMDAT ??$forward@AAH@std@@YAAAHAAH@Z
_TEXT	SEGMENT
__Arg$ = 8						; size = 4
??$forward@AAH@std@@YAAAHAAH@Z PROC			; std::forward<int &>, COMDAT

; 78   : 	{	// forward _Arg, given explicitly specified type parameter

  00000	55		 push	 ebp
  00001	8b ec		 mov	 ebp, esp

; 79   : 	return ((_Ty&&)_Arg);

  00003	8b 45 08	 mov	 eax, DWORD PTR __Arg$[ebp]

; 80   : 	}

  00006	5d		 pop	 ebp
  00007	c3		 ret	 0
??$forward@AAH@std@@YAAAHAAH@Z ENDP			; std::forward<int &>
_TEXT	ENDS
PUBLIC	??$_Move@AAD@std@@YA$$QADAAD@Z			; std::_Move<char &>
; Function compile flags: /Ogsp
;	COMDAT ??$_Move@AAD@std@@YA$$QADAAD@Z
_TEXT	SEGMENT
__Arg$ = 8						; size = 4
??$_Move@AAD@std@@YA$$QADAAD@Z PROC			; std::_Move<char &>, COMDAT

; 94   : 	{	// forward _Arg as movable

  00000	55		 push	 ebp
  00001	8b ec		 mov	 ebp, esp

; 95   : 	return ((typename tr1::_Remove_reference<_Ty>::_Type&&)_Arg);

  00003	8b 45 08	 mov	 eax, DWORD PTR __Arg$[ebp]

; 96   : 	}

  00006	5d		 pop	 ebp
  00007	c3		 ret	 0
??$_Move@AAD@std@@YA$$QADAAD@Z ENDP			; std::_Move<char &>
_TEXT	ENDS
PUBLIC	??$_Destroy@U?$pair@$$CBHH@std@@@std@@YAXPAU?$pair@$$CBHH@0@@Z ; std::_Destroy<std::pair<int const ,int> >
; Function compile flags: /Ogsp
; File c:\program files (x86)\microsoft visual studio 10.0\vc\include\xmemory
;	COMDAT ??$_Destroy@U?$pair@$$CBHH@std@@@std@@YAXPAU?$pair@$$CBHH@0@@Z
_TEXT	SEGMENT
__Ptr$ = 8						; size = 4
??$_Destroy@U?$pair@$$CBHH@std@@@std@@YAXPAU?$pair@$$CBHH@0@@Z PROC ; std::_Destroy<std::pair<int const ,int> >, COMDAT

; 63   : 	_Ptr->~_Ty();
; 64   : 	}

  00000	c3		 ret	 0
??$_Destroy@U?$pair@$$CBHH@std@@@std@@YAXPAU?$pair@$$CBHH@0@@Z ENDP ; std::_Destroy<std::pair<int const ,int> >
_TEXT	ENDS
PUBLIC	??$move@AA_N@std@@YA$$QA_NAA_N@Z		; std::move<bool &>
; Function compile flags: /Ogsp
; File c:\program files (x86)\microsoft visual studio 10.0\vc\include\utility
;	COMDAT ??$move@AA_N@std@@YA$$QA_NAA_N@Z
_TEXT	SEGMENT
__Arg$ = 8						; size = 4
??$move@AA_N@std@@YA$$QA_NAA_N@Z PROC			; std::move<bool &>, COMDAT

; 86   : 	{	// forward _Arg as movable

  00000	55		 push	 ebp
  00001	8b ec		 mov	 ebp, esp

; 87   : 	return ((typename tr1::_Remove_reference<_Ty>::_Type&&)_Arg);

  00003	8b 45 08	 mov	 eax, DWORD PTR __Arg$[ebp]

; 88   : 	}

  00006	5d		 pop	 ebp
  00007	c3		 ret	 0
??$move@AA_N@std@@YA$$QA_NAA_N@Z ENDP			; std::move<bool &>
_TEXT	ENDS
PUBLIC	??$forward@_N@std@@YA$$QA_NAA_N@Z		; std::forward<bool>
; Function compile flags: /Ogsp
;	COMDAT ??$forward@_N@std@@YA$$QA_NAA_N@Z
_TEXT	SEGMENT
__Arg$ = 8						; size = 4
??$forward@_N@std@@YA$$QA_NAA_N@Z PROC			; std::forward<bool>, COMDAT

; 78   : 	{	// forward _Arg, given explicitly specified type parameter

  00000	55		 push	 ebp
  00001	8b ec		 mov	 ebp, esp

; 79   : 	return ((_Ty&&)_Arg);

  00003	8b 45 08	 mov	 eax, DWORD PTR __Arg$[ebp]

; 80   : 	}

  00006	5d		 pop	 ebp
  00007	c3		 ret	 0
??$forward@_N@std@@YA$$QA_NAA_N@Z ENDP			; std::forward<bool>
_TEXT	ENDS
PUBLIC	??$forward@H@std@@YA$$QAHAAH@Z			; std::forward<int>
; Function compile flags: /Ogsp
;	COMDAT ??$forward@H@std@@YA$$QAHAAH@Z
_TEXT	SEGMENT
__Arg$ = 8						; size = 4
??$forward@H@std@@YA$$QAHAAH@Z PROC			; std::forward<int>, COMDAT

; 78   : 	{	// forward _Arg, given explicitly specified type parameter

  00000	55		 push	 ebp
  00001	8b ec		 mov	 ebp, esp

; 79   : 	return ((_Ty&&)_Arg);

  00003	8b 45 08	 mov	 eax, DWORD PTR __Arg$[ebp]

; 80   : 	}

  00006	5d		 pop	 ebp
  00007	c3		 ret	 0
??$forward@H@std@@YA$$QAHAAH@Z ENDP			; std::forward<int>
_TEXT	ENDS
PUBLIC	??$move@AAH@std@@YA$$QAHAAH@Z			; std::move<int &>
; Function compile flags: /Ogsp
;	COMDAT ??$move@AAH@std@@YA$$QAHAAH@Z
_TEXT	SEGMENT
__Arg$ = 8						; size = 4
??$move@AAH@std@@YA$$QAHAAH@Z PROC			; std::move<int &>, COMDAT

; 86   : 	{	// forward _Arg as movable

  00000	55		 push	 ebp
  00001	8b ec		 mov	 ebp, esp

; 87   : 	return ((typename tr1::_Remove_reference<_Ty>::_Type&&)_Arg);

  00003	8b 45 08	 mov	 eax, DWORD PTR __Arg$[ebp]

; 88   : 	}

  00006	5d		 pop	 ebp
  00007	c3		 ret	 0
??$move@AAH@std@@YA$$QAHAAH@Z ENDP			; std::move<int &>
_TEXT	ENDS
PUBLIC	?GetSingleton@ioItemRechargeManager@@SAAAV1@XZ	; ioItemRechargeManager::GetSingleton
; Function compile flags: /Ogsp
; File d:\lost saga for developer\youtube\tutorial\source\src\lsclient\ioitemrechargemanager.cpp
;	COMDAT ?GetSingleton@ioItemRechargeManager@@SAAAV1@XZ
_TEXT	SEGMENT
?GetSingleton@ioItemRechargeManager@@SAAAV1@XZ PROC	; ioItemRechargeManager::GetSingleton, COMDAT

; 18   : 	return Singleton< ioItemRechargeManager >::GetSingleton();

  00000	a1 00 00 00 00	 mov	 eax, DWORD PTR ?ms_Singleton@?$Singleton@VioItemRechargeManager@@@@1PAVioItemRechargeManager@@A ; Singleton<ioItemRechargeManager>::ms_Singleton

; 19   : }

  00005	c3		 ret	 0
?GetSingleton@ioItemRechargeManager@@SAAAV1@XZ ENDP	; ioItemRechargeManager::GetSingleton
_TEXT	ENDS
PUBLIC	?_Key@?$_Tree_val@V?$_Tmap_traits@HHU?$less@H@std@@V?$allocator@U?$pair@$$CBHH@std@@@2@$0A@@std@@@std@@SAAAHPAU_Node@?$_Tree_nod@V?$_Tmap_traits@HHU?$less@H@std@@V?$allocator@U?$pair@$$CBHH@std@@@2@$0A@@std@@@2@@Z ; std::_Tree_val<std::_Tmap_traits<int,int,std::less<int>,std::allocator<std::pair<int const ,int> >,0> >::_Key
; Function compile flags: /Ogsp
; File c:\program files (x86)\microsoft visual studio 10.0\vc\include\xtree
;	COMDAT ?_Key@?$_Tree_val@V?$_Tmap_traits@HHU?$less@H@std@@V?$allocator@U?$pair@$$CBHH@std@@@2@$0A@@std@@@std@@SAAAHPAU_Node@?$_Tree_nod@V?$_Tmap_traits@HHU?$less@H@std@@V?$allocator@U?$pair@$$CBHH@std@@@2@$0A@@std@@@2@@Z
_TEXT	SEGMENT
__Pnode$ = 8						; size = 4
?_Key@?$_Tree_val@V?$_Tmap_traits@HHU?$less@H@std@@V?$allocator@U?$pair@$$CBHH@std@@@2@$0A@@std@@@std@@SAAAHPAU_Node@?$_Tree_nod@V?$_Tmap_traits@HHU?$less@H@std@@V?$allocator@U?$pair@$$CBHH@std@@@2@$0A@@std@@@2@@Z PROC ; std::_Tree_val<std::_Tmap_traits<int,int,std::less<int>,std::allocator<std::pair<int const ,int> >,0> >::_Key, COMDAT

; 616  : 		{	// return reference to key in node

  00000	55		 push	 ebp
  00001	8b ec		 mov	 ebp, esp

; 617  : 		return ((key_type&)_Traits::_Kfn(_Myval(_Pnode)));

  00003	8b 45 08	 mov	 eax, DWORD PTR __Pnode$[ebp]
  00006	83 c0 0c	 add	 eax, 12			; 0000000cH

; 618  : 		}

  00009	5d		 pop	 ebp
  0000a	c3		 ret	 0
?_Key@?$_Tree_val@V?$_Tmap_traits@HHU?$less@H@std@@V?$allocator@U?$pair@$$CBHH@std@@@2@$0A@@std@@@std@@SAAAHPAU_Node@?$_Tree_nod@V?$_Tmap_traits@HHU?$less@H@std@@V?$allocator@U?$pair@$$CBHH@std@@@2@$0A@@std@@@2@@Z ENDP ; std::_Tree_val<std::_Tmap_traits<int,int,std::less<int>,std::allocator<std::pair<int const ,int> >,0> >::_Key
_TEXT	ENDS
PUBLIC	??D?$_Tree_const_iterator@V?$_Tree_val@V?$_Tmap_traits@HHU?$less@H@std@@V?$allocator@U?$pair@$$CBHH@std@@@2@$0A@@std@@@std@@@std@@QBEABU?$pair@$$CBHH@1@XZ ; std::_Tree_const_iterator<std::_Tree_val<std::_Tmap_traits<int,int,std::less<int>,std::allocator<std::pair<int const ,int> >,0> > >::operator*
; Function compile flags: /Ogsp
;	COMDAT ??D?$_Tree_const_iterator@V?$_Tree_val@V?$_Tmap_traits@HHU?$less@H@std@@V?$allocator@U?$pair@$$CBHH@std@@@2@$0A@@std@@@std@@@std@@QBEABU?$pair@$$CBHH@1@XZ
_TEXT	SEGMENT
??D?$_Tree_const_iterator@V?$_Tree_val@V?$_Tmap_traits@HHU?$less@H@std@@V?$allocator@U?$pair@$$CBHH@std@@@2@$0A@@std@@@std@@@std@@QBEABU?$pair@$$CBHH@1@XZ PROC ; std::_Tree_const_iterator<std::_Tree_val<std::_Tmap_traits<int,int,std::less<int>,std::allocator<std::pair<int const ,int> >,0> > >::operator*, COMDAT
; _this$ = ecx

; 231  :  #if _ITERATOR_DEBUG_LEVEL == 2
; 232  : 		if (this->_Getcont() == 0
; 233  : 			|| this->_Ptr == 0
; 234  : 			|| this->_Ptr == ((_Mytree *)this->_Getcont())->_Myhead)
; 235  : 			{	// report error
; 236  : 			_DEBUG_ERROR("map/set iterator not dereferencable");
; 237  : 			_SCL_SECURE_OUT_OF_RANGE;
; 238  : 			}
; 239  : 
; 240  :  #elif _ITERATOR_DEBUG_LEVEL == 1
; 241  : 		_SCL_SECURE_VALIDATE(this->_Getcont() != 0 && this->_Ptr != 0);
; 242  : 		_SCL_SECURE_VALIDATE_RANGE(this->_Ptr !=
; 243  : 			((_Mytree *)this->_Getcont())->_Myhead);
; 244  :  #endif /* _ITERATOR_DEBUG_LEVEL */
; 245  : 
; 246  : 		return (_Mytree::_Myval(this->_Ptr));

  00000	8b 01		 mov	 eax, DWORD PTR [ecx]
  00002	83 c0 0c	 add	 eax, 12			; 0000000cH

; 247  : 		}

  00005	c3		 ret	 0
??D?$_Tree_const_iterator@V?$_Tree_val@V?$_Tmap_traits@HHU?$less@H@std@@V?$allocator@U?$pair@$$CBHH@std@@@2@$0A@@std@@@std@@@std@@QBEABU?$pair@$$CBHH@1@XZ ENDP ; std::_Tree_const_iterator<std::_Tree_val<std::_Tmap_traits<int,int,std::less<int>,std::allocator<std::pair<int const ,int> >,0> > >::operator*
_TEXT	ENDS
PUBLIC	??0?$_Tree_nod@V?$_Tmap_traits@HHU?$less@H@std@@V?$allocator@U?$pair@$$CBHH@std@@@2@$0A@@std@@@std@@QAE@ABU?$less@H@1@V?$allocator@U?$pair@$$CBHH@std@@@1@@Z ; std::_Tree_nod<std::_Tmap_traits<int,int,std::less<int>,std::allocator<std::pair<int const ,int> >,0> >::_Tree_nod<std::_Tmap_traits<int,int,std::less<int>,std::allocator<std::pair<int const ,int> >,0> >
; Function compile flags: /Ogsp
;	COMDAT ??0?$_Tree_nod@V?$_Tmap_traits@HHU?$less@H@std@@V?$allocator@U?$pair@$$CBHH@std@@@2@$0A@@std@@@std@@QAE@ABU?$less@H@1@V?$allocator@U?$pair@$$CBHH@std@@@1@@Z
_TEXT	SEGMENT
__Parg$ = 8						; size = 4
__Al$ = 12						; size = 1
??0?$_Tree_nod@V?$_Tmap_traits@HHU?$less@H@std@@V?$allocator@U?$pair@$$CBHH@std@@@2@$0A@@std@@@std@@QAE@ABU?$less@H@1@V?$allocator@U?$pair@$$CBHH@std@@@1@@Z PROC ; std::_Tree_nod<std::_Tmap_traits<int,int,std::less<int>,std::allocator<std::pair<int const ,int> >,0> >::_Tree_nod<std::_Tmap_traits<int,int,std::less<int>,std::allocator<std::pair<int const ,int> >,0> >, COMDAT
; _this$ = ecx

; 482  : 		{	// construct traits from _Parg and allocators from _Al

  00000	8b c1		 mov	 eax, ecx

; 483  : 		}

  00002	c2 08 00	 ret	 8
??0?$_Tree_nod@V?$_Tmap_traits@HHU?$less@H@std@@V?$allocator@U?$pair@$$CBHH@std@@@2@$0A@@std@@@std@@QAE@ABU?$less@H@1@V?$allocator@U?$pair@$$CBHH@std@@@1@@Z ENDP ; std::_Tree_nod<std::_Tmap_traits<int,int,std::less<int>,std::allocator<std::pair<int const ,int> >,0> >::_Tree_nod<std::_Tmap_traits<int,int,std::less<int>,std::allocator<std::pair<int const ,int> >,0> >
_TEXT	ENDS
PUBLIC	?allocate@?$allocator@U_Node@?$_Tree_nod@V?$_Tmap_traits@HHU?$less@H@std@@V?$allocator@U?$pair@$$CBHH@std@@@2@$0A@@std@@@std@@@std@@QAEPAU_Node@?$_Tree_nod@V?$_Tmap_traits@HHU?$less@H@std@@V?$allocator@U?$pair@$$CBHH@std@@@2@$0A@@std@@@2@I@Z ; std::allocator<std::_Tree_nod<std::_Tmap_traits<int,int,std::less<int>,std::allocator<std::pair<int const ,int> >,0> >::_Node>::allocate
; Function compile flags: /Ogsp
; File c:\program files (x86)\microsoft visual studio 10.0\vc\include\xmemory
;	COMDAT ?allocate@?$allocator@U_Node@?$_Tree_nod@V?$_Tmap_traits@HHU?$less@H@std@@V?$allocator@U?$pair@$$CBHH@std@@@2@$0A@@std@@@std@@@std@@QAEPAU_Node@?$_Tree_nod@V?$_Tmap_traits@HHU?$less@H@std@@V?$allocator@U?$pair@$$CBHH@std@@@2@$0A@@std@@@2@I@Z
_TEXT	SEGMENT
__Count$ = 8						; size = 4
?allocate@?$allocator@U_Node@?$_Tree_nod@V?$_Tmap_traits@HHU?$less@H@std@@V?$allocator@U?$pair@$$CBHH@std@@@2@$0A@@std@@@std@@@std@@QAEPAU_Node@?$_Tree_nod@V?$_Tmap_traits@HHU?$less@H@std@@V?$allocator@U?$pair@$$CBHH@std@@@2@$0A@@std@@@2@I@Z PROC ; std::allocator<std::_Tree_nod<std::_Tmap_traits<int,int,std::less<int>,std::allocator<std::pair<int const ,int> >,0> >::_Node>::allocate, COMDAT
; _this$ = ecx

; 186  : 		{	// allocate array of _Count elements

  00000	55		 push	 ebp
  00001	8b ec		 mov	 ebp, esp

; 187  : 		return (_Allocate(_Count, (pointer)0));

  00003	6a 00		 push	 0
  00005	ff 75 08	 push	 DWORD PTR __Count$[ebp]
  00008	e8 00 00 00 00	 call	 ??$_Allocate@U_Node@?$_Tree_nod@V?$_Tmap_traits@HHU?$less@H@std@@V?$allocator@U?$pair@$$CBHH@std@@@2@$0A@@std@@@std@@@std@@YAPAU_Node@?$_Tree_nod@V?$_Tmap_traits@HHU?$less@H@std@@V?$allocator@U?$pair@$$CBHH@std@@@2@$0A@@std@@@0@IPAU120@@Z ; std::_Allocate<std::_Tree_nod<std::_Tmap_traits<int,int,std::less<int>,std::allocator<std::pair<int const ,int> >,0> >::_Node>
  0000d	59		 pop	 ecx
  0000e	59		 pop	 ecx

; 188  : 		}

  0000f	5d		 pop	 ebp
  00010	c2 04 00	 ret	 4
?allocate@?$allocator@U_Node@?$_Tree_nod@V?$_Tmap_traits@HHU?$less@H@std@@V?$allocator@U?$pair@$$CBHH@std@@@2@$0A@@std@@@std@@@std@@QAEPAU_Node@?$_Tree_nod@V?$_Tmap_traits@HHU?$less@H@std@@V?$allocator@U?$pair@$$CBHH@std@@@2@$0A@@std@@@2@I@Z ENDP ; std::allocator<std::_Tree_nod<std::_Tmap_traits<int,int,std::less<int>,std::allocator<std::pair<int const ,int> >,0> >::_Node>::allocate
_TEXT	ENDS
PUBLIC	__$ArrayPad$
PUBLIC	??$SetTitle_e@$06@ioINILoader@@QAEXAAY06$$CBD@Z	; ioINILoader::SetTitle_e<7>
EXTRN	__imp_?SetTitle@ioINILoader@@QAEXPBD@Z:PROC
EXTRN	___security_cookie:DWORD
; Function compile flags: /Ogsp
; File d:\lost saga for developer\youtube\tutorial\source\src\io3dengine\ioiniloader.h
;	COMDAT ??$SetTitle_e@$06@ioINILoader@@QAEXAAY06$$CBD@Z
_TEXT	SEGMENT
__t$ = -16						; size = 7
__$ArrayPad$ = -4					; size = 4
_t$ = 8							; size = 4
??$SetTitle_e@$06@ioINILoader@@QAEXAAY06$$CBD@Z PROC	; ioINILoader::SetTitle_e<7>, COMDAT
; _this$ = ecx

; 188  : 	{

  00000	55		 push	 ebp
  00001	8b ec		 mov	 ebp, esp
  00003	83 ec 10	 sub	 esp, 16			; 00000010H
  00006	a1 00 00 00 00	 mov	 eax, DWORD PTR ___security_cookie
  0000b	33 c5		 xor	 eax, ebp
  0000d	89 45 fc	 mov	 DWORD PTR __$ArrayPad$[ebp], eax
  00010	8b 45 08	 mov	 eax, DWORD PTR _t$[ebp]

; 189  : 		_ENCSTR(t, _t);

  00013	8a 10		 mov	 dl, BYTE PTR [eax]
  00015	56		 push	 esi
  00016	8b f1		 mov	 esi, ecx
  00018	84 d2		 test	 dl, dl
  0001a	0f 84 c0 00 00
	00		 je	 $LN96@SetTitle_e
  00020	80 f2 ed	 xor	 dl, -19			; ffffffedH
  00023	88 55 f0	 mov	 BYTE PTR __t$[ebp], dl
  00026	8a 50 01	 mov	 dl, BYTE PTR [eax+1]
  00029	84 d2		 test	 dl, dl
  0002b	0f 84 a9 00 00
	00		 je	 $LN95@SetTitle_e
  00031	80 f2 ec	 xor	 dl, -20			; ffffffecH
  00034	88 55 f1	 mov	 BYTE PTR __t$[ebp+1], dl
  00037	8a 50 02	 mov	 dl, BYTE PTR [eax+2]
  0003a	84 d2		 test	 dl, dl
  0003c	0f 84 92 00 00
	00		 je	 $LN94@SetTitle_e
  00042	80 f2 eb	 xor	 dl, -21			; ffffffebH
  00045	88 55 f2	 mov	 BYTE PTR __t$[ebp+2], dl
  00048	8a 50 03	 mov	 dl, BYTE PTR [eax+3]
  0004b	84 d2		 test	 dl, dl
  0004d	74 7f		 je	 SHORT $LN93@SetTitle_e
  0004f	80 f2 ea	 xor	 dl, -22			; ffffffeaH
  00052	88 55 f3	 mov	 BYTE PTR __t$[ebp+3], dl
  00055	8a 50 04	 mov	 dl, BYTE PTR [eax+4]
  00058	84 d2		 test	 dl, dl
  0005a	74 6c		 je	 SHORT $LN92@SetTitle_e
  0005c	80 f2 ed	 xor	 dl, -19			; ffffffedH
  0005f	88 55 f4	 mov	 BYTE PTR __t$[ebp+4], dl
  00062	8a 50 05	 mov	 dl, BYTE PTR [eax+5]
  00065	84 d2		 test	 dl, dl
  00067	74 59		 je	 SHORT $LN91@SetTitle_e
  00069	80 f2 ec	 xor	 dl, -20			; ffffffecH
  0006c	80 78 06 00	 cmp	 BYTE PTR [eax+6], 0
  00070	88 55 f5	 mov	 BYTE PTR __t$[ebp+5], dl
  00073	74 6f		 je	 SHORT $LN1@SetTitle_e
  00075	8a 50 07	 mov	 dl, BYTE PTR [eax+7]
  00078	84 d2		 test	 dl, dl
  0007a	74 40		 je	 SHORT $LN89@SetTitle_e
  0007c	80 f2 ea	 xor	 dl, -22			; ffffffeaH
  0007f	88 55 f7	 mov	 BYTE PTR __t$[ebp+7], dl
  00082	8a 50 08	 mov	 dl, BYTE PTR [eax+8]
  00085	84 d2		 test	 dl, dl
  00087	74 2d		 je	 SHORT $LN88@SetTitle_e
  00089	80 f2 ed	 xor	 dl, -19			; ffffffedH
  0008c	88 55 f8	 mov	 BYTE PTR __t$[ebp+8], dl
  0008f	8a 50 09	 mov	 dl, BYTE PTR [eax+9]
  00092	84 d2		 test	 dl, dl
  00094	74 1a		 je	 SHORT $LN87@SetTitle_e
  00096	8a 40 0a	 mov	 al, BYTE PTR [eax+10]
  00099	80 f2 ec	 xor	 dl, -20			; ffffffecH
  0009c	88 55 f9	 mov	 BYTE PTR __t$[ebp+9], dl
  0009f	84 c0		 test	 al, al
  000a1	74 07		 je	 SHORT $LN86@SetTitle_e
  000a3	34 eb		 xor	 al, -21			; ffffffebH
  000a5	88 45 fa	 mov	 BYTE PTR __t$[ebp+10], al
  000a8	eb 3a		 jmp	 SHORT $LN1@SetTitle_e
$LN86@SetTitle_e:
  000aa	c6 45 fa eb	 mov	 BYTE PTR __t$[ebp+10], -21 ; ffffffebH
  000ae	eb 34		 jmp	 SHORT $LN1@SetTitle_e
$LN87@SetTitle_e:
  000b0	c6 45 f9 ec	 mov	 BYTE PTR __t$[ebp+9], -20 ; ffffffecH
  000b4	eb 2e		 jmp	 SHORT $LN1@SetTitle_e
$LN88@SetTitle_e:
  000b6	c6 45 f8 ed	 mov	 BYTE PTR __t$[ebp+8], -19 ; ffffffedH
  000ba	eb 28		 jmp	 SHORT $LN1@SetTitle_e
$LN89@SetTitle_e:
  000bc	c6 45 f7 ea	 mov	 BYTE PTR __t$[ebp+7], -22 ; ffffffeaH
  000c0	eb 22		 jmp	 SHORT $LN1@SetTitle_e
$LN91@SetTitle_e:
  000c2	c6 45 f5 ec	 mov	 BYTE PTR __t$[ebp+5], -20 ; ffffffecH
  000c6	eb 1c		 jmp	 SHORT $LN1@SetTitle_e
$LN92@SetTitle_e:
  000c8	c6 45 f4 ed	 mov	 BYTE PTR __t$[ebp+4], -19 ; ffffffedH
  000cc	eb 16		 jmp	 SHORT $LN1@SetTitle_e
$LN93@SetTitle_e:
  000ce	c6 45 f3 ea	 mov	 BYTE PTR __t$[ebp+3], -22 ; ffffffeaH
  000d2	eb 10		 jmp	 SHORT $LN1@SetTitle_e
$LN94@SetTitle_e:
  000d4	c6 45 f2 eb	 mov	 BYTE PTR __t$[ebp+2], -21 ; ffffffebH
  000d8	eb 0a		 jmp	 SHORT $LN1@SetTitle_e
$LN95@SetTitle_e:
  000da	c6 45 f1 ec	 mov	 BYTE PTR __t$[ebp+1], -20 ; ffffffecH
  000de	eb 04		 jmp	 SHORT $LN1@SetTitle_e
$LN96@SetTitle_e:
  000e0	c6 45 f0 ed	 mov	 BYTE PTR __t$[ebp], -19	; ffffffedH
$LN1@SetTitle_e:
  000e4	81 75 f0 ed ec
	eb ea		 xor	 DWORD PTR __t$[ebp], -353637139 ; eaebecedH
  000eb	6a 04		 push	 4
  000ed	c6 45 f6 00	 mov	 BYTE PTR __t$[ebp+6], 0
  000f1	58		 pop	 eax
$LL101@SetTitle_e:
  000f2	8b c8		 mov	 ecx, eax
  000f4	81 e1 03 00 00
	80		 and	 ecx, -2147483645	; 80000003H
  000fa	79 05		 jns	 SHORT $LN111@SetTitle_e
  000fc	49		 dec	 ecx
  000fd	83 c9 fc	 or	 ecx, -4			; fffffffcH
  00100	41		 inc	 ecx
$LN111@SetTitle_e:
  00101	b2 ed		 mov	 dl, -19			; ffffffedH
  00103	2a d1		 sub	 dl, cl
  00105	30 54 05 f0	 xor	 BYTE PTR __t$[ebp+eax], dl
  00109	40		 inc	 eax
  0010a	83 f8 06	 cmp	 eax, 6
  0010d	7c e3		 jl	 SHORT $LL101@SetTitle_e

; 190  : 		SetTitle(_t);

  0010f	8d 45 f0	 lea	 eax, DWORD PTR __t$[ebp]
  00112	50		 push	 eax
  00113	8b ce		 mov	 ecx, esi
  00115	ff 15 00 00 00
	00		 call	 DWORD PTR __imp_?SetTitle@ioINILoader@@QAEXPBD@Z

; 191  : 	}

  0011b	8b 4d fc	 mov	 ecx, DWORD PTR __$ArrayPad$[ebp]
  0011e	33 cd		 xor	 ecx, ebp
  00120	5e		 pop	 esi
  00121	e8 00 00 00 00	 call	 @__security_check_cookie@4
  00126	c9		 leave
  00127	c2 04 00	 ret	 4
??$SetTitle_e@$06@ioINILoader@@QAEXAAY06$$CBD@Z ENDP	; ioINILoader::SetTitle_e<7>
_TEXT	ENDS
PUBLIC	__$ArrayPad$
PUBLIC	??$SetTitle_e@$05@ioINILoader@@QAEXAAY05$$CBD@Z	; ioINILoader::SetTitle_e<6>
; Function compile flags: /Ogsp
;	COMDAT ??$SetTitle_e@$05@ioINILoader@@QAEXAAY05$$CBD@Z
_TEXT	SEGMENT
__t$ = -16						; size = 6
__$ArrayPad$ = -4					; size = 4
_t$ = 8							; size = 4
??$SetTitle_e@$05@ioINILoader@@QAEXAAY05$$CBD@Z PROC	; ioINILoader::SetTitle_e<6>, COMDAT
; _this$ = ecx

; 188  : 	{

  00000	55		 push	 ebp
  00001	8b ec		 mov	 ebp, esp
  00003	83 ec 10	 sub	 esp, 16			; 00000010H
  00006	a1 00 00 00 00	 mov	 eax, DWORD PTR ___security_cookie
  0000b	33 c5		 xor	 eax, ebp
  0000d	89 45 fc	 mov	 DWORD PTR __$ArrayPad$[ebp], eax
  00010	8b 45 08	 mov	 eax, DWORD PTR _t$[ebp]

; 189  : 		_ENCSTR(t, _t);

  00013	8a 10		 mov	 dl, BYTE PTR [eax]
  00015	84 d2		 test	 dl, dl
  00017	0f 84 a9 00 00
	00		 je	 $LN96@SetTitle_e@2
  0001d	80 f2 ed	 xor	 dl, -19			; ffffffedH
  00020	88 55 f0	 mov	 BYTE PTR __t$[ebp], dl
  00023	8a 50 01	 mov	 dl, BYTE PTR [eax+1]
  00026	84 d2		 test	 dl, dl
  00028	0f 84 92 00 00
	00		 je	 $LN95@SetTitle_e@2
  0002e	80 f2 ec	 xor	 dl, -20			; ffffffecH
  00031	88 55 f1	 mov	 BYTE PTR __t$[ebp+1], dl
  00034	8a 50 02	 mov	 dl, BYTE PTR [eax+2]
  00037	84 d2		 test	 dl, dl
  00039	74 7f		 je	 SHORT $LN94@SetTitle_e@2
  0003b	80 f2 eb	 xor	 dl, -21			; ffffffebH
  0003e	88 55 f2	 mov	 BYTE PTR __t$[ebp+2], dl
  00041	8a 50 03	 mov	 dl, BYTE PTR [eax+3]
  00044	84 d2		 test	 dl, dl
  00046	74 6c		 je	 SHORT $LN93@SetTitle_e@2
  00048	80 f2 ea	 xor	 dl, -22			; ffffffeaH
  0004b	88 55 f3	 mov	 BYTE PTR __t$[ebp+3], dl
  0004e	8a 50 04	 mov	 dl, BYTE PTR [eax+4]
  00051	84 d2		 test	 dl, dl
  00053	74 59		 je	 SHORT $LN92@SetTitle_e@2
  00055	80 f2 ed	 xor	 dl, -19			; ffffffedH
  00058	80 78 05 00	 cmp	 BYTE PTR [eax+5], 0
  0005c	88 55 f4	 mov	 BYTE PTR __t$[ebp+4], dl
  0005f	74 69		 je	 SHORT $LN1@SetTitle_e@2
  00061	8a 50 06	 mov	 dl, BYTE PTR [eax+6]
  00064	84 d2		 test	 dl, dl
  00066	74 40		 je	 SHORT $LN90@SetTitle_e@2
  00068	80 f2 eb	 xor	 dl, -21			; ffffffebH
  0006b	88 55 f6	 mov	 BYTE PTR __t$[ebp+6], dl
  0006e	8a 50 07	 mov	 dl, BYTE PTR [eax+7]
  00071	84 d2		 test	 dl, dl
  00073	74 2d		 je	 SHORT $LN89@SetTitle_e@2
  00075	80 f2 ea	 xor	 dl, -22			; ffffffeaH
  00078	88 55 f7	 mov	 BYTE PTR __t$[ebp+7], dl
  0007b	8a 50 08	 mov	 dl, BYTE PTR [eax+8]
  0007e	84 d2		 test	 dl, dl
  00080	74 1a		 je	 SHORT $LN88@SetTitle_e@2
  00082	8a 40 09	 mov	 al, BYTE PTR [eax+9]
  00085	80 f2 ed	 xor	 dl, -19			; ffffffedH
  00088	88 55 f8	 mov	 BYTE PTR __t$[ebp+8], dl
  0008b	84 c0		 test	 al, al
  0008d	74 07		 je	 SHORT $LN87@SetTitle_e@2
  0008f	34 ec		 xor	 al, -20			; ffffffecH
  00091	88 45 f9	 mov	 BYTE PTR __t$[ebp+9], al
  00094	eb 34		 jmp	 SHORT $LN1@SetTitle_e@2
$LN87@SetTitle_e@2:
  00096	c6 45 f9 ec	 mov	 BYTE PTR __t$[ebp+9], -20 ; ffffffecH
  0009a	eb 2e		 jmp	 SHORT $LN1@SetTitle_e@2
$LN88@SetTitle_e@2:
  0009c	c6 45 f8 ed	 mov	 BYTE PTR __t$[ebp+8], -19 ; ffffffedH
  000a0	eb 28		 jmp	 SHORT $LN1@SetTitle_e@2
$LN89@SetTitle_e@2:
  000a2	c6 45 f7 ea	 mov	 BYTE PTR __t$[ebp+7], -22 ; ffffffeaH
  000a6	eb 22		 jmp	 SHORT $LN1@SetTitle_e@2
$LN90@SetTitle_e@2:
  000a8	c6 45 f6 eb	 mov	 BYTE PTR __t$[ebp+6], -21 ; ffffffebH
  000ac	eb 1c		 jmp	 SHORT $LN1@SetTitle_e@2
$LN92@SetTitle_e@2:
  000ae	c6 45 f4 ed	 mov	 BYTE PTR __t$[ebp+4], -19 ; ffffffedH
  000b2	eb 16		 jmp	 SHORT $LN1@SetTitle_e@2
$LN93@SetTitle_e@2:
  000b4	c6 45 f3 ea	 mov	 BYTE PTR __t$[ebp+3], -22 ; ffffffeaH
  000b8	eb 10		 jmp	 SHORT $LN1@SetTitle_e@2
$LN94@SetTitle_e@2:
  000ba	c6 45 f2 eb	 mov	 BYTE PTR __t$[ebp+2], -21 ; ffffffebH
  000be	eb 0a		 jmp	 SHORT $LN1@SetTitle_e@2
$LN95@SetTitle_e@2:
  000c0	c6 45 f1 ec	 mov	 BYTE PTR __t$[ebp+1], -20 ; ffffffecH
  000c4	eb 04		 jmp	 SHORT $LN1@SetTitle_e@2
$LN96@SetTitle_e@2:
  000c6	c6 45 f0 ed	 mov	 BYTE PTR __t$[ebp], -19	; ffffffedH
$LN1@SetTitle_e@2:
  000ca	81 75 f0 ed ec
	eb ea		 xor	 DWORD PTR __t$[ebp], -353637139 ; eaebecedH
  000d1	80 75 f4 ed	 xor	 BYTE PTR __t$[ebp+4], -19 ; ffffffedH

; 190  : 		SetTitle(_t);

  000d5	8d 45 f0	 lea	 eax, DWORD PTR __t$[ebp]
  000d8	50		 push	 eax
  000d9	c6 45 f5 00	 mov	 BYTE PTR __t$[ebp+5], 0
  000dd	ff 15 00 00 00
	00		 call	 DWORD PTR __imp_?SetTitle@ioINILoader@@QAEXPBD@Z

; 191  : 	}

  000e3	8b 4d fc	 mov	 ecx, DWORD PTR __$ArrayPad$[ebp]
  000e6	33 cd		 xor	 ecx, ebp
  000e8	e8 00 00 00 00	 call	 @__security_check_cookie@4
  000ed	c9		 leave
  000ee	c2 04 00	 ret	 4
??$SetTitle_e@$05@ioINILoader@@QAEXAAY05$$CBD@Z ENDP	; ioINILoader::SetTitle_e<6>
_TEXT	ENDS
PUBLIC	__$ArrayPad$
PUBLIC	??$SetTitle_e@$04@ioINILoader@@QAEXAAY04$$CBD@Z	; ioINILoader::SetTitle_e<5>
; Function compile flags: /Ogsp
;	COMDAT ??$SetTitle_e@$04@ioINILoader@@QAEXAAY04$$CBD@Z
_TEXT	SEGMENT
__t$ = -16						; size = 5
__$ArrayPad$ = -4					; size = 4
_t$ = 8							; size = 4
??$SetTitle_e@$04@ioINILoader@@QAEXAAY04$$CBD@Z PROC	; ioINILoader::SetTitle_e<5>, COMDAT
; _this$ = ecx

; 188  : 	{

  00000	55		 push	 ebp
  00001	8b ec		 mov	 ebp, esp
  00003	83 ec 10	 sub	 esp, 16			; 00000010H
  00006	a1 00 00 00 00	 mov	 eax, DWORD PTR ___security_cookie
  0000b	33 c5		 xor	 eax, ebp
  0000d	89 45 fc	 mov	 DWORD PTR __$ArrayPad$[ebp], eax
  00010	8b 45 08	 mov	 eax, DWORD PTR _t$[ebp]

; 189  : 		_ENCSTR(t, _t);

  00013	8a 10		 mov	 dl, BYTE PTR [eax]
  00015	84 d2		 test	 dl, dl
  00017	0f 84 92 00 00
	00		 je	 $LN96@SetTitle_e@3
  0001d	80 f2 ed	 xor	 dl, -19			; ffffffedH
  00020	88 55 f0	 mov	 BYTE PTR __t$[ebp], dl
  00023	8a 50 01	 mov	 dl, BYTE PTR [eax+1]
  00026	84 d2		 test	 dl, dl
  00028	74 7f		 je	 SHORT $LN95@SetTitle_e@3
  0002a	80 f2 ec	 xor	 dl, -20			; ffffffecH
  0002d	88 55 f1	 mov	 BYTE PTR __t$[ebp+1], dl
  00030	8a 50 02	 mov	 dl, BYTE PTR [eax+2]
  00033	84 d2		 test	 dl, dl
  00035	74 6c		 je	 SHORT $LN94@SetTitle_e@3
  00037	80 f2 eb	 xor	 dl, -21			; ffffffebH
  0003a	88 55 f2	 mov	 BYTE PTR __t$[ebp+2], dl
  0003d	8a 50 03	 mov	 dl, BYTE PTR [eax+3]
  00040	84 d2		 test	 dl, dl
  00042	74 59		 je	 SHORT $LN93@SetTitle_e@3
  00044	80 f2 ea	 xor	 dl, -22			; ffffffeaH
  00047	80 78 04 00	 cmp	 BYTE PTR [eax+4], 0
  0004b	88 55 f3	 mov	 BYTE PTR __t$[ebp+3], dl
  0004e	74 63		 je	 SHORT $LN1@SetTitle_e@3
  00050	8a 50 05	 mov	 dl, BYTE PTR [eax+5]
  00053	84 d2		 test	 dl, dl
  00055	74 40		 je	 SHORT $LN91@SetTitle_e@3
  00057	80 f2 ec	 xor	 dl, -20			; ffffffecH
  0005a	88 55 f5	 mov	 BYTE PTR __t$[ebp+5], dl
  0005d	8a 50 06	 mov	 dl, BYTE PTR [eax+6]
  00060	84 d2		 test	 dl, dl
  00062	74 2d		 je	 SHORT $LN90@SetTitle_e@3
  00064	80 f2 eb	 xor	 dl, -21			; ffffffebH
  00067	88 55 f6	 mov	 BYTE PTR __t$[ebp+6], dl
  0006a	8a 50 07	 mov	 dl, BYTE PTR [eax+7]
  0006d	84 d2		 test	 dl, dl
  0006f	74 1a		 je	 SHORT $LN89@SetTitle_e@3
  00071	8a 40 08	 mov	 al, BYTE PTR [eax+8]
  00074	80 f2 ea	 xor	 dl, -22			; ffffffeaH
  00077	88 55 f7	 mov	 BYTE PTR __t$[ebp+7], dl
  0007a	84 c0		 test	 al, al
  0007c	74 07		 je	 SHORT $LN88@SetTitle_e@3
  0007e	34 ed		 xor	 al, -19			; ffffffedH
  00080	88 45 f8	 mov	 BYTE PTR __t$[ebp+8], al
  00083	eb 2e		 jmp	 SHORT $LN1@SetTitle_e@3
$LN88@SetTitle_e@3:
  00085	c6 45 f8 ed	 mov	 BYTE PTR __t$[ebp+8], -19 ; ffffffedH
  00089	eb 28		 jmp	 SHORT $LN1@SetTitle_e@3
$LN89@SetTitle_e@3:
  0008b	c6 45 f7 ea	 mov	 BYTE PTR __t$[ebp+7], -22 ; ffffffeaH
  0008f	eb 22		 jmp	 SHORT $LN1@SetTitle_e@3
$LN90@SetTitle_e@3:
  00091	c6 45 f6 eb	 mov	 BYTE PTR __t$[ebp+6], -21 ; ffffffebH
  00095	eb 1c		 jmp	 SHORT $LN1@SetTitle_e@3
$LN91@SetTitle_e@3:
  00097	c6 45 f5 ec	 mov	 BYTE PTR __t$[ebp+5], -20 ; ffffffecH
  0009b	eb 16		 jmp	 SHORT $LN1@SetTitle_e@3
$LN93@SetTitle_e@3:
  0009d	c6 45 f3 ea	 mov	 BYTE PTR __t$[ebp+3], -22 ; ffffffeaH
  000a1	eb 10		 jmp	 SHORT $LN1@SetTitle_e@3
$LN94@SetTitle_e@3:
  000a3	c6 45 f2 eb	 mov	 BYTE PTR __t$[ebp+2], -21 ; ffffffebH
  000a7	eb 0a		 jmp	 SHORT $LN1@SetTitle_e@3
$LN95@SetTitle_e@3:
  000a9	c6 45 f1 ec	 mov	 BYTE PTR __t$[ebp+1], -20 ; ffffffecH
  000ad	eb 04		 jmp	 SHORT $LN1@SetTitle_e@3
$LN96@SetTitle_e@3:
  000af	c6 45 f0 ed	 mov	 BYTE PTR __t$[ebp], -19	; ffffffedH
$LN1@SetTitle_e@3:
  000b3	81 75 f0 ed ec
	eb ea		 xor	 DWORD PTR __t$[ebp], -353637139 ; eaebecedH

; 190  : 		SetTitle(_t);

  000ba	8d 45 f0	 lea	 eax, DWORD PTR __t$[ebp]
  000bd	50		 push	 eax
  000be	c6 45 f4 00	 mov	 BYTE PTR __t$[ebp+4], 0
  000c2	ff 15 00 00 00
	00		 call	 DWORD PTR __imp_?SetTitle@ioINILoader@@QAEXPBD@Z

; 191  : 	}

  000c8	8b 4d fc	 mov	 ecx, DWORD PTR __$ArrayPad$[ebp]
  000cb	33 cd		 xor	 ecx, ebp
  000cd	e8 00 00 00 00	 call	 @__security_check_cookie@4
  000d2	c9		 leave
  000d3	c2 04 00	 ret	 4
??$SetTitle_e@$04@ioINILoader@@QAEXAAY04$$CBD@Z ENDP	; ioINILoader::SetTitle_e<5>
_TEXT	ENDS
PUBLIC	__$ArrayPad$
PUBLIC	??$SetTitle_e@$09@ioINILoader@@QAEXAAY09$$CBD@Z	; ioINILoader::SetTitle_e<10>
; Function compile flags: /Ogsp
;	COMDAT ??$SetTitle_e@$09@ioINILoader@@QAEXAAY09$$CBD@Z
_TEXT	SEGMENT
__t$ = -20						; size = 10
__$ArrayPad$ = -4					; size = 4
_t$ = 8							; size = 4
??$SetTitle_e@$09@ioINILoader@@QAEXAAY09$$CBD@Z PROC	; ioINILoader::SetTitle_e<10>, COMDAT
; _this$ = ecx

; 188  : 	{

  00000	55		 push	 ebp
  00001	8b ec		 mov	 ebp, esp
  00003	83 ec 14	 sub	 esp, 20			; 00000014H
  00006	a1 00 00 00 00	 mov	 eax, DWORD PTR ___security_cookie
  0000b	33 c5		 xor	 eax, ebp
  0000d	89 45 fc	 mov	 DWORD PTR __$ArrayPad$[ebp], eax
  00010	8b 45 08	 mov	 eax, DWORD PTR _t$[ebp]

; 189  : 		_ENCSTR(t, _t);

  00013	8a 10		 mov	 dl, BYTE PTR [eax]
  00015	84 d2		 test	 dl, dl
  00017	0f 84 0d 01 00
	00		 je	 $LN96@SetTitle_e@4
  0001d	80 f2 ed	 xor	 dl, -19			; ffffffedH
  00020	88 55 ec	 mov	 BYTE PTR __t$[ebp], dl
  00023	8a 50 01	 mov	 dl, BYTE PTR [eax+1]
  00026	84 d2		 test	 dl, dl
  00028	0f 84 f6 00 00
	00		 je	 $LN95@SetTitle_e@4
  0002e	80 f2 ec	 xor	 dl, -20			; ffffffecH
  00031	88 55 ed	 mov	 BYTE PTR __t$[ebp+1], dl
  00034	8a 50 02	 mov	 dl, BYTE PTR [eax+2]
  00037	84 d2		 test	 dl, dl
  00039	0f 84 df 00 00
	00		 je	 $LN94@SetTitle_e@4
  0003f	80 f2 eb	 xor	 dl, -21			; ffffffebH
  00042	88 55 ee	 mov	 BYTE PTR __t$[ebp+2], dl
  00045	8a 50 03	 mov	 dl, BYTE PTR [eax+3]
  00048	84 d2		 test	 dl, dl
  0004a	0f 84 c8 00 00
	00		 je	 $LN93@SetTitle_e@4
  00050	80 f2 ea	 xor	 dl, -22			; ffffffeaH
  00053	88 55 ef	 mov	 BYTE PTR __t$[ebp+3], dl
  00056	8a 50 04	 mov	 dl, BYTE PTR [eax+4]
  00059	84 d2		 test	 dl, dl
  0005b	0f 84 b1 00 00
	00		 je	 $LN92@SetTitle_e@4
  00061	80 f2 ed	 xor	 dl, -19			; ffffffedH
  00064	88 55 f0	 mov	 BYTE PTR __t$[ebp+4], dl
  00067	8a 50 05	 mov	 dl, BYTE PTR [eax+5]
  0006a	84 d2		 test	 dl, dl
  0006c	0f 84 9a 00 00
	00		 je	 $LN91@SetTitle_e@4
  00072	80 f2 ec	 xor	 dl, -20			; ffffffecH
  00075	88 55 f1	 mov	 BYTE PTR __t$[ebp+5], dl
  00078	8a 50 06	 mov	 dl, BYTE PTR [eax+6]
  0007b	84 d2		 test	 dl, dl
  0007d	0f 84 83 00 00
	00		 je	 $LN90@SetTitle_e@4
  00083	80 f2 eb	 xor	 dl, -21			; ffffffebH
  00086	88 55 f2	 mov	 BYTE PTR __t$[ebp+6], dl
  00089	8a 50 07	 mov	 dl, BYTE PTR [eax+7]
  0008c	84 d2		 test	 dl, dl
  0008e	74 70		 je	 SHORT $LN89@SetTitle_e@4
  00090	80 f2 ea	 xor	 dl, -22			; ffffffeaH
  00093	88 55 f3	 mov	 BYTE PTR __t$[ebp+7], dl
  00096	8a 50 08	 mov	 dl, BYTE PTR [eax+8]
  00099	84 d2		 test	 dl, dl
  0009b	74 5d		 je	 SHORT $LN88@SetTitle_e@4
  0009d	80 f2 ed	 xor	 dl, -19			; ffffffedH
  000a0	80 78 09 00	 cmp	 BYTE PTR [eax+9], 0
  000a4	88 55 f4	 mov	 BYTE PTR __t$[ebp+8], dl
  000a7	0f 84 81 00 00
	00		 je	 $LN1@SetTitle_e@4
  000ad	8a 50 0a	 mov	 dl, BYTE PTR [eax+10]
  000b0	84 d2		 test	 dl, dl
  000b2	74 40		 je	 SHORT $LN86@SetTitle_e@4
  000b4	80 f2 eb	 xor	 dl, -21			; ffffffebH
  000b7	88 55 f6	 mov	 BYTE PTR __t$[ebp+10], dl
  000ba	8a 50 0b	 mov	 dl, BYTE PTR [eax+11]
  000bd	84 d2		 test	 dl, dl
  000bf	74 2d		 je	 SHORT $LN85@SetTitle_e@4
  000c1	80 f2 ea	 xor	 dl, -22			; ffffffeaH
  000c4	88 55 f7	 mov	 BYTE PTR __t$[ebp+11], dl
  000c7	8a 50 0c	 mov	 dl, BYTE PTR [eax+12]
  000ca	84 d2		 test	 dl, dl
  000cc	74 1a		 je	 SHORT $LN84@SetTitle_e@4
  000ce	8a 40 0d	 mov	 al, BYTE PTR [eax+13]
  000d1	80 f2 ed	 xor	 dl, -19			; ffffffedH
  000d4	88 55 f8	 mov	 BYTE PTR __t$[ebp+12], dl
  000d7	84 c0		 test	 al, al
  000d9	74 07		 je	 SHORT $LN83@SetTitle_e@4
  000db	34 ec		 xor	 al, -20			; ffffffecH
  000dd	88 45 f9	 mov	 BYTE PTR __t$[ebp+13], al
  000e0	eb 4c		 jmp	 SHORT $LN1@SetTitle_e@4
$LN83@SetTitle_e@4:
  000e2	c6 45 f9 ec	 mov	 BYTE PTR __t$[ebp+13], -20 ; ffffffecH
  000e6	eb 46		 jmp	 SHORT $LN1@SetTitle_e@4
$LN84@SetTitle_e@4:
  000e8	c6 45 f8 ed	 mov	 BYTE PTR __t$[ebp+12], -19 ; ffffffedH
  000ec	eb 40		 jmp	 SHORT $LN1@SetTitle_e@4
$LN85@SetTitle_e@4:
  000ee	c6 45 f7 ea	 mov	 BYTE PTR __t$[ebp+11], -22 ; ffffffeaH
  000f2	eb 3a		 jmp	 SHORT $LN1@SetTitle_e@4
$LN86@SetTitle_e@4:
  000f4	c6 45 f6 eb	 mov	 BYTE PTR __t$[ebp+10], -21 ; ffffffebH
  000f8	eb 34		 jmp	 SHORT $LN1@SetTitle_e@4
$LN88@SetTitle_e@4:
  000fa	c6 45 f4 ed	 mov	 BYTE PTR __t$[ebp+8], -19 ; ffffffedH
  000fe	eb 2e		 jmp	 SHORT $LN1@SetTitle_e@4
$LN89@SetTitle_e@4:
  00100	c6 45 f3 ea	 mov	 BYTE PTR __t$[ebp+7], -22 ; ffffffeaH
  00104	eb 28		 jmp	 SHORT $LN1@SetTitle_e@4
$LN90@SetTitle_e@4:
  00106	c6 45 f2 eb	 mov	 BYTE PTR __t$[ebp+6], -21 ; ffffffebH
  0010a	eb 22		 jmp	 SHORT $LN1@SetTitle_e@4
$LN91@SetTitle_e@4:
  0010c	c6 45 f1 ec	 mov	 BYTE PTR __t$[ebp+5], -20 ; ffffffecH
  00110	eb 1c		 jmp	 SHORT $LN1@SetTitle_e@4
$LN92@SetTitle_e@4:
  00112	c6 45 f0 ed	 mov	 BYTE PTR __t$[ebp+4], -19 ; ffffffedH
  00116	eb 16		 jmp	 SHORT $LN1@SetTitle_e@4
$LN93@SetTitle_e@4:
  00118	c6 45 ef ea	 mov	 BYTE PTR __t$[ebp+3], -22 ; ffffffeaH
  0011c	eb 10		 jmp	 SHORT $LN1@SetTitle_e@4
$LN94@SetTitle_e@4:
  0011e	c6 45 ee eb	 mov	 BYTE PTR __t$[ebp+2], -21 ; ffffffebH
  00122	eb 0a		 jmp	 SHORT $LN1@SetTitle_e@4
$LN95@SetTitle_e@4:
  00124	c6 45 ed ec	 mov	 BYTE PTR __t$[ebp+1], -20 ; ffffffecH
  00128	eb 04		 jmp	 SHORT $LN1@SetTitle_e@4
$LN96@SetTitle_e@4:
  0012a	c6 45 ec ed	 mov	 BYTE PTR __t$[ebp], -19	; ffffffedH
$LN1@SetTitle_e@4:
  0012e	6a 02		 push	 2
  00130	8d 45 ec	 lea	 eax, DWORD PTR __t$[ebp]
  00133	c6 45 f5 00	 mov	 BYTE PTR __t$[ebp+9], 0
  00137	5a		 pop	 edx
$LL104@SetTitle_e@4:
  00138	81 30 ed ec eb
	ea		 xor	 DWORD PTR [eax], -353637139 ; eaebecedH
  0013e	83 c0 04	 add	 eax, 4
  00141	4a		 dec	 edx
  00142	75 f4		 jne	 SHORT $LL104@SetTitle_e@4
  00144	80 75 f4 ed	 xor	 BYTE PTR __t$[ebp+8], -19 ; ffffffedH

; 190  : 		SetTitle(_t);

  00148	8d 45 ec	 lea	 eax, DWORD PTR __t$[ebp]
  0014b	50		 push	 eax
  0014c	ff 15 00 00 00
	00		 call	 DWORD PTR __imp_?SetTitle@ioINILoader@@QAEXPBD@Z

; 191  : 	}

  00152	8b 4d fc	 mov	 ecx, DWORD PTR __$ArrayPad$[ebp]
  00155	33 cd		 xor	 ecx, ebp
  00157	e8 00 00 00 00	 call	 @__security_check_cookie@4
  0015c	c9		 leave
  0015d	c2 04 00	 ret	 4
??$SetTitle_e@$09@ioINILoader@@QAEXAAY09$$CBD@Z ENDP	; ioINILoader::SetTitle_e<10>
_TEXT	ENDS
PUBLIC	__$ArrayPad$
PUBLIC	??$LoadInt_e@$0BA@@ioINILoader@@QAEHAAY0BA@$$CBDH@Z ; ioINILoader::LoadInt_e<16>
EXTRN	__imp_?LoadInt@ioINILoader@@QAEHPBDH@Z:PROC
; Function compile flags: /Ogsp
;	COMDAT ??$LoadInt_e@$0BA@@ioINILoader@@QAEHAAY0BA@$$CBDH@Z
_TEXT	SEGMENT
__k$ = -24						; size = 16
__$ArrayPad$ = -4					; size = 4
_k$ = 8							; size = 4
_i$ = 12						; size = 4
??$LoadInt_e@$0BA@@ioINILoader@@QAEHAAY0BA@$$CBDH@Z PROC ; ioINILoader::LoadInt_e<16>, COMDAT
; _this$ = ecx

; 118  : 	{

  00000	55		 push	 ebp
  00001	8b ec		 mov	 ebp, esp
  00003	83 ec 18	 sub	 esp, 24			; 00000018H
  00006	a1 00 00 00 00	 mov	 eax, DWORD PTR ___security_cookie
  0000b	33 c5		 xor	 eax, ebp
  0000d	89 45 fc	 mov	 DWORD PTR __$ArrayPad$[ebp], eax
  00010	8b 45 08	 mov	 eax, DWORD PTR _k$[ebp]

; 119  : 		_ENCSTR(k, _k);

  00013	8a 10		 mov	 dl, BYTE PTR [eax]
  00015	56		 push	 esi
  00016	8b f1		 mov	 esi, ecx
  00018	84 d2		 test	 dl, dl
  0001a	0f 84 8c 01 00
	00		 je	 $LN96@LoadInt_e
  00020	80 f2 ed	 xor	 dl, -19			; ffffffedH
  00023	88 55 e8	 mov	 BYTE PTR __k$[ebp], dl
  00026	8a 50 01	 mov	 dl, BYTE PTR [eax+1]
  00029	84 d2		 test	 dl, dl
  0002b	0f 84 75 01 00
	00		 je	 $LN95@LoadInt_e
  00031	80 f2 ec	 xor	 dl, -20			; ffffffecH
  00034	88 55 e9	 mov	 BYTE PTR __k$[ebp+1], dl
  00037	8a 50 02	 mov	 dl, BYTE PTR [eax+2]
  0003a	84 d2		 test	 dl, dl
  0003c	0f 84 5e 01 00
	00		 je	 $LN94@LoadInt_e
  00042	b1 eb		 mov	 cl, -21			; ffffffebH
  00044	32 d1		 xor	 dl, cl
  00046	88 55 ea	 mov	 BYTE PTR __k$[ebp+2], dl
  00049	8a 50 03	 mov	 dl, BYTE PTR [eax+3]
  0004c	84 d2		 test	 dl, dl
  0004e	0f 84 46 01 00
	00		 je	 $LN93@LoadInt_e
  00054	80 f2 ea	 xor	 dl, -22			; ffffffeaH
  00057	88 55 eb	 mov	 BYTE PTR __k$[ebp+3], dl
  0005a	8a 50 04	 mov	 dl, BYTE PTR [eax+4]
  0005d	84 d2		 test	 dl, dl
  0005f	0f 84 2f 01 00
	00		 je	 $LN92@LoadInt_e
  00065	80 f2 ed	 xor	 dl, -19			; ffffffedH
  00068	88 55 ec	 mov	 BYTE PTR __k$[ebp+4], dl
  0006b	8a 50 05	 mov	 dl, BYTE PTR [eax+5]
  0006e	84 d2		 test	 dl, dl
  00070	0f 84 18 01 00
	00		 je	 $LN91@LoadInt_e
  00076	80 f2 ec	 xor	 dl, -20			; ffffffecH
  00079	88 55 ed	 mov	 BYTE PTR __k$[ebp+5], dl
  0007c	8a 50 06	 mov	 dl, BYTE PTR [eax+6]
  0007f	84 d2		 test	 dl, dl
  00081	0f 84 02 01 00
	00		 je	 $LN90@LoadInt_e
  00087	32 d1		 xor	 dl, cl
  00089	88 55 ee	 mov	 BYTE PTR __k$[ebp+6], dl
  0008c	8a 50 07	 mov	 dl, BYTE PTR [eax+7]
  0008f	84 d2		 test	 dl, dl
  00091	0f 84 ec 00 00
	00		 je	 $LN89@LoadInt_e
  00097	80 f2 ea	 xor	 dl, -22			; ffffffeaH
  0009a	88 55 ef	 mov	 BYTE PTR __k$[ebp+7], dl
  0009d	8a 50 08	 mov	 dl, BYTE PTR [eax+8]
  000a0	84 d2		 test	 dl, dl
  000a2	0f 84 d5 00 00
	00		 je	 $LN88@LoadInt_e
  000a8	80 f2 ed	 xor	 dl, -19			; ffffffedH
  000ab	88 55 f0	 mov	 BYTE PTR __k$[ebp+8], dl
  000ae	8a 50 09	 mov	 dl, BYTE PTR [eax+9]
  000b1	84 d2		 test	 dl, dl
  000b3	0f 84 be 00 00
	00		 je	 $LN87@LoadInt_e
  000b9	80 f2 ec	 xor	 dl, -20			; ffffffecH
  000bc	88 55 f1	 mov	 BYTE PTR __k$[ebp+9], dl
  000bf	8a 50 0a	 mov	 dl, BYTE PTR [eax+10]
  000c2	84 d2		 test	 dl, dl
  000c4	0f 84 a8 00 00
	00		 je	 $LN86@LoadInt_e
  000ca	32 d1		 xor	 dl, cl
  000cc	88 55 f2	 mov	 BYTE PTR __k$[ebp+10], dl
  000cf	8a 50 0b	 mov	 dl, BYTE PTR [eax+11]
  000d2	84 d2		 test	 dl, dl
  000d4	0f 84 92 00 00
	00		 je	 $LN85@LoadInt_e
  000da	80 f2 ea	 xor	 dl, -22			; ffffffeaH
  000dd	88 55 f3	 mov	 BYTE PTR __k$[ebp+11], dl
  000e0	8a 50 0c	 mov	 dl, BYTE PTR [eax+12]
  000e3	84 d2		 test	 dl, dl
  000e5	74 7f		 je	 SHORT $LN84@LoadInt_e
  000e7	80 f2 ed	 xor	 dl, -19			; ffffffedH
  000ea	88 55 f4	 mov	 BYTE PTR __k$[ebp+12], dl
  000ed	8a 50 0d	 mov	 dl, BYTE PTR [eax+13]
  000f0	84 d2		 test	 dl, dl
  000f2	74 6c		 je	 SHORT $LN83@LoadInt_e
  000f4	80 f2 ec	 xor	 dl, -20			; ffffffecH
  000f7	88 55 f5	 mov	 BYTE PTR __k$[ebp+13], dl
  000fa	8a 50 0e	 mov	 dl, BYTE PTR [eax+14]
  000fd	84 d2		 test	 dl, dl
  000ff	74 5a		 je	 SHORT $LN82@LoadInt_e
  00101	32 d1		 xor	 dl, cl
  00103	80 78 0f 00	 cmp	 BYTE PTR [eax+15], 0
  00107	88 55 f6	 mov	 BYTE PTR __k$[ebp+14], dl
  0010a	0f 84 a0 00 00
	00		 je	 $LN1@LoadInt_e
  00110	8a 50 10	 mov	 dl, BYTE PTR [eax+16]
  00113	84 d2		 test	 dl, dl
  00115	74 3e		 je	 SHORT $LN80@LoadInt_e
  00117	80 f2 ed	 xor	 dl, -19			; ffffffedH
  0011a	88 55 f8	 mov	 BYTE PTR __k$[ebp+16], dl
  0011d	8a 50 11	 mov	 dl, BYTE PTR [eax+17]
  00120	84 d2		 test	 dl, dl
  00122	74 2b		 je	 SHORT $LN79@LoadInt_e
  00124	80 f2 ec	 xor	 dl, -20			; ffffffecH
  00127	88 55 f9	 mov	 BYTE PTR __k$[ebp+17], dl
  0012a	8a 50 12	 mov	 dl, BYTE PTR [eax+18]
  0012d	84 d2		 test	 dl, dl
  0012f	74 19		 je	 SHORT $LN78@LoadInt_e
  00131	8a 40 13	 mov	 al, BYTE PTR [eax+19]
  00134	32 d1		 xor	 dl, cl
  00136	88 55 fa	 mov	 BYTE PTR __k$[ebp+18], dl
  00139	84 c0		 test	 al, al
  0013b	74 07		 je	 SHORT $LN77@LoadInt_e
  0013d	34 ea		 xor	 al, -22			; ffffffeaH
  0013f	88 45 fb	 mov	 BYTE PTR __k$[ebp+19], al
  00142	eb 6c		 jmp	 SHORT $LN1@LoadInt_e
$LN77@LoadInt_e:
  00144	c6 45 fb ea	 mov	 BYTE PTR __k$[ebp+19], -22 ; ffffffeaH
  00148	eb 66		 jmp	 SHORT $LN1@LoadInt_e
$LN78@LoadInt_e:
  0014a	88 4d fa	 mov	 BYTE PTR __k$[ebp+18], cl
  0014d	eb 61		 jmp	 SHORT $LN1@LoadInt_e
$LN79@LoadInt_e:
  0014f	c6 45 f9 ec	 mov	 BYTE PTR __k$[ebp+17], -20 ; ffffffecH
  00153	eb 5b		 jmp	 SHORT $LN1@LoadInt_e
$LN80@LoadInt_e:
  00155	c6 45 f8 ed	 mov	 BYTE PTR __k$[ebp+16], -19 ; ffffffedH
  00159	eb 55		 jmp	 SHORT $LN1@LoadInt_e
$LN82@LoadInt_e:
  0015b	88 4d f6	 mov	 BYTE PTR __k$[ebp+14], cl
  0015e	eb 50		 jmp	 SHORT $LN1@LoadInt_e
$LN83@LoadInt_e:
  00160	c6 45 f5 ec	 mov	 BYTE PTR __k$[ebp+13], -20 ; ffffffecH
  00164	eb 4a		 jmp	 SHORT $LN1@LoadInt_e
$LN84@LoadInt_e:
  00166	c6 45 f4 ed	 mov	 BYTE PTR __k$[ebp+12], -19 ; ffffffedH
  0016a	eb 44		 jmp	 SHORT $LN1@LoadInt_e
$LN85@LoadInt_e:
  0016c	c6 45 f3 ea	 mov	 BYTE PTR __k$[ebp+11], -22 ; ffffffeaH
  00170	eb 3e		 jmp	 SHORT $LN1@LoadInt_e
$LN86@LoadInt_e:
  00172	88 4d f2	 mov	 BYTE PTR __k$[ebp+10], cl
  00175	eb 39		 jmp	 SHORT $LN1@LoadInt_e
$LN87@LoadInt_e:
  00177	c6 45 f1 ec	 mov	 BYTE PTR __k$[ebp+9], -20 ; ffffffecH
  0017b	eb 33		 jmp	 SHORT $LN1@LoadInt_e
$LN88@LoadInt_e:
  0017d	c6 45 f0 ed	 mov	 BYTE PTR __k$[ebp+8], -19 ; ffffffedH
  00181	eb 2d		 jmp	 SHORT $LN1@LoadInt_e
$LN89@LoadInt_e:
  00183	c6 45 ef ea	 mov	 BYTE PTR __k$[ebp+7], -22 ; ffffffeaH
  00187	eb 27		 jmp	 SHORT $LN1@LoadInt_e
$LN90@LoadInt_e:
  00189	88 4d ee	 mov	 BYTE PTR __k$[ebp+6], cl
  0018c	eb 22		 jmp	 SHORT $LN1@LoadInt_e
$LN91@LoadInt_e:
  0018e	c6 45 ed ec	 mov	 BYTE PTR __k$[ebp+5], -20 ; ffffffecH
  00192	eb 1c		 jmp	 SHORT $LN1@LoadInt_e
$LN92@LoadInt_e:
  00194	c6 45 ec ed	 mov	 BYTE PTR __k$[ebp+4], -19 ; ffffffedH
  00198	eb 16		 jmp	 SHORT $LN1@LoadInt_e
$LN93@LoadInt_e:
  0019a	c6 45 eb ea	 mov	 BYTE PTR __k$[ebp+3], -22 ; ffffffeaH
  0019e	eb 10		 jmp	 SHORT $LN1@LoadInt_e
$LN94@LoadInt_e:
  001a0	c6 45 ea eb	 mov	 BYTE PTR __k$[ebp+2], -21 ; ffffffebH
  001a4	eb 0a		 jmp	 SHORT $LN1@LoadInt_e
$LN95@LoadInt_e:
  001a6	c6 45 e9 ec	 mov	 BYTE PTR __k$[ebp+1], -20 ; ffffffecH
  001aa	eb 04		 jmp	 SHORT $LN1@LoadInt_e
$LN96@LoadInt_e:
  001ac	c6 45 e8 ed	 mov	 BYTE PTR __k$[ebp], -19	; ffffffedH
$LN1@LoadInt_e:
  001b0	6a 03		 push	 3
  001b2	8d 45 e8	 lea	 eax, DWORD PTR __k$[ebp]
  001b5	c6 45 f7 00	 mov	 BYTE PTR __k$[ebp+15], 0
  001b9	5a		 pop	 edx
$LL104@LoadInt_e:
  001ba	81 30 ed ec eb
	ea		 xor	 DWORD PTR [eax], -353637139 ; eaebecedH
  001c0	83 c0 04	 add	 eax, 4
  001c3	4a		 dec	 edx
  001c4	75 f4		 jne	 SHORT $LL104@LoadInt_e
  001c6	6a 0c		 push	 12			; 0000000cH
  001c8	58		 pop	 eax
$LL101@LoadInt_e:
  001c9	8b c8		 mov	 ecx, eax
  001cb	81 e1 03 00 00
	80		 and	 ecx, -2147483645	; 80000003H
  001d1	79 05		 jns	 SHORT $LN111@LoadInt_e
  001d3	49		 dec	 ecx
  001d4	83 c9 fc	 or	 ecx, -4			; fffffffcH
  001d7	41		 inc	 ecx
$LN111@LoadInt_e:
  001d8	b2 ed		 mov	 dl, -19			; ffffffedH
  001da	2a d1		 sub	 dl, cl
  001dc	30 54 05 e8	 xor	 BYTE PTR __k$[ebp+eax], dl
  001e0	40		 inc	 eax
  001e1	83 f8 0f	 cmp	 eax, 15			; 0000000fH
  001e4	7c e3		 jl	 SHORT $LL101@LoadInt_e

; 120  : 		return LoadInt(_k, i);

  001e6	ff 75 0c	 push	 DWORD PTR _i$[ebp]
  001e9	8d 45 e8	 lea	 eax, DWORD PTR __k$[ebp]
  001ec	50		 push	 eax
  001ed	8b ce		 mov	 ecx, esi
  001ef	ff 15 00 00 00
	00		 call	 DWORD PTR __imp_?LoadInt@ioINILoader@@QAEHPBDH@Z

; 121  : 	}

  001f5	8b 4d fc	 mov	 ecx, DWORD PTR __$ArrayPad$[ebp]
  001f8	33 cd		 xor	 ecx, ebp
  001fa	5e		 pop	 esi
  001fb	e8 00 00 00 00	 call	 @__security_check_cookie@4
  00200	c9		 leave
  00201	c2 08 00	 ret	 8
??$LoadInt_e@$0BA@@ioINILoader@@QAEHAAY0BA@$$CBDH@Z ENDP ; ioINILoader::LoadInt_e<16>
_TEXT	ENDS
PUBLIC	__$ArrayPad$
PUBLIC	??$LoadInt_e@$0BG@@ioINILoader@@QAEHAAY0BG@$$CBDH@Z ; ioINILoader::LoadInt_e<22>
; Function compile flags: /Ogsp
;	COMDAT ??$LoadInt_e@$0BG@@ioINILoader@@QAEHAAY0BG@$$CBDH@Z
_TEXT	SEGMENT
__k$ = -32						; size = 22
__$ArrayPad$ = -4					; size = 4
_k$ = 8							; size = 4
_i$ = 12						; size = 4
??$LoadInt_e@$0BG@@ioINILoader@@QAEHAAY0BG@$$CBDH@Z PROC ; ioINILoader::LoadInt_e<22>, COMDAT
; _this$ = ecx

; 118  : 	{

  00000	55		 push	 ebp
  00001	8b ec		 mov	 ebp, esp
  00003	83 ec 20	 sub	 esp, 32			; 00000020H
  00006	a1 00 00 00 00	 mov	 eax, DWORD PTR ___security_cookie
  0000b	33 c5		 xor	 eax, ebp
  0000d	89 45 fc	 mov	 DWORD PTR __$ArrayPad$[ebp], eax
  00010	8b 45 08	 mov	 eax, DWORD PTR _k$[ebp]

; 119  : 		_ENCSTR(k, _k);

  00013	8a 10		 mov	 dl, BYTE PTR [eax]
  00015	53		 push	 ebx
  00016	56		 push	 esi
  00017	8b f1		 mov	 esi, ecx
  00019	84 d2		 test	 dl, dl
  0001b	0f 84 15 02 00
	00		 je	 $LN96@LoadInt_e@2
  00021	80 f2 ed	 xor	 dl, -19			; ffffffedH
  00024	88 55 e0	 mov	 BYTE PTR __k$[ebp], dl
  00027	8a 50 01	 mov	 dl, BYTE PTR [eax+1]
  0002a	84 d2		 test	 dl, dl
  0002c	0f 84 fe 01 00
	00		 je	 $LN95@LoadInt_e@2
  00032	80 f2 ec	 xor	 dl, -20			; ffffffecH
  00035	88 55 e1	 mov	 BYTE PTR __k$[ebp+1], dl
  00038	8a 50 02	 mov	 dl, BYTE PTR [eax+2]
  0003b	84 d2		 test	 dl, dl
  0003d	0f 84 e7 01 00
	00		 je	 $LN94@LoadInt_e@2
  00043	b1 eb		 mov	 cl, -21			; ffffffebH
  00045	32 d1		 xor	 dl, cl
  00047	88 55 e2	 mov	 BYTE PTR __k$[ebp+2], dl
  0004a	8a 50 03	 mov	 dl, BYTE PTR [eax+3]
  0004d	84 d2		 test	 dl, dl
  0004f	0f 84 cf 01 00
	00		 je	 $LN93@LoadInt_e@2
  00055	b3 ea		 mov	 bl, -22			; ffffffeaH
  00057	32 d3		 xor	 dl, bl
  00059	88 55 e3	 mov	 BYTE PTR __k$[ebp+3], dl
  0005c	8a 50 04	 mov	 dl, BYTE PTR [eax+4]
  0005f	84 d2		 test	 dl, dl
  00061	0f 84 b7 01 00
	00		 je	 $LN92@LoadInt_e@2
  00067	80 f2 ed	 xor	 dl, -19			; ffffffedH
  0006a	88 55 e4	 mov	 BYTE PTR __k$[ebp+4], dl
  0006d	8a 50 05	 mov	 dl, BYTE PTR [eax+5]
  00070	84 d2		 test	 dl, dl
  00072	0f 84 a0 01 00
	00		 je	 $LN91@LoadInt_e@2
  00078	80 f2 ec	 xor	 dl, -20			; ffffffecH
  0007b	88 55 e5	 mov	 BYTE PTR __k$[ebp+5], dl
  0007e	8a 50 06	 mov	 dl, BYTE PTR [eax+6]
  00081	84 d2		 test	 dl, dl
  00083	0f 84 8a 01 00
	00		 je	 $LN90@LoadInt_e@2
  00089	32 d1		 xor	 dl, cl
  0008b	88 55 e6	 mov	 BYTE PTR __k$[ebp+6], dl
  0008e	8a 50 07	 mov	 dl, BYTE PTR [eax+7]
  00091	84 d2		 test	 dl, dl
  00093	0f 84 75 01 00
	00		 je	 $LN89@LoadInt_e@2
  00099	32 d3		 xor	 dl, bl
  0009b	88 55 e7	 mov	 BYTE PTR __k$[ebp+7], dl
  0009e	8a 50 08	 mov	 dl, BYTE PTR [eax+8]
  000a1	84 d2		 test	 dl, dl
  000a3	0f 84 5f 01 00
	00		 je	 $LN88@LoadInt_e@2
  000a9	80 f2 ed	 xor	 dl, -19			; ffffffedH
  000ac	88 55 e8	 mov	 BYTE PTR __k$[ebp+8], dl
  000af	8a 50 09	 mov	 dl, BYTE PTR [eax+9]
  000b2	84 d2		 test	 dl, dl
  000b4	0f 84 48 01 00
	00		 je	 $LN87@LoadInt_e@2
  000ba	80 f2 ec	 xor	 dl, -20			; ffffffecH
  000bd	88 55 e9	 mov	 BYTE PTR __k$[ebp+9], dl
  000c0	8a 50 0a	 mov	 dl, BYTE PTR [eax+10]
  000c3	84 d2		 test	 dl, dl
  000c5	0f 84 32 01 00
	00		 je	 $LN86@LoadInt_e@2
  000cb	32 d1		 xor	 dl, cl
  000cd	88 55 ea	 mov	 BYTE PTR __k$[ebp+10], dl
  000d0	8a 50 0b	 mov	 dl, BYTE PTR [eax+11]
  000d3	84 d2		 test	 dl, dl
  000d5	0f 84 1d 01 00
	00		 je	 $LN85@LoadInt_e@2
  000db	32 d3		 xor	 dl, bl
  000dd	88 55 eb	 mov	 BYTE PTR __k$[ebp+11], dl
  000e0	8a 50 0c	 mov	 dl, BYTE PTR [eax+12]
  000e3	84 d2		 test	 dl, dl
  000e5	0f 84 07 01 00
	00		 je	 $LN84@LoadInt_e@2
  000eb	80 f2 ed	 xor	 dl, -19			; ffffffedH
  000ee	88 55 ec	 mov	 BYTE PTR __k$[ebp+12], dl
  000f1	8a 50 0d	 mov	 dl, BYTE PTR [eax+13]
  000f4	84 d2		 test	 dl, dl
  000f6	0f 84 f0 00 00
	00		 je	 $LN83@LoadInt_e@2
  000fc	80 f2 ec	 xor	 dl, -20			; ffffffecH
  000ff	88 55 ed	 mov	 BYTE PTR __k$[ebp+13], dl
  00102	8a 50 0e	 mov	 dl, BYTE PTR [eax+14]
  00105	84 d2		 test	 dl, dl
  00107	0f 84 da 00 00
	00		 je	 $LN82@LoadInt_e@2
  0010d	32 d1		 xor	 dl, cl
  0010f	88 55 ee	 mov	 BYTE PTR __k$[ebp+14], dl
  00112	8a 50 0f	 mov	 dl, BYTE PTR [eax+15]
  00115	84 d2		 test	 dl, dl
  00117	0f 84 c5 00 00
	00		 je	 $LN81@LoadInt_e@2
  0011d	32 d3		 xor	 dl, bl
  0011f	88 55 ef	 mov	 BYTE PTR __k$[ebp+15], dl
  00122	8a 50 10	 mov	 dl, BYTE PTR [eax+16]
  00125	84 d2		 test	 dl, dl
  00127	0f 84 af 00 00
	00		 je	 $LN80@LoadInt_e@2
  0012d	80 f2 ed	 xor	 dl, -19			; ffffffedH
  00130	88 55 f0	 mov	 BYTE PTR __k$[ebp+16], dl
  00133	8a 50 11	 mov	 dl, BYTE PTR [eax+17]
  00136	84 d2		 test	 dl, dl
  00138	0f 84 98 00 00
	00		 je	 $LN79@LoadInt_e@2
  0013e	80 f2 ec	 xor	 dl, -20			; ffffffecH
  00141	88 55 f1	 mov	 BYTE PTR __k$[ebp+17], dl
  00144	8a 50 12	 mov	 dl, BYTE PTR [eax+18]
  00147	84 d2		 test	 dl, dl
  00149	0f 84 82 00 00
	00		 je	 $LN78@LoadInt_e@2
  0014f	32 d1		 xor	 dl, cl
  00151	88 55 f2	 mov	 BYTE PTR __k$[ebp+18], dl
  00154	8a 50 13	 mov	 dl, BYTE PTR [eax+19]
  00157	84 d2		 test	 dl, dl
  00159	74 71		 je	 SHORT $LN77@LoadInt_e@2
  0015b	32 d3		 xor	 dl, bl
  0015d	88 55 f3	 mov	 BYTE PTR __k$[ebp+19], dl
  00160	8a 50 14	 mov	 dl, BYTE PTR [eax+20]
  00163	84 d2		 test	 dl, dl
  00165	74 5f		 je	 SHORT $LN76@LoadInt_e@2
  00167	80 f2 ed	 xor	 dl, -19			; ffffffedH
  0016a	80 78 15 00	 cmp	 BYTE PTR [eax+21], 0
  0016e	88 55 f4	 mov	 BYTE PTR __k$[ebp+20], dl
  00171	0f 84 c3 00 00
	00		 je	 $LN1@LoadInt_e@2
  00177	8a 50 16	 mov	 dl, BYTE PTR [eax+22]
  0017a	84 d2		 test	 dl, dl
  0017c	74 43		 je	 SHORT $LN74@LoadInt_e@2
  0017e	32 d1		 xor	 dl, cl
  00180	88 55 f6	 mov	 BYTE PTR __k$[ebp+22], dl
  00183	8a 50 17	 mov	 dl, BYTE PTR [eax+23]
  00186	84 d2		 test	 dl, dl
  00188	74 32		 je	 SHORT $LN73@LoadInt_e@2
  0018a	32 d3		 xor	 dl, bl
  0018c	88 55 f7	 mov	 BYTE PTR __k$[ebp+23], dl
  0018f	8a 50 18	 mov	 dl, BYTE PTR [eax+24]
  00192	84 d2		 test	 dl, dl
  00194	74 20		 je	 SHORT $LN72@LoadInt_e@2
  00196	8a 40 19	 mov	 al, BYTE PTR [eax+25]
  00199	80 f2 ed	 xor	 dl, -19			; ffffffedH
  0019c	88 55 f8	 mov	 BYTE PTR __k$[ebp+24], dl
  0019f	84 c0		 test	 al, al
  001a1	74 0a		 je	 SHORT $LN71@LoadInt_e@2
  001a3	34 ec		 xor	 al, -20			; ffffffecH
  001a5	88 45 f9	 mov	 BYTE PTR __k$[ebp+25], al
  001a8	e9 8d 00 00 00	 jmp	 $LN1@LoadInt_e@2
$LN71@LoadInt_e@2:
  001ad	c6 45 f9 ec	 mov	 BYTE PTR __k$[ebp+25], -20 ; ffffffecH
  001b1	e9 84 00 00 00	 jmp	 $LN1@LoadInt_e@2
$LN72@LoadInt_e@2:
  001b6	c6 45 f8 ed	 mov	 BYTE PTR __k$[ebp+24], -19 ; ffffffedH
  001ba	eb 7e		 jmp	 SHORT $LN1@LoadInt_e@2
$LN73@LoadInt_e@2:
  001bc	88 5d f7	 mov	 BYTE PTR __k$[ebp+23], bl
  001bf	eb 79		 jmp	 SHORT $LN1@LoadInt_e@2
$LN74@LoadInt_e@2:
  001c1	88 4d f6	 mov	 BYTE PTR __k$[ebp+22], cl
  001c4	eb 74		 jmp	 SHORT $LN1@LoadInt_e@2
$LN76@LoadInt_e@2:
  001c6	c6 45 f4 ed	 mov	 BYTE PTR __k$[ebp+20], -19 ; ffffffedH
  001ca	eb 6e		 jmp	 SHORT $LN1@LoadInt_e@2
$LN77@LoadInt_e@2:
  001cc	88 5d f3	 mov	 BYTE PTR __k$[ebp+19], bl
  001cf	eb 69		 jmp	 SHORT $LN1@LoadInt_e@2
$LN78@LoadInt_e@2:
  001d1	88 4d f2	 mov	 BYTE PTR __k$[ebp+18], cl
  001d4	eb 64		 jmp	 SHORT $LN1@LoadInt_e@2
$LN79@LoadInt_e@2:
  001d6	c6 45 f1 ec	 mov	 BYTE PTR __k$[ebp+17], -20 ; ffffffecH
  001da	eb 5e		 jmp	 SHORT $LN1@LoadInt_e@2
$LN80@LoadInt_e@2:
  001dc	c6 45 f0 ed	 mov	 BYTE PTR __k$[ebp+16], -19 ; ffffffedH
  001e0	eb 58		 jmp	 SHORT $LN1@LoadInt_e@2
$LN81@LoadInt_e@2:
  001e2	88 5d ef	 mov	 BYTE PTR __k$[ebp+15], bl
  001e5	eb 53		 jmp	 SHORT $LN1@LoadInt_e@2
$LN82@LoadInt_e@2:
  001e7	88 4d ee	 mov	 BYTE PTR __k$[ebp+14], cl
  001ea	eb 4e		 jmp	 SHORT $LN1@LoadInt_e@2
$LN83@LoadInt_e@2:
  001ec	c6 45 ed ec	 mov	 BYTE PTR __k$[ebp+13], -20 ; ffffffecH
  001f0	eb 48		 jmp	 SHORT $LN1@LoadInt_e@2
$LN84@LoadInt_e@2:
  001f2	c6 45 ec ed	 mov	 BYTE PTR __k$[ebp+12], -19 ; ffffffedH
  001f6	eb 42		 jmp	 SHORT $LN1@LoadInt_e@2
$LN85@LoadInt_e@2:
  001f8	88 5d eb	 mov	 BYTE PTR __k$[ebp+11], bl
  001fb	eb 3d		 jmp	 SHORT $LN1@LoadInt_e@2
$LN86@LoadInt_e@2:
  001fd	88 4d ea	 mov	 BYTE PTR __k$[ebp+10], cl
  00200	eb 38		 jmp	 SHORT $LN1@LoadInt_e@2
$LN87@LoadInt_e@2:
  00202	c6 45 e9 ec	 mov	 BYTE PTR __k$[ebp+9], -20 ; ffffffecH
  00206	eb 32		 jmp	 SHORT $LN1@LoadInt_e@2
$LN88@LoadInt_e@2:
  00208	c6 45 e8 ed	 mov	 BYTE PTR __k$[ebp+8], -19 ; ffffffedH
  0020c	eb 2c		 jmp	 SHORT $LN1@LoadInt_e@2
$LN89@LoadInt_e@2:
  0020e	88 5d e7	 mov	 BYTE PTR __k$[ebp+7], bl
  00211	eb 27		 jmp	 SHORT $LN1@LoadInt_e@2
$LN90@LoadInt_e@2:
  00213	88 4d e6	 mov	 BYTE PTR __k$[ebp+6], cl
  00216	eb 22		 jmp	 SHORT $LN1@LoadInt_e@2
$LN91@LoadInt_e@2:
  00218	c6 45 e5 ec	 mov	 BYTE PTR __k$[ebp+5], -20 ; ffffffecH
  0021c	eb 1c		 jmp	 SHORT $LN1@LoadInt_e@2
$LN92@LoadInt_e@2:
  0021e	c6 45 e4 ed	 mov	 BYTE PTR __k$[ebp+4], -19 ; ffffffedH
  00222	eb 16		 jmp	 SHORT $LN1@LoadInt_e@2
$LN93@LoadInt_e@2:
  00224	c6 45 e3 ea	 mov	 BYTE PTR __k$[ebp+3], -22 ; ffffffeaH
  00228	eb 10		 jmp	 SHORT $LN1@LoadInt_e@2
$LN94@LoadInt_e@2:
  0022a	c6 45 e2 eb	 mov	 BYTE PTR __k$[ebp+2], -21 ; ffffffebH
  0022e	eb 0a		 jmp	 SHORT $LN1@LoadInt_e@2
$LN95@LoadInt_e@2:
  00230	c6 45 e1 ec	 mov	 BYTE PTR __k$[ebp+1], -20 ; ffffffecH
  00234	eb 04		 jmp	 SHORT $LN1@LoadInt_e@2
$LN96@LoadInt_e@2:
  00236	c6 45 e0 ed	 mov	 BYTE PTR __k$[ebp], -19	; ffffffedH
$LN1@LoadInt_e@2:
  0023a	6a 05		 push	 5
  0023c	8d 45 e0	 lea	 eax, DWORD PTR __k$[ebp]
  0023f	c6 45 f5 00	 mov	 BYTE PTR __k$[ebp+21], 0
  00243	5a		 pop	 edx
$LL104@LoadInt_e@2:
  00244	81 30 ed ec eb
	ea		 xor	 DWORD PTR [eax], -353637139 ; eaebecedH
  0024a	83 c0 04	 add	 eax, 4
  0024d	4a		 dec	 edx
  0024e	75 f4		 jne	 SHORT $LL104@LoadInt_e@2

; 120  : 		return LoadInt(_k, i);

  00250	ff 75 0c	 push	 DWORD PTR _i$[ebp]
  00253	80 75 f4 ed	 xor	 BYTE PTR __k$[ebp+20], -19 ; ffffffedH
  00257	8d 45 e0	 lea	 eax, DWORD PTR __k$[ebp]
  0025a	50		 push	 eax
  0025b	8b ce		 mov	 ecx, esi
  0025d	ff 15 00 00 00
	00		 call	 DWORD PTR __imp_?LoadInt@ioINILoader@@QAEHPBDH@Z

; 121  : 	}

  00263	8b 4d fc	 mov	 ecx, DWORD PTR __$ArrayPad$[ebp]
  00266	5e		 pop	 esi
  00267	33 cd		 xor	 ecx, ebp
  00269	5b		 pop	 ebx
  0026a	e8 00 00 00 00	 call	 @__security_check_cookie@4
  0026f	c9		 leave
  00270	c2 08 00	 ret	 8
??$LoadInt_e@$0BG@@ioINILoader@@QAEHAAY0BG@$$CBDH@Z ENDP ; ioINILoader::LoadInt_e<22>
_TEXT	ENDS
PUBLIC	__$ArrayPad$
PUBLIC	??$LoadInt_e@$0BF@@ioINILoader@@QAEHAAY0BF@$$CBDH@Z ; ioINILoader::LoadInt_e<21>
; Function compile flags: /Ogsp
;	COMDAT ??$LoadInt_e@$0BF@@ioINILoader@@QAEHAAY0BF@$$CBDH@Z
_TEXT	SEGMENT
__k$ = -32						; size = 21
__$ArrayPad$ = -4					; size = 4
_k$ = 8							; size = 4
_i$ = 12						; size = 4
??$LoadInt_e@$0BF@@ioINILoader@@QAEHAAY0BF@$$CBDH@Z PROC ; ioINILoader::LoadInt_e<21>, COMDAT
; _this$ = ecx

; 118  : 	{

  00000	55		 push	 ebp
  00001	8b ec		 mov	 ebp, esp
  00003	83 ec 20	 sub	 esp, 32			; 00000020H
  00006	a1 00 00 00 00	 mov	 eax, DWORD PTR ___security_cookie
  0000b	33 c5		 xor	 eax, ebp
  0000d	89 45 fc	 mov	 DWORD PTR __$ArrayPad$[ebp], eax
  00010	8b 45 08	 mov	 eax, DWORD PTR _k$[ebp]

; 119  : 		_ENCSTR(k, _k);

  00013	8a 10		 mov	 dl, BYTE PTR [eax]
  00015	53		 push	 ebx
  00016	56		 push	 esi
  00017	8b f1		 mov	 esi, ecx
  00019	84 d2		 test	 dl, dl
  0001b	0f 84 f7 01 00
	00		 je	 $LN96@LoadInt_e@3
  00021	80 f2 ed	 xor	 dl, -19			; ffffffedH
  00024	88 55 e0	 mov	 BYTE PTR __k$[ebp], dl
  00027	8a 50 01	 mov	 dl, BYTE PTR [eax+1]
  0002a	84 d2		 test	 dl, dl
  0002c	0f 84 e0 01 00
	00		 je	 $LN95@LoadInt_e@3
  00032	b1 ec		 mov	 cl, -20			; ffffffecH
  00034	32 d1		 xor	 dl, cl
  00036	88 55 e1	 mov	 BYTE PTR __k$[ebp+1], dl
  00039	8a 50 02	 mov	 dl, BYTE PTR [eax+2]
  0003c	84 d2		 test	 dl, dl
  0003e	0f 84 c8 01 00
	00		 je	 $LN94@LoadInt_e@3
  00044	b3 eb		 mov	 bl, -21			; ffffffebH
  00046	32 d3		 xor	 dl, bl
  00048	88 55 e2	 mov	 BYTE PTR __k$[ebp+2], dl
  0004b	8a 50 03	 mov	 dl, BYTE PTR [eax+3]
  0004e	84 d2		 test	 dl, dl
  00050	0f 84 b0 01 00
	00		 je	 $LN93@LoadInt_e@3
  00056	80 f2 ea	 xor	 dl, -22			; ffffffeaH
  00059	88 55 e3	 mov	 BYTE PTR __k$[ebp+3], dl
  0005c	8a 50 04	 mov	 dl, BYTE PTR [eax+4]
  0005f	84 d2		 test	 dl, dl
  00061	0f 84 99 01 00
	00		 je	 $LN92@LoadInt_e@3
  00067	80 f2 ed	 xor	 dl, -19			; ffffffedH
  0006a	88 55 e4	 mov	 BYTE PTR __k$[ebp+4], dl
  0006d	8a 50 05	 mov	 dl, BYTE PTR [eax+5]
  00070	84 d2		 test	 dl, dl
  00072	0f 84 83 01 00
	00		 je	 $LN91@LoadInt_e@3
  00078	32 d1		 xor	 dl, cl
  0007a	88 55 e5	 mov	 BYTE PTR __k$[ebp+5], dl
  0007d	8a 50 06	 mov	 dl, BYTE PTR [eax+6]
  00080	84 d2		 test	 dl, dl
  00082	0f 84 6e 01 00
	00		 je	 $LN90@LoadInt_e@3
  00088	32 d3		 xor	 dl, bl
  0008a	88 55 e6	 mov	 BYTE PTR __k$[ebp+6], dl
  0008d	8a 50 07	 mov	 dl, BYTE PTR [eax+7]
  00090	84 d2		 test	 dl, dl
  00092	0f 84 58 01 00
	00		 je	 $LN89@LoadInt_e@3
  00098	80 f2 ea	 xor	 dl, -22			; ffffffeaH
  0009b	88 55 e7	 mov	 BYTE PTR __k$[ebp+7], dl
  0009e	8a 50 08	 mov	 dl, BYTE PTR [eax+8]
  000a1	84 d2		 test	 dl, dl
  000a3	0f 84 41 01 00
	00		 je	 $LN88@LoadInt_e@3
  000a9	80 f2 ed	 xor	 dl, -19			; ffffffedH
  000ac	88 55 e8	 mov	 BYTE PTR __k$[ebp+8], dl
  000af	8a 50 09	 mov	 dl, BYTE PTR [eax+9]
  000b2	84 d2		 test	 dl, dl
  000b4	0f 84 2b 01 00
	00		 je	 $LN87@LoadInt_e@3
  000ba	32 d1		 xor	 dl, cl
  000bc	88 55 e9	 mov	 BYTE PTR __k$[ebp+9], dl
  000bf	8a 50 0a	 mov	 dl, BYTE PTR [eax+10]
  000c2	84 d2		 test	 dl, dl
  000c4	0f 84 16 01 00
	00		 je	 $LN86@LoadInt_e@3
  000ca	32 d3		 xor	 dl, bl
  000cc	88 55 ea	 mov	 BYTE PTR __k$[ebp+10], dl
  000cf	8a 50 0b	 mov	 dl, BYTE PTR [eax+11]
  000d2	84 d2		 test	 dl, dl
  000d4	0f 84 00 01 00
	00		 je	 $LN85@LoadInt_e@3
  000da	80 f2 ea	 xor	 dl, -22			; ffffffeaH
  000dd	88 55 eb	 mov	 BYTE PTR __k$[ebp+11], dl
  000e0	8a 50 0c	 mov	 dl, BYTE PTR [eax+12]
  000e3	84 d2		 test	 dl, dl
  000e5	0f 84 e9 00 00
	00		 je	 $LN84@LoadInt_e@3
  000eb	80 f2 ed	 xor	 dl, -19			; ffffffedH
  000ee	88 55 ec	 mov	 BYTE PTR __k$[ebp+12], dl
  000f1	8a 50 0d	 mov	 dl, BYTE PTR [eax+13]
  000f4	84 d2		 test	 dl, dl
  000f6	0f 84 d3 00 00
	00		 je	 $LN83@LoadInt_e@3
  000fc	32 d1		 xor	 dl, cl
  000fe	88 55 ed	 mov	 BYTE PTR __k$[ebp+13], dl
  00101	8a 50 0e	 mov	 dl, BYTE PTR [eax+14]
  00104	84 d2		 test	 dl, dl
  00106	0f 84 be 00 00
	00		 je	 $LN82@LoadInt_e@3
  0010c	32 d3		 xor	 dl, bl
  0010e	88 55 ee	 mov	 BYTE PTR __k$[ebp+14], dl
  00111	8a 50 0f	 mov	 dl, BYTE PTR [eax+15]
  00114	84 d2		 test	 dl, dl
  00116	0f 84 a8 00 00
	00		 je	 $LN81@LoadInt_e@3
  0011c	80 f2 ea	 xor	 dl, -22			; ffffffeaH
  0011f	88 55 ef	 mov	 BYTE PTR __k$[ebp+15], dl
  00122	8a 50 10	 mov	 dl, BYTE PTR [eax+16]
  00125	84 d2		 test	 dl, dl
  00127	0f 84 91 00 00
	00		 je	 $LN80@LoadInt_e@3
  0012d	80 f2 ed	 xor	 dl, -19			; ffffffedH
  00130	88 55 f0	 mov	 BYTE PTR __k$[ebp+16], dl
  00133	8a 50 11	 mov	 dl, BYTE PTR [eax+17]
  00136	84 d2		 test	 dl, dl
  00138	74 7f		 je	 SHORT $LN79@LoadInt_e@3
  0013a	32 d1		 xor	 dl, cl
  0013c	88 55 f1	 mov	 BYTE PTR __k$[ebp+17], dl
  0013f	8a 50 12	 mov	 dl, BYTE PTR [eax+18]
  00142	84 d2		 test	 dl, dl
  00144	74 6e		 je	 SHORT $LN78@LoadInt_e@3
  00146	32 d3		 xor	 dl, bl
  00148	88 55 f2	 mov	 BYTE PTR __k$[ebp+18], dl
  0014b	8a 50 13	 mov	 dl, BYTE PTR [eax+19]
  0014e	84 d2		 test	 dl, dl
  00150	74 5c		 je	 SHORT $LN77@LoadInt_e@3
  00152	80 f2 ea	 xor	 dl, -22			; ffffffeaH
  00155	80 78 14 00	 cmp	 BYTE PTR [eax+20], 0
  00159	88 55 f3	 mov	 BYTE PTR __k$[ebp+19], dl
  0015c	0f 84 ba 00 00
	00		 je	 $LN1@LoadInt_e@3
  00162	8a 50 15	 mov	 dl, BYTE PTR [eax+21]
  00165	84 d2		 test	 dl, dl
  00167	74 40		 je	 SHORT $LN75@LoadInt_e@3
  00169	32 d1		 xor	 dl, cl
  0016b	88 55 f5	 mov	 BYTE PTR __k$[ebp+21], dl
  0016e	8a 50 16	 mov	 dl, BYTE PTR [eax+22]
  00171	84 d2		 test	 dl, dl
  00173	74 2f		 je	 SHORT $LN74@LoadInt_e@3
  00175	32 d3		 xor	 dl, bl
  00177	88 55 f6	 mov	 BYTE PTR __k$[ebp+22], dl
  0017a	8a 50 17	 mov	 dl, BYTE PTR [eax+23]
  0017d	84 d2		 test	 dl, dl
  0017f	74 1d		 je	 SHORT $LN73@LoadInt_e@3
  00181	8a 40 18	 mov	 al, BYTE PTR [eax+24]
  00184	80 f2 ea	 xor	 dl, -22			; ffffffeaH
  00187	88 55 f7	 mov	 BYTE PTR __k$[ebp+23], dl
  0018a	84 c0		 test	 al, al
  0018c	74 0a		 je	 SHORT $LN72@LoadInt_e@3
  0018e	34 ed		 xor	 al, -19			; ffffffedH
  00190	88 45 f8	 mov	 BYTE PTR __k$[ebp+24], al
  00193	e9 84 00 00 00	 jmp	 $LN1@LoadInt_e@3
$LN72@LoadInt_e@3:
  00198	c6 45 f8 ed	 mov	 BYTE PTR __k$[ebp+24], -19 ; ffffffedH
  0019c	eb 7e		 jmp	 SHORT $LN1@LoadInt_e@3
$LN73@LoadInt_e@3:
  0019e	c6 45 f7 ea	 mov	 BYTE PTR __k$[ebp+23], -22 ; ffffffeaH
  001a2	eb 78		 jmp	 SHORT $LN1@LoadInt_e@3
$LN74@LoadInt_e@3:
  001a4	88 5d f6	 mov	 BYTE PTR __k$[ebp+22], bl
  001a7	eb 73		 jmp	 SHORT $LN1@LoadInt_e@3
$LN75@LoadInt_e@3:
  001a9	88 4d f5	 mov	 BYTE PTR __k$[ebp+21], cl
  001ac	eb 6e		 jmp	 SHORT $LN1@LoadInt_e@3
$LN77@LoadInt_e@3:
  001ae	c6 45 f3 ea	 mov	 BYTE PTR __k$[ebp+19], -22 ; ffffffeaH
  001b2	eb 68		 jmp	 SHORT $LN1@LoadInt_e@3
$LN78@LoadInt_e@3:
  001b4	88 5d f2	 mov	 BYTE PTR __k$[ebp+18], bl
  001b7	eb 63		 jmp	 SHORT $LN1@LoadInt_e@3
$LN79@LoadInt_e@3:
  001b9	88 4d f1	 mov	 BYTE PTR __k$[ebp+17], cl
  001bc	eb 5e		 jmp	 SHORT $LN1@LoadInt_e@3
$LN80@LoadInt_e@3:
  001be	c6 45 f0 ed	 mov	 BYTE PTR __k$[ebp+16], -19 ; ffffffedH
  001c2	eb 58		 jmp	 SHORT $LN1@LoadInt_e@3
$LN81@LoadInt_e@3:
  001c4	c6 45 ef ea	 mov	 BYTE PTR __k$[ebp+15], -22 ; ffffffeaH
  001c8	eb 52		 jmp	 SHORT $LN1@LoadInt_e@3
$LN82@LoadInt_e@3:
  001ca	88 5d ee	 mov	 BYTE PTR __k$[ebp+14], bl
  001cd	eb 4d		 jmp	 SHORT $LN1@LoadInt_e@3
$LN83@LoadInt_e@3:
  001cf	88 4d ed	 mov	 BYTE PTR __k$[ebp+13], cl
  001d2	eb 48		 jmp	 SHORT $LN1@LoadInt_e@3
$LN84@LoadInt_e@3:
  001d4	c6 45 ec ed	 mov	 BYTE PTR __k$[ebp+12], -19 ; ffffffedH
  001d8	eb 42		 jmp	 SHORT $LN1@LoadInt_e@3
$LN85@LoadInt_e@3:
  001da	c6 45 eb ea	 mov	 BYTE PTR __k$[ebp+11], -22 ; ffffffeaH
  001de	eb 3c		 jmp	 SHORT $LN1@LoadInt_e@3
$LN86@LoadInt_e@3:
  001e0	88 5d ea	 mov	 BYTE PTR __k$[ebp+10], bl
  001e3	eb 37		 jmp	 SHORT $LN1@LoadInt_e@3
$LN87@LoadInt_e@3:
  001e5	88 4d e9	 mov	 BYTE PTR __k$[ebp+9], cl
  001e8	eb 32		 jmp	 SHORT $LN1@LoadInt_e@3
$LN88@LoadInt_e@3:
  001ea	c6 45 e8 ed	 mov	 BYTE PTR __k$[ebp+8], -19 ; ffffffedH
  001ee	eb 2c		 jmp	 SHORT $LN1@LoadInt_e@3
$LN89@LoadInt_e@3:
  001f0	c6 45 e7 ea	 mov	 BYTE PTR __k$[ebp+7], -22 ; ffffffeaH
  001f4	eb 26		 jmp	 SHORT $LN1@LoadInt_e@3
$LN90@LoadInt_e@3:
  001f6	88 5d e6	 mov	 BYTE PTR __k$[ebp+6], bl
  001f9	eb 21		 jmp	 SHORT $LN1@LoadInt_e@3
$LN91@LoadInt_e@3:
  001fb	88 4d e5	 mov	 BYTE PTR __k$[ebp+5], cl
  001fe	eb 1c		 jmp	 SHORT $LN1@LoadInt_e@3
$LN92@LoadInt_e@3:
  00200	c6 45 e4 ed	 mov	 BYTE PTR __k$[ebp+4], -19 ; ffffffedH
  00204	eb 16		 jmp	 SHORT $LN1@LoadInt_e@3
$LN93@LoadInt_e@3:
  00206	c6 45 e3 ea	 mov	 BYTE PTR __k$[ebp+3], -22 ; ffffffeaH
  0020a	eb 10		 jmp	 SHORT $LN1@LoadInt_e@3
$LN94@LoadInt_e@3:
  0020c	c6 45 e2 eb	 mov	 BYTE PTR __k$[ebp+2], -21 ; ffffffebH
  00210	eb 0a		 jmp	 SHORT $LN1@LoadInt_e@3
$LN95@LoadInt_e@3:
  00212	c6 45 e1 ec	 mov	 BYTE PTR __k$[ebp+1], -20 ; ffffffecH
  00216	eb 04		 jmp	 SHORT $LN1@LoadInt_e@3
$LN96@LoadInt_e@3:
  00218	c6 45 e0 ed	 mov	 BYTE PTR __k$[ebp], -19	; ffffffedH
$LN1@LoadInt_e@3:
  0021c	6a 05		 push	 5
  0021e	8d 45 e0	 lea	 eax, DWORD PTR __k$[ebp]
  00221	c6 45 f4 00	 mov	 BYTE PTR __k$[ebp+20], 0
  00225	5a		 pop	 edx
$LL104@LoadInt_e@3:
  00226	81 30 ed ec eb
	ea		 xor	 DWORD PTR [eax], -353637139 ; eaebecedH
  0022c	83 c0 04	 add	 eax, 4
  0022f	4a		 dec	 edx
  00230	75 f4		 jne	 SHORT $LL104@LoadInt_e@3

; 120  : 		return LoadInt(_k, i);

  00232	ff 75 0c	 push	 DWORD PTR _i$[ebp]
  00235	8d 45 e0	 lea	 eax, DWORD PTR __k$[ebp]
  00238	50		 push	 eax
  00239	8b ce		 mov	 ecx, esi
  0023b	ff 15 00 00 00
	00		 call	 DWORD PTR __imp_?LoadInt@ioINILoader@@QAEHPBDH@Z

; 121  : 	}

  00241	8b 4d fc	 mov	 ecx, DWORD PTR __$ArrayPad$[ebp]
  00244	5e		 pop	 esi
  00245	33 cd		 xor	 ecx, ebp
  00247	5b		 pop	 ebx
  00248	e8 00 00 00 00	 call	 @__security_check_cookie@4
  0024d	c9		 leave
  0024e	c2 08 00	 ret	 8
??$LoadInt_e@$0BF@@ioINILoader@@QAEHAAY0BF@$$CBDH@Z ENDP ; ioINILoader::LoadInt_e<21>
_TEXT	ENDS
PUBLIC	?max_size@?$_Tree@V?$_Tmap_traits@HHU?$less@H@std@@V?$allocator@U?$pair@$$CBHH@std@@@2@$0A@@std@@@std@@QBEIXZ ; std::_Tree<std::_Tmap_traits<int,int,std::less<int>,std::allocator<std::pair<int const ,int> >,0> >::max_size
; Function compile flags: /Ogsp
; File c:\program files (x86)\microsoft visual studio 10.0\vc\include\xtree
;	COMDAT ?max_size@?$_Tree@V?$_Tmap_traits@HHU?$less@H@std@@V?$allocator@U?$pair@$$CBHH@std@@@2@$0A@@std@@@std@@QBEIXZ
_TEXT	SEGMENT
?max_size@?$_Tree@V?$_Tmap_traits@HHU?$less@H@std@@V?$allocator@U?$pair@$$CBHH@std@@@2@$0A@@std@@@std@@QBEIXZ PROC ; std::_Tree<std::_Tmap_traits<int,int,std::less<int>,std::allocator<std::pair<int const ,int> >,0> >::max_size, COMDAT
; _this$ = ecx

; 874  : 		return (this->_Alval.max_size());

  00000	b8 ff ff ff 1f	 mov	 eax, 536870911		; 1fffffffH

; 875  : 		}

  00005	c3		 ret	 0
?max_size@?$_Tree@V?$_Tmap_traits@HHU?$less@H@std@@V?$allocator@U?$pair@$$CBHH@std@@@2@$0A@@std@@@std@@QBEIXZ ENDP ; std::_Tree<std::_Tmap_traits<int,int,std::less<int>,std::allocator<std::pair<int const ,int> >,0> >::max_size
_TEXT	ENDS
PUBLIC	??0?$_Pair_base@V?$_Tree_iterator@V?$_Tree_val@V?$_Tmap_traits@HHU?$less@H@std@@V?$allocator@U?$pair@$$CBHH@std@@@2@$0A@@std@@@std@@@std@@_N@std@@QAE@$$QAV?$_Tree_iterator@V?$_Tree_val@V?$_Tmap_traits@HHU?$less@H@std@@V?$allocator@U?$pair@$$CBHH@std@@@2@$0A@@std@@@std@@@1@$$QA_N@Z ; std::_Pair_base<std::_Tree_iterator<std::_Tree_val<std::_Tmap_traits<int,int,std::less<int>,std::allocator<std::pair<int const ,int> >,0> > >,bool>::_Pair_base<std::_Tree_iterator<std::_Tree_val<std::_Tmap_traits<int,int,std::less<int>,std::allocator<std::pair<int const ,int> >,0> > >,bool>
; Function compile flags: /Ogsp
; File c:\program files (x86)\microsoft visual studio 10.0\vc\include\utility
;	COMDAT ??0?$_Pair_base@V?$_Tree_iterator@V?$_Tree_val@V?$_Tmap_traits@HHU?$less@H@std@@V?$allocator@U?$pair@$$CBHH@std@@@2@$0A@@std@@@std@@@std@@_N@std@@QAE@$$QAV?$_Tree_iterator@V?$_Tree_val@V?$_Tmap_traits@HHU?$less@H@std@@V?$allocator@U?$pair@$$CBHH@std@@@2@$0A@@std@@@std@@@1@$$QA_N@Z
_TEXT	SEGMENT
__Val1$ = 8						; size = 4
__Val2$ = 12						; size = 4
??0?$_Pair_base@V?$_Tree_iterator@V?$_Tree_val@V?$_Tmap_traits@HHU?$less@H@std@@V?$allocator@U?$pair@$$CBHH@std@@@2@$0A@@std@@@std@@@std@@_N@std@@QAE@$$QAV?$_Tree_iterator@V?$_Tree_val@V?$_Tmap_traits@HHU?$less@H@std@@V?$allocator@U?$pair@$$CBHH@std@@@2@$0A@@std@@@std@@@1@$$QA_N@Z PROC ; std::_Pair_base<std::_Tree_iterator<std::_Tree_val<std::_Tmap_traits<int,int,std::less<int>,std::allocator<std::pair<int const ,int> >,0> > >,bool>::_Pair_base<std::_Tree_iterator<std::_Tree_val<std::_Tmap_traits<int,int,std::less<int>,std::allocator<std::pair<int const ,int> >,0> > >,bool>, COMDAT
; _this$ = ecx

; 145  : 		{	// construct from specified values

  00000	55		 push	 ebp
  00001	8b ec		 mov	 ebp, esp
  00003	8b c1		 mov	 eax, ecx
  00005	8b 4d 08	 mov	 ecx, DWORD PTR __Val1$[ebp]
  00008	8b 09		 mov	 ecx, DWORD PTR [ecx]
  0000a	89 08		 mov	 DWORD PTR [eax], ecx
  0000c	8b 4d 0c	 mov	 ecx, DWORD PTR __Val2$[ebp]
  0000f	8a 09		 mov	 cl, BYTE PTR [ecx]
  00011	88 48 04	 mov	 BYTE PTR [eax+4], cl

; 146  : 		}

  00014	5d		 pop	 ebp
  00015	c2 08 00	 ret	 8
??0?$_Pair_base@V?$_Tree_iterator@V?$_Tree_val@V?$_Tmap_traits@HHU?$less@H@std@@V?$allocator@U?$pair@$$CBHH@std@@@2@$0A@@std@@@std@@@std@@_N@std@@QAE@$$QAV?$_Tree_iterator@V?$_Tree_val@V?$_Tmap_traits@HHU?$less@H@std@@V?$allocator@U?$pair@$$CBHH@std@@@2@$0A@@std@@@std@@@1@$$QA_N@Z ENDP ; std::_Pair_base<std::_Tree_iterator<std::_Tree_val<std::_Tmap_traits<int,int,std::less<int>,std::allocator<std::pair<int const ,int> >,0> > >,bool>::_Pair_base<std::_Tree_iterator<std::_Tree_val<std::_Tmap_traits<int,int,std::less<int>,std::allocator<std::pair<int const ,int> >,0> > >,bool>
_TEXT	ENDS
PUBLIC	??F?$_Tree_unchecked_const_iterator@V?$_Tree_val@V?$_Tmap_traits@HHU?$less@H@std@@V?$allocator@U?$pair@$$CBHH@std@@@2@$0A@@std@@@std@@U_Iterator_base0@2@@std@@QAEAAV01@XZ ; std::_Tree_unchecked_const_iterator<std::_Tree_val<std::_Tmap_traits<int,int,std::less<int>,std::allocator<std::pair<int const ,int> >,0> >,std::_Iterator_base0>::operator--
; Function compile flags: /Ogsp
; File c:\program files (x86)\microsoft visual studio 10.0\vc\include\xtree
;	COMDAT ??F?$_Tree_unchecked_const_iterator@V?$_Tree_val@V?$_Tmap_traits@HHU?$less@H@std@@V?$allocator@U?$pair@$$CBHH@std@@@2@$0A@@std@@@std@@U_Iterator_base0@2@@std@@QAEAAV01@XZ
_TEXT	SEGMENT
??F?$_Tree_unchecked_const_iterator@V?$_Tree_val@V?$_Tmap_traits@HHU?$less@H@std@@V?$allocator@U?$pair@$$CBHH@std@@@2@$0A@@std@@@std@@U_Iterator_base0@2@@std@@QAEAAV01@XZ PROC ; std::_Tree_unchecked_const_iterator<std::_Tree_val<std::_Tmap_traits<int,int,std::less<int>,std::allocator<std::pair<int const ,int> >,0> >,std::_Iterator_base0>::operator--, COMDAT
; _this$ = ecx

; 83   : 		{	// predecrement

  00000	8b c1		 mov	 eax, ecx

; 84   : 		if (_Mytree::_Isnil(_Ptr))

  00002	8b 08		 mov	 ecx, DWORD PTR [eax]
  00004	53		 push	 ebx
  00005	32 db		 xor	 bl, bl
  00007	38 59 15	 cmp	 BYTE PTR [ecx+21], bl
  0000a	74 07		 je	 SHORT $LN8@operator@2

; 85   : 			_Ptr = _Mytree::_Right(_Ptr);	// end() ==> rightmost

  0000c	8b 49 08	 mov	 ecx, DWORD PTR [ecx+8]
  0000f	89 08		 mov	 DWORD PTR [eax], ecx
  00011	5b		 pop	 ebx

; 99   : 			}
; 100  : 		return (*this);
; 101  : 		}

  00012	c3		 ret	 0
$LN8@operator@2:

; 86   : 		else if (!_Mytree::_Isnil(_Mytree::_Left(_Ptr)))

  00013	8b 11		 mov	 edx, DWORD PTR [ecx]
  00015	38 5a 15	 cmp	 BYTE PTR [edx+21], bl
  00018	74 07		 je	 SHORT $LN44@operator@2

; 90   : 			{	// climb looking for left subtree
; 91   : 			_Nodeptr _Pnode;
; 92   : 			while (!_Mytree::_Isnil(_Pnode = _Mytree::_Parent(_Ptr))
; 93   : 				&& _Ptr == _Mytree::_Left(_Pnode))

  0001a	8b 51 04	 mov	 edx, DWORD PTR [ecx+4]
  0001d	eb 17		 jmp	 SHORT $LN46@operator@2

; 87   : 			_Ptr = _Mytree::_Max(
; 88   : 				_Mytree::_Left(_Ptr));	// ==> largest of left subtree

$LL22@operator@2:
  0001f	8b d1		 mov	 edx, ecx
$LN44@operator@2:
  00021	8b 4a 08	 mov	 ecx, DWORD PTR [edx+8]
  00024	38 59 15	 cmp	 BYTE PTR [ecx+21], bl
  00027	74 f6		 je	 SHORT $LL22@operator@2

; 89   : 		else

  00029	eb 17		 jmp	 SHORT $LN45@operator@2
$LL4@operator@2:

; 90   : 			{	// climb looking for left subtree
; 91   : 			_Nodeptr _Pnode;
; 92   : 			while (!_Mytree::_Isnil(_Pnode = _Mytree::_Parent(_Ptr))
; 93   : 				&& _Ptr == _Mytree::_Left(_Pnode))

  0002b	8b 08		 mov	 ecx, DWORD PTR [eax]
  0002d	3b 0a		 cmp	 ecx, DWORD PTR [edx]
  0002f	75 0a		 jne	 SHORT $LN3@operator@2

; 94   : 				_Ptr = _Pnode;	// ==> parent while left subtree

  00031	89 10		 mov	 DWORD PTR [eax], edx
  00033	8b 52 04	 mov	 edx, DWORD PTR [edx+4]
$LN46@operator@2:

; 90   : 			{	// climb looking for left subtree
; 91   : 			_Nodeptr _Pnode;
; 92   : 			while (!_Mytree::_Isnil(_Pnode = _Mytree::_Parent(_Ptr))
; 93   : 				&& _Ptr == _Mytree::_Left(_Pnode))

  00036	38 5a 15	 cmp	 BYTE PTR [edx+21], bl
  00039	74 f0		 je	 SHORT $LL4@operator@2
$LN3@operator@2:

; 95   : 			if (_Mytree::_Isnil(_Ptr))

  0003b	8b 08		 mov	 ecx, DWORD PTR [eax]
  0003d	38 59 15	 cmp	 BYTE PTR [ecx+21], bl
  00040	75 02		 jne	 SHORT $LN1@operator@2
$LN45@operator@2:

; 96   : 				;	// begin() shouldn't be decremented, don't move
; 97   : 			else
; 98   : 				_Ptr = _Pnode;	// ==> parent if not head

  00042	89 10		 mov	 DWORD PTR [eax], edx
$LN1@operator@2:
  00044	5b		 pop	 ebx

; 99   : 			}
; 100  : 		return (*this);
; 101  : 		}

  00045	c3		 ret	 0
??F?$_Tree_unchecked_const_iterator@V?$_Tree_val@V?$_Tmap_traits@HHU?$less@H@std@@V?$allocator@U?$pair@$$CBHH@std@@@2@$0A@@std@@@std@@U_Iterator_base0@2@@std@@QAEAAV01@XZ ENDP ; std::_Tree_unchecked_const_iterator<std::_Tree_val<std::_Tmap_traits<int,int,std::less<int>,std::allocator<std::pair<int const ,int> >,0> >,std::_Iterator_base0>::operator--
_TEXT	ENDS
PUBLIC	??$encodeString@$0BN@@ioINILoader_e@@AAEPADAAY0BN@$$CBDPAD@Z ; ioINILoader_e::encodeString<29>
; Function compile flags: /Ogsp
; File d:\lost saga for developer\youtube\tutorial\source\src\io3dengine\ioiniloader.h
;	COMDAT ??$encodeString@$0BN@@ioINILoader_e@@AAEPADAAY0BN@$$CBDPAD@Z
_TEXT	SEGMENT
_s$ = 8							; size = 4
_e$ = 12						; size = 4
??$encodeString@$0BN@@ioINILoader_e@@AAEPADAAY0BN@$$CBDPAD@Z PROC ; ioINILoader_e::encodeString<29>, COMDAT
; _this$ = ecx

; 215  : 	{

  00000	55		 push	 ebp
  00001	8b ec		 mov	 ebp, esp

; 216  : 		__ENCSTR(s, e);

  00003	8b 4d 08	 mov	 ecx, DWORD PTR _s$[ebp]
  00006	8a 11		 mov	 dl, BYTE PTR [ecx]
  00008	8b 45 0c	 mov	 eax, DWORD PTR _e$[ebp]
  0000b	53		 push	 ebx
  0000c	84 d2		 test	 dl, dl
  0000e	0f 84 6a 04 00
	00		 je	 $LN96@encodeStri
  00014	80 f2 ed	 xor	 dl, -19			; ffffffedH
  00017	88 10		 mov	 BYTE PTR [eax], dl
  00019	8a 51 01	 mov	 dl, BYTE PTR [ecx+1]
  0001c	84 d2		 test	 dl, dl
  0001e	0f 84 54 04 00
	00		 je	 $LN95@encodeStri
  00024	80 f2 ec	 xor	 dl, -20			; ffffffecH
  00027	88 50 01	 mov	 BYTE PTR [eax+1], dl
  0002a	8a 51 02	 mov	 dl, BYTE PTR [ecx+2]
  0002d	84 d2		 test	 dl, dl
  0002f	0f 84 3d 04 00
	00		 je	 $LN94@encodeStri
  00035	b3 eb		 mov	 bl, -21			; ffffffebH
  00037	32 d3		 xor	 dl, bl
  00039	88 50 02	 mov	 BYTE PTR [eax+2], dl
  0003c	8a 51 03	 mov	 dl, BYTE PTR [ecx+3]
  0003f	84 d2		 test	 dl, dl
  00041	0f 84 25 04 00
	00		 je	 $LN93@encodeStri
  00047	80 f2 ea	 xor	 dl, -22			; ffffffeaH
  0004a	88 50 03	 mov	 BYTE PTR [eax+3], dl
  0004d	8a 51 04	 mov	 dl, BYTE PTR [ecx+4]
  00050	84 d2		 test	 dl, dl
  00052	0f 84 0e 04 00
	00		 je	 $LN92@encodeStri
  00058	80 f2 ed	 xor	 dl, -19			; ffffffedH
  0005b	88 50 04	 mov	 BYTE PTR [eax+4], dl
  0005e	8a 51 05	 mov	 dl, BYTE PTR [ecx+5]
  00061	84 d2		 test	 dl, dl
  00063	0f 84 f7 03 00
	00		 je	 $LN91@encodeStri
  00069	80 f2 ec	 xor	 dl, -20			; ffffffecH
  0006c	88 50 05	 mov	 BYTE PTR [eax+5], dl
  0006f	8a 51 06	 mov	 dl, BYTE PTR [ecx+6]
  00072	84 d2		 test	 dl, dl
  00074	0f 84 e1 03 00
	00		 je	 $LN90@encodeStri
  0007a	32 d3		 xor	 dl, bl
  0007c	88 50 06	 mov	 BYTE PTR [eax+6], dl
  0007f	8a 51 07	 mov	 dl, BYTE PTR [ecx+7]
  00082	84 d2		 test	 dl, dl
  00084	0f 84 cb 03 00
	00		 je	 $LN89@encodeStri
  0008a	80 f2 ea	 xor	 dl, -22			; ffffffeaH
  0008d	88 50 07	 mov	 BYTE PTR [eax+7], dl
  00090	8a 51 08	 mov	 dl, BYTE PTR [ecx+8]
  00093	84 d2		 test	 dl, dl
  00095	0f 84 b4 03 00
	00		 je	 $LN88@encodeStri
  0009b	80 f2 ed	 xor	 dl, -19			; ffffffedH
  0009e	88 50 08	 mov	 BYTE PTR [eax+8], dl
  000a1	8a 51 09	 mov	 dl, BYTE PTR [ecx+9]
  000a4	84 d2		 test	 dl, dl
  000a6	0f 84 9d 03 00
	00		 je	 $LN87@encodeStri
  000ac	80 f2 ec	 xor	 dl, -20			; ffffffecH
  000af	88 50 09	 mov	 BYTE PTR [eax+9], dl
  000b2	8a 51 0a	 mov	 dl, BYTE PTR [ecx+10]
  000b5	84 d2		 test	 dl, dl
  000b7	0f 84 87 03 00
	00		 je	 $LN86@encodeStri
  000bd	32 d3		 xor	 dl, bl
  000bf	88 50 0a	 mov	 BYTE PTR [eax+10], dl
  000c2	8a 51 0b	 mov	 dl, BYTE PTR [ecx+11]
  000c5	84 d2		 test	 dl, dl
  000c7	0f 84 71 03 00
	00		 je	 $LN85@encodeStri
  000cd	80 f2 ea	 xor	 dl, -22			; ffffffeaH
  000d0	88 50 0b	 mov	 BYTE PTR [eax+11], dl
  000d3	8a 51 0c	 mov	 dl, BYTE PTR [ecx+12]
  000d6	84 d2		 test	 dl, dl
  000d8	0f 84 5a 03 00
	00		 je	 $LN84@encodeStri
  000de	80 f2 ed	 xor	 dl, -19			; ffffffedH
  000e1	88 50 0c	 mov	 BYTE PTR [eax+12], dl
  000e4	8a 51 0d	 mov	 dl, BYTE PTR [ecx+13]
  000e7	84 d2		 test	 dl, dl
  000e9	0f 84 43 03 00
	00		 je	 $LN83@encodeStri
  000ef	80 f2 ec	 xor	 dl, -20			; ffffffecH
  000f2	88 50 0d	 mov	 BYTE PTR [eax+13], dl
  000f5	8a 51 0e	 mov	 dl, BYTE PTR [ecx+14]
  000f8	84 d2		 test	 dl, dl
  000fa	0f 84 2d 03 00
	00		 je	 $LN82@encodeStri
  00100	32 d3		 xor	 dl, bl
  00102	88 50 0e	 mov	 BYTE PTR [eax+14], dl
  00105	8a 51 0f	 mov	 dl, BYTE PTR [ecx+15]
  00108	84 d2		 test	 dl, dl
  0010a	0f 84 17 03 00
	00		 je	 $LN81@encodeStri
  00110	80 f2 ea	 xor	 dl, -22			; ffffffeaH
  00113	88 50 0f	 mov	 BYTE PTR [eax+15], dl
  00116	8a 51 10	 mov	 dl, BYTE PTR [ecx+16]
  00119	84 d2		 test	 dl, dl
  0011b	0f 84 00 03 00
	00		 je	 $LN80@encodeStri
  00121	80 f2 ed	 xor	 dl, -19			; ffffffedH
  00124	88 50 10	 mov	 BYTE PTR [eax+16], dl
  00127	8a 51 11	 mov	 dl, BYTE PTR [ecx+17]
  0012a	84 d2		 test	 dl, dl
  0012c	0f 84 e9 02 00
	00		 je	 $LN79@encodeStri
  00132	80 f2 ec	 xor	 dl, -20			; ffffffecH
  00135	88 50 11	 mov	 BYTE PTR [eax+17], dl
  00138	8a 51 12	 mov	 dl, BYTE PTR [ecx+18]
  0013b	84 d2		 test	 dl, dl
  0013d	0f 84 d3 02 00
	00		 je	 $LN78@encodeStri
  00143	32 d3		 xor	 dl, bl
  00145	88 50 12	 mov	 BYTE PTR [eax+18], dl
  00148	8a 51 13	 mov	 dl, BYTE PTR [ecx+19]
  0014b	84 d2		 test	 dl, dl
  0014d	0f 84 bd 02 00
	00		 je	 $LN77@encodeStri
  00153	80 f2 ea	 xor	 dl, -22			; ffffffeaH
  00156	88 50 13	 mov	 BYTE PTR [eax+19], dl
  00159	8a 51 14	 mov	 dl, BYTE PTR [ecx+20]
  0015c	84 d2		 test	 dl, dl
  0015e	0f 84 a6 02 00
	00		 je	 $LN76@encodeStri
  00164	80 f2 ed	 xor	 dl, -19			; ffffffedH
  00167	88 50 14	 mov	 BYTE PTR [eax+20], dl
  0016a	8a 51 15	 mov	 dl, BYTE PTR [ecx+21]
  0016d	84 d2		 test	 dl, dl
  0016f	0f 84 8f 02 00
	00		 je	 $LN75@encodeStri
  00175	80 f2 ec	 xor	 dl, -20			; ffffffecH
  00178	88 50 15	 mov	 BYTE PTR [eax+21], dl
  0017b	8a 51 16	 mov	 dl, BYTE PTR [ecx+22]
  0017e	84 d2		 test	 dl, dl
  00180	0f 84 79 02 00
	00		 je	 $LN74@encodeStri
  00186	32 d3		 xor	 dl, bl
  00188	88 50 16	 mov	 BYTE PTR [eax+22], dl
  0018b	8a 51 17	 mov	 dl, BYTE PTR [ecx+23]
  0018e	84 d2		 test	 dl, dl
  00190	0f 84 60 02 00
	00		 je	 $LN73@encodeStri
  00196	80 f2 ea	 xor	 dl, -22			; ffffffeaH
  00199	88 50 17	 mov	 BYTE PTR [eax+23], dl
  0019c	8a 51 18	 mov	 dl, BYTE PTR [ecx+24]
  0019f	84 d2		 test	 dl, dl
  001a1	0f 84 46 02 00
	00		 je	 $LN72@encodeStri
  001a7	80 f2 ed	 xor	 dl, -19			; ffffffedH
  001aa	88 50 18	 mov	 BYTE PTR [eax+24], dl
  001ad	8a 51 19	 mov	 dl, BYTE PTR [ecx+25]
  001b0	84 d2		 test	 dl, dl
  001b2	0f 84 2c 02 00
	00		 je	 $LN71@encodeStri
  001b8	80 f2 ec	 xor	 dl, -20			; ffffffecH
  001bb	88 50 19	 mov	 BYTE PTR [eax+25], dl
  001be	8a 51 1a	 mov	 dl, BYTE PTR [ecx+26]
  001c1	84 d2		 test	 dl, dl
  001c3	0f 84 13 02 00
	00		 je	 $LN70@encodeStri
  001c9	32 d3		 xor	 dl, bl
  001cb	88 50 1a	 mov	 BYTE PTR [eax+26], dl
  001ce	8a 51 1b	 mov	 dl, BYTE PTR [ecx+27]
  001d1	84 d2		 test	 dl, dl
  001d3	0f 84 fa 01 00
	00		 je	 $LN69@encodeStri
  001d9	80 f2 ea	 xor	 dl, -22			; ffffffeaH
  001dc	88 50 1b	 mov	 BYTE PTR [eax+27], dl
  001df	8a 51 1c	 mov	 dl, BYTE PTR [ecx+28]
  001e2	84 d2		 test	 dl, dl
  001e4	0f 84 e0 01 00
	00		 je	 $LN68@encodeStri
  001ea	80 f2 ed	 xor	 dl, -19			; ffffffedH
  001ed	88 50 1c	 mov	 BYTE PTR [eax+28], dl
  001f0	8a 51 1d	 mov	 dl, BYTE PTR [ecx+29]
  001f3	84 d2		 test	 dl, dl
  001f5	0f 84 c6 01 00
	00		 je	 $LN67@encodeStri
  001fb	80 f2 ec	 xor	 dl, -20			; ffffffecH
  001fe	88 50 1d	 mov	 BYTE PTR [eax+29], dl
  00201	8a 51 1e	 mov	 dl, BYTE PTR [ecx+30]
  00204	84 d2		 test	 dl, dl
  00206	0f 84 ad 01 00
	00		 je	 $LN66@encodeStri
  0020c	32 d3		 xor	 dl, bl
  0020e	88 50 1e	 mov	 BYTE PTR [eax+30], dl
  00211	8a 51 1f	 mov	 dl, BYTE PTR [ecx+31]
  00214	84 d2		 test	 dl, dl
  00216	0f 84 94 01 00
	00		 je	 $LN65@encodeStri
  0021c	80 f2 ea	 xor	 dl, -22			; ffffffeaH
  0021f	88 50 1f	 mov	 BYTE PTR [eax+31], dl
  00222	8a 51 20	 mov	 dl, BYTE PTR [ecx+32]
  00225	84 d2		 test	 dl, dl
  00227	0f 84 7a 01 00
	00		 je	 $LN64@encodeStri
  0022d	80 f2 ed	 xor	 dl, -19			; ffffffedH
  00230	88 50 20	 mov	 BYTE PTR [eax+32], dl
  00233	8a 51 21	 mov	 dl, BYTE PTR [ecx+33]
  00236	84 d2		 test	 dl, dl
  00238	0f 84 60 01 00
	00		 je	 $LN63@encodeStri
  0023e	80 f2 ec	 xor	 dl, -20			; ffffffecH
  00241	88 50 21	 mov	 BYTE PTR [eax+33], dl
  00244	8a 51 22	 mov	 dl, BYTE PTR [ecx+34]
  00247	84 d2		 test	 dl, dl
  00249	0f 84 47 01 00
	00		 je	 $LN62@encodeStri
  0024f	32 d3		 xor	 dl, bl
  00251	88 50 22	 mov	 BYTE PTR [eax+34], dl
  00254	8a 51 23	 mov	 dl, BYTE PTR [ecx+35]
  00257	84 d2		 test	 dl, dl
  00259	0f 84 2e 01 00
	00		 je	 $LN61@encodeStri
  0025f	80 f2 ea	 xor	 dl, -22			; ffffffeaH
  00262	88 50 23	 mov	 BYTE PTR [eax+35], dl
  00265	8a 51 24	 mov	 dl, BYTE PTR [ecx+36]
  00268	84 d2		 test	 dl, dl
  0026a	0f 84 14 01 00
	00		 je	 $LN60@encodeStri
  00270	80 f2 ed	 xor	 dl, -19			; ffffffedH
  00273	88 50 24	 mov	 BYTE PTR [eax+36], dl
  00276	8a 51 25	 mov	 dl, BYTE PTR [ecx+37]
  00279	84 d2		 test	 dl, dl
  0027b	0f 84 fa 00 00
	00		 je	 $LN59@encodeStri
  00281	80 f2 ec	 xor	 dl, -20			; ffffffecH
  00284	88 50 25	 mov	 BYTE PTR [eax+37], dl
  00287	8a 51 26	 mov	 dl, BYTE PTR [ecx+38]
  0028a	84 d2		 test	 dl, dl
  0028c	0f 84 e1 00 00
	00		 je	 $LN58@encodeStri
  00292	32 d3		 xor	 dl, bl
  00294	88 50 26	 mov	 BYTE PTR [eax+38], dl
  00297	8a 51 27	 mov	 dl, BYTE PTR [ecx+39]
  0029a	84 d2		 test	 dl, dl
  0029c	0f 84 c8 00 00
	00		 je	 $LN57@encodeStri
  002a2	80 f2 ea	 xor	 dl, -22			; ffffffeaH
  002a5	88 50 27	 mov	 BYTE PTR [eax+39], dl
  002a8	8a 51 28	 mov	 dl, BYTE PTR [ecx+40]
  002ab	84 d2		 test	 dl, dl
  002ad	0f 84 ae 00 00
	00		 je	 $LN56@encodeStri
  002b3	80 f2 ed	 xor	 dl, -19			; ffffffedH
  002b6	88 50 28	 mov	 BYTE PTR [eax+40], dl
  002b9	8a 51 29	 mov	 dl, BYTE PTR [ecx+41]
  002bc	84 d2		 test	 dl, dl
  002be	0f 84 94 00 00
	00		 je	 $LN55@encodeStri
  002c4	80 f2 ec	 xor	 dl, -20			; ffffffecH
  002c7	88 50 29	 mov	 BYTE PTR [eax+41], dl
  002ca	8a 51 2a	 mov	 dl, BYTE PTR [ecx+42]
  002cd	84 d2		 test	 dl, dl
  002cf	74 7f		 je	 SHORT $LN54@encodeStri
  002d1	32 d3		 xor	 dl, bl
  002d3	88 50 2a	 mov	 BYTE PTR [eax+42], dl
  002d6	8a 51 2b	 mov	 dl, BYTE PTR [ecx+43]
  002d9	84 d2		 test	 dl, dl
  002db	74 6a		 je	 SHORT $LN53@encodeStri
  002dd	80 f2 ea	 xor	 dl, -22			; ffffffeaH
  002e0	88 50 2b	 mov	 BYTE PTR [eax+43], dl
  002e3	8a 51 2c	 mov	 dl, BYTE PTR [ecx+44]
  002e6	84 d2		 test	 dl, dl
  002e8	74 54		 je	 SHORT $LN52@encodeStri
  002ea	80 f2 ed	 xor	 dl, -19			; ffffffedH
  002ed	88 50 2c	 mov	 BYTE PTR [eax+44], dl
  002f0	8a 51 2d	 mov	 dl, BYTE PTR [ecx+45]
  002f3	84 d2		 test	 dl, dl
  002f5	74 3e		 je	 SHORT $LN51@encodeStri
  002f7	80 f2 ec	 xor	 dl, -20			; ffffffecH
  002fa	88 50 2d	 mov	 BYTE PTR [eax+45], dl
  002fd	8a 51 2e	 mov	 dl, BYTE PTR [ecx+46]
  00300	84 d2		 test	 dl, dl
  00302	74 29		 je	 SHORT $LN50@encodeStri
  00304	32 d3		 xor	 dl, bl
  00306	88 50 2e	 mov	 BYTE PTR [eax+46], dl
  00309	8a 51 2f	 mov	 dl, BYTE PTR [ecx+47]
  0030c	84 d2		 test	 dl, dl
  0030e	74 14		 je	 SHORT $LN49@encodeStri
  00310	80 f2 ea	 xor	 dl, -22			; ffffffeaH
  00313	88 50 2f	 mov	 BYTE PTR [eax+47], dl
  00316	8a 49 30	 mov	 cl, BYTE PTR [ecx+48]
  00319	80 f1 ed	 xor	 cl, -19			; ffffffedH
  0031c	88 48 30	 mov	 BYTE PTR [eax+48], cl
  0031f	e9 5d 01 00 00	 jmp	 $LN1@encodeStri
$LN49@encodeStri:
  00324	c6 40 2f ea	 mov	 BYTE PTR [eax+47], -22	; ffffffeaH
  00328	e9 54 01 00 00	 jmp	 $LN1@encodeStri
$LN50@encodeStri:
  0032d	88 58 2e	 mov	 BYTE PTR [eax+46], bl
  00330	e9 4c 01 00 00	 jmp	 $LN1@encodeStri
$LN51@encodeStri:
  00335	c6 40 2d ec	 mov	 BYTE PTR [eax+45], -20	; ffffffecH
  00339	e9 43 01 00 00	 jmp	 $LN1@encodeStri
$LN52@encodeStri:
  0033e	c6 40 2c ed	 mov	 BYTE PTR [eax+44], -19	; ffffffedH
  00342	e9 3a 01 00 00	 jmp	 $LN1@encodeStri
$LN53@encodeStri:
  00347	c6 40 2b ea	 mov	 BYTE PTR [eax+43], -22	; ffffffeaH
  0034b	e9 31 01 00 00	 jmp	 $LN1@encodeStri
$LN54@encodeStri:
  00350	88 58 2a	 mov	 BYTE PTR [eax+42], bl
  00353	e9 29 01 00 00	 jmp	 $LN1@encodeStri
$LN55@encodeStri:
  00358	c6 40 29 ec	 mov	 BYTE PTR [eax+41], -20	; ffffffecH
  0035c	e9 20 01 00 00	 jmp	 $LN1@encodeStri
$LN56@encodeStri:
  00361	c6 40 28 ed	 mov	 BYTE PTR [eax+40], -19	; ffffffedH
  00365	e9 17 01 00 00	 jmp	 $LN1@encodeStri
$LN57@encodeStri:
  0036a	c6 40 27 ea	 mov	 BYTE PTR [eax+39], -22	; ffffffeaH
  0036e	e9 0e 01 00 00	 jmp	 $LN1@encodeStri
$LN58@encodeStri:
  00373	88 58 26	 mov	 BYTE PTR [eax+38], bl
  00376	e9 06 01 00 00	 jmp	 $LN1@encodeStri
$LN59@encodeStri:
  0037b	c6 40 25 ec	 mov	 BYTE PTR [eax+37], -20	; ffffffecH
  0037f	e9 fd 00 00 00	 jmp	 $LN1@encodeStri
$LN60@encodeStri:
  00384	c6 40 24 ed	 mov	 BYTE PTR [eax+36], -19	; ffffffedH
  00388	e9 f4 00 00 00	 jmp	 $LN1@encodeStri
$LN61@encodeStri:
  0038d	c6 40 23 ea	 mov	 BYTE PTR [eax+35], -22	; ffffffeaH
  00391	e9 eb 00 00 00	 jmp	 $LN1@encodeStri
$LN62@encodeStri:
  00396	88 58 22	 mov	 BYTE PTR [eax+34], bl
  00399	e9 e3 00 00 00	 jmp	 $LN1@encodeStri
$LN63@encodeStri:
  0039e	c6 40 21 ec	 mov	 BYTE PTR [eax+33], -20	; ffffffecH
  003a2	e9 da 00 00 00	 jmp	 $LN1@encodeStri
$LN64@encodeStri:
  003a7	c6 40 20 ed	 mov	 BYTE PTR [eax+32], -19	; ffffffedH
  003ab	e9 d1 00 00 00	 jmp	 $LN1@encodeStri
$LN65@encodeStri:
  003b0	c6 40 1f ea	 mov	 BYTE PTR [eax+31], -22	; ffffffeaH
  003b4	e9 c8 00 00 00	 jmp	 $LN1@encodeStri
$LN66@encodeStri:
  003b9	88 58 1e	 mov	 BYTE PTR [eax+30], bl
  003bc	e9 c0 00 00 00	 jmp	 $LN1@encodeStri
$LN67@encodeStri:
  003c1	c6 40 1d ec	 mov	 BYTE PTR [eax+29], -20	; ffffffecH
  003c5	e9 b7 00 00 00	 jmp	 $LN1@encodeStri
$LN68@encodeStri:
  003ca	c6 40 1c ed	 mov	 BYTE PTR [eax+28], -19	; ffffffedH
  003ce	e9 ae 00 00 00	 jmp	 $LN1@encodeStri
$LN69@encodeStri:
  003d3	c6 40 1b ea	 mov	 BYTE PTR [eax+27], -22	; ffffffeaH
  003d7	e9 a5 00 00 00	 jmp	 $LN1@encodeStri
$LN70@encodeStri:
  003dc	88 58 1a	 mov	 BYTE PTR [eax+26], bl
  003df	e9 9d 00 00 00	 jmp	 $LN1@encodeStri
$LN71@encodeStri:
  003e4	c6 40 19 ec	 mov	 BYTE PTR [eax+25], -20	; ffffffecH
  003e8	e9 94 00 00 00	 jmp	 $LN1@encodeStri
$LN72@encodeStri:
  003ed	c6 40 18 ed	 mov	 BYTE PTR [eax+24], -19	; ffffffedH
  003f1	e9 8b 00 00 00	 jmp	 $LN1@encodeStri
$LN73@encodeStri:
  003f6	c6 40 17 ea	 mov	 BYTE PTR [eax+23], -22	; ffffffeaH
  003fa	e9 82 00 00 00	 jmp	 $LN1@encodeStri
$LN74@encodeStri:
  003ff	88 58 16	 mov	 BYTE PTR [eax+22], bl
  00402	eb 7d		 jmp	 SHORT $LN1@encodeStri
$LN75@encodeStri:
  00404	c6 40 15 ec	 mov	 BYTE PTR [eax+21], -20	; ffffffecH
  00408	eb 77		 jmp	 SHORT $LN1@encodeStri
$LN76@encodeStri:
  0040a	c6 40 14 ed	 mov	 BYTE PTR [eax+20], -19	; ffffffedH
  0040e	eb 71		 jmp	 SHORT $LN1@encodeStri
$LN77@encodeStri:
  00410	c6 40 13 ea	 mov	 BYTE PTR [eax+19], -22	; ffffffeaH
  00414	eb 6b		 jmp	 SHORT $LN1@encodeStri
$LN78@encodeStri:
  00416	88 58 12	 mov	 BYTE PTR [eax+18], bl
  00419	eb 66		 jmp	 SHORT $LN1@encodeStri
$LN79@encodeStri:
  0041b	c6 40 11 ec	 mov	 BYTE PTR [eax+17], -20	; ffffffecH
  0041f	eb 60		 jmp	 SHORT $LN1@encodeStri
$LN80@encodeStri:
  00421	c6 40 10 ed	 mov	 BYTE PTR [eax+16], -19	; ffffffedH
  00425	eb 5a		 jmp	 SHORT $LN1@encodeStri
$LN81@encodeStri:
  00427	c6 40 0f ea	 mov	 BYTE PTR [eax+15], -22	; ffffffeaH
  0042b	eb 54		 jmp	 SHORT $LN1@encodeStri
$LN82@encodeStri:
  0042d	88 58 0e	 mov	 BYTE PTR [eax+14], bl
  00430	eb 4f		 jmp	 SHORT $LN1@encodeStri
$LN83@encodeStri:
  00432	c6 40 0d ec	 mov	 BYTE PTR [eax+13], -20	; ffffffecH
  00436	eb 49		 jmp	 SHORT $LN1@encodeStri
$LN84@encodeStri:
  00438	c6 40 0c ed	 mov	 BYTE PTR [eax+12], -19	; ffffffedH
  0043c	eb 43		 jmp	 SHORT $LN1@encodeStri
$LN85@encodeStri:
  0043e	c6 40 0b ea	 mov	 BYTE PTR [eax+11], -22	; ffffffeaH
  00442	eb 3d		 jmp	 SHORT $LN1@encodeStri
$LN86@encodeStri:
  00444	88 58 0a	 mov	 BYTE PTR [eax+10], bl
  00447	eb 38		 jmp	 SHORT $LN1@encodeStri
$LN87@encodeStri:
  00449	c6 40 09 ec	 mov	 BYTE PTR [eax+9], -20	; ffffffecH
  0044d	eb 32		 jmp	 SHORT $LN1@encodeStri
$LN88@encodeStri:
  0044f	c6 40 08 ed	 mov	 BYTE PTR [eax+8], -19	; ffffffedH
  00453	eb 2c		 jmp	 SHORT $LN1@encodeStri
$LN89@encodeStri:
  00455	c6 40 07 ea	 mov	 BYTE PTR [eax+7], -22	; ffffffeaH
  00459	eb 26		 jmp	 SHORT $LN1@encodeStri
$LN90@encodeStri:
  0045b	88 58 06	 mov	 BYTE PTR [eax+6], bl
  0045e	eb 21		 jmp	 SHORT $LN1@encodeStri
$LN91@encodeStri:
  00460	c6 40 05 ec	 mov	 BYTE PTR [eax+5], -20	; ffffffecH
  00464	eb 1b		 jmp	 SHORT $LN1@encodeStri
$LN92@encodeStri:
  00466	c6 40 04 ed	 mov	 BYTE PTR [eax+4], -19	; ffffffedH
  0046a	eb 15		 jmp	 SHORT $LN1@encodeStri
$LN93@encodeStri:
  0046c	c6 40 03 ea	 mov	 BYTE PTR [eax+3], -22	; ffffffeaH
  00470	eb 0f		 jmp	 SHORT $LN1@encodeStri
$LN94@encodeStri:
  00472	c6 40 02 eb	 mov	 BYTE PTR [eax+2], -21	; ffffffebH
  00476	eb 09		 jmp	 SHORT $LN1@encodeStri
$LN95@encodeStri:
  00478	c6 40 01 ec	 mov	 BYTE PTR [eax+1], -20	; ffffffecH
  0047c	eb 03		 jmp	 SHORT $LN1@encodeStri
$LN96@encodeStri:
  0047e	c6 00 ed	 mov	 BYTE PTR [eax], -19	; ffffffedH
$LN1@encodeStri:
  00481	6a 07		 push	 7
  00483	5a		 pop	 edx
  00484	8b c8		 mov	 ecx, eax
  00486	c6 40 1c 00	 mov	 BYTE PTR [eax+28], 0
  0048a	5b		 pop	 ebx
$LL104@encodeStri:
  0048b	81 31 ed ec eb
	ea		 xor	 DWORD PTR [ecx], -353637139 ; eaebecedH
  00491	83 c1 04	 add	 ecx, 4
  00494	4a		 dec	 edx
  00495	75 f4		 jne	 SHORT $LL104@encodeStri

; 217  : 		return e;
; 218  : 	}

  00497	5d		 pop	 ebp
  00498	c2 08 00	 ret	 8
??$encodeString@$0BN@@ioINILoader_e@@AAEPADAAY0BN@$$CBDPAD@Z ENDP ; ioINILoader_e::encodeString<29>
_TEXT	ENDS
PUBLIC	??$?0AAHAAH@?$_Pair_base@$$CBHH@std@@QAE@AAH0@Z	; std::_Pair_base<int const ,int>::_Pair_base<int const ,int><int &,int &>
; Function compile flags: /Ogsp
; File c:\program files (x86)\microsoft visual studio 10.0\vc\include\utility
;	COMDAT ??$?0AAHAAH@?$_Pair_base@$$CBHH@std@@QAE@AAH0@Z
_TEXT	SEGMENT
__Val1$ = 8						; size = 4
__Val2$ = 12						; size = 4
??$?0AAHAAH@?$_Pair_base@$$CBHH@std@@QAE@AAH0@Z PROC	; std::_Pair_base<int const ,int>::_Pair_base<int const ,int><int &,int &>, COMDAT
; _this$ = ecx

; 163  : 		{	// construct from moved values

  00000	55		 push	 ebp
  00001	8b ec		 mov	 ebp, esp
  00003	8b c1		 mov	 eax, ecx
  00005	8b 4d 08	 mov	 ecx, DWORD PTR __Val1$[ebp]
  00008	8b 09		 mov	 ecx, DWORD PTR [ecx]
  0000a	89 08		 mov	 DWORD PTR [eax], ecx
  0000c	8b 4d 0c	 mov	 ecx, DWORD PTR __Val2$[ebp]
  0000f	8b 09		 mov	 ecx, DWORD PTR [ecx]
  00011	89 48 04	 mov	 DWORD PTR [eax+4], ecx

; 164  : 		}

  00014	5d		 pop	 ebp
  00015	c2 08 00	 ret	 8
??$?0AAHAAH@?$_Pair_base@$$CBHH@std@@QAE@AAH0@Z ENDP	; std::_Pair_base<int const ,int>::_Pair_base<int const ,int><int &,int &>
_TEXT	ENDS
PUBLIC	?_Buynode@?$_Tree_val@V?$_Tmap_traits@HHU?$less@H@std@@V?$allocator@U?$pair@$$CBHH@std@@@2@$0A@@std@@@std@@QAEPAU_Node@?$_Tree_nod@V?$_Tmap_traits@HHU?$less@H@std@@V?$allocator@U?$pair@$$CBHH@std@@@2@$0A@@std@@@2@XZ ; std::_Tree_val<std::_Tmap_traits<int,int,std::less<int>,std::allocator<std::pair<int const ,int> >,0> >::_Buynode
; Function compile flags: /Ogsp
; File c:\program files (x86)\microsoft visual studio 10.0\vc\include\xtree
;	COMDAT ?_Buynode@?$_Tree_val@V?$_Tmap_traits@HHU?$less@H@std@@V?$allocator@U?$pair@$$CBHH@std@@@2@$0A@@std@@@std@@QAEPAU_Node@?$_Tree_nod@V?$_Tmap_traits@HHU?$less@H@std@@V?$allocator@U?$pair@$$CBHH@std@@@2@$0A@@std@@@2@XZ
_TEXT	SEGMENT
$T508548 = -16						; size = 12
$T508525 = -4						; size = 4
?_Buynode@?$_Tree_val@V?$_Tmap_traits@HHU?$less@H@std@@V?$allocator@U?$pair@$$CBHH@std@@@2@$0A@@std@@@std@@QAEPAU_Node@?$_Tree_nod@V?$_Tmap_traits@HHU?$less@H@std@@V?$allocator@U?$pair@$$CBHH@std@@@2@$0A@@std@@@2@XZ PROC ; std::_Tree_val<std::_Tmap_traits<int,int,std::less<int>,std::allocator<std::pair<int const ,int> >,0> >::_Buynode, COMDAT
; _this$ = ecx

; 559  : 		{	// allocate a node

  00000	55		 push	 ebp
  00001	8b ec		 mov	 ebp, esp
  00003	83 ec 10	 sub	 esp, 16			; 00000010H
  00006	56		 push	 esi

; 560  : 		_Nodeptr _Wherenode = this->_Alnod.allocate(1);

  00007	6a 18		 push	 24			; 00000018H
  00009	8b f1		 mov	 esi, ecx
  0000b	e8 00 00 00 00	 call	 ??2@YAPAXI@Z		; operator new
  00010	59		 pop	 ecx
  00011	33 c9		 xor	 ecx, ecx
  00013	3b c1		 cmp	 eax, ecx
  00015	74 18		 je	 SHORT $LN5@Buynode

; 561  : 
; 562  : 		this->_Left(_Wherenode) = this->_Myhead;

  00017	8b 56 04	 mov	 edx, DWORD PTR [esi+4]
  0001a	89 10		 mov	 DWORD PTR [eax], edx

; 563  : 		this->_Parent(_Wherenode) = this->_Myhead;

  0001c	8b 56 04	 mov	 edx, DWORD PTR [esi+4]
  0001f	89 50 04	 mov	 DWORD PTR [eax+4], edx

; 564  : 		this->_Right(_Wherenode) = this->_Myhead;

  00022	8b 56 04	 mov	 edx, DWORD PTR [esi+4]
  00025	89 50 08	 mov	 DWORD PTR [eax+8], edx

; 565  : 		this->_Color(_Wherenode) = this->_Red;

  00028	66 89 48 14	 mov	 WORD PTR [eax+20], cx
  0002c	5e		 pop	 esi

; 566  : 		this->_Isnil(_Wherenode) = false;
; 567  : 		return (_Wherenode);
; 568  : 		}

  0002d	c9		 leave
  0002e	c3		 ret	 0

; 560  : 		_Nodeptr _Wherenode = this->_Alnod.allocate(1);

$LN5@Buynode:
  0002f	8d 45 fc	 lea	 eax, DWORD PTR $T508525[ebp]
  00032	89 4d fc	 mov	 DWORD PTR $T508525[ebp], ecx
  00035	50		 push	 eax
  00036	8d 4d f0	 lea	 ecx, DWORD PTR $T508548[ebp]
  00039	ff 15 00 00 00
	00		 call	 DWORD PTR __imp_??0exception@std@@QAE@ABQBD@Z
  0003f	68 00 00 00 00	 push	 OFFSET __TI2?AVbad_alloc@std@@
  00044	8d 45 f0	 lea	 eax, DWORD PTR $T508548[ebp]
  00047	50		 push	 eax
  00048	c7 45 f0 00 00
	00 00		 mov	 DWORD PTR $T508548[ebp], OFFSET ??_7bad_alloc@std@@6B@
  0004f	e8 00 00 00 00	 call	 __CxxThrowException@8
$LN27@Buynode:
$LN26@Buynode:
  00054	cc		 int	 3
?_Buynode@?$_Tree_val@V?$_Tmap_traits@HHU?$less@H@std@@V?$allocator@U?$pair@$$CBHH@std@@@2@$0A@@std@@@std@@QAEPAU_Node@?$_Tree_nod@V?$_Tmap_traits@HHU?$less@H@std@@V?$allocator@U?$pair@$$CBHH@std@@@2@$0A@@std@@@2@XZ ENDP ; std::_Tree_val<std::_Tmap_traits<int,int,std::less<int>,std::allocator<std::pair<int const ,int> >,0> >::_Buynode
_TEXT	ENDS
PUBLIC	??$?0AAV?$_Tree_iterator@V?$_Tree_val@V?$_Tmap_traits@HHU?$less@H@std@@V?$allocator@U?$pair@$$CBHH@std@@@2@$0A@@std@@@std@@@std@@_N@?$_Pair_base@V?$_Tree_iterator@V?$_Tree_val@V?$_Tmap_traits@HHU?$less@H@std@@V?$allocator@U?$pair@$$CBHH@std@@@2@$0A@@std@@@std@@@std@@_N@std@@QAE@AAV?$_Tree_iterator@V?$_Tree_val@V?$_Tmap_traits@HHU?$less@H@std@@V?$allocator@U?$pair@$$CBHH@std@@@2@$0A@@std@@@std@@@1@$$QA_N@Z ; std::_Pair_base<std::_Tree_iterator<std::_Tree_val<std::_Tmap_traits<int,int,std::less<int>,std::allocator<std::pair<int const ,int> >,0> > >,bool>::_Pair_base<std::_Tree_iterator<std::_Tree_val<std::_Tmap_traits<int,int,std::less<int>,std::allocator<std::pair<int const ,int> >,0> > >,bool><std::_Tree_iterator<std::_Tree_val<std::_Tmap_traits<int,int,std::less<int>,std::allocator<std::pair<int const ,int> >,0> > > &,bool>
; Function compile flags: /Ogsp
; File c:\program files (x86)\microsoft visual studio 10.0\vc\include\utility
;	COMDAT ??$?0AAV?$_Tree_iterator@V?$_Tree_val@V?$_Tmap_traits@HHU?$less@H@std@@V?$allocator@U?$pair@$$CBHH@std@@@2@$0A@@std@@@std@@@std@@_N@?$_Pair_base@V?$_Tree_iterator@V?$_Tree_val@V?$_Tmap_traits@HHU?$less@H@std@@V?$allocator@U?$pair@$$CBHH@std@@@2@$0A@@std@@@std@@@std@@_N@std@@QAE@AAV?$_Tree_iterator@V?$_Tree_val@V?$_Tmap_traits@HHU?$less@H@std@@V?$allocator@U?$pair@$$CBHH@std@@@2@$0A@@std@@@std@@@1@$$QA_N@Z
_TEXT	SEGMENT
__Val1$ = 8						; size = 4
__Val2$ = 12						; size = 4
??$?0AAV?$_Tree_iterator@V?$_Tree_val@V?$_Tmap_traits@HHU?$less@H@std@@V?$allocator@U?$pair@$$CBHH@std@@@2@$0A@@std@@@std@@@std@@_N@?$_Pair_base@V?$_Tree_iterator@V?$_Tree_val@V?$_Tmap_traits@HHU?$less@H@std@@V?$allocator@U?$pair@$$CBHH@std@@@2@$0A@@std@@@std@@@std@@_N@std@@QAE@AAV?$_Tree_iterator@V?$_Tree_val@V?$_Tmap_traits@HHU?$less@H@std@@V?$allocator@U?$pair@$$CBHH@std@@@2@$0A@@std@@@std@@@1@$$QA_N@Z PROC ; std::_Pair_base<std::_Tree_iterator<std::_Tree_val<std::_Tmap_traits<int,int,std::less<int>,std::allocator<std::pair<int const ,int> >,0> > >,bool>::_Pair_base<std::_Tree_iterator<std::_Tree_val<std::_Tmap_traits<int,int,std::less<int>,std::allocator<std::pair<int const ,int> >,0> > >,bool><std::_Tree_iterator<std::_Tree_val<std::_Tmap_traits<int,int,std::less<int>,std::allocator<std::pair<int const ,int> >,0> > > &,bool>, COMDAT
; _this$ = ecx

; 163  : 		{	// construct from moved values

  00000	55		 push	 ebp
  00001	8b ec		 mov	 ebp, esp
  00003	8b c1		 mov	 eax, ecx
  00005	8b 4d 08	 mov	 ecx, DWORD PTR __Val1$[ebp]
  00008	8b 09		 mov	 ecx, DWORD PTR [ecx]
  0000a	89 08		 mov	 DWORD PTR [eax], ecx
  0000c	8b 4d 0c	 mov	 ecx, DWORD PTR __Val2$[ebp]
  0000f	8a 09		 mov	 cl, BYTE PTR [ecx]
  00011	88 48 04	 mov	 BYTE PTR [eax+4], cl

; 164  : 		}

  00014	5d		 pop	 ebp
  00015	c2 08 00	 ret	 8
??$?0AAV?$_Tree_iterator@V?$_Tree_val@V?$_Tmap_traits@HHU?$less@H@std@@V?$allocator@U?$pair@$$CBHH@std@@@2@$0A@@std@@@std@@@std@@_N@?$_Pair_base@V?$_Tree_iterator@V?$_Tree_val@V?$_Tmap_traits@HHU?$less@H@std@@V?$allocator@U?$pair@$$CBHH@std@@@2@$0A@@std@@@std@@@std@@_N@std@@QAE@AAV?$_Tree_iterator@V?$_Tree_val@V?$_Tmap_traits@HHU?$less@H@std@@V?$allocator@U?$pair@$$CBHH@std@@@2@$0A@@std@@@std@@@1@$$QA_N@Z ENDP ; std::_Pair_base<std::_Tree_iterator<std::_Tree_val<std::_Tmap_traits<int,int,std::less<int>,std::allocator<std::pair<int const ,int> >,0> > >,bool>::_Pair_base<std::_Tree_iterator<std::_Tree_val<std::_Tmap_traits<int,int,std::less<int>,std::allocator<std::pair<int const ,int> >,0> > >,bool><std::_Tree_iterator<std::_Tree_val<std::_Tmap_traits<int,int,std::less<int>,std::allocator<std::pair<int const ,int> >,0> > > &,bool>
_TEXT	ENDS
PUBLIC	??0?$_Pair_base@$$CBHH@std@@QAE@$$QBH$$QAH@Z	; std::_Pair_base<int const ,int>::_Pair_base<int const ,int>
; Function compile flags: /Ogsp
;	COMDAT ??0?$_Pair_base@$$CBHH@std@@QAE@$$QBH$$QAH@Z
_TEXT	SEGMENT
__Val1$ = 8						; size = 4
__Val2$ = 12						; size = 4
??0?$_Pair_base@$$CBHH@std@@QAE@$$QBH$$QAH@Z PROC	; std::_Pair_base<int const ,int>::_Pair_base<int const ,int>, COMDAT
; _this$ = ecx

; 145  : 		{	// construct from specified values

  00000	55		 push	 ebp
  00001	8b ec		 mov	 ebp, esp
  00003	8b c1		 mov	 eax, ecx
  00005	8b 4d 08	 mov	 ecx, DWORD PTR __Val1$[ebp]
  00008	8b 09		 mov	 ecx, DWORD PTR [ecx]
  0000a	89 08		 mov	 DWORD PTR [eax], ecx
  0000c	8b 4d 0c	 mov	 ecx, DWORD PTR __Val2$[ebp]
  0000f	8b 09		 mov	 ecx, DWORD PTR [ecx]
  00011	89 48 04	 mov	 DWORD PTR [eax+4], ecx

; 146  : 		}

  00014	5d		 pop	 ebp
  00015	c2 08 00	 ret	 8
??0?$_Pair_base@$$CBHH@std@@QAE@$$QBH$$QAH@Z ENDP	; std::_Pair_base<int const ,int>::_Pair_base<int const ,int>
_TEXT	ENDS
PUBLIC	??0EXTRAITEMSLOT@@QAE@XZ			; EXTRAITEMSLOT::EXTRAITEMSLOT
EXTRN	__imp_??0ioHashString@@QAE@XZ:PROC
;	COMDAT xdata$x
; File d:\lost saga for developer\youtube\tutorial\source\src\lsclient\iouserextraitem.h
xdata$x	SEGMENT
__unwindtable$??0EXTRAITEMSLOT@@QAE@XZ DD 0ffffffffH
	DD	FLAT:__unwindfunclet$??0EXTRAITEMSLOT@@QAE@XZ$0
__ehfuncinfo$??0EXTRAITEMSLOT@@QAE@XZ DD 019930522H
	DD	01H
	DD	FLAT:__unwindtable$??0EXTRAITEMSLOT@@QAE@XZ
	DD	2 DUP(00H)
	DD	2 DUP(00H)
	DD	00H
	DD	01H
; Function compile flags: /Ogsp
xdata$x	ENDS
;	COMDAT ??0EXTRAITEMSLOT@@QAE@XZ
_TEXT	SEGMENT
_this$ = -16						; size = 4
__$EHRec$ = -12						; size = 12
??0EXTRAITEMSLOT@@QAE@XZ PROC				; EXTRAITEMSLOT::EXTRAITEMSLOT, COMDAT
; _this$ = ecx

; 43   : 	EXTRAITEMSLOT()

  00000	6a 04		 push	 4
  00002	b8 00 00 00 00	 mov	 eax, __ehhandler$??0EXTRAITEMSLOT@@QAE@XZ
  00007	e8 00 00 00 00	 call	 __EH_prolog3
  0000c	8b f1		 mov	 esi, ecx
  0000e	89 75 f0	 mov	 DWORD PTR _this$[ebp], esi
  00011	8b 3d 00 00 00
	00		 mov	 edi, DWORD PTR __imp_??0ioHashString@@QAE@XZ
  00017	8d 4e 28	 lea	 ecx, DWORD PTR [esi+40]
  0001a	ff d7		 call	 edi
  0001c	83 65 fc 00	 and	 DWORD PTR __$EHRec$[ebp+8], 0
  00020	8d 4e 38	 lea	 ecx, DWORD PTR [esi+56]
  00023	ff d7		 call	 edi

; 44   : 	{
; 45   : 		Init();

  00025	8b ce		 mov	 ecx, esi
  00027	e8 00 00 00 00	 call	 ?Init@EXTRAITEMSLOT@@QAEXXZ ; EXTRAITEMSLOT::Init

; 46   : 	}

  0002c	8b c6		 mov	 eax, esi
  0002e	e8 00 00 00 00	 call	 __EH_epilog3
  00033	c3		 ret	 0
_TEXT	ENDS
;	COMDAT text$x
text$x	SEGMENT
__unwindfunclet$??0EXTRAITEMSLOT@@QAE@XZ$0:
  00000	8b 4d f0	 mov	 ecx, DWORD PTR _this$[ebp]
  00003	83 c1 28	 add	 ecx, 40			; 00000028H
  00006	ff 25 00 00 00
	00		 jmp	 DWORD PTR __imp_??1ioHashString@@QAE@XZ
__ehhandler$??0EXTRAITEMSLOT@@QAE@XZ:
  0000c	8b 54 24 08	 mov	 edx, DWORD PTR [esp+8]
  00010	8d 42 0c	 lea	 eax, DWORD PTR [edx+12]
  00013	8b 4a ec	 mov	 ecx, DWORD PTR [edx-20]
  00016	33 c8		 xor	 ecx, eax
  00018	e8 00 00 00 00	 call	 @__security_check_cookie@4
  0001d	b8 00 00 00 00	 mov	 eax, OFFSET __ehfuncinfo$??0EXTRAITEMSLOT@@QAE@XZ
  00022	e9 00 00 00 00	 jmp	 ___CxxFrameHandler3
text$x	ENDS
??0EXTRAITEMSLOT@@QAE@XZ ENDP				; EXTRAITEMSLOT::EXTRAITEMSLOT
PUBLIC	??1?$_Tree_val@V?$_Tmap_traits@HHU?$less@H@std@@V?$allocator@U?$pair@$$CBHH@std@@@2@$0A@@std@@@std@@QAE@XZ ; std::_Tree_val<std::_Tmap_traits<int,int,std::less<int>,std::allocator<std::pair<int const ,int> >,0> >::~_Tree_val<std::_Tmap_traits<int,int,std::less<int>,std::allocator<std::pair<int const ,int> >,0> >
; Function compile flags: /Ogsp
; File c:\program files (x86)\microsoft visual studio 10.0\vc\include\xtree
;	COMDAT ??1?$_Tree_val@V?$_Tmap_traits@HHU?$less@H@std@@V?$allocator@U?$pair@$$CBHH@std@@@2@$0A@@std@@@std@@QAE@XZ
_TEXT	SEGMENT
??1?$_Tree_val@V?$_Tmap_traits@HHU?$less@H@std@@V?$allocator@U?$pair@$$CBHH@std@@@2@$0A@@std@@@std@@QAE@XZ PROC ; std::_Tree_val<std::_Tmap_traits<int,int,std::less<int>,std::allocator<std::pair<int const ,int> >,0> >::~_Tree_val<std::_Tmap_traits<int,int,std::less<int>,std::allocator<std::pair<int const ,int> >,0> >, COMDAT
; _this$ = ecx

; 555  : 		this->_Alnod.deallocate(this->_Myhead, 1);

  00000	ff 71 04	 push	 DWORD PTR [ecx+4]
  00003	e8 00 00 00 00	 call	 ??3@YAXPAX@Z		; operator delete
  00008	59		 pop	 ecx

; 556  : 		}

  00009	c3		 ret	 0
??1?$_Tree_val@V?$_Tmap_traits@HHU?$less@H@std@@V?$allocator@U?$pair@$$CBHH@std@@@2@$0A@@std@@@std@@QAE@XZ ENDP ; std::_Tree_val<std::_Tmap_traits<int,int,std::less<int>,std::allocator<std::pair<int const ,int> >,0> >::~_Tree_val<std::_Tmap_traits<int,int,std::less<int>,std::allocator<std::pair<int const ,int> >,0> >
_TEXT	ENDS
PUBLIC	?_Lmost@?$_Tree@V?$_Tmap_traits@HHU?$less@H@std@@V?$allocator@U?$pair@$$CBHH@std@@@2@$0A@@std@@@std@@IBEAAPAU_Node@?$_Tree_nod@V?$_Tmap_traits@HHU?$less@H@std@@V?$allocator@U?$pair@$$CBHH@std@@@2@$0A@@std@@@2@XZ ; std::_Tree<std::_Tmap_traits<int,int,std::less<int>,std::allocator<std::pair<int const ,int> >,0> >::_Lmost
; Function compile flags: /Ogsp
;	COMDAT ?_Lmost@?$_Tree@V?$_Tmap_traits@HHU?$less@H@std@@V?$allocator@U?$pair@$$CBHH@std@@@2@$0A@@std@@@std@@IBEAAPAU_Node@?$_Tree_nod@V?$_Tmap_traits@HHU?$less@H@std@@V?$allocator@U?$pair@$$CBHH@std@@@2@$0A@@std@@@2@XZ
_TEXT	SEGMENT
?_Lmost@?$_Tree@V?$_Tmap_traits@HHU?$less@H@std@@V?$allocator@U?$pair@$$CBHH@std@@@2@$0A@@std@@@std@@IBEAAPAU_Node@?$_Tree_nod@V?$_Tmap_traits@HHU?$less@H@std@@V?$allocator@U?$pair@$$CBHH@std@@@2@$0A@@std@@@2@XZ PROC ; std::_Tree<std::_Tmap_traits<int,int,std::less<int>,std::allocator<std::pair<int const ,int> >,0> >::_Lmost, COMDAT
; _this$ = ecx

; 1759 : 		return (this->_Left(this->_Myhead));

  00000	8b 41 04	 mov	 eax, DWORD PTR [ecx+4]

; 1760 : 		}

  00003	c3		 ret	 0
?_Lmost@?$_Tree@V?$_Tmap_traits@HHU?$less@H@std@@V?$allocator@U?$pair@$$CBHH@std@@@2@$0A@@std@@@std@@IBEAAPAU_Node@?$_Tree_nod@V?$_Tmap_traits@HHU?$less@H@std@@V?$allocator@U?$pair@$$CBHH@std@@@2@$0A@@std@@@2@XZ ENDP ; std::_Tree<std::_Tmap_traits<int,int,std::less<int>,std::allocator<std::pair<int const ,int> >,0> >::_Lmost
_TEXT	ENDS
PUBLIC	?_Rmost@?$_Tree@V?$_Tmap_traits@HHU?$less@H@std@@V?$allocator@U?$pair@$$CBHH@std@@@2@$0A@@std@@@std@@IBEAAPAU_Node@?$_Tree_nod@V?$_Tmap_traits@HHU?$less@H@std@@V?$allocator@U?$pair@$$CBHH@std@@@2@$0A@@std@@@2@XZ ; std::_Tree<std::_Tmap_traits<int,int,std::less<int>,std::allocator<std::pair<int const ,int> >,0> >::_Rmost
; Function compile flags: /Ogsp
;	COMDAT ?_Rmost@?$_Tree@V?$_Tmap_traits@HHU?$less@H@std@@V?$allocator@U?$pair@$$CBHH@std@@@2@$0A@@std@@@std@@IBEAAPAU_Node@?$_Tree_nod@V?$_Tmap_traits@HHU?$less@H@std@@V?$allocator@U?$pair@$$CBHH@std@@@2@$0A@@std@@@2@XZ
_TEXT	SEGMENT
?_Rmost@?$_Tree@V?$_Tmap_traits@HHU?$less@H@std@@V?$allocator@U?$pair@$$CBHH@std@@@2@$0A@@std@@@std@@IBEAAPAU_Node@?$_Tree_nod@V?$_Tmap_traits@HHU?$less@H@std@@V?$allocator@U?$pair@$$CBHH@std@@@2@$0A@@std@@@2@XZ PROC ; std::_Tree<std::_Tmap_traits<int,int,std::less<int>,std::allocator<std::pair<int const ,int> >,0> >::_Rmost, COMDAT
; _this$ = ecx

; 1784 : 		return (this->_Right(this->_Myhead));

  00000	8b 41 04	 mov	 eax, DWORD PTR [ecx+4]
  00003	83 c0 08	 add	 eax, 8

; 1785 : 		}

  00006	c3		 ret	 0
?_Rmost@?$_Tree@V?$_Tmap_traits@HHU?$less@H@std@@V?$allocator@U?$pair@$$CBHH@std@@@2@$0A@@std@@@std@@IBEAAPAU_Node@?$_Tree_nod@V?$_Tmap_traits@HHU?$less@H@std@@V?$allocator@U?$pair@$$CBHH@std@@@2@$0A@@std@@@2@XZ ENDP ; std::_Tree<std::_Tmap_traits<int,int,std::less<int>,std::allocator<std::pair<int const ,int> >,0> >::_Rmost
_TEXT	ENDS
PUBLIC	?_Root@?$_Tree@V?$_Tmap_traits@HHU?$less@H@std@@V?$allocator@U?$pair@$$CBHH@std@@@2@$0A@@std@@@std@@IBEAAPAU_Node@?$_Tree_nod@V?$_Tmap_traits@HHU?$less@H@std@@V?$allocator@U?$pair@$$CBHH@std@@@2@$0A@@std@@@2@XZ ; std::_Tree<std::_Tmap_traits<int,int,std::less<int>,std::allocator<std::pair<int const ,int> >,0> >::_Root
; Function compile flags: /Ogsp
;	COMDAT ?_Root@?$_Tree@V?$_Tmap_traits@HHU?$less@H@std@@V?$allocator@U?$pair@$$CBHH@std@@@2@$0A@@std@@@std@@IBEAAPAU_Node@?$_Tree_nod@V?$_Tmap_traits@HHU?$less@H@std@@V?$allocator@U?$pair@$$CBHH@std@@@2@$0A@@std@@@2@XZ
_TEXT	SEGMENT
?_Root@?$_Tree@V?$_Tmap_traits@HHU?$less@H@std@@V?$allocator@U?$pair@$$CBHH@std@@@2@$0A@@std@@@std@@IBEAAPAU_Node@?$_Tree_nod@V?$_Tmap_traits@HHU?$less@H@std@@V?$allocator@U?$pair@$$CBHH@std@@@2@$0A@@std@@@2@XZ PROC ; std::_Tree<std::_Tmap_traits<int,int,std::less<int>,std::allocator<std::pair<int const ,int> >,0> >::_Root, COMDAT
; _this$ = ecx

; 1789 : 		return (this->_Parent(this->_Myhead));

  00000	8b 41 04	 mov	 eax, DWORD PTR [ecx+4]
  00003	83 c0 04	 add	 eax, 4

; 1790 : 		}

  00006	c3		 ret	 0
?_Root@?$_Tree@V?$_Tmap_traits@HHU?$less@H@std@@V?$allocator@U?$pair@$$CBHH@std@@@2@$0A@@std@@@std@@IBEAAPAU_Node@?$_Tree_nod@V?$_Tmap_traits@HHU?$less@H@std@@V?$allocator@U?$pair@$$CBHH@std@@@2@$0A@@std@@@2@XZ ENDP ; std::_Tree<std::_Tmap_traits<int,int,std::less<int>,std::allocator<std::pair<int const ,int> >,0> >::_Root
_TEXT	ENDS
PUBLIC	?_Rrotate@?$_Tree@V?$_Tmap_traits@HHU?$less@H@std@@V?$allocator@U?$pair@$$CBHH@std@@@2@$0A@@std@@@std@@IAEXPAU_Node@?$_Tree_nod@V?$_Tmap_traits@HHU?$less@H@std@@V?$allocator@U?$pair@$$CBHH@std@@@2@$0A@@std@@@2@@Z ; std::_Tree<std::_Tmap_traits<int,int,std::less<int>,std::allocator<std::pair<int const ,int> >,0> >::_Rrotate
; Function compile flags: /Ogsp
;	COMDAT ?_Rrotate@?$_Tree@V?$_Tmap_traits@HHU?$less@H@std@@V?$allocator@U?$pair@$$CBHH@std@@@2@$0A@@std@@@std@@IAEXPAU_Node@?$_Tree_nod@V?$_Tmap_traits@HHU?$less@H@std@@V?$allocator@U?$pair@$$CBHH@std@@@2@$0A@@std@@@2@@Z
_TEXT	SEGMENT
__Wherenode$ = 8					; size = 4
?_Rrotate@?$_Tree@V?$_Tmap_traits@HHU?$less@H@std@@V?$allocator@U?$pair@$$CBHH@std@@@2@$0A@@std@@@std@@IAEXPAU_Node@?$_Tree_nod@V?$_Tmap_traits@HHU?$less@H@std@@V?$allocator@U?$pair@$$CBHH@std@@@2@$0A@@std@@@2@@Z PROC ; std::_Tree<std::_Tmap_traits<int,int,std::less<int>,std::allocator<std::pair<int const ,int> >,0> >::_Rrotate, COMDAT
; _this$ = ecx

; 1793 : 		{	// promote left node to root of subtree

  00000	55		 push	 ebp
  00001	8b ec		 mov	 ebp, esp

; 1794 : 		_Nodeptr _Pnode = this->_Left(_Wherenode);

  00003	8b 55 08	 mov	 edx, DWORD PTR __Wherenode$[ebp]
  00006	8b 02		 mov	 eax, DWORD PTR [edx]
  00008	56		 push	 esi

; 1795 : 		this->_Left(_Wherenode) = this->_Right(_Pnode);

  00009	8b 70 08	 mov	 esi, DWORD PTR [eax+8]
  0000c	89 32		 mov	 DWORD PTR [edx], esi

; 1796 : 
; 1797 : 		if (!this->_Isnil(this->_Right(_Pnode)))

  0000e	8b 70 08	 mov	 esi, DWORD PTR [eax+8]
  00011	80 7e 15 00	 cmp	 BYTE PTR [esi+21], 0
  00015	75 03		 jne	 SHORT $LN5@Rrotate

; 1798 : 			this->_Parent(this->_Right(_Pnode)) = _Wherenode;

  00017	89 56 04	 mov	 DWORD PTR [esi+4], edx
$LN5@Rrotate:

; 1799 : 		this->_Parent(_Pnode) = this->_Parent(_Wherenode);

  0001a	8b 72 04	 mov	 esi, DWORD PTR [edx+4]
  0001d	89 70 04	 mov	 DWORD PTR [eax+4], esi

; 1800 : 
; 1801 : 		if (_Wherenode == _Root())

  00020	8b 49 04	 mov	 ecx, DWORD PTR [ecx+4]
  00023	5e		 pop	 esi
  00024	3b 51 04	 cmp	 edx, DWORD PTR [ecx+4]
  00027	75 05		 jne	 SHORT $LN4@Rrotate

; 1802 : 			_Root() = _Pnode;

  00029	89 41 04	 mov	 DWORD PTR [ecx+4], eax

; 1803 : 		else if (_Wherenode == this->_Right(this->_Parent(_Wherenode)))

  0002c	eb 0f		 jmp	 SHORT $LN1@Rrotate
$LN4@Rrotate:
  0002e	8b 4a 04	 mov	 ecx, DWORD PTR [edx+4]
  00031	3b 51 08	 cmp	 edx, DWORD PTR [ecx+8]
  00034	75 05		 jne	 SHORT $LN2@Rrotate

; 1804 : 			this->_Right(this->_Parent(_Wherenode)) = _Pnode;

  00036	89 41 08	 mov	 DWORD PTR [ecx+8], eax

; 1805 : 		else

  00039	eb 02		 jmp	 SHORT $LN1@Rrotate
$LN2@Rrotate:

; 1806 : 			this->_Left(this->_Parent(_Wherenode)) = _Pnode;

  0003b	89 01		 mov	 DWORD PTR [ecx], eax
$LN1@Rrotate:

; 1807 : 
; 1808 : 		this->_Right(_Pnode) = _Wherenode;

  0003d	89 50 08	 mov	 DWORD PTR [eax+8], edx

; 1809 : 		this->_Parent(_Wherenode) = _Pnode;

  00040	89 42 04	 mov	 DWORD PTR [edx+4], eax

; 1810 : 		}

  00043	5d		 pop	 ebp
  00044	c2 04 00	 ret	 4
?_Rrotate@?$_Tree@V?$_Tmap_traits@HHU?$less@H@std@@V?$allocator@U?$pair@$$CBHH@std@@@2@$0A@@std@@@std@@IAEXPAU_Node@?$_Tree_nod@V?$_Tmap_traits@HHU?$less@H@std@@V?$allocator@U?$pair@$$CBHH@std@@@2@$0A@@std@@@2@@Z ENDP ; std::_Tree<std::_Tmap_traits<int,int,std::less<int>,std::allocator<std::pair<int const ,int> >,0> >::_Rrotate
_TEXT	ENDS
PUBLIC	??0?$_Tree_const_iterator@V?$_Tree_val@V?$_Tmap_traits@HHU?$less@H@std@@V?$allocator@U?$pair@$$CBHH@std@@@2@$0A@@std@@@std@@@std@@QAE@PAU_Node@?$_Tree_nod@V?$_Tmap_traits@HHU?$less@H@std@@V?$allocator@U?$pair@$$CBHH@std@@@2@$0A@@std@@@1@PBV?$_Tree_val@V?$_Tmap_traits@HHU?$less@H@std@@V?$allocator@U?$pair@$$CBHH@std@@@2@$0A@@std@@@1@@Z ; std::_Tree_const_iterator<std::_Tree_val<std::_Tmap_traits<int,int,std::less<int>,std::allocator<std::pair<int const ,int> >,0> > >::_Tree_const_iterator<std::_Tree_val<std::_Tmap_traits<int,int,std::less<int>,std::allocator<std::pair<int const ,int> >,0> > >
; Function compile flags: /Ogsp
;	COMDAT ??0?$_Tree_const_iterator@V?$_Tree_val@V?$_Tmap_traits@HHU?$less@H@std@@V?$allocator@U?$pair@$$CBHH@std@@@2@$0A@@std@@@std@@@std@@QAE@PAU_Node@?$_Tree_nod@V?$_Tmap_traits@HHU?$less@H@std@@V?$allocator@U?$pair@$$CBHH@std@@@2@$0A@@std@@@1@PBV?$_Tree_val@V?$_Tmap_traits@HHU?$less@H@std@@V?$allocator@U?$pair@$$CBHH@std@@@2@$0A@@std@@@1@@Z
_TEXT	SEGMENT
__Pnode$ = 8						; size = 4
__Plist$ = 12						; size = 4
??0?$_Tree_const_iterator@V?$_Tree_val@V?$_Tmap_traits@HHU?$less@H@std@@V?$allocator@U?$pair@$$CBHH@std@@@2@$0A@@std@@@std@@@std@@QAE@PAU_Node@?$_Tree_nod@V?$_Tmap_traits@HHU?$less@H@std@@V?$allocator@U?$pair@$$CBHH@std@@@2@$0A@@std@@@1@PBV?$_Tree_val@V?$_Tmap_traits@HHU?$less@H@std@@V?$allocator@U?$pair@$$CBHH@std@@@2@$0A@@std@@@1@@Z PROC ; std::_Tree_const_iterator<std::_Tree_val<std::_Tmap_traits<int,int,std::less<int>,std::allocator<std::pair<int const ,int> >,0> > >::_Tree_const_iterator<std::_Tree_val<std::_Tmap_traits<int,int,std::less<int>,std::allocator<std::pair<int const ,int> >,0> > >, COMDAT
; _this$ = ecx

; 213  : 		{	// construct with node pointer _Pnode

  00000	55		 push	 ebp
  00001	8b ec		 mov	 ebp, esp
  00003	8b c1		 mov	 eax, ecx
  00005	8b 4d 08	 mov	 ecx, DWORD PTR __Pnode$[ebp]
  00008	89 08		 mov	 DWORD PTR [eax], ecx

; 214  : 		}

  0000a	5d		 pop	 ebp
  0000b	c2 08 00	 ret	 8
??0?$_Tree_const_iterator@V?$_Tree_val@V?$_Tmap_traits@HHU?$less@H@std@@V?$allocator@U?$pair@$$CBHH@std@@@2@$0A@@std@@@std@@@std@@QAE@PAU_Node@?$_Tree_nod@V?$_Tmap_traits@HHU?$less@H@std@@V?$allocator@U?$pair@$$CBHH@std@@@2@$0A@@std@@@1@PBV?$_Tree_val@V?$_Tmap_traits@HHU?$less@H@std@@V?$allocator@U?$pair@$$CBHH@std@@@2@$0A@@std@@@1@@Z ENDP ; std::_Tree_const_iterator<std::_Tree_val<std::_Tmap_traits<int,int,std::less<int>,std::allocator<std::pair<int const ,int> >,0> > >::_Tree_const_iterator<std::_Tree_val<std::_Tmap_traits<int,int,std::less<int>,std::allocator<std::pair<int const ,int> >,0> > >
_TEXT	ENDS
PUBLIC	??E?$_Tree_const_iterator@V?$_Tree_val@V?$_Tmap_traits@HHU?$less@H@std@@V?$allocator@U?$pair@$$CBHH@std@@@2@$0A@@std@@@std@@@std@@QAEAAV01@XZ ; std::_Tree_const_iterator<std::_Tree_val<std::_Tmap_traits<int,int,std::less<int>,std::allocator<std::pair<int const ,int> >,0> > >::operator++
; Function compile flags: /Ogsp
;	COMDAT ??E?$_Tree_const_iterator@V?$_Tree_val@V?$_Tmap_traits@HHU?$less@H@std@@V?$allocator@U?$pair@$$CBHH@std@@@2@$0A@@std@@@std@@@std@@QAEAAV01@XZ
_TEXT	SEGMENT
??E?$_Tree_const_iterator@V?$_Tree_val@V?$_Tmap_traits@HHU?$less@H@std@@V?$allocator@U?$pair@$$CBHH@std@@@2@$0A@@std@@@std@@@std@@QAEAAV01@XZ PROC ; std::_Tree_const_iterator<std::_Tree_val<std::_Tmap_traits<int,int,std::less<int>,std::allocator<std::pair<int const ,int> >,0> > >::operator++, COMDAT
; _this$ = ecx

; 250  : 		{	// preincrement

  00000	56		 push	 esi
  00001	8b f1		 mov	 esi, ecx

; 251  :  #if _ITERATOR_DEBUG_LEVEL == 2
; 252  : 		if (this->_Getcont() == 0
; 253  : 			|| this->_Ptr == 0
; 254  : 			|| _Mytree::_Isnil(this->_Ptr))
; 255  : 			{	// report error
; 256  : 			_DEBUG_ERROR("map/set iterator not incrementable");
; 257  : 			_SCL_SECURE_OUT_OF_RANGE;
; 258  : 			}
; 259  : 
; 260  :  #elif _ITERATOR_DEBUG_LEVEL == 1
; 261  : 		_SCL_SECURE_VALIDATE(this->_Getcont() != 0 && this->_Ptr != 0);
; 262  : 		_SCL_SECURE_VALIDATE_RANGE(!_Mytree::_Isnil(this->_Ptr));
; 263  :  #endif /* _ITERATOR_DEBUG_LEVEL */
; 264  : 
; 265  : 		++(*(_Mybase *)this);

  00003	e8 00 00 00 00	 call	 ??E?$_Tree_unchecked_const_iterator@V?$_Tree_val@V?$_Tmap_traits@HHU?$less@H@std@@V?$allocator@U?$pair@$$CBHH@std@@@2@$0A@@std@@@std@@U_Iterator_base0@2@@std@@QAEAAV01@XZ ; std::_Tree_unchecked_const_iterator<std::_Tree_val<std::_Tmap_traits<int,int,std::less<int>,std::allocator<std::pair<int const ,int> >,0> >,std::_Iterator_base0>::operator++

; 266  : 		return (*this);

  00008	8b c6		 mov	 eax, esi
  0000a	5e		 pop	 esi

; 267  : 		}

  0000b	c3		 ret	 0
??E?$_Tree_const_iterator@V?$_Tree_val@V?$_Tmap_traits@HHU?$less@H@std@@V?$allocator@U?$pair@$$CBHH@std@@@2@$0A@@std@@@std@@@std@@QAEAAV01@XZ ENDP ; std::_Tree_const_iterator<std::_Tree_val<std::_Tmap_traits<int,int,std::less<int>,std::allocator<std::pair<int const ,int> >,0> > >::operator++
_TEXT	ENDS
PUBLIC	??$swap@D@std@@YAXAAD0@Z			; std::swap<char>
; Function compile flags: /Ogsp
; File c:\program files (x86)\microsoft visual studio 10.0\vc\include\utility
;	COMDAT ??$swap@D@std@@YAXAAD0@Z
_TEXT	SEGMENT
__Left$ = 8						; size = 4
__Right$ = 12						; size = 4
??$swap@D@std@@YAXAAD0@Z PROC				; std::swap<char>, COMDAT

; 101  : 	{	// exchange values stored at _Left and _Right

  00000	55		 push	 ebp
  00001	8b ec		 mov	 ebp, esp

; 102  : 	_Ty _Tmp = _Move(_Left);

  00003	8b 45 08	 mov	 eax, DWORD PTR __Left$[ebp]
  00006	8a 08		 mov	 cl, BYTE PTR [eax]
  00008	56		 push	 esi

; 103  : 	_Left = _Move(_Right);

  00009	8b 75 0c	 mov	 esi, DWORD PTR __Right$[ebp]
  0000c	8a 16		 mov	 dl, BYTE PTR [esi]
  0000e	88 10		 mov	 BYTE PTR [eax], dl

; 104  : 	_Right = _Move(_Tmp);

  00010	88 0e		 mov	 BYTE PTR [esi], cl
  00012	5e		 pop	 esi

; 105  : 	}

  00013	5d		 pop	 ebp
  00014	c3		 ret	 0
??$swap@D@std@@YAXAAD0@Z ENDP				; std::swap<char>
_TEXT	ENDS
PUBLIC	?destroy@?$allocator@U?$pair@$$CBHH@std@@@std@@QAEXPAU?$pair@$$CBHH@2@@Z ; std::allocator<std::pair<int const ,int> >::destroy
; Function compile flags: /Ogsp
; File c:\program files (x86)\microsoft visual studio 10.0\vc\include\xmemory
;	COMDAT ?destroy@?$allocator@U?$pair@$$CBHH@std@@@std@@QAEXPAU?$pair@$$CBHH@2@@Z
_TEXT	SEGMENT
__Ptr$ = 8						; size = 4
?destroy@?$allocator@U?$pair@$$CBHH@std@@@std@@QAEXPAU?$pair@$$CBHH@2@@Z PROC ; std::allocator<std::pair<int const ,int> >::destroy, COMDAT
; _this$ = ecx

; 213  : 		_Destroy(_Ptr);
; 214  : 		}

  00000	c2 04 00	 ret	 4
?destroy@?$allocator@U?$pair@$$CBHH@std@@@std@@QAEXPAU?$pair@$$CBHH@2@@Z ENDP ; std::allocator<std::pair<int const ,int> >::destroy
_TEXT	ENDS
PUBLIC	_rkLoader$GSCopy$
PUBLIC	__$ArrayPad$
PUBLIC	?LoadPromotionInfo@ioItemRechargeManager@@QAEXAAVioINILoader@@AAUPromotionInfo@1@@Z ; ioItemRechargeManager::LoadPromotionInfo
; Function compile flags: /Ogsp
; File d:\lost saga for developer\youtube\tutorial\source\src\lsclient\ioitemrechargemanager.cpp
;	COMDAT ?LoadPromotionInfo@ioItemRechargeManager@@QAEXAAVioINILoader@@AAUPromotionInfo@1@@Z
_TEXT	SEGMENT
_rkLoader$GSCopy$ = -36					; size = 4
__k$509127 = -32					; size = 21
__k$509002 = -32					; size = 22
__k$508864 = -32					; size = 21
__k$508739 = -32					; size = 22
__$ArrayPad$ = -4					; size = 4
_rkLoader$ = 8						; size = 4
_rkInfo$ = 12						; size = 4
?LoadPromotionInfo@ioItemRechargeManager@@QAEXAAVioINILoader@@AAUPromotionInfo@1@@Z PROC ; ioItemRechargeManager::LoadPromotionInfo, COMDAT
; _this$ = ecx

; 51   : {

  00000	55		 push	 ebp
  00001	8b ec		 mov	 ebp, esp
  00003	83 ec 24	 sub	 esp, 36			; 00000024H
  00006	a1 00 00 00 00	 mov	 eax, DWORD PTR ___security_cookie
  0000b	33 c5		 xor	 eax, ebp
  0000d	89 45 fc	 mov	 DWORD PTR __$ArrayPad$[ebp], eax
  00010	8b 4d 08	 mov	 ecx, DWORD PTR _rkLoader$[ebp]
  00013	53		 push	 ebx
  00014	56		 push	 esi
  00015	57		 push	 edi
  00016	8b 7d 0c	 mov	 edi, DWORD PTR _rkInfo$[ebp]

; 52   : 	rkInfo.m_iWeapon = rkLoader.LoadInt_e( "promotion_weapon_time", 0 );

  00019	6a 05		 push	 5

; 55   : 	rkInfo.m_iCloak  = rkLoader.LoadInt_e( "promotion_cloak_time",  0 );

  0001b	89 4d dc	 mov	 DWORD PTR _rkLoader$GSCopy$[ebp], ecx
  0001e	c7 45 e0 9d 9e
	84 87		 mov	 DWORD PTR __k$508739[ebp], -2021351779 ; 87849e9dH
  00025	c7 45 e4 82 98
	82 85		 mov	 DWORD PTR __k$508739[ebp+4], -2055038846 ; 85829882H
  0002c	c7 45 e8 83 b3
	9c 8f		 mov	 DWORD PTR __k$508739[ebp+8], -1885555837 ; 8f9cb383H
  00033	c7 45 ec 8c 9c
	84 84		 mov	 DWORD PTR __k$508739[ebp+12], -2071683956 ; 84849c8cH
  0003a	c7 45 f0 b2 98
	82 87		 mov	 DWORD PTR __k$508739[ebp+16], -2021484366 ; 878298b2H
  00041	8d 45 e0	 lea	 eax, DWORD PTR __k$508739[ebp]
  00044	33 db		 xor	 ebx, ebx
  00046	66 c7 45 f4 88
	00		 mov	 WORD PTR __k$508739[ebp+20], 136 ; 00000088H
  0004c	5a		 pop	 edx
$LL106@LoadPromot:

; 52   : 	rkInfo.m_iWeapon = rkLoader.LoadInt_e( "promotion_weapon_time", 0 );

  0004d	81 30 ed ec eb
	ea		 xor	 DWORD PTR [eax], -353637139 ; eaebecedH
  00053	83 c0 04	 add	 eax, 4
  00056	4a		 dec	 edx
  00057	75 f4		 jne	 SHORT $LL106@LoadPromot
  00059	8b 35 00 00 00
	00		 mov	 esi, DWORD PTR __imp_?LoadInt@ioINILoader@@QAEHPBDH@Z
  0005f	80 75 f4 ed	 xor	 BYTE PTR __k$508739[ebp+20], -19 ; ffffffedH
  00063	53		 push	 ebx
  00064	8d 45 e0	 lea	 eax, DWORD PTR __k$508739[ebp]
  00067	50		 push	 eax
  00068	ff d6		 call	 esi
  0006a	6a 05		 push	 5
  0006c	89 07		 mov	 DWORD PTR [edi], eax

; 53   : 	rkInfo.m_iArmor  = rkLoader.LoadInt_e( "promotion_armor_time",  0 );

  0006e	c7 45 e0 9d 9e
	84 87		 mov	 DWORD PTR __k$508864[ebp], -2021351779 ; 87849e9dH
  00075	c7 45 e4 82 98
	82 85		 mov	 DWORD PTR __k$508864[ebp+4], -2055038846 ; 85829882H
  0007c	c7 45 e8 83 b3
	8a 98		 mov	 DWORD PTR __k$508864[ebp+8], -1735740541 ; 988ab383H
  00083	c7 45 ec 80 83
	99 b5		 mov	 DWORD PTR __k$508864[ebp+12], -1248230528 ; b5998380H
  0008a	c7 45 f0 99 85
	86 8f		 mov	 DWORD PTR __k$508864[ebp+16], -1887009383 ; 8f868599H
  00091	8d 45 e0	 lea	 eax, DWORD PTR __k$508864[ebp]
  00094	88 5d f4	 mov	 BYTE PTR __k$508864[ebp+20], bl
  00097	59		 pop	 ecx
$LL212@LoadPromot:
  00098	81 30 ed ec eb
	ea		 xor	 DWORD PTR [eax], -353637139 ; eaebecedH
  0009e	83 c0 04	 add	 eax, 4
  000a1	49		 dec	 ecx
  000a2	75 f4		 jne	 SHORT $LL212@LoadPromot
  000a4	8b 4d dc	 mov	 ecx, DWORD PTR _rkLoader$GSCopy$[ebp]
  000a7	53		 push	 ebx
  000a8	8d 45 e0	 lea	 eax, DWORD PTR __k$508864[ebp]
  000ab	50		 push	 eax
  000ac	ff d6		 call	 esi
  000ae	6a 05		 push	 5
  000b0	89 47 04	 mov	 DWORD PTR [edi+4], eax

; 54   : 	rkInfo.m_iHelmet = rkLoader.LoadInt_e( "promotion_helmet_time", 0 );

  000b3	c7 45 e0 9d 9e
	84 87		 mov	 DWORD PTR __k$509002[ebp], -2021351779 ; 87849e9dH
  000ba	c7 45 e4 82 98
	82 85		 mov	 DWORD PTR __k$509002[ebp+4], -2055038846 ; 85829882H
  000c1	c7 45 e8 83 b3
	83 8f		 mov	 DWORD PTR __k$509002[ebp+8], -1887194237 ; 8f83b383H
  000c8	c7 45 ec 81 81
	8e 9e		 mov	 DWORD PTR __k$509002[ebp+12], -1634827903 ; 9e8e8181H
  000cf	c7 45 f0 b2 98
	82 87		 mov	 DWORD PTR __k$509002[ebp+16], -2021484366 ; 878298b2H
  000d6	8d 45 e0	 lea	 eax, DWORD PTR __k$509002[ebp]
  000d9	66 c7 45 f4 88
	00		 mov	 WORD PTR __k$509002[ebp+20], 136 ; 00000088H
  000df	59		 pop	 ecx
$LL318@LoadPromot:
  000e0	81 30 ed ec eb
	ea		 xor	 DWORD PTR [eax], -353637139 ; eaebecedH
  000e6	83 c0 04	 add	 eax, 4
  000e9	49		 dec	 ecx
  000ea	75 f4		 jne	 SHORT $LL318@LoadPromot
  000ec	8b 4d dc	 mov	 ecx, DWORD PTR _rkLoader$GSCopy$[ebp]
  000ef	80 75 f4 ed	 xor	 BYTE PTR __k$509002[ebp+20], -19 ; ffffffedH
  000f3	53		 push	 ebx
  000f4	8d 45 e0	 lea	 eax, DWORD PTR __k$509002[ebp]
  000f7	50		 push	 eax
  000f8	ff d6		 call	 esi
  000fa	6a 05		 push	 5
  000fc	89 47 08	 mov	 DWORD PTR [edi+8], eax

; 55   : 	rkInfo.m_iCloak  = rkLoader.LoadInt_e( "promotion_cloak_time",  0 );

  000ff	c7 45 e0 9d 9e
	84 87		 mov	 DWORD PTR __k$509127[ebp], -2021351779 ; 87849e9dH
  00106	c7 45 e4 82 98
	82 85		 mov	 DWORD PTR __k$509127[ebp+4], -2055038846 ; 85829882H
  0010d	c7 45 e8 83 b3
	88 86		 mov	 DWORD PTR __k$509127[ebp+8], -2037861501 ; 8688b383H
  00114	c7 45 ec 82 8d
	80 b5		 mov	 DWORD PTR __k$509127[ebp+12], -1249866366 ; b5808d82H
  0011b	c7 45 f0 99 85
	86 8f		 mov	 DWORD PTR __k$509127[ebp+16], -1887009383 ; 8f868599H
  00122	8d 45 e0	 lea	 eax, DWORD PTR __k$509127[ebp]
  00125	88 5d f4	 mov	 BYTE PTR __k$509127[ebp+20], bl
  00128	59		 pop	 ecx
$LL424@LoadPromot:
  00129	81 30 ed ec eb
	ea		 xor	 DWORD PTR [eax], -353637139 ; eaebecedH
  0012f	83 c0 04	 add	 eax, 4
  00132	49		 dec	 ecx
  00133	75 f4		 jne	 SHORT $LL424@LoadPromot
  00135	8b 4d dc	 mov	 ecx, DWORD PTR _rkLoader$GSCopy$[ebp]
  00138	53		 push	 ebx
  00139	8d 45 e0	 lea	 eax, DWORD PTR __k$509127[ebp]
  0013c	50		 push	 eax
  0013d	ff d6		 call	 esi

; 56   : }

  0013f	8b 4d fc	 mov	 ecx, DWORD PTR __$ArrayPad$[ebp]
  00142	89 47 0c	 mov	 DWORD PTR [edi+12], eax
  00145	5f		 pop	 edi
  00146	5e		 pop	 esi
  00147	33 cd		 xor	 ecx, ebp
  00149	5b		 pop	 ebx
  0014a	e8 00 00 00 00	 call	 @__security_check_cookie@4
  0014f	c9		 leave
  00150	c2 08 00	 ret	 8
?LoadPromotionInfo@ioItemRechargeManager@@QAEXAAVioINILoader@@AAUPromotionInfo@1@@Z ENDP ; ioItemRechargeManager::LoadPromotionInfo
_TEXT	ENDS
PUBLIC	??_C@_0ED@ILEOBEGA@ioItemRechargeManager?3?3ApplyRech@ ; `string'
PUBLIC	??_C@_0CO@FIBFOHEC@ioItemRechargeManager?3?3ApplyRech@ ; `string'
PUBLIC	??_C@_00CNPNBAHC@?$AA@				; `string'
PUBLIC	?ApplyRechargeExtraItem@ioItemRechargeManager@@QAEXAAVSP2Packet@@@Z ; ioItemRechargeManager::ApplyRechargeExtraItem
EXTRN	?Update@ItemRechargeWnd@@QAEXXZ:PROC		; ItemRechargeWnd::Update
EXTRN	__imp_?HideWnd@ioWnd@@QAEXXZ:PROC
EXTRN	__imp_?PrintTimeAndLog@CLog@@QAAXHPADZZ:PROC
EXTRN	__imp_?LOG@@3VCLog@@A:BYTE
EXTRN	?SetUIEndState@ItemRechargeProcessWnd@@QAEXH@Z:PROC ; ItemRechargeProcessWnd::SetUIEndState
EXTRN	__imp_?IsShow@ioWnd@@QBE_NXZ:PROC
EXTRN	?SetExtraItem@ioUserExtraItem@@QAEXABUEXTRAITEMSLOT@@@Z:PROC ; ioUserExtraItem::SetExtraItem
EXTRN	?GetExtraItem@ioUserExtraItem@@QAE_NHAAUEXTRAITEMSLOT@@@Z:PROC ; ioUserExtraItem::GetExtraItem
EXTRN	__imp_?FindChildWnd@ioWnd@@QAEPAV1@K@Z:PROC
EXTRN	__imp_?FindWnd@ioGUIManager@@QAEPAVioWnd@@K@Z:PROC
EXTRN	?GetSingleton@ioMyInfo@@SAAAV1@XZ:PROC		; ioMyInfo::GetSingleton
EXTRN	?SetMsgBox@ioSP2GUIManager@@QAAXHPAVioWnd@@PBDZZ:PROC ; ioSP2GUIManager::SetMsgBox
EXTRN	?GetSingleton@ioSP2GUIManager@@SAAAV1@XZ:PROC	; ioSP2GUIManager::GetSingleton
EXTRN	__imp_?GetString@ioStringManager@@QAEPADPBD0HW4FileNamePrefix@1@@Z:PROC
EXTRN	__imp_?GetSingleton@ioStringManager@@SAAAV1@XZ:PROC
EXTRN	??5SP2Packet@@QAEAAV0@AAH@Z:PROC		; SP2Packet::operator>>
EXTRN	?MouseBusy@TCPNetwork@@YAX_N@Z:PROC		; TCPNetwork::MouseBusy
;	COMDAT ??_C@_0ED@ILEOBEGA@ioItemRechargeManager?3?3ApplyRech@
; File d:\lost saga for developer\youtube\tutorial\source\src\lsclient\iomyinfo.h
CONST	SEGMENT
??_C@_0ED@ILEOBEGA@ioItemRechargeManager?3?3ApplyRech@ DB 'ioItemRecharge'
	DB	'Manager::ApplyRechargeExtraItem - invalid index : %d', 00H ; `string'
CONST	ENDS
;	COMDAT ??_C@_0CO@FIBFOHEC@ioItemRechargeManager?3?3ApplyRech@
CONST	SEGMENT
??_C@_0CO@FIBFOHEC@ioItemRechargeManager?3?3ApplyRech@ DB 'ioItemRecharge'
	DB	'Manager::ApplyRechargeExtraItem', 00H	; `string'
CONST	ENDS
;	COMDAT ??_C@_00CNPNBAHC@?$AA@
CONST	SEGMENT
??_C@_00CNPNBAHC@?$AA@ DB 00H				; `string'
CONST	ENDS
;	COMDAT xdata$x
xdata$x	SEGMENT
__unwindtable$?ApplyRechargeExtraItem@ioItemRechargeManager@@QAEXAAVSP2Packet@@@Z DD 0ffffffffH
	DD	FLAT:__unwindfunclet$?ApplyRechargeExtraItem@ioItemRechargeManager@@QAEXAAVSP2Packet@@@Z$0
__ehfuncinfo$?ApplyRechargeExtraItem@ioItemRechargeManager@@QAEXAAVSP2Packet@@@Z DD 019930522H
	DD	01H
	DD	FLAT:__unwindtable$?ApplyRechargeExtraItem@ioItemRechargeManager@@QAEXAAVSP2Packet@@@Z
	DD	2 DUP(00H)
	DD	2 DUP(00H)
	DD	00H
	DD	01H
; Function compile flags: /Ogsp
; File d:\lost saga for developer\youtube\tutorial\source\src\lsclient\ioitemrechargemanager.cpp
xdata$x	ENDS
;	COMDAT ?ApplyRechargeExtraItem@ioItemRechargeManager@@QAEXAAVSP2Packet@@@Z
_TEXT	SEGMENT
_kTargetSlot$506146 = -108				; size = 72
_iRechargeTime$506139 = -36				; size = 4
_iPeriodType$506138 = -32				; size = 4
_iValue2$506137 = -28					; size = 4
_iValue1$506136 = -24					; size = 4
_iState$ = -20						; size = 4
_iSlotIndex$506135 = -16				; size = 4
__$EHRec$ = -12						; size = 12
_pChild$506143 = 8					; size = 4
_rkPacket$ = 8						; size = 4
?ApplyRechargeExtraItem@ioItemRechargeManager@@QAEXAAVSP2Packet@@@Z PROC ; ioItemRechargeManager::ApplyRechargeExtraItem, COMDAT
; _this$ = ecx

; 113  : {

  00000	6a 60		 push	 96			; 00000060H
  00002	b8 00 00 00 00	 mov	 eax, __ehhandler$?ApplyRechargeExtraItem@ioItemRechargeManager@@QAEXAAVSP2Packet@@@Z
  00007	e8 00 00 00 00	 call	 __EH_prolog3

; 114  : 	TCPNetwork::MouseBusy( false );

  0000c	33 f6		 xor	 esi, esi
  0000e	56		 push	 esi
  0000f	e8 00 00 00 00	 call	 ?MouseBusy@TCPNetwork@@YAX_N@Z ; TCPNetwork::MouseBusy
  00014	59		 pop	 ecx

; 115  : 	int iState;
; 116  : 	rkPacket >> iState;

  00015	8b 4d 08	 mov	 ecx, DWORD PTR _rkPacket$[ebp]
  00018	8d 45 ec	 lea	 eax, DWORD PTR _iState$[ebp]
  0001b	50		 push	 eax
  0001c	e8 00 00 00 00	 call	 ??5SP2Packet@@QAEAAV0@AAH@Z ; SP2Packet::operator>>

; 117  : 
; 118  : 	switch( iState )

  00021	8b 45 ec	 mov	 eax, DWORD PTR _iState$[ebp]
  00024	2b c6		 sub	 eax, esi
  00026	74 48		 je	 SHORT $LN11@ApplyRecha
  00028	48		 dec	 eax
  00029	74 14		 je	 SHORT $LN3@ApplyRecha
  0002b	48		 dec	 eax
  0002c	74 0c		 je	 SHORT $LN2@ApplyRecha
  0002e	48		 dec	 eax
  0002f	0f 85 64 01 00
	00		 jne	 $LN4@ApplyRecha

; 170  : 	case EXTRA_ITEM_RECHARGE_TIME_FAIL_IMPOSSIBLE:
; 171  : 		{
; 172  : 			g_GUIMgr.SetMsgBox( MB_OK, NULL, STR(3) );

  00035	56		 push	 esi
  00036	6a 03		 push	 3

; 173  : 		}
; 174  : 		break;

  00038	eb 08		 jmp	 SHORT $LN22@ApplyRecha
$LN2@ApplyRecha:

; 165  : 	case EXTRA_ITEM_RECHARGE_TIME_FAIL_UNKNOWN_ITEM:
; 166  : 		{
; 167  : 			g_GUIMgr.SetMsgBox( MB_OK, NULL, STR(2) );

  0003a	56		 push	 esi
  0003b	6a 02		 push	 2

; 168  : 		}
; 169  : 		break;

  0003d	eb 03		 jmp	 SHORT $LN22@ApplyRecha
$LN3@ApplyRecha:

; 158  : 		}
; 159  : 		break;
; 160  : 	case EXTRA_ITEM_RECHARGE_TIME_FAIL:
; 161  : 		{
; 162  : 			g_GUIMgr.SetMsgBox( MB_OK, NULL, STR(1) );

  0003f	56		 push	 esi
  00040	6a 01		 push	 1
$LN22@ApplyRecha:
  00042	68 00 00 00 00	 push	 OFFSET ??_C@_00CNPNBAHC@?$AA@
  00047	68 00 00 00 00	 push	 OFFSET ??_C@_0CO@FIBFOHEC@ioItemRechargeManager?3?3ApplyRech@
  0004c	ff 15 00 00 00
	00		 call	 DWORD PTR __imp_?GetSingleton@ioStringManager@@SAAAV1@XZ
  00052	8b c8		 mov	 ecx, eax
  00054	ff 15 00 00 00
	00		 call	 DWORD PTR __imp_?GetString@ioStringManager@@QAEPADPBD0HW4FileNamePrefix@1@@Z
  0005a	50		 push	 eax
  0005b	56		 push	 esi
  0005c	56		 push	 esi
  0005d	e8 00 00 00 00	 call	 ?GetSingleton@ioSP2GUIManager@@SAAAV1@XZ ; ioSP2GUIManager::GetSingleton
  00062	50		 push	 eax
  00063	e8 00 00 00 00	 call	 ?SetMsgBox@ioSP2GUIManager@@QAAXHPAVioWnd@@PBDZZ ; ioSP2GUIManager::SetMsgBox
  00068	83 c4 10	 add	 esp, 16			; 00000010H

; 163  : 		}
; 164  : 		break;

  0006b	e9 29 01 00 00	 jmp	 $LN4@ApplyRecha
$LN11@ApplyRecha:

; 119  : 	{
; 120  : 	case EXTRA_ITEM_RECHARGE_TIME_SUCCESS:
; 121  : 		{
; 122  : 			int iSlotIndex, iValue1, iValue2, iPeriodType, iRechargeTime;
; 123  : 			rkPacket >> iSlotIndex >> iValue1 >> iValue2 >> iPeriodType >> iRechargeTime;

  00070	8b 4d 08	 mov	 ecx, DWORD PTR _rkPacket$[ebp]
  00073	8d 45 dc	 lea	 eax, DWORD PTR _iRechargeTime$506139[ebp]
  00076	50		 push	 eax
  00077	8d 45 e0	 lea	 eax, DWORD PTR _iPeriodType$506138[ebp]
  0007a	50		 push	 eax
  0007b	8d 45 e4	 lea	 eax, DWORD PTR _iValue2$506137[ebp]
  0007e	50		 push	 eax
  0007f	8d 45 e8	 lea	 eax, DWORD PTR _iValue1$506136[ebp]
  00082	50		 push	 eax
  00083	8d 45 f0	 lea	 eax, DWORD PTR _iSlotIndex$506135[ebp]
  00086	50		 push	 eax
  00087	e8 00 00 00 00	 call	 ??5SP2Packet@@QAEAAV0@AAH@Z ; SP2Packet::operator>>
  0008c	8b c8		 mov	 ecx, eax
  0008e	e8 00 00 00 00	 call	 ??5SP2Packet@@QAEAAV0@AAH@Z ; SP2Packet::operator>>
  00093	8b c8		 mov	 ecx, eax
  00095	e8 00 00 00 00	 call	 ??5SP2Packet@@QAEAAV0@AAH@Z ; SP2Packet::operator>>
  0009a	8b c8		 mov	 ecx, eax
  0009c	e8 00 00 00 00	 call	 ??5SP2Packet@@QAEAAV0@AAH@Z ; SP2Packet::operator>>
  000a1	8b c8		 mov	 ecx, eax
  000a3	e8 00 00 00 00	 call	 ??5SP2Packet@@QAEAAV0@AAH@Z ; SP2Packet::operator>>

; 124  : 
; 125  : 			ioUserExtraItem *pExtraItem = g_MyInfo.GetUserExtraItem();

  000a8	e8 00 00 00 00	 call	 ?GetSingleton@ioMyInfo@@SAAAV1@XZ ; ioMyInfo::GetSingleton
  000ad	8d 98 ac 01 00
	00		 lea	 ebx, DWORD PTR [eax+428]

; 126  : 			if( pExtraItem )

  000b3	3b de		 cmp	 ebx, esi
  000b5	8b 35 00 00 00
	00		 mov	 esi, DWORD PTR __imp_?FindWnd@ioGUIManager@@QAEPAVioWnd@@K@Z
  000bb	bf 59 18 00 00	 mov	 edi, 6233		; 00001859H
  000c0	0f 84 be 00 00
	00		 je	 $LN10@ApplyRecha

; 127  : 			{
; 128  : 				ioWnd *pWnd = g_GUIMgr.FindWnd(ITEM_RECHARGE_WND);

  000c6	57		 push	 edi
  000c7	e8 00 00 00 00	 call	 ?GetSingleton@ioSP2GUIManager@@SAAAV1@XZ ; ioSP2GUIManager::GetSingleton
  000cc	8b c8		 mov	 ecx, eax
  000ce	ff d6		 call	 esi

; 129  : 				ItemRechargeProcessWnd *pChild = NULL;

  000d0	83 65 08 00	 and	 DWORD PTR _pChild$506143[ebp], 0

; 130  : 				if( pWnd )

  000d4	85 c0		 test	 eax, eax
  000d6	74 10		 je	 SHORT $LN9@ApplyRecha

; 131  : 				{
; 132  : 					pChild = (ItemRechargeProcessWnd*)( pWnd->FindChildWnd(ITEM_RECHARGE_PROCESS_WND) );

  000d8	68 5a 18 00 00	 push	 6234			; 0000185aH
  000dd	8b c8		 mov	 ecx, eax
  000df	ff 15 00 00 00
	00		 call	 DWORD PTR __imp_?FindChildWnd@ioWnd@@QAEPAV1@K@Z
  000e5	89 45 08	 mov	 DWORD PTR _pChild$506143[ebp], eax
$LN9@ApplyRecha:

; 133  : 				}
; 134  : 
; 135  : 				EXTRAITEMSLOT kTargetSlot;

  000e8	8d 4d 94	 lea	 ecx, DWORD PTR _kTargetSlot$506146[ebp]
  000eb	e8 00 00 00 00	 call	 ??0EXTRAITEMSLOT@@QAE@XZ ; EXTRAITEMSLOT::EXTRAITEMSLOT
  000f0	83 65 fc 00	 and	 DWORD PTR __$EHRec$[ebp+8], 0

; 136  : 				if( pExtraItem->GetExtraItem( iSlotIndex, kTargetSlot ) )

  000f4	8d 45 94	 lea	 eax, DWORD PTR _kTargetSlot$506146[ebp]
  000f7	50		 push	 eax
  000f8	ff 75 f0	 push	 DWORD PTR _iSlotIndex$506135[ebp]
  000fb	8b cb		 mov	 ecx, ebx
  000fd	e8 00 00 00 00	 call	 ?GetExtraItem@ioUserExtraItem@@QAE_NHAAUEXTRAITEMSLOT@@@Z ; ioUserExtraItem::GetExtraItem
  00102	84 c0		 test	 al, al
  00104	74 3d		 je	 SHORT $LN8@ApplyRecha

; 137  : 				{
; 138  : 					kTargetSlot.m_iValue1 = iValue1;

  00106	8b 45 e8	 mov	 eax, DWORD PTR _iValue1$506136[ebp]
  00109	89 45 a4	 mov	 DWORD PTR _kTargetSlot$506146[ebp+16], eax

; 139  : 					kTargetSlot.m_iValue2 = iValue2;

  0010c	8b 45 e4	 mov	 eax, DWORD PTR _iValue2$506137[ebp]
  0010f	89 45 a8	 mov	 DWORD PTR _kTargetSlot$506146[ebp+20], eax

; 140  : 					kTargetSlot.m_PeriodType = iPeriodType;

  00112	8b 45 e0	 mov	 eax, DWORD PTR _iPeriodType$506138[ebp]
  00115	89 45 a0	 mov	 DWORD PTR _kTargetSlot$506146[ebp+12], eax

; 141  : 					pExtraItem->SetExtraItem( kTargetSlot );

  00118	8d 45 94	 lea	 eax, DWORD PTR _kTargetSlot$506146[ebp]
  0011b	50		 push	 eax
  0011c	8b cb		 mov	 ecx, ebx
  0011e	e8 00 00 00 00	 call	 ?SetExtraItem@ioUserExtraItem@@QAEXABUEXTRAITEMSLOT@@@Z ; ioUserExtraItem::SetExtraItem

; 142  : 
; 143  : 					if( pChild && pChild->IsShow() )

  00123	83 7d 08 00	 cmp	 DWORD PTR _pChild$506143[ebp], 0
  00127	74 4f		 je	 SHORT $LN5@ApplyRecha
  00129	8b 4d 08	 mov	 ecx, DWORD PTR _pChild$506143[ebp]
  0012c	ff 15 00 00 00
	00		 call	 DWORD PTR __imp_?IsShow@ioWnd@@QBE_NXZ
  00132	84 c0		 test	 al, al
  00134	74 42		 je	 SHORT $LN5@ApplyRecha

; 144  : 						pChild->SetUIEndState( iRechargeTime );

  00136	ff 75 dc	 push	 DWORD PTR _iRechargeTime$506139[ebp]
  00139	8b 4d 08	 mov	 ecx, DWORD PTR _pChild$506143[ebp]
  0013c	e8 00 00 00 00	 call	 ?SetUIEndState@ItemRechargeProcessWnd@@QAEXH@Z ; ItemRechargeProcessWnd::SetUIEndState

; 145  : 				}
; 146  : 				else

  00141	eb 35		 jmp	 SHORT $LN5@ApplyRecha
$LN8@ApplyRecha:

; 147  : 				{
; 148  : 					LOG.PrintTimeAndLog( 0, "ioItemRechargeManager::ApplyRechargeExtraItem - invalid index : %d", iSlotIndex );

  00143	ff 75 f0	 push	 DWORD PTR _iSlotIndex$506135[ebp]
  00146	68 00 00 00 00	 push	 OFFSET ??_C@_0ED@ILEOBEGA@ioItemRechargeManager?3?3ApplyRech@
  0014b	6a 00		 push	 0
  0014d	ff 35 00 00 00
	00		 push	 DWORD PTR __imp_?LOG@@3VCLog@@A
  00153	ff 15 00 00 00
	00		 call	 DWORD PTR __imp_?PrintTimeAndLog@CLog@@QAAXHPADZZ
  00159	83 c4 10	 add	 esp, 16			; 00000010H

; 149  : 
; 150  : 					if( pChild && pChild->IsShow() )

  0015c	83 7d 08 00	 cmp	 DWORD PTR _pChild$506143[ebp], 0
  00160	74 16		 je	 SHORT $LN5@ApplyRecha
  00162	8b 4d 08	 mov	 ecx, DWORD PTR _pChild$506143[ebp]
  00165	ff 15 00 00 00
	00		 call	 DWORD PTR __imp_?IsShow@ioWnd@@QBE_NXZ
  0016b	84 c0		 test	 al, al
  0016d	74 09		 je	 SHORT $LN5@ApplyRecha

; 151  : 						pChild->HideWnd();

  0016f	8b 4d 08	 mov	 ecx, DWORD PTR _pChild$506143[ebp]
  00172	ff 15 00 00 00
	00		 call	 DWORD PTR __imp_?HideWnd@ioWnd@@QAEXXZ
$LN5@ApplyRecha:

; 152  : 				}
; 153  : 			}

  00178	83 4d fc ff	 or	 DWORD PTR __$EHRec$[ebp+8], -1
  0017c	8d 4d 94	 lea	 ecx, DWORD PTR _kTargetSlot$506146[ebp]
  0017f	e8 00 00 00 00	 call	 ??1EXTRAITEMSLOT@@QAE@XZ
$LN10@ApplyRecha:

; 154  : 
; 155  : 			ItemRechargeWnd *pItemRechargeWnd = (ItemRechargeWnd*)( g_GUIMgr.FindWnd(ITEM_RECHARGE_WND) );

  00184	57		 push	 edi
  00185	e8 00 00 00 00	 call	 ?GetSingleton@ioSP2GUIManager@@SAAAV1@XZ ; ioSP2GUIManager::GetSingleton
  0018a	8b c8		 mov	 ecx, eax
  0018c	ff d6		 call	 esi

; 156  : 			if( pItemRechargeWnd )

  0018e	85 c0		 test	 eax, eax
  00190	74 07		 je	 SHORT $LN4@ApplyRecha

; 157  : 				pItemRechargeWnd->Update();

  00192	8b c8		 mov	 ecx, eax
  00194	e8 00 00 00 00	 call	 ?Update@ItemRechargeWnd@@QAEXXZ ; ItemRechargeWnd::Update
$LN4@ApplyRecha:

; 175  : 	}
; 176  : }

  00199	e8 00 00 00 00	 call	 __EH_epilog3
  0019e	c2 04 00	 ret	 4
_TEXT	ENDS
;	COMDAT text$x
text$x	SEGMENT
__unwindfunclet$?ApplyRechargeExtraItem@ioItemRechargeManager@@QAEXAAVSP2Packet@@@Z$0:
  00000	8d 4d 94	 lea	 ecx, DWORD PTR _kTargetSlot$506146[ebp]
  00003	e9 00 00 00 00	 jmp	 ??1EXTRAITEMSLOT@@QAE@XZ
__ehhandler$?ApplyRechargeExtraItem@ioItemRechargeManager@@QAEXAAVSP2Packet@@@Z:
  00008	8b 54 24 08	 mov	 edx, DWORD PTR [esp+8]
  0000c	8d 42 0c	 lea	 eax, DWORD PTR [edx+12]
  0000f	8b 4a 90	 mov	 ecx, DWORD PTR [edx-112]
  00012	33 c8		 xor	 ecx, eax
  00014	e8 00 00 00 00	 call	 @__security_check_cookie@4
  00019	b8 00 00 00 00	 mov	 eax, OFFSET __ehfuncinfo$?ApplyRechargeExtraItem@ioItemRechargeManager@@QAEXAAVSP2Packet@@@Z
  0001e	e9 00 00 00 00	 jmp	 ___CxxFrameHandler3
text$x	ENDS
?ApplyRechargeExtraItem@ioItemRechargeManager@@QAEXAAVSP2Packet@@@Z ENDP ; ioItemRechargeManager::ApplyRechargeExtraItem
PUBLIC	??D?$_Tree_iterator@V?$_Tree_val@V?$_Tmap_traits@HHU?$less@H@std@@V?$allocator@U?$pair@$$CBHH@std@@@2@$0A@@std@@@std@@@std@@QBEAAU?$pair@$$CBHH@1@XZ ; std::_Tree_iterator<std::_Tree_val<std::_Tmap_traits<int,int,std::less<int>,std::allocator<std::pair<int const ,int> >,0> > >::operator*
; Function compile flags: /Ogsp
; File c:\program files (x86)\microsoft visual studio 10.0\vc\include\xtree
;	COMDAT ??D?$_Tree_iterator@V?$_Tree_val@V?$_Tmap_traits@HHU?$less@H@std@@V?$allocator@U?$pair@$$CBHH@std@@@2@$0A@@std@@@std@@@std@@QBEAAU?$pair@$$CBHH@1@XZ
_TEXT	SEGMENT
??D?$_Tree_iterator@V?$_Tree_val@V?$_Tmap_traits@HHU?$less@H@std@@V?$allocator@U?$pair@$$CBHH@std@@@2@$0A@@std@@@std@@@std@@QBEAAU?$pair@$$CBHH@1@XZ PROC ; std::_Tree_iterator<std::_Tree_val<std::_Tmap_traits<int,int,std::less<int>,std::allocator<std::pair<int const ,int> >,0> > >::operator*, COMDAT
; _this$ = ecx

; 396  : 		return ((reference)**(_Mybase *)this);

  00000	8b 01		 mov	 eax, DWORD PTR [ecx]
  00002	83 c0 0c	 add	 eax, 12			; 0000000cH

; 397  : 		}

  00005	c3		 ret	 0
??D?$_Tree_iterator@V?$_Tree_val@V?$_Tmap_traits@HHU?$less@H@std@@V?$allocator@U?$pair@$$CBHH@std@@@2@$0A@@std@@@std@@@std@@QBEAAU?$pair@$$CBHH@1@XZ ENDP ; std::_Tree_iterator<std::_Tree_val<std::_Tmap_traits<int,int,std::less<int>,std::allocator<std::pair<int const ,int> >,0> > >::operator*
_TEXT	ENDS
PUBLIC	?_Lbound@?$_Tree@V?$_Tmap_traits@HHU?$less@H@std@@V?$allocator@U?$pair@$$CBHH@std@@@2@$0A@@std@@@std@@IAEPAU_Node@?$_Tree_nod@V?$_Tmap_traits@HHU?$less@H@std@@V?$allocator@U?$pair@$$CBHH@std@@@2@$0A@@std@@@2@ABH@Z ; std::_Tree<std::_Tmap_traits<int,int,std::less<int>,std::allocator<std::pair<int const ,int> >,0> >::_Lbound
; Function compile flags: /Ogsp
;	COMDAT ?_Lbound@?$_Tree@V?$_Tmap_traits@HHU?$less@H@std@@V?$allocator@U?$pair@$$CBHH@std@@@2@$0A@@std@@@std@@IAEPAU_Node@?$_Tree_nod@V?$_Tmap_traits@HHU?$less@H@std@@V?$allocator@U?$pair@$$CBHH@std@@@2@$0A@@std@@@2@ABH@Z
_TEXT	SEGMENT
__Keyval$ = 8						; size = 4
?_Lbound@?$_Tree@V?$_Tmap_traits@HHU?$less@H@std@@V?$allocator@U?$pair@$$CBHH@std@@@2@$0A@@std@@@std@@IAEPAU_Node@?$_Tree_nod@V?$_Tmap_traits@HHU?$less@H@std@@V?$allocator@U?$pair@$$CBHH@std@@@2@$0A@@std@@@2@ABH@Z PROC ; std::_Tree<std::_Tmap_traits<int,int,std::less<int>,std::allocator<std::pair<int const ,int> >,0> >::_Lbound, COMDAT
; _this$ = ecx

; 1741 : 		{	// find leftmost node not less than _Keyval

  00000	55		 push	 ebp
  00001	8b ec		 mov	 ebp, esp

; 1742 : 		_Nodeptr _Pnode = _Root();

  00003	8b 41 04	 mov	 eax, DWORD PTR [ecx+4]
  00006	8b 48 04	 mov	 ecx, DWORD PTR [eax+4]

; 1743 : 		_Nodeptr _Wherenode = this->_Myhead;	// end() if search fails
; 1744 : 
; 1745 : 		while (!this->_Isnil(_Pnode))

  00009	80 79 15 00	 cmp	 BYTE PTR [ecx+21], 0
  0000d	75 19		 jne	 SHORT $LN3@Lbound
  0000f	8b 55 08	 mov	 edx, DWORD PTR __Keyval$[ebp]
  00012	8b 12		 mov	 edx, DWORD PTR [edx]
$LL4@Lbound:

; 1746 : 			if (_DEBUG_LT_PRED(this->comp, this->_Key(_Pnode), _Keyval))

  00014	39 51 0c	 cmp	 DWORD PTR [ecx+12], edx
  00017	7d 05		 jge	 SHORT $LN2@Lbound

; 1747 : 				_Pnode = this->_Right(_Pnode);	// descend right subtree

  00019	8b 49 08	 mov	 ecx, DWORD PTR [ecx+8]

; 1748 : 			else

  0001c	eb 04		 jmp	 SHORT $LN1@Lbound
$LN2@Lbound:

; 1749 : 				{	// _Pnode not less than _Keyval, remember it
; 1750 : 				_Wherenode = _Pnode;

  0001e	8b c1		 mov	 eax, ecx

; 1751 : 				_Pnode = this->_Left(_Pnode);	// descend left subtree

  00020	8b 09		 mov	 ecx, DWORD PTR [ecx]
$LN1@Lbound:

; 1743 : 		_Nodeptr _Wherenode = this->_Myhead;	// end() if search fails
; 1744 : 
; 1745 : 		while (!this->_Isnil(_Pnode))

  00022	80 79 15 00	 cmp	 BYTE PTR [ecx+21], 0
  00026	74 ec		 je	 SHORT $LL4@Lbound
$LN3@Lbound:

; 1752 : 				}
; 1753 : 
; 1754 : 		return (_Wherenode);	// return best remembered candidate
; 1755 : 		}

  00028	5d		 pop	 ebp
  00029	c2 04 00	 ret	 4
?_Lbound@?$_Tree@V?$_Tmap_traits@HHU?$less@H@std@@V?$allocator@U?$pair@$$CBHH@std@@@2@$0A@@std@@@std@@IAEPAU_Node@?$_Tree_nod@V?$_Tmap_traits@HHU?$less@H@std@@V?$allocator@U?$pair@$$CBHH@std@@@2@$0A@@std@@@2@ABH@Z ENDP ; std::_Tree<std::_Tmap_traits<int,int,std::less<int>,std::allocator<std::pair<int const ,int> >,0> >::_Lbound
_TEXT	ENDS
PUBLIC	??0?$_Tree_val@V?$_Tmap_traits@HHU?$less@H@std@@V?$allocator@U?$pair@$$CBHH@std@@@2@$0A@@std@@@std@@QAE@ABU?$less@H@1@V?$allocator@U?$pair@$$CBHH@std@@@1@@Z ; std::_Tree_val<std::_Tmap_traits<int,int,std::less<int>,std::allocator<std::pair<int const ,int> >,0> >::_Tree_val<std::_Tmap_traits<int,int,std::less<int>,std::allocator<std::pair<int const ,int> >,0> >
; Function compile flags: /Ogsp
;	COMDAT ??0?$_Tree_val@V?$_Tmap_traits@HHU?$less@H@std@@V?$allocator@U?$pair@$$CBHH@std@@@2@$0A@@std@@@std@@QAE@ABU?$less@H@1@V?$allocator@U?$pair@$$CBHH@std@@@1@@Z
_TEXT	SEGMENT
$T509354 = -16						; size = 12
$T509337 = -4						; size = 4
__Parg$ = 8						; size = 4
__Al$ = 12						; size = 1
??0?$_Tree_val@V?$_Tmap_traits@HHU?$less@H@std@@V?$allocator@U?$pair@$$CBHH@std@@@2@$0A@@std@@@std@@QAE@ABU?$less@H@1@V?$allocator@U?$pair@$$CBHH@std@@@1@@Z PROC ; std::_Tree_val<std::_Tmap_traits<int,int,std::less<int>,std::allocator<std::pair<int const ,int> >,0> >::_Tree_val<std::_Tmap_traits<int,int,std::less<int>,std::allocator<std::pair<int const ,int> >,0> >, COMDAT
; _this$ = ecx

; 542  : 		{	// construct base, and allocator from _Al

  00000	55		 push	 ebp
  00001	8b ec		 mov	 ebp, esp
  00003	83 ec 10	 sub	 esp, 16			; 00000010H
  00006	56		 push	 esi
  00007	8b f1		 mov	 esi, ecx

; 543  : 		this->_Mysize = 0;

  00009	83 66 08 00	 and	 DWORD PTR [esi+8], 0

; 544  : 		this->_Myhead = this->_Alnod.allocate(1);

  0000d	6a 18		 push	 24			; 00000018H
  0000f	e8 00 00 00 00	 call	 ??2@YAPAXI@Z		; operator new
  00014	59		 pop	 ecx
  00015	85 c0		 test	 eax, eax
  00017	74 26		 je	 SHORT $LN15@Tree_val
  00019	89 46 04	 mov	 DWORD PTR [esi+4], eax

; 545  : 
; 546  : 		this->_Left(this->_Myhead) = this->_Myhead;

  0001c	89 00		 mov	 DWORD PTR [eax], eax

; 547  : 		this->_Parent(this->_Myhead) = this->_Myhead;

  0001e	8b 46 04	 mov	 eax, DWORD PTR [esi+4]
  00021	89 40 04	 mov	 DWORD PTR [eax+4], eax

; 548  : 		this->_Right(this->_Myhead) = this->_Myhead;

  00024	8b 46 04	 mov	 eax, DWORD PTR [esi+4]
  00027	89 40 08	 mov	 DWORD PTR [eax+8], eax

; 549  : 		this->_Color(this->_Myhead) = this->_Black;

  0002a	8b 46 04	 mov	 eax, DWORD PTR [esi+4]
  0002d	c6 40 14 01	 mov	 BYTE PTR [eax+20], 1

; 550  : 		this->_Isnil(this->_Myhead) = true;

  00031	8b 46 04	 mov	 eax, DWORD PTR [esi+4]
  00034	c6 40 15 01	 mov	 BYTE PTR [eax+21], 1

; 551  : 		}

  00038	8b c6		 mov	 eax, esi
  0003a	5e		 pop	 esi
  0003b	c9		 leave
  0003c	c2 08 00	 ret	 8

; 544  : 		this->_Myhead = this->_Alnod.allocate(1);

$LN15@Tree_val:
  0003f	83 65 fc 00	 and	 DWORD PTR $T509337[ebp], 0
  00043	8d 45 fc	 lea	 eax, DWORD PTR $T509337[ebp]
  00046	50		 push	 eax
  00047	8d 4d f0	 lea	 ecx, DWORD PTR $T509354[ebp]
  0004a	ff 15 00 00 00
	00		 call	 DWORD PTR __imp_??0exception@std@@QAE@ABQBD@Z
  00050	68 00 00 00 00	 push	 OFFSET __TI2?AVbad_alloc@std@@
  00055	8d 45 f0	 lea	 eax, DWORD PTR $T509354[ebp]
  00058	50		 push	 eax
  00059	c7 45 f0 00 00
	00 00		 mov	 DWORD PTR $T509354[ebp], OFFSET ??_7bad_alloc@std@@6B@
  00060	e8 00 00 00 00	 call	 __CxxThrowException@8
$LN37@Tree_val:
$LN36@Tree_val:
  00065	cc		 int	 3
??0?$_Tree_val@V?$_Tmap_traits@HHU?$less@H@std@@V?$allocator@U?$pair@$$CBHH@std@@@2@$0A@@std@@@std@@QAE@ABU?$less@H@1@V?$allocator@U?$pair@$$CBHH@std@@@1@@Z ENDP ; std::_Tree_val<std::_Tmap_traits<int,int,std::less<int>,std::allocator<std::pair<int const ,int> >,0> >::_Tree_val<std::_Tmap_traits<int,int,std::less<int>,std::allocator<std::pair<int const ,int> >,0> >
_TEXT	ENDS
PUBLIC	??$?0$0BN@@ioINILoader_e@@QAE@AAY0BN@$$CBD_N@Z	; ioINILoader_e::ioINILoader_e<29>
EXTRN	__imp_??0ioINILoader@@QAE@PBD_N@Z:PROC
; Function compile flags: /Ogsp
; File d:\lost saga for developer\youtube\tutorial\source\src\io3dengine\ioiniloader.h
;	COMDAT ??$?0$0BN@@ioINILoader_e@@QAE@AAY0BN@$$CBD_N@Z
_TEXT	SEGMENT
_fn$ = 8						; size = 4
_b$ = 12						; size = 1
??$?0$0BN@@ioINILoader_e@@QAE@AAY0BN@$$CBD_N@Z PROC	; ioINILoader_e::ioINILoader_e<29>, COMDAT
; _this$ = ecx

; 224  : 	{

  00000	55		 push	 ebp
  00001	8b ec		 mov	 ebp, esp
  00003	53		 push	 ebx
  00004	56		 push	 esi
  00005	8b f1		 mov	 esi, ecx
  00007	8b 4d 08	 mov	 ecx, DWORD PTR _fn$[ebp]
  0000a	8a 11		 mov	 dl, BYTE PTR [ecx]
  0000c	8d 86 50 03 00
	00		 lea	 eax, DWORD PTR [esi+848]
  00012	84 d2		 test	 dl, dl
  00014	0f 84 6a 04 00
	00		 je	 $LN99@ioINILoade
  0001a	80 f2 ed	 xor	 dl, -19			; ffffffedH
  0001d	88 10		 mov	 BYTE PTR [eax], dl
  0001f	8a 51 01	 mov	 dl, BYTE PTR [ecx+1]
  00022	84 d2		 test	 dl, dl
  00024	0f 84 54 04 00
	00		 je	 $LN98@ioINILoade
  0002a	80 f2 ec	 xor	 dl, -20			; ffffffecH
  0002d	88 50 01	 mov	 BYTE PTR [eax+1], dl
  00030	8a 51 02	 mov	 dl, BYTE PTR [ecx+2]
  00033	84 d2		 test	 dl, dl
  00035	0f 84 3d 04 00
	00		 je	 $LN97@ioINILoade
  0003b	b3 eb		 mov	 bl, -21			; ffffffebH
  0003d	32 d3		 xor	 dl, bl
  0003f	88 50 02	 mov	 BYTE PTR [eax+2], dl
  00042	8a 51 03	 mov	 dl, BYTE PTR [ecx+3]
  00045	84 d2		 test	 dl, dl
  00047	0f 84 25 04 00
	00		 je	 $LN96@ioINILoade
  0004d	80 f2 ea	 xor	 dl, -22			; ffffffeaH
  00050	88 50 03	 mov	 BYTE PTR [eax+3], dl
  00053	8a 51 04	 mov	 dl, BYTE PTR [ecx+4]
  00056	84 d2		 test	 dl, dl
  00058	0f 84 0e 04 00
	00		 je	 $LN95@ioINILoade
  0005e	80 f2 ed	 xor	 dl, -19			; ffffffedH
  00061	88 50 04	 mov	 BYTE PTR [eax+4], dl
  00064	8a 51 05	 mov	 dl, BYTE PTR [ecx+5]
  00067	84 d2		 test	 dl, dl
  00069	0f 84 f7 03 00
	00		 je	 $LN94@ioINILoade
  0006f	80 f2 ec	 xor	 dl, -20			; ffffffecH
  00072	88 50 05	 mov	 BYTE PTR [eax+5], dl
  00075	8a 51 06	 mov	 dl, BYTE PTR [ecx+6]
  00078	84 d2		 test	 dl, dl
  0007a	0f 84 e1 03 00
	00		 je	 $LN93@ioINILoade
  00080	32 d3		 xor	 dl, bl
  00082	88 50 06	 mov	 BYTE PTR [eax+6], dl
  00085	8a 51 07	 mov	 dl, BYTE PTR [ecx+7]
  00088	84 d2		 test	 dl, dl
  0008a	0f 84 cb 03 00
	00		 je	 $LN92@ioINILoade
  00090	80 f2 ea	 xor	 dl, -22			; ffffffeaH
  00093	88 50 07	 mov	 BYTE PTR [eax+7], dl
  00096	8a 51 08	 mov	 dl, BYTE PTR [ecx+8]
  00099	84 d2		 test	 dl, dl
  0009b	0f 84 b4 03 00
	00		 je	 $LN91@ioINILoade
  000a1	80 f2 ed	 xor	 dl, -19			; ffffffedH
  000a4	88 50 08	 mov	 BYTE PTR [eax+8], dl
  000a7	8a 51 09	 mov	 dl, BYTE PTR [ecx+9]
  000aa	84 d2		 test	 dl, dl
  000ac	0f 84 9d 03 00
	00		 je	 $LN90@ioINILoade
  000b2	80 f2 ec	 xor	 dl, -20			; ffffffecH
  000b5	88 50 09	 mov	 BYTE PTR [eax+9], dl
  000b8	8a 51 0a	 mov	 dl, BYTE PTR [ecx+10]
  000bb	84 d2		 test	 dl, dl
  000bd	0f 84 87 03 00
	00		 je	 $LN89@ioINILoade
  000c3	32 d3		 xor	 dl, bl
  000c5	88 50 0a	 mov	 BYTE PTR [eax+10], dl
  000c8	8a 51 0b	 mov	 dl, BYTE PTR [ecx+11]
  000cb	84 d2		 test	 dl, dl
  000cd	0f 84 71 03 00
	00		 je	 $LN88@ioINILoade
  000d3	80 f2 ea	 xor	 dl, -22			; ffffffeaH
  000d6	88 50 0b	 mov	 BYTE PTR [eax+11], dl
  000d9	8a 51 0c	 mov	 dl, BYTE PTR [ecx+12]
  000dc	84 d2		 test	 dl, dl
  000de	0f 84 5a 03 00
	00		 je	 $LN87@ioINILoade
  000e4	80 f2 ed	 xor	 dl, -19			; ffffffedH
  000e7	88 50 0c	 mov	 BYTE PTR [eax+12], dl
  000ea	8a 51 0d	 mov	 dl, BYTE PTR [ecx+13]
  000ed	84 d2		 test	 dl, dl
  000ef	0f 84 43 03 00
	00		 je	 $LN86@ioINILoade
  000f5	80 f2 ec	 xor	 dl, -20			; ffffffecH
  000f8	88 50 0d	 mov	 BYTE PTR [eax+13], dl
  000fb	8a 51 0e	 mov	 dl, BYTE PTR [ecx+14]
  000fe	84 d2		 test	 dl, dl
  00100	0f 84 2d 03 00
	00		 je	 $LN85@ioINILoade
  00106	32 d3		 xor	 dl, bl
  00108	88 50 0e	 mov	 BYTE PTR [eax+14], dl
  0010b	8a 51 0f	 mov	 dl, BYTE PTR [ecx+15]
  0010e	84 d2		 test	 dl, dl
  00110	0f 84 17 03 00
	00		 je	 $LN84@ioINILoade
  00116	80 f2 ea	 xor	 dl, -22			; ffffffeaH
  00119	88 50 0f	 mov	 BYTE PTR [eax+15], dl
  0011c	8a 51 10	 mov	 dl, BYTE PTR [ecx+16]
  0011f	84 d2		 test	 dl, dl
  00121	0f 84 00 03 00
	00		 je	 $LN83@ioINILoade
  00127	80 f2 ed	 xor	 dl, -19			; ffffffedH
  0012a	88 50 10	 mov	 BYTE PTR [eax+16], dl
  0012d	8a 51 11	 mov	 dl, BYTE PTR [ecx+17]
  00130	84 d2		 test	 dl, dl
  00132	0f 84 e9 02 00
	00		 je	 $LN82@ioINILoade
  00138	80 f2 ec	 xor	 dl, -20			; ffffffecH
  0013b	88 50 11	 mov	 BYTE PTR [eax+17], dl
  0013e	8a 51 12	 mov	 dl, BYTE PTR [ecx+18]
  00141	84 d2		 test	 dl, dl
  00143	0f 84 d3 02 00
	00		 je	 $LN81@ioINILoade
  00149	32 d3		 xor	 dl, bl
  0014b	88 50 12	 mov	 BYTE PTR [eax+18], dl
  0014e	8a 51 13	 mov	 dl, BYTE PTR [ecx+19]
  00151	84 d2		 test	 dl, dl
  00153	0f 84 bd 02 00
	00		 je	 $LN80@ioINILoade
  00159	80 f2 ea	 xor	 dl, -22			; ffffffeaH
  0015c	88 50 13	 mov	 BYTE PTR [eax+19], dl
  0015f	8a 51 14	 mov	 dl, BYTE PTR [ecx+20]
  00162	84 d2		 test	 dl, dl
  00164	0f 84 a6 02 00
	00		 je	 $LN79@ioINILoade
  0016a	80 f2 ed	 xor	 dl, -19			; ffffffedH
  0016d	88 50 14	 mov	 BYTE PTR [eax+20], dl
  00170	8a 51 15	 mov	 dl, BYTE PTR [ecx+21]
  00173	84 d2		 test	 dl, dl
  00175	0f 84 8f 02 00
	00		 je	 $LN78@ioINILoade
  0017b	80 f2 ec	 xor	 dl, -20			; ffffffecH
  0017e	88 50 15	 mov	 BYTE PTR [eax+21], dl
  00181	8a 51 16	 mov	 dl, BYTE PTR [ecx+22]
  00184	84 d2		 test	 dl, dl
  00186	0f 84 79 02 00
	00		 je	 $LN77@ioINILoade
  0018c	32 d3		 xor	 dl, bl
  0018e	88 50 16	 mov	 BYTE PTR [eax+22], dl
  00191	8a 51 17	 mov	 dl, BYTE PTR [ecx+23]
  00194	84 d2		 test	 dl, dl
  00196	0f 84 60 02 00
	00		 je	 $LN76@ioINILoade
  0019c	80 f2 ea	 xor	 dl, -22			; ffffffeaH
  0019f	88 50 17	 mov	 BYTE PTR [eax+23], dl
  001a2	8a 51 18	 mov	 dl, BYTE PTR [ecx+24]
  001a5	84 d2		 test	 dl, dl
  001a7	0f 84 46 02 00
	00		 je	 $LN75@ioINILoade
  001ad	80 f2 ed	 xor	 dl, -19			; ffffffedH
  001b0	88 50 18	 mov	 BYTE PTR [eax+24], dl
  001b3	8a 51 19	 mov	 dl, BYTE PTR [ecx+25]
  001b6	84 d2		 test	 dl, dl
  001b8	0f 84 2c 02 00
	00		 je	 $LN74@ioINILoade
  001be	80 f2 ec	 xor	 dl, -20			; ffffffecH
  001c1	88 50 19	 mov	 BYTE PTR [eax+25], dl
  001c4	8a 51 1a	 mov	 dl, BYTE PTR [ecx+26]
  001c7	84 d2		 test	 dl, dl
  001c9	0f 84 13 02 00
	00		 je	 $LN73@ioINILoade
  001cf	32 d3		 xor	 dl, bl
  001d1	88 50 1a	 mov	 BYTE PTR [eax+26], dl
  001d4	8a 51 1b	 mov	 dl, BYTE PTR [ecx+27]
  001d7	84 d2		 test	 dl, dl
  001d9	0f 84 fa 01 00
	00		 je	 $LN72@ioINILoade
  001df	80 f2 ea	 xor	 dl, -22			; ffffffeaH
  001e2	88 50 1b	 mov	 BYTE PTR [eax+27], dl
  001e5	8a 51 1c	 mov	 dl, BYTE PTR [ecx+28]
  001e8	84 d2		 test	 dl, dl
  001ea	0f 84 e0 01 00
	00		 je	 $LN71@ioINILoade
  001f0	80 f2 ed	 xor	 dl, -19			; ffffffedH
  001f3	88 50 1c	 mov	 BYTE PTR [eax+28], dl
  001f6	8a 51 1d	 mov	 dl, BYTE PTR [ecx+29]
  001f9	84 d2		 test	 dl, dl
  001fb	0f 84 c6 01 00
	00		 je	 $LN70@ioINILoade
  00201	80 f2 ec	 xor	 dl, -20			; ffffffecH
  00204	88 50 1d	 mov	 BYTE PTR [eax+29], dl
  00207	8a 51 1e	 mov	 dl, BYTE PTR [ecx+30]
  0020a	84 d2		 test	 dl, dl
  0020c	0f 84 ad 01 00
	00		 je	 $LN69@ioINILoade
  00212	32 d3		 xor	 dl, bl
  00214	88 50 1e	 mov	 BYTE PTR [eax+30], dl
  00217	8a 51 1f	 mov	 dl, BYTE PTR [ecx+31]
  0021a	84 d2		 test	 dl, dl
  0021c	0f 84 94 01 00
	00		 je	 $LN68@ioINILoade
  00222	80 f2 ea	 xor	 dl, -22			; ffffffeaH
  00225	88 50 1f	 mov	 BYTE PTR [eax+31], dl
  00228	8a 51 20	 mov	 dl, BYTE PTR [ecx+32]
  0022b	84 d2		 test	 dl, dl
  0022d	0f 84 7a 01 00
	00		 je	 $LN67@ioINILoade
  00233	80 f2 ed	 xor	 dl, -19			; ffffffedH
  00236	88 50 20	 mov	 BYTE PTR [eax+32], dl
  00239	8a 51 21	 mov	 dl, BYTE PTR [ecx+33]
  0023c	84 d2		 test	 dl, dl
  0023e	0f 84 60 01 00
	00		 je	 $LN66@ioINILoade
  00244	80 f2 ec	 xor	 dl, -20			; ffffffecH
  00247	88 50 21	 mov	 BYTE PTR [eax+33], dl
  0024a	8a 51 22	 mov	 dl, BYTE PTR [ecx+34]
  0024d	84 d2		 test	 dl, dl
  0024f	0f 84 47 01 00
	00		 je	 $LN65@ioINILoade
  00255	32 d3		 xor	 dl, bl
  00257	88 50 22	 mov	 BYTE PTR [eax+34], dl
  0025a	8a 51 23	 mov	 dl, BYTE PTR [ecx+35]
  0025d	84 d2		 test	 dl, dl
  0025f	0f 84 2e 01 00
	00		 je	 $LN64@ioINILoade
  00265	80 f2 ea	 xor	 dl, -22			; ffffffeaH
  00268	88 50 23	 mov	 BYTE PTR [eax+35], dl
  0026b	8a 51 24	 mov	 dl, BYTE PTR [ecx+36]
  0026e	84 d2		 test	 dl, dl
  00270	0f 84 14 01 00
	00		 je	 $LN63@ioINILoade
  00276	80 f2 ed	 xor	 dl, -19			; ffffffedH
  00279	88 50 24	 mov	 BYTE PTR [eax+36], dl
  0027c	8a 51 25	 mov	 dl, BYTE PTR [ecx+37]
  0027f	84 d2		 test	 dl, dl
  00281	0f 84 fa 00 00
	00		 je	 $LN62@ioINILoade
  00287	80 f2 ec	 xor	 dl, -20			; ffffffecH
  0028a	88 50 25	 mov	 BYTE PTR [eax+37], dl
  0028d	8a 51 26	 mov	 dl, BYTE PTR [ecx+38]
  00290	84 d2		 test	 dl, dl
  00292	0f 84 e1 00 00
	00		 je	 $LN61@ioINILoade
  00298	32 d3		 xor	 dl, bl
  0029a	88 50 26	 mov	 BYTE PTR [eax+38], dl
  0029d	8a 51 27	 mov	 dl, BYTE PTR [ecx+39]
  002a0	84 d2		 test	 dl, dl
  002a2	0f 84 c8 00 00
	00		 je	 $LN60@ioINILoade
  002a8	80 f2 ea	 xor	 dl, -22			; ffffffeaH
  002ab	88 50 27	 mov	 BYTE PTR [eax+39], dl
  002ae	8a 51 28	 mov	 dl, BYTE PTR [ecx+40]
  002b1	84 d2		 test	 dl, dl
  002b3	0f 84 ae 00 00
	00		 je	 $LN59@ioINILoade
  002b9	80 f2 ed	 xor	 dl, -19			; ffffffedH
  002bc	88 50 28	 mov	 BYTE PTR [eax+40], dl
  002bf	8a 51 29	 mov	 dl, BYTE PTR [ecx+41]
  002c2	84 d2		 test	 dl, dl
  002c4	0f 84 94 00 00
	00		 je	 $LN58@ioINILoade
  002ca	80 f2 ec	 xor	 dl, -20			; ffffffecH
  002cd	88 50 29	 mov	 BYTE PTR [eax+41], dl
  002d0	8a 51 2a	 mov	 dl, BYTE PTR [ecx+42]
  002d3	84 d2		 test	 dl, dl
  002d5	74 7f		 je	 SHORT $LN57@ioINILoade
  002d7	32 d3		 xor	 dl, bl
  002d9	88 50 2a	 mov	 BYTE PTR [eax+42], dl
  002dc	8a 51 2b	 mov	 dl, BYTE PTR [ecx+43]
  002df	84 d2		 test	 dl, dl
  002e1	74 6a		 je	 SHORT $LN56@ioINILoade
  002e3	80 f2 ea	 xor	 dl, -22			; ffffffeaH
  002e6	88 50 2b	 mov	 BYTE PTR [eax+43], dl
  002e9	8a 51 2c	 mov	 dl, BYTE PTR [ecx+44]
  002ec	84 d2		 test	 dl, dl
  002ee	74 54		 je	 SHORT $LN55@ioINILoade
  002f0	80 f2 ed	 xor	 dl, -19			; ffffffedH
  002f3	88 50 2c	 mov	 BYTE PTR [eax+44], dl
  002f6	8a 51 2d	 mov	 dl, BYTE PTR [ecx+45]
  002f9	84 d2		 test	 dl, dl
  002fb	74 3e		 je	 SHORT $LN54@ioINILoade
  002fd	80 f2 ec	 xor	 dl, -20			; ffffffecH
  00300	88 50 2d	 mov	 BYTE PTR [eax+45], dl
  00303	8a 51 2e	 mov	 dl, BYTE PTR [ecx+46]
  00306	84 d2		 test	 dl, dl
  00308	74 29		 je	 SHORT $LN53@ioINILoade
  0030a	32 d3		 xor	 dl, bl
  0030c	88 50 2e	 mov	 BYTE PTR [eax+46], dl
  0030f	8a 51 2f	 mov	 dl, BYTE PTR [ecx+47]
  00312	84 d2		 test	 dl, dl
  00314	74 14		 je	 SHORT $LN52@ioINILoade
  00316	80 f2 ea	 xor	 dl, -22			; ffffffeaH
  00319	88 50 2f	 mov	 BYTE PTR [eax+47], dl
  0031c	8a 49 30	 mov	 cl, BYTE PTR [ecx+48]
  0031f	80 f1 ed	 xor	 cl, -19			; ffffffedH
  00322	88 48 30	 mov	 BYTE PTR [eax+48], cl
  00325	e9 5d 01 00 00	 jmp	 $LN4@ioINILoade
$LN52@ioINILoade:
  0032a	c6 40 2f ea	 mov	 BYTE PTR [eax+47], -22	; ffffffeaH
  0032e	e9 54 01 00 00	 jmp	 $LN4@ioINILoade
$LN53@ioINILoade:
  00333	88 58 2e	 mov	 BYTE PTR [eax+46], bl
  00336	e9 4c 01 00 00	 jmp	 $LN4@ioINILoade
$LN54@ioINILoade:
  0033b	c6 40 2d ec	 mov	 BYTE PTR [eax+45], -20	; ffffffecH
  0033f	e9 43 01 00 00	 jmp	 $LN4@ioINILoade
$LN55@ioINILoade:
  00344	c6 40 2c ed	 mov	 BYTE PTR [eax+44], -19	; ffffffedH
  00348	e9 3a 01 00 00	 jmp	 $LN4@ioINILoade
$LN56@ioINILoade:
  0034d	c6 40 2b ea	 mov	 BYTE PTR [eax+43], -22	; ffffffeaH
  00351	e9 31 01 00 00	 jmp	 $LN4@ioINILoade
$LN57@ioINILoade:
  00356	88 58 2a	 mov	 BYTE PTR [eax+42], bl
  00359	e9 29 01 00 00	 jmp	 $LN4@ioINILoade
$LN58@ioINILoade:
  0035e	c6 40 29 ec	 mov	 BYTE PTR [eax+41], -20	; ffffffecH
  00362	e9 20 01 00 00	 jmp	 $LN4@ioINILoade
$LN59@ioINILoade:
  00367	c6 40 28 ed	 mov	 BYTE PTR [eax+40], -19	; ffffffedH
  0036b	e9 17 01 00 00	 jmp	 $LN4@ioINILoade
$LN60@ioINILoade:
  00370	c6 40 27 ea	 mov	 BYTE PTR [eax+39], -22	; ffffffeaH
  00374	e9 0e 01 00 00	 jmp	 $LN4@ioINILoade
$LN61@ioINILoade:
  00379	88 58 26	 mov	 BYTE PTR [eax+38], bl
  0037c	e9 06 01 00 00	 jmp	 $LN4@ioINILoade
$LN62@ioINILoade:
  00381	c6 40 25 ec	 mov	 BYTE PTR [eax+37], -20	; ffffffecH
  00385	e9 fd 00 00 00	 jmp	 $LN4@ioINILoade
$LN63@ioINILoade:
  0038a	c6 40 24 ed	 mov	 BYTE PTR [eax+36], -19	; ffffffedH
  0038e	e9 f4 00 00 00	 jmp	 $LN4@ioINILoade
$LN64@ioINILoade:
  00393	c6 40 23 ea	 mov	 BYTE PTR [eax+35], -22	; ffffffeaH
  00397	e9 eb 00 00 00	 jmp	 $LN4@ioINILoade
$LN65@ioINILoade:
  0039c	88 58 22	 mov	 BYTE PTR [eax+34], bl
  0039f	e9 e3 00 00 00	 jmp	 $LN4@ioINILoade
$LN66@ioINILoade:
  003a4	c6 40 21 ec	 mov	 BYTE PTR [eax+33], -20	; ffffffecH
  003a8	e9 da 00 00 00	 jmp	 $LN4@ioINILoade
$LN67@ioINILoade:
  003ad	c6 40 20 ed	 mov	 BYTE PTR [eax+32], -19	; ffffffedH
  003b1	e9 d1 00 00 00	 jmp	 $LN4@ioINILoade
$LN68@ioINILoade:
  003b6	c6 40 1f ea	 mov	 BYTE PTR [eax+31], -22	; ffffffeaH
  003ba	e9 c8 00 00 00	 jmp	 $LN4@ioINILoade
$LN69@ioINILoade:
  003bf	88 58 1e	 mov	 BYTE PTR [eax+30], bl
  003c2	e9 c0 00 00 00	 jmp	 $LN4@ioINILoade
$LN70@ioINILoade:
  003c7	c6 40 1d ec	 mov	 BYTE PTR [eax+29], -20	; ffffffecH
  003cb	e9 b7 00 00 00	 jmp	 $LN4@ioINILoade
$LN71@ioINILoade:
  003d0	c6 40 1c ed	 mov	 BYTE PTR [eax+28], -19	; ffffffedH
  003d4	e9 ae 00 00 00	 jmp	 $LN4@ioINILoade
$LN72@ioINILoade:
  003d9	c6 40 1b ea	 mov	 BYTE PTR [eax+27], -22	; ffffffeaH
  003dd	e9 a5 00 00 00	 jmp	 $LN4@ioINILoade
$LN73@ioINILoade:
  003e2	88 58 1a	 mov	 BYTE PTR [eax+26], bl
  003e5	e9 9d 00 00 00	 jmp	 $LN4@ioINILoade
$LN74@ioINILoade:
  003ea	c6 40 19 ec	 mov	 BYTE PTR [eax+25], -20	; ffffffecH
  003ee	e9 94 00 00 00	 jmp	 $LN4@ioINILoade
$LN75@ioINILoade:
  003f3	c6 40 18 ed	 mov	 BYTE PTR [eax+24], -19	; ffffffedH
  003f7	e9 8b 00 00 00	 jmp	 $LN4@ioINILoade
$LN76@ioINILoade:
  003fc	c6 40 17 ea	 mov	 BYTE PTR [eax+23], -22	; ffffffeaH
  00400	e9 82 00 00 00	 jmp	 $LN4@ioINILoade
$LN77@ioINILoade:
  00405	88 58 16	 mov	 BYTE PTR [eax+22], bl
  00408	eb 7d		 jmp	 SHORT $LN4@ioINILoade
$LN78@ioINILoade:
  0040a	c6 40 15 ec	 mov	 BYTE PTR [eax+21], -20	; ffffffecH
  0040e	eb 77		 jmp	 SHORT $LN4@ioINILoade
$LN79@ioINILoade:
  00410	c6 40 14 ed	 mov	 BYTE PTR [eax+20], -19	; ffffffedH
  00414	eb 71		 jmp	 SHORT $LN4@ioINILoade
$LN80@ioINILoade:
  00416	c6 40 13 ea	 mov	 BYTE PTR [eax+19], -22	; ffffffeaH
  0041a	eb 6b		 jmp	 SHORT $LN4@ioINILoade
$LN81@ioINILoade:
  0041c	88 58 12	 mov	 BYTE PTR [eax+18], bl
  0041f	eb 66		 jmp	 SHORT $LN4@ioINILoade
$LN82@ioINILoade:
  00421	c6 40 11 ec	 mov	 BYTE PTR [eax+17], -20	; ffffffecH
  00425	eb 60		 jmp	 SHORT $LN4@ioINILoade
$LN83@ioINILoade:
  00427	c6 40 10 ed	 mov	 BYTE PTR [eax+16], -19	; ffffffedH
  0042b	eb 5a		 jmp	 SHORT $LN4@ioINILoade
$LN84@ioINILoade:
  0042d	c6 40 0f ea	 mov	 BYTE PTR [eax+15], -22	; ffffffeaH
  00431	eb 54		 jmp	 SHORT $LN4@ioINILoade
$LN85@ioINILoade:
  00433	88 58 0e	 mov	 BYTE PTR [eax+14], bl
  00436	eb 4f		 jmp	 SHORT $LN4@ioINILoade
$LN86@ioINILoade:
  00438	c6 40 0d ec	 mov	 BYTE PTR [eax+13], -20	; ffffffecH
  0043c	eb 49		 jmp	 SHORT $LN4@ioINILoade
$LN87@ioINILoade:
  0043e	c6 40 0c ed	 mov	 BYTE PTR [eax+12], -19	; ffffffedH
  00442	eb 43		 jmp	 SHORT $LN4@ioINILoade
$LN88@ioINILoade:
  00444	c6 40 0b ea	 mov	 BYTE PTR [eax+11], -22	; ffffffeaH
  00448	eb 3d		 jmp	 SHORT $LN4@ioINILoade
$LN89@ioINILoade:
  0044a	88 58 0a	 mov	 BYTE PTR [eax+10], bl
  0044d	eb 38		 jmp	 SHORT $LN4@ioINILoade
$LN90@ioINILoade:
  0044f	c6 40 09 ec	 mov	 BYTE PTR [eax+9], -20	; ffffffecH
  00453	eb 32		 jmp	 SHORT $LN4@ioINILoade
$LN91@ioINILoade:
  00455	c6 40 08 ed	 mov	 BYTE PTR [eax+8], -19	; ffffffedH
  00459	eb 2c		 jmp	 SHORT $LN4@ioINILoade
$LN92@ioINILoade:
  0045b	c6 40 07 ea	 mov	 BYTE PTR [eax+7], -22	; ffffffeaH
  0045f	eb 26		 jmp	 SHORT $LN4@ioINILoade
$LN93@ioINILoade:
  00461	88 58 06	 mov	 BYTE PTR [eax+6], bl
  00464	eb 21		 jmp	 SHORT $LN4@ioINILoade
$LN94@ioINILoade:
  00466	c6 40 05 ec	 mov	 BYTE PTR [eax+5], -20	; ffffffecH
  0046a	eb 1b		 jmp	 SHORT $LN4@ioINILoade
$LN95@ioINILoade:
  0046c	c6 40 04 ed	 mov	 BYTE PTR [eax+4], -19	; ffffffedH
  00470	eb 15		 jmp	 SHORT $LN4@ioINILoade
$LN96@ioINILoade:
  00472	c6 40 03 ea	 mov	 BYTE PTR [eax+3], -22	; ffffffeaH
  00476	eb 0f		 jmp	 SHORT $LN4@ioINILoade
$LN97@ioINILoade:
  00478	c6 40 02 eb	 mov	 BYTE PTR [eax+2], -21	; ffffffebH
  0047c	eb 09		 jmp	 SHORT $LN4@ioINILoade
$LN98@ioINILoade:
  0047e	c6 40 01 ec	 mov	 BYTE PTR [eax+1], -20	; ffffffecH
  00482	eb 03		 jmp	 SHORT $LN4@ioINILoade
$LN99@ioINILoade:
  00484	c6 00 ed	 mov	 BYTE PTR [eax], -19	; ffffffedH
$LN4@ioINILoade:
  00487	6a 07		 push	 7
  00489	8b c8		 mov	 ecx, eax
  0048b	c6 40 1c 00	 mov	 BYTE PTR [eax+28], 0
  0048f	5a		 pop	 edx
$LL107@ioINILoade:
  00490	81 31 ed ec eb
	ea		 xor	 DWORD PTR [ecx], -353637139 ; eaebecedH
  00496	83 c1 04	 add	 ecx, 4
  00499	4a		 dec	 edx
  0049a	75 f4		 jne	 SHORT $LL107@ioINILoade
  0049c	ff 75 0c	 push	 DWORD PTR _b$[ebp]
  0049f	8b ce		 mov	 ecx, esi
  004a1	50		 push	 eax
  004a2	ff 15 00 00 00
	00		 call	 DWORD PTR __imp_??0ioINILoader@@QAE@PBD_N@Z

; 225  : 	}

  004a8	8b c6		 mov	 eax, esi
  004aa	5e		 pop	 esi
  004ab	5b		 pop	 ebx
  004ac	5d		 pop	 ebp
  004ad	c2 08 00	 ret	 8
??$?0$0BN@@ioINILoader_e@@QAE@AAY0BN@$$CBD_N@Z ENDP	; ioINILoader_e::ioINILoader_e<29>
_TEXT	ENDS
PUBLIC	??$?0AAHAAH@?$pair@$$CBHH@std@@QAE@AAH0@Z	; std::pair<int const ,int>::pair<int const ,int><int &,int &>
; Function compile flags: /Ogsp
; File c:\program files (x86)\microsoft visual studio 10.0\vc\include\utility
;	COMDAT ??$?0AAHAAH@?$pair@$$CBHH@std@@QAE@AAH0@Z
_TEXT	SEGMENT
__Val1$ = 8						; size = 4
__Val2$ = 12						; size = 4
??$?0AAHAAH@?$pair@$$CBHH@std@@QAE@AAH0@Z PROC		; std::pair<int const ,int>::pair<int const ,int><int &,int &>, COMDAT
; _this$ = ecx

; 247  : 		{	// construct from moved values

  00000	55		 push	 ebp
  00001	8b ec		 mov	 ebp, esp
  00003	8b c1		 mov	 eax, ecx
  00005	8b 4d 08	 mov	 ecx, DWORD PTR __Val1$[ebp]
  00008	8b 09		 mov	 ecx, DWORD PTR [ecx]
  0000a	89 08		 mov	 DWORD PTR [eax], ecx
  0000c	8b 4d 0c	 mov	 ecx, DWORD PTR __Val2$[ebp]
  0000f	8b 09		 mov	 ecx, DWORD PTR [ecx]
  00011	89 48 04	 mov	 DWORD PTR [eax+4], ecx

; 248  : 		}

  00014	5d		 pop	 ebp
  00015	c2 08 00	 ret	 8
??$?0AAHAAH@?$pair@$$CBHH@std@@QAE@AAH0@Z ENDP		; std::pair<int const ,int>::pair<int const ,int><int &,int &>
_TEXT	ENDS
PUBLIC	??0?$pair@V?$_Tree_iterator@V?$_Tree_val@V?$_Tmap_traits@HHU?$less@H@std@@V?$allocator@U?$pair@$$CBHH@std@@@2@$0A@@std@@@std@@@std@@_N@std@@QAE@$$QAV?$_Tree_iterator@V?$_Tree_val@V?$_Tmap_traits@HHU?$less@H@std@@V?$allocator@U?$pair@$$CBHH@std@@@2@$0A@@std@@@std@@@1@$$QA_N@Z ; std::pair<std::_Tree_iterator<std::_Tree_val<std::_Tmap_traits<int,int,std::less<int>,std::allocator<std::pair<int const ,int> >,0> > >,bool>::pair<std::_Tree_iterator<std::_Tree_val<std::_Tmap_traits<int,int,std::less<int>,std::allocator<std::pair<int const ,int> >,0> > >,bool>
; Function compile flags: /Ogsp
;	COMDAT ??0?$pair@V?$_Tree_iterator@V?$_Tree_val@V?$_Tmap_traits@HHU?$less@H@std@@V?$allocator@U?$pair@$$CBHH@std@@@2@$0A@@std@@@std@@@std@@_N@std@@QAE@$$QAV?$_Tree_iterator@V?$_Tree_val@V?$_Tmap_traits@HHU?$less@H@std@@V?$allocator@U?$pair@$$CBHH@std@@@2@$0A@@std@@@std@@@1@$$QA_N@Z
_TEXT	SEGMENT
__Val1$ = 8						; size = 4
__Val2$ = 12						; size = 4
??0?$pair@V?$_Tree_iterator@V?$_Tree_val@V?$_Tmap_traits@HHU?$less@H@std@@V?$allocator@U?$pair@$$CBHH@std@@@2@$0A@@std@@@std@@@std@@_N@std@@QAE@$$QAV?$_Tree_iterator@V?$_Tree_val@V?$_Tmap_traits@HHU?$less@H@std@@V?$allocator@U?$pair@$$CBHH@std@@@2@$0A@@std@@@std@@@1@$$QA_N@Z PROC ; std::pair<std::_Tree_iterator<std::_Tree_val<std::_Tmap_traits<int,int,std::less<int>,std::allocator<std::pair<int const ,int> >,0> > >,bool>::pair<std::_Tree_iterator<std::_Tree_val<std::_Tmap_traits<int,int,std::less<int>,std::allocator<std::pair<int const ,int> >,0> > >,bool>, COMDAT
; _this$ = ecx

; 227  : 		{	// construct from specified values

  00000	55		 push	 ebp
  00001	8b ec		 mov	 ebp, esp
  00003	8b c1		 mov	 eax, ecx
  00005	8b 4d 08	 mov	 ecx, DWORD PTR __Val1$[ebp]
  00008	8b 09		 mov	 ecx, DWORD PTR [ecx]
  0000a	89 08		 mov	 DWORD PTR [eax], ecx
  0000c	8b 4d 0c	 mov	 ecx, DWORD PTR __Val2$[ebp]
  0000f	8a 09		 mov	 cl, BYTE PTR [ecx]
  00011	88 48 04	 mov	 BYTE PTR [eax+4], cl

; 228  : 		}

  00014	5d		 pop	 ebp
  00015	c2 08 00	 ret	 8
??0?$pair@V?$_Tree_iterator@V?$_Tree_val@V?$_Tmap_traits@HHU?$less@H@std@@V?$allocator@U?$pair@$$CBHH@std@@@2@$0A@@std@@@std@@@std@@_N@std@@QAE@$$QAV?$_Tree_iterator@V?$_Tree_val@V?$_Tmap_traits@HHU?$less@H@std@@V?$allocator@U?$pair@$$CBHH@std@@@2@$0A@@std@@@std@@@1@$$QA_N@Z ENDP ; std::pair<std::_Tree_iterator<std::_Tree_val<std::_Tmap_traits<int,int,std::less<int>,std::allocator<std::pair<int const ,int> >,0> > >,bool>::pair<std::_Tree_iterator<std::_Tree_val<std::_Tmap_traits<int,int,std::less<int>,std::allocator<std::pair<int const ,int> >,0> > >,bool>
_TEXT	ENDS
PUBLIC	??F?$_Tree_const_iterator@V?$_Tree_val@V?$_Tmap_traits@HHU?$less@H@std@@V?$allocator@U?$pair@$$CBHH@std@@@2@$0A@@std@@@std@@@std@@QAEAAV01@XZ ; std::_Tree_const_iterator<std::_Tree_val<std::_Tmap_traits<int,int,std::less<int>,std::allocator<std::pair<int const ,int> >,0> > >::operator--
; Function compile flags: /Ogsp
; File c:\program files (x86)\microsoft visual studio 10.0\vc\include\xtree
;	COMDAT ??F?$_Tree_const_iterator@V?$_Tree_val@V?$_Tmap_traits@HHU?$less@H@std@@V?$allocator@U?$pair@$$CBHH@std@@@2@$0A@@std@@@std@@@std@@QAEAAV01@XZ
_TEXT	SEGMENT
??F?$_Tree_const_iterator@V?$_Tree_val@V?$_Tmap_traits@HHU?$less@H@std@@V?$allocator@U?$pair@$$CBHH@std@@@2@$0A@@std@@@std@@@std@@QAEAAV01@XZ PROC ; std::_Tree_const_iterator<std::_Tree_val<std::_Tmap_traits<int,int,std::less<int>,std::allocator<std::pair<int const ,int> >,0> > >::operator--, COMDAT
; _this$ = ecx

; 277  : 		{	// predecrement

  00000	56		 push	 esi
  00001	8b f1		 mov	 esi, ecx

; 278  :  #if _ITERATOR_DEBUG_LEVEL == 2
; 279  : 		if (this->_Getcont() == 0
; 280  : 			|| this->_Ptr == 0)
; 281  : 			{	// report error
; 282  : 			_DEBUG_ERROR("map/set iterator not decrementable");
; 283  : 			_SCL_SECURE_OUT_OF_RANGE;
; 284  : 			}
; 285  : 
; 286  : 		_Nodeptr _Ptrsav = this->_Ptr;
; 287  : 		--(*(_Mybase *)this);
; 288  : 		if (_Ptrsav == this->_Ptr)
; 289  : 			{	// report error
; 290  : 			_DEBUG_ERROR("map/set iterator not decrementable");
; 291  : 			_SCL_SECURE_OUT_OF_RANGE;
; 292  : 			}
; 293  : 
; 294  :  #elif _ITERATOR_DEBUG_LEVEL == 1
; 295  : 		_SCL_SECURE_VALIDATE(this->_Getcont() != 0 && this->_Ptr != 0);
; 296  : 
; 297  : 		_Nodeptr _Ptrsav = this->_Ptr;
; 298  : 		--(*(_Mybase *)this);
; 299  : 		_SCL_SECURE_VALIDATE(_Ptrsav != this->_Ptr);
; 300  : 
; 301  :  #else /* _ITERATOR_DEBUG_LEVEL == 0 */
; 302  : 		--(*(_Mybase *)this);

  00003	e8 00 00 00 00	 call	 ??F?$_Tree_unchecked_const_iterator@V?$_Tree_val@V?$_Tmap_traits@HHU?$less@H@std@@V?$allocator@U?$pair@$$CBHH@std@@@2@$0A@@std@@@std@@U_Iterator_base0@2@@std@@QAEAAV01@XZ ; std::_Tree_unchecked_const_iterator<std::_Tree_val<std::_Tmap_traits<int,int,std::less<int>,std::allocator<std::pair<int const ,int> >,0> >,std::_Iterator_base0>::operator--

; 303  :  #endif /* _ITERATOR_DEBUG_LEVEL */
; 304  : 
; 305  : 		return (*this);

  00008	8b c6		 mov	 eax, esi
  0000a	5e		 pop	 esi

; 306  : 		}

  0000b	c3		 ret	 0
??F?$_Tree_const_iterator@V?$_Tree_val@V?$_Tmap_traits@HHU?$less@H@std@@V?$allocator@U?$pair@$$CBHH@std@@@2@$0A@@std@@@std@@@std@@QAEAAV01@XZ ENDP ; std::_Tree_const_iterator<std::_Tree_val<std::_Tmap_traits<int,int,std::less<int>,std::allocator<std::pair<int const ,int> >,0> > >::operator--
_TEXT	ENDS
PUBLIC	??$?0AAV?$_Tree_iterator@V?$_Tree_val@V?$_Tmap_traits@HHU?$less@H@std@@V?$allocator@U?$pair@$$CBHH@std@@@2@$0A@@std@@@std@@@std@@_N@?$pair@V?$_Tree_iterator@V?$_Tree_val@V?$_Tmap_traits@HHU?$less@H@std@@V?$allocator@U?$pair@$$CBHH@std@@@2@$0A@@std@@@std@@@std@@_N@std@@QAE@AAV?$_Tree_iterator@V?$_Tree_val@V?$_Tmap_traits@HHU?$less@H@std@@V?$allocator@U?$pair@$$CBHH@std@@@2@$0A@@std@@@std@@@1@$$QA_N@Z ; std::pair<std::_Tree_iterator<std::_Tree_val<std::_Tmap_traits<int,int,std::less<int>,std::allocator<std::pair<int const ,int> >,0> > >,bool>::pair<std::_Tree_iterator<std::_Tree_val<std::_Tmap_traits<int,int,std::less<int>,std::allocator<std::pair<int const ,int> >,0> > >,bool><std::_Tree_iterator<std::_Tree_val<std::_Tmap_traits<int,int,std::less<int>,std::allocator<std::pair<int const ,int> >,0> > > &,bool>
; Function compile flags: /Ogsp
; File c:\program files (x86)\microsoft visual studio 10.0\vc\include\utility
;	COMDAT ??$?0AAV?$_Tree_iterator@V?$_Tree_val@V?$_Tmap_traits@HHU?$less@H@std@@V?$allocator@U?$pair@$$CBHH@std@@@2@$0A@@std@@@std@@@std@@_N@?$pair@V?$_Tree_iterator@V?$_Tree_val@V?$_Tmap_traits@HHU?$less@H@std@@V?$allocator@U?$pair@$$CBHH@std@@@2@$0A@@std@@@std@@@std@@_N@std@@QAE@AAV?$_Tree_iterator@V?$_Tree_val@V?$_Tmap_traits@HHU?$less@H@std@@V?$allocator@U?$pair@$$CBHH@std@@@2@$0A@@std@@@std@@@1@$$QA_N@Z
_TEXT	SEGMENT
__Val1$ = 8						; size = 4
__Val2$ = 12						; size = 4
??$?0AAV?$_Tree_iterator@V?$_Tree_val@V?$_Tmap_traits@HHU?$less@H@std@@V?$allocator@U?$pair@$$CBHH@std@@@2@$0A@@std@@@std@@@std@@_N@?$pair@V?$_Tree_iterator@V?$_Tree_val@V?$_Tmap_traits@HHU?$less@H@std@@V?$allocator@U?$pair@$$CBHH@std@@@2@$0A@@std@@@std@@@std@@_N@std@@QAE@AAV?$_Tree_iterator@V?$_Tree_val@V?$_Tmap_traits@HHU?$less@H@std@@V?$allocator@U?$pair@$$CBHH@std@@@2@$0A@@std@@@std@@@1@$$QA_N@Z PROC ; std::pair<std::_Tree_iterator<std::_Tree_val<std::_Tmap_traits<int,int,std::less<int>,std::allocator<std::pair<int const ,int> >,0> > >,bool>::pair<std::_Tree_iterator<std::_Tree_val<std::_Tmap_traits<int,int,std::less<int>,std::allocator<std::pair<int const ,int> >,0> > >,bool><std::_Tree_iterator<std::_Tree_val<std::_Tmap_traits<int,int,std::less<int>,std::allocator<std::pair<int const ,int> >,0> > > &,bool>, COMDAT
; _this$ = ecx

; 247  : 		{	// construct from moved values

  00000	55		 push	 ebp
  00001	8b ec		 mov	 ebp, esp
  00003	8b c1		 mov	 eax, ecx
  00005	8b 4d 08	 mov	 ecx, DWORD PTR __Val1$[ebp]
  00008	8b 09		 mov	 ecx, DWORD PTR [ecx]
  0000a	89 08		 mov	 DWORD PTR [eax], ecx
  0000c	8b 4d 0c	 mov	 ecx, DWORD PTR __Val2$[ebp]
  0000f	8a 09		 mov	 cl, BYTE PTR [ecx]
  00011	88 48 04	 mov	 BYTE PTR [eax+4], cl

; 248  : 		}

  00014	5d		 pop	 ebp
  00015	c2 08 00	 ret	 8
??$?0AAV?$_Tree_iterator@V?$_Tree_val@V?$_Tmap_traits@HHU?$less@H@std@@V?$allocator@U?$pair@$$CBHH@std@@@2@$0A@@std@@@std@@@std@@_N@?$pair@V?$_Tree_iterator@V?$_Tree_val@V?$_Tmap_traits@HHU?$less@H@std@@V?$allocator@U?$pair@$$CBHH@std@@@2@$0A@@std@@@std@@@std@@_N@std@@QAE@AAV?$_Tree_iterator@V?$_Tree_val@V?$_Tmap_traits@HHU?$less@H@std@@V?$allocator@U?$pair@$$CBHH@std@@@2@$0A@@std@@@std@@@1@$$QA_N@Z ENDP ; std::pair<std::_Tree_iterator<std::_Tree_val<std::_Tmap_traits<int,int,std::less<int>,std::allocator<std::pair<int const ,int> >,0> > >,bool>::pair<std::_Tree_iterator<std::_Tree_val<std::_Tmap_traits<int,int,std::less<int>,std::allocator<std::pair<int const ,int> >,0> > >,bool><std::_Tree_iterator<std::_Tree_val<std::_Tmap_traits<int,int,std::less<int>,std::allocator<std::pair<int const ,int> >,0> > > &,bool>
_TEXT	ENDS
PUBLIC	??$?0$$CBHH@?$pair@$$CBHH@std@@QAE@$$QAU01@@Z	; std::pair<int const ,int>::pair<int const ,int><int const ,int>
; Function compile flags: /Ogsp
;	COMDAT ??$?0$$CBHH@?$pair@$$CBHH@std@@QAE@$$QAU01@@Z
_TEXT	SEGMENT
__Right$ = 8						; size = 4
??$?0$$CBHH@?$pair@$$CBHH@std@@QAE@$$QAU01@@Z PROC	; std::pair<int const ,int>::pair<int const ,int><int const ,int>, COMDAT
; _this$ = ecx

; 255  : 		{	// construct from moved compatible pair

  00000	55		 push	 ebp
  00001	8b ec		 mov	 ebp, esp
  00003	8b c1		 mov	 eax, ecx
  00005	8b 4d 08	 mov	 ecx, DWORD PTR __Right$[ebp]
  00008	8b 11		 mov	 edx, DWORD PTR [ecx]
  0000a	89 10		 mov	 DWORD PTR [eax], edx
  0000c	8b 49 04	 mov	 ecx, DWORD PTR [ecx+4]
  0000f	89 48 04	 mov	 DWORD PTR [eax+4], ecx

; 256  : 		}

  00012	5d		 pop	 ebp
  00013	c2 04 00	 ret	 4
??$?0$$CBHH@?$pair@$$CBHH@std@@QAE@$$QAU01@@Z ENDP	; std::pair<int const ,int>::pair<int const ,int><int const ,int>
_TEXT	ENDS
PUBLIC	??0?$_Tree_iterator@V?$_Tree_val@V?$_Tmap_traits@HHU?$less@H@std@@V?$allocator@U?$pair@$$CBHH@std@@@2@$0A@@std@@@std@@@std@@QAE@PAU_Node@?$_Tree_nod@V?$_Tmap_traits@HHU?$less@H@std@@V?$allocator@U?$pair@$$CBHH@std@@@2@$0A@@std@@@1@PBV?$_Tree_val@V?$_Tmap_traits@HHU?$less@H@std@@V?$allocator@U?$pair@$$CBHH@std@@@2@$0A@@std@@@1@@Z ; std::_Tree_iterator<std::_Tree_val<std::_Tmap_traits<int,int,std::less<int>,std::allocator<std::pair<int const ,int> >,0> > >::_Tree_iterator<std::_Tree_val<std::_Tmap_traits<int,int,std::less<int>,std::allocator<std::pair<int const ,int> >,0> > >
; Function compile flags: /Ogsp
; File c:\program files (x86)\microsoft visual studio 10.0\vc\include\xtree
;	COMDAT ??0?$_Tree_iterator@V?$_Tree_val@V?$_Tmap_traits@HHU?$less@H@std@@V?$allocator@U?$pair@$$CBHH@std@@@2@$0A@@std@@@std@@@std@@QAE@PAU_Node@?$_Tree_nod@V?$_Tmap_traits@HHU?$less@H@std@@V?$allocator@U?$pair@$$CBHH@std@@@2@$0A@@std@@@1@PBV?$_Tree_val@V?$_Tmap_traits@HHU?$less@H@std@@V?$allocator@U?$pair@$$CBHH@std@@@2@$0A@@std@@@1@@Z
_TEXT	SEGMENT
__Pnode$ = 8						; size = 4
__Plist$ = 12						; size = 4
??0?$_Tree_iterator@V?$_Tree_val@V?$_Tmap_traits@HHU?$less@H@std@@V?$allocator@U?$pair@$$CBHH@std@@@2@$0A@@std@@@std@@@std@@QAE@PAU_Node@?$_Tree_nod@V?$_Tmap_traits@HHU?$less@H@std@@V?$allocator@U?$pair@$$CBHH@std@@@2@$0A@@std@@@1@PBV?$_Tree_val@V?$_Tmap_traits@HHU?$less@H@std@@V?$allocator@U?$pair@$$CBHH@std@@@2@$0A@@std@@@1@@Z PROC ; std::_Tree_iterator<std::_Tree_val<std::_Tmap_traits<int,int,std::less<int>,std::allocator<std::pair<int const ,int> >,0> > >::_Tree_iterator<std::_Tree_val<std::_Tmap_traits<int,int,std::less<int>,std::allocator<std::pair<int const ,int> >,0> > >, COMDAT
; _this$ = ecx

; 378  : 		{	// construct with node pointer _Pnode

  00000	55		 push	 ebp
  00001	8b ec		 mov	 ebp, esp
  00003	8b c1		 mov	 eax, ecx
  00005	8b 4d 08	 mov	 ecx, DWORD PTR __Pnode$[ebp]
  00008	89 08		 mov	 DWORD PTR [eax], ecx

; 379  : 		}

  0000a	5d		 pop	 ebp
  0000b	c2 08 00	 ret	 8
??0?$_Tree_iterator@V?$_Tree_val@V?$_Tmap_traits@HHU?$less@H@std@@V?$allocator@U?$pair@$$CBHH@std@@@2@$0A@@std@@@std@@@std@@QAE@PAU_Node@?$_Tree_nod@V?$_Tmap_traits@HHU?$less@H@std@@V?$allocator@U?$pair@$$CBHH@std@@@2@$0A@@std@@@1@PBV?$_Tree_val@V?$_Tmap_traits@HHU?$less@H@std@@V?$allocator@U?$pair@$$CBHH@std@@@2@$0A@@std@@@1@@Z ENDP ; std::_Tree_iterator<std::_Tree_val<std::_Tmap_traits<int,int,std::less<int>,std::allocator<std::pair<int const ,int> >,0> > >::_Tree_iterator<std::_Tree_val<std::_Tmap_traits<int,int,std::less<int>,std::allocator<std::pair<int const ,int> >,0> > >
_TEXT	ENDS
PUBLIC	??E?$_Tree_const_iterator@V?$_Tree_val@V?$_Tmap_traits@HHU?$less@H@std@@V?$allocator@U?$pair@$$CBHH@std@@@2@$0A@@std@@@std@@@std@@QAE?AV01@H@Z ; std::_Tree_const_iterator<std::_Tree_val<std::_Tmap_traits<int,int,std::less<int>,std::allocator<std::pair<int const ,int> >,0> > >::operator++
; Function compile flags: /Ogsp
;	COMDAT ??E?$_Tree_const_iterator@V?$_Tree_val@V?$_Tmap_traits@HHU?$less@H@std@@V?$allocator@U?$pair@$$CBHH@std@@@2@$0A@@std@@@std@@@std@@QAE?AV01@H@Z
_TEXT	SEGMENT
___$ReturnUdt$ = 8					; size = 4
___formal$ = 12						; size = 4
??E?$_Tree_const_iterator@V?$_Tree_val@V?$_Tmap_traits@HHU?$less@H@std@@V?$allocator@U?$pair@$$CBHH@std@@@2@$0A@@std@@@std@@@std@@QAE?AV01@H@Z PROC ; std::_Tree_const_iterator<std::_Tree_val<std::_Tmap_traits<int,int,std::less<int>,std::allocator<std::pair<int const ,int> >,0> > >::operator++, COMDAT
; _this$ = ecx

; 270  : 		{	// postincrement

  00000	55		 push	 ebp
  00001	8b ec		 mov	 ebp, esp

; 271  : 		_Myiter _Tmp = *this;

  00003	8b 01		 mov	 eax, DWORD PTR [ecx]
  00005	56		 push	 esi
  00006	8b 75 08	 mov	 esi, DWORD PTR ___$ReturnUdt$[ebp]
  00009	89 06		 mov	 DWORD PTR [esi], eax

; 272  : 		++*this;

  0000b	e8 00 00 00 00	 call	 ??E?$_Tree_unchecked_const_iterator@V?$_Tree_val@V?$_Tmap_traits@HHU?$less@H@std@@V?$allocator@U?$pair@$$CBHH@std@@@2@$0A@@std@@@std@@U_Iterator_base0@2@@std@@QAEAAV01@XZ ; std::_Tree_unchecked_const_iterator<std::_Tree_val<std::_Tmap_traits<int,int,std::less<int>,std::allocator<std::pair<int const ,int> >,0> >,std::_Iterator_base0>::operator++

; 273  : 		return (_Tmp);

  00010	8b c6		 mov	 eax, esi
  00012	5e		 pop	 esi

; 274  : 		}

  00013	5d		 pop	 ebp
  00014	c2 08 00	 ret	 8
??E?$_Tree_const_iterator@V?$_Tree_val@V?$_Tmap_traits@HHU?$less@H@std@@V?$allocator@U?$pair@$$CBHH@std@@@2@$0A@@std@@@std@@@std@@QAE?AV01@H@Z ENDP ; std::_Tree_const_iterator<std::_Tree_val<std::_Tmap_traits<int,int,std::less<int>,std::allocator<std::pair<int const ,int> >,0> > >::operator++
_TEXT	ENDS
PUBLIC	?_Lrotate@?$_Tree@V?$_Tmap_traits@HHU?$less@H@std@@V?$allocator@U?$pair@$$CBHH@std@@@2@$0A@@std@@@std@@IAEXPAU_Node@?$_Tree_nod@V?$_Tmap_traits@HHU?$less@H@std@@V?$allocator@U?$pair@$$CBHH@std@@@2@$0A@@std@@@2@@Z ; std::_Tree<std::_Tmap_traits<int,int,std::less<int>,std::allocator<std::pair<int const ,int> >,0> >::_Lrotate
; Function compile flags: /Ogsp
;	COMDAT ?_Lrotate@?$_Tree@V?$_Tmap_traits@HHU?$less@H@std@@V?$allocator@U?$pair@$$CBHH@std@@@2@$0A@@std@@@std@@IAEXPAU_Node@?$_Tree_nod@V?$_Tmap_traits@HHU?$less@H@std@@V?$allocator@U?$pair@$$CBHH@std@@@2@$0A@@std@@@2@@Z
_TEXT	SEGMENT
__Wherenode$ = 8					; size = 4
?_Lrotate@?$_Tree@V?$_Tmap_traits@HHU?$less@H@std@@V?$allocator@U?$pair@$$CBHH@std@@@2@$0A@@std@@@std@@IAEXPAU_Node@?$_Tree_nod@V?$_Tmap_traits@HHU?$less@H@std@@V?$allocator@U?$pair@$$CBHH@std@@@2@$0A@@std@@@2@@Z PROC ; std::_Tree<std::_Tmap_traits<int,int,std::less<int>,std::allocator<std::pair<int const ,int> >,0> >::_Lrotate, COMDAT
; _this$ = ecx

; 1763 : 		{	// promote right node to root of subtree

  00000	55		 push	 ebp
  00001	8b ec		 mov	 ebp, esp

; 1764 : 		_Nodeptr _Pnode = this->_Right(_Wherenode);

  00003	8b 55 08	 mov	 edx, DWORD PTR __Wherenode$[ebp]
  00006	8b 42 08	 mov	 eax, DWORD PTR [edx+8]
  00009	56		 push	 esi

; 1765 : 		this->_Right(_Wherenode) = this->_Left(_Pnode);

  0000a	8b 30		 mov	 esi, DWORD PTR [eax]
  0000c	89 72 08	 mov	 DWORD PTR [edx+8], esi

; 1766 : 
; 1767 : 		if (!this->_Isnil(this->_Left(_Pnode)))

  0000f	8b 30		 mov	 esi, DWORD PTR [eax]
  00011	80 7e 15 00	 cmp	 BYTE PTR [esi+21], 0
  00015	75 03		 jne	 SHORT $LN5@Lrotate

; 1768 : 			this->_Parent(this->_Left(_Pnode)) = _Wherenode;

  00017	89 56 04	 mov	 DWORD PTR [esi+4], edx
$LN5@Lrotate:

; 1769 : 		this->_Parent(_Pnode) = this->_Parent(_Wherenode);

  0001a	8b 72 04	 mov	 esi, DWORD PTR [edx+4]
  0001d	89 70 04	 mov	 DWORD PTR [eax+4], esi

; 1770 : 
; 1771 : 		if (_Wherenode == _Root())

  00020	8b 49 04	 mov	 ecx, DWORD PTR [ecx+4]
  00023	5e		 pop	 esi
  00024	3b 51 04	 cmp	 edx, DWORD PTR [ecx+4]
  00027	75 05		 jne	 SHORT $LN4@Lrotate

; 1772 : 			_Root() = _Pnode;

  00029	89 41 04	 mov	 DWORD PTR [ecx+4], eax

; 1773 : 		else if (_Wherenode == this->_Left(this->_Parent(_Wherenode)))

  0002c	eb 0e		 jmp	 SHORT $LN1@Lrotate
$LN4@Lrotate:
  0002e	8b 4a 04	 mov	 ecx, DWORD PTR [edx+4]
  00031	3b 11		 cmp	 edx, DWORD PTR [ecx]
  00033	75 04		 jne	 SHORT $LN2@Lrotate

; 1774 : 			this->_Left(this->_Parent(_Wherenode)) = _Pnode;

  00035	89 01		 mov	 DWORD PTR [ecx], eax

; 1775 : 		else

  00037	eb 03		 jmp	 SHORT $LN1@Lrotate
$LN2@Lrotate:

; 1776 : 			this->_Right(this->_Parent(_Wherenode)) = _Pnode;

  00039	89 41 08	 mov	 DWORD PTR [ecx+8], eax
$LN1@Lrotate:

; 1777 : 
; 1778 : 		this->_Left(_Pnode) = _Wherenode;

  0003c	89 10		 mov	 DWORD PTR [eax], edx

; 1779 : 		this->_Parent(_Wherenode) = _Pnode;

  0003e	89 42 04	 mov	 DWORD PTR [edx+4], eax

; 1780 : 		}

  00041	5d		 pop	 ebp
  00042	c2 04 00	 ret	 4
?_Lrotate@?$_Tree@V?$_Tmap_traits@HHU?$less@H@std@@V?$allocator@U?$pair@$$CBHH@std@@@2@$0A@@std@@@std@@IAEXPAU_Node@?$_Tree_nod@V?$_Tmap_traits@HHU?$less@H@std@@V?$allocator@U?$pair@$$CBHH@std@@@2@$0A@@std@@@2@@Z ENDP ; std::_Tree<std::_Tmap_traits<int,int,std::less<int>,std::allocator<std::pair<int const ,int> >,0> >::_Lrotate
_TEXT	ENDS
PUBLIC	??$_Dest_val@V?$allocator@U?$pair@$$CBHH@std@@@std@@U?$pair@$$CBHH@2@@std@@YAXAAV?$allocator@U?$pair@$$CBHH@std@@@0@PAU?$pair@$$CBHH@0@@Z ; std::_Dest_val<std::allocator<std::pair<int const ,int> >,std::pair<int const ,int> >
; Function compile flags: /Ogsp
; File c:\program files (x86)\microsoft visual studio 10.0\vc\include\xmemory
;	COMDAT ??$_Dest_val@V?$allocator@U?$pair@$$CBHH@std@@@std@@U?$pair@$$CBHH@2@@std@@YAXAAV?$allocator@U?$pair@$$CBHH@std@@@0@PAU?$pair@$$CBHH@0@@Z
_TEXT	SEGMENT
__Alval$ = 8						; size = 4
__Pdest$ = 12						; size = 4
??$_Dest_val@V?$allocator@U?$pair@$$CBHH@std@@@std@@U?$pair@$$CBHH@2@@std@@YAXAAV?$allocator@U?$pair@$$CBHH@std@@@0@PAU?$pair@$$CBHH@0@@Z PROC ; std::_Dest_val<std::allocator<std::pair<int const ,int> >,std::pair<int const ,int> >, COMDAT

; 287  : 	_Alval.destroy(_Pdest);
; 288  : 	}

  00000	c3		 ret	 0
??$_Dest_val@V?$allocator@U?$pair@$$CBHH@std@@@std@@U?$pair@$$CBHH@2@@std@@YAXAAV?$allocator@U?$pair@$$CBHH@std@@@0@PAU?$pair@$$CBHH@0@@Z ENDP ; std::_Dest_val<std::allocator<std::pair<int const ,int> >,std::pair<int const ,int> >
_TEXT	ENDS
PUBLIC	??C?$_Tree_iterator@V?$_Tree_val@V?$_Tmap_traits@HHU?$less@H@std@@V?$allocator@U?$pair@$$CBHH@std@@@2@$0A@@std@@@std@@@std@@QBEPAU?$pair@$$CBHH@1@XZ ; std::_Tree_iterator<std::_Tree_val<std::_Tmap_traits<int,int,std::less<int>,std::allocator<std::pair<int const ,int> >,0> > >::operator->
; Function compile flags: /Ogsp
; File c:\program files (x86)\microsoft visual studio 10.0\vc\include\xtree
;	COMDAT ??C?$_Tree_iterator@V?$_Tree_val@V?$_Tmap_traits@HHU?$less@H@std@@V?$allocator@U?$pair@$$CBHH@std@@@2@$0A@@std@@@std@@@std@@QBEPAU?$pair@$$CBHH@1@XZ
_TEXT	SEGMENT
??C?$_Tree_iterator@V?$_Tree_val@V?$_Tmap_traits@HHU?$less@H@std@@V?$allocator@U?$pair@$$CBHH@std@@@2@$0A@@std@@@std@@@std@@QBEPAU?$pair@$$CBHH@1@XZ PROC ; std::_Tree_iterator<std::_Tree_val<std::_Tmap_traits<int,int,std::less<int>,std::allocator<std::pair<int const ,int> >,0> > >::operator->, COMDAT
; _this$ = ecx

; 401  : 		return (&**this);

  00000	8b 01		 mov	 eax, DWORD PTR [ecx]
  00002	83 c0 0c	 add	 eax, 12			; 0000000cH

; 402  : 		}

  00005	c3		 ret	 0
??C?$_Tree_iterator@V?$_Tree_val@V?$_Tmap_traits@HHU?$less@H@std@@V?$allocator@U?$pair@$$CBHH@std@@@2@$0A@@std@@@std@@@std@@QBEPAU?$pair@$$CBHH@1@XZ ENDP ; std::_Tree_iterator<std::_Tree_val<std::_Tmap_traits<int,int,std::less<int>,std::allocator<std::pair<int const ,int> >,0> > >::operator->
_TEXT	ENDS
PUBLIC	??0?$_Tree@V?$_Tmap_traits@HHU?$less@H@std@@V?$allocator@U?$pair@$$CBHH@std@@@2@$0A@@std@@@std@@QAE@ABU?$less@H@1@ABV?$allocator@U?$pair@$$CBHH@std@@@1@@Z ; std::_Tree<std::_Tmap_traits<int,int,std::less<int>,std::allocator<std::pair<int const ,int> >,0> >::_Tree<std::_Tmap_traits<int,int,std::less<int>,std::allocator<std::pair<int const ,int> >,0> >
; Function compile flags: /Ogsp
;	COMDAT ??0?$_Tree@V?$_Tmap_traits@HHU?$less@H@std@@V?$allocator@U?$pair@$$CBHH@std@@@2@$0A@@std@@@std@@QAE@ABU?$less@H@1@ABV?$allocator@U?$pair@$$CBHH@std@@@1@@Z
_TEXT	SEGMENT
$T509730 = -4						; size = 4
$T509725 = -4						; size = 4
__Parg$ = 8						; size = 4
__Al$ = 12						; size = 4
??0?$_Tree@V?$_Tmap_traits@HHU?$less@H@std@@V?$allocator@U?$pair@$$CBHH@std@@@2@$0A@@std@@@std@@QAE@ABU?$less@H@1@ABV?$allocator@U?$pair@$$CBHH@std@@@1@@Z PROC ; std::_Tree<std::_Tmap_traits<int,int,std::less<int>,std::allocator<std::pair<int const ,int> >,0> >::_Tree<std::_Tmap_traits<int,int,std::less<int>,std::allocator<std::pair<int const ,int> >,0> >, COMDAT
; _this$ = ecx

; 698  : 		{	// construct empty tree

  00000	55		 push	 ebp
  00001	8b ec		 mov	 ebp, esp
  00003	51		 push	 ecx
  00004	56		 push	 esi
  00005	51		 push	 ecx
  00006	89 65 fc	 mov	 DWORD PTR $T509725[ebp], esp
  00009	89 65 fc	 mov	 DWORD PTR $T509730[ebp], esp
  0000c	ff 75 08	 push	 DWORD PTR __Parg$[ebp]
  0000f	8b f1		 mov	 esi, ecx
  00011	e8 00 00 00 00	 call	 ??0?$_Tree_val@V?$_Tmap_traits@HHU?$less@H@std@@V?$allocator@U?$pair@$$CBHH@std@@@2@$0A@@std@@@std@@QAE@ABU?$less@H@1@V?$allocator@U?$pair@$$CBHH@std@@@1@@Z ; std::_Tree_val<std::_Tmap_traits<int,int,std::less<int>,std::allocator<std::pair<int const ,int> >,0> >::_Tree_val<std::_Tmap_traits<int,int,std::less<int>,std::allocator<std::pair<int const ,int> >,0> >

; 699  : 		}

  00016	8b c6		 mov	 eax, esi
  00018	5e		 pop	 esi
  00019	c9		 leave
  0001a	c2 08 00	 ret	 8
??0?$_Tree@V?$_Tmap_traits@HHU?$less@H@std@@V?$allocator@U?$pair@$$CBHH@std@@@2@$0A@@std@@@std@@QAE@ABU?$less@H@1@ABV?$allocator@U?$pair@$$CBHH@std@@@1@@Z ENDP ; std::_Tree<std::_Tmap_traits<int,int,std::less<int>,std::allocator<std::pair<int const ,int> >,0> >::_Tree<std::_Tmap_traits<int,int,std::less<int>,std::allocator<std::pair<int const ,int> >,0> >
_TEXT	ENDS
PUBLIC	?lower_bound@?$_Tree@V?$_Tmap_traits@HHU?$less@H@std@@V?$allocator@U?$pair@$$CBHH@std@@@2@$0A@@std@@@std@@QAE?AV?$_Tree_iterator@V?$_Tree_val@V?$_Tmap_traits@HHU?$less@H@std@@V?$allocator@U?$pair@$$CBHH@std@@@2@$0A@@std@@@std@@@2@ABH@Z ; std::_Tree<std::_Tmap_traits<int,int,std::less<int>,std::allocator<std::pair<int const ,int> >,0> >::lower_bound
; Function compile flags: /Ogsp
;	COMDAT ?lower_bound@?$_Tree@V?$_Tmap_traits@HHU?$less@H@std@@V?$allocator@U?$pair@$$CBHH@std@@@2@$0A@@std@@@std@@QAE?AV?$_Tree_iterator@V?$_Tree_val@V?$_Tmap_traits@HHU?$less@H@std@@V?$allocator@U?$pair@$$CBHH@std@@@2@$0A@@std@@@std@@@2@ABH@Z
_TEXT	SEGMENT
___$ReturnUdt$ = 8					; size = 4
__Keyval$ = 12						; size = 4
?lower_bound@?$_Tree@V?$_Tmap_traits@HHU?$less@H@std@@V?$allocator@U?$pair@$$CBHH@std@@@2@$0A@@std@@@std@@QAE?AV?$_Tree_iterator@V?$_Tree_val@V?$_Tmap_traits@HHU?$less@H@std@@V?$allocator@U?$pair@$$CBHH@std@@@2@$0A@@std@@@std@@@2@ABH@Z PROC ; std::_Tree<std::_Tmap_traits<int,int,std::less<int>,std::allocator<std::pair<int const ,int> >,0> >::lower_bound, COMDAT
; _this$ = ecx

; 1449 : 		{	// find leftmost node not less than _Keyval in mutable tree

  00000	55		 push	 ebp
  00001	8b ec		 mov	 ebp, esp

; 1450 : 		return (iterator(_Lbound(_Keyval), this));

  00003	ff 75 0c	 push	 DWORD PTR __Keyval$[ebp]
  00006	e8 00 00 00 00	 call	 ?_Lbound@?$_Tree@V?$_Tmap_traits@HHU?$less@H@std@@V?$allocator@U?$pair@$$CBHH@std@@@2@$0A@@std@@@std@@IAEPAU_Node@?$_Tree_nod@V?$_Tmap_traits@HHU?$less@H@std@@V?$allocator@U?$pair@$$CBHH@std@@@2@$0A@@std@@@2@ABH@Z ; std::_Tree<std::_Tmap_traits<int,int,std::less<int>,std::allocator<std::pair<int const ,int> >,0> >::_Lbound
  0000b	8b 4d 08	 mov	 ecx, DWORD PTR ___$ReturnUdt$[ebp]
  0000e	89 01		 mov	 DWORD PTR [ecx], eax
  00010	8b c1		 mov	 eax, ecx

; 1451 : 		}

  00012	5d		 pop	 ebp
  00013	c2 08 00	 ret	 8
?lower_bound@?$_Tree@V?$_Tmap_traits@HHU?$less@H@std@@V?$allocator@U?$pair@$$CBHH@std@@@2@$0A@@std@@@std@@QAE?AV?$_Tree_iterator@V?$_Tree_val@V?$_Tmap_traits@HHU?$less@H@std@@V?$allocator@U?$pair@$$CBHH@std@@@2@$0A@@std@@@std@@@2@ABH@Z ENDP ; std::_Tree<std::_Tmap_traits<int,int,std::less<int>,std::allocator<std::pair<int const ,int> >,0> >::lower_bound
_TEXT	ENDS
PUBLIC	??_C@_0BE@JONHPENG@map?1set?$DMT?$DO?5too?5long?$AA@ ; `string'
PUBLIC	?_Insert@?$_Tree@V?$_Tmap_traits@HHU?$less@H@std@@V?$allocator@U?$pair@$$CBHH@std@@@2@$0A@@std@@@std@@IAE?AV?$_Tree_iterator@V?$_Tree_val@V?$_Tmap_traits@HHU?$less@H@std@@V?$allocator@U?$pair@$$CBHH@std@@@2@$0A@@std@@@std@@@2@_NPAU_Node@?$_Tree_nod@V?$_Tmap_traits@HHU?$less@H@std@@V?$allocator@U?$pair@$$CBHH@std@@@2@$0A@@std@@@2@1@Z ; std::_Tree<std::_Tmap_traits<int,int,std::less<int>,std::allocator<std::pair<int const ,int> >,0> >::_Insert
EXTRN	__imp_?_Xlength_error@std@@YAXPBD@Z:PROC
;	COMDAT ??_C@_0BE@JONHPENG@map?1set?$DMT?$DO?5too?5long?$AA@
; File c:\program files (x86)\microsoft visual studio 10.0\vc\include\xutility
CONST	SEGMENT
??_C@_0BE@JONHPENG@map?1set?$DMT?$DO?5too?5long?$AA@ DB 'map/set<T> too l'
	DB	'ong', 00H					; `string'
; Function compile flags: /Ogsp
; File c:\program files (x86)\microsoft visual studio 10.0\vc\include\xtree
CONST	ENDS
;	COMDAT ?_Insert@?$_Tree@V?$_Tmap_traits@HHU?$less@H@std@@V?$allocator@U?$pair@$$CBHH@std@@@2@$0A@@std@@@std@@IAE?AV?$_Tree_iterator@V?$_Tree_val@V?$_Tmap_traits@HHU?$less@H@std@@V?$allocator@U?$pair@$$CBHH@std@@@2@$0A@@std@@@std@@@2@_NPAU_Node@?$_Tree_nod@V?$_Tmap_traits@HHU?$less@H@std@@V?$allocator@U?$pair@$$CBHH@std@@@2@$0A@@std@@@2@1@Z
_TEXT	SEGMENT
___$ReturnUdt$ = 8					; size = 4
__Addleft$ = 12						; size = 1
__Wherenode$ = 16					; size = 4
__Newnode$ = 20						; size = 4
?_Insert@?$_Tree@V?$_Tmap_traits@HHU?$less@H@std@@V?$allocator@U?$pair@$$CBHH@std@@@2@$0A@@std@@@std@@IAE?AV?$_Tree_iterator@V?$_Tree_val@V?$_Tmap_traits@HHU?$less@H@std@@V?$allocator@U?$pair@$$CBHH@std@@@2@$0A@@std@@@std@@@2@_NPAU_Node@?$_Tree_nod@V?$_Tmap_traits@HHU?$less@H@std@@V?$allocator@U?$pair@$$CBHH@std@@@2@$0A@@std@@@2@1@Z PROC ; std::_Tree<std::_Tmap_traits<int,int,std::less<int>,std::allocator<std::pair<int const ,int> >,0> >::_Insert, COMDAT
; _this$ = ecx

; 1631 : 		{	// add node with value next to _Wherenode, to left if _Addleft

  00000	55		 push	 ebp
  00001	8b ec		 mov	 ebp, esp
  00003	53		 push	 ebx
  00004	56		 push	 esi
  00005	57		 push	 edi
  00006	8b f9		 mov	 edi, ecx

; 1632 : 		if (max_size() - 1 <= this->_Mysize)

  00008	8b 47 08	 mov	 eax, DWORD PTR [edi+8]
  0000b	3d fe ff ff 1f	 cmp	 eax, 536870910		; 1ffffffeH
  00010	72 15		 jb	 SHORT $LN17@Insert

; 1633 : 			{	// tree would get too big, fail
; 1634 : 			_Dest_val(this->_Alval,
; 1635 : 				_STD addressof(this->_Myval(_Newnode)));
; 1636 : 
; 1637 : 			this->_Alnod.deallocate(_Newnode, 1);

  00012	ff 75 14	 push	 DWORD PTR __Newnode$[ebp]
  00015	e8 00 00 00 00	 call	 ??3@YAXPAX@Z		; operator delete

; 1638 : 
; 1639 : 			_Xlength_error("map/set<T> too long");

  0001a	c7 04 24 00 00
	00 00		 mov	 DWORD PTR [esp], OFFSET ??_C@_0BE@JONHPENG@map?1set?$DMT?$DO?5too?5long?$AA@
  00021	ff 15 00 00 00
	00		 call	 DWORD PTR __imp_?_Xlength_error@std@@YAXPBD@Z
$LN188@Insert:
$LN17@Insert:

; 1640 : 			}
; 1641 : 		++this->_Mysize;
; 1642 : 		_Newnode->_Parent = _Wherenode;

  00027	8b 5d 14	 mov	 ebx, DWORD PTR __Newnode$[ebp]
  0002a	40		 inc	 eax
  0002b	89 47 08	 mov	 DWORD PTR [edi+8], eax
  0002e	8b 45 10	 mov	 eax, DWORD PTR __Wherenode$[ebp]
  00031	89 43 04	 mov	 DWORD PTR [ebx+4], eax

; 1643 : 
; 1644 : 		if (_Wherenode == this->_Myhead)

  00034	8b 4f 04	 mov	 ecx, DWORD PTR [edi+4]
  00037	3b c1		 cmp	 eax, ecx
  00039	75 10		 jne	 SHORT $LN16@Insert

; 1645 : 			{	// first node in tree, just set head values
; 1646 : 			_Root() = _Newnode;

  0003b	89 59 04	 mov	 DWORD PTR [ecx+4], ebx

; 1647 : 			_Lmost() = _Newnode;

  0003e	8b 47 04	 mov	 eax, DWORD PTR [edi+4]
  00041	89 18		 mov	 DWORD PTR [eax], ebx

; 1648 : 			_Rmost() = _Newnode;

  00043	8b 47 04	 mov	 eax, DWORD PTR [edi+4]
  00046	89 58 08	 mov	 DWORD PTR [eax+8], ebx
  00049	eb 21		 jmp	 SHORT $LN11@Insert
$LN16@Insert:

; 1649 : 			}
; 1650 : 		else if (_Addleft)

  0004b	80 7d 0c 00	 cmp	 BYTE PTR __Addleft$[ebp], 0
  0004f	74 0d		 je	 SHORT $LN14@Insert

; 1651 : 			{	// add to left of _Wherenode
; 1652 : 			this->_Left(_Wherenode) = _Newnode;

  00051	89 18		 mov	 DWORD PTR [eax], ebx

; 1653 : 			if (_Wherenode == _Lmost())

  00053	8b 4f 04	 mov	 ecx, DWORD PTR [edi+4]
  00056	3b 01		 cmp	 eax, DWORD PTR [ecx]
  00058	75 12		 jne	 SHORT $LN11@Insert

; 1654 : 				_Lmost() = _Newnode;

  0005a	89 19		 mov	 DWORD PTR [ecx], ebx

; 1655 : 			}
; 1656 : 		else

  0005c	eb 0e		 jmp	 SHORT $LN11@Insert
$LN14@Insert:

; 1657 : 			{	// add to right of _Wherenode
; 1658 : 			this->_Right(_Wherenode) = _Newnode;

  0005e	89 58 08	 mov	 DWORD PTR [eax+8], ebx

; 1659 : 			if (_Wherenode == _Rmost())

  00061	8b 4f 04	 mov	 ecx, DWORD PTR [edi+4]
  00064	3b 41 08	 cmp	 eax, DWORD PTR [ecx+8]
  00067	75 03		 jne	 SHORT $LN11@Insert

; 1660 : 				_Rmost() = _Newnode;

  00069	89 59 08	 mov	 DWORD PTR [ecx+8], ebx
$LN11@Insert:

; 1661 : 			}
; 1662 : 
; 1663 : 		for (_Nodeptr _Pnode = _Newnode;
; 1664 : 			this->_Color(this->_Parent(_Pnode)) == this->_Red; )

  0006c	8b 43 04	 mov	 eax, DWORD PTR [ebx+4]
  0006f	8b f3		 mov	 esi, ebx
  00071	e9 93 00 00 00	 jmp	 $LN186@Insert
$LL10@Insert:

; 1665 : 			if (this->_Parent(_Pnode)
; 1666 : 				== this->_Left(this->_Parent(this->_Parent(_Pnode))))

  00076	8b 46 04	 mov	 eax, DWORD PTR [esi+4]
  00079	8b 48 04	 mov	 ecx, DWORD PTR [eax+4]
  0007c	3b 01		 cmp	 eax, DWORD PTR [ecx]
  0007e	75 38		 jne	 SHORT $LN8@Insert

; 1667 : 				{	// fixup red-red in left subtree
; 1668 : 				_Wherenode =
; 1669 : 					this->_Right(this->_Parent(this->_Parent(_Pnode)));

  00080	8b 49 08	 mov	 ecx, DWORD PTR [ecx+8]

; 1670 : 				if (this->_Color(_Wherenode) == this->_Red)

  00083	80 79 14 00	 cmp	 BYTE PTR [ecx+20], 0

; 1671 : 					{	// parent has two red children, blacken both
; 1672 : 					this->_Color(this->_Parent(_Pnode)) = this->_Black;
; 1673 : 					this->_Color(_Wherenode) = this->_Black;
; 1674 : 					this->_Color(this->_Parent(this->_Parent(_Pnode)))
; 1675 : 						= this->_Red;
; 1676 : 					_Pnode = this->_Parent(this->_Parent(_Pnode));
; 1677 : 					}
; 1678 : 				else

  00087	74 37		 je	 SHORT $LN187@Insert

; 1679 : 					{	// parent has red and black children
; 1680 : 					if (_Pnode == this->_Right(this->_Parent(_Pnode)))

  00089	3b 70 08	 cmp	 esi, DWORD PTR [eax+8]
  0008c	75 0a		 jne	 SHORT $LN5@Insert

; 1681 : 						{	// rotate right child to left
; 1682 : 						_Pnode = this->_Parent(_Pnode);

  0008e	8b f0		 mov	 esi, eax

; 1683 : 						_Lrotate(_Pnode);

  00090	56		 push	 esi
  00091	8b cf		 mov	 ecx, edi
  00093	e8 00 00 00 00	 call	 ?_Lrotate@?$_Tree@V?$_Tmap_traits@HHU?$less@H@std@@V?$allocator@U?$pair@$$CBHH@std@@@2@$0A@@std@@@std@@IAEXPAU_Node@?$_Tree_nod@V?$_Tmap_traits@HHU?$less@H@std@@V?$allocator@U?$pair@$$CBHH@std@@@2@$0A@@std@@@2@@Z ; std::_Tree<std::_Tmap_traits<int,int,std::less<int>,std::allocator<std::pair<int const ,int> >,0> >::_Lrotate
$LN5@Insert:

; 1684 : 						}
; 1685 : 					this->_Color(this->_Parent(_Pnode)) =
; 1686 : 						this->_Black;	// propagate red up

  00098	8b 46 04	 mov	 eax, DWORD PTR [esi+4]
  0009b	c6 40 14 01	 mov	 BYTE PTR [eax+20], 1

; 1687 : 					this->_Color(this->_Parent(this->_Parent(_Pnode))) =
; 1688 : 						this->_Red;

  0009f	8b 46 04	 mov	 eax, DWORD PTR [esi+4]
  000a2	8b 40 04	 mov	 eax, DWORD PTR [eax+4]
  000a5	c6 40 14 00	 mov	 BYTE PTR [eax+20], 0

; 1689 : 					_Rrotate(this->_Parent(this->_Parent(_Pnode)));

  000a9	8b 46 04	 mov	 eax, DWORD PTR [esi+4]
  000ac	ff 70 04	 push	 DWORD PTR [eax+4]
  000af	8b cf		 mov	 ecx, edi
  000b1	e8 00 00 00 00	 call	 ?_Rrotate@?$_Tree@V?$_Tmap_traits@HHU?$less@H@std@@V?$allocator@U?$pair@$$CBHH@std@@@2@$0A@@std@@@std@@IAEXPAU_Node@?$_Tree_nod@V?$_Tmap_traits@HHU?$less@H@std@@V?$allocator@U?$pair@$$CBHH@std@@@2@$0A@@std@@@2@@Z ; std::_Tree<std::_Tmap_traits<int,int,std::less<int>,std::allocator<std::pair<int const ,int> >,0> >::_Rrotate

; 1690 : 					}
; 1691 : 				}
; 1692 : 			else

  000b6	eb 4e		 jmp	 SHORT $LN2@Insert
$LN8@Insert:

; 1693 : 				{	// fixup red-red in right subtree
; 1694 : 				_Wherenode =
; 1695 : 					this->_Left(this->_Parent(this->_Parent(_Pnode)));

  000b8	8b 09		 mov	 ecx, DWORD PTR [ecx]

; 1696 : 				if (this->_Color(_Wherenode) == this->_Red)

  000ba	80 79 14 00	 cmp	 BYTE PTR [ecx+20], 0
  000be	75 1a		 jne	 SHORT $LN3@Insert
$LN187@Insert:

; 1697 : 					{	// parent has two red children, blacken both
; 1698 : 					this->_Color(this->_Parent(_Pnode)) = this->_Black;

  000c0	c6 40 14 01	 mov	 BYTE PTR [eax+20], 1

; 1699 : 					this->_Color(_Wherenode) = this->_Black;

  000c4	c6 41 14 01	 mov	 BYTE PTR [ecx+20], 1

; 1700 : 					this->_Color(this->_Parent(this->_Parent(_Pnode))) =
; 1701 : 						this->_Red;

  000c8	8b 46 04	 mov	 eax, DWORD PTR [esi+4]
  000cb	8b 40 04	 mov	 eax, DWORD PTR [eax+4]
  000ce	c6 40 14 00	 mov	 BYTE PTR [eax+20], 0

; 1702 : 					_Pnode = this->_Parent(this->_Parent(_Pnode));

  000d2	8b 46 04	 mov	 eax, DWORD PTR [esi+4]
  000d5	8b 70 04	 mov	 esi, DWORD PTR [eax+4]

; 1703 : 					}
; 1704 : 				else

  000d8	eb 2c		 jmp	 SHORT $LN2@Insert
$LN3@Insert:

; 1705 : 					{	// parent has red and black children
; 1706 : 					if (_Pnode == this->_Left(this->_Parent(_Pnode)))

  000da	3b 30		 cmp	 esi, DWORD PTR [eax]
  000dc	75 0a		 jne	 SHORT $LN1@Insert

; 1707 : 						{	// rotate left child to right
; 1708 : 						_Pnode = this->_Parent(_Pnode);

  000de	8b f0		 mov	 esi, eax

; 1709 : 						_Rrotate(_Pnode);

  000e0	56		 push	 esi
  000e1	8b cf		 mov	 ecx, edi
  000e3	e8 00 00 00 00	 call	 ?_Rrotate@?$_Tree@V?$_Tmap_traits@HHU?$less@H@std@@V?$allocator@U?$pair@$$CBHH@std@@@2@$0A@@std@@@std@@IAEXPAU_Node@?$_Tree_nod@V?$_Tmap_traits@HHU?$less@H@std@@V?$allocator@U?$pair@$$CBHH@std@@@2@$0A@@std@@@2@@Z ; std::_Tree<std::_Tmap_traits<int,int,std::less<int>,std::allocator<std::pair<int const ,int> >,0> >::_Rrotate
$LN1@Insert:

; 1710 : 						}
; 1711 : 					this->_Color(this->_Parent(_Pnode)) =
; 1712 : 						this->_Black;	// propagate red up

  000e8	8b 46 04	 mov	 eax, DWORD PTR [esi+4]
  000eb	c6 40 14 01	 mov	 BYTE PTR [eax+20], 1

; 1713 : 					this->_Color(this->_Parent(this->_Parent(_Pnode))) =
; 1714 : 						this->_Red;

  000ef	8b 46 04	 mov	 eax, DWORD PTR [esi+4]
  000f2	8b 40 04	 mov	 eax, DWORD PTR [eax+4]
  000f5	c6 40 14 00	 mov	 BYTE PTR [eax+20], 0

; 1715 : 					_Lrotate(this->_Parent(this->_Parent(_Pnode)));

  000f9	8b 46 04	 mov	 eax, DWORD PTR [esi+4]
  000fc	ff 70 04	 push	 DWORD PTR [eax+4]
  000ff	8b cf		 mov	 ecx, edi
  00101	e8 00 00 00 00	 call	 ?_Lrotate@?$_Tree@V?$_Tmap_traits@HHU?$less@H@std@@V?$allocator@U?$pair@$$CBHH@std@@@2@$0A@@std@@@std@@IAEXPAU_Node@?$_Tree_nod@V?$_Tmap_traits@HHU?$less@H@std@@V?$allocator@U?$pair@$$CBHH@std@@@2@$0A@@std@@@2@@Z ; std::_Tree<std::_Tmap_traits<int,int,std::less<int>,std::allocator<std::pair<int const ,int> >,0> >::_Lrotate
$LN2@Insert:

; 1661 : 			}
; 1662 : 
; 1663 : 		for (_Nodeptr _Pnode = _Newnode;
; 1664 : 			this->_Color(this->_Parent(_Pnode)) == this->_Red; )

  00106	8b 46 04	 mov	 eax, DWORD PTR [esi+4]
$LN186@Insert:
  00109	80 78 14 00	 cmp	 BYTE PTR [eax+20], 0
  0010d	0f 84 63 ff ff
	ff		 je	 $LL10@Insert

; 1716 : 					}
; 1717 : 				}
; 1718 : 
; 1719 : 		this->_Color(_Root()) = this->_Black;	// root is always black

  00113	8b 47 04	 mov	 eax, DWORD PTR [edi+4]
  00116	8b 40 04	 mov	 eax, DWORD PTR [eax+4]
  00119	5f		 pop	 edi
  0011a	c6 40 14 01	 mov	 BYTE PTR [eax+20], 1

; 1720 : 		return (iterator(_Newnode, this));

  0011e	8b 45 08	 mov	 eax, DWORD PTR ___$ReturnUdt$[ebp]
  00121	5e		 pop	 esi
  00122	89 18		 mov	 DWORD PTR [eax], ebx
  00124	5b		 pop	 ebx

; 1721 : 		}

  00125	5d		 pop	 ebp
  00126	c2 10 00	 ret	 16			; 00000010H
$LN185@Insert:
?_Insert@?$_Tree@V?$_Tmap_traits@HHU?$less@H@std@@V?$allocator@U?$pair@$$CBHH@std@@@2@$0A@@std@@@std@@IAE?AV?$_Tree_iterator@V?$_Tree_val@V?$_Tmap_traits@HHU?$less@H@std@@V?$allocator@U?$pair@$$CBHH@std@@@2@$0A@@std@@@std@@@2@_NPAU_Node@?$_Tree_nod@V?$_Tmap_traits@HHU?$less@H@std@@V?$allocator@U?$pair@$$CBHH@std@@@2@$0A@@std@@@2@1@Z ENDP ; std::_Tree<std::_Tmap_traits<int,int,std::less<int>,std::allocator<std::pair<int const ,int> >,0> >::_Insert
_TEXT	ENDS
PUBLIC	??F?$_Tree_iterator@V?$_Tree_val@V?$_Tmap_traits@HHU?$less@H@std@@V?$allocator@U?$pair@$$CBHH@std@@@2@$0A@@std@@@std@@@std@@QAEAAV01@XZ ; std::_Tree_iterator<std::_Tree_val<std::_Tmap_traits<int,int,std::less<int>,std::allocator<std::pair<int const ,int> >,0> > >::operator--
; Function compile flags: /Ogsp
;	COMDAT ??F?$_Tree_iterator@V?$_Tree_val@V?$_Tmap_traits@HHU?$less@H@std@@V?$allocator@U?$pair@$$CBHH@std@@@2@$0A@@std@@@std@@@std@@QAEAAV01@XZ
_TEXT	SEGMENT
??F?$_Tree_iterator@V?$_Tree_val@V?$_Tmap_traits@HHU?$less@H@std@@V?$allocator@U?$pair@$$CBHH@std@@@2@$0A@@std@@@std@@@std@@QAEAAV01@XZ PROC ; std::_Tree_iterator<std::_Tree_val<std::_Tmap_traits<int,int,std::less<int>,std::allocator<std::pair<int const ,int> >,0> > >::operator--, COMDAT
; _this$ = ecx

; 418  : 		{	// predecrement

  00000	56		 push	 esi
  00001	8b f1		 mov	 esi, ecx

; 419  : 		--(*(_Mybase *)this);

  00003	e8 00 00 00 00	 call	 ??F?$_Tree_unchecked_const_iterator@V?$_Tree_val@V?$_Tmap_traits@HHU?$less@H@std@@V?$allocator@U?$pair@$$CBHH@std@@@2@$0A@@std@@@std@@U_Iterator_base0@2@@std@@QAEAAV01@XZ ; std::_Tree_unchecked_const_iterator<std::_Tree_val<std::_Tmap_traits<int,int,std::less<int>,std::allocator<std::pair<int const ,int> >,0> >,std::_Iterator_base0>::operator--

; 420  : 		return (*this);

  00008	8b c6		 mov	 eax, esi
  0000a	5e		 pop	 esi

; 421  : 		}

  0000b	c3		 ret	 0
??F?$_Tree_iterator@V?$_Tree_val@V?$_Tmap_traits@HHU?$less@H@std@@V?$allocator@U?$pair@$$CBHH@std@@@2@$0A@@std@@@std@@@std@@QAEAAV01@XZ ENDP ; std::_Tree_iterator<std::_Tree_val<std::_Tmap_traits<int,int,std::less<int>,std::allocator<std::pair<int const ,int> >,0> > >::operator--
_TEXT	ENDS
PUBLIC	?construct@?$allocator@U?$pair@$$CBHH@std@@@std@@QAEXPAU?$pair@$$CBHH@2@$$QAU32@@Z ; std::allocator<std::pair<int const ,int> >::construct
; Function compile flags: /Ogsp
; File c:\program files (x86)\microsoft visual studio 10.0\vc\include\xmemory
;	COMDAT ?construct@?$allocator@U?$pair@$$CBHH@std@@@std@@QAEXPAU?$pair@$$CBHH@2@$$QAU32@@Z
_TEXT	SEGMENT
__Ptr$ = 8						; size = 4
__Val$ = 12						; size = 4
?construct@?$allocator@U?$pair@$$CBHH@std@@@std@@QAEXPAU?$pair@$$CBHH@2@$$QAU32@@Z PROC ; std::allocator<std::pair<int const ,int> >::construct, COMDAT
; _this$ = ecx

; 201  : 		{	// construct object at _Ptr with value _Val

  00000	55		 push	 ebp
  00001	8b ec		 mov	 ebp, esp

; 202  : 		::new ((void _FARQ *)_Ptr) _Ty(_STD forward<_Ty>(_Val));

  00003	8b 45 08	 mov	 eax, DWORD PTR __Ptr$[ebp]
  00006	85 c0		 test	 eax, eax
  00008	74 0d		 je	 SHORT $LN3@construct
  0000a	8b 4d 0c	 mov	 ecx, DWORD PTR __Val$[ebp]
  0000d	8b 11		 mov	 edx, DWORD PTR [ecx]
  0000f	89 10		 mov	 DWORD PTR [eax], edx
  00011	8b 49 04	 mov	 ecx, DWORD PTR [ecx+4]
  00014	89 48 04	 mov	 DWORD PTR [eax+4], ecx
$LN3@construct:

; 203  : 		}

  00017	5d		 pop	 ebp
  00018	c2 08 00	 ret	 8
?construct@?$allocator@U?$pair@$$CBHH@std@@@std@@QAEXPAU?$pair@$$CBHH@2@$$QAU32@@Z ENDP ; std::allocator<std::pair<int const ,int> >::construct
_TEXT	ENDS
PUBLIC	?begin@?$_Tree@V?$_Tmap_traits@HHU?$less@H@std@@V?$allocator@U?$pair@$$CBHH@std@@@2@$0A@@std@@@std@@QAE?AV?$_Tree_iterator@V?$_Tree_val@V?$_Tmap_traits@HHU?$less@H@std@@V?$allocator@U?$pair@$$CBHH@std@@@2@$0A@@std@@@std@@@2@XZ ; std::_Tree<std::_Tmap_traits<int,int,std::less<int>,std::allocator<std::pair<int const ,int> >,0> >::begin
; Function compile flags: /Ogsp
; File c:\program files (x86)\microsoft visual studio 10.0\vc\include\xtree
;	COMDAT ?begin@?$_Tree@V?$_Tmap_traits@HHU?$less@H@std@@V?$allocator@U?$pair@$$CBHH@std@@@2@$0A@@std@@@std@@QAE?AV?$_Tree_iterator@V?$_Tree_val@V?$_Tmap_traits@HHU?$less@H@std@@V?$allocator@U?$pair@$$CBHH@std@@@2@$0A@@std@@@std@@@2@XZ
_TEXT	SEGMENT
___$ReturnUdt$ = 8					; size = 4
?begin@?$_Tree@V?$_Tmap_traits@HHU?$less@H@std@@V?$allocator@U?$pair@$$CBHH@std@@@2@$0A@@std@@@std@@QAE?AV?$_Tree_iterator@V?$_Tree_val@V?$_Tmap_traits@HHU?$less@H@std@@V?$allocator@U?$pair@$$CBHH@std@@@2@$0A@@std@@@std@@@2@XZ PROC ; std::_Tree<std::_Tmap_traits<int,int,std::less<int>,std::allocator<std::pair<int const ,int> >,0> >::begin, COMDAT
; _this$ = ecx

; 806  : 		{	// return iterator for beginning of mutable sequence

  00000	55		 push	 ebp
  00001	8b ec		 mov	 ebp, esp

; 807  : 		return (iterator(_Lmost(), this));

  00003	8b 41 04	 mov	 eax, DWORD PTR [ecx+4]
  00006	8b 08		 mov	 ecx, DWORD PTR [eax]
  00008	8b 45 08	 mov	 eax, DWORD PTR ___$ReturnUdt$[ebp]
  0000b	89 08		 mov	 DWORD PTR [eax], ecx

; 808  : 		}

  0000d	5d		 pop	 ebp
  0000e	c2 04 00	 ret	 4
?begin@?$_Tree@V?$_Tmap_traits@HHU?$less@H@std@@V?$allocator@U?$pair@$$CBHH@std@@@2@$0A@@std@@@std@@QAE?AV?$_Tree_iterator@V?$_Tree_val@V?$_Tmap_traits@HHU?$less@H@std@@V?$allocator@U?$pair@$$CBHH@std@@@2@$0A@@std@@@std@@@2@XZ ENDP ; std::_Tree<std::_Tmap_traits<int,int,std::less<int>,std::allocator<std::pair<int const ,int> >,0> >::begin
_TEXT	ENDS
PUBLIC	?end@?$_Tree@V?$_Tmap_traits@HHU?$less@H@std@@V?$allocator@U?$pair@$$CBHH@std@@@2@$0A@@std@@@std@@QAE?AV?$_Tree_iterator@V?$_Tree_val@V?$_Tmap_traits@HHU?$less@H@std@@V?$allocator@U?$pair@$$CBHH@std@@@2@$0A@@std@@@std@@@2@XZ ; std::_Tree<std::_Tmap_traits<int,int,std::less<int>,std::allocator<std::pair<int const ,int> >,0> >::end
; Function compile flags: /Ogsp
;	COMDAT ?end@?$_Tree@V?$_Tmap_traits@HHU?$less@H@std@@V?$allocator@U?$pair@$$CBHH@std@@@2@$0A@@std@@@std@@QAE?AV?$_Tree_iterator@V?$_Tree_val@V?$_Tmap_traits@HHU?$less@H@std@@V?$allocator@U?$pair@$$CBHH@std@@@2@$0A@@std@@@std@@@2@XZ
_TEXT	SEGMENT
___$ReturnUdt$ = 8					; size = 4
?end@?$_Tree@V?$_Tmap_traits@HHU?$less@H@std@@V?$allocator@U?$pair@$$CBHH@std@@@2@$0A@@std@@@std@@QAE?AV?$_Tree_iterator@V?$_Tree_val@V?$_Tmap_traits@HHU?$less@H@std@@V?$allocator@U?$pair@$$CBHH@std@@@2@$0A@@std@@@std@@@2@XZ PROC ; std::_Tree<std::_Tmap_traits<int,int,std::less<int>,std::allocator<std::pair<int const ,int> >,0> >::end, COMDAT
; _this$ = ecx

; 816  : 		{	// return iterator for end of mutable sequence

  00000	55		 push	 ebp
  00001	8b ec		 mov	 ebp, esp

; 817  : 		return (iterator(this->_Myhead, this));

  00003	8b 49 04	 mov	 ecx, DWORD PTR [ecx+4]
  00006	8b 45 08	 mov	 eax, DWORD PTR ___$ReturnUdt$[ebp]
  00009	89 08		 mov	 DWORD PTR [eax], ecx

; 818  : 		}

  0000b	5d		 pop	 ebp
  0000c	c2 04 00	 ret	 4
?end@?$_Tree@V?$_Tmap_traits@HHU?$less@H@std@@V?$allocator@U?$pair@$$CBHH@std@@@2@$0A@@std@@@std@@QAE?AV?$_Tree_iterator@V?$_Tree_val@V?$_Tmap_traits@HHU?$less@H@std@@V?$allocator@U?$pair@$$CBHH@std@@@2@$0A@@std@@@std@@@2@XZ ENDP ; std::_Tree<std::_Tmap_traits<int,int,std::less<int>,std::allocator<std::pair<int const ,int> >,0> >::end
_TEXT	ENDS
PUBLIC	??_C@_0BM@PAPJHAGI@invalid?5map?1set?$DMT?$DO?5iterator?$AA@ ; `string'
PUBLIC	?erase@?$_Tree@V?$_Tmap_traits@HHU?$less@H@std@@V?$allocator@U?$pair@$$CBHH@std@@@2@$0A@@std@@@std@@QAE?AV?$_Tree_iterator@V?$_Tree_val@V?$_Tmap_traits@HHU?$less@H@std@@V?$allocator@U?$pair@$$CBHH@std@@@2@$0A@@std@@@std@@@2@V?$_Tree_const_iterator@V?$_Tree_val@V?$_Tmap_traits@HHU?$less@H@std@@V?$allocator@U?$pair@$$CBHH@std@@@2@$0A@@std@@@std@@@2@@Z ; std::_Tree<std::_Tmap_traits<int,int,std::less<int>,std::allocator<std::pair<int const ,int> >,0> >::erase
EXTRN	__imp_?_Xout_of_range@std@@YAXPBD@Z:PROC
;	COMDAT ??_C@_0BM@PAPJHAGI@invalid?5map?1set?$DMT?$DO?5iterator?$AA@
; File c:\program files (x86)\microsoft visual studio 10.0\vc\include\xutility
CONST	SEGMENT
??_C@_0BM@PAPJHAGI@invalid?5map?1set?$DMT?$DO?5iterator?$AA@ DB 'invalid '
	DB	'map/set<T> iterator', 00H			; `string'
; Function compile flags: /Ogsp
; File c:\program files (x86)\microsoft visual studio 10.0\vc\include\xtree
CONST	ENDS
;	COMDAT ?erase@?$_Tree@V?$_Tmap_traits@HHU?$less@H@std@@V?$allocator@U?$pair@$$CBHH@std@@@2@$0A@@std@@@std@@QAE?AV?$_Tree_iterator@V?$_Tree_val@V?$_Tmap_traits@HHU?$less@H@std@@V?$allocator@U?$pair@$$CBHH@std@@@2@$0A@@std@@@std@@@2@V?$_Tree_const_iterator@V?$_Tree_val@V?$_Tmap_traits@HHU?$less@H@std@@V?$allocator@U?$pair@$$CBHH@std@@@2@$0A@@std@@@std@@@2@@Z
_TEXT	SEGMENT
_this$ = -4						; size = 4
___$ReturnUdt$ = 8					; size = 4
__Where$ = 12						; size = 4
?erase@?$_Tree@V?$_Tmap_traits@HHU?$less@H@std@@V?$allocator@U?$pair@$$CBHH@std@@@2@$0A@@std@@@std@@QAE?AV?$_Tree_iterator@V?$_Tree_val@V?$_Tmap_traits@HHU?$less@H@std@@V?$allocator@U?$pair@$$CBHH@std@@@2@$0A@@std@@@std@@@2@V?$_Tree_const_iterator@V?$_Tree_val@V?$_Tmap_traits@HHU?$less@H@std@@V?$allocator@U?$pair@$$CBHH@std@@@2@$0A@@std@@@std@@@2@@Z PROC ; std::_Tree<std::_Tmap_traits<int,int,std::less<int>,std::allocator<std::pair<int const ,int> >,0> >::erase, COMDAT
; _this$ = ecx

; 1195 : 		{	// erase element at _Where

  00000	55		 push	 ebp
  00001	8b ec		 mov	 ebp, esp
  00003	51		 push	 ecx
  00004	53		 push	 ebx

; 1196 :  #if _ITERATOR_DEBUG_LEVEL == 2
; 1197 : 		if (_Where._Getcont() != this || this->_Isnil(_Where._Mynode()))
; 1198 : 			_DEBUG_ERROR("map/set erase iterator outside range");
; 1199 : 		_Nodeptr _Erasednode = _Where._Mynode();	// node to erase
; 1200 : 		++_Where;	// save successor iterator for return
; 1201 : 		_Orphan_ptr(*this, _Erasednode);
; 1202 : 
; 1203 :  #else /* _ITERATOR_DEBUG_LEVEL == 2 */
; 1204 : 		if (this->_Isnil(_Where._Mynode()))

  00005	8b 5d 0c	 mov	 ebx, DWORD PTR __Where$[ebp]
  00008	80 7b 15 00	 cmp	 BYTE PTR [ebx+21], 0
  0000c	56		 push	 esi
  0000d	57		 push	 edi
  0000e	89 4d fc	 mov	 DWORD PTR _this$[ebp], ecx
  00011	74 0b		 je	 SHORT $LN40@erase

; 1205 : 			_Xout_of_range("invalid map/set<T> iterator");

  00013	68 00 00 00 00	 push	 OFFSET ??_C@_0BM@PAPJHAGI@invalid?5map?1set?$DMT?$DO?5iterator?$AA@
  00018	ff 15 00 00 00
	00		 call	 DWORD PTR __imp_?_Xout_of_range@std@@YAXPBD@Z
$LN329@erase:
$LN40@erase:

; 1206 : 		_Nodeptr _Erasednode = _Where._Mynode();	// node to erase
; 1207 : 		++_Where;	// save successor iterator for return

  0001e	8d 4d 0c	 lea	 ecx, DWORD PTR __Where$[ebp]
  00021	e8 00 00 00 00	 call	 ??E?$_Tree_unchecked_const_iterator@V?$_Tree_val@V?$_Tmap_traits@HHU?$less@H@std@@V?$allocator@U?$pair@$$CBHH@std@@@2@$0A@@std@@@std@@U_Iterator_base0@2@@std@@QAEAAV01@XZ ; std::_Tree_unchecked_const_iterator<std::_Tree_val<std::_Tmap_traits<int,int,std::less<int>,std::allocator<std::pair<int const ,int> >,0> >,std::_Iterator_base0>::operator++

; 1208 :  #endif /* _ITERATOR_DEBUG_LEVEL == 2 */
; 1209 : 
; 1210 : 		_Nodeptr _Fixnode;	// the node to recolor as needed
; 1211 : 		_Nodeptr _Fixnodeparent;	// parent of _Fixnode (which may be nil)
; 1212 : 		_Nodeptr _Pnode = _Erasednode;
; 1213 : 
; 1214 : 		if (this->_Isnil(this->_Left(_Pnode)))

  00026	8b 13		 mov	 edx, DWORD PTR [ebx]
  00028	80 7a 15 00	 cmp	 BYTE PTR [edx+21], 0
  0002c	74 05		 je	 SHORT $LN39@erase

; 1215 : 			_Fixnode = this->_Right(_Pnode);	// stitch up right subtree

  0002e	8b 7b 08	 mov	 edi, DWORD PTR [ebx+8]

; 1216 : 		else if (this->_Isnil(this->_Right(_Pnode)))

  00031	eb 17		 jmp	 SHORT $LN321@erase
$LN39@erase:
  00033	8b 43 08	 mov	 eax, DWORD PTR [ebx+8]
  00036	80 78 15 00	 cmp	 BYTE PTR [eax+21], 0
  0003a	74 04		 je	 SHORT $LN37@erase

; 1217 : 			_Fixnode = this->_Left(_Pnode);	// stitch up left subtree

  0003c	8b fa		 mov	 edi, edx

; 1218 : 		else

  0003e	eb 0a		 jmp	 SHORT $LN321@erase
$LN37@erase:

; 1219 : 			{	// two subtrees, must lift successor node to replace erased
; 1220 : 			_Pnode = _Where._Mynode();	// _Pnode is successor node

  00040	8b 45 0c	 mov	 eax, DWORD PTR __Where$[ebp]

; 1221 : 			_Fixnode = this->_Right(_Pnode);	// _Fixnode is only subtree

  00043	8b 78 08	 mov	 edi, DWORD PTR [eax+8]

; 1222 : 			}
; 1223 : 
; 1224 : 		if (_Pnode == _Erasednode)

  00046	3b c3		 cmp	 eax, ebx
  00048	75 76		 jne	 SHORT $LN35@erase
$LN321@erase:

; 1225 : 			{	// at most one subtree, relink it
; 1226 : 			_Fixnodeparent = this->_Parent(_Erasednode);
; 1227 : 			if (!this->_Isnil(_Fixnode))

  0004a	80 7f 15 00	 cmp	 BYTE PTR [edi+21], 0
  0004e	8b 73 04	 mov	 esi, DWORD PTR [ebx+4]
  00051	75 03		 jne	 SHORT $LN34@erase

; 1228 : 				this->_Parent(_Fixnode) = _Fixnodeparent;	// link up

  00053	89 77 04	 mov	 DWORD PTR [edi+4], esi
$LN34@erase:

; 1229 : 
; 1230 : 			if (_Root() == _Erasednode)

  00056	8b 4d fc	 mov	 ecx, DWORD PTR _this$[ebp]
  00059	8b 41 04	 mov	 eax, DWORD PTR [ecx+4]
  0005c	39 58 04	 cmp	 DWORD PTR [eax+4], ebx
  0005f	75 05		 jne	 SHORT $LN33@erase

; 1231 : 				_Root() = _Fixnode;	// link down from root

  00061	89 78 04	 mov	 DWORD PTR [eax+4], edi

; 1232 : 			else if (this->_Left(_Fixnodeparent) == _Erasednode)

  00064	eb 0b		 jmp	 SHORT $LN30@erase
$LN33@erase:
  00066	39 1e		 cmp	 DWORD PTR [esi], ebx
  00068	75 04		 jne	 SHORT $LN31@erase

; 1233 : 				this->_Left(_Fixnodeparent) = _Fixnode;	// link down to left

  0006a	89 3e		 mov	 DWORD PTR [esi], edi

; 1234 : 			else

  0006c	eb 03		 jmp	 SHORT $LN30@erase
$LN31@erase:

; 1235 : 				this->_Right(_Fixnodeparent) =
; 1236 : 					_Fixnode;	// link down to right

  0006e	89 7e 08	 mov	 DWORD PTR [esi+8], edi
$LN30@erase:

; 1237 : 
; 1238 : 			if (_Lmost() == _Erasednode)

  00071	8b 49 04	 mov	 ecx, DWORD PTR [ecx+4]
  00074	39 19		 cmp	 DWORD PTR [ecx], ebx
  00076	75 1c		 jne	 SHORT $LN29@erase

; 1239 : 				_Lmost() = this->_Isnil(_Fixnode)
; 1240 : 					? _Fixnodeparent	// smallest is parent of erased node
; 1241 : 					: this->_Min(_Fixnode);	// smallest in relinked subtree

  00078	80 7f 15 00	 cmp	 BYTE PTR [edi+21], 0
  0007c	74 04		 je	 SHORT $LN43@erase
  0007e	8b d6		 mov	 edx, esi
  00080	eb 10		 jmp	 SHORT $LN97@erase
$LN43@erase:
  00082	8b 07		 mov	 eax, DWORD PTR [edi]
  00084	8b d7		 mov	 edx, edi
  00086	eb 04		 jmp	 SHORT $LN323@erase
$LL98@erase:
  00088	8b d0		 mov	 edx, eax
  0008a	8b 02		 mov	 eax, DWORD PTR [edx]
$LN323@erase:
  0008c	80 78 15 00	 cmp	 BYTE PTR [eax+21], 0
  00090	74 f6		 je	 SHORT $LL98@erase
$LN97@erase:
  00092	89 11		 mov	 DWORD PTR [ecx], edx
$LN29@erase:

; 1242 : 
; 1243 : 			if (_Rmost() == _Erasednode)

  00094	8b 45 fc	 mov	 eax, DWORD PTR _this$[ebp]
  00097	8b 48 04	 mov	 ecx, DWORD PTR [eax+4]
  0009a	39 59 08	 cmp	 DWORD PTR [ecx+8], ebx
  0009d	75 7b		 jne	 SHORT $LN185@erase

; 1244 : 				_Rmost() = this->_Isnil(_Fixnode)
; 1245 : 					? _Fixnodeparent	// largest is parent of erased node
; 1246 : 					: this->_Max(_Fixnode);	// largest in relinked subtree

  0009f	80 7f 15 00	 cmp	 BYTE PTR [edi+21], 0
  000a3	74 04		 je	 SHORT $LN45@erase
  000a5	8b d6		 mov	 edx, esi
  000a7	eb 12		 jmp	 SHORT $LN117@erase
$LN45@erase:
  000a9	8b 47 08	 mov	 eax, DWORD PTR [edi+8]
  000ac	8b d7		 mov	 edx, edi
  000ae	eb 05		 jmp	 SHORT $LN324@erase
$LL118@erase:
  000b0	8b d0		 mov	 edx, eax
  000b2	8b 42 08	 mov	 eax, DWORD PTR [edx+8]
$LN324@erase:
  000b5	80 78 15 00	 cmp	 BYTE PTR [eax+21], 0
  000b9	74 f5		 je	 SHORT $LL118@erase
$LN117@erase:
  000bb	89 51 08	 mov	 DWORD PTR [ecx+8], edx

; 1247 : 			}
; 1248 : 		else

  000be	eb 5a		 jmp	 SHORT $LN185@erase
$LN35@erase:

; 1249 : 			{	// erased has two subtrees, _Pnode is successor to erased
; 1250 : 			this->_Parent(this->_Left(_Erasednode)) =
; 1251 : 				_Pnode;	// link left up

  000c0	89 42 04	 mov	 DWORD PTR [edx+4], eax

; 1252 : 			this->_Left(_Pnode) =
; 1253 : 				this->_Left(_Erasednode);	// link successor down

  000c3	8b 13		 mov	 edx, DWORD PTR [ebx]
  000c5	89 10		 mov	 DWORD PTR [eax], edx

; 1254 : 
; 1255 : 			if (_Pnode == this->_Right(_Erasednode))

  000c7	3b 43 08	 cmp	 eax, DWORD PTR [ebx+8]
  000ca	75 04		 jne	 SHORT $LN26@erase

; 1256 : 				_Fixnodeparent = _Pnode;	// successor is next to erased

  000cc	8b f0		 mov	 esi, eax

; 1257 : 			else

  000ce	eb 1a		 jmp	 SHORT $LN25@erase
$LN26@erase:

; 1258 : 				{	// successor further down, link in place of erased
; 1259 : 				_Fixnodeparent =
; 1260 : 					this->_Parent(_Pnode);	// parent is successor's
; 1261 : 				if (!this->_Isnil(_Fixnode))

  000d0	80 7f 15 00	 cmp	 BYTE PTR [edi+21], 0
  000d4	8b 70 04	 mov	 esi, DWORD PTR [eax+4]
  000d7	75 03		 jne	 SHORT $LN24@erase

; 1262 : 					this->_Parent(_Fixnode) = _Fixnodeparent;	// link fix up

  000d9	89 77 04	 mov	 DWORD PTR [edi+4], esi
$LN24@erase:

; 1263 : 				this->_Left(_Fixnodeparent) = _Fixnode;	// link fix down

  000dc	89 3e		 mov	 DWORD PTR [esi], edi

; 1264 : 				this->_Right(_Pnode) =
; 1265 : 					this->_Right(_Erasednode);	// link next down

  000de	8b 53 08	 mov	 edx, DWORD PTR [ebx+8]
  000e1	89 50 08	 mov	 DWORD PTR [eax+8], edx

; 1266 : 				this->_Parent(this->_Right(_Erasednode)) =
; 1267 : 					_Pnode;	// right up

  000e4	8b 4b 08	 mov	 ecx, DWORD PTR [ebx+8]
  000e7	89 41 04	 mov	 DWORD PTR [ecx+4], eax
$LN25@erase:

; 1268 : 				}
; 1269 : 
; 1270 : 			if (_Root() == _Erasednode)

  000ea	8b 4d fc	 mov	 ecx, DWORD PTR _this$[ebp]
  000ed	8b 49 04	 mov	 ecx, DWORD PTR [ecx+4]
  000f0	39 59 04	 cmp	 DWORD PTR [ecx+4], ebx
  000f3	75 05		 jne	 SHORT $LN23@erase

; 1271 : 				_Root() = _Pnode;	// link down from root

  000f5	89 41 04	 mov	 DWORD PTR [ecx+4], eax

; 1272 : 			else if (this->_Left(this->_Parent(_Erasednode)) == _Erasednode)

  000f8	eb 0e		 jmp	 SHORT $LN20@erase
$LN23@erase:
  000fa	8b 4b 04	 mov	 ecx, DWORD PTR [ebx+4]
  000fd	39 19		 cmp	 DWORD PTR [ecx], ebx
  000ff	75 04		 jne	 SHORT $LN21@erase

; 1273 : 				this->_Left(this->_Parent(_Erasednode)) =
; 1274 : 					_Pnode;	// link down to left

  00101	89 01		 mov	 DWORD PTR [ecx], eax

; 1275 : 			else

  00103	eb 03		 jmp	 SHORT $LN20@erase
$LN21@erase:

; 1276 : 				this->_Right(this->_Parent(_Erasednode)) =
; 1277 : 					_Pnode;	// link down to right

  00105	89 41 08	 mov	 DWORD PTR [ecx+8], eax
$LN20@erase:

; 1278 : 
; 1279 : 			this->_Parent(_Pnode) =
; 1280 : 				this->_Parent(_Erasednode);	// link successor up

  00108	8b 4b 04	 mov	 ecx, DWORD PTR [ebx+4]
  0010b	89 48 04	 mov	 DWORD PTR [eax+4], ecx

; 1281 : 			_STD swap(this->_Color(_Pnode),
; 1282 : 				this->_Color(_Erasednode));	// recolor it

  0010e	8a 53 14	 mov	 dl, BYTE PTR [ebx+20]
  00111	8a 48 14	 mov	 cl, BYTE PTR [eax+20]
  00114	88 50 14	 mov	 BYTE PTR [eax+20], dl
  00117	88 4b 14	 mov	 BYTE PTR [ebx+20], cl
$LN185@erase:

; 1283 : 			}
; 1284 : 
; 1285 : 		if (this->_Color(_Erasednode) == this->_Black)

  0011a	80 7b 14 01	 cmp	 BYTE PTR [ebx+20], 1
  0011e	0f 85 03 01 00
	00		 jne	 $LN19@erase

; 1286 : 			{	// erasing black link, must recolor/rebalance tree
; 1287 : 			for (; _Fixnode != _Root()
; 1288 : 				&& this->_Color(_Fixnode) == this->_Black;
; 1289 : 				_Fixnodeparent = this->_Parent(_Fixnode))

  00124	e9 b2 00 00 00	 jmp	 $LN326@erase
$LL18@erase:
  00129	80 7f 14 01	 cmp	 BYTE PTR [edi+20], 1
  0012d	0f 85 f0 00 00
	00		 jne	 $LN16@erase

; 1290 : 				if (_Fixnode == this->_Left(_Fixnodeparent))

  00133	8b 06		 mov	 eax, DWORD PTR [esi]
  00135	3b f8		 cmp	 edi, eax
  00137	75 6c		 jne	 SHORT $LN15@erase

; 1291 : 					{	// fixup left subtree
; 1292 : 					_Pnode = this->_Right(_Fixnodeparent);

  00139	8b 46 08	 mov	 eax, DWORD PTR [esi+8]

; 1293 : 					if (this->_Color(_Pnode) == this->_Red)

  0013c	80 78 14 00	 cmp	 BYTE PTR [eax+20], 0
  00140	75 11		 jne	 SHORT $LN14@erase

; 1294 : 						{	// rotate red up from right subtree
; 1295 : 						this->_Color(_Pnode) = this->_Black;

  00142	c6 40 14 01	 mov	 BYTE PTR [eax+20], 1

; 1296 : 						this->_Color(_Fixnodeparent) = this->_Red;
; 1297 : 						_Lrotate(_Fixnodeparent);

  00146	56		 push	 esi
  00147	c6 46 14 00	 mov	 BYTE PTR [esi+20], 0
  0014b	e8 00 00 00 00	 call	 ?_Lrotate@?$_Tree@V?$_Tmap_traits@HHU?$less@H@std@@V?$allocator@U?$pair@$$CBHH@std@@@2@$0A@@std@@@std@@IAEXPAU_Node@?$_Tree_nod@V?$_Tmap_traits@HHU?$less@H@std@@V?$allocator@U?$pair@$$CBHH@std@@@2@$0A@@std@@@2@@Z ; std::_Tree<std::_Tmap_traits<int,int,std::less<int>,std::allocator<std::pair<int const ,int> >,0> >::_Lrotate

; 1298 : 						_Pnode = this->_Right(_Fixnodeparent);

  00150	8b 46 08	 mov	 eax, DWORD PTR [esi+8]
$LN14@erase:

; 1299 : 						}
; 1300 : 
; 1301 : 					if (this->_Isnil(_Pnode))

  00153	80 78 15 00	 cmp	 BYTE PTR [eax+21], 0

; 1302 : 						_Fixnode = _Fixnodeparent;	// shouldn't happen
; 1303 : 					else if (this->_Color(this->_Left(_Pnode)) == this->_Black

  00157	75 7d		 jne	 SHORT $LN327@erase

; 1304 : 						&& this->_Color(this->_Right(_Pnode)) == this->_Black)

  00159	8b 08		 mov	 ecx, DWORD PTR [eax]
  0015b	80 79 14 01	 cmp	 BYTE PTR [ecx+20], 1
  0015f	75 09		 jne	 SHORT $LN11@erase
  00161	8b 48 08	 mov	 ecx, DWORD PTR [eax+8]
  00164	80 79 14 01	 cmp	 BYTE PTR [ecx+20], 1
  00168	74 68		 je	 SHORT $LN328@erase
$LN11@erase:

; 1305 : 						{	// redden right subtree with black children
; 1306 : 						this->_Color(_Pnode) = this->_Red;
; 1307 : 						_Fixnode = _Fixnodeparent;
; 1308 : 						}
; 1309 : 					else
; 1310 : 						{	// must rearrange right subtree
; 1311 : 						if (this->_Color(this->_Right(_Pnode))
; 1312 : 							== this->_Black)

  0016a	8b 48 08	 mov	 ecx, DWORD PTR [eax+8]
  0016d	80 79 14 01	 cmp	 BYTE PTR [ecx+20], 1
  00171	75 16		 jne	 SHORT $LN9@erase

; 1313 : 							{	// rotate red up from left sub-subtree
; 1314 : 							this->_Color(this->_Left(_Pnode)) = this->_Black;

  00173	8b 08		 mov	 ecx, DWORD PTR [eax]
  00175	c6 41 14 01	 mov	 BYTE PTR [ecx+20], 1

; 1315 : 							this->_Color(_Pnode) = this->_Red;
; 1316 : 							_Rrotate(_Pnode);

  00179	8b 4d fc	 mov	 ecx, DWORD PTR _this$[ebp]
  0017c	50		 push	 eax
  0017d	c6 40 14 00	 mov	 BYTE PTR [eax+20], 0
  00181	e8 00 00 00 00	 call	 ?_Rrotate@?$_Tree@V?$_Tmap_traits@HHU?$less@H@std@@V?$allocator@U?$pair@$$CBHH@std@@@2@$0A@@std@@@std@@IAEXPAU_Node@?$_Tree_nod@V?$_Tmap_traits@HHU?$less@H@std@@V?$allocator@U?$pair@$$CBHH@std@@@2@$0A@@std@@@2@@Z ; std::_Tree<std::_Tmap_traits<int,int,std::less<int>,std::allocator<std::pair<int const ,int> >,0> >::_Rrotate

; 1317 : 							_Pnode = this->_Right(_Fixnodeparent);

  00186	8b 46 08	 mov	 eax, DWORD PTR [esi+8]
$LN9@erase:

; 1318 : 							}
; 1319 : 
; 1320 : 						this->_Color(_Pnode) = this->_Color(_Fixnodeparent);

  00189	8a 4e 14	 mov	 cl, BYTE PTR [esi+20]
  0018c	88 48 14	 mov	 BYTE PTR [eax+20], cl

; 1321 : 						this->_Color(_Fixnodeparent) = this->_Black;
; 1322 : 						this->_Color(this->_Right(_Pnode)) = this->_Black;
; 1323 : 						_Lrotate(_Fixnodeparent);

  0018f	8b 4d fc	 mov	 ecx, DWORD PTR _this$[ebp]
  00192	c6 46 14 01	 mov	 BYTE PTR [esi+20], 1
  00196	8b 40 08	 mov	 eax, DWORD PTR [eax+8]
  00199	56		 push	 esi
  0019a	c6 40 14 01	 mov	 BYTE PTR [eax+20], 1
  0019e	e8 00 00 00 00	 call	 ?_Lrotate@?$_Tree@V?$_Tmap_traits@HHU?$less@H@std@@V?$allocator@U?$pair@$$CBHH@std@@@2@$0A@@std@@@std@@IAEXPAU_Node@?$_Tree_nod@V?$_Tmap_traits@HHU?$less@H@std@@V?$allocator@U?$pair@$$CBHH@std@@@2@$0A@@std@@@2@@Z ; std::_Tree<std::_Tmap_traits<int,int,std::less<int>,std::allocator<std::pair<int const ,int> >,0> >::_Lrotate

; 1324 : 						break;	// tree now recolored/rebalanced

  001a3	eb 7e		 jmp	 SHORT $LN16@erase
$LN15@erase:

; 1325 : 						}
; 1326 : 					}
; 1327 : 				else
; 1328 : 					{	// fixup right subtree
; 1329 : 					_Pnode = this->_Left(_Fixnodeparent);
; 1330 : 					if (this->_Color(_Pnode) == this->_Red)

  001a5	80 78 14 00	 cmp	 BYTE PTR [eax+20], 0
  001a9	75 10		 jne	 SHORT $LN7@erase

; 1331 : 						{	// rotate red up from left subtree
; 1332 : 						this->_Color(_Pnode) = this->_Black;

  001ab	c6 40 14 01	 mov	 BYTE PTR [eax+20], 1

; 1333 : 						this->_Color(_Fixnodeparent) = this->_Red;
; 1334 : 						_Rrotate(_Fixnodeparent);

  001af	56		 push	 esi
  001b0	c6 46 14 00	 mov	 BYTE PTR [esi+20], 0
  001b4	e8 00 00 00 00	 call	 ?_Rrotate@?$_Tree@V?$_Tmap_traits@HHU?$less@H@std@@V?$allocator@U?$pair@$$CBHH@std@@@2@$0A@@std@@@std@@IAEXPAU_Node@?$_Tree_nod@V?$_Tmap_traits@HHU?$less@H@std@@V?$allocator@U?$pair@$$CBHH@std@@@2@$0A@@std@@@2@@Z ; std::_Tree<std::_Tmap_traits<int,int,std::less<int>,std::allocator<std::pair<int const ,int> >,0> >::_Rrotate

; 1335 : 						_Pnode = this->_Left(_Fixnodeparent);

  001b9	8b 06		 mov	 eax, DWORD PTR [esi]
$LN7@erase:

; 1336 : 						}
; 1337 : 					if (this->_Isnil(_Pnode))

  001bb	80 78 15 00	 cmp	 BYTE PTR [eax+21], 0

; 1338 : 						_Fixnode = _Fixnodeparent;	// shouldn't happen
; 1339 : 					else if (this->_Color(this->_Right(_Pnode)) ==

  001bf	75 15		 jne	 SHORT $LN327@erase

; 1340 : 						this->_Black
; 1341 : 						&& this->_Color(this->_Left(_Pnode)) == this->_Black)

  001c1	8b 48 08	 mov	 ecx, DWORD PTR [eax+8]
  001c4	80 79 14 01	 cmp	 BYTE PTR [ecx+20], 1
  001c8	75 22		 jne	 SHORT $LN4@erase
  001ca	8b 08		 mov	 ecx, DWORD PTR [eax]
  001cc	80 79 14 01	 cmp	 BYTE PTR [ecx+20], 1
  001d0	75 1a		 jne	 SHORT $LN4@erase
$LN328@erase:

; 1342 : 						{	// redden left subtree with black children
; 1343 : 						this->_Color(_Pnode) = this->_Red;

  001d2	c6 40 14 00	 mov	 BYTE PTR [eax+20], 0
$LN327@erase:

; 1344 : 						_Fixnode = _Fixnodeparent;

  001d6	8b fe		 mov	 edi, esi
  001d8	8b 76 04	 mov	 esi, DWORD PTR [esi+4]
$LN326@erase:

; 1286 : 			{	// erasing black link, must recolor/rebalance tree
; 1287 : 			for (; _Fixnode != _Root()
; 1288 : 				&& this->_Color(_Fixnode) == this->_Black;
; 1289 : 				_Fixnodeparent = this->_Parent(_Fixnode))

  001db	8b 4d fc	 mov	 ecx, DWORD PTR _this$[ebp]
  001de	8b 41 04	 mov	 eax, DWORD PTR [ecx+4]
  001e1	3b 78 04	 cmp	 edi, DWORD PTR [eax+4]
  001e4	0f 85 3f ff ff
	ff		 jne	 $LL18@erase
  001ea	eb 37		 jmp	 SHORT $LN16@erase
$LN4@erase:

; 1345 : 						}
; 1346 : 					else
; 1347 : 						{	// must rearrange left subtree
; 1348 : 						if (this->_Color(this->_Left(_Pnode)) == this->_Black)

  001ec	8b 08		 mov	 ecx, DWORD PTR [eax]
  001ee	80 79 14 01	 cmp	 BYTE PTR [ecx+20], 1
  001f2	75 16		 jne	 SHORT $LN2@erase

; 1349 : 							{	// rotate red up from right sub-subtree
; 1350 : 							this->_Color(this->_Right(_Pnode)) = this->_Black;

  001f4	8b 48 08	 mov	 ecx, DWORD PTR [eax+8]
  001f7	c6 41 14 01	 mov	 BYTE PTR [ecx+20], 1

; 1351 : 							this->_Color(_Pnode) = this->_Red;
; 1352 : 							_Lrotate(_Pnode);

  001fb	8b 4d fc	 mov	 ecx, DWORD PTR _this$[ebp]
  001fe	50		 push	 eax
  001ff	c6 40 14 00	 mov	 BYTE PTR [eax+20], 0
  00203	e8 00 00 00 00	 call	 ?_Lrotate@?$_Tree@V?$_Tmap_traits@HHU?$less@H@std@@V?$allocator@U?$pair@$$CBHH@std@@@2@$0A@@std@@@std@@IAEXPAU_Node@?$_Tree_nod@V?$_Tmap_traits@HHU?$less@H@std@@V?$allocator@U?$pair@$$CBHH@std@@@2@$0A@@std@@@2@@Z ; std::_Tree<std::_Tmap_traits<int,int,std::less<int>,std::allocator<std::pair<int const ,int> >,0> >::_Lrotate

; 1353 : 							_Pnode = this->_Left(_Fixnodeparent);

  00208	8b 06		 mov	 eax, DWORD PTR [esi]
$LN2@erase:

; 1354 : 							}
; 1355 : 
; 1356 : 						this->_Color(_Pnode) = this->_Color(_Fixnodeparent);

  0020a	8a 4e 14	 mov	 cl, BYTE PTR [esi+20]
  0020d	88 48 14	 mov	 BYTE PTR [eax+20], cl

; 1357 : 						this->_Color(_Fixnodeparent) = this->_Black;
; 1358 : 						this->_Color(this->_Left(_Pnode)) = this->_Black;
; 1359 : 						_Rrotate(_Fixnodeparent);

  00210	8b 4d fc	 mov	 ecx, DWORD PTR _this$[ebp]
  00213	c6 46 14 01	 mov	 BYTE PTR [esi+20], 1
  00217	8b 00		 mov	 eax, DWORD PTR [eax]
  00219	56		 push	 esi
  0021a	c6 40 14 01	 mov	 BYTE PTR [eax+20], 1
  0021e	e8 00 00 00 00	 call	 ?_Rrotate@?$_Tree@V?$_Tmap_traits@HHU?$less@H@std@@V?$allocator@U?$pair@$$CBHH@std@@@2@$0A@@std@@@std@@IAEXPAU_Node@?$_Tree_nod@V?$_Tmap_traits@HHU?$less@H@std@@V?$allocator@U?$pair@$$CBHH@std@@@2@$0A@@std@@@2@@Z ; std::_Tree<std::_Tmap_traits<int,int,std::less<int>,std::allocator<std::pair<int const ,int> >,0> >::_Rrotate
$LN16@erase:

; 1360 : 						break;	// tree now recolored/rebalanced
; 1361 : 						}
; 1362 : 					}
; 1363 : 
; 1364 : 			this->_Color(_Fixnode) = this->_Black;	// stopping node is black

  00223	c6 47 14 01	 mov	 BYTE PTR [edi+20], 1
$LN19@erase:

; 1365 : 			}
; 1366 : 
; 1367 : 		_Dest_val(this->_Alval,
; 1368 : 			_STD addressof(this->_Myval(_Erasednode)));	// delete erased node
; 1369 : 
; 1370 : 		this->_Alnod.deallocate(_Erasednode, 1);

  00227	53		 push	 ebx
  00228	e8 00 00 00 00	 call	 ??3@YAXPAX@Z		; operator delete
  0022d	59		 pop	 ecx

; 1371 : 
; 1372 : 		if (0 < this->_Mysize)

  0022e	8b 4d fc	 mov	 ecx, DWORD PTR _this$[ebp]
  00231	8b 41 08	 mov	 eax, DWORD PTR [ecx+8]
  00234	5f		 pop	 edi
  00235	5e		 pop	 esi
  00236	5b		 pop	 ebx
  00237	85 c0		 test	 eax, eax
  00239	74 04		 je	 SHORT $LN1@erase

; 1373 : 			--this->_Mysize;

  0023b	48		 dec	 eax
  0023c	89 41 08	 mov	 DWORD PTR [ecx+8], eax
$LN1@erase:

; 1374 : 
; 1375 : 		return (iterator(_Where._Ptr, this));	// return successor iterator

  0023f	8b 45 08	 mov	 eax, DWORD PTR ___$ReturnUdt$[ebp]
  00242	8b 4d 0c	 mov	 ecx, DWORD PTR __Where$[ebp]
  00245	89 08		 mov	 DWORD PTR [eax], ecx

; 1376 : 		}

  00247	c9		 leave
  00248	c2 08 00	 ret	 8
$LN322@erase:
?erase@?$_Tree@V?$_Tmap_traits@HHU?$less@H@std@@V?$allocator@U?$pair@$$CBHH@std@@@2@$0A@@std@@@std@@QAE?AV?$_Tree_iterator@V?$_Tree_val@V?$_Tmap_traits@HHU?$less@H@std@@V?$allocator@U?$pair@$$CBHH@std@@@2@$0A@@std@@@std@@@2@V?$_Tree_const_iterator@V?$_Tree_val@V?$_Tmap_traits@HHU?$less@H@std@@V?$allocator@U?$pair@$$CBHH@std@@@2@$0A@@std@@@std@@@2@@Z ENDP ; std::_Tree<std::_Tmap_traits<int,int,std::less<int>,std::allocator<std::pair<int const ,int> >,0> >::erase
_TEXT	ENDS
PUBLIC	?_Erase@?$_Tree@V?$_Tmap_traits@HHU?$less@H@std@@V?$allocator@U?$pair@$$CBHH@std@@@2@$0A@@std@@@std@@IAEXPAU_Node@?$_Tree_nod@V?$_Tmap_traits@HHU?$less@H@std@@V?$allocator@U?$pair@$$CBHH@std@@@2@$0A@@std@@@2@@Z ; std::_Tree<std::_Tmap_traits<int,int,std::less<int>,std::allocator<std::pair<int const ,int> >,0> >::_Erase
; Function compile flags: /Ogsp
;	COMDAT ?_Erase@?$_Tree@V?$_Tmap_traits@HHU?$less@H@std@@V?$allocator@U?$pair@$$CBHH@std@@@2@$0A@@std@@@std@@IAEXPAU_Node@?$_Tree_nod@V?$_Tmap_traits@HHU?$less@H@std@@V?$allocator@U?$pair@$$CBHH@std@@@2@$0A@@std@@@2@@Z
_TEXT	SEGMENT
__Rootnode$ = 8						; size = 4
?_Erase@?$_Tree@V?$_Tmap_traits@HHU?$less@H@std@@V?$allocator@U?$pair@$$CBHH@std@@@2@$0A@@std@@@std@@IAEXPAU_Node@?$_Tree_nod@V?$_Tmap_traits@HHU?$less@H@std@@V?$allocator@U?$pair@$$CBHH@std@@@2@$0A@@std@@@2@@Z PROC ; std::_Tree<std::_Tmap_traits<int,int,std::less<int>,std::allocator<std::pair<int const ,int> >,0> >::_Erase, COMDAT
; _this$ = ecx

; 1610 : 		{	// free entire subtree, recursively

  00000	55		 push	 ebp
  00001	8b ec		 mov	 ebp, esp
  00003	53		 push	 ebx
  00004	56		 push	 esi
  00005	57		 push	 edi

; 1611 : 		for (_Nodeptr _Pnode = _Rootnode;

  00006	8b 7d 08	 mov	 edi, DWORD PTR __Rootnode$[ebp]

; 1612 : 			!this->_Isnil(_Pnode); _Rootnode = _Pnode)

  00009	80 7f 15 00	 cmp	 BYTE PTR [edi+21], 0
  0000d	8b d9		 mov	 ebx, ecx
  0000f	8b f7		 mov	 esi, edi
  00011	75 1b		 jne	 SHORT $LN1@Erase
$LL3@Erase:

; 1613 : 			{	// free subtrees, then node
; 1614 : 			_Erase(this->_Right(_Pnode));

  00013	ff 76 08	 push	 DWORD PTR [esi+8]
  00016	8b cb		 mov	 ecx, ebx
  00018	e8 00 00 00 00	 call	 ?_Erase@?$_Tree@V?$_Tmap_traits@HHU?$less@H@std@@V?$allocator@U?$pair@$$CBHH@std@@@2@$0A@@std@@@std@@IAEXPAU_Node@?$_Tree_nod@V?$_Tmap_traits@HHU?$less@H@std@@V?$allocator@U?$pair@$$CBHH@std@@@2@$0A@@std@@@2@@Z ; std::_Tree<std::_Tmap_traits<int,int,std::less<int>,std::allocator<std::pair<int const ,int> >,0> >::_Erase

; 1615 : 			_Pnode = this->_Left(_Pnode);

  0001d	8b 36		 mov	 esi, DWORD PTR [esi]

; 1616 : 			_Dest_val(this->_Alval,
; 1617 : 				_STD addressof(this->_Myval(_Rootnode)));
; 1618 : 
; 1619 : 			this->_Alnod.deallocate(_Rootnode, 1);

  0001f	57		 push	 edi
  00020	e8 00 00 00 00	 call	 ??3@YAXPAX@Z		; operator delete
  00025	80 7e 15 00	 cmp	 BYTE PTR [esi+21], 0
  00029	59		 pop	 ecx
  0002a	8b fe		 mov	 edi, esi
  0002c	74 e5		 je	 SHORT $LL3@Erase
$LN1@Erase:
  0002e	5f		 pop	 edi
  0002f	5e		 pop	 esi
  00030	5b		 pop	 ebx

; 1620 : 			}
; 1621 : 		}

  00031	5d		 pop	 ebp
  00032	c2 04 00	 ret	 4
?_Erase@?$_Tree@V?$_Tmap_traits@HHU?$less@H@std@@V?$allocator@U?$pair@$$CBHH@std@@@2@$0A@@std@@@std@@IAEXPAU_Node@?$_Tree_nod@V?$_Tmap_traits@HHU?$less@H@std@@V?$allocator@U?$pair@$$CBHH@std@@@2@$0A@@std@@@2@@Z ENDP ; std::_Tree<std::_Tmap_traits<int,int,std::less<int>,std::allocator<std::pair<int const ,int> >,0> >::_Erase
_TEXT	ENDS
PUBLIC	?find@?$_Tree@V?$_Tmap_traits@HHU?$less@H@std@@V?$allocator@U?$pair@$$CBHH@std@@@2@$0A@@std@@@std@@QAE?AV?$_Tree_iterator@V?$_Tree_val@V?$_Tmap_traits@HHU?$less@H@std@@V?$allocator@U?$pair@$$CBHH@std@@@2@$0A@@std@@@std@@@2@ABH@Z ; std::_Tree<std::_Tmap_traits<int,int,std::less<int>,std::allocator<std::pair<int const ,int> >,0> >::find
; Function compile flags: /Ogsp
;	COMDAT ?find@?$_Tree@V?$_Tmap_traits@HHU?$less@H@std@@V?$allocator@U?$pair@$$CBHH@std@@@2@$0A@@std@@@std@@QAE?AV?$_Tree_iterator@V?$_Tree_val@V?$_Tmap_traits@HHU?$less@H@std@@V?$allocator@U?$pair@$$CBHH@std@@@2@$0A@@std@@@std@@@2@ABH@Z
_TEXT	SEGMENT
$T510699 = -4						; size = 4
___$ReturnUdt$ = 8					; size = 4
__Where$ = 12						; size = 4
__Keyval$ = 12						; size = 4
?find@?$_Tree@V?$_Tmap_traits@HHU?$less@H@std@@V?$allocator@U?$pair@$$CBHH@std@@@2@$0A@@std@@@std@@QAE?AV?$_Tree_iterator@V?$_Tree_val@V?$_Tmap_traits@HHU?$less@H@std@@V?$allocator@U?$pair@$$CBHH@std@@@2@$0A@@std@@@std@@@2@ABH@Z PROC ; std::_Tree<std::_Tmap_traits<int,int,std::less<int>,std::allocator<std::pair<int const ,int> >,0> >::find, COMDAT
; _this$ = ecx

; 1423 : 		{	// find an element in mutable sequence that matches _Keyval

  00000	55		 push	 ebp
  00001	8b ec		 mov	 ebp, esp
  00003	51		 push	 ecx
  00004	56		 push	 esi
  00005	57		 push	 edi

; 1424 : 		iterator _Where = lower_bound(_Keyval);

  00006	8b 7d 0c	 mov	 edi, DWORD PTR __Keyval$[ebp]
  00009	57		 push	 edi
  0000a	8b f1		 mov	 esi, ecx
  0000c	e8 00 00 00 00	 call	 ?_Lbound@?$_Tree@V?$_Tmap_traits@HHU?$less@H@std@@V?$allocator@U?$pair@$$CBHH@std@@@2@$0A@@std@@@std@@IAEPAU_Node@?$_Tree_nod@V?$_Tmap_traits@HHU?$less@H@std@@V?$allocator@U?$pair@$$CBHH@std@@@2@$0A@@std@@@2@ABH@Z ; std::_Tree<std::_Tmap_traits<int,int,std::less<int>,std::allocator<std::pair<int const ,int> >,0> >::_Lbound

; 1425 : 		return (_Where == end()
; 1426 : 			|| _DEBUG_LT_PRED(this->comp,
; 1427 : 				_Keyval, this->_Key(_Where._Mynode()))
; 1428 : 					? end() : _Where);

  00011	8b 76 04	 mov	 esi, DWORD PTR [esi+4]
  00014	89 45 0c	 mov	 DWORD PTR __Where$[ebp], eax
  00017	3b c6		 cmp	 eax, esi
  00019	74 0c		 je	 SHORT $LN3@find
  0001b	8b 0f		 mov	 ecx, DWORD PTR [edi]
  0001d	3b 48 0c	 cmp	 ecx, DWORD PTR [eax+12]
  00020	7c 05		 jl	 SHORT $LN3@find
  00022	8d 45 0c	 lea	 eax, DWORD PTR __Where$[ebp]
  00025	eb 06		 jmp	 SHORT $LN4@find
$LN3@find:
  00027	89 75 fc	 mov	 DWORD PTR $T510699[ebp], esi
  0002a	8d 45 fc	 lea	 eax, DWORD PTR $T510699[ebp]
$LN4@find:
  0002d	8b 08		 mov	 ecx, DWORD PTR [eax]
  0002f	8b 45 08	 mov	 eax, DWORD PTR ___$ReturnUdt$[ebp]
  00032	5f		 pop	 edi
  00033	89 08		 mov	 DWORD PTR [eax], ecx
  00035	5e		 pop	 esi

; 1429 : 		}

  00036	c9		 leave
  00037	c2 08 00	 ret	 8
?find@?$_Tree@V?$_Tmap_traits@HHU?$less@H@std@@V?$allocator@U?$pair@$$CBHH@std@@@2@$0A@@std@@@std@@QAE?AV?$_Tree_iterator@V?$_Tree_val@V?$_Tmap_traits@HHU?$less@H@std@@V?$allocator@U?$pair@$$CBHH@std@@@2@$0A@@std@@@std@@@2@ABH@Z ENDP ; std::_Tree<std::_Tmap_traits<int,int,std::less<int>,std::allocator<std::pair<int const ,int> >,0> >::find
_TEXT	ENDS
PUBLIC	?_Linsert@?$_Tree@V?$_Tmap_traits@HHU?$less@H@std@@V?$allocator@U?$pair@$$CBHH@std@@@2@$0A@@std@@@std@@QAE?AU?$pair@V?$_Tree_iterator@V?$_Tree_val@V?$_Tmap_traits@HHU?$less@H@std@@V?$allocator@U?$pair@$$CBHH@std@@@2@$0A@@std@@@std@@@std@@_N@2@PAU_Node@?$_Tree_nod@V?$_Tmap_traits@HHU?$less@H@std@@V?$allocator@U?$pair@$$CBHH@std@@@2@$0A@@std@@@2@_N@Z ; std::_Tree<std::_Tmap_traits<int,int,std::less<int>,std::allocator<std::pair<int const ,int> >,0> >::_Linsert
; Function compile flags: /Ogsp
;	COMDAT ?_Linsert@?$_Tree@V?$_Tmap_traits@HHU?$less@H@std@@V?$allocator@U?$pair@$$CBHH@std@@@2@$0A@@std@@@std@@QAE?AU?$pair@V?$_Tree_iterator@V?$_Tree_val@V?$_Tmap_traits@HHU?$less@H@std@@V?$allocator@U?$pair@$$CBHH@std@@@2@$0A@@std@@@std@@@std@@_N@2@PAU_Node@?$_Tree_nod@V?$_Tmap_traits@HHU?$less@H@std@@V?$allocator@U?$pair@$$CBHH@std@@@2@$0A@@std@@@2@_N@Z
_TEXT	SEGMENT
__Addleft$ = -4						; size = 1
___$ReturnUdt$ = 8					; size = 4
__Node$ = 12						; size = 4
$T510839 = 16						; size = 4
__Where$507403 = 16					; size = 4
__Leftish$ = 16						; size = 1
?_Linsert@?$_Tree@V?$_Tmap_traits@HHU?$less@H@std@@V?$allocator@U?$pair@$$CBHH@std@@@2@$0A@@std@@@std@@QAE?AU?$pair@V?$_Tree_iterator@V?$_Tree_val@V?$_Tmap_traits@HHU?$less@H@std@@V?$allocator@U?$pair@$$CBHH@std@@@2@$0A@@std@@@std@@@std@@_N@2@PAU_Node@?$_Tree_nod@V?$_Tmap_traits@HHU?$less@H@std@@V?$allocator@U?$pair@$$CBHH@std@@@2@$0A@@std@@@2@_N@Z PROC ; std::_Tree<std::_Tmap_traits<int,int,std::less<int>,std::allocator<std::pair<int const ,int> >,0> >::_Linsert, COMDAT
; _this$ = ecx

; 944  : 		{	// try to insert node at _Node, on left if _Leftish

  00000	55		 push	 ebp
  00001	8b ec		 mov	 ebp, esp
  00003	51		 push	 ecx
  00004	53		 push	 ebx
  00005	56		 push	 esi
  00006	8b f1		 mov	 esi, ecx

; 945  : 		const value_type& _Val = this->_Myval(_Node);
; 946  : 
; 947  : 		_Nodeptr _Trynode = _Root();

  00008	8b 4e 04	 mov	 ecx, DWORD PTR [esi+4]
  0000b	8b 41 04	 mov	 eax, DWORD PTR [ecx+4]

; 948  : 		_Nodeptr _Wherenode = this->_Myhead;
; 949  : 		bool _Addleft = true;	// add to left of head if tree empty
; 950  : 		while (!this->_Isnil(_Trynode))

  0000e	80 78 15 00	 cmp	 BYTE PTR [eax+21], 0
  00012	57		 push	 edi
  00013	8b d9		 mov	 ebx, ecx
  00015	c6 45 fc 01	 mov	 BYTE PTR __Addleft$[ebp], 1
  00019	75 31		 jne	 SHORT $LN151@Linsert

; 987  : 
; 988  : 				return (_Pairib(_Where, false));

  0001b	8b 4d 0c	 mov	 ecx, DWORD PTR __Node$[ebp]
  0001e	8b 79 0c	 mov	 edi, DWORD PTR [ecx+12]
$LL12@Linsert:

; 951  : 			{	// look for leaf to insert before (_Addleft) or after
; 952  : 			_Wherenode = _Trynode;

  00021	80 7d 10 00	 cmp	 BYTE PTR __Leftish$[ebp], 0
  00025	8b d8		 mov	 ebx, eax

; 953  : 			if (_Leftish)

  00027	74 09		 je	 SHORT $LN10@Linsert

; 954  : 				_Addleft = !_DEBUG_LT_PRED(this->comp,

  00029	39 78 0c	 cmp	 DWORD PTR [eax+12], edi
  0002c	0f 9d 45 fc	 setge	 BYTE PTR __Addleft$[ebp]

; 955  : 					this->_Key(_Trynode),
; 956  : 					this->_Kfn(_Val));	// favor left end
; 957  : 			else

  00030	eb 07		 jmp	 SHORT $LN9@Linsert
$LN10@Linsert:

; 958  : 				_Addleft = _DEBUG_LT_PRED(this->comp,

  00032	3b 78 0c	 cmp	 edi, DWORD PTR [eax+12]
  00035	0f 9c 45 fc	 setl	 BYTE PTR __Addleft$[ebp]
$LN9@Linsert:

; 959  : 					this->_Kfn(_Val),
; 960  : 					this->_Key(_Trynode));	// favor right end
; 961  : 			_Trynode = _Addleft ? this->_Left(_Trynode)
; 962  : 				: this->_Right(_Trynode);

  00039	80 7d fc 00	 cmp	 BYTE PTR __Addleft$[ebp], 0
  0003d	74 04		 je	 SHORT $LN15@Linsert
  0003f	8b 00		 mov	 eax, DWORD PTR [eax]
  00041	eb 03		 jmp	 SHORT $LN16@Linsert
$LN15@Linsert:
  00043	8b 40 08	 mov	 eax, DWORD PTR [eax+8]
$LN16@Linsert:

; 948  : 		_Nodeptr _Wherenode = this->_Myhead;
; 949  : 		bool _Addleft = true;	// add to left of head if tree empty
; 950  : 		while (!this->_Isnil(_Trynode))

  00046	80 78 15 00	 cmp	 BYTE PTR [eax+21], 0
  0004a	74 d5		 je	 SHORT $LL12@Linsert
$LN151@Linsert:

; 963  : 			}
; 964  : 
; 965  : 		if (this->_Multi)
; 966  : 			return (_Pairib(_Insert(_Addleft, _Wherenode, _Node), true));
; 967  : 		else
; 968  : 			{	// insert only if unique
; 969  : 			iterator _Where = iterator(_Wherenode, this);
; 970  : 			if (!_Addleft)

  0004c	80 7d fc 00	 cmp	 BYTE PTR __Addleft$[ebp], 0
  00050	8b fb		 mov	 edi, ebx
  00052	89 7d 10	 mov	 DWORD PTR __Where$507403[ebp], edi
  00055	74 30		 je	 SHORT $LN99@Linsert

; 971  : 				;	// need to test if insert after is okay
; 972  : 			else if (_Where == begin())

  00057	8b 46 04	 mov	 eax, DWORD PTR [esi+4]
  0005a	3b 18		 cmp	 ebx, DWORD PTR [eax]
  0005c	75 1e		 jne	 SHORT $LN4@Linsert

; 973  : 				return (_Pairib(_Insert(true, _Wherenode, _Node), true));

  0005e	ff 75 0c	 push	 DWORD PTR __Node$[ebp]
  00061	53		 push	 ebx
  00062	6a 01		 push	 1
$LN152@Linsert:
  00064	8d 45 10	 lea	 eax, DWORD PTR $T510839[ebp]
  00067	50		 push	 eax
  00068	8b ce		 mov	 ecx, esi
  0006a	e8 00 00 00 00	 call	 ?_Insert@?$_Tree@V?$_Tmap_traits@HHU?$less@H@std@@V?$allocator@U?$pair@$$CBHH@std@@@2@$0A@@std@@@std@@IAE?AV?$_Tree_iterator@V?$_Tree_val@V?$_Tmap_traits@HHU?$less@H@std@@V?$allocator@U?$pair@$$CBHH@std@@@2@$0A@@std@@@std@@@2@_NPAU_Node@?$_Tree_nod@V?$_Tmap_traits@HHU?$less@H@std@@V?$allocator@U?$pair@$$CBHH@std@@@2@$0A@@std@@@2@1@Z ; std::_Tree<std::_Tmap_traits<int,int,std::less<int>,std::allocator<std::pair<int const ,int> >,0> >::_Insert
  0006f	8b 08		 mov	 ecx, DWORD PTR [eax]
  00071	8b 45 08	 mov	 eax, DWORD PTR ___$ReturnUdt$[ebp]
  00074	89 08		 mov	 DWORD PTR [eax], ecx
  00076	c6 40 04 01	 mov	 BYTE PTR [eax+4], 1
  0007a	eb 2c		 jmp	 SHORT $LN1@Linsert
$LN4@Linsert:

; 974  : 			else
; 975  : 				--_Where;	// need to test if insert before is okay

  0007c	8d 4d 10	 lea	 ecx, DWORD PTR __Where$507403[ebp]
  0007f	e8 00 00 00 00	 call	 ??F?$_Tree_unchecked_const_iterator@V?$_Tree_val@V?$_Tmap_traits@HHU?$less@H@std@@V?$allocator@U?$pair@$$CBHH@std@@@2@$0A@@std@@@std@@U_Iterator_base0@2@@std@@QAEAAV01@XZ ; std::_Tree_unchecked_const_iterator<std::_Tree_val<std::_Tmap_traits<int,int,std::less<int>,std::allocator<std::pair<int const ,int> >,0> >,std::_Iterator_base0>::operator--
  00084	8b 7d 10	 mov	 edi, DWORD PTR __Where$507403[ebp]
$LN99@Linsert:

; 976  : 
; 977  : 			if (_DEBUG_LT_PRED(this->comp,

  00087	8b 45 0c	 mov	 eax, DWORD PTR __Node$[ebp]
  0008a	8b 4f 0c	 mov	 ecx, DWORD PTR [edi+12]

; 978  : 				this->_Key(_Where._Mynode()),
; 979  : 				this->_Kfn(_Val)))
; 980  : 				return (_Pairib(_Insert(_Addleft, _Wherenode, _Node), true));

  0008d	50		 push	 eax
  0008e	3b 48 0c	 cmp	 ecx, DWORD PTR [eax+12]
  00091	7d 06		 jge	 SHORT $LN2@Linsert
  00093	53		 push	 ebx
  00094	ff 75 fc	 push	 DWORD PTR __Addleft$[ebp]
  00097	eb cb		 jmp	 SHORT $LN152@Linsert
$LN2@Linsert:

; 981  : 			else
; 982  : 				{	// duplicate, don't insert
; 983  : 				_Dest_val(this->_Alval,
; 984  : 					_STD addressof(this->_Myval(_Node)));
; 985  : 
; 986  : 				this->_Alnod.deallocate(_Node, 1);

  00099	e8 00 00 00 00	 call	 ??3@YAXPAX@Z		; operator delete

; 987  : 
; 988  : 				return (_Pairib(_Where, false));

  0009e	8b 45 08	 mov	 eax, DWORD PTR ___$ReturnUdt$[ebp]
  000a1	59		 pop	 ecx
  000a2	89 38		 mov	 DWORD PTR [eax], edi
  000a4	c6 40 04 00	 mov	 BYTE PTR [eax+4], 0
$LN1@Linsert:
  000a8	5f		 pop	 edi
  000a9	5e		 pop	 esi
  000aa	5b		 pop	 ebx

; 989  : 				}
; 990  : 			}
; 991  : 		}

  000ab	c9		 leave
  000ac	c2 0c 00	 ret	 12			; 0000000cH
?_Linsert@?$_Tree@V?$_Tmap_traits@HHU?$less@H@std@@V?$allocator@U?$pair@$$CBHH@std@@@2@$0A@@std@@@std@@QAE?AU?$pair@V?$_Tree_iterator@V?$_Tree_val@V?$_Tmap_traits@HHU?$less@H@std@@V?$allocator@U?$pair@$$CBHH@std@@@2@$0A@@std@@@std@@@std@@_N@2@PAU_Node@?$_Tree_nod@V?$_Tmap_traits@HHU?$less@H@std@@V?$allocator@U?$pair@$$CBHH@std@@@2@$0A@@std@@@2@_N@Z ENDP ; std::_Tree<std::_Tmap_traits<int,int,std::less<int>,std::allocator<std::pair<int const ,int> >,0> >::_Linsert
_TEXT	ENDS
PUBLIC	??$_Cons_val@V?$allocator@U?$pair@$$CBHH@std@@@std@@U?$pair@$$CBHH@2@U32@@std@@YAXAAV?$allocator@U?$pair@$$CBHH@std@@@0@PAU?$pair@$$CBHH@0@$$QAU20@@Z ; std::_Cons_val<std::allocator<std::pair<int const ,int> >,std::pair<int const ,int>,std::pair<int const ,int> >
; Function compile flags: /Ogsp
; File c:\program files (x86)\microsoft visual studio 10.0\vc\include\xmemory
;	COMDAT ??$_Cons_val@V?$allocator@U?$pair@$$CBHH@std@@@std@@U?$pair@$$CBHH@2@U32@@std@@YAXAAV?$allocator@U?$pair@$$CBHH@std@@@0@PAU?$pair@$$CBHH@0@$$QAU20@@Z
_TEXT	SEGMENT
__Alval$ = 8						; size = 4
__Pdest$ = 12						; size = 4
__Src$ = 16						; size = 4
??$_Cons_val@V?$allocator@U?$pair@$$CBHH@std@@@std@@U?$pair@$$CBHH@2@U32@@std@@YAXAAV?$allocator@U?$pair@$$CBHH@std@@@0@PAU?$pair@$$CBHH@0@$$QAU20@@Z PROC ; std::_Cons_val<std::allocator<std::pair<int const ,int> >,std::pair<int const ,int>,std::pair<int const ,int> >, COMDAT

; 279  : 	{	// construct using allocator

  00000	55		 push	 ebp
  00001	8b ec		 mov	 ebp, esp

; 280  : 	_Alval.construct(_Pdest, _STD forward<_Ty2>(_Src));

  00003	8b 45 0c	 mov	 eax, DWORD PTR __Pdest$[ebp]
  00006	85 c0		 test	 eax, eax
  00008	74 0d		 je	 SHORT $LN7@Cons_val
  0000a	8b 4d 10	 mov	 ecx, DWORD PTR __Src$[ebp]
  0000d	8b 11		 mov	 edx, DWORD PTR [ecx]
  0000f	89 10		 mov	 DWORD PTR [eax], edx
  00011	8b 49 04	 mov	 ecx, DWORD PTR [ecx+4]
  00014	89 48 04	 mov	 DWORD PTR [eax+4], ecx
$LN7@Cons_val:

; 281  : 	}

  00017	5d		 pop	 ebp
  00018	c3		 ret	 0
??$_Cons_val@V?$allocator@U?$pair@$$CBHH@std@@@std@@U?$pair@$$CBHH@2@U32@@std@@YAXAAV?$allocator@U?$pair@$$CBHH@std@@@0@PAU?$pair@$$CBHH@0@$$QAU20@@Z ENDP ; std::_Cons_val<std::allocator<std::pair<int const ,int> >,std::pair<int const ,int>,std::pair<int const ,int> >
_TEXT	ENDS
PUBLIC	?clear@?$_Tree@V?$_Tmap_traits@HHU?$less@H@std@@V?$allocator@U?$pair@$$CBHH@std@@@2@$0A@@std@@@std@@QAEXXZ ; std::_Tree<std::_Tmap_traits<int,int,std::less<int>,std::allocator<std::pair<int const ,int> >,0> >::clear
; Function compile flags: /Ogsp
; File c:\program files (x86)\microsoft visual studio 10.0\vc\include\xtree
;	COMDAT ?clear@?$_Tree@V?$_Tmap_traits@HHU?$less@H@std@@V?$allocator@U?$pair@$$CBHH@std@@@2@$0A@@std@@@std@@QAEXXZ
_TEXT	SEGMENT
?clear@?$_Tree@V?$_Tmap_traits@HHU?$less@H@std@@V?$allocator@U?$pair@$$CBHH@std@@@2@$0A@@std@@@std@@QAEXXZ PROC ; std::_Tree<std::_Tmap_traits<int,int,std::less<int>,std::allocator<std::pair<int const ,int> >,0> >::clear, COMDAT
; _this$ = ecx

; 1410 : 		{	// erase all

  00000	56		 push	 esi
  00001	57		 push	 edi
  00002	8b f9		 mov	 edi, ecx

; 1411 :  #if _ITERATOR_DEBUG_LEVEL == 2
; 1412 : 		this->_Orphan_ptr(*this, 0);
; 1413 :  #endif /* _ITERATOR_DEBUG_LEVEL == 2 */
; 1414 : 
; 1415 : 		_Erase(_Root());

  00004	8b 47 04	 mov	 eax, DWORD PTR [edi+4]
  00007	ff 70 04	 push	 DWORD PTR [eax+4]
  0000a	e8 00 00 00 00	 call	 ?_Erase@?$_Tree@V?$_Tmap_traits@HHU?$less@H@std@@V?$allocator@U?$pair@$$CBHH@std@@@2@$0A@@std@@@std@@IAEXPAU_Node@?$_Tree_nod@V?$_Tmap_traits@HHU?$less@H@std@@V?$allocator@U?$pair@$$CBHH@std@@@2@$0A@@std@@@2@@Z ; std::_Tree<std::_Tmap_traits<int,int,std::less<int>,std::allocator<std::pair<int const ,int> >,0> >::_Erase

; 1416 : 		_Root() = this->_Myhead;

  0000f	8b 47 04	 mov	 eax, DWORD PTR [edi+4]
  00012	89 40 04	 mov	 DWORD PTR [eax+4], eax

; 1417 : 		_Lmost() = this->_Myhead;

  00015	8b 47 04	 mov	 eax, DWORD PTR [edi+4]
  00018	89 00		 mov	 DWORD PTR [eax], eax

; 1418 : 		_Rmost() = this->_Myhead;

  0001a	8b 77 04	 mov	 esi, DWORD PTR [edi+4]
  0001d	89 76 08	 mov	 DWORD PTR [esi+8], esi

; 1419 : 		this->_Mysize = 0;

  00020	83 67 08 00	 and	 DWORD PTR [edi+8], 0
  00024	5f		 pop	 edi
  00025	5e		 pop	 esi

; 1420 : 		}

  00026	c3		 ret	 0
?clear@?$_Tree@V?$_Tmap_traits@HHU?$less@H@std@@V?$allocator@U?$pair@$$CBHH@std@@@2@$0A@@std@@@std@@QAEXXZ ENDP ; std::_Tree<std::_Tmap_traits<int,int,std::less<int>,std::allocator<std::pair<int const ,int> >,0> >::clear
_TEXT	ENDS
PUBLIC	__real@4f800000
PUBLIC	?GetPromotionTime@ioItemRechargeManager@@QAEHH@Z ; ioItemRechargeManager::GetPromotionTime
EXTRN	__fltused:DWORD
EXTRN	__ftol2_sse:PROC
;	COMDAT __real@4f800000
; File d:\lost saga for developer\youtube\tutorial\source\src\lsclient\stdafx.h
CONST	SEGMENT
__real@4f800000 DD 04f800000r			; 4.29497e+009
; Function compile flags: /Ogsp
; File d:\lost saga for developer\youtube\tutorial\source\src\lsclient\ioitemrechargemanager.cpp
CONST	ENDS
;	COMDAT ?GetPromotionTime@ioItemRechargeManager@@QAEHH@Z
_TEXT	SEGMENT
tv308 = -4						; size = 4
_iter$ = -4						; size = 4
_iItemCode$ = 8						; size = 4
?GetPromotionTime@ioItemRechargeManager@@QAEHH@Z PROC	; ioItemRechargeManager::GetPromotionTime, COMDAT
; _this$ = ecx

; 59   : {

  00000	55		 push	 ebp
  00001	8b ec		 mov	 ebp, esp
  00003	51		 push	 ecx
  00004	56		 push	 esi

; 60   : 	mapExceptionInfo::iterator iter = m_ExceptionInfoList.find( iItemCode );

  00005	8d 45 08	 lea	 eax, DWORD PTR _iItemCode$[ebp]
  00008	50		 push	 eax
  00009	8b f1		 mov	 esi, ecx
  0000b	8d 45 fc	 lea	 eax, DWORD PTR _iter$[ebp]
  0000e	50		 push	 eax
  0000f	8d 4e 34	 lea	 ecx, DWORD PTR [esi+52]
  00012	e8 00 00 00 00	 call	 ?find@?$_Tree@V?$_Tmap_traits@HHU?$less@H@std@@V?$allocator@U?$pair@$$CBHH@std@@@2@$0A@@std@@@std@@QAE?AV?$_Tree_iterator@V?$_Tree_val@V?$_Tmap_traits@HHU?$less@H@std@@V?$allocator@U?$pair@$$CBHH@std@@@2@$0A@@std@@@std@@@2@ABH@Z ; std::_Tree<std::_Tmap_traits<int,int,std::less<int>,std::allocator<std::pair<int const ,int> >,0> >::find

; 61   : 	if( iter != m_ExceptionInfoList.end() )

  00017	8b 45 fc	 mov	 eax, DWORD PTR _iter$[ebp]
  0001a	3b 46 38	 cmp	 eax, DWORD PTR [esi+56]
  0001d	74 08		 je	 SHORT $LN23@GetPromoti

; 62   : 	{
; 63   : 		return iter->second;

  0001f	8b 40 10	 mov	 eax, DWORD PTR [eax+16]
  00022	e9 b4 00 00 00	 jmp	 $LN24@GetPromoti
$LN23@GetPromoti:

; 64   : 	}
; 65   : 
; 66   : 	int iGroup = static_cast<int>(iItemCode/DEFAULT_BASIC_ITEM_CODE) + 1;
; 67   : 	int iExtra = static_cast<int>(iItemCode/10000) % 10;

  00027	8b 45 08	 mov	 eax, DWORD PTR _iItemCode$[ebp]
  0002a	99		 cdq
  0002b	b9 10 27 00 00	 mov	 ecx, 10000		; 00002710H
  00030	f7 f9		 idiv	 ecx
  00032	53		 push	 ebx
  00033	57		 push	 edi
  00034	6a 0a		 push	 10			; 0000000aH
  00036	59		 pop	 ecx
  00037	99		 cdq
  00038	f7 f9		 idiv	 ecx
  0003a	8b fa		 mov	 edi, edx

; 68   : 	int iRare  = static_cast<int>(iItemCode/FLOAT1000) % 10;

  0003c	b8 e8 03 00 00	 mov	 eax, 1000		; 000003e8H
  00041	db 45 08	 fild	 DWORD PTR _iItemCode$[ebp]
  00044	89 45 fc	 mov	 DWORD PTR tv308[ebp], eax
  00047	db 45 fc	 fild	 DWORD PTR tv308[ebp]
  0004a	85 c0		 test	 eax, eax
  0004c	79 06		 jns	 SHORT $LN51@GetPromoti
  0004e	d8 05 00 00 00
	00		 fadd	 DWORD PTR __real@4f800000
$LN51@GetPromoti:
  00054	de f9		 fdivp	 ST(1), ST(0)
  00056	e8 00 00 00 00	 call	 __ftol2_sse
  0005b	99		 cdq
  0005c	6a 0a		 push	 10			; 0000000aH
  0005e	59		 pop	 ecx
  0005f	f7 f9		 idiv	 ecx
  00061	8b 45 08	 mov	 eax, DWORD PTR _iItemCode$[ebp]
  00064	bb a0 86 01 00	 mov	 ebx, 100000		; 000186a0H
  00069	8b ca		 mov	 ecx, edx
  0006b	99		 cdq
  0006c	f7 fb		 idiv	 ebx
  0006e	40		 inc	 eax

; 69   : 	switch( iGroup )

  0006f	48		 dec	 eax
  00070	74 52		 je	 SHORT $LN20@GetPromoti
  00072	48		 dec	 eax
  00073	74 38		 je	 SHORT $LN16@GetPromoti
  00075	48		 dec	 eax
  00076	74 1e		 je	 SHORT $LN11@GetPromoti
  00078	48		 dec	 eax
  00079	74 04		 je	 SHORT $LN6@GetPromoti

; 106  : 		}
; 107  : 	}
; 108  : 
; 109  : 	return 0;

  0007b	33 c0		 xor	 eax, eax
  0007d	eb 5a		 jmp	 SHORT $LN50@GetPromoti
$LN6@GetPromoti:

; 97   : 		}
; 98   : 	case 4:
; 99   : 		{
; 100  : 			if( iRare > 0 )

  0007f	85 c9		 test	 ecx, ecx
  00081	7e 05		 jle	 SHORT $LN4@GetPromoti

; 101  : 				return m_RareItem.m_iCloak;

  00083	8b 46 30	 mov	 eax, DWORD PTR [esi+48]
  00086	eb 51		 jmp	 SHORT $LN50@GetPromoti
$LN4@GetPromoti:

; 102  : 			else if( iExtra > 0 )

  00088	85 ff		 test	 edi, edi
  0008a	7e 05		 jle	 SHORT $LN2@GetPromoti

; 103  : 				return m_ExtraItem.m_iCloak;

  0008c	8b 46 20	 mov	 eax, DWORD PTR [esi+32]
  0008f	eb 48		 jmp	 SHORT $LN50@GetPromoti
$LN2@GetPromoti:

; 104  : 			else
; 105  : 				return m_NormalItem.m_iCloak;

  00091	8b 46 10	 mov	 eax, DWORD PTR [esi+16]
  00094	eb 43		 jmp	 SHORT $LN50@GetPromoti
$LN11@GetPromoti:

; 88   : 		}
; 89   : 	case 3:
; 90   : 		{
; 91   : 			if( iRare > 0 )

  00096	85 c9		 test	 ecx, ecx
  00098	7e 05		 jle	 SHORT $LN9@GetPromoti

; 92   : 				return m_RareItem.m_iHelmet;

  0009a	8b 46 2c	 mov	 eax, DWORD PTR [esi+44]
  0009d	eb 3a		 jmp	 SHORT $LN50@GetPromoti
$LN9@GetPromoti:

; 93   : 			else if( iExtra > 0 )

  0009f	85 ff		 test	 edi, edi
  000a1	7e 05		 jle	 SHORT $LN7@GetPromoti

; 94   : 				return m_ExtraItem.m_iHelmet;

  000a3	8b 46 1c	 mov	 eax, DWORD PTR [esi+28]
  000a6	eb 31		 jmp	 SHORT $LN50@GetPromoti
$LN7@GetPromoti:

; 95   : 			else
; 96   : 				return m_NormalItem.m_iHelmet;

  000a8	8b 46 0c	 mov	 eax, DWORD PTR [esi+12]
  000ab	eb 2c		 jmp	 SHORT $LN50@GetPromoti
$LN16@GetPromoti:

; 79   : 		}
; 80   : 	case 2:
; 81   : 		{
; 82   : 			if( iRare > 0 )

  000ad	85 c9		 test	 ecx, ecx
  000af	7e 05		 jle	 SHORT $LN14@GetPromoti

; 83   : 				return m_RareItem.m_iArmor;

  000b1	8b 46 28	 mov	 eax, DWORD PTR [esi+40]
  000b4	eb 23		 jmp	 SHORT $LN50@GetPromoti
$LN14@GetPromoti:

; 84   : 			else if( iExtra > 0 )

  000b6	85 ff		 test	 edi, edi
  000b8	7e 05		 jle	 SHORT $LN12@GetPromoti

; 85   : 				return m_ExtraItem.m_iArmor;

  000ba	8b 46 18	 mov	 eax, DWORD PTR [esi+24]
  000bd	eb 1a		 jmp	 SHORT $LN50@GetPromoti
$LN12@GetPromoti:

; 86   : 			else
; 87   : 				return m_NormalItem.m_iArmor;

  000bf	8b 46 08	 mov	 eax, DWORD PTR [esi+8]
  000c2	eb 15		 jmp	 SHORT $LN50@GetPromoti
$LN20@GetPromoti:

; 70   : 	{
; 71   : 	case 1:
; 72   : 		{
; 73   : 			if( iRare > 0 )

  000c4	85 c9		 test	 ecx, ecx
  000c6	7e 05		 jle	 SHORT $LN19@GetPromoti

; 74   : 				return m_RareItem.m_iWeapon;

  000c8	8b 46 24	 mov	 eax, DWORD PTR [esi+36]
  000cb	eb 0c		 jmp	 SHORT $LN50@GetPromoti
$LN19@GetPromoti:

; 75   : 			else if( iExtra > 0 )

  000cd	85 ff		 test	 edi, edi
  000cf	7e 05		 jle	 SHORT $LN17@GetPromoti

; 76   : 				return m_ExtraItem.m_iWeapon;

  000d1	8b 46 14	 mov	 eax, DWORD PTR [esi+20]
  000d4	eb 03		 jmp	 SHORT $LN50@GetPromoti
$LN17@GetPromoti:

; 77   : 			else
; 78   : 				return m_NormalItem.m_iWeapon;

  000d6	8b 46 04	 mov	 eax, DWORD PTR [esi+4]
$LN50@GetPromoti:
  000d9	5f		 pop	 edi
  000da	5b		 pop	 ebx
$LN24@GetPromoti:
  000db	5e		 pop	 esi

; 110  : }

  000dc	c9		 leave
  000dd	c2 04 00	 ret	 4
?GetPromotionTime@ioItemRechargeManager@@QAEHH@Z ENDP	; ioItemRechargeManager::GetPromotionTime
_TEXT	ENDS
PUBLIC	??$_Buynode@U?$pair@$$CBHH@std@@@?$_Tree_val@V?$_Tmap_traits@HHU?$less@H@std@@V?$allocator@U?$pair@$$CBHH@std@@@2@$0A@@std@@@std@@QAEPAU_Node@?$_Tree_nod@V?$_Tmap_traits@HHU?$less@H@std@@V?$allocator@U?$pair@$$CBHH@std@@@2@$0A@@std@@@1@$$QAU?$pair@$$CBHH@1@@Z ; std::_Tree_val<std::_Tmap_traits<int,int,std::less<int>,std::allocator<std::pair<int const ,int> >,0> >::_Buynode<std::pair<int const ,int> >
; Function compile flags: /Ogsp
; File c:\program files (x86)\microsoft visual studio 10.0\vc\include\xtree
;	COMDAT ??$_Buynode@U?$pair@$$CBHH@std@@@?$_Tree_val@V?$_Tmap_traits@HHU?$less@H@std@@V?$allocator@U?$pair@$$CBHH@std@@@2@$0A@@std@@@std@@QAEPAU_Node@?$_Tree_nod@V?$_Tmap_traits@HHU?$less@H@std@@V?$allocator@U?$pair@$$CBHH@std@@@2@$0A@@std@@@1@$$QAU?$pair@$$CBHH@1@@Z
_TEXT	SEGMENT
__Val$ = 8						; size = 4
??$_Buynode@U?$pair@$$CBHH@std@@@?$_Tree_val@V?$_Tmap_traits@HHU?$less@H@std@@V?$allocator@U?$pair@$$CBHH@std@@@2@$0A@@std@@@std@@QAEPAU_Node@?$_Tree_nod@V?$_Tmap_traits@HHU?$less@H@std@@V?$allocator@U?$pair@$$CBHH@std@@@2@$0A@@std@@@1@$$QAU?$pair@$$CBHH@1@@Z PROC ; std::_Tree_val<std::_Tmap_traits<int,int,std::less<int>,std::allocator<std::pair<int const ,int> >,0> >::_Buynode<std::pair<int const ,int> >, COMDAT
; _this$ = ecx

; 586  : 		_Nodeptr _Buynode(_Valty&& _Val)

  00000	55		 push	 ebp
  00001	8b ec		 mov	 ebp, esp
  00003	56		 push	 esi
  00004	57		 push	 edi
  00005	8b f1		 mov	 esi, ecx

; 587  : 		{	// allocate a node with defaults
; 588  : 		_Nodeptr _Wherenode = _Buynode();

  00007	e8 00 00 00 00	 call	 ?_Buynode@?$_Tree_val@V?$_Tmap_traits@HHU?$less@H@std@@V?$allocator@U?$pair@$$CBHH@std@@@2@$0A@@std@@@std@@QAEPAU_Node@?$_Tree_nod@V?$_Tmap_traits@HHU?$less@H@std@@V?$allocator@U?$pair@$$CBHH@std@@@2@$0A@@std@@@2@XZ ; std::_Tree_val<std::_Tmap_traits<int,int,std::less<int>,std::allocator<std::pair<int const ,int> >,0> >::_Buynode

; 589  : 
; 590  : 		_TRY_BEGIN
; 591  : 		_Cons_val(this->_Alval, _STD addressof(this->_Myval(_Wherenode)),
; 592  : 			_STD forward<_Valty>(_Val));

  0000c	ff 75 08	 push	 DWORD PTR __Val$[ebp]
  0000f	8b f8		 mov	 edi, eax
  00011	8d 47 0c	 lea	 eax, DWORD PTR [edi+12]
  00014	50		 push	 eax
  00015	83 c6 0d	 add	 esi, 13			; 0000000dH
  00018	56		 push	 esi
  00019	e8 00 00 00 00	 call	 ??$_Cons_val@V?$allocator@U?$pair@$$CBHH@std@@@std@@U?$pair@$$CBHH@2@U32@@std@@YAXAAV?$allocator@U?$pair@$$CBHH@std@@@0@PAU?$pair@$$CBHH@0@$$QAU20@@Z ; std::_Cons_val<std::allocator<std::pair<int const ,int> >,std::pair<int const ,int>,std::pair<int const ,int> >
  0001e	83 c4 0c	 add	 esp, 12			; 0000000cH

; 593  : 		_CATCH_ALL
; 594  : 		this->_Alnod.deallocate(_Wherenode, 1);
; 595  : 		_RERAISE;
; 596  : 		_CATCH_END
; 597  : 
; 598  : 		return (_Wherenode);

  00021	8b c7		 mov	 eax, edi
  00023	5f		 pop	 edi
  00024	5e		 pop	 esi

; 599  : 		}

  00025	5d		 pop	 ebp
  00026	c2 04 00	 ret	 4
??$_Buynode@U?$pair@$$CBHH@std@@@?$_Tree_val@V?$_Tmap_traits@HHU?$less@H@std@@V?$allocator@U?$pair@$$CBHH@std@@@2@$0A@@std@@@std@@QAEPAU_Node@?$_Tree_nod@V?$_Tmap_traits@HHU?$less@H@std@@V?$allocator@U?$pair@$$CBHH@std@@@2@$0A@@std@@@1@$$QAU?$pair@$$CBHH@1@@Z ENDP ; std::_Tree_val<std::_Tmap_traits<int,int,std::less<int>,std::allocator<std::pair<int const ,int> >,0> >::_Buynode<std::pair<int const ,int> >
_TEXT	ENDS
PUBLIC	?erase@?$_Tree@V?$_Tmap_traits@HHU?$less@H@std@@V?$allocator@U?$pair@$$CBHH@std@@@2@$0A@@std@@@std@@QAE?AV?$_Tree_iterator@V?$_Tree_val@V?$_Tmap_traits@HHU?$less@H@std@@V?$allocator@U?$pair@$$CBHH@std@@@2@$0A@@std@@@std@@@2@V?$_Tree_const_iterator@V?$_Tree_val@V?$_Tmap_traits@HHU?$less@H@std@@V?$allocator@U?$pair@$$CBHH@std@@@2@$0A@@std@@@std@@@2@0@Z ; std::_Tree<std::_Tmap_traits<int,int,std::less<int>,std::allocator<std::pair<int const ,int> >,0> >::erase
; Function compile flags: /Ogsp
;	COMDAT ?erase@?$_Tree@V?$_Tmap_traits@HHU?$less@H@std@@V?$allocator@U?$pair@$$CBHH@std@@@2@$0A@@std@@@std@@QAE?AV?$_Tree_iterator@V?$_Tree_val@V?$_Tmap_traits@HHU?$less@H@std@@V?$allocator@U?$pair@$$CBHH@std@@@2@$0A@@std@@@std@@@2@V?$_Tree_const_iterator@V?$_Tree_val@V?$_Tmap_traits@HHU?$less@H@std@@V?$allocator@U?$pair@$$CBHH@std@@@2@$0A@@std@@@std@@@2@0@Z
_TEXT	SEGMENT
$T511379 = -4						; size = 4
___$ReturnUdt$ = 8					; size = 4
__First$ = 12						; size = 4
__Last$ = 16						; size = 4
?erase@?$_Tree@V?$_Tmap_traits@HHU?$less@H@std@@V?$allocator@U?$pair@$$CBHH@std@@@2@$0A@@std@@@std@@QAE?AV?$_Tree_iterator@V?$_Tree_val@V?$_Tmap_traits@HHU?$less@H@std@@V?$allocator@U?$pair@$$CBHH@std@@@2@$0A@@std@@@std@@@2@V?$_Tree_const_iterator@V?$_Tree_val@V?$_Tmap_traits@HHU?$less@H@std@@V?$allocator@U?$pair@$$CBHH@std@@@2@$0A@@std@@@std@@@2@0@Z PROC ; std::_Tree<std::_Tmap_traits<int,int,std::less<int>,std::allocator<std::pair<int const ,int> >,0> >::erase, COMDAT
; _this$ = ecx

; 1379 : 		{	// erase [_First, _Last)

  00000	55		 push	 ebp
  00001	8b ec		 mov	 ebp, esp
  00003	51		 push	 ecx
  00004	56		 push	 esi
  00005	8b f1		 mov	 esi, ecx

; 1380 : 		if (_First == begin() && _Last == end())

  00007	8b 46 04	 mov	 eax, DWORD PTR [esi+4]
  0000a	8b 4d 0c	 mov	 ecx, DWORD PTR __First$[ebp]
  0000d	3b 08		 cmp	 ecx, DWORD PTR [eax]
  0000f	75 13		 jne	 SHORT $LN65@erase@2
  00011	39 45 10	 cmp	 DWORD PTR __Last$[ebp], eax
  00014	75 0e		 jne	 SHORT $LN65@erase@2

; 1381 : 			{	// erase all
; 1382 : 			clear();

  00016	8b ce		 mov	 ecx, esi
  00018	e8 00 00 00 00	 call	 ?clear@?$_Tree@V?$_Tmap_traits@HHU?$less@H@std@@V?$allocator@U?$pair@$$CBHH@std@@@2@$0A@@std@@@std@@QAEXXZ ; std::_Tree<std::_Tmap_traits<int,int,std::less<int>,std::allocator<std::pair<int const ,int> >,0> >::clear

; 1383 : 			return (begin());

  0001d	8b 46 04	 mov	 eax, DWORD PTR [esi+4]
  00020	8b 08		 mov	 ecx, DWORD PTR [eax]
  00022	eb 25		 jmp	 SHORT $LN1@erase@2
$LN65@erase@2:

; 1384 : 			}
; 1385 : 		else
; 1386 : 			{	// partial erase, one at a time
; 1387 : 			while (_First != _Last)

  00024	3b 4d 10	 cmp	 ecx, DWORD PTR __Last$[ebp]
  00027	74 20		 je	 SHORT $LN1@erase@2
  00029	57		 push	 edi
$LL2@erase@2:

; 1388 : 				erase(_First++);

  0002a	8b f9		 mov	 edi, ecx
  0002c	8d 4d 0c	 lea	 ecx, DWORD PTR __First$[ebp]
  0002f	e8 00 00 00 00	 call	 ??E?$_Tree_unchecked_const_iterator@V?$_Tree_val@V?$_Tmap_traits@HHU?$less@H@std@@V?$allocator@U?$pair@$$CBHH@std@@@2@$0A@@std@@@std@@U_Iterator_base0@2@@std@@QAEAAV01@XZ ; std::_Tree_unchecked_const_iterator<std::_Tree_val<std::_Tmap_traits<int,int,std::less<int>,std::allocator<std::pair<int const ,int> >,0> >,std::_Iterator_base0>::operator++
  00034	57		 push	 edi
  00035	8d 45 fc	 lea	 eax, DWORD PTR $T511379[ebp]
  00038	50		 push	 eax
  00039	8b ce		 mov	 ecx, esi
  0003b	e8 00 00 00 00	 call	 ?erase@?$_Tree@V?$_Tmap_traits@HHU?$less@H@std@@V?$allocator@U?$pair@$$CBHH@std@@@2@$0A@@std@@@std@@QAE?AV?$_Tree_iterator@V?$_Tree_val@V?$_Tmap_traits@HHU?$less@H@std@@V?$allocator@U?$pair@$$CBHH@std@@@2@$0A@@std@@@std@@@2@V?$_Tree_const_iterator@V?$_Tree_val@V?$_Tmap_traits@HHU?$less@H@std@@V?$allocator@U?$pair@$$CBHH@std@@@2@$0A@@std@@@std@@@2@@Z ; std::_Tree<std::_Tmap_traits<int,int,std::less<int>,std::allocator<std::pair<int const ,int> >,0> >::erase
  00040	8b 4d 0c	 mov	 ecx, DWORD PTR __First$[ebp]
  00043	3b 4d 10	 cmp	 ecx, DWORD PTR __Last$[ebp]
  00046	75 e2		 jne	 SHORT $LL2@erase@2
  00048	5f		 pop	 edi
$LN1@erase@2:

; 1389 : 			return (iterator(_First._Ptr, this));

  00049	8b 45 08	 mov	 eax, DWORD PTR ___$ReturnUdt$[ebp]
  0004c	89 08		 mov	 DWORD PTR [eax], ecx
  0004e	5e		 pop	 esi

; 1390 : 			}
; 1391 : 		}

  0004f	c9		 leave
  00050	c2 0c 00	 ret	 12			; 0000000cH
?erase@?$_Tree@V?$_Tmap_traits@HHU?$less@H@std@@V?$allocator@U?$pair@$$CBHH@std@@@2@$0A@@std@@@std@@QAE?AV?$_Tree_iterator@V?$_Tree_val@V?$_Tmap_traits@HHU?$less@H@std@@V?$allocator@U?$pair@$$CBHH@std@@@2@$0A@@std@@@std@@@2@V?$_Tree_const_iterator@V?$_Tree_val@V?$_Tmap_traits@HHU?$less@H@std@@V?$allocator@U?$pair@$$CBHH@std@@@2@$0A@@std@@@std@@@2@0@Z ENDP ; std::_Tree<std::_Tmap_traits<int,int,std::less<int>,std::allocator<std::pair<int const ,int> >,0> >::erase
_TEXT	ENDS
PUBLIC	??$insert@U?$pair@$$CBHH@std@@@?$_Tree@V?$_Tmap_traits@HHU?$less@H@std@@V?$allocator@U?$pair@$$CBHH@std@@@2@$0A@@std@@@std@@QAE?AU?$pair@V?$_Tree_iterator@V?$_Tree_val@V?$_Tmap_traits@HHU?$less@H@std@@V?$allocator@U?$pair@$$CBHH@std@@@2@$0A@@std@@@std@@@std@@_N@1@$$QAU?$pair@$$CBHH@1@@Z ; std::_Tree<std::_Tmap_traits<int,int,std::less<int>,std::allocator<std::pair<int const ,int> >,0> >::insert<std::pair<int const ,int> >
; Function compile flags: /Ogsp
;	COMDAT ??$insert@U?$pair@$$CBHH@std@@@?$_Tree@V?$_Tmap_traits@HHU?$less@H@std@@V?$allocator@U?$pair@$$CBHH@std@@@2@$0A@@std@@@std@@QAE?AU?$pair@V?$_Tree_iterator@V?$_Tree_val@V?$_Tmap_traits@HHU?$less@H@std@@V?$allocator@U?$pair@$$CBHH@std@@@2@$0A@@std@@@std@@@std@@_N@1@$$QAU?$pair@$$CBHH@1@@Z
_TEXT	SEGMENT
___$ReturnUdt$ = 8					; size = 4
__Val$ = 12						; size = 4
??$insert@U?$pair@$$CBHH@std@@@?$_Tree@V?$_Tmap_traits@HHU?$less@H@std@@V?$allocator@U?$pair@$$CBHH@std@@@2@$0A@@std@@@std@@QAE?AU?$pair@V?$_Tree_iterator@V?$_Tree_val@V?$_Tmap_traits@HHU?$less@H@std@@V?$allocator@U?$pair@$$CBHH@std@@@2@$0A@@std@@@std@@@std@@_N@1@$$QAU?$pair@$$CBHH@1@@Z PROC ; std::_Tree<std::_Tmap_traits<int,int,std::less<int>,std::allocator<std::pair<int const ,int> >,0> >::insert<std::pair<int const ,int> >, COMDAT
; _this$ = ecx

; 753  : 		_Pairib insert(_Valty&& _Val)

  00000	55		 push	 ebp
  00001	8b ec		 mov	 ebp, esp
  00003	56		 push	 esi

; 754  : 		{	// try to insert node with value _Val, favoring right side
; 755  : 		return (_Linsert(this->_Buynode(_STD forward<_Valty>(_Val)),
; 756  : 			false));

  00004	6a 00		 push	 0
  00006	ff 75 0c	 push	 DWORD PTR __Val$[ebp]
  00009	8b f1		 mov	 esi, ecx
  0000b	e8 00 00 00 00	 call	 ??$_Buynode@U?$pair@$$CBHH@std@@@?$_Tree_val@V?$_Tmap_traits@HHU?$less@H@std@@V?$allocator@U?$pair@$$CBHH@std@@@2@$0A@@std@@@std@@QAEPAU_Node@?$_Tree_nod@V?$_Tmap_traits@HHU?$less@H@std@@V?$allocator@U?$pair@$$CBHH@std@@@2@$0A@@std@@@1@$$QAU?$pair@$$CBHH@1@@Z ; std::_Tree_val<std::_Tmap_traits<int,int,std::less<int>,std::allocator<std::pair<int const ,int> >,0> >::_Buynode<std::pair<int const ,int> >
  00010	50		 push	 eax
  00011	ff 75 08	 push	 DWORD PTR ___$ReturnUdt$[ebp]
  00014	8b ce		 mov	 ecx, esi
  00016	e8 00 00 00 00	 call	 ?_Linsert@?$_Tree@V?$_Tmap_traits@HHU?$less@H@std@@V?$allocator@U?$pair@$$CBHH@std@@@2@$0A@@std@@@std@@QAE?AU?$pair@V?$_Tree_iterator@V?$_Tree_val@V?$_Tmap_traits@HHU?$less@H@std@@V?$allocator@U?$pair@$$CBHH@std@@@2@$0A@@std@@@std@@@std@@_N@2@PAU_Node@?$_Tree_nod@V?$_Tmap_traits@HHU?$less@H@std@@V?$allocator@U?$pair@$$CBHH@std@@@2@$0A@@std@@@2@_N@Z ; std::_Tree<std::_Tmap_traits<int,int,std::less<int>,std::allocator<std::pair<int const ,int> >,0> >::_Linsert
  0001b	8b 45 08	 mov	 eax, DWORD PTR ___$ReturnUdt$[ebp]
  0001e	5e		 pop	 esi

; 757  : 		}

  0001f	5d		 pop	 ebp
  00020	c2 08 00	 ret	 8
??$insert@U?$pair@$$CBHH@std@@@?$_Tree@V?$_Tmap_traits@HHU?$less@H@std@@V?$allocator@U?$pair@$$CBHH@std@@@2@$0A@@std@@@std@@QAE?AU?$pair@V?$_Tree_iterator@V?$_Tree_val@V?$_Tmap_traits@HHU?$less@H@std@@V?$allocator@U?$pair@$$CBHH@std@@@2@$0A@@std@@@std@@@std@@_N@1@$$QAU?$pair@$$CBHH@1@@Z ENDP ; std::_Tree<std::_Tmap_traits<int,int,std::less<int>,std::allocator<std::pair<int const ,int> >,0> >::insert<std::pair<int const ,int> >
_TEXT	ENDS
PUBLIC	?_Tidy@?$_Tree@V?$_Tmap_traits@HHU?$less@H@std@@V?$allocator@U?$pair@$$CBHH@std@@@2@$0A@@std@@@std@@IAEXXZ ; std::_Tree<std::_Tmap_traits<int,int,std::less<int>,std::allocator<std::pair<int const ,int> >,0> >::_Tidy
; Function compile flags: /Ogsp
;	COMDAT ?_Tidy@?$_Tree@V?$_Tmap_traits@HHU?$less@H@std@@V?$allocator@U?$pair@$$CBHH@std@@@2@$0A@@std@@@std@@IAEXXZ
_TEXT	SEGMENT
$T511575 = -4						; size = 4
?_Tidy@?$_Tree@V?$_Tmap_traits@HHU?$less@H@std@@V?$allocator@U?$pair@$$CBHH@std@@@2@$0A@@std@@@std@@IAEXXZ PROC ; std::_Tree<std::_Tmap_traits<int,int,std::less<int>,std::allocator<std::pair<int const ,int> >,0> >::_Tidy, COMDAT
; _this$ = ecx

; 1865 : 		{	// free all storage

  00000	55		 push	 ebp
  00001	8b ec		 mov	 ebp, esp
  00003	51		 push	 ecx

; 1866 : 		erase(begin(), end());

  00004	8b 41 04	 mov	 eax, DWORD PTR [ecx+4]
  00007	8b 10		 mov	 edx, DWORD PTR [eax]
  00009	50		 push	 eax
  0000a	52		 push	 edx
  0000b	8d 45 fc	 lea	 eax, DWORD PTR $T511575[ebp]
  0000e	50		 push	 eax
  0000f	e8 00 00 00 00	 call	 ?erase@?$_Tree@V?$_Tmap_traits@HHU?$less@H@std@@V?$allocator@U?$pair@$$CBHH@std@@@2@$0A@@std@@@std@@QAE?AV?$_Tree_iterator@V?$_Tree_val@V?$_Tmap_traits@HHU?$less@H@std@@V?$allocator@U?$pair@$$CBHH@std@@@2@$0A@@std@@@std@@@2@V?$_Tree_const_iterator@V?$_Tree_val@V?$_Tmap_traits@HHU?$less@H@std@@V?$allocator@U?$pair@$$CBHH@std@@@2@$0A@@std@@@std@@@2@0@Z ; std::_Tree<std::_Tmap_traits<int,int,std::less<int>,std::allocator<std::pair<int const ,int> >,0> >::erase

; 1867 : 		}

  00014	c9		 leave
  00015	c3		 ret	 0
?_Tidy@?$_Tree@V?$_Tmap_traits@HHU?$less@H@std@@V?$allocator@U?$pair@$$CBHH@std@@@2@$0A@@std@@@std@@IAEXXZ ENDP ; std::_Tree<std::_Tmap_traits<int,int,std::less<int>,std::allocator<std::pair<int const ,int> >,0> >::_Tidy
_TEXT	ENDS
PUBLIC	?LoadInIData@ioItemRechargeManager@@QAEXXZ	; ioItemRechargeManager::LoadInIData
EXTRN	__imp__wsprintfA:PROC
EXTRN	__EH_epilog3_GS:PROC
EXTRN	__EH_prolog3_GS:PROC
EXTRN	_memset:PROC
;	COMDAT xdata$x
; File d:\lost saga for developer\youtube\tutorial\source\src\lsclient\ioitemrechargemanager.cpp
xdata$x	SEGMENT
__unwindtable$?LoadInIData@ioItemRechargeManager@@QAEXXZ DD 0ffffffffH
	DD	FLAT:__unwindfunclet$?LoadInIData@ioItemRechargeManager@@QAEXXZ$0
__ehfuncinfo$?LoadInIData@ioItemRechargeManager@@QAEXXZ DD 019930522H
	DD	01H
	DD	FLAT:__unwindtable$?LoadInIData@ioItemRechargeManager@@QAEXXZ
	DD	2 DUP(00H)
	DD	2 DUP(00H)
	DD	00H
	DD	01H
; Function compile flags: /Ogsp
xdata$x	ENDS
;	COMDAT ?LoadInIData@ioItemRechargeManager@@QAEXXZ
_TEXT	SEGMENT
$T511664 = -1264					; size = 8
_iCode$505765 = -1256					; size = 4
tv5994 = -1252						; size = 4
tv1633 = -1248						; size = 4
tv7197 = -1244						; size = 4
_kLoader$ = -1240					; size = 912
_szKey$ = -328						; size = 260
___encStr$505769 = -68					; size = 28
___encStr$505615 = -64					; size = 23
__k$512512 = -36					; size = 16
__t$512306 = -32					; size = 10
__t$512181 = -28					; size = 5
__t$512056 = -28					; size = 6
__t$511918 = -28					; size = 7
$T511665 = -24						; size = 8
__$EHRec$ = -12						; size = 12
?LoadInIData@ioItemRechargeManager@@QAEXXZ PROC		; ioItemRechargeManager::LoadInIData, COMDAT
; _this$ = ecx

; 22   : {

  00000	68 e4 04 00 00	 push	 1252			; 000004e4H
  00005	b8 00 00 00 00	 mov	 eax, __ehhandler$?LoadInIData@ioItemRechargeManager@@QAEXXZ
  0000a	e8 00 00 00 00	 call	 __EH_prolog3_GS

; 23   : 	ioINILoader_e kLoader( "config/sp2_item_recharge.ini" );

  0000f	6a 07		 push	 7
  00011	8b f9		 mov	 edi, ecx
  00013	c7 85 78 fe ff
	ff 8e 83 85 8c	 mov	 DWORD PTR _kLoader$[ebp+848], -1937407090 ; 8c85838eH
  0001d	c7 85 7c fe ff
	ff 84 8b c4 99	 mov	 DWORD PTR _kLoader$[ebp+852], -1715172476 ; 99c48b84H
  00027	c7 85 80 fe ff
	ff 9d de b4 83	 mov	 DWORD PTR _kLoader$[ebp+856], -2085298531 ; 83b4de9dH
  00031	c7 85 84 fe ff
	ff 99 89 86 b5	 mov	 DWORD PTR _kLoader$[ebp+860], -1249474151 ; b5868999H
  0003b	c7 85 88 fe ff
	ff 9f 89 88 82	 mov	 DWORD PTR _kLoader$[ebp+864], -2104981089 ; 8288899fH
  00045	c7 85 8c fe ff
	ff 8c 9e 8c 8f	 mov	 DWORD PTR _kLoader$[ebp+868], -1886609780 ; 8f8c9e8cH
  0004f	c7 85 90 fe ff
	ff c3 85 85 83	 mov	 DWORD PTR _kLoader$[ebp+872], -2088401469 ; 838585c3H
  00059	8d 85 78 fe ff
	ff		 lea	 eax, DWORD PTR _kLoader$[ebp+848]
  0005f	c6 85 94 fe ff
	ff 00		 mov	 BYTE PTR _kLoader$[ebp+876], 0
  00066	59		 pop	 ecx
  00067	bb ed ec eb ea	 mov	 ebx, -353637139		; eaebecedH
$LL311@LoadInIDat:
  0006c	31 18		 xor	 DWORD PTR [eax], ebx
  0006e	83 c0 04	 add	 eax, 4
  00071	49		 dec	 ecx
  00072	75 f8		 jne	 SHORT $LL311@LoadInIDat
  00074	6a 01		 push	 1
  00076	8d 85 78 fe ff
	ff		 lea	 eax, DWORD PTR _kLoader$[ebp+848]
  0007c	50		 push	 eax
  0007d	8d 8d 28 fb ff
	ff		 lea	 ecx, DWORD PTR _kLoader$[ebp]
  00083	ff 15 00 00 00
	00		 call	 DWORD PTR __imp_??0ioINILoader@@QAE@PBD_N@Z
  00089	83 65 fc 00	 and	 DWORD PTR __$EHRec$[ebp+8], 0

; 24   : 
; 25   : 	char szKey[MAX_PATH] = "";

  0008d	68 03 01 00 00	 push	 259			; 00000103H
  00092	8d 85 b9 fe ff
	ff		 lea	 eax, DWORD PTR _szKey$[ebp+1]
  00098	6a 00		 push	 0
  0009a	50		 push	 eax
  0009b	c6 85 b8 fe ff
	ff 00		 mov	 BYTE PTR _szKey$[ebp], 0
  000a2	e8 00 00 00 00	 call	 _memset
  000a7	83 c4 0c	 add	 esp, 12			; 0000000cH

; 26   : 
; 27   : 	kLoader.SetTitle_e( "normal" );

  000aa	6a 04		 push	 4
  000ac	c7 45 e4 83 83
	99 87		 mov	 DWORD PTR __t$511918[ebp], -2019982461 ; 87998383H
  000b3	31 5d e4	 xor	 DWORD PTR __t$511918[ebp], ebx
  000b6	66 c7 45 e8 8c
	80		 mov	 WORD PTR __t$511918[ebp+4], 32908 ; 0000808cH
  000bc	c6 45 ea 00	 mov	 BYTE PTR __t$511918[ebp+6], 0
  000c0	5e		 pop	 esi
$LL414@LoadInIDat:
  000c1	8b c6		 mov	 eax, esi
  000c3	25 03 00 00 80	 and	 eax, -2147483645	; 80000003H
  000c8	79 05		 jns	 SHORT $LN915@LoadInIDat
  000ca	48		 dec	 eax
  000cb	83 c8 fc	 or	 eax, -4			; fffffffcH
  000ce	40		 inc	 eax
$LN915@LoadInIDat:
  000cf	b1 ed		 mov	 cl, -19			; ffffffedH
  000d1	2a c8		 sub	 cl, al
  000d3	30 4c 35 e4	 xor	 BYTE PTR __t$511918[ebp+esi], cl
  000d7	46		 inc	 esi
  000d8	83 fe 06	 cmp	 esi, 6
  000db	7c e4		 jl	 SHORT $LL414@LoadInIDat
  000dd	8b 35 00 00 00
	00		 mov	 esi, DWORD PTR __imp_?SetTitle@ioINILoader@@QAEXPBD@Z
  000e3	8d 45 e4	 lea	 eax, DWORD PTR __t$511918[ebp]
  000e6	50		 push	 eax
  000e7	8d 8d 28 fb ff
	ff		 lea	 ecx, DWORD PTR _kLoader$[ebp]
  000ed	ff d6		 call	 esi

; 28   : 	LoadPromotionInfo( kLoader, m_NormalItem );

  000ef	8d 47 04	 lea	 eax, DWORD PTR [edi+4]
  000f2	50		 push	 eax
  000f3	8d 85 28 fb ff
	ff		 lea	 eax, DWORD PTR _kLoader$[ebp]
  000f9	50		 push	 eax
  000fa	8b cf		 mov	 ecx, edi
  000fc	e8 00 00 00 00	 call	 ?LoadPromotionInfo@ioItemRechargeManager@@QAEXAAVioINILoader@@AAUPromotionInfo@1@@Z ; ioItemRechargeManager::LoadPromotionInfo

; 29   : 
; 30   : 	kLoader.SetTitle_e( "extra" );

  00101	8d 45 e4	 lea	 eax, DWORD PTR __t$512056[ebp]
  00104	c7 45 e4 88 94
	9f 98		 mov	 DWORD PTR __t$512056[ebp], -1734372216 ; 989f9488H
  0010b	31 5d e4	 xor	 DWORD PTR __t$512056[ebp], ebx
  0010e	50		 push	 eax
  0010f	8d 8d 28 fb ff
	ff		 lea	 ecx, DWORD PTR _kLoader$[ebp]
  00115	66 c7 45 e8 61
	00		 mov	 WORD PTR __t$512056[ebp+4], 97 ; 00000061H
  0011b	ff d6		 call	 esi

; 31   : 	LoadPromotionInfo( kLoader, m_ExtraItem );

  0011d	8d 47 14	 lea	 eax, DWORD PTR [edi+20]
  00120	50		 push	 eax
  00121	8d 85 28 fb ff
	ff		 lea	 eax, DWORD PTR _kLoader$[ebp]
  00127	50		 push	 eax
  00128	8b cf		 mov	 ecx, edi
  0012a	e8 00 00 00 00	 call	 ?LoadPromotionInfo@ioItemRechargeManager@@QAEXAAVioINILoader@@AAUPromotionInfo@1@@Z ; ioItemRechargeManager::LoadPromotionInfo

; 32   : 
; 33   : 	kLoader.SetTitle_e( "rare" );

  0012f	8d 45 e4	 lea	 eax, DWORD PTR __t$512181[ebp]
  00132	c7 45 e4 9f 8d
	99 8f		 mov	 DWORD PTR __t$512181[ebp], -1885762145 ; 8f998d9fH
  00139	31 5d e4	 xor	 DWORD PTR __t$512181[ebp], ebx
  0013c	50		 push	 eax
  0013d	8d 8d 28 fb ff
	ff		 lea	 ecx, DWORD PTR _kLoader$[ebp]
  00143	c6 45 e8 00	 mov	 BYTE PTR __t$512181[ebp+4], 0
  00147	ff d6		 call	 esi

; 34   : 	LoadPromotionInfo( kLoader, m_RareItem );

  00149	8d 47 24	 lea	 eax, DWORD PTR [edi+36]
  0014c	50		 push	 eax
  0014d	8d 85 28 fb ff
	ff		 lea	 eax, DWORD PTR _kLoader$[ebp]
  00153	50		 push	 eax
  00154	8b cf		 mov	 ecx, edi
  00156	e8 00 00 00 00	 call	 ?LoadPromotionInfo@ioItemRechargeManager@@QAEXAAVioINILoader@@AAUPromotionInfo@1@@Z ; ioItemRechargeManager::LoadPromotionInfo
  0015b	6a 02		 push	 2

; 35   : 
; 36   : 	kLoader.SetTitle_e( "exception" );

  0015d	c7 45 e0 88 94
	88 8f		 mov	 DWORD PTR __t$512306[ebp], -1886874488 ; 8f889488H
  00164	c7 45 e4 9d 98
	82 85		 mov	 DWORD PTR __t$512306[ebp+4], -2055038819 ; 8582989dH
  0016b	8d 45 e0	 lea	 eax, DWORD PTR __t$512306[ebp]
  0016e	66 c7 45 e8 83
	00		 mov	 WORD PTR __t$512306[ebp+8], 131 ; 00000083H
  00174	59		 pop	 ecx
$LL735@LoadInIDat:
  00175	31 18		 xor	 DWORD PTR [eax], ebx
  00177	83 c0 04	 add	 eax, 4
  0017a	49		 dec	 ecx
  0017b	75 f8		 jne	 SHORT $LL735@LoadInIDat
  0017d	80 75 e8 ed	 xor	 BYTE PTR __t$512306[ebp+8], -19 ; ffffffedH
  00181	8d 45 e0	 lea	 eax, DWORD PTR __t$512306[ebp]
  00184	50		 push	 eax
  00185	8d 8d 28 fb ff
	ff		 lea	 ecx, DWORD PTR _kLoader$[ebp]
  0018b	ff d6		 call	 esi

; 37   : 	m_ExceptionInfoList.clear();

  0018d	8d 4f 34	 lea	 ecx, DWORD PTR [edi+52]
  00190	89 8d 1c fb ff
	ff		 mov	 DWORD PTR tv5994[ebp], ecx
  00196	e8 00 00 00 00	 call	 ?clear@?$_Tree@V?$_Tmap_traits@HHU?$less@H@std@@V?$allocator@U?$pair@$$CBHH@std@@@2@$0A@@std@@@std@@QAEXXZ ; std::_Tree<std::_Tmap_traits<int,int,std::less<int>,std::allocator<std::pair<int const ,int> >,0> >::clear
  0019b	6a 03		 push	 3

; 38   : 	int iCnt = kLoader.LoadInt_e( "exception_count", 0 );

  0019d	c7 45 dc 88 94
	88 8f		 mov	 DWORD PTR __k$512512[ebp], -1886874488 ; 8f889488H
  001a4	c7 45 e0 9d 98
	82 85		 mov	 DWORD PTR __k$512512[ebp+4], -2055038819 ; 8582989dH
  001ab	c7 45 e4 83 b3
	88 85		 mov	 DWORD PTR __k$512512[ebp+8], -2054638717 ; 8588b383H
  001b2	8d 45 dc	 lea	 eax, DWORD PTR __k$512512[ebp]
  001b5	c7 45 e8 98 82
	9f 00		 mov	 DWORD PTR __k$512512[ebp+12], 10453656 ; 009f8298H
  001bc	59		 pop	 ecx
$LL841@LoadInIDat:
  001bd	31 18		 xor	 DWORD PTR [eax], ebx
  001bf	83 c0 04	 add	 eax, 4
  001c2	49		 dec	 ecx
  001c3	75 f8		 jne	 SHORT $LL841@LoadInIDat
  001c5	6a 0c		 push	 12			; 0000000cH
  001c7	5e		 pop	 esi
$LL838@LoadInIDat:
  001c8	8b c6		 mov	 eax, esi
  001ca	25 03 00 00 80	 and	 eax, -2147483645	; 80000003H
  001cf	79 05		 jns	 SHORT $LN916@LoadInIDat
  001d1	48		 dec	 eax
  001d2	83 c8 fc	 or	 eax, -4			; fffffffcH
  001d5	40		 inc	 eax
$LN916@LoadInIDat:
  001d6	b1 ed		 mov	 cl, -19			; ffffffedH
  001d8	2a c8		 sub	 cl, al
  001da	30 4c 35 dc	 xor	 BYTE PTR __k$512512[ebp+esi], cl
  001de	46		 inc	 esi
  001df	83 fe 0f	 cmp	 esi, 15			; 0000000fH
  001e2	7c e4		 jl	 SHORT $LL838@LoadInIDat
  001e4	8b 35 00 00 00
	00		 mov	 esi, DWORD PTR __imp_?LoadInt@ioINILoader@@QAEHPBDH@Z
  001ea	6a 00		 push	 0
  001ec	8d 45 dc	 lea	 eax, DWORD PTR __k$512512[ebp]
  001ef	50		 push	 eax
  001f0	8d 8d 28 fb ff
	ff		 lea	 ecx, DWORD PTR _kLoader$[ebp]
  001f6	ff d6		 call	 esi

; 39   : 	for( int i=0; i<iCnt; ++i )

  001f8	85 c0		 test	 eax, eax
  001fa	0f 8e 6c 01 00
	00		 jle	 $LN199@LoadInIDat

; 38   : 	int iCnt = kLoader.LoadInt_e( "exception_count", 0 );

  00200	8b 3d 00 00 00
	00		 mov	 edi, DWORD PTR __imp__wsprintfA
  00206	c7 85 24 fb ff
	ff 01 00 00 00	 mov	 DWORD PTR tv7197[ebp], 1
  00210	89 85 20 fb ff
	ff		 mov	 DWORD PTR tv1633[ebp], eax
$LN201@LoadInIDat:
  00216	6a 05		 push	 5

; 40   : 	{
; 41   : 		wsprintf_e( szKey, "exception_item_code_%d", i+1 );

  00218	c7 45 c0 88 94
	88 8f		 mov	 DWORD PTR ___encStr$505615[ebp], -1886874488 ; 8f889488H
  0021f	c7 45 c4 9d 98
	82 85		 mov	 DWORD PTR ___encStr$505615[ebp+4], -2055038819 ; 8582989dH
  00226	c7 45 c8 83 b3
	82 9e		 mov	 DWORD PTR ___encStr$505615[ebp+8], -1635601533 ; 9e82b383H
  0022d	c7 45 cc 88 81
	b4 89		 mov	 DWORD PTR ___encStr$505615[ebp+12], -1984659064 ; 89b48188H
  00234	c7 45 d0 82 88
	8e b5		 mov	 DWORD PTR ___encStr$505615[ebp+16], -1248950142 ; b58e8882H
  0023b	66 c7 45 d4 c8
	88		 mov	 WORD PTR ___encStr$505615[ebp+20], 35016 ; 000088c8H
  00241	8d 45 c0	 lea	 eax, DWORD PTR ___encStr$505615[ebp]
  00244	c6 45 d6 00	 mov	 BYTE PTR ___encStr$505615[ebp+22], 0
  00248	59		 pop	 ecx
$LL849@LoadInIDat:
  00249	31 18		 xor	 DWORD PTR [eax], ebx
  0024b	83 c0 04	 add	 eax, 4
  0024e	49		 dec	 ecx
  0024f	75 f8		 jne	 SHORT $LL849@LoadInIDat
  00251	6a 14		 push	 20			; 00000014H
  00253	58		 pop	 eax
$LL846@LoadInIDat:
  00254	8b c8		 mov	 ecx, eax
  00256	81 e1 03 00 00
	80		 and	 ecx, -2147483645	; 80000003H
  0025c	79 05		 jns	 SHORT $LN917@LoadInIDat
  0025e	49		 dec	 ecx
  0025f	83 c9 fc	 or	 ecx, -4			; fffffffcH
  00262	41		 inc	 ecx
$LN917@LoadInIDat:
  00263	b2 ed		 mov	 dl, -19			; ffffffedH
  00265	2a d1		 sub	 dl, cl
  00267	30 54 05 c0	 xor	 BYTE PTR ___encStr$505615[ebp+eax], dl
  0026b	40		 inc	 eax
  0026c	83 f8 16	 cmp	 eax, 22			; 00000016H
  0026f	7c e3		 jl	 SHORT $LL846@LoadInIDat
  00271	ff b5 24 fb ff
	ff		 push	 DWORD PTR tv7197[ebp]
  00277	8d 45 c0	 lea	 eax, DWORD PTR ___encStr$505615[ebp]
  0027a	50		 push	 eax
  0027b	8d 85 b8 fe ff
	ff		 lea	 eax, DWORD PTR _szKey$[ebp]
  00281	50		 push	 eax
  00282	ff d7		 call	 edi
  00284	83 c4 0c	 add	 esp, 12			; 0000000cH

; 42   : 		int iCode = kLoader.LoadInt( szKey, 0 );

  00287	6a 00		 push	 0
  00289	8d 85 b8 fe ff
	ff		 lea	 eax, DWORD PTR _szKey$[ebp]
  0028f	50		 push	 eax
  00290	8d 8d 28 fb ff
	ff		 lea	 ecx, DWORD PTR _kLoader$[ebp]
  00296	ff d6		 call	 esi
  00298	6a 06		 push	 6
  0029a	89 85 18 fb ff
	ff		 mov	 DWORD PTR _iCode$505765[ebp], eax

; 43   : 		wsprintf_e( szKey, "exception_promotion_time_%d", i+1 );

  002a0	c7 45 bc 88 94
	88 8f		 mov	 DWORD PTR ___encStr$505769[ebp], -1886874488 ; 8f889488H
  002a7	c7 45 c0 9d 98
	82 85		 mov	 DWORD PTR ___encStr$505769[ebp+4], -2055038819 ; 8582989dH
  002ae	c7 45 c4 83 b3
	9b 98		 mov	 DWORD PTR ___encStr$505769[ebp+8], -1734626429 ; 989bb383H
  002b5	c7 45 c8 82 81
	84 9e		 mov	 DWORD PTR ___encStr$505769[ebp+12], -1635483262 ; 9e848182H
  002bc	c7 45 cc 84 83
	85 b5		 mov	 DWORD PTR ___encStr$505769[ebp+16], -1249541244 ; b5858384H
  002c3	c7 45 d0 99 85
	86 8f		 mov	 DWORD PTR ___encStr$505769[ebp+20], -1887009383 ; 8f868599H
  002ca	8d 45 bc	 lea	 eax, DWORD PTR ___encStr$505769[ebp]
  002cd	c7 45 d4 b2 c9
	8f 00		 mov	 DWORD PTR ___encStr$505769[ebp+24], 9423282 ; 008fc9b2H
  002d4	59		 pop	 ecx
$LL857@LoadInIDat:
  002d5	31 18		 xor	 DWORD PTR [eax], ebx
  002d7	83 c0 04	 add	 eax, 4
  002da	49		 dec	 ecx
  002db	75 f8		 jne	 SHORT $LL857@LoadInIDat
  002dd	6a 18		 push	 24			; 00000018H
  002df	58		 pop	 eax
$LL854@LoadInIDat:
  002e0	8b c8		 mov	 ecx, eax
  002e2	81 e1 03 00 00
	80		 and	 ecx, -2147483645	; 80000003H
  002e8	79 05		 jns	 SHORT $LN918@LoadInIDat
  002ea	49		 dec	 ecx
  002eb	83 c9 fc	 or	 ecx, -4			; fffffffcH
  002ee	41		 inc	 ecx
$LN918@LoadInIDat:
  002ef	b2 ed		 mov	 dl, -19			; ffffffedH
  002f1	2a d1		 sub	 dl, cl
  002f3	30 54 05 bc	 xor	 BYTE PTR ___encStr$505769[ebp+eax], dl
  002f7	40		 inc	 eax
  002f8	83 f8 1b	 cmp	 eax, 27			; 0000001bH
  002fb	7c e3		 jl	 SHORT $LL854@LoadInIDat
  002fd	ff b5 24 fb ff
	ff		 push	 DWORD PTR tv7197[ebp]
  00303	8d 45 bc	 lea	 eax, DWORD PTR ___encStr$505769[ebp]
  00306	50		 push	 eax
  00307	8d 85 b8 fe ff
	ff		 lea	 eax, DWORD PTR _szKey$[ebp]
  0030d	50		 push	 eax
  0030e	ff d7		 call	 edi
  00310	83 c4 0c	 add	 esp, 12			; 0000000cH

; 44   : 		int iLimit = kLoader.LoadInt( szKey, 0 );

  00313	6a 00		 push	 0
  00315	8d 85 b8 fe ff
	ff		 lea	 eax, DWORD PTR _szKey$[ebp]
  0031b	50		 push	 eax
  0031c	8d 8d 28 fb ff
	ff		 lea	 ecx, DWORD PTR _kLoader$[ebp]
  00322	ff d6		 call	 esi

; 45   : 
; 46   : 		m_ExceptionInfoList.insert( mapExceptionInfo::value_type( iCode, iLimit ) );

  00324	8b 8d 18 fb ff
	ff		 mov	 ecx, DWORD PTR _iCode$505765[ebp]
  0032a	89 85 14 fb ff
	ff		 mov	 DWORD PTR $T511664[ebp+4], eax
  00330	6a 00		 push	 0
  00332	8d 85 10 fb ff
	ff		 lea	 eax, DWORD PTR $T511664[ebp]
  00338	89 8d 10 fb ff
	ff		 mov	 DWORD PTR $T511664[ebp], ecx
  0033e	8b 8d 1c fb ff
	ff		 mov	 ecx, DWORD PTR tv5994[ebp]
  00344	50		 push	 eax
  00345	e8 00 00 00 00	 call	 ??$_Buynode@U?$pair@$$CBHH@std@@@?$_Tree_val@V?$_Tmap_traits@HHU?$less@H@std@@V?$allocator@U?$pair@$$CBHH@std@@@2@$0A@@std@@@std@@QAEPAU_Node@?$_Tree_nod@V?$_Tmap_traits@HHU?$less@H@std@@V?$allocator@U?$pair@$$CBHH@std@@@2@$0A@@std@@@1@$$QAU?$pair@$$CBHH@1@@Z ; std::_Tree_val<std::_Tmap_traits<int,int,std::less<int>,std::allocator<std::pair<int const ,int> >,0> >::_Buynode<std::pair<int const ,int> >
  0034a	8b 8d 1c fb ff
	ff		 mov	 ecx, DWORD PTR tv5994[ebp]
  00350	50		 push	 eax
  00351	8d 45 e8	 lea	 eax, DWORD PTR $T511665[ebp]
  00354	50		 push	 eax
  00355	e8 00 00 00 00	 call	 ?_Linsert@?$_Tree@V?$_Tmap_traits@HHU?$less@H@std@@V?$allocator@U?$pair@$$CBHH@std@@@2@$0A@@std@@@std@@QAE?AU?$pair@V?$_Tree_iterator@V?$_Tree_val@V?$_Tmap_traits@HHU?$less@H@std@@V?$allocator@U?$pair@$$CBHH@std@@@2@$0A@@std@@@std@@@std@@_N@2@PAU_Node@?$_Tree_nod@V?$_Tmap_traits@HHU?$less@H@std@@V?$allocator@U?$pair@$$CBHH@std@@@2@$0A@@std@@@2@_N@Z ; std::_Tree<std::_Tmap_traits<int,int,std::less<int>,std::allocator<std::pair<int const ,int> >,0> >::_Linsert
  0035a	ff 85 24 fb ff
	ff		 inc	 DWORD PTR tv7197[ebp]
  00360	ff 8d 20 fb ff
	ff		 dec	 DWORD PTR tv1633[ebp]
  00366	0f 85 aa fe ff
	ff		 jne	 $LN201@LoadInIDat
$LN199@LoadInIDat:

; 47   : 	}
; 48   : }

  0036c	83 4d fc ff	 or	 DWORD PTR __$EHRec$[ebp+8], -1
  00370	8d 8d 28 fb ff
	ff		 lea	 ecx, DWORD PTR _kLoader$[ebp]
  00376	ff 15 00 00 00
	00		 call	 DWORD PTR __imp_??1ioINILoader@@QAE@XZ
  0037c	e8 00 00 00 00	 call	 __EH_epilog3_GS
  00381	c3		 ret	 0
_TEXT	ENDS
;	COMDAT text$x
text$x	SEGMENT
__unwindfunclet$?LoadInIData@ioItemRechargeManager@@QAEXXZ$0:
  00000	8d 8d 28 fb ff
	ff		 lea	 ecx, DWORD PTR _kLoader$[ebp]
  00006	e9 00 00 00 00	 jmp	 ??1ioINILoader_e@@QAE@XZ
__ehhandler$?LoadInIData@ioItemRechargeManager@@QAEXXZ:
  0000b	8b 54 24 08	 mov	 edx, DWORD PTR [esp+8]
  0000f	8d 42 0c	 lea	 eax, DWORD PTR [edx+12]
  00012	8b 8a 0c fb ff
	ff		 mov	 ecx, DWORD PTR [edx-1268]
  00018	33 c8		 xor	 ecx, eax
  0001a	e8 00 00 00 00	 call	 @__security_check_cookie@4
  0001f	8b 4a fc	 mov	 ecx, DWORD PTR [edx-4]
  00022	33 c8		 xor	 ecx, eax
  00024	e8 00 00 00 00	 call	 @__security_check_cookie@4
  00029	b8 00 00 00 00	 mov	 eax, OFFSET __ehfuncinfo$?LoadInIData@ioItemRechargeManager@@QAEXXZ
  0002e	e9 00 00 00 00	 jmp	 ___CxxFrameHandler3
text$x	ENDS
?LoadInIData@ioItemRechargeManager@@QAEXXZ ENDP		; ioItemRechargeManager::LoadInIData
PUBLIC	??1?$_Tree@V?$_Tmap_traits@HHU?$less@H@std@@V?$allocator@U?$pair@$$CBHH@std@@@2@$0A@@std@@@std@@QAE@XZ ; std::_Tree<std::_Tmap_traits<int,int,std::less<int>,std::allocator<std::pair<int const ,int> >,0> >::~_Tree<std::_Tmap_traits<int,int,std::less<int>,std::allocator<std::pair<int const ,int> >,0> >
;	COMDAT xdata$x
; File c:\program files (x86)\microsoft visual studio 10.0\vc\include\xmemory
xdata$x	SEGMENT
__unwindtable$??1?$_Tree@V?$_Tmap_traits@HHU?$less@H@std@@V?$allocator@U?$pair@$$CBHH@std@@@2@$0A@@std@@@std@@QAE@XZ DD 0ffffffffH
	DD	FLAT:__unwindfunclet$??1?$_Tree@V?$_Tmap_traits@HHU?$less@H@std@@V?$allocator@U?$pair@$$CBHH@std@@@2@$0A@@std@@@std@@QAE@XZ$0
__ehfuncinfo$??1?$_Tree@V?$_Tmap_traits@HHU?$less@H@std@@V?$allocator@U?$pair@$$CBHH@std@@@2@$0A@@std@@@std@@QAE@XZ DD 019930522H
	DD	01H
	DD	FLAT:__unwindtable$??1?$_Tree@V?$_Tmap_traits@HHU?$less@H@std@@V?$allocator@U?$pair@$$CBHH@std@@@2@$0A@@std@@@std@@QAE@XZ
	DD	2 DUP(00H)
	DD	2 DUP(00H)
	DD	00H
	DD	01H
; Function compile flags: /Ogsp
; File c:\program files (x86)\microsoft visual studio 10.0\vc\include\xtree
xdata$x	ENDS
;	COMDAT ??1?$_Tree@V?$_Tmap_traits@HHU?$less@H@std@@V?$allocator@U?$pair@$$CBHH@std@@@2@$0A@@std@@@std@@QAE@XZ
_TEXT	SEGMENT
$T512746 = -20						; size = 4
_this$ = -16						; size = 4
__$EHRec$ = -12						; size = 12
??1?$_Tree@V?$_Tmap_traits@HHU?$less@H@std@@V?$allocator@U?$pair@$$CBHH@std@@@2@$0A@@std@@@std@@QAE@XZ PROC ; std::_Tree<std::_Tmap_traits<int,int,std::less<int>,std::allocator<std::pair<int const ,int> >,0> >::~_Tree<std::_Tmap_traits<int,int,std::less<int>,std::allocator<std::pair<int const ,int> >,0> >, COMDAT
; _this$ = ecx

; 790  : 		{	// destroy tree

  00000	6a 08		 push	 8
  00002	b8 00 00 00 00	 mov	 eax, __ehhandler$??1?$_Tree@V?$_Tmap_traits@HHU?$less@H@std@@V?$allocator@U?$pair@$$CBHH@std@@@2@$0A@@std@@@std@@QAE@XZ
  00007	e8 00 00 00 00	 call	 __EH_prolog3
  0000c	8b f1		 mov	 esi, ecx
  0000e	89 75 f0	 mov	 DWORD PTR _this$[ebp], esi

; 791  : 		_Tidy();

  00011	8b 46 04	 mov	 eax, DWORD PTR [esi+4]
  00014	8b 08		 mov	 ecx, DWORD PTR [eax]
  00016	83 65 fc 00	 and	 DWORD PTR __$EHRec$[ebp+8], 0
  0001a	50		 push	 eax
  0001b	51		 push	 ecx
  0001c	8d 45 ec	 lea	 eax, DWORD PTR $T512746[ebp]
  0001f	50		 push	 eax
  00020	8b ce		 mov	 ecx, esi
  00022	e8 00 00 00 00	 call	 ?erase@?$_Tree@V?$_Tmap_traits@HHU?$less@H@std@@V?$allocator@U?$pair@$$CBHH@std@@@2@$0A@@std@@@std@@QAE?AV?$_Tree_iterator@V?$_Tree_val@V?$_Tmap_traits@HHU?$less@H@std@@V?$allocator@U?$pair@$$CBHH@std@@@2@$0A@@std@@@std@@@2@V?$_Tree_const_iterator@V?$_Tree_val@V?$_Tmap_traits@HHU?$less@H@std@@V?$allocator@U?$pair@$$CBHH@std@@@2@$0A@@std@@@std@@@2@0@Z ; std::_Tree<std::_Tmap_traits<int,int,std::less<int>,std::allocator<std::pair<int const ,int> >,0> >::erase

; 792  : 		}

  00027	ff 76 04	 push	 DWORD PTR [esi+4]
  0002a	e8 00 00 00 00	 call	 ??3@YAXPAX@Z		; operator delete
  0002f	59		 pop	 ecx
  00030	e8 00 00 00 00	 call	 __EH_epilog3
  00035	c3		 ret	 0
_TEXT	ENDS
;	COMDAT text$x
text$x	SEGMENT
__unwindfunclet$??1?$_Tree@V?$_Tmap_traits@HHU?$less@H@std@@V?$allocator@U?$pair@$$CBHH@std@@@2@$0A@@std@@@std@@QAE@XZ$0:
  00000	8b 4d f0	 mov	 ecx, DWORD PTR _this$[ebp]
  00003	e9 00 00 00 00	 jmp	 ??1?$_Tree_val@V?$_Tmap_traits@HHU?$less@H@std@@V?$allocator@U?$pair@$$CBHH@std@@@2@$0A@@std@@@std@@QAE@XZ ; std::_Tree_val<std::_Tmap_traits<int,int,std::less<int>,std::allocator<std::pair<int const ,int> >,0> >::~_Tree_val<std::_Tmap_traits<int,int,std::less<int>,std::allocator<std::pair<int const ,int> >,0> >
__ehhandler$??1?$_Tree@V?$_Tmap_traits@HHU?$less@H@std@@V?$allocator@U?$pair@$$CBHH@std@@@2@$0A@@std@@@std@@QAE@XZ:
  00008	8b 54 24 08	 mov	 edx, DWORD PTR [esp+8]
  0000c	8d 42 0c	 lea	 eax, DWORD PTR [edx+12]
  0000f	8b 4a e8	 mov	 ecx, DWORD PTR [edx-24]
  00012	33 c8		 xor	 ecx, eax
  00014	e8 00 00 00 00	 call	 @__security_check_cookie@4
  00019	b8 00 00 00 00	 mov	 eax, OFFSET __ehfuncinfo$??1?$_Tree@V?$_Tmap_traits@HHU?$less@H@std@@V?$allocator@U?$pair@$$CBHH@std@@@2@$0A@@std@@@std@@QAE@XZ
  0001e	e9 00 00 00 00	 jmp	 ___CxxFrameHandler3
text$x	ENDS
??1?$_Tree@V?$_Tmap_traits@HHU?$less@H@std@@V?$allocator@U?$pair@$$CBHH@std@@@2@$0A@@std@@@std@@QAE@XZ ENDP ; std::_Tree<std::_Tmap_traits<int,int,std::less<int>,std::allocator<std::pair<int const ,int> >,0> >::~_Tree<std::_Tmap_traits<int,int,std::less<int>,std::allocator<std::pair<int const ,int> >,0> >
PUBLIC	??0?$map@HHU?$less@H@std@@V?$allocator@U?$pair@$$CBHH@std@@@2@@std@@QAE@XZ ; std::map<int,int,std::less<int>,std::allocator<std::pair<int const ,int> > >::map<int,int,std::less<int>,std::allocator<std::pair<int const ,int> > >
; Function compile flags: /Ogsp
; File c:\program files (x86)\microsoft visual studio 10.0\vc\include\map
;	COMDAT ??0?$map@HHU?$less@H@std@@V?$allocator@U?$pair@$$CBHH@std@@@2@@std@@QAE@XZ
_TEXT	SEGMENT
$T512800 = -8						; size = 4
$T512803 = -8						; size = 4
$T512789 = -1						; size = 1
??0?$map@HHU?$less@H@std@@V?$allocator@U?$pair@$$CBHH@std@@@2@@std@@QAE@XZ PROC ; std::map<int,int,std::less<int>,std::allocator<std::pair<int const ,int> > >::map<int,int,std::less<int>,std::allocator<std::pair<int const ,int> > >, COMDAT
; _this$ = ecx

; 106  : 		{	// construct empty map from defaults

  00000	55		 push	 ebp
  00001	8b ec		 mov	 ebp, esp
  00003	51		 push	 ecx
  00004	51		 push	 ecx
  00005	56		 push	 esi
  00006	51		 push	 ecx
  00007	89 65 f8	 mov	 DWORD PTR $T512803[ebp], esp
  0000a	8d 45 ff	 lea	 eax, DWORD PTR $T512789[ebp]
  0000d	89 65 f8	 mov	 DWORD PTR $T512800[ebp], esp
  00010	50		 push	 eax
  00011	8b f1		 mov	 esi, ecx
  00013	e8 00 00 00 00	 call	 ??0?$_Tree_val@V?$_Tmap_traits@HHU?$less@H@std@@V?$allocator@U?$pair@$$CBHH@std@@@2@$0A@@std@@@std@@QAE@ABU?$less@H@1@V?$allocator@U?$pair@$$CBHH@std@@@1@@Z ; std::_Tree_val<std::_Tmap_traits<int,int,std::less<int>,std::allocator<std::pair<int const ,int> >,0> >::_Tree_val<std::_Tmap_traits<int,int,std::less<int>,std::allocator<std::pair<int const ,int> >,0> >

; 107  : 		}

  00018	8b c6		 mov	 eax, esi
  0001a	5e		 pop	 esi
  0001b	c9		 leave
  0001c	c3		 ret	 0
??0?$map@HHU?$less@H@std@@V?$allocator@U?$pair@$$CBHH@std@@@2@@std@@QAE@XZ ENDP ; std::map<int,int,std::less<int>,std::allocator<std::pair<int const ,int> > >::map<int,int,std::less<int>,std::allocator<std::pair<int const ,int> > >
_TEXT	ENDS
PUBLIC	??1?$map@HHU?$less@H@std@@V?$allocator@U?$pair@$$CBHH@std@@@2@@std@@QAE@XZ ; std::map<int,int,std::less<int>,std::allocator<std::pair<int const ,int> > >::~map<int,int,std::less<int>,std::allocator<std::pair<int const ,int> > >
; Function compile flags: /Ogsp
;	COMDAT ??1?$map@HHU?$less@H@std@@V?$allocator@U?$pair@$$CBHH@std@@@2@@std@@QAE@XZ
_TEXT	SEGMENT
??1?$map@HHU?$less@H@std@@V?$allocator@U?$pair@$$CBHH@std@@@2@@std@@QAE@XZ PROC ; std::map<int,int,std::less<int>,std::allocator<std::pair<int const ,int> > >::~map<int,int,std::less<int>,std::allocator<std::pair<int const ,int> > >, COMDAT
; _this$ = ecx
  00000	e9 00 00 00 00	 jmp	 ??1?$_Tree@V?$_Tmap_traits@HHU?$less@H@std@@V?$allocator@U?$pair@$$CBHH@std@@@2@$0A@@std@@@std@@QAE@XZ ; std::_Tree<std::_Tmap_traits<int,int,std::less<int>,std::allocator<std::pair<int const ,int> >,0> >::~_Tree<std::_Tmap_traits<int,int,std::less<int>,std::allocator<std::pair<int const ,int> >,0> >
??1?$map@HHU?$less@H@std@@V?$allocator@U?$pair@$$CBHH@std@@@2@@std@@QAE@XZ ENDP ; std::map<int,int,std::less<int>,std::allocator<std::pair<int const ,int> > >::~map<int,int,std::less<int>,std::allocator<std::pair<int const ,int> > >
_TEXT	ENDS
PUBLIC	??_7ioItemRechargeManager@@6B@			; ioItemRechargeManager::`vftable'
PUBLIC	??0ioItemRechargeManager@@QAE@XZ		; ioItemRechargeManager::ioItemRechargeManager
PUBLIC	??_R4ioItemRechargeManager@@6B@			; ioItemRechargeManager::`RTTI Complete Object Locator'
PUBLIC	??_R0?AVioItemRechargeManager@@@8		; ioItemRechargeManager `RTTI Type Descriptor'
PUBLIC	??_R3ioItemRechargeManager@@8			; ioItemRechargeManager::`RTTI Class Hierarchy Descriptor'
PUBLIC	??_R2ioItemRechargeManager@@8			; ioItemRechargeManager::`RTTI Base Class Array'
PUBLIC	??_R1A@?0A@EA@ioItemRechargeManager@@8		; ioItemRechargeManager::`RTTI Base Class Descriptor at (0,-1,0,64)'
PUBLIC	??_R13?0A@EA@?$Singleton@VioItemRechargeManager@@@@8 ; Singleton<ioItemRechargeManager>::`RTTI Base Class Descriptor at (4,-1,0,64)'
PUBLIC	??_R0?AV?$Singleton@VioItemRechargeManager@@@@@8 ; Singleton<ioItemRechargeManager> `RTTI Type Descriptor'
PUBLIC	??_R3?$Singleton@VioItemRechargeManager@@@@8	; Singleton<ioItemRechargeManager>::`RTTI Class Hierarchy Descriptor'
PUBLIC	??_R2?$Singleton@VioItemRechargeManager@@@@8	; Singleton<ioItemRechargeManager>::`RTTI Base Class Array'
PUBLIC	??_R1A@?0A@EA@?$Singleton@VioItemRechargeManager@@@@8 ; Singleton<ioItemRechargeManager>::`RTTI Base Class Descriptor at (0,-1,0,64)'
EXTRN	??_EioItemRechargeManager@@UAEPAXI@Z:PROC	; ioItemRechargeManager::`vector deleting destructor'
;	COMDAT ??_R1A@?0A@EA@?$Singleton@VioItemRechargeManager@@@@8
; File c:\program files (x86)\microsoft visual studio 10.0\vc\include\xmemory
rdata$r	SEGMENT
??_R1A@?0A@EA@?$Singleton@VioItemRechargeManager@@@@8 DD FLAT:??_R0?AV?$Singleton@VioItemRechargeManager@@@@@8 ; Singleton<ioItemRechargeManager>::`RTTI Base Class Descriptor at (0,-1,0,64)'
	DD	00H
	DD	00H
	DD	0ffffffffH
	DD	00H
	DD	040H
	DD	FLAT:??_R3?$Singleton@VioItemRechargeManager@@@@8
rdata$r	ENDS
;	COMDAT ??_R2?$Singleton@VioItemRechargeManager@@@@8
rdata$r	SEGMENT
??_R2?$Singleton@VioItemRechargeManager@@@@8 DD FLAT:??_R1A@?0A@EA@?$Singleton@VioItemRechargeManager@@@@8 ; Singleton<ioItemRechargeManager>::`RTTI Base Class Array'
rdata$r	ENDS
;	COMDAT ??_R3?$Singleton@VioItemRechargeManager@@@@8
rdata$r	SEGMENT
??_R3?$Singleton@VioItemRechargeManager@@@@8 DD 00H	; Singleton<ioItemRechargeManager>::`RTTI Class Hierarchy Descriptor'
	DD	00H
	DD	01H
	DD	FLAT:??_R2?$Singleton@VioItemRechargeManager@@@@8
rdata$r	ENDS
;	COMDAT ??_R0?AV?$Singleton@VioItemRechargeManager@@@@@8
_DATA	SEGMENT
??_R0?AV?$Singleton@VioItemRechargeManager@@@@@8 DD FLAT:??_7type_info@@6B@ ; Singleton<ioItemRechargeManager> `RTTI Type Descriptor'
	DD	00H
	DB	'.?AV?$Singleton@VioItemRechargeManager@@@@', 00H
_DATA	ENDS
;	COMDAT ??_R13?0A@EA@?$Singleton@VioItemRechargeManager@@@@8
rdata$r	SEGMENT
??_R13?0A@EA@?$Singleton@VioItemRechargeManager@@@@8 DD FLAT:??_R0?AV?$Singleton@VioItemRechargeManager@@@@@8 ; Singleton<ioItemRechargeManager>::`RTTI Base Class Descriptor at (4,-1,0,64)'
	DD	00H
	DD	04H
	DD	0ffffffffH
	DD	00H
	DD	040H
	DD	FLAT:??_R3?$Singleton@VioItemRechargeManager@@@@8
rdata$r	ENDS
;	COMDAT ??_R1A@?0A@EA@ioItemRechargeManager@@8
rdata$r	SEGMENT
??_R1A@?0A@EA@ioItemRechargeManager@@8 DD FLAT:??_R0?AVioItemRechargeManager@@@8 ; ioItemRechargeManager::`RTTI Base Class Descriptor at (0,-1,0,64)'
	DD	01H
	DD	00H
	DD	0ffffffffH
	DD	00H
	DD	040H
	DD	FLAT:??_R3ioItemRechargeManager@@8
rdata$r	ENDS
;	COMDAT ??_R2ioItemRechargeManager@@8
rdata$r	SEGMENT
??_R2ioItemRechargeManager@@8 DD FLAT:??_R1A@?0A@EA@ioItemRechargeManager@@8 ; ioItemRechargeManager::`RTTI Base Class Array'
	DD	FLAT:??_R13?0A@EA@?$Singleton@VioItemRechargeManager@@@@8
rdata$r	ENDS
;	COMDAT ??_R3ioItemRechargeManager@@8
rdata$r	SEGMENT
??_R3ioItemRechargeManager@@8 DD 00H			; ioItemRechargeManager::`RTTI Class Hierarchy Descriptor'
	DD	00H
	DD	02H
	DD	FLAT:??_R2ioItemRechargeManager@@8
rdata$r	ENDS
;	COMDAT ??_R0?AVioItemRechargeManager@@@8
_DATA	SEGMENT
??_R0?AVioItemRechargeManager@@@8 DD FLAT:??_7type_info@@6B@ ; ioItemRechargeManager `RTTI Type Descriptor'
	DD	00H
	DB	'.?AVioItemRechargeManager@@', 00H
_DATA	ENDS
;	COMDAT ??_R4ioItemRechargeManager@@6B@
rdata$r	SEGMENT
??_R4ioItemRechargeManager@@6B@ DD 00H			; ioItemRechargeManager::`RTTI Complete Object Locator'
	DD	00H
	DD	00H
	DD	FLAT:??_R0?AVioItemRechargeManager@@@8
	DD	FLAT:??_R3ioItemRechargeManager@@8
rdata$r	ENDS
;	COMDAT ??_7ioItemRechargeManager@@6B@
CONST	SEGMENT
??_7ioItemRechargeManager@@6B@ DD FLAT:??_R4ioItemRechargeManager@@6B@ ; ioItemRechargeManager::`vftable'
	DD	FLAT:??_EioItemRechargeManager@@UAEPAXI@Z
CONST	ENDS
;	COMDAT xdata$x
xdata$x	SEGMENT
__unwindtable$??0ioItemRechargeManager@@QAE@XZ DD 0ffffffffH
	DD	FLAT:__unwindfunclet$??0ioItemRechargeManager@@QAE@XZ$0
__ehfuncinfo$??0ioItemRechargeManager@@QAE@XZ DD 019930522H
	DD	01H
	DD	FLAT:__unwindtable$??0ioItemRechargeManager@@QAE@XZ
	DD	2 DUP(00H)
	DD	2 DUP(00H)
	DD	00H
	DD	01H
; Function compile flags: /Ogsp
; File d:\lost saga for developer\youtube\tutorial\source\src\lsclient\ioitemrechargemanager.cpp
xdata$x	ENDS
;	COMDAT ??0ioItemRechargeManager@@QAE@XZ
_TEXT	SEGMENT
$T512837 = -24						; size = 4
$T512851 = -24						; size = 4
_this$ = -20						; size = 4
$T512846 = -13						; size = 1
__$EHRec$ = -12						; size = 12
??0ioItemRechargeManager@@QAE@XZ PROC			; ioItemRechargeManager::ioItemRechargeManager, COMDAT
; _this$ = ecx

; 9    : {

  00000	6a 0c		 push	 12			; 0000000cH
  00002	b8 00 00 00 00	 mov	 eax, __ehhandler$??0ioItemRechargeManager@@QAE@XZ
  00007	e8 00 00 00 00	 call	 __EH_prolog3
  0000c	8b f1		 mov	 esi, ecx
  0000e	89 75 ec	 mov	 DWORD PTR _this$[ebp], esi
  00011	8b c6		 mov	 eax, esi
  00013	a3 00 00 00 00	 mov	 DWORD PTR ?ms_Singleton@?$Singleton@VioItemRechargeManager@@@@1PAVioItemRechargeManager@@A, eax ; Singleton<ioItemRechargeManager>::ms_Singleton
  00018	83 65 fc 00	 and	 DWORD PTR __$EHRec$[ebp+8], 0
  0001c	8d 4e 34	 lea	 ecx, DWORD PTR [esi+52]
  0001f	51		 push	 ecx
  00020	89 65 e8	 mov	 DWORD PTR $T512851[ebp], esp
  00023	8d 45 f3	 lea	 eax, DWORD PTR $T512846[ebp]
  00026	89 65 e8	 mov	 DWORD PTR $T512837[ebp], esp
  00029	50		 push	 eax
  0002a	c7 06 00 00 00
	00		 mov	 DWORD PTR [esi], OFFSET ??_7ioItemRechargeManager@@6B@
  00030	e8 00 00 00 00	 call	 ??0?$_Tree_val@V?$_Tmap_traits@HHU?$less@H@std@@V?$allocator@U?$pair@$$CBHH@std@@@2@$0A@@std@@@std@@QAE@ABU?$less@H@1@V?$allocator@U?$pair@$$CBHH@std@@@1@@Z ; std::_Tree_val<std::_Tmap_traits<int,int,std::less<int>,std::allocator<std::pair<int const ,int> >,0> >::_Tree_val<std::_Tmap_traits<int,int,std::less<int>,std::allocator<std::pair<int const ,int> >,0> >

; 10   : }

  00035	8b c6		 mov	 eax, esi
  00037	e8 00 00 00 00	 call	 __EH_epilog3
  0003c	c3		 ret	 0
_TEXT	ENDS
;	COMDAT text$x
text$x	SEGMENT
__unwindfunclet$??0ioItemRechargeManager@@QAE@XZ$0:
  00000	8b 4d ec	 mov	 ecx, DWORD PTR _this$[ebp]
  00003	83 c1 04	 add	 ecx, 4
  00006	e9 00 00 00 00	 jmp	 ??1?$Singleton@VioItemRechargeManager@@@@QAE@XZ ; Singleton<ioItemRechargeManager>::~Singleton<ioItemRechargeManager>
__ehhandler$??0ioItemRechargeManager@@QAE@XZ:
  0000b	8b 54 24 08	 mov	 edx, DWORD PTR [esp+8]
  0000f	8d 42 0c	 lea	 eax, DWORD PTR [edx+12]
  00012	8b 4a e4	 mov	 ecx, DWORD PTR [edx-28]
  00015	33 c8		 xor	 ecx, eax
  00017	e8 00 00 00 00	 call	 @__security_check_cookie@4
  0001c	b8 00 00 00 00	 mov	 eax, OFFSET __ehfuncinfo$??0ioItemRechargeManager@@QAE@XZ
  00021	e9 00 00 00 00	 jmp	 ___CxxFrameHandler3
text$x	ENDS
??0ioItemRechargeManager@@QAE@XZ ENDP			; ioItemRechargeManager::ioItemRechargeManager
PUBLIC	??1ioItemRechargeManager@@UAE@XZ		; ioItemRechargeManager::~ioItemRechargeManager
;	COMDAT xdata$x
; File d:\lost saga for developer\youtube\tutorial\source\src\io3dengine\iosingleton.h
xdata$x	SEGMENT
__unwindtable$??1ioItemRechargeManager@@UAE@XZ DD 0ffffffffH
	DD	FLAT:__unwindfunclet$??1ioItemRechargeManager@@UAE@XZ$0
__ehfuncinfo$??1ioItemRechargeManager@@UAE@XZ DD 019930522H
	DD	01H
	DD	FLAT:__unwindtable$??1ioItemRechargeManager@@UAE@XZ
	DD	2 DUP(00H)
	DD	2 DUP(00H)
	DD	00H
	DD	01H
; Function compile flags: /Ogsp
; File d:\lost saga for developer\youtube\tutorial\source\src\lsclient\ioitemrechargemanager.cpp
xdata$x	ENDS
;	COMDAT ??1ioItemRechargeManager@@UAE@XZ
_TEXT	SEGMENT
_this$ = -16						; size = 4
__$EHRec$ = -12						; size = 12
??1ioItemRechargeManager@@UAE@XZ PROC			; ioItemRechargeManager::~ioItemRechargeManager, COMDAT
; _this$ = ecx

; 13   : {

  00000	6a 04		 push	 4
  00002	b8 00 00 00 00	 mov	 eax, __ehhandler$??1ioItemRechargeManager@@UAE@XZ
  00007	e8 00 00 00 00	 call	 __EH_prolog3
  0000c	89 4d f0	 mov	 DWORD PTR _this$[ebp], ecx
  0000f	c7 01 00 00 00
	00		 mov	 DWORD PTR [ecx], OFFSET ??_7ioItemRechargeManager@@6B@
  00015	83 65 fc 00	 and	 DWORD PTR __$EHRec$[ebp+8], 0

; 14   : }

  00019	83 c1 34	 add	 ecx, 52			; 00000034H
  0001c	e8 00 00 00 00	 call	 ??1?$_Tree@V?$_Tmap_traits@HHU?$less@H@std@@V?$allocator@U?$pair@$$CBHH@std@@@2@$0A@@std@@@std@@QAE@XZ ; std::_Tree<std::_Tmap_traits<int,int,std::less<int>,std::allocator<std::pair<int const ,int> >,0> >::~_Tree<std::_Tmap_traits<int,int,std::less<int>,std::allocator<std::pair<int const ,int> >,0> >
  00021	83 25 00 00 00
	00 00		 and	 DWORD PTR ?ms_Singleton@?$Singleton@VioItemRechargeManager@@@@1PAVioItemRechargeManager@@A, 0 ; Singleton<ioItemRechargeManager>::ms_Singleton
  00028	e8 00 00 00 00	 call	 __EH_epilog3
  0002d	c3		 ret	 0
_TEXT	ENDS
;	COMDAT text$x
text$x	SEGMENT
__unwindfunclet$??1ioItemRechargeManager@@UAE@XZ$0:
  00000	8b 4d f0	 mov	 ecx, DWORD PTR _this$[ebp]
  00003	83 c1 04	 add	 ecx, 4
  00006	e9 00 00 00 00	 jmp	 ??1?$Singleton@VioItemRechargeManager@@@@QAE@XZ ; Singleton<ioItemRechargeManager>::~Singleton<ioItemRechargeManager>
__ehhandler$??1ioItemRechargeManager@@UAE@XZ:
  0000b	8b 54 24 08	 mov	 edx, DWORD PTR [esp+8]
  0000f	8d 42 0c	 lea	 eax, DWORD PTR [edx+12]
  00012	8b 4a ec	 mov	 ecx, DWORD PTR [edx-20]
  00015	33 c8		 xor	 ecx, eax
  00017	e8 00 00 00 00	 call	 @__security_check_cookie@4
  0001c	b8 00 00 00 00	 mov	 eax, OFFSET __ehfuncinfo$??1ioItemRechargeManager@@UAE@XZ
  00021	e9 00 00 00 00	 jmp	 ___CxxFrameHandler3
text$x	ENDS
??1ioItemRechargeManager@@UAE@XZ ENDP			; ioItemRechargeManager::~ioItemRechargeManager
; Function compile flags: /Ogsp
;	COMDAT ??_GioItemRechargeManager@@UAEPAXI@Z
_TEXT	SEGMENT
___flags$ = 8						; size = 4
??_GioItemRechargeManager@@UAEPAXI@Z PROC		; ioItemRechargeManager::`scalar deleting destructor', COMDAT
; _this$ = ecx
  00000	55		 push	 ebp
  00001	8b ec		 mov	 ebp, esp
  00003	56		 push	 esi
  00004	8b f1		 mov	 esi, ecx
  00006	e8 00 00 00 00	 call	 ??1ioItemRechargeManager@@UAE@XZ ; ioItemRechargeManager::~ioItemRechargeManager
  0000b	f6 45 08 01	 test	 BYTE PTR ___flags$[ebp], 1
  0000f	74 07		 je	 SHORT $LN1@scalar@2
  00011	56		 push	 esi
  00012	e8 00 00 00 00	 call	 ??3@YAXPAX@Z		; operator delete
  00017	59		 pop	 ecx
$LN1@scalar@2:
  00018	8b c6		 mov	 eax, esi
  0001a	5e		 pop	 esi
  0001b	5d		 pop	 ebp
  0001c	c2 04 00	 ret	 4
??_GioItemRechargeManager@@UAEPAXI@Z ENDP		; ioItemRechargeManager::`scalar deleting destructor'
_TEXT	ENDS
END
