; Listing generated by Microsoft (R) Optimizing Compiler Version 16.00.30319.01 

	TITLE	D:\Lost Saga For Developer\Youtube\Tutorial\Source\src\LSClient\ioJumperItem.cpp
	.686P
	.XMM
	include listing.inc
	.model	flat

INCLUDELIB MSVCRT
INCLUDELIB OLDNAMES

PUBLIC	?_EEM_DS@?$deque@UD3DXVECTOR3@@V?$allocator@UD3DXVECTOR3@@@std@@@std@@2HB ; std::deque<D3DXVECTOR3,std::allocator<D3DXVECTOR3> >::_EEM_DS
;	COMDAT ?_EEM_DS@?$deque@UD3DXVECTOR3@@V?$allocator@UD3DXVECTOR3@@@std@@@std@@2HB
CONST	SEGMENT
?_EEM_DS@?$deque@UD3DXVECTOR3@@V?$allocator@UD3DXVECTOR3@@@std@@@std@@2HB DD 01H ; std::deque<D3DXVECTOR3,std::allocator<D3DXVECTOR3> >::_EEM_DS
CONST	ENDS
PUBLIC	?GetAttackState@ioJumperItem@@QAE?AW4AttackState@1@XZ ; ioJumperItem::GetAttackState
; Function compile flags: /Ogsp
; File d:\lost saga for developer\youtube\tutorial\source\src\lsclient\iojumperitem.h
;	COMDAT ?GetAttackState@ioJumperItem@@QAE?AW4AttackState@1@XZ
_TEXT	SEGMENT
?GetAttackState@ioJumperItem@@QAE?AW4AttackState@1@XZ PROC ; ioJumperItem::GetAttackState, COMDAT
; _this$ = ecx

; 190  : 	ioJumperItem::AttackState GetAttackState(){ return m_AttackState; }

  00000	8b 81 54 19 00
	00		 mov	 eax, DWORD PTR [ecx+6484]
  00006	c3		 ret	 0
?GetAttackState@ioJumperItem@@QAE?AW4AttackState@1@XZ ENDP ; ioJumperItem::GetAttackState
_TEXT	ENDS
PUBLIC	?return1@@YAIXZ					; return1
; Function compile flags: /Ogsp
; File d:\lost saga for developer\youtube\tutorial\source\src\lsclient\stdafx.h
;	COMDAT ?return1@@YAIXZ
_TEXT	SEGMENT
?return1@@YAIXZ PROC					; return1, COMDAT

; 17   : 	__forceinline unsigned int return1() { __asm mov eax, 1 };

  00000	b8 01 00 00 00	 mov	 eax, 1
  00005	c3		 ret	 0
?return1@@YAIXZ ENDP					; return1
_TEXT	ENDS
PUBLIC	?GetState@ioBaseChar@@QBE?AW4CharState@@XZ	; ioBaseChar::GetState
; Function compile flags: /Ogsp
; File d:\lost saga for developer\youtube\tutorial\source\src\lsclient\iobasechar.h
;	COMDAT ?GetState@ioBaseChar@@QBE?AW4CharState@@XZ
_TEXT	SEGMENT
?GetState@ioBaseChar@@QBE?AW4CharState@@XZ PROC		; ioBaseChar::GetState, COMDAT
; _this$ = ecx

; 2156 : 	inline CharState GetState() const { return m_CharState; }	

  00000	8a 81 10 03 00
	00		 mov	 al, BYTE PTR [ecx+784]
  00006	c3		 ret	 0
?GetState@ioBaseChar@@QBE?AW4CharState@@XZ ENDP		; ioBaseChar::GetState
_TEXT	ENDS
PUBLIC	?SetSkillNextJumpAmt@ioBaseChar@@QAEXM@Z	; ioBaseChar::SetSkillNextJumpAmt
EXTRN	__fltused:DWORD
; Function compile flags: /Ogsp
;	COMDAT ?SetSkillNextJumpAmt@ioBaseChar@@QAEXM@Z
_TEXT	SEGMENT
_fSkillNextJumpAmt$ = 8					; size = 4
?SetSkillNextJumpAmt@ioBaseChar@@QAEXM@Z PROC		; ioBaseChar::SetSkillNextJumpAmt, COMDAT
; _this$ = ecx

; 2210 : 	inline void SetSkillNextJumpAmt( float fSkillNextJumpAmt ){ m_fSkillNextJumpAmt = fSkillNextJumpAmt; }

  00000	55		 push	 ebp
  00001	8b ec		 mov	 ebp, esp
  00003	f3 0f 10 45 08	 movss	 xmm0, DWORD PTR _fSkillNextJumpAmt$[ebp]
  00008	f3 0f 11 81 24
	1d 00 00	 movss	 DWORD PTR [ecx+7460], xmm0
  00010	5d		 pop	 ebp
  00011	c2 04 00	 ret	 4
?SetSkillNextJumpAmt@ioBaseChar@@QAEXM@Z ENDP		; ioBaseChar::SetSkillNextJumpAmt
_TEXT	ENDS
PUBLIC	?GetSkillNextJumpAmt@ioBaseChar@@QAEMXZ		; ioBaseChar::GetSkillNextJumpAmt
; Function compile flags: /Ogsp
;	COMDAT ?GetSkillNextJumpAmt@ioBaseChar@@QAEMXZ
_TEXT	SEGMENT
?GetSkillNextJumpAmt@ioBaseChar@@QAEMXZ PROC		; ioBaseChar::GetSkillNextJumpAmt, COMDAT
; _this$ = ecx

; 2211 : 	inline float GetSkillNextJumpAmt(){ return m_fSkillNextJumpAmt; }

  00000	d9 81 24 1d 00
	00		 fld	 DWORD PTR [ecx+7460]
  00006	c3		 ret	 0
?GetSkillNextJumpAmt@ioBaseChar@@QAEMXZ ENDP		; ioBaseChar::GetSkillNextJumpAmt
_TEXT	ENDS
PUBLIC	?GetCharName@ioBaseChar@@QBEABVioHashString@@XZ	; ioBaseChar::GetCharName
; Function compile flags: /Ogsp
;	COMDAT ?GetCharName@ioBaseChar@@QBEABVioHashString@@XZ
_TEXT	SEGMENT
?GetCharName@ioBaseChar@@QBEABVioHashString@@XZ PROC	; ioBaseChar::GetCharName, COMDAT
; _this$ = ecx

; 2594 : 	inline const ioHashString& GetCharName() const { return m_Name; }

  00000	8d 81 d4 02 00
	00		 lea	 eax, DWORD PTR [ecx+724]
  00006	c3		 ret	 0
?GetCharName@ioBaseChar@@QBEABVioHashString@@XZ ENDP	; ioBaseChar::GetCharName
_TEXT	ENDS
PUBLIC	?GetTargetRot@ioBaseChar@@QBEABUD3DXQUATERNION@@XZ ; ioBaseChar::GetTargetRot
; Function compile flags: /Ogsp
;	COMDAT ?GetTargetRot@ioBaseChar@@QBEABUD3DXQUATERNION@@XZ
_TEXT	SEGMENT
?GetTargetRot@ioBaseChar@@QBEABUD3DXQUATERNION@@XZ PROC	; ioBaseChar::GetTargetRot, COMDAT
; _this$ = ecx

; 2599 : 	inline const D3DXQUATERNION& GetTargetRot() const { return m_qtTargetRot; }

  00000	8d 81 a4 06 00
	00		 lea	 eax, DWORD PTR [ecx+1700]
  00006	c3		 ret	 0
?GetTargetRot@ioBaseChar@@QBEABUD3DXQUATERNION@@XZ ENDP	; ioBaseChar::GetTargetRot
_TEXT	ENDS
PUBLIC	??_7bad_alloc@std@@6B@				; std::bad_alloc::`vftable'
PUBLIC	??0bad_alloc@std@@QAE@PBD@Z			; std::bad_alloc::bad_alloc
PUBLIC	??_R4bad_alloc@std@@6B@				; std::bad_alloc::`RTTI Complete Object Locator'
PUBLIC	??_R0?AVbad_alloc@std@@@8			; std::bad_alloc `RTTI Type Descriptor'
PUBLIC	??_R3bad_alloc@std@@8				; std::bad_alloc::`RTTI Class Hierarchy Descriptor'
PUBLIC	??_R2bad_alloc@std@@8				; std::bad_alloc::`RTTI Base Class Array'
PUBLIC	??_R1A@?0A@EA@bad_alloc@std@@8			; std::bad_alloc::`RTTI Base Class Descriptor at (0,-1,0,64)'
PUBLIC	??_R1A@?0A@EA@exception@std@@8			; std::exception::`RTTI Base Class Descriptor at (0,-1,0,64)'
PUBLIC	??_R0?AVexception@std@@@8			; std::exception `RTTI Type Descriptor'
PUBLIC	??_R3exception@std@@8				; std::exception::`RTTI Class Hierarchy Descriptor'
PUBLIC	??_R2exception@std@@8				; std::exception::`RTTI Base Class Array'
EXTRN	__imp_??0exception@std@@QAE@ABQBD@Z:PROC
EXTRN	??_7type_info@@6B@:QWORD			; type_info::`vftable'
EXTRN	??_Ebad_alloc@std@@UAEPAXI@Z:PROC		; std::bad_alloc::`vector deleting destructor'
EXTRN	?what@exception@std@@UBEPBDXZ:PROC		; std::exception::what
;	COMDAT ??_R2exception@std@@8
; File c:\program files (x86)\microsoft visual studio 10.0\vc\include\exception
rdata$r	SEGMENT
??_R2exception@std@@8 DD FLAT:??_R1A@?0A@EA@exception@std@@8 ; std::exception::`RTTI Base Class Array'
rdata$r	ENDS
;	COMDAT ??_R3exception@std@@8
rdata$r	SEGMENT
??_R3exception@std@@8 DD 00H				; std::exception::`RTTI Class Hierarchy Descriptor'
	DD	00H
	DD	01H
	DD	FLAT:??_R2exception@std@@8
rdata$r	ENDS
;	COMDAT ??_R0?AVexception@std@@@8
_DATA	SEGMENT
??_R0?AVexception@std@@@8 DD FLAT:??_7type_info@@6B@	; std::exception `RTTI Type Descriptor'
	DD	00H
	DB	'.?AVexception@std@@', 00H
_DATA	ENDS
;	COMDAT ??_R1A@?0A@EA@exception@std@@8
rdata$r	SEGMENT
??_R1A@?0A@EA@exception@std@@8 DD FLAT:??_R0?AVexception@std@@@8 ; std::exception::`RTTI Base Class Descriptor at (0,-1,0,64)'
	DD	00H
	DD	00H
	DD	0ffffffffH
	DD	00H
	DD	040H
	DD	FLAT:??_R3exception@std@@8
rdata$r	ENDS
;	COMDAT ??_R1A@?0A@EA@bad_alloc@std@@8
rdata$r	SEGMENT
??_R1A@?0A@EA@bad_alloc@std@@8 DD FLAT:??_R0?AVbad_alloc@std@@@8 ; std::bad_alloc::`RTTI Base Class Descriptor at (0,-1,0,64)'
	DD	01H
	DD	00H
	DD	0ffffffffH
	DD	00H
	DD	040H
	DD	FLAT:??_R3bad_alloc@std@@8
rdata$r	ENDS
;	COMDAT ??_R2bad_alloc@std@@8
rdata$r	SEGMENT
??_R2bad_alloc@std@@8 DD FLAT:??_R1A@?0A@EA@bad_alloc@std@@8 ; std::bad_alloc::`RTTI Base Class Array'
	DD	FLAT:??_R1A@?0A@EA@exception@std@@8
rdata$r	ENDS
;	COMDAT ??_R3bad_alloc@std@@8
rdata$r	SEGMENT
??_R3bad_alloc@std@@8 DD 00H				; std::bad_alloc::`RTTI Class Hierarchy Descriptor'
	DD	00H
	DD	02H
	DD	FLAT:??_R2bad_alloc@std@@8
rdata$r	ENDS
;	COMDAT ??_R0?AVbad_alloc@std@@@8
_DATA	SEGMENT
??_R0?AVbad_alloc@std@@@8 DD FLAT:??_7type_info@@6B@	; std::bad_alloc `RTTI Type Descriptor'
	DD	00H
	DB	'.?AVbad_alloc@std@@', 00H
_DATA	ENDS
;	COMDAT ??_R4bad_alloc@std@@6B@
rdata$r	SEGMENT
??_R4bad_alloc@std@@6B@ DD 00H				; std::bad_alloc::`RTTI Complete Object Locator'
	DD	00H
	DD	00H
	DD	FLAT:??_R0?AVbad_alloc@std@@@8
	DD	FLAT:??_R3bad_alloc@std@@8
rdata$r	ENDS
;	COMDAT ??_7bad_alloc@std@@6B@
CONST	SEGMENT
??_7bad_alloc@std@@6B@ DD FLAT:??_R4bad_alloc@std@@6B@	; std::bad_alloc::`vftable'
	DD	FLAT:??_Ebad_alloc@std@@UAEPAXI@Z
	DD	FLAT:?what@exception@std@@UBEPBDXZ
; Function compile flags: /Ogsp
CONST	ENDS
;	COMDAT ??0bad_alloc@std@@QAE@PBD@Z
_TEXT	SEGMENT
__Message$ = 8						; size = 4
??0bad_alloc@std@@QAE@PBD@Z PROC			; std::bad_alloc::bad_alloc, COMDAT
; _this$ = ecx

; 345  : 		{	// construct from message string

  00000	55		 push	 ebp
  00001	8b ec		 mov	 ebp, esp
  00003	56		 push	 esi
  00004	8d 45 08	 lea	 eax, DWORD PTR __Message$[ebp]
  00007	50		 push	 eax
  00008	8b f1		 mov	 esi, ecx
  0000a	ff 15 00 00 00
	00		 call	 DWORD PTR __imp_??0exception@std@@QAE@ABQBD@Z
  00010	c7 06 00 00 00
	00		 mov	 DWORD PTR [esi], OFFSET ??_7bad_alloc@std@@6B@

; 346  : 		}

  00016	8b c6		 mov	 eax, esi
  00018	5e		 pop	 esi
  00019	5d		 pop	 ebp
  0001a	c2 04 00	 ret	 4
??0bad_alloc@std@@QAE@PBD@Z ENDP			; std::bad_alloc::bad_alloc
_TEXT	ENDS
PUBLIC	??1bad_alloc@std@@UAE@XZ			; std::bad_alloc::~bad_alloc
EXTRN	__imp_??1exception@std@@UAE@XZ:PROC
; Function compile flags: /Ogsp
;	COMDAT ??1bad_alloc@std@@UAE@XZ
_TEXT	SEGMENT
??1bad_alloc@std@@UAE@XZ PROC				; std::bad_alloc::~bad_alloc, COMDAT
; _this$ = ecx

; 354  : 		{	// destroy the object

  00000	c7 01 00 00 00
	00		 mov	 DWORD PTR [ecx], OFFSET ??_7bad_alloc@std@@6B@

; 355  : 		}

  00006	ff 25 00 00 00
	00		 jmp	 DWORD PTR __imp_??1exception@std@@UAE@XZ
??1bad_alloc@std@@UAE@XZ ENDP				; std::bad_alloc::~bad_alloc
_TEXT	ENDS
EXTRN	??3@YAXPAX@Z:PROC				; operator delete
; Function compile flags: /Ogsp
;	COMDAT ??_Gbad_alloc@std@@UAEPAXI@Z
_TEXT	SEGMENT
___flags$ = 8						; size = 4
??_Gbad_alloc@std@@UAEPAXI@Z PROC			; std::bad_alloc::`scalar deleting destructor', COMDAT
; _this$ = ecx
  00000	55		 push	 ebp
  00001	8b ec		 mov	 ebp, esp
  00003	56		 push	 esi
  00004	8b f1		 mov	 esi, ecx
  00006	c7 06 00 00 00
	00		 mov	 DWORD PTR [esi], OFFSET ??_7bad_alloc@std@@6B@
  0000c	ff 15 00 00 00
	00		 call	 DWORD PTR __imp_??1exception@std@@UAE@XZ
  00012	f6 45 08 01	 test	 BYTE PTR ___flags$[ebp], 1
  00016	74 07		 je	 SHORT $LN1@scalar
  00018	56		 push	 esi
  00019	e8 00 00 00 00	 call	 ??3@YAXPAX@Z		; operator delete
  0001e	59		 pop	 ecx
$LN1@scalar:
  0001f	8b c6		 mov	 eax, esi
  00021	5e		 pop	 esi
  00022	5d		 pop	 ebp
  00023	c2 04 00	 ret	 4
??_Gbad_alloc@std@@UAEPAXI@Z ENDP			; std::bad_alloc::`scalar deleting destructor'
_TEXT	ENDS
PUBLIC	?SetChargingState@ioBaseChar@@QAEX_N@Z		; ioBaseChar::SetChargingState
; Function compile flags: /Ogsp
; File d:\lost saga for developer\youtube\tutorial\source\src\lsclient\iobasechar.h
;	COMDAT ?SetChargingState@ioBaseChar@@QAEX_N@Z
_TEXT	SEGMENT
_bState$ = 8						; size = 1
?SetChargingState@ioBaseChar@@QAEX_N@Z PROC		; ioBaseChar::SetChargingState, COMDAT
; _this$ = ecx

; 2937 : 	inline void SetChargingState( bool bState ) { m_bChargingState = bState; }

  00000	55		 push	 ebp
  00001	8b ec		 mov	 ebp, esp
  00003	8a 45 08	 mov	 al, BYTE PTR _bState$[ebp]
  00006	88 81 54 20 00
	00		 mov	 BYTE PTR [ecx+8276], al
  0000c	5d		 pop	 ebp
  0000d	c2 04 00	 ret	 4
?SetChargingState@ioBaseChar@@QAEX_N@Z ENDP		; ioBaseChar::SetChargingState
_TEXT	ENDS
PUBLIC	??2@YAPAXIPAX@Z					; operator new
; Function compile flags: /Ogsp
; File c:\program files (x86)\microsoft visual studio 10.0\vc\include\new
;	COMDAT ??2@YAPAXIPAX@Z
_TEXT	SEGMENT
___formal$ = 8						; size = 4
__Where$ = 12						; size = 4
??2@YAPAXIPAX@Z PROC					; operator new, COMDAT

; 56   : 	{	// construct array with placement at _Where

  00000	55		 push	 ebp
  00001	8b ec		 mov	 ebp, esp

; 57   : 	return (_Where);

  00003	8b 45 0c	 mov	 eax, DWORD PTR __Where$[ebp]

; 58   : 	}

  00006	5d		 pop	 ebp
  00007	c3		 ret	 0
??2@YAPAXIPAX@Z ENDP					; operator new
_TEXT	ENDS
PUBLIC	??3@YAXPAX0@Z					; operator delete
; Function compile flags: /Ogsp
;	COMDAT ??3@YAXPAX0@Z
_TEXT	SEGMENT
___formal$ = 8						; size = 4
___formal$ = 12						; size = 4
??3@YAXPAX0@Z PROC					; operator delete, COMDAT

; 62   : 	}

  00000	c3		 ret	 0
??3@YAXPAX0@Z ENDP					; operator delete
_TEXT	ENDS
PUBLIC	?GetCreator@ioBaseChar@@QAEPAVioPlayStage@@XZ	; ioBaseChar::GetCreator
; Function compile flags: /Ogsp
; File d:\lost saga for developer\youtube\tutorial\source\src\lsclient\iobasechar.h
;	COMDAT ?GetCreator@ioBaseChar@@QAEPAVioPlayStage@@XZ
_TEXT	SEGMENT
?GetCreator@ioBaseChar@@QAEPAVioPlayStage@@XZ PROC	; ioBaseChar::GetCreator, COMDAT
; _this$ = ecx

; 4013 : 	inline ioPlayStage* GetCreator() { return m_pCreator; }

  00000	8b 81 44 03 00
	00		 mov	 eax, DWORD PTR [ecx+836]
  00006	c3		 ret	 0
?GetCreator@ioBaseChar@@QAEPAVioPlayStage@@XZ ENDP	; ioBaseChar::GetCreator
_TEXT	ENDS
PUBLIC	?SetCombo@ioChargeComboDash@@QAEX_N@Z		; ioChargeComboDash::SetCombo
; Function compile flags: /Ogsp
; File d:\lost saga for developer\youtube\tutorial\source\src\lsclient\iochargecombodash.h
;	COMDAT ?SetCombo@ioChargeComboDash@@QAEX_N@Z
_TEXT	SEGMENT
_bSetCombo$ = 8						; size = 1
?SetCombo@ioChargeComboDash@@QAEX_N@Z PROC		; ioChargeComboDash::SetCombo, COMDAT
; _this$ = ecx

; 424  : 	void SetCombo( bool bSetCombo ){ m_bSetCombo = bSetCombo; }

  00000	55		 push	 ebp
  00001	8b ec		 mov	 ebp, esp
  00003	8a 45 08	 mov	 al, BYTE PTR _bSetCombo$[ebp]
  00006	88 41 55	 mov	 BYTE PTR [ecx+85], al
  00009	5d		 pop	 ebp
  0000a	c2 04 00	 ret	 4
?SetCombo@ioChargeComboDash@@QAEX_N@Z ENDP		; ioChargeComboDash::SetCombo
_TEXT	ENDS
PUBLIC	?SetCurrComboCnt@ioChargeComboDash@@QAEXH@Z	; ioChargeComboDash::SetCurrComboCnt
; Function compile flags: /Ogsp
;	COMDAT ?SetCurrComboCnt@ioChargeComboDash@@QAEXH@Z
_TEXT	SEGMENT
_iCurrComoboCnt$ = 8					; size = 4
?SetCurrComboCnt@ioChargeComboDash@@QAEXH@Z PROC	; ioChargeComboDash::SetCurrComboCnt, COMDAT
; _this$ = ecx

; 425  : 	void SetCurrComboCnt( int iCurrComoboCnt ){ m_iCurComboCnt = iCurrComoboCnt; }

  00000	55		 push	 ebp
  00001	8b ec		 mov	 ebp, esp
  00003	8b 45 08	 mov	 eax, DWORD PTR _iCurrComoboCnt$[ebp]
  00006	89 41 58	 mov	 DWORD PTR [ecx+88], eax
  00009	5d		 pop	 ebp
  0000a	c2 04 00	 ret	 4
?SetCurrComboCnt@ioChargeComboDash@@QAEXH@Z ENDP	; ioChargeComboDash::SetCurrComboCnt
_TEXT	ENDS
PUBLIC	?GetCurrComboCnt@ioChargeComboDash@@QAEHXZ	; ioChargeComboDash::GetCurrComboCnt
; Function compile flags: /Ogsp
;	COMDAT ?GetCurrComboCnt@ioChargeComboDash@@QAEHXZ
_TEXT	SEGMENT
?GetCurrComboCnt@ioChargeComboDash@@QAEHXZ PROC		; ioChargeComboDash::GetCurrComboCnt, COMDAT
; _this$ = ecx

; 426  : 	int GetCurrComboCnt(){ return m_iCurComboCnt; }

  00000	8b 41 58	 mov	 eax, DWORD PTR [ecx+88]
  00003	c3		 ret	 0
?GetCurrComboCnt@ioChargeComboDash@@QAEHXZ ENDP		; ioChargeComboDash::GetCurrComboCnt
_TEXT	ENDS
PUBLIC	??_R0?AVioExtendDash@@@8			; ioExtendDash `RTTI Type Descriptor'
PUBLIC	??_R0?AVioChargeComboDash@@@8			; ioChargeComboDash `RTTI Type Descriptor'
PUBLIC	?ToChargeComboDash@@YAPAVioChargeComboDash@@PAVioExtendDash@@@Z ; ToChargeComboDash
EXTRN	___RTDynamicCast:PROC
;	COMDAT ??_R0?AVioExtendDash@@@8
_DATA	SEGMENT
??_R0?AVioExtendDash@@@8 DD FLAT:??_7type_info@@6B@	; ioExtendDash `RTTI Type Descriptor'
	DD	00H
	DB	'.?AVioExtendDash@@', 00H
_DATA	ENDS
;	COMDAT ??_R0?AVioChargeComboDash@@@8
_DATA	SEGMENT
??_R0?AVioChargeComboDash@@@8 DD FLAT:??_7type_info@@6B@ ; ioChargeComboDash `RTTI Type Descriptor'
	DD	00H
	DB	'.?AVioChargeComboDash@@', 00H
; Function compile flags: /Ogsp
_DATA	ENDS
;	COMDAT ?ToChargeComboDash@@YAPAVioChargeComboDash@@PAVioExtendDash@@@Z
_TEXT	SEGMENT
_pDash$ = 8						; size = 4
?ToChargeComboDash@@YAPAVioChargeComboDash@@PAVioExtendDash@@@Z PROC ; ToChargeComboDash, COMDAT

; 793  : {

  00000	55		 push	 ebp
  00001	8b ec		 mov	 ebp, esp
  00003	56		 push	 esi

; 794  : 	if( !pDash || pDash->GetType() != DT_CHARGE_COMBO )

  00004	8b 75 08	 mov	 esi, DWORD PTR _pDash$[ebp]
  00007	85 f6		 test	 esi, esi
  00009	74 25		 je	 SHORT $LN1@ToChargeCo
  0000b	8b 06		 mov	 eax, DWORD PTR [esi]
  0000d	8b ce		 mov	 ecx, esi
  0000f	ff 50 04	 call	 DWORD PTR [eax+4]
  00012	83 f8 0d	 cmp	 eax, 13			; 0000000dH
  00015	75 19		 jne	 SHORT $LN1@ToChargeCo

; 796  : 
; 797  : 	return dynamic_cast< ioChargeComboDash* >( pDash );

  00017	6a 00		 push	 0
  00019	68 00 00 00 00	 push	 OFFSET ??_R0?AVioChargeComboDash@@@8
  0001e	68 00 00 00 00	 push	 OFFSET ??_R0?AVioExtendDash@@@8
  00023	6a 00		 push	 0
  00025	56		 push	 esi
  00026	e8 00 00 00 00	 call	 ___RTDynamicCast
  0002b	83 c4 14	 add	 esp, 20			; 00000014H
  0002e	eb 02		 jmp	 SHORT $LN3@ToChargeCo
$LN1@ToChargeCo:

; 795  : 		return NULL;

  00030	33 c0		 xor	 eax, eax
$LN3@ToChargeCo:
  00032	5e		 pop	 esi

; 798  : }

  00033	5d		 pop	 ebp
  00034	c3		 ret	 0
?ToChargeComboDash@@YAPAVioChargeComboDash@@PAVioExtendDash@@@Z ENDP ; ToChargeComboDash
_TEXT	ENDS
PUBLIC	?SetCurrComboCnt@ioChargeComboJump3@@QAEXH@Z	; ioChargeComboJump3::SetCurrComboCnt
; Function compile flags: /Ogsp
; File d:\lost saga for developer\youtube\tutorial\source\src\lsclient\iochargecombojump3.h
;	COMDAT ?SetCurrComboCnt@ioChargeComboJump3@@QAEXH@Z
_TEXT	SEGMENT
_iCurrCnt$ = 8						; size = 4
?SetCurrComboCnt@ioChargeComboJump3@@QAEXH@Z PROC	; ioChargeComboJump3::SetCurrComboCnt, COMDAT
; _this$ = ecx

; 317  : 	void SetCurrComboCnt( int iCurrCnt ){ m_iCurComboCnt = iCurrCnt; }

  00000	55		 push	 ebp
  00001	8b ec		 mov	 ebp, esp
  00003	8b 45 08	 mov	 eax, DWORD PTR _iCurrCnt$[ebp]
  00006	89 81 70 01 00
	00		 mov	 DWORD PTR [ecx+368], eax
  0000c	5d		 pop	 ebp
  0000d	c2 04 00	 ret	 4
?SetCurrComboCnt@ioChargeComboJump3@@QAEXH@Z ENDP	; ioChargeComboJump3::SetCurrComboCnt
_TEXT	ENDS
PUBLIC	?GetCurrComboCnt@ioChargeComboJump3@@QAEHXZ	; ioChargeComboJump3::GetCurrComboCnt
; Function compile flags: /Ogsp
;	COMDAT ?GetCurrComboCnt@ioChargeComboJump3@@QAEHXZ
_TEXT	SEGMENT
?GetCurrComboCnt@ioChargeComboJump3@@QAEHXZ PROC	; ioChargeComboJump3::GetCurrComboCnt, COMDAT
; _this$ = ecx

; 318  : 	int GetCurrComboCnt(){ return m_iCurComboCnt; }

  00000	8b 81 70 01 00
	00		 mov	 eax, DWORD PTR [ecx+368]
  00006	c3		 ret	 0
?GetCurrComboCnt@ioChargeComboJump3@@QAEHXZ ENDP	; ioChargeComboJump3::GetCurrComboCnt
_TEXT	ENDS
PUBLIC	??_R0?AVioExtendJump@@@8			; ioExtendJump `RTTI Type Descriptor'
PUBLIC	??_R0?AVioChargeComboJump3@@@8			; ioChargeComboJump3 `RTTI Type Descriptor'
PUBLIC	?ToChargeComboJump3@@YAPAVioChargeComboJump3@@PAVioExtendJump@@@Z ; ToChargeComboJump3
;	COMDAT ??_R0?AVioExtendJump@@@8
_DATA	SEGMENT
??_R0?AVioExtendJump@@@8 DD FLAT:??_7type_info@@6B@	; ioExtendJump `RTTI Type Descriptor'
	DD	00H
	DB	'.?AVioExtendJump@@', 00H
_DATA	ENDS
;	COMDAT ??_R0?AVioChargeComboJump3@@@8
_DATA	SEGMENT
??_R0?AVioChargeComboJump3@@@8 DD FLAT:??_7type_info@@6B@ ; ioChargeComboJump3 `RTTI Type Descriptor'
	DD	00H
	DB	'.?AVioChargeComboJump3@@', 00H
; Function compile flags: /Ogsp
_DATA	ENDS
;	COMDAT ?ToChargeComboJump3@@YAPAVioChargeComboJump3@@PAVioExtendJump@@@Z
_TEXT	SEGMENT
_pJump$ = 8						; size = 4
?ToChargeComboJump3@@YAPAVioChargeComboJump3@@PAVioExtendJump@@@Z PROC ; ToChargeComboJump3, COMDAT

; 604  : {

  00000	55		 push	 ebp
  00001	8b ec		 mov	 ebp, esp
  00003	56		 push	 esi

; 605  : 	if( !pJump || pJump->GetType() != JT_CHARGE_COMBO3 )

  00004	8b 75 08	 mov	 esi, DWORD PTR _pJump$[ebp]
  00007	85 f6		 test	 esi, esi
  00009	74 25		 je	 SHORT $LN1@ToChargeCo@2
  0000b	8b 06		 mov	 eax, DWORD PTR [esi]
  0000d	8b ce		 mov	 ecx, esi
  0000f	ff 50 08	 call	 DWORD PTR [eax+8]
  00012	83 f8 13	 cmp	 eax, 19			; 00000013H
  00015	75 19		 jne	 SHORT $LN1@ToChargeCo@2

; 607  : 
; 608  : 	return dynamic_cast< ioChargeComboJump3* >( pJump );

  00017	6a 00		 push	 0
  00019	68 00 00 00 00	 push	 OFFSET ??_R0?AVioChargeComboJump3@@@8
  0001e	68 00 00 00 00	 push	 OFFSET ??_R0?AVioExtendJump@@@8
  00023	6a 00		 push	 0
  00025	56		 push	 esi
  00026	e8 00 00 00 00	 call	 ___RTDynamicCast
  0002b	83 c4 14	 add	 esp, 20			; 00000014H
  0002e	eb 02		 jmp	 SHORT $LN3@ToChargeCo@2
$LN1@ToChargeCo@2:

; 606  : 		return NULL;

  00030	33 c0		 xor	 eax, eax
$LN3@ToChargeCo@2:
  00032	5e		 pop	 esi

; 609  : }

  00033	5d		 pop	 ebp
  00034	c3		 ret	 0
?ToChargeComboJump3@@YAPAVioChargeComboJump3@@PAVioExtendJump@@@Z ENDP ; ToChargeComboJump3
_TEXT	ENDS
PUBLIC	??_R0?AVioWeapon@@@8				; ioWeapon `RTTI Type Descriptor'
PUBLIC	??_R0?AVioZoneEffectWeapon@@@8			; ioZoneEffectWeapon `RTTI Type Descriptor'
PUBLIC	?ToZoneEffectWeapon@@YAPAVioZoneEffectWeapon@@PAVioWeapon@@@Z ; ToZoneEffectWeapon
;	COMDAT ??_R0?AVioWeapon@@@8
; File d:\lost saga for developer\youtube\tutorial\source\src\lsclient\iozoneeffectweapon.h
_DATA	SEGMENT
??_R0?AVioWeapon@@@8 DD FLAT:??_7type_info@@6B@		; ioWeapon `RTTI Type Descriptor'
	DD	00H
	DB	'.?AVioWeapon@@', 00H
_DATA	ENDS
;	COMDAT ??_R0?AVioZoneEffectWeapon@@@8
_DATA	SEGMENT
??_R0?AVioZoneEffectWeapon@@@8 DD FLAT:??_7type_info@@6B@ ; ioZoneEffectWeapon `RTTI Type Descriptor'
	DD	00H
	DB	'.?AVioZoneEffectWeapon@@', 00H
; Function compile flags: /Ogsp
_DATA	ENDS
;	COMDAT ?ToZoneEffectWeapon@@YAPAVioZoneEffectWeapon@@PAVioWeapon@@@Z
_TEXT	SEGMENT
_pWeapon$ = 8						; size = 4
?ToZoneEffectWeapon@@YAPAVioZoneEffectWeapon@@PAVioWeapon@@@Z PROC ; ToZoneEffectWeapon, COMDAT

; 217  : {

  00000	55		 push	 ebp
  00001	8b ec		 mov	 ebp, esp
  00003	56		 push	 esi

; 218  : 	if( !pWeapon || pWeapon->GetType() != ioWeapon::WT_ZONE_EFFECT )

  00004	8b 75 08	 mov	 esi, DWORD PTR _pWeapon$[ebp]
  00007	85 f6		 test	 esi, esi
  00009	74 28		 je	 SHORT $LN1@ToZoneEffe
  0000b	8b 06		 mov	 eax, DWORD PTR [esi]
  0000d	8b ce		 mov	 ecx, esi
  0000f	ff 90 10 01 00
	00		 call	 DWORD PTR [eax+272]
  00015	83 f8 08	 cmp	 eax, 8
  00018	75 19		 jne	 SHORT $LN1@ToZoneEffe

; 220  : 
; 221  : 	return dynamic_cast< ioZoneEffectWeapon* >( pWeapon );

  0001a	6a 00		 push	 0
  0001c	68 00 00 00 00	 push	 OFFSET ??_R0?AVioZoneEffectWeapon@@@8
  00021	68 00 00 00 00	 push	 OFFSET ??_R0?AVioWeapon@@@8
  00026	6a 00		 push	 0
  00028	56		 push	 esi
  00029	e8 00 00 00 00	 call	 ___RTDynamicCast
  0002e	83 c4 14	 add	 esp, 20			; 00000014H
  00031	eb 02		 jmp	 SHORT $LN3@ToZoneEffe
$LN1@ToZoneEffe:

; 219  : 		return NULL;

  00033	33 c0		 xor	 eax, eax
$LN3@ToZoneEffe:
  00035	5e		 pop	 esi

; 222  : }

  00036	5d		 pop	 ebp
  00037	c3		 ret	 0
?ToZoneEffectWeapon@@YAPAVioZoneEffectWeapon@@PAVioWeapon@@@Z ENDP ; ToZoneEffectWeapon
_TEXT	ENDS
PUBLIC	?_Adopt@_Iterator_base0@std@@QAEXPBX@Z		; std::_Iterator_base0::_Adopt
; Function compile flags: /Ogsp
; File c:\program files (x86)\microsoft visual studio 10.0\vc\include\xutility
;	COMDAT ?_Adopt@_Iterator_base0@std@@QAEXPBX@Z
_TEXT	SEGMENT
___formal$ = 8						; size = 4
?_Adopt@_Iterator_base0@std@@QAEXPBX@Z PROC		; std::_Iterator_base0::_Adopt, COMDAT
; _this$ = ecx

; 49   : 		}

  00000	c2 04 00	 ret	 4
?_Adopt@_Iterator_base0@std@@QAEXPBX@Z ENDP		; std::_Iterator_base0::_Adopt
_TEXT	ENDS
PUBLIC	?Init@ioJumperItem@@QAEXXZ			; ioJumperItem::Init
EXTRN	__imp_?VEC3_ZERO@ioMath@@2UD3DXVECTOR3@@A:BYTE
; Function compile flags: /Ogsp
; File d:\lost saga for developer\youtube\tutorial\source\src\lsclient\iojumperitem.cpp
;	COMDAT ?Init@ioJumperItem@@QAEXXZ
_TEXT	SEGMENT
?Init@ioJumperItem@@QAEXXZ PROC				; ioJumperItem::Init, COMDAT
; _this$ = ecx

; 61   : 	m_AttackState						= AS_NONE;
; 62   : 	m_eCurrCallerType					= CCSD_NONE;
; 63   : 
; 64   : 	m_dwAttackStartTime					= 0;
; 65   : 	m_iCurCombo							= 0;	
; 66   : 	m_iCurAirJump						= 0;
; 67   : 
; 68   : 	m_fCurrGrapAfterMove				= 0.0f;
; 69   : 	m_fAirJumpPowerRate					= 0.0f;	
; 70   : 	
; 71   : 	m_InPortalID						= -1;

  00000	83 89 58 1b 00
	00 ff		 or	 DWORD PTR [ecx+7000], -1

; 72   : 	m_OutPortalID						= -1;

  00007	83 89 5c 1b 00
	00 ff		 or	 DWORD PTR [ecx+7004], -1
  0000e	0f 57 c0	 xorps	 xmm0, xmm0
  00011	33 c0		 xor	 eax, eax
  00013	56		 push	 esi
  00014	57		 push	 edi
  00015	89 81 54 19 00
	00		 mov	 DWORD PTR [ecx+6484], eax
  0001b	89 81 9c 1b 00
	00		 mov	 DWORD PTR [ecx+7068], eax
  00021	89 81 58 19 00
	00		 mov	 DWORD PTR [ecx+6488], eax
  00027	89 81 5c 19 00
	00		 mov	 DWORD PTR [ecx+6492], eax
  0002d	89 81 58 0f 00
	00		 mov	 DWORD PTR [ecx+3928], eax
  00033	f3 0f 11 81 20
	1b 00 00	 movss	 DWORD PTR [ecx+6944], xmm0
  0003b	f3 0f 11 81 48
	0f 00 00	 movss	 DWORD PTR [ecx+3912], xmm0

; 73   : 	m_vTeleportPos						= ioMath::VEC3_ZERO;

  00043	8b 35 00 00 00
	00		 mov	 esi, DWORD PTR __imp_?VEC3_ZERO@ioMath@@2UD3DXVECTOR3@@A
  00049	8d b9 60 1b 00
	00		 lea	 edi, DWORD PTR [ecx+7008]
  0004f	a5		 movsd
  00050	a5		 movsd
  00051	a5		 movsd
  00052	5f		 pop	 edi

; 74   : 
; 75   : 	m_dwKeyReserveTime					= 0;

  00053	89 81 f8 0e 00
	00		 mov	 DWORD PTR [ecx+3832], eax

; 76   : 
; 77   : 	m_dwExtendAttackEndTime				= 0;

  00059	89 81 74 1a 00
	00		 mov	 DWORD PTR [ecx+6772], eax

; 78   : 	m_dwGrapperPreEndTime				= 0;

  0005f	89 81 90 1a 00
	00		 mov	 DWORD PTR [ecx+6800], eax

; 79   : 	m_dwCancelDashTeleportStartEndTime	= 0;

  00065	89 81 94 1b 00
	00		 mov	 DWORD PTR [ecx+7060], eax

; 80   : 	m_dwTeleportEndTime					= 0;

  0006b	89 81 f8 1b 00
	00		 mov	 DWORD PTR [ecx+7160], eax
  00071	5e		 pop	 esi

; 81   : }

  00072	c3		 ret	 0
?Init@ioJumperItem@@QAEXXZ ENDP				; ioJumperItem::Init
_TEXT	ENDS
PUBLIC	?GetSubType@ioJumperItem@@UBE?AW4WeaponSubType@ioWeaponItem@@XZ ; ioJumperItem::GetSubType
; Function compile flags: /Ogsp
;	COMDAT ?GetSubType@ioJumperItem@@UBE?AW4WeaponSubType@ioWeaponItem@@XZ
_TEXT	SEGMENT
?GetSubType@ioJumperItem@@UBE?AW4WeaponSubType@ioWeaponItem@@XZ PROC ; ioJumperItem::GetSubType, COMDAT
; _this$ = ecx

; 174  : 	return WST_JUMPER_ITEM;

  00000	6a 6c		 push	 108			; 0000006cH
  00002	58		 pop	 eax

; 175  : }

  00003	c3		 ret	 0
?GetSubType@ioJumperItem@@UBE?AW4WeaponSubType@ioWeaponItem@@XZ ENDP ; ioJumperItem::GetSubType
_TEXT	ENDS
PUBLIC	?DestroyMapEffect@ioJumperItem@@QAEXPAVioPlayStage@@PAVioBaseChar@@@Z ; ioJumperItem::DestroyMapEffect
EXTRN	?EndEffectGrace@ioMapEffect@@QAEXXZ:PROC	; ioMapEffect::EndEffectGrace
EXTRN	?FindMapEffect@ioPlayStage@@QAEPAVioMapEffect@@K@Z:PROC ; ioPlayStage::FindMapEffect
; Function compile flags: /Ogsp
;	COMDAT ?DestroyMapEffect@ioJumperItem@@QAEXPAVioPlayStage@@PAVioBaseChar@@@Z
_TEXT	SEGMENT
_pStage$ = 8						; size = 4
_pOwner$ = 12						; size = 4
?DestroyMapEffect@ioJumperItem@@QAEXPAVioPlayStage@@PAVioBaseChar@@@Z PROC ; ioJumperItem::DestroyMapEffect, COMDAT
; _this$ = ecx

; 191  : {

  00000	55		 push	 ebp
  00001	8b ec		 mov	 ebp, esp

; 192  : 	if( !pOwner )

  00003	83 7d 0c 00	 cmp	 DWORD PTR _pOwner$[ebp], 0
  00007	56		 push	 esi
  00008	8b f1		 mov	 esi, ecx
  0000a	74 52		 je	 SHORT $LN2@DestroyMap

; 193  : 		return;
; 194  : 
; 195  : 	if( !pStage )

  0000c	83 7d 08 00	 cmp	 DWORD PTR _pStage$[ebp], 0
  00010	74 4c		 je	 SHORT $LN2@DestroyMap

; 196  : 		return;
; 197  : 
; 198  : 	if( m_InPortalID != -1 )

  00012	8b 86 58 1b 00
	00		 mov	 eax, DWORD PTR [esi+7000]
  00018	83 f8 ff	 cmp	 eax, -1
  0001b	74 1b		 je	 SHORT $LN4@DestroyMap

; 199  : 	{
; 200  : 		ioMapEffect* pMapEffect = pStage->FindMapEffect( m_InPortalID );

  0001d	8b 4d 08	 mov	 ecx, DWORD PTR _pStage$[ebp]
  00020	50		 push	 eax
  00021	e8 00 00 00 00	 call	 ?FindMapEffect@ioPlayStage@@QAEPAVioMapEffect@@K@Z ; ioPlayStage::FindMapEffect

; 201  : 		if( pMapEffect )

  00026	85 c0		 test	 eax, eax
  00028	74 07		 je	 SHORT $LN3@DestroyMap

; 202  : 			pMapEffect->EndEffectGrace();

  0002a	8b c8		 mov	 ecx, eax
  0002c	e8 00 00 00 00	 call	 ?EndEffectGrace@ioMapEffect@@QAEXXZ ; ioMapEffect::EndEffectGrace
$LN3@DestroyMap:

; 203  : 
; 204  : 		m_InPortalID = -1;

  00031	83 8e 58 1b 00
	00 ff		 or	 DWORD PTR [esi+7000], -1
$LN4@DestroyMap:

; 205  : 	}
; 206  : 
; 207  : 	if( m_OutPortalID != -1 )

  00038	8b 86 5c 1b 00
	00		 mov	 eax, DWORD PTR [esi+7004]
  0003e	83 f8 ff	 cmp	 eax, -1
  00041	74 1b		 je	 SHORT $LN2@DestroyMap

; 208  : 	{
; 209  : 		ioMapEffect* pMapEffect = pStage->FindMapEffect( m_OutPortalID );

  00043	8b 4d 08	 mov	 ecx, DWORD PTR _pStage$[ebp]
  00046	50		 push	 eax
  00047	e8 00 00 00 00	 call	 ?FindMapEffect@ioPlayStage@@QAEPAVioMapEffect@@K@Z ; ioPlayStage::FindMapEffect

; 210  : 		if( pMapEffect )

  0004c	85 c0		 test	 eax, eax
  0004e	74 07		 je	 SHORT $LN1@DestroyMap

; 211  : 			pMapEffect->EndEffectGrace();

  00050	8b c8		 mov	 ecx, eax
  00052	e8 00 00 00 00	 call	 ?EndEffectGrace@ioMapEffect@@QAEXXZ ; ioMapEffect::EndEffectGrace
$LN1@DestroyMap:

; 212  : 
; 213  : 		m_OutPortalID = - 1;

  00057	83 8e 5c 1b 00
	00 ff		 or	 DWORD PTR [esi+7004], -1
$LN2@DestroyMap:
  0005e	5e		 pop	 esi

; 214  : 	}
; 215  : 
; 216  : }

  0005f	5d		 pop	 ebp
  00060	c2 08 00	 ret	 8
?DestroyMapEffect@ioJumperItem@@QAEXPAVioPlayStage@@PAVioBaseChar@@@Z ENDP ; ioJumperItem::DestroyMapEffect
_TEXT	ENDS
PUBLIC	?OnNormalAttack@ioJumperItem@@IAEXPAVioBaseChar@@@Z ; ioJumperItem::OnNormalAttack
EXTRN	?CheckNormalAttack@ioAttackableItem@@UAEXPAVioBaseChar@@@Z:PROC ; ioAttackableItem::CheckNormalAttack
; Function compile flags: /Ogsp
;	COMDAT ?OnNormalAttack@ioJumperItem@@IAEXPAVioBaseChar@@@Z
_TEXT	SEGMENT
_pOwner$ = 8						; size = 4
?OnNormalAttack@ioJumperItem@@IAEXPAVioBaseChar@@@Z PROC ; ioJumperItem::OnNormalAttack, COMDAT
; _this$ = ecx

; 265  : {

  00000	55		 push	 ebp
  00001	8b ec		 mov	 ebp, esp
  00003	56		 push	 esi
  00004	57		 push	 edi

; 266  : 	if( pOwner->IsNeedProcess() )

  00005	8b 7d 08	 mov	 edi, DWORD PTR _pOwner$[ebp]
  00008	8b 07		 mov	 eax, DWORD PTR [edi]
  0000a	8b f1		 mov	 esi, ecx
  0000c	8b cf		 mov	 ecx, edi
  0000e	ff 90 00 01 00
	00		 call	 DWORD PTR [eax+256]
  00014	84 c0		 test	 al, al
  00016	74 34		 je	 SHORT $LN1@OnNormalAt

; 267  : 	{
; 268  : 		CheckCancelReserveByConditionalSpecialDash( pOwner );

  00018	8b 06		 mov	 eax, DWORD PTR [esi]
  0001a	57		 push	 edi
  0001b	8b ce		 mov	 ecx, esi
  0001d	ff 90 54 02 00
	00		 call	 DWORD PTR [eax+596]

; 269  : 		if( ProcessCancelBySpeicalDash( pOwner ) )

  00023	8b 06		 mov	 eax, DWORD PTR [esi]
  00025	57		 push	 edi
  00026	8b ce		 mov	 ecx, esi
  00028	ff 90 4c 02 00
	00		 call	 DWORD PTR [eax+588]
  0002e	84 c0		 test	 al, al
  00030	75 22		 jne	 SHORT $LN4@OnNormalAt

; 270  : 			return;
; 271  : 
; 272  : 		CheckCancelReserve( pOwner );

  00032	8b 06		 mov	 eax, DWORD PTR [esi]
  00034	57		 push	 edi
  00035	8b ce		 mov	 ecx, esi
  00037	ff 90 40 02 00
	00		 call	 DWORD PTR [eax+576]

; 273  : 		if( ProcessCancel(pOwner) )

  0003d	8b 06		 mov	 eax, DWORD PTR [esi]
  0003f	57		 push	 edi
  00040	8b ce		 mov	 ecx, esi
  00042	ff 90 48 02 00
	00		 call	 DWORD PTR [eax+584]
  00048	84 c0		 test	 al, al
  0004a	75 08		 jne	 SHORT $LN4@OnNormalAt
$LN1@OnNormalAt:

; 274  : 			return;
; 275  : 	}
; 276  : 
; 277  : 	ioWeaponItem::CheckNormalAttack( pOwner );

  0004c	57		 push	 edi
  0004d	8b ce		 mov	 ecx, esi
  0004f	e8 00 00 00 00	 call	 ?CheckNormalAttack@ioAttackableItem@@UAEXPAVioBaseChar@@@Z ; ioAttackableItem::CheckNormalAttack
$LN4@OnNormalAt:
  00054	5f		 pop	 edi
  00055	5e		 pop	 esi

; 278  : }

  00056	5d		 pop	 ebp
  00057	c2 04 00	 ret	 4
?OnNormalAttack@ioJumperItem@@IAEXPAVioBaseChar@@@Z ENDP ; ioJumperItem::OnNormalAttack
_TEXT	ENDS
PUBLIC	__real@3f800000
PUBLIC	__$ArrayPad$
PUBLIC	?ChangeToAttackFire@ioJumperItem@@IAEXPAVioBaseChar@@@Z ; ioJumperItem::ChangeToAttackFire
EXTRN	??1SP2Packet@@UAE@XZ:PROC			; SP2Packet::~SP2Packet
EXTRN	?SendToAllPlayingUser@P2PNetwork@@YAXAAVSP2Packet@@PAVioBaseChar@@@Z:PROC ; P2PNetwork::SendToAllPlayingUser
EXTRN	??6SP2Packet@@QAEAAV0@H@Z:PROC			; SP2Packet::operator<<
EXTRN	??6SP2Packet@@QAEAAV0@ABUD3DXQUATERNION@@@Z:PROC ; SP2Packet::operator<<
EXTRN	??6SP2Packet@@QAEAAV0@E@Z:PROC			; SP2Packet::operator<<
EXTRN	?FillItemGaugePacketHeader@ioAttackableItem@@QAEXPAVioBaseChar@@AAVSP2Packet@@@Z:PROC ; ioAttackableItem::FillItemGaugePacketHeader
EXTRN	??0SP2Packet@@QAE@K@Z:PROC			; SP2Packet::SP2Packet
EXTRN	?ApplyNormalAttackResult@ioBaseChar@@QAEXH_N@Z:PROC ; ioBaseChar::ApplyNormalAttackResult
EXTRN	__imp_??4ioHashString@@QAEAAV0@ABV0@@Z:PROC
EXTRN	?SetNormalAttackByAttribute@ioBaseChar@@QAEKABUAttackAttribute@@_NMM@Z:PROC ; ioBaseChar::SetNormalAttackByAttribute
EXTRN	?GetAttribute@ioFormalAttackGrp@@QBEPBUAttackAttribute@@W4AttackType@@H@Z:PROC ; ioFormalAttackGrp::GetAttribute
EXTRN	?InitExtendAttackTagInfo@ioBaseChar@@QAEXXZ:PROC ; ioBaseChar::InitExtendAttackTagInfo
EXTRN	__imp_?GetLoopSec@ioFrameTimer@@QBEKXZ:PROC
EXTRN	__imp_?GetSingleton@ioFrameTimer@@SAAAV1@XZ:PROC
EXTRN	___security_cookie:DWORD
EXTRN	___CxxFrameHandler3:PROC
EXTRN	@__security_check_cookie@4:PROC
EXTRN	__chkstk:PROC
;	COMDAT __real@3f800000
; File d:\lost saga for developer\youtube\tutorial\source\src\lsclient\iobasechar.h
CONST	SEGMENT
__real@3f800000 DD 03f800000r			; 1
CONST	ENDS
;	COMDAT xdata$x
xdata$x	SEGMENT
__unwindtable$?ChangeToAttackFire@ioJumperItem@@IAEXPAVioBaseChar@@@Z DD 0ffffffffH
	DD	FLAT:__unwindfunclet$?ChangeToAttackFire@ioJumperItem@@IAEXPAVioBaseChar@@@Z$0
__ehfuncinfo$?ChangeToAttackFire@ioJumperItem@@IAEXPAVioBaseChar@@@Z DD 019930522H
	DD	01H
	DD	FLAT:__unwindtable$?ChangeToAttackFire@ioJumperItem@@IAEXPAVioBaseChar@@@Z
	DD	2 DUP(00H)
	DD	2 DUP(00H)
	DD	00H
	DD	01H
; Function compile flags: /Ogsp
; File d:\lost saga for developer\youtube\tutorial\source\src\lsclient\iojumperitem.cpp
xdata$x	ENDS
;	COMDAT ?ChangeToAttackFire@ioJumperItem@@IAEXPAVioBaseChar@@@Z
_TEXT	SEGMENT
_dwCurTime$ = -32812					; size = 4
_kPacket$550465 = -32808				; size = 32792
__$ArrayPad$ = -16					; size = 4
__$EHRec$ = -12						; size = 12
_pOwner$ = 8						; size = 4
?ChangeToAttackFire@ioJumperItem@@IAEXPAVioBaseChar@@@Z PROC ; ioJumperItem::ChangeToAttackFire, COMDAT
; _this$ = ecx

; 340  : {

  00000	55		 push	 ebp
  00001	8b ec		 mov	 ebp, esp
  00003	6a ff		 push	 -1
  00005	68 00 00 00 00	 push	 __ehhandler$?ChangeToAttackFire@ioJumperItem@@IAEXPAVioBaseChar@@@Z
  0000a	64 a1 00 00 00
	00		 mov	 eax, DWORD PTR fs:0
  00010	50		 push	 eax
  00011	b8 20 80 00 00	 mov	 eax, 32800		; 00008020H
  00016	e8 00 00 00 00	 call	 __chkstk
  0001b	a1 00 00 00 00	 mov	 eax, DWORD PTR ___security_cookie
  00020	33 c5		 xor	 eax, ebp
  00022	89 45 f0	 mov	 DWORD PTR __$ArrayPad$[ebp], eax
  00025	53		 push	 ebx
  00026	56		 push	 esi
  00027	57		 push	 edi
  00028	50		 push	 eax
  00029	8d 45 f4	 lea	 eax, DWORD PTR __$EHRec$[ebp]
  0002c	64 a3 00 00 00
	00		 mov	 DWORD PTR fs:0, eax
  00032	8b 7d 08	 mov	 edi, DWORD PTR _pOwner$[ebp]
  00035	8b f1		 mov	 esi, ecx

; 341  : 	if( !pOwner )

  00037	85 ff		 test	 edi, edi
  00039	0f 84 1c 01 00
	00		 je	 $LN1@ChangeToAt

; 342  : 		return;
; 343  : 
; 344  : 	DWORD dwCurTime = FRAMEGETTIME();

  0003f	ff 15 00 00 00
	00		 call	 DWORD PTR __imp_?GetSingleton@ioFrameTimer@@SAAAV1@XZ
  00045	8b c8		 mov	 ecx, eax
  00047	ff 15 00 00 00
	00		 call	 DWORD PTR __imp_?GetLoopSec@ioFrameTimer@@QBEKXZ

; 345  : 	pOwner->InitExtendAttackTagInfo();

  0004d	8b cf		 mov	 ecx, edi
  0004f	89 85 d4 7f ff
	ff		 mov	 DWORD PTR _dwCurTime$[ebp], eax
  00055	e8 00 00 00 00	 call	 ?InitExtendAttackTagInfo@ioBaseChar@@QAEXXZ ; ioBaseChar::InitExtendAttackTagInfo

; 346  : 	ClearCancelInfo();

  0005a	8b 06		 mov	 eax, DWORD PTR [esi]
  0005c	8b ce		 mov	 ecx, esi
  0005e	ff 90 3c 02 00
	00		 call	 DWORD PTR [eax+572]

; 347  : 
; 348  : 	const AttackAttribute *pAttribute = m_FormalAttack.GetAttribute( AT_NORMAL, m_iCurCombo );

  00064	ff b6 5c 19 00
	00		 push	 DWORD PTR [esi+6492]
  0006a	8d 8e 2c 06 00
	00		 lea	 ecx, DWORD PTR [esi+1580]
  00070	6a 00		 push	 0
  00072	e8 00 00 00 00	 call	 ?GetAttribute@ioFormalAttackGrp@@QBEPBUAttackAttribute@@W4AttackType@@H@Z ; ioFormalAttackGrp::GetAttribute
  00077	8b d8		 mov	 ebx, eax

; 349  : 	if( pAttribute )

  00079	85 db		 test	 ebx, ebx
  0007b	74 47		 je	 SHORT $LN2@ChangeToAt

; 350  : 	{
; 351  : 		pOwner->SetNormalAttackByAttribute( *pAttribute );

  0007d	f3 0f 10 05 00
	00 00 00	 movss	 xmm0, DWORD PTR __real@3f800000
  00085	51		 push	 ecx
  00086	51		 push	 ecx
  00087	f3 0f 11 44 24
	04		 movss	 DWORD PTR [esp+4], xmm0
  0008d	f3 0f 11 04 24	 movss	 DWORD PTR [esp], xmm0
  00092	6a 01		 push	 1
  00094	53		 push	 ebx
  00095	8b cf		 mov	 ecx, edi
  00097	e8 00 00 00 00	 call	 ?SetNormalAttackByAttribute@ioBaseChar@@QAEKABUAttackAttribute@@_NMM@Z ; ioBaseChar::SetNormalAttackByAttribute

; 352  : 
; 353  : 		m_szCurAni					= pAttribute->m_AttackAnimation;

  0009c	53		 push	 ebx
  0009d	8d 8e 10 0f 00
	00		 lea	 ecx, DWORD PTR [esi+3856]
  000a3	ff 15 00 00 00
	00		 call	 DWORD PTR __imp_??4ioHashString@@QAEAAV0@ABV0@@Z

; 354  : 		m_fCurAniRate				= pAttribute->m_fAttackAniRate;

  000a9	d9 43 10	 fld	 DWORD PTR [ebx+16]

; 355  : 		m_dwInputCancelCheckTime	= dwCurTime;

  000ac	8b 85 d4 7f ff
	ff		 mov	 eax, DWORD PTR _dwCurTime$[ebp]
  000b2	d9 9e 20 0f 00
	00		 fstp	 DWORD PTR [esi+3872]
  000b8	89 86 0c 0f 00
	00		 mov	 DWORD PTR [esi+3852], eax

; 356  : 		m_dwCancelCheckTime			= dwCurTime;

  000be	89 86 08 0f 00
	00		 mov	 DWORD PTR [esi+3848], eax
$LN2@ChangeToAt:

; 357  : 	}
; 358  : 
; 359  : 	pOwner->ApplyNormalAttackResult( m_iCurCombo );

  000c4	6a 00		 push	 0
  000c6	ff b6 5c 19 00
	00		 push	 DWORD PTR [esi+6492]
  000cc	8b cf		 mov	 ecx, edi
  000ce	e8 00 00 00 00	 call	 ?ApplyNormalAttackResult@ioBaseChar@@QAEXH_N@Z ; ioBaseChar::ApplyNormalAttackResult

; 360  : 	m_AttackState = AS_ATTACK_FIRE;

  000d3	6a 02		 push	 2
  000d5	5b		 pop	 ebx
  000d6	89 9e 54 19 00
	00		 mov	 DWORD PTR [esi+6484], ebx

; 361  : 
; 362  : 	if( pOwner->IsNeedSendNetwork() )

  000dc	8b 07		 mov	 eax, DWORD PTR [edi]
  000de	8b cf		 mov	 ecx, edi
  000e0	ff 90 04 01 00
	00		 call	 DWORD PTR [eax+260]
  000e6	84 c0		 test	 al, al
  000e8	74 71		 je	 SHORT $LN1@ChangeToAt

; 363  : 	{
; 364  : 		SP2Packet kPacket( CUPK_ITEM_GAUGE_OK );

  000ea	68 27 41 00 00	 push	 16679			; 00004127H
  000ef	8d 8d d8 7f ff
	ff		 lea	 ecx, DWORD PTR _kPacket$550465[ebp]
  000f5	e8 00 00 00 00	 call	 ??0SP2Packet@@QAE@K@Z	; SP2Packet::SP2Packet
  000fa	83 65 fc 00	 and	 DWORD PTR __$EHRec$[ebp+8], 0

; 365  : 		FillItemGaugePacketHeader( pOwner, kPacket );

  000fe	8d 85 d8 7f ff
	ff		 lea	 eax, DWORD PTR _kPacket$550465[ebp]
  00104	50		 push	 eax
  00105	57		 push	 edi
  00106	8b ce		 mov	 ecx, esi
  00108	e8 00 00 00 00	 call	 ?FillItemGaugePacketHeader@ioAttackableItem@@QAEXPAVioBaseChar@@AAVSP2Packet@@@Z ; ioAttackableItem::FillItemGaugePacketHeader

; 366  : 		kPacket << static_cast<byte>( AS_ATTACK_FIRE );

  0010d	53		 push	 ebx
  0010e	8d 8d d8 7f ff
	ff		 lea	 ecx, DWORD PTR _kPacket$550465[ebp]
  00114	e8 00 00 00 00	 call	 ??6SP2Packet@@QAEAAV0@E@Z ; SP2Packet::operator<<

; 367  : 		kPacket << pOwner->GetTargetRot();

  00119	81 c7 a4 06 00
	00		 add	 edi, 1700		; 000006a4H
  0011f	57		 push	 edi
  00120	8d 8d d8 7f ff
	ff		 lea	 ecx, DWORD PTR _kPacket$550465[ebp]
  00126	e8 00 00 00 00	 call	 ??6SP2Packet@@QAEAAV0@ABUD3DXQUATERNION@@@Z ; SP2Packet::operator<<

; 368  : 		kPacket << m_iCurCombo;

  0012b	ff b6 5c 19 00
	00		 push	 DWORD PTR [esi+6492]
  00131	8d 8d d8 7f ff
	ff		 lea	 ecx, DWORD PTR _kPacket$550465[ebp]
  00137	e8 00 00 00 00	 call	 ??6SP2Packet@@QAEAAV0@H@Z ; SP2Packet::operator<<

; 369  : 		P2PNetwork::SendToAllPlayingUser( kPacket );

  0013c	8d 85 d8 7f ff
	ff		 lea	 eax, DWORD PTR _kPacket$550465[ebp]
  00142	6a 00		 push	 0
  00144	50		 push	 eax
  00145	e8 00 00 00 00	 call	 ?SendToAllPlayingUser@P2PNetwork@@YAXAAVSP2Packet@@PAVioBaseChar@@@Z ; P2PNetwork::SendToAllPlayingUser

; 370  : 	}

  0014a	83 4d fc ff	 or	 DWORD PTR __$EHRec$[ebp+8], -1
  0014e	59		 pop	 ecx
  0014f	59		 pop	 ecx
  00150	8d 8d d8 7f ff
	ff		 lea	 ecx, DWORD PTR _kPacket$550465[ebp]
  00156	e8 00 00 00 00	 call	 ??1SP2Packet@@UAE@XZ	; SP2Packet::~SP2Packet
$LN1@ChangeToAt:

; 371  : }

  0015b	8b 4d f4	 mov	 ecx, DWORD PTR __$EHRec$[ebp]
  0015e	64 89 0d 00 00
	00 00		 mov	 DWORD PTR fs:0, ecx
  00165	59		 pop	 ecx
  00166	5f		 pop	 edi
  00167	5e		 pop	 esi
  00168	5b		 pop	 ebx
  00169	8b 4d f0	 mov	 ecx, DWORD PTR __$ArrayPad$[ebp]
  0016c	33 cd		 xor	 ecx, ebp
  0016e	e8 00 00 00 00	 call	 @__security_check_cookie@4
  00173	c9		 leave
  00174	c2 04 00	 ret	 4
_TEXT	ENDS
;	COMDAT text$x
text$x	SEGMENT
__unwindfunclet$?ChangeToAttackFire@ioJumperItem@@IAEXPAVioBaseChar@@@Z$0:
  00000	8d 8d d8 7f ff
	ff		 lea	 ecx, DWORD PTR _kPacket$550465[ebp]
  00006	e9 00 00 00 00	 jmp	 ??1SP2Packet@@UAE@XZ	; SP2Packet::~SP2Packet
__ehhandler$?ChangeToAttackFire@ioJumperItem@@IAEXPAVioBaseChar@@@Z:
  0000b	8b 54 24 08	 mov	 edx, DWORD PTR [esp+8]
  0000f	8d 42 0c	 lea	 eax, DWORD PTR [edx+12]
  00012	8b 8a d0 7f ff
	ff		 mov	 ecx, DWORD PTR [edx-32816]
  00018	33 c8		 xor	 ecx, eax
  0001a	e8 00 00 00 00	 call	 @__security_check_cookie@4
  0001f	8b 4a fc	 mov	 ecx, DWORD PTR [edx-4]
  00022	33 c8		 xor	 ecx, eax
  00024	e8 00 00 00 00	 call	 @__security_check_cookie@4
  00029	b8 00 00 00 00	 mov	 eax, OFFSET __ehfuncinfo$?ChangeToAttackFire@ioJumperItem@@IAEXPAVioBaseChar@@@Z
  0002e	e9 00 00 00 00	 jmp	 ___CxxFrameHandler3
text$x	ENDS
?ChangeToAttackFire@ioJumperItem@@IAEXPAVioBaseChar@@@Z ENDP ; ioJumperItem::ChangeToAttackFire
PUBLIC	?OnExtendAttackFire@ioJumperItem@@IAEXPAVioBaseChar@@@Z ; ioJumperItem::OnExtendAttackFire
EXTRN	?SetState@ioBaseChar@@QAEXH_N@Z:PROC		; ioBaseChar::SetState
EXTRN	?GetBottomHeight@ioGameEntity@@QBEMXZ:PROC	; ioGameEntity::GetBottomHeight
; Function compile flags: /Ogsp
;	COMDAT ?OnExtendAttackFire@ioJumperItem@@IAEXPAVioBaseChar@@@Z
_TEXT	SEGMENT
_fBottomHeight$550524 = 8				; size = 4
_pOwner$ = 8						; size = 4
?OnExtendAttackFire@ioJumperItem@@IAEXPAVioBaseChar@@@Z PROC ; ioJumperItem::OnExtendAttackFire, COMDAT
; _this$ = ecx

; 505  : {

  00000	55		 push	 ebp
  00001	8b ec		 mov	 ebp, esp
  00003	56		 push	 esi
  00004	8b f1		 mov	 esi, ecx

; 506  : 	DWORD dwCurTime = FRAMEGETTIME();

  00006	ff 15 00 00 00
	00		 call	 DWORD PTR __imp_?GetSingleton@ioFrameTimer@@SAAAV1@XZ
  0000c	8b c8		 mov	 ecx, eax
  0000e	ff 15 00 00 00
	00		 call	 DWORD PTR __imp_?GetLoopSec@ioFrameTimer@@QBEKXZ

; 507  : 	if( m_dwExtendAttackEndTime < dwCurTime )

  00014	39 86 74 1a 00
	00		 cmp	 DWORD PTR [esi+6772], eax
  0001a	73 48		 jae	 SHORT $LN6@OnExtendAt

; 508  : 	{
; 509  : 		float fBottomHeight = pOwner->GetBottomHeight();

  0001c	57		 push	 edi
  0001d	8b 7d 08	 mov	 edi, DWORD PTR _pOwner$[ebp]
  00020	8b cf		 mov	 ecx, edi
  00022	e8 00 00 00 00	 call	 ?GetBottomHeight@ioGameEntity@@QBEMXZ ; ioGameEntity::GetBottomHeight
  00027	d9 5d 08	 fstp	 DWORD PTR _fBottomHeight$550524[ebp]

; 510  : 		if( pOwner->GetWorldPosition().y - fBottomHeight < m_fCancelDashEndJumpJudgment )

  0002a	8b 07		 mov	 eax, DWORD PTR [edi]
  0002c	8b cf		 mov	 ecx, edi
  0002e	ff 50 70	 call	 DWORD PTR [eax+112]
  00031	d9 40 04	 fld	 DWORD PTR [eax+4]
  00034	d8 65 08	 fsub	 DWORD PTR _fBottomHeight$550524[ebp]
  00037	d9 86 00 1c 00
	00		 fld	 DWORD PTR [esi+7168]
  0003d	df f1		 fcomip	 ST(1)
  0003f	dd d8		 fstp	 ST(0)
  00041	76 14		 jbe	 SHORT $LN2@OnExtendAt

; 511  : 		{
; 512  : 			m_AttackState = AS_NONE;

  00043	83 a6 54 19 00
	00 00		 and	 DWORD PTR [esi+6484], 0

; 513  : 			pOwner->SetState( CS_DELAY );

  0004a	6a 01		 push	 1
  0004c	6a 00		 push	 0
  0004e	8b cf		 mov	 ecx, edi
  00050	e8 00 00 00 00	 call	 ?SetState@ioBaseChar@@QAEXH_N@Z ; ioBaseChar::SetState

; 514  : 		}
; 515  : 		else

  00055	eb 0c		 jmp	 SHORT $LN8@OnExtendAt
$LN2@OnExtendAt:

; 516  : 		{
; 517  : 			pOwner->SetSkillNextJumpAmt( m_fExtendAttackNextJumpAmt );

  00057	d9 86 78 1a 00
	00		 fld	 DWORD PTR [esi+6776]
  0005d	d9 9f 24 1d 00
	00		 fstp	 DWORD PTR [edi+7460]
$LN8@OnExtendAt:
  00063	5f		 pop	 edi
$LN6@OnExtendAt:
  00064	5e		 pop	 esi

; 518  : 		}
; 519  : 	}
; 520  : }

  00065	5d		 pop	 ebp
  00066	c2 04 00	 ret	 4
?OnExtendAttackFire@ioJumperItem@@IAEXPAVioBaseChar@@@Z ENDP ; ioJumperItem::OnExtendAttackFire
_TEXT	ENDS
PUBLIC	?ChangeToTeleportEnd@ioJumperItem@@IAEXPAVioBaseChar@@@Z ; ioJumperItem::ChangeToTeleportEnd
; Function compile flags: /Ogsp
;	COMDAT ?ChangeToTeleportEnd@ioJumperItem@@IAEXPAVioBaseChar@@@Z
_TEXT	SEGMENT
_fBottomHeight$ = 8					; size = 4
_pOwner$ = 8						; size = 4
?ChangeToTeleportEnd@ioJumperItem@@IAEXPAVioBaseChar@@@Z PROC ; ioJumperItem::ChangeToTeleportEnd, COMDAT
; _this$ = ecx

; 757  : {

  00000	55		 push	 ebp
  00001	8b ec		 mov	 ebp, esp
  00003	56		 push	 esi
  00004	57		 push	 edi

; 758  : 	m_AttackState = AS_TELEPORT_END;
; 759  : 
; 760  : 	DestroyMapEffect( pOwner->GetCreator(), pOwner );

  00005	8b 7d 08	 mov	 edi, DWORD PTR _pOwner$[ebp]
  00008	8b f1		 mov	 esi, ecx
  0000a	57		 push	 edi
  0000b	c7 86 54 19 00
	00 09 00 00 00	 mov	 DWORD PTR [esi+6484], 9
  00015	ff b7 44 03 00
	00		 push	 DWORD PTR [edi+836]
  0001b	e8 00 00 00 00	 call	 ?DestroyMapEffect@ioJumperItem@@QAEXPAVioPlayStage@@PAVioBaseChar@@@Z ; ioJumperItem::DestroyMapEffect

; 761  : 
; 762  : 	float fBottomHeight = pOwner->GetBottomHeight();

  00020	8b cf		 mov	 ecx, edi
  00022	e8 00 00 00 00	 call	 ?GetBottomHeight@ioGameEntity@@QBEMXZ ; ioGameEntity::GetBottomHeight
  00027	d9 5d 08	 fstp	 DWORD PTR _fBottomHeight$[ebp]

; 763  : 	if( pOwner->GetWorldPosition().y - fBottomHeight < m_fCancelDashEndJumpJudgment )

  0002a	8b 07		 mov	 eax, DWORD PTR [edi]
  0002c	8b cf		 mov	 ecx, edi
  0002e	ff 50 70	 call	 DWORD PTR [eax+112]
  00031	d9 40 04	 fld	 DWORD PTR [eax+4]
  00034	d8 65 08	 fsub	 DWORD PTR _fBottomHeight$[ebp]

; 764  : 	{
; 765  : 		Init();

  00037	8b ce		 mov	 ecx, esi
  00039	d9 86 00 1c 00
	00		 fld	 DWORD PTR [esi+7168]
  0003f	df f1		 fcomip	 ST(1)
  00041	dd d8		 fstp	 ST(0)
  00043	76 12		 jbe	 SHORT $LN2@ChangeToTe
  00045	e8 00 00 00 00	 call	 ?Init@ioJumperItem@@QAEXXZ ; ioJumperItem::Init

; 766  : 		pOwner->SetState( CS_DELAY );

  0004a	6a 01		 push	 1
  0004c	6a 00		 push	 0
  0004e	8b cf		 mov	 ecx, edi
  00050	e8 00 00 00 00	 call	 ?SetState@ioBaseChar@@QAEXH_N@Z ; ioBaseChar::SetState

; 767  : 	}
; 768  : 	else

  00055	eb 11		 jmp	 SHORT $LN7@ChangeToTe
$LN2@ChangeToTe:

; 769  : 	{
; 770  : 		Init();

  00057	e8 00 00 00 00	 call	 ?Init@ioJumperItem@@QAEXXZ ; ioJumperItem::Init

; 771  : 		pOwner->SetSkillNextJumpAmt( m_fTeleportAttackNextJumpAmt );

  0005c	d9 86 f4 1b 00
	00		 fld	 DWORD PTR [esi+7156]
  00062	d9 9f 24 1d 00
	00		 fstp	 DWORD PTR [edi+7460]
$LN7@ChangeToTe:
  00068	5f		 pop	 edi
  00069	5e		 pop	 esi

; 772  : 	}
; 773  : }

  0006a	5d		 pop	 ebp
  0006b	c2 04 00	 ret	 4
?ChangeToTeleportEnd@ioJumperItem@@IAEXPAVioBaseChar@@@Z ENDP ; ioJumperItem::ChangeToTeleportEnd
_TEXT	ENDS
PUBLIC	?CheckExtendDashState@ioJumperItem@@UAEXPAVioBaseChar@@@Z ; ioJumperItem::CheckExtendDashState
EXTRN	?CheckCancelReserveByConditionalSpecialDash@ioChargeComboDash@@QAEXPAVioBaseChar@@@Z:PROC ; ioChargeComboDash::CheckCancelReserveByConditionalSpecialDash
; Function compile flags: /Ogsp
;	COMDAT ?CheckExtendDashState@ioJumperItem@@UAEXPAVioBaseChar@@@Z
_TEXT	SEGMENT
_pOwner$ = 8						; size = 4
?CheckExtendDashState@ioJumperItem@@UAEXPAVioBaseChar@@@Z PROC ; ioJumperItem::CheckExtendDashState, COMDAT
; _this$ = ecx

; 779  : {

  00000	55		 push	 ebp
  00001	8b ec		 mov	 ebp, esp
  00003	56		 push	 esi
  00004	8b f1		 mov	 esi, ecx

; 780  : 	if( m_pExtendDash )

  00006	8b 86 c4 0b 00
	00		 mov	 eax, DWORD PTR [esi+3012]
  0000c	85 c0		 test	 eax, eax
  0000e	74 37		 je	 SHORT $LN2@CheckExten

; 781  : 	{
; 782  : 		ioChargeComboDash* pChargeDash = ToChargeComboDash( m_pExtendDash );

  00010	57		 push	 edi
  00011	50		 push	 eax
  00012	e8 00 00 00 00	 call	 ?ToChargeComboDash@@YAPAVioChargeComboDash@@PAVioExtendDash@@@Z ; ToChargeComboDash
  00017	8b f8		 mov	 edi, eax
  00019	59		 pop	 ecx

; 783  : 		if( pChargeDash && IsConditionalSpecialDashReserve( pOwner ) )

  0001a	85 ff		 test	 edi, edi
  0001c	74 1b		 je	 SHORT $LN1@CheckExten
  0001e	ff 75 08	 push	 DWORD PTR _pOwner$[ebp]
  00021	8b 06		 mov	 eax, DWORD PTR [esi]
  00023	8b ce		 mov	 ecx, esi
  00025	ff 90 58 02 00
	00		 call	 DWORD PTR [eax+600]
  0002b	84 c0		 test	 al, al
  0002d	74 0a		 je	 SHORT $LN1@CheckExten

; 784  : 		{
; 785  : 			pChargeDash->CheckCancelReserveByConditionalSpecialDash( pOwner );

  0002f	ff 75 08	 push	 DWORD PTR _pOwner$[ebp]
  00032	8b cf		 mov	 ecx, edi
  00034	e8 00 00 00 00	 call	 ?CheckCancelReserveByConditionalSpecialDash@ioChargeComboDash@@QAEXPAVioBaseChar@@@Z ; ioChargeComboDash::CheckCancelReserveByConditionalSpecialDash
$LN1@CheckExten:

; 786  : 		}
; 787  : 		m_pExtendDash->ProcessDash( pOwner );

  00039	8b 8e c4 0b 00
	00		 mov	 ecx, DWORD PTR [esi+3012]
  0003f	8b 01		 mov	 eax, DWORD PTR [ecx]
  00041	5f		 pop	 edi
  00042	5e		 pop	 esi

; 788  : 	}
; 789  : }

  00043	5d		 pop	 ebp

; 786  : 		}
; 787  : 		m_pExtendDash->ProcessDash( pOwner );

  00044	ff 60 10	 jmp	 DWORD PTR [eax+16]
$LN2@CheckExten:
  00047	5e		 pop	 esi

; 788  : 	}
; 789  : }

  00048	5d		 pop	 ebp
  00049	c2 04 00	 ret	 4
?CheckExtendDashState@ioJumperItem@@UAEXPAVioBaseChar@@@Z ENDP ; ioJumperItem::CheckExtendDashState
_TEXT	ENDS
PUBLIC	?ReserveAttackComoboCount@ioJumperItem@@QAEXPAVioBaseChar@@H@Z ; ioJumperItem::ReserveAttackComoboCount
; Function compile flags: /Ogsp
;	COMDAT ?ReserveAttackComoboCount@ioJumperItem@@QAEXPAVioBaseChar@@H@Z
_TEXT	SEGMENT
_pOwner$ = 8						; size = 4
_eCallerType$ = 12					; size = 4
?ReserveAttackComoboCount@ioJumperItem@@QAEXPAVioBaseChar@@H@Z PROC ; ioJumperItem::ReserveAttackComoboCount, COMDAT
; _this$ = ecx

; 856  : {

  00000	55		 push	 ebp
  00001	8b ec		 mov	 ebp, esp

; 857  : 	if( !pOwner )

  00003	83 7d 08 00	 cmp	 DWORD PTR _pOwner$[ebp], 0
  00007	56		 push	 esi
  00008	8b f1		 mov	 esi, ecx
  0000a	74 3d		 je	 SHORT $LN1@ReserveAtt

; 858  : 		return;
; 859  : 
; 860  : 	if( eCallerType == ioAttackableItem::CCSD_JUMP )

  0000c	83 7d 0c 04	 cmp	 DWORD PTR _eCallerType$[ebp], 4
  00010	75 18		 jne	 SHORT $LN5@ReserveAtt

; 861  : 	{
; 862  : 		ioChargeComboJump3* pJump = ToChargeComboJump3( m_pExtendJump );

  00012	ff b6 c8 0b 00
	00		 push	 DWORD PTR [esi+3016]
  00018	e8 00 00 00 00	 call	 ?ToChargeComboJump3@@YAPAVioChargeComboJump3@@PAVioExtendJump@@@Z ; ToChargeComboJump3
  0001d	59		 pop	 ecx

; 863  : 		if( pJump )

  0001e	85 c0		 test	 eax, eax
  00020	74 27		 je	 SHORT $LN1@ReserveAtt

; 864  : 		{
; 865  : 			m_iCurReserveCombo = pJump->GetCurrComboCnt();

  00022	8b 80 70 01 00
	00		 mov	 eax, DWORD PTR [eax+368]

; 866  : 		}
; 867  : 	}

  00028	eb 19		 jmp	 SHORT $LN13@ReserveAtt
$LN5@ReserveAtt:

; 868  : 	else if( eCallerType == ioAttackableItem::CCSD_DASH_ATTACK )

  0002a	83 7d 0c 03	 cmp	 DWORD PTR _eCallerType$[ebp], 3
  0002e	75 19		 jne	 SHORT $LN1@ReserveAtt

; 869  : 	{
; 870  : 		ioChargeComboDash* pDash = ToChargeComboDash( m_pExtendDash );

  00030	ff b6 c4 0b 00
	00		 push	 DWORD PTR [esi+3012]
  00036	e8 00 00 00 00	 call	 ?ToChargeComboDash@@YAPAVioChargeComboDash@@PAVioExtendDash@@@Z ; ToChargeComboDash
  0003b	59		 pop	 ecx

; 871  : 		if( pDash )

  0003c	85 c0		 test	 eax, eax
  0003e	74 09		 je	 SHORT $LN1@ReserveAtt

; 872  : 		{
; 873  : 			m_iCurReserveCombo = pDash->GetCurrComboCnt();

  00040	8b 40 58	 mov	 eax, DWORD PTR [eax+88]
$LN13@ReserveAtt:
  00043	89 86 60 19 00
	00		 mov	 DWORD PTR [esi+6496], eax
$LN1@ReserveAtt:
  00049	5e		 pop	 esi

; 874  : 		}
; 875  : 	}
; 876  : }

  0004a	5d		 pop	 ebp
  0004b	c2 08 00	 ret	 8
?ReserveAttackComoboCount@ioJumperItem@@QAEXPAVioBaseChar@@H@Z ENDP ; ioJumperItem::ReserveAttackComoboCount
_TEXT	ENDS
PUBLIC	__$ArrayPad$
PUBLIC	?ChangeToCancelTeleportAfterNormalAttack@ioJumperItem@@QAEXPAVioBaseChar@@W4DirKeyInput@ioUserKeyInput@@@Z ; ioJumperItem::ChangeToCancelTeleportAfterNormalAttack
EXTRN	??6SP2Packet@@QAEAAV0@ABUD3DXVECTOR3@@@Z:PROC	; SP2Packet::operator<<
EXTRN	?SetAttackMoveEnable@ioBaseChar@@QAEX_N@Z:PROC	; ioBaseChar::SetAttackMoveEnable
EXTRN	?SetTargetRotToDirKey@ioBaseChar@@QAEXW4DirKeyInput@ioUserKeyInput@@@Z:PROC ; ioBaseChar::SetTargetRotToDirKey
;	COMDAT xdata$x
; File d:\lost saga for developer\youtube\tutorial\source\src\lsclient\iobasechar.h
xdata$x	SEGMENT
__unwindtable$?ChangeToCancelTeleportAfterNormalAttack@ioJumperItem@@QAEXPAVioBaseChar@@W4DirKeyInput@ioUserKeyInput@@@Z DD 0ffffffffH
	DD	FLAT:__unwindfunclet$?ChangeToCancelTeleportAfterNormalAttack@ioJumperItem@@QAEXPAVioBaseChar@@W4DirKeyInput@ioUserKeyInput@@@Z$0
__ehfuncinfo$?ChangeToCancelTeleportAfterNormalAttack@ioJumperItem@@QAEXPAVioBaseChar@@W4DirKeyInput@ioUserKeyInput@@@Z DD 019930522H
	DD	01H
	DD	FLAT:__unwindtable$?ChangeToCancelTeleportAfterNormalAttack@ioJumperItem@@QAEXPAVioBaseChar@@W4DirKeyInput@ioUserKeyInput@@@Z
	DD	2 DUP(00H)
	DD	2 DUP(00H)
	DD	00H
	DD	01H
; Function compile flags: /Ogsp
; File d:\lost saga for developer\youtube\tutorial\source\src\lsclient\iojumperitem.cpp
xdata$x	ENDS
;	COMDAT ?ChangeToCancelTeleportAfterNormalAttack@ioJumperItem@@QAEXPAVioBaseChar@@W4DirKeyInput@ioUserKeyInput@@@Z
_TEXT	SEGMENT
_kPacket$550760 = -32808				; size = 32792
__$ArrayPad$ = -16					; size = 4
__$EHRec$ = -12						; size = 12
_pOwner$ = 8						; size = 4
_eCurrKey$ = 12						; size = 4
?ChangeToCancelTeleportAfterNormalAttack@ioJumperItem@@QAEXPAVioBaseChar@@W4DirKeyInput@ioUserKeyInput@@@Z PROC ; ioJumperItem::ChangeToCancelTeleportAfterNormalAttack, COMDAT
; _this$ = ecx

; 960  : {

  00000	55		 push	 ebp
  00001	8b ec		 mov	 ebp, esp
  00003	6a ff		 push	 -1
  00005	68 00 00 00 00	 push	 __ehhandler$?ChangeToCancelTeleportAfterNormalAttack@ioJumperItem@@QAEXPAVioBaseChar@@W4DirKeyInput@ioUserKeyInput@@@Z
  0000a	64 a1 00 00 00
	00		 mov	 eax, DWORD PTR fs:0
  00010	50		 push	 eax
  00011	b8 1c 80 00 00	 mov	 eax, 32796		; 0000801cH
  00016	e8 00 00 00 00	 call	 __chkstk
  0001b	a1 00 00 00 00	 mov	 eax, DWORD PTR ___security_cookie
  00020	33 c5		 xor	 eax, ebp
  00022	89 45 f0	 mov	 DWORD PTR __$ArrayPad$[ebp], eax
  00025	53		 push	 ebx
  00026	56		 push	 esi
  00027	57		 push	 edi
  00028	50		 push	 eax
  00029	8d 45 f4	 lea	 eax, DWORD PTR __$EHRec$[ebp]
  0002c	64 a3 00 00 00
	00		 mov	 DWORD PTR fs:0, eax
  00032	8b 75 08	 mov	 esi, DWORD PTR _pOwner$[ebp]

; 961  : 	if( eCurrKey != ioUserKeyInput::DKI_NONE )

  00035	33 db		 xor	 ebx, ebx
  00037	8b f9		 mov	 edi, ecx
  00039	39 5d 0c	 cmp	 DWORD PTR _eCurrKey$[ebp], ebx
  0003c	74 0a		 je	 SHORT $LN2@ChangeToCa

; 962  : 		pOwner->SetTargetRotToDirKey( eCurrKey );

  0003e	ff 75 0c	 push	 DWORD PTR _eCurrKey$[ebp]
  00041	8b ce		 mov	 ecx, esi
  00043	e8 00 00 00 00	 call	 ?SetTargetRotToDirKey@ioBaseChar@@QAEXW4DirKeyInput@ioUserKeyInput@@@Z ; ioBaseChar::SetTargetRotToDirKey
$LN2@ChangeToCa:

; 963  : 
; 964  : 	pOwner->SetState( CS_ATTACK );

  00048	6a 01		 push	 1
  0004a	6a 05		 push	 5
  0004c	8b ce		 mov	 ecx, esi
  0004e	e8 00 00 00 00	 call	 ?SetState@ioBaseChar@@QAEXH_N@Z ; ioBaseChar::SetState

; 965  : 	pOwner->SetChargingState( false );
; 966  : 	pOwner->SetAttackMoveEnable( false );

  00053	53		 push	 ebx
  00054	8b ce		 mov	 ecx, esi
  00056	88 9e 54 20 00
	00		 mov	 BYTE PTR [esi+8276], bl
  0005c	e8 00 00 00 00	 call	 ?SetAttackMoveEnable@ioBaseChar@@QAEX_N@Z ; ioBaseChar::SetAttackMoveEnable

; 967  : 
; 968  : 	ChangeToAttackFire( pOwner );

  00061	56		 push	 esi
  00062	8b cf		 mov	 ecx, edi
  00064	e8 00 00 00 00	 call	 ?ChangeToAttackFire@ioJumperItem@@IAEXPAVioBaseChar@@@Z ; ioJumperItem::ChangeToAttackFire

; 969  : 
; 970  : 	if( pOwner->IsNeedSendNetwork() )

  00069	8b 06		 mov	 eax, DWORD PTR [esi]
  0006b	8b ce		 mov	 ecx, esi
  0006d	ff 90 04 01 00
	00		 call	 DWORD PTR [eax+260]
  00073	84 c0		 test	 al, al
  00075	0f 84 a2 00 00
	00		 je	 $LN1@ChangeToCa

; 971  : 	{
; 972  : 		SP2Packet kPacket( CUPK_ITEM_GAUGE_OK );

  0007b	68 27 41 00 00	 push	 16679			; 00004127H
  00080	8d 8d d8 7f ff
	ff		 lea	 ecx, DWORD PTR _kPacket$550760[ebp]
  00086	e8 00 00 00 00	 call	 ??0SP2Packet@@QAE@K@Z	; SP2Packet::SP2Packet

; 973  : 		FillItemGaugePacketHeader( pOwner, kPacket );

  0008b	8d 85 d8 7f ff
	ff		 lea	 eax, DWORD PTR _kPacket$550760[ebp]
  00091	50		 push	 eax
  00092	56		 push	 esi
  00093	8b cf		 mov	 ecx, edi
  00095	89 5d fc	 mov	 DWORD PTR __$EHRec$[ebp+8], ebx
  00098	e8 00 00 00 00	 call	 ?FillItemGaugePacketHeader@ioAttackableItem@@QAEXPAVioBaseChar@@AAVSP2Packet@@@Z ; ioAttackableItem::FillItemGaugePacketHeader

; 974  : 		kPacket << static_cast<byte>( AS_CANCEL_TELEPORT );

  0009d	6a 07		 push	 7
  0009f	8d 8d d8 7f ff
	ff		 lea	 ecx, DWORD PTR _kPacket$550760[ebp]
  000a5	e8 00 00 00 00	 call	 ??6SP2Packet@@QAEAAV0@E@Z ; SP2Packet::operator<<

; 975  : 		kPacket << pOwner->GetTargetRot();

  000aa	8d 86 a4 06 00
	00		 lea	 eax, DWORD PTR [esi+1700]
  000b0	50		 push	 eax
  000b1	8d 8d d8 7f ff
	ff		 lea	 ecx, DWORD PTR _kPacket$550760[ebp]
  000b7	e8 00 00 00 00	 call	 ??6SP2Packet@@QAEAAV0@ABUD3DXQUATERNION@@@Z ; SP2Packet::operator<<

; 976  : 		kPacket << pOwner->GetWorldPosition();

  000bc	8b 06		 mov	 eax, DWORD PTR [esi]
  000be	8b ce		 mov	 ecx, esi
  000c0	ff 50 70	 call	 DWORD PTR [eax+112]
  000c3	50		 push	 eax
  000c4	8d 8d d8 7f ff
	ff		 lea	 ecx, DWORD PTR _kPacket$550760[ebp]
  000ca	e8 00 00 00 00	 call	 ??6SP2Packet@@QAEAAV0@ABUD3DXVECTOR3@@@Z ; SP2Packet::operator<<

; 977  : 		kPacket << m_eCurrCallerType;

  000cf	ff b7 9c 1b 00
	00		 push	 DWORD PTR [edi+7068]
  000d5	8d 8d d8 7f ff
	ff		 lea	 ecx, DWORD PTR _kPacket$550760[ebp]
  000db	e8 00 00 00 00	 call	 ??6SP2Packet@@QAEAAV0@H@Z ; SP2Packet::operator<<

; 978  : 		kPacket << (byte)eCurrKey;

  000e0	ff 75 0c	 push	 DWORD PTR _eCurrKey$[ebp]
  000e3	8d 8d d8 7f ff
	ff		 lea	 ecx, DWORD PTR _kPacket$550760[ebp]
  000e9	e8 00 00 00 00	 call	 ??6SP2Packet@@QAEAAV0@E@Z ; SP2Packet::operator<<

; 979  : 		kPacket << m_iCurCombo;

  000ee	ff b7 5c 19 00
	00		 push	 DWORD PTR [edi+6492]
  000f4	8d 8d d8 7f ff
	ff		 lea	 ecx, DWORD PTR _kPacket$550760[ebp]
  000fa	e8 00 00 00 00	 call	 ??6SP2Packet@@QAEAAV0@H@Z ; SP2Packet::operator<<

; 980  : 		P2PNetwork::SendToAllPlayingUser( kPacket );

  000ff	8d 85 d8 7f ff
	ff		 lea	 eax, DWORD PTR _kPacket$550760[ebp]
  00105	53		 push	 ebx
  00106	50		 push	 eax
  00107	e8 00 00 00 00	 call	 ?SendToAllPlayingUser@P2PNetwork@@YAXAAVSP2Packet@@PAVioBaseChar@@@Z ; P2PNetwork::SendToAllPlayingUser

; 981  : 	}

  0010c	83 4d fc ff	 or	 DWORD PTR __$EHRec$[ebp+8], -1
  00110	59		 pop	 ecx
  00111	59		 pop	 ecx
  00112	8d 8d d8 7f ff
	ff		 lea	 ecx, DWORD PTR _kPacket$550760[ebp]
  00118	e8 00 00 00 00	 call	 ??1SP2Packet@@UAE@XZ	; SP2Packet::~SP2Packet
$LN1@ChangeToCa:

; 982  : }

  0011d	8b 4d f4	 mov	 ecx, DWORD PTR __$EHRec$[ebp]
  00120	64 89 0d 00 00
	00 00		 mov	 DWORD PTR fs:0, ecx
  00127	59		 pop	 ecx
  00128	5f		 pop	 edi
  00129	5e		 pop	 esi
  0012a	5b		 pop	 ebx
  0012b	8b 4d f0	 mov	 ecx, DWORD PTR __$ArrayPad$[ebp]
  0012e	33 cd		 xor	 ecx, ebp
  00130	e8 00 00 00 00	 call	 @__security_check_cookie@4
  00135	c9		 leave
  00136	c2 08 00	 ret	 8
_TEXT	ENDS
;	COMDAT text$x
text$x	SEGMENT
__unwindfunclet$?ChangeToCancelTeleportAfterNormalAttack@ioJumperItem@@QAEXPAVioBaseChar@@W4DirKeyInput@ioUserKeyInput@@@Z$0:
  00000	8d 8d d8 7f ff
	ff		 lea	 ecx, DWORD PTR _kPacket$550760[ebp]
  00006	e9 00 00 00 00	 jmp	 ??1SP2Packet@@UAE@XZ	; SP2Packet::~SP2Packet
__ehhandler$?ChangeToCancelTeleportAfterNormalAttack@ioJumperItem@@QAEXPAVioBaseChar@@W4DirKeyInput@ioUserKeyInput@@@Z:
  0000b	8b 54 24 08	 mov	 edx, DWORD PTR [esp+8]
  0000f	8d 42 0c	 lea	 eax, DWORD PTR [edx+12]
  00012	8b 8a d4 7f ff
	ff		 mov	 ecx, DWORD PTR [edx-32812]
  00018	33 c8		 xor	 ecx, eax
  0001a	e8 00 00 00 00	 call	 @__security_check_cookie@4
  0001f	8b 4a fc	 mov	 ecx, DWORD PTR [edx-4]
  00022	33 c8		 xor	 ecx, eax
  00024	e8 00 00 00 00	 call	 @__security_check_cookie@4
  00029	b8 00 00 00 00	 mov	 eax, OFFSET __ehfuncinfo$?ChangeToCancelTeleportAfterNormalAttack@ioJumperItem@@QAEXPAVioBaseChar@@W4DirKeyInput@ioUserKeyInput@@@Z
  0002e	e9 00 00 00 00	 jmp	 ___CxxFrameHandler3
text$x	ENDS
?ChangeToCancelTeleportAfterNormalAttack@ioJumperItem@@QAEXPAVioBaseChar@@W4DirKeyInput@ioUserKeyInput@@@Z ENDP ; ioJumperItem::ChangeToCancelTeleportAfterNormalAttack
PUBLIC	__$ArrayPad$
PUBLIC	?ChangeToCancelTeleportAfterDashAttack@ioJumperItem@@QAEXPAVioBaseChar@@W4DirKeyInput@ioUserKeyInput@@@Z ; ioJumperItem::ChangeToCancelTeleportAfterDashAttack
EXTRN	?GetExtraDashAttackMax@ioBaseChar@@QBEHXZ:PROC	; ioBaseChar::GetExtraDashAttackMax
;	COMDAT xdata$x
; File d:\lost saga for developer\youtube\tutorial\source\src\lsclient\iobasechar.h
xdata$x	SEGMENT
__unwindtable$?ChangeToCancelTeleportAfterDashAttack@ioJumperItem@@QAEXPAVioBaseChar@@W4DirKeyInput@ioUserKeyInput@@@Z DD 0ffffffffH
	DD	FLAT:__unwindfunclet$?ChangeToCancelTeleportAfterDashAttack@ioJumperItem@@QAEXPAVioBaseChar@@W4DirKeyInput@ioUserKeyInput@@@Z$0
__ehfuncinfo$?ChangeToCancelTeleportAfterDashAttack@ioJumperItem@@QAEXPAVioBaseChar@@W4DirKeyInput@ioUserKeyInput@@@Z DD 019930522H
	DD	01H
	DD	FLAT:__unwindtable$?ChangeToCancelTeleportAfterDashAttack@ioJumperItem@@QAEXPAVioBaseChar@@W4DirKeyInput@ioUserKeyInput@@@Z
	DD	2 DUP(00H)
	DD	2 DUP(00H)
	DD	00H
	DD	01H
; Function compile flags: /Ogsp
; File d:\lost saga for developer\youtube\tutorial\source\src\lsclient\iojumperitem.cpp
xdata$x	ENDS
;	COMDAT ?ChangeToCancelTeleportAfterDashAttack@ioJumperItem@@QAEXPAVioBaseChar@@W4DirKeyInput@ioUserKeyInput@@@Z
_TEXT	SEGMENT
tv206 = -32812						; size = 4
_kPacket$550774 = -32808				; size = 32792
__$ArrayPad$ = -16					; size = 4
__$EHRec$ = -12						; size = 12
_pOwner$ = 8						; size = 4
_eCurrKey$ = 12						; size = 4
?ChangeToCancelTeleportAfterDashAttack@ioJumperItem@@QAEXPAVioBaseChar@@W4DirKeyInput@ioUserKeyInput@@@Z PROC ; ioJumperItem::ChangeToCancelTeleportAfterDashAttack, COMDAT
; _this$ = ecx

; 985  : {

  00000	55		 push	 ebp
  00001	8b ec		 mov	 ebp, esp
  00003	6a ff		 push	 -1
  00005	68 00 00 00 00	 push	 __ehhandler$?ChangeToCancelTeleportAfterDashAttack@ioJumperItem@@QAEXPAVioBaseChar@@W4DirKeyInput@ioUserKeyInput@@@Z
  0000a	64 a1 00 00 00
	00		 mov	 eax, DWORD PTR fs:0
  00010	50		 push	 eax
  00011	b8 20 80 00 00	 mov	 eax, 32800		; 00008020H
  00016	e8 00 00 00 00	 call	 __chkstk
  0001b	a1 00 00 00 00	 mov	 eax, DWORD PTR ___security_cookie
  00020	33 c5		 xor	 eax, ebp
  00022	89 45 f0	 mov	 DWORD PTR __$ArrayPad$[ebp], eax
  00025	53		 push	 ebx
  00026	56		 push	 esi
  00027	57		 push	 edi
  00028	50		 push	 eax
  00029	8d 45 f4	 lea	 eax, DWORD PTR __$EHRec$[ebp]
  0002c	64 a3 00 00 00
	00		 mov	 DWORD PTR fs:0, eax

; 986  : 	if( eCurrKey != ioUserKeyInput::DKI_NONE )

  00032	83 7d 0c 00	 cmp	 DWORD PTR _eCurrKey$[ebp], 0
  00036	8b 75 08	 mov	 esi, DWORD PTR _pOwner$[ebp]
  00039	8b f9		 mov	 edi, ecx
  0003b	74 0a		 je	 SHORT $LN5@ChangeToCa@2

; 987  : 		pOwner->SetTargetRotToDirKey( eCurrKey );

  0003d	ff 75 0c	 push	 DWORD PTR _eCurrKey$[ebp]
  00040	8b ce		 mov	 ecx, esi
  00042	e8 00 00 00 00	 call	 ?SetTargetRotToDirKey@ioBaseChar@@QAEXW4DirKeyInput@ioUserKeyInput@@@Z ; ioBaseChar::SetTargetRotToDirKey
$LN5@ChangeToCa@2:

; 988  : 
; 989  : 	pOwner->SetState( CS_ATTACK );

  00047	6a 01		 push	 1
  00049	6a 05		 push	 5
  0004b	8b ce		 mov	 ecx, esi
  0004d	e8 00 00 00 00	 call	 ?SetState@ioBaseChar@@QAEXH_N@Z ; ioBaseChar::SetState

; 990  : 	pOwner->SetChargingState( false );
; 991  : 	pOwner->SetAttackMoveEnable( false );

  00052	6a 00		 push	 0
  00054	8b ce		 mov	 ecx, esi
  00056	c6 86 54 20 00
	00 00		 mov	 BYTE PTR [esi+8276], 0
  0005d	e8 00 00 00 00	 call	 ?SetAttackMoveEnable@ioBaseChar@@QAEX_N@Z ; ioBaseChar::SetAttackMoveEnable

; 992  : 
; 993  : 	ioChargeComboDash* pDash = ToChargeComboDash( m_pExtendDash );

  00062	ff b7 c4 0b 00
	00		 push	 DWORD PTR [edi+3012]
  00068	e8 00 00 00 00	 call	 ?ToChargeComboDash@@YAPAVioChargeComboDash@@PAVioExtendDash@@@Z ; ToChargeComboDash
  0006d	8b d8		 mov	 ebx, eax
  0006f	59		 pop	 ecx

; 994  : 	if( pDash )

  00070	85 db		 test	 ebx, ebx
  00072	74 3d		 je	 SHORT $LN4@ChangeToCa@2

; 995  : 	{
; 996  : 		pDash->StartDash( pOwner );

  00074	8b 03		 mov	 eax, DWORD PTR [ebx]
  00076	56		 push	 esi
  00077	8b cb		 mov	 ecx, ebx
  00079	ff 50 0c	 call	 DWORD PTR [eax+12]

; 997  : 
; 998  : 		if( m_iCurReserveCombo < pOwner->GetExtraDashAttackMax() )

  0007c	8b 87 60 19 00
	00		 mov	 eax, DWORD PTR [edi+6496]
  00082	8b ce		 mov	 ecx, esi
  00084	89 85 d4 7f ff
	ff		 mov	 DWORD PTR tv206[ebp], eax
  0008a	e8 00 00 00 00	 call	 ?GetExtraDashAttackMax@ioBaseChar@@QBEHXZ ; ioBaseChar::GetExtraDashAttackMax
  0008f	8b 8d d4 7f ff
	ff		 mov	 ecx, DWORD PTR tv206[ebp]
  00095	3b c8		 cmp	 ecx, eax
  00097	7d 09		 jge	 SHORT $LN3@ChangeToCa@2

; 999  : 		{
; 1000 : 			pDash->SetCurrComboCnt( m_iCurReserveCombo );

  00099	89 4b 58	 mov	 DWORD PTR [ebx+88], ecx

; 1001 : 			pDash->SetCombo( true );

  0009c	c6 43 55 01	 mov	 BYTE PTR [ebx+85], 1

; 1002 : 		}
; 1003 : 		else

  000a0	eb 08		 jmp	 SHORT $LN17@ChangeToCa@2
$LN3@ChangeToCa@2:

; 1004 : 		{
; 1005 : 			pDash->SetCurrComboCnt( 0 );

  000a2	83 63 58 00	 and	 DWORD PTR [ebx+88], 0

; 1006 : 			pDash->SetCombo( false );

  000a6	c6 43 55 00	 mov	 BYTE PTR [ebx+85], 0
$LN17@ChangeToCa@2:

; 1007 : 		}
; 1008 : 		m_iCurReserveCombo = 0;

  000aa	83 a7 60 19 00
	00 00		 and	 DWORD PTR [edi+6496], 0
$LN4@ChangeToCa@2:

; 1009 : 	}
; 1010 : 
; 1011 : 	if( pOwner->IsNeedSendNetwork() )

  000b1	8b 06		 mov	 eax, DWORD PTR [esi]
  000b3	8b ce		 mov	 ecx, esi
  000b5	ff 90 04 01 00
	00		 call	 DWORD PTR [eax+260]
  000bb	84 c0		 test	 al, al
  000bd	0f 84 a4 00 00
	00		 je	 $LN1@ChangeToCa@2

; 1012 : 	{
; 1013 : 		SP2Packet kPacket( CUPK_ITEM_GAUGE_OK );

  000c3	68 27 41 00 00	 push	 16679			; 00004127H
  000c8	8d 8d d8 7f ff
	ff		 lea	 ecx, DWORD PTR _kPacket$550774[ebp]
  000ce	e8 00 00 00 00	 call	 ??0SP2Packet@@QAE@K@Z	; SP2Packet::SP2Packet
  000d3	83 65 fc 00	 and	 DWORD PTR __$EHRec$[ebp+8], 0

; 1014 : 		FillItemGaugePacketHeader( pOwner, kPacket );

  000d7	8d 85 d8 7f ff
	ff		 lea	 eax, DWORD PTR _kPacket$550774[ebp]
  000dd	50		 push	 eax
  000de	56		 push	 esi
  000df	8b cf		 mov	 ecx, edi
  000e1	e8 00 00 00 00	 call	 ?FillItemGaugePacketHeader@ioAttackableItem@@QAEXPAVioBaseChar@@AAVSP2Packet@@@Z ; ioAttackableItem::FillItemGaugePacketHeader

; 1015 : 		kPacket << static_cast<byte>( AS_CANCEL_TELEPORT );

  000e6	6a 07		 push	 7
  000e8	8d 8d d8 7f ff
	ff		 lea	 ecx, DWORD PTR _kPacket$550774[ebp]
  000ee	e8 00 00 00 00	 call	 ??6SP2Packet@@QAEAAV0@E@Z ; SP2Packet::operator<<

; 1016 : 		kPacket << pOwner->GetTargetRot();

  000f3	8d 86 a4 06 00
	00		 lea	 eax, DWORD PTR [esi+1700]
  000f9	50		 push	 eax
  000fa	8d 8d d8 7f ff
	ff		 lea	 ecx, DWORD PTR _kPacket$550774[ebp]
  00100	e8 00 00 00 00	 call	 ??6SP2Packet@@QAEAAV0@ABUD3DXQUATERNION@@@Z ; SP2Packet::operator<<

; 1017 : 		kPacket << pOwner->GetWorldPosition();

  00105	8b 06		 mov	 eax, DWORD PTR [esi]
  00107	8b ce		 mov	 ecx, esi
  00109	ff 50 70	 call	 DWORD PTR [eax+112]
  0010c	50		 push	 eax
  0010d	8d 8d d8 7f ff
	ff		 lea	 ecx, DWORD PTR _kPacket$550774[ebp]
  00113	e8 00 00 00 00	 call	 ??6SP2Packet@@QAEAAV0@ABUD3DXVECTOR3@@@Z ; SP2Packet::operator<<

; 1018 : 		kPacket << m_eCurrCallerType;

  00118	ff b7 9c 1b 00
	00		 push	 DWORD PTR [edi+7068]
  0011e	8d 8d d8 7f ff
	ff		 lea	 ecx, DWORD PTR _kPacket$550774[ebp]
  00124	e8 00 00 00 00	 call	 ??6SP2Packet@@QAEAAV0@H@Z ; SP2Packet::operator<<

; 1019 : 		kPacket << (byte)eCurrKey;

  00129	ff 75 0c	 push	 DWORD PTR _eCurrKey$[ebp]
  0012c	8d 8d d8 7f ff
	ff		 lea	 ecx, DWORD PTR _kPacket$550774[ebp]
  00132	e8 00 00 00 00	 call	 ??6SP2Packet@@QAEAAV0@E@Z ; SP2Packet::operator<<

; 1020 : 		kPacket << m_iCurReserveCombo;

  00137	ff b7 60 19 00
	00		 push	 DWORD PTR [edi+6496]
  0013d	8d 8d d8 7f ff
	ff		 lea	 ecx, DWORD PTR _kPacket$550774[ebp]
  00143	e8 00 00 00 00	 call	 ??6SP2Packet@@QAEAAV0@H@Z ; SP2Packet::operator<<

; 1021 : 		P2PNetwork::SendToAllPlayingUser( kPacket );

  00148	8d 85 d8 7f ff
	ff		 lea	 eax, DWORD PTR _kPacket$550774[ebp]
  0014e	6a 00		 push	 0
  00150	50		 push	 eax
  00151	e8 00 00 00 00	 call	 ?SendToAllPlayingUser@P2PNetwork@@YAXAAVSP2Packet@@PAVioBaseChar@@@Z ; P2PNetwork::SendToAllPlayingUser

; 1022 : 	}

  00156	83 4d fc ff	 or	 DWORD PTR __$EHRec$[ebp+8], -1
  0015a	59		 pop	 ecx
  0015b	59		 pop	 ecx
  0015c	8d 8d d8 7f ff
	ff		 lea	 ecx, DWORD PTR _kPacket$550774[ebp]
  00162	e8 00 00 00 00	 call	 ??1SP2Packet@@UAE@XZ	; SP2Packet::~SP2Packet
$LN1@ChangeToCa@2:

; 1023 : }

  00167	8b 4d f4	 mov	 ecx, DWORD PTR __$EHRec$[ebp]
  0016a	64 89 0d 00 00
	00 00		 mov	 DWORD PTR fs:0, ecx
  00171	59		 pop	 ecx
  00172	5f		 pop	 edi
  00173	5e		 pop	 esi
  00174	5b		 pop	 ebx
  00175	8b 4d f0	 mov	 ecx, DWORD PTR __$ArrayPad$[ebp]
  00178	33 cd		 xor	 ecx, ebp
  0017a	e8 00 00 00 00	 call	 @__security_check_cookie@4
  0017f	c9		 leave
  00180	c2 08 00	 ret	 8
_TEXT	ENDS
;	COMDAT text$x
text$x	SEGMENT
__unwindfunclet$?ChangeToCancelTeleportAfterDashAttack@ioJumperItem@@QAEXPAVioBaseChar@@W4DirKeyInput@ioUserKeyInput@@@Z$0:
  00000	8d 8d d8 7f ff
	ff		 lea	 ecx, DWORD PTR _kPacket$550774[ebp]
  00006	e9 00 00 00 00	 jmp	 ??1SP2Packet@@UAE@XZ	; SP2Packet::~SP2Packet
__ehhandler$?ChangeToCancelTeleportAfterDashAttack@ioJumperItem@@QAEXPAVioBaseChar@@W4DirKeyInput@ioUserKeyInput@@@Z:
  0000b	8b 54 24 08	 mov	 edx, DWORD PTR [esp+8]
  0000f	8d 42 0c	 lea	 eax, DWORD PTR [edx+12]
  00012	8b 8a d0 7f ff
	ff		 mov	 ecx, DWORD PTR [edx-32816]
  00018	33 c8		 xor	 ecx, eax
  0001a	e8 00 00 00 00	 call	 @__security_check_cookie@4
  0001f	8b 4a fc	 mov	 ecx, DWORD PTR [edx-4]
  00022	33 c8		 xor	 ecx, eax
  00024	e8 00 00 00 00	 call	 @__security_check_cookie@4
  00029	b8 00 00 00 00	 mov	 eax, OFFSET __ehfuncinfo$?ChangeToCancelTeleportAfterDashAttack@ioJumperItem@@QAEXPAVioBaseChar@@W4DirKeyInput@ioUserKeyInput@@@Z
  0002e	e9 00 00 00 00	 jmp	 ___CxxFrameHandler3
text$x	ENDS
?ChangeToCancelTeleportAfterDashAttack@ioJumperItem@@QAEXPAVioBaseChar@@W4DirKeyInput@ioUserKeyInput@@@Z ENDP ; ioJumperItem::ChangeToCancelTeleportAfterDashAttack
PUBLIC	__$ArrayPad$
PUBLIC	?ChangeToCancelTeleportAfterJumpAttack@ioJumperItem@@QAEXPAVioBaseChar@@W4DirKeyInput@ioUserKeyInput@@@Z ; ioJumperItem::ChangeToCancelTeleportAfterJumpAttack
EXTRN	?SetReserveJumpAttack@ioChargeComboJump3@@QAEXPAVioBaseChar@@@Z:PROC ; ioChargeComboJump3::SetReserveJumpAttack
EXTRN	?SetSKillEndJumpState@ioBaseChar@@QAEXM_N0000@Z:PROC ; ioBaseChar::SetSKillEndJumpState
;	COMDAT xdata$x
; File d:\lost saga for developer\youtube\tutorial\source\src\lsclient\iobasechar.h
xdata$x	SEGMENT
__unwindtable$?ChangeToCancelTeleportAfterJumpAttack@ioJumperItem@@QAEXPAVioBaseChar@@W4DirKeyInput@ioUserKeyInput@@@Z DD 0ffffffffH
	DD	FLAT:__unwindfunclet$?ChangeToCancelTeleportAfterJumpAttack@ioJumperItem@@QAEXPAVioBaseChar@@W4DirKeyInput@ioUserKeyInput@@@Z$0
__ehfuncinfo$?ChangeToCancelTeleportAfterJumpAttack@ioJumperItem@@QAEXPAVioBaseChar@@W4DirKeyInput@ioUserKeyInput@@@Z DD 019930522H
	DD	01H
	DD	FLAT:__unwindtable$?ChangeToCancelTeleportAfterJumpAttack@ioJumperItem@@QAEXPAVioBaseChar@@W4DirKeyInput@ioUserKeyInput@@@Z
	DD	2 DUP(00H)
	DD	2 DUP(00H)
	DD	00H
	DD	01H
; Function compile flags: /Ogsp
; File d:\lost saga for developer\youtube\tutorial\source\src\lsclient\iojumperitem.cpp
xdata$x	ENDS
;	COMDAT ?ChangeToCancelTeleportAfterJumpAttack@ioJumperItem@@QAEXPAVioBaseChar@@W4DirKeyInput@ioUserKeyInput@@@Z
_TEXT	SEGMENT
_kPacket$550788 = -32808				; size = 32792
__$ArrayPad$ = -16					; size = 4
__$EHRec$ = -12						; size = 12
_pOwner$ = 8						; size = 4
_eCurrKey$ = 12						; size = 4
?ChangeToCancelTeleportAfterJumpAttack@ioJumperItem@@QAEXPAVioBaseChar@@W4DirKeyInput@ioUserKeyInput@@@Z PROC ; ioJumperItem::ChangeToCancelTeleportAfterJumpAttack, COMDAT
; _this$ = ecx

; 1026 : {

  00000	55		 push	 ebp
  00001	8b ec		 mov	 ebp, esp
  00003	6a ff		 push	 -1
  00005	68 00 00 00 00	 push	 __ehhandler$?ChangeToCancelTeleportAfterJumpAttack@ioJumperItem@@QAEXPAVioBaseChar@@W4DirKeyInput@ioUserKeyInput@@@Z
  0000a	64 a1 00 00 00
	00		 mov	 eax, DWORD PTR fs:0
  00010	50		 push	 eax
  00011	b8 1c 80 00 00	 mov	 eax, 32796		; 0000801cH
  00016	e8 00 00 00 00	 call	 __chkstk
  0001b	a1 00 00 00 00	 mov	 eax, DWORD PTR ___security_cookie
  00020	33 c5		 xor	 eax, ebp
  00022	89 45 f0	 mov	 DWORD PTR __$ArrayPad$[ebp], eax
  00025	53		 push	 ebx
  00026	56		 push	 esi
  00027	57		 push	 edi
  00028	50		 push	 eax
  00029	8d 45 f4	 lea	 eax, DWORD PTR __$EHRec$[ebp]
  0002c	64 a3 00 00 00
	00		 mov	 DWORD PTR fs:0, eax
  00032	8b 7d 08	 mov	 edi, DWORD PTR _pOwner$[ebp]

; 1027 : 	if( !pOwner || !pOwner->IsNeedProcess() )

  00035	33 db		 xor	 ebx, ebx
  00037	8b f1		 mov	 esi, ecx
  00039	3b fb		 cmp	 edi, ebx
  0003b	0f 84 1c 01 00
	00		 je	 $LN4@ChangeToCa@3
  00041	8b 07		 mov	 eax, DWORD PTR [edi]
  00043	8b cf		 mov	 ecx, edi
  00045	ff 90 00 01 00
	00		 call	 DWORD PTR [eax+256]
  0004b	84 c0		 test	 al, al
  0004d	0f 84 0a 01 00
	00		 je	 $LN4@ChangeToCa@3

; 1028 : 		return;
; 1029 : 
; 1030 : 	if( eCurrKey != ioUserKeyInput::DKI_NONE )

  00053	39 5d 0c	 cmp	 DWORD PTR _eCurrKey$[ebp], ebx
  00056	74 0a		 je	 SHORT $LN3@ChangeToCa@3

; 1031 : 		pOwner->SetTargetRotToDirKey( eCurrKey );

  00058	ff 75 0c	 push	 DWORD PTR _eCurrKey$[ebp]
  0005b	8b cf		 mov	 ecx, edi
  0005d	e8 00 00 00 00	 call	 ?SetTargetRotToDirKey@ioBaseChar@@QAEXW4DirKeyInput@ioUserKeyInput@@@Z ; ioBaseChar::SetTargetRotToDirKey
$LN3@ChangeToCa@3:

; 1032 : 
; 1033 : 	// SetSKillEndJumpState()   	
; 1034 : 	pOwner->SetSKillEndJumpState( m_fCancelDashEndNextJumpAmt );

  00062	f3 0f 10 86 fc
	1b 00 00	 movss	 xmm0, DWORD PTR [esi+7164]
  0006a	53		 push	 ebx
  0006b	53		 push	 ebx
  0006c	6a 01		 push	 1
  0006e	53		 push	 ebx
  0006f	53		 push	 ebx
  00070	51		 push	 ecx
  00071	8b cf		 mov	 ecx, edi
  00073	f3 0f 11 04 24	 movss	 DWORD PTR [esp], xmm0
  00078	e8 00 00 00 00	 call	 ?SetSKillEndJumpState@ioBaseChar@@QAEXM_N0000@Z ; ioBaseChar::SetSKillEndJumpState

; 1035 : 
; 1036 : 	ioChargeComboJump3* pJump = ToChargeComboJump3( m_pExtendJump );

  0007d	ff b6 c8 0b 00
	00		 push	 DWORD PTR [esi+3016]
  00083	e8 00 00 00 00	 call	 ?ToChargeComboJump3@@YAPAVioChargeComboJump3@@PAVioExtendJump@@@Z ; ToChargeComboJump3
  00088	59		 pop	 ecx

; 1037 : 	if( pJump )

  00089	3b c3		 cmp	 eax, ebx
  0008b	74 1c		 je	 SHORT $LN2@ChangeToCa@3

; 1038 : 	{
; 1039 : 		pJump->SetCurrComboCnt( m_iCurReserveCombo );

  0008d	8b 96 60 19 00
	00		 mov	 edx, DWORD PTR [esi+6496]

; 1040 : 		pJump->SetReserveJumpAttack( pOwner );

  00093	57		 push	 edi
  00094	8b c8		 mov	 ecx, eax
  00096	89 90 70 01 00
	00		 mov	 DWORD PTR [eax+368], edx
  0009c	e8 00 00 00 00	 call	 ?SetReserveJumpAttack@ioChargeComboJump3@@QAEXPAVioBaseChar@@@Z ; ioChargeComboJump3::SetReserveJumpAttack

; 1041 : 		m_iCurReserveCombo = 0;

  000a1	21 9e 60 19 00
	00		 and	 DWORD PTR [esi+6496], ebx
  000a7	33 db		 xor	 ebx, ebx
$LN2@ChangeToCa@3:

; 1042 : 	}
; 1043 : 
; 1044 : 	if( pOwner->IsNeedSendNetwork() )

  000a9	8b 07		 mov	 eax, DWORD PTR [edi]
  000ab	8b cf		 mov	 ecx, edi
  000ad	ff 90 04 01 00
	00		 call	 DWORD PTR [eax+260]
  000b3	84 c0		 test	 al, al
  000b5	0f 84 a2 00 00
	00		 je	 $LN4@ChangeToCa@3

; 1045 : 	{
; 1046 : 		SP2Packet kPacket( CUPK_ITEM_GAUGE_OK );

  000bb	68 27 41 00 00	 push	 16679			; 00004127H
  000c0	8d 8d d8 7f ff
	ff		 lea	 ecx, DWORD PTR _kPacket$550788[ebp]
  000c6	e8 00 00 00 00	 call	 ??0SP2Packet@@QAE@K@Z	; SP2Packet::SP2Packet

; 1047 : 		FillItemGaugePacketHeader( pOwner, kPacket );

  000cb	8d 85 d8 7f ff
	ff		 lea	 eax, DWORD PTR _kPacket$550788[ebp]
  000d1	50		 push	 eax
  000d2	57		 push	 edi
  000d3	8b ce		 mov	 ecx, esi
  000d5	89 5d fc	 mov	 DWORD PTR __$EHRec$[ebp+8], ebx
  000d8	e8 00 00 00 00	 call	 ?FillItemGaugePacketHeader@ioAttackableItem@@QAEXPAVioBaseChar@@AAVSP2Packet@@@Z ; ioAttackableItem::FillItemGaugePacketHeader

; 1048 : 		kPacket << static_cast<byte>( AS_CANCEL_TELEPORT );

  000dd	6a 07		 push	 7
  000df	8d 8d d8 7f ff
	ff		 lea	 ecx, DWORD PTR _kPacket$550788[ebp]
  000e5	e8 00 00 00 00	 call	 ??6SP2Packet@@QAEAAV0@E@Z ; SP2Packet::operator<<

; 1049 : 		kPacket << pOwner->GetTargetRot();

  000ea	8d 87 a4 06 00
	00		 lea	 eax, DWORD PTR [edi+1700]
  000f0	50		 push	 eax
  000f1	8d 8d d8 7f ff
	ff		 lea	 ecx, DWORD PTR _kPacket$550788[ebp]
  000f7	e8 00 00 00 00	 call	 ??6SP2Packet@@QAEAAV0@ABUD3DXQUATERNION@@@Z ; SP2Packet::operator<<

; 1050 : 		kPacket << pOwner->GetWorldPosition();

  000fc	8b 07		 mov	 eax, DWORD PTR [edi]
  000fe	8b cf		 mov	 ecx, edi
  00100	ff 50 70	 call	 DWORD PTR [eax+112]
  00103	50		 push	 eax
  00104	8d 8d d8 7f ff
	ff		 lea	 ecx, DWORD PTR _kPacket$550788[ebp]
  0010a	e8 00 00 00 00	 call	 ??6SP2Packet@@QAEAAV0@ABUD3DXVECTOR3@@@Z ; SP2Packet::operator<<

; 1051 : 		kPacket << m_eCurrCallerType;

  0010f	ff b6 9c 1b 00
	00		 push	 DWORD PTR [esi+7068]
  00115	8d 8d d8 7f ff
	ff		 lea	 ecx, DWORD PTR _kPacket$550788[ebp]
  0011b	e8 00 00 00 00	 call	 ??6SP2Packet@@QAEAAV0@H@Z ; SP2Packet::operator<<

; 1052 : 		kPacket << (byte)eCurrKey;

  00120	ff 75 0c	 push	 DWORD PTR _eCurrKey$[ebp]
  00123	8d 8d d8 7f ff
	ff		 lea	 ecx, DWORD PTR _kPacket$550788[ebp]
  00129	e8 00 00 00 00	 call	 ??6SP2Packet@@QAEAAV0@E@Z ; SP2Packet::operator<<

; 1053 : 		kPacket << m_iCurReserveCombo;

  0012e	ff b6 60 19 00
	00		 push	 DWORD PTR [esi+6496]
  00134	8d 8d d8 7f ff
	ff		 lea	 ecx, DWORD PTR _kPacket$550788[ebp]
  0013a	e8 00 00 00 00	 call	 ??6SP2Packet@@QAEAAV0@H@Z ; SP2Packet::operator<<

; 1054 : 		P2PNetwork::SendToAllPlayingUser( kPacket );

  0013f	8d 85 d8 7f ff
	ff		 lea	 eax, DWORD PTR _kPacket$550788[ebp]
  00145	53		 push	 ebx
  00146	50		 push	 eax
  00147	e8 00 00 00 00	 call	 ?SendToAllPlayingUser@P2PNetwork@@YAXAAVSP2Packet@@PAVioBaseChar@@@Z ; P2PNetwork::SendToAllPlayingUser

; 1055 : 	}

  0014c	83 4d fc ff	 or	 DWORD PTR __$EHRec$[ebp+8], -1
  00150	59		 pop	 ecx
  00151	59		 pop	 ecx
  00152	8d 8d d8 7f ff
	ff		 lea	 ecx, DWORD PTR _kPacket$550788[ebp]
  00158	e8 00 00 00 00	 call	 ??1SP2Packet@@UAE@XZ	; SP2Packet::~SP2Packet
$LN4@ChangeToCa@3:

; 1056 : }

  0015d	8b 4d f4	 mov	 ecx, DWORD PTR __$EHRec$[ebp]
  00160	64 89 0d 00 00
	00 00		 mov	 DWORD PTR fs:0, ecx
  00167	59		 pop	 ecx
  00168	5f		 pop	 edi
  00169	5e		 pop	 esi
  0016a	5b		 pop	 ebx
  0016b	8b 4d f0	 mov	 ecx, DWORD PTR __$ArrayPad$[ebp]
  0016e	33 cd		 xor	 ecx, ebp
  00170	e8 00 00 00 00	 call	 @__security_check_cookie@4
  00175	c9		 leave
  00176	c2 08 00	 ret	 8
_TEXT	ENDS
;	COMDAT text$x
text$x	SEGMENT
__unwindfunclet$?ChangeToCancelTeleportAfterJumpAttack@ioJumperItem@@QAEXPAVioBaseChar@@W4DirKeyInput@ioUserKeyInput@@@Z$0:
  00000	8d 8d d8 7f ff
	ff		 lea	 ecx, DWORD PTR _kPacket$550788[ebp]
  00006	e9 00 00 00 00	 jmp	 ??1SP2Packet@@UAE@XZ	; SP2Packet::~SP2Packet
__ehhandler$?ChangeToCancelTeleportAfterJumpAttack@ioJumperItem@@QAEXPAVioBaseChar@@W4DirKeyInput@ioUserKeyInput@@@Z:
  0000b	8b 54 24 08	 mov	 edx, DWORD PTR [esp+8]
  0000f	8d 42 0c	 lea	 eax, DWORD PTR [edx+12]
  00012	8b 8a d4 7f ff
	ff		 mov	 ecx, DWORD PTR [edx-32812]
  00018	33 c8		 xor	 ecx, eax
  0001a	e8 00 00 00 00	 call	 @__security_check_cookie@4
  0001f	8b 4a fc	 mov	 ecx, DWORD PTR [edx-4]
  00022	33 c8		 xor	 ecx, eax
  00024	e8 00 00 00 00	 call	 @__security_check_cookie@4
  00029	b8 00 00 00 00	 mov	 eax, OFFSET __ehfuncinfo$?ChangeToCancelTeleportAfterJumpAttack@ioJumperItem@@QAEXPAVioBaseChar@@W4DirKeyInput@ioUserKeyInput@@@Z
  0002e	e9 00 00 00 00	 jmp	 ___CxxFrameHandler3
text$x	ENDS
?ChangeToCancelTeleportAfterJumpAttack@ioJumperItem@@QAEXPAVioBaseChar@@W4DirKeyInput@ioUserKeyInput@@@Z ENDP ; ioJumperItem::ChangeToCancelTeleportAfterJumpAttack
PUBLIC	?IsChargeAttackState@ioJumperItem@@UAE_NPAVioBaseChar@@@Z ; ioJumperItem::IsChargeAttackState
; Function compile flags: /Ogsp
;	COMDAT ?IsChargeAttackState@ioJumperItem@@UAE_NPAVioBaseChar@@@Z
_TEXT	SEGMENT
_pOwner$ = 8						; size = 4
?IsChargeAttackState@ioJumperItem@@UAE_NPAVioBaseChar@@@Z PROC ; ioJumperItem::IsChargeAttackState, COMDAT
; _this$ = ecx

; 1076 : {

  00000	55		 push	 ebp
  00001	8b ec		 mov	 ebp, esp

; 1077 : 	if( pOwner->GetState() == CS_ATTACK )

  00003	8b 45 08	 mov	 eax, DWORD PTR _pOwner$[ebp]
  00006	80 b8 10 03 00
	00 05		 cmp	 BYTE PTR [eax+784], 5
  0000d	0f 94 c0	 sete	 al

; 1078 : 	{
; 1079 : 		return true; 
; 1080 : 	}
; 1081 : 
; 1082 : 	return false;
; 1083 : }

  00010	5d		 pop	 ebp
  00011	c2 04 00	 ret	 4
?IsChargeAttackState@ioJumperItem@@UAE_NPAVioBaseChar@@@Z ENDP ; ioJumperItem::IsChargeAttackState
_TEXT	ENDS
PUBLIC	?IsEnableAttackDashCheck@ioJumperItem@@UAE_NPAVioBaseChar@@_N@Z ; ioJumperItem::IsEnableAttackDashCheck
; Function compile flags: /Ogsp
;	COMDAT ?IsEnableAttackDashCheck@ioJumperItem@@UAE_NPAVioBaseChar@@_N@Z
_TEXT	SEGMENT
_pOwner$ = 8						; size = 4
_bCheck$ = 12						; size = 1
?IsEnableAttackDashCheck@ioJumperItem@@UAE_NPAVioBaseChar@@_N@Z PROC ; ioJumperItem::IsEnableAttackDashCheck, COMDAT
; _this$ = ecx

; 1086 : {

  00000	55		 push	 ebp
  00001	8b ec		 mov	 ebp, esp

; 1087 : 	if( pOwner->GetState() == CS_ATTACK )

  00003	8b 45 08	 mov	 eax, DWORD PTR _pOwner$[ebp]
  00006	80 b8 10 03 00
	00 05		 cmp	 BYTE PTR [eax+784], 5
  0000d	75 12		 jne	 SHORT $LN3@IsEnableAt

; 1088 : 	{
; 1089 : 		switch( m_AttackState )

  0000f	8b 81 54 19 00
	00		 mov	 eax, DWORD PTR [ecx+6484]
  00015	48		 dec	 eax
  00016	48		 dec	 eax
  00017	75 08		 jne	 SHORT $LN3@IsEnableAt

; 1090 : 		{
; 1091 : 		case AS_ATTACK_FIRE:
; 1092 : 			if( !bCheck )

  00019	38 45 0c	 cmp	 BYTE PTR _bCheck$[ebp], al
  0001c	0f 95 c0	 setne	 al

; 1093 : 				return false;
; 1094 : 
; 1095 : 			return true;

  0001f	eb 02		 jmp	 SHORT $LN6@IsEnableAt
$LN3@IsEnableAt:

; 1096 : 		}
; 1097 : 	}
; 1098 : 	return false;

  00021	32 c0		 xor	 al, al
$LN6@IsEnableAt:

; 1099 : }

  00023	5d		 pop	 ebp
  00024	c2 08 00	 ret	 8
?IsEnableAttackDashCheck@ioJumperItem@@UAE_NPAVioBaseChar@@_N@Z ENDP ; ioJumperItem::IsEnableAttackDashCheck
_TEXT	ENDS
PUBLIC	??_7ioJumperSpecialSpState@@6B@			; ioJumperSpecialSpState::`vftable'
PUBLIC	??0ioJumperSpecialSpState@@QAE@XZ		; ioJumperSpecialSpState::ioJumperSpecialSpState
PUBLIC	??_R4ioJumperSpecialSpState@@6B@		; ioJumperSpecialSpState::`RTTI Complete Object Locator'
PUBLIC	??_R0?AVioJumperSpecialSpState@@@8		; ioJumperSpecialSpState `RTTI Type Descriptor'
PUBLIC	??_R3ioJumperSpecialSpState@@8			; ioJumperSpecialSpState::`RTTI Class Hierarchy Descriptor'
PUBLIC	??_R2ioJumperSpecialSpState@@8			; ioJumperSpecialSpState::`RTTI Base Class Array'
PUBLIC	??_R1A@?0A@EA@ioJumperSpecialSpState@@8		; ioJumperSpecialSpState::`RTTI Base Class Descriptor at (0,-1,0,64)'
PUBLIC	??_R1A@?0A@EA@ioSpecialStateBase@@8		; ioSpecialStateBase::`RTTI Base Class Descriptor at (0,-1,0,64)'
PUBLIC	??_R0?AVioSpecialStateBase@@@8			; ioSpecialStateBase `RTTI Type Descriptor'
PUBLIC	??_R3ioSpecialStateBase@@8			; ioSpecialStateBase::`RTTI Class Hierarchy Descriptor'
PUBLIC	??_R2ioSpecialStateBase@@8			; ioSpecialStateBase::`RTTI Base Class Array'
PUBLIC	?Initialize@ioJumperSpecialSpState@@UAEXPAVioBaseChar@@W4CharState@@@Z ; ioJumperSpecialSpState::Initialize
PUBLIC	?Finalize@ioJumperSpecialSpState@@UAEXPAVioBaseChar@@W4CharState@@1@Z ; ioJumperSpecialSpState::Finalize
PUBLIC	?LoadProperty@ioSpecialStateBase@@UAEXAAVioINILoader@@@Z ; ioSpecialStateBase::LoadProperty
PUBLIC	?GetStateName@ioJumperSpecialSpState@@UAEPBDXZ	; ioJumperSpecialSpState::GetStateName
PUBLIC	?GetState@ioJumperSpecialSpState@@UAE?BW4CharState@@XZ ; ioJumperSpecialSpState::GetState
PUBLIC	?GetAttackSpeedRate@ioSpecialStateBase@@UAEMPAVioBaseChar@@M@Z ; ioSpecialStateBase::GetAttackSpeedRate
PUBLIC	?CheckSpecialState@ioJumperSpecialSpState@@UAEXPAVioBaseChar@@@Z ; ioJumperSpecialSpState::CheckSpecialState
PUBLIC	?ProcessState@ioSpecialStateBase@@UAEXPAVioBaseChar@@@Z ; ioSpecialStateBase::ProcessState
PUBLIC	?ProcessMoveSpeed@ioSpecialStateBase@@UAEXPAVioBaseChar@@@Z ; ioSpecialStateBase::ProcessMoveSpeed
PUBLIC	?ProcessMove@ioJumperSpecialSpState@@UAE_NPAVioBaseChar@@MKK@Z ; ioJumperSpecialSpState::ProcessMove
PUBLIC	?ProcessKeyInput@ioJumperSpecialSpState@@UAEXPAVioBaseChar@@@Z ; ioJumperSpecialSpState::ProcessKeyInput
PUBLIC	?IsCanNoWound@ioSpecialStateBase@@UAE_NPAVioBaseChar@@@Z ; ioSpecialStateBase::IsCanNoWound
PUBLIC	?IsCollisionAvailableWeapon@ioSpecialStateBase@@UAE_NPAVioBaseChar@@PAVioWeapon@@@Z ; ioSpecialStateBase::IsCollisionAvailableWeapon
PUBLIC	?IsEntityCollisionSkipState@ioSpecialStateBase@@UBE_NQBVioBaseChar@@PAVioGameEntity@@@Z ; ioSpecialStateBase::IsEntityCollisionSkipState
PUBLIC	?IsSendControlInfoToUser@ioJumperSpecialSpState@@UAE_NPAVioBaseChar@@@Z ; ioJumperSpecialSpState::IsSendControlInfoToUser
PUBLIC	?IsIgnoreAttackOverDelay@ioSpecialStateBase@@UAE_NXZ ; ioSpecialStateBase::IsIgnoreAttackOverDelay
PUBLIC	?IsLandingEnable@ioSpecialStateBase@@UAE_NXZ	; ioSpecialStateBase::IsLandingEnable
PUBLIC	?IsFallStateCheck@ioSpecialStateBase@@UAE_NXZ	; ioSpecialStateBase::IsFallStateCheck
PUBLIC	?IsEnableBlowWounded@ioSpecialStateBase@@UAE_NPAVioBaseChar@@@Z ; ioSpecialStateBase::IsEnableBlowWounded
PUBLIC	?IsNoDropState@ioSpecialStateBase@@UAE_NPAVioBaseChar@@@Z ; ioSpecialStateBase::IsNoDropState
PUBLIC	?IsCanChangeJumppingState@ioSpecialStateBase@@UAE_NPAVioBaseChar@@@Z ; ioSpecialStateBase::IsCanChangeJumppingState
PUBLIC	?IsEnableDashState@ioSpecialStateBase@@UAE_NPAVioBaseChar@@@Z ; ioSpecialStateBase::IsEnableDashState
PUBLIC	?IsStateEnd@ioSpecialStateBase@@UAE_NPAVioBaseChar@@@Z ; ioSpecialStateBase::IsStateEnd
PUBLIC	?IsProcessFlyMove@ioSpecialStateBase@@UAE_NXZ	; ioSpecialStateBase::IsProcessFlyMove
PUBLIC	?IsFloatingState@ioSpecialStateBase@@UBE_NQBVioBaseChar@@@Z ; ioSpecialStateBase::IsFloatingState
PUBLIC	?IsInitializeSync@ioSpecialStateBase@@UAE_NXZ	; ioSpecialStateBase::IsInitializeSync
PUBLIC	?IsJoinSync@ioSpecialStateBase@@UAE_NXZ		; ioSpecialStateBase::IsJoinSync
PUBLIC	?CheckFallStateChange@ioJumperSpecialSpState@@UAEXPAVioBaseChar@@MM_NM@Z ; ioJumperSpecialSpState::CheckFallStateChange
EXTRN	??0ioSpecialStateBase@@QAE@XZ:PROC		; ioSpecialStateBase::ioSpecialStateBase
EXTRN	?IsCharCollisionSkipState@ioSpecialStateBase@@UBE_NQBVioBaseChar@@KKK_N1W4TeamType@@2@Z:PROC ; ioSpecialStateBase::IsCharCollisionSkipState
EXTRN	?GetGravity@ioSpecialStateBase@@UAEXPAVioBaseChar@@AAM@Z:PROC ; ioSpecialStateBase::GetGravity
EXTRN	?FillJoinSync@ioSpecialStateBase@@UAEXAAVSP2Packet@@PAVioBaseChar@@@Z:PROC ; ioSpecialStateBase::FillJoinSync
EXTRN	?ApplyJoinSync@ioSpecialStateBase@@UAEXAAVSP2Packet@@PAVioBaseChar@@@Z:PROC ; ioSpecialStateBase::ApplyJoinSync
EXTRN	?ApplyStateSync@ioSpecialStateBase@@UAEXAAVSP2Packet@@PAVioBaseChar@@@Z:PROC ; ioSpecialStateBase::ApplyStateSync
EXTRN	??_EioJumperSpecialSpState@@UAEPAXI@Z:PROC	; ioJumperSpecialSpState::`vector deleting destructor'
;	COMDAT ??_R2ioSpecialStateBase@@8
rdata$r	SEGMENT
??_R2ioSpecialStateBase@@8 DD FLAT:??_R1A@?0A@EA@ioSpecialStateBase@@8 ; ioSpecialStateBase::`RTTI Base Class Array'
rdata$r	ENDS
;	COMDAT ??_R3ioSpecialStateBase@@8
rdata$r	SEGMENT
??_R3ioSpecialStateBase@@8 DD 00H			; ioSpecialStateBase::`RTTI Class Hierarchy Descriptor'
	DD	00H
	DD	01H
	DD	FLAT:??_R2ioSpecialStateBase@@8
rdata$r	ENDS
;	COMDAT ??_R0?AVioSpecialStateBase@@@8
_DATA	SEGMENT
??_R0?AVioSpecialStateBase@@@8 DD FLAT:??_7type_info@@6B@ ; ioSpecialStateBase `RTTI Type Descriptor'
	DD	00H
	DB	'.?AVioSpecialStateBase@@', 00H
_DATA	ENDS
;	COMDAT ??_R1A@?0A@EA@ioSpecialStateBase@@8
rdata$r	SEGMENT
??_R1A@?0A@EA@ioSpecialStateBase@@8 DD FLAT:??_R0?AVioSpecialStateBase@@@8 ; ioSpecialStateBase::`RTTI Base Class Descriptor at (0,-1,0,64)'
	DD	00H
	DD	00H
	DD	0ffffffffH
	DD	00H
	DD	040H
	DD	FLAT:??_R3ioSpecialStateBase@@8
rdata$r	ENDS
;	COMDAT ??_R1A@?0A@EA@ioJumperSpecialSpState@@8
rdata$r	SEGMENT
??_R1A@?0A@EA@ioJumperSpecialSpState@@8 DD FLAT:??_R0?AVioJumperSpecialSpState@@@8 ; ioJumperSpecialSpState::`RTTI Base Class Descriptor at (0,-1,0,64)'
	DD	01H
	DD	00H
	DD	0ffffffffH
	DD	00H
	DD	040H
	DD	FLAT:??_R3ioJumperSpecialSpState@@8
rdata$r	ENDS
;	COMDAT ??_R2ioJumperSpecialSpState@@8
rdata$r	SEGMENT
??_R2ioJumperSpecialSpState@@8 DD FLAT:??_R1A@?0A@EA@ioJumperSpecialSpState@@8 ; ioJumperSpecialSpState::`RTTI Base Class Array'
	DD	FLAT:??_R1A@?0A@EA@ioSpecialStateBase@@8
rdata$r	ENDS
;	COMDAT ??_R3ioJumperSpecialSpState@@8
rdata$r	SEGMENT
??_R3ioJumperSpecialSpState@@8 DD 00H			; ioJumperSpecialSpState::`RTTI Class Hierarchy Descriptor'
	DD	00H
	DD	02H
	DD	FLAT:??_R2ioJumperSpecialSpState@@8
rdata$r	ENDS
;	COMDAT ??_R0?AVioJumperSpecialSpState@@@8
_DATA	SEGMENT
??_R0?AVioJumperSpecialSpState@@@8 DD FLAT:??_7type_info@@6B@ ; ioJumperSpecialSpState `RTTI Type Descriptor'
	DD	00H
	DB	'.?AVioJumperSpecialSpState@@', 00H
_DATA	ENDS
;	COMDAT ??_R4ioJumperSpecialSpState@@6B@
rdata$r	SEGMENT
??_R4ioJumperSpecialSpState@@6B@ DD 00H			; ioJumperSpecialSpState::`RTTI Complete Object Locator'
	DD	00H
	DD	00H
	DD	FLAT:??_R0?AVioJumperSpecialSpState@@@8
	DD	FLAT:??_R3ioJumperSpecialSpState@@8
rdata$r	ENDS
;	COMDAT ??_7ioJumperSpecialSpState@@6B@
CONST	SEGMENT
??_7ioJumperSpecialSpState@@6B@ DD FLAT:??_R4ioJumperSpecialSpState@@6B@ ; ioJumperSpecialSpState::`vftable'
	DD	FLAT:?Initialize@ioJumperSpecialSpState@@UAEXPAVioBaseChar@@W4CharState@@@Z
	DD	FLAT:?Finalize@ioJumperSpecialSpState@@UAEXPAVioBaseChar@@W4CharState@@1@Z
	DD	FLAT:?LoadProperty@ioSpecialStateBase@@UAEXAAVioINILoader@@@Z
	DD	FLAT:?GetStateName@ioJumperSpecialSpState@@UAEPBDXZ
	DD	FLAT:?GetState@ioJumperSpecialSpState@@UAE?BW4CharState@@XZ
	DD	FLAT:?GetAttackSpeedRate@ioSpecialStateBase@@UAEMPAVioBaseChar@@M@Z
	DD	FLAT:?CheckSpecialState@ioJumperSpecialSpState@@UAEXPAVioBaseChar@@@Z
	DD	FLAT:?ProcessState@ioSpecialStateBase@@UAEXPAVioBaseChar@@@Z
	DD	FLAT:?ProcessMoveSpeed@ioSpecialStateBase@@UAEXPAVioBaseChar@@@Z
	DD	FLAT:?ProcessMove@ioJumperSpecialSpState@@UAE_NPAVioBaseChar@@MKK@Z
	DD	FLAT:?ProcessKeyInput@ioJumperSpecialSpState@@UAEXPAVioBaseChar@@@Z
	DD	FLAT:?IsCanNoWound@ioSpecialStateBase@@UAE_NPAVioBaseChar@@@Z
	DD	FLAT:?IsCollisionAvailableWeapon@ioSpecialStateBase@@UAE_NPAVioBaseChar@@PAVioWeapon@@@Z
	DD	FLAT:?IsEntityCollisionSkipState@ioSpecialStateBase@@UBE_NQBVioBaseChar@@PAVioGameEntity@@@Z
	DD	FLAT:?IsCharCollisionSkipState@ioSpecialStateBase@@UBE_NQBVioBaseChar@@KKK_N1W4TeamType@@2@Z
	DD	FLAT:?IsSendControlInfoToUser@ioJumperSpecialSpState@@UAE_NPAVioBaseChar@@@Z
	DD	FLAT:?IsIgnoreAttackOverDelay@ioSpecialStateBase@@UAE_NXZ
	DD	FLAT:?IsLandingEnable@ioSpecialStateBase@@UAE_NXZ
	DD	FLAT:?IsFallStateCheck@ioSpecialStateBase@@UAE_NXZ
	DD	FLAT:?IsEnableBlowWounded@ioSpecialStateBase@@UAE_NPAVioBaseChar@@@Z
	DD	FLAT:?IsNoDropState@ioSpecialStateBase@@UAE_NPAVioBaseChar@@@Z
	DD	FLAT:?GetGravity@ioSpecialStateBase@@UAEXPAVioBaseChar@@AAM@Z
	DD	FLAT:?IsCanChangeJumppingState@ioSpecialStateBase@@UAE_NPAVioBaseChar@@@Z
	DD	FLAT:?IsEnableDashState@ioSpecialStateBase@@UAE_NPAVioBaseChar@@@Z
	DD	FLAT:?IsStateEnd@ioSpecialStateBase@@UAE_NPAVioBaseChar@@@Z
	DD	FLAT:?IsProcessFlyMove@ioSpecialStateBase@@UAE_NXZ
	DD	FLAT:?IsFloatingState@ioSpecialStateBase@@UBE_NQBVioBaseChar@@@Z
	DD	FLAT:?IsInitializeSync@ioSpecialStateBase@@UAE_NXZ
	DD	FLAT:?IsJoinSync@ioSpecialStateBase@@UAE_NXZ
	DD	FLAT:?FillJoinSync@ioSpecialStateBase@@UAEXAAVSP2Packet@@PAVioBaseChar@@@Z
	DD	FLAT:?ApplyJoinSync@ioSpecialStateBase@@UAEXAAVSP2Packet@@PAVioBaseChar@@@Z
	DD	FLAT:?ApplyStateSync@ioSpecialStateBase@@UAEXAAVSP2Packet@@PAVioBaseChar@@@Z
	DD	FLAT:?CheckFallStateChange@ioJumperSpecialSpState@@UAEXPAVioBaseChar@@MM_NM@Z
	DD	FLAT:??_EioJumperSpecialSpState@@UAEPAXI@Z
; Function compile flags: /Ogsp
CONST	ENDS
;	COMDAT ??0ioJumperSpecialSpState@@QAE@XZ
_TEXT	SEGMENT
??0ioJumperSpecialSpState@@QAE@XZ PROC			; ioJumperSpecialSpState::ioJumperSpecialSpState, COMDAT
; _this$ = ecx

; 1285 : {

  00000	56		 push	 esi
  00001	8b f1		 mov	 esi, ecx
  00003	e8 00 00 00 00	 call	 ??0ioSpecialStateBase@@QAE@XZ ; ioSpecialStateBase::ioSpecialStateBase
  00008	c7 06 00 00 00
	00		 mov	 DWORD PTR [esi], OFFSET ??_7ioJumperSpecialSpState@@6B@

; 1286 : 	
; 1287 : }

  0000e	8b c6		 mov	 eax, esi
  00010	5e		 pop	 esi
  00011	c3		 ret	 0
??0ioJumperSpecialSpState@@QAE@XZ ENDP			; ioJumperSpecialSpState::ioJumperSpecialSpState
; Function compile flags: /Ogsp
; File d:\lost saga for developer\youtube\tutorial\source\src\lsclient\iospecialstatebase.h
_TEXT	ENDS
;	COMDAT ?LoadProperty@ioSpecialStateBase@@UAEXAAVioINILoader@@@Z
_TEXT	SEGMENT
_rkLoader$ = 8						; size = 4
?LoadProperty@ioSpecialStateBase@@UAEXAAVioINILoader@@@Z PROC ; ioSpecialStateBase::LoadProperty, COMDAT
; _this$ = ecx

; 18   : 	virtual void LoadProperty( ioINILoader &rkLoader ){}

  00000	c2 04 00	 ret	 4
?LoadProperty@ioSpecialStateBase@@UAEXAAVioINILoader@@@Z ENDP ; ioSpecialStateBase::LoadProperty
; Function compile flags: /Ogsp
_TEXT	ENDS
;	COMDAT ?GetAttackSpeedRate@ioSpecialStateBase@@UAEMPAVioBaseChar@@M@Z
_TEXT	SEGMENT
_pOwner$ = 8						; size = 4
_fMaxSpeed$ = 12					; size = 4
?GetAttackSpeedRate@ioSpecialStateBase@@UAEMPAVioBaseChar@@M@Z PROC ; ioSpecialStateBase::GetAttackSpeedRate, COMDAT
; _this$ = ecx

; 26   : 	virtual float GetAttackSpeedRate( ioBaseChar* pOwner, float fMaxSpeed ){ return fMaxSpeed; }

  00000	55		 push	 ebp
  00001	8b ec		 mov	 ebp, esp
  00003	d9 45 0c	 fld	 DWORD PTR _fMaxSpeed$[ebp]
  00006	5d		 pop	 ebp
  00007	c2 08 00	 ret	 8
?GetAttackSpeedRate@ioSpecialStateBase@@UAEMPAVioBaseChar@@M@Z ENDP ; ioSpecialStateBase::GetAttackSpeedRate
; Function compile flags: /Ogsp
_TEXT	ENDS
;	COMDAT ?ProcessState@ioSpecialStateBase@@UAEXPAVioBaseChar@@@Z
_TEXT	SEGMENT
_pOwner$ = 8						; size = 4
?ProcessState@ioSpecialStateBase@@UAEXPAVioBaseChar@@@Z PROC ; ioSpecialStateBase::ProcessState, COMDAT
; _this$ = ecx

; 30   : 	virtual void ProcessState( IN ioBaseChar* pOwner ){}

  00000	c2 04 00	 ret	 4
?ProcessState@ioSpecialStateBase@@UAEXPAVioBaseChar@@@Z ENDP ; ioSpecialStateBase::ProcessState
; Function compile flags: /Ogsp
_TEXT	ENDS
;	COMDAT ?ProcessMoveSpeed@ioSpecialStateBase@@UAEXPAVioBaseChar@@@Z
_TEXT	SEGMENT
_pOwner$ = 8						; size = 4
?ProcessMoveSpeed@ioSpecialStateBase@@UAEXPAVioBaseChar@@@Z PROC ; ioSpecialStateBase::ProcessMoveSpeed, COMDAT
; _this$ = ecx

; 31   : 	virtual void ProcessMoveSpeed( ioBaseChar* pOwner ){}

  00000	c2 04 00	 ret	 4
?ProcessMoveSpeed@ioSpecialStateBase@@UAEXPAVioBaseChar@@@Z ENDP ; ioSpecialStateBase::ProcessMoveSpeed
; Function compile flags: /Ogsp
_TEXT	ENDS
;	COMDAT ?IsCanNoWound@ioSpecialStateBase@@UAE_NPAVioBaseChar@@@Z
_TEXT	SEGMENT
_pOwner$ = 8						; size = 4
?IsCanNoWound@ioSpecialStateBase@@UAE_NPAVioBaseChar@@@Z PROC ; ioSpecialStateBase::IsCanNoWound, COMDAT
; _this$ = ecx

; 37   : 	virtual bool IsCanNoWound( ioBaseChar* pOwner ) { return false; };

  00000	32 c0		 xor	 al, al
  00002	c2 04 00	 ret	 4
?IsCanNoWound@ioSpecialStateBase@@UAE_NPAVioBaseChar@@@Z ENDP ; ioSpecialStateBase::IsCanNoWound
; Function compile flags: /Ogsp
_TEXT	ENDS
;	COMDAT ?IsCollisionAvailableWeapon@ioSpecialStateBase@@UAE_NPAVioBaseChar@@PAVioWeapon@@@Z
_TEXT	SEGMENT
_pOwner$ = 8						; size = 4
_pWeapon$ = 12						; size = 4
?IsCollisionAvailableWeapon@ioSpecialStateBase@@UAE_NPAVioBaseChar@@PAVioWeapon@@@Z PROC ; ioSpecialStateBase::IsCollisionAvailableWeapon, COMDAT
; _this$ = ecx

; 38   : 	virtual bool IsCollisionAvailableWeapon( ioBaseChar* pOwner, ioWeapon *pWeapon ) { return true; }

  00000	b0 01		 mov	 al, 1
  00002	c2 08 00	 ret	 8
?IsCollisionAvailableWeapon@ioSpecialStateBase@@UAE_NPAVioBaseChar@@PAVioWeapon@@@Z ENDP ; ioSpecialStateBase::IsCollisionAvailableWeapon
; Function compile flags: /Ogsp
_TEXT	ENDS
;	COMDAT ?IsEntityCollisionSkipState@ioSpecialStateBase@@UBE_NQBVioBaseChar@@PAVioGameEntity@@@Z
_TEXT	SEGMENT
_pOwner$ = 8						; size = 4
_pColEntity$ = 12					; size = 4
?IsEntityCollisionSkipState@ioSpecialStateBase@@UBE_NQBVioBaseChar@@PAVioGameEntity@@@Z PROC ; ioSpecialStateBase::IsEntityCollisionSkipState, COMDAT
; _this$ = ecx

; 39   : 	virtual bool IsEntityCollisionSkipState( const ioBaseChar *const pOwner, ioGameEntity* pColEntity ) const { return false; }

  00000	32 c0		 xor	 al, al
  00002	c2 08 00	 ret	 8
?IsEntityCollisionSkipState@ioSpecialStateBase@@UBE_NQBVioBaseChar@@PAVioGameEntity@@@Z ENDP ; ioSpecialStateBase::IsEntityCollisionSkipState
; Function compile flags: /Ogsp
_TEXT	ENDS
;	COMDAT ?IsIgnoreAttackOverDelay@ioSpecialStateBase@@UAE_NXZ
_TEXT	SEGMENT
?IsIgnoreAttackOverDelay@ioSpecialStateBase@@UAE_NXZ PROC ; ioSpecialStateBase::IsIgnoreAttackOverDelay, COMDAT
; _this$ = ecx

; 50   : 	virtual bool IsIgnoreAttackOverDelay(){ return false; }

  00000	32 c0		 xor	 al, al
  00002	c3		 ret	 0
?IsIgnoreAttackOverDelay@ioSpecialStateBase@@UAE_NXZ ENDP ; ioSpecialStateBase::IsIgnoreAttackOverDelay
; Function compile flags: /Ogsp
_TEXT	ENDS
;	COMDAT ?IsLandingEnable@ioSpecialStateBase@@UAE_NXZ
_TEXT	SEGMENT
?IsLandingEnable@ioSpecialStateBase@@UAE_NXZ PROC	; ioSpecialStateBase::IsLandingEnable, COMDAT
; _this$ = ecx

; 51   : 	virtual bool IsLandingEnable(){ return true; }

  00000	b0 01		 mov	 al, 1
  00002	c3		 ret	 0
?IsLandingEnable@ioSpecialStateBase@@UAE_NXZ ENDP	; ioSpecialStateBase::IsLandingEnable
; Function compile flags: /Ogsp
_TEXT	ENDS
;	COMDAT ?IsFallStateCheck@ioSpecialStateBase@@UAE_NXZ
_TEXT	SEGMENT
?IsFallStateCheck@ioSpecialStateBase@@UAE_NXZ PROC	; ioSpecialStateBase::IsFallStateCheck, COMDAT
; _this$ = ecx

; 52   : 	virtual bool IsFallStateCheck(){ return true; }

  00000	b0 01		 mov	 al, 1
  00002	c3		 ret	 0
?IsFallStateCheck@ioSpecialStateBase@@UAE_NXZ ENDP	; ioSpecialStateBase::IsFallStateCheck
; Function compile flags: /Ogsp
_TEXT	ENDS
;	COMDAT ?IsEnableBlowWounded@ioSpecialStateBase@@UAE_NPAVioBaseChar@@@Z
_TEXT	SEGMENT
_pOwner$ = 8						; size = 4
?IsEnableBlowWounded@ioSpecialStateBase@@UAE_NPAVioBaseChar@@@Z PROC ; ioSpecialStateBase::IsEnableBlowWounded, COMDAT
; _this$ = ecx

; 53   : 	virtual bool IsEnableBlowWounded( ioBaseChar *pOwner ){ return true; }

  00000	b0 01		 mov	 al, 1
  00002	c2 04 00	 ret	 4
?IsEnableBlowWounded@ioSpecialStateBase@@UAE_NPAVioBaseChar@@@Z ENDP ; ioSpecialStateBase::IsEnableBlowWounded
; Function compile flags: /Ogsp
_TEXT	ENDS
;	COMDAT ?IsNoDropState@ioSpecialStateBase@@UAE_NPAVioBaseChar@@@Z
_TEXT	SEGMENT
_pOwner$ = 8						; size = 4
?IsNoDropState@ioSpecialStateBase@@UAE_NPAVioBaseChar@@@Z PROC ; ioSpecialStateBase::IsNoDropState, COMDAT
; _this$ = ecx

; 54   : 	virtual bool IsNoDropState( ioBaseChar* pOwner ) { return false; }

  00000	32 c0		 xor	 al, al
  00002	c2 04 00	 ret	 4
?IsNoDropState@ioSpecialStateBase@@UAE_NPAVioBaseChar@@@Z ENDP ; ioSpecialStateBase::IsNoDropState
; Function compile flags: /Ogsp
_TEXT	ENDS
;	COMDAT ?IsCanChangeJumppingState@ioSpecialStateBase@@UAE_NPAVioBaseChar@@@Z
_TEXT	SEGMENT
_pOwner$ = 8						; size = 4
?IsCanChangeJumppingState@ioSpecialStateBase@@UAE_NPAVioBaseChar@@@Z PROC ; ioSpecialStateBase::IsCanChangeJumppingState, COMDAT
; _this$ = ecx

; 56   : 	virtual bool IsCanChangeJumppingState( ioBaseChar* pOwner ) { return false; }

  00000	32 c0		 xor	 al, al
  00002	c2 04 00	 ret	 4
?IsCanChangeJumppingState@ioSpecialStateBase@@UAE_NPAVioBaseChar@@@Z ENDP ; ioSpecialStateBase::IsCanChangeJumppingState
; Function compile flags: /Ogsp
_TEXT	ENDS
;	COMDAT ?IsEnableDashState@ioSpecialStateBase@@UAE_NPAVioBaseChar@@@Z
_TEXT	SEGMENT
_pOwner$ = 8						; size = 4
?IsEnableDashState@ioSpecialStateBase@@UAE_NPAVioBaseChar@@@Z PROC ; ioSpecialStateBase::IsEnableDashState, COMDAT
; _this$ = ecx

; 58   : 	virtual bool IsEnableDashState( ioBaseChar* pOwner ){ return false; }

  00000	32 c0		 xor	 al, al
  00002	c2 04 00	 ret	 4
?IsEnableDashState@ioSpecialStateBase@@UAE_NPAVioBaseChar@@@Z ENDP ; ioSpecialStateBase::IsEnableDashState
; Function compile flags: /Ogsp
_TEXT	ENDS
;	COMDAT ?IsStateEnd@ioSpecialStateBase@@UAE_NPAVioBaseChar@@@Z
_TEXT	SEGMENT
_pOwner$ = 8						; size = 4
?IsStateEnd@ioSpecialStateBase@@UAE_NPAVioBaseChar@@@Z PROC ; ioSpecialStateBase::IsStateEnd, COMDAT
; _this$ = ecx

; 61   : 	virtual bool IsStateEnd( ioBaseChar* pOwner ){ return false; }

  00000	32 c0		 xor	 al, al
  00002	c2 04 00	 ret	 4
?IsStateEnd@ioSpecialStateBase@@UAE_NPAVioBaseChar@@@Z ENDP ; ioSpecialStateBase::IsStateEnd
; Function compile flags: /Ogsp
_TEXT	ENDS
;	COMDAT ?IsProcessFlyMove@ioSpecialStateBase@@UAE_NXZ
_TEXT	SEGMENT
?IsProcessFlyMove@ioSpecialStateBase@@UAE_NXZ PROC	; ioSpecialStateBase::IsProcessFlyMove, COMDAT
; _this$ = ecx

; 62   : 	virtual bool IsProcessFlyMove(){ return false; }	

  00000	32 c0		 xor	 al, al
  00002	c3		 ret	 0
?IsProcessFlyMove@ioSpecialStateBase@@UAE_NXZ ENDP	; ioSpecialStateBase::IsProcessFlyMove
; Function compile flags: /Ogsp
_TEXT	ENDS
;	COMDAT ?IsFloatingState@ioSpecialStateBase@@UBE_NQBVioBaseChar@@@Z
_TEXT	SEGMENT
_pOwner$ = 8						; size = 4
?IsFloatingState@ioSpecialStateBase@@UBE_NQBVioBaseChar@@@Z PROC ; ioSpecialStateBase::IsFloatingState, COMDAT
; _this$ = ecx

; 64   : 	virtual bool IsFloatingState( const ioBaseChar * const pOwner ) const { return false; }	

  00000	32 c0		 xor	 al, al
  00002	c2 04 00	 ret	 4
?IsFloatingState@ioSpecialStateBase@@UBE_NQBVioBaseChar@@@Z ENDP ; ioSpecialStateBase::IsFloatingState
; Function compile flags: /Ogsp
_TEXT	ENDS
;	COMDAT ?IsInitializeSync@ioSpecialStateBase@@UAE_NXZ
_TEXT	SEGMENT
?IsInitializeSync@ioSpecialStateBase@@UAE_NXZ PROC	; ioSpecialStateBase::IsInitializeSync, COMDAT
; _this$ = ecx

; 68   : 	virtual bool IsInitializeSync(){ return false; }

  00000	32 c0		 xor	 al, al
  00002	c3		 ret	 0
?IsInitializeSync@ioSpecialStateBase@@UAE_NXZ ENDP	; ioSpecialStateBase::IsInitializeSync
; Function compile flags: /Ogsp
_TEXT	ENDS
;	COMDAT ?IsJoinSync@ioSpecialStateBase@@UAE_NXZ
_TEXT	SEGMENT
?IsJoinSync@ioSpecialStateBase@@UAE_NXZ PROC		; ioSpecialStateBase::IsJoinSync, COMDAT
; _this$ = ecx

; 71   : 	virtual bool IsJoinSync(){ return true; }

  00000	b0 01		 mov	 al, 1
  00002	c3		 ret	 0
?IsJoinSync@ioSpecialStateBase@@UAE_NXZ ENDP		; ioSpecialStateBase::IsJoinSync
_TEXT	ENDS
PUBLIC	??_C@_0BC@JLHAKEED@CS_JUMPER_SPECIAL?$AA@	; `string'
;	COMDAT ??_C@_0BC@JLHAKEED@CS_JUMPER_SPECIAL?$AA@
; File d:\lost saga for developer\youtube\tutorial\source\src\lsclient\iojumperitem.h
CONST	SEGMENT
??_C@_0BC@JLHAKEED@CS_JUMPER_SPECIAL?$AA@ DB 'CS_JUMPER_SPECIAL', 00H ; `string'
; Function compile flags: /Ogsp
CONST	ENDS
;	COMDAT ?GetStateName@ioJumperSpecialSpState@@UAEPBDXZ
_TEXT	SEGMENT
?GetStateName@ioJumperSpecialSpState@@UAEPBDXZ PROC	; ioJumperSpecialSpState::GetStateName, COMDAT
; _this$ = ecx

; 223  : 	virtual const char* GetStateName(){ return "CS_JUMPER_SPECIAL"; }

  00000	b8 00 00 00 00	 mov	 eax, OFFSET ??_C@_0BC@JLHAKEED@CS_JUMPER_SPECIAL?$AA@
  00005	c3		 ret	 0
?GetStateName@ioJumperSpecialSpState@@UAEPBDXZ ENDP	; ioJumperSpecialSpState::GetStateName
; Function compile flags: /Ogsp
_TEXT	ENDS
;	COMDAT ?GetState@ioJumperSpecialSpState@@UAE?BW4CharState@@XZ
_TEXT	SEGMENT
?GetState@ioJumperSpecialSpState@@UAE?BW4CharState@@XZ PROC ; ioJumperSpecialSpState::GetState, COMDAT
; _this$ = ecx

; 224  : 	virtual const CharState GetState(){ return CS_JUMPER_SPECIAL; }

  00000	b0 88		 mov	 al, 136			; 00000088H
  00002	c3		 ret	 0
?GetState@ioJumperSpecialSpState@@UAE?BW4CharState@@XZ ENDP ; ioJumperSpecialSpState::GetState
; Function compile flags: /Ogsp
_TEXT	ENDS
;	COMDAT ?IsSendControlInfoToUser@ioJumperSpecialSpState@@UAE_NPAVioBaseChar@@@Z
_TEXT	SEGMENT
_pOwner$ = 8						; size = 4
?IsSendControlInfoToUser@ioJumperSpecialSpState@@UAE_NPAVioBaseChar@@@Z PROC ; ioJumperSpecialSpState::IsSendControlInfoToUser, COMDAT
; _this$ = ecx

; 234  : 	virtual bool IsSendControlInfoToUser( ioBaseChar* pOwner ){ return false; }	

  00000	32 c0		 xor	 al, al
  00002	c2 04 00	 ret	 4
?IsSendControlInfoToUser@ioJumperSpecialSpState@@UAE_NPAVioBaseChar@@@Z ENDP ; ioJumperSpecialSpState::IsSendControlInfoToUser
_TEXT	ENDS
PUBLIC	??1ioJumperSpecialSpState@@UAE@XZ		; ioJumperSpecialSpState::~ioJumperSpecialSpState
EXTRN	??1ioSpecialStateBase@@UAE@XZ:PROC		; ioSpecialStateBase::~ioSpecialStateBase
; Function compile flags: /Ogsp
; File d:\lost saga for developer\youtube\tutorial\source\src\lsclient\iojumperitem.cpp
;	COMDAT ??1ioJumperSpecialSpState@@UAE@XZ
_TEXT	SEGMENT
??1ioJumperSpecialSpState@@UAE@XZ PROC			; ioJumperSpecialSpState::~ioJumperSpecialSpState, COMDAT
; _this$ = ecx

; 1290 : {

  00000	c7 01 00 00 00
	00		 mov	 DWORD PTR [ecx], OFFSET ??_7ioJumperSpecialSpState@@6B@

; 1291 : }

  00006	e9 00 00 00 00	 jmp	 ??1ioSpecialStateBase@@UAE@XZ ; ioSpecialStateBase::~ioSpecialStateBase
??1ioJumperSpecialSpState@@UAE@XZ ENDP			; ioJumperSpecialSpState::~ioJumperSpecialSpState
_TEXT	ENDS
EXTRN	?Initialize@ioSpecialStateBase@@UAEXPAVioBaseChar@@W4CharState@@@Z:PROC ; ioSpecialStateBase::Initialize
; Function compile flags: /Ogsp
;	COMDAT ?Initialize@ioJumperSpecialSpState@@UAEXPAVioBaseChar@@W4CharState@@@Z
_TEXT	SEGMENT
_pOwner$ = 8						; size = 4
_eCurrState$ = 12					; size = 1
?Initialize@ioJumperSpecialSpState@@UAEXPAVioBaseChar@@W4CharState@@@Z PROC ; ioJumperSpecialSpState::Initialize, COMDAT
; _this$ = ecx

; 1294 : {

  00000	55		 push	 ebp
  00001	8b ec		 mov	 ebp, esp

; 1296 : }

  00003	5d		 pop	 ebp

; 1295 : 	ioSpecialStateBase::Initialize( pOwner, eCurrState );

  00004	e9 00 00 00 00	 jmp	 ?Initialize@ioSpecialStateBase@@UAEXPAVioBaseChar@@W4CharState@@@Z ; ioSpecialStateBase::Initialize
?Initialize@ioJumperSpecialSpState@@UAEXPAVioBaseChar@@W4CharState@@@Z ENDP ; ioJumperSpecialSpState::Initialize
; Function compile flags: /Ogsp
_TEXT	ENDS
;	COMDAT ?ProcessKeyInput@ioJumperSpecialSpState@@UAEXPAVioBaseChar@@@Z
_TEXT	SEGMENT
_pOwner$ = 8						; size = 4
?ProcessKeyInput@ioJumperSpecialSpState@@UAEXPAVioBaseChar@@@Z PROC ; ioJumperSpecialSpState::ProcessKeyInput, COMDAT
; _this$ = ecx

; 1320 : }

  00000	c2 04 00	 ret	 4
?ProcessKeyInput@ioJumperSpecialSpState@@UAEXPAVioBaseChar@@@Z ENDP ; ioJumperSpecialSpState::ProcessKeyInput
_TEXT	ENDS
PUBLIC	??A?$vector@VioHashString@@V?$allocator@VioHashString@@@std@@@std@@QAEAAVioHashString@@I@Z ; std::vector<ioHashString,std::allocator<ioHashString> >::operator[]
; Function compile flags: /Ogsp
; File c:\program files (x86)\microsoft visual studio 10.0\vc\include\vector
;	COMDAT ??A?$vector@VioHashString@@V?$allocator@VioHashString@@@std@@@std@@QAEAAVioHashString@@I@Z
_TEXT	SEGMENT
__Pos$ = 8						; size = 4
??A?$vector@VioHashString@@V?$allocator@VioHashString@@@std@@@std@@QAEAAVioHashString@@I@Z PROC ; std::vector<ioHashString,std::allocator<ioHashString> >::operator[], COMDAT
; _this$ = ecx

; 928  : 		{	// subscript mutable sequence

  00000	55		 push	 ebp
  00001	8b ec		 mov	 ebp, esp

; 929  :  #if _ITERATOR_DEBUG_LEVEL == 2
; 930  : 		if (size() <= _Pos)
; 931  : 			{	// report error
; 932  : 			_DEBUG_ERROR("vector subscript out of range");
; 933  : 			_SCL_SECURE_OUT_OF_RANGE;
; 934  : 			}
; 935  : 
; 936  :  #elif _ITERATOR_DEBUG_LEVEL == 1
; 937  : 		_SCL_SECURE_VALIDATE_RANGE(_Pos < size());
; 938  :  #endif /* _ITERATOR_DEBUG_LEVEL */
; 939  : 
; 940  : 		return (*(this->_Myfirst + _Pos));

  00003	8b 45 08	 mov	 eax, DWORD PTR __Pos$[ebp]
  00006	c1 e0 04	 shl	 eax, 4
  00009	03 01		 add	 eax, DWORD PTR [ecx]

; 941  : 		}

  0000b	5d		 pop	 ebp
  0000c	c2 04 00	 ret	 4
??A?$vector@VioHashString@@V?$allocator@VioHashString@@@std@@@std@@QAEAAVioHashString@@I@Z ENDP ; std::vector<ioHashString,std::allocator<ioHashString> >::operator[]
_TEXT	ENDS
PUBLIC	?capacity@?$vector@VioHashString@@V?$allocator@VioHashString@@@std@@@std@@QBEIXZ ; std::vector<ioHashString,std::allocator<ioHashString> >::capacity
; Function compile flags: /Ogsp
;	COMDAT ?capacity@?$vector@VioHashString@@V?$allocator@VioHashString@@@std@@@std@@QBEIXZ
_TEXT	SEGMENT
?capacity@?$vector@VioHashString@@V?$allocator@VioHashString@@@std@@@std@@QBEIXZ PROC ; std::vector<ioHashString,std::allocator<ioHashString> >::capacity, COMDAT
; _this$ = ecx

; 777  : 		return (this->_Myend - this->_Myfirst);

  00000	8b 41 08	 mov	 eax, DWORD PTR [ecx+8]
  00003	2b 01		 sub	 eax, DWORD PTR [ecx]
  00005	c1 f8 04	 sar	 eax, 4

; 778  : 		}

  00008	c3		 ret	 0
?capacity@?$vector@VioHashString@@V?$allocator@VioHashString@@@std@@@std@@QBEIXZ ENDP ; std::vector<ioHashString,std::allocator<ioHashString> >::capacity
_TEXT	ENDS
PUBLIC	?_Inside@?$vector@VioHashString@@V?$allocator@VioHashString@@@std@@@std@@IBE_NPBVioHashString@@@Z ; std::vector<ioHashString,std::allocator<ioHashString> >::_Inside
; Function compile flags: /Ogsp
;	COMDAT ?_Inside@?$vector@VioHashString@@V?$allocator@VioHashString@@@std@@@std@@IBE_NPBVioHashString@@@Z
_TEXT	SEGMENT
__Ptr$ = 8						; size = 4
?_Inside@?$vector@VioHashString@@V?$allocator@VioHashString@@@std@@@std@@IBE_NPBVioHashString@@@Z PROC ; std::vector<ioHashString,std::allocator<ioHashString> >::_Inside, COMDAT
; _this$ = ecx

; 1285 : 		{	// test if _Ptr points inside vector

  00000	55		 push	 ebp
  00001	8b ec		 mov	 ebp, esp

; 1286 : 		return (_Ptr < this->_Mylast && this->_Myfirst <= _Ptr);

  00003	8b 45 08	 mov	 eax, DWORD PTR __Ptr$[ebp]
  00006	3b 41 04	 cmp	 eax, DWORD PTR [ecx+4]
  00009	73 09		 jae	 SHORT $LN3@Inside
  0000b	39 01		 cmp	 DWORD PTR [ecx], eax
  0000d	77 05		 ja	 SHORT $LN3@Inside
  0000f	33 c0		 xor	 eax, eax
  00011	40		 inc	 eax
  00012	eb 02		 jmp	 SHORT $LN4@Inside
$LN3@Inside:
  00014	33 c0		 xor	 eax, eax
$LN4@Inside:

; 1287 : 		}

  00016	5d		 pop	 ebp
  00017	c2 04 00	 ret	 4
?_Inside@?$vector@VioHashString@@V?$allocator@VioHashString@@@std@@@std@@IBE_NPBVioHashString@@@Z ENDP ; std::vector<ioHashString,std::allocator<ioHashString> >::_Inside
_TEXT	ENDS
PUBLIC	?_Orphan_range@?$vector@VioHashString@@V?$allocator@VioHashString@@@std@@@std@@IBEXPAVioHashString@@0@Z ; std::vector<ioHashString,std::allocator<ioHashString> >::_Orphan_range
; Function compile flags: /Ogsp
;	COMDAT ?_Orphan_range@?$vector@VioHashString@@V?$allocator@VioHashString@@@std@@@std@@IBEXPAVioHashString@@0@Z
_TEXT	SEGMENT
___formal$ = 8						; size = 4
___formal$ = 12						; size = 4
?_Orphan_range@?$vector@VioHashString@@V?$allocator@VioHashString@@@std@@@std@@IBEXPAVioHashString@@0@Z PROC ; std::vector<ioHashString,std::allocator<ioHashString> >::_Orphan_range, COMDAT
; _this$ = ecx

; 1454 : 		}

  00000	c2 08 00	 ret	 8
?_Orphan_range@?$vector@VioHashString@@V?$allocator@VioHashString@@@std@@@std@@IBEXPAVioHashString@@0@Z ENDP ; std::vector<ioHashString,std::allocator<ioHashString> >::_Orphan_range
_TEXT	ENDS
PUBLIC	??0D3DXVECTOR3@@QAE@XZ				; D3DXVECTOR3::D3DXVECTOR3
; Function compile flags: /Ogsp
; File c:\program files (x86)\microsoft directx sdk (june 2010)\include\d3dx9math.h
;	COMDAT ??0D3DXVECTOR3@@QAE@XZ
_TEXT	SEGMENT
??0D3DXVECTOR3@@QAE@XZ PROC				; D3DXVECTOR3::D3DXVECTOR3, COMDAT
; _this$ = ecx

; 165  :     D3DXVECTOR3() {};

  00000	8b c1		 mov	 eax, ecx
  00002	c3		 ret	 0
??0D3DXVECTOR3@@QAE@XZ ENDP				; D3DXVECTOR3::D3DXVECTOR3
_TEXT	ENDS
PUBLIC	??0D3DXQUATERNION@@QAE@XZ			; D3DXQUATERNION::D3DXQUATERNION
; Function compile flags: /Ogsp
;	COMDAT ??0D3DXQUATERNION@@QAE@XZ
_TEXT	SEGMENT
??0D3DXQUATERNION@@QAE@XZ PROC				; D3DXQUATERNION::D3DXQUATERNION, COMDAT
; _this$ = ecx

; 429  :     D3DXQUATERNION() {}

  00000	8b c1		 mov	 eax, ecx
  00002	c3		 ret	 0
??0D3DXQUATERNION@@QAE@XZ ENDP				; D3DXQUATERNION::D3DXQUATERNION
_TEXT	ENDS
PUBLIC	??0D3DXVECTOR3@@QAE@MMM@Z			; D3DXVECTOR3::D3DXVECTOR3
; Function compile flags: /Ogsp
; File c:\program files (x86)\microsoft directx sdk (june 2010)\include\d3dx9math.inl
;	COMDAT ??0D3DXVECTOR3@@QAE@MMM@Z
_TEXT	SEGMENT
_fx$ = 8						; size = 4
_fy$ = 12						; size = 4
_fz$ = 16						; size = 4
??0D3DXVECTOR3@@QAE@MMM@Z PROC				; D3DXVECTOR3::D3DXVECTOR3, COMDAT
; _this$ = ecx

; 303  : {

  00000	55		 push	 ebp
  00001	8b ec		 mov	 ebp, esp

; 304  :     x = fx;

  00003	f3 0f 10 45 08	 movss	 xmm0, DWORD PTR _fx$[ebp]
  00008	8b c1		 mov	 eax, ecx
  0000a	f3 0f 11 00	 movss	 DWORD PTR [eax], xmm0

; 305  :     y = fy;

  0000e	f3 0f 10 45 0c	 movss	 xmm0, DWORD PTR _fy$[ebp]
  00013	f3 0f 11 40 04	 movss	 DWORD PTR [eax+4], xmm0

; 306  :     z = fz;

  00018	f3 0f 10 45 10	 movss	 xmm0, DWORD PTR _fz$[ebp]
  0001d	f3 0f 11 40 08	 movss	 DWORD PTR [eax+8], xmm0

; 307  : }

  00022	5d		 pop	 ebp
  00023	c2 0c 00	 ret	 12			; 0000000cH
??0D3DXVECTOR3@@QAE@MMM@Z ENDP				; D3DXVECTOR3::D3DXVECTOR3
_TEXT	ENDS
PUBLIC	??YD3DXVECTOR3@@QAEAAU0@ABU0@@Z			; D3DXVECTOR3::operator+=
; Function compile flags: /Ogsp
;	COMDAT ??YD3DXVECTOR3@@QAEAAU0@ABU0@@Z
_TEXT	SEGMENT
_v$ = 8							; size = 4
??YD3DXVECTOR3@@QAEAAU0@ABU0@@Z PROC			; D3DXVECTOR3::operator+=, COMDAT
; _this$ = ecx

; 327  : {

  00000	55		 push	 ebp
  00001	8b ec		 mov	 ebp, esp
  00003	8b c1		 mov	 eax, ecx

; 328  :     x += v.x;

  00005	8b 4d 08	 mov	 ecx, DWORD PTR _v$[ebp]
  00008	f3 0f 10 01	 movss	 xmm0, DWORD PTR [ecx]
  0000c	f3 0f 10 08	 movss	 xmm1, DWORD PTR [eax]
  00010	0f 5a c0	 cvtps2pd xmm0, xmm0
  00013	0f 5a c9	 cvtps2pd xmm1, xmm1
  00016	f2 0f 58 c1	 addsd	 xmm0, xmm1

; 329  :     y += v.y;

  0001a	f3 0f 10 48 04	 movss	 xmm1, DWORD PTR [eax+4]
  0001f	66 0f 5a c0	 cvtpd2ps xmm0, xmm0
  00023	f3 0f 11 00	 movss	 DWORD PTR [eax], xmm0
  00027	f3 0f 10 41 04	 movss	 xmm0, DWORD PTR [ecx+4]
  0002c	0f 5a c0	 cvtps2pd xmm0, xmm0
  0002f	0f 5a c9	 cvtps2pd xmm1, xmm1
  00032	f2 0f 58 c1	 addsd	 xmm0, xmm1

; 330  :     z += v.z;

  00036	f3 0f 10 48 08	 movss	 xmm1, DWORD PTR [eax+8]
  0003b	66 0f 5a c0	 cvtpd2ps xmm0, xmm0
  0003f	f3 0f 11 40 04	 movss	 DWORD PTR [eax+4], xmm0
  00044	f3 0f 10 41 08	 movss	 xmm0, DWORD PTR [ecx+8]
  00049	0f 5a c0	 cvtps2pd xmm0, xmm0
  0004c	0f 5a c9	 cvtps2pd xmm1, xmm1
  0004f	f2 0f 58 c1	 addsd	 xmm0, xmm1
  00053	66 0f 5a c0	 cvtpd2ps xmm0, xmm0
  00057	f3 0f 11 40 08	 movss	 DWORD PTR [eax+8], xmm0

; 331  :     return *this;
; 332  : }

  0005c	5d		 pop	 ebp
  0005d	c2 04 00	 ret	 4
??YD3DXVECTOR3@@QAEAAU0@ABU0@@Z ENDP			; D3DXVECTOR3::operator+=
_TEXT	ENDS
PUBLIC	__mask@@NegFloat@
PUBLIC	??GD3DXVECTOR3@@QBE?AU0@XZ			; D3DXVECTOR3::operator-
;	COMDAT __mask@@NegFloat@
CONST	SEGMENT
__mask@@NegFloat@ DB 00H, 00H, 00H, 080H, 00H, 00H, 00H, 080H, 00H, 00H, 00H
	DB	080H, 00H, 00H, 00H, 080H
; Function compile flags: /Ogsp
CONST	ENDS
;	COMDAT ??GD3DXVECTOR3@@QBE?AU0@XZ
_TEXT	SEGMENT
___$ReturnUdt$ = 8					; size = 4
??GD3DXVECTOR3@@QBE?AU0@XZ PROC				; D3DXVECTOR3::operator-, COMDAT
; _this$ = ecx

; 372  : {

  00000	55		 push	 ebp
  00001	8b ec		 mov	 ebp, esp

; 373  :     return D3DXVECTOR3(-x, -y, -z);

  00003	f3 0f 10 05 00
	00 00 00	 movss	 xmm0, DWORD PTR __mask@@NegFloat@
  0000b	8b 45 08	 mov	 eax, DWORD PTR ___$ReturnUdt$[ebp]
  0000e	f3 0f 10 09	 movss	 xmm1, DWORD PTR [ecx]
  00012	0f 57 c8	 xorps	 xmm1, xmm0
  00015	f3 0f 11 08	 movss	 DWORD PTR [eax], xmm1
  00019	f3 0f 10 49 04	 movss	 xmm1, DWORD PTR [ecx+4]
  0001e	0f 57 c8	 xorps	 xmm1, xmm0
  00021	f3 0f 11 48 04	 movss	 DWORD PTR [eax+4], xmm1
  00026	f3 0f 10 49 08	 movss	 xmm1, DWORD PTR [ecx+8]
  0002b	0f 57 c8	 xorps	 xmm1, xmm0
  0002e	f3 0f 11 48 08	 movss	 DWORD PTR [eax+8], xmm1

; 374  : }

  00033	5d		 pop	 ebp
  00034	c2 04 00	 ret	 4
??GD3DXVECTOR3@@QBE?AU0@XZ ENDP				; D3DXVECTOR3::operator-
_TEXT	ENDS
PUBLIC	??HD3DXVECTOR3@@QBE?AU0@ABU0@@Z			; D3DXVECTOR3::operator+
; Function compile flags: /Ogsp
;	COMDAT ??HD3DXVECTOR3@@QBE?AU0@ABU0@@Z
_TEXT	SEGMENT
___$ReturnUdt$ = 8					; size = 4
_v$ = 12						; size = 4
??HD3DXVECTOR3@@QBE?AU0@ABU0@@Z PROC			; D3DXVECTOR3::operator+, COMDAT
; _this$ = ecx

; 380  : {

  00000	55		 push	 ebp
  00001	8b ec		 mov	 ebp, esp

; 381  :     return D3DXVECTOR3(x + v.x, y + v.y, z + v.z);

  00003	8b 55 0c	 mov	 edx, DWORD PTR _v$[ebp]
  00006	f3 0f 10 02	 movss	 xmm0, DWORD PTR [edx]
  0000a	f3 0f 10 09	 movss	 xmm1, DWORD PTR [ecx]
  0000e	8b 45 08	 mov	 eax, DWORD PTR ___$ReturnUdt$[ebp]
  00011	0f 5a c0	 cvtps2pd xmm0, xmm0
  00014	0f 5a c9	 cvtps2pd xmm1, xmm1
  00017	f2 0f 58 c1	 addsd	 xmm0, xmm1
  0001b	f3 0f 10 49 04	 movss	 xmm1, DWORD PTR [ecx+4]
  00020	66 0f 5a c0	 cvtpd2ps xmm0, xmm0
  00024	f3 0f 11 00	 movss	 DWORD PTR [eax], xmm0
  00028	f3 0f 10 42 04	 movss	 xmm0, DWORD PTR [edx+4]
  0002d	0f 5a c0	 cvtps2pd xmm0, xmm0
  00030	0f 5a c9	 cvtps2pd xmm1, xmm1
  00033	f2 0f 58 c1	 addsd	 xmm0, xmm1
  00037	f3 0f 10 49 08	 movss	 xmm1, DWORD PTR [ecx+8]
  0003c	66 0f 5a c0	 cvtpd2ps xmm0, xmm0
  00040	f3 0f 11 40 04	 movss	 DWORD PTR [eax+4], xmm0
  00045	f3 0f 10 42 08	 movss	 xmm0, DWORD PTR [edx+8]
  0004a	0f 5a c0	 cvtps2pd xmm0, xmm0
  0004d	0f 5a c9	 cvtps2pd xmm1, xmm1
  00050	f2 0f 58 c1	 addsd	 xmm0, xmm1
  00054	66 0f 5a c0	 cvtpd2ps xmm0, xmm0
  00058	f3 0f 11 40 08	 movss	 DWORD PTR [eax+8], xmm0

; 382  : }

  0005d	5d		 pop	 ebp
  0005e	c2 08 00	 ret	 8
??HD3DXVECTOR3@@QBE?AU0@ABU0@@Z ENDP			; D3DXVECTOR3::operator+
_TEXT	ENDS
PUBLIC	??DD3DXVECTOR3@@QBE?AU0@M@Z			; D3DXVECTOR3::operator*
; Function compile flags: /Ogsp
;	COMDAT ??DD3DXVECTOR3@@QBE?AU0@M@Z
_TEXT	SEGMENT
___$ReturnUdt$ = 8					; size = 4
_f$ = 12						; size = 4
??DD3DXVECTOR3@@QBE?AU0@M@Z PROC			; D3DXVECTOR3::operator*, COMDAT
; _this$ = ecx

; 392  : {

  00000	55		 push	 ebp
  00001	8b ec		 mov	 ebp, esp

; 393  :     return D3DXVECTOR3(x * f, y * f, z * f);

  00003	f3 0f 10 4d 0c	 movss	 xmm1, DWORD PTR _f$[ebp]
  00008	f3 0f 10 01	 movss	 xmm0, DWORD PTR [ecx]
  0000c	8b 45 08	 mov	 eax, DWORD PTR ___$ReturnUdt$[ebp]
  0000f	0f 5a c0	 cvtps2pd xmm0, xmm0
  00012	0f 5a c9	 cvtps2pd xmm1, xmm1
  00015	f2 0f 59 c1	 mulsd	 xmm0, xmm1
  00019	f3 0f 10 4d 0c	 movss	 xmm1, DWORD PTR _f$[ebp]
  0001e	66 0f 5a c0	 cvtpd2ps xmm0, xmm0
  00022	f3 0f 11 00	 movss	 DWORD PTR [eax], xmm0
  00026	f3 0f 10 41 04	 movss	 xmm0, DWORD PTR [ecx+4]
  0002b	0f 5a c0	 cvtps2pd xmm0, xmm0
  0002e	0f 5a c9	 cvtps2pd xmm1, xmm1
  00031	f2 0f 59 c1	 mulsd	 xmm0, xmm1
  00035	f3 0f 10 4d 0c	 movss	 xmm1, DWORD PTR _f$[ebp]
  0003a	66 0f 5a c0	 cvtpd2ps xmm0, xmm0
  0003e	f3 0f 11 40 04	 movss	 DWORD PTR [eax+4], xmm0
  00043	f3 0f 10 41 08	 movss	 xmm0, DWORD PTR [ecx+8]
  00048	0f 5a c0	 cvtps2pd xmm0, xmm0
  0004b	0f 5a c9	 cvtps2pd xmm1, xmm1
  0004e	f2 0f 59 c1	 mulsd	 xmm0, xmm1
  00052	66 0f 5a c0	 cvtpd2ps xmm0, xmm0
  00056	f3 0f 11 40 08	 movss	 DWORD PTR [eax+8], xmm0

; 394  : }

  0005b	5d		 pop	 ebp
  0005c	c2 08 00	 ret	 8
??DD3DXVECTOR3@@QBE?AU0@M@Z ENDP			; D3DXVECTOR3::operator*
_TEXT	ENDS
PUBLIC	??D@YA?AUD3DXVECTOR3@@MABU0@@Z			; operator*
; Function compile flags: /Ogsp
;	COMDAT ??D@YA?AUD3DXVECTOR3@@MABU0@@Z
_TEXT	SEGMENT
___$ReturnUdt$ = 8					; size = 4
_f$ = 12						; size = 4
_v$ = 16						; size = 4
??D@YA?AUD3DXVECTOR3@@MABU0@@Z PROC			; operator*, COMDAT

; 406  : {

  00000	55		 push	 ebp
  00001	8b ec		 mov	 ebp, esp

; 407  :     return D3DXVECTOR3(f * v.x, f * v.y, f * v.z);

  00003	8b 4d 10	 mov	 ecx, DWORD PTR _v$[ebp]
  00006	f3 0f 10 4d 0c	 movss	 xmm1, DWORD PTR _f$[ebp]
  0000b	f3 0f 10 01	 movss	 xmm0, DWORD PTR [ecx]
  0000f	8b 45 08	 mov	 eax, DWORD PTR ___$ReturnUdt$[ebp]
  00012	0f 5a c0	 cvtps2pd xmm0, xmm0
  00015	0f 5a c9	 cvtps2pd xmm1, xmm1
  00018	f2 0f 59 c1	 mulsd	 xmm0, xmm1
  0001c	f3 0f 10 4d 0c	 movss	 xmm1, DWORD PTR _f$[ebp]
  00021	66 0f 5a c0	 cvtpd2ps xmm0, xmm0
  00025	f3 0f 11 00	 movss	 DWORD PTR [eax], xmm0
  00029	f3 0f 10 41 04	 movss	 xmm0, DWORD PTR [ecx+4]
  0002e	0f 5a c0	 cvtps2pd xmm0, xmm0
  00031	0f 5a c9	 cvtps2pd xmm1, xmm1
  00034	f2 0f 59 c1	 mulsd	 xmm0, xmm1
  00038	f3 0f 10 4d 0c	 movss	 xmm1, DWORD PTR _f$[ebp]
  0003d	66 0f 5a c0	 cvtpd2ps xmm0, xmm0
  00041	f3 0f 11 40 04	 movss	 DWORD PTR [eax+4], xmm0
  00046	f3 0f 10 41 08	 movss	 xmm0, DWORD PTR [ecx+8]
  0004b	0f 5a c0	 cvtps2pd xmm0, xmm0
  0004e	0f 5a c9	 cvtps2pd xmm1, xmm1
  00051	f2 0f 59 c1	 mulsd	 xmm0, xmm1
  00055	66 0f 5a c0	 cvtpd2ps xmm0, xmm0
  00059	f3 0f 11 40 08	 movss	 DWORD PTR [eax+8], xmm0

; 408  : }

  0005e	5d		 pop	 ebp
  0005f	c3		 ret	 0
??D@YA?AUD3DXVECTOR3@@MABU0@@Z ENDP			; operator*
_TEXT	ENDS
PUBLIC	__real@3f91df46a2526c7a
PUBLIC	??$DEGtoRAD@M@@YAMM@Z				; DEGtoRAD<float>
;	COMDAT __real@3f91df46a2526c7a
; File d:\lost saga for developer\youtube\tutorial\source\src\lsclient\veryoftenusedefine.h
CONST	SEGMENT
__real@3f91df46a2526c7a DQ 03f91df46a2526c7ar	; 0.0174533
; Function compile flags: /Ogsp
CONST	ENDS
;	COMDAT ??$DEGtoRAD@M@@YAMM@Z
_TEXT	SEGMENT
tv129 = 8						; size = 4
_val$ = 8						; size = 4
??$DEGtoRAD@M@@YAMM@Z PROC				; DEGtoRAD<float>, COMDAT

; 20   : type  DEGtoRAD (type val) {return (type) (val * 0.0174532925199);}

  00000	55		 push	 ebp
  00001	8b ec		 mov	 ebp, esp
  00003	d9 45 08	 fld	 DWORD PTR _val$[ebp]
  00006	dc 0d 00 00 00
	00		 fmul	 QWORD PTR __real@3f91df46a2526c7a
  0000c	d9 5d 08	 fstp	 DWORD PTR tv129[ebp]
  0000f	d9 45 08	 fld	 DWORD PTR tv129[ebp]
  00012	5d		 pop	 ebp
  00013	c3		 ret	 0
??$DEGtoRAD@M@@YAMM@Z ENDP				; DEGtoRAD<float>
_TEXT	ENDS
PUBLIC	??$addressof@VioHashString@@@std@@YAPAVioHashString@@AAV1@@Z ; std::addressof<ioHashString>
; Function compile flags: /Ogsp
; File c:\program files (x86)\microsoft visual studio 10.0\vc\include\xmemory
;	COMDAT ??$addressof@VioHashString@@@std@@YAPAVioHashString@@AAV1@@Z
_TEXT	SEGMENT
__Val$ = 8						; size = 4
??$addressof@VioHashString@@@std@@YAPAVioHashString@@AAV1@@Z PROC ; std::addressof<ioHashString>, COMDAT

; 110  : 	{	// return address of _Val

  00000	55		 push	 ebp
  00001	8b ec		 mov	 ebp, esp

; 111  : 	return ((_Ty *) &(char&)_Val);

  00003	8b 45 08	 mov	 eax, DWORD PTR __Val$[ebp]

; 112  : 	}

  00006	5d		 pop	 ebp
  00007	c3		 ret	 0
??$addressof@VioHashString@@@std@@YAPAVioHashString@@AAV1@@Z ENDP ; std::addressof<ioHashString>
_TEXT	ENDS
PUBLIC	??$forward@VioHashString@@@std@@YA$$QAVioHashString@@AAV1@@Z ; std::forward<ioHashString>
; Function compile flags: /Ogsp
; File c:\program files (x86)\microsoft visual studio 10.0\vc\include\utility
;	COMDAT ??$forward@VioHashString@@@std@@YA$$QAVioHashString@@AAV1@@Z
_TEXT	SEGMENT
__Arg$ = 8						; size = 4
??$forward@VioHashString@@@std@@YA$$QAVioHashString@@AAV1@@Z PROC ; std::forward<ioHashString>, COMDAT

; 78   : 	{	// forward _Arg, given explicitly specified type parameter

  00000	55		 push	 ebp
  00001	8b ec		 mov	 ebp, esp

; 79   : 	return ((_Ty&&)_Arg);

  00003	8b 45 08	 mov	 eax, DWORD PTR __Arg$[ebp]

; 80   : 	}

  00006	5d		 pop	 ebp
  00007	c3		 ret	 0
??$forward@VioHashString@@@std@@YA$$QAVioHashString@@AAV1@@Z ENDP ; std::forward<ioHashString>
_TEXT	ENDS
PUBLIC	?construct@?$allocator@VioHashString@@@std@@QAEXPAVioHashString@@$$QAV3@@Z ; std::allocator<ioHashString>::construct
EXTRN	__imp_??0ioHashString@@QAE@ABV0@@Z:PROC
EXTRN	__EH_epilog3:PROC
EXTRN	__EH_prolog3:PROC
;	COMDAT xdata$x
xdata$x	SEGMENT
__unwindtable$?construct@?$allocator@VioHashString@@@std@@QAEXPAVioHashString@@$$QAV3@@Z DD 0ffffffffH
	DD	FLAT:__unwindfunclet$?construct@?$allocator@VioHashString@@@std@@QAEXPAVioHashString@@$$QAV3@@Z$0
__ehfuncinfo$?construct@?$allocator@VioHashString@@@std@@QAEXPAVioHashString@@$$QAV3@@Z DD 019930522H
	DD	01H
	DD	FLAT:__unwindtable$?construct@?$allocator@VioHashString@@@std@@QAEXPAVioHashString@@$$QAV3@@Z
	DD	2 DUP(00H)
	DD	2 DUP(00H)
	DD	00H
	DD	01H
; Function compile flags: /Ogsp
; File c:\program files (x86)\microsoft visual studio 10.0\vc\include\xmemory
xdata$x	ENDS
;	COMDAT ?construct@?$allocator@VioHashString@@@std@@QAEXPAVioHashString@@$$QAV3@@Z
_TEXT	SEGMENT
$T555787 = -16						; size = 4
__$EHRec$ = -12						; size = 12
__Ptr$ = 8						; size = 4
__Val$ = 12						; size = 4
?construct@?$allocator@VioHashString@@@std@@QAEXPAVioHashString@@$$QAV3@@Z PROC ; std::allocator<ioHashString>::construct, COMDAT
; _this$ = ecx

; 201  : 		{	// construct object at _Ptr with value _Val

  00000	6a 04		 push	 4
  00002	b8 00 00 00 00	 mov	 eax, __ehhandler$?construct@?$allocator@VioHashString@@@std@@QAEXPAVioHashString@@$$QAV3@@Z
  00007	e8 00 00 00 00	 call	 __EH_prolog3

; 202  : 		::new ((void _FARQ *)_Ptr) _Ty(_STD forward<_Ty>(_Val));

  0000c	8b 4d 08	 mov	 ecx, DWORD PTR __Ptr$[ebp]
  0000f	89 4d f0	 mov	 DWORD PTR $T555787[ebp], ecx
  00012	83 65 fc 00	 and	 DWORD PTR __$EHRec$[ebp+8], 0
  00016	85 c9		 test	 ecx, ecx
  00018	74 09		 je	 SHORT $LN3@construct
  0001a	ff 75 0c	 push	 DWORD PTR __Val$[ebp]
  0001d	ff 15 00 00 00
	00		 call	 DWORD PTR __imp_??0ioHashString@@QAE@ABV0@@Z
$LN3@construct:

; 203  : 		}

  00023	e8 00 00 00 00	 call	 __EH_epilog3
  00028	c2 08 00	 ret	 8
_TEXT	ENDS
;	COMDAT text$x
text$x	SEGMENT
__unwindfunclet$?construct@?$allocator@VioHashString@@@std@@QAEXPAVioHashString@@$$QAV3@@Z$0:
  00000	ff 75 08	 push	 DWORD PTR __Ptr$[ebp]
  00003	ff 75 f0	 push	 DWORD PTR $T555787[ebp]
  00006	e8 00 00 00 00	 call	 ??3@YAXPAX0@Z		; operator delete
  0000b	59		 pop	 ecx
  0000c	59		 pop	 ecx
  0000d	c3		 ret	 0
__ehhandler$?construct@?$allocator@VioHashString@@@std@@QAEXPAVioHashString@@$$QAV3@@Z:
  0000e	8b 54 24 08	 mov	 edx, DWORD PTR [esp+8]
  00012	8d 42 0c	 lea	 eax, DWORD PTR [edx+12]
  00015	8b 4a ec	 mov	 ecx, DWORD PTR [edx-20]
  00018	33 c8		 xor	 ecx, eax
  0001a	e8 00 00 00 00	 call	 @__security_check_cookie@4
  0001f	b8 00 00 00 00	 mov	 eax, OFFSET __ehfuncinfo$?construct@?$allocator@VioHashString@@@std@@QAEXPAVioHashString@@$$QAV3@@Z
  00024	e9 00 00 00 00	 jmp	 ___CxxFrameHandler3
text$x	ENDS
?construct@?$allocator@VioHashString@@@std@@QAEXPAVioHashString@@$$QAV3@@Z ENDP ; std::allocator<ioHashString>::construct
PUBLIC	??$_Ptr_cat@V?$_Vector_const_iterator@V?$_Vector_val@UWeaponInfo@@V?$allocator@UWeaponInfo@@@std@@@std@@@std@@PAUWeaponInfo@@@std@@YA?AU_Nonscalar_ptr_iterator_tag@0@AAV?$_Vector_const_iterator@V?$_Vector_val@UWeaponInfo@@V?$allocator@UWeaponInfo@@@std@@@std@@@0@AAPAUWeaponInfo@@@Z ; std::_Ptr_cat<std::_Vector_const_iterator<std::_Vector_val<WeaponInfo,std::allocator<WeaponInfo> > >,WeaponInfo *>
; Function compile flags: /Ogsp
; File c:\program files (x86)\microsoft visual studio 10.0\vc\include\xutility
;	COMDAT ??$_Ptr_cat@V?$_Vector_const_iterator@V?$_Vector_val@UWeaponInfo@@V?$allocator@UWeaponInfo@@@std@@@std@@@std@@PAUWeaponInfo@@@std@@YA?AU_Nonscalar_ptr_iterator_tag@0@AAV?$_Vector_const_iterator@V?$_Vector_val@UWeaponInfo@@V?$allocator@UWeaponInfo@@@std@@@std@@@0@AAPAUWeaponInfo@@@Z
_TEXT	SEGMENT
__Cat$ = -1						; size = 1
___formal$ = 8						; size = 4
___formal$ = 12						; size = 4
??$_Ptr_cat@V?$_Vector_const_iterator@V?$_Vector_val@UWeaponInfo@@V?$allocator@UWeaponInfo@@@std@@@std@@@std@@PAUWeaponInfo@@@std@@YA?AU_Nonscalar_ptr_iterator_tag@0@AAV?$_Vector_const_iterator@V?$_Vector_val@UWeaponInfo@@V?$allocator@UWeaponInfo@@@std@@@std@@@0@AAPAUWeaponInfo@@@Z PROC ; std::_Ptr_cat<std::_Vector_const_iterator<std::_Vector_val<WeaponInfo,std::allocator<WeaponInfo> > >,WeaponInfo *>, COMDAT

; 485  : 	{	// return pointer category from arbitrary arguments

  00000	55		 push	 ebp
  00001	8b ec		 mov	 ebp, esp
  00003	51		 push	 ecx

; 486  : 	_Nonscalar_ptr_iterator_tag _Cat;
; 487  : 	return (_Cat);

  00004	8a 45 ff	 mov	 al, BYTE PTR __Cat$[ebp]

; 488  : 	}

  00007	c9		 leave
  00008	c3		 ret	 0
??$_Ptr_cat@V?$_Vector_const_iterator@V?$_Vector_val@UWeaponInfo@@V?$allocator@UWeaponInfo@@@std@@@std@@@std@@PAUWeaponInfo@@@std@@YA?AU_Nonscalar_ptr_iterator_tag@0@AAV?$_Vector_const_iterator@V?$_Vector_val@UWeaponInfo@@V?$allocator@UWeaponInfo@@@std@@@std@@@0@AAPAUWeaponInfo@@@Z ENDP ; std::_Ptr_cat<std::_Vector_const_iterator<std::_Vector_val<WeaponInfo,std::allocator<WeaponInfo> > >,WeaponInfo *>
_TEXT	ENDS
PUBLIC	??$_Ptr_cat@V?$_Vector_const_iterator@V?$_Vector_val@UForceInfo@@V?$allocator@UForceInfo@@@std@@@std@@@std@@PAUForceInfo@@@std@@YA?AU_Nonscalar_ptr_iterator_tag@0@AAV?$_Vector_const_iterator@V?$_Vector_val@UForceInfo@@V?$allocator@UForceInfo@@@std@@@std@@@0@AAPAUForceInfo@@@Z ; std::_Ptr_cat<std::_Vector_const_iterator<std::_Vector_val<ForceInfo,std::allocator<ForceInfo> > >,ForceInfo *>
; Function compile flags: /Ogsp
;	COMDAT ??$_Ptr_cat@V?$_Vector_const_iterator@V?$_Vector_val@UForceInfo@@V?$allocator@UForceInfo@@@std@@@std@@@std@@PAUForceInfo@@@std@@YA?AU_Nonscalar_ptr_iterator_tag@0@AAV?$_Vector_const_iterator@V?$_Vector_val@UForceInfo@@V?$allocator@UForceInfo@@@std@@@std@@@0@AAPAUForceInfo@@@Z
_TEXT	SEGMENT
__Cat$ = -1						; size = 1
___formal$ = 8						; size = 4
___formal$ = 12						; size = 4
??$_Ptr_cat@V?$_Vector_const_iterator@V?$_Vector_val@UForceInfo@@V?$allocator@UForceInfo@@@std@@@std@@@std@@PAUForceInfo@@@std@@YA?AU_Nonscalar_ptr_iterator_tag@0@AAV?$_Vector_const_iterator@V?$_Vector_val@UForceInfo@@V?$allocator@UForceInfo@@@std@@@std@@@0@AAPAUForceInfo@@@Z PROC ; std::_Ptr_cat<std::_Vector_const_iterator<std::_Vector_val<ForceInfo,std::allocator<ForceInfo> > >,ForceInfo *>, COMDAT

; 485  : 	{	// return pointer category from arbitrary arguments

  00000	55		 push	 ebp
  00001	8b ec		 mov	 ebp, esp
  00003	51		 push	 ecx

; 486  : 	_Nonscalar_ptr_iterator_tag _Cat;
; 487  : 	return (_Cat);

  00004	8a 45 ff	 mov	 al, BYTE PTR __Cat$[ebp]

; 488  : 	}

  00007	c9		 leave
  00008	c3		 ret	 0
??$_Ptr_cat@V?$_Vector_const_iterator@V?$_Vector_val@UForceInfo@@V?$allocator@UForceInfo@@@std@@@std@@@std@@PAUForceInfo@@@std@@YA?AU_Nonscalar_ptr_iterator_tag@0@AAV?$_Vector_const_iterator@V?$_Vector_val@UForceInfo@@V?$allocator@UForceInfo@@@std@@@std@@@0@AAPAUForceInfo@@@Z ENDP ; std::_Ptr_cat<std::_Vector_const_iterator<std::_Vector_val<ForceInfo,std::allocator<ForceInfo> > >,ForceInfo *>
_TEXT	ENDS
PUBLIC	??$_Val_type@PAVioHashString@@@std@@YAPAVioHashString@@PAV1@@Z ; std::_Val_type<ioHashString *>
; Function compile flags: /Ogsp
;	COMDAT ??$_Val_type@PAVioHashString@@@std@@YAPAVioHashString@@PAV1@@Z
_TEXT	SEGMENT
___formal$ = 8						; size = 4
??$_Val_type@PAVioHashString@@@std@@YAPAVioHashString@@PAV1@@Z PROC ; std::_Val_type<ioHashString *>, COMDAT

; 790  : 	return (0);

  00000	33 c0		 xor	 eax, eax

; 791  : 	}

  00002	c3		 ret	 0
??$_Val_type@PAVioHashString@@@std@@YAPAVioHashString@@PAV1@@Z ENDP ; std::_Val_type<ioHashString *>
_TEXT	ENDS
PUBLIC	??D?$_Vector_const_iterator@V?$_Vector_val@UWeaponInfo@@V?$allocator@UWeaponInfo@@@std@@@std@@@std@@QBEABUWeaponInfo@@XZ ; std::_Vector_const_iterator<std::_Vector_val<WeaponInfo,std::allocator<WeaponInfo> > >::operator*
; Function compile flags: /Ogsp
; File c:\program files (x86)\microsoft visual studio 10.0\vc\include\vector
;	COMDAT ??D?$_Vector_const_iterator@V?$_Vector_val@UWeaponInfo@@V?$allocator@UWeaponInfo@@@std@@@std@@@std@@QBEABUWeaponInfo@@XZ
_TEXT	SEGMENT
??D?$_Vector_const_iterator@V?$_Vector_val@UWeaponInfo@@V?$allocator@UWeaponInfo@@@std@@@std@@@std@@QBEABUWeaponInfo@@XZ PROC ; std::_Vector_const_iterator<std::_Vector_val<WeaponInfo,std::allocator<WeaponInfo> > >::operator*, COMDAT
; _this$ = ecx

; 64   :  #if _ITERATOR_DEBUG_LEVEL == 2
; 65   : 		if (this->_Getcont() == 0
; 66   : 			|| this->_Ptr == 0
; 67   : 			|| this->_Ptr < ((_Myvec *)this->_Getcont())->_Myfirst
; 68   : 			|| ((_Myvec *)this->_Getcont())->_Mylast <= this->_Ptr)
; 69   : 			{	// report error
; 70   : 			_DEBUG_ERROR("vector iterator not dereferencable");
; 71   : 			_SCL_SECURE_OUT_OF_RANGE;
; 72   : 			}
; 73   : 
; 74   :  #elif _ITERATOR_DEBUG_LEVEL == 1
; 75   : 		_SCL_SECURE_VALIDATE(this->_Getcont() != 0);
; 76   : 		_SCL_SECURE_VALIDATE_RANGE(
; 77   : 			this->_Ptr != 0
; 78   : 			&& ((_Myvec *)this->_Getcont())->_Myfirst <= this->_Ptr
; 79   : 			&& this->_Ptr < ((_Myvec *)this->_Getcont())->_Mylast);
; 80   :  #endif /* _ITERATOR_DEBUG_LEVEL */
; 81   : 
; 82   : 		__analysis_assume(this->_Ptr != 0);
; 83   : 
; 84   : 		return (*this->_Ptr);

  00000	8b 01		 mov	 eax, DWORD PTR [ecx]

; 85   : 		}

  00002	c3		 ret	 0
??D?$_Vector_const_iterator@V?$_Vector_val@UWeaponInfo@@V?$allocator@UWeaponInfo@@@std@@@std@@@std@@QBEABUWeaponInfo@@XZ ENDP ; std::_Vector_const_iterator<std::_Vector_val<WeaponInfo,std::allocator<WeaponInfo> > >::operator*
_TEXT	ENDS
PUBLIC	??E?$_Vector_const_iterator@V?$_Vector_val@UWeaponInfo@@V?$allocator@UWeaponInfo@@@std@@@std@@@std@@QAEAAV01@XZ ; std::_Vector_const_iterator<std::_Vector_val<WeaponInfo,std::allocator<WeaponInfo> > >::operator++
; Function compile flags: /Ogsp
;	COMDAT ??E?$_Vector_const_iterator@V?$_Vector_val@UWeaponInfo@@V?$allocator@UWeaponInfo@@@std@@@std@@@std@@QAEAAV01@XZ
_TEXT	SEGMENT
??E?$_Vector_const_iterator@V?$_Vector_val@UWeaponInfo@@V?$allocator@UWeaponInfo@@@std@@@std@@@std@@QAEAAV01@XZ PROC ; std::_Vector_const_iterator<std::_Vector_val<WeaponInfo,std::allocator<WeaponInfo> > >::operator++, COMDAT
; _this$ = ecx

; 93   : 		{	// preincrement

  00000	8b c1		 mov	 eax, ecx

; 94   :  #if _ITERATOR_DEBUG_LEVEL == 2
; 95   : 		if (this->_Getcont() == 0
; 96   : 			|| this->_Ptr == 0
; 97   : 			|| ((_Myvec *)this->_Getcont())->_Mylast <= this->_Ptr)
; 98   : 			{	// report error
; 99   : 			_DEBUG_ERROR("vector iterator not incrementable");
; 100  : 			_SCL_SECURE_OUT_OF_RANGE;
; 101  : 			}
; 102  : 
; 103  :  #elif _ITERATOR_DEBUG_LEVEL == 1
; 104  : 		_SCL_SECURE_VALIDATE(this->_Getcont() != 0);
; 105  : 		_SCL_SECURE_VALIDATE_RANGE(
; 106  : 			this->_Ptr != 0
; 107  : 			&& this->_Ptr < ((_Myvec *)this->_Getcont())->_Mylast);
; 108  :  #endif /* _ITERATOR_DEBUG_LEVEL */
; 109  : 
; 110  : 		++this->_Ptr;

  00002	83 00 28	 add	 DWORD PTR [eax], 40	; 00000028H

; 111  : 		return (*this);
; 112  : 		}

  00005	c3		 ret	 0
??E?$_Vector_const_iterator@V?$_Vector_val@UWeaponInfo@@V?$allocator@UWeaponInfo@@@std@@@std@@@std@@QAEAAV01@XZ ENDP ; std::_Vector_const_iterator<std::_Vector_val<WeaponInfo,std::allocator<WeaponInfo> > >::operator++
_TEXT	ENDS
PUBLIC	??D?$_Vector_const_iterator@V?$_Vector_val@UForceInfo@@V?$allocator@UForceInfo@@@std@@@std@@@std@@QBEABUForceInfo@@XZ ; std::_Vector_const_iterator<std::_Vector_val<ForceInfo,std::allocator<ForceInfo> > >::operator*
; Function compile flags: /Ogsp
;	COMDAT ??D?$_Vector_const_iterator@V?$_Vector_val@UForceInfo@@V?$allocator@UForceInfo@@@std@@@std@@@std@@QBEABUForceInfo@@XZ
_TEXT	SEGMENT
??D?$_Vector_const_iterator@V?$_Vector_val@UForceInfo@@V?$allocator@UForceInfo@@@std@@@std@@@std@@QBEABUForceInfo@@XZ PROC ; std::_Vector_const_iterator<std::_Vector_val<ForceInfo,std::allocator<ForceInfo> > >::operator*, COMDAT
; _this$ = ecx

; 64   :  #if _ITERATOR_DEBUG_LEVEL == 2
; 65   : 		if (this->_Getcont() == 0
; 66   : 			|| this->_Ptr == 0
; 67   : 			|| this->_Ptr < ((_Myvec *)this->_Getcont())->_Myfirst
; 68   : 			|| ((_Myvec *)this->_Getcont())->_Mylast <= this->_Ptr)
; 69   : 			{	// report error
; 70   : 			_DEBUG_ERROR("vector iterator not dereferencable");
; 71   : 			_SCL_SECURE_OUT_OF_RANGE;
; 72   : 			}
; 73   : 
; 74   :  #elif _ITERATOR_DEBUG_LEVEL == 1
; 75   : 		_SCL_SECURE_VALIDATE(this->_Getcont() != 0);
; 76   : 		_SCL_SECURE_VALIDATE_RANGE(
; 77   : 			this->_Ptr != 0
; 78   : 			&& ((_Myvec *)this->_Getcont())->_Myfirst <= this->_Ptr
; 79   : 			&& this->_Ptr < ((_Myvec *)this->_Getcont())->_Mylast);
; 80   :  #endif /* _ITERATOR_DEBUG_LEVEL */
; 81   : 
; 82   : 		__analysis_assume(this->_Ptr != 0);
; 83   : 
; 84   : 		return (*this->_Ptr);

  00000	8b 01		 mov	 eax, DWORD PTR [ecx]

; 85   : 		}

  00002	c3		 ret	 0
??D?$_Vector_const_iterator@V?$_Vector_val@UForceInfo@@V?$allocator@UForceInfo@@@std@@@std@@@std@@QBEABUForceInfo@@XZ ENDP ; std::_Vector_const_iterator<std::_Vector_val<ForceInfo,std::allocator<ForceInfo> > >::operator*
_TEXT	ENDS
PUBLIC	??E?$_Vector_const_iterator@V?$_Vector_val@UForceInfo@@V?$allocator@UForceInfo@@@std@@@std@@@std@@QAEAAV01@XZ ; std::_Vector_const_iterator<std::_Vector_val<ForceInfo,std::allocator<ForceInfo> > >::operator++
; Function compile flags: /Ogsp
;	COMDAT ??E?$_Vector_const_iterator@V?$_Vector_val@UForceInfo@@V?$allocator@UForceInfo@@@std@@@std@@@std@@QAEAAV01@XZ
_TEXT	SEGMENT
??E?$_Vector_const_iterator@V?$_Vector_val@UForceInfo@@V?$allocator@UForceInfo@@@std@@@std@@@std@@QAEAAV01@XZ PROC ; std::_Vector_const_iterator<std::_Vector_val<ForceInfo,std::allocator<ForceInfo> > >::operator++, COMDAT
; _this$ = ecx

; 93   : 		{	// preincrement

  00000	8b c1		 mov	 eax, ecx

; 94   :  #if _ITERATOR_DEBUG_LEVEL == 2
; 95   : 		if (this->_Getcont() == 0
; 96   : 			|| this->_Ptr == 0
; 97   : 			|| ((_Myvec *)this->_Getcont())->_Mylast <= this->_Ptr)
; 98   : 			{	// report error
; 99   : 			_DEBUG_ERROR("vector iterator not incrementable");
; 100  : 			_SCL_SECURE_OUT_OF_RANGE;
; 101  : 			}
; 102  : 
; 103  :  #elif _ITERATOR_DEBUG_LEVEL == 1
; 104  : 		_SCL_SECURE_VALIDATE(this->_Getcont() != 0);
; 105  : 		_SCL_SECURE_VALIDATE_RANGE(
; 106  : 			this->_Ptr != 0
; 107  : 			&& this->_Ptr < ((_Myvec *)this->_Getcont())->_Mylast);
; 108  :  #endif /* _ITERATOR_DEBUG_LEVEL */
; 109  : 
; 110  : 		++this->_Ptr;

  00002	83 00 0c	 add	 DWORD PTR [eax], 12	; 0000000cH

; 111  : 		return (*this);
; 112  : 		}

  00005	c3		 ret	 0
??E?$_Vector_const_iterator@V?$_Vector_val@UForceInfo@@V?$allocator@UForceInfo@@@std@@@std@@@std@@QAEAAV01@XZ ENDP ; std::_Vector_const_iterator<std::_Vector_val<ForceInfo,std::allocator<ForceInfo> > >::operator++
_TEXT	ENDS
PUBLIC	??$forward@ABUWeaponInfo@@@std@@YAABUWeaponInfo@@ABU1@@Z ; std::forward<WeaponInfo const &>
; Function compile flags: /Ogsp
; File c:\program files (x86)\microsoft visual studio 10.0\vc\include\utility
;	COMDAT ??$forward@ABUWeaponInfo@@@std@@YAABUWeaponInfo@@ABU1@@Z
_TEXT	SEGMENT
__Arg$ = 8						; size = 4
??$forward@ABUWeaponInfo@@@std@@YAABUWeaponInfo@@ABU1@@Z PROC ; std::forward<WeaponInfo const &>, COMDAT

; 78   : 	{	// forward _Arg, given explicitly specified type parameter

  00000	55		 push	 ebp
  00001	8b ec		 mov	 ebp, esp

; 79   : 	return ((_Ty&&)_Arg);

  00003	8b 45 08	 mov	 eax, DWORD PTR __Arg$[ebp]

; 80   : 	}

  00006	5d		 pop	 ebp
  00007	c3		 ret	 0
??$forward@ABUWeaponInfo@@@std@@YAABUWeaponInfo@@ABU1@@Z ENDP ; std::forward<WeaponInfo const &>
_TEXT	ENDS
PUBLIC	??$forward@ABUForceInfo@@@std@@YAABUForceInfo@@ABU1@@Z ; std::forward<ForceInfo const &>
; Function compile flags: /Ogsp
;	COMDAT ??$forward@ABUForceInfo@@@std@@YAABUForceInfo@@ABU1@@Z
_TEXT	SEGMENT
__Arg$ = 8						; size = 4
??$forward@ABUForceInfo@@@std@@YAABUForceInfo@@ABU1@@Z PROC ; std::forward<ForceInfo const &>, COMDAT

; 78   : 	{	// forward _Arg, given explicitly specified type parameter

  00000	55		 push	 ebp
  00001	8b ec		 mov	 ebp, esp

; 79   : 	return ((_Ty&&)_Arg);

  00003	8b 45 08	 mov	 eax, DWORD PTR __Arg$[ebp]

; 80   : 	}

  00006	5d		 pop	 ebp
  00007	c3		 ret	 0
??$forward@ABUForceInfo@@@std@@YAABUForceInfo@@ABU1@@Z ENDP ; std::forward<ForceInfo const &>
_TEXT	ENDS
PUBLIC	??$_Construct@UForceInfo@@ABU1@@std@@YAXPAUForceInfo@@ABU1@@Z ; std::_Construct<ForceInfo,ForceInfo const &>
; Function compile flags: /Ogsp
; File c:\program files (x86)\microsoft visual studio 10.0\vc\include\xmemory
;	COMDAT ??$_Construct@UForceInfo@@ABU1@@std@@YAXPAUForceInfo@@ABU1@@Z
_TEXT	SEGMENT
__Ptr$ = 8						; size = 4
__Val$ = 12						; size = 4
??$_Construct@UForceInfo@@ABU1@@std@@YAXPAUForceInfo@@ABU1@@Z PROC ; std::_Construct<ForceInfo,ForceInfo const &>, COMDAT

; 46   : 	{	// construct object at _Ptr with value _Val

  00000	55		 push	 ebp
  00001	8b ec		 mov	 ebp, esp
  00003	57		 push	 edi

; 47   : 	void _FARQ *_Vptr = _Ptr;
; 48   : 	::new (_Vptr) _Ty1(_STD forward<_Ty2>(_Val));

  00004	8b 7d 08	 mov	 edi, DWORD PTR __Ptr$[ebp]
  00007	85 ff		 test	 edi, edi
  00009	74 08		 je	 SHORT $LN3@Construct
  0000b	56		 push	 esi
  0000c	8b 75 0c	 mov	 esi, DWORD PTR __Val$[ebp]
  0000f	a5		 movsd
  00010	a5		 movsd
  00011	a5		 movsd
  00012	5e		 pop	 esi
$LN3@Construct:
  00013	5f		 pop	 edi

; 49   : 	}

  00014	5d		 pop	 ebp
  00015	c3		 ret	 0
??$_Construct@UForceInfo@@ABU1@@std@@YAXPAUForceInfo@@ABU1@@Z ENDP ; std::_Construct<ForceInfo,ForceInfo const &>
_TEXT	ENDS
PUBLIC	?_DECSTR@@YAXPADH@Z				; _DECSTR
; Function compile flags: /Ogsp
; File d:\lost saga for developer\youtube\tutorial\source\src\lsclient\stringprotect.h
;	COMDAT ?_DECSTR@@YAXPADH@Z
_TEXT	SEGMENT
_s$ = 8							; size = 4
_l$ = 12						; size = 4
?_DECSTR@@YAXPADH@Z PROC				; _DECSTR, COMDAT

; 40   : __forceinline void _DECSTR(char* s, int l){int i=0,l4=(l-1)/4,*p=(int*)s;s[l-1]=0;for(;i<l4;++i)*(p++)^=0xEAEBECED;for(i=l4*4;i<l-1;++i)s[i]^=0xED-i%4;}

  00000	55		 push	 ebp
  00001	8b ec		 mov	 ebp, esp
  00003	8b 4d 0c	 mov	 ecx, DWORD PTR _l$[ebp]
  00006	56		 push	 esi
  00007	8b 75 08	 mov	 esi, DWORD PTR _s$[ebp]
  0000a	57		 push	 edi
  0000b	8d 79 ff	 lea	 edi, DWORD PTR [ecx-1]
  0000e	8b c7		 mov	 eax, edi
  00010	99		 cdq
  00011	83 e2 03	 and	 edx, 3
  00014	03 c2		 add	 eax, edx
  00016	c1 f8 02	 sar	 eax, 2
  00019	8b d6		 mov	 edx, esi
  0001b	c6 44 0e ff 00	 mov	 BYTE PTR [esi+ecx-1], 0
  00020	85 c0		 test	 eax, eax
  00022	7e 0e		 jle	 SHORT $LN4@DECSTR
  00024	8b c8		 mov	 ecx, eax
$LL6@DECSTR:
  00026	81 32 ed ec eb
	ea		 xor	 DWORD PTR [edx], -353637139 ; eaebecedH
  0002c	83 c2 04	 add	 edx, 4
  0002f	49		 dec	 ecx
  00030	75 f4		 jne	 SHORT $LL6@DECSTR
$LN4@DECSTR:
  00032	c1 e0 02	 shl	 eax, 2
  00035	eb 17		 jmp	 SHORT $LN14@DECSTR
$LL3@DECSTR:
  00037	8b c8		 mov	 ecx, eax
  00039	81 e1 03 00 00
	80		 and	 ecx, -2147483645	; 80000003H
  0003f	79 05		 jns	 SHORT $LN13@DECSTR
  00041	49		 dec	 ecx
  00042	83 c9 fc	 or	 ecx, -4			; fffffffcH
  00045	41		 inc	 ecx
$LN13@DECSTR:
  00046	b2 ed		 mov	 dl, -19			; ffffffedH
  00048	2a d1		 sub	 dl, cl
  0004a	30 14 30	 xor	 BYTE PTR [eax+esi], dl
  0004d	40		 inc	 eax
$LN14@DECSTR:
  0004e	3b c7		 cmp	 eax, edi
  00050	7c e5		 jl	 SHORT $LL3@DECSTR
  00052	5f		 pop	 edi
  00053	5e		 pop	 esi
  00054	5d		 pop	 ebp
  00055	c3		 ret	 0
?_DECSTR@@YAXPADH@Z ENDP				; _DECSTR
_TEXT	ENDS
PUBLIC	?GetGroup@ioGameEntity@@QBEPAVioEntityGroup@@XZ	; ioGameEntity::GetGroup
; Function compile flags: /Ogsp
; File d:\lost saga for developer\youtube\tutorial\source\src\lsclient\iogameentity.h
;	COMDAT ?GetGroup@ioGameEntity@@QBEPAVioEntityGroup@@XZ
_TEXT	SEGMENT
?GetGroup@ioGameEntity@@QBEPAVioEntityGroup@@XZ PROC	; ioGameEntity::GetGroup, COMDAT
; _this$ = ecx

; 166  : 	inline ioEntityGroup* GetGroup() const { return m_pGroup; }

  00000	8b 41 04	 mov	 eax, DWORD PTR [ecx+4]
  00003	c3		 ret	 0
?GetGroup@ioGameEntity@@QBEPAVioEntityGroup@@XZ ENDP	; ioGameEntity::GetGroup
_TEXT	ENDS
PUBLIC	??1WeaponInfo@@QAE@XZ				; WeaponInfo::~WeaponInfo
EXTRN	__imp_??1ioHashString@@QAE@XZ:PROC
; Function compile flags: /Ogsp
;	COMDAT ??1WeaponInfo@@QAE@XZ
_TEXT	SEGMENT
??1WeaponInfo@@QAE@XZ PROC				; WeaponInfo::~WeaponInfo, COMDAT
; _this$ = ecx
  00000	83 c1 08	 add	 ecx, 8
  00003	ff 25 00 00 00
	00		 jmp	 DWORD PTR __imp_??1ioHashString@@QAE@XZ
??1WeaponInfo@@QAE@XZ ENDP				; WeaponInfo::~WeaponInfo
_TEXT	ENDS
PUBLIC	??_R0?AVioItem@@@8				; ioItem `RTTI Type Descriptor'
PUBLIC	??_R0?AVioWeaponItem@@@8			; ioWeaponItem `RTTI Type Descriptor'
PUBLIC	?ToWeaponItem@@YAPAVioWeaponItem@@PAVioItem@@@Z	; ToWeaponItem
;	COMDAT ??_R0?AVioItem@@@8
; File d:\lost saga for developer\youtube\tutorial\source\src\lsclient\ioweaponitem.h
_DATA	SEGMENT
??_R0?AVioItem@@@8 DD FLAT:??_7type_info@@6B@		; ioItem `RTTI Type Descriptor'
	DD	00H
	DB	'.?AVioItem@@', 00H
_DATA	ENDS
;	COMDAT ??_R0?AVioWeaponItem@@@8
_DATA	SEGMENT
??_R0?AVioWeaponItem@@@8 DD FLAT:??_7type_info@@6B@	; ioWeaponItem `RTTI Type Descriptor'
	DD	00H
	DB	'.?AVioWeaponItem@@', 00H
; Function compile flags: /Ogsp
_DATA	ENDS
;	COMDAT ?ToWeaponItem@@YAPAVioWeaponItem@@PAVioItem@@@Z
_TEXT	SEGMENT
_pItem$ = 8						; size = 4
?ToWeaponItem@@YAPAVioWeaponItem@@PAVioItem@@@Z PROC	; ToWeaponItem, COMDAT

; 303  : {

  00000	55		 push	 ebp
  00001	8b ec		 mov	 ebp, esp
  00003	56		 push	 esi

; 304  : 	if( !pItem || pItem->GetType() != ioItem::IT_WEAPON )

  00004	8b 75 08	 mov	 esi, DWORD PTR _pItem$[ebp]
  00007	85 f6		 test	 esi, esi
  00009	74 25		 je	 SHORT $LN1@ToWeaponIt
  0000b	8b 06		 mov	 eax, DWORD PTR [esi]
  0000d	8b ce		 mov	 ecx, esi
  0000f	ff 50 08	 call	 DWORD PTR [eax+8]
  00012	83 f8 01	 cmp	 eax, 1
  00015	75 19		 jne	 SHORT $LN1@ToWeaponIt

; 306  : 
; 307  : 	return dynamic_cast< ioWeaponItem* >( pItem );

  00017	6a 00		 push	 0
  00019	68 00 00 00 00	 push	 OFFSET ??_R0?AVioWeaponItem@@@8
  0001e	68 00 00 00 00	 push	 OFFSET ??_R0?AVioItem@@@8
  00023	6a 00		 push	 0
  00025	56		 push	 esi
  00026	e8 00 00 00 00	 call	 ___RTDynamicCast
  0002b	83 c4 14	 add	 esp, 20			; 00000014H
  0002e	eb 02		 jmp	 SHORT $LN3@ToWeaponIt
$LN1@ToWeaponIt:

; 305  : 		return NULL;

  00030	33 c0		 xor	 eax, eax
$LN3@ToWeaponIt:
  00032	5e		 pop	 esi

; 308  : }

  00033	5d		 pop	 ebp
  00034	c3		 ret	 0
?ToWeaponItem@@YAPAVioWeaponItem@@PAVioItem@@@Z ENDP	; ToWeaponItem
_TEXT	ENDS
PUBLIC	?size@?$vector@VioHashString@@V?$allocator@VioHashString@@@std@@@std@@QBEIXZ ; std::vector<ioHashString,std::allocator<ioHashString> >::size
; Function compile flags: /Ogsp
; File c:\program files (x86)\microsoft visual studio 10.0\vc\include\vector
;	COMDAT ?size@?$vector@VioHashString@@V?$allocator@VioHashString@@@std@@@std@@QBEIXZ
_TEXT	SEGMENT
?size@?$vector@VioHashString@@V?$allocator@VioHashString@@@std@@@std@@QBEIXZ PROC ; std::vector<ioHashString,std::allocator<ioHashString> >::size, COMDAT
; _this$ = ecx

; 879  : 		return (this->_Mylast - this->_Myfirst);

  00000	8b 41 04	 mov	 eax, DWORD PTR [ecx+4]
  00003	2b 01		 sub	 eax, DWORD PTR [ecx]
  00005	c1 f8 04	 sar	 eax, 4

; 880  : 		}

  00008	c3		 ret	 0
?size@?$vector@VioHashString@@V?$allocator@VioHashString@@@std@@@std@@QBEIXZ ENDP ; std::vector<ioHashString,std::allocator<ioHashString> >::size
_TEXT	ENDS
PUBLIC	??_7?$CEncrypt@M@@6B@				; CEncrypt<float>::`vftable'
PUBLIC	??1?$CEncrypt@M@@UAE@XZ				; CEncrypt<float>::~CEncrypt<float>
PUBLIC	??_R4?$CEncrypt@M@@6B@				; CEncrypt<float>::`RTTI Complete Object Locator'
PUBLIC	??_R0?AV?$CEncrypt@M@@@8			; CEncrypt<float> `RTTI Type Descriptor'
PUBLIC	??_R3?$CEncrypt@M@@8				; CEncrypt<float>::`RTTI Class Hierarchy Descriptor'
PUBLIC	??_R2?$CEncrypt@M@@8				; CEncrypt<float>::`RTTI Base Class Array'
PUBLIC	??_R1A@?0A@EA@?$CEncrypt@M@@8			; CEncrypt<float>::`RTTI Base Class Descriptor at (0,-1,0,64)'
EXTRN	??1ccddaabb@@UAE@XZ:PROC			; ccddaabb::~ccddaabb
EXTRN	??_E?$CEncrypt@M@@UAEPAXI@Z:PROC		; CEncrypt<float>::`vector deleting destructor'
;	COMDAT ??_R1A@?0A@EA@?$CEncrypt@M@@8
; File d:\lost saga for developer\youtube\tutorial\source\src\lsclient\encryptvalue.h
rdata$r	SEGMENT
??_R1A@?0A@EA@?$CEncrypt@M@@8 DD FLAT:??_R0?AV?$CEncrypt@M@@@8 ; CEncrypt<float>::`RTTI Base Class Descriptor at (0,-1,0,64)'
	DD	00H
	DD	00H
	DD	0ffffffffH
	DD	00H
	DD	040H
	DD	FLAT:??_R3?$CEncrypt@M@@8
rdata$r	ENDS
;	COMDAT ??_R2?$CEncrypt@M@@8
rdata$r	SEGMENT
??_R2?$CEncrypt@M@@8 DD FLAT:??_R1A@?0A@EA@?$CEncrypt@M@@8 ; CEncrypt<float>::`RTTI Base Class Array'
rdata$r	ENDS
;	COMDAT ??_R3?$CEncrypt@M@@8
rdata$r	SEGMENT
??_R3?$CEncrypt@M@@8 DD 00H				; CEncrypt<float>::`RTTI Class Hierarchy Descriptor'
	DD	00H
	DD	01H
	DD	FLAT:??_R2?$CEncrypt@M@@8
rdata$r	ENDS
;	COMDAT ??_R0?AV?$CEncrypt@M@@@8
_DATA	SEGMENT
??_R0?AV?$CEncrypt@M@@@8 DD FLAT:??_7type_info@@6B@	; CEncrypt<float> `RTTI Type Descriptor'
	DD	00H
	DB	'.?AV?$CEncrypt@M@@', 00H
_DATA	ENDS
;	COMDAT ??_R4?$CEncrypt@M@@6B@
rdata$r	SEGMENT
??_R4?$CEncrypt@M@@6B@ DD 00H				; CEncrypt<float>::`RTTI Complete Object Locator'
	DD	00H
	DD	00H
	DD	FLAT:??_R0?AV?$CEncrypt@M@@@8
	DD	FLAT:??_R3?$CEncrypt@M@@8
rdata$r	ENDS
;	COMDAT ??_7?$CEncrypt@M@@6B@
CONST	SEGMENT
??_7?$CEncrypt@M@@6B@ DD FLAT:??_R4?$CEncrypt@M@@6B@	; CEncrypt<float>::`vftable'
	DD	FLAT:??_E?$CEncrypt@M@@UAEPAXI@Z
; Function compile flags: /Ogsp
CONST	ENDS
;	COMDAT ??1?$CEncrypt@M@@UAE@XZ
_TEXT	SEGMENT
??1?$CEncrypt@M@@UAE@XZ PROC				; CEncrypt<float>::~CEncrypt<float>, COMDAT
; _this$ = ecx

; 127  : 	{

  00000	c7 01 00 00 00
	00		 mov	 DWORD PTR [ecx], OFFSET ??_7?$CEncrypt@M@@6B@

; 128  : 	}

  00006	83 c1 0c	 add	 ecx, 12			; 0000000cH
  00009	e9 00 00 00 00	 jmp	 ??1ccddaabb@@UAE@XZ	; ccddaabb::~ccddaabb
??1?$CEncrypt@M@@UAE@XZ ENDP				; CEncrypt<float>::~CEncrypt<float>
; Function compile flags: /Ogsp
_TEXT	ENDS
;	COMDAT ??_G?$CEncrypt@M@@UAEPAXI@Z
_TEXT	SEGMENT
___flags$ = 8						; size = 4
??_G?$CEncrypt@M@@UAEPAXI@Z PROC			; CEncrypt<float>::`scalar deleting destructor', COMDAT
; _this$ = ecx
  00000	55		 push	 ebp
  00001	8b ec		 mov	 ebp, esp
  00003	56		 push	 esi
  00004	8b f1		 mov	 esi, ecx
  00006	8d 4e 0c	 lea	 ecx, DWORD PTR [esi+12]
  00009	c7 06 00 00 00
	00		 mov	 DWORD PTR [esi], OFFSET ??_7?$CEncrypt@M@@6B@
  0000f	e8 00 00 00 00	 call	 ??1ccddaabb@@UAE@XZ	; ccddaabb::~ccddaabb
  00014	f6 45 08 01	 test	 BYTE PTR ___flags$[ebp], 1
  00018	74 07		 je	 SHORT $LN1@scalar@2
  0001a	56		 push	 esi
  0001b	e8 00 00 00 00	 call	 ??3@YAXPAX@Z		; operator delete
  00020	59		 pop	 ecx
$LN1@scalar@2:
  00021	8b c6		 mov	 eax, esi
  00023	5e		 pop	 esi
  00024	5d		 pop	 ebp
  00025	c2 04 00	 ret	 4
??_G?$CEncrypt@M@@UAEPAXI@Z ENDP			; CEncrypt<float>::`scalar deleting destructor'
_TEXT	ENDS
PUBLIC	??1?$_Vector_val@VioHashString@@V?$allocator@VioHashString@@@std@@@std@@QAE@XZ ; std::_Vector_val<ioHashString,std::allocator<ioHashString> >::~_Vector_val<ioHashString,std::allocator<ioHashString> >
; Function compile flags: /Ogsp
; File c:\program files (x86)\microsoft visual studio 10.0\vc\include\vector
;	COMDAT ??1?$_Vector_val@VioHashString@@V?$allocator@VioHashString@@@std@@@std@@QAE@XZ
_TEXT	SEGMENT
??1?$_Vector_val@VioHashString@@V?$allocator@VioHashString@@@std@@@std@@QAE@XZ PROC ; std::_Vector_val<ioHashString,std::allocator<ioHashString> >::~_Vector_val<ioHashString,std::allocator<ioHashString> >, COMDAT
; _this$ = ecx

; 434  : 		}

  00000	c3		 ret	 0
??1?$_Vector_val@VioHashString@@V?$allocator@VioHashString@@@std@@@std@@QAE@XZ ENDP ; std::_Vector_val<ioHashString,std::allocator<ioHashString> >::~_Vector_val<ioHashString,std::allocator<ioHashString> >
_TEXT	ENDS
PUBLIC	??0?$allocator@VioHashString@@@std@@QAE@XZ	; std::allocator<ioHashString>::allocator<ioHashString>
; Function compile flags: /Ogsp
; File c:\program files (x86)\microsoft visual studio 10.0\vc\include\xmemory
;	COMDAT ??0?$allocator@VioHashString@@@std@@QAE@XZ
_TEXT	SEGMENT
??0?$allocator@VioHashString@@@std@@QAE@XZ PROC		; std::allocator<ioHashString>::allocator<ioHashString>, COMDAT
; _this$ = ecx

; 161  : 	_ALLOCATOR() _THROW0()

  00000	8b c1		 mov	 eax, ecx

; 162  : 		{	// construct default allocator (do nothing)
; 163  : 		}

  00002	c3		 ret	 0
??0?$allocator@VioHashString@@@std@@QAE@XZ ENDP		; std::allocator<ioHashString>::allocator<ioHashString>
_TEXT	ENDS
PUBLIC	??0?$allocator@VioHashString@@@std@@QAE@ABV01@@Z ; std::allocator<ioHashString>::allocator<ioHashString>
; Function compile flags: /Ogsp
;	COMDAT ??0?$allocator@VioHashString@@@std@@QAE@ABV01@@Z
_TEXT	SEGMENT
___formal$ = 8						; size = 4
??0?$allocator@VioHashString@@@std@@QAE@ABV01@@Z PROC	; std::allocator<ioHashString>::allocator<ioHashString>, COMDAT
; _this$ = ecx

; 165  : 	_ALLOCATOR(const _ALLOCATOR<_Ty>&) _THROW0()

  00000	8b c1		 mov	 eax, ecx

; 166  : 		{	// construct by copying (do nothing)
; 167  : 		}

  00002	c2 04 00	 ret	 4
??0?$allocator@VioHashString@@@std@@QAE@ABV01@@Z ENDP	; std::allocator<ioHashString>::allocator<ioHashString>
_TEXT	ENDS
PUBLIC	??1?$_Vector_val@UWeaponInfo@@V?$allocator@UWeaponInfo@@@std@@@std@@QAE@XZ ; std::_Vector_val<WeaponInfo,std::allocator<WeaponInfo> >::~_Vector_val<WeaponInfo,std::allocator<WeaponInfo> >
; Function compile flags: /Ogsp
; File c:\program files (x86)\microsoft visual studio 10.0\vc\include\vector
;	COMDAT ??1?$_Vector_val@UWeaponInfo@@V?$allocator@UWeaponInfo@@@std@@@std@@QAE@XZ
_TEXT	SEGMENT
??1?$_Vector_val@UWeaponInfo@@V?$allocator@UWeaponInfo@@@std@@@std@@QAE@XZ PROC ; std::_Vector_val<WeaponInfo,std::allocator<WeaponInfo> >::~_Vector_val<WeaponInfo,std::allocator<WeaponInfo> >, COMDAT
; _this$ = ecx

; 434  : 		}

  00000	c3		 ret	 0
??1?$_Vector_val@UWeaponInfo@@V?$allocator@UWeaponInfo@@@std@@@std@@QAE@XZ ENDP ; std::_Vector_val<WeaponInfo,std::allocator<WeaponInfo> >::~_Vector_val<WeaponInfo,std::allocator<WeaponInfo> >
_TEXT	ENDS
PUBLIC	??0?$allocator@UWeaponInfo@@@std@@QAE@XZ	; std::allocator<WeaponInfo>::allocator<WeaponInfo>
; Function compile flags: /Ogsp
; File c:\program files (x86)\microsoft visual studio 10.0\vc\include\xmemory
;	COMDAT ??0?$allocator@UWeaponInfo@@@std@@QAE@XZ
_TEXT	SEGMENT
??0?$allocator@UWeaponInfo@@@std@@QAE@XZ PROC		; std::allocator<WeaponInfo>::allocator<WeaponInfo>, COMDAT
; _this$ = ecx

; 161  : 	_ALLOCATOR() _THROW0()

  00000	8b c1		 mov	 eax, ecx

; 162  : 		{	// construct default allocator (do nothing)
; 163  : 		}

  00002	c3		 ret	 0
??0?$allocator@UWeaponInfo@@@std@@QAE@XZ ENDP		; std::allocator<WeaponInfo>::allocator<WeaponInfo>
_TEXT	ENDS
PUBLIC	??1?$_Vector_val@UForceInfo@@V?$allocator@UForceInfo@@@std@@@std@@QAE@XZ ; std::_Vector_val<ForceInfo,std::allocator<ForceInfo> >::~_Vector_val<ForceInfo,std::allocator<ForceInfo> >
; Function compile flags: /Ogsp
; File c:\program files (x86)\microsoft visual studio 10.0\vc\include\vector
;	COMDAT ??1?$_Vector_val@UForceInfo@@V?$allocator@UForceInfo@@@std@@@std@@QAE@XZ
_TEXT	SEGMENT
??1?$_Vector_val@UForceInfo@@V?$allocator@UForceInfo@@@std@@@std@@QAE@XZ PROC ; std::_Vector_val<ForceInfo,std::allocator<ForceInfo> >::~_Vector_val<ForceInfo,std::allocator<ForceInfo> >, COMDAT
; _this$ = ecx

; 434  : 		}

  00000	c3		 ret	 0
??1?$_Vector_val@UForceInfo@@V?$allocator@UForceInfo@@@std@@@std@@QAE@XZ ENDP ; std::_Vector_val<ForceInfo,std::allocator<ForceInfo> >::~_Vector_val<ForceInfo,std::allocator<ForceInfo> >
_TEXT	ENDS
PUBLIC	??0?$allocator@UForceInfo@@@std@@QAE@XZ		; std::allocator<ForceInfo>::allocator<ForceInfo>
; Function compile flags: /Ogsp
; File c:\program files (x86)\microsoft visual studio 10.0\vc\include\xmemory
;	COMDAT ??0?$allocator@UForceInfo@@@std@@QAE@XZ
_TEXT	SEGMENT
??0?$allocator@UForceInfo@@@std@@QAE@XZ PROC		; std::allocator<ForceInfo>::allocator<ForceInfo>, COMDAT
; _this$ = ecx

; 161  : 	_ALLOCATOR() _THROW0()

  00000	8b c1		 mov	 eax, ecx

; 162  : 		{	// construct default allocator (do nothing)
; 163  : 		}

  00002	c3		 ret	 0
??0?$allocator@UForceInfo@@@std@@QAE@XZ ENDP		; std::allocator<ForceInfo>::allocator<ForceInfo>
_TEXT	ENDS
PUBLIC	?EncryptValueToPool@?$CEncrypt@M@@AAEXPBD@Z	; CEncrypt<float>::EncryptValueToPool
EXTRN	?EncryptByte@ccddaabb@@QAEXPBDPADH@Z:PROC	; ccddaabb::EncryptByte
; Function compile flags: /Ogsp
; File d:\lost saga for developer\youtube\tutorial\source\src\lsclient\encryptvalue.h
;	COMDAT ?EncryptValueToPool@?$CEncrypt@M@@AAEXPBD@Z
_TEXT	SEGMENT
_value$ = 8						; size = 4
?EncryptValueToPool@?$CEncrypt@M@@AAEXPBD@Z PROC	; CEncrypt<float>::EncryptValueToPool, COMDAT
; _this$ = ecx

; 67   : 	{

  00000	55		 push	 ebp
  00001	8b ec		 mov	 ebp, esp

; 68   : 		m_RC5.EncryptByte( value, m_MemPool, max(m_ValueSize, DEFAULT_ENCRYPT) );

  00003	0f b7 41 06	 movzx	 eax, WORD PTR [ecx+6]
  00007	83 f8 04	 cmp	 eax, 4
  0000a	77 03		 ja	 SHORT $LN4@EncryptVal
  0000c	6a 04		 push	 4
  0000e	58		 pop	 eax
$LN4@EncryptVal:
  0000f	50		 push	 eax
  00010	8d 41 1c	 lea	 eax, DWORD PTR [ecx+28]
  00013	50		 push	 eax
  00014	ff 75 08	 push	 DWORD PTR _value$[ebp]
  00017	83 c1 0c	 add	 ecx, 12			; 0000000cH
  0001a	e8 00 00 00 00	 call	 ?EncryptByte@ccddaabb@@QAEXPBDPADH@Z ; ccddaabb::EncryptByte

; 69   : 		
; 70   : 	}

  0001f	5d		 pop	 ebp
  00020	c2 04 00	 ret	 4
?EncryptValueToPool@?$CEncrypt@M@@AAEXPBD@Z ENDP	; CEncrypt<float>::EncryptValueToPool
_TEXT	ENDS
PUBLIC	?Init@?$CEncrypt@M@@AAEXXZ			; CEncrypt<float>::Init
EXTRN	?Setup@ccddaabb@@QAEXPBDHH@Z:PROC		; ccddaabb::Setup
EXTRN	__imp__rand:PROC
EXTRN	__imp__timeGetTime@0:PROC
EXTRN	__imp__GetCurrentProcessId@0:PROC
; Function compile flags: /Ogsp
;	COMDAT ?Init@?$CEncrypt@M@@AAEXXZ
_TEXT	SEGMENT
_pid$ = -8						; size = 4
_tick$ = -4						; size = 4
?Init@?$CEncrypt@M@@AAEXXZ PROC				; CEncrypt<float>::Init, COMDAT
; _this$ = ecx

; 73   : 	{

  00000	55		 push	 ebp
  00001	8b ec		 mov	 ebp, esp
  00003	51		 push	 ecx
  00004	51		 push	 ecx
  00005	53		 push	 ebx
  00006	56		 push	 esi
  00007	57		 push	 edi
  00008	8b f1		 mov	 esi, ecx

; 74   : 		DWORD pid = GetCurrentProcessId();

  0000a	ff 15 00 00 00
	00		 call	 DWORD PTR __imp__GetCurrentProcessId@0
  00010	89 45 f8	 mov	 DWORD PTR _pid$[ebp], eax

; 75   : 		DWORD tick = timeGetTime();

  00013	ff 15 00 00 00
	00		 call	 DWORD PTR __imp__timeGetTime@0

; 76   : 		m_ValueSize    = sizeof(type);
; 77   : 		m_MemPoolPos   = (unsigned short)( rand()+pid+tick )%(MAX_MEM_POOL-m_ValueSize);

  00019	8b 3d 00 00 00
	00		 mov	 edi, DWORD PTR __imp__rand
  0001f	89 45 fc	 mov	 DWORD PTR _tick$[ebp], eax
  00022	6a 04		 push	 4
  00024	58		 pop	 eax
  00025	66 89 46 06	 mov	 WORD PTR [esi+6], ax
  00029	ff d7		 call	 edi
  0002b	03 45 f8	 add	 eax, DWORD PTR _pid$[ebp]
  0002e	0f b7 4e 06	 movzx	 ecx, WORD PTR [esi+6]
  00032	03 45 fc	 add	 eax, DWORD PTR _tick$[ebp]
  00035	6a 0c		 push	 12			; 0000000cH
  00037	0f b7 c0	 movzx	 eax, ax
  0003a	5b		 pop	 ebx
  0003b	99		 cdq
  0003c	2b d9		 sub	 ebx, ecx
  0003e	f7 fb		 idiv	 ebx
  00040	66 89 56 04	 mov	 WORD PTR [esi+4], dx

; 78   : 		m_EncryptSeed  = (char)( rand()+pid+tick )%256;

  00044	ff d7		 call	 edi
  00046	02 45 f8	 add	 al, BYTE PTR _pid$[ebp]
  00049	02 45 fc	 add	 al, BYTE PTR _tick$[ebp]
  0004c	0f be c0	 movsx	 eax, al
  0004f	25 ff 00 00 80	 and	 eax, -2147483393	; 800000ffH
  00054	79 07		 jns	 SHORT $LN8@Init
  00056	48		 dec	 eax
  00057	0d 00 ff ff ff	 or	 eax, -256		; ffffff00H
  0005c	40		 inc	 eax
$LN8@Init:
  0005d	88 46 08	 mov	 BYTE PTR [esi+8], al

; 79   : 
; 80   : 		for (int i = 0; i < MAX_MEM_POOL ; i++)

  00060	33 db		 xor	 ebx, ebx
$LL3@Init:

; 81   : 			m_MemPool[i] = (char)( rand()+pid+tick )%256; // 

  00062	ff d7		 call	 edi
  00064	02 45 f8	 add	 al, BYTE PTR _pid$[ebp]
  00067	02 45 fc	 add	 al, BYTE PTR _tick$[ebp]
  0006a	0f be c0	 movsx	 eax, al
  0006d	25 ff 00 00 80	 and	 eax, -2147483393	; 800000ffH
  00072	79 07		 jns	 SHORT $LN9@Init
  00074	48		 dec	 eax
  00075	0d 00 ff ff ff	 or	 eax, -256		; ffffff00H
  0007a	40		 inc	 eax
$LN9@Init:
  0007b	88 44 1e 1c	 mov	 BYTE PTR [esi+ebx+28], al
  0007f	43		 inc	 ebx
  00080	83 fb 0c	 cmp	 ebx, 12			; 0000000cH
  00083	7c dd		 jl	 SHORT $LL3@Init

; 82   : 
; 83   : 		//UJ 130913, : szKey  
; 84   : 		//char szKey[ccddaabb::KEY_SIZE];//="";
; 85   : 		//for (int i = 0; i < ccddaabb::KEY_SIZE  ; i++)
; 86   : 		//	szKey[i] = (char)( rand()+pid+tick )%256; // 
; 87   : 		m_RC5.Setup( NULL, pid, tick );

  00085	ff 75 fc	 push	 DWORD PTR _tick$[ebp]
  00088	8d 4e 0c	 lea	 ecx, DWORD PTR [esi+12]
  0008b	ff 75 f8	 push	 DWORD PTR _pid$[ebp]
  0008e	6a 00		 push	 0
  00090	e8 00 00 00 00	 call	 ?Setup@ccddaabb@@QAEXPBDHH@Z ; ccddaabb::Setup
  00095	5f		 pop	 edi
  00096	5e		 pop	 esi
  00097	5b		 pop	 ebx

; 88   : 
; 89   : #ifdef _NOTUSE
; 90   : 		m_value        = 0;
; 91   : 		EncryptValueToPool((char*)&m_value);
; 92   : 		Debug();
; 93   : #endif
; 94   : 	}

  00098	c9		 leave
  00099	c3		 ret	 0
?Init@?$CEncrypt@M@@AAEXXZ ENDP				; CEncrypt<float>::Init
_TEXT	ENDS
PUBLIC	?DecryptValueToPool@?$CEncrypt@M@@QAEXPAM@Z	; CEncrypt<float>::DecryptValueToPool
EXTRN	?DecryptByte@ccddaabb@@QBEXPBDPADH@Z:PROC	; ccddaabb::DecryptByte
; Function compile flags: /Ogsp
;	COMDAT ?DecryptValueToPool@?$CEncrypt@M@@QAEXPAM@Z
_TEXT	SEGMENT
_value$ = 8						; size = 4
?DecryptValueToPool@?$CEncrypt@M@@QAEXPAM@Z PROC	; CEncrypt<float>::DecryptValueToPool, COMDAT
; _this$ = ecx

; 1648 : 	{

  00000	55		 push	 ebp
  00001	8b ec		 mov	 ebp, esp
  00003	56		 push	 esi

; 1649 : 		m_RC5.DecryptByte( m_MemPool, m_TempMem, 4 );

  00004	8d 71 28	 lea	 esi, DWORD PTR [ecx+40]
  00007	6a 04		 push	 4
  00009	8d 41 1c	 lea	 eax, DWORD PTR [ecx+28]
  0000c	56		 push	 esi
  0000d	50		 push	 eax
  0000e	83 c1 0c	 add	 ecx, 12			; 0000000cH
  00011	e8 00 00 00 00	 call	 ?DecryptByte@ccddaabb@@QBEXPBDPADH@Z ; ccddaabb::DecryptByte

; 1650 : 		*value = *((float*)m_TempMem);

  00016	d9 06		 fld	 DWORD PTR [esi]
  00018	8b 45 08	 mov	 eax, DWORD PTR _value$[ebp]
  0001b	d9 18		 fstp	 DWORD PTR [eax]
  0001d	5e		 pop	 esi

; 1651 : 	}

  0001e	5d		 pop	 ebp
  0001f	c2 04 00	 ret	 4
?DecryptValueToPool@?$CEncrypt@M@@QAEXPAM@Z ENDP	; CEncrypt<float>::DecryptValueToPool
_TEXT	ENDS
PUBLIC	?DecryptValueToPool@?$CEncrypt@K@@QAEXPAK@Z	; CEncrypt<unsigned long>::DecryptValueToPool
; Function compile flags: /Ogsp
;	COMDAT ?DecryptValueToPool@?$CEncrypt@K@@QAEXPAK@Z
_TEXT	SEGMENT
_value$ = 8						; size = 4
?DecryptValueToPool@?$CEncrypt@K@@QAEXPAK@Z PROC	; CEncrypt<unsigned long>::DecryptValueToPool, COMDAT
; _this$ = ecx

; 1256 : 	{

  00000	55		 push	 ebp
  00001	8b ec		 mov	 ebp, esp
  00003	56		 push	 esi

; 1257 : 		m_RC5.DecryptByte( m_MemPool, m_TempMem, 4 );

  00004	8d 71 28	 lea	 esi, DWORD PTR [ecx+40]
  00007	6a 04		 push	 4
  00009	8d 41 1c	 lea	 eax, DWORD PTR [ecx+28]
  0000c	56		 push	 esi
  0000d	50		 push	 eax
  0000e	83 c1 0c	 add	 ecx, 12			; 0000000cH
  00011	e8 00 00 00 00	 call	 ?DecryptByte@ccddaabb@@QBEXPBDPADH@Z ; ccddaabb::DecryptByte

; 1258 : 		*value = *((DWORD*)m_TempMem);

  00016	8b 06		 mov	 eax, DWORD PTR [esi]
  00018	8b 4d 08	 mov	 ecx, DWORD PTR _value$[ebp]
  0001b	89 01		 mov	 DWORD PTR [ecx], eax
  0001d	5e		 pop	 esi

; 1259 : 	}

  0001e	5d		 pop	 ebp
  0001f	c2 04 00	 ret	 4
?DecryptValueToPool@?$CEncrypt@K@@QAEXPAK@Z ENDP	; CEncrypt<unsigned long>::DecryptValueToPool
_TEXT	ENDS
PUBLIC	??_C@_0BD@OLBABOEK@vector?$DMT?$DO?5too?5long?$AA@ ; `string'
PUBLIC	?_Xlen@?$vector@VioHashString@@V?$allocator@VioHashString@@@std@@@std@@IBEXXZ ; std::vector<ioHashString,std::allocator<ioHashString> >::_Xlen
EXTRN	__imp_?_Xlength_error@std@@YAXPBD@Z:PROC
;	COMDAT ??_C@_0BD@OLBABOEK@vector?$DMT?$DO?5too?5long?$AA@
; File c:\program files (x86)\microsoft visual studio 10.0\vc\include\vector
CONST	SEGMENT
??_C@_0BD@OLBABOEK@vector?$DMT?$DO?5too?5long?$AA@ DB 'vector<T> too long'
	DB	00H						; `string'
; Function compile flags: /Ogsp
CONST	ENDS
;	COMDAT ?_Xlen@?$vector@VioHashString@@V?$allocator@VioHashString@@@std@@@std@@IBEXXZ
_TEXT	SEGMENT
?_Xlen@?$vector@VioHashString@@V?$allocator@VioHashString@@@std@@@std@@IBEXXZ PROC ; std::vector<ioHashString,std::allocator<ioHashString> >::_Xlen, COMDAT
; _this$ = ecx

; 1427 : 		_Xlength_error("vector<T> too long");

  00000	68 00 00 00 00	 push	 OFFSET ??_C@_0BD@OLBABOEK@vector?$DMT?$DO?5too?5long?$AA@
  00005	ff 15 00 00 00
	00		 call	 DWORD PTR __imp_?_Xlength_error@std@@YAXPBD@Z
$LN4@Xlen:
$LN3@Xlen:
  0000b	cc		 int	 3
?_Xlen@?$vector@VioHashString@@V?$allocator@VioHashString@@@std@@@std@@IBEXXZ ENDP ; std::vector<ioHashString,std::allocator<ioHashString> >::_Xlen
_TEXT	ENDS
PUBLIC	?deallocate@?$allocator@VioHashString@@@std@@QAEXPAVioHashString@@I@Z ; std::allocator<ioHashString>::deallocate
; Function compile flags: /Ogsp
; File c:\program files (x86)\microsoft visual studio 10.0\vc\include\xmemory
;	COMDAT ?deallocate@?$allocator@VioHashString@@@std@@QAEXPAVioHashString@@I@Z
_TEXT	SEGMENT
__Ptr$ = 8						; size = 4
___formal$ = 12						; size = 4
?deallocate@?$allocator@VioHashString@@@std@@QAEXPAVioHashString@@I@Z PROC ; std::allocator<ioHashString>::deallocate, COMDAT
; _this$ = ecx

; 181  : 		{	// deallocate object at _Ptr, ignore size

  00000	55		 push	 ebp
  00001	8b ec		 mov	 ebp, esp

; 182  : 		::operator delete(_Ptr);

  00003	ff 75 08	 push	 DWORD PTR __Ptr$[ebp]
  00006	e8 00 00 00 00	 call	 ??3@YAXPAX@Z		; operator delete
  0000b	59		 pop	 ecx

; 183  : 		}

  0000c	5d		 pop	 ebp
  0000d	c2 08 00	 ret	 8
?deallocate@?$allocator@VioHashString@@@std@@QAEXPAVioHashString@@I@Z ENDP ; std::allocator<ioHashString>::deallocate
_TEXT	ENDS
PUBLIC	??0?$allocator@UWeaponInfo@@@std@@QAE@ABV01@@Z	; std::allocator<WeaponInfo>::allocator<WeaponInfo>
; Function compile flags: /Ogsp
;	COMDAT ??0?$allocator@UWeaponInfo@@@std@@QAE@ABV01@@Z
_TEXT	SEGMENT
___formal$ = 8						; size = 4
??0?$allocator@UWeaponInfo@@@std@@QAE@ABV01@@Z PROC	; std::allocator<WeaponInfo>::allocator<WeaponInfo>, COMDAT
; _this$ = ecx

; 165  : 	_ALLOCATOR(const _ALLOCATOR<_Ty>&) _THROW0()

  00000	8b c1		 mov	 eax, ecx

; 166  : 		{	// construct by copying (do nothing)
; 167  : 		}

  00002	c2 04 00	 ret	 4
??0?$allocator@UWeaponInfo@@@std@@QAE@ABV01@@Z ENDP	; std::allocator<WeaponInfo>::allocator<WeaponInfo>
_TEXT	ENDS
PUBLIC	?deallocate@?$allocator@UWeaponInfo@@@std@@QAEXPAUWeaponInfo@@I@Z ; std::allocator<WeaponInfo>::deallocate
; Function compile flags: /Ogsp
;	COMDAT ?deallocate@?$allocator@UWeaponInfo@@@std@@QAEXPAUWeaponInfo@@I@Z
_TEXT	SEGMENT
__Ptr$ = 8						; size = 4
___formal$ = 12						; size = 4
?deallocate@?$allocator@UWeaponInfo@@@std@@QAEXPAUWeaponInfo@@I@Z PROC ; std::allocator<WeaponInfo>::deallocate, COMDAT
; _this$ = ecx

; 181  : 		{	// deallocate object at _Ptr, ignore size

  00000	55		 push	 ebp
  00001	8b ec		 mov	 ebp, esp

; 182  : 		::operator delete(_Ptr);

  00003	ff 75 08	 push	 DWORD PTR __Ptr$[ebp]
  00006	e8 00 00 00 00	 call	 ??3@YAXPAX@Z		; operator delete
  0000b	59		 pop	 ecx

; 183  : 		}

  0000c	5d		 pop	 ebp
  0000d	c2 08 00	 ret	 8
?deallocate@?$allocator@UWeaponInfo@@@std@@QAEXPAUWeaponInfo@@I@Z ENDP ; std::allocator<WeaponInfo>::deallocate
_TEXT	ENDS
PUBLIC	??0?$allocator@UForceInfo@@@std@@QAE@ABV01@@Z	; std::allocator<ForceInfo>::allocator<ForceInfo>
; Function compile flags: /Ogsp
;	COMDAT ??0?$allocator@UForceInfo@@@std@@QAE@ABV01@@Z
_TEXT	SEGMENT
___formal$ = 8						; size = 4
??0?$allocator@UForceInfo@@@std@@QAE@ABV01@@Z PROC	; std::allocator<ForceInfo>::allocator<ForceInfo>, COMDAT
; _this$ = ecx

; 165  : 	_ALLOCATOR(const _ALLOCATOR<_Ty>&) _THROW0()

  00000	8b c1		 mov	 eax, ecx

; 166  : 		{	// construct by copying (do nothing)
; 167  : 		}

  00002	c2 04 00	 ret	 4
??0?$allocator@UForceInfo@@@std@@QAE@ABV01@@Z ENDP	; std::allocator<ForceInfo>::allocator<ForceInfo>
_TEXT	ENDS
PUBLIC	?deallocate@?$allocator@UForceInfo@@@std@@QAEXPAUForceInfo@@I@Z ; std::allocator<ForceInfo>::deallocate
; Function compile flags: /Ogsp
;	COMDAT ?deallocate@?$allocator@UForceInfo@@@std@@QAEXPAUForceInfo@@I@Z
_TEXT	SEGMENT
__Ptr$ = 8						; size = 4
___formal$ = 12						; size = 4
?deallocate@?$allocator@UForceInfo@@@std@@QAEXPAUForceInfo@@I@Z PROC ; std::allocator<ForceInfo>::deallocate, COMDAT
; _this$ = ecx

; 181  : 		{	// deallocate object at _Ptr, ignore size

  00000	55		 push	 ebp
  00001	8b ec		 mov	 ebp, esp

; 182  : 		::operator delete(_Ptr);

  00003	ff 75 08	 push	 DWORD PTR __Ptr$[ebp]
  00006	e8 00 00 00 00	 call	 ??3@YAXPAX@Z		; operator delete
  0000b	59		 pop	 ecx

; 183  : 		}

  0000c	5d		 pop	 ebp
  0000d	c2 08 00	 ret	 8
?deallocate@?$allocator@UForceInfo@@@std@@QAEXPAUForceInfo@@I@Z ENDP ; std::allocator<ForceInfo>::deallocate
_TEXT	ENDS
PUBLIC	??0?$_Vector_const_iterator@V?$_Vector_val@VioHashString@@V?$allocator@VioHashString@@@std@@@std@@@std@@QAE@PAVioHashString@@PBU_Container_base0@1@@Z ; std::_Vector_const_iterator<std::_Vector_val<ioHashString,std::allocator<ioHashString> > >::_Vector_const_iterator<std::_Vector_val<ioHashString,std::allocator<ioHashString> > >
; Function compile flags: /Ogsp
; File c:\program files (x86)\microsoft visual studio 10.0\vc\include\vector
;	COMDAT ??0?$_Vector_const_iterator@V?$_Vector_val@VioHashString@@V?$allocator@VioHashString@@@std@@@std@@@std@@QAE@PAVioHashString@@PBU_Container_base0@1@@Z
_TEXT	SEGMENT
__Parg$ = 8						; size = 4
__Pvector$ = 12						; size = 4
??0?$_Vector_const_iterator@V?$_Vector_val@VioHashString@@V?$allocator@VioHashString@@@std@@@std@@@std@@QAE@PAVioHashString@@PBU_Container_base0@1@@Z PROC ; std::_Vector_const_iterator<std::_Vector_val<ioHashString,std::allocator<ioHashString> > >::_Vector_const_iterator<std::_Vector_val<ioHashString,std::allocator<ioHashString> > >, COMDAT
; _this$ = ecx

; 45   : 		{	// construct with pointer _Parg

  00000	55		 push	 ebp
  00001	8b ec		 mov	 ebp, esp
  00003	8b c1		 mov	 eax, ecx
  00005	8b 4d 08	 mov	 ecx, DWORD PTR __Parg$[ebp]
  00008	89 08		 mov	 DWORD PTR [eax], ecx

; 46   : 		this->_Adopt(_Pvector);
; 47   : 		}

  0000a	5d		 pop	 ebp
  0000b	c2 08 00	 ret	 8
??0?$_Vector_const_iterator@V?$_Vector_val@VioHashString@@V?$allocator@VioHashString@@@std@@@std@@@std@@QAE@PAVioHashString@@PBU_Container_base0@1@@Z ENDP ; std::_Vector_const_iterator<std::_Vector_val<ioHashString,std::allocator<ioHashString> > >::_Vector_const_iterator<std::_Vector_val<ioHashString,std::allocator<ioHashString> > >
_TEXT	ENDS
PUBLIC	??0?$_Vector_iterator@V?$_Vector_val@VioHashString@@V?$allocator@VioHashString@@@std@@@std@@@std@@QAE@PAVioHashString@@PBU_Container_base0@1@@Z ; std::_Vector_iterator<std::_Vector_val<ioHashString,std::allocator<ioHashString> > >::_Vector_iterator<std::_Vector_val<ioHashString,std::allocator<ioHashString> > >
; Function compile flags: /Ogsp
;	COMDAT ??0?$_Vector_iterator@V?$_Vector_val@VioHashString@@V?$allocator@VioHashString@@@std@@@std@@@std@@QAE@PAVioHashString@@PBU_Container_base0@1@@Z
_TEXT	SEGMENT
__Parg$ = 8						; size = 4
__Pvector$ = 12						; size = 4
??0?$_Vector_iterator@V?$_Vector_val@VioHashString@@V?$allocator@VioHashString@@@std@@@std@@@std@@QAE@PAVioHashString@@PBU_Container_base0@1@@Z PROC ; std::_Vector_iterator<std::_Vector_val<ioHashString,std::allocator<ioHashString> > >::_Vector_iterator<std::_Vector_val<ioHashString,std::allocator<ioHashString> > >, COMDAT
; _this$ = ecx

; 304  : 		{	// construct with pointer _Parg

  00000	55		 push	 ebp
  00001	8b ec		 mov	 ebp, esp
  00003	8b c1		 mov	 eax, ecx
  00005	8b 4d 08	 mov	 ecx, DWORD PTR __Parg$[ebp]
  00008	89 08		 mov	 DWORD PTR [eax], ecx

; 305  : 		}

  0000a	5d		 pop	 ebp
  0000b	c2 08 00	 ret	 8
??0?$_Vector_iterator@V?$_Vector_val@VioHashString@@V?$allocator@VioHashString@@@std@@@std@@@std@@QAE@PAVioHashString@@PBU_Container_base0@1@@Z ENDP ; std::_Vector_iterator<std::_Vector_val<ioHashString,std::allocator<ioHashString> > >::_Vector_iterator<std::_Vector_val<ioHashString,std::allocator<ioHashString> > >
_TEXT	ENDS
PUBLIC	?max_size@?$allocator@VioHashString@@@std@@QBEIXZ ; std::allocator<ioHashString>::max_size
; Function compile flags: /Ogsp
; File c:\program files (x86)\microsoft visual studio 10.0\vc\include\xmemory
;	COMDAT ?max_size@?$allocator@VioHashString@@@std@@QBEIXZ
_TEXT	SEGMENT
?max_size@?$allocator@VioHashString@@@std@@QBEIXZ PROC	; std::allocator<ioHashString>::max_size, COMDAT
; _this$ = ecx

; 218  : 		_SIZT _Count = (_SIZT)(-1) / sizeof (_Ty);
; 219  : 		return (0 < _Count ? _Count : 1);

  00000	b8 ff ff ff 0f	 mov	 eax, 268435455		; 0fffffffH

; 220  : 		}

  00005	c3		 ret	 0
?max_size@?$allocator@VioHashString@@@std@@QBEIXZ ENDP	; std::allocator<ioHashString>::max_size
_TEXT	ENDS
PUBLIC	?_Compat@?$_Vector_const_iterator@V?$_Vector_val@VioHashString@@V?$allocator@VioHashString@@@std@@@std@@@std@@QBEXABV12@@Z ; std::_Vector_const_iterator<std::_Vector_val<ioHashString,std::allocator<ioHashString> > >::_Compat
; Function compile flags: /Ogsp
; File c:\program files (x86)\microsoft visual studio 10.0\vc\include\vector
;	COMDAT ?_Compat@?$_Vector_const_iterator@V?$_Vector_val@VioHashString@@V?$allocator@VioHashString@@@std@@@std@@@std@@QBEXABV12@@Z
_TEXT	SEGMENT
___formal$ = 8						; size = 4
?_Compat@?$_Vector_const_iterator@V?$_Vector_val@VioHashString@@V?$allocator@VioHashString@@@std@@@std@@@std@@QBEXABV12@@Z PROC ; std::_Vector_const_iterator<std::_Vector_val<ioHashString,std::allocator<ioHashString> > >::_Compat, COMDAT
; _this$ = ecx

; 253  : 		}

  00000	c2 04 00	 ret	 4
?_Compat@?$_Vector_const_iterator@V?$_Vector_val@VioHashString@@V?$allocator@VioHashString@@@std@@@std@@@std@@QBEXABV12@@Z ENDP ; std::_Vector_const_iterator<std::_Vector_val<ioHashString,std::allocator<ioHashString> > >::_Compat
_TEXT	ENDS
PUBLIC	__TI2?AVbad_alloc@std@@
PUBLIC	??$_Allocate@VioHashString@@@std@@YAPAVioHashString@@IPAV1@@Z ; std::_Allocate<ioHashString>
PUBLIC	__CTA2?AVbad_alloc@std@@
PUBLIC	__CT??_R0?AVbad_alloc@std@@@8??0bad_alloc@std@@QAE@ABV01@@Z12
PUBLIC	??0bad_alloc@std@@QAE@ABV01@@Z			; std::bad_alloc::bad_alloc
PUBLIC	__CT??_R0?AVexception@std@@@8??0exception@std@@QAE@ABV01@@Z12
EXTRN	??2@YAPAXI@Z:PROC				; operator new
EXTRN	__CxxThrowException@8:PROC
EXTRN	??0exception@std@@QAE@ABV01@@Z:PROC		; std::exception::exception
;	COMDAT __CT??_R0?AVexception@std@@@8??0exception@std@@QAE@ABV01@@Z12
; File c:\program files (x86)\microsoft visual studio 10.0\vc\include\exception
xdata$x	SEGMENT
__CT??_R0?AVexception@std@@@8??0exception@std@@QAE@ABV01@@Z12 DD 00H
	DD	FLAT:??_R0?AVexception@std@@@8
	DD	00H
	DD	0ffffffffH
	ORG $+4
	DD	0cH
	DD	FLAT:??0exception@std@@QAE@ABV01@@Z
xdata$x	ENDS
;	COMDAT __CT??_R0?AVbad_alloc@std@@@8??0bad_alloc@std@@QAE@ABV01@@Z12
xdata$x	SEGMENT
__CT??_R0?AVbad_alloc@std@@@8??0bad_alloc@std@@QAE@ABV01@@Z12 DD 00H
	DD	FLAT:??_R0?AVbad_alloc@std@@@8
	DD	00H
	DD	0ffffffffH
	ORG $+4
	DD	0cH
	DD	FLAT:??0bad_alloc@std@@QAE@ABV01@@Z
xdata$x	ENDS
;	COMDAT __CTA2?AVbad_alloc@std@@
xdata$x	SEGMENT
__CTA2?AVbad_alloc@std@@ DD 02H
	DD	FLAT:__CT??_R0?AVbad_alloc@std@@@8??0bad_alloc@std@@QAE@ABV01@@Z12
	DD	FLAT:__CT??_R0?AVexception@std@@@8??0exception@std@@QAE@ABV01@@Z12
xdata$x	ENDS
;	COMDAT __TI2?AVbad_alloc@std@@
xdata$x	SEGMENT
__TI2?AVbad_alloc@std@@ DD 00H
	DD	FLAT:??1bad_alloc@std@@UAE@XZ
	DD	00H
	DD	FLAT:__CTA2?AVbad_alloc@std@@
; Function compile flags: /Ogsp
; File c:\program files (x86)\microsoft visual studio 10.0\vc\include\xmemory
xdata$x	ENDS
;	COMDAT ??$_Allocate@VioHashString@@@std@@YAPAVioHashString@@IPAV1@@Z
_TEXT	SEGMENT
$T555949 = -12						; size = 12
$T555954 = 8						; size = 4
__Count$ = 8						; size = 4
___formal$ = 12						; size = 4
??$_Allocate@VioHashString@@@std@@YAPAVioHashString@@IPAV1@@Z PROC ; std::_Allocate<ioHashString>, COMDAT

; 30   : 	{	// allocate storage for _Count elements of type _Ty

  00000	55		 push	 ebp
  00001	8b ec		 mov	 ebp, esp

; 31   : 	void *_Ptr = 0;
; 32   : 
; 33   : 	if (_Count <= 0)

  00003	8b 4d 08	 mov	 ecx, DWORD PTR __Count$[ebp]
  00006	83 ec 0c	 sub	 esp, 12			; 0000000cH
  00009	33 c0		 xor	 eax, eax
  0000b	85 c9		 test	 ecx, ecx

; 34   : 		_Count = 0;
; 35   : 	else if (((_SIZT)(-1) / sizeof (_Ty) < _Count)

  0000d	74 3c		 je	 SHORT $LN5@Allocate

; 36   : 		|| (_Ptr = ::operator new(_Count * sizeof (_Ty))) == 0)

  0000f	81 f9 ff ff ff
	0f		 cmp	 ecx, 268435455		; 0fffffffH
  00015	77 0e		 ja	 SHORT $LN1@Allocate
  00017	c1 e1 04	 shl	 ecx, 4
  0001a	51		 push	 ecx
  0001b	e8 00 00 00 00	 call	 ??2@YAPAXI@Z		; operator new
  00020	59		 pop	 ecx
  00021	85 c0		 test	 eax, eax

; 38   : 
; 39   : 	return ((_Ty _FARQ *)_Ptr);

  00023	75 26		 jne	 SHORT $LN5@Allocate
$LN1@Allocate:

; 37   : 		_THROW_NCEE(bad_alloc, 0);

  00025	83 65 08 00	 and	 DWORD PTR $T555954[ebp], 0
  00029	8d 45 08	 lea	 eax, DWORD PTR $T555954[ebp]
  0002c	50		 push	 eax
  0002d	8d 4d f4	 lea	 ecx, DWORD PTR $T555949[ebp]
  00030	ff 15 00 00 00
	00		 call	 DWORD PTR __imp_??0exception@std@@QAE@ABQBD@Z
  00036	68 00 00 00 00	 push	 OFFSET __TI2?AVbad_alloc@std@@
  0003b	8d 45 f4	 lea	 eax, DWORD PTR $T555949[ebp]
  0003e	50		 push	 eax
  0003f	c7 45 f4 00 00
	00 00		 mov	 DWORD PTR $T555949[ebp], OFFSET ??_7bad_alloc@std@@6B@
  00046	e8 00 00 00 00	 call	 __CxxThrowException@8
$LN10@Allocate:
$LN5@Allocate:

; 40   : 	}

  0004b	c9		 leave
  0004c	c3		 ret	 0
$LN9@Allocate:
??$_Allocate@VioHashString@@@std@@YAPAVioHashString@@IPAV1@@Z ENDP ; std::_Allocate<ioHashString>
_TEXT	ENDS
EXTRN	__imp_??0exception@std@@QAE@ABV01@@Z:PROC
; Function compile flags: /Ogsp
;	COMDAT ??0bad_alloc@std@@QAE@ABV01@@Z
_TEXT	SEGMENT
___that$ = 8						; size = 4
??0bad_alloc@std@@QAE@ABV01@@Z PROC			; std::bad_alloc::bad_alloc, COMDAT
; _this$ = ecx
  00000	55		 push	 ebp
  00001	8b ec		 mov	 ebp, esp
  00003	56		 push	 esi
  00004	ff 75 08	 push	 DWORD PTR ___that$[ebp]
  00007	8b f1		 mov	 esi, ecx
  00009	ff 15 00 00 00
	00		 call	 DWORD PTR __imp_??0exception@std@@QAE@ABV01@@Z
  0000f	c7 06 00 00 00
	00		 mov	 DWORD PTR [esi], OFFSET ??_7bad_alloc@std@@6B@
  00015	8b c6		 mov	 eax, esi
  00017	5e		 pop	 esi
  00018	5d		 pop	 ebp
  00019	c2 04 00	 ret	 4
??0bad_alloc@std@@QAE@ABV01@@Z ENDP			; std::bad_alloc::bad_alloc
_TEXT	ENDS
PUBLIC	??$forward@ABVioHashString@@@std@@YAABVioHashString@@ABV1@@Z ; std::forward<ioHashString const &>
; Function compile flags: /Ogsp
; File c:\program files (x86)\microsoft visual studio 10.0\vc\include\utility
;	COMDAT ??$forward@ABVioHashString@@@std@@YAABVioHashString@@ABV1@@Z
_TEXT	SEGMENT
__Arg$ = 8						; size = 4
??$forward@ABVioHashString@@@std@@YAABVioHashString@@ABV1@@Z PROC ; std::forward<ioHashString const &>, COMDAT

; 78   : 	{	// forward _Arg, given explicitly specified type parameter

  00000	55		 push	 ebp
  00001	8b ec		 mov	 ebp, esp

; 79   : 	return ((_Ty&&)_Arg);

  00003	8b 45 08	 mov	 eax, DWORD PTR __Arg$[ebp]

; 80   : 	}

  00006	5d		 pop	 ebp
  00007	c3		 ret	 0
??$forward@ABVioHashString@@@std@@YAABVioHashString@@ABV1@@Z ENDP ; std::forward<ioHashString const &>
_TEXT	ENDS
PUBLIC	??$_Ptr_cat@VioHashString@@V1@@std@@YA?AU_Nonscalar_ptr_iterator_tag@0@PAVioHashString@@0@Z ; std::_Ptr_cat<ioHashString,ioHashString>
; Function compile flags: /Ogsp
; File c:\program files (x86)\microsoft visual studio 10.0\vc\include\xutility
;	COMDAT ??$_Ptr_cat@VioHashString@@V1@@std@@YA?AU_Nonscalar_ptr_iterator_tag@0@PAVioHashString@@0@Z
_TEXT	SEGMENT
__Cat$ = -1						; size = 1
___formal$ = 8						; size = 4
___formal$ = 12						; size = 4
??$_Ptr_cat@VioHashString@@V1@@std@@YA?AU_Nonscalar_ptr_iterator_tag@0@PAVioHashString@@0@Z PROC ; std::_Ptr_cat<ioHashString,ioHashString>, COMDAT

; 516  : 	{	// return pointer category from pointers

  00000	55		 push	 ebp
  00001	8b ec		 mov	 ebp, esp
  00003	51		 push	 ecx

; 517  : 	typename _Ptr_cat_helper<_Elem1, _Elem2>::_Type _Cat;
; 518  : 	return (_Cat);

  00004	8a 45 ff	 mov	 al, BYTE PTR __Cat$[ebp]

; 519  : 	}

  00007	c9		 leave
  00008	c3		 ret	 0
??$_Ptr_cat@VioHashString@@V1@@std@@YA?AU_Nonscalar_ptr_iterator_tag@0@PAVioHashString@@0@Z ENDP ; std::_Ptr_cat<ioHashString,ioHashString>
_TEXT	ENDS
PUBLIC	??$_Ptr_cat@UWeaponInfo@@U1@@std@@YA?AU_Nonscalar_ptr_iterator_tag@0@PAUWeaponInfo@@0@Z ; std::_Ptr_cat<WeaponInfo,WeaponInfo>
; Function compile flags: /Ogsp
;	COMDAT ??$_Ptr_cat@UWeaponInfo@@U1@@std@@YA?AU_Nonscalar_ptr_iterator_tag@0@PAUWeaponInfo@@0@Z
_TEXT	SEGMENT
__Cat$ = -1						; size = 1
___formal$ = 8						; size = 4
___formal$ = 12						; size = 4
??$_Ptr_cat@UWeaponInfo@@U1@@std@@YA?AU_Nonscalar_ptr_iterator_tag@0@PAUWeaponInfo@@0@Z PROC ; std::_Ptr_cat<WeaponInfo,WeaponInfo>, COMDAT

; 516  : 	{	// return pointer category from pointers

  00000	55		 push	 ebp
  00001	8b ec		 mov	 ebp, esp
  00003	51		 push	 ecx

; 517  : 	typename _Ptr_cat_helper<_Elem1, _Elem2>::_Type _Cat;
; 518  : 	return (_Cat);

  00004	8a 45 ff	 mov	 al, BYTE PTR __Cat$[ebp]

; 519  : 	}

  00007	c9		 leave
  00008	c3		 ret	 0
??$_Ptr_cat@UWeaponInfo@@U1@@std@@YA?AU_Nonscalar_ptr_iterator_tag@0@PAUWeaponInfo@@0@Z ENDP ; std::_Ptr_cat<WeaponInfo,WeaponInfo>
_TEXT	ENDS
PUBLIC	??$_Ptr_cat@UForceInfo@@U1@@std@@YA?AU_Nonscalar_ptr_iterator_tag@0@PAUForceInfo@@0@Z ; std::_Ptr_cat<ForceInfo,ForceInfo>
; Function compile flags: /Ogsp
;	COMDAT ??$_Ptr_cat@UForceInfo@@U1@@std@@YA?AU_Nonscalar_ptr_iterator_tag@0@PAUForceInfo@@0@Z
_TEXT	SEGMENT
__Cat$ = -1						; size = 1
___formal$ = 8						; size = 4
___formal$ = 12						; size = 4
??$_Ptr_cat@UForceInfo@@U1@@std@@YA?AU_Nonscalar_ptr_iterator_tag@0@PAUForceInfo@@0@Z PROC ; std::_Ptr_cat<ForceInfo,ForceInfo>, COMDAT

; 516  : 	{	// return pointer category from pointers

  00000	55		 push	 ebp
  00001	8b ec		 mov	 ebp, esp
  00003	51		 push	 ecx

; 517  : 	typename _Ptr_cat_helper<_Elem1, _Elem2>::_Type _Cat;
; 518  : 	return (_Cat);

  00004	8a 45 ff	 mov	 al, BYTE PTR __Cat$[ebp]

; 519  : 	}

  00007	c9		 leave
  00008	c3		 ret	 0
??$_Ptr_cat@UForceInfo@@U1@@std@@YA?AU_Nonscalar_ptr_iterator_tag@0@PAUForceInfo@@0@Z ENDP ; std::_Ptr_cat<ForceInfo,ForceInfo>
_TEXT	ENDS
PUBLIC	?size@?$vector@UWeaponInfo@@V?$allocator@UWeaponInfo@@@std@@@std@@QBEIXZ ; std::vector<WeaponInfo,std::allocator<WeaponInfo> >::size
; Function compile flags: /Ogsp
; File c:\program files (x86)\microsoft visual studio 10.0\vc\include\vector
;	COMDAT ?size@?$vector@UWeaponInfo@@V?$allocator@UWeaponInfo@@@std@@@std@@QBEIXZ
_TEXT	SEGMENT
?size@?$vector@UWeaponInfo@@V?$allocator@UWeaponInfo@@@std@@@std@@QBEIXZ PROC ; std::vector<WeaponInfo,std::allocator<WeaponInfo> >::size, COMDAT
; _this$ = ecx

; 879  : 		return (this->_Mylast - this->_Myfirst);

  00000	8b 41 04	 mov	 eax, DWORD PTR [ecx+4]
  00003	2b 01		 sub	 eax, DWORD PTR [ecx]
  00005	6a 28		 push	 40			; 00000028H
  00007	99		 cdq
  00008	59		 pop	 ecx
  00009	f7 f9		 idiv	 ecx

; 880  : 		}

  0000b	c3		 ret	 0
?size@?$vector@UWeaponInfo@@V?$allocator@UWeaponInfo@@@std@@@std@@QBEIXZ ENDP ; std::vector<WeaponInfo,std::allocator<WeaponInfo> >::size
_TEXT	ENDS
PUBLIC	?size@?$vector@UForceInfo@@V?$allocator@UForceInfo@@@std@@@std@@QBEIXZ ; std::vector<ForceInfo,std::allocator<ForceInfo> >::size
; Function compile flags: /Ogsp
;	COMDAT ?size@?$vector@UForceInfo@@V?$allocator@UForceInfo@@@std@@@std@@QBEIXZ
_TEXT	SEGMENT
?size@?$vector@UForceInfo@@V?$allocator@UForceInfo@@@std@@@std@@QBEIXZ PROC ; std::vector<ForceInfo,std::allocator<ForceInfo> >::size, COMDAT
; _this$ = ecx

; 879  : 		return (this->_Mylast - this->_Myfirst);

  00000	8b 41 04	 mov	 eax, DWORD PTR [ecx+4]
  00003	2b 01		 sub	 eax, DWORD PTR [ecx]
  00005	6a 0c		 push	 12			; 0000000cH
  00007	99		 cdq
  00008	59		 pop	 ecx
  00009	f7 f9		 idiv	 ecx

; 880  : 		}

  0000b	c3		 ret	 0
?size@?$vector@UForceInfo@@V?$allocator@UForceInfo@@@std@@@std@@QBEIXZ ENDP ; std::vector<ForceInfo,std::allocator<ForceInfo> >::size
_TEXT	ENDS
PUBLIC	?_Xlen@?$vector@UWeaponInfo@@V?$allocator@UWeaponInfo@@@std@@@std@@IBEXXZ ; std::vector<WeaponInfo,std::allocator<WeaponInfo> >::_Xlen
; Function compile flags: /Ogsp
;	COMDAT ?_Xlen@?$vector@UWeaponInfo@@V?$allocator@UWeaponInfo@@@std@@@std@@IBEXXZ
_TEXT	SEGMENT
?_Xlen@?$vector@UWeaponInfo@@V?$allocator@UWeaponInfo@@@std@@@std@@IBEXXZ PROC ; std::vector<WeaponInfo,std::allocator<WeaponInfo> >::_Xlen, COMDAT
; _this$ = ecx

; 1427 : 		_Xlength_error("vector<T> too long");

  00000	68 00 00 00 00	 push	 OFFSET ??_C@_0BD@OLBABOEK@vector?$DMT?$DO?5too?5long?$AA@
  00005	ff 15 00 00 00
	00		 call	 DWORD PTR __imp_?_Xlength_error@std@@YAXPBD@Z
$LN4@Xlen@2:
$LN3@Xlen@2:
  0000b	cc		 int	 3
?_Xlen@?$vector@UWeaponInfo@@V?$allocator@UWeaponInfo@@@std@@@std@@IBEXXZ ENDP ; std::vector<WeaponInfo,std::allocator<WeaponInfo> >::_Xlen
_TEXT	ENDS
PUBLIC	?_Xlen@?$vector@UForceInfo@@V?$allocator@UForceInfo@@@std@@@std@@IBEXXZ ; std::vector<ForceInfo,std::allocator<ForceInfo> >::_Xlen
; Function compile flags: /Ogsp
;	COMDAT ?_Xlen@?$vector@UForceInfo@@V?$allocator@UForceInfo@@@std@@@std@@IBEXXZ
_TEXT	SEGMENT
?_Xlen@?$vector@UForceInfo@@V?$allocator@UForceInfo@@@std@@@std@@IBEXXZ PROC ; std::vector<ForceInfo,std::allocator<ForceInfo> >::_Xlen, COMDAT
; _this$ = ecx

; 1427 : 		_Xlength_error("vector<T> too long");

  00000	68 00 00 00 00	 push	 OFFSET ??_C@_0BD@OLBABOEK@vector?$DMT?$DO?5too?5long?$AA@
  00005	ff 15 00 00 00
	00		 call	 DWORD PTR __imp_?_Xlength_error@std@@YAXPBD@Z
$LN4@Xlen@3:
$LN3@Xlen@3:
  0000b	cc		 int	 3
?_Xlen@?$vector@UForceInfo@@V?$allocator@UForceInfo@@@std@@@std@@IBEXXZ ENDP ; std::vector<ForceInfo,std::allocator<ForceInfo> >::_Xlen
_TEXT	ENDS
PUBLIC	?max_size@?$allocator@UWeaponInfo@@@std@@QBEIXZ	; std::allocator<WeaponInfo>::max_size
; Function compile flags: /Ogsp
; File c:\program files (x86)\microsoft visual studio 10.0\vc\include\xmemory
;	COMDAT ?max_size@?$allocator@UWeaponInfo@@@std@@QBEIXZ
_TEXT	SEGMENT
?max_size@?$allocator@UWeaponInfo@@@std@@QBEIXZ PROC	; std::allocator<WeaponInfo>::max_size, COMDAT
; _this$ = ecx

; 218  : 		_SIZT _Count = (_SIZT)(-1) / sizeof (_Ty);
; 219  : 		return (0 < _Count ? _Count : 1);

  00000	b8 66 66 66 06	 mov	 eax, 107374182		; 06666666H

; 220  : 		}

  00005	c3		 ret	 0
?max_size@?$allocator@UWeaponInfo@@@std@@QBEIXZ ENDP	; std::allocator<WeaponInfo>::max_size
_TEXT	ENDS
PUBLIC	?max_size@?$allocator@UForceInfo@@@std@@QBEIXZ	; std::allocator<ForceInfo>::max_size
; Function compile flags: /Ogsp
;	COMDAT ?max_size@?$allocator@UForceInfo@@@std@@QBEIXZ
_TEXT	SEGMENT
?max_size@?$allocator@UForceInfo@@@std@@QBEIXZ PROC	; std::allocator<ForceInfo>::max_size, COMDAT
; _this$ = ecx

; 218  : 		_SIZT _Count = (_SIZT)(-1) / sizeof (_Ty);
; 219  : 		return (0 < _Count ? _Count : 1);

  00000	b8 55 55 55 15	 mov	 eax, 357913941		; 15555555H

; 220  : 		}

  00005	c3		 ret	 0
?max_size@?$allocator@UForceInfo@@@std@@QBEIXZ ENDP	; std::allocator<ForceInfo>::max_size
_TEXT	ENDS
PUBLIC	??0?$_Vector_const_iterator@V?$_Vector_val@UWeaponInfo@@V?$allocator@UWeaponInfo@@@std@@@std@@@std@@QAE@PAUWeaponInfo@@PBU_Container_base0@1@@Z ; std::_Vector_const_iterator<std::_Vector_val<WeaponInfo,std::allocator<WeaponInfo> > >::_Vector_const_iterator<std::_Vector_val<WeaponInfo,std::allocator<WeaponInfo> > >
; Function compile flags: /Ogsp
; File c:\program files (x86)\microsoft visual studio 10.0\vc\include\vector
;	COMDAT ??0?$_Vector_const_iterator@V?$_Vector_val@UWeaponInfo@@V?$allocator@UWeaponInfo@@@std@@@std@@@std@@QAE@PAUWeaponInfo@@PBU_Container_base0@1@@Z
_TEXT	SEGMENT
__Parg$ = 8						; size = 4
__Pvector$ = 12						; size = 4
??0?$_Vector_const_iterator@V?$_Vector_val@UWeaponInfo@@V?$allocator@UWeaponInfo@@@std@@@std@@@std@@QAE@PAUWeaponInfo@@PBU_Container_base0@1@@Z PROC ; std::_Vector_const_iterator<std::_Vector_val<WeaponInfo,std::allocator<WeaponInfo> > >::_Vector_const_iterator<std::_Vector_val<WeaponInfo,std::allocator<WeaponInfo> > >, COMDAT
; _this$ = ecx

; 45   : 		{	// construct with pointer _Parg

  00000	55		 push	 ebp
  00001	8b ec		 mov	 ebp, esp
  00003	8b c1		 mov	 eax, ecx
  00005	8b 4d 08	 mov	 ecx, DWORD PTR __Parg$[ebp]
  00008	89 08		 mov	 DWORD PTR [eax], ecx

; 46   : 		this->_Adopt(_Pvector);
; 47   : 		}

  0000a	5d		 pop	 ebp
  0000b	c2 08 00	 ret	 8
??0?$_Vector_const_iterator@V?$_Vector_val@UWeaponInfo@@V?$allocator@UWeaponInfo@@@std@@@std@@@std@@QAE@PAUWeaponInfo@@PBU_Container_base0@1@@Z ENDP ; std::_Vector_const_iterator<std::_Vector_val<WeaponInfo,std::allocator<WeaponInfo> > >::_Vector_const_iterator<std::_Vector_val<WeaponInfo,std::allocator<WeaponInfo> > >
_TEXT	ENDS
PUBLIC	??0?$_Vector_const_iterator@V?$_Vector_val@UForceInfo@@V?$allocator@UForceInfo@@@std@@@std@@@std@@QAE@PAUForceInfo@@PBU_Container_base0@1@@Z ; std::_Vector_const_iterator<std::_Vector_val<ForceInfo,std::allocator<ForceInfo> > >::_Vector_const_iterator<std::_Vector_val<ForceInfo,std::allocator<ForceInfo> > >
; Function compile flags: /Ogsp
;	COMDAT ??0?$_Vector_const_iterator@V?$_Vector_val@UForceInfo@@V?$allocator@UForceInfo@@@std@@@std@@@std@@QAE@PAUForceInfo@@PBU_Container_base0@1@@Z
_TEXT	SEGMENT
__Parg$ = 8						; size = 4
__Pvector$ = 12						; size = 4
??0?$_Vector_const_iterator@V?$_Vector_val@UForceInfo@@V?$allocator@UForceInfo@@@std@@@std@@@std@@QAE@PAUForceInfo@@PBU_Container_base0@1@@Z PROC ; std::_Vector_const_iterator<std::_Vector_val<ForceInfo,std::allocator<ForceInfo> > >::_Vector_const_iterator<std::_Vector_val<ForceInfo,std::allocator<ForceInfo> > >, COMDAT
; _this$ = ecx

; 45   : 		{	// construct with pointer _Parg

  00000	55		 push	 ebp
  00001	8b ec		 mov	 ebp, esp
  00003	8b c1		 mov	 eax, ecx
  00005	8b 4d 08	 mov	 ecx, DWORD PTR __Parg$[ebp]
  00008	89 08		 mov	 DWORD PTR [eax], ecx

; 46   : 		this->_Adopt(_Pvector);
; 47   : 		}

  0000a	5d		 pop	 ebp
  0000b	c2 08 00	 ret	 8
??0?$_Vector_const_iterator@V?$_Vector_val@UForceInfo@@V?$allocator@UForceInfo@@@std@@@std@@@std@@QAE@PAUForceInfo@@PBU_Container_base0@1@@Z ENDP ; std::_Vector_const_iterator<std::_Vector_val<ForceInfo,std::allocator<ForceInfo> > >::_Vector_const_iterator<std::_Vector_val<ForceInfo,std::allocator<ForceInfo> > >
_TEXT	ENDS
PUBLIC	?_Compat@?$_Vector_const_iterator@V?$_Vector_val@UWeaponInfo@@V?$allocator@UWeaponInfo@@@std@@@std@@@std@@QBEXABV12@@Z ; std::_Vector_const_iterator<std::_Vector_val<WeaponInfo,std::allocator<WeaponInfo> > >::_Compat
; Function compile flags: /Ogsp
;	COMDAT ?_Compat@?$_Vector_const_iterator@V?$_Vector_val@UWeaponInfo@@V?$allocator@UWeaponInfo@@@std@@@std@@@std@@QBEXABV12@@Z
_TEXT	SEGMENT
___formal$ = 8						; size = 4
?_Compat@?$_Vector_const_iterator@V?$_Vector_val@UWeaponInfo@@V?$allocator@UWeaponInfo@@@std@@@std@@@std@@QBEXABV12@@Z PROC ; std::_Vector_const_iterator<std::_Vector_val<WeaponInfo,std::allocator<WeaponInfo> > >::_Compat, COMDAT
; _this$ = ecx

; 253  : 		}

  00000	c2 04 00	 ret	 4
?_Compat@?$_Vector_const_iterator@V?$_Vector_val@UWeaponInfo@@V?$allocator@UWeaponInfo@@@std@@@std@@@std@@QBEXABV12@@Z ENDP ; std::_Vector_const_iterator<std::_Vector_val<WeaponInfo,std::allocator<WeaponInfo> > >::_Compat
_TEXT	ENDS
PUBLIC	?_Compat@?$_Vector_const_iterator@V?$_Vector_val@UForceInfo@@V?$allocator@UForceInfo@@@std@@@std@@@std@@QBEXABV12@@Z ; std::_Vector_const_iterator<std::_Vector_val<ForceInfo,std::allocator<ForceInfo> > >::_Compat
; Function compile flags: /Ogsp
;	COMDAT ?_Compat@?$_Vector_const_iterator@V?$_Vector_val@UForceInfo@@V?$allocator@UForceInfo@@@std@@@std@@@std@@QBEXABV12@@Z
_TEXT	SEGMENT
___formal$ = 8						; size = 4
?_Compat@?$_Vector_const_iterator@V?$_Vector_val@UForceInfo@@V?$allocator@UForceInfo@@@std@@@std@@@std@@QBEXABV12@@Z PROC ; std::_Vector_const_iterator<std::_Vector_val<ForceInfo,std::allocator<ForceInfo> > >::_Compat, COMDAT
; _this$ = ecx

; 253  : 		}

  00000	c2 04 00	 ret	 4
?_Compat@?$_Vector_const_iterator@V?$_Vector_val@UForceInfo@@V?$allocator@UForceInfo@@@std@@@std@@@std@@QBEXABV12@@Z ENDP ; std::_Vector_const_iterator<std::_Vector_val<ForceInfo,std::allocator<ForceInfo> > >::_Compat
_TEXT	ENDS
PUBLIC	??$_Ptr_cat@V?$_Vector_const_iterator@V?$_Vector_val@VioHashString@@V?$allocator@VioHashString@@@std@@@std@@@std@@PAVioHashString@@@std@@YA?AU_Nonscalar_ptr_iterator_tag@0@AAV?$_Vector_const_iterator@V?$_Vector_val@VioHashString@@V?$allocator@VioHashString@@@std@@@std@@@0@AAPAVioHashString@@@Z ; std::_Ptr_cat<std::_Vector_const_iterator<std::_Vector_val<ioHashString,std::allocator<ioHashString> > >,ioHashString *>
; Function compile flags: /Ogsp
; File c:\program files (x86)\microsoft visual studio 10.0\vc\include\xutility
;	COMDAT ??$_Ptr_cat@V?$_Vector_const_iterator@V?$_Vector_val@VioHashString@@V?$allocator@VioHashString@@@std@@@std@@@std@@PAVioHashString@@@std@@YA?AU_Nonscalar_ptr_iterator_tag@0@AAV?$_Vector_const_iterator@V?$_Vector_val@VioHashString@@V?$allocator@VioHashString@@@std@@@std@@@0@AAPAVioHashString@@@Z
_TEXT	SEGMENT
__Cat$ = -1						; size = 1
___formal$ = 8						; size = 4
___formal$ = 12						; size = 4
??$_Ptr_cat@V?$_Vector_const_iterator@V?$_Vector_val@VioHashString@@V?$allocator@VioHashString@@@std@@@std@@@std@@PAVioHashString@@@std@@YA?AU_Nonscalar_ptr_iterator_tag@0@AAV?$_Vector_const_iterator@V?$_Vector_val@VioHashString@@V?$allocator@VioHashString@@@std@@@std@@@0@AAPAVioHashString@@@Z PROC ; std::_Ptr_cat<std::_Vector_const_iterator<std::_Vector_val<ioHashString,std::allocator<ioHashString> > >,ioHashString *>, COMDAT

; 485  : 	{	// return pointer category from arbitrary arguments

  00000	55		 push	 ebp
  00001	8b ec		 mov	 ebp, esp
  00003	51		 push	 ecx

; 486  : 	_Nonscalar_ptr_iterator_tag _Cat;
; 487  : 	return (_Cat);

  00004	8a 45 ff	 mov	 al, BYTE PTR __Cat$[ebp]

; 488  : 	}

  00007	c9		 leave
  00008	c3		 ret	 0
??$_Ptr_cat@V?$_Vector_const_iterator@V?$_Vector_val@VioHashString@@V?$allocator@VioHashString@@@std@@@std@@@std@@PAVioHashString@@@std@@YA?AU_Nonscalar_ptr_iterator_tag@0@AAV?$_Vector_const_iterator@V?$_Vector_val@VioHashString@@V?$allocator@VioHashString@@@std@@@std@@@0@AAPAVioHashString@@@Z ENDP ; std::_Ptr_cat<std::_Vector_const_iterator<std::_Vector_val<ioHashString,std::allocator<ioHashString> > >,ioHashString *>
_TEXT	ENDS
PUBLIC	??$move@AAVioHashString@@@std@@YA$$QAVioHashString@@AAV1@@Z ; std::move<ioHashString &>
; Function compile flags: /Ogsp
; File c:\program files (x86)\microsoft visual studio 10.0\vc\include\utility
;	COMDAT ??$move@AAVioHashString@@@std@@YA$$QAVioHashString@@AAV1@@Z
_TEXT	SEGMENT
__Arg$ = 8						; size = 4
??$move@AAVioHashString@@@std@@YA$$QAVioHashString@@AAV1@@Z PROC ; std::move<ioHashString &>, COMDAT

; 86   : 	{	// forward _Arg as movable

  00000	55		 push	 ebp
  00001	8b ec		 mov	 ebp, esp

; 87   : 	return ((typename tr1::_Remove_reference<_Ty>::_Type&&)_Arg);

  00003	8b 45 08	 mov	 eax, DWORD PTR __Arg$[ebp]

; 88   : 	}

  00006	5d		 pop	 ebp
  00007	c3		 ret	 0
??$move@AAVioHashString@@@std@@YA$$QAVioHashString@@AAV1@@Z ENDP ; std::move<ioHashString &>
_TEXT	ENDS
PUBLIC	??$_Allocate@UWeaponInfo@@@std@@YAPAUWeaponInfo@@IPAU1@@Z ; std::_Allocate<WeaponInfo>
; Function compile flags: /Ogsp
; File c:\program files (x86)\microsoft visual studio 10.0\vc\include\xmemory
;	COMDAT ??$_Allocate@UWeaponInfo@@@std@@YAPAUWeaponInfo@@IPAU1@@Z
_TEXT	SEGMENT
$T556016 = -12						; size = 12
$T556020 = 8						; size = 4
__Count$ = 8						; size = 4
___formal$ = 12						; size = 4
??$_Allocate@UWeaponInfo@@@std@@YAPAUWeaponInfo@@IPAU1@@Z PROC ; std::_Allocate<WeaponInfo>, COMDAT

; 30   : 	{	// allocate storage for _Count elements of type _Ty

  00000	55		 push	 ebp
  00001	8b ec		 mov	 ebp, esp

; 31   : 	void *_Ptr = 0;
; 32   : 
; 33   : 	if (_Count <= 0)

  00003	8b 4d 08	 mov	 ecx, DWORD PTR __Count$[ebp]
  00006	83 ec 0c	 sub	 esp, 12			; 0000000cH
  00009	33 c0		 xor	 eax, eax
  0000b	85 c9		 test	 ecx, ecx

; 34   : 		_Count = 0;
; 35   : 	else if (((_SIZT)(-1) / sizeof (_Ty) < _Count)

  0000d	74 3c		 je	 SHORT $LN5@Allocate@2

; 36   : 		|| (_Ptr = ::operator new(_Count * sizeof (_Ty))) == 0)

  0000f	81 f9 66 66 66
	06		 cmp	 ecx, 107374182		; 06666666H
  00015	77 0e		 ja	 SHORT $LN1@Allocate@2
  00017	6b c9 28	 imul	 ecx, 40			; 00000028H
  0001a	51		 push	 ecx
  0001b	e8 00 00 00 00	 call	 ??2@YAPAXI@Z		; operator new
  00020	59		 pop	 ecx
  00021	85 c0		 test	 eax, eax

; 38   : 
; 39   : 	return ((_Ty _FARQ *)_Ptr);

  00023	75 26		 jne	 SHORT $LN5@Allocate@2
$LN1@Allocate@2:

; 37   : 		_THROW_NCEE(bad_alloc, 0);

  00025	83 65 08 00	 and	 DWORD PTR $T556020[ebp], 0
  00029	8d 45 08	 lea	 eax, DWORD PTR $T556020[ebp]
  0002c	50		 push	 eax
  0002d	8d 4d f4	 lea	 ecx, DWORD PTR $T556016[ebp]
  00030	ff 15 00 00 00
	00		 call	 DWORD PTR __imp_??0exception@std@@QAE@ABQBD@Z
  00036	68 00 00 00 00	 push	 OFFSET __TI2?AVbad_alloc@std@@
  0003b	8d 45 f4	 lea	 eax, DWORD PTR $T556016[ebp]
  0003e	50		 push	 eax
  0003f	c7 45 f4 00 00
	00 00		 mov	 DWORD PTR $T556016[ebp], OFFSET ??_7bad_alloc@std@@6B@
  00046	e8 00 00 00 00	 call	 __CxxThrowException@8
$LN10@Allocate@2:
$LN5@Allocate@2:

; 40   : 	}

  0004b	c9		 leave
  0004c	c3		 ret	 0
$LN9@Allocate@2:
??$_Allocate@UWeaponInfo@@@std@@YAPAUWeaponInfo@@IPAU1@@Z ENDP ; std::_Allocate<WeaponInfo>
_TEXT	ENDS
PUBLIC	??$_Allocate@UForceInfo@@@std@@YAPAUForceInfo@@IPAU1@@Z ; std::_Allocate<ForceInfo>
; Function compile flags: /Ogsp
;	COMDAT ??$_Allocate@UForceInfo@@@std@@YAPAUForceInfo@@IPAU1@@Z
_TEXT	SEGMENT
$T556025 = -12						; size = 12
$T556029 = 8						; size = 4
__Count$ = 8						; size = 4
___formal$ = 12						; size = 4
??$_Allocate@UForceInfo@@@std@@YAPAUForceInfo@@IPAU1@@Z PROC ; std::_Allocate<ForceInfo>, COMDAT

; 30   : 	{	// allocate storage for _Count elements of type _Ty

  00000	55		 push	 ebp
  00001	8b ec		 mov	 ebp, esp

; 31   : 	void *_Ptr = 0;
; 32   : 
; 33   : 	if (_Count <= 0)

  00003	8b 4d 08	 mov	 ecx, DWORD PTR __Count$[ebp]
  00006	83 ec 0c	 sub	 esp, 12			; 0000000cH
  00009	33 c0		 xor	 eax, eax
  0000b	85 c9		 test	 ecx, ecx

; 34   : 		_Count = 0;
; 35   : 	else if (((_SIZT)(-1) / sizeof (_Ty) < _Count)

  0000d	74 3c		 je	 SHORT $LN5@Allocate@3

; 36   : 		|| (_Ptr = ::operator new(_Count * sizeof (_Ty))) == 0)

  0000f	81 f9 55 55 55
	15		 cmp	 ecx, 357913941		; 15555555H
  00015	77 0e		 ja	 SHORT $LN1@Allocate@3
  00017	6b c9 0c	 imul	 ecx, 12			; 0000000cH
  0001a	51		 push	 ecx
  0001b	e8 00 00 00 00	 call	 ??2@YAPAXI@Z		; operator new
  00020	59		 pop	 ecx
  00021	85 c0		 test	 eax, eax

; 38   : 
; 39   : 	return ((_Ty _FARQ *)_Ptr);

  00023	75 26		 jne	 SHORT $LN5@Allocate@3
$LN1@Allocate@3:

; 37   : 		_THROW_NCEE(bad_alloc, 0);

  00025	83 65 08 00	 and	 DWORD PTR $T556029[ebp], 0
  00029	8d 45 08	 lea	 eax, DWORD PTR $T556029[ebp]
  0002c	50		 push	 eax
  0002d	8d 4d f4	 lea	 ecx, DWORD PTR $T556025[ebp]
  00030	ff 15 00 00 00
	00		 call	 DWORD PTR __imp_??0exception@std@@QAE@ABQBD@Z
  00036	68 00 00 00 00	 push	 OFFSET __TI2?AVbad_alloc@std@@
  0003b	8d 45 f4	 lea	 eax, DWORD PTR $T556025[ebp]
  0003e	50		 push	 eax
  0003f	c7 45 f4 00 00
	00 00		 mov	 DWORD PTR $T556025[ebp], OFFSET ??_7bad_alloc@std@@6B@
  00046	e8 00 00 00 00	 call	 __CxxThrowException@8
$LN10@Allocate@3:
$LN5@Allocate@3:

; 40   : 	}

  0004b	c9		 leave
  0004c	c3		 ret	 0
$LN9@Allocate@3:
??$_Allocate@UForceInfo@@@std@@YAPAUForceInfo@@IPAU1@@Z ENDP ; std::_Allocate<ForceInfo>
_TEXT	ENDS
PUBLIC	??D?$_Vector_const_iterator@V?$_Vector_val@VioHashString@@V?$allocator@VioHashString@@@std@@@std@@@std@@QBEABVioHashString@@XZ ; std::_Vector_const_iterator<std::_Vector_val<ioHashString,std::allocator<ioHashString> > >::operator*
; Function compile flags: /Ogsp
; File c:\program files (x86)\microsoft visual studio 10.0\vc\include\vector
;	COMDAT ??D?$_Vector_const_iterator@V?$_Vector_val@VioHashString@@V?$allocator@VioHashString@@@std@@@std@@@std@@QBEABVioHashString@@XZ
_TEXT	SEGMENT
??D?$_Vector_const_iterator@V?$_Vector_val@VioHashString@@V?$allocator@VioHashString@@@std@@@std@@@std@@QBEABVioHashString@@XZ PROC ; std::_Vector_const_iterator<std::_Vector_val<ioHashString,std::allocator<ioHashString> > >::operator*, COMDAT
; _this$ = ecx

; 64   :  #if _ITERATOR_DEBUG_LEVEL == 2
; 65   : 		if (this->_Getcont() == 0
; 66   : 			|| this->_Ptr == 0
; 67   : 			|| this->_Ptr < ((_Myvec *)this->_Getcont())->_Myfirst
; 68   : 			|| ((_Myvec *)this->_Getcont())->_Mylast <= this->_Ptr)
; 69   : 			{	// report error
; 70   : 			_DEBUG_ERROR("vector iterator not dereferencable");
; 71   : 			_SCL_SECURE_OUT_OF_RANGE;
; 72   : 			}
; 73   : 
; 74   :  #elif _ITERATOR_DEBUG_LEVEL == 1
; 75   : 		_SCL_SECURE_VALIDATE(this->_Getcont() != 0);
; 76   : 		_SCL_SECURE_VALIDATE_RANGE(
; 77   : 			this->_Ptr != 0
; 78   : 			&& ((_Myvec *)this->_Getcont())->_Myfirst <= this->_Ptr
; 79   : 			&& this->_Ptr < ((_Myvec *)this->_Getcont())->_Mylast);
; 80   :  #endif /* _ITERATOR_DEBUG_LEVEL */
; 81   : 
; 82   : 		__analysis_assume(this->_Ptr != 0);
; 83   : 
; 84   : 		return (*this->_Ptr);

  00000	8b 01		 mov	 eax, DWORD PTR [ecx]

; 85   : 		}

  00002	c3		 ret	 0
??D?$_Vector_const_iterator@V?$_Vector_val@VioHashString@@V?$allocator@VioHashString@@@std@@@std@@@std@@QBEABVioHashString@@XZ ENDP ; std::_Vector_const_iterator<std::_Vector_val<ioHashString,std::allocator<ioHashString> > >::operator*
_TEXT	ENDS
PUBLIC	??E?$_Vector_const_iterator@V?$_Vector_val@VioHashString@@V?$allocator@VioHashString@@@std@@@std@@@std@@QAEAAV01@XZ ; std::_Vector_const_iterator<std::_Vector_val<ioHashString,std::allocator<ioHashString> > >::operator++
; Function compile flags: /Ogsp
;	COMDAT ??E?$_Vector_const_iterator@V?$_Vector_val@VioHashString@@V?$allocator@VioHashString@@@std@@@std@@@std@@QAEAAV01@XZ
_TEXT	SEGMENT
??E?$_Vector_const_iterator@V?$_Vector_val@VioHashString@@V?$allocator@VioHashString@@@std@@@std@@@std@@QAEAAV01@XZ PROC ; std::_Vector_const_iterator<std::_Vector_val<ioHashString,std::allocator<ioHashString> > >::operator++, COMDAT
; _this$ = ecx

; 93   : 		{	// preincrement

  00000	8b c1		 mov	 eax, ecx

; 94   :  #if _ITERATOR_DEBUG_LEVEL == 2
; 95   : 		if (this->_Getcont() == 0
; 96   : 			|| this->_Ptr == 0
; 97   : 			|| ((_Myvec *)this->_Getcont())->_Mylast <= this->_Ptr)
; 98   : 			{	// report error
; 99   : 			_DEBUG_ERROR("vector iterator not incrementable");
; 100  : 			_SCL_SECURE_OUT_OF_RANGE;
; 101  : 			}
; 102  : 
; 103  :  #elif _ITERATOR_DEBUG_LEVEL == 1
; 104  : 		_SCL_SECURE_VALIDATE(this->_Getcont() != 0);
; 105  : 		_SCL_SECURE_VALIDATE_RANGE(
; 106  : 			this->_Ptr != 0
; 107  : 			&& this->_Ptr < ((_Myvec *)this->_Getcont())->_Mylast);
; 108  :  #endif /* _ITERATOR_DEBUG_LEVEL */
; 109  : 
; 110  : 		++this->_Ptr;

  00002	83 00 10	 add	 DWORD PTR [eax], 16	; 00000010H

; 111  : 		return (*this);
; 112  : 		}

  00005	c3		 ret	 0
??E?$_Vector_const_iterator@V?$_Vector_val@VioHashString@@V?$allocator@VioHashString@@@std@@@std@@@std@@QAEAAV01@XZ ENDP ; std::_Vector_const_iterator<std::_Vector_val<ioHashString,std::allocator<ioHashString> > >::operator++
_TEXT	ENDS
PUBLIC	??$_Destroy@UForceInfo@@@std@@YAXPAUForceInfo@@@Z ; std::_Destroy<ForceInfo>
; Function compile flags: /Ogsp
; File c:\program files (x86)\microsoft visual studio 10.0\vc\include\xmemory
;	COMDAT ??$_Destroy@UForceInfo@@@std@@YAXPAUForceInfo@@@Z
_TEXT	SEGMENT
__Ptr$ = 8						; size = 4
??$_Destroy@UForceInfo@@@std@@YAXPAUForceInfo@@@Z PROC	; std::_Destroy<ForceInfo>, COMDAT

; 63   : 	_Ptr->~_Ty();
; 64   : 	}

  00000	c3		 ret	 0
??$_Destroy@UForceInfo@@@std@@YAXPAUForceInfo@@@Z ENDP	; std::_Destroy<ForceInfo>
_TEXT	ENDS
PUBLIC	??_GioHashString@@QAEPAXI@Z			; ioHashString::`scalar deleting destructor'
; Function compile flags: /Ogsp
;	COMDAT ??_GioHashString@@QAEPAXI@Z
_TEXT	SEGMENT
___flags$ = 8						; size = 4
??_GioHashString@@QAEPAXI@Z PROC			; ioHashString::`scalar deleting destructor', COMDAT
; _this$ = ecx
  00000	55		 push	 ebp
  00001	8b ec		 mov	 ebp, esp
  00003	56		 push	 esi
  00004	8b f1		 mov	 esi, ecx
  00006	ff 15 00 00 00
	00		 call	 DWORD PTR __imp_??1ioHashString@@QAE@XZ
  0000c	f6 45 08 01	 test	 BYTE PTR ___flags$[ebp], 1
  00010	74 07		 je	 SHORT $LN1@scalar@3
  00012	56		 push	 esi
  00013	e8 00 00 00 00	 call	 ??3@YAXPAX@Z		; operator delete
  00018	59		 pop	 ecx
$LN1@scalar@3:
  00019	8b c6		 mov	 eax, esi
  0001b	5e		 pop	 esi
  0001c	5d		 pop	 ebp
  0001d	c2 04 00	 ret	 4
??_GioHashString@@QAEPAXI@Z ENDP			; ioHashString::`scalar deleting destructor'
_TEXT	ENDS
PUBLIC	??_GWeaponInfo@@QAEPAXI@Z			; WeaponInfo::`scalar deleting destructor'
; Function compile flags: /Ogsp
;	COMDAT ??_GWeaponInfo@@QAEPAXI@Z
_TEXT	SEGMENT
___flags$ = 8						; size = 4
??_GWeaponInfo@@QAEPAXI@Z PROC				; WeaponInfo::`scalar deleting destructor', COMDAT
; _this$ = ecx
  00000	55		 push	 ebp
  00001	8b ec		 mov	 ebp, esp
  00003	56		 push	 esi
  00004	8b f1		 mov	 esi, ecx
  00006	8d 4e 08	 lea	 ecx, DWORD PTR [esi+8]
  00009	ff 15 00 00 00
	00		 call	 DWORD PTR __imp_??1ioHashString@@QAE@XZ
  0000f	f6 45 08 01	 test	 BYTE PTR ___flags$[ebp], 1
  00013	74 07		 je	 SHORT $LN1@scalar@4
  00015	56		 push	 esi
  00016	e8 00 00 00 00	 call	 ??3@YAXPAX@Z		; operator delete
  0001b	59		 pop	 ecx
$LN1@scalar@4:
  0001c	8b c6		 mov	 eax, esi
  0001e	5e		 pop	 esi
  0001f	5d		 pop	 ebp
  00020	c2 04 00	 ret	 4
??_GWeaponInfo@@QAEPAXI@Z ENDP				; WeaponInfo::`scalar deleting destructor'
_TEXT	ENDS
PUBLIC	??$_Construct@VioHashString@@ABV1@@std@@YAXPAVioHashString@@ABV1@@Z ; std::_Construct<ioHashString,ioHashString const &>
;	COMDAT xdata$x
; File c:\program files (x86)\microsoft visual studio 10.0\vc\include\utility
xdata$x	SEGMENT
__unwindtable$??$_Construct@VioHashString@@ABV1@@std@@YAXPAVioHashString@@ABV1@@Z DD 0ffffffffH
	DD	FLAT:__unwindfunclet$??$_Construct@VioHashString@@ABV1@@std@@YAXPAVioHashString@@ABV1@@Z$0
__ehfuncinfo$??$_Construct@VioHashString@@ABV1@@std@@YAXPAVioHashString@@ABV1@@Z DD 019930522H
	DD	01H
	DD	FLAT:__unwindtable$??$_Construct@VioHashString@@ABV1@@std@@YAXPAVioHashString@@ABV1@@Z
	DD	2 DUP(00H)
	DD	2 DUP(00H)
	DD	00H
	DD	01H
; Function compile flags: /Ogsp
; File c:\program files (x86)\microsoft visual studio 10.0\vc\include\xmemory
xdata$x	ENDS
;	COMDAT ??$_Construct@VioHashString@@ABV1@@std@@YAXPAVioHashString@@ABV1@@Z
_TEXT	SEGMENT
$T556052 = -16						; size = 4
__$EHRec$ = -12						; size = 12
__Vptr$ = 8						; size = 4
__Ptr$ = 8						; size = 4
__Val$ = 12						; size = 4
??$_Construct@VioHashString@@ABV1@@std@@YAXPAVioHashString@@ABV1@@Z PROC ; std::_Construct<ioHashString,ioHashString const &>, COMDAT

; 46   : 	{	// construct object at _Ptr with value _Val

  00000	6a 04		 push	 4
  00002	b8 00 00 00 00	 mov	 eax, __ehhandler$??$_Construct@VioHashString@@ABV1@@std@@YAXPAVioHashString@@ABV1@@Z
  00007	e8 00 00 00 00	 call	 __EH_prolog3

; 47   : 	void _FARQ *_Vptr = _Ptr;

  0000c	8b 4d 08	 mov	 ecx, DWORD PTR __Ptr$[ebp]
  0000f	89 4d 08	 mov	 DWORD PTR __Vptr$[ebp], ecx

; 48   : 	::new (_Vptr) _Ty1(_STD forward<_Ty2>(_Val));

  00012	89 4d f0	 mov	 DWORD PTR $T556052[ebp], ecx
  00015	83 65 fc 00	 and	 DWORD PTR __$EHRec$[ebp+8], 0
  00019	85 c9		 test	 ecx, ecx
  0001b	74 09		 je	 SHORT $LN3@Construct@2
  0001d	ff 75 0c	 push	 DWORD PTR __Val$[ebp]
  00020	ff 15 00 00 00
	00		 call	 DWORD PTR __imp_??0ioHashString@@QAE@ABV0@@Z
$LN3@Construct@2:

; 49   : 	}

  00026	e8 00 00 00 00	 call	 __EH_epilog3
  0002b	c3		 ret	 0
_TEXT	ENDS
;	COMDAT text$x
text$x	SEGMENT
__unwindfunclet$??$_Construct@VioHashString@@ABV1@@std@@YAXPAVioHashString@@ABV1@@Z$0:
  00000	ff 75 08	 push	 DWORD PTR __Vptr$[ebp]
  00003	ff 75 f0	 push	 DWORD PTR $T556052[ebp]
  00006	e8 00 00 00 00	 call	 ??3@YAXPAX0@Z		; operator delete
  0000b	59		 pop	 ecx
  0000c	59		 pop	 ecx
  0000d	c3		 ret	 0
__ehhandler$??$_Construct@VioHashString@@ABV1@@std@@YAXPAVioHashString@@ABV1@@Z:
  0000e	8b 54 24 08	 mov	 edx, DWORD PTR [esp+8]
  00012	8d 42 0c	 lea	 eax, DWORD PTR [edx+12]
  00015	8b 4a ec	 mov	 ecx, DWORD PTR [edx-20]
  00018	33 c8		 xor	 ecx, eax
  0001a	e8 00 00 00 00	 call	 @__security_check_cookie@4
  0001f	b8 00 00 00 00	 mov	 eax, OFFSET __ehfuncinfo$??$_Construct@VioHashString@@ABV1@@std@@YAXPAVioHashString@@ABV1@@Z
  00024	e9 00 00 00 00	 jmp	 ___CxxFrameHandler3
text$x	ENDS
??$_Construct@VioHashString@@ABV1@@std@@YAXPAVioHashString@@ABV1@@Z ENDP ; std::_Construct<ioHashString,ioHashString const &>
PUBLIC	??0WeaponInfo@@QAE@ABU0@@Z			; WeaponInfo::WeaponInfo
; Function compile flags: /Ogsp
;	COMDAT ??0WeaponInfo@@QAE@ABU0@@Z
_TEXT	SEGMENT
___that$ = 8						; size = 4
??0WeaponInfo@@QAE@ABU0@@Z PROC				; WeaponInfo::WeaponInfo, COMDAT
; _this$ = ecx
  00000	55		 push	 ebp
  00001	8b ec		 mov	 ebp, esp
  00003	56		 push	 esi
  00004	57		 push	 edi
  00005	8b 7d 08	 mov	 edi, DWORD PTR ___that$[ebp]
  00008	8b 07		 mov	 eax, DWORD PTR [edi]
  0000a	8b f1		 mov	 esi, ecx
  0000c	89 06		 mov	 DWORD PTR [esi], eax
  0000e	8b 47 04	 mov	 eax, DWORD PTR [edi+4]
  00011	89 46 04	 mov	 DWORD PTR [esi+4], eax
  00014	8d 47 08	 lea	 eax, DWORD PTR [edi+8]
  00017	50		 push	 eax
  00018	8d 4e 08	 lea	 ecx, DWORD PTR [esi+8]
  0001b	ff 15 00 00 00
	00		 call	 DWORD PTR __imp_??0ioHashString@@QAE@ABV0@@Z
  00021	8b 47 18	 mov	 eax, DWORD PTR [edi+24]
  00024	89 46 18	 mov	 DWORD PTR [esi+24], eax
  00027	8b 47 1c	 mov	 eax, DWORD PTR [edi+28]
  0002a	89 46 1c	 mov	 DWORD PTR [esi+28], eax
  0002d	8a 47 20	 mov	 al, BYTE PTR [edi+32]
  00030	88 46 20	 mov	 BYTE PTR [esi+32], al
  00033	8b 47 24	 mov	 eax, DWORD PTR [edi+36]
  00036	89 46 24	 mov	 DWORD PTR [esi+36], eax
  00039	5f		 pop	 edi
  0003a	8b c6		 mov	 eax, esi
  0003c	5e		 pop	 esi
  0003d	5d		 pop	 ebp
  0003e	c2 04 00	 ret	 4
??0WeaponInfo@@QAE@ABU0@@Z ENDP				; WeaponInfo::WeaponInfo
_TEXT	ENDS
PUBLIC	?ToJumperItem@@YAPAVioJumperItem@@PAVioItem@@@Z	; ToJumperItem
; Function compile flags: /Ogsp
; File d:\lost saga for developer\youtube\tutorial\source\src\lsclient\iojumperitem.h
;	COMDAT ?ToJumperItem@@YAPAVioJumperItem@@PAVioItem@@@Z
_TEXT	SEGMENT
_pItem$ = 8						; size = 4
?ToJumperItem@@YAPAVioJumperItem@@PAVioItem@@@Z PROC	; ToJumperItem, COMDAT

; 206  : {

  00000	55		 push	 ebp
  00001	8b ec		 mov	 ebp, esp

; 207  : 	ioWeaponItem *pWeapon = ToWeaponItem( pItem );

  00003	ff 75 08	 push	 DWORD PTR _pItem$[ebp]
  00006	e8 00 00 00 00	 call	 ?ToWeaponItem@@YAPAVioWeaponItem@@PAVioItem@@@Z ; ToWeaponItem
  0000b	59		 pop	 ecx

; 208  : 	if( !pWeapon || pWeapon->GetSubType() != ioWeaponItem::WST_JUMPER_ITEM )

  0000c	85 c0		 test	 eax, eax
  0000e	74 14		 je	 SHORT $LN1@ToJumperIt
  00010	8b 10		 mov	 edx, DWORD PTR [eax]
  00012	8b c8		 mov	 ecx, eax
  00014	ff 92 f0 02 00
	00		 call	 DWORD PTR [edx+752]
  0001a	83 f8 6c	 cmp	 eax, 108		; 0000006cH
  0001d	75 05		 jne	 SHORT $LN1@ToJumperIt

; 210  : 
; 211  : 	return static_cast< ioJumperItem* >( pItem );

  0001f	8b 45 08	 mov	 eax, DWORD PTR _pItem$[ebp]

; 212  : }

  00022	5d		 pop	 ebp
  00023	c3		 ret	 0
$LN1@ToJumperIt:

; 209  : 		return NULL;

  00024	33 c0		 xor	 eax, eax

; 212  : }

  00026	5d		 pop	 ebp
  00027	c3		 ret	 0
?ToJumperItem@@YAPAVioJumperItem@@PAVioItem@@@Z ENDP	; ToJumperItem
_TEXT	ENDS
PUBLIC	?ClearSpecial@ioJumperItem@@QAEXPAVioBaseChar@@W4CharState@@@Z ; ioJumperItem::ClearSpecial
EXTRN	?ClearReserveKeyInput@ioBaseChar@@QAEXXZ:PROC	; ioBaseChar::ClearReserveKeyInput
EXTRN	?ClearSkillReserveKey@ioBaseChar@@QAEXXZ:PROC	; ioBaseChar::ClearSkillReserveKey
; Function compile flags: /Ogsp
; File d:\lost saga for developer\youtube\tutorial\source\src\lsclient\iojumperitem.cpp
;	COMDAT ?ClearSpecial@ioJumperItem@@QAEXPAVioBaseChar@@W4CharState@@@Z
_TEXT	SEGMENT
_pOwner$ = 8						; size = 4
_eNewState$ = 12					; size = 1
?ClearSpecial@ioJumperItem@@QAEXPAVioBaseChar@@W4CharState@@@Z PROC ; ioJumperItem::ClearSpecial, COMDAT
; _this$ = ecx

; 178  : {

  00000	55		 push	 ebp
  00001	8b ec		 mov	 ebp, esp
  00003	56		 push	 esi
  00004	57		 push	 edi

; 179  : 	DestroyMapEffect( pOwner->GetCreator(), pOwner );

  00005	8b 7d 08	 mov	 edi, DWORD PTR _pOwner$[ebp]
  00008	57		 push	 edi
  00009	ff b7 44 03 00
	00		 push	 DWORD PTR [edi+836]
  0000f	8b f1		 mov	 esi, ecx
  00011	e8 00 00 00 00	 call	 ?DestroyMapEffect@ioJumperItem@@QAEXPAVioPlayStage@@PAVioBaseChar@@@Z ; ioJumperItem::DestroyMapEffect

; 180  : 
; 181  : 	Init();

  00016	8b ce		 mov	 ecx, esi
  00018	e8 00 00 00 00	 call	 ?Init@ioJumperItem@@QAEXXZ ; ioJumperItem::Init

; 182  : 
; 183  : 	ClearKeyReserve();

  0001d	8b 06		 mov	 eax, DWORD PTR [esi]
  0001f	ff 90 a8 01 00
	00		 call	 DWORD PTR [eax+424]

; 184  : 	ClearCancelInfo();

  00025	8b 06		 mov	 eax, DWORD PTR [esi]
  00027	8b ce		 mov	 ecx, esi
  00029	ff 90 3c 02 00
	00		 call	 DWORD PTR [eax+572]

; 185  : 
; 186  : 	pOwner->ClearSkillReserveKey();

  0002f	8b cf		 mov	 ecx, edi
  00031	e8 00 00 00 00	 call	 ?ClearSkillReserveKey@ioBaseChar@@QAEXXZ ; ioBaseChar::ClearSkillReserveKey

; 187  : 	pOwner->ClearReserveKeyInput();

  00036	8b cf		 mov	 ecx, edi
  00038	e8 00 00 00 00	 call	 ?ClearReserveKeyInput@ioBaseChar@@QAEXXZ ; ioBaseChar::ClearReserveKeyInput
  0003d	5f		 pop	 edi
  0003e	5e		 pop	 esi

; 188  : }

  0003f	5d		 pop	 ebp
  00040	c2 08 00	 ret	 8
?ClearSpecial@ioJumperItem@@QAEXPAVioBaseChar@@W4CharState@@@Z ENDP ; ioJumperItem::ClearSpecial
_TEXT	ENDS
PUBLIC	__real@0000000000000000
PUBLIC	__real@bf800000
PUBLIC	_fOffset$GSCopy$
PUBLIC	_pOwner$GSCopy$
PUBLIC	_pStage$GSCopy$
PUBLIC	__$ArrayPad$
PUBLIC	?CalcPortalPos@ioJumperItem@@IAE?AUD3DXVECTOR3@@PAVioPlayStage@@PAVioBaseChar@@MMM@Z ; ioJumperItem::CalcPortalPos
EXTRN	?GetMapHeight@ioPlayStage@@QAEMMMPBVioGameEntity@@_NM1@Z:PROC ; ioPlayStage::GetMapHeight
EXTRN	_D3DXVec3Normalize@8:PROC
EXTRN	__imp_??D@YA?AUD3DXVECTOR3@@ABUD3DXQUATERNION@@ABU0@@Z:PROC
;	COMDAT __real@0000000000000000
; File c:\program files (x86)\microsoft directx sdk (june 2010)\include\d3dx9math.inl
CONST	SEGMENT
__real@0000000000000000 DQ 00000000000000000r	; 0
CONST	ENDS
;	COMDAT __real@bf800000
CONST	SEGMENT
__real@bf800000 DD 0bf800000r			; -1
; Function compile flags: /Ogsp
; File d:\lost saga for developer\youtube\tutorial\source\src\lsclient\iojumperitem.cpp
CONST	ENDS
;	COMDAT ?CalcPortalPos@ioJumperItem@@IAE?AUD3DXVECTOR3@@PAVioPlayStage@@PAVioBaseChar@@MMM@Z
_TEXT	SEGMENT
_vPos$ = -52						; size = 12
_pOwner$GSCopy$ = -40					; size = 4
_pStage$GSCopy$ = -36					; size = 4
_fOffset$GSCopy$ = -32					; size = 4
_fPortal$ = -32						; size = 4
$T550564 = -28						; size = 12
_vDir$ = -16						; size = 12
__$ArrayPad$ = -4					; size = 4
___$ReturnUdt$ = 8					; size = 4
_pStage$ = 12						; size = 4
_pOwner$ = 16						; size = 4
_fHeight$ = 20						; size = 4
_fOffset$ = 24						; size = 4
_fHeightOffset$ = 28					; size = 4
?CalcPortalPos@ioJumperItem@@IAE?AUD3DXVECTOR3@@PAVioPlayStage@@PAVioBaseChar@@MMM@Z PROC ; ioJumperItem::CalcPortalPos, COMDAT
; _this$ = ecx

; 585  : {

  00000	55		 push	 ebp
  00001	8b ec		 mov	 ebp, esp
  00003	83 ec 34	 sub	 esp, 52			; 00000034H
  00006	a1 00 00 00 00	 mov	 eax, DWORD PTR ___security_cookie
  0000b	33 c5		 xor	 eax, ebp
  0000d	89 45 fc	 mov	 DWORD PTR __$ArrayPad$[ebp], eax
  00010	8b 45 0c	 mov	 eax, DWORD PTR _pStage$[ebp]
  00013	8b 4d 10	 mov	 ecx, DWORD PTR _pOwner$[ebp]
  00016	f3 0f 10 45 18	 movss	 xmm0, DWORD PTR _fOffset$[ebp]
  0001b	53		 push	 ebx
  0001c	8b 5d 08	 mov	 ebx, DWORD PTR ___$ReturnUdt$[ebp]
  0001f	56		 push	 esi

; 595  : 
; 596  : 	return vPortal;

  00020	89 45 dc	 mov	 DWORD PTR _pStage$GSCopy$[ebp], eax
  00023	8b 01		 mov	 eax, DWORD PTR [ecx]
  00025	57		 push	 edi
  00026	89 4d d8	 mov	 DWORD PTR _pOwner$GSCopy$[ebp], ecx
  00029	f3 0f 11 45 e0	 movss	 DWORD PTR _fOffset$GSCopy$[ebp], xmm0
  0002e	ff 50 70	 call	 DWORD PTR [eax+112]
  00031	0f 57 c0	 xorps	 xmm0, xmm0
  00034	8b f0		 mov	 esi, eax
  00036	8d 7d cc	 lea	 edi, DWORD PTR _vPos$[ebp]
  00039	a5		 movsd
  0003a	8d 45 e4	 lea	 eax, DWORD PTR $T550564[ebp]
  0003d	50		 push	 eax
  0003e	8b 45 d8	 mov	 eax, DWORD PTR _pOwner$GSCopy$[ebp]
  00041	05 a4 06 00 00	 add	 eax, 1700		; 000006a4H
  00046	a5		 movsd
  00047	50		 push	 eax
  00048	8d 45 f0	 lea	 eax, DWORD PTR _vDir$[ebp]
  0004b	f3 0f 11 45 e4	 movss	 DWORD PTR $T550564[ebp], xmm0
  00050	f3 0f 11 45 e8	 movss	 DWORD PTR $T550564[ebp+4], xmm0
  00055	f3 0f 10 05 00
	00 00 00	 movss	 xmm0, DWORD PTR __real@bf800000
  0005d	50		 push	 eax
  0005e	a5		 movsd
  0005f	f3 0f 11 45 ec	 movss	 DWORD PTR $T550564[ebp+8], xmm0
  00064	ff 15 00 00 00
	00		 call	 DWORD PTR __imp_??D@YA?AUD3DXVECTOR3@@ABUD3DXQUATERNION@@ABU0@@Z
  0006a	83 c4 0c	 add	 esp, 12			; 0000000cH
  0006d	8d 45 f0	 lea	 eax, DWORD PTR _vDir$[ebp]
  00070	50		 push	 eax
  00071	50		 push	 eax
  00072	e8 00 00 00 00	 call	 _D3DXVec3Normalize@8
  00077	f3 0f 10 4d f0	 movss	 xmm1, DWORD PTR _vDir$[ebp]
  0007c	f3 0f 10 45 e0	 movss	 xmm0, DWORD PTR _fOffset$GSCopy$[ebp]
  00081	f3 0f 10 55 e0	 movss	 xmm2, DWORD PTR _fOffset$GSCopy$[ebp]
  00086	f3 0f 10 5d e0	 movss	 xmm3, DWORD PTR _fOffset$GSCopy$[ebp]
  0008b	0f 5a c9	 cvtps2pd xmm1, xmm1
  0008e	0f 5a c0	 cvtps2pd xmm0, xmm0
  00091	f2 0f 59 c1	 mulsd	 xmm0, xmm1
  00095	f3 0f 10 4d f4	 movss	 xmm1, DWORD PTR _vDir$[ebp+4]
  0009a	0f 5a c9	 cvtps2pd xmm1, xmm1
  0009d	0f 5a d2	 cvtps2pd xmm2, xmm2
  000a0	f2 0f 59 ca	 mulsd	 xmm1, xmm2
  000a4	f3 0f 10 55 f8	 movss	 xmm2, DWORD PTR _vDir$[ebp+8]
  000a9	0f 5a db	 cvtps2pd xmm3, xmm3
  000ac	0f 5a d2	 cvtps2pd xmm2, xmm2
  000af	f2 0f 59 d3	 mulsd	 xmm2, xmm3
  000b3	f3 0f 10 5d cc	 movss	 xmm3, DWORD PTR _vPos$[ebp]
  000b8	66 0f 5a c9	 cvtpd2ps xmm1, xmm1
  000bc	f2 0f 5a c0	 cvtsd2ss xmm0, xmm0
  000c0	0f 5a db	 cvtps2pd xmm3, xmm3
  000c3	f3 0f 5a c9	 cvtss2sd xmm1, xmm1
  000c7	f3 0f 5a c0	 cvtss2sd xmm0, xmm0
  000cb	f2 0f 58 c3	 addsd	 xmm0, xmm3
  000cf	f3 0f 10 5d d0	 movss	 xmm3, DWORD PTR _vPos$[ebp+4]
  000d4	0f 5a db	 cvtps2pd xmm3, xmm3
  000d7	f2 0f 58 d9	 addsd	 xmm3, xmm1
  000db	0f 57 c9	 xorps	 xmm1, xmm1
  000de	66 0f 5a cb	 cvtpd2ps xmm1, xmm3
  000e2	f3 0f 11 4b 04	 movss	 DWORD PTR [ebx+4], xmm1
  000e7	f3 0f 10 4d d4	 movss	 xmm1, DWORD PTR _vPos$[ebp+8]
  000ec	6a 00		 push	 0
  000ee	51		 push	 ecx
  000ef	66 0f 5a d2	 cvtpd2ps xmm2, xmm2
  000f3	0f 5a c9	 cvtps2pd xmm1, xmm1
  000f6	f3 0f 5a d2	 cvtss2sd xmm2, xmm2
  000fa	f2 0f 58 ca	 addsd	 xmm1, xmm2
  000fe	0f 57 d2	 xorps	 xmm2, xmm2
  00101	f3 0f 11 14 24	 movss	 DWORD PTR [esp], xmm2
  00106	6a 01		 push	 1
  00108	6a 00		 push	 0
  0010a	51		 push	 ecx
  0010b	66 0f 5a c9	 cvtpd2ps xmm1, xmm1
  0010f	51		 push	 ecx
  00110	f2 0f 5a c0	 cvtsd2ss xmm0, xmm0
  00114	f3 0f 11 03	 movss	 DWORD PTR [ebx], xmm0
  00118	f3 0f 11 4b 08	 movss	 DWORD PTR [ebx+8], xmm1
  0011d	f3 0f 11 4c 24
	04		 movss	 DWORD PTR [esp+4], xmm1

; 586  : 	D3DXVECTOR3 vPos = pOwner->GetWorldPosition();
; 587  : 	D3DXVECTOR3 vDir = pOwner->GetTargetRot() * D3DXVECTOR3( 0.0f, 0.0f, -1.0f );
; 588  : 	D3DXVec3Normalize( &vDir, &vDir );
; 589  : 
; 590  : 	// ,      
; 591  : 	D3DXVECTOR3 vPortal = vPos + vDir * fOffset;
; 592  : 	float fPortal = pStage->GetMapHeight( vPortal.x, vPortal.z );

  00123	8b 4d dc	 mov	 ecx, DWORD PTR _pStage$GSCopy$[ebp]
  00126	f3 0f 11 04 24	 movss	 DWORD PTR [esp], xmm0
  0012b	e8 00 00 00 00	 call	 ?GetMapHeight@ioPlayStage@@QAEMMMPBVioGameEntity@@_NM1@Z ; ioPlayStage::GetMapHeight
  00130	d9 5d e0	 fstp	 DWORD PTR _fPortal$[ebp]

; 593  : 	if( 0.0f < fPortal )

  00133	d9 ee		 fldz
  00135	d9 45 e0	 fld	 DWORD PTR _fPortal$[ebp]
  00138	df f1		 fcomip	 ST(1)
  0013a	dd d8		 fstp	 ST(0)
  0013c	76 29		 jbe	 SHORT $LN1@CalcPortal

; 594  : 		vPortal.y = fPortal + fHeight + fHeightOffset;

  0013e	f3 0f 10 45 e0	 movss	 xmm0, DWORD PTR _fPortal$[ebp]
  00143	f3 0f 10 4d 14	 movss	 xmm1, DWORD PTR _fHeight$[ebp]
  00148	0f 5a c0	 cvtps2pd xmm0, xmm0
  0014b	0f 5a c9	 cvtps2pd xmm1, xmm1
  0014e	f2 0f 58 c1	 addsd	 xmm0, xmm1
  00152	f3 0f 10 4d 1c	 movss	 xmm1, DWORD PTR _fHeightOffset$[ebp]
  00157	0f 5a c9	 cvtps2pd xmm1, xmm1
  0015a	f2 0f 58 c1	 addsd	 xmm0, xmm1
  0015e	66 0f 5a c0	 cvtpd2ps xmm0, xmm0
  00162	f3 0f 11 43 04	 movss	 DWORD PTR [ebx+4], xmm0
$LN1@CalcPortal:

; 597  : }

  00167	8b 4d fc	 mov	 ecx, DWORD PTR __$ArrayPad$[ebp]
  0016a	5f		 pop	 edi
  0016b	5e		 pop	 esi
  0016c	8b c3		 mov	 eax, ebx
  0016e	33 cd		 xor	 ecx, ebp
  00170	5b		 pop	 ebx
  00171	e8 00 00 00 00	 call	 @__security_check_cookie@4
  00176	c9		 leave
  00177	c2 18 00	 ret	 24			; 00000018H
?CalcPortalPos@ioJumperItem@@IAE?AUD3DXVECTOR3@@PAVioPlayStage@@PAVioBaseChar@@MMM@Z ENDP ; ioJumperItem::CalcPortalPos
_TEXT	ENDS
PUBLIC	__$ArrayPad$
PUBLIC	?MakeMapEffect@ioJumperItem@@IAEXPAVioPlayStage@@PAVioBaseChar@@ABVioHashString@@UD3DXVECTOR3@@AAK@Z ; ioJumperItem::MakeMapEffect
EXTRN	?GetUniqueID@ioMapEffect@@QBEKXZ:PROC		; ioMapEffect::GetUniqueID
EXTRN	?CreateMapEffect@ioPlayStage@@QAEPAVioMapEffect@@ABVioHashString@@ABUD3DXVECTOR3@@1@Z:PROC ; ioPlayStage::CreateMapEffect
; Function compile flags: /Ogsp
;	COMDAT ?MakeMapEffect@ioJumperItem@@IAEXPAVioPlayStage@@PAVioBaseChar@@ABVioHashString@@UD3DXVECTOR3@@AAK@Z
_TEXT	SEGMENT
$T550580 = -16						; size = 12
__$ArrayPad$ = -4					; size = 4
_pStage$ = 8						; size = 4
_pOwner$ = 12						; size = 4
_szEffectName$ = 16					; size = 4
_vPos$ = 20						; size = 12
_ObjID$ = 32						; size = 4
?MakeMapEffect@ioJumperItem@@IAEXPAVioPlayStage@@PAVioBaseChar@@ABVioHashString@@UD3DXVECTOR3@@AAK@Z PROC ; ioJumperItem::MakeMapEffect, COMDAT
; _this$ = ecx

; 600  : {

  00000	55		 push	 ebp
  00001	8b ec		 mov	 ebp, esp
  00003	83 ec 10	 sub	 esp, 16			; 00000010H
  00006	a1 00 00 00 00	 mov	 eax, DWORD PTR ___security_cookie
  0000b	33 c5		 xor	 eax, ebp
  0000d	89 45 fc	 mov	 DWORD PTR __$ArrayPad$[ebp], eax
  00010	8b 45 10	 mov	 eax, DWORD PTR _szEffectName$[ebp]

; 601  : 	ioMapEffect* pMapEffect = pStage->CreateMapEffect( szEffectName, vPos, D3DXVECTOR3( 1.0f, 1.0f, 1.0f ) );

  00013	f3 0f 10 05 00
	00 00 00	 movss	 xmm0, DWORD PTR __real@3f800000
  0001b	8b 4d 08	 mov	 ecx, DWORD PTR _pStage$[ebp]
  0001e	56		 push	 esi
  0001f	8b 75 20	 mov	 esi, DWORD PTR _ObjID$[ebp]
  00022	8d 55 f0	 lea	 edx, DWORD PTR $T550580[ebp]
  00025	52		 push	 edx
  00026	8d 55 14	 lea	 edx, DWORD PTR _vPos$[ebp]
  00029	52		 push	 edx
  0002a	50		 push	 eax
  0002b	f3 0f 11 45 f0	 movss	 DWORD PTR $T550580[ebp], xmm0
  00030	f3 0f 11 45 f4	 movss	 DWORD PTR $T550580[ebp+4], xmm0
  00035	f3 0f 11 45 f8	 movss	 DWORD PTR $T550580[ebp+8], xmm0
  0003a	e8 00 00 00 00	 call	 ?CreateMapEffect@ioPlayStage@@QAEPAVioMapEffect@@ABVioHashString@@ABUD3DXVECTOR3@@1@Z ; ioPlayStage::CreateMapEffect

; 602  : 	if( pMapEffect )

  0003f	85 c0		 test	 eax, eax
  00041	74 09		 je	 SHORT $LN1@MakeMapEff

; 603  : 	{
; 604  : 		ObjID = pMapEffect->GetUniqueID();

  00043	8b c8		 mov	 ecx, eax
  00045	e8 00 00 00 00	 call	 ?GetUniqueID@ioMapEffect@@QBEKXZ ; ioMapEffect::GetUniqueID
  0004a	89 06		 mov	 DWORD PTR [esi], eax
$LN1@MakeMapEff:

; 605  : 	}
; 606  : }

  0004c	8b 4d fc	 mov	 ecx, DWORD PTR __$ArrayPad$[ebp]
  0004f	33 cd		 xor	 ecx, ebp
  00051	5e		 pop	 esi
  00052	e8 00 00 00 00	 call	 @__security_check_cookie@4
  00057	c9		 leave
  00058	c2 1c 00	 ret	 28			; 0000001cH
?MakeMapEffect@ioJumperItem@@IAEXPAVioPlayStage@@PAVioBaseChar@@ABVioHashString@@UD3DXVECTOR3@@AAK@Z ENDP ; ioJumperItem::MakeMapEffect
_TEXT	ENDS
PUBLIC	_pOwner$GSCopy$
PUBLIC	___$ReturnUdt$GSCopy$
PUBLIC	__real@00000000
PUBLIC	__$ArrayPad$
PUBLIC	?GetGrapplingTargetPos@ioJumperItem@@QAE?AUD3DXVECTOR3@@PAVioBaseChar@@@Z ; ioJumperItem::GetGrapplingTargetPos
EXTRN	?GetMidPositionByRate@ioGameEntity@@QBE?AUD3DXVECTOR3@@M@Z:PROC ; ioGameEntity::GetMidPositionByRate
;	COMDAT __real@00000000
; File c:\program files (x86)\microsoft directx sdk (june 2010)\include\d3dx9math.inl
CONST	SEGMENT
__real@00000000 DD 000000000r			; 0
; Function compile flags: /Ogsp
; File d:\lost saga for developer\youtube\tutorial\source\src\lsclient\iojumperitem.cpp
CONST	ENDS
;	COMDAT ?GetGrapplingTargetPos@ioJumperItem@@QAE?AUD3DXVECTOR3@@PAVioBaseChar@@@Z
_TEXT	SEGMENT
_pOwner$GSCopy$ = -48					; size = 4
___$ReturnUdt$GSCopy$ = -44				; size = 4
_vPos$550588 = -40					; size = 12
$T550591 = -28						; size = 12
$T550589 = -28						; size = 12
_vDir$550590 = -16					; size = 12
__$ArrayPad$ = -4					; size = 4
___$ReturnUdt$ = 8					; size = 4
_pOwner$ = 12						; size = 4
?GetGrapplingTargetPos@ioJumperItem@@QAE?AUD3DXVECTOR3@@PAVioBaseChar@@@Z PROC ; ioJumperItem::GetGrapplingTargetPos, COMDAT
; _this$ = ecx

; 609  : {

  00000	55		 push	 ebp
  00001	8b ec		 mov	 ebp, esp
  00003	83 ec 30	 sub	 esp, 48			; 00000030H
  00006	a1 00 00 00 00	 mov	 eax, DWORD PTR ___security_cookie
  0000b	33 c5		 xor	 eax, ebp
  0000d	89 45 fc	 mov	 DWORD PTR __$ArrayPad$[ebp], eax
  00010	8b 45 08	 mov	 eax, DWORD PTR ___$ReturnUdt$[ebp]
  00013	53		 push	 ebx
  00014	8b d9		 mov	 ebx, ecx
  00016	8b 4d 0c	 mov	 ecx, DWORD PTR _pOwner$[ebp]

; 610  : 	if( m_fGrapplingOffsetGapRange > 0.0f )

  00019	f3 0f 10 83 14
	1b 00 00	 movss	 xmm0, DWORD PTR [ebx+6932]
  00021	0f 2f 05 00 00
	00 00		 comiss	 xmm0, DWORD PTR __real@00000000
  00028	56		 push	 esi
  00029	57		 push	 edi

; 611  : 	{
; 612  : 		D3DXVECTOR3 vPos = ioMath::VEC3_ZERO;
; 613  : 
; 614  : 		vPos = pOwner->GetMidPositionByRate( m_fGrapplingOffsetHeightRate );		

  0002a	89 45 d4	 mov	 DWORD PTR ___$ReturnUdt$GSCopy$[ebp], eax
  0002d	89 4d d0	 mov	 DWORD PTR _pOwner$GSCopy$[ebp], ecx
  00030	0f 86 00 01 00
	00		 jbe	 $LN2@GetGrappli
  00036	f3 0f 10 83 18
	1b 00 00	 movss	 xmm0, DWORD PTR [ebx+6936]
  0003e	51		 push	 ecx
  0003f	8d 45 e4	 lea	 eax, DWORD PTR $T550589[ebp]
  00042	f3 0f 11 04 24	 movss	 DWORD PTR [esp], xmm0
  00047	50		 push	 eax
  00048	e8 00 00 00 00	 call	 ?GetMidPositionByRate@ioGameEntity@@QBE?AUD3DXVECTOR3@@M@Z ; ioGameEntity::GetMidPositionByRate

; 615  : 		D3DXVECTOR3 vDir = pOwner->GetTargetRot() * D3DXVECTOR3( 0.0f, 0.0f, -1.0f );

  0004d	0f 57 c0	 xorps	 xmm0, xmm0
  00050	8b f0		 mov	 esi, eax
  00052	8d 7d d8	 lea	 edi, DWORD PTR _vPos$550588[ebp]
  00055	a5		 movsd
  00056	a5		 movsd
  00057	8d 45 e4	 lea	 eax, DWORD PTR $T550591[ebp]
  0005a	50		 push	 eax
  0005b	8b 45 d0	 mov	 eax, DWORD PTR _pOwner$GSCopy$[ebp]
  0005e	05 a4 06 00 00	 add	 eax, 1700		; 000006a4H
  00063	a5		 movsd
  00064	50		 push	 eax
  00065	8d 45 f0	 lea	 eax, DWORD PTR _vDir$550590[ebp]
  00068	f3 0f 11 45 e4	 movss	 DWORD PTR $T550591[ebp], xmm0
  0006d	f3 0f 11 45 e8	 movss	 DWORD PTR $T550591[ebp+4], xmm0
  00072	f3 0f 10 05 00
	00 00 00	 movss	 xmm0, DWORD PTR __real@bf800000
  0007a	50		 push	 eax
  0007b	f3 0f 11 45 ec	 movss	 DWORD PTR $T550591[ebp+8], xmm0
  00080	ff 15 00 00 00
	00		 call	 DWORD PTR __imp_??D@YA?AUD3DXVECTOR3@@ABUD3DXQUATERNION@@ABU0@@Z
  00086	83 c4 0c	 add	 esp, 12			; 0000000cH

; 616  : 		D3DXVec3Normalize( &vDir, &vDir );

  00089	8d 45 f0	 lea	 eax, DWORD PTR _vDir$550590[ebp]
  0008c	50		 push	 eax
  0008d	50		 push	 eax
  0008e	e8 00 00 00 00	 call	 _D3DXVec3Normalize@8

; 617  : 
; 618  : 		if( m_fGrapplingOffsetGapRange > 0.0f )

  00093	f3 0f 10 83 14
	1b 00 00	 movss	 xmm0, DWORD PTR [ebx+6932]
  0009b	0f 2f 05 00 00
	00 00		 comiss	 xmm0, DWORD PTR __real@00000000
  000a2	0f 86 86 00 00
	00		 jbe	 $LN13@GetGrappli

; 619  : 			vPos += m_fGrapplingOffsetGapRange * vDir;

  000a8	f3 0f 10 55 f0	 movss	 xmm2, DWORD PTR _vDir$550590[ebp]
  000ad	0f 5a c8	 cvtps2pd xmm1, xmm0
  000b0	0f 5a d8	 cvtps2pd xmm3, xmm0
  000b3	0f 5a d2	 cvtps2pd xmm2, xmm2
  000b6	f2 0f 59 ca	 mulsd	 xmm1, xmm2
  000ba	f3 0f 10 55 f4	 movss	 xmm2, DWORD PTR _vDir$550590[ebp+4]
  000bf	66 0f 5a c9	 cvtpd2ps xmm1, xmm1
  000c3	0f 5a d2	 cvtps2pd xmm2, xmm2
  000c6	f2 0f 59 d3	 mulsd	 xmm2, xmm3
  000ca	f3 0f 10 5d f8	 movss	 xmm3, DWORD PTR _vDir$550590[ebp+8]
  000cf	0f 5a c0	 cvtps2pd xmm0, xmm0
  000d2	f3 0f 5a c9	 cvtss2sd xmm1, xmm1
  000d6	0f 5a db	 cvtps2pd xmm3, xmm3
  000d9	f2 0f 59 d8	 mulsd	 xmm3, xmm0
  000dd	0f 57 c0	 xorps	 xmm0, xmm0
  000e0	66 0f 5a c3	 cvtpd2ps xmm0, xmm3
  000e4	f3 0f 10 5d d8	 movss	 xmm3, DWORD PTR _vPos$550588[ebp]
  000e9	0f 5a db	 cvtps2pd xmm3, xmm3
  000ec	f2 0f 58 cb	 addsd	 xmm1, xmm3
  000f0	66 0f 5a c9	 cvtpd2ps xmm1, xmm1
  000f4	f3 0f 11 4d d8	 movss	 DWORD PTR _vPos$550588[ebp], xmm1
  000f9	f3 0f 10 4d dc	 movss	 xmm1, DWORD PTR _vPos$550588[ebp+4]
  000fe	0f 5a c9	 cvtps2pd xmm1, xmm1
  00101	66 0f 5a d2	 cvtpd2ps xmm2, xmm2
  00105	0f 5a c0	 cvtps2pd xmm0, xmm0
  00108	f3 0f 5a d2	 cvtss2sd xmm2, xmm2
  0010c	f2 0f 58 ca	 addsd	 xmm1, xmm2
  00110	66 0f 5a c9	 cvtpd2ps xmm1, xmm1
  00114	f3 0f 11 4d dc	 movss	 DWORD PTR _vPos$550588[ebp+4], xmm1
  00119	f3 0f 10 4d e0	 movss	 xmm1, DWORD PTR _vPos$550588[ebp+8]
  0011e	0f 5a c9	 cvtps2pd xmm1, xmm1
  00121	f2 0f 58 c8	 addsd	 xmm1, xmm0
  00125	66 0f 5a c1	 cvtpd2ps xmm0, xmm1
  00129	f3 0f 11 45 e0	 movss	 DWORD PTR _vPos$550588[ebp+8], xmm0
$LN13@GetGrappli:

; 620  : 
; 621  : 		return vPos;

  0012e	8b 45 d4	 mov	 eax, DWORD PTR ___$ReturnUdt$GSCopy$[ebp]
  00131	8d 75 d8	 lea	 esi, DWORD PTR _vPos$550588[ebp]
  00134	eb 06		 jmp	 SHORT $LN15@GetGrappli
$LN2@GetGrappli:

; 622  : 	}
; 623  : 
; 624  : 	return ioMath::VEC3_ZERO;

  00136	8b 35 00 00 00
	00		 mov	 esi, DWORD PTR __imp_?VEC3_ZERO@ioMath@@2UD3DXVECTOR3@@A
$LN15@GetGrappli:

; 625  : }

  0013c	8b 4d fc	 mov	 ecx, DWORD PTR __$ArrayPad$[ebp]
  0013f	8b f8		 mov	 edi, eax
  00141	a5		 movsd
  00142	a5		 movsd
  00143	a5		 movsd
  00144	5f		 pop	 edi
  00145	5e		 pop	 esi
  00146	33 cd		 xor	 ecx, ebp
  00148	5b		 pop	 ebx
  00149	e8 00 00 00 00	 call	 @__security_check_cookie@4
  0014e	c9		 leave
  0014f	c2 08 00	 ret	 8
?GetGrapplingTargetPos@ioJumperItem@@QAE?AUD3DXVECTOR3@@PAVioBaseChar@@@Z ENDP ; ioJumperItem::GetGrapplingTargetPos
_TEXT	ENDS
PUBLIC	__real@41200000
PUBLIC	_fCurrRange$GSCopy$
PUBLIC	__$ArrayPad$
PUBLIC	?ProcessMove@ioJumperItem@@IAE?AW4MoveState@1@PAVioBaseChar@@ABUD3DXVECTOR3@@MM_NAAM@Z ; ioJumperItem::ProcessMove
EXTRN	?CheckAxisLimit@ioBaseChar@@QAE_NPAUD3DXVECTOR3@@@Z:PROC ; ioBaseChar::CheckAxisLimit
EXTRN	?ReCalculateMoveVectorByTerrain@ioPlayStage@@QAE_NPAVioBaseChar@@PAUD3DXVECTOR3@@AA_N@Z:PROC ; ioPlayStage::ReCalculateMoveVectorByTerrain
EXTRN	__imp_?GetSecPerFrame@ioFrameTimer@@QBEMXZ:PROC
;	COMDAT __real@41200000
; File d:\lost saga for developer\youtube\tutorial\source\src\lsclient\iobasechar.h
CONST	SEGMENT
__real@41200000 DD 041200000r			; 10
; Function compile flags: /Ogsp
; File d:\lost saga for developer\youtube\tutorial\source\src\lsclient\iojumperitem.cpp
CONST	ENDS
;	COMDAT ?ProcessMove@ioJumperItem@@IAE?AW4MoveState@1@PAVioBaseChar@@ABUD3DXVECTOR3@@MM_NAAM@Z
_TEXT	SEGMENT
$T550635 = -56						; size = 12
$T550631 = -56						; size = 12
tv195 = -44						; size = 8
_fCurrRange$GSCopy$ = -40				; size = 4
_fHeightGap$ = -40					; size = 4
_eRangeLimit$ = -36					; size = 4
_fDistance$ = -36					; size = 4
_bCol$ = -29						; size = 1
_vPos$ = -28						; size = 12
_vMoveAmt$ = -16					; size = 12
__$ArrayPad$ = -4					; size = 4
_pOwner$ = 8						; size = 4
_vMoveDir$ = 12						; size = 4
_fMoveSpeed$ = 16					; size = 4
_fMoveMaxRange$ = 20					; size = 4
_bCheckLanding$ = 24					; size = 1
_fCurrRange$ = 28					; size = 4
?ProcessMove@ioJumperItem@@IAE?AW4MoveState@1@PAVioBaseChar@@ABUD3DXVECTOR3@@MM_NAAM@Z PROC ; ioJumperItem::ProcessMove, COMDAT
; _this$ = ecx

; 656  : {

  00000	55		 push	 ebp
  00001	8b ec		 mov	 ebp, esp
  00003	83 ec 38	 sub	 esp, 56			; 00000038H
  00006	a1 00 00 00 00	 mov	 eax, DWORD PTR ___security_cookie
  0000b	33 c5		 xor	 eax, ebp
  0000d	89 45 fc	 mov	 DWORD PTR __$ArrayPad$[ebp], eax
  00010	53		 push	 ebx
  00011	8b 5d 08	 mov	 ebx, DWORD PTR _pOwner$[ebp]
  00014	56		 push	 esi
  00015	8b 75 0c	 mov	 esi, DWORD PTR _vMoveDir$[ebp]
  00018	57		 push	 edi
  00019	8b 7d 1c	 mov	 edi, DWORD PTR _fCurrRange$[ebp]

; 696  : 	}
; 697  : 
; 698  : 	float fHeightGap = pOwner->GetWorldPosition().y - pOwner->GetBottomHeight();

  0001c	89 7d d8	 mov	 DWORD PTR _fCurrRange$GSCopy$[ebp], edi
  0001f	85 db		 test	 ebx, ebx
  00021	75 08		 jne	 SHORT $LN7@ProcessMov

; 657  : 	if( !pOwner )
; 658  : 		return MS_END;

  00023	6a 02		 push	 2
  00025	58		 pop	 eax
  00026	e9 a6 01 00 00	 jmp	 $LN8@ProcessMov
$LN7@ProcessMov:

; 659  : 
; 660  : 	DWORD dwCurTime		= FRAMEGETTIME();

  0002b	ff 15 00 00 00
	00		 call	 DWORD PTR __imp_?GetSingleton@ioFrameTimer@@SAAAV1@XZ
  00031	8b c8		 mov	 ecx, eax
  00033	ff 15 00 00 00
	00		 call	 DWORD PTR __imp_?GetLoopSec@ioFrameTimer@@QBEKXZ

; 661  : 	float fTimePerSec	= g_FrameTimer.GetSecPerFrame();

  00039	ff 15 00 00 00
	00		 call	 DWORD PTR __imp_?GetSingleton@ioFrameTimer@@SAAAV1@XZ
  0003f	8b c8		 mov	 ecx, eax
  00041	ff 15 00 00 00
	00		 call	 DWORD PTR __imp_?GetSecPerFrame@ioFrameTimer@@QBEMXZ

; 662  : 
; 663  : 	float fDistance = fMoveSpeed * fTimePerSec;

  00047	d8 4d 10	 fmul	 DWORD PTR _fMoveSpeed$[ebp]

; 664  : 
; 665  : 	MoveState eRangeLimit = MS_END;
; 666  : 	D3DXVECTOR3 vMoveAmt( 0.0f, 0.0f, 0.0f );
; 667  : 	if( fCurrRange + fDistance < fMoveMaxRange )

  0004a	f3 0f 10 0f	 movss	 xmm1, DWORD PTR [edi]
  0004e	0f 57 c0	 xorps	 xmm0, xmm0
  00051	d9 5d dc	 fstp	 DWORD PTR _fDistance$[ebp]
  00054	0f 5a c1	 cvtps2pd xmm0, xmm1
  00057	f3 0f 10 55 dc	 movss	 xmm2, DWORD PTR _fDistance$[ebp]
  0005c	0f 5a da	 cvtps2pd xmm3, xmm2
  0005f	f2 0f 58 c3	 addsd	 xmm0, xmm3
  00063	f3 0f 10 5d 14	 movss	 xmm3, DWORD PTR _fMoveMaxRange$[ebp]
  00068	0f 5a db	 cvtps2pd xmm3, xmm3
  0006b	66 0f 2f d8	 comisd	 xmm3, xmm0
  0006f	76 58		 jbe	 SHORT $LN6@ProcessMov

; 668  : 	{
; 669  : 		eRangeLimit = MS_MOVE;
; 670  : 		vMoveAmt = vMoveDir * fDistance;

  00071	f3 0f 10 0e	 movss	 xmm1, DWORD PTR [esi]

; 671  : 		fCurrRange += fDistance;

  00075	8b 45 d8	 mov	 eax, DWORD PTR _fCurrRange$GSCopy$[ebp]
  00078	83 65 dc 00	 and	 DWORD PTR _eRangeLimit$[ebp], 0
  0007c	0f 5a c9	 cvtps2pd xmm1, xmm1
  0007f	0f 5a da	 cvtps2pd xmm3, xmm2
  00082	f2 0f 59 cb	 mulsd	 xmm1, xmm3
  00086	66 0f 5a c9	 cvtpd2ps xmm1, xmm1
  0008a	f3 0f 11 4d c8	 movss	 DWORD PTR $T550631[ebp], xmm1
  0008f	f3 0f 10 4e 04	 movss	 xmm1, DWORD PTR [esi+4]
  00094	0f 5a c9	 cvtps2pd xmm1, xmm1
  00097	0f 5a da	 cvtps2pd xmm3, xmm2
  0009a	f2 0f 59 cb	 mulsd	 xmm1, xmm3
  0009e	66 0f 5a c9	 cvtpd2ps xmm1, xmm1
  000a2	f3 0f 11 4d cc	 movss	 DWORD PTR $T550631[ebp+4], xmm1
  000a7	f3 0f 10 4e 08	 movss	 xmm1, DWORD PTR [esi+8]
  000ac	0f 5a c9	 cvtps2pd xmm1, xmm1
  000af	0f 5a d2	 cvtps2pd xmm2, xmm2
  000b2	f2 0f 59 ca	 mulsd	 xmm1, xmm2
  000b6	66 0f 5a c9	 cvtpd2ps xmm1, xmm1
  000ba	66 0f 5a c0	 cvtpd2ps xmm0, xmm0
  000be	f3 0f 11 4d d0	 movss	 DWORD PTR $T550631[ebp+8], xmm1
  000c3	f3 0f 11 00	 movss	 DWORD PTR [eax], xmm0

; 672  : 	}
; 673  : 	else

  000c7	eb 75		 jmp	 SHORT $LN22@ProcessMov
$LN6@ProcessMov:

; 674  : 	{
; 675  : 		eRangeLimit = MS_END;
; 676  : 
; 677  : 		//    
; 678  : 		float fGapDistance = fMoveMaxRange - fCurrRange;

  000c9	f3 0f 10 45 14	 movss	 xmm0, DWORD PTR _fMoveMaxRange$[ebp]
  000ce	0f 5a c0	 cvtps2pd xmm0, xmm0
  000d1	0f 5a c9	 cvtps2pd xmm1, xmm1
  000d4	6a 02		 push	 2
  000d6	f2 0f 5c c1	 subsd	 xmm0, xmm1

; 679  : 		if( fGapDistance <= 0.0f )

  000da	0f 57 c9	 xorps	 xmm1, xmm1
  000dd	58		 pop	 eax
  000de	f2 0f 5a c0	 cvtsd2ss xmm0, xmm0
  000e2	0f 2f c8	 comiss	 xmm1, xmm0
  000e5	89 45 dc	 mov	 DWORD PTR _eRangeLimit$[ebp], eax

; 680  : 			return MS_END;

  000e8	0f 83 e3 00 00
	00		 jae	 $LN8@ProcessMov

; 681  : 
; 682  : 		vMoveAmt = vMoveDir * fGapDistance;

  000ee	f3 0f 10 0e	 movss	 xmm1, DWORD PTR [esi]
  000f2	0f 5a c9	 cvtps2pd xmm1, xmm1
  000f5	0f 57 d2	 xorps	 xmm2, xmm2
  000f8	f3 0f 5a d0	 cvtss2sd xmm2, xmm0
  000fc	f2 0f 59 ca	 mulsd	 xmm1, xmm2
  00100	66 0f 5a c9	 cvtpd2ps xmm1, xmm1
  00104	f3 0f 11 4d c8	 movss	 DWORD PTR $T550635[ebp], xmm1
  00109	f3 0f 10 4e 04	 movss	 xmm1, DWORD PTR [esi+4]
  0010e	0f 5a c9	 cvtps2pd xmm1, xmm1
  00111	0f 57 d2	 xorps	 xmm2, xmm2
  00114	f3 0f 5a d0	 cvtss2sd xmm2, xmm0
  00118	f2 0f 59 ca	 mulsd	 xmm1, xmm2
  0011c	66 0f 5a c9	 cvtpd2ps xmm1, xmm1
  00120	f3 0f 5a c0	 cvtss2sd xmm0, xmm0
  00124	f3 0f 11 4d cc	 movss	 DWORD PTR $T550635[ebp+4], xmm1
  00129	f3 0f 10 4e 08	 movss	 xmm1, DWORD PTR [esi+8]
  0012e	0f 5a c9	 cvtps2pd xmm1, xmm1
  00131	f2 0f 59 c8	 mulsd	 xmm1, xmm0
  00135	66 0f 5a c1	 cvtpd2ps xmm0, xmm1
  00139	f3 0f 11 45 d0	 movss	 DWORD PTR $T550635[ebp+8], xmm0
$LN22@ProcessMov:

; 683  : 	}
; 684  : 
; 685  : 	bool bCol = false;
; 686  : 	ioPlayStage *pStage = pOwner->GetCreator();

  0013e	8b 8b 44 03 00
	00		 mov	 ecx, DWORD PTR [ebx+836]
  00144	8d 7d f0	 lea	 edi, DWORD PTR _vMoveAmt$[ebp]
  00147	8d 75 c8	 lea	 esi, DWORD PTR $T550635[ebp]
  0014a	a5		 movsd
  0014b	a5		 movsd
  0014c	a5		 movsd
  0014d	c6 45 e3 00	 mov	 BYTE PTR _bCol$[ebp], 0

; 687  : 	if( pStage && pStage->ReCalculateMoveVectorByTerrain( pOwner, &vMoveAmt, bCol ) )

  00151	85 c9		 test	 ecx, ecx
  00153	74 1d		 je	 SHORT $LN3@ProcessMov
  00155	8d 45 e3	 lea	 eax, DWORD PTR _bCol$[ebp]
  00158	50		 push	 eax
  00159	8d 45 f0	 lea	 eax, DWORD PTR _vMoveAmt$[ebp]
  0015c	50		 push	 eax
  0015d	53		 push	 ebx
  0015e	e8 00 00 00 00	 call	 ?ReCalculateMoveVectorByTerrain@ioPlayStage@@QAE_NPAVioBaseChar@@PAUD3DXVECTOR3@@AA_N@Z ; ioPlayStage::ReCalculateMoveVectorByTerrain
  00163	84 c0		 test	 al, al
  00165	74 0b		 je	 SHORT $LN3@ProcessMov

; 688  : 	{		
; 689  : 		pOwner->Translate( vMoveAmt );

  00167	8b 03		 mov	 eax, DWORD PTR [ebx]
  00169	8d 4d f0	 lea	 ecx, DWORD PTR _vMoveAmt$[ebp]
  0016c	51		 push	 ecx
  0016d	8b cb		 mov	 ecx, ebx
  0016f	ff 50 50	 call	 DWORD PTR [eax+80]
$LN3@ProcessMov:

; 690  : 	}
; 691  : 
; 692  : 	D3DXVECTOR3 vPos = pOwner->GetWorldPosition();

  00172	8b 03		 mov	 eax, DWORD PTR [ebx]
  00174	8b cb		 mov	 ecx, ebx
  00176	ff 50 70	 call	 DWORD PTR [eax+112]
  00179	8b f0		 mov	 esi, eax
  0017b	8d 7d e4	 lea	 edi, DWORD PTR _vPos$[ebp]
  0017e	a5		 movsd
  0017f	a5		 movsd

; 693  : 	if( pOwner->CheckAxisLimit( &vPos ) )

  00180	8d 45 e4	 lea	 eax, DWORD PTR _vPos$[ebp]
  00183	50		 push	 eax
  00184	8b cb		 mov	 ecx, ebx
  00186	a5		 movsd
  00187	e8 00 00 00 00	 call	 ?CheckAxisLimit@ioBaseChar@@QAE_NPAUD3DXVECTOR3@@@Z ; ioBaseChar::CheckAxisLimit
  0018c	84 c0		 test	 al, al
  0018e	74 0b		 je	 SHORT $LN2@ProcessMov

; 694  : 	{
; 695  : 		pOwner->SetWorldPosition( vPos );

  00190	8b 03		 mov	 eax, DWORD PTR [ebx]
  00192	8d 4d e4	 lea	 ecx, DWORD PTR _vPos$[ebp]
  00195	51		 push	 ecx
  00196	8b cb		 mov	 ecx, ebx
  00198	ff 50 44	 call	 DWORD PTR [eax+68]
$LN2@ProcessMov:

; 696  : 	}
; 697  : 
; 698  : 	float fHeightGap = pOwner->GetWorldPosition().y - pOwner->GetBottomHeight();

  0019b	8b 03		 mov	 eax, DWORD PTR [ebx]
  0019d	8b cb		 mov	 ecx, ebx
  0019f	ff 50 70	 call	 DWORD PTR [eax+112]
  001a2	d9 40 04	 fld	 DWORD PTR [eax+4]
  001a5	8b cb		 mov	 ecx, ebx
  001a7	dd 5d d4	 fstp	 QWORD PTR tv195[ebp]
  001aa	e8 00 00 00 00	 call	 ?GetBottomHeight@ioGameEntity@@QBEMXZ ; ioGameEntity::GetBottomHeight
  001af	dc 6d d4	 fsubr	 QWORD PTR tv195[ebp]

; 699  : 	if( bCheckLanding && fHeightGap <= 10.0f )

  001b2	80 7d 18 00	 cmp	 BYTE PTR _bCheckLanding$[ebp], 0
  001b6	d9 5d d8	 fstp	 DWORD PTR _fHeightGap$[ebp]
  001b9	74 13		 je	 SHORT $LN1@ProcessMov
  001bb	f3 0f 10 05 00
	00 00 00	 movss	 xmm0, DWORD PTR __real@41200000
  001c3	0f 2f 45 d8	 comiss	 xmm0, DWORD PTR _fHeightGap$[ebp]
  001c7	72 05		 jb	 SHORT $LN1@ProcessMov

; 700  : 	{
; 701  : 		return MS_LANDING;

  001c9	33 c0		 xor	 eax, eax
  001cb	40		 inc	 eax
  001cc	eb 03		 jmp	 SHORT $LN8@ProcessMov
$LN1@ProcessMov:

; 702  : 	}
; 703  : 
; 704  : 	return eRangeLimit;

  001ce	8b 45 dc	 mov	 eax, DWORD PTR _eRangeLimit$[ebp]
$LN8@ProcessMov:

; 705  : }

  001d1	8b 4d fc	 mov	 ecx, DWORD PTR __$ArrayPad$[ebp]
  001d4	5f		 pop	 edi
  001d5	5e		 pop	 esi
  001d6	33 cd		 xor	 ecx, ebp
  001d8	5b		 pop	 ebx
  001d9	e8 00 00 00 00	 call	 @__security_check_cookie@4
  001de	c9		 leave
  001df	c2 18 00	 ret	 24			; 00000018H
?ProcessMove@ioJumperItem@@IAE?AW4MoveState@1@PAVioBaseChar@@ABUD3DXVECTOR3@@MM_NAAM@Z ENDP ; ioJumperItem::ProcessMove
_TEXT	ENDS
PUBLIC	?OnTeleport@ioJumperItem@@IAEXPAVioPlayStage@@PAVioBaseChar@@@Z ; ioJumperItem::OnTeleport
; Function compile flags: /Ogsp
;	COMDAT ?OnTeleport@ioJumperItem@@IAEXPAVioPlayStage@@PAVioBaseChar@@@Z
_TEXT	SEGMENT
_pStage$ = 8						; size = 4
_pOwner$ = 12						; size = 4
?OnTeleport@ioJumperItem@@IAEXPAVioPlayStage@@PAVioBaseChar@@@Z PROC ; ioJumperItem::OnTeleport, COMDAT
; _this$ = ecx

; 749  : {

  00000	55		 push	 ebp
  00001	8b ec		 mov	 ebp, esp
  00003	56		 push	 esi
  00004	8b f1		 mov	 esi, ecx

; 750  : 	if( m_dwTeleportEndTime < FRAMEGETTIME() )

  00006	ff 15 00 00 00
	00		 call	 DWORD PTR __imp_?GetSingleton@ioFrameTimer@@SAAAV1@XZ
  0000c	8b c8		 mov	 ecx, eax
  0000e	ff 15 00 00 00
	00		 call	 DWORD PTR __imp_?GetLoopSec@ioFrameTimer@@QBEKXZ
  00014	39 86 f8 1b 00
	00		 cmp	 DWORD PTR [esi+7160], eax
  0001a	73 0a		 jae	 SHORT $LN1@OnTeleport

; 751  : 	{
; 752  : 		ChangeToTeleportEnd( pOwner );

  0001c	ff 75 0c	 push	 DWORD PTR _pOwner$[ebp]
  0001f	8b ce		 mov	 ecx, esi
  00021	e8 00 00 00 00	 call	 ?ChangeToTeleportEnd@ioJumperItem@@IAEXPAVioBaseChar@@@Z ; ioJumperItem::ChangeToTeleportEnd
$LN1@OnTeleport:
  00026	5e		 pop	 esi

; 753  : 	}
; 754  : }

  00027	5d		 pop	 ebp
  00028	c2 08 00	 ret	 8
?OnTeleport@ioJumperItem@@IAEXPAVioPlayStage@@PAVioBaseChar@@@Z ENDP ; ioJumperItem::OnTeleport
_TEXT	ENDS
PUBLIC	?ChangeToCancelTeleportAfter@ioJumperItem@@QAEXPAVioBaseChar@@@Z ; ioJumperItem::ChangeToCancelTeleportAfter
EXTRN	?CheckCurDirKey@ioBaseChar@@QAE?AW4DirKeyInput@ioUserKeyInput@@XZ:PROC ; ioBaseChar::CheckCurDirKey
; Function compile flags: /Ogsp
;	COMDAT ?ChangeToCancelTeleportAfter@ioJumperItem@@QAEXPAVioBaseChar@@@Z
_TEXT	SEGMENT
_pOwner$ = 8						; size = 4
?ChangeToCancelTeleportAfter@ioJumperItem@@QAEXPAVioBaseChar@@@Z PROC ; ioJumperItem::ChangeToCancelTeleportAfter, COMDAT
; _this$ = ecx

; 935  : {

  00000	55		 push	 ebp
  00001	8b ec		 mov	 ebp, esp
  00003	56		 push	 esi
  00004	57		 push	 edi

; 936  : 	ioUserKeyInput::DirKeyInput eCurrKey = pOwner->CheckCurDirKey();

  00005	8b 7d 08	 mov	 edi, DWORD PTR _pOwner$[ebp]
  00008	8b f1		 mov	 esi, ecx
  0000a	8b cf		 mov	 ecx, edi
  0000c	e8 00 00 00 00	 call	 ?CheckCurDirKey@ioBaseChar@@QAE?AW4DirKeyInput@ioUserKeyInput@@XZ ; ioBaseChar::CheckCurDirKey

; 937  : 
; 938  : 	switch( m_eCurrCallerType )

  00011	8b 8e 9c 1b 00
	00		 mov	 ecx, DWORD PTR [esi+7068]
  00017	83 e9 03	 sub	 ecx, 3

; 950  : 	default:
; 951  : 		{
; 952  : 			m_iCurCombo = m_iCurCombo + 1;
; 953  : 			ChangeToCancelTeleportAfterNormalAttack( pOwner, eCurrKey );

  0001a	50		 push	 eax
  0001b	57		 push	 edi
  0001c	74 19		 je	 SHORT $LN3@ChangeToCa@4
  0001e	49		 dec	 ecx
  0001f	8b ce		 mov	 ecx, esi
  00021	74 0d		 je	 SHORT $LN2@ChangeToCa@4
  00023	ff 86 5c 19 00
	00		 inc	 DWORD PTR [esi+6492]
  00029	e8 00 00 00 00	 call	 ?ChangeToCancelTeleportAfterNormalAttack@ioJumperItem@@QAEXPAVioBaseChar@@W4DirKeyInput@ioUserKeyInput@@@Z ; ioJumperItem::ChangeToCancelTeleportAfterNormalAttack

; 954  : 		}
; 955  : 		break;

  0002e	eb 0e		 jmp	 SHORT $LN4@ChangeToCa@4
$LN2@ChangeToCa@4:

; 943  : 		}
; 944  : 		break;
; 945  : 	case ioAttackableItem::CCSD_JUMP:
; 946  : 		{
; 947  : 			ChangeToCancelTeleportAfterJumpAttack( pOwner, eCurrKey );

  00030	e8 00 00 00 00	 call	 ?ChangeToCancelTeleportAfterJumpAttack@ioJumperItem@@QAEXPAVioBaseChar@@W4DirKeyInput@ioUserKeyInput@@@Z ; ioJumperItem::ChangeToCancelTeleportAfterJumpAttack

; 948  : 		}
; 949  : 		break;

  00035	eb 07		 jmp	 SHORT $LN4@ChangeToCa@4
$LN3@ChangeToCa@4:

; 939  : 	{
; 940  : 	case ioAttackableItem::CCSD_DASH_ATTACK:
; 941  : 		{
; 942  : 			ChangeToCancelTeleportAfterDashAttack( pOwner, eCurrKey );

  00037	8b ce		 mov	 ecx, esi
  00039	e8 00 00 00 00	 call	 ?ChangeToCancelTeleportAfterDashAttack@ioJumperItem@@QAEXPAVioBaseChar@@W4DirKeyInput@ioUserKeyInput@@@Z ; ioJumperItem::ChangeToCancelTeleportAfterDashAttack
$LN4@ChangeToCa@4:
  0003e	5f		 pop	 edi
  0003f	5e		 pop	 esi

; 956  : 	}
; 957  : }

  00040	5d		 pop	 ebp
  00041	c2 04 00	 ret	 4
?ChangeToCancelTeleportAfter@ioJumperItem@@QAEXPAVioBaseChar@@@Z ENDP ; ioJumperItem::ChangeToCancelTeleportAfter
_TEXT	ENDS
PUBLIC	__$ArrayPad$
PUBLIC	?SetExtraInfoToWeapon@ioJumperItem@@UAEXPAVioWeapon@@_N@Z ; ioJumperItem::SetExtraInfoToWeapon
EXTRN	?SetZoneValue@ioZoneEffectWeapon@@QAEX_N0@Z:PROC ; ioZoneEffectWeapon::SetZoneValue
EXTRN	?SetCollisionDir@ioZoneEffectWeapon@@QAEXAAUD3DXVECTOR3@@@Z:PROC ; ioZoneEffectWeapon::SetCollisionDir
EXTRN	?GetOwner@ioWeapon@@QBEPAVioBaseChar@@XZ:PROC	; ioWeapon::GetOwner
EXTRN	?SetExtraInfoToWeapon@ioAttackableItem@@UAEXPAVioWeapon@@_N@Z:PROC ; ioAttackableItem::SetExtraInfoToWeapon
; Function compile flags: /Ogsp
;	COMDAT ?SetExtraInfoToWeapon@ioJumperItem@@UAEXPAVioWeapon@@_N@Z
_TEXT	SEGMENT
_vDir$550926 = -28					; size = 12
$T550927 = -16						; size = 12
__$ArrayPad$ = -4					; size = 4
_pWeapon$ = 8						; size = 4
_bJumpAttack$ = 12					; size = 1
?SetExtraInfoToWeapon@ioJumperItem@@UAEXPAVioWeapon@@_N@Z PROC ; ioJumperItem::SetExtraInfoToWeapon, COMDAT
; _this$ = ecx

; 1266 : {

  00000	55		 push	 ebp
  00001	8b ec		 mov	 ebp, esp
  00003	83 ec 1c	 sub	 esp, 28			; 0000001cH
  00006	a1 00 00 00 00	 mov	 eax, DWORD PTR ___security_cookie
  0000b	33 c5		 xor	 eax, ebp
  0000d	89 45 fc	 mov	 DWORD PTR __$ArrayPad$[ebp], eax
  00010	56		 push	 esi

; 1267 : 	ioAttackableItem::SetExtraInfoToWeapon( pWeapon, bJumpAttack );

  00011	ff 75 0c	 push	 DWORD PTR _bJumpAttack$[ebp]
  00014	8b 75 08	 mov	 esi, DWORD PTR _pWeapon$[ebp]
  00017	56		 push	 esi
  00018	e8 00 00 00 00	 call	 ?SetExtraInfoToWeapon@ioAttackableItem@@UAEXPAVioWeapon@@_N@Z ; ioAttackableItem::SetExtraInfoToWeapon

; 1268 : 
; 1269 : 	ioZoneEffectWeapon *pZone = ToZoneEffectWeapon( pWeapon );

  0001d	56		 push	 esi
  0001e	e8 00 00 00 00	 call	 ?ToZoneEffectWeapon@@YAPAVioZoneEffectWeapon@@PAVioWeapon@@@Z ; ToZoneEffectWeapon
  00023	8b f0		 mov	 esi, eax
  00025	59		 pop	 ecx

; 1270 : 	if( pZone )

  00026	85 f6		 test	 esi, esi
  00028	74 52		 je	 SHORT $LN1@SetExtraIn

; 1271 : 	{
; 1272 : 		ioBaseChar *pChar = pZone->GetOwner();

  0002a	8b ce		 mov	 ecx, esi
  0002c	e8 00 00 00 00	 call	 ?GetOwner@ioWeapon@@QBEPAVioBaseChar@@XZ ; ioWeapon::GetOwner

; 1273 : 		if( pChar )

  00031	85 c0		 test	 eax, eax
  00033	74 47		 je	 SHORT $LN1@SetExtraIn

; 1274 : 		{
; 1275 : 			D3DXVECTOR3 vDir = pChar->GetTargetRot() * D3DXVECTOR3( 0.0f, 0.0f, -1.0f );

  00035	0f 57 c0	 xorps	 xmm0, xmm0
  00038	8d 4d f0	 lea	 ecx, DWORD PTR $T550927[ebp]
  0003b	51		 push	 ecx
  0003c	05 a4 06 00 00	 add	 eax, 1700		; 000006a4H
  00041	50		 push	 eax
  00042	8d 45 e4	 lea	 eax, DWORD PTR _vDir$550926[ebp]
  00045	f3 0f 11 45 f0	 movss	 DWORD PTR $T550927[ebp], xmm0
  0004a	f3 0f 11 45 f4	 movss	 DWORD PTR $T550927[ebp+4], xmm0
  0004f	f3 0f 10 05 00
	00 00 00	 movss	 xmm0, DWORD PTR __real@bf800000
  00057	50		 push	 eax
  00058	f3 0f 11 45 f8	 movss	 DWORD PTR $T550927[ebp+8], xmm0
  0005d	ff 15 00 00 00
	00		 call	 DWORD PTR __imp_??D@YA?AUD3DXVECTOR3@@ABUD3DXQUATERNION@@ABU0@@Z
  00063	83 c4 0c	 add	 esp, 12			; 0000000cH

; 1276 : 			pZone->SetCollisionDir( vDir );

  00066	8d 45 e4	 lea	 eax, DWORD PTR _vDir$550926[ebp]
  00069	50		 push	 eax
  0006a	8b ce		 mov	 ecx, esi
  0006c	e8 00 00 00 00	 call	 ?SetCollisionDir@ioZoneEffectWeapon@@QAEXAAUD3DXVECTOR3@@@Z ; ioZoneEffectWeapon::SetCollisionDir

; 1277 : 			pZone->SetZoneValue( true, false );

  00071	6a 00		 push	 0
  00073	6a 01		 push	 1
  00075	8b ce		 mov	 ecx, esi
  00077	e8 00 00 00 00	 call	 ?SetZoneValue@ioZoneEffectWeapon@@QAEX_N0@Z ; ioZoneEffectWeapon::SetZoneValue
$LN1@SetExtraIn:

; 1278 : 		}
; 1279 : 	}
; 1280 : }

  0007c	8b 4d fc	 mov	 ecx, DWORD PTR __$ArrayPad$[ebp]
  0007f	33 cd		 xor	 ecx, ebp
  00081	5e		 pop	 esi
  00082	e8 00 00 00 00	 call	 @__security_check_cookie@4
  00087	c9		 leave
  00088	c2 08 00	 ret	 8
?SetExtraInfoToWeapon@ioJumperItem@@UAEXPAVioWeapon@@_N@Z ENDP ; ioJumperItem::SetExtraInfoToWeapon
; Function compile flags: /Ogsp
_TEXT	ENDS
;	COMDAT ??_GioJumperSpecialSpState@@UAEPAXI@Z
_TEXT	SEGMENT
___flags$ = 8						; size = 4
??_GioJumperSpecialSpState@@UAEPAXI@Z PROC		; ioJumperSpecialSpState::`scalar deleting destructor', COMDAT
; _this$ = ecx
  00000	55		 push	 ebp
  00001	8b ec		 mov	 ebp, esp
  00003	56		 push	 esi
  00004	8b f1		 mov	 esi, ecx
  00006	c7 06 00 00 00
	00		 mov	 DWORD PTR [esi], OFFSET ??_7ioJumperSpecialSpState@@6B@
  0000c	e8 00 00 00 00	 call	 ??1ioSpecialStateBase@@UAE@XZ ; ioSpecialStateBase::~ioSpecialStateBase
  00011	f6 45 08 01	 test	 BYTE PTR ___flags$[ebp], 1
  00015	74 07		 je	 SHORT $LN1@scalar@5
  00017	56		 push	 esi
  00018	e8 00 00 00 00	 call	 ??3@YAXPAX@Z		; operator delete
  0001d	59		 pop	 ecx
$LN1@scalar@5:
  0001e	8b c6		 mov	 eax, esi
  00020	5e		 pop	 esi
  00021	5d		 pop	 ebp
  00022	c2 04 00	 ret	 4
??_GioJumperSpecialSpState@@UAEPAXI@Z ENDP		; ioJumperSpecialSpState::`scalar deleting destructor'
_TEXT	ENDS
EXTRN	?GetPriorityItem@ioBaseChar@@QBEPAVioAttackableItem@@W4StatePriorityType@@@Z:PROC ; ioBaseChar::GetPriorityItem
EXTRN	?Finalize@ioSpecialStateBase@@UAEXPAVioBaseChar@@W4CharState@@1@Z:PROC ; ioSpecialStateBase::Finalize
; Function compile flags: /Ogsp
;	COMDAT ?Finalize@ioJumperSpecialSpState@@UAEXPAVioBaseChar@@W4CharState@@1@Z
_TEXT	SEGMENT
_pOwner$ = 8						; size = 4
_eCurrState$ = 12					; size = 1
_eNewState$ = 16					; size = 1
?Finalize@ioJumperSpecialSpState@@UAEXPAVioBaseChar@@W4CharState@@1@Z PROC ; ioJumperSpecialSpState::Finalize, COMDAT
; _this$ = ecx

; 1299 : {

  00000	55		 push	 ebp
  00001	8b ec		 mov	 ebp, esp

; 1300 : 	ioSpecialStateBase::Finalize( pOwner, eCurrState, eNewState );

  00003	ff 75 10	 push	 DWORD PTR _eNewState$[ebp]
  00006	ff 75 0c	 push	 DWORD PTR _eCurrState$[ebp]
  00009	ff 75 08	 push	 DWORD PTR _pOwner$[ebp]
  0000c	e8 00 00 00 00	 call	 ?Finalize@ioSpecialStateBase@@UAEXPAVioBaseChar@@W4CharState@@1@Z ; ioSpecialStateBase::Finalize

; 1301 : 
; 1302 : 	ioJumperItem* pJumper = ToJumperItem( pOwner->GetPriorityItem( SPT_ATTACK ) );

  00011	8b 4d 08	 mov	 ecx, DWORD PTR _pOwner$[ebp]
  00014	6a 05		 push	 5
  00016	e8 00 00 00 00	 call	 ?GetPriorityItem@ioBaseChar@@QBEPAVioAttackableItem@@W4StatePriorityType@@@Z ; ioBaseChar::GetPriorityItem
  0001b	50		 push	 eax
  0001c	e8 00 00 00 00	 call	 ?ToJumperItem@@YAPAVioJumperItem@@PAVioItem@@@Z ; ToJumperItem
  00021	59		 pop	 ecx

; 1303 : 	if( pJumper && eNewState != CS_ATTACK )

  00022	85 c0		 test	 eax, eax
  00024	74 13		 je	 SHORT $LN1@Finalize
  00026	80 7d 10 05	 cmp	 BYTE PTR _eNewState$[ebp], 5
  0002a	74 0d		 je	 SHORT $LN1@Finalize

; 1304 : 	{	
; 1305 : 		pJumper->ClearSpecial( pOwner, eNewState );

  0002c	ff 75 10	 push	 DWORD PTR _eNewState$[ebp]
  0002f	8b c8		 mov	 ecx, eax
  00031	ff 75 08	 push	 DWORD PTR _pOwner$[ebp]
  00034	e8 00 00 00 00	 call	 ?ClearSpecial@ioJumperItem@@QAEXPAVioBaseChar@@W4CharState@@@Z ; ioJumperItem::ClearSpecial
$LN1@Finalize:

; 1306 : 	}
; 1307 : }

  00039	5d		 pop	 ebp
  0003a	c2 0c 00	 ret	 12			; 0000000cH
?Finalize@ioJumperSpecialSpState@@UAEXPAVioBaseChar@@W4CharState@@1@Z ENDP ; ioJumperSpecialSpState::Finalize
_TEXT	ENDS
EXTRN	?CheckFallStateChange@ioSpecialStateBase@@UAEXPAVioBaseChar@@MM_NM@Z:PROC ; ioSpecialStateBase::CheckFallStateChange
; Function compile flags: /Ogsp
;	COMDAT ?CheckFallStateChange@ioJumperSpecialSpState@@UAEXPAVioBaseChar@@MM_NM@Z
_TEXT	SEGMENT
_pOwner$ = 8						; size = 4
_fMinFallHeightRate$ = 12				; size = 4
_fBottomHeight$ = 16					; size = 4
_bBottomMaxCheck$ = 20					; size = 1
_fMaxBottomHeight$ = 24					; size = 4
?CheckFallStateChange@ioJumperSpecialSpState@@UAEXPAVioBaseChar@@MM_NM@Z PROC ; ioJumperSpecialSpState::CheckFallStateChange, COMDAT
; _this$ = ecx

; 1390 : {

  00000	55		 push	 ebp
  00001	8b ec		 mov	 ebp, esp
  00003	56		 push	 esi
  00004	57		 push	 edi

; 1391 : 	ioJumperItem* pJumper = ToJumperItem( pOwner->GetPriorityItem( SPT_ATTACK ) );

  00005	8b 7d 08	 mov	 edi, DWORD PTR _pOwner$[ebp]
  00008	8b f1		 mov	 esi, ecx
  0000a	6a 05		 push	 5
  0000c	8b cf		 mov	 ecx, edi
  0000e	e8 00 00 00 00	 call	 ?GetPriorityItem@ioBaseChar@@QBEPAVioAttackableItem@@W4StatePriorityType@@@Z ; ioBaseChar::GetPriorityItem
  00013	50		 push	 eax
  00014	e8 00 00 00 00	 call	 ?ToJumperItem@@YAPAVioJumperItem@@PAVioItem@@@Z ; ToJumperItem
  00019	59		 pop	 ecx

; 1392 : 	if( pJumper )

  0001a	33 c9		 xor	 ecx, ecx
