; Listing generated by Microsoft (R) Optimizing Compiler Version 16.00.30319.01 

	TITLE	D:\Lost Saga For Developer\Youtube\Tutorial\Source\src\LSClient\ioJumpFireSkill.cpp
	.686P
	.XMM
	include listing.inc
	.model	flat

INCLUDELIB MSVCRT
INCLUDELIB OLDNAMES

PUBLIC	?_EEM_DS@?$deque@UD3DXVECTOR3@@V?$allocator@UD3DXVECTOR3@@@std@@@std@@2HB ; std::deque<D3DXVECTOR3,std::allocator<D3DXVECTOR3> >::_EEM_DS
;	COMDAT ?_EEM_DS@?$deque@UD3DXVECTOR3@@V?$allocator@UD3DXVECTOR3@@@std@@@std@@2HB
CONST	SEGMENT
?_EEM_DS@?$deque@UD3DXVECTOR3@@V?$allocator@UD3DXVECTOR3@@@std@@@std@@2HB DD 01H ; std::deque<D3DXVECTOR3,std::allocator<D3DXVECTOR3> >::_EEM_DS
CONST	ENDS
PUBLIC	??_R0?AVioWeapon@@@8				; ioWeapon `RTTI Type Descriptor'
PUBLIC	??_R0?AVioBombMissileWeapon@@@8			; ioBombMissileWeapon `RTTI Type Descriptor'
PUBLIC	?ToBombMissileWeapon@@YAPAVioBombMissileWeapon@@PAVioWeapon@@@Z ; ToBombMissileWeapon
EXTRN	___RTDynamicCast:PROC
EXTRN	??_7type_info@@6B@:QWORD			; type_info::`vftable'
;	COMDAT ??_R0?AVioWeapon@@@8
; File d:\lost saga for developer\youtube\tutorial\source\src\lsclient\iobombmissileweapon.h
_DATA	SEGMENT
??_R0?AVioWeapon@@@8 DD FLAT:??_7type_info@@6B@		; ioWeapon `RTTI Type Descriptor'
	DD	00H
	DB	'.?AVioWeapon@@', 00H
_DATA	ENDS
;	COMDAT ??_R0?AVioBombMissileWeapon@@@8
_DATA	SEGMENT
??_R0?AVioBombMissileWeapon@@@8 DD FLAT:??_7type_info@@6B@ ; ioBombMissileWeapon `RTTI Type Descriptor'
	DD	00H
	DB	'.?AVioBombMissileWeapon@@', 00H
; Function compile flags: /Ogsp
_DATA	ENDS
;	COMDAT ?ToBombMissileWeapon@@YAPAVioBombMissileWeapon@@PAVioWeapon@@@Z
_TEXT	SEGMENT
_pWeapon$ = 8						; size = 4
?ToBombMissileWeapon@@YAPAVioBombMissileWeapon@@PAVioWeapon@@@Z PROC ; ToBombMissileWeapon, COMDAT

; 160  : {

  00000	55		 push	 ebp
  00001	8b ec		 mov	 ebp, esp
  00003	56		 push	 esi

; 161  : 	if( !pWeapon || pWeapon->GetType() != ioWeapon::WT_BOMB_MISSILE )

  00004	8b 75 08	 mov	 esi, DWORD PTR _pWeapon$[ebp]
  00007	85 f6		 test	 esi, esi
  00009	74 28		 je	 SHORT $LN1@ToBombMiss
  0000b	8b 06		 mov	 eax, DWORD PTR [esi]
  0000d	8b ce		 mov	 ecx, esi
  0000f	ff 90 10 01 00
	00		 call	 DWORD PTR [eax+272]
  00015	83 f8 11	 cmp	 eax, 17			; 00000011H
  00018	75 19		 jne	 SHORT $LN1@ToBombMiss

; 163  : 
; 164  : 	return dynamic_cast< ioBombMissileWeapon* >( pWeapon );

  0001a	6a 00		 push	 0
  0001c	68 00 00 00 00	 push	 OFFSET ??_R0?AVioBombMissileWeapon@@@8
  00021	68 00 00 00 00	 push	 OFFSET ??_R0?AVioWeapon@@@8
  00026	6a 00		 push	 0
  00028	56		 push	 esi
  00029	e8 00 00 00 00	 call	 ___RTDynamicCast
  0002e	83 c4 14	 add	 esp, 20			; 00000014H
  00031	eb 02		 jmp	 SHORT $LN3@ToBombMiss
$LN1@ToBombMiss:

; 162  : 		return NULL;

  00033	33 c0		 xor	 eax, eax
$LN3@ToBombMiss:
  00035	5e		 pop	 esi

; 165  : }

  00036	5d		 pop	 ebp
  00037	c3		 ret	 0
?ToBombMissileWeapon@@YAPAVioBombMissileWeapon@@PAVioWeapon@@@Z ENDP ; ToBombMissileWeapon
_TEXT	ENDS
PUBLIC	??_7ioJumpFireSkill@@6B@			; ioJumpFireSkill::`vftable'
PUBLIC	??0ioJumpFireSkill@@QAE@XZ			; ioJumpFireSkill::ioJumpFireSkill
PUBLIC	??_R4ioJumpFireSkill@@6B@			; ioJumpFireSkill::`RTTI Complete Object Locator'
PUBLIC	??_R0?AVioJumpFireSkill@@@8			; ioJumpFireSkill `RTTI Type Descriptor'
PUBLIC	??_R3ioJumpFireSkill@@8				; ioJumpFireSkill::`RTTI Class Hierarchy Descriptor'
PUBLIC	??_R2ioJumpFireSkill@@8				; ioJumpFireSkill::`RTTI Base Class Array'
PUBLIC	??_R1A@?0A@EA@ioJumpFireSkill@@8		; ioJumpFireSkill::`RTTI Base Class Descriptor at (0,-1,0,64)'
PUBLIC	??_R1A@?0A@EA@ioAttackSkill@@8			; ioAttackSkill::`RTTI Base Class Descriptor at (0,-1,0,64)'
PUBLIC	??_R0?AVioAttackSkill@@@8			; ioAttackSkill `RTTI Type Descriptor'
PUBLIC	??_R3ioAttackSkill@@8				; ioAttackSkill::`RTTI Class Hierarchy Descriptor'
PUBLIC	??_R2ioAttackSkill@@8				; ioAttackSkill::`RTTI Base Class Array'
PUBLIC	??_R1A@?0A@EA@ioSkill@@8			; ioSkill::`RTTI Base Class Descriptor at (0,-1,0,64)'
PUBLIC	??_R0?AVioSkill@@@8				; ioSkill `RTTI Type Descriptor'
PUBLIC	??_R3ioSkill@@8					; ioSkill::`RTTI Class Hierarchy Descriptor'
PUBLIC	??_R2ioSkill@@8					; ioSkill::`RTTI Base Class Array'
PUBLIC	?LoadProperty@ioJumpFireSkill@@UAEXAAVioINILoader@@@Z ; ioJumpFireSkill::LoadProperty
PUBLIC	?Clone@ioJumpFireSkill@@UAEPAVioSkill@@XZ	; ioJumpFireSkill::Clone
PUBLIC	?IsProtected@ioJumpFireSkill@@UBE_NH@Z		; ioJumpFireSkill::IsProtected
PUBLIC	?GetDefenseSkillBreakeType@ioSkill@@UBE?AW4DefenseBreakType@@XZ ; ioSkill::GetDefenseSkillBreakeType
PUBLIC	?IsSkillMotionEnd@ioJumpFireSkill@@UBE_NKPAVioBaseChar@@@Z ; ioJumpFireSkill::IsSkillMotionEnd
PUBLIC	?GetSkillEndNextJumpAmt@ioSkill@@UBEMXZ		; ioSkill::GetSkillEndNextJumpAmt
PUBLIC	?GetSkillEndNextLandRate@ioSkill@@UBEMXZ	; ioSkill::GetSkillEndNextLandRate
PUBLIC	?GetSkillEndNextJumpMustEnable@ioJumpFireSkill@@UAE?AW4SkillEndJumpType@@XZ ; ioJumpFireSkill::GetSkillEndNextJumpMustEnable
PUBLIC	?IsEndState@ioJumpFireSkill@@UBE_NXZ		; ioJumpFireSkill::IsEndState
PUBLIC	?IsAttackEndState@ioJumpFireSkill@@UBE_NXZ	; ioJumpFireSkill::IsAttackEndState
PUBLIC	?IsNoDropState@ioJumpFireSkill@@UBE_NXZ		; ioJumpFireSkill::IsNoDropState
PUBLIC	?EnableChangeGrapplingTargetPos@ioSkill@@UBE_NXZ ; ioSkill::EnableChangeGrapplingTargetPos
PUBLIC	?OnSkillStart@ioJumpFireSkill@@UAE_NPAVioBaseChar@@@Z ; ioJumpFireSkill::OnSkillStart
PUBLIC	?OnProcessState@ioJumpFireSkill@@UAEXPAVioBaseChar@@PAVioPlayStage@@@Z ; ioJumpFireSkill::OnProcessState
PUBLIC	?OnSkillEnd@ioJumpFireSkill@@UAEXPAVioBaseChar@@@Z ; ioJumpFireSkill::OnSkillEnd
PUBLIC	?ApplyAttributeToWeapon@ioJumpFireSkill@@UAEXPAVioWeapon@@PAVioPlayStage@@@Z ; ioJumpFireSkill::ApplyAttributeToWeapon
PUBLIC	?CheckUseItemMesh@ioJumpFireSkill@@UAE_NXZ	; ioJumpFireSkill::CheckUseItemMesh
PUBLIC	?IsInvisibleBottomCircle@ioSkill@@UAE_NPAVioBaseChar@@@Z ; ioSkill::IsInvisibleBottomCircle
PUBLIC	?IsCanJumpingSkill@ioSkill@@UBE_NXZ		; ioSkill::IsCanJumpingSkill
PUBLIC	?IsCanJumpingSkillOnBlowWound@ioSkill@@UBE_NXZ	; ioSkill::IsCanJumpingSkillOnBlowWound
PUBLIC	?IsCanDownSkill@ioSkill@@UBE_NXZ		; ioSkill::IsCanDownSkill
PUBLIC	?IsCanBlowWoundSkill@ioSkill@@UBE_NXZ		; ioSkill::IsCanBlowWoundSkill
PUBLIC	?IsCanWoundSkill@ioSkill@@UBE_NXZ		; ioSkill::IsCanWoundSkill
PUBLIC	?IsUseActiveCnt@ioSkill@@UBE_NXZ		; ioSkill::IsUseActiveCnt
PUBLIC	?GetMaxActiveCnt@ioSkill@@UBEHPAVioBaseChar@@@Z	; ioSkill::GetMaxActiveCnt
PUBLIC	?GetCurActiveCnt@ioSkill@@UBEHPAVioBaseChar@@@Z	; ioSkill::GetCurActiveCnt
PUBLIC	?AttackSkillFire@ioJumpFireSkill@@MAEXPAVioBaseChar@@@Z ; ioJumpFireSkill::AttackSkillFire
EXTRN	??0ioAttackSkill@@QAE@XZ:PROC			; ioAttackSkill::ioAttackSkill
EXTRN	?GetTypeID@ioAttackSkill@@UBEHXZ:PROC		; ioAttackSkill::GetTypeID
EXTRN	?IsCanSwitchSkill@ioSkill@@UBE_NXZ:PROC		; ioSkill::IsCanSwitchSkill
EXTRN	?IsCanSemiSwitchSkill@ioSkill@@UBE_NXZ:PROC	; ioSkill::IsCanSemiSwitchSkill
EXTRN	?IsCanCancelBySkill@ioSkill@@UBE_NPAVioBaseChar@@AAH@Z:PROC ; ioSkill::IsCanCancelBySkill
EXTRN	?IsCanUseZeroHP@ioSkill@@UBE_NPAVioBaseChar@@@Z:PROC ; ioSkill::IsCanUseZeroHP
EXTRN	?IsCanUseSkillWithCrown@ioSkill@@UAE_NPAVioBaseChar@@@Z:PROC ; ioSkill::IsCanUseSkillWithCrown
EXTRN	?IsCanUseBoss@ioSkill@@UBE_NPAVioBaseChar@@@Z:PROC ; ioSkill::IsCanUseBoss
EXTRN	?IsCanUseFootball@ioSkill@@UBE_NXZ:PROC		; ioSkill::IsCanUseFootball
EXTRN	?IsCanUseGangSiMode@ioSkill@@UBE_NXZ:PROC	; ioSkill::IsCanUseGangSiMode
EXTRN	?IsCanUseByWeaponType@ioSkill@@UBE_NPAVioBaseChar@@@Z:PROC ; ioSkill::IsCanUseByWeaponType
EXTRN	?IsCanUseThunderBirdHold@ioSkill@@UBE_NPAVioBaseChar@@@Z:PROC ; ioSkill::IsCanUseThunderBirdHold
EXTRN	?IsCanUseLimitHP@ioSkill@@UBE_NPAVioBaseChar@@@Z:PROC ; ioSkill::IsCanUseLimitHP
EXTRN	?IsCanUseSkill@ioAttackSkill@@UAE_NPAVioBaseChar@@_N@Z:PROC ; ioAttackSkill::IsCanUseSkill
EXTRN	?IsOnOffEnable@ioSkill@@UAE_NXZ:PROC		; ioSkill::IsOnOffEnable
EXTRN	?IsCanDefenseStateSkill@ioSkill@@UAE_NXZ:PROC	; ioSkill::IsCanDefenseStateSkill
EXTRN	?SetDefenseStateSkill@ioSkill@@UAEXPAVioBaseChar@@@Z:PROC ; ioSkill::SetDefenseStateSkill
EXTRN	?HasBuff@ioSkill@@UBE_NH@Z:PROC			; ioSkill::HasBuff
EXTRN	?GetBuffType@ioSkill@@UAEHH@Z:PROC		; ioSkill::GetBuffType
EXTRN	?IsEnableReserve@ioSkill@@UBE_NXZ:PROC		; ioSkill::IsEnableReserve
EXTRN	?IsCharSkipState@ioSkill@@UBE?AW4SkillCharColType@@XZ:PROC ; ioSkill::IsCharSkipState
EXTRN	?IsEntityCollisionSkipState@ioSkill@@UBE_NXZ:PROC ; ioSkill::IsEntityCollisionSkipState
EXTRN	?IsJumpState@ioSkill@@UBE_NXZ:PROC		; ioSkill::IsJumpState
EXTRN	?IsDownState@ioSkill@@UBE_NXZ:PROC		; ioSkill::IsDownState
EXTRN	?IsCanSendControl@ioSkill@@UBE_NXZ:PROC		; ioSkill::IsCanSendControl
EXTRN	?IsSkipState@ioSkill@@UBE_NXZ:PROC		; ioSkill::IsSkipState
EXTRN	?GetSkillMoveRate@ioSkill@@UBEMXZ:PROC		; ioSkill::GetSkillMoveRate
EXTRN	?SetSkillGrapplingState@ioSkill@@UAE_NPAVioBaseChar@@ABVioHashString@@@Z:PROC ; ioSkill::SetSkillGrapplingState
EXTRN	?GetGrapplingTargetPos@ioSkill@@UAE?AUD3DXVECTOR3@@PAVioBaseChar@@0@Z:PROC ; ioSkill::GetGrapplingTargetPos
EXTRN	?GetGrapplingTargetPos@ioSkill@@UAE?AUD3DXVECTOR3@@PAVioBaseChar@@@Z:PROC ; ioSkill::GetGrapplingTargetPos
EXTRN	?GetSkillWoundGrapplingInfo@ioSkill@@UAE?AUGrapplingSkillWoundedInfo@@XZ:PROC ; ioSkill::GetSkillWoundGrapplingInfo
EXTRN	?SetCreateWeaponDependency@ioSkill@@UAEXPAVioBaseChar@@PAVioPlayStage@@@Z:PROC ; ioSkill::SetCreateWeaponDependency
EXTRN	?SetNextSkillState@ioSkill@@UAEXPAVioBaseChar@@PAVioWeapon@@@Z:PROC ; ioSkill::SetNextSkillState
EXTRN	?OnSkillEndByWounded@ioSkill@@UAEXPAVioBaseChar@@@Z:PROC ; ioSkill::OnSkillEndByWounded
EXTRN	?OnProcessNotUseSkill@ioSkill@@UAEXPAVioBaseChar@@PAVioPlayStage@@@Z:PROC ; ioSkill::OnProcessNotUseSkill
EXTRN	?OnSkillItemRelease@ioSkill@@UAEXPAVioBaseChar@@@Z:PROC ; ioSkill::OnSkillItemRelease
EXTRN	?ApplyExtraSkillInfo@ioAttackSkill@@UAEXPAVioBaseChar@@PAVioPlayStage@@AAVSP2Packet@@@Z:PROC ; ioAttackSkill::ApplyExtraSkillInfo
EXTRN	?ApplyEquipSlotSkillExtraInfo@ioSkill@@UAEXPAVioBaseChar@@PAVioPlayStage@@AAVSP2Packet@@@Z:PROC ; ioSkill::ApplyEquipSlotSkillExtraInfo
EXTRN	?ApplyExtraPassiveSkillInfo@ioSkill@@UAEXPAVioBaseChar@@PAVioPlayStage@@AAVSP2Packet@@@Z:PROC ; ioSkill::ApplyExtraPassiveSkillInfo
EXTRN	?StartPreDelayEffect@ioAttackSkill@@UAEXPAVioBaseChar@@@Z:PROC ; ioAttackSkill::StartPreDelayEffect
EXTRN	?EndPreDelayEffect@ioAttackSkill@@UAEXPAVioBaseChar@@@Z:PROC ; ioAttackSkill::EndPreDelayEffect
EXTRN	?IsUseAutoTargetValue@ioAttackSkill@@UAE_NXZ:PROC ; ioAttackSkill::IsUseAutoTargetValue
EXTRN	?IsAutoTargetDownState@ioSkill@@UAE_NXZ:PROC	; ioSkill::IsAutoTargetDownState
EXTRN	?CheckUseBuff@ioSkill@@UAE_NPAVioBaseChar@@@Z:PROC ; ioSkill::CheckUseBuff
EXTRN	?CheckUseActiveCount@ioSkill@@UAE_NXZ:PROC	; ioSkill::CheckUseActiveCount
EXTRN	?CheckAniRotate@ioSkill@@UAEXPAVioBaseChar@@@Z:PROC ; ioSkill::CheckAniRotate
EXTRN	?IsEnableDashCheck@ioSkill@@UAE_NPAVioBaseChar@@@Z:PROC ; ioSkill::IsEnableDashCheck
EXTRN	?IsEnableMultiActive@ioSkill@@UAE_NPAVioBaseChar@@@Z:PROC ; ioSkill::IsEnableMultiActive
EXTRN	?GetAutoTargetValue@ioSkill@@UAEXAAM00@Z:PROC	; ioSkill::GetAutoTargetValue
EXTRN	?GetSkillGravityRate@ioSkill@@UAEMXZ:PROC	; ioSkill::GetSkillGravityRate
EXTRN	?GetSkillMotionName@ioSkill@@UBEABVioHashString@@XZ:PROC ; ioSkill::GetSkillMotionName
EXTRN	?HasSkillMotion@ioSkill@@UBE_NXZ:PROC		; ioSkill::HasSkillMotion
EXTRN	?GetSkillMotionRate@ioSkill@@UBEMXZ:PROC	; ioSkill::GetSkillMotionRate
EXTRN	?IsPreDelayProtect@ioSkill@@UBE_NXZ:PROC	; ioSkill::IsPreDelayProtect
EXTRN	?GetPreDelayAniName@ioSkill@@UBEABVioHashString@@XZ:PROC ; ioSkill::GetPreDelayAniName
EXTRN	?GetPreDelayTime@ioSkill@@UBEKXZ:PROC		; ioSkill::GetPreDelayTime
EXTRN	?GetPreDelayOwnerEffect@ioSkill@@UBEABVioHashString@@XZ:PROC ; ioSkill::GetPreDelayOwnerEffect
EXTRN	?GetPreDelayOtherEffect@ioSkill@@UBEABVioHashString@@XZ:PROC ; ioSkill::GetPreDelayOtherEffect
EXTRN	?SetCancelSkill@ioSkill@@UAEXPAVioBaseChar@@@Z:PROC ; ioSkill::SetCancelSkill
EXTRN	?ClearAirJump@ioSkill@@MAEXXZ:PROC		; ioSkill::ClearAirJump
EXTRN	?SetAirJump@ioSkill@@MAEXPAVioBaseChar@@HM@Z:PROC ; ioSkill::SetAirJump
EXTRN	?CheckAirJump@ioSkill@@MAEXPAVioBaseChar@@@Z:PROC ; ioSkill::CheckAirJump
EXTRN	?UseActiveCount@ioSkill@@UAE_NPAVioBaseChar@@@Z:PROC ; ioSkill::UseActiveCount
EXTRN	?GetMaxActiveCount@ioSkill@@UAEHPAVioBaseChar@@@Z:PROC ; ioSkill::GetMaxActiveCount
EXTRN	?GetCurActiveCount@ioSkill@@UAEHPAVioBaseChar@@@Z:PROC ; ioSkill::GetCurActiveCount
EXTRN	?HideHPGauge@ioSkill@@UAE_NXZ:PROC		; ioSkill::HideHPGauge
EXTRN	?SetInfoByApplyWeapon@ioSkill@@UAEXPAVioBaseChar@@0K_N@Z:PROC ; ioSkill::SetInfoByApplyWeapon
EXTRN	?SetCollisionByApplySkill@ioSkill@@UAEXXZ:PROC	; ioSkill::SetCollisionByApplySkill
EXTRN	?SetChargingRateForWeapon@ioSkill@@UAEXPAVioWeapon@@@Z:PROC ; ioSkill::SetChargingRateForWeapon
EXTRN	?CheckExceptionCamera@ioSkill@@UAE_NXZ:PROC	; ioSkill::CheckExceptionCamera
EXTRN	?GetExceptionCameraPos@ioSkill@@UAE?AUD3DXVECTOR3@@PAVioBaseChar@@@Z:PROC ; ioSkill::GetExceptionCameraPos
EXTRN	?IsFixedExceptionCamera@ioSkill@@UAE_NXZ:PROC	; ioSkill::IsFixedExceptionCamera
EXTRN	??_EioJumpFireSkill@@UAEPAXI@Z:PROC		; ioJumpFireSkill::`vector deleting destructor'
EXTRN	?StartPreDelayAnimation@ioAttackSkill@@MAE_NPAVioBaseChar@@@Z:PROC ; ioAttackSkill::StartPreDelayAnimation
EXTRN	?GetAttackTimeRate@ioAttackSkill@@MBEMXZ:PROC	; ioAttackSkill::GetAttackTimeRate
EXTRN	?GetAttackEndTimeRate@ioAttackSkill@@MBEMXZ:PROC ; ioAttackSkill::GetAttackEndTimeRate
EXTRN	?LoadNormalAttribute@ioAttackSkill@@MAEXAAVioINILoader@@@Z:PROC ; ioAttackSkill::LoadNormalAttribute
EXTRN	?LoadDownAttribute@ioAttackSkill@@MAEXAAVioINILoader@@@Z:PROC ; ioAttackSkill::LoadDownAttribute
EXTRN	?LoadJumpAttribute@ioAttackSkill@@MAEXAAVioINILoader@@@Z:PROC ; ioAttackSkill::LoadJumpAttribute
EXTRN	?GetAttribute@ioAttackSkill@@UAEAAUAttackAttribute@@XZ:PROC ; ioAttackSkill::GetAttribute
EXTRN	?GetAttributeConst@ioAttackSkill@@UBEABUAttackAttribute@@XZ:PROC ; ioAttackSkill::GetAttributeConst
EXTRN	?IsCanStateEscape@ioAttackSkill@@UBE_NXZ:PROC	; ioAttackSkill::IsCanStateEscape
EXTRN	?IsCanStateEscapeOnStand@ioAttackSkill@@UBE_NPAVioBaseChar@@@Z:PROC ; ioAttackSkill::IsCanStateEscapeOnStand
EXTRN	?IsCanStateEscapeOnAir@ioAttackSkill@@UBE_NPAVioBaseChar@@@Z:PROC ; ioAttackSkill::IsCanStateEscapeOnAir
EXTRN	?IsCanStateEscapeOnDown@ioAttackSkill@@UBE_NPAVioBaseChar@@@Z:PROC ; ioAttackSkill::IsCanStateEscapeOnDown
;	COMDAT ??_R2ioSkill@@8
; File d:\lost saga for developer\youtube\tutorial\source\src\lsclient\iojumpfireskill.cpp
rdata$r	SEGMENT
??_R2ioSkill@@8 DD FLAT:??_R1A@?0A@EA@ioSkill@@8	; ioSkill::`RTTI Base Class Array'
rdata$r	ENDS
;	COMDAT ??_R3ioSkill@@8
rdata$r	SEGMENT
??_R3ioSkill@@8 DD 00H					; ioSkill::`RTTI Class Hierarchy Descriptor'
	DD	00H
	DD	01H
	DD	FLAT:??_R2ioSkill@@8
rdata$r	ENDS
;	COMDAT ??_R0?AVioSkill@@@8
_DATA	SEGMENT
??_R0?AVioSkill@@@8 DD FLAT:??_7type_info@@6B@		; ioSkill `RTTI Type Descriptor'
	DD	00H
	DB	'.?AVioSkill@@', 00H
_DATA	ENDS
;	COMDAT ??_R1A@?0A@EA@ioSkill@@8
rdata$r	SEGMENT
??_R1A@?0A@EA@ioSkill@@8 DD FLAT:??_R0?AVioSkill@@@8	; ioSkill::`RTTI Base Class Descriptor at (0,-1,0,64)'
	DD	00H
	DD	00H
	DD	0ffffffffH
	DD	00H
	DD	040H
	DD	FLAT:??_R3ioSkill@@8
rdata$r	ENDS
;	COMDAT ??_R2ioAttackSkill@@8
rdata$r	SEGMENT
??_R2ioAttackSkill@@8 DD FLAT:??_R1A@?0A@EA@ioAttackSkill@@8 ; ioAttackSkill::`RTTI Base Class Array'
	DD	FLAT:??_R1A@?0A@EA@ioSkill@@8
rdata$r	ENDS
;	COMDAT ??_R3ioAttackSkill@@8
rdata$r	SEGMENT
??_R3ioAttackSkill@@8 DD 00H				; ioAttackSkill::`RTTI Class Hierarchy Descriptor'
	DD	00H
	DD	02H
	DD	FLAT:??_R2ioAttackSkill@@8
rdata$r	ENDS
;	COMDAT ??_R0?AVioAttackSkill@@@8
_DATA	SEGMENT
??_R0?AVioAttackSkill@@@8 DD FLAT:??_7type_info@@6B@	; ioAttackSkill `RTTI Type Descriptor'
	DD	00H
	DB	'.?AVioAttackSkill@@', 00H
_DATA	ENDS
;	COMDAT ??_R1A@?0A@EA@ioAttackSkill@@8
rdata$r	SEGMENT
??_R1A@?0A@EA@ioAttackSkill@@8 DD FLAT:??_R0?AVioAttackSkill@@@8 ; ioAttackSkill::`RTTI Base Class Descriptor at (0,-1,0,64)'
	DD	01H
	DD	00H
	DD	0ffffffffH
	DD	00H
	DD	040H
	DD	FLAT:??_R3ioAttackSkill@@8
rdata$r	ENDS
;	COMDAT ??_R1A@?0A@EA@ioJumpFireSkill@@8
rdata$r	SEGMENT
??_R1A@?0A@EA@ioJumpFireSkill@@8 DD FLAT:??_R0?AVioJumpFireSkill@@@8 ; ioJumpFireSkill::`RTTI Base Class Descriptor at (0,-1,0,64)'
	DD	02H
	DD	00H
	DD	0ffffffffH
	DD	00H
	DD	040H
	DD	FLAT:??_R3ioJumpFireSkill@@8
rdata$r	ENDS
;	COMDAT ??_R2ioJumpFireSkill@@8
rdata$r	SEGMENT
??_R2ioJumpFireSkill@@8 DD FLAT:??_R1A@?0A@EA@ioJumpFireSkill@@8 ; ioJumpFireSkill::`RTTI Base Class Array'
	DD	FLAT:??_R1A@?0A@EA@ioAttackSkill@@8
	DD	FLAT:??_R1A@?0A@EA@ioSkill@@8
rdata$r	ENDS
;	COMDAT ??_R3ioJumpFireSkill@@8
rdata$r	SEGMENT
??_R3ioJumpFireSkill@@8 DD 00H				; ioJumpFireSkill::`RTTI Class Hierarchy Descriptor'
	DD	00H
	DD	03H
	DD	FLAT:??_R2ioJumpFireSkill@@8
rdata$r	ENDS
;	COMDAT ??_R0?AVioJumpFireSkill@@@8
_DATA	SEGMENT
??_R0?AVioJumpFireSkill@@@8 DD FLAT:??_7type_info@@6B@	; ioJumpFireSkill `RTTI Type Descriptor'
	DD	00H
	DB	'.?AVioJumpFireSkill@@', 00H
_DATA	ENDS
;	COMDAT ??_R4ioJumpFireSkill@@6B@
rdata$r	SEGMENT
??_R4ioJumpFireSkill@@6B@ DD 00H			; ioJumpFireSkill::`RTTI Complete Object Locator'
	DD	00H
	DD	00H
	DD	FLAT:??_R0?AVioJumpFireSkill@@@8
	DD	FLAT:??_R3ioJumpFireSkill@@8
rdata$r	ENDS
;	COMDAT ??_7ioJumpFireSkill@@6B@
CONST	SEGMENT
??_7ioJumpFireSkill@@6B@ DD FLAT:??_R4ioJumpFireSkill@@6B@ ; ioJumpFireSkill::`vftable'
	DD	FLAT:?LoadProperty@ioJumpFireSkill@@UAEXAAVioINILoader@@@Z
	DD	FLAT:?Clone@ioJumpFireSkill@@UAEPAVioSkill@@XZ
	DD	FLAT:?GetTypeID@ioAttackSkill@@UBEHXZ
	DD	FLAT:?IsProtected@ioJumpFireSkill@@UBE_NH@Z
	DD	FLAT:?IsCanSwitchSkill@ioSkill@@UBE_NXZ
	DD	FLAT:?IsCanSemiSwitchSkill@ioSkill@@UBE_NXZ
	DD	FLAT:?IsCanCancelBySkill@ioSkill@@UBE_NPAVioBaseChar@@AAH@Z
	DD	FLAT:?IsCanUseZeroHP@ioSkill@@UBE_NPAVioBaseChar@@@Z
	DD	FLAT:?IsCanUseSkillWithCrown@ioSkill@@UAE_NPAVioBaseChar@@@Z
	DD	FLAT:?IsCanUseBoss@ioSkill@@UBE_NPAVioBaseChar@@@Z
	DD	FLAT:?IsCanUseFootball@ioSkill@@UBE_NXZ
	DD	FLAT:?IsCanUseGangSiMode@ioSkill@@UBE_NXZ
	DD	FLAT:?IsCanUseByWeaponType@ioSkill@@UBE_NPAVioBaseChar@@@Z
	DD	FLAT:?IsCanUseThunderBirdHold@ioSkill@@UBE_NPAVioBaseChar@@@Z
	DD	FLAT:?IsCanUseLimitHP@ioSkill@@UBE_NPAVioBaseChar@@@Z
	DD	FLAT:?IsCanUseSkill@ioAttackSkill@@UAE_NPAVioBaseChar@@_N@Z
	DD	FLAT:?IsOnOffEnable@ioSkill@@UAE_NXZ
	DD	FLAT:?IsCanDefenseStateSkill@ioSkill@@UAE_NXZ
	DD	FLAT:?SetDefenseStateSkill@ioSkill@@UAEXPAVioBaseChar@@@Z
	DD	FLAT:?GetDefenseSkillBreakeType@ioSkill@@UBE?AW4DefenseBreakType@@XZ
	DD	FLAT:?HasBuff@ioSkill@@UBE_NH@Z
	DD	FLAT:?GetBuffType@ioSkill@@UAEHH@Z
	DD	FLAT:?IsEnableReserve@ioSkill@@UBE_NXZ
	DD	FLAT:?IsSkillMotionEnd@ioJumpFireSkill@@UBE_NKPAVioBaseChar@@@Z
	DD	FLAT:?IsCharSkipState@ioSkill@@UBE?AW4SkillCharColType@@XZ
	DD	FLAT:?IsEntityCollisionSkipState@ioSkill@@UBE_NXZ
	DD	FLAT:?GetSkillEndNextJumpAmt@ioSkill@@UBEMXZ
	DD	FLAT:?GetSkillEndNextLandRate@ioSkill@@UBEMXZ
	DD	FLAT:?GetSkillEndNextJumpMustEnable@ioJumpFireSkill@@UAE?AW4SkillEndJumpType@@XZ
	DD	FLAT:?IsEndState@ioJumpFireSkill@@UBE_NXZ
	DD	FLAT:?IsAttackEndState@ioJumpFireSkill@@UBE_NXZ
	DD	FLAT:?IsJumpState@ioSkill@@UBE_NXZ
	DD	FLAT:?IsDownState@ioSkill@@UBE_NXZ
	DD	FLAT:?IsNoDropState@ioJumpFireSkill@@UBE_NXZ
	DD	FLAT:?IsCanSendControl@ioSkill@@UBE_NXZ
	DD	FLAT:?IsSkipState@ioSkill@@UBE_NXZ
	DD	FLAT:?GetSkillMoveRate@ioSkill@@UBEMXZ
	DD	FLAT:?SetSkillGrapplingState@ioSkill@@UAE_NPAVioBaseChar@@ABVioHashString@@@Z
	DD	FLAT:?GetGrapplingTargetPos@ioSkill@@UAE?AUD3DXVECTOR3@@PAVioBaseChar@@0@Z
	DD	FLAT:?GetGrapplingTargetPos@ioSkill@@UAE?AUD3DXVECTOR3@@PAVioBaseChar@@@Z
	DD	FLAT:?EnableChangeGrapplingTargetPos@ioSkill@@UBE_NXZ
	DD	FLAT:?GetSkillWoundGrapplingInfo@ioSkill@@UAE?AUGrapplingSkillWoundedInfo@@XZ
	DD	FLAT:?SetCreateWeaponDependency@ioSkill@@UAEXPAVioBaseChar@@PAVioPlayStage@@@Z
	DD	FLAT:?SetNextSkillState@ioSkill@@UAEXPAVioBaseChar@@PAVioWeapon@@@Z
	DD	FLAT:?OnSkillStart@ioJumpFireSkill@@UAE_NPAVioBaseChar@@@Z
	DD	FLAT:?OnProcessState@ioJumpFireSkill@@UAEXPAVioBaseChar@@PAVioPlayStage@@@Z
	DD	FLAT:?OnSkillEndByWounded@ioSkill@@UAEXPAVioBaseChar@@@Z
	DD	FLAT:?OnSkillEnd@ioJumpFireSkill@@UAEXPAVioBaseChar@@@Z
	DD	FLAT:?OnProcessNotUseSkill@ioSkill@@UAEXPAVioBaseChar@@PAVioPlayStage@@@Z
	DD	FLAT:?OnSkillItemRelease@ioSkill@@UAEXPAVioBaseChar@@@Z
	DD	FLAT:?ApplyAttributeToWeapon@ioJumpFireSkill@@UAEXPAVioWeapon@@PAVioPlayStage@@@Z
	DD	FLAT:?ApplyExtraSkillInfo@ioAttackSkill@@UAEXPAVioBaseChar@@PAVioPlayStage@@AAVSP2Packet@@@Z
	DD	FLAT:?ApplyEquipSlotSkillExtraInfo@ioSkill@@UAEXPAVioBaseChar@@PAVioPlayStage@@AAVSP2Packet@@@Z
	DD	FLAT:?ApplyExtraPassiveSkillInfo@ioSkill@@UAEXPAVioBaseChar@@PAVioPlayStage@@AAVSP2Packet@@@Z
	DD	FLAT:?StartPreDelayEffect@ioAttackSkill@@UAEXPAVioBaseChar@@@Z
	DD	FLAT:?EndPreDelayEffect@ioAttackSkill@@UAEXPAVioBaseChar@@@Z
	DD	FLAT:?IsUseAutoTargetValue@ioAttackSkill@@UAE_NXZ
	DD	FLAT:?IsAutoTargetDownState@ioSkill@@UAE_NXZ
	DD	FLAT:?CheckUseBuff@ioSkill@@UAE_NPAVioBaseChar@@@Z
	DD	FLAT:?CheckUseItemMesh@ioJumpFireSkill@@UAE_NXZ
	DD	FLAT:?CheckUseActiveCount@ioSkill@@UAE_NXZ
	DD	FLAT:?CheckAniRotate@ioSkill@@UAEXPAVioBaseChar@@@Z
	DD	FLAT:?IsEnableDashCheck@ioSkill@@UAE_NPAVioBaseChar@@@Z
	DD	FLAT:?IsEnableMultiActive@ioSkill@@UAE_NPAVioBaseChar@@@Z
	DD	FLAT:?IsInvisibleBottomCircle@ioSkill@@UAE_NPAVioBaseChar@@@Z
	DD	FLAT:?GetAutoTargetValue@ioSkill@@UAEXAAM00@Z
	DD	FLAT:?IsCanJumpingSkill@ioSkill@@UBE_NXZ
	DD	FLAT:?IsCanJumpingSkillOnBlowWound@ioSkill@@UBE_NXZ
	DD	FLAT:?IsCanDownSkill@ioSkill@@UBE_NXZ
	DD	FLAT:?IsCanBlowWoundSkill@ioSkill@@UBE_NXZ
	DD	FLAT:?IsCanWoundSkill@ioSkill@@UBE_NXZ
	DD	FLAT:?GetSkillGravityRate@ioSkill@@UAEMXZ
	DD	FLAT:?GetSkillMotionName@ioSkill@@UBEABVioHashString@@XZ
	DD	FLAT:?HasSkillMotion@ioSkill@@UBE_NXZ
	DD	FLAT:?GetSkillMotionRate@ioSkill@@UBEMXZ
	DD	FLAT:?IsPreDelayProtect@ioSkill@@UBE_NXZ
	DD	FLAT:?GetPreDelayAniName@ioSkill@@UBEABVioHashString@@XZ
	DD	FLAT:?GetPreDelayTime@ioSkill@@UBEKXZ
	DD	FLAT:?GetPreDelayOwnerEffect@ioSkill@@UBEABVioHashString@@XZ
	DD	FLAT:?GetPreDelayOtherEffect@ioSkill@@UBEABVioHashString@@XZ
	DD	FLAT:?SetCancelSkill@ioSkill@@UAEXPAVioBaseChar@@@Z
	DD	FLAT:?ClearAirJump@ioSkill@@MAEXXZ
	DD	FLAT:?SetAirJump@ioSkill@@MAEXPAVioBaseChar@@HM@Z
	DD	FLAT:?CheckAirJump@ioSkill@@MAEXPAVioBaseChar@@@Z
	DD	FLAT:?UseActiveCount@ioSkill@@UAE_NPAVioBaseChar@@@Z
	DD	FLAT:?GetMaxActiveCount@ioSkill@@UAEHPAVioBaseChar@@@Z
	DD	FLAT:?GetCurActiveCount@ioSkill@@UAEHPAVioBaseChar@@@Z
	DD	FLAT:?HideHPGauge@ioSkill@@UAE_NXZ
	DD	FLAT:?SetInfoByApplyWeapon@ioSkill@@UAEXPAVioBaseChar@@0K_N@Z
	DD	FLAT:?SetCollisionByApplySkill@ioSkill@@UAEXXZ
	DD	FLAT:?SetChargingRateForWeapon@ioSkill@@UAEXPAVioWeapon@@@Z
	DD	FLAT:?CheckExceptionCamera@ioSkill@@UAE_NXZ
	DD	FLAT:?GetExceptionCameraPos@ioSkill@@UAE?AUD3DXVECTOR3@@PAVioBaseChar@@@Z
	DD	FLAT:?IsFixedExceptionCamera@ioSkill@@UAE_NXZ
	DD	FLAT:?IsUseActiveCnt@ioSkill@@UBE_NXZ
	DD	FLAT:?GetMaxActiveCnt@ioSkill@@UBEHPAVioBaseChar@@@Z
	DD	FLAT:?GetCurActiveCnt@ioSkill@@UBEHPAVioBaseChar@@@Z
	DD	FLAT:??_EioJumpFireSkill@@UAEPAXI@Z
	DD	FLAT:?StartPreDelayAnimation@ioAttackSkill@@MAE_NPAVioBaseChar@@@Z
	DD	FLAT:?AttackSkillFire@ioJumpFireSkill@@MAEXPAVioBaseChar@@@Z
	DD	FLAT:?GetAttackTimeRate@ioAttackSkill@@MBEMXZ
	DD	FLAT:?GetAttackEndTimeRate@ioAttackSkill@@MBEMXZ
	DD	FLAT:?LoadNormalAttribute@ioAttackSkill@@MAEXAAVioINILoader@@@Z
	DD	FLAT:?LoadDownAttribute@ioAttackSkill@@MAEXAAVioINILoader@@@Z
	DD	FLAT:?LoadJumpAttribute@ioAttackSkill@@MAEXAAVioINILoader@@@Z
	DD	FLAT:?GetAttribute@ioAttackSkill@@UAEAAUAttackAttribute@@XZ
	DD	FLAT:?GetAttributeConst@ioAttackSkill@@UBEABUAttackAttribute@@XZ
	DD	FLAT:?IsCanStateEscape@ioAttackSkill@@UBE_NXZ
	DD	FLAT:?IsCanStateEscapeOnStand@ioAttackSkill@@UBE_NPAVioBaseChar@@@Z
	DD	FLAT:?IsCanStateEscapeOnAir@ioAttackSkill@@UBE_NPAVioBaseChar@@@Z
	DD	FLAT:?IsCanStateEscapeOnDown@ioAttackSkill@@UBE_NPAVioBaseChar@@@Z
; Function compile flags: /Ogsp
CONST	ENDS
;	COMDAT ??0ioJumpFireSkill@@QAE@XZ
_TEXT	SEGMENT
??0ioJumpFireSkill@@QAE@XZ PROC				; ioJumpFireSkill::ioJumpFireSkill, COMDAT
; _this$ = ecx

; 15   : {

  00000	56		 push	 esi
  00001	8b f1		 mov	 esi, ecx
  00003	e8 00 00 00 00	 call	 ??0ioAttackSkill@@QAE@XZ ; ioAttackSkill::ioAttackSkill
  00008	c7 06 00 00 00
	00		 mov	 DWORD PTR [esi], OFFSET ??_7ioJumpFireSkill@@6B@

; 16   : }

  0000e	8b c6		 mov	 eax, esi
  00010	5e		 pop	 esi
  00011	c3		 ret	 0
??0ioJumpFireSkill@@QAE@XZ ENDP				; ioJumpFireSkill::ioJumpFireSkill
_TEXT	ENDS
PUBLIC	??0ioJumpFireSkill@@QAE@ABV0@@Z			; ioJumpFireSkill::ioJumpFireSkill
EXTRN	??0ioAttackSkill@@QAE@ABV0@@Z:PROC		; ioAttackSkill::ioAttackSkill
EXTRN	__fltused:DWORD
; Function compile flags: /Ogsp
;	COMDAT ??0ioJumpFireSkill@@QAE@ABV0@@Z
_TEXT	SEGMENT
_rhs$ = 8						; size = 4
??0ioJumpFireSkill@@QAE@ABV0@@Z PROC			; ioJumpFireSkill::ioJumpFireSkill, COMDAT
; _this$ = ecx

; 23   : {	

  00000	55		 push	 ebp
  00001	8b ec		 mov	 ebp, esp
  00003	56		 push	 esi
  00004	57		 push	 edi
  00005	8b 7d 08	 mov	 edi, DWORD PTR _rhs$[ebp]
  00008	57		 push	 edi
  00009	8b f1		 mov	 esi, ecx
  0000b	e8 00 00 00 00	 call	 ??0ioAttackSkill@@QAE@ABV0@@Z ; ioAttackSkill::ioAttackSkill
  00010	c7 06 00 00 00
	00		 mov	 DWORD PTR [esi], OFFSET ??_7ioJumpFireSkill@@6B@
  00016	8b 87 e8 10 00
	00		 mov	 eax, DWORD PTR [edi+4328]
  0001c	89 86 e8 10 00
	00		 mov	 DWORD PTR [esi+4328], eax
  00022	d9 87 ec 10 00
	00		 fld	 DWORD PTR [edi+4332]
  00028	d9 9e ec 10 00
	00		 fstp	 DWORD PTR [esi+4332]
  0002e	8b 87 f0 10 00
	00		 mov	 eax, DWORD PTR [edi+4336]
  00034	89 86 f0 10 00
	00		 mov	 DWORD PTR [esi+4336], eax
  0003a	5f		 pop	 edi

; 24   : }

  0003b	8b c6		 mov	 eax, esi
  0003d	5e		 pop	 esi
  0003e	5d		 pop	 ebp
  0003f	c2 04 00	 ret	 4
??0ioJumpFireSkill@@QAE@ABV0@@Z ENDP			; ioJumpFireSkill::ioJumpFireSkill
_TEXT	ENDS
PUBLIC	??1ioJumpFireSkill@@UAE@XZ			; ioJumpFireSkill::~ioJumpFireSkill
EXTRN	??1ioAttackSkill@@UAE@XZ:PROC			; ioAttackSkill::~ioAttackSkill
; Function compile flags: /Ogsp
;	COMDAT ??1ioJumpFireSkill@@UAE@XZ
_TEXT	SEGMENT
??1ioJumpFireSkill@@UAE@XZ PROC				; ioJumpFireSkill::~ioJumpFireSkill, COMDAT
; _this$ = ecx

; 27   : {

  00000	c7 01 00 00 00
	00		 mov	 DWORD PTR [ecx], OFFSET ??_7ioJumpFireSkill@@6B@

; 28   : }

  00006	e9 00 00 00 00	 jmp	 ??1ioAttackSkill@@UAE@XZ ; ioAttackSkill::~ioAttackSkill
??1ioJumpFireSkill@@UAE@XZ ENDP				; ioJumpFireSkill::~ioJumpFireSkill
_TEXT	ENDS
EXTRN	??3@YAXPAX@Z:PROC				; operator delete
EXTRN	??2@YAPAXI@Z:PROC				; operator new
EXTRN	___CxxFrameHandler3:PROC
EXTRN	@__security_check_cookie@4:PROC
EXTRN	__EH_epilog3:PROC
EXTRN	__EH_prolog3:PROC
;	COMDAT xdata$x
xdata$x	SEGMENT
__unwindtable$?Clone@ioJumpFireSkill@@UAEPAVioSkill@@XZ DD 0ffffffffH
	DD	FLAT:__unwindfunclet$?Clone@ioJumpFireSkill@@UAEPAVioSkill@@XZ$0
__ehfuncinfo$?Clone@ioJumpFireSkill@@UAEPAVioSkill@@XZ DD 019930522H
	DD	01H
	DD	FLAT:__unwindtable$?Clone@ioJumpFireSkill@@UAEPAVioSkill@@XZ
	DD	2 DUP(00H)
	DD	2 DUP(00H)
	DD	00H
	DD	01H
; Function compile flags: /Ogsp
xdata$x	ENDS
;	COMDAT ?Clone@ioJumpFireSkill@@UAEPAVioSkill@@XZ
_TEXT	SEGMENT
$T549592 = -16						; size = 4
__$EHRec$ = -12						; size = 12
?Clone@ioJumpFireSkill@@UAEPAVioSkill@@XZ PROC		; ioJumpFireSkill::Clone, COMDAT
; _this$ = ecx

; 40   : {

  00000	6a 04		 push	 4
  00002	b8 00 00 00 00	 mov	 eax, __ehhandler$?Clone@ioJumpFireSkill@@UAEPAVioSkill@@XZ
  00007	e8 00 00 00 00	 call	 __EH_prolog3
  0000c	8b f1		 mov	 esi, ecx

; 41   : 	return new ioJumpFireSkill( *this );

  0000e	68 f4 10 00 00	 push	 4340			; 000010f4H
  00013	e8 00 00 00 00	 call	 ??2@YAPAXI@Z		; operator new
  00018	59		 pop	 ecx
  00019	8b c8		 mov	 ecx, eax
  0001b	89 4d f0	 mov	 DWORD PTR $T549592[ebp], ecx
  0001e	33 c0		 xor	 eax, eax
  00020	89 45 fc	 mov	 DWORD PTR __$EHRec$[ebp+8], eax
  00023	3b c8		 cmp	 ecx, eax
  00025	74 06		 je	 SHORT $LN3@Clone
  00027	56		 push	 esi
  00028	e8 00 00 00 00	 call	 ??0ioJumpFireSkill@@QAE@ABV0@@Z ; ioJumpFireSkill::ioJumpFireSkill
$LN3@Clone:

; 42   : }

  0002d	e8 00 00 00 00	 call	 __EH_epilog3
  00032	c3		 ret	 0
_TEXT	ENDS
;	COMDAT text$x
text$x	SEGMENT
__unwindfunclet$?Clone@ioJumpFireSkill@@UAEPAVioSkill@@XZ$0:
  00000	ff 75 f0	 push	 DWORD PTR $T549592[ebp]
  00003	e8 00 00 00 00	 call	 ??3@YAXPAX@Z		; operator delete
  00008	59		 pop	 ecx
  00009	c3		 ret	 0
__ehhandler$?Clone@ioJumpFireSkill@@UAEPAVioSkill@@XZ:
  0000a	8b 54 24 08	 mov	 edx, DWORD PTR [esp+8]
  0000e	8d 42 0c	 lea	 eax, DWORD PTR [edx+12]
  00011	8b 4a ec	 mov	 ecx, DWORD PTR [edx-20]
  00014	33 c8		 xor	 ecx, eax
  00016	e8 00 00 00 00	 call	 @__security_check_cookie@4
  0001b	b8 00 00 00 00	 mov	 eax, OFFSET __ehfuncinfo$?Clone@ioJumpFireSkill@@UAEPAVioSkill@@XZ
  00020	e9 00 00 00 00	 jmp	 ___CxxFrameHandler3
text$x	ENDS
?Clone@ioJumpFireSkill@@UAEPAVioSkill@@XZ ENDP		; ioJumpFireSkill::Clone
EXTRN	?AttackSkillFire@ioAttackSkill@@MAEXPAVioBaseChar@@@Z:PROC ; ioAttackSkill::AttackSkillFire
; Function compile flags: /Ogsp
;	COMDAT ?AttackSkillFire@ioJumpFireSkill@@MAEXPAVioBaseChar@@@Z
_TEXT	SEGMENT
_pOwner$ = 8						; size = 4
?AttackSkillFire@ioJumpFireSkill@@MAEXPAVioBaseChar@@@Z PROC ; ioJumpFireSkill::AttackSkillFire, COMDAT
; _this$ = ecx

; 100  : {

  00000	55		 push	 ebp
  00001	8b ec		 mov	 ebp, esp

; 102  : }

  00003	5d		 pop	 ebp

; 101  : 	ioAttackSkill::AttackSkillFire( pOwner );

  00004	e9 00 00 00 00	 jmp	 ?AttackSkillFire@ioAttackSkill@@MAEXPAVioBaseChar@@@Z ; ioAttackSkill::AttackSkillFire
?AttackSkillFire@ioJumpFireSkill@@MAEXPAVioBaseChar@@@Z ENDP ; ioJumpFireSkill::AttackSkillFire
_TEXT	ENDS
PUBLIC	?SetSkillActionState@ioJumpFireSkill@@IAEXPAVioBaseChar@@@Z ; ioJumpFireSkill::SetSkillActionState
EXTRN	?ChangeSkillWeaponMesh@ioBaseChar@@QAE_NPAVioSkill@@ABVioHashString@@_N@Z:PROC ; ioBaseChar::ChangeSkillWeaponMesh
EXTRN	__imp_?IsEmpty@ioHashString@@QBE_NXZ:PROC
; Function compile flags: /Ogsp
;	COMDAT ?SetSkillActionState@ioJumpFireSkill@@IAEXPAVioBaseChar@@@Z
_TEXT	SEGMENT
_pOwner$ = 8						; size = 4
?SetSkillActionState@ioJumpFireSkill@@IAEXPAVioBaseChar@@@Z PROC ; ioJumpFireSkill::SetSkillActionState, COMDAT
; _this$ = ecx

; 105  : {

  00000	55		 push	 ebp
  00001	8b ec		 mov	 ebp, esp
  00003	56		 push	 esi
  00004	8b f1		 mov	 esi, ecx

; 106  : 	if( !m_bSetHandMesh && m_bUseItemMesh && !m_HandMesh.IsEmpty() )

  00006	80 be 0a 0f 00
	00 00		 cmp	 BYTE PTR [esi+3850], 0
  0000d	75 36		 jne	 SHORT $LN1@SetSkillAc
  0000f	80 be 08 0f 00
	00 00		 cmp	 BYTE PTR [esi+3848], 0
  00016	74 2d		 je	 SHORT $LN1@SetSkillAc
  00018	57		 push	 edi
  00019	8d be f8 0e 00
	00		 lea	 edi, DWORD PTR [esi+3832]
  0001f	8b cf		 mov	 ecx, edi
  00021	ff 15 00 00 00
	00		 call	 DWORD PTR __imp_?IsEmpty@ioHashString@@QBE_NXZ
  00027	84 c0		 test	 al, al
  00029	75 19		 jne	 SHORT $LN4@SetSkillAc

; 107  : 	{
; 108  : 		pOwner->ChangeSkillWeaponMesh( this, m_HandMesh, m_bVisibleEquipMesh );

  0002b	0f b6 86 09 0f
	00 00		 movzx	 eax, BYTE PTR [esi+3849]
  00032	8b 4d 08	 mov	 ecx, DWORD PTR _pOwner$[ebp]
  00035	50		 push	 eax
  00036	57		 push	 edi
  00037	56		 push	 esi
  00038	e8 00 00 00 00	 call	 ?ChangeSkillWeaponMesh@ioBaseChar@@QAE_NPAVioSkill@@ABVioHashString@@_N@Z ; ioBaseChar::ChangeSkillWeaponMesh

; 109  : 		m_bSetHandMesh = true;

  0003d	c6 86 0a 0f 00
	00 01		 mov	 BYTE PTR [esi+3850], 1
$LN4@SetSkillAc:
  00044	5f		 pop	 edi
$LN1@SetSkillAc:

; 110  : 	}
; 111  : 
; 112  : 	m_SkillState = SS_ATTACK;
; 113  : 	AttackSkillFire( pOwner );

  00045	ff 75 08	 push	 DWORD PTR _pOwner$[ebp]
  00048	8b 06		 mov	 eax, DWORD PTR [esi]
  0004a	8b ce		 mov	 ecx, esi
  0004c	c7 86 e4 10 00
	00 01 00 00 00	 mov	 DWORD PTR [esi+4324], 1
  00056	ff 90 8c 01 00
	00		 call	 DWORD PTR [eax+396]
  0005c	5e		 pop	 esi

; 114  : }

  0005d	5d		 pop	 ebp
  0005e	c2 04 00	 ret	 4
?SetSkillActionState@ioJumpFireSkill@@IAEXPAVioBaseChar@@@Z ENDP ; ioJumpFireSkill::SetSkillActionState
; Function compile flags: /Ogsp
_TEXT	ENDS
;	COMDAT ?CheckUseItemMesh@ioJumpFireSkill@@UAE_NXZ
_TEXT	SEGMENT
?CheckUseItemMesh@ioJumpFireSkill@@UAE_NXZ PROC		; ioJumpFireSkill::CheckUseItemMesh, COMDAT
; _this$ = ecx

; 137  : 	return m_bUseItemMesh;

  00000	8a 81 08 0f 00
	00		 mov	 al, BYTE PTR [ecx+3848]

; 138  : }

  00006	c3		 ret	 0
?CheckUseItemMesh@ioJumpFireSkill@@UAE_NXZ ENDP		; ioJumpFireSkill::CheckUseItemMesh
; Function compile flags: /Ogsp
_TEXT	ENDS
;	COMDAT ?IsNoDropState@ioJumpFireSkill@@UBE_NXZ
_TEXT	SEGMENT
?IsNoDropState@ioJumpFireSkill@@UBE_NXZ PROC		; ioJumpFireSkill::IsNoDropState, COMDAT
; _this$ = ecx

; 161  : 	switch( m_SkillState )

  00000	8b 81 e4 10 00
	00		 mov	 eax, DWORD PTR [ecx+4324]
  00006	33 c9		 xor	 ecx, ecx
  00008	48		 dec	 eax
  00009	41		 inc	 ecx
  0000a	3b c8		 cmp	 ecx, eax
  0000c	1a c0		 sbb	 al, al
  0000e	fe c0		 inc	 al

; 162  : 	{
; 163  : 	case SS_ATTACK:
; 164  : 	case SS_END:
; 165  : 		return true;
; 166  : 	}
; 167  : 	return false;
; 168  : }

  00010	c3		 ret	 0
?IsNoDropState@ioJumpFireSkill@@UBE_NXZ ENDP		; ioJumpFireSkill::IsNoDropState
; Function compile flags: /Ogsp
_TEXT	ENDS
;	COMDAT ?IsEndState@ioJumpFireSkill@@UBE_NXZ
_TEXT	SEGMENT
?IsEndState@ioJumpFireSkill@@UBE_NXZ PROC		; ioJumpFireSkill::IsEndState, COMDAT
; _this$ = ecx

; 172  : 	if( m_SkillState == SS_END )

  00000	83 b9 e4 10 00
	00 02		 cmp	 DWORD PTR [ecx+4324], 2
  00007	0f 94 c0	 sete	 al

; 173  : 		return true;
; 174  : 
; 175  : 	return false;
; 176  : }

  0000a	c3		 ret	 0
?IsEndState@ioJumpFireSkill@@UBE_NXZ ENDP		; ioJumpFireSkill::IsEndState
_TEXT	ENDS
PUBLIC	__real@0000000000000000
;	COMDAT __real@0000000000000000
CONST	SEGMENT
__real@0000000000000000 DQ 00000000000000000r	; 0
; Function compile flags: /Ogsp
CONST	ENDS
;	COMDAT ?IsSkillMotionEnd@ioJumpFireSkill@@UBE_NKPAVioBaseChar@@@Z
_TEXT	SEGMENT
_dwActionStop$ = 8					; size = 4
_pOwner$ = 12						; size = 4
?IsSkillMotionEnd@ioJumpFireSkill@@UBE_NKPAVioBaseChar@@@Z PROC ; ioJumpFireSkill::IsSkillMotionEnd, COMDAT
; _this$ = ecx

; 180  : 	if( m_dwPreDelayStartTime > 0 )

  00000	83 b9 20 02 00
	00 00		 cmp	 DWORD PTR [ecx+544], 0
  00007	76 04		 jbe	 SHORT $LN3@IsSkillMot
$LN6@IsSkillMot:

; 181  : 		return false;

  00009	32 c0		 xor	 al, al
  0000b	eb 1f		 jmp	 SHORT $LN1@IsSkillMot
$LN3@IsSkillMot:

; 182  : 
; 183  : 	if( 0.0f < m_fSkillEndNextJumpAmt )

  0000d	f3 0f 10 81 4c
	05 00 00	 movss	 xmm0, DWORD PTR [ecx+1356]
  00015	0f 5a c0	 cvtps2pd xmm0, xmm0
  00018	66 0f 2f 05 00
	00 00 00	 comisd	 xmm0, QWORD PTR __real@0000000000000000

; 184  : 		return false;

  00020	77 e7		 ja	 SHORT $LN6@IsSkillMot

; 185  : 
; 186  : 	if( m_SkillState == SS_END )

  00022	83 b9 e4 10 00
	00 02		 cmp	 DWORD PTR [ecx+4324], 2
  00029	0f 94 c0	 sete	 al
$LN1@IsSkillMot:

; 187  : 		return true;
; 188  : 
; 189  : 	return false;
; 190  : }

  0002c	c2 08 00	 ret	 8
?IsSkillMotionEnd@ioJumpFireSkill@@UBE_NKPAVioBaseChar@@@Z ENDP ; ioJumpFireSkill::IsSkillMotionEnd
_TEXT	ENDS
PUBLIC	__real@00000000
;	COMDAT __real@00000000
CONST	SEGMENT
__real@00000000 DD 000000000r			; 0
; Function compile flags: /Ogsp
CONST	ENDS
;	COMDAT ?IsAttackEndState@ioJumpFireSkill@@UBE_NXZ
_TEXT	SEGMENT
?IsAttackEndState@ioJumpFireSkill@@UBE_NXZ PROC		; ioJumpFireSkill::IsAttackEndState, COMDAT
; _this$ = ecx

; 194  : 	if( m_fSkillEndNextJumpAmt == 0.0f )

  00000	f3 0f 10 81 4c
	05 00 00	 movss	 xmm0, DWORD PTR [ecx+1356]
  00008	0f 2e 05 00 00
	00 00		 ucomiss xmm0, DWORD PTR __real@00000000
  0000f	9f		 lahf
  00010	f6 c4 44	 test	 ah, 68			; 00000044H
  00013	7a 03		 jp	 SHORT $LN2@IsAttackEn

; 195  : 		return false;

  00015	32 c0		 xor	 al, al

; 198  : 		return true;
; 199  : 
; 200  : 	return false;
; 201  : }

  00017	c3		 ret	 0
$LN2@IsAttackEn:

; 196  : 
; 197  : 	if( m_SkillState == SS_END )

  00018	83 b9 e4 10 00
	00 02		 cmp	 DWORD PTR [ecx+4324], 2
  0001f	0f 94 c0	 sete	 al

; 198  : 		return true;
; 199  : 
; 200  : 	return false;
; 201  : }

  00022	c3		 ret	 0
?IsAttackEndState@ioJumpFireSkill@@UBE_NXZ ENDP		; ioJumpFireSkill::IsAttackEndState
; Function compile flags: /Ogsp
_TEXT	ENDS
;	COMDAT ?GetSkillEndNextJumpMustEnable@ioJumpFireSkill@@UAE?AW4SkillEndJumpType@@XZ
_TEXT	SEGMENT
?GetSkillEndNextJumpMustEnable@ioJumpFireSkill@@UAE?AW4SkillEndJumpType@@XZ PROC ; ioJumpFireSkill::GetSkillEndNextJumpMustEnable, COMDAT
; _this$ = ecx

; 205  : 	return SEJT_JUMP;

  00000	6a 02		 push	 2
  00002	58		 pop	 eax

; 206  : }

  00003	c3		 ret	 0
?GetSkillEndNextJumpMustEnable@ioJumpFireSkill@@UAE?AW4SkillEndJumpType@@XZ ENDP ; ioJumpFireSkill::GetSkillEndNextJumpMustEnable
_TEXT	ENDS
PUBLIC	??0D3DXVECTOR3@@QAE@MMM@Z			; D3DXVECTOR3::D3DXVECTOR3
; Function compile flags: /Ogsp
; File c:\program files (x86)\microsoft directx sdk (june 2010)\include\d3dx9math.inl
;	COMDAT ??0D3DXVECTOR3@@QAE@MMM@Z
_TEXT	SEGMENT
_fx$ = 8						; size = 4
_fy$ = 12						; size = 4
_fz$ = 16						; size = 4
??0D3DXVECTOR3@@QAE@MMM@Z PROC				; D3DXVECTOR3::D3DXVECTOR3, COMDAT
; _this$ = ecx

; 303  : {

  00000	55		 push	 ebp
  00001	8b ec		 mov	 ebp, esp

; 304  :     x = fx;

  00003	f3 0f 10 45 08	 movss	 xmm0, DWORD PTR _fx$[ebp]
  00008	8b c1		 mov	 eax, ecx
  0000a	f3 0f 11 00	 movss	 DWORD PTR [eax], xmm0

; 305  :     y = fy;

  0000e	f3 0f 10 45 0c	 movss	 xmm0, DWORD PTR _fy$[ebp]
  00013	f3 0f 11 40 04	 movss	 DWORD PTR [eax+4], xmm0

; 306  :     z = fz;

  00018	f3 0f 10 45 10	 movss	 xmm0, DWORD PTR _fz$[ebp]
  0001d	f3 0f 11 40 08	 movss	 DWORD PTR [eax+8], xmm0

; 307  : }

  00022	5d		 pop	 ebp
  00023	c2 0c 00	 ret	 12			; 0000000cH
??0D3DXVECTOR3@@QAE@MMM@Z ENDP				; D3DXVECTOR3::D3DXVECTOR3
_TEXT	ENDS
PUBLIC	?_DECSTR@@YAXPADH@Z				; _DECSTR
; Function compile flags: /Ogsp
; File d:\lost saga for developer\youtube\tutorial\source\src\lsclient\stringprotect.h
;	COMDAT ?_DECSTR@@YAXPADH@Z
_TEXT	SEGMENT
_s$ = 8							; size = 4
_l$ = 12						; size = 4
?_DECSTR@@YAXPADH@Z PROC				; _DECSTR, COMDAT

; 40   : __forceinline void _DECSTR(char* s, int l){int i=0,l4=(l-1)/4,*p=(int*)s;s[l-1]=0;for(;i<l4;++i)*(p++)^=0xEAEBECED;for(i=l4*4;i<l-1;++i)s[i]^=0xED-i%4;}

  00000	55		 push	 ebp
  00001	8b ec		 mov	 ebp, esp
  00003	8b 4d 0c	 mov	 ecx, DWORD PTR _l$[ebp]
  00006	56		 push	 esi
  00007	8b 75 08	 mov	 esi, DWORD PTR _s$[ebp]
  0000a	57		 push	 edi
  0000b	8d 79 ff	 lea	 edi, DWORD PTR [ecx-1]
  0000e	8b c7		 mov	 eax, edi
  00010	99		 cdq
  00011	83 e2 03	 and	 edx, 3
  00014	03 c2		 add	 eax, edx
  00016	c1 f8 02	 sar	 eax, 2
  00019	8b d6		 mov	 edx, esi
  0001b	c6 44 0e ff 00	 mov	 BYTE PTR [esi+ecx-1], 0
  00020	85 c0		 test	 eax, eax
  00022	7e 0e		 jle	 SHORT $LN4@DECSTR
  00024	8b c8		 mov	 ecx, eax
$LL6@DECSTR:
  00026	81 32 ed ec eb
	ea		 xor	 DWORD PTR [edx], -353637139 ; eaebecedH
  0002c	83 c2 04	 add	 edx, 4
  0002f	49		 dec	 ecx
  00030	75 f4		 jne	 SHORT $LL6@DECSTR
$LN4@DECSTR:
  00032	c1 e0 02	 shl	 eax, 2
  00035	eb 17		 jmp	 SHORT $LN14@DECSTR
$LL3@DECSTR:
  00037	8b c8		 mov	 ecx, eax
  00039	81 e1 03 00 00
	80		 and	 ecx, -2147483645	; 80000003H
  0003f	79 05		 jns	 SHORT $LN13@DECSTR
  00041	49		 dec	 ecx
  00042	83 c9 fc	 or	 ecx, -4			; fffffffcH
  00045	41		 inc	 ecx
$LN13@DECSTR:
  00046	b2 ed		 mov	 dl, -19			; ffffffedH
  00048	2a d1		 sub	 dl, cl
  0004a	30 14 30	 xor	 BYTE PTR [eax+esi], dl
  0004d	40		 inc	 eax
$LN14@DECSTR:
  0004e	3b c7		 cmp	 eax, edi
  00050	7c e5		 jl	 SHORT $LL3@DECSTR
  00052	5f		 pop	 edi
  00053	5e		 pop	 esi
  00054	5d		 pop	 ebp
  00055	c3		 ret	 0
?_DECSTR@@YAXPADH@Z ENDP				; _DECSTR
; Function compile flags: /Ogsp
; File d:\lost saga for developer\youtube\tutorial\source\src\lsclient\ioskill.h
_TEXT	ENDS
;	COMDAT ?GetDefenseSkillBreakeType@ioSkill@@UBE?AW4DefenseBreakType@@XZ
_TEXT	SEGMENT
?GetDefenseSkillBreakeType@ioSkill@@UBE?AW4DefenseBreakType@@XZ PROC ; ioSkill::GetDefenseSkillBreakeType, COMDAT
; _this$ = ecx

; 327  : 	virtual DefenseBreakType GetDefenseSkillBreakeType() const { return m_eDefenseSkillBreakType; }

  00000	8b 81 30 0e 00
	00		 mov	 eax, DWORD PTR [ecx+3632]
  00006	c3		 ret	 0
?GetDefenseSkillBreakeType@ioSkill@@UBE?AW4DefenseBreakType@@XZ ENDP ; ioSkill::GetDefenseSkillBreakeType
; Function compile flags: /Ogsp
_TEXT	ENDS
;	COMDAT ?GetSkillEndNextJumpAmt@ioSkill@@UBEMXZ
_TEXT	SEGMENT
?GetSkillEndNextJumpAmt@ioSkill@@UBEMXZ PROC		; ioSkill::GetSkillEndNextJumpAmt, COMDAT
; _this$ = ecx

; 335  : 	virtual float GetSkillEndNextJumpAmt() const { return m_fSkillEndNextJumpAmt; }

  00000	d9 81 4c 05 00
	00		 fld	 DWORD PTR [ecx+1356]
  00006	c3		 ret	 0
?GetSkillEndNextJumpAmt@ioSkill@@UBEMXZ ENDP		; ioSkill::GetSkillEndNextJumpAmt
; Function compile flags: /Ogsp
_TEXT	ENDS
;	COMDAT ?GetSkillEndNextLandRate@ioSkill@@UBEMXZ
_TEXT	SEGMENT
?GetSkillEndNextLandRate@ioSkill@@UBEMXZ PROC		; ioSkill::GetSkillEndNextLandRate, COMDAT
; _this$ = ecx

; 336  : 	virtual float GetSkillEndNextLandRate() const { return m_fSkillEndNextLandRate; }

  00000	d9 81 50 05 00
	00		 fld	 DWORD PTR [ecx+1360]
  00006	c3		 ret	 0
?GetSkillEndNextLandRate@ioSkill@@UBEMXZ ENDP		; ioSkill::GetSkillEndNextLandRate
; Function compile flags: /Ogsp
_TEXT	ENDS
;	COMDAT ?EnableChangeGrapplingTargetPos@ioSkill@@UBE_NXZ
_TEXT	SEGMENT
?EnableChangeGrapplingTargetPos@ioSkill@@UBE_NXZ PROC	; ioSkill::EnableChangeGrapplingTargetPos, COMDAT
; _this$ = ecx

; 355  : 	virtual bool EnableChangeGrapplingTargetPos() const { return m_bChangeGrapplingTargetPos; }

  00000	8a 81 40 09 00
	00		 mov	 al, BYTE PTR [ecx+2368]
  00006	c3		 ret	 0
?EnableChangeGrapplingTargetPos@ioSkill@@UBE_NXZ ENDP	; ioSkill::EnableChangeGrapplingTargetPos
; Function compile flags: /Ogsp
_TEXT	ENDS
;	COMDAT ?IsInvisibleBottomCircle@ioSkill@@UAE_NPAVioBaseChar@@@Z
_TEXT	SEGMENT
_pChar$ = 8						; size = 4
?IsInvisibleBottomCircle@ioSkill@@UAE_NPAVioBaseChar@@@Z PROC ; ioSkill::IsInvisibleBottomCircle, COMDAT
; _this$ = ecx

; 393  : 	virtual bool IsInvisibleBottomCircle( ioBaseChar *pChar ) { return false; }

  00000	32 c0		 xor	 al, al
  00002	c2 04 00	 ret	 4
?IsInvisibleBottomCircle@ioSkill@@UAE_NPAVioBaseChar@@@Z ENDP ; ioSkill::IsInvisibleBottomCircle
_TEXT	ENDS
PUBLIC	?GetOwnerItem@ioSkill@@QBEPAVioItem@@XZ		; ioSkill::GetOwnerItem
; Function compile flags: /Ogsp
;	COMDAT ?GetOwnerItem@ioSkill@@QBEPAVioItem@@XZ
_TEXT	SEGMENT
?GetOwnerItem@ioSkill@@QBEPAVioItem@@XZ PROC		; ioSkill::GetOwnerItem, COMDAT
; _this$ = ecx

; 397  : 	inline ioItem *GetOwnerItem() const { return m_pOwnerItem; }

  00000	8b 81 a4 02 00
	00		 mov	 eax, DWORD PTR [ecx+676]
  00006	c3		 ret	 0
?GetOwnerItem@ioSkill@@QBEPAVioItem@@XZ ENDP		; ioSkill::GetOwnerItem
_TEXT	ENDS
PUBLIC	?GetSkillUseType@ioSkill@@QBE?AW4SkillUseType@@XZ ; ioSkill::GetSkillUseType
; Function compile flags: /Ogsp
;	COMDAT ?GetSkillUseType@ioSkill@@QBE?AW4SkillUseType@@XZ
_TEXT	SEGMENT
?GetSkillUseType@ioSkill@@QBE?AW4SkillUseType@@XZ PROC	; ioSkill::GetSkillUseType, COMDAT
; _this$ = ecx

; 454  : 	inline SkillUseType GetSkillUseType() const { return m_SkillUseType; }

  00000	8b 41 74	 mov	 eax, DWORD PTR [ecx+116]
  00003	c3		 ret	 0
?GetSkillUseType@ioSkill@@QBE?AW4SkillUseType@@XZ ENDP	; ioSkill::GetSkillUseType
; Function compile flags: /Ogsp
_TEXT	ENDS
;	COMDAT ?IsUseActiveCnt@ioSkill@@UBE_NXZ
_TEXT	SEGMENT
?IsUseActiveCnt@ioSkill@@UBE_NXZ PROC			; ioSkill::IsUseActiveCnt, COMDAT
; _this$ = ecx

; 544  : 	virtual bool IsUseActiveCnt() const { return false; }

  00000	32 c0		 xor	 al, al
  00002	c3		 ret	 0
?IsUseActiveCnt@ioSkill@@UBE_NXZ ENDP			; ioSkill::IsUseActiveCnt
; Function compile flags: /Ogsp
_TEXT	ENDS
;	COMDAT ?GetMaxActiveCnt@ioSkill@@UBEHPAVioBaseChar@@@Z
_TEXT	SEGMENT
_pChar$ = 8						; size = 4
?GetMaxActiveCnt@ioSkill@@UBEHPAVioBaseChar@@@Z PROC	; ioSkill::GetMaxActiveCnt, COMDAT
; _this$ = ecx

; 545  : 	virtual int GetMaxActiveCnt( ioBaseChar *pChar ) const { return 0; }

  00000	33 c0		 xor	 eax, eax
  00002	c2 04 00	 ret	 4
?GetMaxActiveCnt@ioSkill@@UBEHPAVioBaseChar@@@Z ENDP	; ioSkill::GetMaxActiveCnt
; Function compile flags: /Ogsp
_TEXT	ENDS
;	COMDAT ?GetCurActiveCnt@ioSkill@@UBEHPAVioBaseChar@@@Z
_TEXT	SEGMENT
_pChar$ = 8						; size = 4
?GetCurActiveCnt@ioSkill@@UBEHPAVioBaseChar@@@Z PROC	; ioSkill::GetCurActiveCnt, COMDAT
; _this$ = ecx

; 546  : 	virtual int GetCurActiveCnt( ioBaseChar *pChar ) const { return 0; }

  00000	33 c0		 xor	 eax, eax
  00002	c2 04 00	 ret	 4
?GetCurActiveCnt@ioSkill@@UBEHPAVioBaseChar@@@Z ENDP	; ioSkill::GetCurActiveCnt
_TEXT	ENDS
PUBLIC	?DecryptValueToPool@?$CEncrypt@K@@QAEXPAK@Z	; CEncrypt<unsigned long>::DecryptValueToPool
EXTRN	?DecryptByte@ccddaabb@@QBEXPBDPADH@Z:PROC	; ccddaabb::DecryptByte
; Function compile flags: /Ogsp
; File d:\lost saga for developer\youtube\tutorial\source\src\lsclient\encryptvalue.h
;	COMDAT ?DecryptValueToPool@?$CEncrypt@K@@QAEXPAK@Z
_TEXT	SEGMENT
_value$ = 8						; size = 4
?DecryptValueToPool@?$CEncrypt@K@@QAEXPAK@Z PROC	; CEncrypt<unsigned long>::DecryptValueToPool, COMDAT
; _this$ = ecx

; 1256 : 	{

  00000	55		 push	 ebp
  00001	8b ec		 mov	 ebp, esp
  00003	56		 push	 esi

; 1257 : 		m_RC5.DecryptByte( m_MemPool, m_TempMem, 4 );

  00004	8d 71 28	 lea	 esi, DWORD PTR [ecx+40]
  00007	6a 04		 push	 4
  00009	8d 41 1c	 lea	 eax, DWORD PTR [ecx+28]
  0000c	56		 push	 esi
  0000d	50		 push	 eax
  0000e	83 c1 0c	 add	 ecx, 12			; 0000000cH
  00011	e8 00 00 00 00	 call	 ?DecryptByte@ccddaabb@@QBEXPBDPADH@Z ; ccddaabb::DecryptByte

; 1258 : 		*value = *((DWORD*)m_TempMem);

  00016	8b 06		 mov	 eax, DWORD PTR [esi]
  00018	8b 4d 08	 mov	 ecx, DWORD PTR _value$[ebp]
  0001b	89 01		 mov	 DWORD PTR [ecx], eax
  0001d	5e		 pop	 esi

; 1259 : 	}

  0001e	5d		 pop	 ebp
  0001f	c2 04 00	 ret	 4
?DecryptValueToPool@?$CEncrypt@K@@QAEXPAK@Z ENDP	; CEncrypt<unsigned long>::DecryptValueToPool
_TEXT	ENDS
PUBLIC	?DecryptValueToPool@?$CEncrypt@_N@@QAEXPA_N@Z	; CEncrypt<bool>::DecryptValueToPool
; Function compile flags: /Ogsp
;	COMDAT ?DecryptValueToPool@?$CEncrypt@_N@@QAEXPA_N@Z
_TEXT	SEGMENT
_value$ = 8						; size = 4
?DecryptValueToPool@?$CEncrypt@_N@@QAEXPA_N@Z PROC	; CEncrypt<bool>::DecryptValueToPool, COMDAT
; _this$ = ecx

; 219  : 	{

  00000	55		 push	 ebp
  00001	8b ec		 mov	 ebp, esp
  00003	56		 push	 esi

; 220  : 		m_RC5.DecryptByte( m_MemPool, m_TempMem, 4 );

  00004	8d 71 28	 lea	 esi, DWORD PTR [ecx+40]
  00007	6a 04		 push	 4
  00009	8d 41 1c	 lea	 eax, DWORD PTR [ecx+28]
  0000c	56		 push	 esi
  0000d	50		 push	 eax
  0000e	83 c1 0c	 add	 ecx, 12			; 0000000cH
  00011	e8 00 00 00 00	 call	 ?DecryptByte@ccddaabb@@QBEXPBDPADH@Z ; ccddaabb::DecryptByte

; 221  : 		*value = *((bool*)m_TempMem);

  00016	8a 06		 mov	 al, BYTE PTR [esi]
  00018	8b 4d 08	 mov	 ecx, DWORD PTR _value$[ebp]
  0001b	88 01		 mov	 BYTE PTR [ecx], al
  0001d	5e		 pop	 esi

; 222  : 	}

  0001e	5d		 pop	 ebp
  0001f	c2 04 00	 ret	 4
?DecryptValueToPool@?$CEncrypt@_N@@QAEXPA_N@Z ENDP	; CEncrypt<bool>::DecryptValueToPool
; Function compile flags: /Ogsp
_TEXT	ENDS
;	COMDAT ??_GioJumpFireSkill@@UAEPAXI@Z
_TEXT	SEGMENT
___flags$ = 8						; size = 4
??_GioJumpFireSkill@@UAEPAXI@Z PROC			; ioJumpFireSkill::`scalar deleting destructor', COMDAT
; _this$ = ecx
  00000	55		 push	 ebp
  00001	8b ec		 mov	 ebp, esp
  00003	56		 push	 esi
  00004	8b f1		 mov	 esi, ecx
  00006	c7 06 00 00 00
	00		 mov	 DWORD PTR [esi], OFFSET ??_7ioJumpFireSkill@@6B@
  0000c	e8 00 00 00 00	 call	 ??1ioAttackSkill@@UAE@XZ ; ioAttackSkill::~ioAttackSkill
  00011	f6 45 08 01	 test	 BYTE PTR ___flags$[ebp], 1
  00015	74 07		 je	 SHORT $LN1@scalar
  00017	56		 push	 esi
  00018	e8 00 00 00 00	 call	 ??3@YAXPAX@Z		; operator delete
  0001d	59		 pop	 ecx
$LN1@scalar:
  0001e	8b c6		 mov	 eax, esi
  00020	5e		 pop	 esi
  00021	5d		 pop	 ebp
  00022	c2 04 00	 ret	 4
??_GioJumpFireSkill@@UAEPAXI@Z ENDP			; ioJumpFireSkill::`scalar deleting destructor'
_TEXT	ENDS
EXTRN	?SetJumpPower@ioBaseChar@@QAEXM@Z:PROC		; ioBaseChar::SetJumpPower
EXTRN	?ShowWeaponItemMesh@ioBaseChar@@QAEX_N0@Z:PROC	; ioBaseChar::ShowWeaponItemMesh
EXTRN	?OnSkillStart@ioAttackSkill@@UAE_NPAVioBaseChar@@@Z:PROC ; ioAttackSkill::OnSkillStart
; Function compile flags: /Ogsp
; File d:\lost saga for developer\youtube\tutorial\source\src\lsclient\iojumpfireskill.cpp
;	COMDAT ?OnSkillStart@ioJumpFireSkill@@UAE_NPAVioBaseChar@@@Z
_TEXT	SEGMENT
_pOwner$ = 8						; size = 4
?OnSkillStart@ioJumpFireSkill@@UAE_NPAVioBaseChar@@@Z PROC ; ioJumpFireSkill::OnSkillStart, COMDAT
; _this$ = ecx

; 45   : {

  00000	55		 push	 ebp
  00001	8b ec		 mov	 ebp, esp
  00003	56		 push	 esi

; 46   : 	ioAttackSkill::OnSkillStart( pOwner );

  00004	ff 75 08	 push	 DWORD PTR _pOwner$[ebp]
  00007	8b f1		 mov	 esi, ecx
  00009	e8 00 00 00 00	 call	 ?OnSkillStart@ioAttackSkill@@UAE_NPAVioBaseChar@@@Z ; ioAttackSkill::OnSkillStart

; 47   : 
; 48   : 	m_SkillState	= SS_PRE;

  0000e	33 c0		 xor	 eax, eax
  00010	89 86 e4 10 00
	00		 mov	 DWORD PTR [esi+4324], eax

; 49   : 	m_bSetHandMesh	= false;

  00016	88 86 0a 0f 00
	00		 mov	 BYTE PTR [esi+3850], al

; 50   : 
; 51   : 	// 기본 무기 손에서 제거
; 52   : 	if( m_bUseItemMesh )

  0001c	38 86 08 0f 00
	00		 cmp	 BYTE PTR [esi+3848], al
  00022	74 0a		 je	 SHORT $LN2@OnSkillSta

; 53   : 	{
; 54   : 		pOwner->ShowWeaponItemMesh( false );

  00024	8b 4d 08	 mov	 ecx, DWORD PTR _pOwner$[ebp]
  00027	50		 push	 eax
  00028	50		 push	 eax
  00029	e8 00 00 00 00	 call	 ?ShowWeaponItemMesh@ioBaseChar@@QAEX_N0@Z ; ioBaseChar::ShowWeaponItemMesh
$LN2@OnSkillSta:

; 55   : 	}
; 56   : 
; 57   : 	if( GetSkillUseType() != SUT_JUMP )

  0002e	83 7e 74 01	 cmp	 DWORD PTR [esi+116], 1
  00032	74 16		 je	 SHORT $LN1@OnSkillSta

; 58   : 	{
; 59   : 		pOwner->SetJumpPower( m_fSkillJumpPower );

  00034	f3 0f 10 86 ec
	10 00 00	 movss	 xmm0, DWORD PTR [esi+4332]
  0003c	51		 push	 ecx
  0003d	8b 4d 08	 mov	 ecx, DWORD PTR _pOwner$[ebp]
  00040	f3 0f 11 04 24	 movss	 DWORD PTR [esp], xmm0
  00045	e8 00 00 00 00	 call	 ?SetJumpPower@ioBaseChar@@QAEXM@Z ; ioBaseChar::SetJumpPower
$LN1@OnSkillSta:

; 60   : 	}
; 61   : 
; 62   : 	return true;

  0004a	b0 01		 mov	 al, 1
  0004c	5e		 pop	 esi

; 63   : }

  0004d	5d		 pop	 ebp
  0004e	c2 04 00	 ret	 4
?OnSkillStart@ioJumpFireSkill@@UAE_NPAVioBaseChar@@@Z ENDP ; ioJumpFireSkill::OnSkillStart
_TEXT	ENDS
PUBLIC	?CheckPreState@ioJumpFireSkill@@IAEXPAVioBaseChar@@PAVioPlayStage@@@Z ; ioJumpFireSkill::CheckPreState
EXTRN	__imp_?GetLoopSec@ioFrameTimer@@QBEKXZ:PROC
EXTRN	__imp_?GetSingleton@ioFrameTimer@@SAAAV1@XZ:PROC
; Function compile flags: /Ogsp
;	COMDAT ?CheckPreState@ioJumpFireSkill@@IAEXPAVioBaseChar@@PAVioPlayStage@@@Z
_TEXT	SEGMENT
_pOwner$ = 8						; size = 4
_pStage$ = 12						; size = 4
?CheckPreState@ioJumpFireSkill@@IAEXPAVioBaseChar@@PAVioPlayStage@@@Z PROC ; ioJumpFireSkill::CheckPreState, COMDAT
; _this$ = ecx

; 87   : {

  00000	55		 push	 ebp
  00001	8b ec		 mov	 ebp, esp
  00003	56		 push	 esi
  00004	57		 push	 edi
  00005	8b f1		 mov	 esi, ecx

; 88   : 	DWORD dwCurTime  = FRAMEGETTIME();

  00007	ff 15 00 00 00
	00		 call	 DWORD PTR __imp_?GetSingleton@ioFrameTimer@@SAAAV1@XZ
  0000d	8b c8		 mov	 ecx, eax
  0000f	ff 15 00 00 00
	00		 call	 DWORD PTR __imp_?GetLoopSec@ioFrameTimer@@QBEKXZ
  00015	8b f8		 mov	 edi, eax

; 89   : 	DWORD dwPreDelay = GetPreDelayTime();

  00017	8b 06		 mov	 eax, DWORD PTR [esi]
  00019	8b ce		 mov	 ecx, esi
  0001b	ff 90 34 01 00
	00		 call	 DWORD PTR [eax+308]

; 90   : 
; 91   : 	if( m_dwPreDelayStartTime + dwPreDelay < dwCurTime )

  00021	8b 96 20 02 00
	00		 mov	 edx, DWORD PTR [esi+544]
  00027	03 d0		 add	 edx, eax
  00029	3b d7		 cmp	 edx, edi
  0002b	73 1e		 jae	 SHORT $LN1@CheckPreSt

; 92   : 	{
; 93   : 		m_dwPreDelayStartTime = 0;
; 94   : 		EndPreDelayEffect( pOwner );

  0002d	ff 75 08	 push	 DWORD PTR _pOwner$[ebp]
  00030	8b 06		 mov	 eax, DWORD PTR [esi]
  00032	83 a6 20 02 00
	00 00		 and	 DWORD PTR [esi+544], 0
  00039	8b ce		 mov	 ecx, esi
  0003b	ff 90 dc 00 00
	00		 call	 DWORD PTR [eax+220]

; 95   : 		SetSkillActionState( pOwner );

  00041	ff 75 08	 push	 DWORD PTR _pOwner$[ebp]
  00044	8b ce		 mov	 ecx, esi
  00046	e8 00 00 00 00	 call	 ?SetSkillActionState@ioJumpFireSkill@@IAEXPAVioBaseChar@@@Z ; ioJumpFireSkill::SetSkillActionState
$LN1@CheckPreSt:
  0004b	5f		 pop	 edi
  0004c	5e		 pop	 esi

; 96   : 	}
; 97   : }

  0004d	5d		 pop	 ebp
  0004e	c2 08 00	 ret	 8
?CheckPreState@ioJumpFireSkill@@IAEXPAVioBaseChar@@PAVioPlayStage@@@Z ENDP ; ioJumpFireSkill::CheckPreState
_TEXT	ENDS
EXTRN	?RestoreSkillWeaponMesh@ioBaseChar@@QAE_NPAVioSkill@@ABVioHashString@@_N2@Z:PROC ; ioBaseChar::RestoreSkillWeaponMesh
EXTRN	?OnSkillEnd@ioAttackSkill@@UAEXPAVioBaseChar@@@Z:PROC ; ioAttackSkill::OnSkillEnd
; Function compile flags: /Ogsp
;	COMDAT ?OnSkillEnd@ioJumpFireSkill@@UAEXPAVioBaseChar@@@Z
_TEXT	SEGMENT
_pOwner$ = 8						; size = 4
?OnSkillEnd@ioJumpFireSkill@@UAEXPAVioBaseChar@@@Z PROC	; ioJumpFireSkill::OnSkillEnd, COMDAT
; _this$ = ecx

; 117  : {

  00000	55		 push	 ebp
  00001	8b ec		 mov	 ebp, esp
  00003	56		 push	 esi
  00004	57		 push	 edi

; 118  : 	ioAttackSkill::OnSkillEnd( pOwner );

  00005	ff 75 08	 push	 DWORD PTR _pOwner$[ebp]
  00008	8b f1		 mov	 esi, ecx
  0000a	e8 00 00 00 00	 call	 ?OnSkillEnd@ioAttackSkill@@UAEXPAVioBaseChar@@@Z ; ioAttackSkill::OnSkillEnd

; 119  : 
; 120  : 	if( GetOwnerItem() )

  0000f	8b 8e a4 02 00
	00		 mov	 ecx, DWORD PTR [esi+676]
  00015	85 c9		 test	 ecx, ecx
  00017	74 08		 je	 SHORT $LN3@OnSkillEnd

; 121  : 		GetOwnerItem()->ClearCurChargeRateForSkill();

  00019	8b 01		 mov	 eax, DWORD PTR [ecx]
  0001b	ff 90 84 00 00
	00		 call	 DWORD PTR [eax+132]
$LN3@OnSkillEnd:

; 122  : 
; 123  : 	// 기본무기 장착
; 124  : 	if( m_bUseItemMesh )

  00021	80 be 08 0f 00
	00 00		 cmp	 BYTE PTR [esi+3848], 0
  00028	74 0c		 je	 SHORT $LN2@OnSkillEnd

; 125  : 	{
; 126  : 		pOwner->ShowWeaponItemMesh( true );

  0002a	8b 4d 08	 mov	 ecx, DWORD PTR _pOwner$[ebp]
  0002d	6a 00		 push	 0
  0002f	6a 01		 push	 1
  00031	e8 00 00 00 00	 call	 ?ShowWeaponItemMesh@ioBaseChar@@QAEX_N0@Z ; ioBaseChar::ShowWeaponItemMesh
$LN2@OnSkillEnd:

; 127  : 	}
; 128  : 
; 129  : 	if( !m_HandMesh.IsEmpty() )

  00036	8d be f8 0e 00
	00		 lea	 edi, DWORD PTR [esi+3832]
  0003c	8b cf		 mov	 ecx, edi
  0003e	ff 15 00 00 00
	00		 call	 DWORD PTR __imp_?IsEmpty@ioHashString@@QBE_NXZ
  00044	84 c0		 test	 al, al
  00046	75 14		 jne	 SHORT $LN1@OnSkillEnd

; 130  : 	{
; 131  : 		pOwner->RestoreSkillWeaponMesh( this, m_HandMesh, m_bVisibleEquipMesh );

  00048	0f b6 86 09 0f
	00 00		 movzx	 eax, BYTE PTR [esi+3849]
  0004f	8b 4d 08	 mov	 ecx, DWORD PTR _pOwner$[ebp]
  00052	6a 00		 push	 0
  00054	50		 push	 eax
  00055	57		 push	 edi
  00056	56		 push	 esi
  00057	e8 00 00 00 00	 call	 ?RestoreSkillWeaponMesh@ioBaseChar@@QAE_NPAVioSkill@@ABVioHashString@@_N2@Z ; ioBaseChar::RestoreSkillWeaponMesh
$LN1@OnSkillEnd:
  0005c	5f		 pop	 edi
  0005d	5e		 pop	 esi

; 132  : 	}	
; 133  : }

  0005e	5d		 pop	 ebp
  0005f	c2 04 00	 ret	 4
?OnSkillEnd@ioJumpFireSkill@@UAEXPAVioBaseChar@@@Z ENDP	; ioJumpFireSkill::OnSkillEnd
_TEXT	ENDS
PUBLIC	__real@bf800000
PUBLIC	_pStage$GSCopy$
PUBLIC	_this$GSCopy$
PUBLIC	__$ArrayPad$
EXTRN	?GetOwner@ioWeapon@@QBEPAVioBaseChar@@XZ:PROC	; ioWeapon::GetOwner
EXTRN	?ApplyAttributeToWeapon@ioSkill@@UAEXPAVioWeapon@@PAVioPlayStage@@@Z:PROC ; ioSkill::ApplyAttributeToWeapon
EXTRN	___security_cookie:DWORD
;	COMDAT __real@bf800000
; File c:\program files (x86)\microsoft directx sdk (june 2010)\include\d3dx9math.inl
CONST	SEGMENT
__real@bf800000 DD 0bf800000r			; -1
; Function compile flags: /Ogsp
; File d:\lost saga for developer\youtube\tutorial\source\src\lsclient\iojumpfireskill.cpp
CONST	ENDS
;	COMDAT ?ApplyAttributeToWeapon@ioJumpFireSkill@@UAEXPAVioWeapon@@PAVioPlayStage@@@Z
_TEXT	SEGMENT
_this$GSCopy$ = -36					; size = 4
_pStage$GSCopy$ = -32					; size = 4
_vPos$548127 = -28					; size = 12
$T548128 = -16						; size = 12
__$ArrayPad$ = -4					; size = 4
_pWeapon$ = 8						; size = 4
_pStage$ = 12						; size = 4
?ApplyAttributeToWeapon@ioJumpFireSkill@@UAEXPAVioWeapon@@PAVioPlayStage@@@Z PROC ; ioJumpFireSkill::ApplyAttributeToWeapon, COMDAT
; _this$ = ecx

; 141  : {

  00000	55		 push	 ebp
  00001	8b ec		 mov	 ebp, esp
  00003	83 ec 24	 sub	 esp, 36			; 00000024H
  00006	a1 00 00 00 00	 mov	 eax, DWORD PTR ___security_cookie
  0000b	33 c5		 xor	 eax, ebp
  0000d	89 45 fc	 mov	 DWORD PTR __$ArrayPad$[ebp], eax
  00010	8b 45 0c	 mov	 eax, DWORD PTR _pStage$[ebp]
  00013	53		 push	 ebx
  00014	56		 push	 esi
  00015	8b 75 08	 mov	 esi, DWORD PTR _pWeapon$[ebp]

; 142  : 	ioSkill::ApplyAttributeToWeapon( pWeapon, pStage );

  00018	50		 push	 eax
  00019	56		 push	 esi

; 149  : 		{
; 150  : 			D3DXVECTOR3 vPos = pOwner->GetWorldPosition();

  0001a	89 4d dc	 mov	 DWORD PTR _this$GSCopy$[ebp], ecx
  0001d	89 45 e0	 mov	 DWORD PTR _pStage$GSCopy$[ebp], eax
  00020	e8 00 00 00 00	 call	 ?ApplyAttributeToWeapon@ioSkill@@UAEXPAVioWeapon@@PAVioPlayStage@@@Z ; ioSkill::ApplyAttributeToWeapon
  00025	56		 push	 esi
  00026	e8 00 00 00 00	 call	 ?ToBombMissileWeapon@@YAPAVioBombMissileWeapon@@PAVioWeapon@@@Z ; ToBombMissileWeapon
  0002b	8b d8		 mov	 ebx, eax
  0002d	59		 pop	 ecx
  0002e	85 db		 test	 ebx, ebx
  00030	74 7c		 je	 SHORT $LN1@ApplyAttri

; 143  : 
; 144  : 	ioBombMissileWeapon* pBombWeapon = ToBombMissileWeapon( pWeapon );
; 145  : 	if( pBombWeapon )
; 146  : 	{
; 147  : 		ioBaseChar* pOwner = pWeapon->GetOwner();

  00032	8b ce		 mov	 ecx, esi
  00034	e8 00 00 00 00	 call	 ?GetOwner@ioWeapon@@QBEPAVioBaseChar@@XZ ; ioWeapon::GetOwner

; 148  : 		if( pOwner )

  00039	85 c0		 test	 eax, eax
  0003b	74 71		 je	 SHORT $LN1@ApplyAttri

; 149  : 		{
; 150  : 			D3DXVECTOR3 vPos = pOwner->GetWorldPosition();

  0003d	8b 10		 mov	 edx, DWORD PTR [eax]
  0003f	57		 push	 edi
  00040	8b c8		 mov	 ecx, eax
  00042	ff 52 70	 call	 DWORD PTR [edx+112]

; 151  : 			vPos.y += m_iHeightOffset;
; 152  : 
; 153  : 			pBombWeapon->SetStartPosition( vPos, pStage );

  00045	ff 75 e0	 push	 DWORD PTR _pStage$GSCopy$[ebp]
  00048	8b f0		 mov	 esi, eax
  0004a	8b 45 dc	 mov	 eax, DWORD PTR _this$GSCopy$[ebp]
  0004d	66 0f 6e 80 f0
	10 00 00	 movd	 xmm0, DWORD PTR [eax+4336]
  00055	8b 03		 mov	 eax, DWORD PTR [ebx]
  00057	8d 7d e4	 lea	 edi, DWORD PTR _vPos$548127[ebp]
  0005a	a5		 movsd
  0005b	a5		 movsd
  0005c	a5		 movsd
  0005d	f3 0f 10 4d e8	 movss	 xmm1, DWORD PTR _vPos$548127[ebp+4]
  00062	0f 5b c0	 cvtdq2ps xmm0, xmm0
  00065	f3 0f 5a c0	 cvtss2sd xmm0, xmm0
  00069	8d 4d e4	 lea	 ecx, DWORD PTR _vPos$548127[ebp]
  0006c	0f 5a c9	 cvtps2pd xmm1, xmm1
  0006f	f2 0f 58 c1	 addsd	 xmm0, xmm1
  00073	51		 push	 ecx
  00074	f2 0f 5a c0	 cvtsd2ss xmm0, xmm0
  00078	8b cb		 mov	 ecx, ebx
  0007a	f3 0f 11 45 e8	 movss	 DWORD PTR _vPos$548127[ebp+4], xmm0
  0007f	ff 90 bc 00 00
	00		 call	 DWORD PTR [eax+188]

; 154  : 			pBombWeapon->SetMoveDir( D3DXVECTOR3( 0.0f, -1.0f, 0.0f ) );

  00085	0f 57 c0	 xorps	 xmm0, xmm0
  00088	f3 0f 10 0d 00
	00 00 00	 movss	 xmm1, DWORD PTR __real@bf800000
  00090	8b 03		 mov	 eax, DWORD PTR [ebx]
  00092	8d 4d f0	 lea	 ecx, DWORD PTR $T548128[ebp]
  00095	51		 push	 ecx
  00096	8b cb		 mov	 ecx, ebx
  00098	f3 0f 11 45 f0	 movss	 DWORD PTR $T548128[ebp], xmm0
  0009d	f3 0f 11 4d f4	 movss	 DWORD PTR $T548128[ebp+4], xmm1
  000a2	f3 0f 11 45 f8	 movss	 DWORD PTR $T548128[ebp+8], xmm0
  000a7	ff 90 b0 00 00
	00		 call	 DWORD PTR [eax+176]
  000ad	5f		 pop	 edi
$LN1@ApplyAttri:

; 155  : 		}
; 156  : 	}
; 157  : }

  000ae	8b 4d fc	 mov	 ecx, DWORD PTR __$ArrayPad$[ebp]
  000b1	5e		 pop	 esi
  000b2	33 cd		 xor	 ecx, ebp
  000b4	5b		 pop	 ebx
  000b5	e8 00 00 00 00	 call	 @__security_check_cookie@4
  000ba	c9		 leave
  000bb	c2 08 00	 ret	 8
?ApplyAttributeToWeapon@ioJumpFireSkill@@UAEXPAVioWeapon@@PAVioPlayStage@@@Z ENDP ; ioJumpFireSkill::ApplyAttributeToWeapon
_TEXT	ENDS
PUBLIC	__$ArrayPad$
PUBLIC	??$LoadInt_e@$0BD@@ioINILoader@@QAEHAAY0BD@$$CBDH@Z ; ioINILoader::LoadInt_e<19>
EXTRN	__imp_?LoadInt@ioINILoader@@QAEHPBDH@Z:PROC
; Function compile flags: /Ogsp
; File d:\lost saga for developer\youtube\tutorial\source\src\io3dengine\ioiniloader.h
;	COMDAT ??$LoadInt_e@$0BD@@ioINILoader@@QAEHAAY0BD@$$CBDH@Z
_TEXT	SEGMENT
__k$ = -28						; size = 19
__$ArrayPad$ = -4					; size = 4
_k$ = 8							; size = 4
_i$ = 12						; size = 4
??$LoadInt_e@$0BD@@ioINILoader@@QAEHAAY0BD@$$CBDH@Z PROC ; ioINILoader::LoadInt_e<19>, COMDAT
; _this$ = ecx

; 118  : 	{

  00000	55		 push	 ebp
  00001	8b ec		 mov	 ebp, esp
  00003	83 ec 1c	 sub	 esp, 28			; 0000001cH
  00006	a1 00 00 00 00	 mov	 eax, DWORD PTR ___security_cookie
  0000b	33 c5		 xor	 eax, ebp
  0000d	89 45 fc	 mov	 DWORD PTR __$ArrayPad$[ebp], eax
  00010	8b 45 08	 mov	 eax, DWORD PTR _k$[ebp]

; 119  : 		_ENCSTR(k, _k);

  00013	8a 10		 mov	 dl, BYTE PTR [eax]
  00015	56		 push	 esi
  00016	8b f1		 mov	 esi, ecx
  00018	84 d2		 test	 dl, dl
  0001a	0f 84 cf 01 00
	00		 je	 $LN96@LoadInt_e
  00020	80 f2 ed	 xor	 dl, -19			; ffffffedH
  00023	88 55 e4	 mov	 BYTE PTR __k$[ebp], dl
  00026	8a 50 01	 mov	 dl, BYTE PTR [eax+1]
  00029	84 d2		 test	 dl, dl
  0002b	0f 84 b8 01 00
	00		 je	 $LN95@LoadInt_e
  00031	b1 ec		 mov	 cl, -20			; ffffffecH
  00033	32 d1		 xor	 dl, cl
  00035	88 55 e5	 mov	 BYTE PTR __k$[ebp+1], dl
  00038	8a 50 02	 mov	 dl, BYTE PTR [eax+2]
  0003b	84 d2		 test	 dl, dl
  0003d	0f 84 a0 01 00
	00		 je	 $LN94@LoadInt_e
  00043	80 f2 eb	 xor	 dl, -21			; ffffffebH
  00046	88 55 e6	 mov	 BYTE PTR __k$[ebp+2], dl
  00049	8a 50 03	 mov	 dl, BYTE PTR [eax+3]
  0004c	84 d2		 test	 dl, dl
  0004e	0f 84 89 01 00
	00		 je	 $LN93@LoadInt_e
  00054	80 f2 ea	 xor	 dl, -22			; ffffffeaH
  00057	88 55 e7	 mov	 BYTE PTR __k$[ebp+3], dl
  0005a	8a 50 04	 mov	 dl, BYTE PTR [eax+4]
  0005d	84 d2		 test	 dl, dl
  0005f	0f 84 72 01 00
	00		 je	 $LN92@LoadInt_e
  00065	80 f2 ed	 xor	 dl, -19			; ffffffedH
  00068	88 55 e8	 mov	 BYTE PTR __k$[ebp+4], dl
  0006b	8a 50 05	 mov	 dl, BYTE PTR [eax+5]
  0006e	84 d2		 test	 dl, dl
  00070	0f 84 5c 01 00
	00		 je	 $LN91@LoadInt_e
  00076	32 d1		 xor	 dl, cl
  00078	88 55 e9	 mov	 BYTE PTR __k$[ebp+5], dl
  0007b	8a 50 06	 mov	 dl, BYTE PTR [eax+6]
  0007e	84 d2		 test	 dl, dl
  00080	0f 84 46 01 00
	00		 je	 $LN90@LoadInt_e
  00086	80 f2 eb	 xor	 dl, -21			; ffffffebH
  00089	88 55 ea	 mov	 BYTE PTR __k$[ebp+6], dl
  0008c	8a 50 07	 mov	 dl, BYTE PTR [eax+7]
  0008f	84 d2		 test	 dl, dl
  00091	0f 84 2f 01 00
	00		 je	 $LN89@LoadInt_e
  00097	80 f2 ea	 xor	 dl, -22			; ffffffeaH
  0009a	88 55 eb	 mov	 BYTE PTR __k$[ebp+7], dl
  0009d	8a 50 08	 mov	 dl, BYTE PTR [eax+8]
  000a0	84 d2		 test	 dl, dl
  000a2	0f 84 18 01 00
	00		 je	 $LN88@LoadInt_e
  000a8	80 f2 ed	 xor	 dl, -19			; ffffffedH
  000ab	88 55 ec	 mov	 BYTE PTR __k$[ebp+8], dl
  000ae	8a 50 09	 mov	 dl, BYTE PTR [eax+9]
  000b1	84 d2		 test	 dl, dl
  000b3	0f 84 02 01 00
	00		 je	 $LN87@LoadInt_e
  000b9	32 d1		 xor	 dl, cl
  000bb	88 55 ed	 mov	 BYTE PTR __k$[ebp+9], dl
  000be	8a 50 0a	 mov	 dl, BYTE PTR [eax+10]
  000c1	84 d2		 test	 dl, dl
  000c3	0f 84 ec 00 00
	00		 je	 $LN86@LoadInt_e
  000c9	80 f2 eb	 xor	 dl, -21			; ffffffebH
  000cc	88 55 ee	 mov	 BYTE PTR __k$[ebp+10], dl
  000cf	8a 50 0b	 mov	 dl, BYTE PTR [eax+11]
  000d2	84 d2		 test	 dl, dl
  000d4	0f 84 d5 00 00
	00		 je	 $LN85@LoadInt_e
  000da	80 f2 ea	 xor	 dl, -22			; ffffffeaH
  000dd	88 55 ef	 mov	 BYTE PTR __k$[ebp+11], dl
  000e0	8a 50 0c	 mov	 dl, BYTE PTR [eax+12]
  000e3	84 d2		 test	 dl, dl
  000e5	0f 84 be 00 00
	00		 je	 $LN84@LoadInt_e
  000eb	80 f2 ed	 xor	 dl, -19			; ffffffedH
  000ee	88 55 f0	 mov	 BYTE PTR __k$[ebp+12], dl
  000f1	8a 50 0d	 mov	 dl, BYTE PTR [eax+13]
  000f4	84 d2		 test	 dl, dl
  000f6	0f 84 a8 00 00
	00		 je	 $LN83@LoadInt_e
  000fc	32 d1		 xor	 dl, cl
  000fe	88 55 f1	 mov	 BYTE PTR __k$[ebp+13], dl
  00101	8a 50 0e	 mov	 dl, BYTE PTR [eax+14]
  00104	84 d2		 test	 dl, dl
  00106	0f 84 92 00 00
	00		 je	 $LN82@LoadInt_e
  0010c	80 f2 eb	 xor	 dl, -21			; ffffffebH
  0010f	88 55 f2	 mov	 BYTE PTR __k$[ebp+14], dl
  00112	8a 50 0f	 mov	 dl, BYTE PTR [eax+15]
  00115	84 d2		 test	 dl, dl
  00117	74 7f		 je	 SHORT $LN81@LoadInt_e
  00119	80 f2 ea	 xor	 dl, -22			; ffffffeaH
  0011c	88 55 f3	 mov	 BYTE PTR __k$[ebp+15], dl
  0011f	8a 50 10	 mov	 dl, BYTE PTR [eax+16]
  00122	84 d2		 test	 dl, dl
  00124	74 6c		 je	 SHORT $LN80@LoadInt_e
  00126	80 f2 ed	 xor	 dl, -19			; ffffffedH
  00129	88 55 f4	 mov	 BYTE PTR __k$[ebp+16], dl
  0012c	8a 50 11	 mov	 dl, BYTE PTR [eax+17]
  0012f	84 d2		 test	 dl, dl
  00131	74 5a		 je	 SHORT $LN79@LoadInt_e
  00133	32 d1		 xor	 dl, cl
  00135	80 78 12 00	 cmp	 BYTE PTR [eax+18], 0
  00139	88 55 f5	 mov	 BYTE PTR __k$[ebp+17], dl
  0013c	0f 84 b1 00 00
	00		 je	 $LN1@LoadInt_e
  00142	8a 50 13	 mov	 dl, BYTE PTR [eax+19]
  00145	84 d2		 test	 dl, dl
  00147	74 3e		 je	 SHORT $LN77@LoadInt_e
  00149	80 f2 ea	 xor	 dl, -22			; ffffffeaH
  0014c	88 55 f7	 mov	 BYTE PTR __k$[ebp+19], dl
  0014f	8a 50 14	 mov	 dl, BYTE PTR [eax+20]
  00152	84 d2		 test	 dl, dl
  00154	74 2b		 je	 SHORT $LN76@LoadInt_e
  00156	80 f2 ed	 xor	 dl, -19			; ffffffedH
  00159	88 55 f8	 mov	 BYTE PTR __k$[ebp+20], dl
  0015c	8a 50 15	 mov	 dl, BYTE PTR [eax+21]
  0015f	84 d2		 test	 dl, dl
  00161	74 19		 je	 SHORT $LN75@LoadInt_e
  00163	8a 40 16	 mov	 al, BYTE PTR [eax+22]
  00166	32 d1		 xor	 dl, cl
  00168	88 55 f9	 mov	 BYTE PTR __k$[ebp+21], dl
  0016b	84 c0		 test	 al, al
  0016d	74 07		 je	 SHORT $LN74@LoadInt_e
  0016f	34 eb		 xor	 al, -21			; ffffffebH
  00171	88 45 fa	 mov	 BYTE PTR __k$[ebp+22], al
  00174	eb 7d		 jmp	 SHORT $LN1@LoadInt_e
$LN74@LoadInt_e:
  00176	c6 45 fa eb	 mov	 BYTE PTR __k$[ebp+22], -21 ; ffffffebH
  0017a	eb 77		 jmp	 SHORT $LN1@LoadInt_e
$LN75@LoadInt_e:
  0017c	88 4d f9	 mov	 BYTE PTR __k$[ebp+21], cl
  0017f	eb 72		 jmp	 SHORT $LN1@LoadInt_e
$LN76@LoadInt_e:
  00181	c6 45 f8 ed	 mov	 BYTE PTR __k$[ebp+20], -19 ; ffffffedH
  00185	eb 6c		 jmp	 SHORT $LN1@LoadInt_e
$LN77@LoadInt_e:
  00187	c6 45 f7 ea	 mov	 BYTE PTR __k$[ebp+19], -22 ; ffffffeaH
  0018b	eb 66		 jmp	 SHORT $LN1@LoadInt_e
$LN79@LoadInt_e:
  0018d	88 4d f5	 mov	 BYTE PTR __k$[ebp+17], cl
  00190	eb 61		 jmp	 SHORT $LN1@LoadInt_e
$LN80@LoadInt_e:
  00192	c6 45 f4 ed	 mov	 BYTE PTR __k$[ebp+16], -19 ; ffffffedH
  00196	eb 5b		 jmp	 SHORT $LN1@LoadInt_e
$LN81@LoadInt_e:
  00198	c6 45 f3 ea	 mov	 BYTE PTR __k$[ebp+15], -22 ; ffffffeaH
  0019c	eb 55		 jmp	 SHORT $LN1@LoadInt_e
$LN82@LoadInt_e:
  0019e	c6 45 f2 eb	 mov	 BYTE PTR __k$[ebp+14], -21 ; ffffffebH
  001a2	eb 4f		 jmp	 SHORT $LN1@LoadInt_e
$LN83@LoadInt_e:
  001a4	88 4d f1	 mov	 BYTE PTR __k$[ebp+13], cl
  001a7	eb 4a		 jmp	 SHORT $LN1@LoadInt_e
$LN84@LoadInt_e:
  001a9	c6 45 f0 ed	 mov	 BYTE PTR __k$[ebp+12], -19 ; ffffffedH
  001ad	eb 44		 jmp	 SHORT $LN1@LoadInt_e
$LN85@LoadInt_e:
  001af	c6 45 ef ea	 mov	 BYTE PTR __k$[ebp+11], -22 ; ffffffeaH
  001b3	eb 3e		 jmp	 SHORT $LN1@LoadInt_e
$LN86@LoadInt_e:
  001b5	c6 45 ee eb	 mov	 BYTE PTR __k$[ebp+10], -21 ; ffffffebH
  001b9	eb 38		 jmp	 SHORT $LN1@LoadInt_e
$LN87@LoadInt_e:
  001bb	88 4d ed	 mov	 BYTE PTR __k$[ebp+9], cl
  001be	eb 33		 jmp	 SHORT $LN1@LoadInt_e
$LN88@LoadInt_e:
  001c0	c6 45 ec ed	 mov	 BYTE PTR __k$[ebp+8], -19 ; ffffffedH
  001c4	eb 2d		 jmp	 SHORT $LN1@LoadInt_e
$LN89@LoadInt_e:
  001c6	c6 45 eb ea	 mov	 BYTE PTR __k$[ebp+7], -22 ; ffffffeaH
  001ca	eb 27		 jmp	 SHORT $LN1@LoadInt_e
$LN90@LoadInt_e:
  001cc	c6 45 ea eb	 mov	 BYTE PTR __k$[ebp+6], -21 ; ffffffebH
  001d0	eb 21		 jmp	 SHORT $LN1@LoadInt_e
$LN91@LoadInt_e:
  001d2	88 4d e9	 mov	 BYTE PTR __k$[ebp+5], cl
  001d5	eb 1c		 jmp	 SHORT $LN1@LoadInt_e
$LN92@LoadInt_e:
  001d7	c6 45 e8 ed	 mov	 BYTE PTR __k$[ebp+4], -19 ; ffffffedH
  001db	eb 16		 jmp	 SHORT $LN1@LoadInt_e
$LN93@LoadInt_e:
  001dd	c6 45 e7 ea	 mov	 BYTE PTR __k$[ebp+3], -22 ; ffffffeaH
  001e1	eb 10		 jmp	 SHORT $LN1@LoadInt_e
$LN94@LoadInt_e:
  001e3	c6 45 e6 eb	 mov	 BYTE PTR __k$[ebp+2], -21 ; ffffffebH
  001e7	eb 0a		 jmp	 SHORT $LN1@LoadInt_e
$LN95@LoadInt_e:
  001e9	c6 45 e5 ec	 mov	 BYTE PTR __k$[ebp+1], -20 ; ffffffecH
  001ed	eb 04		 jmp	 SHORT $LN1@LoadInt_e
$LN96@LoadInt_e:
  001ef	c6 45 e4 ed	 mov	 BYTE PTR __k$[ebp], -19	; ffffffedH
$LN1@LoadInt_e:
  001f3	6a 04		 push	 4
  001f5	8d 45 e4	 lea	 eax, DWORD PTR __k$[ebp]
  001f8	c6 45 f6 00	 mov	 BYTE PTR __k$[ebp+18], 0
  001fc	5a		 pop	 edx
$LL104@LoadInt_e:
  001fd	81 30 ed ec eb
	ea		 xor	 DWORD PTR [eax], -353637139 ; eaebecedH
  00203	83 c0 04	 add	 eax, 4
  00206	4a		 dec	 edx
  00207	75 f4		 jne	 SHORT $LL104@LoadInt_e
  00209	6a 10		 push	 16			; 00000010H
  0020b	58		 pop	 eax
$LL101@LoadInt_e:
  0020c	8b c8		 mov	 ecx, eax
  0020e	81 e1 03 00 00
	80		 and	 ecx, -2147483645	; 80000003H
  00214	79 05		 jns	 SHORT $LN111@LoadInt_e
  00216	49		 dec	 ecx
  00217	83 c9 fc	 or	 ecx, -4			; fffffffcH
  0021a	41		 inc	 ecx
$LN111@LoadInt_e:
  0021b	b2 ed		 mov	 dl, -19			; ffffffedH
  0021d	2a d1		 sub	 dl, cl
  0021f	30 54 05 e4	 xor	 BYTE PTR __k$[ebp+eax], dl
  00223	40		 inc	 eax
  00224	83 f8 12	 cmp	 eax, 18			; 00000012H
  00227	7c e3		 jl	 SHORT $LL101@LoadInt_e

; 120  : 		return LoadInt(_k, i);

  00229	ff 75 0c	 push	 DWORD PTR _i$[ebp]
  0022c	8d 45 e4	 lea	 eax, DWORD PTR __k$[ebp]
  0022f	50		 push	 eax
  00230	8b ce		 mov	 ecx, esi
  00232	ff 15 00 00 00
	00		 call	 DWORD PTR __imp_?LoadInt@ioINILoader@@QAEHPBDH@Z

; 121  : 	}

  00238	8b 4d fc	 mov	 ecx, DWORD PTR __$ArrayPad$[ebp]
  0023b	33 cd		 xor	 ecx, ebp
  0023d	5e		 pop	 esi
  0023e	e8 00 00 00 00	 call	 @__security_check_cookie@4
  00243	c9		 leave
  00244	c2 08 00	 ret	 8
??$LoadInt_e@$0BD@@ioINILoader@@QAEHAAY0BD@$$CBDH@Z ENDP ; ioINILoader::LoadInt_e<19>
_TEXT	ENDS
PUBLIC	__$ArrayPad$
PUBLIC	??$LoadFloat_e@$0BB@@ioINILoader@@QAEMAAY0BB@$$CBDM@Z ; ioINILoader::LoadFloat_e<17>
EXTRN	__imp_?LoadFloat@ioINILoader@@QAEMPBDM@Z:PROC
; Function compile flags: /Ogsp
;	COMDAT ??$LoadFloat_e@$0BB@@ioINILoader@@QAEMAAY0BB@$$CBDM@Z
_TEXT	SEGMENT
__k$ = -28						; size = 17
__$ArrayPad$ = -4					; size = 4
_k$ = 8							; size = 4
_f$ = 12						; size = 4
??$LoadFloat_e@$0BB@@ioINILoader@@QAEMAAY0BB@$$CBDM@Z PROC ; ioINILoader::LoadFloat_e<17>, COMDAT
; _this$ = ecx

; 135  : 	{

  00000	55		 push	 ebp
  00001	8b ec		 mov	 ebp, esp
  00003	83 ec 1c	 sub	 esp, 28			; 0000001cH
  00006	a1 00 00 00 00	 mov	 eax, DWORD PTR ___security_cookie
  0000b	33 c5		 xor	 eax, ebp
  0000d	89 45 fc	 mov	 DWORD PTR __$ArrayPad$[ebp], eax
  00010	8b 45 08	 mov	 eax, DWORD PTR _k$[ebp]

; 136  : 		_ENCSTR(k, _k);

  00013	8a 10		 mov	 dl, BYTE PTR [eax]
  00015	56		 push	 esi
  00016	8b f1		 mov	 esi, ecx
  00018	84 d2		 test	 dl, dl
  0001a	0f 84 a7 01 00
	00		 je	 $LN96@LoadFloat_
  00020	80 f2 ed	 xor	 dl, -19			; ffffffedH
  00023	88 55 e4	 mov	 BYTE PTR __k$[ebp], dl
  00026	8a 50 01	 mov	 dl, BYTE PTR [eax+1]
  00029	84 d2		 test	 dl, dl
  0002b	0f 84 90 01 00
	00		 je	 $LN95@LoadFloat_
  00031	b1 ec		 mov	 cl, -20			; ffffffecH
  00033	32 d1		 xor	 dl, cl
  00035	88 55 e5	 mov	 BYTE PTR __k$[ebp+1], dl
  00038	8a 50 02	 mov	 dl, BYTE PTR [eax+2]
  0003b	84 d2		 test	 dl, dl
  0003d	0f 84 78 01 00
	00		 je	 $LN94@LoadFloat_
  00043	80 f2 eb	 xor	 dl, -21			; ffffffebH
  00046	88 55 e6	 mov	 BYTE PTR __k$[ebp+2], dl
  00049	8a 50 03	 mov	 dl, BYTE PTR [eax+3]
  0004c	84 d2		 test	 dl, dl
  0004e	0f 84 61 01 00
	00		 je	 $LN93@LoadFloat_
  00054	80 f2 ea	 xor	 dl, -22			; ffffffeaH
  00057	88 55 e7	 mov	 BYTE PTR __k$[ebp+3], dl
  0005a	8a 50 04	 mov	 dl, BYTE PTR [eax+4]
  0005d	84 d2		 test	 dl, dl
  0005f	0f 84 4a 01 00
	00		 je	 $LN92@LoadFloat_
  00065	80 f2 ed	 xor	 dl, -19			; ffffffedH
  00068	88 55 e8	 mov	 BYTE PTR __k$[ebp+4], dl
  0006b	8a 50 05	 mov	 dl, BYTE PTR [eax+5]
  0006e	84 d2		 test	 dl, dl
  00070	0f 84 34 01 00
	00		 je	 $LN91@LoadFloat_
  00076	32 d1		 xor	 dl, cl
  00078	88 55 e9	 mov	 BYTE PTR __k$[ebp+5], dl
  0007b	8a 50 06	 mov	 dl, BYTE PTR [eax+6]
  0007e	84 d2		 test	 dl, dl
  00080	0f 84 1e 01 00
	00		 je	 $LN90@LoadFloat_
  00086	80 f2 eb	 xor	 dl, -21			; ffffffebH
  00089	88 55 ea	 mov	 BYTE PTR __k$[ebp+6], dl
  0008c	8a 50 07	 mov	 dl, BYTE PTR [eax+7]
  0008f	84 d2		 test	 dl, dl
  00091	0f 84 07 01 00
	00		 je	 $LN89@LoadFloat_
  00097	80 f2 ea	 xor	 dl, -22			; ffffffeaH
  0009a	88 55 eb	 mov	 BYTE PTR __k$[ebp+7], dl
  0009d	8a 50 08	 mov	 dl, BYTE PTR [eax+8]
  000a0	84 d2		 test	 dl, dl
  000a2	0f 84 f0 00 00
	00		 je	 $LN88@LoadFloat_
  000a8	80 f2 ed	 xor	 dl, -19			; ffffffedH
  000ab	88 55 ec	 mov	 BYTE PTR __k$[ebp+8], dl
  000ae	8a 50 09	 mov	 dl, BYTE PTR [eax+9]
  000b1	84 d2		 test	 dl, dl
  000b3	0f 84 da 00 00
	00		 je	 $LN87@LoadFloat_
  000b9	32 d1		 xor	 dl, cl
  000bb	88 55 ed	 mov	 BYTE PTR __k$[ebp+9], dl
  000be	8a 50 0a	 mov	 dl, BYTE PTR [eax+10]
  000c1	84 d2		 test	 dl, dl
  000c3	0f 84 c4 00 00
	00		 je	 $LN86@LoadFloat_
  000c9	80 f2 eb	 xor	 dl, -21			; ffffffebH
  000cc	88 55 ee	 mov	 BYTE PTR __k$[ebp+10], dl
  000cf	8a 50 0b	 mov	 dl, BYTE PTR [eax+11]
  000d2	84 d2		 test	 dl, dl
  000d4	0f 84 ad 00 00
	00		 je	 $LN85@LoadFloat_
  000da	80 f2 ea	 xor	 dl, -22			; ffffffeaH
  000dd	88 55 ef	 mov	 BYTE PTR __k$[ebp+11], dl
  000e0	8a 50 0c	 mov	 dl, BYTE PTR [eax+12]
  000e3	84 d2		 test	 dl, dl
  000e5	0f 84 96 00 00
	00		 je	 $LN84@LoadFloat_
  000eb	80 f2 ed	 xor	 dl, -19			; ffffffedH
  000ee	88 55 f0	 mov	 BYTE PTR __k$[ebp+12], dl
  000f1	8a 50 0d	 mov	 dl, BYTE PTR [eax+13]
  000f4	84 d2		 test	 dl, dl
  000f6	0f 84 80 00 00
	00		 je	 $LN83@LoadFloat_
  000fc	32 d1		 xor	 dl, cl
  000fe	88 55 f1	 mov	 BYTE PTR __k$[ebp+13], dl
  00101	8a 50 0e	 mov	 dl, BYTE PTR [eax+14]
  00104	84 d2		 test	 dl, dl
  00106	74 6e		 je	 SHORT $LN82@LoadFloat_
  00108	80 f2 eb	 xor	 dl, -21			; ffffffebH
  0010b	88 55 f2	 mov	 BYTE PTR __k$[ebp+14], dl
  0010e	8a 50 0f	 mov	 dl, BYTE PTR [eax+15]
  00111	84 d2		 test	 dl, dl
  00113	74 5b		 je	 SHORT $LN81@LoadFloat_
  00115	80 f2 ea	 xor	 dl, -22			; ffffffeaH
  00118	80 78 10 00	 cmp	 BYTE PTR [eax+16], 0
  0011c	88 55 f3	 mov	 BYTE PTR __k$[ebp+15], dl
  0011f	0f 84 a6 00 00
	00		 je	 $LN1@LoadFloat_
  00125	8a 50 11	 mov	 dl, BYTE PTR [eax+17]
  00128	84 d2		 test	 dl, dl
  0012a	74 3f		 je	 SHORT $LN79@LoadFloat_
  0012c	32 d1		 xor	 dl, cl
  0012e	88 55 f5	 mov	 BYTE PTR __k$[ebp+17], dl
  00131	8a 50 12	 mov	 dl, BYTE PTR [eax+18]
  00134	84 d2		 test	 dl, dl
  00136	74 2d		 je	 SHORT $LN78@LoadFloat_
  00138	80 f2 eb	 xor	 dl, -21			; ffffffebH
  0013b	88 55 f6	 mov	 BYTE PTR __k$[ebp+18], dl
  0013e	8a 50 13	 mov	 dl, BYTE PTR [eax+19]
  00141	84 d2		 test	 dl, dl
  00143	74 1a		 je	 SHORT $LN77@LoadFloat_
  00145	8a 40 14	 mov	 al, BYTE PTR [eax+20]
  00148	80 f2 ea	 xor	 dl, -22			; ffffffeaH
  0014b	88 55 f7	 mov	 BYTE PTR __k$[ebp+19], dl
  0014e	84 c0		 test	 al, al
  00150	74 07		 je	 SHORT $LN76@LoadFloat_
  00152	34 ed		 xor	 al, -19			; ffffffedH
  00154	88 45 f8	 mov	 BYTE PTR __k$[ebp+20], al
  00157	eb 72		 jmp	 SHORT $LN1@LoadFloat_
$LN76@LoadFloat_:
  00159	c6 45 f8 ed	 mov	 BYTE PTR __k$[ebp+20], -19 ; ffffffedH
  0015d	eb 6c		 jmp	 SHORT $LN1@LoadFloat_
$LN77@LoadFloat_:
  0015f	c6 45 f7 ea	 mov	 BYTE PTR __k$[ebp+19], -22 ; ffffffeaH
  00163	eb 66		 jmp	 SHORT $LN1@LoadFloat_
$LN78@LoadFloat_:
  00165	c6 45 f6 eb	 mov	 BYTE PTR __k$[ebp+18], -21 ; ffffffebH
  00169	eb 60		 jmp	 SHORT $LN1@LoadFloat_
$LN79@LoadFloat_:
  0016b	88 4d f5	 mov	 BYTE PTR __k$[ebp+17], cl
  0016e	eb 5b		 jmp	 SHORT $LN1@LoadFloat_
$LN81@LoadFloat_:
  00170	c6 45 f3 ea	 mov	 BYTE PTR __k$[ebp+15], -22 ; ffffffeaH
  00174	eb 55		 jmp	 SHORT $LN1@LoadFloat_
$LN82@LoadFloat_:
  00176	c6 45 f2 eb	 mov	 BYTE PTR __k$[ebp+14], -21 ; ffffffebH
  0017a	eb 4f		 jmp	 SHORT $LN1@LoadFloat_
$LN83@LoadFloat_:
  0017c	88 4d f1	 mov	 BYTE PTR __k$[ebp+13], cl
  0017f	eb 4a		 jmp	 SHORT $LN1@LoadFloat_
$LN84@LoadFloat_:
  00181	c6 45 f0 ed	 mov	 BYTE PTR __k$[ebp+12], -19 ; ffffffedH
  00185	eb 44		 jmp	 SHORT $LN1@LoadFloat_
$LN85@LoadFloat_:
  00187	c6 45 ef ea	 mov	 BYTE PTR __k$[ebp+11], -22 ; ffffffeaH
  0018b	eb 3e		 jmp	 SHORT $LN1@LoadFloat_
$LN86@LoadFloat_:
  0018d	c6 45 ee eb	 mov	 BYTE PTR __k$[ebp+10], -21 ; ffffffebH
  00191	eb 38		 jmp	 SHORT $LN1@LoadFloat_
$LN87@LoadFloat_:
  00193	88 4d ed	 mov	 BYTE PTR __k$[ebp+9], cl
  00196	eb 33		 jmp	 SHORT $LN1@LoadFloat_
$LN88@LoadFloat_:
  00198	c6 45 ec ed	 mov	 BYTE PTR __k$[ebp+8], -19 ; ffffffedH
  0019c	eb 2d		 jmp	 SHORT $LN1@LoadFloat_
$LN89@LoadFloat_:
  0019e	c6 45 eb ea	 mov	 BYTE PTR __k$[ebp+7], -22 ; ffffffeaH
  001a2	eb 27		 jmp	 SHORT $LN1@LoadFloat_
$LN90@LoadFloat_:
  001a4	c6 45 ea eb	 mov	 BYTE PTR __k$[ebp+6], -21 ; ffffffebH
  001a8	eb 21		 jmp	 SHORT $LN1@LoadFloat_
$LN91@LoadFloat_:
  001aa	88 4d e9	 mov	 BYTE PTR __k$[ebp+5], cl
  001ad	eb 1c		 jmp	 SHORT $LN1@LoadFloat_
$LN92@LoadFloat_:
  001af	c6 45 e8 ed	 mov	 BYTE PTR __k$[ebp+4], -19 ; ffffffedH
  001b3	eb 16		 jmp	 SHORT $LN1@LoadFloat_
$LN93@LoadFloat_:
  001b5	c6 45 e7 ea	 mov	 BYTE PTR __k$[ebp+3], -22 ; ffffffeaH
  001b9	eb 10		 jmp	 SHORT $LN1@LoadFloat_
$LN94@LoadFloat_:
  001bb	c6 45 e6 eb	 mov	 BYTE PTR __k$[ebp+2], -21 ; ffffffebH
  001bf	eb 0a		 jmp	 SHORT $LN1@LoadFloat_
$LN95@LoadFloat_:
  001c1	c6 45 e5 ec	 mov	 BYTE PTR __k$[ebp+1], -20 ; ffffffecH
  001c5	eb 04		 jmp	 SHORT $LN1@LoadFloat_
$LN96@LoadFloat_:
  001c7	c6 45 e4 ed	 mov	 BYTE PTR __k$[ebp], -19	; ffffffedH
$LN1@LoadFloat_:
  001cb	6a 04		 push	 4
  001cd	8d 45 e4	 lea	 eax, DWORD PTR __k$[ebp]
  001d0	c6 45 f4 00	 mov	 BYTE PTR __k$[ebp+16], 0
  001d4	5a		 pop	 edx
$LL104@LoadFloat_:
  001d5	81 30 ed ec eb
	ea		 xor	 DWORD PTR [eax], -353637139 ; eaebecedH
  001db	83 c0 04	 add	 eax, 4
  001de	4a		 dec	 edx
  001df	75 f4		 jne	 SHORT $LL104@LoadFloat_

; 137  : 		return LoadFloat(_k, f);

  001e1	f3 0f 10 45 0c	 movss	 xmm0, DWORD PTR _f$[ebp]
  001e6	51		 push	 ecx
  001e7	8d 45 e4	 lea	 eax, DWORD PTR __k$[ebp]
  001ea	f3 0f 11 04 24	 movss	 DWORD PTR [esp], xmm0
  001ef	50		 push	 eax
  001f0	8b ce		 mov	 ecx, esi
  001f2	ff 15 00 00 00
	00		 call	 DWORD PTR __imp_?LoadFloat@ioINILoader@@QAEMPBDM@Z

; 138  : 	}

  001f8	8b 4d fc	 mov	 ecx, DWORD PTR __$ArrayPad$[ebp]
  001fb	33 cd		 xor	 ecx, ebp
  001fd	5e		 pop	 esi
  001fe	e8 00 00 00 00	 call	 @__security_check_cookie@4
  00203	c9		 leave
  00204	c2 08 00	 ret	 8
??$LoadFloat_e@$0BB@@ioINILoader@@QAEMAAY0BB@$$CBDM@Z ENDP ; ioINILoader::LoadFloat_e<17>
_TEXT	ENDS
PUBLIC	__$ArrayPad$
PUBLIC	??$LoadInt_e@$0O@@ioINILoader@@QAEHAAY0O@$$CBDH@Z ; ioINILoader::LoadInt_e<14>
; Function compile flags: /Ogsp
;	COMDAT ??$LoadInt_e@$0O@@ioINILoader@@QAEHAAY0O@$$CBDH@Z
_TEXT	SEGMENT
__k$ = -24						; size = 14
__$ArrayPad$ = -4					; size = 4
_k$ = 8							; size = 4
_i$ = 12						; size = 4
??$LoadInt_e@$0O@@ioINILoader@@QAEHAAY0O@$$CBDH@Z PROC	; ioINILoader::LoadInt_e<14>, COMDAT
; _this$ = ecx

; 118  : 	{

  00000	55		 push	 ebp
  00001	8b ec		 mov	 ebp, esp
  00003	83 ec 18	 sub	 esp, 24			; 00000018H
  00006	a1 00 00 00 00	 mov	 eax, DWORD PTR ___security_cookie
  0000b	33 c5		 xor	 eax, ebp
  0000d	89 45 fc	 mov	 DWORD PTR __$ArrayPad$[ebp], eax
  00010	8b 45 08	 mov	 eax, DWORD PTR _k$[ebp]

; 119  : 		_ENCSTR(k, _k);

  00013	8a 10		 mov	 dl, BYTE PTR [eax]
  00015	56		 push	 esi
  00016	8b f1		 mov	 esi, ecx
  00018	84 d2		 test	 dl, dl
  0001a	0f 84 64 01 00
	00		 je	 $LN96@LoadInt_e@2
  00020	80 f2 ed	 xor	 dl, -19			; ffffffedH
  00023	88 55 e8	 mov	 BYTE PTR __k$[ebp], dl
  00026	8a 50 01	 mov	 dl, BYTE PTR [eax+1]
  00029	84 d2		 test	 dl, dl
  0002b	0f 84 4d 01 00
	00		 je	 $LN95@LoadInt_e@2
  00031	80 f2 ec	 xor	 dl, -20			; ffffffecH
  00034	88 55 e9	 mov	 BYTE PTR __k$[ebp+1], dl
  00037	8a 50 02	 mov	 dl, BYTE PTR [eax+2]
  0003a	84 d2		 test	 dl, dl
  0003c	0f 84 36 01 00
	00		 je	 $LN94@LoadInt_e@2
  00042	b1 eb		 mov	 cl, -21			; ffffffebH
  00044	32 d1		 xor	 dl, cl
  00046	88 55 ea	 mov	 BYTE PTR __k$[ebp+2], dl
  00049	8a 50 03	 mov	 dl, BYTE PTR [eax+3]
  0004c	84 d2		 test	 dl, dl
  0004e	0f 84 1e 01 00
	00		 je	 $LN93@LoadInt_e@2
  00054	80 f2 ea	 xor	 dl, -22			; ffffffeaH
  00057	88 55 eb	 mov	 BYTE PTR __k$[ebp+3], dl
  0005a	8a 50 04	 mov	 dl, BYTE PTR [eax+4]
  0005d	84 d2		 test	 dl, dl
  0005f	0f 84 07 01 00
	00		 je	 $LN92@LoadInt_e@2
  00065	80 f2 ed	 xor	 dl, -19			; ffffffedH
  00068	88 55 ec	 mov	 BYTE PTR __k$[ebp+4], dl
  0006b	8a 50 05	 mov	 dl, BYTE PTR [eax+5]
  0006e	84 d2		 test	 dl, dl
  00070	0f 84 f0 00 00
	00		 je	 $LN91@LoadInt_e@2
  00076	80 f2 ec	 xor	 dl, -20			; ffffffecH
  00079	88 55 ed	 mov	 BYTE PTR __k$[ebp+5], dl
  0007c	8a 50 06	 mov	 dl, BYTE PTR [eax+6]
  0007f	84 d2		 test	 dl, dl
  00081	0f 84 da 00 00
	00		 je	 $LN90@LoadInt_e@2
  00087	32 d1		 xor	 dl, cl
  00089	88 55 ee	 mov	 BYTE PTR __k$[ebp+6], dl
  0008c	8a 50 07	 mov	 dl, BYTE PTR [eax+7]
  0008f	84 d2		 test	 dl, dl
  00091	0f 84 c4 00 00
	00		 je	 $LN89@LoadInt_e@2
  00097	80 f2 ea	 xor	 dl, -22			; ffffffeaH
  0009a	88 55 ef	 mov	 BYTE PTR __k$[ebp+7], dl
  0009d	8a 50 08	 mov	 dl, BYTE PTR [eax+8]
  000a0	84 d2		 test	 dl, dl
  000a2	0f 84 ad 00 00
	00		 je	 $LN88@LoadInt_e@2
  000a8	80 f2 ed	 xor	 dl, -19			; ffffffedH
  000ab	88 55 f0	 mov	 BYTE PTR __k$[ebp+8], dl
  000ae	8a 50 09	 mov	 dl, BYTE PTR [eax+9]
  000b1	84 d2		 test	 dl, dl
  000b3	0f 84 96 00 00
	00		 je	 $LN87@LoadInt_e@2
  000b9	80 f2 ec	 xor	 dl, -20			; ffffffecH
  000bc	88 55 f1	 mov	 BYTE PTR __k$[ebp+9], dl
  000bf	8a 50 0a	 mov	 dl, BYTE PTR [eax+10]
  000c2	84 d2		 test	 dl, dl
  000c4	0f 84 80 00 00
	00		 je	 $LN86@LoadInt_e@2
  000ca	32 d1		 xor	 dl, cl
  000cc	88 55 f2	 mov	 BYTE PTR __k$[ebp+10], dl
  000cf	8a 50 0b	 mov	 dl, BYTE PTR [eax+11]
  000d2	84 d2		 test	 dl, dl
  000d4	74 6e		 je	 SHORT $LN85@LoadInt_e@2
  000d6	80 f2 ea	 xor	 dl, -22			; ffffffeaH
  000d9	88 55 f3	 mov	 BYTE PTR __k$[ebp+11], dl
  000dc	8a 50 0c	 mov	 dl, BYTE PTR [eax+12]
  000df	84 d2		 test	 dl, dl
  000e1	74 5b		 je	 SHORT $LN84@LoadInt_e@2
  000e3	80 f2 ed	 xor	 dl, -19			; ffffffedH
  000e6	80 78 0d 00	 cmp	 BYTE PTR [eax+13], 0
  000ea	88 55 f4	 mov	 BYTE PTR __k$[ebp+12], dl
  000ed	0f 84 95 00 00
	00		 je	 $LN1@LoadInt_e@2
  000f3	8a 50 0e	 mov	 dl, BYTE PTR [eax+14]
  000f6	84 d2		 test	 dl, dl
  000f8	74 3f		 je	 SHORT $LN82@LoadInt_e@2
  000fa	32 d1		 xor	 dl, cl
  000fc	88 55 f6	 mov	 BYTE PTR __k$[ebp+14], dl
  000ff	8a 50 0f	 mov	 dl, BYTE PTR [eax+15]
  00102	84 d2		 test	 dl, dl
  00104	74 2d		 je	 SHORT $LN81@LoadInt_e@2
  00106	80 f2 ea	 xor	 dl, -22			; ffffffeaH
  00109	88 55 f7	 mov	 BYTE PTR __k$[ebp+15], dl
  0010c	8a 50 10	 mov	 dl, BYTE PTR [eax+16]
  0010f	84 d2		 test	 dl, dl
  00111	74 1a		 je	 SHORT $LN80@LoadInt_e@2
  00113	8a 40 11	 mov	 al, BYTE PTR [eax+17]
  00116	80 f2 ed	 xor	 dl, -19			; ffffffedH
  00119	88 55 f8	 mov	 BYTE PTR __k$[ebp+16], dl
  0011c	84 c0		 test	 al, al
  0011e	74 07		 je	 SHORT $LN79@LoadInt_e@2
  00120	34 ec		 xor	 al, -20			; ffffffecH
  00122	88 45 f9	 mov	 BYTE PTR __k$[ebp+17], al
  00125	eb 61		 jmp	 SHORT $LN1@LoadInt_e@2
$LN79@LoadInt_e@2:
  00127	c6 45 f9 ec	 mov	 BYTE PTR __k$[ebp+17], -20 ; ffffffecH
  0012b	eb 5b		 jmp	 SHORT $LN1@LoadInt_e@2
$LN80@LoadInt_e@2:
  0012d	c6 45 f8 ed	 mov	 BYTE PTR __k$[ebp+16], -19 ; ffffffedH
  00131	eb 55		 jmp	 SHORT $LN1@LoadInt_e@2
$LN81@LoadInt_e@2:
  00133	c6 45 f7 ea	 mov	 BYTE PTR __k$[ebp+15], -22 ; ffffffeaH
  00137	eb 4f		 jmp	 SHORT $LN1@LoadInt_e@2
$LN82@LoadInt_e@2:
  00139	88 4d f6	 mov	 BYTE PTR __k$[ebp+14], cl
  0013c	eb 4a		 jmp	 SHORT $LN1@LoadInt_e@2
$LN84@LoadInt_e@2:
  0013e	c6 45 f4 ed	 mov	 BYTE PTR __k$[ebp+12], -19 ; ffffffedH
  00142	eb 44		 jmp	 SHORT $LN1@LoadInt_e@2
$LN85@LoadInt_e@2:
  00144	c6 45 f3 ea	 mov	 BYTE PTR __k$[ebp+11], -22 ; ffffffeaH
  00148	eb 3e		 jmp	 SHORT $LN1@LoadInt_e@2
$LN86@LoadInt_e@2:
  0014a	88 4d f2	 mov	 BYTE PTR __k$[ebp+10], cl
  0014d	eb 39		 jmp	 SHORT $LN1@LoadInt_e@2
$LN87@LoadInt_e@2:
  0014f	c6 45 f1 ec	 mov	 BYTE PTR __k$[ebp+9], -20 ; ffffffecH
  00153	eb 33		 jmp	 SHORT $LN1@LoadInt_e@2
$LN88@LoadInt_e@2:
  00155	c6 45 f0 ed	 mov	 BYTE PTR __k$[ebp+8], -19 ; ffffffedH
  00159	eb 2d		 jmp	 SHORT $LN1@LoadInt_e@2
$LN89@LoadInt_e@2:
  0015b	c6 45 ef ea	 mov	 BYTE PTR __k$[ebp+7], -22 ; ffffffeaH
  0015f	eb 27		 jmp	 SHORT $LN1@LoadInt_e@2
$LN90@LoadInt_e@2:
  00161	88 4d ee	 mov	 BYTE PTR __k$[ebp+6], cl
  00164	eb 22		 jmp	 SHORT $LN1@LoadInt_e@2
$LN91@LoadInt_e@2:
  00166	c6 45 ed ec	 mov	 BYTE PTR __k$[ebp+5], -20 ; ffffffecH
  0016a	eb 1c		 jmp	 SHORT $LN1@LoadInt_e@2
$LN92@LoadInt_e@2:
  0016c	c6 45 ec ed	 mov	 BYTE PTR __k$[ebp+4], -19 ; ffffffedH
  00170	eb 16		 jmp	 SHORT $LN1@LoadInt_e@2
$LN93@LoadInt_e@2:
  00172	c6 45 eb ea	 mov	 BYTE PTR __k$[ebp+3], -22 ; ffffffeaH
  00176	eb 10		 jmp	 SHORT $LN1@LoadInt_e@2
$LN94@LoadInt_e@2:
  00178	c6 45 ea eb	 mov	 BYTE PTR __k$[ebp+2], -21 ; ffffffebH
  0017c	eb 0a		 jmp	 SHORT $LN1@LoadInt_e@2
$LN95@LoadInt_e@2:
  0017e	c6 45 e9 ec	 mov	 BYTE PTR __k$[ebp+1], -20 ; ffffffecH
  00182	eb 04		 jmp	 SHORT $LN1@LoadInt_e@2
$LN96@LoadInt_e@2:
  00184	c6 45 e8 ed	 mov	 BYTE PTR __k$[ebp], -19	; ffffffedH
$LN1@LoadInt_e@2:
  00188	6a 03		 push	 3
  0018a	8d 45 e8	 lea	 eax, DWORD PTR __k$[ebp]
  0018d	c6 45 f5 00	 mov	 BYTE PTR __k$[ebp+13], 0
  00191	5a		 pop	 edx
$LL104@LoadInt_e@2:
  00192	81 30 ed ec eb
	ea		 xor	 DWORD PTR [eax], -353637139 ; eaebecedH
  00198	83 c0 04	 add	 eax, 4
  0019b	4a		 dec	 edx
  0019c	75 f4		 jne	 SHORT $LL104@LoadInt_e@2

; 120  : 		return LoadInt(_k, i);

  0019e	ff 75 0c	 push	 DWORD PTR _i$[ebp]
  001a1	80 75 f4 ed	 xor	 BYTE PTR __k$[ebp+12], -19 ; ffffffedH
  001a5	8d 45 e8	 lea	 eax, DWORD PTR __k$[ebp]
  001a8	50		 push	 eax
  001a9	8b ce		 mov	 ecx, esi
  001ab	ff 15 00 00 00
	00		 call	 DWORD PTR __imp_?LoadInt@ioINILoader@@QAEHPBDH@Z

; 121  : 	}

  001b1	8b 4d fc	 mov	 ecx, DWORD PTR __$ArrayPad$[ebp]
  001b4	33 cd		 xor	 ecx, ebp
  001b6	5e		 pop	 esi
  001b7	e8 00 00 00 00	 call	 @__security_check_cookie@4
  001bc	c9		 leave
  001bd	c2 08 00	 ret	 8
??$LoadInt_e@$0O@@ioINILoader@@QAEHAAY0O@$$CBDH@Z ENDP	; ioINILoader::LoadInt_e<14>
_TEXT	ENDS
PUBLIC	??B?$CEncrypt@K@@QBEKXZ				; CEncrypt<unsigned long>::operator unsigned long
; Function compile flags: /Ogsp
; File d:\lost saga for developer\youtube\tutorial\source\src\lsclient\encryptvalue.h
;	COMDAT ??B?$CEncrypt@K@@QBEKXZ
_TEXT	SEGMENT
_value$ = -4						; size = 4
??B?$CEncrypt@K@@QBEKXZ PROC				; CEncrypt<unsigned long>::operator unsigned long, COMDAT
; _this$ = ecx

; 145  : 	{

  00000	55		 push	 ebp
  00001	8b ec		 mov	 ebp, esp
  00003	51		 push	 ecx

; 146  : 		//UJ 130829, const도 똑같이 하면 된다 --start
; 147  : 		type value;
; 148  : 		CEncrypt<type>* pThis = const_cast<CEncrypt<type>*>(this);
; 149  : 		pThis->DecryptValueToPool(&value);

  00004	8d 45 fc	 lea	 eax, DWORD PTR _value$[ebp]
  00007	50		 push	 eax
  00008	e8 00 00 00 00	 call	 ?DecryptValueToPool@?$CEncrypt@K@@QAEXPAK@Z ; CEncrypt<unsigned long>::DecryptValueToPool

; 150  : 		//// const에서 DecryptValueToPool 사용할 수 없으므로 아래와 같이함.
; 151  :  		//type value;
; 152  : 		//char szTempMem[MAX_ENCRYPT];
; 153  : 		//m_RC5.DecryptByte( m_MemPool, szTempMem, max(m_ValueSize, DEFAULT_ENCRYPT) );
; 154  : 		//memcpy( &value, szTempMem, m_ValueSize );
; 155  : 		//UJ --end
; 156  : 
; 157  : #ifdef _NOTUSE
; 158  : 		Debug();
; 159  : #endif
; 160  : 		return value;

  0000d	8b 45 fc	 mov	 eax, DWORD PTR _value$[ebp]

; 161  : 	}

  00010	c9		 leave
  00011	c3		 ret	 0
??B?$CEncrypt@K@@QBEKXZ ENDP				; CEncrypt<unsigned long>::operator unsigned long
_TEXT	ENDS
PUBLIC	??B?$CEncrypt@_N@@QBE_NXZ			; CEncrypt<bool>::operator bool
; Function compile flags: /Ogsp
;	COMDAT ??B?$CEncrypt@_N@@QBE_NXZ
_TEXT	SEGMENT
_value$ = -1						; size = 1
??B?$CEncrypt@_N@@QBE_NXZ PROC				; CEncrypt<bool>::operator bool, COMDAT
; _this$ = ecx

; 145  : 	{

  00000	55		 push	 ebp
  00001	8b ec		 mov	 ebp, esp
  00003	51		 push	 ecx

; 146  : 		//UJ 130829, const도 똑같이 하면 된다 --start
; 147  : 		type value;
; 148  : 		CEncrypt<type>* pThis = const_cast<CEncrypt<type>*>(this);
; 149  : 		pThis->DecryptValueToPool(&value);

  00004	8d 45 ff	 lea	 eax, DWORD PTR _value$[ebp]
  00007	50		 push	 eax
  00008	e8 00 00 00 00	 call	 ?DecryptValueToPool@?$CEncrypt@_N@@QAEXPA_N@Z ; CEncrypt<bool>::DecryptValueToPool

; 150  : 		//// const에서 DecryptValueToPool 사용할 수 없으므로 아래와 같이함.
; 151  :  		//type value;
; 152  : 		//char szTempMem[MAX_ENCRYPT];
; 153  : 		//m_RC5.DecryptByte( m_MemPool, szTempMem, max(m_ValueSize, DEFAULT_ENCRYPT) );
; 154  : 		//memcpy( &value, szTempMem, m_ValueSize );
; 155  : 		//UJ --end
; 156  : 
; 157  : #ifdef _NOTUSE
; 158  : 		Debug();
; 159  : #endif
; 160  : 		return value;

  0000d	8a 45 ff	 mov	 al, BYTE PTR _value$[ebp]

; 161  : 	}

  00010	c9		 leave
  00011	c3		 ret	 0
??B?$CEncrypt@_N@@QBE_NXZ ENDP				; CEncrypt<bool>::operator bool
_TEXT	ENDS
PUBLIC	__real@44bb8000
PUBLIC	__$ArrayPad$
EXTRN	?LoadProperty@ioAttackSkill@@UAEXAAVioINILoader@@@Z:PROC ; ioAttackSkill::LoadProperty
;	COMDAT __real@44bb8000
; File d:\lost saga for developer\youtube\tutorial\source\src\lsclient\stringprotect.h
CONST	SEGMENT
__real@44bb8000 DD 044bb8000r			; 1500
; Function compile flags: /Ogsp
; File d:\lost saga for developer\youtube\tutorial\source\src\lsclient\iojumpfireskill.cpp
CONST	ENDS
;	COMDAT ?LoadProperty@ioJumpFireSkill@@UAEXAAVioINILoader@@@Z
_TEXT	SEGMENT
__k$549941 = -28					; size = 17
__k$549803 = -28					; size = 19
__k$550066 = -24					; size = 14
__$ArrayPad$ = -4					; size = 4
_rkLoader$ = 8						; size = 4
?LoadProperty@ioJumpFireSkill@@UAEXAAVioINILoader@@@Z PROC ; ioJumpFireSkill::LoadProperty, COMDAT
; _this$ = ecx

; 31   : {

  00000	55		 push	 ebp
  00001	8b ec		 mov	 ebp, esp
  00003	83 ec 1c	 sub	 esp, 28			; 0000001cH
  00006	a1 00 00 00 00	 mov	 eax, DWORD PTR ___security_cookie
  0000b	33 c5		 xor	 eax, ebp
  0000d	89 45 fc	 mov	 DWORD PTR __$ArrayPad$[ebp], eax
  00010	53		 push	 ebx
  00011	56		 push	 esi
  00012	57		 push	 edi
  00013	8b 7d 08	 mov	 edi, DWORD PTR _rkLoader$[ebp]

; 32   : 	ioAttackSkill::LoadProperty( rkLoader );

  00016	57		 push	 edi
  00017	8b f1		 mov	 esi, ecx
  00019	e8 00 00 00 00	 call	 ?LoadProperty@ioAttackSkill@@UAEXAAVioINILoader@@@Z ; ioAttackSkill::LoadProperty

; 33   : 
; 34   : 	m_dwSkillProtectTime	= rkLoader.LoadInt_e( "skill_protect_time", 0 );

  0001e	6a 04		 push	 4
  00020	c7 45 e4 9e 87
	82 86		 mov	 DWORD PTR __k$549803[ebp], -2038265954 ; 8682879eH
  00027	c7 45 e8 81 b3
	9b 98		 mov	 DWORD PTR __k$549803[ebp+4], -1734626431 ; 989bb381H
  0002e	c7 45 ec 82 98
	8e 89		 mov	 DWORD PTR __k$549803[ebp+8], -1987143550 ; 898e9882H
  00035	c7 45 f0 99 b3
	9f 83		 mov	 DWORD PTR __k$549803[ebp+12], -2086685799 ; 839fb399H
  0003c	66 c7 45 f4 80
	89		 mov	 WORD PTR __k$549803[ebp+16], 35200 ; 00008980H
  00042	8d 45 e4	 lea	 eax, DWORD PTR __k$549803[ebp]
  00045	c6 45 f6 00	 mov	 BYTE PTR __k$549803[ebp+18], 0
  00049	59		 pop	 ecx
$LL106@LoadProper:
  0004a	81 30 ed ec eb
	ea		 xor	 DWORD PTR [eax], -353637139 ; eaebecedH
  00050	83 c0 04	 add	 eax, 4
  00053	49		 dec	 ecx
  00054	75 f4		 jne	 SHORT $LL106@LoadProper
  00056	6a 10		 push	 16			; 00000010H
  00058	58		 pop	 eax
$LL103@LoadProper:
  00059	8b c8		 mov	 ecx, eax
  0005b	81 e1 03 00 00
	80		 and	 ecx, -2147483645	; 80000003H
  00061	79 05		 jns	 SHORT $LN333@LoadProper
  00063	49		 dec	 ecx
  00064	83 c9 fc	 or	 ecx, -4			; fffffffcH
  00067	41		 inc	 ecx
$LN333@LoadProper:
  00068	b2 ed		 mov	 dl, -19			; ffffffedH
  0006a	2a d1		 sub	 dl, cl
  0006c	30 54 05 e4	 xor	 BYTE PTR __k$549803[ebp+eax], dl
  00070	40		 inc	 eax
  00071	83 f8 12	 cmp	 eax, 18			; 00000012H
  00074	7c e3		 jl	 SHORT $LL103@LoadProper
  00076	8b 1d 00 00 00
	00		 mov	 ebx, DWORD PTR __imp_?LoadInt@ioINILoader@@QAEHPBDH@Z
  0007c	6a 00		 push	 0
  0007e	8d 45 e4	 lea	 eax, DWORD PTR __k$549803[ebp]
  00081	50		 push	 eax
  00082	8b cf		 mov	 ecx, edi
  00084	ff d3		 call	 ebx
  00086	6a 04		 push	 4
  00088	89 86 e8 10 00
	00		 mov	 DWORD PTR [esi+4328], eax

; 35   : 	m_fSkillJumpPower		= rkLoader.LoadFloat_e( "skill_jump_power", 1500.0f );

  0008e	c7 45 e4 9e 87
	82 86		 mov	 DWORD PTR __k$549941[ebp], -2038265954 ; 8682879eH
  00095	c7 45 e8 81 b3
	81 9f		 mov	 DWORD PTR __k$549941[ebp+4], -1618889855 ; 9f81b381H
  0009c	c7 45 ec 80 9c
	b4 9a		 mov	 DWORD PTR __k$549941[ebp+8], -1699439488 ; 9ab49c80H
  000a3	c7 45 f0 82 9b
	8e 98		 mov	 DWORD PTR __k$549941[ebp+12], -1735484542 ; 988e9b82H
  000aa	8d 45 e4	 lea	 eax, DWORD PTR __k$549941[ebp]
  000ad	c6 45 f4 00	 mov	 BYTE PTR __k$549941[ebp+16], 0
  000b1	59		 pop	 ecx
$LL212@LoadProper:
  000b2	81 30 ed ec eb
	ea		 xor	 DWORD PTR [eax], -353637139 ; eaebecedH
  000b8	83 c0 04	 add	 eax, 4
  000bb	49		 dec	 ecx
  000bc	75 f4		 jne	 SHORT $LL212@LoadProper
  000be	f3 0f 10 05 00
	00 00 00	 movss	 xmm0, DWORD PTR __real@44bb8000
  000c6	51		 push	 ecx
  000c7	8d 45 e4	 lea	 eax, DWORD PTR __k$549941[ebp]
  000ca	f3 0f 11 04 24	 movss	 DWORD PTR [esp], xmm0
  000cf	50		 push	 eax
  000d0	8b cf		 mov	 ecx, edi
  000d2	ff 15 00 00 00
	00		 call	 DWORD PTR __imp_?LoadFloat@ioINILoader@@QAEMPBDM@Z
  000d8	d9 9e ec 10 00
	00		 fstp	 DWORD PTR [esi+4332]
  000de	6a 03		 push	 3

; 36   : 	m_iHeightOffset			= rkLoader.LoadInt_e( "height_offset", 0 );

  000e0	c7 45 e8 85 89
	82 8d		 mov	 DWORD PTR __k$550066[ebp], -1920824955 ; 8d828985H
  000e7	c7 45 ec 85 98
	b4 85		 mov	 DWORD PTR __k$550066[ebp+4], -2051762043 ; 85b49885H
  000ee	c7 45 f0 8b 8a
	98 8f		 mov	 DWORD PTR __k$550066[ebp+8], -1885828469 ; 8f988a8bH
  000f5	8d 45 e8	 lea	 eax, DWORD PTR __k$550066[ebp]
  000f8	66 c7 45 f4 99
	00		 mov	 WORD PTR __k$550066[ebp+12], 153 ; 00000099H
  000fe	59		 pop	 ecx
$LL318@LoadProper:
  000ff	81 30 ed ec eb
	ea		 xor	 DWORD PTR [eax], -353637139 ; eaebecedH
  00105	83 c0 04	 add	 eax, 4
  00108	49		 dec	 ecx
  00109	75 f4		 jne	 SHORT $LL318@LoadProper
  0010b	80 75 f4 ed	 xor	 BYTE PTR __k$550066[ebp+12], -19 ; ffffffedH
  0010f	51		 push	 ecx
  00110	8d 45 e8	 lea	 eax, DWORD PTR __k$550066[ebp]
  00113	50		 push	 eax
  00114	8b cf		 mov	 ecx, edi
  00116	ff d3		 call	 ebx

; 37   : }

  00118	8b 4d fc	 mov	 ecx, DWORD PTR __$ArrayPad$[ebp]
  0011b	5f		 pop	 edi
  0011c	89 86 f0 10 00
	00		 mov	 DWORD PTR [esi+4336], eax
  00122	5e		 pop	 esi
  00123	33 cd		 xor	 ecx, ebp
  00125	5b		 pop	 ebx
  00126	e8 00 00 00 00	 call	 @__security_check_cookie@4
  0012b	c9		 leave
  0012c	c2 04 00	 ret	 4
?LoadProperty@ioJumpFireSkill@@UAEXAAVioINILoader@@@Z ENDP ; ioJumpFireSkill::LoadProperty
; Function compile flags: /Ogsp
_TEXT	ENDS
;	COMDAT ?OnProcessState@ioJumpFireSkill@@UAEXPAVioBaseChar@@PAVioPlayStage@@@Z
_TEXT	SEGMENT
_pOwner$ = 8						; size = 4
_pStage$ = 12						; size = 4
?OnProcessState@ioJumpFireSkill@@UAEXPAVioBaseChar@@PAVioPlayStage@@@Z PROC ; ioJumpFireSkill::OnProcessState, COMDAT
; _this$ = ecx

; 66   : {

  00000	55		 push	 ebp
  00001	8b ec		 mov	 ebp, esp
  00003	53		 push	 ebx

; 67   : 	DWORD dwCurTime = FRAMEGETTIME();

  00004	8b 1d 00 00 00
	00		 mov	 ebx, DWORD PTR __imp_?GetSingleton@ioFrameTimer@@SAAAV1@XZ
  0000a	56		 push	 esi
  0000b	57		 push	 edi
  0000c	8b f1		 mov	 esi, ecx
  0000e	ff d3		 call	 ebx
  00010	8b c8		 mov	 ecx, eax
  00012	ff 15 00 00 00
	00		 call	 DWORD PTR __imp_?GetLoopSec@ioFrameTimer@@QBEKXZ

; 68   : 	switch( m_SkillState )

  00018	8b 86 e4 10 00
	00		 mov	 eax, DWORD PTR [esi+4324]
  0001e	83 e8 00	 sub	 eax, 0
  00021	74 29		 je	 SHORT $LN3@OnProcessS
  00023	48		 dec	 eax
  00024	75 33		 jne	 SHORT $LN4@OnProcessS

; 73   : 		}
; 74   : 		break;
; 75   : 	case SS_ATTACK:
; 76   : 		{
; 77   : 			if( 0 < m_dwMotionEndTime && m_dwMotionEndTime < FRAMEGETTIME() )

  00026	39 86 d8 02 00
	00		 cmp	 DWORD PTR [esi+728], eax
  0002c	76 2b		 jbe	 SHORT $LN4@OnProcessS
  0002e	ff d3		 call	 ebx
  00030	8b c8		 mov	 ecx, eax
  00032	ff 15 00 00 00
	00		 call	 DWORD PTR __imp_?GetLoopSec@ioFrameTimer@@QBEKXZ
  00038	39 86 d8 02 00
	00		 cmp	 DWORD PTR [esi+728], eax
  0003e	73 19		 jae	 SHORT $LN4@OnProcessS

; 78   : 			{
; 79   : 				m_SkillState = SS_END;

  00040	c7 86 e4 10 00
	00 02 00 00 00	 mov	 DWORD PTR [esi+4324], 2

; 80   : 			}
; 81   : 		}
; 82   : 		break;

  0004a	eb 0d		 jmp	 SHORT $LN4@OnProcessS
$LN3@OnProcessS:

; 69   : 	{
; 70   : 	case SS_PRE: 
; 71   : 		{
; 72   : 			CheckPreState( pOwner, pStage );

  0004c	ff 75 0c	 push	 DWORD PTR _pStage$[ebp]
  0004f	8b ce		 mov	 ecx, esi
  00051	ff 75 08	 push	 DWORD PTR _pOwner$[ebp]
  00054	e8 00 00 00 00	 call	 ?CheckPreState@ioJumpFireSkill@@IAEXPAVioBaseChar@@PAVioPlayStage@@@Z ; ioJumpFireSkill::CheckPreState
$LN4@OnProcessS:
  00059	5f		 pop	 edi
  0005a	5e		 pop	 esi
  0005b	5b		 pop	 ebx

; 83   : 	}
; 84   : }

  0005c	5d		 pop	 ebp
  0005d	c2 08 00	 ret	 8
?OnProcessState@ioJumpFireSkill@@UAEXPAVioBaseChar@@PAVioPlayStage@@@Z ENDP ; ioJumpFireSkill::OnProcessState
; Function compile flags: /Ogsp
_TEXT	ENDS
;	COMDAT ?IsProtected@ioJumpFireSkill@@UBE_NH@Z
_TEXT	SEGMENT
_value$550187 = -1					; size = 1
_value$550192 = 8					; size = 4
_iDefenseBreakType$ = 8					; size = 4
?IsProtected@ioJumpFireSkill@@UBE_NH@Z PROC		; ioJumpFireSkill::IsProtected, COMDAT
; _this$ = ecx

; 209  : {

  00000	55		 push	 ebp
  00001	8b ec		 mov	 ebp, esp
  00003	51		 push	 ecx
  00004	56		 push	 esi
  00005	8b f1		 mov	 esi, ecx

; 210  : 	if( m_bDisableSkillProtect )

  00007	8d 45 ff	 lea	 eax, DWORD PTR _value$550187[ebp]
  0000a	50		 push	 eax
  0000b	8d 8e a8 00 00
	00		 lea	 ecx, DWORD PTR [esi+168]
  00011	e8 00 00 00 00	 call	 ?DecryptValueToPool@?$CEncrypt@_N@@QAEXPA_N@Z ; CEncrypt<bool>::DecryptValueToPool
  00016	80 7d ff 00	 cmp	 BYTE PTR _value$550187[ebp], 0

; 211  : 		return false;

  0001a	75 5d		 jne	 SHORT $LN1@IsProtecte

; 212  : 
; 213  : 	// 스킬 무적 파괴
; 214  : 	if( DBT_NONE != (DefenseBreakType)m_ProtectCancelType )

  0001c	8b 86 a4 00 00
	00		 mov	 eax, DWORD PTR [esi+164]
  00022	85 c0		 test	 eax, eax
  00024	74 05		 je	 SHORT $LN4@IsProtecte

; 215  : 	{
; 216  : 		if( iDefenseBreakType == m_ProtectCancelType )

  00026	39 45 08	 cmp	 DWORD PTR _iDefenseBreakType$[ebp], eax

; 217  : 			return false;

  00029	74 4e		 je	 SHORT $LN1@IsProtecte
$LN4@IsProtecte:

; 218  : 	}
; 219  : 
; 220  : 	if( IsPreDelayProtect() )

  0002b	8b 06		 mov	 eax, DWORD PTR [esi]
  0002d	8b ce		 mov	 ecx, esi
  0002f	ff 90 2c 01 00
	00		 call	 DWORD PTR [eax+300]
  00035	84 c0		 test	 al, al
  00037	74 0d		 je	 SHORT $LN2@IsProtecte

; 221  : 	{
; 222  : 		if( m_dwPreDelayStartTime != 0 )

  00039	83 be 20 02 00
	00 00		 cmp	 DWORD PTR [esi+544], 0
  00040	74 04		 je	 SHORT $LN2@IsProtecte
$LN13@IsProtecte:

; 223  : 			return true;

  00042	b0 01		 mov	 al, 1
  00044	eb 35		 jmp	 SHORT $LN7@IsProtecte
$LN2@IsProtecte:

; 224  : 	}
; 225  : 
; 226  : 	if( 0 < m_dwSkillProtectTime && FRAMEGETTIME() < m_dwSkillStartTime + m_dwSkillProtectTime )

  00046	83 be e8 10 00
	00 00		 cmp	 DWORD PTR [esi+4328], 0
  0004d	76 2a		 jbe	 SHORT $LN1@IsProtecte
  0004f	8d 45 08	 lea	 eax, DWORD PTR _value$550192[ebp]
  00052	50		 push	 eax
  00053	8d 8e 94 0e 00
	00		 lea	 ecx, DWORD PTR [esi+3732]
  00059	e8 00 00 00 00	 call	 ?DecryptValueToPool@?$CEncrypt@K@@QAEXPAK@Z ; CEncrypt<unsigned long>::DecryptValueToPool
  0005e	ff 15 00 00 00
	00		 call	 DWORD PTR __imp_?GetSingleton@ioFrameTimer@@SAAAV1@XZ
  00064	8b c8		 mov	 ecx, eax
  00066	ff 15 00 00 00
	00		 call	 DWORD PTR __imp_?GetLoopSec@ioFrameTimer@@QBEKXZ
  0006c	8b 8e e8 10 00
	00		 mov	 ecx, DWORD PTR [esi+4328]
  00072	03 4d 08	 add	 ecx, DWORD PTR _value$550192[ebp]
  00075	3b c1		 cmp	 eax, ecx

; 227  : 		return true;

  00077	72 c9		 jb	 SHORT $LN13@IsProtecte
$LN1@IsProtecte:

; 228  : 
; 229  : 	return false;

  00079	32 c0		 xor	 al, al
$LN7@IsProtecte:
  0007b	5e		 pop	 esi

; 230  : }

  0007c	c9		 leave
  0007d	c2 04 00	 ret	 4
?IsProtected@ioJumpFireSkill@@UBE_NH@Z ENDP		; ioJumpFireSkill::IsProtected
; Function compile flags: /Ogsp
; File d:\lost saga for developer\youtube\tutorial\source\src\lsclient\ioskill.h
_TEXT	ENDS
;	COMDAT ?IsCanJumpingSkill@ioSkill@@UBE_NXZ
_TEXT	SEGMENT
_value$550201 = -1					; size = 1
?IsCanJumpingSkill@ioSkill@@UBE_NXZ PROC		; ioSkill::IsCanJumpingSkill, COMDAT
; _this$ = ecx

; 431  : 	virtual bool IsCanJumpingSkill() const { return m_bEnableJumpingSkill; }

  00000	55		 push	 ebp
  00001	8b ec		 mov	 ebp, esp
  00003	51		 push	 ecx
  00004	8d 45 ff	 lea	 eax, DWORD PTR _value$550201[ebp]
  00007	50		 push	 eax
  00008	81 c1 9c 03 00
	00		 add	 ecx, 924		; 0000039cH
  0000e	e8 00 00 00 00	 call	 ?DecryptValueToPool@?$CEncrypt@_N@@QAEXPA_N@Z ; CEncrypt<bool>::DecryptValueToPool
  00013	8a 45 ff	 mov	 al, BYTE PTR _value$550201[ebp]
  00016	c9		 leave
  00017	c3		 ret	 0
?IsCanJumpingSkill@ioSkill@@UBE_NXZ ENDP		; ioSkill::IsCanJumpingSkill
; Function compile flags: /Ogsp
_TEXT	ENDS
;	COMDAT ?IsCanJumpingSkillOnBlowWound@ioSkill@@UBE_NXZ
_TEXT	SEGMENT
_value$550208 = -1					; size = 1
?IsCanJumpingSkillOnBlowWound@ioSkill@@UBE_NXZ PROC	; ioSkill::IsCanJumpingSkillOnBlowWound, COMDAT
; _this$ = ecx

; 432  : 	virtual bool IsCanJumpingSkillOnBlowWound() const { return m_bEnableJumpingSkillOnBlowWound; }

  00000	55		 push	 ebp
  00001	8b ec		 mov	 ebp, esp
  00003	51		 push	 ecx
  00004	8d 45 ff	 lea	 eax, DWORD PTR _value$550208[ebp]
  00007	50		 push	 eax
  00008	81 c1 cc 03 00
	00		 add	 ecx, 972		; 000003ccH
  0000e	e8 00 00 00 00	 call	 ?DecryptValueToPool@?$CEncrypt@_N@@QAEXPA_N@Z ; CEncrypt<bool>::DecryptValueToPool
  00013	8a 45 ff	 mov	 al, BYTE PTR _value$550208[ebp]
  00016	c9		 leave
  00017	c3		 ret	 0
?IsCanJumpingSkillOnBlowWound@ioSkill@@UBE_NXZ ENDP	; ioSkill::IsCanJumpingSkillOnBlowWound
; Function compile flags: /Ogsp
_TEXT	ENDS
;	COMDAT ?IsCanDownSkill@ioSkill@@UBE_NXZ
_TEXT	SEGMENT
_value$550215 = -1					; size = 1
?IsCanDownSkill@ioSkill@@UBE_NXZ PROC			; ioSkill::IsCanDownSkill, COMDAT
; _this$ = ecx

; 437  : 	virtual bool IsCanDownSkill() const { return m_bEnableDownSkill; }

  00000	55		 push	 ebp
  00001	8b ec		 mov	 ebp, esp
  00003	51		 push	 ecx
  00004	8d 45 ff	 lea	 eax, DWORD PTR _value$550215[ebp]
  00007	50		 push	 eax
  00008	81 c1 5c 04 00
	00		 add	 ecx, 1116		; 0000045cH
  0000e	e8 00 00 00 00	 call	 ?DecryptValueToPool@?$CEncrypt@_N@@QAEXPA_N@Z ; CEncrypt<bool>::DecryptValueToPool
  00013	8a 45 ff	 mov	 al, BYTE PTR _value$550215[ebp]
  00016	c9		 leave
  00017	c3		 ret	 0
?IsCanDownSkill@ioSkill@@UBE_NXZ ENDP			; ioSkill::IsCanDownSkill
; Function compile flags: /Ogsp
_TEXT	ENDS
;	COMDAT ?IsCanBlowWoundSkill@ioSkill@@UBE_NXZ
_TEXT	SEGMENT
_value$550222 = -1					; size = 1
?IsCanBlowWoundSkill@ioSkill@@UBE_NXZ PROC		; ioSkill::IsCanBlowWoundSkill, COMDAT
; _this$ = ecx

; 440  : 	virtual bool IsCanBlowWoundSkill() const { return m_bEnableBlowWoundSkill; }

  00000	55		 push	 ebp
  00001	8b ec		 mov	 ebp, esp
  00003	51		 push	 ecx
  00004	8d 45 ff	 lea	 eax, DWORD PTR _value$550222[ebp]
  00007	50		 push	 eax
  00008	81 c1 8c 04 00
	00		 add	 ecx, 1164		; 0000048cH
  0000e	e8 00 00 00 00	 call	 ?DecryptValueToPool@?$CEncrypt@_N@@QAEXPA_N@Z ; CEncrypt<bool>::DecryptValueToPool
  00013	8a 45 ff	 mov	 al, BYTE PTR _value$550222[ebp]
  00016	c9		 leave
  00017	c3		 ret	 0
?IsCanBlowWoundSkill@ioSkill@@UBE_NXZ ENDP		; ioSkill::IsCanBlowWoundSkill
; Function compile flags: /Ogsp
_TEXT	ENDS
;	COMDAT ?IsCanWoundSkill@ioSkill@@UBE_NXZ
_TEXT	SEGMENT
_value$550229 = -1					; size = 1
?IsCanWoundSkill@ioSkill@@UBE_NXZ PROC			; ioSkill::IsCanWoundSkill, COMDAT
; _this$ = ecx

; 446  : 	virtual bool IsCanWoundSkill() const { return m_bEnableWoundSkill; }

  00000	55		 push	 ebp
  00001	8b ec		 mov	 ebp, esp
  00003	51		 push	 ecx
  00004	8d 45 ff	 lea	 eax, DWORD PTR _value$550229[ebp]
  00007	50		 push	 eax
  00008	81 c1 54 05 00
	00		 add	 ecx, 1364		; 00000554H
  0000e	e8 00 00 00 00	 call	 ?DecryptValueToPool@?$CEncrypt@_N@@QAEXPA_N@Z ; CEncrypt<bool>::DecryptValueToPool
  00013	8a 45 ff	 mov	 al, BYTE PTR _value$550229[ebp]
  00016	c9		 leave
  00017	c3		 ret	 0
?IsCanWoundSkill@ioSkill@@UBE_NXZ ENDP			; ioSkill::IsCanWoundSkill
_TEXT	ENDS
END
