; Listing generated by Microsoft (R) Optimizing Compiler Version 16.00.30319.01 

	TITLE	D:\Lost Saga For Developer\Youtube\Tutorial\Source\src\LSClient\ioKeyMarkAttackBuff.cpp
	.686P
	.XMM
	include listing.inc
	.model	flat

INCLUDELIB MSVCRT
INCLUDELIB OLDNAMES

PUBLIC	?_EEM_DS@?$deque@UD3DXVECTOR3@@V?$allocator@UD3DXVECTOR3@@@std@@@std@@2HB ; std::deque<D3DXVECTOR3,std::allocator<D3DXVECTOR3> >::_EEM_DS
;	COMDAT ?_EEM_DS@?$deque@UD3DXVECTOR3@@V?$allocator@UD3DXVECTOR3@@@std@@@std@@2HB
CONST	SEGMENT
?_EEM_DS@?$deque@UD3DXVECTOR3@@V?$allocator@UD3DXVECTOR3@@@std@@@std@@2HB DD 01H ; std::deque<D3DXVECTOR3,std::allocator<D3DXVECTOR3> >::_EEM_DS
CONST	ENDS
PUBLIC	?return5@@YAIXZ					; return5
; Function compile flags: /Ogsp
; File d:\lost saga for developer\youtube\tutorial\source\src\lsclient\stdafx.h
;	COMDAT ?return5@@YAIXZ
_TEXT	SEGMENT
?return5@@YAIXZ PROC					; return5, COMDAT

; 18   : 	__forceinline unsigned int return5() { __asm mov eax, 5 };

  00000	b8 05 00 00 00	 mov	 eax, 5
  00005	c3		 ret	 0
?return5@@YAIXZ ENDP					; return5
_TEXT	ENDS
PUBLIC	?return10@@YAIXZ				; return10
; Function compile flags: /Ogsp
;	COMDAT ?return10@@YAIXZ
_TEXT	SEGMENT
?return10@@YAIXZ PROC					; return10, COMDAT

; 21   : 	__forceinline unsigned int return10() { __asm mov eax, 10 };

  00000	b8 0a 00 00 00	 mov	 eax, 10			; 0000000aH
  00005	c3		 ret	 0
?return10@@YAIXZ ENDP					; return10
_TEXT	ENDS
PUBLIC	?GetBlowStopMotionState@ioBaseChar@@QBE_NXZ	; ioBaseChar::GetBlowStopMotionState
; Function compile flags: /Ogsp
; File d:\lost saga for developer\youtube\tutorial\source\src\lsclient\iobasechar.h
;	COMDAT ?GetBlowStopMotionState@ioBaseChar@@QBE_NXZ
_TEXT	SEGMENT
?GetBlowStopMotionState@ioBaseChar@@QBE_NXZ PROC	; ioBaseChar::GetBlowStopMotionState, COMDAT
; _this$ = ecx

; 1566 : 	inline bool GetBlowStopMotionState() const { return m_bBlowStopMotion; }

  00000	8a 81 c7 15 00
	00		 mov	 al, BYTE PTR [ecx+5575]
  00006	c3		 ret	 0
?GetBlowStopMotionState@ioBaseChar@@QBE_NXZ ENDP	; ioBaseChar::GetBlowStopMotionState
_TEXT	ENDS
PUBLIC	?GetBlowFrozenState@ioBaseChar@@QBE_NXZ		; ioBaseChar::GetBlowFrozenState
; Function compile flags: /Ogsp
;	COMDAT ?GetBlowFrozenState@ioBaseChar@@QBE_NXZ
_TEXT	SEGMENT
?GetBlowFrozenState@ioBaseChar@@QBE_NXZ PROC		; ioBaseChar::GetBlowFrozenState, COMDAT
; _this$ = ecx

; 1571 : 	inline bool GetBlowFrozenState() const { return m_bBlowFrozenState; }

  00000	8a 81 c5 15 00
	00		 mov	 al, BYTE PTR [ecx+5573]
  00006	c3		 ret	 0
?GetBlowFrozenState@ioBaseChar@@QBE_NXZ ENDP		; ioBaseChar::GetBlowFrozenState
_TEXT	ENDS
PUBLIC	?GetState@ioBaseChar@@QBE?AW4CharState@@XZ	; ioBaseChar::GetState
; Function compile flags: /Ogsp
;	COMDAT ?GetState@ioBaseChar@@QBE?AW4CharState@@XZ
_TEXT	SEGMENT
?GetState@ioBaseChar@@QBE?AW4CharState@@XZ PROC		; ioBaseChar::GetState, COMDAT
; _this$ = ecx

; 2156 : 	inline CharState GetState() const { return m_CharState; }	

  00000	8a 81 10 03 00
	00		 mov	 al, BYTE PTR [ecx+784]
  00006	c3		 ret	 0
?GetState@ioBaseChar@@QBE?AW4CharState@@XZ ENDP		; ioBaseChar::GetState
_TEXT	ENDS
PUBLIC	?GetCharName@ioBaseChar@@QBEABVioHashString@@XZ	; ioBaseChar::GetCharName
; Function compile flags: /Ogsp
;	COMDAT ?GetCharName@ioBaseChar@@QBEABVioHashString@@XZ
_TEXT	SEGMENT
?GetCharName@ioBaseChar@@QBEABVioHashString@@XZ PROC	; ioBaseChar::GetCharName, COMDAT
; _this$ = ecx

; 2594 : 	inline const ioHashString& GetCharName() const { return m_Name; }

  00000	8d 81 d4 02 00
	00		 lea	 eax, DWORD PTR [ecx+724]
  00006	c3		 ret	 0
?GetCharName@ioBaseChar@@QBEABVioHashString@@XZ ENDP	; ioBaseChar::GetCharName
_TEXT	ENDS
PUBLIC	?GetTargetRot@ioBaseChar@@QBEABUD3DXQUATERNION@@XZ ; ioBaseChar::GetTargetRot
; Function compile flags: /Ogsp
;	COMDAT ?GetTargetRot@ioBaseChar@@QBEABUD3DXQUATERNION@@XZ
_TEXT	SEGMENT
?GetTargetRot@ioBaseChar@@QBEABUD3DXQUATERNION@@XZ PROC	; ioBaseChar::GetTargetRot, COMDAT
; _this$ = ecx

; 2599 : 	inline const D3DXQUATERNION& GetTargetRot() const { return m_qtTargetRot; }

  00000	8d 81 a4 06 00
	00		 lea	 eax, DWORD PTR [ecx+1700]
  00006	c3		 ret	 0
?GetTargetRot@ioBaseChar@@QBEABUD3DXQUATERNION@@XZ ENDP	; ioBaseChar::GetTargetRot
_TEXT	ENDS
PUBLIC	_acosf
EXTRN	__fltused:DWORD
EXTRN	__CIacos:PROC
; Function compile flags: /Ogsp
; File c:\program files (x86)\microsoft visual studio 10.0\vc\include\math.h
;	COMDAT _acosf
_TEXT	SEGMENT
tv69 = 8						; size = 4
__X$ = 8						; size = 4
_acosf	PROC						; COMDAT

; 400  :         {return ((float)acos((double)_X)); }

  00000	55		 push	 ebp
  00001	8b ec		 mov	 ebp, esp
  00003	d9 45 08	 fld	 DWORD PTR __X$[ebp]
  00006	e8 00 00 00 00	 call	 __CIacos
  0000b	d9 5d 08	 fstp	 DWORD PTR tv69[ebp]
  0000e	d9 45 08	 fld	 DWORD PTR tv69[ebp]
  00011	5d		 pop	 ebp
  00012	c3		 ret	 0
_acosf	ENDP
_TEXT	ENDS
PUBLIC	?SetCurJumpPowerAmt@ioBaseChar@@QAEXM@Z		; ioBaseChar::SetCurJumpPowerAmt
; Function compile flags: /Ogsp
; File d:\lost saga for developer\youtube\tutorial\source\src\lsclient\iobasechar.h
;	COMDAT ?SetCurJumpPowerAmt@ioBaseChar@@QAEXM@Z
_TEXT	SEGMENT
_fAmt$ = 8						; size = 4
?SetCurJumpPowerAmt@ioBaseChar@@QAEXM@Z PROC		; ioBaseChar::SetCurJumpPowerAmt, COMDAT
; _this$ = ecx

; 2628 : 	inline void SetCurJumpPowerAmt( float fAmt ) { m_fCurJumpPowerAmt = fAmt; }

  00000	55		 push	 ebp
  00001	8b ec		 mov	 ebp, esp
  00003	f3 0f 10 45 08	 movss	 xmm0, DWORD PTR _fAmt$[ebp]
  00008	f3 0f 11 81 90
	0e 00 00	 movss	 DWORD PTR [ecx+3728], xmm0
  00010	5d		 pop	 ebp
  00011	c2 04 00	 ret	 4
?SetCurJumpPowerAmt@ioBaseChar@@QAEXM@Z ENDP		; ioBaseChar::SetCurJumpPowerAmt
_TEXT	ENDS
PUBLIC	??_7bad_alloc@std@@6B@				; std::bad_alloc::`vftable'
PUBLIC	??0bad_alloc@std@@QAE@PBD@Z			; std::bad_alloc::bad_alloc
PUBLIC	??_R4bad_alloc@std@@6B@				; std::bad_alloc::`RTTI Complete Object Locator'
PUBLIC	??_R0?AVbad_alloc@std@@@8			; std::bad_alloc `RTTI Type Descriptor'
PUBLIC	??_R3bad_alloc@std@@8				; std::bad_alloc::`RTTI Class Hierarchy Descriptor'
PUBLIC	??_R2bad_alloc@std@@8				; std::bad_alloc::`RTTI Base Class Array'
PUBLIC	??_R1A@?0A@EA@bad_alloc@std@@8			; std::bad_alloc::`RTTI Base Class Descriptor at (0,-1,0,64)'
PUBLIC	??_R1A@?0A@EA@exception@std@@8			; std::exception::`RTTI Base Class Descriptor at (0,-1,0,64)'
PUBLIC	??_R0?AVexception@std@@@8			; std::exception `RTTI Type Descriptor'
PUBLIC	??_R3exception@std@@8				; std::exception::`RTTI Class Hierarchy Descriptor'
PUBLIC	??_R2exception@std@@8				; std::exception::`RTTI Base Class Array'
EXTRN	__imp_??0exception@std@@QAE@ABQBD@Z:PROC
EXTRN	??_7type_info@@6B@:QWORD			; type_info::`vftable'
EXTRN	??_Ebad_alloc@std@@UAEPAXI@Z:PROC		; std::bad_alloc::`vector deleting destructor'
EXTRN	?what@exception@std@@UBEPBDXZ:PROC		; std::exception::what
;	COMDAT ??_R2exception@std@@8
; File c:\program files (x86)\microsoft visual studio 10.0\vc\include\exception
rdata$r	SEGMENT
??_R2exception@std@@8 DD FLAT:??_R1A@?0A@EA@exception@std@@8 ; std::exception::`RTTI Base Class Array'
rdata$r	ENDS
;	COMDAT ??_R3exception@std@@8
rdata$r	SEGMENT
??_R3exception@std@@8 DD 00H				; std::exception::`RTTI Class Hierarchy Descriptor'
	DD	00H
	DD	01H
	DD	FLAT:??_R2exception@std@@8
rdata$r	ENDS
;	COMDAT ??_R0?AVexception@std@@@8
_DATA	SEGMENT
??_R0?AVexception@std@@@8 DD FLAT:??_7type_info@@6B@	; std::exception `RTTI Type Descriptor'
	DD	00H
	DB	'.?AVexception@std@@', 00H
_DATA	ENDS
;	COMDAT ??_R1A@?0A@EA@exception@std@@8
rdata$r	SEGMENT
??_R1A@?0A@EA@exception@std@@8 DD FLAT:??_R0?AVexception@std@@@8 ; std::exception::`RTTI Base Class Descriptor at (0,-1,0,64)'
	DD	00H
	DD	00H
	DD	0ffffffffH
	DD	00H
	DD	040H
	DD	FLAT:??_R3exception@std@@8
rdata$r	ENDS
;	COMDAT ??_R1A@?0A@EA@bad_alloc@std@@8
rdata$r	SEGMENT
??_R1A@?0A@EA@bad_alloc@std@@8 DD FLAT:??_R0?AVbad_alloc@std@@@8 ; std::bad_alloc::`RTTI Base Class Descriptor at (0,-1,0,64)'
	DD	01H
	DD	00H
	DD	0ffffffffH
	DD	00H
	DD	040H
	DD	FLAT:??_R3bad_alloc@std@@8
rdata$r	ENDS
;	COMDAT ??_R2bad_alloc@std@@8
rdata$r	SEGMENT
??_R2bad_alloc@std@@8 DD FLAT:??_R1A@?0A@EA@bad_alloc@std@@8 ; std::bad_alloc::`RTTI Base Class Array'
	DD	FLAT:??_R1A@?0A@EA@exception@std@@8
rdata$r	ENDS
;	COMDAT ??_R3bad_alloc@std@@8
rdata$r	SEGMENT
??_R3bad_alloc@std@@8 DD 00H				; std::bad_alloc::`RTTI Class Hierarchy Descriptor'
	DD	00H
	DD	02H
	DD	FLAT:??_R2bad_alloc@std@@8
rdata$r	ENDS
;	COMDAT ??_R0?AVbad_alloc@std@@@8
_DATA	SEGMENT
??_R0?AVbad_alloc@std@@@8 DD FLAT:??_7type_info@@6B@	; std::bad_alloc `RTTI Type Descriptor'
	DD	00H
	DB	'.?AVbad_alloc@std@@', 00H
_DATA	ENDS
;	COMDAT ??_R4bad_alloc@std@@6B@
rdata$r	SEGMENT
??_R4bad_alloc@std@@6B@ DD 00H				; std::bad_alloc::`RTTI Complete Object Locator'
	DD	00H
	DD	00H
	DD	FLAT:??_R0?AVbad_alloc@std@@@8
	DD	FLAT:??_R3bad_alloc@std@@8
rdata$r	ENDS
;	COMDAT ??_7bad_alloc@std@@6B@
CONST	SEGMENT
??_7bad_alloc@std@@6B@ DD FLAT:??_R4bad_alloc@std@@6B@	; std::bad_alloc::`vftable'
	DD	FLAT:??_Ebad_alloc@std@@UAEPAXI@Z
	DD	FLAT:?what@exception@std@@UBEPBDXZ
; Function compile flags: /Ogsp
CONST	ENDS
;	COMDAT ??0bad_alloc@std@@QAE@PBD@Z
_TEXT	SEGMENT
__Message$ = 8						; size = 4
??0bad_alloc@std@@QAE@PBD@Z PROC			; std::bad_alloc::bad_alloc, COMDAT
; _this$ = ecx

; 345  : 		{	// construct from message string

  00000	55		 push	 ebp
  00001	8b ec		 mov	 ebp, esp
  00003	56		 push	 esi
  00004	8d 45 08	 lea	 eax, DWORD PTR __Message$[ebp]
  00007	50		 push	 eax
  00008	8b f1		 mov	 esi, ecx
  0000a	ff 15 00 00 00
	00		 call	 DWORD PTR __imp_??0exception@std@@QAE@ABQBD@Z
  00010	c7 06 00 00 00
	00		 mov	 DWORD PTR [esi], OFFSET ??_7bad_alloc@std@@6B@

; 346  : 		}

  00016	8b c6		 mov	 eax, esi
  00018	5e		 pop	 esi
  00019	5d		 pop	 ebp
  0001a	c2 04 00	 ret	 4
??0bad_alloc@std@@QAE@PBD@Z ENDP			; std::bad_alloc::bad_alloc
_TEXT	ENDS
PUBLIC	??1bad_alloc@std@@UAE@XZ			; std::bad_alloc::~bad_alloc
EXTRN	__imp_??1exception@std@@UAE@XZ:PROC
; Function compile flags: /Ogsp
;	COMDAT ??1bad_alloc@std@@UAE@XZ
_TEXT	SEGMENT
??1bad_alloc@std@@UAE@XZ PROC				; std::bad_alloc::~bad_alloc, COMDAT
; _this$ = ecx

; 354  : 		{	// destroy the object

  00000	c7 01 00 00 00
	00		 mov	 DWORD PTR [ecx], OFFSET ??_7bad_alloc@std@@6B@

; 355  : 		}

  00006	ff 25 00 00 00
	00		 jmp	 DWORD PTR __imp_??1exception@std@@UAE@XZ
??1bad_alloc@std@@UAE@XZ ENDP				; std::bad_alloc::~bad_alloc
_TEXT	ENDS
EXTRN	??3@YAXPAX@Z:PROC				; operator delete
; Function compile flags: /Ogsp
;	COMDAT ??_Gbad_alloc@std@@UAEPAXI@Z
_TEXT	SEGMENT
___flags$ = 8						; size = 4
??_Gbad_alloc@std@@UAEPAXI@Z PROC			; std::bad_alloc::`scalar deleting destructor', COMDAT
; _this$ = ecx
  00000	55		 push	 ebp
  00001	8b ec		 mov	 ebp, esp
  00003	56		 push	 esi
  00004	8b f1		 mov	 esi, ecx
  00006	c7 06 00 00 00
	00		 mov	 DWORD PTR [esi], OFFSET ??_7bad_alloc@std@@6B@
  0000c	ff 15 00 00 00
	00		 call	 DWORD PTR __imp_??1exception@std@@UAE@XZ
  00012	f6 45 08 01	 test	 BYTE PTR ___flags$[ebp], 1
  00016	74 07		 je	 SHORT $LN1@scalar
  00018	56		 push	 esi
  00019	e8 00 00 00 00	 call	 ??3@YAXPAX@Z		; operator delete
  0001e	59		 pop	 ecx
$LN1@scalar:
  0001f	8b c6		 mov	 eax, esi
  00021	5e		 pop	 esi
  00022	5d		 pop	 ebp
  00023	c2 04 00	 ret	 4
??_Gbad_alloc@std@@UAEPAXI@Z ENDP			; std::bad_alloc::`scalar deleting destructor'
_TEXT	ENDS
PUBLIC	??2@YAPAXIPAX@Z					; operator new
; Function compile flags: /Ogsp
; File c:\program files (x86)\microsoft visual studio 10.0\vc\include\new
;	COMDAT ??2@YAPAXIPAX@Z
_TEXT	SEGMENT
___formal$ = 8						; size = 4
__Where$ = 12						; size = 4
??2@YAPAXIPAX@Z PROC					; operator new, COMDAT

; 56   : 	{	// construct array with placement at _Where

  00000	55		 push	 ebp
  00001	8b ec		 mov	 ebp, esp

; 57   : 	return (_Where);

  00003	8b 45 0c	 mov	 eax, DWORD PTR __Where$[ebp]

; 58   : 	}

  00006	5d		 pop	 ebp
  00007	c3		 ret	 0
??2@YAPAXIPAX@Z ENDP					; operator new
_TEXT	ENDS
PUBLIC	??3@YAXPAX0@Z					; operator delete
; Function compile flags: /Ogsp
;	COMDAT ??3@YAXPAX0@Z
_TEXT	SEGMENT
___formal$ = 8						; size = 4
___formal$ = 12						; size = 4
??3@YAXPAX0@Z PROC					; operator delete, COMDAT

; 62   : 	}

  00000	c3		 ret	 0
??3@YAXPAX0@Z ENDP					; operator delete
_TEXT	ENDS
PUBLIC	?GetCreator@ioBaseChar@@QAEPAVioPlayStage@@XZ	; ioBaseChar::GetCreator
; Function compile flags: /Ogsp
; File d:\lost saga for developer\youtube\tutorial\source\src\lsclient\iobasechar.h
;	COMDAT ?GetCreator@ioBaseChar@@QAEPAVioPlayStage@@XZ
_TEXT	SEGMENT
?GetCreator@ioBaseChar@@QAEPAVioPlayStage@@XZ PROC	; ioBaseChar::GetCreator, COMDAT
; _this$ = ecx

; 4013 : 	inline ioPlayStage* GetCreator() { return m_pCreator; }

  00000	8b 81 44 03 00
	00		 mov	 eax, DWORD PTR [ecx+836]
  00006	c3		 ret	 0
?GetCreator@ioBaseChar@@QAEPAVioPlayStage@@XZ ENDP	; ioBaseChar::GetCreator
_TEXT	ENDS
PUBLIC	?GetBaseCharList@ioPlayStage@@QBEABV?$vector@PAVioBaseChar@@V?$allocator@PAVioBaseChar@@@std@@@std@@XZ ; ioPlayStage::GetBaseCharList
; Function compile flags: /Ogsp
; File d:\lost saga for developer\youtube\tutorial\source\src\lsclient\ioplaystage.h
;	COMDAT ?GetBaseCharList@ioPlayStage@@QBEABV?$vector@PAVioBaseChar@@V?$allocator@PAVioBaseChar@@@std@@@std@@XZ
_TEXT	SEGMENT
?GetBaseCharList@ioPlayStage@@QBEABV?$vector@PAVioBaseChar@@V?$allocator@PAVioBaseChar@@@std@@@std@@XZ PROC ; ioPlayStage::GetBaseCharList, COMDAT
; _this$ = ecx

; 755  : 	const BaseCharList& GetBaseCharList() const { return m_BaseCharList; }

  00000	8d 41 2c	 lea	 eax, DWORD PTR [ecx+44]
  00003	c3		 ret	 0
?GetBaseCharList@ioPlayStage@@QBEABV?$vector@PAVioBaseChar@@V?$allocator@PAVioBaseChar@@@std@@@std@@XZ ENDP ; ioPlayStage::GetBaseCharList
_TEXT	ENDS
PUBLIC	?ClearData@ioKeyMarkAttackBuff@@IAEXXZ		; ioKeyMarkAttackBuff::ClearData
EXTRN	__imp_?Clear@ioHashString@@QAEXXZ:PROC
; Function compile flags: /Ogsp
; File d:\lost saga for developer\youtube\tutorial\source\src\lsclient\iokeymarkattackbuff.cpp
;	COMDAT ?ClearData@ioKeyMarkAttackBuff@@IAEXXZ
_TEXT	SEGMENT
?ClearData@ioKeyMarkAttackBuff@@IAEXXZ PROC		; ioKeyMarkAttackBuff::ClearData, COMDAT
; _this$ = ecx

; 94   : {

  00000	56		 push	 esi
  00001	8b f1		 mov	 esi, ecx
  00003	57		 push	 edi

; 95   : 	//Target
; 96   : 	m_szA_MarkTargetName.Clear();

  00004	8b 3d 00 00 00
	00		 mov	 edi, DWORD PTR __imp_?Clear@ioHashString@@QAEXXZ
  0000a	8d 8e 34 0a 00
	00		 lea	 ecx, DWORD PTR [esi+2612]
  00010	ff d7		 call	 edi

; 97   : 	m_szS_MarkTargetName.Clear();

  00012	8d 8e 44 0a 00
	00		 lea	 ecx, DWORD PTR [esi+2628]
  00018	ff d7		 call	 edi

; 98   : 	m_szD_MarkTargetName.Clear();

  0001a	8d 8e 54 0a 00
	00		 lea	 ecx, DWORD PTR [esi+2644]
  00020	ff d7		 call	 edi

; 99   : 	m_dwA_MarkMapEffectID = -1;

  00022	83 8e a4 0a 00
	00 ff		 or	 DWORD PTR [esi+2724], -1

; 100  : 	m_dwS_MarkMapEffectID = -1;

  00029	83 8e a8 0a 00
	00 ff		 or	 DWORD PTR [esi+2728], -1

; 101  : 	m_dwD_MarkMapEffectID = -1;

  00030	83 8e ac 0a 00
	00 ff		 or	 DWORD PTR [esi+2732], -1

; 102  : 
; 103  : 	//Attack
; 104  : 	m_szAttackTarget.Clear();

  00037	8d 8e b4 0a 00
	00		 lea	 ecx, DWORD PTR [esi+2740]
  0003d	ff d7		 call	 edi

; 105  : 	m_iAttackCount = 0;

  0003f	33 c0		 xor	 eax, eax
  00041	5f		 pop	 edi
  00042	89 86 dc 0a 00
	00		 mov	 DWORD PTR [esi+2780], eax

; 106  : 	m_bInputKey = false;

  00048	88 86 c4 0a 00
	00		 mov	 BYTE PTR [esi+2756], al

; 107  : 	m_dwKeyInputTime = 0;

  0004e	89 86 cc 0a 00
	00		 mov	 DWORD PTR [esi+2764], eax

; 108  : 
; 109  : 	m_BuffState = BS_LOOP;

  00054	89 86 6c 09 00
	00		 mov	 DWORD PTR [esi+2412], eax

; 110  : 	m_dwFireMotionEndTime = 0;

  0005a	89 86 dc 0b 00
	00		 mov	 DWORD PTR [esi+3036], eax
  00060	5e		 pop	 esi

; 111  : }

  00061	c3		 ret	 0
?ClearData@ioKeyMarkAttackBuff@@IAEXXZ ENDP		; ioKeyMarkAttackBuff::ClearData
_TEXT	ENDS
PUBLIC	?StartBuff@ioKeyMarkAttackBuff@@UAEXPAVioBaseChar@@@Z ; ioKeyMarkAttackBuff::StartBuff
EXTRN	?StartBuff@ioBuff@@UAEXPAVioBaseChar@@@Z:PROC	; ioBuff::StartBuff
; Function compile flags: /Ogsp
;	COMDAT ?StartBuff@ioKeyMarkAttackBuff@@UAEXPAVioBaseChar@@@Z
_TEXT	SEGMENT
_pOwner$ = 8						; size = 4
?StartBuff@ioKeyMarkAttackBuff@@UAEXPAVioBaseChar@@@Z PROC ; ioKeyMarkAttackBuff::StartBuff, COMDAT
; _this$ = ecx

; 114  : {

  00000	55		 push	 ebp
  00001	8b ec		 mov	 ebp, esp
  00003	56		 push	 esi

; 115  : 	ioBuff::StartBuff( pOwner );

  00004	ff 75 08	 push	 DWORD PTR _pOwner$[ebp]
  00007	8b f1		 mov	 esi, ecx
  00009	e8 00 00 00 00	 call	 ?StartBuff@ioBuff@@UAEXPAVioBaseChar@@@Z ; ioBuff::StartBuff

; 116  : 	ClearData();

  0000e	8b ce		 mov	 ecx, esi
  00010	e8 00 00 00 00	 call	 ?ClearData@ioKeyMarkAttackBuff@@IAEXXZ ; ioKeyMarkAttackBuff::ClearData
  00015	5e		 pop	 esi

; 117  : }

  00016	5d		 pop	 ebp
  00017	c2 04 00	 ret	 4
?StartBuff@ioKeyMarkAttackBuff@@UAEXPAVioBaseChar@@@Z ENDP ; ioKeyMarkAttackBuff::StartBuff
_TEXT	ENDS
PUBLIC	?ApplyStartBuff@ioKeyMarkAttackBuff@@UAE_NPAVioBaseChar@@KK@Z ; ioKeyMarkAttackBuff::ApplyStartBuff
EXTRN	?ApplyStartBuff@ioBuff@@UAE_NPAVioBaseChar@@KK@Z:PROC ; ioBuff::ApplyStartBuff
; Function compile flags: /Ogsp
;	COMDAT ?ApplyStartBuff@ioKeyMarkAttackBuff@@UAE_NPAVioBaseChar@@KK@Z
_TEXT	SEGMENT
_pOwner$ = 8						; size = 4
_dwGlobalTime$ = 12					; size = 4
_dwGapTime$ = 16					; size = 4
?ApplyStartBuff@ioKeyMarkAttackBuff@@UAE_NPAVioBaseChar@@KK@Z PROC ; ioKeyMarkAttackBuff::ApplyStartBuff, COMDAT
; _this$ = ecx

; 120  : {

  00000	55		 push	 ebp
  00001	8b ec		 mov	 ebp, esp

; 121  : 	if ( !ioBuff::ApplyStartBuff( pOwner, dwGlobalTime, dwGapTime ) )

  00003	ff 75 10	 push	 DWORD PTR _dwGapTime$[ebp]
  00006	ff 75 0c	 push	 DWORD PTR _dwGlobalTime$[ebp]
  00009	ff 75 08	 push	 DWORD PTR _pOwner$[ebp]
  0000c	e8 00 00 00 00	 call	 ?ApplyStartBuff@ioBuff@@UAE_NPAVioBaseChar@@KK@Z ; ioBuff::ApplyStartBuff
  00011	84 c0		 test	 al, al
  00013	0f 95 c0	 setne	 al

; 122  : 		return false;
; 123  : 	return true;
; 124  : }

  00016	5d		 pop	 ebp
  00017	c2 0c 00	 ret	 12			; 0000000cH
?ApplyStartBuff@ioKeyMarkAttackBuff@@UAE_NPAVioBaseChar@@KK@Z ENDP ; ioKeyMarkAttackBuff::ApplyStartBuff
_TEXT	ENDS
PUBLIC	?CheckOwnerState@ioKeyMarkAttackBuff@@IAE_NXZ	; ioKeyMarkAttackBuff::CheckOwnerState
EXTRN	?IsApplyDownState@ioBaseChar@@QAE_N_N@Z:PROC	; ioBaseChar::IsApplyDownState
EXTRN	?IsFloatingState@ioBaseChar@@QBE_NXZ:PROC	; ioBaseChar::IsFloatingState
EXTRN	?IsWoundedState@ioBaseChar@@QBE_NXZ:PROC	; ioBaseChar::IsWoundedState
EXTRN	?GetOwner@ioBuff@@QAEPAVioBaseChar@@XZ:PROC	; ioBuff::GetOwner
; Function compile flags: /Ogsp
;	COMDAT ?CheckOwnerState@ioKeyMarkAttackBuff@@IAE_NXZ
_TEXT	SEGMENT
?CheckOwnerState@ioKeyMarkAttackBuff@@IAE_NXZ PROC	; ioKeyMarkAttackBuff::CheckOwnerState, COMDAT
; _this$ = ecx

; 175  : {

  00000	53		 push	 ebx
  00001	56		 push	 esi
  00002	8b f1		 mov	 esi, ecx

; 176  : 	if( !GetOwner() || !m_pOwner )

  00004	e8 00 00 00 00	 call	 ?GetOwner@ioBuff@@QAEPAVioBaseChar@@XZ ; ioBuff::GetOwner
  00009	85 c0		 test	 eax, eax
  0000b	74 3d		 je	 SHORT $LN17@CheckOwner
  0000d	8b 8e 74 02 00
	00		 mov	 ecx, DWORD PTR [esi+628]
  00013	33 db		 xor	 ebx, ebx
  00015	3b cb		 cmp	 ecx, ebx
  00017	74 31		 je	 SHORT $LN17@CheckOwner

; 178  : 
; 179  : 	if( m_bDeleteBuffByWoundedState )

  00019	38 9e e2 0b 00
	00		 cmp	 BYTE PTR [esi+3042], bl
  0001f	74 09		 je	 SHORT $LN15@CheckOwner

; 180  : 	{
; 181  : 		if( m_pOwner->IsWoundedState() )

  00021	e8 00 00 00 00	 call	 ?IsWoundedState@ioBaseChar@@QBE_NXZ ; ioBaseChar::IsWoundedState
  00026	84 c0		 test	 al, al

; 182  : 			return false;

  00028	75 20		 jne	 SHORT $LN17@CheckOwner
$LN15@CheckOwner:

; 183  : 	}
; 184  : 
; 185  : 	if( m_bDeleteBuffByDownState )

  0002a	38 9e e0 0b 00
	00		 cmp	 BYTE PTR [esi+3040], bl
  00030	74 56		 je	 SHORT $LN3@CheckOwner

; 186  : 	{
; 187  : 		CharState eState = m_pOwner->GetState();

  00032	8b 8e 74 02 00
	00		 mov	 ecx, DWORD PTR [esi+628]
  00038	8a 81 10 03 00
	00		 mov	 al, BYTE PTR [ecx+784]

; 188  : 		if( eState == CS_FROZEN && m_pOwner->GetBlowFrozenState() )

  0003e	3c 17		 cmp	 al, 23			; 00000017H
  00040	75 0d		 jne	 SHORT $LN13@CheckOwner
  00042	38 99 c5 15 00
	00		 cmp	 BYTE PTR [ecx+5573], bl
$LN31@CheckOwner:
  00048	74 3e		 je	 SHORT $LN3@CheckOwner
$LN17@CheckOwner:

; 177  : 		return false;

  0004a	32 c0		 xor	 al, al
$LN19@CheckOwner:
  0004c	5e		 pop	 esi
  0004d	5b		 pop	 ebx

; 210  : }

  0004e	c3		 ret	 0
$LN13@CheckOwner:

; 189  : 			return false;
; 190  : 		else if( eState == CS_BLOW_WOUNDED && !m_pOwner->IsFloatingState() )

  0004f	3c 0c		 cmp	 al, 12			; 0000000cH
  00051	75 0b		 jne	 SHORT $LN11@CheckOwner
$LN32@CheckOwner:
  00053	e8 00 00 00 00	 call	 ?IsFloatingState@ioBaseChar@@QBE_NXZ ; ioBaseChar::IsFloatingState
  00058	84 c0		 test	 al, al
  0005a	75 2c		 jne	 SHORT $LN3@CheckOwner

; 191  : 			return false;

  0005c	eb ec		 jmp	 SHORT $LN17@CheckOwner
$LN11@CheckOwner:

; 192  : 		else if( eState == CS_BOUND_BLOW_WOUNDED && !m_pOwner->IsFloatingState() )

  0005e	3c 31		 cmp	 al, 49			; 00000031H

; 193  : 			return false;

  00060	74 f1		 je	 SHORT $LN32@CheckOwner

; 194  : 		else if( eState == CS_ETC_STATE && m_pOwner->IsApplyDownState(false) )

  00062	3c 0f		 cmp	 al, 15			; 0000000fH
  00064	75 0a		 jne	 SHORT $LN7@CheckOwner
  00066	53		 push	 ebx
  00067	e8 00 00 00 00	 call	 ?IsApplyDownState@ioBaseChar@@QAE_N_N@Z ; ioBaseChar::IsApplyDownState
  0006c	84 c0		 test	 al, al

; 195  : 			return false;

  0006e	eb d8		 jmp	 SHORT $LN31@CheckOwner
$LN7@CheckOwner:

; 196  : 		else if( eState == CS_STOP_MOTION && m_pOwner->GetBlowStopMotionState() )

  00070	3c 26		 cmp	 al, 38			; 00000026H
  00072	75 08		 jne	 SHORT $LN5@CheckOwner
  00074	38 99 c7 15 00
	00		 cmp	 BYTE PTR [ecx+5575], bl

; 197  : 			return false;

  0007a	eb cc		 jmp	 SHORT $LN31@CheckOwner
$LN5@CheckOwner:

; 198  : 		else if( eState == CS_ICE_STATE && m_pOwner->GetBlowStopMotionState() )

  0007c	3c 3b		 cmp	 al, 59			; 0000003bH
  0007e	75 08		 jne	 SHORT $LN3@CheckOwner
  00080	38 99 c7 15 00
	00		 cmp	 BYTE PTR [ecx+5575], bl

; 199  : 			return false;

  00086	75 c2		 jne	 SHORT $LN17@CheckOwner
$LN3@CheckOwner:

; 200  : 	}
; 201  : 
; 202  : 	if ( m_bDeleteBuffByDropState )

  00088	38 9e e1 0b 00
	00		 cmp	 BYTE PTR [esi+3041], bl
  0008e	74 0f		 je	 SHORT $LN1@CheckOwner

; 203  : 	{
; 204  : 		CharState eState = m_pOwner->GetState();
; 205  : 		if( eState == CS_DROP_ZONE_DOWN )

  00090	8b 86 74 02 00
	00		 mov	 eax, DWORD PTR [esi+628]
  00096	80 b8 10 03 00
	00 10		 cmp	 BYTE PTR [eax+784], 16	; 00000010H

; 206  : 			return false;

  0009d	74 ab		 je	 SHORT $LN17@CheckOwner
$LN1@CheckOwner:

; 207  : 	}
; 208  : 
; 209  : 	return true;

  0009f	b0 01		 mov	 al, 1
  000a1	eb a9		 jmp	 SHORT $LN19@CheckOwner
?CheckOwnerState@ioKeyMarkAttackBuff@@IAE_NXZ ENDP	; ioKeyMarkAttackBuff::CheckOwnerState
_TEXT	ENDS
PUBLIC	?_Adopt@_Iterator_base0@std@@QAEXPBX@Z		; std::_Iterator_base0::_Adopt
; Function compile flags: /Ogsp
; File c:\program files (x86)\microsoft visual studio 10.0\vc\include\xutility
;	COMDAT ?_Adopt@_Iterator_base0@std@@QAEXPBX@Z
_TEXT	SEGMENT
___formal$ = 8						; size = 4
?_Adopt@_Iterator_base0@std@@QAEXPBX@Z PROC		; std::_Iterator_base0::_Adopt, COMDAT
; _this$ = ecx

; 49   : 		}

  00000	c2 04 00	 ret	 4
?_Adopt@_Iterator_base0@std@@QAEXPBX@Z ENDP		; std::_Iterator_base0::_Adopt
_TEXT	ENDS
PUBLIC	??1tagBaseCharDistanceSq@@QAE@XZ		; tagBaseCharDistanceSq::~tagBaseCharDistanceSq
EXTRN	__imp_??1ioHashString@@QAE@XZ:PROC
; Function compile flags: /Ogsp
;	COMDAT ??1tagBaseCharDistanceSq@@QAE@XZ
_TEXT	SEGMENT
??1tagBaseCharDistanceSq@@QAE@XZ PROC			; tagBaseCharDistanceSq::~tagBaseCharDistanceSq, COMDAT
; _this$ = ecx
  00000	ff 25 00 00 00
	00		 jmp	 DWORD PTR __imp_??1ioHashString@@QAE@XZ
??1tagBaseCharDistanceSq@@QAE@XZ ENDP			; tagBaseCharDistanceSq::~tagBaseCharDistanceSq
_TEXT	ENDS
PUBLIC	?DestroyMaker@ioKeyMarkAttackBuff@@IAEXPAVioBaseChar@@PAVioPlayStage@@AAK@Z ; ioKeyMarkAttackBuff::DestroyMaker
EXTRN	?EndEffectForce@ioMapEffect@@QAEXXZ:PROC	; ioMapEffect::EndEffectForce
EXTRN	?FindMapEffect@ioPlayStage@@QAEPAVioMapEffect@@K@Z:PROC ; ioPlayStage::FindMapEffect
; Function compile flags: /Ogsp
; File d:\lost saga for developer\youtube\tutorial\source\src\lsclient\iokeymarkattackbuff.cpp
;	COMDAT ?DestroyMaker@ioKeyMarkAttackBuff@@IAEXPAVioBaseChar@@PAVioPlayStage@@AAK@Z
_TEXT	SEGMENT
_pChar$ = 8						; size = 4
_pStage$ = 12						; size = 4
_dwEffectID$ = 16					; size = 4
?DestroyMaker@ioKeyMarkAttackBuff@@IAEXPAVioBaseChar@@PAVioPlayStage@@AAK@Z PROC ; ioKeyMarkAttackBuff::DestroyMaker, COMDAT
; _this$ = ecx

; 460  : {

  00000	55		 push	 ebp
  00001	8b ec		 mov	 ebp, esp

; 461  : 	if ( !pChar || !pStage )

  00003	83 7d 08 00	 cmp	 DWORD PTR _pChar$[ebp], 0
  00007	74 21		 je	 SHORT $LN2@DestroyMak
  00009	8b 4d 0c	 mov	 ecx, DWORD PTR _pStage$[ebp]
  0000c	85 c9		 test	 ecx, ecx
  0000e	74 1a		 je	 SHORT $LN2@DestroyMak

; 462  : 		return;
; 463  : 	ioMapEffect *pMapEffect = pStage->FindMapEffect( dwEffectID );

  00010	56		 push	 esi
  00011	8b 75 10	 mov	 esi, DWORD PTR _dwEffectID$[ebp]
  00014	ff 36		 push	 DWORD PTR [esi]
  00016	e8 00 00 00 00	 call	 ?FindMapEffect@ioPlayStage@@QAEPAVioMapEffect@@K@Z ; ioPlayStage::FindMapEffect

; 464  : 	if ( pMapEffect )

  0001b	85 c0		 test	 eax, eax
  0001d	74 0a		 je	 SHORT $LN6@DestroyMak

; 465  : 	{
; 466  : 		pMapEffect->EndEffectForce();

  0001f	8b c8		 mov	 ecx, eax
  00021	e8 00 00 00 00	 call	 ?EndEffectForce@ioMapEffect@@QAEXXZ ; ioMapEffect::EndEffectForce

; 467  : 		dwEffectID = -1;

  00026	83 0e ff	 or	 DWORD PTR [esi], -1
$LN6@DestroyMak:
  00029	5e		 pop	 esi
$LN2@DestroyMak:

; 468  : 	}
; 469  : }

  0002a	5d		 pop	 ebp
  0002b	c2 0c 00	 ret	 12			; 0000000cH
?DestroyMaker@ioKeyMarkAttackBuff@@IAEXPAVioBaseChar@@PAVioPlayStage@@AAK@Z ENDP ; ioKeyMarkAttackBuff::DestroyMaker
_TEXT	ENDS
PUBLIC	__real@4f800000
PUBLIC	__$ArrayPad$
PUBLIC	?UpdateMark@ioKeyMarkAttackBuff@@IAEXPAVioBaseChar@@PAVioPlayStage@@@Z ; ioKeyMarkAttackBuff::UpdateMark
EXTRN	?SetWorldPosition@ioMapEffect@@QAEXABUD3DXVECTOR3@@@Z:PROC ; ioMapEffect::SetWorldPosition
EXTRN	?GetMidPositionByRate@ioGameEntity@@QBE?AUD3DXVECTOR3@@M@Z:PROC ; ioGameEntity::GetMidPositionByRate
EXTRN	?GetBaseChar@ioPlayStage@@QAEPAVioBaseChar@@ABVioHashString@@@Z:PROC ; ioPlayStage::GetBaseChar
EXTRN	___security_cookie:DWORD
EXTRN	@__security_check_cookie@4:PROC
;	COMDAT __real@4f800000
; File d:\lost saga for developer\youtube\tutorial\source\src\lsclient\stdafx.h
CONST	SEGMENT
__real@4f800000 DD 04f800000r			; 4.29497e+009
; Function compile flags: /Ogsp
; File d:\lost saga for developer\youtube\tutorial\source\src\lsclient\iokeymarkattackbuff.cpp
CONST	ENDS
;	COMDAT ?UpdateMark@ioKeyMarkAttackBuff@@IAEXPAVioBaseChar@@PAVioPlayStage@@@Z
_TEXT	SEGMENT
_pMapEffect$ = -24					; size = 4
tv298 = -20						; size = 4
tv294 = -20						; size = 4
tv290 = -20						; size = 4
tv279 = -20						; size = 4
tv275 = -20						; size = 4
tv270 = -20						; size = 4
tv260 = -20						; size = 4
tv177 = -20						; size = 4
tv84 = -20						; size = 4
_vPos$531505 = -16					; size = 12
_vPos$531499 = -16					; size = 12
_vPos$531493 = -16					; size = 12
__$ArrayPad$ = -4					; size = 4
_pChar$ = 8						; size = 4
_pStage$ = 12						; size = 4
?UpdateMark@ioKeyMarkAttackBuff@@IAEXPAVioBaseChar@@PAVioPlayStage@@@Z PROC ; ioKeyMarkAttackBuff::UpdateMark, COMDAT
; _this$ = ecx

; 472  : {

  00000	55		 push	 ebp
  00001	8b ec		 mov	 ebp, esp
  00003	83 ec 18	 sub	 esp, 24			; 00000018H
  00006	a1 00 00 00 00	 mov	 eax, DWORD PTR ___security_cookie
  0000b	33 c5		 xor	 eax, ebp
  0000d	89 45 fc	 mov	 DWORD PTR __$ArrayPad$[ebp], eax

; 473  : 	if ( !pChar || !pStage )

  00010	83 7d 08 00	 cmp	 DWORD PTR _pChar$[ebp], 0
  00014	56		 push	 esi
  00015	57		 push	 edi
  00016	8b 7d 0c	 mov	 edi, DWORD PTR _pStage$[ebp]
  00019	8b f1		 mov	 esi, ecx
  0001b	0f 84 99 01 00
	00		 je	 $LN10@UpdateMark
  00021	85 ff		 test	 edi, edi
  00023	0f 84 91 01 00
	00		 je	 $LN10@UpdateMark

; 474  : 		return;
; 475  : 
; 476  : 	ioMapEffect *pMapEffect = pStage->FindMapEffect( m_dwA_MarkMapEffectID );

  00029	53		 push	 ebx
  0002a	8d 9e a4 0a 00
	00		 lea	 ebx, DWORD PTR [esi+2724]
  00030	ff 33		 push	 DWORD PTR [ebx]
  00032	8b cf		 mov	 ecx, edi
  00034	e8 00 00 00 00	 call	 ?FindMapEffect@ioPlayStage@@QAEPAVioMapEffect@@K@Z ; ioPlayStage::FindMapEffect
  00039	89 45 e8	 mov	 DWORD PTR _pMapEffect$[ebp], eax

; 477  : 	if( pMapEffect )

  0003c	85 c0		 test	 eax, eax
  0003e	74 6f		 je	 SHORT $LN7@UpdateMark

; 478  : 	{
; 479  : 		ioBaseChar* pTarget = pStage->GetBaseChar( m_szA_MarkTargetName );

  00040	8d 86 34 0a 00
	00		 lea	 eax, DWORD PTR [esi+2612]
  00046	50		 push	 eax
  00047	8b cf		 mov	 ecx, edi
  00049	e8 00 00 00 00	 call	 ?GetBaseChar@ioPlayStage@@QAEPAVioBaseChar@@ABVioHashString@@@Z ; ioPlayStage::GetBaseChar
  0004e	8b c8		 mov	 ecx, eax

; 480  : 		if ( pTarget )

  00050	85 c9		 test	 ecx, ecx
  00052	74 4f		 je	 SHORT $LN8@UpdateMark

; 481  : 		{
; 482  : 			D3DXVECTOR3 vPos = pTarget->GetMidPositionByRate();

  00054	b8 05 00 00 00	 mov	 eax, 5
  00059	8b d0		 mov	 edx, eax
  0005b	b8 0a 00 00 00	 mov	 eax, 10			; 0000000aH
  00060	89 55 ec	 mov	 DWORD PTR tv298[ebp], edx
  00063	db 45 ec	 fild	 DWORD PTR tv298[ebp]
  00066	85 d2		 test	 edx, edx
  00068	79 06		 jns	 SHORT $LN27@UpdateMark
  0006a	d8 05 00 00 00
	00		 fadd	 DWORD PTR __real@4f800000
$LN27@UpdateMark:
  00070	89 45 ec	 mov	 DWORD PTR tv294[ebp], eax
  00073	db 45 ec	 fild	 DWORD PTR tv294[ebp]
  00076	85 c0		 test	 eax, eax
  00078	79 06		 jns	 SHORT $LN28@UpdateMark
  0007a	d8 05 00 00 00
	00		 fadd	 DWORD PTR __real@4f800000
$LN28@UpdateMark:
  00080	de f9		 fdivp	 ST(1), ST(0)
  00082	51		 push	 ecx
  00083	8d 45 f0	 lea	 eax, DWORD PTR _vPos$531493[ebp]
  00086	d9 5d ec	 fstp	 DWORD PTR tv290[ebp]
  00089	d9 45 ec	 fld	 DWORD PTR tv290[ebp]
  0008c	d9 1c 24	 fstp	 DWORD PTR [esp]
  0008f	50		 push	 eax
  00090	e8 00 00 00 00	 call	 ?GetMidPositionByRate@ioGameEntity@@QBE?AUD3DXVECTOR3@@M@Z ; ioGameEntity::GetMidPositionByRate

; 483  : 			pMapEffect->SetWorldPosition( vPos );

  00095	8b 4d e8	 mov	 ecx, DWORD PTR _pMapEffect$[ebp]
  00098	8d 45 f0	 lea	 eax, DWORD PTR _vPos$531493[ebp]
  0009b	50		 push	 eax
  0009c	e8 00 00 00 00	 call	 ?SetWorldPosition@ioMapEffect@@QAEXABUD3DXVECTOR3@@@Z ; ioMapEffect::SetWorldPosition

; 484  : 		}
; 485  : 		else

  000a1	eb 0c		 jmp	 SHORT $LN7@UpdateMark
$LN8@UpdateMark:

; 486  : 			DestroyMaker( pChar, pStage, m_dwA_MarkMapEffectID );

  000a3	53		 push	 ebx
  000a4	57		 push	 edi
  000a5	ff 75 08	 push	 DWORD PTR _pChar$[ebp]
  000a8	8b ce		 mov	 ecx, esi
  000aa	e8 00 00 00 00	 call	 ?DestroyMaker@ioKeyMarkAttackBuff@@IAEXPAVioBaseChar@@PAVioPlayStage@@AAK@Z ; ioKeyMarkAttackBuff::DestroyMaker
$LN7@UpdateMark:

; 487  : 	}
; 488  : 
; 489  : 	pMapEffect = pStage->FindMapEffect( m_dwS_MarkMapEffectID );

  000af	8d 9e a8 0a 00
	00		 lea	 ebx, DWORD PTR [esi+2728]
  000b5	ff 33		 push	 DWORD PTR [ebx]
  000b7	8b cf		 mov	 ecx, edi
  000b9	e8 00 00 00 00	 call	 ?FindMapEffect@ioPlayStage@@QAEPAVioMapEffect@@K@Z ; ioPlayStage::FindMapEffect
  000be	89 45 e8	 mov	 DWORD PTR _pMapEffect$[ebp], eax

; 490  : 	if( pMapEffect )

  000c1	85 c0		 test	 eax, eax
  000c3	74 6f		 je	 SHORT $LN4@UpdateMark

; 491  : 	{
; 492  : 		ioBaseChar* pTarget = pStage->GetBaseChar( m_szS_MarkTargetName );

  000c5	8d 86 44 0a 00
	00		 lea	 eax, DWORD PTR [esi+2628]
  000cb	50		 push	 eax
  000cc	8b cf		 mov	 ecx, edi
  000ce	e8 00 00 00 00	 call	 ?GetBaseChar@ioPlayStage@@QAEPAVioBaseChar@@ABVioHashString@@@Z ; ioPlayStage::GetBaseChar
  000d3	8b c8		 mov	 ecx, eax

; 493  : 		if ( pTarget )

  000d5	85 c9		 test	 ecx, ecx
  000d7	74 4f		 je	 SHORT $LN5@UpdateMark

; 494  : 		{
; 495  : 			D3DXVECTOR3 vPos = pTarget->GetMidPositionByRate();

  000d9	b8 05 00 00 00	 mov	 eax, 5
  000de	8b d0		 mov	 edx, eax
  000e0	b8 0a 00 00 00	 mov	 eax, 10			; 0000000aH
  000e5	89 55 ec	 mov	 DWORD PTR tv279[ebp], edx
  000e8	db 45 ec	 fild	 DWORD PTR tv279[ebp]
  000eb	85 d2		 test	 edx, edx
  000ed	79 06		 jns	 SHORT $LN29@UpdateMark
  000ef	d8 05 00 00 00
	00		 fadd	 DWORD PTR __real@4f800000
$LN29@UpdateMark:
  000f5	89 45 ec	 mov	 DWORD PTR tv275[ebp], eax
  000f8	db 45 ec	 fild	 DWORD PTR tv275[ebp]
  000fb	85 c0		 test	 eax, eax
  000fd	79 06		 jns	 SHORT $LN30@UpdateMark
  000ff	d8 05 00 00 00
	00		 fadd	 DWORD PTR __real@4f800000
$LN30@UpdateMark:
  00105	de f9		 fdivp	 ST(1), ST(0)
  00107	51		 push	 ecx
  00108	8d 45 f0	 lea	 eax, DWORD PTR _vPos$531499[ebp]
  0010b	d9 5d ec	 fstp	 DWORD PTR tv270[ebp]
  0010e	d9 45 ec	 fld	 DWORD PTR tv270[ebp]
  00111	d9 1c 24	 fstp	 DWORD PTR [esp]
  00114	50		 push	 eax
  00115	e8 00 00 00 00	 call	 ?GetMidPositionByRate@ioGameEntity@@QBE?AUD3DXVECTOR3@@M@Z ; ioGameEntity::GetMidPositionByRate

; 496  : 			pMapEffect->SetWorldPosition( vPos );

  0011a	8b 4d e8	 mov	 ecx, DWORD PTR _pMapEffect$[ebp]
  0011d	8d 45 f0	 lea	 eax, DWORD PTR _vPos$531499[ebp]
  00120	50		 push	 eax
  00121	e8 00 00 00 00	 call	 ?SetWorldPosition@ioMapEffect@@QAEXABUD3DXVECTOR3@@@Z ; ioMapEffect::SetWorldPosition

; 497  : 		}
; 498  : 		else

  00126	eb 0c		 jmp	 SHORT $LN4@UpdateMark
$LN5@UpdateMark:

; 499  : 			DestroyMaker( pChar, pStage, m_dwS_MarkMapEffectID );

  00128	53		 push	 ebx
  00129	57		 push	 edi
  0012a	ff 75 08	 push	 DWORD PTR _pChar$[ebp]
  0012d	8b ce		 mov	 ecx, esi
  0012f	e8 00 00 00 00	 call	 ?DestroyMaker@ioKeyMarkAttackBuff@@IAEXPAVioBaseChar@@PAVioPlayStage@@AAK@Z ; ioKeyMarkAttackBuff::DestroyMaker
$LN4@UpdateMark:

; 500  : 	}
; 501  : 
; 502  : 	pMapEffect = pStage->FindMapEffect( m_dwD_MarkMapEffectID );

  00134	8d 9e ac 0a 00
	00		 lea	 ebx, DWORD PTR [esi+2732]
  0013a	ff 33		 push	 DWORD PTR [ebx]
  0013c	8b cf		 mov	 ecx, edi
  0013e	e8 00 00 00 00	 call	 ?FindMapEffect@ioPlayStage@@QAEPAVioMapEffect@@K@Z ; ioPlayStage::FindMapEffect
  00143	89 45 e8	 mov	 DWORD PTR _pMapEffect$[ebp], eax

; 503  : 	if( pMapEffect )

  00146	85 c0		 test	 eax, eax
  00148	74 6f		 je	 SHORT $LN26@UpdateMark

; 504  : 	{
; 505  : 		ioBaseChar* pTarget = pStage->GetBaseChar( m_szD_MarkTargetName );

  0014a	8d 86 54 0a 00
	00		 lea	 eax, DWORD PTR [esi+2644]
  00150	50		 push	 eax
  00151	8b cf		 mov	 ecx, edi
  00153	e8 00 00 00 00	 call	 ?GetBaseChar@ioPlayStage@@QAEPAVioBaseChar@@ABVioHashString@@@Z ; ioPlayStage::GetBaseChar
  00158	8b c8		 mov	 ecx, eax

; 506  : 		if ( pTarget )

  0015a	85 c9		 test	 ecx, ecx
  0015c	74 4f		 je	 SHORT $LN2@UpdateMark

; 507  : 		{
; 508  : 			D3DXVECTOR3 vPos = pTarget->GetMidPositionByRate();

  0015e	b8 05 00 00 00	 mov	 eax, 5
  00163	8b d0		 mov	 edx, eax
  00165	b8 0a 00 00 00	 mov	 eax, 10			; 0000000aH
  0016a	89 55 ec	 mov	 DWORD PTR tv260[ebp], edx
  0016d	db 45 ec	 fild	 DWORD PTR tv260[ebp]
  00170	85 d2		 test	 edx, edx
  00172	79 06		 jns	 SHORT $LN31@UpdateMark
  00174	d8 05 00 00 00
	00		 fadd	 DWORD PTR __real@4f800000
$LN31@UpdateMark:
  0017a	89 45 ec	 mov	 DWORD PTR tv177[ebp], eax
  0017d	db 45 ec	 fild	 DWORD PTR tv177[ebp]
  00180	85 c0		 test	 eax, eax
  00182	79 06		 jns	 SHORT $LN32@UpdateMark
  00184	d8 05 00 00 00
	00		 fadd	 DWORD PTR __real@4f800000
$LN32@UpdateMark:
  0018a	de f9		 fdivp	 ST(1), ST(0)
  0018c	51		 push	 ecx
  0018d	8d 45 f0	 lea	 eax, DWORD PTR _vPos$531505[ebp]
  00190	d9 5d ec	 fstp	 DWORD PTR tv84[ebp]
  00193	d9 45 ec	 fld	 DWORD PTR tv84[ebp]
  00196	d9 1c 24	 fstp	 DWORD PTR [esp]
  00199	50		 push	 eax
  0019a	e8 00 00 00 00	 call	 ?GetMidPositionByRate@ioGameEntity@@QBE?AUD3DXVECTOR3@@M@Z ; ioGameEntity::GetMidPositionByRate

; 509  : 			pMapEffect->SetWorldPosition( vPos );

  0019f	8b 4d e8	 mov	 ecx, DWORD PTR _pMapEffect$[ebp]
  001a2	8d 45 f0	 lea	 eax, DWORD PTR _vPos$531505[ebp]
  001a5	50		 push	 eax
  001a6	e8 00 00 00 00	 call	 ?SetWorldPosition@ioMapEffect@@QAEXABUD3DXVECTOR3@@@Z ; ioMapEffect::SetWorldPosition

; 510  : 		}
; 511  : 		else

  001ab	eb 0c		 jmp	 SHORT $LN26@UpdateMark
$LN2@UpdateMark:

; 512  : 			DestroyMaker( pChar, pStage, m_dwD_MarkMapEffectID );

  001ad	53		 push	 ebx
  001ae	57		 push	 edi
  001af	ff 75 08	 push	 DWORD PTR _pChar$[ebp]
  001b2	8b ce		 mov	 ecx, esi
  001b4	e8 00 00 00 00	 call	 ?DestroyMaker@ioKeyMarkAttackBuff@@IAEXPAVioBaseChar@@PAVioPlayStage@@AAK@Z ; ioKeyMarkAttackBuff::DestroyMaker
$LN26@UpdateMark:
  001b9	5b		 pop	 ebx
$LN10@UpdateMark:

; 513  : 	}
; 514  : }

  001ba	8b 4d fc	 mov	 ecx, DWORD PTR __$ArrayPad$[ebp]
  001bd	5f		 pop	 edi
  001be	33 cd		 xor	 ecx, ebp
  001c0	5e		 pop	 esi
  001c1	e8 00 00 00 00	 call	 @__security_check_cookie@4
  001c6	c9		 leave
  001c7	c2 08 00	 ret	 8
?UpdateMark@ioKeyMarkAttackBuff@@IAEXPAVioBaseChar@@PAVioPlayStage@@@Z ENDP ; ioKeyMarkAttackBuff::UpdateMark
_TEXT	ENDS
PUBLIC	?CheckInputKey@ioKeyMarkAttackBuff@@IAE_NPAVioBaseChar@@PAVioPlayStage@@@Z ; ioKeyMarkAttackBuff::CheckInputKey
EXTRN	?IsJumpKey@ioBaseChar@@QBE_NXZ:PROC		; ioBaseChar::IsJumpKey
EXTRN	?IsDefenseKey@ioBaseChar@@QBE_NXZ:PROC		; ioBaseChar::IsDefenseKey
EXTRN	__imp_?GetLoopSec@ioFrameTimer@@QBEKXZ:PROC
EXTRN	__imp_?GetSingleton@ioFrameTimer@@SAAAV1@XZ:PROC
EXTRN	__imp_??4ioHashString@@QAEAAV0@ABV0@@Z:PROC
EXTRN	?IsAttackKey@ioBaseChar@@QBE_NXZ:PROC		; ioBaseChar::IsAttackKey
; Function compile flags: /Ogsp
;	COMDAT ?CheckInputKey@ioKeyMarkAttackBuff@@IAE_NPAVioBaseChar@@PAVioPlayStage@@@Z
_TEXT	SEGMENT
_pChar$ = 8						; size = 4
_pStage$ = 12						; size = 4
?CheckInputKey@ioKeyMarkAttackBuff@@IAE_NPAVioBaseChar@@PAVioPlayStage@@@Z PROC ; ioKeyMarkAttackBuff::CheckInputKey, COMDAT
; _this$ = ecx

; 517  : {

  00000	55		 push	 ebp
  00001	8b ec		 mov	 ebp, esp
  00003	53		 push	 ebx
  00004	56		 push	 esi
  00005	8b f1		 mov	 esi, ecx

; 518  : 	if ( !pChar || !pStage )

  00007	8b 4d 08	 mov	 ecx, DWORD PTR _pChar$[ebp]
  0000a	33 db		 xor	 ebx, ebx
  0000c	3b cb		 cmp	 ecx, ebx
  0000e	0f 84 ef 00 00
	00		 je	 $LN11@CheckInput
  00014	39 5d 0c	 cmp	 DWORD PTR _pStage$[ebp], ebx
  00017	0f 84 e6 00 00
	00		 je	 $LN11@CheckInput

; 520  : 
; 521  : 	if ( !m_bInputKey )

  0001d	38 9e c4 0a 00
	00		 cmp	 BYTE PTR [esi+2756], bl
  00023	0f 85 e2 00 00
	00		 jne	 $LN10@CheckInput

; 522  : 	{
; 523  : 		if ( pChar->IsAttackKey() )

  00029	57		 push	 edi
  0002a	e8 00 00 00 00	 call	 ?IsAttackKey@ioBaseChar@@QBE_NXZ ; ioBaseChar::IsAttackKey
  0002f	8b 3d 00 00 00
	00		 mov	 edi, DWORD PTR __imp_??4ioHashString@@QAEAAV0@ABV0@@Z
  00035	8b 1d 00 00 00
	00		 mov	 ebx, DWORD PTR __imp_?GetSingleton@ioFrameTimer@@SAAAV1@XZ
  0003b	84 c0		 test	 al, al
  0003d	74 39		 je	 SHORT $LN8@CheckInput

; 524  : 		{
; 525  : 			ioBaseChar* pTarget = pStage->GetBaseChar( m_szD_MarkTargetName );

  0003f	8b 4d 0c	 mov	 ecx, DWORD PTR _pStage$[ebp]
  00042	8d 86 54 0a 00
	00		 lea	 eax, DWORD PTR [esi+2644]
  00048	50		 push	 eax
  00049	e8 00 00 00 00	 call	 ?GetBaseChar@ioPlayStage@@QAEPAVioBaseChar@@ABVioHashString@@@Z ; ioPlayStage::GetBaseChar

; 526  : 			if ( pTarget )

  0004e	85 c0		 test	 eax, eax
  00050	74 26		 je	 SHORT $LN8@CheckInput

; 527  : 			{
; 528  : 				m_szAttackTarget = m_szD_MarkTargetName;

  00052	8d 86 54 0a 00
	00		 lea	 eax, DWORD PTR [esi+2644]
  00058	50		 push	 eax
  00059	8d 8e b4 0a 00
	00		 lea	 ecx, DWORD PTR [esi+2740]
  0005f	ff d7		 call	 edi

; 529  : 				m_dwKeyInputTime = FRAMEGETTIME();

  00061	ff d3		 call	 ebx
  00063	8b c8		 mov	 ecx, eax
  00065	ff 15 00 00 00
	00		 call	 DWORD PTR __imp_?GetLoopSec@ioFrameTimer@@QBEKXZ
  0006b	89 86 cc 0a 00
	00		 mov	 DWORD PTR [esi+2764], eax

; 530  : 				m_bInputKey = true;

  00071	c6 86 c4 0a 00
	00 01		 mov	 BYTE PTR [esi+2756], 1
$LN8@CheckInput:

; 531  : 			}
; 532  : 		}
; 533  : 
; 534  : 		if ( pChar->IsDefenseKey() )

  00078	8b 4d 08	 mov	 ecx, DWORD PTR _pChar$[ebp]
  0007b	e8 00 00 00 00	 call	 ?IsDefenseKey@ioBaseChar@@QBE_NXZ ; ioBaseChar::IsDefenseKey
  00080	84 c0		 test	 al, al
  00082	74 39		 je	 SHORT $LN6@CheckInput

; 535  : 		{
; 536  : 			ioBaseChar* pTarget = pStage->GetBaseChar( m_szS_MarkTargetName );

  00084	8b 4d 0c	 mov	 ecx, DWORD PTR _pStage$[ebp]
  00087	8d 86 44 0a 00
	00		 lea	 eax, DWORD PTR [esi+2628]
  0008d	50		 push	 eax
  0008e	e8 00 00 00 00	 call	 ?GetBaseChar@ioPlayStage@@QAEPAVioBaseChar@@ABVioHashString@@@Z ; ioPlayStage::GetBaseChar

; 537  : 			if ( pTarget )

  00093	85 c0		 test	 eax, eax
  00095	74 26		 je	 SHORT $LN6@CheckInput

; 538  : 			{
; 539  : 				m_szAttackTarget = m_szS_MarkTargetName;

  00097	8d 86 44 0a 00
	00		 lea	 eax, DWORD PTR [esi+2628]
  0009d	50		 push	 eax
  0009e	8d 8e b4 0a 00
	00		 lea	 ecx, DWORD PTR [esi+2740]
  000a4	ff d7		 call	 edi

; 540  : 				m_dwKeyInputTime = FRAMEGETTIME();

  000a6	ff d3		 call	 ebx
  000a8	8b c8		 mov	 ecx, eax
  000aa	ff 15 00 00 00
	00		 call	 DWORD PTR __imp_?GetLoopSec@ioFrameTimer@@QBEKXZ
  000b0	89 86 cc 0a 00
	00		 mov	 DWORD PTR [esi+2764], eax

; 541  : 				m_bInputKey = true;

  000b6	c6 86 c4 0a 00
	00 01		 mov	 BYTE PTR [esi+2756], 1
$LN6@CheckInput:

; 542  : 			}
; 543  : 		}
; 544  : 
; 545  : 		if ( pChar->IsJumpKey() )

  000bd	8b 4d 08	 mov	 ecx, DWORD PTR _pChar$[ebp]
  000c0	e8 00 00 00 00	 call	 ?IsJumpKey@ioBaseChar@@QBE_NXZ ; ioBaseChar::IsJumpKey
  000c5	84 c0		 test	 al, al
  000c7	74 39		 je	 SHORT $LN15@CheckInput

; 546  : 		{
; 547  : 			ioBaseChar* pTarget = pStage->GetBaseChar( m_szA_MarkTargetName );

  000c9	8b 4d 0c	 mov	 ecx, DWORD PTR _pStage$[ebp]
  000cc	8d 86 34 0a 00
	00		 lea	 eax, DWORD PTR [esi+2612]
  000d2	50		 push	 eax
  000d3	e8 00 00 00 00	 call	 ?GetBaseChar@ioPlayStage@@QAEPAVioBaseChar@@ABVioHashString@@@Z ; ioPlayStage::GetBaseChar

; 548  : 			if ( pTarget )

  000d8	85 c0		 test	 eax, eax
  000da	74 26		 je	 SHORT $LN15@CheckInput

; 549  : 			{
; 550  : 				m_szAttackTarget = m_szA_MarkTargetName;

  000dc	8d 86 34 0a 00
	00		 lea	 eax, DWORD PTR [esi+2612]
  000e2	50		 push	 eax
  000e3	8d 8e b4 0a 00
	00		 lea	 ecx, DWORD PTR [esi+2740]
  000e9	ff d7		 call	 edi

; 551  : 				m_dwKeyInputTime = FRAMEGETTIME();

  000eb	ff d3		 call	 ebx
  000ed	8b c8		 mov	 ecx, eax
  000ef	ff 15 00 00 00
	00		 call	 DWORD PTR __imp_?GetLoopSec@ioFrameTimer@@QBEKXZ
  000f5	89 86 cc 0a 00
	00		 mov	 DWORD PTR [esi+2764], eax

; 552  : 				m_bInputKey = true;

  000fb	c6 86 c4 0a 00
	00 01		 mov	 BYTE PTR [esi+2756], 1
$LN15@CheckInput:
  00102	5f		 pop	 edi
$LN11@CheckInput:

; 519  : 		return false;

  00103	32 c0		 xor	 al, al
$LN13@CheckInput:
  00105	5e		 pop	 esi
  00106	5b		 pop	 ebx

; 567  : 		}
; 568  : 	}
; 569  : 
; 570  : 	return false;
; 571  : }

  00107	5d		 pop	 ebp
  00108	c2 08 00	 ret	 8
$LN10@CheckInput:

; 553  : 			}
; 554  : 		}
; 555  : 	}
; 556  : 	else
; 557  : 	{
; 558  : 		if ( m_dwKeyInputTime + m_dwAttackDelayTime < FRAMEGETTIME() )

  0010b	ff 15 00 00 00
	00		 call	 DWORD PTR __imp_?GetSingleton@ioFrameTimer@@SAAAV1@XZ
  00111	8b c8		 mov	 ecx, eax
  00113	ff 15 00 00 00
	00		 call	 DWORD PTR __imp_?GetLoopSec@ioFrameTimer@@QBEKXZ
  00119	8b 8e cc 0a 00
	00		 mov	 ecx, DWORD PTR [esi+2764]
  0011f	03 8e c8 0a 00
	00		 add	 ecx, DWORD PTR [esi+2760]
  00125	3b c8		 cmp	 ecx, eax
  00127	73 da		 jae	 SHORT $LN11@CheckInput

; 559  : 		{
; 560  : 			ioBaseChar* pTarget = pStage->GetBaseChar( m_szAttackTarget );

  00129	8b 4d 0c	 mov	 ecx, DWORD PTR _pStage$[ebp]
  0012c	8d 86 b4 0a 00
	00		 lea	 eax, DWORD PTR [esi+2740]
  00132	50		 push	 eax
  00133	e8 00 00 00 00	 call	 ?GetBaseChar@ioPlayStage@@QAEPAVioBaseChar@@ABVioHashString@@@Z ; ioPlayStage::GetBaseChar

; 561  : 			if ( !pTarget )

  00138	85 c0		 test	 eax, eax
  0013a	75 08		 jne	 SHORT $LN1@CheckInput

; 562  : 			{
; 563  : 				m_bInputKey = false;

  0013c	88 9e c4 0a 00
	00		 mov	 BYTE PTR [esi+2756], bl

; 564  : 				return false;

  00142	eb bf		 jmp	 SHORT $LN11@CheckInput
$LN1@CheckInput:

; 565  : 			}
; 566  : 			return true;

  00144	b0 01		 mov	 al, 1
  00146	eb bd		 jmp	 SHORT $LN13@CheckInput
?CheckInputKey@ioKeyMarkAttackBuff@@IAE_NPAVioBaseChar@@PAVioPlayStage@@@Z ENDP ; ioKeyMarkAttackBuff::CheckInputKey
_TEXT	ENDS
PUBLIC	?CheckEnableOwnerState@ioKeyMarkAttackBuff@@IAE_NPAVioBaseChar@@PAVioPlayStage@@@Z ; ioKeyMarkAttackBuff::CheckEnableOwnerState
; Function compile flags: /Ogsp
;	COMDAT ?CheckEnableOwnerState@ioKeyMarkAttackBuff@@IAE_NPAVioBaseChar@@PAVioPlayStage@@@Z
_TEXT	SEGMENT
_pChar$ = 8						; size = 4
_pStage$ = 12						; size = 4
?CheckEnableOwnerState@ioKeyMarkAttackBuff@@IAE_NPAVioBaseChar@@PAVioPlayStage@@@Z PROC ; ioKeyMarkAttackBuff::CheckEnableOwnerState, COMDAT
; _this$ = ecx

; 591  : {

  00000	55		 push	 ebp
  00001	8b ec		 mov	 ebp, esp

; 592  : 	if ( !pChar || !pStage )

  00003	8b 45 08	 mov	 eax, DWORD PTR _pChar$[ebp]
  00006	33 d2		 xor	 edx, edx
  00008	3b c2		 cmp	 eax, edx
  0000a	74 29		 je	 SHORT $LN14@CheckEnabl
  0000c	39 55 0c	 cmp	 DWORD PTR _pStage$[ebp], edx
  0000f	74 24		 je	 SHORT $LN14@CheckEnabl

; 594  : 
; 595  : 	CharState eState = pChar->GetState();

  00011	8a 80 10 03 00
	00		 mov	 al, BYTE PTR [eax+784]

; 596  : 
; 597  : 	if( eState == CS_DROP_ZONE_DOWN )

  00017	3c 10		 cmp	 al, 16			; 00000010H

; 598  : 		return false;

  00019	74 1a		 je	 SHORT $LN14@CheckEnabl

; 599  : 
; 600  : 	if ( m_bDisableOwnerDownAttack )

  0001b	38 91 e3 0b 00
	00		 cmp	 BYTE PTR [ecx+3043], dl
  00021	74 69		 je	 SHORT $LN1@CheckEnabl

; 601  : 	{
; 602  : 		if( eState == CS_FROZEN && m_pOwner->GetBlowFrozenState() )

  00023	3c 17		 cmp	 al, 23			; 00000017H
  00025	75 14		 jne	 SHORT $LN11@CheckEnabl
  00027	8b 81 74 02 00
	00		 mov	 eax, DWORD PTR [ecx+628]
  0002d	38 90 c5 15 00
	00		 cmp	 BYTE PTR [eax+5573], dl
$LN26@CheckEnabl:
  00033	74 57		 je	 SHORT $LN1@CheckEnabl
$LN14@CheckEnabl:

; 593  : 		return false;

  00035	32 c0		 xor	 al, al
$LN16@CheckEnabl:

; 616  : }

  00037	5d		 pop	 ebp
  00038	c2 08 00	 ret	 8
$LN11@CheckEnabl:

; 603  : 			return false;
; 604  : 		else if( eState == CS_BLOW_WOUNDED && !m_pOwner->IsFloatingState() )

  0003b	3c 0c		 cmp	 al, 12			; 0000000cH
  0003d	75 11		 jne	 SHORT $LN9@CheckEnabl
$LN27@CheckEnabl:
  0003f	8b 89 74 02 00
	00		 mov	 ecx, DWORD PTR [ecx+628]
  00045	e8 00 00 00 00	 call	 ?IsFloatingState@ioBaseChar@@QBE_NXZ ; ioBaseChar::IsFloatingState
  0004a	84 c0		 test	 al, al
  0004c	75 3e		 jne	 SHORT $LN1@CheckEnabl

; 605  : 			return false;

  0004e	eb e5		 jmp	 SHORT $LN14@CheckEnabl
$LN9@CheckEnabl:

; 606  : 		else if( eState == CS_BOUND_BLOW_WOUNDED && !m_pOwner->IsFloatingState() )

  00050	3c 31		 cmp	 al, 49			; 00000031H

; 607  : 			return false;

  00052	74 eb		 je	 SHORT $LN27@CheckEnabl

; 608  : 		else if( eState == CS_ETC_STATE && m_pOwner->IsApplyDownState(false) )

  00054	3c 0f		 cmp	 al, 15			; 0000000fH
  00056	75 10		 jne	 SHORT $LN5@CheckEnabl
  00058	8b 89 74 02 00
	00		 mov	 ecx, DWORD PTR [ecx+628]
  0005e	52		 push	 edx
  0005f	e8 00 00 00 00	 call	 ?IsApplyDownState@ioBaseChar@@QAE_N_N@Z ; ioBaseChar::IsApplyDownState
  00064	84 c0		 test	 al, al

; 609  : 			return false;

  00066	eb cb		 jmp	 SHORT $LN26@CheckEnabl
$LN5@CheckEnabl:

; 610  : 		else if( eState == CS_STOP_MOTION && m_pOwner->GetBlowStopMotionState() )

  00068	3c 26		 cmp	 al, 38			; 00000026H
  0006a	75 0e		 jne	 SHORT $LN3@CheckEnabl
  0006c	8b 81 74 02 00
	00		 mov	 eax, DWORD PTR [ecx+628]
  00072	38 90 c7 15 00
	00		 cmp	 BYTE PTR [eax+5575], dl

; 611  : 			return false;

  00078	eb b9		 jmp	 SHORT $LN26@CheckEnabl
$LN3@CheckEnabl:

; 612  : 		else if( eState == CS_ICE_STATE && m_pOwner->GetBlowStopMotionState() )

  0007a	3c 3b		 cmp	 al, 59			; 0000003bH
  0007c	75 0e		 jne	 SHORT $LN1@CheckEnabl
  0007e	8b 81 74 02 00
	00		 mov	 eax, DWORD PTR [ecx+628]
  00084	38 90 c7 15 00
	00		 cmp	 BYTE PTR [eax+5575], dl

; 613  : 			return false;

  0008a	75 a9		 jne	 SHORT $LN14@CheckEnabl
$LN1@CheckEnabl:

; 614  : 	}
; 615  : 	return true;

  0008c	b0 01		 mov	 al, 1
  0008e	eb a7		 jmp	 SHORT $LN16@CheckEnabl
?CheckEnableOwnerState@ioKeyMarkAttackBuff@@IAE_NPAVioBaseChar@@PAVioPlayStage@@@Z ENDP ; ioKeyMarkAttackBuff::CheckEnableOwnerState
_TEXT	ENDS
PUBLIC	?IsAirState@ioKeyMarkAttackBuff@@IAE_NPAVioBaseChar@@@Z ; ioKeyMarkAttackBuff::IsAirState
EXTRN	?IsFloating@ioBaseChar@@QAE_NXZ:PROC		; ioBaseChar::IsFloating
; Function compile flags: /Ogsp
;	COMDAT ?IsAirState@ioKeyMarkAttackBuff@@IAE_NPAVioBaseChar@@@Z
_TEXT	SEGMENT
_pTarget$ = 8						; size = 4
?IsAirState@ioKeyMarkAttackBuff@@IAE_NPAVioBaseChar@@@Z PROC ; ioKeyMarkAttackBuff::IsAirState, COMDAT
; _this$ = ecx

; 817  : {

  00000	55		 push	 ebp
  00001	8b ec		 mov	 ebp, esp

; 818  : 	if( pTarget->IsFloating() )

  00003	8b 4d 08	 mov	 ecx, DWORD PTR _pTarget$[ebp]
  00006	e8 00 00 00 00	 call	 ?IsFloating@ioBaseChar@@QAE_NXZ ; ioBaseChar::IsFloating
  0000b	84 c0		 test	 al, al
  0000d	0f 95 c0	 setne	 al

; 819  : 		return true;
; 820  : 
; 821  : 	return false;
; 822  : }

  00010	5d		 pop	 ebp
  00011	c2 04 00	 ret	 4
?IsAirState@ioKeyMarkAttackBuff@@IAE_NPAVioBaseChar@@@Z ENDP ; ioKeyMarkAttackBuff::IsAirState
_TEXT	ENDS
PUBLIC	?IsDownState@ioKeyMarkAttackBuff@@IAE_NPAVioBaseChar@@@Z ; ioKeyMarkAttackBuff::IsDownState
; Function compile flags: /Ogsp
;	COMDAT ?IsDownState@ioKeyMarkAttackBuff@@IAE_NPAVioBaseChar@@@Z
_TEXT	SEGMENT
_pTarget$ = 8						; size = 4
?IsDownState@ioKeyMarkAttackBuff@@IAE_NPAVioBaseChar@@@Z PROC ; ioKeyMarkAttackBuff::IsDownState, COMDAT
; _this$ = ecx

; 825  : {

  00000	55		 push	 ebp
  00001	8b ec		 mov	 ebp, esp

; 826  : 	CharState eState = pTarget->GetState();

  00003	8b 4d 08	 mov	 ecx, DWORD PTR _pTarget$[ebp]
  00006	8a 81 10 03 00
	00		 mov	 al, BYTE PTR [ecx+784]

; 827  : 	if( eState == CS_FROZEN && pTarget->GetBlowFrozenState() )

  0000c	3c 17		 cmp	 al, 23			; 00000017H
  0000e	75 0d		 jne	 SHORT $LN13@IsDownStat
  00010	80 b9 c5 15 00
	00 00		 cmp	 BYTE PTR [ecx+5573], 0
$LN25@IsDownStat:
  00017	74 3b		 je	 SHORT $LN1@IsDownStat
$LN24@IsDownStat:

; 828  : 		return true;

  00019	b0 01		 mov	 al, 1
  0001b	eb 39		 jmp	 SHORT $LN14@IsDownStat
$LN13@IsDownStat:

; 829  : 	else if( eState == CS_BLOW_WOUNDED && !pTarget->IsFloatingState() )

  0001d	3c 0c		 cmp	 al, 12			; 0000000cH
  0001f	75 0b		 jne	 SHORT $LN11@IsDownStat
$LN28@IsDownStat:
  00021	e8 00 00 00 00	 call	 ?IsFloatingState@ioBaseChar@@QBE_NXZ ; ioBaseChar::IsFloatingState
  00026	84 c0		 test	 al, al
  00028	75 2a		 jne	 SHORT $LN1@IsDownStat

; 830  : 		return true;

  0002a	eb ed		 jmp	 SHORT $LN24@IsDownStat
$LN11@IsDownStat:

; 831  : 	else if( eState == CS_BOUND_BLOW_WOUNDED && !pTarget->IsFloatingState() )

  0002c	3c 31		 cmp	 al, 49			; 00000031H

; 832  : 		return true;

  0002e	74 f1		 je	 SHORT $LN28@IsDownStat

; 833  : 	else if( eState == CS_ETC_STATE && pTarget->IsApplyDownState(false) )

  00030	3c 0f		 cmp	 al, 15			; 0000000fH
  00032	75 0b		 jne	 SHORT $LN7@IsDownStat
$LN26@IsDownStat:
  00034	6a 00		 push	 0
  00036	e8 00 00 00 00	 call	 ?IsApplyDownState@ioBaseChar@@QAE_N_N@Z ; ioBaseChar::IsApplyDownState
  0003b	84 c0		 test	 al, al

; 834  : 		return true;

  0003d	eb d8		 jmp	 SHORT $LN25@IsDownStat
$LN7@IsDownStat:

; 835  : 	else if( eState == CS_STOP_MOTION && pTarget->GetBlowStopMotionState() )

  0003f	3c 26		 cmp	 al, 38			; 00000026H
  00041	75 09		 jne	 SHORT $LN5@IsDownStat
$LN27@IsDownStat:
  00043	80 b9 c7 15 00
	00 00		 cmp	 BYTE PTR [ecx+5575], 0

; 836  : 		return true;

  0004a	eb cb		 jmp	 SHORT $LN25@IsDownStat
$LN5@IsDownStat:

; 837  : 	else if( eState == CS_ICE_STATE && pTarget->GetBlowStopMotionState() )

  0004c	3c 3b		 cmp	 al, 59			; 0000003bH

; 838  : 		return true;

  0004e	74 f3		 je	 SHORT $LN27@IsDownStat

; 839  : 	else if( eState == CS_USING_SKILL && pTarget->IsApplyDownState(false) )

  00050	3c 07		 cmp	 al, 7

; 840  : 		return true;

  00052	74 e0		 je	 SHORT $LN26@IsDownStat
$LN1@IsDownStat:

; 841  : 
; 842  : 	return false;

  00054	32 c0		 xor	 al, al
$LN14@IsDownStat:

; 843  : }

  00056	5d		 pop	 ebp
  00057	c2 04 00	 ret	 4
?IsDownState@ioKeyMarkAttackBuff@@IAE_NPAVioBaseChar@@@Z ENDP ; ioKeyMarkAttackBuff::IsDownState
_TEXT	ENDS
PUBLIC	?EndBuff@ioKeyMarkAttackBuff@@UAEXXZ		; ioKeyMarkAttackBuff::EndBuff
EXTRN	?SetCurItemSkillGauge@ioBaseChar@@QAEXABVioHashString@@M@Z:PROC ; ioBaseChar::SetCurItemSkillGauge
EXTRN	?EndBuff@ioBuff@@UAEXXZ:PROC			; ioBuff::EndBuff
; Function compile flags: /Ogsp
;	COMDAT ?EndBuff@ioKeyMarkAttackBuff@@UAEXXZ
_TEXT	SEGMENT
?EndBuff@ioKeyMarkAttackBuff@@UAEXXZ PROC		; ioKeyMarkAttackBuff::EndBuff, COMDAT
; _this$ = ecx

; 869  : {

  00000	56		 push	 esi
  00001	8b f1		 mov	 esi, ecx

; 870  : 	ioBuff::EndBuff();

  00003	e8 00 00 00 00	 call	 ?EndBuff@ioBuff@@UAEXXZ	; ioBuff::EndBuff

; 871  : 	if ( !GetOwner() || !m_pOwner )

  00008	8b ce		 mov	 ecx, esi
  0000a	e8 00 00 00 00	 call	 ?GetOwner@ioBuff@@QAEPAVioBaseChar@@XZ ; ioBuff::GetOwner
  0000f	85 c0		 test	 eax, eax
  00011	74 78		 je	 SHORT $LN2@EndBuff
  00013	8b 8e 74 02 00
	00		 mov	 ecx, DWORD PTR [esi+628]
  00019	85 c9		 test	 ecx, ecx
  0001b	74 6e		 je	 SHORT $LN2@EndBuff

; 872  : 		return;
; 873  : 
; 874  : 	if ( m_bReduceAllGauge )

  0001d	80 be e4 0b 00
	00 00		 cmp	 BYTE PTR [esi+3044], 0
  00024	74 15		 je	 SHORT $LN1@EndBuff

; 875  : 		m_pOwner->SetCurItemSkillGauge( m_ItemName, 0 );

  00026	0f 57 c0	 xorps	 xmm0, xmm0
  00029	51		 push	 ecx
  0002a	8d 86 44 02 00
	00		 lea	 eax, DWORD PTR [esi+580]
  00030	f3 0f 11 04 24	 movss	 DWORD PTR [esp], xmm0
  00035	50		 push	 eax
  00036	e8 00 00 00 00	 call	 ?SetCurItemSkillGauge@ioBaseChar@@QAEXABVioHashString@@M@Z ; ioBaseChar::SetCurItemSkillGauge
$LN1@EndBuff:

; 876  : 	ioPlayStage *pStage = m_pOwner->GetCreator();

  0003b	8b 86 74 02 00
	00		 mov	 eax, DWORD PTR [esi+628]
  00041	57		 push	 edi
  00042	8b b8 44 03 00
	00		 mov	 edi, DWORD PTR [eax+836]

; 877  : 	DestroyMaker( m_pOwner, pStage, m_dwA_MarkMapEffectID );

  00048	8d 8e a4 0a 00
	00		 lea	 ecx, DWORD PTR [esi+2724]
  0004e	51		 push	 ecx
  0004f	57		 push	 edi
  00050	50		 push	 eax
  00051	8b ce		 mov	 ecx, esi
  00053	e8 00 00 00 00	 call	 ?DestroyMaker@ioKeyMarkAttackBuff@@IAEXPAVioBaseChar@@PAVioPlayStage@@AAK@Z ; ioKeyMarkAttackBuff::DestroyMaker

; 878  : 	DestroyMaker( m_pOwner, pStage, m_dwS_MarkMapEffectID );

  00058	8d 86 a8 0a 00
	00		 lea	 eax, DWORD PTR [esi+2728]
  0005e	50		 push	 eax
  0005f	57		 push	 edi
  00060	ff b6 74 02 00
	00		 push	 DWORD PTR [esi+628]
  00066	8b ce		 mov	 ecx, esi
  00068	e8 00 00 00 00	 call	 ?DestroyMaker@ioKeyMarkAttackBuff@@IAEXPAVioBaseChar@@PAVioPlayStage@@AAK@Z ; ioKeyMarkAttackBuff::DestroyMaker

; 879  : 	DestroyMaker( m_pOwner, pStage, m_dwD_MarkMapEffectID );

  0006d	8d 86 ac 0a 00
	00		 lea	 eax, DWORD PTR [esi+2732]
  00073	50		 push	 eax
  00074	57		 push	 edi
  00075	ff b6 74 02 00
	00		 push	 DWORD PTR [esi+628]
  0007b	8b ce		 mov	 ecx, esi
  0007d	e8 00 00 00 00	 call	 ?DestroyMaker@ioKeyMarkAttackBuff@@IAEXPAVioBaseChar@@PAVioPlayStage@@AAK@Z ; ioKeyMarkAttackBuff::DestroyMaker
  00082	5f		 pop	 edi

; 880  : 	ClearData();

  00083	8b ce		 mov	 ecx, esi
  00085	5e		 pop	 esi
  00086	e9 00 00 00 00	 jmp	 ?ClearData@ioKeyMarkAttackBuff@@IAEXXZ ; ioKeyMarkAttackBuff::ClearData
$LN2@EndBuff:
  0008b	5e		 pop	 esi

; 881  : }

  0008c	c3		 ret	 0
?EndBuff@ioKeyMarkAttackBuff@@UAEXXZ ENDP		; ioKeyMarkAttackBuff::EndBuff
_TEXT	ENDS
PUBLIC	?IsProtected@ioKeyMarkAttackBuff@@UBE_NXZ	; ioKeyMarkAttackBuff::IsProtected
; Function compile flags: /Ogsp
;	COMDAT ?IsProtected@ioKeyMarkAttackBuff@@UBE_NXZ
_TEXT	SEGMENT
?IsProtected@ioKeyMarkAttackBuff@@UBE_NXZ PROC		; ioKeyMarkAttackBuff::IsProtected, COMDAT
; _this$ = ecx

; 948  : {

  00000	56		 push	 esi

; 949  : 	if( m_dwFireMotionEndTime > 0 && m_dwFireMotionEndTime > FRAMEGETTIME() )

  00001	8d b1 dc 0b 00
	00		 lea	 esi, DWORD PTR [ecx+3036]
  00007	83 3e 00	 cmp	 DWORD PTR [esi], 0
  0000a	76 16		 jbe	 SHORT $LN1@IsProtecte
  0000c	ff 15 00 00 00
	00		 call	 DWORD PTR __imp_?GetSingleton@ioFrameTimer@@SAAAV1@XZ
  00012	8b c8		 mov	 ecx, eax
  00014	ff 15 00 00 00
	00		 call	 DWORD PTR __imp_?GetLoopSec@ioFrameTimer@@QBEKXZ
  0001a	39 06		 cmp	 DWORD PTR [esi], eax
  0001c	76 04		 jbe	 SHORT $LN1@IsProtecte

; 950  : 	{
; 951  : 		return true;

  0001e	b0 01		 mov	 al, 1
  00020	5e		 pop	 esi

; 954  : }

  00021	c3		 ret	 0
$LN1@IsProtecte:

; 952  : 	}
; 953  : 	return false;

  00022	32 c0		 xor	 al, al
  00024	5e		 pop	 esi

; 954  : }

  00025	c3		 ret	 0
?IsProtected@ioKeyMarkAttackBuff@@UBE_NXZ ENDP		; ioKeyMarkAttackBuff::IsProtected
_TEXT	ENDS
PUBLIC	?size@?$vector@UtagBaseCharDistanceSq@@V?$allocator@UtagBaseCharDistanceSq@@@std@@@std@@QBEIXZ ; std::vector<tagBaseCharDistanceSq,std::allocator<tagBaseCharDistanceSq> >::size
; Function compile flags: /Ogsp
; File c:\program files (x86)\microsoft visual studio 10.0\vc\include\vector
;	COMDAT ?size@?$vector@UtagBaseCharDistanceSq@@V?$allocator@UtagBaseCharDistanceSq@@@std@@@std@@QBEIXZ
_TEXT	SEGMENT
?size@?$vector@UtagBaseCharDistanceSq@@V?$allocator@UtagBaseCharDistanceSq@@@std@@@std@@QBEIXZ PROC ; std::vector<tagBaseCharDistanceSq,std::allocator<tagBaseCharDistanceSq> >::size, COMDAT
; _this$ = ecx

; 879  : 		return (this->_Mylast - this->_Myfirst);

  00000	8b 41 04	 mov	 eax, DWORD PTR [ecx+4]
  00003	2b 01		 sub	 eax, DWORD PTR [ecx]
  00005	c1 f8 05	 sar	 eax, 5

; 880  : 		}

  00008	c3		 ret	 0
?size@?$vector@UtagBaseCharDistanceSq@@V?$allocator@UtagBaseCharDistanceSq@@@std@@@std@@QBEIXZ ENDP ; std::vector<tagBaseCharDistanceSq,std::allocator<tagBaseCharDistanceSq> >::size
_TEXT	ENDS
PUBLIC	?empty@?$vector@UtagBaseCharDistanceSq@@V?$allocator@UtagBaseCharDistanceSq@@@std@@@std@@QBE_NXZ ; std::vector<tagBaseCharDistanceSq,std::allocator<tagBaseCharDistanceSq> >::empty
; Function compile flags: /Ogsp
;	COMDAT ?empty@?$vector@UtagBaseCharDistanceSq@@V?$allocator@UtagBaseCharDistanceSq@@@std@@@std@@QBE_NXZ
_TEXT	SEGMENT
?empty@?$vector@UtagBaseCharDistanceSq@@V?$allocator@UtagBaseCharDistanceSq@@@std@@@std@@QBE_NXZ PROC ; std::vector<tagBaseCharDistanceSq,std::allocator<tagBaseCharDistanceSq> >::empty, COMDAT
; _this$ = ecx

; 889  : 		return (this->_Myfirst == this->_Mylast);

  00000	8b 01		 mov	 eax, DWORD PTR [ecx]
  00002	2b 41 04	 sub	 eax, DWORD PTR [ecx+4]
  00005	f7 d8		 neg	 eax
  00007	1b c0		 sbb	 eax, eax
  00009	40		 inc	 eax

; 890  : 		}

  0000a	c3		 ret	 0
?empty@?$vector@UtagBaseCharDistanceSq@@V?$allocator@UtagBaseCharDistanceSq@@@std@@@std@@QBE_NXZ ENDP ; std::vector<tagBaseCharDistanceSq,std::allocator<tagBaseCharDistanceSq> >::empty
_TEXT	ENDS
PUBLIC	??A?$vector@UtagBaseCharDistanceSq@@V?$allocator@UtagBaseCharDistanceSq@@@std@@@std@@QAEAAUtagBaseCharDistanceSq@@I@Z ; std::vector<tagBaseCharDistanceSq,std::allocator<tagBaseCharDistanceSq> >::operator[]
; Function compile flags: /Ogsp
;	COMDAT ??A?$vector@UtagBaseCharDistanceSq@@V?$allocator@UtagBaseCharDistanceSq@@@std@@@std@@QAEAAUtagBaseCharDistanceSq@@I@Z
_TEXT	SEGMENT
__Pos$ = 8						; size = 4
??A?$vector@UtagBaseCharDistanceSq@@V?$allocator@UtagBaseCharDistanceSq@@@std@@@std@@QAEAAUtagBaseCharDistanceSq@@I@Z PROC ; std::vector<tagBaseCharDistanceSq,std::allocator<tagBaseCharDistanceSq> >::operator[], COMDAT
; _this$ = ecx

; 928  : 		{	// subscript mutable sequence

  00000	55		 push	 ebp
  00001	8b ec		 mov	 ebp, esp

; 929  :  #if _ITERATOR_DEBUG_LEVEL == 2
; 930  : 		if (size() <= _Pos)
; 931  : 			{	// report error
; 932  : 			_DEBUG_ERROR("vector subscript out of range");
; 933  : 			_SCL_SECURE_OUT_OF_RANGE;
; 934  : 			}
; 935  : 
; 936  :  #elif _ITERATOR_DEBUG_LEVEL == 1
; 937  : 		_SCL_SECURE_VALIDATE_RANGE(_Pos < size());
; 938  :  #endif /* _ITERATOR_DEBUG_LEVEL */
; 939  : 
; 940  : 		return (*(this->_Myfirst + _Pos));

  00003	8b 45 08	 mov	 eax, DWORD PTR __Pos$[ebp]
  00006	c1 e0 05	 shl	 eax, 5
  00009	03 01		 add	 eax, DWORD PTR [ecx]

; 941  : 		}

  0000b	5d		 pop	 ebp
  0000c	c2 04 00	 ret	 4
??A?$vector@UtagBaseCharDistanceSq@@V?$allocator@UtagBaseCharDistanceSq@@@std@@@std@@QAEAAUtagBaseCharDistanceSq@@I@Z ENDP ; std::vector<tagBaseCharDistanceSq,std::allocator<tagBaseCharDistanceSq> >::operator[]
_TEXT	ENDS
PUBLIC	??D?$_Vector_const_iterator@V?$_Vector_val@PAVioBaseChar@@V?$allocator@PAVioBaseChar@@@std@@@std@@@std@@QBEABQAVioBaseChar@@XZ ; std::_Vector_const_iterator<std::_Vector_val<ioBaseChar *,std::allocator<ioBaseChar *> > >::operator*
; Function compile flags: /Ogsp
;	COMDAT ??D?$_Vector_const_iterator@V?$_Vector_val@PAVioBaseChar@@V?$allocator@PAVioBaseChar@@@std@@@std@@@std@@QBEABQAVioBaseChar@@XZ
_TEXT	SEGMENT
??D?$_Vector_const_iterator@V?$_Vector_val@PAVioBaseChar@@V?$allocator@PAVioBaseChar@@@std@@@std@@@std@@QBEABQAVioBaseChar@@XZ PROC ; std::_Vector_const_iterator<std::_Vector_val<ioBaseChar *,std::allocator<ioBaseChar *> > >::operator*, COMDAT
; _this$ = ecx

; 64   :  #if _ITERATOR_DEBUG_LEVEL == 2
; 65   : 		if (this->_Getcont() == 0
; 66   : 			|| this->_Ptr == 0
; 67   : 			|| this->_Ptr < ((_Myvec *)this->_Getcont())->_Myfirst
; 68   : 			|| ((_Myvec *)this->_Getcont())->_Mylast <= this->_Ptr)
; 69   : 			{	// report error
; 70   : 			_DEBUG_ERROR("vector iterator not dereferencable");
; 71   : 			_SCL_SECURE_OUT_OF_RANGE;
; 72   : 			}
; 73   : 
; 74   :  #elif _ITERATOR_DEBUG_LEVEL == 1
; 75   : 		_SCL_SECURE_VALIDATE(this->_Getcont() != 0);
; 76   : 		_SCL_SECURE_VALIDATE_RANGE(
; 77   : 			this->_Ptr != 0
; 78   : 			&& ((_Myvec *)this->_Getcont())->_Myfirst <= this->_Ptr
; 79   : 			&& this->_Ptr < ((_Myvec *)this->_Getcont())->_Mylast);
; 80   :  #endif /* _ITERATOR_DEBUG_LEVEL */
; 81   : 
; 82   : 		__analysis_assume(this->_Ptr != 0);
; 83   : 
; 84   : 		return (*this->_Ptr);

  00000	8b 01		 mov	 eax, DWORD PTR [ecx]

; 85   : 		}

  00002	c3		 ret	 0
??D?$_Vector_const_iterator@V?$_Vector_val@PAVioBaseChar@@V?$allocator@PAVioBaseChar@@@std@@@std@@@std@@QBEABQAVioBaseChar@@XZ ENDP ; std::_Vector_const_iterator<std::_Vector_val<ioBaseChar *,std::allocator<ioBaseChar *> > >::operator*
_TEXT	ENDS
PUBLIC	??E?$_Vector_const_iterator@V?$_Vector_val@PAVioBaseChar@@V?$allocator@PAVioBaseChar@@@std@@@std@@@std@@QAEAAV01@XZ ; std::_Vector_const_iterator<std::_Vector_val<ioBaseChar *,std::allocator<ioBaseChar *> > >::operator++
; Function compile flags: /Ogsp
;	COMDAT ??E?$_Vector_const_iterator@V?$_Vector_val@PAVioBaseChar@@V?$allocator@PAVioBaseChar@@@std@@@std@@@std@@QAEAAV01@XZ
_TEXT	SEGMENT
??E?$_Vector_const_iterator@V?$_Vector_val@PAVioBaseChar@@V?$allocator@PAVioBaseChar@@@std@@@std@@@std@@QAEAAV01@XZ PROC ; std::_Vector_const_iterator<std::_Vector_val<ioBaseChar *,std::allocator<ioBaseChar *> > >::operator++, COMDAT
; _this$ = ecx

; 93   : 		{	// preincrement

  00000	8b c1		 mov	 eax, ecx

; 94   :  #if _ITERATOR_DEBUG_LEVEL == 2
; 95   : 		if (this->_Getcont() == 0
; 96   : 			|| this->_Ptr == 0
; 97   : 			|| ((_Myvec *)this->_Getcont())->_Mylast <= this->_Ptr)
; 98   : 			{	// report error
; 99   : 			_DEBUG_ERROR("vector iterator not incrementable");
; 100  : 			_SCL_SECURE_OUT_OF_RANGE;
; 101  : 			}
; 102  : 
; 103  :  #elif _ITERATOR_DEBUG_LEVEL == 1
; 104  : 		_SCL_SECURE_VALIDATE(this->_Getcont() != 0);
; 105  : 		_SCL_SECURE_VALIDATE_RANGE(
; 106  : 			this->_Ptr != 0
; 107  : 			&& this->_Ptr < ((_Myvec *)this->_Getcont())->_Mylast);
; 108  :  #endif /* _ITERATOR_DEBUG_LEVEL */
; 109  : 
; 110  : 		++this->_Ptr;

  00002	83 00 04	 add	 DWORD PTR [eax], 4

; 111  : 		return (*this);
; 112  : 		}

  00005	c3		 ret	 0
??E?$_Vector_const_iterator@V?$_Vector_val@PAVioBaseChar@@V?$allocator@PAVioBaseChar@@@std@@@std@@@std@@QAEAAV01@XZ ENDP ; std::_Vector_const_iterator<std::_Vector_val<ioBaseChar *,std::allocator<ioBaseChar *> > >::operator++
_TEXT	ENDS
PUBLIC	?_Inside@?$vector@UtagBaseCharDistanceSq@@V?$allocator@UtagBaseCharDistanceSq@@@std@@@std@@IBE_NPBUtagBaseCharDistanceSq@@@Z ; std::vector<tagBaseCharDistanceSq,std::allocator<tagBaseCharDistanceSq> >::_Inside
; Function compile flags: /Ogsp
;	COMDAT ?_Inside@?$vector@UtagBaseCharDistanceSq@@V?$allocator@UtagBaseCharDistanceSq@@@std@@@std@@IBE_NPBUtagBaseCharDistanceSq@@@Z
_TEXT	SEGMENT
__Ptr$ = 8						; size = 4
?_Inside@?$vector@UtagBaseCharDistanceSq@@V?$allocator@UtagBaseCharDistanceSq@@@std@@@std@@IBE_NPBUtagBaseCharDistanceSq@@@Z PROC ; std::vector<tagBaseCharDistanceSq,std::allocator<tagBaseCharDistanceSq> >::_Inside, COMDAT
; _this$ = ecx

; 1285 : 		{	// test if _Ptr points inside vector

  00000	55		 push	 ebp
  00001	8b ec		 mov	 ebp, esp

; 1286 : 		return (_Ptr < this->_Mylast && this->_Myfirst <= _Ptr);

  00003	8b 45 08	 mov	 eax, DWORD PTR __Ptr$[ebp]
  00006	3b 41 04	 cmp	 eax, DWORD PTR [ecx+4]
  00009	73 09		 jae	 SHORT $LN3@Inside
  0000b	39 01		 cmp	 DWORD PTR [ecx], eax
  0000d	77 05		 ja	 SHORT $LN3@Inside
  0000f	33 c0		 xor	 eax, eax
  00011	40		 inc	 eax
  00012	eb 02		 jmp	 SHORT $LN4@Inside
$LN3@Inside:
  00014	33 c0		 xor	 eax, eax
$LN4@Inside:

; 1287 : 		}

  00016	5d		 pop	 ebp
  00017	c2 04 00	 ret	 4
?_Inside@?$vector@UtagBaseCharDistanceSq@@V?$allocator@UtagBaseCharDistanceSq@@@std@@@std@@IBE_NPBUtagBaseCharDistanceSq@@@Z ENDP ; std::vector<tagBaseCharDistanceSq,std::allocator<tagBaseCharDistanceSq> >::_Inside
_TEXT	ENDS
PUBLIC	?_Orphan_range@?$vector@UtagBaseCharDistanceSq@@V?$allocator@UtagBaseCharDistanceSq@@@std@@@std@@IBEXPAUtagBaseCharDistanceSq@@0@Z ; std::vector<tagBaseCharDistanceSq,std::allocator<tagBaseCharDistanceSq> >::_Orphan_range
; Function compile flags: /Ogsp
;	COMDAT ?_Orphan_range@?$vector@UtagBaseCharDistanceSq@@V?$allocator@UtagBaseCharDistanceSq@@@std@@@std@@IBEXPAUtagBaseCharDistanceSq@@0@Z
_TEXT	SEGMENT
___formal$ = 8						; size = 4
___formal$ = 12						; size = 4
?_Orphan_range@?$vector@UtagBaseCharDistanceSq@@V?$allocator@UtagBaseCharDistanceSq@@@std@@@std@@IBEXPAUtagBaseCharDistanceSq@@0@Z PROC ; std::vector<tagBaseCharDistanceSq,std::allocator<tagBaseCharDistanceSq> >::_Orphan_range, COMDAT
; _this$ = ecx

; 1454 : 		}

  00000	c2 08 00	 ret	 8
?_Orphan_range@?$vector@UtagBaseCharDistanceSq@@V?$allocator@UtagBaseCharDistanceSq@@@std@@@std@@IBEXPAUtagBaseCharDistanceSq@@0@Z ENDP ; std::vector<tagBaseCharDistanceSq,std::allocator<tagBaseCharDistanceSq> >::_Orphan_range
_TEXT	ENDS
PUBLIC	??1?$_Vector_val@UtagBaseCharDistanceSq@@V?$allocator@UtagBaseCharDistanceSq@@@std@@@std@@QAE@XZ ; std::_Vector_val<tagBaseCharDistanceSq,std::allocator<tagBaseCharDistanceSq> >::~_Vector_val<tagBaseCharDistanceSq,std::allocator<tagBaseCharDistanceSq> >
; Function compile flags: /Ogsp
;	COMDAT ??1?$_Vector_val@UtagBaseCharDistanceSq@@V?$allocator@UtagBaseCharDistanceSq@@@std@@@std@@QAE@XZ
_TEXT	SEGMENT
??1?$_Vector_val@UtagBaseCharDistanceSq@@V?$allocator@UtagBaseCharDistanceSq@@@std@@@std@@QAE@XZ PROC ; std::_Vector_val<tagBaseCharDistanceSq,std::allocator<tagBaseCharDistanceSq> >::~_Vector_val<tagBaseCharDistanceSq,std::allocator<tagBaseCharDistanceSq> >, COMDAT
; _this$ = ecx

; 434  : 		}

  00000	c3		 ret	 0
??1?$_Vector_val@UtagBaseCharDistanceSq@@V?$allocator@UtagBaseCharDistanceSq@@@std@@@std@@QAE@XZ ENDP ; std::_Vector_val<tagBaseCharDistanceSq,std::allocator<tagBaseCharDistanceSq> >::~_Vector_val<tagBaseCharDistanceSq,std::allocator<tagBaseCharDistanceSq> >
_TEXT	ENDS
PUBLIC	??0?$allocator@UtagBaseCharDistanceSq@@@std@@QAE@XZ ; std::allocator<tagBaseCharDistanceSq>::allocator<tagBaseCharDistanceSq>
; Function compile flags: /Ogsp
; File c:\program files (x86)\microsoft visual studio 10.0\vc\include\xmemory
;	COMDAT ??0?$allocator@UtagBaseCharDistanceSq@@@std@@QAE@XZ
_TEXT	SEGMENT
??0?$allocator@UtagBaseCharDistanceSq@@@std@@QAE@XZ PROC ; std::allocator<tagBaseCharDistanceSq>::allocator<tagBaseCharDistanceSq>, COMDAT
; _this$ = ecx

; 161  : 	_ALLOCATOR() _THROW0()

  00000	8b c1		 mov	 eax, ecx

; 162  : 		{	// construct default allocator (do nothing)
; 163  : 		}

  00002	c3		 ret	 0
??0?$allocator@UtagBaseCharDistanceSq@@@std@@QAE@XZ ENDP ; std::allocator<tagBaseCharDistanceSq>::allocator<tagBaseCharDistanceSq>
_TEXT	ENDS
PUBLIC	??0?$_Vector_const_iterator@V?$_Vector_val@PAVioBaseChar@@V?$allocator@PAVioBaseChar@@@std@@@std@@@std@@QAE@PAPAVioBaseChar@@PBU_Container_base0@1@@Z ; std::_Vector_const_iterator<std::_Vector_val<ioBaseChar *,std::allocator<ioBaseChar *> > >::_Vector_const_iterator<std::_Vector_val<ioBaseChar *,std::allocator<ioBaseChar *> > >
; Function compile flags: /Ogsp
; File c:\program files (x86)\microsoft visual studio 10.0\vc\include\vector
;	COMDAT ??0?$_Vector_const_iterator@V?$_Vector_val@PAVioBaseChar@@V?$allocator@PAVioBaseChar@@@std@@@std@@@std@@QAE@PAPAVioBaseChar@@PBU_Container_base0@1@@Z
_TEXT	SEGMENT
__Parg$ = 8						; size = 4
__Pvector$ = 12						; size = 4
??0?$_Vector_const_iterator@V?$_Vector_val@PAVioBaseChar@@V?$allocator@PAVioBaseChar@@@std@@@std@@@std@@QAE@PAPAVioBaseChar@@PBU_Container_base0@1@@Z PROC ; std::_Vector_const_iterator<std::_Vector_val<ioBaseChar *,std::allocator<ioBaseChar *> > >::_Vector_const_iterator<std::_Vector_val<ioBaseChar *,std::allocator<ioBaseChar *> > >, COMDAT
; _this$ = ecx

; 45   : 		{	// construct with pointer _Parg

  00000	55		 push	 ebp
  00001	8b ec		 mov	 ebp, esp
  00003	8b c1		 mov	 eax, ecx
  00005	8b 4d 08	 mov	 ecx, DWORD PTR __Parg$[ebp]
  00008	89 08		 mov	 DWORD PTR [eax], ecx

; 46   : 		this->_Adopt(_Pvector);
; 47   : 		}

  0000a	5d		 pop	 ebp
  0000b	c2 08 00	 ret	 8
??0?$_Vector_const_iterator@V?$_Vector_val@PAVioBaseChar@@V?$allocator@PAVioBaseChar@@@std@@@std@@@std@@QAE@PAPAVioBaseChar@@PBU_Container_base0@1@@Z ENDP ; std::_Vector_const_iterator<std::_Vector_val<ioBaseChar *,std::allocator<ioBaseChar *> > >::_Vector_const_iterator<std::_Vector_val<ioBaseChar *,std::allocator<ioBaseChar *> > >
_TEXT	ENDS
PUBLIC	?capacity@?$vector@UtagBaseCharDistanceSq@@V?$allocator@UtagBaseCharDistanceSq@@@std@@@std@@QBEIXZ ; std::vector<tagBaseCharDistanceSq,std::allocator<tagBaseCharDistanceSq> >::capacity
; Function compile flags: /Ogsp
;	COMDAT ?capacity@?$vector@UtagBaseCharDistanceSq@@V?$allocator@UtagBaseCharDistanceSq@@@std@@@std@@QBEIXZ
_TEXT	SEGMENT
?capacity@?$vector@UtagBaseCharDistanceSq@@V?$allocator@UtagBaseCharDistanceSq@@@std@@@std@@QBEIXZ PROC ; std::vector<tagBaseCharDistanceSq,std::allocator<tagBaseCharDistanceSq> >::capacity, COMDAT
; _this$ = ecx

; 777  : 		return (this->_Myend - this->_Myfirst);

  00000	8b 41 08	 mov	 eax, DWORD PTR [ecx+8]
  00003	2b 01		 sub	 eax, DWORD PTR [ecx]
  00005	c1 f8 05	 sar	 eax, 5

; 778  : 		}

  00008	c3		 ret	 0
?capacity@?$vector@UtagBaseCharDistanceSq@@V?$allocator@UtagBaseCharDistanceSq@@@std@@@std@@QBEIXZ ENDP ; std::vector<tagBaseCharDistanceSq,std::allocator<tagBaseCharDistanceSq> >::capacity
_TEXT	ENDS
PUBLIC	??_C@_0BD@OLBABOEK@vector?$DMT?$DO?5too?5long?$AA@ ; `string'
PUBLIC	?_Xlen@?$vector@UtagBaseCharDistanceSq@@V?$allocator@UtagBaseCharDistanceSq@@@std@@@std@@IBEXXZ ; std::vector<tagBaseCharDistanceSq,std::allocator<tagBaseCharDistanceSq> >::_Xlen
EXTRN	__imp_?_Xlength_error@std@@YAXPBD@Z:PROC
;	COMDAT ??_C@_0BD@OLBABOEK@vector?$DMT?$DO?5too?5long?$AA@
CONST	SEGMENT
??_C@_0BD@OLBABOEK@vector?$DMT?$DO?5too?5long?$AA@ DB 'vector<T> too long'
	DB	00H						; `string'
; Function compile flags: /Ogsp
CONST	ENDS
;	COMDAT ?_Xlen@?$vector@UtagBaseCharDistanceSq@@V?$allocator@UtagBaseCharDistanceSq@@@std@@@std@@IBEXXZ
_TEXT	SEGMENT
?_Xlen@?$vector@UtagBaseCharDistanceSq@@V?$allocator@UtagBaseCharDistanceSq@@@std@@@std@@IBEXXZ PROC ; std::vector<tagBaseCharDistanceSq,std::allocator<tagBaseCharDistanceSq> >::_Xlen, COMDAT
; _this$ = ecx

; 1427 : 		_Xlength_error("vector<T> too long");

  00000	68 00 00 00 00	 push	 OFFSET ??_C@_0BD@OLBABOEK@vector?$DMT?$DO?5too?5long?$AA@
  00005	ff 15 00 00 00
	00		 call	 DWORD PTR __imp_?_Xlength_error@std@@YAXPBD@Z
$LN4@Xlen:
$LN3@Xlen:
  0000b	cc		 int	 3
?_Xlen@?$vector@UtagBaseCharDistanceSq@@V?$allocator@UtagBaseCharDistanceSq@@@std@@@std@@IBEXXZ ENDP ; std::vector<tagBaseCharDistanceSq,std::allocator<tagBaseCharDistanceSq> >::_Xlen
_TEXT	ENDS
PUBLIC	??0?$allocator@UtagBaseCharDistanceSq@@@std@@QAE@ABV01@@Z ; std::allocator<tagBaseCharDistanceSq>::allocator<tagBaseCharDistanceSq>
; Function compile flags: /Ogsp
; File c:\program files (x86)\microsoft visual studio 10.0\vc\include\xmemory
;	COMDAT ??0?$allocator@UtagBaseCharDistanceSq@@@std@@QAE@ABV01@@Z
_TEXT	SEGMENT
___formal$ = 8						; size = 4
??0?$allocator@UtagBaseCharDistanceSq@@@std@@QAE@ABV01@@Z PROC ; std::allocator<tagBaseCharDistanceSq>::allocator<tagBaseCharDistanceSq>, COMDAT
; _this$ = ecx

; 165  : 	_ALLOCATOR(const _ALLOCATOR<_Ty>&) _THROW0()

  00000	8b c1		 mov	 eax, ecx

; 166  : 		{	// construct by copying (do nothing)
; 167  : 		}

  00002	c2 04 00	 ret	 4
??0?$allocator@UtagBaseCharDistanceSq@@@std@@QAE@ABV01@@Z ENDP ; std::allocator<tagBaseCharDistanceSq>::allocator<tagBaseCharDistanceSq>
_TEXT	ENDS
PUBLIC	?deallocate@?$allocator@UtagBaseCharDistanceSq@@@std@@QAEXPAUtagBaseCharDistanceSq@@I@Z ; std::allocator<tagBaseCharDistanceSq>::deallocate
; Function compile flags: /Ogsp
;	COMDAT ?deallocate@?$allocator@UtagBaseCharDistanceSq@@@std@@QAEXPAUtagBaseCharDistanceSq@@I@Z
_TEXT	SEGMENT
__Ptr$ = 8						; size = 4
___formal$ = 12						; size = 4
?deallocate@?$allocator@UtagBaseCharDistanceSq@@@std@@QAEXPAUtagBaseCharDistanceSq@@I@Z PROC ; std::allocator<tagBaseCharDistanceSq>::deallocate, COMDAT
; _this$ = ecx

; 181  : 		{	// deallocate object at _Ptr, ignore size

  00000	55		 push	 ebp
  00001	8b ec		 mov	 ebp, esp

; 182  : 		::operator delete(_Ptr);

  00003	ff 75 08	 push	 DWORD PTR __Ptr$[ebp]
  00006	e8 00 00 00 00	 call	 ??3@YAXPAX@Z		; operator delete
  0000b	59		 pop	 ecx

; 183  : 		}

  0000c	5d		 pop	 ebp
  0000d	c2 08 00	 ret	 8
?deallocate@?$allocator@UtagBaseCharDistanceSq@@@std@@QAEXPAUtagBaseCharDistanceSq@@I@Z ENDP ; std::allocator<tagBaseCharDistanceSq>::deallocate
_TEXT	ENDS
PUBLIC	?_Compat@?$_Vector_const_iterator@V?$_Vector_val@PAVioBaseChar@@V?$allocator@PAVioBaseChar@@@std@@@std@@@std@@QBEXABV12@@Z ; std::_Vector_const_iterator<std::_Vector_val<ioBaseChar *,std::allocator<ioBaseChar *> > >::_Compat
; Function compile flags: /Ogsp
; File c:\program files (x86)\microsoft visual studio 10.0\vc\include\vector
;	COMDAT ?_Compat@?$_Vector_const_iterator@V?$_Vector_val@PAVioBaseChar@@V?$allocator@PAVioBaseChar@@@std@@@std@@@std@@QBEXABV12@@Z
_TEXT	SEGMENT
___formal$ = 8						; size = 4
?_Compat@?$_Vector_const_iterator@V?$_Vector_val@PAVioBaseChar@@V?$allocator@PAVioBaseChar@@@std@@@std@@@std@@QBEXABV12@@Z PROC ; std::_Vector_const_iterator<std::_Vector_val<ioBaseChar *,std::allocator<ioBaseChar *> > >::_Compat, COMDAT
; _this$ = ecx

; 253  : 		}

  00000	c2 04 00	 ret	 4
?_Compat@?$_Vector_const_iterator@V?$_Vector_val@PAVioBaseChar@@V?$allocator@PAVioBaseChar@@@std@@@std@@@std@@QBEXABV12@@Z ENDP ; std::_Vector_const_iterator<std::_Vector_val<ioBaseChar *,std::allocator<ioBaseChar *> > >::_Compat
_TEXT	ENDS
PUBLIC	??0?$_Vector_const_iterator@V?$_Vector_val@UtagBaseCharDistanceSq@@V?$allocator@UtagBaseCharDistanceSq@@@std@@@std@@@std@@QAE@PAUtagBaseCharDistanceSq@@PBU_Container_base0@1@@Z ; std::_Vector_const_iterator<std::_Vector_val<tagBaseCharDistanceSq,std::allocator<tagBaseCharDistanceSq> > >::_Vector_const_iterator<std::_Vector_val<tagBaseCharDistanceSq,std::allocator<tagBaseCharDistanceSq> > >
; Function compile flags: /Ogsp
;	COMDAT ??0?$_Vector_const_iterator@V?$_Vector_val@UtagBaseCharDistanceSq@@V?$allocator@UtagBaseCharDistanceSq@@@std@@@std@@@std@@QAE@PAUtagBaseCharDistanceSq@@PBU_Container_base0@1@@Z
_TEXT	SEGMENT
__Parg$ = 8						; size = 4
__Pvector$ = 12						; size = 4
??0?$_Vector_const_iterator@V?$_Vector_val@UtagBaseCharDistanceSq@@V?$allocator@UtagBaseCharDistanceSq@@@std@@@std@@@std@@QAE@PAUtagBaseCharDistanceSq@@PBU_Container_base0@1@@Z PROC ; std::_Vector_const_iterator<std::_Vector_val<tagBaseCharDistanceSq,std::allocator<tagBaseCharDistanceSq> > >::_Vector_const_iterator<std::_Vector_val<tagBaseCharDistanceSq,std::allocator<tagBaseCharDistanceSq> > >, COMDAT
; _this$ = ecx

; 45   : 		{	// construct with pointer _Parg

  00000	55		 push	 ebp
  00001	8b ec		 mov	 ebp, esp
  00003	8b c1		 mov	 eax, ecx
  00005	8b 4d 08	 mov	 ecx, DWORD PTR __Parg$[ebp]
  00008	89 08		 mov	 DWORD PTR [eax], ecx

; 46   : 		this->_Adopt(_Pvector);
; 47   : 		}

  0000a	5d		 pop	 ebp
  0000b	c2 08 00	 ret	 8
??0?$_Vector_const_iterator@V?$_Vector_val@UtagBaseCharDistanceSq@@V?$allocator@UtagBaseCharDistanceSq@@@std@@@std@@@std@@QAE@PAUtagBaseCharDistanceSq@@PBU_Container_base0@1@@Z ENDP ; std::_Vector_const_iterator<std::_Vector_val<tagBaseCharDistanceSq,std::allocator<tagBaseCharDistanceSq> > >::_Vector_const_iterator<std::_Vector_val<tagBaseCharDistanceSq,std::allocator<tagBaseCharDistanceSq> > >
_TEXT	ENDS
PUBLIC	?max_size@?$allocator@UtagBaseCharDistanceSq@@@std@@QBEIXZ ; std::allocator<tagBaseCharDistanceSq>::max_size
; Function compile flags: /Ogsp
; File c:\program files (x86)\microsoft visual studio 10.0\vc\include\xmemory
;	COMDAT ?max_size@?$allocator@UtagBaseCharDistanceSq@@@std@@QBEIXZ
_TEXT	SEGMENT
?max_size@?$allocator@UtagBaseCharDistanceSq@@@std@@QBEIXZ PROC ; std::allocator<tagBaseCharDistanceSq>::max_size, COMDAT
; _this$ = ecx

; 218  : 		_SIZT _Count = (_SIZT)(-1) / sizeof (_Ty);
; 219  : 		return (0 < _Count ? _Count : 1);

  00000	b8 ff ff ff 07	 mov	 eax, 134217727		; 07ffffffH

; 220  : 		}

  00005	c3		 ret	 0
?max_size@?$allocator@UtagBaseCharDistanceSq@@@std@@QBEIXZ ENDP ; std::allocator<tagBaseCharDistanceSq>::max_size
_TEXT	ENDS
PUBLIC	??0D3DXVECTOR3@@QAE@XZ				; D3DXVECTOR3::D3DXVECTOR3
; Function compile flags: /Ogsp
; File c:\program files (x86)\microsoft directx sdk (june 2010)\include\d3dx9math.h
;	COMDAT ??0D3DXVECTOR3@@QAE@XZ
_TEXT	SEGMENT
??0D3DXVECTOR3@@QAE@XZ PROC				; D3DXVECTOR3::D3DXVECTOR3, COMDAT
; _this$ = ecx

; 165  :     D3DXVECTOR3() {};

  00000	8b c1		 mov	 eax, ecx
  00002	c3		 ret	 0
??0D3DXVECTOR3@@QAE@XZ ENDP				; D3DXVECTOR3::D3DXVECTOR3
_TEXT	ENDS
PUBLIC	??0D3DXQUATERNION@@QAE@XZ			; D3DXQUATERNION::D3DXQUATERNION
; Function compile flags: /Ogsp
;	COMDAT ??0D3DXQUATERNION@@QAE@XZ
_TEXT	SEGMENT
??0D3DXQUATERNION@@QAE@XZ PROC				; D3DXQUATERNION::D3DXQUATERNION, COMDAT
; _this$ = ecx

; 429  :     D3DXQUATERNION() {}

  00000	8b c1		 mov	 eax, ecx
  00002	c3		 ret	 0
??0D3DXQUATERNION@@QAE@XZ ENDP				; D3DXQUATERNION::D3DXQUATERNION
_TEXT	ENDS
PUBLIC	??$addressof@$$CBUtagBaseCharDistanceSq@@@std@@YAPBUtagBaseCharDistanceSq@@ABU1@@Z ; std::addressof<tagBaseCharDistanceSq const >
; Function compile flags: /Ogsp
; File c:\program files (x86)\microsoft visual studio 10.0\vc\include\xmemory
;	COMDAT ??$addressof@$$CBUtagBaseCharDistanceSq@@@std@@YAPBUtagBaseCharDistanceSq@@ABU1@@Z
_TEXT	SEGMENT
__Val$ = 8						; size = 4
??$addressof@$$CBUtagBaseCharDistanceSq@@@std@@YAPBUtagBaseCharDistanceSq@@ABU1@@Z PROC ; std::addressof<tagBaseCharDistanceSq const >, COMDAT

; 110  : 	{	// return address of _Val

  00000	55		 push	 ebp
  00001	8b ec		 mov	 ebp, esp

; 111  : 	return ((_Ty *) &(char&)_Val);

  00003	8b 45 08	 mov	 eax, DWORD PTR __Val$[ebp]

; 112  : 	}

  00006	5d		 pop	 ebp
  00007	c3		 ret	 0
??$addressof@$$CBUtagBaseCharDistanceSq@@@std@@YAPBUtagBaseCharDistanceSq@@ABU1@@Z ENDP ; std::addressof<tagBaseCharDistanceSq const >
_TEXT	ENDS
PUBLIC	__TI2?AVbad_alloc@std@@
PUBLIC	??$_Allocate@UtagBaseCharDistanceSq@@@std@@YAPAUtagBaseCharDistanceSq@@IPAU1@@Z ; std::_Allocate<tagBaseCharDistanceSq>
PUBLIC	__CTA2?AVbad_alloc@std@@
PUBLIC	__CT??_R0?AVbad_alloc@std@@@8??0bad_alloc@std@@QAE@ABV01@@Z12
PUBLIC	??0bad_alloc@std@@QAE@ABV01@@Z			; std::bad_alloc::bad_alloc
PUBLIC	__CT??_R0?AVexception@std@@@8??0exception@std@@QAE@ABV01@@Z12
EXTRN	??2@YAPAXI@Z:PROC				; operator new
EXTRN	__CxxThrowException@8:PROC
EXTRN	??0exception@std@@QAE@ABV01@@Z:PROC		; std::exception::exception
;	COMDAT __CT??_R0?AVexception@std@@@8??0exception@std@@QAE@ABV01@@Z12
; File c:\program files (x86)\microsoft visual studio 10.0\vc\include\exception
xdata$x	SEGMENT
__CT??_R0?AVexception@std@@@8??0exception@std@@QAE@ABV01@@Z12 DD 00H
	DD	FLAT:??_R0?AVexception@std@@@8
	DD	00H
	DD	0ffffffffH
	ORG $+4
	DD	0cH
	DD	FLAT:??0exception@std@@QAE@ABV01@@Z
xdata$x	ENDS
;	COMDAT __CT??_R0?AVbad_alloc@std@@@8??0bad_alloc@std@@QAE@ABV01@@Z12
xdata$x	SEGMENT
__CT??_R0?AVbad_alloc@std@@@8??0bad_alloc@std@@QAE@ABV01@@Z12 DD 00H
	DD	FLAT:??_R0?AVbad_alloc@std@@@8
	DD	00H
	DD	0ffffffffH
	ORG $+4
	DD	0cH
	DD	FLAT:??0bad_alloc@std@@QAE@ABV01@@Z
xdata$x	ENDS
;	COMDAT __CTA2?AVbad_alloc@std@@
xdata$x	SEGMENT
__CTA2?AVbad_alloc@std@@ DD 02H
	DD	FLAT:__CT??_R0?AVbad_alloc@std@@@8??0bad_alloc@std@@QAE@ABV01@@Z12
	DD	FLAT:__CT??_R0?AVexception@std@@@8??0exception@std@@QAE@ABV01@@Z12
xdata$x	ENDS
;	COMDAT __TI2?AVbad_alloc@std@@
xdata$x	SEGMENT
__TI2?AVbad_alloc@std@@ DD 00H
	DD	FLAT:??1bad_alloc@std@@UAE@XZ
	DD	00H
	DD	FLAT:__CTA2?AVbad_alloc@std@@
; Function compile flags: /Ogsp
; File c:\program files (x86)\microsoft visual studio 10.0\vc\include\xmemory
xdata$x	ENDS
;	COMDAT ??$_Allocate@UtagBaseCharDistanceSq@@@std@@YAPAUtagBaseCharDistanceSq@@IPAU1@@Z
_TEXT	SEGMENT
$T536130 = -12						; size = 12
$T536135 = 8						; size = 4
__Count$ = 8						; size = 4
___formal$ = 12						; size = 4
??$_Allocate@UtagBaseCharDistanceSq@@@std@@YAPAUtagBaseCharDistanceSq@@IPAU1@@Z PROC ; std::_Allocate<tagBaseCharDistanceSq>, COMDAT

; 30   : 	{	// allocate storage for _Count elements of type _Ty

  00000	55		 push	 ebp
  00001	8b ec		 mov	 ebp, esp

; 31   : 	void *_Ptr = 0;
; 32   : 
; 33   : 	if (_Count <= 0)

  00003	8b 4d 08	 mov	 ecx, DWORD PTR __Count$[ebp]
  00006	83 ec 0c	 sub	 esp, 12			; 0000000cH
  00009	33 c0		 xor	 eax, eax
  0000b	85 c9		 test	 ecx, ecx

; 34   : 		_Count = 0;
; 35   : 	else if (((_SIZT)(-1) / sizeof (_Ty) < _Count)

  0000d	74 3c		 je	 SHORT $LN5@Allocate

; 36   : 		|| (_Ptr = ::operator new(_Count * sizeof (_Ty))) == 0)

  0000f	81 f9 ff ff ff
	07		 cmp	 ecx, 134217727		; 07ffffffH
  00015	77 0e		 ja	 SHORT $LN1@Allocate
  00017	c1 e1 05	 shl	 ecx, 5
  0001a	51		 push	 ecx
  0001b	e8 00 00 00 00	 call	 ??2@YAPAXI@Z		; operator new
  00020	59		 pop	 ecx
  00021	85 c0		 test	 eax, eax

; 38   : 
; 39   : 	return ((_Ty _FARQ *)_Ptr);

  00023	75 26		 jne	 SHORT $LN5@Allocate
$LN1@Allocate:

; 37   : 		_THROW_NCEE(bad_alloc, 0);

  00025	83 65 08 00	 and	 DWORD PTR $T536135[ebp], 0
  00029	8d 45 08	 lea	 eax, DWORD PTR $T536135[ebp]
  0002c	50		 push	 eax
  0002d	8d 4d f4	 lea	 ecx, DWORD PTR $T536130[ebp]
  00030	ff 15 00 00 00
	00		 call	 DWORD PTR __imp_??0exception@std@@QAE@ABQBD@Z
  00036	68 00 00 00 00	 push	 OFFSET __TI2?AVbad_alloc@std@@
  0003b	8d 45 f4	 lea	 eax, DWORD PTR $T536130[ebp]
  0003e	50		 push	 eax
  0003f	c7 45 f4 00 00
	00 00		 mov	 DWORD PTR $T536130[ebp], OFFSET ??_7bad_alloc@std@@6B@
  00046	e8 00 00 00 00	 call	 __CxxThrowException@8
$LN10@Allocate:
$LN5@Allocate:

; 40   : 	}

  0004b	c9		 leave
  0004c	c3		 ret	 0
$LN9@Allocate:
??$_Allocate@UtagBaseCharDistanceSq@@@std@@YAPAUtagBaseCharDistanceSq@@IPAU1@@Z ENDP ; std::_Allocate<tagBaseCharDistanceSq>
_TEXT	ENDS
PUBLIC	?_Compat@?$_Vector_const_iterator@V?$_Vector_val@UtagBaseCharDistanceSq@@V?$allocator@UtagBaseCharDistanceSq@@@std@@@std@@@std@@QBEXABV12@@Z ; std::_Vector_const_iterator<std::_Vector_val<tagBaseCharDistanceSq,std::allocator<tagBaseCharDistanceSq> > >::_Compat
; Function compile flags: /Ogsp
; File c:\program files (x86)\microsoft visual studio 10.0\vc\include\vector
;	COMDAT ?_Compat@?$_Vector_const_iterator@V?$_Vector_val@UtagBaseCharDistanceSq@@V?$allocator@UtagBaseCharDistanceSq@@@std@@@std@@@std@@QBEXABV12@@Z
_TEXT	SEGMENT
___formal$ = 8						; size = 4
?_Compat@?$_Vector_const_iterator@V?$_Vector_val@UtagBaseCharDistanceSq@@V?$allocator@UtagBaseCharDistanceSq@@@std@@@std@@@std@@QBEXABV12@@Z PROC ; std::_Vector_const_iterator<std::_Vector_val<tagBaseCharDistanceSq,std::allocator<tagBaseCharDistanceSq> > >::_Compat, COMDAT
; _this$ = ecx

; 253  : 		}

  00000	c2 04 00	 ret	 4
?_Compat@?$_Vector_const_iterator@V?$_Vector_val@UtagBaseCharDistanceSq@@V?$allocator@UtagBaseCharDistanceSq@@@std@@@std@@@std@@QBEXABV12@@Z ENDP ; std::_Vector_const_iterator<std::_Vector_val<tagBaseCharDistanceSq,std::allocator<tagBaseCharDistanceSq> > >::_Compat
_TEXT	ENDS
PUBLIC	??$forward@AAUtagBaseCharDistanceSq@@@std@@YAAAUtagBaseCharDistanceSq@@AAU1@@Z ; std::forward<tagBaseCharDistanceSq &>
; Function compile flags: /Ogsp
; File c:\program files (x86)\microsoft visual studio 10.0\vc\include\utility
;	COMDAT ??$forward@AAUtagBaseCharDistanceSq@@@std@@YAAAUtagBaseCharDistanceSq@@AAU1@@Z
_TEXT	SEGMENT
__Arg$ = 8						; size = 4
??$forward@AAUtagBaseCharDistanceSq@@@std@@YAAAUtagBaseCharDistanceSq@@AAU1@@Z PROC ; std::forward<tagBaseCharDistanceSq &>, COMDAT

; 78   : 	{	// forward _Arg, given explicitly specified type parameter

  00000	55		 push	 ebp
  00001	8b ec		 mov	 ebp, esp

; 79   : 	return ((_Ty&&)_Arg);

  00003	8b 45 08	 mov	 eax, DWORD PTR __Arg$[ebp]

; 80   : 	}

  00006	5d		 pop	 ebp
  00007	c3		 ret	 0
??$forward@AAUtagBaseCharDistanceSq@@@std@@YAAAUtagBaseCharDistanceSq@@AAU1@@Z ENDP ; std::forward<tagBaseCharDistanceSq &>
_TEXT	ENDS
PUBLIC	??$forward@ABUtagBaseCharDistanceSq@@@std@@YAABUtagBaseCharDistanceSq@@ABU1@@Z ; std::forward<tagBaseCharDistanceSq const &>
; Function compile flags: /Ogsp
;	COMDAT ??$forward@ABUtagBaseCharDistanceSq@@@std@@YAABUtagBaseCharDistanceSq@@ABU1@@Z
_TEXT	SEGMENT
__Arg$ = 8						; size = 4
??$forward@ABUtagBaseCharDistanceSq@@@std@@YAABUtagBaseCharDistanceSq@@ABU1@@Z PROC ; std::forward<tagBaseCharDistanceSq const &>, COMDAT

; 78   : 	{	// forward _Arg, given explicitly specified type parameter

  00000	55		 push	 ebp
  00001	8b ec		 mov	 ebp, esp

; 79   : 	return ((_Ty&&)_Arg);

  00003	8b 45 08	 mov	 eax, DWORD PTR __Arg$[ebp]

; 80   : 	}

  00006	5d		 pop	 ebp
  00007	c3		 ret	 0
??$forward@ABUtagBaseCharDistanceSq@@@std@@YAABUtagBaseCharDistanceSq@@ABU1@@Z ENDP ; std::forward<tagBaseCharDistanceSq const &>
_TEXT	ENDS
PUBLIC	??$_Ptr_cat@UtagBaseCharDistanceSq@@U1@@std@@YA?AU_Nonscalar_ptr_iterator_tag@0@PAUtagBaseCharDistanceSq@@0@Z ; std::_Ptr_cat<tagBaseCharDistanceSq,tagBaseCharDistanceSq>
; Function compile flags: /Ogsp
; File c:\program files (x86)\microsoft visual studio 10.0\vc\include\xutility
;	COMDAT ??$_Ptr_cat@UtagBaseCharDistanceSq@@U1@@std@@YA?AU_Nonscalar_ptr_iterator_tag@0@PAUtagBaseCharDistanceSq@@0@Z
_TEXT	SEGMENT
__Cat$ = -1						; size = 1
___formal$ = 8						; size = 4
___formal$ = 12						; size = 4
??$_Ptr_cat@UtagBaseCharDistanceSq@@U1@@std@@YA?AU_Nonscalar_ptr_iterator_tag@0@PAUtagBaseCharDistanceSq@@0@Z PROC ; std::_Ptr_cat<tagBaseCharDistanceSq,tagBaseCharDistanceSq>, COMDAT

; 516  : 	{	// return pointer category from pointers

  00000	55		 push	 ebp
  00001	8b ec		 mov	 ebp, esp
  00003	51		 push	 ecx

; 517  : 	typename _Ptr_cat_helper<_Elem1, _Elem2>::_Type _Cat;
; 518  : 	return (_Cat);

  00004	8a 45 ff	 mov	 al, BYTE PTR __Cat$[ebp]

; 519  : 	}

  00007	c9		 leave
  00008	c3		 ret	 0
??$_Ptr_cat@UtagBaseCharDistanceSq@@U1@@std@@YA?AU_Nonscalar_ptr_iterator_tag@0@PAUtagBaseCharDistanceSq@@0@Z ENDP ; std::_Ptr_cat<tagBaseCharDistanceSq,tagBaseCharDistanceSq>
_TEXT	ENDS
PUBLIC	??0tagBaseCharDistanceSq@@QAE@ABU0@@Z		; tagBaseCharDistanceSq::tagBaseCharDistanceSq
EXTRN	__imp_??0ioHashString@@QAE@ABV0@@Z:PROC
; Function compile flags: /Ogsp
;	COMDAT ??0tagBaseCharDistanceSq@@QAE@ABU0@@Z
_TEXT	SEGMENT
___that$ = 8						; size = 4
??0tagBaseCharDistanceSq@@QAE@ABU0@@Z PROC		; tagBaseCharDistanceSq::tagBaseCharDistanceSq, COMDAT
; _this$ = ecx
  00000	55		 push	 ebp
  00001	8b ec		 mov	 ebp, esp
  00003	53		 push	 ebx
  00004	56		 push	 esi
  00005	8b 75 08	 mov	 esi, DWORD PTR ___that$[ebp]
  00008	57		 push	 edi
  00009	56		 push	 esi
  0000a	8b d9		 mov	 ebx, ecx
  0000c	ff 15 00 00 00
	00		 call	 DWORD PTR __imp_??0ioHashString@@QAE@ABV0@@Z
  00012	d9 46 10	 fld	 DWORD PTR [esi+16]
  00015	83 c6 14	 add	 esi, 20			; 00000014H
  00018	d9 5b 10	 fstp	 DWORD PTR [ebx+16]
  0001b	8d 7b 14	 lea	 edi, DWORD PTR [ebx+20]
  0001e	a5		 movsd
  0001f	a5		 movsd
  00020	a5		 movsd
  00021	5f		 pop	 edi
  00022	5e		 pop	 esi
  00023	8b c3		 mov	 eax, ebx
  00025	5b		 pop	 ebx
  00026	5d		 pop	 ebp
  00027	c2 04 00	 ret	 4
??0tagBaseCharDistanceSq@@QAE@ABU0@@Z ENDP		; tagBaseCharDistanceSq::tagBaseCharDistanceSq
_TEXT	ENDS
PUBLIC	?_Unchecked@?$_Vector_iterator@V?$_Vector_val@UtagBaseCharDistanceSq@@V?$allocator@UtagBaseCharDistanceSq@@@std@@@std@@@std@@QBEPAUtagBaseCharDistanceSq@@XZ ; std::_Vector_iterator<std::_Vector_val<tagBaseCharDistanceSq,std::allocator<tagBaseCharDistanceSq> > >::_Unchecked
; Function compile flags: /Ogsp
; File c:\program files (x86)\microsoft visual studio 10.0\vc\include\vector
;	COMDAT ?_Unchecked@?$_Vector_iterator@V?$_Vector_val@UtagBaseCharDistanceSq@@V?$allocator@UtagBaseCharDistanceSq@@@std@@@std@@@std@@QBEPAUtagBaseCharDistanceSq@@XZ
_TEXT	SEGMENT
?_Unchecked@?$_Vector_iterator@V?$_Vector_val@UtagBaseCharDistanceSq@@V?$allocator@UtagBaseCharDistanceSq@@@std@@@std@@@std@@QBEPAUtagBaseCharDistanceSq@@XZ PROC ; std::_Vector_iterator<std::_Vector_val<tagBaseCharDistanceSq,std::allocator<tagBaseCharDistanceSq> > >::_Unchecked, COMDAT
; _this$ = ecx

; 317  : 		return (_Unchecked_type(this->_Ptr));

  00000	8b 01		 mov	 eax, DWORD PTR [ecx]

; 318  : 		}

  00002	c3		 ret	 0
?_Unchecked@?$_Vector_iterator@V?$_Vector_val@UtagBaseCharDistanceSq@@V?$allocator@UtagBaseCharDistanceSq@@@std@@@std@@@std@@QBEPAUtagBaseCharDistanceSq@@XZ ENDP ; std::_Vector_iterator<std::_Vector_val<tagBaseCharDistanceSq,std::allocator<tagBaseCharDistanceSq> > >::_Unchecked
_TEXT	ENDS
PUBLIC	??0D3DXVECTOR3@@QAE@MMM@Z			; D3DXVECTOR3::D3DXVECTOR3
; Function compile flags: /Ogsp
; File c:\program files (x86)\microsoft directx sdk (june 2010)\include\d3dx9math.inl
;	COMDAT ??0D3DXVECTOR3@@QAE@MMM@Z
_TEXT	SEGMENT
_fx$ = 8						; size = 4
_fy$ = 12						; size = 4
_fz$ = 16						; size = 4
??0D3DXVECTOR3@@QAE@MMM@Z PROC				; D3DXVECTOR3::D3DXVECTOR3, COMDAT
; _this$ = ecx

; 303  : {

  00000	55		 push	 ebp
  00001	8b ec		 mov	 ebp, esp

; 304  :     x = fx;

  00003	f3 0f 10 45 08	 movss	 xmm0, DWORD PTR _fx$[ebp]
  00008	8b c1		 mov	 eax, ecx
  0000a	f3 0f 11 00	 movss	 DWORD PTR [eax], xmm0

; 305  :     y = fy;

  0000e	f3 0f 10 45 0c	 movss	 xmm0, DWORD PTR _fy$[ebp]
  00013	f3 0f 11 40 04	 movss	 DWORD PTR [eax+4], xmm0

; 306  :     z = fz;

  00018	f3 0f 10 45 10	 movss	 xmm0, DWORD PTR _fz$[ebp]
  0001d	f3 0f 11 40 08	 movss	 DWORD PTR [eax+8], xmm0

; 307  : }

  00022	5d		 pop	 ebp
  00023	c2 0c 00	 ret	 12			; 0000000cH
??0D3DXVECTOR3@@QAE@MMM@Z ENDP				; D3DXVECTOR3::D3DXVECTOR3
_TEXT	ENDS
PUBLIC	__mask@@NegFloat@
PUBLIC	??GD3DXVECTOR3@@QBE?AU0@XZ			; D3DXVECTOR3::operator-
;	COMDAT __mask@@NegFloat@
CONST	SEGMENT
__mask@@NegFloat@ DB 00H, 00H, 00H, 080H, 00H, 00H, 00H, 080H, 00H, 00H, 00H
	DB	080H, 00H, 00H, 00H, 080H
; Function compile flags: /Ogsp
CONST	ENDS
;	COMDAT ??GD3DXVECTOR3@@QBE?AU0@XZ
_TEXT	SEGMENT
___$ReturnUdt$ = 8					; size = 4
??GD3DXVECTOR3@@QBE?AU0@XZ PROC				; D3DXVECTOR3::operator-, COMDAT
; _this$ = ecx

; 372  : {

  00000	55		 push	 ebp
  00001	8b ec		 mov	 ebp, esp

; 373  :     return D3DXVECTOR3(-x, -y, -z);

  00003	f3 0f 10 05 00
	00 00 00	 movss	 xmm0, DWORD PTR __mask@@NegFloat@
  0000b	8b 45 08	 mov	 eax, DWORD PTR ___$ReturnUdt$[ebp]
  0000e	f3 0f 10 09	 movss	 xmm1, DWORD PTR [ecx]
  00012	0f 57 c8	 xorps	 xmm1, xmm0
  00015	f3 0f 11 08	 movss	 DWORD PTR [eax], xmm1
  00019	f3 0f 10 49 04	 movss	 xmm1, DWORD PTR [ecx+4]
  0001e	0f 57 c8	 xorps	 xmm1, xmm0
  00021	f3 0f 11 48 04	 movss	 DWORD PTR [eax+4], xmm1
  00026	f3 0f 10 49 08	 movss	 xmm1, DWORD PTR [ecx+8]
  0002b	0f 57 c8	 xorps	 xmm1, xmm0
  0002e	f3 0f 11 48 08	 movss	 DWORD PTR [eax+8], xmm1

; 374  : }

  00033	5d		 pop	 ebp
  00034	c2 04 00	 ret	 4
??GD3DXVECTOR3@@QBE?AU0@XZ ENDP				; D3DXVECTOR3::operator-
_TEXT	ENDS
PUBLIC	??HD3DXVECTOR3@@QBE?AU0@ABU0@@Z			; D3DXVECTOR3::operator+
; Function compile flags: /Ogsp
;	COMDAT ??HD3DXVECTOR3@@QBE?AU0@ABU0@@Z
_TEXT	SEGMENT
___$ReturnUdt$ = 8					; size = 4
_v$ = 12						; size = 4
??HD3DXVECTOR3@@QBE?AU0@ABU0@@Z PROC			; D3DXVECTOR3::operator+, COMDAT
; _this$ = ecx

; 380  : {

  00000	55		 push	 ebp
  00001	8b ec		 mov	 ebp, esp

; 381  :     return D3DXVECTOR3(x + v.x, y + v.y, z + v.z);

  00003	8b 55 0c	 mov	 edx, DWORD PTR _v$[ebp]
  00006	f3 0f 10 02	 movss	 xmm0, DWORD PTR [edx]
  0000a	f3 0f 10 09	 movss	 xmm1, DWORD PTR [ecx]
  0000e	8b 45 08	 mov	 eax, DWORD PTR ___$ReturnUdt$[ebp]
  00011	0f 5a c0	 cvtps2pd xmm0, xmm0
  00014	0f 5a c9	 cvtps2pd xmm1, xmm1
  00017	f2 0f 58 c1	 addsd	 xmm0, xmm1
  0001b	f3 0f 10 49 04	 movss	 xmm1, DWORD PTR [ecx+4]
  00020	66 0f 5a c0	 cvtpd2ps xmm0, xmm0
  00024	f3 0f 11 00	 movss	 DWORD PTR [eax], xmm0
  00028	f3 0f 10 42 04	 movss	 xmm0, DWORD PTR [edx+4]
  0002d	0f 5a c0	 cvtps2pd xmm0, xmm0
  00030	0f 5a c9	 cvtps2pd xmm1, xmm1
  00033	f2 0f 58 c1	 addsd	 xmm0, xmm1
  00037	f3 0f 10 49 08	 movss	 xmm1, DWORD PTR [ecx+8]
  0003c	66 0f 5a c0	 cvtpd2ps xmm0, xmm0
  00040	f3 0f 11 40 04	 movss	 DWORD PTR [eax+4], xmm0
  00045	f3 0f 10 42 08	 movss	 xmm0, DWORD PTR [edx+8]
  0004a	0f 5a c0	 cvtps2pd xmm0, xmm0
  0004d	0f 5a c9	 cvtps2pd xmm1, xmm1
  00050	f2 0f 58 c1	 addsd	 xmm0, xmm1
  00054	66 0f 5a c0	 cvtpd2ps xmm0, xmm0
  00058	f3 0f 11 40 08	 movss	 DWORD PTR [eax+8], xmm0

; 382  : }

  0005d	5d		 pop	 ebp
  0005e	c2 08 00	 ret	 8
??HD3DXVECTOR3@@QBE?AU0@ABU0@@Z ENDP			; D3DXVECTOR3::operator+
_TEXT	ENDS
PUBLIC	??$_Ptr_cat@V?$_Vector_const_iterator@V?$_Vector_val@UWeaponInfo@@V?$allocator@UWeaponInfo@@@std@@@std@@@std@@PAUWeaponInfo@@@std@@YA?AU_Nonscalar_ptr_iterator_tag@0@AAV?$_Vector_const_iterator@V?$_Vector_val@UWeaponInfo@@V?$allocator@UWeaponInfo@@@std@@@std@@@0@AAPAUWeaponInfo@@@Z ; std::_Ptr_cat<std::_Vector_const_iterator<std::_Vector_val<WeaponInfo,std::allocator<WeaponInfo> > >,WeaponInfo *>
; Function compile flags: /Ogsp
; File c:\program files (x86)\microsoft visual studio 10.0\vc\include\xutility
;	COMDAT ??$_Ptr_cat@V?$_Vector_const_iterator@V?$_Vector_val@UWeaponInfo@@V?$allocator@UWeaponInfo@@@std@@@std@@@std@@PAUWeaponInfo@@@std@@YA?AU_Nonscalar_ptr_iterator_tag@0@AAV?$_Vector_const_iterator@V?$_Vector_val@UWeaponInfo@@V?$allocator@UWeaponInfo@@@std@@@std@@@0@AAPAUWeaponInfo@@@Z
_TEXT	SEGMENT
__Cat$ = -1						; size = 1
___formal$ = 8						; size = 4
___formal$ = 12						; size = 4
??$_Ptr_cat@V?$_Vector_const_iterator@V?$_Vector_val@UWeaponInfo@@V?$allocator@UWeaponInfo@@@std@@@std@@@std@@PAUWeaponInfo@@@std@@YA?AU_Nonscalar_ptr_iterator_tag@0@AAV?$_Vector_const_iterator@V?$_Vector_val@UWeaponInfo@@V?$allocator@UWeaponInfo@@@std@@@std@@@0@AAPAUWeaponInfo@@@Z PROC ; std::_Ptr_cat<std::_Vector_const_iterator<std::_Vector_val<WeaponInfo,std::allocator<WeaponInfo> > >,WeaponInfo *>, COMDAT

; 485  : 	{	// return pointer category from arbitrary arguments

  00000	55		 push	 ebp
  00001	8b ec		 mov	 ebp, esp
  00003	51		 push	 ecx

; 486  : 	_Nonscalar_ptr_iterator_tag _Cat;
; 487  : 	return (_Cat);

  00004	8a 45 ff	 mov	 al, BYTE PTR __Cat$[ebp]

; 488  : 	}

  00007	c9		 leave
  00008	c3		 ret	 0
??$_Ptr_cat@V?$_Vector_const_iterator@V?$_Vector_val@UWeaponInfo@@V?$allocator@UWeaponInfo@@@std@@@std@@@std@@PAUWeaponInfo@@@std@@YA?AU_Nonscalar_ptr_iterator_tag@0@AAV?$_Vector_const_iterator@V?$_Vector_val@UWeaponInfo@@V?$allocator@UWeaponInfo@@@std@@@std@@@0@AAPAUWeaponInfo@@@Z ENDP ; std::_Ptr_cat<std::_Vector_const_iterator<std::_Vector_val<WeaponInfo,std::allocator<WeaponInfo> > >,WeaponInfo *>
_TEXT	ENDS
PUBLIC	??GD3DXVECTOR3@@QBE?AU0@ABU0@@Z			; D3DXVECTOR3::operator-
; Function compile flags: /Ogsp
; File c:\program files (x86)\microsoft directx sdk (june 2010)\include\d3dx9math.inl
;	COMDAT ??GD3DXVECTOR3@@QBE?AU0@ABU0@@Z
_TEXT	SEGMENT
___$ReturnUdt$ = 8					; size = 4
_v$ = 12						; size = 4
??GD3DXVECTOR3@@QBE?AU0@ABU0@@Z PROC			; D3DXVECTOR3::operator-, COMDAT
; _this$ = ecx

; 386  : {

  00000	55		 push	 ebp
  00001	8b ec		 mov	 ebp, esp

; 387  :     return D3DXVECTOR3(x - v.x, y - v.y, z - v.z);

  00003	8b 55 0c	 mov	 edx, DWORD PTR _v$[ebp]
  00006	f3 0f 10 01	 movss	 xmm0, DWORD PTR [ecx]
  0000a	f3 0f 10 0a	 movss	 xmm1, DWORD PTR [edx]
  0000e	8b 45 08	 mov	 eax, DWORD PTR ___$ReturnUdt$[ebp]
  00011	0f 5a c0	 cvtps2pd xmm0, xmm0
  00014	0f 5a c9	 cvtps2pd xmm1, xmm1
  00017	f2 0f 5c c1	 subsd	 xmm0, xmm1
  0001b	f3 0f 10 4a 04	 movss	 xmm1, DWORD PTR [edx+4]
  00020	66 0f 5a c0	 cvtpd2ps xmm0, xmm0
  00024	f3 0f 11 00	 movss	 DWORD PTR [eax], xmm0
  00028	f3 0f 10 41 04	 movss	 xmm0, DWORD PTR [ecx+4]
  0002d	0f 5a c0	 cvtps2pd xmm0, xmm0
  00030	0f 5a c9	 cvtps2pd xmm1, xmm1
  00033	f2 0f 5c c1	 subsd	 xmm0, xmm1
  00037	f3 0f 10 4a 08	 movss	 xmm1, DWORD PTR [edx+8]
  0003c	66 0f 5a c0	 cvtpd2ps xmm0, xmm0
  00040	f3 0f 11 40 04	 movss	 DWORD PTR [eax+4], xmm0
  00045	f3 0f 10 41 08	 movss	 xmm0, DWORD PTR [ecx+8]
  0004a	0f 5a c0	 cvtps2pd xmm0, xmm0
  0004d	0f 5a c9	 cvtps2pd xmm1, xmm1
  00050	f2 0f 5c c1	 subsd	 xmm0, xmm1
  00054	66 0f 5a c0	 cvtpd2ps xmm0, xmm0
  00058	f3 0f 11 40 08	 movss	 DWORD PTR [eax+8], xmm0

; 388  : }

  0005d	5d		 pop	 ebp
  0005e	c2 08 00	 ret	 8
??GD3DXVECTOR3@@QBE?AU0@ABU0@@Z ENDP			; D3DXVECTOR3::operator-
_TEXT	ENDS
PUBLIC	??$_Ptr_cat@V?$_Vector_const_iterator@V?$_Vector_val@UForceInfo@@V?$allocator@UForceInfo@@@std@@@std@@@std@@PAUForceInfo@@@std@@YA?AU_Nonscalar_ptr_iterator_tag@0@AAV?$_Vector_const_iterator@V?$_Vector_val@UForceInfo@@V?$allocator@UForceInfo@@@std@@@std@@@0@AAPAUForceInfo@@@Z ; std::_Ptr_cat<std::_Vector_const_iterator<std::_Vector_val<ForceInfo,std::allocator<ForceInfo> > >,ForceInfo *>
; Function compile flags: /Ogsp
; File c:\program files (x86)\microsoft visual studio 10.0\vc\include\xutility
;	COMDAT ??$_Ptr_cat@V?$_Vector_const_iterator@V?$_Vector_val@UForceInfo@@V?$allocator@UForceInfo@@@std@@@std@@@std@@PAUForceInfo@@@std@@YA?AU_Nonscalar_ptr_iterator_tag@0@AAV?$_Vector_const_iterator@V?$_Vector_val@UForceInfo@@V?$allocator@UForceInfo@@@std@@@std@@@0@AAPAUForceInfo@@@Z
_TEXT	SEGMENT
__Cat$ = -1						; size = 1
___formal$ = 8						; size = 4
___formal$ = 12						; size = 4
??$_Ptr_cat@V?$_Vector_const_iterator@V?$_Vector_val@UForceInfo@@V?$allocator@UForceInfo@@@std@@@std@@@std@@PAUForceInfo@@@std@@YA?AU_Nonscalar_ptr_iterator_tag@0@AAV?$_Vector_const_iterator@V?$_Vector_val@UForceInfo@@V?$allocator@UForceInfo@@@std@@@std@@@0@AAPAUForceInfo@@@Z PROC ; std::_Ptr_cat<std::_Vector_const_iterator<std::_Vector_val<ForceInfo,std::allocator<ForceInfo> > >,ForceInfo *>, COMDAT

; 485  : 	{	// return pointer category from arbitrary arguments

  00000	55		 push	 ebp
  00001	8b ec		 mov	 ebp, esp
  00003	51		 push	 ecx

; 486  : 	_Nonscalar_ptr_iterator_tag _Cat;
; 487  : 	return (_Cat);

  00004	8a 45 ff	 mov	 al, BYTE PTR __Cat$[ebp]

; 488  : 	}

  00007	c9		 leave
  00008	c3		 ret	 0
??$_Ptr_cat@V?$_Vector_const_iterator@V?$_Vector_val@UForceInfo@@V?$allocator@UForceInfo@@@std@@@std@@@std@@PAUForceInfo@@@std@@YA?AU_Nonscalar_ptr_iterator_tag@0@AAV?$_Vector_const_iterator@V?$_Vector_val@UForceInfo@@V?$allocator@UForceInfo@@@std@@@std@@@0@AAPAUForceInfo@@@Z ENDP ; std::_Ptr_cat<std::_Vector_const_iterator<std::_Vector_val<ForceInfo,std::allocator<ForceInfo> > >,ForceInfo *>
_TEXT	ENDS
PUBLIC	??$_Val_type@PAUtagBaseCharDistanceSq@@@std@@YAPAUtagBaseCharDistanceSq@@PAU1@@Z ; std::_Val_type<tagBaseCharDistanceSq *>
; Function compile flags: /Ogsp
;	COMDAT ??$_Val_type@PAUtagBaseCharDistanceSq@@@std@@YAPAUtagBaseCharDistanceSq@@PAU1@@Z
_TEXT	SEGMENT
___formal$ = 8						; size = 4
??$_Val_type@PAUtagBaseCharDistanceSq@@@std@@YAPAUtagBaseCharDistanceSq@@PAU1@@Z PROC ; std::_Val_type<tagBaseCharDistanceSq *>, COMDAT

; 790  : 	return (0);

  00000	33 c0		 xor	 eax, eax

; 791  : 	}

  00002	c3		 ret	 0
??$_Val_type@PAUtagBaseCharDistanceSq@@@std@@YAPAUtagBaseCharDistanceSq@@PAU1@@Z ENDP ; std::_Val_type<tagBaseCharDistanceSq *>
_TEXT	ENDS
PUBLIC	??D?$_Vector_const_iterator@V?$_Vector_val@UWeaponInfo@@V?$allocator@UWeaponInfo@@@std@@@std@@@std@@QBEABUWeaponInfo@@XZ ; std::_Vector_const_iterator<std::_Vector_val<WeaponInfo,std::allocator<WeaponInfo> > >::operator*
; Function compile flags: /Ogsp
; File c:\program files (x86)\microsoft visual studio 10.0\vc\include\vector
;	COMDAT ??D?$_Vector_const_iterator@V?$_Vector_val@UWeaponInfo@@V?$allocator@UWeaponInfo@@@std@@@std@@@std@@QBEABUWeaponInfo@@XZ
_TEXT	SEGMENT
??D?$_Vector_const_iterator@V?$_Vector_val@UWeaponInfo@@V?$allocator@UWeaponInfo@@@std@@@std@@@std@@QBEABUWeaponInfo@@XZ PROC ; std::_Vector_const_iterator<std::_Vector_val<WeaponInfo,std::allocator<WeaponInfo> > >::operator*, COMDAT
; _this$ = ecx

; 64   :  #if _ITERATOR_DEBUG_LEVEL == 2
; 65   : 		if (this->_Getcont() == 0
; 66   : 			|| this->_Ptr == 0
; 67   : 			|| this->_Ptr < ((_Myvec *)this->_Getcont())->_Myfirst
; 68   : 			|| ((_Myvec *)this->_Getcont())->_Mylast <= this->_Ptr)
; 69   : 			{	// report error
; 70   : 			_DEBUG_ERROR("vector iterator not dereferencable");
; 71   : 			_SCL_SECURE_OUT_OF_RANGE;
; 72   : 			}
; 73   : 
; 74   :  #elif _ITERATOR_DEBUG_LEVEL == 1
; 75   : 		_SCL_SECURE_VALIDATE(this->_Getcont() != 0);
; 76   : 		_SCL_SECURE_VALIDATE_RANGE(
; 77   : 			this->_Ptr != 0
; 78   : 			&& ((_Myvec *)this->_Getcont())->_Myfirst <= this->_Ptr
; 79   : 			&& this->_Ptr < ((_Myvec *)this->_Getcont())->_Mylast);
; 80   :  #endif /* _ITERATOR_DEBUG_LEVEL */
; 81   : 
; 82   : 		__analysis_assume(this->_Ptr != 0);
; 83   : 
; 84   : 		return (*this->_Ptr);

  00000	8b 01		 mov	 eax, DWORD PTR [ecx]

; 85   : 		}

  00002	c3		 ret	 0
??D?$_Vector_const_iterator@V?$_Vector_val@UWeaponInfo@@V?$allocator@UWeaponInfo@@@std@@@std@@@std@@QBEABUWeaponInfo@@XZ ENDP ; std::_Vector_const_iterator<std::_Vector_val<WeaponInfo,std::allocator<WeaponInfo> > >::operator*
_TEXT	ENDS
PUBLIC	??E?$_Vector_const_iterator@V?$_Vector_val@UWeaponInfo@@V?$allocator@UWeaponInfo@@@std@@@std@@@std@@QAEAAV01@XZ ; std::_Vector_const_iterator<std::_Vector_val<WeaponInfo,std::allocator<WeaponInfo> > >::operator++
; Function compile flags: /Ogsp
;	COMDAT ??E?$_Vector_const_iterator@V?$_Vector_val@UWeaponInfo@@V?$allocator@UWeaponInfo@@@std@@@std@@@std@@QAEAAV01@XZ
_TEXT	SEGMENT
??E?$_Vector_const_iterator@V?$_Vector_val@UWeaponInfo@@V?$allocator@UWeaponInfo@@@std@@@std@@@std@@QAEAAV01@XZ PROC ; std::_Vector_const_iterator<std::_Vector_val<WeaponInfo,std::allocator<WeaponInfo> > >::operator++, COMDAT
; _this$ = ecx

; 93   : 		{	// preincrement

  00000	8b c1		 mov	 eax, ecx

; 94   :  #if _ITERATOR_DEBUG_LEVEL == 2
; 95   : 		if (this->_Getcont() == 0
; 96   : 			|| this->_Ptr == 0
; 97   : 			|| ((_Myvec *)this->_Getcont())->_Mylast <= this->_Ptr)
; 98   : 			{	// report error
; 99   : 			_DEBUG_ERROR("vector iterator not incrementable");
; 100  : 			_SCL_SECURE_OUT_OF_RANGE;
; 101  : 			}
; 102  : 
; 103  :  #elif _ITERATOR_DEBUG_LEVEL == 1
; 104  : 		_SCL_SECURE_VALIDATE(this->_Getcont() != 0);
; 105  : 		_SCL_SECURE_VALIDATE_RANGE(
; 106  : 			this->_Ptr != 0
; 107  : 			&& this->_Ptr < ((_Myvec *)this->_Getcont())->_Mylast);
; 108  :  #endif /* _ITERATOR_DEBUG_LEVEL */
; 109  : 
; 110  : 		++this->_Ptr;

  00002	83 00 28	 add	 DWORD PTR [eax], 40	; 00000028H

; 111  : 		return (*this);
; 112  : 		}

  00005	c3		 ret	 0
??E?$_Vector_const_iterator@V?$_Vector_val@UWeaponInfo@@V?$allocator@UWeaponInfo@@@std@@@std@@@std@@QAEAAV01@XZ ENDP ; std::_Vector_const_iterator<std::_Vector_val<WeaponInfo,std::allocator<WeaponInfo> > >::operator++
_TEXT	ENDS
PUBLIC	??D?$_Vector_const_iterator@V?$_Vector_val@UForceInfo@@V?$allocator@UForceInfo@@@std@@@std@@@std@@QBEABUForceInfo@@XZ ; std::_Vector_const_iterator<std::_Vector_val<ForceInfo,std::allocator<ForceInfo> > >::operator*
; Function compile flags: /Ogsp
;	COMDAT ??D?$_Vector_const_iterator@V?$_Vector_val@UForceInfo@@V?$allocator@UForceInfo@@@std@@@std@@@std@@QBEABUForceInfo@@XZ
_TEXT	SEGMENT
??D?$_Vector_const_iterator@V?$_Vector_val@UForceInfo@@V?$allocator@UForceInfo@@@std@@@std@@@std@@QBEABUForceInfo@@XZ PROC ; std::_Vector_const_iterator<std::_Vector_val<ForceInfo,std::allocator<ForceInfo> > >::operator*, COMDAT
; _this$ = ecx

; 64   :  #if _ITERATOR_DEBUG_LEVEL == 2
; 65   : 		if (this->_Getcont() == 0
; 66   : 			|| this->_Ptr == 0
; 67   : 			|| this->_Ptr < ((_Myvec *)this->_Getcont())->_Myfirst
; 68   : 			|| ((_Myvec *)this->_Getcont())->_Mylast <= this->_Ptr)
; 69   : 			{	// report error
; 70   : 			_DEBUG_ERROR("vector iterator not dereferencable");
; 71   : 			_SCL_SECURE_OUT_OF_RANGE;
; 72   : 			}
; 73   : 
; 74   :  #elif _ITERATOR_DEBUG_LEVEL == 1
; 75   : 		_SCL_SECURE_VALIDATE(this->_Getcont() != 0);
; 76   : 		_SCL_SECURE_VALIDATE_RANGE(
; 77   : 			this->_Ptr != 0
; 78   : 			&& ((_Myvec *)this->_Getcont())->_Myfirst <= this->_Ptr
; 79   : 			&& this->_Ptr < ((_Myvec *)this->_Getcont())->_Mylast);
; 80   :  #endif /* _ITERATOR_DEBUG_LEVEL */
; 81   : 
; 82   : 		__analysis_assume(this->_Ptr != 0);
; 83   : 
; 84   : 		return (*this->_Ptr);

  00000	8b 01		 mov	 eax, DWORD PTR [ecx]

; 85   : 		}

  00002	c3		 ret	 0
??D?$_Vector_const_iterator@V?$_Vector_val@UForceInfo@@V?$allocator@UForceInfo@@@std@@@std@@@std@@QBEABUForceInfo@@XZ ENDP ; std::_Vector_const_iterator<std::_Vector_val<ForceInfo,std::allocator<ForceInfo> > >::operator*
_TEXT	ENDS
PUBLIC	??E?$_Vector_const_iterator@V?$_Vector_val@UForceInfo@@V?$allocator@UForceInfo@@@std@@@std@@@std@@QAEAAV01@XZ ; std::_Vector_const_iterator<std::_Vector_val<ForceInfo,std::allocator<ForceInfo> > >::operator++
; Function compile flags: /Ogsp
;	COMDAT ??E?$_Vector_const_iterator@V?$_Vector_val@UForceInfo@@V?$allocator@UForceInfo@@@std@@@std@@@std@@QAEAAV01@XZ
_TEXT	SEGMENT
??E?$_Vector_const_iterator@V?$_Vector_val@UForceInfo@@V?$allocator@UForceInfo@@@std@@@std@@@std@@QAEAAV01@XZ PROC ; std::_Vector_const_iterator<std::_Vector_val<ForceInfo,std::allocator<ForceInfo> > >::operator++, COMDAT
; _this$ = ecx

; 93   : 		{	// preincrement

  00000	8b c1		 mov	 eax, ecx

; 94   :  #if _ITERATOR_DEBUG_LEVEL == 2
; 95   : 		if (this->_Getcont() == 0
; 96   : 			|| this->_Ptr == 0
; 97   : 			|| ((_Myvec *)this->_Getcont())->_Mylast <= this->_Ptr)
; 98   : 			{	// report error
; 99   : 			_DEBUG_ERROR("vector iterator not incrementable");
; 100  : 			_SCL_SECURE_OUT_OF_RANGE;
; 101  : 			}
; 102  : 
; 103  :  #elif _ITERATOR_DEBUG_LEVEL == 1
; 104  : 		_SCL_SECURE_VALIDATE(this->_Getcont() != 0);
; 105  : 		_SCL_SECURE_VALIDATE_RANGE(
; 106  : 			this->_Ptr != 0
; 107  : 			&& this->_Ptr < ((_Myvec *)this->_Getcont())->_Mylast);
; 108  :  #endif /* _ITERATOR_DEBUG_LEVEL */
; 109  : 
; 110  : 		++this->_Ptr;

  00002	83 00 0c	 add	 DWORD PTR [eax], 12	; 0000000cH

; 111  : 		return (*this);
; 112  : 		}

  00005	c3		 ret	 0
??E?$_Vector_const_iterator@V?$_Vector_val@UForceInfo@@V?$allocator@UForceInfo@@@std@@@std@@@std@@QAEAAV01@XZ ENDP ; std::_Vector_const_iterator<std::_Vector_val<ForceInfo,std::allocator<ForceInfo> > >::operator++
_TEXT	ENDS
PUBLIC	??$_Unchecked@PAUtagBaseCharDistanceSq@@@std@@YAPAUtagBaseCharDistanceSq@@PAU1@@Z ; std::_Unchecked<tagBaseCharDistanceSq *>
; Function compile flags: /Ogsp
; File c:\program files (x86)\microsoft visual studio 10.0\vc\include\xutility
;	COMDAT ??$_Unchecked@PAUtagBaseCharDistanceSq@@@std@@YAPAUtagBaseCharDistanceSq@@PAU1@@Z
_TEXT	SEGMENT
__Src$ = 8						; size = 4
??$_Unchecked@PAUtagBaseCharDistanceSq@@@std@@YAPAUtagBaseCharDistanceSq@@PAU1@@Z PROC ; std::_Unchecked<tagBaseCharDistanceSq *>, COMDAT

; 266  : 	{	// construct unchecked from checked, generic

  00000	55		 push	 ebp
  00001	8b ec		 mov	 ebp, esp

; 267  : 	return (_Src);

  00003	8b 45 08	 mov	 eax, DWORD PTR __Src$[ebp]

; 268  : 	}

  00006	5d		 pop	 ebp
  00007	c3		 ret	 0
??$_Unchecked@PAUtagBaseCharDistanceSq@@@std@@YAPAUtagBaseCharDistanceSq@@PAU1@@Z ENDP ; std::_Unchecked<tagBaseCharDistanceSq *>
_TEXT	ENDS
PUBLIC	??$_Dist_type@PAUtagBaseCharDistanceSq@@@std@@YAPAHPAUtagBaseCharDistanceSq@@@Z ; std::_Dist_type<tagBaseCharDistanceSq *>
; Function compile flags: /Ogsp
;	COMDAT ??$_Dist_type@PAUtagBaseCharDistanceSq@@@std@@YAPAHPAUtagBaseCharDistanceSq@@@Z
_TEXT	SEGMENT
___formal$ = 8						; size = 4
??$_Dist_type@PAUtagBaseCharDistanceSq@@@std@@YAPAHPAUtagBaseCharDistanceSq@@@Z PROC ; std::_Dist_type<tagBaseCharDistanceSq *>, COMDAT

; 850  : 	return (0);

  00000	33 c0		 xor	 eax, eax

; 851  : 	}

  00002	c3		 ret	 0
??$_Dist_type@PAUtagBaseCharDistanceSq@@@std@@YAPAHPAUtagBaseCharDistanceSq@@@Z ENDP ; std::_Dist_type<tagBaseCharDistanceSq *>
_TEXT	ENDS
PUBLIC	??4tagBaseCharDistanceSq@@QAEAAU0@ABU0@@Z	; tagBaseCharDistanceSq::operator=
; Function compile flags: /Ogsp
;	COMDAT ??4tagBaseCharDistanceSq@@QAEAAU0@ABU0@@Z
_TEXT	SEGMENT
___that$ = 8						; size = 4
??4tagBaseCharDistanceSq@@QAEAAU0@ABU0@@Z PROC		; tagBaseCharDistanceSq::operator=, COMDAT
; _this$ = ecx
  00000	55		 push	 ebp
  00001	8b ec		 mov	 ebp, esp
  00003	53		 push	 ebx
  00004	56		 push	 esi
  00005	8b 75 08	 mov	 esi, DWORD PTR ___that$[ebp]
  00008	57		 push	 edi
  00009	56		 push	 esi
  0000a	8b d9		 mov	 ebx, ecx
  0000c	ff 15 00 00 00
	00		 call	 DWORD PTR __imp_??4ioHashString@@QAEAAV0@ABV0@@Z
  00012	d9 46 10	 fld	 DWORD PTR [esi+16]
  00015	83 c6 14	 add	 esi, 20			; 00000014H
  00018	d9 5b 10	 fstp	 DWORD PTR [ebx+16]
  0001b	8d 7b 14	 lea	 edi, DWORD PTR [ebx+20]
  0001e	a5		 movsd
  0001f	a5		 movsd
  00020	a5		 movsd
  00021	5f		 pop	 edi
  00022	5e		 pop	 esi
  00023	8b c3		 mov	 eax, ebx
  00025	5b		 pop	 ebx
  00026	5d		 pop	 ebp
  00027	c2 04 00	 ret	 4
??4tagBaseCharDistanceSq@@QAEAAU0@ABU0@@Z ENDP		; tagBaseCharDistanceSq::operator=
_TEXT	ENDS
PUBLIC	??_GtagBaseCharDistanceSq@@QAEPAXI@Z		; tagBaseCharDistanceSq::`scalar deleting destructor'
; Function compile flags: /Ogsp
;	COMDAT ??_GtagBaseCharDistanceSq@@QAEPAXI@Z
_TEXT	SEGMENT
___flags$ = 8						; size = 4
??_GtagBaseCharDistanceSq@@QAEPAXI@Z PROC		; tagBaseCharDistanceSq::`scalar deleting destructor', COMDAT
; _this$ = ecx
  00000	55		 push	 ebp
  00001	8b ec		 mov	 ebp, esp
  00003	56		 push	 esi
  00004	8b f1		 mov	 esi, ecx
  00006	ff 15 00 00 00
	00		 call	 DWORD PTR __imp_??1ioHashString@@QAE@XZ
  0000c	f6 45 08 01	 test	 BYTE PTR ___flags$[ebp], 1
  00010	74 07		 je	 SHORT $LN1@scalar@2
  00012	56		 push	 esi
  00013	e8 00 00 00 00	 call	 ??3@YAXPAX@Z		; operator delete
  00018	59		 pop	 ecx
$LN1@scalar@2:
  00019	8b c6		 mov	 eax, esi
  0001b	5e		 pop	 esi
  0001c	5d		 pop	 ebp
  0001d	c2 04 00	 ret	 4
??_GtagBaseCharDistanceSq@@QAEPAXI@Z ENDP		; tagBaseCharDistanceSq::`scalar deleting destructor'
_TEXT	ENDS
PUBLIC	??$forward@AAPAUtagBaseCharDistanceSq@@@std@@YAAAPAUtagBaseCharDistanceSq@@AAPAU1@@Z ; std::forward<tagBaseCharDistanceSq * &>
; Function compile flags: /Ogsp
; File c:\program files (x86)\microsoft visual studio 10.0\vc\include\utility
;	COMDAT ??$forward@AAPAUtagBaseCharDistanceSq@@@std@@YAAAPAUtagBaseCharDistanceSq@@AAPAU1@@Z
_TEXT	SEGMENT
__Arg$ = 8						; size = 4
??$forward@AAPAUtagBaseCharDistanceSq@@@std@@YAAAPAUtagBaseCharDistanceSq@@AAPAU1@@Z PROC ; std::forward<tagBaseCharDistanceSq * &>, COMDAT

; 78   : 	{	// forward _Arg, given explicitly specified type parameter

  00000	55		 push	 ebp
  00001	8b ec		 mov	 ebp, esp

; 79   : 	return ((_Ty&&)_Arg);

  00003	8b 45 08	 mov	 eax, DWORD PTR __Arg$[ebp]

; 80   : 	}

  00006	5d		 pop	 ebp
  00007	c3		 ret	 0
??$forward@AAPAUtagBaseCharDistanceSq@@@std@@YAAAPAUtagBaseCharDistanceSq@@AAPAU1@@Z ENDP ; std::forward<tagBaseCharDistanceSq * &>
_TEXT	ENDS
PUBLIC	??$?0AAPAUtagBaseCharDistanceSq@@AAPAU0@@?$_Pair_base@PAUtagBaseCharDistanceSq@@PAU1@@std@@QAE@AAPAUtagBaseCharDistanceSq@@0@Z ; std::_Pair_base<tagBaseCharDistanceSq *,tagBaseCharDistanceSq *>::_Pair_base<tagBaseCharDistanceSq *,tagBaseCharDistanceSq *><tagBaseCharDistanceSq * &,tagBaseCharDistanceSq * &>
; Function compile flags: /Ogsp
;	COMDAT ??$?0AAPAUtagBaseCharDistanceSq@@AAPAU0@@?$_Pair_base@PAUtagBaseCharDistanceSq@@PAU1@@std@@QAE@AAPAUtagBaseCharDistanceSq@@0@Z
_TEXT	SEGMENT
__Val1$ = 8						; size = 4
__Val2$ = 12						; size = 4
??$?0AAPAUtagBaseCharDistanceSq@@AAPAU0@@?$_Pair_base@PAUtagBaseCharDistanceSq@@PAU1@@std@@QAE@AAPAUtagBaseCharDistanceSq@@0@Z PROC ; std::_Pair_base<tagBaseCharDistanceSq *,tagBaseCharDistanceSq *>::_Pair_base<tagBaseCharDistanceSq *,tagBaseCharDistanceSq *><tagBaseCharDistanceSq * &,tagBaseCharDistanceSq * &>, COMDAT
; _this$ = ecx

; 163  : 		{	// construct from moved values

  00000	55		 push	 ebp
  00001	8b ec		 mov	 ebp, esp
  00003	8b c1		 mov	 eax, ecx
  00005	8b 4d 08	 mov	 ecx, DWORD PTR __Val1$[ebp]
  00008	8b 09		 mov	 ecx, DWORD PTR [ecx]
  0000a	89 08		 mov	 DWORD PTR [eax], ecx
  0000c	8b 4d 0c	 mov	 ecx, DWORD PTR __Val2$[ebp]
  0000f	8b 09		 mov	 ecx, DWORD PTR [ecx]
  00011	89 48 04	 mov	 DWORD PTR [eax+4], ecx

; 164  : 		}

  00014	5d		 pop	 ebp
  00015	c2 08 00	 ret	 8
??$?0AAPAUtagBaseCharDistanceSq@@AAPAU0@@?$_Pair_base@PAUtagBaseCharDistanceSq@@PAU1@@std@@QAE@AAPAUtagBaseCharDistanceSq@@0@Z ENDP ; std::_Pair_base<tagBaseCharDistanceSq *,tagBaseCharDistanceSq *>::_Pair_base<tagBaseCharDistanceSq *,tagBaseCharDistanceSq *><tagBaseCharDistanceSq * &,tagBaseCharDistanceSq * &>
_TEXT	ENDS
PUBLIC	??$_Move@AAUtagBaseCharDistanceSq@@@std@@YA$$QAUtagBaseCharDistanceSq@@AAU1@@Z ; std::_Move<tagBaseCharDistanceSq &>
; Function compile flags: /Ogsp
;	COMDAT ??$_Move@AAUtagBaseCharDistanceSq@@@std@@YA$$QAUtagBaseCharDistanceSq@@AAU1@@Z
_TEXT	SEGMENT
__Arg$ = 8						; size = 4
??$_Move@AAUtagBaseCharDistanceSq@@@std@@YA$$QAUtagBaseCharDistanceSq@@AAU1@@Z PROC ; std::_Move<tagBaseCharDistanceSq &>, COMDAT

; 94   : 	{	// forward _Arg as movable

  00000	55		 push	 ebp
  00001	8b ec		 mov	 ebp, esp

; 95   : 	return ((typename tr1::_Remove_reference<_Ty>::_Type&&)_Arg);

  00003	8b 45 08	 mov	 eax, DWORD PTR __Arg$[ebp]

; 96   : 	}

  00006	5d		 pop	 ebp
  00007	c3		 ret	 0
??$_Move@AAUtagBaseCharDistanceSq@@@std@@YA$$QAUtagBaseCharDistanceSq@@AAU1@@Z ENDP ; std::_Move<tagBaseCharDistanceSq &>
_TEXT	ENDS
PUBLIC	??$forward@ABUWeaponInfo@@@std@@YAABUWeaponInfo@@ABU1@@Z ; std::forward<WeaponInfo const &>
; Function compile flags: /Ogsp
;	COMDAT ??$forward@ABUWeaponInfo@@@std@@YAABUWeaponInfo@@ABU1@@Z
_TEXT	SEGMENT
__Arg$ = 8						; size = 4
??$forward@ABUWeaponInfo@@@std@@YAABUWeaponInfo@@ABU1@@Z PROC ; std::forward<WeaponInfo const &>, COMDAT

; 78   : 	{	// forward _Arg, given explicitly specified type parameter

  00000	55		 push	 ebp
  00001	8b ec		 mov	 ebp, esp

; 79   : 	return ((_Ty&&)_Arg);

  00003	8b 45 08	 mov	 eax, DWORD PTR __Arg$[ebp]

; 80   : 	}

  00006	5d		 pop	 ebp
  00007	c3		 ret	 0
??$forward@ABUWeaponInfo@@@std@@YAABUWeaponInfo@@ABU1@@Z ENDP ; std::forward<WeaponInfo const &>
_TEXT	ENDS
PUBLIC	??$forward@ABUForceInfo@@@std@@YAABUForceInfo@@ABU1@@Z ; std::forward<ForceInfo const &>
; Function compile flags: /Ogsp
;	COMDAT ??$forward@ABUForceInfo@@@std@@YAABUForceInfo@@ABU1@@Z
_TEXT	SEGMENT
__Arg$ = 8						; size = 4
??$forward@ABUForceInfo@@@std@@YAABUForceInfo@@ABU1@@Z PROC ; std::forward<ForceInfo const &>, COMDAT

; 78   : 	{	// forward _Arg, given explicitly specified type parameter

  00000	55		 push	 ebp
  00001	8b ec		 mov	 ebp, esp

; 79   : 	return ((_Ty&&)_Arg);

  00003	8b 45 08	 mov	 eax, DWORD PTR __Arg$[ebp]

; 80   : 	}

  00006	5d		 pop	 ebp
  00007	c3		 ret	 0
??$forward@ABUForceInfo@@@std@@YAABUForceInfo@@ABU1@@Z ENDP ; std::forward<ForceInfo const &>
_TEXT	ENDS
PUBLIC	??$forward@UtagBaseCharDistanceSq@@@std@@YA$$QAUtagBaseCharDistanceSq@@AAU1@@Z ; std::forward<tagBaseCharDistanceSq>
; Function compile flags: /Ogsp
;	COMDAT ??$forward@UtagBaseCharDistanceSq@@@std@@YA$$QAUtagBaseCharDistanceSq@@AAU1@@Z
_TEXT	SEGMENT
__Arg$ = 8						; size = 4
??$forward@UtagBaseCharDistanceSq@@@std@@YA$$QAUtagBaseCharDistanceSq@@AAU1@@Z PROC ; std::forward<tagBaseCharDistanceSq>, COMDAT

; 78   : 	{	// forward _Arg, given explicitly specified type parameter

  00000	55		 push	 ebp
  00001	8b ec		 mov	 ebp, esp

; 79   : 	return ((_Ty&&)_Arg);

  00003	8b 45 08	 mov	 eax, DWORD PTR __Arg$[ebp]

; 80   : 	}

  00006	5d		 pop	 ebp
  00007	c3		 ret	 0
??$forward@UtagBaseCharDistanceSq@@@std@@YA$$QAUtagBaseCharDistanceSq@@AAU1@@Z ENDP ; std::forward<tagBaseCharDistanceSq>
_TEXT	ENDS
PUBLIC	??$_Construct@UForceInfo@@ABU1@@std@@YAXPAUForceInfo@@ABU1@@Z ; std::_Construct<ForceInfo,ForceInfo const &>
; Function compile flags: /Ogsp
; File c:\program files (x86)\microsoft visual studio 10.0\vc\include\xmemory
;	COMDAT ??$_Construct@UForceInfo@@ABU1@@std@@YAXPAUForceInfo@@ABU1@@Z
_TEXT	SEGMENT
__Ptr$ = 8						; size = 4
__Val$ = 12						; size = 4
??$_Construct@UForceInfo@@ABU1@@std@@YAXPAUForceInfo@@ABU1@@Z PROC ; std::_Construct<ForceInfo,ForceInfo const &>, COMDAT

; 46   : 	{	// construct object at _Ptr with value _Val

  00000	55		 push	 ebp
  00001	8b ec		 mov	 ebp, esp
  00003	57		 push	 edi

; 47   : 	void _FARQ *_Vptr = _Ptr;
; 48   : 	::new (_Vptr) _Ty1(_STD forward<_Ty2>(_Val));

  00004	8b 7d 08	 mov	 edi, DWORD PTR __Ptr$[ebp]
  00007	85 ff		 test	 edi, edi
  00009	74 08		 je	 SHORT $LN3@Construct
  0000b	56		 push	 esi
  0000c	8b 75 0c	 mov	 esi, DWORD PTR __Val$[ebp]
  0000f	a5		 movsd
  00010	a5		 movsd
  00011	a5		 movsd
  00012	5e		 pop	 esi
$LN3@Construct:
  00013	5f		 pop	 edi

; 49   : 	}

  00014	5d		 pop	 ebp
  00015	c3		 ret	 0
??$_Construct@UForceInfo@@ABU1@@std@@YAXPAUForceInfo@@ABU1@@Z ENDP ; std::_Construct<ForceInfo,ForceInfo const &>
_TEXT	ENDS
PUBLIC	??$move@AAUtagBaseCharDistanceSq@@@std@@YA$$QAUtagBaseCharDistanceSq@@AAU1@@Z ; std::move<tagBaseCharDistanceSq &>
; Function compile flags: /Ogsp
; File c:\program files (x86)\microsoft visual studio 10.0\vc\include\utility
;	COMDAT ??$move@AAUtagBaseCharDistanceSq@@@std@@YA$$QAUtagBaseCharDistanceSq@@AAU1@@Z
_TEXT	SEGMENT
__Arg$ = 8						; size = 4
??$move@AAUtagBaseCharDistanceSq@@@std@@YA$$QAUtagBaseCharDistanceSq@@AAU1@@Z PROC ; std::move<tagBaseCharDistanceSq &>, COMDAT

; 86   : 	{	// forward _Arg as movable

  00000	55		 push	 ebp
  00001	8b ec		 mov	 ebp, esp

; 87   : 	return ((typename tr1::_Remove_reference<_Ty>::_Type&&)_Arg);

  00003	8b 45 08	 mov	 eax, DWORD PTR __Arg$[ebp]

; 88   : 	}

  00006	5d		 pop	 ebp
  00007	c3		 ret	 0
??$move@AAUtagBaseCharDistanceSq@@@std@@YA$$QAUtagBaseCharDistanceSq@@AAU1@@Z ENDP ; std::move<tagBaseCharDistanceSq &>
_TEXT	ENDS
PUBLIC	?D3DXVec3LengthSq@@YAMPBUD3DXVECTOR3@@@Z	; D3DXVec3LengthSq
; Function compile flags: /Ogsp
; File c:\program files (x86)\microsoft directx sdk (june 2010)\include\d3dx9math.inl
;	COMDAT ?D3DXVec3LengthSq@@YAMPBUD3DXVECTOR3@@@Z
_TEXT	SEGMENT
tv165 = 8						; size = 4
_pV$ = 8						; size = 4
?D3DXVec3LengthSq@@YAMPBUD3DXVECTOR3@@@Z PROC		; D3DXVec3LengthSq, COMDAT

; 1725 : {

  00000	55		 push	 ebp
  00001	8b ec		 mov	 ebp, esp

; 1726 : #ifdef D3DX_DEBUG
; 1727 :     if(!pV)
; 1728 :         return 0.0f;
; 1729 : #endif
; 1730 : 
; 1731 :     return pV->x * pV->x + pV->y * pV->y + pV->z * pV->z;

  00003	8b 45 08	 mov	 eax, DWORD PTR _pV$[ebp]
  00006	d9 40 04	 fld	 DWORD PTR [eax+4]
  00009	d9 00		 fld	 DWORD PTR [eax]
  0000b	d9 40 08	 fld	 DWORD PTR [eax+8]
  0000e	d9 c1		 fld	 ST(1)
  00010	de ca		 fmulp	 ST(2), ST(0)
  00012	d9 c2		 fld	 ST(2)
  00014	de cb		 fmulp	 ST(3), ST(0)
  00016	d9 c9		 fxch	 ST(1)
  00018	de c2		 faddp	 ST(2), ST(0)
  0001a	d9 c0		 fld	 ST(0)
  0001c	de c9		 fmulp	 ST(1), ST(0)
  0001e	de c1		 faddp	 ST(1), ST(0)
  00020	d9 5d 08	 fstp	 DWORD PTR tv165[ebp]
  00023	d9 45 08	 fld	 DWORD PTR tv165[ebp]

; 1732 : }

  00026	5d		 pop	 ebp
  00027	c3		 ret	 0
?D3DXVec3LengthSq@@YAMPBUD3DXVECTOR3@@@Z ENDP		; D3DXVec3LengthSq
_TEXT	ENDS
PUBLIC	?D3DXVec3Dot@@YAMPBUD3DXVECTOR3@@0@Z		; D3DXVec3Dot
; Function compile flags: /Ogsp
;	COMDAT ?D3DXVec3Dot@@YAMPBUD3DXVECTOR3@@0@Z
_TEXT	SEGMENT
tv188 = 8						; size = 4
_pV1$ = 8						; size = 4
_pV2$ = 12						; size = 4
?D3DXVec3Dot@@YAMPBUD3DXVECTOR3@@0@Z PROC		; D3DXVec3Dot, COMDAT

; 1736 : {

  00000	55		 push	 ebp
  00001	8b ec		 mov	 ebp, esp

; 1737 : #ifdef D3DX_DEBUG
; 1738 :     if(!pV1 || !pV2)
; 1739 :         return 0.0f;
; 1740 : #endif
; 1741 : 
; 1742 :     return pV1->x * pV2->x + pV1->y * pV2->y + pV1->z * pV2->z;

  00003	8b 45 08	 mov	 eax, DWORD PTR _pV1$[ebp]
  00006	8b 4d 0c	 mov	 ecx, DWORD PTR _pV2$[ebp]
  00009	d9 40 04	 fld	 DWORD PTR [eax+4]
  0000c	d8 49 04	 fmul	 DWORD PTR [ecx+4]
  0000f	d9 00		 fld	 DWORD PTR [eax]
  00011	d8 09		 fmul	 DWORD PTR [ecx]
  00013	de c1		 faddp	 ST(1), ST(0)
  00015	d9 40 08	 fld	 DWORD PTR [eax+8]
  00018	d8 49 08	 fmul	 DWORD PTR [ecx+8]
  0001b	de c1		 faddp	 ST(1), ST(0)
  0001d	d9 5d 08	 fstp	 DWORD PTR tv188[ebp]
  00020	d9 45 08	 fld	 DWORD PTR tv188[ebp]

; 1743 : }

  00023	5d		 pop	 ebp
  00024	c3		 ret	 0
?D3DXVec3Dot@@YAMPBUD3DXVECTOR3@@0@Z ENDP		; D3DXVec3Dot
_TEXT	ENDS
PUBLIC	?_DECSTR@@YAXPADH@Z				; _DECSTR
; Function compile flags: /Ogsp
; File d:\lost saga for developer\youtube\tutorial\source\src\lsclient\stringprotect.h
;	COMDAT ?_DECSTR@@YAXPADH@Z
_TEXT	SEGMENT
_s$ = 8							; size = 4
_l$ = 12						; size = 4
?_DECSTR@@YAXPADH@Z PROC				; _DECSTR, COMDAT

; 40   : __forceinline void _DECSTR(char* s, int l){int i=0,l4=(l-1)/4,*p=(int*)s;s[l-1]=0;for(;i<l4;++i)*(p++)^=0xEAEBECED;for(i=l4*4;i<l-1;++i)s[i]^=0xED-i%4;}

  00000	55		 push	 ebp
  00001	8b ec		 mov	 ebp, esp
  00003	8b 4d 0c	 mov	 ecx, DWORD PTR _l$[ebp]
  00006	56		 push	 esi
  00007	8b 75 08	 mov	 esi, DWORD PTR _s$[ebp]
  0000a	57		 push	 edi
  0000b	8d 79 ff	 lea	 edi, DWORD PTR [ecx-1]
  0000e	8b c7		 mov	 eax, edi
  00010	99		 cdq
  00011	83 e2 03	 and	 edx, 3
  00014	03 c2		 add	 eax, edx
  00016	c1 f8 02	 sar	 eax, 2
  00019	8b d6		 mov	 edx, esi
  0001b	c6 44 0e ff 00	 mov	 BYTE PTR [esi+ecx-1], 0
  00020	85 c0		 test	 eax, eax
  00022	7e 0e		 jle	 SHORT $LN4@DECSTR
  00024	8b c8		 mov	 ecx, eax
$LL6@DECSTR:
  00026	81 32 ed ec eb
	ea		 xor	 DWORD PTR [edx], -353637139 ; eaebecedH
  0002c	83 c2 04	 add	 edx, 4
  0002f	49		 dec	 ecx
  00030	75 f4		 jne	 SHORT $LL6@DECSTR
$LN4@DECSTR:
  00032	c1 e0 02	 shl	 eax, 2
  00035	eb 17		 jmp	 SHORT $LN14@DECSTR
$LL3@DECSTR:
  00037	8b c8		 mov	 ecx, eax
  00039	81 e1 03 00 00
	80		 and	 ecx, -2147483645	; 80000003H
  0003f	79 05		 jns	 SHORT $LN13@DECSTR
  00041	49		 dec	 ecx
  00042	83 c9 fc	 or	 ecx, -4			; fffffffcH
  00045	41		 inc	 ecx
$LN13@DECSTR:
  00046	b2 ed		 mov	 dl, -19			; ffffffedH
  00048	2a d1		 sub	 dl, cl
  0004a	30 14 30	 xor	 BYTE PTR [eax+esi], dl
  0004d	40		 inc	 eax
$LN14@DECSTR:
  0004e	3b c7		 cmp	 eax, edi
  00050	7c e5		 jl	 SHORT $LL3@DECSTR
  00052	5f		 pop	 edi
  00053	5e		 pop	 esi
  00054	5d		 pop	 ebp
  00055	c3		 ret	 0
?_DECSTR@@YAXPADH@Z ENDP				; _DECSTR
_TEXT	ENDS
PUBLIC	?return57@@YAIXZ				; return57
; Function compile flags: /Ogsp
; File d:\lost saga for developer\youtube\tutorial\source\src\lsclient\veryoftenusedefine.h
;	COMDAT ?return57@@YAIXZ
_TEXT	SEGMENT
?return57@@YAIXZ PROC					; return57, COMDAT

; 15   : __forceinline unsigned int return57() { __asm mov eax, 57 };

  00000	b8 39 00 00 00	 mov	 eax, 57			; 00000039H
  00005	c3		 ret	 0
?return57@@YAIXZ ENDP					; return57
_TEXT	ENDS
PUBLIC	?GetGroup@ioGameEntity@@QBEPAVioEntityGroup@@XZ	; ioGameEntity::GetGroup
; Function compile flags: /Ogsp
; File d:\lost saga for developer\youtube\tutorial\source\src\lsclient\iogameentity.h
;	COMDAT ?GetGroup@ioGameEntity@@QBEPAVioEntityGroup@@XZ
_TEXT	SEGMENT
?GetGroup@ioGameEntity@@QBEPAVioEntityGroup@@XZ PROC	; ioGameEntity::GetGroup, COMDAT
; _this$ = ecx

; 166  : 	inline ioEntityGroup* GetGroup() const { return m_pGroup; }

  00000	8b 41 04	 mov	 eax, DWORD PTR [ecx+4]
  00003	c3		 ret	 0
?GetGroup@ioGameEntity@@QBEPAVioEntityGroup@@XZ ENDP	; ioGameEntity::GetGroup
_TEXT	ENDS
PUBLIC	??1WeaponInfo@@QAE@XZ				; WeaponInfo::~WeaponInfo
; Function compile flags: /Ogsp
;	COMDAT ??1WeaponInfo@@QAE@XZ
_TEXT	SEGMENT
??1WeaponInfo@@QAE@XZ PROC				; WeaponInfo::~WeaponInfo, COMDAT
; _this$ = ecx
  00000	83 c1 08	 add	 ecx, 8
  00003	ff 25 00 00 00
	00		 jmp	 DWORD PTR __imp_??1ioHashString@@QAE@XZ
??1WeaponInfo@@QAE@XZ ENDP				; WeaponInfo::~WeaponInfo
_TEXT	ENDS
PUBLIC	??0tagBaseCharDistanceSq@@QAE@XZ		; tagBaseCharDistanceSq::tagBaseCharDistanceSq
EXTRN	__imp_?VEC3_ZERO@ioMath@@2UD3DXVECTOR3@@A:BYTE
EXTRN	__imp_??0ioHashString@@QAE@XZ:PROC
; Function compile flags: /Ogsp
; File d:\lost saga for developer\youtube\tutorial\source\src\lsclient\playentityhelpstruct.h
;	COMDAT ??0tagBaseCharDistanceSq@@QAE@XZ
_TEXT	SEGMENT
??0tagBaseCharDistanceSq@@QAE@XZ PROC			; tagBaseCharDistanceSq::tagBaseCharDistanceSq, COMDAT
; _this$ = ecx

; 3001 : 	tagBaseCharDistanceSq()

  00000	53		 push	 ebx
  00001	56		 push	 esi
  00002	57		 push	 edi
  00003	8b d9		 mov	 ebx, ecx
  00005	ff 15 00 00 00
	00		 call	 DWORD PTR __imp_??0ioHashString@@QAE@XZ

; 3002 : 	{
; 3003 : 		m_fDistanceSq = 0.0f;

  0000b	0f 57 c0	 xorps	 xmm0, xmm0
  0000e	f3 0f 11 43 10	 movss	 DWORD PTR [ebx+16], xmm0

; 3004 : 		m_vPos = ioMath::VEC3_ZERO;

  00013	8b 35 00 00 00
	00		 mov	 esi, DWORD PTR __imp_?VEC3_ZERO@ioMath@@2UD3DXVECTOR3@@A
  00019	8d 7b 14	 lea	 edi, DWORD PTR [ebx+20]
  0001c	a5		 movsd
  0001d	a5		 movsd
  0001e	a5		 movsd
  0001f	5f		 pop	 edi
  00020	5e		 pop	 esi

; 3005 : 	}

  00021	8b c3		 mov	 eax, ebx
  00023	5b		 pop	 ebx
  00024	c3		 ret	 0
??0tagBaseCharDistanceSq@@QAE@XZ ENDP			; tagBaseCharDistanceSq::tagBaseCharDistanceSq
_TEXT	ENDS
PUBLIC	??RBaseCharDistanceSqSort2@@QBE_NABUtagBaseCharDistanceSq@@0@Z ; BaseCharDistanceSqSort2::operator()
; Function compile flags: /Ogsp
;	COMDAT ??RBaseCharDistanceSqSort2@@QBE_NABUtagBaseCharDistanceSq@@0@Z
_TEXT	SEGMENT
_lhs$ = 8						; size = 4
_rhs$ = 12						; size = 4
??RBaseCharDistanceSqSort2@@QBE_NABUtagBaseCharDistanceSq@@0@Z PROC ; BaseCharDistanceSqSort2::operator(), COMDAT
; _this$ = ecx

; 3029 : 	{

  00000	55		 push	 ebp
  00001	8b ec		 mov	 ebp, esp

; 3030 : 		if( lhs.m_fDistanceSq < rhs.m_fDistanceSq )

  00003	8b 45 08	 mov	 eax, DWORD PTR _lhs$[ebp]
  00006	f3 0f 10 40 10	 movss	 xmm0, DWORD PTR [eax+16]
  0000b	8b 45 0c	 mov	 eax, DWORD PTR _rhs$[ebp]
  0000e	f3 0f 10 48 10	 movss	 xmm1, DWORD PTR [eax+16]
  00013	0f 5a c0	 cvtps2pd xmm0, xmm0
  00016	0f 5a c9	 cvtps2pd xmm1, xmm1
  00019	66 0f 2f c8	 comisd	 xmm1, xmm0
  0001d	76 04		 jbe	 SHORT $LN1@operator

; 3031 : 		{
; 3032 : 			return true;

  0001f	b0 01		 mov	 al, 1
  00021	eb 02		 jmp	 SHORT $LN2@operator
$LN1@operator:

; 3033 : 		}
; 3034 : 
; 3035 : 		return false;

  00023	32 c0		 xor	 al, al
$LN2@operator:

; 3036 : 	}

  00025	5d		 pop	 ebp
  00026	c2 08 00	 ret	 8
??RBaseCharDistanceSqSort2@@QBE_NABUtagBaseCharDistanceSq@@0@Z ENDP ; BaseCharDistanceSqSort2::operator()
_TEXT	ENDS
PUBLIC	?GetItemCode@ioItem@@QBEKXZ			; ioItem::GetItemCode
; Function compile flags: /Ogsp
; File d:\lost saga for developer\youtube\tutorial\source\src\lsclient\ioitem.h
;	COMDAT ?GetItemCode@ioItem@@QBEKXZ
_TEXT	SEGMENT
?GetItemCode@ioItem@@QBEKXZ PROC			; ioItem::GetItemCode, COMDAT
; _this$ = ecx

; 264  : 	inline DWORD GetItemCode() const { return m_dwItemCode; }

  00000	8b 41 38	 mov	 eax, DWORD PTR [ecx+56]
  00003	c3		 ret	 0
?GetItemCode@ioItem@@QBEKXZ ENDP			; ioItem::GetItemCode
_TEXT	ENDS
PUBLIC	?GetName@ioBuff@@QBEABVioHashString@@XZ		; ioBuff::GetName
; Function compile flags: /Ogsp
; File d:\lost saga for developer\youtube\tutorial\source\src\lsclient\iobuff.h
;	COMDAT ?GetName@ioBuff@@QBEABVioHashString@@XZ
_TEXT	SEGMENT
?GetName@ioBuff@@QBEABVioHashString@@XZ PROC		; ioBuff::GetName, COMDAT
; _this$ = ecx

; 440  : 	inline const ioHashString& GetName() const { return m_Name; }

  00000	8d 81 34 02 00
	00		 lea	 eax, DWORD PTR [ecx+564]
  00006	c3		 ret	 0
?GetName@ioBuff@@QBEABVioHashString@@XZ ENDP		; ioBuff::GetName
_TEXT	ENDS
PUBLIC	??_7?$CEncrypt@M@@6B@				; CEncrypt<float>::`vftable'
PUBLIC	??1?$CEncrypt@M@@UAE@XZ				; CEncrypt<float>::~CEncrypt<float>
PUBLIC	??_R4?$CEncrypt@M@@6B@				; CEncrypt<float>::`RTTI Complete Object Locator'
PUBLIC	??_R0?AV?$CEncrypt@M@@@8			; CEncrypt<float> `RTTI Type Descriptor'
PUBLIC	??_R3?$CEncrypt@M@@8				; CEncrypt<float>::`RTTI Class Hierarchy Descriptor'
PUBLIC	??_R2?$CEncrypt@M@@8				; CEncrypt<float>::`RTTI Base Class Array'
PUBLIC	??_R1A@?0A@EA@?$CEncrypt@M@@8			; CEncrypt<float>::`RTTI Base Class Descriptor at (0,-1,0,64)'
EXTRN	??1ccddaabb@@UAE@XZ:PROC			; ccddaabb::~ccddaabb
EXTRN	??_E?$CEncrypt@M@@UAEPAXI@Z:PROC		; CEncrypt<float>::`vector deleting destructor'
;	COMDAT ??_R1A@?0A@EA@?$CEncrypt@M@@8
; File d:\lost saga for developer\youtube\tutorial\source\src\lsclient\encryptvalue.h
rdata$r	SEGMENT
??_R1A@?0A@EA@?$CEncrypt@M@@8 DD FLAT:??_R0?AV?$CEncrypt@M@@@8 ; CEncrypt<float>::`RTTI Base Class Descriptor at (0,-1,0,64)'
	DD	00H
	DD	00H
	DD	0ffffffffH
	DD	00H
	DD	040H
	DD	FLAT:??_R3?$CEncrypt@M@@8
rdata$r	ENDS
;	COMDAT ??_R2?$CEncrypt@M@@8
rdata$r	SEGMENT
??_R2?$CEncrypt@M@@8 DD FLAT:??_R1A@?0A@EA@?$CEncrypt@M@@8 ; CEncrypt<float>::`RTTI Base Class Array'
rdata$r	ENDS
;	COMDAT ??_R3?$CEncrypt@M@@8
rdata$r	SEGMENT
??_R3?$CEncrypt@M@@8 DD 00H				; CEncrypt<float>::`RTTI Class Hierarchy Descriptor'
	DD	00H
	DD	01H
	DD	FLAT:??_R2?$CEncrypt@M@@8
rdata$r	ENDS
;	COMDAT ??_R0?AV?$CEncrypt@M@@@8
_DATA	SEGMENT
??_R0?AV?$CEncrypt@M@@@8 DD FLAT:??_7type_info@@6B@	; CEncrypt<float> `RTTI Type Descriptor'
	DD	00H
	DB	'.?AV?$CEncrypt@M@@', 00H
_DATA	ENDS
;	COMDAT ??_R4?$CEncrypt@M@@6B@
rdata$r	SEGMENT
??_R4?$CEncrypt@M@@6B@ DD 00H				; CEncrypt<float>::`RTTI Complete Object Locator'
	DD	00H
	DD	00H
	DD	FLAT:??_R0?AV?$CEncrypt@M@@@8
	DD	FLAT:??_R3?$CEncrypt@M@@8
rdata$r	ENDS
;	COMDAT ??_7?$CEncrypt@M@@6B@
CONST	SEGMENT
??_7?$CEncrypt@M@@6B@ DD FLAT:??_R4?$CEncrypt@M@@6B@	; CEncrypt<float>::`vftable'
	DD	FLAT:??_E?$CEncrypt@M@@UAEPAXI@Z
; Function compile flags: /Ogsp
CONST	ENDS
;	COMDAT ??1?$CEncrypt@M@@UAE@XZ
_TEXT	SEGMENT
??1?$CEncrypt@M@@UAE@XZ PROC				; CEncrypt<float>::~CEncrypt<float>, COMDAT
; _this$ = ecx

; 127  : 	{

  00000	c7 01 00 00 00
	00		 mov	 DWORD PTR [ecx], OFFSET ??_7?$CEncrypt@M@@6B@

; 128  : 	}

  00006	83 c1 0c	 add	 ecx, 12			; 0000000cH
  00009	e9 00 00 00 00	 jmp	 ??1ccddaabb@@UAE@XZ	; ccddaabb::~ccddaabb
??1?$CEncrypt@M@@UAE@XZ ENDP				; CEncrypt<float>::~CEncrypt<float>
; Function compile flags: /Ogsp
_TEXT	ENDS
;	COMDAT ??_G?$CEncrypt@M@@UAEPAXI@Z
_TEXT	SEGMENT
___flags$ = 8						; size = 4
??_G?$CEncrypt@M@@UAEPAXI@Z PROC			; CEncrypt<float>::`scalar deleting destructor', COMDAT
; _this$ = ecx
  00000	55		 push	 ebp
  00001	8b ec		 mov	 ebp, esp
  00003	56		 push	 esi
  00004	8b f1		 mov	 esi, ecx
  00006	8d 4e 0c	 lea	 ecx, DWORD PTR [esi+12]
  00009	c7 06 00 00 00
	00		 mov	 DWORD PTR [esi], OFFSET ??_7?$CEncrypt@M@@6B@
  0000f	e8 00 00 00 00	 call	 ??1ccddaabb@@UAE@XZ	; ccddaabb::~ccddaabb
  00014	f6 45 08 01	 test	 BYTE PTR ___flags$[ebp], 1
  00018	74 07		 je	 SHORT $LN1@scalar@3
  0001a	56		 push	 esi
  0001b	e8 00 00 00 00	 call	 ??3@YAXPAX@Z		; operator delete
  00020	59		 pop	 ecx
$LN1@scalar@3:
  00021	8b c6		 mov	 eax, esi
  00023	5e		 pop	 esi
  00024	5d		 pop	 ebp
  00025	c2 04 00	 ret	 4
??_G?$CEncrypt@M@@UAEPAXI@Z ENDP			; CEncrypt<float>::`scalar deleting destructor'
_TEXT	ENDS
PUBLIC	??1?$_Vector_val@UWeaponInfo@@V?$allocator@UWeaponInfo@@@std@@@std@@QAE@XZ ; std::_Vector_val<WeaponInfo,std::allocator<WeaponInfo> >::~_Vector_val<WeaponInfo,std::allocator<WeaponInfo> >
; Function compile flags: /Ogsp
; File c:\program files (x86)\microsoft visual studio 10.0\vc\include\vector
;	COMDAT ??1?$_Vector_val@UWeaponInfo@@V?$allocator@UWeaponInfo@@@std@@@std@@QAE@XZ
_TEXT	SEGMENT
??1?$_Vector_val@UWeaponInfo@@V?$allocator@UWeaponInfo@@@std@@@std@@QAE@XZ PROC ; std::_Vector_val<WeaponInfo,std::allocator<WeaponInfo> >::~_Vector_val<WeaponInfo,std::allocator<WeaponInfo> >, COMDAT
; _this$ = ecx

; 434  : 		}

  00000	c3		 ret	 0
??1?$_Vector_val@UWeaponInfo@@V?$allocator@UWeaponInfo@@@std@@@std@@QAE@XZ ENDP ; std::_Vector_val<WeaponInfo,std::allocator<WeaponInfo> >::~_Vector_val<WeaponInfo,std::allocator<WeaponInfo> >
_TEXT	ENDS
PUBLIC	??0?$allocator@UWeaponInfo@@@std@@QAE@XZ	; std::allocator<WeaponInfo>::allocator<WeaponInfo>
; Function compile flags: /Ogsp
; File c:\program files (x86)\microsoft visual studio 10.0\vc\include\xmemory
;	COMDAT ??0?$allocator@UWeaponInfo@@@std@@QAE@XZ
_TEXT	SEGMENT
??0?$allocator@UWeaponInfo@@@std@@QAE@XZ PROC		; std::allocator<WeaponInfo>::allocator<WeaponInfo>, COMDAT
; _this$ = ecx

; 161  : 	_ALLOCATOR() _THROW0()

  00000	8b c1		 mov	 eax, ecx

; 162  : 		{	// construct default allocator (do nothing)
; 163  : 		}

  00002	c3		 ret	 0
??0?$allocator@UWeaponInfo@@@std@@QAE@XZ ENDP		; std::allocator<WeaponInfo>::allocator<WeaponInfo>
_TEXT	ENDS
PUBLIC	??1?$_Vector_val@UForceInfo@@V?$allocator@UForceInfo@@@std@@@std@@QAE@XZ ; std::_Vector_val<ForceInfo,std::allocator<ForceInfo> >::~_Vector_val<ForceInfo,std::allocator<ForceInfo> >
; Function compile flags: /Ogsp
; File c:\program files (x86)\microsoft visual studio 10.0\vc\include\vector
;	COMDAT ??1?$_Vector_val@UForceInfo@@V?$allocator@UForceInfo@@@std@@@std@@QAE@XZ
_TEXT	SEGMENT
??1?$_Vector_val@UForceInfo@@V?$allocator@UForceInfo@@@std@@@std@@QAE@XZ PROC ; std::_Vector_val<ForceInfo,std::allocator<ForceInfo> >::~_Vector_val<ForceInfo,std::allocator<ForceInfo> >, COMDAT
; _this$ = ecx

; 434  : 		}

  00000	c3		 ret	 0
??1?$_Vector_val@UForceInfo@@V?$allocator@UForceInfo@@@std@@@std@@QAE@XZ ENDP ; std::_Vector_val<ForceInfo,std::allocator<ForceInfo> >::~_Vector_val<ForceInfo,std::allocator<ForceInfo> >
_TEXT	ENDS
PUBLIC	??0?$allocator@UForceInfo@@@std@@QAE@XZ		; std::allocator<ForceInfo>::allocator<ForceInfo>
; Function compile flags: /Ogsp
; File c:\program files (x86)\microsoft visual studio 10.0\vc\include\xmemory
;	COMDAT ??0?$allocator@UForceInfo@@@std@@QAE@XZ
_TEXT	SEGMENT
??0?$allocator@UForceInfo@@@std@@QAE@XZ PROC		; std::allocator<ForceInfo>::allocator<ForceInfo>, COMDAT
; _this$ = ecx

; 161  : 	_ALLOCATOR() _THROW0()

  00000	8b c1		 mov	 eax, ecx

; 162  : 		{	// construct default allocator (do nothing)
; 163  : 		}

  00002	c3		 ret	 0
??0?$allocator@UForceInfo@@@std@@QAE@XZ ENDP		; std::allocator<ForceInfo>::allocator<ForceInfo>
_TEXT	ENDS
PUBLIC	?EncryptValueToPool@?$CEncrypt@M@@AAEXPBD@Z	; CEncrypt<float>::EncryptValueToPool
EXTRN	?EncryptByte@ccddaabb@@QAEXPBDPADH@Z:PROC	; ccddaabb::EncryptByte
; Function compile flags: /Ogsp
; File d:\lost saga for developer\youtube\tutorial\source\src\lsclient\encryptvalue.h
;	COMDAT ?EncryptValueToPool@?$CEncrypt@M@@AAEXPBD@Z
_TEXT	SEGMENT
_value$ = 8						; size = 4
?EncryptValueToPool@?$CEncrypt@M@@AAEXPBD@Z PROC	; CEncrypt<float>::EncryptValueToPool, COMDAT
; _this$ = ecx

; 67   : 	{

  00000	55		 push	 ebp
  00001	8b ec		 mov	 ebp, esp

; 68   : 		m_RC5.EncryptByte( value, m_MemPool, max(m_ValueSize, DEFAULT_ENCRYPT) );

  00003	0f b7 41 06	 movzx	 eax, WORD PTR [ecx+6]
  00007	83 f8 04	 cmp	 eax, 4
  0000a	77 03		 ja	 SHORT $LN4@EncryptVal
  0000c	6a 04		 push	 4
  0000e	58		 pop	 eax
$LN4@EncryptVal:
  0000f	50		 push	 eax
  00010	8d 41 1c	 lea	 eax, DWORD PTR [ecx+28]
  00013	50		 push	 eax
  00014	ff 75 08	 push	 DWORD PTR _value$[ebp]
  00017	83 c1 0c	 add	 ecx, 12			; 0000000cH
  0001a	e8 00 00 00 00	 call	 ?EncryptByte@ccddaabb@@QAEXPBDPADH@Z ; ccddaabb::EncryptByte

; 69   : 		
; 70   : 	}

  0001f	5d		 pop	 ebp
  00020	c2 04 00	 ret	 4
?EncryptValueToPool@?$CEncrypt@M@@AAEXPBD@Z ENDP	; CEncrypt<float>::EncryptValueToPool
_TEXT	ENDS
PUBLIC	?Init@?$CEncrypt@M@@AAEXXZ			; CEncrypt<float>::Init
EXTRN	?Setup@ccddaabb@@QAEXPBDHH@Z:PROC		; ccddaabb::Setup
EXTRN	__imp__rand:PROC
EXTRN	__imp__timeGetTime@0:PROC
EXTRN	__imp__GetCurrentProcessId@0:PROC
; Function compile flags: /Ogsp
;	COMDAT ?Init@?$CEncrypt@M@@AAEXXZ
_TEXT	SEGMENT
_pid$ = -8						; size = 4
_tick$ = -4						; size = 4
?Init@?$CEncrypt@M@@AAEXXZ PROC				; CEncrypt<float>::Init, COMDAT
; _this$ = ecx

; 73   : 	{

  00000	55		 push	 ebp
  00001	8b ec		 mov	 ebp, esp
  00003	51		 push	 ecx
  00004	51		 push	 ecx
  00005	53		 push	 ebx
  00006	56		 push	 esi
  00007	57		 push	 edi
  00008	8b f1		 mov	 esi, ecx

; 74   : 		DWORD pid = GetCurrentProcessId();

  0000a	ff 15 00 00 00
	00		 call	 DWORD PTR __imp__GetCurrentProcessId@0
  00010	89 45 f8	 mov	 DWORD PTR _pid$[ebp], eax

; 75   : 		DWORD tick = timeGetTime();

  00013	ff 15 00 00 00
	00		 call	 DWORD PTR __imp__timeGetTime@0

; 76   : 		m_ValueSize    = sizeof(type);
; 77   : 		m_MemPoolPos   = (unsigned short)( rand()+pid+tick )%(MAX_MEM_POOL-m_ValueSize);

  00019	8b 3d 00 00 00
	00		 mov	 edi, DWORD PTR __imp__rand
  0001f	89 45 fc	 mov	 DWORD PTR _tick$[ebp], eax
  00022	6a 04		 push	 4
  00024	58		 pop	 eax
  00025	66 89 46 06	 mov	 WORD PTR [esi+6], ax
  00029	ff d7		 call	 edi
  0002b	03 45 f8	 add	 eax, DWORD PTR _pid$[ebp]
  0002e	0f b7 4e 06	 movzx	 ecx, WORD PTR [esi+6]
  00032	03 45 fc	 add	 eax, DWORD PTR _tick$[ebp]
  00035	6a 0c		 push	 12			; 0000000cH
  00037	0f b7 c0	 movzx	 eax, ax
  0003a	5b		 pop	 ebx
  0003b	99		 cdq
  0003c	2b d9		 sub	 ebx, ecx
  0003e	f7 fb		 idiv	 ebx
  00040	66 89 56 04	 mov	 WORD PTR [esi+4], dx

; 78   : 		m_EncryptSeed  = (char)( rand()+pid+tick )%256;

  00044	ff d7		 call	 edi
  00046	02 45 f8	 add	 al, BYTE PTR _pid$[ebp]
  00049	02 45 fc	 add	 al, BYTE PTR _tick$[ebp]
  0004c	0f be c0	 movsx	 eax, al
  0004f	25 ff 00 00 80	 and	 eax, -2147483393	; 800000ffH
  00054	79 07		 jns	 SHORT $LN8@Init
  00056	48		 dec	 eax
  00057	0d 00 ff ff ff	 or	 eax, -256		; ffffff00H
  0005c	40		 inc	 eax
$LN8@Init:
  0005d	88 46 08	 mov	 BYTE PTR [esi+8], al

; 79   : 
; 80   : 		for (int i = 0; i < MAX_MEM_POOL ; i++)

  00060	33 db		 xor	 ebx, ebx
$LL3@Init:

; 81   : 			m_MemPool[i] = (char)( rand()+pid+tick )%256; // 

  00062	ff d7		 call	 edi
  00064	02 45 f8	 add	 al, BYTE PTR _pid$[ebp]
  00067	02 45 fc	 add	 al, BYTE PTR _tick$[ebp]
  0006a	0f be c0	 movsx	 eax, al
  0006d	25 ff 00 00 80	 and	 eax, -2147483393	; 800000ffH
  00072	79 07		 jns	 SHORT $LN9@Init
  00074	48		 dec	 eax
  00075	0d 00 ff ff ff	 or	 eax, -256		; ffffff00H
  0007a	40		 inc	 eax
$LN9@Init:
  0007b	88 44 1e 1c	 mov	 BYTE PTR [esi+ebx+28], al
  0007f	43		 inc	 ebx
  00080	83 fb 0c	 cmp	 ebx, 12			; 0000000cH
  00083	7c dd		 jl	 SHORT $LL3@Init

; 82   : 
; 83   : 		//UJ 130913, : szKey  
; 84   : 		//char szKey[ccddaabb::KEY_SIZE];//="";
; 85   : 		//for (int i = 0; i < ccddaabb::KEY_SIZE  ; i++)
; 86   : 		//	szKey[i] = (char)( rand()+pid+tick )%256; // 
; 87   : 		m_RC5.Setup( NULL, pid, tick );

  00085	ff 75 fc	 push	 DWORD PTR _tick$[ebp]
  00088	8d 4e 0c	 lea	 ecx, DWORD PTR [esi+12]
  0008b	ff 75 f8	 push	 DWORD PTR _pid$[ebp]
  0008e	6a 00		 push	 0
  00090	e8 00 00 00 00	 call	 ?Setup@ccddaabb@@QAEXPBDHH@Z ; ccddaabb::Setup
  00095	5f		 pop	 edi
  00096	5e		 pop	 esi
  00097	5b		 pop	 ebx

; 88   : 
; 89   : #ifdef _NOTUSE
; 90   : 		m_value        = 0;
; 91   : 		EncryptValueToPool((char*)&m_value);
; 92   : 		Debug();
; 93   : #endif
; 94   : 	}

  00098	c9		 leave
  00099	c3		 ret	 0
?Init@?$CEncrypt@M@@AAEXXZ ENDP				; CEncrypt<float>::Init
_TEXT	ENDS
PUBLIC	?DecryptValueToPool@?$CEncrypt@M@@QAEXPAM@Z	; CEncrypt<float>::DecryptValueToPool
EXTRN	?DecryptByte@ccddaabb@@QBEXPBDPADH@Z:PROC	; ccddaabb::DecryptByte
; Function compile flags: /Ogsp
;	COMDAT ?DecryptValueToPool@?$CEncrypt@M@@QAEXPAM@Z
_TEXT	SEGMENT
_value$ = 8						; size = 4
?DecryptValueToPool@?$CEncrypt@M@@QAEXPAM@Z PROC	; CEncrypt<float>::DecryptValueToPool, COMDAT
; _this$ = ecx

; 1648 : 	{

  00000	55		 push	 ebp
  00001	8b ec		 mov	 ebp, esp
  00003	56		 push	 esi

; 1649 : 		m_RC5.DecryptByte( m_MemPool, m_TempMem, 4 );

  00004	8d 71 28	 lea	 esi, DWORD PTR [ecx+40]
  00007	6a 04		 push	 4
  00009	8d 41 1c	 lea	 eax, DWORD PTR [ecx+28]
  0000c	56		 push	 esi
  0000d	50		 push	 eax
  0000e	83 c1 0c	 add	 ecx, 12			; 0000000cH
  00011	e8 00 00 00 00	 call	 ?DecryptByte@ccddaabb@@QBEXPBDPADH@Z ; ccddaabb::DecryptByte

; 1650 : 		*value = *((float*)m_TempMem);

  00016	d9 06		 fld	 DWORD PTR [esi]
  00018	8b 45 08	 mov	 eax, DWORD PTR _value$[ebp]
  0001b	d9 18		 fstp	 DWORD PTR [eax]
  0001d	5e		 pop	 esi

; 1651 : 	}

  0001e	5d		 pop	 ebp
  0001f	c2 04 00	 ret	 4
?DecryptValueToPool@?$CEncrypt@M@@QAEXPAM@Z ENDP	; CEncrypt<float>::DecryptValueToPool
_TEXT	ENDS
PUBLIC	?EncryptValueToPool@?$CEncrypt@K@@AAEXPBD@Z	; CEncrypt<unsigned long>::EncryptValueToPool
; Function compile flags: /Ogsp
;	COMDAT ?EncryptValueToPool@?$CEncrypt@K@@AAEXPBD@Z
_TEXT	SEGMENT
_value$ = 8						; size = 4
?EncryptValueToPool@?$CEncrypt@K@@AAEXPBD@Z PROC	; CEncrypt<unsigned long>::EncryptValueToPool, COMDAT
; _this$ = ecx

; 67   : 	{

  00000	55		 push	 ebp
  00001	8b ec		 mov	 ebp, esp

; 68   : 		m_RC5.EncryptByte( value, m_MemPool, max(m_ValueSize, DEFAULT_ENCRYPT) );

  00003	0f b7 41 06	 movzx	 eax, WORD PTR [ecx+6]
  00007	83 f8 04	 cmp	 eax, 4
  0000a	77 03		 ja	 SHORT $LN4@EncryptVal@2
  0000c	6a 04		 push	 4
  0000e	58		 pop	 eax
$LN4@EncryptVal@2:
  0000f	50		 push	 eax
  00010	8d 41 1c	 lea	 eax, DWORD PTR [ecx+28]
  00013	50		 push	 eax
  00014	ff 75 08	 push	 DWORD PTR _value$[ebp]
  00017	83 c1 0c	 add	 ecx, 12			; 0000000cH
  0001a	e8 00 00 00 00	 call	 ?EncryptByte@ccddaabb@@QAEXPBDPADH@Z ; ccddaabb::EncryptByte

; 69   : 		
; 70   : 	}

  0001f	5d		 pop	 ebp
  00020	c2 04 00	 ret	 4
?EncryptValueToPool@?$CEncrypt@K@@AAEXPBD@Z ENDP	; CEncrypt<unsigned long>::EncryptValueToPool
_TEXT	ENDS
PUBLIC	?DecryptValueToPool@?$CEncrypt@K@@QAEXPAK@Z	; CEncrypt<unsigned long>::DecryptValueToPool
; Function compile flags: /Ogsp
;	COMDAT ?DecryptValueToPool@?$CEncrypt@K@@QAEXPAK@Z
_TEXT	SEGMENT
_value$ = 8						; size = 4
?DecryptValueToPool@?$CEncrypt@K@@QAEXPAK@Z PROC	; CEncrypt<unsigned long>::DecryptValueToPool, COMDAT
; _this$ = ecx

; 1256 : 	{

  00000	55		 push	 ebp
  00001	8b ec		 mov	 ebp, esp
  00003	56		 push	 esi

; 1257 : 		m_RC5.DecryptByte( m_MemPool, m_TempMem, 4 );

  00004	8d 71 28	 lea	 esi, DWORD PTR [ecx+40]
  00007	6a 04		 push	 4
  00009	8d 41 1c	 lea	 eax, DWORD PTR [ecx+28]
  0000c	56		 push	 esi
  0000d	50		 push	 eax
  0000e	83 c1 0c	 add	 ecx, 12			; 0000000cH
  00011	e8 00 00 00 00	 call	 ?DecryptByte@ccddaabb@@QBEXPBDPADH@Z ; ccddaabb::DecryptByte

; 1258 : 		*value = *((DWORD*)m_TempMem);

  00016	8b 06		 mov	 eax, DWORD PTR [esi]
  00018	8b 4d 08	 mov	 ecx, DWORD PTR _value$[ebp]
  0001b	89 01		 mov	 DWORD PTR [ecx], eax
  0001d	5e		 pop	 esi

; 1259 : 	}

  0001e	5d		 pop	 ebp
  0001f	c2 04 00	 ret	 4
?DecryptValueToPool@?$CEncrypt@K@@QAEXPAK@Z ENDP	; CEncrypt<unsigned long>::DecryptValueToPool
_TEXT	ENDS
PUBLIC	?DecryptValueToPool@?$CEncrypt@_N@@QAEXPA_N@Z	; CEncrypt<bool>::DecryptValueToPool
; Function compile flags: /Ogsp
;	COMDAT ?DecryptValueToPool@?$CEncrypt@_N@@QAEXPA_N@Z
_TEXT	SEGMENT
_value$ = 8						; size = 4
?DecryptValueToPool@?$CEncrypt@_N@@QAEXPA_N@Z PROC	; CEncrypt<bool>::DecryptValueToPool, COMDAT
; _this$ = ecx

; 219  : 	{

  00000	55		 push	 ebp
  00001	8b ec		 mov	 ebp, esp
  00003	56		 push	 esi

; 220  : 		m_RC5.DecryptByte( m_MemPool, m_TempMem, 4 );

  00004	8d 71 28	 lea	 esi, DWORD PTR [ecx+40]
  00007	6a 04		 push	 4
  00009	8d 41 1c	 lea	 eax, DWORD PTR [ecx+28]
  0000c	56		 push	 esi
  0000d	50		 push	 eax
  0000e	83 c1 0c	 add	 ecx, 12			; 0000000cH
  00011	e8 00 00 00 00	 call	 ?DecryptByte@ccddaabb@@QBEXPBDPADH@Z ; ccddaabb::DecryptByte

; 221  : 		*value = *((bool*)m_TempMem);

  00016	8a 06		 mov	 al, BYTE PTR [esi]
  00018	8b 4d 08	 mov	 ecx, DWORD PTR _value$[ebp]
  0001b	88 01		 mov	 BYTE PTR [ecx], al
  0001d	5e		 pop	 esi

; 222  : 	}

  0001e	5d		 pop	 ebp
  0001f	c2 04 00	 ret	 4
?DecryptValueToPool@?$CEncrypt@_N@@QAEXPA_N@Z ENDP	; CEncrypt<bool>::DecryptValueToPool
_TEXT	ENDS
PUBLIC	?DecryptValueToPool@?$CEncrypt@W4TeamType@@@@QAEXPAW4TeamType@@@Z ; CEncrypt<enum TeamType>::DecryptValueToPool
; Function compile flags: /Ogsp
;	COMDAT ?DecryptValueToPool@?$CEncrypt@W4TeamType@@@@QAEXPAW4TeamType@@@Z
_TEXT	SEGMENT
_value$ = 8						; size = 4
?DecryptValueToPool@?$CEncrypt@W4TeamType@@@@QAEXPAW4TeamType@@@Z PROC ; CEncrypt<enum TeamType>::DecryptValueToPool, COMDAT
; _this$ = ecx

; 2959 : 	{

  00000	55		 push	 ebp
  00001	8b ec		 mov	 ebp, esp
  00003	56		 push	 esi

; 2960 : 		m_RC5.DecryptByte( m_MemPool, m_TempMem, sizeof(TeamType) );

  00004	8d 71 28	 lea	 esi, DWORD PTR [ecx+40]
  00007	6a 04		 push	 4
  00009	8d 41 1c	 lea	 eax, DWORD PTR [ecx+28]
  0000c	56		 push	 esi
  0000d	50		 push	 eax
  0000e	83 c1 0c	 add	 ecx, 12			; 0000000cH
  00011	e8 00 00 00 00	 call	 ?DecryptByte@ccddaabb@@QBEXPBDPADH@Z ; ccddaabb::DecryptByte

; 2961 : 		*value = *((TeamType*)m_TempMem);

  00016	8b 06		 mov	 eax, DWORD PTR [esi]
  00018	8b 4d 08	 mov	 ecx, DWORD PTR _value$[ebp]
  0001b	89 01		 mov	 DWORD PTR [ecx], eax
  0001d	5e		 pop	 esi

; 2962 : 	}

  0001e	5d		 pop	 ebp
  0001f	c2 04 00	 ret	 4
?DecryptValueToPool@?$CEncrypt@W4TeamType@@@@QAEXPAW4TeamType@@@Z ENDP ; CEncrypt<enum TeamType>::DecryptValueToPool
_TEXT	ENDS
PUBLIC	??0?$allocator@UWeaponInfo@@@std@@QAE@ABV01@@Z	; std::allocator<WeaponInfo>::allocator<WeaponInfo>
; Function compile flags: /Ogsp
; File c:\program files (x86)\microsoft visual studio 10.0\vc\include\xmemory
;	COMDAT ??0?$allocator@UWeaponInfo@@@std@@QAE@ABV01@@Z
_TEXT	SEGMENT
___formal$ = 8						; size = 4
??0?$allocator@UWeaponInfo@@@std@@QAE@ABV01@@Z PROC	; std::allocator<WeaponInfo>::allocator<WeaponInfo>, COMDAT
; _this$ = ecx

; 165  : 	_ALLOCATOR(const _ALLOCATOR<_Ty>&) _THROW0()

  00000	8b c1		 mov	 eax, ecx

; 166  : 		{	// construct by copying (do nothing)
; 167  : 		}

  00002	c2 04 00	 ret	 4
??0?$allocator@UWeaponInfo@@@std@@QAE@ABV01@@Z ENDP	; std::allocator<WeaponInfo>::allocator<WeaponInfo>
_TEXT	ENDS
PUBLIC	?deallocate@?$allocator@UWeaponInfo@@@std@@QAEXPAUWeaponInfo@@I@Z ; std::allocator<WeaponInfo>::deallocate
; Function compile flags: /Ogsp
;	COMDAT ?deallocate@?$allocator@UWeaponInfo@@@std@@QAEXPAUWeaponInfo@@I@Z
_TEXT	SEGMENT
__Ptr$ = 8						; size = 4
___formal$ = 12						; size = 4
?deallocate@?$allocator@UWeaponInfo@@@std@@QAEXPAUWeaponInfo@@I@Z PROC ; std::allocator<WeaponInfo>::deallocate, COMDAT
; _this$ = ecx

; 181  : 		{	// deallocate object at _Ptr, ignore size

  00000	55		 push	 ebp
  00001	8b ec		 mov	 ebp, esp

; 182  : 		::operator delete(_Ptr);

  00003	ff 75 08	 push	 DWORD PTR __Ptr$[ebp]
  00006	e8 00 00 00 00	 call	 ??3@YAXPAX@Z		; operator delete
  0000b	59		 pop	 ecx

; 183  : 		}

  0000c	5d		 pop	 ebp
  0000d	c2 08 00	 ret	 8
?deallocate@?$allocator@UWeaponInfo@@@std@@QAEXPAUWeaponInfo@@I@Z ENDP ; std::allocator<WeaponInfo>::deallocate
_TEXT	ENDS
PUBLIC	??0?$allocator@UForceInfo@@@std@@QAE@ABV01@@Z	; std::allocator<ForceInfo>::allocator<ForceInfo>
; Function compile flags: /Ogsp
;	COMDAT ??0?$allocator@UForceInfo@@@std@@QAE@ABV01@@Z
_TEXT	SEGMENT
___formal$ = 8						; size = 4
??0?$allocator@UForceInfo@@@std@@QAE@ABV01@@Z PROC	; std::allocator<ForceInfo>::allocator<ForceInfo>, COMDAT
; _this$ = ecx

; 165  : 	_ALLOCATOR(const _ALLOCATOR<_Ty>&) _THROW0()

  00000	8b c1		 mov	 eax, ecx

; 166  : 		{	// construct by copying (do nothing)
; 167  : 		}

  00002	c2 04 00	 ret	 4
??0?$allocator@UForceInfo@@@std@@QAE@ABV01@@Z ENDP	; std::allocator<ForceInfo>::allocator<ForceInfo>
_TEXT	ENDS
PUBLIC	?deallocate@?$allocator@UForceInfo@@@std@@QAEXPAUForceInfo@@I@Z ; std::allocator<ForceInfo>::deallocate
; Function compile flags: /Ogsp
;	COMDAT ?deallocate@?$allocator@UForceInfo@@@std@@QAEXPAUForceInfo@@I@Z
_TEXT	SEGMENT
__Ptr$ = 8						; size = 4
___formal$ = 12						; size = 4
?deallocate@?$allocator@UForceInfo@@@std@@QAEXPAUForceInfo@@I@Z PROC ; std::allocator<ForceInfo>::deallocate, COMDAT
; _this$ = ecx

; 181  : 		{	// deallocate object at _Ptr, ignore size

  00000	55		 push	 ebp
  00001	8b ec		 mov	 ebp, esp

; 182  : 		::operator delete(_Ptr);

  00003	ff 75 08	 push	 DWORD PTR __Ptr$[ebp]
  00006	e8 00 00 00 00	 call	 ??3@YAXPAX@Z		; operator delete
  0000b	59		 pop	 ecx

; 183  : 		}

  0000c	5d		 pop	 ebp
  0000d	c2 08 00	 ret	 8
?deallocate@?$allocator@UForceInfo@@@std@@QAEXPAUForceInfo@@I@Z ENDP ; std::allocator<ForceInfo>::deallocate
_TEXT	ENDS
EXTRN	__imp_??0exception@std@@QAE@ABV01@@Z:PROC
; Function compile flags: /Ogsp
;	COMDAT ??0bad_alloc@std@@QAE@ABV01@@Z
_TEXT	SEGMENT
___that$ = 8						; size = 4
??0bad_alloc@std@@QAE@ABV01@@Z PROC			; std::bad_alloc::bad_alloc, COMDAT
; _this$ = ecx
  00000	55		 push	 ebp
  00001	8b ec		 mov	 ebp, esp
  00003	56		 push	 esi
  00004	ff 75 08	 push	 DWORD PTR ___that$[ebp]
  00007	8b f1		 mov	 esi, ecx
  00009	ff 15 00 00 00
	00		 call	 DWORD PTR __imp_??0exception@std@@QAE@ABV01@@Z
  0000f	c7 06 00 00 00
	00		 mov	 DWORD PTR [esi], OFFSET ??_7bad_alloc@std@@6B@
  00015	8b c6		 mov	 eax, esi
  00017	5e		 pop	 esi
  00018	5d		 pop	 ebp
  00019	c2 04 00	 ret	 4
??0bad_alloc@std@@QAE@ABV01@@Z ENDP			; std::bad_alloc::bad_alloc
_TEXT	ENDS
PUBLIC	??$_Ptr_cat@UWeaponInfo@@U1@@std@@YA?AU_Nonscalar_ptr_iterator_tag@0@PAUWeaponInfo@@0@Z ; std::_Ptr_cat<WeaponInfo,WeaponInfo>
; Function compile flags: /Ogsp
; File c:\program files (x86)\microsoft visual studio 10.0\vc\include\xutility
;	COMDAT ??$_Ptr_cat@UWeaponInfo@@U1@@std@@YA?AU_Nonscalar_ptr_iterator_tag@0@PAUWeaponInfo@@0@Z
_TEXT	SEGMENT
__Cat$ = -1						; size = 1
___formal$ = 8						; size = 4
___formal$ = 12						; size = 4
??$_Ptr_cat@UWeaponInfo@@U1@@std@@YA?AU_Nonscalar_ptr_iterator_tag@0@PAUWeaponInfo@@0@Z PROC ; std::_Ptr_cat<WeaponInfo,WeaponInfo>, COMDAT

; 516  : 	{	// return pointer category from pointers

  00000	55		 push	 ebp
  00001	8b ec		 mov	 ebp, esp
  00003	51		 push	 ecx

; 517  : 	typename _Ptr_cat_helper<_Elem1, _Elem2>::_Type _Cat;
; 518  : 	return (_Cat);

  00004	8a 45 ff	 mov	 al, BYTE PTR __Cat$[ebp]

; 519  : 	}

  00007	c9		 leave
  00008	c3		 ret	 0
??$_Ptr_cat@UWeaponInfo@@U1@@std@@YA?AU_Nonscalar_ptr_iterator_tag@0@PAUWeaponInfo@@0@Z ENDP ; std::_Ptr_cat<WeaponInfo,WeaponInfo>
_TEXT	ENDS
PUBLIC	??$_Ptr_cat@UForceInfo@@U1@@std@@YA?AU_Nonscalar_ptr_iterator_tag@0@PAUForceInfo@@0@Z ; std::_Ptr_cat<ForceInfo,ForceInfo>
; Function compile flags: /Ogsp
;	COMDAT ??$_Ptr_cat@UForceInfo@@U1@@std@@YA?AU_Nonscalar_ptr_iterator_tag@0@PAUForceInfo@@0@Z
_TEXT	SEGMENT
__Cat$ = -1						; size = 1
___formal$ = 8						; size = 4
___formal$ = 12						; size = 4
??$_Ptr_cat@UForceInfo@@U1@@std@@YA?AU_Nonscalar_ptr_iterator_tag@0@PAUForceInfo@@0@Z PROC ; std::_Ptr_cat<ForceInfo,ForceInfo>, COMDAT

; 516  : 	{	// return pointer category from pointers

  00000	55		 push	 ebp
  00001	8b ec		 mov	 ebp, esp
  00003	51		 push	 ecx

; 517  : 	typename _Ptr_cat_helper<_Elem1, _Elem2>::_Type _Cat;
; 518  : 	return (_Cat);

  00004	8a 45 ff	 mov	 al, BYTE PTR __Cat$[ebp]

; 519  : 	}

  00007	c9		 leave
  00008	c3		 ret	 0
??$_Ptr_cat@UForceInfo@@U1@@std@@YA?AU_Nonscalar_ptr_iterator_tag@0@PAUForceInfo@@0@Z ENDP ; std::_Ptr_cat<ForceInfo,ForceInfo>
_TEXT	ENDS
PUBLIC	?size@?$vector@UWeaponInfo@@V?$allocator@UWeaponInfo@@@std@@@std@@QBEIXZ ; std::vector<WeaponInfo,std::allocator<WeaponInfo> >::size
; Function compile flags: /Ogsp
; File c:\program files (x86)\microsoft visual studio 10.0\vc\include\vector
;	COMDAT ?size@?$vector@UWeaponInfo@@V?$allocator@UWeaponInfo@@@std@@@std@@QBEIXZ
_TEXT	SEGMENT
?size@?$vector@UWeaponInfo@@V?$allocator@UWeaponInfo@@@std@@@std@@QBEIXZ PROC ; std::vector<WeaponInfo,std::allocator<WeaponInfo> >::size, COMDAT
; _this$ = ecx

; 879  : 		return (this->_Mylast - this->_Myfirst);

  00000	8b 41 04	 mov	 eax, DWORD PTR [ecx+4]
  00003	2b 01		 sub	 eax, DWORD PTR [ecx]
  00005	6a 28		 push	 40			; 00000028H
  00007	99		 cdq
  00008	59		 pop	 ecx
  00009	f7 f9		 idiv	 ecx

; 880  : 		}

  0000b	c3		 ret	 0
?size@?$vector@UWeaponInfo@@V?$allocator@UWeaponInfo@@@std@@@std@@QBEIXZ ENDP ; std::vector<WeaponInfo,std::allocator<WeaponInfo> >::size
_TEXT	ENDS
PUBLIC	?size@?$vector@UForceInfo@@V?$allocator@UForceInfo@@@std@@@std@@QBEIXZ ; std::vector<ForceInfo,std::allocator<ForceInfo> >::size
; Function compile flags: /Ogsp
;	COMDAT ?size@?$vector@UForceInfo@@V?$allocator@UForceInfo@@@std@@@std@@QBEIXZ
_TEXT	SEGMENT
?size@?$vector@UForceInfo@@V?$allocator@UForceInfo@@@std@@@std@@QBEIXZ PROC ; std::vector<ForceInfo,std::allocator<ForceInfo> >::size, COMDAT
; _this$ = ecx

; 879  : 		return (this->_Mylast - this->_Myfirst);

  00000	8b 41 04	 mov	 eax, DWORD PTR [ecx+4]
  00003	2b 01		 sub	 eax, DWORD PTR [ecx]
  00005	6a 0c		 push	 12			; 0000000cH
  00007	99		 cdq
  00008	59		 pop	 ecx
  00009	f7 f9		 idiv	 ecx

; 880  : 		}

  0000b	c3		 ret	 0
?size@?$vector@UForceInfo@@V?$allocator@UForceInfo@@@std@@@std@@QBEIXZ ENDP ; std::vector<ForceInfo,std::allocator<ForceInfo> >::size
_TEXT	ENDS
PUBLIC	?_Xlen@?$vector@UWeaponInfo@@V?$allocator@UWeaponInfo@@@std@@@std@@IBEXXZ ; std::vector<WeaponInfo,std::allocator<WeaponInfo> >::_Xlen
; Function compile flags: /Ogsp
;	COMDAT ?_Xlen@?$vector@UWeaponInfo@@V?$allocator@UWeaponInfo@@@std@@@std@@IBEXXZ
_TEXT	SEGMENT
?_Xlen@?$vector@UWeaponInfo@@V?$allocator@UWeaponInfo@@@std@@@std@@IBEXXZ PROC ; std::vector<WeaponInfo,std::allocator<WeaponInfo> >::_Xlen, COMDAT
; _this$ = ecx

; 1427 : 		_Xlength_error("vector<T> too long");

  00000	68 00 00 00 00	 push	 OFFSET ??_C@_0BD@OLBABOEK@vector?$DMT?$DO?5too?5long?$AA@
  00005	ff 15 00 00 00
	00		 call	 DWORD PTR __imp_?_Xlength_error@std@@YAXPBD@Z
$LN4@Xlen@2:
$LN3@Xlen@2:
  0000b	cc		 int	 3
?_Xlen@?$vector@UWeaponInfo@@V?$allocator@UWeaponInfo@@@std@@@std@@IBEXXZ ENDP ; std::vector<WeaponInfo,std::allocator<WeaponInfo> >::_Xlen
_TEXT	ENDS
PUBLIC	?_Xlen@?$vector@UForceInfo@@V?$allocator@UForceInfo@@@std@@@std@@IBEXXZ ; std::vector<ForceInfo,std::allocator<ForceInfo> >::_Xlen
; Function compile flags: /Ogsp
;	COMDAT ?_Xlen@?$vector@UForceInfo@@V?$allocator@UForceInfo@@@std@@@std@@IBEXXZ
_TEXT	SEGMENT
?_Xlen@?$vector@UForceInfo@@V?$allocator@UForceInfo@@@std@@@std@@IBEXXZ PROC ; std::vector<ForceInfo,std::allocator<ForceInfo> >::_Xlen, COMDAT
; _this$ = ecx

; 1427 : 		_Xlength_error("vector<T> too long");

  00000	68 00 00 00 00	 push	 OFFSET ??_C@_0BD@OLBABOEK@vector?$DMT?$DO?5too?5long?$AA@
  00005	ff 15 00 00 00
	00		 call	 DWORD PTR __imp_?_Xlength_error@std@@YAXPBD@Z
$LN4@Xlen@3:
$LN3@Xlen@3:
  0000b	cc		 int	 3
?_Xlen@?$vector@UForceInfo@@V?$allocator@UForceInfo@@@std@@@std@@IBEXXZ ENDP ; std::vector<ForceInfo,std::allocator<ForceInfo> >::_Xlen
_TEXT	ENDS
PUBLIC	?max_size@?$allocator@UWeaponInfo@@@std@@QBEIXZ	; std::allocator<WeaponInfo>::max_size
; Function compile flags: /Ogsp
; File c:\program files (x86)\microsoft visual studio 10.0\vc\include\xmemory
;	COMDAT ?max_size@?$allocator@UWeaponInfo@@@std@@QBEIXZ
_TEXT	SEGMENT
?max_size@?$allocator@UWeaponInfo@@@std@@QBEIXZ PROC	; std::allocator<WeaponInfo>::max_size, COMDAT
; _this$ = ecx

; 218  : 		_SIZT _Count = (_SIZT)(-1) / sizeof (_Ty);
; 219  : 		return (0 < _Count ? _Count : 1);

  00000	b8 66 66 66 06	 mov	 eax, 107374182		; 06666666H

; 220  : 		}

  00005	c3		 ret	 0
?max_size@?$allocator@UWeaponInfo@@@std@@QBEIXZ ENDP	; std::allocator<WeaponInfo>::max_size
_TEXT	ENDS
PUBLIC	?max_size@?$allocator@UForceInfo@@@std@@QBEIXZ	; std::allocator<ForceInfo>::max_size
; Function compile flags: /Ogsp
;	COMDAT ?max_size@?$allocator@UForceInfo@@@std@@QBEIXZ
_TEXT	SEGMENT
?max_size@?$allocator@UForceInfo@@@std@@QBEIXZ PROC	; std::allocator<ForceInfo>::max_size, COMDAT
; _this$ = ecx

; 218  : 		_SIZT _Count = (_SIZT)(-1) / sizeof (_Ty);
; 219  : 		return (0 < _Count ? _Count : 1);

  00000	b8 55 55 55 15	 mov	 eax, 357913941		; 15555555H

; 220  : 		}

  00005	c3		 ret	 0
?max_size@?$allocator@UForceInfo@@@std@@QBEIXZ ENDP	; std::allocator<ForceInfo>::max_size
_TEXT	ENDS
PUBLIC	??0?$_Vector_const_iterator@V?$_Vector_val@UWeaponInfo@@V?$allocator@UWeaponInfo@@@std@@@std@@@std@@QAE@PAUWeaponInfo@@PBU_Container_base0@1@@Z ; std::_Vector_const_iterator<std::_Vector_val<WeaponInfo,std::allocator<WeaponInfo> > >::_Vector_const_iterator<std::_Vector_val<WeaponInfo,std::allocator<WeaponInfo> > >
; Function compile flags: /Ogsp
; File c:\program files (x86)\microsoft visual studio 10.0\vc\include\vector
;	COMDAT ??0?$_Vector_const_iterator@V?$_Vector_val@UWeaponInfo@@V?$allocator@UWeaponInfo@@@std@@@std@@@std@@QAE@PAUWeaponInfo@@PBU_Container_base0@1@@Z
_TEXT	SEGMENT
__Parg$ = 8						; size = 4
__Pvector$ = 12						; size = 4
??0?$_Vector_const_iterator@V?$_Vector_val@UWeaponInfo@@V?$allocator@UWeaponInfo@@@std@@@std@@@std@@QAE@PAUWeaponInfo@@PBU_Container_base0@1@@Z PROC ; std::_Vector_const_iterator<std::_Vector_val<WeaponInfo,std::allocator<WeaponInfo> > >::_Vector_const_iterator<std::_Vector_val<WeaponInfo,std::allocator<WeaponInfo> > >, COMDAT
; _this$ = ecx

; 45   : 		{	// construct with pointer _Parg

  00000	55		 push	 ebp
  00001	8b ec		 mov	 ebp, esp
  00003	8b c1		 mov	 eax, ecx
  00005	8b 4d 08	 mov	 ecx, DWORD PTR __Parg$[ebp]
  00008	89 08		 mov	 DWORD PTR [eax], ecx

; 46   : 		this->_Adopt(_Pvector);
; 47   : 		}

  0000a	5d		 pop	 ebp
  0000b	c2 08 00	 ret	 8
??0?$_Vector_const_iterator@V?$_Vector_val@UWeaponInfo@@V?$allocator@UWeaponInfo@@@std@@@std@@@std@@QAE@PAUWeaponInfo@@PBU_Container_base0@1@@Z ENDP ; std::_Vector_const_iterator<std::_Vector_val<WeaponInfo,std::allocator<WeaponInfo> > >::_Vector_const_iterator<std::_Vector_val<WeaponInfo,std::allocator<WeaponInfo> > >
_TEXT	ENDS
PUBLIC	??0?$_Vector_const_iterator@V?$_Vector_val@UForceInfo@@V?$allocator@UForceInfo@@@std@@@std@@@std@@QAE@PAUForceInfo@@PBU_Container_base0@1@@Z ; std::_Vector_const_iterator<std::_Vector_val<ForceInfo,std::allocator<ForceInfo> > >::_Vector_const_iterator<std::_Vector_val<ForceInfo,std::allocator<ForceInfo> > >
; Function compile flags: /Ogsp
;	COMDAT ??0?$_Vector_const_iterator@V?$_Vector_val@UForceInfo@@V?$allocator@UForceInfo@@@std@@@std@@@std@@QAE@PAUForceInfo@@PBU_Container_base0@1@@Z
_TEXT	SEGMENT
__Parg$ = 8						; size = 4
__Pvector$ = 12						; size = 4
??0?$_Vector_const_iterator@V?$_Vector_val@UForceInfo@@V?$allocator@UForceInfo@@@std@@@std@@@std@@QAE@PAUForceInfo@@PBU_Container_base0@1@@Z PROC ; std::_Vector_const_iterator<std::_Vector_val<ForceInfo,std::allocator<ForceInfo> > >::_Vector_const_iterator<std::_Vector_val<ForceInfo,std::allocator<ForceInfo> > >, COMDAT
; _this$ = ecx

; 45   : 		{	// construct with pointer _Parg

  00000	55		 push	 ebp
  00001	8b ec		 mov	 ebp, esp
  00003	8b c1		 mov	 eax, ecx
  00005	8b 4d 08	 mov	 ecx, DWORD PTR __Parg$[ebp]
  00008	89 08		 mov	 DWORD PTR [eax], ecx

; 46   : 		this->_Adopt(_Pvector);
; 47   : 		}

  0000a	5d		 pop	 ebp
  0000b	c2 08 00	 ret	 8
??0?$_Vector_const_iterator@V?$_Vector_val@UForceInfo@@V?$allocator@UForceInfo@@@std@@@std@@@std@@QAE@PAUForceInfo@@PBU_Container_base0@1@@Z ENDP ; std::_Vector_const_iterator<std::_Vector_val<ForceInfo,std::allocator<ForceInfo> > >::_Vector_const_iterator<std::_Vector_val<ForceInfo,std::allocator<ForceInfo> > >
_TEXT	ENDS
PUBLIC	?_Compat@?$_Vector_const_iterator@V?$_Vector_val@UWeaponInfo@@V?$allocator@UWeaponInfo@@@std@@@std@@@std@@QBEXABV12@@Z ; std::_Vector_const_iterator<std::_Vector_val<WeaponInfo,std::allocator<WeaponInfo> > >::_Compat
; Function compile flags: /Ogsp
;	COMDAT ?_Compat@?$_Vector_const_iterator@V?$_Vector_val@UWeaponInfo@@V?$allocator@UWeaponInfo@@@std@@@std@@@std@@QBEXABV12@@Z
_TEXT	SEGMENT
___formal$ = 8						; size = 4
?_Compat@?$_Vector_const_iterator@V?$_Vector_val@UWeaponInfo@@V?$allocator@UWeaponInfo@@@std@@@std@@@std@@QBEXABV12@@Z PROC ; std::_Vector_const_iterator<std::_Vector_val<WeaponInfo,std::allocator<WeaponInfo> > >::_Compat, COMDAT
; _this$ = ecx

; 253  : 		}

  00000	c2 04 00	 ret	 4
?_Compat@?$_Vector_const_iterator@V?$_Vector_val@UWeaponInfo@@V?$allocator@UWeaponInfo@@@std@@@std@@@std@@QBEXABV12@@Z ENDP ; std::_Vector_const_iterator<std::_Vector_val<WeaponInfo,std::allocator<WeaponInfo> > >::_Compat
_TEXT	ENDS
PUBLIC	?_Compat@?$_Vector_const_iterator@V?$_Vector_val@UForceInfo@@V?$allocator@UForceInfo@@@std@@@std@@@std@@QBEXABV12@@Z ; std::_Vector_const_iterator<std::_Vector_val<ForceInfo,std::allocator<ForceInfo> > >::_Compat
; Function compile flags: /Ogsp
;	COMDAT ?_Compat@?$_Vector_const_iterator@V?$_Vector_val@UForceInfo@@V?$allocator@UForceInfo@@@std@@@std@@@std@@QBEXABV12@@Z
_TEXT	SEGMENT
___formal$ = 8						; size = 4
?_Compat@?$_Vector_const_iterator@V?$_Vector_val@UForceInfo@@V?$allocator@UForceInfo@@@std@@@std@@@std@@QBEXABV12@@Z PROC ; std::_Vector_const_iterator<std::_Vector_val<ForceInfo,std::allocator<ForceInfo> > >::_Compat, COMDAT
; _this$ = ecx

; 253  : 		}

  00000	c2 04 00	 ret	 4
?_Compat@?$_Vector_const_iterator@V?$_Vector_val@UForceInfo@@V?$allocator@UForceInfo@@@std@@@std@@@std@@QBEXABV12@@Z ENDP ; std::_Vector_const_iterator<std::_Vector_val<ForceInfo,std::allocator<ForceInfo> > >::_Compat
_TEXT	ENDS
PUBLIC	??$_Allocate@UWeaponInfo@@@std@@YAPAUWeaponInfo@@IPAU1@@Z ; std::_Allocate<WeaponInfo>
; Function compile flags: /Ogsp
; File c:\program files (x86)\microsoft visual studio 10.0\vc\include\xmemory
;	COMDAT ??$_Allocate@UWeaponInfo@@@std@@YAPAUWeaponInfo@@IPAU1@@Z
_TEXT	SEGMENT
$T536390 = -12						; size = 12
$T536394 = 8						; size = 4
__Count$ = 8						; size = 4
___formal$ = 12						; size = 4
??$_Allocate@UWeaponInfo@@@std@@YAPAUWeaponInfo@@IPAU1@@Z PROC ; std::_Allocate<WeaponInfo>, COMDAT

; 30   : 	{	// allocate storage for _Count elements of type _Ty

  00000	55		 push	 ebp
  00001	8b ec		 mov	 ebp, esp

; 31   : 	void *_Ptr = 0;
; 32   : 
; 33   : 	if (_Count <= 0)

  00003	8b 4d 08	 mov	 ecx, DWORD PTR __Count$[ebp]
  00006	83 ec 0c	 sub	 esp, 12			; 0000000cH
  00009	33 c0		 xor	 eax, eax
  0000b	85 c9		 test	 ecx, ecx

; 34   : 		_Count = 0;
; 35   : 	else if (((_SIZT)(-1) / sizeof (_Ty) < _Count)

  0000d	74 3c		 je	 SHORT $LN5@Allocate@2

; 36   : 		|| (_Ptr = ::operator new(_Count * sizeof (_Ty))) == 0)

  0000f	81 f9 66 66 66
	06		 cmp	 ecx, 107374182		; 06666666H
  00015	77 0e		 ja	 SHORT $LN1@Allocate@2
  00017	6b c9 28	 imul	 ecx, 40			; 00000028H
  0001a	51		 push	 ecx
  0001b	e8 00 00 00 00	 call	 ??2@YAPAXI@Z		; operator new
  00020	59		 pop	 ecx
  00021	85 c0		 test	 eax, eax

; 38   : 
; 39   : 	return ((_Ty _FARQ *)_Ptr);

  00023	75 26		 jne	 SHORT $LN5@Allocate@2
$LN1@Allocate@2:

; 37   : 		_THROW_NCEE(bad_alloc, 0);

  00025	83 65 08 00	 and	 DWORD PTR $T536394[ebp], 0
  00029	8d 45 08	 lea	 eax, DWORD PTR $T536394[ebp]
  0002c	50		 push	 eax
  0002d	8d 4d f4	 lea	 ecx, DWORD PTR $T536390[ebp]
  00030	ff 15 00 00 00
	00		 call	 DWORD PTR __imp_??0exception@std@@QAE@ABQBD@Z
  00036	68 00 00 00 00	 push	 OFFSET __TI2?AVbad_alloc@std@@
  0003b	8d 45 f4	 lea	 eax, DWORD PTR $T536390[ebp]
  0003e	50		 push	 eax
  0003f	c7 45 f4 00 00
	00 00		 mov	 DWORD PTR $T536390[ebp], OFFSET ??_7bad_alloc@std@@6B@
  00046	e8 00 00 00 00	 call	 __CxxThrowException@8
$LN10@Allocate@2:
$LN5@Allocate@2:

; 40   : 	}

  0004b	c9		 leave
  0004c	c3		 ret	 0
$LN9@Allocate@2:
??$_Allocate@UWeaponInfo@@@std@@YAPAUWeaponInfo@@IPAU1@@Z ENDP ; std::_Allocate<WeaponInfo>
_TEXT	ENDS
PUBLIC	??$_Allocate@UForceInfo@@@std@@YAPAUForceInfo@@IPAU1@@Z ; std::_Allocate<ForceInfo>
; Function compile flags: /Ogsp
;	COMDAT ??$_Allocate@UForceInfo@@@std@@YAPAUForceInfo@@IPAU1@@Z
_TEXT	SEGMENT
$T536399 = -12						; size = 12
$T536403 = 8						; size = 4
__Count$ = 8						; size = 4
___formal$ = 12						; size = 4
??$_Allocate@UForceInfo@@@std@@YAPAUForceInfo@@IPAU1@@Z PROC ; std::_Allocate<ForceInfo>, COMDAT

; 30   : 	{	// allocate storage for _Count elements of type _Ty

  00000	55		 push	 ebp
  00001	8b ec		 mov	 ebp, esp

; 31   : 	void *_Ptr = 0;
; 32   : 
; 33   : 	if (_Count <= 0)

  00003	8b 4d 08	 mov	 ecx, DWORD PTR __Count$[ebp]
  00006	83 ec 0c	 sub	 esp, 12			; 0000000cH
  00009	33 c0		 xor	 eax, eax
  0000b	85 c9		 test	 ecx, ecx

; 34   : 		_Count = 0;
; 35   : 	else if (((_SIZT)(-1) / sizeof (_Ty) < _Count)

  0000d	74 3c		 je	 SHORT $LN5@Allocate@3

; 36   : 		|| (_Ptr = ::operator new(_Count * sizeof (_Ty))) == 0)

  0000f	81 f9 55 55 55
	15		 cmp	 ecx, 357913941		; 15555555H
  00015	77 0e		 ja	 SHORT $LN1@Allocate@3
  00017	6b c9 0c	 imul	 ecx, 12			; 0000000cH
  0001a	51		 push	 ecx
  0001b	e8 00 00 00 00	 call	 ??2@YAPAXI@Z		; operator new
  00020	59		 pop	 ecx
  00021	85 c0		 test	 eax, eax

; 38   : 
; 39   : 	return ((_Ty _FARQ *)_Ptr);

  00023	75 26		 jne	 SHORT $LN5@Allocate@3
$LN1@Allocate@3:

; 37   : 		_THROW_NCEE(bad_alloc, 0);

  00025	83 65 08 00	 and	 DWORD PTR $T536403[ebp], 0
  00029	8d 45 08	 lea	 eax, DWORD PTR $T536403[ebp]
  0002c	50		 push	 eax
  0002d	8d 4d f4	 lea	 ecx, DWORD PTR $T536399[ebp]
  00030	ff 15 00 00 00
	00		 call	 DWORD PTR __imp_??0exception@std@@QAE@ABQBD@Z
  00036	68 00 00 00 00	 push	 OFFSET __TI2?AVbad_alloc@std@@
  0003b	8d 45 f4	 lea	 eax, DWORD PTR $T536399[ebp]
  0003e	50		 push	 eax
  0003f	c7 45 f4 00 00
	00 00		 mov	 DWORD PTR $T536399[ebp], OFFSET ??_7bad_alloc@std@@6B@
  00046	e8 00 00 00 00	 call	 __CxxThrowException@8
$LN10@Allocate@3:
$LN5@Allocate@3:

; 40   : 	}

  0004b	c9		 leave
  0004c	c3		 ret	 0
$LN9@Allocate@3:
??$_Allocate@UForceInfo@@@std@@YAPAUForceInfo@@IPAU1@@Z ENDP ; std::_Allocate<ForceInfo>
_TEXT	ENDS
PUBLIC	??$_Destroy@UForceInfo@@@std@@YAXPAUForceInfo@@@Z ; std::_Destroy<ForceInfo>
; Function compile flags: /Ogsp
;	COMDAT ??$_Destroy@UForceInfo@@@std@@YAXPAUForceInfo@@@Z
_TEXT	SEGMENT
__Ptr$ = 8						; size = 4
??$_Destroy@UForceInfo@@@std@@YAXPAUForceInfo@@@Z PROC	; std::_Destroy<ForceInfo>, COMDAT

; 63   : 	_Ptr->~_Ty();
; 64   : 	}

  00000	c3		 ret	 0
??$_Destroy@UForceInfo@@@std@@YAXPAUForceInfo@@@Z ENDP	; std::_Destroy<ForceInfo>
_TEXT	ENDS
PUBLIC	??_GWeaponInfo@@QAEPAXI@Z			; WeaponInfo::`scalar deleting destructor'
; Function compile flags: /Ogsp
;	COMDAT ??_GWeaponInfo@@QAEPAXI@Z
_TEXT	SEGMENT
___flags$ = 8						; size = 4
??_GWeaponInfo@@QAEPAXI@Z PROC				; WeaponInfo::`scalar deleting destructor', COMDAT
; _this$ = ecx
  00000	55		 push	 ebp
  00001	8b ec		 mov	 ebp, esp
  00003	56		 push	 esi
  00004	8b f1		 mov	 esi, ecx
  00006	8d 4e 08	 lea	 ecx, DWORD PTR [esi+8]
  00009	ff 15 00 00 00
	00		 call	 DWORD PTR __imp_??1ioHashString@@QAE@XZ
  0000f	f6 45 08 01	 test	 BYTE PTR ___flags$[ebp], 1
  00013	74 07		 je	 SHORT $LN1@scalar@4
  00015	56		 push	 esi
  00016	e8 00 00 00 00	 call	 ??3@YAXPAX@Z		; operator delete
  0001b	59		 pop	 ecx
$LN1@scalar@4:
  0001c	8b c6		 mov	 eax, esi
  0001e	5e		 pop	 esi
  0001f	5d		 pop	 ebp
  00020	c2 04 00	 ret	 4
??_GWeaponInfo@@QAEPAXI@Z ENDP				; WeaponInfo::`scalar deleting destructor'
_TEXT	ENDS
PUBLIC	??0WeaponInfo@@QAE@ABU0@@Z			; WeaponInfo::WeaponInfo
; Function compile flags: /Ogsp
;	COMDAT ??0WeaponInfo@@QAE@ABU0@@Z
_TEXT	SEGMENT
___that$ = 8						; size = 4
??0WeaponInfo@@QAE@ABU0@@Z PROC				; WeaponInfo::WeaponInfo, COMDAT
; _this$ = ecx
  00000	55		 push	 ebp
  00001	8b ec		 mov	 ebp, esp
  00003	56		 push	 esi
  00004	57		 push	 edi
  00005	8b 7d 08	 mov	 edi, DWORD PTR ___that$[ebp]
  00008	8b 07		 mov	 eax, DWORD PTR [edi]
  0000a	8b f1		 mov	 esi, ecx
  0000c	89 06		 mov	 DWORD PTR [esi], eax
  0000e	8b 47 04	 mov	 eax, DWORD PTR [edi+4]
  00011	89 46 04	 mov	 DWORD PTR [esi+4], eax
  00014	8d 47 08	 lea	 eax, DWORD PTR [edi+8]
  00017	50		 push	 eax
  00018	8d 4e 08	 lea	 ecx, DWORD PTR [esi+8]
  0001b	ff 15 00 00 00
	00		 call	 DWORD PTR __imp_??0ioHashString@@QAE@ABV0@@Z
  00021	8b 47 18	 mov	 eax, DWORD PTR [edi+24]
  00024	89 46 18	 mov	 DWORD PTR [esi+24], eax
  00027	8b 47 1c	 mov	 eax, DWORD PTR [edi+28]
  0002a	89 46 1c	 mov	 DWORD PTR [esi+28], eax
  0002d	8a 47 20	 mov	 al, BYTE PTR [edi+32]
  00030	88 46 20	 mov	 BYTE PTR [esi+32], al
  00033	8b 47 24	 mov	 eax, DWORD PTR [edi+36]
  00036	89 46 24	 mov	 DWORD PTR [esi+36], eax
  00039	5f		 pop	 edi
  0003a	8b c6		 mov	 eax, esi
  0003c	5e		 pop	 esi
  0003d	5d		 pop	 ebp
  0003e	c2 04 00	 ret	 4
??0WeaponInfo@@QAE@ABU0@@Z ENDP				; WeaponInfo::WeaponInfo
_TEXT	ENDS
PUBLIC	__real@bf800000
PUBLIC	__real@3f800000
PUBLIC	_dwEffectID$GSCopy$
PUBLIC	__$ArrayPad$
PUBLIC	?CreateMarker@ioKeyMarkAttackBuff@@IAEXPAVioBaseChar@@PAVioPlayStage@@ABVioHashString@@2AAK@Z ; ioKeyMarkAttackBuff::CreateMarker
EXTRN	?SetWorldOrientation@ioMapEffect@@QAEXABUD3DXQUATERNION@@@Z:PROC ; ioMapEffect::SetWorldOrientation
EXTRN	__imp_?CalcDirectionQuaternion@ioMath@@SAXAAUD3DXQUATERNION@@ABUD3DXVECTOR3@@@Z:PROC
EXTRN	?GetUniqueID@ioMapEffect@@QBEKXZ:PROC		; ioMapEffect::GetUniqueID
EXTRN	?CreateMapEffect@ioPlayStage@@QAEPAVioMapEffect@@ABVioHashString@@ABUD3DXVECTOR3@@1@Z:PROC ; ioPlayStage::CreateMapEffect
EXTRN	__imp_??D@YA?AUD3DXVECTOR3@@ABUD3DXQUATERNION@@ABU0@@Z:PROC
;	COMDAT __real@bf800000
; File c:\program files (x86)\microsoft directx sdk (june 2010)\include\d3dx9math.inl
CONST	SEGMENT
__real@bf800000 DD 0bf800000r			; -1
CONST	ENDS
;	COMDAT __real@3f800000
CONST	SEGMENT
__real@3f800000 DD 03f800000r			; 1
; Function compile flags: /Ogsp
; File d:\lost saga for developer\youtube\tutorial\source\src\lsclient\iokeymarkattackbuff.cpp
CONST	ENDS
;	COMDAT ?CreateMarker@ioKeyMarkAttackBuff@@IAEXPAVioBaseChar@@PAVioPlayStage@@ABVioHashString@@2AAK@Z
_TEXT	SEGMENT
_qtCharRot$531470 = -76					; size = 16
_dwEffectID$GSCopy$ = -60				; size = 4
tv283 = -56						; size = 4
tv279 = -56						; size = 4
tv275 = -56						; size = 4
_vPos$531464 = -52					; size = 12
$T531471 = -40						; size = 12
$T531467 = -40						; size = 12
_vScale$531463 = -28					; size = 12
_vDir$531466 = -16					; size = 12
__$ArrayPad$ = -4					; size = 4
_pChar$ = 8						; size = 4
_pStage$ = 12						; size = 4
_szTargetName$ = 16					; size = 4
_szEffectName$ = 20					; size = 4
_dwEffectID$ = 24					; size = 4
?CreateMarker@ioKeyMarkAttackBuff@@IAEXPAVioBaseChar@@PAVioPlayStage@@ABVioHashString@@2AAK@Z PROC ; ioKeyMarkAttackBuff::CreateMarker, COMDAT
; _this$ = ecx

; 433  : {

  00000	55		 push	 ebp
  00001	8b ec		 mov	 ebp, esp
  00003	83 ec 4c	 sub	 esp, 76			; 0000004cH
  00006	a1 00 00 00 00	 mov	 eax, DWORD PTR ___security_cookie
  0000b	33 c5		 xor	 eax, ebp
  0000d	89 45 fc	 mov	 DWORD PTR __$ArrayPad$[ebp], eax

; 434  : 	if ( !pChar || !pStage )

  00010	83 7d 08 00	 cmp	 DWORD PTR _pChar$[ebp], 0
  00014	8b 4d 18	 mov	 ecx, DWORD PTR _dwEffectID$[ebp]
  00017	8b 45 10	 mov	 eax, DWORD PTR _szTargetName$[ebp]
  0001a	53		 push	 ebx
  0001b	8b 5d 14	 mov	 ebx, DWORD PTR _szEffectName$[ebp]
  0001e	57		 push	 edi
  0001f	8b 7d 0c	 mov	 edi, DWORD PTR _pStage$[ebp]

; 443  : 	{
; 444  : 		D3DXVECTOR3 vScale( 1.0f, 1.0f, 1.0f );

  00022	89 4d c4	 mov	 DWORD PTR _dwEffectID$GSCopy$[ebp], ecx
  00025	0f 84 28 01 00
	00		 je	 $LN4@CreateMark

; 434  : 	if ( !pChar || !pStage )

  0002b	85 ff		 test	 edi, edi
  0002d	0f 84 20 01 00
	00		 je	 $LN4@CreateMark

; 435  : 		return;
; 436  : 
; 437  : 	ioBaseChar* pTarget = pStage->GetBaseChar( szTargetName );

  00033	56		 push	 esi
  00034	50		 push	 eax
  00035	8b cf		 mov	 ecx, edi
  00037	e8 00 00 00 00	 call	 ?GetBaseChar@ioPlayStage@@QAEPAVioBaseChar@@ABVioHashString@@@Z ; ioPlayStage::GetBaseChar
  0003c	8b f0		 mov	 esi, eax

; 438  : 	if ( !pTarget )

  0003e	85 f6		 test	 esi, esi
  00040	0f 84 0c 01 00
	00		 je	 $LN24@CreateMark

; 439  : 		return;
; 440  : 
; 441  : 	ioMapEffect *pMapEffect = pStage->FindMapEffect( dwEffectID );

  00046	8b 45 c4	 mov	 eax, DWORD PTR _dwEffectID$GSCopy$[ebp]
  00049	ff 30		 push	 DWORD PTR [eax]
  0004b	8b cf		 mov	 ecx, edi
  0004d	e8 00 00 00 00	 call	 ?FindMapEffect@ioPlayStage@@QAEPAVioMapEffect@@K@Z ; ioPlayStage::FindMapEffect

; 442  : 	if( !pMapEffect )

  00052	85 c0		 test	 eax, eax
  00054	0f 85 f8 00 00
	00		 jne	 $LN24@CreateMark

; 443  : 	{
; 444  : 		D3DXVECTOR3 vScale( 1.0f, 1.0f, 1.0f );

  0005a	f3 0f 10 05 00
	00 00 00	 movss	 xmm0, DWORD PTR __real@3f800000
  00062	f3 0f 11 45 e4	 movss	 DWORD PTR _vScale$531463[ebp], xmm0
  00067	f3 0f 11 45 e8	 movss	 DWORD PTR _vScale$531463[ebp+4], xmm0
  0006c	f3 0f 11 45 ec	 movss	 DWORD PTR _vScale$531463[ebp+8], xmm0

; 445  : 		D3DXVECTOR3 vPos = pTarget->GetMidPositionByRate();

  00071	b8 05 00 00 00	 mov	 eax, 5
  00076	8b c8		 mov	 ecx, eax
  00078	b8 0a 00 00 00	 mov	 eax, 10			; 0000000aH
  0007d	89 4d c8	 mov	 DWORD PTR tv283[ebp], ecx
  00080	db 45 c8	 fild	 DWORD PTR tv283[ebp]
  00083	85 c9		 test	 ecx, ecx
  00085	79 06		 jns	 SHORT $LN25@CreateMark
  00087	d8 05 00 00 00
	00		 fadd	 DWORD PTR __real@4f800000
$LN25@CreateMark:
  0008d	89 45 c8	 mov	 DWORD PTR tv279[ebp], eax
  00090	db 45 c8	 fild	 DWORD PTR tv279[ebp]
  00093	85 c0		 test	 eax, eax
  00095	79 06		 jns	 SHORT $LN26@CreateMark
  00097	d8 05 00 00 00
	00		 fadd	 DWORD PTR __real@4f800000
$LN26@CreateMark:
  0009d	de f9		 fdivp	 ST(1), ST(0)
  0009f	51		 push	 ecx
  000a0	8d 45 cc	 lea	 eax, DWORD PTR _vPos$531464[ebp]
  000a3	8b ce		 mov	 ecx, esi
  000a5	d9 5d c8	 fstp	 DWORD PTR tv275[ebp]
  000a8	d9 45 c8	 fld	 DWORD PTR tv275[ebp]
  000ab	d9 1c 24	 fstp	 DWORD PTR [esp]
  000ae	50		 push	 eax
  000af	e8 00 00 00 00	 call	 ?GetMidPositionByRate@ioGameEntity@@QBE?AUD3DXVECTOR3@@M@Z ; ioGameEntity::GetMidPositionByRate

; 446  : 		D3DXVECTOR3 vDir = pTarget->GetTargetRot() * D3DXVECTOR3( 0.0f, 0.0f, -1.0f );

  000b4	0f 57 c0	 xorps	 xmm0, xmm0
  000b7	8d 45 d8	 lea	 eax, DWORD PTR $T531467[ebp]
  000ba	50		 push	 eax
  000bb	81 c6 a4 06 00
	00		 add	 esi, 1700		; 000006a4H
  000c1	8d 45 f0	 lea	 eax, DWORD PTR _vDir$531466[ebp]
  000c4	f3 0f 11 45 d8	 movss	 DWORD PTR $T531467[ebp], xmm0
  000c9	f3 0f 11 45 dc	 movss	 DWORD PTR $T531467[ebp+4], xmm0
  000ce	f3 0f 10 05 00
	00 00 00	 movss	 xmm0, DWORD PTR __real@bf800000
  000d6	56		 push	 esi
  000d7	50		 push	 eax
  000d8	f3 0f 11 45 e0	 movss	 DWORD PTR $T531467[ebp+8], xmm0
  000dd	ff 15 00 00 00
	00		 call	 DWORD PTR __imp_??D@YA?AUD3DXVECTOR3@@ABUD3DXQUATERNION@@ABU0@@Z
  000e3	83 c4 0c	 add	 esp, 12			; 0000000cH

; 447  : 		pMapEffect = pStage->CreateMapEffect( szEffectName, vPos, vScale );

  000e6	8d 45 e4	 lea	 eax, DWORD PTR _vScale$531463[ebp]
  000e9	50		 push	 eax
  000ea	8d 45 cc	 lea	 eax, DWORD PTR _vPos$531464[ebp]
  000ed	50		 push	 eax
  000ee	53		 push	 ebx
  000ef	8b cf		 mov	 ecx, edi
  000f1	e8 00 00 00 00	 call	 ?CreateMapEffect@ioPlayStage@@QAEPAVioMapEffect@@ABVioHashString@@ABUD3DXVECTOR3@@1@Z ; ioPlayStage::CreateMapEffect
  000f6	8b f0		 mov	 esi, eax

; 448  : 		if( pMapEffect )

  000f8	85 f6		 test	 esi, esi
  000fa	74 56		 je	 SHORT $LN24@CreateMark

; 449  : 		{
; 450  : 			dwEffectID = pMapEffect->GetUniqueID();

  000fc	8b ce		 mov	 ecx, esi
  000fe	e8 00 00 00 00	 call	 ?GetUniqueID@ioMapEffect@@QBEKXZ ; ioMapEffect::GetUniqueID
  00103	8b 4d c4	 mov	 ecx, DWORD PTR _dwEffectID$GSCopy$[ebp]

; 451  : 
; 452  : 			D3DXQUATERNION qtCharRot;
; 453  : 			ioMath::CalcDirectionQuaternion( qtCharRot, -vDir );

  00106	f3 0f 10 4d f0	 movss	 xmm1, DWORD PTR _vDir$531466[ebp]
  0010b	89 01		 mov	 DWORD PTR [ecx], eax
  0010d	f3 0f 10 05 00
	00 00 00	 movss	 xmm0, DWORD PTR __mask@@NegFloat@
  00115	0f 57 c8	 xorps	 xmm1, xmm0
  00118	f3 0f 11 4d d8	 movss	 DWORD PTR $T531471[ebp], xmm1
  0011d	f3 0f 10 4d f4	 movss	 xmm1, DWORD PTR _vDir$531466[ebp+4]
  00122	0f 57 c8	 xorps	 xmm1, xmm0
  00125	8d 45 d8	 lea	 eax, DWORD PTR $T531471[ebp]
  00128	50		 push	 eax
  00129	f3 0f 11 4d dc	 movss	 DWORD PTR $T531471[ebp+4], xmm1
  0012e	f3 0f 10 4d f8	 movss	 xmm1, DWORD PTR _vDir$531466[ebp+8]
  00133	8d 45 b4	 lea	 eax, DWORD PTR _qtCharRot$531470[ebp]
  00136	0f 57 c8	 xorps	 xmm1, xmm0
  00139	50		 push	 eax
  0013a	f3 0f 11 4d e0	 movss	 DWORD PTR $T531471[ebp+8], xmm1
  0013f	ff 15 00 00 00
	00		 call	 DWORD PTR __imp_?CalcDirectionQuaternion@ioMath@@SAXAAUD3DXQUATERNION@@ABUD3DXVECTOR3@@@Z
  00145	59		 pop	 ecx
  00146	59		 pop	 ecx

; 454  : 			pMapEffect->SetWorldOrientation( qtCharRot );

  00147	8d 45 b4	 lea	 eax, DWORD PTR _qtCharRot$531470[ebp]
  0014a	50		 push	 eax
  0014b	8b ce		 mov	 ecx, esi
  0014d	e8 00 00 00 00	 call	 ?SetWorldOrientation@ioMapEffect@@QAEXABUD3DXQUATERNION@@@Z ; ioMapEffect::SetWorldOrientation
$LN24@CreateMark:
  00152	5e		 pop	 esi
$LN4@CreateMark:

; 455  : 		}
; 456  : 	}
; 457  : }

  00153	8b 4d fc	 mov	 ecx, DWORD PTR __$ArrayPad$[ebp]
  00156	5f		 pop	 edi
  00157	33 cd		 xor	 ecx, ebp
  00159	5b		 pop	 ebx
  0015a	e8 00 00 00 00	 call	 @__security_check_cookie@4
  0015f	c9		 leave
  00160	c2 14 00	 ret	 20			; 00000014H
?CreateMarker@ioKeyMarkAttackBuff@@IAEXPAVioBaseChar@@PAVioPlayStage@@ABVioHashString@@2AAK@Z ENDP ; ioKeyMarkAttackBuff::CreateMarker
_TEXT	ENDS
PUBLIC	__$ArrayPad$
PUBLIC	?SetTargetRotation@ioKeyMarkAttackBuff@@IAEXPAVioBaseChar@@@Z ; ioKeyMarkAttackBuff::SetTargetRotation
EXTRN	?SetTargetRotToDir@ioBaseChar@@QAEXABUD3DXVECTOR3@@_N1@Z:PROC ; ioBaseChar::SetTargetRotToDir
EXTRN	_D3DXVec3Normalize@8:PROC
EXTRN	?GetBaseChar@ioBaseChar@@QAEPAV1@ABVioHashString@@@Z:PROC ; ioBaseChar::GetBaseChar
; Function compile flags: /Ogsp
;	COMDAT ?SetTargetRotation@ioKeyMarkAttackBuff@@IAEXPAVioBaseChar@@@Z
_TEXT	SEGMENT
_pTarget$ = -52						; size = 4
tv280 = -48						; size = 4
tv276 = -48						; size = 4
$T536484 = -48						; size = 4
tv298 = -44						; size = 4
tv294 = -44						; size = 4
tv290 = -44						; size = 4
tv284 = -44						; size = 4
$T531625 = -40						; size = 12
$T531624 = -28						; size = 12
_vAimedDir$ = -16					; size = 12
__$ArrayPad$ = -4					; size = 4
_pChar$ = 8						; size = 4
?SetTargetRotation@ioKeyMarkAttackBuff@@IAEXPAVioBaseChar@@@Z PROC ; ioKeyMarkAttackBuff::SetTargetRotation, COMDAT
; _this$ = ecx

; 727  : {

  00000	55		 push	 ebp
  00001	8b ec		 mov	 ebp, esp
  00003	83 ec 34	 sub	 esp, 52			; 00000034H
  00006	a1 00 00 00 00	 mov	 eax, DWORD PTR ___security_cookie
  0000b	33 c5		 xor	 eax, ebp
  0000d	89 45 fc	 mov	 DWORD PTR __$ArrayPad$[ebp], eax
  00010	57		 push	 edi
  00011	8b 7d 08	 mov	 edi, DWORD PTR _pChar$[ebp]
  00014	8b c1		 mov	 eax, ecx

; 728  : 	if ( !pChar )

  00016	85 ff		 test	 edi, edi
  00018	0f 84 22 01 00
	00		 je	 $LN4@SetTargetR

; 729  : 		return;
; 730  : 	ioEntityGroup *pGrp = pChar->GetGroup();
; 731  : 	if ( !pGrp )

  0001e	83 7f 04 00	 cmp	 DWORD PTR [edi+4], 0
  00022	0f 84 18 01 00
	00		 je	 $LN4@SetTargetR

; 732  : 		return;
; 733  : 
; 734  : 	ioBaseChar *pTarget = pChar->GetBaseChar( m_szAttackTarget );

  00028	05 b4 0a 00 00	 add	 eax, 2740		; 00000ab4H
  0002d	50		 push	 eax
  0002e	8b cf		 mov	 ecx, edi
  00030	e8 00 00 00 00	 call	 ?GetBaseChar@ioBaseChar@@QAEPAV1@ABVioHashString@@@Z ; ioBaseChar::GetBaseChar
  00035	89 45 cc	 mov	 DWORD PTR _pTarget$[ebp], eax

; 735  : 
; 736  : 	if( !pTarget )

  00038	85 c0		 test	 eax, eax
  0003a	0f 84 00 01 00
	00		 je	 $LN4@SetTargetR

; 737  : 		return;
; 738  : 
; 739  : 	D3DXVECTOR3 vAimedDir = pTarget->GetMidPositionByRate() - pChar->GetMidPositionByRate();

  00040	53		 push	 ebx
  00041	56		 push	 esi
  00042	b8 05 00 00 00	 mov	 eax, 5
  00047	8b c8		 mov	 ecx, eax
  00049	b8 0a 00 00 00	 mov	 eax, 10			; 0000000aH
  0004e	8b d0		 mov	 edx, eax
  00050	b8 05 00 00 00	 mov	 eax, 5
  00055	8b d8		 mov	 ebx, eax
  00057	b8 0a 00 00 00	 mov	 eax, 10			; 0000000aH
  0005c	89 4d d4	 mov	 DWORD PTR tv298[ebp], ecx
  0005f	db 45 d4	 fild	 DWORD PTR tv298[ebp]
  00062	89 45 d0	 mov	 DWORD PTR $T536484[ebp], eax
  00065	85 c9		 test	 ecx, ecx
  00067	79 06		 jns	 SHORT $LN20@SetTargetR
  00069	d8 05 00 00 00
	00		 fadd	 DWORD PTR __real@4f800000
$LN20@SetTargetR:
  0006f	89 55 d4	 mov	 DWORD PTR tv294[ebp], edx
  00072	db 45 d4	 fild	 DWORD PTR tv294[ebp]
  00075	85 d2		 test	 edx, edx
  00077	79 06		 jns	 SHORT $LN21@SetTargetR
  00079	d8 05 00 00 00
	00		 fadd	 DWORD PTR __real@4f800000
$LN21@SetTargetR:
  0007f	de f9		 fdivp	 ST(1), ST(0)
  00081	51		 push	 ecx
  00082	8d 45 d8	 lea	 eax, DWORD PTR $T531625[ebp]
  00085	8b cf		 mov	 ecx, edi
  00087	d9 5d d4	 fstp	 DWORD PTR tv290[ebp]
  0008a	d9 45 d4	 fld	 DWORD PTR tv290[ebp]
  0008d	d9 1c 24	 fstp	 DWORD PTR [esp]
  00090	50		 push	 eax
  00091	e8 00 00 00 00	 call	 ?GetMidPositionByRate@ioGameEntity@@QBE?AUD3DXVECTOR3@@M@Z ; ioGameEntity::GetMidPositionByRate
  00096	89 5d d4	 mov	 DWORD PTR tv284[ebp], ebx
  00099	db 45 d4	 fild	 DWORD PTR tv284[ebp]
  0009c	8b f0		 mov	 esi, eax
  0009e	85 db		 test	 ebx, ebx
  000a0	79 06		 jns	 SHORT $LN22@SetTargetR
  000a2	d8 05 00 00 00
	00		 fadd	 DWORD PTR __real@4f800000
$LN22@SetTargetR:
  000a8	8b 45 d0	 mov	 eax, DWORD PTR $T536484[ebp]
  000ab	db 45 d0	 fild	 DWORD PTR $T536484[ebp]
  000ae	85 c0		 test	 eax, eax
  000b0	79 06		 jns	 SHORT $LN23@SetTargetR
  000b2	d8 05 00 00 00
	00		 fadd	 DWORD PTR __real@4f800000
$LN23@SetTargetR:
  000b8	de f9		 fdivp	 ST(1), ST(0)
  000ba	51		 push	 ecx
  000bb	8b 4d cc	 mov	 ecx, DWORD PTR _pTarget$[ebp]
  000be	8d 45 e4	 lea	 eax, DWORD PTR $T531624[ebp]
  000c1	d9 5d d0	 fstp	 DWORD PTR tv276[ebp]
  000c4	d9 45 d0	 fld	 DWORD PTR tv276[ebp]
  000c7	d9 1c 24	 fstp	 DWORD PTR [esp]
  000ca	50		 push	 eax
  000cb	e8 00 00 00 00	 call	 ?GetMidPositionByRate@ioGameEntity@@QBE?AUD3DXVECTOR3@@M@Z ; ioGameEntity::GetMidPositionByRate
  000d0	f3 0f 10 40 04	 movss	 xmm0, DWORD PTR [eax+4]
  000d5	f3 0f 10 4e 04	 movss	 xmm1, DWORD PTR [esi+4]
  000da	f3 0f 10 56 08	 movss	 xmm2, DWORD PTR [esi+8]
  000df	f3 0f 10 1e	 movss	 xmm3, DWORD PTR [esi]
  000e3	0f 5a c9	 cvtps2pd xmm1, xmm1
  000e6	0f 5a c0	 cvtps2pd xmm0, xmm0
  000e9	f2 0f 5c c1	 subsd	 xmm0, xmm1
  000ed	f3 0f 10 48 08	 movss	 xmm1, DWORD PTR [eax+8]
  000f2	0f 5a d2	 cvtps2pd xmm2, xmm2
  000f5	0f 5a c9	 cvtps2pd xmm1, xmm1
  000f8	f2 0f 5c ca	 subsd	 xmm1, xmm2
  000fc	f3 0f 10 10	 movss	 xmm2, DWORD PTR [eax]

; 740  : 	D3DXVec3Normalize( &vAimedDir, &vAimedDir );

  00100	8d 45 f0	 lea	 eax, DWORD PTR _vAimedDir$[ebp]
  00103	0f 5a d2	 cvtps2pd xmm2, xmm2
  00106	0f 5a db	 cvtps2pd xmm3, xmm3
  00109	50		 push	 eax
  0010a	f2 0f 5c d3	 subsd	 xmm2, xmm3
  0010e	66 0f 5a c0	 cvtpd2ps xmm0, xmm0
  00112	66 0f 5a c9	 cvtpd2ps xmm1, xmm1
  00116	66 0f 5a d2	 cvtpd2ps xmm2, xmm2
  0011a	50		 push	 eax
  0011b	f3 0f 11 55 f0	 movss	 DWORD PTR _vAimedDir$[ebp], xmm2
  00120	f3 0f 11 45 f4	 movss	 DWORD PTR _vAimedDir$[ebp+4], xmm0
  00125	f3 0f 11 4d f8	 movss	 DWORD PTR _vAimedDir$[ebp+8], xmm1
  0012a	e8 00 00 00 00	 call	 _D3DXVec3Normalize@8

; 741  : 	pChar->SetTargetRotToDir( vAimedDir, true );

  0012f	6a 00		 push	 0
  00131	6a 01		 push	 1
  00133	8d 45 f0	 lea	 eax, DWORD PTR _vAimedDir$[ebp]
  00136	50		 push	 eax
  00137	8b cf		 mov	 ecx, edi
  00139	e8 00 00 00 00	 call	 ?SetTargetRotToDir@ioBaseChar@@QAEXABUD3DXVECTOR3@@_N1@Z ; ioBaseChar::SetTargetRotToDir
  0013e	5e		 pop	 esi
  0013f	5b		 pop	 ebx
$LN4@SetTargetR:

; 742  : }

  00140	8b 4d fc	 mov	 ecx, DWORD PTR __$ArrayPad$[ebp]
  00143	33 cd		 xor	 ecx, ebp
  00145	5f		 pop	 edi
  00146	e8 00 00 00 00	 call	 @__security_check_cookie@4
  0014b	c9		 leave
  0014c	c2 04 00	 ret	 4
?SetTargetRotation@ioKeyMarkAttackBuff@@IAEXPAVioBaseChar@@@Z ENDP ; ioKeyMarkAttackBuff::SetTargetRotation
_TEXT	ENDS
PUBLIC	??D?$CEncrypt@M@@QAEMABM@Z			; CEncrypt<float>::operator*
; Function compile flags: /Ogsp
; File d:\lost saga for developer\youtube\tutorial\source\src\lsclient\encryptvalue.h
;	COMDAT ??D?$CEncrypt@M@@QAEMABM@Z
_TEXT	SEGMENT
_value$ = -4						; size = 4
tv130 = 8						; size = 4
_inValue$ = 8						; size = 4
??D?$CEncrypt@M@@QAEMABM@Z PROC				; CEncrypt<float>::operator*, COMDAT
; _this$ = ecx

; 1685 : 	{	

  00000	55		 push	 ebp
  00001	8b ec		 mov	 ebp, esp
  00003	51		 push	 ecx

; 1686 : 		type value;
; 1687 : 		DecryptValueToPool(&value);

  00004	8d 45 fc	 lea	 eax, DWORD PTR _value$[ebp]
  00007	50		 push	 eax
  00008	e8 00 00 00 00	 call	 ?DecryptValueToPool@?$CEncrypt@M@@QAEXPAM@Z ; CEncrypt<float>::DecryptValueToPool

; 1688 : #ifdef _NOTUSE
; 1689 : 		Debug();
; 1690 : #endif
; 1691 : 		return value * inValue;

  0000d	8b 45 08	 mov	 eax, DWORD PTR _inValue$[ebp]
  00010	d9 00		 fld	 DWORD PTR [eax]
  00012	d8 4d fc	 fmul	 DWORD PTR _value$[ebp]
  00015	d9 5d 08	 fstp	 DWORD PTR tv130[ebp]
  00018	d9 45 08	 fld	 DWORD PTR tv130[ebp]

; 1692 : 	}

  0001b	c9		 leave
  0001c	c2 04 00	 ret	 4
??D?$CEncrypt@M@@QAEMABM@Z ENDP				; CEncrypt<float>::operator*
_TEXT	ENDS
PUBLIC	?begin@?$vector@PAVioBaseChar@@V?$allocator@PAVioBaseChar@@@std@@@std@@QBE?AV?$_Vector_const_iterator@V?$_Vector_val@PAVioBaseChar@@V?$allocator@PAVioBaseChar@@@std@@@std@@@2@XZ ; std::vector<ioBaseChar *,std::allocator<ioBaseChar *> >::begin
; Function compile flags: /Ogsp
; File c:\program files (x86)\microsoft visual studio 10.0\vc\include\vector
;	COMDAT ?begin@?$vector@PAVioBaseChar@@V?$allocator@PAVioBaseChar@@@std@@@std@@QBE?AV?$_Vector_const_iterator@V?$_Vector_val@PAVioBaseChar@@V?$allocator@PAVioBaseChar@@@std@@@std@@@2@XZ
_TEXT	SEGMENT
___$ReturnUdt$ = 8					; size = 4
?begin@?$vector@PAVioBaseChar@@V?$allocator@PAVioBaseChar@@@std@@@std@@QBE?AV?$_Vector_const_iterator@V?$_Vector_val@PAVioBaseChar@@V?$allocator@PAVioBaseChar@@@std@@@std@@@2@XZ PROC ; std::vector<ioBaseChar *,std::allocator<ioBaseChar *> >::begin, COMDAT
; _this$ = ecx

; 786  : 		{	// return iterator for beginning of nonmutable sequence

  00000	55		 push	 ebp
  00001	8b ec		 mov	 ebp, esp

; 787  : 		return (const_iterator(this->_Myfirst, this));

  00003	8b 09		 mov	 ecx, DWORD PTR [ecx]
  00005	8b 45 08	 mov	 eax, DWORD PTR ___$ReturnUdt$[ebp]
  00008	89 08		 mov	 DWORD PTR [eax], ecx

; 788  : 		}

  0000a	5d		 pop	 ebp
  0000b	c2 04 00	 ret	 4
?begin@?$vector@PAVioBaseChar@@V?$allocator@PAVioBaseChar@@@std@@@std@@QBE?AV?$_Vector_const_iterator@V?$_Vector_val@PAVioBaseChar@@V?$allocator@PAVioBaseChar@@@std@@@std@@@2@XZ ENDP ; std::vector<ioBaseChar *,std::allocator<ioBaseChar *> >::begin
_TEXT	ENDS
PUBLIC	?end@?$vector@PAVioBaseChar@@V?$allocator@PAVioBaseChar@@@std@@@std@@QBE?AV?$_Vector_const_iterator@V?$_Vector_val@PAVioBaseChar@@V?$allocator@PAVioBaseChar@@@std@@@std@@@2@XZ ; std::vector<ioBaseChar *,std::allocator<ioBaseChar *> >::end
; Function compile flags: /Ogsp
;	COMDAT ?end@?$vector@PAVioBaseChar@@V?$allocator@PAVioBaseChar@@@std@@@std@@QBE?AV?$_Vector_const_iterator@V?$_Vector_val@PAVioBaseChar@@V?$allocator@PAVioBaseChar@@@std@@@std@@@2@XZ
_TEXT	SEGMENT
___$ReturnUdt$ = 8					; size = 4
?end@?$vector@PAVioBaseChar@@V?$allocator@PAVioBaseChar@@@std@@@std@@QBE?AV?$_Vector_const_iterator@V?$_Vector_val@PAVioBaseChar@@V?$allocator@PAVioBaseChar@@@std@@@std@@@2@XZ PROC ; std::vector<ioBaseChar *,std::allocator<ioBaseChar *> >::end, COMDAT
; _this$ = ecx

; 796  : 		{	// return iterator for end of nonmutable sequence

  00000	55		 push	 ebp
  00001	8b ec		 mov	 ebp, esp

; 797  : 		return (const_iterator(this->_Mylast, this));

  00003	8b 49 04	 mov	 ecx, DWORD PTR [ecx+4]
  00006	8b 45 08	 mov	 eax, DWORD PTR ___$ReturnUdt$[ebp]
  00009	89 08		 mov	 DWORD PTR [eax], ecx

; 798  : 		}

  0000b	5d		 pop	 ebp
  0000c	c2 04 00	 ret	 4
?end@?$vector@PAVioBaseChar@@V?$allocator@PAVioBaseChar@@@std@@@std@@QBE?AV?$_Vector_const_iterator@V?$_Vector_val@PAVioBaseChar@@V?$allocator@PAVioBaseChar@@@std@@@std@@@2@XZ ENDP ; std::vector<ioBaseChar *,std::allocator<ioBaseChar *> >::end
_TEXT	ENDS
PUBLIC	?begin@?$vector@UWeaponInfo@@V?$allocator@UWeaponInfo@@@std@@@std@@QBE?AV?$_Vector_const_iterator@V?$_Vector_val@UWeaponInfo@@V?$allocator@UWeaponInfo@@@std@@@std@@@2@XZ ; std::vector<WeaponInfo,std::allocator<WeaponInfo> >::begin
; Function compile flags: /Ogsp
;	COMDAT ?begin@?$vector@UWeaponInfo@@V?$allocator@UWeaponInfo@@@std@@@std@@QBE?AV?$_Vector_const_iterator@V?$_Vector_val@UWeaponInfo@@V?$allocator@UWeaponInfo@@@std@@@std@@@2@XZ
_TEXT	SEGMENT
___$ReturnUdt$ = 8					; size = 4
?begin@?$vector@UWeaponInfo@@V?$allocator@UWeaponInfo@@@std@@@std@@QBE?AV?$_Vector_const_iterator@V?$_Vector_val@UWeaponInfo@@V?$allocator@UWeaponInfo@@@std@@@std@@@2@XZ PROC ; std::vector<WeaponInfo,std::allocator<WeaponInfo> >::begin, COMDAT
; _this$ = ecx

; 786  : 		{	// return iterator for beginning of nonmutable sequence

  00000	55		 push	 ebp
  00001	8b ec		 mov	 ebp, esp

; 787  : 		return (const_iterator(this->_Myfirst, this));

  00003	8b 09		 mov	 ecx, DWORD PTR [ecx]
  00005	8b 45 08	 mov	 eax, DWORD PTR ___$ReturnUdt$[ebp]
  00008	89 08		 mov	 DWORD PTR [eax], ecx

; 788  : 		}

  0000a	5d		 pop	 ebp
  0000b	c2 04 00	 ret	 4
?begin@?$vector@UWeaponInfo@@V?$allocator@UWeaponInfo@@@std@@@std@@QBE?AV?$_Vector_const_iterator@V?$_Vector_val@UWeaponInfo@@V?$allocator@UWeaponInfo@@@std@@@std@@@2@XZ ENDP ; std::vector<WeaponInfo,std::allocator<WeaponInfo> >::begin
_TEXT	ENDS
PUBLIC	?end@?$vector@UWeaponInfo@@V?$allocator@UWeaponInfo@@@std@@@std@@QBE?AV?$_Vector_const_iterator@V?$_Vector_val@UWeaponInfo@@V?$allocator@UWeaponInfo@@@std@@@std@@@2@XZ ; std::vector<WeaponInfo,std::allocator<WeaponInfo> >::end
; Function compile flags: /Ogsp
;	COMDAT ?end@?$vector@UWeaponInfo@@V?$allocator@UWeaponInfo@@@std@@@std@@QBE?AV?$_Vector_const_iterator@V?$_Vector_val@UWeaponInfo@@V?$allocator@UWeaponInfo@@@std@@@std@@@2@XZ
_TEXT	SEGMENT
___$ReturnUdt$ = 8					; size = 4
?end@?$vector@UWeaponInfo@@V?$allocator@UWeaponInfo@@@std@@@std@@QBE?AV?$_Vector_const_iterator@V?$_Vector_val@UWeaponInfo@@V?$allocator@UWeaponInfo@@@std@@@std@@@2@XZ PROC ; std::vector<WeaponInfo,std::allocator<WeaponInfo> >::end, COMDAT
; _this$ = ecx

; 796  : 		{	// return iterator for end of nonmutable sequence

  00000	55		 push	 ebp
  00001	8b ec		 mov	 ebp, esp

; 797  : 		return (const_iterator(this->_Mylast, this));

  00003	8b 49 04	 mov	 ecx, DWORD PTR [ecx+4]
  00006	8b 45 08	 mov	 eax, DWORD PTR ___$ReturnUdt$[ebp]
  00009	89 08		 mov	 DWORD PTR [eax], ecx

; 798  : 		}

  0000b	5d		 pop	 ebp
  0000c	c2 04 00	 ret	 4
?end@?$vector@UWeaponInfo@@V?$allocator@UWeaponInfo@@@std@@@std@@QBE?AV?$_Vector_const_iterator@V?$_Vector_val@UWeaponInfo@@V?$allocator@UWeaponInfo@@@std@@@std@@@2@XZ ENDP ; std::vector<WeaponInfo,std::allocator<WeaponInfo> >::end
_TEXT	ENDS
PUBLIC	?begin@?$vector@UForceInfo@@V?$allocator@UForceInfo@@@std@@@std@@QBE?AV?$_Vector_const_iterator@V?$_Vector_val@UForceInfo@@V?$allocator@UForceInfo@@@std@@@std@@@2@XZ ; std::vector<ForceInfo,std::allocator<ForceInfo> >::begin
; Function compile flags: /Ogsp
;	COMDAT ?begin@?$vector@UForceInfo@@V?$allocator@UForceInfo@@@std@@@std@@QBE?AV?$_Vector_const_iterator@V?$_Vector_val@UForceInfo@@V?$allocator@UForceInfo@@@std@@@std@@@2@XZ
_TEXT	SEGMENT
___$ReturnUdt$ = 8					; size = 4
?begin@?$vector@UForceInfo@@V?$allocator@UForceInfo@@@std@@@std@@QBE?AV?$_Vector_const_iterator@V?$_Vector_val@UForceInfo@@V?$allocator@UForceInfo@@@std@@@std@@@2@XZ PROC ; std::vector<ForceInfo,std::allocator<ForceInfo> >::begin, COMDAT
; _this$ = ecx

; 786  : 		{	// return iterator for beginning of nonmutable sequence

  00000	55		 push	 ebp
  00001	8b ec		 mov	 ebp, esp

; 787  : 		return (const_iterator(this->_Myfirst, this));

  00003	8b 09		 mov	 ecx, DWORD PTR [ecx]
  00005	8b 45 08	 mov	 eax, DWORD PTR ___$ReturnUdt$[ebp]
  00008	89 08		 mov	 DWORD PTR [eax], ecx

; 788  : 		}

  0000a	5d		 pop	 ebp
  0000b	c2 04 00	 ret	 4
?begin@?$vector@UForceInfo@@V?$allocator@UForceInfo@@@std@@@std@@QBE?AV?$_Vector_const_iterator@V?$_Vector_val@UForceInfo@@V?$allocator@UForceInfo@@@std@@@std@@@2@XZ ENDP ; std::vector<ForceInfo,std::allocator<ForceInfo> >::begin
_TEXT	ENDS
PUBLIC	?end@?$vector@UForceInfo@@V?$allocator@UForceInfo@@@std@@@std@@QBE?AV?$_Vector_const_iterator@V?$_Vector_val@UForceInfo@@V?$allocator@UForceInfo@@@std@@@std@@@2@XZ ; std::vector<ForceInfo,std::allocator<ForceInfo> >::end
; Function compile flags: /Ogsp
;	COMDAT ?end@?$vector@UForceInfo@@V?$allocator@UForceInfo@@@std@@@std@@QBE?AV?$_Vector_const_iterator@V?$_Vector_val@UForceInfo@@V?$allocator@UForceInfo@@@std@@@std@@@2@XZ
_TEXT	SEGMENT
___$ReturnUdt$ = 8					; size = 4
?end@?$vector@UForceInfo@@V?$allocator@UForceInfo@@@std@@@std@@QBE?AV?$_Vector_const_iterator@V?$_Vector_val@UForceInfo@@V?$allocator@UForceInfo@@@std@@@std@@@2@XZ PROC ; std::vector<ForceInfo,std::allocator<ForceInfo> >::end, COMDAT
; _this$ = ecx

; 796  : 		{	// return iterator for end of nonmutable sequence

  00000	55		 push	 ebp
  00001	8b ec		 mov	 ebp, esp

; 797  : 		return (const_iterator(this->_Mylast, this));

  00003	8b 49 04	 mov	 ecx, DWORD PTR [ecx+4]
  00006	8b 45 08	 mov	 eax, DWORD PTR ___$ReturnUdt$[ebp]
  00009	89 08		 mov	 DWORD PTR [eax], ecx

; 798  : 		}

  0000b	5d		 pop	 ebp
  0000c	c2 04 00	 ret	 4
?end@?$vector@UForceInfo@@V?$allocator@UForceInfo@@@std@@@std@@QBE?AV?$_Vector_const_iterator@V?$_Vector_val@UForceInfo@@V?$allocator@UForceInfo@@@std@@@std@@@2@XZ ENDP ; std::vector<ForceInfo,std::allocator<ForceInfo> >::end
_TEXT	ENDS
PUBLIC	??0?$_Vector_val@UtagBaseCharDistanceSq@@V?$allocator@UtagBaseCharDistanceSq@@@std@@@std@@QAE@V?$allocator@UtagBaseCharDistanceSq@@@1@@Z ; std::_Vector_val<tagBaseCharDistanceSq,std::allocator<tagBaseCharDistanceSq> >::_Vector_val<tagBaseCharDistanceSq,std::allocator<tagBaseCharDistanceSq> >
; Function compile flags: /Ogsp
;	COMDAT ??0?$_Vector_val@UtagBaseCharDistanceSq@@V?$allocator@UtagBaseCharDistanceSq@@@std@@@std@@QAE@V?$allocator@UtagBaseCharDistanceSq@@@1@@Z
_TEXT	SEGMENT
__Al$ = 8						; size = 1
??0?$_Vector_val@UtagBaseCharDistanceSq@@V?$allocator@UtagBaseCharDistanceSq@@@std@@@std@@QAE@V?$allocator@UtagBaseCharDistanceSq@@@1@@Z PROC ; std::_Vector_val<tagBaseCharDistanceSq,std::allocator<tagBaseCharDistanceSq> >::_Vector_val<tagBaseCharDistanceSq,std::allocator<tagBaseCharDistanceSq> >, COMDAT
; _this$ = ecx

; 426  : 		{	// construct allocator from _Al

  00000	8b c1		 mov	 eax, ecx

; 427  : 		_Myfirst = 0;

  00002	33 c9		 xor	 ecx, ecx
  00004	89 08		 mov	 DWORD PTR [eax], ecx

; 428  : 		_Mylast = 0;

  00006	89 48 04	 mov	 DWORD PTR [eax+4], ecx

; 429  : 		_Myend = 0;

  00009	89 48 08	 mov	 DWORD PTR [eax+8], ecx

; 430  : 		}

  0000c	c2 04 00	 ret	 4
??0?$_Vector_val@UtagBaseCharDistanceSq@@V?$allocator@UtagBaseCharDistanceSq@@@std@@@std@@QAE@V?$allocator@UtagBaseCharDistanceSq@@@1@@Z ENDP ; std::_Vector_val<tagBaseCharDistanceSq,std::allocator<tagBaseCharDistanceSq> >::_Vector_val<tagBaseCharDistanceSq,std::allocator<tagBaseCharDistanceSq> >
_TEXT	ENDS
PUBLIC	??8?$_Vector_const_iterator@V?$_Vector_val@PAVioBaseChar@@V?$allocator@PAVioBaseChar@@@std@@@std@@@std@@QBE_NABV01@@Z ; std::_Vector_const_iterator<std::_Vector_val<ioBaseChar *,std::allocator<ioBaseChar *> > >::operator==
; Function compile flags: /Ogsp
;	COMDAT ??8?$_Vector_const_iterator@V?$_Vector_val@PAVioBaseChar@@V?$allocator@PAVioBaseChar@@@std@@@std@@@std@@QBE_NABV01@@Z
_TEXT	SEGMENT
__Right$ = 8						; size = 4
??8?$_Vector_const_iterator@V?$_Vector_val@PAVioBaseChar@@V?$allocator@PAVioBaseChar@@@std@@@std@@@std@@QBE_NABV01@@Z PROC ; std::_Vector_const_iterator<std::_Vector_val<ioBaseChar *,std::allocator<ioBaseChar *> > >::operator==, COMDAT
; _this$ = ecx

; 201  : 		{	// test for iterator equality

  00000	55		 push	 ebp
  00001	8b ec		 mov	 ebp, esp

; 202  : 		_Compat(_Right);
; 203  : 		return (this->_Ptr == _Right._Ptr);

  00003	8b 01		 mov	 eax, DWORD PTR [ecx]
  00005	8b 4d 08	 mov	 ecx, DWORD PTR __Right$[ebp]
  00008	2b 01		 sub	 eax, DWORD PTR [ecx]
  0000a	f7 d8		 neg	 eax
  0000c	1b c0		 sbb	 eax, eax
  0000e	40		 inc	 eax

; 204  : 		}

  0000f	5d		 pop	 ebp
  00010	c2 04 00	 ret	 4
??8?$_Vector_const_iterator@V?$_Vector_val@PAVioBaseChar@@V?$allocator@PAVioBaseChar@@@std@@@std@@@std@@QBE_NABV01@@Z ENDP ; std::_Vector_const_iterator<std::_Vector_val<ioBaseChar *,std::allocator<ioBaseChar *> > >::operator==
_TEXT	ENDS
PUBLIC	??0?$_Vector_iterator@V?$_Vector_val@UtagBaseCharDistanceSq@@V?$allocator@UtagBaseCharDistanceSq@@@std@@@std@@@std@@QAE@PAUtagBaseCharDistanceSq@@PBU_Container_base0@1@@Z ; std::_Vector_iterator<std::_Vector_val<tagBaseCharDistanceSq,std::allocator<tagBaseCharDistanceSq> > >::_Vector_iterator<std::_Vector_val<tagBaseCharDistanceSq,std::allocator<tagBaseCharDistanceSq> > >
; Function compile flags: /Ogsp
;	COMDAT ??0?$_Vector_iterator@V?$_Vector_val@UtagBaseCharDistanceSq@@V?$allocator@UtagBaseCharDistanceSq@@@std@@@std@@@std@@QAE@PAUtagBaseCharDistanceSq@@PBU_Container_base0@1@@Z
_TEXT	SEGMENT
__Parg$ = 8						; size = 4
__Pvector$ = 12						; size = 4
??0?$_Vector_iterator@V?$_Vector_val@UtagBaseCharDistanceSq@@V?$allocator@UtagBaseCharDistanceSq@@@std@@@std@@@std@@QAE@PAUtagBaseCharDistanceSq@@PBU_Container_base0@1@@Z PROC ; std::_Vector_iterator<std::_Vector_val<tagBaseCharDistanceSq,std::allocator<tagBaseCharDistanceSq> > >::_Vector_iterator<std::_Vector_val<tagBaseCharDistanceSq,std::allocator<tagBaseCharDistanceSq> > >, COMDAT
; _this$ = ecx

; 304  : 		{	// construct with pointer _Parg

  00000	55		 push	 ebp
  00001	8b ec		 mov	 ebp, esp
  00003	8b c1		 mov	 eax, ecx
  00005	8b 4d 08	 mov	 ecx, DWORD PTR __Parg$[ebp]
  00008	89 08		 mov	 DWORD PTR [eax], ecx

; 305  : 		}

  0000a	5d		 pop	 ebp
  0000b	c2 08 00	 ret	 8
??0?$_Vector_iterator@V?$_Vector_val@UtagBaseCharDistanceSq@@V?$allocator@UtagBaseCharDistanceSq@@@std@@@std@@@std@@QAE@PAUtagBaseCharDistanceSq@@PBU_Container_base0@1@@Z ENDP ; std::_Vector_iterator<std::_Vector_val<tagBaseCharDistanceSq,std::allocator<tagBaseCharDistanceSq> > >::_Vector_iterator<std::_Vector_val<tagBaseCharDistanceSq,std::allocator<tagBaseCharDistanceSq> > >
_TEXT	ENDS
PUBLIC	?max_size@?$vector@UtagBaseCharDistanceSq@@V?$allocator@UtagBaseCharDistanceSq@@@std@@@std@@QBEIXZ ; std::vector<tagBaseCharDistanceSq,std::allocator<tagBaseCharDistanceSq> >::max_size
; Function compile flags: /Ogsp
;	COMDAT ?max_size@?$vector@UtagBaseCharDistanceSq@@V?$allocator@UtagBaseCharDistanceSq@@@std@@@std@@QBEIXZ
_TEXT	SEGMENT
?max_size@?$vector@UtagBaseCharDistanceSq@@V?$allocator@UtagBaseCharDistanceSq@@@std@@@std@@QBEIXZ PROC ; std::vector<tagBaseCharDistanceSq,std::allocator<tagBaseCharDistanceSq> >::max_size, COMDAT
; _this$ = ecx

; 884  : 		return (this->_Alval.max_size());

  00000	b8 ff ff ff 07	 mov	 eax, 134217727		; 07ffffffH

; 885  : 		}

  00005	c3		 ret	 0
?max_size@?$vector@UtagBaseCharDistanceSq@@V?$allocator@UtagBaseCharDistanceSq@@@std@@@std@@QBEIXZ ENDP ; std::vector<tagBaseCharDistanceSq,std::allocator<tagBaseCharDistanceSq> >::max_size
_TEXT	ENDS
PUBLIC	?_Grow_to@?$vector@UtagBaseCharDistanceSq@@V?$allocator@UtagBaseCharDistanceSq@@@std@@@std@@IBEII@Z ; std::vector<tagBaseCharDistanceSq,std::allocator<tagBaseCharDistanceSq> >::_Grow_to
; Function compile flags: /Ogsp
;	COMDAT ?_Grow_to@?$vector@UtagBaseCharDistanceSq@@V?$allocator@UtagBaseCharDistanceSq@@@std@@@std@@IBEII@Z
_TEXT	SEGMENT
__Count$ = 8						; size = 4
?_Grow_to@?$vector@UtagBaseCharDistanceSq@@V?$allocator@UtagBaseCharDistanceSq@@@std@@@std@@IBEII@Z PROC ; std::vector<tagBaseCharDistanceSq,std::allocator<tagBaseCharDistanceSq> >::_Grow_to, COMDAT
; _this$ = ecx

; 1274 : 		{	// grow by 50% or at least to _Count

  00000	55		 push	 ebp
  00001	8b ec		 mov	 ebp, esp

; 1275 : 		size_type _Capacity = capacity();

  00003	8b 41 08	 mov	 eax, DWORD PTR [ecx+8]
  00006	2b 01		 sub	 eax, DWORD PTR [ecx]

; 1276 : 
; 1277 : 		_Capacity = max_size() - _Capacity / 2 < _Capacity
; 1278 : 			? 0 : _Capacity + _Capacity / 2;	// try to grow by 50%

  00008	ba ff ff ff 07	 mov	 edx, 134217727		; 07ffffffH
  0000d	c1 f8 05	 sar	 eax, 5
  00010	8b c8		 mov	 ecx, eax
  00012	d1 e9		 shr	 ecx, 1
  00014	2b d1		 sub	 edx, ecx
  00016	3b d0		 cmp	 edx, eax
  00018	73 04		 jae	 SHORT $LN4@Grow_to
  0001a	33 c0		 xor	 eax, eax
  0001c	eb 02		 jmp	 SHORT $LN5@Grow_to
$LN4@Grow_to:
  0001e	03 c1		 add	 eax, ecx
$LN5@Grow_to:

; 1279 : 		if (_Capacity < _Count)

  00020	3b 45 08	 cmp	 eax, DWORD PTR __Count$[ebp]

; 1280 : 			_Capacity = _Count;

  00023	0f 42 45 08	 cmovb	 eax, DWORD PTR __Count$[ebp]

; 1281 : 		return (_Capacity);
; 1282 : 		}

  00027	5d		 pop	 ebp
  00028	c2 04 00	 ret	 4
?_Grow_to@?$vector@UtagBaseCharDistanceSq@@V?$allocator@UtagBaseCharDistanceSq@@@std@@@std@@IBEII@Z ENDP ; std::vector<tagBaseCharDistanceSq,std::allocator<tagBaseCharDistanceSq> >::_Grow_to
_TEXT	ENDS
PUBLIC	?allocate@?$allocator@UtagBaseCharDistanceSq@@@std@@QAEPAUtagBaseCharDistanceSq@@I@Z ; std::allocator<tagBaseCharDistanceSq>::allocate
; Function compile flags: /Ogsp
; File c:\program files (x86)\microsoft visual studio 10.0\vc\include\xmemory
;	COMDAT ?allocate@?$allocator@UtagBaseCharDistanceSq@@@std@@QAEPAUtagBaseCharDistanceSq@@I@Z
_TEXT	SEGMENT
__Count$ = 8						; size = 4
?allocate@?$allocator@UtagBaseCharDistanceSq@@@std@@QAEPAUtagBaseCharDistanceSq@@I@Z PROC ; std::allocator<tagBaseCharDistanceSq>::allocate, COMDAT
; _this$ = ecx

; 186  : 		{	// allocate array of _Count elements

  00000	55		 push	 ebp
  00001	8b ec		 mov	 ebp, esp

; 187  : 		return (_Allocate(_Count, (pointer)0));

  00003	6a 00		 push	 0
  00005	ff 75 08	 push	 DWORD PTR __Count$[ebp]
  00008	e8 00 00 00 00	 call	 ??$_Allocate@UtagBaseCharDistanceSq@@@std@@YAPAUtagBaseCharDistanceSq@@IPAU1@@Z ; std::_Allocate<tagBaseCharDistanceSq>
  0000d	59		 pop	 ecx
  0000e	59		 pop	 ecx

; 188  : 		}

  0000f	5d		 pop	 ebp
  00010	c2 04 00	 ret	 4
?allocate@?$allocator@UtagBaseCharDistanceSq@@@std@@QAEPAUtagBaseCharDistanceSq@@I@Z ENDP ; std::allocator<tagBaseCharDistanceSq>::allocate
_TEXT	ENDS
PUBLIC	__$ArrayPad$
PUBLIC	??$LoadInt_e@$0BC@@ioINILoader@@QAEHAAY0BC@$$CBDH@Z ; ioINILoader::LoadInt_e<18>
EXTRN	__imp_?LoadInt@ioINILoader@@QAEHPBDH@Z:PROC
; Function compile flags: /Ogsp
; File d:\lost saga for developer\youtube\tutorial\source\src\io3dengine\ioiniloader.h
;	COMDAT ??$LoadInt_e@$0BC@@ioINILoader@@QAEHAAY0BC@$$CBDH@Z
_TEXT	SEGMENT
__k$ = -28						; size = 18
__$ArrayPad$ = -4					; size = 4
_k$ = 8							; size = 4
_i$ = 12						; size = 4
??$LoadInt_e@$0BC@@ioINILoader@@QAEHAAY0BC@$$CBDH@Z PROC ; ioINILoader::LoadInt_e<18>, COMDAT
; _this$ = ecx

; 118  : 	{

  00000	55		 push	 ebp
  00001	8b ec		 mov	 ebp, esp
  00003	83 ec 1c	 sub	 esp, 28			; 0000001cH
  00006	a1 00 00 00 00	 mov	 eax, DWORD PTR ___security_cookie
  0000b	33 c5		 xor	 eax, ebp
  0000d	89 45 fc	 mov	 DWORD PTR __$ArrayPad$[ebp], eax
  00010	8b 45 08	 mov	 eax, DWORD PTR _k$[ebp]

; 119  : 		_ENCSTR(k, _k);

  00013	8a 10		 mov	 dl, BYTE PTR [eax]
  00015	56		 push	 esi
  00016	8b f1		 mov	 esi, ecx
  00018	84 d2		 test	 dl, dl
  0001a	0f 84 be 01 00
	00		 je	 $LN96@LoadInt_e
  00020	80 f2 ed	 xor	 dl, -19			; ffffffedH
  00023	88 55 e4	 mov	 BYTE PTR __k$[ebp], dl
  00026	8a 50 01	 mov	 dl, BYTE PTR [eax+1]
  00029	84 d2		 test	 dl, dl
  0002b	0f 84 a7 01 00
	00		 je	 $LN95@LoadInt_e
  00031	80 f2 ec	 xor	 dl, -20			; ffffffecH
  00034	88 55 e5	 mov	 BYTE PTR __k$[ebp+1], dl
  00037	8a 50 02	 mov	 dl, BYTE PTR [eax+2]
  0003a	84 d2		 test	 dl, dl
  0003c	0f 84 90 01 00
	00		 je	 $LN94@LoadInt_e
  00042	b1 eb		 mov	 cl, -21			; ffffffebH
  00044	32 d1		 xor	 dl, cl
  00046	88 55 e6	 mov	 BYTE PTR __k$[ebp+2], dl
  00049	8a 50 03	 mov	 dl, BYTE PTR [eax+3]
  0004c	84 d2		 test	 dl, dl
  0004e	0f 84 78 01 00
	00		 je	 $LN93@LoadInt_e
  00054	80 f2 ea	 xor	 dl, -22			; ffffffeaH
  00057	88 55 e7	 mov	 BYTE PTR __k$[ebp+3], dl
  0005a	8a 50 04	 mov	 dl, BYTE PTR [eax+4]
  0005d	84 d2		 test	 dl, dl
  0005f	0f 84 61 01 00
	00		 je	 $LN92@LoadInt_e
  00065	80 f2 ed	 xor	 dl, -19			; ffffffedH
  00068	88 55 e8	 mov	 BYTE PTR __k$[ebp+4], dl
  0006b	8a 50 05	 mov	 dl, BYTE PTR [eax+5]
  0006e	84 d2		 test	 dl, dl
  00070	0f 84 4a 01 00
	00		 je	 $LN91@LoadInt_e
  00076	80 f2 ec	 xor	 dl, -20			; ffffffecH
  00079	88 55 e9	 mov	 BYTE PTR __k$[ebp+5], dl
  0007c	8a 50 06	 mov	 dl, BYTE PTR [eax+6]
  0007f	84 d2		 test	 dl, dl
  00081	0f 84 34 01 00
	00		 je	 $LN90@LoadInt_e
  00087	32 d1		 xor	 dl, cl
  00089	88 55 ea	 mov	 BYTE PTR __k$[ebp+6], dl
  0008c	8a 50 07	 mov	 dl, BYTE PTR [eax+7]
  0008f	84 d2		 test	 dl, dl
  00091	0f 84 1e 01 00
	00		 je	 $LN89@LoadInt_e
  00097	80 f2 ea	 xor	 dl, -22			; ffffffeaH
  0009a	88 55 eb	 mov	 BYTE PTR __k$[ebp+7], dl
  0009d	8a 50 08	 mov	 dl, BYTE PTR [eax+8]
  000a0	84 d2		 test	 dl, dl
  000a2	0f 84 07 01 00
	00		 je	 $LN88@LoadInt_e
  000a8	80 f2 ed	 xor	 dl, -19			; ffffffedH
  000ab	88 55 ec	 mov	 BYTE PTR __k$[ebp+8], dl
  000ae	8a 50 09	 mov	 dl, BYTE PTR [eax+9]
  000b1	84 d2		 test	 dl, dl
  000b3	0f 84 f0 00 00
	00		 je	 $LN87@LoadInt_e
  000b9	80 f2 ec	 xor	 dl, -20			; ffffffecH
  000bc	88 55 ed	 mov	 BYTE PTR __k$[ebp+9], dl
  000bf	8a 50 0a	 mov	 dl, BYTE PTR [eax+10]
  000c2	84 d2		 test	 dl, dl
  000c4	0f 84 da 00 00
	00		 je	 $LN86@LoadInt_e
  000ca	32 d1		 xor	 dl, cl
  000cc	88 55 ee	 mov	 BYTE PTR __k$[ebp+10], dl
  000cf	8a 50 0b	 mov	 dl, BYTE PTR [eax+11]
  000d2	84 d2		 test	 dl, dl
  000d4	0f 84 c4 00 00
	00		 je	 $LN85@LoadInt_e
  000da	80 f2 ea	 xor	 dl, -22			; ffffffeaH
  000dd	88 55 ef	 mov	 BYTE PTR __k$[ebp+11], dl
  000e0	8a 50 0c	 mov	 dl, BYTE PTR [eax+12]
  000e3	84 d2		 test	 dl, dl
  000e5	0f 84 ad 00 00
	00		 je	 $LN84@LoadInt_e
  000eb	80 f2 ed	 xor	 dl, -19			; ffffffedH
  000ee	88 55 f0	 mov	 BYTE PTR __k$[ebp+12], dl
  000f1	8a 50 0d	 mov	 dl, BYTE PTR [eax+13]
  000f4	84 d2		 test	 dl, dl
  000f6	0f 84 96 00 00
	00		 je	 $LN83@LoadInt_e
  000fc	80 f2 ec	 xor	 dl, -20			; ffffffecH
  000ff	88 55 f1	 mov	 BYTE PTR __k$[ebp+13], dl
  00102	8a 50 0e	 mov	 dl, BYTE PTR [eax+14]
  00105	84 d2		 test	 dl, dl
  00107	0f 84 80 00 00
	00		 je	 $LN82@LoadInt_e
  0010d	32 d1		 xor	 dl, cl
  0010f	88 55 f2	 mov	 BYTE PTR __k$[ebp+14], dl
  00112	8a 50 0f	 mov	 dl, BYTE PTR [eax+15]
  00115	84 d2		 test	 dl, dl
  00117	74 6e		 je	 SHORT $LN81@LoadInt_e
  00119	80 f2 ea	 xor	 dl, -22			; ffffffeaH
  0011c	88 55 f3	 mov	 BYTE PTR __k$[ebp+15], dl
  0011f	8a 50 10	 mov	 dl, BYTE PTR [eax+16]
  00122	84 d2		 test	 dl, dl
  00124	74 5b		 je	 SHORT $LN80@LoadInt_e
  00126	80 f2 ed	 xor	 dl, -19			; ffffffedH
  00129	80 78 11 00	 cmp	 BYTE PTR [eax+17], 0
  0012d	88 55 f4	 mov	 BYTE PTR __k$[ebp+16], dl
  00130	0f 84 ac 00 00
	00		 je	 $LN1@LoadInt_e
  00136	8a 50 12	 mov	 dl, BYTE PTR [eax+18]
  00139	84 d2		 test	 dl, dl
  0013b	74 3f		 je	 SHORT $LN78@LoadInt_e
  0013d	32 d1		 xor	 dl, cl
  0013f	88 55 f6	 mov	 BYTE PTR __k$[ebp+18], dl
  00142	8a 50 13	 mov	 dl, BYTE PTR [eax+19]
  00145	84 d2		 test	 dl, dl
  00147	74 2d		 je	 SHORT $LN77@LoadInt_e
  00149	80 f2 ea	 xor	 dl, -22			; ffffffeaH
  0014c	88 55 f7	 mov	 BYTE PTR __k$[ebp+19], dl
  0014f	8a 50 14	 mov	 dl, BYTE PTR [eax+20]
  00152	84 d2		 test	 dl, dl
  00154	74 1a		 je	 SHORT $LN76@LoadInt_e
  00156	8a 40 15	 mov	 al, BYTE PTR [eax+21]
  00159	80 f2 ed	 xor	 dl, -19			; ffffffedH
  0015c	88 55 f8	 mov	 BYTE PTR __k$[ebp+20], dl
  0015f	84 c0		 test	 al, al
  00161	74 07		 je	 SHORT $LN75@LoadInt_e
  00163	34 ec		 xor	 al, -20			; ffffffecH
  00165	88 45 f9	 mov	 BYTE PTR __k$[ebp+21], al
  00168	eb 78		 jmp	 SHORT $LN1@LoadInt_e
$LN75@LoadInt_e:
  0016a	c6 45 f9 ec	 mov	 BYTE PTR __k$[ebp+21], -20 ; ffffffecH
  0016e	eb 72		 jmp	 SHORT $LN1@LoadInt_e
$LN76@LoadInt_e:
  00170	c6 45 f8 ed	 mov	 BYTE PTR __k$[ebp+20], -19 ; ffffffedH
  00174	eb 6c		 jmp	 SHORT $LN1@LoadInt_e
$LN77@LoadInt_e:
  00176	c6 45 f7 ea	 mov	 BYTE PTR __k$[ebp+19], -22 ; ffffffeaH
  0017a	eb 66		 jmp	 SHORT $LN1@LoadInt_e
$LN78@LoadInt_e:
  0017c	88 4d f6	 mov	 BYTE PTR __k$[ebp+18], cl
  0017f	eb 61		 jmp	 SHORT $LN1@LoadInt_e
$LN80@LoadInt_e:
  00181	c6 45 f4 ed	 mov	 BYTE PTR __k$[ebp+16], -19 ; ffffffedH
  00185	eb 5b		 jmp	 SHORT $LN1@LoadInt_e
$LN81@LoadInt_e:
  00187	c6 45 f3 ea	 mov	 BYTE PTR __k$[ebp+15], -22 ; ffffffeaH
  0018b	eb 55		 jmp	 SHORT $LN1@LoadInt_e
$LN82@LoadInt_e:
  0018d	88 4d f2	 mov	 BYTE PTR __k$[ebp+14], cl
  00190	eb 50		 jmp	 SHORT $LN1@LoadInt_e
$LN83@LoadInt_e:
  00192	c6 45 f1 ec	 mov	 BYTE PTR __k$[ebp+13], -20 ; ffffffecH
  00196	eb 4a		 jmp	 SHORT $LN1@LoadInt_e
$LN84@LoadInt_e:
  00198	c6 45 f0 ed	 mov	 BYTE PTR __k$[ebp+12], -19 ; ffffffedH
  0019c	eb 44		 jmp	 SHORT $LN1@LoadInt_e
$LN85@LoadInt_e:
  0019e	c6 45 ef ea	 mov	 BYTE PTR __k$[ebp+11], -22 ; ffffffeaH
  001a2	eb 3e		 jmp	 SHORT $LN1@LoadInt_e
$LN86@LoadInt_e:
  001a4	88 4d ee	 mov	 BYTE PTR __k$[ebp+10], cl
  001a7	eb 39		 jmp	 SHORT $LN1@LoadInt_e
$LN87@LoadInt_e:
  001a9	c6 45 ed ec	 mov	 BYTE PTR __k$[ebp+9], -20 ; ffffffecH
  001ad	eb 33		 jmp	 SHORT $LN1@LoadInt_e
$LN88@LoadInt_e:
  001af	c6 45 ec ed	 mov	 BYTE PTR __k$[ebp+8], -19 ; ffffffedH
  001b3	eb 2d		 jmp	 SHORT $LN1@LoadInt_e
$LN89@LoadInt_e:
  001b5	c6 45 eb ea	 mov	 BYTE PTR __k$[ebp+7], -22 ; ffffffeaH
  001b9	eb 27		 jmp	 SHORT $LN1@LoadInt_e
$LN90@LoadInt_e:
  001bb	88 4d ea	 mov	 BYTE PTR __k$[ebp+6], cl
  001be	eb 22		 jmp	 SHORT $LN1@LoadInt_e
$LN91@LoadInt_e:
  001c0	c6 45 e9 ec	 mov	 BYTE PTR __k$[ebp+5], -20 ; ffffffecH
  001c4	eb 1c		 jmp	 SHORT $LN1@LoadInt_e
$LN92@LoadInt_e:
  001c6	c6 45 e8 ed	 mov	 BYTE PTR __k$[ebp+4], -19 ; ffffffedH
  001ca	eb 16		 jmp	 SHORT $LN1@LoadInt_e
$LN93@LoadInt_e:
  001cc	c6 45 e7 ea	 mov	 BYTE PTR __k$[ebp+3], -22 ; ffffffeaH
  001d0	eb 10		 jmp	 SHORT $LN1@LoadInt_e
$LN94@LoadInt_e:
  001d2	c6 45 e6 eb	 mov	 BYTE PTR __k$[ebp+2], -21 ; ffffffebH
  001d6	eb 0a		 jmp	 SHORT $LN1@LoadInt_e
$LN95@LoadInt_e:
  001d8	c6 45 e5 ec	 mov	 BYTE PTR __k$[ebp+1], -20 ; ffffffecH
  001dc	eb 04		 jmp	 SHORT $LN1@LoadInt_e
$LN96@LoadInt_e:
  001de	c6 45 e4 ed	 mov	 BYTE PTR __k$[ebp], -19	; ffffffedH
$LN1@LoadInt_e:
  001e2	6a 04		 push	 4
  001e4	8d 45 e4	 lea	 eax, DWORD PTR __k$[ebp]
  001e7	c6 45 f5 00	 mov	 BYTE PTR __k$[ebp+17], 0
  001eb	5a		 pop	 edx
$LL104@LoadInt_e:
  001ec	81 30 ed ec eb
	ea		 xor	 DWORD PTR [eax], -353637139 ; eaebecedH
  001f2	83 c0 04	 add	 eax, 4
  001f5	4a		 dec	 edx
  001f6	75 f4		 jne	 SHORT $LL104@LoadInt_e

; 120  : 		return LoadInt(_k, i);

  001f8	ff 75 0c	 push	 DWORD PTR _i$[ebp]
  001fb	80 75 f4 ed	 xor	 BYTE PTR __k$[ebp+16], -19 ; ffffffedH
  001ff	8d 45 e4	 lea	 eax, DWORD PTR __k$[ebp]
  00202	50		 push	 eax
  00203	8b ce		 mov	 ecx, esi
  00205	ff 15 00 00 00
	00		 call	 DWORD PTR __imp_?LoadInt@ioINILoader@@QAEHPBDH@Z

; 121  : 	}

  0020b	8b 4d fc	 mov	 ecx, DWORD PTR __$ArrayPad$[ebp]
  0020e	33 cd		 xor	 ecx, ebp
  00210	5e		 pop	 esi
  00211	e8 00 00 00 00	 call	 @__security_check_cookie@4
  00216	c9		 leave
  00217	c2 08 00	 ret	 8
??$LoadInt_e@$0BC@@ioINILoader@@QAEHAAY0BC@$$CBDH@Z ENDP ; ioINILoader::LoadInt_e<18>
_TEXT	ENDS
PUBLIC	__$ArrayPad$
PUBLIC	??$LoadFloat_e@$0BB@@ioINILoader@@QAEMAAY0BB@$$CBDM@Z ; ioINILoader::LoadFloat_e<17>
EXTRN	__imp_?LoadFloat@ioINILoader@@QAEMPBDM@Z:PROC
; Function compile flags: /Ogsp
;	COMDAT ??$LoadFloat_e@$0BB@@ioINILoader@@QAEMAAY0BB@$$CBDM@Z
_TEXT	SEGMENT
__k$ = -28						; size = 17
__$ArrayPad$ = -4					; size = 4
_k$ = 8							; size = 4
_f$ = 12						; size = 4
??$LoadFloat_e@$0BB@@ioINILoader@@QAEMAAY0BB@$$CBDM@Z PROC ; ioINILoader::LoadFloat_e<17>, COMDAT
; _this$ = ecx

; 135  : 	{

  00000	55		 push	 ebp
  00001	8b ec		 mov	 ebp, esp
  00003	83 ec 1c	 sub	 esp, 28			; 0000001cH
  00006	a1 00 00 00 00	 mov	 eax, DWORD PTR ___security_cookie
  0000b	33 c5		 xor	 eax, ebp
  0000d	89 45 fc	 mov	 DWORD PTR __$ArrayPad$[ebp], eax
  00010	8b 45 08	 mov	 eax, DWORD PTR _k$[ebp]

; 136  : 		_ENCSTR(k, _k);

  00013	8a 10		 mov	 dl, BYTE PTR [eax]
  00015	56		 push	 esi
  00016	8b f1		 mov	 esi, ecx
  00018	84 d2		 test	 dl, dl
  0001a	0f 84 a7 01 00
	00		 je	 $LN96@LoadFloat_
  00020	80 f2 ed	 xor	 dl, -19			; ffffffedH
  00023	88 55 e4	 mov	 BYTE PTR __k$[ebp], dl
  00026	8a 50 01	 mov	 dl, BYTE PTR [eax+1]
  00029	84 d2		 test	 dl, dl
  0002b	0f 84 90 01 00
	00		 je	 $LN95@LoadFloat_
  00031	b1 ec		 mov	 cl, -20			; ffffffecH
  00033	32 d1		 xor	 dl, cl
  00035	88 55 e5	 mov	 BYTE PTR __k$[ebp+1], dl
  00038	8a 50 02	 mov	 dl, BYTE PTR [eax+2]
  0003b	84 d2		 test	 dl, dl
  0003d	0f 84 78 01 00
	00		 je	 $LN94@LoadFloat_
  00043	80 f2 eb	 xor	 dl, -21			; ffffffebH
  00046	88 55 e6	 mov	 BYTE PTR __k$[ebp+2], dl
  00049	8a 50 03	 mov	 dl, BYTE PTR [eax+3]
  0004c	84 d2		 test	 dl, dl
  0004e	0f 84 61 01 00
	00		 je	 $LN93@LoadFloat_
  00054	80 f2 ea	 xor	 dl, -22			; ffffffeaH
  00057	88 55 e7	 mov	 BYTE PTR __k$[ebp+3], dl
  0005a	8a 50 04	 mov	 dl, BYTE PTR [eax+4]
  0005d	84 d2		 test	 dl, dl
  0005f	0f 84 4a 01 00
	00		 je	 $LN92@LoadFloat_
  00065	80 f2 ed	 xor	 dl, -19			; ffffffedH
  00068	88 55 e8	 mov	 BYTE PTR __k$[ebp+4], dl
  0006b	8a 50 05	 mov	 dl, BYTE PTR [eax+5]
  0006e	84 d2		 test	 dl, dl
  00070	0f 84 34 01 00
	00		 je	 $LN91@LoadFloat_
  00076	32 d1		 xor	 dl, cl
  00078	88 55 e9	 mov	 BYTE PTR __k$[ebp+5], dl
  0007b	8a 50 06	 mov	 dl, BYTE PTR [eax+6]
  0007e	84 d2		 test	 dl, dl
  00080	0f 84 1e 01 00
	00		 je	 $LN90@LoadFloat_
  00086	80 f2 eb	 xor	 dl, -21			; ffffffebH
  00089	88 55 ea	 mov	 BYTE PTR __k$[ebp+6], dl
  0008c	8a 50 07	 mov	 dl, BYTE PTR [eax+7]
  0008f	84 d2		 test	 dl, dl
  00091	0f 84 07 01 00
	00		 je	 $LN89@LoadFloat_
  00097	80 f2 ea	 xor	 dl, -22			; ffffffeaH
  0009a	88 55 eb	 mov	 BYTE PTR __k$[ebp+7], dl
  0009d	8a 50 08	 mov	 dl, BYTE PTR [eax+8]
  000a0	84 d2		 test	 dl, dl
  000a2	0f 84 f0 00 00
	00		 je	 $LN88@LoadFloat_
  000a8	80 f2 ed	 xor	 dl, -19			; ffffffedH
  000ab	88 55 ec	 mov	 BYTE PTR __k$[ebp+8], dl
  000ae	8a 50 09	 mov	 dl, BYTE PTR [eax+9]
  000b1	84 d2		 test	 dl, dl
  000b3	0f 84 da 00 00
	00		 je	 $LN87@LoadFloat_
  000b9	32 d1		 xor	 dl, cl
  000bb	88 55 ed	 mov	 BYTE PTR __k$[ebp+9], dl
  000be	8a 50 0a	 mov	 dl, BYTE PTR [eax+10]
  000c1	84 d2		 test	 dl, dl
  000c3	0f 84 c4 00 00
	00		 je	 $LN86@LoadFloat_
  000c9	80 f2 eb	 xor	 dl, -21			; ffffffebH
  000cc	88 55 ee	 mov	 BYTE PTR __k$[ebp+10], dl
  000cf	8a 50 0b	 mov	 dl, BYTE PTR [eax+11]
  000d2	84 d2		 test	 dl, dl
  000d4	0f 84 ad 00 00
	00		 je	 $LN85@LoadFloat_
  000da	80 f2 ea	 xor	 dl, -22			; ffffffeaH
  000dd	88 55 ef	 mov	 BYTE PTR __k$[ebp+11], dl
  000e0	8a 50 0c	 mov	 dl, BYTE PTR [eax+12]
  000e3	84 d2		 test	 dl, dl
  000e5	0f 84 96 00 00
	00		 je	 $LN84@LoadFloat_
  000eb	80 f2 ed	 xor	 dl, -19			; ffffffedH
  000ee	88 55 f0	 mov	 BYTE PTR __k$[ebp+12], dl
  000f1	8a 50 0d	 mov	 dl, BYTE PTR [eax+13]
  000f4	84 d2		 test	 dl, dl
  000f6	0f 84 80 00 00
	00		 je	 $LN83@LoadFloat_
  000fc	32 d1		 xor	 dl, cl
  000fe	88 55 f1	 mov	 BYTE PTR __k$[ebp+13], dl
  00101	8a 50 0e	 mov	 dl, BYTE PTR [eax+14]
  00104	84 d2		 test	 dl, dl
  00106	74 6e		 je	 SHORT $LN82@LoadFloat_
  00108	80 f2 eb	 xor	 dl, -21			; ffffffebH
  0010b	88 55 f2	 mov	 BYTE PTR __k$[ebp+14], dl
  0010e	8a 50 0f	 mov	 dl, BYTE PTR [eax+15]
  00111	84 d2		 test	 dl, dl
  00113	74 5b		 je	 SHORT $LN81@LoadFloat_
  00115	80 f2 ea	 xor	 dl, -22			; ffffffeaH
  00118	80 78 10 00	 cmp	 BYTE PTR [eax+16], 0
  0011c	88 55 f3	 mov	 BYTE PTR __k$[ebp+15], dl
  0011f	0f 84 a6 00 00
	00		 je	 $LN1@LoadFloat_
  00125	8a 50 11	 mov	 dl, BYTE PTR [eax+17]
  00128	84 d2		 test	 dl, dl
  0012a	74 3f		 je	 SHORT $LN79@LoadFloat_
  0012c	32 d1		 xor	 dl, cl
  0012e	88 55 f5	 mov	 BYTE PTR __k$[ebp+17], dl
  00131	8a 50 12	 mov	 dl, BYTE PTR [eax+18]
  00134	84 d2		 test	 dl, dl
  00136	74 2d		 je	 SHORT $LN78@LoadFloat_
  00138	80 f2 eb	 xor	 dl, -21			; ffffffebH
  0013b	88 55 f6	 mov	 BYTE PTR __k$[ebp+18], dl
  0013e	8a 50 13	 mov	 dl, BYTE PTR [eax+19]
  00141	84 d2		 test	 dl, dl
  00143	74 1a		 je	 SHORT $LN77@LoadFloat_
  00145	8a 40 14	 mov	 al, BYTE PTR [eax+20]
  00148	80 f2 ea	 xor	 dl, -22			; ffffffeaH
  0014b	88 55 f7	 mov	 BYTE PTR __k$[ebp+19], dl
  0014e	84 c0		 test	 al, al
  00150	74 07		 je	 SHORT $LN76@LoadFloat_
  00152	34 ed		 xor	 al, -19			; ffffffedH
  00154	88 45 f8	 mov	 BYTE PTR __k$[ebp+20], al
  00157	eb 72		 jmp	 SHORT $LN1@LoadFloat_
$LN76@LoadFloat_:
  00159	c6 45 f8 ed	 mov	 BYTE PTR __k$[ebp+20], -19 ; ffffffedH
  0015d	eb 6c		 jmp	 SHORT $LN1@LoadFloat_
$LN77@LoadFloat_:
  0015f	c6 45 f7 ea	 mov	 BYTE PTR __k$[ebp+19], -22 ; ffffffeaH
  00163	eb 66		 jmp	 SHORT $LN1@LoadFloat_
$LN78@LoadFloat_:
  00165	c6 45 f6 eb	 mov	 BYTE PTR __k$[ebp+18], -21 ; ffffffebH
  00169	eb 60		 jmp	 SHORT $LN1@LoadFloat_
$LN79@LoadFloat_:
  0016b	88 4d f5	 mov	 BYTE PTR __k$[ebp+17], cl
  0016e	eb 5b		 jmp	 SHORT $LN1@LoadFloat_
$LN81@LoadFloat_:
  00170	c6 45 f3 ea	 mov	 BYTE PTR __k$[ebp+15], -22 ; ffffffeaH
  00174	eb 55		 jmp	 SHORT $LN1@LoadFloat_
$LN82@LoadFloat_:
  00176	c6 45 f2 eb	 mov	 BYTE PTR __k$[ebp+14], -21 ; ffffffebH
  0017a	eb 4f		 jmp	 SHORT $LN1@LoadFloat_
$LN83@LoadFloat_:
  0017c	88 4d f1	 mov	 BYTE PTR __k$[ebp+13], cl
  0017f	eb 4a		 jmp	 SHORT $LN1@LoadFloat_
$LN84@LoadFloat_:
  00181	c6 45 f0 ed	 mov	 BYTE PTR __k$[ebp+12], -19 ; ffffffedH
  00185	eb 44		 jmp	 SHORT $LN1@LoadFloat_
$LN85@LoadFloat_:
  00187	c6 45 ef ea	 mov	 BYTE PTR __k$[ebp+11], -22 ; ffffffeaH
  0018b	eb 3e		 jmp	 SHORT $LN1@LoadFloat_
$LN86@LoadFloat_:
  0018d	c6 45 ee eb	 mov	 BYTE PTR __k$[ebp+10], -21 ; ffffffebH
  00191	eb 38		 jmp	 SHORT $LN1@LoadFloat_
$LN87@LoadFloat_:
  00193	88 4d ed	 mov	 BYTE PTR __k$[ebp+9], cl
  00196	eb 33		 jmp	 SHORT $LN1@LoadFloat_
$LN88@LoadFloat_:
  00198	c6 45 ec ed	 mov	 BYTE PTR __k$[ebp+8], -19 ; ffffffedH
  0019c	eb 2d		 jmp	 SHORT $LN1@LoadFloat_
$LN89@LoadFloat_:
  0019e	c6 45 eb ea	 mov	 BYTE PTR __k$[ebp+7], -22 ; ffffffeaH
  001a2	eb 27		 jmp	 SHORT $LN1@LoadFloat_
$LN90@LoadFloat_:
  001a4	c6 45 ea eb	 mov	 BYTE PTR __k$[ebp+6], -21 ; ffffffebH
  001a8	eb 21		 jmp	 SHORT $LN1@LoadFloat_
$LN91@LoadFloat_:
  001aa	88 4d e9	 mov	 BYTE PTR __k$[ebp+5], cl
  001ad	eb 1c		 jmp	 SHORT $LN1@LoadFloat_
$LN92@LoadFloat_:
  001af	c6 45 e8 ed	 mov	 BYTE PTR __k$[ebp+4], -19 ; ffffffedH
  001b3	eb 16		 jmp	 SHORT $LN1@LoadFloat_
$LN93@LoadFloat_:
  001b5	c6 45 e7 ea	 mov	 BYTE PTR __k$[ebp+3], -22 ; ffffffeaH
  001b9	eb 10		 jmp	 SHORT $LN1@LoadFloat_
$LN94@LoadFloat_:
  001bb	c6 45 e6 eb	 mov	 BYTE PTR __k$[ebp+2], -21 ; ffffffebH
  001bf	eb 0a		 jmp	 SHORT $LN1@LoadFloat_
$LN95@LoadFloat_:
  001c1	c6 45 e5 ec	 mov	 BYTE PTR __k$[ebp+1], -20 ; ffffffecH
  001c5	eb 04		 jmp	 SHORT $LN1@LoadFloat_
$LN96@LoadFloat_:
  001c7	c6 45 e4 ed	 mov	 BYTE PTR __k$[ebp], -19	; ffffffedH
$LN1@LoadFloat_:
  001cb	6a 04		 push	 4
  001cd	8d 45 e4	 lea	 eax, DWORD PTR __k$[ebp]
  001d0	c6 45 f4 00	 mov	 BYTE PTR __k$[ebp+16], 0
  001d4	5a		 pop	 edx
$LL104@LoadFloat_:
  001d5	81 30 ed ec eb
	ea		 xor	 DWORD PTR [eax], -353637139 ; eaebecedH
  001db	83 c0 04	 add	 eax, 4
  001de	4a		 dec	 edx
  001df	75 f4		 jne	 SHORT $LL104@LoadFloat_

; 137  : 		return LoadFloat(_k, f);

  001e1	f3 0f 10 45 0c	 movss	 xmm0, DWORD PTR _f$[ebp]
  001e6	51		 push	 ecx
  001e7	8d 45 e4	 lea	 eax, DWORD PTR __k$[ebp]
  001ea	f3 0f 11 04 24	 movss	 DWORD PTR [esp], xmm0
  001ef	50		 push	 eax
  001f0	8b ce		 mov	 ecx, esi
  001f2	ff 15 00 00 00
	00		 call	 DWORD PTR __imp_?LoadFloat@ioINILoader@@QAEMPBDM@Z

; 138  : 	}

  001f8	8b 4d fc	 mov	 ecx, DWORD PTR __$ArrayPad$[ebp]
  001fb	33 cd		 xor	 ecx, ebp
  001fd	5e		 pop	 esi
  001fe	e8 00 00 00 00	 call	 @__security_check_cookie@4
  00203	c9		 leave
  00204	c2 08 00	 ret	 8
??$LoadFloat_e@$0BB@@ioINILoader@@QAEMAAY0BB@$$CBDM@Z ENDP ; ioINILoader::LoadFloat_e<17>
_TEXT	ENDS
PUBLIC	_this$GSCopy$
PUBLIC	__$ArrayPad$
PUBLIC	??$LoadString_e@$0BD@@ioINILoader@@QAEXAAY0BD@$$CBDAAY00$$CBDPADH@Z ; ioINILoader::LoadString_e<19>
EXTRN	__imp_?LoadStringA@ioINILoader@@QAEXPBD0PADH@Z:PROC
; Function compile flags: /Ogsp
;	COMDAT ??$LoadString_e@$0BD@@ioINILoader@@QAEXAAY0BD@$$CBDAAY00$$CBDPADH@Z
_TEXT	SEGMENT
_this$GSCopy$ = -32					; size = 4
__k$ = -28						; size = 19
__$ArrayPad$ = -4					; size = 4
_k$ = 8							; size = 4
_d$ = 12						; size = 4
_b$ = 16						; size = 4
_i$ = 20						; size = 4
??$LoadString_e@$0BD@@ioINILoader@@QAEXAAY0BD@$$CBDAAY00$$CBDPADH@Z PROC ; ioINILoader::LoadString_e<19>, COMDAT
; _this$ = ecx

; 161  : 	{

  00000	55		 push	 ebp
  00001	8b ec		 mov	 ebp, esp
  00003	83 ec 20	 sub	 esp, 32			; 00000020H
  00006	a1 00 00 00 00	 mov	 eax, DWORD PTR ___security_cookie
  0000b	33 c5		 xor	 eax, ebp
  0000d	89 45 fc	 mov	 DWORD PTR __$ArrayPad$[ebp], eax
  00010	8b 45 08	 mov	 eax, DWORD PTR _k$[ebp]

; 162  : 		_ENCSTR(k, _k);

  00013	8a 10		 mov	 dl, BYTE PTR [eax]
  00015	56		 push	 esi
  00016	8b 75 0c	 mov	 esi, DWORD PTR _d$[ebp]
  00019	57		 push	 edi
  0001a	8b 7d 10	 mov	 edi, DWORD PTR _b$[ebp]
  0001d	89 4d e0	 mov	 DWORD PTR _this$GSCopy$[ebp], ecx
  00020	84 d2		 test	 dl, dl
  00022	0f 84 cf 01 00
	00		 je	 $LN96@LoadString
  00028	80 f2 ed	 xor	 dl, -19			; ffffffedH
  0002b	88 55 e4	 mov	 BYTE PTR __k$[ebp], dl
  0002e	8a 50 01	 mov	 dl, BYTE PTR [eax+1]
  00031	84 d2		 test	 dl, dl
  00033	0f 84 b8 01 00
	00		 je	 $LN95@LoadString
  00039	b1 ec		 mov	 cl, -20			; ffffffecH
  0003b	32 d1		 xor	 dl, cl
  0003d	88 55 e5	 mov	 BYTE PTR __k$[ebp+1], dl
  00040	8a 50 02	 mov	 dl, BYTE PTR [eax+2]
  00043	84 d2		 test	 dl, dl
  00045	0f 84 a0 01 00
	00		 je	 $LN94@LoadString
  0004b	80 f2 eb	 xor	 dl, -21			; ffffffebH
  0004e	88 55 e6	 mov	 BYTE PTR __k$[ebp+2], dl
  00051	8a 50 03	 mov	 dl, BYTE PTR [eax+3]
  00054	84 d2		 test	 dl, dl
  00056	0f 84 89 01 00
	00		 je	 $LN93@LoadString
  0005c	80 f2 ea	 xor	 dl, -22			; ffffffeaH
  0005f	88 55 e7	 mov	 BYTE PTR __k$[ebp+3], dl
  00062	8a 50 04	 mov	 dl, BYTE PTR [eax+4]
  00065	84 d2		 test	 dl, dl
  00067	0f 84 72 01 00
	00		 je	 $LN92@LoadString
  0006d	80 f2 ed	 xor	 dl, -19			; ffffffedH
  00070	88 55 e8	 mov	 BYTE PTR __k$[ebp+4], dl
  00073	8a 50 05	 mov	 dl, BYTE PTR [eax+5]
  00076	84 d2		 test	 dl, dl
  00078	0f 84 5c 01 00
	00		 je	 $LN91@LoadString
  0007e	32 d1		 xor	 dl, cl
  00080	88 55 e9	 mov	 BYTE PTR __k$[ebp+5], dl
  00083	8a 50 06	 mov	 dl, BYTE PTR [eax+6]
  00086	84 d2		 test	 dl, dl
  00088	0f 84 46 01 00
	00		 je	 $LN90@LoadString
  0008e	80 f2 eb	 xor	 dl, -21			; ffffffebH
  00091	88 55 ea	 mov	 BYTE PTR __k$[ebp+6], dl
  00094	8a 50 07	 mov	 dl, BYTE PTR [eax+7]
  00097	84 d2		 test	 dl, dl
  00099	0f 84 2f 01 00
	00		 je	 $LN89@LoadString
  0009f	80 f2 ea	 xor	 dl, -22			; ffffffeaH
  000a2	88 55 eb	 mov	 BYTE PTR __k$[ebp+7], dl
  000a5	8a 50 08	 mov	 dl, BYTE PTR [eax+8]
  000a8	84 d2		 test	 dl, dl
  000aa	0f 84 18 01 00
	00		 je	 $LN88@LoadString
  000b0	80 f2 ed	 xor	 dl, -19			; ffffffedH
  000b3	88 55 ec	 mov	 BYTE PTR __k$[ebp+8], dl
  000b6	8a 50 09	 mov	 dl, BYTE PTR [eax+9]
  000b9	84 d2		 test	 dl, dl
  000bb	0f 84 02 01 00
	00		 je	 $LN87@LoadString
  000c1	32 d1		 xor	 dl, cl
  000c3	88 55 ed	 mov	 BYTE PTR __k$[ebp+9], dl
  000c6	8a 50 0a	 mov	 dl, BYTE PTR [eax+10]
  000c9	84 d2		 test	 dl, dl
  000cb	0f 84 ec 00 00
	00		 je	 $LN86@LoadString
  000d1	80 f2 eb	 xor	 dl, -21			; ffffffebH
  000d4	88 55 ee	 mov	 BYTE PTR __k$[ebp+10], dl
  000d7	8a 50 0b	 mov	 dl, BYTE PTR [eax+11]
  000da	84 d2		 test	 dl, dl
  000dc	0f 84 d5 00 00
	00		 je	 $LN85@LoadString
  000e2	80 f2 ea	 xor	 dl, -22			; ffffffeaH
  000e5	88 55 ef	 mov	 BYTE PTR __k$[ebp+11], dl
  000e8	8a 50 0c	 mov	 dl, BYTE PTR [eax+12]
  000eb	84 d2		 test	 dl, dl
  000ed	0f 84 be 00 00
	00		 je	 $LN84@LoadString
  000f3	80 f2 ed	 xor	 dl, -19			; ffffffedH
  000f6	88 55 f0	 mov	 BYTE PTR __k$[ebp+12], dl
  000f9	8a 50 0d	 mov	 dl, BYTE PTR [eax+13]
  000fc	84 d2		 test	 dl, dl
  000fe	0f 84 a8 00 00
	00		 je	 $LN83@LoadString
  00104	32 d1		 xor	 dl, cl
  00106	88 55 f1	 mov	 BYTE PTR __k$[ebp+13], dl
  00109	8a 50 0e	 mov	 dl, BYTE PTR [eax+14]
  0010c	84 d2		 test	 dl, dl
  0010e	0f 84 92 00 00
	00		 je	 $LN82@LoadString
  00114	80 f2 eb	 xor	 dl, -21			; ffffffebH
  00117	88 55 f2	 mov	 BYTE PTR __k$[ebp+14], dl
  0011a	8a 50 0f	 mov	 dl, BYTE PTR [eax+15]
  0011d	84 d2		 test	 dl, dl
  0011f	74 7f		 je	 SHORT $LN81@LoadString
  00121	80 f2 ea	 xor	 dl, -22			; ffffffeaH
  00124	88 55 f3	 mov	 BYTE PTR __k$[ebp+15], dl
  00127	8a 50 10	 mov	 dl, BYTE PTR [eax+16]
  0012a	84 d2		 test	 dl, dl
  0012c	74 6c		 je	 SHORT $LN80@LoadString
  0012e	80 f2 ed	 xor	 dl, -19			; ffffffedH
  00131	88 55 f4	 mov	 BYTE PTR __k$[ebp+16], dl
  00134	8a 50 11	 mov	 dl, BYTE PTR [eax+17]
  00137	84 d2		 test	 dl, dl
  00139	74 5a		 je	 SHORT $LN79@LoadString
  0013b	32 d1		 xor	 dl, cl
  0013d	80 78 12 00	 cmp	 BYTE PTR [eax+18], 0
  00141	88 55 f5	 mov	 BYTE PTR __k$[ebp+17], dl
  00144	0f 84 b1 00 00
	00		 je	 $LN111@LoadString
  0014a	8a 50 13	 mov	 dl, BYTE PTR [eax+19]
  0014d	84 d2		 test	 dl, dl
  0014f	74 3e		 je	 SHORT $LN77@LoadString
  00151	80 f2 ea	 xor	 dl, -22			; ffffffeaH
  00154	88 55 f7	 mov	 BYTE PTR __k$[ebp+19], dl
  00157	8a 50 14	 mov	 dl, BYTE PTR [eax+20]
  0015a	84 d2		 test	 dl, dl
  0015c	74 2b		 je	 SHORT $LN76@LoadString
  0015e	80 f2 ed	 xor	 dl, -19			; ffffffedH
  00161	88 55 f8	 mov	 BYTE PTR __k$[ebp+20], dl
  00164	8a 50 15	 mov	 dl, BYTE PTR [eax+21]
  00167	84 d2		 test	 dl, dl
  00169	74 19		 je	 SHORT $LN75@LoadString
  0016b	8a 40 16	 mov	 al, BYTE PTR [eax+22]
  0016e	32 d1		 xor	 dl, cl
  00170	88 55 f9	 mov	 BYTE PTR __k$[ebp+21], dl
  00173	84 c0		 test	 al, al
  00175	74 07		 je	 SHORT $LN74@LoadString
  00177	34 eb		 xor	 al, -21			; ffffffebH
  00179	88 45 fa	 mov	 BYTE PTR __k$[ebp+22], al
  0017c	eb 7d		 jmp	 SHORT $LN111@LoadString
$LN74@LoadString:
  0017e	c6 45 fa eb	 mov	 BYTE PTR __k$[ebp+22], -21 ; ffffffebH
  00182	eb 77		 jmp	 SHORT $LN111@LoadString
$LN75@LoadString:
  00184	88 4d f9	 mov	 BYTE PTR __k$[ebp+21], cl
  00187	eb 72		 jmp	 SHORT $LN111@LoadString
$LN76@LoadString:
  00189	c6 45 f8 ed	 mov	 BYTE PTR __k$[ebp+20], -19 ; ffffffedH
  0018d	eb 6c		 jmp	 SHORT $LN111@LoadString
$LN77@LoadString:
  0018f	c6 45 f7 ea	 mov	 BYTE PTR __k$[ebp+19], -22 ; ffffffeaH
  00193	eb 66		 jmp	 SHORT $LN111@LoadString
$LN79@LoadString:
  00195	88 4d f5	 mov	 BYTE PTR __k$[ebp+17], cl
  00198	eb 61		 jmp	 SHORT $LN111@LoadString
$LN80@LoadString:
  0019a	c6 45 f4 ed	 mov	 BYTE PTR __k$[ebp+16], -19 ; ffffffedH
  0019e	eb 5b		 jmp	 SHORT $LN111@LoadString
$LN81@LoadString:
  001a0	c6 45 f3 ea	 mov	 BYTE PTR __k$[ebp+15], -22 ; ffffffeaH
  001a4	eb 55		 jmp	 SHORT $LN111@LoadString
$LN82@LoadString:
  001a6	c6 45 f2 eb	 mov	 BYTE PTR __k$[ebp+14], -21 ; ffffffebH
  001aa	eb 4f		 jmp	 SHORT $LN111@LoadString
$LN83@LoadString:
  001ac	88 4d f1	 mov	 BYTE PTR __k$[ebp+13], cl
  001af	eb 4a		 jmp	 SHORT $LN111@LoadString
$LN84@LoadString:
  001b1	c6 45 f0 ed	 mov	 BYTE PTR __k$[ebp+12], -19 ; ffffffedH
  001b5	eb 44		 jmp	 SHORT $LN111@LoadString
$LN85@LoadString:
  001b7	c6 45 ef ea	 mov	 BYTE PTR __k$[ebp+11], -22 ; ffffffeaH
  001bb	eb 3e		 jmp	 SHORT $LN111@LoadString
$LN86@LoadString:
  001bd	c6 45 ee eb	 mov	 BYTE PTR __k$[ebp+10], -21 ; ffffffebH
  001c1	eb 38		 jmp	 SHORT $LN111@LoadString
$LN87@LoadString:
  001c3	88 4d ed	 mov	 BYTE PTR __k$[ebp+9], cl
  001c6	eb 33		 jmp	 SHORT $LN111@LoadString
$LN88@LoadString:
  001c8	c6 45 ec ed	 mov	 BYTE PTR __k$[ebp+8], -19 ; ffffffedH
  001cc	eb 2d		 jmp	 SHORT $LN111@LoadString
$LN89@LoadString:
  001ce	c6 45 eb ea	 mov	 BYTE PTR __k$[ebp+7], -22 ; ffffffeaH
  001d2	eb 27		 jmp	 SHORT $LN111@LoadString
$LN90@LoadString:
  001d4	c6 45 ea eb	 mov	 BYTE PTR __k$[ebp+6], -21 ; ffffffebH
  001d8	eb 21		 jmp	 SHORT $LN111@LoadString
$LN91@LoadString:
  001da	88 4d e9	 mov	 BYTE PTR __k$[ebp+5], cl
  001dd	eb 1c		 jmp	 SHORT $LN111@LoadString
$LN92@LoadString:
  001df	c6 45 e8 ed	 mov	 BYTE PTR __k$[ebp+4], -19 ; ffffffedH
  001e3	eb 16		 jmp	 SHORT $LN111@LoadString
$LN93@LoadString:
  001e5	c6 45 e7 ea	 mov	 BYTE PTR __k$[ebp+3], -22 ; ffffffeaH
  001e9	eb 10		 jmp	 SHORT $LN111@LoadString
$LN94@LoadString:
  001eb	c6 45 e6 eb	 mov	 BYTE PTR __k$[ebp+2], -21 ; ffffffebH
  001ef	eb 0a		 jmp	 SHORT $LN111@LoadString
$LN95@LoadString:
  001f1	c6 45 e5 ec	 mov	 BYTE PTR __k$[ebp+1], -20 ; ffffffecH
  001f5	eb 04		 jmp	 SHORT $LN111@LoadString
$LN96@LoadString:
  001f7	c6 45 e4 ed	 mov	 BYTE PTR __k$[ebp], -19	; ffffffedH
$LN111@LoadString:
  001fb	6a 04		 push	 4
  001fd	8d 45 e4	 lea	 eax, DWORD PTR __k$[ebp]
  00200	c6 45 f6 00	 mov	 BYTE PTR __k$[ebp+18], 0
  00204	5a		 pop	 edx
$LL104@LoadString:
  00205	81 30 ed ec eb
	ea		 xor	 DWORD PTR [eax], -353637139 ; eaebecedH
  0020b	83 c0 04	 add	 eax, 4
  0020e	4a		 dec	 edx
  0020f	75 f4		 jne	 SHORT $LL104@LoadString
  00211	6a 10		 push	 16			; 00000010H
  00213	58		 pop	 eax
$LL101@LoadString:
  00214	8b c8		 mov	 ecx, eax
  00216	81 e1 03 00 00
	80		 and	 ecx, -2147483645	; 80000003H
  0021c	79 05		 jns	 SHORT $LN112@LoadString
  0021e	49		 dec	 ecx
  0021f	83 c9 fc	 or	 ecx, -4			; fffffffcH
  00222	41		 inc	 ecx
$LN112@LoadString:
  00223	b2 ed		 mov	 dl, -19			; ffffffedH
  00225	2a d1		 sub	 dl, cl
  00227	30 54 05 e4	 xor	 BYTE PTR __k$[ebp+eax], dl
  0022b	40		 inc	 eax
  0022c	83 f8 12	 cmp	 eax, 18			; 00000012H
  0022f	7c e3		 jl	 SHORT $LL101@LoadString

; 163  : 		LoadString(_k, d, b, i);

  00231	ff 75 14	 push	 DWORD PTR _i$[ebp]
  00234	8b 4d e0	 mov	 ecx, DWORD PTR _this$GSCopy$[ebp]
  00237	57		 push	 edi
  00238	56		 push	 esi
  00239	8d 45 e4	 lea	 eax, DWORD PTR __k$[ebp]
  0023c	50		 push	 eax
  0023d	ff 15 00 00 00
	00		 call	 DWORD PTR __imp_?LoadStringA@ioINILoader@@QAEXPBD0PADH@Z

; 164  : 	}

  00243	8b 4d fc	 mov	 ecx, DWORD PTR __$ArrayPad$[ebp]
  00246	5f		 pop	 edi
  00247	33 cd		 xor	 ecx, ebp
  00249	5e		 pop	 esi
  0024a	e8 00 00 00 00	 call	 @__security_check_cookie@4
  0024f	c9		 leave
  00250	c2 10 00	 ret	 16			; 00000010H
??$LoadString_e@$0BD@@ioINILoader@@QAEXAAY0BD@$$CBDAAY00$$CBDPADH@Z ENDP ; ioINILoader::LoadString_e<19>
_TEXT	ENDS
PUBLIC	_this$GSCopy$
PUBLIC	__$ArrayPad$
PUBLIC	??$LoadString_e@$0BG@@ioINILoader@@QAEXAAY0BG@$$CBDAAY00$$CBDPADH@Z ; ioINILoader::LoadString_e<22>
; Function compile flags: /Ogsp
;	COMDAT ??$LoadString_e@$0BG@@ioINILoader@@QAEXAAY0BG@$$CBDAAY00$$CBDPADH@Z
_TEXT	SEGMENT
_this$GSCopy$ = -36					; size = 4
__k$ = -32						; size = 22
__$ArrayPad$ = -4					; size = 4
_k$ = 8							; size = 4
_d$ = 12						; size = 4
_b$ = 16						; size = 4
_i$ = 20						; size = 4
??$LoadString_e@$0BG@@ioINILoader@@QAEXAAY0BG@$$CBDAAY00$$CBDPADH@Z PROC ; ioINILoader::LoadString_e<22>, COMDAT
; _this$ = ecx

; 161  : 	{

  00000	55		 push	 ebp
  00001	8b ec		 mov	 ebp, esp
  00003	83 ec 24	 sub	 esp, 36			; 00000024H
  00006	a1 00 00 00 00	 mov	 eax, DWORD PTR ___security_cookie
  0000b	33 c5		 xor	 eax, ebp
  0000d	89 45 fc	 mov	 DWORD PTR __$ArrayPad$[ebp], eax
  00010	8b 45 08	 mov	 eax, DWORD PTR _k$[ebp]

; 162  : 		_ENCSTR(k, _k);

  00013	8a 10		 mov	 dl, BYTE PTR [eax]
  00015	53		 push	 ebx
  00016	56		 push	 esi
  00017	8b 75 0c	 mov	 esi, DWORD PTR _d$[ebp]
  0001a	57		 push	 edi
  0001b	8b 7d 10	 mov	 edi, DWORD PTR _b$[ebp]
  0001e	89 4d dc	 mov	 DWORD PTR _this$GSCopy$[ebp], ecx
  00021	84 d2		 test	 dl, dl
  00023	0f 84 15 02 00
	00		 je	 $LN96@LoadString@2
  00029	80 f2 ed	 xor	 dl, -19			; ffffffedH
  0002c	88 55 e0	 mov	 BYTE PTR __k$[ebp], dl
  0002f	8a 50 01	 mov	 dl, BYTE PTR [eax+1]
  00032	84 d2		 test	 dl, dl
  00034	0f 84 fe 01 00
	00		 je	 $LN95@LoadString@2
  0003a	80 f2 ec	 xor	 dl, -20			; ffffffecH
  0003d	88 55 e1	 mov	 BYTE PTR __k$[ebp+1], dl
  00040	8a 50 02	 mov	 dl, BYTE PTR [eax+2]
  00043	84 d2		 test	 dl, dl
  00045	0f 84 e7 01 00
	00		 je	 $LN94@LoadString@2
  0004b	b1 eb		 mov	 cl, -21			; ffffffebH
  0004d	32 d1		 xor	 dl, cl
  0004f	88 55 e2	 mov	 BYTE PTR __k$[ebp+2], dl
  00052	8a 50 03	 mov	 dl, BYTE PTR [eax+3]
  00055	84 d2		 test	 dl, dl
  00057	0f 84 cf 01 00
	00		 je	 $LN93@LoadString@2
  0005d	b3 ea		 mov	 bl, -22			; ffffffeaH
  0005f	32 d3		 xor	 dl, bl
  00061	88 55 e3	 mov	 BYTE PTR __k$[ebp+3], dl
  00064	8a 50 04	 mov	 dl, BYTE PTR [eax+4]
  00067	84 d2		 test	 dl, dl
  00069	0f 84 b7 01 00
	00		 je	 $LN92@LoadString@2
  0006f	80 f2 ed	 xor	 dl, -19			; ffffffedH
  00072	88 55 e4	 mov	 BYTE PTR __k$[ebp+4], dl
  00075	8a 50 05	 mov	 dl, BYTE PTR [eax+5]
  00078	84 d2		 test	 dl, dl
  0007a	0f 84 a0 01 00
	00		 je	 $LN91@LoadString@2
  00080	80 f2 ec	 xor	 dl, -20			; ffffffecH
  00083	88 55 e5	 mov	 BYTE PTR __k$[ebp+5], dl
  00086	8a 50 06	 mov	 dl, BYTE PTR [eax+6]
  00089	84 d2		 test	 dl, dl
  0008b	0f 84 8a 01 00
	00		 je	 $LN90@LoadString@2
  00091	32 d1		 xor	 dl, cl
  00093	88 55 e6	 mov	 BYTE PTR __k$[ebp+6], dl
  00096	8a 50 07	 mov	 dl, BYTE PTR [eax+7]
  00099	84 d2		 test	 dl, dl
  0009b	0f 84 75 01 00
	00		 je	 $LN89@LoadString@2
  000a1	32 d3		 xor	 dl, bl
  000a3	88 55 e7	 mov	 BYTE PTR __k$[ebp+7], dl
  000a6	8a 50 08	 mov	 dl, BYTE PTR [eax+8]
  000a9	84 d2		 test	 dl, dl
  000ab	0f 84 5f 01 00
	00		 je	 $LN88@LoadString@2
  000b1	80 f2 ed	 xor	 dl, -19			; ffffffedH
  000b4	88 55 e8	 mov	 BYTE PTR __k$[ebp+8], dl
  000b7	8a 50 09	 mov	 dl, BYTE PTR [eax+9]
  000ba	84 d2		 test	 dl, dl
  000bc	0f 84 48 01 00
	00		 je	 $LN87@LoadString@2
  000c2	80 f2 ec	 xor	 dl, -20			; ffffffecH
  000c5	88 55 e9	 mov	 BYTE PTR __k$[ebp+9], dl
  000c8	8a 50 0a	 mov	 dl, BYTE PTR [eax+10]
  000cb	84 d2		 test	 dl, dl
  000cd	0f 84 32 01 00
	00		 je	 $LN86@LoadString@2
  000d3	32 d1		 xor	 dl, cl
  000d5	88 55 ea	 mov	 BYTE PTR __k$[ebp+10], dl
  000d8	8a 50 0b	 mov	 dl, BYTE PTR [eax+11]
  000db	84 d2		 test	 dl, dl
  000dd	0f 84 1d 01 00
	00		 je	 $LN85@LoadString@2
  000e3	32 d3		 xor	 dl, bl
  000e5	88 55 eb	 mov	 BYTE PTR __k$[ebp+11], dl
  000e8	8a 50 0c	 mov	 dl, BYTE PTR [eax+12]
  000eb	84 d2		 test	 dl, dl
  000ed	0f 84 07 01 00
	00		 je	 $LN84@LoadString@2
  000f3	80 f2 ed	 xor	 dl, -19			; ffffffedH
  000f6	88 55 ec	 mov	 BYTE PTR __k$[ebp+12], dl
  000f9	8a 50 0d	 mov	 dl, BYTE PTR [eax+13]
  000fc	84 d2		 test	 dl, dl
  000fe	0f 84 f0 00 00
	00		 je	 $LN83@LoadString@2
  00104	80 f2 ec	 xor	 dl, -20			; ffffffecH
  00107	88 55 ed	 mov	 BYTE PTR __k$[ebp+13], dl
  0010a	8a 50 0e	 mov	 dl, BYTE PTR [eax+14]
  0010d	84 d2		 test	 dl, dl
  0010f	0f 84 da 00 00
	00		 je	 $LN82@LoadString@2
  00115	32 d1		 xor	 dl, cl
  00117	88 55 ee	 mov	 BYTE PTR __k$[ebp+14], dl
  0011a	8a 50 0f	 mov	 dl, BYTE PTR [eax+15]
  0011d	84 d2		 test	 dl, dl
  0011f	0f 84 c5 00 00
	00		 je	 $LN81@LoadString@2
  00125	32 d3		 xor	 dl, bl
  00127	88 55 ef	 mov	 BYTE PTR __k$[ebp+15], dl
  0012a	8a 50 10	 mov	 dl, BYTE PTR [eax+16]
  0012d	84 d2		 test	 dl, dl
  0012f	0f 84 af 00 00
	00		 je	 $LN80@LoadString@2
  00135	80 f2 ed	 xor	 dl, -19			; ffffffedH
  00138	88 55 f0	 mov	 BYTE PTR __k$[ebp+16], dl
  0013b	8a 50 11	 mov	 dl, BYTE PTR [eax+17]
  0013e	84 d2		 test	 dl, dl
  00140	0f 84 98 00 00
	00		 je	 $LN79@LoadString@2
  00146	80 f2 ec	 xor	 dl, -20			; ffffffecH
  00149	88 55 f1	 mov	 BYTE PTR __k$[ebp+17], dl
  0014c	8a 50 12	 mov	 dl, BYTE PTR [eax+18]
  0014f	84 d2		 test	 dl, dl
  00151	0f 84 82 00 00
	00		 je	 $LN78@LoadString@2
  00157	32 d1		 xor	 dl, cl
  00159	88 55 f2	 mov	 BYTE PTR __k$[ebp+18], dl
  0015c	8a 50 13	 mov	 dl, BYTE PTR [eax+19]
  0015f	84 d2		 test	 dl, dl
  00161	74 71		 je	 SHORT $LN77@LoadString@2
  00163	32 d3		 xor	 dl, bl
  00165	88 55 f3	 mov	 BYTE PTR __k$[ebp+19], dl
  00168	8a 50 14	 mov	 dl, BYTE PTR [eax+20]
  0016b	84 d2		 test	 dl, dl
  0016d	74 5f		 je	 SHORT $LN76@LoadString@2
  0016f	80 f2 ed	 xor	 dl, -19			; ffffffedH
  00172	80 78 15 00	 cmp	 BYTE PTR [eax+21], 0
  00176	88 55 f4	 mov	 BYTE PTR __k$[ebp+20], dl
  00179	0f 84 c3 00 00
	00		 je	 $LN111@LoadString@2
  0017f	8a 50 16	 mov	 dl, BYTE PTR [eax+22]
  00182	84 d2		 test	 dl, dl
  00184	74 43		 je	 SHORT $LN74@LoadString@2
  00186	32 d1		 xor	 dl, cl
  00188	88 55 f6	 mov	 BYTE PTR __k$[ebp+22], dl
  0018b	8a 50 17	 mov	 dl, BYTE PTR [eax+23]
  0018e	84 d2		 test	 dl, dl
  00190	74 32		 je	 SHORT $LN73@LoadString@2
  00192	32 d3		 xor	 dl, bl
  00194	88 55 f7	 mov	 BYTE PTR __k$[ebp+23], dl
  00197	8a 50 18	 mov	 dl, BYTE PTR [eax+24]
  0019a	84 d2		 test	 dl, dl
  0019c	74 20		 je	 SHORT $LN72@LoadString@2
  0019e	8a 40 19	 mov	 al, BYTE PTR [eax+25]
  001a1	80 f2 ed	 xor	 dl, -19			; ffffffedH
  001a4	88 55 f8	 mov	 BYTE PTR __k$[ebp+24], dl
  001a7	84 c0		 test	 al, al
  001a9	74 0a		 je	 SHORT $LN71@LoadString@2
  001ab	34 ec		 xor	 al, -20			; ffffffecH
  001ad	88 45 f9	 mov	 BYTE PTR __k$[ebp+25], al
  001b0	e9 8d 00 00 00	 jmp	 $LN111@LoadString@2
$LN71@LoadString@2:
  001b5	c6 45 f9 ec	 mov	 BYTE PTR __k$[ebp+25], -20 ; ffffffecH
  001b9	e9 84 00 00 00	 jmp	 $LN111@LoadString@2
$LN72@LoadString@2:
  001be	c6 45 f8 ed	 mov	 BYTE PTR __k$[ebp+24], -19 ; ffffffedH
  001c2	eb 7e		 jmp	 SHORT $LN111@LoadString@2
$LN73@LoadString@2:
  001c4	88 5d f7	 mov	 BYTE PTR __k$[ebp+23], bl
  001c7	eb 79		 jmp	 SHORT $LN111@LoadString@2
$LN74@LoadString@2:
  001c9	88 4d f6	 mov	 BYTE PTR __k$[ebp+22], cl
  001cc	eb 74		 jmp	 SHORT $LN111@LoadString@2
$LN76@LoadString@2:
  001ce	c6 45 f4 ed	 mov	 BYTE PTR __k$[ebp+20], -19 ; ffffffedH
  001d2	eb 6e		 jmp	 SHORT $LN111@LoadString@2
$LN77@LoadString@2:
  001d4	88 5d f3	 mov	 BYTE PTR __k$[ebp+19], bl
  001d7	eb 69		 jmp	 SHORT $LN111@LoadString@2
$LN78@LoadString@2:
  001d9	88 4d f2	 mov	 BYTE PTR __k$[ebp+18], cl
  001dc	eb 64		 jmp	 SHORT $LN111@LoadString@2
$LN79@LoadString@2:
  001de	c6 45 f1 ec	 mov	 BYTE PTR __k$[ebp+17], -20 ; ffffffecH
  001e2	eb 5e		 jmp	 SHORT $LN111@LoadString@2
$LN80@LoadString@2:
  001e4	c6 45 f0 ed	 mov	 BYTE PTR __k$[ebp+16], -19 ; ffffffedH
  001e8	eb 58		 jmp	 SHORT $LN111@LoadString@2
$LN81@LoadString@2:
  001ea	88 5d ef	 mov	 BYTE PTR __k$[ebp+15], bl
  001ed	eb 53		 jmp	 SHORT $LN111@LoadString@2
$LN82@LoadString@2:
  001ef	88 4d ee	 mov	 BYTE PTR __k$[ebp+14], cl
  001f2	eb 4e		 jmp	 SHORT $LN111@LoadString@2
$LN83@LoadString@2:
  001f4	c6 45 ed ec	 mov	 BYTE PTR __k$[ebp+13], -20 ; ffffffecH
  001f8	eb 48		 jmp	 SHORT $LN111@LoadString@2
$LN84@LoadString@2:
  001fa	c6 45 ec ed	 mov	 BYTE PTR __k$[ebp+12], -19 ; ffffffedH
  001fe	eb 42		 jmp	 SHORT $LN111@LoadString@2
$LN85@LoadString@2:
  00200	88 5d eb	 mov	 BYTE PTR __k$[ebp+11], bl
  00203	eb 3d		 jmp	 SHORT $LN111@LoadString@2
$LN86@LoadString@2:
  00205	88 4d ea	 mov	 BYTE PTR __k$[ebp+10], cl
  00208	eb 38		 jmp	 SHORT $LN111@LoadString@2
$LN87@LoadString@2:
  0020a	c6 45 e9 ec	 mov	 BYTE PTR __k$[ebp+9], -20 ; ffffffecH
  0020e	eb 32		 jmp	 SHORT $LN111@LoadString@2
$LN88@LoadString@2:
  00210	c6 45 e8 ed	 mov	 BYTE PTR __k$[ebp+8], -19 ; ffffffedH
  00214	eb 2c		 jmp	 SHORT $LN111@LoadString@2
$LN89@LoadString@2:
  00216	88 5d e7	 mov	 BYTE PTR __k$[ebp+7], bl
  00219	eb 27		 jmp	 SHORT $LN111@LoadString@2
$LN90@LoadString@2:
  0021b	88 4d e6	 mov	 BYTE PTR __k$[ebp+6], cl
  0021e	eb 22		 jmp	 SHORT $LN111@LoadString@2
$LN91@LoadString@2:
  00220	c6 45 e5 ec	 mov	 BYTE PTR __k$[ebp+5], -20 ; ffffffecH
  00224	eb 1c		 jmp	 SHORT $LN111@LoadString@2
$LN92@LoadString@2:
  00226	c6 45 e4 ed	 mov	 BYTE PTR __k$[ebp+4], -19 ; ffffffedH
  0022a	eb 16		 jmp	 SHORT $LN111@LoadString@2
$LN93@LoadString@2:
  0022c	c6 45 e3 ea	 mov	 BYTE PTR __k$[ebp+3], -22 ; ffffffeaH
  00230	eb 10		 jmp	 SHORT $LN111@LoadString@2
$LN94@LoadString@2:
  00232	c6 45 e2 eb	 mov	 BYTE PTR __k$[ebp+2], -21 ; ffffffebH
  00236	eb 0a		 jmp	 SHORT $LN111@LoadString@2
$LN95@LoadString@2:
  00238	c6 45 e1 ec	 mov	 BYTE PTR __k$[ebp+1], -20 ; ffffffecH
  0023c	eb 04		 jmp	 SHORT $LN111@LoadString@2
$LN96@LoadString@2:
  0023e	c6 45 e0 ed	 mov	 BYTE PTR __k$[ebp], -19	; ffffffedH
$LN111@LoadString@2:
  00242	6a 05		 push	 5
  00244	8d 45 e0	 lea	 eax, DWORD PTR __k$[ebp]
  00247	c6 45 f5 00	 mov	 BYTE PTR __k$[ebp+21], 0
  0024b	5a		 pop	 edx
$LL104@LoadString@2:
  0024c	81 30 ed ec eb
	ea		 xor	 DWORD PTR [eax], -353637139 ; eaebecedH
  00252	83 c0 04	 add	 eax, 4
  00255	4a		 dec	 edx
  00256	75 f4		 jne	 SHORT $LL104@LoadString@2

; 163  : 		LoadString(_k, d, b, i);

  00258	ff 75 14	 push	 DWORD PTR _i$[ebp]
  0025b	8b 4d dc	 mov	 ecx, DWORD PTR _this$GSCopy$[ebp]
  0025e	80 75 f4 ed	 xor	 BYTE PTR __k$[ebp+20], -19 ; ffffffedH
  00262	57		 push	 edi
  00263	56		 push	 esi
  00264	8d 45 e0	 lea	 eax, DWORD PTR __k$[ebp]
  00267	50		 push	 eax
  00268	ff 15 00 00 00
	00		 call	 DWORD PTR __imp_?LoadStringA@ioINILoader@@QAEXPBD0PADH@Z

; 164  : 	}

  0026e	8b 4d fc	 mov	 ecx, DWORD PTR __$ArrayPad$[ebp]
  00271	5f		 pop	 edi
  00272	5e		 pop	 esi
  00273	33 cd		 xor	 ecx, ebp
  00275	5b		 pop	 ebx
  00276	e8 00 00 00 00	 call	 @__security_check_cookie@4
  0027b	c9		 leave
  0027c	c2 10 00	 ret	 16			; 00000010H
??$LoadString_e@$0BG@@ioINILoader@@QAEXAAY0BG@$$CBDAAY00$$CBDPADH@Z ENDP ; ioINILoader::LoadString_e<22>
_TEXT	ENDS
PUBLIC	__$ArrayPad$
PUBLIC	??$LoadBool_e@$0BM@@ioINILoader@@QAE_NAAY0BM@$$CBD_N@Z ; ioINILoader::LoadBool_e<28>
EXTRN	__imp_?LoadBool@ioINILoader@@QAE_NPBD_N@Z:PROC
; Function compile flags: /Ogsp
;	COMDAT ??$LoadBool_e@$0BM@@ioINILoader@@QAE_NAAY0BM@$$CBD_N@Z
_TEXT	SEGMENT
__k$ = -36						; size = 28
__$ArrayPad$ = -4					; size = 4
_k$ = 8							; size = 4
_b$ = 12						; size = 1
??$LoadBool_e@$0BM@@ioINILoader@@QAE_NAAY0BM@$$CBD_N@Z PROC ; ioINILoader::LoadBool_e<28>, COMDAT
; _this$ = ecx

; 101  : 	{

  00000	55		 push	 ebp
  00001	8b ec		 mov	 ebp, esp
  00003	83 ec 24	 sub	 esp, 36			; 00000024H
  00006	a1 00 00 00 00	 mov	 eax, DWORD PTR ___security_cookie
  0000b	33 c5		 xor	 eax, ebp
  0000d	89 45 fc	 mov	 DWORD PTR __$ArrayPad$[ebp], eax
  00010	8b 45 08	 mov	 eax, DWORD PTR _k$[ebp]

; 102  : 		_ENCSTR(k, _k);

  00013	8a 10		 mov	 dl, BYTE PTR [eax]
  00015	53		 push	 ebx
  00016	56		 push	 esi
  00017	8b f1		 mov	 esi, ecx
  00019	84 d2		 test	 dl, dl
  0001b	0f 84 a9 02 00
	00		 je	 $LN96@LoadBool_e
  00021	80 f2 ed	 xor	 dl, -19			; ffffffedH
  00024	88 55 dc	 mov	 BYTE PTR __k$[ebp], dl
  00027	8a 50 01	 mov	 dl, BYTE PTR [eax+1]
  0002a	84 d2		 test	 dl, dl
  0002c	0f 84 92 02 00
	00		 je	 $LN95@LoadBool_e
  00032	b3 ec		 mov	 bl, -20			; ffffffecH
  00034	32 d3		 xor	 dl, bl
  00036	88 55 dd	 mov	 BYTE PTR __k$[ebp+1], dl
  00039	8a 50 02	 mov	 dl, BYTE PTR [eax+2]
  0003c	84 d2		 test	 dl, dl
  0003e	0f 84 7a 02 00
	00		 je	 $LN94@LoadBool_e
  00044	b1 eb		 mov	 cl, -21			; ffffffebH
  00046	32 d1		 xor	 dl, cl
  00048	88 55 de	 mov	 BYTE PTR __k$[ebp+2], dl
  0004b	8a 50 03	 mov	 dl, BYTE PTR [eax+3]
  0004e	84 d2		 test	 dl, dl
  00050	0f 84 62 02 00
	00		 je	 $LN93@LoadBool_e
  00056	80 f2 ea	 xor	 dl, -22			; ffffffeaH
  00059	88 55 df	 mov	 BYTE PTR __k$[ebp+3], dl
  0005c	8a 50 04	 mov	 dl, BYTE PTR [eax+4]
  0005f	84 d2		 test	 dl, dl
  00061	0f 84 4b 02 00
	00		 je	 $LN92@LoadBool_e
  00067	80 f2 ed	 xor	 dl, -19			; ffffffedH
  0006a	88 55 e0	 mov	 BYTE PTR __k$[ebp+4], dl
  0006d	8a 50 05	 mov	 dl, BYTE PTR [eax+5]
  00070	84 d2		 test	 dl, dl
  00072	0f 84 35 02 00
	00		 je	 $LN91@LoadBool_e
  00078	32 d3		 xor	 dl, bl
  0007a	88 55 e1	 mov	 BYTE PTR __k$[ebp+5], dl
  0007d	8a 50 06	 mov	 dl, BYTE PTR [eax+6]
  00080	84 d2		 test	 dl, dl
  00082	0f 84 20 02 00
	00		 je	 $LN90@LoadBool_e
  00088	32 d1		 xor	 dl, cl
  0008a	88 55 e2	 mov	 BYTE PTR __k$[ebp+6], dl
  0008d	8a 50 07	 mov	 dl, BYTE PTR [eax+7]
  00090	84 d2		 test	 dl, dl
  00092	0f 84 0a 02 00
	00		 je	 $LN89@LoadBool_e
  00098	80 f2 ea	 xor	 dl, -22			; ffffffeaH
  0009b	88 55 e3	 mov	 BYTE PTR __k$[ebp+7], dl
  0009e	8a 50 08	 mov	 dl, BYTE PTR [eax+8]
  000a1	84 d2		 test	 dl, dl
  000a3	0f 84 f3 01 00
	00		 je	 $LN88@LoadBool_e
  000a9	80 f2 ed	 xor	 dl, -19			; ffffffedH
  000ac	88 55 e4	 mov	 BYTE PTR __k$[ebp+8], dl
  000af	8a 50 09	 mov	 dl, BYTE PTR [eax+9]
  000b2	84 d2		 test	 dl, dl
  000b4	0f 84 dd 01 00
	00		 je	 $LN87@LoadBool_e
  000ba	32 d3		 xor	 dl, bl
  000bc	88 55 e5	 mov	 BYTE PTR __k$[ebp+9], dl
  000bf	8a 50 0a	 mov	 dl, BYTE PTR [eax+10]
  000c2	84 d2		 test	 dl, dl
  000c4	0f 84 c8 01 00
	00		 je	 $LN86@LoadBool_e
  000ca	32 d1		 xor	 dl, cl
  000cc	88 55 e6	 mov	 BYTE PTR __k$[ebp+10], dl
  000cf	8a 50 0b	 mov	 dl, BYTE PTR [eax+11]
  000d2	84 d2		 test	 dl, dl
  000d4	0f 84 b2 01 00
	00		 je	 $LN85@LoadBool_e
  000da	80 f2 ea	 xor	 dl, -22			; ffffffeaH
  000dd	88 55 e7	 mov	 BYTE PTR __k$[ebp+11], dl
  000e0	8a 50 0c	 mov	 dl, BYTE PTR [eax+12]
  000e3	84 d2		 test	 dl, dl
  000e5	0f 84 9b 01 00
	00		 je	 $LN84@LoadBool_e
  000eb	80 f2 ed	 xor	 dl, -19			; ffffffedH
  000ee	88 55 e8	 mov	 BYTE PTR __k$[ebp+12], dl
  000f1	8a 50 0d	 mov	 dl, BYTE PTR [eax+13]
  000f4	84 d2		 test	 dl, dl
  000f6	0f 84 85 01 00
	00		 je	 $LN83@LoadBool_e
  000fc	32 d3		 xor	 dl, bl
  000fe	88 55 e9	 mov	 BYTE PTR __k$[ebp+13], dl
  00101	8a 50 0e	 mov	 dl, BYTE PTR [eax+14]
  00104	84 d2		 test	 dl, dl
  00106	0f 84 70 01 00
	00		 je	 $LN82@LoadBool_e
  0010c	32 d1		 xor	 dl, cl
  0010e	88 55 ea	 mov	 BYTE PTR __k$[ebp+14], dl
  00111	8a 50 0f	 mov	 dl, BYTE PTR [eax+15]
  00114	84 d2		 test	 dl, dl
  00116	0f 84 5a 01 00
	00		 je	 $LN81@LoadBool_e
  0011c	80 f2 ea	 xor	 dl, -22			; ffffffeaH
  0011f	88 55 eb	 mov	 BYTE PTR __k$[ebp+15], dl
  00122	8a 50 10	 mov	 dl, BYTE PTR [eax+16]
  00125	84 d2		 test	 dl, dl
  00127	0f 84 43 01 00
	00		 je	 $LN80@LoadBool_e
  0012d	80 f2 ed	 xor	 dl, -19			; ffffffedH
  00130	88 55 ec	 mov	 BYTE PTR __k$[ebp+16], dl
  00133	8a 50 11	 mov	 dl, BYTE PTR [eax+17]
  00136	84 d2		 test	 dl, dl
  00138	0f 84 2d 01 00
	00		 je	 $LN79@LoadBool_e
  0013e	32 d3		 xor	 dl, bl
  00140	88 55 ed	 mov	 BYTE PTR __k$[ebp+17], dl
  00143	8a 50 12	 mov	 dl, BYTE PTR [eax+18]
  00146	84 d2		 test	 dl, dl
  00148	0f 84 18 01 00
	00		 je	 $LN78@LoadBool_e
  0014e	32 d1		 xor	 dl, cl
  00150	88 55 ee	 mov	 BYTE PTR __k$[ebp+18], dl
  00153	8a 50 13	 mov	 dl, BYTE PTR [eax+19]
  00156	84 d2		 test	 dl, dl
  00158	0f 84 02 01 00
	00		 je	 $LN77@LoadBool_e
  0015e	80 f2 ea	 xor	 dl, -22			; ffffffeaH
  00161	88 55 ef	 mov	 BYTE PTR __k$[ebp+19], dl
  00164	8a 50 14	 mov	 dl, BYTE PTR [eax+20]
  00167	84 d2		 test	 dl, dl
  00169	0f 84 eb 00 00
	00		 je	 $LN76@LoadBool_e
  0016f	80 f2 ed	 xor	 dl, -19			; ffffffedH
  00172	88 55 f0	 mov	 BYTE PTR __k$[ebp+20], dl
  00175	8a 50 15	 mov	 dl, BYTE PTR [eax+21]
  00178	84 d2		 test	 dl, dl
  0017a	0f 84 d5 00 00
	00		 je	 $LN75@LoadBool_e
  00180	32 d3		 xor	 dl, bl
  00182	88 55 f1	 mov	 BYTE PTR __k$[ebp+21], dl
  00185	8a 50 16	 mov	 dl, BYTE PTR [eax+22]
  00188	84 d2		 test	 dl, dl
  0018a	0f 84 c0 00 00
	00		 je	 $LN74@LoadBool_e
  00190	32 d1		 xor	 dl, cl
  00192	88 55 f2	 mov	 BYTE PTR __k$[ebp+22], dl
  00195	8a 50 17	 mov	 dl, BYTE PTR [eax+23]
  00198	84 d2		 test	 dl, dl
  0019a	0f 84 aa 00 00
	00		 je	 $LN73@LoadBool_e
  001a0	80 f2 ea	 xor	 dl, -22			; ffffffeaH
  001a3	88 55 f3	 mov	 BYTE PTR __k$[ebp+23], dl
  001a6	8a 50 18	 mov	 dl, BYTE PTR [eax+24]
  001a9	84 d2		 test	 dl, dl
  001ab	0f 84 90 00 00
	00		 je	 $LN72@LoadBool_e
  001b1	80 f2 ed	 xor	 dl, -19			; ffffffedH
  001b4	88 55 f4	 mov	 BYTE PTR __k$[ebp+24], dl
  001b7	8a 50 19	 mov	 dl, BYTE PTR [eax+25]
  001ba	84 d2		 test	 dl, dl
  001bc	74 7b		 je	 SHORT $LN71@LoadBool_e
  001be	32 d3		 xor	 dl, bl
  001c0	88 55 f5	 mov	 BYTE PTR __k$[ebp+25], dl
  001c3	8a 50 1a	 mov	 dl, BYTE PTR [eax+26]
  001c6	84 d2		 test	 dl, dl
  001c8	74 67		 je	 SHORT $LN70@LoadBool_e
  001ca	32 d1		 xor	 dl, cl
  001cc	80 78 1b 00	 cmp	 BYTE PTR [eax+27], 0
  001d0	88 55 f6	 mov	 BYTE PTR __k$[ebp+26], dl
  001d3	0f 84 f5 00 00
	00		 je	 $LN1@LoadBool_e
  001d9	8a 50 1c	 mov	 dl, BYTE PTR [eax+28]
  001dc	84 d2		 test	 dl, dl
  001de	74 48		 je	 SHORT $LN68@LoadBool_e
  001e0	80 f2 ed	 xor	 dl, -19			; ffffffedH
  001e3	88 55 f8	 mov	 BYTE PTR __k$[ebp+28], dl
  001e6	8a 50 1d	 mov	 dl, BYTE PTR [eax+29]
  001e9	84 d2		 test	 dl, dl
  001eb	74 33		 je	 SHORT $LN67@LoadBool_e
  001ed	32 d3		 xor	 dl, bl
  001ef	88 55 f9	 mov	 BYTE PTR __k$[ebp+29], dl
  001f2	8a 50 1e	 mov	 dl, BYTE PTR [eax+30]
  001f5	84 d2		 test	 dl, dl
  001f7	74 1f		 je	 SHORT $LN66@LoadBool_e
  001f9	8a 40 1f	 mov	 al, BYTE PTR [eax+31]
  001fc	32 d1		 xor	 dl, cl
  001fe	88 55 fa	 mov	 BYTE PTR __k$[ebp+30], dl
  00201	84 c0		 test	 al, al
  00203	74 0a		 je	 SHORT $LN65@LoadBool_e
  00205	34 ea		 xor	 al, -22			; ffffffeaH
  00207	88 45 fb	 mov	 BYTE PTR __k$[ebp+31], al
  0020a	e9 bf 00 00 00	 jmp	 $LN1@LoadBool_e
$LN65@LoadBool_e:
  0020f	c6 45 fb ea	 mov	 BYTE PTR __k$[ebp+31], -22 ; ffffffeaH
  00213	e9 b6 00 00 00	 jmp	 $LN1@LoadBool_e
$LN66@LoadBool_e:
  00218	88 4d fa	 mov	 BYTE PTR __k$[ebp+30], cl
  0021b	e9 ae 00 00 00	 jmp	 $LN1@LoadBool_e
$LN67@LoadBool_e:
  00220	88 5d f9	 mov	 BYTE PTR __k$[ebp+29], bl
  00223	e9 a6 00 00 00	 jmp	 $LN1@LoadBool_e
$LN68@LoadBool_e:
  00228	c6 45 f8 ed	 mov	 BYTE PTR __k$[ebp+28], -19 ; ffffffedH
  0022c	e9 9d 00 00 00	 jmp	 $LN1@LoadBool_e
$LN70@LoadBool_e:
  00231	88 4d f6	 mov	 BYTE PTR __k$[ebp+26], cl
  00234	e9 95 00 00 00	 jmp	 $LN1@LoadBool_e
$LN71@LoadBool_e:
  00239	88 5d f5	 mov	 BYTE PTR __k$[ebp+25], bl
  0023c	e9 8d 00 00 00	 jmp	 $LN1@LoadBool_e
$LN72@LoadBool_e:
  00241	c6 45 f4 ed	 mov	 BYTE PTR __k$[ebp+24], -19 ; ffffffedH
  00245	e9 84 00 00 00	 jmp	 $LN1@LoadBool_e
$LN73@LoadBool_e:
  0024a	c6 45 f3 ea	 mov	 BYTE PTR __k$[ebp+23], -22 ; ffffffeaH
  0024e	eb 7e		 jmp	 SHORT $LN1@LoadBool_e
$LN74@LoadBool_e:
  00250	88 4d f2	 mov	 BYTE PTR __k$[ebp+22], cl
  00253	eb 79		 jmp	 SHORT $LN1@LoadBool_e
$LN75@LoadBool_e:
  00255	88 5d f1	 mov	 BYTE PTR __k$[ebp+21], bl
  00258	eb 74		 jmp	 SHORT $LN1@LoadBool_e
$LN76@LoadBool_e:
  0025a	c6 45 f0 ed	 mov	 BYTE PTR __k$[ebp+20], -19 ; ffffffedH
  0025e	eb 6e		 jmp	 SHORT $LN1@LoadBool_e
$LN77@LoadBool_e:
  00260	c6 45 ef ea	 mov	 BYTE PTR __k$[ebp+19], -22 ; ffffffeaH
  00264	eb 68		 jmp	 SHORT $LN1@LoadBool_e
$LN78@LoadBool_e:
  00266	88 4d ee	 mov	 BYTE PTR __k$[ebp+18], cl
  00269	eb 63		 jmp	 SHORT $LN1@LoadBool_e
$LN79@LoadBool_e:
  0026b	88 5d ed	 mov	 BYTE PTR __k$[ebp+17], bl
  0026e	eb 5e		 jmp	 SHORT $LN1@LoadBool_e
$LN80@LoadBool_e:
  00270	c6 45 ec ed	 mov	 BYTE PTR __k$[ebp+16], -19 ; ffffffedH
  00274	eb 58		 jmp	 SHORT $LN1@LoadBool_e
$LN81@LoadBool_e:
  00276	c6 45 eb ea	 mov	 BYTE PTR __k$[ebp+15], -22 ; ffffffeaH
  0027a	eb 52		 jmp	 SHORT $LN1@LoadBool_e
$LN82@LoadBool_e:
  0027c	88 4d ea	 mov	 BYTE PTR __k$[ebp+14], cl
  0027f	eb 4d		 jmp	 SHORT $LN1@LoadBool_e
$LN83@LoadBool_e:
  00281	88 5d e9	 mov	 BYTE PTR __k$[ebp+13], bl
  00284	eb 48		 jmp	 SHORT $LN1@LoadBool_e
$LN84@LoadBool_e:
  00286	c6 45 e8 ed	 mov	 BYTE PTR __k$[ebp+12], -19 ; ffffffedH
  0028a	eb 42		 jmp	 SHORT $LN1@LoadBool_e
$LN85@LoadBool_e:
  0028c	c6 45 e7 ea	 mov	 BYTE PTR __k$[ebp+11], -22 ; ffffffeaH
  00290	eb 3c		 jmp	 SHORT $LN1@LoadBool_e
$LN86@LoadBool_e:
  00292	88 4d e6	 mov	 BYTE PTR __k$[ebp+10], cl
  00295	eb 37		 jmp	 SHORT $LN1@LoadBool_e
$LN87@LoadBool_e:
  00297	88 5d e5	 mov	 BYTE PTR __k$[ebp+9], bl
  0029a	eb 32		 jmp	 SHORT $LN1@LoadBool_e
$LN88@LoadBool_e:
  0029c	c6 45 e4 ed	 mov	 BYTE PTR __k$[ebp+8], -19 ; ffffffedH
  002a0	eb 2c		 jmp	 SHORT $LN1@LoadBool_e
$LN89@LoadBool_e:
  002a2	c6 45 e3 ea	 mov	 BYTE PTR __k$[ebp+7], -22 ; ffffffeaH
  002a6	eb 26		 jmp	 SHORT $LN1@LoadBool_e
$LN90@LoadBool_e:
  002a8	88 4d e2	 mov	 BYTE PTR __k$[ebp+6], cl
  002ab	eb 21		 jmp	 SHORT $LN1@LoadBool_e
$LN91@LoadBool_e:
  002ad	88 5d e1	 mov	 BYTE PTR __k$[ebp+5], bl
  002b0	eb 1c		 jmp	 SHORT $LN1@LoadBool_e
$LN92@LoadBool_e:
  002b2	c6 45 e0 ed	 mov	 BYTE PTR __k$[ebp+4], -19 ; ffffffedH
  002b6	eb 16		 jmp	 SHORT $LN1@LoadBool_e
$LN93@LoadBool_e:
  002b8	c6 45 df ea	 mov	 BYTE PTR __k$[ebp+3], -22 ; ffffffeaH
  002bc	eb 10		 jmp	 SHORT $LN1@LoadBool_e
$LN94@LoadBool_e:
  002be	c6 45 de eb	 mov	 BYTE PTR __k$[ebp+2], -21 ; ffffffebH
  002c2	eb 0a		 jmp	 SHORT $LN1@LoadBool_e
$LN95@LoadBool_e:
  002c4	c6 45 dd ec	 mov	 BYTE PTR __k$[ebp+1], -20 ; ffffffecH
  002c8	eb 04		 jmp	 SHORT $LN1@LoadBool_e
$LN96@LoadBool_e:
  002ca	c6 45 dc ed	 mov	 BYTE PTR __k$[ebp], -19	; ffffffedH
$LN1@LoadBool_e:
  002ce	6a 06		 push	 6
  002d0	8d 45 dc	 lea	 eax, DWORD PTR __k$[ebp]
  002d3	c6 45 f7 00	 mov	 BYTE PTR __k$[ebp+27], 0
  002d7	5a		 pop	 edx
$LL104@LoadBool_e:
  002d8	81 30 ed ec eb
	ea		 xor	 DWORD PTR [eax], -353637139 ; eaebecedH
  002de	83 c0 04	 add	 eax, 4
  002e1	4a		 dec	 edx
  002e2	75 f4		 jne	 SHORT $LL104@LoadBool_e
  002e4	6a 18		 push	 24			; 00000018H
  002e6	58		 pop	 eax
$LL101@LoadBool_e:
  002e7	8b c8		 mov	 ecx, eax
  002e9	81 e1 03 00 00
	80		 and	 ecx, -2147483645	; 80000003H
  002ef	79 05		 jns	 SHORT $LN111@LoadBool_e
  002f1	49		 dec	 ecx
  002f2	83 c9 fc	 or	 ecx, -4			; fffffffcH
  002f5	41		 inc	 ecx
$LN111@LoadBool_e:
  002f6	b2 ed		 mov	 dl, -19			; ffffffedH
  002f8	2a d1		 sub	 dl, cl
  002fa	30 54 05 dc	 xor	 BYTE PTR __k$[ebp+eax], dl
  002fe	40		 inc	 eax
  002ff	83 f8 1b	 cmp	 eax, 27			; 0000001bH
  00302	7c e3		 jl	 SHORT $LL101@LoadBool_e

; 103  : 		return LoadBool(_k, b);

  00304	ff 75 0c	 push	 DWORD PTR _b$[ebp]
  00307	8d 45 dc	 lea	 eax, DWORD PTR __k$[ebp]
  0030a	50		 push	 eax
  0030b	8b ce		 mov	 ecx, esi
  0030d	ff 15 00 00 00
	00		 call	 DWORD PTR __imp_?LoadBool@ioINILoader@@QAE_NPBD_N@Z

; 104  : 	}

  00313	8b 4d fc	 mov	 ecx, DWORD PTR __$ArrayPad$[ebp]
  00316	5e		 pop	 esi
  00317	33 cd		 xor	 ecx, ebp
  00319	5b		 pop	 ebx
  0031a	e8 00 00 00 00	 call	 @__security_check_cookie@4
  0031f	c9		 leave
  00320	c2 08 00	 ret	 8
??$LoadBool_e@$0BM@@ioINILoader@@QAE_NAAY0BM@$$CBD_N@Z ENDP ; ioINILoader::LoadBool_e<28>
_TEXT	ENDS
PUBLIC	__$ArrayPad$
PUBLIC	??$LoadFloat_e@$0BJ@@ioINILoader@@QAEMAAY0BJ@$$CBDM@Z ; ioINILoader::LoadFloat_e<25>
; Function compile flags: /Ogsp
;	COMDAT ??$LoadFloat_e@$0BJ@@ioINILoader@@QAEMAAY0BJ@$$CBDM@Z
_TEXT	SEGMENT
__k$ = -36						; size = 25
__$ArrayPad$ = -4					; size = 4
_k$ = 8							; size = 4
_f$ = 12						; size = 4
??$LoadFloat_e@$0BJ@@ioINILoader@@QAEMAAY0BJ@$$CBDM@Z PROC ; ioINILoader::LoadFloat_e<25>, COMDAT
; _this$ = ecx

; 135  : 	{

  00000	55		 push	 ebp
  00001	8b ec		 mov	 ebp, esp
  00003	83 ec 24	 sub	 esp, 36			; 00000024H
  00006	a1 00 00 00 00	 mov	 eax, DWORD PTR ___security_cookie
  0000b	33 c5		 xor	 eax, ebp
  0000d	89 45 fc	 mov	 DWORD PTR __$ArrayPad$[ebp], eax
  00010	8b 45 08	 mov	 eax, DWORD PTR _k$[ebp]

; 136  : 		_ENCSTR(k, _k);

  00013	8a 10		 mov	 dl, BYTE PTR [eax]
  00015	53		 push	 ebx
  00016	56		 push	 esi
  00017	8b f1		 mov	 esi, ecx
  00019	84 d2		 test	 dl, dl
  0001b	0f 84 5f 02 00
	00		 je	 $LN96@LoadFloat_@2
  00021	80 f2 ed	 xor	 dl, -19			; ffffffedH
  00024	88 55 dc	 mov	 BYTE PTR __k$[ebp], dl
  00027	8a 50 01	 mov	 dl, BYTE PTR [eax+1]
  0002a	84 d2		 test	 dl, dl
  0002c	0f 84 48 02 00
	00		 je	 $LN95@LoadFloat_@2
  00032	b1 ec		 mov	 cl, -20			; ffffffecH
  00034	32 d1		 xor	 dl, cl
  00036	88 55 dd	 mov	 BYTE PTR __k$[ebp+1], dl
  00039	8a 50 02	 mov	 dl, BYTE PTR [eax+2]
  0003c	84 d2		 test	 dl, dl
  0003e	0f 84 30 02 00
	00		 je	 $LN94@LoadFloat_@2
  00044	b3 eb		 mov	 bl, -21			; ffffffebH
  00046	32 d3		 xor	 dl, bl
  00048	88 55 de	 mov	 BYTE PTR __k$[ebp+2], dl
  0004b	8a 50 03	 mov	 dl, BYTE PTR [eax+3]
  0004e	84 d2		 test	 dl, dl
  00050	0f 84 18 02 00
	00		 je	 $LN93@LoadFloat_@2
  00056	80 f2 ea	 xor	 dl, -22			; ffffffeaH
  00059	88 55 df	 mov	 BYTE PTR __k$[ebp+3], dl
  0005c	8a 50 04	 mov	 dl, BYTE PTR [eax+4]
  0005f	84 d2		 test	 dl, dl
  00061	0f 84 01 02 00
	00		 je	 $LN92@LoadFloat_@2
  00067	80 f2 ed	 xor	 dl, -19			; ffffffedH
  0006a	88 55 e0	 mov	 BYTE PTR __k$[ebp+4], dl
  0006d	8a 50 05	 mov	 dl, BYTE PTR [eax+5]
  00070	84 d2		 test	 dl, dl
  00072	0f 84 eb 01 00
	00		 je	 $LN91@LoadFloat_@2
  00078	32 d1		 xor	 dl, cl
  0007a	88 55 e1	 mov	 BYTE PTR __k$[ebp+5], dl
  0007d	8a 50 06	 mov	 dl, BYTE PTR [eax+6]
  00080	84 d2		 test	 dl, dl
  00082	0f 84 d6 01 00
	00		 je	 $LN90@LoadFloat_@2
  00088	32 d3		 xor	 dl, bl
  0008a	88 55 e2	 mov	 BYTE PTR __k$[ebp+6], dl
  0008d	8a 50 07	 mov	 dl, BYTE PTR [eax+7]
  00090	84 d2		 test	 dl, dl
  00092	0f 84 c0 01 00
	00		 je	 $LN89@LoadFloat_@2
  00098	80 f2 ea	 xor	 dl, -22			; ffffffeaH
  0009b	88 55 e3	 mov	 BYTE PTR __k$[ebp+7], dl
  0009e	8a 50 08	 mov	 dl, BYTE PTR [eax+8]
  000a1	84 d2		 test	 dl, dl
  000a3	0f 84 a9 01 00
	00		 je	 $LN88@LoadFloat_@2
  000a9	80 f2 ed	 xor	 dl, -19			; ffffffedH
  000ac	88 55 e4	 mov	 BYTE PTR __k$[ebp+8], dl
  000af	8a 50 09	 mov	 dl, BYTE PTR [eax+9]
  000b2	84 d2		 test	 dl, dl
  000b4	0f 84 93 01 00
	00		 je	 $LN87@LoadFloat_@2
  000ba	32 d1		 xor	 dl, cl
  000bc	88 55 e5	 mov	 BYTE PTR __k$[ebp+9], dl
  000bf	8a 50 0a	 mov	 dl, BYTE PTR [eax+10]
  000c2	84 d2		 test	 dl, dl
  000c4	0f 84 7e 01 00
	00		 je	 $LN86@LoadFloat_@2
  000ca	32 d3		 xor	 dl, bl
  000cc	88 55 e6	 mov	 BYTE PTR __k$[ebp+10], dl
  000cf	8a 50 0b	 mov	 dl, BYTE PTR [eax+11]
  000d2	84 d2		 test	 dl, dl
  000d4	0f 84 68 01 00
	00		 je	 $LN85@LoadFloat_@2
  000da	80 f2 ea	 xor	 dl, -22			; ffffffeaH
  000dd	88 55 e7	 mov	 BYTE PTR __k$[ebp+11], dl
  000e0	8a 50 0c	 mov	 dl, BYTE PTR [eax+12]
  000e3	84 d2		 test	 dl, dl
  000e5	0f 84 51 01 00
	00		 je	 $LN84@LoadFloat_@2
  000eb	80 f2 ed	 xor	 dl, -19			; ffffffedH
  000ee	88 55 e8	 mov	 BYTE PTR __k$[ebp+12], dl
  000f1	8a 50 0d	 mov	 dl, BYTE PTR [eax+13]
  000f4	84 d2		 test	 dl, dl
  000f6	0f 84 3b 01 00
	00		 je	 $LN83@LoadFloat_@2
  000fc	32 d1		 xor	 dl, cl
  000fe	88 55 e9	 mov	 BYTE PTR __k$[ebp+13], dl
  00101	8a 50 0e	 mov	 dl, BYTE PTR [eax+14]
  00104	84 d2		 test	 dl, dl
  00106	0f 84 26 01 00
	00		 je	 $LN82@LoadFloat_@2
  0010c	32 d3		 xor	 dl, bl
  0010e	88 55 ea	 mov	 BYTE PTR __k$[ebp+14], dl
  00111	8a 50 0f	 mov	 dl, BYTE PTR [eax+15]
  00114	84 d2		 test	 dl, dl
  00116	0f 84 10 01 00
	00		 je	 $LN81@LoadFloat_@2
  0011c	80 f2 ea	 xor	 dl, -22			; ffffffeaH
  0011f	88 55 eb	 mov	 BYTE PTR __k$[ebp+15], dl
  00122	8a 50 10	 mov	 dl, BYTE PTR [eax+16]
  00125	84 d2		 test	 dl, dl
  00127	0f 84 f9 00 00
	00		 je	 $LN80@LoadFloat_@2
  0012d	80 f2 ed	 xor	 dl, -19			; ffffffedH
  00130	88 55 ec	 mov	 BYTE PTR __k$[ebp+16], dl
  00133	8a 50 11	 mov	 dl, BYTE PTR [eax+17]
  00136	84 d2		 test	 dl, dl
  00138	0f 84 e3 00 00
	00		 je	 $LN79@LoadFloat_@2
  0013e	32 d1		 xor	 dl, cl
  00140	88 55 ed	 mov	 BYTE PTR __k$[ebp+17], dl
  00143	8a 50 12	 mov	 dl, BYTE PTR [eax+18]
  00146	84 d2		 test	 dl, dl
  00148	0f 84 ce 00 00
	00		 je	 $LN78@LoadFloat_@2
  0014e	32 d3		 xor	 dl, bl
  00150	88 55 ee	 mov	 BYTE PTR __k$[ebp+18], dl
  00153	8a 50 13	 mov	 dl, BYTE PTR [eax+19]
  00156	84 d2		 test	 dl, dl
  00158	0f 84 b8 00 00
	00		 je	 $LN77@LoadFloat_@2
  0015e	80 f2 ea	 xor	 dl, -22			; ffffffeaH
  00161	88 55 ef	 mov	 BYTE PTR __k$[ebp+19], dl
  00164	8a 50 14	 mov	 dl, BYTE PTR [eax+20]
  00167	84 d2		 test	 dl, dl
  00169	0f 84 a1 00 00
	00		 je	 $LN76@LoadFloat_@2
  0016f	80 f2 ed	 xor	 dl, -19			; ffffffedH
  00172	88 55 f0	 mov	 BYTE PTR __k$[ebp+20], dl
  00175	8a 50 15	 mov	 dl, BYTE PTR [eax+21]
  00178	84 d2		 test	 dl, dl
  0017a	0f 84 8b 00 00
	00		 je	 $LN75@LoadFloat_@2
  00180	32 d1		 xor	 dl, cl
  00182	88 55 f1	 mov	 BYTE PTR __k$[ebp+21], dl
  00185	8a 50 16	 mov	 dl, BYTE PTR [eax+22]
  00188	84 d2		 test	 dl, dl
  0018a	74 7a		 je	 SHORT $LN74@LoadFloat_@2
  0018c	32 d3		 xor	 dl, bl
  0018e	88 55 f2	 mov	 BYTE PTR __k$[ebp+22], dl
  00191	8a 50 17	 mov	 dl, BYTE PTR [eax+23]
  00194	84 d2		 test	 dl, dl
  00196	74 68		 je	 SHORT $LN73@LoadFloat_@2
  00198	80 f2 ea	 xor	 dl, -22			; ffffffeaH
  0019b	80 78 18 00	 cmp	 BYTE PTR [eax+24], 0
  0019f	88 55 f3	 mov	 BYTE PTR __k$[ebp+23], dl
  001a2	0f 84 dc 00 00
	00		 je	 $LN1@LoadFloat_@2
  001a8	8a 50 19	 mov	 dl, BYTE PTR [eax+25]
  001ab	84 d2		 test	 dl, dl
  001ad	74 49		 je	 SHORT $LN71@LoadFloat_@2
  001af	32 d1		 xor	 dl, cl
  001b1	88 55 f5	 mov	 BYTE PTR __k$[ebp+25], dl
  001b4	8a 50 1a	 mov	 dl, BYTE PTR [eax+26]
  001b7	84 d2		 test	 dl, dl
  001b9	74 35		 je	 SHORT $LN70@LoadFloat_@2
  001bb	32 d3		 xor	 dl, bl
  001bd	88 55 f6	 mov	 BYTE PTR __k$[ebp+26], dl
  001c0	8a 50 1b	 mov	 dl, BYTE PTR [eax+27]
  001c3	84 d2		 test	 dl, dl
  001c5	74 20		 je	 SHORT $LN69@LoadFloat_@2
  001c7	8a 40 1c	 mov	 al, BYTE PTR [eax+28]
  001ca	80 f2 ea	 xor	 dl, -22			; ffffffeaH
  001cd	88 55 f7	 mov	 BYTE PTR __k$[ebp+27], dl
  001d0	84 c0		 test	 al, al
  001d2	74 0a		 je	 SHORT $LN68@LoadFloat_@2
  001d4	34 ed		 xor	 al, -19			; ffffffedH
  001d6	88 45 f8	 mov	 BYTE PTR __k$[ebp+28], al
  001d9	e9 a6 00 00 00	 jmp	 $LN1@LoadFloat_@2
$LN68@LoadFloat_@2:
  001de	c6 45 f8 ed	 mov	 BYTE PTR __k$[ebp+28], -19 ; ffffffedH
  001e2	e9 9d 00 00 00	 jmp	 $LN1@LoadFloat_@2
$LN69@LoadFloat_@2:
  001e7	c6 45 f7 ea	 mov	 BYTE PTR __k$[ebp+27], -22 ; ffffffeaH
  001eb	e9 94 00 00 00	 jmp	 $LN1@LoadFloat_@2
$LN70@LoadFloat_@2:
  001f0	88 5d f6	 mov	 BYTE PTR __k$[ebp+26], bl
  001f3	e9 8c 00 00 00	 jmp	 $LN1@LoadFloat_@2
$LN71@LoadFloat_@2:
  001f8	88 4d f5	 mov	 BYTE PTR __k$[ebp+25], cl
  001fb	e9 84 00 00 00	 jmp	 $LN1@LoadFloat_@2
$LN73@LoadFloat_@2:
  00200	c6 45 f3 ea	 mov	 BYTE PTR __k$[ebp+23], -22 ; ffffffeaH
  00204	eb 7e		 jmp	 SHORT $LN1@LoadFloat_@2
$LN74@LoadFloat_@2:
  00206	88 5d f2	 mov	 BYTE PTR __k$[ebp+22], bl
  00209	eb 79		 jmp	 SHORT $LN1@LoadFloat_@2
$LN75@LoadFloat_@2:
  0020b	88 4d f1	 mov	 BYTE PTR __k$[ebp+21], cl
  0020e	eb 74		 jmp	 SHORT $LN1@LoadFloat_@2
$LN76@LoadFloat_@2:
  00210	c6 45 f0 ed	 mov	 BYTE PTR __k$[ebp+20], -19 ; ffffffedH
  00214	eb 6e		 jmp	 SHORT $LN1@LoadFloat_@2
$LN77@LoadFloat_@2:
  00216	c6 45 ef ea	 mov	 BYTE PTR __k$[ebp+19], -22 ; ffffffeaH
  0021a	eb 68		 jmp	 SHORT $LN1@LoadFloat_@2
$LN78@LoadFloat_@2:
  0021c	88 5d ee	 mov	 BYTE PTR __k$[ebp+18], bl
  0021f	eb 63		 jmp	 SHORT $LN1@LoadFloat_@2
$LN79@LoadFloat_@2:
  00221	88 4d ed	 mov	 BYTE PTR __k$[ebp+17], cl
  00224	eb 5e		 jmp	 SHORT $LN1@LoadFloat_@2
$LN80@LoadFloat_@2:
  00226	c6 45 ec ed	 mov	 BYTE PTR __k$[ebp+16], -19 ; ffffffedH
  0022a	eb 58		 jmp	 SHORT $LN1@LoadFloat_@2
$LN81@LoadFloat_@2:
  0022c	c6 45 eb ea	 mov	 BYTE PTR __k$[ebp+15], -22 ; ffffffeaH
  00230	eb 52		 jmp	 SHORT $LN1@LoadFloat_@2
$LN82@LoadFloat_@2:
  00232	88 5d ea	 mov	 BYTE PTR __k$[ebp+14], bl
  00235	eb 4d		 jmp	 SHORT $LN1@LoadFloat_@2
$LN83@LoadFloat_@2:
  00237	88 4d e9	 mov	 BYTE PTR __k$[ebp+13], cl
  0023a	eb 48		 jmp	 SHORT $LN1@LoadFloat_@2
$LN84@LoadFloat_@2:
  0023c	c6 45 e8 ed	 mov	 BYTE PTR __k$[ebp+12], -19 ; ffffffedH
  00240	eb 42		 jmp	 SHORT $LN1@LoadFloat_@2
$LN85@LoadFloat_@2:
  00242	c6 45 e7 ea	 mov	 BYTE PTR __k$[ebp+11], -22 ; ffffffeaH
  00246	eb 3c		 jmp	 SHORT $LN1@LoadFloat_@2
$LN86@LoadFloat_@2:
  00248	88 5d e6	 mov	 BYTE PTR __k$[ebp+10], bl
  0024b	eb 37		 jmp	 SHORT $LN1@LoadFloat_@2
$LN87@LoadFloat_@2:
  0024d	88 4d e5	 mov	 BYTE PTR __k$[ebp+9], cl
  00250	eb 32		 jmp	 SHORT $LN1@LoadFloat_@2
$LN88@LoadFloat_@2:
  00252	c6 45 e4 ed	 mov	 BYTE PTR __k$[ebp+8], -19 ; ffffffedH
  00256	eb 2c		 jmp	 SHORT $LN1@LoadFloat_@2
$LN89@LoadFloat_@2:
  00258	c6 45 e3 ea	 mov	 BYTE PTR __k$[ebp+7], -22 ; ffffffeaH
  0025c	eb 26		 jmp	 SHORT $LN1@LoadFloat_@2
$LN90@LoadFloat_@2:
  0025e	88 5d e2	 mov	 BYTE PTR __k$[ebp+6], bl
  00261	eb 21		 jmp	 SHORT $LN1@LoadFloat_@2
$LN91@LoadFloat_@2:
  00263	88 4d e1	 mov	 BYTE PTR __k$[ebp+5], cl
  00266	eb 1c		 jmp	 SHORT $LN1@LoadFloat_@2
$LN92@LoadFloat_@2:
  00268	c6 45 e0 ed	 mov	 BYTE PTR __k$[ebp+4], -19 ; ffffffedH
  0026c	eb 16		 jmp	 SHORT $LN1@LoadFloat_@2
$LN93@LoadFloat_@2:
  0026e	c6 45 df ea	 mov	 BYTE PTR __k$[ebp+3], -22 ; ffffffeaH
  00272	eb 10		 jmp	 SHORT $LN1@LoadFloat_@2
$LN94@LoadFloat_@2:
  00274	c6 45 de eb	 mov	 BYTE PTR __k$[ebp+2], -21 ; ffffffebH
  00278	eb 0a		 jmp	 SHORT $LN1@LoadFloat_@2
$LN95@LoadFloat_@2:
  0027a	c6 45 dd ec	 mov	 BYTE PTR __k$[ebp+1], -20 ; ffffffecH
  0027e	eb 04		 jmp	 SHORT $LN1@LoadFloat_@2
$LN96@LoadFloat_@2:
  00280	c6 45 dc ed	 mov	 BYTE PTR __k$[ebp], -19	; ffffffedH
$LN1@LoadFloat_@2:
  00284	6a 06		 push	 6
  00286	8d 45 dc	 lea	 eax, DWORD PTR __k$[ebp]
  00289	c6 45 f4 00	 mov	 BYTE PTR __k$[ebp+24], 0
  0028d	5a		 pop	 edx
$LL104@LoadFloat_@2:
  0028e	81 30 ed ec eb
	ea		 xor	 DWORD PTR [eax], -353637139 ; eaebecedH
  00294	83 c0 04	 add	 eax, 4
  00297	4a		 dec	 edx
  00298	75 f4		 jne	 SHORT $LL104@LoadFloat_@2

; 137  : 		return LoadFloat(_k, f);

  0029a	f3 0f 10 45 0c	 movss	 xmm0, DWORD PTR _f$[ebp]
  0029f	51		 push	 ecx
  002a0	8d 45 dc	 lea	 eax, DWORD PTR __k$[ebp]
  002a3	f3 0f 11 04 24	 movss	 DWORD PTR [esp], xmm0
  002a8	50		 push	 eax
  002a9	8b ce		 mov	 ecx, esi
  002ab	ff 15 00 00 00
	00		 call	 DWORD PTR __imp_?LoadFloat@ioINILoader@@QAEMPBDM@Z

; 138  : 	}

  002b1	8b 4d fc	 mov	 ecx, DWORD PTR __$ArrayPad$[ebp]
  002b4	5e		 pop	 esi
  002b5	33 cd		 xor	 ecx, ebp
  002b7	5b		 pop	 ebx
  002b8	e8 00 00 00 00	 call	 @__security_check_cookie@4
  002bd	c9		 leave
  002be	c2 08 00	 ret	 8
??$LoadFloat_e@$0BJ@@ioINILoader@@QAEMAAY0BJ@$$CBDM@Z ENDP ; ioINILoader::LoadFloat_e<25>
_TEXT	ENDS
PUBLIC	__$ArrayPad$
PUBLIC	??$LoadAttackAttribute_e@$0BF@@@YAXAAY0BF@$$CBDAAUAttackAttribute@@AAVioINILoader@@@Z ; LoadAttackAttribute_e<21>
EXTRN	?LoadAttackAttribute@@YAXPBDAAUAttackAttribute@@AAVioINILoader@@@Z:PROC ; LoadAttackAttribute
; Function compile flags: /Ogsp
; File d:\lost saga for developer\youtube\tutorial\source\src\lsclient\ioattackattribute.h
;	COMDAT ??$LoadAttackAttribute_e@$0BF@@@YAXAAY0BF@$$CBDAAUAttackAttribute@@AAVioINILoader@@@Z
_TEXT	SEGMENT
_szEncAttack$ = -32					; size = 21
__$ArrayPad$ = -4					; size = 4
_szAttack$ = 8						; size = 4
_rkAttribute$ = 12					; size = 4
_rkLoader$ = 16						; size = 4
??$LoadAttackAttribute_e@$0BF@@@YAXAAY0BF@$$CBDAAUAttackAttribute@@AAVioINILoader@@@Z PROC ; LoadAttackAttribute_e<21>, COMDAT

; 131  : {

  00000	55		 push	 ebp
  00001	8b ec		 mov	 ebp, esp
  00003	83 ec 20	 sub	 esp, 32			; 00000020H
  00006	a1 00 00 00 00	 mov	 eax, DWORD PTR ___security_cookie
  0000b	33 c5		 xor	 eax, ebp
  0000d	89 45 fc	 mov	 DWORD PTR __$ArrayPad$[ebp], eax
  00010	8b 45 08	 mov	 eax, DWORD PTR _szAttack$[ebp]

; 132  : 	_ENCSTR(szAttack, szEncAttack);

  00013	8a 08		 mov	 cl, BYTE PTR [eax]
  00015	53		 push	 ebx
  00016	56		 push	 esi
  00017	8b 75 0c	 mov	 esi, DWORD PTR _rkAttribute$[ebp]
  0001a	57		 push	 edi
  0001b	8b 7d 10	 mov	 edi, DWORD PTR _rkLoader$[ebp]
  0001e	84 c9		 test	 cl, cl
  00020	0f 84 f7 01 00
	00		 je	 $LN96@LoadAttack
  00026	80 f1 ed	 xor	 cl, -19			; ffffffedH
  00029	88 4d e0	 mov	 BYTE PTR _szEncAttack$[ebp], cl
  0002c	8a 48 01	 mov	 cl, BYTE PTR [eax+1]
  0002f	84 c9		 test	 cl, cl
  00031	0f 84 e0 01 00
	00		 je	 $LN95@LoadAttack
  00037	b3 ec		 mov	 bl, -20			; ffffffecH
  00039	32 cb		 xor	 cl, bl
  0003b	88 4d e1	 mov	 BYTE PTR _szEncAttack$[ebp+1], cl
  0003e	8a 48 02	 mov	 cl, BYTE PTR [eax+2]
  00041	84 c9		 test	 cl, cl
  00043	0f 84 c8 01 00
	00		 je	 $LN94@LoadAttack
  00049	b2 eb		 mov	 dl, -21			; ffffffebH
  0004b	32 ca		 xor	 cl, dl
  0004d	88 4d e2	 mov	 BYTE PTR _szEncAttack$[ebp+2], cl
  00050	8a 48 03	 mov	 cl, BYTE PTR [eax+3]
  00053	84 c9		 test	 cl, cl
  00055	0f 84 b0 01 00
	00		 je	 $LN93@LoadAttack
  0005b	80 f1 ea	 xor	 cl, -22			; ffffffeaH
  0005e	88 4d e3	 mov	 BYTE PTR _szEncAttack$[ebp+3], cl
  00061	8a 48 04	 mov	 cl, BYTE PTR [eax+4]
  00064	84 c9		 test	 cl, cl
  00066	0f 84 99 01 00
	00		 je	 $LN92@LoadAttack
  0006c	80 f1 ed	 xor	 cl, -19			; ffffffedH
  0006f	88 4d e4	 mov	 BYTE PTR _szEncAttack$[ebp+4], cl
  00072	8a 48 05	 mov	 cl, BYTE PTR [eax+5]
  00075	84 c9		 test	 cl, cl
  00077	0f 84 83 01 00
	00		 je	 $LN91@LoadAttack
  0007d	32 cb		 xor	 cl, bl
  0007f	88 4d e5	 mov	 BYTE PTR _szEncAttack$[ebp+5], cl
  00082	8a 48 06	 mov	 cl, BYTE PTR [eax+6]
  00085	84 c9		 test	 cl, cl
  00087	0f 84 6e 01 00
	00		 je	 $LN90@LoadAttack
  0008d	32 ca		 xor	 cl, dl
  0008f	88 4d e6	 mov	 BYTE PTR _szEncAttack$[ebp+6], cl
  00092	8a 48 07	 mov	 cl, BYTE PTR [eax+7]
  00095	84 c9		 test	 cl, cl
  00097	0f 84 58 01 00
	00		 je	 $LN89@LoadAttack
  0009d	80 f1 ea	 xor	 cl, -22			; ffffffeaH
  000a0	88 4d e7	 mov	 BYTE PTR _szEncAttack$[ebp+7], cl
  000a3	8a 48 08	 mov	 cl, BYTE PTR [eax+8]
  000a6	84 c9		 test	 cl, cl
  000a8	0f 84 41 01 00
	00		 je	 $LN88@LoadAttack
  000ae	80 f1 ed	 xor	 cl, -19			; ffffffedH
  000b1	88 4d e8	 mov	 BYTE PTR _szEncAttack$[ebp+8], cl
  000b4	8a 48 09	 mov	 cl, BYTE PTR [eax+9]
  000b7	84 c9		 test	 cl, cl
  000b9	0f 84 2b 01 00
	00		 je	 $LN87@LoadAttack
  000bf	32 cb		 xor	 cl, bl
  000c1	88 4d e9	 mov	 BYTE PTR _szEncAttack$[ebp+9], cl
  000c4	8a 48 0a	 mov	 cl, BYTE PTR [eax+10]
  000c7	84 c9		 test	 cl, cl
  000c9	0f 84 16 01 00
	00		 je	 $LN86@LoadAttack
  000cf	32 ca		 xor	 cl, dl
  000d1	88 4d ea	 mov	 BYTE PTR _szEncAttack$[ebp+10], cl
  000d4	8a 48 0b	 mov	 cl, BYTE PTR [eax+11]
  000d7	84 c9		 test	 cl, cl
  000d9	0f 84 00 01 00
	00		 je	 $LN85@LoadAttack
  000df	80 f1 ea	 xor	 cl, -22			; ffffffeaH
  000e2	88 4d eb	 mov	 BYTE PTR _szEncAttack$[ebp+11], cl
  000e5	8a 48 0c	 mov	 cl, BYTE PTR [eax+12]
  000e8	84 c9		 test	 cl, cl
  000ea	0f 84 e9 00 00
	00		 je	 $LN84@LoadAttack
  000f0	80 f1 ed	 xor	 cl, -19			; ffffffedH
  000f3	88 4d ec	 mov	 BYTE PTR _szEncAttack$[ebp+12], cl
  000f6	8a 48 0d	 mov	 cl, BYTE PTR [eax+13]
  000f9	84 c9		 test	 cl, cl
  000fb	0f 84 d3 00 00
	00		 je	 $LN83@LoadAttack
  00101	32 cb		 xor	 cl, bl
  00103	88 4d ed	 mov	 BYTE PTR _szEncAttack$[ebp+13], cl
  00106	8a 48 0e	 mov	 cl, BYTE PTR [eax+14]
  00109	84 c9		 test	 cl, cl
  0010b	0f 84 be 00 00
	00		 je	 $LN82@LoadAttack
  00111	32 ca		 xor	 cl, dl
  00113	88 4d ee	 mov	 BYTE PTR _szEncAttack$[ebp+14], cl
  00116	8a 48 0f	 mov	 cl, BYTE PTR [eax+15]
  00119	84 c9		 test	 cl, cl
  0011b	0f 84 a8 00 00
	00		 je	 $LN81@LoadAttack
  00121	80 f1 ea	 xor	 cl, -22			; ffffffeaH
  00124	88 4d ef	 mov	 BYTE PTR _szEncAttack$[ebp+15], cl
  00127	8a 48 10	 mov	 cl, BYTE PTR [eax+16]
  0012a	84 c9		 test	 cl, cl
  0012c	0f 84 91 00 00
	00		 je	 $LN80@LoadAttack
  00132	80 f1 ed	 xor	 cl, -19			; ffffffedH
  00135	88 4d f0	 mov	 BYTE PTR _szEncAttack$[ebp+16], cl
  00138	8a 48 11	 mov	 cl, BYTE PTR [eax+17]
  0013b	84 c9		 test	 cl, cl
  0013d	74 7f		 je	 SHORT $LN79@LoadAttack
  0013f	32 cb		 xor	 cl, bl
  00141	88 4d f1	 mov	 BYTE PTR _szEncAttack$[ebp+17], cl
  00144	8a 48 12	 mov	 cl, BYTE PTR [eax+18]
  00147	84 c9		 test	 cl, cl
  00149	74 6e		 je	 SHORT $LN78@LoadAttack
  0014b	32 ca		 xor	 cl, dl
  0014d	88 4d f2	 mov	 BYTE PTR _szEncAttack$[ebp+18], cl
  00150	8a 48 13	 mov	 cl, BYTE PTR [eax+19]
  00153	84 c9		 test	 cl, cl
  00155	74 5c		 je	 SHORT $LN77@LoadAttack
  00157	80 f1 ea	 xor	 cl, -22			; ffffffeaH
  0015a	80 78 14 00	 cmp	 BYTE PTR [eax+20], 0
  0015e	88 4d f3	 mov	 BYTE PTR _szEncAttack$[ebp+19], cl
  00161	0f 84 ba 00 00
	00		 je	 $LN1@LoadAttack
  00167	8a 48 15	 mov	 cl, BYTE PTR [eax+21]
  0016a	84 c9		 test	 cl, cl
  0016c	74 40		 je	 SHORT $LN75@LoadAttack
  0016e	32 cb		 xor	 cl, bl
  00170	88 4d f5	 mov	 BYTE PTR _szEncAttack$[ebp+21], cl
  00173	8a 48 16	 mov	 cl, BYTE PTR [eax+22]
  00176	84 c9		 test	 cl, cl
  00178	74 2f		 je	 SHORT $LN74@LoadAttack
  0017a	32 ca		 xor	 cl, dl
  0017c	88 4d f6	 mov	 BYTE PTR _szEncAttack$[ebp+22], cl
  0017f	8a 48 17	 mov	 cl, BYTE PTR [eax+23]
  00182	84 c9		 test	 cl, cl
  00184	74 1d		 je	 SHORT $LN73@LoadAttack
  00186	8a 40 18	 mov	 al, BYTE PTR [eax+24]
  00189	80 f1 ea	 xor	 cl, -22			; ffffffeaH
  0018c	88 4d f7	 mov	 BYTE PTR _szEncAttack$[ebp+23], cl
  0018f	84 c0		 test	 al, al
  00191	74 0a		 je	 SHORT $LN72@LoadAttack
  00193	34 ed		 xor	 al, -19			; ffffffedH
  00195	88 45 f8	 mov	 BYTE PTR _szEncAttack$[ebp+24], al
  00198	e9 84 00 00 00	 jmp	 $LN1@LoadAttack
$LN72@LoadAttack:
  0019d	c6 45 f8 ed	 mov	 BYTE PTR _szEncAttack$[ebp+24], -19 ; ffffffedH
  001a1	eb 7e		 jmp	 SHORT $LN1@LoadAttack
$LN73@LoadAttack:
  001a3	c6 45 f7 ea	 mov	 BYTE PTR _szEncAttack$[ebp+23], -22 ; ffffffeaH
  001a7	eb 78		 jmp	 SHORT $LN1@LoadAttack
$LN74@LoadAttack:
  001a9	88 55 f6	 mov	 BYTE PTR _szEncAttack$[ebp+22], dl
  001ac	eb 73		 jmp	 SHORT $LN1@LoadAttack
$LN75@LoadAttack:
  001ae	88 5d f5	 mov	 BYTE PTR _szEncAttack$[ebp+21], bl
  001b1	eb 6e		 jmp	 SHORT $LN1@LoadAttack
$LN77@LoadAttack:
  001b3	c6 45 f3 ea	 mov	 BYTE PTR _szEncAttack$[ebp+19], -22 ; ffffffeaH
  001b7	eb 68		 jmp	 SHORT $LN1@LoadAttack
$LN78@LoadAttack:
  001b9	88 55 f2	 mov	 BYTE PTR _szEncAttack$[ebp+18], dl
  001bc	eb 63		 jmp	 SHORT $LN1@LoadAttack
$LN79@LoadAttack:
  001be	88 5d f1	 mov	 BYTE PTR _szEncAttack$[ebp+17], bl
  001c1	eb 5e		 jmp	 SHORT $LN1@LoadAttack
$LN80@LoadAttack:
  001c3	c6 45 f0 ed	 mov	 BYTE PTR _szEncAttack$[ebp+16], -19 ; ffffffedH
  001c7	eb 58		 jmp	 SHORT $LN1@LoadAttack
$LN81@LoadAttack:
  001c9	c6 45 ef ea	 mov	 BYTE PTR _szEncAttack$[ebp+15], -22 ; ffffffeaH
  001cd	eb 52		 jmp	 SHORT $LN1@LoadAttack
$LN82@LoadAttack:
  001cf	88 55 ee	 mov	 BYTE PTR _szEncAttack$[ebp+14], dl
  001d2	eb 4d		 jmp	 SHORT $LN1@LoadAttack
$LN83@LoadAttack:
  001d4	88 5d ed	 mov	 BYTE PTR _szEncAttack$[ebp+13], bl
  001d7	eb 48		 jmp	 SHORT $LN1@LoadAttack
$LN84@LoadAttack:
  001d9	c6 45 ec ed	 mov	 BYTE PTR _szEncAttack$[ebp+12], -19 ; ffffffedH
  001dd	eb 42		 jmp	 SHORT $LN1@LoadAttack
$LN85@LoadAttack:
  001df	c6 45 eb ea	 mov	 BYTE PTR _szEncAttack$[ebp+11], -22 ; ffffffeaH
  001e3	eb 3c		 jmp	 SHORT $LN1@LoadAttack
$LN86@LoadAttack:
  001e5	88 55 ea	 mov	 BYTE PTR _szEncAttack$[ebp+10], dl
  001e8	eb 37		 jmp	 SHORT $LN1@LoadAttack
$LN87@LoadAttack:
  001ea	88 5d e9	 mov	 BYTE PTR _szEncAttack$[ebp+9], bl
  001ed	eb 32		 jmp	 SHORT $LN1@LoadAttack
$LN88@LoadAttack:
  001ef	c6 45 e8 ed	 mov	 BYTE PTR _szEncAttack$[ebp+8], -19 ; ffffffedH
  001f3	eb 2c		 jmp	 SHORT $LN1@LoadAttack
$LN89@LoadAttack:
  001f5	c6 45 e7 ea	 mov	 BYTE PTR _szEncAttack$[ebp+7], -22 ; ffffffeaH
  001f9	eb 26		 jmp	 SHORT $LN1@LoadAttack
$LN90@LoadAttack:
  001fb	88 55 e6	 mov	 BYTE PTR _szEncAttack$[ebp+6], dl
  001fe	eb 21		 jmp	 SHORT $LN1@LoadAttack
$LN91@LoadAttack:
  00200	88 5d e5	 mov	 BYTE PTR _szEncAttack$[ebp+5], bl
  00203	eb 1c		 jmp	 SHORT $LN1@LoadAttack
$LN92@LoadAttack:
  00205	c6 45 e4 ed	 mov	 BYTE PTR _szEncAttack$[ebp+4], -19 ; ffffffedH
  00209	eb 16		 jmp	 SHORT $LN1@LoadAttack
$LN93@LoadAttack:
  0020b	c6 45 e3 ea	 mov	 BYTE PTR _szEncAttack$[ebp+3], -22 ; ffffffeaH
  0020f	eb 10		 jmp	 SHORT $LN1@LoadAttack
$LN94@LoadAttack:
  00211	c6 45 e2 eb	 mov	 BYTE PTR _szEncAttack$[ebp+2], -21 ; ffffffebH
  00215	eb 0a		 jmp	 SHORT $LN1@LoadAttack
$LN95@LoadAttack:
  00217	c6 45 e1 ec	 mov	 BYTE PTR _szEncAttack$[ebp+1], -20 ; ffffffecH
  0021b	eb 04		 jmp	 SHORT $LN1@LoadAttack
$LN96@LoadAttack:
  0021d	c6 45 e0 ed	 mov	 BYTE PTR _szEncAttack$[ebp], -19 ; ffffffedH
$LN1@LoadAttack:
  00221	6a 05		 push	 5
  00223	8d 45 e0	 lea	 eax, DWORD PTR _szEncAttack$[ebp]
  00226	c6 45 f4 00	 mov	 BYTE PTR _szEncAttack$[ebp+20], 0
  0022a	59		 pop	 ecx
$LL104@LoadAttack:
  0022b	81 30 ed ec eb
	ea		 xor	 DWORD PTR [eax], -353637139 ; eaebecedH
  00231	83 c0 04	 add	 eax, 4
  00234	49		 dec	 ecx
  00235	75 f4		 jne	 SHORT $LL104@LoadAttack

; 133  : 	LoadAttackAttribute(szEncAttack, rkAttribute, rkLoader);

  00237	57		 push	 edi
  00238	8d 45 e0	 lea	 eax, DWORD PTR _szEncAttack$[ebp]
  0023b	56		 push	 esi
  0023c	50		 push	 eax
  0023d	e8 00 00 00 00	 call	 ?LoadAttackAttribute@@YAXPBDAAUAttackAttribute@@AAVioINILoader@@@Z ; LoadAttackAttribute

; 134  : }

  00242	8b 4d fc	 mov	 ecx, DWORD PTR __$ArrayPad$[ebp]
  00245	83 c4 0c	 add	 esp, 12			; 0000000cH
  00248	5f		 pop	 edi
  00249	5e		 pop	 esi
  0024a	33 cd		 xor	 ecx, ebp
  0024c	5b		 pop	 ebx
  0024d	e8 00 00 00 00	 call	 @__security_check_cookie@4
  00252	c9		 leave
  00253	c3		 ret	 0
??$LoadAttackAttribute_e@$0BF@@@YAXAAY0BF@$$CBDAAUAttackAttribute@@AAVioINILoader@@@Z ENDP ; LoadAttackAttribute_e<21>
_TEXT	ENDS
PUBLIC	__$ArrayPad$
PUBLIC	??$LoadAttackAttribute_e@$0BC@@@YAXAAY0BC@$$CBDAAUAttackAttribute@@AAVioINILoader@@@Z ; LoadAttackAttribute_e<18>
; Function compile flags: /Ogsp
;	COMDAT ??$LoadAttackAttribute_e@$0BC@@@YAXAAY0BC@$$CBDAAUAttackAttribute@@AAVioINILoader@@@Z
_TEXT	SEGMENT
_szEncAttack$ = -28					; size = 18
__$ArrayPad$ = -4					; size = 4
_szAttack$ = 8						; size = 4
_rkAttribute$ = 12					; size = 4
_rkLoader$ = 16						; size = 4
??$LoadAttackAttribute_e@$0BC@@@YAXAAY0BC@$$CBDAAUAttackAttribute@@AAVioINILoader@@@Z PROC ; LoadAttackAttribute_e<18>, COMDAT

; 131  : {

  00000	55		 push	 ebp
  00001	8b ec		 mov	 ebp, esp
  00003	83 ec 1c	 sub	 esp, 28			; 0000001cH
  00006	a1 00 00 00 00	 mov	 eax, DWORD PTR ___security_cookie
  0000b	33 c5		 xor	 eax, ebp
  0000d	89 45 fc	 mov	 DWORD PTR __$ArrayPad$[ebp], eax
  00010	8b 45 08	 mov	 eax, DWORD PTR _szAttack$[ebp]

; 132  : 	_ENCSTR(szAttack, szEncAttack);

  00013	8a 08		 mov	 cl, BYTE PTR [eax]
  00015	56		 push	 esi
  00016	8b 75 0c	 mov	 esi, DWORD PTR _rkAttribute$[ebp]
  00019	57		 push	 edi
  0001a	8b 7d 10	 mov	 edi, DWORD PTR _rkLoader$[ebp]
  0001d	84 c9		 test	 cl, cl
  0001f	0f 84 ba 01 00
	00		 je	 $LN96@LoadAttack@2
  00025	80 f1 ed	 xor	 cl, -19			; ffffffedH
  00028	88 4d e4	 mov	 BYTE PTR _szEncAttack$[ebp], cl
  0002b	8a 48 01	 mov	 cl, BYTE PTR [eax+1]
  0002e	84 c9		 test	 cl, cl
  00030	0f 84 a3 01 00
	00		 je	 $LN95@LoadAttack@2
  00036	80 f1 ec	 xor	 cl, -20			; ffffffecH
  00039	88 4d e5	 mov	 BYTE PTR _szEncAttack$[ebp+1], cl
  0003c	8a 48 02	 mov	 cl, BYTE PTR [eax+2]
  0003f	84 c9		 test	 cl, cl
  00041	0f 84 8c 01 00
	00		 je	 $LN94@LoadAttack@2
  00047	80 f1 eb	 xor	 cl, -21			; ffffffebH
  0004a	88 4d e6	 mov	 BYTE PTR _szEncAttack$[ebp+2], cl
  0004d	8a 48 03	 mov	 cl, BYTE PTR [eax+3]
  00050	84 c9		 test	 cl, cl
  00052	0f 84 75 01 00
	00		 je	 $LN93@LoadAttack@2
  00058	b2 ea		 mov	 dl, -22			; ffffffeaH
  0005a	32 ca		 xor	 cl, dl
  0005c	88 4d e7	 mov	 BYTE PTR _szEncAttack$[ebp+3], cl
  0005f	8a 48 04	 mov	 cl, BYTE PTR [eax+4]
  00062	84 c9		 test	 cl, cl
  00064	0f 84 5d 01 00
	00		 je	 $LN92@LoadAttack@2
  0006a	80 f1 ed	 xor	 cl, -19			; ffffffedH
  0006d	88 4d e8	 mov	 BYTE PTR _szEncAttack$[ebp+4], cl
  00070	8a 48 05	 mov	 cl, BYTE PTR [eax+5]
  00073	84 c9		 test	 cl, cl
  00075	0f 84 46 01 00
	00		 je	 $LN91@LoadAttack@2
  0007b	80 f1 ec	 xor	 cl, -20			; ffffffecH
  0007e	88 4d e9	 mov	 BYTE PTR _szEncAttack$[ebp+5], cl
  00081	8a 48 06	 mov	 cl, BYTE PTR [eax+6]
  00084	84 c9		 test	 cl, cl
  00086	0f 84 2f 01 00
	00		 je	 $LN90@LoadAttack@2
  0008c	80 f1 eb	 xor	 cl, -21			; ffffffebH
  0008f	88 4d ea	 mov	 BYTE PTR _szEncAttack$[ebp+6], cl
  00092	8a 48 07	 mov	 cl, BYTE PTR [eax+7]
  00095	84 c9		 test	 cl, cl
  00097	0f 84 19 01 00
	00		 je	 $LN89@LoadAttack@2
  0009d	32 ca		 xor	 cl, dl
  0009f	88 4d eb	 mov	 BYTE PTR _szEncAttack$[ebp+7], cl
  000a2	8a 48 08	 mov	 cl, BYTE PTR [eax+8]
  000a5	84 c9		 test	 cl, cl
  000a7	0f 84 03 01 00
	00		 je	 $LN88@LoadAttack@2
  000ad	80 f1 ed	 xor	 cl, -19			; ffffffedH
  000b0	88 4d ec	 mov	 BYTE PTR _szEncAttack$[ebp+8], cl
  000b3	8a 48 09	 mov	 cl, BYTE PTR [eax+9]
  000b6	84 c9		 test	 cl, cl
  000b8	0f 84 ec 00 00
	00		 je	 $LN87@LoadAttack@2
  000be	80 f1 ec	 xor	 cl, -20			; ffffffecH
  000c1	88 4d ed	 mov	 BYTE PTR _szEncAttack$[ebp+9], cl
  000c4	8a 48 0a	 mov	 cl, BYTE PTR [eax+10]
  000c7	84 c9		 test	 cl, cl
  000c9	0f 84 d5 00 00
	00		 je	 $LN86@LoadAttack@2
  000cf	80 f1 eb	 xor	 cl, -21			; ffffffebH
  000d2	88 4d ee	 mov	 BYTE PTR _szEncAttack$[ebp+10], cl
  000d5	8a 48 0b	 mov	 cl, BYTE PTR [eax+11]
  000d8	84 c9		 test	 cl, cl
  000da	0f 84 bf 00 00
	00		 je	 $LN85@LoadAttack@2
  000e0	32 ca		 xor	 cl, dl
  000e2	88 4d ef	 mov	 BYTE PTR _szEncAttack$[ebp+11], cl
  000e5	8a 48 0c	 mov	 cl, BYTE PTR [eax+12]
  000e8	84 c9		 test	 cl, cl
  000ea	0f 84 a9 00 00
	00		 je	 $LN84@LoadAttack@2
  000f0	80 f1 ed	 xor	 cl, -19			; ffffffedH
  000f3	88 4d f0	 mov	 BYTE PTR _szEncAttack$[ebp+12], cl
  000f6	8a 48 0d	 mov	 cl, BYTE PTR [eax+13]
  000f9	84 c9		 test	 cl, cl
  000fb	0f 84 92 00 00
	00		 je	 $LN83@LoadAttack@2
  00101	80 f1 ec	 xor	 cl, -20			; ffffffecH
  00104	88 4d f1	 mov	 BYTE PTR _szEncAttack$[ebp+13], cl
  00107	8a 48 0e	 mov	 cl, BYTE PTR [eax+14]
  0010a	84 c9		 test	 cl, cl
  0010c	74 7f		 je	 SHORT $LN82@LoadAttack@2
  0010e	80 f1 eb	 xor	 cl, -21			; ffffffebH
  00111	88 4d f2	 mov	 BYTE PTR _szEncAttack$[ebp+14], cl
  00114	8a 48 0f	 mov	 cl, BYTE PTR [eax+15]
  00117	84 c9		 test	 cl, cl
  00119	74 6d		 je	 SHORT $LN81@LoadAttack@2
  0011b	32 ca		 xor	 cl, dl
  0011d	88 4d f3	 mov	 BYTE PTR _szEncAttack$[ebp+15], cl
  00120	8a 48 10	 mov	 cl, BYTE PTR [eax+16]
  00123	84 c9		 test	 cl, cl
  00125	74 5b		 je	 SHORT $LN80@LoadAttack@2
  00127	80 f1 ed	 xor	 cl, -19			; ffffffedH
  0012a	80 78 11 00	 cmp	 BYTE PTR [eax+17], 0
  0012e	88 4d f4	 mov	 BYTE PTR _szEncAttack$[ebp+16], cl
  00131	0f 84 ac 00 00
	00		 je	 $LN1@LoadAttack@2
  00137	8a 48 12	 mov	 cl, BYTE PTR [eax+18]
  0013a	84 c9		 test	 cl, cl
  0013c	74 3e		 je	 SHORT $LN78@LoadAttack@2
  0013e	80 f1 eb	 xor	 cl, -21			; ffffffebH
  00141	88 4d f6	 mov	 BYTE PTR _szEncAttack$[ebp+18], cl
  00144	8a 48 13	 mov	 cl, BYTE PTR [eax+19]
  00147	84 c9		 test	 cl, cl
  00149	74 2c		 je	 SHORT $LN77@LoadAttack@2
  0014b	32 ca		 xor	 cl, dl
  0014d	88 4d f7	 mov	 BYTE PTR _szEncAttack$[ebp+19], cl
  00150	8a 48 14	 mov	 cl, BYTE PTR [eax+20]
  00153	84 c9		 test	 cl, cl
  00155	74 1a		 je	 SHORT $LN76@LoadAttack@2
  00157	8a 40 15	 mov	 al, BYTE PTR [eax+21]
  0015a	80 f1 ed	 xor	 cl, -19			; ffffffedH
  0015d	88 4d f8	 mov	 BYTE PTR _szEncAttack$[ebp+20], cl
  00160	84 c0		 test	 al, al
  00162	74 07		 je	 SHORT $LN75@LoadAttack@2
  00164	34 ec		 xor	 al, -20			; ffffffecH
  00166	88 45 f9	 mov	 BYTE PTR _szEncAttack$[ebp+21], al
  00169	eb 78		 jmp	 SHORT $LN1@LoadAttack@2
$LN75@LoadAttack@2:
  0016b	c6 45 f9 ec	 mov	 BYTE PTR _szEncAttack$[ebp+21], -20 ; ffffffecH
  0016f	eb 72		 jmp	 SHORT $LN1@LoadAttack@2
$LN76@LoadAttack@2:
  00171	c6 45 f8 ed	 mov	 BYTE PTR _szEncAttack$[ebp+20], -19 ; ffffffedH
  00175	eb 6c		 jmp	 SHORT $LN1@LoadAttack@2
$LN77@LoadAttack@2:
  00177	88 55 f7	 mov	 BYTE PTR _szEncAttack$[ebp+19], dl
  0017a	eb 67		 jmp	 SHORT $LN1@LoadAttack@2
$LN78@LoadAttack@2:
  0017c	c6 45 f6 eb	 mov	 BYTE PTR _szEncAttack$[ebp+18], -21 ; ffffffebH
  00180	eb 61		 jmp	 SHORT $LN1@LoadAttack@2
$LN80@LoadAttack@2:
  00182	c6 45 f4 ed	 mov	 BYTE PTR _szEncAttack$[ebp+16], -19 ; ffffffedH
  00186	eb 5b		 jmp	 SHORT $LN1@LoadAttack@2
$LN81@LoadAttack@2:
  00188	88 55 f3	 mov	 BYTE PTR _szEncAttack$[ebp+15], dl
  0018b	eb 56		 jmp	 SHORT $LN1@LoadAttack@2
$LN82@LoadAttack@2:
  0018d	c6 45 f2 eb	 mov	 BYTE PTR _szEncAttack$[ebp+14], -21 ; ffffffebH
  00191	eb 50		 jmp	 SHORT $LN1@LoadAttack@2
$LN83@LoadAttack@2:
  00193	c6 45 f1 ec	 mov	 BYTE PTR _szEncAttack$[ebp+13], -20 ; ffffffecH
  00197	eb 4a		 jmp	 SHORT $LN1@LoadAttack@2
$LN84@LoadAttack@2:
  00199	c6 45 f0 ed	 mov	 BYTE PTR _szEncAttack$[ebp+12], -19 ; ffffffedH
  0019d	eb 44		 jmp	 SHORT $LN1@LoadAttack@2
$LN85@LoadAttack@2:
  0019f	88 55 ef	 mov	 BYTE PTR _szEncAttack$[ebp+11], dl
  001a2	eb 3f		 jmp	 SHORT $LN1@LoadAttack@2
$LN86@LoadAttack@2:
  001a4	c6 45 ee eb	 mov	 BYTE PTR _szEncAttack$[ebp+10], -21 ; ffffffebH
  001a8	eb 39		 jmp	 SHORT $LN1@LoadAttack@2
$LN87@LoadAttack@2:
  001aa	c6 45 ed ec	 mov	 BYTE PTR _szEncAttack$[ebp+9], -20 ; ffffffecH
  001ae	eb 33		 jmp	 SHORT $LN1@LoadAttack@2
$LN88@LoadAttack@2:
  001b0	c6 45 ec ed	 mov	 BYTE PTR _szEncAttack$[ebp+8], -19 ; ffffffedH
  001b4	eb 2d		 jmp	 SHORT $LN1@LoadAttack@2
$LN89@LoadAttack@2:
  001b6	88 55 eb	 mov	 BYTE PTR _szEncAttack$[ebp+7], dl
  001b9	eb 28		 jmp	 SHORT $LN1@LoadAttack@2
$LN90@LoadAttack@2:
  001bb	c6 45 ea eb	 mov	 BYTE PTR _szEncAttack$[ebp+6], -21 ; ffffffebH
  001bf	eb 22		 jmp	 SHORT $LN1@LoadAttack@2
$LN91@LoadAttack@2:
  001c1	c6 45 e9 ec	 mov	 BYTE PTR _szEncAttack$[ebp+5], -20 ; ffffffecH
  001c5	eb 1c		 jmp	 SHORT $LN1@LoadAttack@2
$LN92@LoadAttack@2:
  001c7	c6 45 e8 ed	 mov	 BYTE PTR _szEncAttack$[ebp+4], -19 ; ffffffedH
  001cb	eb 16		 jmp	 SHORT $LN1@LoadAttack@2
$LN93@LoadAttack@2:
  001cd	c6 45 e7 ea	 mov	 BYTE PTR _szEncAttack$[ebp+3], -22 ; ffffffeaH
  001d1	eb 10		 jmp	 SHORT $LN1@LoadAttack@2
$LN94@LoadAttack@2:
  001d3	c6 45 e6 eb	 mov	 BYTE PTR _szEncAttack$[ebp+2], -21 ; ffffffebH
  001d7	eb 0a		 jmp	 SHORT $LN1@LoadAttack@2
$LN95@LoadAttack@2:
  001d9	c6 45 e5 ec	 mov	 BYTE PTR _szEncAttack$[ebp+1], -20 ; ffffffecH
  001dd	eb 04		 jmp	 SHORT $LN1@LoadAttack@2
$LN96@LoadAttack@2:
  001df	c6 45 e4 ed	 mov	 BYTE PTR _szEncAttack$[ebp], -19 ; ffffffedH
$LN1@LoadAttack@2:
  001e3	6a 04		 push	 4
  001e5	8d 45 e4	 lea	 eax, DWORD PTR _szEncAttack$[ebp]
  001e8	c6 45 f5 00	 mov	 BYTE PTR _szEncAttack$[ebp+17], 0
  001ec	59		 pop	 ecx
$LL104@LoadAttack@2:
  001ed	81 30 ed ec eb
	ea		 xor	 DWORD PTR [eax], -353637139 ; eaebecedH
  001f3	83 c0 04	 add	 eax, 4
  001f6	49		 dec	 ecx
  001f7	75 f4		 jne	 SHORT $LL104@LoadAttack@2
  001f9	80 75 f4 ed	 xor	 BYTE PTR _szEncAttack$[ebp+16], -19 ; ffffffedH

; 133  : 	LoadAttackAttribute(szEncAttack, rkAttribute, rkLoader);

  001fd	57		 push	 edi
  001fe	8d 45 e4	 lea	 eax, DWORD PTR _szEncAttack$[ebp]
  00201	56		 push	 esi
  00202	50		 push	 eax
  00203	e8 00 00 00 00	 call	 ?LoadAttackAttribute@@YAXPBDAAUAttackAttribute@@AAVioINILoader@@@Z ; LoadAttackAttribute

; 134  : }

  00208	8b 4d fc	 mov	 ecx, DWORD PTR __$ArrayPad$[ebp]
  0020b	83 c4 0c	 add	 esp, 12			; 0000000cH
  0020e	5f		 pop	 edi
  0020f	33 cd		 xor	 ecx, ebp
  00211	5e		 pop	 esi
  00212	e8 00 00 00 00	 call	 @__security_check_cookie@4
  00217	c9		 leave
  00218	c3		 ret	 0
??$LoadAttackAttribute_e@$0BC@@@YAXAAY0BC@$$CBDAAUAttackAttribute@@AAVioINILoader@@@Z ENDP ; LoadAttackAttribute_e<18>
_TEXT	ENDS
PUBLIC	__$ArrayPad$
PUBLIC	??$LoadAttackAttribute_e@$0BD@@@YAXAAY0BD@$$CBDAAUAttackAttribute@@AAVioINILoader@@@Z ; LoadAttackAttribute_e<19>
; Function compile flags: /Ogsp
;	COMDAT ??$LoadAttackAttribute_e@$0BD@@@YAXAAY0BD@$$CBDAAUAttackAttribute@@AAVioINILoader@@@Z
_TEXT	SEGMENT
_szEncAttack$ = -28					; size = 19
__$ArrayPad$ = -4					; size = 4
_szAttack$ = 8						; size = 4
_rkAttribute$ = 12					; size = 4
_rkLoader$ = 16						; size = 4
??$LoadAttackAttribute_e@$0BD@@@YAXAAY0BD@$$CBDAAUAttackAttribute@@AAVioINILoader@@@Z PROC ; LoadAttackAttribute_e<19>, COMDAT

; 131  : {

  00000	55		 push	 ebp
  00001	8b ec		 mov	 ebp, esp
  00003	83 ec 1c	 sub	 esp, 28			; 0000001cH
  00006	a1 00 00 00 00	 mov	 eax, DWORD PTR ___security_cookie
  0000b	33 c5		 xor	 eax, ebp
  0000d	89 45 fc	 mov	 DWORD PTR __$ArrayPad$[ebp], eax
  00010	8b 45 08	 mov	 eax, DWORD PTR _szAttack$[ebp]

; 132  : 	_ENCSTR(szAttack, szEncAttack);

  00013	8a 08		 mov	 cl, BYTE PTR [eax]
  00015	53		 push	 ebx
  00016	56		 push	 esi
  00017	8b 75 0c	 mov	 esi, DWORD PTR _rkAttribute$[ebp]
  0001a	57		 push	 edi
  0001b	8b 7d 10	 mov	 edi, DWORD PTR _rkLoader$[ebp]
  0001e	84 c9		 test	 cl, cl
  00020	0f 84 c8 01 00
	00		 je	 $LN96@LoadAttack@3
  00026	80 f1 ed	 xor	 cl, -19			; ffffffedH
  00029	88 4d e4	 mov	 BYTE PTR _szEncAttack$[ebp], cl
  0002c	8a 48 01	 mov	 cl, BYTE PTR [eax+1]
  0002f	84 c9		 test	 cl, cl
  00031	0f 84 b1 01 00
	00		 je	 $LN95@LoadAttack@3
  00037	b3 ec		 mov	 bl, -20			; ffffffecH
  00039	32 cb		 xor	 cl, bl
  0003b	88 4d e5	 mov	 BYTE PTR _szEncAttack$[ebp+1], cl
  0003e	8a 48 02	 mov	 cl, BYTE PTR [eax+2]
  00041	84 c9		 test	 cl, cl
  00043	0f 84 99 01 00
	00		 je	 $LN94@LoadAttack@3
  00049	80 f1 eb	 xor	 cl, -21			; ffffffebH
  0004c	88 4d e6	 mov	 BYTE PTR _szEncAttack$[ebp+2], cl
  0004f	8a 48 03	 mov	 cl, BYTE PTR [eax+3]
  00052	84 c9		 test	 cl, cl
  00054	0f 84 82 01 00
	00		 je	 $LN93@LoadAttack@3
  0005a	b2 ea		 mov	 dl, -22			; ffffffeaH
  0005c	32 ca		 xor	 cl, dl
  0005e	88 4d e7	 mov	 BYTE PTR _szEncAttack$[ebp+3], cl
  00061	8a 48 04	 mov	 cl, BYTE PTR [eax+4]
  00064	84 c9		 test	 cl, cl
  00066	0f 84 6a 01 00
	00		 je	 $LN92@LoadAttack@3
  0006c	80 f1 ed	 xor	 cl, -19			; ffffffedH
  0006f	88 4d e8	 mov	 BYTE PTR _szEncAttack$[ebp+4], cl
  00072	8a 48 05	 mov	 cl, BYTE PTR [eax+5]
  00075	84 c9		 test	 cl, cl
  00077	0f 84 54 01 00
	00		 je	 $LN91@LoadAttack@3
  0007d	32 cb		 xor	 cl, bl
  0007f	88 4d e9	 mov	 BYTE PTR _szEncAttack$[ebp+5], cl
  00082	8a 48 06	 mov	 cl, BYTE PTR [eax+6]
  00085	84 c9		 test	 cl, cl
  00087	0f 84 3e 01 00
	00		 je	 $LN90@LoadAttack@3
  0008d	80 f1 eb	 xor	 cl, -21			; ffffffebH
  00090	88 4d ea	 mov	 BYTE PTR _szEncAttack$[ebp+6], cl
  00093	8a 48 07	 mov	 cl, BYTE PTR [eax+7]
  00096	84 c9		 test	 cl, cl
  00098	0f 84 28 01 00
	00		 je	 $LN89@LoadAttack@3
  0009e	32 ca		 xor	 cl, dl
  000a0	88 4d eb	 mov	 BYTE PTR _szEncAttack$[ebp+7], cl
  000a3	8a 48 08	 mov	 cl, BYTE PTR [eax+8]
  000a6	84 c9		 test	 cl, cl
  000a8	0f 84 12 01 00
	00		 je	 $LN88@LoadAttack@3
  000ae	80 f1 ed	 xor	 cl, -19			; ffffffedH
  000b1	88 4d ec	 mov	 BYTE PTR _szEncAttack$[ebp+8], cl
  000b4	8a 48 09	 mov	 cl, BYTE PTR [eax+9]
  000b7	84 c9		 test	 cl, cl
  000b9	0f 84 fc 00 00
	00		 je	 $LN87@LoadAttack@3
  000bf	32 cb		 xor	 cl, bl
  000c1	88 4d ed	 mov	 BYTE PTR _szEncAttack$[ebp+9], cl
  000c4	8a 48 0a	 mov	 cl, BYTE PTR [eax+10]
  000c7	84 c9		 test	 cl, cl
  000c9	0f 84 e6 00 00
	00		 je	 $LN86@LoadAttack@3
  000cf	80 f1 eb	 xor	 cl, -21			; ffffffebH
  000d2	88 4d ee	 mov	 BYTE PTR _szEncAttack$[ebp+10], cl
  000d5	8a 48 0b	 mov	 cl, BYTE PTR [eax+11]
  000d8	84 c9		 test	 cl, cl
  000da	0f 84 d0 00 00
	00		 je	 $LN85@LoadAttack@3
  000e0	32 ca		 xor	 cl, dl
  000e2	88 4d ef	 mov	 BYTE PTR _szEncAttack$[ebp+11], cl
  000e5	8a 48 0c	 mov	 cl, BYTE PTR [eax+12]
  000e8	84 c9		 test	 cl, cl
  000ea	0f 84 ba 00 00
	00		 je	 $LN84@LoadAttack@3
  000f0	80 f1 ed	 xor	 cl, -19			; ffffffedH
  000f3	88 4d f0	 mov	 BYTE PTR _szEncAttack$[ebp+12], cl
  000f6	8a 48 0d	 mov	 cl, BYTE PTR [eax+13]
  000f9	84 c9		 test	 cl, cl
  000fb	0f 84 a4 00 00
	00		 je	 $LN83@LoadAttack@3
  00101	32 cb		 xor	 cl, bl
  00103	88 4d f1	 mov	 BYTE PTR _szEncAttack$[ebp+13], cl
  00106	8a 48 0e	 mov	 cl, BYTE PTR [eax+14]
  00109	84 c9		 test	 cl, cl
  0010b	0f 84 8e 00 00
	00		 je	 $LN82@LoadAttack@3
  00111	80 f1 eb	 xor	 cl, -21			; ffffffebH
  00114	88 4d f2	 mov	 BYTE PTR _szEncAttack$[ebp+14], cl
  00117	8a 48 0f	 mov	 cl, BYTE PTR [eax+15]
  0011a	84 c9		 test	 cl, cl
  0011c	74 7c		 je	 SHORT $LN81@LoadAttack@3
  0011e	32 ca		 xor	 cl, dl
  00120	88 4d f3	 mov	 BYTE PTR _szEncAttack$[ebp+15], cl
  00123	8a 48 10	 mov	 cl, BYTE PTR [eax+16]
  00126	84 c9		 test	 cl, cl
  00128	74 6a		 je	 SHORT $LN80@LoadAttack@3
  0012a	80 f1 ed	 xor	 cl, -19			; ffffffedH
  0012d	88 4d f4	 mov	 BYTE PTR _szEncAttack$[ebp+16], cl
  00130	8a 48 11	 mov	 cl, BYTE PTR [eax+17]
  00133	84 c9		 test	 cl, cl
  00135	74 58		 je	 SHORT $LN79@LoadAttack@3
  00137	32 cb		 xor	 cl, bl
  00139	80 78 12 00	 cmp	 BYTE PTR [eax+18], 0
  0013d	88 4d f5	 mov	 BYTE PTR _szEncAttack$[ebp+17], cl
  00140	0f 84 ac 00 00
	00		 je	 $LN1@LoadAttack@3
  00146	8a 48 13	 mov	 cl, BYTE PTR [eax+19]
  00149	84 c9		 test	 cl, cl
  0014b	74 3d		 je	 SHORT $LN77@LoadAttack@3
  0014d	32 ca		 xor	 cl, dl
  0014f	88 4d f7	 mov	 BYTE PTR _szEncAttack$[ebp+19], cl
  00152	8a 48 14	 mov	 cl, BYTE PTR [eax+20]
  00155	84 c9		 test	 cl, cl
  00157	74 2b		 je	 SHORT $LN76@LoadAttack@3
  00159	80 f1 ed	 xor	 cl, -19			; ffffffedH
  0015c	88 4d f8	 mov	 BYTE PTR _szEncAttack$[ebp+20], cl
  0015f	8a 48 15	 mov	 cl, BYTE PTR [eax+21]
  00162	84 c9		 test	 cl, cl
  00164	74 19		 je	 SHORT $LN75@LoadAttack@3
  00166	8a 40 16	 mov	 al, BYTE PTR [eax+22]
  00169	32 cb		 xor	 cl, bl
  0016b	88 4d f9	 mov	 BYTE PTR _szEncAttack$[ebp+21], cl
  0016e	84 c0		 test	 al, al
  00170	74 07		 je	 SHORT $LN74@LoadAttack@3
  00172	34 eb		 xor	 al, -21			; ffffffebH
  00174	88 45 fa	 mov	 BYTE PTR _szEncAttack$[ebp+22], al
  00177	eb 79		 jmp	 SHORT $LN1@LoadAttack@3
$LN74@LoadAttack@3:
  00179	c6 45 fa eb	 mov	 BYTE PTR _szEncAttack$[ebp+22], -21 ; ffffffebH
  0017d	eb 73		 jmp	 SHORT $LN1@LoadAttack@3
$LN75@LoadAttack@3:
  0017f	88 5d f9	 mov	 BYTE PTR _szEncAttack$[ebp+21], bl
  00182	eb 6e		 jmp	 SHORT $LN1@LoadAttack@3
$LN76@LoadAttack@3:
  00184	c6 45 f8 ed	 mov	 BYTE PTR _szEncAttack$[ebp+20], -19 ; ffffffedH
  00188	eb 68		 jmp	 SHORT $LN1@LoadAttack@3
$LN77@LoadAttack@3:
  0018a	88 55 f7	 mov	 BYTE PTR _szEncAttack$[ebp+19], dl
  0018d	eb 63		 jmp	 SHORT $LN1@LoadAttack@3
$LN79@LoadAttack@3:
  0018f	88 5d f5	 mov	 BYTE PTR _szEncAttack$[ebp+17], bl
  00192	eb 5e		 jmp	 SHORT $LN1@LoadAttack@3
$LN80@LoadAttack@3:
  00194	c6 45 f4 ed	 mov	 BYTE PTR _szEncAttack$[ebp+16], -19 ; ffffffedH
  00198	eb 58		 jmp	 SHORT $LN1@LoadAttack@3
$LN81@LoadAttack@3:
  0019a	88 55 f3	 mov	 BYTE PTR _szEncAttack$[ebp+15], dl
  0019d	eb 53		 jmp	 SHORT $LN1@LoadAttack@3
$LN82@LoadAttack@3:
  0019f	c6 45 f2 eb	 mov	 BYTE PTR _szEncAttack$[ebp+14], -21 ; ffffffebH
  001a3	eb 4d		 jmp	 SHORT $LN1@LoadAttack@3
$LN83@LoadAttack@3:
  001a5	88 5d f1	 mov	 BYTE PTR _szEncAttack$[ebp+13], bl
  001a8	eb 48		 jmp	 SHORT $LN1@LoadAttack@3
$LN84@LoadAttack@3:
  001aa	c6 45 f0 ed	 mov	 BYTE PTR _szEncAttack$[ebp+12], -19 ; ffffffedH
  001ae	eb 42		 jmp	 SHORT $LN1@LoadAttack@3
$LN85@LoadAttack@3:
  001b0	88 55 ef	 mov	 BYTE PTR _szEncAttack$[ebp+11], dl
  001b3	eb 3d		 jmp	 SHORT $LN1@LoadAttack@3
$LN86@LoadAttack@3:
  001b5	c6 45 ee eb	 mov	 BYTE PTR _szEncAttack$[ebp+10], -21 ; ffffffebH
  001b9	eb 37		 jmp	 SHORT $LN1@LoadAttack@3
$LN87@LoadAttack@3:
  001bb	88 5d ed	 mov	 BYTE PTR _szEncAttack$[ebp+9], bl
  001be	eb 32		 jmp	 SHORT $LN1@LoadAttack@3
$LN88@LoadAttack@3:
  001c0	c6 45 ec ed	 mov	 BYTE PTR _szEncAttack$[ebp+8], -19 ; ffffffedH
  001c4	eb 2c		 jmp	 SHORT $LN1@LoadAttack@3
$LN89@LoadAttack@3:
  001c6	88 55 eb	 mov	 BYTE PTR _szEncAttack$[ebp+7], dl
  001c9	eb 27		 jmp	 SHORT $LN1@LoadAttack@3
$LN90@LoadAttack@3:
  001cb	c6 45 ea eb	 mov	 BYTE PTR _szEncAttack$[ebp+6], -21 ; ffffffebH
  001cf	eb 21		 jmp	 SHORT $LN1@LoadAttack@3
$LN91@LoadAttack@3:
  001d1	88 5d e9	 mov	 BYTE PTR _szEncAttack$[ebp+5], bl
  001d4	eb 1c		 jmp	 SHORT $LN1@LoadAttack@3
$LN92@LoadAttack@3:
  001d6	c6 45 e8 ed	 mov	 BYTE PTR _szEncAttack$[ebp+4], -19 ; ffffffedH
  001da	eb 16		 jmp	 SHORT $LN1@LoadAttack@3
$LN93@LoadAttack@3:
  001dc	c6 45 e7 ea	 mov	 BYTE PTR _szEncAttack$[ebp+3], -22 ; ffffffeaH
  001e0	eb 10		 jmp	 SHORT $LN1@LoadAttack@3
$LN94@LoadAttack@3:
  001e2	c6 45 e6 eb	 mov	 BYTE PTR _szEncAttack$[ebp+2], -21 ; ffffffebH
  001e6	eb 0a		 jmp	 SHORT $LN1@LoadAttack@3
$LN95@LoadAttack@3:
  001e8	c6 45 e5 ec	 mov	 BYTE PTR _szEncAttack$[ebp+1], -20 ; ffffffecH
  001ec	eb 04		 jmp	 SHORT $LN1@LoadAttack@3
$LN96@LoadAttack@3:
  001ee	c6 45 e4 ed	 mov	 BYTE PTR _szEncAttack$[ebp], -19 ; ffffffedH
$LN1@LoadAttack@3:
  001f2	6a 04		 push	 4
  001f4	8d 45 e4	 lea	 eax, DWORD PTR _szEncAttack$[ebp]
  001f7	c6 45 f6 00	 mov	 BYTE PTR _szEncAttack$[ebp+18], 0
  001fb	59		 pop	 ecx
$LL104@LoadAttack@3:
  001fc	81 30 ed ec eb
	ea		 xor	 DWORD PTR [eax], -353637139 ; eaebecedH
  00202	83 c0 04	 add	 eax, 4
  00205	49		 dec	 ecx
  00206	75 f4		 jne	 SHORT $LL104@LoadAttack@3
  00208	6a 10		 push	 16			; 00000010H
  0020a	58		 pop	 eax
$LL101@LoadAttack@3:
  0020b	8b c8		 mov	 ecx, eax
  0020d	81 e1 03 00 00
	80		 and	 ecx, -2147483645	; 80000003H
  00213	79 05		 jns	 SHORT $LN111@LoadAttack@3
  00215	49		 dec	 ecx
  00216	83 c9 fc	 or	 ecx, -4			; fffffffcH
  00219	41		 inc	 ecx
$LN111@LoadAttack@3:
  0021a	b2 ed		 mov	 dl, -19			; ffffffedH
  0021c	2a d1		 sub	 dl, cl
  0021e	30 54 05 e4	 xor	 BYTE PTR _szEncAttack$[ebp+eax], dl
  00222	40		 inc	 eax
  00223	83 f8 12	 cmp	 eax, 18			; 00000012H
  00226	7c e3		 jl	 SHORT $LL101@LoadAttack@3

; 133  : 	LoadAttackAttribute(szEncAttack, rkAttribute, rkLoader);

  00228	57		 push	 edi
  00229	8d 45 e4	 lea	 eax, DWORD PTR _szEncAttack$[ebp]
  0022c	56		 push	 esi
  0022d	50		 push	 eax
  0022e	e8 00 00 00 00	 call	 ?LoadAttackAttribute@@YAXPBDAAUAttackAttribute@@AAVioINILoader@@@Z ; LoadAttackAttribute

; 134  : }

  00233	8b 4d fc	 mov	 ecx, DWORD PTR __$ArrayPad$[ebp]
  00236	83 c4 0c	 add	 esp, 12			; 0000000cH
  00239	5f		 pop	 edi
  0023a	5e		 pop	 esi
  0023b	33 cd		 xor	 ecx, ebp
  0023d	5b		 pop	 ebx
  0023e	e8 00 00 00 00	 call	 @__security_check_cookie@4
  00243	c9		 leave
  00244	c3		 ret	 0
??$LoadAttackAttribute_e@$0BD@@@YAXAAY0BD@$$CBDAAUAttackAttribute@@AAVioINILoader@@@Z ENDP ; LoadAttackAttribute_e<19>
_TEXT	ENDS
PUBLIC	__$ArrayPad$
PUBLIC	??$LoadFloat_e@$0P@@ioINILoader@@QAEMAAY0P@$$CBDM@Z ; ioINILoader::LoadFloat_e<15>
; Function compile flags: /Ogsp
; File d:\lost saga for developer\youtube\tutorial\source\src\io3dengine\ioiniloader.h
;	COMDAT ??$LoadFloat_e@$0P@@ioINILoader@@QAEMAAY0P@$$CBDM@Z
_TEXT	SEGMENT
__k$ = -24						; size = 15
__$ArrayPad$ = -4					; size = 4
_k$ = 8							; size = 4
_f$ = 12						; size = 4
??$LoadFloat_e@$0P@@ioINILoader@@QAEMAAY0P@$$CBDM@Z PROC ; ioINILoader::LoadFloat_e<15>, COMDAT
; _this$ = ecx

; 135  : 	{

  00000	55		 push	 ebp
  00001	8b ec		 mov	 ebp, esp
  00003	83 ec 18	 sub	 esp, 24			; 00000018H
  00006	a1 00 00 00 00	 mov	 eax, DWORD PTR ___security_cookie
  0000b	33 c5		 xor	 eax, ebp
  0000d	89 45 fc	 mov	 DWORD PTR __$ArrayPad$[ebp], eax
  00010	8b 45 08	 mov	 eax, DWORD PTR _k$[ebp]

; 136  : 		_ENCSTR(k, _k);

  00013	8a 10		 mov	 dl, BYTE PTR [eax]
  00015	56		 push	 esi
  00016	8b f1		 mov	 esi, ecx
  00018	84 d2		 test	 dl, dl
  0001a	0f 84 75 01 00
	00		 je	 $LN96@LoadFloat_@3
  00020	80 f2 ed	 xor	 dl, -19			; ffffffedH
  00023	88 55 e8	 mov	 BYTE PTR __k$[ebp], dl
  00026	8a 50 01	 mov	 dl, BYTE PTR [eax+1]
  00029	84 d2		 test	 dl, dl
  0002b	0f 84 5e 01 00
	00		 je	 $LN95@LoadFloat_@3
  00031	b1 ec		 mov	 cl, -20			; ffffffecH
  00033	32 d1		 xor	 dl, cl
  00035	88 55 e9	 mov	 BYTE PTR __k$[ebp+1], dl
  00038	8a 50 02	 mov	 dl, BYTE PTR [eax+2]
  0003b	84 d2		 test	 dl, dl
  0003d	0f 84 46 01 00
	00		 je	 $LN94@LoadFloat_@3
  00043	80 f2 eb	 xor	 dl, -21			; ffffffebH
  00046	88 55 ea	 mov	 BYTE PTR __k$[ebp+2], dl
  00049	8a 50 03	 mov	 dl, BYTE PTR [eax+3]
  0004c	84 d2		 test	 dl, dl
  0004e	0f 84 2f 01 00
	00		 je	 $LN93@LoadFloat_@3
  00054	80 f2 ea	 xor	 dl, -22			; ffffffeaH
  00057	88 55 eb	 mov	 BYTE PTR __k$[ebp+3], dl
  0005a	8a 50 04	 mov	 dl, BYTE PTR [eax+4]
  0005d	84 d2		 test	 dl, dl
  0005f	0f 84 18 01 00
	00		 je	 $LN92@LoadFloat_@3
  00065	80 f2 ed	 xor	 dl, -19			; ffffffedH
  00068	88 55 ec	 mov	 BYTE PTR __k$[ebp+4], dl
  0006b	8a 50 05	 mov	 dl, BYTE PTR [eax+5]
  0006e	84 d2		 test	 dl, dl
  00070	0f 84 02 01 00
	00		 je	 $LN91@LoadFloat_@3
  00076	32 d1		 xor	 dl, cl
  00078	88 55 ed	 mov	 BYTE PTR __k$[ebp+5], dl
  0007b	8a 50 06	 mov	 dl, BYTE PTR [eax+6]
  0007e	84 d2		 test	 dl, dl
  00080	0f 84 ec 00 00
	00		 je	 $LN90@LoadFloat_@3
  00086	80 f2 eb	 xor	 dl, -21			; ffffffebH
  00089	88 55 ee	 mov	 BYTE PTR __k$[ebp+6], dl
  0008c	8a 50 07	 mov	 dl, BYTE PTR [eax+7]
  0008f	84 d2		 test	 dl, dl
  00091	0f 84 d5 00 00
	00		 je	 $LN89@LoadFloat_@3
  00097	80 f2 ea	 xor	 dl, -22			; ffffffeaH
  0009a	88 55 ef	 mov	 BYTE PTR __k$[ebp+7], dl
  0009d	8a 50 08	 mov	 dl, BYTE PTR [eax+8]
  000a0	84 d2		 test	 dl, dl
  000a2	0f 84 be 00 00
	00		 je	 $LN88@LoadFloat_@3
  000a8	80 f2 ed	 xor	 dl, -19			; ffffffedH
  000ab	88 55 f0	 mov	 BYTE PTR __k$[ebp+8], dl
  000ae	8a 50 09	 mov	 dl, BYTE PTR [eax+9]
  000b1	84 d2		 test	 dl, dl
  000b3	0f 84 a8 00 00
	00		 je	 $LN87@LoadFloat_@3
  000b9	32 d1		 xor	 dl, cl
  000bb	88 55 f1	 mov	 BYTE PTR __k$[ebp+9], dl
  000be	8a 50 0a	 mov	 dl, BYTE PTR [eax+10]
  000c1	84 d2		 test	 dl, dl
  000c3	0f 84 92 00 00
	00		 je	 $LN86@LoadFloat_@3
  000c9	80 f2 eb	 xor	 dl, -21			; ffffffebH
  000cc	88 55 f2	 mov	 BYTE PTR __k$[ebp+10], dl
  000cf	8a 50 0b	 mov	 dl, BYTE PTR [eax+11]
  000d2	84 d2		 test	 dl, dl
  000d4	74 7f		 je	 SHORT $LN85@LoadFloat_@3
  000d6	80 f2 ea	 xor	 dl, -22			; ffffffeaH
  000d9	88 55 f3	 mov	 BYTE PTR __k$[ebp+11], dl
  000dc	8a 50 0c	 mov	 dl, BYTE PTR [eax+12]
  000df	84 d2		 test	 dl, dl
  000e1	74 6c		 je	 SHORT $LN84@LoadFloat_@3
  000e3	80 f2 ed	 xor	 dl, -19			; ffffffedH
  000e6	88 55 f4	 mov	 BYTE PTR __k$[ebp+12], dl
  000e9	8a 50 0d	 mov	 dl, BYTE PTR [eax+13]
  000ec	84 d2		 test	 dl, dl
  000ee	74 5a		 je	 SHORT $LN83@LoadFloat_@3
  000f0	32 d1		 xor	 dl, cl
  000f2	80 78 0e 00	 cmp	 BYTE PTR [eax+14], 0
  000f6	88 55 f5	 mov	 BYTE PTR __k$[ebp+13], dl
  000f9	0f 84 9a 00 00
	00		 je	 $LN1@LoadFloat_@3
  000ff	8a 50 0f	 mov	 dl, BYTE PTR [eax+15]
  00102	84 d2		 test	 dl, dl
  00104	74 3e		 je	 SHORT $LN81@LoadFloat_@3
  00106	80 f2 ea	 xor	 dl, -22			; ffffffeaH
  00109	88 55 f7	 mov	 BYTE PTR __k$[ebp+15], dl
  0010c	8a 50 10	 mov	 dl, BYTE PTR [eax+16]
  0010f	84 d2		 test	 dl, dl
  00111	74 2b		 je	 SHORT $LN80@LoadFloat_@3
  00113	80 f2 ed	 xor	 dl, -19			; ffffffedH
  00116	88 55 f8	 mov	 BYTE PTR __k$[ebp+16], dl
  00119	8a 50 11	 mov	 dl, BYTE PTR [eax+17]
  0011c	84 d2		 test	 dl, dl
  0011e	74 19		 je	 SHORT $LN79@LoadFloat_@3
  00120	8a 40 12	 mov	 al, BYTE PTR [eax+18]
  00123	32 d1		 xor	 dl, cl
  00125	88 55 f9	 mov	 BYTE PTR __k$[ebp+17], dl
  00128	84 c0		 test	 al, al
  0012a	74 07		 je	 SHORT $LN78@LoadFloat_@3
  0012c	34 eb		 xor	 al, -21			; ffffffebH
  0012e	88 45 fa	 mov	 BYTE PTR __k$[ebp+18], al
  00131	eb 66		 jmp	 SHORT $LN1@LoadFloat_@3
$LN78@LoadFloat_@3:
  00133	c6 45 fa eb	 mov	 BYTE PTR __k$[ebp+18], -21 ; ffffffebH
  00137	eb 60		 jmp	 SHORT $LN1@LoadFloat_@3
$LN79@LoadFloat_@3:
  00139	88 4d f9	 mov	 BYTE PTR __k$[ebp+17], cl
  0013c	eb 5b		 jmp	 SHORT $LN1@LoadFloat_@3
$LN80@LoadFloat_@3:
  0013e	c6 45 f8 ed	 mov	 BYTE PTR __k$[ebp+16], -19 ; ffffffedH
  00142	eb 55		 jmp	 SHORT $LN1@LoadFloat_@3
$LN81@LoadFloat_@3:
  00144	c6 45 f7 ea	 mov	 BYTE PTR __k$[ebp+15], -22 ; ffffffeaH
  00148	eb 4f		 jmp	 SHORT $LN1@LoadFloat_@3
$LN83@LoadFloat_@3:
  0014a	88 4d f5	 mov	 BYTE PTR __k$[ebp+13], cl
  0014d	eb 4a		 jmp	 SHORT $LN1@LoadFloat_@3
$LN84@LoadFloat_@3:
  0014f	c6 45 f4 ed	 mov	 BYTE PTR __k$[ebp+12], -19 ; ffffffedH
  00153	eb 44		 jmp	 SHORT $LN1@LoadFloat_@3
$LN85@LoadFloat_@3:
  00155	c6 45 f3 ea	 mov	 BYTE PTR __k$[ebp+11], -22 ; ffffffeaH
  00159	eb 3e		 jmp	 SHORT $LN1@LoadFloat_@3
$LN86@LoadFloat_@3:
  0015b	c6 45 f2 eb	 mov	 BYTE PTR __k$[ebp+10], -21 ; ffffffebH
  0015f	eb 38		 jmp	 SHORT $LN1@LoadFloat_@3
$LN87@LoadFloat_@3:
  00161	88 4d f1	 mov	 BYTE PTR __k$[ebp+9], cl
  00164	eb 33		 jmp	 SHORT $LN1@LoadFloat_@3
$LN88@LoadFloat_@3:
  00166	c6 45 f0 ed	 mov	 BYTE PTR __k$[ebp+8], -19 ; ffffffedH
  0016a	eb 2d		 jmp	 SHORT $LN1@LoadFloat_@3
$LN89@LoadFloat_@3:
  0016c	c6 45 ef ea	 mov	 BYTE PTR __k$[ebp+7], -22 ; ffffffeaH
  00170	eb 27		 jmp	 SHORT $LN1@LoadFloat_@3
$LN90@LoadFloat_@3:
  00172	c6 45 ee eb	 mov	 BYTE PTR __k$[ebp+6], -21 ; ffffffebH
  00176	eb 21		 jmp	 SHORT $LN1@LoadFloat_@3
$LN91@LoadFloat_@3:
  00178	88 4d ed	 mov	 BYTE PTR __k$[ebp+5], cl
  0017b	eb 1c		 jmp	 SHORT $LN1@LoadFloat_@3
$LN92@LoadFloat_@3:
  0017d	c6 45 ec ed	 mov	 BYTE PTR __k$[ebp+4], -19 ; ffffffedH
  00181	eb 16		 jmp	 SHORT $LN1@LoadFloat_@3
$LN93@LoadFloat_@3:
  00183	c6 45 eb ea	 mov	 BYTE PTR __k$[ebp+3], -22 ; ffffffeaH
  00187	eb 10		 jmp	 SHORT $LN1@LoadFloat_@3
$LN94@LoadFloat_@3:
  00189	c6 45 ea eb	 mov	 BYTE PTR __k$[ebp+2], -21 ; ffffffebH
  0018d	eb 0a		 jmp	 SHORT $LN1@LoadFloat_@3
$LN95@LoadFloat_@3:
  0018f	c6 45 e9 ec	 mov	 BYTE PTR __k$[ebp+1], -20 ; ffffffecH
  00193	eb 04		 jmp	 SHORT $LN1@LoadFloat_@3
$LN96@LoadFloat_@3:
  00195	c6 45 e8 ed	 mov	 BYTE PTR __k$[ebp], -19	; ffffffedH
$LN1@LoadFloat_@3:
  00199	6a 03		 push	 3
  0019b	8d 45 e8	 lea	 eax, DWORD PTR __k$[ebp]
  0019e	c6 45 f6 00	 mov	 BYTE PTR __k$[ebp+14], 0
  001a2	5a		 pop	 edx
$LL104@LoadFloat_@3:
  001a3	81 30 ed ec eb
	ea		 xor	 DWORD PTR [eax], -353637139 ; eaebecedH
  001a9	83 c0 04	 add	 eax, 4
  001ac	4a		 dec	 edx
  001ad	75 f4		 jne	 SHORT $LL104@LoadFloat_@3
  001af	6a 0c		 push	 12			; 0000000cH
  001b1	58		 pop	 eax
$LL101@LoadFloat_@3:
  001b2	8b c8		 mov	 ecx, eax
  001b4	81 e1 03 00 00
	80		 and	 ecx, -2147483645	; 80000003H
  001ba	79 05		 jns	 SHORT $LN111@LoadFloat_@3
  001bc	49		 dec	 ecx
  001bd	83 c9 fc	 or	 ecx, -4			; fffffffcH
  001c0	41		 inc	 ecx
$LN111@LoadFloat_@3:
  001c1	b2 ed		 mov	 dl, -19			; ffffffedH
  001c3	2a d1		 sub	 dl, cl
  001c5	30 54 05 e8	 xor	 BYTE PTR __k$[ebp+eax], dl
  001c9	40		 inc	 eax
  001ca	83 f8 0e	 cmp	 eax, 14			; 0000000eH
  001cd	7c e3		 jl	 SHORT $LL101@LoadFloat_@3

; 137  : 		return LoadFloat(_k, f);

  001cf	f3 0f 10 45 0c	 movss	 xmm0, DWORD PTR _f$[ebp]
  001d4	51		 push	 ecx
  001d5	8d 45 e8	 lea	 eax, DWORD PTR __k$[ebp]
  001d8	f3 0f 11 04 24	 movss	 DWORD PTR [esp], xmm0
  001dd	50		 push	 eax
  001de	8b ce		 mov	 ecx, esi
  001e0	ff 15 00 00 00
	00		 call	 DWORD PTR __imp_?LoadFloat@ioINILoader@@QAEMPBDM@Z

; 138  : 	}

  001e6	8b 4d fc	 mov	 ecx, DWORD PTR __$ArrayPad$[ebp]
  001e9	33 cd		 xor	 ecx, ebp
  001eb	5e		 pop	 esi
  001ec	e8 00 00 00 00	 call	 @__security_check_cookie@4
  001f1	c9		 leave
  001f2	c2 08 00	 ret	 8
??$LoadFloat_e@$0P@@ioINILoader@@QAEMAAY0P@$$CBDM@Z ENDP ; ioINILoader::LoadFloat_e<15>
_TEXT	ENDS
PUBLIC	__$ArrayPad$
PUBLIC	??$LoadBool_e@$0BK@@ioINILoader@@QAE_NAAY0BK@$$CBD_N@Z ; ioINILoader::LoadBool_e<26>
; Function compile flags: /Ogsp
;	COMDAT ??$LoadBool_e@$0BK@@ioINILoader@@QAE_NAAY0BK@$$CBD_N@Z
_TEXT	SEGMENT
__k$ = -36						; size = 26
__$ArrayPad$ = -4					; size = 4
_k$ = 8							; size = 4
_b$ = 12						; size = 1
??$LoadBool_e@$0BK@@ioINILoader@@QAE_NAAY0BK@$$CBD_N@Z PROC ; ioINILoader::LoadBool_e<26>, COMDAT
; _this$ = ecx

; 101  : 	{

  00000	55		 push	 ebp
  00001	8b ec		 mov	 ebp, esp
  00003	83 ec 24	 sub	 esp, 36			; 00000024H
  00006	a1 00 00 00 00	 mov	 eax, DWORD PTR ___security_cookie
  0000b	33 c5		 xor	 eax, ebp
  0000d	89 45 fc	 mov	 DWORD PTR __$ArrayPad$[ebp], eax
  00010	8b 45 08	 mov	 eax, DWORD PTR _k$[ebp]

; 102  : 		_ENCSTR(k, _k);

  00013	8a 10		 mov	 dl, BYTE PTR [eax]
  00015	53		 push	 ebx
  00016	56		 push	 esi
  00017	8b f1		 mov	 esi, ecx
  00019	84 d2		 test	 dl, dl
  0001b	0f 84 79 02 00
	00		 je	 $LN96@LoadBool_e@2
  00021	80 f2 ed	 xor	 dl, -19			; ffffffedH
  00024	88 55 dc	 mov	 BYTE PTR __k$[ebp], dl
  00027	8a 50 01	 mov	 dl, BYTE PTR [eax+1]
  0002a	84 d2		 test	 dl, dl
  0002c	0f 84 62 02 00
	00		 je	 $LN95@LoadBool_e@2
  00032	80 f2 ec	 xor	 dl, -20			; ffffffecH
  00035	88 55 dd	 mov	 BYTE PTR __k$[ebp+1], dl
  00038	8a 50 02	 mov	 dl, BYTE PTR [eax+2]
  0003b	84 d2		 test	 dl, dl
  0003d	0f 84 4b 02 00
	00		 je	 $LN94@LoadBool_e@2
  00043	b1 eb		 mov	 cl, -21			; ffffffebH
  00045	32 d1		 xor	 dl, cl
  00047	88 55 de	 mov	 BYTE PTR __k$[ebp+2], dl
  0004a	8a 50 03	 mov	 dl, BYTE PTR [eax+3]
  0004d	84 d2		 test	 dl, dl
  0004f	0f 84 33 02 00
	00		 je	 $LN93@LoadBool_e@2
  00055	b3 ea		 mov	 bl, -22			; ffffffeaH
  00057	32 d3		 xor	 dl, bl
  00059	88 55 df	 mov	 BYTE PTR __k$[ebp+3], dl
  0005c	8a 50 04	 mov	 dl, BYTE PTR [eax+4]
  0005f	84 d2		 test	 dl, dl
  00061	0f 84 1b 02 00
	00		 je	 $LN92@LoadBool_e@2
  00067	80 f2 ed	 xor	 dl, -19			; ffffffedH
  0006a	88 55 e0	 mov	 BYTE PTR __k$[ebp+4], dl
  0006d	8a 50 05	 mov	 dl, BYTE PTR [eax+5]
  00070	84 d2		 test	 dl, dl
  00072	0f 84 04 02 00
	00		 je	 $LN91@LoadBool_e@2
  00078	80 f2 ec	 xor	 dl, -20			; ffffffecH
  0007b	88 55 e1	 mov	 BYTE PTR __k$[ebp+5], dl
  0007e	8a 50 06	 mov	 dl, BYTE PTR [eax+6]
  00081	84 d2		 test	 dl, dl
  00083	0f 84 ee 01 00
	00		 je	 $LN90@LoadBool_e@2
  00089	32 d1		 xor	 dl, cl
  0008b	88 55 e2	 mov	 BYTE PTR __k$[ebp+6], dl
  0008e	8a 50 07	 mov	 dl, BYTE PTR [eax+7]
  00091	84 d2		 test	 dl, dl
  00093	0f 84 d9 01 00
	00		 je	 $LN89@LoadBool_e@2
  00099	32 d3		 xor	 dl, bl
  0009b	88 55 e3	 mov	 BYTE PTR __k$[ebp+7], dl
  0009e	8a 50 08	 mov	 dl, BYTE PTR [eax+8]
  000a1	84 d2		 test	 dl, dl
  000a3	0f 84 c3 01 00
	00		 je	 $LN88@LoadBool_e@2
  000a9	80 f2 ed	 xor	 dl, -19			; ffffffedH
  000ac	88 55 e4	 mov	 BYTE PTR __k$[ebp+8], dl
  000af	8a 50 09	 mov	 dl, BYTE PTR [eax+9]
  000b2	84 d2		 test	 dl, dl
  000b4	0f 84 ac 01 00
	00		 je	 $LN87@LoadBool_e@2
  000ba	80 f2 ec	 xor	 dl, -20			; ffffffecH
  000bd	88 55 e5	 mov	 BYTE PTR __k$[ebp+9], dl
  000c0	8a 50 0a	 mov	 dl, BYTE PTR [eax+10]
  000c3	84 d2		 test	 dl, dl
  000c5	0f 84 96 01 00
	00		 je	 $LN86@LoadBool_e@2
  000cb	32 d1		 xor	 dl, cl
  000cd	88 55 e6	 mov	 BYTE PTR __k$[ebp+10], dl
  000d0	8a 50 0b	 mov	 dl, BYTE PTR [eax+11]
  000d3	84 d2		 test	 dl, dl
  000d5	0f 84 81 01 00
	00		 je	 $LN85@LoadBool_e@2
  000db	32 d3		 xor	 dl, bl
  000dd	88 55 e7	 mov	 BYTE PTR __k$[ebp+11], dl
  000e0	8a 50 0c	 mov	 dl, BYTE PTR [eax+12]
  000e3	84 d2		 test	 dl, dl
  000e5	0f 84 6b 01 00
	00		 je	 $LN84@LoadBool_e@2
  000eb	80 f2 ed	 xor	 dl, -19			; ffffffedH
  000ee	88 55 e8	 mov	 BYTE PTR __k$[ebp+12], dl
  000f1	8a 50 0d	 mov	 dl, BYTE PTR [eax+13]
  000f4	84 d2		 test	 dl, dl
  000f6	0f 84 54 01 00
	00		 je	 $LN83@LoadBool_e@2
  000fc	80 f2 ec	 xor	 dl, -20			; ffffffecH
  000ff	88 55 e9	 mov	 BYTE PTR __k$[ebp+13], dl
  00102	8a 50 0e	 mov	 dl, BYTE PTR [eax+14]
  00105	84 d2		 test	 dl, dl
  00107	0f 84 3e 01 00
	00		 je	 $LN82@LoadBool_e@2
  0010d	32 d1		 xor	 dl, cl
  0010f	88 55 ea	 mov	 BYTE PTR __k$[ebp+14], dl
  00112	8a 50 0f	 mov	 dl, BYTE PTR [eax+15]
  00115	84 d2		 test	 dl, dl
  00117	0f 84 29 01 00
	00		 je	 $LN81@LoadBool_e@2
  0011d	32 d3		 xor	 dl, bl
  0011f	88 55 eb	 mov	 BYTE PTR __k$[ebp+15], dl
  00122	8a 50 10	 mov	 dl, BYTE PTR [eax+16]
  00125	84 d2		 test	 dl, dl
  00127	0f 84 13 01 00
	00		 je	 $LN80@LoadBool_e@2
  0012d	80 f2 ed	 xor	 dl, -19			; ffffffedH
  00130	88 55 ec	 mov	 BYTE PTR __k$[ebp+16], dl
  00133	8a 50 11	 mov	 dl, BYTE PTR [eax+17]
  00136	84 d2		 test	 dl, dl
  00138	0f 84 fc 00 00
	00		 je	 $LN79@LoadBool_e@2
  0013e	80 f2 ec	 xor	 dl, -20			; ffffffecH
  00141	88 55 ed	 mov	 BYTE PTR __k$[ebp+17], dl
  00144	8a 50 12	 mov	 dl, BYTE PTR [eax+18]
  00147	84 d2		 test	 dl, dl
  00149	0f 84 e6 00 00
	00		 je	 $LN78@LoadBool_e@2
  0014f	32 d1		 xor	 dl, cl
  00151	88 55 ee	 mov	 BYTE PTR __k$[ebp+18], dl
  00154	8a 50 13	 mov	 dl, BYTE PTR [eax+19]
  00157	84 d2		 test	 dl, dl
  00159	0f 84 d1 00 00
	00		 je	 $LN77@LoadBool_e@2
  0015f	32 d3		 xor	 dl, bl
  00161	88 55 ef	 mov	 BYTE PTR __k$[ebp+19], dl
  00164	8a 50 14	 mov	 dl, BYTE PTR [eax+20]
  00167	84 d2		 test	 dl, dl
  00169	0f 84 bb 00 00
	00		 je	 $LN76@LoadBool_e@2
  0016f	80 f2 ed	 xor	 dl, -19			; ffffffedH
  00172	88 55 f0	 mov	 BYTE PTR __k$[ebp+20], dl
  00175	8a 50 15	 mov	 dl, BYTE PTR [eax+21]
  00178	84 d2		 test	 dl, dl
  0017a	0f 84 a4 00 00
	00		 je	 $LN75@LoadBool_e@2
  00180	80 f2 ec	 xor	 dl, -20			; ffffffecH
  00183	88 55 f1	 mov	 BYTE PTR __k$[ebp+21], dl
  00186	8a 50 16	 mov	 dl, BYTE PTR [eax+22]
  00189	84 d2		 test	 dl, dl
  0018b	0f 84 8e 00 00
	00		 je	 $LN74@LoadBool_e@2
  00191	32 d1		 xor	 dl, cl
  00193	88 55 f2	 mov	 BYTE PTR __k$[ebp+22], dl
  00196	8a 50 17	 mov	 dl, BYTE PTR [eax+23]
  00199	84 d2		 test	 dl, dl
  0019b	74 7d		 je	 SHORT $LN73@LoadBool_e@2
  0019d	32 d3		 xor	 dl, bl
  0019f	88 55 f3	 mov	 BYTE PTR __k$[ebp+23], dl
  001a2	8a 50 18	 mov	 dl, BYTE PTR [eax+24]
  001a5	84 d2		 test	 dl, dl
  001a7	74 68		 je	 SHORT $LN72@LoadBool_e@2
  001a9	80 f2 ed	 xor	 dl, -19			; ffffffedH
  001ac	80 78 19 00	 cmp	 BYTE PTR [eax+25], 0
  001b0	88 55 f4	 mov	 BYTE PTR __k$[ebp+24], dl
  001b3	0f 84 e5 00 00
	00		 je	 $LN1@LoadBool_e@2
  001b9	8a 50 1a	 mov	 dl, BYTE PTR [eax+26]
  001bc	84 d2		 test	 dl, dl
  001be	74 49		 je	 SHORT $LN70@LoadBool_e@2
  001c0	32 d1		 xor	 dl, cl
  001c2	88 55 f6	 mov	 BYTE PTR __k$[ebp+26], dl
  001c5	8a 50 1b	 mov	 dl, BYTE PTR [eax+27]
  001c8	84 d2		 test	 dl, dl
  001ca	74 35		 je	 SHORT $LN69@LoadBool_e@2
  001cc	32 d3		 xor	 dl, bl
  001ce	88 55 f7	 mov	 BYTE PTR __k$[ebp+27], dl
  001d1	8a 50 1c	 mov	 dl, BYTE PTR [eax+28]
  001d4	84 d2		 test	 dl, dl
  001d6	74 20		 je	 SHORT $LN68@LoadBool_e@2
  001d8	8a 40 1d	 mov	 al, BYTE PTR [eax+29]
  001db	80 f2 ed	 xor	 dl, -19			; ffffffedH
  001de	88 55 f8	 mov	 BYTE PTR __k$[ebp+28], dl
  001e1	84 c0		 test	 al, al
  001e3	74 0a		 je	 SHORT $LN67@LoadBool_e@2
  001e5	34 ec		 xor	 al, -20			; ffffffecH
  001e7	88 45 f9	 mov	 BYTE PTR __k$[ebp+29], al
  001ea	e9 af 00 00 00	 jmp	 $LN1@LoadBool_e@2
$LN67@LoadBool_e@2:
  001ef	c6 45 f9 ec	 mov	 BYTE PTR __k$[ebp+29], -20 ; ffffffecH
  001f3	e9 a6 00 00 00	 jmp	 $LN1@LoadBool_e@2
$LN68@LoadBool_e@2:
  001f8	c6 45 f8 ed	 mov	 BYTE PTR __k$[ebp+28], -19 ; ffffffedH
  001fc	e9 9d 00 00 00	 jmp	 $LN1@LoadBool_e@2
$LN69@LoadBool_e@2:
  00201	88 5d f7	 mov	 BYTE PTR __k$[ebp+27], bl
  00204	e9 95 00 00 00	 jmp	 $LN1@LoadBool_e@2
$LN70@LoadBool_e@2:
  00209	88 4d f6	 mov	 BYTE PTR __k$[ebp+26], cl
  0020c	e9 8d 00 00 00	 jmp	 $LN1@LoadBool_e@2
$LN72@LoadBool_e@2:
  00211	c6 45 f4 ed	 mov	 BYTE PTR __k$[ebp+24], -19 ; ffffffedH
  00215	e9 84 00 00 00	 jmp	 $LN1@LoadBool_e@2
$LN73@LoadBool_e@2:
  0021a	88 5d f3	 mov	 BYTE PTR __k$[ebp+23], bl
  0021d	eb 7f		 jmp	 SHORT $LN1@LoadBool_e@2
$LN74@LoadBool_e@2:
  0021f	88 4d f2	 mov	 BYTE PTR __k$[ebp+22], cl
  00222	eb 7a		 jmp	 SHORT $LN1@LoadBool_e@2
$LN75@LoadBool_e@2:
  00224	c6 45 f1 ec	 mov	 BYTE PTR __k$[ebp+21], -20 ; ffffffecH
  00228	eb 74		 jmp	 SHORT $LN1@LoadBool_e@2
$LN76@LoadBool_e@2:
  0022a	c6 45 f0 ed	 mov	 BYTE PTR __k$[ebp+20], -19 ; ffffffedH
  0022e	eb 6e		 jmp	 SHORT $LN1@LoadBool_e@2
$LN77@LoadBool_e@2:
  00230	88 5d ef	 mov	 BYTE PTR __k$[ebp+19], bl
  00233	eb 69		 jmp	 SHORT $LN1@LoadBool_e@2
$LN78@LoadBool_e@2:
  00235	88 4d ee	 mov	 BYTE PTR __k$[ebp+18], cl
  00238	eb 64		 jmp	 SHORT $LN1@LoadBool_e@2
$LN79@LoadBool_e@2:
  0023a	c6 45 ed ec	 mov	 BYTE PTR __k$[ebp+17], -20 ; ffffffecH
  0023e	eb 5e		 jmp	 SHORT $LN1@LoadBool_e@2
$LN80@LoadBool_e@2:
  00240	c6 45 ec ed	 mov	 BYTE PTR __k$[ebp+16], -19 ; ffffffedH
  00244	eb 58		 jmp	 SHORT $LN1@LoadBool_e@2
$LN81@LoadBool_e@2:
  00246	88 5d eb	 mov	 BYTE PTR __k$[ebp+15], bl
  00249	eb 53		 jmp	 SHORT $LN1@LoadBool_e@2
$LN82@LoadBool_e@2:
  0024b	88 4d ea	 mov	 BYTE PTR __k$[ebp+14], cl
  0024e	eb 4e		 jmp	 SHORT $LN1@LoadBool_e@2
$LN83@LoadBool_e@2:
  00250	c6 45 e9 ec	 mov	 BYTE PTR __k$[ebp+13], -20 ; ffffffecH
  00254	eb 48		 jmp	 SHORT $LN1@LoadBool_e@2
$LN84@LoadBool_e@2:
  00256	c6 45 e8 ed	 mov	 BYTE PTR __k$[ebp+12], -19 ; ffffffedH
  0025a	eb 42		 jmp	 SHORT $LN1@LoadBool_e@2
$LN85@LoadBool_e@2:
  0025c	88 5d e7	 mov	 BYTE PTR __k$[ebp+11], bl
  0025f	eb 3d		 jmp	 SHORT $LN1@LoadBool_e@2
$LN86@LoadBool_e@2:
  00261	88 4d e6	 mov	 BYTE PTR __k$[ebp+10], cl
  00264	eb 38		 jmp	 SHORT $LN1@LoadBool_e@2
$LN87@LoadBool_e@2:
  00266	c6 45 e5 ec	 mov	 BYTE PTR __k$[ebp+9], -20 ; ffffffecH
  0026a	eb 32		 jmp	 SHORT $LN1@LoadBool_e@2
$LN88@LoadBool_e@2:
  0026c	c6 45 e4 ed	 mov	 BYTE PTR __k$[ebp+8], -19 ; ffffffedH
  00270	eb 2c		 jmp	 SHORT $LN1@LoadBool_e@2
$LN89@LoadBool_e@2:
  00272	88 5d e3	 mov	 BYTE PTR __k$[ebp+7], bl
  00275	eb 27		 jmp	 SHORT $LN1@LoadBool_e@2
$LN90@LoadBool_e@2:
  00277	88 4d e2	 mov	 BYTE PTR __k$[ebp+6], cl
  0027a	eb 22		 jmp	 SHORT $LN1@LoadBool_e@2
$LN91@LoadBool_e@2:
  0027c	c6 45 e1 ec	 mov	 BYTE PTR __k$[ebp+5], -20 ; ffffffecH
  00280	eb 1c		 jmp	 SHORT $LN1@LoadBool_e@2
$LN92@LoadBool_e@2:
  00282	c6 45 e0 ed	 mov	 BYTE PTR __k$[ebp+4], -19 ; ffffffedH
  00286	eb 16		 jmp	 SHORT $LN1@LoadBool_e@2
$LN93@LoadBool_e@2:
  00288	c6 45 df ea	 mov	 BYTE PTR __k$[ebp+3], -22 ; ffffffeaH
  0028c	eb 10		 jmp	 SHORT $LN1@LoadBool_e@2
$LN94@LoadBool_e@2:
  0028e	c6 45 de eb	 mov	 BYTE PTR __k$[ebp+2], -21 ; ffffffebH
  00292	eb 0a		 jmp	 SHORT $LN1@LoadBool_e@2
$LN95@LoadBool_e@2:
  00294	c6 45 dd ec	 mov	 BYTE PTR __k$[ebp+1], -20 ; ffffffecH
  00298	eb 04		 jmp	 SHORT $LN1@LoadBool_e@2
$LN96@LoadBool_e@2:
  0029a	c6 45 dc ed	 mov	 BYTE PTR __k$[ebp], -19	; ffffffedH
$LN1@LoadBool_e@2:
  0029e	6a 06		 push	 6
  002a0	8d 45 dc	 lea	 eax, DWORD PTR __k$[ebp]
  002a3	c6 45 f5 00	 mov	 BYTE PTR __k$[ebp+25], 0
  002a7	5a		 pop	 edx
$LL104@LoadBool_e@2:
  002a8	81 30 ed ec eb
	ea		 xor	 DWORD PTR [eax], -353637139 ; eaebecedH
  002ae	83 c0 04	 add	 eax, 4
  002b1	4a		 dec	 edx
  002b2	75 f4		 jne	 SHORT $LL104@LoadBool_e@2

; 103  : 		return LoadBool(_k, b);

  002b4	ff 75 0c	 push	 DWORD PTR _b$[ebp]
  002b7	80 75 f4 ed	 xor	 BYTE PTR __k$[ebp+24], -19 ; ffffffedH
  002bb	8d 45 dc	 lea	 eax, DWORD PTR __k$[ebp]
  002be	50		 push	 eax
  002bf	8b ce		 mov	 ecx, esi
  002c1	ff 15 00 00 00
	00		 call	 DWORD PTR __imp_?LoadBool@ioINILoader@@QAE_NPBD_N@Z

; 104  : 	}

  002c7	8b 4d fc	 mov	 ecx, DWORD PTR __$ArrayPad$[ebp]
  002ca	5e		 pop	 esi
  002cb	33 cd		 xor	 ecx, ebp
  002cd	5b		 pop	 ebx
  002ce	e8 00 00 00 00	 call	 @__security_check_cookie@4
  002d3	c9		 leave
  002d4	c2 08 00	 ret	 8
??$LoadBool_e@$0BK@@ioINILoader@@QAE_NAAY0BK@$$CBD_N@Z ENDP ; ioINILoader::LoadBool_e<26>
_TEXT	ENDS
PUBLIC	__$ArrayPad$
PUBLIC	??$LoadInt_e@$0BB@@ioINILoader@@QAEHAAY0BB@$$CBDH@Z ; ioINILoader::LoadInt_e<17>
; Function compile flags: /Ogsp
;	COMDAT ??$LoadInt_e@$0BB@@ioINILoader@@QAEHAAY0BB@$$CBDH@Z
_TEXT	SEGMENT
__k$ = -28						; size = 17
__$ArrayPad$ = -4					; size = 4
_k$ = 8							; size = 4
_i$ = 12						; size = 4
??$LoadInt_e@$0BB@@ioINILoader@@QAEHAAY0BB@$$CBDH@Z PROC ; ioINILoader::LoadInt_e<17>, COMDAT
; _this$ = ecx

; 118  : 	{

  00000	55		 push	 ebp
  00001	8b ec		 mov	 ebp, esp
  00003	83 ec 1c	 sub	 esp, 28			; 0000001cH
  00006	a1 00 00 00 00	 mov	 eax, DWORD PTR ___security_cookie
  0000b	33 c5		 xor	 eax, ebp
  0000d	89 45 fc	 mov	 DWORD PTR __$ArrayPad$[ebp], eax
  00010	8b 45 08	 mov	 eax, DWORD PTR _k$[ebp]

; 119  : 		_ENCSTR(k, _k);

  00013	8a 10		 mov	 dl, BYTE PTR [eax]
  00015	56		 push	 esi
  00016	8b f1		 mov	 esi, ecx
  00018	84 d2		 test	 dl, dl
  0001a	0f 84 a7 01 00
	00		 je	 $LN96@LoadInt_e@2
  00020	80 f2 ed	 xor	 dl, -19			; ffffffedH
  00023	88 55 e4	 mov	 BYTE PTR __k$[ebp], dl
  00026	8a 50 01	 mov	 dl, BYTE PTR [eax+1]
  00029	84 d2		 test	 dl, dl
  0002b	0f 84 90 01 00
	00		 je	 $LN95@LoadInt_e@2
  00031	b1 ec		 mov	 cl, -20			; ffffffecH
  00033	32 d1		 xor	 dl, cl
  00035	88 55 e5	 mov	 BYTE PTR __k$[ebp+1], dl
  00038	8a 50 02	 mov	 dl, BYTE PTR [eax+2]
  0003b	84 d2		 test	 dl, dl
  0003d	0f 84 78 01 00
	00		 je	 $LN94@LoadInt_e@2
  00043	80 f2 eb	 xor	 dl, -21			; ffffffebH
  00046	88 55 e6	 mov	 BYTE PTR __k$[ebp+2], dl
  00049	8a 50 03	 mov	 dl, BYTE PTR [eax+3]
  0004c	84 d2		 test	 dl, dl
  0004e	0f 84 61 01 00
	00		 je	 $LN93@LoadInt_e@2
  00054	80 f2 ea	 xor	 dl, -22			; ffffffeaH
  00057	88 55 e7	 mov	 BYTE PTR __k$[ebp+3], dl
  0005a	8a 50 04	 mov	 dl, BYTE PTR [eax+4]
  0005d	84 d2		 test	 dl, dl
  0005f	0f 84 4a 01 00
	00		 je	 $LN92@LoadInt_e@2
  00065	80 f2 ed	 xor	 dl, -19			; ffffffedH
  00068	88 55 e8	 mov	 BYTE PTR __k$[ebp+4], dl
  0006b	8a 50 05	 mov	 dl, BYTE PTR [eax+5]
  0006e	84 d2		 test	 dl, dl
  00070	0f 84 34 01 00
	00		 je	 $LN91@LoadInt_e@2
  00076	32 d1		 xor	 dl, cl
  00078	88 55 e9	 mov	 BYTE PTR __k$[ebp+5], dl
  0007b	8a 50 06	 mov	 dl, BYTE PTR [eax+6]
  0007e	84 d2		 test	 dl, dl
  00080	0f 84 1e 01 00
	00		 je	 $LN90@LoadInt_e@2
  00086	80 f2 eb	 xor	 dl, -21			; ffffffebH
  00089	88 55 ea	 mov	 BYTE PTR __k$[ebp+6], dl
  0008c	8a 50 07	 mov	 dl, BYTE PTR [eax+7]
  0008f	84 d2		 test	 dl, dl
  00091	0f 84 07 01 00
	00		 je	 $LN89@LoadInt_e@2
  00097	80 f2 ea	 xor	 dl, -22			; ffffffeaH
  0009a	88 55 eb	 mov	 BYTE PTR __k$[ebp+7], dl
  0009d	8a 50 08	 mov	 dl, BYTE PTR [eax+8]
  000a0	84 d2		 test	 dl, dl
  000a2	0f 84 f0 00 00
	00		 je	 $LN88@LoadInt_e@2
  000a8	80 f2 ed	 xor	 dl, -19			; ffffffedH
  000ab	88 55 ec	 mov	 BYTE PTR __k$[ebp+8], dl
  000ae	8a 50 09	 mov	 dl, BYTE PTR [eax+9]
  000b1	84 d2		 test	 dl, dl
  000b3	0f 84 da 00 00
	00		 je	 $LN87@LoadInt_e@2
  000b9	32 d1		 xor	 dl, cl
  000bb	88 55 ed	 mov	 BYTE PTR __k$[ebp+9], dl
  000be	8a 50 0a	 mov	 dl, BYTE PTR [eax+10]
  000c1	84 d2		 test	 dl, dl
  000c3	0f 84 c4 00 00
	00		 je	 $LN86@LoadInt_e@2
  000c9	80 f2 eb	 xor	 dl, -21			; ffffffebH
  000cc	88 55 ee	 mov	 BYTE PTR __k$[ebp+10], dl
  000cf	8a 50 0b	 mov	 dl, BYTE PTR [eax+11]
  000d2	84 d2		 test	 dl, dl
  000d4	0f 84 ad 00 00
	00		 je	 $LN85@LoadInt_e@2
  000da	80 f2 ea	 xor	 dl, -22			; ffffffeaH
  000dd	88 55 ef	 mov	 BYTE PTR __k$[ebp+11], dl
  000e0	8a 50 0c	 mov	 dl, BYTE PTR [eax+12]
  000e3	84 d2		 test	 dl, dl
  000e5	0f 84 96 00 00
	00		 je	 $LN84@LoadInt_e@2
  000eb	80 f2 ed	 xor	 dl, -19			; ffffffedH
  000ee	88 55 f0	 mov	 BYTE PTR __k$[ebp+12], dl
  000f1	8a 50 0d	 mov	 dl, BYTE PTR [eax+13]
  000f4	84 d2		 test	 dl, dl
  000f6	0f 84 80 00 00
	00		 je	 $LN83@LoadInt_e@2
  000fc	32 d1		 xor	 dl, cl
  000fe	88 55 f1	 mov	 BYTE PTR __k$[ebp+13], dl
  00101	8a 50 0e	 mov	 dl, BYTE PTR [eax+14]
  00104	84 d2		 test	 dl, dl
  00106	74 6e		 je	 SHORT $LN82@LoadInt_e@2
  00108	80 f2 eb	 xor	 dl, -21			; ffffffebH
  0010b	88 55 f2	 mov	 BYTE PTR __k$[ebp+14], dl
  0010e	8a 50 0f	 mov	 dl, BYTE PTR [eax+15]
  00111	84 d2		 test	 dl, dl
  00113	74 5b		 je	 SHORT $LN81@LoadInt_e@2
  00115	80 f2 ea	 xor	 dl, -22			; ffffffeaH
  00118	80 78 10 00	 cmp	 BYTE PTR [eax+16], 0
  0011c	88 55 f3	 mov	 BYTE PTR __k$[ebp+15], dl
  0011f	0f 84 a6 00 00
	00		 je	 $LN1@LoadInt_e@2
  00125	8a 50 11	 mov	 dl, BYTE PTR [eax+17]
  00128	84 d2		 test	 dl, dl
  0012a	74 3f		 je	 SHORT $LN79@LoadInt_e@2
  0012c	32 d1		 xor	 dl, cl
  0012e	88 55 f5	 mov	 BYTE PTR __k$[ebp+17], dl
  00131	8a 50 12	 mov	 dl, BYTE PTR [eax+18]
  00134	84 d2		 test	 dl, dl
  00136	74 2d		 je	 SHORT $LN78@LoadInt_e@2
  00138	80 f2 eb	 xor	 dl, -21			; ffffffebH
  0013b	88 55 f6	 mov	 BYTE PTR __k$[ebp+18], dl
  0013e	8a 50 13	 mov	 dl, BYTE PTR [eax+19]
  00141	84 d2		 test	 dl, dl
  00143	74 1a		 je	 SHORT $LN77@LoadInt_e@2
  00145	8a 40 14	 mov	 al, BYTE PTR [eax+20]
  00148	80 f2 ea	 xor	 dl, -22			; ffffffeaH
  0014b	88 55 f7	 mov	 BYTE PTR __k$[ebp+19], dl
  0014e	84 c0		 test	 al, al
  00150	74 07		 je	 SHORT $LN76@LoadInt_e@2
  00152	34 ed		 xor	 al, -19			; ffffffedH
  00154	88 45 f8	 mov	 BYTE PTR __k$[ebp+20], al
  00157	eb 72		 jmp	 SHORT $LN1@LoadInt_e@2
$LN76@LoadInt_e@2:
  00159	c6 45 f8 ed	 mov	 BYTE PTR __k$[ebp+20], -19 ; ffffffedH
  0015d	eb 6c		 jmp	 SHORT $LN1@LoadInt_e@2
$LN77@LoadInt_e@2:
  0015f	c6 45 f7 ea	 mov	 BYTE PTR __k$[ebp+19], -22 ; ffffffeaH
  00163	eb 66		 jmp	 SHORT $LN1@LoadInt_e@2
$LN78@LoadInt_e@2:
  00165	c6 45 f6 eb	 mov	 BYTE PTR __k$[ebp+18], -21 ; ffffffebH
  00169	eb 60		 jmp	 SHORT $LN1@LoadInt_e@2
$LN79@LoadInt_e@2:
  0016b	88 4d f5	 mov	 BYTE PTR __k$[ebp+17], cl
  0016e	eb 5b		 jmp	 SHORT $LN1@LoadInt_e@2
$LN81@LoadInt_e@2:
  00170	c6 45 f3 ea	 mov	 BYTE PTR __k$[ebp+15], -22 ; ffffffeaH
  00174	eb 55		 jmp	 SHORT $LN1@LoadInt_e@2
$LN82@LoadInt_e@2:
  00176	c6 45 f2 eb	 mov	 BYTE PTR __k$[ebp+14], -21 ; ffffffebH
  0017a	eb 4f		 jmp	 SHORT $LN1@LoadInt_e@2
$LN83@LoadInt_e@2:
  0017c	88 4d f1	 mov	 BYTE PTR __k$[ebp+13], cl
  0017f	eb 4a		 jmp	 SHORT $LN1@LoadInt_e@2
$LN84@LoadInt_e@2:
  00181	c6 45 f0 ed	 mov	 BYTE PTR __k$[ebp+12], -19 ; ffffffedH
  00185	eb 44		 jmp	 SHORT $LN1@LoadInt_e@2
$LN85@LoadInt_e@2:
  00187	c6 45 ef ea	 mov	 BYTE PTR __k$[ebp+11], -22 ; ffffffeaH
  0018b	eb 3e		 jmp	 SHORT $LN1@LoadInt_e@2
$LN86@LoadInt_e@2:
  0018d	c6 45 ee eb	 mov	 BYTE PTR __k$[ebp+10], -21 ; ffffffebH
  00191	eb 38		 jmp	 SHORT $LN1@LoadInt_e@2
$LN87@LoadInt_e@2:
  00193	88 4d ed	 mov	 BYTE PTR __k$[ebp+9], cl
  00196	eb 33		 jmp	 SHORT $LN1@LoadInt_e@2
$LN88@LoadInt_e@2:
  00198	c6 45 ec ed	 mov	 BYTE PTR __k$[ebp+8], -19 ; ffffffedH
  0019c	eb 2d		 jmp	 SHORT $LN1@LoadInt_e@2
$LN89@LoadInt_e@2:
  0019e	c6 45 eb ea	 mov	 BYTE PTR __k$[ebp+7], -22 ; ffffffeaH
  001a2	eb 27		 jmp	 SHORT $LN1@LoadInt_e@2
$LN90@LoadInt_e@2:
  001a4	c6 45 ea eb	 mov	 BYTE PTR __k$[ebp+6], -21 ; ffffffebH
  001a8	eb 21		 jmp	 SHORT $LN1@LoadInt_e@2
$LN91@LoadInt_e@2:
  001aa	88 4d e9	 mov	 BYTE PTR __k$[ebp+5], cl
  001ad	eb 1c		 jmp	 SHORT $LN1@LoadInt_e@2
$LN92@LoadInt_e@2:
  001af	c6 45 e8 ed	 mov	 BYTE PTR __k$[ebp+4], -19 ; ffffffedH
  001b3	eb 16		 jmp	 SHORT $LN1@LoadInt_e@2
$LN93@LoadInt_e@2:
  001b5	c6 45 e7 ea	 mov	 BYTE PTR __k$[ebp+3], -22 ; ffffffeaH
  001b9	eb 10		 jmp	 SHORT $LN1@LoadInt_e@2
$LN94@LoadInt_e@2:
  001bb	c6 45 e6 eb	 mov	 BYTE PTR __k$[ebp+2], -21 ; ffffffebH
  001bf	eb 0a		 jmp	 SHORT $LN1@LoadInt_e@2
$LN95@LoadInt_e@2:
  001c1	c6 45 e5 ec	 mov	 BYTE PTR __k$[ebp+1], -20 ; ffffffecH
  001c5	eb 04		 jmp	 SHORT $LN1@LoadInt_e@2
$LN96@LoadInt_e@2:
  001c7	c6 45 e4 ed	 mov	 BYTE PTR __k$[ebp], -19	; ffffffedH
$LN1@LoadInt_e@2:
  001cb	6a 04		 push	 4
  001cd	8d 45 e4	 lea	 eax, DWORD PTR __k$[ebp]
  001d0	c6 45 f4 00	 mov	 BYTE PTR __k$[ebp+16], 0
  001d4	5a		 pop	 edx
$LL104@LoadInt_e@2:
  001d5	81 30 ed ec eb
	ea		 xor	 DWORD PTR [eax], -353637139 ; eaebecedH
  001db	83 c0 04	 add	 eax, 4
  001de	4a		 dec	 edx
  001df	75 f4		 jne	 SHORT $LL104@LoadInt_e@2

; 120  : 		return LoadInt(_k, i);

  001e1	ff 75 0c	 push	 DWORD PTR _i$[ebp]
  001e4	8d 45 e4	 lea	 eax, DWORD PTR __k$[ebp]
  001e7	50		 push	 eax
  001e8	8b ce		 mov	 ecx, esi
  001ea	ff 15 00 00 00
	00		 call	 DWORD PTR __imp_?LoadInt@ioINILoader@@QAEHPBDH@Z

; 121  : 	}

  001f0	8b 4d fc	 mov	 ecx, DWORD PTR __$ArrayPad$[ebp]
  001f3	33 cd		 xor	 ecx, ebp
  001f5	5e		 pop	 esi
  001f6	e8 00 00 00 00	 call	 @__security_check_cookie@4
  001fb	c9		 leave
  001fc	c2 08 00	 ret	 8
??$LoadInt_e@$0BB@@ioINILoader@@QAEHAAY0BB@$$CBDH@Z ENDP ; ioINILoader::LoadInt_e<17>
_TEXT	ENDS
PUBLIC	__$ArrayPad$
PUBLIC	??$LoadBool_e@$0BB@@ioINILoader@@QAE_NAAY0BB@$$CBD_N@Z ; ioINILoader::LoadBool_e<17>
; Function compile flags: /Ogsp
;	COMDAT ??$LoadBool_e@$0BB@@ioINILoader@@QAE_NAAY0BB@$$CBD_N@Z
_TEXT	SEGMENT
__k$ = -28						; size = 17
__$ArrayPad$ = -4					; size = 4
_k$ = 8							; size = 4
_b$ = 12						; size = 1
??$LoadBool_e@$0BB@@ioINILoader@@QAE_NAAY0BB@$$CBD_N@Z PROC ; ioINILoader::LoadBool_e<17>, COMDAT
; _this$ = ecx

; 101  : 	{

  00000	55		 push	 ebp
  00001	8b ec		 mov	 ebp, esp
  00003	83 ec 1c	 sub	 esp, 28			; 0000001cH
  00006	a1 00 00 00 00	 mov	 eax, DWORD PTR ___security_cookie
  0000b	33 c5		 xor	 eax, ebp
  0000d	89 45 fc	 mov	 DWORD PTR __$ArrayPad$[ebp], eax
  00010	8b 45 08	 mov	 eax, DWORD PTR _k$[ebp]

; 102  : 		_ENCSTR(k, _k);

  00013	8a 10		 mov	 dl, BYTE PTR [eax]
  00015	56		 push	 esi
  00016	8b f1		 mov	 esi, ecx
  00018	84 d2		 test	 dl, dl
  0001a	0f 84 a7 01 00
	00		 je	 $LN96@LoadBool_e@3
  00020	80 f2 ed	 xor	 dl, -19			; ffffffedH
  00023	88 55 e4	 mov	 BYTE PTR __k$[ebp], dl
  00026	8a 50 01	 mov	 dl, BYTE PTR [eax+1]
  00029	84 d2		 test	 dl, dl
  0002b	0f 84 90 01 00
	00		 je	 $LN95@LoadBool_e@3
  00031	b1 ec		 mov	 cl, -20			; ffffffecH
  00033	32 d1		 xor	 dl, cl
  00035	88 55 e5	 mov	 BYTE PTR __k$[ebp+1], dl
  00038	8a 50 02	 mov	 dl, BYTE PTR [eax+2]
  0003b	84 d2		 test	 dl, dl
  0003d	0f 84 78 01 00
	00		 je	 $LN94@LoadBool_e@3
  00043	80 f2 eb	 xor	 dl, -21			; ffffffebH
  00046	88 55 e6	 mov	 BYTE PTR __k$[ebp+2], dl
  00049	8a 50 03	 mov	 dl, BYTE PTR [eax+3]
  0004c	84 d2		 test	 dl, dl
  0004e	0f 84 61 01 00
	00		 je	 $LN93@LoadBool_e@3
  00054	80 f2 ea	 xor	 dl, -22			; ffffffeaH
  00057	88 55 e7	 mov	 BYTE PTR __k$[ebp+3], dl
  0005a	8a 50 04	 mov	 dl, BYTE PTR [eax+4]
  0005d	84 d2		 test	 dl, dl
  0005f	0f 84 4a 01 00
	00		 je	 $LN92@LoadBool_e@3
  00065	80 f2 ed	 xor	 dl, -19			; ffffffedH
  00068	88 55 e8	 mov	 BYTE PTR __k$[ebp+4], dl
  0006b	8a 50 05	 mov	 dl, BYTE PTR [eax+5]
  0006e	84 d2		 test	 dl, dl
  00070	0f 84 34 01 00
	00		 je	 $LN91@LoadBool_e@3
  00076	32 d1		 xor	 dl, cl
  00078	88 55 e9	 mov	 BYTE PTR __k$[ebp+5], dl
  0007b	8a 50 06	 mov	 dl, BYTE PTR [eax+6]
  0007e	84 d2		 test	 dl, dl
  00080	0f 84 1e 01 00
	00		 je	 $LN90@LoadBool_e@3
  00086	80 f2 eb	 xor	 dl, -21			; ffffffebH
  00089	88 55 ea	 mov	 BYTE PTR __k$[ebp+6], dl
  0008c	8a 50 07	 mov	 dl, BYTE PTR [eax+7]
  0008f	84 d2		 test	 dl, dl
  00091	0f 84 07 01 00
	00		 je	 $LN89@LoadBool_e@3
  00097	80 f2 ea	 xor	 dl, -22			; ffffffeaH
  0009a	88 55 eb	 mov	 BYTE PTR __k$[ebp+7], dl
  0009d	8a 50 08	 mov	 dl, BYTE PTR [eax+8]
  000a0	84 d2		 test	 dl, dl
  000a2	0f 84 f0 00 00
	00		 je	 $LN88@LoadBool_e@3
  000a8	80 f2 ed	 xor	 dl, -19			; ffffffedH
  000ab	88 55 ec	 mov	 BYTE PTR __k$[ebp+8], dl
  000ae	8a 50 09	 mov	 dl, BYTE PTR [eax+9]
  000b1	84 d2		 test	 dl, dl
  000b3	0f 84 da 00 00
	00		 je	 $LN87@LoadBool_e@3
  000b9	32 d1		 xor	 dl, cl
  000bb	88 55 ed	 mov	 BYTE PTR __k$[ebp+9], dl
  000be	8a 50 0a	 mov	 dl, BYTE PTR [eax+10]
  000c1	84 d2		 test	 dl, dl
  000c3	0f 84 c4 00 00
	00		 je	 $LN86@LoadBool_e@3
  000c9	80 f2 eb	 xor	 dl, -21			; ffffffebH
  000cc	88 55 ee	 mov	 BYTE PTR __k$[ebp+10], dl
  000cf	8a 50 0b	 mov	 dl, BYTE PTR [eax+11]
  000d2	84 d2		 test	 dl, dl
  000d4	0f 84 ad 00 00
	00		 je	 $LN85@LoadBool_e@3
  000da	80 f2 ea	 xor	 dl, -22			; ffffffeaH
  000dd	88 55 ef	 mov	 BYTE PTR __k$[ebp+11], dl
  000e0	8a 50 0c	 mov	 dl, BYTE PTR [eax+12]
  000e3	84 d2		 test	 dl, dl
  000e5	0f 84 96 00 00
	00		 je	 $LN84@LoadBool_e@3
  000eb	80 f2 ed	 xor	 dl, -19			; ffffffedH
  000ee	88 55 f0	 mov	 BYTE PTR __k$[ebp+12], dl
  000f1	8a 50 0d	 mov	 dl, BYTE PTR [eax+13]
  000f4	84 d2		 test	 dl, dl
  000f6	0f 84 80 00 00
	00		 je	 $LN83@LoadBool_e@3
  000fc	32 d1		 xor	 dl, cl
  000fe	88 55 f1	 mov	 BYTE PTR __k$[ebp+13], dl
  00101	8a 50 0e	 mov	 dl, BYTE PTR [eax+14]
  00104	84 d2		 test	 dl, dl
  00106	74 6e		 je	 SHORT $LN82@LoadBool_e@3
  00108	80 f2 eb	 xor	 dl, -21			; ffffffebH
  0010b	88 55 f2	 mov	 BYTE PTR __k$[ebp+14], dl
  0010e	8a 50 0f	 mov	 dl, BYTE PTR [eax+15]
  00111	84 d2		 test	 dl, dl
  00113	74 5b		 je	 SHORT $LN81@LoadBool_e@3
  00115	80 f2 ea	 xor	 dl, -22			; ffffffeaH
  00118	80 78 10 00	 cmp	 BYTE PTR [eax+16], 0
  0011c	88 55 f3	 mov	 BYTE PTR __k$[ebp+15], dl
  0011f	0f 84 a6 00 00
	00		 je	 $LN1@LoadBool_e@3
  00125	8a 50 11	 mov	 dl, BYTE PTR [eax+17]
  00128	84 d2		 test	 dl, dl
  0012a	74 3f		 je	 SHORT $LN79@LoadBool_e@3
  0012c	32 d1		 xor	 dl, cl
  0012e	88 55 f5	 mov	 BYTE PTR __k$[ebp+17], dl
  00131	8a 50 12	 mov	 dl, BYTE PTR [eax+18]
  00134	84 d2		 test	 dl, dl
  00136	74 2d		 je	 SHORT $LN78@LoadBool_e@3
  00138	80 f2 eb	 xor	 dl, -21			; ffffffebH
  0013b	88 55 f6	 mov	 BYTE PTR __k$[ebp+18], dl
  0013e	8a 50 13	 mov	 dl, BYTE PTR [eax+19]
  00141	84 d2		 test	 dl, dl
  00143	74 1a		 je	 SHORT $LN77@LoadBool_e@3
  00145	8a 40 14	 mov	 al, BYTE PTR [eax+20]
  00148	80 f2 ea	 xor	 dl, -22			; ffffffeaH
  0014b	88 55 f7	 mov	 BYTE PTR __k$[ebp+19], dl
  0014e	84 c0		 test	 al, al
  00150	74 07		 je	 SHORT $LN76@LoadBool_e@3
  00152	34 ed		 xor	 al, -19			; ffffffedH
  00154	88 45 f8	 mov	 BYTE PTR __k$[ebp+20], al
  00157	eb 72		 jmp	 SHORT $LN1@LoadBool_e@3
$LN76@LoadBool_e@3:
  00159	c6 45 f8 ed	 mov	 BYTE PTR __k$[ebp+20], -19 ; ffffffedH
  0015d	eb 6c		 jmp	 SHORT $LN1@LoadBool_e@3
$LN77@LoadBool_e@3:
  0015f	c6 45 f7 ea	 mov	 BYTE PTR __k$[ebp+19], -22 ; ffffffeaH
  00163	eb 66		 jmp	 SHORT $LN1@LoadBool_e@3
$LN78@LoadBool_e@3:
  00165	c6 45 f6 eb	 mov	 BYTE PTR __k$[ebp+18], -21 ; ffffffebH
  00169	eb 60		 jmp	 SHORT $LN1@LoadBool_e@3
$LN79@LoadBool_e@3:
  0016b	88 4d f5	 mov	 BYTE PTR __k$[ebp+17], cl
  0016e	eb 5b		 jmp	 SHORT $LN1@LoadBool_e@3
$LN81@LoadBool_e@3:
  00170	c6 45 f3 ea	 mov	 BYTE PTR __k$[ebp+15], -22 ; ffffffeaH
  00174	eb 55		 jmp	 SHORT $LN1@LoadBool_e@3
$LN82@LoadBool_e@3:
  00176	c6 45 f2 eb	 mov	 BYTE PTR __k$[ebp+14], -21 ; ffffffebH
  0017a	eb 4f		 jmp	 SHORT $LN1@LoadBool_e@3
$LN83@LoadBool_e@3:
  0017c	88 4d f1	 mov	 BYTE PTR __k$[ebp+13], cl
  0017f	eb 4a		 jmp	 SHORT $LN1@LoadBool_e@3
$LN84@LoadBool_e@3:
  00181	c6 45 f0 ed	 mov	 BYTE PTR __k$[ebp+12], -19 ; ffffffedH
  00185	eb 44		 jmp	 SHORT $LN1@LoadBool_e@3
$LN85@LoadBool_e@3:
  00187	c6 45 ef ea	 mov	 BYTE PTR __k$[ebp+11], -22 ; ffffffeaH
  0018b	eb 3e		 jmp	 SHORT $LN1@LoadBool_e@3
$LN86@LoadBool_e@3:
  0018d	c6 45 ee eb	 mov	 BYTE PTR __k$[ebp+10], -21 ; ffffffebH
  00191	eb 38		 jmp	 SHORT $LN1@LoadBool_e@3
$LN87@LoadBool_e@3:
  00193	88 4d ed	 mov	 BYTE PTR __k$[ebp+9], cl
  00196	eb 33		 jmp	 SHORT $LN1@LoadBool_e@3
$LN88@LoadBool_e@3:
  00198	c6 45 ec ed	 mov	 BYTE PTR __k$[ebp+8], -19 ; ffffffedH
  0019c	eb 2d		 jmp	 SHORT $LN1@LoadBool_e@3
$LN89@LoadBool_e@3:
  0019e	c6 45 eb ea	 mov	 BYTE PTR __k$[ebp+7], -22 ; ffffffeaH
  001a2	eb 27		 jmp	 SHORT $LN1@LoadBool_e@3
$LN90@LoadBool_e@3:
  001a4	c6 45 ea eb	 mov	 BYTE PTR __k$[ebp+6], -21 ; ffffffebH
  001a8	eb 21		 jmp	 SHORT $LN1@LoadBool_e@3
$LN91@LoadBool_e@3:
  001aa	88 4d e9	 mov	 BYTE PTR __k$[ebp+5], cl
  001ad	eb 1c		 jmp	 SHORT $LN1@LoadBool_e@3
$LN92@LoadBool_e@3:
  001af	c6 45 e8 ed	 mov	 BYTE PTR __k$[ebp+4], -19 ; ffffffedH
  001b3	eb 16		 jmp	 SHORT $LN1@LoadBool_e@3
$LN93@LoadBool_e@3:
  001b5	c6 45 e7 ea	 mov	 BYTE PTR __k$[ebp+3], -22 ; ffffffeaH
  001b9	eb 10		 jmp	 SHORT $LN1@LoadBool_e@3
$LN94@LoadBool_e@3:
  001bb	c6 45 e6 eb	 mov	 BYTE PTR __k$[ebp+2], -21 ; ffffffebH
  001bf	eb 0a		 jmp	 SHORT $LN1@LoadBool_e@3
$LN95@LoadBool_e@3:
  001c1	c6 45 e5 ec	 mov	 BYTE PTR __k$[ebp+1], -20 ; ffffffecH
  001c5	eb 04		 jmp	 SHORT $LN1@LoadBool_e@3
$LN96@LoadBool_e@3:
  001c7	c6 45 e4 ed	 mov	 BYTE PTR __k$[ebp], -19	; ffffffedH
$LN1@LoadBool_e@3:
  001cb	6a 04		 push	 4
  001cd	8d 45 e4	 lea	 eax, DWORD PTR __k$[ebp]
  001d0	c6 45 f4 00	 mov	 BYTE PTR __k$[ebp+16], 0
  001d4	5a		 pop	 edx
$LL104@LoadBool_e@3:
  001d5	81 30 ed ec eb
	ea		 xor	 DWORD PTR [eax], -353637139 ; eaebecedH
  001db	83 c0 04	 add	 eax, 4
  001de	4a		 dec	 edx
  001df	75 f4		 jne	 SHORT $LL104@LoadBool_e@3

; 103  : 		return LoadBool(_k, b);

  001e1	ff 75 0c	 push	 DWORD PTR _b$[ebp]
  001e4	8d 45 e4	 lea	 eax, DWORD PTR __k$[ebp]
  001e7	50		 push	 eax
  001e8	8b ce		 mov	 ecx, esi
  001ea	ff 15 00 00 00
	00		 call	 DWORD PTR __imp_?LoadBool@ioINILoader@@QAE_NPBD_N@Z

; 104  : 	}

  001f0	8b 4d fc	 mov	 ecx, DWORD PTR __$ArrayPad$[ebp]
  001f3	33 cd		 xor	 ecx, ebp
  001f5	5e		 pop	 esi
  001f6	e8 00 00 00 00	 call	 @__security_check_cookie@4
  001fb	c9		 leave
  001fc	c2 08 00	 ret	 8
??$LoadBool_e@$0BB@@ioINILoader@@QAE_NAAY0BB@$$CBD_N@Z ENDP ; ioINILoader::LoadBool_e<17>
_TEXT	ENDS
PUBLIC	__real@3fd2ee0d320154cb
PUBLIC	__real@41f0000000000000
PUBLIC	??$RADtoDEG@M@@YAMM@Z				; RADtoDEG<float>
;	COMDAT __real@3fd2ee0d320154cb
; File d:\lost saga for developer\youtube\tutorial\source\src\lsclient\veryoftenusedefine.h
CONST	SEGMENT
__real@3fd2ee0d320154cb DQ 03fd2ee0d320154cbr	; 0.29578
CONST	ENDS
;	COMDAT __real@41f0000000000000
CONST	SEGMENT
__real@41f0000000000000 DQ 041f0000000000000r	; 4.29497e+009
; Function compile flags: /Ogsp
CONST	ENDS
;	COMDAT ??$RADtoDEG@M@@YAMM@Z
_TEXT	SEGMENT
tv130 = -4						; size = 4
tv75 = 8						; size = 4
_val$ = 8						; size = 4
??$RADtoDEG@M@@YAMM@Z PROC				; RADtoDEG<float>, COMDAT

; 18   : type  RADtoDEG (type val) {return (type) (val * (return57() + 0.2957795132)); }

  00000	55		 push	 ebp
  00001	8b ec		 mov	 ebp, esp
  00003	51		 push	 ecx
  00004	b8 39 00 00 00	 mov	 eax, 57			; 00000039H
  00009	89 45 fc	 mov	 DWORD PTR tv130[ebp], eax
  0000c	db 45 fc	 fild	 DWORD PTR tv130[ebp]
  0000f	85 c0		 test	 eax, eax
  00011	79 06		 jns	 SHORT $LN5@RADtoDEG
  00013	dc 05 00 00 00
	00		 fadd	 QWORD PTR __real@41f0000000000000
$LN5@RADtoDEG:
  00019	dc 05 00 00 00
	00		 fadd	 QWORD PTR __real@3fd2ee0d320154cb
  0001f	d8 4d 08	 fmul	 DWORD PTR _val$[ebp]
  00022	d9 5d 08	 fstp	 DWORD PTR tv75[ebp]
  00025	d9 45 08	 fld	 DWORD PTR tv75[ebp]
  00028	c9		 leave
  00029	c3		 ret	 0
??$RADtoDEG@M@@YAMM@Z ENDP				; RADtoDEG<float>
_TEXT	ENDS
PUBLIC	??$GetAnimationEventTime_e@$0N@@ioEntityGroup@@QAEMHAAY0N@$$CBD@Z ; ioEntityGroup::GetAnimationEventTime_e<13>
EXTRN	__imp_?GetAnimationEventTime@ioEntityGroup@@QAEMHABVioHashString@@@Z:PROC
EXTRN	__imp_??0ioHashString@@QAE@PBD@Z:PROC
EXTRN	___CxxFrameHandler3:PROC
EXTRN	__EH_epilog3_GS:PROC
EXTRN	__EH_prolog3_GS:PROC
;	COMDAT xdata$x
; File d:\lost saga for developer\youtube\tutorial\source\src\lsclient\stringprotect.h
xdata$x	SEGMENT
__unwindtable$??$GetAnimationEventTime_e@$0N@@ioEntityGroup@@QAEMHAAY0N@$$CBD@Z DD 0ffffffffH
	DD	FLAT:__unwindfunclet$??$GetAnimationEventTime_e@$0N@@ioEntityGroup@@QAEMHAAY0N@$$CBD@Z$0
__ehfuncinfo$??$GetAnimationEventTime_e@$0N@@ioEntityGroup@@QAEMHAAY0N@$$CBD@Z DD 019930522H
	DD	01H
	DD	FLAT:__unwindtable$??$GetAnimationEventTime_e@$0N@@ioEntityGroup@@QAEMHAAY0N@$$CBD@Z
	DD	2 DUP(00H)
	DD	2 DUP(00H)
	DD	00H
	DD	01H
; Function compile flags: /Ogsp
; File d:\lost saga for developer\youtube\tutorial\source\src\io3dengine\ioentitygroup.h
xdata$x	ENDS
;	COMDAT ??$GetAnimationEventTime_e@$0N@@ioEntityGroup@@QAEMHAAY0N@$$CBD@Z
_TEXT	SEGMENT
$T536930 = -56						; size = 16
$T536929 = -40						; size = 4
_szEncEventType$ = -36					; size = 13
__$EHRec$ = -12						; size = 12
_id$ = 8						; size = 4
_szEventType$ = 12					; size = 4
??$GetAnimationEventTime_e@$0N@@ioEntityGroup@@QAEMHAAY0N@$$CBD@Z PROC ; ioEntityGroup::GetAnimationEventTime_e<13>, COMDAT
; _this$ = ecx

; 414  : 	{

  00000	6a 2c		 push	 44			; 0000002cH
  00002	b8 00 00 00 00	 mov	 eax, __ehhandler$??$GetAnimationEventTime_e@$0N@@ioEntityGroup@@QAEMHAAY0N@$$CBD@Z
  00007	e8 00 00 00 00	 call	 __EH_prolog3_GS
  0000c	8b 45 0c	 mov	 eax, DWORD PTR _szEventType$[ebp]
  0000f	8b f1		 mov	 esi, ecx

; 415  : 		_ENCSTR(szEventType, szEncEventType);

  00011	8a 08		 mov	 cl, BYTE PTR [eax]
  00013	84 c9		 test	 cl, cl
  00015	0f 84 49 01 00
	00		 je	 $LN96@GetAnimati
  0001b	80 f1 ed	 xor	 cl, -19			; ffffffedH
  0001e	88 4d dc	 mov	 BYTE PTR _szEncEventType$[ebp], cl
  00021	8a 48 01	 mov	 cl, BYTE PTR [eax+1]
  00024	84 c9		 test	 cl, cl
  00026	0f 84 32 01 00
	00		 je	 $LN95@GetAnimati
  0002c	80 f1 ec	 xor	 cl, -20			; ffffffecH
  0002f	88 4d dd	 mov	 BYTE PTR _szEncEventType$[ebp+1], cl
  00032	8a 48 02	 mov	 cl, BYTE PTR [eax+2]
  00035	84 c9		 test	 cl, cl
  00037	0f 84 1b 01 00
	00		 je	 $LN94@GetAnimati
  0003d	b2 eb		 mov	 dl, -21			; ffffffebH
  0003f	32 ca		 xor	 cl, dl
  00041	88 4d de	 mov	 BYTE PTR _szEncEventType$[ebp+2], cl
  00044	8a 48 03	 mov	 cl, BYTE PTR [eax+3]
  00047	84 c9		 test	 cl, cl
  00049	0f 84 03 01 00
	00		 je	 $LN93@GetAnimati
  0004f	80 f1 ea	 xor	 cl, -22			; ffffffeaH
  00052	88 4d df	 mov	 BYTE PTR _szEncEventType$[ebp+3], cl
  00055	8a 48 04	 mov	 cl, BYTE PTR [eax+4]
  00058	84 c9		 test	 cl, cl
  0005a	0f 84 ec 00 00
	00		 je	 $LN92@GetAnimati
  00060	80 f1 ed	 xor	 cl, -19			; ffffffedH
  00063	88 4d e0	 mov	 BYTE PTR _szEncEventType$[ebp+4], cl
  00066	8a 48 05	 mov	 cl, BYTE PTR [eax+5]
  00069	84 c9		 test	 cl, cl
  0006b	0f 84 d5 00 00
	00		 je	 $LN91@GetAnimati
  00071	80 f1 ec	 xor	 cl, -20			; ffffffecH
  00074	88 4d e1	 mov	 BYTE PTR _szEncEventType$[ebp+5], cl
  00077	8a 48 06	 mov	 cl, BYTE PTR [eax+6]
  0007a	84 c9		 test	 cl, cl
  0007c	0f 84 bf 00 00
	00		 je	 $LN90@GetAnimati
  00082	32 ca		 xor	 cl, dl
  00084	88 4d e2	 mov	 BYTE PTR _szEncEventType$[ebp+6], cl
  00087	8a 48 07	 mov	 cl, BYTE PTR [eax+7]
  0008a	84 c9		 test	 cl, cl
  0008c	0f 84 a9 00 00
	00		 je	 $LN89@GetAnimati
  00092	80 f1 ea	 xor	 cl, -22			; ffffffeaH
  00095	88 4d e3	 mov	 BYTE PTR _szEncEventType$[ebp+7], cl
  00098	8a 48 08	 mov	 cl, BYTE PTR [eax+8]
  0009b	84 c9		 test	 cl, cl
  0009d	0f 84 92 00 00
	00		 je	 $LN88@GetAnimati
  000a3	80 f1 ed	 xor	 cl, -19			; ffffffedH
  000a6	88 4d e4	 mov	 BYTE PTR _szEncEventType$[ebp+8], cl
  000a9	8a 48 09	 mov	 cl, BYTE PTR [eax+9]
  000ac	84 c9		 test	 cl, cl
  000ae	74 7f		 je	 SHORT $LN87@GetAnimati
  000b0	80 f1 ec	 xor	 cl, -20			; ffffffecH
  000b3	88 4d e5	 mov	 BYTE PTR _szEncEventType$[ebp+9], cl
  000b6	8a 48 0a	 mov	 cl, BYTE PTR [eax+10]
  000b9	84 c9		 test	 cl, cl
  000bb	74 6d		 je	 SHORT $LN86@GetAnimati
  000bd	32 ca		 xor	 cl, dl
  000bf	88 4d e6	 mov	 BYTE PTR _szEncEventType$[ebp+10], cl
  000c2	8a 48 0b	 mov	 cl, BYTE PTR [eax+11]
  000c5	84 c9		 test	 cl, cl
  000c7	74 5b		 je	 SHORT $LN85@GetAnimati
  000c9	80 f1 ea	 xor	 cl, -22			; ffffffeaH
  000cc	80 78 0c 00	 cmp	 BYTE PTR [eax+12], 0
  000d0	88 4d e7	 mov	 BYTE PTR _szEncEventType$[ebp+11], cl
  000d3	0f 84 8f 00 00
	00		 je	 $LN1@GetAnimati
  000d9	8a 48 0d	 mov	 cl, BYTE PTR [eax+13]
  000dc	84 c9		 test	 cl, cl
  000de	74 3e		 je	 SHORT $LN83@GetAnimati
  000e0	80 f1 ec	 xor	 cl, -20			; ffffffecH
  000e3	88 4d e9	 mov	 BYTE PTR _szEncEventType$[ebp+13], cl
  000e6	8a 48 0e	 mov	 cl, BYTE PTR [eax+14]
  000e9	84 c9		 test	 cl, cl
  000eb	74 2c		 je	 SHORT $LN82@GetAnimati
  000ed	32 ca		 xor	 cl, dl
  000ef	88 4d ea	 mov	 BYTE PTR _szEncEventType$[ebp+14], cl
  000f2	8a 48 0f	 mov	 cl, BYTE PTR [eax+15]
  000f5	84 c9		 test	 cl, cl
  000f7	74 1a		 je	 SHORT $LN81@GetAnimati
  000f9	8a 40 10	 mov	 al, BYTE PTR [eax+16]
  000fc	80 f1 ea	 xor	 cl, -22			; ffffffeaH
  000ff	88 4d eb	 mov	 BYTE PTR _szEncEventType$[ebp+15], cl
  00102	84 c0		 test	 al, al
  00104	74 07		 je	 SHORT $LN80@GetAnimati
  00106	34 ed		 xor	 al, -19			; ffffffedH
  00108	88 45 ec	 mov	 BYTE PTR _szEncEventType$[ebp+16], al
  0010b	eb 5b		 jmp	 SHORT $LN1@GetAnimati
$LN80@GetAnimati:
  0010d	c6 45 ec ed	 mov	 BYTE PTR _szEncEventType$[ebp+16], -19 ; ffffffedH
  00111	eb 55		 jmp	 SHORT $LN1@GetAnimati
$LN81@GetAnimati:
  00113	c6 45 eb ea	 mov	 BYTE PTR _szEncEventType$[ebp+15], -22 ; ffffffeaH
  00117	eb 4f		 jmp	 SHORT $LN1@GetAnimati
$LN82@GetAnimati:
  00119	88 55 ea	 mov	 BYTE PTR _szEncEventType$[ebp+14], dl
  0011c	eb 4a		 jmp	 SHORT $LN1@GetAnimati
$LN83@GetAnimati:
  0011e	c6 45 e9 ec	 mov	 BYTE PTR _szEncEventType$[ebp+13], -20 ; ffffffecH
  00122	eb 44		 jmp	 SHORT $LN1@GetAnimati
$LN85@GetAnimati:
  00124	c6 45 e7 ea	 mov	 BYTE PTR _szEncEventType$[ebp+11], -22 ; ffffffeaH
  00128	eb 3e		 jmp	 SHORT $LN1@GetAnimati
$LN86@GetAnimati:
  0012a	88 55 e6	 mov	 BYTE PTR _szEncEventType$[ebp+10], dl
  0012d	eb 39		 jmp	 SHORT $LN1@GetAnimati
$LN87@GetAnimati:
  0012f	c6 45 e5 ec	 mov	 BYTE PTR _szEncEventType$[ebp+9], -20 ; ffffffecH
  00133	eb 33		 jmp	 SHORT $LN1@GetAnimati
$LN88@GetAnimati:
  00135	c6 45 e4 ed	 mov	 BYTE PTR _szEncEventType$[ebp+8], -19 ; ffffffedH
  00139	eb 2d		 jmp	 SHORT $LN1@GetAnimati
$LN89@GetAnimati:
  0013b	c6 45 e3 ea	 mov	 BYTE PTR _szEncEventType$[ebp+7], -22 ; ffffffeaH
  0013f	eb 27		 jmp	 SHORT $LN1@GetAnimati
$LN90@GetAnimati:
  00141	88 55 e2	 mov	 BYTE PTR _szEncEventType$[ebp+6], dl
  00144	eb 22		 jmp	 SHORT $LN1@GetAnimati
$LN91@GetAnimati:
  00146	c6 45 e1 ec	 mov	 BYTE PTR _szEncEventType$[ebp+5], -20 ; ffffffecH
  0014a	eb 1c		 jmp	 SHORT $LN1@GetAnimati
$LN92@GetAnimati:
  0014c	c6 45 e0 ed	 mov	 BYTE PTR _szEncEventType$[ebp+4], -19 ; ffffffedH
  00150	eb 16		 jmp	 SHORT $LN1@GetAnimati
$LN93@GetAnimati:
  00152	c6 45 df ea	 mov	 BYTE PTR _szEncEventType$[ebp+3], -22 ; ffffffeaH
  00156	eb 10		 jmp	 SHORT $LN1@GetAnimati
$LN94@GetAnimati:
  00158	c6 45 de eb	 mov	 BYTE PTR _szEncEventType$[ebp+2], -21 ; ffffffebH
  0015c	eb 0a		 jmp	 SHORT $LN1@GetAnimati
$LN95@GetAnimati:
  0015e	c6 45 dd ec	 mov	 BYTE PTR _szEncEventType$[ebp+1], -20 ; ffffffecH
  00162	eb 04		 jmp	 SHORT $LN1@GetAnimati
$LN96@GetAnimati:
  00164	c6 45 dc ed	 mov	 BYTE PTR _szEncEventType$[ebp], -19 ; ffffffedH
$LN1@GetAnimati:
  00168	6a 03		 push	 3
  0016a	8d 45 dc	 lea	 eax, DWORD PTR _szEncEventType$[ebp]
  0016d	c6 45 e8 00	 mov	 BYTE PTR _szEncEventType$[ebp+12], 0
  00171	59		 pop	 ecx
$LL105@GetAnimati:
  00172	81 30 ed ec eb
	ea		 xor	 DWORD PTR [eax], -353637139 ; eaebecedH
  00178	83 c0 04	 add	 eax, 4
  0017b	49		 dec	 ecx
  0017c	75 f4		 jne	 SHORT $LL105@GetAnimati

; 416  : 		return GetAnimationEventTime(id, szEncEventType);

  0017e	8d 45 dc	 lea	 eax, DWORD PTR _szEncEventType$[ebp]
  00181	50		 push	 eax
  00182	8d 4d c8	 lea	 ecx, DWORD PTR $T536930[ebp]
  00185	ff 15 00 00 00
	00		 call	 DWORD PTR __imp_??0ioHashString@@QAE@PBD@Z
  0018b	83 65 fc 00	 and	 DWORD PTR __$EHRec$[ebp+8], 0
  0018f	8d 45 c8	 lea	 eax, DWORD PTR $T536930[ebp]
  00192	50		 push	 eax
  00193	ff 75 08	 push	 DWORD PTR _id$[ebp]
  00196	8b ce		 mov	 ecx, esi
  00198	ff 15 00 00 00
	00		 call	 DWORD PTR __imp_?GetAnimationEventTime@ioEntityGroup@@QAEMHABVioHashString@@@Z
  0019e	d9 5d d8	 fstp	 DWORD PTR $T536929[ebp]
  001a1	83 4d fc ff	 or	 DWORD PTR __$EHRec$[ebp+8], -1
  001a5	8d 4d c8	 lea	 ecx, DWORD PTR $T536930[ebp]
  001a8	ff 15 00 00 00
	00		 call	 DWORD PTR __imp_??1ioHashString@@QAE@XZ
  001ae	d9 45 d8	 fld	 DWORD PTR $T536929[ebp]

; 417  : 	}

  001b1	e8 00 00 00 00	 call	 __EH_epilog3_GS
  001b6	c2 08 00	 ret	 8
_TEXT	ENDS
;	COMDAT text$x
text$x	SEGMENT
__unwindfunclet$??$GetAnimationEventTime_e@$0N@@ioEntityGroup@@QAEMHAAY0N@$$CBD@Z$0:
  00000	8d 4d c8	 lea	 ecx, DWORD PTR $T536930[ebp]
  00003	ff 25 00 00 00
	00		 jmp	 DWORD PTR __imp_??1ioHashString@@QAE@XZ
__ehhandler$??$GetAnimationEventTime_e@$0N@@ioEntityGroup@@QAEMHAAY0N@$$CBD@Z:
  00009	8b 54 24 08	 mov	 edx, DWORD PTR [esp+8]
  0000d	8d 42 0c	 lea	 eax, DWORD PTR [edx+12]
  00010	8b 4a c4	 mov	 ecx, DWORD PTR [edx-60]
  00013	33 c8		 xor	 ecx, eax
  00015	e8 00 00 00 00	 call	 @__security_check_cookie@4
  0001a	8b 4a fc	 mov	 ecx, DWORD PTR [edx-4]
  0001d	33 c8		 xor	 ecx, eax
  0001f	e8 00 00 00 00	 call	 @__security_check_cookie@4
  00024	b8 00 00 00 00	 mov	 eax, OFFSET __ehfuncinfo$??$GetAnimationEventTime_e@$0N@@ioEntityGroup@@QAEMHAAY0N@$$CBD@Z
  00029	e9 00 00 00 00	 jmp	 ___CxxFrameHandler3
text$x	ENDS
??$GetAnimationEventTime_e@$0N@@ioEntityGroup@@QAEMHAAY0N@$$CBD@Z ENDP ; ioEntityGroup::GetAnimationEventTime_e<13>
PUBLIC	??G?$_Vector_const_iterator@V?$_Vector_val@UtagBaseCharDistanceSq@@V?$allocator@UtagBaseCharDistanceSq@@@std@@@std@@@std@@QBEHABV01@@Z ; std::_Vector_const_iterator<std::_Vector_val<tagBaseCharDistanceSq,std::allocator<tagBaseCharDistanceSq> > >::operator-
; Function compile flags: /Ogsp
; File c:\program files (x86)\microsoft visual studio 10.0\vc\include\vector
;	COMDAT ??G?$_Vector_const_iterator@V?$_Vector_val@UtagBaseCharDistanceSq@@V?$allocator@UtagBaseCharDistanceSq@@@std@@@std@@@std@@QBEHABV01@@Z
_TEXT	SEGMENT
__Right$ = 8						; size = 4
??G?$_Vector_const_iterator@V?$_Vector_val@UtagBaseCharDistanceSq@@V?$allocator@UtagBaseCharDistanceSq@@@std@@@std@@@std@@QBEHABV01@@Z PROC ; std::_Vector_const_iterator<std::_Vector_val<tagBaseCharDistanceSq,std::allocator<tagBaseCharDistanceSq> > >::operator-, COMDAT
; _this$ = ecx

; 190  : 		{	// return difference of iterators

  00000	55		 push	 ebp
  00001	8b ec		 mov	 ebp, esp

; 191  : 		_Compat(_Right);
; 192  : 		return (this->_Ptr - _Right._Ptr);

  00003	8b 01		 mov	 eax, DWORD PTR [ecx]
  00005	8b 4d 08	 mov	 ecx, DWORD PTR __Right$[ebp]
  00008	2b 01		 sub	 eax, DWORD PTR [ecx]
  0000a	c1 f8 05	 sar	 eax, 5

; 193  : 		}

  0000d	5d		 pop	 ebp
  0000e	c2 04 00	 ret	 4
??G?$_Vector_const_iterator@V?$_Vector_val@UtagBaseCharDistanceSq@@V?$allocator@UtagBaseCharDistanceSq@@@std@@@std@@@std@@QBEHABV01@@Z ENDP ; std::_Vector_const_iterator<std::_Vector_val<tagBaseCharDistanceSq,std::allocator<tagBaseCharDistanceSq> > >::operator-
_TEXT	ENDS
PUBLIC	??$_Unchecked@V?$_Vector_val@UtagBaseCharDistanceSq@@V?$allocator@UtagBaseCharDistanceSq@@@std@@@std@@@std@@YAPAUtagBaseCharDistanceSq@@V?$_Vector_iterator@V?$_Vector_val@UtagBaseCharDistanceSq@@V?$allocator@UtagBaseCharDistanceSq@@@std@@@std@@@0@@Z ; std::_Unchecked<std::_Vector_val<tagBaseCharDistanceSq,std::allocator<tagBaseCharDistanceSq> > >
; Function compile flags: /Ogsp
;	COMDAT ??$_Unchecked@V?$_Vector_val@UtagBaseCharDistanceSq@@V?$allocator@UtagBaseCharDistanceSq@@@std@@@std@@@std@@YAPAUtagBaseCharDistanceSq@@V?$_Vector_iterator@V?$_Vector_val@UtagBaseCharDistanceSq@@V?$allocator@UtagBaseCharDistanceSq@@@std@@@std@@@0@@Z
_TEXT	SEGMENT
__Iter$ = 8						; size = 4
??$_Unchecked@V?$_Vector_val@UtagBaseCharDistanceSq@@V?$allocator@UtagBaseCharDistanceSq@@@std@@@std@@@std@@YAPAUtagBaseCharDistanceSq@@V?$_Vector_iterator@V?$_Vector_val@UtagBaseCharDistanceSq@@V?$allocator@UtagBaseCharDistanceSq@@@std@@@std@@@0@@Z PROC ; std::_Unchecked<std::_Vector_val<tagBaseCharDistanceSq,std::allocator<tagBaseCharDistanceSq> > >, COMDAT

; 393  : 	{	// convert to unchecked

  00000	55		 push	 ebp
  00001	8b ec		 mov	 ebp, esp

; 394  : 	return (_Iter._Unchecked());

  00003	8b 45 08	 mov	 eax, DWORD PTR __Iter$[ebp]

; 395  : 	}

  00006	5d		 pop	 ebp
  00007	c3		 ret	 0
??$_Unchecked@V?$_Vector_val@UtagBaseCharDistanceSq@@V?$allocator@UtagBaseCharDistanceSq@@@std@@@std@@@std@@YAPAUtagBaseCharDistanceSq@@V?$_Vector_iterator@V?$_Vector_val@UtagBaseCharDistanceSq@@V?$allocator@UtagBaseCharDistanceSq@@@std@@@std@@@0@@Z ENDP ; std::_Unchecked<std::_Vector_val<tagBaseCharDistanceSq,std::allocator<tagBaseCharDistanceSq> > >
_TEXT	ENDS
PUBLIC	??$construct@AAUtagBaseCharDistanceSq@@@?$allocator@UtagBaseCharDistanceSq@@@std@@QAEXPAUtagBaseCharDistanceSq@@AAU2@@Z ; std::allocator<tagBaseCharDistanceSq>::construct<tagBaseCharDistanceSq &>
EXTRN	__EH_epilog3:PROC
EXTRN	__EH_prolog3:PROC
;	COMDAT xdata$x
; File c:\program files (x86)\microsoft visual studio 10.0\vc\include\utility
xdata$x	SEGMENT
__unwindtable$??$construct@AAUtagBaseCharDistanceSq@@@?$allocator@UtagBaseCharDistanceSq@@@std@@QAEXPAUtagBaseCharDistanceSq@@AAU2@@Z DD 0ffffffffH
	DD	FLAT:__unwindfunclet$??$construct@AAUtagBaseCharDistanceSq@@@?$allocator@UtagBaseCharDistanceSq@@@std@@QAEXPAUtagBaseCharDistanceSq@@AAU2@@Z$0
__ehfuncinfo$??$construct@AAUtagBaseCharDistanceSq@@@?$allocator@UtagBaseCharDistanceSq@@@std@@QAEXPAUtagBaseCharDistanceSq@@AAU2@@Z DD 019930522H
	DD	01H
	DD	FLAT:__unwindtable$??$construct@AAUtagBaseCharDistanceSq@@@?$allocator@UtagBaseCharDistanceSq@@@std@@QAEXPAUtagBaseCharDistanceSq@@AAU2@@Z
	DD	2 DUP(00H)
	DD	2 DUP(00H)
	DD	00H
	DD	01H
; Function compile flags: /Ogsp
; File c:\program files (x86)\microsoft visual studio 10.0\vc\include\xmemory
xdata$x	ENDS
;	COMDAT ??$construct@AAUtagBaseCharDistanceSq@@@?$allocator@UtagBaseCharDistanceSq@@@std@@QAEXPAUtagBaseCharDistanceSq@@AAU2@@Z
_TEXT	SEGMENT
$T536974 = -16						; size = 4
__$EHRec$ = -12						; size = 12
__Ptr$ = 8						; size = 4
__Val$ = 12						; size = 4
??$construct@AAUtagBaseCharDistanceSq@@@?$allocator@UtagBaseCharDistanceSq@@@std@@QAEXPAUtagBaseCharDistanceSq@@AAU2@@Z PROC ; std::allocator<tagBaseCharDistanceSq>::construct<tagBaseCharDistanceSq &>, COMDAT
; _this$ = ecx

; 206  : 		void construct(pointer _Ptr, _Other&& _Val)

  00000	6a 04		 push	 4
  00002	b8 00 00 00 00	 mov	 eax, __ehhandler$??$construct@AAUtagBaseCharDistanceSq@@@?$allocator@UtagBaseCharDistanceSq@@@std@@QAEXPAUtagBaseCharDistanceSq@@AAU2@@Z
  00007	e8 00 00 00 00	 call	 __EH_prolog3

; 207  : 		{	// construct object at _Ptr with value _Val
; 208  : 		::new ((void _FARQ *)_Ptr) _Ty(_STD forward<_Other>(_Val));

  0000c	8b 4d 08	 mov	 ecx, DWORD PTR __Ptr$[ebp]
  0000f	89 4d f0	 mov	 DWORD PTR $T536974[ebp], ecx
  00012	83 65 fc 00	 and	 DWORD PTR __$EHRec$[ebp+8], 0
  00016	85 c9		 test	 ecx, ecx
  00018	74 08		 je	 SHORT $LN3@construct
  0001a	ff 75 0c	 push	 DWORD PTR __Val$[ebp]
  0001d	e8 00 00 00 00	 call	 ??0tagBaseCharDistanceSq@@QAE@ABU0@@Z
$LN3@construct:

; 209  : 		}

  00022	e8 00 00 00 00	 call	 __EH_epilog3
  00027	c2 08 00	 ret	 8
_TEXT	ENDS
;	COMDAT text$x
text$x	SEGMENT
__unwindfunclet$??$construct@AAUtagBaseCharDistanceSq@@@?$allocator@UtagBaseCharDistanceSq@@@std@@QAEXPAUtagBaseCharDistanceSq@@AAU2@@Z$0:
  00000	ff 75 08	 push	 DWORD PTR __Ptr$[ebp]
  00003	ff 75 f0	 push	 DWORD PTR $T536974[ebp]
  00006	e8 00 00 00 00	 call	 ??3@YAXPAX0@Z		; operator delete
  0000b	59		 pop	 ecx
  0000c	59		 pop	 ecx
  0000d	c3		 ret	 0
__ehhandler$??$construct@AAUtagBaseCharDistanceSq@@@?$allocator@UtagBaseCharDistanceSq@@@std@@QAEXPAUtagBaseCharDistanceSq@@AAU2@@Z:
  0000e	8b 54 24 08	 mov	 edx, DWORD PTR [esp+8]
  00012	8d 42 0c	 lea	 eax, DWORD PTR [edx+12]
  00015	8b 4a ec	 mov	 ecx, DWORD PTR [edx-20]
  00018	33 c8		 xor	 ecx, eax
  0001a	e8 00 00 00 00	 call	 @__security_check_cookie@4
  0001f	b8 00 00 00 00	 mov	 eax, OFFSET __ehfuncinfo$??$construct@AAUtagBaseCharDistanceSq@@@?$allocator@UtagBaseCharDistanceSq@@@std@@QAEXPAUtagBaseCharDistanceSq@@AAU2@@Z
  00024	e9 00 00 00 00	 jmp	 ___CxxFrameHandler3
text$x	ENDS
??$construct@AAUtagBaseCharDistanceSq@@@?$allocator@UtagBaseCharDistanceSq@@@std@@QAEXPAUtagBaseCharDistanceSq@@AAU2@@Z ENDP ; std::allocator<tagBaseCharDistanceSq>::construct<tagBaseCharDistanceSq &>
PUBLIC	??$_Construct@UtagBaseCharDistanceSq@@ABU1@@std@@YAXPAUtagBaseCharDistanceSq@@ABU1@@Z ; std::_Construct<tagBaseCharDistanceSq,tagBaseCharDistanceSq const &>
;	COMDAT xdata$x
; File c:\program files (x86)\microsoft visual studio 10.0\vc\include\utility
xdata$x	SEGMENT
__unwindtable$??$_Construct@UtagBaseCharDistanceSq@@ABU1@@std@@YAXPAUtagBaseCharDistanceSq@@ABU1@@Z DD 0ffffffffH
	DD	FLAT:__unwindfunclet$??$_Construct@UtagBaseCharDistanceSq@@ABU1@@std@@YAXPAUtagBaseCharDistanceSq@@ABU1@@Z$0
__ehfuncinfo$??$_Construct@UtagBaseCharDistanceSq@@ABU1@@std@@YAXPAUtagBaseCharDistanceSq@@ABU1@@Z DD 019930522H
	DD	01H
	DD	FLAT:__unwindtable$??$_Construct@UtagBaseCharDistanceSq@@ABU1@@std@@YAXPAUtagBaseCharDistanceSq@@ABU1@@Z
	DD	2 DUP(00H)
	DD	2 DUP(00H)
	DD	00H
	DD	01H
; Function compile flags: /Ogsp
; File c:\program files (x86)\microsoft visual studio 10.0\vc\include\xmemory
xdata$x	ENDS
;	COMDAT ??$_Construct@UtagBaseCharDistanceSq@@ABU1@@std@@YAXPAUtagBaseCharDistanceSq@@ABU1@@Z
_TEXT	SEGMENT
$T536995 = -16						; size = 4
__$EHRec$ = -12						; size = 12
__Vptr$ = 8						; size = 4
__Ptr$ = 8						; size = 4
__Val$ = 12						; size = 4
??$_Construct@UtagBaseCharDistanceSq@@ABU1@@std@@YAXPAUtagBaseCharDistanceSq@@ABU1@@Z PROC ; std::_Construct<tagBaseCharDistanceSq,tagBaseCharDistanceSq const &>, COMDAT

; 46   : 	{	// construct object at _Ptr with value _Val

  00000	6a 04		 push	 4
  00002	b8 00 00 00 00	 mov	 eax, __ehhandler$??$_Construct@UtagBaseCharDistanceSq@@ABU1@@std@@YAXPAUtagBaseCharDistanceSq@@ABU1@@Z
  00007	e8 00 00 00 00	 call	 __EH_prolog3

; 47   : 	void _FARQ *_Vptr = _Ptr;

  0000c	8b 4d 08	 mov	 ecx, DWORD PTR __Ptr$[ebp]
  0000f	89 4d 08	 mov	 DWORD PTR __Vptr$[ebp], ecx

; 48   : 	::new (_Vptr) _Ty1(_STD forward<_Ty2>(_Val));

  00012	89 4d f0	 mov	 DWORD PTR $T536995[ebp], ecx
  00015	83 65 fc 00	 and	 DWORD PTR __$EHRec$[ebp+8], 0
  00019	85 c9		 test	 ecx, ecx
  0001b	74 08		 je	 SHORT $LN3@Construct@2
  0001d	ff 75 0c	 push	 DWORD PTR __Val$[ebp]
  00020	e8 00 00 00 00	 call	 ??0tagBaseCharDistanceSq@@QAE@ABU0@@Z
$LN3@Construct@2:

; 49   : 	}

  00025	e8 00 00 00 00	 call	 __EH_epilog3
  0002a	c3		 ret	 0
_TEXT	ENDS
;	COMDAT text$x
text$x	SEGMENT
__unwindfunclet$??$_Construct@UtagBaseCharDistanceSq@@ABU1@@std@@YAXPAUtagBaseCharDistanceSq@@ABU1@@Z$0:
  00000	ff 75 08	 push	 DWORD PTR __Vptr$[ebp]
  00003	ff 75 f0	 push	 DWORD PTR $T536995[ebp]
  00006	e8 00 00 00 00	 call	 ??3@YAXPAX0@Z		; operator delete
  0000b	59		 pop	 ecx
  0000c	59		 pop	 ecx
  0000d	c3		 ret	 0
__ehhandler$??$_Construct@UtagBaseCharDistanceSq@@ABU1@@std@@YAXPAUtagBaseCharDistanceSq@@ABU1@@Z:
  0000e	8b 54 24 08	 mov	 edx, DWORD PTR [esp+8]
  00012	8d 42 0c	 lea	 eax, DWORD PTR [edx+12]
  00015	8b 4a ec	 mov	 ecx, DWORD PTR [edx-20]
  00018	33 c8		 xor	 ecx, eax
  0001a	e8 00 00 00 00	 call	 @__security_check_cookie@4
  0001f	b8 00 00 00 00	 mov	 eax, OFFSET __ehfuncinfo$??$_Construct@UtagBaseCharDistanceSq@@ABU1@@std@@YAXPAUtagBaseCharDistanceSq@@ABU1@@Z
  00024	e9 00 00 00 00	 jmp	 ___CxxFrameHandler3
text$x	ENDS
??$_Construct@UtagBaseCharDistanceSq@@ABU1@@std@@YAXPAUtagBaseCharDistanceSq@@ABU1@@Z ENDP ; std::_Construct<tagBaseCharDistanceSq,tagBaseCharDistanceSq const &>
PUBLIC	??$?0AAPAUtagBaseCharDistanceSq@@AAPAU0@@?$pair@PAUtagBaseCharDistanceSq@@PAU1@@std@@QAE@AAPAUtagBaseCharDistanceSq@@0@Z ; std::pair<tagBaseCharDistanceSq *,tagBaseCharDistanceSq *>::pair<tagBaseCharDistanceSq *,tagBaseCharDistanceSq *><tagBaseCharDistanceSq * &,tagBaseCharDistanceSq * &>
; Function compile flags: /Ogsp
; File c:\program files (x86)\microsoft visual studio 10.0\vc\include\utility
;	COMDAT ??$?0AAPAUtagBaseCharDistanceSq@@AAPAU0@@?$pair@PAUtagBaseCharDistanceSq@@PAU1@@std@@QAE@AAPAUtagBaseCharDistanceSq@@0@Z
_TEXT	SEGMENT
__Val1$ = 8						; size = 4
__Val2$ = 12						; size = 4
??$?0AAPAUtagBaseCharDistanceSq@@AAPAU0@@?$pair@PAUtagBaseCharDistanceSq@@PAU1@@std@@QAE@AAPAUtagBaseCharDistanceSq@@0@Z PROC ; std::pair<tagBaseCharDistanceSq *,tagBaseCharDistanceSq *>::pair<tagBaseCharDistanceSq *,tagBaseCharDistanceSq *><tagBaseCharDistanceSq * &,tagBaseCharDistanceSq * &>, COMDAT
; _this$ = ecx

; 247  : 		{	// construct from moved values

  00000	55		 push	 ebp
  00001	8b ec		 mov	 ebp, esp
  00003	8b c1		 mov	 eax, ecx
  00005	8b 4d 08	 mov	 ecx, DWORD PTR __Val1$[ebp]
  00008	8b 09		 mov	 ecx, DWORD PTR [ecx]
  0000a	89 08		 mov	 DWORD PTR [eax], ecx
  0000c	8b 4d 0c	 mov	 ecx, DWORD PTR __Val2$[ebp]
  0000f	8b 09		 mov	 ecx, DWORD PTR [ecx]
  00011	89 48 04	 mov	 DWORD PTR [eax+4], ecx

; 248  : 		}

  00014	5d		 pop	 ebp
  00015	c2 08 00	 ret	 8
??$?0AAPAUtagBaseCharDistanceSq@@AAPAU0@@?$pair@PAUtagBaseCharDistanceSq@@PAU1@@std@@QAE@AAPAUtagBaseCharDistanceSq@@0@Z ENDP ; std::pair<tagBaseCharDistanceSq *,tagBaseCharDistanceSq *>::pair<tagBaseCharDistanceSq *,tagBaseCharDistanceSq *><tagBaseCharDistanceSq * &,tagBaseCharDistanceSq * &>
_TEXT	ENDS
PUBLIC	??$_Destroy@UtagBaseCharDistanceSq@@@std@@YAXPAUtagBaseCharDistanceSq@@@Z ; std::_Destroy<tagBaseCharDistanceSq>
; Function compile flags: /Ogsp
; File c:\program files (x86)\microsoft visual studio 10.0\vc\include\xmemory
;	COMDAT ??$_Destroy@UtagBaseCharDistanceSq@@@std@@YAXPAUtagBaseCharDistanceSq@@@Z
_TEXT	SEGMENT
__Ptr$ = 8						; size = 4
??$_Destroy@UtagBaseCharDistanceSq@@@std@@YAXPAUtagBaseCharDistanceSq@@@Z PROC ; std::_Destroy<tagBaseCharDistanceSq>, COMDAT

; 62   : 	{	// destroy object at _Ptr

  00000	55		 push	 ebp
  00001	8b ec		 mov	 ebp, esp

; 63   : 	_Ptr->~_Ty();

  00003	8b 4d 08	 mov	 ecx, DWORD PTR __Ptr$[ebp]

; 64   : 	}

  00006	5d		 pop	 ebp

; 63   : 	_Ptr->~_Ty();

  00007	ff 25 00 00 00
	00		 jmp	 DWORD PTR __imp_??1ioHashString@@QAE@XZ
??$_Destroy@UtagBaseCharDistanceSq@@@std@@YAXPAUtagBaseCharDistanceSq@@@Z ENDP ; std::_Destroy<tagBaseCharDistanceSq>
_TEXT	ENDS
PUBLIC	?construct@?$allocator@UForceInfo@@@std@@QAEXPAUForceInfo@@ABU3@@Z ; std::allocator<ForceInfo>::construct
; Function compile flags: /Ogsp
;	COMDAT ?construct@?$allocator@UForceInfo@@@std@@QAEXPAUForceInfo@@ABU3@@Z
_TEXT	SEGMENT
__Ptr$ = 8						; size = 4
__Val$ = 12						; size = 4
?construct@?$allocator@UForceInfo@@@std@@QAEXPAUForceInfo@@ABU3@@Z PROC ; std::allocator<ForceInfo>::construct, COMDAT
; _this$ = ecx

; 196  : 		{	// construct object at _Ptr with value _Val

  00000	55		 push	 ebp
  00001	8b ec		 mov	 ebp, esp
  00003	57		 push	 edi

; 197  : 		_Construct(_Ptr, _Val);

  00004	8b 7d 08	 mov	 edi, DWORD PTR __Ptr$[ebp]
  00007	85 ff		 test	 edi, edi
  00009	74 08		 je	 SHORT $LN5@construct@2
  0000b	56		 push	 esi
  0000c	8b 75 0c	 mov	 esi, DWORD PTR __Val$[ebp]
  0000f	a5		 movsd
  00010	a5		 movsd
  00011	a5		 movsd
  00012	5e		 pop	 esi
$LN5@construct@2:
  00013	5f		 pop	 edi

; 198  : 		}

  00014	5d		 pop	 ebp
  00015	c2 08 00	 ret	 8
?construct@?$allocator@UForceInfo@@@std@@QAEXPAUForceInfo@@ABU3@@Z ENDP ; std::allocator<ForceInfo>::construct
_TEXT	ENDS
PUBLIC	?construct@?$allocator@UtagBaseCharDistanceSq@@@std@@QAEXPAUtagBaseCharDistanceSq@@$$QAU3@@Z ; std::allocator<tagBaseCharDistanceSq>::construct
;	COMDAT xdata$x
; File c:\program files (x86)\microsoft visual studio 10.0\vc\include\utility
xdata$x	SEGMENT
__unwindtable$?construct@?$allocator@UtagBaseCharDistanceSq@@@std@@QAEXPAUtagBaseCharDistanceSq@@$$QAU3@@Z DD 0ffffffffH
	DD	FLAT:__unwindfunclet$?construct@?$allocator@UtagBaseCharDistanceSq@@@std@@QAEXPAUtagBaseCharDistanceSq@@$$QAU3@@Z$0
__ehfuncinfo$?construct@?$allocator@UtagBaseCharDistanceSq@@@std@@QAEXPAUtagBaseCharDistanceSq@@$$QAU3@@Z DD 019930522H
	DD	01H
	DD	FLAT:__unwindtable$?construct@?$allocator@UtagBaseCharDistanceSq@@@std@@QAEXPAUtagBaseCharDistanceSq@@$$QAU3@@Z
	DD	2 DUP(00H)
	DD	2 DUP(00H)
	DD	00H
	DD	01H
; Function compile flags: /Ogsp
; File c:\program files (x86)\microsoft visual studio 10.0\vc\include\xmemory
xdata$x	ENDS
;	COMDAT ?construct@?$allocator@UtagBaseCharDistanceSq@@@std@@QAEXPAUtagBaseCharDistanceSq@@$$QAU3@@Z
_TEXT	SEGMENT
$T537072 = -16						; size = 4
__$EHRec$ = -12						; size = 12
__Ptr$ = 8						; size = 4
__Val$ = 12						; size = 4
?construct@?$allocator@UtagBaseCharDistanceSq@@@std@@QAEXPAUtagBaseCharDistanceSq@@$$QAU3@@Z PROC ; std::allocator<tagBaseCharDistanceSq>::construct, COMDAT
; _this$ = ecx

; 201  : 		{	// construct object at _Ptr with value _Val

  00000	6a 04		 push	 4
  00002	b8 00 00 00 00	 mov	 eax, __ehhandler$?construct@?$allocator@UtagBaseCharDistanceSq@@@std@@QAEXPAUtagBaseCharDistanceSq@@$$QAU3@@Z
  00007	e8 00 00 00 00	 call	 __EH_prolog3

; 202  : 		::new ((void _FARQ *)_Ptr) _Ty(_STD forward<_Ty>(_Val));

  0000c	8b 4d 08	 mov	 ecx, DWORD PTR __Ptr$[ebp]
  0000f	89 4d f0	 mov	 DWORD PTR $T537072[ebp], ecx
  00012	83 65 fc 00	 and	 DWORD PTR __$EHRec$[ebp+8], 0
  00016	85 c9		 test	 ecx, ecx
  00018	74 08		 je	 SHORT $LN3@construct@3
  0001a	ff 75 0c	 push	 DWORD PTR __Val$[ebp]
  0001d	e8 00 00 00 00	 call	 ??0tagBaseCharDistanceSq@@QAE@ABU0@@Z
$LN3@construct@3:

; 203  : 		}

  00022	e8 00 00 00 00	 call	 __EH_epilog3
  00027	c2 08 00	 ret	 8
_TEXT	ENDS
;	COMDAT text$x
text$x	SEGMENT
__unwindfunclet$?construct@?$allocator@UtagBaseCharDistanceSq@@@std@@QAEXPAUtagBaseCharDistanceSq@@$$QAU3@@Z$0:
  00000	ff 75 08	 push	 DWORD PTR __Ptr$[ebp]
  00003	ff 75 f0	 push	 DWORD PTR $T537072[ebp]
  00006	e8 00 00 00 00	 call	 ??3@YAXPAX0@Z		; operator delete
  0000b	59		 pop	 ecx
  0000c	59		 pop	 ecx
  0000d	c3		 ret	 0
__ehhandler$?construct@?$allocator@UtagBaseCharDistanceSq@@@std@@QAEXPAUtagBaseCharDistanceSq@@$$QAU3@@Z:
  0000e	8b 54 24 08	 mov	 edx, DWORD PTR [esp+8]
  00012	8d 42 0c	 lea	 eax, DWORD PTR [edx+12]
  00015	8b 4a ec	 mov	 ecx, DWORD PTR [edx-20]
  00018	33 c8		 xor	 ecx, eax
  0001a	e8 00 00 00 00	 call	 @__security_check_cookie@4
  0001f	b8 00 00 00 00	 mov	 eax, OFFSET __ehfuncinfo$?construct@?$allocator@UtagBaseCharDistanceSq@@@std@@QAEXPAUtagBaseCharDistanceSq@@$$QAU3@@Z
  00024	e9 00 00 00 00	 jmp	 ___CxxFrameHandler3
text$x	ENDS
?construct@?$allocator@UtagBaseCharDistanceSq@@@std@@QAEXPAUtagBaseCharDistanceSq@@$$QAU3@@Z ENDP ; std::allocator<tagBaseCharDistanceSq>::construct
PUBLIC	??$swap@UtagBaseCharDistanceSq@@@std@@YAXAAUtagBaseCharDistanceSq@@0@Z ; std::swap<tagBaseCharDistanceSq>
;	COMDAT xdata$x
; File d:\lost saga for developer\youtube\tutorial\source\src\lsclient\iokeymarkattackbuff.cpp
xdata$x	SEGMENT
__unwindtable$??$swap@UtagBaseCharDistanceSq@@@std@@YAXAAUtagBaseCharDistanceSq@@0@Z DD 0ffffffffH
	DD	FLAT:__unwindfunclet$??$swap@UtagBaseCharDistanceSq@@@std@@YAXAAUtagBaseCharDistanceSq@@0@Z$0
__ehfuncinfo$??$swap@UtagBaseCharDistanceSq@@@std@@YAXAAUtagBaseCharDistanceSq@@0@Z DD 019930522H
	DD	01H
	DD	FLAT:__unwindtable$??$swap@UtagBaseCharDistanceSq@@@std@@YAXAAUtagBaseCharDistanceSq@@0@Z
	DD	2 DUP(00H)
	DD	2 DUP(00H)
	DD	00H
	DD	01H
; Function compile flags: /Ogsp
; File c:\program files (x86)\microsoft visual studio 10.0\vc\include\utility
xdata$x	ENDS
;	COMDAT ??$swap@UtagBaseCharDistanceSq@@@std@@YAXAAUtagBaseCharDistanceSq@@0@Z
_TEXT	SEGMENT
__Tmp$ = -48						; size = 32
__$EHRec$ = -12						; size = 12
__Left$ = 8						; size = 4
__Right$ = 12						; size = 4
??$swap@UtagBaseCharDistanceSq@@@std@@YAXAAUtagBaseCharDistanceSq@@0@Z PROC ; std::swap<tagBaseCharDistanceSq>, COMDAT

; 101  : 	{	// exchange values stored at _Left and _Right

  00000	6a 24		 push	 36			; 00000024H
  00002	b8 00 00 00 00	 mov	 eax, __ehhandler$??$swap@UtagBaseCharDistanceSq@@@std@@YAXAAUtagBaseCharDistanceSq@@0@Z
  00007	e8 00 00 00 00	 call	 __EH_prolog3_GS
  0000c	8b 75 08	 mov	 esi, DWORD PTR __Left$[ebp]
  0000f	8b 7d 0c	 mov	 edi, DWORD PTR __Right$[ebp]

; 102  : 	_Ty _Tmp = _Move(_Left);

  00012	56		 push	 esi
  00013	8d 4d d0	 lea	 ecx, DWORD PTR __Tmp$[ebp]
  00016	e8 00 00 00 00	 call	 ??0tagBaseCharDistanceSq@@QAE@ABU0@@Z
  0001b	83 65 fc 00	 and	 DWORD PTR __$EHRec$[ebp+8], 0

; 103  : 	_Left = _Move(_Right);

  0001f	57		 push	 edi
  00020	8b ce		 mov	 ecx, esi
  00022	e8 00 00 00 00	 call	 ??4tagBaseCharDistanceSq@@QAEAAU0@ABU0@@Z

; 104  : 	_Right = _Move(_Tmp);

  00027	8d 45 d0	 lea	 eax, DWORD PTR __Tmp$[ebp]
  0002a	50		 push	 eax
  0002b	8b cf		 mov	 ecx, edi
  0002d	e8 00 00 00 00	 call	 ??4tagBaseCharDistanceSq@@QAEAAU0@ABU0@@Z

; 105  : 	}

  00032	83 4d fc ff	 or	 DWORD PTR __$EHRec$[ebp+8], -1
  00036	8d 4d d0	 lea	 ecx, DWORD PTR __Tmp$[ebp]
  00039	ff 15 00 00 00
	00		 call	 DWORD PTR __imp_??1ioHashString@@QAE@XZ
  0003f	e8 00 00 00 00	 call	 __EH_epilog3_GS
  00044	c3		 ret	 0
_TEXT	ENDS
;	COMDAT text$x
text$x	SEGMENT
__unwindfunclet$??$swap@UtagBaseCharDistanceSq@@@std@@YAXAAUtagBaseCharDistanceSq@@0@Z$0:
  00000	8d 4d d0	 lea	 ecx, DWORD PTR __Tmp$[ebp]
  00003	e9 00 00 00 00	 jmp	 ??1tagBaseCharDistanceSq@@QAE@XZ
__ehhandler$??$swap@UtagBaseCharDistanceSq@@@std@@YAXAAUtagBaseCharDistanceSq@@0@Z:
  00008	8b 54 24 08	 mov	 edx, DWORD PTR [esp+8]
  0000c	8d 42 0c	 lea	 eax, DWORD PTR [edx+12]
  0000f	8b 4a cc	 mov	 ecx, DWORD PTR [edx-52]
  00012	33 c8		 xor	 ecx, eax
  00014	e8 00 00 00 00	 call	 @__security_check_cookie@4
  00019	8b 4a fc	 mov	 ecx, DWORD PTR [edx-4]
  0001c	33 c8		 xor	 ecx, eax
  0001e	e8 00 00 00 00	 call	 @__security_check_cookie@4
  00023	b8 00 00 00 00	 mov	 eax, OFFSET __ehfuncinfo$??$swap@UtagBaseCharDistanceSq@@@std@@YAXAAUtagBaseCharDistanceSq@@0@Z
  00028	e9 00 00 00 00	 jmp	 ___CxxFrameHandler3
text$x	ENDS
??$swap@UtagBaseCharDistanceSq@@@std@@YAXAAUtagBaseCharDistanceSq@@0@Z ENDP ; std::swap<tagBaseCharDistanceSq>
PUBLIC	??$_Construct@UWeaponInfo@@ABU1@@std@@YAXPAUWeaponInfo@@ABU1@@Z ; std::_Construct<WeaponInfo,WeaponInfo const &>
;	COMDAT xdata$x
xdata$x	SEGMENT
__unwindtable$??$_Construct@UWeaponInfo@@ABU1@@std@@YAXPAUWeaponInfo@@ABU1@@Z DD 0ffffffffH
	DD	FLAT:__unwindfunclet$??$_Construct@UWeaponInfo@@ABU1@@std@@YAXPAUWeaponInfo@@ABU1@@Z$0
__ehfuncinfo$??$_Construct@UWeaponInfo@@ABU1@@std@@YAXPAUWeaponInfo@@ABU1@@Z DD 019930522H
	DD	01H
	DD	FLAT:__unwindtable$??$_Construct@UWeaponInfo@@ABU1@@std@@YAXPAUWeaponInfo@@ABU1@@Z
	DD	2 DUP(00H)
	DD	2 DUP(00H)
	DD	00H
	DD	01H
; Function compile flags: /Ogsp
; File c:\program files (x86)\microsoft visual studio 10.0\vc\include\xmemory
xdata$x	ENDS
;	COMDAT ??$_Construct@UWeaponInfo@@ABU1@@std@@YAXPAUWeaponInfo@@ABU1@@Z
_TEXT	SEGMENT
$T537116 = -16						; size = 4
__$EHRec$ = -12						; size = 12
__Vptr$ = 8						; size = 4
__Ptr$ = 8						; size = 4
__Val$ = 12						; size = 4
??$_Construct@UWeaponInfo@@ABU1@@std@@YAXPAUWeaponInfo@@ABU1@@Z PROC ; std::_Construct<WeaponInfo,WeaponInfo const &>, COMDAT

; 46   : 	{	// construct object at _Ptr with value _Val

  00000	6a 04		 push	 4
  00002	b8 00 00 00 00	 mov	 eax, __ehhandler$??$_Construct@UWeaponInfo@@ABU1@@std@@YAXPAUWeaponInfo@@ABU1@@Z
  00007	e8 00 00 00 00	 call	 __EH_prolog3

; 47   : 	void _FARQ *_Vptr = _Ptr;

  0000c	8b 4d 08	 mov	 ecx, DWORD PTR __Ptr$[ebp]
  0000f	89 4d 08	 mov	 DWORD PTR __Vptr$[ebp], ecx

; 48   : 	::new (_Vptr) _Ty1(_STD forward<_Ty2>(_Val));

  00012	89 4d f0	 mov	 DWORD PTR $T537116[ebp], ecx
  00015	83 65 fc 00	 and	 DWORD PTR __$EHRec$[ebp+8], 0
  00019	85 c9		 test	 ecx, ecx
  0001b	74 08		 je	 SHORT $LN3@Construct@3
  0001d	ff 75 0c	 push	 DWORD PTR __Val$[ebp]
  00020	e8 00 00 00 00	 call	 ??0WeaponInfo@@QAE@ABU0@@Z
$LN3@Construct@3:

; 49   : 	}

  00025	e8 00 00 00 00	 call	 __EH_epilog3
  0002a	c3		 ret	 0
_TEXT	ENDS
;	COMDAT text$x
text$x	SEGMENT
__unwindfunclet$??$_Construct@UWeaponInfo@@ABU1@@std@@YAXPAUWeaponInfo@@ABU1@@Z$0:
  00000	ff 75 08	 push	 DWORD PTR __Vptr$[ebp]
  00003	ff 75 f0	 push	 DWORD PTR $T537116[ebp]
  00006	e8 00 00 00 00	 call	 ??3@YAXPAX0@Z		; operator delete
  0000b	59		 pop	 ecx
  0000c	59		 pop	 ecx
  0000d	c3		 ret	 0
__ehhandler$??$_Construct@UWeaponInfo@@ABU1@@std@@YAXPAUWeaponInfo@@ABU1@@Z:
  0000e	8b 54 24 08	 mov	 edx, DWORD PTR [esp+8]
  00012	8d 42 0c	 lea	 eax, DWORD PTR [edx+12]
  00015	8b 4a ec	 mov	 ecx, DWORD PTR [edx-20]
  00018	33 c8		 xor	 ecx, eax
  0001a	e8 00 00 00 00	 call	 @__security_check_cookie@4
  0001f	b8 00 00 00 00	 mov	 eax, OFFSET __ehfuncinfo$??$_Construct@UWeaponInfo@@ABU1@@std@@YAXPAUWeaponInfo@@ABU1@@Z
  00024	e9 00 00 00 00	 jmp	 ___CxxFrameHandler3
text$x	ENDS
??$_Construct@UWeaponInfo@@ABU1@@std@@YAXPAUWeaponInfo@@ABU1@@Z ENDP ; std::_Construct<WeaponInfo,WeaponInfo const &>
PUBLIC	??$_Push_heap@PAUtagBaseCharDistanceSq@@HU1@VBaseCharDistanceSqSort2@@@std@@YAXPAUtagBaseCharDistanceSq@@HH$$QAU1@VBaseCharDistanceSqSort2@@@Z ; std::_Push_heap<tagBaseCharDistanceSq *,int,tagBaseCharDistanceSq,BaseCharDistanceSqSort2>
; Function compile flags: /Ogsp
; File c:\program files (x86)\microsoft visual studio 10.0\vc\include\algorithm
;	COMDAT ??$_Push_heap@PAUtagBaseCharDistanceSq@@HU1@VBaseCharDistanceSqSort2@@@std@@YAXPAUtagBaseCharDistanceSq@@HH$$QAU1@VBaseCharDistanceSqSort2@@@Z
_TEXT	SEGMENT
__First$ = 8						; size = 4
__Hole$ = 12						; size = 4
__Top$ = 16						; size = 4
__Val$ = 20						; size = 4
__Pred$ = 24						; size = 1
??$_Push_heap@PAUtagBaseCharDistanceSq@@HU1@VBaseCharDistanceSqSort2@@@std@@YAXPAUtagBaseCharDistanceSq@@HH$$QAU1@VBaseCharDistanceSqSort2@@@Z PROC ; std::_Push_heap<tagBaseCharDistanceSq *,int,tagBaseCharDistanceSq,BaseCharDistanceSqSort2>, COMDAT

; 2455 : 	{	// percolate _Hole to _Top or where _Val belongs, using operator<

  00000	55		 push	 ebp
  00001	8b ec		 mov	 ebp, esp

; 2456 : 	for (_Diff _Idx = (_Hole - 1) / 2;

  00003	8b 4d 0c	 mov	 ecx, DWORD PTR __Hole$[ebp]
  00006	8d 41 ff	 lea	 eax, DWORD PTR [ecx-1]
  00009	53		 push	 ebx

; 2457 : 		_Top < _Hole && _DEBUG_LT_PRED(_Pred, *(_First + _Idx), _Val);
; 2458 : 		_Idx = (_Hole - 1) / 2)

  0000a	8b 5d 14	 mov	 ebx, DWORD PTR __Val$[ebp]
  0000d	99		 cdq
  0000e	56		 push	 esi
  0000f	2b c2		 sub	 eax, edx
  00011	8b f0		 mov	 esi, eax
  00013	57		 push	 edi
  00014	8b 7d 08	 mov	 edi, DWORD PTR __First$[ebp]
  00017	d1 fe		 sar	 esi, 1
  00019	eb 34		 jmp	 SHORT $LN16@Push_heap
$LL3@Push_heap:
  0001b	f3 0f 10 4b 10	 movss	 xmm1, DWORD PTR [ebx+16]
  00020	8b c6		 mov	 eax, esi
  00022	c1 e0 05	 shl	 eax, 5
  00025	03 c7		 add	 eax, edi
  00027	f3 0f 10 40 10	 movss	 xmm0, DWORD PTR [eax+16]
  0002c	0f 5a c0	 cvtps2pd xmm0, xmm0
  0002f	0f 5a c9	 cvtps2pd xmm1, xmm1
  00032	66 0f 2f c8	 comisd	 xmm1, xmm0
  00036	76 1c		 jbe	 SHORT $LN6@Push_heap

; 2459 : 		{	// move _Hole up to parent
; 2460 : 		*(_First + _Hole) = _Move(*(_First + _Idx));

  00038	c1 e1 05	 shl	 ecx, 5
  0003b	50		 push	 eax
  0003c	03 cf		 add	 ecx, edi
  0003e	e8 00 00 00 00	 call	 ??4tagBaseCharDistanceSq@@QAEAAU0@ABU0@@Z
  00043	8d 46 ff	 lea	 eax, DWORD PTR [esi-1]
  00046	99		 cdq
  00047	2b c2		 sub	 eax, edx
  00049	d1 f8		 sar	 eax, 1

; 2461 : 		_Hole = _Idx;

  0004b	8b ce		 mov	 ecx, esi
  0004d	8b f0		 mov	 esi, eax
$LN16@Push_heap:

; 2457 : 		_Top < _Hole && _DEBUG_LT_PRED(_Pred, *(_First + _Idx), _Val);
; 2458 : 		_Idx = (_Hole - 1) / 2)

  0004f	39 4d 10	 cmp	 DWORD PTR __Top$[ebp], ecx
  00052	7c c7		 jl	 SHORT $LL3@Push_heap
$LN6@Push_heap:

; 2462 : 		}
; 2463 : 
; 2464 : 	*(_First + _Hole) = _Move(_Val);	// drop _Val into final hole

  00054	c1 e1 05	 shl	 ecx, 5
  00057	53		 push	 ebx
  00058	03 cf		 add	 ecx, edi
  0005a	e8 00 00 00 00	 call	 ??4tagBaseCharDistanceSq@@QAEAAU0@ABU0@@Z
  0005f	5f		 pop	 edi
  00060	5e		 pop	 esi
  00061	5b		 pop	 ebx

; 2465 : 	}

  00062	5d		 pop	 ebp
  00063	c3		 ret	 0
??$_Push_heap@PAUtagBaseCharDistanceSq@@HU1@VBaseCharDistanceSqSort2@@@std@@YAXPAUtagBaseCharDistanceSq@@HH$$QAU1@VBaseCharDistanceSqSort2@@@Z ENDP ; std::_Push_heap<tagBaseCharDistanceSq *,int,tagBaseCharDistanceSq,BaseCharDistanceSqSort2>
_TEXT	ENDS
PUBLIC	??$_Move_backward@PAUtagBaseCharDistanceSq@@PAU1@@std@@YAPAUtagBaseCharDistanceSq@@PAU1@00U_Nonscalar_ptr_iterator_tag@0@@Z ; std::_Move_backward<tagBaseCharDistanceSq *,tagBaseCharDistanceSq *>
; Function compile flags: /Ogsp
; File c:\program files (x86)\microsoft visual studio 10.0\vc\include\xutility
;	COMDAT ??$_Move_backward@PAUtagBaseCharDistanceSq@@PAU1@@std@@YAPAUtagBaseCharDistanceSq@@PAU1@00U_Nonscalar_ptr_iterator_tag@0@@Z
_TEXT	SEGMENT
__First$ = 8						; size = 4
__Last$ = 12						; size = 4
__Dest$ = 16						; size = 4
___formal$ = 20						; size = 1
??$_Move_backward@PAUtagBaseCharDistanceSq@@PAU1@@std@@YAPAUtagBaseCharDistanceSq@@PAU1@00U_Nonscalar_ptr_iterator_tag@0@@Z PROC ; std::_Move_backward<tagBaseCharDistanceSq *,tagBaseCharDistanceSq *>, COMDAT

; 2617 : 	{	// move [_First, _Last) backwards to [..., _Dest), arbitrary iterators

  00000	55		 push	 ebp
  00001	8b ec		 mov	 ebp, esp
  00003	56		 push	 esi

; 2618 : 	while (_First != _Last)

  00004	8b 75 0c	 mov	 esi, DWORD PTR __Last$[ebp]
  00007	39 75 08	 cmp	 DWORD PTR __First$[ebp], esi
  0000a	74 15		 je	 SHORT $LN9@Move_backw
$LL2@Move_backw:

; 2619 : 		*--_Dest = _STD move(*--_Last);

  0000c	83 6d 10 20	 sub	 DWORD PTR __Dest$[ebp], 32 ; 00000020H
  00010	8b 4d 10	 mov	 ecx, DWORD PTR __Dest$[ebp]
  00013	83 ee 20	 sub	 esi, 32			; 00000020H
  00016	56		 push	 esi
  00017	e8 00 00 00 00	 call	 ??4tagBaseCharDistanceSq@@QAEAAU0@ABU0@@Z
  0001c	3b 75 08	 cmp	 esi, DWORD PTR __First$[ebp]
  0001f	75 eb		 jne	 SHORT $LL2@Move_backw
$LN9@Move_backw:

; 2620 : 	return (_Dest);

  00021	8b 45 10	 mov	 eax, DWORD PTR __Dest$[ebp]
  00024	5e		 pop	 esi

; 2621 : 	}

  00025	5d		 pop	 ebp
  00026	c3		 ret	 0
??$_Move_backward@PAUtagBaseCharDistanceSq@@PAU1@@std@@YAPAUtagBaseCharDistanceSq@@PAU1@00U_Nonscalar_ptr_iterator_tag@0@@Z ENDP ; std::_Move_backward<tagBaseCharDistanceSq *,tagBaseCharDistanceSq *>
_TEXT	ENDS
PUBLIC	??0?$CEncrypt@M@@QAE@XZ				; CEncrypt<float>::CEncrypt<float>
EXTRN	??0ccddaabb@@QAE@XZ:PROC			; ccddaabb::ccddaabb
;	COMDAT xdata$x
; File d:\lost saga for developer\youtube\tutorial\source\src\lsclient\encryptvalue.h
xdata$x	SEGMENT
__unwindtable$??0?$CEncrypt@M@@QAE@XZ DD 0ffffffffH
	DD	FLAT:__unwindfunclet$??0?$CEncrypt@M@@QAE@XZ$0
__ehfuncinfo$??0?$CEncrypt@M@@QAE@XZ DD 019930522H
	DD	01H
	DD	FLAT:__unwindtable$??0?$CEncrypt@M@@QAE@XZ
	DD	2 DUP(00H)
	DD	2 DUP(00H)
	DD	00H
	DD	01H
; Function compile flags: /Ogsp
xdata$x	ENDS
;	COMDAT ??0?$CEncrypt@M@@QAE@XZ
_TEXT	SEGMENT
_this$ = -16						; size = 4
__$EHRec$ = -12						; size = 12
??0?$CEncrypt@M@@QAE@XZ PROC				; CEncrypt<float>::CEncrypt<float>, COMDAT
; _this$ = ecx

; 109  : 	CEncrypt()

  00000	6a 04		 push	 4
  00002	b8 00 00 00 00	 mov	 eax, __ehhandler$??0?$CEncrypt@M@@QAE@XZ
  00007	e8 00 00 00 00	 call	 __EH_prolog3
  0000c	8b f1		 mov	 esi, ecx
  0000e	89 75 f0	 mov	 DWORD PTR _this$[ebp], esi
  00011	8d 4e 0c	 lea	 ecx, DWORD PTR [esi+12]
  00014	c7 06 00 00 00
	00		 mov	 DWORD PTR [esi], OFFSET ??_7?$CEncrypt@M@@6B@
  0001a	e8 00 00 00 00	 call	 ??0ccddaabb@@QAE@XZ	; ccddaabb::ccddaabb
  0001f	83 65 fc 00	 and	 DWORD PTR __$EHRec$[ebp+8], 0

; 110  : 	{
; 111  : 		Init();

  00023	8b ce		 mov	 ecx, esi
  00025	e8 00 00 00 00	 call	 ?Init@?$CEncrypt@M@@AAEXXZ ; CEncrypt<float>::Init

; 112  : 	}

  0002a	8b c6		 mov	 eax, esi
  0002c	e8 00 00 00 00	 call	 __EH_epilog3
  00031	c3		 ret	 0
_TEXT	ENDS
;	COMDAT text$x
text$x	SEGMENT
__unwindfunclet$??0?$CEncrypt@M@@QAE@XZ$0:
  00000	8b 4d f0	 mov	 ecx, DWORD PTR _this$[ebp]
  00003	83 c1 0c	 add	 ecx, 12			; 0000000cH
  00006	e9 00 00 00 00	 jmp	 ??1ccddaabb@@UAE@XZ	; ccddaabb::~ccddaabb
__ehhandler$??0?$CEncrypt@M@@QAE@XZ:
  0000b	8b 54 24 08	 mov	 edx, DWORD PTR [esp+8]
  0000f	8d 42 0c	 lea	 eax, DWORD PTR [edx+12]
  00012	8b 4a ec	 mov	 ecx, DWORD PTR [edx-20]
  00015	33 c8		 xor	 ecx, eax
  00017	e8 00 00 00 00	 call	 @__security_check_cookie@4
  0001c	b8 00 00 00 00	 mov	 eax, OFFSET __ehfuncinfo$??0?$CEncrypt@M@@QAE@XZ
  00021	e9 00 00 00 00	 jmp	 ___CxxFrameHandler3
text$x	ENDS
??0?$CEncrypt@M@@QAE@XZ ENDP				; CEncrypt<float>::CEncrypt<float>
PUBLIC	??B?$CEncrypt@M@@QAEMXZ				; CEncrypt<float>::operator float
; Function compile flags: /Ogsp
;	COMDAT ??B?$CEncrypt@M@@QAEMXZ
_TEXT	SEGMENT
_value$ = -4						; size = 4
??B?$CEncrypt@M@@QAEMXZ PROC				; CEncrypt<float>::operator float, COMDAT
; _this$ = ecx

; 134  : 	{

  00000	55		 push	 ebp
  00001	8b ec		 mov	 ebp, esp
  00003	51		 push	 ecx

; 135  : 		type value;
; 136  : 		DecryptValueToPool(&value);

  00004	8d 45 fc	 lea	 eax, DWORD PTR _value$[ebp]
  00007	50		 push	 eax
  00008	e8 00 00 00 00	 call	 ?DecryptValueToPool@?$CEncrypt@M@@QAEXPAM@Z ; CEncrypt<float>::DecryptValueToPool

; 137  : 
; 138  : #ifdef _NOTUSE
; 139  : 		Debug();
; 140  : #endif
; 141  : 		return value;

  0000d	d9 45 fc	 fld	 DWORD PTR _value$[ebp]

; 142  : 	}

  00010	c9		 leave
  00011	c3		 ret	 0
??B?$CEncrypt@M@@QAEMXZ ENDP				; CEncrypt<float>::operator float
_TEXT	ENDS
PUBLIC	??B?$CEncrypt@M@@QBEMXZ				; CEncrypt<float>::operator float
; Function compile flags: /Ogsp
;	COMDAT ??B?$CEncrypt@M@@QBEMXZ
_TEXT	SEGMENT
_value$ = -4						; size = 4
??B?$CEncrypt@M@@QBEMXZ PROC				; CEncrypt<float>::operator float, COMDAT
; _this$ = ecx

; 145  : 	{

  00000	55		 push	 ebp
  00001	8b ec		 mov	 ebp, esp
  00003	51		 push	 ecx

; 146  : 		//UJ 130829, const    --start
; 147  : 		type value;
; 148  : 		CEncrypt<type>* pThis = const_cast<CEncrypt<type>*>(this);
; 149  : 		pThis->DecryptValueToPool(&value);

  00004	8d 45 fc	 lea	 eax, DWORD PTR _value$[ebp]
  00007	50		 push	 eax
  00008	e8 00 00 00 00	 call	 ?DecryptValueToPool@?$CEncrypt@M@@QAEXPAM@Z ; CEncrypt<float>::DecryptValueToPool

; 150  : 		//// const DecryptValueToPool     .
; 151  :  		//type value;
; 152  : 		//char szTempMem[MAX_ENCRYPT];
; 153  : 		//m_RC5.DecryptByte( m_MemPool, szTempMem, max(m_ValueSize, DEFAULT_ENCRYPT) );
; 154  : 		//memcpy( &value, szTempMem, m_ValueSize );
; 155  : 		//UJ --end
; 156  : 
; 157  : #ifdef _NOTUSE
; 158  : 		Debug();
; 159  : #endif
; 160  : 		return value;

  0000d	d9 45 fc	 fld	 DWORD PTR _value$[ebp]

; 161  : 	}

  00010	c9		 leave
  00011	c3		 ret	 0
??B?$CEncrypt@M@@QBEMXZ ENDP				; CEncrypt<float>::operator float
_TEXT	ENDS
PUBLIC	??4?$CEncrypt@M@@QAEMM@Z			; CEncrypt<float>::operator=
; Function compile flags: /Ogsp
;	COMDAT ??4?$CEncrypt@M@@QAEMM@Z
_TEXT	SEGMENT
_value$ = 8						; size = 4
_inValue$ = 8						; size = 4
??4?$CEncrypt@M@@QAEMM@Z PROC				; CEncrypt<float>::operator=, COMDAT
; _this$ = ecx

; 1654 : 	{	

  00000	55		 push	 ebp
  00001	8b ec		 mov	 ebp, esp

; 1655 : 		type value = inValue;

  00003	d9 45 08	 fld	 DWORD PTR _inValue$[ebp]

; 1656 : 		EncryptValueToPool((char*)&value);

  00006	8d 45 08	 lea	 eax, DWORD PTR _value$[ebp]
  00009	50		 push	 eax
  0000a	d9 5d 08	 fstp	 DWORD PTR _value$[ebp]
  0000d	e8 00 00 00 00	 call	 ?EncryptValueToPool@?$CEncrypt@M@@AAEXPBD@Z ; CEncrypt<float>::EncryptValueToPool

; 1657 : #ifdef _NOTUSE
; 1658 : 		m_value = inValue;
; 1659 : 		Debug();
; 1660 : #endif
; 1661 : 		return value;

  00012	d9 45 08	 fld	 DWORD PTR _value$[ebp]

; 1662 : 	}

  00015	5d		 pop	 ebp
  00016	c2 04 00	 ret	 4
??4?$CEncrypt@M@@QAEMM@Z ENDP				; CEncrypt<float>::operator=
_TEXT	ENDS
PUBLIC	??B?$CEncrypt@K@@QBEKXZ				; CEncrypt<unsigned long>::operator unsigned long
; Function compile flags: /Ogsp
;	COMDAT ??B?$CEncrypt@K@@QBEKXZ
_TEXT	SEGMENT
_value$ = -4						; size = 4
??B?$CEncrypt@K@@QBEKXZ PROC				; CEncrypt<unsigned long>::operator unsigned long, COMDAT
; _this$ = ecx

; 145  : 	{

  00000	55		 push	 ebp
  00001	8b ec		 mov	 ebp, esp
  00003	51		 push	 ecx

; 146  : 		//UJ 130829, const    --start
; 147  : 		type value;
; 148  : 		CEncrypt<type>* pThis = const_cast<CEncrypt<type>*>(this);
; 149  : 		pThis->DecryptValueToPool(&value);

  00004	8d 45 fc	 lea	 eax, DWORD PTR _value$[ebp]
  00007	50		 push	 eax
  00008	e8 00 00 00 00	 call	 ?DecryptValueToPool@?$CEncrypt@K@@QAEXPAK@Z ; CEncrypt<unsigned long>::DecryptValueToPool

; 150  : 		//// const DecryptValueToPool     .
; 151  :  		//type value;
; 152  : 		//char szTempMem[MAX_ENCRYPT];
; 153  : 		//m_RC5.DecryptByte( m_MemPool, szTempMem, max(m_ValueSize, DEFAULT_ENCRYPT) );
; 154  : 		//memcpy( &value, szTempMem, m_ValueSize );
; 155  : 		//UJ --end
; 156  : 
; 157  : #ifdef _NOTUSE
; 158  : 		Debug();
; 159  : #endif
; 160  : 		return value;

  0000d	8b 45 fc	 mov	 eax, DWORD PTR _value$[ebp]

; 161  : 	}

  00010	c9		 leave
  00011	c3		 ret	 0
??B?$CEncrypt@K@@QBEKXZ ENDP				; CEncrypt<unsigned long>::operator unsigned long
_TEXT	ENDS
PUBLIC	??4?$CEncrypt@K@@QAEKK@Z			; CEncrypt<unsigned long>::operator=
; Function compile flags: /Ogsp
;	COMDAT ??4?$CEncrypt@K@@QAEKK@Z
_TEXT	SEGMENT
_value$ = 8						; size = 4
_inValue$ = 8						; size = 4
??4?$CEncrypt@K@@QAEKK@Z PROC				; CEncrypt<unsigned long>::operator=, COMDAT
; _this$ = ecx

; 1262 : 	{

  00000	55		 push	 ebp
  00001	8b ec		 mov	 ebp, esp

; 1263 : 		
; 1264 : 		type value = inValue;

  00003	8b 45 08	 mov	 eax, DWORD PTR _inValue$[ebp]
  00006	89 45 08	 mov	 DWORD PTR _value$[ebp], eax

; 1265 : 		EncryptValueToPool((char*)&value);

  00009	8d 45 08	 lea	 eax, DWORD PTR _value$[ebp]
  0000c	50		 push	 eax
  0000d	e8 00 00 00 00	 call	 ?EncryptValueToPool@?$CEncrypt@K@@AAEXPBD@Z ; CEncrypt<unsigned long>::EncryptValueToPool

; 1266 : #ifdef _NOTUSE
; 1267 : 		m_value = inValue;
; 1268 : 		Debug();
; 1269 : #endif
; 1270 : 		return value;

  00012	8b 45 08	 mov	 eax, DWORD PTR _value$[ebp]

; 1271 : 	}

  00015	5d		 pop	 ebp
  00016	c2 04 00	 ret	 4
??4?$CEncrypt@K@@QAEKK@Z ENDP				; CEncrypt<unsigned long>::operator=
_TEXT	ENDS
PUBLIC	??B?$CEncrypt@_N@@QBE_NXZ			; CEncrypt<bool>::operator bool
; Function compile flags: /Ogsp
;	COMDAT ??B?$CEncrypt@_N@@QBE_NXZ
_TEXT	SEGMENT
_value$ = -1						; size = 1
??B?$CEncrypt@_N@@QBE_NXZ PROC				; CEncrypt<bool>::operator bool, COMDAT
; _this$ = ecx

; 145  : 	{

  00000	55		 push	 ebp
  00001	8b ec		 mov	 ebp, esp
  00003	51		 push	 ecx

; 146  : 		//UJ 130829, const    --start
; 147  : 		type value;
; 148  : 		CEncrypt<type>* pThis = const_cast<CEncrypt<type>*>(this);
; 149  : 		pThis->DecryptValueToPool(&value);

  00004	8d 45 ff	 lea	 eax, DWORD PTR _value$[ebp]
  00007	50		 push	 eax
  00008	e8 00 00 00 00	 call	 ?DecryptValueToPool@?$CEncrypt@_N@@QAEXPA_N@Z ; CEncrypt<bool>::DecryptValueToPool

; 150  : 		//// const DecryptValueToPool     .
; 151  :  		//type value;
; 152  : 		//char szTempMem[MAX_ENCRYPT];
; 153  : 		//m_RC5.DecryptByte( m_MemPool, szTempMem, max(m_ValueSize, DEFAULT_ENCRYPT) );
; 154  : 		//memcpy( &value, szTempMem, m_ValueSize );
; 155  : 		//UJ --end
; 156  : 
; 157  : #ifdef _NOTUSE
; 158  : 		Debug();
; 159  : #endif
; 160  : 		return value;

  0000d	8a 45 ff	 mov	 al, BYTE PTR _value$[ebp]

; 161  : 	}

  00010	c9		 leave
  00011	c3		 ret	 0
??B?$CEncrypt@_N@@QBE_NXZ ENDP				; CEncrypt<bool>::operator bool
_TEXT	ENDS
PUBLIC	??B?$CEncrypt@W4TeamType@@@@QBE?AW4TeamType@@XZ	; CEncrypt<enum TeamType>::operator enum TeamType
; Function compile flags: /Ogsp
;	COMDAT ??B?$CEncrypt@W4TeamType@@@@QBE?AW4TeamType@@XZ
_TEXT	SEGMENT
_value$ = -4						; size = 4
??B?$CEncrypt@W4TeamType@@@@QBE?AW4TeamType@@XZ PROC	; CEncrypt<enum TeamType>::operator enum TeamType, COMDAT
; _this$ = ecx

; 145  : 	{

  00000	55		 push	 ebp
  00001	8b ec		 mov	 ebp, esp
  00003	51		 push	 ecx

; 146  : 		//UJ 130829, const    --start
; 147  : 		type value;
; 148  : 		CEncrypt<type>* pThis = const_cast<CEncrypt<type>*>(this);
; 149  : 		pThis->DecryptValueToPool(&value);

  00004	8d 45 fc	 lea	 eax, DWORD PTR _value$[ebp]
  00007	50		 push	 eax
  00008	e8 00 00 00 00	 call	 ?DecryptValueToPool@?$CEncrypt@W4TeamType@@@@QAEXPAW4TeamType@@@Z ; CEncrypt<enum TeamType>::DecryptValueToPool

; 150  : 		//// const DecryptValueToPool     .
; 151  :  		//type value;
; 152  : 		//char szTempMem[MAX_ENCRYPT];
; 153  : 		//m_RC5.DecryptByte( m_MemPool, szTempMem, max(m_ValueSize, DEFAULT_ENCRYPT) );
; 154  : 		//memcpy( &value, szTempMem, m_ValueSize );
; 155  : 		//UJ --end
; 156  : 
; 157  : #ifdef _NOTUSE
; 158  : 		Debug();
; 159  : #endif
; 160  : 		return value;

  0000d	8b 45 fc	 mov	 eax, DWORD PTR _value$[ebp]

; 161  : 	}

  00010	c9		 leave
  00011	c3		 ret	 0
??B?$CEncrypt@W4TeamType@@@@QBE?AW4TeamType@@XZ ENDP	; CEncrypt<enum TeamType>::operator enum TeamType
_TEXT	ENDS
PUBLIC	??0?$_Vector_val@UWeaponInfo@@V?$allocator@UWeaponInfo@@@std@@@std@@QAE@V?$allocator@UWeaponInfo@@@1@@Z ; std::_Vector_val<WeaponInfo,std::allocator<WeaponInfo> >::_Vector_val<WeaponInfo,std::allocator<WeaponInfo> >
; Function compile flags: /Ogsp
; File c:\program files (x86)\microsoft visual studio 10.0\vc\include\vector
;	COMDAT ??0?$_Vector_val@UWeaponInfo@@V?$allocator@UWeaponInfo@@@std@@@std@@QAE@V?$allocator@UWeaponInfo@@@1@@Z
_TEXT	SEGMENT
__Al$ = 8						; size = 1
??0?$_Vector_val@UWeaponInfo@@V?$allocator@UWeaponInfo@@@std@@@std@@QAE@V?$allocator@UWeaponInfo@@@1@@Z PROC ; std::_Vector_val<WeaponInfo,std::allocator<WeaponInfo> >::_Vector_val<WeaponInfo,std::allocator<WeaponInfo> >, COMDAT
; _this$ = ecx

; 426  : 		{	// construct allocator from _Al

  00000	8b c1		 mov	 eax, ecx

; 427  : 		_Myfirst = 0;

  00002	33 c9		 xor	 ecx, ecx
  00004	89 08		 mov	 DWORD PTR [eax], ecx

; 428  : 		_Mylast = 0;

  00006	89 48 04	 mov	 DWORD PTR [eax+4], ecx

; 429  : 		_Myend = 0;

  00009	89 48 08	 mov	 DWORD PTR [eax+8], ecx

; 430  : 		}

  0000c	c2 04 00	 ret	 4
??0?$_Vector_val@UWeaponInfo@@V?$allocator@UWeaponInfo@@@std@@@std@@QAE@V?$allocator@UWeaponInfo@@@1@@Z ENDP ; std::_Vector_val<WeaponInfo,std::allocator<WeaponInfo> >::_Vector_val<WeaponInfo,std::allocator<WeaponInfo> >
_TEXT	ENDS
PUBLIC	??0?$_Vector_val@UForceInfo@@V?$allocator@UForceInfo@@@std@@@std@@QAE@V?$allocator@UForceInfo@@@1@@Z ; std::_Vector_val<ForceInfo,std::allocator<ForceInfo> >::_Vector_val<ForceInfo,std::allocator<ForceInfo> >
; Function compile flags: /Ogsp
;	COMDAT ??0?$_Vector_val@UForceInfo@@V?$allocator@UForceInfo@@@std@@@std@@QAE@V?$allocator@UForceInfo@@@1@@Z
_TEXT	SEGMENT
__Al$ = 8						; size = 1
??0?$_Vector_val@UForceInfo@@V?$allocator@UForceInfo@@@std@@@std@@QAE@V?$allocator@UForceInfo@@@1@@Z PROC ; std::_Vector_val<ForceInfo,std::allocator<ForceInfo> >::_Vector_val<ForceInfo,std::allocator<ForceInfo> >, COMDAT
; _this$ = ecx

; 426  : 		{	// construct allocator from _Al

  00000	8b c1		 mov	 eax, ecx

; 427  : 		_Myfirst = 0;

  00002	33 c9		 xor	 ecx, ecx
  00004	89 08		 mov	 DWORD PTR [eax], ecx

; 428  : 		_Mylast = 0;

  00006	89 48 04	 mov	 DWORD PTR [eax+4], ecx

; 429  : 		_Myend = 0;

  00009	89 48 08	 mov	 DWORD PTR [eax+8], ecx

; 430  : 		}

  0000c	c2 04 00	 ret	 4
??0?$_Vector_val@UForceInfo@@V?$allocator@UForceInfo@@@std@@@std@@QAE@V?$allocator@UForceInfo@@@1@@Z ENDP ; std::_Vector_val<ForceInfo,std::allocator<ForceInfo> >::_Vector_val<ForceInfo,std::allocator<ForceInfo> >
_TEXT	ENDS
PUBLIC	?max_size@?$vector@UWeaponInfo@@V?$allocator@UWeaponInfo@@@std@@@std@@QBEIXZ ; std::vector<WeaponInfo,std::allocator<WeaponInfo> >::max_size
; Function compile flags: /Ogsp
;	COMDAT ?max_size@?$vector@UWeaponInfo@@V?$allocator@UWeaponInfo@@@std@@@std@@QBEIXZ
_TEXT	SEGMENT
?max_size@?$vector@UWeaponInfo@@V?$allocator@UWeaponInfo@@@std@@@std@@QBEIXZ PROC ; std::vector<WeaponInfo,std::allocator<WeaponInfo> >::max_size, COMDAT
; _this$ = ecx

; 884  : 		return (this->_Alval.max_size());

  00000	b8 66 66 66 06	 mov	 eax, 107374182		; 06666666H

; 885  : 		}

  00005	c3		 ret	 0
?max_size@?$vector@UWeaponInfo@@V?$allocator@UWeaponInfo@@@std@@@std@@QBEIXZ ENDP ; std::vector<WeaponInfo,std::allocator<WeaponInfo> >::max_size
_TEXT	ENDS
PUBLIC	?allocate@?$allocator@UWeaponInfo@@@std@@QAEPAUWeaponInfo@@I@Z ; std::allocator<WeaponInfo>::allocate
; Function compile flags: /Ogsp
; File c:\program files (x86)\microsoft visual studio 10.0\vc\include\xmemory
;	COMDAT ?allocate@?$allocator@UWeaponInfo@@@std@@QAEPAUWeaponInfo@@I@Z
_TEXT	SEGMENT
__Count$ = 8						; size = 4
?allocate@?$allocator@UWeaponInfo@@@std@@QAEPAUWeaponInfo@@I@Z PROC ; std::allocator<WeaponInfo>::allocate, COMDAT
; _this$ = ecx

; 186  : 		{	// allocate array of _Count elements

  00000	55		 push	 ebp
  00001	8b ec		 mov	 ebp, esp

; 187  : 		return (_Allocate(_Count, (pointer)0));

  00003	6a 00		 push	 0
  00005	ff 75 08	 push	 DWORD PTR __Count$[ebp]
  00008	e8 00 00 00 00	 call	 ??$_Allocate@UWeaponInfo@@@std@@YAPAUWeaponInfo@@IPAU1@@Z ; std::_Allocate<WeaponInfo>
  0000d	59		 pop	 ecx
  0000e	59		 pop	 ecx

; 188  : 		}

  0000f	5d		 pop	 ebp
  00010	c2 04 00	 ret	 4
?allocate@?$allocator@UWeaponInfo@@@std@@QAEPAUWeaponInfo@@I@Z ENDP ; std::allocator<WeaponInfo>::allocate
_TEXT	ENDS
PUBLIC	?max_size@?$vector@UForceInfo@@V?$allocator@UForceInfo@@@std@@@std@@QBEIXZ ; std::vector<ForceInfo,std::allocator<ForceInfo> >::max_size
; Function compile flags: /Ogsp
; File c:\program files (x86)\microsoft visual studio 10.0\vc\include\vector
;	COMDAT ?max_size@?$vector@UForceInfo@@V?$allocator@UForceInfo@@@std@@@std@@QBEIXZ
_TEXT	SEGMENT
?max_size@?$vector@UForceInfo@@V?$allocator@UForceInfo@@@std@@@std@@QBEIXZ PROC ; std::vector<ForceInfo,std::allocator<ForceInfo> >::max_size, COMDAT
; _this$ = ecx

; 884  : 		return (this->_Alval.max_size());

  00000	b8 55 55 55 15	 mov	 eax, 357913941		; 15555555H

; 885  : 		}

  00005	c3		 ret	 0
?max_size@?$vector@UForceInfo@@V?$allocator@UForceInfo@@@std@@@std@@QBEIXZ ENDP ; std::vector<ForceInfo,std::allocator<ForceInfo> >::max_size
_TEXT	ENDS
PUBLIC	?allocate@?$allocator@UForceInfo@@@std@@QAEPAUForceInfo@@I@Z ; std::allocator<ForceInfo>::allocate
; Function compile flags: /Ogsp
; File c:\program files (x86)\microsoft visual studio 10.0\vc\include\xmemory
;	COMDAT ?allocate@?$allocator@UForceInfo@@@std@@QAEPAUForceInfo@@I@Z
_TEXT	SEGMENT
__Count$ = 8						; size = 4
?allocate@?$allocator@UForceInfo@@@std@@QAEPAUForceInfo@@I@Z PROC ; std::allocator<ForceInfo>::allocate, COMDAT
; _this$ = ecx

; 186  : 		{	// allocate array of _Count elements

  00000	55		 push	 ebp
  00001	8b ec		 mov	 ebp, esp

; 187  : 		return (_Allocate(_Count, (pointer)0));

  00003	6a 00		 push	 0
  00005	ff 75 08	 push	 DWORD PTR __Count$[ebp]
  00008	e8 00 00 00 00	 call	 ??$_Allocate@UForceInfo@@@std@@YAPAUForceInfo@@IPAU1@@Z ; std::_Allocate<ForceInfo>
  0000d	59		 pop	 ecx
  0000e	59		 pop	 ecx

; 188  : 		}

  0000f	5d		 pop	 ebp
  00010	c2 04 00	 ret	 4
?allocate@?$allocator@UForceInfo@@@std@@QAEPAUForceInfo@@I@Z ENDP ; std::allocator<ForceInfo>::allocate
_TEXT	ENDS
PUBLIC	??8?$_Vector_const_iterator@V?$_Vector_val@UWeaponInfo@@V?$allocator@UWeaponInfo@@@std@@@std@@@std@@QBE_NABV01@@Z ; std::_Vector_const_iterator<std::_Vector_val<WeaponInfo,std::allocator<WeaponInfo> > >::operator==
; Function compile flags: /Ogsp
; File c:\program files (x86)\microsoft visual studio 10.0\vc\include\vector
;	COMDAT ??8?$_Vector_const_iterator@V?$_Vector_val@UWeaponInfo@@V?$allocator@UWeaponInfo@@@std@@@std@@@std@@QBE_NABV01@@Z
_TEXT	SEGMENT
__Right$ = 8						; size = 4
??8?$_Vector_const_iterator@V?$_Vector_val@UWeaponInfo@@V?$allocator@UWeaponInfo@@@std@@@std@@@std@@QBE_NABV01@@Z PROC ; std::_Vector_const_iterator<std::_Vector_val<WeaponInfo,std::allocator<WeaponInfo> > >::operator==, COMDAT
; _this$ = ecx

; 201  : 		{	// test for iterator equality

  00000	55		 push	 ebp
  00001	8b ec		 mov	 ebp, esp

; 202  : 		_Compat(_Right);
; 203  : 		return (this->_Ptr == _Right._Ptr);

  00003	8b 01		 mov	 eax, DWORD PTR [ecx]
  00005	8b 4d 08	 mov	 ecx, DWORD PTR __Right$[ebp]
  00008	2b 01		 sub	 eax, DWORD PTR [ecx]
  0000a	f7 d8		 neg	 eax
  0000c	1b c0		 sbb	 eax, eax
  0000e	40		 inc	 eax

; 204  : 		}

  0000f	5d		 pop	 ebp
  00010	c2 04 00	 ret	 4
??8?$_Vector_const_iterator@V?$_Vector_val@UWeaponInfo@@V?$allocator@UWeaponInfo@@@std@@@std@@@std@@QBE_NABV01@@Z ENDP ; std::_Vector_const_iterator<std::_Vector_val<WeaponInfo,std::allocator<WeaponInfo> > >::operator==
_TEXT	ENDS
PUBLIC	??8?$_Vector_const_iterator@V?$_Vector_val@UForceInfo@@V?$allocator@UForceInfo@@@std@@@std@@@std@@QBE_NABV01@@Z ; std::_Vector_const_iterator<std::_Vector_val<ForceInfo,std::allocator<ForceInfo> > >::operator==
; Function compile flags: /Ogsp
;	COMDAT ??8?$_Vector_const_iterator@V?$_Vector_val@UForceInfo@@V?$allocator@UForceInfo@@@std@@@std@@@std@@QBE_NABV01@@Z
_TEXT	SEGMENT
__Right$ = 8						; size = 4
??8?$_Vector_const_iterator@V?$_Vector_val@UForceInfo@@V?$allocator@UForceInfo@@@std@@@std@@@std@@QBE_NABV01@@Z PROC ; std::_Vector_const_iterator<std::_Vector_val<ForceInfo,std::allocator<ForceInfo> > >::operator==, COMDAT
; _this$ = ecx

; 201  : 		{	// test for iterator equality

  00000	55		 push	 ebp
  00001	8b ec		 mov	 ebp, esp

; 202  : 		_Compat(_Right);
; 203  : 		return (this->_Ptr == _Right._Ptr);

  00003	8b 01		 mov	 eax, DWORD PTR [ecx]
  00005	8b 4d 08	 mov	 ecx, DWORD PTR __Right$[ebp]
  00008	2b 01		 sub	 eax, DWORD PTR [ecx]
  0000a	f7 d8		 neg	 eax
  0000c	1b c0		 sbb	 eax, eax
  0000e	40		 inc	 eax

; 204  : 		}

  0000f	5d		 pop	 ebp
  00010	c2 04 00	 ret	 4
??8?$_Vector_const_iterator@V?$_Vector_val@UForceInfo@@V?$allocator@UForceInfo@@@std@@@std@@@std@@QBE_NABV01@@Z ENDP ; std::_Vector_const_iterator<std::_Vector_val<ForceInfo,std::allocator<ForceInfo> > >::operator==
_TEXT	ENDS
PUBLIC	?destroy@?$allocator@UForceInfo@@@std@@QAEXPAUForceInfo@@@Z ; std::allocator<ForceInfo>::destroy
; Function compile flags: /Ogsp
; File c:\program files (x86)\microsoft visual studio 10.0\vc\include\xmemory
;	COMDAT ?destroy@?$allocator@UForceInfo@@@std@@QAEXPAUForceInfo@@@Z
_TEXT	SEGMENT
__Ptr$ = 8						; size = 4
?destroy@?$allocator@UForceInfo@@@std@@QAEXPAUForceInfo@@@Z PROC ; std::allocator<ForceInfo>::destroy, COMDAT
; _this$ = ecx

; 213  : 		_Destroy(_Ptr);
; 214  : 		}

  00000	c2 04 00	 ret	 4
?destroy@?$allocator@UForceInfo@@@std@@QAEXPAUForceInfo@@@Z ENDP ; std::allocator<ForceInfo>::destroy
_TEXT	ENDS
PUBLIC	??$_Destroy@UWeaponInfo@@@std@@YAXPAUWeaponInfo@@@Z ; std::_Destroy<WeaponInfo>
; Function compile flags: /Ogsp
;	COMDAT ??$_Destroy@UWeaponInfo@@@std@@YAXPAUWeaponInfo@@@Z
_TEXT	SEGMENT
__Ptr$ = 8						; size = 4
??$_Destroy@UWeaponInfo@@@std@@YAXPAUWeaponInfo@@@Z PROC ; std::_Destroy<WeaponInfo>, COMDAT

; 62   : 	{	// destroy object at _Ptr

  00000	55		 push	 ebp
  00001	8b ec		 mov	 ebp, esp

; 63   : 	_Ptr->~_Ty();

  00003	8b 4d 08	 mov	 ecx, DWORD PTR __Ptr$[ebp]
  00006	83 c1 08	 add	 ecx, 8

; 64   : 	}

  00009	5d		 pop	 ebp

; 63   : 	_Ptr->~_Ty();

  0000a	ff 25 00 00 00
	00		 jmp	 DWORD PTR __imp_??1ioHashString@@QAE@XZ
??$_Destroy@UWeaponInfo@@@std@@YAXPAUWeaponInfo@@@Z ENDP ; std::_Destroy<WeaponInfo>
_TEXT	ENDS
PUBLIC	?SetGravityAmt@ioBaseChar@@QAEXM@Z		; ioBaseChar::SetGravityAmt
; Function compile flags: /Ogsp
; File d:\lost saga for developer\youtube\tutorial\source\src\lsclient\iobasechar.h
;	COMDAT ?SetGravityAmt@ioBaseChar@@QAEXM@Z
_TEXT	SEGMENT
_value$537252 = 8					; size = 4
_fAmt$ = 8						; size = 4
?SetGravityAmt@ioBaseChar@@QAEXM@Z PROC			; ioBaseChar::SetGravityAmt, COMDAT
; _this$ = ecx

; 2631 : 	inline void SetGravityAmt( float fAmt ) { m_fGravityAmt = fAmt; }

  00000	55		 push	 ebp
  00001	8b ec		 mov	 ebp, esp
  00003	f3 0f 10 45 08	 movss	 xmm0, DWORD PTR _fAmt$[ebp]
  00008	8d 45 08	 lea	 eax, DWORD PTR _value$537252[ebp]
  0000b	50		 push	 eax
  0000c	81 c1 e8 0b 00
	00		 add	 ecx, 3048		; 00000be8H
  00012	f3 0f 11 45 08	 movss	 DWORD PTR _value$537252[ebp], xmm0
  00017	e8 00 00 00 00	 call	 ?EncryptValueToPool@?$CEncrypt@M@@AAEXPBD@Z ; CEncrypt<float>::EncryptValueToPool
  0001c	5d		 pop	 ebp
  0001d	c2 04 00	 ret	 4
?SetGravityAmt@ioBaseChar@@QAEXM@Z ENDP			; ioBaseChar::SetGravityAmt
_TEXT	ENDS
PUBLIC	?SetForcePowerAmt@ioBaseChar@@QAEXM@Z		; ioBaseChar::SetForcePowerAmt
; Function compile flags: /Ogsp
;	COMDAT ?SetForcePowerAmt@ioBaseChar@@QAEXM@Z
_TEXT	SEGMENT
_value$537258 = 8					; size = 4
_fAmt$ = 8						; size = 4
?SetForcePowerAmt@ioBaseChar@@QAEXM@Z PROC		; ioBaseChar::SetForcePowerAmt, COMDAT
; _this$ = ecx

; 2641 : 	inline void SetForcePowerAmt( float fAmt ) { m_fForceAmt = fAmt; }

  00000	55		 push	 ebp
  00001	8b ec		 mov	 ebp, esp
  00003	f3 0f 10 45 08	 movss	 xmm0, DWORD PTR _fAmt$[ebp]
  00008	8d 45 08	 lea	 eax, DWORD PTR _value$537258[ebp]
  0000b	50		 push	 eax
  0000c	81 c1 88 0b 00
	00		 add	 ecx, 2952		; 00000b88H
  00012	f3 0f 11 45 08	 movss	 DWORD PTR _value$537258[ebp], xmm0
  00017	e8 00 00 00 00	 call	 ?EncryptValueToPool@?$CEncrypt@M@@AAEXPBD@Z ; CEncrypt<float>::EncryptValueToPool
  0001c	5d		 pop	 ebp
  0001d	c2 04 00	 ret	 4
?SetForcePowerAmt@ioBaseChar@@QAEXM@Z ENDP		; ioBaseChar::SetForcePowerAmt
_TEXT	ENDS
PUBLIC	?GetExperienceMode@ioBaseChar@@QBE?BKXZ		; ioBaseChar::GetExperienceMode
; Function compile flags: /Ogsp
;	COMDAT ?GetExperienceMode@ioBaseChar@@QBE?BKXZ
_TEXT	SEGMENT
_value$537264 = -4					; size = 4
?GetExperienceMode@ioBaseChar@@QBE?BKXZ PROC		; ioBaseChar::GetExperienceMode, COMDAT
; _this$ = ecx

; 3193 : 	inline const DWORD GetExperienceMode() const { return m_ExperienceMode; }

  00000	55		 push	 ebp
  00001	8b ec		 mov	 ebp, esp
  00003	51		 push	 ecx
  00004	8d 45 fc	 lea	 eax, DWORD PTR _value$537264[ebp]
  00007	50		 push	 eax
  00008	81 c1 94 1d 00
	00		 add	 ecx, 7572		; 00001d94H
  0000e	e8 00 00 00 00	 call	 ?DecryptValueToPool@?$CEncrypt@K@@QAEXPAK@Z ; CEncrypt<unsigned long>::DecryptValueToPool
  00013	8b 45 fc	 mov	 eax, DWORD PTR _value$537264[ebp]
  00016	c9		 leave
  00017	c3		 ret	 0
?GetExperienceMode@ioBaseChar@@QBE?BKXZ ENDP		; ioBaseChar::GetExperienceMode
_TEXT	ENDS
PUBLIC	?IsExcavating@ioBaseChar@@QBE_NXZ		; ioBaseChar::IsExcavating
; Function compile flags: /Ogsp
;	COMDAT ?IsExcavating@ioBaseChar@@QBE_NXZ
_TEXT	SEGMENT
_value$537271 = -1					; size = 1
?IsExcavating@ioBaseChar@@QBE_NXZ PROC			; ioBaseChar::IsExcavating, COMDAT
; _this$ = ecx

; 4001 : 	bool IsExcavating() const { return m_bExcavating; }

  00000	55		 push	 ebp
  00001	8b ec		 mov	 ebp, esp
  00003	51		 push	 ecx
  00004	8d 45 ff	 lea	 eax, DWORD PTR _value$537271[ebp]
  00007	50		 push	 eax
  00008	81 c1 20 30 00
	00		 add	 ecx, 12320		; 00003020H
  0000e	e8 00 00 00 00	 call	 ?DecryptValueToPool@?$CEncrypt@_N@@QAEXPA_N@Z ; CEncrypt<bool>::DecryptValueToPool
  00013	8a 45 ff	 mov	 al, BYTE PTR _value$537271[ebp]
  00016	c9		 leave
  00017	c3		 ret	 0
?IsExcavating@ioBaseChar@@QBE_NXZ ENDP			; ioBaseChar::IsExcavating
_TEXT	ENDS
PUBLIC	??_C@_0BK@PDKLEFBD@disable_owner_down_attack?$AA@ ; `string'
PUBLIC	??_C@_00CNPNBAHC@?$AA@				; `string'
PUBLIC	__$ArrayPad$
PUBLIC	?LoadProperty@ioKeyMarkAttackBuff@@UAEXAAVioINILoader@@@Z ; ioKeyMarkAttackBuff::LoadProperty
EXTRN	__imp_??4ioHashString@@QAEAAV0@PBD@Z:PROC
EXTRN	?LoadProperty@ioBuff@@UAEXAAVioINILoader@@@Z:PROC ; ioBuff::LoadProperty
;	COMDAT ??_C@_0BK@PDKLEFBD@disable_owner_down_attack?$AA@
; File d:\lost saga for developer\youtube\tutorial\source\src\lsclient\stringprotect.h
CONST	SEGMENT
??_C@_0BK@PDKLEFBD@disable_owner_down_attack?$AA@ DB 'disable_owner_down_'
	DB	'attack', 00H				; `string'
CONST	ENDS
;	COMDAT ??_C@_00CNPNBAHC@?$AA@
CONST	SEGMENT
??_C@_00CNPNBAHC@?$AA@ DB 00H				; `string'
; Function compile flags: /Ogsp
; File d:\lost saga for developer\youtube\tutorial\source\src\lsclient\iokeymarkattackbuff.cpp
CONST	ENDS
;	COMDAT ?LoadProperty@ioKeyMarkAttackBuff@@UAEXAAVioINILoader@@@Z
_TEXT	SEGMENT
_value$537919 = -892					; size = 4
_value$537528 = -888					; size = 4
_value$537789 = -884					; size = 4
_value$537659 = -880					; size = 4
_szBuf$ = -876						; size = 260
__k$539936 = -616					; size = 17
__k$537819 = -592					; size = 17
__k$537416 = -568					; size = 17
__k$540061 = -544					; size = 17
__k$537689 = -520					; size = 17
__k$537546 = -496					; size = 17
_szEncAttack$539074 = -472				; size = 21
__k$538949 = -444					; size = 25
__k$538824 = -412					; size = 25
__k$538699 = -380					; size = 25
__k$539699 = -348					; size = 26
__k$537291 = -316					; size = 18
__k$539561 = -292					; size = 26
__k$538436 = -260					; size = 18
__k$539824 = -236					; size = 28
__k$538561 = -204					; size = 28
__k$538311 = -172					; size = 22
_szEncAttack$539324 = -144				; size = 19
__k$539466 = -120					; size = 15
__k$538204 = -100					; size = 19
__k$538079 = -76					; size = 19
__k$537954 = -52					; size = 19
_szEncAttack$539199 = -28				; size = 18
__$ArrayPad$ = -4					; size = 4
_rkLoader$ = 8						; size = 4
?LoadProperty@ioKeyMarkAttackBuff@@UAEXAAVioINILoader@@@Z PROC ; ioKeyMarkAttackBuff::LoadProperty, COMDAT
; _this$ = ecx

; 50   : {

  00000	55		 push	 ebp
  00001	8b ec		 mov	 ebp, esp
  00003	81 ec 7c 03 00
	00		 sub	 esp, 892		; 0000037cH
  00009	a1 00 00 00 00	 mov	 eax, DWORD PTR ___security_cookie
  0000e	33 c5		 xor	 eax, ebp
  00010	89 45 fc	 mov	 DWORD PTR __$ArrayPad$[ebp], eax
  00013	53		 push	 ebx
  00014	56		 push	 esi
  00015	57		 push	 edi
  00016	8b 7d 08	 mov	 edi, DWORD PTR _rkLoader$[ebp]

; 51   : 	ioBuff::LoadProperty( rkLoader );

  00019	57		 push	 edi
  0001a	8b f1		 mov	 esi, ecx
  0001c	e8 00 00 00 00	 call	 ?LoadProperty@ioBuff@@UAEXAAVioINILoader@@@Z ; ioBuff::LoadProperty

; 52   : 	char szBuf[MAX_PATH];
; 53   : 	//Target
; 54   : 	m_TargetWoundType	= (TargetWoundType)rkLoader.LoadInt_e( "target_wound_type", TWT_ALL );

  00021	6a 04		 push	 4
  00023	c7 85 c4 fe ff
	ff 99 8d 99 8d	 mov	 DWORD PTR __k$537291[ebp], -1919316583 ; 8d998d99H
  0002d	c7 85 c8 fe ff
	ff 88 98 b4 9d	 mov	 DWORD PTR __k$537291[ebp+4], -1649108856 ; 9db49888H
  00037	c7 85 cc fe ff
	ff 82 99 85 8e	 mov	 DWORD PTR __k$537291[ebp+8], -1903847038 ; 8e859982H
  00041	c7 85 d0 fe ff
	ff b2 98 92 9a	 mov	 DWORD PTR __k$537291[ebp+12], -1701668686 ; 9a9298b2H
  0004b	8d 85 c4 fe ff
	ff		 lea	 eax, DWORD PTR __k$537291[ebp]
  00051	33 db		 xor	 ebx, ebx
  00053	66 c7 85 d4 fe
	ff ff 88 00	 mov	 WORD PTR __k$537291[ebp+16], 136 ; 00000088H
  0005c	59		 pop	 ecx
$LL106@LoadProper:
  0005d	81 30 ed ec eb
	ea		 xor	 DWORD PTR [eax], -353637139 ; eaebecedH
  00063	83 c0 04	 add	 eax, 4
  00066	49		 dec	 ecx
  00067	75 f4		 jne	 SHORT $LL106@LoadProper
  00069	80 b5 d4 fe ff
	ff ed		 xor	 BYTE PTR __k$537291[ebp+16], -19 ; ffffffedH
  00070	6a 01		 push	 1
  00072	8d 85 c4 fe ff
	ff		 lea	 eax, DWORD PTR __k$537291[ebp]
  00078	50		 push	 eax
  00079	8b cf		 mov	 ecx, edi
  0007b	ff 15 00 00 00
	00		 call	 DWORD PTR __imp_?LoadInt@ioINILoader@@QAEHPBDH@Z
  00081	89 86 70 09 00
	00		 mov	 DWORD PTR [esi+2416], eax
  00087	6a 04		 push	 4

; 55   : 	m_fTargetMinAngle		= rkLoader.LoadFloat_e( "target_min_angle", 0.0f );

  00089	c7 85 c8 fd ff
	ff 99 8d 99 8d	 mov	 DWORD PTR __k$537416[ebp], -1919316583 ; 8d998d99H
  00093	c7 85 cc fd ff
	ff 88 98 b4 87	 mov	 DWORD PTR __k$537416[ebp+4], -2018207608 ; 87b49888H
  0009d	c7 85 d0 fd ff
	ff 84 82 b4 8b	 mov	 DWORD PTR __k$537416[ebp+8], -1951104380 ; 8bb48284H
  000a7	c7 85 d4 fd ff
	ff 83 8b 87 8f	 mov	 DWORD PTR __k$537416[ebp+12], -1886942333 ; 8f878b83H
  000b1	8d 85 c8 fd ff
	ff		 lea	 eax, DWORD PTR __k$537416[ebp]
  000b7	88 9d d8 fd ff
	ff		 mov	 BYTE PTR __k$537416[ebp+16], bl
  000bd	59		 pop	 ecx
$LL212@LoadProper:
  000be	81 30 ed ec eb
	ea		 xor	 DWORD PTR [eax], -353637139 ; eaebecedH
  000c4	83 c0 04	 add	 eax, 4
  000c7	49		 dec	 ecx
  000c8	75 f4		 jne	 SHORT $LL212@LoadProper
  000ca	0f 57 c0	 xorps	 xmm0, xmm0
  000cd	51		 push	 ecx
  000ce	8d 85 c8 fd ff
	ff		 lea	 eax, DWORD PTR __k$537416[ebp]
  000d4	f3 0f 11 04 24	 movss	 DWORD PTR [esp], xmm0
  000d9	50		 push	 eax
  000da	8b cf		 mov	 ecx, edi
  000dc	ff 15 00 00 00
	00		 call	 DWORD PTR __imp_?LoadFloat@ioINILoader@@QAEMPBDM@Z
  000e2	d9 9d 88 fc ff
	ff		 fstp	 DWORD PTR _value$537528[ebp]
  000e8	8d 85 88 fc ff
	ff		 lea	 eax, DWORD PTR _value$537528[ebp]
  000ee	50		 push	 eax
  000ef	8d 8e 74 09 00
	00		 lea	 ecx, DWORD PTR [esi+2420]
  000f5	e8 00 00 00 00	 call	 ?EncryptValueToPool@?$CEncrypt@M@@AAEXPBD@Z ; CEncrypt<float>::EncryptValueToPool
  000fa	6a 04		 push	 4

; 56   : 	m_fTargetMaxAngle		= rkLoader.LoadFloat_e( "target_max_angle", 0.0f );

  000fc	c7 85 10 fe ff
	ff 99 8d 99 8d	 mov	 DWORD PTR __k$537546[ebp], -1919316583 ; 8d998d99H
  00106	c7 85 14 fe ff
	ff 88 98 b4 87	 mov	 DWORD PTR __k$537546[ebp+4], -2018207608 ; 87b49888H
  00110	c7 85 18 fe ff
	ff 8c 94 b4 8b	 mov	 DWORD PTR __k$537546[ebp+8], -1951099764 ; 8bb4948cH
  0011a	c7 85 1c fe ff
	ff 83 8b 87 8f	 mov	 DWORD PTR __k$537546[ebp+12], -1886942333 ; 8f878b83H
  00124	8d 85 10 fe ff
	ff		 lea	 eax, DWORD PTR __k$537546[ebp]
  0012a	88 9d 20 fe ff
	ff		 mov	 BYTE PTR __k$537546[ebp+16], bl
  00130	59		 pop	 ecx
$LL320@LoadProper:
  00131	81 30 ed ec eb
	ea		 xor	 DWORD PTR [eax], -353637139 ; eaebecedH
  00137	83 c0 04	 add	 eax, 4
  0013a	49		 dec	 ecx
  0013b	75 f4		 jne	 SHORT $LL320@LoadProper
  0013d	0f 57 c0	 xorps	 xmm0, xmm0
  00140	51		 push	 ecx
  00141	8d 85 10 fe ff
	ff		 lea	 eax, DWORD PTR __k$537546[ebp]
  00147	f3 0f 11 04 24	 movss	 DWORD PTR [esp], xmm0
  0014c	50		 push	 eax
  0014d	8b cf		 mov	 ecx, edi
  0014f	ff 15 00 00 00
	00		 call	 DWORD PTR __imp_?LoadFloat@ioINILoader@@QAEMPBDM@Z
  00155	d9 9d 90 fc ff
	ff		 fstp	 DWORD PTR _value$537659[ebp]
  0015b	8d 85 90 fc ff
	ff		 lea	 eax, DWORD PTR _value$537659[ebp]
  00161	50		 push	 eax
  00162	8d 8e a4 09 00
	00		 lea	 ecx, DWORD PTR [esi+2468]
  00168	e8 00 00 00 00	 call	 ?EncryptValueToPool@?$CEncrypt@M@@AAEXPBD@Z ; CEncrypt<float>::EncryptValueToPool
  0016d	6a 04		 push	 4

; 57   : 	m_fTargetMinRange		= rkLoader.LoadFloat_e( "target_min_range", 0.0f );

  0016f	c7 85 f8 fd ff
	ff 99 8d 99 8d	 mov	 DWORD PTR __k$537689[ebp], -1919316583 ; 8d998d99H
  00179	c7 85 fc fd ff
	ff 88 98 b4 87	 mov	 DWORD PTR __k$537689[ebp+4], -2018207608 ; 87b49888H
  00183	c7 85 00 fe ff
	ff 84 82 b4 98	 mov	 DWORD PTR __k$537689[ebp+8], -1733000572 ; 98b48284H
  0018d	c7 85 04 fe ff
	ff 8c 82 8c 8f	 mov	 DWORD PTR __k$537689[ebp+12], -1886616948 ; 8f8c828cH
  00197	8d 85 f8 fd ff
	ff		 lea	 eax, DWORD PTR __k$537689[ebp]
  0019d	88 9d 08 fe ff
	ff		 mov	 BYTE PTR __k$537689[ebp+16], bl
  001a3	59		 pop	 ecx
$LL428@LoadProper:
  001a4	81 30 ed ec eb
	ea		 xor	 DWORD PTR [eax], -353637139 ; eaebecedH
  001aa	83 c0 04	 add	 eax, 4
  001ad	49		 dec	 ecx
  001ae	75 f4		 jne	 SHORT $LL428@LoadProper
  001b0	0f 57 c0	 xorps	 xmm0, xmm0
  001b3	51		 push	 ecx
  001b4	8d 85 f8 fd ff
	ff		 lea	 eax, DWORD PTR __k$537689[ebp]
  001ba	f3 0f 11 04 24	 movss	 DWORD PTR [esp], xmm0
  001bf	50		 push	 eax
  001c0	8b cf		 mov	 ecx, edi
  001c2	ff 15 00 00 00
	00		 call	 DWORD PTR __imp_?LoadFloat@ioINILoader@@QAEMPBDM@Z
  001c8	d9 9d 8c fc ff
	ff		 fstp	 DWORD PTR _value$537789[ebp]
  001ce	8d 85 8c fc ff
	ff		 lea	 eax, DWORD PTR _value$537789[ebp]
  001d4	50		 push	 eax
  001d5	8d 8e d4 09 00
	00		 lea	 ecx, DWORD PTR [esi+2516]
  001db	e8 00 00 00 00	 call	 ?EncryptValueToPool@?$CEncrypt@M@@AAEXPBD@Z ; CEncrypt<float>::EncryptValueToPool
  001e0	6a 04		 push	 4

; 58   : 	m_fTargetMaxRange		= rkLoader.LoadFloat_e( "target_max_range", 0.0f );

  001e2	c7 85 b0 fd ff
	ff 99 8d 99 8d	 mov	 DWORD PTR __k$537819[ebp], -1919316583 ; 8d998d99H
  001ec	c7 85 b4 fd ff
	ff 88 98 b4 87	 mov	 DWORD PTR __k$537819[ebp+4], -2018207608 ; 87b49888H
  001f6	c7 85 b8 fd ff
	ff 8c 94 b4 98	 mov	 DWORD PTR __k$537819[ebp+8], -1732995956 ; 98b4948cH
  00200	c7 85 bc fd ff
	ff 8c 82 8c 8f	 mov	 DWORD PTR __k$537819[ebp+12], -1886616948 ; 8f8c828cH
  0020a	8d 85 b0 fd ff
	ff		 lea	 eax, DWORD PTR __k$537819[ebp]
  00210	88 9d c0 fd ff
	ff		 mov	 BYTE PTR __k$537819[ebp+16], bl
  00216	59		 pop	 ecx
$LL536@LoadProper:
  00217	81 30 ed ec eb
	ea		 xor	 DWORD PTR [eax], -353637139 ; eaebecedH
  0021d	83 c0 04	 add	 eax, 4
  00220	49		 dec	 ecx
  00221	75 f4		 jne	 SHORT $LL536@LoadProper
  00223	0f 57 c0	 xorps	 xmm0, xmm0
  00226	51		 push	 ecx
  00227	8d 85 b0 fd ff
	ff		 lea	 eax, DWORD PTR __k$537819[ebp]
  0022d	f3 0f 11 04 24	 movss	 DWORD PTR [esp], xmm0
  00232	50		 push	 eax
  00233	8b cf		 mov	 ecx, edi
  00235	ff 15 00 00 00
	00		 call	 DWORD PTR __imp_?LoadFloat@ioINILoader@@QAEMPBDM@Z
  0023b	d9 9d 84 fc ff
	ff		 fstp	 DWORD PTR _value$537919[ebp]
  00241	8d 85 84 fc ff
	ff		 lea	 eax, DWORD PTR _value$537919[ebp]
  00247	50		 push	 eax
  00248	8d 8e 04 0a 00
	00		 lea	 ecx, DWORD PTR [esi+2564]
  0024e	e8 00 00 00 00	 call	 ?EncryptValueToPool@?$CEncrypt@M@@AAEXPBD@Z ; CEncrypt<float>::EncryptValueToPool
  00253	6a 04		 push	 4

; 59   : 
; 60   : 	rkLoader.LoadString_e( "a_mark_effect_name", "", szBuf, MAX_PATH );

  00255	c7 45 cc 8c b3
	86 8b		 mov	 DWORD PTR __k$537954[ebp], -1954106484 ; 8b86b38cH
  0025c	c7 45 d0 9f 87
	b4 8f		 mov	 DWORD PTR __k$537954[ebp+4], -1883994209 ; 8fb4879fH
  00263	c7 45 d4 8b 8a
	8e 89		 mov	 DWORD PTR __k$537954[ebp+8], -1987147125 ; 898e8a8bH
  0026a	c7 45 d8 99 b3
	85 8b		 mov	 DWORD PTR __k$537954[ebp+12], -1954172007 ; 8b85b399H
  00271	66 c7 45 dc 80
	89		 mov	 WORD PTR __k$537954[ebp+16], 35200 ; 00008980H
  00277	8d 45 cc	 lea	 eax, DWORD PTR __k$537954[ebp]
  0027a	88 5d de	 mov	 BYTE PTR __k$537954[ebp+18], bl
  0027d	59		 pop	 ecx
$LL644@LoadProper:
  0027e	81 30 ed ec eb
	ea		 xor	 DWORD PTR [eax], -353637139 ; eaebecedH
  00284	83 c0 04	 add	 eax, 4
  00287	49		 dec	 ecx
  00288	75 f4		 jne	 SHORT $LL644@LoadProper
  0028a	6a 10		 push	 16			; 00000010H
  0028c	58		 pop	 eax
$LL641@LoadProper:
  0028d	8b c8		 mov	 ecx, eax
  0028f	81 e1 03 00 00
	80		 and	 ecx, -2147483645	; 80000003H
  00295	79 05		 jns	 SHORT $LN2541@LoadProper
  00297	49		 dec	 ecx
  00298	83 c9 fc	 or	 ecx, -4			; fffffffcH
  0029b	41		 inc	 ecx
$LN2541@LoadProper:
  0029c	b2 ed		 mov	 dl, -19			; ffffffedH
  0029e	2a d1		 sub	 dl, cl
  002a0	30 54 05 cc	 xor	 BYTE PTR __k$537954[ebp+eax], dl
  002a4	40		 inc	 eax
  002a5	83 f8 12	 cmp	 eax, 18			; 00000012H
  002a8	7c e3		 jl	 SHORT $LL641@LoadProper
  002aa	68 04 01 00 00	 push	 260			; 00000104H
  002af	8d 85 94 fc ff
	ff		 lea	 eax, DWORD PTR _szBuf$[ebp]
  002b5	50		 push	 eax
  002b6	68 00 00 00 00	 push	 OFFSET ??_C@_00CNPNBAHC@?$AA@
  002bb	8d 45 cc	 lea	 eax, DWORD PTR __k$537954[ebp]
  002be	50		 push	 eax
  002bf	8b cf		 mov	 ecx, edi
  002c1	ff 15 00 00 00
	00		 call	 DWORD PTR __imp_?LoadStringA@ioINILoader@@QAEXPBD0PADH@Z

; 61   : 	m_szA_MakrMapEffect = szBuf;

  002c7	8d 85 94 fc ff
	ff		 lea	 eax, DWORD PTR _szBuf$[ebp]
  002cd	50		 push	 eax
  002ce	8d 8e 64 0a 00
	00		 lea	 ecx, DWORD PTR [esi+2660]
  002d4	ff 15 00 00 00
	00		 call	 DWORD PTR __imp_??4ioHashString@@QAEAAV0@PBD@Z
  002da	6a 04		 push	 4

; 62   : 	rkLoader.LoadString_e( "s_mark_effect_name", "", szBuf, MAX_PATH );

  002dc	c7 45 b4 9e b3
	86 8b		 mov	 DWORD PTR __k$538079[ebp], -1954106466 ; 8b86b39eH
  002e3	c7 45 b8 9f 87
	b4 8f		 mov	 DWORD PTR __k$538079[ebp+4], -1883994209 ; 8fb4879fH
  002ea	c7 45 bc 8b 8a
	8e 89		 mov	 DWORD PTR __k$538079[ebp+8], -1987147125 ; 898e8a8bH
  002f1	c7 45 c0 99 b3
	85 8b		 mov	 DWORD PTR __k$538079[ebp+12], -1954172007 ; 8b85b399H
  002f8	66 c7 45 c4 80
	89		 mov	 WORD PTR __k$538079[ebp+16], 35200 ; 00008980H
  002fe	8d 45 b4	 lea	 eax, DWORD PTR __k$538079[ebp]
  00301	88 5d c6	 mov	 BYTE PTR __k$538079[ebp+18], bl
  00304	59		 pop	 ecx
$LL750@LoadProper:
  00305	81 30 ed ec eb
	ea		 xor	 DWORD PTR [eax], -353637139 ; eaebecedH
  0030b	83 c0 04	 add	 eax, 4
  0030e	49		 dec	 ecx
  0030f	75 f4		 jne	 SHORT $LL750@LoadProper
  00311	6a 10		 push	 16			; 00000010H
  00313	58		 pop	 eax
$LL747@LoadProper:
  00314	8b c8		 mov	 ecx, eax
  00316	81 e1 03 00 00
	80		 and	 ecx, -2147483645	; 80000003H
  0031c	79 05		 jns	 SHORT $LN2542@LoadProper
  0031e	49		 dec	 ecx
  0031f	83 c9 fc	 or	 ecx, -4			; fffffffcH
  00322	41		 inc	 ecx
$LN2542@LoadProper:
  00323	b2 ed		 mov	 dl, -19			; ffffffedH
  00325	2a d1		 sub	 dl, cl
  00327	30 54 05 b4	 xor	 BYTE PTR __k$538079[ebp+eax], dl
  0032b	40		 inc	 eax
  0032c	83 f8 12	 cmp	 eax, 18			; 00000012H
  0032f	7c e3		 jl	 SHORT $LL747@LoadProper
  00331	68 04 01 00 00	 push	 260			; 00000104H
  00336	8d 85 94 fc ff
	ff		 lea	 eax, DWORD PTR _szBuf$[ebp]
  0033c	50		 push	 eax
  0033d	68 00 00 00 00	 push	 OFFSET ??_C@_00CNPNBAHC@?$AA@
  00342	8d 45 b4	 lea	 eax, DWORD PTR __k$538079[ebp]
  00345	50		 push	 eax
  00346	8b cf		 mov	 ecx, edi
  00348	ff 15 00 00 00
	00		 call	 DWORD PTR __imp_?LoadStringA@ioINILoader@@QAEXPBD0PADH@Z

; 63   : 	m_szS_MakrMapEffect = szBuf;

  0034e	8d 85 94 fc ff
	ff		 lea	 eax, DWORD PTR _szBuf$[ebp]
  00354	50		 push	 eax
  00355	8d 8e 74 0a 00
	00		 lea	 ecx, DWORD PTR [esi+2676]
  0035b	ff 15 00 00 00
	00		 call	 DWORD PTR __imp_??4ioHashString@@QAEAAV0@PBD@Z
  00361	6a 04		 push	 4

; 64   : 	rkLoader.LoadString_e( "d_mark_effect_name", "", szBuf, MAX_PATH );

  00363	c7 45 9c 89 b3
	86 8b		 mov	 DWORD PTR __k$538204[ebp], -1954106487 ; 8b86b389H
  0036a	c7 45 a0 9f 87
	b4 8f		 mov	 DWORD PTR __k$538204[ebp+4], -1883994209 ; 8fb4879fH
  00371	c7 45 a4 8b 8a
	8e 89		 mov	 DWORD PTR __k$538204[ebp+8], -1987147125 ; 898e8a8bH
  00378	c7 45 a8 99 b3
	85 8b		 mov	 DWORD PTR __k$538204[ebp+12], -1954172007 ; 8b85b399H
  0037f	66 c7 45 ac 80
	89		 mov	 WORD PTR __k$538204[ebp+16], 35200 ; 00008980H
  00385	8d 45 9c	 lea	 eax, DWORD PTR __k$538204[ebp]
  00388	88 5d ae	 mov	 BYTE PTR __k$538204[ebp+18], bl
  0038b	59		 pop	 ecx
$LL856@LoadProper:
  0038c	81 30 ed ec eb
	ea		 xor	 DWORD PTR [eax], -353637139 ; eaebecedH
  00392	83 c0 04	 add	 eax, 4
  00395	49		 dec	 ecx
  00396	75 f4		 jne	 SHORT $LL856@LoadProper
  00398	6a 10		 push	 16			; 00000010H
  0039a	58		 pop	 eax
$LL853@LoadProper:
  0039b	8b c8		 mov	 ecx, eax
  0039d	81 e1 03 00 00
	80		 and	 ecx, -2147483645	; 80000003H
  003a3	79 05		 jns	 SHORT $LN2543@LoadProper
  003a5	49		 dec	 ecx
  003a6	83 c9 fc	 or	 ecx, -4			; fffffffcH
  003a9	41		 inc	 ecx
$LN2543@LoadProper:
  003aa	b2 ed		 mov	 dl, -19			; ffffffedH
  003ac	2a d1		 sub	 dl, cl
  003ae	30 54 05 9c	 xor	 BYTE PTR __k$538204[ebp+eax], dl
  003b2	40		 inc	 eax
  003b3	83 f8 12	 cmp	 eax, 18			; 00000012H
  003b6	7c e3		 jl	 SHORT $LL853@LoadProper
  003b8	68 04 01 00 00	 push	 260			; 00000104H
  003bd	8d 85 94 fc ff
	ff		 lea	 eax, DWORD PTR _szBuf$[ebp]
  003c3	50		 push	 eax
  003c4	68 00 00 00 00	 push	 OFFSET ??_C@_00CNPNBAHC@?$AA@
  003c9	8d 45 9c	 lea	 eax, DWORD PTR __k$538204[ebp]
  003cc	50		 push	 eax
  003cd	8b cf		 mov	 ecx, edi
  003cf	ff 15 00 00 00
	00		 call	 DWORD PTR __imp_?LoadStringA@ioINILoader@@QAEXPBD0PADH@Z

; 65   : 	m_szD_MakrMapEffect = szBuf;

  003d5	8d 85 94 fc ff
	ff		 lea	 eax, DWORD PTR _szBuf$[ebp]
  003db	50		 push	 eax
  003dc	8d 8e 84 0a 00
	00		 lea	 ecx, DWORD PTR [esi+2692]
  003e2	ff 15 00 00 00
	00		 call	 DWORD PTR __imp_??4ioHashString@@QAEAAV0@PBD@Z
  003e8	6a 05		 push	 5

; 66   : 	rkLoader.LoadString_e( "else_mark_effect_name", "", szBuf, MAX_PATH );

  003ea	c7 85 54 ff ff
	ff 88 80 98 8f	 mov	 DWORD PTR __k$538311[ebp], -1885831032 ; 8f988088H
  003f4	c7 85 58 ff ff
	ff b2 81 8a 98	 mov	 DWORD PTR __k$538311[ebp+4], -1735753294 ; 988a81b2H
  003fe	c7 85 5c ff ff
	ff 86 b3 8e 8c	 mov	 DWORD PTR __k$538311[ebp+8], -1936804986 ; 8c8eb386H
  00408	c7 85 60 ff ff
	ff 8b 89 88 9e	 mov	 DWORD PTR __k$538311[ebp+12], -1635219061 ; 9e88898bH
  00412	c7 85 64 ff ff
	ff b2 82 8a 87	 mov	 DWORD PTR __k$538311[ebp+16], -2020965710 ; 878a82b2H
  0041c	8d 85 54 ff ff
	ff		 lea	 eax, DWORD PTR __k$538311[ebp]
  00422	66 c7 85 68 ff
	ff ff 88 00	 mov	 WORD PTR __k$538311[ebp+20], 136 ; 00000088H
  0042b	59		 pop	 ecx
$LL962@LoadProper:
  0042c	81 30 ed ec eb
	ea		 xor	 DWORD PTR [eax], -353637139 ; eaebecedH
  00432	83 c0 04	 add	 eax, 4
  00435	49		 dec	 ecx
  00436	75 f4		 jne	 SHORT $LL962@LoadProper
  00438	80 b5 68 ff ff
	ff ed		 xor	 BYTE PTR __k$538311[ebp+20], -19 ; ffffffedH
  0043f	68 04 01 00 00	 push	 260			; 00000104H
  00444	8d 85 94 fc ff
	ff		 lea	 eax, DWORD PTR _szBuf$[ebp]
  0044a	50		 push	 eax
  0044b	68 00 00 00 00	 push	 OFFSET ??_C@_00CNPNBAHC@?$AA@
  00450	8d 85 54 ff ff
	ff		 lea	 eax, DWORD PTR __k$538311[ebp]
  00456	50		 push	 eax
  00457	8b cf		 mov	 ecx, edi
  00459	ff 15 00 00 00
	00		 call	 DWORD PTR __imp_?LoadStringA@ioINILoader@@QAEXPBD0PADH@Z

; 67   : 	m_szMarkEffect = szBuf;

  0045f	8d 85 94 fc ff
	ff		 lea	 eax, DWORD PTR _szBuf$[ebp]
  00465	50		 push	 eax
  00466	8d 8e 94 0a 00
	00		 lea	 ecx, DWORD PTR [esi+2708]
  0046c	ff 15 00 00 00
	00		 call	 DWORD PTR __imp_??4ioHashString@@QAEAAV0@PBD@Z
  00472	6a 04		 push	 4

; 68   : 
; 69   : 	m_dwAttackDelayTime = rkLoader.LoadInt_e( "attack_delay_time", 0 );

  00474	c7 85 fc fe ff
	ff 8c 98 9f 8b	 mov	 DWORD PTR __k$538436[ebp], -1952474996 ; 8b9f988cH
  0047e	c7 85 00 ff ff
	ff 8e 87 b4 8e	 mov	 DWORD PTR __k$538436[ebp+4], -1900771442 ; 8eb4878eH
  00488	c7 85 04 ff ff
	ff 88 80 8a 93	 mov	 DWORD PTR __k$538436[ebp+8], -1819639672 ; 938a8088H
  00492	c7 85 08 ff ff
	ff b2 98 82 87	 mov	 DWORD PTR __k$538436[ebp+12], -2021484366 ; 878298b2H
  0049c	8d 85 fc fe ff
	ff		 lea	 eax, DWORD PTR __k$538436[ebp]
  004a2	66 c7 85 0c ff
	ff ff 88 00	 mov	 WORD PTR __k$538436[ebp+16], 136 ; 00000088H
  004ab	59		 pop	 ecx
$LL1068@LoadProper:
  004ac	81 30 ed ec eb
	ea		 xor	 DWORD PTR [eax], -353637139 ; eaebecedH
  004b2	83 c0 04	 add	 eax, 4
  004b5	49		 dec	 ecx
  004b6	75 f4		 jne	 SHORT $LL1068@LoadProper
  004b8	80 b5 0c ff ff
	ff ed		 xor	 BYTE PTR __k$538436[ebp+16], -19 ; ffffffedH
  004bf	53		 push	 ebx
  004c0	8d 85 fc fe ff
	ff		 lea	 eax, DWORD PTR __k$538436[ebp]
  004c6	50		 push	 eax
  004c7	8b cf		 mov	 ecx, edi
  004c9	ff 15 00 00 00
	00		 call	 DWORD PTR __imp_?LoadInt@ioINILoader@@QAEHPBDH@Z
  004cf	89 86 c8 0a 00
	00		 mov	 DWORD PTR [esi+2760], eax
  004d5	6a 06		 push	 6

; 70   : 
; 71   : 	m_bFindTargetOnlyFirstLoop = rkLoader.LoadBool_e( "find_target_only_first_loop", false );

  004d7	c7 85 34 ff ff
	ff 8b 85 85 8e	 mov	 DWORD PTR __k$538561[ebp], -1903852149 ; 8e85858bH
  004e1	c7 85 38 ff ff
	ff b2 98 8a 98	 mov	 DWORD PTR __k$538561[ebp+4], -1735747406 ; 988a98b2H
  004eb	c7 85 3c ff ff
	ff 8a 89 9f b5	 mov	 DWORD PTR __k$538561[ebp+8], -1247835766 ; b59f898aH
  004f5	c7 85 40 ff ff
	ff 82 82 87 93	 mov	 DWORD PTR __k$538561[ebp+12], -1819835774 ; 93878282H
  004ff	c7 85 44 ff ff
	ff b2 8a 82 98	 mov	 DWORD PTR __k$538561[ebp+16], -1736275278 ; 98828ab2H
  00509	c7 85 48 ff ff
	ff 9e 98 b4 86	 mov	 DWORD PTR __k$538561[ebp+20], -2034984802 ; 86b4989eH
  00513	8d 85 34 ff ff
	ff		 lea	 eax, DWORD PTR __k$538561[ebp]
  00519	c7 85 4c ff ff
	ff 82 83 9b 00	 mov	 DWORD PTR __k$538561[ebp+24], 10191746 ; 009b8382H
  00523	59		 pop	 ecx
$LL1174@LoadProper:
  00524	81 30 ed ec eb
	ea		 xor	 DWORD PTR [eax], -353637139 ; eaebecedH
  0052a	83 c0 04	 add	 eax, 4
  0052d	49		 dec	 ecx
  0052e	75 f4		 jne	 SHORT $LL1174@LoadProper
  00530	6a 18		 push	 24			; 00000018H
  00532	58		 pop	 eax
$LL1171@LoadProper:
  00533	8b c8		 mov	 ecx, eax
  00535	81 e1 03 00 00
	80		 and	 ecx, -2147483645	; 80000003H
  0053b	79 05		 jns	 SHORT $LN2544@LoadProper
  0053d	49		 dec	 ecx
  0053e	83 c9 fc	 or	 ecx, -4			; fffffffcH
  00541	41		 inc	 ecx
$LN2544@LoadProper:
  00542	b2 ed		 mov	 dl, -19			; ffffffedH
  00544	2a d1		 sub	 dl, cl
  00546	30 94 05 34 ff
	ff ff		 xor	 BYTE PTR __k$538561[ebp+eax], dl
  0054d	40		 inc	 eax
  0054e	83 f8 1b	 cmp	 eax, 27			; 0000001bH
  00551	7c e0		 jl	 SHORT $LL1171@LoadProper
  00553	53		 push	 ebx
  00554	8d 85 34 ff ff
	ff		 lea	 eax, DWORD PTR __k$538561[ebp]
  0055a	50		 push	 eax
  0055b	8b cf		 mov	 ecx, edi
  0055d	ff 15 00 00 00
	00		 call	 DWORD PTR __imp_?LoadBool@ioINILoader@@QAE_NPBD_N@Z
  00563	88 86 b0 0a 00
	00		 mov	 BYTE PTR [esi+2736], al
  00569	6a 06		 push	 6

; 72   : 
; 73   : 	m_vTargetTeleportOffset.x = rkLoader.LoadFloat_e( "target_teleport_offset_x", 0.0f );

  0056b	c7 85 84 fe ff
	ff 99 8d 99 8d	 mov	 DWORD PTR __k$538699[ebp], -1919316583 ; 8d998d99H
  00575	c7 85 88 fe ff
	ff 88 98 b4 9e	 mov	 DWORD PTR __k$538699[ebp+4], -1632331640 ; 9eb49888H
  0057f	c7 85 8c fe ff
	ff 88 80 8e 9a	 mov	 DWORD PTR __k$538699[ebp+8], -1701937016 ; 9a8e8088H
  00589	c7 85 90 fe ff
	ff 82 9e 9f b5	 mov	 DWORD PTR __k$538699[ebp+12], -1247830398 ; b59f9e82H
  00593	c7 85 94 fe ff
	ff 82 8a 8d 99	 mov	 DWORD PTR __k$538699[ebp+16], -1718777214 ; 998d8a82H
  0059d	c7 85 98 fe ff
	ff 88 98 b4 92	 mov	 DWORD PTR __k$538699[ebp+20], -1833658232 ; 92b49888H
  005a7	8d 85 84 fe ff
	ff		 lea	 eax, DWORD PTR __k$538699[ebp]
  005ad	88 9d 9c fe ff
	ff		 mov	 BYTE PTR __k$538699[ebp+24], bl
  005b3	59		 pop	 ecx
$LL1280@LoadProper:
  005b4	81 30 ed ec eb
	ea		 xor	 DWORD PTR [eax], -353637139 ; eaebecedH
  005ba	83 c0 04	 add	 eax, 4
  005bd	49		 dec	 ecx
  005be	75 f4		 jne	 SHORT $LL1280@LoadProper
  005c0	0f 57 c0	 xorps	 xmm0, xmm0
  005c3	51		 push	 ecx
  005c4	8d 85 84 fe ff
	ff		 lea	 eax, DWORD PTR __k$538699[ebp]
  005ca	f3 0f 11 04 24	 movss	 DWORD PTR [esp], xmm0
  005cf	50		 push	 eax
  005d0	8b cf		 mov	 ecx, edi
  005d2	ff 15 00 00 00
	00		 call	 DWORD PTR __imp_?LoadFloat@ioINILoader@@QAEMPBDM@Z
  005d8	d9 9e d0 0a 00
	00		 fstp	 DWORD PTR [esi+2768]
  005de	6a 06		 push	 6

; 74   : 	m_vTargetTeleportOffset.y = rkLoader.LoadFloat_e( "target_teleport_offset_y", 0.0f );

  005e0	c7 85 64 fe ff
	ff 99 8d 99 8d	 mov	 DWORD PTR __k$538824[ebp], -1919316583 ; 8d998d99H
  005ea	c7 85 68 fe ff
	ff 88 98 b4 9e	 mov	 DWORD PTR __k$538824[ebp+4], -1632331640 ; 9eb49888H
  005f4	c7 85 6c fe ff
	ff 88 80 8e 9a	 mov	 DWORD PTR __k$538824[ebp+8], -1701937016 ; 9a8e8088H
  005fe	c7 85 70 fe ff
	ff 82 9e 9f b5	 mov	 DWORD PTR __k$538824[ebp+12], -1247830398 ; b59f9e82H
  00608	c7 85 74 fe ff
	ff 82 8a 8d 99	 mov	 DWORD PTR __k$538824[ebp+16], -1718777214 ; 998d8a82H
  00612	c7 85 78 fe ff
	ff 88 98 b4 93	 mov	 DWORD PTR __k$538824[ebp+20], -1816881016 ; 93b49888H
  0061c	8d 85 64 fe ff
	ff		 lea	 eax, DWORD PTR __k$538824[ebp]
  00622	88 9d 7c fe ff
	ff		 mov	 BYTE PTR __k$538824[ebp+24], bl
  00628	59		 pop	 ecx
$LL1386@LoadProper:
  00629	81 30 ed ec eb
	ea		 xor	 DWORD PTR [eax], -353637139 ; eaebecedH
  0062f	83 c0 04	 add	 eax, 4
  00632	49		 dec	 ecx
  00633	75 f4		 jne	 SHORT $LL1386@LoadProper
  00635	0f 57 c0	 xorps	 xmm0, xmm0
  00638	51		 push	 ecx
  00639	8d 85 64 fe ff
	ff		 lea	 eax, DWORD PTR __k$538824[ebp]
  0063f	f3 0f 11 04 24	 movss	 DWORD PTR [esp], xmm0
  00644	50		 push	 eax
  00645	8b cf		 mov	 ecx, edi
  00647	ff 15 00 00 00
	00		 call	 DWORD PTR __imp_?LoadFloat@ioINILoader@@QAEMPBDM@Z
  0064d	d9 9e d4 0a 00
	00		 fstp	 DWORD PTR [esi+2772]
  00653	6a 06		 push	 6

; 75   : 	m_vTargetTeleportOffset.z = rkLoader.LoadFloat_e( "target_teleport_offset_z", 0.0f );

  00655	c7 85 44 fe ff
	ff 99 8d 99 8d	 mov	 DWORD PTR __k$538949[ebp], -1919316583 ; 8d998d99H
  0065f	c7 85 48 fe ff
	ff 88 98 b4 9e	 mov	 DWORD PTR __k$538949[ebp+4], -1632331640 ; 9eb49888H
  00669	c7 85 4c fe ff
	ff 88 80 8e 9a	 mov	 DWORD PTR __k$538949[ebp+8], -1701937016 ; 9a8e8088H
  00673	c7 85 50 fe ff
	ff 82 9e 9f b5	 mov	 DWORD PTR __k$538949[ebp+12], -1247830398 ; b59f9e82H
  0067d	c7 85 54 fe ff
	ff 82 8a 8d 99	 mov	 DWORD PTR __k$538949[ebp+16], -1718777214 ; 998d8a82H
  00687	c7 85 58 fe ff
	ff 88 98 b4 90	 mov	 DWORD PTR __k$538949[ebp+20], -1867212664 ; 90b49888H
  00691	8d 85 44 fe ff
	ff		 lea	 eax, DWORD PTR __k$538949[ebp]
  00697	88 9d 5c fe ff
	ff		 mov	 BYTE PTR __k$538949[ebp+24], bl
  0069d	59		 pop	 ecx
$LL1492@LoadProper:
  0069e	81 30 ed ec eb
	ea		 xor	 DWORD PTR [eax], -353637139 ; eaebecedH
  006a4	83 c0 04	 add	 eax, 4
  006a7	49		 dec	 ecx
  006a8	75 f4		 jne	 SHORT $LL1492@LoadProper
  006aa	0f 57 c0	 xorps	 xmm0, xmm0
  006ad	51		 push	 ecx
  006ae	8d 85 44 fe ff
	ff		 lea	 eax, DWORD PTR __k$538949[ebp]
  006b4	f3 0f 11 04 24	 movss	 DWORD PTR [esp], xmm0
  006b9	50		 push	 eax
  006ba	8b cf		 mov	 ecx, edi
  006bc	ff 15 00 00 00
	00		 call	 DWORD PTR __imp_?LoadFloat@ioINILoader@@QAEMPBDM@Z
  006c2	d9 9e d8 0a 00
	00		 fstp	 DWORD PTR [esi+2776]
  006c8	6a 05		 push	 5

; 76   : 
; 77   : 	LoadAttackAttribute_e( "normal_target_attack", m_NormalTargetAttackAttribute, rkLoader );

  006ca	c7 85 28 fe ff
	ff 83 83 99 87	 mov	 DWORD PTR _szEncAttack$539074[ebp], -2019982461 ; 87998383H
  006d4	c7 85 2c fe ff
	ff 8c 80 b4 9e	 mov	 DWORD PTR _szEncAttack$539074[ebp+4], -1632337780 ; 9eb4808cH
  006de	c7 85 30 fe ff
	ff 8c 9e 8c 8f	 mov	 DWORD PTR _szEncAttack$539074[ebp+8], -1886609780 ; 8f8c9e8cH
  006e8	c7 85 34 fe ff
	ff 99 b3 8a 9e	 mov	 DWORD PTR _szEncAttack$539074[ebp+12], -1635077223 ; 9e8ab399H
  006f2	c7 85 38 fe ff
	ff 99 8d 88 81	 mov	 DWORD PTR _szEncAttack$539074[ebp+16], -2121757287 ; 81888d99H
  006fc	8d 85 28 fe ff
	ff		 lea	 eax, DWORD PTR _szEncAttack$539074[ebp]
  00702	88 9d 3c fe ff
	ff		 mov	 BYTE PTR _szEncAttack$539074[ebp+20], bl
  00708	59		 pop	 ecx
$LL1598@LoadProper:
  00709	81 30 ed ec eb
	ea		 xor	 DWORD PTR [eax], -353637139 ; eaebecedH
  0070f	83 c0 04	 add	 eax, 4
  00712	49		 dec	 ecx
  00713	75 f4		 jne	 SHORT $LL1598@LoadProper
  00715	57		 push	 edi
  00716	8d 86 e8 0a 00
	00		 lea	 eax, DWORD PTR [esi+2792]
  0071c	50		 push	 eax
  0071d	8d 85 28 fe ff
	ff		 lea	 eax, DWORD PTR _szEncAttack$539074[ebp]
  00723	50		 push	 eax
  00724	e8 00 00 00 00	 call	 ?LoadAttackAttribute@@YAXPBDAAUAttackAttribute@@AAVioINILoader@@@Z ; LoadAttackAttribute
  00729	83 c4 0c	 add	 esp, 12			; 0000000cH
  0072c	6a 04		 push	 4

; 78   : 	LoadAttackAttribute_e( "air_target_attack", m_AirTargetAttackAttribute, rkLoader );

  0072e	c7 45 e4 8c 85
	99 b5		 mov	 DWORD PTR _szEncAttack$539199[ebp], -1248230004 ; b599858cH
  00735	c7 45 e8 99 8d
	99 8d		 mov	 DWORD PTR _szEncAttack$539199[ebp+4], -1919316583 ; 8d998d99H
  0073c	c7 45 ec 88 98
	b4 8b		 mov	 DWORD PTR _szEncAttack$539199[ebp+8], -1951098744 ; 8bb49888H
  00743	c7 45 f0 99 98
	8a 89		 mov	 DWORD PTR _szEncAttack$539199[ebp+12], -1987405671 ; 898a9899H
  0074a	8d 45 e4	 lea	 eax, DWORD PTR _szEncAttack$539199[ebp]
  0074d	66 c7 45 f4 86
	00		 mov	 WORD PTR _szEncAttack$539199[ebp+16], 134 ; 00000086H
  00753	59		 pop	 ecx
$LL1704@LoadProper:
  00754	81 30 ed ec eb
	ea		 xor	 DWORD PTR [eax], -353637139 ; eaebecedH
  0075a	83 c0 04	 add	 eax, 4
  0075d	49		 dec	 ecx
  0075e	75 f4		 jne	 SHORT $LL1704@LoadProper
  00760	80 75 f4 ed	 xor	 BYTE PTR _szEncAttack$539199[ebp+16], -19 ; ffffffedH
  00764	57		 push	 edi
  00765	8d 86 38 0b 00
	00		 lea	 eax, DWORD PTR [esi+2872]
  0076b	50		 push	 eax
  0076c	8d 45 e4	 lea	 eax, DWORD PTR _szEncAttack$539199[ebp]
  0076f	50		 push	 eax
  00770	e8 00 00 00 00	 call	 ?LoadAttackAttribute@@YAXPBDAAUAttackAttribute@@AAVioINILoader@@@Z ; LoadAttackAttribute
  00775	83 c4 0c	 add	 esp, 12			; 0000000cH
  00778	6a 04		 push	 4

; 79   : 	LoadAttackAttribute_e( "down_target_attack", m_DownTargetAttackAttribute, rkLoader );

  0077a	c7 85 70 ff ff
	ff 89 83 9c 84	 mov	 DWORD PTR _szEncAttack$539324[ebp], -2070117495 ; 849c8389H
  00784	c7 85 74 ff ff
	ff b2 98 8a 98	 mov	 DWORD PTR _szEncAttack$539324[ebp+4], -1735747406 ; 988a98b2H
  0078e	c7 85 78 ff ff
	ff 8a 89 9f b5	 mov	 DWORD PTR _szEncAttack$539324[ebp+8], -1247835766 ; b59f898aH
  00798	c7 85 7c ff ff
	ff 8c 98 9f 8b	 mov	 DWORD PTR _szEncAttack$539324[ebp+12], -1952474996 ; 8b9f988cH
  007a2	66 c7 45 80 8e
	87		 mov	 WORD PTR _szEncAttack$539324[ebp+16], 34702 ; 0000878eH
  007a8	8d 85 70 ff ff
	ff		 lea	 eax, DWORD PTR _szEncAttack$539324[ebp]
  007ae	88 5d 82	 mov	 BYTE PTR _szEncAttack$539324[ebp+18], bl
  007b1	59		 pop	 ecx
$LL1810@LoadProper:
  007b2	81 30 ed ec eb
	ea		 xor	 DWORD PTR [eax], -353637139 ; eaebecedH
  007b8	83 c0 04	 add	 eax, 4
  007bb	49		 dec	 ecx
  007bc	75 f4		 jne	 SHORT $LL1810@LoadProper
  007be	6a 10		 push	 16			; 00000010H
  007c0	58		 pop	 eax
$LL1807@LoadProper:
  007c1	8b c8		 mov	 ecx, eax
  007c3	81 e1 03 00 00
	80		 and	 ecx, -2147483645	; 80000003H
  007c9	79 05		 jns	 SHORT $LN2545@LoadProper
  007cb	49		 dec	 ecx
  007cc	83 c9 fc	 or	 ecx, -4			; fffffffcH
  007cf	41		 inc	 ecx
$LN2545@LoadProper:
  007d0	b2 ed		 mov	 dl, -19			; ffffffedH
  007d2	2a d1		 sub	 dl, cl
  007d4	30 94 05 70 ff
	ff ff		 xor	 BYTE PTR _szEncAttack$539324[ebp+eax], dl
  007db	40		 inc	 eax
  007dc	83 f8 12	 cmp	 eax, 18			; 00000012H
  007df	7c e0		 jl	 SHORT $LL1807@LoadProper
  007e1	57		 push	 edi
  007e2	8d 86 88 0b 00
	00		 lea	 eax, DWORD PTR [esi+2952]
  007e8	50		 push	 eax
  007e9	8d 85 70 ff ff
	ff		 lea	 eax, DWORD PTR _szEncAttack$539324[ebp]
  007ef	50		 push	 eax
  007f0	e8 00 00 00 00	 call	 ?LoadAttackAttribute@@YAXPBDAAUAttackAttribute@@AAVioINILoader@@@Z ; LoadAttackAttribute
  007f5	83 c4 0c	 add	 esp, 12			; 0000000cH
  007f8	6a 03		 push	 3

; 80   : 
; 81   : 	m_fEndJumpPower = rkLoader.LoadFloat_e( "end_jump_power", 0.0f );

  007fa	c7 45 88 88 82
	8f b5		 mov	 DWORD PTR __k$539466[ebp], -1248886136 ; b58f8288H
  00801	c7 45 8c 87 99
	86 9a		 mov	 DWORD PTR __k$539466[ebp+4], -1702454905 ; 9a869987H
  00808	c7 45 90 b2 9c
	84 9d		 mov	 DWORD PTR __k$539466[ebp+8], -1652253518 ; 9d849cb2H
  0080f	66 c7 45 94 88
	9e		 mov	 WORD PTR __k$539466[ebp+12], 40584 ; 00009e88H
  00815	8d 45 88	 lea	 eax, DWORD PTR __k$539466[ebp]
  00818	88 5d 96	 mov	 BYTE PTR __k$539466[ebp+14], bl
  0081b	59		 pop	 ecx
$LL1916@LoadProper:
  0081c	81 30 ed ec eb
	ea		 xor	 DWORD PTR [eax], -353637139 ; eaebecedH
  00822	83 c0 04	 add	 eax, 4
  00825	49		 dec	 ecx
  00826	75 f4		 jne	 SHORT $LL1916@LoadProper
  00828	6a 0c		 push	 12			; 0000000cH
  0082a	58		 pop	 eax
$LL1913@LoadProper:
  0082b	8b c8		 mov	 ecx, eax
  0082d	81 e1 03 00 00
	80		 and	 ecx, -2147483645	; 80000003H
  00833	79 05		 jns	 SHORT $LN2546@LoadProper
  00835	49		 dec	 ecx
  00836	83 c9 fc	 or	 ecx, -4			; fffffffcH
  00839	41		 inc	 ecx
$LN2546@LoadProper:
  0083a	b2 ed		 mov	 dl, -19			; ffffffedH
  0083c	2a d1		 sub	 dl, cl
  0083e	30 54 05 88	 xor	 BYTE PTR __k$539466[ebp+eax], dl
  00842	40		 inc	 eax
  00843	83 f8 0e	 cmp	 eax, 14			; 0000000eH
  00846	7c e3		 jl	 SHORT $LL1913@LoadProper
  00848	0f 57 c0	 xorps	 xmm0, xmm0
  0084b	51		 push	 ecx
  0084c	8d 45 88	 lea	 eax, DWORD PTR __k$539466[ebp]
  0084f	f3 0f 11 04 24	 movss	 DWORD PTR [esp], xmm0
  00854	50		 push	 eax
  00855	8b cf		 mov	 ecx, edi
  00857	ff 15 00 00 00
	00		 call	 DWORD PTR __imp_?LoadFloat@ioINILoader@@QAEMPBDM@Z
  0085d	d9 9e d8 0b 00
	00		 fstp	 DWORD PTR [esi+3032]
  00863	6a 06		 push	 6

; 82   : 
; 83   : 	m_bDeleteBuffByDownState = rkLoader.LoadBool_e( "delete_buff_by_down_state", false );

  00865	c7 85 dc fe ff
	ff 89 89 87 8f	 mov	 DWORD PTR __k$539561[ebp], -1886942839 ; 8f878989H
  0086f	c7 85 e0 fe ff
	ff 99 89 b4 88	 mov	 DWORD PTR __k$539561[ebp+4], -2001434215 ; 88b48999H
  00879	c7 85 e4 fe ff
	ff 98 8a 8d b5	 mov	 DWORD PTR __k$539561[ebp+8], -1249015144 ; b58d8a98H
  00883	c7 85 e8 fe ff
	ff 8f 95 b4 8e	 mov	 DWORD PTR __k$539561[ebp+12], -1900767857 ; 8eb4958fH
  0088d	c7 85 ec fe ff
	ff 82 9b 85 b5	 mov	 DWORD PTR __k$539561[ebp+16], -1249535102 ; b5859b82H
  00897	c7 85 f0 fe ff
	ff 9e 98 8a 9e	 mov	 DWORD PTR __k$539561[ebp+20], -1635084130 ; 9e8a989eH
  008a1	8d 85 dc fe ff
	ff		 lea	 eax, DWORD PTR __k$539561[ebp]
  008a7	66 c7 85 f4 fe
	ff ff 88 00	 mov	 WORD PTR __k$539561[ebp+24], 136 ; 00000088H
  008b0	59		 pop	 ecx
$LL2022@LoadProper:
  008b1	81 30 ed ec eb
	ea		 xor	 DWORD PTR [eax], -353637139 ; eaebecedH
  008b7	83 c0 04	 add	 eax, 4
  008ba	49		 dec	 ecx
  008bb	75 f4		 jne	 SHORT $LL2022@LoadProper
  008bd	80 b5 f4 fe ff
	ff ed		 xor	 BYTE PTR __k$539561[ebp+24], -19 ; ffffffedH
  008c4	53		 push	 ebx
  008c5	8d 85 dc fe ff
	ff		 lea	 eax, DWORD PTR __k$539561[ebp]
  008cb	50		 push	 eax
  008cc	8b cf		 mov	 ecx, edi
  008ce	ff 15 00 00 00
	00		 call	 DWORD PTR __imp_?LoadBool@ioINILoader@@QAE_NPBD_N@Z
  008d4	88 86 e0 0b 00
	00		 mov	 BYTE PTR [esi+3040], al
  008da	6a 06		 push	 6

; 84   : 	m_bDeleteBuffByDropState = rkLoader.LoadBool_e( "delete_buff_by_drop_state", false );

  008dc	c7 85 a4 fe ff
	ff 89 89 87 8f	 mov	 DWORD PTR __k$539699[ebp], -1886942839 ; 8f878989H
  008e6	c7 85 a8 fe ff
	ff 99 89 b4 88	 mov	 DWORD PTR __k$539699[ebp+4], -2001434215 ; 88b48999H
  008f0	c7 85 ac fe ff
	ff 98 8a 8d b5	 mov	 DWORD PTR __k$539699[ebp+8], -1249015144 ; b58d8a98H
  008fa	c7 85 b0 fe ff
	ff 8f 95 b4 8e	 mov	 DWORD PTR __k$539699[ebp+12], -1900767857 ; 8eb4958fH
  00904	c7 85 b4 fe ff
	ff 9f 83 9b b5	 mov	 DWORD PTR __k$539699[ebp+16], -1248099425 ; b59b839fH
  0090e	c7 85 b8 fe ff
	ff 9e 98 8a 9e	 mov	 DWORD PTR __k$539699[ebp+20], -1635084130 ; 9e8a989eH
  00918	8d 85 a4 fe ff
	ff		 lea	 eax, DWORD PTR __k$539699[ebp]
  0091e	66 c7 85 bc fe
	ff ff 88 00	 mov	 WORD PTR __k$539699[ebp+24], 136 ; 00000088H
  00927	59		 pop	 ecx
$LL2128@LoadProper:
  00928	81 30 ed ec eb
	ea		 xor	 DWORD PTR [eax], -353637139 ; eaebecedH
  0092e	83 c0 04	 add	 eax, 4
  00931	49		 dec	 ecx
  00932	75 f4		 jne	 SHORT $LL2128@LoadProper
  00934	80 b5 bc fe ff
	ff ed		 xor	 BYTE PTR __k$539699[ebp+24], -19 ; ffffffedH
  0093b	53		 push	 ebx
  0093c	8d 85 a4 fe ff
	ff		 lea	 eax, DWORD PTR __k$539699[ebp]
  00942	50		 push	 eax
  00943	8b cf		 mov	 ecx, edi
  00945	ff 15 00 00 00
	00		 call	 DWORD PTR __imp_?LoadBool@ioINILoader@@QAE_NPBD_N@Z
  0094b	88 86 e1 0b 00
	00		 mov	 BYTE PTR [esi+3041], al
  00951	6a 06		 push	 6

; 85   : 	m_bDeleteBuffByWoundedState = rkLoader.LoadBool_e( "delete_buff_by_woundedstate", false );

  00953	c7 85 14 ff ff
	ff 89 89 87 8f	 mov	 DWORD PTR __k$539824[ebp], -1886942839 ; 8f878989H
  0095d	c7 85 18 ff ff
	ff 99 89 b4 88	 mov	 DWORD PTR __k$539824[ebp+4], -2001434215 ; 88b48999H
  00967	c7 85 1c ff ff
	ff 98 8a 8d b5	 mov	 DWORD PTR __k$539824[ebp+8], -1249015144 ; b58d8a98H
  00971	c7 85 20 ff ff
	ff 8f 95 b4 9d	 mov	 DWORD PTR __k$539824[ebp+12], -1649109617 ; 9db4958fH
  0097b	c7 85 24 ff ff
	ff 82 99 85 8e	 mov	 DWORD PTR __k$539824[ebp+16], -1903847038 ; 8e859982H
  00985	c7 85 28 ff ff
	ff 88 88 98 9e	 mov	 DWORD PTR __k$539824[ebp+20], -1634170744 ; 9e988888H
  0098f	8d 85 14 ff ff
	ff		 lea	 eax, DWORD PTR __k$539824[ebp]
  00995	c7 85 2c ff ff
	ff 8c 98 8e 00	 mov	 DWORD PTR __k$539824[ebp+24], 9345164 ; 008e988cH
  0099f	59		 pop	 ecx
$LL2234@LoadProper:
  009a0	81 30 ed ec eb
	ea		 xor	 DWORD PTR [eax], -353637139 ; eaebecedH
  009a6	83 c0 04	 add	 eax, 4
  009a9	49		 dec	 ecx
  009aa	75 f4		 jne	 SHORT $LL2234@LoadProper
  009ac	6a 18		 push	 24			; 00000018H
  009ae	58		 pop	 eax
$LL2231@LoadProper:
  009af	8b c8		 mov	 ecx, eax
  009b1	81 e1 03 00 00
	80		 and	 ecx, -2147483645	; 80000003H
  009b7	79 05		 jns	 SHORT $LN2547@LoadProper
  009b9	49		 dec	 ecx
  009ba	83 c9 fc	 or	 ecx, -4			; fffffffcH
  009bd	41		 inc	 ecx
$LN2547@LoadProper:
  009be	b2 ed		 mov	 dl, -19			; ffffffedH
  009c0	2a d1		 sub	 dl, cl
  009c2	30 94 05 14 ff
	ff ff		 xor	 BYTE PTR __k$539824[ebp+eax], dl
  009c9	40		 inc	 eax
  009ca	83 f8 1b	 cmp	 eax, 27			; 0000001bH
  009cd	7c e0		 jl	 SHORT $LL2231@LoadProper
  009cf	53		 push	 ebx
  009d0	8d 85 14 ff ff
	ff		 lea	 eax, DWORD PTR __k$539824[ebp]
  009d6	50		 push	 eax
  009d7	8b cf		 mov	 ecx, edi
  009d9	ff 15 00 00 00
	00		 call	 DWORD PTR __imp_?LoadBool@ioINILoader@@QAE_NPBD_N@Z

; 86   : 
; 87   : 	m_bDisableOwnerDownAttack = rkLoader.LoadBool( "disable_owner_down_attack", false );

  009df	53		 push	 ebx
  009e0	68 00 00 00 00	 push	 OFFSET ??_C@_0BK@PDKLEFBD@disable_owner_down_attack?$AA@
  009e5	8b cf		 mov	 ecx, edi
  009e7	88 86 e2 0b 00
	00		 mov	 BYTE PTR [esi+3042], al
  009ed	ff 15 00 00 00
	00		 call	 DWORD PTR __imp_?LoadBool@ioINILoader@@QAE_NPBD_N@Z
  009f3	88 86 e3 0b 00
	00		 mov	 BYTE PTR [esi+3043], al
  009f9	6a 04		 push	 4

; 88   : 
; 89   : 	m_iAttakMaxCount = rkLoader.LoadInt_e( "attack_max_count", 0 );

  009fb	c7 85 98 fd ff
	ff 8c 98 9f 8b	 mov	 DWORD PTR __k$539936[ebp], -1952474996 ; 8b9f988cH
  00a05	c7 85 9c fd ff
	ff 8e 87 b4 87	 mov	 DWORD PTR __k$539936[ebp+4], -2018211954 ; 87b4878eH
  00a0f	c7 85 a0 fd ff
	ff 8c 94 b4 89	 mov	 DWORD PTR __k$539936[ebp+8], -1984654196 ; 89b4948cH
  00a19	c7 85 a4 fd ff
	ff 82 99 85 9e	 mov	 DWORD PTR __k$539936[ebp+12], -1635411582 ; 9e859982H
  00a23	8d 85 98 fd ff
	ff		 lea	 eax, DWORD PTR __k$539936[ebp]
  00a29	88 9d a8 fd ff
	ff		 mov	 BYTE PTR __k$539936[ebp+16], bl
  00a2f	59		 pop	 ecx
$LL2340@LoadProper:
  00a30	81 30 ed ec eb
	ea		 xor	 DWORD PTR [eax], -353637139 ; eaebecedH
  00a36	83 c0 04	 add	 eax, 4
  00a39	49		 dec	 ecx
  00a3a	75 f4		 jne	 SHORT $LL2340@LoadProper
  00a3c	53		 push	 ebx
  00a3d	8d 85 98 fd ff
	ff		 lea	 eax, DWORD PTR __k$539936[ebp]
  00a43	50		 push	 eax
  00a44	8b cf		 mov	 ecx, edi
  00a46	ff 15 00 00 00
	00		 call	 DWORD PTR __imp_?LoadInt@ioINILoader@@QAEHPBDH@Z
  00a4c	89 86 e0 0a 00
	00		 mov	 DWORD PTR [esi+2784], eax
  00a52	6a 04		 push	 4

; 90   : 	m_bReduceAllGauge = rkLoader.LoadBool_e( "reduce_all_gauge", false );

  00a54	c7 85 e0 fd ff
	ff 9f 89 8f 9f	 mov	 DWORD PTR __k$540061[ebp], -1617983073 ; 9f8f899fH
  00a5e	c7 85 e4 fd ff
	ff 8e 89 b4 8b	 mov	 DWORD PTR __k$540061[ebp+4], -1951102578 ; 8bb4898eH
  00a68	c7 85 e8 fd ff
	ff 81 80 b4 8d	 mov	 DWORD PTR __k$540061[ebp+8], -1917550463 ; 8db48081H
  00a72	c7 85 ec fd ff
	ff 8c 99 8c 8f	 mov	 DWORD PTR __k$540061[ebp+12], -1886611060 ; 8f8c998cH
  00a7c	8d 85 e0 fd ff
	ff		 lea	 eax, DWORD PTR __k$540061[ebp]
  00a82	88 9d f0 fd ff
	ff		 mov	 BYTE PTR __k$540061[ebp+16], bl
  00a88	59		 pop	 ecx
$LL2446@LoadProper:
  00a89	81 30 ed ec eb
	ea		 xor	 DWORD PTR [eax], -353637139 ; eaebecedH
  00a8f	83 c0 04	 add	 eax, 4
  00a92	49		 dec	 ecx
  00a93	75 f4		 jne	 SHORT $LL2446@LoadProper
  00a95	53		 push	 ebx
  00a96	8d 85 e0 fd ff
	ff		 lea	 eax, DWORD PTR __k$540061[ebp]
  00a9c	50		 push	 eax
  00a9d	8b cf		 mov	 ecx, edi
  00a9f	ff 15 00 00 00
	00		 call	 DWORD PTR __imp_?LoadBool@ioINILoader@@QAE_NPBD_N@Z

; 91   : }

  00aa5	8b 4d fc	 mov	 ecx, DWORD PTR __$ArrayPad$[ebp]
  00aa8	5f		 pop	 edi
  00aa9	88 86 e4 0b 00
	00		 mov	 BYTE PTR [esi+3044], al
  00aaf	5e		 pop	 esi
  00ab0	33 cd		 xor	 ecx, ebp
  00ab2	5b		 pop	 ebx
  00ab3	e8 00 00 00 00	 call	 @__security_check_cookie@4
  00ab8	c9		 leave
  00ab9	c2 04 00	 ret	 4
?LoadProperty@ioKeyMarkAttackBuff@@UAEXAAVioINILoader@@@Z ENDP ; ioKeyMarkAttackBuff::LoadProperty
_TEXT	ENDS
PUBLIC	?IsEnableTargetState@ioKeyMarkAttackBuff@@IAE_NPAVioBaseChar@@_N@Z ; ioKeyMarkAttackBuff::IsEnableTargetState
EXTRN	?CheckTargetWoundType@ioBaseChar@@QAE_NW4TargetWoundType@@@Z:PROC ; ioBaseChar::CheckTargetWoundType
EXTRN	?HasHideBuff@ioBaseChar@@QAE?B_NXZ:PROC		; ioBaseChar::HasHideBuff
EXTRN	?IsChatModeState@ioBaseChar@@QBE_N_N@Z:PROC	; ioBaseChar::IsChatModeState
; Function compile flags: /Ogsp
;	COMDAT ?IsEnableTargetState@ioKeyMarkAttackBuff@@IAE_NPAVioBaseChar@@_N@Z
_TEXT	SEGMENT
_value$540300 = 8					; size = 4
_pTarget$ = 8						; size = 4
_value$540288 = 11					; size = 1
_bCheckTargetWound$ = 12				; size = 1
?IsEnableTargetState@ioKeyMarkAttackBuff@@IAE_NPAVioBaseChar@@_N@Z PROC ; ioKeyMarkAttackBuff::IsEnableTargetState, COMDAT
; _this$ = ecx

; 389  : {

  00000	55		 push	 ebp
  00001	8b ec		 mov	 ebp, esp
  00003	56		 push	 esi

; 390  : 	if( !pTarget )

  00004	8b 75 08	 mov	 esi, DWORD PTR _pTarget$[ebp]
  00007	57		 push	 edi
  00008	8b f9		 mov	 edi, ecx
  0000a	85 f6		 test	 esi, esi

; 391  : 		return false;

  0000c	0f 84 af 00 00
	00		 je	 $LN7@IsEnableTa

; 392  : 
; 393  : 	CharState eState = pTarget->GetState();
; 394  : 	switch( eState )

  00012	0f b6 86 10 03
	00 00		 movzx	 eax, BYTE PTR [esi+784]
  00019	83 f8 20	 cmp	 eax, 32			; 00000020H
  0001c	7f 29		 jg	 SHORT $LN13@IsEnableTa
  0001e	0f 84 9d 00 00
	00		 je	 $LN7@IsEnableTa
  00024	83 e8 0e	 sub	 eax, 14			; 0000000eH
  00027	0f 84 94 00 00
	00		 je	 $LN7@IsEnableTa
  0002d	48		 dec	 eax
  0002e	48		 dec	 eax
  0002f	0f 84 8c 00 00
	00		 je	 $LN7@IsEnableTa
  00035	83 e8 03	 sub	 eax, 3
  00038	0f 84 83 00 00
	00		 je	 $LN7@IsEnableTa
  0003e	83 e8 05	 sub	 eax, 5
  00041	74 7e		 je	 SHORT $LN7@IsEnableTa
  00043	48		 dec	 eax
  00044	48		 dec	 eax
  00045	eb 1c		 jmp	 SHORT $LN24@IsEnableTa
$LN13@IsEnableTa:
  00047	83 f8 22	 cmp	 eax, 34			; 00000022H
  0004a	74 75		 je	 SHORT $LN7@IsEnableTa
  0004c	83 f8 24	 cmp	 eax, 36			; 00000024H
  0004f	74 70		 je	 SHORT $LN7@IsEnableTa
  00051	83 f8 29	 cmp	 eax, 41			; 00000029H
  00054	7e 0f		 jle	 SHORT $LN8@IsEnableTa
  00056	83 f8 2b	 cmp	 eax, 43			; 0000002bH
  00059	7e 66		 jle	 SHORT $LN7@IsEnableTa
  0005b	83 f8 2f	 cmp	 eax, 47			; 0000002fH
  0005e	74 61		 je	 SHORT $LN7@IsEnableTa
  00060	83 f8 5d	 cmp	 eax, 93			; 0000005dH
$LN24@IsEnableTa:
  00063	74 5c		 je	 SHORT $LN7@IsEnableTa
$LN8@IsEnableTa:

; 409  : 	}
; 410  : 
; 411  : 	if( pTarget->IsChatModeState( false ) )

  00065	6a 00		 push	 0
  00067	8b ce		 mov	 ecx, esi
  00069	e8 00 00 00 00	 call	 ?IsChatModeState@ioBaseChar@@QBE_N_N@Z ; ioBaseChar::IsChatModeState
  0006e	84 c0		 test	 al, al

; 412  : 		return false;

  00070	75 4f		 jne	 SHORT $LN7@IsEnableTa

; 413  : 
; 414  : 	if( pTarget->IsExcavating() )

  00072	8d 45 0b	 lea	 eax, DWORD PTR _value$540288[ebp]
  00075	50		 push	 eax
  00076	8d 8e 20 30 00
	00		 lea	 ecx, DWORD PTR [esi+12320]
  0007c	e8 00 00 00 00	 call	 ?DecryptValueToPool@?$CEncrypt@_N@@QAEXPA_N@Z ; CEncrypt<bool>::DecryptValueToPool
  00081	80 7d 0b 00	 cmp	 BYTE PTR _value$540288[ebp], 0

; 415  : 		return false;

  00085	75 3a		 jne	 SHORT $LN7@IsEnableTa

; 416  : 
; 417  : 	if( pTarget->GetExperienceMode() == EMS_EXPERIENCE )

  00087	8d 45 08	 lea	 eax, DWORD PTR _value$540300[ebp]
  0008a	50		 push	 eax
  0008b	8d 8e 94 1d 00
	00		 lea	 ecx, DWORD PTR [esi+7572]
  00091	e8 00 00 00 00	 call	 ?DecryptValueToPool@?$CEncrypt@K@@QAEXPAK@Z ; CEncrypt<unsigned long>::DecryptValueToPool
  00096	83 7d 08 02	 cmp	 DWORD PTR _value$540300[ebp], 2

; 418  : 		return false;

  0009a	74 25		 je	 SHORT $LN7@IsEnableTa

; 419  : 
; 420  : 	if( pTarget->HasHideBuff() )

  0009c	8b ce		 mov	 ecx, esi
  0009e	e8 00 00 00 00	 call	 ?HasHideBuff@ioBaseChar@@QAE?B_NXZ ; ioBaseChar::HasHideBuff
  000a3	84 c0		 test	 al, al

; 421  : 		return false;

  000a5	75 1a		 jne	 SHORT $LN7@IsEnableTa

; 422  : 
; 423  : 	if( bCheckTargetWound )

  000a7	38 45 0c	 cmp	 BYTE PTR _bCheckTargetWound$[ebp], al
  000aa	74 11		 je	 SHORT $LN1@IsEnableTa

; 424  : 	{
; 425  : 		if( !pTarget->CheckTargetWoundType(m_TargetWoundType) )

  000ac	ff b7 70 09 00
	00		 push	 DWORD PTR [edi+2416]
  000b2	8b ce		 mov	 ecx, esi
  000b4	e8 00 00 00 00	 call	 ?CheckTargetWoundType@ioBaseChar@@QAE_NW4TargetWoundType@@@Z ; ioBaseChar::CheckTargetWoundType
  000b9	84 c0		 test	 al, al

; 426  : 			return false;

  000bb	74 04		 je	 SHORT $LN7@IsEnableTa
$LN1@IsEnableTa:

; 427  : 	}
; 428  : 
; 429  : 	return true;

  000bd	b0 01		 mov	 al, 1
  000bf	eb 02		 jmp	 SHORT $LN11@IsEnableTa
$LN7@IsEnableTa:

; 395  : 	{
; 396  : 	case CS_DIE:
; 397  : 	case CS_DROP_ZONE_DOWN:
; 398  : 	case CS_READY:
; 399  : 	case CS_VIEW:
; 400  : 	case CS_OBSERVER:
; 401  : 	case CS_LOADING:
; 402  : 	case CS_FISHING:
; 403  : 	case CS_STARTMOTION:
; 404  : 	case CS_ENDMOTION:
; 405  : 	case CS_WARP_STATE:
; 406  : 	case CS_EXCAVATING:
; 407  : 	case CS_ROULETTE:
; 408  : 		return false;

  000c1	32 c0		 xor	 al, al
$LN11@IsEnableTa:
  000c3	5f		 pop	 edi
  000c4	5e		 pop	 esi

; 430  : }

  000c5	5d		 pop	 ebp
  000c6	c2 08 00	 ret	 8
?IsEnableTargetState@ioKeyMarkAttackBuff@@IAE_NPAVioBaseChar@@_N@Z ENDP ; ioKeyMarkAttackBuff::IsEnableTargetState
_TEXT	ENDS
PUBLIC	?CheckEnableTargetState@ioKeyMarkAttackBuff@@IAE_NPAVioPlayStage@@@Z ; ioKeyMarkAttackBuff::CheckEnableTargetState
EXTRN	?IsSkipState@ioBaseChar@@QBE?B_NXZ:PROC		; ioBaseChar::IsSkipState
EXTRN	__imp_?IsEmpty@ioHashString@@QBE_NXZ:PROC
; Function compile flags: /Ogsp
;	COMDAT ?CheckEnableTargetState@ioKeyMarkAttackBuff@@IAE_NPAVioPlayStage@@@Z
_TEXT	SEGMENT
_value$540330 = 8					; size = 4
_pStage$ = 8						; size = 4
_value$540318 = 11					; size = 1
?CheckEnableTargetState@ioKeyMarkAttackBuff@@IAE_NPAVioPlayStage@@@Z PROC ; ioKeyMarkAttackBuff::CheckEnableTargetState, COMDAT
; _this$ = ecx

; 619  : {

  00000	55		 push	 ebp
  00001	8b ec		 mov	 ebp, esp

; 620  : 	if ( !pStage )

  00003	83 7d 08 00	 cmp	 DWORD PTR _pStage$[ebp], 0
  00007	75 07		 jne	 SHORT $LN21@CheckEnabl@2

; 621  : 		return false;

  00009	32 c0		 xor	 al, al
  0000b	e9 ad 00 00 00	 jmp	 $LN1@CheckEnabl@2
$LN21@CheckEnabl@2:
  00010	56		 push	 esi

; 622  : 
; 623  : 	if ( m_szAttackTarget.IsEmpty() )

  00011	8d b1 b4 0a 00
	00		 lea	 esi, DWORD PTR [ecx+2740]
  00017	8b ce		 mov	 ecx, esi
  00019	ff 15 00 00 00
	00		 call	 DWORD PTR __imp_?IsEmpty@ioHashString@@QBE_NXZ
  0001f	84 c0		 test	 al, al

; 624  : 		return false;

  00021	0f 85 82 00 00
	00		 jne	 $LN35@CheckEnabl@2

; 625  : 
; 626  : 	ioBaseChar* pTarget = pStage->GetBaseChar( m_szAttackTarget );

  00027	8b 4d 08	 mov	 ecx, DWORD PTR _pStage$[ebp]
  0002a	56		 push	 esi
  0002b	e8 00 00 00 00	 call	 ?GetBaseChar@ioPlayStage@@QAEPAVioBaseChar@@ABVioHashString@@@Z ; ioPlayStage::GetBaseChar
  00030	8b f0		 mov	 esi, eax

; 627  : 	if ( !pTarget )

  00032	85 f6		 test	 esi, esi

; 628  : 		return false;

  00034	74 73		 je	 SHORT $LN35@CheckEnabl@2

; 629  : 
; 630  : 	//Check TargetState
; 631  : 	CharState eState = pTarget->GetState();

  00036	8a 86 10 03 00
	00		 mov	 al, BYTE PTR [esi+784]

; 632  : 	if( eState == CS_DIE )

  0003c	3c 0e		 cmp	 al, 14			; 0000000eH

; 633  : 		return false;

  0003e	74 69		 je	 SHORT $LN35@CheckEnabl@2

; 634  : 	if( eState == CS_VIEW )

  00040	3c 1a		 cmp	 al, 26			; 0000001aH

; 635  : 		return false;

  00042	74 65		 je	 SHORT $LN35@CheckEnabl@2

; 636  : 	if( eState == CS_OBSERVER )

  00044	3c 2a		 cmp	 al, 42			; 0000002aH

; 637  : 		return false;

  00046	74 61		 je	 SHORT $LN35@CheckEnabl@2

; 638  : 	if( eState == CS_READY )

  00048	3c 18		 cmp	 al, 24			; 00000018H

; 639  : 		return false;

  0004a	74 5d		 je	 SHORT $LN35@CheckEnabl@2

; 640  : 	if( eState == CS_LOADING )

  0004c	3c 24		 cmp	 al, 36			; 00000024H

; 641  : 		return false;

  0004e	74 59		 je	 SHORT $LN35@CheckEnabl@2

; 642  : 	if( eState == CS_FISHING )

  00050	3c 2b		 cmp	 al, 43			; 0000002bH

; 643  : 		return false;

  00052	74 55		 je	 SHORT $LN35@CheckEnabl@2

; 644  : 	if( eState == CS_CREEPING )

  00054	3c 1e		 cmp	 al, 30			; 0000001eH

; 645  : 		return false;

  00056	74 51		 je	 SHORT $LN35@CheckEnabl@2

; 646  : 	if( eState == CS_DROP_ZONE_DOWN )

  00058	3c 10		 cmp	 al, 16			; 00000010H

; 647  : 		return false;

  0005a	74 4d		 je	 SHORT $LN35@CheckEnabl@2

; 648  : 	if( eState == CS_EXCAVATING )

  0005c	3c 2f		 cmp	 al, 47			; 0000002fH

; 649  : 		return false;

  0005e	74 49		 je	 SHORT $LN35@CheckEnabl@2

; 650  : 	if( eState == CS_ROULETTE )

  00060	3c 5d		 cmp	 al, 93			; 0000005dH

; 651  : 		return false;

  00062	74 45		 je	 SHORT $LN35@CheckEnabl@2

; 652  : 	if ( eState == CS_STARTMOTION )

  00064	3c 22		 cmp	 al, 34			; 00000022H

; 653  : 		return false;

  00066	74 41		 je	 SHORT $LN35@CheckEnabl@2

; 654  : 	if ( eState == CS_ENDMOTION )

  00068	3c 13		 cmp	 al, 19			; 00000013H

; 655  : 		return false;

  0006a	74 3d		 je	 SHORT $LN35@CheckEnabl@2

; 656  : 	if ( eState == CS_WARP_STATE )

  0006c	3c 20		 cmp	 al, 32			; 00000020H

; 657  : 		return false;

  0006e	74 39		 je	 SHORT $LN35@CheckEnabl@2

; 658  : 	if ( eState == CS_LOCKUP_BUFF )

  00070	3c 60		 cmp	 al, 96			; 00000060H

; 659  : 		return false;

  00072	74 35		 je	 SHORT $LN35@CheckEnabl@2

; 660  : 	if ( pTarget->IsSkipState() )

  00074	8b ce		 mov	 ecx, esi
  00076	e8 00 00 00 00	 call	 ?IsSkipState@ioBaseChar@@QBE?B_NXZ ; ioBaseChar::IsSkipState
  0007b	84 c0		 test	 al, al

; 661  : 		return false;

  0007d	75 2a		 jne	 SHORT $LN35@CheckEnabl@2

; 662  : 	if( pTarget->IsExcavating() )

  0007f	8d 45 0b	 lea	 eax, DWORD PTR _value$540318[ebp]
  00082	50		 push	 eax
  00083	8d 8e 20 30 00
	00		 lea	 ecx, DWORD PTR [esi+12320]
  00089	e8 00 00 00 00	 call	 ?DecryptValueToPool@?$CEncrypt@_N@@QAEXPA_N@Z ; CEncrypt<bool>::DecryptValueToPool
  0008e	80 7d 0b 00	 cmp	 BYTE PTR _value$540318[ebp], 0

; 663  : 		return false;

  00092	75 15		 jne	 SHORT $LN35@CheckEnabl@2

; 664  : 	if( pTarget->GetExperienceMode() == EMS_EXPERIENCE )

  00094	8d 45 08	 lea	 eax, DWORD PTR _value$540330[ebp]
  00097	50		 push	 eax
  00098	8d 8e 94 1d 00
	00		 lea	 ecx, DWORD PTR [esi+7572]
  0009e	e8 00 00 00 00	 call	 ?DecryptValueToPool@?$CEncrypt@K@@QAEXPAK@Z ; CEncrypt<unsigned long>::DecryptValueToPool
  000a3	83 7d 08 02	 cmp	 DWORD PTR _value$540330[ebp], 2
  000a7	75 04		 jne	 SHORT $LN2@CheckEnabl@2
$LN35@CheckEnabl@2:

; 665  : 		return false;

  000a9	32 c0		 xor	 al, al
  000ab	eb 0f		 jmp	 SHORT $LN34@CheckEnabl@2
$LN2@CheckEnabl@2:

; 666  : 	if( pTarget->IsChatModeState( false ) )

  000ad	6a 00		 push	 0
  000af	8b ce		 mov	 ecx, esi
  000b1	e8 00 00 00 00	 call	 ?IsChatModeState@ioBaseChar@@QBE_N_N@Z ; ioBaseChar::IsChatModeState
  000b6	f6 d8		 neg	 al
  000b8	1a c0		 sbb	 al, al
  000ba	fe c0		 inc	 al
$LN34@CheckEnabl@2:
  000bc	5e		 pop	 esi
$LN1@CheckEnabl@2:

; 667  : 		return false;
; 668  : 
; 669  : 	return true;
; 670  : }

  000bd	5d		 pop	 ebp
  000be	c2 04 00	 ret	 4
?CheckEnableTargetState@ioKeyMarkAttackBuff@@IAE_NPAVioPlayStage@@@Z ENDP ; ioKeyMarkAttackBuff::CheckEnableTargetState
_TEXT	ENDS
PUBLIC	_pStage$GSCopy$
PUBLIC	_pChar$GSCopy$
PUBLIC	__$ArrayPad$
PUBLIC	?SetTeleport@ioKeyMarkAttackBuff@@IAEXPAVioBaseChar@@PAVioPlayStage@@@Z ; ioKeyMarkAttackBuff::SetTeleport
EXTRN	?GetMapHeightOnlyTerrain@ioPlayStage@@QAEMMMM@Z:PROC ; ioPlayStage::GetMapHeightOnlyTerrain
; Function compile flags: /Ogsp
;	COMDAT ?SetTeleport@ioKeyMarkAttackBuff@@IAEXPAVioBaseChar@@PAVioPlayStage@@@Z
_TEXT	SEGMENT
_pChar$GSCopy$ = -36					; size = 4
_pStage$GSCopy$ = -32					; size = 4
_fMapHeight$ = -32					; size = 4
$T531610 = -28						; size = 12
_vNewPos$ = -16						; size = 12
__$ArrayPad$ = -4					; size = 4
_pChar$ = 8						; size = 4
_pStage$ = 12						; size = 4
?SetTeleport@ioKeyMarkAttackBuff@@IAEXPAVioBaseChar@@PAVioPlayStage@@@Z PROC ; ioKeyMarkAttackBuff::SetTeleport, COMDAT
; _this$ = ecx

; 708  : {

  00000	55		 push	 ebp
  00001	8b ec		 mov	 ebp, esp
  00003	83 ec 24	 sub	 esp, 36			; 00000024H
  00006	a1 00 00 00 00	 mov	 eax, DWORD PTR ___security_cookie
  0000b	33 c5		 xor	 eax, ebp
  0000d	89 45 fc	 mov	 DWORD PTR __$ArrayPad$[ebp], eax
  00010	8b 45 0c	 mov	 eax, DWORD PTR _pStage$[ebp]
  00013	53		 push	 ebx
  00014	8b d9		 mov	 ebx, ecx
  00016	8b 4d 08	 mov	 ecx, DWORD PTR _pChar$[ebp]

; 720  : 
; 721  : 	pChar->SetWorldPosition( vNewPos );

  00019	89 4d dc	 mov	 DWORD PTR _pChar$GSCopy$[ebp], ecx
  0001c	89 45 e0	 mov	 DWORD PTR _pStage$GSCopy$[ebp], eax
  0001f	85 c9		 test	 ecx, ecx
  00021	0f 84 ef 00 00
	00		 je	 $LN3@SetTelepor

; 709  : 	if ( !pChar || !pStage )

  00027	85 c0		 test	 eax, eax
  00029	0f 84 e7 00 00
	00		 je	 $LN3@SetTelepor

; 710  : 		return;
; 711  : 
; 712  : 	ioBaseChar *pTarget = pChar->GetBaseChar( m_szAttackTarget );

  0002f	57		 push	 edi
  00030	8d 83 b4 0a 00
	00		 lea	 eax, DWORD PTR [ebx+2740]
  00036	50		 push	 eax
  00037	e8 00 00 00 00	 call	 ?GetBaseChar@ioBaseChar@@QAEPAV1@ABVioHashString@@@Z ; ioBaseChar::GetBaseChar
  0003c	8b f8		 mov	 edi, eax

; 713  : 	if( !pTarget )

  0003e	85 ff		 test	 edi, edi
  00040	0f 84 cf 00 00
	00		 je	 $LN11@SetTelepor

; 714  : 		return;
; 715  : 	D3DXVECTOR3	vNewPos = pTarget->GetWorldPosition() + pTarget->GetWorldOrientation() * m_vTargetTeleportOffset;

  00046	56		 push	 esi
  00047	8d 83 d0 0a 00
	00		 lea	 eax, DWORD PTR [ebx+2768]
  0004d	50		 push	 eax
  0004e	8b 07		 mov	 eax, DWORD PTR [edi]
  00050	8b cf		 mov	 ecx, edi
  00052	ff 50 74	 call	 DWORD PTR [eax+116]
  00055	50		 push	 eax
  00056	8d 45 e4	 lea	 eax, DWORD PTR $T531610[ebp]
  00059	50		 push	 eax
  0005a	ff 15 00 00 00
	00		 call	 DWORD PTR __imp_??D@YA?AUD3DXVECTOR3@@ABUD3DXQUATERNION@@ABU0@@Z
  00060	8b f0		 mov	 esi, eax
  00062	8b 07		 mov	 eax, DWORD PTR [edi]
  00064	83 c4 0c	 add	 esp, 12			; 0000000cH
  00067	8b cf		 mov	 ecx, edi
  00069	ff 50 70	 call	 DWORD PTR [eax+112]
  0006c	f3 0f 10 48 04	 movss	 xmm1, DWORD PTR [eax+4]
  00071	f3 0f 10 46 04	 movss	 xmm0, DWORD PTR [esi+4]
  00076	f3 0f 10 50 08	 movss	 xmm2, DWORD PTR [eax+8]
  0007b	f3 0f 10 18	 movss	 xmm3, DWORD PTR [eax]

; 716  : 
; 717  : 	float fMapHeight = pStage->GetMapHeightOnlyTerrain( vNewPos.x, vNewPos.z );

  0007f	8b 4d e0	 mov	 ecx, DWORD PTR _pStage$GSCopy$[ebp]
  00082	0f 5a c9	 cvtps2pd xmm1, xmm1
  00085	0f 5a c0	 cvtps2pd xmm0, xmm0
  00088	f2 0f 58 c1	 addsd	 xmm0, xmm1
  0008c	0f 5a d2	 cvtps2pd xmm2, xmm2
  0008f	83 ec 0c	 sub	 esp, 12			; 0000000cH
  00092	0f 5a db	 cvtps2pd xmm3, xmm3
  00095	66 0f 5a c8	 cvtpd2ps xmm1, xmm0
  00099	f3 0f 10 46 08	 movss	 xmm0, DWORD PTR [esi+8]
  0009e	0f 5a c0	 cvtps2pd xmm0, xmm0
  000a1	f2 0f 58 c2	 addsd	 xmm0, xmm2
  000a5	f3 0f 10 16	 movss	 xmm2, DWORD PTR [esi]
  000a9	0f 5a d2	 cvtps2pd xmm2, xmm2
  000ac	f3 0f 11 4d f4	 movss	 DWORD PTR _vNewPos$[ebp+4], xmm1
  000b1	0f 57 c9	 xorps	 xmm1, xmm1
  000b4	66 0f 5a c0	 cvtpd2ps xmm0, xmm0
  000b8	f3 0f 11 4c 24
	08		 movss	 DWORD PTR [esp+8], xmm1
  000be	f2 0f 58 d3	 addsd	 xmm2, xmm3
  000c2	66 0f 5a d2	 cvtpd2ps xmm2, xmm2
  000c6	f3 0f 11 44 24
	04		 movss	 DWORD PTR [esp+4], xmm0
  000cc	f3 0f 11 55 f0	 movss	 DWORD PTR _vNewPos$[ebp], xmm2
  000d1	f3 0f 11 45 f8	 movss	 DWORD PTR _vNewPos$[ebp+8], xmm0
  000d6	f3 0f 11 14 24	 movss	 DWORD PTR [esp], xmm2
  000db	e8 00 00 00 00	 call	 ?GetMapHeightOnlyTerrain@ioPlayStage@@QAEMMMM@Z ; ioPlayStage::GetMapHeightOnlyTerrain
  000e0	d9 5d e0	 fstp	 DWORD PTR _fMapHeight$[ebp]

; 718  : 	if ( vNewPos.y <= fMapHeight )

  000e3	f3 0f 10 45 f4	 movss	 xmm0, DWORD PTR _vNewPos$[ebp+4]
  000e8	0f 5a c8	 cvtps2pd xmm1, xmm0
  000eb	f3 0f 10 45 e0	 movss	 xmm0, DWORD PTR _fMapHeight$[ebp]
  000f0	0f 5a d0	 cvtps2pd xmm2, xmm0
  000f3	66 0f 2f d1	 comisd	 xmm2, xmm1
  000f7	72 05		 jb	 SHORT $LN1@SetTelepor

; 719  : 		vNewPos.y = fMapHeight;

  000f9	f3 0f 11 45 f4	 movss	 DWORD PTR _vNewPos$[ebp+4], xmm0
$LN1@SetTelepor:

; 720  : 
; 721  : 	pChar->SetWorldPosition( vNewPos );

  000fe	8b 75 dc	 mov	 esi, DWORD PTR _pChar$GSCopy$[ebp]
  00101	8b 06		 mov	 eax, DWORD PTR [esi]
  00103	8d 4d f0	 lea	 ecx, DWORD PTR _vNewPos$[ebp]
  00106	51		 push	 ecx
  00107	8b ce		 mov	 ecx, esi
  00109	ff 50 44	 call	 DWORD PTR [eax+68]

; 722  : 
; 723  : 	SetTargetRotation( pChar );

  0010c	56		 push	 esi
  0010d	8b cb		 mov	 ecx, ebx
  0010f	e8 00 00 00 00	 call	 ?SetTargetRotation@ioKeyMarkAttackBuff@@IAEXPAVioBaseChar@@@Z ; ioKeyMarkAttackBuff::SetTargetRotation
  00114	5e		 pop	 esi
$LN11@SetTelepor:
  00115	5f		 pop	 edi
$LN3@SetTelepor:

; 724  : }

  00116	8b 4d fc	 mov	 ecx, DWORD PTR __$ArrayPad$[ebp]
  00119	33 cd		 xor	 ecx, ebp
  0011b	5b		 pop	 ebx
  0011c	e8 00 00 00 00	 call	 @__security_check_cookie@4
  00121	c9		 leave
  00122	c2 08 00	 ret	 8
?SetTeleport@ioKeyMarkAttackBuff@@IAEXPAVioBaseChar@@PAVioPlayStage@@@Z ENDP ; ioKeyMarkAttackBuff::SetTeleport
_TEXT	ENDS
PUBLIC	__real@3ff0000000000000
PUBLIC	__real@42c80000
PUBLIC	__real@00000000
PUBLIC	_pChar$GSCopy$
PUBLIC	?SetActionAni@ioKeyMarkAttackBuff@@IAEXPAVioBaseChar@@ABUAttackAttribute@@@Z ; ioKeyMarkAttackBuff::SetActionAni
EXTRN	?SetReservedSliding@ioBaseChar@@QAEXABV?$vector@UForceInfo@@V?$allocator@UForceInfo@@@std@@@std@@HMKM_N@Z:PROC ; ioBaseChar::SetReservedSliding
EXTRN	?CheckCharColSkipSkillTime@ioBaseChar@@QAEXHMK@Z:PROC ; ioBaseChar::CheckCharColSkipSkillTime
EXTRN	__imp_?GetAnimationFullTime@ioEntityGroup@@QAEMH@Z:PROC
EXTRN	__imp_?SetActionAni@ioEntityGroup@@QAE_NHMMMMMM_N0@Z:PROC
EXTRN	__imp_?ClearAllActionAni@ioEntityGroup@@QAEXM_N@Z:PROC
EXTRN	__imp_?ClearAllLoopAni@ioEntityGroup@@QAEXM_N@Z:PROC
EXTRN	?RefreshFireTimeListWithBase@ioBaseChar@@QAEXKHABV?$vector@UWeaponInfo@@V?$allocator@UWeaponInfo@@@std@@@std@@W4FireTimeType@@MK_N@Z:PROC ; ioBaseChar::RefreshFireTimeListWithBase
EXTRN	?IncreaseWeaponIndexBase@ioBaseChar@@QAEKXZ:PROC ; ioBaseChar::IncreaseWeaponIndexBase
EXTRN	__imp_?GetAnimationIdx@ioEntityGroup@@QAEHABVioHashString@@@Z:PROC
EXTRN	__ftol2:PROC
;	COMDAT __real@3ff0000000000000
; File d:\lost saga for developer\youtube\tutorial\source\src\lsclient\stringprotect.h
CONST	SEGMENT
__real@3ff0000000000000 DQ 03ff0000000000000r	; 1
CONST	ENDS
;	COMDAT __real@42c80000
CONST	SEGMENT
__real@42c80000 DD 042c80000r			; 100
CONST	ENDS
;	COMDAT __real@00000000
CONST	SEGMENT
__real@00000000 DD 000000000r			; 0
CONST	ENDS
;	COMDAT xdata$x
xdata$x	SEGMENT
__unwindtable$?SetActionAni@ioKeyMarkAttackBuff@@IAEXPAVioBaseChar@@ABUAttackAttribute@@@Z DD 0ffffffffH
	DD	FLAT:__unwindfunclet$?SetActionAni@ioKeyMarkAttackBuff@@IAEXPAVioBaseChar@@ABUAttackAttribute@@@Z$0
__ehfuncinfo$?SetActionAni@ioKeyMarkAttackBuff@@IAEXPAVioBaseChar@@ABUAttackAttribute@@@Z DD 019930522H
	DD	01H
	DD	FLAT:__unwindtable$?SetActionAni@ioKeyMarkAttackBuff@@IAEXPAVioBaseChar@@ABUAttackAttribute@@@Z
	DD	2 DUP(00H)
	DD	2 DUP(00H)
	DD	00H
	DD	01H
; Function compile flags: /Ogsp
; File d:\lost saga for developer\youtube\tutorial\source\src\lsclient\iokeymarkattackbuff.cpp
xdata$x	ENDS
;	COMDAT ?SetActionAni@ioKeyMarkAttackBuff@@IAEXPAVioBaseChar@@ABUAttackAttribute@@@Z
_TEXT	SEGMENT
$T540477 = -80						; size = 16
tv1105 = -64						; size = 4
tv1094 = -64						; size = 4
tv1128 = -60						; size = 4
tv941 = -60						; size = 4
_dwPreDelay$ = -56					; size = 4
_pChar$GSCopy$ = -52					; size = 4
_iAniID$ = -48						; size = 4
_fTimeRate$ = -44					; size = 4
$T540476 = -40						; size = 4
_pGrp$ = -40						; size = 4
_szEncEventType$540377 = -36				; size = 13
__$EHRec$ = -12						; size = 12
_pChar$ = 8						; size = 4
_Attri$ = 12						; size = 4
?SetActionAni@ioKeyMarkAttackBuff@@IAEXPAVioBaseChar@@ABUAttackAttribute@@@Z PROC ; ioKeyMarkAttackBuff::SetActionAni, COMDAT
; _this$ = ecx

; 745  : {

  00000	6a 44		 push	 68			; 00000044H
  00002	b8 00 00 00 00	 mov	 eax, __ehhandler$?SetActionAni@ioKeyMarkAttackBuff@@IAEXPAVioBaseChar@@ABUAttackAttribute@@@Z
  00007	e8 00 00 00 00	 call	 __EH_prolog3_GS
  0000c	8b 45 08	 mov	 eax, DWORD PTR _pChar$[ebp]
  0000f	8b 7d 0c	 mov	 edi, DWORD PTR _Attri$[ebp]
  00012	8b f1		 mov	 esi, ecx

; 777  : 
; 778  : 	m_dwFireMotionEndTime += dwPreDelay + pGrp->GetAnimationEventTime_e( iAniID, "firemotion_e" ) * fTimeRate;

  00014	89 45 cc	 mov	 DWORD PTR _pChar$GSCopy$[ebp], eax
  00017	85 c0		 test	 eax, eax
  00019	0f 84 3b 02 00
	00		 je	 $LN4@SetActionA

; 746  : 	if ( !pChar )
; 747  : 		return;
; 748  : 
; 749  : 	ioEntityGroup *pGrp = pChar->GetGroup();
; 750  : 	int iAniID = pGrp->GetAnimationIdx( Attri.m_AttackAnimation );

  0001f	8b 40 04	 mov	 eax, DWORD PTR [eax+4]
  00022	57		 push	 edi
  00023	8b c8		 mov	 ecx, eax
  00025	89 45 d8	 mov	 DWORD PTR _pGrp$[ebp], eax
  00028	ff 15 00 00 00
	00		 call	 DWORD PTR __imp_?GetAnimationIdx@ioEntityGroup@@QAEHABVioHashString@@@Z
  0002e	89 45 d0	 mov	 DWORD PTR _iAniID$[ebp], eax

; 751  : 	if( iAniID == -1 )	

  00031	83 f8 ff	 cmp	 eax, -1
  00034	0f 84 20 02 00
	00		 je	 $LN4@SetActionA

; 752  : 		return;
; 753  : 
; 754  : 	float fTimeRate  = 1.0f;

  0003a	f3 0f 10 05 00
	00 00 00	 movss	 xmm0, DWORD PTR __real@3f800000
  00042	f3 0f 11 45 d4	 movss	 DWORD PTR _fTimeRate$[ebp], xmm0

; 755  : 	if ( Attri.m_fAttackAniRate > 0.0f )

  00047	f3 0f 10 47 10	 movss	 xmm0, DWORD PTR [edi+16]
  0004c	0f 2f 05 00 00
	00 00		 comiss	 xmm0, DWORD PTR __real@00000000
  00053	76 05		 jbe	 SHORT $LN1@SetActionA

; 756  : 		fTimeRate = Attri.m_fAttackAniRate;

  00055	f3 0f 11 45 d4	 movss	 DWORD PTR _fTimeRate$[ebp], xmm0
$LN1@SetActionA:

; 757  : 	DWORD dwPreDelay = Attri.m_dwPreDelay;

  0005a	8b 5f 48	 mov	 ebx, DWORD PTR [edi+72]

; 758  : 
; 759  : 	DWORD dwWeaponBaseIndex = pChar->IncreaseWeaponIndexBase();

  0005d	8b 4d cc	 mov	 ecx, DWORD PTR _pChar$GSCopy$[ebp]
  00060	89 5d c8	 mov	 DWORD PTR _dwPreDelay$[ebp], ebx
  00063	e8 00 00 00 00	 call	 ?IncreaseWeaponIndexBase@ioBaseChar@@QAEKXZ ; ioBaseChar::IncreaseWeaponIndexBase

; 760  : 	pChar->RefreshFireTimeListWithBase( dwWeaponBaseIndex,
; 761  : 		iAniID,
; 762  : 		Attri.m_vWeaponInfoList,
; 763  : 		FTT_NORMAL_ATTACK,
; 764  : 		fTimeRate,
; 765  : 		dwPreDelay );

  00068	f3 0f 10 45 d4	 movss	 xmm0, DWORD PTR _fTimeRate$[ebp]
  0006d	6a 00		 push	 0
  0006f	53		 push	 ebx
  00070	51		 push	 ecx
  00071	f3 0f 11 04 24	 movss	 DWORD PTR [esp], xmm0
  00076	6a 00		 push	 0
  00078	8d 4f 28	 lea	 ecx, DWORD PTR [edi+40]
  0007b	51		 push	 ecx
  0007c	ff 75 d0	 push	 DWORD PTR _iAniID$[ebp]
  0007f	8b 4d cc	 mov	 ecx, DWORD PTR _pChar$GSCopy$[ebp]
  00082	50		 push	 eax
  00083	e8 00 00 00 00	 call	 ?RefreshFireTimeListWithBase@ioBaseChar@@QAEXKHABV?$vector@UWeaponInfo@@V?$allocator@UWeaponInfo@@@std@@@std@@W4FireTimeType@@MK_N@Z ; ioBaseChar::RefreshFireTimeListWithBase

; 766  : 
; 767  : 	pGrp->ClearAllLoopAni( 100.0f, true );

  00088	f3 0f 10 05 00
	00 00 00	 movss	 xmm0, DWORD PTR __real@42c80000
  00090	6a 01		 push	 1
  00092	51		 push	 ecx
  00093	8b 4d d8	 mov	 ecx, DWORD PTR _pGrp$[ebp]
  00096	f3 0f 11 04 24	 movss	 DWORD PTR [esp], xmm0
  0009b	ff 15 00 00 00
	00		 call	 DWORD PTR __imp_?ClearAllLoopAni@ioEntityGroup@@QAEXM_N@Z

; 768  : 	pGrp->ClearAllActionAni( 100.0f, true );

  000a1	f3 0f 10 05 00
	00 00 00	 movss	 xmm0, DWORD PTR __real@42c80000
  000a9	6a 01		 push	 1
  000ab	51		 push	 ecx
  000ac	8b 4d d8	 mov	 ecx, DWORD PTR _pGrp$[ebp]
  000af	f3 0f 11 04 24	 movss	 DWORD PTR [esp], xmm0
  000b4	ff 15 00 00 00
	00		 call	 DWORD PTR __imp_?ClearAllActionAni@ioEntityGroup@@QAEXM_N@Z

; 769  : 
; 770  : 	pGrp->SetActionAni( iAniID, 100.0f, 100.0f, 1.0f, 1.0f/fTimeRate, 0.0f, dwPreDelay );

  000ba	89 5d c4	 mov	 DWORD PTR tv1128[ebp], ebx
  000bd	db 45 c4	 fild	 DWORD PTR tv1128[ebp]
  000c0	85 db		 test	 ebx, ebx
  000c2	79 06		 jns	 SHORT $LN120@SetActionA
  000c4	d8 05 00 00 00
	00		 fadd	 DWORD PTR __real@4f800000
$LN120@SetActionA:
  000ca	f2 0f 10 0d 00
	00 00 00	 movsd	 xmm1, QWORD PTR __real@3ff0000000000000
  000d2	d9 5d c4	 fstp	 DWORD PTR tv941[ebp]
  000d5	f3 0f 10 45 c4	 movss	 xmm0, DWORD PTR tv941[ebp]
  000da	8b 4d d8	 mov	 ecx, DWORD PTR _pGrp$[ebp]
  000dd	6a 01		 push	 1
  000df	6a 00		 push	 0
  000e1	83 ec 18	 sub	 esp, 24			; 00000018H
  000e4	f3 0f 11 44 24
	14		 movss	 DWORD PTR [esp+20], xmm0
  000ea	0f 57 c0	 xorps	 xmm0, xmm0
  000ed	f3 0f 11 44 24
	10		 movss	 DWORD PTR [esp+16], xmm0
  000f3	f3 0f 10 45 d4	 movss	 xmm0, DWORD PTR _fTimeRate$[ebp]
  000f8	0f 5a c0	 cvtps2pd xmm0, xmm0
  000fb	f2 0f 5e c8	 divsd	 xmm1, xmm0
  000ff	66 0f 5a c1	 cvtpd2ps xmm0, xmm1
  00103	f3 0f 11 44 24
	0c		 movss	 DWORD PTR [esp+12], xmm0
  00109	f3 0f 10 05 00
	00 00 00	 movss	 xmm0, DWORD PTR __real@3f800000
  00111	f3 0f 11 44 24
	08		 movss	 DWORD PTR [esp+8], xmm0
  00117	f3 0f 10 05 00
	00 00 00	 movss	 xmm0, DWORD PTR __real@42c80000
  0011f	f3 0f 11 44 24
	04		 movss	 DWORD PTR [esp+4], xmm0
  00125	f3 0f 11 04 24	 movss	 DWORD PTR [esp], xmm0
  0012a	ff 75 d0	 push	 DWORD PTR _iAniID$[ebp]
  0012d	ff 15 00 00 00
	00		 call	 DWORD PTR __imp_?SetActionAni@ioEntityGroup@@QAE_NHMMMMMM_N0@Z

; 771  : 
; 772  : 	DWORD dwCurTime = FRAMEGETTIME();

  00133	ff 15 00 00 00
	00		 call	 DWORD PTR __imp_?GetSingleton@ioFrameTimer@@SAAAV1@XZ
  00139	8b c8		 mov	 ecx, eax
  0013b	ff 15 00 00 00
	00		 call	 DWORD PTR __imp_?GetLoopSec@ioFrameTimer@@QBEKXZ

; 773  : 	m_dwMotionEndTime = m_dwFireMotionEndTime = dwCurTime;
; 774  : 
; 775  : 	m_dwMotionEndTime += pGrp->GetAnimationFullTime( iAniID ) * fTimeRate;

  00141	ff 75 d0	 push	 DWORD PTR _iAniID$[ebp]
  00144	8b 4d d8	 mov	 ecx, DWORD PTR _pGrp$[ebp]
  00147	89 86 dc 0b 00
	00		 mov	 DWORD PTR [esi+3036], eax
  0014d	89 86 e4 0a 00
	00		 mov	 DWORD PTR [esi+2788], eax
  00153	ff 15 00 00 00
	00		 call	 DWORD PTR __imp_?GetAnimationFullTime@ioEntityGroup@@QAEMH@Z
  00159	d8 4d d4	 fmul	 DWORD PTR _fTimeRate$[ebp]
  0015c	8b 86 e4 0a 00
	00		 mov	 eax, DWORD PTR [esi+2788]
  00162	db 86 e4 0a 00
	00		 fild	 DWORD PTR [esi+2788]
  00168	85 c0		 test	 eax, eax
  0016a	79 06		 jns	 SHORT $LN121@SetActionA
  0016c	dc 05 00 00 00
	00		 fadd	 QWORD PTR __real@41f0000000000000
$LN121@SetActionA:
  00172	de c1		 faddp	 ST(1), ST(0)
  00174	e8 00 00 00 00	 call	 __ftol2
  00179	89 86 e4 0a 00
	00		 mov	 DWORD PTR [esi+2788], eax

; 776  : 	m_dwMotionEndTime += dwPreDelay + Attri.m_dwEndDelay;

  0017f	8b 4f 4c	 mov	 ecx, DWORD PTR [edi+76]
  00182	03 c8		 add	 ecx, eax
  00184	03 cb		 add	 ecx, ebx
  00186	6a 03		 push	 3
  00188	89 8e e4 0a 00
	00		 mov	 DWORD PTR [esi+2788], ecx

; 777  : 
; 778  : 	m_dwFireMotionEndTime += dwPreDelay + pGrp->GetAnimationEventTime_e( iAniID, "firemotion_e" ) * fTimeRate;

  0018e	c7 45 dc 8b 85
	99 8f		 mov	 DWORD PTR _szEncEventType$540377[ebp], -1885764213 ; 8f99858bH
  00195	c7 45 e0 80 83
	9f 83		 mov	 DWORD PTR _szEncEventType$540377[ebp+4], -2086698112 ; 839f8380H
  0019c	c7 45 e4 82 82
	b4 8f		 mov	 DWORD PTR _szEncEventType$540377[ebp+8], -1883995518 ; 8fb48282H
  001a3	8d 45 dc	 lea	 eax, DWORD PTR _szEncEventType$540377[ebp]
  001a6	c6 45 e8 00	 mov	 BYTE PTR _szEncEventType$540377[ebp+12], 0
  001aa	59		 pop	 ecx
$LL112@SetActionA:
  001ab	81 30 ed ec eb
	ea		 xor	 DWORD PTR [eax], -353637139 ; eaebecedH
  001b1	83 c0 04	 add	 eax, 4
  001b4	49		 dec	 ecx
  001b5	75 f4		 jne	 SHORT $LL112@SetActionA
  001b7	8d 45 dc	 lea	 eax, DWORD PTR _szEncEventType$540377[ebp]
  001ba	50		 push	 eax
  001bb	8d 4d b0	 lea	 ecx, DWORD PTR $T540477[ebp]
  001be	ff 15 00 00 00
	00		 call	 DWORD PTR __imp_??0ioHashString@@QAE@PBD@Z
  001c4	8b 4d d8	 mov	 ecx, DWORD PTR _pGrp$[ebp]
  001c7	83 65 fc 00	 and	 DWORD PTR __$EHRec$[ebp+8], 0
  001cb	8d 45 b0	 lea	 eax, DWORD PTR $T540477[ebp]
  001ce	50		 push	 eax
  001cf	ff 75 d0	 push	 DWORD PTR _iAniID$[ebp]
  001d2	ff 15 00 00 00
	00		 call	 DWORD PTR __imp_?GetAnimationEventTime@ioEntityGroup@@QAEMHABVioHashString@@@Z
  001d8	d9 5d d8	 fstp	 DWORD PTR $T540476[ebp]
  001db	83 4d fc ff	 or	 DWORD PTR __$EHRec$[ebp+8], -1
  001df	8d 4d b0	 lea	 ecx, DWORD PTR $T540477[ebp]
  001e2	ff 15 00 00 00
	00		 call	 DWORD PTR __imp_??1ioHashString@@QAE@XZ
  001e8	d9 45 d8	 fld	 DWORD PTR $T540476[ebp]
  001eb	d8 4d d4	 fmul	 DWORD PTR _fTimeRate$[ebp]
  001ee	8b 86 dc 0b 00
	00		 mov	 eax, DWORD PTR [esi+3036]
  001f4	d8 45 c4	 fadd	 DWORD PTR tv941[ebp]
  001f7	db 86 dc 0b 00
	00		 fild	 DWORD PTR [esi+3036]
  001fd	85 c0		 test	 eax, eax
  001ff	79 06		 jns	 SHORT $LN122@SetActionA
  00201	dc 05 00 00 00
	00		 fadd	 QWORD PTR __real@41f0000000000000
$LN122@SetActionA:
  00207	de c1		 faddp	 ST(1), ST(0)
  00209	e8 00 00 00 00	 call	 __ftol2

; 779  : 
; 780  : 	// Col Skip
; 781  : 	pChar->CheckCharColSkipSkillTime( iAniID, fTimeRate, dwPreDelay );

  0020e	ff 75 c8	 push	 DWORD PTR _dwPreDelay$[ebp]
  00211	f3 0f 10 45 d4	 movss	 xmm0, DWORD PTR _fTimeRate$[ebp]
  00216	51		 push	 ecx
  00217	8b 4d cc	 mov	 ecx, DWORD PTR _pChar$GSCopy$[ebp]
  0021a	f3 0f 11 04 24	 movss	 DWORD PTR [esp], xmm0
  0021f	ff 75 d0	 push	 DWORD PTR _iAniID$[ebp]
  00222	89 86 dc 0b 00
	00		 mov	 DWORD PTR [esi+3036], eax
  00228	e8 00 00 00 00	 call	 ?CheckCharColSkipSkillTime@ioBaseChar@@QAEXHMK@Z ; ioBaseChar::CheckCharColSkipSkillTime

; 782  : 
; 783  : 	pChar->SetReservedSliding( Attri.m_vForceInfoList, iAniID, fTimeRate, dwPreDelay );

  0022d	f3 0f 10 05 00
	00 00 00	 movss	 xmm0, DWORD PTR __real@3f800000
  00235	6a 01		 push	 1
  00237	51		 push	 ecx
  00238	f3 0f 11 04 24	 movss	 DWORD PTR [esp], xmm0
  0023d	ff 75 c8	 push	 DWORD PTR _dwPreDelay$[ebp]
  00240	f3 0f 10 45 d4	 movss	 xmm0, DWORD PTR _fTimeRate$[ebp]
  00245	51		 push	 ecx
  00246	8b 4d cc	 mov	 ecx, DWORD PTR _pChar$GSCopy$[ebp]
  00249	f3 0f 11 04 24	 movss	 DWORD PTR [esp], xmm0
  0024e	ff 75 d0	 push	 DWORD PTR _iAniID$[ebp]
  00251	83 c7 38	 add	 edi, 56			; 00000038H
  00254	57		 push	 edi
  00255	e8 00 00 00 00	 call	 ?SetReservedSliding@ioBaseChar@@QAEXABV?$vector@UForceInfo@@V?$allocator@UForceInfo@@@std@@@std@@HMKM_N@Z ; ioBaseChar::SetReservedSliding
$LN4@SetActionA:

; 784  : }

  0025a	e8 00 00 00 00	 call	 __EH_epilog3_GS
  0025f	c2 08 00	 ret	 8
_TEXT	ENDS
;	COMDAT text$x
text$x	SEGMENT
__unwindfunclet$?SetActionAni@ioKeyMarkAttackBuff@@IAEXPAVioBaseChar@@ABUAttackAttribute@@@Z$0:
  00000	8d 4d b0	 lea	 ecx, DWORD PTR $T540477[ebp]
  00003	ff 25 00 00 00
	00		 jmp	 DWORD PTR __imp_??1ioHashString@@QAE@XZ
__ehhandler$?SetActionAni@ioKeyMarkAttackBuff@@IAEXPAVioBaseChar@@ABUAttackAttribute@@@Z:
  00009	8b 54 24 08	 mov	 edx, DWORD PTR [esp+8]
  0000d	8d 42 0c	 lea	 eax, DWORD PTR [edx+12]
  00010	8b 4a ac	 mov	 ecx, DWORD PTR [edx-84]
  00013	33 c8		 xor	 ecx, eax
  00015	e8 00 00 00 00	 call	 @__security_check_cookie@4
  0001a	8b 4a fc	 mov	 ecx, DWORD PTR [edx-4]
  0001d	33 c8		 xor	 ecx, eax
  0001f	e8 00 00 00 00	 call	 @__security_check_cookie@4
  00024	b8 00 00 00 00	 mov	 eax, OFFSET __ehfuncinfo$?SetActionAni@ioKeyMarkAttackBuff@@IAEXPAVioBaseChar@@ABUAttackAttribute@@@Z
  00029	e9 00 00 00 00	 jmp	 ___CxxFrameHandler3
text$x	ENDS
?SetActionAni@ioKeyMarkAttackBuff@@IAEXPAVioBaseChar@@ABUAttackAttribute@@@Z ENDP ; ioKeyMarkAttackBuff::SetActionAni
PUBLIC	?SetActionEndState@ioKeyMarkAttackBuff@@IAEXPAVioBaseChar@@@Z ; ioKeyMarkAttackBuff::SetActionEndState
EXTRN	?SetState@ioBaseChar@@QAEXH_N@Z:PROC		; ioBaseChar::SetState
EXTRN	?SetSKillEndJumpState@ioBaseChar@@QAEXM_N0000@Z:PROC ; ioBaseChar::SetSKillEndJumpState
; Function compile flags: /Ogsp
;	COMDAT ?SetActionEndState@ioKeyMarkAttackBuff@@IAEXPAVioBaseChar@@@Z
_TEXT	SEGMENT
_value$540533 = 8					; size = 4
_value$540523 = 8					; size = 4
_pChar$ = 8						; size = 4
?SetActionEndState@ioKeyMarkAttackBuff@@IAEXPAVioBaseChar@@@Z PROC ; ioKeyMarkAttackBuff::SetActionEndState, COMDAT
; _this$ = ecx

; 846  : {

  00000	55		 push	 ebp
  00001	8b ec		 mov	 ebp, esp
  00003	53		 push	 ebx
  00004	56		 push	 esi
  00005	57		 push	 edi

; 847  : 	if ( !pChar )

  00006	8b 7d 08	 mov	 edi, DWORD PTR _pChar$[ebp]
  00009	33 db		 xor	 ebx, ebx
  0000b	8b f1		 mov	 esi, ecx
  0000d	3b fb		 cmp	 edi, ebx
  0000f	0f 84 94 00 00
	00		 je	 $LN5@SetActionE

; 848  : 		return;
; 849  : 
; 850  : 	pChar->SetCurJumpPowerAmt( 0.0f );

  00015	0f 57 c0	 xorps	 xmm0, xmm0

; 851  : 	pChar->SetForcePowerAmt( 0.0f );

  00018	8d 45 08	 lea	 eax, DWORD PTR _value$540523[ebp]
  0001b	50		 push	 eax
  0001c	8d 8f 88 0b 00
	00		 lea	 ecx, DWORD PTR [edi+2952]
  00022	f3 0f 11 87 90
	0e 00 00	 movss	 DWORD PTR [edi+3728], xmm0
  0002a	f3 0f 11 45 08	 movss	 DWORD PTR _value$540523[ebp], xmm0
  0002f	e8 00 00 00 00	 call	 ?EncryptValueToPool@?$CEncrypt@M@@AAEXPBD@Z ; CEncrypt<float>::EncryptValueToPool

; 852  : 	pChar->SetGravityAmt( 0.0f );

  00034	0f 57 c0	 xorps	 xmm0, xmm0
  00037	8d 45 08	 lea	 eax, DWORD PTR _value$540533[ebp]
  0003a	50		 push	 eax
  0003b	8d 8f e8 0b 00
	00		 lea	 ecx, DWORD PTR [edi+3048]
  00041	f3 0f 11 45 08	 movss	 DWORD PTR _value$540533[ebp], xmm0
  00046	e8 00 00 00 00	 call	 ?EncryptValueToPool@?$CEncrypt@M@@AAEXPBD@Z ; CEncrypt<float>::EncryptValueToPool

; 853  : 
; 854  : 	if ( pChar->IsNeedProcess() )

  0004b	8b 07		 mov	 eax, DWORD PTR [edi]
  0004d	8b cf		 mov	 ecx, edi
  0004f	ff 90 00 01 00
	00		 call	 DWORD PTR [eax+256]
  00055	84 c0		 test	 al, al
  00057	74 32		 je	 SHORT $LN1@SetActionE

; 855  : 	{
; 856  : 		if ( pChar->IsFloating() )

  00059	8b cf		 mov	 ecx, edi
  0005b	e8 00 00 00 00	 call	 ?IsFloating@ioBaseChar@@QAE_NXZ ; ioBaseChar::IsFloating
  00060	84 c0		 test	 al, al
  00062	74 1d		 je	 SHORT $LN2@SetActionE

; 857  : 			pChar->SetSKillEndJumpState( m_fEndJumpPower, false );

  00064	f3 0f 10 86 d8
	0b 00 00	 movss	 xmm0, DWORD PTR [esi+3032]
  0006c	53		 push	 ebx
  0006d	53		 push	 ebx
  0006e	6a 01		 push	 1
  00070	53		 push	 ebx
  00071	53		 push	 ebx
  00072	51		 push	 ecx
  00073	8b cf		 mov	 ecx, edi
  00075	f3 0f 11 04 24	 movss	 DWORD PTR [esp], xmm0
  0007a	e8 00 00 00 00	 call	 ?SetSKillEndJumpState@ioBaseChar@@QAEXM_N0000@Z ; ioBaseChar::SetSKillEndJumpState

; 858  : 		else

  0007f	eb 0a		 jmp	 SHORT $LN1@SetActionE
$LN2@SetActionE:

; 859  : 			pChar->SetState( CS_DELAY, true );

  00081	6a 01		 push	 1
  00083	53		 push	 ebx
  00084	8b cf		 mov	 ecx, edi
  00086	e8 00 00 00 00	 call	 ?SetState@ioBaseChar@@QAEXH_N@Z ; ioBaseChar::SetState
$LN1@SetActionE:

; 860  : 	}
; 861  : 	m_szAttackTarget.Clear();

  0008b	8d 8e b4 0a 00
	00		 lea	 ecx, DWORD PTR [esi+2740]
  00091	ff 15 00 00 00
	00		 call	 DWORD PTR __imp_?Clear@ioHashString@@QAEXXZ

; 862  : 	m_dwKeyInputTime = 0;

  00097	89 9e cc 0a 00
	00		 mov	 DWORD PTR [esi+2764], ebx

; 863  : 	m_bInputKey = false;

  0009d	88 9e c4 0a 00
	00		 mov	 BYTE PTR [esi+2756], bl

; 864  : 
; 865  : 	m_BuffState = BS_LOOP;

  000a3	89 9e 6c 09 00
	00		 mov	 DWORD PTR [esi+2412], ebx
$LN5@SetActionE:
  000a9	5f		 pop	 edi
  000aa	5e		 pop	 esi
  000ab	5b		 pop	 ebx

; 866  : }

  000ac	5d		 pop	 ebp
  000ad	c2 04 00	 ret	 4
?SetActionEndState@ioKeyMarkAttackBuff@@IAEXPAVioBaseChar@@@Z ENDP ; ioKeyMarkAttackBuff::SetActionEndState
_TEXT	ENDS
PUBLIC	??0?$vector@UtagBaseCharDistanceSq@@V?$allocator@UtagBaseCharDistanceSq@@@std@@@std@@QAE@XZ ; std::vector<tagBaseCharDistanceSq,std::allocator<tagBaseCharDistanceSq> >::vector<tagBaseCharDistanceSq,std::allocator<tagBaseCharDistanceSq> >
; Function compile flags: /Ogsp
; File c:\program files (x86)\microsoft visual studio 10.0\vc\include\vector
;	COMDAT ??0?$vector@UtagBaseCharDistanceSq@@V?$allocator@UtagBaseCharDistanceSq@@@std@@@std@@QAE@XZ
_TEXT	SEGMENT
??0?$vector@UtagBaseCharDistanceSq@@V?$allocator@UtagBaseCharDistanceSq@@@std@@@std@@QAE@XZ PROC ; std::vector<tagBaseCharDistanceSq,std::allocator<tagBaseCharDistanceSq> >::vector<tagBaseCharDistanceSq,std::allocator<tagBaseCharDistanceSq> >, COMDAT
; _this$ = ecx

; 507  : 		{	// construct empty vector

  00000	8b c1		 mov	 eax, ecx
  00002	33 c9		 xor	 ecx, ecx
  00004	89 08		 mov	 DWORD PTR [eax], ecx
  00006	89 48 04	 mov	 DWORD PTR [eax+4], ecx
  00009	89 48 08	 mov	 DWORD PTR [eax+8], ecx

; 508  : 		}

  0000c	c3		 ret	 0
??0?$vector@UtagBaseCharDistanceSq@@V?$allocator@UtagBaseCharDistanceSq@@@std@@@std@@QAE@XZ ENDP ; std::vector<tagBaseCharDistanceSq,std::allocator<tagBaseCharDistanceSq> >::vector<tagBaseCharDistanceSq,std::allocator<tagBaseCharDistanceSq> >
_TEXT	ENDS
PUBLIC	?begin@?$vector@UtagBaseCharDistanceSq@@V?$allocator@UtagBaseCharDistanceSq@@@std@@@std@@QAE?AV?$_Vector_iterator@V?$_Vector_val@UtagBaseCharDistanceSq@@V?$allocator@UtagBaseCharDistanceSq@@@std@@@std@@@2@XZ ; std::vector<tagBaseCharDistanceSq,std::allocator<tagBaseCharDistanceSq> >::begin
; Function compile flags: /Ogsp
;	COMDAT ?begin@?$vector@UtagBaseCharDistanceSq@@V?$allocator@UtagBaseCharDistanceSq@@@std@@@std@@QAE?AV?$_Vector_iterator@V?$_Vector_val@UtagBaseCharDistanceSq@@V?$allocator@UtagBaseCharDistanceSq@@@std@@@std@@@2@XZ
_TEXT	SEGMENT
___$ReturnUdt$ = 8					; size = 4
?begin@?$vector@UtagBaseCharDistanceSq@@V?$allocator@UtagBaseCharDistanceSq@@@std@@@std@@QAE?AV?$_Vector_iterator@V?$_Vector_val@UtagBaseCharDistanceSq@@V?$allocator@UtagBaseCharDistanceSq@@@std@@@std@@@2@XZ PROC ; std::vector<tagBaseCharDistanceSq,std::allocator<tagBaseCharDistanceSq> >::begin, COMDAT
; _this$ = ecx

; 781  : 		{	// return iterator for beginning of mutable sequence

  00000	55		 push	 ebp
  00001	8b ec		 mov	 ebp, esp

; 782  : 		return (iterator(this->_Myfirst, this));

  00003	8b 09		 mov	 ecx, DWORD PTR [ecx]
  00005	8b 45 08	 mov	 eax, DWORD PTR ___$ReturnUdt$[ebp]
  00008	89 08		 mov	 DWORD PTR [eax], ecx

; 783  : 		}

  0000a	5d		 pop	 ebp
  0000b	c2 04 00	 ret	 4
?begin@?$vector@UtagBaseCharDistanceSq@@V?$allocator@UtagBaseCharDistanceSq@@@std@@@std@@QAE?AV?$_Vector_iterator@V?$_Vector_val@UtagBaseCharDistanceSq@@V?$allocator@UtagBaseCharDistanceSq@@@std@@@std@@@2@XZ ENDP ; std::vector<tagBaseCharDistanceSq,std::allocator<tagBaseCharDistanceSq> >::begin
_TEXT	ENDS
PUBLIC	?end@?$vector@UtagBaseCharDistanceSq@@V?$allocator@UtagBaseCharDistanceSq@@@std@@@std@@QAE?AV?$_Vector_iterator@V?$_Vector_val@UtagBaseCharDistanceSq@@V?$allocator@UtagBaseCharDistanceSq@@@std@@@std@@@2@XZ ; std::vector<tagBaseCharDistanceSq,std::allocator<tagBaseCharDistanceSq> >::end
; Function compile flags: /Ogsp
;	COMDAT ?end@?$vector@UtagBaseCharDistanceSq@@V?$allocator@UtagBaseCharDistanceSq@@@std@@@std@@QAE?AV?$_Vector_iterator@V?$_Vector_val@UtagBaseCharDistanceSq@@V?$allocator@UtagBaseCharDistanceSq@@@std@@@std@@@2@XZ
_TEXT	SEGMENT
___$ReturnUdt$ = 8					; size = 4
?end@?$vector@UtagBaseCharDistanceSq@@V?$allocator@UtagBaseCharDistanceSq@@@std@@@std@@QAE?AV?$_Vector_iterator@V?$_Vector_val@UtagBaseCharDistanceSq@@V?$allocator@UtagBaseCharDistanceSq@@@std@@@std@@@2@XZ PROC ; std::vector<tagBaseCharDistanceSq,std::allocator<tagBaseCharDistanceSq> >::end, COMDAT
; _this$ = ecx

; 791  : 		{	// return iterator for end of mutable sequence

  00000	55		 push	 ebp
  00001	8b ec		 mov	 ebp, esp

; 792  : 		return (iterator(this->_Mylast, this));

  00003	8b 49 04	 mov	 ecx, DWORD PTR [ecx+4]
  00006	8b 45 08	 mov	 eax, DWORD PTR ___$ReturnUdt$[ebp]
  00009	89 08		 mov	 DWORD PTR [eax], ecx

; 793  : 		}

  0000b	5d		 pop	 ebp
  0000c	c2 04 00	 ret	 4
?end@?$vector@UtagBaseCharDistanceSq@@V?$allocator@UtagBaseCharDistanceSq@@@std@@@std@@QAE?AV?$_Vector_iterator@V?$_Vector_val@UtagBaseCharDistanceSq@@V?$allocator@UtagBaseCharDistanceSq@@@std@@@std@@@2@XZ ENDP ; std::vector<tagBaseCharDistanceSq,std::allocator<tagBaseCharDistanceSq> >::end
_TEXT	ENDS
PUBLIC	??9?$_Vector_const_iterator@V?$_Vector_val@PAVioBaseChar@@V?$allocator@PAVioBaseChar@@@std@@@std@@@std@@QBE_NABV01@@Z ; std::_Vector_const_iterator<std::_Vector_val<ioBaseChar *,std::allocator<ioBaseChar *> > >::operator!=
; Function compile flags: /Ogsp
;	COMDAT ??9?$_Vector_const_iterator@V?$_Vector_val@PAVioBaseChar@@V?$allocator@PAVioBaseChar@@@std@@@std@@@std@@QBE_NABV01@@Z
_TEXT	SEGMENT
__Right$ = 8						; size = 4
??9?$_Vector_const_iterator@V?$_Vector_val@PAVioBaseChar@@V?$allocator@PAVioBaseChar@@@std@@@std@@@std@@QBE_NABV01@@Z PROC ; std::_Vector_const_iterator<std::_Vector_val<ioBaseChar *,std::allocator<ioBaseChar *> > >::operator!=, COMDAT
; _this$ = ecx

; 207  : 		{	// test for iterator inequality

  00000	55		 push	 ebp
  00001	8b ec		 mov	 ebp, esp

; 208  : 		return (!(*this == _Right));

  00003	8b 01		 mov	 eax, DWORD PTR [ecx]
  00005	8b 55 08	 mov	 edx, DWORD PTR __Right$[ebp]
  00008	33 c9		 xor	 ecx, ecx
  0000a	3b 02		 cmp	 eax, DWORD PTR [edx]
  0000c	0f 95 c0	 setne	 al

; 209  : 		}

  0000f	5d		 pop	 ebp
  00010	c2 04 00	 ret	 4
??9?$_Vector_const_iterator@V?$_Vector_val@PAVioBaseChar@@V?$allocator@PAVioBaseChar@@@std@@@std@@@std@@QBE_NABV01@@Z ENDP ; std::_Vector_const_iterator<std::_Vector_val<ioBaseChar *,std::allocator<ioBaseChar *> > >::operator!=
_TEXT	ENDS
PUBLIC	??$_Cons_val@V?$allocator@UtagBaseCharDistanceSq@@@std@@UtagBaseCharDistanceSq@@AAU3@@std@@YAXAAV?$allocator@UtagBaseCharDistanceSq@@@0@PAUtagBaseCharDistanceSq@@AAU2@@Z ; std::_Cons_val<std::allocator<tagBaseCharDistanceSq>,tagBaseCharDistanceSq,tagBaseCharDistanceSq &>
;	COMDAT xdata$x
; File c:\program files (x86)\microsoft visual studio 10.0\vc\include\utility
xdata$x	SEGMENT
__unwindtable$??$_Cons_val@V?$allocator@UtagBaseCharDistanceSq@@@std@@UtagBaseCharDistanceSq@@AAU3@@std@@YAXAAV?$allocator@UtagBaseCharDistanceSq@@@0@PAUtagBaseCharDistanceSq@@AAU2@@Z DD 0ffffffffH
	DD	FLAT:__unwindfunclet$??$_Cons_val@V?$allocator@UtagBaseCharDistanceSq@@@std@@UtagBaseCharDistanceSq@@AAU3@@std@@YAXAAV?$allocator@UtagBaseCharDistanceSq@@@0@PAUtagBaseCharDistanceSq@@AAU2@@Z$0
__ehfuncinfo$??$_Cons_val@V?$allocator@UtagBaseCharDistanceSq@@@std@@UtagBaseCharDistanceSq@@AAU3@@std@@YAXAAV?$allocator@UtagBaseCharDistanceSq@@@0@PAUtagBaseCharDistanceSq@@AAU2@@Z DD 019930522H
	DD	01H
	DD	FLAT:__unwindtable$??$_Cons_val@V?$allocator@UtagBaseCharDistanceSq@@@std@@UtagBaseCharDistanceSq@@AAU3@@std@@YAXAAV?$allocator@UtagBaseCharDistanceSq@@@0@PAUtagBaseCharDistanceSq@@AAU2@@Z
	DD	2 DUP(00H)
	DD	2 DUP(00H)
	DD	00H
	DD	01H
; Function compile flags: /Ogsp
; File c:\program files (x86)\microsoft visual studio 10.0\vc\include\xmemory
xdata$x	ENDS
;	COMDAT ??$_Cons_val@V?$allocator@UtagBaseCharDistanceSq@@@std@@UtagBaseCharDistanceSq@@AAU3@@std@@YAXAAV?$allocator@UtagBaseCharDistanceSq@@@0@PAUtagBaseCharDistanceSq@@AAU2@@Z
_TEXT	SEGMENT
$T540618 = -16						; size = 4
__$EHRec$ = -12						; size = 12
__Alval$ = 8						; size = 4
__Pdest$ = 12						; size = 4
__Src$ = 16						; size = 4
??$_Cons_val@V?$allocator@UtagBaseCharDistanceSq@@@std@@UtagBaseCharDistanceSq@@AAU3@@std@@YAXAAV?$allocator@UtagBaseCharDistanceSq@@@0@PAUtagBaseCharDistanceSq@@AAU2@@Z PROC ; std::_Cons_val<std::allocator<tagBaseCharDistanceSq>,tagBaseCharDistanceSq,tagBaseCharDistanceSq &>, COMDAT

; 279  : 	{	// construct using allocator

  00000	6a 04		 push	 4
  00002	b8 00 00 00 00	 mov	 eax, __ehhandler$??$_Cons_val@V?$allocator@UtagBaseCharDistanceSq@@@std@@UtagBaseCharDistanceSq@@AAU3@@std@@YAXAAV?$allocator@UtagBaseCharDistanceSq@@@0@PAUtagBaseCharDistanceSq@@AAU2@@Z
  00007	e8 00 00 00 00	 call	 __EH_prolog3

; 280  : 	_Alval.construct(_Pdest, _STD forward<_Ty2>(_Src));

  0000c	8b 4d 0c	 mov	 ecx, DWORD PTR __Pdest$[ebp]
  0000f	89 4d f0	 mov	 DWORD PTR $T540618[ebp], ecx
  00012	83 65 fc 00	 and	 DWORD PTR __$EHRec$[ebp+8], 0
  00016	85 c9		 test	 ecx, ecx
  00018	74 08		 je	 SHORT $LN7@Cons_val
  0001a	ff 75 10	 push	 DWORD PTR __Src$[ebp]
  0001d	e8 00 00 00 00	 call	 ??0tagBaseCharDistanceSq@@QAE@ABU0@@Z
$LN7@Cons_val:

; 281  : 	}

  00022	e8 00 00 00 00	 call	 __EH_epilog3
  00027	c3		 ret	 0
_TEXT	ENDS
;	COMDAT text$x
text$x	SEGMENT
__unwindfunclet$??$_Cons_val@V?$allocator@UtagBaseCharDistanceSq@@@std@@UtagBaseCharDistanceSq@@AAU3@@std@@YAXAAV?$allocator@UtagBaseCharDistanceSq@@@0@PAUtagBaseCharDistanceSq@@AAU2@@Z$0:
  00000	ff 75 0c	 push	 DWORD PTR __Pdest$[ebp]
  00003	ff 75 f0	 push	 DWORD PTR $T540618[ebp]
  00006	e8 00 00 00 00	 call	 ??3@YAXPAX0@Z		; operator delete
  0000b	59		 pop	 ecx
  0000c	59		 pop	 ecx
  0000d	c3		 ret	 0
__ehhandler$??$_Cons_val@V?$allocator@UtagBaseCharDistanceSq@@@std@@UtagBaseCharDistanceSq@@AAU3@@std@@YAXAAV?$allocator@UtagBaseCharDistanceSq@@@0@PAUtagBaseCharDistanceSq@@AAU2@@Z:
  0000e	8b 54 24 08	 mov	 edx, DWORD PTR [esp+8]
  00012	8d 42 0c	 lea	 eax, DWORD PTR [edx+12]
  00015	8b 4a ec	 mov	 ecx, DWORD PTR [edx-20]
  00018	33 c8		 xor	 ecx, eax
  0001a	e8 00 00 00 00	 call	 @__security_check_cookie@4
  0001f	b8 00 00 00 00	 mov	 eax, OFFSET __ehfuncinfo$??$_Cons_val@V?$allocator@UtagBaseCharDistanceSq@@@std@@UtagBaseCharDistanceSq@@AAU3@@std@@YAXAAV?$allocator@UtagBaseCharDistanceSq@@@0@PAUtagBaseCharDistanceSq@@AAU2@@Z
  00024	e9 00 00 00 00	 jmp	 ___CxxFrameHandler3
text$x	ENDS
??$_Cons_val@V?$allocator@UtagBaseCharDistanceSq@@@std@@UtagBaseCharDistanceSq@@AAU3@@std@@YAXAAV?$allocator@UtagBaseCharDistanceSq@@@0@PAUtagBaseCharDistanceSq@@AAU2@@Z ENDP ; std::_Cons_val<std::allocator<tagBaseCharDistanceSq>,tagBaseCharDistanceSq,tagBaseCharDistanceSq &>
PUBLIC	?construct@?$allocator@UtagBaseCharDistanceSq@@@std@@QAEXPAUtagBaseCharDistanceSq@@ABU3@@Z ; std::allocator<tagBaseCharDistanceSq>::construct
; Function compile flags: /Ogsp
;	COMDAT ?construct@?$allocator@UtagBaseCharDistanceSq@@@std@@QAEXPAUtagBaseCharDistanceSq@@ABU3@@Z
_TEXT	SEGMENT
__Ptr$ = 8						; size = 4
__Val$ = 12						; size = 4
?construct@?$allocator@UtagBaseCharDistanceSq@@@std@@QAEXPAUtagBaseCharDistanceSq@@ABU3@@Z PROC ; std::allocator<tagBaseCharDistanceSq>::construct, COMDAT
; _this$ = ecx

; 196  : 		{	// construct object at _Ptr with value _Val

  00000	55		 push	 ebp
  00001	8b ec		 mov	 ebp, esp

; 197  : 		_Construct(_Ptr, _Val);

  00003	ff 75 0c	 push	 DWORD PTR __Val$[ebp]
  00006	ff 75 08	 push	 DWORD PTR __Ptr$[ebp]
  00009	e8 00 00 00 00	 call	 ??$_Construct@UtagBaseCharDistanceSq@@ABU1@@std@@YAXPAUtagBaseCharDistanceSq@@ABU1@@Z ; std::_Construct<tagBaseCharDistanceSq,tagBaseCharDistanceSq const &>
  0000e	59		 pop	 ecx
  0000f	59		 pop	 ecx

; 198  : 		}

  00010	5d		 pop	 ebp
  00011	c2 08 00	 ret	 8
?construct@?$allocator@UtagBaseCharDistanceSq@@@std@@QAEXPAUtagBaseCharDistanceSq@@ABU3@@Z ENDP ; std::allocator<tagBaseCharDistanceSq>::construct
_TEXT	ENDS
PUBLIC	??G?$_Vector_iterator@V?$_Vector_val@UtagBaseCharDistanceSq@@V?$allocator@UtagBaseCharDistanceSq@@@std@@@std@@@std@@QBEHABV?$_Vector_const_iterator@V?$_Vector_val@UtagBaseCharDistanceSq@@V?$allocator@UtagBaseCharDistanceSq@@@std@@@std@@@1@@Z ; std::_Vector_iterator<std::_Vector_val<tagBaseCharDistanceSq,std::allocator<tagBaseCharDistanceSq> > >::operator-
; Function compile flags: /Ogsp
; File c:\program files (x86)\microsoft visual studio 10.0\vc\include\vector
;	COMDAT ??G?$_Vector_iterator@V?$_Vector_val@UtagBaseCharDistanceSq@@V?$allocator@UtagBaseCharDistanceSq@@@std@@@std@@@std@@QBEHABV?$_Vector_const_iterator@V?$_Vector_val@UtagBaseCharDistanceSq@@V?$allocator@UtagBaseCharDistanceSq@@@std@@@std@@@1@@Z
_TEXT	SEGMENT
__Right$ = 8						; size = 4
??G?$_Vector_iterator@V?$_Vector_val@UtagBaseCharDistanceSq@@V?$allocator@UtagBaseCharDistanceSq@@@std@@@std@@@std@@QBEHABV?$_Vector_const_iterator@V?$_Vector_val@UtagBaseCharDistanceSq@@V?$allocator@UtagBaseCharDistanceSq@@@std@@@std@@@1@@Z PROC ; std::_Vector_iterator<std::_Vector_val<tagBaseCharDistanceSq,std::allocator<tagBaseCharDistanceSq> > >::operator-, COMDAT
; _this$ = ecx

; 380  : 		{	// return difference of iterators

  00000	55		 push	 ebp
  00001	8b ec		 mov	 ebp, esp

; 381  : 		return (*(_Mybase *)this - _Right);

  00003	8b 01		 mov	 eax, DWORD PTR [ecx]
  00005	8b 4d 08	 mov	 ecx, DWORD PTR __Right$[ebp]
  00008	2b 01		 sub	 eax, DWORD PTR [ecx]
  0000a	c1 f8 05	 sar	 eax, 5

; 382  : 		}

  0000d	5d		 pop	 ebp
  0000e	c2 04 00	 ret	 4
??G?$_Vector_iterator@V?$_Vector_val@UtagBaseCharDistanceSq@@V?$allocator@UtagBaseCharDistanceSq@@@std@@@std@@@std@@QBEHABV?$_Vector_const_iterator@V?$_Vector_val@UtagBaseCharDistanceSq@@V?$allocator@UtagBaseCharDistanceSq@@@std@@@std@@@1@@Z ENDP ; std::_Vector_iterator<std::_Vector_val<tagBaseCharDistanceSq,std::allocator<tagBaseCharDistanceSq> > >::operator-
_TEXT	ENDS
PUBLIC	?destroy@?$allocator@UtagBaseCharDistanceSq@@@std@@QAEXPAUtagBaseCharDistanceSq@@@Z ; std::allocator<tagBaseCharDistanceSq>::destroy
; Function compile flags: /Ogsp
; File c:\program files (x86)\microsoft visual studio 10.0\vc\include\xmemory
;	COMDAT ?destroy@?$allocator@UtagBaseCharDistanceSq@@@std@@QAEXPAUtagBaseCharDistanceSq@@@Z
_TEXT	SEGMENT
__Ptr$ = 8						; size = 4
?destroy@?$allocator@UtagBaseCharDistanceSq@@@std@@QAEXPAUtagBaseCharDistanceSq@@@Z PROC ; std::allocator<tagBaseCharDistanceSq>::destroy, COMDAT
; _this$ = ecx

; 212  : 		{	// destroy object at _Ptr

  00000	55		 push	 ebp
  00001	8b ec		 mov	 ebp, esp

; 213  : 		_Destroy(_Ptr);

  00003	8b 4d 08	 mov	 ecx, DWORD PTR __Ptr$[ebp]
  00006	ff 15 00 00 00
	00		 call	 DWORD PTR __imp_??1ioHashString@@QAE@XZ

; 214  : 		}

  0000c	5d		 pop	 ebp
  0000d	c2 04 00	 ret	 4
?destroy@?$allocator@UtagBaseCharDistanceSq@@@std@@QAEXPAUtagBaseCharDistanceSq@@@Z ENDP ; std::allocator<tagBaseCharDistanceSq>::destroy
_TEXT	ENDS
PUBLIC	??$iter_swap@PAUtagBaseCharDistanceSq@@PAU1@@std@@YAXPAUtagBaseCharDistanceSq@@0@Z ; std::iter_swap<tagBaseCharDistanceSq *,tagBaseCharDistanceSq *>
; Function compile flags: /Ogsp
; File c:\program files (x86)\microsoft visual studio 10.0\vc\include\xutility
;	COMDAT ??$iter_swap@PAUtagBaseCharDistanceSq@@PAU1@@std@@YAXPAUtagBaseCharDistanceSq@@0@Z
_TEXT	SEGMENT
__Left$ = 8						; size = 4
__Right$ = 12						; size = 4
??$iter_swap@PAUtagBaseCharDistanceSq@@PAU1@@std@@YAXPAUtagBaseCharDistanceSq@@0@Z PROC ; std::iter_swap<tagBaseCharDistanceSq *,tagBaseCharDistanceSq *>, COMDAT

; 2133 : 	{	// swap *_Left and *_Right

  00000	55		 push	 ebp
  00001	8b ec		 mov	 ebp, esp

; 2135 : 	}

  00003	5d		 pop	 ebp

; 2134 : 	swap(*_Left, *_Right);

  00004	e9 00 00 00 00	 jmp	 ??$swap@UtagBaseCharDistanceSq@@@std@@YAXAAUtagBaseCharDistanceSq@@0@Z ; std::swap<tagBaseCharDistanceSq>
??$iter_swap@PAUtagBaseCharDistanceSq@@PAU1@@std@@YAXPAUtagBaseCharDistanceSq@@0@Z ENDP ; std::iter_swap<tagBaseCharDistanceSq *,tagBaseCharDistanceSq *>
_TEXT	ENDS
PUBLIC	??$_Cons_val@V?$allocator@UForceInfo@@@std@@UForceInfo@@ABU3@@std@@YAXAAV?$allocator@UForceInfo@@@0@PAUForceInfo@@ABU2@@Z ; std::_Cons_val<std::allocator<ForceInfo>,ForceInfo,ForceInfo const &>
; Function compile flags: /Ogsp
; File c:\program files (x86)\microsoft visual studio 10.0\vc\include\xmemory
;	COMDAT ??$_Cons_val@V?$allocator@UForceInfo@@@std@@UForceInfo@@ABU3@@std@@YAXAAV?$allocator@UForceInfo@@@0@PAUForceInfo@@ABU2@@Z
_TEXT	SEGMENT
__Alval$ = 8						; size = 4
__Pdest$ = 12						; size = 4
__Src$ = 16						; size = 4
??$_Cons_val@V?$allocator@UForceInfo@@@std@@UForceInfo@@ABU3@@std@@YAXAAV?$allocator@UForceInfo@@@0@PAUForceInfo@@ABU2@@Z PROC ; std::_Cons_val<std::allocator<ForceInfo>,ForceInfo,ForceInfo const &>, COMDAT

; 279  : 	{	// construct using allocator

  00000	55		 push	 ebp
  00001	8b ec		 mov	 ebp, esp
  00003	57		 push	 edi

; 280  : 	_Alval.construct(_Pdest, _STD forward<_Ty2>(_Src));

  00004	8b 7d 0c	 mov	 edi, DWORD PTR __Pdest$[ebp]
  00007	85 ff		 test	 edi, edi
  00009	74 08		 je	 SHORT $LN9@Cons_val@2
  0000b	56		 push	 esi
  0000c	8b 75 10	 mov	 esi, DWORD PTR __Src$[ebp]
  0000f	a5		 movsd
  00010	a5		 movsd
  00011	a5		 movsd
  00012	5e		 pop	 esi
$LN9@Cons_val@2:
  00013	5f		 pop	 edi

; 281  : 	}

  00014	5d		 pop	 ebp
  00015	c3		 ret	 0
??$_Cons_val@V?$allocator@UForceInfo@@@std@@UForceInfo@@ABU3@@std@@YAXAAV?$allocator@UForceInfo@@@0@PAUForceInfo@@ABU2@@Z ENDP ; std::_Cons_val<std::allocator<ForceInfo>,ForceInfo,ForceInfo const &>
_TEXT	ENDS
PUBLIC	??$_Cons_val@V?$allocator@UtagBaseCharDistanceSq@@@std@@UtagBaseCharDistanceSq@@U3@@std@@YAXAAV?$allocator@UtagBaseCharDistanceSq@@@0@PAUtagBaseCharDistanceSq@@$$QAU2@@Z ; std::_Cons_val<std::allocator<tagBaseCharDistanceSq>,tagBaseCharDistanceSq,tagBaseCharDistanceSq>
;	COMDAT xdata$x
; File c:\program files (x86)\microsoft visual studio 10.0\vc\include\utility
xdata$x	SEGMENT
__unwindtable$??$_Cons_val@V?$allocator@UtagBaseCharDistanceSq@@@std@@UtagBaseCharDistanceSq@@U3@@std@@YAXAAV?$allocator@UtagBaseCharDistanceSq@@@0@PAUtagBaseCharDistanceSq@@$$QAU2@@Z DD 0ffffffffH
	DD	FLAT:__unwindfunclet$??$_Cons_val@V?$allocator@UtagBaseCharDistanceSq@@@std@@UtagBaseCharDistanceSq@@U3@@std@@YAXAAV?$allocator@UtagBaseCharDistanceSq@@@0@PAUtagBaseCharDistanceSq@@$$QAU2@@Z$0
__ehfuncinfo$??$_Cons_val@V?$allocator@UtagBaseCharDistanceSq@@@std@@UtagBaseCharDistanceSq@@U3@@std@@YAXAAV?$allocator@UtagBaseCharDistanceSq@@@0@PAUtagBaseCharDistanceSq@@$$QAU2@@Z DD 019930522H
	DD	01H
	DD	FLAT:__unwindtable$??$_Cons_val@V?$allocator@UtagBaseCharDistanceSq@@@std@@UtagBaseCharDistanceSq@@U3@@std@@YAXAAV?$allocator@UtagBaseCharDistanceSq@@@0@PAUtagBaseCharDistanceSq@@$$QAU2@@Z
	DD	2 DUP(00H)
	DD	2 DUP(00H)
	DD	00H
	DD	01H
; Function compile flags: /Ogsp
; File c:\program files (x86)\microsoft visual studio 10.0\vc\include\xmemory
xdata$x	ENDS
;	COMDAT ??$_Cons_val@V?$allocator@UtagBaseCharDistanceSq@@@std@@UtagBaseCharDistanceSq@@U3@@std@@YAXAAV?$allocator@UtagBaseCharDistanceSq@@@0@PAUtagBaseCharDistanceSq@@$$QAU2@@Z
_TEXT	SEGMENT
$T540727 = -16						; size = 4
__$EHRec$ = -12						; size = 12
__Alval$ = 8						; size = 4
__Pdest$ = 12						; size = 4
__Src$ = 16						; size = 4
??$_Cons_val@V?$allocator@UtagBaseCharDistanceSq@@@std@@UtagBaseCharDistanceSq@@U3@@std@@YAXAAV?$allocator@UtagBaseCharDistanceSq@@@0@PAUtagBaseCharDistanceSq@@$$QAU2@@Z PROC ; std::_Cons_val<std::allocator<tagBaseCharDistanceSq>,tagBaseCharDistanceSq,tagBaseCharDistanceSq>, COMDAT

; 279  : 	{	// construct using allocator

  00000	6a 04		 push	 4
  00002	b8 00 00 00 00	 mov	 eax, __ehhandler$??$_Cons_val@V?$allocator@UtagBaseCharDistanceSq@@@std@@UtagBaseCharDistanceSq@@U3@@std@@YAXAAV?$allocator@UtagBaseCharDistanceSq@@@0@PAUtagBaseCharDistanceSq@@$$QAU2@@Z
  00007	e8 00 00 00 00	 call	 __EH_prolog3

; 280  : 	_Alval.construct(_Pdest, _STD forward<_Ty2>(_Src));

  0000c	8b 4d 0c	 mov	 ecx, DWORD PTR __Pdest$[ebp]
  0000f	89 4d f0	 mov	 DWORD PTR $T540727[ebp], ecx
  00012	83 65 fc 00	 and	 DWORD PTR __$EHRec$[ebp+8], 0
  00016	85 c9		 test	 ecx, ecx
  00018	74 08		 je	 SHORT $LN7@Cons_val@3
  0001a	ff 75 10	 push	 DWORD PTR __Src$[ebp]
  0001d	e8 00 00 00 00	 call	 ??0tagBaseCharDistanceSq@@QAE@ABU0@@Z
$LN7@Cons_val@3:

; 281  : 	}

  00022	e8 00 00 00 00	 call	 __EH_epilog3
  00027	c3		 ret	 0
_TEXT	ENDS
;	COMDAT text$x
text$x	SEGMENT
__unwindfunclet$??$_Cons_val@V?$allocator@UtagBaseCharDistanceSq@@@std@@UtagBaseCharDistanceSq@@U3@@std@@YAXAAV?$allocator@UtagBaseCharDistanceSq@@@0@PAUtagBaseCharDistanceSq@@$$QAU2@@Z$0:
  00000	ff 75 0c	 push	 DWORD PTR __Pdest$[ebp]
  00003	ff 75 f0	 push	 DWORD PTR $T540727[ebp]
  00006	e8 00 00 00 00	 call	 ??3@YAXPAX0@Z		; operator delete
  0000b	59		 pop	 ecx
  0000c	59		 pop	 ecx
  0000d	c3		 ret	 0
__ehhandler$??$_Cons_val@V?$allocator@UtagBaseCharDistanceSq@@@std@@UtagBaseCharDistanceSq@@U3@@std@@YAXAAV?$allocator@UtagBaseCharDistanceSq@@@0@PAUtagBaseCharDistanceSq@@$$QAU2@@Z:
  0000e	8b 54 24 08	 mov	 edx, DWORD PTR [esp+8]
  00012	8d 42 0c	 lea	 eax, DWORD PTR [edx+12]
  00015	8b 4a ec	 mov	 ecx, DWORD PTR [edx-20]
  00018	33 c8		 xor	 ecx, eax
  0001a	e8 00 00 00 00	 call	 @__security_check_cookie@4
  0001f	b8 00 00 00 00	 mov	 eax, OFFSET __ehfuncinfo$??$_Cons_val@V?$allocator@UtagBaseCharDistanceSq@@@std@@UtagBaseCharDistanceSq@@U3@@std@@YAXAAV?$allocator@UtagBaseCharDistanceSq@@@0@PAUtagBaseCharDistanceSq@@$$QAU2@@Z
  00024	e9 00 00 00 00	 jmp	 ___CxxFrameHandler3
text$x	ENDS
??$_Cons_val@V?$allocator@UtagBaseCharDistanceSq@@@std@@UtagBaseCharDistanceSq@@U3@@std@@YAXAAV?$allocator@UtagBaseCharDistanceSq@@@0@PAUtagBaseCharDistanceSq@@$$QAU2@@Z ENDP ; std::_Cons_val<std::allocator<tagBaseCharDistanceSq>,tagBaseCharDistanceSq,tagBaseCharDistanceSq>
PUBLIC	?construct@?$allocator@UWeaponInfo@@@std@@QAEXPAUWeaponInfo@@ABU3@@Z ; std::allocator<WeaponInfo>::construct
; Function compile flags: /Ogsp
;	COMDAT ?construct@?$allocator@UWeaponInfo@@@std@@QAEXPAUWeaponInfo@@ABU3@@Z
_TEXT	SEGMENT
__Ptr$ = 8						; size = 4
__Val$ = 12						; size = 4
?construct@?$allocator@UWeaponInfo@@@std@@QAEXPAUWeaponInfo@@ABU3@@Z PROC ; std::allocator<WeaponInfo>::construct, COMDAT
; _this$ = ecx

; 196  : 		{	// construct object at _Ptr with value _Val

  00000	55		 push	 ebp
  00001	8b ec		 mov	 ebp, esp

; 197  : 		_Construct(_Ptr, _Val);

  00003	ff 75 0c	 push	 DWORD PTR __Val$[ebp]
  00006	ff 75 08	 push	 DWORD PTR __Ptr$[ebp]
  00009	e8 00 00 00 00	 call	 ??$_Construct@UWeaponInfo@@ABU1@@std@@YAXPAUWeaponInfo@@ABU1@@Z ; std::_Construct<WeaponInfo,WeaponInfo const &>
  0000e	59		 pop	 ecx
  0000f	59		 pop	 ecx

; 198  : 		}

  00010	5d		 pop	 ebp
  00011	c2 08 00	 ret	 8
?construct@?$allocator@UWeaponInfo@@@std@@QAEXPAUWeaponInfo@@ABU3@@Z ENDP ; std::allocator<WeaponInfo>::construct
_TEXT	ENDS
PUBLIC	??$_Med3@PAUtagBaseCharDistanceSq@@VBaseCharDistanceSqSort2@@@std@@YAXPAUtagBaseCharDistanceSq@@00VBaseCharDistanceSqSort2@@@Z ; std::_Med3<tagBaseCharDistanceSq *,BaseCharDistanceSqSort2>
; Function compile flags: /Ogsp
; File c:\program files (x86)\microsoft visual studio 10.0\vc\include\algorithm
;	COMDAT ??$_Med3@PAUtagBaseCharDistanceSq@@VBaseCharDistanceSqSort2@@@std@@YAXPAUtagBaseCharDistanceSq@@00VBaseCharDistanceSqSort2@@@Z
_TEXT	SEGMENT
__First$ = 8						; size = 4
__Mid$ = 12						; size = 4
__Last$ = 16						; size = 4
__Pred$ = 20						; size = 1
??$_Med3@PAUtagBaseCharDistanceSq@@VBaseCharDistanceSqSort2@@@std@@YAXPAUtagBaseCharDistanceSq@@00VBaseCharDistanceSqSort2@@@Z PROC ; std::_Med3<tagBaseCharDistanceSq *,BaseCharDistanceSqSort2>, COMDAT

; 3683 : 	{	// sort median of three elements to middle

  00000	55		 push	 ebp
  00001	8b ec		 mov	 ebp, esp
  00003	56		 push	 esi

; 3684 : 	if (_DEBUG_LT_PRED(_Pred, *_Mid, *_First))

  00004	8b 75 0c	 mov	 esi, DWORD PTR __Mid$[ebp]
  00007	f3 0f 10 46 10	 movss	 xmm0, DWORD PTR [esi+16]
  0000c	57		 push	 edi
  0000d	8b 7d 08	 mov	 edi, DWORD PTR __First$[ebp]
  00010	f3 0f 10 4f 10	 movss	 xmm1, DWORD PTR [edi+16]
  00015	0f 5a c0	 cvtps2pd xmm0, xmm0
  00018	0f 5a c9	 cvtps2pd xmm1, xmm1
  0001b	66 0f 2f c8	 comisd	 xmm1, xmm0
  0001f	76 09		 jbe	 SHORT $LN9@Med3

; 3685 : 		_STD iter_swap(_Mid, _First);

  00021	57		 push	 edi
  00022	56		 push	 esi
  00023	e8 00 00 00 00	 call	 ??$swap@UtagBaseCharDistanceSq@@@std@@YAXAAUtagBaseCharDistanceSq@@0@Z ; std::swap<tagBaseCharDistanceSq>
  00028	59		 pop	 ecx
  00029	59		 pop	 ecx
$LN9@Med3:

; 3686 : 	if (_DEBUG_LT_PRED(_Pred, *_Last, *_Mid))

  0002a	8b 45 10	 mov	 eax, DWORD PTR __Last$[ebp]
  0002d	f3 0f 10 40 10	 movss	 xmm0, DWORD PTR [eax+16]
  00032	f3 0f 10 4e 10	 movss	 xmm1, DWORD PTR [esi+16]
  00037	0f 5a c0	 cvtps2pd xmm0, xmm0
  0003a	0f 5a c9	 cvtps2pd xmm1, xmm1
  0003d	66 0f 2f c8	 comisd	 xmm1, xmm0
  00041	76 09		 jbe	 SHORT $LN14@Med3

; 3687 : 		_STD iter_swap(_Last, _Mid);

  00043	56		 push	 esi
  00044	50		 push	 eax
  00045	e8 00 00 00 00	 call	 ??$swap@UtagBaseCharDistanceSq@@@std@@YAXAAUtagBaseCharDistanceSq@@0@Z ; std::swap<tagBaseCharDistanceSq>
  0004a	59		 pop	 ecx
  0004b	59		 pop	 ecx
$LN14@Med3:

; 3688 : 	if (_DEBUG_LT_PRED(_Pred, *_Mid, *_First))

  0004c	f3 0f 10 46 10	 movss	 xmm0, DWORD PTR [esi+16]
  00051	f3 0f 10 4f 10	 movss	 xmm1, DWORD PTR [edi+16]
  00056	0f 5a c0	 cvtps2pd xmm0, xmm0
  00059	0f 5a c9	 cvtps2pd xmm1, xmm1
  0005c	66 0f 2f c8	 comisd	 xmm1, xmm0
  00060	76 09		 jbe	 SHORT $LN19@Med3

; 3689 : 		_STD iter_swap(_Mid, _First);

  00062	57		 push	 edi
  00063	56		 push	 esi
  00064	e8 00 00 00 00	 call	 ??$swap@UtagBaseCharDistanceSq@@@std@@YAXAAUtagBaseCharDistanceSq@@0@Z ; std::swap<tagBaseCharDistanceSq>
  00069	59		 pop	 ecx
  0006a	59		 pop	 ecx
$LN19@Med3:
  0006b	5f		 pop	 edi
  0006c	5e		 pop	 esi

; 3690 : 	}

  0006d	5d		 pop	 ebp
  0006e	c3		 ret	 0
??$_Med3@PAUtagBaseCharDistanceSq@@VBaseCharDistanceSqSort2@@@std@@YAXPAUtagBaseCharDistanceSq@@00VBaseCharDistanceSqSort2@@@Z ENDP ; std::_Med3<tagBaseCharDistanceSq *,BaseCharDistanceSqSort2>
_TEXT	ENDS
PUBLIC	??$_Adjust_heap@PAUtagBaseCharDistanceSq@@HU1@VBaseCharDistanceSqSort2@@@std@@YAXPAUtagBaseCharDistanceSq@@HH$$QAU1@VBaseCharDistanceSqSort2@@@Z ; std::_Adjust_heap<tagBaseCharDistanceSq *,int,tagBaseCharDistanceSq,BaseCharDistanceSqSort2>
; Function compile flags: /Ogsp
;	COMDAT ??$_Adjust_heap@PAUtagBaseCharDistanceSq@@HU1@VBaseCharDistanceSqSort2@@@std@@YAXPAUtagBaseCharDistanceSq@@HH$$QAU1@VBaseCharDistanceSqSort2@@@Z
_TEXT	SEGMENT
__First$ = 8						; size = 4
__Top$ = 12						; size = 4
__Hole$ = 12						; size = 4
__Bottom$ = 16						; size = 4
__Val$ = 20						; size = 4
__Pred$ = 24						; size = 1
??$_Adjust_heap@PAUtagBaseCharDistanceSq@@HU1@VBaseCharDistanceSqSort2@@@std@@YAXPAUtagBaseCharDistanceSq@@HH$$QAU1@VBaseCharDistanceSqSort2@@@Z PROC ; std::_Adjust_heap<tagBaseCharDistanceSq *,int,tagBaseCharDistanceSq,BaseCharDistanceSqSort2>, COMDAT

; 2565 : 	{	// percolate _Hole to _Bottom, then push _Val, using _Pred

  00000	55		 push	 ebp
  00001	8b ec		 mov	 ebp, esp

; 2566 : 	_Diff _Top = _Hole;

  00003	8b 4d 0c	 mov	 ecx, DWORD PTR __Hole$[ebp]
  00006	53		 push	 ebx

; 2567 : 	_Diff _Idx = 2 * _Hole + 2;
; 2568 : 
; 2569 : 	for (; _Idx < _Bottom; _Idx = 2 * _Idx + 2)

  00007	8b 5d 10	 mov	 ebx, DWORD PTR __Bottom$[ebp]
  0000a	56		 push	 esi
  0000b	57		 push	 edi
  0000c	8b 7d 08	 mov	 edi, DWORD PTR __First$[ebp]
  0000f	89 4d 0c	 mov	 DWORD PTR __Top$[ebp], ecx
  00012	8d 74 09 02	 lea	 esi, DWORD PTR [ecx+ecx+2]
  00016	eb 36		 jmp	 SHORT $LN20@Adjust_hea
$LL5@Adjust_hea:

; 2570 : 		{	// move _Hole down to larger child
; 2571 : 		if (_DEBUG_LT_PRED(_Pred, *(_First + _Idx), *(_First + (_Idx - 1))))

  00018	8b c6		 mov	 eax, esi
  0001a	c1 e0 05	 shl	 eax, 5
  0001d	f3 0f 10 44 38
	10		 movss	 xmm0, DWORD PTR [eax+edi+16]
  00023	f3 0f 10 4c 38
	f0		 movss	 xmm1, DWORD PTR [eax+edi-16]
  00029	0f 5a c0	 cvtps2pd xmm0, xmm0
  0002c	0f 5a c9	 cvtps2pd xmm1, xmm1
  0002f	66 0f 2f c8	 comisd	 xmm1, xmm0
  00033	76 01		 jbe	 SHORT $LN2@Adjust_hea

; 2572 : 			--_Idx;

  00035	4e		 dec	 esi
$LN2@Adjust_hea:

; 2573 : 		*(_First + _Hole) = _Move(*(_First + _Idx));

  00036	8b c6		 mov	 eax, esi
  00038	c1 e0 05	 shl	 eax, 5
  0003b	03 c7		 add	 eax, edi
  0003d	c1 e1 05	 shl	 ecx, 5
  00040	50		 push	 eax
  00041	03 cf		 add	 ecx, edi
  00043	e8 00 00 00 00	 call	 ??4tagBaseCharDistanceSq@@QAEAAU0@ABU0@@Z

; 2574 : 		_Hole = _Idx;

  00048	8b ce		 mov	 ecx, esi
  0004a	8d 74 36 02	 lea	 esi, DWORD PTR [esi+esi+2]
$LN20@Adjust_hea:

; 2567 : 	_Diff _Idx = 2 * _Hole + 2;
; 2568 : 
; 2569 : 	for (; _Idx < _Bottom; _Idx = 2 * _Idx + 2)

  0004e	3b f3		 cmp	 esi, ebx
  00050	7c c6		 jl	 SHORT $LL5@Adjust_hea

; 2575 : 		}
; 2576 : 
; 2577 : 	if (_Idx == _Bottom)

  00052	75 17		 jne	 SHORT $LN1@Adjust_hea

; 2578 : 		{	// only child at bottom, move _Hole down to it
; 2579 : 		*(_First + _Hole) = _Move(*(_First + (_Bottom - 1)));

  00054	8b c3		 mov	 eax, ebx
  00056	c1 e0 05	 shl	 eax, 5
  00059	8d 44 38 e0	 lea	 eax, DWORD PTR [eax+edi-32]
  0005d	c1 e1 05	 shl	 ecx, 5
  00060	50		 push	 eax
  00061	03 cf		 add	 ecx, edi
  00063	e8 00 00 00 00	 call	 ??4tagBaseCharDistanceSq@@QAEAAU0@ABU0@@Z

; 2580 : 		_Hole = _Bottom - 1;

  00068	8d 4b ff	 lea	 ecx, DWORD PTR [ebx-1]
$LN1@Adjust_hea:

; 2581 : 		}
; 2582 : 	_Push_heap(_First, _Hole, _Top, _Move(_Val), _Pred);

  0006b	ff 75 18	 push	 DWORD PTR __Pred$[ebp]
  0006e	ff 75 14	 push	 DWORD PTR __Val$[ebp]
  00071	ff 75 0c	 push	 DWORD PTR __Top$[ebp]
  00074	51		 push	 ecx
  00075	57		 push	 edi
  00076	e8 00 00 00 00	 call	 ??$_Push_heap@PAUtagBaseCharDistanceSq@@HU1@VBaseCharDistanceSqSort2@@@std@@YAXPAUtagBaseCharDistanceSq@@HH$$QAU1@VBaseCharDistanceSqSort2@@@Z ; std::_Push_heap<tagBaseCharDistanceSq *,int,tagBaseCharDistanceSq,BaseCharDistanceSqSort2>
  0007b	83 c4 14	 add	 esp, 20			; 00000014H
  0007e	5f		 pop	 edi
  0007f	5e		 pop	 esi
  00080	5b		 pop	 ebx

; 2583 : 	}

  00081	5d		 pop	 ebp
  00082	c3		 ret	 0
??$_Adjust_heap@PAUtagBaseCharDistanceSq@@HU1@VBaseCharDistanceSqSort2@@@std@@YAXPAUtagBaseCharDistanceSq@@HH$$QAU1@VBaseCharDistanceSqSort2@@@Z ENDP ; std::_Adjust_heap<tagBaseCharDistanceSq *,int,tagBaseCharDistanceSq,BaseCharDistanceSqSort2>
_TEXT	ENDS
PUBLIC	??$_Move_backward@PAUtagBaseCharDistanceSq@@PAU1@@std@@YAPAUtagBaseCharDistanceSq@@PAU1@00@Z ; std::_Move_backward<tagBaseCharDistanceSq *,tagBaseCharDistanceSq *>
; Function compile flags: /Ogsp
; File c:\program files (x86)\microsoft visual studio 10.0\vc\include\xutility
;	COMDAT ??$_Move_backward@PAUtagBaseCharDistanceSq@@PAU1@@std@@YAPAUtagBaseCharDistanceSq@@PAU1@00@Z
_TEXT	SEGMENT
__Cat$540798 = -4					; size = 1
__First$ = 8						; size = 4
__Last$ = 12						; size = 4
__Dest$ = 16						; size = 4
??$_Move_backward@PAUtagBaseCharDistanceSq@@PAU1@@std@@YAPAUtagBaseCharDistanceSq@@PAU1@00@Z PROC ; std::_Move_backward<tagBaseCharDistanceSq *,tagBaseCharDistanceSq *>, COMDAT

; 2638 : 	{	// move [_First, _Last) backwards to [..., _Dest), unchecked

  00000	55		 push	 ebp
  00001	8b ec		 mov	 ebp, esp
  00003	51		 push	 ecx

; 2639 : 	return (_Move_backward(_First, _Last,
; 2640 : 		_Dest, _Ptr_cat(_First, _Dest)));

  00004	ff 75 fc	 push	 DWORD PTR __Cat$540798[ebp]
  00007	ff 75 10	 push	 DWORD PTR __Dest$[ebp]
  0000a	ff 75 0c	 push	 DWORD PTR __Last$[ebp]
  0000d	ff 75 08	 push	 DWORD PTR __First$[ebp]
  00010	e8 00 00 00 00	 call	 ??$_Move_backward@PAUtagBaseCharDistanceSq@@PAU1@@std@@YAPAUtagBaseCharDistanceSq@@PAU1@00U_Nonscalar_ptr_iterator_tag@0@@Z ; std::_Move_backward<tagBaseCharDistanceSq *,tagBaseCharDistanceSq *>
  00015	83 c4 10	 add	 esp, 16			; 00000010H

; 2641 : 	}

  00018	c9		 leave
  00019	c3		 ret	 0
??$_Move_backward@PAUtagBaseCharDistanceSq@@PAU1@@std@@YAPAUtagBaseCharDistanceSq@@PAU1@00@Z ENDP ; std::_Move_backward<tagBaseCharDistanceSq *,tagBaseCharDistanceSq *>
_TEXT	ENDS
PUBLIC	??$_Pop_heap@PAUtagBaseCharDistanceSq@@HU1@VBaseCharDistanceSqSort2@@@std@@YAXPAUtagBaseCharDistanceSq@@00$$QAU1@VBaseCharDistanceSqSort2@@PAH@Z ; std::_Pop_heap<tagBaseCharDistanceSq *,int,tagBaseCharDistanceSq,BaseCharDistanceSqSort2>
; Function compile flags: /Ogsp
; File c:\program files (x86)\microsoft visual studio 10.0\vc\include\algorithm
;	COMDAT ??$_Pop_heap@PAUtagBaseCharDistanceSq@@HU1@VBaseCharDistanceSqSort2@@@std@@YAXPAUtagBaseCharDistanceSq@@00$$QAU1@VBaseCharDistanceSqSort2@@PAH@Z
_TEXT	SEGMENT
__First$ = 8						; size = 4
__Last$ = 12						; size = 4
__Dest$ = 16						; size = 4
__Val$ = 20						; size = 4
__Pred$ = 24						; size = 1
___formal$ = 28						; size = 4
??$_Pop_heap@PAUtagBaseCharDistanceSq@@HU1@VBaseCharDistanceSqSort2@@@std@@YAXPAUtagBaseCharDistanceSq@@00$$QAU1@VBaseCharDistanceSqSort2@@PAH@Z PROC ; std::_Pop_heap<tagBaseCharDistanceSq *,int,tagBaseCharDistanceSq,BaseCharDistanceSqSort2>, COMDAT

; 2591 : 	{	// pop *_First to *_Dest and reheap, using _Pred

  00000	55		 push	 ebp
  00001	8b ec		 mov	 ebp, esp

; 2592 : 	*_Dest = _Move(*_First);

  00003	ff 75 08	 push	 DWORD PTR __First$[ebp]
  00006	8b 4d 10	 mov	 ecx, DWORD PTR __Dest$[ebp]
  00009	e8 00 00 00 00	 call	 ??4tagBaseCharDistanceSq@@QAEAAU0@ABU0@@Z

; 2593 : 	_Adjust_heap(_First, _Diff(0), _Diff(_Last - _First),
; 2594 : 		_Move(_Val), _Pred);

  0000e	ff 75 18	 push	 DWORD PTR __Pred$[ebp]
  00011	8b 45 0c	 mov	 eax, DWORD PTR __Last$[ebp]
  00014	2b 45 08	 sub	 eax, DWORD PTR __First$[ebp]
  00017	ff 75 14	 push	 DWORD PTR __Val$[ebp]
  0001a	c1 f8 05	 sar	 eax, 5
  0001d	50		 push	 eax
  0001e	6a 00		 push	 0
  00020	ff 75 08	 push	 DWORD PTR __First$[ebp]
  00023	e8 00 00 00 00	 call	 ??$_Adjust_heap@PAUtagBaseCharDistanceSq@@HU1@VBaseCharDistanceSqSort2@@@std@@YAXPAUtagBaseCharDistanceSq@@HH$$QAU1@VBaseCharDistanceSqSort2@@@Z ; std::_Adjust_heap<tagBaseCharDistanceSq *,int,tagBaseCharDistanceSq,BaseCharDistanceSqSort2>
  00028	83 c4 14	 add	 esp, 20			; 00000014H

; 2595 : 	}

  0002b	5d		 pop	 ebp
  0002c	c3		 ret	 0
??$_Pop_heap@PAUtagBaseCharDistanceSq@@HU1@VBaseCharDistanceSqSort2@@@std@@YAXPAUtagBaseCharDistanceSq@@00$$QAU1@VBaseCharDistanceSqSort2@@PAH@Z ENDP ; std::_Pop_heap<tagBaseCharDistanceSq *,int,tagBaseCharDistanceSq,BaseCharDistanceSqSort2>
_TEXT	ENDS
PUBLIC	?GetTeam@ioPlayEntity@@QBE?AW4TeamType@@XZ	; ioPlayEntity::GetTeam
; Function compile flags: /Ogsp
; File d:\lost saga for developer\youtube\tutorial\source\src\lsclient\ioplayentity.h
;	COMDAT ?GetTeam@ioPlayEntity@@QBE?AW4TeamType@@XZ
_TEXT	SEGMENT
_value$540812 = -4					; size = 4
?GetTeam@ioPlayEntity@@QBE?AW4TeamType@@XZ PROC		; ioPlayEntity::GetTeam, COMDAT
; _this$ = ecx

; 107  : 	inline TeamType GetTeam() const { return m_TeamType; }

  00000	55		 push	 ebp
  00001	8b ec		 mov	 ebp, esp
  00003	51		 push	 ecx
  00004	8d 45 fc	 lea	 eax, DWORD PTR _value$540812[ebp]
  00007	50		 push	 eax
  00008	81 c1 90 00 00
	00		 add	 ecx, 144		; 00000090H
  0000e	e8 00 00 00 00	 call	 ?DecryptValueToPool@?$CEncrypt@W4TeamType@@@@QAEXPAW4TeamType@@@Z ; CEncrypt<enum TeamType>::DecryptValueToPool
  00013	8b 45 fc	 mov	 eax, DWORD PTR _value$540812[ebp]
  00016	c9		 leave
  00017	c3		 ret	 0
?GetTeam@ioPlayEntity@@QBE?AW4TeamType@@XZ ENDP		; ioPlayEntity::GetTeam
_TEXT	ENDS
PUBLIC	?IsLive@ioBuff@@QBE_NXZ				; ioBuff::IsLive
; Function compile flags: /Ogsp
; File d:\lost saga for developer\youtube\tutorial\source\src\lsclient\iobuff.h
;	COMDAT ?IsLive@ioBuff@@QBE_NXZ
_TEXT	SEGMENT
_value$540819 = -1					; size = 1
?IsLive@ioBuff@@QBE_NXZ PROC				; ioBuff::IsLive, COMDAT
; _this$ = ecx

; 428  : 	inline bool IsLive() const { return m_bLive; }

  00000	55		 push	 ebp
  00001	8b ec		 mov	 ebp, esp
  00003	51		 push	 ecx
  00004	8d 45 ff	 lea	 eax, DWORD PTR _value$540819[ebp]
  00007	50		 push	 eax
  00008	81 c1 70 07 00
	00		 add	 ecx, 1904		; 00000770H
  0000e	e8 00 00 00 00	 call	 ?DecryptValueToPool@?$CEncrypt@_N@@QAEXPA_N@Z ; CEncrypt<bool>::DecryptValueToPool
  00013	8a 45 ff	 mov	 al, BYTE PTR _value$540819[ebp]
  00016	c9		 leave
  00017	c3		 ret	 0
?IsLive@ioBuff@@QBE_NXZ ENDP				; ioBuff::IsLive
_TEXT	ENDS
PUBLIC	??0?$vector@UWeaponInfo@@V?$allocator@UWeaponInfo@@@std@@@std@@QAE@XZ ; std::vector<WeaponInfo,std::allocator<WeaponInfo> >::vector<WeaponInfo,std::allocator<WeaponInfo> >
; Function compile flags: /Ogsp
; File c:\program files (x86)\microsoft visual studio 10.0\vc\include\vector
;	COMDAT ??0?$vector@UWeaponInfo@@V?$allocator@UWeaponInfo@@@std@@@std@@QAE@XZ
_TEXT	SEGMENT
??0?$vector@UWeaponInfo@@V?$allocator@UWeaponInfo@@@std@@@std@@QAE@XZ PROC ; std::vector<WeaponInfo,std::allocator<WeaponInfo> >::vector<WeaponInfo,std::allocator<WeaponInfo> >, COMDAT
; _this$ = ecx

; 507  : 		{	// construct empty vector

  00000	8b c1		 mov	 eax, ecx
  00002	33 c9		 xor	 ecx, ecx
  00004	89 08		 mov	 DWORD PTR [eax], ecx
  00006	89 48 04	 mov	 DWORD PTR [eax+4], ecx
  00009	89 48 08	 mov	 DWORD PTR [eax+8], ecx

; 508  : 		}

  0000c	c3		 ret	 0
??0?$vector@UWeaponInfo@@V?$allocator@UWeaponInfo@@@std@@@std@@QAE@XZ ENDP ; std::vector<WeaponInfo,std::allocator<WeaponInfo> >::vector<WeaponInfo,std::allocator<WeaponInfo> >
_TEXT	ENDS
PUBLIC	??0?$vector@UForceInfo@@V?$allocator@UForceInfo@@@std@@@std@@QAE@XZ ; std::vector<ForceInfo,std::allocator<ForceInfo> >::vector<ForceInfo,std::allocator<ForceInfo> >
; Function compile flags: /Ogsp
;	COMDAT ??0?$vector@UForceInfo@@V?$allocator@UForceInfo@@@std@@@std@@QAE@XZ
_TEXT	SEGMENT
??0?$vector@UForceInfo@@V?$allocator@UForceInfo@@@std@@@std@@QAE@XZ PROC ; std::vector<ForceInfo,std::allocator<ForceInfo> >::vector<ForceInfo,std::allocator<ForceInfo> >, COMDAT
; _this$ = ecx

; 507  : 		{	// construct empty vector

  00000	8b c1		 mov	 eax, ecx
  00002	33 c9		 xor	 ecx, ecx
  00004	89 08		 mov	 DWORD PTR [eax], ecx
  00006	89 48 04	 mov	 DWORD PTR [eax+4], ecx
  00009	89 48 08	 mov	 DWORD PTR [eax+8], ecx

; 508  : 		}

  0000c	c3		 ret	 0
??0?$vector@UForceInfo@@V?$allocator@UForceInfo@@@std@@@std@@QAE@XZ ENDP ; std::vector<ForceInfo,std::allocator<ForceInfo> >::vector<ForceInfo,std::allocator<ForceInfo> >
_TEXT	ENDS
PUBLIC	??0?$CEncrypt@M@@QAE@ABV0@@Z			; CEncrypt<float>::CEncrypt<float>
;	COMDAT xdata$x
; File d:\lost saga for developer\youtube\tutorial\source\src\lsclient\encryptvalue.h
xdata$x	SEGMENT
__unwindtable$??0?$CEncrypt@M@@QAE@ABV0@@Z DD 0ffffffffH
	DD	FLAT:__unwindfunclet$??0?$CEncrypt@M@@QAE@ABV0@@Z$0
__ehfuncinfo$??0?$CEncrypt@M@@QAE@ABV0@@Z DD 019930522H
	DD	01H
	DD	FLAT:__unwindtable$??0?$CEncrypt@M@@QAE@ABV0@@Z
	DD	2 DUP(00H)
	DD	2 DUP(00H)
	DD	00H
	DD	01H
; Function compile flags: /Ogsp
xdata$x	ENDS
;	COMDAT ??0?$CEncrypt@M@@QAE@ABV0@@Z
_TEXT	SEGMENT
_this$ = -16						; size = 4
__$EHRec$ = -12						; size = 12
_value$540866 = 8					; size = 4
_value$540861 = 8					; size = 4
_inValue$ = 8						; size = 4
??0?$CEncrypt@M@@QAE@ABV0@@Z PROC			; CEncrypt<float>::CEncrypt<float>, COMDAT
; _this$ = ecx

; 120  : 	CEncrypt( const CEncrypt<type> &inValue )   //     

  00000	6a 04		 push	 4
  00002	b8 00 00 00 00	 mov	 eax, __ehhandler$??0?$CEncrypt@M@@QAE@ABV0@@Z
  00007	e8 00 00 00 00	 call	 __EH_prolog3
  0000c	8b f1		 mov	 esi, ecx
  0000e	89 75 f0	 mov	 DWORD PTR _this$[ebp], esi
  00011	8d 4e 0c	 lea	 ecx, DWORD PTR [esi+12]
  00014	c7 06 00 00 00
	00		 mov	 DWORD PTR [esi], OFFSET ??_7?$CEncrypt@M@@6B@
  0001a	e8 00 00 00 00	 call	 ??0ccddaabb@@QAE@XZ	; ccddaabb::ccddaabb
  0001f	83 65 fc 00	 and	 DWORD PTR __$EHRec$[ebp+8], 0

; 121  : 	{
; 122  : 		Init();

  00023	8b ce		 mov	 ecx, esi
  00025	e8 00 00 00 00	 call	 ?Init@?$CEncrypt@M@@AAEXXZ ; CEncrypt<float>::Init

; 123  : 		*this = inValue;

  0002a	8b 4d 08	 mov	 ecx, DWORD PTR _inValue$[ebp]
  0002d	8d 45 08	 lea	 eax, DWORD PTR _value$540861[ebp]
  00030	50		 push	 eax
  00031	e8 00 00 00 00	 call	 ?DecryptValueToPool@?$CEncrypt@M@@QAEXPAM@Z ; CEncrypt<float>::DecryptValueToPool
  00036	f3 0f 10 45 08	 movss	 xmm0, DWORD PTR _value$540861[ebp]
  0003b	8d 45 08	 lea	 eax, DWORD PTR _value$540866[ebp]
  0003e	50		 push	 eax
  0003f	8b ce		 mov	 ecx, esi
  00041	f3 0f 11 45 08	 movss	 DWORD PTR _value$540866[ebp], xmm0
  00046	e8 00 00 00 00	 call	 ?EncryptValueToPool@?$CEncrypt@M@@AAEXPBD@Z ; CEncrypt<float>::EncryptValueToPool

; 124  : 	}

  0004b	8b c6		 mov	 eax, esi
  0004d	e8 00 00 00 00	 call	 __EH_epilog3
  00052	c2 04 00	 ret	 4
_TEXT	ENDS
;	COMDAT text$x
text$x	SEGMENT
__unwindfunclet$??0?$CEncrypt@M@@QAE@ABV0@@Z$0:
  00000	8b 4d f0	 mov	 ecx, DWORD PTR _this$[ebp]
  00003	83 c1 0c	 add	 ecx, 12			; 0000000cH
  00006	e9 00 00 00 00	 jmp	 ??1ccddaabb@@UAE@XZ	; ccddaabb::~ccddaabb
__ehhandler$??0?$CEncrypt@M@@QAE@ABV0@@Z:
  0000b	8b 54 24 08	 mov	 edx, DWORD PTR [esp+8]
  0000f	8d 42 0c	 lea	 eax, DWORD PTR [edx+12]
  00012	8b 4a ec	 mov	 ecx, DWORD PTR [edx-20]
  00015	33 c8		 xor	 ecx, eax
  00017	e8 00 00 00 00	 call	 @__security_check_cookie@4
  0001c	b8 00 00 00 00	 mov	 eax, OFFSET __ehfuncinfo$??0?$CEncrypt@M@@QAE@ABV0@@Z
  00021	e9 00 00 00 00	 jmp	 ___CxxFrameHandler3
text$x	ENDS
??0?$CEncrypt@M@@QAE@ABV0@@Z ENDP			; CEncrypt<float>::CEncrypt<float>
PUBLIC	?_Buy@?$vector@UWeaponInfo@@V?$allocator@UWeaponInfo@@@std@@@std@@IAE_NI@Z ; std::vector<WeaponInfo,std::allocator<WeaponInfo> >::_Buy
; Function compile flags: /Ogsp
; File c:\program files (x86)\microsoft visual studio 10.0\vc\include\vector
;	COMDAT ?_Buy@?$vector@UWeaponInfo@@V?$allocator@UWeaponInfo@@@std@@@std@@IAE_NI@Z
_TEXT	SEGMENT
__Capacity$ = 8						; size = 4
?_Buy@?$vector@UWeaponInfo@@V?$allocator@UWeaponInfo@@@std@@@std@@IAE_NI@Z PROC ; std::vector<WeaponInfo,std::allocator<WeaponInfo> >::_Buy, COMDAT
; _this$ = ecx

; 1250 : 		{	// allocate array with _Capacity elements

  00000	55		 push	 ebp
  00001	8b ec		 mov	 ebp, esp
  00003	56		 push	 esi

; 1251 : 		this->_Myfirst = 0;

  00004	33 c0		 xor	 eax, eax
  00006	57		 push	 edi

; 1252 : 		this->_Mylast = 0;
; 1253 : 		this->_Myend = 0;
; 1254 : 
; 1255 : 		if (_Capacity == 0)

  00007	8b 7d 08	 mov	 edi, DWORD PTR __Capacity$[ebp]
  0000a	8b f1		 mov	 esi, ecx
  0000c	89 06		 mov	 DWORD PTR [esi], eax
  0000e	89 46 04	 mov	 DWORD PTR [esi+4], eax
  00011	89 46 08	 mov	 DWORD PTR [esi+8], eax
  00014	3b f8		 cmp	 edi, eax
  00016	75 04		 jne	 SHORT $LN4@Buy

; 1256 : 			return (false);

  00018	32 c0		 xor	 al, al
  0001a	eb 2b		 jmp	 SHORT $LN5@Buy
$LN4@Buy:

; 1257 : 		else if (max_size() < _Capacity)

  0001c	81 ff 66 66 66
	06		 cmp	 edi, 107374182		; 06666666H
  00022	76 0b		 jbe	 SHORT $LN2@Buy

; 1258 : 			_Xlen();	// result too long

  00024	68 00 00 00 00	 push	 OFFSET ??_C@_0BD@OLBABOEK@vector?$DMT?$DO?5too?5long?$AA@
  00029	ff 15 00 00 00
	00		 call	 DWORD PTR __imp_?_Xlength_error@std@@YAXPBD@Z
$LN19@Buy:
$LN2@Buy:

; 1259 : 		else
; 1260 : 			{	// nonempty array, allocate storage
; 1261 : 			this->_Myfirst = this->_Alval.allocate(_Capacity);

  0002f	50		 push	 eax
  00030	57		 push	 edi
  00031	e8 00 00 00 00	 call	 ??$_Allocate@UWeaponInfo@@@std@@YAPAUWeaponInfo@@IPAU1@@Z ; std::_Allocate<WeaponInfo>

; 1262 : 			this->_Mylast = this->_Myfirst;
; 1263 : 			this->_Myend = this->_Myfirst + _Capacity;

  00036	6b ff 28	 imul	 edi, 40			; 00000028H
  00039	03 f8		 add	 edi, eax
  0003b	59		 pop	 ecx
  0003c	89 06		 mov	 DWORD PTR [esi], eax
  0003e	89 46 04	 mov	 DWORD PTR [esi+4], eax
  00041	59		 pop	 ecx
  00042	89 7e 08	 mov	 DWORD PTR [esi+8], edi

; 1264 : 			}
; 1265 : 		return (true);

  00045	b0 01		 mov	 al, 1
$LN5@Buy:
  00047	5f		 pop	 edi
  00048	5e		 pop	 esi

; 1266 : 		}

  00049	5d		 pop	 ebp
  0004a	c2 04 00	 ret	 4
$LN18@Buy:
?_Buy@?$vector@UWeaponInfo@@V?$allocator@UWeaponInfo@@@std@@@std@@IAE_NI@Z ENDP ; std::vector<WeaponInfo,std::allocator<WeaponInfo> >::_Buy
_TEXT	ENDS
PUBLIC	?_Buy@?$vector@UForceInfo@@V?$allocator@UForceInfo@@@std@@@std@@IAE_NI@Z ; std::vector<ForceInfo,std::allocator<ForceInfo> >::_Buy
; Function compile flags: /Ogsp
;	COMDAT ?_Buy@?$vector@UForceInfo@@V?$allocator@UForceInfo@@@std@@@std@@IAE_NI@Z
_TEXT	SEGMENT
__Capacity$ = 8						; size = 4
?_Buy@?$vector@UForceInfo@@V?$allocator@UForceInfo@@@std@@@std@@IAE_NI@Z PROC ; std::vector<ForceInfo,std::allocator<ForceInfo> >::_Buy, COMDAT
; _this$ = ecx

; 1250 : 		{	// allocate array with _Capacity elements

  00000	55		 push	 ebp
  00001	8b ec		 mov	 ebp, esp
  00003	56		 push	 esi

; 1251 : 		this->_Myfirst = 0;

  00004	33 c0		 xor	 eax, eax
  00006	57		 push	 edi

; 1252 : 		this->_Mylast = 0;
; 1253 : 		this->_Myend = 0;
; 1254 : 
; 1255 : 		if (_Capacity == 0)

  00007	8b 7d 08	 mov	 edi, DWORD PTR __Capacity$[ebp]
  0000a	8b f1		 mov	 esi, ecx
  0000c	89 06		 mov	 DWORD PTR [esi], eax
  0000e	89 46 04	 mov	 DWORD PTR [esi+4], eax
  00011	89 46 08	 mov	 DWORD PTR [esi+8], eax
  00014	3b f8		 cmp	 edi, eax
  00016	75 04		 jne	 SHORT $LN4@Buy@2

; 1256 : 			return (false);

  00018	32 c0		 xor	 al, al
  0001a	eb 2b		 jmp	 SHORT $LN5@Buy@2
$LN4@Buy@2:

; 1257 : 		else if (max_size() < _Capacity)

  0001c	81 ff 55 55 55
	15		 cmp	 edi, 357913941		; 15555555H
  00022	76 0b		 jbe	 SHORT $LN2@Buy@2

; 1258 : 			_Xlen();	// result too long

  00024	68 00 00 00 00	 push	 OFFSET ??_C@_0BD@OLBABOEK@vector?$DMT?$DO?5too?5long?$AA@
  00029	ff 15 00 00 00
	00		 call	 DWORD PTR __imp_?_Xlength_error@std@@YAXPBD@Z
$LN19@Buy@2:
$LN2@Buy@2:

; 1259 : 		else
; 1260 : 			{	// nonempty array, allocate storage
; 1261 : 			this->_Myfirst = this->_Alval.allocate(_Capacity);

  0002f	50		 push	 eax
  00030	57		 push	 edi
  00031	e8 00 00 00 00	 call	 ??$_Allocate@UForceInfo@@@std@@YAPAUForceInfo@@IPAU1@@Z ; std::_Allocate<ForceInfo>

; 1262 : 			this->_Mylast = this->_Myfirst;
; 1263 : 			this->_Myend = this->_Myfirst + _Capacity;

  00036	6b ff 0c	 imul	 edi, 12			; 0000000cH
  00039	03 f8		 add	 edi, eax
  0003b	59		 pop	 ecx
  0003c	89 06		 mov	 DWORD PTR [esi], eax
  0003e	89 46 04	 mov	 DWORD PTR [esi+4], eax
  00041	59		 pop	 ecx
  00042	89 7e 08	 mov	 DWORD PTR [esi+8], edi

; 1264 : 			}
; 1265 : 		return (true);

  00045	b0 01		 mov	 al, 1
$LN5@Buy@2:
  00047	5f		 pop	 edi
  00048	5e		 pop	 esi

; 1266 : 		}

  00049	5d		 pop	 ebp
  0004a	c2 04 00	 ret	 4
$LN18@Buy@2:
?_Buy@?$vector@UForceInfo@@V?$allocator@UForceInfo@@@std@@@std@@IAE_NI@Z ENDP ; std::vector<ForceInfo,std::allocator<ForceInfo> >::_Buy
_TEXT	ENDS
PUBLIC	??9?$_Vector_const_iterator@V?$_Vector_val@UWeaponInfo@@V?$allocator@UWeaponInfo@@@std@@@std@@@std@@QBE_NABV01@@Z ; std::_Vector_const_iterator<std::_Vector_val<WeaponInfo,std::allocator<WeaponInfo> > >::operator!=
; Function compile flags: /Ogsp
;	COMDAT ??9?$_Vector_const_iterator@V?$_Vector_val@UWeaponInfo@@V?$allocator@UWeaponInfo@@@std@@@std@@@std@@QBE_NABV01@@Z
_TEXT	SEGMENT
__Right$ = 8						; size = 4
??9?$_Vector_const_iterator@V?$_Vector_val@UWeaponInfo@@V?$allocator@UWeaponInfo@@@std@@@std@@@std@@QBE_NABV01@@Z PROC ; std::_Vector_const_iterator<std::_Vector_val<WeaponInfo,std::allocator<WeaponInfo> > >::operator!=, COMDAT
; _this$ = ecx

; 207  : 		{	// test for iterator inequality

  00000	55		 push	 ebp
  00001	8b ec		 mov	 ebp, esp

; 208  : 		return (!(*this == _Right));

  00003	8b 01		 mov	 eax, DWORD PTR [ecx]
  00005	8b 55 08	 mov	 edx, DWORD PTR __Right$[ebp]
  00008	33 c9		 xor	 ecx, ecx
  0000a	3b 02		 cmp	 eax, DWORD PTR [edx]
  0000c	0f 95 c0	 setne	 al

; 209  : 		}

  0000f	5d		 pop	 ebp
  00010	c2 04 00	 ret	 4
??9?$_Vector_const_iterator@V?$_Vector_val@UWeaponInfo@@V?$allocator@UWeaponInfo@@@std@@@std@@@std@@QBE_NABV01@@Z ENDP ; std::_Vector_const_iterator<std::_Vector_val<WeaponInfo,std::allocator<WeaponInfo> > >::operator!=
_TEXT	ENDS
PUBLIC	??9?$_Vector_const_iterator@V?$_Vector_val@UForceInfo@@V?$allocator@UForceInfo@@@std@@@std@@@std@@QBE_NABV01@@Z ; std::_Vector_const_iterator<std::_Vector_val<ForceInfo,std::allocator<ForceInfo> > >::operator!=
; Function compile flags: /Ogsp
;	COMDAT ??9?$_Vector_const_iterator@V?$_Vector_val@UForceInfo@@V?$allocator@UForceInfo@@@std@@@std@@@std@@QBE_NABV01@@Z
_TEXT	SEGMENT
__Right$ = 8						; size = 4
??9?$_Vector_const_iterator@V?$_Vector_val@UForceInfo@@V?$allocator@UForceInfo@@@std@@@std@@@std@@QBE_NABV01@@Z PROC ; std::_Vector_const_iterator<std::_Vector_val<ForceInfo,std::allocator<ForceInfo> > >::operator!=, COMDAT
; _this$ = ecx

; 207  : 		{	// test for iterator inequality

  00000	55		 push	 ebp
  00001	8b ec		 mov	 ebp, esp

; 208  : 		return (!(*this == _Right));

  00003	8b 01		 mov	 eax, DWORD PTR [ecx]
  00005	8b 55 08	 mov	 edx, DWORD PTR __Right$[ebp]
  00008	33 c9		 xor	 ecx, ecx
  0000a	3b 02		 cmp	 eax, DWORD PTR [edx]
  0000c	0f 95 c0	 setne	 al

; 209  : 		}

  0000f	5d		 pop	 ebp
  00010	c2 04 00	 ret	 4
??9?$_Vector_const_iterator@V?$_Vector_val@UForceInfo@@V?$allocator@UForceInfo@@@std@@@std@@@std@@QBE_NABV01@@Z ENDP ; std::_Vector_const_iterator<std::_Vector_val<ForceInfo,std::allocator<ForceInfo> > >::operator!=
_TEXT	ENDS
PUBLIC	??$_Dest_val@V?$allocator@UForceInfo@@@std@@UForceInfo@@@std@@YAXAAV?$allocator@UForceInfo@@@0@PAUForceInfo@@@Z ; std::_Dest_val<std::allocator<ForceInfo>,ForceInfo>
; Function compile flags: /Ogsp
; File c:\program files (x86)\microsoft visual studio 10.0\vc\include\xmemory
;	COMDAT ??$_Dest_val@V?$allocator@UForceInfo@@@std@@UForceInfo@@@std@@YAXAAV?$allocator@UForceInfo@@@0@PAUForceInfo@@@Z
_TEXT	SEGMENT
__Alval$ = 8						; size = 4
__Pdest$ = 12						; size = 4
??$_Dest_val@V?$allocator@UForceInfo@@@std@@UForceInfo@@@std@@YAXAAV?$allocator@UForceInfo@@@0@PAUForceInfo@@@Z PROC ; std::_Dest_val<std::allocator<ForceInfo>,ForceInfo>, COMDAT

; 287  : 	_Alval.destroy(_Pdest);
; 288  : 	}

  00000	c3		 ret	 0
??$_Dest_val@V?$allocator@UForceInfo@@@std@@UForceInfo@@@std@@YAXAAV?$allocator@UForceInfo@@@0@PAUForceInfo@@@Z ENDP ; std::_Dest_val<std::allocator<ForceInfo>,ForceInfo>
_TEXT	ENDS
PUBLIC	?destroy@?$allocator@UWeaponInfo@@@std@@QAEXPAUWeaponInfo@@@Z ; std::allocator<WeaponInfo>::destroy
; Function compile flags: /Ogsp
;	COMDAT ?destroy@?$allocator@UWeaponInfo@@@std@@QAEXPAUWeaponInfo@@@Z
_TEXT	SEGMENT
__Ptr$ = 8						; size = 4
?destroy@?$allocator@UWeaponInfo@@@std@@QAEXPAUWeaponInfo@@@Z PROC ; std::allocator<WeaponInfo>::destroy, COMDAT
; _this$ = ecx

; 212  : 		{	// destroy object at _Ptr

  00000	55		 push	 ebp
  00001	8b ec		 mov	 ebp, esp

; 213  : 		_Destroy(_Ptr);

  00003	8b 4d 08	 mov	 ecx, DWORD PTR __Ptr$[ebp]
  00006	83 c1 08	 add	 ecx, 8
  00009	ff 15 00 00 00
	00		 call	 DWORD PTR __imp_??1ioHashString@@QAE@XZ

; 214  : 		}

  0000f	5d		 pop	 ebp
  00010	c2 04 00	 ret	 4
?destroy@?$allocator@UWeaponInfo@@@std@@QAEXPAUWeaponInfo@@@Z ENDP ; std::allocator<WeaponInfo>::destroy
_TEXT	ENDS
PUBLIC	?CheckOperation@ioKeyMarkAttackBuff@@IAE_NPAVioBaseChar@@M@Z ; ioKeyMarkAttackBuff::CheckOperation
EXTRN	?CheckCallingAreaWeapon@ioBuff@@IAEXXZ:PROC	; ioBuff::CheckCallingAreaWeapon
EXTRN	?CheckCallingProcess@ioBuff@@IAEXXZ:PROC	; ioBuff::CheckCallingProcess
EXTRN	?ReduceCurSkillGaugeBySkill@ioBaseChar@@QAEMABVioHashString@@M@Z:PROC ; ioBaseChar::ReduceCurSkillGaugeBySkill
EXTRN	?SetReserveEndBuff@ioBuff@@QAEXXZ:PROC		; ioBuff::SetReserveEndBuff
EXTRN	?IsRightOwnerItem@ioBuff@@IAE_NXZ:PROC		; ioBuff::IsRightOwnerItem
EXTRN	?GetObjectA@ioBaseChar@@QBEPAVioObjectItem@@XZ:PROC ; ioBaseChar::GetObjectA
EXTRN	?GetCurTicTime@ioBuff@@IAEHXZ:PROC		; ioBuff::GetCurTicTime
EXTRN	?GetCurTicGap@ioBuff@@IAEHXZ:PROC		; ioBuff::GetCurTicGap
EXTRN	?GetCurTicGauge@ioBuff@@IAEMXZ:PROC		; ioBuff::GetCurTicGauge
EXTRN	?ProcessBuff@ioBuff@@UAEXM@Z:PROC		; ioBuff::ProcessBuff
; Function compile flags: /Ogsp
; File d:\lost saga for developer\youtube\tutorial\source\src\lsclient\iokeymarkattackbuff.cpp
;	COMDAT ?CheckOperation@ioKeyMarkAttackBuff@@IAE_NPAVioBaseChar@@M@Z
_TEXT	SEGMENT
_value$540984 = -4					; size = 4
_pChar$ = 8						; size = 4
_value$541002 = 11					; size = 1
_fCurTicGauge$530784 = 12				; size = 4
_fTimePerSec$ = 12					; size = 4
?CheckOperation@ioKeyMarkAttackBuff@@IAE_NPAVioBaseChar@@M@Z PROC ; ioKeyMarkAttackBuff::CheckOperation, COMDAT
; _this$ = ecx

; 214  : {

  00000	55		 push	 ebp
  00001	8b ec		 mov	 ebp, esp
  00003	51		 push	 ecx

; 215  : 	if ( !pChar )

  00004	83 7d 08 00	 cmp	 DWORD PTR _pChar$[ebp], 0
  00008	56		 push	 esi
  00009	8b f1		 mov	 esi, ecx
  0000b	75 07		 jne	 SHORT $LN12@CheckOpera

; 216  : 		return false;

  0000d	32 c0		 xor	 al, al
  0000f	e9 20 01 00 00	 jmp	 $LN13@CheckOpera
$LN12@CheckOpera:

; 217  : 	switch( m_iOperationType )

  00014	8b 86 d0 03 00
	00		 mov	 eax, DWORD PTR [esi+976]
  0001a	83 e8 00	 sub	 eax, 0
  0001d	53		 push	 ebx
  0001e	57		 push	 edi
  0001f	0f 84 f6 00 00
	00		 je	 $LN1@CheckOpera
  00025	48		 dec	 eax
  00026	74 0a		 je	 SHORT $LN2@CheckOpera
  00028	48		 dec	 eax
  00029	74 1c		 je	 SHORT $LN9@CheckOpera
  0002b	48		 dec	 eax
  0002c	0f 85 ee 00 00
	00		 jne	 $LN10@CheckOpera
$LN2@CheckOpera:

; 249  : 	case OT_DELAY:
; 250  : 	case OT_ACTIVE:
; 251  : 		ioBuff::ProcessBuff( fTimePerSec );

  00032	f3 0f 10 45 0c	 movss	 xmm0, DWORD PTR _fTimePerSec$[ebp]
  00037	51		 push	 ecx
  00038	f3 0f 11 04 24	 movss	 DWORD PTR [esp], xmm0
  0003d	e8 00 00 00 00	 call	 ?ProcessBuff@ioBuff@@UAEXM@Z ; ioBuff::ProcessBuff

; 252  : 		break;

  00042	e9 d9 00 00 00	 jmp	 $LN10@CheckOpera
$LN9@CheckOpera:

; 218  : 	{
; 219  : 	case OT_SWITCH:
; 220  : 		{
; 221  : 			DWORD dwCurTime = FRAMEGETTIME();

  00047	ff 15 00 00 00
	00		 call	 DWORD PTR __imp_?GetSingleton@ioFrameTimer@@SAAAV1@XZ
  0004d	8b c8		 mov	 ecx, eax
  0004f	ff 15 00 00 00
	00		 call	 DWORD PTR __imp_?GetLoopSec@ioFrameTimer@@QBEKXZ

; 222  : 			float fCurTicGauge = GetCurTicGauge();

  00055	8b ce		 mov	 ecx, esi
  00057	8b d8		 mov	 ebx, eax
  00059	e8 00 00 00 00	 call	 ?GetCurTicGauge@ioBuff@@IAEMXZ ; ioBuff::GetCurTicGauge
  0005e	d9 5d 0c	 fstp	 DWORD PTR _fCurTicGauge$530784[ebp]

; 223  : 			int iTickGap = GetCurTicGap();

  00061	8b ce		 mov	 ecx, esi
  00063	e8 00 00 00 00	 call	 ?GetCurTicGap@ioBuff@@IAEHXZ ; ioBuff::GetCurTicGap

; 224  : 			int iCurTicTime = GetCurTicTime();

  00068	8b ce		 mov	 ecx, esi
  0006a	8b f8		 mov	 edi, eax
  0006c	e8 00 00 00 00	 call	 ?GetCurTicTime@ioBuff@@IAEHXZ ; ioBuff::GetCurTicTime

; 225  : 			if( iTickGap >= iCurTicTime )

  00071	3b f8		 cmp	 edi, eax
  00073	0f 8c 99 00 00
	00		 jl	 $LN3@CheckOpera

; 226  : 			{
; 227  : 				m_dwCheckTime = dwCurTime - ( iTickGap - iCurTicTime );

  00079	2b c7		 sub	 eax, edi
  0007b	03 c3		 add	 eax, ebx
  0007d	89 45 fc	 mov	 DWORD PTR _value$540984[ebp], eax
  00080	8d 45 fc	 lea	 eax, DWORD PTR _value$540984[ebp]
  00083	50		 push	 eax
  00084	8d 8e 3c 03 00
	00		 lea	 ecx, DWORD PTR [esi+828]
  0008a	e8 00 00 00 00	 call	 ?EncryptValueToPool@?$CEncrypt@K@@AAEXPBD@Z ; CEncrypt<unsigned long>::EncryptValueToPool

; 228  : 
; 229  : 				ioObjectItem *pObject = pChar->GetObject();

  0008f	8b 4d 08	 mov	 ecx, DWORD PTR _pChar$[ebp]
  00092	e8 00 00 00 00	 call	 ?GetObjectA@ioBaseChar@@QBEPAVioObjectItem@@XZ ; ioBaseChar::GetObjectA
  00097	8b f8		 mov	 edi, eax

; 230  : 				if( pObject && !pObject->EnableReduceGaugeOnSwitchBuff() && pObject->GetItemCode() == m_dwCreateWeaponItemCode )

  00099	85 ff		 test	 edi, edi
  0009b	74 19		 je	 SHORT $LN7@CheckOpera
  0009d	8b 07		 mov	 eax, DWORD PTR [edi]
  0009f	8b cf		 mov	 ecx, edi
  000a1	ff 90 00 03 00
	00		 call	 DWORD PTR [eax+768]
  000a7	84 c0		 test	 al, al
  000a9	75 0b		 jne	 SHORT $LN7@CheckOpera
  000ab	8b 47 38	 mov	 eax, DWORD PTR [edi+56]
  000ae	3b 86 98 02 00
	00		 cmp	 eax, DWORD PTR [esi+664]
  000b4	74 6a		 je	 SHORT $LN10@CheckOpera
$LN7@CheckOpera:

; 231  : 					break;
; 232  : 
; 233  : 				if( fCurTicGauge != 0.0f )

  000b6	f3 0f 10 45 0c	 movss	 xmm0, DWORD PTR _fCurTicGauge$530784[ebp]
  000bb	0f 2e 05 00 00
	00 00		 ucomiss xmm0, DWORD PTR __real@00000000
  000c2	9f		 lahf
  000c3	f6 c4 44	 test	 ah, 68			; 00000044H
  000c6	7b 4a		 jnp	 SHORT $LN3@CheckOpera

; 234  : 				{
; 235  : 					if( !IsRightOwnerItem() )

  000c8	8b ce		 mov	 ecx, esi
  000ca	e8 00 00 00 00	 call	 ?IsRightOwnerItem@ioBuff@@IAE_NXZ ; ioBuff::IsRightOwnerItem
  000cf	84 c0		 test	 al, al
  000d1	75 07		 jne	 SHORT $LN5@CheckOpera

; 236  : 						SetReserveEndBuff();

  000d3	8b ce		 mov	 ecx, esi
  000d5	e8 00 00 00 00	 call	 ?SetReserveEndBuff@ioBuff@@QAEXXZ ; ioBuff::SetReserveEndBuff
$LN5@CheckOpera:

; 237  : 
; 238  : 					if( pChar->ReduceCurSkillGaugeBySkill( m_ItemName, fCurTicGauge ) <= 0.0f )

  000da	f3 0f 10 45 0c	 movss	 xmm0, DWORD PTR _fCurTicGauge$530784[ebp]
  000df	51		 push	 ecx
  000e0	8b 4d 08	 mov	 ecx, DWORD PTR _pChar$[ebp]
  000e3	8d 86 44 02 00
	00		 lea	 eax, DWORD PTR [esi+580]
  000e9	f3 0f 11 04 24	 movss	 DWORD PTR [esp], xmm0
  000ee	50		 push	 eax
  000ef	e8 00 00 00 00	 call	 ?ReduceCurSkillGaugeBySkill@ioBaseChar@@QAEMABVioHashString@@M@Z ; ioBaseChar::ReduceCurSkillGaugeBySkill
  000f4	d9 ee		 fldz
  000f6	df f1		 fcomip	 ST(1)
  000f8	dd d8		 fstp	 ST(0)
  000fa	72 16		 jb	 SHORT $LN3@CheckOpera

; 239  : 					{
; 240  : 						if( m_pOwner->GetState() != CS_BUFF_ACTION )

  000fc	8b 86 74 02 00
	00		 mov	 eax, DWORD PTR [esi+628]
  00102	80 b8 10 03 00
	00 70		 cmp	 BYTE PTR [eax+784], 112	; 00000070H
  00109	74 07		 je	 SHORT $LN3@CheckOpera

; 241  : 							SetReserveEndBuff();

  0010b	8b ce		 mov	 ecx, esi
  0010d	e8 00 00 00 00	 call	 ?SetReserveEndBuff@ioBuff@@QAEXXZ ; ioBuff::SetReserveEndBuff
$LN3@CheckOpera:

; 242  : 					}
; 243  : 				}
; 244  : 			}
; 245  : 			CheckCallingProcess();

  00112	8b ce		 mov	 ecx, esi
  00114	e8 00 00 00 00	 call	 ?CheckCallingProcess@ioBuff@@IAEXXZ ; ioBuff::CheckCallingProcess

; 246  : 		}
; 247  : 		
; 248  : 		break;

  00119	eb 05		 jmp	 SHORT $LN10@CheckOpera
$LN1@CheckOpera:

; 253  : 	case OT_PASSIVE:
; 254  : 		CheckCallingAreaWeapon();

  0011b	e8 00 00 00 00	 call	 ?CheckCallingAreaWeapon@ioBuff@@IAEXXZ ; ioBuff::CheckCallingAreaWeapon
$LN10@CheckOpera:

; 255  : 		break;
; 256  : 	}
; 257  : 
; 258  : 	return IsLive();

  00120	8d 45 0b	 lea	 eax, DWORD PTR _value$541002[ebp]
  00123	50		 push	 eax
  00124	8d 8e 70 07 00
	00		 lea	 ecx, DWORD PTR [esi+1904]
  0012a	e8 00 00 00 00	 call	 ?DecryptValueToPool@?$CEncrypt@_N@@QAEXPA_N@Z ; CEncrypt<bool>::DecryptValueToPool
  0012f	8a 45 0b	 mov	 al, BYTE PTR _value$541002[ebp]
  00132	5f		 pop	 edi
  00133	5b		 pop	 ebx
$LN13@CheckOpera:
  00134	5e		 pop	 esi

; 259  : }

  00135	c9		 leave
  00136	c2 08 00	 ret	 8
?CheckOperation@ioKeyMarkAttackBuff@@IAE_NPAVioBaseChar@@M@Z ENDP ; ioKeyMarkAttackBuff::CheckOperation
_TEXT	ENDS
PUBLIC	?CheckEnableAttackState@ioKeyMarkAttackBuff@@IAE_NPAVioBaseChar@@PAVioPlayStage@@@Z ; ioKeyMarkAttackBuff::CheckEnableAttackState
; Function compile flags: /Ogsp
;	COMDAT ?CheckEnableAttackState@ioKeyMarkAttackBuff@@IAE_NPAVioBaseChar@@PAVioPlayStage@@@Z
_TEXT	SEGMENT
_pChar$ = 8						; size = 4
_pStage$ = 12						; size = 4
?CheckEnableAttackState@ioKeyMarkAttackBuff@@IAE_NPAVioBaseChar@@PAVioPlayStage@@@Z PROC ; ioKeyMarkAttackBuff::CheckEnableAttackState, COMDAT
; _this$ = ecx

; 574  : {

  00000	55		 push	 ebp
  00001	8b ec		 mov	 ebp, esp

; 575  : 	if ( !pChar || !pStage )

  00003	83 7d 08 00	 cmp	 DWORD PTR _pChar$[ebp], 0
  00007	56		 push	 esi
  00008	8b f1		 mov	 esi, ecx
  0000a	74 34		 je	 SHORT $LN4@CheckEnabl@3
  0000c	83 7d 0c 00	 cmp	 DWORD PTR _pStage$[ebp], 0
  00010	74 2e		 je	 SHORT $LN4@CheckEnabl@3

; 577  : 
; 578  : 	if ( m_iAttakMaxCount <= m_iAttackCount )

  00012	8b 86 e0 0a 00
	00		 mov	 eax, DWORD PTR [esi+2784]
  00018	3b 86 dc 0a 00
	00		 cmp	 eax, DWORD PTR [esi+2780]

; 579  : 		return false;

  0001e	7e 20		 jle	 SHORT $LN4@CheckEnabl@3

; 580  : 
; 581  : 	if ( !CheckEnableOwnerState( pChar, pStage ) )

  00020	ff 75 0c	 push	 DWORD PTR _pStage$[ebp]
  00023	ff 75 08	 push	 DWORD PTR _pChar$[ebp]
  00026	e8 00 00 00 00	 call	 ?CheckEnableOwnerState@ioKeyMarkAttackBuff@@IAE_NPAVioBaseChar@@PAVioPlayStage@@@Z ; ioKeyMarkAttackBuff::CheckEnableOwnerState
  0002b	84 c0		 test	 al, al

; 582  : 		return false;

  0002d	74 11		 je	 SHORT $LN4@CheckEnabl@3

; 583  : 
; 584  : 	if( !CheckEnableTargetState( pStage ) )

  0002f	ff 75 0c	 push	 DWORD PTR _pStage$[ebp]
  00032	8b ce		 mov	 ecx, esi
  00034	e8 00 00 00 00	 call	 ?CheckEnableTargetState@ioKeyMarkAttackBuff@@IAE_NPAVioPlayStage@@@Z ; ioKeyMarkAttackBuff::CheckEnableTargetState
  00039	84 c0		 test	 al, al
  0003b	0f 95 c0	 setne	 al

; 585  : 		return false;
; 586  : 
; 587  : 	return true;

  0003e	eb 02		 jmp	 SHORT $LN6@CheckEnabl@3
$LN4@CheckEnabl@3:

; 576  : 		return false;

  00040	32 c0		 xor	 al, al
$LN6@CheckEnabl@3:
  00042	5e		 pop	 esi

; 588  : }

  00043	5d		 pop	 ebp
  00044	c2 08 00	 ret	 8
?CheckEnableAttackState@ioKeyMarkAttackBuff@@IAE_NPAVioBaseChar@@PAVioPlayStage@@@Z ENDP ; ioKeyMarkAttackBuff::CheckEnableAttackState
_TEXT	ENDS
PUBLIC	??$_Cons_val@V?$allocator@UtagBaseCharDistanceSq@@@std@@UtagBaseCharDistanceSq@@ABU3@@std@@YAXAAV?$allocator@UtagBaseCharDistanceSq@@@0@PAUtagBaseCharDistanceSq@@ABU2@@Z ; std::_Cons_val<std::allocator<tagBaseCharDistanceSq>,tagBaseCharDistanceSq,tagBaseCharDistanceSq const &>
; Function compile flags: /Ogsp
; File c:\program files (x86)\microsoft visual studio 10.0\vc\include\xmemory
;	COMDAT ??$_Cons_val@V?$allocator@UtagBaseCharDistanceSq@@@std@@UtagBaseCharDistanceSq@@ABU3@@std@@YAXAAV?$allocator@UtagBaseCharDistanceSq@@@0@PAUtagBaseCharDistanceSq@@ABU2@@Z
_TEXT	SEGMENT
__Alval$ = 8						; size = 4
__Pdest$ = 12						; size = 4
__Src$ = 16						; size = 4
??$_Cons_val@V?$allocator@UtagBaseCharDistanceSq@@@std@@UtagBaseCharDistanceSq@@ABU3@@std@@YAXAAV?$allocator@UtagBaseCharDistanceSq@@@0@PAUtagBaseCharDistanceSq@@ABU2@@Z PROC ; std::_Cons_val<std::allocator<tagBaseCharDistanceSq>,tagBaseCharDistanceSq,tagBaseCharDistanceSq const &>, COMDAT

; 279  : 	{	// construct using allocator

  00000	55		 push	 ebp
  00001	8b ec		 mov	 ebp, esp

; 280  : 	_Alval.construct(_Pdest, _STD forward<_Ty2>(_Src));

  00003	ff 75 10	 push	 DWORD PTR __Src$[ebp]
  00006	ff 75 0c	 push	 DWORD PTR __Pdest$[ebp]
  00009	e8 00 00 00 00	 call	 ??$_Construct@UtagBaseCharDistanceSq@@ABU1@@std@@YAXPAUtagBaseCharDistanceSq@@ABU1@@Z ; std::_Construct<tagBaseCharDistanceSq,tagBaseCharDistanceSq const &>
  0000e	59		 pop	 ecx
  0000f	59		 pop	 ecx

; 281  : 	}

  00010	5d		 pop	 ebp
  00011	c3		 ret	 0
??$_Cons_val@V?$allocator@UtagBaseCharDistanceSq@@@std@@UtagBaseCharDistanceSq@@ABU3@@std@@YAXAAV?$allocator@UtagBaseCharDistanceSq@@@0@PAUtagBaseCharDistanceSq@@ABU2@@Z ENDP ; std::_Cons_val<std::allocator<tagBaseCharDistanceSq>,tagBaseCharDistanceSq,tagBaseCharDistanceSq const &>
_TEXT	ENDS
PUBLIC	??$_Uninit_copy@V?$_Vector_const_iterator@V?$_Vector_val@UForceInfo@@V?$allocator@UForceInfo@@@std@@@std@@@std@@PAUForceInfo@@V?$allocator@UForceInfo@@@2@@std@@YAPAUForceInfo@@V?$_Vector_const_iterator@V?$_Vector_val@UForceInfo@@V?$allocator@UForceInfo@@@std@@@std@@@0@0PAU1@AAV?$allocator@UForceInfo@@@0@U_Nonscalar_ptr_iterator_tag@0@@Z ; std::_Uninit_copy<std::_Vector_const_iterator<std::_Vector_val<ForceInfo,std::allocator<ForceInfo> > >,ForceInfo *,std::allocator<ForceInfo> >
; Function compile flags: /Ogsp
; File c:\program files (x86)\microsoft visual studio 10.0\vc\include\memory
;	COMDAT ??$_Uninit_copy@V?$_Vector_const_iterator@V?$_Vector_val@UForceInfo@@V?$allocator@UForceInfo@@@std@@@std@@@std@@PAUForceInfo@@V?$allocator@UForceInfo@@@2@@std@@YAPAUForceInfo@@V?$_Vector_const_iterator@V?$_Vector_val@UForceInfo@@V?$allocator@UForceInfo@@@std@@@std@@@0@0PAU1@AAV?$allocator@UForceInfo@@@0@U_Nonscalar_ptr_iterator_tag@0@@Z
_TEXT	SEGMENT
__First$ = 8						; size = 4
__Last$ = 12						; size = 4
__Dest$ = 16						; size = 4
__Al$ = 20						; size = 4
___formal$ = 24						; size = 1
??$_Uninit_copy@V?$_Vector_const_iterator@V?$_Vector_val@UForceInfo@@V?$allocator@UForceInfo@@@std@@@std@@@std@@PAUForceInfo@@V?$allocator@UForceInfo@@@2@@std@@YAPAUForceInfo@@V?$_Vector_const_iterator@V?$_Vector_val@UForceInfo@@V?$allocator@UForceInfo@@@std@@@std@@@0@0PAU1@AAV?$allocator@UForceInfo@@@0@U_Nonscalar_ptr_iterator_tag@0@@Z PROC ; std::_Uninit_copy<std::_Vector_const_iterator<std::_Vector_val<ForceInfo,std::allocator<ForceInfo> > >,ForceInfo *,std::allocator<ForceInfo> >, COMDAT

; 369  : 	{	// copy [_First, _Last) to raw _Dest, using _Al, arbitrary type

  00000	55		 push	 ebp
  00001	8b ec		 mov	 ebp, esp

; 370  : 	_DEBUG_RANGE(_First, _Last);
; 371  : 	_DEBUG_POINTER(_Dest);
; 372  : 	_FwdIt _Next = _Dest;
; 373  : 
; 374  : 	_TRY_BEGIN
; 375  : 	for (; _First != _Last; ++_Dest, ++_First)

  00003	eb 19		 jmp	 SHORT $LN35@Uninit_cop
$LL14@Uninit_cop:

; 376  : 		_Cons_val(_Al, _Dest, *_First);

  00005	ff 75 08	 push	 DWORD PTR __First$[ebp]
  00008	ff 75 10	 push	 DWORD PTR __Dest$[ebp]
  0000b	ff 75 14	 push	 DWORD PTR __Al$[ebp]
  0000e	e8 00 00 00 00	 call	 ??$_Cons_val@V?$allocator@UForceInfo@@@std@@UForceInfo@@ABU3@@std@@YAXAAV?$allocator@UForceInfo@@@0@PAUForceInfo@@ABU2@@Z ; std::_Cons_val<std::allocator<ForceInfo>,ForceInfo,ForceInfo const &>
  00013	83 45 10 0c	 add	 DWORD PTR __Dest$[ebp], 12 ; 0000000cH
  00017	83 c4 0c	 add	 esp, 12			; 0000000cH
  0001a	83 45 08 0c	 add	 DWORD PTR __First$[ebp], 12 ; 0000000cH
$LN35@Uninit_cop:

; 370  : 	_DEBUG_RANGE(_First, _Last);
; 371  : 	_DEBUG_POINTER(_Dest);
; 372  : 	_FwdIt _Next = _Dest;
; 373  : 
; 374  : 	_TRY_BEGIN
; 375  : 	for (; _First != _Last; ++_Dest, ++_First)

  0001e	8b 45 08	 mov	 eax, DWORD PTR __First$[ebp]
  00021	3b 45 0c	 cmp	 eax, DWORD PTR __Last$[ebp]
  00024	75 df		 jne	 SHORT $LL14@Uninit_cop

; 377  : 	_CATCH_ALL
; 378  : 	for (; _Next != _Dest; ++_Next)
; 379  : 		_Dest_val(_Al, _Next);
; 380  : 	_RERAISE;
; 381  : 	_CATCH_END
; 382  : 	return (_Dest);

  00026	8b 45 10	 mov	 eax, DWORD PTR __Dest$[ebp]

; 383  : 	}

  00029	5d		 pop	 ebp
  0002a	c3		 ret	 0
??$_Uninit_copy@V?$_Vector_const_iterator@V?$_Vector_val@UForceInfo@@V?$allocator@UForceInfo@@@std@@@std@@@std@@PAUForceInfo@@V?$allocator@UForceInfo@@@2@@std@@YAPAUForceInfo@@V?$_Vector_const_iterator@V?$_Vector_val@UForceInfo@@V?$allocator@UForceInfo@@@std@@@std@@@0@0PAU1@AAV?$allocator@UForceInfo@@@0@U_Nonscalar_ptr_iterator_tag@0@@Z ENDP ; std::_Uninit_copy<std::_Vector_const_iterator<std::_Vector_val<ForceInfo,std::allocator<ForceInfo> > >,ForceInfo *,std::allocator<ForceInfo> >
_TEXT	ENDS
PUBLIC	??$_Dest_val@V?$allocator@UtagBaseCharDistanceSq@@@std@@UtagBaseCharDistanceSq@@@std@@YAXAAV?$allocator@UtagBaseCharDistanceSq@@@0@PAUtagBaseCharDistanceSq@@@Z ; std::_Dest_val<std::allocator<tagBaseCharDistanceSq>,tagBaseCharDistanceSq>
; Function compile flags: /Ogsp
; File c:\program files (x86)\microsoft visual studio 10.0\vc\include\xmemory
;	COMDAT ??$_Dest_val@V?$allocator@UtagBaseCharDistanceSq@@@std@@UtagBaseCharDistanceSq@@@std@@YAXAAV?$allocator@UtagBaseCharDistanceSq@@@0@PAUtagBaseCharDistanceSq@@@Z
_TEXT	SEGMENT
__Alval$ = 8						; size = 4
__Pdest$ = 12						; size = 4
??$_Dest_val@V?$allocator@UtagBaseCharDistanceSq@@@std@@UtagBaseCharDistanceSq@@@std@@YAXAAV?$allocator@UtagBaseCharDistanceSq@@@0@PAUtagBaseCharDistanceSq@@@Z PROC ; std::_Dest_val<std::allocator<tagBaseCharDistanceSq>,tagBaseCharDistanceSq>, COMDAT

; 286  : 	{	// destroy using allocator

  00000	55		 push	 ebp
  00001	8b ec		 mov	 ebp, esp

; 287  : 	_Alval.destroy(_Pdest);

  00003	8b 4d 0c	 mov	 ecx, DWORD PTR __Pdest$[ebp]

; 288  : 	}

  00006	5d		 pop	 ebp

; 287  : 	_Alval.destroy(_Pdest);

  00007	ff 25 00 00 00
	00		 jmp	 DWORD PTR __imp_??1ioHashString@@QAE@XZ
??$_Dest_val@V?$allocator@UtagBaseCharDistanceSq@@@std@@UtagBaseCharDistanceSq@@@std@@YAXAAV?$allocator@UtagBaseCharDistanceSq@@@0@PAUtagBaseCharDistanceSq@@@Z ENDP ; std::_Dest_val<std::allocator<tagBaseCharDistanceSq>,tagBaseCharDistanceSq>
_TEXT	ENDS
PUBLIC	??$_Median@PAUtagBaseCharDistanceSq@@VBaseCharDistanceSqSort2@@@std@@YAXPAUtagBaseCharDistanceSq@@00VBaseCharDistanceSqSort2@@@Z ; std::_Median<tagBaseCharDistanceSq *,BaseCharDistanceSqSort2>
; Function compile flags: /Ogsp
; File c:\program files (x86)\microsoft visual studio 10.0\vc\include\algorithm
;	COMDAT ??$_Median@PAUtagBaseCharDistanceSq@@VBaseCharDistanceSqSort2@@@std@@YAXPAUtagBaseCharDistanceSq@@00VBaseCharDistanceSqSort2@@@Z
_TEXT	SEGMENT
tv200 = 8						; size = 4
__First$ = 8						; size = 4
__Mid$ = 12						; size = 4
tv203 = 16						; size = 4
__Last$ = 16						; size = 4
__Pred$ = 20						; size = 1
??$_Median@PAUtagBaseCharDistanceSq@@VBaseCharDistanceSqSort2@@@std@@YAXPAUtagBaseCharDistanceSq@@00VBaseCharDistanceSqSort2@@@Z PROC ; std::_Median<tagBaseCharDistanceSq *,BaseCharDistanceSqSort2>, COMDAT

; 3695 : 	{	// sort median element to middle

  00000	55		 push	 ebp
  00001	8b ec		 mov	 ebp, esp

; 3696 : 	if (40 < _Last - _First)

  00003	8b 4d 08	 mov	 ecx, DWORD PTR __First$[ebp]
  00006	57		 push	 edi
  00007	8b 7d 10	 mov	 edi, DWORD PTR __Last$[ebp]
  0000a	8b c7		 mov	 eax, edi
  0000c	2b c1		 sub	 eax, ecx
  0000e	c1 f8 05	 sar	 eax, 5
  00011	83 f8 28	 cmp	 eax, 40			; 00000028H
  00014	7e 6a		 jle	 SHORT $LN2@Median

; 3697 : 		{	// median of nine
; 3698 : 		size_t _Step = (_Last - _First + 1) / 8;

  00016	40		 inc	 eax
  00017	99		 cdq
  00018	83 e2 07	 and	 edx, 7
  0001b	53		 push	 ebx
  0001c	03 c2		 add	 eax, edx
  0001e	c1 f8 03	 sar	 eax, 3
  00021	56		 push	 esi

; 3699 : 		_Med3(_First, _First + _Step, _First + 2 * _Step, _Pred);

  00022	ff 75 14	 push	 DWORD PTR __Pred$[ebp]
  00025	8b d8		 mov	 ebx, eax
  00027	8b f0		 mov	 esi, eax
  00029	c1 e3 06	 shl	 ebx, 6
  0002c	8d 14 0b	 lea	 edx, DWORD PTR [ebx+ecx]
  0002f	c1 e6 05	 shl	 esi, 5
  00032	8d 04 0e	 lea	 eax, DWORD PTR [esi+ecx]
  00035	52		 push	 edx
  00036	50		 push	 eax
  00037	51		 push	 ecx
  00038	89 45 08	 mov	 DWORD PTR tv200[ebp], eax
  0003b	e8 00 00 00 00	 call	 ??$_Med3@PAUtagBaseCharDistanceSq@@VBaseCharDistanceSqSort2@@@std@@YAXPAUtagBaseCharDistanceSq@@00VBaseCharDistanceSqSort2@@@Z ; std::_Med3<tagBaseCharDistanceSq *,BaseCharDistanceSqSort2>

; 3700 : 		_Med3(_Mid - _Step, _Mid, _Mid + _Step, _Pred);

  00040	ff 75 14	 push	 DWORD PTR __Pred$[ebp]
  00043	8b 45 0c	 mov	 eax, DWORD PTR __Mid$[ebp]
  00046	8d 0c 06	 lea	 ecx, DWORD PTR [esi+eax]
  00049	51		 push	 ecx
  0004a	50		 push	 eax
  0004b	2b c6		 sub	 eax, esi
  0004d	50		 push	 eax
  0004e	e8 00 00 00 00	 call	 ??$_Med3@PAUtagBaseCharDistanceSq@@VBaseCharDistanceSqSort2@@@std@@YAXPAUtagBaseCharDistanceSq@@00VBaseCharDistanceSqSort2@@@Z ; std::_Med3<tagBaseCharDistanceSq *,BaseCharDistanceSqSort2>

; 3701 : 		_Med3(_Last - 2 * _Step, _Last - _Step, _Last, _Pred);

  00053	ff 75 14	 push	 DWORD PTR __Pred$[ebp]
  00056	89 7d 10	 mov	 DWORD PTR tv203[ebp], edi
  00059	29 75 10	 sub	 DWORD PTR tv203[ebp], esi
  0005c	57		 push	 edi
  0005d	ff 75 10	 push	 DWORD PTR tv203[ebp]
  00060	2b fb		 sub	 edi, ebx
  00062	57		 push	 edi
  00063	e8 00 00 00 00	 call	 ??$_Med3@PAUtagBaseCharDistanceSq@@VBaseCharDistanceSqSort2@@@std@@YAXPAUtagBaseCharDistanceSq@@00VBaseCharDistanceSqSort2@@@Z ; std::_Med3<tagBaseCharDistanceSq *,BaseCharDistanceSqSort2>

; 3702 : 		_Med3(_First + _Step, _Mid, _Last - _Step, _Pred);

  00068	ff 75 14	 push	 DWORD PTR __Pred$[ebp]
  0006b	ff 75 10	 push	 DWORD PTR tv203[ebp]
  0006e	ff 75 0c	 push	 DWORD PTR __Mid$[ebp]
  00071	ff 75 08	 push	 DWORD PTR tv200[ebp]
  00074	e8 00 00 00 00	 call	 ??$_Med3@PAUtagBaseCharDistanceSq@@VBaseCharDistanceSqSort2@@@std@@YAXPAUtagBaseCharDistanceSq@@00VBaseCharDistanceSqSort2@@@Z ; std::_Med3<tagBaseCharDistanceSq *,BaseCharDistanceSqSort2>
  00079	83 c4 40	 add	 esp, 64			; 00000040H
  0007c	5e		 pop	 esi
  0007d	5b		 pop	 ebx

; 3703 : 		}
; 3704 : 	else

  0007e	eb 10		 jmp	 SHORT $LN1@Median
$LN2@Median:

; 3705 : 		_Med3(_First, _Mid, _Last, _Pred);

  00080	ff 75 14	 push	 DWORD PTR __Pred$[ebp]
  00083	57		 push	 edi
  00084	ff 75 0c	 push	 DWORD PTR __Mid$[ebp]
  00087	51		 push	 ecx
  00088	e8 00 00 00 00	 call	 ??$_Med3@PAUtagBaseCharDistanceSq@@VBaseCharDistanceSqSort2@@@std@@YAXPAUtagBaseCharDistanceSq@@00VBaseCharDistanceSqSort2@@@Z ; std::_Med3<tagBaseCharDistanceSq *,BaseCharDistanceSqSort2>
  0008d	83 c4 10	 add	 esp, 16			; 00000010H
$LN1@Median:
  00090	5f		 pop	 edi

; 3706 : 	}

  00091	5d		 pop	 ebp
  00092	c3		 ret	 0
??$_Median@PAUtagBaseCharDistanceSq@@VBaseCharDistanceSqSort2@@@std@@YAXPAUtagBaseCharDistanceSq@@00VBaseCharDistanceSqSort2@@@Z ENDP ; std::_Median<tagBaseCharDistanceSq *,BaseCharDistanceSqSort2>
_TEXT	ENDS
PUBLIC	??$_Make_heap@PAUtagBaseCharDistanceSq@@HU1@VBaseCharDistanceSqSort2@@@std@@YAXPAUtagBaseCharDistanceSq@@0VBaseCharDistanceSqSort2@@PAH0@Z ; std::_Make_heap<tagBaseCharDistanceSq *,int,tagBaseCharDistanceSq,BaseCharDistanceSqSort2>
;	COMDAT xdata$x
; File d:\lost saga for developer\youtube\tutorial\source\src\lsclient\iokeymarkattackbuff.cpp
xdata$x	SEGMENT
__unwindtable$??$_Make_heap@PAUtagBaseCharDistanceSq@@HU1@VBaseCharDistanceSqSort2@@@std@@YAXPAUtagBaseCharDistanceSq@@0VBaseCharDistanceSqSort2@@PAH0@Z DD 0ffffffffH
	DD	FLAT:__unwindfunclet$??$_Make_heap@PAUtagBaseCharDistanceSq@@HU1@VBaseCharDistanceSqSort2@@@std@@YAXPAUtagBaseCharDistanceSq@@0VBaseCharDistanceSqSort2@@PAH0@Z$0
__ehfuncinfo$??$_Make_heap@PAUtagBaseCharDistanceSq@@HU1@VBaseCharDistanceSqSort2@@@std@@YAXPAUtagBaseCharDistanceSq@@0VBaseCharDistanceSqSort2@@PAH0@Z DD 019930522H
	DD	01H
	DD	FLAT:__unwindtable$??$_Make_heap@PAUtagBaseCharDistanceSq@@HU1@VBaseCharDistanceSqSort2@@@std@@YAXPAUtagBaseCharDistanceSq@@0VBaseCharDistanceSqSort2@@PAH0@Z
	DD	2 DUP(00H)
	DD	2 DUP(00H)
	DD	00H
	DD	01H
; Function compile flags: /Ogsp
; File c:\program files (x86)\microsoft visual studio 10.0\vc\include\algorithm
xdata$x	ENDS
;	COMDAT ??$_Make_heap@PAUtagBaseCharDistanceSq@@HU1@VBaseCharDistanceSqSort2@@@std@@YAXPAUtagBaseCharDistanceSq@@0VBaseCharDistanceSqSort2@@PAH0@Z
_TEXT	SEGMENT
__Bottom$ = -52						; size = 4
__Val$535051 = -48					; size = 32
__$EHRec$ = -12						; size = 12
__First$ = 8						; size = 4
__Last$ = 12						; size = 4
__Pred$ = 16						; size = 1
___formal$ = 20						; size = 4
___formal$ = 24						; size = 4
??$_Make_heap@PAUtagBaseCharDistanceSq@@HU1@VBaseCharDistanceSqSort2@@@std@@YAXPAUtagBaseCharDistanceSq@@0VBaseCharDistanceSqSort2@@PAH0@Z PROC ; std::_Make_heap<tagBaseCharDistanceSq *,int,tagBaseCharDistanceSq,BaseCharDistanceSqSort2>, COMDAT

; 2658 : 	{	// make nontrivial [_First, _Last) into a heap, using _Pred

  00000	6a 28		 push	 40			; 00000028H
  00002	b8 00 00 00 00	 mov	 eax, __ehhandler$??$_Make_heap@PAUtagBaseCharDistanceSq@@HU1@VBaseCharDistanceSqSort2@@@std@@YAXPAUtagBaseCharDistanceSq@@0VBaseCharDistanceSqSort2@@PAH0@Z
  00007	e8 00 00 00 00	 call	 __EH_prolog3_GS
  0000c	8b 5d 08	 mov	 ebx, DWORD PTR __First$[ebp]
  0000f	8b 45 0c	 mov	 eax, DWORD PTR __Last$[ebp]

; 2659 : 	_Diff _Bottom = _Last - _First;

  00012	2b c3		 sub	 eax, ebx
  00014	c1 f8 05	 sar	 eax, 5
  00017	89 45 cc	 mov	 DWORD PTR __Bottom$[ebp], eax

; 2660 : 	for (_Diff _Hole = _Bottom / 2; 0 < _Hole; )

  0001a	99		 cdq
  0001b	2b c2		 sub	 eax, edx
  0001d	8b f0		 mov	 esi, eax
  0001f	d1 fe		 sar	 esi, 1
  00021	85 f6		 test	 esi, esi
  00023	7e 3d		 jle	 SHORT $LN1@Make_heap

; 2661 : 		{	// reheap top half, bottom to top
; 2662 : 		--_Hole;
; 2663 : 		_Ty _Val = _Move(*(_First + _Hole));

  00025	8b fe		 mov	 edi, esi
  00027	c1 e7 05	 shl	 edi, 5
  0002a	03 fb		 add	 edi, ebx
$LL2@Make_heap:
  0002c	83 ef 20	 sub	 edi, 32			; 00000020H
  0002f	57		 push	 edi
  00030	8d 4d d0	 lea	 ecx, DWORD PTR __Val$535051[ebp]
  00033	4e		 dec	 esi
  00034	e8 00 00 00 00	 call	 ??0tagBaseCharDistanceSq@@QAE@ABU0@@Z

; 2664 : 		_Adjust_heap(_First, _Hole, _Bottom,
; 2665 : 			_Move(_Val), _Pred);

  00039	ff 75 10	 push	 DWORD PTR __Pred$[ebp]
  0003c	83 65 fc 00	 and	 DWORD PTR __$EHRec$[ebp+8], 0
  00040	8d 45 d0	 lea	 eax, DWORD PTR __Val$535051[ebp]
  00043	50		 push	 eax
  00044	ff 75 cc	 push	 DWORD PTR __Bottom$[ebp]
  00047	56		 push	 esi
  00048	53		 push	 ebx
  00049	e8 00 00 00 00	 call	 ??$_Adjust_heap@PAUtagBaseCharDistanceSq@@HU1@VBaseCharDistanceSqSort2@@@std@@YAXPAUtagBaseCharDistanceSq@@HH$$QAU1@VBaseCharDistanceSqSort2@@@Z ; std::_Adjust_heap<tagBaseCharDistanceSq *,int,tagBaseCharDistanceSq,BaseCharDistanceSqSort2>

; 2666 : 		}

  0004e	83 4d fc ff	 or	 DWORD PTR __$EHRec$[ebp+8], -1
  00052	83 c4 14	 add	 esp, 20			; 00000014H
  00055	8d 4d d0	 lea	 ecx, DWORD PTR __Val$535051[ebp]
  00058	ff 15 00 00 00
	00		 call	 DWORD PTR __imp_??1ioHashString@@QAE@XZ
  0005e	85 f6		 test	 esi, esi
  00060	7f ca		 jg	 SHORT $LL2@Make_heap
$LN1@Make_heap:

; 2667 : 	}

  00062	e8 00 00 00 00	 call	 __EH_epilog3_GS
  00067	c3		 ret	 0
_TEXT	ENDS
;	COMDAT text$x
text$x	SEGMENT
__unwindfunclet$??$_Make_heap@PAUtagBaseCharDistanceSq@@HU1@VBaseCharDistanceSqSort2@@@std@@YAXPAUtagBaseCharDistanceSq@@0VBaseCharDistanceSqSort2@@PAH0@Z$0:
  00000	8d 4d d0	 lea	 ecx, DWORD PTR __Val$535051[ebp]
  00003	e9 00 00 00 00	 jmp	 ??1tagBaseCharDistanceSq@@QAE@XZ
__ehhandler$??$_Make_heap@PAUtagBaseCharDistanceSq@@HU1@VBaseCharDistanceSqSort2@@@std@@YAXPAUtagBaseCharDistanceSq@@0VBaseCharDistanceSqSort2@@PAH0@Z:
  00008	8b 54 24 08	 mov	 edx, DWORD PTR [esp+8]
  0000c	8d 42 0c	 lea	 eax, DWORD PTR [edx+12]
  0000f	8b 4a c8	 mov	 ecx, DWORD PTR [edx-56]
  00012	33 c8		 xor	 ecx, eax
  00014	e8 00 00 00 00	 call	 @__security_check_cookie@4
  00019	8b 4a fc	 mov	 ecx, DWORD PTR [edx-4]
  0001c	33 c8		 xor	 ecx, eax
  0001e	e8 00 00 00 00	 call	 @__security_check_cookie@4
  00023	b8 00 00 00 00	 mov	 eax, OFFSET __ehfuncinfo$??$_Make_heap@PAUtagBaseCharDistanceSq@@HU1@VBaseCharDistanceSqSort2@@@std@@YAXPAUtagBaseCharDistanceSq@@0VBaseCharDistanceSqSort2@@PAH0@Z
  00028	e9 00 00 00 00	 jmp	 ___CxxFrameHandler3
text$x	ENDS
??$_Make_heap@PAUtagBaseCharDistanceSq@@HU1@VBaseCharDistanceSqSort2@@@std@@YAXPAUtagBaseCharDistanceSq@@0VBaseCharDistanceSqSort2@@PAH0@Z ENDP ; std::_Make_heap<tagBaseCharDistanceSq *,int,tagBaseCharDistanceSq,BaseCharDistanceSqSort2>
PUBLIC	??$_Insertion_sort1@PAUtagBaseCharDistanceSq@@VBaseCharDistanceSqSort2@@U1@@std@@YAXPAUtagBaseCharDistanceSq@@0VBaseCharDistanceSqSort2@@0@Z ; std::_Insertion_sort1<tagBaseCharDistanceSq *,BaseCharDistanceSqSort2,tagBaseCharDistanceSq>
;	COMDAT xdata$x
; File d:\lost saga for developer\youtube\tutorial\source\src\lsclient\iokeymarkattackbuff.cpp
xdata$x	SEGMENT
__unwindtable$??$_Insertion_sort1@PAUtagBaseCharDistanceSq@@VBaseCharDistanceSqSort2@@U1@@std@@YAXPAUtagBaseCharDistanceSq@@0VBaseCharDistanceSqSort2@@0@Z DD 0ffffffffH
	DD	FLAT:__unwindfunclet$??$_Insertion_sort1@PAUtagBaseCharDistanceSq@@VBaseCharDistanceSqSort2@@U1@@std@@YAXPAUtagBaseCharDistanceSq@@0VBaseCharDistanceSqSort2@@0@Z$0
__ehfuncinfo$??$_Insertion_sort1@PAUtagBaseCharDistanceSq@@VBaseCharDistanceSqSort2@@U1@@std@@YAXPAUtagBaseCharDistanceSq@@0VBaseCharDistanceSqSort2@@0@Z DD 019930522H
	DD	01H
	DD	FLAT:__unwindtable$??$_Insertion_sort1@PAUtagBaseCharDistanceSq@@VBaseCharDistanceSqSort2@@U1@@std@@YAXPAUtagBaseCharDistanceSq@@0VBaseCharDistanceSqSort2@@0@Z
	DD	2 DUP(00H)
	DD	2 DUP(00H)
	DD	00H
	DD	01H
; Function compile flags: /Ogsp
; File c:\program files (x86)\microsoft visual studio 10.0\vc\include\algorithm
xdata$x	ENDS
;	COMDAT ??$_Insertion_sort1@PAUtagBaseCharDistanceSq@@VBaseCharDistanceSqSort2@@U1@@std@@YAXPAUtagBaseCharDistanceSq@@0VBaseCharDistanceSqSort2@@0@Z
_TEXT	SEGMENT
__Cat$541143 = -52					; size = 1
__Next1$535094 = -52					; size = 4
__Val$535095 = -48					; size = 32
__$EHRec$ = -12						; size = 12
__First$ = 8						; size = 4
__Last$ = 12						; size = 4
__Pred$ = 16						; size = 1
___formal$ = 20						; size = 4
??$_Insertion_sort1@PAUtagBaseCharDistanceSq@@VBaseCharDistanceSqSort2@@U1@@std@@YAXPAUtagBaseCharDistanceSq@@0VBaseCharDistanceSqSort2@@0@Z PROC ; std::_Insertion_sort1<tagBaseCharDistanceSq *,BaseCharDistanceSqSort2,tagBaseCharDistanceSq>, COMDAT

; 3650 : 	{	// insertion sort [_First, _Last), using _Pred

  00000	6a 28		 push	 40			; 00000028H
  00002	b8 00 00 00 00	 mov	 eax, __ehhandler$??$_Insertion_sort1@PAUtagBaseCharDistanceSq@@VBaseCharDistanceSqSort2@@U1@@std@@YAXPAUtagBaseCharDistanceSq@@0VBaseCharDistanceSqSort2@@0@Z
  00007	e8 00 00 00 00	 call	 __EH_prolog3_GS
  0000c	8b 7d 08	 mov	 edi, DWORD PTR __First$[ebp]

; 3651 : 	if (_First != _Last)

  0000f	3b 7d 0c	 cmp	 edi, DWORD PTR __Last$[ebp]
  00012	74 5c		 je	 SHORT $LN6@Insertion_

; 3652 : 		for (_BidIt _Next = _First; ++_Next != _Last; )

  00014	8d 77 20	 lea	 esi, DWORD PTR [edi+32]
  00017	eb 52		 jmp	 SHORT $LN39@Insertion_
$LL7@Insertion_:

; 3653 : 			{	// order next element
; 3654 : 			_BidIt _Next1 = _Next;
; 3655 : 			_Ty _Val = _Move(*_Next);

  00019	56		 push	 esi
  0001a	8d 4d d0	 lea	 ecx, DWORD PTR __Val$535095[ebp]
  0001d	89 75 cc	 mov	 DWORD PTR __Next1$535094[ebp], esi
  00020	e8 00 00 00 00	 call	 ??0tagBaseCharDistanceSq@@QAE@ABU0@@Z

; 3656 : 
; 3657 : 			if (_DEBUG_LT_PRED(_Pred, _Val, *_First))

  00025	f3 0f 10 45 e0	 movss	 xmm0, DWORD PTR __Val$535095[ebp+16]
  0002a	f3 0f 10 4f 10	 movss	 xmm1, DWORD PTR [edi+16]
  0002f	83 65 fc 00	 and	 DWORD PTR __$EHRec$[ebp+8], 0
  00033	0f 5a c0	 cvtps2pd xmm0, xmm0
  00036	0f 5a c9	 cvtps2pd xmm1, xmm1
  00039	66 0f 2f c8	 comisd	 xmm1, xmm0
  0003d	76 37		 jbe	 SHORT $LN5@Insertion_

; 3658 : 				{	// found new earliest element, move to front
; 3659 : 				_Move_backward(_First, _Next, ++_Next1);

  0003f	ff 75 cc	 push	 DWORD PTR __Cat$541143[ebp]
  00042	8d 46 20	 lea	 eax, DWORD PTR [esi+32]
  00045	50		 push	 eax
  00046	56		 push	 esi
  00047	57		 push	 edi
  00048	e8 00 00 00 00	 call	 ??$_Move_backward@PAUtagBaseCharDistanceSq@@PAU1@@std@@YAPAUtagBaseCharDistanceSq@@PAU1@00U_Nonscalar_ptr_iterator_tag@0@@Z ; std::_Move_backward<tagBaseCharDistanceSq *,tagBaseCharDistanceSq *>
  0004d	83 c4 10	 add	 esp, 16			; 00000010H

; 3660 : 				*_First = _Move(_Val);

  00050	8b cf		 mov	 ecx, edi
$LN40@Insertion_:

; 3668 : 				*_Next1 = _Move(_Val);	// insert element in hole

  00052	8d 45 d0	 lea	 eax, DWORD PTR __Val$535095[ebp]
  00055	50		 push	 eax
  00056	e8 00 00 00 00	 call	 ??4tagBaseCharDistanceSq@@QAEAAU0@ABU0@@Z

; 3669 : 				}
; 3670 : 			}

  0005b	83 4d fc ff	 or	 DWORD PTR __$EHRec$[ebp+8], -1
  0005f	8d 4d d0	 lea	 ecx, DWORD PTR __Val$535095[ebp]
  00062	ff 15 00 00 00
	00		 call	 DWORD PTR __imp_??1ioHashString@@QAE@XZ
  00068	83 c6 20	 add	 esi, 32			; 00000020H
$LN39@Insertion_:

; 3652 : 		for (_BidIt _Next = _First; ++_Next != _Last; )

  0006b	3b 75 0c	 cmp	 esi, DWORD PTR __Last$[ebp]
  0006e	75 a9		 jne	 SHORT $LL7@Insertion_
$LN6@Insertion_:

; 3671 : 	}

  00070	e8 00 00 00 00	 call	 __EH_epilog3_GS
  00075	c3		 ret	 0
$LN5@Insertion_:

; 3661 : 				}
; 3662 : 			else
; 3663 : 				{	// look for insertion point after first
; 3664 : 				for (_BidIt _First1 = _Next1;

  00076	8b de		 mov	 ebx, esi
$LL3@Insertion_:

; 3665 : 					_DEBUG_LT_PRED(_Pred, _Val, *--_First1);
; 3666 : 					_Next1 = _First1)

  00078	f3 0f 10 45 e0	 movss	 xmm0, DWORD PTR __Val$535095[ebp+16]
  0007d	f3 0f 10 4b f0	 movss	 xmm1, DWORD PTR [ebx-16]

; 3667 : 					*_Next1 = _Move(*_First1);	// move hole down

  00082	8b 4d cc	 mov	 ecx, DWORD PTR __Next1$535094[ebp]
  00085	83 eb 20	 sub	 ebx, 32			; 00000020H
  00088	0f 5a c0	 cvtps2pd xmm0, xmm0
  0008b	0f 5a c9	 cvtps2pd xmm1, xmm1
  0008e	66 0f 2f c8	 comisd	 xmm1, xmm0
  00092	76 be		 jbe	 SHORT $LN40@Insertion_
  00094	53		 push	 ebx
  00095	e8 00 00 00 00	 call	 ??4tagBaseCharDistanceSq@@QAEAAU0@ABU0@@Z
  0009a	89 5d cc	 mov	 DWORD PTR __Next1$535094[ebp], ebx
  0009d	eb d9		 jmp	 SHORT $LL3@Insertion_
_TEXT	ENDS
;	COMDAT text$x
text$x	SEGMENT
__unwindfunclet$??$_Insertion_sort1@PAUtagBaseCharDistanceSq@@VBaseCharDistanceSqSort2@@U1@@std@@YAXPAUtagBaseCharDistanceSq@@0VBaseCharDistanceSqSort2@@0@Z$0:
  00000	8d 4d d0	 lea	 ecx, DWORD PTR __Val$535095[ebp]
  00003	e9 00 00 00 00	 jmp	 ??1tagBaseCharDistanceSq@@QAE@XZ
__ehhandler$??$_Insertion_sort1@PAUtagBaseCharDistanceSq@@VBaseCharDistanceSqSort2@@U1@@std@@YAXPAUtagBaseCharDistanceSq@@0VBaseCharDistanceSqSort2@@0@Z:
  00008	8b 54 24 08	 mov	 edx, DWORD PTR [esp+8]
  0000c	8d 42 0c	 lea	 eax, DWORD PTR [edx+12]
  0000f	8b 4a c8	 mov	 ecx, DWORD PTR [edx-56]
  00012	33 c8		 xor	 ecx, eax
  00014	e8 00 00 00 00	 call	 @__security_check_cookie@4
  00019	8b 4a fc	 mov	 ecx, DWORD PTR [edx-4]
  0001c	33 c8		 xor	 ecx, eax
  0001e	e8 00 00 00 00	 call	 @__security_check_cookie@4
  00023	b8 00 00 00 00	 mov	 eax, OFFSET __ehfuncinfo$??$_Insertion_sort1@PAUtagBaseCharDistanceSq@@VBaseCharDistanceSqSort2@@U1@@std@@YAXPAUtagBaseCharDistanceSq@@0VBaseCharDistanceSqSort2@@0@Z
  00028	e9 00 00 00 00	 jmp	 ___CxxFrameHandler3
text$x	ENDS
??$_Insertion_sort1@PAUtagBaseCharDistanceSq@@VBaseCharDistanceSqSort2@@U1@@std@@YAXPAUtagBaseCharDistanceSq@@0VBaseCharDistanceSqSort2@@0@Z ENDP ; std::_Insertion_sort1<tagBaseCharDistanceSq *,BaseCharDistanceSqSort2,tagBaseCharDistanceSq>
PUBLIC	??$_Cons_val@V?$allocator@UWeaponInfo@@@std@@UWeaponInfo@@ABU3@@std@@YAXAAV?$allocator@UWeaponInfo@@@0@PAUWeaponInfo@@ABU2@@Z ; std::_Cons_val<std::allocator<WeaponInfo>,WeaponInfo,WeaponInfo const &>
; Function compile flags: /Ogsp
; File c:\program files (x86)\microsoft visual studio 10.0\vc\include\xmemory
;	COMDAT ??$_Cons_val@V?$allocator@UWeaponInfo@@@std@@UWeaponInfo@@ABU3@@std@@YAXAAV?$allocator@UWeaponInfo@@@0@PAUWeaponInfo@@ABU2@@Z
_TEXT	SEGMENT
__Alval$ = 8						; size = 4
__Pdest$ = 12						; size = 4
__Src$ = 16						; size = 4
??$_Cons_val@V?$allocator@UWeaponInfo@@@std@@UWeaponInfo@@ABU3@@std@@YAXAAV?$allocator@UWeaponInfo@@@0@PAUWeaponInfo@@ABU2@@Z PROC ; std::_Cons_val<std::allocator<WeaponInfo>,WeaponInfo,WeaponInfo const &>, COMDAT

; 279  : 	{	// construct using allocator

  00000	55		 push	 ebp
  00001	8b ec		 mov	 ebp, esp

; 280  : 	_Alval.construct(_Pdest, _STD forward<_Ty2>(_Src));

  00003	ff 75 10	 push	 DWORD PTR __Src$[ebp]
  00006	ff 75 0c	 push	 DWORD PTR __Pdest$[ebp]
  00009	e8 00 00 00 00	 call	 ??$_Construct@UWeaponInfo@@ABU1@@std@@YAXPAUWeaponInfo@@ABU1@@Z ; std::_Construct<WeaponInfo,WeaponInfo const &>
  0000e	59		 pop	 ecx
  0000f	59		 pop	 ecx

; 281  : 	}

  00010	5d		 pop	 ebp
  00011	c3		 ret	 0
??$_Cons_val@V?$allocator@UWeaponInfo@@@std@@UWeaponInfo@@ABU3@@std@@YAXAAV?$allocator@UWeaponInfo@@@0@PAUWeaponInfo@@ABU2@@Z ENDP ; std::_Cons_val<std::allocator<WeaponInfo>,WeaponInfo,WeaponInfo const &>
_TEXT	ENDS
PUBLIC	??$_Pop_heap_0@PAUtagBaseCharDistanceSq@@U1@VBaseCharDistanceSqSort2@@@std@@YAXPAUtagBaseCharDistanceSq@@0VBaseCharDistanceSqSort2@@0@Z ; std::_Pop_heap_0<tagBaseCharDistanceSq *,tagBaseCharDistanceSq,BaseCharDistanceSqSort2>
;	COMDAT xdata$x
; File d:\lost saga for developer\youtube\tutorial\source\src\lsclient\iokeymarkattackbuff.cpp
xdata$x	SEGMENT
__unwindtable$??$_Pop_heap_0@PAUtagBaseCharDistanceSq@@U1@VBaseCharDistanceSqSort2@@@std@@YAXPAUtagBaseCharDistanceSq@@0VBaseCharDistanceSqSort2@@0@Z DD 0ffffffffH
	DD	FLAT:__unwindfunclet$??$_Pop_heap_0@PAUtagBaseCharDistanceSq@@U1@VBaseCharDistanceSqSort2@@@std@@YAXPAUtagBaseCharDistanceSq@@0VBaseCharDistanceSqSort2@@0@Z$0
__ehfuncinfo$??$_Pop_heap_0@PAUtagBaseCharDistanceSq@@U1@VBaseCharDistanceSqSort2@@@std@@YAXPAUtagBaseCharDistanceSq@@0VBaseCharDistanceSqSort2@@0@Z DD 019930522H
	DD	01H
	DD	FLAT:__unwindtable$??$_Pop_heap_0@PAUtagBaseCharDistanceSq@@U1@VBaseCharDistanceSqSort2@@@std@@YAXPAUtagBaseCharDistanceSq@@0VBaseCharDistanceSqSort2@@0@Z
	DD	2 DUP(00H)
	DD	2 DUP(00H)
	DD	00H
	DD	01H
; Function compile flags: /Ogsp
; File c:\program files (x86)\microsoft visual studio 10.0\vc\include\algorithm
xdata$x	ENDS
;	COMDAT ??$_Pop_heap_0@PAUtagBaseCharDistanceSq@@U1@VBaseCharDistanceSqSort2@@@std@@YAXPAUtagBaseCharDistanceSq@@0VBaseCharDistanceSqSort2@@0@Z
_TEXT	SEGMENT
__Val$ = -48						; size = 32
__$EHRec$ = -12						; size = 12
__First$ = 8						; size = 4
__Last$ = 12						; size = 4
__Pred$ = 16						; size = 1
___formal$ = 20						; size = 4
??$_Pop_heap_0@PAUtagBaseCharDistanceSq@@U1@VBaseCharDistanceSqSort2@@@std@@YAXPAUtagBaseCharDistanceSq@@0VBaseCharDistanceSqSort2@@0@Z PROC ; std::_Pop_heap_0<tagBaseCharDistanceSq *,tagBaseCharDistanceSq,BaseCharDistanceSqSort2>, COMDAT

; 2601 : 	{	// pop *_First to *(_Last - 1) and reheap, using _Pred

  00000	6a 24		 push	 36			; 00000024H
  00002	b8 00 00 00 00	 mov	 eax, __ehhandler$??$_Pop_heap_0@PAUtagBaseCharDistanceSq@@U1@VBaseCharDistanceSqSort2@@@std@@YAXPAUtagBaseCharDistanceSq@@0VBaseCharDistanceSqSort2@@0@Z
  00007	e8 00 00 00 00	 call	 __EH_prolog3_GS
  0000c	8b 75 0c	 mov	 esi, DWORD PTR __Last$[ebp]
  0000f	8b 7d 08	 mov	 edi, DWORD PTR __First$[ebp]

; 2602 : 	_Ty _Val = _Move(*(_Last - 1));

  00012	83 c6 e0	 add	 esi, -32		; ffffffe0H
  00015	56		 push	 esi
  00016	8d 4d d0	 lea	 ecx, DWORD PTR __Val$[ebp]
  00019	e8 00 00 00 00	 call	 ??0tagBaseCharDistanceSq@@QAE@ABU0@@Z
  0001e	83 65 fc 00	 and	 DWORD PTR __$EHRec$[ebp+8], 0

; 2603 : 	_Pop_heap(_First, _Last - 1, _Last - 1,
; 2604 : 		_Move(_Val), _Pred, _Dist_type(_First));

  00022	6a 00		 push	 0
  00024	ff 75 10	 push	 DWORD PTR __Pred$[ebp]
  00027	8d 45 d0	 lea	 eax, DWORD PTR __Val$[ebp]
  0002a	50		 push	 eax
  0002b	56		 push	 esi
  0002c	56		 push	 esi
  0002d	57		 push	 edi
  0002e	e8 00 00 00 00	 call	 ??$_Pop_heap@PAUtagBaseCharDistanceSq@@HU1@VBaseCharDistanceSqSort2@@@std@@YAXPAUtagBaseCharDistanceSq@@00$$QAU1@VBaseCharDistanceSqSort2@@PAH@Z ; std::_Pop_heap<tagBaseCharDistanceSq *,int,tagBaseCharDistanceSq,BaseCharDistanceSqSort2>

; 2605 : 	}

  00033	83 4d fc ff	 or	 DWORD PTR __$EHRec$[ebp+8], -1
  00037	83 c4 18	 add	 esp, 24			; 00000018H
  0003a	8d 4d d0	 lea	 ecx, DWORD PTR __Val$[ebp]
  0003d	ff 15 00 00 00
	00		 call	 DWORD PTR __imp_??1ioHashString@@QAE@XZ
  00043	e8 00 00 00 00	 call	 __EH_epilog3_GS
  00048	c3		 ret	 0
_TEXT	ENDS
;	COMDAT text$x
text$x	SEGMENT
__unwindfunclet$??$_Pop_heap_0@PAUtagBaseCharDistanceSq@@U1@VBaseCharDistanceSqSort2@@@std@@YAXPAUtagBaseCharDistanceSq@@0VBaseCharDistanceSqSort2@@0@Z$0:
  00000	8d 4d d0	 lea	 ecx, DWORD PTR __Val$[ebp]
  00003	e9 00 00 00 00	 jmp	 ??1tagBaseCharDistanceSq@@QAE@XZ
__ehhandler$??$_Pop_heap_0@PAUtagBaseCharDistanceSq@@U1@VBaseCharDistanceSqSort2@@@std@@YAXPAUtagBaseCharDistanceSq@@0VBaseCharDistanceSqSort2@@0@Z:
  00008	8b 54 24 08	 mov	 edx, DWORD PTR [esp+8]
  0000c	8d 42 0c	 lea	 eax, DWORD PTR [edx+12]
  0000f	8b 4a cc	 mov	 ecx, DWORD PTR [edx-52]
  00012	33 c8		 xor	 ecx, eax
  00014	e8 00 00 00 00	 call	 @__security_check_cookie@4
  00019	8b 4a fc	 mov	 ecx, DWORD PTR [edx-4]
  0001c	33 c8		 xor	 ecx, eax
  0001e	e8 00 00 00 00	 call	 @__security_check_cookie@4
  00023	b8 00 00 00 00	 mov	 eax, OFFSET __ehfuncinfo$??$_Pop_heap_0@PAUtagBaseCharDistanceSq@@U1@VBaseCharDistanceSqSort2@@@std@@YAXPAUtagBaseCharDistanceSq@@0VBaseCharDistanceSqSort2@@0@Z
  00028	e9 00 00 00 00	 jmp	 ___CxxFrameHandler3
text$x	ENDS
??$_Pop_heap_0@PAUtagBaseCharDistanceSq@@U1@VBaseCharDistanceSqSort2@@@std@@YAXPAUtagBaseCharDistanceSq@@0VBaseCharDistanceSqSort2@@0@Z ENDP ; std::_Pop_heap_0<tagBaseCharDistanceSq *,tagBaseCharDistanceSq,BaseCharDistanceSqSort2>
PUBLIC	??$_Destroy_range@V?$allocator@UForceInfo@@@std@@@std@@YAXPAUForceInfo@@0AAV?$allocator@UForceInfo@@@0@U_Nonscalar_ptr_iterator_tag@0@@Z ; std::_Destroy_range<std::allocator<ForceInfo> >
; Function compile flags: /Ogsp
; File c:\program files (x86)\microsoft visual studio 10.0\vc\include\xmemory
;	COMDAT ??$_Destroy_range@V?$allocator@UForceInfo@@@std@@@std@@YAXPAUForceInfo@@0AAV?$allocator@UForceInfo@@@0@U_Nonscalar_ptr_iterator_tag@0@@Z
_TEXT	SEGMENT
__First$ = 8						; size = 4
__Last$ = 12						; size = 4
__Al$ = 16						; size = 4
___formal$ = 20						; size = 1
??$_Destroy_range@V?$allocator@UForceInfo@@@std@@@std@@YAXPAUForceInfo@@0AAV?$allocator@UForceInfo@@@0@U_Nonscalar_ptr_iterator_tag@0@@Z PROC ; std::_Destroy_range<std::allocator<ForceInfo> >, COMDAT

; 96   : 	for (; _First != _Last; ++_First)
; 97   : 		_Dest_val(_Al, _First);
; 98   : 	}

  00000	c3		 ret	 0
??$_Destroy_range@V?$allocator@UForceInfo@@@std@@@std@@YAXPAUForceInfo@@0AAV?$allocator@UForceInfo@@@0@U_Nonscalar_ptr_iterator_tag@0@@Z ENDP ; std::_Destroy_range<std::allocator<ForceInfo> >
_TEXT	ENDS
PUBLIC	??$_Dest_val@V?$allocator@UWeaponInfo@@@std@@UWeaponInfo@@@std@@YAXAAV?$allocator@UWeaponInfo@@@0@PAUWeaponInfo@@@Z ; std::_Dest_val<std::allocator<WeaponInfo>,WeaponInfo>
; Function compile flags: /Ogsp
;	COMDAT ??$_Dest_val@V?$allocator@UWeaponInfo@@@std@@UWeaponInfo@@@std@@YAXAAV?$allocator@UWeaponInfo@@@0@PAUWeaponInfo@@@Z
_TEXT	SEGMENT
__Alval$ = 8						; size = 4
__Pdest$ = 12						; size = 4
??$_Dest_val@V?$allocator@UWeaponInfo@@@std@@UWeaponInfo@@@std@@YAXAAV?$allocator@UWeaponInfo@@@0@PAUWeaponInfo@@@Z PROC ; std::_Dest_val<std::allocator<WeaponInfo>,WeaponInfo>, COMDAT

; 286  : 	{	// destroy using allocator

  00000	55		 push	 ebp
  00001	8b ec		 mov	 ebp, esp

; 287  : 	_Alval.destroy(_Pdest);

  00003	8b 4d 0c	 mov	 ecx, DWORD PTR __Pdest$[ebp]
  00006	83 c1 08	 add	 ecx, 8

; 288  : 	}

  00009	5d		 pop	 ebp

; 287  : 	_Alval.destroy(_Pdest);

  0000a	ff 25 00 00 00
	00		 jmp	 DWORD PTR __imp_??1ioHashString@@QAE@XZ
??$_Dest_val@V?$allocator@UWeaponInfo@@@std@@UWeaponInfo@@@std@@YAXAAV?$allocator@UWeaponInfo@@@0@PAUWeaponInfo@@@Z ENDP ; std::_Dest_val<std::allocator<WeaponInfo>,WeaponInfo>
_TEXT	ENDS
PUBLIC	??$_Uninitialized_copy@V?$_Vector_const_iterator@V?$_Vector_val@UForceInfo@@V?$allocator@UForceInfo@@@std@@@std@@@std@@PAUForceInfo@@V?$allocator@UForceInfo@@@2@@std@@YAPAUForceInfo@@V?$_Vector_const_iterator@V?$_Vector_val@UForceInfo@@V?$allocator@UForceInfo@@@std@@@std@@@0@0PAU1@AAV?$allocator@UForceInfo@@@0@@Z ; std::_Uninitialized_copy<std::_Vector_const_iterator<std::_Vector_val<ForceInfo,std::allocator<ForceInfo> > >,ForceInfo *,std::allocator<ForceInfo> >
; Function compile flags: /Ogsp
; File c:\program files (x86)\microsoft visual studio 10.0\vc\include\memory
;	COMDAT ??$_Uninitialized_copy@V?$_Vector_const_iterator@V?$_Vector_val@UForceInfo@@V?$allocator@UForceInfo@@@std@@@std@@@std@@PAUForceInfo@@V?$allocator@UForceInfo@@@2@@std@@YAPAUForceInfo@@V?$_Vector_const_iterator@V?$_Vector_val@UForceInfo@@V?$allocator@UForceInfo@@@std@@@std@@@0@0PAU1@AAV?$allocator@UForceInfo@@@0@@Z
_TEXT	SEGMENT
__Cat$541267 = -4					; size = 1
__First$ = 8						; size = 4
__Last$ = 12						; size = 4
__Dest$ = 16						; size = 4
__Al$ = 20						; size = 4
??$_Uninitialized_copy@V?$_Vector_const_iterator@V?$_Vector_val@UForceInfo@@V?$allocator@UForceInfo@@@std@@@std@@@std@@PAUForceInfo@@V?$allocator@UForceInfo@@@2@@std@@YAPAUForceInfo@@V?$_Vector_const_iterator@V?$_Vector_val@UForceInfo@@V?$allocator@UForceInfo@@@std@@@std@@@0@0PAU1@AAV?$allocator@UForceInfo@@@0@@Z PROC ; std::_Uninitialized_copy<std::_Vector_const_iterator<std::_Vector_val<ForceInfo,std::allocator<ForceInfo> > >,ForceInfo *,std::allocator<ForceInfo> >, COMDAT

; 412  : 	{	// copy [_First, _Last) to raw _Dest, using _Al

  00000	55		 push	 ebp
  00001	8b ec		 mov	 ebp, esp
  00003	51		 push	 ecx

; 413  : 	return (_Uninit_copy(_First, _Last, _Dest, _Al,
; 414  : 		_Ptr_cat(_First, _Dest)));

  00004	ff 75 fc	 push	 DWORD PTR __Cat$541267[ebp]
  00007	ff 75 14	 push	 DWORD PTR __Al$[ebp]
  0000a	ff 75 10	 push	 DWORD PTR __Dest$[ebp]
  0000d	ff 75 0c	 push	 DWORD PTR __Last$[ebp]
  00010	ff 75 08	 push	 DWORD PTR __First$[ebp]
  00013	e8 00 00 00 00	 call	 ??$_Uninit_copy@V?$_Vector_const_iterator@V?$_Vector_val@UForceInfo@@V?$allocator@UForceInfo@@@std@@@std@@@std@@PAUForceInfo@@V?$allocator@UForceInfo@@@2@@std@@YAPAUForceInfo@@V?$_Vector_const_iterator@V?$_Vector_val@UForceInfo@@V?$allocator@UForceInfo@@@std@@@std@@@0@0PAU1@AAV?$allocator@UForceInfo@@@0@U_Nonscalar_ptr_iterator_tag@0@@Z ; std::_Uninit_copy<std::_Vector_const_iterator<std::_Vector_val<ForceInfo,std::allocator<ForceInfo> > >,ForceInfo *,std::allocator<ForceInfo> >
  00018	83 c4 14	 add	 esp, 20			; 00000014H

; 415  : 	}

  0001b	c9		 leave
  0001c	c3		 ret	 0
??$_Uninitialized_copy@V?$_Vector_const_iterator@V?$_Vector_val@UForceInfo@@V?$allocator@UForceInfo@@@std@@@std@@@std@@PAUForceInfo@@V?$allocator@UForceInfo@@@2@@std@@YAPAUForceInfo@@V?$_Vector_const_iterator@V?$_Vector_val@UForceInfo@@V?$allocator@UForceInfo@@@std@@@std@@@0@0PAU1@AAV?$allocator@UForceInfo@@@0@@Z ENDP ; std::_Uninitialized_copy<std::_Vector_const_iterator<std::_Vector_val<ForceInfo,std::allocator<ForceInfo> > >,ForceInfo *,std::allocator<ForceInfo> >
_TEXT	ENDS
PUBLIC	??$_Destroy_range@V?$allocator@UtagBaseCharDistanceSq@@@std@@@std@@YAXPAUtagBaseCharDistanceSq@@0AAV?$allocator@UtagBaseCharDistanceSq@@@0@U_Nonscalar_ptr_iterator_tag@0@@Z ; std::_Destroy_range<std::allocator<tagBaseCharDistanceSq> >
; Function compile flags: /Ogsp
; File c:\program files (x86)\microsoft visual studio 10.0\vc\include\xmemory
;	COMDAT ??$_Destroy_range@V?$allocator@UtagBaseCharDistanceSq@@@std@@@std@@YAXPAUtagBaseCharDistanceSq@@0AAV?$allocator@UtagBaseCharDistanceSq@@@0@U_Nonscalar_ptr_iterator_tag@0@@Z
_TEXT	SEGMENT
__First$ = 8						; size = 4
__Last$ = 12						; size = 4
__Al$ = 16						; size = 4
___formal$ = 20						; size = 1
??$_Destroy_range@V?$allocator@UtagBaseCharDistanceSq@@@std@@@std@@YAXPAUtagBaseCharDistanceSq@@0AAV?$allocator@UtagBaseCharDistanceSq@@@0@U_Nonscalar_ptr_iterator_tag@0@@Z PROC ; std::_Destroy_range<std::allocator<tagBaseCharDistanceSq> >, COMDAT

; 95   : 	{	// destroy [_First, _Last), arbitrary type

  00000	55		 push	 ebp
  00001	8b ec		 mov	 ebp, esp
  00003	56		 push	 esi

; 96   : 	for (; _First != _Last; ++_First)

  00004	8b 75 08	 mov	 esi, DWORD PTR __First$[ebp]
  00007	eb 0b		 jmp	 SHORT $LN20@Destroy_ra
$LL3@Destroy_ra:

; 97   : 		_Dest_val(_Al, _First);

  00009	8b ce		 mov	 ecx, esi
  0000b	ff 15 00 00 00
	00		 call	 DWORD PTR __imp_??1ioHashString@@QAE@XZ
  00011	83 c6 20	 add	 esi, 32			; 00000020H
$LN20@Destroy_ra:

; 96   : 	for (; _First != _Last; ++_First)

  00014	3b 75 0c	 cmp	 esi, DWORD PTR __Last$[ebp]
  00017	75 f0		 jne	 SHORT $LL3@Destroy_ra
  00019	5e		 pop	 esi

; 98   : 	}

  0001a	5d		 pop	 ebp
  0001b	c3		 ret	 0
??$_Destroy_range@V?$allocator@UtagBaseCharDistanceSq@@@std@@@std@@YAXPAUtagBaseCharDistanceSq@@0AAV?$allocator@UtagBaseCharDistanceSq@@@0@U_Nonscalar_ptr_iterator_tag@0@@Z ENDP ; std::_Destroy_range<std::allocator<tagBaseCharDistanceSq> >
_TEXT	ENDS
PUBLIC	??$_Unguarded_partition@PAUtagBaseCharDistanceSq@@VBaseCharDistanceSqSort2@@@std@@YA?AU?$pair@PAUtagBaseCharDistanceSq@@PAU1@@0@PAUtagBaseCharDistanceSq@@0VBaseCharDistanceSqSort2@@@Z ; std::_Unguarded_partition<tagBaseCharDistanceSq *,BaseCharDistanceSqSort2>
; Function compile flags: /Ogsp
; File c:\program files (x86)\microsoft visual studio 10.0\vc\include\algorithm
;	COMDAT ??$_Unguarded_partition@PAUtagBaseCharDistanceSq@@VBaseCharDistanceSqSort2@@@std@@YA?AU?$pair@PAUtagBaseCharDistanceSq@@PAU1@@0@PAUtagBaseCharDistanceSq@@0VBaseCharDistanceSqSort2@@@Z
_TEXT	SEGMENT
__Glast$ = -4						; size = 4
___$ReturnUdt$ = 8					; size = 4
__First$ = 12						; size = 4
__Last$ = 16						; size = 4
__Pred$ = 20						; size = 1
??$_Unguarded_partition@PAUtagBaseCharDistanceSq@@VBaseCharDistanceSqSort2@@@std@@YA?AU?$pair@PAUtagBaseCharDistanceSq@@PAU1@@0@PAUtagBaseCharDistanceSq@@0VBaseCharDistanceSqSort2@@@Z PROC ; std::_Unguarded_partition<tagBaseCharDistanceSq *,BaseCharDistanceSqSort2>, COMDAT

; 3712 : 	{	// partition [_First, _Last), using _Pred

  00000	55		 push	 ebp
  00001	8b ec		 mov	 ebp, esp
  00003	51		 push	 ecx

; 3713 : 	_RanIt _Mid = _First + (_Last - _First) / 2;

  00004	8b 4d 10	 mov	 ecx, DWORD PTR __Last$[ebp]
  00007	53		 push	 ebx
  00008	8b 5d 0c	 mov	 ebx, DWORD PTR __First$[ebp]
  0000b	8b c1		 mov	 eax, ecx
  0000d	2b c3		 sub	 eax, ebx
  0000f	56		 push	 esi
  00010	c1 f8 05	 sar	 eax, 5
  00013	99		 cdq
  00014	2b c2		 sub	 eax, edx
  00016	57		 push	 edi

; 3714 : 	_Median(_First, _Mid, _Last - 1, _Pred);

  00017	ff 75 14	 push	 DWORD PTR __Pred$[ebp]
  0001a	8b f0		 mov	 esi, eax
  0001c	d1 fe		 sar	 esi, 1
  0001e	83 c1 e0	 add	 ecx, -32		; ffffffe0H
  00021	c1 e6 05	 shl	 esi, 5
  00024	51		 push	 ecx
  00025	03 f3		 add	 esi, ebx
  00027	56		 push	 esi
  00028	53		 push	 ebx
  00029	e8 00 00 00 00	 call	 ??$_Median@PAUtagBaseCharDistanceSq@@VBaseCharDistanceSqSort2@@@std@@YAXPAUtagBaseCharDistanceSq@@00VBaseCharDistanceSqSort2@@@Z ; std::_Median<tagBaseCharDistanceSq *,BaseCharDistanceSqSort2>
  0002e	83 c4 10	 add	 esp, 16			; 00000010H

; 3715 : 	_RanIt _Pfirst = _Mid;
; 3716 : 	_RanIt _Plast = _Pfirst + 1;

  00031	8d 7e 20	 lea	 edi, DWORD PTR [esi+32]
  00034	eb 25		 jmp	 SHORT $LN100@Unguarded_
$LL27@Unguarded_:

; 3717 : 
; 3718 : 	while (_First < _Pfirst
; 3719 : 		&& !_DEBUG_LT_PRED(_Pred, *(_Pfirst - 1), *_Pfirst)
; 3720 : 		&& !_Pred(*_Pfirst, *(_Pfirst - 1)))

  00036	f3 0f 10 46 f0	 movss	 xmm0, DWORD PTR [esi-16]
  0003b	f3 0f 10 4e 10	 movss	 xmm1, DWORD PTR [esi+16]
  00040	0f 5a d0	 cvtps2pd xmm2, xmm0
  00043	0f 5a d9	 cvtps2pd xmm3, xmm1
  00046	66 0f 2f da	 comisd	 xmm3, xmm2
  0004a	77 13		 ja	 SHORT $LN94@Unguarded_
  0004c	0f 5a c9	 cvtps2pd xmm1, xmm1
  0004f	0f 5a c0	 cvtps2pd xmm0, xmm0
  00052	66 0f 2f c1	 comisd	 xmm0, xmm1
  00056	77 07		 ja	 SHORT $LN94@Unguarded_

; 3721 : 		--_Pfirst;

  00058	83 ee 20	 sub	 esi, 32			; 00000020H
$LN100@Unguarded_:

; 3717 : 
; 3718 : 	while (_First < _Pfirst
; 3719 : 		&& !_DEBUG_LT_PRED(_Pred, *(_Pfirst - 1), *_Pfirst)
; 3720 : 		&& !_Pred(*_Pfirst, *(_Pfirst - 1)))

  0005b	3b de		 cmp	 ebx, esi
  0005d	72 d7		 jb	 SHORT $LL27@Unguarded_
$LN94@Unguarded_:

; 3722 : 	while (_Plast < _Last
; 3723 : 		&& !_DEBUG_LT_PRED(_Pred, *_Plast, *_Pfirst)
; 3724 : 		&& !_Pred(*_Pfirst, *_Plast))

  0005f	3b 7d 10	 cmp	 edi, DWORD PTR __Last$[ebp]
  00062	73 32		 jae	 SHORT $LN96@Unguarded_
  00064	f3 0f 10 4e 10	 movss	 xmm1, DWORD PTR [esi+16]
$LL25@Unguarded_:
  00069	f3 0f 10 47 10	 movss	 xmm0, DWORD PTR [edi+16]
  0006e	0f 57 db	 xorps	 xmm3, xmm3
  00071	0f 5a d0	 cvtps2pd xmm2, xmm0
  00074	f3 0f 5a d9	 cvtss2sd xmm3, xmm1
  00078	66 0f 2f da	 comisd	 xmm3, xmm2
  0007c	77 18		 ja	 SHORT $LN96@Unguarded_
  0007e	0f 57 d2	 xorps	 xmm2, xmm2
  00081	f3 0f 5a d1	 cvtss2sd xmm2, xmm1
  00085	0f 5a c0	 cvtps2pd xmm0, xmm0
  00088	66 0f 2f c2	 comisd	 xmm0, xmm2
  0008c	77 08		 ja	 SHORT $LN96@Unguarded_

; 3725 : 		++_Plast;

  0008e	83 c7 20	 add	 edi, 32			; 00000020H
  00091	3b 7d 10	 cmp	 edi, DWORD PTR __Last$[ebp]
  00094	72 d3		 jb	 SHORT $LL25@Unguarded_
$LN96@Unguarded_:

; 3726 : 
; 3727 : 	_RanIt _Gfirst = _Plast;

  00096	8b df		 mov	 ebx, edi

; 3728 : 	_RanIt _Glast = _Pfirst;

  00098	89 75 fc	 mov	 DWORD PTR __Glast$[ebp], esi

; 3729 : 
; 3730 : 	for (; ; )
; 3731 : 		{	// partition
; 3732 : 		for (; _Gfirst < _Last; ++_Gfirst)

  0009b	eb 33		 jmp	 SHORT $LN102@Unguarded_
$LL21@Unguarded_:

; 3733 : 			if (_DEBUG_LT_PRED(_Pred, *_Pfirst, *_Gfirst))

  0009d	f3 0f 10 46 10	 movss	 xmm0, DWORD PTR [esi+16]
  000a2	f3 0f 10 4b 10	 movss	 xmm1, DWORD PTR [ebx+16]
  000a7	0f 5a d0	 cvtps2pd xmm2, xmm0
  000aa	0f 5a d9	 cvtps2pd xmm3, xmm1
  000ad	66 0f 2f da	 comisd	 xmm3, xmm2
  000b1	77 1a		 ja	 SHORT $LN20@Unguarded_

; 3734 : 				;
; 3735 : 			else if (_Pred(*_Gfirst, *_Pfirst))

  000b3	0f 5a c9	 cvtps2pd xmm1, xmm1
  000b6	0f 5a c0	 cvtps2pd xmm0, xmm0
  000b9	66 0f 2f c1	 comisd	 xmm0, xmm1
  000bd	77 52		 ja	 SHORT $LN97@Unguarded_

; 3736 : 				break;
; 3737 : 			else
; 3738 : 				_STD iter_swap(_Plast++, _Gfirst);

  000bf	8b c7		 mov	 eax, edi
  000c1	53		 push	 ebx
  000c2	83 c7 20	 add	 edi, 32			; 00000020H
  000c5	50		 push	 eax
$LN104@Unguarded_:
  000c6	e8 00 00 00 00	 call	 ??$swap@UtagBaseCharDistanceSq@@@std@@YAXAAUtagBaseCharDistanceSq@@0@Z ; std::swap<tagBaseCharDistanceSq>
  000cb	59		 pop	 ecx
  000cc	59		 pop	 ecx
$LN20@Unguarded_:

; 3729 : 
; 3730 : 	for (; ; )
; 3731 : 		{	// partition
; 3732 : 		for (; _Gfirst < _Last; ++_Gfirst)

  000cd	83 c3 20	 add	 ebx, 32			; 00000020H
$LN102@Unguarded_:
  000d0	3b 5d 10	 cmp	 ebx, DWORD PTR __Last$[ebp]
  000d3	72 c8		 jb	 SHORT $LL21@Unguarded_

; 3739 : 		for (; _First < _Glast; --_Glast)

  000d5	eb 3a		 jmp	 SHORT $LN97@Unguarded_
$LL99@Unguarded_:

; 3740 : 			if (_DEBUG_LT_PRED(_Pred, *(_Glast - 1), *_Pfirst))

  000d7	8b 4d fc	 mov	 ecx, DWORD PTR __Glast$[ebp]
  000da	f3 0f 10 41 f0	 movss	 xmm0, DWORD PTR [ecx-16]
  000df	f3 0f 10 4e 10	 movss	 xmm1, DWORD PTR [esi+16]
  000e4	0f 5a d0	 cvtps2pd xmm2, xmm0
  000e7	0f 5a d9	 cvtps2pd xmm3, xmm1
  000ea	66 0f 2f da	 comisd	 xmm3, xmm2
  000ee	77 1d		 ja	 SHORT $LN13@Unguarded_

; 3741 : 				;
; 3742 : 			else if (_Pred(*_Pfirst, *(_Glast - 1)))

  000f0	0f 5a c9	 cvtps2pd xmm1, xmm1
  000f3	0f 5a c0	 cvtps2pd xmm0, xmm0
  000f6	66 0f 2f c1	 comisd	 xmm0, xmm1
  000fa	77 1d		 ja	 SHORT $LN98@Unguarded_

; 3739 : 		for (; _First < _Glast; --_Glast)

  000fc	8b c1		 mov	 eax, ecx
  000fe	83 c0 e0	 add	 eax, -32		; ffffffe0H

; 3743 : 				break;
; 3744 : 			else
; 3745 : 				_STD iter_swap(--_Pfirst, _Glast - 1);

  00101	83 ee 20	 sub	 esi, 32			; 00000020H
  00104	50		 push	 eax
  00105	56		 push	 esi
  00106	e8 00 00 00 00	 call	 ??$swap@UtagBaseCharDistanceSq@@@std@@YAXAAUtagBaseCharDistanceSq@@0@Z ; std::swap<tagBaseCharDistanceSq>
  0010b	59		 pop	 ecx
  0010c	59		 pop	 ecx
$LN13@Unguarded_:

; 3739 : 		for (; _First < _Glast; --_Glast)

  0010d	83 6d fc 20	 sub	 DWORD PTR __Glast$[ebp], 32 ; 00000020H
$LN97@Unguarded_:
  00111	8b 45 0c	 mov	 eax, DWORD PTR __First$[ebp]
  00114	3b 45 fc	 cmp	 eax, DWORD PTR __Glast$[ebp]
  00117	72 be		 jb	 SHORT $LL99@Unguarded_
$LN98@Unguarded_:

; 3746 : 		if (_Glast == _First && _Gfirst == _Last)

  00119	39 45 fc	 cmp	 DWORD PTR __Glast$[ebp], eax
  0011c	75 1f		 jne	 SHORT $LN6@Unguarded_
  0011e	3b 5d 10	 cmp	 ebx, DWORD PTR __Last$[ebp]
  00121	74 50		 je	 SHORT $LN88@Unguarded_

; 3748 : 
; 3749 : 		if (_Glast == _First)
; 3750 : 			{	// no room at bottom, rotate pivot upward
; 3751 : 			if (_Plast != _Gfirst)

  00123	3b fb		 cmp	 edi, ebx
  00125	74 09		 je	 SHORT $LN70@Unguarded_

; 3752 : 				_STD iter_swap(_Pfirst, _Plast);

  00127	57		 push	 edi
  00128	56		 push	 esi
  00129	e8 00 00 00 00	 call	 ??$swap@UtagBaseCharDistanceSq@@@std@@YAXAAUtagBaseCharDistanceSq@@0@Z ; std::swap<tagBaseCharDistanceSq>
  0012e	59		 pop	 ecx
  0012f	59		 pop	 ecx
$LN70@Unguarded_:

; 3753 : 			++_Plast;
; 3754 : 			_STD iter_swap(_Pfirst++, _Gfirst++);

  00130	53		 push	 ebx
  00131	56		 push	 esi
  00132	83 c7 20	 add	 edi, 32			; 00000020H
  00135	83 c6 20	 add	 esi, 32			; 00000020H
  00138	83 c3 20	 add	 ebx, 32			; 00000020H
  0013b	eb 21		 jmp	 SHORT $LN101@Unguarded_
$LN6@Unguarded_:

; 3755 : 			}
; 3756 : 		else if (_Gfirst == _Last)
; 3757 : 			{	// no room at top, rotate pivot downward
; 3758 : 			if (--_Glast != --_Pfirst)

  0013d	83 6d fc 20	 sub	 DWORD PTR __Glast$[ebp], 32 ; 00000020H
  00141	3b 5d 10	 cmp	 ebx, DWORD PTR __Last$[ebp]
  00144	75 24		 jne	 SHORT $LN3@Unguarded_
  00146	83 ee 20	 sub	 esi, 32			; 00000020H
  00149	39 75 fc	 cmp	 DWORD PTR __Glast$[ebp], esi
  0014c	74 0b		 je	 SHORT $LN74@Unguarded_

; 3759 : 				_STD iter_swap(_Glast, _Pfirst);

  0014e	56		 push	 esi
  0014f	ff 75 fc	 push	 DWORD PTR __Glast$[ebp]
  00152	e8 00 00 00 00	 call	 ??$swap@UtagBaseCharDistanceSq@@@std@@YAXAAUtagBaseCharDistanceSq@@0@Z ; std::swap<tagBaseCharDistanceSq>
  00157	59		 pop	 ecx
  00158	59		 pop	 ecx
$LN74@Unguarded_:

; 3760 : 			_STD iter_swap(_Pfirst, --_Plast);

  00159	83 ef 20	 sub	 edi, 32			; 00000020H
  0015c	57		 push	 edi
  0015d	56		 push	 esi
$LN101@Unguarded_:
  0015e	e8 00 00 00 00	 call	 ??$swap@UtagBaseCharDistanceSq@@@std@@YAXAAUtagBaseCharDistanceSq@@0@Z ; std::swap<tagBaseCharDistanceSq>
  00163	59		 pop	 ecx
  00164	59		 pop	 ecx

; 3761 : 			}
; 3762 : 		else

  00165	e9 66 ff ff ff	 jmp	 $LN102@Unguarded_
$LN3@Unguarded_:

; 3763 : 			_STD iter_swap(_Gfirst++, --_Glast);

  0016a	ff 75 fc	 push	 DWORD PTR __Glast$[ebp]
  0016d	53		 push	 ebx

; 3764 : 		}

  0016e	e9 53 ff ff ff	 jmp	 $LN104@Unguarded_
$LN88@Unguarded_:

; 3747 : 			return (_STD pair<_RanIt, _RanIt>(_Pfirst, _Plast));

  00173	8b 45 08	 mov	 eax, DWORD PTR ___$ReturnUdt$[ebp]
  00176	89 78 04	 mov	 DWORD PTR [eax+4], edi
  00179	5f		 pop	 edi
  0017a	89 30		 mov	 DWORD PTR [eax], esi
  0017c	5e		 pop	 esi
  0017d	5b		 pop	 ebx

; 3765 : 	}

  0017e	c9		 leave
  0017f	c3		 ret	 0
??$_Unguarded_partition@PAUtagBaseCharDistanceSq@@VBaseCharDistanceSqSort2@@@std@@YA?AU?$pair@PAUtagBaseCharDistanceSq@@PAU1@@0@PAUtagBaseCharDistanceSq@@0VBaseCharDistanceSqSort2@@@Z ENDP ; std::_Unguarded_partition<tagBaseCharDistanceSq *,BaseCharDistanceSqSort2>
_TEXT	ENDS
PUBLIC	??$make_heap@PAUtagBaseCharDistanceSq@@VBaseCharDistanceSqSort2@@@std@@YAXPAUtagBaseCharDistanceSq@@0VBaseCharDistanceSqSort2@@@Z ; std::make_heap<tagBaseCharDistanceSq *,BaseCharDistanceSqSort2>
; Function compile flags: /Ogsp
;	COMDAT ??$make_heap@PAUtagBaseCharDistanceSq@@VBaseCharDistanceSqSort2@@@std@@YAXPAUtagBaseCharDistanceSq@@0VBaseCharDistanceSqSort2@@@Z
_TEXT	SEGMENT
__First$ = 8						; size = 4
__Last$ = 12						; size = 4
__Pred$ = 16						; size = 1
??$make_heap@PAUtagBaseCharDistanceSq@@VBaseCharDistanceSqSort2@@@std@@YAXPAUtagBaseCharDistanceSq@@0VBaseCharDistanceSqSort2@@@Z PROC ; std::make_heap<tagBaseCharDistanceSq *,BaseCharDistanceSqSort2>, COMDAT

; 2672 : 	{	// make [_First, _Last) into a heap, using _Pred

  00000	55		 push	 ebp
  00001	8b ec		 mov	 ebp, esp

; 2673 : 	_DEBUG_RANGE(_First, _Last);
; 2674 : 	_DEBUG_POINTER(_Pred);
; 2675 : 	if (1 < _Last - _First)

  00003	8b 45 0c	 mov	 eax, DWORD PTR __Last$[ebp]
  00006	2b 45 08	 sub	 eax, DWORD PTR __First$[ebp]
  00009	83 e0 e0	 and	 eax, -32		; ffffffe0H
  0000c	83 f8 20	 cmp	 eax, 32			; 00000020H
  0000f	7e 15		 jle	 SHORT $LN1@make_heap

; 2676 : 		_Make_heap(_Unchecked(_First), _Unchecked(_Last), _Pred,
; 2677 : 			_Dist_type(_First), _Val_type(_First));

  00011	6a 00		 push	 0
  00013	6a 00		 push	 0
  00015	ff 75 10	 push	 DWORD PTR __Pred$[ebp]
  00018	ff 75 0c	 push	 DWORD PTR __Last$[ebp]
  0001b	ff 75 08	 push	 DWORD PTR __First$[ebp]
  0001e	e8 00 00 00 00	 call	 ??$_Make_heap@PAUtagBaseCharDistanceSq@@HU1@VBaseCharDistanceSqSort2@@@std@@YAXPAUtagBaseCharDistanceSq@@0VBaseCharDistanceSqSort2@@PAH0@Z ; std::_Make_heap<tagBaseCharDistanceSq *,int,tagBaseCharDistanceSq,BaseCharDistanceSqSort2>
  00023	83 c4 14	 add	 esp, 20			; 00000014H
$LN1@make_heap:

; 2678 : 	}

  00026	5d		 pop	 ebp
  00027	c3		 ret	 0
??$make_heap@PAUtagBaseCharDistanceSq@@VBaseCharDistanceSqSort2@@@std@@YAXPAUtagBaseCharDistanceSq@@0VBaseCharDistanceSqSort2@@@Z ENDP ; std::make_heap<tagBaseCharDistanceSq *,BaseCharDistanceSqSort2>
_TEXT	ENDS
PUBLIC	??$_Insertion_sort@PAUtagBaseCharDistanceSq@@VBaseCharDistanceSqSort2@@@std@@YAXPAUtagBaseCharDistanceSq@@0VBaseCharDistanceSqSort2@@@Z ; std::_Insertion_sort<tagBaseCharDistanceSq *,BaseCharDistanceSqSort2>
; Function compile flags: /Ogsp
;	COMDAT ??$_Insertion_sort@PAUtagBaseCharDistanceSq@@VBaseCharDistanceSqSort2@@@std@@YAXPAUtagBaseCharDistanceSq@@0VBaseCharDistanceSqSort2@@@Z
_TEXT	SEGMENT
__First$ = 8						; size = 4
__Last$ = 12						; size = 4
__Pred$ = 16						; size = 1
??$_Insertion_sort@PAUtagBaseCharDistanceSq@@VBaseCharDistanceSqSort2@@@std@@YAXPAUtagBaseCharDistanceSq@@0VBaseCharDistanceSqSort2@@@Z PROC ; std::_Insertion_sort<tagBaseCharDistanceSq *,BaseCharDistanceSqSort2>, COMDAT

; 3676 : 	{	// insertion sort [_First, _Last), using _Pred

  00000	55		 push	 ebp
  00001	8b ec		 mov	 ebp, esp

; 3677 : 	_Insertion_sort1(_First, _Last, _Pred, _Val_type(_First));

  00003	6a 00		 push	 0
  00005	ff 75 10	 push	 DWORD PTR __Pred$[ebp]
  00008	ff 75 0c	 push	 DWORD PTR __Last$[ebp]
  0000b	ff 75 08	 push	 DWORD PTR __First$[ebp]
  0000e	e8 00 00 00 00	 call	 ??$_Insertion_sort1@PAUtagBaseCharDistanceSq@@VBaseCharDistanceSqSort2@@U1@@std@@YAXPAUtagBaseCharDistanceSq@@0VBaseCharDistanceSqSort2@@0@Z ; std::_Insertion_sort1<tagBaseCharDistanceSq *,BaseCharDistanceSqSort2,tagBaseCharDistanceSq>
  00013	83 c4 10	 add	 esp, 16			; 00000010H

; 3678 : 	}

  00016	5d		 pop	 ebp
  00017	c3		 ret	 0
??$_Insertion_sort@PAUtagBaseCharDistanceSq@@VBaseCharDistanceSqSort2@@@std@@YAXPAUtagBaseCharDistanceSq@@0VBaseCharDistanceSqSort2@@@Z ENDP ; std::_Insertion_sort<tagBaseCharDistanceSq *,BaseCharDistanceSqSort2>
_TEXT	ENDS
PUBLIC	??$_Uninit_copy@V?$_Vector_const_iterator@V?$_Vector_val@UWeaponInfo@@V?$allocator@UWeaponInfo@@@std@@@std@@@std@@PAUWeaponInfo@@V?$allocator@UWeaponInfo@@@2@@std@@YAPAUWeaponInfo@@V?$_Vector_const_iterator@V?$_Vector_val@UWeaponInfo@@V?$allocator@UWeaponInfo@@@std@@@std@@@0@0PAU1@AAV?$allocator@UWeaponInfo@@@0@U_Nonscalar_ptr_iterator_tag@0@@Z ; std::_Uninit_copy<std::_Vector_const_iterator<std::_Vector_val<WeaponInfo,std::allocator<WeaponInfo> > >,WeaponInfo *,std::allocator<WeaponInfo> >
EXTRN	__EH_prolog3_catch:PROC
;	COMDAT xdata$x
; File d:\lost saga for developer\youtube\tutorial\source\src\lsclient\playentityhelpstruct.h
xdata$x	SEGMENT
__catchsym$??$_Uninit_copy@V?$_Vector_const_iterator@V?$_Vector_val@UWeaponInfo@@V?$allocator@UWeaponInfo@@@std@@@std@@@std@@PAUWeaponInfo@@V?$allocator@UWeaponInfo@@@2@@std@@YAPAUWeaponInfo@@V?$_Vector_const_iterator@V?$_Vector_val@UWeaponInfo@@V?$allocator@UWeaponInfo@@@std@@@std@@@0@0PAU1@AAV?$allocator@UWeaponInfo@@@0@U_Nonscalar_ptr_iterator_tag@0@@Z$3 DD 040H
	DD	00H
	DD	00H
	DD	FLAT:__catch$??$_Uninit_copy@V?$_Vector_const_iterator@V?$_Vector_val@UWeaponInfo@@V?$allocator@UWeaponInfo@@@std@@@std@@@std@@PAUWeaponInfo@@V?$allocator@UWeaponInfo@@@2@@std@@YAPAUWeaponInfo@@V?$_Vector_const_iterator@V?$_Vector_val@UWeaponInfo@@V?$allocator@UWeaponInfo@@@std@@@std@@@0@0PAU1@AAV?$allocator@UWeaponInfo@@@0@U_Nonscalar_ptr_iterator_tag@0@@Z$0
__unwindtable$??$_Uninit_copy@V?$_Vector_const_iterator@V?$_Vector_val@UWeaponInfo@@V?$allocator@UWeaponInfo@@@std@@@std@@@std@@PAUWeaponInfo@@V?$allocator@UWeaponInfo@@@2@@std@@YAPAUWeaponInfo@@V?$_Vector_const_iterator@V?$_Vector_val@UWeaponInfo@@V?$allocator@UWeaponInfo@@@std@@@std@@@0@0PAU1@AAV?$allocator@UWeaponInfo@@@0@U_Nonscalar_ptr_iterator_tag@0@@Z DD 0ffffffffH
	DD	00H
	DD	0ffffffffH
	DD	00H
__tryblocktable$??$_Uninit_copy@V?$_Vector_const_iterator@V?$_Vector_val@UWeaponInfo@@V?$allocator@UWeaponInfo@@@std@@@std@@@std@@PAUWeaponInfo@@V?$allocator@UWeaponInfo@@@2@@std@@YAPAUWeaponInfo@@V?$_Vector_const_iterator@V?$_Vector_val@UWeaponInfo@@V?$allocator@UWeaponInfo@@@std@@@std@@@0@0PAU1@AAV?$allocator@UWeaponInfo@@@0@U_Nonscalar_ptr_iterator_tag@0@@Z DD 00H
	DD	00H
	DD	01H
	DD	01H
	DD	FLAT:__catchsym$??$_Uninit_copy@V?$_Vector_const_iterator@V?$_Vector_val@UWeaponInfo@@V?$allocator@UWeaponInfo@@@std@@@std@@@std@@PAUWeaponInfo@@V?$allocator@UWeaponInfo@@@2@@std@@YAPAUWeaponInfo@@V?$_Vector_const_iterator@V?$_Vector_val@UWeaponInfo@@V?$allocator@UWeaponInfo@@@std@@@std@@@0@0PAU1@AAV?$allocator@UWeaponInfo@@@0@U_Nonscalar_ptr_iterator_tag@0@@Z$3
__ehfuncinfo$??$_Uninit_copy@V?$_Vector_const_iterator@V?$_Vector_val@UWeaponInfo@@V?$allocator@UWeaponInfo@@@std@@@std@@@std@@PAUWeaponInfo@@V?$allocator@UWeaponInfo@@@2@@std@@YAPAUWeaponInfo@@V?$_Vector_const_iterator@V?$_Vector_val@UWeaponInfo@@V?$allocator@UWeaponInfo@@@std@@@std@@@0@0PAU1@AAV?$allocator@UWeaponInfo@@@0@U_Nonscalar_ptr_iterator_tag@0@@Z DD 019930522H
	DD	02H
	DD	FLAT:__unwindtable$??$_Uninit_copy@V?$_Vector_const_iterator@V?$_Vector_val@UWeaponInfo@@V?$allocator@UWeaponInfo@@@std@@@std@@@std@@PAUWeaponInfo@@V?$allocator@UWeaponInfo@@@2@@std@@YAPAUWeaponInfo@@V?$_Vector_const_iterator@V?$_Vector_val@UWeaponInfo@@V?$allocator@UWeaponInfo@@@std@@@std@@@0@0PAU1@AAV?$allocator@UWeaponInfo@@@0@U_Nonscalar_ptr_iterator_tag@0@@Z
	DD	01H
	DD	FLAT:__tryblocktable$??$_Uninit_copy@V?$_Vector_const_iterator@V?$_Vector_val@UWeaponInfo@@V?$allocator@UWeaponInfo@@@std@@@std@@@std@@PAUWeaponInfo@@V?$allocator@UWeaponInfo@@@2@@std@@YAPAUWeaponInfo@@V?$_Vector_const_iterator@V?$_Vector_val@UWeaponInfo@@V?$allocator@UWeaponInfo@@@std@@@std@@@0@0PAU1@AAV?$allocator@UWeaponInfo@@@0@U_Nonscalar_ptr_iterator_tag@0@@Z
	DD	2 DUP(00H)
	DD	00H
	DD	01H
; Function compile flags: /Ogsp
; File c:\program files (x86)\microsoft visual studio 10.0\vc\include\memory
xdata$x	ENDS
;	COMDAT ??$_Uninit_copy@V?$_Vector_const_iterator@V?$_Vector_val@UWeaponInfo@@V?$allocator@UWeaponInfo@@@std@@@std@@@std@@PAUWeaponInfo@@V?$allocator@UWeaponInfo@@@2@@std@@YAPAUWeaponInfo@@V?$_Vector_const_iterator@V?$_Vector_val@UWeaponInfo@@V?$allocator@UWeaponInfo@@@std@@@std@@@0@0PAU1@AAV?$allocator@UWeaponInfo@@@0@U_Nonscalar_ptr_iterator_tag@0@@Z
_TEXT	SEGMENT
__Next$ = -20						; size = 4
__$EHRec$ = -16						; size = 16
__First$ = 8						; size = 4
__Last$ = 12						; size = 4
__Dest$ = 16						; size = 4
__Al$ = 20						; size = 4
___formal$ = 24						; size = 1
??$_Uninit_copy@V?$_Vector_const_iterator@V?$_Vector_val@UWeaponInfo@@V?$allocator@UWeaponInfo@@@std@@@std@@@std@@PAUWeaponInfo@@V?$allocator@UWeaponInfo@@@2@@std@@YAPAUWeaponInfo@@V?$_Vector_const_iterator@V?$_Vector_val@UWeaponInfo@@V?$allocator@UWeaponInfo@@@std@@@std@@@0@0PAU1@AAV?$allocator@UWeaponInfo@@@0@U_Nonscalar_ptr_iterator_tag@0@@Z PROC ; std::_Uninit_copy<std::_Vector_const_iterator<std::_Vector_val<WeaponInfo,std::allocator<WeaponInfo> > >,WeaponInfo *,std::allocator<WeaponInfo> >, COMDAT

; 369  : 	{	// copy [_First, _Last) to raw _Dest, using _Al, arbitrary type

  00000	6a 08		 push	 8
  00002	b8 00 00 00 00	 mov	 eax, __ehhandler$??$_Uninit_copy@V?$_Vector_const_iterator@V?$_Vector_val@UWeaponInfo@@V?$allocator@UWeaponInfo@@@std@@@std@@@std@@PAUWeaponInfo@@V?$allocator@UWeaponInfo@@@2@@std@@YAPAUWeaponInfo@@V?$_Vector_const_iterator@V?$_Vector_val@UWeaponInfo@@V?$allocator@UWeaponInfo@@@std@@@std@@@0@0PAU1@AAV?$allocator@UWeaponInfo@@@0@U_Nonscalar_ptr_iterator_tag@0@@Z
  00007	e8 00 00 00 00	 call	 __EH_prolog3_catch

; 370  : 	_DEBUG_RANGE(_First, _Last);
; 371  : 	_DEBUG_POINTER(_Dest);
; 372  : 	_FwdIt _Next = _Dest;

  0000c	8b 45 10	 mov	 eax, DWORD PTR __Dest$[ebp]

; 373  : 
; 374  : 	_TRY_BEGIN

  0000f	83 65 fc 00	 and	 DWORD PTR __$EHRec$[ebp+12], 0
  00013	89 45 ec	 mov	 DWORD PTR __Next$[ebp], eax

; 375  : 	for (; _First != _Last; ++_Dest, ++_First)

$LL14@Uninit_cop@2:
  00016	8b 45 08	 mov	 eax, DWORD PTR __First$[ebp]
  00019	3b 45 0c	 cmp	 eax, DWORD PTR __Last$[ebp]
  0001c	74 34		 je	 SHORT $LN4@Uninit_cop@2

; 376  : 		_Cons_val(_Al, _Dest, *_First);

  0001e	50		 push	 eax
  0001f	ff 75 10	 push	 DWORD PTR __Dest$[ebp]
  00022	e8 00 00 00 00	 call	 ??$_Construct@UWeaponInfo@@ABU1@@std@@YAXPAUWeaponInfo@@ABU1@@Z ; std::_Construct<WeaponInfo,WeaponInfo const &>
  00027	83 45 10 28	 add	 DWORD PTR __Dest$[ebp], 40 ; 00000028H
  0002b	83 45 08 28	 add	 DWORD PTR __First$[ebp], 40 ; 00000028H
  0002f	59		 pop	 ecx
  00030	59		 pop	 ecx
  00031	eb e3		 jmp	 SHORT $LL14@Uninit_cop@2
__catch$??$_Uninit_copy@V?$_Vector_const_iterator@V?$_Vector_val@UWeaponInfo@@V?$allocator@UWeaponInfo@@@std@@@std@@@std@@PAUWeaponInfo@@V?$allocator@UWeaponInfo@@@2@@std@@YAPAUWeaponInfo@@V?$_Vector_const_iterator@V?$_Vector_val@UWeaponInfo@@V?$allocator@UWeaponInfo@@@std@@@std@@@0@0PAU1@AAV?$allocator@UWeaponInfo@@@0@U_Nonscalar_ptr_iterator_tag@0@@Z$0:

; 377  : 	_CATCH_ALL
; 378  : 	for (; _Next != _Dest; ++_Next)

  00033	8b 75 ec	 mov	 esi, DWORD PTR __Next$[ebp]
  00036	eb 0c		 jmp	 SHORT $LN48@Uninit_cop@2
$LL3@Uninit_cop@2:

; 379  : 		_Dest_val(_Al, _Next);

  00038	8d 4e 08	 lea	 ecx, DWORD PTR [esi+8]
  0003b	ff 15 00 00 00
	00		 call	 DWORD PTR __imp_??1ioHashString@@QAE@XZ
  00041	83 c6 28	 add	 esi, 40			; 00000028H
$LN48@Uninit_cop@2:

; 377  : 	_CATCH_ALL
; 378  : 	for (; _Next != _Dest; ++_Next)

  00044	3b 75 10	 cmp	 esi, DWORD PTR __Dest$[ebp]
  00047	75 ef		 jne	 SHORT $LL3@Uninit_cop@2

; 380  : 	_RERAISE;

  00049	6a 00		 push	 0
  0004b	6a 00		 push	 0
  0004d	e8 00 00 00 00	 call	 __CxxThrowException@8
$LN49@Uninit_cop@2:
$LN4@Uninit_cop@2:

; 381  : 	_CATCH_END
; 382  : 	return (_Dest);

  00052	8b 45 10	 mov	 eax, DWORD PTR __Dest$[ebp]

; 383  : 	}

  00055	e8 00 00 00 00	 call	 __EH_epilog3
  0005a	c3		 ret	 0
$LN47@Uninit_cop@2:
_TEXT	ENDS
;	COMDAT text$x
text$x	SEGMENT
__ehhandler$??$_Uninit_copy@V?$_Vector_const_iterator@V?$_Vector_val@UWeaponInfo@@V?$allocator@UWeaponInfo@@@std@@@std@@@std@@PAUWeaponInfo@@V?$allocator@UWeaponInfo@@@2@@std@@YAPAUWeaponInfo@@V?$_Vector_const_iterator@V?$_Vector_val@UWeaponInfo@@V?$allocator@UWeaponInfo@@@std@@@std@@@0@0PAU1@AAV?$allocator@UWeaponInfo@@@0@U_Nonscalar_ptr_iterator_tag@0@@Z:
  00000	8b 54 24 08	 mov	 edx, DWORD PTR [esp+8]
  00004	8d 42 0c	 lea	 eax, DWORD PTR [edx+12]
  00007	8b 4a e8	 mov	 ecx, DWORD PTR [edx-24]
  0000a	33 c8		 xor	 ecx, eax
  0000c	e8 00 00 00 00	 call	 @__security_check_cookie@4
  00011	b8 00 00 00 00	 mov	 eax, OFFSET __ehfuncinfo$??$_Uninit_copy@V?$_Vector_const_iterator@V?$_Vector_val@UWeaponInfo@@V?$allocator@UWeaponInfo@@@std@@@std@@@std@@PAUWeaponInfo@@V?$allocator@UWeaponInfo@@@2@@std@@YAPAUWeaponInfo@@V?$_Vector_const_iterator@V?$_Vector_val@UWeaponInfo@@V?$allocator@UWeaponInfo@@@std@@@std@@@0@0PAU1@AAV?$allocator@UWeaponInfo@@@0@U_Nonscalar_ptr_iterator_tag@0@@Z
  00016	e9 00 00 00 00	 jmp	 ___CxxFrameHandler3
text$x	ENDS
??$_Uninit_copy@V?$_Vector_const_iterator@V?$_Vector_val@UWeaponInfo@@V?$allocator@UWeaponInfo@@@std@@@std@@@std@@PAUWeaponInfo@@V?$allocator@UWeaponInfo@@@2@@std@@YAPAUWeaponInfo@@V?$_Vector_const_iterator@V?$_Vector_val@UWeaponInfo@@V?$allocator@UWeaponInfo@@@std@@@std@@@0@0PAU1@AAV?$allocator@UWeaponInfo@@@0@U_Nonscalar_ptr_iterator_tag@0@@Z ENDP ; std::_Uninit_copy<std::_Vector_const_iterator<std::_Vector_val<WeaponInfo,std::allocator<WeaponInfo> > >,WeaponInfo *,std::allocator<WeaponInfo> >
PUBLIC	??$_Uninit_move@PAUtagBaseCharDistanceSq@@PAU1@V?$allocator@UtagBaseCharDistanceSq@@@std@@U1@@std@@YAPAUtagBaseCharDistanceSq@@PAU1@00AAV?$allocator@UtagBaseCharDistanceSq@@@0@0U_Nonscalar_ptr_iterator_tag@0@@Z ; std::_Uninit_move<tagBaseCharDistanceSq *,tagBaseCharDistanceSq *,std::allocator<tagBaseCharDistanceSq>,tagBaseCharDistanceSq>
;	COMDAT xdata$x
; File d:\lost saga for developer\youtube\tutorial\source\src\lsclient\iokeymarkattackbuff.cpp
xdata$x	SEGMENT
__catchsym$??$_Uninit_move@PAUtagBaseCharDistanceSq@@PAU1@V?$allocator@UtagBaseCharDistanceSq@@@std@@U1@@std@@YAPAUtagBaseCharDistanceSq@@PAU1@00AAV?$allocator@UtagBaseCharDistanceSq@@@0@0U_Nonscalar_ptr_iterator_tag@0@@Z$3 DD 040H
	DD	00H
	DD	00H
	DD	FLAT:__catch$??$_Uninit_move@PAUtagBaseCharDistanceSq@@PAU1@V?$allocator@UtagBaseCharDistanceSq@@@std@@U1@@std@@YAPAUtagBaseCharDistanceSq@@PAU1@00AAV?$allocator@UtagBaseCharDistanceSq@@@0@0U_Nonscalar_ptr_iterator_tag@0@@Z$0
__unwindtable$??$_Uninit_move@PAUtagBaseCharDistanceSq@@PAU1@V?$allocator@UtagBaseCharDistanceSq@@@std@@U1@@std@@YAPAUtagBaseCharDistanceSq@@PAU1@00AAV?$allocator@UtagBaseCharDistanceSq@@@0@0U_Nonscalar_ptr_iterator_tag@0@@Z DD 0ffffffffH
	DD	00H
	DD	0ffffffffH
	DD	00H
__tryblocktable$??$_Uninit_move@PAUtagBaseCharDistanceSq@@PAU1@V?$allocator@UtagBaseCharDistanceSq@@@std@@U1@@std@@YAPAUtagBaseCharDistanceSq@@PAU1@00AAV?$allocator@UtagBaseCharDistanceSq@@@0@0U_Nonscalar_ptr_iterator_tag@0@@Z DD 00H
	DD	00H
	DD	01H
	DD	01H
	DD	FLAT:__catchsym$??$_Uninit_move@PAUtagBaseCharDistanceSq@@PAU1@V?$allocator@UtagBaseCharDistanceSq@@@std@@U1@@std@@YAPAUtagBaseCharDistanceSq@@PAU1@00AAV?$allocator@UtagBaseCharDistanceSq@@@0@0U_Nonscalar_ptr_iterator_tag@0@@Z$3
__ehfuncinfo$??$_Uninit_move@PAUtagBaseCharDistanceSq@@PAU1@V?$allocator@UtagBaseCharDistanceSq@@@std@@U1@@std@@YAPAUtagBaseCharDistanceSq@@PAU1@00AAV?$allocator@UtagBaseCharDistanceSq@@@0@0U_Nonscalar_ptr_iterator_tag@0@@Z DD 019930522H
	DD	02H
	DD	FLAT:__unwindtable$??$_Uninit_move@PAUtagBaseCharDistanceSq@@PAU1@V?$allocator@UtagBaseCharDistanceSq@@@std@@U1@@std@@YAPAUtagBaseCharDistanceSq@@PAU1@00AAV?$allocator@UtagBaseCharDistanceSq@@@0@0U_Nonscalar_ptr_iterator_tag@0@@Z
	DD	01H
	DD	FLAT:__tryblocktable$??$_Uninit_move@PAUtagBaseCharDistanceSq@@PAU1@V?$allocator@UtagBaseCharDistanceSq@@@std@@U1@@std@@YAPAUtagBaseCharDistanceSq@@PAU1@00AAV?$allocator@UtagBaseCharDistanceSq@@@0@0U_Nonscalar_ptr_iterator_tag@0@@Z
	DD	2 DUP(00H)
	DD	00H
	DD	01H
; Function compile flags: /Ogsp
; File c:\program files (x86)\microsoft visual studio 10.0\vc\include\memory
xdata$x	ENDS
;	COMDAT ??$_Uninit_move@PAUtagBaseCharDistanceSq@@PAU1@V?$allocator@UtagBaseCharDistanceSq@@@std@@U1@@std@@YAPAUtagBaseCharDistanceSq@@PAU1@00AAV?$allocator@UtagBaseCharDistanceSq@@@0@0U_Nonscalar_ptr_iterator_tag@0@@Z
_TEXT	SEGMENT
__Next$ = -20						; size = 4
__$EHRec$ = -16						; size = 16
__First$ = 8						; size = 4
__Last$ = 12						; size = 4
__Dest$ = 16						; size = 4
__Al$ = 20						; size = 4
___formal$ = 24						; size = 4
___formal$ = 28						; size = 1
??$_Uninit_move@PAUtagBaseCharDistanceSq@@PAU1@V?$allocator@UtagBaseCharDistanceSq@@@std@@U1@@std@@YAPAUtagBaseCharDistanceSq@@PAU1@00AAV?$allocator@UtagBaseCharDistanceSq@@@0@0U_Nonscalar_ptr_iterator_tag@0@@Z PROC ; std::_Uninit_move<tagBaseCharDistanceSq *,tagBaseCharDistanceSq *,std::allocator<tagBaseCharDistanceSq>,tagBaseCharDistanceSq>, COMDAT

; 424  : 	{	// move [_First, _Last) to raw _Dest, using _Al, arbitrary type

  00000	6a 08		 push	 8
  00002	b8 00 00 00 00	 mov	 eax, __ehhandler$??$_Uninit_move@PAUtagBaseCharDistanceSq@@PAU1@V?$allocator@UtagBaseCharDistanceSq@@@std@@U1@@std@@YAPAUtagBaseCharDistanceSq@@PAU1@00AAV?$allocator@UtagBaseCharDistanceSq@@@0@0U_Nonscalar_ptr_iterator_tag@0@@Z
  00007	e8 00 00 00 00	 call	 __EH_prolog3_catch

; 425  : 	_DEBUG_RANGE(_First, _Last);
; 426  : 	_DEBUG_POINTER(_Dest);
; 427  : 	_FwdIt _Next = _Dest;

  0000c	8b 45 10	 mov	 eax, DWORD PTR __Dest$[ebp]

; 428  : 
; 429  : 	_TRY_BEGIN

  0000f	83 65 fc 00	 and	 DWORD PTR __$EHRec$[ebp+12], 0
  00013	8b 75 08	 mov	 esi, DWORD PTR __First$[ebp]
  00016	89 45 ec	 mov	 DWORD PTR __Next$[ebp], eax
$LL6@Uninit_mov:

; 430  : 	for (; _First != _Last; ++_Dest, ++_First)

  00019	3b 75 0c	 cmp	 esi, DWORD PTR __Last$[ebp]
  0001c	74 36		 je	 SHORT $LN4@Uninit_mov

; 431  : 		_Cons_val(_Al, _Dest, (_Valty &&)*_First);

  0001e	56		 push	 esi
  0001f	ff 75 10	 push	 DWORD PTR __Dest$[ebp]
  00022	ff 75 14	 push	 DWORD PTR __Al$[ebp]
  00025	e8 00 00 00 00	 call	 ??$_Cons_val@V?$allocator@UtagBaseCharDistanceSq@@@std@@UtagBaseCharDistanceSq@@U3@@std@@YAXAAV?$allocator@UtagBaseCharDistanceSq@@@0@PAUtagBaseCharDistanceSq@@$$QAU2@@Z ; std::_Cons_val<std::allocator<tagBaseCharDistanceSq>,tagBaseCharDistanceSq,tagBaseCharDistanceSq>
  0002a	83 45 10 20	 add	 DWORD PTR __Dest$[ebp], 32 ; 00000020H
  0002e	83 c4 0c	 add	 esp, 12			; 0000000cH
  00031	83 c6 20	 add	 esi, 32			; 00000020H
  00034	eb e3		 jmp	 SHORT $LL6@Uninit_mov
__catch$??$_Uninit_move@PAUtagBaseCharDistanceSq@@PAU1@V?$allocator@UtagBaseCharDistanceSq@@@std@@U1@@std@@YAPAUtagBaseCharDistanceSq@@PAU1@00AAV?$allocator@UtagBaseCharDistanceSq@@@0@0U_Nonscalar_ptr_iterator_tag@0@@Z$0:

; 432  : 	_CATCH_ALL
; 433  : 	for (; _Next != _Dest; ++_Next)

  00036	8b 75 ec	 mov	 esi, DWORD PTR __Next$[ebp]
  00039	eb 0b		 jmp	 SHORT $LN32@Uninit_mov
$LL3@Uninit_mov:

; 434  : 		_Dest_val(_Al, _Next);

  0003b	8b ce		 mov	 ecx, esi
  0003d	ff 15 00 00 00
	00		 call	 DWORD PTR __imp_??1ioHashString@@QAE@XZ
  00043	83 c6 20	 add	 esi, 32			; 00000020H
$LN32@Uninit_mov:

; 432  : 	_CATCH_ALL
; 433  : 	for (; _Next != _Dest; ++_Next)

  00046	3b 75 10	 cmp	 esi, DWORD PTR __Dest$[ebp]
  00049	75 f0		 jne	 SHORT $LL3@Uninit_mov

; 435  : 	_RERAISE;

  0004b	6a 00		 push	 0
  0004d	6a 00		 push	 0
  0004f	e8 00 00 00 00	 call	 __CxxThrowException@8
$LN33@Uninit_mov:
$LN4@Uninit_mov:

; 436  : 	_CATCH_END
; 437  : 	return (_Dest);

  00054	8b 45 10	 mov	 eax, DWORD PTR __Dest$[ebp]

; 438  : 	}

  00057	e8 00 00 00 00	 call	 __EH_epilog3
  0005c	c3		 ret	 0
$LN31@Uninit_mov:
_TEXT	ENDS
;	COMDAT text$x
text$x	SEGMENT
__ehhandler$??$_Uninit_move@PAUtagBaseCharDistanceSq@@PAU1@V?$allocator@UtagBaseCharDistanceSq@@@std@@U1@@std@@YAPAUtagBaseCharDistanceSq@@PAU1@00AAV?$allocator@UtagBaseCharDistanceSq@@@0@0U_Nonscalar_ptr_iterator_tag@0@@Z:
  00000	8b 54 24 08	 mov	 edx, DWORD PTR [esp+8]
  00004	8d 42 0c	 lea	 eax, DWORD PTR [edx+12]
  00007	8b 4a e8	 mov	 ecx, DWORD PTR [edx-24]
  0000a	33 c8		 xor	 ecx, eax
  0000c	e8 00 00 00 00	 call	 @__security_check_cookie@4
  00011	b8 00 00 00 00	 mov	 eax, OFFSET __ehfuncinfo$??$_Uninit_move@PAUtagBaseCharDistanceSq@@PAU1@V?$allocator@UtagBaseCharDistanceSq@@@std@@U1@@std@@YAPAUtagBaseCharDistanceSq@@PAU1@00AAV?$allocator@UtagBaseCharDistanceSq@@@0@0U_Nonscalar_ptr_iterator_tag@0@@Z
  00016	e9 00 00 00 00	 jmp	 ___CxxFrameHandler3
text$x	ENDS
??$_Uninit_move@PAUtagBaseCharDistanceSq@@PAU1@V?$allocator@UtagBaseCharDistanceSq@@@std@@U1@@std@@YAPAUtagBaseCharDistanceSq@@PAU1@00AAV?$allocator@UtagBaseCharDistanceSq@@@0@0U_Nonscalar_ptr_iterator_tag@0@@Z ENDP ; std::_Uninit_move<tagBaseCharDistanceSq *,tagBaseCharDistanceSq *,std::allocator<tagBaseCharDistanceSq>,tagBaseCharDistanceSq>
PUBLIC	??$_Pop_heap@PAUtagBaseCharDistanceSq@@VBaseCharDistanceSqSort2@@@std@@YAXPAUtagBaseCharDistanceSq@@0VBaseCharDistanceSqSort2@@@Z ; std::_Pop_heap<tagBaseCharDistanceSq *,BaseCharDistanceSqSort2>
; Function compile flags: /Ogsp
; File c:\program files (x86)\microsoft visual studio 10.0\vc\include\algorithm
;	COMDAT ??$_Pop_heap@PAUtagBaseCharDistanceSq@@VBaseCharDistanceSqSort2@@@std@@YAXPAUtagBaseCharDistanceSq@@0VBaseCharDistanceSqSort2@@@Z
_TEXT	SEGMENT
__First$ = 8						; size = 4
__Last$ = 12						; size = 4
__Pred$ = 16						; size = 1
??$_Pop_heap@PAUtagBaseCharDistanceSq@@VBaseCharDistanceSqSort2@@@std@@YAXPAUtagBaseCharDistanceSq@@0VBaseCharDistanceSqSort2@@@Z PROC ; std::_Pop_heap<tagBaseCharDistanceSq *,BaseCharDistanceSqSort2>, COMDAT

; 2610 : 	{	// pop *_First to *(_Last - 1) and reheap, using _Pred

  00000	55		 push	 ebp
  00001	8b ec		 mov	 ebp, esp

; 2611 : 	_Pop_heap_0(_Unchecked(_First), _Unchecked(_Last), _Pred,
; 2612 : 		_Val_type(_First));

  00003	6a 00		 push	 0
  00005	ff 75 10	 push	 DWORD PTR __Pred$[ebp]
  00008	ff 75 0c	 push	 DWORD PTR __Last$[ebp]
  0000b	ff 75 08	 push	 DWORD PTR __First$[ebp]
  0000e	e8 00 00 00 00	 call	 ??$_Pop_heap_0@PAUtagBaseCharDistanceSq@@U1@VBaseCharDistanceSqSort2@@@std@@YAXPAUtagBaseCharDistanceSq@@0VBaseCharDistanceSqSort2@@0@Z ; std::_Pop_heap_0<tagBaseCharDistanceSq *,tagBaseCharDistanceSq,BaseCharDistanceSqSort2>
  00013	83 c4 10	 add	 esp, 16			; 00000010H

; 2613 : 	}

  00016	5d		 pop	 ebp
  00017	c3		 ret	 0
??$_Pop_heap@PAUtagBaseCharDistanceSq@@VBaseCharDistanceSqSort2@@@std@@YAXPAUtagBaseCharDistanceSq@@0VBaseCharDistanceSqSort2@@@Z ENDP ; std::_Pop_heap<tagBaseCharDistanceSq *,BaseCharDistanceSqSort2>
_TEXT	ENDS
PUBLIC	??$_Destroy_range@V?$allocator@UForceInfo@@@std@@@std@@YAXPAUForceInfo@@0AAV?$allocator@UForceInfo@@@0@@Z ; std::_Destroy_range<std::allocator<ForceInfo> >
; Function compile flags: /Ogsp
; File c:\program files (x86)\microsoft visual studio 10.0\vc\include\xmemory
;	COMDAT ??$_Destroy_range@V?$allocator@UForceInfo@@@std@@@std@@YAXPAUForceInfo@@0AAV?$allocator@UForceInfo@@@0@@Z
_TEXT	SEGMENT
__First$ = 8						; size = 4
__Last$ = 12						; size = 4
__Al$ = 16						; size = 4
??$_Destroy_range@V?$allocator@UForceInfo@@@std@@@std@@YAXPAUForceInfo@@0AAV?$allocator@UForceInfo@@@0@@Z PROC ; std::_Destroy_range<std::allocator<ForceInfo> >, COMDAT

; 88   : 	_Destroy_range(_First, _Last, _Al, _Ptr_cat(_First, _Last));
; 89   : 	}

  00000	c3		 ret	 0
??$_Destroy_range@V?$allocator@UForceInfo@@@std@@@std@@YAXPAUForceInfo@@0AAV?$allocator@UForceInfo@@@0@@Z ENDP ; std::_Destroy_range<std::allocator<ForceInfo> >
_TEXT	ENDS
PUBLIC	??$_Destroy_range@V?$allocator@UWeaponInfo@@@std@@@std@@YAXPAUWeaponInfo@@0AAV?$allocator@UWeaponInfo@@@0@U_Nonscalar_ptr_iterator_tag@0@@Z ; std::_Destroy_range<std::allocator<WeaponInfo> >
; Function compile flags: /Ogsp
;	COMDAT ??$_Destroy_range@V?$allocator@UWeaponInfo@@@std@@@std@@YAXPAUWeaponInfo@@0AAV?$allocator@UWeaponInfo@@@0@U_Nonscalar_ptr_iterator_tag@0@@Z
_TEXT	SEGMENT
__First$ = 8						; size = 4
__Last$ = 12						; size = 4
__Al$ = 16						; size = 4
___formal$ = 20						; size = 1
??$_Destroy_range@V?$allocator@UWeaponInfo@@@std@@@std@@YAXPAUWeaponInfo@@0AAV?$allocator@UWeaponInfo@@@0@U_Nonscalar_ptr_iterator_tag@0@@Z PROC ; std::_Destroy_range<std::allocator<WeaponInfo> >, COMDAT

; 95   : 	{	// destroy [_First, _Last), arbitrary type

  00000	55		 push	 ebp
  00001	8b ec		 mov	 ebp, esp
  00003	56		 push	 esi

; 96   : 	for (; _First != _Last; ++_First)

  00004	8b 75 08	 mov	 esi, DWORD PTR __First$[ebp]
  00007	eb 0c		 jmp	 SHORT $LN20@Destroy_ra@2
$LL3@Destroy_ra@2:

; 97   : 		_Dest_val(_Al, _First);

  00009	8d 4e 08	 lea	 ecx, DWORD PTR [esi+8]
  0000c	ff 15 00 00 00
	00		 call	 DWORD PTR __imp_??1ioHashString@@QAE@XZ
  00012	83 c6 28	 add	 esi, 40			; 00000028H
$LN20@Destroy_ra@2:

; 96   : 	for (; _First != _Last; ++_First)

  00015	3b 75 0c	 cmp	 esi, DWORD PTR __Last$[ebp]
  00018	75 ef		 jne	 SHORT $LL3@Destroy_ra@2
  0001a	5e		 pop	 esi

; 98   : 	}

  0001b	5d		 pop	 ebp
  0001c	c3		 ret	 0
??$_Destroy_range@V?$allocator@UWeaponInfo@@@std@@@std@@YAXPAUWeaponInfo@@0AAV?$allocator@UWeaponInfo@@@0@U_Nonscalar_ptr_iterator_tag@0@@Z ENDP ; std::_Destroy_range<std::allocator<WeaponInfo> >
_TEXT	ENDS
PUBLIC	??$_Ucopy@V?$_Vector_const_iterator@V?$_Vector_val@UForceInfo@@V?$allocator@UForceInfo@@@std@@@std@@@std@@@?$vector@UForceInfo@@V?$allocator@UForceInfo@@@std@@@std@@IAEPAUForceInfo@@V?$_Vector_const_iterator@V?$_Vector_val@UForceInfo@@V?$allocator@UForceInfo@@@std@@@std@@@1@0PAU2@@Z ; std::vector<ForceInfo,std::allocator<ForceInfo> >::_Ucopy<std::_Vector_const_iterator<std::_Vector_val<ForceInfo,std::allocator<ForceInfo> > > >
; Function compile flags: /Ogsp
; File c:\program files (x86)\microsoft visual studio 10.0\vc\include\vector
;	COMDAT ??$_Ucopy@V?$_Vector_const_iterator@V?$_Vector_val@UForceInfo@@V?$allocator@UForceInfo@@@std@@@std@@@std@@@?$vector@UForceInfo@@V?$allocator@UForceInfo@@@std@@@std@@IAEPAUForceInfo@@V?$_Vector_const_iterator@V?$_Vector_val@UForceInfo@@V?$allocator@UForceInfo@@@std@@@std@@@1@0PAU2@@Z
_TEXT	SEGMENT
__First$ = 8						; size = 4
__Last$ = 12						; size = 4
__Cat$541727 = 16					; size = 1
__Ptr$ = 16						; size = 4
??$_Ucopy@V?$_Vector_const_iterator@V?$_Vector_val@UForceInfo@@V?$allocator@UForceInfo@@@std@@@std@@@std@@@?$vector@UForceInfo@@V?$allocator@UForceInfo@@@std@@@std@@IAEPAUForceInfo@@V?$_Vector_const_iterator@V?$_Vector_val@UForceInfo@@V?$allocator@UForceInfo@@@std@@@std@@@1@0PAU2@@Z PROC ; std::vector<ForceInfo,std::allocator<ForceInfo> >::_Ucopy<std::_Vector_const_iterator<std::_Vector_val<ForceInfo,std::allocator<ForceInfo> > > >, COMDAT
; _this$ = ecx

; 1315 : 		pointer _Ucopy(_Iter _First, _Iter _Last, pointer _Ptr)

  00000	55		 push	 ebp
  00001	8b ec		 mov	 ebp, esp

; 1316 : 		{	// copy initializing [_First, _Last), using allocator
; 1317 : 		return (_Uninitialized_copy(_First, _Last,
; 1318 : 			_Ptr, this->_Alval));

  00003	ff 75 10	 push	 DWORD PTR __Cat$541727[ebp]
  00006	83 c1 0c	 add	 ecx, 12			; 0000000cH
  00009	51		 push	 ecx
  0000a	ff 75 10	 push	 DWORD PTR __Ptr$[ebp]
  0000d	ff 75 0c	 push	 DWORD PTR __Last$[ebp]
  00010	ff 75 08	 push	 DWORD PTR __First$[ebp]
  00013	e8 00 00 00 00	 call	 ??$_Uninit_copy@V?$_Vector_const_iterator@V?$_Vector_val@UForceInfo@@V?$allocator@UForceInfo@@@std@@@std@@@std@@PAUForceInfo@@V?$allocator@UForceInfo@@@2@@std@@YAPAUForceInfo@@V?$_Vector_const_iterator@V?$_Vector_val@UForceInfo@@V?$allocator@UForceInfo@@@std@@@std@@@0@0PAU1@AAV?$allocator@UForceInfo@@@0@U_Nonscalar_ptr_iterator_tag@0@@Z ; std::_Uninit_copy<std::_Vector_const_iterator<std::_Vector_val<ForceInfo,std::allocator<ForceInfo> > >,ForceInfo *,std::allocator<ForceInfo> >
  00018	83 c4 14	 add	 esp, 20			; 00000014H

; 1319 : 		}

  0001b	5d		 pop	 ebp
  0001c	c2 0c 00	 ret	 12			; 0000000cH
??$_Ucopy@V?$_Vector_const_iterator@V?$_Vector_val@UForceInfo@@V?$allocator@UForceInfo@@@std@@@std@@@std@@@?$vector@UForceInfo@@V?$allocator@UForceInfo@@@std@@@std@@IAEPAUForceInfo@@V?$_Vector_const_iterator@V?$_Vector_val@UForceInfo@@V?$allocator@UForceInfo@@@std@@@std@@@1@0PAU2@@Z ENDP ; std::vector<ForceInfo,std::allocator<ForceInfo> >::_Ucopy<std::_Vector_const_iterator<std::_Vector_val<ForceInfo,std::allocator<ForceInfo> > > >
_TEXT	ENDS
PUBLIC	??$_Destroy_range@V?$allocator@UtagBaseCharDistanceSq@@@std@@@std@@YAXPAUtagBaseCharDistanceSq@@0AAV?$allocator@UtagBaseCharDistanceSq@@@0@@Z ; std::_Destroy_range<std::allocator<tagBaseCharDistanceSq> >
; Function compile flags: /Ogsp
; File c:\program files (x86)\microsoft visual studio 10.0\vc\include\xmemory
;	COMDAT ??$_Destroy_range@V?$allocator@UtagBaseCharDistanceSq@@@std@@@std@@YAXPAUtagBaseCharDistanceSq@@0AAV?$allocator@UtagBaseCharDistanceSq@@@0@@Z
_TEXT	SEGMENT
__First$ = 8						; size = 4
__Last$ = 12						; size = 4
__Al$ = 16						; size = 4
??$_Destroy_range@V?$allocator@UtagBaseCharDistanceSq@@@std@@@std@@YAXPAUtagBaseCharDistanceSq@@0AAV?$allocator@UtagBaseCharDistanceSq@@@0@@Z PROC ; std::_Destroy_range<std::allocator<tagBaseCharDistanceSq> >, COMDAT

; 87   : 	{	// destroy [_First, _Last)

  00000	55		 push	 ebp
  00001	8b ec		 mov	 ebp, esp
  00003	56		 push	 esi

; 88   : 	_Destroy_range(_First, _Last, _Al, _Ptr_cat(_First, _Last));

  00004	8b 75 08	 mov	 esi, DWORD PTR __First$[ebp]
  00007	eb 0b		 jmp	 SHORT $LN24@Destroy_ra@3
$LL7@Destroy_ra@3:
  00009	8b ce		 mov	 ecx, esi
  0000b	ff 15 00 00 00
	00		 call	 DWORD PTR __imp_??1ioHashString@@QAE@XZ
  00011	83 c6 20	 add	 esi, 32			; 00000020H
$LN24@Destroy_ra@3:
  00014	3b 75 0c	 cmp	 esi, DWORD PTR __Last$[ebp]
  00017	75 f0		 jne	 SHORT $LL7@Destroy_ra@3
  00019	5e		 pop	 esi

; 89   : 	}

  0001a	5d		 pop	 ebp
  0001b	c3		 ret	 0
??$_Destroy_range@V?$allocator@UtagBaseCharDistanceSq@@@std@@@std@@YAXPAUtagBaseCharDistanceSq@@0AAV?$allocator@UtagBaseCharDistanceSq@@@0@@Z ENDP ; std::_Destroy_range<std::allocator<tagBaseCharDistanceSq> >
_TEXT	ENDS
PUBLIC	??$_Uninitialized_copy@V?$_Vector_const_iterator@V?$_Vector_val@UWeaponInfo@@V?$allocator@UWeaponInfo@@@std@@@std@@@std@@PAUWeaponInfo@@V?$allocator@UWeaponInfo@@@2@@std@@YAPAUWeaponInfo@@V?$_Vector_const_iterator@V?$_Vector_val@UWeaponInfo@@V?$allocator@UWeaponInfo@@@std@@@std@@@0@0PAU1@AAV?$allocator@UWeaponInfo@@@0@@Z ; std::_Uninitialized_copy<std::_Vector_const_iterator<std::_Vector_val<WeaponInfo,std::allocator<WeaponInfo> > >,WeaponInfo *,std::allocator<WeaponInfo> >
; Function compile flags: /Ogsp
; File c:\program files (x86)\microsoft visual studio 10.0\vc\include\memory
;	COMDAT ??$_Uninitialized_copy@V?$_Vector_const_iterator@V?$_Vector_val@UWeaponInfo@@V?$allocator@UWeaponInfo@@@std@@@std@@@std@@PAUWeaponInfo@@V?$allocator@UWeaponInfo@@@2@@std@@YAPAUWeaponInfo@@V?$_Vector_const_iterator@V?$_Vector_val@UWeaponInfo@@V?$allocator@UWeaponInfo@@@std@@@std@@@0@0PAU1@AAV?$allocator@UWeaponInfo@@@0@@Z
_TEXT	SEGMENT
__Cat$541805 = -4					; size = 1
__First$ = 8						; size = 4
__Last$ = 12						; size = 4
__Dest$ = 16						; size = 4
__Al$ = 20						; size = 4
??$_Uninitialized_copy@V?$_Vector_const_iterator@V?$_Vector_val@UWeaponInfo@@V?$allocator@UWeaponInfo@@@std@@@std@@@std@@PAUWeaponInfo@@V?$allocator@UWeaponInfo@@@2@@std@@YAPAUWeaponInfo@@V?$_Vector_const_iterator@V?$_Vector_val@UWeaponInfo@@V?$allocator@UWeaponInfo@@@std@@@std@@@0@0PAU1@AAV?$allocator@UWeaponInfo@@@0@@Z PROC ; std::_Uninitialized_copy<std::_Vector_const_iterator<std::_Vector_val<WeaponInfo,std::allocator<WeaponInfo> > >,WeaponInfo *,std::allocator<WeaponInfo> >, COMDAT

; 412  : 	{	// copy [_First, _Last) to raw _Dest, using _Al

  00000	55		 push	 ebp
  00001	8b ec		 mov	 ebp, esp
  00003	51		 push	 ecx

; 413  : 	return (_Uninit_copy(_First, _Last, _Dest, _Al,
; 414  : 		_Ptr_cat(_First, _Dest)));

  00004	ff 75 fc	 push	 DWORD PTR __Cat$541805[ebp]
  00007	ff 75 14	 push	 DWORD PTR __Al$[ebp]
  0000a	ff 75 10	 push	 DWORD PTR __Dest$[ebp]
  0000d	ff 75 0c	 push	 DWORD PTR __Last$[ebp]
  00010	ff 75 08	 push	 DWORD PTR __First$[ebp]
  00013	e8 00 00 00 00	 call	 ??$_Uninit_copy@V?$_Vector_const_iterator@V?$_Vector_val@UWeaponInfo@@V?$allocator@UWeaponInfo@@@std@@@std@@@std@@PAUWeaponInfo@@V?$allocator@UWeaponInfo@@@2@@std@@YAPAUWeaponInfo@@V?$_Vector_const_iterator@V?$_Vector_val@UWeaponInfo@@V?$allocator@UWeaponInfo@@@std@@@std@@@0@0PAU1@AAV?$allocator@UWeaponInfo@@@0@U_Nonscalar_ptr_iterator_tag@0@@Z ; std::_Uninit_copy<std::_Vector_const_iterator<std::_Vector_val<WeaponInfo,std::allocator<WeaponInfo> > >,WeaponInfo *,std::allocator<WeaponInfo> >
  00018	83 c4 14	 add	 esp, 20			; 00000014H

; 415  : 	}

  0001b	c9		 leave
  0001c	c3		 ret	 0
??$_Uninitialized_copy@V?$_Vector_const_iterator@V?$_Vector_val@UWeaponInfo@@V?$allocator@UWeaponInfo@@@std@@@std@@@std@@PAUWeaponInfo@@V?$allocator@UWeaponInfo@@@2@@std@@YAPAUWeaponInfo@@V?$_Vector_const_iterator@V?$_Vector_val@UWeaponInfo@@V?$allocator@UWeaponInfo@@@std@@@std@@@0@0PAU1@AAV?$allocator@UWeaponInfo@@@0@@Z ENDP ; std::_Uninitialized_copy<std::_Vector_const_iterator<std::_Vector_val<WeaponInfo,std::allocator<WeaponInfo> > >,WeaponInfo *,std::allocator<WeaponInfo> >
_TEXT	ENDS
PUBLIC	??$_Uninitialized_move@PAUtagBaseCharDistanceSq@@PAU1@V?$allocator@UtagBaseCharDistanceSq@@@std@@@std@@YAPAUtagBaseCharDistanceSq@@PAU1@00AAV?$allocator@UtagBaseCharDistanceSq@@@0@@Z ; std::_Uninitialized_move<tagBaseCharDistanceSq *,tagBaseCharDistanceSq *,std::allocator<tagBaseCharDistanceSq> >
; Function compile flags: /Ogsp
;	COMDAT ??$_Uninitialized_move@PAUtagBaseCharDistanceSq@@PAU1@V?$allocator@UtagBaseCharDistanceSq@@@std@@@std@@YAPAUtagBaseCharDistanceSq@@PAU1@00AAV?$allocator@UtagBaseCharDistanceSq@@@0@@Z
_TEXT	SEGMENT
__Cat$541812 = -4					; size = 1
__First$ = 8						; size = 4
__Last$ = 12						; size = 4
__Dest$ = 16						; size = 4
__Al$ = 20						; size = 4
??$_Uninitialized_move@PAUtagBaseCharDistanceSq@@PAU1@V?$allocator@UtagBaseCharDistanceSq@@@std@@@std@@YAPAUtagBaseCharDistanceSq@@PAU1@00AAV?$allocator@UtagBaseCharDistanceSq@@@0@@Z PROC ; std::_Uninitialized_move<tagBaseCharDistanceSq *,tagBaseCharDistanceSq *,std::allocator<tagBaseCharDistanceSq> >, COMDAT

; 469  : 	{	// move [_First, _Last) to raw _Dest, using _Al

  00000	55		 push	 ebp
  00001	8b ec		 mov	 ebp, esp
  00003	51		 push	 ecx

; 470  : 	return (_Uninit_move(_First, _Last, _Dest, _Al,
; 471  : 		_Val_type(_First), _Ptr_cat(_First, _Dest)));

  00004	ff 75 fc	 push	 DWORD PTR __Cat$541812[ebp]
  00007	6a 00		 push	 0
  00009	ff 75 14	 push	 DWORD PTR __Al$[ebp]
  0000c	ff 75 10	 push	 DWORD PTR __Dest$[ebp]
  0000f	ff 75 0c	 push	 DWORD PTR __Last$[ebp]
  00012	ff 75 08	 push	 DWORD PTR __First$[ebp]
  00015	e8 00 00 00 00	 call	 ??$_Uninit_move@PAUtagBaseCharDistanceSq@@PAU1@V?$allocator@UtagBaseCharDistanceSq@@@std@@U1@@std@@YAPAUtagBaseCharDistanceSq@@PAU1@00AAV?$allocator@UtagBaseCharDistanceSq@@@0@0U_Nonscalar_ptr_iterator_tag@0@@Z ; std::_Uninit_move<tagBaseCharDistanceSq *,tagBaseCharDistanceSq *,std::allocator<tagBaseCharDistanceSq>,tagBaseCharDistanceSq>
  0001a	83 c4 18	 add	 esp, 24			; 00000018H

; 472  : 	}

  0001d	c9		 leave
  0001e	c3		 ret	 0
??$_Uninitialized_move@PAUtagBaseCharDistanceSq@@PAU1@V?$allocator@UtagBaseCharDistanceSq@@@std@@@std@@YAPAUtagBaseCharDistanceSq@@PAU1@00AAV?$allocator@UtagBaseCharDistanceSq@@@0@@Z ENDP ; std::_Uninitialized_move<tagBaseCharDistanceSq *,tagBaseCharDistanceSq *,std::allocator<tagBaseCharDistanceSq> >
_TEXT	ENDS
PUBLIC	??$_Sort_heap@PAUtagBaseCharDistanceSq@@VBaseCharDistanceSqSort2@@@std@@YAXPAUtagBaseCharDistanceSq@@0VBaseCharDistanceSqSort2@@@Z ; std::_Sort_heap<tagBaseCharDistanceSq *,BaseCharDistanceSqSort2>
; Function compile flags: /Ogsp
; File c:\program files (x86)\microsoft visual studio 10.0\vc\include\algorithm
;	COMDAT ??$_Sort_heap@PAUtagBaseCharDistanceSq@@VBaseCharDistanceSqSort2@@@std@@YAXPAUtagBaseCharDistanceSq@@0VBaseCharDistanceSqSort2@@@Z
_TEXT	SEGMENT
__First$ = 8						; size = 4
__Last$ = 12						; size = 4
__Pred$ = 16						; size = 1
??$_Sort_heap@PAUtagBaseCharDistanceSq@@VBaseCharDistanceSqSort2@@@std@@YAXPAUtagBaseCharDistanceSq@@0VBaseCharDistanceSqSort2@@@Z PROC ; std::_Sort_heap<tagBaseCharDistanceSq *,BaseCharDistanceSqSort2>, COMDAT

; 2700 : 	{	// order heap by repeatedly popping, using _Pred

  00000	55		 push	 ebp
  00001	8b ec		 mov	 ebp, esp

; 2701 : 	for (; 1 < _Last - _First; --_Last)

  00003	8b 45 0c	 mov	 eax, DWORD PTR __Last$[ebp]
  00006	2b 45 08	 sub	 eax, DWORD PTR __First$[ebp]
  00009	8b c8		 mov	 ecx, eax
  0000b	83 e1 e0	 and	 ecx, -32		; ffffffe0H
  0000e	83 f9 20	 cmp	 ecx, 32			; 00000020H
  00011	7e 28		 jle	 SHORT $LN1@Sort_heap
  00013	57		 push	 edi
  00014	8b f8		 mov	 edi, eax
$LL3@Sort_heap:

; 2702 : 		_Pop_heap(_First, _Last, _Pred);

  00016	6a 00		 push	 0
  00018	ff 75 10	 push	 DWORD PTR __Pred$[ebp]
  0001b	ff 75 0c	 push	 DWORD PTR __Last$[ebp]
  0001e	ff 75 08	 push	 DWORD PTR __First$[ebp]
  00021	e8 00 00 00 00	 call	 ??$_Pop_heap_0@PAUtagBaseCharDistanceSq@@U1@VBaseCharDistanceSqSort2@@@std@@YAXPAUtagBaseCharDistanceSq@@0VBaseCharDistanceSqSort2@@0@Z ; std::_Pop_heap_0<tagBaseCharDistanceSq *,tagBaseCharDistanceSq,BaseCharDistanceSqSort2>
  00026	83 6d 0c 20	 sub	 DWORD PTR __Last$[ebp], 32 ; 00000020H
  0002a	83 ef 20	 sub	 edi, 32			; 00000020H
  0002d	8b c7		 mov	 eax, edi
  0002f	83 e0 e0	 and	 eax, -32		; ffffffe0H
  00032	83 c4 10	 add	 esp, 16			; 00000010H
  00035	83 f8 20	 cmp	 eax, 32			; 00000020H
  00038	7f dc		 jg	 SHORT $LL3@Sort_heap
  0003a	5f		 pop	 edi
$LN1@Sort_heap:

; 2703 : 	}

  0003b	5d		 pop	 ebp
  0003c	c3		 ret	 0
??$_Sort_heap@PAUtagBaseCharDistanceSq@@VBaseCharDistanceSqSort2@@@std@@YAXPAUtagBaseCharDistanceSq@@0VBaseCharDistanceSqSort2@@@Z ENDP ; std::_Sort_heap<tagBaseCharDistanceSq *,BaseCharDistanceSqSort2>
_TEXT	ENDS
PUBLIC	?_Destroy@?$vector@UForceInfo@@V?$allocator@UForceInfo@@@std@@@std@@IAEXPAUForceInfo@@0@Z ; std::vector<ForceInfo,std::allocator<ForceInfo> >::_Destroy
; Function compile flags: /Ogsp
; File c:\program files (x86)\microsoft visual studio 10.0\vc\include\vector
;	COMDAT ?_Destroy@?$vector@UForceInfo@@V?$allocator@UForceInfo@@@std@@@std@@IAEXPAUForceInfo@@0@Z
_TEXT	SEGMENT
__First$ = 8						; size = 4
__Last$ = 12						; size = 4
?_Destroy@?$vector@UForceInfo@@V?$allocator@UForceInfo@@@std@@@std@@IAEXPAUForceInfo@@0@Z PROC ; std::vector<ForceInfo,std::allocator<ForceInfo> >::_Destroy, COMDAT
; _this$ = ecx

; 1270 : 		_Destroy_range(_First, _Last, this->_Alval);
; 1271 : 		}

  00000	c2 08 00	 ret	 8
?_Destroy@?$vector@UForceInfo@@V?$allocator@UForceInfo@@@std@@@std@@IAEXPAUForceInfo@@0@Z ENDP ; std::vector<ForceInfo,std::allocator<ForceInfo> >::_Destroy
_TEXT	ENDS
PUBLIC	??$_Destroy_range@V?$allocator@UWeaponInfo@@@std@@@std@@YAXPAUWeaponInfo@@0AAV?$allocator@UWeaponInfo@@@0@@Z ; std::_Destroy_range<std::allocator<WeaponInfo> >
; Function compile flags: /Ogsp
; File c:\program files (x86)\microsoft visual studio 10.0\vc\include\xmemory
;	COMDAT ??$_Destroy_range@V?$allocator@UWeaponInfo@@@std@@@std@@YAXPAUWeaponInfo@@0AAV?$allocator@UWeaponInfo@@@0@@Z
_TEXT	SEGMENT
__First$ = 8						; size = 4
__Last$ = 12						; size = 4
__Al$ = 16						; size = 4
??$_Destroy_range@V?$allocator@UWeaponInfo@@@std@@@std@@YAXPAUWeaponInfo@@0AAV?$allocator@UWeaponInfo@@@0@@Z PROC ; std::_Destroy_range<std::allocator<WeaponInfo> >, COMDAT

; 87   : 	{	// destroy [_First, _Last)

  00000	55		 push	 ebp
  00001	8b ec		 mov	 ebp, esp
  00003	56		 push	 esi

; 88   : 	_Destroy_range(_First, _Last, _Al, _Ptr_cat(_First, _Last));

  00004	8b 75 08	 mov	 esi, DWORD PTR __First$[ebp]
  00007	eb 0c		 jmp	 SHORT $LN24@Destroy_ra@4
$LL7@Destroy_ra@4:
  00009	8d 4e 08	 lea	 ecx, DWORD PTR [esi+8]
  0000c	ff 15 00 00 00
	00		 call	 DWORD PTR __imp_??1ioHashString@@QAE@XZ
  00012	83 c6 28	 add	 esi, 40			; 00000028H
$LN24@Destroy_ra@4:
  00015	3b 75 0c	 cmp	 esi, DWORD PTR __Last$[ebp]
  00018	75 ef		 jne	 SHORT $LL7@Destroy_ra@4
  0001a	5e		 pop	 esi

; 89   : 	}

  0001b	5d		 pop	 ebp
  0001c	c3		 ret	 0
??$_Destroy_range@V?$allocator@UWeaponInfo@@@std@@@std@@YAXPAUWeaponInfo@@0AAV?$allocator@UWeaponInfo@@@0@@Z ENDP ; std::_Destroy_range<std::allocator<WeaponInfo> >
_TEXT	ENDS
PUBLIC	?_Destroy@?$vector@UtagBaseCharDistanceSq@@V?$allocator@UtagBaseCharDistanceSq@@@std@@@std@@IAEXPAUtagBaseCharDistanceSq@@0@Z ; std::vector<tagBaseCharDistanceSq,std::allocator<tagBaseCharDistanceSq> >::_Destroy
; Function compile flags: /Ogsp
; File c:\program files (x86)\microsoft visual studio 10.0\vc\include\vector
;	COMDAT ?_Destroy@?$vector@UtagBaseCharDistanceSq@@V?$allocator@UtagBaseCharDistanceSq@@@std@@@std@@IAEXPAUtagBaseCharDistanceSq@@0@Z
_TEXT	SEGMENT
__First$ = 8						; size = 4
__Last$ = 12						; size = 4
?_Destroy@?$vector@UtagBaseCharDistanceSq@@V?$allocator@UtagBaseCharDistanceSq@@@std@@@std@@IAEXPAUtagBaseCharDistanceSq@@0@Z PROC ; std::vector<tagBaseCharDistanceSq,std::allocator<tagBaseCharDistanceSq> >::_Destroy, COMDAT
; _this$ = ecx

; 1269 : 		{	// destroy [_First, _Last) using allocator

  00000	55		 push	 ebp
  00001	8b ec		 mov	 ebp, esp
  00003	56		 push	 esi

; 1270 : 		_Destroy_range(_First, _Last, this->_Alval);

  00004	8b 75 08	 mov	 esi, DWORD PTR __First$[ebp]
  00007	eb 0b		 jmp	 SHORT $LN26@Destroy
$LL9@Destroy:
  00009	8b ce		 mov	 ecx, esi
  0000b	ff 15 00 00 00
	00		 call	 DWORD PTR __imp_??1ioHashString@@QAE@XZ
  00011	83 c6 20	 add	 esi, 32			; 00000020H
$LN26@Destroy:
  00014	3b 75 0c	 cmp	 esi, DWORD PTR __Last$[ebp]
  00017	75 f0		 jne	 SHORT $LL9@Destroy
  00019	5e		 pop	 esi

; 1271 : 		}

  0001a	5d		 pop	 ebp
  0001b	c2 08 00	 ret	 8
?_Destroy@?$vector@UtagBaseCharDistanceSq@@V?$allocator@UtagBaseCharDistanceSq@@@std@@@std@@IAEXPAUtagBaseCharDistanceSq@@0@Z ENDP ; std::vector<tagBaseCharDistanceSq,std::allocator<tagBaseCharDistanceSq> >::_Destroy
_TEXT	ENDS
PUBLIC	??$_Ucopy@V?$_Vector_const_iterator@V?$_Vector_val@UWeaponInfo@@V?$allocator@UWeaponInfo@@@std@@@std@@@std@@@?$vector@UWeaponInfo@@V?$allocator@UWeaponInfo@@@std@@@std@@IAEPAUWeaponInfo@@V?$_Vector_const_iterator@V?$_Vector_val@UWeaponInfo@@V?$allocator@UWeaponInfo@@@std@@@std@@@1@0PAU2@@Z ; std::vector<WeaponInfo,std::allocator<WeaponInfo> >::_Ucopy<std::_Vector_const_iterator<std::_Vector_val<WeaponInfo,std::allocator<WeaponInfo> > > >
; Function compile flags: /Ogsp
;	COMDAT ??$_Ucopy@V?$_Vector_const_iterator@V?$_Vector_val@UWeaponInfo@@V?$allocator@UWeaponInfo@@@std@@@std@@@std@@@?$vector@UWeaponInfo@@V?$allocator@UWeaponInfo@@@std@@@std@@IAEPAUWeaponInfo@@V?$_Vector_const_iterator@V?$_Vector_val@UWeaponInfo@@V?$allocator@UWeaponInfo@@@std@@@std@@@1@0PAU2@@Z
_TEXT	SEGMENT
__First$ = 8						; size = 4
__Last$ = 12						; size = 4
__Cat$542066 = 16					; size = 1
__Ptr$ = 16						; size = 4
??$_Ucopy@V?$_Vector_const_iterator@V?$_Vector_val@UWeaponInfo@@V?$allocator@UWeaponInfo@@@std@@@std@@@std@@@?$vector@UWeaponInfo@@V?$allocator@UWeaponInfo@@@std@@@std@@IAEPAUWeaponInfo@@V?$_Vector_const_iterator@V?$_Vector_val@UWeaponInfo@@V?$allocator@UWeaponInfo@@@std@@@std@@@1@0PAU2@@Z PROC ; std::vector<WeaponInfo,std::allocator<WeaponInfo> >::_Ucopy<std::_Vector_const_iterator<std::_Vector_val<WeaponInfo,std::allocator<WeaponInfo> > > >, COMDAT
; _this$ = ecx

; 1315 : 		pointer _Ucopy(_Iter _First, _Iter _Last, pointer _Ptr)

  00000	55		 push	 ebp
  00001	8b ec		 mov	 ebp, esp

; 1316 : 		{	// copy initializing [_First, _Last), using allocator
; 1317 : 		return (_Uninitialized_copy(_First, _Last,
; 1318 : 			_Ptr, this->_Alval));

  00003	ff 75 10	 push	 DWORD PTR __Cat$542066[ebp]
  00006	83 c1 0c	 add	 ecx, 12			; 0000000cH
  00009	51		 push	 ecx
  0000a	ff 75 10	 push	 DWORD PTR __Ptr$[ebp]
  0000d	ff 75 0c	 push	 DWORD PTR __Last$[ebp]
  00010	ff 75 08	 push	 DWORD PTR __First$[ebp]
  00013	e8 00 00 00 00	 call	 ??$_Uninit_copy@V?$_Vector_const_iterator@V?$_Vector_val@UWeaponInfo@@V?$allocator@UWeaponInfo@@@std@@@std@@@std@@PAUWeaponInfo@@V?$allocator@UWeaponInfo@@@2@@std@@YAPAUWeaponInfo@@V?$_Vector_const_iterator@V?$_Vector_val@UWeaponInfo@@V?$allocator@UWeaponInfo@@@std@@@std@@@0@0PAU1@AAV?$allocator@UWeaponInfo@@@0@U_Nonscalar_ptr_iterator_tag@0@@Z ; std::_Uninit_copy<std::_Vector_const_iterator<std::_Vector_val<WeaponInfo,std::allocator<WeaponInfo> > >,WeaponInfo *,std::allocator<WeaponInfo> >
  00018	83 c4 14	 add	 esp, 20			; 00000014H

; 1319 : 		}

  0001b	5d		 pop	 ebp
  0001c	c2 0c 00	 ret	 12			; 0000000cH
??$_Ucopy@V?$_Vector_const_iterator@V?$_Vector_val@UWeaponInfo@@V?$allocator@UWeaponInfo@@@std@@@std@@@std@@@?$vector@UWeaponInfo@@V?$allocator@UWeaponInfo@@@std@@@std@@IAEPAUWeaponInfo@@V?$_Vector_const_iterator@V?$_Vector_val@UWeaponInfo@@V?$allocator@UWeaponInfo@@@std@@@std@@@1@0PAU2@@Z ENDP ; std::vector<WeaponInfo,std::allocator<WeaponInfo> >::_Ucopy<std::_Vector_const_iterator<std::_Vector_val<WeaponInfo,std::allocator<WeaponInfo> > > >
_TEXT	ENDS
PUBLIC	??$_Umove@PAUtagBaseCharDistanceSq@@@?$vector@UtagBaseCharDistanceSq@@V?$allocator@UtagBaseCharDistanceSq@@@std@@@std@@IAEPAUtagBaseCharDistanceSq@@PAU2@00@Z ; std::vector<tagBaseCharDistanceSq,std::allocator<tagBaseCharDistanceSq> >::_Umove<tagBaseCharDistanceSq *>
; Function compile flags: /Ogsp
;	COMDAT ??$_Umove@PAUtagBaseCharDistanceSq@@@?$vector@UtagBaseCharDistanceSq@@V?$allocator@UtagBaseCharDistanceSq@@@std@@@std@@IAEPAUtagBaseCharDistanceSq@@PAU2@00@Z
_TEXT	SEGMENT
__First$ = 8						; size = 4
__Last$ = 12						; size = 4
__Ptr$ = 16						; size = 4
??$_Umove@PAUtagBaseCharDistanceSq@@@?$vector@UtagBaseCharDistanceSq@@V?$allocator@UtagBaseCharDistanceSq@@@std@@@std@@IAEPAUtagBaseCharDistanceSq@@PAU2@00@Z PROC ; std::vector<tagBaseCharDistanceSq,std::allocator<tagBaseCharDistanceSq> >::_Umove<tagBaseCharDistanceSq *>, COMDAT
; _this$ = ecx

; 1322 : 		pointer _Umove(_Iter _First, _Iter _Last, pointer _Ptr)

  00000	55		 push	 ebp
  00001	8b ec		 mov	 ebp, esp

; 1323 : 		{	// move initializing [_First, _Last), using allocator
; 1324 : 		return (_Uninitialized_move(_First, _Last,
; 1325 : 			_Ptr, this->_Alval));

  00003	83 c1 0c	 add	 ecx, 12			; 0000000cH
  00006	51		 push	 ecx
  00007	ff 75 10	 push	 DWORD PTR __Ptr$[ebp]
  0000a	ff 75 0c	 push	 DWORD PTR __Last$[ebp]
  0000d	ff 75 08	 push	 DWORD PTR __First$[ebp]
  00010	e8 00 00 00 00	 call	 ??$_Uninitialized_move@PAUtagBaseCharDistanceSq@@PAU1@V?$allocator@UtagBaseCharDistanceSq@@@std@@@std@@YAPAUtagBaseCharDistanceSq@@PAU1@00AAV?$allocator@UtagBaseCharDistanceSq@@@0@@Z ; std::_Uninitialized_move<tagBaseCharDistanceSq *,tagBaseCharDistanceSq *,std::allocator<tagBaseCharDistanceSq> >
  00015	83 c4 10	 add	 esp, 16			; 00000010H

; 1326 : 		}

  00018	5d		 pop	 ebp
  00019	c2 0c 00	 ret	 12			; 0000000cH
??$_Umove@PAUtagBaseCharDistanceSq@@@?$vector@UtagBaseCharDistanceSq@@V?$allocator@UtagBaseCharDistanceSq@@@std@@@std@@IAEPAUtagBaseCharDistanceSq@@PAU2@00@Z ENDP ; std::vector<tagBaseCharDistanceSq,std::allocator<tagBaseCharDistanceSq> >::_Umove<tagBaseCharDistanceSq *>
_TEXT	ENDS
PUBLIC	??$sort_heap@PAUtagBaseCharDistanceSq@@VBaseCharDistanceSqSort2@@@std@@YAXPAUtagBaseCharDistanceSq@@0VBaseCharDistanceSqSort2@@@Z ; std::sort_heap<tagBaseCharDistanceSq *,BaseCharDistanceSqSort2>
; Function compile flags: /Ogsp
; File c:\program files (x86)\microsoft visual studio 10.0\vc\include\algorithm
;	COMDAT ??$sort_heap@PAUtagBaseCharDistanceSq@@VBaseCharDistanceSqSort2@@@std@@YAXPAUtagBaseCharDistanceSq@@0VBaseCharDistanceSqSort2@@@Z
_TEXT	SEGMENT
__First$ = 8						; size = 4
__Last$ = 12						; size = 4
__Pred$ = 16						; size = 1
??$sort_heap@PAUtagBaseCharDistanceSq@@VBaseCharDistanceSqSort2@@@std@@YAXPAUtagBaseCharDistanceSq@@0VBaseCharDistanceSqSort2@@@Z PROC ; std::sort_heap<tagBaseCharDistanceSq *,BaseCharDistanceSqSort2>, COMDAT

; 2708 : 	{	// order heap by repeatedly popping, using _Pred

  00000	55		 push	 ebp
  00001	8b ec		 mov	 ebp, esp

; 2709 : 	_DEBUG_RANGE(_First, _Last);
; 2710 : 	_DEBUG_POINTER(_Pred);
; 2711 : 	_DEBUG_HEAP_PRED(_First, _Last, _Pred);
; 2712 : 	_Sort_heap(_Unchecked(_First), _Unchecked(_Last), _Pred);

  00003	ff 75 10	 push	 DWORD PTR __Pred$[ebp]
  00006	ff 75 0c	 push	 DWORD PTR __Last$[ebp]
  00009	ff 75 08	 push	 DWORD PTR __First$[ebp]
  0000c	e8 00 00 00 00	 call	 ??$_Sort_heap@PAUtagBaseCharDistanceSq@@VBaseCharDistanceSqSort2@@@std@@YAXPAUtagBaseCharDistanceSq@@0VBaseCharDistanceSqSort2@@@Z ; std::_Sort_heap<tagBaseCharDistanceSq *,BaseCharDistanceSqSort2>
  00011	83 c4 0c	 add	 esp, 12			; 0000000cH

; 2713 : 	}

  00014	5d		 pop	 ebp
  00015	c3		 ret	 0
??$sort_heap@PAUtagBaseCharDistanceSq@@VBaseCharDistanceSqSort2@@@std@@YAXPAUtagBaseCharDistanceSq@@0VBaseCharDistanceSqSort2@@@Z ENDP ; std::sort_heap<tagBaseCharDistanceSq *,BaseCharDistanceSqSort2>
_TEXT	ENDS
PUBLIC	?_Tidy@?$vector@UForceInfo@@V?$allocator@UForceInfo@@@std@@@std@@IAEXXZ ; std::vector<ForceInfo,std::allocator<ForceInfo> >::_Tidy
EXTRN	__imp_?_Orphan_all@_Container_base0@std@@QAEXXZ:PROC
; Function compile flags: /Ogsp
; File c:\program files (x86)\microsoft visual studio 10.0\vc\include\vector
;	COMDAT ?_Tidy@?$vector@UForceInfo@@V?$allocator@UForceInfo@@@std@@@std@@IAEXXZ
_TEXT	SEGMENT
?_Tidy@?$vector@UForceInfo@@V?$allocator@UForceInfo@@@std@@@std@@IAEXXZ PROC ; std::vector<ForceInfo,std::allocator<ForceInfo> >::_Tidy, COMDAT
; _this$ = ecx

; 1301 : 		{	// free all storage

  00000	56		 push	 esi
  00001	8b f1		 mov	 esi, ecx

; 1302 : 		if (this->_Myfirst != 0)

  00003	83 3e 00	 cmp	 DWORD PTR [esi], 0
  00006	74 0e		 je	 SHORT $LN21@Tidy

; 1303 : 			{	// something to free, destroy and deallocate it
; 1304 : 			this->_Orphan_all();

  00008	ff 15 00 00 00
	00		 call	 DWORD PTR __imp_?_Orphan_all@_Container_base0@std@@QAEXXZ

; 1305 : 			_Destroy(this->_Myfirst, this->_Mylast);
; 1306 : 			this->_Alval.deallocate(this->_Myfirst,
; 1307 : 				this->_Myend - this->_Myfirst);

  0000e	ff 36		 push	 DWORD PTR [esi]
  00010	e8 00 00 00 00	 call	 ??3@YAXPAX@Z		; operator delete
  00015	59		 pop	 ecx
$LN21@Tidy:

; 1308 : 			}
; 1309 : 		this->_Myfirst = 0;

  00016	83 26 00	 and	 DWORD PTR [esi], 0

; 1310 : 		this->_Mylast = 0;

  00019	83 66 04 00	 and	 DWORD PTR [esi+4], 0

; 1311 : 		this->_Myend = 0;

  0001d	83 66 08 00	 and	 DWORD PTR [esi+8], 0
  00021	5e		 pop	 esi

; 1312 : 		}

  00022	c3		 ret	 0
?_Tidy@?$vector@UForceInfo@@V?$allocator@UForceInfo@@@std@@@std@@IAEXXZ ENDP ; std::vector<ForceInfo,std::allocator<ForceInfo> >::_Tidy
_TEXT	ENDS
PUBLIC	?_Destroy@?$vector@UWeaponInfo@@V?$allocator@UWeaponInfo@@@std@@@std@@IAEXPAUWeaponInfo@@0@Z ; std::vector<WeaponInfo,std::allocator<WeaponInfo> >::_Destroy
; Function compile flags: /Ogsp
;	COMDAT ?_Destroy@?$vector@UWeaponInfo@@V?$allocator@UWeaponInfo@@@std@@@std@@IAEXPAUWeaponInfo@@0@Z
_TEXT	SEGMENT
__First$ = 8						; size = 4
__Last$ = 12						; size = 4
?_Destroy@?$vector@UWeaponInfo@@V?$allocator@UWeaponInfo@@@std@@@std@@IAEXPAUWeaponInfo@@0@Z PROC ; std::vector<WeaponInfo,std::allocator<WeaponInfo> >::_Destroy, COMDAT
; _this$ = ecx

; 1269 : 		{	// destroy [_First, _Last) using allocator

  00000	55		 push	 ebp
  00001	8b ec		 mov	 ebp, esp

; 1270 : 		_Destroy_range(_First, _Last, this->_Alval);

  00003	83 c1 0c	 add	 ecx, 12			; 0000000cH
  00006	51		 push	 ecx
  00007	ff 75 0c	 push	 DWORD PTR __Last$[ebp]
  0000a	ff 75 08	 push	 DWORD PTR __First$[ebp]
  0000d	e8 00 00 00 00	 call	 ??$_Destroy_range@V?$allocator@UWeaponInfo@@@std@@@std@@YAXPAUWeaponInfo@@0AAV?$allocator@UWeaponInfo@@@0@@Z ; std::_Destroy_range<std::allocator<WeaponInfo> >
  00012	83 c4 0c	 add	 esp, 12			; 0000000cH

; 1271 : 		}

  00015	5d		 pop	 ebp
  00016	c2 08 00	 ret	 8
?_Destroy@?$vector@UWeaponInfo@@V?$allocator@UWeaponInfo@@@std@@@std@@IAEXPAUWeaponInfo@@0@Z ENDP ; std::vector<WeaponInfo,std::allocator<WeaponInfo> >::_Destroy
_TEXT	ENDS
PUBLIC	??0?$vector@UForceInfo@@V?$allocator@UForceInfo@@@std@@@std@@QAE@ABV01@@Z ; std::vector<ForceInfo,std::allocator<ForceInfo> >::vector<ForceInfo,std::allocator<ForceInfo> >
;	COMDAT xdata$x
; File c:\program files (x86)\microsoft visual studio 10.0\vc\include\xutility
xdata$x	SEGMENT
__catchsym$??0?$vector@UForceInfo@@V?$allocator@UForceInfo@@@std@@@std@@QAE@ABV01@@Z$2 DD 040H
	DD	00H
	DD	00H
	DD	FLAT:__catch$??0?$vector@UForceInfo@@V?$allocator@UForceInfo@@@std@@@std@@QAE@ABV01@@Z$0
__unwindtable$??0?$vector@UForceInfo@@V?$allocator@UForceInfo@@@std@@@std@@QAE@ABV01@@Z DD 0ffffffffH
	DD	00H
	DD	0ffffffffH
	DD	00H
__tryblocktable$??0?$vector@UForceInfo@@V?$allocator@UForceInfo@@@std@@@std@@QAE@ABV01@@Z DD 00H
	DD	00H
	DD	01H
	DD	01H
	DD	FLAT:__catchsym$??0?$vector@UForceInfo@@V?$allocator@UForceInfo@@@std@@@std@@QAE@ABV01@@Z$2
__ehfuncinfo$??0?$vector@UForceInfo@@V?$allocator@UForceInfo@@@std@@@std@@QAE@ABV01@@Z DD 019930522H
	DD	02H
	DD	FLAT:__unwindtable$??0?$vector@UForceInfo@@V?$allocator@UForceInfo@@@std@@@std@@QAE@ABV01@@Z
	DD	01H
	DD	FLAT:__tryblocktable$??0?$vector@UForceInfo@@V?$allocator@UForceInfo@@@std@@@std@@QAE@ABV01@@Z
	DD	2 DUP(00H)
	DD	00H
	DD	01H
; Function compile flags: /Ogsp
; File c:\program files (x86)\microsoft visual studio 10.0\vc\include\vector
xdata$x	ENDS
;	COMDAT ??0?$vector@UForceInfo@@V?$allocator@UForceInfo@@@std@@@std@@QAE@ABV01@@Z
_TEXT	SEGMENT
_this$ = -20						; size = 4
__$EHRec$ = -16						; size = 16
__Cat$542240 = 8					; size = 1
__Right$ = 8						; size = 4
??0?$vector@UForceInfo@@V?$allocator@UForceInfo@@@std@@@std@@QAE@ABV01@@Z PROC ; std::vector<ForceInfo,std::allocator<ForceInfo> >::vector<ForceInfo,std::allocator<ForceInfo> >, COMDAT
; _this$ = ecx

; 535  : 		{	// construct by copying _Right

  00000	6a 08		 push	 8
  00002	b8 00 00 00 00	 mov	 eax, __ehhandler$??0?$vector@UForceInfo@@V?$allocator@UForceInfo@@@std@@@std@@QAE@ABV01@@Z
  00007	e8 00 00 00 00	 call	 __EH_prolog3_catch
  0000c	8b f1		 mov	 esi, ecx
  0000e	89 75 ec	 mov	 DWORD PTR _this$[ebp], esi

; 536  : 		if (_Buy(_Right.size()))

  00011	8b 7d 08	 mov	 edi, DWORD PTR __Right$[ebp]
  00014	33 db		 xor	 ebx, ebx
  00016	89 1e		 mov	 DWORD PTR [esi], ebx
  00018	89 5e 04	 mov	 DWORD PTR [esi+4], ebx
  0001b	89 5e 08	 mov	 DWORD PTR [esi+8], ebx
  0001e	8b 47 04	 mov	 eax, DWORD PTR [edi+4]
  00021	2b 07		 sub	 eax, DWORD PTR [edi]
  00023	6a 0c		 push	 12			; 0000000cH
  00025	59		 pop	 ecx
  00026	99		 cdq
  00027	f7 f9		 idiv	 ecx
  00029	8b ce		 mov	 ecx, esi
  0002b	50		 push	 eax
  0002c	e8 00 00 00 00	 call	 ?_Buy@?$vector@UForceInfo@@V?$allocator@UForceInfo@@@std@@@std@@IAE_NI@Z ; std::vector<ForceInfo,std::allocator<ForceInfo> >::_Buy
  00031	84 c0		 test	 al, al
  00033	74 1f		 je	 SHORT $LN7@vector

; 537  : 			_TRY_BEGIN
; 538  : 			this->_Mylast = _Ucopy(_Right.begin(), _Right.end(),
; 539  : 				this->_Myfirst);

  00035	ff 75 08	 push	 DWORD PTR __Cat$542240[ebp]
  00038	8b 0e		 mov	 ecx, DWORD PTR [esi]
  0003a	8b 47 04	 mov	 eax, DWORD PTR [edi+4]
  0003d	8b 3f		 mov	 edi, DWORD PTR [edi]
  0003f	8d 56 0c	 lea	 edx, DWORD PTR [esi+12]
  00042	52		 push	 edx
  00043	51		 push	 ecx
  00044	50		 push	 eax
  00045	57		 push	 edi
  00046	89 5d fc	 mov	 DWORD PTR __$EHRec$[ebp+12], ebx
  00049	e8 00 00 00 00	 call	 ??$_Uninit_copy@V?$_Vector_const_iterator@V?$_Vector_val@UForceInfo@@V?$allocator@UForceInfo@@@std@@@std@@@std@@PAUForceInfo@@V?$allocator@UForceInfo@@@2@@std@@YAPAUForceInfo@@V?$_Vector_const_iterator@V?$_Vector_val@UForceInfo@@V?$allocator@UForceInfo@@@std@@@std@@@0@0PAU1@AAV?$allocator@UForceInfo@@@0@U_Nonscalar_ptr_iterator_tag@0@@Z ; std::_Uninit_copy<std::_Vector_const_iterator<std::_Vector_val<ForceInfo,std::allocator<ForceInfo> > >,ForceInfo *,std::allocator<ForceInfo> >
  0004e	83 c4 14	 add	 esp, 20			; 00000014H
  00051	89 46 04	 mov	 DWORD PTR [esi+4], eax
$LN7@vector:

; 543  : 			_CATCH_END
; 544  : 		}

  00054	8b c6		 mov	 eax, esi
  00056	e8 00 00 00 00	 call	 __EH_epilog3
  0005b	c2 04 00	 ret	 4
__catch$??0?$vector@UForceInfo@@V?$allocator@UForceInfo@@@std@@@std@@QAE@ABV01@@Z$0:

; 540  : 			_CATCH_ALL
; 541  : 			_Tidy();

  0005e	8b 4d ec	 mov	 ecx, DWORD PTR _this$[ebp]
  00061	e8 00 00 00 00	 call	 ?_Tidy@?$vector@UForceInfo@@V?$allocator@UForceInfo@@@std@@@std@@IAEXXZ ; std::vector<ForceInfo,std::allocator<ForceInfo> >::_Tidy

; 542  : 			_RERAISE;

  00066	33 db		 xor	 ebx, ebx
  00068	53		 push	 ebx
  00069	53		 push	 ebx
  0006a	e8 00 00 00 00	 call	 __CxxThrowException@8
$LN38@vector:
$LN37@vector:
  0006f	cc		 int	 3
_TEXT	ENDS
;	COMDAT text$x
text$x	SEGMENT
__ehhandler$??0?$vector@UForceInfo@@V?$allocator@UForceInfo@@@std@@@std@@QAE@ABV01@@Z:
  00000	8b 54 24 08	 mov	 edx, DWORD PTR [esp+8]
  00004	8d 42 0c	 lea	 eax, DWORD PTR [edx+12]
  00007	8b 4a e8	 mov	 ecx, DWORD PTR [edx-24]
  0000a	33 c8		 xor	 ecx, eax
  0000c	e8 00 00 00 00	 call	 @__security_check_cookie@4
  00011	b8 00 00 00 00	 mov	 eax, OFFSET __ehfuncinfo$??0?$vector@UForceInfo@@V?$allocator@UForceInfo@@@std@@@std@@QAE@ABV01@@Z
  00016	e9 00 00 00 00	 jmp	 ___CxxFrameHandler3
text$x	ENDS
??0?$vector@UForceInfo@@V?$allocator@UForceInfo@@@std@@@std@@QAE@ABV01@@Z ENDP ; std::vector<ForceInfo,std::allocator<ForceInfo> >::vector<ForceInfo,std::allocator<ForceInfo> >
PUBLIC	?_Tidy@?$vector@UtagBaseCharDistanceSq@@V?$allocator@UtagBaseCharDistanceSq@@@std@@@std@@IAEXXZ ; std::vector<tagBaseCharDistanceSq,std::allocator<tagBaseCharDistanceSq> >::_Tidy
; Function compile flags: /Ogsp
;	COMDAT ?_Tidy@?$vector@UtagBaseCharDistanceSq@@V?$allocator@UtagBaseCharDistanceSq@@@std@@@std@@IAEXXZ
_TEXT	SEGMENT
?_Tidy@?$vector@UtagBaseCharDistanceSq@@V?$allocator@UtagBaseCharDistanceSq@@@std@@@std@@IAEXXZ PROC ; std::vector<tagBaseCharDistanceSq,std::allocator<tagBaseCharDistanceSq> >::_Tidy, COMDAT
; _this$ = ecx

; 1301 : 		{	// free all storage

  00000	56		 push	 esi
  00001	8b f1		 mov	 esi, ecx

; 1302 : 		if (this->_Myfirst != 0)

  00003	83 3e 00	 cmp	 DWORD PTR [esi], 0
  00006	74 28		 je	 SHORT $LN27@Tidy@2

; 1303 : 			{	// something to free, destroy and deallocate it
; 1304 : 			this->_Orphan_all();

  00008	53		 push	 ebx
  00009	57		 push	 edi
  0000a	ff 15 00 00 00
	00		 call	 DWORD PTR __imp_?_Orphan_all@_Container_base0@std@@QAEXXZ

; 1305 : 			_Destroy(this->_Myfirst, this->_Mylast);

  00010	8b 5e 04	 mov	 ebx, DWORD PTR [esi+4]
  00013	8b 3e		 mov	 edi, DWORD PTR [esi]
  00015	eb 0b		 jmp	 SHORT $LN31@Tidy@2
$LL12@Tidy@2:
  00017	8b cf		 mov	 ecx, edi
  00019	ff 15 00 00 00
	00		 call	 DWORD PTR __imp_??1ioHashString@@QAE@XZ
  0001f	83 c7 20	 add	 edi, 32			; 00000020H
$LN31@Tidy@2:
  00022	3b fb		 cmp	 edi, ebx
  00024	75 f1		 jne	 SHORT $LL12@Tidy@2

; 1306 : 			this->_Alval.deallocate(this->_Myfirst,
; 1307 : 				this->_Myend - this->_Myfirst);

  00026	ff 36		 push	 DWORD PTR [esi]
  00028	e8 00 00 00 00	 call	 ??3@YAXPAX@Z		; operator delete
  0002d	59		 pop	 ecx
  0002e	5f		 pop	 edi
  0002f	5b		 pop	 ebx
$LN27@Tidy@2:

; 1308 : 			}
; 1309 : 		this->_Myfirst = 0;

  00030	33 c0		 xor	 eax, eax
  00032	89 06		 mov	 DWORD PTR [esi], eax

; 1310 : 		this->_Mylast = 0;

  00034	89 46 04	 mov	 DWORD PTR [esi+4], eax

; 1311 : 		this->_Myend = 0;

  00037	89 46 08	 mov	 DWORD PTR [esi+8], eax
  0003a	5e		 pop	 esi

; 1312 : 		}

  0003b	c3		 ret	 0
?_Tidy@?$vector@UtagBaseCharDistanceSq@@V?$allocator@UtagBaseCharDistanceSq@@@std@@@std@@IAEXXZ ENDP ; std::vector<tagBaseCharDistanceSq,std::allocator<tagBaseCharDistanceSq> >::_Tidy
_TEXT	ENDS
PUBLIC	?reserve@?$vector@UtagBaseCharDistanceSq@@V?$allocator@UtagBaseCharDistanceSq@@@std@@@std@@QAEXI@Z ; std::vector<tagBaseCharDistanceSq,std::allocator<tagBaseCharDistanceSq> >::reserve
;	COMDAT xdata$x
; File c:\program files (x86)\microsoft visual studio 10.0\vc\include\xmemory
xdata$x	SEGMENT
__catchsym$?reserve@?$vector@UtagBaseCharDistanceSq@@V?$allocator@UtagBaseCharDistanceSq@@@std@@@std@@QAEXI@Z$3 DD 040H
	DD	00H
	DD	00H
	DD	FLAT:__catch$?reserve@?$vector@UtagBaseCharDistanceSq@@V?$allocator@UtagBaseCharDistanceSq@@@std@@@std@@QAEXI@Z$0
__unwindtable$?reserve@?$vector@UtagBaseCharDistanceSq@@V?$allocator@UtagBaseCharDistanceSq@@@std@@@std@@QAEXI@Z DD 0ffffffffH
	DD	00H
	DD	0ffffffffH
	DD	00H
__tryblocktable$?reserve@?$vector@UtagBaseCharDistanceSq@@V?$allocator@UtagBaseCharDistanceSq@@@std@@@std@@QAEXI@Z DD 00H
	DD	00H
	DD	01H
	DD	01H
	DD	FLAT:__catchsym$?reserve@?$vector@UtagBaseCharDistanceSq@@V?$allocator@UtagBaseCharDistanceSq@@@std@@@std@@QAEXI@Z$3
__ehfuncinfo$?reserve@?$vector@UtagBaseCharDistanceSq@@V?$allocator@UtagBaseCharDistanceSq@@@std@@@std@@QAEXI@Z DD 019930522H
	DD	02H
	DD	FLAT:__unwindtable$?reserve@?$vector@UtagBaseCharDistanceSq@@V?$allocator@UtagBaseCharDistanceSq@@@std@@@std@@QAEXI@Z
	DD	01H
	DD	FLAT:__tryblocktable$?reserve@?$vector@UtagBaseCharDistanceSq@@V?$allocator@UtagBaseCharDistanceSq@@@std@@@std@@QAEXI@Z
	DD	2 DUP(00H)
	DD	00H
	DD	01H
; Function compile flags: /Ogsp
; File c:\program files (x86)\microsoft visual studio 10.0\vc\include\vector
xdata$x	ENDS
;	COMDAT ?reserve@?$vector@UtagBaseCharDistanceSq@@V?$allocator@UtagBaseCharDistanceSq@@@std@@@std@@QAEXI@Z
_TEXT	SEGMENT
tv300 = -24						; size = 4
__Ptr$531992 = -20					; size = 4
__$EHRec$ = -16						; size = 16
$T542488 = 8						; size = 4
__Count$ = 8						; size = 4
?reserve@?$vector@UtagBaseCharDistanceSq@@V?$allocator@UtagBaseCharDistanceSq@@@std@@@std@@QAEXI@Z PROC ; std::vector<tagBaseCharDistanceSq,std::allocator<tagBaseCharDistanceSq> >::reserve, COMDAT
; _this$ = ecx

; 746  : 		{	// determine new minimum length of allocated storage

  00000	6a 0c		 push	 12			; 0000000cH
  00002	b8 00 00 00 00	 mov	 eax, __ehhandler$?reserve@?$vector@UtagBaseCharDistanceSq@@V?$allocator@UtagBaseCharDistanceSq@@@std@@@std@@QAEXI@Z
  00007	e8 00 00 00 00	 call	 __EH_prolog3_catch
  0000c	8b f1		 mov	 esi, ecx

; 747  : 		if (max_size() < _Count)

  0000e	8b 5d 08	 mov	 ebx, DWORD PTR __Count$[ebp]
  00011	81 fb ff ff ff
	07		 cmp	 ebx, 134217727		; 07ffffffH
  00017	76 0b		 jbe	 SHORT $LN5@reserve

; 748  : 			_Xlen();	// result too long

  00019	68 00 00 00 00	 push	 OFFSET ??_C@_0BD@OLBABOEK@vector?$DMT?$DO?5too?5long?$AA@
  0001e	ff 15 00 00 00
	00		 call	 DWORD PTR __imp_?_Xlength_error@std@@YAXPBD@Z
$LN62@reserve:
$LN5@reserve:

; 749  : 		else if (capacity() < _Count)

  00024	8b 46 08	 mov	 eax, DWORD PTR [esi+8]
  00027	2b 06		 sub	 eax, DWORD PTR [esi]
  00029	c1 f8 05	 sar	 eax, 5
  0002c	3b c3		 cmp	 eax, ebx
  0002e	73 7a		 jae	 SHORT $LN3@reserve

; 750  : 			{	// not enough room, reallocate
; 751  : 			pointer _Ptr = this->_Alval.allocate(_Count);

  00030	6a 00		 push	 0
  00032	53		 push	 ebx
  00033	e8 00 00 00 00	 call	 ??$_Allocate@UtagBaseCharDistanceSq@@@std@@YAPAUtagBaseCharDistanceSq@@IPAU1@@Z ; std::_Allocate<tagBaseCharDistanceSq>

; 752  : 
; 753  : 			_TRY_BEGIN
; 754  : 			_Umove(this->_Myfirst, this->_Mylast, _Ptr);

  00038	8b 0e		 mov	 ecx, DWORD PTR [esi]
  0003a	83 65 fc 00	 and	 DWORD PTR __$EHRec$[ebp+12], 0
  0003e	8d 56 0c	 lea	 edx, DWORD PTR [esi+12]
  00041	52		 push	 edx
  00042	89 45 ec	 mov	 DWORD PTR __Ptr$531992[ebp], eax
  00045	ff 75 ec	 push	 DWORD PTR __Ptr$531992[ebp]
  00048	8b 46 04	 mov	 eax, DWORD PTR [esi+4]
  0004b	50		 push	 eax
  0004c	51		 push	 ecx
  0004d	e8 00 00 00 00	 call	 ??$_Uninitialized_move@PAUtagBaseCharDistanceSq@@PAU1@V?$allocator@UtagBaseCharDistanceSq@@@std@@@std@@YAPAUtagBaseCharDistanceSq@@PAU1@00AAV?$allocator@UtagBaseCharDistanceSq@@@0@@Z ; std::_Uninitialized_move<tagBaseCharDistanceSq *,tagBaseCharDistanceSq *,std::allocator<tagBaseCharDistanceSq> >

; 758  : 			_CATCH_END
; 759  : 
; 760  : 			size_type _Size = size();

  00052	8b 4e 04	 mov	 ecx, DWORD PTR [esi+4]
  00055	8b 06		 mov	 eax, DWORD PTR [esi]
  00057	83 4d fc ff	 or	 DWORD PTR __$EHRec$[ebp+12], -1
  0005b	8b f9		 mov	 edi, ecx
  0005d	83 c4 18	 add	 esp, 24			; 00000018H
  00060	2b f8		 sub	 edi, eax
  00062	89 4d e8	 mov	 DWORD PTR tv300[ebp], ecx
  00065	85 c0		 test	 eax, eax
  00067	74 24		 je	 SHORT $LN54@reserve

; 761  : 			if (this->_Myfirst != 0)
; 762  : 				{	// destroy and deallocate old array
; 763  : 				_Destroy(this->_Myfirst, this->_Mylast);

  00069	89 45 08	 mov	 DWORD PTR $T542488[ebp], eax
  0006c	3b c1		 cmp	 eax, ecx
  0006e	74 15		 je	 SHORT $LN37@reserve
$LN39@reserve:
  00070	8b 4d 08	 mov	 ecx, DWORD PTR $T542488[ebp]
  00073	ff 15 00 00 00
	00		 call	 DWORD PTR __imp_??1ioHashString@@QAE@XZ
  00079	83 45 08 20	 add	 DWORD PTR $T542488[ebp], 32 ; 00000020H
  0007d	8b 45 08	 mov	 eax, DWORD PTR $T542488[ebp]
  00080	3b 45 e8	 cmp	 eax, DWORD PTR tv300[ebp]
  00083	75 eb		 jne	 SHORT $LN39@reserve
$LN37@reserve:

; 764  : 				this->_Alval.deallocate(this->_Myfirst,
; 765  : 					this->_Myend - this->_Myfirst);

  00085	ff 36		 push	 DWORD PTR [esi]
  00087	e8 00 00 00 00	 call	 ??3@YAXPAX@Z		; operator delete
  0008c	59		 pop	 ecx
$LN54@reserve:

; 766  : 				}
; 767  : 
; 768  : 			this->_Orphan_all();

  0008d	8b ce		 mov	 ecx, esi
  0008f	ff 15 00 00 00
	00		 call	 DWORD PTR __imp_?_Orphan_all@_Container_base0@std@@QAEXXZ

; 769  : 			this->_Myend = _Ptr + _Count;

  00095	8b 45 ec	 mov	 eax, DWORD PTR __Ptr$531992[ebp]
  00098	c1 e3 05	 shl	 ebx, 5
  0009b	03 d8		 add	 ebx, eax

; 770  : 			this->_Mylast = _Ptr + _Size;

  0009d	83 e7 e0	 and	 edi, -32		; ffffffe0H
  000a0	03 f8		 add	 edi, eax
  000a2	89 5e 08	 mov	 DWORD PTR [esi+8], ebx
  000a5	89 7e 04	 mov	 DWORD PTR [esi+4], edi

; 771  : 			this->_Myfirst = _Ptr;

  000a8	89 06		 mov	 DWORD PTR [esi], eax
$LN3@reserve:

; 772  : 			}
; 773  : 		}

  000aa	e8 00 00 00 00	 call	 __EH_epilog3
  000af	c2 04 00	 ret	 4
__catch$?reserve@?$vector@UtagBaseCharDistanceSq@@V?$allocator@UtagBaseCharDistanceSq@@@std@@@std@@QAEXI@Z$0:

; 755  : 			_CATCH_ALL
; 756  : 			this->_Alval.deallocate(_Ptr, _Count);

  000b2	ff 75 ec	 push	 DWORD PTR __Ptr$531992[ebp]
  000b5	e8 00 00 00 00	 call	 ??3@YAXPAX@Z		; operator delete
  000ba	59		 pop	 ecx

; 757  : 			_RERAISE;

  000bb	6a 00		 push	 0
  000bd	6a 00		 push	 0
  000bf	e8 00 00 00 00	 call	 __CxxThrowException@8
$LN63@reserve:
$LN61@reserve:
  000c4	cc		 int	 3
_TEXT	ENDS
;	COMDAT text$x
text$x	SEGMENT
__ehhandler$?reserve@?$vector@UtagBaseCharDistanceSq@@V?$allocator@UtagBaseCharDistanceSq@@@std@@@std@@QAEXI@Z:
  00000	8b 54 24 08	 mov	 edx, DWORD PTR [esp+8]
  00004	8d 42 0c	 lea	 eax, DWORD PTR [edx+12]
  00007	8b 4a e4	 mov	 ecx, DWORD PTR [edx-28]
  0000a	33 c8		 xor	 ecx, eax
  0000c	e8 00 00 00 00	 call	 @__security_check_cookie@4
  00011	b8 00 00 00 00	 mov	 eax, OFFSET __ehfuncinfo$?reserve@?$vector@UtagBaseCharDistanceSq@@V?$allocator@UtagBaseCharDistanceSq@@@std@@@std@@QAEXI@Z
  00016	e9 00 00 00 00	 jmp	 ___CxxFrameHandler3
text$x	ENDS
?reserve@?$vector@UtagBaseCharDistanceSq@@V?$allocator@UtagBaseCharDistanceSq@@@std@@@std@@QAEXI@Z ENDP ; std::vector<tagBaseCharDistanceSq,std::allocator<tagBaseCharDistanceSq> >::reserve
PUBLIC	??$_Sort@PAUtagBaseCharDistanceSq@@HVBaseCharDistanceSqSort2@@@std@@YAXPAUtagBaseCharDistanceSq@@0HVBaseCharDistanceSqSort2@@@Z ; std::_Sort<tagBaseCharDistanceSq *,int,BaseCharDistanceSqSort2>
; Function compile flags: /Ogsp
; File c:\program files (x86)\microsoft visual studio 10.0\vc\include\algorithm
;	COMDAT ??$_Sort@PAUtagBaseCharDistanceSq@@HVBaseCharDistanceSqSort2@@@std@@YAXPAUtagBaseCharDistanceSq@@0HVBaseCharDistanceSqSort2@@@Z
_TEXT	SEGMENT
__Mid$534615 = -8					; size = 8
__First$ = 8						; size = 4
__Last$ = 12						; size = 4
__Ideal$ = 16						; size = 4
__Pred$ = 20						; size = 1
??$_Sort@PAUtagBaseCharDistanceSq@@HVBaseCharDistanceSqSort2@@@std@@YAXPAUtagBaseCharDistanceSq@@0HVBaseCharDistanceSqSort2@@@Z PROC ; std::_Sort<tagBaseCharDistanceSq *,int,BaseCharDistanceSqSort2>, COMDAT

; 3771 : 	{	// order [_First, _Last), using _Pred

  00000	55		 push	 ebp
  00001	8b ec		 mov	 ebp, esp
  00003	51		 push	 ecx
  00004	51		 push	 ecx
  00005	53		 push	 ebx

; 3772 : 	_Diff _Count;
; 3773 : 	for (; _ISORT_MAX < (_Count = _Last - _First) && 0 < _Ideal; )

  00006	8b 5d 08	 mov	 ebx, DWORD PTR __First$[ebp]
  00009	57		 push	 edi
  0000a	8b 7d 0c	 mov	 edi, DWORD PTR __Last$[ebp]
  0000d	8b c7		 mov	 eax, edi
  0000f	2b c3		 sub	 eax, ebx
  00011	c1 f8 05	 sar	 eax, 5
  00014	83 f8 20	 cmp	 eax, 32			; 00000020H
  00017	0f 8e 89 00 00
	00		 jle	 $LN22@Sort
  0001d	56		 push	 esi
  0001e	8b 75 10	 mov	 esi, DWORD PTR __Ideal$[ebp]
$LL7@Sort:
  00021	85 f6		 test	 esi, esi
  00023	7e 62		 jle	 SHORT $LN6@Sort

; 3774 : 		{	// divide and conquer by quicksort
; 3775 : 		_STD pair<_RanIt, _RanIt> _Mid =
; 3776 : 			_Unguarded_partition(_First, _Last, _Pred);

  00025	ff 75 14	 push	 DWORD PTR __Pred$[ebp]
  00028	8d 45 f8	 lea	 eax, DWORD PTR __Mid$534615[ebp]
  0002b	57		 push	 edi
  0002c	53		 push	 ebx
  0002d	50		 push	 eax
  0002e	e8 00 00 00 00	 call	 ??$_Unguarded_partition@PAUtagBaseCharDistanceSq@@VBaseCharDistanceSqSort2@@@std@@YA?AU?$pair@PAUtagBaseCharDistanceSq@@PAU1@@0@PAUtagBaseCharDistanceSq@@0VBaseCharDistanceSqSort2@@@Z ; std::_Unguarded_partition<tagBaseCharDistanceSq *,BaseCharDistanceSqSort2>

; 3777 : 		_Ideal /= 2, _Ideal += _Ideal / 2;	// allow 1.5 log2(N) divisions
; 3778 : 
; 3779 : 		if (_Mid.first - _First < _Last - _Mid.second)

  00033	8b 4d f8	 mov	 ecx, DWORD PTR __Mid$534615[ebp]
  00036	8b c6		 mov	 eax, esi
  00038	99		 cdq
  00039	2b c2		 sub	 eax, edx
  0003b	d1 f8		 sar	 eax, 1
  0003d	8b f0		 mov	 esi, eax
  0003f	99		 cdq
  00040	2b c2		 sub	 eax, edx
  00042	d1 f8		 sar	 eax, 1
  00044	03 f0		 add	 esi, eax
  00046	8b c7		 mov	 eax, edi
  00048	2b 45 fc	 sub	 eax, DWORD PTR __Mid$534615[ebp+4]
  0004b	83 c4 10	 add	 esp, 16			; 00000010H

; 3780 : 			{	// loop on second half
; 3781 : 			_Sort(_First, _Mid.first, _Ideal, _Pred);

  0004e	ff 75 14	 push	 DWORD PTR __Pred$[ebp]
  00051	2b cb		 sub	 ecx, ebx
  00053	83 e0 e0	 and	 eax, -32		; ffffffe0H
  00056	83 e1 e0	 and	 ecx, -32		; ffffffe0H
  00059	56		 push	 esi
  0005a	3b c8		 cmp	 ecx, eax
  0005c	7d 0e		 jge	 SHORT $LN5@Sort
  0005e	ff 75 f8	 push	 DWORD PTR __Mid$534615[ebp]
  00061	53		 push	 ebx
  00062	e8 00 00 00 00	 call	 ??$_Sort@PAUtagBaseCharDistanceSq@@HVBaseCharDistanceSqSort2@@@std@@YAXPAUtagBaseCharDistanceSq@@0HVBaseCharDistanceSqSort2@@@Z ; std::_Sort<tagBaseCharDistanceSq *,int,BaseCharDistanceSqSort2>

; 3782 : 			_First = _Mid.second;

  00067	8b 5d fc	 mov	 ebx, DWORD PTR __Mid$534615[ebp+4]

; 3783 : 			}
; 3784 : 		else

  0006a	eb 0c		 jmp	 SHORT $LN23@Sort
$LN5@Sort:

; 3785 : 			{	// loop on first half
; 3786 : 			_Sort(_Mid.second, _Last, _Ideal, _Pred);

  0006c	57		 push	 edi
  0006d	ff 75 fc	 push	 DWORD PTR __Mid$534615[ebp+4]
  00070	e8 00 00 00 00	 call	 ??$_Sort@PAUtagBaseCharDistanceSq@@HVBaseCharDistanceSqSort2@@@std@@YAXPAUtagBaseCharDistanceSq@@0HVBaseCharDistanceSqSort2@@@Z ; std::_Sort<tagBaseCharDistanceSq *,int,BaseCharDistanceSqSort2>

; 3787 : 			_Last = _Mid.first;

  00075	8b 7d f8	 mov	 edi, DWORD PTR __Mid$534615[ebp]
$LN23@Sort:

; 3772 : 	_Diff _Count;
; 3773 : 	for (; _ISORT_MAX < (_Count = _Last - _First) && 0 < _Ideal; )

  00078	8b c7		 mov	 eax, edi
  0007a	2b c3		 sub	 eax, ebx
  0007c	c1 f8 05	 sar	 eax, 5

; 3785 : 			{	// loop on first half
; 3786 : 			_Sort(_Mid.second, _Last, _Ideal, _Pred);

  0007f	83 c4 10	 add	 esp, 16			; 00000010H
  00082	83 f8 20	 cmp	 eax, 32			; 00000020H
  00085	7f 9a		 jg	 SHORT $LL7@Sort
$LN6@Sort:
  00087	5e		 pop	 esi

; 3788 : 			}
; 3789 : 		}
; 3790 : 
; 3791 : 	if (_ISORT_MAX < _Count)

  00088	83 f8 20	 cmp	 eax, 32			; 00000020H
  0008b	7e 19		 jle	 SHORT $LN22@Sort

; 3792 : 		{	// heap sort if too many divisions
; 3793 : 		_STD make_heap(_First, _Last, _Pred);

  0008d	ff 75 14	 push	 DWORD PTR __Pred$[ebp]
  00090	57		 push	 edi
  00091	53		 push	 ebx
  00092	e8 00 00 00 00	 call	 ??$make_heap@PAUtagBaseCharDistanceSq@@VBaseCharDistanceSqSort2@@@std@@YAXPAUtagBaseCharDistanceSq@@0VBaseCharDistanceSqSort2@@@Z ; std::make_heap<tagBaseCharDistanceSq *,BaseCharDistanceSqSort2>

; 3794 : 		_STD sort_heap(_First, _Last, _Pred);

  00097	ff 75 14	 push	 DWORD PTR __Pred$[ebp]
  0009a	57		 push	 edi
  0009b	53		 push	 ebx
  0009c	e8 00 00 00 00	 call	 ??$_Sort_heap@PAUtagBaseCharDistanceSq@@VBaseCharDistanceSqSort2@@@std@@YAXPAUtagBaseCharDistanceSq@@0VBaseCharDistanceSqSort2@@@Z ; std::_Sort_heap<tagBaseCharDistanceSq *,BaseCharDistanceSqSort2>
  000a1	83 c4 18	 add	 esp, 24			; 00000018H
  000a4	eb 14		 jmp	 SHORT $LN16@Sort
$LN22@Sort:

; 3795 : 		}
; 3796 : 	else if (1 < _Count)

  000a6	83 f8 01	 cmp	 eax, 1
  000a9	7e 0f		 jle	 SHORT $LN16@Sort

; 3797 : 		_Insertion_sort(_First, _Last, _Pred);	// small

  000ab	6a 00		 push	 0
  000ad	ff 75 14	 push	 DWORD PTR __Pred$[ebp]
  000b0	57		 push	 edi
  000b1	53		 push	 ebx
  000b2	e8 00 00 00 00	 call	 ??$_Insertion_sort1@PAUtagBaseCharDistanceSq@@VBaseCharDistanceSqSort2@@U1@@std@@YAXPAUtagBaseCharDistanceSq@@0VBaseCharDistanceSqSort2@@0@Z ; std::_Insertion_sort1<tagBaseCharDistanceSq *,BaseCharDistanceSqSort2,tagBaseCharDistanceSq>
  000b7	83 c4 10	 add	 esp, 16			; 00000010H
$LN16@Sort:
  000ba	5f		 pop	 edi
  000bb	5b		 pop	 ebx

; 3798 : 	}

  000bc	c9		 leave
  000bd	c3		 ret	 0
??$_Sort@PAUtagBaseCharDistanceSq@@HVBaseCharDistanceSqSort2@@@std@@YAXPAUtagBaseCharDistanceSq@@0HVBaseCharDistanceSqSort2@@@Z ENDP ; std::_Sort<tagBaseCharDistanceSq *,int,BaseCharDistanceSqSort2>
_TEXT	ENDS
PUBLIC	??1?$vector@UForceInfo@@V?$allocator@UForceInfo@@@std@@@std@@QAE@XZ ; std::vector<ForceInfo,std::allocator<ForceInfo> >::~vector<ForceInfo,std::allocator<ForceInfo> >
; Function compile flags: /Ogsp
; File c:\program files (x86)\microsoft visual studio 10.0\vc\include\vector
;	COMDAT ??1?$vector@UForceInfo@@V?$allocator@UForceInfo@@@std@@@std@@QAE@XZ
_TEXT	SEGMENT
??1?$vector@UForceInfo@@V?$allocator@UForceInfo@@@std@@@std@@QAE@XZ PROC ; std::vector<ForceInfo,std::allocator<ForceInfo> >::~vector<ForceInfo,std::allocator<ForceInfo> >, COMDAT
; _this$ = ecx

; 705  : 		_Tidy();

  00000	e9 00 00 00 00	 jmp	 ?_Tidy@?$vector@UForceInfo@@V?$allocator@UForceInfo@@@std@@@std@@IAEXXZ ; std::vector<ForceInfo,std::allocator<ForceInfo> >::_Tidy
??1?$vector@UForceInfo@@V?$allocator@UForceInfo@@@std@@@std@@QAE@XZ ENDP ; std::vector<ForceInfo,std::allocator<ForceInfo> >::~vector<ForceInfo,std::allocator<ForceInfo> >
_TEXT	ENDS
PUBLIC	?_Tidy@?$vector@UWeaponInfo@@V?$allocator@UWeaponInfo@@@std@@@std@@IAEXXZ ; std::vector<WeaponInfo,std::allocator<WeaponInfo> >::_Tidy
; Function compile flags: /Ogsp
;	COMDAT ?_Tidy@?$vector@UWeaponInfo@@V?$allocator@UWeaponInfo@@@std@@@std@@IAEXXZ
_TEXT	SEGMENT
?_Tidy@?$vector@UWeaponInfo@@V?$allocator@UWeaponInfo@@@std@@@std@@IAEXXZ PROC ; std::vector<WeaponInfo,std::allocator<WeaponInfo> >::_Tidy, COMDAT
; _this$ = ecx

; 1301 : 		{	// free all storage

  00000	56		 push	 esi
  00001	8b f1		 mov	 esi, ecx

; 1302 : 		if (this->_Myfirst != 0)

  00003	83 3e 00	 cmp	 DWORD PTR [esi], 0
  00006	74 1e		 je	 SHORT $LN6@Tidy@3

; 1303 : 			{	// something to free, destroy and deallocate it
; 1304 : 			this->_Orphan_all();

  00008	ff 15 00 00 00
	00		 call	 DWORD PTR __imp_?_Orphan_all@_Container_base0@std@@QAEXXZ

; 1305 : 			_Destroy(this->_Myfirst, this->_Mylast);

  0000e	8d 46 0c	 lea	 eax, DWORD PTR [esi+12]
  00011	50		 push	 eax
  00012	ff 76 04	 push	 DWORD PTR [esi+4]
  00015	ff 36		 push	 DWORD PTR [esi]
  00017	e8 00 00 00 00	 call	 ??$_Destroy_range@V?$allocator@UWeaponInfo@@@std@@@std@@YAXPAUWeaponInfo@@0AAV?$allocator@UWeaponInfo@@@0@@Z ; std::_Destroy_range<std::allocator<WeaponInfo> >

; 1306 : 			this->_Alval.deallocate(this->_Myfirst,
; 1307 : 				this->_Myend - this->_Myfirst);

  0001c	ff 36		 push	 DWORD PTR [esi]
  0001e	e8 00 00 00 00	 call	 ??3@YAXPAX@Z		; operator delete
  00023	83 c4 10	 add	 esp, 16			; 00000010H
$LN6@Tidy@3:

; 1308 : 			}
; 1309 : 		this->_Myfirst = 0;

  00026	83 26 00	 and	 DWORD PTR [esi], 0

; 1310 : 		this->_Mylast = 0;

  00029	83 66 04 00	 and	 DWORD PTR [esi+4], 0

; 1311 : 		this->_Myend = 0;

  0002d	83 66 08 00	 and	 DWORD PTR [esi+8], 0
  00031	5e		 pop	 esi

; 1312 : 		}

  00032	c3		 ret	 0
?_Tidy@?$vector@UWeaponInfo@@V?$allocator@UWeaponInfo@@@std@@@std@@IAEXXZ ENDP ; std::vector<WeaponInfo,std::allocator<WeaponInfo> >::_Tidy
_TEXT	ENDS
PUBLIC	??0?$vector@UWeaponInfo@@V?$allocator@UWeaponInfo@@@std@@@std@@QAE@ABV01@@Z ; std::vector<WeaponInfo,std::allocator<WeaponInfo> >::vector<WeaponInfo,std::allocator<WeaponInfo> >
;	COMDAT xdata$x
; File c:\program files (x86)\microsoft visual studio 10.0\vc\include\xutility
xdata$x	SEGMENT
__catchsym$??0?$vector@UWeaponInfo@@V?$allocator@UWeaponInfo@@@std@@@std@@QAE@ABV01@@Z$2 DD 040H
	DD	00H
	DD	00H
	DD	FLAT:__catch$??0?$vector@UWeaponInfo@@V?$allocator@UWeaponInfo@@@std@@@std@@QAE@ABV01@@Z$0
__unwindtable$??0?$vector@UWeaponInfo@@V?$allocator@UWeaponInfo@@@std@@@std@@QAE@ABV01@@Z DD 0ffffffffH
	DD	00H
	DD	0ffffffffH
	DD	00H
__tryblocktable$??0?$vector@UWeaponInfo@@V?$allocator@UWeaponInfo@@@std@@@std@@QAE@ABV01@@Z DD 00H
	DD	00H
	DD	01H
	DD	01H
	DD	FLAT:__catchsym$??0?$vector@UWeaponInfo@@V?$allocator@UWeaponInfo@@@std@@@std@@QAE@ABV01@@Z$2
__ehfuncinfo$??0?$vector@UWeaponInfo@@V?$allocator@UWeaponInfo@@@std@@@std@@QAE@ABV01@@Z DD 019930522H
	DD	02H
	DD	FLAT:__unwindtable$??0?$vector@UWeaponInfo@@V?$allocator@UWeaponInfo@@@std@@@std@@QAE@ABV01@@Z
	DD	01H
	DD	FLAT:__tryblocktable$??0?$vector@UWeaponInfo@@V?$allocator@UWeaponInfo@@@std@@@std@@QAE@ABV01@@Z
	DD	2 DUP(00H)
	DD	00H
	DD	01H
; Function compile flags: /Ogsp
; File c:\program files (x86)\microsoft visual studio 10.0\vc\include\vector
xdata$x	ENDS
;	COMDAT ??0?$vector@UWeaponInfo@@V?$allocator@UWeaponInfo@@@std@@@std@@QAE@ABV01@@Z
_TEXT	SEGMENT
_this$ = -20						; size = 4
__$EHRec$ = -16						; size = 16
__Cat$542683 = 8					; size = 1
__Right$ = 8						; size = 4
??0?$vector@UWeaponInfo@@V?$allocator@UWeaponInfo@@@std@@@std@@QAE@ABV01@@Z PROC ; std::vector<WeaponInfo,std::allocator<WeaponInfo> >::vector<WeaponInfo,std::allocator<WeaponInfo> >, COMDAT
; _this$ = ecx

; 535  : 		{	// construct by copying _Right

  00000	6a 08		 push	 8
  00002	b8 00 00 00 00	 mov	 eax, __ehhandler$??0?$vector@UWeaponInfo@@V?$allocator@UWeaponInfo@@@std@@@std@@QAE@ABV01@@Z
  00007	e8 00 00 00 00	 call	 __EH_prolog3_catch
  0000c	8b f1		 mov	 esi, ecx
  0000e	89 75 ec	 mov	 DWORD PTR _this$[ebp], esi

; 536  : 		if (_Buy(_Right.size()))

  00011	8b 7d 08	 mov	 edi, DWORD PTR __Right$[ebp]
  00014	33 db		 xor	 ebx, ebx
  00016	89 1e		 mov	 DWORD PTR [esi], ebx
  00018	89 5e 04	 mov	 DWORD PTR [esi+4], ebx
  0001b	89 5e 08	 mov	 DWORD PTR [esi+8], ebx
  0001e	8b 47 04	 mov	 eax, DWORD PTR [edi+4]
  00021	2b 07		 sub	 eax, DWORD PTR [edi]
  00023	6a 28		 push	 40			; 00000028H
  00025	59		 pop	 ecx
  00026	99		 cdq
  00027	f7 f9		 idiv	 ecx
  00029	8b ce		 mov	 ecx, esi
  0002b	50		 push	 eax
  0002c	e8 00 00 00 00	 call	 ?_Buy@?$vector@UWeaponInfo@@V?$allocator@UWeaponInfo@@@std@@@std@@IAE_NI@Z ; std::vector<WeaponInfo,std::allocator<WeaponInfo> >::_Buy
  00031	84 c0		 test	 al, al
  00033	74 1f		 je	 SHORT $LN7@vector@2

; 537  : 			_TRY_BEGIN
; 538  : 			this->_Mylast = _Ucopy(_Right.begin(), _Right.end(),
; 539  : 				this->_Myfirst);

  00035	ff 75 08	 push	 DWORD PTR __Cat$542683[ebp]
  00038	8b 0e		 mov	 ecx, DWORD PTR [esi]
  0003a	8b 47 04	 mov	 eax, DWORD PTR [edi+4]
  0003d	8b 3f		 mov	 edi, DWORD PTR [edi]
  0003f	8d 56 0c	 lea	 edx, DWORD PTR [esi+12]
  00042	52		 push	 edx
  00043	51		 push	 ecx
  00044	50		 push	 eax
  00045	57		 push	 edi
  00046	89 5d fc	 mov	 DWORD PTR __$EHRec$[ebp+12], ebx
  00049	e8 00 00 00 00	 call	 ??$_Uninit_copy@V?$_Vector_const_iterator@V?$_Vector_val@UWeaponInfo@@V?$allocator@UWeaponInfo@@@std@@@std@@@std@@PAUWeaponInfo@@V?$allocator@UWeaponInfo@@@2@@std@@YAPAUWeaponInfo@@V?$_Vector_const_iterator@V?$_Vector_val@UWeaponInfo@@V?$allocator@UWeaponInfo@@@std@@@std@@@0@0PAU1@AAV?$allocator@UWeaponInfo@@@0@U_Nonscalar_ptr_iterator_tag@0@@Z ; std::_Uninit_copy<std::_Vector_const_iterator<std::_Vector_val<WeaponInfo,std::allocator<WeaponInfo> > >,WeaponInfo *,std::allocator<WeaponInfo> >
  0004e	83 c4 14	 add	 esp, 20			; 00000014H
  00051	89 46 04	 mov	 DWORD PTR [esi+4], eax
$LN7@vector@2:

; 543  : 			_CATCH_END
; 544  : 		}

  00054	8b c6		 mov	 eax, esi
  00056	e8 00 00 00 00	 call	 __EH_epilog3
  0005b	c2 04 00	 ret	 4
__catch$??0?$vector@UWeaponInfo@@V?$allocator@UWeaponInfo@@@std@@@std@@QAE@ABV01@@Z$0:

; 540  : 			_CATCH_ALL
; 541  : 			_Tidy();

  0005e	8b 4d ec	 mov	 ecx, DWORD PTR _this$[ebp]
  00061	e8 00 00 00 00	 call	 ?_Tidy@?$vector@UWeaponInfo@@V?$allocator@UWeaponInfo@@@std@@@std@@IAEXXZ ; std::vector<WeaponInfo,std::allocator<WeaponInfo> >::_Tidy

; 542  : 			_RERAISE;

  00066	33 db		 xor	 ebx, ebx
  00068	53		 push	 ebx
  00069	53		 push	 ebx
  0006a	e8 00 00 00 00	 call	 __CxxThrowException@8
$LN38@vector@2:
$LN37@vector@2:
  0006f	cc		 int	 3
_TEXT	ENDS
;	COMDAT text$x
text$x	SEGMENT
__ehhandler$??0?$vector@UWeaponInfo@@V?$allocator@UWeaponInfo@@@std@@@std@@QAE@ABV01@@Z:
  00000	8b 54 24 08	 mov	 edx, DWORD PTR [esp+8]
  00004	8d 42 0c	 lea	 eax, DWORD PTR [edx+12]
  00007	8b 4a e8	 mov	 ecx, DWORD PTR [edx-24]
  0000a	33 c8		 xor	 ecx, eax
  0000c	e8 00 00 00 00	 call	 @__security_check_cookie@4
  00011	b8 00 00 00 00	 mov	 eax, OFFSET __ehfuncinfo$??0?$vector@UWeaponInfo@@V?$allocator@UWeaponInfo@@@std@@@std@@QAE@ABV01@@Z
  00016	e9 00 00 00 00	 jmp	 ___CxxFrameHandler3
text$x	ENDS
??0?$vector@UWeaponInfo@@V?$allocator@UWeaponInfo@@@std@@@std@@QAE@ABV01@@Z ENDP ; std::vector<WeaponInfo,std::allocator<WeaponInfo> >::vector<WeaponInfo,std::allocator<WeaponInfo> >
PUBLIC	??1?$vector@UtagBaseCharDistanceSq@@V?$allocator@UtagBaseCharDistanceSq@@@std@@@std@@QAE@XZ ; std::vector<tagBaseCharDistanceSq,std::allocator<tagBaseCharDistanceSq> >::~vector<tagBaseCharDistanceSq,std::allocator<tagBaseCharDistanceSq> >
; Function compile flags: /Ogsp
;	COMDAT ??1?$vector@UtagBaseCharDistanceSq@@V?$allocator@UtagBaseCharDistanceSq@@@std@@@std@@QAE@XZ
_TEXT	SEGMENT
??1?$vector@UtagBaseCharDistanceSq@@V?$allocator@UtagBaseCharDistanceSq@@@std@@@std@@QAE@XZ PROC ; std::vector<tagBaseCharDistanceSq,std::allocator<tagBaseCharDistanceSq> >::~vector<tagBaseCharDistanceSq,std::allocator<tagBaseCharDistanceSq> >, COMDAT
; _this$ = ecx

; 705  : 		_Tidy();

  00000	e9 00 00 00 00	 jmp	 ?_Tidy@?$vector@UtagBaseCharDistanceSq@@V?$allocator@UtagBaseCharDistanceSq@@@std@@@std@@IAEXXZ ; std::vector<tagBaseCharDistanceSq,std::allocator<tagBaseCharDistanceSq> >::_Tidy
??1?$vector@UtagBaseCharDistanceSq@@V?$allocator@UtagBaseCharDistanceSq@@@std@@@std@@QAE@XZ ENDP ; std::vector<tagBaseCharDistanceSq,std::allocator<tagBaseCharDistanceSq> >::~vector<tagBaseCharDistanceSq,std::allocator<tagBaseCharDistanceSq> >
_TEXT	ENDS
PUBLIC	?_Reserve@?$vector@UtagBaseCharDistanceSq@@V?$allocator@UtagBaseCharDistanceSq@@@std@@@std@@IAEXI@Z ; std::vector<tagBaseCharDistanceSq,std::allocator<tagBaseCharDistanceSq> >::_Reserve
; Function compile flags: /Ogsp
;	COMDAT ?_Reserve@?$vector@UtagBaseCharDistanceSq@@V?$allocator@UtagBaseCharDistanceSq@@@std@@@std@@IAEXI@Z
_TEXT	SEGMENT
__Count$ = 8						; size = 4
?_Reserve@?$vector@UtagBaseCharDistanceSq@@V?$allocator@UtagBaseCharDistanceSq@@@std@@@std@@IAEXI@Z PROC ; std::vector<tagBaseCharDistanceSq,std::allocator<tagBaseCharDistanceSq> >::_Reserve, COMDAT
; _this$ = ecx

; 1290 : 		{	// ensure room for _Count new elements, grow exponentially

  00000	55		 push	 ebp
  00001	8b ec		 mov	 ebp, esp
  00003	56		 push	 esi
  00004	8b f1		 mov	 esi, ecx

; 1291 : 		size_type _Size = size();

  00006	8b 0e		 mov	 ecx, DWORD PTR [esi]
  00008	8b 46 04	 mov	 eax, DWORD PTR [esi+4]
  0000b	2b c1		 sub	 eax, ecx

; 1292 : 		if (max_size() - _Count < _Size)

  0000d	ba ff ff ff 07	 mov	 edx, 134217727		; 07ffffffH
  00012	2b 55 08	 sub	 edx, DWORD PTR __Count$[ebp]
  00015	c1 f8 05	 sar	 eax, 5
  00018	3b d0		 cmp	 edx, eax
  0001a	73 0b		 jae	 SHORT $LN4@Reserve

; 1293 : 			_Xlen();

  0001c	68 00 00 00 00	 push	 OFFSET ??_C@_0BD@OLBABOEK@vector?$DMT?$DO?5too?5long?$AA@
  00021	ff 15 00 00 00
	00		 call	 DWORD PTR __imp_?_Xlength_error@std@@YAXPBD@Z
$LN21@Reserve:
$LN4@Reserve:

; 1294 : 		else if ((_Size += _Count) <= capacity())

  00027	8b 56 08	 mov	 edx, DWORD PTR [esi+8]
  0002a	03 45 08	 add	 eax, DWORD PTR __Count$[ebp]
  0002d	2b d1		 sub	 edx, ecx
  0002f	c1 fa 05	 sar	 edx, 5
  00032	3b c2		 cmp	 eax, edx
  00034	76 10		 jbe	 SHORT $LN1@Reserve

; 1295 : 			;
; 1296 : 		else
; 1297 : 			reserve(_Grow_to(_Size));

  00036	50		 push	 eax
  00037	8b ce		 mov	 ecx, esi
  00039	e8 00 00 00 00	 call	 ?_Grow_to@?$vector@UtagBaseCharDistanceSq@@V?$allocator@UtagBaseCharDistanceSq@@@std@@@std@@IBEII@Z ; std::vector<tagBaseCharDistanceSq,std::allocator<tagBaseCharDistanceSq> >::_Grow_to
  0003e	50		 push	 eax
  0003f	8b ce		 mov	 ecx, esi
  00041	e8 00 00 00 00	 call	 ?reserve@?$vector@UtagBaseCharDistanceSq@@V?$allocator@UtagBaseCharDistanceSq@@@std@@@std@@QAEXI@Z ; std::vector<tagBaseCharDistanceSq,std::allocator<tagBaseCharDistanceSq> >::reserve
$LN1@Reserve:
  00046	5e		 pop	 esi

; 1298 : 		}

  00047	5d		 pop	 ebp
  00048	c2 04 00	 ret	 4
$LN20@Reserve:
?_Reserve@?$vector@UtagBaseCharDistanceSq@@V?$allocator@UtagBaseCharDistanceSq@@@std@@@std@@IAEXI@Z ENDP ; std::vector<tagBaseCharDistanceSq,std::allocator<tagBaseCharDistanceSq> >::_Reserve
_TEXT	ENDS
PUBLIC	??$sort@V?$_Vector_iterator@V?$_Vector_val@UtagBaseCharDistanceSq@@V?$allocator@UtagBaseCharDistanceSq@@@std@@@std@@@std@@VBaseCharDistanceSqSort2@@@std@@YAXV?$_Vector_iterator@V?$_Vector_val@UtagBaseCharDistanceSq@@V?$allocator@UtagBaseCharDistanceSq@@@std@@@std@@@0@0VBaseCharDistanceSqSort2@@@Z ; std::sort<std::_Vector_iterator<std::_Vector_val<tagBaseCharDistanceSq,std::allocator<tagBaseCharDistanceSq> > >,BaseCharDistanceSqSort2>
; Function compile flags: /Ogsp
; File c:\program files (x86)\microsoft visual studio 10.0\vc\include\algorithm
;	COMDAT ??$sort@V?$_Vector_iterator@V?$_Vector_val@UtagBaseCharDistanceSq@@V?$allocator@UtagBaseCharDistanceSq@@@std@@@std@@@std@@VBaseCharDistanceSqSort2@@@std@@YAXV?$_Vector_iterator@V?$_Vector_val@UtagBaseCharDistanceSq@@V?$allocator@UtagBaseCharDistanceSq@@@std@@@std@@@0@0VBaseCharDistanceSqSort2@@@Z
_TEXT	SEGMENT
__First$ = 8						; size = 4
__Last$ = 12						; size = 4
__Pred$ = 16						; size = 1
??$sort@V?$_Vector_iterator@V?$_Vector_val@UtagBaseCharDistanceSq@@V?$allocator@UtagBaseCharDistanceSq@@@std@@@std@@@std@@VBaseCharDistanceSqSort2@@@std@@YAXV?$_Vector_iterator@V?$_Vector_val@UtagBaseCharDistanceSq@@V?$allocator@UtagBaseCharDistanceSq@@@std@@@std@@@0@0VBaseCharDistanceSqSort2@@@Z PROC ; std::sort<std::_Vector_iterator<std::_Vector_val<tagBaseCharDistanceSq,std::allocator<tagBaseCharDistanceSq> > >,BaseCharDistanceSqSort2>, COMDAT

; 3803 : 	{	// order [_First, _Last), using _Pred

  00000	55		 push	 ebp
  00001	8b ec		 mov	 ebp, esp

; 3804 : 	_DEBUG_RANGE(_First, _Last);
; 3805 : 	_DEBUG_POINTER(_Pred);
; 3806 : 	_Sort(_Unchecked(_First), _Unchecked(_Last), _Last - _First, _Pred);

  00003	8b 45 0c	 mov	 eax, DWORD PTR __Last$[ebp]
  00006	ff 75 10	 push	 DWORD PTR __Pred$[ebp]
  00009	2b 45 08	 sub	 eax, DWORD PTR __First$[ebp]
  0000c	c1 f8 05	 sar	 eax, 5
  0000f	50		 push	 eax
  00010	ff 75 0c	 push	 DWORD PTR __Last$[ebp]
  00013	ff 75 08	 push	 DWORD PTR __First$[ebp]
  00016	e8 00 00 00 00	 call	 ??$_Sort@PAUtagBaseCharDistanceSq@@HVBaseCharDistanceSqSort2@@@std@@YAXPAUtagBaseCharDistanceSq@@0HVBaseCharDistanceSqSort2@@@Z ; std::_Sort<tagBaseCharDistanceSq *,int,BaseCharDistanceSqSort2>
  0001b	83 c4 10	 add	 esp, 16			; 00000010H

; 3807 : 	}

  0001e	5d		 pop	 ebp
  0001f	c3		 ret	 0
??$sort@V?$_Vector_iterator@V?$_Vector_val@UtagBaseCharDistanceSq@@V?$allocator@UtagBaseCharDistanceSq@@@std@@@std@@@std@@VBaseCharDistanceSqSort2@@@std@@YAXV?$_Vector_iterator@V?$_Vector_val@UtagBaseCharDistanceSq@@V?$allocator@UtagBaseCharDistanceSq@@@std@@@std@@@0@0VBaseCharDistanceSqSort2@@@Z ENDP ; std::sort<std::_Vector_iterator<std::_Vector_val<tagBaseCharDistanceSq,std::allocator<tagBaseCharDistanceSq> > >,BaseCharDistanceSqSort2>
_TEXT	ENDS
PUBLIC	??1?$vector@UWeaponInfo@@V?$allocator@UWeaponInfo@@@std@@@std@@QAE@XZ ; std::vector<WeaponInfo,std::allocator<WeaponInfo> >::~vector<WeaponInfo,std::allocator<WeaponInfo> >
; Function compile flags: /Ogsp
; File c:\program files (x86)\microsoft visual studio 10.0\vc\include\vector
;	COMDAT ??1?$vector@UWeaponInfo@@V?$allocator@UWeaponInfo@@@std@@@std@@QAE@XZ
_TEXT	SEGMENT
??1?$vector@UWeaponInfo@@V?$allocator@UWeaponInfo@@@std@@@std@@QAE@XZ PROC ; std::vector<WeaponInfo,std::allocator<WeaponInfo> >::~vector<WeaponInfo,std::allocator<WeaponInfo> >, COMDAT
; _this$ = ecx

; 705  : 		_Tidy();

  00000	e9 00 00 00 00	 jmp	 ?_Tidy@?$vector@UWeaponInfo@@V?$allocator@UWeaponInfo@@@std@@@std@@IAEXXZ ; std::vector<WeaponInfo,std::allocator<WeaponInfo> >::_Tidy
??1?$vector@UWeaponInfo@@V?$allocator@UWeaponInfo@@@std@@@std@@QAE@XZ ENDP ; std::vector<WeaponInfo,std::allocator<WeaponInfo> >::~vector<WeaponInfo,std::allocator<WeaponInfo> >
_TEXT	ENDS
PUBLIC	??0AttackAttribute@@QAE@ABU0@@Z			; AttackAttribute::AttackAttribute
;	COMDAT xdata$x
xdata$x	SEGMENT
__unwindtable$??0AttackAttribute@@QAE@ABU0@@Z DD 0ffffffffH
	DD	FLAT:__unwindfunclet$??0AttackAttribute@@QAE@ABU0@@Z$0
	DD	00H
	DD	FLAT:__unwindfunclet$??0AttackAttribute@@QAE@ABU0@@Z$1
	DD	01H
	DD	FLAT:__unwindfunclet$??0AttackAttribute@@QAE@ABU0@@Z$2
__ehfuncinfo$??0AttackAttribute@@QAE@ABU0@@Z DD 019930522H
	DD	03H
	DD	FLAT:__unwindtable$??0AttackAttribute@@QAE@ABU0@@Z
	DD	2 DUP(00H)
	DD	2 DUP(00H)
	DD	00H
	DD	01H
; Function compile flags: /Ogsp
xdata$x	ENDS
;	COMDAT ??0AttackAttribute@@QAE@ABU0@@Z
_TEXT	SEGMENT
_this$ = -16						; size = 4
__$EHRec$ = -12						; size = 12
___that$ = 8						; size = 4
??0AttackAttribute@@QAE@ABU0@@Z PROC			; AttackAttribute::AttackAttribute, COMDAT
; _this$ = ecx
  00000	6a 04		 push	 4
  00002	b8 00 00 00 00	 mov	 eax, __ehhandler$??0AttackAttribute@@QAE@ABU0@@Z
  00007	e8 00 00 00 00	 call	 __EH_prolog3
  0000c	8b f1		 mov	 esi, ecx
  0000e	89 75 f0	 mov	 DWORD PTR _this$[ebp], esi
  00011	8b 7d 08	 mov	 edi, DWORD PTR ___that$[ebp]
  00014	8b 1d 00 00 00
	00		 mov	 ebx, DWORD PTR __imp_??0ioHashString@@QAE@ABV0@@Z
  0001a	57		 push	 edi
  0001b	ff d3		 call	 ebx
  0001d	d9 47 10	 fld	 DWORD PTR [edi+16]
  00020	83 65 fc 00	 and	 DWORD PTR __$EHRec$[ebp+8], 0
  00024	d9 5e 10	 fstp	 DWORD PTR [esi+16]
  00027	8d 47 14	 lea	 eax, DWORD PTR [edi+20]
  0002a	50		 push	 eax
  0002b	8d 4e 14	 lea	 ecx, DWORD PTR [esi+20]
  0002e	ff d3		 call	 ebx
  00030	d9 47 24	 fld	 DWORD PTR [edi+36]
  00033	8d 47 28	 lea	 eax, DWORD PTR [edi+40]
  00036	d9 5e 24	 fstp	 DWORD PTR [esi+36]
  00039	50		 push	 eax
  0003a	8d 4e 28	 lea	 ecx, DWORD PTR [esi+40]
  0003d	c6 45 fc 01	 mov	 BYTE PTR __$EHRec$[ebp+8], 1
  00041	e8 00 00 00 00	 call	 ??0?$vector@UWeaponInfo@@V?$allocator@UWeaponInfo@@@std@@@std@@QAE@ABV01@@Z ; std::vector<WeaponInfo,std::allocator<WeaponInfo> >::vector<WeaponInfo,std::allocator<WeaponInfo> >
  00046	8d 47 38	 lea	 eax, DWORD PTR [edi+56]
  00049	50		 push	 eax
  0004a	8d 4e 38	 lea	 ecx, DWORD PTR [esi+56]
  0004d	c6 45 fc 02	 mov	 BYTE PTR __$EHRec$[ebp+8], 2
  00051	e8 00 00 00 00	 call	 ??0?$vector@UForceInfo@@V?$allocator@UForceInfo@@@std@@@std@@QAE@ABV01@@Z ; std::vector<ForceInfo,std::allocator<ForceInfo> >::vector<ForceInfo,std::allocator<ForceInfo> >
  00056	8b 47 48	 mov	 eax, DWORD PTR [edi+72]
  00059	89 46 48	 mov	 DWORD PTR [esi+72], eax
  0005c	8b 47 4c	 mov	 eax, DWORD PTR [edi+76]
  0005f	89 46 4c	 mov	 DWORD PTR [esi+76], eax
  00062	8b c6		 mov	 eax, esi
  00064	e8 00 00 00 00	 call	 __EH_epilog3
  00069	c2 04 00	 ret	 4
_TEXT	ENDS
;	COMDAT text$x
text$x	SEGMENT
__unwindfunclet$??0AttackAttribute@@QAE@ABU0@@Z$0:
  00000	8b 4d f0	 mov	 ecx, DWORD PTR _this$[ebp]
  00003	ff 25 00 00 00
	00		 jmp	 DWORD PTR __imp_??1ioHashString@@QAE@XZ
__unwindfunclet$??0AttackAttribute@@QAE@ABU0@@Z$1:
  00009	8b 4d f0	 mov	 ecx, DWORD PTR _this$[ebp]
  0000c	83 c1 14	 add	 ecx, 20			; 00000014H
  0000f	ff 25 00 00 00
	00		 jmp	 DWORD PTR __imp_??1ioHashString@@QAE@XZ
__unwindfunclet$??0AttackAttribute@@QAE@ABU0@@Z$2:
  00015	8b 4d f0	 mov	 ecx, DWORD PTR _this$[ebp]
  00018	83 c1 28	 add	 ecx, 40			; 00000028H
  0001b	e9 00 00 00 00	 jmp	 ??1?$vector@UWeaponInfo@@V?$allocator@UWeaponInfo@@@std@@@std@@QAE@XZ ; std::vector<WeaponInfo,std::allocator<WeaponInfo> >::~vector<WeaponInfo,std::allocator<WeaponInfo> >
__ehhandler$??0AttackAttribute@@QAE@ABU0@@Z:
  00020	8b 54 24 08	 mov	 edx, DWORD PTR [esp+8]
  00024	8d 42 0c	 lea	 eax, DWORD PTR [edx+12]
  00027	8b 4a ec	 mov	 ecx, DWORD PTR [edx-20]
  0002a	33 c8		 xor	 ecx, eax
  0002c	e8 00 00 00 00	 call	 @__security_check_cookie@4
  00031	b8 00 00 00 00	 mov	 eax, OFFSET __ehfuncinfo$??0AttackAttribute@@QAE@ABU0@@Z
  00036	e9 00 00 00 00	 jmp	 ___CxxFrameHandler3
text$x	ENDS
??0AttackAttribute@@QAE@ABU0@@Z ENDP			; AttackAttribute::AttackAttribute
PUBLIC	?push_back@?$vector@UtagBaseCharDistanceSq@@V?$allocator@UtagBaseCharDistanceSq@@@std@@@std@@QAEXABUtagBaseCharDistanceSq@@@Z ; std::vector<tagBaseCharDistanceSq,std::allocator<tagBaseCharDistanceSq> >::push_back
; Function compile flags: /Ogsp
;	COMDAT ?push_back@?$vector@UtagBaseCharDistanceSq@@V?$allocator@UtagBaseCharDistanceSq@@@std@@@std@@QAEXABUtagBaseCharDistanceSq@@@Z
_TEXT	SEGMENT
__Val$ = 8						; size = 4
?push_back@?$vector@UtagBaseCharDistanceSq@@V?$allocator@UtagBaseCharDistanceSq@@@std@@@std@@QAEXABUtagBaseCharDistanceSq@@@Z PROC ; std::vector<tagBaseCharDistanceSq,std::allocator<tagBaseCharDistanceSq> >::push_back, COMDAT
; _this$ = ecx

; 976  : 		{	// insert element at end

  00000	55		 push	 ebp
  00001	8b ec		 mov	 ebp, esp
  00003	56		 push	 esi
  00004	8b f1		 mov	 esi, ecx

; 977  : 		if (_Inside(_STD addressof(_Val)))

  00006	8b 46 04	 mov	 eax, DWORD PTR [esi+4]
  00009	57		 push	 edi
  0000a	8b 7d 08	 mov	 edi, DWORD PTR __Val$[ebp]
  0000d	3b f8		 cmp	 edi, eax
  0000f	73 2d		 jae	 SHORT $LN4@push_back
  00011	8b 0e		 mov	 ecx, DWORD PTR [esi]
  00013	3b cf		 cmp	 ecx, edi
  00015	77 27		 ja	 SHORT $LN4@push_back

; 978  : 			{	// push back an element
; 979  : 			size_type _Idx = _STD addressof(_Val) - this->_Myfirst;

  00017	2b f9		 sub	 edi, ecx

; 980  : 			if (this->_Mylast == this->_Myend)

  00019	3b 46 08	 cmp	 eax, DWORD PTR [esi+8]
  0001c	75 09		 jne	 SHORT $LN3@push_back

; 981  : 				_Reserve(1);

  0001e	6a 01		 push	 1
  00020	8b ce		 mov	 ecx, esi
  00022	e8 00 00 00 00	 call	 ?_Reserve@?$vector@UtagBaseCharDistanceSq@@V?$allocator@UtagBaseCharDistanceSq@@@std@@@std@@IAEXI@Z ; std::vector<tagBaseCharDistanceSq,std::allocator<tagBaseCharDistanceSq> >::_Reserve
$LN3@push_back:

; 982  : 			_Orphan_range(this->_Mylast, this->_Mylast);
; 983  : 			_Cons_val(this->_Alval,
; 984  : 				this->_Mylast,
; 985  : 				this->_Myfirst[_Idx]);

  00027	83 e7 e0	 and	 edi, -32		; ffffffe0H
  0002a	03 3e		 add	 edi, DWORD PTR [esi]
  0002c	8d 46 0c	 lea	 eax, DWORD PTR [esi+12]
  0002f	57		 push	 edi
  00030	ff 76 04	 push	 DWORD PTR [esi+4]
  00033	50		 push	 eax
  00034	e8 00 00 00 00	 call	 ??$_Cons_val@V?$allocator@UtagBaseCharDistanceSq@@@std@@UtagBaseCharDistanceSq@@AAU3@@std@@YAXAAV?$allocator@UtagBaseCharDistanceSq@@@0@PAUtagBaseCharDistanceSq@@AAU2@@Z ; std::_Cons_val<std::allocator<tagBaseCharDistanceSq>,tagBaseCharDistanceSq,tagBaseCharDistanceSq &>
  00039	83 c4 0c	 add	 esp, 12			; 0000000cH

; 986  : 			++this->_Mylast;
; 987  : 			}
; 988  : 		else

  0003c	eb 19		 jmp	 SHORT $LN26@push_back
$LN4@push_back:

; 989  : 			{	// push back a non-element
; 990  : 			if (this->_Mylast == this->_Myend)

  0003e	3b 46 08	 cmp	 eax, DWORD PTR [esi+8]
  00041	75 09		 jne	 SHORT $LN1@push_back

; 991  : 				_Reserve(1);

  00043	6a 01		 push	 1
  00045	8b ce		 mov	 ecx, esi
  00047	e8 00 00 00 00	 call	 ?_Reserve@?$vector@UtagBaseCharDistanceSq@@V?$allocator@UtagBaseCharDistanceSq@@@std@@@std@@IAEXI@Z ; std::vector<tagBaseCharDistanceSq,std::allocator<tagBaseCharDistanceSq> >::_Reserve
$LN1@push_back:

; 992  : 			_Orphan_range(this->_Mylast, this->_Mylast);
; 993  : 			_Cons_val(this->_Alval,
; 994  : 				this->_Mylast,
; 995  : 				_Val);

  0004c	57		 push	 edi
  0004d	ff 76 04	 push	 DWORD PTR [esi+4]
  00050	e8 00 00 00 00	 call	 ??$_Construct@UtagBaseCharDistanceSq@@ABU1@@std@@YAXPAUtagBaseCharDistanceSq@@ABU1@@Z ; std::_Construct<tagBaseCharDistanceSq,tagBaseCharDistanceSq const &>
  00055	59		 pop	 ecx
  00056	59		 pop	 ecx
$LN26@push_back:

; 996  : 			++this->_Mylast;

  00057	83 46 04 20	 add	 DWORD PTR [esi+4], 32	; 00000020H
  0005b	5f		 pop	 edi
  0005c	5e		 pop	 esi

; 997  : 			}
; 998  : 		}

  0005d	5d		 pop	 ebp
  0005e	c2 04 00	 ret	 4
?push_back@?$vector@UtagBaseCharDistanceSq@@V?$allocator@UtagBaseCharDistanceSq@@@std@@@std@@QAEXABUtagBaseCharDistanceSq@@@Z ENDP ; std::vector<tagBaseCharDistanceSq,std::allocator<tagBaseCharDistanceSq> >::push_back
_TEXT	ENDS
PUBLIC	??0AttackAttribute@@QAE@XZ			; AttackAttribute::AttackAttribute
EXTRN	?Init@AttackAttribute@@QAEXXZ:PROC		; AttackAttribute::Init
;	COMDAT xdata$x
; File c:\program files (x86)\microsoft visual studio 10.0\vc\include\xmemory
xdata$x	SEGMENT
__unwindtable$??0AttackAttribute@@QAE@XZ DD 0ffffffffH
	DD	FLAT:__unwindfunclet$??0AttackAttribute@@QAE@XZ$0
	DD	00H
	DD	FLAT:__unwindfunclet$??0AttackAttribute@@QAE@XZ$1
	DD	01H
	DD	FLAT:__unwindfunclet$??0AttackAttribute@@QAE@XZ$2
	DD	02H
	DD	FLAT:__unwindfunclet$??0AttackAttribute@@QAE@XZ$3
__ehfuncinfo$??0AttackAttribute@@QAE@XZ DD 019930522H
	DD	04H
	DD	FLAT:__unwindtable$??0AttackAttribute@@QAE@XZ
	DD	2 DUP(00H)
	DD	2 DUP(00H)
	DD	00H
	DD	01H
; Function compile flags: /Ogsp
; File d:\lost saga for developer\youtube\tutorial\source\src\lsclient\ioattackattribute.h
xdata$x	ENDS
;	COMDAT ??0AttackAttribute@@QAE@XZ
_TEXT	SEGMENT
_this$ = -16						; size = 4
__$EHRec$ = -12						; size = 12
??0AttackAttribute@@QAE@XZ PROC				; AttackAttribute::AttackAttribute, COMDAT
; _this$ = ecx

; 107  : 	AttackAttribute()

  00000	6a 04		 push	 4
  00002	b8 00 00 00 00	 mov	 eax, __ehhandler$??0AttackAttribute@@QAE@XZ
  00007	e8 00 00 00 00	 call	 __EH_prolog3
  0000c	8b f1		 mov	 esi, ecx
  0000e	89 75 f0	 mov	 DWORD PTR _this$[ebp], esi
  00011	8b 3d 00 00 00
	00		 mov	 edi, DWORD PTR __imp_??0ioHashString@@QAE@XZ
  00017	ff d7		 call	 edi
  00019	33 db		 xor	 ebx, ebx
  0001b	8d 4e 14	 lea	 ecx, DWORD PTR [esi+20]
  0001e	89 5d fc	 mov	 DWORD PTR __$EHRec$[ebp+8], ebx
  00021	ff d7		 call	 edi
  00023	89 5e 28	 mov	 DWORD PTR [esi+40], ebx
  00026	89 5e 2c	 mov	 DWORD PTR [esi+44], ebx
  00029	89 5e 30	 mov	 DWORD PTR [esi+48], ebx
  0002c	89 5e 38	 mov	 DWORD PTR [esi+56], ebx
  0002f	89 5e 3c	 mov	 DWORD PTR [esi+60], ebx
  00032	89 5e 40	 mov	 DWORD PTR [esi+64], ebx

; 108  : 	{
; 109  : 		Init();

  00035	8b ce		 mov	 ecx, esi
  00037	c6 45 fc 03	 mov	 BYTE PTR __$EHRec$[ebp+8], 3
  0003b	e8 00 00 00 00	 call	 ?Init@AttackAttribute@@QAEXXZ ; AttackAttribute::Init

; 110  : 	}

  00040	8b c6		 mov	 eax, esi
  00042	e8 00 00 00 00	 call	 __EH_epilog3
  00047	c3		 ret	 0
_TEXT	ENDS
;	COMDAT text$x
text$x	SEGMENT
__unwindfunclet$??0AttackAttribute@@QAE@XZ$0:
  00000	8b 4d f0	 mov	 ecx, DWORD PTR _this$[ebp]
  00003	ff 25 00 00 00
	00		 jmp	 DWORD PTR __imp_??1ioHashString@@QAE@XZ
__unwindfunclet$??0AttackAttribute@@QAE@XZ$1:
  00009	8b 4d f0	 mov	 ecx, DWORD PTR _this$[ebp]
  0000c	83 c1 14	 add	 ecx, 20			; 00000014H
  0000f	ff 25 00 00 00
	00		 jmp	 DWORD PTR __imp_??1ioHashString@@QAE@XZ
__unwindfunclet$??0AttackAttribute@@QAE@XZ$2:
  00015	8b 4d f0	 mov	 ecx, DWORD PTR _this$[ebp]
  00018	83 c1 28	 add	 ecx, 40			; 00000028H
  0001b	e9 00 00 00 00	 jmp	 ??1?$vector@UWeaponInfo@@V?$allocator@UWeaponInfo@@@std@@@std@@QAE@XZ ; std::vector<WeaponInfo,std::allocator<WeaponInfo> >::~vector<WeaponInfo,std::allocator<WeaponInfo> >
__unwindfunclet$??0AttackAttribute@@QAE@XZ$3:
  00020	8b 4d f0	 mov	 ecx, DWORD PTR _this$[ebp]
  00023	83 c1 38	 add	 ecx, 56			; 00000038H
  00026	e9 00 00 00 00	 jmp	 ??1?$vector@UForceInfo@@V?$allocator@UForceInfo@@@std@@@std@@QAE@XZ ; std::vector<ForceInfo,std::allocator<ForceInfo> >::~vector<ForceInfo,std::allocator<ForceInfo> >
__ehhandler$??0AttackAttribute@@QAE@XZ:
  0002b	8b 54 24 08	 mov	 edx, DWORD PTR [esp+8]
  0002f	8d 42 0c	 lea	 eax, DWORD PTR [edx+12]
  00032	8b 4a ec	 mov	 ecx, DWORD PTR [edx-20]
  00035	33 c8		 xor	 ecx, eax
  00037	e8 00 00 00 00	 call	 @__security_check_cookie@4
  0003c	b8 00 00 00 00	 mov	 eax, OFFSET __ehfuncinfo$??0AttackAttribute@@QAE@XZ
  00041	e9 00 00 00 00	 jmp	 ___CxxFrameHandler3
text$x	ENDS
??0AttackAttribute@@QAE@XZ ENDP				; AttackAttribute::AttackAttribute
PUBLIC	??1AttackAttribute@@QAE@XZ			; AttackAttribute::~AttackAttribute
;	COMDAT xdata$x
xdata$x	SEGMENT
__unwindtable$??1AttackAttribute@@QAE@XZ DD 0ffffffffH
	DD	FLAT:__unwindfunclet$??1AttackAttribute@@QAE@XZ$0
	DD	00H
	DD	FLAT:__unwindfunclet$??1AttackAttribute@@QAE@XZ$1
	DD	01H
	DD	FLAT:__unwindfunclet$??1AttackAttribute@@QAE@XZ$2
__ehfuncinfo$??1AttackAttribute@@QAE@XZ DD 019930522H
	DD	03H
	DD	FLAT:__unwindtable$??1AttackAttribute@@QAE@XZ
	DD	2 DUP(00H)
	DD	2 DUP(00H)
	DD	00H
	DD	01H
; Function compile flags: /Ogsp
xdata$x	ENDS
;	COMDAT ??1AttackAttribute@@QAE@XZ
_TEXT	SEGMENT
_this$ = -16						; size = 4
__$EHRec$ = -12						; size = 12
??1AttackAttribute@@QAE@XZ PROC				; AttackAttribute::~AttackAttribute, COMDAT
; _this$ = ecx
  00000	6a 04		 push	 4
  00002	b8 00 00 00 00	 mov	 eax, __ehhandler$??1AttackAttribute@@QAE@XZ
  00007	e8 00 00 00 00	 call	 __EH_prolog3
  0000c	8b f1		 mov	 esi, ecx
  0000e	89 75 f0	 mov	 DWORD PTR _this$[ebp], esi
  00011	8d 4e 38	 lea	 ecx, DWORD PTR [esi+56]
  00014	c7 45 fc 02 00
	00 00		 mov	 DWORD PTR __$EHRec$[ebp+8], 2
  0001b	e8 00 00 00 00	 call	 ?_Tidy@?$vector@UForceInfo@@V?$allocator@UForceInfo@@@std@@@std@@IAEXXZ ; std::vector<ForceInfo,std::allocator<ForceInfo> >::_Tidy
  00020	8d 4e 28	 lea	 ecx, DWORD PTR [esi+40]
  00023	c6 45 fc 01	 mov	 BYTE PTR __$EHRec$[ebp+8], 1
  00027	e8 00 00 00 00	 call	 ?_Tidy@?$vector@UWeaponInfo@@V?$allocator@UWeaponInfo@@@std@@@std@@IAEXXZ ; std::vector<WeaponInfo,std::allocator<WeaponInfo> >::_Tidy
  0002c	8b 3d 00 00 00
	00		 mov	 edi, DWORD PTR __imp_??1ioHashString@@QAE@XZ
  00032	8d 4e 14	 lea	 ecx, DWORD PTR [esi+20]
  00035	c6 45 fc 00	 mov	 BYTE PTR __$EHRec$[ebp+8], 0
  00039	ff d7		 call	 edi
  0003b	83 4d fc ff	 or	 DWORD PTR __$EHRec$[ebp+8], -1
  0003f	8b ce		 mov	 ecx, esi
  00041	ff d7		 call	 edi
  00043	e8 00 00 00 00	 call	 __EH_epilog3
  00048	c3		 ret	 0
_TEXT	ENDS
;	COMDAT text$x
text$x	SEGMENT
__unwindfunclet$??1AttackAttribute@@QAE@XZ$0:
  00000	8b 4d f0	 mov	 ecx, DWORD PTR _this$[ebp]
  00003	ff 25 00 00 00
	00		 jmp	 DWORD PTR __imp_??1ioHashString@@QAE@XZ
__unwindfunclet$??1AttackAttribute@@QAE@XZ$1:
  00009	8b 4d f0	 mov	 ecx, DWORD PTR _this$[ebp]
  0000c	83 c1 14	 add	 ecx, 20			; 00000014H
  0000f	ff 25 00 00 00
	00		 jmp	 DWORD PTR __imp_??1ioHashString@@QAE@XZ
__unwindfunclet$??1AttackAttribute@@QAE@XZ$2:
  00015	8b 4d f0	 mov	 ecx, DWORD PTR _this$[ebp]
  00018	83 c1 28	 add	 ecx, 40			; 00000028H
  0001b	e9 00 00 00 00	 jmp	 ??1?$vector@UWeaponInfo@@V?$allocator@UWeaponInfo@@@std@@@std@@QAE@XZ ; std::vector<WeaponInfo,std::allocator<WeaponInfo> >::~vector<WeaponInfo,std::allocator<WeaponInfo> >
__ehhandler$??1AttackAttribute@@QAE@XZ:
  00020	8b 54 24 08	 mov	 edx, DWORD PTR [esp+8]
  00024	8d 42 0c	 lea	 eax, DWORD PTR [edx+12]
  00027	8b 4a ec	 mov	 ecx, DWORD PTR [edx-20]
  0002a	33 c8		 xor	 ecx, eax
  0002c	e8 00 00 00 00	 call	 @__security_check_cookie@4
  00031	b8 00 00 00 00	 mov	 eax, OFFSET __ehfuncinfo$??1AttackAttribute@@QAE@XZ
  00036	e9 00 00 00 00	 jmp	 ___CxxFrameHandler3
text$x	ENDS
??1AttackAttribute@@QAE@XZ ENDP				; AttackAttribute::~AttackAttribute
PUBLIC	??_7ioKeyMarkAttackBuff@@6B@			; ioKeyMarkAttackBuff::`vftable'
PUBLIC	??0ioKeyMarkAttackBuff@@QAE@XZ			; ioKeyMarkAttackBuff::ioKeyMarkAttackBuff
PUBLIC	??_R4ioKeyMarkAttackBuff@@6B@			; ioKeyMarkAttackBuff::`RTTI Complete Object Locator'
PUBLIC	??_R0?AVioKeyMarkAttackBuff@@@8			; ioKeyMarkAttackBuff `RTTI Type Descriptor'
PUBLIC	??_R3ioKeyMarkAttackBuff@@8			; ioKeyMarkAttackBuff::`RTTI Class Hierarchy Descriptor'
PUBLIC	??_R2ioKeyMarkAttackBuff@@8			; ioKeyMarkAttackBuff::`RTTI Base Class Array'
PUBLIC	??_R1A@?0A@EA@ioKeyMarkAttackBuff@@8		; ioKeyMarkAttackBuff::`RTTI Base Class Descriptor at (0,-1,0,64)'
PUBLIC	??_R1A@?0A@EA@ioBuff@@8				; ioBuff::`RTTI Base Class Descriptor at (0,-1,0,64)'
PUBLIC	??_R0?AVioBuff@@@8				; ioBuff `RTTI Type Descriptor'
PUBLIC	??_R3ioBuff@@8					; ioBuff::`RTTI Class Hierarchy Descriptor'
PUBLIC	??_R2ioBuff@@8					; ioBuff::`RTTI Base Class Array'
PUBLIC	?Clone@ioKeyMarkAttackBuff@@UAEPAVioBuff@@XZ	; ioKeyMarkAttackBuff::Clone
PUBLIC	?ProcessBuff@ioKeyMarkAttackBuff@@UAEXM@Z	; ioKeyMarkAttackBuff::ProcessBuff
PUBLIC	?ApplyExtraBuffInfo@ioKeyMarkAttackBuff@@UAEXAAVSP2Packet@@@Z ; ioKeyMarkAttackBuff::ApplyExtraBuffInfo
PUBLIC	?IsWaitSelfRemove@ioBuff@@UAE_NXZ		; ioBuff::IsWaitSelfRemove
EXTRN	??1ioBuff@@UAE@XZ:PROC				; ioBuff::~ioBuff
EXTRN	??0ioBuff@@QAE@XZ:PROC				; ioBuff::ioBuff
EXTRN	?StartBuffWithAniTime@ioBuff@@UAEXPAVioBaseChar@@K@Z:PROC ; ioBuff::StartBuffWithAniTime
EXTRN	?CancelBuff@ioBuff@@UAEXXZ:PROC			; ioBuff::CancelBuff
EXTRN	?GetBuffInfo@ioBuff@@UAEXAAVSP2Packet@@@Z:PROC	; ioBuff::GetBuffInfo
EXTRN	?ApplyBuffInfo@ioBuff@@UAEXAAVSP2Packet@@@Z:PROC ; ioBuff::ApplyBuffInfo
EXTRN	?AccumulateBuff@ioBuff@@UAEXXZ:PROC		; ioBuff::AccumulateBuff
EXTRN	?IsLiveButStopped@ioBuff@@UBE_NXZ:PROC		; ioBuff::IsLiveButStopped
EXTRN	?IsCanJumpAttack@ioBuff@@UBE_NXZ:PROC		; ioBuff::IsCanJumpAttack
EXTRN	?SetAction@ioBuff@@MAEXXZ:PROC			; ioBuff::SetAction
EXTRN	?ProcessDelay@ioBuff@@MAEXM@Z:PROC		; ioBuff::ProcessDelay
EXTRN	?SetExtraDurationByGrowth@ioBuff@@UAEXM@Z:PROC	; ioBuff::SetExtraDurationByGrowth
EXTRN	?SetWeaponIndex@ioBuff@@UAEXK@Z:PROC		; ioBuff::SetWeaponIndex
EXTRN	?OnReduceGauge@ioBuff@@UBE_NXZ:PROC		; ioBuff::OnReduceGauge
EXTRN	?IsCharCollisionSkip@ioBuff@@UBE_NXZ:PROC	; ioBuff::IsCharCollisionSkip
EXTRN	?IsCollisionAvailableWeapon@ioBuff@@UBE_NXZ:PROC ; ioBuff::IsCollisionAvailableWeapon
EXTRN	?UseActiveCount@ioBuff@@UBE_NXZ:PROC		; ioBuff::UseActiveCount
EXTRN	?CheckActiveCount@ioBuff@@UAEXXZ:PROC		; ioBuff::CheckActiveCount
EXTRN	?CheckRemoveEquipSkillBuff@ioBuff@@UAEX_N@Z:PROC ; ioBuff::CheckRemoveEquipSkillBuff
EXTRN	?SetBuffGrapplingState@ioBuff@@UAE_NPAVioBaseChar@@ABVioHashString@@@Z:PROC ; ioBuff::SetBuffGrapplingState
EXTRN	?GetGrapplingTargetPos@ioBuff@@UAE?AUD3DXVECTOR3@@PAVioBaseChar@@@Z:PROC ; ioBuff::GetGrapplingTargetPos
EXTRN	??_EioKeyMarkAttackBuff@@UAEPAXI@Z:PROC		; ioKeyMarkAttackBuff::`vector deleting destructor'
;	COMDAT ??_R2ioBuff@@8
; File c:\program files (x86)\microsoft directx sdk (june 2010)\include\d3dx9math.h
rdata$r	SEGMENT
??_R2ioBuff@@8 DD FLAT:??_R1A@?0A@EA@ioBuff@@8		; ioBuff::`RTTI Base Class Array'
rdata$r	ENDS
;	COMDAT ??_R3ioBuff@@8
rdata$r	SEGMENT
??_R3ioBuff@@8 DD 00H					; ioBuff::`RTTI Class Hierarchy Descriptor'
	DD	00H
	DD	01H
	DD	FLAT:??_R2ioBuff@@8
rdata$r	ENDS
;	COMDAT ??_R0?AVioBuff@@@8
_DATA	SEGMENT
??_R0?AVioBuff@@@8 DD FLAT:??_7type_info@@6B@		; ioBuff `RTTI Type Descriptor'
	DD	00H
	DB	'.?AVioBuff@@', 00H
_DATA	ENDS
;	COMDAT ??_R1A@?0A@EA@ioBuff@@8
rdata$r	SEGMENT
??_R1A@?0A@EA@ioBuff@@8 DD FLAT:??_R0?AVioBuff@@@8	; ioBuff::`RTTI Base Class Descriptor at (0,-1,0,64)'
	DD	00H
	DD	00H
	DD	0ffffffffH
	DD	00H
	DD	040H
	DD	FLAT:??_R3ioBuff@@8
rdata$r	ENDS
;	COMDAT ??_R1A@?0A@EA@ioKeyMarkAttackBuff@@8
rdata$r	SEGMENT
??_R1A@?0A@EA@ioKeyMarkAttackBuff@@8 DD FLAT:??_R0?AVioKeyMarkAttackBuff@@@8 ; ioKeyMarkAttackBuff::`RTTI Base Class Descriptor at (0,-1,0,64)'
	DD	01H
	DD	00H
	DD	0ffffffffH
	DD	00H
	DD	040H
	DD	FLAT:??_R3ioKeyMarkAttackBuff@@8
rdata$r	ENDS
;	COMDAT ??_R2ioKeyMarkAttackBuff@@8
rdata$r	SEGMENT
??_R2ioKeyMarkAttackBuff@@8 DD FLAT:??_R1A@?0A@EA@ioKeyMarkAttackBuff@@8 ; ioKeyMarkAttackBuff::`RTTI Base Class Array'
	DD	FLAT:??_R1A@?0A@EA@ioBuff@@8
rdata$r	ENDS
;	COMDAT ??_R3ioKeyMarkAttackBuff@@8
rdata$r	SEGMENT
??_R3ioKeyMarkAttackBuff@@8 DD 00H			; ioKeyMarkAttackBuff::`RTTI Class Hierarchy Descriptor'
	DD	00H
	DD	02H
	DD	FLAT:??_R2ioKeyMarkAttackBuff@@8
rdata$r	ENDS
;	COMDAT ??_R0?AVioKeyMarkAttackBuff@@@8
_DATA	SEGMENT
??_R0?AVioKeyMarkAttackBuff@@@8 DD FLAT:??_7type_info@@6B@ ; ioKeyMarkAttackBuff `RTTI Type Descriptor'
	DD	00H
	DB	'.?AVioKeyMarkAttackBuff@@', 00H
_DATA	ENDS
;	COMDAT ??_R4ioKeyMarkAttackBuff@@6B@
rdata$r	SEGMENT
??_R4ioKeyMarkAttackBuff@@6B@ DD 00H			; ioKeyMarkAttackBuff::`RTTI Complete Object Locator'
	DD	00H
	DD	00H
	DD	FLAT:??_R0?AVioKeyMarkAttackBuff@@@8
	DD	FLAT:??_R3ioKeyMarkAttackBuff@@8
rdata$r	ENDS
;	COMDAT ??_7ioKeyMarkAttackBuff@@6B@
CONST	SEGMENT
??_7ioKeyMarkAttackBuff@@6B@ DD FLAT:??_R4ioKeyMarkAttackBuff@@6B@ ; ioKeyMarkAttackBuff::`vftable'
	DD	FLAT:?LoadProperty@ioKeyMarkAttackBuff@@UAEXAAVioINILoader@@@Z
	DD	FLAT:?Clone@ioKeyMarkAttackBuff@@UAEPAVioBuff@@XZ
	DD	FLAT:?StartBuff@ioKeyMarkAttackBuff@@UAEXPAVioBaseChar@@@Z
	DD	FLAT:?StartBuffWithAniTime@ioBuff@@UAEXPAVioBaseChar@@K@Z
	DD	FLAT:?ApplyStartBuff@ioKeyMarkAttackBuff@@UAE_NPAVioBaseChar@@KK@Z
	DD	FLAT:?ProcessBuff@ioKeyMarkAttackBuff@@UAEXM@Z
	DD	FLAT:?EndBuff@ioKeyMarkAttackBuff@@UAEXXZ
	DD	FLAT:?CancelBuff@ioBuff@@UAEXXZ
	DD	FLAT:?GetBuffInfo@ioBuff@@UAEXAAVSP2Packet@@@Z
	DD	FLAT:?ApplyBuffInfo@ioBuff@@UAEXAAVSP2Packet@@@Z
	DD	FLAT:?AccumulateBuff@ioBuff@@UAEXXZ
	DD	FLAT:?IsLiveButStopped@ioBuff@@UBE_NXZ
	DD	FLAT:?IsCanJumpAttack@ioBuff@@UBE_NXZ
	DD	FLAT:?SetAction@ioBuff@@MAEXXZ
	DD	FLAT:?ProcessDelay@ioBuff@@MAEXM@Z
	DD	FLAT:?SetExtraDurationByGrowth@ioBuff@@UAEXM@Z
	DD	FLAT:?SetWeaponIndex@ioBuff@@UAEXK@Z
	DD	FLAT:?OnReduceGauge@ioBuff@@UBE_NXZ
	DD	FLAT:?IsCharCollisionSkip@ioBuff@@UBE_NXZ
	DD	FLAT:?IsCollisionAvailableWeapon@ioBuff@@UBE_NXZ
	DD	FLAT:?IsProtected@ioKeyMarkAttackBuff@@UBE_NXZ
	DD	FLAT:?UseActiveCount@ioBuff@@UBE_NXZ
	DD	FLAT:?CheckActiveCount@ioBuff@@UAEXXZ
	DD	FLAT:?CheckRemoveEquipSkillBuff@ioBuff@@UAEX_N@Z
	DD	FLAT:?ApplyExtraBuffInfo@ioKeyMarkAttackBuff@@UAEXAAVSP2Packet@@@Z
	DD	FLAT:?SetBuffGrapplingState@ioBuff@@UAE_NPAVioBaseChar@@ABVioHashString@@@Z
	DD	FLAT:?GetGrapplingTargetPos@ioBuff@@UAE?AUD3DXVECTOR3@@PAVioBaseChar@@@Z
	DD	FLAT:?IsWaitSelfRemove@ioBuff@@UAE_NXZ
	DD	FLAT:??_EioKeyMarkAttackBuff@@UAEPAXI@Z
CONST	ENDS
;	COMDAT xdata$x
xdata$x	SEGMENT
__ehfuncinfo$??0ioKeyMarkAttackBuff@@QAE@XZ DD 019930522H
	DD	0fH
	DD	FLAT:__unwindtable$??0ioKeyMarkAttackBuff@@QAE@XZ
	DD	2 DUP(00H)
	DD	2 DUP(00H)
	DD	00H
	DD	01H
__unwindtable$??0ioKeyMarkAttackBuff@@QAE@XZ DD 0ffffffffH
	DD	FLAT:__unwindfunclet$??0ioKeyMarkAttackBuff@@QAE@XZ$0
	DD	00H
	DD	FLAT:__unwindfunclet$??0ioKeyMarkAttackBuff@@QAE@XZ$1
	DD	01H
	DD	FLAT:__unwindfunclet$??0ioKeyMarkAttackBuff@@QAE@XZ$2
	DD	02H
	DD	FLAT:__unwindfunclet$??0ioKeyMarkAttackBuff@@QAE@XZ$3
	DD	03H
	DD	FLAT:__unwindfunclet$??0ioKeyMarkAttackBuff@@QAE@XZ$4
	DD	04H
	DD	FLAT:__unwindfunclet$??0ioKeyMarkAttackBuff@@QAE@XZ$5
	DD	05H
	DD	FLAT:__unwindfunclet$??0ioKeyMarkAttackBuff@@QAE@XZ$6
	DD	06H
	DD	FLAT:__unwindfunclet$??0ioKeyMarkAttackBuff@@QAE@XZ$7
	DD	07H
	DD	FLAT:__unwindfunclet$??0ioKeyMarkAttackBuff@@QAE@XZ$8
	DD	08H
	DD	FLAT:__unwindfunclet$??0ioKeyMarkAttackBuff@@QAE@XZ$9
	DD	09H
	DD	FLAT:__unwindfunclet$??0ioKeyMarkAttackBuff@@QAE@XZ$10
	DD	0aH
	DD	FLAT:__unwindfunclet$??0ioKeyMarkAttackBuff@@QAE@XZ$11
	DD	0bH
	DD	FLAT:__unwindfunclet$??0ioKeyMarkAttackBuff@@QAE@XZ$12
	DD	0cH
	DD	FLAT:__unwindfunclet$??0ioKeyMarkAttackBuff@@QAE@XZ$13
	DD	0dH
	DD	FLAT:__unwindfunclet$??0ioKeyMarkAttackBuff@@QAE@XZ$14
; Function compile flags: /Ogsp
; File d:\lost saga for developer\youtube\tutorial\source\src\lsclient\iokeymarkattackbuff.cpp
xdata$x	ENDS
;	COMDAT ??0ioKeyMarkAttackBuff@@QAE@XZ
_TEXT	SEGMENT
_this$ = -16						; size = 4
__$EHRec$ = -12						; size = 12
??0ioKeyMarkAttackBuff@@QAE@XZ PROC			; ioKeyMarkAttackBuff::ioKeyMarkAttackBuff, COMDAT
; _this$ = ecx

; 9    : {

  00000	6a 04		 push	 4
  00002	b8 00 00 00 00	 mov	 eax, __ehhandler$??0ioKeyMarkAttackBuff@@QAE@XZ
  00007	e8 00 00 00 00	 call	 __EH_prolog3
  0000c	8b f1		 mov	 esi, ecx
  0000e	89 75 f0	 mov	 DWORD PTR _this$[ebp], esi
  00011	e8 00 00 00 00	 call	 ??0ioBuff@@QAE@XZ	; ioBuff::ioBuff
  00016	83 65 fc 00	 and	 DWORD PTR __$EHRec$[ebp+8], 0
  0001a	8d 8e 74 09 00
	00		 lea	 ecx, DWORD PTR [esi+2420]
  00020	c7 06 00 00 00
	00		 mov	 DWORD PTR [esi], OFFSET ??_7ioKeyMarkAttackBuff@@6B@
  00026	e8 00 00 00 00	 call	 ??0?$CEncrypt@M@@QAE@XZ	; CEncrypt<float>::CEncrypt<float>
  0002b	8d 8e a4 09 00
	00		 lea	 ecx, DWORD PTR [esi+2468]
  00031	c6 45 fc 01	 mov	 BYTE PTR __$EHRec$[ebp+8], 1
  00035	e8 00 00 00 00	 call	 ??0?$CEncrypt@M@@QAE@XZ	; CEncrypt<float>::CEncrypt<float>
  0003a	8d 8e d4 09 00
	00		 lea	 ecx, DWORD PTR [esi+2516]
  00040	c6 45 fc 02	 mov	 BYTE PTR __$EHRec$[ebp+8], 2
  00044	e8 00 00 00 00	 call	 ??0?$CEncrypt@M@@QAE@XZ	; CEncrypt<float>::CEncrypt<float>
  00049	8d 8e 04 0a 00
	00		 lea	 ecx, DWORD PTR [esi+2564]
  0004f	c6 45 fc 03	 mov	 BYTE PTR __$EHRec$[ebp+8], 3
  00053	e8 00 00 00 00	 call	 ??0?$CEncrypt@M@@QAE@XZ	; CEncrypt<float>::CEncrypt<float>
  00058	8b 3d 00 00 00
	00		 mov	 edi, DWORD PTR __imp_??0ioHashString@@QAE@XZ
  0005e	8d 8e 34 0a 00
	00		 lea	 ecx, DWORD PTR [esi+2612]
  00064	c6 45 fc 04	 mov	 BYTE PTR __$EHRec$[ebp+8], 4
  00068	ff d7		 call	 edi
  0006a	8d 8e 44 0a 00
	00		 lea	 ecx, DWORD PTR [esi+2628]
  00070	c6 45 fc 05	 mov	 BYTE PTR __$EHRec$[ebp+8], 5
  00074	ff d7		 call	 edi
  00076	8d 8e 54 0a 00
	00		 lea	 ecx, DWORD PTR [esi+2644]
  0007c	c6 45 fc 06	 mov	 BYTE PTR __$EHRec$[ebp+8], 6
  00080	ff d7		 call	 edi
  00082	8d 8e 64 0a 00
	00		 lea	 ecx, DWORD PTR [esi+2660]
  00088	c6 45 fc 07	 mov	 BYTE PTR __$EHRec$[ebp+8], 7
  0008c	ff d7		 call	 edi
  0008e	8d 8e 74 0a 00
	00		 lea	 ecx, DWORD PTR [esi+2676]
  00094	c6 45 fc 08	 mov	 BYTE PTR __$EHRec$[ebp+8], 8
  00098	ff d7		 call	 edi
  0009a	8d 8e 84 0a 00
	00		 lea	 ecx, DWORD PTR [esi+2692]
  000a0	c6 45 fc 09	 mov	 BYTE PTR __$EHRec$[ebp+8], 9
  000a4	ff d7		 call	 edi
  000a6	8d 8e 94 0a 00
	00		 lea	 ecx, DWORD PTR [esi+2708]
  000ac	c6 45 fc 0a	 mov	 BYTE PTR __$EHRec$[ebp+8], 10 ; 0000000aH
  000b0	ff d7		 call	 edi
  000b2	8d 8e b4 0a 00
	00		 lea	 ecx, DWORD PTR [esi+2740]
  000b8	c6 45 fc 0b	 mov	 BYTE PTR __$EHRec$[ebp+8], 11 ; 0000000bH
  000bc	ff d7		 call	 edi
  000be	8d 8e e8 0a 00
	00		 lea	 ecx, DWORD PTR [esi+2792]
  000c4	c6 45 fc 0c	 mov	 BYTE PTR __$EHRec$[ebp+8], 12 ; 0000000cH
  000c8	e8 00 00 00 00	 call	 ??0AttackAttribute@@QAE@XZ ; AttackAttribute::AttackAttribute
  000cd	8d 8e 38 0b 00
	00		 lea	 ecx, DWORD PTR [esi+2872]
  000d3	c6 45 fc 0d	 mov	 BYTE PTR __$EHRec$[ebp+8], 13 ; 0000000dH
  000d7	e8 00 00 00 00	 call	 ??0AttackAttribute@@QAE@XZ ; AttackAttribute::AttackAttribute
  000dc	8d 8e 88 0b 00
	00		 lea	 ecx, DWORD PTR [esi+2952]
  000e2	c6 45 fc 0e	 mov	 BYTE PTR __$EHRec$[ebp+8], 14 ; 0000000eH
  000e6	e8 00 00 00 00	 call	 ??0AttackAttribute@@QAE@XZ ; AttackAttribute::AttackAttribute

; 10   : }

  000eb	8b c6		 mov	 eax, esi
  000ed	e8 00 00 00 00	 call	 __EH_epilog3
  000f2	c3		 ret	 0
_TEXT	ENDS
;	COMDAT text$x
text$x	SEGMENT
__unwindfunclet$??0ioKeyMarkAttackBuff@@QAE@XZ$0:
  00000	8b 4d f0	 mov	 ecx, DWORD PTR _this$[ebp]
  00003	e9 00 00 00 00	 jmp	 ??1ioBuff@@UAE@XZ	; ioBuff::~ioBuff
__unwindfunclet$??0ioKeyMarkAttackBuff@@QAE@XZ$1:
  00008	8b 4d f0	 mov	 ecx, DWORD PTR _this$[ebp]
  0000b	81 c1 74 09 00
	00		 add	 ecx, 2420		; 00000974H
  00011	e9 00 00 00 00	 jmp	 ??1?$CEncrypt@M@@UAE@XZ	; CEncrypt<float>::~CEncrypt<float>
__unwindfunclet$??0ioKeyMarkAttackBuff@@QAE@XZ$2:
  00016	8b 4d f0	 mov	 ecx, DWORD PTR _this$[ebp]
  00019	81 c1 a4 09 00
	00		 add	 ecx, 2468		; 000009a4H
  0001f	e9 00 00 00 00	 jmp	 ??1?$CEncrypt@M@@UAE@XZ	; CEncrypt<float>::~CEncrypt<float>
__unwindfunclet$??0ioKeyMarkAttackBuff@@QAE@XZ$3:
  00024	8b 4d f0	 mov	 ecx, DWORD PTR _this$[ebp]
  00027	81 c1 d4 09 00
	00		 add	 ecx, 2516		; 000009d4H
  0002d	e9 00 00 00 00	 jmp	 ??1?$CEncrypt@M@@UAE@XZ	; CEncrypt<float>::~CEncrypt<float>
__unwindfunclet$??0ioKeyMarkAttackBuff@@QAE@XZ$4:
  00032	8b 4d f0	 mov	 ecx, DWORD PTR _this$[ebp]
  00035	81 c1 04 0a 00
	00		 add	 ecx, 2564		; 00000a04H
  0003b	e9 00 00 00 00	 jmp	 ??1?$CEncrypt@M@@UAE@XZ	; CEncrypt<float>::~CEncrypt<float>
__unwindfunclet$??0ioKeyMarkAttackBuff@@QAE@XZ$5:
  00040	8b 4d f0	 mov	 ecx, DWORD PTR _this$[ebp]
  00043	81 c1 34 0a 00
	00		 add	 ecx, 2612		; 00000a34H
  00049	ff 25 00 00 00
	00		 jmp	 DWORD PTR __imp_??1ioHashString@@QAE@XZ
__unwindfunclet$??0ioKeyMarkAttackBuff@@QAE@XZ$6:
  0004f	8b 4d f0	 mov	 ecx, DWORD PTR _this$[ebp]
  00052	81 c1 44 0a 00
	00		 add	 ecx, 2628		; 00000a44H
  00058	ff 25 00 00 00
	00		 jmp	 DWORD PTR __imp_??1ioHashString@@QAE@XZ
__unwindfunclet$??0ioKeyMarkAttackBuff@@QAE@XZ$7:
  0005e	8b 4d f0	 mov	 ecx, DWORD PTR _this$[ebp]
  00061	81 c1 54 0a 00
	00		 add	 ecx, 2644		; 00000a54H
  00067	ff 25 00 00 00
	00		 jmp	 DWORD PTR __imp_??1ioHashString@@QAE@XZ
__unwindfunclet$??0ioKeyMarkAttackBuff@@QAE@XZ$8:
  0006d	8b 4d f0	 mov	 ecx, DWORD PTR _this$[ebp]
  00070	81 c1 64 0a 00
	00		 add	 ecx, 2660		; 00000a64H
  00076	ff 25 00 00 00
	00		 jmp	 DWORD PTR __imp_??1ioHashString@@QAE@XZ
__unwindfunclet$??0ioKeyMarkAttackBuff@@QAE@XZ$9:
  0007c	8b 4d f0	 mov	 ecx, DWORD PTR _this$[ebp]
  0007f	81 c1 74 0a 00
	00		 add	 ecx, 2676		; 00000a74H
  00085	ff 25 00 00 00
	00		 jmp	 DWORD PTR __imp_??1ioHashString@@QAE@XZ
__unwindfunclet$??0ioKeyMarkAttackBuff@@QAE@XZ$10:
  0008b	8b 4d f0	 mov	 ecx, DWORD PTR _this$[ebp]
  0008e	81 c1 84 0a 00
	00		 add	 ecx, 2692		; 00000a84H
  00094	ff 25 00 00 00
	00		 jmp	 DWORD PTR __imp_??1ioHashString@@QAE@XZ
__unwindfunclet$??0ioKeyMarkAttackBuff@@QAE@XZ$11:
  0009a	8b 4d f0	 mov	 ecx, DWORD PTR _this$[ebp]
  0009d	81 c1 94 0a 00
	00		 add	 ecx, 2708		; 00000a94H
  000a3	ff 25 00 00 00
	00		 jmp	 DWORD PTR __imp_??1ioHashString@@QAE@XZ
__unwindfunclet$??0ioKeyMarkAttackBuff@@QAE@XZ$12:
  000a9	8b 4d f0	 mov	 ecx, DWORD PTR _this$[ebp]
  000ac	81 c1 b4 0a 00
	00		 add	 ecx, 2740		; 00000ab4H
  000b2	ff 25 00 00 00
	00		 jmp	 DWORD PTR __imp_??1ioHashString@@QAE@XZ
__unwindfunclet$??0ioKeyMarkAttackBuff@@QAE@XZ$13:
  000b8	8b 4d f0	 mov	 ecx, DWORD PTR _this$[ebp]
  000bb	81 c1 e8 0a 00
	00		 add	 ecx, 2792		; 00000ae8H
  000c1	e9 00 00 00 00	 jmp	 ??1AttackAttribute@@QAE@XZ
__unwindfunclet$??0ioKeyMarkAttackBuff@@QAE@XZ$14:
  000c6	8b 4d f0	 mov	 ecx, DWORD PTR _this$[ebp]
  000c9	81 c1 38 0b 00
	00		 add	 ecx, 2872		; 00000b38H
  000cf	e9 00 00 00 00	 jmp	 ??1AttackAttribute@@QAE@XZ
__ehhandler$??0ioKeyMarkAttackBuff@@QAE@XZ:
  000d4	8b 54 24 08	 mov	 edx, DWORD PTR [esp+8]
  000d8	8d 42 0c	 lea	 eax, DWORD PTR [edx+12]
  000db	8b 4a ec	 mov	 ecx, DWORD PTR [edx-20]
  000de	33 c8		 xor	 ecx, eax
  000e0	e8 00 00 00 00	 call	 @__security_check_cookie@4
  000e5	b8 00 00 00 00	 mov	 eax, OFFSET __ehfuncinfo$??0ioKeyMarkAttackBuff@@QAE@XZ
  000ea	e9 00 00 00 00	 jmp	 ___CxxFrameHandler3
text$x	ENDS
??0ioKeyMarkAttackBuff@@QAE@XZ ENDP			; ioKeyMarkAttackBuff::ioKeyMarkAttackBuff
; Function compile flags: /Ogsp
; File d:\lost saga for developer\youtube\tutorial\source\src\lsclient\iobuff.h
;	COMDAT ?IsWaitSelfRemove@ioBuff@@UAE_NXZ
_TEXT	SEGMENT
?IsWaitSelfRemove@ioBuff@@UAE_NXZ PROC			; ioBuff::IsWaitSelfRemove, COMDAT
; _this$ = ecx

; 519  : 	virtual bool IsWaitSelfRemove() { return m_bWaitSelfRemove; }

  00000	8a 81 65 09 00
	00		 mov	 al, BYTE PTR [ecx+2405]
  00006	c3		 ret	 0
?IsWaitSelfRemove@ioBuff@@UAE_NXZ ENDP			; ioBuff::IsWaitSelfRemove
_TEXT	ENDS
PUBLIC	??0ioKeyMarkAttackBuff@@QAE@ABV0@@Z		; ioKeyMarkAttackBuff::ioKeyMarkAttackBuff
EXTRN	??0ioBuff@@QAE@ABV0@@Z:PROC			; ioBuff::ioBuff
;	COMDAT xdata$x
; File d:\lost saga for developer\youtube\tutorial\source\src\lsclient\iokeymarkattackbuff.cpp
xdata$x	SEGMENT
__ehfuncinfo$??0ioKeyMarkAttackBuff@@QAE@ABV0@@Z DD 019930522H
	DD	0fH
	DD	FLAT:__unwindtable$??0ioKeyMarkAttackBuff@@QAE@ABV0@@Z
	DD	2 DUP(00H)
	DD	2 DUP(00H)
	DD	00H
	DD	01H
__unwindtable$??0ioKeyMarkAttackBuff@@QAE@ABV0@@Z DD 0ffffffffH
	DD	FLAT:__unwindfunclet$??0ioKeyMarkAttackBuff@@QAE@ABV0@@Z$0
	DD	00H
	DD	FLAT:__unwindfunclet$??0ioKeyMarkAttackBuff@@QAE@ABV0@@Z$1
	DD	01H
	DD	FLAT:__unwindfunclet$??0ioKeyMarkAttackBuff@@QAE@ABV0@@Z$2
	DD	02H
	DD	FLAT:__unwindfunclet$??0ioKeyMarkAttackBuff@@QAE@ABV0@@Z$3
	DD	03H
	DD	FLAT:__unwindfunclet$??0ioKeyMarkAttackBuff@@QAE@ABV0@@Z$4
	DD	04H
	DD	FLAT:__unwindfunclet$??0ioKeyMarkAttackBuff@@QAE@ABV0@@Z$5
	DD	05H
	DD	FLAT:__unwindfunclet$??0ioKeyMarkAttackBuff@@QAE@ABV0@@Z$6
	DD	06H
	DD	FLAT:__unwindfunclet$??0ioKeyMarkAttackBuff@@QAE@ABV0@@Z$7
	DD	07H
	DD	FLAT:__unwindfunclet$??0ioKeyMarkAttackBuff@@QAE@ABV0@@Z$8
	DD	08H
	DD	FLAT:__unwindfunclet$??0ioKeyMarkAttackBuff@@QAE@ABV0@@Z$9
	DD	09H
	DD	FLAT:__unwindfunclet$??0ioKeyMarkAttackBuff@@QAE@ABV0@@Z$10
	DD	0aH
	DD	FLAT:__unwindfunclet$??0ioKeyMarkAttackBuff@@QAE@ABV0@@Z$11
	DD	0bH
	DD	FLAT:__unwindfunclet$??0ioKeyMarkAttackBuff@@QAE@ABV0@@Z$12
	DD	0cH
	DD	FLAT:__unwindfunclet$??0ioKeyMarkAttackBuff@@QAE@ABV0@@Z$13
	DD	0dH
	DD	FLAT:__unwindfunclet$??0ioKeyMarkAttackBuff@@QAE@ABV0@@Z$14
; Function compile flags: /Ogsp
xdata$x	ENDS
;	COMDAT ??0ioKeyMarkAttackBuff@@QAE@ABV0@@Z
_TEXT	SEGMENT
_this$ = -16						; size = 4
__$EHRec$ = -12						; size = 12
_rhs$ = 8						; size = 4
??0ioKeyMarkAttackBuff@@QAE@ABV0@@Z PROC		; ioKeyMarkAttackBuff::ioKeyMarkAttackBuff, COMDAT
; _this$ = ecx

; 36   : {

  00000	6a 04		 push	 4
  00002	b8 00 00 00 00	 mov	 eax, __ehhandler$??0ioKeyMarkAttackBuff@@QAE@ABV0@@Z
  00007	e8 00 00 00 00	 call	 __EH_prolog3
  0000c	8b d9		 mov	 ebx, ecx
  0000e	89 5d f0	 mov	 DWORD PTR _this$[ebp], ebx
  00011	8b 75 08	 mov	 esi, DWORD PTR _rhs$[ebp]
  00014	56		 push	 esi
  00015	e8 00 00 00 00	 call	 ??0ioBuff@@QAE@ABV0@@Z	; ioBuff::ioBuff
  0001a	83 65 fc 00	 and	 DWORD PTR __$EHRec$[ebp+8], 0
  0001e	c7 03 00 00 00
	00		 mov	 DWORD PTR [ebx], OFFSET ??_7ioKeyMarkAttackBuff@@6B@
  00024	8b 86 70 09 00
	00		 mov	 eax, DWORD PTR [esi+2416]
  0002a	89 83 70 09 00
	00		 mov	 DWORD PTR [ebx+2416], eax
  00030	8d 86 74 09 00
	00		 lea	 eax, DWORD PTR [esi+2420]
  00036	50		 push	 eax
  00037	8d 8b 74 09 00
	00		 lea	 ecx, DWORD PTR [ebx+2420]
  0003d	e8 00 00 00 00	 call	 ??0?$CEncrypt@M@@QAE@ABV0@@Z ; CEncrypt<float>::CEncrypt<float>
  00042	8d 86 a4 09 00
	00		 lea	 eax, DWORD PTR [esi+2468]
  00048	50		 push	 eax
  00049	8d 8b a4 09 00
	00		 lea	 ecx, DWORD PTR [ebx+2468]
  0004f	c6 45 fc 01	 mov	 BYTE PTR __$EHRec$[ebp+8], 1
  00053	e8 00 00 00 00	 call	 ??0?$CEncrypt@M@@QAE@ABV0@@Z ; CEncrypt<float>::CEncrypt<float>
  00058	8d 86 d4 09 00
	00		 lea	 eax, DWORD PTR [esi+2516]
  0005e	50		 push	 eax
  0005f	8d 8b d4 09 00
	00		 lea	 ecx, DWORD PTR [ebx+2516]
  00065	c6 45 fc 02	 mov	 BYTE PTR __$EHRec$[ebp+8], 2
  00069	e8 00 00 00 00	 call	 ??0?$CEncrypt@M@@QAE@ABV0@@Z ; CEncrypt<float>::CEncrypt<float>
  0006e	8d 86 04 0a 00
	00		 lea	 eax, DWORD PTR [esi+2564]
  00074	50		 push	 eax
  00075	8d 8b 04 0a 00
	00		 lea	 ecx, DWORD PTR [ebx+2564]
  0007b	c6 45 fc 03	 mov	 BYTE PTR __$EHRec$[ebp+8], 3
  0007f	e8 00 00 00 00	 call	 ??0?$CEncrypt@M@@QAE@ABV0@@Z ; CEncrypt<float>::CEncrypt<float>
  00084	8b 3d 00 00 00
	00		 mov	 edi, DWORD PTR __imp_??0ioHashString@@QAE@XZ
  0008a	8d 8b 34 0a 00
	00		 lea	 ecx, DWORD PTR [ebx+2612]
  00090	c6 45 fc 04	 mov	 BYTE PTR __$EHRec$[ebp+8], 4
  00094	ff d7		 call	 edi
  00096	8d 8b 44 0a 00
	00		 lea	 ecx, DWORD PTR [ebx+2628]
  0009c	c6 45 fc 05	 mov	 BYTE PTR __$EHRec$[ebp+8], 5
  000a0	ff d7		 call	 edi
  000a2	8d 8b 54 0a 00
	00		 lea	 ecx, DWORD PTR [ebx+2644]
  000a8	c6 45 fc 06	 mov	 BYTE PTR __$EHRec$[ebp+8], 6
  000ac	ff d7		 call	 edi
  000ae	8d 86 64 0a 00
	00		 lea	 eax, DWORD PTR [esi+2660]
  000b4	50		 push	 eax
  000b5	8d 8b 64 0a 00
	00		 lea	 ecx, DWORD PTR [ebx+2660]
  000bb	c6 45 fc 07	 mov	 BYTE PTR __$EHRec$[ebp+8], 7
  000bf	ff 15 00 00 00
	00		 call	 DWORD PTR __imp_??0ioHashString@@QAE@ABV0@@Z
  000c5	8d 86 74 0a 00
	00		 lea	 eax, DWORD PTR [esi+2676]
  000cb	50		 push	 eax
  000cc	8d 8b 74 0a 00
	00		 lea	 ecx, DWORD PTR [ebx+2676]
  000d2	c6 45 fc 08	 mov	 BYTE PTR __$EHRec$[ebp+8], 8
  000d6	ff 15 00 00 00
	00		 call	 DWORD PTR __imp_??0ioHashString@@QAE@ABV0@@Z
  000dc	8d 86 84 0a 00
	00		 lea	 eax, DWORD PTR [esi+2692]
  000e2	50		 push	 eax
  000e3	8d 8b 84 0a 00
	00		 lea	 ecx, DWORD PTR [ebx+2692]
  000e9	c6 45 fc 09	 mov	 BYTE PTR __$EHRec$[ebp+8], 9
  000ed	ff 15 00 00 00
	00		 call	 DWORD PTR __imp_??0ioHashString@@QAE@ABV0@@Z
  000f3	8d 86 94 0a 00
	00		 lea	 eax, DWORD PTR [esi+2708]
  000f9	50		 push	 eax
  000fa	8d 8b 94 0a 00
	00		 lea	 ecx, DWORD PTR [ebx+2708]
  00100	c6 45 fc 0a	 mov	 BYTE PTR __$EHRec$[ebp+8], 10 ; 0000000aH
  00104	ff 15 00 00 00
	00		 call	 DWORD PTR __imp_??0ioHashString@@QAE@ABV0@@Z
  0010a	8a 86 b0 0a 00
	00		 mov	 al, BYTE PTR [esi+2736]
  00110	8d 8b b4 0a 00
	00		 lea	 ecx, DWORD PTR [ebx+2740]
  00116	c6 45 fc 0b	 mov	 BYTE PTR __$EHRec$[ebp+8], 11 ; 0000000bH
  0011a	88 83 b0 0a 00
	00		 mov	 BYTE PTR [ebx+2736], al
  00120	ff d7		 call	 edi
  00122	8b 86 c8 0a 00
	00		 mov	 eax, DWORD PTR [esi+2760]
  00128	81 c6 d0 0a 00
	00		 add	 esi, 2768		; 00000ad0H
  0012e	89 83 c8 0a 00
	00		 mov	 DWORD PTR [ebx+2760], eax
  00134	8d bb d0 0a 00
	00		 lea	 edi, DWORD PTR [ebx+2768]
  0013a	a5		 movsd
  0013b	c6 45 fc 0c	 mov	 BYTE PTR __$EHRec$[ebp+8], 12 ; 0000000cH
  0013f	a5		 movsd
  00140	a5		 movsd
  00141	8b 75 08	 mov	 esi, DWORD PTR _rhs$[ebp]
  00144	8b 86 e0 0a 00
	00		 mov	 eax, DWORD PTR [esi+2784]
  0014a	89 83 e0 0a 00
	00		 mov	 DWORD PTR [ebx+2784], eax
  00150	8d 86 e8 0a 00
	00		 lea	 eax, DWORD PTR [esi+2792]
  00156	50		 push	 eax
  00157	8d 8b e8 0a 00
	00		 lea	 ecx, DWORD PTR [ebx+2792]
  0015d	e8 00 00 00 00	 call	 ??0AttackAttribute@@QAE@ABU0@@Z
  00162	8d 86 38 0b 00
	00		 lea	 eax, DWORD PTR [esi+2872]
  00168	50		 push	 eax
  00169	8d 8b 38 0b 00
	00		 lea	 ecx, DWORD PTR [ebx+2872]
  0016f	c6 45 fc 0d	 mov	 BYTE PTR __$EHRec$[ebp+8], 13 ; 0000000dH
  00173	e8 00 00 00 00	 call	 ??0AttackAttribute@@QAE@ABU0@@Z
  00178	8d 86 88 0b 00
	00		 lea	 eax, DWORD PTR [esi+2952]
  0017e	50		 push	 eax
  0017f	8d 8b 88 0b 00
	00		 lea	 ecx, DWORD PTR [ebx+2952]
  00185	c6 45 fc 0e	 mov	 BYTE PTR __$EHRec$[ebp+8], 14 ; 0000000eH
  00189	e8 00 00 00 00	 call	 ??0AttackAttribute@@QAE@ABU0@@Z
  0018e	d9 86 d8 0b 00
	00		 fld	 DWORD PTR [esi+3032]
  00194	d9 9b d8 0b 00
	00		 fstp	 DWORD PTR [ebx+3032]
  0019a	8a 86 e0 0b 00
	00		 mov	 al, BYTE PTR [esi+3040]
  001a0	88 83 e0 0b 00
	00		 mov	 BYTE PTR [ebx+3040], al
  001a6	8a 86 e1 0b 00
	00		 mov	 al, BYTE PTR [esi+3041]
  001ac	88 83 e1 0b 00
	00		 mov	 BYTE PTR [ebx+3041], al
  001b2	8a 86 e2 0b 00
	00		 mov	 al, BYTE PTR [esi+3042]
  001b8	88 83 e2 0b 00
	00		 mov	 BYTE PTR [ebx+3042], al
  001be	8a 86 e3 0b 00
	00		 mov	 al, BYTE PTR [esi+3043]
  001c4	88 83 e3 0b 00
	00		 mov	 BYTE PTR [ebx+3043], al
  001ca	8a 86 e4 0b 00
	00		 mov	 al, BYTE PTR [esi+3044]
  001d0	88 83 e4 0b 00
	00		 mov	 BYTE PTR [ebx+3044], al

; 37   : 
; 38   : }

  001d6	8b c3		 mov	 eax, ebx
  001d8	e8 00 00 00 00	 call	 __EH_epilog3
  001dd	c2 04 00	 ret	 4
_TEXT	ENDS
;	COMDAT text$x
text$x	SEGMENT
__unwindfunclet$??0ioKeyMarkAttackBuff@@QAE@ABV0@@Z$0:
  00000	8b 4d f0	 mov	 ecx, DWORD PTR _this$[ebp]
  00003	e9 00 00 00 00	 jmp	 ??1ioBuff@@UAE@XZ	; ioBuff::~ioBuff
__unwindfunclet$??0ioKeyMarkAttackBuff@@QAE@ABV0@@Z$1:
  00008	8b 4d f0	 mov	 ecx, DWORD PTR _this$[ebp]
  0000b	81 c1 74 09 00
	00		 add	 ecx, 2420		; 00000974H
  00011	e9 00 00 00 00	 jmp	 ??1?$CEncrypt@M@@UAE@XZ	; CEncrypt<float>::~CEncrypt<float>
__unwindfunclet$??0ioKeyMarkAttackBuff@@QAE@ABV0@@Z$2:
  00016	8b 4d f0	 mov	 ecx, DWORD PTR _this$[ebp]
  00019	81 c1 a4 09 00
	00		 add	 ecx, 2468		; 000009a4H
  0001f	e9 00 00 00 00	 jmp	 ??1?$CEncrypt@M@@UAE@XZ	; CEncrypt<float>::~CEncrypt<float>
__unwindfunclet$??0ioKeyMarkAttackBuff@@QAE@ABV0@@Z$3:
  00024	8b 4d f0	 mov	 ecx, DWORD PTR _this$[ebp]
  00027	81 c1 d4 09 00
	00		 add	 ecx, 2516		; 000009d4H
  0002d	e9 00 00 00 00	 jmp	 ??1?$CEncrypt@M@@UAE@XZ	; CEncrypt<float>::~CEncrypt<float>
__unwindfunclet$??0ioKeyMarkAttackBuff@@QAE@ABV0@@Z$4:
  00032	8b 4d f0	 mov	 ecx, DWORD PTR _this$[ebp]
  00035	81 c1 04 0a 00
	00		 add	 ecx, 2564		; 00000a04H
  0003b	e9 00 00 00 00	 jmp	 ??1?$CEncrypt@M@@UAE@XZ	; CEncrypt<float>::~CEncrypt<float>
__unwindfunclet$??0ioKeyMarkAttackBuff@@QAE@ABV0@@Z$5:
  00040	8b 4d f0	 mov	 ecx, DWORD PTR _this$[ebp]
  00043	81 c1 34 0a 00
	00		 add	 ecx, 2612		; 00000a34H
  00049	ff 25 00 00 00
	00		 jmp	 DWORD PTR __imp_??1ioHashString@@QAE@XZ
__unwindfunclet$??0ioKeyMarkAttackBuff@@QAE@ABV0@@Z$6:
  0004f	8b 4d f0	 mov	 ecx, DWORD PTR _this$[ebp]
  00052	81 c1 44 0a 00
	00		 add	 ecx, 2628		; 00000a44H
  00058	ff 25 00 00 00
	00		 jmp	 DWORD PTR __imp_??1ioHashString@@QAE@XZ
__unwindfunclet$??0ioKeyMarkAttackBuff@@QAE@ABV0@@Z$7:
  0005e	8b 4d f0	 mov	 ecx, DWORD PTR _this$[ebp]
  00061	81 c1 54 0a 00
	00		 add	 ecx, 2644		; 00000a54H
  00067	ff 25 00 00 00
	00		 jmp	 DWORD PTR __imp_??1ioHashString@@QAE@XZ
__unwindfunclet$??0ioKeyMarkAttackBuff@@QAE@ABV0@@Z$8:
  0006d	8b 4d f0	 mov	 ecx, DWORD PTR _this$[ebp]
  00070	81 c1 64 0a 00
	00		 add	 ecx, 2660		; 00000a64H
  00076	ff 25 00 00 00
	00		 jmp	 DWORD PTR __imp_??1ioHashString@@QAE@XZ
__unwindfunclet$??0ioKeyMarkAttackBuff@@QAE@ABV0@@Z$9:
  0007c	8b 4d f0	 mov	 ecx, DWORD PTR _this$[ebp]
  0007f	81 c1 74 0a 00
	00		 add	 ecx, 2676		; 00000a74H
  00085	ff 25 00 00 00
	00		 jmp	 DWORD PTR __imp_??1ioHashString@@QAE@XZ
__unwindfunclet$??0ioKeyMarkAttackBuff@@QAE@ABV0@@Z$10:
  0008b	8b 4d f0	 mov	 ecx, DWORD PTR _this$[ebp]
  0008e	81 c1 84 0a 00
	00		 add	 ecx, 2692		; 00000a84H
  00094	ff 25 00 00 00
	00		 jmp	 DWORD PTR __imp_??1ioHashString@@QAE@XZ
__unwindfunclet$??0ioKeyMarkAttackBuff@@QAE@ABV0@@Z$11:
  0009a	8b 4d f0	 mov	 ecx, DWORD PTR _this$[ebp]
  0009d	81 c1 94 0a 00
	00		 add	 ecx, 2708		; 00000a94H
  000a3	ff 25 00 00 00
	00		 jmp	 DWORD PTR __imp_??1ioHashString@@QAE@XZ
__unwindfunclet$??0ioKeyMarkAttackBuff@@QAE@ABV0@@Z$12:
  000a9	8b 4d f0	 mov	 ecx, DWORD PTR _this$[ebp]
  000ac	81 c1 b4 0a 00
	00		 add	 ecx, 2740		; 00000ab4H
  000b2	ff 25 00 00 00
	00		 jmp	 DWORD PTR __imp_??1ioHashString@@QAE@XZ
__unwindfunclet$??0ioKeyMarkAttackBuff@@QAE@ABV0@@Z$13:
  000b8	8b 4d f0	 mov	 ecx, DWORD PTR _this$[ebp]
  000bb	81 c1 e8 0a 00
	00		 add	 ecx, 2792		; 00000ae8H
  000c1	e9 00 00 00 00	 jmp	 ??1AttackAttribute@@QAE@XZ
__unwindfunclet$??0ioKeyMarkAttackBuff@@QAE@ABV0@@Z$14:
  000c6	8b 4d f0	 mov	 ecx, DWORD PTR _this$[ebp]
  000c9	81 c1 38 0b 00
	00		 add	 ecx, 2872		; 00000b38H
  000cf	e9 00 00 00 00	 jmp	 ??1AttackAttribute@@QAE@XZ
__ehhandler$??0ioKeyMarkAttackBuff@@QAE@ABV0@@Z:
  000d4	8b 54 24 08	 mov	 edx, DWORD PTR [esp+8]
  000d8	8d 42 0c	 lea	 eax, DWORD PTR [edx+12]
  000db	8b 4a ec	 mov	 ecx, DWORD PTR [edx-20]
  000de	33 c8		 xor	 ecx, eax
  000e0	e8 00 00 00 00	 call	 @__security_check_cookie@4
  000e5	b8 00 00 00 00	 mov	 eax, OFFSET __ehfuncinfo$??0ioKeyMarkAttackBuff@@QAE@ABV0@@Z
  000ea	e9 00 00 00 00	 jmp	 ___CxxFrameHandler3
text$x	ENDS
??0ioKeyMarkAttackBuff@@QAE@ABV0@@Z ENDP		; ioKeyMarkAttackBuff::ioKeyMarkAttackBuff
PUBLIC	??1ioKeyMarkAttackBuff@@UAE@XZ			; ioKeyMarkAttackBuff::~ioKeyMarkAttackBuff
;	COMDAT xdata$x
; File d:\lost saga for developer\youtube\tutorial\source\src\lsclient\encryptvalue.h
xdata$x	SEGMENT
__ehfuncinfo$??1ioKeyMarkAttackBuff@@UAE@XZ DD 019930522H
	DD	0fH
	DD	FLAT:__unwindtable$??1ioKeyMarkAttackBuff@@UAE@XZ
	DD	2 DUP(00H)
	DD	2 DUP(00H)
	DD	00H
	DD	01H
__unwindtable$??1ioKeyMarkAttackBuff@@UAE@XZ DD 0ffffffffH
	DD	FLAT:__unwindfunclet$??1ioKeyMarkAttackBuff@@UAE@XZ$0
	DD	00H
	DD	FLAT:__unwindfunclet$??1ioKeyMarkAttackBuff@@UAE@XZ$1
	DD	01H
	DD	FLAT:__unwindfunclet$??1ioKeyMarkAttackBuff@@UAE@XZ$2
	DD	02H
	DD	FLAT:__unwindfunclet$??1ioKeyMarkAttackBuff@@UAE@XZ$3
	DD	03H
	DD	FLAT:__unwindfunclet$??1ioKeyMarkAttackBuff@@UAE@XZ$4
	DD	04H
	DD	FLAT:__unwindfunclet$??1ioKeyMarkAttackBuff@@UAE@XZ$5
	DD	05H
	DD	FLAT:__unwindfunclet$??1ioKeyMarkAttackBuff@@UAE@XZ$6
	DD	06H
	DD	FLAT:__unwindfunclet$??1ioKeyMarkAttackBuff@@UAE@XZ$7
	DD	07H
	DD	FLAT:__unwindfunclet$??1ioKeyMarkAttackBuff@@UAE@XZ$8
	DD	08H
	DD	FLAT:__unwindfunclet$??1ioKeyMarkAttackBuff@@UAE@XZ$9
	DD	09H
	DD	FLAT:__unwindfunclet$??1ioKeyMarkAttackBuff@@UAE@XZ$10
	DD	0aH
	DD	FLAT:__unwindfunclet$??1ioKeyMarkAttackBuff@@UAE@XZ$11
	DD	0bH
	DD	FLAT:__unwindfunclet$??1ioKeyMarkAttackBuff@@UAE@XZ$12
	DD	0cH
	DD	FLAT:__unwindfunclet$??1ioKeyMarkAttackBuff@@UAE@XZ$13
	DD	0dH
	DD	FLAT:__unwindfunclet$??1ioKeyMarkAttackBuff@@UAE@XZ$14
; Function compile flags: /Ogsp
; File d:\lost saga for developer\youtube\tutorial\source\src\lsclient\iokeymarkattackbuff.cpp
xdata$x	ENDS
;	COMDAT ??1ioKeyMarkAttackBuff@@UAE@XZ
_TEXT	SEGMENT
_this$ = -16						; size = 4
__$EHRec$ = -12						; size = 12
??1ioKeyMarkAttackBuff@@UAE@XZ PROC			; ioKeyMarkAttackBuff::~ioKeyMarkAttackBuff, COMDAT
; _this$ = ecx

; 41   : {

  00000	6a 04		 push	 4
  00002	b8 00 00 00 00	 mov	 eax, __ehhandler$??1ioKeyMarkAttackBuff@@UAE@XZ
  00007	e8 00 00 00 00	 call	 __EH_prolog3
  0000c	8b f1		 mov	 esi, ecx
  0000e	89 75 f0	 mov	 DWORD PTR _this$[ebp], esi
  00011	c7 06 00 00 00
	00		 mov	 DWORD PTR [esi], OFFSET ??_7ioKeyMarkAttackBuff@@6B@

; 42   : }

  00017	8d 8e 88 0b 00
	00		 lea	 ecx, DWORD PTR [esi+2952]
  0001d	c7 45 fc 0e 00
	00 00		 mov	 DWORD PTR __$EHRec$[ebp+8], 14 ; 0000000eH
  00024	e8 00 00 00 00	 call	 ??1AttackAttribute@@QAE@XZ
  00029	8d 8e 38 0b 00
	00		 lea	 ecx, DWORD PTR [esi+2872]
  0002f	c6 45 fc 0d	 mov	 BYTE PTR __$EHRec$[ebp+8], 13 ; 0000000dH
  00033	e8 00 00 00 00	 call	 ??1AttackAttribute@@QAE@XZ
  00038	8d 8e e8 0a 00
	00		 lea	 ecx, DWORD PTR [esi+2792]
  0003e	c6 45 fc 0c	 mov	 BYTE PTR __$EHRec$[ebp+8], 12 ; 0000000cH
  00042	e8 00 00 00 00	 call	 ??1AttackAttribute@@QAE@XZ
  00047	8b 3d 00 00 00
	00		 mov	 edi, DWORD PTR __imp_??1ioHashString@@QAE@XZ
  0004d	8d 8e b4 0a 00
	00		 lea	 ecx, DWORD PTR [esi+2740]
  00053	c6 45 fc 0b	 mov	 BYTE PTR __$EHRec$[ebp+8], 11 ; 0000000bH
  00057	ff d7		 call	 edi
  00059	8d 8e 94 0a 00
	00		 lea	 ecx, DWORD PTR [esi+2708]
  0005f	c6 45 fc 0a	 mov	 BYTE PTR __$EHRec$[ebp+8], 10 ; 0000000aH
  00063	ff d7		 call	 edi
  00065	8d 8e 84 0a 00
	00		 lea	 ecx, DWORD PTR [esi+2692]
  0006b	c6 45 fc 09	 mov	 BYTE PTR __$EHRec$[ebp+8], 9
  0006f	ff d7		 call	 edi
  00071	8d 8e 74 0a 00
	00		 lea	 ecx, DWORD PTR [esi+2676]
  00077	c6 45 fc 08	 mov	 BYTE PTR __$EHRec$[ebp+8], 8
  0007b	ff d7		 call	 edi
  0007d	8d 8e 64 0a 00
	00		 lea	 ecx, DWORD PTR [esi+2660]
  00083	c6 45 fc 07	 mov	 BYTE PTR __$EHRec$[ebp+8], 7
  00087	ff d7		 call	 edi
  00089	8d 8e 54 0a 00
	00		 lea	 ecx, DWORD PTR [esi+2644]
  0008f	c6 45 fc 06	 mov	 BYTE PTR __$EHRec$[ebp+8], 6
  00093	ff d7		 call	 edi
  00095	8d 8e 44 0a 00
	00		 lea	 ecx, DWORD PTR [esi+2628]
  0009b	c6 45 fc 05	 mov	 BYTE PTR __$EHRec$[ebp+8], 5
  0009f	ff d7		 call	 edi
  000a1	8d 8e 34 0a 00
	00		 lea	 ecx, DWORD PTR [esi+2612]
  000a7	c6 45 fc 04	 mov	 BYTE PTR __$EHRec$[ebp+8], 4
  000ab	ff d7		 call	 edi
  000ad	bf 00 00 00 00	 mov	 edi, OFFSET ??_7?$CEncrypt@M@@6B@
  000b2	8d 8e 10 0a 00
	00		 lea	 ecx, DWORD PTR [esi+2576]
  000b8	c6 45 fc 03	 mov	 BYTE PTR __$EHRec$[ebp+8], 3
  000bc	89 be 04 0a 00
	00		 mov	 DWORD PTR [esi+2564], edi
  000c2	e8 00 00 00 00	 call	 ??1ccddaabb@@UAE@XZ	; ccddaabb::~ccddaabb
  000c7	8d 8e e0 09 00
	00		 lea	 ecx, DWORD PTR [esi+2528]
  000cd	c6 45 fc 02	 mov	 BYTE PTR __$EHRec$[ebp+8], 2
  000d1	89 be d4 09 00
	00		 mov	 DWORD PTR [esi+2516], edi
  000d7	e8 00 00 00 00	 call	 ??1ccddaabb@@UAE@XZ	; ccddaabb::~ccddaabb
  000dc	8d 8e b0 09 00
	00		 lea	 ecx, DWORD PTR [esi+2480]
  000e2	c6 45 fc 01	 mov	 BYTE PTR __$EHRec$[ebp+8], 1
  000e6	89 be a4 09 00
	00		 mov	 DWORD PTR [esi+2468], edi
  000ec	e8 00 00 00 00	 call	 ??1ccddaabb@@UAE@XZ	; ccddaabb::~ccddaabb
  000f1	8d 8e 80 09 00
	00		 lea	 ecx, DWORD PTR [esi+2432]
  000f7	c6 45 fc 00	 mov	 BYTE PTR __$EHRec$[ebp+8], 0
  000fb	89 be 74 09 00
	00		 mov	 DWORD PTR [esi+2420], edi
  00101	e8 00 00 00 00	 call	 ??1ccddaabb@@UAE@XZ	; ccddaabb::~ccddaabb
  00106	83 4d fc ff	 or	 DWORD PTR __$EHRec$[ebp+8], -1
  0010a	8b ce		 mov	 ecx, esi
  0010c	e8 00 00 00 00	 call	 ??1ioBuff@@UAE@XZ	; ioBuff::~ioBuff
  00111	e8 00 00 00 00	 call	 __EH_epilog3
  00116	c3		 ret	 0
_TEXT	ENDS
;	COMDAT text$x
text$x	SEGMENT
__unwindfunclet$??1ioKeyMarkAttackBuff@@UAE@XZ$0:
  00000	8b 4d f0	 mov	 ecx, DWORD PTR _this$[ebp]
  00003	e9 00 00 00 00	 jmp	 ??1ioBuff@@UAE@XZ	; ioBuff::~ioBuff
__unwindfunclet$??1ioKeyMarkAttackBuff@@UAE@XZ$1:
  00008	8b 4d f0	 mov	 ecx, DWORD PTR _this$[ebp]
  0000b	81 c1 74 09 00
	00		 add	 ecx, 2420		; 00000974H
  00011	e9 00 00 00 00	 jmp	 ??1?$CEncrypt@M@@UAE@XZ	; CEncrypt<float>::~CEncrypt<float>
__unwindfunclet$??1ioKeyMarkAttackBuff@@UAE@XZ$2:
  00016	8b 4d f0	 mov	 ecx, DWORD PTR _this$[ebp]
  00019	81 c1 a4 09 00
	00		 add	 ecx, 2468		; 000009a4H
  0001f	e9 00 00 00 00	 jmp	 ??1?$CEncrypt@M@@UAE@XZ	; CEncrypt<float>::~CEncrypt<float>
__unwindfunclet$??1ioKeyMarkAttackBuff@@UAE@XZ$3:
  00024	8b 4d f0	 mov	 ecx, DWORD PTR _this$[ebp]
  00027	81 c1 d4 09 00
	00		 add	 ecx, 2516		; 000009d4H
  0002d	e9 00 00 00 00	 jmp	 ??1?$CEncrypt@M@@UAE@XZ	; CEncrypt<float>::~CEncrypt<float>
__unwindfunclet$??1ioKeyMarkAttackBuff@@UAE@XZ$4:
  00032	8b 4d f0	 mov	 ecx, DWORD PTR _this$[ebp]
  00035	81 c1 04 0a 00
	00		 add	 ecx, 2564		; 00000a04H
  0003b	e9 00 00 00 00	 jmp	 ??1?$CEncrypt@M@@UAE@XZ	; CEncrypt<float>::~CEncrypt<float>
__unwindfunclet$??1ioKeyMarkAttackBuff@@UAE@XZ$5:
  00040	8b 4d f0	 mov	 ecx, DWORD PTR _this$[ebp]
  00043	81 c1 34 0a 00
	00		 add	 ecx, 2612		; 00000a34H
  00049	ff 25 00 00 00
	00		 jmp	 DWORD PTR __imp_??1ioHashString@@QAE@XZ
__unwindfunclet$??1ioKeyMarkAttackBuff@@UAE@XZ$6:
  0004f	8b 4d f0	 mov	 ecx, DWORD PTR _this$[ebp]
  00052	81 c1 44 0a 00
	00		 add	 ecx, 2628		; 00000a44H
  00058	ff 25 00 00 00
	00		 jmp	 DWORD PTR __imp_??1ioHashString@@QAE@XZ
__unwindfunclet$??1ioKeyMarkAttackBuff@@UAE@XZ$7:
  0005e	8b 4d f0	 mov	 ecx, DWORD PTR _this$[ebp]
  00061	81 c1 54 0a 00
	00		 add	 ecx, 2644		; 00000a54H
  00067	ff 25 00 00 00
	00		 jmp	 DWORD PTR __imp_??1ioHashString@@QAE@XZ
__unwindfunclet$??1ioKeyMarkAttackBuff@@UAE@XZ$8:
  0006d	8b 4d f0	 mov	 ecx, DWORD PTR _this$[ebp]
  00070	81 c1 64 0a 00
	00		 add	 ecx, 2660		; 00000a64H
  00076	ff 25 00 00 00
	00		 jmp	 DWORD PTR __imp_??1ioHashString@@QAE@XZ
__unwindfunclet$??1ioKeyMarkAttackBuff@@UAE@XZ$9:
  0007c	8b 4d f0	 mov	 ecx, DWORD PTR _this$[ebp]
  0007f	81 c1 74 0a 00
	00		 add	 ecx, 2676		; 00000a74H
  00085	ff 25 00 00 00
	00		 jmp	 DWORD PTR __imp_??1ioHashString@@QAE@XZ
__unwindfunclet$??1ioKeyMarkAttackBuff@@UAE@XZ$10:
  0008b	8b 4d f0	 mov	 ecx, DWORD PTR _this$[ebp]
  0008e	81 c1 84 0a 00
	00		 add	 ecx, 2692		; 00000a84H
  00094	ff 25 00 00 00
	00		 jmp	 DWORD PTR __imp_??1ioHashString@@QAE@XZ
__unwindfunclet$??1ioKeyMarkAttackBuff@@UAE@XZ$11:
  0009a	8b 4d f0	 mov	 ecx, DWORD PTR _this$[ebp]
  0009d	81 c1 94 0a 00
	00		 add	 ecx, 2708		; 00000a94H
  000a3	ff 25 00 00 00
	00		 jmp	 DWORD PTR __imp_??1ioHashString@@QAE@XZ
__unwindfunclet$??1ioKeyMarkAttackBuff@@UAE@XZ$12:
  000a9	8b 4d f0	 mov	 ecx, DWORD PTR _this$[ebp]
  000ac	81 c1 b4 0a 00
	00		 add	 ecx, 2740		; 00000ab4H
  000b2	ff 25 00 00 00
	00		 jmp	 DWORD PTR __imp_??1ioHashString@@QAE@XZ
__unwindfunclet$??1ioKeyMarkAttackBuff@@UAE@XZ$13:
  000b8	8b 4d f0	 mov	 ecx, DWORD PTR _this$[ebp]
  000bb	81 c1 e8 0a 00
	00		 add	 ecx, 2792		; 00000ae8H
  000c1	e9 00 00 00 00	 jmp	 ??1AttackAttribute@@QAE@XZ
__unwindfunclet$??1ioKeyMarkAttackBuff@@UAE@XZ$14:
  000c6	8b 4d f0	 mov	 ecx, DWORD PTR _this$[ebp]
  000c9	81 c1 38 0b 00
	00		 add	 ecx, 2872		; 00000b38H
  000cf	e9 00 00 00 00	 jmp	 ??1AttackAttribute@@QAE@XZ
__ehhandler$??1ioKeyMarkAttackBuff@@UAE@XZ:
  000d4	8b 54 24 08	 mov	 edx, DWORD PTR [esp+8]
  000d8	8d 42 0c	 lea	 eax, DWORD PTR [edx+12]
  000db	8b 4a ec	 mov	 ecx, DWORD PTR [edx-20]
  000de	33 c8		 xor	 ecx, eax
  000e0	e8 00 00 00 00	 call	 @__security_check_cookie@4
  000e5	b8 00 00 00 00	 mov	 eax, OFFSET __ehfuncinfo$??1ioKeyMarkAttackBuff@@UAE@XZ
  000ea	e9 00 00 00 00	 jmp	 ___CxxFrameHandler3
text$x	ENDS
??1ioKeyMarkAttackBuff@@UAE@XZ ENDP			; ioKeyMarkAttackBuff::~ioKeyMarkAttackBuff
;	COMDAT xdata$x
xdata$x	SEGMENT
__unwindtable$?Clone@ioKeyMarkAttackBuff@@UAEPAVioBuff@@XZ DD 0ffffffffH
	DD	FLAT:__unwindfunclet$?Clone@ioKeyMarkAttackBuff@@UAEPAVioBuff@@XZ$0
__ehfuncinfo$?Clone@ioKeyMarkAttackBuff@@UAEPAVioBuff@@XZ DD 019930522H
	DD	01H
	DD	FLAT:__unwindtable$?Clone@ioKeyMarkAttackBuff@@UAEPAVioBuff@@XZ
	DD	2 DUP(00H)
	DD	2 DUP(00H)
	DD	00H
	DD	01H
; Function compile flags: /Ogsp
xdata$x	ENDS
;	COMDAT ?Clone@ioKeyMarkAttackBuff@@UAEPAVioBuff@@XZ
_TEXT	SEGMENT
$T543018 = -16						; size = 4
__$EHRec$ = -12						; size = 12
?Clone@ioKeyMarkAttackBuff@@UAEPAVioBuff@@XZ PROC	; ioKeyMarkAttackBuff::Clone, COMDAT
; _this$ = ecx

; 45   : {

  00000	6a 04		 push	 4
  00002	b8 00 00 00 00	 mov	 eax, __ehhandler$?Clone@ioKeyMarkAttackBuff@@UAEPAVioBuff@@XZ
  00007	e8 00 00 00 00	 call	 __EH_prolog3
  0000c	8b f1		 mov	 esi, ecx

; 46   : 	return new ioKeyMarkAttackBuff( *this );

  0000e	68 e8 0b 00 00	 push	 3048			; 00000be8H
  00013	e8 00 00 00 00	 call	 ??2@YAPAXI@Z		; operator new
  00018	59		 pop	 ecx
  00019	8b c8		 mov	 ecx, eax
  0001b	89 4d f0	 mov	 DWORD PTR $T543018[ebp], ecx
  0001e	33 c0		 xor	 eax, eax
  00020	89 45 fc	 mov	 DWORD PTR __$EHRec$[ebp+8], eax
  00023	3b c8		 cmp	 ecx, eax
  00025	74 06		 je	 SHORT $LN3@Clone
  00027	56		 push	 esi
  00028	e8 00 00 00 00	 call	 ??0ioKeyMarkAttackBuff@@QAE@ABV0@@Z ; ioKeyMarkAttackBuff::ioKeyMarkAttackBuff
$LN3@Clone:

; 47   : }

  0002d	e8 00 00 00 00	 call	 __EH_epilog3
  00032	c3		 ret	 0
_TEXT	ENDS
;	COMDAT text$x
text$x	SEGMENT
__unwindfunclet$?Clone@ioKeyMarkAttackBuff@@UAEPAVioBuff@@XZ$0:
  00000	ff 75 f0	 push	 DWORD PTR $T543018[ebp]
  00003	e8 00 00 00 00	 call	 ??3@YAXPAX@Z		; operator delete
  00008	59		 pop	 ecx
  00009	c3		 ret	 0
__ehhandler$?Clone@ioKeyMarkAttackBuff@@UAEPAVioBuff@@XZ:
  0000a	8b 54 24 08	 mov	 edx, DWORD PTR [esp+8]
  0000e	8d 42 0c	 lea	 eax, DWORD PTR [edx+12]
  00011	8b 4a ec	 mov	 ecx, DWORD PTR [edx-20]
  00014	33 c8		 xor	 ecx, eax
  00016	e8 00 00 00 00	 call	 @__security_check_cookie@4
  0001b	b8 00 00 00 00	 mov	 eax, OFFSET __ehfuncinfo$?Clone@ioKeyMarkAttackBuff@@UAEPAVioBuff@@XZ
  00020	e9 00 00 00 00	 jmp	 ___CxxFrameHandler3
text$x	ENDS
?Clone@ioKeyMarkAttackBuff@@UAEPAVioBuff@@XZ ENDP	; ioKeyMarkAttackBuff::Clone
PUBLIC	_pStage$GSCopy$
PUBLIC	_pChar$GSCopy$
PUBLIC	__$ArrayPad$
PUBLIC	?FindTarget@ioKeyMarkAttackBuff@@IAEXPAVioBaseChar@@PAVioPlayStage@@@Z ; ioKeyMarkAttackBuff::FindTarget
EXTRN	??1SP2Packet@@UAE@XZ:PROC			; SP2Packet::~SP2Packet
EXTRN	?SendToAllPlayingUser@P2PNetwork@@YAXAAVSP2Packet@@PAVioBaseChar@@@Z:PROC ; P2PNetwork::SendToAllPlayingUser
EXTRN	??6SP2Packet@@QAEAAV0@E@Z:PROC			; SP2Packet::operator<<
EXTRN	??6SP2Packet@@QAEAAV0@ABVioHashString@@@Z:PROC	; SP2Packet::operator<<
EXTRN	??0SP2Packet@@QAE@K@Z:PROC			; SP2Packet::SP2Packet
EXTRN	__imp_??9ioHashString@@QBE_NABV0@@Z:PROC
EXTRN	__chkstk:PROC
;	COMDAT xdata$x
; File c:\program files (x86)\microsoft visual studio 10.0\vc\include\vector
xdata$x	SEGMENT
__ehfuncinfo$?FindTarget@ioKeyMarkAttackBuff@@IAEXPAVioBaseChar@@PAVioPlayStage@@@Z DD 019930522H
	DD	07H
	DD	FLAT:__unwindtable$?FindTarget@ioKeyMarkAttackBuff@@IAEXPAVioBaseChar@@PAVioPlayStage@@@Z
	DD	2 DUP(00H)
	DD	2 DUP(00H)
	DD	00H
	DD	01H
__unwindtable$?FindTarget@ioKeyMarkAttackBuff@@IAEXPAVioBaseChar@@PAVioPlayStage@@@Z DD 0ffffffffH
	DD	FLAT:__unwindfunclet$?FindTarget@ioKeyMarkAttackBuff@@IAEXPAVioBaseChar@@PAVioPlayStage@@@Z$0
	DD	00H
	DD	FLAT:__unwindfunclet$?FindTarget@ioKeyMarkAttackBuff@@IAEXPAVioBaseChar@@PAVioPlayStage@@@Z$1
	DD	01H
	DD	FLAT:__unwindfunclet$?FindTarget@ioKeyMarkAttackBuff@@IAEXPAVioBaseChar@@PAVioPlayStage@@@Z$2
	DD	01H
	DD	FLAT:__unwindfunclet$?FindTarget@ioKeyMarkAttackBuff@@IAEXPAVioBaseChar@@PAVioPlayStage@@@Z$3
	DD	03H
	DD	FLAT:__unwindfunclet$?FindTarget@ioKeyMarkAttackBuff@@IAEXPAVioBaseChar@@PAVioPlayStage@@@Z$4
	DD	04H
	DD	FLAT:__unwindfunclet$?FindTarget@ioKeyMarkAttackBuff@@IAEXPAVioBaseChar@@PAVioPlayStage@@@Z$5
	DD	05H
	DD	FLAT:__unwindfunclet$?FindTarget@ioKeyMarkAttackBuff@@IAEXPAVioBaseChar@@PAVioPlayStage@@@Z$6
; Function compile flags: /Ogsp
; File d:\lost saga for developer\youtube\tutorial\source\src\lsclient\iokeymarkattackbuff.cpp
xdata$x	ENDS
;	COMDAT ?FindTarget@ioKeyMarkAttackBuff@@IAEXPAVioBaseChar@@PAVioPlayStage@@@Z
_TEXT	SEGMENT
_value$543221 = -33052					; size = 4
_value$543176 = -33048					; size = 4
_fMaxRangeSq$ = -33044					; size = 4
_value$543225 = -33040					; size = 4
_fMinRangeSq$ = -33036					; size = 4
_value$543163 = -33032					; size = 4
$T543034 = -33028					; size = 1
_pChar$GSCopy$ = -33028					; size = 4
tv1131 = -33024						; size = 4
$T543190 = -33024					; size = 4
tv1182 = -33020						; size = 4
tv1178 = -33020						; size = 4
_fLengthSq$531254 = -33020				; size = 4
_szTarget$ = -33016					; size = 16
_szTarget_A$ = -33000					; size = 16
_szTarget_D$ = -32984					; size = 16
_szTarget_S$ = -32968					; size = 16
_TargetNameList$ = -32952				; size = 16
tv1152 = -32936						; size = 4
_pStage$GSCopy$ = -32936				; size = 4
tv1174 = -32932						; size = 4
_value$543072 = -32932					; size = 4
_value$543061 = -32932					; size = 4
_iter$531135 = -32932					; size = 4
tv1127 = -32928						; size = 4
tv1123 = -32928						; size = 4
tv1086 = -32928						; size = 4
tv1069 = -32928						; size = 4
tv1065 = -32928						; size = 4
tv1061 = -32928						; size = 4
$T543217 = -32928					; size = 4
$T543194 = -32928					; size = 4
_fValue$531257 = -32928					; size = 4
tv1147 = -32924						; size = 4
tv1146 = -32924						; size = 4
tv1141 = -32924						; size = 4
tv1137 = -32924						; size = 4
_value$543064 = -32924					; size = 4
_value$543069 = -32924					; size = 4
_fAngleGap$531258 = -32924				; size = 4
tv1142 = -32920						; size = 4
_i$531409 = -32920					; size = 4
_pTarget$531244 = -32920				; size = 4
_bChange$ = -32913					; size = 1
_kPacket$531427 = -32912				; size = 32792
_kTarget$531266 = -120					; size = 32
$T531267 = -88						; size = 12
$T530807 = -88						; size = 12
$T531251 = -76						; size = 12
$T531252 = -64						; size = 12
_vCurPos$ = -52						; size = 12
_vDiff$531250 = -40					; size = 12
_vDir$ = -28						; size = 12
__$ArrayPad$ = -16					; size = 4
__$EHRec$ = -12						; size = 12
_pChar$ = 8						; size = 4
_pStage$ = 12						; size = 4
?FindTarget@ioKeyMarkAttackBuff@@IAEXPAVioBaseChar@@PAVioPlayStage@@@Z PROC ; ioKeyMarkAttackBuff::FindTarget, COMDAT
; _this$ = ecx

; 262  : {

  00000	55		 push	 ebp
  00001	8b ec		 mov	 ebp, esp
  00003	6a ff		 push	 -1
  00005	68 00 00 00 00	 push	 __ehhandler$?FindTarget@ioKeyMarkAttackBuff@@IAEXPAVioBaseChar@@PAVioPlayStage@@@Z
  0000a	64 a1 00 00 00
	00		 mov	 eax, DWORD PTR fs:0
  00010	50		 push	 eax
  00011	b8 10 81 00 00	 mov	 eax, 33040		; 00008110H
  00016	e8 00 00 00 00	 call	 __chkstk
  0001b	a1 00 00 00 00	 mov	 eax, DWORD PTR ___security_cookie
  00020	33 c5		 xor	 eax, ebp
  00022	89 45 f0	 mov	 DWORD PTR __$ArrayPad$[ebp], eax
  00025	53		 push	 ebx
  00026	56		 push	 esi
  00027	57		 push	 edi
  00028	50		 push	 eax
  00029	8d 45 f4	 lea	 eax, DWORD PTR __$EHRec$[ebp]
  0002c	64 a3 00 00 00
	00		 mov	 DWORD PTR fs:0, eax
  00032	8b 75 08	 mov	 esi, DWORD PTR _pChar$[ebp]
  00035	8b 45 0c	 mov	 eax, DWORD PTR _pStage$[ebp]
  00038	8b d9		 mov	 ebx, ecx

; 376  : 	{
; 377  : 		SP2Packet kPacket( CUPK_APPLY_EXTRA_BUFF_INFO );

  0003a	89 b5 fc 7e ff
	ff		 mov	 DWORD PTR _pChar$GSCopy$[ebp], esi
  00040	89 85 58 7f ff
	ff		 mov	 DWORD PTR _pStage$GSCopy$[ebp], eax
  00046	85 f6		 test	 esi, esi
  00048	0f 84 09 08 00
	00		 je	 $LN31@FindTarget

; 263  : 	if( !pChar || !pStage ) 

  0004e	85 c0		 test	 eax, eax
  00050	0f 84 01 08 00
	00		 je	 $LN31@FindTarget

; 264  : 		return;
; 265  : 	if( !pChar->IsNeedProcess() )

  00056	8b 06		 mov	 eax, DWORD PTR [esi]
  00058	8b ce		 mov	 ecx, esi
  0005a	ff 90 00 01 00
	00		 call	 DWORD PTR [eax+256]
  00060	84 c0		 test	 al, al
  00062	0f 84 ef 07 00
	00		 je	 $LN31@FindTarget

; 266  : 		return;
; 267  : 
; 268  : 	D3DXVECTOR3 vCurPos = pChar->GetMidPositionByRate();

  00068	b8 05 00 00 00	 mov	 eax, 5
  0006d	8b c8		 mov	 ecx, eax
  0006f	b8 0a 00 00 00	 mov	 eax, 10			; 0000000aH
  00074	89 8d 04 7f ff
	ff		 mov	 DWORD PTR tv1182[ebp], ecx
  0007a	db 85 04 7f ff
	ff		 fild	 DWORD PTR tv1182[ebp]
  00080	85 c9		 test	 ecx, ecx
  00082	79 06		 jns	 SHORT $LN177@FindTarget
  00084	d8 05 00 00 00
	00		 fadd	 DWORD PTR __real@4f800000
$LN177@FindTarget:
  0008a	89 85 04 7f ff
	ff		 mov	 DWORD PTR tv1178[ebp], eax
  00090	db 85 04 7f ff
	ff		 fild	 DWORD PTR tv1178[ebp]
  00096	85 c0		 test	 eax, eax
  00098	79 06		 jns	 SHORT $LN178@FindTarget
  0009a	d8 05 00 00 00
	00		 fadd	 DWORD PTR __real@4f800000
$LN178@FindTarget:
  000a0	de f9		 fdivp	 ST(1), ST(0)
  000a2	51		 push	 ecx
  000a3	8d 45 cc	 lea	 eax, DWORD PTR _vCurPos$[ebp]
  000a6	8b ce		 mov	 ecx, esi
  000a8	d9 9d 5c 7f ff
	ff		 fstp	 DWORD PTR tv1174[ebp]
  000ae	d9 85 5c 7f ff
	ff		 fld	 DWORD PTR tv1174[ebp]
  000b4	d9 1c 24	 fstp	 DWORD PTR [esp]
  000b7	50		 push	 eax
  000b8	e8 00 00 00 00	 call	 ?GetMidPositionByRate@ioGameEntity@@QBE?AUD3DXVECTOR3@@M@Z ; ioGameEntity::GetMidPositionByRate

; 269  : 	D3DXVECTOR3 vDir = pChar->GetTargetRot() * D3DXVECTOR3( 0.0f, 0.0f, -1.0f );

  000bd	0f 57 c0	 xorps	 xmm0, xmm0
  000c0	8d 45 a8	 lea	 eax, DWORD PTR $T530807[ebp]
  000c3	50		 push	 eax
  000c4	8d 86 a4 06 00
	00		 lea	 eax, DWORD PTR [esi+1700]
  000ca	50		 push	 eax
  000cb	8d 45 e4	 lea	 eax, DWORD PTR _vDir$[ebp]
  000ce	f3 0f 11 45 a8	 movss	 DWORD PTR $T530807[ebp], xmm0
  000d3	f3 0f 11 45 ac	 movss	 DWORD PTR $T530807[ebp+4], xmm0
  000d8	f3 0f 10 05 00
	00 00 00	 movss	 xmm0, DWORD PTR __real@bf800000
  000e0	50		 push	 eax
  000e1	f3 0f 11 45 b0	 movss	 DWORD PTR $T530807[ebp+8], xmm0
  000e6	ff 15 00 00 00
	00		 call	 DWORD PTR __imp_??D@YA?AUD3DXVECTOR3@@ABUD3DXQUATERNION@@ABU0@@Z
  000ec	83 c4 0c	 add	 esp, 12			; 0000000cH

; 270  : 
; 271  : 	float fMaxRangeSq = m_fTargetMaxRange * m_fTargetMaxRange;

  000ef	8d 85 5c 7f ff
	ff		 lea	 eax, DWORD PTR _value$543061[ebp]
  000f5	50		 push	 eax
  000f6	8d 8b 04 0a 00
	00		 lea	 ecx, DWORD PTR [ebx+2564]
  000fc	e8 00 00 00 00	 call	 ?DecryptValueToPool@?$CEncrypt@M@@QAEXPAM@Z ; CEncrypt<float>::DecryptValueToPool
  00101	8d 85 64 7f ff
	ff		 lea	 eax, DWORD PTR _value$543064[ebp]
  00107	50		 push	 eax
  00108	8d 8b 04 0a 00
	00		 lea	 ecx, DWORD PTR [ebx+2564]
  0010e	e8 00 00 00 00	 call	 ?DecryptValueToPool@?$CEncrypt@M@@QAEXPAM@Z ; CEncrypt<float>::DecryptValueToPool
  00113	f3 0f 10 85 5c
	7f ff ff	 movss	 xmm0, DWORD PTR _value$543061[ebp]
  0011b	f3 0f 10 8d 64
	7f ff ff	 movss	 xmm1, DWORD PTR _value$543064[ebp]
  00123	0f 5a c0	 cvtps2pd xmm0, xmm0
  00126	0f 5a c9	 cvtps2pd xmm1, xmm1

; 272  : 	float fMinRangeSq = m_fTargetMinRange * m_fTargetMinRange;

  00129	8d 85 64 7f ff
	ff		 lea	 eax, DWORD PTR _value$543069[ebp]
  0012f	f2 0f 59 c1	 mulsd	 xmm0, xmm1
  00133	66 0f 5a c0	 cvtpd2ps xmm0, xmm0
  00137	50		 push	 eax
  00138	8d 8b d4 09 00
	00		 lea	 ecx, DWORD PTR [ebx+2516]
  0013e	f3 0f 11 85 ec
	7e ff ff	 movss	 DWORD PTR _fMaxRangeSq$[ebp], xmm0
  00146	e8 00 00 00 00	 call	 ?DecryptValueToPool@?$CEncrypt@M@@QAEXPAM@Z ; CEncrypt<float>::DecryptValueToPool
  0014b	8d 85 5c 7f ff
	ff		 lea	 eax, DWORD PTR _value$543072[ebp]
  00151	50		 push	 eax
  00152	8d 8b d4 09 00
	00		 lea	 ecx, DWORD PTR [ebx+2516]
  00158	e8 00 00 00 00	 call	 ?DecryptValueToPool@?$CEncrypt@M@@QAEXPAM@Z ; CEncrypt<float>::DecryptValueToPool
  0015d	f3 0f 10 85 5c
	7f ff ff	 movss	 xmm0, DWORD PTR _value$543072[ebp]
  00165	f3 0f 10 8d 64
	7f ff ff	 movss	 xmm1, DWORD PTR _value$543069[ebp]
  0016d	0f 5a c0	 cvtps2pd xmm0, xmm0
  00170	0f 5a c9	 cvtps2pd xmm1, xmm1
  00173	f2 0f 59 c1	 mulsd	 xmm0, xmm1
  00177	66 0f 5a c0	 cvtpd2ps xmm0, xmm0

; 273  : 
; 274  : 	ioHashString szTarget;

  0017b	8d 8d 08 7f ff
	ff		 lea	 ecx, DWORD PTR _szTarget$[ebp]
  00181	f3 0f 11 85 f4
	7e ff ff	 movss	 DWORD PTR _fMinRangeSq$[ebp], xmm0
  00189	ff 15 00 00 00
	00		 call	 DWORD PTR __imp_??0ioHashString@@QAE@XZ
  0018f	33 c0		 xor	 eax, eax
  00191	89 45 fc	 mov	 DWORD PTR __$EHRec$[ebp+8], eax

; 275  : 	float fCurGap = -1.0f;
; 276  : 	//
; 277  : 	const BaseCharList &rkCharList = pStage->GetBaseCharList();
; 278  : 
; 279  : 	BaseCharDistanceSqList TargetNameList;

  00194	89 85 48 7f ff
	ff		 mov	 DWORD PTR _TargetNameList$[ebp], eax
  0019a	89 85 4c 7f ff
	ff		 mov	 DWORD PTR _TargetNameList$[ebp+4], eax
  001a0	89 85 50 7f ff
	ff		 mov	 DWORD PTR _TargetNameList$[ebp+8], eax

; 280  : 
; 281  : 	for ( auto iter = rkCharList.begin(); iter != rkCharList.end(); ++iter )

  001a6	8b bd 58 7f ff
	ff		 mov	 edi, DWORD PTR _pStage$GSCopy$[ebp]
  001ac	8b 4f 2c	 mov	 ecx, DWORD PTR [edi+44]
  001af	c6 45 fc 01	 mov	 BYTE PTR __$EHRec$[ebp+8], 1
  001b3	e9 5e 03 00 00	 jmp	 $LN185@FindTarget
$LN74@FindTarget:

; 282  : 	{
; 283  : 		ioBaseChar* pTarget = *iter;

  001b8	8b 01		 mov	 eax, DWORD PTR [ecx]
  001ba	89 85 68 7f ff
	ff		 mov	 DWORD PTR _pTarget$531244[ebp], eax

; 284  : 
; 285  : 		if( !pTarget )	continue;

  001c0	85 c0		 test	 eax, eax
  001c2	0f 84 45 03 00
	00		 je	 $LN28@FindTarget

; 286  : 
; 287  : 		if ( pTarget == pChar )

  001c8	3b c6		 cmp	 eax, esi
  001ca	0f 84 3d 03 00
	00		 je	 $LN28@FindTarget

; 288  : 			continue;
; 289  : 
; 290  : 		if ( pTarget->GetTeam() == pChar->GetTeam() )

  001d0	8d 88 90 00 00
	00		 lea	 ecx, DWORD PTR [eax+144]
  001d6	8d 85 f8 7e ff
	ff		 lea	 eax, DWORD PTR _value$543163[ebp]
  001dc	50		 push	 eax
  001dd	e8 00 00 00 00	 call	 ?DecryptValueToPool@?$CEncrypt@W4TeamType@@@@QAEXPAW4TeamType@@@Z ; CEncrypt<enum TeamType>::DecryptValueToPool
  001e2	8d 85 e8 7e ff
	ff		 lea	 eax, DWORD PTR _value$543176[ebp]
  001e8	8d 8e 90 00 00
	00		 lea	 ecx, DWORD PTR [esi+144]
  001ee	50		 push	 eax
  001ef	e8 00 00 00 00	 call	 ?DecryptValueToPool@?$CEncrypt@W4TeamType@@@@QAEXPAW4TeamType@@@Z ; CEncrypt<enum TeamType>::DecryptValueToPool
  001f4	8b 85 f8 7e ff
	ff		 mov	 eax, DWORD PTR _value$543163[ebp]
  001fa	3b 85 e8 7e ff
	ff		 cmp	 eax, DWORD PTR _value$543176[ebp]
  00200	0f 84 07 03 00
	00		 je	 $LN28@FindTarget

; 291  : 			continue;
; 292  : 
; 293  : 		if ( pTarget->IsSkipState() )

  00206	8b 8d 68 7f ff
	ff		 mov	 ecx, DWORD PTR _pTarget$531244[ebp]
  0020c	e8 00 00 00 00	 call	 ?IsSkipState@ioBaseChar@@QBE?B_NXZ ; ioBaseChar::IsSkipState
  00211	84 c0		 test	 al, al
  00213	0f 85 f4 02 00
	00		 jne	 $LN28@FindTarget

; 294  : 			continue;
; 295  : 
; 296  : 		if( !IsEnableTargetState( pTarget, true ) )

  00219	6a 01		 push	 1
  0021b	ff b5 68 7f ff
	ff		 push	 DWORD PTR _pTarget$531244[ebp]
  00221	8b cb		 mov	 ecx, ebx
  00223	e8 00 00 00 00	 call	 ?IsEnableTargetState@ioKeyMarkAttackBuff@@IAE_NPAVioBaseChar@@_N@Z ; ioKeyMarkAttackBuff::IsEnableTargetState
  00228	84 c0		 test	 al, al
  0022a	0f 84 dd 02 00
	00		 je	 $LN28@FindTarget

; 297  : 			continue;
; 298  : 
; 299  : 		D3DXVECTOR3 vDiff = pTarget->GetMidPositionByRate() - pChar->GetMidPositionByRate();

  00230	b8 05 00 00 00	 mov	 eax, 5
  00235	8b c8		 mov	 ecx, eax
  00237	b8 0a 00 00 00	 mov	 eax, 10			; 0000000aH
  0023c	8b d0		 mov	 edx, eax
  0023e	b8 05 00 00 00	 mov	 eax, 5
  00243	89 85 00 7f ff
	ff		 mov	 DWORD PTR $T543190[ebp], eax
  00249	b8 0a 00 00 00	 mov	 eax, 10			; 0000000aH
  0024e	89 8d 64 7f ff
	ff		 mov	 DWORD PTR tv1146[ebp], ecx
  00254	db 85 64 7f ff
	ff		 fild	 DWORD PTR tv1146[ebp]
  0025a	89 85 60 7f ff
	ff		 mov	 DWORD PTR $T543194[ebp], eax
  00260	85 c9		 test	 ecx, ecx
  00262	79 06		 jns	 SHORT $LN179@FindTarget
  00264	d8 05 00 00 00
	00		 fadd	 DWORD PTR __real@4f800000
$LN179@FindTarget:
  0026a	89 95 64 7f ff
	ff		 mov	 DWORD PTR tv1141[ebp], edx
  00270	db 85 64 7f ff
	ff		 fild	 DWORD PTR tv1141[ebp]
  00276	85 d2		 test	 edx, edx
  00278	79 06		 jns	 SHORT $LN180@FindTarget
  0027a	d8 05 00 00 00
	00		 fadd	 DWORD PTR __real@4f800000
$LN180@FindTarget:
  00280	de f9		 fdivp	 ST(1), ST(0)
  00282	51		 push	 ecx
  00283	8d 45 c0	 lea	 eax, DWORD PTR $T531252[ebp]
  00286	8b ce		 mov	 ecx, esi
  00288	d9 9d 64 7f ff
	ff		 fstp	 DWORD PTR tv1137[ebp]
  0028e	d9 85 64 7f ff
	ff		 fld	 DWORD PTR tv1137[ebp]
  00294	d9 1c 24	 fstp	 DWORD PTR [esp]
  00297	50		 push	 eax
  00298	e8 00 00 00 00	 call	 ?GetMidPositionByRate@ioGameEntity@@QBE?AUD3DXVECTOR3@@M@Z ; ioGameEntity::GetMidPositionByRate
  0029d	db 85 00 7f ff
	ff		 fild	 DWORD PTR $T543190[ebp]
  002a3	8b f8		 mov	 edi, eax
  002a5	8b 85 00 7f ff
	ff		 mov	 eax, DWORD PTR $T543190[ebp]
  002ab	85 c0		 test	 eax, eax
  002ad	79 06		 jns	 SHORT $LN181@FindTarget
  002af	d8 05 00 00 00
	00		 fadd	 DWORD PTR __real@4f800000
$LN181@FindTarget:
  002b5	8b 85 60 7f ff
	ff		 mov	 eax, DWORD PTR $T543194[ebp]
  002bb	db 85 60 7f ff
	ff		 fild	 DWORD PTR $T543194[ebp]
  002c1	85 c0		 test	 eax, eax
  002c3	79 06		 jns	 SHORT $LN182@FindTarget
  002c5	d8 05 00 00 00
	00		 fadd	 DWORD PTR __real@4f800000
$LN182@FindTarget:
  002cb	de f9		 fdivp	 ST(1), ST(0)
  002cd	51		 push	 ecx
  002ce	8b 8d 68 7f ff
	ff		 mov	 ecx, DWORD PTR _pTarget$531244[ebp]
  002d4	8d 45 b4	 lea	 eax, DWORD PTR $T531251[ebp]
  002d7	d9 9d 60 7f ff
	ff		 fstp	 DWORD PTR tv1123[ebp]
  002dd	d9 85 60 7f ff
	ff		 fld	 DWORD PTR tv1123[ebp]
  002e3	d9 1c 24	 fstp	 DWORD PTR [esp]
  002e6	50		 push	 eax
  002e7	e8 00 00 00 00	 call	 ?GetMidPositionByRate@ioGameEntity@@QBE?AUD3DXVECTOR3@@M@Z ; ioGameEntity::GetMidPositionByRate
  002ec	f3 0f 10 0f	 movss	 xmm1, DWORD PTR [edi]
  002f0	f3 0f 10 00	 movss	 xmm0, DWORD PTR [eax]
  002f4	f3 0f 10 57 04	 movss	 xmm2, DWORD PTR [edi+4]
  002f9	f3 0f 10 5f 08	 movss	 xmm3, DWORD PTR [edi+8]
  002fe	0f 5a c9	 cvtps2pd xmm1, xmm1
  00301	0f 5a c0	 cvtps2pd xmm0, xmm0
  00304	f2 0f 5c c1	 subsd	 xmm0, xmm1
  00308	f3 0f 10 48 04	 movss	 xmm1, DWORD PTR [eax+4]
  0030d	0f 5a d2	 cvtps2pd xmm2, xmm2
  00310	0f 5a c9	 cvtps2pd xmm1, xmm1
  00313	f2 0f 5c ca	 subsd	 xmm1, xmm2
  00317	f3 0f 10 50 08	 movss	 xmm2, DWORD PTR [eax+8]
  0031c	0f 5a d2	 cvtps2pd xmm2, xmm2
  0031f	66 0f 5a c0	 cvtpd2ps xmm0, xmm0
  00323	66 0f 5a c9	 cvtpd2ps xmm1, xmm1
  00327	f3 0f 11 45 d8	 movss	 DWORD PTR _vDiff$531250[ebp], xmm0
  0032c	f3 0f 11 4d dc	 movss	 DWORD PTR _vDiff$531250[ebp+4], xmm1
  00331	0f 5a db	 cvtps2pd xmm3, xmm3
  00334	f2 0f 5c d3	 subsd	 xmm2, xmm3
  00338	66 0f 5a d2	 cvtpd2ps xmm2, xmm2
  0033c	f3 0f 11 55 e0	 movss	 DWORD PTR _vDiff$531250[ebp+8], xmm2

; 300  : 		float fLengthSq = D3DXVec3LengthSq( &vDiff );

  00341	f3 0f 5a c0	 cvtss2sd xmm0, xmm0
  00345	f3 0f 5a c9	 cvtss2sd xmm1, xmm1
  00349	f3 0f 5a d2	 cvtss2sd xmm2, xmm2
  0034d	f2 0f 59 c0	 mulsd	 xmm0, xmm0
  00351	f2 0f 59 c9	 mulsd	 xmm1, xmm1
  00355	f2 0f 58 c1	 addsd	 xmm0, xmm1
  00359	f2 0f 59 d2	 mulsd	 xmm2, xmm2
  0035d	f2 0f 58 c2	 addsd	 xmm0, xmm2

; 301  : 
; 302  : 		if( !COMPARE( fLengthSq, fMinRangeSq, fMaxRangeSq ) )

  00361	f3 0f 10 95 f4
	7e ff ff	 movss	 xmm2, DWORD PTR _fMinRangeSq$[ebp]
  00369	66 0f 5a c0	 cvtpd2ps xmm0, xmm0
  0036d	0f 57 c9	 xorps	 xmm1, xmm1
  00370	f3 0f 5a c8	 cvtss2sd xmm1, xmm0
  00374	0f 5a d2	 cvtps2pd xmm2, xmm2
  00377	66 0f 2f ca	 comisd	 xmm1, xmm2
  0037b	f3 0f 11 85 04
	7f ff ff	 movss	 DWORD PTR _fLengthSq$531254[ebp], xmm0
  00383	0f 82 7e 01 00
	00		 jb	 $LN172@FindTarget
  00389	f3 0f 10 8d ec
	7e ff ff	 movss	 xmm1, DWORD PTR _fMaxRangeSq$[ebp]
  00391	f3 0f 5a c0	 cvtss2sd xmm0, xmm0
  00395	0f 5a c9	 cvtps2pd xmm1, xmm1
  00398	66 0f 2f c8	 comisd	 xmm1, xmm0
  0039c	0f 86 65 01 00
	00		 jbe	 $LN172@FindTarget

; 303  : 			continue;
; 304  : 
; 305  : 		D3DXVec3Normalize( &vDiff, &vDiff );

  003a2	8d 45 d8	 lea	 eax, DWORD PTR _vDiff$531250[ebp]
  003a5	50		 push	 eax
  003a6	50		 push	 eax
  003a7	e8 00 00 00 00	 call	 _D3DXVec3Normalize@8

; 306  : 
; 307  : 		float fValue = D3DXVec3Dot( &vDir, &vDiff );

  003ac	d9 45 e8	 fld	 DWORD PTR _vDir$[ebp+4]
  003af	d8 4d dc	 fmul	 DWORD PTR _vDiff$531250[ebp+4]
  003b2	d9 45 e4	 fld	 DWORD PTR _vDir$[ebp]
  003b5	d8 4d d8	 fmul	 DWORD PTR _vDiff$531250[ebp]
  003b8	de c1		 faddp	 ST(1), ST(0)
  003ba	d9 45 ec	 fld	 DWORD PTR _vDir$[ebp+8]
  003bd	d8 4d e0	 fmul	 DWORD PTR _vDiff$531250[ebp+8]
  003c0	de c1		 faddp	 ST(1), ST(0)
  003c2	d9 9d 60 7f ff
	ff		 fstp	 DWORD PTR _fValue$531257[ebp]

; 308  : 		float fAngleGap = RADtoDEG( acosf(fValue) );

  003c8	d9 85 60 7f ff
	ff		 fld	 DWORD PTR _fValue$531257[ebp]
  003ce	e8 00 00 00 00	 call	 __CIacos
  003d3	d9 9d 60 7f ff
	ff		 fstp	 DWORD PTR tv1086[ebp]
  003d9	d9 85 60 7f ff
	ff		 fld	 DWORD PTR tv1086[ebp]
  003df	51		 push	 ecx
  003e0	d9 9d 60 7f ff
	ff		 fstp	 DWORD PTR $T543217[ebp]
  003e6	f3 0f 10 85 60
	7f ff ff	 movss	 xmm0, DWORD PTR $T543217[ebp]
  003ee	f3 0f 11 04 24	 movss	 DWORD PTR [esp], xmm0
  003f3	e8 00 00 00 00	 call	 ??$RADtoDEG@M@@YAMM@Z	; RADtoDEG<float>
  003f8	d9 9d 64 7f ff
	ff		 fstp	 DWORD PTR _fAngleGap$531258[ebp]
  003fe	59		 pop	 ecx

; 309  : 
; 310  : 		if ( !COMPARE( fAngleGap, m_fTargetMinAngle, m_fTargetMaxAngle ) )

  003ff	8d 85 e4 7e ff
	ff		 lea	 eax, DWORD PTR _value$543221[ebp]
  00405	50		 push	 eax
  00406	8d 8b 74 09 00
	00		 lea	 ecx, DWORD PTR [ebx+2420]
  0040c	e8 00 00 00 00	 call	 ?DecryptValueToPool@?$CEncrypt@M@@QAEXPAM@Z ; CEncrypt<float>::DecryptValueToPool
  00411	d9 85 e4 7e ff
	ff		 fld	 DWORD PTR _value$543221[ebp]
  00417	d9 85 64 7f ff
	ff		 fld	 DWORD PTR _fAngleGap$531258[ebp]
  0041d	df f1		 fcomip	 ST(1)
  0041f	dd d8		 fstp	 ST(0)
  00421	0f 82 e0 00 00
	00		 jb	 $LN172@FindTarget
  00427	8d 85 f0 7e ff
	ff		 lea	 eax, DWORD PTR _value$543225[ebp]
  0042d	50		 push	 eax
  0042e	8d 8b a4 09 00
	00		 lea	 ecx, DWORD PTR [ebx+2468]
  00434	e8 00 00 00 00	 call	 ?DecryptValueToPool@?$CEncrypt@M@@QAEXPAM@Z ; CEncrypt<float>::DecryptValueToPool
  00439	f3 0f 10 85 64
	7f ff ff	 movss	 xmm0, DWORD PTR _fAngleGap$531258[ebp]
  00441	f3 0f 10 8d f0
	7e ff ff	 movss	 xmm1, DWORD PTR _value$543225[ebp]
  00449	0f 5a c0	 cvtps2pd xmm0, xmm0
  0044c	0f 5a c9	 cvtps2pd xmm1, xmm1
  0044f	66 0f 2f c8	 comisd	 xmm1, xmm0
  00453	0f 86 ae 00 00
	00		 jbe	 $LN172@FindTarget

; 311  : 			continue;
; 312  : 
; 313  : 		float fDistanceSq = D3DXVec3LengthSq( &vDiff );
; 314  : 
; 315  : 		BaseCharDistanceSq kTarget;

  00459	8d 4d 88	 lea	 ecx, DWORD PTR _kTarget$531266[ebp]
  0045c	e8 00 00 00 00	 call	 ??0tagBaseCharDistanceSq@@QAE@XZ ; tagBaseCharDistanceSq::tagBaseCharDistanceSq

; 316  : 		kTarget.m_Name = pTarget->GetCharName();

  00461	8b b5 68 7f ff
	ff		 mov	 esi, DWORD PTR _pTarget$531244[ebp]
  00467	8d 86 d4 02 00
	00		 lea	 eax, DWORD PTR [esi+724]
  0046d	50		 push	 eax
  0046e	8d 4d 88	 lea	 ecx, DWORD PTR _kTarget$531266[ebp]
  00471	c6 45 fc 02	 mov	 BYTE PTR __$EHRec$[ebp+8], 2
  00475	ff 15 00 00 00
	00		 call	 DWORD PTR __imp_??4ioHashString@@QAEAAV0@ABV0@@Z

; 317  : 		kTarget.m_fDistanceSq = fLengthSq;

  0047b	f3 0f 10 85 04
	7f ff ff	 movss	 xmm0, DWORD PTR _fLengthSq$531254[ebp]
  00483	f3 0f 11 45 98	 movss	 DWORD PTR _kTarget$531266[ebp+16], xmm0

; 318  : 		kTarget.m_vPos = pTarget->GetMidPositionByRate();

  00488	b8 05 00 00 00	 mov	 eax, 5
  0048d	8b c8		 mov	 ecx, eax
  0048f	b8 0a 00 00 00	 mov	 eax, 10			; 0000000aH
  00494	89 8d 60 7f ff
	ff		 mov	 DWORD PTR tv1069[ebp], ecx
  0049a	db 85 60 7f ff
	ff		 fild	 DWORD PTR tv1069[ebp]
  004a0	85 c9		 test	 ecx, ecx
  004a2	79 06		 jns	 SHORT $LN183@FindTarget
  004a4	d8 05 00 00 00
	00		 fadd	 DWORD PTR __real@4f800000
$LN183@FindTarget:
  004aa	89 85 60 7f ff
	ff		 mov	 DWORD PTR tv1065[ebp], eax
  004b0	db 85 60 7f ff
	ff		 fild	 DWORD PTR tv1065[ebp]
  004b6	85 c0		 test	 eax, eax
  004b8	79 06		 jns	 SHORT $LN184@FindTarget
  004ba	d8 05 00 00 00
	00		 fadd	 DWORD PTR __real@4f800000
$LN184@FindTarget:
  004c0	de f9		 fdivp	 ST(1), ST(0)
  004c2	51		 push	 ecx
  004c3	8d 45 a8	 lea	 eax, DWORD PTR $T531267[ebp]
  004c6	8b ce		 mov	 ecx, esi
  004c8	d9 9d 60 7f ff
	ff		 fstp	 DWORD PTR tv1061[ebp]
  004ce	d9 85 60 7f ff
	ff		 fld	 DWORD PTR tv1061[ebp]
  004d4	d9 1c 24	 fstp	 DWORD PTR [esp]
  004d7	50		 push	 eax
  004d8	e8 00 00 00 00	 call	 ?GetMidPositionByRate@ioGameEntity@@QBE?AUD3DXVECTOR3@@M@Z ; ioGameEntity::GetMidPositionByRate
  004dd	8b f0		 mov	 esi, eax
  004df	8d 7d 9c	 lea	 edi, DWORD PTR _kTarget$531266[ebp+20]
  004e2	a5		 movsd
  004e3	a5		 movsd

; 319  : 
; 320  : 		TargetNameList.push_back( kTarget );

  004e4	8d 45 88	 lea	 eax, DWORD PTR _kTarget$531266[ebp]
  004e7	50		 push	 eax
  004e8	8d 8d 48 7f ff
	ff		 lea	 ecx, DWORD PTR _TargetNameList$[ebp]
  004ee	a5		 movsd
  004ef	e8 00 00 00 00	 call	 ?push_back@?$vector@UtagBaseCharDistanceSq@@V?$allocator@UtagBaseCharDistanceSq@@@std@@@std@@QAEXABUtagBaseCharDistanceSq@@@Z ; std::vector<tagBaseCharDistanceSq,std::allocator<tagBaseCharDistanceSq> >::push_back

; 321  : 	}

  004f4	8d 4d 88	 lea	 ecx, DWORD PTR _kTarget$531266[ebp]
  004f7	c6 45 fc 01	 mov	 BYTE PTR __$EHRec$[ebp+8], 1
  004fb	ff 15 00 00 00
	00		 call	 DWORD PTR __imp_??1ioHashString@@QAE@XZ
  00501	8b b5 fc 7e ff
	ff		 mov	 esi, DWORD PTR _pChar$GSCopy$[ebp]
$LN172@FindTarget:
  00507	8b bd 58 7f ff
	ff		 mov	 edi, DWORD PTR _pStage$GSCopy$[ebp]
$LN28@FindTarget:

; 280  : 
; 281  : 	for ( auto iter = rkCharList.begin(); iter != rkCharList.end(); ++iter )

  0050d	8b 8d 5c 7f ff
	ff		 mov	 ecx, DWORD PTR _iter$531135[ebp]
  00513	83 c1 04	 add	 ecx, 4
$LN185@FindTarget:
  00516	89 8d 5c 7f ff
	ff		 mov	 DWORD PTR _iter$531135[ebp], ecx
  0051c	3b 4f 30	 cmp	 ecx, DWORD PTR [edi+48]
  0051f	0f 85 93 fc ff
	ff		 jne	 $LN74@FindTarget

; 322  : 
; 323  : 	bool bChange = false;
; 324  : 	ioHashString szTarget_A,szTarget_S,szTarget_D;

  00525	8d 8d 18 7f ff
	ff		 lea	 ecx, DWORD PTR _szTarget_A$[ebp]
  0052b	c6 85 6f 7f ff
	ff 00		 mov	 BYTE PTR _bChange$[ebp], 0
  00532	ff 15 00 00 00
	00		 call	 DWORD PTR __imp_??0ioHashString@@QAE@XZ
  00538	8d 8d 38 7f ff
	ff		 lea	 ecx, DWORD PTR _szTarget_S$[ebp]
  0053e	c6 45 fc 03	 mov	 BYTE PTR __$EHRec$[ebp+8], 3
  00542	ff 15 00 00 00
	00		 call	 DWORD PTR __imp_??0ioHashString@@QAE@XZ
  00548	8d 8d 28 7f ff
	ff		 lea	 ecx, DWORD PTR _szTarget_D$[ebp]
  0054e	c6 45 fc 04	 mov	 BYTE PTR __$EHRec$[ebp+8], 4
  00552	ff 15 00 00 00
	00		 call	 DWORD PTR __imp_??0ioHashString@@QAE@XZ

; 325  : 	if ( !TargetNameList.empty() )

  00558	8b 85 48 7f ff
	ff		 mov	 eax, DWORD PTR _TargetNameList$[ebp]
  0055e	c6 45 fc 05	 mov	 BYTE PTR __$EHRec$[ebp+8], 5
  00562	3b 85 4c 7f ff
	ff		 cmp	 eax, DWORD PTR _TargetNameList$[ebp+4]
  00568	0f 84 a7 00 00
	00		 je	 $LN14@FindTarget

; 326  : 	{
; 327  : 		std::sort( TargetNameList.begin(), TargetNameList.end(), BaseCharDistanceSqSort2() );

  0056e	ff b5 fc 7e ff
	ff		 push	 DWORD PTR $T543034[ebp]
  00574	ff b5 4c 7f ff
	ff		 push	 DWORD PTR _TargetNameList$[ebp+4]
  0057a	50		 push	 eax
  0057b	e8 00 00 00 00	 call	 ??$sort@V?$_Vector_iterator@V?$_Vector_val@UtagBaseCharDistanceSq@@V?$allocator@UtagBaseCharDistanceSq@@@std@@@std@@@std@@VBaseCharDistanceSqSort2@@@std@@YAXV?$_Vector_iterator@V?$_Vector_val@UtagBaseCharDistanceSq@@V?$allocator@UtagBaseCharDistanceSq@@@std@@@std@@@0@0VBaseCharDistanceSqSort2@@@Z ; std::sort<std::_Vector_iterator<std::_Vector_val<tagBaseCharDistanceSq,std::allocator<tagBaseCharDistanceSq> > >,BaseCharDistanceSqSort2>

; 328  : 
; 329  : 		for ( int i=0 ; i< (int)TargetNameList.size() ; ++i )

  00580	8b 85 4c 7f ff
	ff		 mov	 eax, DWORD PTR _TargetNameList$[ebp+4]
  00586	2b 85 48 7f ff
	ff		 sub	 eax, DWORD PTR _TargetNameList$[ebp]
  0058c	83 a5 68 7f ff
	ff 00		 and	 DWORD PTR _i$531409[ebp], 0
  00593	83 c4 0c	 add	 esp, 12			; 0000000cH
  00596	a9 e0 ff ff ff	 test	 eax, -32		; ffffffe0H
  0059b	7e 78		 jle	 SHORT $LN14@FindTarget
$LN16@FindTarget:

; 330  : 		{
; 331  : 			if( i == 0 )

  0059d	83 bd 68 7f ff
	ff 00		 cmp	 DWORD PTR _i$531409[ebp], 0
  005a4	75 12		 jne	 SHORT $LN13@FindTarget

; 332  : 				szTarget_D = TargetNameList[i].m_Name;

  005a6	ff b5 48 7f ff
	ff		 push	 DWORD PTR _TargetNameList$[ebp]
  005ac	8d 8d 28 7f ff
	ff		 lea	 ecx, DWORD PTR _szTarget_D$[ebp]
  005b2	ff 15 00 00 00
	00		 call	 DWORD PTR __imp_??4ioHashString@@QAEAAV0@ABV0@@Z
$LN13@FindTarget:

; 333  : 			if( i == 1 )

  005b8	83 bd 68 7f ff
	ff 01		 cmp	 DWORD PTR _i$531409[ebp], 1
  005bf	75 16		 jne	 SHORT $LN12@FindTarget

; 334  : 				szTarget_S = TargetNameList[i].m_Name;

  005c1	8b 85 48 7f ff
	ff		 mov	 eax, DWORD PTR _TargetNameList$[ebp]
  005c7	83 c0 20	 add	 eax, 32			; 00000020H
  005ca	50		 push	 eax
  005cb	8d 8d 38 7f ff
	ff		 lea	 ecx, DWORD PTR _szTarget_S$[ebp]
  005d1	ff 15 00 00 00
	00		 call	 DWORD PTR __imp_??4ioHashString@@QAEAAV0@ABV0@@Z
$LN12@FindTarget:

; 335  : 			if( i == 2 )

  005d7	83 bd 68 7f ff
	ff 02		 cmp	 DWORD PTR _i$531409[ebp], 2
  005de	74 1f		 je	 SHORT $LN167@FindTarget

; 328  : 
; 329  : 		for ( int i=0 ; i< (int)TargetNameList.size() ; ++i )

  005e0	8b 85 4c 7f ff
	ff		 mov	 eax, DWORD PTR _TargetNameList$[ebp+4]
  005e6	2b 85 48 7f ff
	ff		 sub	 eax, DWORD PTR _TargetNameList$[ebp]
  005ec	ff 85 68 7f ff
	ff		 inc	 DWORD PTR _i$531409[ebp]
  005f2	c1 f8 05	 sar	 eax, 5
  005f5	39 85 68 7f ff
	ff		 cmp	 DWORD PTR _i$531409[ebp], eax
  005fb	7c a0		 jl	 SHORT $LN16@FindTarget

; 335  : 			if( i == 2 )

  005fd	eb 16		 jmp	 SHORT $LN14@FindTarget
$LN167@FindTarget:

; 336  : 			{
; 337  : 				szTarget_A = TargetNameList[i].m_Name;

  005ff	8b 85 48 7f ff
	ff		 mov	 eax, DWORD PTR _TargetNameList$[ebp]
  00605	83 c0 40	 add	 eax, 64			; 00000040H
  00608	50		 push	 eax
  00609	8d 8d 18 7f ff
	ff		 lea	 ecx, DWORD PTR _szTarget_A$[ebp]
  0060f	ff 15 00 00 00
	00		 call	 DWORD PTR __imp_??4ioHashString@@QAEAAV0@ABV0@@Z
$LN14@FindTarget:

; 338  : 				break;
; 339  : 			}
; 340  : 		}
; 341  : 	}
; 342  : 
; 343  : 	if ( m_szA_MarkTargetName != szTarget_A )

  00615	8d 85 18 7f ff
	ff		 lea	 eax, DWORD PTR _szTarget_A$[ebp]
  0061b	8d 8b 34 0a 00
	00		 lea	 ecx, DWORD PTR [ebx+2612]
  00621	50		 push	 eax
  00622	89 8d 68 7f ff
	ff		 mov	 DWORD PTR tv1142[ebp], ecx
  00628	ff 15 00 00 00
	00		 call	 DWORD PTR __imp_??9ioHashString@@QBE_NABV0@@Z
  0062e	84 c0		 test	 al, al
  00630	74 50		 je	 SHORT $LN8@FindTarget

; 344  : 	{
; 345  : 		m_szA_MarkTargetName = szTarget_A;

  00632	8b 8d 68 7f ff
	ff		 mov	 ecx, DWORD PTR tv1142[ebp]
  00638	8d 85 18 7f ff
	ff		 lea	 eax, DWORD PTR _szTarget_A$[ebp]
  0063e	50		 push	 eax
  0063f	ff 15 00 00 00
	00		 call	 DWORD PTR __imp_??4ioHashString@@QAEAAV0@ABV0@@Z

; 346  : 		bChange = true;
; 347  : 
; 348  : 		if ( !m_szA_MarkTargetName.IsEmpty() )

  00645	8b 8d 68 7f ff
	ff		 mov	 ecx, DWORD PTR tv1142[ebp]
  0064b	c6 85 6f 7f ff
	ff 01		 mov	 BYTE PTR _bChange$[ebp], 1
  00652	ff 15 00 00 00
	00		 call	 DWORD PTR __imp_?IsEmpty@ioHashString@@QBE_NXZ
  00658	84 c0		 test	 al, al

; 349  : 			CreateMarker( pChar, pStage, m_szA_MarkTargetName, m_szA_MakrMapEffect, m_dwA_MarkMapEffectID );

  0065a	8d 83 a4 0a 00
	00		 lea	 eax, DWORD PTR [ebx+2724]
  00660	8b cb		 mov	 ecx, ebx
  00662	50		 push	 eax
  00663	75 16		 jne	 SHORT $LN9@FindTarget
  00665	8d 83 64 0a 00
	00		 lea	 eax, DWORD PTR [ebx+2660]
  0066b	50		 push	 eax
  0066c	ff b5 68 7f ff
	ff		 push	 DWORD PTR tv1142[ebp]
  00672	57		 push	 edi
  00673	56		 push	 esi
  00674	e8 00 00 00 00	 call	 ?CreateMarker@ioKeyMarkAttackBuff@@IAEXPAVioBaseChar@@PAVioPlayStage@@ABVioHashString@@2AAK@Z ; ioKeyMarkAttackBuff::CreateMarker

; 350  : 		else

  00679	eb 07		 jmp	 SHORT $LN8@FindTarget
$LN9@FindTarget:

; 351  : 			DestroyMaker( pChar, pStage, m_dwA_MarkMapEffectID );

  0067b	57		 push	 edi
  0067c	56		 push	 esi
  0067d	e8 00 00 00 00	 call	 ?DestroyMaker@ioKeyMarkAttackBuff@@IAEXPAVioBaseChar@@PAVioPlayStage@@AAK@Z ; ioKeyMarkAttackBuff::DestroyMaker
$LN8@FindTarget:

; 352  : 	}
; 353  : 	if ( m_szS_MarkTargetName != szTarget_S )

  00682	8d 85 38 7f ff
	ff		 lea	 eax, DWORD PTR _szTarget_S$[ebp]
  00688	8d 8b 44 0a 00
	00		 lea	 ecx, DWORD PTR [ebx+2628]
  0068e	50		 push	 eax
  0068f	89 8d 64 7f ff
	ff		 mov	 DWORD PTR tv1147[ebp], ecx
  00695	ff 15 00 00 00
	00		 call	 DWORD PTR __imp_??9ioHashString@@QBE_NABV0@@Z
  0069b	84 c0		 test	 al, al
  0069d	74 50		 je	 SHORT $LN5@FindTarget

; 354  : 	{
; 355  : 		m_szS_MarkTargetName = szTarget_S;

  0069f	8b 8d 64 7f ff
	ff		 mov	 ecx, DWORD PTR tv1147[ebp]
  006a5	8d 85 38 7f ff
	ff		 lea	 eax, DWORD PTR _szTarget_S$[ebp]
  006ab	50		 push	 eax
  006ac	ff 15 00 00 00
	00		 call	 DWORD PTR __imp_??4ioHashString@@QAEAAV0@ABV0@@Z

; 356  : 		bChange = true;
; 357  : 
; 358  : 		if ( !m_szS_MarkTargetName.IsEmpty() )

  006b2	8b 8d 64 7f ff
	ff		 mov	 ecx, DWORD PTR tv1147[ebp]
  006b8	c6 85 6f 7f ff
	ff 01		 mov	 BYTE PTR _bChange$[ebp], 1
  006bf	ff 15 00 00 00
	00		 call	 DWORD PTR __imp_?IsEmpty@ioHashString@@QBE_NXZ
  006c5	84 c0		 test	 al, al

; 359  : 			CreateMarker( pChar, pStage, m_szS_MarkTargetName, m_szS_MakrMapEffect, m_dwS_MarkMapEffectID );

  006c7	8d 83 a8 0a 00
	00		 lea	 eax, DWORD PTR [ebx+2728]
  006cd	8b cb		 mov	 ecx, ebx
  006cf	50		 push	 eax
  006d0	75 16		 jne	 SHORT $LN6@FindTarget
  006d2	8d 83 74 0a 00
	00		 lea	 eax, DWORD PTR [ebx+2676]
  006d8	50		 push	 eax
  006d9	ff b5 64 7f ff
	ff		 push	 DWORD PTR tv1147[ebp]
  006df	57		 push	 edi
  006e0	56		 push	 esi
  006e1	e8 00 00 00 00	 call	 ?CreateMarker@ioKeyMarkAttackBuff@@IAEXPAVioBaseChar@@PAVioPlayStage@@ABVioHashString@@2AAK@Z ; ioKeyMarkAttackBuff::CreateMarker

; 360  : 		else

  006e6	eb 07		 jmp	 SHORT $LN5@FindTarget
$LN6@FindTarget:

; 361  : 			DestroyMaker( pChar, pStage, m_dwS_MarkMapEffectID );

  006e8	57		 push	 edi
  006e9	56		 push	 esi
  006ea	e8 00 00 00 00	 call	 ?DestroyMaker@ioKeyMarkAttackBuff@@IAEXPAVioBaseChar@@PAVioPlayStage@@AAK@Z ; ioKeyMarkAttackBuff::DestroyMaker
$LN5@FindTarget:

; 362  : 
; 363  : 	}
; 364  : 	if ( m_szD_MarkTargetName != szTarget_D )

  006ef	8d 85 28 7f ff
	ff		 lea	 eax, DWORD PTR _szTarget_D$[ebp]
  006f5	8d 8b 54 0a 00
	00		 lea	 ecx, DWORD PTR [ebx+2644]
  006fb	50		 push	 eax
  006fc	89 8d 58 7f ff
	ff		 mov	 DWORD PTR tv1152[ebp], ecx
  00702	ff 15 00 00 00
	00		 call	 DWORD PTR __imp_??9ioHashString@@QBE_NABV0@@Z
  00708	84 c0		 test	 al, al
  0070a	74 50		 je	 SHORT $LN2@FindTarget

; 365  : 	{
; 366  : 		m_szD_MarkTargetName = szTarget_D;

  0070c	8b 8d 58 7f ff
	ff		 mov	 ecx, DWORD PTR tv1152[ebp]
  00712	8d 85 28 7f ff
	ff		 lea	 eax, DWORD PTR _szTarget_D$[ebp]
  00718	50		 push	 eax
  00719	ff 15 00 00 00
	00		 call	 DWORD PTR __imp_??4ioHashString@@QAEAAV0@ABV0@@Z

; 367  : 		bChange = true;
; 368  : 
; 369  : 		if ( !m_szD_MarkTargetName.IsEmpty() )

  0071f	8b 8d 58 7f ff
	ff		 mov	 ecx, DWORD PTR tv1152[ebp]
  00725	c6 85 6f 7f ff
	ff 01		 mov	 BYTE PTR _bChange$[ebp], 1
  0072c	ff 15 00 00 00
	00		 call	 DWORD PTR __imp_?IsEmpty@ioHashString@@QBE_NXZ
  00732	84 c0		 test	 al, al

; 370  : 			CreateMarker( pChar, pStage, m_szD_MarkTargetName, m_szD_MakrMapEffect, m_dwD_MarkMapEffectID );

  00734	8d 83 ac 0a 00
	00		 lea	 eax, DWORD PTR [ebx+2732]
  0073a	8b cb		 mov	 ecx, ebx
  0073c	50		 push	 eax
  0073d	75 16		 jne	 SHORT $LN3@FindTarget
  0073f	8d 83 84 0a 00
	00		 lea	 eax, DWORD PTR [ebx+2692]
  00745	50		 push	 eax
  00746	ff b5 58 7f ff
	ff		 push	 DWORD PTR tv1152[ebp]
  0074c	57		 push	 edi
  0074d	56		 push	 esi
  0074e	e8 00 00 00 00	 call	 ?CreateMarker@ioKeyMarkAttackBuff@@IAEXPAVioBaseChar@@PAVioPlayStage@@ABVioHashString@@2AAK@Z ; ioKeyMarkAttackBuff::CreateMarker

; 371  : 		else

  00753	eb 07		 jmp	 SHORT $LN2@FindTarget
$LN3@FindTarget:

; 372  : 			DestroyMaker( pChar, pStage, m_dwD_MarkMapEffectID );

  00755	57		 push	 edi
  00756	56		 push	 esi
  00757	e8 00 00 00 00	 call	 ?DestroyMaker@ioKeyMarkAttackBuff@@IAEXPAVioBaseChar@@PAVioPlayStage@@AAK@Z ; ioKeyMarkAttackBuff::DestroyMaker
$LN2@FindTarget:

; 373  : 	}
; 374  : 	//
; 375  : 	if ( pChar->IsNeedSendNetwork() && bChange )

  0075c	8b 06		 mov	 eax, DWORD PTR [esi]
  0075e	8b ce		 mov	 ecx, esi
  00760	ff 90 04 01 00
	00		 call	 DWORD PTR [eax+260]
  00766	84 c0		 test	 al, al
  00768	0f 84 a4 00 00
	00		 je	 $LN1@FindTarget
  0076e	80 bd 6f 7f ff
	ff 00		 cmp	 BYTE PTR _bChange$[ebp], 0
  00775	0f 84 97 00 00
	00		 je	 $LN1@FindTarget

; 376  : 	{
; 377  : 		SP2Packet kPacket( CUPK_APPLY_EXTRA_BUFF_INFO );

  0077b	68 45 42 00 00	 push	 16965			; 00004245H
  00780	8d 8d 70 7f ff
	ff		 lea	 ecx, DWORD PTR _kPacket$531427[ebp]
  00786	e8 00 00 00 00	 call	 ??0SP2Packet@@QAE@K@Z	; SP2Packet::SP2Packet

; 378  : 		kPacket << pChar->GetCharName();

  0078b	81 c6 d4 02 00
	00		 add	 esi, 724		; 000002d4H
  00791	56		 push	 esi
  00792	8d 8d 70 7f ff
	ff		 lea	 ecx, DWORD PTR _kPacket$531427[ebp]
  00798	c6 45 fc 06	 mov	 BYTE PTR __$EHRec$[ebp+8], 6
  0079c	e8 00 00 00 00	 call	 ??6SP2Packet@@QAEAAV0@ABVioHashString@@@Z ; SP2Packet::operator<<

; 379  : 		kPacket << GetName();

  007a1	81 c3 34 02 00
	00		 add	 ebx, 564		; 00000234H
  007a7	53		 push	 ebx
  007a8	8d 8d 70 7f ff
	ff		 lea	 ecx, DWORD PTR _kPacket$531427[ebp]
  007ae	e8 00 00 00 00	 call	 ??6SP2Packet@@QAEAAV0@ABVioHashString@@@Z ; SP2Packet::operator<<

; 380  : 		kPacket << static_cast<BYTE>(BST_CHANGE_TARGET);

  007b3	6a 00		 push	 0
  007b5	8d 8d 70 7f ff
	ff		 lea	 ecx, DWORD PTR _kPacket$531427[ebp]
  007bb	e8 00 00 00 00	 call	 ??6SP2Packet@@QAEAAV0@E@Z ; SP2Packet::operator<<

; 381  : 		kPacket << m_szA_MarkTargetName;

  007c0	ff b5 68 7f ff
	ff		 push	 DWORD PTR tv1142[ebp]
  007c6	8d 8d 70 7f ff
	ff		 lea	 ecx, DWORD PTR _kPacket$531427[ebp]
  007cc	e8 00 00 00 00	 call	 ??6SP2Packet@@QAEAAV0@ABVioHashString@@@Z ; SP2Packet::operator<<

; 382  : 		kPacket << m_szS_MarkTargetName;

  007d1	ff b5 64 7f ff
	ff		 push	 DWORD PTR tv1147[ebp]
  007d7	8d 8d 70 7f ff
	ff		 lea	 ecx, DWORD PTR _kPacket$531427[ebp]
  007dd	e8 00 00 00 00	 call	 ??6SP2Packet@@QAEAAV0@ABVioHashString@@@Z ; SP2Packet::operator<<

; 383  : 		kPacket << m_szD_MarkTargetName;

  007e2	ff b5 58 7f ff
	ff		 push	 DWORD PTR tv1152[ebp]
  007e8	8d 8d 70 7f ff
	ff		 lea	 ecx, DWORD PTR _kPacket$531427[ebp]
  007ee	e8 00 00 00 00	 call	 ??6SP2Packet@@QAEAAV0@ABVioHashString@@@Z ; SP2Packet::operator<<

; 384  : 		P2PNetwork::SendToAllPlayingUser( kPacket );

  007f3	8d 85 70 7f ff
	ff		 lea	 eax, DWORD PTR _kPacket$531427[ebp]
  007f9	6a 00		 push	 0
  007fb	50		 push	 eax
  007fc	e8 00 00 00 00	 call	 ?SendToAllPlayingUser@P2PNetwork@@YAXAAVSP2Packet@@PAVioBaseChar@@@Z ; P2PNetwork::SendToAllPlayingUser
  00801	59		 pop	 ecx
  00802	59		 pop	 ecx

; 385  : 	}

  00803	8d 8d 70 7f ff
	ff		 lea	 ecx, DWORD PTR _kPacket$531427[ebp]
  00809	c6 45 fc 05	 mov	 BYTE PTR __$EHRec$[ebp+8], 5
  0080d	e8 00 00 00 00	 call	 ??1SP2Packet@@UAE@XZ	; SP2Packet::~SP2Packet
$LN1@FindTarget:

; 386  : }

  00812	8b 35 00 00 00
	00		 mov	 esi, DWORD PTR __imp_??1ioHashString@@QAE@XZ
  00818	8d 8d 28 7f ff
	ff		 lea	 ecx, DWORD PTR _szTarget_D$[ebp]
  0081e	c6 45 fc 04	 mov	 BYTE PTR __$EHRec$[ebp+8], 4
  00822	ff d6		 call	 esi
  00824	8d 8d 38 7f ff
	ff		 lea	 ecx, DWORD PTR _szTarget_S$[ebp]
  0082a	c6 45 fc 03	 mov	 BYTE PTR __$EHRec$[ebp+8], 3
  0082e	ff d6		 call	 esi
  00830	8d 8d 18 7f ff
	ff		 lea	 ecx, DWORD PTR _szTarget_A$[ebp]
  00836	c6 45 fc 01	 mov	 BYTE PTR __$EHRec$[ebp+8], 1
  0083a	ff d6		 call	 esi
  0083c	8d 8d 48 7f ff
	ff		 lea	 ecx, DWORD PTR _TargetNameList$[ebp]
  00842	c6 45 fc 00	 mov	 BYTE PTR __$EHRec$[ebp+8], 0
  00846	e8 00 00 00 00	 call	 ?_Tidy@?$vector@UtagBaseCharDistanceSq@@V?$allocator@UtagBaseCharDistanceSq@@@std@@@std@@IAEXXZ ; std::vector<tagBaseCharDistanceSq,std::allocator<tagBaseCharDistanceSq> >::_Tidy
  0084b	83 4d fc ff	 or	 DWORD PTR __$EHRec$[ebp+8], -1
  0084f	8d 8d 08 7f ff
	ff		 lea	 ecx, DWORD PTR _szTarget$[ebp]
  00855	ff d6		 call	 esi
$LN31@FindTarget:
  00857	8b 4d f4	 mov	 ecx, DWORD PTR __$EHRec$[ebp]
  0085a	64 89 0d 00 00
	00 00		 mov	 DWORD PTR fs:0, ecx
  00861	59		 pop	 ecx
  00862	5f		 pop	 edi
  00863	5e		 pop	 esi
  00864	5b		 pop	 ebx
  00865	8b 4d f0	 mov	 ecx, DWORD PTR __$ArrayPad$[ebp]
  00868	33 cd		 xor	 ecx, ebp
  0086a	e8 00 00 00 00	 call	 @__security_check_cookie@4
  0086f	c9		 leave
  00870	c2 08 00	 ret	 8
_TEXT	ENDS
;	COMDAT text$x
text$x	SEGMENT
__unwindfunclet$?FindTarget@ioKeyMarkAttackBuff@@IAEXPAVioBaseChar@@PAVioPlayStage@@@Z$0:
  00000	8d 8d 08 7f ff
	ff		 lea	 ecx, DWORD PTR _szTarget$[ebp]
  00006	ff 25 00 00 00
	00		 jmp	 DWORD PTR __imp_??1ioHashString@@QAE@XZ
__unwindfunclet$?FindTarget@ioKeyMarkAttackBuff@@IAEXPAVioBaseChar@@PAVioPlayStage@@@Z$1:
  0000c	8d 8d 48 7f ff
	ff		 lea	 ecx, DWORD PTR _TargetNameList$[ebp]
  00012	e9 00 00 00 00	 jmp	 ??1?$vector@UtagBaseCharDistanceSq@@V?$allocator@UtagBaseCharDistanceSq@@@std@@@std@@QAE@XZ ; std::vector<tagBaseCharDistanceSq,std::allocator<tagBaseCharDistanceSq> >::~vector<tagBaseCharDistanceSq,std::allocator<tagBaseCharDistanceSq> >
__unwindfunclet$?FindTarget@ioKeyMarkAttackBuff@@IAEXPAVioBaseChar@@PAVioPlayStage@@@Z$2:
  00017	8d 4d 88	 lea	 ecx, DWORD PTR _kTarget$531266[ebp]
  0001a	e9 00 00 00 00	 jmp	 ??1tagBaseCharDistanceSq@@QAE@XZ
__unwindfunclet$?FindTarget@ioKeyMarkAttackBuff@@IAEXPAVioBaseChar@@PAVioPlayStage@@@Z$3:
  0001f	8d 8d 18 7f ff
	ff		 lea	 ecx, DWORD PTR _szTarget_A$[ebp]
  00025	ff 25 00 00 00
	00		 jmp	 DWORD PTR __imp_??1ioHashString@@QAE@XZ
__unwindfunclet$?FindTarget@ioKeyMarkAttackBuff@@IAEXPAVioBaseChar@@PAVioPlayStage@@@Z$4:
  0002b	8d 8d 38 7f ff
	ff		 lea	 ecx, DWORD PTR _szTarget_S$[ebp]
  00031	ff 25 00 00 00
	00		 jmp	 DWORD PTR __imp_??1ioHashString@@QAE@XZ
__unwindfunclet$?FindTarget@ioKeyMarkAttackBuff@@IAEXPAVioBaseChar@@PAVioPlayStage@@@Z$5:
  00037	8d 8d 28 7f ff
	ff		 lea	 ecx, DWORD PTR _szTarget_D$[ebp]
  0003d	ff 25 00 00 00
	00		 jmp	 DWORD PTR __imp_??1ioHashString@@QAE@XZ
__unwindfunclet$?FindTarget@ioKeyMarkAttackBuff@@IAEXPAVioBaseChar@@PAVioPlayStage@@@Z$6:
  00043	8d 8d 70 7f ff
	ff		 lea	 ecx, DWORD PTR _kPacket$531427[ebp]
  00049	e9 00 00 00 00	 jmp	 ??1SP2Packet@@UAE@XZ	; SP2Packet::~SP2Packet
__ehhandler$?FindTarget@ioKeyMarkAttackBuff@@IAEXPAVioBaseChar@@PAVioPlayStage@@@Z:
  0004e	8b 54 24 08	 mov	 edx, DWORD PTR [esp+8]
  00052	8d 42 0c	 lea	 eax, DWORD PTR [edx+12]
  00055	8b 8a e0 7e ff
	ff		 mov	 ecx, DWORD PTR [edx-33056]
  0005b	33 c8		 xor	 ecx, eax
  0005d	e8 00 00 00 00	 call	 @__security_check_cookie@4
  00062	8b 4a fc	 mov	 ecx, DWORD PTR [edx-4]
  00065	33 c8		 xor	 ecx, eax
  00067	e8 00 00 00 00	 call	 @__security_check_cookie@4
  0006c	b8 00 00 00 00	 mov	 eax, OFFSET __ehfuncinfo$?FindTarget@ioKeyMarkAttackBuff@@IAEXPAVioBaseChar@@PAVioPlayStage@@@Z
  00071	e9 00 00 00 00	 jmp	 ___CxxFrameHandler3
text$x	ENDS
?FindTarget@ioKeyMarkAttackBuff@@IAEXPAVioBaseChar@@PAVioPlayStage@@@Z ENDP ; ioKeyMarkAttackBuff::FindTarget
; Function compile flags: /Ogsp
;	COMDAT ??_GioKeyMarkAttackBuff@@UAEPAXI@Z
_TEXT	SEGMENT
___flags$ = 8						; size = 4
??_GioKeyMarkAttackBuff@@UAEPAXI@Z PROC			; ioKeyMarkAttackBuff::`scalar deleting destructor', COMDAT
; _this$ = ecx
  00000	55		 push	 ebp
  00001	8b ec		 mov	 ebp, esp
  00003	56		 push	 esi
  00004	8b f1		 mov	 esi, ecx
  00006	e8 00 00 00 00	 call	 ??1ioKeyMarkAttackBuff@@UAE@XZ ; ioKeyMarkAttackBuff::~ioKeyMarkAttackBuff
  0000b	f6 45 08 01	 test	 BYTE PTR ___flags$[ebp], 1
  0000f	74 07		 je	 SHORT $LN1@scalar@5
  00011	56		 push	 esi
  00012	e8 00 00 00 00	 call	 ??3@YAXPAX@Z		; operator delete
  00017	59		 pop	 ecx
$LN1@scalar@5:
  00018	8b c6		 mov	 eax, esi
  0001a	5e		 pop	 esi
  0001b	5d		 pop	 ebp
  0001c	c2 04 00	 ret	 4
??_GioKeyMarkAttackBuff@@UAEPAXI@Z ENDP			; ioKeyMarkAttackBuff::`scalar deleting destructor'
_TEXT	ENDS
PUBLIC	?GetActionAttribute@ioKeyMarkAttackBuff@@IAEABUAttackAttribute@@PAVioBaseChar@@@Z ; ioKeyMarkAttackBuff::GetActionAttribute
EXTRN	_atexit:PROC
;	COMDAT ?attri@?1??GetActionAttribute@ioKeyMarkAttackBuff@@IAEABUAttackAttribute@@PAVioBaseChar@@@Z@4U3@A
_BSS	SEGMENT
?attri@?1??GetActionAttribute@ioKeyMarkAttackBuff@@IAEABUAttackAttribute@@PAVioBaseChar@@@Z@4U3@A DB 050H DUP (?) ; `ioKeyMarkAttackBuff::GetActionAttribute'::`2'::attri
_BSS	ENDS
;	COMDAT ?$S1@?1??GetActionAttribute@ioKeyMarkAttackBuff@@IAEABUAttackAttribute@@PAVioBaseChar@@@Z@4IA
_BSS	SEGMENT
?$S1@?1??GetActionAttribute@ioKeyMarkAttackBuff@@IAEABUAttackAttribute@@PAVioBaseChar@@@Z@4IA DD 01H DUP (?) ; `ioKeyMarkAttackBuff::GetActionAttribute'::`2'::$S1
_BSS	ENDS
;	COMDAT xdata$x
xdata$x	SEGMENT
__unwindtable$?GetActionAttribute@ioKeyMarkAttackBuff@@IAEABUAttackAttribute@@PAVioBaseChar@@@Z DD 0ffffffffH
	DD	FLAT:__unwindfunclet$?GetActionAttribute@ioKeyMarkAttackBuff@@IAEABUAttackAttribute@@PAVioBaseChar@@@Z$0
__ehfuncinfo$?GetActionAttribute@ioKeyMarkAttackBuff@@IAEABUAttackAttribute@@PAVioBaseChar@@@Z DD 019930522H
	DD	01H
	DD	FLAT:__unwindtable$?GetActionAttribute@ioKeyMarkAttackBuff@@IAEABUAttackAttribute@@PAVioBaseChar@@@Z
	DD	2 DUP(00H)
	DD	2 DUP(00H)
	DD	00H
	DD	01H
; Function compile flags: /Ogsp
xdata$x	ENDS
;	COMDAT ?GetActionAttribute@ioKeyMarkAttackBuff@@IAEABUAttackAttribute@@PAVioBaseChar@@@Z
_TEXT	SEGMENT
__$EHRec$ = -12						; size = 12
_pChar$ = 8						; size = 4
?GetActionAttribute@ioKeyMarkAttackBuff@@IAEABUAttackAttribute@@PAVioBaseChar@@@Z PROC ; ioKeyMarkAttackBuff::GetActionAttribute, COMDAT
; _this$ = ecx

; 787  : {

  00000	6a 00		 push	 0
  00002	b8 00 00 00 00	 mov	 eax, __ehhandler$?GetActionAttribute@ioKeyMarkAttackBuff@@IAEABUAttackAttribute@@PAVioBaseChar@@@Z
  00007	e8 00 00 00 00	 call	 __EH_prolog3
  0000c	8b f1		 mov	 esi, ecx

; 788  : 	static AttackAttribute attri;

  0000e	f6 05 00 00 00
	00 01		 test	 BYTE PTR ?$S1@?1??GetActionAttribute@ioKeyMarkAttackBuff@@IAEABUAttackAttribute@@PAVioBaseChar@@@Z@4IA, 1
  00015	bf 00 00 00 00	 mov	 edi, OFFSET ?attri@?1??GetActionAttribute@ioKeyMarkAttackBuff@@IAEABUAttackAttribute@@PAVioBaseChar@@@Z@4U3@A
  0001a	75 21		 jne	 SHORT $LN8@GetActionA
  0001c	83 0d 00 00 00
	00 01		 or	 DWORD PTR ?$S1@?1??GetActionAttribute@ioKeyMarkAttackBuff@@IAEABUAttackAttribute@@PAVioBaseChar@@@Z@4IA, 1
  00023	83 65 fc 00	 and	 DWORD PTR __$EHRec$[ebp+8], 0
  00027	8b cf		 mov	 ecx, edi
  00029	e8 00 00 00 00	 call	 ??0AttackAttribute@@QAE@XZ ; AttackAttribute::AttackAttribute
  0002e	68 00 00 00 00	 push	 OFFSET ??__Fattri@?1??GetActionAttribute@ioKeyMarkAttackBuff@@IAEABUAttackAttribute@@PAVioBaseChar@@@Z@YAXXZ ; `ioKeyMarkAttackBuff::GetActionAttribute'::`2'::`dynamic atexit destructor for 'attri''
  00033	e8 00 00 00 00	 call	 _atexit
  00038	83 4d fc ff	 or	 DWORD PTR __$EHRec$[ebp+8], -1
  0003c	59		 pop	 ecx
$LN8@GetActionA:

; 789  : 	ioBaseChar *pTarget = pChar->GetBaseChar( m_szAttackTarget );

  0003d	8b 4d 08	 mov	 ecx, DWORD PTR _pChar$[ebp]
  00040	8d 86 b4 0a 00
	00		 lea	 eax, DWORD PTR [esi+2740]
  00046	50		 push	 eax
  00047	e8 00 00 00 00	 call	 ?GetBaseChar@ioBaseChar@@QAEPAV1@ABVioHashString@@@Z ; ioBaseChar::GetBaseChar
  0004c	8b d8		 mov	 ebx, eax

; 790  : 	if( pTarget )

  0004e	85 db		 test	 ebx, ebx
  00050	74 4f		 je	 SHORT $LN1@GetActionA

; 791  : 	{
; 792  : 		//Air
; 793  : 		if( IsAirState( pTarget ) )

  00052	8b cb		 mov	 ecx, ebx
  00054	e8 00 00 00 00	 call	 ?IsFloating@ioBaseChar@@QAE_NXZ ; ioBaseChar::IsFloating
  00059	84 c0		 test	 al, al
  0005b	74 20		 je	 SHORT $LN6@GetActionA

; 794  : 		{
; 795  : 			if ( m_AirTargetAttackAttribute.m_AttackAnimation.IsEmpty() )

  0005d	8d 8e 38 0b 00
	00		 lea	 ecx, DWORD PTR [esi+2872]
  00063	ff 15 00 00 00
	00		 call	 DWORD PTR __imp_?IsEmpty@ioHashString@@QBE_NXZ
  00069	84 c0		 test	 al, al
  0006b	74 08		 je	 SHORT $LN5@GetActionA
$LN17@GetActionA:

; 796  : 				return m_NormalTargetAttackAttribute;

  0006d	8d 86 e8 0a 00
	00		 lea	 eax, DWORD PTR [esi+2792]
  00073	eb 2e		 jmp	 SHORT $LN9@GetActionA
$LN5@GetActionA:

; 797  : 			return m_AirTargetAttackAttribute;

  00075	8d 86 38 0b 00
	00		 lea	 eax, DWORD PTR [esi+2872]
  0007b	eb 26		 jmp	 SHORT $LN9@GetActionA
$LN6@GetActionA:

; 798  : 		}
; 799  : 		//Down
; 800  : 		else if ( IsDownState( pTarget ) )

  0007d	53		 push	 ebx
  0007e	8b ce		 mov	 ecx, esi
  00080	e8 00 00 00 00	 call	 ?IsDownState@ioKeyMarkAttackBuff@@IAE_NPAVioBaseChar@@@Z ; ioKeyMarkAttackBuff::IsDownState
  00085	84 c0		 test	 al, al
  00087	74 e4		 je	 SHORT $LN17@GetActionA

; 801  : 		{
; 802  : 			if ( m_DownTargetAttackAttribute.m_AttackAnimation.IsEmpty() )

  00089	8d 8e 88 0b 00
	00		 lea	 ecx, DWORD PTR [esi+2952]
  0008f	ff 15 00 00 00
	00		 call	 DWORD PTR __imp_?IsEmpty@ioHashString@@QBE_NXZ
  00095	84 c0		 test	 al, al

; 803  : 				return m_NormalTargetAttackAttribute;

  00097	75 d4		 jne	 SHORT $LN17@GetActionA

; 804  : 			return m_DownTargetAttackAttribute;

  00099	8d 86 88 0b 00
	00		 lea	 eax, DWORD PTR [esi+2952]
  0009f	eb 02		 jmp	 SHORT $LN9@GetActionA
$LN1@GetActionA:

; 805  : 		}
; 806  : 		//Normal
; 807  : 		else
; 808  : 		{
; 809  : 			return m_NormalTargetAttackAttribute;
; 810  : 		}
; 811  : 
; 812  : 	}
; 813  : 	return attri;

  000a1	8b c7		 mov	 eax, edi
$LN9@GetActionA:

; 814  : }

  000a3	e8 00 00 00 00	 call	 __EH_epilog3
  000a8	c2 04 00	 ret	 4
_TEXT	ENDS
;	COMDAT text$x
text$x	SEGMENT
__unwindfunclet$?GetActionAttribute@ioKeyMarkAttackBuff@@IAEABUAttackAttribute@@PAVioBaseChar@@@Z$0:
  00000	a1 00 00 00 00	 mov	 eax, DWORD PTR ?$S1@?1??GetActionAttribute@ioKeyMarkAttackBuff@@IAEABUAttackAttribute@@PAVioBaseChar@@@Z@4IA
  00005	83 e0 fe	 and	 eax, -2			; fffffffeH
  00008	a3 00 00 00 00	 mov	 DWORD PTR ?$S1@?1??GetActionAttribute@ioKeyMarkAttackBuff@@IAEABUAttackAttribute@@PAVioBaseChar@@@Z@4IA, eax
  0000d	c3		 ret	 0
__ehhandler$?GetActionAttribute@ioKeyMarkAttackBuff@@IAEABUAttackAttribute@@PAVioBaseChar@@@Z:
  0000e	8b 54 24 08	 mov	 edx, DWORD PTR [esp+8]
  00012	8d 42 0c	 lea	 eax, DWORD PTR [edx+12]
  00015	8b 4a f0	 mov	 ecx, DWORD PTR [edx-16]
  00018	33 c8		 xor	 ecx, eax
  0001a	e8 00 00 00 00	 call	 @__security_check_cookie@4
  0001f	b8 00 00 00 00	 mov	 eax, OFFSET __ehfuncinfo$?GetActionAttribute@ioKeyMarkAttackBuff@@IAEABUAttackAttribute@@PAVioBaseChar@@@Z
  00024	e9 00 00 00 00	 jmp	 ___CxxFrameHandler3
text$x	ENDS
?GetActionAttribute@ioKeyMarkAttackBuff@@IAEABUAttackAttribute@@PAVioBaseChar@@@Z ENDP ; ioKeyMarkAttackBuff::GetActionAttribute
PUBLIC	__$ArrayPad$
PUBLIC	?SetActionState@ioKeyMarkAttackBuff@@IAEXPAVioBaseChar@@PAVioPlayStage@@@Z ; ioKeyMarkAttackBuff::SetActionState
EXTRN	??6SP2Packet@@QAEAAV0@ABUD3DXQUATERNION@@@Z:PROC ; SP2Packet::operator<<
EXTRN	??6SP2Packet@@QAEAAV0@ABUD3DXVECTOR3@@@Z:PROC	; SP2Packet::operator<<
;	COMDAT xdata$x
; File d:\lost saga for developer\youtube\tutorial\source\src\lsclient\iobasechar.h
xdata$x	SEGMENT
__unwindtable$?SetActionState@ioKeyMarkAttackBuff@@IAEXPAVioBaseChar@@PAVioPlayStage@@@Z DD 0ffffffffH
	DD	FLAT:__unwindfunclet$?SetActionState@ioKeyMarkAttackBuff@@IAEXPAVioBaseChar@@PAVioPlayStage@@@Z$0
__ehfuncinfo$?SetActionState@ioKeyMarkAttackBuff@@IAEXPAVioBaseChar@@PAVioPlayStage@@@Z DD 019930522H
	DD	01H
	DD	FLAT:__unwindtable$?SetActionState@ioKeyMarkAttackBuff@@IAEXPAVioBaseChar@@PAVioPlayStage@@@Z
	DD	2 DUP(00H)
	DD	2 DUP(00H)
	DD	00H
	DD	01H
; Function compile flags: /Ogsp
; File d:\lost saga for developer\youtube\tutorial\source\src\lsclient\iokeymarkattackbuff.cpp
xdata$x	ENDS
;	COMDAT ?SetActionState@ioKeyMarkAttackBuff@@IAEXPAVioBaseChar@@PAVioPlayStage@@@Z
_TEXT	SEGMENT
tv194 = -32812						; size = 4
_kPacket$531598 = -32808				; size = 32792
__$ArrayPad$ = -16					; size = 4
__$EHRec$ = -12						; size = 12
_pChar$ = 8						; size = 4
_pStage$ = 12						; size = 4
?SetActionState@ioKeyMarkAttackBuff@@IAEXPAVioBaseChar@@PAVioPlayStage@@@Z PROC ; ioKeyMarkAttackBuff::SetActionState, COMDAT
; _this$ = ecx

; 674  : {

  00000	55		 push	 ebp
  00001	8b ec		 mov	 ebp, esp
  00003	6a ff		 push	 -1
  00005	68 00 00 00 00	 push	 __ehhandler$?SetActionState@ioKeyMarkAttackBuff@@IAEXPAVioBaseChar@@PAVioPlayStage@@@Z
  0000a	64 a1 00 00 00
	00		 mov	 eax, DWORD PTR fs:0
  00010	50		 push	 eax
  00011	b8 20 80 00 00	 mov	 eax, 32800		; 00008020H
  00016	e8 00 00 00 00	 call	 __chkstk
  0001b	a1 00 00 00 00	 mov	 eax, DWORD PTR ___security_cookie
  00020	33 c5		 xor	 eax, ebp
  00022	89 45 f0	 mov	 DWORD PTR __$ArrayPad$[ebp], eax
  00025	53		 push	 ebx
  00026	56		 push	 esi
  00027	57		 push	 edi
  00028	50		 push	 eax
  00029	8d 45 f4	 lea	 eax, DWORD PTR __$EHRec$[ebp]
  0002c	64 a3 00 00 00
	00		 mov	 DWORD PTR fs:0, eax
  00032	8b 75 08	 mov	 esi, DWORD PTR _pChar$[ebp]
  00035	8b 5d 0c	 mov	 ebx, DWORD PTR _pStage$[ebp]
  00038	8b f9		 mov	 edi, ecx

; 675  : 	if ( !pChar || !pStage )

  0003a	85 f6		 test	 esi, esi
  0003c	0f 84 03 01 00
	00		 je	 $LN3@SetActionS
  00042	85 db		 test	 ebx, ebx
  00044	0f 84 fb 00 00
	00		 je	 $LN3@SetActionS

; 676  : 		return;
; 677  : 
; 678  : 	ioBaseChar* pTarget = pStage->GetBaseChar( m_szAttackTarget );

  0004a	8d 87 b4 0a 00
	00		 lea	 eax, DWORD PTR [edi+2740]
  00050	50		 push	 eax
  00051	8b cb		 mov	 ecx, ebx
  00053	89 85 d4 7f ff
	ff		 mov	 DWORD PTR tv194[ebp], eax
  00059	e8 00 00 00 00	 call	 ?GetBaseChar@ioPlayStage@@QAEPAVioBaseChar@@ABVioHashString@@@Z ; ioPlayStage::GetBaseChar

; 679  : 	if ( !pTarget )

  0005e	85 c0		 test	 eax, eax
  00060	0f 84 df 00 00
	00		 je	 $LN3@SetActionS

; 680  : 		return;
; 681  : 
; 682  : 	pChar->SetState( CS_BUFF_ACTION );

  00066	6a 01		 push	 1
  00068	6a 70		 push	 112			; 00000070H
  0006a	8b ce		 mov	 ecx, esi
  0006c	e8 00 00 00 00	 call	 ?SetState@ioBaseChar@@QAEXH_N@Z ; ioBaseChar::SetState

; 683  : 
; 684  : 	SetTeleport( pChar, pStage );

  00071	53		 push	 ebx
  00072	56		 push	 esi
  00073	8b cf		 mov	 ecx, edi
  00075	e8 00 00 00 00	 call	 ?SetTeleport@ioKeyMarkAttackBuff@@IAEXPAVioBaseChar@@PAVioPlayStage@@@Z ; ioKeyMarkAttackBuff::SetTeleport

; 685  : 	m_BuffState = BS_ATTACK;

  0007a	33 db		 xor	 ebx, ebx
  0007c	43		 inc	 ebx

; 686  : 
; 687  : 	const AttackAttribute& Attri = GetActionAttribute( pChar );

  0007d	56		 push	 esi
  0007e	8b cf		 mov	 ecx, edi
  00080	89 9f 6c 09 00
	00		 mov	 DWORD PTR [edi+2412], ebx
  00086	e8 00 00 00 00	 call	 ?GetActionAttribute@ioKeyMarkAttackBuff@@IAEABUAttackAttribute@@PAVioBaseChar@@@Z ; ioKeyMarkAttackBuff::GetActionAttribute

; 688  : 
; 689  : 	SetActionAni( pChar, Attri );

  0008b	50		 push	 eax
  0008c	56		 push	 esi
  0008d	8b cf		 mov	 ecx, edi
  0008f	e8 00 00 00 00	 call	 ?SetActionAni@ioKeyMarkAttackBuff@@IAEXPAVioBaseChar@@ABUAttackAttribute@@@Z ; ioKeyMarkAttackBuff::SetActionAni

; 690  : 
; 691  : 	m_iAttackCount++;

  00094	ff 87 dc 0a 00
	00		 inc	 DWORD PTR [edi+2780]

; 692  : 
; 693  : 	//
; 694  : 	if ( pChar->IsNeedSendNetwork() )

  0009a	8b 06		 mov	 eax, DWORD PTR [esi]
  0009c	8b ce		 mov	 ecx, esi
  0009e	ff 90 04 01 00
	00		 call	 DWORD PTR [eax+260]
  000a4	84 c0		 test	 al, al
  000a6	0f 84 99 00 00
	00		 je	 $LN3@SetActionS

; 695  : 	{
; 696  : 		SP2Packet kPacket( CUPK_APPLY_EXTRA_BUFF_INFO );

  000ac	68 45 42 00 00	 push	 16965			; 00004245H
  000b1	8d 8d d8 7f ff
	ff		 lea	 ecx, DWORD PTR _kPacket$531598[ebp]
  000b7	e8 00 00 00 00	 call	 ??0SP2Packet@@QAE@K@Z	; SP2Packet::SP2Packet
  000bc	83 65 fc 00	 and	 DWORD PTR __$EHRec$[ebp+8], 0

; 697  : 		kPacket << pChar->GetCharName();

  000c0	8d 86 d4 02 00
	00		 lea	 eax, DWORD PTR [esi+724]
  000c6	50		 push	 eax
  000c7	8d 8d d8 7f ff
	ff		 lea	 ecx, DWORD PTR _kPacket$531598[ebp]
  000cd	e8 00 00 00 00	 call	 ??6SP2Packet@@QAEAAV0@ABVioHashString@@@Z ; SP2Packet::operator<<

; 698  : 		kPacket << GetName();

  000d2	81 c7 34 02 00
	00		 add	 edi, 564		; 00000234H
  000d8	57		 push	 edi
  000d9	8d 8d d8 7f ff
	ff		 lea	 ecx, DWORD PTR _kPacket$531598[ebp]
  000df	e8 00 00 00 00	 call	 ??6SP2Packet@@QAEAAV0@ABVioHashString@@@Z ; SP2Packet::operator<<

; 699  : 		kPacket << static_cast<BYTE>(BST_ATTACK);

  000e4	53		 push	 ebx
  000e5	8d 8d d8 7f ff
	ff		 lea	 ecx, DWORD PTR _kPacket$531598[ebp]
  000eb	e8 00 00 00 00	 call	 ??6SP2Packet@@QAEAAV0@E@Z ; SP2Packet::operator<<

; 700  : 		kPacket << pChar->GetWorldPosition();

  000f0	8b 06		 mov	 eax, DWORD PTR [esi]
  000f2	8b ce		 mov	 ecx, esi
  000f4	ff 50 70	 call	 DWORD PTR [eax+112]
  000f7	50		 push	 eax
  000f8	8d 8d d8 7f ff
	ff		 lea	 ecx, DWORD PTR _kPacket$531598[ebp]
  000fe	e8 00 00 00 00	 call	 ??6SP2Packet@@QAEAAV0@ABUD3DXVECTOR3@@@Z ; SP2Packet::operator<<

; 701  : 		kPacket << pChar->GetTargetRot();

  00103	81 c6 a4 06 00
	00		 add	 esi, 1700		; 000006a4H
  00109	56		 push	 esi
  0010a	8d 8d d8 7f ff
	ff		 lea	 ecx, DWORD PTR _kPacket$531598[ebp]
  00110	e8 00 00 00 00	 call	 ??6SP2Packet@@QAEAAV0@ABUD3DXQUATERNION@@@Z ; SP2Packet::operator<<

; 702  : 		kPacket << m_szAttackTarget;

  00115	ff b5 d4 7f ff
	ff		 push	 DWORD PTR tv194[ebp]
  0011b	8d 8d d8 7f ff
	ff		 lea	 ecx, DWORD PTR _kPacket$531598[ebp]
  00121	e8 00 00 00 00	 call	 ??6SP2Packet@@QAEAAV0@ABVioHashString@@@Z ; SP2Packet::operator<<

; 703  : 		P2PNetwork::SendToAllPlayingUser( kPacket );

  00126	8d 85 d8 7f ff
	ff		 lea	 eax, DWORD PTR _kPacket$531598[ebp]
  0012c	6a 00		 push	 0
  0012e	50		 push	 eax
  0012f	e8 00 00 00 00	 call	 ?SendToAllPlayingUser@P2PNetwork@@YAXAAVSP2Packet@@PAVioBaseChar@@@Z ; P2PNetwork::SendToAllPlayingUser

; 704  : 	}

  00134	83 4d fc ff	 or	 DWORD PTR __$EHRec$[ebp+8], -1
  00138	59		 pop	 ecx
  00139	59		 pop	 ecx
  0013a	8d 8d d8 7f ff
	ff		 lea	 ecx, DWORD PTR _kPacket$531598[ebp]
  00140	e8 00 00 00 00	 call	 ??1SP2Packet@@UAE@XZ	; SP2Packet::~SP2Packet
$LN3@SetActionS:

; 705  : }

  00145	8b 4d f4	 mov	 ecx, DWORD PTR __$EHRec$[ebp]
  00148	64 89 0d 00 00
	00 00		 mov	 DWORD PTR fs:0, ecx
  0014f	59		 pop	 ecx
  00150	5f		 pop	 edi
  00151	5e		 pop	 esi
  00152	5b		 pop	 ebx
  00153	8b 4d f0	 mov	 ecx, DWORD PTR __$ArrayPad$[ebp]
  00156	33 cd		 xor	 ecx, ebp
  00158	e8 00 00 00 00	 call	 @__security_check_cookie@4
  0015d	c9		 leave
  0015e	c2 08 00	 ret	 8
_TEXT	ENDS
;	COMDAT text$x
text$x	SEGMENT
__unwindfunclet$?SetActionState@ioKeyMarkAttackBuff@@IAEXPAVioBaseChar@@PAVioPlayStage@@@Z$0:
  00000	8d 8d d8 7f ff
	ff		 lea	 ecx, DWORD PTR _kPacket$531598[ebp]
  00006	e9 00 00 00 00	 jmp	 ??1SP2Packet@@UAE@XZ	; SP2Packet::~SP2Packet
__ehhandler$?SetActionState@ioKeyMarkAttackBuff@@IAEXPAVioBaseChar@@PAVioPlayStage@@@Z:
  0000b	8b 54 24 08	 mov	 edx, DWORD PTR [esp+8]
  0000f	8d 42 0c	 lea	 eax, DWORD PTR [edx+12]
  00012	8b 8a d0 7f ff
	ff		 mov	 ecx, DWORD PTR [edx-32816]
  00018	33 c8		 xor	 ecx, eax
  0001a	e8 00 00 00 00	 call	 @__security_check_cookie@4
  0001f	8b 4a fc	 mov	 ecx, DWORD PTR [edx-4]
  00022	33 c8		 xor	 ecx, eax
  00024	e8 00 00 00 00	 call	 @__security_check_cookie@4
  00029	b8 00 00 00 00	 mov	 eax, OFFSET __ehfuncinfo$?SetActionState@ioKeyMarkAttackBuff@@IAEXPAVioBaseChar@@PAVioPlayStage@@@Z
  0002e	e9 00 00 00 00	 jmp	 ___CxxFrameHandler3
text$x	ENDS
?SetActionState@ioKeyMarkAttackBuff@@IAEXPAVioBaseChar@@PAVioPlayStage@@@Z ENDP ; ioKeyMarkAttackBuff::SetActionState
PUBLIC	_rkPacket$GSCopy$
EXTRN	??5SP2Packet@@QAEAAV0@AAVioHashString@@@Z:PROC	; SP2Packet::operator>>
EXTRN	?SetTargetRotAndMoveDirChange@ioBaseChar@@QAEXABUD3DXQUATERNION@@_N@Z:PROC ; ioBaseChar::SetTargetRotAndMoveDirChange
EXTRN	??5SP2Packet@@QAEAAV0@AAUD3DXQUATERNION@@@Z:PROC ; SP2Packet::operator>>
EXTRN	??5SP2Packet@@QAEAAV0@AAUD3DXVECTOR3@@@Z:PROC	; SP2Packet::operator>>
EXTRN	??5SP2Packet@@QAEAAV0@AAE@Z:PROC		; SP2Packet::operator>>
;	COMDAT xdata$x
; File c:\program files (x86)\microsoft directx sdk (june 2010)\include\d3dx9math.h
xdata$x	SEGMENT
__unwindtable$?ApplyExtraBuffInfo@ioKeyMarkAttackBuff@@UAEXAAVSP2Packet@@@Z DD 0ffffffffH
	DD	FLAT:__unwindfunclet$?ApplyExtraBuffInfo@ioKeyMarkAttackBuff@@UAEXAAVSP2Packet@@@Z$0
	DD	00H
	DD	FLAT:__unwindfunclet$?ApplyExtraBuffInfo@ioKeyMarkAttackBuff@@UAEXAAVSP2Packet@@@Z$1
	DD	01H
	DD	FLAT:__unwindfunclet$?ApplyExtraBuffInfo@ioKeyMarkAttackBuff@@UAEXAAVSP2Packet@@@Z$2
__ehfuncinfo$?ApplyExtraBuffInfo@ioKeyMarkAttackBuff@@UAEXAAVSP2Packet@@@Z DD 019930522H
	DD	03H
	DD	FLAT:__unwindtable$?ApplyExtraBuffInfo@ioKeyMarkAttackBuff@@UAEXAAVSP2Packet@@@Z
	DD	2 DUP(00H)
	DD	2 DUP(00H)
	DD	00H
	DD	01H
; Function compile flags: /Ogsp
; File d:\lost saga for developer\youtube\tutorial\source\src\lsclient\iokeymarkattackbuff.cpp
xdata$x	ENDS
;	COMDAT ?ApplyExtraBuffInfo@ioKeyMarkAttackBuff@@UAEXAAVSP2Packet@@@Z
_TEXT	SEGMENT
_qtRot$531732 = -104					; size = 16
_szTarget_S$531719 = -88				; size = 16
_szTarget_A$531718 = -72				; size = 16
_szTarget_D$531720 = -56				; size = 16
_rkPacket$GSCopy$ = -40					; size = 4
_pStage$ = -36						; size = 4
_btState$ = -29						; size = 1
_vPos$531731 = -28					; size = 12
__$EHRec$ = -12						; size = 12
_rkPacket$ = 8						; size = 4
?ApplyExtraBuffInfo@ioKeyMarkAttackBuff@@UAEXAAVSP2Packet@@@Z PROC ; ioKeyMarkAttackBuff::ApplyExtraBuffInfo, COMDAT
; _this$ = ecx

; 884  : {

  00000	6a 5c		 push	 92			; 0000005cH
  00002	b8 00 00 00 00	 mov	 eax, __ehhandler$?ApplyExtraBuffInfo@ioKeyMarkAttackBuff@@UAEXAAVSP2Packet@@@Z
  00007	e8 00 00 00 00	 call	 __EH_prolog3_GS
  0000c	8b 7d 08	 mov	 edi, DWORD PTR _rkPacket$[ebp]
  0000f	8b f1		 mov	 esi, ecx

; 928  : 					DestroyMaker( pOwner, pStage, m_dwD_MarkMapEffectID );

  00011	89 7d d8	 mov	 DWORD PTR _rkPacket$GSCopy$[ebp], edi
  00014	e8 00 00 00 00	 call	 ?GetOwner@ioBuff@@QAEPAVioBaseChar@@XZ ; ioBuff::GetOwner
  00019	8b d8		 mov	 ebx, eax
  0001b	85 db		 test	 ebx, ebx
  0001d	0f 84 d5 01 00
	00		 je	 $LN12@ApplyExtra

; 885  : 	ioBaseChar *pOwner = GetOwner();
; 886  : 	if( !pOwner )
; 887  : 		return;
; 888  : 
; 889  : 	ioPlayStage *pStage = pOwner->GetCreator();

  00023	8b 83 44 03 00
	00		 mov	 eax, DWORD PTR [ebx+836]
  00029	89 45 dc	 mov	 DWORD PTR _pStage$[ebp], eax

; 890  : 	if ( !pStage )

  0002c	85 c0		 test	 eax, eax
  0002e	0f 84 c4 01 00
	00		 je	 $LN12@ApplyExtra

; 891  : 		return;
; 892  : 
; 893  : 	BYTE btState;
; 894  : 	rkPacket >> btState;

  00034	8d 45 e3	 lea	 eax, DWORD PTR _btState$[ebp]
  00037	50		 push	 eax
  00038	8b cf		 mov	 ecx, edi
  0003a	e8 00 00 00 00	 call	 ??5SP2Packet@@QAEAAV0@AAE@Z ; SP2Packet::operator>>

; 895  : 
; 896  : 	switch( btState )

  0003f	0f b6 45 e3	 movzx	 eax, BYTE PTR _btState$[ebp]
  00043	83 e8 00	 sub	 eax, 0
  00046	74 53		 je	 SHORT $LN11@ApplyExtra
  00048	48		 dec	 eax
  00049	0f 85 a9 01 00
	00		 jne	 $LN12@ApplyExtra

; 931  : 		break;
; 932  : 	case BST_ATTACK:
; 933  : 		{
; 934  : 			D3DXVECTOR3 vPos;
; 935  : 			rkPacket >> vPos;

  0004f	8d 45 e4	 lea	 eax, DWORD PTR _vPos$531731[ebp]
  00052	50		 push	 eax
  00053	8b cf		 mov	 ecx, edi
  00055	e8 00 00 00 00	 call	 ??5SP2Packet@@QAEAAV0@AAUD3DXVECTOR3@@@Z ; SP2Packet::operator>>

; 936  : 			D3DXQUATERNION qtRot;
; 937  : 			rkPacket >> qtRot;

  0005a	8d 45 98	 lea	 eax, DWORD PTR _qtRot$531732[ebp]
  0005d	50		 push	 eax
  0005e	8b cf		 mov	 ecx, edi
  00060	e8 00 00 00 00	 call	 ??5SP2Packet@@QAEAAV0@AAUD3DXQUATERNION@@@Z ; SP2Packet::operator>>

; 938  : 
; 939  : 			pOwner->SetWorldPosition( vPos );

  00065	8b 03		 mov	 eax, DWORD PTR [ebx]
  00067	8d 4d e4	 lea	 ecx, DWORD PTR _vPos$531731[ebp]
  0006a	51		 push	 ecx
  0006b	8b cb		 mov	 ecx, ebx
  0006d	ff 50 44	 call	 DWORD PTR [eax+68]

; 940  : 			pOwner->SetTargetRotAndMoveDirChange( qtRot );

  00070	6a 00		 push	 0
  00072	8d 45 98	 lea	 eax, DWORD PTR _qtRot$531732[ebp]
  00075	50		 push	 eax
  00076	8b cb		 mov	 ecx, ebx
  00078	e8 00 00 00 00	 call	 ?SetTargetRotAndMoveDirChange@ioBaseChar@@QAEXABUD3DXQUATERNION@@_N@Z ; ioBaseChar::SetTargetRotAndMoveDirChange

; 941  : 			rkPacket >> m_szAttackTarget;

  0007d	8d 86 b4 0a 00
	00		 lea	 eax, DWORD PTR [esi+2740]
  00083	50		 push	 eax
  00084	8b cf		 mov	 ecx, edi
  00086	e8 00 00 00 00	 call	 ??5SP2Packet@@QAEAAV0@AAVioHashString@@@Z ; SP2Packet::operator>>

; 942  : 			SetActionState( pOwner, pStage );

  0008b	ff 75 dc	 push	 DWORD PTR _pStage$[ebp]
  0008e	8b ce		 mov	 ecx, esi
  00090	53		 push	 ebx
  00091	e8 00 00 00 00	 call	 ?SetActionState@ioKeyMarkAttackBuff@@IAEXPAVioBaseChar@@PAVioPlayStage@@@Z ; ioKeyMarkAttackBuff::SetActionState
  00096	e9 5d 01 00 00	 jmp	 $LN12@ApplyExtra
$LN11@ApplyExtra:

; 897  : 	{
; 898  : 	case BST_CHANGE_TARGET:
; 899  : 		{
; 900  : 			ioHashString szTarget_A,szTarget_S,szTarget_D;

  0009b	8b 3d 00 00 00
	00		 mov	 edi, DWORD PTR __imp_??0ioHashString@@QAE@XZ
  000a1	8d 4d b8	 lea	 ecx, DWORD PTR _szTarget_A$531718[ebp]
  000a4	ff d7		 call	 edi
  000a6	83 65 fc 00	 and	 DWORD PTR __$EHRec$[ebp+8], 0
  000aa	8d 4d a8	 lea	 ecx, DWORD PTR _szTarget_S$531719[ebp]
  000ad	ff d7		 call	 edi
  000af	8d 4d c8	 lea	 ecx, DWORD PTR _szTarget_D$531720[ebp]
  000b2	c6 45 fc 01	 mov	 BYTE PTR __$EHRec$[ebp+8], 1
  000b6	ff d7		 call	 edi

; 901  : 			rkPacket >> szTarget_A >> szTarget_S >> szTarget_D;

  000b8	8b 4d d8	 mov	 ecx, DWORD PTR _rkPacket$GSCopy$[ebp]
  000bb	8d 45 c8	 lea	 eax, DWORD PTR _szTarget_D$531720[ebp]
  000be	50		 push	 eax
  000bf	8d 45 a8	 lea	 eax, DWORD PTR _szTarget_S$531719[ebp]
  000c2	50		 push	 eax
  000c3	8d 45 b8	 lea	 eax, DWORD PTR _szTarget_A$531718[ebp]
  000c6	50		 push	 eax
  000c7	c6 45 fc 02	 mov	 BYTE PTR __$EHRec$[ebp+8], 2
  000cb	e8 00 00 00 00	 call	 ??5SP2Packet@@QAEAAV0@AAVioHashString@@@Z ; SP2Packet::operator>>
  000d0	8b c8		 mov	 ecx, eax
  000d2	e8 00 00 00 00	 call	 ??5SP2Packet@@QAEAAV0@AAVioHashString@@@Z ; SP2Packet::operator>>
  000d7	8b c8		 mov	 ecx, eax
  000d9	e8 00 00 00 00	 call	 ??5SP2Packet@@QAEAAV0@AAVioHashString@@@Z ; SP2Packet::operator>>

; 902  : 
; 903  : 			if ( m_szA_MarkTargetName != szTarget_A )

  000de	8d 45 b8	 lea	 eax, DWORD PTR _szTarget_A$531718[ebp]
  000e1	8d be 34 0a 00
	00		 lea	 edi, DWORD PTR [esi+2612]
  000e7	50		 push	 eax
  000e8	8b cf		 mov	 ecx, edi
  000ea	ff 15 00 00 00
	00		 call	 DWORD PTR __imp_??9ioHashString@@QBE_NABV0@@Z
  000f0	84 c0		 test	 al, al
  000f2	74 3d		 je	 SHORT $LN8@ApplyExtra

; 904  : 			{
; 905  : 				m_szA_MarkTargetName = szTarget_A;

  000f4	8d 45 b8	 lea	 eax, DWORD PTR _szTarget_A$531718[ebp]
  000f7	50		 push	 eax
  000f8	8b cf		 mov	 ecx, edi
  000fa	ff 15 00 00 00
	00		 call	 DWORD PTR __imp_??4ioHashString@@QAEAAV0@ABV0@@Z

; 906  : 				if ( !m_szA_MarkTargetName.IsEmpty() )

  00100	8b cf		 mov	 ecx, edi
  00102	ff 15 00 00 00
	00		 call	 DWORD PTR __imp_?IsEmpty@ioHashString@@QBE_NXZ
  00108	84 c0		 test	 al, al

; 907  : 					CreateMarker( pOwner, pStage, m_szA_MarkTargetName, m_szMarkEffect, m_dwA_MarkMapEffectID );

  0010a	8d 86 a4 0a 00
	00		 lea	 eax, DWORD PTR [esi+2724]
  00110	8b ce		 mov	 ecx, esi
  00112	50		 push	 eax
  00113	75 13		 jne	 SHORT $LN9@ApplyExtra
  00115	8d 86 94 0a 00
	00		 lea	 eax, DWORD PTR [esi+2708]
  0011b	50		 push	 eax
  0011c	57		 push	 edi
  0011d	ff 75 dc	 push	 DWORD PTR _pStage$[ebp]
  00120	53		 push	 ebx
  00121	e8 00 00 00 00	 call	 ?CreateMarker@ioKeyMarkAttackBuff@@IAEXPAVioBaseChar@@PAVioPlayStage@@ABVioHashString@@2AAK@Z ; ioKeyMarkAttackBuff::CreateMarker

; 908  : 				else

  00126	eb 09		 jmp	 SHORT $LN8@ApplyExtra
$LN9@ApplyExtra:

; 909  : 					DestroyMaker( pOwner, pStage, m_dwA_MarkMapEffectID );

  00128	ff 75 dc	 push	 DWORD PTR _pStage$[ebp]
  0012b	53		 push	 ebx
  0012c	e8 00 00 00 00	 call	 ?DestroyMaker@ioKeyMarkAttackBuff@@IAEXPAVioBaseChar@@PAVioPlayStage@@AAK@Z ; ioKeyMarkAttackBuff::DestroyMaker
$LN8@ApplyExtra:

; 910  : 			}
; 911  : 			if ( m_szS_MarkTargetName != szTarget_S )

  00131	8d 45 a8	 lea	 eax, DWORD PTR _szTarget_S$531719[ebp]
  00134	8d be 44 0a 00
	00		 lea	 edi, DWORD PTR [esi+2628]
  0013a	50		 push	 eax
  0013b	8b cf		 mov	 ecx, edi
  0013d	ff 15 00 00 00
	00		 call	 DWORD PTR __imp_??9ioHashString@@QBE_NABV0@@Z
  00143	84 c0		 test	 al, al
  00145	74 3d		 je	 SHORT $LN5@ApplyExtra

; 912  : 			{
; 913  : 				m_szS_MarkTargetName = szTarget_S;

  00147	8d 45 a8	 lea	 eax, DWORD PTR _szTarget_S$531719[ebp]
  0014a	50		 push	 eax
  0014b	8b cf		 mov	 ecx, edi
  0014d	ff 15 00 00 00
	00		 call	 DWORD PTR __imp_??4ioHashString@@QAEAAV0@ABV0@@Z

; 914  : 
; 915  : 				if ( !m_szS_MarkTargetName.IsEmpty() )

  00153	8b cf		 mov	 ecx, edi
  00155	ff 15 00 00 00
	00		 call	 DWORD PTR __imp_?IsEmpty@ioHashString@@QBE_NXZ
  0015b	84 c0		 test	 al, al

; 916  : 					CreateMarker( pOwner, pStage, m_szS_MarkTargetName, m_szMarkEffect, m_dwS_MarkMapEffectID );

  0015d	8d 86 a8 0a 00
	00		 lea	 eax, DWORD PTR [esi+2728]
  00163	8b ce		 mov	 ecx, esi
  00165	50		 push	 eax
  00166	75 13		 jne	 SHORT $LN6@ApplyExtra
  00168	8d 86 94 0a 00
	00		 lea	 eax, DWORD PTR [esi+2708]
  0016e	50		 push	 eax
  0016f	57		 push	 edi
  00170	ff 75 dc	 push	 DWORD PTR _pStage$[ebp]
  00173	53		 push	 ebx
  00174	e8 00 00 00 00	 call	 ?CreateMarker@ioKeyMarkAttackBuff@@IAEXPAVioBaseChar@@PAVioPlayStage@@ABVioHashString@@2AAK@Z ; ioKeyMarkAttackBuff::CreateMarker

; 917  : 				else

  00179	eb 09		 jmp	 SHORT $LN5@ApplyExtra
$LN6@ApplyExtra:

; 918  : 					DestroyMaker( pOwner, pStage, m_dwS_MarkMapEffectID );

  0017b	ff 75 dc	 push	 DWORD PTR _pStage$[ebp]
  0017e	53		 push	 ebx
  0017f	e8 00 00 00 00	 call	 ?DestroyMaker@ioKeyMarkAttackBuff@@IAEXPAVioBaseChar@@PAVioPlayStage@@AAK@Z ; ioKeyMarkAttackBuff::DestroyMaker
$LN5@ApplyExtra:

; 919  : 
; 920  : 			}
; 921  : 			if ( m_szD_MarkTargetName != szTarget_D )

  00184	8d 45 c8	 lea	 eax, DWORD PTR _szTarget_D$531720[ebp]
  00187	8d be 54 0a 00
	00		 lea	 edi, DWORD PTR [esi+2644]
  0018d	50		 push	 eax
  0018e	8b cf		 mov	 ecx, edi
  00190	ff 15 00 00 00
	00		 call	 DWORD PTR __imp_??9ioHashString@@QBE_NABV0@@Z
  00196	84 c0		 test	 al, al
  00198	74 3d		 je	 SHORT $LN2@ApplyExtra

; 922  : 			{
; 923  : 				m_szD_MarkTargetName = szTarget_D;

  0019a	8d 45 c8	 lea	 eax, DWORD PTR _szTarget_D$531720[ebp]
  0019d	50		 push	 eax
  0019e	8b cf		 mov	 ecx, edi
  001a0	ff 15 00 00 00
	00		 call	 DWORD PTR __imp_??4ioHashString@@QAEAAV0@ABV0@@Z

; 924  : 
; 925  : 				if ( !m_szD_MarkTargetName.IsEmpty() )

  001a6	8b cf		 mov	 ecx, edi
  001a8	ff 15 00 00 00
	00		 call	 DWORD PTR __imp_?IsEmpty@ioHashString@@QBE_NXZ
  001ae	84 c0		 test	 al, al

; 926  : 					CreateMarker( pOwner, pStage, m_szD_MarkTargetName, m_szMarkEffect, m_dwD_MarkMapEffectID );

  001b0	8d 86 ac 0a 00
	00		 lea	 eax, DWORD PTR [esi+2732]
  001b6	8b ce		 mov	 ecx, esi
  001b8	50		 push	 eax
  001b9	75 13		 jne	 SHORT $LN3@ApplyExtra
  001bb	8d 86 94 0a 00
	00		 lea	 eax, DWORD PTR [esi+2708]
  001c1	50		 push	 eax
  001c2	57		 push	 edi
  001c3	ff 75 dc	 push	 DWORD PTR _pStage$[ebp]
  001c6	53		 push	 ebx
  001c7	e8 00 00 00 00	 call	 ?CreateMarker@ioKeyMarkAttackBuff@@IAEXPAVioBaseChar@@PAVioPlayStage@@ABVioHashString@@2AAK@Z ; ioKeyMarkAttackBuff::CreateMarker

; 927  : 				else

  001cc	eb 09		 jmp	 SHORT $LN2@ApplyExtra
$LN3@ApplyExtra:

; 928  : 					DestroyMaker( pOwner, pStage, m_dwD_MarkMapEffectID );

  001ce	ff 75 dc	 push	 DWORD PTR _pStage$[ebp]
  001d1	53		 push	 ebx
  001d2	e8 00 00 00 00	 call	 ?DestroyMaker@ioKeyMarkAttackBuff@@IAEXPAVioBaseChar@@PAVioPlayStage@@AAK@Z ; ioKeyMarkAttackBuff::DestroyMaker
$LN2@ApplyExtra:

; 929  : 			}
; 930  : 		}

  001d7	8b 35 00 00 00
	00		 mov	 esi, DWORD PTR __imp_??1ioHashString@@QAE@XZ
  001dd	8d 4d c8	 lea	 ecx, DWORD PTR _szTarget_D$531720[ebp]
  001e0	c6 45 fc 01	 mov	 BYTE PTR __$EHRec$[ebp+8], 1
  001e4	ff d6		 call	 esi
  001e6	8d 4d a8	 lea	 ecx, DWORD PTR _szTarget_S$531719[ebp]
  001e9	c6 45 fc 00	 mov	 BYTE PTR __$EHRec$[ebp+8], 0
  001ed	ff d6		 call	 esi
  001ef	83 4d fc ff	 or	 DWORD PTR __$EHRec$[ebp+8], -1
  001f3	8d 4d b8	 lea	 ecx, DWORD PTR _szTarget_A$531718[ebp]
  001f6	ff d6		 call	 esi
$LN12@ApplyExtra:

; 943  : 		}
; 944  : 	}
; 945  : }

  001f8	e8 00 00 00 00	 call	 __EH_epilog3_GS
  001fd	c2 04 00	 ret	 4
_TEXT	ENDS
;	COMDAT text$x
text$x	SEGMENT
__unwindfunclet$?ApplyExtraBuffInfo@ioKeyMarkAttackBuff@@UAEXAAVSP2Packet@@@Z$0:
  00000	8d 4d b8	 lea	 ecx, DWORD PTR _szTarget_A$531718[ebp]
  00003	ff 25 00 00 00
	00		 jmp	 DWORD PTR __imp_??1ioHashString@@QAE@XZ
__unwindfunclet$?ApplyExtraBuffInfo@ioKeyMarkAttackBuff@@UAEXAAVSP2Packet@@@Z$1:
  00009	8d 4d a8	 lea	 ecx, DWORD PTR _szTarget_S$531719[ebp]
  0000c	ff 25 00 00 00
	00		 jmp	 DWORD PTR __imp_??1ioHashString@@QAE@XZ
__unwindfunclet$?ApplyExtraBuffInfo@ioKeyMarkAttackBuff@@UAEXAAVSP2Packet@@@Z$2:
  00012	8d 4d c8	 lea	 ecx, DWORD PTR _szTarget_D$531720[ebp]
  00015	ff 25 00 00 00
	00		 jmp	 DWORD PTR __imp_??1ioHashString@@QAE@XZ
__ehhandler$?ApplyExtraBuffInfo@ioKeyMarkAttackBuff@@UAEXAAVSP2Packet@@@Z:
  0001b	8b 54 24 08	 mov	 edx, DWORD PTR [esp+8]
  0001f	8d 42 0c	 lea	 eax, DWORD PTR [edx+12]
  00022	8b 4a 94	 mov	 ecx, DWORD PTR [edx-108]
  00025	33 c8		 xor	 ecx, eax
  00027	e8 00 00 00 00	 call	 @__security_check_cookie@4
  0002c	8b 4a fc	 mov	 ecx, DWORD PTR [edx-4]
  0002f	33 c8		 xor	 ecx, eax
  00031	e8 00 00 00 00	 call	 @__security_check_cookie@4
  00036	b8 00 00 00 00	 mov	 eax, OFFSET __ehfuncinfo$?ApplyExtraBuffInfo@ioKeyMarkAttackBuff@@UAEXAAVSP2Packet@@@Z
  0003b	e9 00 00 00 00	 jmp	 ___CxxFrameHandler3
text$x	ENDS
?ApplyExtraBuffInfo@ioKeyMarkAttackBuff@@UAEXAAVSP2Packet@@@Z ENDP ; ioKeyMarkAttackBuff::ApplyExtraBuffInfo
; Function compile flags: /Ogsp
;	COMDAT ?ProcessBuff@ioKeyMarkAttackBuff@@UAEXM@Z
_TEXT	SEGMENT
_fTimePerSec$ = 8					; size = 4
?ProcessBuff@ioKeyMarkAttackBuff@@UAEXM@Z PROC		; ioKeyMarkAttackBuff::ProcessBuff, COMDAT
; _this$ = ecx

; 127  : {

  00000	55		 push	 ebp
  00001	8b ec		 mov	 ebp, esp
  00003	56		 push	 esi
  00004	57		 push	 edi
  00005	8b f1		 mov	 esi, ecx

; 128  : 	if ( !CheckOwnerState() )

  00007	e8 00 00 00 00	 call	 ?CheckOwnerState@ioKeyMarkAttackBuff@@IAE_NXZ ; ioKeyMarkAttackBuff::CheckOwnerState
  0000c	84 c0		 test	 al, al
  0000e	75 0c		 jne	 SHORT $LN12@ProcessBuf

; 129  : 	{
; 130  : 		SetReserveEndBuff();

  00010	8b ce		 mov	 ecx, esi
  00012	e8 00 00 00 00	 call	 ?SetReserveEndBuff@ioBuff@@QAEXXZ ; ioBuff::SetReserveEndBuff

; 131  : 		return;

  00017	e9 12 01 00 00	 jmp	 $LN4@ProcessBuf
$LN12@ProcessBuf:

; 132  : 	}
; 133  : 
; 134  : 	ioPlayStage *pStage = m_pOwner->GetCreator();

  0001c	8b 86 74 02 00
	00		 mov	 eax, DWORD PTR [esi+628]
  00022	53		 push	 ebx
  00023	8b 98 44 03 00
	00		 mov	 ebx, DWORD PTR [eax+836]

; 135  : 	if ( !pStage )

  00029	85 db		 test	 ebx, ebx
  0002b	75 0c		 jne	 SHORT $LN11@ProcessBuf

; 136  : 	{
; 137  : 		SetReserveEndBuff();

  0002d	8b ce		 mov	 ecx, esi
  0002f	e8 00 00 00 00	 call	 ?SetReserveEndBuff@ioBuff@@QAEXXZ ; ioBuff::SetReserveEndBuff

; 138  : 		return;

  00034	e9 f4 00 00 00	 jmp	 $LN17@ProcessBuf
$LN11@ProcessBuf:

; 139  : 	}
; 140  : 
; 141  : 	if ( !CheckOperation( m_pOwner, fTimePerSec ) )

  00039	f3 0f 10 45 08	 movss	 xmm0, DWORD PTR _fTimePerSec$[ebp]
  0003e	51		 push	 ecx
  0003f	f3 0f 11 04 24	 movss	 DWORD PTR [esp], xmm0
  00044	50		 push	 eax
  00045	8b ce		 mov	 ecx, esi
  00047	e8 00 00 00 00	 call	 ?CheckOperation@ioKeyMarkAttackBuff@@IAE_NPAVioBaseChar@@M@Z ; ioKeyMarkAttackBuff::CheckOperation
  0004c	84 c0		 test	 al, al
  0004e	0f 84 d9 00 00
	00		 je	 $LN17@ProcessBuf

; 142  : 		return;
; 143  : 
; 144  : 	switch( m_BuffState )

  00054	8b 86 6c 09 00
	00		 mov	 eax, DWORD PTR [esi+2412]
  0005a	83 e8 00	 sub	 eax, 0
  0005d	74 5c		 je	 SHORT $LN7@ProcessBuf
  0005f	48		 dec	 eax
  00060	0f 85 c7 00 00
	00		 jne	 $LN17@ProcessBuf

; 155  : 				break;
; 156  : 			}
; 157  : 		}
; 158  : 		break;
; 159  : 	case BS_ATTACK:
; 160  : 		{
; 161  : 			if ( m_dwMotionEndTime > 0 && m_dwMotionEndTime < FRAMEGETTIME() )

  00066	39 86 e4 0a 00
	00		 cmp	 DWORD PTR [esi+2788], eax
  0006c	76 3d		 jbe	 SHORT $LN2@ProcessBuf
  0006e	ff 15 00 00 00
	00		 call	 DWORD PTR __imp_?GetSingleton@ioFrameTimer@@SAAAV1@XZ
  00074	8b c8		 mov	 ecx, eax
  00076	ff 15 00 00 00
	00		 call	 DWORD PTR __imp_?GetLoopSec@ioFrameTimer@@QBEKXZ
  0007c	39 86 e4 0a 00
	00		 cmp	 DWORD PTR [esi+2788], eax
  00082	73 27		 jae	 SHORT $LN2@ProcessBuf

; 162  : 			{
; 163  : 				if ( m_iAttakMaxCount <= m_iAttackCount )

  00084	8b 86 e0 0a 00
	00		 mov	 eax, DWORD PTR [esi+2784]
  0008a	3b 86 dc 0a 00
	00		 cmp	 eax, DWORD PTR [esi+2780]
  00090	7f 07		 jg	 SHORT $LN1@ProcessBuf

; 164  : 					SetReserveEndBuff();

  00092	8b ce		 mov	 ecx, esi
  00094	e8 00 00 00 00	 call	 ?SetReserveEndBuff@ioBuff@@QAEXXZ ; ioBuff::SetReserveEndBuff
$LN1@ProcessBuf:

; 165  : 				SetActionEndState( m_pOwner );

  00099	ff b6 74 02 00
	00		 push	 DWORD PTR [esi+628]
  0009f	8b ce		 mov	 ecx, esi
  000a1	e8 00 00 00 00	 call	 ?SetActionEndState@ioKeyMarkAttackBuff@@IAEXPAVioBaseChar@@@Z ; ioKeyMarkAttackBuff::SetActionEndState

; 166  : 				break;

  000a6	e9 82 00 00 00	 jmp	 $LN17@ProcessBuf
$LN2@ProcessBuf:

; 167  : 			}
; 168  : 			UpdateMark( m_pOwner, pStage );

  000ab	53		 push	 ebx
  000ac	ff b6 74 02 00
	00		 push	 DWORD PTR [esi+628]
  000b2	8b ce		 mov	 ecx, esi
  000b4	e8 00 00 00 00	 call	 ?UpdateMark@ioKeyMarkAttackBuff@@IAEXPAVioBaseChar@@PAVioPlayStage@@@Z ; ioKeyMarkAttackBuff::UpdateMark

; 169  : 		}
; 170  : 		break;

  000b9	eb 72		 jmp	 SHORT $LN17@ProcessBuf
$LN7@ProcessBuf:

; 145  : 	{
; 146  : 	case BS_LOOP:
; 147  : 		{
; 148  : 			if ( !m_bFindTargetOnlyFirstLoop || m_iAttackCount == 0 )

  000bb	80 be b0 0a 00
	00 00		 cmp	 BYTE PTR [esi+2736], 0
  000c2	74 09		 je	 SHORT $LN5@ProcessBuf
  000c4	83 be dc 0a 00
	00 00		 cmp	 DWORD PTR [esi+2780], 0
  000cb	75 0e		 jne	 SHORT $LN6@ProcessBuf
$LN5@ProcessBuf:

; 149  : 				FindTarget( m_pOwner, pStage );

  000cd	53		 push	 ebx
  000ce	ff b6 74 02 00
	00		 push	 DWORD PTR [esi+628]
  000d4	8b ce		 mov	 ecx, esi
  000d6	e8 00 00 00 00	 call	 ?FindTarget@ioKeyMarkAttackBuff@@IAEXPAVioBaseChar@@PAVioPlayStage@@@Z ; ioKeyMarkAttackBuff::FindTarget
$LN6@ProcessBuf:

; 150  : 			UpdateMark( m_pOwner, pStage );

  000db	53		 push	 ebx
  000dc	ff b6 74 02 00
	00		 push	 DWORD PTR [esi+628]
  000e2	8b ce		 mov	 ecx, esi
  000e4	e8 00 00 00 00	 call	 ?UpdateMark@ioKeyMarkAttackBuff@@IAEXPAVioBaseChar@@PAVioPlayStage@@@Z ; ioKeyMarkAttackBuff::UpdateMark

; 151  : 
; 152  : 			if ( m_pOwner->IsNeedProcess() && CheckInputKey( m_pOwner, pStage ) && CheckEnableAttackState( m_pOwner, pStage ) )

  000e9	8b 8e 74 02 00
	00		 mov	 ecx, DWORD PTR [esi+628]
  000ef	8b 01		 mov	 eax, DWORD PTR [ecx]
  000f1	ff 90 00 01 00
	00		 call	 DWORD PTR [eax+256]
  000f7	84 c0		 test	 al, al
  000f9	74 32		 je	 SHORT $LN17@ProcessBuf
  000fb	53		 push	 ebx
  000fc	ff b6 74 02 00
	00		 push	 DWORD PTR [esi+628]
  00102	8b ce		 mov	 ecx, esi
  00104	e8 00 00 00 00	 call	 ?CheckInputKey@ioKeyMarkAttackBuff@@IAE_NPAVioBaseChar@@PAVioPlayStage@@@Z ; ioKeyMarkAttackBuff::CheckInputKey
  00109	84 c0		 test	 al, al
  0010b	74 20		 je	 SHORT $LN17@ProcessBuf
  0010d	53		 push	 ebx
  0010e	ff b6 74 02 00
	00		 push	 DWORD PTR [esi+628]
  00114	8b ce		 mov	 ecx, esi
  00116	e8 00 00 00 00	 call	 ?CheckEnableAttackState@ioKeyMarkAttackBuff@@IAE_NPAVioBaseChar@@PAVioPlayStage@@@Z ; ioKeyMarkAttackBuff::CheckEnableAttackState
  0011b	84 c0		 test	 al, al
  0011d	74 0e		 je	 SHORT $LN17@ProcessBuf

; 153  : 			{
; 154  : 				SetActionState( m_pOwner, pStage );

  0011f	53		 push	 ebx
  00120	ff b6 74 02 00
	00		 push	 DWORD PTR [esi+628]
  00126	8b ce		 mov	 ecx, esi
  00128	e8 00 00 00 00	 call	 ?SetActionState@ioKeyMarkAttackBuff@@IAEXPAVioBaseChar@@PAVioPlayStage@@@Z ; ioKeyMarkAttackBuff::SetActionState
$LN17@ProcessBuf:
  0012d	5b		 pop	 ebx
$LN4@ProcessBuf:
  0012e	5f		 pop	 edi
  0012f	5e		 pop	 esi

; 171  : 	}
; 172  : }

  00130	5d		 pop	 ebp
  00131	c2 04 00	 ret	 4
?ProcessBuff@ioKeyMarkAttackBuff@@UAEXM@Z ENDP		; ioKeyMarkAttackBuff::ProcessBuff
; Function compile flags: /Ogsp
_TEXT	ENDS
;	COMDAT ??__Fattri@?1??GetActionAttribute@ioKeyMarkAttackBuff@@IAEABUAttackAttribute@@PAVioBaseChar@@@Z@YAXXZ
text$yd	SEGMENT
??__Fattri@?1??GetActionAttribute@ioKeyMarkAttackBuff@@IAEABUAttackAttribute@@PAVioBaseChar@@@Z@YAXXZ PROC ; `ioKeyMarkAttackBuff::GetActionAttribute'::`2'::`dynamic atexit destructor for 'attri'', COMDAT
  00000	b9 00 00 00 00	 mov	 ecx, OFFSET ?attri@?1??GetActionAttribute@ioKeyMarkAttackBuff@@IAEABUAttackAttribute@@PAVioBaseChar@@@Z@4U3@A
  00005	e9 00 00 00 00	 jmp	 ??1AttackAttribute@@QAE@XZ
??__Fattri@?1??GetActionAttribute@ioKeyMarkAttackBuff@@IAEABUAttackAttribute@@PAVioBaseChar@@@Z@YAXXZ ENDP ; `ioKeyMarkAttackBuff::GetActionAttribute'::`2'::`dynamic atexit destructor for 'attri''
text$yd	ENDS
END
