; Listing generated by Microsoft (R) Optimizing Compiler Version 16.00.30319.01 

	TITLE	D:\Lost Saga For Developer\Youtube\Tutorial\Source\src\LSClient\ioKisaragiJump.cpp
	.686P
	.XMM
	include listing.inc
	.model	flat

INCLUDELIB MSVCRT
INCLUDELIB OLDNAMES

PUBLIC	?return1@@YAIXZ					; return1
; Function compile flags: /Ogsp
; File d:\lost saga for developer\youtube\tutorial\source\src\lsclient\stdafx.h
;	COMDAT ?return1@@YAIXZ
_TEXT	SEGMENT
?return1@@YAIXZ PROC					; return1, COMDAT

; 17   : 	__forceinline unsigned int return1() { __asm mov eax, 1 };

  00000	b8 01 00 00 00	 mov	 eax, 1
  00005	c3		 ret	 0
?return1@@YAIXZ ENDP					; return1
_TEXT	ENDS
PUBLIC	?return5@@YAIXZ					; return5
; Function compile flags: /Ogsp
;	COMDAT ?return5@@YAIXZ
_TEXT	SEGMENT
?return5@@YAIXZ PROC					; return5, COMDAT

; 18   : 	__forceinline unsigned int return5() { __asm mov eax, 5 };

  00000	b8 05 00 00 00	 mov	 eax, 5
  00005	c3		 ret	 0
?return5@@YAIXZ ENDP					; return5
_TEXT	ENDS
PUBLIC	?return10@@YAIXZ				; return10
; Function compile flags: /Ogsp
;	COMDAT ?return10@@YAIXZ
_TEXT	SEGMENT
?return10@@YAIXZ PROC					; return10, COMDAT

; 21   : 	__forceinline unsigned int return10() { __asm mov eax, 10 };

  00000	b8 0a 00 00 00	 mov	 eax, 10			; 0000000aH
  00005	c3		 ret	 0
?return10@@YAIXZ ENDP					; return10
_TEXT	ENDS
PUBLIC	?return90@@YAIXZ				; return90
; Function compile flags: /Ogsp
;	COMDAT ?return90@@YAIXZ
_TEXT	SEGMENT
?return90@@YAIXZ PROC					; return90, COMDAT

; 24   : 	__forceinline unsigned int return90() { __asm mov eax, 90 };

  00000	b8 5a 00 00 00	 mov	 eax, 90			; 0000005aH
  00005	c3		 ret	 0
?return90@@YAIXZ ENDP					; return90
_TEXT	ENDS
PUBLIC	?return100@@YAIXZ				; return100
; Function compile flags: /Ogsp
;	COMDAT ?return100@@YAIXZ
_TEXT	SEGMENT
?return100@@YAIXZ PROC					; return100, COMDAT

; 25   : 	__forceinline unsigned int return100() { __asm mov eax, 100 };

  00000	b8 64 00 00 00	 mov	 eax, 100		; 00000064H
  00005	c3		 ret	 0
?return100@@YAIXZ ENDP					; return100
_TEXT	ENDS
PUBLIC	?return360@@YAIXZ				; return360
; Function compile flags: /Ogsp
;	COMDAT ?return360@@YAIXZ
_TEXT	SEGMENT
?return360@@YAIXZ PROC					; return360, COMDAT

; 27   : 	__forceinline unsigned int return360() { __asm mov eax, 360 };

  00000	b8 68 01 00 00	 mov	 eax, 360		; 00000168H
  00005	c3		 ret	 0
?return360@@YAIXZ ENDP					; return360
_TEXT	ENDS
PUBLIC	?IsCatchMode@ioBaseChar@@QBE_NXZ		; ioBaseChar::IsCatchMode
; Function compile flags: /Ogsp
; File d:\lost saga for developer\youtube\tutorial\source\src\lsclient\iobasechar.h
;	COMDAT ?IsCatchMode@ioBaseChar@@QBE_NXZ
_TEXT	SEGMENT
?IsCatchMode@ioBaseChar@@QBE_NXZ PROC			; ioBaseChar::IsCatchMode, COMDAT
; _this$ = ecx

; 2131 : 	inline bool IsCatchMode() const { return m_bCatchState; }

  00000	8a 81 78 23 00
	00		 mov	 al, BYTE PTR [ecx+9080]
  00006	c3		 ret	 0
?IsCatchMode@ioBaseChar@@QBE_NXZ ENDP			; ioBaseChar::IsCatchMode
_TEXT	ENDS
PUBLIC	?GetActionStopTotalDelay@ioBaseChar@@QBEKXZ	; ioBaseChar::GetActionStopTotalDelay
; Function compile flags: /Ogsp
;	COMDAT ?GetActionStopTotalDelay@ioBaseChar@@QBEKXZ
_TEXT	SEGMENT
?GetActionStopTotalDelay@ioBaseChar@@QBEKXZ PROC	; ioBaseChar::GetActionStopTotalDelay, COMDAT
; _this$ = ecx

; 2399 : 	DWORD GetActionStopTotalDelay() const { return m_dwActionStopTotalDelay; }	// kaseton : action delay

  00000	8b 81 b8 15 00
	00		 mov	 eax, DWORD PTR [ecx+5560]
  00006	c3		 ret	 0
?GetActionStopTotalDelay@ioBaseChar@@QBEKXZ ENDP	; ioBaseChar::GetActionStopTotalDelay
_TEXT	ENDS
PUBLIC	?GetCharName@ioBaseChar@@QBEABVioHashString@@XZ	; ioBaseChar::GetCharName
; Function compile flags: /Ogsp
;	COMDAT ?GetCharName@ioBaseChar@@QBEABVioHashString@@XZ
_TEXT	SEGMENT
?GetCharName@ioBaseChar@@QBEABVioHashString@@XZ PROC	; ioBaseChar::GetCharName, COMDAT
; _this$ = ecx

; 2594 : 	inline const ioHashString& GetCharName() const { return m_Name; }

  00000	8d 81 d4 02 00
	00		 lea	 eax, DWORD PTR [ecx+724]
  00006	c3		 ret	 0
?GetCharName@ioBaseChar@@QBEABVioHashString@@XZ ENDP	; ioBaseChar::GetCharName
_TEXT	ENDS
PUBLIC	?GetMoveDir@ioBaseChar@@QBEABUD3DXVECTOR3@@XZ	; ioBaseChar::GetMoveDir
; Function compile flags: /Ogsp
;	COMDAT ?GetMoveDir@ioBaseChar@@QBEABUD3DXVECTOR3@@XZ
_TEXT	SEGMENT
?GetMoveDir@ioBaseChar@@QBEABUD3DXVECTOR3@@XZ PROC	; ioBaseChar::GetMoveDir, COMDAT
; _this$ = ecx

; 2596 : 	inline const D3DXVECTOR3& GetMoveDir() const { return m_vMoveDir; }

  00000	8d 81 b4 06 00
	00		 lea	 eax, DWORD PTR [ecx+1716]
  00006	c3		 ret	 0
?GetMoveDir@ioBaseChar@@QBEABUD3DXVECTOR3@@XZ ENDP	; ioBaseChar::GetMoveDir
_TEXT	ENDS
PUBLIC	?GetTargetRot@ioBaseChar@@QBEABUD3DXQUATERNION@@XZ ; ioBaseChar::GetTargetRot
; Function compile flags: /Ogsp
;	COMDAT ?GetTargetRot@ioBaseChar@@QBEABUD3DXQUATERNION@@XZ
_TEXT	SEGMENT
?GetTargetRot@ioBaseChar@@QBEABUD3DXQUATERNION@@XZ PROC	; ioBaseChar::GetTargetRot, COMDAT
; _this$ = ecx

; 2599 : 	inline const D3DXQUATERNION& GetTargetRot() const { return m_qtTargetRot; }

  00000	8d 81 a4 06 00
	00		 lea	 eax, DWORD PTR [ecx+1700]
  00006	c3		 ret	 0
?GetTargetRot@ioBaseChar@@QBEABUD3DXQUATERNION@@XZ ENDP	; ioBaseChar::GetTargetRot
_TEXT	ENDS
PUBLIC	?GetUsedJumpAttack@ioBaseChar@@QBE_NXZ		; ioBaseChar::GetUsedJumpAttack
; Function compile flags: /Ogsp
;	COMDAT ?GetUsedJumpAttack@ioBaseChar@@QBE_NXZ
_TEXT	SEGMENT
?GetUsedJumpAttack@ioBaseChar@@QBE_NXZ PROC		; ioBaseChar::GetUsedJumpAttack, COMDAT
; _this$ = ecx

; 2617 : 	inline bool GetUsedJumpAttack() const { return m_bUsedJumpAttack; }

  00000	8a 81 98 0e 00
	00		 mov	 al, BYTE PTR [ecx+3736]
  00006	c3		 ret	 0
?GetUsedJumpAttack@ioBaseChar@@QBE_NXZ ENDP		; ioBaseChar::GetUsedJumpAttack
_TEXT	ENDS
PUBLIC	?GetUsedBuffJump@ioBaseChar@@QBEHXZ		; ioBaseChar::GetUsedBuffJump
; Function compile flags: /Ogsp
;	COMDAT ?GetUsedBuffJump@ioBaseChar@@QBEHXZ
_TEXT	SEGMENT
?GetUsedBuffJump@ioBaseChar@@QBEHXZ PROC		; ioBaseChar::GetUsedBuffJump, COMDAT
; _this$ = ecx

; 2622 : 	inline int GetUsedBuffJump() const { return m_UsedBuffJump; }

  00000	8b 81 ac 0e 00
	00		 mov	 eax, DWORD PTR [ecx+3756]
  00006	c3		 ret	 0
?GetUsedBuffJump@ioBaseChar@@QBEHXZ ENDP		; ioBaseChar::GetUsedBuffJump
_TEXT	ENDS
PUBLIC	?GetUsedBuffFlyJump@ioBaseChar@@QBEHXZ		; ioBaseChar::GetUsedBuffFlyJump
; Function compile flags: /Ogsp
;	COMDAT ?GetUsedBuffFlyJump@ioBaseChar@@QBEHXZ
_TEXT	SEGMENT
?GetUsedBuffFlyJump@ioBaseChar@@QBEHXZ PROC		; ioBaseChar::GetUsedBuffFlyJump, COMDAT
; _this$ = ecx

; 2623 : 	inline int GetUsedBuffFlyJump() const { return m_UsedBuffFlyJump; }

  00000	8b 81 b0 0e 00
	00		 mov	 eax, DWORD PTR [ecx+3760]
  00006	c3		 ret	 0
?GetUsedBuffFlyJump@ioBaseChar@@QBEHXZ ENDP		; ioBaseChar::GetUsedBuffFlyJump
_TEXT	ENDS
PUBLIC	_fabsf
EXTRN	__fltused:DWORD
; Function compile flags: /Ogsp
; File c:\program files (x86)\microsoft visual studio 10.0\vc\include\math.h
;	COMDAT _fabsf
_TEXT	SEGMENT
tv129 = 8						; size = 4
__X$ = 8						; size = 4
_fabsf	PROC						; COMDAT

; 395  :         {return ((float)fabs((double)_X)); }

  00000	55		 push	 ebp
  00001	8b ec		 mov	 ebp, esp
  00003	d9 45 08	 fld	 DWORD PTR __X$[ebp]
  00006	d9 e1		 fabs
  00008	d9 5d 08	 fstp	 DWORD PTR tv129[ebp]
  0000b	d9 45 08	 fld	 DWORD PTR tv129[ebp]
  0000e	5d		 pop	 ebp
  0000f	c3		 ret	 0
_fabsf	ENDP
_TEXT	ENDS
PUBLIC	?GetUsedBuffMultiFlyJump@ioBaseChar@@QBEHXZ	; ioBaseChar::GetUsedBuffMultiFlyJump
; Function compile flags: /Ogsp
; File d:\lost saga for developer\youtube\tutorial\source\src\lsclient\iobasechar.h
;	COMDAT ?GetUsedBuffMultiFlyJump@ioBaseChar@@QBEHXZ
_TEXT	SEGMENT
?GetUsedBuffMultiFlyJump@ioBaseChar@@QBEHXZ PROC	; ioBaseChar::GetUsedBuffMultiFlyJump, COMDAT
; _this$ = ecx

; 2624 : 	inline int GetUsedBuffMultiFlyJump() const { return m_UsedBuffMultiFlyJump; }

  00000	8b 81 b4 0e 00
	00		 mov	 eax, DWORD PTR [ecx+3764]
  00006	c3		 ret	 0
?GetUsedBuffMultiFlyJump@ioBaseChar@@QBEHXZ ENDP	; ioBaseChar::GetUsedBuffMultiFlyJump
_TEXT	ENDS
PUBLIC	?GetJumpMoveStartTime@ioBaseChar@@QAEKXZ	; ioBaseChar::GetJumpMoveStartTime
; Function compile flags: /Ogsp
;	COMDAT ?GetJumpMoveStartTime@ioBaseChar@@QAEKXZ
_TEXT	SEGMENT
?GetJumpMoveStartTime@ioBaseChar@@QAEKXZ PROC		; ioBaseChar::GetJumpMoveStartTime, COMDAT
; _this$ = ecx

; 2625 : 	inline DWORD GetJumpMoveStartTime() { return m_dwJumpMoveStartTime; }

  00000	8b 81 80 0e 00
	00		 mov	 eax, DWORD PTR [ecx+3712]
  00006	c3		 ret	 0
?GetJumpMoveStartTime@ioBaseChar@@QAEKXZ ENDP		; ioBaseChar::GetJumpMoveStartTime
_TEXT	ENDS
PUBLIC	?SetCurJumpPowerAmt@ioBaseChar@@QAEXM@Z		; ioBaseChar::SetCurJumpPowerAmt
; Function compile flags: /Ogsp
;	COMDAT ?SetCurJumpPowerAmt@ioBaseChar@@QAEXM@Z
_TEXT	SEGMENT
_fAmt$ = 8						; size = 4
?SetCurJumpPowerAmt@ioBaseChar@@QAEXM@Z PROC		; ioBaseChar::SetCurJumpPowerAmt, COMDAT
; _this$ = ecx

; 2628 : 	inline void SetCurJumpPowerAmt( float fAmt ) { m_fCurJumpPowerAmt = fAmt; }

  00000	55		 push	 ebp
  00001	8b ec		 mov	 ebp, esp
  00003	f3 0f 10 45 08	 movss	 xmm0, DWORD PTR _fAmt$[ebp]
  00008	f3 0f 11 81 90
	0e 00 00	 movss	 DWORD PTR [ecx+3728], xmm0
  00010	5d		 pop	 ebp
  00011	c2 04 00	 ret	 4
?SetCurJumpPowerAmt@ioBaseChar@@QAEXM@Z ENDP		; ioBaseChar::SetCurJumpPowerAmt
_TEXT	ENDS
PUBLIC	?fabs@@YAMM@Z					; fabs
; Function compile flags: /Ogsp
; File c:\program files (x86)\microsoft visual studio 10.0\vc\include\math.h
;	COMDAT ?fabs@@YAMM@Z
_TEXT	SEGMENT
tv131 = 8						; size = 4
__X$ = 8						; size = 4
?fabs@@YAMM@Z PROC					; fabs, COMDAT

; 518  :         {return (fabsf(_X)); }

  00000	55		 push	 ebp
  00001	8b ec		 mov	 ebp, esp
  00003	d9 45 08	 fld	 DWORD PTR __X$[ebp]
  00006	d9 e1		 fabs
  00008	d9 5d 08	 fstp	 DWORD PTR tv131[ebp]
  0000b	d9 45 08	 fld	 DWORD PTR tv131[ebp]
  0000e	5d		 pop	 ebp
  0000f	c3		 ret	 0
?fabs@@YAMM@Z ENDP					; fabs
_TEXT	ENDS
PUBLIC	?IsDirKeyDoubleClick@ioBaseChar@@QBE_NXZ	; ioBaseChar::IsDirKeyDoubleClick
EXTRN	?IsDirDoubleClick@ioUserKeyInput@@QBE_NXZ:PROC	; ioUserKeyInput::IsDirDoubleClick
; Function compile flags: /Ogsp
; File d:\lost saga for developer\youtube\tutorial\source\src\lsclient\iobasechar.h
;	COMDAT ?IsDirKeyDoubleClick@ioBaseChar@@QBE_NXZ
_TEXT	SEGMENT
?IsDirKeyDoubleClick@ioBaseChar@@QBE_NXZ PROC		; ioBaseChar::IsDirKeyDoubleClick, COMDAT
; _this$ = ecx

; 3398 : 	bool IsDirKeyDoubleClick() const { return m_KeyInput.IsDirDoubleClick(); }

  00000	81 c1 80 0c 00
	00		 add	 ecx, 3200		; 00000c80H
  00006	e9 00 00 00 00	 jmp	 ?IsDirDoubleClick@ioUserKeyInput@@QBE_NXZ ; ioUserKeyInput::IsDirDoubleClick
?IsDirKeyDoubleClick@ioBaseChar@@QBE_NXZ ENDP		; ioBaseChar::IsDirKeyDoubleClick
_TEXT	ENDS
PUBLIC	??_7bad_alloc@std@@6B@				; std::bad_alloc::`vftable'
PUBLIC	??0bad_alloc@std@@QAE@PBD@Z			; std::bad_alloc::bad_alloc
PUBLIC	??_R4bad_alloc@std@@6B@				; std::bad_alloc::`RTTI Complete Object Locator'
PUBLIC	??_R0?AVbad_alloc@std@@@8			; std::bad_alloc `RTTI Type Descriptor'
PUBLIC	??_R3bad_alloc@std@@8				; std::bad_alloc::`RTTI Class Hierarchy Descriptor'
PUBLIC	??_R2bad_alloc@std@@8				; std::bad_alloc::`RTTI Base Class Array'
PUBLIC	??_R1A@?0A@EA@bad_alloc@std@@8			; std::bad_alloc::`RTTI Base Class Descriptor at (0,-1,0,64)'
PUBLIC	??_R1A@?0A@EA@exception@std@@8			; std::exception::`RTTI Base Class Descriptor at (0,-1,0,64)'
PUBLIC	??_R0?AVexception@std@@@8			; std::exception `RTTI Type Descriptor'
PUBLIC	??_R3exception@std@@8				; std::exception::`RTTI Class Hierarchy Descriptor'
PUBLIC	??_R2exception@std@@8				; std::exception::`RTTI Base Class Array'
EXTRN	__imp_??0exception@std@@QAE@ABQBD@Z:PROC
EXTRN	??_7type_info@@6B@:QWORD			; type_info::`vftable'
EXTRN	??_Ebad_alloc@std@@UAEPAXI@Z:PROC		; std::bad_alloc::`vector deleting destructor'
EXTRN	?what@exception@std@@UBEPBDXZ:PROC		; std::exception::what
;	COMDAT ??_R2exception@std@@8
; File c:\program files (x86)\microsoft visual studio 10.0\vc\include\exception
rdata$r	SEGMENT
??_R2exception@std@@8 DD FLAT:??_R1A@?0A@EA@exception@std@@8 ; std::exception::`RTTI Base Class Array'
rdata$r	ENDS
;	COMDAT ??_R3exception@std@@8
rdata$r	SEGMENT
??_R3exception@std@@8 DD 00H				; std::exception::`RTTI Class Hierarchy Descriptor'
	DD	00H
	DD	01H
	DD	FLAT:??_R2exception@std@@8
rdata$r	ENDS
;	COMDAT ??_R0?AVexception@std@@@8
_DATA	SEGMENT
??_R0?AVexception@std@@@8 DD FLAT:??_7type_info@@6B@	; std::exception `RTTI Type Descriptor'
	DD	00H
	DB	'.?AVexception@std@@', 00H
_DATA	ENDS
;	COMDAT ??_R1A@?0A@EA@exception@std@@8
rdata$r	SEGMENT
??_R1A@?0A@EA@exception@std@@8 DD FLAT:??_R0?AVexception@std@@@8 ; std::exception::`RTTI Base Class Descriptor at (0,-1,0,64)'
	DD	00H
	DD	00H
	DD	0ffffffffH
	DD	00H
	DD	040H
	DD	FLAT:??_R3exception@std@@8
rdata$r	ENDS
;	COMDAT ??_R1A@?0A@EA@bad_alloc@std@@8
rdata$r	SEGMENT
??_R1A@?0A@EA@bad_alloc@std@@8 DD FLAT:??_R0?AVbad_alloc@std@@@8 ; std::bad_alloc::`RTTI Base Class Descriptor at (0,-1,0,64)'
	DD	01H
	DD	00H
	DD	0ffffffffH
	DD	00H
	DD	040H
	DD	FLAT:??_R3bad_alloc@std@@8
rdata$r	ENDS
;	COMDAT ??_R2bad_alloc@std@@8
rdata$r	SEGMENT
??_R2bad_alloc@std@@8 DD FLAT:??_R1A@?0A@EA@bad_alloc@std@@8 ; std::bad_alloc::`RTTI Base Class Array'
	DD	FLAT:??_R1A@?0A@EA@exception@std@@8
rdata$r	ENDS
;	COMDAT ??_R3bad_alloc@std@@8
rdata$r	SEGMENT
??_R3bad_alloc@std@@8 DD 00H				; std::bad_alloc::`RTTI Class Hierarchy Descriptor'
	DD	00H
	DD	02H
	DD	FLAT:??_R2bad_alloc@std@@8
rdata$r	ENDS
;	COMDAT ??_R0?AVbad_alloc@std@@@8
_DATA	SEGMENT
??_R0?AVbad_alloc@std@@@8 DD FLAT:??_7type_info@@6B@	; std::bad_alloc `RTTI Type Descriptor'
	DD	00H
	DB	'.?AVbad_alloc@std@@', 00H
_DATA	ENDS
;	COMDAT ??_R4bad_alloc@std@@6B@
rdata$r	SEGMENT
??_R4bad_alloc@std@@6B@ DD 00H				; std::bad_alloc::`RTTI Complete Object Locator'
	DD	00H
	DD	00H
	DD	FLAT:??_R0?AVbad_alloc@std@@@8
	DD	FLAT:??_R3bad_alloc@std@@8
rdata$r	ENDS
;	COMDAT ??_7bad_alloc@std@@6B@
CONST	SEGMENT
??_7bad_alloc@std@@6B@ DD FLAT:??_R4bad_alloc@std@@6B@	; std::bad_alloc::`vftable'
	DD	FLAT:??_Ebad_alloc@std@@UAEPAXI@Z
	DD	FLAT:?what@exception@std@@UBEPBDXZ
; Function compile flags: /Ogsp
CONST	ENDS
;	COMDAT ??0bad_alloc@std@@QAE@PBD@Z
_TEXT	SEGMENT
__Message$ = 8						; size = 4
??0bad_alloc@std@@QAE@PBD@Z PROC			; std::bad_alloc::bad_alloc, COMDAT
; _this$ = ecx

; 345  : 		{	// construct from message string

  00000	55		 push	 ebp
  00001	8b ec		 mov	 ebp, esp
  00003	56		 push	 esi
  00004	8d 45 08	 lea	 eax, DWORD PTR __Message$[ebp]
  00007	50		 push	 eax
  00008	8b f1		 mov	 esi, ecx
  0000a	ff 15 00 00 00
	00		 call	 DWORD PTR __imp_??0exception@std@@QAE@ABQBD@Z
  00010	c7 06 00 00 00
	00		 mov	 DWORD PTR [esi], OFFSET ??_7bad_alloc@std@@6B@

; 346  : 		}

  00016	8b c6		 mov	 eax, esi
  00018	5e		 pop	 esi
  00019	5d		 pop	 ebp
  0001a	c2 04 00	 ret	 4
??0bad_alloc@std@@QAE@PBD@Z ENDP			; std::bad_alloc::bad_alloc
_TEXT	ENDS
PUBLIC	??1bad_alloc@std@@UAE@XZ			; std::bad_alloc::~bad_alloc
EXTRN	__imp_??1exception@std@@UAE@XZ:PROC
; Function compile flags: /Ogsp
;	COMDAT ??1bad_alloc@std@@UAE@XZ
_TEXT	SEGMENT
??1bad_alloc@std@@UAE@XZ PROC				; std::bad_alloc::~bad_alloc, COMDAT
; _this$ = ecx

; 354  : 		{	// destroy the object

  00000	c7 01 00 00 00
	00		 mov	 DWORD PTR [ecx], OFFSET ??_7bad_alloc@std@@6B@

; 355  : 		}

  00006	ff 25 00 00 00
	00		 jmp	 DWORD PTR __imp_??1exception@std@@UAE@XZ
??1bad_alloc@std@@UAE@XZ ENDP				; std::bad_alloc::~bad_alloc
_TEXT	ENDS
EXTRN	??3@YAXPAX@Z:PROC				; operator delete
; Function compile flags: /Ogsp
;	COMDAT ??_Gbad_alloc@std@@UAEPAXI@Z
_TEXT	SEGMENT
___flags$ = 8						; size = 4
??_Gbad_alloc@std@@UAEPAXI@Z PROC			; std::bad_alloc::`scalar deleting destructor', COMDAT
; _this$ = ecx
  00000	55		 push	 ebp
  00001	8b ec		 mov	 ebp, esp
  00003	56		 push	 esi
  00004	8b f1		 mov	 esi, ecx
  00006	c7 06 00 00 00
	00		 mov	 DWORD PTR [esi], OFFSET ??_7bad_alloc@std@@6B@
  0000c	ff 15 00 00 00
	00		 call	 DWORD PTR __imp_??1exception@std@@UAE@XZ
  00012	f6 45 08 01	 test	 BYTE PTR ___flags$[ebp], 1
  00016	74 07		 je	 SHORT $LN1@scalar
  00018	56		 push	 esi
  00019	e8 00 00 00 00	 call	 ??3@YAXPAX@Z		; operator delete
  0001e	59		 pop	 ecx
$LN1@scalar:
  0001f	8b c6		 mov	 eax, esi
  00021	5e		 pop	 esi
  00022	5d		 pop	 ebp
  00023	c2 04 00	 ret	 4
??_Gbad_alloc@std@@UAEPAXI@Z ENDP			; std::bad_alloc::`scalar deleting destructor'
_TEXT	ENDS
PUBLIC	??2@YAPAXIPAX@Z					; operator new
; Function compile flags: /Ogsp
; File c:\program files (x86)\microsoft visual studio 10.0\vc\include\new
;	COMDAT ??2@YAPAXIPAX@Z
_TEXT	SEGMENT
___formal$ = 8						; size = 4
__Where$ = 12						; size = 4
??2@YAPAXIPAX@Z PROC					; operator new, COMDAT

; 56   : 	{	// construct array with placement at _Where

  00000	55		 push	 ebp
  00001	8b ec		 mov	 ebp, esp

; 57   : 	return (_Where);

  00003	8b 45 0c	 mov	 eax, DWORD PTR __Where$[ebp]

; 58   : 	}

  00006	5d		 pop	 ebp
  00007	c3		 ret	 0
??2@YAPAXIPAX@Z ENDP					; operator new
_TEXT	ENDS
PUBLIC	??3@YAXPAX0@Z					; operator delete
; Function compile flags: /Ogsp
;	COMDAT ??3@YAXPAX0@Z
_TEXT	SEGMENT
___formal$ = 8						; size = 4
___formal$ = 12						; size = 4
??3@YAXPAX0@Z PROC					; operator delete, COMDAT

; 62   : 	}

  00000	c3		 ret	 0
??3@YAXPAX0@Z ENDP					; operator delete
_TEXT	ENDS
PUBLIC	?GetType@ioKisaragiJump@@UBE?AW4JumpType@@XZ	; ioKisaragiJump::GetType
; Function compile flags: /Ogsp
; File d:\lost saga for developer\youtube\tutorial\source\src\lsclient\iokisaragijump.cpp
;	COMDAT ?GetType@ioKisaragiJump@@UBE?AW4JumpType@@XZ
_TEXT	SEGMENT
?GetType@ioKisaragiJump@@UBE?AW4JumpType@@XZ PROC	; ioKisaragiJump::GetType, COMDAT
; _this$ = ecx

; 57   : 	return JT_KISARAGI_JUMP;

  00000	6a 0c		 push	 12			; 0000000cH
  00002	58		 pop	 eax

; 58   : }

  00003	c3		 ret	 0
?GetType@ioKisaragiJump@@UBE?AW4JumpType@@XZ ENDP	; ioKisaragiJump::GetType
_TEXT	ENDS
PUBLIC	?SetJumpping@ioKisaragiJump@@UAEXPAVioBaseChar@@_N@Z ; ioKisaragiJump::SetJumpping
; Function compile flags: /Ogsp
;	COMDAT ?SetJumpping@ioKisaragiJump@@UAEXPAVioBaseChar@@_N@Z
_TEXT	SEGMENT
_pOwner$ = 8						; size = 4
_bFullTime$ = 12					; size = 1
?SetJumpping@ioKisaragiJump@@UAEXPAVioBaseChar@@_N@Z PROC ; ioKisaragiJump::SetJumpping, COMDAT
; _this$ = ecx

; 100  : 	m_bUsedDoubleJump = false;

  00000	33 c0		 xor	 eax, eax
  00002	88 81 58 01 00
	00		 mov	 BYTE PTR [ecx+344], al

; 101  : 	m_bUseExtendJump = false;

  00008	88 41 10	 mov	 BYTE PTR [ecx+16], al

; 102  : 	m_iCurJumpCnt = 1;

  0000b	c7 81 60 01 00
	00 01 00 00 00	 mov	 DWORD PTR [ecx+352], 1

; 103  : 
; 104  : 	m_bDashEnd = false;

  00015	66 89 81 b8 01
	00 00		 mov	 WORD PTR [ecx+440], ax

; 105  : 	m_bJumpAttackReserve = false;
; 106  : 	m_dwActionEndTime = 0;

  0001c	89 81 b4 01 00
	00		 mov	 DWORD PTR [ecx+436], eax

; 107  : 	m_dwReserveEnableTime = 0;

  00022	89 81 e8 00 00
	00		 mov	 DWORD PTR [ecx+232], eax

; 108  : 
; 109  : 	m_CurJumpState = KJS_NONE;

  00028	89 81 24 01 00
	00		 mov	 DWORD PTR [ecx+292], eax

; 110  : }

  0002e	c2 08 00	 ret	 8
?SetJumpping@ioKisaragiJump@@UAEXPAVioBaseChar@@_N@Z ENDP ; ioKisaragiJump::SetJumpping
_TEXT	ENDS
PUBLIC	?_Adopt@_Iterator_base0@std@@QAEXPBX@Z		; std::_Iterator_base0::_Adopt
; Function compile flags: /Ogsp
; File c:\program files (x86)\microsoft visual studio 10.0\vc\include\xutility
;	COMDAT ?_Adopt@_Iterator_base0@std@@QAEXPBX@Z
_TEXT	SEGMENT
___formal$ = 8						; size = 4
?_Adopt@_Iterator_base0@std@@QAEXPBX@Z PROC		; std::_Iterator_base0::_Adopt, COMDAT
; _this$ = ecx

; 49   : 		}

  00000	c2 04 00	 ret	 4
?_Adopt@_Iterator_base0@std@@QAEXPBX@Z ENDP		; std::_Iterator_base0::_Adopt
_TEXT	ENDS
PUBLIC	?SetLandingState@ioKisaragiJump@@UAEXPAVioBaseChar@@@Z ; ioKisaragiJump::SetLandingState
; Function compile flags: /Ogsp
; File d:\lost saga for developer\youtube\tutorial\source\src\lsclient\iokisaragijump.cpp
;	COMDAT ?SetLandingState@ioKisaragiJump@@UAEXPAVioBaseChar@@@Z
_TEXT	SEGMENT
_pOwner$ = 8						; size = 4
?SetLandingState@ioKisaragiJump@@UAEXPAVioBaseChar@@@Z PROC ; ioKisaragiJump::SetLandingState, COMDAT
; _this$ = ecx

; 568  : 	m_bUsedDoubleJump = false;

  00000	33 c0		 xor	 eax, eax
  00002	88 81 58 01 00
	00		 mov	 BYTE PTR [ecx+344], al

; 569  : 	m_bUseExtendJump = false;

  00008	88 41 10	 mov	 BYTE PTR [ecx+16], al

; 570  : 
; 571  : 	m_CurJumpState = KJS_NONE;

  0000b	89 81 24 01 00
	00		 mov	 DWORD PTR [ecx+292], eax

; 572  : }

  00011	c2 04 00	 ret	 4
?SetLandingState@ioKisaragiJump@@UAEXPAVioBaseChar@@@Z ENDP ; ioKisaragiJump::SetLandingState
_TEXT	ENDS
PUBLIC	?GetChargingTime@ioKisaragiJump@@UAEKPAVioBaseChar@@@Z ; ioKisaragiJump::GetChargingTime
; Function compile flags: /Ogsp
;	COMDAT ?GetChargingTime@ioKisaragiJump@@UAEKPAVioBaseChar@@@Z
_TEXT	SEGMENT
_pChar$ = 8						; size = 4
?GetChargingTime@ioKisaragiJump@@UAEKPAVioBaseChar@@@Z PROC ; ioKisaragiJump::GetChargingTime, COMDAT
; _this$ = ecx

; 576  : 	return 0;

  00000	33 c0		 xor	 eax, eax

; 577  : }

  00002	c2 04 00	 ret	 4
?GetChargingTime@ioKisaragiJump@@UAEKPAVioBaseChar@@@Z ENDP ; ioKisaragiJump::GetChargingTime
_TEXT	ENDS
PUBLIC	?IsCanJumpAttack@ioKisaragiJump@@UAE_NPAVioBaseChar@@@Z ; ioKisaragiJump::IsCanJumpAttack
EXTRN	__imp_?GetLoopSec@ioFrameTimer@@QBEKXZ:PROC
EXTRN	__imp_?GetSingleton@ioFrameTimer@@SAAAV1@XZ:PROC
; Function compile flags: /Ogsp
;	COMDAT ?IsCanJumpAttack@ioKisaragiJump@@UAE_NPAVioBaseChar@@@Z
_TEXT	SEGMENT
_pOwner$ = 8						; size = 4
?IsCanJumpAttack@ioKisaragiJump@@UAE_NPAVioBaseChar@@@Z PROC ; ioKisaragiJump::IsCanJumpAttack, COMDAT
; _this$ = ecx

; 581  : 	if( m_CurJumpState == KJS_DASH )

  00000	83 b9 24 01 00
	00 03		 cmp	 DWORD PTR [ecx+292], 3
  00007	56		 push	 esi
  00008	75 21		 jne	 SHORT $LN1@IsCanJumpA

; 582  : 	{
; 583  : 		if( m_dwActionEndTime > 0 && m_dwActionEndTime >= FRAMEGETTIME() )

  0000a	8d b1 b4 01 00
	00		 lea	 esi, DWORD PTR [ecx+436]
  00010	83 3e 00	 cmp	 DWORD PTR [esi], 0
  00013	76 16		 jbe	 SHORT $LN1@IsCanJumpA
  00015	ff 15 00 00 00
	00		 call	 DWORD PTR __imp_?GetSingleton@ioFrameTimer@@SAAAV1@XZ
  0001b	8b c8		 mov	 ecx, eax
  0001d	ff 15 00 00 00
	00		 call	 DWORD PTR __imp_?GetLoopSec@ioFrameTimer@@QBEKXZ
  00023	39 06		 cmp	 DWORD PTR [esi], eax
  00025	72 04		 jb	 SHORT $LN1@IsCanJumpA

; 584  : 			return false;

  00027	32 c0		 xor	 al, al
  00029	eb 02		 jmp	 SHORT $LN3@IsCanJumpA
$LN1@IsCanJumpA:

; 585  : 	}
; 586  : 
; 587  : 	return true;

  0002b	b0 01		 mov	 al, 1
$LN3@IsCanJumpA:
  0002d	5e		 pop	 esi

; 588  : }

  0002e	c2 04 00	 ret	 4
?IsCanJumpAttack@ioKisaragiJump@@UAE_NPAVioBaseChar@@@Z ENDP ; ioKisaragiJump::IsCanJumpAttack
_TEXT	ENDS
PUBLIC	?IsJumpDashState@ioKisaragiJump@@QAE_NXZ	; ioKisaragiJump::IsJumpDashState
; Function compile flags: /Ogsp
;	COMDAT ?IsJumpDashState@ioKisaragiJump@@QAE_NXZ
_TEXT	SEGMENT
?IsJumpDashState@ioKisaragiJump@@QAE_NXZ PROC		; ioKisaragiJump::IsJumpDashState, COMDAT
; _this$ = ecx

; 592  : 	if( m_CurJumpState == KJS_DASH )

  00000	83 b9 24 01 00
	00 03		 cmp	 DWORD PTR [ecx+292], 3
  00007	56		 push	 esi
  00008	75 21		 jne	 SHORT $LN1@IsJumpDash

; 593  : 	{
; 594  : 		if( m_dwActionEndTime > 0 && m_dwActionEndTime >= FRAMEGETTIME() )

  0000a	8d b1 b4 01 00
	00		 lea	 esi, DWORD PTR [ecx+436]
  00010	83 3e 00	 cmp	 DWORD PTR [esi], 0
  00013	76 16		 jbe	 SHORT $LN1@IsJumpDash
  00015	ff 15 00 00 00
	00		 call	 DWORD PTR __imp_?GetSingleton@ioFrameTimer@@SAAAV1@XZ
  0001b	8b c8		 mov	 ecx, eax
  0001d	ff 15 00 00 00
	00		 call	 DWORD PTR __imp_?GetLoopSec@ioFrameTimer@@QBEKXZ
  00023	39 06		 cmp	 DWORD PTR [esi], eax
  00025	72 04		 jb	 SHORT $LN1@IsJumpDash

; 595  : 		{
; 596  : 			return true;

  00027	b0 01		 mov	 al, 1
  00029	5e		 pop	 esi

; 601  : }

  0002a	c3		 ret	 0
$LN1@IsJumpDash:

; 597  : 		}
; 598  : 	}
; 599  : 
; 600  : 	return false;

  0002b	32 c0		 xor	 al, al
  0002d	5e		 pop	 esi

; 601  : }

  0002e	c3		 ret	 0
?IsJumpDashState@ioKisaragiJump@@QAE_NXZ ENDP		; ioKisaragiJump::IsJumpDashState
_TEXT	ENDS
PUBLIC	?IsJumpAttackReserve@ioKisaragiJump@@QAE_NXZ	; ioKisaragiJump::IsJumpAttackReserve
; Function compile flags: /Ogsp
;	COMDAT ?IsJumpAttackReserve@ioKisaragiJump@@QAE_NXZ
_TEXT	SEGMENT
?IsJumpAttackReserve@ioKisaragiJump@@QAE_NXZ PROC	; ioKisaragiJump::IsJumpAttackReserve, COMDAT
; _this$ = ecx

; 605  : 	return m_bJumpAttackReserve;

  00000	8a 81 b9 01 00
	00		 mov	 al, BYTE PTR [ecx+441]

; 606  : }

  00006	c3		 ret	 0
?IsJumpAttackReserve@ioKisaragiJump@@QAE_NXZ ENDP	; ioKisaragiJump::IsJumpAttackReserve
_TEXT	ENDS
PUBLIC	?CheckKeyReserve@ioKisaragiJump@@MAEXPAVioBaseChar@@@Z ; ioKisaragiJump::CheckKeyReserve
EXTRN	?IsChatModeState@ioBaseChar@@QBE_N_N@Z:PROC	; ioBaseChar::IsChatModeState
EXTRN	?IsAttackKey@ioBaseChar@@QBE_NXZ:PROC		; ioBaseChar::IsAttackKey
; Function compile flags: /Ogsp
;	COMDAT ?CheckKeyReserve@ioKisaragiJump@@MAEXPAVioBaseChar@@@Z
_TEXT	SEGMENT
_pOwner$ = 8						; size = 4
?CheckKeyReserve@ioKisaragiJump@@MAEXPAVioBaseChar@@@Z PROC ; ioKisaragiJump::CheckKeyReserve, COMDAT
; _this$ = ecx

; 609  : {

  00000	55		 push	 ebp
  00001	8b ec		 mov	 ebp, esp
  00003	56		 push	 esi
  00004	8b f1		 mov	 esi, ecx

; 610  : 	bool bReserveSkill = false;
; 611  : 
; 612  : 	if( pOwner->IsAttackKey() && !m_bJumpAttackReserve && !pOwner->IsChatModeState( true ) )

  00006	8b 4d 08	 mov	 ecx, DWORD PTR _pOwner$[ebp]
  00009	e8 00 00 00 00	 call	 ?IsAttackKey@ioBaseChar@@QBE_NXZ ; ioBaseChar::IsAttackKey
  0000e	84 c0		 test	 al, al
  00010	74 1e		 je	 SHORT $LN1@CheckKeyRe
  00012	80 be b9 01 00
	00 00		 cmp	 BYTE PTR [esi+441], 0
  00019	75 15		 jne	 SHORT $LN1@CheckKeyRe
  0001b	8b 4d 08	 mov	 ecx, DWORD PTR _pOwner$[ebp]
  0001e	6a 01		 push	 1
  00020	e8 00 00 00 00	 call	 ?IsChatModeState@ioBaseChar@@QBE_N_N@Z ; ioBaseChar::IsChatModeState
  00025	84 c0		 test	 al, al
  00027	75 07		 jne	 SHORT $LN1@CheckKeyRe

; 613  : 	{
; 614  : 		m_bJumpAttackReserve = true;

  00029	c6 86 b9 01 00
	00 01		 mov	 BYTE PTR [esi+441], 1
$LN1@CheckKeyRe:
  00030	5e		 pop	 esi

; 615  : 	}
; 616  : }

  00031	5d		 pop	 ebp
  00032	c2 04 00	 ret	 4
?CheckKeyReserve@ioKisaragiJump@@MAEXPAVioBaseChar@@@Z ENDP ; ioKisaragiJump::CheckKeyReserve
_TEXT	ENDS
PUBLIC	??A?$vector@VioHashString@@V?$allocator@VioHashString@@@std@@@std@@QAEAAVioHashString@@I@Z ; std::vector<ioHashString,std::allocator<ioHashString> >::operator[]
; Function compile flags: /Ogsp
; File c:\program files (x86)\microsoft visual studio 10.0\vc\include\vector
;	COMDAT ??A?$vector@VioHashString@@V?$allocator@VioHashString@@@std@@@std@@QAEAAVioHashString@@I@Z
_TEXT	SEGMENT
__Pos$ = 8						; size = 4
??A?$vector@VioHashString@@V?$allocator@VioHashString@@@std@@@std@@QAEAAVioHashString@@I@Z PROC ; std::vector<ioHashString,std::allocator<ioHashString> >::operator[], COMDAT
; _this$ = ecx

; 928  : 		{	// subscript mutable sequence

  00000	55		 push	 ebp
  00001	8b ec		 mov	 ebp, esp

; 929  :  #if _ITERATOR_DEBUG_LEVEL == 2
; 930  : 		if (size() <= _Pos)
; 931  : 			{	// report error
; 932  : 			_DEBUG_ERROR("vector subscript out of range");
; 933  : 			_SCL_SECURE_OUT_OF_RANGE;
; 934  : 			}
; 935  : 
; 936  :  #elif _ITERATOR_DEBUG_LEVEL == 1
; 937  : 		_SCL_SECURE_VALIDATE_RANGE(_Pos < size());
; 938  :  #endif /* _ITERATOR_DEBUG_LEVEL */
; 939  : 
; 940  : 		return (*(this->_Myfirst + _Pos));

  00003	8b 45 08	 mov	 eax, DWORD PTR __Pos$[ebp]
  00006	c1 e0 04	 shl	 eax, 4
  00009	03 01		 add	 eax, DWORD PTR [ecx]

; 941  : 		}

  0000b	5d		 pop	 ebp
  0000c	c2 04 00	 ret	 4
??A?$vector@VioHashString@@V?$allocator@VioHashString@@@std@@@std@@QAEAAVioHashString@@I@Z ENDP ; std::vector<ioHashString,std::allocator<ioHashString> >::operator[]
_TEXT	ENDS
PUBLIC	?capacity@?$vector@VioHashString@@V?$allocator@VioHashString@@@std@@@std@@QBEIXZ ; std::vector<ioHashString,std::allocator<ioHashString> >::capacity
; Function compile flags: /Ogsp
;	COMDAT ?capacity@?$vector@VioHashString@@V?$allocator@VioHashString@@@std@@@std@@QBEIXZ
_TEXT	SEGMENT
?capacity@?$vector@VioHashString@@V?$allocator@VioHashString@@@std@@@std@@QBEIXZ PROC ; std::vector<ioHashString,std::allocator<ioHashString> >::capacity, COMDAT
; _this$ = ecx

; 777  : 		return (this->_Myend - this->_Myfirst);

  00000	8b 41 08	 mov	 eax, DWORD PTR [ecx+8]
  00003	2b 01		 sub	 eax, DWORD PTR [ecx]
  00005	c1 f8 04	 sar	 eax, 4

; 778  : 		}

  00008	c3		 ret	 0
?capacity@?$vector@VioHashString@@V?$allocator@VioHashString@@@std@@@std@@QBEIXZ ENDP ; std::vector<ioHashString,std::allocator<ioHashString> >::capacity
_TEXT	ENDS
PUBLIC	?_Inside@?$vector@VioHashString@@V?$allocator@VioHashString@@@std@@@std@@IBE_NPBVioHashString@@@Z ; std::vector<ioHashString,std::allocator<ioHashString> >::_Inside
; Function compile flags: /Ogsp
;	COMDAT ?_Inside@?$vector@VioHashString@@V?$allocator@VioHashString@@@std@@@std@@IBE_NPBVioHashString@@@Z
_TEXT	SEGMENT
__Ptr$ = 8						; size = 4
?_Inside@?$vector@VioHashString@@V?$allocator@VioHashString@@@std@@@std@@IBE_NPBVioHashString@@@Z PROC ; std::vector<ioHashString,std::allocator<ioHashString> >::_Inside, COMDAT
; _this$ = ecx

; 1285 : 		{	// test if _Ptr points inside vector

  00000	55		 push	 ebp
  00001	8b ec		 mov	 ebp, esp

; 1286 : 		return (_Ptr < this->_Mylast && this->_Myfirst <= _Ptr);

  00003	8b 45 08	 mov	 eax, DWORD PTR __Ptr$[ebp]
  00006	3b 41 04	 cmp	 eax, DWORD PTR [ecx+4]
  00009	73 09		 jae	 SHORT $LN3@Inside
  0000b	39 01		 cmp	 DWORD PTR [ecx], eax
  0000d	77 05		 ja	 SHORT $LN3@Inside
  0000f	33 c0		 xor	 eax, eax
  00011	40		 inc	 eax
  00012	eb 02		 jmp	 SHORT $LN4@Inside
$LN3@Inside:
  00014	33 c0		 xor	 eax, eax
$LN4@Inside:

; 1287 : 		}

  00016	5d		 pop	 ebp
  00017	c2 04 00	 ret	 4
?_Inside@?$vector@VioHashString@@V?$allocator@VioHashString@@@std@@@std@@IBE_NPBVioHashString@@@Z ENDP ; std::vector<ioHashString,std::allocator<ioHashString> >::_Inside
_TEXT	ENDS
PUBLIC	?_Orphan_range@?$vector@VioHashString@@V?$allocator@VioHashString@@@std@@@std@@IBEXPAVioHashString@@0@Z ; std::vector<ioHashString,std::allocator<ioHashString> >::_Orphan_range
; Function compile flags: /Ogsp
;	COMDAT ?_Orphan_range@?$vector@VioHashString@@V?$allocator@VioHashString@@@std@@@std@@IBEXPAVioHashString@@0@Z
_TEXT	SEGMENT
___formal$ = 8						; size = 4
___formal$ = 12						; size = 4
?_Orphan_range@?$vector@VioHashString@@V?$allocator@VioHashString@@@std@@@std@@IBEXPAVioHashString@@0@Z PROC ; std::vector<ioHashString,std::allocator<ioHashString> >::_Orphan_range, COMDAT
; _this$ = ecx

; 1454 : 		}

  00000	c2 08 00	 ret	 8
?_Orphan_range@?$vector@VioHashString@@V?$allocator@VioHashString@@@std@@@std@@IBEXPAVioHashString@@0@Z ENDP ; std::vector<ioHashString,std::allocator<ioHashString> >::_Orphan_range
_TEXT	ENDS
PUBLIC	??$addressof@VioHashString@@@std@@YAPAVioHashString@@AAV1@@Z ; std::addressof<ioHashString>
; Function compile flags: /Ogsp
; File c:\program files (x86)\microsoft visual studio 10.0\vc\include\xmemory
;	COMDAT ??$addressof@VioHashString@@@std@@YAPAVioHashString@@AAV1@@Z
_TEXT	SEGMENT
__Val$ = 8						; size = 4
??$addressof@VioHashString@@@std@@YAPAVioHashString@@AAV1@@Z PROC ; std::addressof<ioHashString>, COMDAT

; 110  : 	{	// return address of _Val

  00000	55		 push	 ebp
  00001	8b ec		 mov	 ebp, esp

; 111  : 	return ((_Ty *) &(char&)_Val);

  00003	8b 45 08	 mov	 eax, DWORD PTR __Val$[ebp]

; 112  : 	}

  00006	5d		 pop	 ebp
  00007	c3		 ret	 0
??$addressof@VioHashString@@@std@@YAPAVioHashString@@AAV1@@Z ENDP ; std::addressof<ioHashString>
_TEXT	ENDS
PUBLIC	??$forward@VioHashString@@@std@@YA$$QAVioHashString@@AAV1@@Z ; std::forward<ioHashString>
; Function compile flags: /Ogsp
; File c:\program files (x86)\microsoft visual studio 10.0\vc\include\utility
;	COMDAT ??$forward@VioHashString@@@std@@YA$$QAVioHashString@@AAV1@@Z
_TEXT	SEGMENT
__Arg$ = 8						; size = 4
??$forward@VioHashString@@@std@@YA$$QAVioHashString@@AAV1@@Z PROC ; std::forward<ioHashString>, COMDAT

; 78   : 	{	// forward _Arg, given explicitly specified type parameter

  00000	55		 push	 ebp
  00001	8b ec		 mov	 ebp, esp

; 79   : 	return ((_Ty&&)_Arg);

  00003	8b 45 08	 mov	 eax, DWORD PTR __Arg$[ebp]

; 80   : 	}

  00006	5d		 pop	 ebp
  00007	c3		 ret	 0
??$forward@VioHashString@@@std@@YA$$QAVioHashString@@AAV1@@Z ENDP ; std::forward<ioHashString>
_TEXT	ENDS
PUBLIC	?construct@?$allocator@VioHashString@@@std@@QAEXPAVioHashString@@$$QAV3@@Z ; std::allocator<ioHashString>::construct
EXTRN	__imp_??0ioHashString@@QAE@ABV0@@Z:PROC
EXTRN	___CxxFrameHandler3:PROC
EXTRN	@__security_check_cookie@4:PROC
EXTRN	__EH_epilog3:PROC
EXTRN	__EH_prolog3:PROC
;	COMDAT xdata$x
xdata$x	SEGMENT
__unwindtable$?construct@?$allocator@VioHashString@@@std@@QAEXPAVioHashString@@$$QAV3@@Z DD 0ffffffffH
	DD	FLAT:__unwindfunclet$?construct@?$allocator@VioHashString@@@std@@QAEXPAVioHashString@@$$QAV3@@Z$0
__ehfuncinfo$?construct@?$allocator@VioHashString@@@std@@QAEXPAVioHashString@@$$QAV3@@Z DD 019930522H
	DD	01H
	DD	FLAT:__unwindtable$?construct@?$allocator@VioHashString@@@std@@QAEXPAVioHashString@@$$QAV3@@Z
	DD	2 DUP(00H)
	DD	2 DUP(00H)
	DD	00H
	DD	01H
; Function compile flags: /Ogsp
; File c:\program files (x86)\microsoft visual studio 10.0\vc\include\xmemory
xdata$x	ENDS
;	COMDAT ?construct@?$allocator@VioHashString@@@std@@QAEXPAVioHashString@@$$QAV3@@Z
_TEXT	SEGMENT
$T526904 = -16						; size = 4
__$EHRec$ = -12						; size = 12
__Ptr$ = 8						; size = 4
__Val$ = 12						; size = 4
?construct@?$allocator@VioHashString@@@std@@QAEXPAVioHashString@@$$QAV3@@Z PROC ; std::allocator<ioHashString>::construct, COMDAT
; _this$ = ecx

; 201  : 		{	// construct object at _Ptr with value _Val

  00000	6a 04		 push	 4
  00002	b8 00 00 00 00	 mov	 eax, __ehhandler$?construct@?$allocator@VioHashString@@@std@@QAEXPAVioHashString@@$$QAV3@@Z
  00007	e8 00 00 00 00	 call	 __EH_prolog3

; 202  : 		::new ((void _FARQ *)_Ptr) _Ty(_STD forward<_Ty>(_Val));

  0000c	8b 4d 08	 mov	 ecx, DWORD PTR __Ptr$[ebp]
  0000f	89 4d f0	 mov	 DWORD PTR $T526904[ebp], ecx
  00012	83 65 fc 00	 and	 DWORD PTR __$EHRec$[ebp+8], 0
  00016	85 c9		 test	 ecx, ecx
  00018	74 09		 je	 SHORT $LN3@construct
  0001a	ff 75 0c	 push	 DWORD PTR __Val$[ebp]
  0001d	ff 15 00 00 00
	00		 call	 DWORD PTR __imp_??0ioHashString@@QAE@ABV0@@Z
$LN3@construct:

; 203  : 		}

  00023	e8 00 00 00 00	 call	 __EH_epilog3
  00028	c2 08 00	 ret	 8
_TEXT	ENDS
;	COMDAT text$x
text$x	SEGMENT
__unwindfunclet$?construct@?$allocator@VioHashString@@@std@@QAEXPAVioHashString@@$$QAV3@@Z$0:
  00000	ff 75 08	 push	 DWORD PTR __Ptr$[ebp]
  00003	ff 75 f0	 push	 DWORD PTR $T526904[ebp]
  00006	e8 00 00 00 00	 call	 ??3@YAXPAX0@Z		; operator delete
  0000b	59		 pop	 ecx
  0000c	59		 pop	 ecx
  0000d	c3		 ret	 0
__ehhandler$?construct@?$allocator@VioHashString@@@std@@QAEXPAVioHashString@@$$QAV3@@Z:
  0000e	8b 54 24 08	 mov	 edx, DWORD PTR [esp+8]
  00012	8d 42 0c	 lea	 eax, DWORD PTR [edx+12]
  00015	8b 4a ec	 mov	 ecx, DWORD PTR [edx-20]
  00018	33 c8		 xor	 ecx, eax
  0001a	e8 00 00 00 00	 call	 @__security_check_cookie@4
  0001f	b8 00 00 00 00	 mov	 eax, OFFSET __ehfuncinfo$?construct@?$allocator@VioHashString@@@std@@QAEXPAVioHashString@@$$QAV3@@Z
  00024	e9 00 00 00 00	 jmp	 ___CxxFrameHandler3
text$x	ENDS
?construct@?$allocator@VioHashString@@@std@@QAEXPAVioHashString@@$$QAV3@@Z ENDP ; std::allocator<ioHashString>::construct
PUBLIC	??$_Val_type@PAVioHashString@@@std@@YAPAVioHashString@@PAV1@@Z ; std::_Val_type<ioHashString *>
; Function compile flags: /Ogsp
; File c:\program files (x86)\microsoft visual studio 10.0\vc\include\xutility
;	COMDAT ??$_Val_type@PAVioHashString@@@std@@YAPAVioHashString@@PAV1@@Z
_TEXT	SEGMENT
___formal$ = 8						; size = 4
??$_Val_type@PAVioHashString@@@std@@YAPAVioHashString@@PAV1@@Z PROC ; std::_Val_type<ioHashString *>, COMDAT

; 790  : 	return (0);

  00000	33 c0		 xor	 eax, eax

; 791  : 	}

  00002	c3		 ret	 0
??$_Val_type@PAVioHashString@@@std@@YAPAVioHashString@@PAV1@@Z ENDP ; std::_Val_type<ioHashString *>
_TEXT	ENDS
PUBLIC	??$_Ptr_cat@V?$_Vector_const_iterator@V?$_Vector_val@UWeaponInfo@@V?$allocator@UWeaponInfo@@@std@@@std@@@std@@PAUWeaponInfo@@@std@@YA?AU_Nonscalar_ptr_iterator_tag@0@AAV?$_Vector_const_iterator@V?$_Vector_val@UWeaponInfo@@V?$allocator@UWeaponInfo@@@std@@@std@@@0@AAPAUWeaponInfo@@@Z ; std::_Ptr_cat<std::_Vector_const_iterator<std::_Vector_val<WeaponInfo,std::allocator<WeaponInfo> > >,WeaponInfo *>
; Function compile flags: /Ogsp
;	COMDAT ??$_Ptr_cat@V?$_Vector_const_iterator@V?$_Vector_val@UWeaponInfo@@V?$allocator@UWeaponInfo@@@std@@@std@@@std@@PAUWeaponInfo@@@std@@YA?AU_Nonscalar_ptr_iterator_tag@0@AAV?$_Vector_const_iterator@V?$_Vector_val@UWeaponInfo@@V?$allocator@UWeaponInfo@@@std@@@std@@@0@AAPAUWeaponInfo@@@Z
_TEXT	SEGMENT
__Cat$ = -1						; size = 1
___formal$ = 8						; size = 4
___formal$ = 12						; size = 4
??$_Ptr_cat@V?$_Vector_const_iterator@V?$_Vector_val@UWeaponInfo@@V?$allocator@UWeaponInfo@@@std@@@std@@@std@@PAUWeaponInfo@@@std@@YA?AU_Nonscalar_ptr_iterator_tag@0@AAV?$_Vector_const_iterator@V?$_Vector_val@UWeaponInfo@@V?$allocator@UWeaponInfo@@@std@@@std@@@0@AAPAUWeaponInfo@@@Z PROC ; std::_Ptr_cat<std::_Vector_const_iterator<std::_Vector_val<WeaponInfo,std::allocator<WeaponInfo> > >,WeaponInfo *>, COMDAT

; 485  : 	{	// return pointer category from arbitrary arguments

  00000	55		 push	 ebp
  00001	8b ec		 mov	 ebp, esp
  00003	51		 push	 ecx

; 486  : 	_Nonscalar_ptr_iterator_tag _Cat;
; 487  : 	return (_Cat);

  00004	8a 45 ff	 mov	 al, BYTE PTR __Cat$[ebp]

; 488  : 	}

  00007	c9		 leave
  00008	c3		 ret	 0
??$_Ptr_cat@V?$_Vector_const_iterator@V?$_Vector_val@UWeaponInfo@@V?$allocator@UWeaponInfo@@@std@@@std@@@std@@PAUWeaponInfo@@@std@@YA?AU_Nonscalar_ptr_iterator_tag@0@AAV?$_Vector_const_iterator@V?$_Vector_val@UWeaponInfo@@V?$allocator@UWeaponInfo@@@std@@@std@@@0@AAPAUWeaponInfo@@@Z ENDP ; std::_Ptr_cat<std::_Vector_const_iterator<std::_Vector_val<WeaponInfo,std::allocator<WeaponInfo> > >,WeaponInfo *>
_TEXT	ENDS
PUBLIC	??$_Ptr_cat@V?$_Vector_const_iterator@V?$_Vector_val@UForceInfo@@V?$allocator@UForceInfo@@@std@@@std@@@std@@PAUForceInfo@@@std@@YA?AU_Nonscalar_ptr_iterator_tag@0@AAV?$_Vector_const_iterator@V?$_Vector_val@UForceInfo@@V?$allocator@UForceInfo@@@std@@@std@@@0@AAPAUForceInfo@@@Z ; std::_Ptr_cat<std::_Vector_const_iterator<std::_Vector_val<ForceInfo,std::allocator<ForceInfo> > >,ForceInfo *>
; Function compile flags: /Ogsp
;	COMDAT ??$_Ptr_cat@V?$_Vector_const_iterator@V?$_Vector_val@UForceInfo@@V?$allocator@UForceInfo@@@std@@@std@@@std@@PAUForceInfo@@@std@@YA?AU_Nonscalar_ptr_iterator_tag@0@AAV?$_Vector_const_iterator@V?$_Vector_val@UForceInfo@@V?$allocator@UForceInfo@@@std@@@std@@@0@AAPAUForceInfo@@@Z
_TEXT	SEGMENT
__Cat$ = -1						; size = 1
___formal$ = 8						; size = 4
___formal$ = 12						; size = 4
??$_Ptr_cat@V?$_Vector_const_iterator@V?$_Vector_val@UForceInfo@@V?$allocator@UForceInfo@@@std@@@std@@@std@@PAUForceInfo@@@std@@YA?AU_Nonscalar_ptr_iterator_tag@0@AAV?$_Vector_const_iterator@V?$_Vector_val@UForceInfo@@V?$allocator@UForceInfo@@@std@@@std@@@0@AAPAUForceInfo@@@Z PROC ; std::_Ptr_cat<std::_Vector_const_iterator<std::_Vector_val<ForceInfo,std::allocator<ForceInfo> > >,ForceInfo *>, COMDAT

; 485  : 	{	// return pointer category from arbitrary arguments

  00000	55		 push	 ebp
  00001	8b ec		 mov	 ebp, esp
  00003	51		 push	 ecx

; 486  : 	_Nonscalar_ptr_iterator_tag _Cat;
; 487  : 	return (_Cat);

  00004	8a 45 ff	 mov	 al, BYTE PTR __Cat$[ebp]

; 488  : 	}

  00007	c9		 leave
  00008	c3		 ret	 0
??$_Ptr_cat@V?$_Vector_const_iterator@V?$_Vector_val@UForceInfo@@V?$allocator@UForceInfo@@@std@@@std@@@std@@PAUForceInfo@@@std@@YA?AU_Nonscalar_ptr_iterator_tag@0@AAV?$_Vector_const_iterator@V?$_Vector_val@UForceInfo@@V?$allocator@UForceInfo@@@std@@@std@@@0@AAPAUForceInfo@@@Z ENDP ; std::_Ptr_cat<std::_Vector_const_iterator<std::_Vector_val<ForceInfo,std::allocator<ForceInfo> > >,ForceInfo *>
_TEXT	ENDS
PUBLIC	??D?$_Vector_const_iterator@V?$_Vector_val@UWeaponInfo@@V?$allocator@UWeaponInfo@@@std@@@std@@@std@@QBEABUWeaponInfo@@XZ ; std::_Vector_const_iterator<std::_Vector_val<WeaponInfo,std::allocator<WeaponInfo> > >::operator*
; Function compile flags: /Ogsp
; File c:\program files (x86)\microsoft visual studio 10.0\vc\include\vector
;	COMDAT ??D?$_Vector_const_iterator@V?$_Vector_val@UWeaponInfo@@V?$allocator@UWeaponInfo@@@std@@@std@@@std@@QBEABUWeaponInfo@@XZ
_TEXT	SEGMENT
??D?$_Vector_const_iterator@V?$_Vector_val@UWeaponInfo@@V?$allocator@UWeaponInfo@@@std@@@std@@@std@@QBEABUWeaponInfo@@XZ PROC ; std::_Vector_const_iterator<std::_Vector_val<WeaponInfo,std::allocator<WeaponInfo> > >::operator*, COMDAT
; _this$ = ecx

; 64   :  #if _ITERATOR_DEBUG_LEVEL == 2
; 65   : 		if (this->_Getcont() == 0
; 66   : 			|| this->_Ptr == 0
; 67   : 			|| this->_Ptr < ((_Myvec *)this->_Getcont())->_Myfirst
; 68   : 			|| ((_Myvec *)this->_Getcont())->_Mylast <= this->_Ptr)
; 69   : 			{	// report error
; 70   : 			_DEBUG_ERROR("vector iterator not dereferencable");
; 71   : 			_SCL_SECURE_OUT_OF_RANGE;
; 72   : 			}
; 73   : 
; 74   :  #elif _ITERATOR_DEBUG_LEVEL == 1
; 75   : 		_SCL_SECURE_VALIDATE(this->_Getcont() != 0);
; 76   : 		_SCL_SECURE_VALIDATE_RANGE(
; 77   : 			this->_Ptr != 0
; 78   : 			&& ((_Myvec *)this->_Getcont())->_Myfirst <= this->_Ptr
; 79   : 			&& this->_Ptr < ((_Myvec *)this->_Getcont())->_Mylast);
; 80   :  #endif /* _ITERATOR_DEBUG_LEVEL */
; 81   : 
; 82   : 		__analysis_assume(this->_Ptr != 0);
; 83   : 
; 84   : 		return (*this->_Ptr);

  00000	8b 01		 mov	 eax, DWORD PTR [ecx]

; 85   : 		}

  00002	c3		 ret	 0
??D?$_Vector_const_iterator@V?$_Vector_val@UWeaponInfo@@V?$allocator@UWeaponInfo@@@std@@@std@@@std@@QBEABUWeaponInfo@@XZ ENDP ; std::_Vector_const_iterator<std::_Vector_val<WeaponInfo,std::allocator<WeaponInfo> > >::operator*
_TEXT	ENDS
PUBLIC	??E?$_Vector_const_iterator@V?$_Vector_val@UWeaponInfo@@V?$allocator@UWeaponInfo@@@std@@@std@@@std@@QAEAAV01@XZ ; std::_Vector_const_iterator<std::_Vector_val<WeaponInfo,std::allocator<WeaponInfo> > >::operator++
; Function compile flags: /Ogsp
;	COMDAT ??E?$_Vector_const_iterator@V?$_Vector_val@UWeaponInfo@@V?$allocator@UWeaponInfo@@@std@@@std@@@std@@QAEAAV01@XZ
_TEXT	SEGMENT
??E?$_Vector_const_iterator@V?$_Vector_val@UWeaponInfo@@V?$allocator@UWeaponInfo@@@std@@@std@@@std@@QAEAAV01@XZ PROC ; std::_Vector_const_iterator<std::_Vector_val<WeaponInfo,std::allocator<WeaponInfo> > >::operator++, COMDAT
; _this$ = ecx

; 93   : 		{	// preincrement

  00000	8b c1		 mov	 eax, ecx

; 94   :  #if _ITERATOR_DEBUG_LEVEL == 2
; 95   : 		if (this->_Getcont() == 0
; 96   : 			|| this->_Ptr == 0
; 97   : 			|| ((_Myvec *)this->_Getcont())->_Mylast <= this->_Ptr)
; 98   : 			{	// report error
; 99   : 			_DEBUG_ERROR("vector iterator not incrementable");
; 100  : 			_SCL_SECURE_OUT_OF_RANGE;
; 101  : 			}
; 102  : 
; 103  :  #elif _ITERATOR_DEBUG_LEVEL == 1
; 104  : 		_SCL_SECURE_VALIDATE(this->_Getcont() != 0);
; 105  : 		_SCL_SECURE_VALIDATE_RANGE(
; 106  : 			this->_Ptr != 0
; 107  : 			&& this->_Ptr < ((_Myvec *)this->_Getcont())->_Mylast);
; 108  :  #endif /* _ITERATOR_DEBUG_LEVEL */
; 109  : 
; 110  : 		++this->_Ptr;

  00002	83 00 28	 add	 DWORD PTR [eax], 40	; 00000028H

; 111  : 		return (*this);
; 112  : 		}

  00005	c3		 ret	 0
??E?$_Vector_const_iterator@V?$_Vector_val@UWeaponInfo@@V?$allocator@UWeaponInfo@@@std@@@std@@@std@@QAEAAV01@XZ ENDP ; std::_Vector_const_iterator<std::_Vector_val<WeaponInfo,std::allocator<WeaponInfo> > >::operator++
_TEXT	ENDS
PUBLIC	??D?$_Vector_const_iterator@V?$_Vector_val@UForceInfo@@V?$allocator@UForceInfo@@@std@@@std@@@std@@QBEABUForceInfo@@XZ ; std::_Vector_const_iterator<std::_Vector_val<ForceInfo,std::allocator<ForceInfo> > >::operator*
; Function compile flags: /Ogsp
;	COMDAT ??D?$_Vector_const_iterator@V?$_Vector_val@UForceInfo@@V?$allocator@UForceInfo@@@std@@@std@@@std@@QBEABUForceInfo@@XZ
_TEXT	SEGMENT
??D?$_Vector_const_iterator@V?$_Vector_val@UForceInfo@@V?$allocator@UForceInfo@@@std@@@std@@@std@@QBEABUForceInfo@@XZ PROC ; std::_Vector_const_iterator<std::_Vector_val<ForceInfo,std::allocator<ForceInfo> > >::operator*, COMDAT
; _this$ = ecx

; 64   :  #if _ITERATOR_DEBUG_LEVEL == 2
; 65   : 		if (this->_Getcont() == 0
; 66   : 			|| this->_Ptr == 0
; 67   : 			|| this->_Ptr < ((_Myvec *)this->_Getcont())->_Myfirst
; 68   : 			|| ((_Myvec *)this->_Getcont())->_Mylast <= this->_Ptr)
; 69   : 			{	// report error
; 70   : 			_DEBUG_ERROR("vector iterator not dereferencable");
; 71   : 			_SCL_SECURE_OUT_OF_RANGE;
; 72   : 			}
; 73   : 
; 74   :  #elif _ITERATOR_DEBUG_LEVEL == 1
; 75   : 		_SCL_SECURE_VALIDATE(this->_Getcont() != 0);
; 76   : 		_SCL_SECURE_VALIDATE_RANGE(
; 77   : 			this->_Ptr != 0
; 78   : 			&& ((_Myvec *)this->_Getcont())->_Myfirst <= this->_Ptr
; 79   : 			&& this->_Ptr < ((_Myvec *)this->_Getcont())->_Mylast);
; 80   :  #endif /* _ITERATOR_DEBUG_LEVEL */
; 81   : 
; 82   : 		__analysis_assume(this->_Ptr != 0);
; 83   : 
; 84   : 		return (*this->_Ptr);

  00000	8b 01		 mov	 eax, DWORD PTR [ecx]

; 85   : 		}

  00002	c3		 ret	 0
??D?$_Vector_const_iterator@V?$_Vector_val@UForceInfo@@V?$allocator@UForceInfo@@@std@@@std@@@std@@QBEABUForceInfo@@XZ ENDP ; std::_Vector_const_iterator<std::_Vector_val<ForceInfo,std::allocator<ForceInfo> > >::operator*
_TEXT	ENDS
PUBLIC	??E?$_Vector_const_iterator@V?$_Vector_val@UForceInfo@@V?$allocator@UForceInfo@@@std@@@std@@@std@@QAEAAV01@XZ ; std::_Vector_const_iterator<std::_Vector_val<ForceInfo,std::allocator<ForceInfo> > >::operator++
; Function compile flags: /Ogsp
;	COMDAT ??E?$_Vector_const_iterator@V?$_Vector_val@UForceInfo@@V?$allocator@UForceInfo@@@std@@@std@@@std@@QAEAAV01@XZ
_TEXT	SEGMENT
??E?$_Vector_const_iterator@V?$_Vector_val@UForceInfo@@V?$allocator@UForceInfo@@@std@@@std@@@std@@QAEAAV01@XZ PROC ; std::_Vector_const_iterator<std::_Vector_val<ForceInfo,std::allocator<ForceInfo> > >::operator++, COMDAT
; _this$ = ecx

; 93   : 		{	// preincrement

  00000	8b c1		 mov	 eax, ecx

; 94   :  #if _ITERATOR_DEBUG_LEVEL == 2
; 95   : 		if (this->_Getcont() == 0
; 96   : 			|| this->_Ptr == 0
; 97   : 			|| ((_Myvec *)this->_Getcont())->_Mylast <= this->_Ptr)
; 98   : 			{	// report error
; 99   : 			_DEBUG_ERROR("vector iterator not incrementable");
; 100  : 			_SCL_SECURE_OUT_OF_RANGE;
; 101  : 			}
; 102  : 
; 103  :  #elif _ITERATOR_DEBUG_LEVEL == 1
; 104  : 		_SCL_SECURE_VALIDATE(this->_Getcont() != 0);
; 105  : 		_SCL_SECURE_VALIDATE_RANGE(
; 106  : 			this->_Ptr != 0
; 107  : 			&& this->_Ptr < ((_Myvec *)this->_Getcont())->_Mylast);
; 108  :  #endif /* _ITERATOR_DEBUG_LEVEL */
; 109  : 
; 110  : 		++this->_Ptr;

  00002	83 00 0c	 add	 DWORD PTR [eax], 12	; 0000000cH

; 111  : 		return (*this);
; 112  : 		}

  00005	c3		 ret	 0
??E?$_Vector_const_iterator@V?$_Vector_val@UForceInfo@@V?$allocator@UForceInfo@@@std@@@std@@@std@@QAEAAV01@XZ ENDP ; std::_Vector_const_iterator<std::_Vector_val<ForceInfo,std::allocator<ForceInfo> > >::operator++
_TEXT	ENDS
PUBLIC	??$forward@ABUWeaponInfo@@@std@@YAABUWeaponInfo@@ABU1@@Z ; std::forward<WeaponInfo const &>
; Function compile flags: /Ogsp
; File c:\program files (x86)\microsoft visual studio 10.0\vc\include\utility
;	COMDAT ??$forward@ABUWeaponInfo@@@std@@YAABUWeaponInfo@@ABU1@@Z
_TEXT	SEGMENT
__Arg$ = 8						; size = 4
??$forward@ABUWeaponInfo@@@std@@YAABUWeaponInfo@@ABU1@@Z PROC ; std::forward<WeaponInfo const &>, COMDAT

; 78   : 	{	// forward _Arg, given explicitly specified type parameter

  00000	55		 push	 ebp
  00001	8b ec		 mov	 ebp, esp

; 79   : 	return ((_Ty&&)_Arg);

  00003	8b 45 08	 mov	 eax, DWORD PTR __Arg$[ebp]

; 80   : 	}

  00006	5d		 pop	 ebp
  00007	c3		 ret	 0
??$forward@ABUWeaponInfo@@@std@@YAABUWeaponInfo@@ABU1@@Z ENDP ; std::forward<WeaponInfo const &>
_TEXT	ENDS
PUBLIC	??$forward@ABUForceInfo@@@std@@YAABUForceInfo@@ABU1@@Z ; std::forward<ForceInfo const &>
; Function compile flags: /Ogsp
;	COMDAT ??$forward@ABUForceInfo@@@std@@YAABUForceInfo@@ABU1@@Z
_TEXT	SEGMENT
__Arg$ = 8						; size = 4
??$forward@ABUForceInfo@@@std@@YAABUForceInfo@@ABU1@@Z PROC ; std::forward<ForceInfo const &>, COMDAT

; 78   : 	{	// forward _Arg, given explicitly specified type parameter

  00000	55		 push	 ebp
  00001	8b ec		 mov	 ebp, esp

; 79   : 	return ((_Ty&&)_Arg);

  00003	8b 45 08	 mov	 eax, DWORD PTR __Arg$[ebp]

; 80   : 	}

  00006	5d		 pop	 ebp
  00007	c3		 ret	 0
??$forward@ABUForceInfo@@@std@@YAABUForceInfo@@ABU1@@Z ENDP ; std::forward<ForceInfo const &>
_TEXT	ENDS
PUBLIC	??$_Construct@UForceInfo@@ABU1@@std@@YAXPAUForceInfo@@ABU1@@Z ; std::_Construct<ForceInfo,ForceInfo const &>
; Function compile flags: /Ogsp
; File c:\program files (x86)\microsoft visual studio 10.0\vc\include\xmemory
;	COMDAT ??$_Construct@UForceInfo@@ABU1@@std@@YAXPAUForceInfo@@ABU1@@Z
_TEXT	SEGMENT
__Ptr$ = 8						; size = 4
__Val$ = 12						; size = 4
??$_Construct@UForceInfo@@ABU1@@std@@YAXPAUForceInfo@@ABU1@@Z PROC ; std::_Construct<ForceInfo,ForceInfo const &>, COMDAT

; 46   : 	{	// construct object at _Ptr with value _Val

  00000	55		 push	 ebp
  00001	8b ec		 mov	 ebp, esp
  00003	57		 push	 edi

; 47   : 	void _FARQ *_Vptr = _Ptr;
; 48   : 	::new (_Vptr) _Ty1(_STD forward<_Ty2>(_Val));

  00004	8b 7d 08	 mov	 edi, DWORD PTR __Ptr$[ebp]
  00007	85 ff		 test	 edi, edi
  00009	74 08		 je	 SHORT $LN3@Construct
  0000b	56		 push	 esi
  0000c	8b 75 0c	 mov	 esi, DWORD PTR __Val$[ebp]
  0000f	a5		 movsd
  00010	a5		 movsd
  00011	a5		 movsd
  00012	5e		 pop	 esi
$LN3@Construct:
  00013	5f		 pop	 edi

; 49   : 	}

  00014	5d		 pop	 ebp
  00015	c3		 ret	 0
??$_Construct@UForceInfo@@ABU1@@std@@YAXPAUForceInfo@@ABU1@@Z ENDP ; std::_Construct<ForceInfo,ForceInfo const &>
_TEXT	ENDS
PUBLIC	??0D3DXQUATERNION@@QAE@XZ			; D3DXQUATERNION::D3DXQUATERNION
; Function compile flags: /Ogsp
; File c:\program files (x86)\microsoft directx sdk (june 2010)\include\d3dx9math.h
;	COMDAT ??0D3DXQUATERNION@@QAE@XZ
_TEXT	SEGMENT
??0D3DXQUATERNION@@QAE@XZ PROC				; D3DXQUATERNION::D3DXQUATERNION, COMDAT
; _this$ = ecx

; 429  :     D3DXQUATERNION() {}

  00000	8b c1		 mov	 eax, ecx
  00002	c3		 ret	 0
??0D3DXQUATERNION@@QAE@XZ ENDP				; D3DXQUATERNION::D3DXQUATERNION
_TEXT	ENDS
PUBLIC	??0D3DXVECTOR3@@QAE@MMM@Z			; D3DXVECTOR3::D3DXVECTOR3
; Function compile flags: /Ogsp
; File c:\program files (x86)\microsoft directx sdk (june 2010)\include\d3dx9math.inl
;	COMDAT ??0D3DXVECTOR3@@QAE@MMM@Z
_TEXT	SEGMENT
_fx$ = 8						; size = 4
_fy$ = 12						; size = 4
_fz$ = 16						; size = 4
??0D3DXVECTOR3@@QAE@MMM@Z PROC				; D3DXVECTOR3::D3DXVECTOR3, COMDAT
; _this$ = ecx

; 303  : {

  00000	55		 push	 ebp
  00001	8b ec		 mov	 ebp, esp

; 304  :     x = fx;

  00003	f3 0f 10 45 08	 movss	 xmm0, DWORD PTR _fx$[ebp]
  00008	8b c1		 mov	 eax, ecx
  0000a	f3 0f 11 00	 movss	 DWORD PTR [eax], xmm0

; 305  :     y = fy;

  0000e	f3 0f 10 45 0c	 movss	 xmm0, DWORD PTR _fy$[ebp]
  00013	f3 0f 11 40 04	 movss	 DWORD PTR [eax+4], xmm0

; 306  :     z = fz;

  00018	f3 0f 10 45 10	 movss	 xmm0, DWORD PTR _fz$[ebp]
  0001d	f3 0f 11 40 08	 movss	 DWORD PTR [eax+8], xmm0

; 307  : }

  00022	5d		 pop	 ebp
  00023	c2 0c 00	 ret	 12			; 0000000cH
??0D3DXVECTOR3@@QAE@MMM@Z ENDP				; D3DXVECTOR3::D3DXVECTOR3
_TEXT	ENDS
PUBLIC	__mask@@NegFloat@
PUBLIC	??GD3DXVECTOR3@@QBE?AU0@XZ			; D3DXVECTOR3::operator-
;	COMDAT __mask@@NegFloat@
CONST	SEGMENT
__mask@@NegFloat@ DB 00H, 00H, 00H, 080H, 00H, 00H, 00H, 080H, 00H, 00H, 00H
	DB	080H, 00H, 00H, 00H, 080H
; Function compile flags: /Ogsp
CONST	ENDS
;	COMDAT ??GD3DXVECTOR3@@QBE?AU0@XZ
_TEXT	SEGMENT
___$ReturnUdt$ = 8					; size = 4
??GD3DXVECTOR3@@QBE?AU0@XZ PROC				; D3DXVECTOR3::operator-, COMDAT
; _this$ = ecx

; 372  : {

  00000	55		 push	 ebp
  00001	8b ec		 mov	 ebp, esp

; 373  :     return D3DXVECTOR3(-x, -y, -z);

  00003	f3 0f 10 05 00
	00 00 00	 movss	 xmm0, DWORD PTR __mask@@NegFloat@
  0000b	8b 45 08	 mov	 eax, DWORD PTR ___$ReturnUdt$[ebp]
  0000e	f3 0f 10 09	 movss	 xmm1, DWORD PTR [ecx]
  00012	0f 57 c8	 xorps	 xmm1, xmm0
  00015	f3 0f 11 08	 movss	 DWORD PTR [eax], xmm1
  00019	f3 0f 10 49 04	 movss	 xmm1, DWORD PTR [ecx+4]
  0001e	0f 57 c8	 xorps	 xmm1, xmm0
  00021	f3 0f 11 48 04	 movss	 DWORD PTR [eax+4], xmm1
  00026	f3 0f 10 49 08	 movss	 xmm1, DWORD PTR [ecx+8]
  0002b	0f 57 c8	 xorps	 xmm1, xmm0
  0002e	f3 0f 11 48 08	 movss	 DWORD PTR [eax+8], xmm1

; 374  : }

  00033	5d		 pop	 ebp
  00034	c2 04 00	 ret	 4
??GD3DXVECTOR3@@QBE?AU0@XZ ENDP				; D3DXVECTOR3::operator-
_TEXT	ENDS
PUBLIC	?_DECSTR@@YAXPADH@Z				; _DECSTR
; Function compile flags: /Ogsp
; File d:\lost saga for developer\youtube\tutorial\source\src\lsclient\stringprotect.h
;	COMDAT ?_DECSTR@@YAXPADH@Z
_TEXT	SEGMENT
_s$ = 8							; size = 4
_l$ = 12						; size = 4
?_DECSTR@@YAXPADH@Z PROC				; _DECSTR, COMDAT

; 40   : __forceinline void _DECSTR(char* s, int l){int i=0,l4=(l-1)/4,*p=(int*)s;s[l-1]=0;for(;i<l4;++i)*(p++)^=0xEAEBECED;for(i=l4*4;i<l-1;++i)s[i]^=0xED-i%4;}

  00000	55		 push	 ebp
  00001	8b ec		 mov	 ebp, esp
  00003	8b 4d 0c	 mov	 ecx, DWORD PTR _l$[ebp]
  00006	56		 push	 esi
  00007	8b 75 08	 mov	 esi, DWORD PTR _s$[ebp]
  0000a	57		 push	 edi
  0000b	8d 79 ff	 lea	 edi, DWORD PTR [ecx-1]
  0000e	8b c7		 mov	 eax, edi
  00010	99		 cdq
  00011	83 e2 03	 and	 edx, 3
  00014	03 c2		 add	 eax, edx
  00016	c1 f8 02	 sar	 eax, 2
  00019	8b d6		 mov	 edx, esi
  0001b	c6 44 0e ff 00	 mov	 BYTE PTR [esi+ecx-1], 0
  00020	85 c0		 test	 eax, eax
  00022	7e 0e		 jle	 SHORT $LN4@DECSTR
  00024	8b c8		 mov	 ecx, eax
$LL6@DECSTR:
  00026	81 32 ed ec eb
	ea		 xor	 DWORD PTR [edx], -353637139 ; eaebecedH
  0002c	83 c2 04	 add	 edx, 4
  0002f	49		 dec	 ecx
  00030	75 f4		 jne	 SHORT $LL6@DECSTR
$LN4@DECSTR:
  00032	c1 e0 02	 shl	 eax, 2
  00035	eb 17		 jmp	 SHORT $LN14@DECSTR
$LL3@DECSTR:
  00037	8b c8		 mov	 ecx, eax
  00039	81 e1 03 00 00
	80		 and	 ecx, -2147483645	; 80000003H
  0003f	79 05		 jns	 SHORT $LN13@DECSTR
  00041	49		 dec	 ecx
  00042	83 c9 fc	 or	 ecx, -4			; fffffffcH
  00045	41		 inc	 ecx
$LN13@DECSTR:
  00046	b2 ed		 mov	 dl, -19			; ffffffedH
  00048	2a d1		 sub	 dl, cl
  0004a	30 14 30	 xor	 BYTE PTR [eax+esi], dl
  0004d	40		 inc	 eax
$LN14@DECSTR:
  0004e	3b c7		 cmp	 eax, edi
  00050	7c e5		 jl	 SHORT $LL3@DECSTR
  00052	5f		 pop	 edi
  00053	5e		 pop	 esi
  00054	5d		 pop	 ebp
  00055	c3		 ret	 0
?_DECSTR@@YAXPADH@Z ENDP				; _DECSTR
_TEXT	ENDS
PUBLIC	?return57@@YAIXZ				; return57
; Function compile flags: /Ogsp
; File d:\lost saga for developer\youtube\tutorial\source\src\lsclient\veryoftenusedefine.h
;	COMDAT ?return57@@YAIXZ
_TEXT	SEGMENT
?return57@@YAIXZ PROC					; return57, COMDAT

; 15   : __forceinline unsigned int return57() { __asm mov eax, 57 };

  00000	b8 39 00 00 00	 mov	 eax, 57			; 00000039H
  00005	c3		 ret	 0
?return57@@YAIXZ ENDP					; return57
_TEXT	ENDS
PUBLIC	?GetGroup@ioGameEntity@@QBEPAVioEntityGroup@@XZ	; ioGameEntity::GetGroup
; Function compile flags: /Ogsp
; File d:\lost saga for developer\youtube\tutorial\source\src\lsclient\iogameentity.h
;	COMDAT ?GetGroup@ioGameEntity@@QBEPAVioEntityGroup@@XZ
_TEXT	SEGMENT
?GetGroup@ioGameEntity@@QBEPAVioEntityGroup@@XZ PROC	; ioGameEntity::GetGroup, COMDAT
; _this$ = ecx

; 166  : 	inline ioEntityGroup* GetGroup() const { return m_pGroup; }

  00000	8b 41 04	 mov	 eax, DWORD PTR [ecx+4]
  00003	c3		 ret	 0
?GetGroup@ioGameEntity@@QBEPAVioEntityGroup@@XZ ENDP	; ioGameEntity::GetGroup
_TEXT	ENDS
PUBLIC	??1WeaponInfo@@QAE@XZ				; WeaponInfo::~WeaponInfo
EXTRN	__imp_??1ioHashString@@QAE@XZ:PROC
; Function compile flags: /Ogsp
;	COMDAT ??1WeaponInfo@@QAE@XZ
_TEXT	SEGMENT
??1WeaponInfo@@QAE@XZ PROC				; WeaponInfo::~WeaponInfo, COMDAT
; _this$ = ecx
  00000	83 c1 08	 add	 ecx, 8
  00003	ff 25 00 00 00
	00		 jmp	 DWORD PTR __imp_??1ioHashString@@QAE@XZ
??1WeaponInfo@@QAE@XZ ENDP				; WeaponInfo::~WeaponInfo
_TEXT	ENDS
PUBLIC	?size@?$vector@VioHashString@@V?$allocator@VioHashString@@@std@@@std@@QBEIXZ ; std::vector<ioHashString,std::allocator<ioHashString> >::size
; Function compile flags: /Ogsp
; File c:\program files (x86)\microsoft visual studio 10.0\vc\include\vector
;	COMDAT ?size@?$vector@VioHashString@@V?$allocator@VioHashString@@@std@@@std@@QBEIXZ
_TEXT	SEGMENT
?size@?$vector@VioHashString@@V?$allocator@VioHashString@@@std@@@std@@QBEIXZ PROC ; std::vector<ioHashString,std::allocator<ioHashString> >::size, COMDAT
; _this$ = ecx

; 879  : 		return (this->_Mylast - this->_Myfirst);

  00000	8b 41 04	 mov	 eax, DWORD PTR [ecx+4]
  00003	2b 01		 sub	 eax, DWORD PTR [ecx]
  00005	c1 f8 04	 sar	 eax, 4

; 880  : 		}

  00008	c3		 ret	 0
?size@?$vector@VioHashString@@V?$allocator@VioHashString@@@std@@@std@@QBEIXZ ENDP ; std::vector<ioHashString,std::allocator<ioHashString> >::size
_TEXT	ENDS
PUBLIC	??1?$_Vector_val@VioHashString@@V?$allocator@VioHashString@@@std@@@std@@QAE@XZ ; std::_Vector_val<ioHashString,std::allocator<ioHashString> >::~_Vector_val<ioHashString,std::allocator<ioHashString> >
; Function compile flags: /Ogsp
;	COMDAT ??1?$_Vector_val@VioHashString@@V?$allocator@VioHashString@@@std@@@std@@QAE@XZ
_TEXT	SEGMENT
??1?$_Vector_val@VioHashString@@V?$allocator@VioHashString@@@std@@@std@@QAE@XZ PROC ; std::_Vector_val<ioHashString,std::allocator<ioHashString> >::~_Vector_val<ioHashString,std::allocator<ioHashString> >, COMDAT
; _this$ = ecx

; 434  : 		}

  00000	c3		 ret	 0
??1?$_Vector_val@VioHashString@@V?$allocator@VioHashString@@@std@@@std@@QAE@XZ ENDP ; std::_Vector_val<ioHashString,std::allocator<ioHashString> >::~_Vector_val<ioHashString,std::allocator<ioHashString> >
_TEXT	ENDS
PUBLIC	??0?$allocator@VioHashString@@@std@@QAE@XZ	; std::allocator<ioHashString>::allocator<ioHashString>
; Function compile flags: /Ogsp
; File c:\program files (x86)\microsoft visual studio 10.0\vc\include\xmemory
;	COMDAT ??0?$allocator@VioHashString@@@std@@QAE@XZ
_TEXT	SEGMENT
??0?$allocator@VioHashString@@@std@@QAE@XZ PROC		; std::allocator<ioHashString>::allocator<ioHashString>, COMDAT
; _this$ = ecx

; 161  : 	_ALLOCATOR() _THROW0()

  00000	8b c1		 mov	 eax, ecx

; 162  : 		{	// construct default allocator (do nothing)
; 163  : 		}

  00002	c3		 ret	 0
??0?$allocator@VioHashString@@@std@@QAE@XZ ENDP		; std::allocator<ioHashString>::allocator<ioHashString>
_TEXT	ENDS
PUBLIC	??0?$allocator@VioHashString@@@std@@QAE@ABV01@@Z ; std::allocator<ioHashString>::allocator<ioHashString>
; Function compile flags: /Ogsp
;	COMDAT ??0?$allocator@VioHashString@@@std@@QAE@ABV01@@Z
_TEXT	SEGMENT
___formal$ = 8						; size = 4
??0?$allocator@VioHashString@@@std@@QAE@ABV01@@Z PROC	; std::allocator<ioHashString>::allocator<ioHashString>, COMDAT
; _this$ = ecx

; 165  : 	_ALLOCATOR(const _ALLOCATOR<_Ty>&) _THROW0()

  00000	8b c1		 mov	 eax, ecx

; 166  : 		{	// construct by copying (do nothing)
; 167  : 		}

  00002	c2 04 00	 ret	 4
??0?$allocator@VioHashString@@@std@@QAE@ABV01@@Z ENDP	; std::allocator<ioHashString>::allocator<ioHashString>
_TEXT	ENDS
PUBLIC	??1?$_Vector_val@UWeaponInfo@@V?$allocator@UWeaponInfo@@@std@@@std@@QAE@XZ ; std::_Vector_val<WeaponInfo,std::allocator<WeaponInfo> >::~_Vector_val<WeaponInfo,std::allocator<WeaponInfo> >
; Function compile flags: /Ogsp
; File c:\program files (x86)\microsoft visual studio 10.0\vc\include\vector
;	COMDAT ??1?$_Vector_val@UWeaponInfo@@V?$allocator@UWeaponInfo@@@std@@@std@@QAE@XZ
_TEXT	SEGMENT
??1?$_Vector_val@UWeaponInfo@@V?$allocator@UWeaponInfo@@@std@@@std@@QAE@XZ PROC ; std::_Vector_val<WeaponInfo,std::allocator<WeaponInfo> >::~_Vector_val<WeaponInfo,std::allocator<WeaponInfo> >, COMDAT
; _this$ = ecx

; 434  : 		}

  00000	c3		 ret	 0
??1?$_Vector_val@UWeaponInfo@@V?$allocator@UWeaponInfo@@@std@@@std@@QAE@XZ ENDP ; std::_Vector_val<WeaponInfo,std::allocator<WeaponInfo> >::~_Vector_val<WeaponInfo,std::allocator<WeaponInfo> >
_TEXT	ENDS
PUBLIC	??0?$allocator@UWeaponInfo@@@std@@QAE@XZ	; std::allocator<WeaponInfo>::allocator<WeaponInfo>
; Function compile flags: /Ogsp
; File c:\program files (x86)\microsoft visual studio 10.0\vc\include\xmemory
;	COMDAT ??0?$allocator@UWeaponInfo@@@std@@QAE@XZ
_TEXT	SEGMENT
??0?$allocator@UWeaponInfo@@@std@@QAE@XZ PROC		; std::allocator<WeaponInfo>::allocator<WeaponInfo>, COMDAT
; _this$ = ecx

; 161  : 	_ALLOCATOR() _THROW0()

  00000	8b c1		 mov	 eax, ecx

; 162  : 		{	// construct default allocator (do nothing)
; 163  : 		}

  00002	c3		 ret	 0
??0?$allocator@UWeaponInfo@@@std@@QAE@XZ ENDP		; std::allocator<WeaponInfo>::allocator<WeaponInfo>
_TEXT	ENDS
PUBLIC	??1?$_Vector_val@UForceInfo@@V?$allocator@UForceInfo@@@std@@@std@@QAE@XZ ; std::_Vector_val<ForceInfo,std::allocator<ForceInfo> >::~_Vector_val<ForceInfo,std::allocator<ForceInfo> >
; Function compile flags: /Ogsp
; File c:\program files (x86)\microsoft visual studio 10.0\vc\include\vector
;	COMDAT ??1?$_Vector_val@UForceInfo@@V?$allocator@UForceInfo@@@std@@@std@@QAE@XZ
_TEXT	SEGMENT
??1?$_Vector_val@UForceInfo@@V?$allocator@UForceInfo@@@std@@@std@@QAE@XZ PROC ; std::_Vector_val<ForceInfo,std::allocator<ForceInfo> >::~_Vector_val<ForceInfo,std::allocator<ForceInfo> >, COMDAT
; _this$ = ecx

; 434  : 		}

  00000	c3		 ret	 0
??1?$_Vector_val@UForceInfo@@V?$allocator@UForceInfo@@@std@@@std@@QAE@XZ ENDP ; std::_Vector_val<ForceInfo,std::allocator<ForceInfo> >::~_Vector_val<ForceInfo,std::allocator<ForceInfo> >
_TEXT	ENDS
PUBLIC	??0?$allocator@UForceInfo@@@std@@QAE@XZ		; std::allocator<ForceInfo>::allocator<ForceInfo>
; Function compile flags: /Ogsp
; File c:\program files (x86)\microsoft visual studio 10.0\vc\include\xmemory
;	COMDAT ??0?$allocator@UForceInfo@@@std@@QAE@XZ
_TEXT	SEGMENT
??0?$allocator@UForceInfo@@@std@@QAE@XZ PROC		; std::allocator<ForceInfo>::allocator<ForceInfo>, COMDAT
; _this$ = ecx

; 161  : 	_ALLOCATOR() _THROW0()

  00000	8b c1		 mov	 eax, ecx

; 162  : 		{	// construct default allocator (do nothing)
; 163  : 		}

  00002	c3		 ret	 0
??0?$allocator@UForceInfo@@@std@@QAE@XZ ENDP		; std::allocator<ForceInfo>::allocator<ForceInfo>
_TEXT	ENDS
PUBLIC	?EncryptValueToPool@?$CEncrypt@M@@AAEXPBD@Z	; CEncrypt<float>::EncryptValueToPool
EXTRN	?EncryptByte@ccddaabb@@QAEXPBDPADH@Z:PROC	; ccddaabb::EncryptByte
; Function compile flags: /Ogsp
; File d:\lost saga for developer\youtube\tutorial\source\src\lsclient\encryptvalue.h
;	COMDAT ?EncryptValueToPool@?$CEncrypt@M@@AAEXPBD@Z
_TEXT	SEGMENT
_value$ = 8						; size = 4
?EncryptValueToPool@?$CEncrypt@M@@AAEXPBD@Z PROC	; CEncrypt<float>::EncryptValueToPool, COMDAT
; _this$ = ecx

; 67   : 	{

  00000	55		 push	 ebp
  00001	8b ec		 mov	 ebp, esp

; 68   : 		m_RC5.EncryptByte( value, m_MemPool, max(m_ValueSize, DEFAULT_ENCRYPT) );

  00003	0f b7 41 06	 movzx	 eax, WORD PTR [ecx+6]
  00007	83 f8 04	 cmp	 eax, 4
  0000a	77 03		 ja	 SHORT $LN4@EncryptVal
  0000c	6a 04		 push	 4
  0000e	58		 pop	 eax
$LN4@EncryptVal:
  0000f	50		 push	 eax
  00010	8d 41 1c	 lea	 eax, DWORD PTR [ecx+28]
  00013	50		 push	 eax
  00014	ff 75 08	 push	 DWORD PTR _value$[ebp]
  00017	83 c1 0c	 add	 ecx, 12			; 0000000cH
  0001a	e8 00 00 00 00	 call	 ?EncryptByte@ccddaabb@@QAEXPBDPADH@Z ; ccddaabb::EncryptByte

; 69   : 		
; 70   : 	}

  0001f	5d		 pop	 ebp
  00020	c2 04 00	 ret	 4
?EncryptValueToPool@?$CEncrypt@M@@AAEXPBD@Z ENDP	; CEncrypt<float>::EncryptValueToPool
_TEXT	ENDS
PUBLIC	?DecryptValueToPool@?$CEncrypt@_N@@QAEXPA_N@Z	; CEncrypt<bool>::DecryptValueToPool
EXTRN	?DecryptByte@ccddaabb@@QBEXPBDPADH@Z:PROC	; ccddaabb::DecryptByte
; Function compile flags: /Ogsp
;	COMDAT ?DecryptValueToPool@?$CEncrypt@_N@@QAEXPA_N@Z
_TEXT	SEGMENT
_value$ = 8						; size = 4
?DecryptValueToPool@?$CEncrypt@_N@@QAEXPA_N@Z PROC	; CEncrypt<bool>::DecryptValueToPool, COMDAT
; _this$ = ecx

; 219  : 	{

  00000	55		 push	 ebp
  00001	8b ec		 mov	 ebp, esp
  00003	56		 push	 esi

; 220  : 		m_RC5.DecryptByte( m_MemPool, m_TempMem, 4 );

  00004	8d 71 28	 lea	 esi, DWORD PTR [ecx+40]
  00007	6a 04		 push	 4
  00009	8d 41 1c	 lea	 eax, DWORD PTR [ecx+28]
  0000c	56		 push	 esi
  0000d	50		 push	 eax
  0000e	83 c1 0c	 add	 ecx, 12			; 0000000cH
  00011	e8 00 00 00 00	 call	 ?DecryptByte@ccddaabb@@QBEXPBDPADH@Z ; ccddaabb::DecryptByte

; 221  : 		*value = *((bool*)m_TempMem);

  00016	8a 06		 mov	 al, BYTE PTR [esi]
  00018	8b 4d 08	 mov	 ecx, DWORD PTR _value$[ebp]
  0001b	88 01		 mov	 BYTE PTR [ecx], al
  0001d	5e		 pop	 esi

; 222  : 	}

  0001e	5d		 pop	 ebp
  0001f	c2 04 00	 ret	 4
?DecryptValueToPool@?$CEncrypt@_N@@QAEXPA_N@Z ENDP	; CEncrypt<bool>::DecryptValueToPool
_TEXT	ENDS
PUBLIC	??_C@_0BD@OLBABOEK@vector?$DMT?$DO?5too?5long?$AA@ ; `string'
PUBLIC	?_Xlen@?$vector@VioHashString@@V?$allocator@VioHashString@@@std@@@std@@IBEXXZ ; std::vector<ioHashString,std::allocator<ioHashString> >::_Xlen
EXTRN	__imp_?_Xlength_error@std@@YAXPBD@Z:PROC
;	COMDAT ??_C@_0BD@OLBABOEK@vector?$DMT?$DO?5too?5long?$AA@
; File c:\program files (x86)\microsoft visual studio 10.0\vc\include\vector
CONST	SEGMENT
??_C@_0BD@OLBABOEK@vector?$DMT?$DO?5too?5long?$AA@ DB 'vector<T> too long'
	DB	00H						; `string'
; Function compile flags: /Ogsp
CONST	ENDS
;	COMDAT ?_Xlen@?$vector@VioHashString@@V?$allocator@VioHashString@@@std@@@std@@IBEXXZ
_TEXT	SEGMENT
?_Xlen@?$vector@VioHashString@@V?$allocator@VioHashString@@@std@@@std@@IBEXXZ PROC ; std::vector<ioHashString,std::allocator<ioHashString> >::_Xlen, COMDAT
; _this$ = ecx

; 1427 : 		_Xlength_error("vector<T> too long");

  00000	68 00 00 00 00	 push	 OFFSET ??_C@_0BD@OLBABOEK@vector?$DMT?$DO?5too?5long?$AA@
  00005	ff 15 00 00 00
	00		 call	 DWORD PTR __imp_?_Xlength_error@std@@YAXPBD@Z
$LN4@Xlen:
$LN3@Xlen:
  0000b	cc		 int	 3
?_Xlen@?$vector@VioHashString@@V?$allocator@VioHashString@@@std@@@std@@IBEXXZ ENDP ; std::vector<ioHashString,std::allocator<ioHashString> >::_Xlen
_TEXT	ENDS
PUBLIC	?deallocate@?$allocator@VioHashString@@@std@@QAEXPAVioHashString@@I@Z ; std::allocator<ioHashString>::deallocate
; Function compile flags: /Ogsp
; File c:\program files (x86)\microsoft visual studio 10.0\vc\include\xmemory
;	COMDAT ?deallocate@?$allocator@VioHashString@@@std@@QAEXPAVioHashString@@I@Z
_TEXT	SEGMENT
__Ptr$ = 8						; size = 4
___formal$ = 12						; size = 4
?deallocate@?$allocator@VioHashString@@@std@@QAEXPAVioHashString@@I@Z PROC ; std::allocator<ioHashString>::deallocate, COMDAT
; _this$ = ecx

; 181  : 		{	// deallocate object at _Ptr, ignore size

  00000	55		 push	 ebp
  00001	8b ec		 mov	 ebp, esp

; 182  : 		::operator delete(_Ptr);

  00003	ff 75 08	 push	 DWORD PTR __Ptr$[ebp]
  00006	e8 00 00 00 00	 call	 ??3@YAXPAX@Z		; operator delete
  0000b	59		 pop	 ecx

; 183  : 		}

  0000c	5d		 pop	 ebp
  0000d	c2 08 00	 ret	 8
?deallocate@?$allocator@VioHashString@@@std@@QAEXPAVioHashString@@I@Z ENDP ; std::allocator<ioHashString>::deallocate
_TEXT	ENDS
PUBLIC	??0?$allocator@UWeaponInfo@@@std@@QAE@ABV01@@Z	; std::allocator<WeaponInfo>::allocator<WeaponInfo>
; Function compile flags: /Ogsp
;	COMDAT ??0?$allocator@UWeaponInfo@@@std@@QAE@ABV01@@Z
_TEXT	SEGMENT
___formal$ = 8						; size = 4
??0?$allocator@UWeaponInfo@@@std@@QAE@ABV01@@Z PROC	; std::allocator<WeaponInfo>::allocator<WeaponInfo>, COMDAT
; _this$ = ecx

; 165  : 	_ALLOCATOR(const _ALLOCATOR<_Ty>&) _THROW0()

  00000	8b c1		 mov	 eax, ecx

; 166  : 		{	// construct by copying (do nothing)
; 167  : 		}

  00002	c2 04 00	 ret	 4
??0?$allocator@UWeaponInfo@@@std@@QAE@ABV01@@Z ENDP	; std::allocator<WeaponInfo>::allocator<WeaponInfo>
_TEXT	ENDS
PUBLIC	?deallocate@?$allocator@UWeaponInfo@@@std@@QAEXPAUWeaponInfo@@I@Z ; std::allocator<WeaponInfo>::deallocate
; Function compile flags: /Ogsp
;	COMDAT ?deallocate@?$allocator@UWeaponInfo@@@std@@QAEXPAUWeaponInfo@@I@Z
_TEXT	SEGMENT
__Ptr$ = 8						; size = 4
___formal$ = 12						; size = 4
?deallocate@?$allocator@UWeaponInfo@@@std@@QAEXPAUWeaponInfo@@I@Z PROC ; std::allocator<WeaponInfo>::deallocate, COMDAT
; _this$ = ecx

; 181  : 		{	// deallocate object at _Ptr, ignore size

  00000	55		 push	 ebp
  00001	8b ec		 mov	 ebp, esp

; 182  : 		::operator delete(_Ptr);

  00003	ff 75 08	 push	 DWORD PTR __Ptr$[ebp]
  00006	e8 00 00 00 00	 call	 ??3@YAXPAX@Z		; operator delete
  0000b	59		 pop	 ecx

; 183  : 		}

  0000c	5d		 pop	 ebp
  0000d	c2 08 00	 ret	 8
?deallocate@?$allocator@UWeaponInfo@@@std@@QAEXPAUWeaponInfo@@I@Z ENDP ; std::allocator<WeaponInfo>::deallocate
_TEXT	ENDS
PUBLIC	??0?$allocator@UForceInfo@@@std@@QAE@ABV01@@Z	; std::allocator<ForceInfo>::allocator<ForceInfo>
; Function compile flags: /Ogsp
;	COMDAT ??0?$allocator@UForceInfo@@@std@@QAE@ABV01@@Z
_TEXT	SEGMENT
___formal$ = 8						; size = 4
??0?$allocator@UForceInfo@@@std@@QAE@ABV01@@Z PROC	; std::allocator<ForceInfo>::allocator<ForceInfo>, COMDAT
; _this$ = ecx

; 165  : 	_ALLOCATOR(const _ALLOCATOR<_Ty>&) _THROW0()

  00000	8b c1		 mov	 eax, ecx

; 166  : 		{	// construct by copying (do nothing)
; 167  : 		}

  00002	c2 04 00	 ret	 4
??0?$allocator@UForceInfo@@@std@@QAE@ABV01@@Z ENDP	; std::allocator<ForceInfo>::allocator<ForceInfo>
_TEXT	ENDS
PUBLIC	?deallocate@?$allocator@UForceInfo@@@std@@QAEXPAUForceInfo@@I@Z ; std::allocator<ForceInfo>::deallocate
; Function compile flags: /Ogsp
;	COMDAT ?deallocate@?$allocator@UForceInfo@@@std@@QAEXPAUForceInfo@@I@Z
_TEXT	SEGMENT
__Ptr$ = 8						; size = 4
___formal$ = 12						; size = 4
?deallocate@?$allocator@UForceInfo@@@std@@QAEXPAUForceInfo@@I@Z PROC ; std::allocator<ForceInfo>::deallocate, COMDAT
; _this$ = ecx

; 181  : 		{	// deallocate object at _Ptr, ignore size

  00000	55		 push	 ebp
  00001	8b ec		 mov	 ebp, esp

; 182  : 		::operator delete(_Ptr);

  00003	ff 75 08	 push	 DWORD PTR __Ptr$[ebp]
  00006	e8 00 00 00 00	 call	 ??3@YAXPAX@Z		; operator delete
  0000b	59		 pop	 ecx

; 183  : 		}

  0000c	5d		 pop	 ebp
  0000d	c2 08 00	 ret	 8
?deallocate@?$allocator@UForceInfo@@@std@@QAEXPAUForceInfo@@I@Z ENDP ; std::allocator<ForceInfo>::deallocate
_TEXT	ENDS
PUBLIC	??0?$_Vector_const_iterator@V?$_Vector_val@VioHashString@@V?$allocator@VioHashString@@@std@@@std@@@std@@QAE@PAVioHashString@@PBU_Container_base0@1@@Z ; std::_Vector_const_iterator<std::_Vector_val<ioHashString,std::allocator<ioHashString> > >::_Vector_const_iterator<std::_Vector_val<ioHashString,std::allocator<ioHashString> > >
; Function compile flags: /Ogsp
; File c:\program files (x86)\microsoft visual studio 10.0\vc\include\vector
;	COMDAT ??0?$_Vector_const_iterator@V?$_Vector_val@VioHashString@@V?$allocator@VioHashString@@@std@@@std@@@std@@QAE@PAVioHashString@@PBU_Container_base0@1@@Z
_TEXT	SEGMENT
__Parg$ = 8						; size = 4
__Pvector$ = 12						; size = 4
??0?$_Vector_const_iterator@V?$_Vector_val@VioHashString@@V?$allocator@VioHashString@@@std@@@std@@@std@@QAE@PAVioHashString@@PBU_Container_base0@1@@Z PROC ; std::_Vector_const_iterator<std::_Vector_val<ioHashString,std::allocator<ioHashString> > >::_Vector_const_iterator<std::_Vector_val<ioHashString,std::allocator<ioHashString> > >, COMDAT
; _this$ = ecx

; 45   : 		{	// construct with pointer _Parg

  00000	55		 push	 ebp
  00001	8b ec		 mov	 ebp, esp
  00003	8b c1		 mov	 eax, ecx
  00005	8b 4d 08	 mov	 ecx, DWORD PTR __Parg$[ebp]
  00008	89 08		 mov	 DWORD PTR [eax], ecx

; 46   : 		this->_Adopt(_Pvector);
; 47   : 		}

  0000a	5d		 pop	 ebp
  0000b	c2 08 00	 ret	 8
??0?$_Vector_const_iterator@V?$_Vector_val@VioHashString@@V?$allocator@VioHashString@@@std@@@std@@@std@@QAE@PAVioHashString@@PBU_Container_base0@1@@Z ENDP ; std::_Vector_const_iterator<std::_Vector_val<ioHashString,std::allocator<ioHashString> > >::_Vector_const_iterator<std::_Vector_val<ioHashString,std::allocator<ioHashString> > >
_TEXT	ENDS
PUBLIC	??0?$_Vector_iterator@V?$_Vector_val@VioHashString@@V?$allocator@VioHashString@@@std@@@std@@@std@@QAE@PAVioHashString@@PBU_Container_base0@1@@Z ; std::_Vector_iterator<std::_Vector_val<ioHashString,std::allocator<ioHashString> > >::_Vector_iterator<std::_Vector_val<ioHashString,std::allocator<ioHashString> > >
; Function compile flags: /Ogsp
;	COMDAT ??0?$_Vector_iterator@V?$_Vector_val@VioHashString@@V?$allocator@VioHashString@@@std@@@std@@@std@@QAE@PAVioHashString@@PBU_Container_base0@1@@Z
_TEXT	SEGMENT
__Parg$ = 8						; size = 4
__Pvector$ = 12						; size = 4
??0?$_Vector_iterator@V?$_Vector_val@VioHashString@@V?$allocator@VioHashString@@@std@@@std@@@std@@QAE@PAVioHashString@@PBU_Container_base0@1@@Z PROC ; std::_Vector_iterator<std::_Vector_val<ioHashString,std::allocator<ioHashString> > >::_Vector_iterator<std::_Vector_val<ioHashString,std::allocator<ioHashString> > >, COMDAT
; _this$ = ecx

; 304  : 		{	// construct with pointer _Parg

  00000	55		 push	 ebp
  00001	8b ec		 mov	 ebp, esp
  00003	8b c1		 mov	 eax, ecx
  00005	8b 4d 08	 mov	 ecx, DWORD PTR __Parg$[ebp]
  00008	89 08		 mov	 DWORD PTR [eax], ecx

; 305  : 		}

  0000a	5d		 pop	 ebp
  0000b	c2 08 00	 ret	 8
??0?$_Vector_iterator@V?$_Vector_val@VioHashString@@V?$allocator@VioHashString@@@std@@@std@@@std@@QAE@PAVioHashString@@PBU_Container_base0@1@@Z ENDP ; std::_Vector_iterator<std::_Vector_val<ioHashString,std::allocator<ioHashString> > >::_Vector_iterator<std::_Vector_val<ioHashString,std::allocator<ioHashString> > >
_TEXT	ENDS
PUBLIC	?max_size@?$allocator@VioHashString@@@std@@QBEIXZ ; std::allocator<ioHashString>::max_size
; Function compile flags: /Ogsp
; File c:\program files (x86)\microsoft visual studio 10.0\vc\include\xmemory
;	COMDAT ?max_size@?$allocator@VioHashString@@@std@@QBEIXZ
_TEXT	SEGMENT
?max_size@?$allocator@VioHashString@@@std@@QBEIXZ PROC	; std::allocator<ioHashString>::max_size, COMDAT
; _this$ = ecx

; 218  : 		_SIZT _Count = (_SIZT)(-1) / sizeof (_Ty);
; 219  : 		return (0 < _Count ? _Count : 1);

  00000	b8 ff ff ff 0f	 mov	 eax, 268435455		; 0fffffffH

; 220  : 		}

  00005	c3		 ret	 0
?max_size@?$allocator@VioHashString@@@std@@QBEIXZ ENDP	; std::allocator<ioHashString>::max_size
_TEXT	ENDS
PUBLIC	?_Compat@?$_Vector_const_iterator@V?$_Vector_val@VioHashString@@V?$allocator@VioHashString@@@std@@@std@@@std@@QBEXABV12@@Z ; std::_Vector_const_iterator<std::_Vector_val<ioHashString,std::allocator<ioHashString> > >::_Compat
; Function compile flags: /Ogsp
; File c:\program files (x86)\microsoft visual studio 10.0\vc\include\vector
;	COMDAT ?_Compat@?$_Vector_const_iterator@V?$_Vector_val@VioHashString@@V?$allocator@VioHashString@@@std@@@std@@@std@@QBEXABV12@@Z
_TEXT	SEGMENT
___formal$ = 8						; size = 4
?_Compat@?$_Vector_const_iterator@V?$_Vector_val@VioHashString@@V?$allocator@VioHashString@@@std@@@std@@@std@@QBEXABV12@@Z PROC ; std::_Vector_const_iterator<std::_Vector_val<ioHashString,std::allocator<ioHashString> > >::_Compat, COMDAT
; _this$ = ecx

; 253  : 		}

  00000	c2 04 00	 ret	 4
?_Compat@?$_Vector_const_iterator@V?$_Vector_val@VioHashString@@V?$allocator@VioHashString@@@std@@@std@@@std@@QBEXABV12@@Z ENDP ; std::_Vector_const_iterator<std::_Vector_val<ioHashString,std::allocator<ioHashString> > >::_Compat
_TEXT	ENDS
PUBLIC	__TI2?AVbad_alloc@std@@
PUBLIC	??$_Allocate@VioHashString@@@std@@YAPAVioHashString@@IPAV1@@Z ; std::_Allocate<ioHashString>
PUBLIC	__CTA2?AVbad_alloc@std@@
PUBLIC	__CT??_R0?AVbad_alloc@std@@@8??0bad_alloc@std@@QAE@ABV01@@Z12
PUBLIC	??0bad_alloc@std@@QAE@ABV01@@Z			; std::bad_alloc::bad_alloc
PUBLIC	__CT??_R0?AVexception@std@@@8??0exception@std@@QAE@ABV01@@Z12
EXTRN	??2@YAPAXI@Z:PROC				; operator new
EXTRN	__CxxThrowException@8:PROC
EXTRN	??0exception@std@@QAE@ABV01@@Z:PROC		; std::exception::exception
;	COMDAT __CT??_R0?AVexception@std@@@8??0exception@std@@QAE@ABV01@@Z12
; File c:\program files (x86)\microsoft visual studio 10.0\vc\include\exception
xdata$x	SEGMENT
__CT??_R0?AVexception@std@@@8??0exception@std@@QAE@ABV01@@Z12 DD 00H
	DD	FLAT:??_R0?AVexception@std@@@8
	DD	00H
	DD	0ffffffffH
	ORG $+4
	DD	0cH
	DD	FLAT:??0exception@std@@QAE@ABV01@@Z
xdata$x	ENDS
;	COMDAT __CT??_R0?AVbad_alloc@std@@@8??0bad_alloc@std@@QAE@ABV01@@Z12
xdata$x	SEGMENT
__CT??_R0?AVbad_alloc@std@@@8??0bad_alloc@std@@QAE@ABV01@@Z12 DD 00H
	DD	FLAT:??_R0?AVbad_alloc@std@@@8
	DD	00H
	DD	0ffffffffH
	ORG $+4
	DD	0cH
	DD	FLAT:??0bad_alloc@std@@QAE@ABV01@@Z
xdata$x	ENDS
;	COMDAT __CTA2?AVbad_alloc@std@@
xdata$x	SEGMENT
__CTA2?AVbad_alloc@std@@ DD 02H
	DD	FLAT:__CT??_R0?AVbad_alloc@std@@@8??0bad_alloc@std@@QAE@ABV01@@Z12
	DD	FLAT:__CT??_R0?AVexception@std@@@8??0exception@std@@QAE@ABV01@@Z12
xdata$x	ENDS
;	COMDAT __TI2?AVbad_alloc@std@@
xdata$x	SEGMENT
__TI2?AVbad_alloc@std@@ DD 00H
	DD	FLAT:??1bad_alloc@std@@UAE@XZ
	DD	00H
	DD	FLAT:__CTA2?AVbad_alloc@std@@
; Function compile flags: /Ogsp
; File c:\program files (x86)\microsoft visual studio 10.0\vc\include\xmemory
xdata$x	ENDS
;	COMDAT ??$_Allocate@VioHashString@@@std@@YAPAVioHashString@@IPAV1@@Z
_TEXT	SEGMENT
$T527068 = -12						; size = 12
$T527073 = 8						; size = 4
__Count$ = 8						; size = 4
___formal$ = 12						; size = 4
??$_Allocate@VioHashString@@@std@@YAPAVioHashString@@IPAV1@@Z PROC ; std::_Allocate<ioHashString>, COMDAT

; 30   : 	{	// allocate storage for _Count elements of type _Ty

  00000	55		 push	 ebp
  00001	8b ec		 mov	 ebp, esp

; 31   : 	void *_Ptr = 0;
; 32   : 
; 33   : 	if (_Count <= 0)

  00003	8b 4d 08	 mov	 ecx, DWORD PTR __Count$[ebp]
  00006	83 ec 0c	 sub	 esp, 12			; 0000000cH
  00009	33 c0		 xor	 eax, eax
  0000b	85 c9		 test	 ecx, ecx

; 34   : 		_Count = 0;
; 35   : 	else if (((_SIZT)(-1) / sizeof (_Ty) < _Count)

  0000d	74 3c		 je	 SHORT $LN5@Allocate

; 36   : 		|| (_Ptr = ::operator new(_Count * sizeof (_Ty))) == 0)

  0000f	81 f9 ff ff ff
	0f		 cmp	 ecx, 268435455		; 0fffffffH
  00015	77 0e		 ja	 SHORT $LN1@Allocate
  00017	c1 e1 04	 shl	 ecx, 4
  0001a	51		 push	 ecx
  0001b	e8 00 00 00 00	 call	 ??2@YAPAXI@Z		; operator new
  00020	59		 pop	 ecx
  00021	85 c0		 test	 eax, eax

; 38   : 
; 39   : 	return ((_Ty _FARQ *)_Ptr);

  00023	75 26		 jne	 SHORT $LN5@Allocate
$LN1@Allocate:

; 37   : 		_THROW_NCEE(bad_alloc, 0);

  00025	83 65 08 00	 and	 DWORD PTR $T527073[ebp], 0
  00029	8d 45 08	 lea	 eax, DWORD PTR $T527073[ebp]
  0002c	50		 push	 eax
  0002d	8d 4d f4	 lea	 ecx, DWORD PTR $T527068[ebp]
  00030	ff 15 00 00 00
	00		 call	 DWORD PTR __imp_??0exception@std@@QAE@ABQBD@Z
  00036	68 00 00 00 00	 push	 OFFSET __TI2?AVbad_alloc@std@@
  0003b	8d 45 f4	 lea	 eax, DWORD PTR $T527068[ebp]
  0003e	50		 push	 eax
  0003f	c7 45 f4 00 00
	00 00		 mov	 DWORD PTR $T527068[ebp], OFFSET ??_7bad_alloc@std@@6B@
  00046	e8 00 00 00 00	 call	 __CxxThrowException@8
$LN10@Allocate:
$LN5@Allocate:

; 40   : 	}

  0004b	c9		 leave
  0004c	c3		 ret	 0
$LN9@Allocate:
??$_Allocate@VioHashString@@@std@@YAPAVioHashString@@IPAV1@@Z ENDP ; std::_Allocate<ioHashString>
_TEXT	ENDS
EXTRN	__imp_??0exception@std@@QAE@ABV01@@Z:PROC
; Function compile flags: /Ogsp
;	COMDAT ??0bad_alloc@std@@QAE@ABV01@@Z
_TEXT	SEGMENT
___that$ = 8						; size = 4
??0bad_alloc@std@@QAE@ABV01@@Z PROC			; std::bad_alloc::bad_alloc, COMDAT
; _this$ = ecx
  00000	55		 push	 ebp
  00001	8b ec		 mov	 ebp, esp
  00003	56		 push	 esi
  00004	ff 75 08	 push	 DWORD PTR ___that$[ebp]
  00007	8b f1		 mov	 esi, ecx
  00009	ff 15 00 00 00
	00		 call	 DWORD PTR __imp_??0exception@std@@QAE@ABV01@@Z
  0000f	c7 06 00 00 00
	00		 mov	 DWORD PTR [esi], OFFSET ??_7bad_alloc@std@@6B@
  00015	8b c6		 mov	 eax, esi
  00017	5e		 pop	 esi
  00018	5d		 pop	 ebp
  00019	c2 04 00	 ret	 4
??0bad_alloc@std@@QAE@ABV01@@Z ENDP			; std::bad_alloc::bad_alloc
_TEXT	ENDS
PUBLIC	??$forward@ABVioHashString@@@std@@YAABVioHashString@@ABV1@@Z ; std::forward<ioHashString const &>
; Function compile flags: /Ogsp
; File c:\program files (x86)\microsoft visual studio 10.0\vc\include\utility
;	COMDAT ??$forward@ABVioHashString@@@std@@YAABVioHashString@@ABV1@@Z
_TEXT	SEGMENT
__Arg$ = 8						; size = 4
??$forward@ABVioHashString@@@std@@YAABVioHashString@@ABV1@@Z PROC ; std::forward<ioHashString const &>, COMDAT

; 78   : 	{	// forward _Arg, given explicitly specified type parameter

  00000	55		 push	 ebp
  00001	8b ec		 mov	 ebp, esp

; 79   : 	return ((_Ty&&)_Arg);

  00003	8b 45 08	 mov	 eax, DWORD PTR __Arg$[ebp]

; 80   : 	}

  00006	5d		 pop	 ebp
  00007	c3		 ret	 0
??$forward@ABVioHashString@@@std@@YAABVioHashString@@ABV1@@Z ENDP ; std::forward<ioHashString const &>
_TEXT	ENDS
PUBLIC	??$_Ptr_cat@VioHashString@@V1@@std@@YA?AU_Nonscalar_ptr_iterator_tag@0@PAVioHashString@@0@Z ; std::_Ptr_cat<ioHashString,ioHashString>
; Function compile flags: /Ogsp
; File c:\program files (x86)\microsoft visual studio 10.0\vc\include\xutility
;	COMDAT ??$_Ptr_cat@VioHashString@@V1@@std@@YA?AU_Nonscalar_ptr_iterator_tag@0@PAVioHashString@@0@Z
_TEXT	SEGMENT
__Cat$ = -1						; size = 1
___formal$ = 8						; size = 4
___formal$ = 12						; size = 4
??$_Ptr_cat@VioHashString@@V1@@std@@YA?AU_Nonscalar_ptr_iterator_tag@0@PAVioHashString@@0@Z PROC ; std::_Ptr_cat<ioHashString,ioHashString>, COMDAT

; 516  : 	{	// return pointer category from pointers

  00000	55		 push	 ebp
  00001	8b ec		 mov	 ebp, esp
  00003	51		 push	 ecx

; 517  : 	typename _Ptr_cat_helper<_Elem1, _Elem2>::_Type _Cat;
; 518  : 	return (_Cat);

  00004	8a 45 ff	 mov	 al, BYTE PTR __Cat$[ebp]

; 519  : 	}

  00007	c9		 leave
  00008	c3		 ret	 0
??$_Ptr_cat@VioHashString@@V1@@std@@YA?AU_Nonscalar_ptr_iterator_tag@0@PAVioHashString@@0@Z ENDP ; std::_Ptr_cat<ioHashString,ioHashString>
_TEXT	ENDS
PUBLIC	??$_Ptr_cat@UWeaponInfo@@U1@@std@@YA?AU_Nonscalar_ptr_iterator_tag@0@PAUWeaponInfo@@0@Z ; std::_Ptr_cat<WeaponInfo,WeaponInfo>
; Function compile flags: /Ogsp
;	COMDAT ??$_Ptr_cat@UWeaponInfo@@U1@@std@@YA?AU_Nonscalar_ptr_iterator_tag@0@PAUWeaponInfo@@0@Z
_TEXT	SEGMENT
__Cat$ = -1						; size = 1
___formal$ = 8						; size = 4
___formal$ = 12						; size = 4
??$_Ptr_cat@UWeaponInfo@@U1@@std@@YA?AU_Nonscalar_ptr_iterator_tag@0@PAUWeaponInfo@@0@Z PROC ; std::_Ptr_cat<WeaponInfo,WeaponInfo>, COMDAT

; 516  : 	{	// return pointer category from pointers

  00000	55		 push	 ebp
  00001	8b ec		 mov	 ebp, esp
  00003	51		 push	 ecx

; 517  : 	typename _Ptr_cat_helper<_Elem1, _Elem2>::_Type _Cat;
; 518  : 	return (_Cat);

  00004	8a 45 ff	 mov	 al, BYTE PTR __Cat$[ebp]

; 519  : 	}

  00007	c9		 leave
  00008	c3		 ret	 0
??$_Ptr_cat@UWeaponInfo@@U1@@std@@YA?AU_Nonscalar_ptr_iterator_tag@0@PAUWeaponInfo@@0@Z ENDP ; std::_Ptr_cat<WeaponInfo,WeaponInfo>
_TEXT	ENDS
PUBLIC	??$_Ptr_cat@UForceInfo@@U1@@std@@YA?AU_Nonscalar_ptr_iterator_tag@0@PAUForceInfo@@0@Z ; std::_Ptr_cat<ForceInfo,ForceInfo>
; Function compile flags: /Ogsp
;	COMDAT ??$_Ptr_cat@UForceInfo@@U1@@std@@YA?AU_Nonscalar_ptr_iterator_tag@0@PAUForceInfo@@0@Z
_TEXT	SEGMENT
__Cat$ = -1						; size = 1
___formal$ = 8						; size = 4
___formal$ = 12						; size = 4
??$_Ptr_cat@UForceInfo@@U1@@std@@YA?AU_Nonscalar_ptr_iterator_tag@0@PAUForceInfo@@0@Z PROC ; std::_Ptr_cat<ForceInfo,ForceInfo>, COMDAT

; 516  : 	{	// return pointer category from pointers

  00000	55		 push	 ebp
  00001	8b ec		 mov	 ebp, esp
  00003	51		 push	 ecx

; 517  : 	typename _Ptr_cat_helper<_Elem1, _Elem2>::_Type _Cat;
; 518  : 	return (_Cat);

  00004	8a 45 ff	 mov	 al, BYTE PTR __Cat$[ebp]

; 519  : 	}

  00007	c9		 leave
  00008	c3		 ret	 0
??$_Ptr_cat@UForceInfo@@U1@@std@@YA?AU_Nonscalar_ptr_iterator_tag@0@PAUForceInfo@@0@Z ENDP ; std::_Ptr_cat<ForceInfo,ForceInfo>
_TEXT	ENDS
PUBLIC	?size@?$vector@UWeaponInfo@@V?$allocator@UWeaponInfo@@@std@@@std@@QBEIXZ ; std::vector<WeaponInfo,std::allocator<WeaponInfo> >::size
; Function compile flags: /Ogsp
; File c:\program files (x86)\microsoft visual studio 10.0\vc\include\vector
;	COMDAT ?size@?$vector@UWeaponInfo@@V?$allocator@UWeaponInfo@@@std@@@std@@QBEIXZ
_TEXT	SEGMENT
?size@?$vector@UWeaponInfo@@V?$allocator@UWeaponInfo@@@std@@@std@@QBEIXZ PROC ; std::vector<WeaponInfo,std::allocator<WeaponInfo> >::size, COMDAT
; _this$ = ecx

; 879  : 		return (this->_Mylast - this->_Myfirst);

  00000	8b 41 04	 mov	 eax, DWORD PTR [ecx+4]
  00003	2b 01		 sub	 eax, DWORD PTR [ecx]
  00005	6a 28		 push	 40			; 00000028H
  00007	99		 cdq
  00008	59		 pop	 ecx
  00009	f7 f9		 idiv	 ecx

; 880  : 		}

  0000b	c3		 ret	 0
?size@?$vector@UWeaponInfo@@V?$allocator@UWeaponInfo@@@std@@@std@@QBEIXZ ENDP ; std::vector<WeaponInfo,std::allocator<WeaponInfo> >::size
_TEXT	ENDS
PUBLIC	?size@?$vector@UForceInfo@@V?$allocator@UForceInfo@@@std@@@std@@QBEIXZ ; std::vector<ForceInfo,std::allocator<ForceInfo> >::size
; Function compile flags: /Ogsp
;	COMDAT ?size@?$vector@UForceInfo@@V?$allocator@UForceInfo@@@std@@@std@@QBEIXZ
_TEXT	SEGMENT
?size@?$vector@UForceInfo@@V?$allocator@UForceInfo@@@std@@@std@@QBEIXZ PROC ; std::vector<ForceInfo,std::allocator<ForceInfo> >::size, COMDAT
; _this$ = ecx

; 879  : 		return (this->_Mylast - this->_Myfirst);

  00000	8b 41 04	 mov	 eax, DWORD PTR [ecx+4]
  00003	2b 01		 sub	 eax, DWORD PTR [ecx]
  00005	6a 0c		 push	 12			; 0000000cH
  00007	99		 cdq
  00008	59		 pop	 ecx
  00009	f7 f9		 idiv	 ecx

; 880  : 		}

  0000b	c3		 ret	 0
?size@?$vector@UForceInfo@@V?$allocator@UForceInfo@@@std@@@std@@QBEIXZ ENDP ; std::vector<ForceInfo,std::allocator<ForceInfo> >::size
_TEXT	ENDS
PUBLIC	?_Xlen@?$vector@UWeaponInfo@@V?$allocator@UWeaponInfo@@@std@@@std@@IBEXXZ ; std::vector<WeaponInfo,std::allocator<WeaponInfo> >::_Xlen
; Function compile flags: /Ogsp
;	COMDAT ?_Xlen@?$vector@UWeaponInfo@@V?$allocator@UWeaponInfo@@@std@@@std@@IBEXXZ
_TEXT	SEGMENT
?_Xlen@?$vector@UWeaponInfo@@V?$allocator@UWeaponInfo@@@std@@@std@@IBEXXZ PROC ; std::vector<WeaponInfo,std::allocator<WeaponInfo> >::_Xlen, COMDAT
; _this$ = ecx

; 1427 : 		_Xlength_error("vector<T> too long");

  00000	68 00 00 00 00	 push	 OFFSET ??_C@_0BD@OLBABOEK@vector?$DMT?$DO?5too?5long?$AA@
  00005	ff 15 00 00 00
	00		 call	 DWORD PTR __imp_?_Xlength_error@std@@YAXPBD@Z
$LN4@Xlen@2:
$LN3@Xlen@2:
  0000b	cc		 int	 3
?_Xlen@?$vector@UWeaponInfo@@V?$allocator@UWeaponInfo@@@std@@@std@@IBEXXZ ENDP ; std::vector<WeaponInfo,std::allocator<WeaponInfo> >::_Xlen
_TEXT	ENDS
PUBLIC	?_Xlen@?$vector@UForceInfo@@V?$allocator@UForceInfo@@@std@@@std@@IBEXXZ ; std::vector<ForceInfo,std::allocator<ForceInfo> >::_Xlen
; Function compile flags: /Ogsp
;	COMDAT ?_Xlen@?$vector@UForceInfo@@V?$allocator@UForceInfo@@@std@@@std@@IBEXXZ
_TEXT	SEGMENT
?_Xlen@?$vector@UForceInfo@@V?$allocator@UForceInfo@@@std@@@std@@IBEXXZ PROC ; std::vector<ForceInfo,std::allocator<ForceInfo> >::_Xlen, COMDAT
; _this$ = ecx

; 1427 : 		_Xlength_error("vector<T> too long");

  00000	68 00 00 00 00	 push	 OFFSET ??_C@_0BD@OLBABOEK@vector?$DMT?$DO?5too?5long?$AA@
  00005	ff 15 00 00 00
	00		 call	 DWORD PTR __imp_?_Xlength_error@std@@YAXPBD@Z
$LN4@Xlen@3:
$LN3@Xlen@3:
  0000b	cc		 int	 3
?_Xlen@?$vector@UForceInfo@@V?$allocator@UForceInfo@@@std@@@std@@IBEXXZ ENDP ; std::vector<ForceInfo,std::allocator<ForceInfo> >::_Xlen
_TEXT	ENDS
PUBLIC	?max_size@?$allocator@UWeaponInfo@@@std@@QBEIXZ	; std::allocator<WeaponInfo>::max_size
; Function compile flags: /Ogsp
; File c:\program files (x86)\microsoft visual studio 10.0\vc\include\xmemory
;	COMDAT ?max_size@?$allocator@UWeaponInfo@@@std@@QBEIXZ
_TEXT	SEGMENT
?max_size@?$allocator@UWeaponInfo@@@std@@QBEIXZ PROC	; std::allocator<WeaponInfo>::max_size, COMDAT
; _this$ = ecx

; 218  : 		_SIZT _Count = (_SIZT)(-1) / sizeof (_Ty);
; 219  : 		return (0 < _Count ? _Count : 1);

  00000	b8 66 66 66 06	 mov	 eax, 107374182		; 06666666H

; 220  : 		}

  00005	c3		 ret	 0
?max_size@?$allocator@UWeaponInfo@@@std@@QBEIXZ ENDP	; std::allocator<WeaponInfo>::max_size
_TEXT	ENDS
PUBLIC	?max_size@?$allocator@UForceInfo@@@std@@QBEIXZ	; std::allocator<ForceInfo>::max_size
; Function compile flags: /Ogsp
;	COMDAT ?max_size@?$allocator@UForceInfo@@@std@@QBEIXZ
_TEXT	SEGMENT
?max_size@?$allocator@UForceInfo@@@std@@QBEIXZ PROC	; std::allocator<ForceInfo>::max_size, COMDAT
; _this$ = ecx

; 218  : 		_SIZT _Count = (_SIZT)(-1) / sizeof (_Ty);
; 219  : 		return (0 < _Count ? _Count : 1);

  00000	b8 55 55 55 15	 mov	 eax, 357913941		; 15555555H

; 220  : 		}

  00005	c3		 ret	 0
?max_size@?$allocator@UForceInfo@@@std@@QBEIXZ ENDP	; std::allocator<ForceInfo>::max_size
_TEXT	ENDS
PUBLIC	??0?$_Vector_const_iterator@V?$_Vector_val@UWeaponInfo@@V?$allocator@UWeaponInfo@@@std@@@std@@@std@@QAE@PAUWeaponInfo@@PBU_Container_base0@1@@Z ; std::_Vector_const_iterator<std::_Vector_val<WeaponInfo,std::allocator<WeaponInfo> > >::_Vector_const_iterator<std::_Vector_val<WeaponInfo,std::allocator<WeaponInfo> > >
; Function compile flags: /Ogsp
; File c:\program files (x86)\microsoft visual studio 10.0\vc\include\vector
;	COMDAT ??0?$_Vector_const_iterator@V?$_Vector_val@UWeaponInfo@@V?$allocator@UWeaponInfo@@@std@@@std@@@std@@QAE@PAUWeaponInfo@@PBU_Container_base0@1@@Z
_TEXT	SEGMENT
__Parg$ = 8						; size = 4
__Pvector$ = 12						; size = 4
??0?$_Vector_const_iterator@V?$_Vector_val@UWeaponInfo@@V?$allocator@UWeaponInfo@@@std@@@std@@@std@@QAE@PAUWeaponInfo@@PBU_Container_base0@1@@Z PROC ; std::_Vector_const_iterator<std::_Vector_val<WeaponInfo,std::allocator<WeaponInfo> > >::_Vector_const_iterator<std::_Vector_val<WeaponInfo,std::allocator<WeaponInfo> > >, COMDAT
; _this$ = ecx

; 45   : 		{	// construct with pointer _Parg

  00000	55		 push	 ebp
  00001	8b ec		 mov	 ebp, esp
  00003	8b c1		 mov	 eax, ecx
  00005	8b 4d 08	 mov	 ecx, DWORD PTR __Parg$[ebp]
  00008	89 08		 mov	 DWORD PTR [eax], ecx

; 46   : 		this->_Adopt(_Pvector);
; 47   : 		}

  0000a	5d		 pop	 ebp
  0000b	c2 08 00	 ret	 8
??0?$_Vector_const_iterator@V?$_Vector_val@UWeaponInfo@@V?$allocator@UWeaponInfo@@@std@@@std@@@std@@QAE@PAUWeaponInfo@@PBU_Container_base0@1@@Z ENDP ; std::_Vector_const_iterator<std::_Vector_val<WeaponInfo,std::allocator<WeaponInfo> > >::_Vector_const_iterator<std::_Vector_val<WeaponInfo,std::allocator<WeaponInfo> > >
_TEXT	ENDS
PUBLIC	??0?$_Vector_const_iterator@V?$_Vector_val@UForceInfo@@V?$allocator@UForceInfo@@@std@@@std@@@std@@QAE@PAUForceInfo@@PBU_Container_base0@1@@Z ; std::_Vector_const_iterator<std::_Vector_val<ForceInfo,std::allocator<ForceInfo> > >::_Vector_const_iterator<std::_Vector_val<ForceInfo,std::allocator<ForceInfo> > >
; Function compile flags: /Ogsp
;	COMDAT ??0?$_Vector_const_iterator@V?$_Vector_val@UForceInfo@@V?$allocator@UForceInfo@@@std@@@std@@@std@@QAE@PAUForceInfo@@PBU_Container_base0@1@@Z
_TEXT	SEGMENT
__Parg$ = 8						; size = 4
__Pvector$ = 12						; size = 4
??0?$_Vector_const_iterator@V?$_Vector_val@UForceInfo@@V?$allocator@UForceInfo@@@std@@@std@@@std@@QAE@PAUForceInfo@@PBU_Container_base0@1@@Z PROC ; std::_Vector_const_iterator<std::_Vector_val<ForceInfo,std::allocator<ForceInfo> > >::_Vector_const_iterator<std::_Vector_val<ForceInfo,std::allocator<ForceInfo> > >, COMDAT
; _this$ = ecx

; 45   : 		{	// construct with pointer _Parg

  00000	55		 push	 ebp
  00001	8b ec		 mov	 ebp, esp
  00003	8b c1		 mov	 eax, ecx
  00005	8b 4d 08	 mov	 ecx, DWORD PTR __Parg$[ebp]
  00008	89 08		 mov	 DWORD PTR [eax], ecx

; 46   : 		this->_Adopt(_Pvector);
; 47   : 		}

  0000a	5d		 pop	 ebp
  0000b	c2 08 00	 ret	 8
??0?$_Vector_const_iterator@V?$_Vector_val@UForceInfo@@V?$allocator@UForceInfo@@@std@@@std@@@std@@QAE@PAUForceInfo@@PBU_Container_base0@1@@Z ENDP ; std::_Vector_const_iterator<std::_Vector_val<ForceInfo,std::allocator<ForceInfo> > >::_Vector_const_iterator<std::_Vector_val<ForceInfo,std::allocator<ForceInfo> > >
_TEXT	ENDS
PUBLIC	?_Compat@?$_Vector_const_iterator@V?$_Vector_val@UWeaponInfo@@V?$allocator@UWeaponInfo@@@std@@@std@@@std@@QBEXABV12@@Z ; std::_Vector_const_iterator<std::_Vector_val<WeaponInfo,std::allocator<WeaponInfo> > >::_Compat
; Function compile flags: /Ogsp
;	COMDAT ?_Compat@?$_Vector_const_iterator@V?$_Vector_val@UWeaponInfo@@V?$allocator@UWeaponInfo@@@std@@@std@@@std@@QBEXABV12@@Z
_TEXT	SEGMENT
___formal$ = 8						; size = 4
?_Compat@?$_Vector_const_iterator@V?$_Vector_val@UWeaponInfo@@V?$allocator@UWeaponInfo@@@std@@@std@@@std@@QBEXABV12@@Z PROC ; std::_Vector_const_iterator<std::_Vector_val<WeaponInfo,std::allocator<WeaponInfo> > >::_Compat, COMDAT
; _this$ = ecx

; 253  : 		}

  00000	c2 04 00	 ret	 4
?_Compat@?$_Vector_const_iterator@V?$_Vector_val@UWeaponInfo@@V?$allocator@UWeaponInfo@@@std@@@std@@@std@@QBEXABV12@@Z ENDP ; std::_Vector_const_iterator<std::_Vector_val<WeaponInfo,std::allocator<WeaponInfo> > >::_Compat
_TEXT	ENDS
PUBLIC	?_Compat@?$_Vector_const_iterator@V?$_Vector_val@UForceInfo@@V?$allocator@UForceInfo@@@std@@@std@@@std@@QBEXABV12@@Z ; std::_Vector_const_iterator<std::_Vector_val<ForceInfo,std::allocator<ForceInfo> > >::_Compat
; Function compile flags: /Ogsp
;	COMDAT ?_Compat@?$_Vector_const_iterator@V?$_Vector_val@UForceInfo@@V?$allocator@UForceInfo@@@std@@@std@@@std@@QBEXABV12@@Z
_TEXT	SEGMENT
___formal$ = 8						; size = 4
?_Compat@?$_Vector_const_iterator@V?$_Vector_val@UForceInfo@@V?$allocator@UForceInfo@@@std@@@std@@@std@@QBEXABV12@@Z PROC ; std::_Vector_const_iterator<std::_Vector_val<ForceInfo,std::allocator<ForceInfo> > >::_Compat, COMDAT
; _this$ = ecx

; 253  : 		}

  00000	c2 04 00	 ret	 4
?_Compat@?$_Vector_const_iterator@V?$_Vector_val@UForceInfo@@V?$allocator@UForceInfo@@@std@@@std@@@std@@QBEXABV12@@Z ENDP ; std::_Vector_const_iterator<std::_Vector_val<ForceInfo,std::allocator<ForceInfo> > >::_Compat
_TEXT	ENDS
PUBLIC	??$_Ptr_cat@V?$_Vector_const_iterator@V?$_Vector_val@VioHashString@@V?$allocator@VioHashString@@@std@@@std@@@std@@PAVioHashString@@@std@@YA?AU_Nonscalar_ptr_iterator_tag@0@AAV?$_Vector_const_iterator@V?$_Vector_val@VioHashString@@V?$allocator@VioHashString@@@std@@@std@@@0@AAPAVioHashString@@@Z ; std::_Ptr_cat<std::_Vector_const_iterator<std::_Vector_val<ioHashString,std::allocator<ioHashString> > >,ioHashString *>
; Function compile flags: /Ogsp
; File c:\program files (x86)\microsoft visual studio 10.0\vc\include\xutility
;	COMDAT ??$_Ptr_cat@V?$_Vector_const_iterator@V?$_Vector_val@VioHashString@@V?$allocator@VioHashString@@@std@@@std@@@std@@PAVioHashString@@@std@@YA?AU_Nonscalar_ptr_iterator_tag@0@AAV?$_Vector_const_iterator@V?$_Vector_val@VioHashString@@V?$allocator@VioHashString@@@std@@@std@@@0@AAPAVioHashString@@@Z
_TEXT	SEGMENT
__Cat$ = -1						; size = 1
___formal$ = 8						; size = 4
___formal$ = 12						; size = 4
??$_Ptr_cat@V?$_Vector_const_iterator@V?$_Vector_val@VioHashString@@V?$allocator@VioHashString@@@std@@@std@@@std@@PAVioHashString@@@std@@YA?AU_Nonscalar_ptr_iterator_tag@0@AAV?$_Vector_const_iterator@V?$_Vector_val@VioHashString@@V?$allocator@VioHashString@@@std@@@std@@@0@AAPAVioHashString@@@Z PROC ; std::_Ptr_cat<std::_Vector_const_iterator<std::_Vector_val<ioHashString,std::allocator<ioHashString> > >,ioHashString *>, COMDAT

; 485  : 	{	// return pointer category from arbitrary arguments

  00000	55		 push	 ebp
  00001	8b ec		 mov	 ebp, esp
  00003	51		 push	 ecx

; 486  : 	_Nonscalar_ptr_iterator_tag _Cat;
; 487  : 	return (_Cat);

  00004	8a 45 ff	 mov	 al, BYTE PTR __Cat$[ebp]

; 488  : 	}

  00007	c9		 leave
  00008	c3		 ret	 0
??$_Ptr_cat@V?$_Vector_const_iterator@V?$_Vector_val@VioHashString@@V?$allocator@VioHashString@@@std@@@std@@@std@@PAVioHashString@@@std@@YA?AU_Nonscalar_ptr_iterator_tag@0@AAV?$_Vector_const_iterator@V?$_Vector_val@VioHashString@@V?$allocator@VioHashString@@@std@@@std@@@0@AAPAVioHashString@@@Z ENDP ; std::_Ptr_cat<std::_Vector_const_iterator<std::_Vector_val<ioHashString,std::allocator<ioHashString> > >,ioHashString *>
_TEXT	ENDS
PUBLIC	??$move@AAVioHashString@@@std@@YA$$QAVioHashString@@AAV1@@Z ; std::move<ioHashString &>
; Function compile flags: /Ogsp
; File c:\program files (x86)\microsoft visual studio 10.0\vc\include\utility
;	COMDAT ??$move@AAVioHashString@@@std@@YA$$QAVioHashString@@AAV1@@Z
_TEXT	SEGMENT
__Arg$ = 8						; size = 4
??$move@AAVioHashString@@@std@@YA$$QAVioHashString@@AAV1@@Z PROC ; std::move<ioHashString &>, COMDAT

; 86   : 	{	// forward _Arg as movable

  00000	55		 push	 ebp
  00001	8b ec		 mov	 ebp, esp

; 87   : 	return ((typename tr1::_Remove_reference<_Ty>::_Type&&)_Arg);

  00003	8b 45 08	 mov	 eax, DWORD PTR __Arg$[ebp]

; 88   : 	}

  00006	5d		 pop	 ebp
  00007	c3		 ret	 0
??$move@AAVioHashString@@@std@@YA$$QAVioHashString@@AAV1@@Z ENDP ; std::move<ioHashString &>
_TEXT	ENDS
PUBLIC	??$_Allocate@UWeaponInfo@@@std@@YAPAUWeaponInfo@@IPAU1@@Z ; std::_Allocate<WeaponInfo>
; Function compile flags: /Ogsp
; File c:\program files (x86)\microsoft visual studio 10.0\vc\include\xmemory
;	COMDAT ??$_Allocate@UWeaponInfo@@@std@@YAPAUWeaponInfo@@IPAU1@@Z
_TEXT	SEGMENT
$T527135 = -12						; size = 12
$T527139 = 8						; size = 4
__Count$ = 8						; size = 4
___formal$ = 12						; size = 4
??$_Allocate@UWeaponInfo@@@std@@YAPAUWeaponInfo@@IPAU1@@Z PROC ; std::_Allocate<WeaponInfo>, COMDAT

; 30   : 	{	// allocate storage for _Count elements of type _Ty

  00000	55		 push	 ebp
  00001	8b ec		 mov	 ebp, esp

; 31   : 	void *_Ptr = 0;
; 32   : 
; 33   : 	if (_Count <= 0)

  00003	8b 4d 08	 mov	 ecx, DWORD PTR __Count$[ebp]
  00006	83 ec 0c	 sub	 esp, 12			; 0000000cH
  00009	33 c0		 xor	 eax, eax
  0000b	85 c9		 test	 ecx, ecx

; 34   : 		_Count = 0;
; 35   : 	else if (((_SIZT)(-1) / sizeof (_Ty) < _Count)

  0000d	74 3c		 je	 SHORT $LN5@Allocate@2

; 36   : 		|| (_Ptr = ::operator new(_Count * sizeof (_Ty))) == 0)

  0000f	81 f9 66 66 66
	06		 cmp	 ecx, 107374182		; 06666666H
  00015	77 0e		 ja	 SHORT $LN1@Allocate@2
  00017	6b c9 28	 imul	 ecx, 40			; 00000028H
  0001a	51		 push	 ecx
  0001b	e8 00 00 00 00	 call	 ??2@YAPAXI@Z		; operator new
  00020	59		 pop	 ecx
  00021	85 c0		 test	 eax, eax

; 38   : 
; 39   : 	return ((_Ty _FARQ *)_Ptr);

  00023	75 26		 jne	 SHORT $LN5@Allocate@2
$LN1@Allocate@2:

; 37   : 		_THROW_NCEE(bad_alloc, 0);

  00025	83 65 08 00	 and	 DWORD PTR $T527139[ebp], 0
  00029	8d 45 08	 lea	 eax, DWORD PTR $T527139[ebp]
  0002c	50		 push	 eax
  0002d	8d 4d f4	 lea	 ecx, DWORD PTR $T527135[ebp]
  00030	ff 15 00 00 00
	00		 call	 DWORD PTR __imp_??0exception@std@@QAE@ABQBD@Z
  00036	68 00 00 00 00	 push	 OFFSET __TI2?AVbad_alloc@std@@
  0003b	8d 45 f4	 lea	 eax, DWORD PTR $T527135[ebp]
  0003e	50		 push	 eax
  0003f	c7 45 f4 00 00
	00 00		 mov	 DWORD PTR $T527135[ebp], OFFSET ??_7bad_alloc@std@@6B@
  00046	e8 00 00 00 00	 call	 __CxxThrowException@8
$LN10@Allocate@2:
$LN5@Allocate@2:

; 40   : 	}

  0004b	c9		 leave
  0004c	c3		 ret	 0
$LN9@Allocate@2:
??$_Allocate@UWeaponInfo@@@std@@YAPAUWeaponInfo@@IPAU1@@Z ENDP ; std::_Allocate<WeaponInfo>
_TEXT	ENDS
PUBLIC	??$_Allocate@UForceInfo@@@std@@YAPAUForceInfo@@IPAU1@@Z ; std::_Allocate<ForceInfo>
; Function compile flags: /Ogsp
;	COMDAT ??$_Allocate@UForceInfo@@@std@@YAPAUForceInfo@@IPAU1@@Z
_TEXT	SEGMENT
$T527144 = -12						; size = 12
$T527148 = 8						; size = 4
__Count$ = 8						; size = 4
___formal$ = 12						; size = 4
??$_Allocate@UForceInfo@@@std@@YAPAUForceInfo@@IPAU1@@Z PROC ; std::_Allocate<ForceInfo>, COMDAT

; 30   : 	{	// allocate storage for _Count elements of type _Ty

  00000	55		 push	 ebp
  00001	8b ec		 mov	 ebp, esp

; 31   : 	void *_Ptr = 0;
; 32   : 
; 33   : 	if (_Count <= 0)

  00003	8b 4d 08	 mov	 ecx, DWORD PTR __Count$[ebp]
  00006	83 ec 0c	 sub	 esp, 12			; 0000000cH
  00009	33 c0		 xor	 eax, eax
  0000b	85 c9		 test	 ecx, ecx

; 34   : 		_Count = 0;
; 35   : 	else if (((_SIZT)(-1) / sizeof (_Ty) < _Count)

  0000d	74 3c		 je	 SHORT $LN5@Allocate@3

; 36   : 		|| (_Ptr = ::operator new(_Count * sizeof (_Ty))) == 0)

  0000f	81 f9 55 55 55
	15		 cmp	 ecx, 357913941		; 15555555H
  00015	77 0e		 ja	 SHORT $LN1@Allocate@3
  00017	6b c9 0c	 imul	 ecx, 12			; 0000000cH
  0001a	51		 push	 ecx
  0001b	e8 00 00 00 00	 call	 ??2@YAPAXI@Z		; operator new
  00020	59		 pop	 ecx
  00021	85 c0		 test	 eax, eax

; 38   : 
; 39   : 	return ((_Ty _FARQ *)_Ptr);

  00023	75 26		 jne	 SHORT $LN5@Allocate@3
$LN1@Allocate@3:

; 37   : 		_THROW_NCEE(bad_alloc, 0);

  00025	83 65 08 00	 and	 DWORD PTR $T527148[ebp], 0
  00029	8d 45 08	 lea	 eax, DWORD PTR $T527148[ebp]
  0002c	50		 push	 eax
  0002d	8d 4d f4	 lea	 ecx, DWORD PTR $T527144[ebp]
  00030	ff 15 00 00 00
	00		 call	 DWORD PTR __imp_??0exception@std@@QAE@ABQBD@Z
  00036	68 00 00 00 00	 push	 OFFSET __TI2?AVbad_alloc@std@@
  0003b	8d 45 f4	 lea	 eax, DWORD PTR $T527144[ebp]
  0003e	50		 push	 eax
  0003f	c7 45 f4 00 00
	00 00		 mov	 DWORD PTR $T527144[ebp], OFFSET ??_7bad_alloc@std@@6B@
  00046	e8 00 00 00 00	 call	 __CxxThrowException@8
$LN10@Allocate@3:
$LN5@Allocate@3:

; 40   : 	}

  0004b	c9		 leave
  0004c	c3		 ret	 0
$LN9@Allocate@3:
??$_Allocate@UForceInfo@@@std@@YAPAUForceInfo@@IPAU1@@Z ENDP ; std::_Allocate<ForceInfo>
_TEXT	ENDS
PUBLIC	??D?$_Vector_const_iterator@V?$_Vector_val@VioHashString@@V?$allocator@VioHashString@@@std@@@std@@@std@@QBEABVioHashString@@XZ ; std::_Vector_const_iterator<std::_Vector_val<ioHashString,std::allocator<ioHashString> > >::operator*
; Function compile flags: /Ogsp
; File c:\program files (x86)\microsoft visual studio 10.0\vc\include\vector
;	COMDAT ??D?$_Vector_const_iterator@V?$_Vector_val@VioHashString@@V?$allocator@VioHashString@@@std@@@std@@@std@@QBEABVioHashString@@XZ
_TEXT	SEGMENT
??D?$_Vector_const_iterator@V?$_Vector_val@VioHashString@@V?$allocator@VioHashString@@@std@@@std@@@std@@QBEABVioHashString@@XZ PROC ; std::_Vector_const_iterator<std::_Vector_val<ioHashString,std::allocator<ioHashString> > >::operator*, COMDAT
; _this$ = ecx

; 64   :  #if _ITERATOR_DEBUG_LEVEL == 2
; 65   : 		if (this->_Getcont() == 0
; 66   : 			|| this->_Ptr == 0
; 67   : 			|| this->_Ptr < ((_Myvec *)this->_Getcont())->_Myfirst
; 68   : 			|| ((_Myvec *)this->_Getcont())->_Mylast <= this->_Ptr)
; 69   : 			{	// report error
; 70   : 			_DEBUG_ERROR("vector iterator not dereferencable");
; 71   : 			_SCL_SECURE_OUT_OF_RANGE;
; 72   : 			}
; 73   : 
; 74   :  #elif _ITERATOR_DEBUG_LEVEL == 1
; 75   : 		_SCL_SECURE_VALIDATE(this->_Getcont() != 0);
; 76   : 		_SCL_SECURE_VALIDATE_RANGE(
; 77   : 			this->_Ptr != 0
; 78   : 			&& ((_Myvec *)this->_Getcont())->_Myfirst <= this->_Ptr
; 79   : 			&& this->_Ptr < ((_Myvec *)this->_Getcont())->_Mylast);
; 80   :  #endif /* _ITERATOR_DEBUG_LEVEL */
; 81   : 
; 82   : 		__analysis_assume(this->_Ptr != 0);
; 83   : 
; 84   : 		return (*this->_Ptr);

  00000	8b 01		 mov	 eax, DWORD PTR [ecx]

; 85   : 		}

  00002	c3		 ret	 0
??D?$_Vector_const_iterator@V?$_Vector_val@VioHashString@@V?$allocator@VioHashString@@@std@@@std@@@std@@QBEABVioHashString@@XZ ENDP ; std::_Vector_const_iterator<std::_Vector_val<ioHashString,std::allocator<ioHashString> > >::operator*
_TEXT	ENDS
PUBLIC	??E?$_Vector_const_iterator@V?$_Vector_val@VioHashString@@V?$allocator@VioHashString@@@std@@@std@@@std@@QAEAAV01@XZ ; std::_Vector_const_iterator<std::_Vector_val<ioHashString,std::allocator<ioHashString> > >::operator++
; Function compile flags: /Ogsp
;	COMDAT ??E?$_Vector_const_iterator@V?$_Vector_val@VioHashString@@V?$allocator@VioHashString@@@std@@@std@@@std@@QAEAAV01@XZ
_TEXT	SEGMENT
??E?$_Vector_const_iterator@V?$_Vector_val@VioHashString@@V?$allocator@VioHashString@@@std@@@std@@@std@@QAEAAV01@XZ PROC ; std::_Vector_const_iterator<std::_Vector_val<ioHashString,std::allocator<ioHashString> > >::operator++, COMDAT
; _this$ = ecx

; 93   : 		{	// preincrement

  00000	8b c1		 mov	 eax, ecx

; 94   :  #if _ITERATOR_DEBUG_LEVEL == 2
; 95   : 		if (this->_Getcont() == 0
; 96   : 			|| this->_Ptr == 0
; 97   : 			|| ((_Myvec *)this->_Getcont())->_Mylast <= this->_Ptr)
; 98   : 			{	// report error
; 99   : 			_DEBUG_ERROR("vector iterator not incrementable");
; 100  : 			_SCL_SECURE_OUT_OF_RANGE;
; 101  : 			}
; 102  : 
; 103  :  #elif _ITERATOR_DEBUG_LEVEL == 1
; 104  : 		_SCL_SECURE_VALIDATE(this->_Getcont() != 0);
; 105  : 		_SCL_SECURE_VALIDATE_RANGE(
; 106  : 			this->_Ptr != 0
; 107  : 			&& this->_Ptr < ((_Myvec *)this->_Getcont())->_Mylast);
; 108  :  #endif /* _ITERATOR_DEBUG_LEVEL */
; 109  : 
; 110  : 		++this->_Ptr;

  00002	83 00 10	 add	 DWORD PTR [eax], 16	; 00000010H

; 111  : 		return (*this);
; 112  : 		}

  00005	c3		 ret	 0
??E?$_Vector_const_iterator@V?$_Vector_val@VioHashString@@V?$allocator@VioHashString@@@std@@@std@@@std@@QAEAAV01@XZ ENDP ; std::_Vector_const_iterator<std::_Vector_val<ioHashString,std::allocator<ioHashString> > >::operator++
_TEXT	ENDS
PUBLIC	??$_Destroy@UForceInfo@@@std@@YAXPAUForceInfo@@@Z ; std::_Destroy<ForceInfo>
; Function compile flags: /Ogsp
; File c:\program files (x86)\microsoft visual studio 10.0\vc\include\xmemory
;	COMDAT ??$_Destroy@UForceInfo@@@std@@YAXPAUForceInfo@@@Z
_TEXT	SEGMENT
__Ptr$ = 8						; size = 4
??$_Destroy@UForceInfo@@@std@@YAXPAUForceInfo@@@Z PROC	; std::_Destroy<ForceInfo>, COMDAT

; 63   : 	_Ptr->~_Ty();
; 64   : 	}

  00000	c3		 ret	 0
??$_Destroy@UForceInfo@@@std@@YAXPAUForceInfo@@@Z ENDP	; std::_Destroy<ForceInfo>
_TEXT	ENDS
PUBLIC	??_GioHashString@@QAEPAXI@Z			; ioHashString::`scalar deleting destructor'
; Function compile flags: /Ogsp
;	COMDAT ??_GioHashString@@QAEPAXI@Z
_TEXT	SEGMENT
___flags$ = 8						; size = 4
??_GioHashString@@QAEPAXI@Z PROC			; ioHashString::`scalar deleting destructor', COMDAT
; _this$ = ecx
  00000	55		 push	 ebp
  00001	8b ec		 mov	 ebp, esp
  00003	56		 push	 esi
  00004	8b f1		 mov	 esi, ecx
  00006	ff 15 00 00 00
	00		 call	 DWORD PTR __imp_??1ioHashString@@QAE@XZ
  0000c	f6 45 08 01	 test	 BYTE PTR ___flags$[ebp], 1
  00010	74 07		 je	 SHORT $LN1@scalar@2
  00012	56		 push	 esi
  00013	e8 00 00 00 00	 call	 ??3@YAXPAX@Z		; operator delete
  00018	59		 pop	 ecx
$LN1@scalar@2:
  00019	8b c6		 mov	 eax, esi
  0001b	5e		 pop	 esi
  0001c	5d		 pop	 ebp
  0001d	c2 04 00	 ret	 4
??_GioHashString@@QAEPAXI@Z ENDP			; ioHashString::`scalar deleting destructor'
_TEXT	ENDS
PUBLIC	??_GWeaponInfo@@QAEPAXI@Z			; WeaponInfo::`scalar deleting destructor'
; Function compile flags: /Ogsp
;	COMDAT ??_GWeaponInfo@@QAEPAXI@Z
_TEXT	SEGMENT
___flags$ = 8						; size = 4
??_GWeaponInfo@@QAEPAXI@Z PROC				; WeaponInfo::`scalar deleting destructor', COMDAT
; _this$ = ecx
  00000	55		 push	 ebp
  00001	8b ec		 mov	 ebp, esp
  00003	56		 push	 esi
  00004	8b f1		 mov	 esi, ecx
  00006	8d 4e 08	 lea	 ecx, DWORD PTR [esi+8]
  00009	ff 15 00 00 00
	00		 call	 DWORD PTR __imp_??1ioHashString@@QAE@XZ
  0000f	f6 45 08 01	 test	 BYTE PTR ___flags$[ebp], 1
  00013	74 07		 je	 SHORT $LN1@scalar@3
  00015	56		 push	 esi
  00016	e8 00 00 00 00	 call	 ??3@YAXPAX@Z		; operator delete
  0001b	59		 pop	 ecx
$LN1@scalar@3:
  0001c	8b c6		 mov	 eax, esi
  0001e	5e		 pop	 esi
  0001f	5d		 pop	 ebp
  00020	c2 04 00	 ret	 4
??_GWeaponInfo@@QAEPAXI@Z ENDP				; WeaponInfo::`scalar deleting destructor'
_TEXT	ENDS
PUBLIC	??$_Construct@VioHashString@@ABV1@@std@@YAXPAVioHashString@@ABV1@@Z ; std::_Construct<ioHashString,ioHashString const &>
;	COMDAT xdata$x
; File c:\program files (x86)\microsoft visual studio 10.0\vc\include\utility
xdata$x	SEGMENT
__unwindtable$??$_Construct@VioHashString@@ABV1@@std@@YAXPAVioHashString@@ABV1@@Z DD 0ffffffffH
	DD	FLAT:__unwindfunclet$??$_Construct@VioHashString@@ABV1@@std@@YAXPAVioHashString@@ABV1@@Z$0
__ehfuncinfo$??$_Construct@VioHashString@@ABV1@@std@@YAXPAVioHashString@@ABV1@@Z DD 019930522H
	DD	01H
	DD	FLAT:__unwindtable$??$_Construct@VioHashString@@ABV1@@std@@YAXPAVioHashString@@ABV1@@Z
	DD	2 DUP(00H)
	DD	2 DUP(00H)
	DD	00H
	DD	01H
; Function compile flags: /Ogsp
; File c:\program files (x86)\microsoft visual studio 10.0\vc\include\xmemory
xdata$x	ENDS
;	COMDAT ??$_Construct@VioHashString@@ABV1@@std@@YAXPAVioHashString@@ABV1@@Z
_TEXT	SEGMENT
$T527171 = -16						; size = 4
__$EHRec$ = -12						; size = 12
__Vptr$ = 8						; size = 4
__Ptr$ = 8						; size = 4
__Val$ = 12						; size = 4
??$_Construct@VioHashString@@ABV1@@std@@YAXPAVioHashString@@ABV1@@Z PROC ; std::_Construct<ioHashString,ioHashString const &>, COMDAT

; 46   : 	{	// construct object at _Ptr with value _Val

  00000	6a 04		 push	 4
  00002	b8 00 00 00 00	 mov	 eax, __ehhandler$??$_Construct@VioHashString@@ABV1@@std@@YAXPAVioHashString@@ABV1@@Z
  00007	e8 00 00 00 00	 call	 __EH_prolog3

; 47   : 	void _FARQ *_Vptr = _Ptr;

  0000c	8b 4d 08	 mov	 ecx, DWORD PTR __Ptr$[ebp]
  0000f	89 4d 08	 mov	 DWORD PTR __Vptr$[ebp], ecx

; 48   : 	::new (_Vptr) _Ty1(_STD forward<_Ty2>(_Val));

  00012	89 4d f0	 mov	 DWORD PTR $T527171[ebp], ecx
  00015	83 65 fc 00	 and	 DWORD PTR __$EHRec$[ebp+8], 0
  00019	85 c9		 test	 ecx, ecx
  0001b	74 09		 je	 SHORT $LN3@Construct@2
  0001d	ff 75 0c	 push	 DWORD PTR __Val$[ebp]
  00020	ff 15 00 00 00
	00		 call	 DWORD PTR __imp_??0ioHashString@@QAE@ABV0@@Z
$LN3@Construct@2:

; 49   : 	}

  00026	e8 00 00 00 00	 call	 __EH_epilog3
  0002b	c3		 ret	 0
_TEXT	ENDS
;	COMDAT text$x
text$x	SEGMENT
__unwindfunclet$??$_Construct@VioHashString@@ABV1@@std@@YAXPAVioHashString@@ABV1@@Z$0:
  00000	ff 75 08	 push	 DWORD PTR __Vptr$[ebp]
  00003	ff 75 f0	 push	 DWORD PTR $T527171[ebp]
  00006	e8 00 00 00 00	 call	 ??3@YAXPAX0@Z		; operator delete
  0000b	59		 pop	 ecx
  0000c	59		 pop	 ecx
  0000d	c3		 ret	 0
__ehhandler$??$_Construct@VioHashString@@ABV1@@std@@YAXPAVioHashString@@ABV1@@Z:
  0000e	8b 54 24 08	 mov	 edx, DWORD PTR [esp+8]
  00012	8d 42 0c	 lea	 eax, DWORD PTR [edx+12]
  00015	8b 4a ec	 mov	 ecx, DWORD PTR [edx-20]
  00018	33 c8		 xor	 ecx, eax
  0001a	e8 00 00 00 00	 call	 @__security_check_cookie@4
  0001f	b8 00 00 00 00	 mov	 eax, OFFSET __ehfuncinfo$??$_Construct@VioHashString@@ABV1@@std@@YAXPAVioHashString@@ABV1@@Z
  00024	e9 00 00 00 00	 jmp	 ___CxxFrameHandler3
text$x	ENDS
??$_Construct@VioHashString@@ABV1@@std@@YAXPAVioHashString@@ABV1@@Z ENDP ; std::_Construct<ioHashString,ioHashString const &>
PUBLIC	??0WeaponInfo@@QAE@ABU0@@Z			; WeaponInfo::WeaponInfo
; Function compile flags: /Ogsp
;	COMDAT ??0WeaponInfo@@QAE@ABU0@@Z
_TEXT	SEGMENT
___that$ = 8						; size = 4
??0WeaponInfo@@QAE@ABU0@@Z PROC				; WeaponInfo::WeaponInfo, COMDAT
; _this$ = ecx
  00000	55		 push	 ebp
  00001	8b ec		 mov	 ebp, esp
  00003	56		 push	 esi
  00004	57		 push	 edi
  00005	8b 7d 08	 mov	 edi, DWORD PTR ___that$[ebp]
  00008	8b 07		 mov	 eax, DWORD PTR [edi]
  0000a	8b f1		 mov	 esi, ecx
  0000c	89 06		 mov	 DWORD PTR [esi], eax
  0000e	8b 47 04	 mov	 eax, DWORD PTR [edi+4]
  00011	89 46 04	 mov	 DWORD PTR [esi+4], eax
  00014	8d 47 08	 lea	 eax, DWORD PTR [edi+8]
  00017	50		 push	 eax
  00018	8d 4e 08	 lea	 ecx, DWORD PTR [esi+8]
  0001b	ff 15 00 00 00
	00		 call	 DWORD PTR __imp_??0ioHashString@@QAE@ABV0@@Z
  00021	8b 47 18	 mov	 eax, DWORD PTR [edi+24]
  00024	89 46 18	 mov	 DWORD PTR [esi+24], eax
  00027	8b 47 1c	 mov	 eax, DWORD PTR [edi+28]
  0002a	89 46 1c	 mov	 DWORD PTR [esi+28], eax
  0002d	8a 47 20	 mov	 al, BYTE PTR [edi+32]
  00030	88 46 20	 mov	 BYTE PTR [esi+32], al
  00033	8b 47 24	 mov	 eax, DWORD PTR [edi+36]
  00036	89 46 24	 mov	 DWORD PTR [esi+36], eax
  00039	5f		 pop	 edi
  0003a	8b c6		 mov	 eax, esi
  0003c	5e		 pop	 esi
  0003d	5d		 pop	 ebp
  0003e	c2 04 00	 ret	 4
??0WeaponInfo@@QAE@ABU0@@Z ENDP				; WeaponInfo::WeaponInfo
_TEXT	ENDS
PUBLIC	__real@4f800000
PUBLIC	?ProcessJumpDash@ioKisaragiJump@@IAEXPAVioBaseChar@@@Z ; ioKisaragiJump::ProcessJumpDash
EXTRN	__imp_?SetActionAni@ioEntityGroup@@QAE_NHMMMMMM_N0@Z:PROC
EXTRN	__imp_?ClearAllLoopAni@ioEntityGroup@@QAEXM_N@Z:PROC
EXTRN	__imp_?ClearAllActionAni@ioEntityGroup@@QAEXM_N@Z:PROC
;	COMDAT __real@4f800000
; File d:\lost saga for developer\youtube\tutorial\source\src\lsclient\iobasechar.h
CONST	SEGMENT
__real@4f800000 DD 04f800000r			; 4.29497e+009
; Function compile flags: /Ogsp
; File d:\lost saga for developer\youtube\tutorial\source\src\lsclient\iokisaragijump.cpp
CONST	ENDS
;	COMDAT ?ProcessJumpDash@ioKisaragiJump@@IAEXPAVioBaseChar@@@Z
_TEXT	SEGMENT
tv238 = -4						; size = 4
tv233 = -4						; size = 4
tv227 = -4						; size = 4
tv225 = -4						; size = 4
_iAniID$523964 = 8					; size = 4
_pOwner$ = 8						; size = 4
?ProcessJumpDash@ioKisaragiJump@@IAEXPAVioBaseChar@@@Z PROC ; ioKisaragiJump::ProcessJumpDash, COMDAT
; _this$ = ecx

; 232  : {

  00000	55		 push	 ebp
  00001	8b ec		 mov	 ebp, esp
  00003	51		 push	 ecx
  00004	53		 push	 ebx

; 233  : 	if( !pOwner ) return;

  00005	8b 5d 08	 mov	 ebx, DWORD PTR _pOwner$[ebp]
  00008	56		 push	 esi
  00009	8b f1		 mov	 esi, ecx
  0000b	85 db		 test	 ebx, ebx
  0000d	0f 84 3b 01 00
	00		 je	 $LN1@ProcessJum

; 234  : 	if( m_CurJumpState != KJS_DASH ) return;

  00013	83 be 24 01 00
	00 03		 cmp	 DWORD PTR [esi+292], 3
  0001a	0f 85 2e 01 00
	00		 jne	 $LN1@ProcessJum

; 235  : 	if( m_bDashEnd ) return;

  00020	80 be b8 01 00
	00 00		 cmp	 BYTE PTR [esi+440], 0
  00027	0f 85 21 01 00
	00		 jne	 $LN1@ProcessJum

; 236  : 	if( m_dwActionEndTime == 0 ) return;

  0002d	83 be b4 01 00
	00 00		 cmp	 DWORD PTR [esi+436], 0
  00034	57		 push	 edi
  00035	0f 84 12 01 00
	00		 je	 $LN24@ProcessJum

; 237  : 
; 238  : 	DWORD dwCurTime = FRAMEGETTIME();

  0003b	ff 15 00 00 00
	00		 call	 DWORD PTR __imp_?GetSingleton@ioFrameTimer@@SAAAV1@XZ
  00041	8b c8		 mov	 ecx, eax
  00043	ff 15 00 00 00
	00		 call	 DWORD PTR __imp_?GetLoopSec@ioFrameTimer@@QBEKXZ

; 239  : 	if( m_dwActionEndTime < dwCurTime )

  00049	39 86 b4 01 00
	00		 cmp	 DWORD PTR [esi+436], eax
  0004f	0f 83 d7 00 00
	00		 jae	 $LN5@ProcessJum

; 240  : 	{
; 241  : 		m_dwActionEndTime = 0;

  00055	83 a6 b4 01 00
	00 00		 and	 DWORD PTR [esi+436], 0

; 242  : 
; 243  : 		int iAniID = pOwner->GetJumppingAnimationIdx();

  0005c	8b 03		 mov	 eax, DWORD PTR [ebx]
  0005e	6a 00		 push	 0
  00060	8b cb		 mov	 ecx, ebx
  00062	ff 90 6c 01 00
	00		 call	 DWORD PTR [eax+364]
  00068	89 45 08	 mov	 DWORD PTR _iAniID$523964[ebp], eax

; 244  : 		if( pOwner && iAniID != -1 )

  0006b	83 f8 ff	 cmp	 eax, -1
  0006e	0f 84 d9 00 00
	00		 je	 $LN24@ProcessJum

; 245  : 		{
; 246  : 			ioEntityGroup *pGrp = pOwner->GetGroup();

  00074	8b 7b 04	 mov	 edi, DWORD PTR [ebx+4]

; 247  : 			if( pGrp )

  00077	85 ff		 test	 edi, edi
  00079	0f 84 ce 00 00
	00		 je	 $LN24@ProcessJum

; 248  : 			{
; 249  : 				m_bDashEnd = true;

  0007f	33 db		 xor	 ebx, ebx
  00081	43		 inc	 ebx
  00082	88 9e b8 01 00
	00		 mov	 BYTE PTR [esi+440], bl

; 250  : 
; 251  : 				pGrp->ClearAllActionAni( FLOAT100, true );

  00088	b8 64 00 00 00	 mov	 eax, 100		; 00000064H
  0008d	89 45 fc	 mov	 DWORD PTR tv238[ebp], eax
  00090	db 45 fc	 fild	 DWORD PTR tv238[ebp]
  00093	53		 push	 ebx
  00094	85 c0		 test	 eax, eax
  00096	79 06		 jns	 SHORT $LN25@ProcessJum
  00098	d8 05 00 00 00
	00		 fadd	 DWORD PTR __real@4f800000
$LN25@ProcessJum:
  0009e	51		 push	 ecx
  0009f	8b cf		 mov	 ecx, edi
  000a1	d9 1c 24	 fstp	 DWORD PTR [esp]
  000a4	ff 15 00 00 00
	00		 call	 DWORD PTR __imp_?ClearAllActionAni@ioEntityGroup@@QAEXM_N@Z

; 252  : 				pGrp->ClearAllLoopAni( FLOAT100, true );

  000aa	b8 64 00 00 00	 mov	 eax, 100		; 00000064H
  000af	89 45 fc	 mov	 DWORD PTR tv233[ebp], eax
  000b2	db 45 fc	 fild	 DWORD PTR tv233[ebp]
  000b5	53		 push	 ebx
  000b6	85 c0		 test	 eax, eax
  000b8	79 06		 jns	 SHORT $LN26@ProcessJum
  000ba	d8 05 00 00 00
	00		 fadd	 DWORD PTR __real@4f800000
$LN26@ProcessJum:
  000c0	51		 push	 ecx
  000c1	8b cf		 mov	 ecx, edi
  000c3	d9 1c 24	 fstp	 DWORD PTR [esp]
  000c6	ff 15 00 00 00
	00		 call	 DWORD PTR __imp_?ClearAllLoopAni@ioEntityGroup@@QAEXM_N@Z

; 253  : 				pGrp->SetActionAni( iAniID,	0.0f, 0.0f, FLOAT1, FLOAT1,	0.0f, 0.0f,	true );

  000cc	b8 01 00 00 00	 mov	 eax, 1
  000d1	8b c8		 mov	 ecx, eax
  000d3	b8 01 00 00 00	 mov	 eax, 1
  000d8	0f 57 c0	 xorps	 xmm0, xmm0
  000db	53		 push	 ebx
  000dc	53		 push	 ebx
  000dd	83 ec 18	 sub	 esp, 24			; 00000018H
  000e0	89 4d fc	 mov	 DWORD PTR tv227[ebp], ecx
  000e3	db 45 fc	 fild	 DWORD PTR tv227[ebp]
  000e6	f3 0f 11 44 24
	14		 movss	 DWORD PTR [esp+20], xmm0
  000ec	f3 0f 11 44 24
	10		 movss	 DWORD PTR [esp+16], xmm0
  000f2	85 c9		 test	 ecx, ecx
  000f4	79 06		 jns	 SHORT $LN27@ProcessJum
  000f6	d8 05 00 00 00
	00		 fadd	 DWORD PTR __real@4f800000
$LN27@ProcessJum:
  000fc	89 45 fc	 mov	 DWORD PTR tv225[ebp], eax
  000ff	d9 5c 24 0c	 fstp	 DWORD PTR [esp+12]
  00103	db 45 fc	 fild	 DWORD PTR tv225[ebp]
  00106	85 c0		 test	 eax, eax
  00108	79 06		 jns	 SHORT $LN28@ProcessJum
  0010a	d8 05 00 00 00
	00		 fadd	 DWORD PTR __real@4f800000
$LN28@ProcessJum:
  00110	d9 5c 24 08	 fstp	 DWORD PTR [esp+8]
  00114	f3 0f 11 44 24
	04		 movss	 DWORD PTR [esp+4], xmm0
  0011a	f3 0f 11 04 24	 movss	 DWORD PTR [esp], xmm0
  0011f	ff 75 08	 push	 DWORD PTR _iAniID$523964[ebp]
  00122	8b cf		 mov	 ecx, edi
  00124	ff 15 00 00 00
	00		 call	 DWORD PTR __imp_?SetActionAni@ioEntityGroup@@QAE_NHMMMMMM_N0@Z

; 254  : 			}
; 255  : 		}
; 256  : 	}
; 257  : 	else

  0012a	eb 21		 jmp	 SHORT $LN24@ProcessJum
$LN5@ProcessJum:

; 258  : 	{
; 259  : 		if( m_dwReserveEnableTime > 0 && m_dwReserveEnableTime + pOwner->GetActionStopTotalDelay() < dwCurTime )

  0012c	8b 8e e8 00 00
	00		 mov	 ecx, DWORD PTR [esi+232]
  00132	85 c9		 test	 ecx, ecx
  00134	74 17		 je	 SHORT $LN24@ProcessJum
  00136	8b 93 b8 15 00
	00		 mov	 edx, DWORD PTR [ebx+5560]
  0013c	03 d1		 add	 edx, ecx
  0013e	3b d0		 cmp	 edx, eax
  00140	73 0b		 jae	 SHORT $LN24@ProcessJum

; 260  : 		{
; 261  : 			// 
; 262  : 			CheckKeyReserve( pOwner );

  00142	8b 06		 mov	 eax, DWORD PTR [esi]
  00144	53		 push	 ebx
  00145	8b ce		 mov	 ecx, esi
  00147	ff 90 88 00 00
	00		 call	 DWORD PTR [eax+136]
$LN24@ProcessJum:
  0014d	5f		 pop	 edi
$LN1@ProcessJum:
  0014e	5e		 pop	 esi
  0014f	5b		 pop	 ebx

; 263  : 		}
; 264  : 	}
; 265  : }

  00150	c9		 leave
  00151	c2 04 00	 ret	 4
?ProcessJumpDash@ioKisaragiJump@@IAEXPAVioBaseChar@@@Z ENDP ; ioKisaragiJump::ProcessJumpDash
_TEXT	ENDS
PUBLIC	?begin@?$vector@UWeaponInfo@@V?$allocator@UWeaponInfo@@@std@@@std@@QBE?AV?$_Vector_const_iterator@V?$_Vector_val@UWeaponInfo@@V?$allocator@UWeaponInfo@@@std@@@std@@@2@XZ ; std::vector<WeaponInfo,std::allocator<WeaponInfo> >::begin
; Function compile flags: /Ogsp
; File c:\program files (x86)\microsoft visual studio 10.0\vc\include\vector
;	COMDAT ?begin@?$vector@UWeaponInfo@@V?$allocator@UWeaponInfo@@@std@@@std@@QBE?AV?$_Vector_const_iterator@V?$_Vector_val@UWeaponInfo@@V?$allocator@UWeaponInfo@@@std@@@std@@@2@XZ
_TEXT	SEGMENT
___$ReturnUdt$ = 8					; size = 4
?begin@?$vector@UWeaponInfo@@V?$allocator@UWeaponInfo@@@std@@@std@@QBE?AV?$_Vector_const_iterator@V?$_Vector_val@UWeaponInfo@@V?$allocator@UWeaponInfo@@@std@@@std@@@2@XZ PROC ; std::vector<WeaponInfo,std::allocator<WeaponInfo> >::begin, COMDAT
; _this$ = ecx

; 786  : 		{	// return iterator for beginning of nonmutable sequence

  00000	55		 push	 ebp
  00001	8b ec		 mov	 ebp, esp

; 787  : 		return (const_iterator(this->_Myfirst, this));

  00003	8b 09		 mov	 ecx, DWORD PTR [ecx]
  00005	8b 45 08	 mov	 eax, DWORD PTR ___$ReturnUdt$[ebp]
  00008	89 08		 mov	 DWORD PTR [eax], ecx

; 788  : 		}

  0000a	5d		 pop	 ebp
  0000b	c2 04 00	 ret	 4
?begin@?$vector@UWeaponInfo@@V?$allocator@UWeaponInfo@@@std@@@std@@QBE?AV?$_Vector_const_iterator@V?$_Vector_val@UWeaponInfo@@V?$allocator@UWeaponInfo@@@std@@@std@@@2@XZ ENDP ; std::vector<WeaponInfo,std::allocator<WeaponInfo> >::begin
_TEXT	ENDS
PUBLIC	?end@?$vector@UWeaponInfo@@V?$allocator@UWeaponInfo@@@std@@@std@@QBE?AV?$_Vector_const_iterator@V?$_Vector_val@UWeaponInfo@@V?$allocator@UWeaponInfo@@@std@@@std@@@2@XZ ; std::vector<WeaponInfo,std::allocator<WeaponInfo> >::end
; Function compile flags: /Ogsp
;	COMDAT ?end@?$vector@UWeaponInfo@@V?$allocator@UWeaponInfo@@@std@@@std@@QBE?AV?$_Vector_const_iterator@V?$_Vector_val@UWeaponInfo@@V?$allocator@UWeaponInfo@@@std@@@std@@@2@XZ
_TEXT	SEGMENT
___$ReturnUdt$ = 8					; size = 4
?end@?$vector@UWeaponInfo@@V?$allocator@UWeaponInfo@@@std@@@std@@QBE?AV?$_Vector_const_iterator@V?$_Vector_val@UWeaponInfo@@V?$allocator@UWeaponInfo@@@std@@@std@@@2@XZ PROC ; std::vector<WeaponInfo,std::allocator<WeaponInfo> >::end, COMDAT
; _this$ = ecx

; 796  : 		{	// return iterator for end of nonmutable sequence

  00000	55		 push	 ebp
  00001	8b ec		 mov	 ebp, esp

; 797  : 		return (const_iterator(this->_Mylast, this));

  00003	8b 49 04	 mov	 ecx, DWORD PTR [ecx+4]
  00006	8b 45 08	 mov	 eax, DWORD PTR ___$ReturnUdt$[ebp]
  00009	89 08		 mov	 DWORD PTR [eax], ecx

; 798  : 		}

  0000b	5d		 pop	 ebp
  0000c	c2 04 00	 ret	 4
?end@?$vector@UWeaponInfo@@V?$allocator@UWeaponInfo@@@std@@@std@@QBE?AV?$_Vector_const_iterator@V?$_Vector_val@UWeaponInfo@@V?$allocator@UWeaponInfo@@@std@@@std@@@2@XZ ENDP ; std::vector<WeaponInfo,std::allocator<WeaponInfo> >::end
_TEXT	ENDS
PUBLIC	?begin@?$vector@UForceInfo@@V?$allocator@UForceInfo@@@std@@@std@@QBE?AV?$_Vector_const_iterator@V?$_Vector_val@UForceInfo@@V?$allocator@UForceInfo@@@std@@@std@@@2@XZ ; std::vector<ForceInfo,std::allocator<ForceInfo> >::begin
; Function compile flags: /Ogsp
;	COMDAT ?begin@?$vector@UForceInfo@@V?$allocator@UForceInfo@@@std@@@std@@QBE?AV?$_Vector_const_iterator@V?$_Vector_val@UForceInfo@@V?$allocator@UForceInfo@@@std@@@std@@@2@XZ
_TEXT	SEGMENT
___$ReturnUdt$ = 8					; size = 4
?begin@?$vector@UForceInfo@@V?$allocator@UForceInfo@@@std@@@std@@QBE?AV?$_Vector_const_iterator@V?$_Vector_val@UForceInfo@@V?$allocator@UForceInfo@@@std@@@std@@@2@XZ PROC ; std::vector<ForceInfo,std::allocator<ForceInfo> >::begin, COMDAT
; _this$ = ecx

; 786  : 		{	// return iterator for beginning of nonmutable sequence

  00000	55		 push	 ebp
  00001	8b ec		 mov	 ebp, esp

; 787  : 		return (const_iterator(this->_Myfirst, this));

  00003	8b 09		 mov	 ecx, DWORD PTR [ecx]
  00005	8b 45 08	 mov	 eax, DWORD PTR ___$ReturnUdt$[ebp]
  00008	89 08		 mov	 DWORD PTR [eax], ecx

; 788  : 		}

  0000a	5d		 pop	 ebp
  0000b	c2 04 00	 ret	 4
?begin@?$vector@UForceInfo@@V?$allocator@UForceInfo@@@std@@@std@@QBE?AV?$_Vector_const_iterator@V?$_Vector_val@UForceInfo@@V?$allocator@UForceInfo@@@std@@@std@@@2@XZ ENDP ; std::vector<ForceInfo,std::allocator<ForceInfo> >::begin
_TEXT	ENDS
PUBLIC	?end@?$vector@UForceInfo@@V?$allocator@UForceInfo@@@std@@@std@@QBE?AV?$_Vector_const_iterator@V?$_Vector_val@UForceInfo@@V?$allocator@UForceInfo@@@std@@@std@@@2@XZ ; std::vector<ForceInfo,std::allocator<ForceInfo> >::end
; Function compile flags: /Ogsp
;	COMDAT ?end@?$vector@UForceInfo@@V?$allocator@UForceInfo@@@std@@@std@@QBE?AV?$_Vector_const_iterator@V?$_Vector_val@UForceInfo@@V?$allocator@UForceInfo@@@std@@@std@@@2@XZ
_TEXT	SEGMENT
___$ReturnUdt$ = 8					; size = 4
?end@?$vector@UForceInfo@@V?$allocator@UForceInfo@@@std@@@std@@QBE?AV?$_Vector_const_iterator@V?$_Vector_val@UForceInfo@@V?$allocator@UForceInfo@@@std@@@std@@@2@XZ PROC ; std::vector<ForceInfo,std::allocator<ForceInfo> >::end, COMDAT
; _this$ = ecx

; 796  : 		{	// return iterator for end of nonmutable sequence

  00000	55		 push	 ebp
  00001	8b ec		 mov	 ebp, esp

; 797  : 		return (const_iterator(this->_Mylast, this));

  00003	8b 49 04	 mov	 ecx, DWORD PTR [ecx+4]
  00006	8b 45 08	 mov	 eax, DWORD PTR ___$ReturnUdt$[ebp]
  00009	89 08		 mov	 DWORD PTR [eax], ecx

; 798  : 		}

  0000b	5d		 pop	 ebp
  0000c	c2 04 00	 ret	 4
?end@?$vector@UForceInfo@@V?$allocator@UForceInfo@@@std@@@std@@QBE?AV?$_Vector_const_iterator@V?$_Vector_val@UForceInfo@@V?$allocator@UForceInfo@@@std@@@std@@@2@XZ ENDP ; std::vector<ForceInfo,std::allocator<ForceInfo> >::end
_TEXT	ENDS
PUBLIC	__$ArrayPad$
PUBLIC	??$LoadInt_e@$0N@@ioINILoader@@QAEHAAY0N@$$CBDH@Z ; ioINILoader::LoadInt_e<13>
EXTRN	__imp_?LoadInt@ioINILoader@@QAEHPBDH@Z:PROC
EXTRN	___security_cookie:DWORD
; Function compile flags: /Ogsp
; File d:\lost saga for developer\youtube\tutorial\source\src\io3dengine\ioiniloader.h
;	COMDAT ??$LoadInt_e@$0N@@ioINILoader@@QAEHAAY0N@$$CBDH@Z
_TEXT	SEGMENT
__k$ = -24						; size = 13
__$ArrayPad$ = -4					; size = 4
_k$ = 8							; size = 4
_i$ = 12						; size = 4
??$LoadInt_e@$0N@@ioINILoader@@QAEHAAY0N@$$CBDH@Z PROC	; ioINILoader::LoadInt_e<13>, COMDAT
; _this$ = ecx

; 118  : 	{

  00000	55		 push	 ebp
  00001	8b ec		 mov	 ebp, esp
  00003	83 ec 18	 sub	 esp, 24			; 00000018H
  00006	a1 00 00 00 00	 mov	 eax, DWORD PTR ___security_cookie
  0000b	33 c5		 xor	 eax, ebp
  0000d	89 45 fc	 mov	 DWORD PTR __$ArrayPad$[ebp], eax
  00010	8b 45 08	 mov	 eax, DWORD PTR _k$[ebp]

; 119  : 		_ENCSTR(k, _k);

  00013	8a 10		 mov	 dl, BYTE PTR [eax]
  00015	56		 push	 esi
  00016	8b f1		 mov	 esi, ecx
  00018	84 d2		 test	 dl, dl
  0001a	0f 84 4d 01 00
	00		 je	 $LN96@LoadInt_e
  00020	80 f2 ed	 xor	 dl, -19			; ffffffedH
  00023	88 55 e8	 mov	 BYTE PTR __k$[ebp], dl
  00026	8a 50 01	 mov	 dl, BYTE PTR [eax+1]
  00029	84 d2		 test	 dl, dl
  0002b	0f 84 36 01 00
	00		 je	 $LN95@LoadInt_e
  00031	b1 ec		 mov	 cl, -20			; ffffffecH
  00033	32 d1		 xor	 dl, cl
  00035	88 55 e9	 mov	 BYTE PTR __k$[ebp+1], dl
  00038	8a 50 02	 mov	 dl, BYTE PTR [eax+2]
  0003b	84 d2		 test	 dl, dl
  0003d	0f 84 1e 01 00
	00		 je	 $LN94@LoadInt_e
  00043	80 f2 eb	 xor	 dl, -21			; ffffffebH
  00046	88 55 ea	 mov	 BYTE PTR __k$[ebp+2], dl
  00049	8a 50 03	 mov	 dl, BYTE PTR [eax+3]
  0004c	84 d2		 test	 dl, dl
  0004e	0f 84 07 01 00
	00		 je	 $LN93@LoadInt_e
  00054	80 f2 ea	 xor	 dl, -22			; ffffffeaH
  00057	88 55 eb	 mov	 BYTE PTR __k$[ebp+3], dl
  0005a	8a 50 04	 mov	 dl, BYTE PTR [eax+4]
  0005d	84 d2		 test	 dl, dl
  0005f	0f 84 f0 00 00
	00		 je	 $LN92@LoadInt_e
  00065	80 f2 ed	 xor	 dl, -19			; ffffffedH
  00068	88 55 ec	 mov	 BYTE PTR __k$[ebp+4], dl
  0006b	8a 50 05	 mov	 dl, BYTE PTR [eax+5]
  0006e	84 d2		 test	 dl, dl
  00070	0f 84 da 00 00
	00		 je	 $LN91@LoadInt_e
  00076	32 d1		 xor	 dl, cl
  00078	88 55 ed	 mov	 BYTE PTR __k$[ebp+5], dl
  0007b	8a 50 06	 mov	 dl, BYTE PTR [eax+6]
  0007e	84 d2		 test	 dl, dl
  00080	0f 84 c4 00 00
	00		 je	 $LN90@LoadInt_e
  00086	80 f2 eb	 xor	 dl, -21			; ffffffebH
  00089	88 55 ee	 mov	 BYTE PTR __k$[ebp+6], dl
  0008c	8a 50 07	 mov	 dl, BYTE PTR [eax+7]
  0008f	84 d2		 test	 dl, dl
  00091	0f 84 ad 00 00
	00		 je	 $LN89@LoadInt_e
  00097	80 f2 ea	 xor	 dl, -22			; ffffffeaH
  0009a	88 55 ef	 mov	 BYTE PTR __k$[ebp+7], dl
  0009d	8a 50 08	 mov	 dl, BYTE PTR [eax+8]
  000a0	84 d2		 test	 dl, dl
  000a2	0f 84 96 00 00
	00		 je	 $LN88@LoadInt_e
  000a8	80 f2 ed	 xor	 dl, -19			; ffffffedH
  000ab	88 55 f0	 mov	 BYTE PTR __k$[ebp+8], dl
  000ae	8a 50 09	 mov	 dl, BYTE PTR [eax+9]
  000b1	84 d2		 test	 dl, dl
  000b3	0f 84 80 00 00
	00		 je	 $LN87@LoadInt_e
  000b9	32 d1		 xor	 dl, cl
  000bb	88 55 f1	 mov	 BYTE PTR __k$[ebp+9], dl
  000be	8a 50 0a	 mov	 dl, BYTE PTR [eax+10]
  000c1	84 d2		 test	 dl, dl
  000c3	74 6e		 je	 SHORT $LN86@LoadInt_e
  000c5	80 f2 eb	 xor	 dl, -21			; ffffffebH
  000c8	88 55 f2	 mov	 BYTE PTR __k$[ebp+10], dl
  000cb	8a 50 0b	 mov	 dl, BYTE PTR [eax+11]
  000ce	84 d2		 test	 dl, dl
  000d0	74 5b		 je	 SHORT $LN85@LoadInt_e
  000d2	80 f2 ea	 xor	 dl, -22			; ffffffeaH
  000d5	80 78 0c 00	 cmp	 BYTE PTR [eax+12], 0
  000d9	88 55 f3	 mov	 BYTE PTR __k$[ebp+11], dl
  000dc	0f 84 8f 00 00
	00		 je	 $LN1@LoadInt_e
  000e2	8a 50 0d	 mov	 dl, BYTE PTR [eax+13]
  000e5	84 d2		 test	 dl, dl
  000e7	74 3f		 je	 SHORT $LN83@LoadInt_e
  000e9	32 d1		 xor	 dl, cl
  000eb	88 55 f5	 mov	 BYTE PTR __k$[ebp+13], dl
  000ee	8a 50 0e	 mov	 dl, BYTE PTR [eax+14]
  000f1	84 d2		 test	 dl, dl
  000f3	74 2d		 je	 SHORT $LN82@LoadInt_e
  000f5	80 f2 eb	 xor	 dl, -21			; ffffffebH
  000f8	88 55 f6	 mov	 BYTE PTR __k$[ebp+14], dl
  000fb	8a 50 0f	 mov	 dl, BYTE PTR [eax+15]
  000fe	84 d2		 test	 dl, dl
  00100	74 1a		 je	 SHORT $LN81@LoadInt_e
  00102	8a 40 10	 mov	 al, BYTE PTR [eax+16]
  00105	80 f2 ea	 xor	 dl, -22			; ffffffeaH
  00108	88 55 f7	 mov	 BYTE PTR __k$[ebp+15], dl
  0010b	84 c0		 test	 al, al
  0010d	74 07		 je	 SHORT $LN80@LoadInt_e
  0010f	34 ed		 xor	 al, -19			; ffffffedH
  00111	88 45 f8	 mov	 BYTE PTR __k$[ebp+16], al
  00114	eb 5b		 jmp	 SHORT $LN1@LoadInt_e
$LN80@LoadInt_e:
  00116	c6 45 f8 ed	 mov	 BYTE PTR __k$[ebp+16], -19 ; ffffffedH
  0011a	eb 55		 jmp	 SHORT $LN1@LoadInt_e
$LN81@LoadInt_e:
  0011c	c6 45 f7 ea	 mov	 BYTE PTR __k$[ebp+15], -22 ; ffffffeaH
  00120	eb 4f		 jmp	 SHORT $LN1@LoadInt_e
$LN82@LoadInt_e:
  00122	c6 45 f6 eb	 mov	 BYTE PTR __k$[ebp+14], -21 ; ffffffebH
  00126	eb 49		 jmp	 SHORT $LN1@LoadInt_e
$LN83@LoadInt_e:
  00128	88 4d f5	 mov	 BYTE PTR __k$[ebp+13], cl
  0012b	eb 44		 jmp	 SHORT $LN1@LoadInt_e
$LN85@LoadInt_e:
  0012d	c6 45 f3 ea	 mov	 BYTE PTR __k$[ebp+11], -22 ; ffffffeaH
  00131	eb 3e		 jmp	 SHORT $LN1@LoadInt_e
$LN86@LoadInt_e:
  00133	c6 45 f2 eb	 mov	 BYTE PTR __k$[ebp+10], -21 ; ffffffebH
  00137	eb 38		 jmp	 SHORT $LN1@LoadInt_e
$LN87@LoadInt_e:
  00139	88 4d f1	 mov	 BYTE PTR __k$[ebp+9], cl
  0013c	eb 33		 jmp	 SHORT $LN1@LoadInt_e
$LN88@LoadInt_e:
  0013e	c6 45 f0 ed	 mov	 BYTE PTR __k$[ebp+8], -19 ; ffffffedH
  00142	eb 2d		 jmp	 SHORT $LN1@LoadInt_e
$LN89@LoadInt_e:
  00144	c6 45 ef ea	 mov	 BYTE PTR __k$[ebp+7], -22 ; ffffffeaH
  00148	eb 27		 jmp	 SHORT $LN1@LoadInt_e
$LN90@LoadInt_e:
  0014a	c6 45 ee eb	 mov	 BYTE PTR __k$[ebp+6], -21 ; ffffffebH
  0014e	eb 21		 jmp	 SHORT $LN1@LoadInt_e
$LN91@LoadInt_e:
  00150	88 4d ed	 mov	 BYTE PTR __k$[ebp+5], cl
  00153	eb 1c		 jmp	 SHORT $LN1@LoadInt_e
$LN92@LoadInt_e:
  00155	c6 45 ec ed	 mov	 BYTE PTR __k$[ebp+4], -19 ; ffffffedH
  00159	eb 16		 jmp	 SHORT $LN1@LoadInt_e
$LN93@LoadInt_e:
  0015b	c6 45 eb ea	 mov	 BYTE PTR __k$[ebp+3], -22 ; ffffffeaH
  0015f	eb 10		 jmp	 SHORT $LN1@LoadInt_e
$LN94@LoadInt_e:
  00161	c6 45 ea eb	 mov	 BYTE PTR __k$[ebp+2], -21 ; ffffffebH
  00165	eb 0a		 jmp	 SHORT $LN1@LoadInt_e
$LN95@LoadInt_e:
  00167	c6 45 e9 ec	 mov	 BYTE PTR __k$[ebp+1], -20 ; ffffffecH
  0016b	eb 04		 jmp	 SHORT $LN1@LoadInt_e
$LN96@LoadInt_e:
  0016d	c6 45 e8 ed	 mov	 BYTE PTR __k$[ebp], -19	; ffffffedH
$LN1@LoadInt_e:
  00171	6a 03		 push	 3
  00173	8d 45 e8	 lea	 eax, DWORD PTR __k$[ebp]
  00176	c6 45 f4 00	 mov	 BYTE PTR __k$[ebp+12], 0
  0017a	5a		 pop	 edx
$LL104@LoadInt_e:
  0017b	81 30 ed ec eb
	ea		 xor	 DWORD PTR [eax], -353637139 ; eaebecedH
  00181	83 c0 04	 add	 eax, 4
  00184	4a		 dec	 edx
  00185	75 f4		 jne	 SHORT $LL104@LoadInt_e

; 120  : 		return LoadInt(_k, i);

  00187	ff 75 0c	 push	 DWORD PTR _i$[ebp]
  0018a	8d 45 e8	 lea	 eax, DWORD PTR __k$[ebp]
  0018d	50		 push	 eax
  0018e	8b ce		 mov	 ecx, esi
  00190	ff 15 00 00 00
	00		 call	 DWORD PTR __imp_?LoadInt@ioINILoader@@QAEHPBDH@Z

; 121  : 	}

  00196	8b 4d fc	 mov	 ecx, DWORD PTR __$ArrayPad$[ebp]
  00199	33 cd		 xor	 ecx, ebp
  0019b	5e		 pop	 esi
  0019c	e8 00 00 00 00	 call	 @__security_check_cookie@4
  001a1	c9		 leave
  001a2	c2 08 00	 ret	 8
??$LoadInt_e@$0N@@ioINILoader@@QAEHAAY0N@$$CBDH@Z ENDP	; ioINILoader::LoadInt_e<13>
_TEXT	ENDS
PUBLIC	__$ArrayPad$
PUBLIC	??$LoadFloat_e@$0BC@@ioINILoader@@QAEMAAY0BC@$$CBDM@Z ; ioINILoader::LoadFloat_e<18>
EXTRN	__imp_?LoadFloat@ioINILoader@@QAEMPBDM@Z:PROC
; Function compile flags: /Ogsp
;	COMDAT ??$LoadFloat_e@$0BC@@ioINILoader@@QAEMAAY0BC@$$CBDM@Z
_TEXT	SEGMENT
__k$ = -28						; size = 18
__$ArrayPad$ = -4					; size = 4
_k$ = 8							; size = 4
_f$ = 12						; size = 4
??$LoadFloat_e@$0BC@@ioINILoader@@QAEMAAY0BC@$$CBDM@Z PROC ; ioINILoader::LoadFloat_e<18>, COMDAT
; _this$ = ecx

; 135  : 	{

  00000	55		 push	 ebp
  00001	8b ec		 mov	 ebp, esp
  00003	83 ec 1c	 sub	 esp, 28			; 0000001cH
  00006	a1 00 00 00 00	 mov	 eax, DWORD PTR ___security_cookie
  0000b	33 c5		 xor	 eax, ebp
  0000d	89 45 fc	 mov	 DWORD PTR __$ArrayPad$[ebp], eax
  00010	8b 45 08	 mov	 eax, DWORD PTR _k$[ebp]

; 136  : 		_ENCSTR(k, _k);

  00013	8a 10		 mov	 dl, BYTE PTR [eax]
  00015	56		 push	 esi
  00016	8b f1		 mov	 esi, ecx
  00018	84 d2		 test	 dl, dl
  0001a	0f 84 be 01 00
	00		 je	 $LN96@LoadFloat_
  00020	80 f2 ed	 xor	 dl, -19			; ffffffedH
  00023	88 55 e4	 mov	 BYTE PTR __k$[ebp], dl
  00026	8a 50 01	 mov	 dl, BYTE PTR [eax+1]
  00029	84 d2		 test	 dl, dl
  0002b	0f 84 a7 01 00
	00		 je	 $LN95@LoadFloat_
  00031	80 f2 ec	 xor	 dl, -20			; ffffffecH
  00034	88 55 e5	 mov	 BYTE PTR __k$[ebp+1], dl
  00037	8a 50 02	 mov	 dl, BYTE PTR [eax+2]
  0003a	84 d2		 test	 dl, dl
  0003c	0f 84 90 01 00
	00		 je	 $LN94@LoadFloat_
  00042	b1 eb		 mov	 cl, -21			; ffffffebH
  00044	32 d1		 xor	 dl, cl
  00046	88 55 e6	 mov	 BYTE PTR __k$[ebp+2], dl
  00049	8a 50 03	 mov	 dl, BYTE PTR [eax+3]
  0004c	84 d2		 test	 dl, dl
  0004e	0f 84 78 01 00
	00		 je	 $LN93@LoadFloat_
  00054	80 f2 ea	 xor	 dl, -22			; ffffffeaH
  00057	88 55 e7	 mov	 BYTE PTR __k$[ebp+3], dl
  0005a	8a 50 04	 mov	 dl, BYTE PTR [eax+4]
  0005d	84 d2		 test	 dl, dl
  0005f	0f 84 61 01 00
	00		 je	 $LN92@LoadFloat_
  00065	80 f2 ed	 xor	 dl, -19			; ffffffedH
  00068	88 55 e8	 mov	 BYTE PTR __k$[ebp+4], dl
  0006b	8a 50 05	 mov	 dl, BYTE PTR [eax+5]
  0006e	84 d2		 test	 dl, dl
  00070	0f 84 4a 01 00
	00		 je	 $LN91@LoadFloat_
  00076	80 f2 ec	 xor	 dl, -20			; ffffffecH
  00079	88 55 e9	 mov	 BYTE PTR __k$[ebp+5], dl
  0007c	8a 50 06	 mov	 dl, BYTE PTR [eax+6]
  0007f	84 d2		 test	 dl, dl
  00081	0f 84 34 01 00
	00		 je	 $LN90@LoadFloat_
  00087	32 d1		 xor	 dl, cl
  00089	88 55 ea	 mov	 BYTE PTR __k$[ebp+6], dl
  0008c	8a 50 07	 mov	 dl, BYTE PTR [eax+7]
  0008f	84 d2		 test	 dl, dl
  00091	0f 84 1e 01 00
	00		 je	 $LN89@LoadFloat_
  00097	80 f2 ea	 xor	 dl, -22			; ffffffeaH
  0009a	88 55 eb	 mov	 BYTE PTR __k$[ebp+7], dl
  0009d	8a 50 08	 mov	 dl, BYTE PTR [eax+8]
  000a0	84 d2		 test	 dl, dl
  000a2	0f 84 07 01 00
	00		 je	 $LN88@LoadFloat_
  000a8	80 f2 ed	 xor	 dl, -19			; ffffffedH
  000ab	88 55 ec	 mov	 BYTE PTR __k$[ebp+8], dl
  000ae	8a 50 09	 mov	 dl, BYTE PTR [eax+9]
  000b1	84 d2		 test	 dl, dl
  000b3	0f 84 f0 00 00
	00		 je	 $LN87@LoadFloat_
  000b9	80 f2 ec	 xor	 dl, -20			; ffffffecH
  000bc	88 55 ed	 mov	 BYTE PTR __k$[ebp+9], dl
  000bf	8a 50 0a	 mov	 dl, BYTE PTR [eax+10]
  000c2	84 d2		 test	 dl, dl
  000c4	0f 84 da 00 00
	00		 je	 $LN86@LoadFloat_
  000ca	32 d1		 xor	 dl, cl
  000cc	88 55 ee	 mov	 BYTE PTR __k$[ebp+10], dl
  000cf	8a 50 0b	 mov	 dl, BYTE PTR [eax+11]
  000d2	84 d2		 test	 dl, dl
  000d4	0f 84 c4 00 00
	00		 je	 $LN85@LoadFloat_
  000da	80 f2 ea	 xor	 dl, -22			; ffffffeaH
  000dd	88 55 ef	 mov	 BYTE PTR __k$[ebp+11], dl
  000e0	8a 50 0c	 mov	 dl, BYTE PTR [eax+12]
  000e3	84 d2		 test	 dl, dl
  000e5	0f 84 ad 00 00
	00		 je	 $LN84@LoadFloat_
  000eb	80 f2 ed	 xor	 dl, -19			; ffffffedH
  000ee	88 55 f0	 mov	 BYTE PTR __k$[ebp+12], dl
  000f1	8a 50 0d	 mov	 dl, BYTE PTR [eax+13]
  000f4	84 d2		 test	 dl, dl
  000f6	0f 84 96 00 00
	00		 je	 $LN83@LoadFloat_
  000fc	80 f2 ec	 xor	 dl, -20			; ffffffecH
  000ff	88 55 f1	 mov	 BYTE PTR __k$[ebp+13], dl
  00102	8a 50 0e	 mov	 dl, BYTE PTR [eax+14]
  00105	84 d2		 test	 dl, dl
  00107	0f 84 80 00 00
	00		 je	 $LN82@LoadFloat_
  0010d	32 d1		 xor	 dl, cl
  0010f	88 55 f2	 mov	 BYTE PTR __k$[ebp+14], dl
  00112	8a 50 0f	 mov	 dl, BYTE PTR [eax+15]
  00115	84 d2		 test	 dl, dl
  00117	74 6e		 je	 SHORT $LN81@LoadFloat_
  00119	80 f2 ea	 xor	 dl, -22			; ffffffeaH
  0011c	88 55 f3	 mov	 BYTE PTR __k$[ebp+15], dl
  0011f	8a 50 10	 mov	 dl, BYTE PTR [eax+16]
  00122	84 d2		 test	 dl, dl
  00124	74 5b		 je	 SHORT $LN80@LoadFloat_
  00126	80 f2 ed	 xor	 dl, -19			; ffffffedH
  00129	80 78 11 00	 cmp	 BYTE PTR [eax+17], 0
  0012d	88 55 f4	 mov	 BYTE PTR __k$[ebp+16], dl
  00130	0f 84 ac 00 00
	00		 je	 $LN1@LoadFloat_
  00136	8a 50 12	 mov	 dl, BYTE PTR [eax+18]
  00139	84 d2		 test	 dl, dl
  0013b	74 3f		 je	 SHORT $LN78@LoadFloat_
  0013d	32 d1		 xor	 dl, cl
  0013f	88 55 f6	 mov	 BYTE PTR __k$[ebp+18], dl
  00142	8a 50 13	 mov	 dl, BYTE PTR [eax+19]
  00145	84 d2		 test	 dl, dl
  00147	74 2d		 je	 SHORT $LN77@LoadFloat_
  00149	80 f2 ea	 xor	 dl, -22			; ffffffeaH
  0014c	88 55 f7	 mov	 BYTE PTR __k$[ebp+19], dl
  0014f	8a 50 14	 mov	 dl, BYTE PTR [eax+20]
  00152	84 d2		 test	 dl, dl
  00154	74 1a		 je	 SHORT $LN76@LoadFloat_
  00156	8a 40 15	 mov	 al, BYTE PTR [eax+21]
  00159	80 f2 ed	 xor	 dl, -19			; ffffffedH
  0015c	88 55 f8	 mov	 BYTE PTR __k$[ebp+20], dl
  0015f	84 c0		 test	 al, al
  00161	74 07		 je	 SHORT $LN75@LoadFloat_
  00163	34 ec		 xor	 al, -20			; ffffffecH
  00165	88 45 f9	 mov	 BYTE PTR __k$[ebp+21], al
  00168	eb 78		 jmp	 SHORT $LN1@LoadFloat_
$LN75@LoadFloat_:
  0016a	c6 45 f9 ec	 mov	 BYTE PTR __k$[ebp+21], -20 ; ffffffecH
  0016e	eb 72		 jmp	 SHORT $LN1@LoadFloat_
$LN76@LoadFloat_:
  00170	c6 45 f8 ed	 mov	 BYTE PTR __k$[ebp+20], -19 ; ffffffedH
  00174	eb 6c		 jmp	 SHORT $LN1@LoadFloat_
$LN77@LoadFloat_:
  00176	c6 45 f7 ea	 mov	 BYTE PTR __k$[ebp+19], -22 ; ffffffeaH
  0017a	eb 66		 jmp	 SHORT $LN1@LoadFloat_
$LN78@LoadFloat_:
  0017c	88 4d f6	 mov	 BYTE PTR __k$[ebp+18], cl
  0017f	eb 61		 jmp	 SHORT $LN1@LoadFloat_
$LN80@LoadFloat_:
  00181	c6 45 f4 ed	 mov	 BYTE PTR __k$[ebp+16], -19 ; ffffffedH
  00185	eb 5b		 jmp	 SHORT $LN1@LoadFloat_
$LN81@LoadFloat_:
  00187	c6 45 f3 ea	 mov	 BYTE PTR __k$[ebp+15], -22 ; ffffffeaH
  0018b	eb 55		 jmp	 SHORT $LN1@LoadFloat_
$LN82@LoadFloat_:
  0018d	88 4d f2	 mov	 BYTE PTR __k$[ebp+14], cl
  00190	eb 50		 jmp	 SHORT $LN1@LoadFloat_
$LN83@LoadFloat_:
  00192	c6 45 f1 ec	 mov	 BYTE PTR __k$[ebp+13], -20 ; ffffffecH
  00196	eb 4a		 jmp	 SHORT $LN1@LoadFloat_
$LN84@LoadFloat_:
  00198	c6 45 f0 ed	 mov	 BYTE PTR __k$[ebp+12], -19 ; ffffffedH
  0019c	eb 44		 jmp	 SHORT $LN1@LoadFloat_
$LN85@LoadFloat_:
  0019e	c6 45 ef ea	 mov	 BYTE PTR __k$[ebp+11], -22 ; ffffffeaH
  001a2	eb 3e		 jmp	 SHORT $LN1@LoadFloat_
$LN86@LoadFloat_:
  001a4	88 4d ee	 mov	 BYTE PTR __k$[ebp+10], cl
  001a7	eb 39		 jmp	 SHORT $LN1@LoadFloat_
$LN87@LoadFloat_:
  001a9	c6 45 ed ec	 mov	 BYTE PTR __k$[ebp+9], -20 ; ffffffecH
  001ad	eb 33		 jmp	 SHORT $LN1@LoadFloat_
$LN88@LoadFloat_:
  001af	c6 45 ec ed	 mov	 BYTE PTR __k$[ebp+8], -19 ; ffffffedH
  001b3	eb 2d		 jmp	 SHORT $LN1@LoadFloat_
$LN89@LoadFloat_:
  001b5	c6 45 eb ea	 mov	 BYTE PTR __k$[ebp+7], -22 ; ffffffeaH
  001b9	eb 27		 jmp	 SHORT $LN1@LoadFloat_
$LN90@LoadFloat_:
  001bb	88 4d ea	 mov	 BYTE PTR __k$[ebp+6], cl
  001be	eb 22		 jmp	 SHORT $LN1@LoadFloat_
$LN91@LoadFloat_:
  001c0	c6 45 e9 ec	 mov	 BYTE PTR __k$[ebp+5], -20 ; ffffffecH
  001c4	eb 1c		 jmp	 SHORT $LN1@LoadFloat_
$LN92@LoadFloat_:
  001c6	c6 45 e8 ed	 mov	 BYTE PTR __k$[ebp+4], -19 ; ffffffedH
  001ca	eb 16		 jmp	 SHORT $LN1@LoadFloat_
$LN93@LoadFloat_:
  001cc	c6 45 e7 ea	 mov	 BYTE PTR __k$[ebp+3], -22 ; ffffffeaH
  001d0	eb 10		 jmp	 SHORT $LN1@LoadFloat_
$LN94@LoadFloat_:
  001d2	c6 45 e6 eb	 mov	 BYTE PTR __k$[ebp+2], -21 ; ffffffebH
  001d6	eb 0a		 jmp	 SHORT $LN1@LoadFloat_
$LN95@LoadFloat_:
  001d8	c6 45 e5 ec	 mov	 BYTE PTR __k$[ebp+1], -20 ; ffffffecH
  001dc	eb 04		 jmp	 SHORT $LN1@LoadFloat_
$LN96@LoadFloat_:
  001de	c6 45 e4 ed	 mov	 BYTE PTR __k$[ebp], -19	; ffffffedH
$LN1@LoadFloat_:
  001e2	6a 04		 push	 4
  001e4	8d 45 e4	 lea	 eax, DWORD PTR __k$[ebp]
  001e7	c6 45 f5 00	 mov	 BYTE PTR __k$[ebp+17], 0
  001eb	5a		 pop	 edx
$LL104@LoadFloat_:
  001ec	81 30 ed ec eb
	ea		 xor	 DWORD PTR [eax], -353637139 ; eaebecedH
  001f2	83 c0 04	 add	 eax, 4
  001f5	4a		 dec	 edx
  001f6	75 f4		 jne	 SHORT $LL104@LoadFloat_

; 137  : 		return LoadFloat(_k, f);

  001f8	f3 0f 10 45 0c	 movss	 xmm0, DWORD PTR _f$[ebp]
  001fd	80 75 f4 ed	 xor	 BYTE PTR __k$[ebp+16], -19 ; ffffffedH
  00201	51		 push	 ecx
  00202	8d 45 e4	 lea	 eax, DWORD PTR __k$[ebp]
  00205	f3 0f 11 04 24	 movss	 DWORD PTR [esp], xmm0
  0020a	50		 push	 eax
  0020b	8b ce		 mov	 ecx, esi
  0020d	ff 15 00 00 00
	00		 call	 DWORD PTR __imp_?LoadFloat@ioINILoader@@QAEMPBDM@Z

; 138  : 	}

  00213	8b 4d fc	 mov	 ecx, DWORD PTR __$ArrayPad$[ebp]
  00216	33 cd		 xor	 ecx, ebp
  00218	5e		 pop	 esi
  00219	e8 00 00 00 00	 call	 @__security_check_cookie@4
  0021e	c9		 leave
  0021f	c2 08 00	 ret	 8
??$LoadFloat_e@$0BC@@ioINILoader@@QAEMAAY0BC@$$CBDM@Z ENDP ; ioINILoader::LoadFloat_e<18>
_TEXT	ENDS
PUBLIC	__$ArrayPad$
PUBLIC	??$LoadInt_e@$0BI@@ioINILoader@@QAEHAAY0BI@$$CBDH@Z ; ioINILoader::LoadInt_e<24>
; Function compile flags: /Ogsp
;	COMDAT ??$LoadInt_e@$0BI@@ioINILoader@@QAEHAAY0BI@$$CBDH@Z
_TEXT	SEGMENT
__k$ = -32						; size = 24
__$ArrayPad$ = -4					; size = 4
_k$ = 8							; size = 4
_i$ = 12						; size = 4
??$LoadInt_e@$0BI@@ioINILoader@@QAEHAAY0BI@$$CBDH@Z PROC ; ioINILoader::LoadInt_e<24>, COMDAT
; _this$ = ecx

; 118  : 	{

  00000	55		 push	 ebp
  00001	8b ec		 mov	 ebp, esp
  00003	83 ec 20	 sub	 esp, 32			; 00000020H
  00006	a1 00 00 00 00	 mov	 eax, DWORD PTR ___security_cookie
  0000b	33 c5		 xor	 eax, ebp
  0000d	89 45 fc	 mov	 DWORD PTR __$ArrayPad$[ebp], eax
  00010	8b 45 08	 mov	 eax, DWORD PTR _k$[ebp]

; 119  : 		_ENCSTR(k, _k);

  00013	8a 10		 mov	 dl, BYTE PTR [eax]
  00015	53		 push	 ebx
  00016	56		 push	 esi
  00017	8b f1		 mov	 esi, ecx
  00019	84 d2		 test	 dl, dl
  0001b	0f 84 45 02 00
	00		 je	 $LN96@LoadInt_e@2
  00021	80 f2 ed	 xor	 dl, -19			; ffffffedH
  00024	88 55 e0	 mov	 BYTE PTR __k$[ebp], dl
  00027	8a 50 01	 mov	 dl, BYTE PTR [eax+1]
  0002a	84 d2		 test	 dl, dl
  0002c	0f 84 2e 02 00
	00		 je	 $LN95@LoadInt_e@2
  00032	b3 ec		 mov	 bl, -20			; ffffffecH
  00034	32 d3		 xor	 dl, bl
  00036	88 55 e1	 mov	 BYTE PTR __k$[ebp+1], dl
  00039	8a 50 02	 mov	 dl, BYTE PTR [eax+2]
  0003c	84 d2		 test	 dl, dl
  0003e	0f 84 16 02 00
	00		 je	 $LN94@LoadInt_e@2
  00044	b1 eb		 mov	 cl, -21			; ffffffebH
  00046	32 d1		 xor	 dl, cl
  00048	88 55 e2	 mov	 BYTE PTR __k$[ebp+2], dl
  0004b	8a 50 03	 mov	 dl, BYTE PTR [eax+3]
  0004e	84 d2		 test	 dl, dl
  00050	0f 84 fe 01 00
	00		 je	 $LN93@LoadInt_e@2
  00056	80 f2 ea	 xor	 dl, -22			; ffffffeaH
  00059	88 55 e3	 mov	 BYTE PTR __k$[ebp+3], dl
  0005c	8a 50 04	 mov	 dl, BYTE PTR [eax+4]
  0005f	84 d2		 test	 dl, dl
  00061	0f 84 e7 01 00
	00		 je	 $LN92@LoadInt_e@2
  00067	80 f2 ed	 xor	 dl, -19			; ffffffedH
  0006a	88 55 e4	 mov	 BYTE PTR __k$[ebp+4], dl
  0006d	8a 50 05	 mov	 dl, BYTE PTR [eax+5]
  00070	84 d2		 test	 dl, dl
  00072	0f 84 d1 01 00
	00		 je	 $LN91@LoadInt_e@2
  00078	32 d3		 xor	 dl, bl
  0007a	88 55 e5	 mov	 BYTE PTR __k$[ebp+5], dl
  0007d	8a 50 06	 mov	 dl, BYTE PTR [eax+6]
  00080	84 d2		 test	 dl, dl
  00082	0f 84 bc 01 00
	00		 je	 $LN90@LoadInt_e@2
  00088	32 d1		 xor	 dl, cl
  0008a	88 55 e6	 mov	 BYTE PTR __k$[ebp+6], dl
  0008d	8a 50 07	 mov	 dl, BYTE PTR [eax+7]
  00090	84 d2		 test	 dl, dl
  00092	0f 84 a6 01 00
	00		 je	 $LN89@LoadInt_e@2
  00098	80 f2 ea	 xor	 dl, -22			; ffffffeaH
  0009b	88 55 e7	 mov	 BYTE PTR __k$[ebp+7], dl
  0009e	8a 50 08	 mov	 dl, BYTE PTR [eax+8]
  000a1	84 d2		 test	 dl, dl
  000a3	0f 84 8f 01 00
	00		 je	 $LN88@LoadInt_e@2
  000a9	80 f2 ed	 xor	 dl, -19			; ffffffedH
  000ac	88 55 e8	 mov	 BYTE PTR __k$[ebp+8], dl
  000af	8a 50 09	 mov	 dl, BYTE PTR [eax+9]
  000b2	84 d2		 test	 dl, dl
  000b4	0f 84 79 01 00
	00		 je	 $LN87@LoadInt_e@2
  000ba	32 d3		 xor	 dl, bl
  000bc	88 55 e9	 mov	 BYTE PTR __k$[ebp+9], dl
  000bf	8a 50 0a	 mov	 dl, BYTE PTR [eax+10]
  000c2	84 d2		 test	 dl, dl
  000c4	0f 84 64 01 00
	00		 je	 $LN86@LoadInt_e@2
  000ca	32 d1		 xor	 dl, cl
  000cc	88 55 ea	 mov	 BYTE PTR __k$[ebp+10], dl
  000cf	8a 50 0b	 mov	 dl, BYTE PTR [eax+11]
  000d2	84 d2		 test	 dl, dl
  000d4	0f 84 4e 01 00
	00		 je	 $LN85@LoadInt_e@2
  000da	80 f2 ea	 xor	 dl, -22			; ffffffeaH
  000dd	88 55 eb	 mov	 BYTE PTR __k$[ebp+11], dl
  000e0	8a 50 0c	 mov	 dl, BYTE PTR [eax+12]
  000e3	84 d2		 test	 dl, dl
  000e5	0f 84 37 01 00
	00		 je	 $LN84@LoadInt_e@2
  000eb	80 f2 ed	 xor	 dl, -19			; ffffffedH
  000ee	88 55 ec	 mov	 BYTE PTR __k$[ebp+12], dl
  000f1	8a 50 0d	 mov	 dl, BYTE PTR [eax+13]
  000f4	84 d2		 test	 dl, dl
  000f6	0f 84 21 01 00
	00		 je	 $LN83@LoadInt_e@2
  000fc	32 d3		 xor	 dl, bl
  000fe	88 55 ed	 mov	 BYTE PTR __k$[ebp+13], dl
  00101	8a 50 0e	 mov	 dl, BYTE PTR [eax+14]
  00104	84 d2		 test	 dl, dl
  00106	0f 84 0c 01 00
	00		 je	 $LN82@LoadInt_e@2
  0010c	32 d1		 xor	 dl, cl
  0010e	88 55 ee	 mov	 BYTE PTR __k$[ebp+14], dl
  00111	8a 50 0f	 mov	 dl, BYTE PTR [eax+15]
  00114	84 d2		 test	 dl, dl
  00116	0f 84 f6 00 00
	00		 je	 $LN81@LoadInt_e@2
  0011c	80 f2 ea	 xor	 dl, -22			; ffffffeaH
  0011f	88 55 ef	 mov	 BYTE PTR __k$[ebp+15], dl
  00122	8a 50 10	 mov	 dl, BYTE PTR [eax+16]
  00125	84 d2		 test	 dl, dl
  00127	0f 84 df 00 00
	00		 je	 $LN80@LoadInt_e@2
  0012d	80 f2 ed	 xor	 dl, -19			; ffffffedH
  00130	88 55 f0	 mov	 BYTE PTR __k$[ebp+16], dl
  00133	8a 50 11	 mov	 dl, BYTE PTR [eax+17]
  00136	84 d2		 test	 dl, dl
  00138	0f 84 c9 00 00
	00		 je	 $LN79@LoadInt_e@2
  0013e	32 d3		 xor	 dl, bl
  00140	88 55 f1	 mov	 BYTE PTR __k$[ebp+17], dl
  00143	8a 50 12	 mov	 dl, BYTE PTR [eax+18]
  00146	84 d2		 test	 dl, dl
  00148	0f 84 b4 00 00
	00		 je	 $LN78@LoadInt_e@2
  0014e	32 d1		 xor	 dl, cl
  00150	88 55 f2	 mov	 BYTE PTR __k$[ebp+18], dl
  00153	8a 50 13	 mov	 dl, BYTE PTR [eax+19]
  00156	84 d2		 test	 dl, dl
  00158	0f 84 9e 00 00
	00		 je	 $LN77@LoadInt_e@2
  0015e	80 f2 ea	 xor	 dl, -22			; ffffffeaH
  00161	88 55 f3	 mov	 BYTE PTR __k$[ebp+19], dl
  00164	8a 50 14	 mov	 dl, BYTE PTR [eax+20]
  00167	84 d2		 test	 dl, dl
  00169	0f 84 87 00 00
	00		 je	 $LN76@LoadInt_e@2
  0016f	80 f2 ed	 xor	 dl, -19			; ffffffedH
  00172	88 55 f4	 mov	 BYTE PTR __k$[ebp+20], dl
  00175	8a 50 15	 mov	 dl, BYTE PTR [eax+21]
  00178	84 d2		 test	 dl, dl
  0017a	74 75		 je	 SHORT $LN75@LoadInt_e@2
  0017c	32 d3		 xor	 dl, bl
  0017e	88 55 f5	 mov	 BYTE PTR __k$[ebp+21], dl
  00181	8a 50 16	 mov	 dl, BYTE PTR [eax+22]
  00184	84 d2		 test	 dl, dl
  00186	74 64		 je	 SHORT $LN74@LoadInt_e@2
  00188	32 d1		 xor	 dl, cl
  0018a	80 78 17 00	 cmp	 BYTE PTR [eax+23], 0
  0018e	88 55 f6	 mov	 BYTE PTR __k$[ebp+22], dl
  00191	0f 84 d3 00 00
	00		 je	 $LN1@LoadInt_e@2
  00197	8a 50 18	 mov	 dl, BYTE PTR [eax+24]
  0019a	84 d2		 test	 dl, dl
  0019c	74 48		 je	 SHORT $LN72@LoadInt_e@2
  0019e	80 f2 ed	 xor	 dl, -19			; ffffffedH
  001a1	88 55 f8	 mov	 BYTE PTR __k$[ebp+24], dl
  001a4	8a 50 19	 mov	 dl, BYTE PTR [eax+25]
  001a7	84 d2		 test	 dl, dl
  001a9	74 33		 je	 SHORT $LN71@LoadInt_e@2
  001ab	32 d3		 xor	 dl, bl
  001ad	88 55 f9	 mov	 BYTE PTR __k$[ebp+25], dl
  001b0	8a 50 1a	 mov	 dl, BYTE PTR [eax+26]
  001b3	84 d2		 test	 dl, dl
  001b5	74 1f		 je	 SHORT $LN70@LoadInt_e@2
  001b7	8a 40 1b	 mov	 al, BYTE PTR [eax+27]
  001ba	32 d1		 xor	 dl, cl
  001bc	88 55 fa	 mov	 BYTE PTR __k$[ebp+26], dl
  001bf	84 c0		 test	 al, al
  001c1	74 0a		 je	 SHORT $LN69@LoadInt_e@2
  001c3	34 ea		 xor	 al, -22			; ffffffeaH
  001c5	88 45 fb	 mov	 BYTE PTR __k$[ebp+27], al
  001c8	e9 9d 00 00 00	 jmp	 $LN1@LoadInt_e@2
$LN69@LoadInt_e@2:
  001cd	c6 45 fb ea	 mov	 BYTE PTR __k$[ebp+27], -22 ; ffffffeaH
  001d1	e9 94 00 00 00	 jmp	 $LN1@LoadInt_e@2
$LN70@LoadInt_e@2:
  001d6	88 4d fa	 mov	 BYTE PTR __k$[ebp+26], cl
  001d9	e9 8c 00 00 00	 jmp	 $LN1@LoadInt_e@2
$LN71@LoadInt_e@2:
  001de	88 5d f9	 mov	 BYTE PTR __k$[ebp+25], bl
  001e1	e9 84 00 00 00	 jmp	 $LN1@LoadInt_e@2
$LN72@LoadInt_e@2:
  001e6	c6 45 f8 ed	 mov	 BYTE PTR __k$[ebp+24], -19 ; ffffffedH
  001ea	eb 7e		 jmp	 SHORT $LN1@LoadInt_e@2
$LN74@LoadInt_e@2:
  001ec	88 4d f6	 mov	 BYTE PTR __k$[ebp+22], cl
  001ef	eb 79		 jmp	 SHORT $LN1@LoadInt_e@2
$LN75@LoadInt_e@2:
  001f1	88 5d f5	 mov	 BYTE PTR __k$[ebp+21], bl
  001f4	eb 74		 jmp	 SHORT $LN1@LoadInt_e@2
$LN76@LoadInt_e@2:
  001f6	c6 45 f4 ed	 mov	 BYTE PTR __k$[ebp+20], -19 ; ffffffedH
  001fa	eb 6e		 jmp	 SHORT $LN1@LoadInt_e@2
$LN77@LoadInt_e@2:
  001fc	c6 45 f3 ea	 mov	 BYTE PTR __k$[ebp+19], -22 ; ffffffeaH
  00200	eb 68		 jmp	 SHORT $LN1@LoadInt_e@2
$LN78@LoadInt_e@2:
  00202	88 4d f2	 mov	 BYTE PTR __k$[ebp+18], cl
  00205	eb 63		 jmp	 SHORT $LN1@LoadInt_e@2
$LN79@LoadInt_e@2:
  00207	88 5d f1	 mov	 BYTE PTR __k$[ebp+17], bl
  0020a	eb 5e		 jmp	 SHORT $LN1@LoadInt_e@2
$LN80@LoadInt_e@2:
  0020c	c6 45 f0 ed	 mov	 BYTE PTR __k$[ebp+16], -19 ; ffffffedH
  00210	eb 58		 jmp	 SHORT $LN1@LoadInt_e@2
$LN81@LoadInt_e@2:
  00212	c6 45 ef ea	 mov	 BYTE PTR __k$[ebp+15], -22 ; ffffffeaH
  00216	eb 52		 jmp	 SHORT $LN1@LoadInt_e@2
$LN82@LoadInt_e@2:
  00218	88 4d ee	 mov	 BYTE PTR __k$[ebp+14], cl
  0021b	eb 4d		 jmp	 SHORT $LN1@LoadInt_e@2
$LN83@LoadInt_e@2:
  0021d	88 5d ed	 mov	 BYTE PTR __k$[ebp+13], bl
  00220	eb 48		 jmp	 SHORT $LN1@LoadInt_e@2
$LN84@LoadInt_e@2:
  00222	c6 45 ec ed	 mov	 BYTE PTR __k$[ebp+12], -19 ; ffffffedH
  00226	eb 42		 jmp	 SHORT $LN1@LoadInt_e@2
$LN85@LoadInt_e@2:
  00228	c6 45 eb ea	 mov	 BYTE PTR __k$[ebp+11], -22 ; ffffffeaH
  0022c	eb 3c		 jmp	 SHORT $LN1@LoadInt_e@2
$LN86@LoadInt_e@2:
  0022e	88 4d ea	 mov	 BYTE PTR __k$[ebp+10], cl
  00231	eb 37		 jmp	 SHORT $LN1@LoadInt_e@2
$LN87@LoadInt_e@2:
  00233	88 5d e9	 mov	 BYTE PTR __k$[ebp+9], bl
  00236	eb 32		 jmp	 SHORT $LN1@LoadInt_e@2
$LN88@LoadInt_e@2:
  00238	c6 45 e8 ed	 mov	 BYTE PTR __k$[ebp+8], -19 ; ffffffedH
  0023c	eb 2c		 jmp	 SHORT $LN1@LoadInt_e@2
$LN89@LoadInt_e@2:
  0023e	c6 45 e7 ea	 mov	 BYTE PTR __k$[ebp+7], -22 ; ffffffeaH
  00242	eb 26		 jmp	 SHORT $LN1@LoadInt_e@2
$LN90@LoadInt_e@2:
  00244	88 4d e6	 mov	 BYTE PTR __k$[ebp+6], cl
  00247	eb 21		 jmp	 SHORT $LN1@LoadInt_e@2
$LN91@LoadInt_e@2:
  00249	88 5d e5	 mov	 BYTE PTR __k$[ebp+5], bl
  0024c	eb 1c		 jmp	 SHORT $LN1@LoadInt_e@2
$LN92@LoadInt_e@2:
  0024e	c6 45 e4 ed	 mov	 BYTE PTR __k$[ebp+4], -19 ; ffffffedH
  00252	eb 16		 jmp	 SHORT $LN1@LoadInt_e@2
$LN93@LoadInt_e@2:
  00254	c6 45 e3 ea	 mov	 BYTE PTR __k$[ebp+3], -22 ; ffffffeaH
  00258	eb 10		 jmp	 SHORT $LN1@LoadInt_e@2
$LN94@LoadInt_e@2:
  0025a	c6 45 e2 eb	 mov	 BYTE PTR __k$[ebp+2], -21 ; ffffffebH
  0025e	eb 0a		 jmp	 SHORT $LN1@LoadInt_e@2
$LN95@LoadInt_e@2:
  00260	c6 45 e1 ec	 mov	 BYTE PTR __k$[ebp+1], -20 ; ffffffecH
  00264	eb 04		 jmp	 SHORT $LN1@LoadInt_e@2
$LN96@LoadInt_e@2:
  00266	c6 45 e0 ed	 mov	 BYTE PTR __k$[ebp], -19	; ffffffedH
$LN1@LoadInt_e@2:
  0026a	6a 05		 push	 5
  0026c	8d 45 e0	 lea	 eax, DWORD PTR __k$[ebp]
  0026f	c6 45 f7 00	 mov	 BYTE PTR __k$[ebp+23], 0
  00273	5a		 pop	 edx
$LL104@LoadInt_e@2:
  00274	81 30 ed ec eb
	ea		 xor	 DWORD PTR [eax], -353637139 ; eaebecedH
  0027a	83 c0 04	 add	 eax, 4
  0027d	4a		 dec	 edx
  0027e	75 f4		 jne	 SHORT $LL104@LoadInt_e@2
  00280	6a 14		 push	 20			; 00000014H
  00282	58		 pop	 eax
$LL101@LoadInt_e@2:
  00283	8b c8		 mov	 ecx, eax
  00285	81 e1 03 00 00
	80		 and	 ecx, -2147483645	; 80000003H
  0028b	79 05		 jns	 SHORT $LN111@LoadInt_e@2
  0028d	49		 dec	 ecx
  0028e	83 c9 fc	 or	 ecx, -4			; fffffffcH
  00291	41		 inc	 ecx
$LN111@LoadInt_e@2:
  00292	b2 ed		 mov	 dl, -19			; ffffffedH
  00294	2a d1		 sub	 dl, cl
  00296	30 54 05 e0	 xor	 BYTE PTR __k$[ebp+eax], dl
  0029a	40		 inc	 eax
  0029b	83 f8 17	 cmp	 eax, 23			; 00000017H
  0029e	7c e3		 jl	 SHORT $LL101@LoadInt_e@2

; 120  : 		return LoadInt(_k, i);

  002a0	ff 75 0c	 push	 DWORD PTR _i$[ebp]
  002a3	8d 45 e0	 lea	 eax, DWORD PTR __k$[ebp]
  002a6	50		 push	 eax
  002a7	8b ce		 mov	 ecx, esi
  002a9	ff 15 00 00 00
	00		 call	 DWORD PTR __imp_?LoadInt@ioINILoader@@QAEHPBDH@Z

; 121  : 	}

  002af	8b 4d fc	 mov	 ecx, DWORD PTR __$ArrayPad$[ebp]
  002b2	5e		 pop	 esi
  002b3	33 cd		 xor	 ecx, ebp
  002b5	5b		 pop	 ebx
  002b6	e8 00 00 00 00	 call	 @__security_check_cookie@4
  002bb	c9		 leave
  002bc	c2 08 00	 ret	 8
??$LoadInt_e@$0BI@@ioINILoader@@QAEHAAY0BI@$$CBDH@Z ENDP ; ioINILoader::LoadInt_e<24>
_TEXT	ENDS
PUBLIC	__$ArrayPad$
PUBLIC	??$LoadFloat_e@$0BK@@ioINILoader@@QAEMAAY0BK@$$CBDM@Z ; ioINILoader::LoadFloat_e<26>
; Function compile flags: /Ogsp
;	COMDAT ??$LoadFloat_e@$0BK@@ioINILoader@@QAEMAAY0BK@$$CBDM@Z
_TEXT	SEGMENT
__k$ = -36						; size = 26
__$ArrayPad$ = -4					; size = 4
_k$ = 8							; size = 4
_f$ = 12						; size = 4
??$LoadFloat_e@$0BK@@ioINILoader@@QAEMAAY0BK@$$CBDM@Z PROC ; ioINILoader::LoadFloat_e<26>, COMDAT
; _this$ = ecx

; 135  : 	{

  00000	55		 push	 ebp
  00001	8b ec		 mov	 ebp, esp
  00003	83 ec 24	 sub	 esp, 36			; 00000024H
  00006	a1 00 00 00 00	 mov	 eax, DWORD PTR ___security_cookie
  0000b	33 c5		 xor	 eax, ebp
  0000d	89 45 fc	 mov	 DWORD PTR __$ArrayPad$[ebp], eax
  00010	8b 45 08	 mov	 eax, DWORD PTR _k$[ebp]

; 136  : 		_ENCSTR(k, _k);

  00013	8a 10		 mov	 dl, BYTE PTR [eax]
  00015	53		 push	 ebx
  00016	56		 push	 esi
  00017	8b f1		 mov	 esi, ecx
  00019	84 d2		 test	 dl, dl
  0001b	0f 84 79 02 00
	00		 je	 $LN96@LoadFloat_@2
  00021	80 f2 ed	 xor	 dl, -19			; ffffffedH
  00024	88 55 dc	 mov	 BYTE PTR __k$[ebp], dl
  00027	8a 50 01	 mov	 dl, BYTE PTR [eax+1]
  0002a	84 d2		 test	 dl, dl
  0002c	0f 84 62 02 00
	00		 je	 $LN95@LoadFloat_@2
  00032	80 f2 ec	 xor	 dl, -20			; ffffffecH
  00035	88 55 dd	 mov	 BYTE PTR __k$[ebp+1], dl
  00038	8a 50 02	 mov	 dl, BYTE PTR [eax+2]
  0003b	84 d2		 test	 dl, dl
  0003d	0f 84 4b 02 00
	00		 je	 $LN94@LoadFloat_@2
  00043	b1 eb		 mov	 cl, -21			; ffffffebH
  00045	32 d1		 xor	 dl, cl
  00047	88 55 de	 mov	 BYTE PTR __k$[ebp+2], dl
  0004a	8a 50 03	 mov	 dl, BYTE PTR [eax+3]
  0004d	84 d2		 test	 dl, dl
  0004f	0f 84 33 02 00
	00		 je	 $LN93@LoadFloat_@2
  00055	b3 ea		 mov	 bl, -22			; ffffffeaH
  00057	32 d3		 xor	 dl, bl
  00059	88 55 df	 mov	 BYTE PTR __k$[ebp+3], dl
  0005c	8a 50 04	 mov	 dl, BYTE PTR [eax+4]
  0005f	84 d2		 test	 dl, dl
  00061	0f 84 1b 02 00
	00		 je	 $LN92@LoadFloat_@2
  00067	80 f2 ed	 xor	 dl, -19			; ffffffedH
  0006a	88 55 e0	 mov	 BYTE PTR __k$[ebp+4], dl
  0006d	8a 50 05	 mov	 dl, BYTE PTR [eax+5]
  00070	84 d2		 test	 dl, dl
  00072	0f 84 04 02 00
	00		 je	 $LN91@LoadFloat_@2
  00078	80 f2 ec	 xor	 dl, -20			; ffffffecH
  0007b	88 55 e1	 mov	 BYTE PTR __k$[ebp+5], dl
  0007e	8a 50 06	 mov	 dl, BYTE PTR [eax+6]
  00081	84 d2		 test	 dl, dl
  00083	0f 84 ee 01 00
	00		 je	 $LN90@LoadFloat_@2
  00089	32 d1		 xor	 dl, cl
  0008b	88 55 e2	 mov	 BYTE PTR __k$[ebp+6], dl
  0008e	8a 50 07	 mov	 dl, BYTE PTR [eax+7]
  00091	84 d2		 test	 dl, dl
  00093	0f 84 d9 01 00
	00		 je	 $LN89@LoadFloat_@2
  00099	32 d3		 xor	 dl, bl
  0009b	88 55 e3	 mov	 BYTE PTR __k$[ebp+7], dl
  0009e	8a 50 08	 mov	 dl, BYTE PTR [eax+8]
  000a1	84 d2		 test	 dl, dl
  000a3	0f 84 c3 01 00
	00		 je	 $LN88@LoadFloat_@2
  000a9	80 f2 ed	 xor	 dl, -19			; ffffffedH
  000ac	88 55 e4	 mov	 BYTE PTR __k$[ebp+8], dl
  000af	8a 50 09	 mov	 dl, BYTE PTR [eax+9]
  000b2	84 d2		 test	 dl, dl
  000b4	0f 84 ac 01 00
	00		 je	 $LN87@LoadFloat_@2
  000ba	80 f2 ec	 xor	 dl, -20			; ffffffecH
  000bd	88 55 e5	 mov	 BYTE PTR __k$[ebp+9], dl
  000c0	8a 50 0a	 mov	 dl, BYTE PTR [eax+10]
  000c3	84 d2		 test	 dl, dl
  000c5	0f 84 96 01 00
	00		 je	 $LN86@LoadFloat_@2
  000cb	32 d1		 xor	 dl, cl
  000cd	88 55 e6	 mov	 BYTE PTR __k$[ebp+10], dl
  000d0	8a 50 0b	 mov	 dl, BYTE PTR [eax+11]
  000d3	84 d2		 test	 dl, dl
  000d5	0f 84 81 01 00
	00		 je	 $LN85@LoadFloat_@2
  000db	32 d3		 xor	 dl, bl
  000dd	88 55 e7	 mov	 BYTE PTR __k$[ebp+11], dl
  000e0	8a 50 0c	 mov	 dl, BYTE PTR [eax+12]
  000e3	84 d2		 test	 dl, dl
  000e5	0f 84 6b 01 00
	00		 je	 $LN84@LoadFloat_@2
  000eb	80 f2 ed	 xor	 dl, -19			; ffffffedH
  000ee	88 55 e8	 mov	 BYTE PTR __k$[ebp+12], dl
  000f1	8a 50 0d	 mov	 dl, BYTE PTR [eax+13]
  000f4	84 d2		 test	 dl, dl
  000f6	0f 84 54 01 00
	00		 je	 $LN83@LoadFloat_@2
  000fc	80 f2 ec	 xor	 dl, -20			; ffffffecH
  000ff	88 55 e9	 mov	 BYTE PTR __k$[ebp+13], dl
  00102	8a 50 0e	 mov	 dl, BYTE PTR [eax+14]
  00105	84 d2		 test	 dl, dl
  00107	0f 84 3e 01 00
	00		 je	 $LN82@LoadFloat_@2
  0010d	32 d1		 xor	 dl, cl
  0010f	88 55 ea	 mov	 BYTE PTR __k$[ebp+14], dl
  00112	8a 50 0f	 mov	 dl, BYTE PTR [eax+15]
  00115	84 d2		 test	 dl, dl
  00117	0f 84 29 01 00
	00		 je	 $LN81@LoadFloat_@2
  0011d	32 d3		 xor	 dl, bl
  0011f	88 55 eb	 mov	 BYTE PTR __k$[ebp+15], dl
  00122	8a 50 10	 mov	 dl, BYTE PTR [eax+16]
  00125	84 d2		 test	 dl, dl
  00127	0f 84 13 01 00
	00		 je	 $LN80@LoadFloat_@2
  0012d	80 f2 ed	 xor	 dl, -19			; ffffffedH
  00130	88 55 ec	 mov	 BYTE PTR __k$[ebp+16], dl
  00133	8a 50 11	 mov	 dl, BYTE PTR [eax+17]
  00136	84 d2		 test	 dl, dl
  00138	0f 84 fc 00 00
	00		 je	 $LN79@LoadFloat_@2
  0013e	80 f2 ec	 xor	 dl, -20			; ffffffecH
  00141	88 55 ed	 mov	 BYTE PTR __k$[ebp+17], dl
  00144	8a 50 12	 mov	 dl, BYTE PTR [eax+18]
  00147	84 d2		 test	 dl, dl
  00149	0f 84 e6 00 00
	00		 je	 $LN78@LoadFloat_@2
  0014f	32 d1		 xor	 dl, cl
  00151	88 55 ee	 mov	 BYTE PTR __k$[ebp+18], dl
  00154	8a 50 13	 mov	 dl, BYTE PTR [eax+19]
  00157	84 d2		 test	 dl, dl
  00159	0f 84 d1 00 00
	00		 je	 $LN77@LoadFloat_@2
  0015f	32 d3		 xor	 dl, bl
  00161	88 55 ef	 mov	 BYTE PTR __k$[ebp+19], dl
  00164	8a 50 14	 mov	 dl, BYTE PTR [eax+20]
  00167	84 d2		 test	 dl, dl
  00169	0f 84 bb 00 00
	00		 je	 $LN76@LoadFloat_@2
  0016f	80 f2 ed	 xor	 dl, -19			; ffffffedH
  00172	88 55 f0	 mov	 BYTE PTR __k$[ebp+20], dl
  00175	8a 50 15	 mov	 dl, BYTE PTR [eax+21]
  00178	84 d2		 test	 dl, dl
  0017a	0f 84 a4 00 00
	00		 je	 $LN75@LoadFloat_@2
  00180	80 f2 ec	 xor	 dl, -20			; ffffffecH
  00183	88 55 f1	 mov	 BYTE PTR __k$[ebp+21], dl
  00186	8a 50 16	 mov	 dl, BYTE PTR [eax+22]
  00189	84 d2		 test	 dl, dl
  0018b	0f 84 8e 00 00
	00		 je	 $LN74@LoadFloat_@2
  00191	32 d1		 xor	 dl, cl
  00193	88 55 f2	 mov	 BYTE PTR __k$[ebp+22], dl
  00196	8a 50 17	 mov	 dl, BYTE PTR [eax+23]
  00199	84 d2		 test	 dl, dl
  0019b	74 7d		 je	 SHORT $LN73@LoadFloat_@2
  0019d	32 d3		 xor	 dl, bl
  0019f	88 55 f3	 mov	 BYTE PTR __k$[ebp+23], dl
  001a2	8a 50 18	 mov	 dl, BYTE PTR [eax+24]
  001a5	84 d2		 test	 dl, dl
  001a7	74 68		 je	 SHORT $LN72@LoadFloat_@2
  001a9	80 f2 ed	 xor	 dl, -19			; ffffffedH
  001ac	80 78 19 00	 cmp	 BYTE PTR [eax+25], 0
  001b0	88 55 f4	 mov	 BYTE PTR __k$[ebp+24], dl
  001b3	0f 84 e5 00 00
	00		 je	 $LN1@LoadFloat_@2
  001b9	8a 50 1a	 mov	 dl, BYTE PTR [eax+26]
  001bc	84 d2		 test	 dl, dl
  001be	74 49		 je	 SHORT $LN70@LoadFloat_@2
  001c0	32 d1		 xor	 dl, cl
  001c2	88 55 f6	 mov	 BYTE PTR __k$[ebp+26], dl
  001c5	8a 50 1b	 mov	 dl, BYTE PTR [eax+27]
  001c8	84 d2		 test	 dl, dl
  001ca	74 35		 je	 SHORT $LN69@LoadFloat_@2
  001cc	32 d3		 xor	 dl, bl
  001ce	88 55 f7	 mov	 BYTE PTR __k$[ebp+27], dl
  001d1	8a 50 1c	 mov	 dl, BYTE PTR [eax+28]
  001d4	84 d2		 test	 dl, dl
  001d6	74 20		 je	 SHORT $LN68@LoadFloat_@2
  001d8	8a 40 1d	 mov	 al, BYTE PTR [eax+29]
  001db	80 f2 ed	 xor	 dl, -19			; ffffffedH
  001de	88 55 f8	 mov	 BYTE PTR __k$[ebp+28], dl
  001e1	84 c0		 test	 al, al
  001e3	74 0a		 je	 SHORT $LN67@LoadFloat_@2
  001e5	34 ec		 xor	 al, -20			; ffffffecH
  001e7	88 45 f9	 mov	 BYTE PTR __k$[ebp+29], al
  001ea	e9 af 00 00 00	 jmp	 $LN1@LoadFloat_@2
$LN67@LoadFloat_@2:
  001ef	c6 45 f9 ec	 mov	 BYTE PTR __k$[ebp+29], -20 ; ffffffecH
  001f3	e9 a6 00 00 00	 jmp	 $LN1@LoadFloat_@2
$LN68@LoadFloat_@2:
  001f8	c6 45 f8 ed	 mov	 BYTE PTR __k$[ebp+28], -19 ; ffffffedH
  001fc	e9 9d 00 00 00	 jmp	 $LN1@LoadFloat_@2
$LN69@LoadFloat_@2:
  00201	88 5d f7	 mov	 BYTE PTR __k$[ebp+27], bl
  00204	e9 95 00 00 00	 jmp	 $LN1@LoadFloat_@2
$LN70@LoadFloat_@2:
  00209	88 4d f6	 mov	 BYTE PTR __k$[ebp+26], cl
  0020c	e9 8d 00 00 00	 jmp	 $LN1@LoadFloat_@2
$LN72@LoadFloat_@2:
  00211	c6 45 f4 ed	 mov	 BYTE PTR __k$[ebp+24], -19 ; ffffffedH
  00215	e9 84 00 00 00	 jmp	 $LN1@LoadFloat_@2
$LN73@LoadFloat_@2:
  0021a	88 5d f3	 mov	 BYTE PTR __k$[ebp+23], bl
  0021d	eb 7f		 jmp	 SHORT $LN1@LoadFloat_@2
$LN74@LoadFloat_@2:
  0021f	88 4d f2	 mov	 BYTE PTR __k$[ebp+22], cl
  00222	eb 7a		 jmp	 SHORT $LN1@LoadFloat_@2
$LN75@LoadFloat_@2:
  00224	c6 45 f1 ec	 mov	 BYTE PTR __k$[ebp+21], -20 ; ffffffecH
  00228	eb 74		 jmp	 SHORT $LN1@LoadFloat_@2
$LN76@LoadFloat_@2:
  0022a	c6 45 f0 ed	 mov	 BYTE PTR __k$[ebp+20], -19 ; ffffffedH
  0022e	eb 6e		 jmp	 SHORT $LN1@LoadFloat_@2
$LN77@LoadFloat_@2:
  00230	88 5d ef	 mov	 BYTE PTR __k$[ebp+19], bl
  00233	eb 69		 jmp	 SHORT $LN1@LoadFloat_@2
$LN78@LoadFloat_@2:
  00235	88 4d ee	 mov	 BYTE PTR __k$[ebp+18], cl
  00238	eb 64		 jmp	 SHORT $LN1@LoadFloat_@2
$LN79@LoadFloat_@2:
  0023a	c6 45 ed ec	 mov	 BYTE PTR __k$[ebp+17], -20 ; ffffffecH
  0023e	eb 5e		 jmp	 SHORT $LN1@LoadFloat_@2
$LN80@LoadFloat_@2:
  00240	c6 45 ec ed	 mov	 BYTE PTR __k$[ebp+16], -19 ; ffffffedH
  00244	eb 58		 jmp	 SHORT $LN1@LoadFloat_@2
$LN81@LoadFloat_@2:
  00246	88 5d eb	 mov	 BYTE PTR __k$[ebp+15], bl
  00249	eb 53		 jmp	 SHORT $LN1@LoadFloat_@2
$LN82@LoadFloat_@2:
  0024b	88 4d ea	 mov	 BYTE PTR __k$[ebp+14], cl
  0024e	eb 4e		 jmp	 SHORT $LN1@LoadFloat_@2
$LN83@LoadFloat_@2:
  00250	c6 45 e9 ec	 mov	 BYTE PTR __k$[ebp+13], -20 ; ffffffecH
  00254	eb 48		 jmp	 SHORT $LN1@LoadFloat_@2
$LN84@LoadFloat_@2:
  00256	c6 45 e8 ed	 mov	 BYTE PTR __k$[ebp+12], -19 ; ffffffedH
  0025a	eb 42		 jmp	 SHORT $LN1@LoadFloat_@2
$LN85@LoadFloat_@2:
  0025c	88 5d e7	 mov	 BYTE PTR __k$[ebp+11], bl
  0025f	eb 3d		 jmp	 SHORT $LN1@LoadFloat_@2
$LN86@LoadFloat_@2:
  00261	88 4d e6	 mov	 BYTE PTR __k$[ebp+10], cl
  00264	eb 38		 jmp	 SHORT $LN1@LoadFloat_@2
$LN87@LoadFloat_@2:
  00266	c6 45 e5 ec	 mov	 BYTE PTR __k$[ebp+9], -20 ; ffffffecH
  0026a	eb 32		 jmp	 SHORT $LN1@LoadFloat_@2
$LN88@LoadFloat_@2:
  0026c	c6 45 e4 ed	 mov	 BYTE PTR __k$[ebp+8], -19 ; ffffffedH
  00270	eb 2c		 jmp	 SHORT $LN1@LoadFloat_@2
$LN89@LoadFloat_@2:
  00272	88 5d e3	 mov	 BYTE PTR __k$[ebp+7], bl
  00275	eb 27		 jmp	 SHORT $LN1@LoadFloat_@2
$LN90@LoadFloat_@2:
  00277	88 4d e2	 mov	 BYTE PTR __k$[ebp+6], cl
  0027a	eb 22		 jmp	 SHORT $LN1@LoadFloat_@2
$LN91@LoadFloat_@2:
  0027c	c6 45 e1 ec	 mov	 BYTE PTR __k$[ebp+5], -20 ; ffffffecH
  00280	eb 1c		 jmp	 SHORT $LN1@LoadFloat_@2
$LN92@LoadFloat_@2:
  00282	c6 45 e0 ed	 mov	 BYTE PTR __k$[ebp+4], -19 ; ffffffedH
  00286	eb 16		 jmp	 SHORT $LN1@LoadFloat_@2
$LN93@LoadFloat_@2:
  00288	c6 45 df ea	 mov	 BYTE PTR __k$[ebp+3], -22 ; ffffffeaH
  0028c	eb 10		 jmp	 SHORT $LN1@LoadFloat_@2
$LN94@LoadFloat_@2:
  0028e	c6 45 de eb	 mov	 BYTE PTR __k$[ebp+2], -21 ; ffffffebH
  00292	eb 0a		 jmp	 SHORT $LN1@LoadFloat_@2
$LN95@LoadFloat_@2:
  00294	c6 45 dd ec	 mov	 BYTE PTR __k$[ebp+1], -20 ; ffffffecH
  00298	eb 04		 jmp	 SHORT $LN1@LoadFloat_@2
$LN96@LoadFloat_@2:
  0029a	c6 45 dc ed	 mov	 BYTE PTR __k$[ebp], -19	; ffffffedH
$LN1@LoadFloat_@2:
  0029e	6a 06		 push	 6
  002a0	8d 45 dc	 lea	 eax, DWORD PTR __k$[ebp]
  002a3	c6 45 f5 00	 mov	 BYTE PTR __k$[ebp+25], 0
  002a7	5a		 pop	 edx
$LL104@LoadFloat_@2:
  002a8	81 30 ed ec eb
	ea		 xor	 DWORD PTR [eax], -353637139 ; eaebecedH
  002ae	83 c0 04	 add	 eax, 4
  002b1	4a		 dec	 edx
  002b2	75 f4		 jne	 SHORT $LL104@LoadFloat_@2

; 137  : 		return LoadFloat(_k, f);

  002b4	f3 0f 10 45 0c	 movss	 xmm0, DWORD PTR _f$[ebp]
  002b9	80 75 f4 ed	 xor	 BYTE PTR __k$[ebp+24], -19 ; ffffffedH
  002bd	51		 push	 ecx
  002be	8d 45 dc	 lea	 eax, DWORD PTR __k$[ebp]
  002c1	f3 0f 11 04 24	 movss	 DWORD PTR [esp], xmm0
  002c6	50		 push	 eax
  002c7	8b ce		 mov	 ecx, esi
  002c9	ff 15 00 00 00
	00		 call	 DWORD PTR __imp_?LoadFloat@ioINILoader@@QAEMPBDM@Z

; 138  : 	}

  002cf	8b 4d fc	 mov	 ecx, DWORD PTR __$ArrayPad$[ebp]
  002d2	5e		 pop	 esi
  002d3	33 cd		 xor	 ecx, ebp
  002d5	5b		 pop	 ebx
  002d6	e8 00 00 00 00	 call	 @__security_check_cookie@4
  002db	c9		 leave
  002dc	c2 08 00	 ret	 8
??$LoadFloat_e@$0BK@@ioINILoader@@QAEMAAY0BK@$$CBDM@Z ENDP ; ioINILoader::LoadFloat_e<26>
_TEXT	ENDS
PUBLIC	__$ArrayPad$
PUBLIC	??$LoadFloat_e@$0BN@@ioINILoader@@QAEMAAY0BN@$$CBDM@Z ; ioINILoader::LoadFloat_e<29>
; Function compile flags: /Ogsp
;	COMDAT ??$LoadFloat_e@$0BN@@ioINILoader@@QAEMAAY0BN@$$CBDM@Z
_TEXT	SEGMENT
__k$ = -40						; size = 29
__$ArrayPad$ = -4					; size = 4
_k$ = 8							; size = 4
_f$ = 12						; size = 4
??$LoadFloat_e@$0BN@@ioINILoader@@QAEMAAY0BN@$$CBDM@Z PROC ; ioINILoader::LoadFloat_e<29>, COMDAT
; _this$ = ecx

; 135  : 	{

  00000	55		 push	 ebp
  00001	8b ec		 mov	 ebp, esp
  00003	83 ec 28	 sub	 esp, 40			; 00000028H
  00006	a1 00 00 00 00	 mov	 eax, DWORD PTR ___security_cookie
  0000b	33 c5		 xor	 eax, ebp
  0000d	89 45 fc	 mov	 DWORD PTR __$ArrayPad$[ebp], eax
  00010	8b 45 08	 mov	 eax, DWORD PTR _k$[ebp]

; 136  : 		_ENCSTR(k, _k);

  00013	8a 10		 mov	 dl, BYTE PTR [eax]
  00015	53		 push	 ebx
  00016	56		 push	 esi
  00017	8b f1		 mov	 esi, ecx
  00019	84 d2		 test	 dl, dl
  0001b	0f 84 c3 02 00
	00		 je	 $LN96@LoadFloat_@3
  00021	80 f2 ed	 xor	 dl, -19			; ffffffedH
  00024	88 55 d8	 mov	 BYTE PTR __k$[ebp], dl
  00027	8a 50 01	 mov	 dl, BYTE PTR [eax+1]
  0002a	84 d2		 test	 dl, dl
  0002c	0f 84 ac 02 00
	00		 je	 $LN95@LoadFloat_@3
  00032	b1 ec		 mov	 cl, -20			; ffffffecH
  00034	32 d1		 xor	 dl, cl
  00036	88 55 d9	 mov	 BYTE PTR __k$[ebp+1], dl
  00039	8a 50 02	 mov	 dl, BYTE PTR [eax+2]
  0003c	84 d2		 test	 dl, dl
  0003e	0f 84 94 02 00
	00		 je	 $LN94@LoadFloat_@3
  00044	b3 eb		 mov	 bl, -21			; ffffffebH
  00046	32 d3		 xor	 dl, bl
  00048	88 55 da	 mov	 BYTE PTR __k$[ebp+2], dl
  0004b	8a 50 03	 mov	 dl, BYTE PTR [eax+3]
  0004e	84 d2		 test	 dl, dl
  00050	0f 84 7c 02 00
	00		 je	 $LN93@LoadFloat_@3
  00056	80 f2 ea	 xor	 dl, -22			; ffffffeaH
  00059	88 55 db	 mov	 BYTE PTR __k$[ebp+3], dl
  0005c	8a 50 04	 mov	 dl, BYTE PTR [eax+4]
  0005f	84 d2		 test	 dl, dl
  00061	0f 84 65 02 00
	00		 je	 $LN92@LoadFloat_@3
  00067	80 f2 ed	 xor	 dl, -19			; ffffffedH
  0006a	88 55 dc	 mov	 BYTE PTR __k$[ebp+4], dl
  0006d	8a 50 05	 mov	 dl, BYTE PTR [eax+5]
  00070	84 d2		 test	 dl, dl
  00072	0f 84 4f 02 00
	00		 je	 $LN91@LoadFloat_@3
  00078	32 d1		 xor	 dl, cl
  0007a	88 55 dd	 mov	 BYTE PTR __k$[ebp+5], dl
  0007d	8a 50 06	 mov	 dl, BYTE PTR [eax+6]
  00080	84 d2		 test	 dl, dl
  00082	0f 84 3a 02 00
	00		 je	 $LN90@LoadFloat_@3
  00088	32 d3		 xor	 dl, bl
  0008a	88 55 de	 mov	 BYTE PTR __k$[ebp+6], dl
  0008d	8a 50 07	 mov	 dl, BYTE PTR [eax+7]
  00090	84 d2		 test	 dl, dl
  00092	0f 84 24 02 00
	00		 je	 $LN89@LoadFloat_@3
  00098	80 f2 ea	 xor	 dl, -22			; ffffffeaH
  0009b	88 55 df	 mov	 BYTE PTR __k$[ebp+7], dl
  0009e	8a 50 08	 mov	 dl, BYTE PTR [eax+8]
  000a1	84 d2		 test	 dl, dl
  000a3	0f 84 0d 02 00
	00		 je	 $LN88@LoadFloat_@3
  000a9	80 f2 ed	 xor	 dl, -19			; ffffffedH
  000ac	88 55 e0	 mov	 BYTE PTR __k$[ebp+8], dl
  000af	8a 50 09	 mov	 dl, BYTE PTR [eax+9]
  000b2	84 d2		 test	 dl, dl
  000b4	0f 84 f7 01 00
	00		 je	 $LN87@LoadFloat_@3
  000ba	32 d1		 xor	 dl, cl
  000bc	88 55 e1	 mov	 BYTE PTR __k$[ebp+9], dl
  000bf	8a 50 0a	 mov	 dl, BYTE PTR [eax+10]
  000c2	84 d2		 test	 dl, dl
  000c4	0f 84 e2 01 00
	00		 je	 $LN86@LoadFloat_@3
  000ca	32 d3		 xor	 dl, bl
  000cc	88 55 e2	 mov	 BYTE PTR __k$[ebp+10], dl
  000cf	8a 50 0b	 mov	 dl, BYTE PTR [eax+11]
  000d2	84 d2		 test	 dl, dl
  000d4	0f 84 cc 01 00
	00		 je	 $LN85@LoadFloat_@3
  000da	80 f2 ea	 xor	 dl, -22			; ffffffeaH
  000dd	88 55 e3	 mov	 BYTE PTR __k$[ebp+11], dl
  000e0	8a 50 0c	 mov	 dl, BYTE PTR [eax+12]
  000e3	84 d2		 test	 dl, dl
  000e5	0f 84 b5 01 00
	00		 je	 $LN84@LoadFloat_@3
  000eb	80 f2 ed	 xor	 dl, -19			; ffffffedH
  000ee	88 55 e4	 mov	 BYTE PTR __k$[ebp+12], dl
  000f1	8a 50 0d	 mov	 dl, BYTE PTR [eax+13]
  000f4	84 d2		 test	 dl, dl
  000f6	0f 84 9f 01 00
	00		 je	 $LN83@LoadFloat_@3
  000fc	32 d1		 xor	 dl, cl
  000fe	88 55 e5	 mov	 BYTE PTR __k$[ebp+13], dl
  00101	8a 50 0e	 mov	 dl, BYTE PTR [eax+14]
  00104	84 d2		 test	 dl, dl
  00106	0f 84 8a 01 00
	00		 je	 $LN82@LoadFloat_@3
  0010c	32 d3		 xor	 dl, bl
  0010e	88 55 e6	 mov	 BYTE PTR __k$[ebp+14], dl
  00111	8a 50 0f	 mov	 dl, BYTE PTR [eax+15]
  00114	84 d2		 test	 dl, dl
  00116	0f 84 74 01 00
	00		 je	 $LN81@LoadFloat_@3
  0011c	80 f2 ea	 xor	 dl, -22			; ffffffeaH
  0011f	88 55 e7	 mov	 BYTE PTR __k$[ebp+15], dl
  00122	8a 50 10	 mov	 dl, BYTE PTR [eax+16]
  00125	84 d2		 test	 dl, dl
  00127	0f 84 5d 01 00
	00		 je	 $LN80@LoadFloat_@3
  0012d	80 f2 ed	 xor	 dl, -19			; ffffffedH
  00130	88 55 e8	 mov	 BYTE PTR __k$[ebp+16], dl
  00133	8a 50 11	 mov	 dl, BYTE PTR [eax+17]
  00136	84 d2		 test	 dl, dl
  00138	0f 84 47 01 00
	00		 je	 $LN79@LoadFloat_@3
  0013e	32 d1		 xor	 dl, cl
  00140	88 55 e9	 mov	 BYTE PTR __k$[ebp+17], dl
  00143	8a 50 12	 mov	 dl, BYTE PTR [eax+18]
  00146	84 d2		 test	 dl, dl
  00148	0f 84 32 01 00
	00		 je	 $LN78@LoadFloat_@3
  0014e	32 d3		 xor	 dl, bl
  00150	88 55 ea	 mov	 BYTE PTR __k$[ebp+18], dl
  00153	8a 50 13	 mov	 dl, BYTE PTR [eax+19]
  00156	84 d2		 test	 dl, dl
  00158	0f 84 1c 01 00
	00		 je	 $LN77@LoadFloat_@3
  0015e	80 f2 ea	 xor	 dl, -22			; ffffffeaH
  00161	88 55 eb	 mov	 BYTE PTR __k$[ebp+19], dl
  00164	8a 50 14	 mov	 dl, BYTE PTR [eax+20]
  00167	84 d2		 test	 dl, dl
  00169	0f 84 05 01 00
	00		 je	 $LN76@LoadFloat_@3
  0016f	80 f2 ed	 xor	 dl, -19			; ffffffedH
  00172	88 55 ec	 mov	 BYTE PTR __k$[ebp+20], dl
  00175	8a 50 15	 mov	 dl, BYTE PTR [eax+21]
  00178	84 d2		 test	 dl, dl
  0017a	0f 84 ef 00 00
	00		 je	 $LN75@LoadFloat_@3
  00180	32 d1		 xor	 dl, cl
  00182	88 55 ed	 mov	 BYTE PTR __k$[ebp+21], dl
  00185	8a 50 16	 mov	 dl, BYTE PTR [eax+22]
  00188	84 d2		 test	 dl, dl
  0018a	0f 84 da 00 00
	00		 je	 $LN74@LoadFloat_@3
  00190	32 d3		 xor	 dl, bl
  00192	88 55 ee	 mov	 BYTE PTR __k$[ebp+22], dl
  00195	8a 50 17	 mov	 dl, BYTE PTR [eax+23]
  00198	84 d2		 test	 dl, dl
  0019a	0f 84 c4 00 00
	00		 je	 $LN73@LoadFloat_@3
  001a0	80 f2 ea	 xor	 dl, -22			; ffffffeaH
  001a3	88 55 ef	 mov	 BYTE PTR __k$[ebp+23], dl
  001a6	8a 50 18	 mov	 dl, BYTE PTR [eax+24]
  001a9	84 d2		 test	 dl, dl
  001ab	0f 84 aa 00 00
	00		 je	 $LN72@LoadFloat_@3
  001b1	80 f2 ed	 xor	 dl, -19			; ffffffedH
  001b4	88 55 f0	 mov	 BYTE PTR __k$[ebp+24], dl
  001b7	8a 50 19	 mov	 dl, BYTE PTR [eax+25]
  001ba	84 d2		 test	 dl, dl
  001bc	0f 84 91 00 00
	00		 je	 $LN71@LoadFloat_@3
  001c2	32 d1		 xor	 dl, cl
  001c4	88 55 f1	 mov	 BYTE PTR __k$[ebp+25], dl
  001c7	8a 50 1a	 mov	 dl, BYTE PTR [eax+26]
  001ca	84 d2		 test	 dl, dl
  001cc	74 7d		 je	 SHORT $LN70@LoadFloat_@3
  001ce	32 d3		 xor	 dl, bl
  001d0	88 55 f2	 mov	 BYTE PTR __k$[ebp+26], dl
  001d3	8a 50 1b	 mov	 dl, BYTE PTR [eax+27]
  001d6	84 d2		 test	 dl, dl
  001d8	74 68		 je	 SHORT $LN69@LoadFloat_@3
  001da	80 f2 ea	 xor	 dl, -22			; ffffffeaH
  001dd	80 78 1c 00	 cmp	 BYTE PTR [eax+28], 0
  001e1	88 55 f3	 mov	 BYTE PTR __k$[ebp+27], dl
  001e4	0f 84 fe 00 00
	00		 je	 $LN1@LoadFloat_@3
  001ea	8a 50 1d	 mov	 dl, BYTE PTR [eax+29]
  001ed	84 d2		 test	 dl, dl
  001ef	74 49		 je	 SHORT $LN67@LoadFloat_@3
  001f1	32 d1		 xor	 dl, cl
  001f3	88 55 f5	 mov	 BYTE PTR __k$[ebp+29], dl
  001f6	8a 50 1e	 mov	 dl, BYTE PTR [eax+30]
  001f9	84 d2		 test	 dl, dl
  001fb	74 35		 je	 SHORT $LN66@LoadFloat_@3
  001fd	32 d3		 xor	 dl, bl
  001ff	88 55 f6	 mov	 BYTE PTR __k$[ebp+30], dl
  00202	8a 50 1f	 mov	 dl, BYTE PTR [eax+31]
  00205	84 d2		 test	 dl, dl
  00207	74 20		 je	 SHORT $LN65@LoadFloat_@3
  00209	8a 40 20	 mov	 al, BYTE PTR [eax+32]
  0020c	80 f2 ea	 xor	 dl, -22			; ffffffeaH
  0020f	88 55 f7	 mov	 BYTE PTR __k$[ebp+31], dl
  00212	84 c0		 test	 al, al
  00214	74 0a		 je	 SHORT $LN64@LoadFloat_@3
  00216	34 ed		 xor	 al, -19			; ffffffedH
  00218	88 45 f8	 mov	 BYTE PTR __k$[ebp+32], al
  0021b	e9 c8 00 00 00	 jmp	 $LN1@LoadFloat_@3
$LN64@LoadFloat_@3:
  00220	c6 45 f8 ed	 mov	 BYTE PTR __k$[ebp+32], -19 ; ffffffedH
  00224	e9 bf 00 00 00	 jmp	 $LN1@LoadFloat_@3
$LN65@LoadFloat_@3:
  00229	c6 45 f7 ea	 mov	 BYTE PTR __k$[ebp+31], -22 ; ffffffeaH
  0022d	e9 b6 00 00 00	 jmp	 $LN1@LoadFloat_@3
$LN66@LoadFloat_@3:
  00232	88 5d f6	 mov	 BYTE PTR __k$[ebp+30], bl
  00235	e9 ae 00 00 00	 jmp	 $LN1@LoadFloat_@3
$LN67@LoadFloat_@3:
  0023a	88 4d f5	 mov	 BYTE PTR __k$[ebp+29], cl
  0023d	e9 a6 00 00 00	 jmp	 $LN1@LoadFloat_@3
$LN69@LoadFloat_@3:
  00242	c6 45 f3 ea	 mov	 BYTE PTR __k$[ebp+27], -22 ; ffffffeaH
  00246	e9 9d 00 00 00	 jmp	 $LN1@LoadFloat_@3
$LN70@LoadFloat_@3:
  0024b	88 5d f2	 mov	 BYTE PTR __k$[ebp+26], bl
  0024e	e9 95 00 00 00	 jmp	 $LN1@LoadFloat_@3
$LN71@LoadFloat_@3:
  00253	88 4d f1	 mov	 BYTE PTR __k$[ebp+25], cl
  00256	e9 8d 00 00 00	 jmp	 $LN1@LoadFloat_@3
$LN72@LoadFloat_@3:
  0025b	c6 45 f0 ed	 mov	 BYTE PTR __k$[ebp+24], -19 ; ffffffedH
  0025f	e9 84 00 00 00	 jmp	 $LN1@LoadFloat_@3
$LN73@LoadFloat_@3:
  00264	c6 45 ef ea	 mov	 BYTE PTR __k$[ebp+23], -22 ; ffffffeaH
  00268	eb 7e		 jmp	 SHORT $LN1@LoadFloat_@3
$LN74@LoadFloat_@3:
  0026a	88 5d ee	 mov	 BYTE PTR __k$[ebp+22], bl
  0026d	eb 79		 jmp	 SHORT $LN1@LoadFloat_@3
$LN75@LoadFloat_@3:
  0026f	88 4d ed	 mov	 BYTE PTR __k$[ebp+21], cl
  00272	eb 74		 jmp	 SHORT $LN1@LoadFloat_@3
$LN76@LoadFloat_@3:
  00274	c6 45 ec ed	 mov	 BYTE PTR __k$[ebp+20], -19 ; ffffffedH
  00278	eb 6e		 jmp	 SHORT $LN1@LoadFloat_@3
$LN77@LoadFloat_@3:
  0027a	c6 45 eb ea	 mov	 BYTE PTR __k$[ebp+19], -22 ; ffffffeaH
  0027e	eb 68		 jmp	 SHORT $LN1@LoadFloat_@3
$LN78@LoadFloat_@3:
  00280	88 5d ea	 mov	 BYTE PTR __k$[ebp+18], bl
  00283	eb 63		 jmp	 SHORT $LN1@LoadFloat_@3
$LN79@LoadFloat_@3:
  00285	88 4d e9	 mov	 BYTE PTR __k$[ebp+17], cl
  00288	eb 5e		 jmp	 SHORT $LN1@LoadFloat_@3
$LN80@LoadFloat_@3:
  0028a	c6 45 e8 ed	 mov	 BYTE PTR __k$[ebp+16], -19 ; ffffffedH
  0028e	eb 58		 jmp	 SHORT $LN1@LoadFloat_@3
$LN81@LoadFloat_@3:
  00290	c6 45 e7 ea	 mov	 BYTE PTR __k$[ebp+15], -22 ; ffffffeaH
  00294	eb 52		 jmp	 SHORT $LN1@LoadFloat_@3
$LN82@LoadFloat_@3:
  00296	88 5d e6	 mov	 BYTE PTR __k$[ebp+14], bl
  00299	eb 4d		 jmp	 SHORT $LN1@LoadFloat_@3
$LN83@LoadFloat_@3:
  0029b	88 4d e5	 mov	 BYTE PTR __k$[ebp+13], cl
  0029e	eb 48		 jmp	 SHORT $LN1@LoadFloat_@3
$LN84@LoadFloat_@3:
  002a0	c6 45 e4 ed	 mov	 BYTE PTR __k$[ebp+12], -19 ; ffffffedH
  002a4	eb 42		 jmp	 SHORT $LN1@LoadFloat_@3
$LN85@LoadFloat_@3:
  002a6	c6 45 e3 ea	 mov	 BYTE PTR __k$[ebp+11], -22 ; ffffffeaH
  002aa	eb 3c		 jmp	 SHORT $LN1@LoadFloat_@3
$LN86@LoadFloat_@3:
  002ac	88 5d e2	 mov	 BYTE PTR __k$[ebp+10], bl
  002af	eb 37		 jmp	 SHORT $LN1@LoadFloat_@3
$LN87@LoadFloat_@3:
  002b1	88 4d e1	 mov	 BYTE PTR __k$[ebp+9], cl
  002b4	eb 32		 jmp	 SHORT $LN1@LoadFloat_@3
$LN88@LoadFloat_@3:
  002b6	c6 45 e0 ed	 mov	 BYTE PTR __k$[ebp+8], -19 ; ffffffedH
  002ba	eb 2c		 jmp	 SHORT $LN1@LoadFloat_@3
$LN89@LoadFloat_@3:
  002bc	c6 45 df ea	 mov	 BYTE PTR __k$[ebp+7], -22 ; ffffffeaH
  002c0	eb 26		 jmp	 SHORT $LN1@LoadFloat_@3
$LN90@LoadFloat_@3:
  002c2	88 5d de	 mov	 BYTE PTR __k$[ebp+6], bl
  002c5	eb 21		 jmp	 SHORT $LN1@LoadFloat_@3
$LN91@LoadFloat_@3:
  002c7	88 4d dd	 mov	 BYTE PTR __k$[ebp+5], cl
  002ca	eb 1c		 jmp	 SHORT $LN1@LoadFloat_@3
$LN92@LoadFloat_@3:
  002cc	c6 45 dc ed	 mov	 BYTE PTR __k$[ebp+4], -19 ; ffffffedH
  002d0	eb 16		 jmp	 SHORT $LN1@LoadFloat_@3
$LN93@LoadFloat_@3:
  002d2	c6 45 db ea	 mov	 BYTE PTR __k$[ebp+3], -22 ; ffffffeaH
  002d6	eb 10		 jmp	 SHORT $LN1@LoadFloat_@3
$LN94@LoadFloat_@3:
  002d8	c6 45 da eb	 mov	 BYTE PTR __k$[ebp+2], -21 ; ffffffebH
  002dc	eb 0a		 jmp	 SHORT $LN1@LoadFloat_@3
$LN95@LoadFloat_@3:
  002de	c6 45 d9 ec	 mov	 BYTE PTR __k$[ebp+1], -20 ; ffffffecH
  002e2	eb 04		 jmp	 SHORT $LN1@LoadFloat_@3
$LN96@LoadFloat_@3:
  002e4	c6 45 d8 ed	 mov	 BYTE PTR __k$[ebp], -19	; ffffffedH
$LN1@LoadFloat_@3:
  002e8	6a 07		 push	 7
  002ea	8d 45 d8	 lea	 eax, DWORD PTR __k$[ebp]
  002ed	c6 45 f4 00	 mov	 BYTE PTR __k$[ebp+28], 0
  002f1	5a		 pop	 edx
$LL104@LoadFloat_@3:
  002f2	81 30 ed ec eb
	ea		 xor	 DWORD PTR [eax], -353637139 ; eaebecedH
  002f8	83 c0 04	 add	 eax, 4
  002fb	4a		 dec	 edx
  002fc	75 f4		 jne	 SHORT $LL104@LoadFloat_@3

; 137  : 		return LoadFloat(_k, f);

  002fe	f3 0f 10 45 0c	 movss	 xmm0, DWORD PTR _f$[ebp]
  00303	51		 push	 ecx
  00304	8d 45 d8	 lea	 eax, DWORD PTR __k$[ebp]
  00307	f3 0f 11 04 24	 movss	 DWORD PTR [esp], xmm0
  0030c	50		 push	 eax
  0030d	8b ce		 mov	 ecx, esi
  0030f	ff 15 00 00 00
	00		 call	 DWORD PTR __imp_?LoadFloat@ioINILoader@@QAEMPBDM@Z

; 138  : 	}

  00315	8b 4d fc	 mov	 ecx, DWORD PTR __$ArrayPad$[ebp]
  00318	5e		 pop	 esi
  00319	33 cd		 xor	 ecx, ebp
  0031b	5b		 pop	 ebx
  0031c	e8 00 00 00 00	 call	 @__security_check_cookie@4
  00321	c9		 leave
  00322	c2 08 00	 ret	 8
??$LoadFloat_e@$0BN@@ioINILoader@@QAEMAAY0BN@$$CBDM@Z ENDP ; ioINILoader::LoadFloat_e<29>
_TEXT	ENDS
PUBLIC	__$ArrayPad$
PUBLIC	??$LoadFloat_e@$0BM@@ioINILoader@@QAEMAAY0BM@$$CBDM@Z ; ioINILoader::LoadFloat_e<28>
; Function compile flags: /Ogsp
;	COMDAT ??$LoadFloat_e@$0BM@@ioINILoader@@QAEMAAY0BM@$$CBDM@Z
_TEXT	SEGMENT
__k$ = -36						; size = 28
__$ArrayPad$ = -4					; size = 4
_k$ = 8							; size = 4
_f$ = 12						; size = 4
??$LoadFloat_e@$0BM@@ioINILoader@@QAEMAAY0BM@$$CBDM@Z PROC ; ioINILoader::LoadFloat_e<28>, COMDAT
; _this$ = ecx

; 135  : 	{

  00000	55		 push	 ebp
  00001	8b ec		 mov	 ebp, esp
  00003	83 ec 24	 sub	 esp, 36			; 00000024H
  00006	a1 00 00 00 00	 mov	 eax, DWORD PTR ___security_cookie
  0000b	33 c5		 xor	 eax, ebp
  0000d	89 45 fc	 mov	 DWORD PTR __$ArrayPad$[ebp], eax
  00010	8b 45 08	 mov	 eax, DWORD PTR _k$[ebp]

; 136  : 		_ENCSTR(k, _k);

  00013	8a 10		 mov	 dl, BYTE PTR [eax]
  00015	53		 push	 ebx
  00016	56		 push	 esi
  00017	8b f1		 mov	 esi, ecx
  00019	84 d2		 test	 dl, dl
  0001b	0f 84 a9 02 00
	00		 je	 $LN96@LoadFloat_@4
  00021	80 f2 ed	 xor	 dl, -19			; ffffffedH
  00024	88 55 dc	 mov	 BYTE PTR __k$[ebp], dl
  00027	8a 50 01	 mov	 dl, BYTE PTR [eax+1]
  0002a	84 d2		 test	 dl, dl
  0002c	0f 84 92 02 00
	00		 je	 $LN95@LoadFloat_@4
  00032	b3 ec		 mov	 bl, -20			; ffffffecH
  00034	32 d3		 xor	 dl, bl
  00036	88 55 dd	 mov	 BYTE PTR __k$[ebp+1], dl
  00039	8a 50 02	 mov	 dl, BYTE PTR [eax+2]
  0003c	84 d2		 test	 dl, dl
  0003e	0f 84 7a 02 00
	00		 je	 $LN94@LoadFloat_@4
  00044	b1 eb		 mov	 cl, -21			; ffffffebH
  00046	32 d1		 xor	 dl, cl
  00048	88 55 de	 mov	 BYTE PTR __k$[ebp+2], dl
  0004b	8a 50 03	 mov	 dl, BYTE PTR [eax+3]
  0004e	84 d2		 test	 dl, dl
  00050	0f 84 62 02 00
	00		 je	 $LN93@LoadFloat_@4
  00056	80 f2 ea	 xor	 dl, -22			; ffffffeaH
  00059	88 55 df	 mov	 BYTE PTR __k$[ebp+3], dl
  0005c	8a 50 04	 mov	 dl, BYTE PTR [eax+4]
  0005f	84 d2		 test	 dl, dl
  00061	0f 84 4b 02 00
	00		 je	 $LN92@LoadFloat_@4
  00067	80 f2 ed	 xor	 dl, -19			; ffffffedH
  0006a	88 55 e0	 mov	 BYTE PTR __k$[ebp+4], dl
  0006d	8a 50 05	 mov	 dl, BYTE PTR [eax+5]
  00070	84 d2		 test	 dl, dl
  00072	0f 84 35 02 00
	00		 je	 $LN91@LoadFloat_@4
  00078	32 d3		 xor	 dl, bl
  0007a	88 55 e1	 mov	 BYTE PTR __k$[ebp+5], dl
  0007d	8a 50 06	 mov	 dl, BYTE PTR [eax+6]
  00080	84 d2		 test	 dl, dl
  00082	0f 84 20 02 00
	00		 je	 $LN90@LoadFloat_@4
  00088	32 d1		 xor	 dl, cl
  0008a	88 55 e2	 mov	 BYTE PTR __k$[ebp+6], dl
  0008d	8a 50 07	 mov	 dl, BYTE PTR [eax+7]
  00090	84 d2		 test	 dl, dl
  00092	0f 84 0a 02 00
	00		 je	 $LN89@LoadFloat_@4
  00098	80 f2 ea	 xor	 dl, -22			; ffffffeaH
  0009b	88 55 e3	 mov	 BYTE PTR __k$[ebp+7], dl
  0009e	8a 50 08	 mov	 dl, BYTE PTR [eax+8]
  000a1	84 d2		 test	 dl, dl
  000a3	0f 84 f3 01 00
	00		 je	 $LN88@LoadFloat_@4
  000a9	80 f2 ed	 xor	 dl, -19			; ffffffedH
  000ac	88 55 e4	 mov	 BYTE PTR __k$[ebp+8], dl
  000af	8a 50 09	 mov	 dl, BYTE PTR [eax+9]
  000b2	84 d2		 test	 dl, dl
  000b4	0f 84 dd 01 00
	00		 je	 $LN87@LoadFloat_@4
  000ba	32 d3		 xor	 dl, bl
  000bc	88 55 e5	 mov	 BYTE PTR __k$[ebp+9], dl
  000bf	8a 50 0a	 mov	 dl, BYTE PTR [eax+10]
  000c2	84 d2		 test	 dl, dl
  000c4	0f 84 c8 01 00
	00		 je	 $LN86@LoadFloat_@4
  000ca	32 d1		 xor	 dl, cl
  000cc	88 55 e6	 mov	 BYTE PTR __k$[ebp+10], dl
  000cf	8a 50 0b	 mov	 dl, BYTE PTR [eax+11]
  000d2	84 d2		 test	 dl, dl
  000d4	0f 84 b2 01 00
	00		 je	 $LN85@LoadFloat_@4
  000da	80 f2 ea	 xor	 dl, -22			; ffffffeaH
  000dd	88 55 e7	 mov	 BYTE PTR __k$[ebp+11], dl
  000e0	8a 50 0c	 mov	 dl, BYTE PTR [eax+12]
  000e3	84 d2		 test	 dl, dl
  000e5	0f 84 9b 01 00
	00		 je	 $LN84@LoadFloat_@4
  000eb	80 f2 ed	 xor	 dl, -19			; ffffffedH
  000ee	88 55 e8	 mov	 BYTE PTR __k$[ebp+12], dl
  000f1	8a 50 0d	 mov	 dl, BYTE PTR [eax+13]
  000f4	84 d2		 test	 dl, dl
  000f6	0f 84 85 01 00
	00		 je	 $LN83@LoadFloat_@4
  000fc	32 d3		 xor	 dl, bl
  000fe	88 55 e9	 mov	 BYTE PTR __k$[ebp+13], dl
  00101	8a 50 0e	 mov	 dl, BYTE PTR [eax+14]
  00104	84 d2		 test	 dl, dl
  00106	0f 84 70 01 00
	00		 je	 $LN82@LoadFloat_@4
  0010c	32 d1		 xor	 dl, cl
  0010e	88 55 ea	 mov	 BYTE PTR __k$[ebp+14], dl
  00111	8a 50 0f	 mov	 dl, BYTE PTR [eax+15]
  00114	84 d2		 test	 dl, dl
  00116	0f 84 5a 01 00
	00		 je	 $LN81@LoadFloat_@4
  0011c	80 f2 ea	 xor	 dl, -22			; ffffffeaH
  0011f	88 55 eb	 mov	 BYTE PTR __k$[ebp+15], dl
  00122	8a 50 10	 mov	 dl, BYTE PTR [eax+16]
  00125	84 d2		 test	 dl, dl
  00127	0f 84 43 01 00
	00		 je	 $LN80@LoadFloat_@4
  0012d	80 f2 ed	 xor	 dl, -19			; ffffffedH
  00130	88 55 ec	 mov	 BYTE PTR __k$[ebp+16], dl
  00133	8a 50 11	 mov	 dl, BYTE PTR [eax+17]
  00136	84 d2		 test	 dl, dl
  00138	0f 84 2d 01 00
	00		 je	 $LN79@LoadFloat_@4
  0013e	32 d3		 xor	 dl, bl
  00140	88 55 ed	 mov	 BYTE PTR __k$[ebp+17], dl
  00143	8a 50 12	 mov	 dl, BYTE PTR [eax+18]
  00146	84 d2		 test	 dl, dl
  00148	0f 84 18 01 00
	00		 je	 $LN78@LoadFloat_@4
  0014e	32 d1		 xor	 dl, cl
  00150	88 55 ee	 mov	 BYTE PTR __k$[ebp+18], dl
  00153	8a 50 13	 mov	 dl, BYTE PTR [eax+19]
  00156	84 d2		 test	 dl, dl
  00158	0f 84 02 01 00
	00		 je	 $LN77@LoadFloat_@4
  0015e	80 f2 ea	 xor	 dl, -22			; ffffffeaH
  00161	88 55 ef	 mov	 BYTE PTR __k$[ebp+19], dl
  00164	8a 50 14	 mov	 dl, BYTE PTR [eax+20]
  00167	84 d2		 test	 dl, dl
  00169	0f 84 eb 00 00
	00		 je	 $LN76@LoadFloat_@4
  0016f	80 f2 ed	 xor	 dl, -19			; ffffffedH
  00172	88 55 f0	 mov	 BYTE PTR __k$[ebp+20], dl
  00175	8a 50 15	 mov	 dl, BYTE PTR [eax+21]
  00178	84 d2		 test	 dl, dl
  0017a	0f 84 d5 00 00
	00		 je	 $LN75@LoadFloat_@4
  00180	32 d3		 xor	 dl, bl
  00182	88 55 f1	 mov	 BYTE PTR __k$[ebp+21], dl
  00185	8a 50 16	 mov	 dl, BYTE PTR [eax+22]
  00188	84 d2		 test	 dl, dl
  0018a	0f 84 c0 00 00
	00		 je	 $LN74@LoadFloat_@4
  00190	32 d1		 xor	 dl, cl
  00192	88 55 f2	 mov	 BYTE PTR __k$[ebp+22], dl
  00195	8a 50 17	 mov	 dl, BYTE PTR [eax+23]
  00198	84 d2		 test	 dl, dl
  0019a	0f 84 aa 00 00
	00		 je	 $LN73@LoadFloat_@4
  001a0	80 f2 ea	 xor	 dl, -22			; ffffffeaH
  001a3	88 55 f3	 mov	 BYTE PTR __k$[ebp+23], dl
  001a6	8a 50 18	 mov	 dl, BYTE PTR [eax+24]
  001a9	84 d2		 test	 dl, dl
  001ab	0f 84 90 00 00
	00		 je	 $LN72@LoadFloat_@4
  001b1	80 f2 ed	 xor	 dl, -19			; ffffffedH
  001b4	88 55 f4	 mov	 BYTE PTR __k$[ebp+24], dl
  001b7	8a 50 19	 mov	 dl, BYTE PTR [eax+25]
  001ba	84 d2		 test	 dl, dl
  001bc	74 7b		 je	 SHORT $LN71@LoadFloat_@4
  001be	32 d3		 xor	 dl, bl
  001c0	88 55 f5	 mov	 BYTE PTR __k$[ebp+25], dl
  001c3	8a 50 1a	 mov	 dl, BYTE PTR [eax+26]
  001c6	84 d2		 test	 dl, dl
  001c8	74 67		 je	 SHORT $LN70@LoadFloat_@4
  001ca	32 d1		 xor	 dl, cl
  001cc	80 78 1b 00	 cmp	 BYTE PTR [eax+27], 0
  001d0	88 55 f6	 mov	 BYTE PTR __k$[ebp+26], dl
  001d3	0f 84 f5 00 00
	00		 je	 $LN1@LoadFloat_@4
  001d9	8a 50 1c	 mov	 dl, BYTE PTR [eax+28]
  001dc	84 d2		 test	 dl, dl
  001de	74 48		 je	 SHORT $LN68@LoadFloat_@4
  001e0	80 f2 ed	 xor	 dl, -19			; ffffffedH
  001e3	88 55 f8	 mov	 BYTE PTR __k$[ebp+28], dl
  001e6	8a 50 1d	 mov	 dl, BYTE PTR [eax+29]
  001e9	84 d2		 test	 dl, dl
  001eb	74 33		 je	 SHORT $LN67@LoadFloat_@4
  001ed	32 d3		 xor	 dl, bl
  001ef	88 55 f9	 mov	 BYTE PTR __k$[ebp+29], dl
  001f2	8a 50 1e	 mov	 dl, BYTE PTR [eax+30]
  001f5	84 d2		 test	 dl, dl
  001f7	74 1f		 je	 SHORT $LN66@LoadFloat_@4
  001f9	8a 40 1f	 mov	 al, BYTE PTR [eax+31]
  001fc	32 d1		 xor	 dl, cl
  001fe	88 55 fa	 mov	 BYTE PTR __k$[ebp+30], dl
  00201	84 c0		 test	 al, al
  00203	74 0a		 je	 SHORT $LN65@LoadFloat_@4
  00205	34 ea		 xor	 al, -22			; ffffffeaH
  00207	88 45 fb	 mov	 BYTE PTR __k$[ebp+31], al
  0020a	e9 bf 00 00 00	 jmp	 $LN1@LoadFloat_@4
$LN65@LoadFloat_@4:
  0020f	c6 45 fb ea	 mov	 BYTE PTR __k$[ebp+31], -22 ; ffffffeaH
  00213	e9 b6 00 00 00	 jmp	 $LN1@LoadFloat_@4
$LN66@LoadFloat_@4:
  00218	88 4d fa	 mov	 BYTE PTR __k$[ebp+30], cl
  0021b	e9 ae 00 00 00	 jmp	 $LN1@LoadFloat_@4
$LN67@LoadFloat_@4:
  00220	88 5d f9	 mov	 BYTE PTR __k$[ebp+29], bl
  00223	e9 a6 00 00 00	 jmp	 $LN1@LoadFloat_@4
$LN68@LoadFloat_@4:
  00228	c6 45 f8 ed	 mov	 BYTE PTR __k$[ebp+28], -19 ; ffffffedH
  0022c	e9 9d 00 00 00	 jmp	 $LN1@LoadFloat_@4
$LN70@LoadFloat_@4:
  00231	88 4d f6	 mov	 BYTE PTR __k$[ebp+26], cl
  00234	e9 95 00 00 00	 jmp	 $LN1@LoadFloat_@4
$LN71@LoadFloat_@4:
  00239	88 5d f5	 mov	 BYTE PTR __k$[ebp+25], bl
  0023c	e9 8d 00 00 00	 jmp	 $LN1@LoadFloat_@4
$LN72@LoadFloat_@4:
  00241	c6 45 f4 ed	 mov	 BYTE PTR __k$[ebp+24], -19 ; ffffffedH
  00245	e9 84 00 00 00	 jmp	 $LN1@LoadFloat_@4
$LN73@LoadFloat_@4:
  0024a	c6 45 f3 ea	 mov	 BYTE PTR __k$[ebp+23], -22 ; ffffffeaH
  0024e	eb 7e		 jmp	 SHORT $LN1@LoadFloat_@4
$LN74@LoadFloat_@4:
  00250	88 4d f2	 mov	 BYTE PTR __k$[ebp+22], cl
  00253	eb 79		 jmp	 SHORT $LN1@LoadFloat_@4
$LN75@LoadFloat_@4:
  00255	88 5d f1	 mov	 BYTE PTR __k$[ebp+21], bl
  00258	eb 74		 jmp	 SHORT $LN1@LoadFloat_@4
$LN76@LoadFloat_@4:
  0025a	c6 45 f0 ed	 mov	 BYTE PTR __k$[ebp+20], -19 ; ffffffedH
  0025e	eb 6e		 jmp	 SHORT $LN1@LoadFloat_@4
$LN77@LoadFloat_@4:
  00260	c6 45 ef ea	 mov	 BYTE PTR __k$[ebp+19], -22 ; ffffffeaH
  00264	eb 68		 jmp	 SHORT $LN1@LoadFloat_@4
$LN78@LoadFloat_@4:
  00266	88 4d ee	 mov	 BYTE PTR __k$[ebp+18], cl
  00269	eb 63		 jmp	 SHORT $LN1@LoadFloat_@4
$LN79@LoadFloat_@4:
  0026b	88 5d ed	 mov	 BYTE PTR __k$[ebp+17], bl
  0026e	eb 5e		 jmp	 SHORT $LN1@LoadFloat_@4
$LN80@LoadFloat_@4:
  00270	c6 45 ec ed	 mov	 BYTE PTR __k$[ebp+16], -19 ; ffffffedH
  00274	eb 58		 jmp	 SHORT $LN1@LoadFloat_@4
$LN81@LoadFloat_@4:
  00276	c6 45 eb ea	 mov	 BYTE PTR __k$[ebp+15], -22 ; ffffffeaH
  0027a	eb 52		 jmp	 SHORT $LN1@LoadFloat_@4
$LN82@LoadFloat_@4:
  0027c	88 4d ea	 mov	 BYTE PTR __k$[ebp+14], cl
  0027f	eb 4d		 jmp	 SHORT $LN1@LoadFloat_@4
$LN83@LoadFloat_@4:
  00281	88 5d e9	 mov	 BYTE PTR __k$[ebp+13], bl
  00284	eb 48		 jmp	 SHORT $LN1@LoadFloat_@4
$LN84@LoadFloat_@4:
  00286	c6 45 e8 ed	 mov	 BYTE PTR __k$[ebp+12], -19 ; ffffffedH
  0028a	eb 42		 jmp	 SHORT $LN1@LoadFloat_@4
$LN85@LoadFloat_@4:
  0028c	c6 45 e7 ea	 mov	 BYTE PTR __k$[ebp+11], -22 ; ffffffeaH
  00290	eb 3c		 jmp	 SHORT $LN1@LoadFloat_@4
$LN86@LoadFloat_@4:
  00292	88 4d e6	 mov	 BYTE PTR __k$[ebp+10], cl
  00295	eb 37		 jmp	 SHORT $LN1@LoadFloat_@4
$LN87@LoadFloat_@4:
  00297	88 5d e5	 mov	 BYTE PTR __k$[ebp+9], bl
  0029a	eb 32		 jmp	 SHORT $LN1@LoadFloat_@4
$LN88@LoadFloat_@4:
  0029c	c6 45 e4 ed	 mov	 BYTE PTR __k$[ebp+8], -19 ; ffffffedH
  002a0	eb 2c		 jmp	 SHORT $LN1@LoadFloat_@4
$LN89@LoadFloat_@4:
  002a2	c6 45 e3 ea	 mov	 BYTE PTR __k$[ebp+7], -22 ; ffffffeaH
  002a6	eb 26		 jmp	 SHORT $LN1@LoadFloat_@4
$LN90@LoadFloat_@4:
  002a8	88 4d e2	 mov	 BYTE PTR __k$[ebp+6], cl
  002ab	eb 21		 jmp	 SHORT $LN1@LoadFloat_@4
$LN91@LoadFloat_@4:
  002ad	88 5d e1	 mov	 BYTE PTR __k$[ebp+5], bl
  002b0	eb 1c		 jmp	 SHORT $LN1@LoadFloat_@4
$LN92@LoadFloat_@4:
  002b2	c6 45 e0 ed	 mov	 BYTE PTR __k$[ebp+4], -19 ; ffffffedH
  002b6	eb 16		 jmp	 SHORT $LN1@LoadFloat_@4
$LN93@LoadFloat_@4:
  002b8	c6 45 df ea	 mov	 BYTE PTR __k$[ebp+3], -22 ; ffffffeaH
  002bc	eb 10		 jmp	 SHORT $LN1@LoadFloat_@4
$LN94@LoadFloat_@4:
  002be	c6 45 de eb	 mov	 BYTE PTR __k$[ebp+2], -21 ; ffffffebH
  002c2	eb 0a		 jmp	 SHORT $LN1@LoadFloat_@4
$LN95@LoadFloat_@4:
  002c4	c6 45 dd ec	 mov	 BYTE PTR __k$[ebp+1], -20 ; ffffffecH
  002c8	eb 04		 jmp	 SHORT $LN1@LoadFloat_@4
$LN96@LoadFloat_@4:
  002ca	c6 45 dc ed	 mov	 BYTE PTR __k$[ebp], -19	; ffffffedH
$LN1@LoadFloat_@4:
  002ce	6a 06		 push	 6
  002d0	8d 45 dc	 lea	 eax, DWORD PTR __k$[ebp]
  002d3	c6 45 f7 00	 mov	 BYTE PTR __k$[ebp+27], 0
  002d7	5a		 pop	 edx
$LL104@LoadFloat_@4:
  002d8	81 30 ed ec eb
	ea		 xor	 DWORD PTR [eax], -353637139 ; eaebecedH
  002de	83 c0 04	 add	 eax, 4
  002e1	4a		 dec	 edx
  002e2	75 f4		 jne	 SHORT $LL104@LoadFloat_@4
  002e4	6a 18		 push	 24			; 00000018H
  002e6	58		 pop	 eax
$LL101@LoadFloat_@4:
  002e7	8b c8		 mov	 ecx, eax
  002e9	81 e1 03 00 00
	80		 and	 ecx, -2147483645	; 80000003H
  002ef	79 05		 jns	 SHORT $LN111@LoadFloat_@4
  002f1	49		 dec	 ecx
  002f2	83 c9 fc	 or	 ecx, -4			; fffffffcH
  002f5	41		 inc	 ecx
$LN111@LoadFloat_@4:
  002f6	b2 ed		 mov	 dl, -19			; ffffffedH
  002f8	2a d1		 sub	 dl, cl
  002fa	30 54 05 dc	 xor	 BYTE PTR __k$[ebp+eax], dl
  002fe	40		 inc	 eax
  002ff	83 f8 1b	 cmp	 eax, 27			; 0000001bH
  00302	7c e3		 jl	 SHORT $LL101@LoadFloat_@4

; 137  : 		return LoadFloat(_k, f);

  00304	f3 0f 10 45 0c	 movss	 xmm0, DWORD PTR _f$[ebp]
  00309	51		 push	 ecx
  0030a	8d 45 dc	 lea	 eax, DWORD PTR __k$[ebp]
  0030d	f3 0f 11 04 24	 movss	 DWORD PTR [esp], xmm0
  00312	50		 push	 eax
  00313	8b ce		 mov	 ecx, esi
  00315	ff 15 00 00 00
	00		 call	 DWORD PTR __imp_?LoadFloat@ioINILoader@@QAEMPBDM@Z

; 138  : 	}

  0031b	8b 4d fc	 mov	 ecx, DWORD PTR __$ArrayPad$[ebp]
  0031e	5e		 pop	 esi
  0031f	33 cd		 xor	 ecx, ebp
  00321	5b		 pop	 ebx
  00322	e8 00 00 00 00	 call	 @__security_check_cookie@4
  00327	c9		 leave
  00328	c2 08 00	 ret	 8
??$LoadFloat_e@$0BM@@ioINILoader@@QAEMAAY0BM@$$CBDM@Z ENDP ; ioINILoader::LoadFloat_e<28>
_TEXT	ENDS
PUBLIC	__$ArrayPad$
PUBLIC	??$LoadFloat_e@$0BF@@ioINILoader@@QAEMAAY0BF@$$CBDM@Z ; ioINILoader::LoadFloat_e<21>
; Function compile flags: /Ogsp
;	COMDAT ??$LoadFloat_e@$0BF@@ioINILoader@@QAEMAAY0BF@$$CBDM@Z
_TEXT	SEGMENT
__k$ = -32						; size = 21
__$ArrayPad$ = -4					; size = 4
_k$ = 8							; size = 4
_f$ = 12						; size = 4
??$LoadFloat_e@$0BF@@ioINILoader@@QAEMAAY0BF@$$CBDM@Z PROC ; ioINILoader::LoadFloat_e<21>, COMDAT
; _this$ = ecx

; 135  : 	{

  00000	55		 push	 ebp
  00001	8b ec		 mov	 ebp, esp
  00003	83 ec 20	 sub	 esp, 32			; 00000020H
  00006	a1 00 00 00 00	 mov	 eax, DWORD PTR ___security_cookie
  0000b	33 c5		 xor	 eax, ebp
  0000d	89 45 fc	 mov	 DWORD PTR __$ArrayPad$[ebp], eax
  00010	8b 45 08	 mov	 eax, DWORD PTR _k$[ebp]

; 136  : 		_ENCSTR(k, _k);

  00013	8a 10		 mov	 dl, BYTE PTR [eax]
  00015	53		 push	 ebx
  00016	56		 push	 esi
  00017	8b f1		 mov	 esi, ecx
  00019	84 d2		 test	 dl, dl
  0001b	0f 84 f7 01 00
	00		 je	 $LN96@LoadFloat_@5
  00021	80 f2 ed	 xor	 dl, -19			; ffffffedH
  00024	88 55 e0	 mov	 BYTE PTR __k$[ebp], dl
  00027	8a 50 01	 mov	 dl, BYTE PTR [eax+1]
  0002a	84 d2		 test	 dl, dl
  0002c	0f 84 e0 01 00
	00		 je	 $LN95@LoadFloat_@5
  00032	b1 ec		 mov	 cl, -20			; ffffffecH
  00034	32 d1		 xor	 dl, cl
  00036	88 55 e1	 mov	 BYTE PTR __k$[ebp+1], dl
  00039	8a 50 02	 mov	 dl, BYTE PTR [eax+2]
  0003c	84 d2		 test	 dl, dl
  0003e	0f 84 c8 01 00
	00		 je	 $LN94@LoadFloat_@5
  00044	b3 eb		 mov	 bl, -21			; ffffffebH
  00046	32 d3		 xor	 dl, bl
  00048	88 55 e2	 mov	 BYTE PTR __k$[ebp+2], dl
  0004b	8a 50 03	 mov	 dl, BYTE PTR [eax+3]
  0004e	84 d2		 test	 dl, dl
  00050	0f 84 b0 01 00
	00		 je	 $LN93@LoadFloat_@5
  00056	80 f2 ea	 xor	 dl, -22			; ffffffeaH
  00059	88 55 e3	 mov	 BYTE PTR __k$[ebp+3], dl
  0005c	8a 50 04	 mov	 dl, BYTE PTR [eax+4]
  0005f	84 d2		 test	 dl, dl
  00061	0f 84 99 01 00
	00		 je	 $LN92@LoadFloat_@5
  00067	80 f2 ed	 xor	 dl, -19			; ffffffedH
  0006a	88 55 e4	 mov	 BYTE PTR __k$[ebp+4], dl
  0006d	8a 50 05	 mov	 dl, BYTE PTR [eax+5]
  00070	84 d2		 test	 dl, dl
  00072	0f 84 83 01 00
	00		 je	 $LN91@LoadFloat_@5
  00078	32 d1		 xor	 dl, cl
  0007a	88 55 e5	 mov	 BYTE PTR __k$[ebp+5], dl
  0007d	8a 50 06	 mov	 dl, BYTE PTR [eax+6]
  00080	84 d2		 test	 dl, dl
  00082	0f 84 6e 01 00
	00		 je	 $LN90@LoadFloat_@5
  00088	32 d3		 xor	 dl, bl
  0008a	88 55 e6	 mov	 BYTE PTR __k$[ebp+6], dl
  0008d	8a 50 07	 mov	 dl, BYTE PTR [eax+7]
  00090	84 d2		 test	 dl, dl
  00092	0f 84 58 01 00
	00		 je	 $LN89@LoadFloat_@5
  00098	80 f2 ea	 xor	 dl, -22			; ffffffeaH
  0009b	88 55 e7	 mov	 BYTE PTR __k$[ebp+7], dl
  0009e	8a 50 08	 mov	 dl, BYTE PTR [eax+8]
  000a1	84 d2		 test	 dl, dl
  000a3	0f 84 41 01 00
	00		 je	 $LN88@LoadFloat_@5
  000a9	80 f2 ed	 xor	 dl, -19			; ffffffedH
  000ac	88 55 e8	 mov	 BYTE PTR __k$[ebp+8], dl
  000af	8a 50 09	 mov	 dl, BYTE PTR [eax+9]
  000b2	84 d2		 test	 dl, dl
  000b4	0f 84 2b 01 00
	00		 je	 $LN87@LoadFloat_@5
  000ba	32 d1		 xor	 dl, cl
  000bc	88 55 e9	 mov	 BYTE PTR __k$[ebp+9], dl
  000bf	8a 50 0a	 mov	 dl, BYTE PTR [eax+10]
  000c2	84 d2		 test	 dl, dl
  000c4	0f 84 16 01 00
	00		 je	 $LN86@LoadFloat_@5
  000ca	32 d3		 xor	 dl, bl
  000cc	88 55 ea	 mov	 BYTE PTR __k$[ebp+10], dl
  000cf	8a 50 0b	 mov	 dl, BYTE PTR [eax+11]
  000d2	84 d2		 test	 dl, dl
  000d4	0f 84 00 01 00
	00		 je	 $LN85@LoadFloat_@5
  000da	80 f2 ea	 xor	 dl, -22			; ffffffeaH
  000dd	88 55 eb	 mov	 BYTE PTR __k$[ebp+11], dl
  000e0	8a 50 0c	 mov	 dl, BYTE PTR [eax+12]
  000e3	84 d2		 test	 dl, dl
  000e5	0f 84 e9 00 00
	00		 je	 $LN84@LoadFloat_@5
  000eb	80 f2 ed	 xor	 dl, -19			; ffffffedH
  000ee	88 55 ec	 mov	 BYTE PTR __k$[ebp+12], dl
  000f1	8a 50 0d	 mov	 dl, BYTE PTR [eax+13]
  000f4	84 d2		 test	 dl, dl
  000f6	0f 84 d3 00 00
	00		 je	 $LN83@LoadFloat_@5
  000fc	32 d1		 xor	 dl, cl
  000fe	88 55 ed	 mov	 BYTE PTR __k$[ebp+13], dl
  00101	8a 50 0e	 mov	 dl, BYTE PTR [eax+14]
  00104	84 d2		 test	 dl, dl
  00106	0f 84 be 00 00
	00		 je	 $LN82@LoadFloat_@5
  0010c	32 d3		 xor	 dl, bl
  0010e	88 55 ee	 mov	 BYTE PTR __k$[ebp+14], dl
  00111	8a 50 0f	 mov	 dl, BYTE PTR [eax+15]
  00114	84 d2		 test	 dl, dl
  00116	0f 84 a8 00 00
	00		 je	 $LN81@LoadFloat_@5
  0011c	80 f2 ea	 xor	 dl, -22			; ffffffeaH
  0011f	88 55 ef	 mov	 BYTE PTR __k$[ebp+15], dl
  00122	8a 50 10	 mov	 dl, BYTE PTR [eax+16]
  00125	84 d2		 test	 dl, dl
  00127	0f 84 91 00 00
	00		 je	 $LN80@LoadFloat_@5
  0012d	80 f2 ed	 xor	 dl, -19			; ffffffedH
  00130	88 55 f0	 mov	 BYTE PTR __k$[ebp+16], dl
  00133	8a 50 11	 mov	 dl, BYTE PTR [eax+17]
  00136	84 d2		 test	 dl, dl
  00138	74 7f		 je	 SHORT $LN79@LoadFloat_@5
  0013a	32 d1		 xor	 dl, cl
  0013c	88 55 f1	 mov	 BYTE PTR __k$[ebp+17], dl
  0013f	8a 50 12	 mov	 dl, BYTE PTR [eax+18]
  00142	84 d2		 test	 dl, dl
  00144	74 6e		 je	 SHORT $LN78@LoadFloat_@5
  00146	32 d3		 xor	 dl, bl
  00148	88 55 f2	 mov	 BYTE PTR __k$[ebp+18], dl
  0014b	8a 50 13	 mov	 dl, BYTE PTR [eax+19]
  0014e	84 d2		 test	 dl, dl
  00150	74 5c		 je	 SHORT $LN77@LoadFloat_@5
  00152	80 f2 ea	 xor	 dl, -22			; ffffffeaH
  00155	80 78 14 00	 cmp	 BYTE PTR [eax+20], 0
  00159	88 55 f3	 mov	 BYTE PTR __k$[ebp+19], dl
  0015c	0f 84 ba 00 00
	00		 je	 $LN1@LoadFloat_@5
  00162	8a 50 15	 mov	 dl, BYTE PTR [eax+21]
  00165	84 d2		 test	 dl, dl
  00167	74 40		 je	 SHORT $LN75@LoadFloat_@5
  00169	32 d1		 xor	 dl, cl
  0016b	88 55 f5	 mov	 BYTE PTR __k$[ebp+21], dl
  0016e	8a 50 16	 mov	 dl, BYTE PTR [eax+22]
  00171	84 d2		 test	 dl, dl
  00173	74 2f		 je	 SHORT $LN74@LoadFloat_@5
  00175	32 d3		 xor	 dl, bl
  00177	88 55 f6	 mov	 BYTE PTR __k$[ebp+22], dl
  0017a	8a 50 17	 mov	 dl, BYTE PTR [eax+23]
  0017d	84 d2		 test	 dl, dl
  0017f	74 1d		 je	 SHORT $LN73@LoadFloat_@5
  00181	8a 40 18	 mov	 al, BYTE PTR [eax+24]
  00184	80 f2 ea	 xor	 dl, -22			; ffffffeaH
  00187	88 55 f7	 mov	 BYTE PTR __k$[ebp+23], dl
  0018a	84 c0		 test	 al, al
  0018c	74 0a		 je	 SHORT $LN72@LoadFloat_@5
  0018e	34 ed		 xor	 al, -19			; ffffffedH
  00190	88 45 f8	 mov	 BYTE PTR __k$[ebp+24], al
  00193	e9 84 00 00 00	 jmp	 $LN1@LoadFloat_@5
$LN72@LoadFloat_@5:
  00198	c6 45 f8 ed	 mov	 BYTE PTR __k$[ebp+24], -19 ; ffffffedH
  0019c	eb 7e		 jmp	 SHORT $LN1@LoadFloat_@5
$LN73@LoadFloat_@5:
  0019e	c6 45 f7 ea	 mov	 BYTE PTR __k$[ebp+23], -22 ; ffffffeaH
  001a2	eb 78		 jmp	 SHORT $LN1@LoadFloat_@5
$LN74@LoadFloat_@5:
  001a4	88 5d f6	 mov	 BYTE PTR __k$[ebp+22], bl
  001a7	eb 73		 jmp	 SHORT $LN1@LoadFloat_@5
$LN75@LoadFloat_@5:
  001a9	88 4d f5	 mov	 BYTE PTR __k$[ebp+21], cl
  001ac	eb 6e		 jmp	 SHORT $LN1@LoadFloat_@5
$LN77@LoadFloat_@5:
  001ae	c6 45 f3 ea	 mov	 BYTE PTR __k$[ebp+19], -22 ; ffffffeaH
  001b2	eb 68		 jmp	 SHORT $LN1@LoadFloat_@5
$LN78@LoadFloat_@5:
  001b4	88 5d f2	 mov	 BYTE PTR __k$[ebp+18], bl
  001b7	eb 63		 jmp	 SHORT $LN1@LoadFloat_@5
$LN79@LoadFloat_@5:
  001b9	88 4d f1	 mov	 BYTE PTR __k$[ebp+17], cl
  001bc	eb 5e		 jmp	 SHORT $LN1@LoadFloat_@5
$LN80@LoadFloat_@5:
  001be	c6 45 f0 ed	 mov	 BYTE PTR __k$[ebp+16], -19 ; ffffffedH
  001c2	eb 58		 jmp	 SHORT $LN1@LoadFloat_@5
$LN81@LoadFloat_@5:
  001c4	c6 45 ef ea	 mov	 BYTE PTR __k$[ebp+15], -22 ; ffffffeaH
  001c8	eb 52		 jmp	 SHORT $LN1@LoadFloat_@5
$LN82@LoadFloat_@5:
  001ca	88 5d ee	 mov	 BYTE PTR __k$[ebp+14], bl
  001cd	eb 4d		 jmp	 SHORT $LN1@LoadFloat_@5
$LN83@LoadFloat_@5:
  001cf	88 4d ed	 mov	 BYTE PTR __k$[ebp+13], cl
  001d2	eb 48		 jmp	 SHORT $LN1@LoadFloat_@5
$LN84@LoadFloat_@5:
  001d4	c6 45 ec ed	 mov	 BYTE PTR __k$[ebp+12], -19 ; ffffffedH
  001d8	eb 42		 jmp	 SHORT $LN1@LoadFloat_@5
$LN85@LoadFloat_@5:
  001da	c6 45 eb ea	 mov	 BYTE PTR __k$[ebp+11], -22 ; ffffffeaH
  001de	eb 3c		 jmp	 SHORT $LN1@LoadFloat_@5
$LN86@LoadFloat_@5:
  001e0	88 5d ea	 mov	 BYTE PTR __k$[ebp+10], bl
  001e3	eb 37		 jmp	 SHORT $LN1@LoadFloat_@5
$LN87@LoadFloat_@5:
  001e5	88 4d e9	 mov	 BYTE PTR __k$[ebp+9], cl
  001e8	eb 32		 jmp	 SHORT $LN1@LoadFloat_@5
$LN88@LoadFloat_@5:
  001ea	c6 45 e8 ed	 mov	 BYTE PTR __k$[ebp+8], -19 ; ffffffedH
  001ee	eb 2c		 jmp	 SHORT $LN1@LoadFloat_@5
$LN89@LoadFloat_@5:
  001f0	c6 45 e7 ea	 mov	 BYTE PTR __k$[ebp+7], -22 ; ffffffeaH
  001f4	eb 26		 jmp	 SHORT $LN1@LoadFloat_@5
$LN90@LoadFloat_@5:
  001f6	88 5d e6	 mov	 BYTE PTR __k$[ebp+6], bl
  001f9	eb 21		 jmp	 SHORT $LN1@LoadFloat_@5
$LN91@LoadFloat_@5:
  001fb	88 4d e5	 mov	 BYTE PTR __k$[ebp+5], cl
  001fe	eb 1c		 jmp	 SHORT $LN1@LoadFloat_@5
$LN92@LoadFloat_@5:
  00200	c6 45 e4 ed	 mov	 BYTE PTR __k$[ebp+4], -19 ; ffffffedH
  00204	eb 16		 jmp	 SHORT $LN1@LoadFloat_@5
$LN93@LoadFloat_@5:
  00206	c6 45 e3 ea	 mov	 BYTE PTR __k$[ebp+3], -22 ; ffffffeaH
  0020a	eb 10		 jmp	 SHORT $LN1@LoadFloat_@5
$LN94@LoadFloat_@5:
  0020c	c6 45 e2 eb	 mov	 BYTE PTR __k$[ebp+2], -21 ; ffffffebH
  00210	eb 0a		 jmp	 SHORT $LN1@LoadFloat_@5
$LN95@LoadFloat_@5:
  00212	c6 45 e1 ec	 mov	 BYTE PTR __k$[ebp+1], -20 ; ffffffecH
  00216	eb 04		 jmp	 SHORT $LN1@LoadFloat_@5
$LN96@LoadFloat_@5:
  00218	c6 45 e0 ed	 mov	 BYTE PTR __k$[ebp], -19	; ffffffedH
$LN1@LoadFloat_@5:
  0021c	6a 05		 push	 5
  0021e	8d 45 e0	 lea	 eax, DWORD PTR __k$[ebp]
  00221	c6 45 f4 00	 mov	 BYTE PTR __k$[ebp+20], 0
  00225	5a		 pop	 edx
$LL104@LoadFloat_@5:
  00226	81 30 ed ec eb
	ea		 xor	 DWORD PTR [eax], -353637139 ; eaebecedH
  0022c	83 c0 04	 add	 eax, 4
  0022f	4a		 dec	 edx
  00230	75 f4		 jne	 SHORT $LL104@LoadFloat_@5

; 137  : 		return LoadFloat(_k, f);

  00232	f3 0f 10 45 0c	 movss	 xmm0, DWORD PTR _f$[ebp]
  00237	51		 push	 ecx
  00238	8d 45 e0	 lea	 eax, DWORD PTR __k$[ebp]
  0023b	f3 0f 11 04 24	 movss	 DWORD PTR [esp], xmm0
  00240	50		 push	 eax
  00241	8b ce		 mov	 ecx, esi
  00243	ff 15 00 00 00
	00		 call	 DWORD PTR __imp_?LoadFloat@ioINILoader@@QAEMPBDM@Z

; 138  : 	}

  00249	8b 4d fc	 mov	 ecx, DWORD PTR __$ArrayPad$[ebp]
  0024c	5e		 pop	 esi
  0024d	33 cd		 xor	 ecx, ebp
  0024f	5b		 pop	 ebx
  00250	e8 00 00 00 00	 call	 @__security_check_cookie@4
  00255	c9		 leave
  00256	c2 08 00	 ret	 8
??$LoadFloat_e@$0BF@@ioINILoader@@QAEMAAY0BF@$$CBDM@Z ENDP ; ioINILoader::LoadFloat_e<21>
_TEXT	ENDS
PUBLIC	_this$GSCopy$
PUBLIC	__$ArrayPad$
PUBLIC	??$LoadString_e@$0BM@@ioINILoader@@QAEXAAY0BM@$$CBDAAY00$$CBDPADH@Z ; ioINILoader::LoadString_e<28>
EXTRN	__imp_?LoadStringA@ioINILoader@@QAEXPBD0PADH@Z:PROC
; Function compile flags: /Ogsp
;	COMDAT ??$LoadString_e@$0BM@@ioINILoader@@QAEXAAY0BM@$$CBDAAY00$$CBDPADH@Z
_TEXT	SEGMENT
_this$GSCopy$ = -40					; size = 4
__k$ = -36						; size = 28
__$ArrayPad$ = -4					; size = 4
_k$ = 8							; size = 4
_d$ = 12						; size = 4
_b$ = 16						; size = 4
_i$ = 20						; size = 4
??$LoadString_e@$0BM@@ioINILoader@@QAEXAAY0BM@$$CBDAAY00$$CBDPADH@Z PROC ; ioINILoader::LoadString_e<28>, COMDAT
; _this$ = ecx

; 161  : 	{

  00000	55		 push	 ebp
  00001	8b ec		 mov	 ebp, esp
  00003	83 ec 28	 sub	 esp, 40			; 00000028H
  00006	a1 00 00 00 00	 mov	 eax, DWORD PTR ___security_cookie
  0000b	33 c5		 xor	 eax, ebp
  0000d	89 45 fc	 mov	 DWORD PTR __$ArrayPad$[ebp], eax
  00010	8b 45 08	 mov	 eax, DWORD PTR _k$[ebp]

; 162  : 		_ENCSTR(k, _k);

  00013	8a 10		 mov	 dl, BYTE PTR [eax]
  00015	53		 push	 ebx
  00016	56		 push	 esi
  00017	8b 75 0c	 mov	 esi, DWORD PTR _d$[ebp]
  0001a	57		 push	 edi
  0001b	8b 7d 10	 mov	 edi, DWORD PTR _b$[ebp]
  0001e	89 4d d8	 mov	 DWORD PTR _this$GSCopy$[ebp], ecx
  00021	84 d2		 test	 dl, dl
  00023	0f 84 a9 02 00
	00		 je	 $LN96@LoadString
  00029	80 f2 ed	 xor	 dl, -19			; ffffffedH
  0002c	88 55 dc	 mov	 BYTE PTR __k$[ebp], dl
  0002f	8a 50 01	 mov	 dl, BYTE PTR [eax+1]
  00032	84 d2		 test	 dl, dl
  00034	0f 84 92 02 00
	00		 je	 $LN95@LoadString
  0003a	b3 ec		 mov	 bl, -20			; ffffffecH
  0003c	32 d3		 xor	 dl, bl
  0003e	88 55 dd	 mov	 BYTE PTR __k$[ebp+1], dl
  00041	8a 50 02	 mov	 dl, BYTE PTR [eax+2]
  00044	84 d2		 test	 dl, dl
  00046	0f 84 7a 02 00
	00		 je	 $LN94@LoadString
  0004c	b1 eb		 mov	 cl, -21			; ffffffebH
  0004e	32 d1		 xor	 dl, cl
  00050	88 55 de	 mov	 BYTE PTR __k$[ebp+2], dl
  00053	8a 50 03	 mov	 dl, BYTE PTR [eax+3]
  00056	84 d2		 test	 dl, dl
  00058	0f 84 62 02 00
	00		 je	 $LN93@LoadString
  0005e	80 f2 ea	 xor	 dl, -22			; ffffffeaH
  00061	88 55 df	 mov	 BYTE PTR __k$[ebp+3], dl
  00064	8a 50 04	 mov	 dl, BYTE PTR [eax+4]
  00067	84 d2		 test	 dl, dl
  00069	0f 84 4b 02 00
	00		 je	 $LN92@LoadString
  0006f	80 f2 ed	 xor	 dl, -19			; ffffffedH
  00072	88 55 e0	 mov	 BYTE PTR __k$[ebp+4], dl
  00075	8a 50 05	 mov	 dl, BYTE PTR [eax+5]
  00078	84 d2		 test	 dl, dl
  0007a	0f 84 35 02 00
	00		 je	 $LN91@LoadString
  00080	32 d3		 xor	 dl, bl
  00082	88 55 e1	 mov	 BYTE PTR __k$[ebp+5], dl
  00085	8a 50 06	 mov	 dl, BYTE PTR [eax+6]
  00088	84 d2		 test	 dl, dl
  0008a	0f 84 20 02 00
	00		 je	 $LN90@LoadString
  00090	32 d1		 xor	 dl, cl
  00092	88 55 e2	 mov	 BYTE PTR __k$[ebp+6], dl
  00095	8a 50 07	 mov	 dl, BYTE PTR [eax+7]
  00098	84 d2		 test	 dl, dl
  0009a	0f 84 0a 02 00
	00		 je	 $LN89@LoadString
  000a0	80 f2 ea	 xor	 dl, -22			; ffffffeaH
  000a3	88 55 e3	 mov	 BYTE PTR __k$[ebp+7], dl
  000a6	8a 50 08	 mov	 dl, BYTE PTR [eax+8]
  000a9	84 d2		 test	 dl, dl
  000ab	0f 84 f3 01 00
	00		 je	 $LN88@LoadString
  000b1	80 f2 ed	 xor	 dl, -19			; ffffffedH
  000b4	88 55 e4	 mov	 BYTE PTR __k$[ebp+8], dl
  000b7	8a 50 09	 mov	 dl, BYTE PTR [eax+9]
  000ba	84 d2		 test	 dl, dl
  000bc	0f 84 dd 01 00
	00		 je	 $LN87@LoadString
  000c2	32 d3		 xor	 dl, bl
  000c4	88 55 e5	 mov	 BYTE PTR __k$[ebp+9], dl
  000c7	8a 50 0a	 mov	 dl, BYTE PTR [eax+10]
  000ca	84 d2		 test	 dl, dl
  000cc	0f 84 c8 01 00
	00		 je	 $LN86@LoadString
  000d2	32 d1		 xor	 dl, cl
  000d4	88 55 e6	 mov	 BYTE PTR __k$[ebp+10], dl
  000d7	8a 50 0b	 mov	 dl, BYTE PTR [eax+11]
  000da	84 d2		 test	 dl, dl
  000dc	0f 84 b2 01 00
	00		 je	 $LN85@LoadString
  000e2	80 f2 ea	 xor	 dl, -22			; ffffffeaH
  000e5	88 55 e7	 mov	 BYTE PTR __k$[ebp+11], dl
  000e8	8a 50 0c	 mov	 dl, BYTE PTR [eax+12]
  000eb	84 d2		 test	 dl, dl
  000ed	0f 84 9b 01 00
	00		 je	 $LN84@LoadString
  000f3	80 f2 ed	 xor	 dl, -19			; ffffffedH
  000f6	88 55 e8	 mov	 BYTE PTR __k$[ebp+12], dl
  000f9	8a 50 0d	 mov	 dl, BYTE PTR [eax+13]
  000fc	84 d2		 test	 dl, dl
  000fe	0f 84 85 01 00
	00		 je	 $LN83@LoadString
  00104	32 d3		 xor	 dl, bl
  00106	88 55 e9	 mov	 BYTE PTR __k$[ebp+13], dl
  00109	8a 50 0e	 mov	 dl, BYTE PTR [eax+14]
  0010c	84 d2		 test	 dl, dl
  0010e	0f 84 70 01 00
	00		 je	 $LN82@LoadString
  00114	32 d1		 xor	 dl, cl
  00116	88 55 ea	 mov	 BYTE PTR __k$[ebp+14], dl
  00119	8a 50 0f	 mov	 dl, BYTE PTR [eax+15]
  0011c	84 d2		 test	 dl, dl
  0011e	0f 84 5a 01 00
	00		 je	 $LN81@LoadString
  00124	80 f2 ea	 xor	 dl, -22			; ffffffeaH
  00127	88 55 eb	 mov	 BYTE PTR __k$[ebp+15], dl
  0012a	8a 50 10	 mov	 dl, BYTE PTR [eax+16]
  0012d	84 d2		 test	 dl, dl
  0012f	0f 84 43 01 00
	00		 je	 $LN80@LoadString
  00135	80 f2 ed	 xor	 dl, -19			; ffffffedH
  00138	88 55 ec	 mov	 BYTE PTR __k$[ebp+16], dl
  0013b	8a 50 11	 mov	 dl, BYTE PTR [eax+17]
  0013e	84 d2		 test	 dl, dl
  00140	0f 84 2d 01 00
	00		 je	 $LN79@LoadString
  00146	32 d3		 xor	 dl, bl
  00148	88 55 ed	 mov	 BYTE PTR __k$[ebp+17], dl
  0014b	8a 50 12	 mov	 dl, BYTE PTR [eax+18]
  0014e	84 d2		 test	 dl, dl
  00150	0f 84 18 01 00
	00		 je	 $LN78@LoadString
  00156	32 d1		 xor	 dl, cl
  00158	88 55 ee	 mov	 BYTE PTR __k$[ebp+18], dl
  0015b	8a 50 13	 mov	 dl, BYTE PTR [eax+19]
  0015e	84 d2		 test	 dl, dl
  00160	0f 84 02 01 00
	00		 je	 $LN77@LoadString
  00166	80 f2 ea	 xor	 dl, -22			; ffffffeaH
  00169	88 55 ef	 mov	 BYTE PTR __k$[ebp+19], dl
  0016c	8a 50 14	 mov	 dl, BYTE PTR [eax+20]
  0016f	84 d2		 test	 dl, dl
  00171	0f 84 eb 00 00
	00		 je	 $LN76@LoadString
  00177	80 f2 ed	 xor	 dl, -19			; ffffffedH
  0017a	88 55 f0	 mov	 BYTE PTR __k$[ebp+20], dl
  0017d	8a 50 15	 mov	 dl, BYTE PTR [eax+21]
  00180	84 d2		 test	 dl, dl
  00182	0f 84 d5 00 00
	00		 je	 $LN75@LoadString
  00188	32 d3		 xor	 dl, bl
  0018a	88 55 f1	 mov	 BYTE PTR __k$[ebp+21], dl
  0018d	8a 50 16	 mov	 dl, BYTE PTR [eax+22]
  00190	84 d2		 test	 dl, dl
  00192	0f 84 c0 00 00
	00		 je	 $LN74@LoadString
  00198	32 d1		 xor	 dl, cl
  0019a	88 55 f2	 mov	 BYTE PTR __k$[ebp+22], dl
  0019d	8a 50 17	 mov	 dl, BYTE PTR [eax+23]
  001a0	84 d2		 test	 dl, dl
  001a2	0f 84 aa 00 00
	00		 je	 $LN73@LoadString
  001a8	80 f2 ea	 xor	 dl, -22			; ffffffeaH
  001ab	88 55 f3	 mov	 BYTE PTR __k$[ebp+23], dl
  001ae	8a 50 18	 mov	 dl, BYTE PTR [eax+24]
  001b1	84 d2		 test	 dl, dl
  001b3	0f 84 90 00 00
	00		 je	 $LN72@LoadString
  001b9	80 f2 ed	 xor	 dl, -19			; ffffffedH
  001bc	88 55 f4	 mov	 BYTE PTR __k$[ebp+24], dl
  001bf	8a 50 19	 mov	 dl, BYTE PTR [eax+25]
  001c2	84 d2		 test	 dl, dl
  001c4	74 7b		 je	 SHORT $LN71@LoadString
  001c6	32 d3		 xor	 dl, bl
  001c8	88 55 f5	 mov	 BYTE PTR __k$[ebp+25], dl
  001cb	8a 50 1a	 mov	 dl, BYTE PTR [eax+26]
  001ce	84 d2		 test	 dl, dl
  001d0	74 67		 je	 SHORT $LN70@LoadString
  001d2	32 d1		 xor	 dl, cl
  001d4	80 78 1b 00	 cmp	 BYTE PTR [eax+27], 0
  001d8	88 55 f6	 mov	 BYTE PTR __k$[ebp+26], dl
  001db	0f 84 f5 00 00
	00		 je	 $LN111@LoadString
  001e1	8a 50 1c	 mov	 dl, BYTE PTR [eax+28]
  001e4	84 d2		 test	 dl, dl
  001e6	74 48		 je	 SHORT $LN68@LoadString
  001e8	80 f2 ed	 xor	 dl, -19			; ffffffedH
  001eb	88 55 f8	 mov	 BYTE PTR __k$[ebp+28], dl
  001ee	8a 50 1d	 mov	 dl, BYTE PTR [eax+29]
  001f1	84 d2		 test	 dl, dl
  001f3	74 33		 je	 SHORT $LN67@LoadString
  001f5	32 d3		 xor	 dl, bl
  001f7	88 55 f9	 mov	 BYTE PTR __k$[ebp+29], dl
  001fa	8a 50 1e	 mov	 dl, BYTE PTR [eax+30]
  001fd	84 d2		 test	 dl, dl
  001ff	74 1f		 je	 SHORT $LN66@LoadString
  00201	8a 40 1f	 mov	 al, BYTE PTR [eax+31]
  00204	32 d1		 xor	 dl, cl
  00206	88 55 fa	 mov	 BYTE PTR __k$[ebp+30], dl
  00209	84 c0		 test	 al, al
  0020b	74 0a		 je	 SHORT $LN65@LoadString
  0020d	34 ea		 xor	 al, -22			; ffffffeaH
  0020f	88 45 fb	 mov	 BYTE PTR __k$[ebp+31], al
  00212	e9 bf 00 00 00	 jmp	 $LN111@LoadString
$LN65@LoadString:
  00217	c6 45 fb ea	 mov	 BYTE PTR __k$[ebp+31], -22 ; ffffffeaH
  0021b	e9 b6 00 00 00	 jmp	 $LN111@LoadString
$LN66@LoadString:
  00220	88 4d fa	 mov	 BYTE PTR __k$[ebp+30], cl
  00223	e9 ae 00 00 00	 jmp	 $LN111@LoadString
$LN67@LoadString:
  00228	88 5d f9	 mov	 BYTE PTR __k$[ebp+29], bl
  0022b	e9 a6 00 00 00	 jmp	 $LN111@LoadString
$LN68@LoadString:
  00230	c6 45 f8 ed	 mov	 BYTE PTR __k$[ebp+28], -19 ; ffffffedH
  00234	e9 9d 00 00 00	 jmp	 $LN111@LoadString
$LN70@LoadString:
  00239	88 4d f6	 mov	 BYTE PTR __k$[ebp+26], cl
  0023c	e9 95 00 00 00	 jmp	 $LN111@LoadString
$LN71@LoadString:
  00241	88 5d f5	 mov	 BYTE PTR __k$[ebp+25], bl
  00244	e9 8d 00 00 00	 jmp	 $LN111@LoadString
$LN72@LoadString:
  00249	c6 45 f4 ed	 mov	 BYTE PTR __k$[ebp+24], -19 ; ffffffedH
  0024d	e9 84 00 00 00	 jmp	 $LN111@LoadString
$LN73@LoadString:
  00252	c6 45 f3 ea	 mov	 BYTE PTR __k$[ebp+23], -22 ; ffffffeaH
  00256	eb 7e		 jmp	 SHORT $LN111@LoadString
$LN74@LoadString:
  00258	88 4d f2	 mov	 BYTE PTR __k$[ebp+22], cl
  0025b	eb 79		 jmp	 SHORT $LN111@LoadString
$LN75@LoadString:
  0025d	88 5d f1	 mov	 BYTE PTR __k$[ebp+21], bl
  00260	eb 74		 jmp	 SHORT $LN111@LoadString
$LN76@LoadString:
  00262	c6 45 f0 ed	 mov	 BYTE PTR __k$[ebp+20], -19 ; ffffffedH
  00266	eb 6e		 jmp	 SHORT $LN111@LoadString
$LN77@LoadString:
  00268	c6 45 ef ea	 mov	 BYTE PTR __k$[ebp+19], -22 ; ffffffeaH
  0026c	eb 68		 jmp	 SHORT $LN111@LoadString
$LN78@LoadString:
  0026e	88 4d ee	 mov	 BYTE PTR __k$[ebp+18], cl
  00271	eb 63		 jmp	 SHORT $LN111@LoadString
$LN79@LoadString:
  00273	88 5d ed	 mov	 BYTE PTR __k$[ebp+17], bl
  00276	eb 5e		 jmp	 SHORT $LN111@LoadString
$LN80@LoadString:
  00278	c6 45 ec ed	 mov	 BYTE PTR __k$[ebp+16], -19 ; ffffffedH
  0027c	eb 58		 jmp	 SHORT $LN111@LoadString
$LN81@LoadString:
  0027e	c6 45 eb ea	 mov	 BYTE PTR __k$[ebp+15], -22 ; ffffffeaH
  00282	eb 52		 jmp	 SHORT $LN111@LoadString
$LN82@LoadString:
  00284	88 4d ea	 mov	 BYTE PTR __k$[ebp+14], cl
  00287	eb 4d		 jmp	 SHORT $LN111@LoadString
$LN83@LoadString:
  00289	88 5d e9	 mov	 BYTE PTR __k$[ebp+13], bl
  0028c	eb 48		 jmp	 SHORT $LN111@LoadString
$LN84@LoadString:
  0028e	c6 45 e8 ed	 mov	 BYTE PTR __k$[ebp+12], -19 ; ffffffedH
  00292	eb 42		 jmp	 SHORT $LN111@LoadString
$LN85@LoadString:
  00294	c6 45 e7 ea	 mov	 BYTE PTR __k$[ebp+11], -22 ; ffffffeaH
  00298	eb 3c		 jmp	 SHORT $LN111@LoadString
$LN86@LoadString:
  0029a	88 4d e6	 mov	 BYTE PTR __k$[ebp+10], cl
  0029d	eb 37		 jmp	 SHORT $LN111@LoadString
$LN87@LoadString:
  0029f	88 5d e5	 mov	 BYTE PTR __k$[ebp+9], bl
  002a2	eb 32		 jmp	 SHORT $LN111@LoadString
$LN88@LoadString:
  002a4	c6 45 e4 ed	 mov	 BYTE PTR __k$[ebp+8], -19 ; ffffffedH
  002a8	eb 2c		 jmp	 SHORT $LN111@LoadString
$LN89@LoadString:
  002aa	c6 45 e3 ea	 mov	 BYTE PTR __k$[ebp+7], -22 ; ffffffeaH
  002ae	eb 26		 jmp	 SHORT $LN111@LoadString
$LN90@LoadString:
  002b0	88 4d e2	 mov	 BYTE PTR __k$[ebp+6], cl
  002b3	eb 21		 jmp	 SHORT $LN111@LoadString
$LN91@LoadString:
  002b5	88 5d e1	 mov	 BYTE PTR __k$[ebp+5], bl
  002b8	eb 1c		 jmp	 SHORT $LN111@LoadString
$LN92@LoadString:
  002ba	c6 45 e0 ed	 mov	 BYTE PTR __k$[ebp+4], -19 ; ffffffedH
  002be	eb 16		 jmp	 SHORT $LN111@LoadString
$LN93@LoadString:
  002c0	c6 45 df ea	 mov	 BYTE PTR __k$[ebp+3], -22 ; ffffffeaH
  002c4	eb 10		 jmp	 SHORT $LN111@LoadString
$LN94@LoadString:
  002c6	c6 45 de eb	 mov	 BYTE PTR __k$[ebp+2], -21 ; ffffffebH
  002ca	eb 0a		 jmp	 SHORT $LN111@LoadString
$LN95@LoadString:
  002cc	c6 45 dd ec	 mov	 BYTE PTR __k$[ebp+1], -20 ; ffffffecH
  002d0	eb 04		 jmp	 SHORT $LN111@LoadString
$LN96@LoadString:
  002d2	c6 45 dc ed	 mov	 BYTE PTR __k$[ebp], -19	; ffffffedH
$LN111@LoadString:
  002d6	6a 06		 push	 6
  002d8	8d 45 dc	 lea	 eax, DWORD PTR __k$[ebp]
  002db	c6 45 f7 00	 mov	 BYTE PTR __k$[ebp+27], 0
  002df	5a		 pop	 edx
$LL104@LoadString:
  002e0	81 30 ed ec eb
	ea		 xor	 DWORD PTR [eax], -353637139 ; eaebecedH
  002e6	83 c0 04	 add	 eax, 4
  002e9	4a		 dec	 edx
  002ea	75 f4		 jne	 SHORT $LL104@LoadString
  002ec	6a 18		 push	 24			; 00000018H
  002ee	58		 pop	 eax
$LL101@LoadString:
  002ef	8b c8		 mov	 ecx, eax
  002f1	81 e1 03 00 00
	80		 and	 ecx, -2147483645	; 80000003H
  002f7	79 05		 jns	 SHORT $LN112@LoadString
  002f9	49		 dec	 ecx
  002fa	83 c9 fc	 or	 ecx, -4			; fffffffcH
  002fd	41		 inc	 ecx
$LN112@LoadString:
  002fe	b2 ed		 mov	 dl, -19			; ffffffedH
  00300	2a d1		 sub	 dl, cl
  00302	30 54 05 dc	 xor	 BYTE PTR __k$[ebp+eax], dl
  00306	40		 inc	 eax
  00307	83 f8 1b	 cmp	 eax, 27			; 0000001bH
  0030a	7c e3		 jl	 SHORT $LL101@LoadString

; 163  : 		LoadString(_k, d, b, i);

  0030c	ff 75 14	 push	 DWORD PTR _i$[ebp]
  0030f	8b 4d d8	 mov	 ecx, DWORD PTR _this$GSCopy$[ebp]
  00312	57		 push	 edi
  00313	56		 push	 esi
  00314	8d 45 dc	 lea	 eax, DWORD PTR __k$[ebp]
  00317	50		 push	 eax
  00318	ff 15 00 00 00
	00		 call	 DWORD PTR __imp_?LoadStringA@ioINILoader@@QAEXPBD0PADH@Z

; 164  : 	}

  0031e	8b 4d fc	 mov	 ecx, DWORD PTR __$ArrayPad$[ebp]
  00321	5f		 pop	 edi
  00322	5e		 pop	 esi
  00323	33 cd		 xor	 ecx, ebp
  00325	5b		 pop	 ebx
  00326	e8 00 00 00 00	 call	 @__security_check_cookie@4
  0032b	c9		 leave
  0032c	c2 10 00	 ret	 16			; 00000010H
??$LoadString_e@$0BM@@ioINILoader@@QAEXAAY0BM@$$CBDAAY00$$CBDPADH@Z ENDP ; ioINILoader::LoadString_e<28>
_TEXT	ENDS
PUBLIC	_this$GSCopy$
PUBLIC	__$ArrayPad$
PUBLIC	??$LoadString_e@$0BL@@ioINILoader@@QAEXAAY0BL@$$CBDAAY00$$CBDPADH@Z ; ioINILoader::LoadString_e<27>
; Function compile flags: /Ogsp
;	COMDAT ??$LoadString_e@$0BL@@ioINILoader@@QAEXAAY0BL@$$CBDAAY00$$CBDPADH@Z
_TEXT	SEGMENT
_this$GSCopy$ = -40					; size = 4
__k$ = -36						; size = 27
__$ArrayPad$ = -4					; size = 4
_k$ = 8							; size = 4
_d$ = 12						; size = 4
_b$ = 16						; size = 4
_i$ = 20						; size = 4
??$LoadString_e@$0BL@@ioINILoader@@QAEXAAY0BL@$$CBDAAY00$$CBDPADH@Z PROC ; ioINILoader::LoadString_e<27>, COMDAT
; _this$ = ecx

; 161  : 	{

  00000	55		 push	 ebp
  00001	8b ec		 mov	 ebp, esp
  00003	83 ec 28	 sub	 esp, 40			; 00000028H
  00006	a1 00 00 00 00	 mov	 eax, DWORD PTR ___security_cookie
  0000b	33 c5		 xor	 eax, ebp
  0000d	89 45 fc	 mov	 DWORD PTR __$ArrayPad$[ebp], eax
  00010	8b 45 08	 mov	 eax, DWORD PTR _k$[ebp]

; 162  : 		_ENCSTR(k, _k);

  00013	8a 10		 mov	 dl, BYTE PTR [eax]
  00015	53		 push	 ebx
  00016	56		 push	 esi
  00017	8b 75 0c	 mov	 esi, DWORD PTR _d$[ebp]
  0001a	57		 push	 edi
  0001b	8b 7d 10	 mov	 edi, DWORD PTR _b$[ebp]
  0001e	89 4d d8	 mov	 DWORD PTR _this$GSCopy$[ebp], ecx
  00021	84 d2		 test	 dl, dl
  00023	0f 84 91 02 00
	00		 je	 $LN96@LoadString@2
  00029	80 f2 ed	 xor	 dl, -19			; ffffffedH
  0002c	88 55 dc	 mov	 BYTE PTR __k$[ebp], dl
  0002f	8a 50 01	 mov	 dl, BYTE PTR [eax+1]
  00032	84 d2		 test	 dl, dl
  00034	0f 84 7a 02 00
	00		 je	 $LN95@LoadString@2
  0003a	b1 ec		 mov	 cl, -20			; ffffffecH
  0003c	32 d1		 xor	 dl, cl
  0003e	88 55 dd	 mov	 BYTE PTR __k$[ebp+1], dl
  00041	8a 50 02	 mov	 dl, BYTE PTR [eax+2]
  00044	84 d2		 test	 dl, dl
  00046	0f 84 62 02 00
	00		 je	 $LN94@LoadString@2
  0004c	80 f2 eb	 xor	 dl, -21			; ffffffebH
  0004f	88 55 de	 mov	 BYTE PTR __k$[ebp+2], dl
  00052	8a 50 03	 mov	 dl, BYTE PTR [eax+3]
  00055	84 d2		 test	 dl, dl
  00057	0f 84 4b 02 00
	00		 je	 $LN93@LoadString@2
  0005d	b3 ea		 mov	 bl, -22			; ffffffeaH
  0005f	32 d3		 xor	 dl, bl
  00061	88 55 df	 mov	 BYTE PTR __k$[ebp+3], dl
  00064	8a 50 04	 mov	 dl, BYTE PTR [eax+4]
  00067	84 d2		 test	 dl, dl
  00069	0f 84 33 02 00
	00		 je	 $LN92@LoadString@2
  0006f	80 f2 ed	 xor	 dl, -19			; ffffffedH
  00072	88 55 e0	 mov	 BYTE PTR __k$[ebp+4], dl
  00075	8a 50 05	 mov	 dl, BYTE PTR [eax+5]
  00078	84 d2		 test	 dl, dl
  0007a	0f 84 1d 02 00
	00		 je	 $LN91@LoadString@2
  00080	32 d1		 xor	 dl, cl
  00082	88 55 e1	 mov	 BYTE PTR __k$[ebp+5], dl
  00085	8a 50 06	 mov	 dl, BYTE PTR [eax+6]
  00088	84 d2		 test	 dl, dl
  0008a	0f 84 07 02 00
	00		 je	 $LN90@LoadString@2
  00090	80 f2 eb	 xor	 dl, -21			; ffffffebH
  00093	88 55 e2	 mov	 BYTE PTR __k$[ebp+6], dl
  00096	8a 50 07	 mov	 dl, BYTE PTR [eax+7]
  00099	84 d2		 test	 dl, dl
  0009b	0f 84 f1 01 00
	00		 je	 $LN89@LoadString@2
  000a1	32 d3		 xor	 dl, bl
  000a3	88 55 e3	 mov	 BYTE PTR __k$[ebp+7], dl
  000a6	8a 50 08	 mov	 dl, BYTE PTR [eax+8]
  000a9	84 d2		 test	 dl, dl
  000ab	0f 84 db 01 00
	00		 je	 $LN88@LoadString@2
  000b1	80 f2 ed	 xor	 dl, -19			; ffffffedH
  000b4	88 55 e4	 mov	 BYTE PTR __k$[ebp+8], dl
  000b7	8a 50 09	 mov	 dl, BYTE PTR [eax+9]
  000ba	84 d2		 test	 dl, dl
  000bc	0f 84 c5 01 00
	00		 je	 $LN87@LoadString@2
  000c2	32 d1		 xor	 dl, cl
  000c4	88 55 e5	 mov	 BYTE PTR __k$[ebp+9], dl
  000c7	8a 50 0a	 mov	 dl, BYTE PTR [eax+10]
  000ca	84 d2		 test	 dl, dl
  000cc	0f 84 af 01 00
	00		 je	 $LN86@LoadString@2
  000d2	80 f2 eb	 xor	 dl, -21			; ffffffebH
  000d5	88 55 e6	 mov	 BYTE PTR __k$[ebp+10], dl
  000d8	8a 50 0b	 mov	 dl, BYTE PTR [eax+11]
  000db	84 d2		 test	 dl, dl
  000dd	0f 84 99 01 00
	00		 je	 $LN85@LoadString@2
  000e3	32 d3		 xor	 dl, bl
  000e5	88 55 e7	 mov	 BYTE PTR __k$[ebp+11], dl
  000e8	8a 50 0c	 mov	 dl, BYTE PTR [eax+12]
  000eb	84 d2		 test	 dl, dl
  000ed	0f 84 83 01 00
	00		 je	 $LN84@LoadString@2
  000f3	80 f2 ed	 xor	 dl, -19			; ffffffedH
  000f6	88 55 e8	 mov	 BYTE PTR __k$[ebp+12], dl
  000f9	8a 50 0d	 mov	 dl, BYTE PTR [eax+13]
  000fc	84 d2		 test	 dl, dl
  000fe	0f 84 6d 01 00
	00		 je	 $LN83@LoadString@2
  00104	32 d1		 xor	 dl, cl
  00106	88 55 e9	 mov	 BYTE PTR __k$[ebp+13], dl
  00109	8a 50 0e	 mov	 dl, BYTE PTR [eax+14]
  0010c	84 d2		 test	 dl, dl
  0010e	0f 84 57 01 00
	00		 je	 $LN82@LoadString@2
  00114	80 f2 eb	 xor	 dl, -21			; ffffffebH
  00117	88 55 ea	 mov	 BYTE PTR __k$[ebp+14], dl
  0011a	8a 50 0f	 mov	 dl, BYTE PTR [eax+15]
  0011d	84 d2		 test	 dl, dl
  0011f	0f 84 41 01 00
	00		 je	 $LN81@LoadString@2
  00125	32 d3		 xor	 dl, bl
  00127	88 55 eb	 mov	 BYTE PTR __k$[ebp+15], dl
  0012a	8a 50 10	 mov	 dl, BYTE PTR [eax+16]
  0012d	84 d2		 test	 dl, dl
  0012f	0f 84 2b 01 00
	00		 je	 $LN80@LoadString@2
  00135	80 f2 ed	 xor	 dl, -19			; ffffffedH
  00138	88 55 ec	 mov	 BYTE PTR __k$[ebp+16], dl
  0013b	8a 50 11	 mov	 dl, BYTE PTR [eax+17]
  0013e	84 d2		 test	 dl, dl
  00140	0f 84 15 01 00
	00		 je	 $LN79@LoadString@2
  00146	32 d1		 xor	 dl, cl
  00148	88 55 ed	 mov	 BYTE PTR __k$[ebp+17], dl
  0014b	8a 50 12	 mov	 dl, BYTE PTR [eax+18]
  0014e	84 d2		 test	 dl, dl
  00150	0f 84 ff 00 00
	00		 je	 $LN78@LoadString@2
  00156	80 f2 eb	 xor	 dl, -21			; ffffffebH
  00159	88 55 ee	 mov	 BYTE PTR __k$[ebp+18], dl
  0015c	8a 50 13	 mov	 dl, BYTE PTR [eax+19]
  0015f	84 d2		 test	 dl, dl
  00161	0f 84 e9 00 00
	00		 je	 $LN77@LoadString@2
  00167	32 d3		 xor	 dl, bl
  00169	88 55 ef	 mov	 BYTE PTR __k$[ebp+19], dl
  0016c	8a 50 14	 mov	 dl, BYTE PTR [eax+20]
  0016f	84 d2		 test	 dl, dl
  00171	0f 84 d3 00 00
	00		 je	 $LN76@LoadString@2
  00177	80 f2 ed	 xor	 dl, -19			; ffffffedH
  0017a	88 55 f0	 mov	 BYTE PTR __k$[ebp+20], dl
  0017d	8a 50 15	 mov	 dl, BYTE PTR [eax+21]
  00180	84 d2		 test	 dl, dl
  00182	0f 84 bd 00 00
	00		 je	 $LN75@LoadString@2
  00188	32 d1		 xor	 dl, cl
  0018a	88 55 f1	 mov	 BYTE PTR __k$[ebp+21], dl
  0018d	8a 50 16	 mov	 dl, BYTE PTR [eax+22]
  00190	84 d2		 test	 dl, dl
  00192	0f 84 a7 00 00
	00		 je	 $LN74@LoadString@2
  00198	80 f2 eb	 xor	 dl, -21			; ffffffebH
  0019b	88 55 f2	 mov	 BYTE PTR __k$[ebp+22], dl
  0019e	8a 50 17	 mov	 dl, BYTE PTR [eax+23]
  001a1	84 d2		 test	 dl, dl
  001a3	0f 84 91 00 00
	00		 je	 $LN73@LoadString@2
  001a9	32 d3		 xor	 dl, bl
  001ab	88 55 f3	 mov	 BYTE PTR __k$[ebp+23], dl
  001ae	8a 50 18	 mov	 dl, BYTE PTR [eax+24]
  001b1	84 d2		 test	 dl, dl
  001b3	74 7c		 je	 SHORT $LN72@LoadString@2
  001b5	80 f2 ed	 xor	 dl, -19			; ffffffedH
  001b8	88 55 f4	 mov	 BYTE PTR __k$[ebp+24], dl
  001bb	8a 50 19	 mov	 dl, BYTE PTR [eax+25]
  001be	84 d2		 test	 dl, dl
  001c0	74 67		 je	 SHORT $LN71@LoadString@2
  001c2	32 d1		 xor	 dl, cl
  001c4	80 78 1a 00	 cmp	 BYTE PTR [eax+26], 0
  001c8	88 55 f5	 mov	 BYTE PTR __k$[ebp+25], dl
  001cb	0f 84 ed 00 00
	00		 je	 $LN111@LoadString@2
  001d1	8a 50 1b	 mov	 dl, BYTE PTR [eax+27]
  001d4	84 d2		 test	 dl, dl
  001d6	74 49		 je	 SHORT $LN69@LoadString@2
  001d8	32 d3		 xor	 dl, bl
  001da	88 55 f7	 mov	 BYTE PTR __k$[ebp+27], dl
  001dd	8a 50 1c	 mov	 dl, BYTE PTR [eax+28]
  001e0	84 d2		 test	 dl, dl
  001e2	74 34		 je	 SHORT $LN68@LoadString@2
  001e4	80 f2 ed	 xor	 dl, -19			; ffffffedH
  001e7	88 55 f8	 mov	 BYTE PTR __k$[ebp+28], dl
  001ea	8a 50 1d	 mov	 dl, BYTE PTR [eax+29]
  001ed	84 d2		 test	 dl, dl
  001ef	74 1f		 je	 SHORT $LN67@LoadString@2
  001f1	8a 40 1e	 mov	 al, BYTE PTR [eax+30]
  001f4	32 d1		 xor	 dl, cl
  001f6	88 55 f9	 mov	 BYTE PTR __k$[ebp+29], dl
  001f9	84 c0		 test	 al, al
  001fb	74 0a		 je	 SHORT $LN66@LoadString@2
  001fd	34 eb		 xor	 al, -21			; ffffffebH
  001ff	88 45 fa	 mov	 BYTE PTR __k$[ebp+30], al
  00202	e9 b7 00 00 00	 jmp	 $LN111@LoadString@2
$LN66@LoadString@2:
  00207	c6 45 fa eb	 mov	 BYTE PTR __k$[ebp+30], -21 ; ffffffebH
  0020b	e9 ae 00 00 00	 jmp	 $LN111@LoadString@2
$LN67@LoadString@2:
  00210	88 4d f9	 mov	 BYTE PTR __k$[ebp+29], cl
  00213	e9 a6 00 00 00	 jmp	 $LN111@LoadString@2
$LN68@LoadString@2:
  00218	c6 45 f8 ed	 mov	 BYTE PTR __k$[ebp+28], -19 ; ffffffedH
  0021c	e9 9d 00 00 00	 jmp	 $LN111@LoadString@2
$LN69@LoadString@2:
  00221	88 5d f7	 mov	 BYTE PTR __k$[ebp+27], bl
  00224	e9 95 00 00 00	 jmp	 $LN111@LoadString@2
$LN71@LoadString@2:
  00229	88 4d f5	 mov	 BYTE PTR __k$[ebp+25], cl
  0022c	e9 8d 00 00 00	 jmp	 $LN111@LoadString@2
$LN72@LoadString@2:
  00231	c6 45 f4 ed	 mov	 BYTE PTR __k$[ebp+24], -19 ; ffffffedH
  00235	e9 84 00 00 00	 jmp	 $LN111@LoadString@2
$LN73@LoadString@2:
  0023a	88 5d f3	 mov	 BYTE PTR __k$[ebp+23], bl
  0023d	eb 7f		 jmp	 SHORT $LN111@LoadString@2
$LN74@LoadString@2:
  0023f	c6 45 f2 eb	 mov	 BYTE PTR __k$[ebp+22], -21 ; ffffffebH
  00243	eb 79		 jmp	 SHORT $LN111@LoadString@2
$LN75@LoadString@2:
  00245	88 4d f1	 mov	 BYTE PTR __k$[ebp+21], cl
  00248	eb 74		 jmp	 SHORT $LN111@LoadString@2
$LN76@LoadString@2:
  0024a	c6 45 f0 ed	 mov	 BYTE PTR __k$[ebp+20], -19 ; ffffffedH
  0024e	eb 6e		 jmp	 SHORT $LN111@LoadString@2
$LN77@LoadString@2:
  00250	88 5d ef	 mov	 BYTE PTR __k$[ebp+19], bl
  00253	eb 69		 jmp	 SHORT $LN111@LoadString@2
$LN78@LoadString@2:
  00255	c6 45 ee eb	 mov	 BYTE PTR __k$[ebp+18], -21 ; ffffffebH
  00259	eb 63		 jmp	 SHORT $LN111@LoadString@2
$LN79@LoadString@2:
  0025b	88 4d ed	 mov	 BYTE PTR __k$[ebp+17], cl
  0025e	eb 5e		 jmp	 SHORT $LN111@LoadString@2
$LN80@LoadString@2:
  00260	c6 45 ec ed	 mov	 BYTE PTR __k$[ebp+16], -19 ; ffffffedH
  00264	eb 58		 jmp	 SHORT $LN111@LoadString@2
$LN81@LoadString@2:
  00266	88 5d eb	 mov	 BYTE PTR __k$[ebp+15], bl
  00269	eb 53		 jmp	 SHORT $LN111@LoadString@2
$LN82@LoadString@2:
  0026b	c6 45 ea eb	 mov	 BYTE PTR __k$[ebp+14], -21 ; ffffffebH
  0026f	eb 4d		 jmp	 SHORT $LN111@LoadString@2
$LN83@LoadString@2:
  00271	88 4d e9	 mov	 BYTE PTR __k$[ebp+13], cl
  00274	eb 48		 jmp	 SHORT $LN111@LoadString@2
$LN84@LoadString@2:
  00276	c6 45 e8 ed	 mov	 BYTE PTR __k$[ebp+12], -19 ; ffffffedH
  0027a	eb 42		 jmp	 SHORT $LN111@LoadString@2
$LN85@LoadString@2:
  0027c	88 5d e7	 mov	 BYTE PTR __k$[ebp+11], bl
  0027f	eb 3d		 jmp	 SHORT $LN111@LoadString@2
$LN86@LoadString@2:
  00281	c6 45 e6 eb	 mov	 BYTE PTR __k$[ebp+10], -21 ; ffffffebH
  00285	eb 37		 jmp	 SHORT $LN111@LoadString@2
$LN87@LoadString@2:
  00287	88 4d e5	 mov	 BYTE PTR __k$[ebp+9], cl
  0028a	eb 32		 jmp	 SHORT $LN111@LoadString@2
$LN88@LoadString@2:
  0028c	c6 45 e4 ed	 mov	 BYTE PTR __k$[ebp+8], -19 ; ffffffedH
  00290	eb 2c		 jmp	 SHORT $LN111@LoadString@2
$LN89@LoadString@2:
  00292	88 5d e3	 mov	 BYTE PTR __k$[ebp+7], bl
  00295	eb 27		 jmp	 SHORT $LN111@LoadString@2
$LN90@LoadString@2:
  00297	c6 45 e2 eb	 mov	 BYTE PTR __k$[ebp+6], -21 ; ffffffebH
  0029b	eb 21		 jmp	 SHORT $LN111@LoadString@2
$LN91@LoadString@2:
  0029d	88 4d e1	 mov	 BYTE PTR __k$[ebp+5], cl
  002a0	eb 1c		 jmp	 SHORT $LN111@LoadString@2
$LN92@LoadString@2:
  002a2	c6 45 e0 ed	 mov	 BYTE PTR __k$[ebp+4], -19 ; ffffffedH
  002a6	eb 16		 jmp	 SHORT $LN111@LoadString@2
$LN93@LoadString@2:
  002a8	c6 45 df ea	 mov	 BYTE PTR __k$[ebp+3], -22 ; ffffffeaH
  002ac	eb 10		 jmp	 SHORT $LN111@LoadString@2
$LN94@LoadString@2:
  002ae	c6 45 de eb	 mov	 BYTE PTR __k$[ebp+2], -21 ; ffffffebH
  002b2	eb 0a		 jmp	 SHORT $LN111@LoadString@2
$LN95@LoadString@2:
  002b4	c6 45 dd ec	 mov	 BYTE PTR __k$[ebp+1], -20 ; ffffffecH
  002b8	eb 04		 jmp	 SHORT $LN111@LoadString@2
$LN96@LoadString@2:
  002ba	c6 45 dc ed	 mov	 BYTE PTR __k$[ebp], -19	; ffffffedH
$LN111@LoadString@2:
  002be	6a 06		 push	 6
  002c0	8d 45 dc	 lea	 eax, DWORD PTR __k$[ebp]
  002c3	c6 45 f6 00	 mov	 BYTE PTR __k$[ebp+26], 0
  002c7	5a		 pop	 edx
$LL104@LoadString@2:
  002c8	81 30 ed ec eb
	ea		 xor	 DWORD PTR [eax], -353637139 ; eaebecedH
  002ce	83 c0 04	 add	 eax, 4
  002d1	4a		 dec	 edx
  002d2	75 f4		 jne	 SHORT $LL104@LoadString@2
  002d4	6a 18		 push	 24			; 00000018H
  002d6	58		 pop	 eax
$LL101@LoadString@2:
  002d7	8b c8		 mov	 ecx, eax
  002d9	81 e1 03 00 00
	80		 and	 ecx, -2147483645	; 80000003H
  002df	79 05		 jns	 SHORT $LN112@LoadString@2
  002e1	49		 dec	 ecx
  002e2	83 c9 fc	 or	 ecx, -4			; fffffffcH
  002e5	41		 inc	 ecx
$LN112@LoadString@2:
  002e6	b2 ed		 mov	 dl, -19			; ffffffedH
  002e8	2a d1		 sub	 dl, cl
  002ea	30 54 05 dc	 xor	 BYTE PTR __k$[ebp+eax], dl
  002ee	40		 inc	 eax
  002ef	83 f8 1a	 cmp	 eax, 26			; 0000001aH
  002f2	7c e3		 jl	 SHORT $LL101@LoadString@2

; 163  : 		LoadString(_k, d, b, i);

  002f4	ff 75 14	 push	 DWORD PTR _i$[ebp]
  002f7	8b 4d d8	 mov	 ecx, DWORD PTR _this$GSCopy$[ebp]
  002fa	57		 push	 edi
  002fb	56		 push	 esi
  002fc	8d 45 dc	 lea	 eax, DWORD PTR __k$[ebp]
  002ff	50		 push	 eax
  00300	ff 15 00 00 00
	00		 call	 DWORD PTR __imp_?LoadStringA@ioINILoader@@QAEXPBD0PADH@Z

; 164  : 	}

  00306	8b 4d fc	 mov	 ecx, DWORD PTR __$ArrayPad$[ebp]
  00309	5f		 pop	 edi
  0030a	5e		 pop	 esi
  0030b	33 cd		 xor	 ecx, ebp
  0030d	5b		 pop	 ebx
  0030e	e8 00 00 00 00	 call	 @__security_check_cookie@4
  00313	c9		 leave
  00314	c2 10 00	 ret	 16			; 00000010H
??$LoadString_e@$0BL@@ioINILoader@@QAEXAAY0BL@$$CBDAAY00$$CBDPADH@Z ENDP ; ioINILoader::LoadString_e<27>
_TEXT	ENDS
PUBLIC	__$ArrayPad$
PUBLIC	??$LoadAttackAttribute_e@$0BB@@@YAXAAY0BB@$$CBDAAUAttackAttribute@@AAVioINILoader@@@Z ; LoadAttackAttribute_e<17>
EXTRN	?LoadAttackAttribute@@YAXPBDAAUAttackAttribute@@AAVioINILoader@@@Z:PROC ; LoadAttackAttribute
; Function compile flags: /Ogsp
; File d:\lost saga for developer\youtube\tutorial\source\src\lsclient\ioattackattribute.h
;	COMDAT ??$LoadAttackAttribute_e@$0BB@@@YAXAAY0BB@$$CBDAAUAttackAttribute@@AAVioINILoader@@@Z
_TEXT	SEGMENT
_szEncAttack$ = -28					; size = 17
__$ArrayPad$ = -4					; size = 4
_szAttack$ = 8						; size = 4
_rkAttribute$ = 12					; size = 4
_rkLoader$ = 16						; size = 4
??$LoadAttackAttribute_e@$0BB@@@YAXAAY0BB@$$CBDAAUAttackAttribute@@AAVioINILoader@@@Z PROC ; LoadAttackAttribute_e<17>, COMDAT

; 131  : {

  00000	55		 push	 ebp
  00001	8b ec		 mov	 ebp, esp
  00003	83 ec 1c	 sub	 esp, 28			; 0000001cH
  00006	a1 00 00 00 00	 mov	 eax, DWORD PTR ___security_cookie
  0000b	33 c5		 xor	 eax, ebp
  0000d	89 45 fc	 mov	 DWORD PTR __$ArrayPad$[ebp], eax
  00010	8b 45 08	 mov	 eax, DWORD PTR _szAttack$[ebp]

; 132  : 	_ENCSTR(szAttack, szEncAttack);

  00013	8a 08		 mov	 cl, BYTE PTR [eax]
  00015	56		 push	 esi
  00016	8b 75 0c	 mov	 esi, DWORD PTR _rkAttribute$[ebp]
  00019	57		 push	 edi
  0001a	8b 7d 10	 mov	 edi, DWORD PTR _rkLoader$[ebp]
  0001d	84 c9		 test	 cl, cl
  0001f	0f 84 a3 01 00
	00		 je	 $LN96@LoadAttack
  00025	80 f1 ed	 xor	 cl, -19			; ffffffedH
  00028	88 4d e4	 mov	 BYTE PTR _szEncAttack$[ebp], cl
  0002b	8a 48 01	 mov	 cl, BYTE PTR [eax+1]
  0002e	84 c9		 test	 cl, cl
  00030	0f 84 8c 01 00
	00		 je	 $LN95@LoadAttack
  00036	80 f1 ec	 xor	 cl, -20			; ffffffecH
  00039	88 4d e5	 mov	 BYTE PTR _szEncAttack$[ebp+1], cl
  0003c	8a 48 02	 mov	 cl, BYTE PTR [eax+2]
  0003f	84 c9		 test	 cl, cl
  00041	0f 84 75 01 00
	00		 je	 $LN94@LoadAttack
  00047	b2 eb		 mov	 dl, -21			; ffffffebH
  00049	32 ca		 xor	 cl, dl
  0004b	88 4d e6	 mov	 BYTE PTR _szEncAttack$[ebp+2], cl
  0004e	8a 48 03	 mov	 cl, BYTE PTR [eax+3]
  00051	84 c9		 test	 cl, cl
  00053	0f 84 5d 01 00
	00		 je	 $LN93@LoadAttack
  00059	80 f1 ea	 xor	 cl, -22			; ffffffeaH
  0005c	88 4d e7	 mov	 BYTE PTR _szEncAttack$[ebp+3], cl
  0005f	8a 48 04	 mov	 cl, BYTE PTR [eax+4]
  00062	84 c9		 test	 cl, cl
  00064	0f 84 46 01 00
	00		 je	 $LN92@LoadAttack
  0006a	80 f1 ed	 xor	 cl, -19			; ffffffedH
  0006d	88 4d e8	 mov	 BYTE PTR _szEncAttack$[ebp+4], cl
  00070	8a 48 05	 mov	 cl, BYTE PTR [eax+5]
  00073	84 c9		 test	 cl, cl
  00075	0f 84 2f 01 00
	00		 je	 $LN91@LoadAttack
  0007b	80 f1 ec	 xor	 cl, -20			; ffffffecH
  0007e	88 4d e9	 mov	 BYTE PTR _szEncAttack$[ebp+5], cl
  00081	8a 48 06	 mov	 cl, BYTE PTR [eax+6]
  00084	84 c9		 test	 cl, cl
  00086	0f 84 19 01 00
	00		 je	 $LN90@LoadAttack
  0008c	32 ca		 xor	 cl, dl
  0008e	88 4d ea	 mov	 BYTE PTR _szEncAttack$[ebp+6], cl
  00091	8a 48 07	 mov	 cl, BYTE PTR [eax+7]
  00094	84 c9		 test	 cl, cl
  00096	0f 84 03 01 00
	00		 je	 $LN89@LoadAttack
  0009c	80 f1 ea	 xor	 cl, -22			; ffffffeaH
  0009f	88 4d eb	 mov	 BYTE PTR _szEncAttack$[ebp+7], cl
  000a2	8a 48 08	 mov	 cl, BYTE PTR [eax+8]
  000a5	84 c9		 test	 cl, cl
  000a7	0f 84 ec 00 00
	00		 je	 $LN88@LoadAttack
  000ad	80 f1 ed	 xor	 cl, -19			; ffffffedH
  000b0	88 4d ec	 mov	 BYTE PTR _szEncAttack$[ebp+8], cl
  000b3	8a 48 09	 mov	 cl, BYTE PTR [eax+9]
  000b6	84 c9		 test	 cl, cl
  000b8	0f 84 d5 00 00
	00		 je	 $LN87@LoadAttack
  000be	80 f1 ec	 xor	 cl, -20			; ffffffecH
  000c1	88 4d ed	 mov	 BYTE PTR _szEncAttack$[ebp+9], cl
  000c4	8a 48 0a	 mov	 cl, BYTE PTR [eax+10]
  000c7	84 c9		 test	 cl, cl
  000c9	0f 84 bf 00 00
	00		 je	 $LN86@LoadAttack
  000cf	32 ca		 xor	 cl, dl
  000d1	88 4d ee	 mov	 BYTE PTR _szEncAttack$[ebp+10], cl
  000d4	8a 48 0b	 mov	 cl, BYTE PTR [eax+11]
  000d7	84 c9		 test	 cl, cl
  000d9	0f 84 a9 00 00
	00		 je	 $LN85@LoadAttack
  000df	80 f1 ea	 xor	 cl, -22			; ffffffeaH
  000e2	88 4d ef	 mov	 BYTE PTR _szEncAttack$[ebp+11], cl
  000e5	8a 48 0c	 mov	 cl, BYTE PTR [eax+12]
  000e8	84 c9		 test	 cl, cl
  000ea	0f 84 92 00 00
	00		 je	 $LN84@LoadAttack
  000f0	80 f1 ed	 xor	 cl, -19			; ffffffedH
  000f3	88 4d f0	 mov	 BYTE PTR _szEncAttack$[ebp+12], cl
  000f6	8a 48 0d	 mov	 cl, BYTE PTR [eax+13]
  000f9	84 c9		 test	 cl, cl
  000fb	74 7f		 je	 SHORT $LN83@LoadAttack
  000fd	80 f1 ec	 xor	 cl, -20			; ffffffecH
  00100	88 4d f1	 mov	 BYTE PTR _szEncAttack$[ebp+13], cl
  00103	8a 48 0e	 mov	 cl, BYTE PTR [eax+14]
  00106	84 c9		 test	 cl, cl
  00108	74 6d		 je	 SHORT $LN82@LoadAttack
  0010a	32 ca		 xor	 cl, dl
  0010c	88 4d f2	 mov	 BYTE PTR _szEncAttack$[ebp+14], cl
  0010f	8a 48 0f	 mov	 cl, BYTE PTR [eax+15]
  00112	84 c9		 test	 cl, cl
  00114	74 5b		 je	 SHORT $LN81@LoadAttack
  00116	80 f1 ea	 xor	 cl, -22			; ffffffeaH
  00119	80 78 10 00	 cmp	 BYTE PTR [eax+16], 0
  0011d	88 4d f3	 mov	 BYTE PTR _szEncAttack$[ebp+15], cl
  00120	0f 84 a6 00 00
	00		 je	 $LN1@LoadAttack
  00126	8a 48 11	 mov	 cl, BYTE PTR [eax+17]
  00129	84 c9		 test	 cl, cl
  0012b	74 3e		 je	 SHORT $LN79@LoadAttack
  0012d	80 f1 ec	 xor	 cl, -20			; ffffffecH
  00130	88 4d f5	 mov	 BYTE PTR _szEncAttack$[ebp+17], cl
  00133	8a 48 12	 mov	 cl, BYTE PTR [eax+18]
  00136	84 c9		 test	 cl, cl
  00138	74 2c		 je	 SHORT $LN78@LoadAttack
  0013a	32 ca		 xor	 cl, dl
  0013c	88 4d f6	 mov	 BYTE PTR _szEncAttack$[ebp+18], cl
  0013f	8a 48 13	 mov	 cl, BYTE PTR [eax+19]
  00142	84 c9		 test	 cl, cl
  00144	74 1a		 je	 SHORT $LN77@LoadAttack
  00146	8a 40 14	 mov	 al, BYTE PTR [eax+20]
  00149	80 f1 ea	 xor	 cl, -22			; ffffffeaH
  0014c	88 4d f7	 mov	 BYTE PTR _szEncAttack$[ebp+19], cl
  0014f	84 c0		 test	 al, al
  00151	74 07		 je	 SHORT $LN76@LoadAttack
  00153	34 ed		 xor	 al, -19			; ffffffedH
  00155	88 45 f8	 mov	 BYTE PTR _szEncAttack$[ebp+20], al
  00158	eb 72		 jmp	 SHORT $LN1@LoadAttack
$LN76@LoadAttack:
  0015a	c6 45 f8 ed	 mov	 BYTE PTR _szEncAttack$[ebp+20], -19 ; ffffffedH
  0015e	eb 6c		 jmp	 SHORT $LN1@LoadAttack
$LN77@LoadAttack:
  00160	c6 45 f7 ea	 mov	 BYTE PTR _szEncAttack$[ebp+19], -22 ; ffffffeaH
  00164	eb 66		 jmp	 SHORT $LN1@LoadAttack
$LN78@LoadAttack:
  00166	88 55 f6	 mov	 BYTE PTR _szEncAttack$[ebp+18], dl
  00169	eb 61		 jmp	 SHORT $LN1@LoadAttack
$LN79@LoadAttack:
  0016b	c6 45 f5 ec	 mov	 BYTE PTR _szEncAttack$[ebp+17], -20 ; ffffffecH
  0016f	eb 5b		 jmp	 SHORT $LN1@LoadAttack
$LN81@LoadAttack:
  00171	c6 45 f3 ea	 mov	 BYTE PTR _szEncAttack$[ebp+15], -22 ; ffffffeaH
  00175	eb 55		 jmp	 SHORT $LN1@LoadAttack
$LN82@LoadAttack:
  00177	88 55 f2	 mov	 BYTE PTR _szEncAttack$[ebp+14], dl
  0017a	eb 50		 jmp	 SHORT $LN1@LoadAttack
$LN83@LoadAttack:
  0017c	c6 45 f1 ec	 mov	 BYTE PTR _szEncAttack$[ebp+13], -20 ; ffffffecH
  00180	eb 4a		 jmp	 SHORT $LN1@LoadAttack
$LN84@LoadAttack:
  00182	c6 45 f0 ed	 mov	 BYTE PTR _szEncAttack$[ebp+12], -19 ; ffffffedH
  00186	eb 44		 jmp	 SHORT $LN1@LoadAttack
$LN85@LoadAttack:
  00188	c6 45 ef ea	 mov	 BYTE PTR _szEncAttack$[ebp+11], -22 ; ffffffeaH
  0018c	eb 3e		 jmp	 SHORT $LN1@LoadAttack
$LN86@LoadAttack:
  0018e	88 55 ee	 mov	 BYTE PTR _szEncAttack$[ebp+10], dl
  00191	eb 39		 jmp	 SHORT $LN1@LoadAttack
$LN87@LoadAttack:
  00193	c6 45 ed ec	 mov	 BYTE PTR _szEncAttack$[ebp+9], -20 ; ffffffecH
  00197	eb 33		 jmp	 SHORT $LN1@LoadAttack
$LN88@LoadAttack:
  00199	c6 45 ec ed	 mov	 BYTE PTR _szEncAttack$[ebp+8], -19 ; ffffffedH
  0019d	eb 2d		 jmp	 SHORT $LN1@LoadAttack
$LN89@LoadAttack:
  0019f	c6 45 eb ea	 mov	 BYTE PTR _szEncAttack$[ebp+7], -22 ; ffffffeaH
  001a3	eb 27		 jmp	 SHORT $LN1@LoadAttack
$LN90@LoadAttack:
  001a5	88 55 ea	 mov	 BYTE PTR _szEncAttack$[ebp+6], dl
  001a8	eb 22		 jmp	 SHORT $LN1@LoadAttack
$LN91@LoadAttack:
  001aa	c6 45 e9 ec	 mov	 BYTE PTR _szEncAttack$[ebp+5], -20 ; ffffffecH
  001ae	eb 1c		 jmp	 SHORT $LN1@LoadAttack
$LN92@LoadAttack:
  001b0	c6 45 e8 ed	 mov	 BYTE PTR _szEncAttack$[ebp+4], -19 ; ffffffedH
  001b4	eb 16		 jmp	 SHORT $LN1@LoadAttack
$LN93@LoadAttack:
  001b6	c6 45 e7 ea	 mov	 BYTE PTR _szEncAttack$[ebp+3], -22 ; ffffffeaH
  001ba	eb 10		 jmp	 SHORT $LN1@LoadAttack
$LN94@LoadAttack:
  001bc	c6 45 e6 eb	 mov	 BYTE PTR _szEncAttack$[ebp+2], -21 ; ffffffebH
  001c0	eb 0a		 jmp	 SHORT $LN1@LoadAttack
$LN95@LoadAttack:
  001c2	c6 45 e5 ec	 mov	 BYTE PTR _szEncAttack$[ebp+1], -20 ; ffffffecH
  001c6	eb 04		 jmp	 SHORT $LN1@LoadAttack
$LN96@LoadAttack:
  001c8	c6 45 e4 ed	 mov	 BYTE PTR _szEncAttack$[ebp], -19 ; ffffffedH
$LN1@LoadAttack:
  001cc	6a 04		 push	 4
  001ce	8d 45 e4	 lea	 eax, DWORD PTR _szEncAttack$[ebp]
  001d1	c6 45 f4 00	 mov	 BYTE PTR _szEncAttack$[ebp+16], 0
  001d5	59		 pop	 ecx
$LL104@LoadAttack:
  001d6	81 30 ed ec eb
	ea		 xor	 DWORD PTR [eax], -353637139 ; eaebecedH
  001dc	83 c0 04	 add	 eax, 4
  001df	49		 dec	 ecx
  001e0	75 f4		 jne	 SHORT $LL104@LoadAttack

; 133  : 	LoadAttackAttribute(szEncAttack, rkAttribute, rkLoader);

  001e2	57		 push	 edi
  001e3	8d 45 e4	 lea	 eax, DWORD PTR _szEncAttack$[ebp]
  001e6	56		 push	 esi
  001e7	50		 push	 eax
  001e8	e8 00 00 00 00	 call	 ?LoadAttackAttribute@@YAXPBDAAUAttackAttribute@@AAVioINILoader@@@Z ; LoadAttackAttribute

; 134  : }

  001ed	8b 4d fc	 mov	 ecx, DWORD PTR __$ArrayPad$[ebp]
  001f0	83 c4 0c	 add	 esp, 12			; 0000000cH
  001f3	5f		 pop	 edi
  001f4	33 cd		 xor	 ecx, ebp
  001f6	5e		 pop	 esi
  001f7	e8 00 00 00 00	 call	 @__security_check_cookie@4
  001fc	c9		 leave
  001fd	c3		 ret	 0
??$LoadAttackAttribute_e@$0BB@@@YAXAAY0BB@$$CBDAAUAttackAttribute@@AAVioINILoader@@@Z ENDP ; LoadAttackAttribute_e<17>
_TEXT	ENDS
PUBLIC	??$GetAnimationEventTime_e@$0L@@ioEntityGroup@@QAEMHAAY0L@$$CBD@Z ; ioEntityGroup::GetAnimationEventTime_e<11>
EXTRN	__imp_?GetAnimationEventTime@ioEntityGroup@@QAEMHABVioHashString@@@Z:PROC
EXTRN	__imp_??0ioHashString@@QAE@PBD@Z:PROC
EXTRN	__EH_epilog3_GS:PROC
EXTRN	__EH_prolog3_GS:PROC
;	COMDAT xdata$x
; File d:\lost saga for developer\youtube\tutorial\source\src\lsclient\stringprotect.h
xdata$x	SEGMENT
__unwindtable$??$GetAnimationEventTime_e@$0L@@ioEntityGroup@@QAEMHAAY0L@$$CBD@Z DD 0ffffffffH
	DD	FLAT:__unwindfunclet$??$GetAnimationEventTime_e@$0L@@ioEntityGroup@@QAEMHAAY0L@$$CBD@Z$0
__ehfuncinfo$??$GetAnimationEventTime_e@$0L@@ioEntityGroup@@QAEMHAAY0L@$$CBD@Z DD 019930522H
	DD	01H
	DD	FLAT:__unwindtable$??$GetAnimationEventTime_e@$0L@@ioEntityGroup@@QAEMHAAY0L@$$CBD@Z
	DD	2 DUP(00H)
	DD	2 DUP(00H)
	DD	00H
	DD	01H
; Function compile flags: /Ogsp
; File d:\lost saga for developer\youtube\tutorial\source\src\io3dengine\ioentitygroup.h
xdata$x	ENDS
;	COMDAT ??$GetAnimationEventTime_e@$0L@@ioEntityGroup@@QAEMHAAY0L@$$CBD@Z
_TEXT	SEGMENT
$T527494 = -52						; size = 16
$T527493 = -36						; size = 4
_szEncEventType$ = -32					; size = 11
__$EHRec$ = -12						; size = 12
_id$ = 8						; size = 4
_szEventType$ = 12					; size = 4
??$GetAnimationEventTime_e@$0L@@ioEntityGroup@@QAEMHAAY0L@$$CBD@Z PROC ; ioEntityGroup::GetAnimationEventTime_e<11>, COMDAT
; _this$ = ecx

; 414  : 	{

  00000	6a 28		 push	 40			; 00000028H
  00002	b8 00 00 00 00	 mov	 eax, __ehhandler$??$GetAnimationEventTime_e@$0L@@ioEntityGroup@@QAEMHAAY0L@$$CBD@Z
  00007	e8 00 00 00 00	 call	 __EH_prolog3_GS
  0000c	8b 45 0c	 mov	 eax, DWORD PTR _szEventType$[ebp]
  0000f	8b f1		 mov	 esi, ecx

; 415  : 		_ENCSTR(szEventType, szEncEventType);

  00011	8a 08		 mov	 cl, BYTE PTR [eax]
  00013	84 c9		 test	 cl, cl
  00015	0f 84 1b 01 00
	00		 je	 $LN96@GetAnimati
  0001b	b2 ed		 mov	 dl, -19			; ffffffedH
  0001d	32 ca		 xor	 cl, dl
  0001f	88 4d e0	 mov	 BYTE PTR _szEncEventType$[ebp], cl
  00022	8a 48 01	 mov	 cl, BYTE PTR [eax+1]
  00025	84 c9		 test	 cl, cl
  00027	0f 84 03 01 00
	00		 je	 $LN95@GetAnimati
  0002d	80 f1 ec	 xor	 cl, -20			; ffffffecH
  00030	88 4d e1	 mov	 BYTE PTR _szEncEventType$[ebp+1], cl
  00033	8a 48 02	 mov	 cl, BYTE PTR [eax+2]
  00036	84 c9		 test	 cl, cl
  00038	0f 84 ec 00 00
	00		 je	 $LN94@GetAnimati
  0003e	80 f1 eb	 xor	 cl, -21			; ffffffebH
  00041	88 4d e2	 mov	 BYTE PTR _szEncEventType$[ebp+2], cl
  00044	8a 48 03	 mov	 cl, BYTE PTR [eax+3]
  00047	84 c9		 test	 cl, cl
  00049	0f 84 d5 00 00
	00		 je	 $LN93@GetAnimati
  0004f	80 f1 ea	 xor	 cl, -22			; ffffffeaH
  00052	88 4d e3	 mov	 BYTE PTR _szEncEventType$[ebp+3], cl
  00055	8a 48 04	 mov	 cl, BYTE PTR [eax+4]
  00058	84 c9		 test	 cl, cl
  0005a	0f 84 bf 00 00
	00		 je	 $LN92@GetAnimati
  00060	32 ca		 xor	 cl, dl
  00062	88 4d e4	 mov	 BYTE PTR _szEncEventType$[ebp+4], cl
  00065	8a 48 05	 mov	 cl, BYTE PTR [eax+5]
  00068	84 c9		 test	 cl, cl
  0006a	0f 84 a9 00 00
	00		 je	 $LN91@GetAnimati
  00070	80 f1 ec	 xor	 cl, -20			; ffffffecH
  00073	88 4d e5	 mov	 BYTE PTR _szEncEventType$[ebp+5], cl
  00076	8a 48 06	 mov	 cl, BYTE PTR [eax+6]
  00079	84 c9		 test	 cl, cl
  0007b	0f 84 92 00 00
	00		 je	 $LN90@GetAnimati
  00081	80 f1 eb	 xor	 cl, -21			; ffffffebH
  00084	88 4d e6	 mov	 BYTE PTR _szEncEventType$[ebp+6], cl
  00087	8a 48 07	 mov	 cl, BYTE PTR [eax+7]
  0008a	84 c9		 test	 cl, cl
  0008c	74 7f		 je	 SHORT $LN89@GetAnimati
  0008e	80 f1 ea	 xor	 cl, -22			; ffffffeaH
  00091	88 4d e7	 mov	 BYTE PTR _szEncEventType$[ebp+7], cl
  00094	8a 48 08	 mov	 cl, BYTE PTR [eax+8]
  00097	84 c9		 test	 cl, cl
  00099	74 6d		 je	 SHORT $LN88@GetAnimati
  0009b	32 ca		 xor	 cl, dl
  0009d	88 4d e8	 mov	 BYTE PTR _szEncEventType$[ebp+8], cl
  000a0	8a 48 09	 mov	 cl, BYTE PTR [eax+9]
  000a3	84 c9		 test	 cl, cl
  000a5	74 5b		 je	 SHORT $LN87@GetAnimati
  000a7	80 f1 ec	 xor	 cl, -20			; ffffffecH
  000aa	80 78 0a 00	 cmp	 BYTE PTR [eax+10], 0
  000ae	88 4d e9	 mov	 BYTE PTR _szEncEventType$[ebp+9], cl
  000b1	0f 84 83 00 00
	00		 je	 $LN1@GetAnimati
  000b7	8a 48 0b	 mov	 cl, BYTE PTR [eax+11]
  000ba	84 c9		 test	 cl, cl
  000bc	74 3e		 je	 SHORT $LN85@GetAnimati
  000be	80 f1 ea	 xor	 cl, -22			; ffffffeaH
  000c1	88 4d eb	 mov	 BYTE PTR _szEncEventType$[ebp+11], cl
  000c4	8a 48 0c	 mov	 cl, BYTE PTR [eax+12]
  000c7	84 c9		 test	 cl, cl
  000c9	74 2c		 je	 SHORT $LN84@GetAnimati
  000cb	32 ca		 xor	 cl, dl
  000cd	88 4d ec	 mov	 BYTE PTR _szEncEventType$[ebp+12], cl
  000d0	8a 48 0d	 mov	 cl, BYTE PTR [eax+13]
  000d3	84 c9		 test	 cl, cl
  000d5	74 1a		 je	 SHORT $LN83@GetAnimati
  000d7	8a 40 0e	 mov	 al, BYTE PTR [eax+14]
  000da	80 f1 ec	 xor	 cl, -20			; ffffffecH
  000dd	88 4d ed	 mov	 BYTE PTR _szEncEventType$[ebp+13], cl
  000e0	84 c0		 test	 al, al
  000e2	74 07		 je	 SHORT $LN82@GetAnimati
  000e4	34 eb		 xor	 al, -21			; ffffffebH
  000e6	88 45 ee	 mov	 BYTE PTR _szEncEventType$[ebp+14], al
  000e9	eb 4f		 jmp	 SHORT $LN1@GetAnimati
$LN82@GetAnimati:
  000eb	c6 45 ee eb	 mov	 BYTE PTR _szEncEventType$[ebp+14], -21 ; ffffffebH
  000ef	eb 49		 jmp	 SHORT $LN1@GetAnimati
$LN83@GetAnimati:
  000f1	c6 45 ed ec	 mov	 BYTE PTR _szEncEventType$[ebp+13], -20 ; ffffffecH
  000f5	eb 43		 jmp	 SHORT $LN1@GetAnimati
$LN84@GetAnimati:
  000f7	88 55 ec	 mov	 BYTE PTR _szEncEventType$[ebp+12], dl
  000fa	eb 3e		 jmp	 SHORT $LN1@GetAnimati
$LN85@GetAnimati:
  000fc	c6 45 eb ea	 mov	 BYTE PTR _szEncEventType$[ebp+11], -22 ; ffffffeaH
  00100	eb 38		 jmp	 SHORT $LN1@GetAnimati
$LN87@GetAnimati:
  00102	c6 45 e9 ec	 mov	 BYTE PTR _szEncEventType$[ebp+9], -20 ; ffffffecH
  00106	eb 32		 jmp	 SHORT $LN1@GetAnimati
$LN88@GetAnimati:
  00108	88 55 e8	 mov	 BYTE PTR _szEncEventType$[ebp+8], dl
  0010b	eb 2d		 jmp	 SHORT $LN1@GetAnimati
$LN89@GetAnimati:
  0010d	c6 45 e7 ea	 mov	 BYTE PTR _szEncEventType$[ebp+7], -22 ; ffffffeaH
  00111	eb 27		 jmp	 SHORT $LN1@GetAnimati
$LN90@GetAnimati:
  00113	c6 45 e6 eb	 mov	 BYTE PTR _szEncEventType$[ebp+6], -21 ; ffffffebH
  00117	eb 21		 jmp	 SHORT $LN1@GetAnimati
$LN91@GetAnimati:
  00119	c6 45 e5 ec	 mov	 BYTE PTR _szEncEventType$[ebp+5], -20 ; ffffffecH
  0011d	eb 1b		 jmp	 SHORT $LN1@GetAnimati
$LN92@GetAnimati:
  0011f	88 55 e4	 mov	 BYTE PTR _szEncEventType$[ebp+4], dl
  00122	eb 16		 jmp	 SHORT $LN1@GetAnimati
$LN93@GetAnimati:
  00124	c6 45 e3 ea	 mov	 BYTE PTR _szEncEventType$[ebp+3], -22 ; ffffffeaH
  00128	eb 10		 jmp	 SHORT $LN1@GetAnimati
$LN94@GetAnimati:
  0012a	c6 45 e2 eb	 mov	 BYTE PTR _szEncEventType$[ebp+2], -21 ; ffffffebH
  0012e	eb 0a		 jmp	 SHORT $LN1@GetAnimati
$LN95@GetAnimati:
  00130	c6 45 e1 ec	 mov	 BYTE PTR _szEncEventType$[ebp+1], -20 ; ffffffecH
  00134	eb 04		 jmp	 SHORT $LN1@GetAnimati
$LN96@GetAnimati:
  00136	c6 45 e0 ed	 mov	 BYTE PTR _szEncEventType$[ebp], -19 ; ffffffedH
$LN1@GetAnimati:
  0013a	6a 02		 push	 2
  0013c	8d 45 e0	 lea	 eax, DWORD PTR _szEncEventType$[ebp]
  0013f	c6 45 ea 00	 mov	 BYTE PTR _szEncEventType$[ebp+10], 0
  00143	59		 pop	 ecx
$LL105@GetAnimati:
  00144	81 30 ed ec eb
	ea		 xor	 DWORD PTR [eax], -353637139 ; eaebecedH
  0014a	83 c0 04	 add	 eax, 4
  0014d	49		 dec	 ecx
  0014e	75 f4		 jne	 SHORT $LL105@GetAnimati
  00150	6a 08		 push	 8
  00152	58		 pop	 eax
$LL102@GetAnimati:
  00153	8b c8		 mov	 ecx, eax
  00155	81 e1 03 00 00
	80		 and	 ecx, -2147483645	; 80000003H
  0015b	79 05		 jns	 SHORT $LN113@GetAnimati
  0015d	49		 dec	 ecx
  0015e	83 c9 fc	 or	 ecx, -4			; fffffffcH
  00161	41		 inc	 ecx
$LN113@GetAnimati:
  00162	b2 ed		 mov	 dl, -19			; ffffffedH
  00164	2a d1		 sub	 dl, cl
  00166	30 54 05 e0	 xor	 BYTE PTR _szEncEventType$[ebp+eax], dl
  0016a	40		 inc	 eax
  0016b	83 f8 0a	 cmp	 eax, 10			; 0000000aH
  0016e	7c e3		 jl	 SHORT $LL102@GetAnimati

; 416  : 		return GetAnimationEventTime(id, szEncEventType);

  00170	8d 45 e0	 lea	 eax, DWORD PTR _szEncEventType$[ebp]
  00173	50		 push	 eax
  00174	8d 4d cc	 lea	 ecx, DWORD PTR $T527494[ebp]
  00177	ff 15 00 00 00
	00		 call	 DWORD PTR __imp_??0ioHashString@@QAE@PBD@Z
  0017d	83 65 fc 00	 and	 DWORD PTR __$EHRec$[ebp+8], 0
  00181	8d 45 cc	 lea	 eax, DWORD PTR $T527494[ebp]
  00184	50		 push	 eax
  00185	ff 75 08	 push	 DWORD PTR _id$[ebp]
  00188	8b ce		 mov	 ecx, esi
  0018a	ff 15 00 00 00
	00		 call	 DWORD PTR __imp_?GetAnimationEventTime@ioEntityGroup@@QAEMHABVioHashString@@@Z
  00190	d9 5d dc	 fstp	 DWORD PTR $T527493[ebp]
  00193	83 4d fc ff	 or	 DWORD PTR __$EHRec$[ebp+8], -1
  00197	8d 4d cc	 lea	 ecx, DWORD PTR $T527494[ebp]
  0019a	ff 15 00 00 00
	00		 call	 DWORD PTR __imp_??1ioHashString@@QAE@XZ
  001a0	d9 45 dc	 fld	 DWORD PTR $T527493[ebp]

; 417  : 	}

  001a3	e8 00 00 00 00	 call	 __EH_epilog3_GS
  001a8	c2 08 00	 ret	 8
_TEXT	ENDS
;	COMDAT text$x
text$x	SEGMENT
__unwindfunclet$??$GetAnimationEventTime_e@$0L@@ioEntityGroup@@QAEMHAAY0L@$$CBD@Z$0:
  00000	8d 4d cc	 lea	 ecx, DWORD PTR $T527494[ebp]
  00003	ff 25 00 00 00
	00		 jmp	 DWORD PTR __imp_??1ioHashString@@QAE@XZ
__ehhandler$??$GetAnimationEventTime_e@$0L@@ioEntityGroup@@QAEMHAAY0L@$$CBD@Z:
  00009	8b 54 24 08	 mov	 edx, DWORD PTR [esp+8]
  0000d	8d 42 0c	 lea	 eax, DWORD PTR [edx+12]
  00010	8b 4a c8	 mov	 ecx, DWORD PTR [edx-56]
  00013	33 c8		 xor	 ecx, eax
  00015	e8 00 00 00 00	 call	 @__security_check_cookie@4
  0001a	8b 4a fc	 mov	 ecx, DWORD PTR [edx-4]
  0001d	33 c8		 xor	 ecx, eax
  0001f	e8 00 00 00 00	 call	 @__security_check_cookie@4
  00024	b8 00 00 00 00	 mov	 eax, OFFSET __ehfuncinfo$??$GetAnimationEventTime_e@$0L@@ioEntityGroup@@QAEMHAAY0L@$$CBD@Z
  00029	e9 00 00 00 00	 jmp	 ___CxxFrameHandler3
text$x	ENDS
??$GetAnimationEventTime_e@$0L@@ioEntityGroup@@QAEMHAAY0L@$$CBD@Z ENDP ; ioEntityGroup::GetAnimationEventTime_e<11>
PUBLIC	__real@3fd2ee0d320154cb
PUBLIC	__real@41f0000000000000
PUBLIC	??$RADtoDEG@M@@YAMM@Z				; RADtoDEG<float>
;	COMDAT __real@3fd2ee0d320154cb
; File d:\lost saga for developer\youtube\tutorial\source\src\lsclient\veryoftenusedefine.h
CONST	SEGMENT
__real@3fd2ee0d320154cb DQ 03fd2ee0d320154cbr	; 0.29578
CONST	ENDS
;	COMDAT __real@41f0000000000000
CONST	SEGMENT
__real@41f0000000000000 DQ 041f0000000000000r	; 4.29497e+009
; Function compile flags: /Ogsp
CONST	ENDS
;	COMDAT ??$RADtoDEG@M@@YAMM@Z
_TEXT	SEGMENT
tv130 = -4						; size = 4
tv75 = 8						; size = 4
_val$ = 8						; size = 4
??$RADtoDEG@M@@YAMM@Z PROC				; RADtoDEG<float>, COMDAT

; 18   : type  RADtoDEG (type val) {return (type) (val * (return57() + 0.2957795132)); }

  00000	55		 push	 ebp
  00001	8b ec		 mov	 ebp, esp
  00003	51		 push	 ecx
  00004	b8 39 00 00 00	 mov	 eax, 57			; 00000039H
  00009	89 45 fc	 mov	 DWORD PTR tv130[ebp], eax
  0000c	db 45 fc	 fild	 DWORD PTR tv130[ebp]
  0000f	85 c0		 test	 eax, eax
  00011	79 06		 jns	 SHORT $LN5@RADtoDEG
  00013	dc 05 00 00 00
	00		 fadd	 QWORD PTR __real@41f0000000000000
$LN5@RADtoDEG:
  00019	dc 05 00 00 00
	00		 fadd	 QWORD PTR __real@3fd2ee0d320154cb
  0001f	d8 4d 08	 fmul	 DWORD PTR _val$[ebp]
  00022	d9 5d 08	 fstp	 DWORD PTR tv75[ebp]
  00025	d9 45 08	 fld	 DWORD PTR tv75[ebp]
  00028	c9		 leave
  00029	c3		 ret	 0
??$RADtoDEG@M@@YAMM@Z ENDP				; RADtoDEG<float>
_TEXT	ENDS
PUBLIC	??$_Cons_val@V?$allocator@VioHashString@@@std@@VioHashString@@V3@@std@@YAXAAV?$allocator@VioHashString@@@0@PAVioHashString@@$$QAV2@@Z ; std::_Cons_val<std::allocator<ioHashString>,ioHashString,ioHashString>
; Function compile flags: /Ogsp
; File c:\program files (x86)\microsoft visual studio 10.0\vc\include\xmemory
;	COMDAT ??$_Cons_val@V?$allocator@VioHashString@@@std@@VioHashString@@V3@@std@@YAXAAV?$allocator@VioHashString@@@0@PAVioHashString@@$$QAV2@@Z
_TEXT	SEGMENT
__Alval$ = 8						; size = 4
__Pdest$ = 12						; size = 4
__Src$ = 16						; size = 4
??$_Cons_val@V?$allocator@VioHashString@@@std@@VioHashString@@V3@@std@@YAXAAV?$allocator@VioHashString@@@0@PAVioHashString@@$$QAV2@@Z PROC ; std::_Cons_val<std::allocator<ioHashString>,ioHashString,ioHashString>, COMDAT

; 279  : 	{	// construct using allocator

  00000	55		 push	 ebp
  00001	8b ec		 mov	 ebp, esp

; 280  : 	_Alval.construct(_Pdest, _STD forward<_Ty2>(_Src));

  00003	ff 75 10	 push	 DWORD PTR __Src$[ebp]
  00006	8b 4d 08	 mov	 ecx, DWORD PTR __Alval$[ebp]
  00009	ff 75 0c	 push	 DWORD PTR __Pdest$[ebp]
  0000c	e8 00 00 00 00	 call	 ?construct@?$allocator@VioHashString@@@std@@QAEXPAVioHashString@@$$QAV3@@Z ; std::allocator<ioHashString>::construct

; 281  : 	}

  00011	5d		 pop	 ebp
  00012	c3		 ret	 0
??$_Cons_val@V?$allocator@VioHashString@@@std@@VioHashString@@V3@@std@@YAXAAV?$allocator@VioHashString@@@0@PAVioHashString@@$$QAV2@@Z ENDP ; std::_Cons_val<std::allocator<ioHashString>,ioHashString,ioHashString>
_TEXT	ENDS
PUBLIC	?construct@?$allocator@UForceInfo@@@std@@QAEXPAUForceInfo@@ABU3@@Z ; std::allocator<ForceInfo>::construct
; Function compile flags: /Ogsp
;	COMDAT ?construct@?$allocator@UForceInfo@@@std@@QAEXPAUForceInfo@@ABU3@@Z
_TEXT	SEGMENT
__Ptr$ = 8						; size = 4
__Val$ = 12						; size = 4
?construct@?$allocator@UForceInfo@@@std@@QAEXPAUForceInfo@@ABU3@@Z PROC ; std::allocator<ForceInfo>::construct, COMDAT
; _this$ = ecx

; 196  : 		{	// construct object at _Ptr with value _Val

  00000	55		 push	 ebp
  00001	8b ec		 mov	 ebp, esp
  00003	57		 push	 edi

; 197  : 		_Construct(_Ptr, _Val);

  00004	8b 7d 08	 mov	 edi, DWORD PTR __Ptr$[ebp]
  00007	85 ff		 test	 edi, edi
  00009	74 08		 je	 SHORT $LN5@construct@2
  0000b	56		 push	 esi
  0000c	8b 75 0c	 mov	 esi, DWORD PTR __Val$[ebp]
  0000f	a5		 movsd
  00010	a5		 movsd
  00011	a5		 movsd
  00012	5e		 pop	 esi
$LN5@construct@2:
  00013	5f		 pop	 edi

; 198  : 		}

  00014	5d		 pop	 ebp
  00015	c2 08 00	 ret	 8
?construct@?$allocator@UForceInfo@@@std@@QAEXPAUForceInfo@@ABU3@@Z ENDP ; std::allocator<ForceInfo>::construct
_TEXT	ENDS
PUBLIC	??$_Construct@UWeaponInfo@@ABU1@@std@@YAXPAUWeaponInfo@@ABU1@@Z ; std::_Construct<WeaponInfo,WeaponInfo const &>
;	COMDAT xdata$x
; File c:\program files (x86)\microsoft visual studio 10.0\vc\include\utility
xdata$x	SEGMENT
__unwindtable$??$_Construct@UWeaponInfo@@ABU1@@std@@YAXPAUWeaponInfo@@ABU1@@Z DD 0ffffffffH
	DD	FLAT:__unwindfunclet$??$_Construct@UWeaponInfo@@ABU1@@std@@YAXPAUWeaponInfo@@ABU1@@Z$0
__ehfuncinfo$??$_Construct@UWeaponInfo@@ABU1@@std@@YAXPAUWeaponInfo@@ABU1@@Z DD 019930522H
	DD	01H
	DD	FLAT:__unwindtable$??$_Construct@UWeaponInfo@@ABU1@@std@@YAXPAUWeaponInfo@@ABU1@@Z
	DD	2 DUP(00H)
	DD	2 DUP(00H)
	DD	00H
	DD	01H
; Function compile flags: /Ogsp
; File c:\program files (x86)\microsoft visual studio 10.0\vc\include\xmemory
xdata$x	ENDS
;	COMDAT ??$_Construct@UWeaponInfo@@ABU1@@std@@YAXPAUWeaponInfo@@ABU1@@Z
_TEXT	SEGMENT
$T527566 = -16						; size = 4
__$EHRec$ = -12						; size = 12
__Vptr$ = 8						; size = 4
__Ptr$ = 8						; size = 4
__Val$ = 12						; size = 4
??$_Construct@UWeaponInfo@@ABU1@@std@@YAXPAUWeaponInfo@@ABU1@@Z PROC ; std::_Construct<WeaponInfo,WeaponInfo const &>, COMDAT

; 46   : 	{	// construct object at _Ptr with value _Val

  00000	6a 04		 push	 4
  00002	b8 00 00 00 00	 mov	 eax, __ehhandler$??$_Construct@UWeaponInfo@@ABU1@@std@@YAXPAUWeaponInfo@@ABU1@@Z
  00007	e8 00 00 00 00	 call	 __EH_prolog3

; 47   : 	void _FARQ *_Vptr = _Ptr;

  0000c	8b 4d 08	 mov	 ecx, DWORD PTR __Ptr$[ebp]
  0000f	89 4d 08	 mov	 DWORD PTR __Vptr$[ebp], ecx

; 48   : 	::new (_Vptr) _Ty1(_STD forward<_Ty2>(_Val));

  00012	89 4d f0	 mov	 DWORD PTR $T527566[ebp], ecx
  00015	83 65 fc 00	 and	 DWORD PTR __$EHRec$[ebp+8], 0
  00019	85 c9		 test	 ecx, ecx
  0001b	74 08		 je	 SHORT $LN3@Construct@3
  0001d	ff 75 0c	 push	 DWORD PTR __Val$[ebp]
  00020	e8 00 00 00 00	 call	 ??0WeaponInfo@@QAE@ABU0@@Z
$LN3@Construct@3:

; 49   : 	}

  00025	e8 00 00 00 00	 call	 __EH_epilog3
  0002a	c3		 ret	 0
_TEXT	ENDS
;	COMDAT text$x
text$x	SEGMENT
__unwindfunclet$??$_Construct@UWeaponInfo@@ABU1@@std@@YAXPAUWeaponInfo@@ABU1@@Z$0:
  00000	ff 75 08	 push	 DWORD PTR __Vptr$[ebp]
  00003	ff 75 f0	 push	 DWORD PTR $T527566[ebp]
  00006	e8 00 00 00 00	 call	 ??3@YAXPAX0@Z		; operator delete
  0000b	59		 pop	 ecx
  0000c	59		 pop	 ecx
  0000d	c3		 ret	 0
__ehhandler$??$_Construct@UWeaponInfo@@ABU1@@std@@YAXPAUWeaponInfo@@ABU1@@Z:
  0000e	8b 54 24 08	 mov	 edx, DWORD PTR [esp+8]
  00012	8d 42 0c	 lea	 eax, DWORD PTR [edx+12]
  00015	8b 4a ec	 mov	 ecx, DWORD PTR [edx-20]
  00018	33 c8		 xor	 ecx, eax
  0001a	e8 00 00 00 00	 call	 @__security_check_cookie@4
  0001f	b8 00 00 00 00	 mov	 eax, OFFSET __ehfuncinfo$??$_Construct@UWeaponInfo@@ABU1@@std@@YAXPAUWeaponInfo@@ABU1@@Z
  00024	e9 00 00 00 00	 jmp	 ___CxxFrameHandler3
text$x	ENDS
??$_Construct@UWeaponInfo@@ABU1@@std@@YAXPAUWeaponInfo@@ABU1@@Z ENDP ; std::_Construct<WeaponInfo,WeaponInfo const &>
PUBLIC	??4?$CEncrypt@M@@QAEMM@Z			; CEncrypt<float>::operator=
; Function compile flags: /Ogsp
; File d:\lost saga for developer\youtube\tutorial\source\src\lsclient\encryptvalue.h
;	COMDAT ??4?$CEncrypt@M@@QAEMM@Z
_TEXT	SEGMENT
_value$ = 8						; size = 4
_inValue$ = 8						; size = 4
??4?$CEncrypt@M@@QAEMM@Z PROC				; CEncrypt<float>::operator=, COMDAT
; _this$ = ecx

; 1654 : 	{	

  00000	55		 push	 ebp
  00001	8b ec		 mov	 ebp, esp

; 1655 : 		type value = inValue;

  00003	d9 45 08	 fld	 DWORD PTR _inValue$[ebp]

; 1656 : 		EncryptValueToPool((char*)&value);

  00006	8d 45 08	 lea	 eax, DWORD PTR _value$[ebp]
  00009	50		 push	 eax
  0000a	d9 5d 08	 fstp	 DWORD PTR _value$[ebp]
  0000d	e8 00 00 00 00	 call	 ?EncryptValueToPool@?$CEncrypt@M@@AAEXPBD@Z ; CEncrypt<float>::EncryptValueToPool

; 1657 : #ifdef _NOTUSE
; 1658 : 		m_value = inValue;
; 1659 : 		Debug();
; 1660 : #endif
; 1661 : 		return value;

  00012	d9 45 08	 fld	 DWORD PTR _value$[ebp]

; 1662 : 	}

  00015	5d		 pop	 ebp
  00016	c2 04 00	 ret	 4
??4?$CEncrypt@M@@QAEMM@Z ENDP				; CEncrypt<float>::operator=
_TEXT	ENDS
PUBLIC	??B?$CEncrypt@_N@@QBE_NXZ			; CEncrypt<bool>::operator bool
; Function compile flags: /Ogsp
;	COMDAT ??B?$CEncrypt@_N@@QBE_NXZ
_TEXT	SEGMENT
_value$ = -1						; size = 1
??B?$CEncrypt@_N@@QBE_NXZ PROC				; CEncrypt<bool>::operator bool, COMDAT
; _this$ = ecx

; 145  : 	{

  00000	55		 push	 ebp
  00001	8b ec		 mov	 ebp, esp
  00003	51		 push	 ecx

; 146  : 		//UJ 130829, const    --start
; 147  : 		type value;
; 148  : 		CEncrypt<type>* pThis = const_cast<CEncrypt<type>*>(this);
; 149  : 		pThis->DecryptValueToPool(&value);

  00004	8d 45 ff	 lea	 eax, DWORD PTR _value$[ebp]
  00007	50		 push	 eax
  00008	e8 00 00 00 00	 call	 ?DecryptValueToPool@?$CEncrypt@_N@@QAEXPA_N@Z ; CEncrypt<bool>::DecryptValueToPool

; 150  : 		//// const DecryptValueToPool     .
; 151  :  		//type value;
; 152  : 		//char szTempMem[MAX_ENCRYPT];
; 153  : 		//m_RC5.DecryptByte( m_MemPool, szTempMem, max(m_ValueSize, DEFAULT_ENCRYPT) );
; 154  : 		//memcpy( &value, szTempMem, m_ValueSize );
; 155  : 		//UJ --end
; 156  : 
; 157  : #ifdef _NOTUSE
; 158  : 		Debug();
; 159  : #endif
; 160  : 		return value;

  0000d	8a 45 ff	 mov	 al, BYTE PTR _value$[ebp]

; 161  : 	}

  00010	c9		 leave
  00011	c3		 ret	 0
??B?$CEncrypt@_N@@QBE_NXZ ENDP				; CEncrypt<bool>::operator bool
_TEXT	ENDS
PUBLIC	?begin@?$vector@VioHashString@@V?$allocator@VioHashString@@@std@@@std@@QAE?AV?$_Vector_iterator@V?$_Vector_val@VioHashString@@V?$allocator@VioHashString@@@std@@@std@@@2@XZ ; std::vector<ioHashString,std::allocator<ioHashString> >::begin
; Function compile flags: /Ogsp
; File c:\program files (x86)\microsoft visual studio 10.0\vc\include\vector
;	COMDAT ?begin@?$vector@VioHashString@@V?$allocator@VioHashString@@@std@@@std@@QAE?AV?$_Vector_iterator@V?$_Vector_val@VioHashString@@V?$allocator@VioHashString@@@std@@@std@@@2@XZ
_TEXT	SEGMENT
___$ReturnUdt$ = 8					; size = 4
?begin@?$vector@VioHashString@@V?$allocator@VioHashString@@@std@@@std@@QAE?AV?$_Vector_iterator@V?$_Vector_val@VioHashString@@V?$allocator@VioHashString@@@std@@@std@@@2@XZ PROC ; std::vector<ioHashString,std::allocator<ioHashString> >::begin, COMDAT
; _this$ = ecx

; 781  : 		{	// return iterator for beginning of mutable sequence

  00000	55		 push	 ebp
  00001	8b ec		 mov	 ebp, esp

; 782  : 		return (iterator(this->_Myfirst, this));

  00003	8b 09		 mov	 ecx, DWORD PTR [ecx]
  00005	8b 45 08	 mov	 eax, DWORD PTR ___$ReturnUdt$[ebp]
  00008	89 08		 mov	 DWORD PTR [eax], ecx

; 783  : 		}

  0000a	5d		 pop	 ebp
  0000b	c2 04 00	 ret	 4
?begin@?$vector@VioHashString@@V?$allocator@VioHashString@@@std@@@std@@QAE?AV?$_Vector_iterator@V?$_Vector_val@VioHashString@@V?$allocator@VioHashString@@@std@@@std@@@2@XZ ENDP ; std::vector<ioHashString,std::allocator<ioHashString> >::begin
_TEXT	ENDS
PUBLIC	?begin@?$vector@VioHashString@@V?$allocator@VioHashString@@@std@@@std@@QBE?AV?$_Vector_const_iterator@V?$_Vector_val@VioHashString@@V?$allocator@VioHashString@@@std@@@std@@@2@XZ ; std::vector<ioHashString,std::allocator<ioHashString> >::begin
; Function compile flags: /Ogsp
;	COMDAT ?begin@?$vector@VioHashString@@V?$allocator@VioHashString@@@std@@@std@@QBE?AV?$_Vector_const_iterator@V?$_Vector_val@VioHashString@@V?$allocator@VioHashString@@@std@@@std@@@2@XZ
_TEXT	SEGMENT
___$ReturnUdt$ = 8					; size = 4
?begin@?$vector@VioHashString@@V?$allocator@VioHashString@@@std@@@std@@QBE?AV?$_Vector_const_iterator@V?$_Vector_val@VioHashString@@V?$allocator@VioHashString@@@std@@@std@@@2@XZ PROC ; std::vector<ioHashString,std::allocator<ioHashString> >::begin, COMDAT
; _this$ = ecx

; 786  : 		{	// return iterator for beginning of nonmutable sequence

  00000	55		 push	 ebp
  00001	8b ec		 mov	 ebp, esp

; 787  : 		return (const_iterator(this->_Myfirst, this));

  00003	8b 09		 mov	 ecx, DWORD PTR [ecx]
  00005	8b 45 08	 mov	 eax, DWORD PTR ___$ReturnUdt$[ebp]
  00008	89 08		 mov	 DWORD PTR [eax], ecx

; 788  : 		}

  0000a	5d		 pop	 ebp
  0000b	c2 04 00	 ret	 4
?begin@?$vector@VioHashString@@V?$allocator@VioHashString@@@std@@@std@@QBE?AV?$_Vector_const_iterator@V?$_Vector_val@VioHashString@@V?$allocator@VioHashString@@@std@@@std@@@2@XZ ENDP ; std::vector<ioHashString,std::allocator<ioHashString> >::begin
_TEXT	ENDS
PUBLIC	?end@?$vector@VioHashString@@V?$allocator@VioHashString@@@std@@@std@@QAE?AV?$_Vector_iterator@V?$_Vector_val@VioHashString@@V?$allocator@VioHashString@@@std@@@std@@@2@XZ ; std::vector<ioHashString,std::allocator<ioHashString> >::end
; Function compile flags: /Ogsp
;	COMDAT ?end@?$vector@VioHashString@@V?$allocator@VioHashString@@@std@@@std@@QAE?AV?$_Vector_iterator@V?$_Vector_val@VioHashString@@V?$allocator@VioHashString@@@std@@@std@@@2@XZ
_TEXT	SEGMENT
___$ReturnUdt$ = 8					; size = 4
?end@?$vector@VioHashString@@V?$allocator@VioHashString@@@std@@@std@@QAE?AV?$_Vector_iterator@V?$_Vector_val@VioHashString@@V?$allocator@VioHashString@@@std@@@std@@@2@XZ PROC ; std::vector<ioHashString,std::allocator<ioHashString> >::end, COMDAT
; _this$ = ecx

; 791  : 		{	// return iterator for end of mutable sequence

  00000	55		 push	 ebp
  00001	8b ec		 mov	 ebp, esp

; 792  : 		return (iterator(this->_Mylast, this));

  00003	8b 49 04	 mov	 ecx, DWORD PTR [ecx+4]
  00006	8b 45 08	 mov	 eax, DWORD PTR ___$ReturnUdt$[ebp]
  00009	89 08		 mov	 DWORD PTR [eax], ecx

; 793  : 		}

  0000b	5d		 pop	 ebp
  0000c	c2 04 00	 ret	 4
?end@?$vector@VioHashString@@V?$allocator@VioHashString@@@std@@@std@@QAE?AV?$_Vector_iterator@V?$_Vector_val@VioHashString@@V?$allocator@VioHashString@@@std@@@std@@@2@XZ ENDP ; std::vector<ioHashString,std::allocator<ioHashString> >::end
_TEXT	ENDS
PUBLIC	?end@?$vector@VioHashString@@V?$allocator@VioHashString@@@std@@@std@@QBE?AV?$_Vector_const_iterator@V?$_Vector_val@VioHashString@@V?$allocator@VioHashString@@@std@@@std@@@2@XZ ; std::vector<ioHashString,std::allocator<ioHashString> >::end
; Function compile flags: /Ogsp
;	COMDAT ?end@?$vector@VioHashString@@V?$allocator@VioHashString@@@std@@@std@@QBE?AV?$_Vector_const_iterator@V?$_Vector_val@VioHashString@@V?$allocator@VioHashString@@@std@@@std@@@2@XZ
_TEXT	SEGMENT
___$ReturnUdt$ = 8					; size = 4
?end@?$vector@VioHashString@@V?$allocator@VioHashString@@@std@@@std@@QBE?AV?$_Vector_const_iterator@V?$_Vector_val@VioHashString@@V?$allocator@VioHashString@@@std@@@std@@@2@XZ PROC ; std::vector<ioHashString,std::allocator<ioHashString> >::end, COMDAT
; _this$ = ecx

; 796  : 		{	// return iterator for end of nonmutable sequence

  00000	55		 push	 ebp
  00001	8b ec		 mov	 ebp, esp

; 797  : 		return (const_iterator(this->_Mylast, this));

  00003	8b 49 04	 mov	 ecx, DWORD PTR [ecx+4]
  00006	8b 45 08	 mov	 eax, DWORD PTR ___$ReturnUdt$[ebp]
  00009	89 08		 mov	 DWORD PTR [eax], ecx

; 798  : 		}

  0000b	5d		 pop	 ebp
  0000c	c2 04 00	 ret	 4
?end@?$vector@VioHashString@@V?$allocator@VioHashString@@@std@@@std@@QBE?AV?$_Vector_const_iterator@V?$_Vector_val@VioHashString@@V?$allocator@VioHashString@@@std@@@std@@@2@XZ ENDP ; std::vector<ioHashString,std::allocator<ioHashString> >::end
_TEXT	ENDS
PUBLIC	??0?$_Vector_val@VioHashString@@V?$allocator@VioHashString@@@std@@@std@@QAE@V?$allocator@VioHashString@@@1@@Z ; std::_Vector_val<ioHashString,std::allocator<ioHashString> >::_Vector_val<ioHashString,std::allocator<ioHashString> >
; Function compile flags: /Ogsp
;	COMDAT ??0?$_Vector_val@VioHashString@@V?$allocator@VioHashString@@@std@@@std@@QAE@V?$allocator@VioHashString@@@1@@Z
_TEXT	SEGMENT
__Al$ = 8						; size = 1
??0?$_Vector_val@VioHashString@@V?$allocator@VioHashString@@@std@@@std@@QAE@V?$allocator@VioHashString@@@1@@Z PROC ; std::_Vector_val<ioHashString,std::allocator<ioHashString> >::_Vector_val<ioHashString,std::allocator<ioHashString> >, COMDAT
; _this$ = ecx

; 426  : 		{	// construct allocator from _Al

  00000	8b c1		 mov	 eax, ecx

; 427  : 		_Myfirst = 0;

  00002	33 c9		 xor	 ecx, ecx
  00004	89 08		 mov	 DWORD PTR [eax], ecx

; 428  : 		_Mylast = 0;

  00006	89 48 04	 mov	 DWORD PTR [eax+4], ecx

; 429  : 		_Myend = 0;

  00009	89 48 08	 mov	 DWORD PTR [eax+8], ecx

; 430  : 		}

  0000c	c2 04 00	 ret	 4
??0?$_Vector_val@VioHashString@@V?$allocator@VioHashString@@@std@@@std@@QAE@V?$allocator@VioHashString@@@1@@Z ENDP ; std::_Vector_val<ioHashString,std::allocator<ioHashString> >::_Vector_val<ioHashString,std::allocator<ioHashString> >
_TEXT	ENDS
PUBLIC	??0?$_Vector_val@UWeaponInfo@@V?$allocator@UWeaponInfo@@@std@@@std@@QAE@V?$allocator@UWeaponInfo@@@1@@Z ; std::_Vector_val<WeaponInfo,std::allocator<WeaponInfo> >::_Vector_val<WeaponInfo,std::allocator<WeaponInfo> >
; Function compile flags: /Ogsp
;	COMDAT ??0?$_Vector_val@UWeaponInfo@@V?$allocator@UWeaponInfo@@@std@@@std@@QAE@V?$allocator@UWeaponInfo@@@1@@Z
_TEXT	SEGMENT
__Al$ = 8						; size = 1
??0?$_Vector_val@UWeaponInfo@@V?$allocator@UWeaponInfo@@@std@@@std@@QAE@V?$allocator@UWeaponInfo@@@1@@Z PROC ; std::_Vector_val<WeaponInfo,std::allocator<WeaponInfo> >::_Vector_val<WeaponInfo,std::allocator<WeaponInfo> >, COMDAT
; _this$ = ecx

; 426  : 		{	// construct allocator from _Al

  00000	8b c1		 mov	 eax, ecx

; 427  : 		_Myfirst = 0;

  00002	33 c9		 xor	 ecx, ecx
  00004	89 08		 mov	 DWORD PTR [eax], ecx

; 428  : 		_Mylast = 0;

  00006	89 48 04	 mov	 DWORD PTR [eax+4], ecx

; 429  : 		_Myend = 0;

  00009	89 48 08	 mov	 DWORD PTR [eax+8], ecx

; 430  : 		}

  0000c	c2 04 00	 ret	 4
??0?$_Vector_val@UWeaponInfo@@V?$allocator@UWeaponInfo@@@std@@@std@@QAE@V?$allocator@UWeaponInfo@@@1@@Z ENDP ; std::_Vector_val<WeaponInfo,std::allocator<WeaponInfo> >::_Vector_val<WeaponInfo,std::allocator<WeaponInfo> >
_TEXT	ENDS
PUBLIC	??0?$_Vector_val@UForceInfo@@V?$allocator@UForceInfo@@@std@@@std@@QAE@V?$allocator@UForceInfo@@@1@@Z ; std::_Vector_val<ForceInfo,std::allocator<ForceInfo> >::_Vector_val<ForceInfo,std::allocator<ForceInfo> >
; Function compile flags: /Ogsp
;	COMDAT ??0?$_Vector_val@UForceInfo@@V?$allocator@UForceInfo@@@std@@@std@@QAE@V?$allocator@UForceInfo@@@1@@Z
_TEXT	SEGMENT
__Al$ = 8						; size = 1
??0?$_Vector_val@UForceInfo@@V?$allocator@UForceInfo@@@std@@@std@@QAE@V?$allocator@UForceInfo@@@1@@Z PROC ; std::_Vector_val<ForceInfo,std::allocator<ForceInfo> >::_Vector_val<ForceInfo,std::allocator<ForceInfo> >, COMDAT
; _this$ = ecx

; 426  : 		{	// construct allocator from _Al

  00000	8b c1		 mov	 eax, ecx

; 427  : 		_Myfirst = 0;

  00002	33 c9		 xor	 ecx, ecx
  00004	89 08		 mov	 DWORD PTR [eax], ecx

; 428  : 		_Mylast = 0;

  00006	89 48 04	 mov	 DWORD PTR [eax+4], ecx

; 429  : 		_Myend = 0;

  00009	89 48 08	 mov	 DWORD PTR [eax+8], ecx

; 430  : 		}

  0000c	c2 04 00	 ret	 4
??0?$_Vector_val@UForceInfo@@V?$allocator@UForceInfo@@@std@@@std@@QAE@V?$allocator@UForceInfo@@@1@@Z ENDP ; std::_Vector_val<ForceInfo,std::allocator<ForceInfo> >::_Vector_val<ForceInfo,std::allocator<ForceInfo> >
_TEXT	ENDS
PUBLIC	?_Make_iter@?$vector@VioHashString@@V?$allocator@VioHashString@@@std@@@std@@QBE?AV?$_Vector_iterator@V?$_Vector_val@VioHashString@@V?$allocator@VioHashString@@@std@@@std@@@2@V?$_Vector_const_iterator@V?$_Vector_val@VioHashString@@V?$allocator@VioHashString@@@std@@@std@@@2@@Z ; std::vector<ioHashString,std::allocator<ioHashString> >::_Make_iter
; Function compile flags: /Ogsp
;	COMDAT ?_Make_iter@?$vector@VioHashString@@V?$allocator@VioHashString@@@std@@@std@@QBE?AV?$_Vector_iterator@V?$_Vector_val@VioHashString@@V?$allocator@VioHashString@@@std@@@std@@@2@V?$_Vector_const_iterator@V?$_Vector_val@VioHashString@@V?$allocator@VioHashString@@@std@@@std@@@2@@Z
_TEXT	SEGMENT
___$ReturnUdt$ = 8					; size = 4
__Where$ = 12						; size = 4
?_Make_iter@?$vector@VioHashString@@V?$allocator@VioHashString@@@std@@@std@@QBE?AV?$_Vector_iterator@V?$_Vector_val@VioHashString@@V?$allocator@VioHashString@@@std@@@std@@@2@V?$_Vector_const_iterator@V?$_Vector_val@VioHashString@@V?$allocator@VioHashString@@@std@@@std@@@2@@Z PROC ; std::vector<ioHashString,std::allocator<ioHashString> >::_Make_iter, COMDAT
; _this$ = ecx

; 801  : 		{	// make iterator from const_iterator

  00000	55		 push	 ebp
  00001	8b ec		 mov	 ebp, esp

; 802  : 		return (iterator(_Where._Ptr, this));

  00003	8b 45 08	 mov	 eax, DWORD PTR ___$ReturnUdt$[ebp]
  00006	8b 4d 0c	 mov	 ecx, DWORD PTR __Where$[ebp]
  00009	89 08		 mov	 DWORD PTR [eax], ecx

; 803  : 		}

  0000b	5d		 pop	 ebp
  0000c	c2 08 00	 ret	 8
?_Make_iter@?$vector@VioHashString@@V?$allocator@VioHashString@@@std@@@std@@QBE?AV?$_Vector_iterator@V?$_Vector_val@VioHashString@@V?$allocator@VioHashString@@@std@@@std@@@2@V?$_Vector_const_iterator@V?$_Vector_val@VioHashString@@V?$allocator@VioHashString@@@std@@@std@@@2@@Z ENDP ; std::vector<ioHashString,std::allocator<ioHashString> >::_Make_iter
_TEXT	ENDS
PUBLIC	?max_size@?$vector@VioHashString@@V?$allocator@VioHashString@@@std@@@std@@QBEIXZ ; std::vector<ioHashString,std::allocator<ioHashString> >::max_size
; Function compile flags: /Ogsp
;	COMDAT ?max_size@?$vector@VioHashString@@V?$allocator@VioHashString@@@std@@@std@@QBEIXZ
_TEXT	SEGMENT
?max_size@?$vector@VioHashString@@V?$allocator@VioHashString@@@std@@@std@@QBEIXZ PROC ; std::vector<ioHashString,std::allocator<ioHashString> >::max_size, COMDAT
; _this$ = ecx

; 884  : 		return (this->_Alval.max_size());

  00000	b8 ff ff ff 0f	 mov	 eax, 268435455		; 0fffffffH

; 885  : 		}

  00005	c3		 ret	 0
?max_size@?$vector@VioHashString@@V?$allocator@VioHashString@@@std@@@std@@QBEIXZ ENDP ; std::vector<ioHashString,std::allocator<ioHashString> >::max_size
_TEXT	ENDS
PUBLIC	?allocate@?$allocator@VioHashString@@@std@@QAEPAVioHashString@@I@Z ; std::allocator<ioHashString>::allocate
; Function compile flags: /Ogsp
; File c:\program files (x86)\microsoft visual studio 10.0\vc\include\xmemory
;	COMDAT ?allocate@?$allocator@VioHashString@@@std@@QAEPAVioHashString@@I@Z
_TEXT	SEGMENT
__Count$ = 8						; size = 4
?allocate@?$allocator@VioHashString@@@std@@QAEPAVioHashString@@I@Z PROC ; std::allocator<ioHashString>::allocate, COMDAT
; _this$ = ecx

; 186  : 		{	// allocate array of _Count elements

  00000	55		 push	 ebp
  00001	8b ec		 mov	 ebp, esp

; 187  : 		return (_Allocate(_Count, (pointer)0));

  00003	6a 00		 push	 0
  00005	ff 75 08	 push	 DWORD PTR __Count$[ebp]
  00008	e8 00 00 00 00	 call	 ??$_Allocate@VioHashString@@@std@@YAPAVioHashString@@IPAV1@@Z ; std::_Allocate<ioHashString>
  0000d	59		 pop	 ecx
  0000e	59		 pop	 ecx

; 188  : 		}

  0000f	5d		 pop	 ebp
  00010	c2 04 00	 ret	 4
?allocate@?$allocator@VioHashString@@@std@@QAEPAVioHashString@@I@Z ENDP ; std::allocator<ioHashString>::allocate
_TEXT	ENDS
PUBLIC	??8?$_Vector_const_iterator@V?$_Vector_val@VioHashString@@V?$allocator@VioHashString@@@std@@@std@@@std@@QBE_NABV01@@Z ; std::_Vector_const_iterator<std::_Vector_val<ioHashString,std::allocator<ioHashString> > >::operator==
; Function compile flags: /Ogsp
; File c:\program files (x86)\microsoft visual studio 10.0\vc\include\vector
;	COMDAT ??8?$_Vector_const_iterator@V?$_Vector_val@VioHashString@@V?$allocator@VioHashString@@@std@@@std@@@std@@QBE_NABV01@@Z
_TEXT	SEGMENT
__Right$ = 8						; size = 4
??8?$_Vector_const_iterator@V?$_Vector_val@VioHashString@@V?$allocator@VioHashString@@@std@@@std@@@std@@QBE_NABV01@@Z PROC ; std::_Vector_const_iterator<std::_Vector_val<ioHashString,std::allocator<ioHashString> > >::operator==, COMDAT
; _this$ = ecx

; 201  : 		{	// test for iterator equality

  00000	55		 push	 ebp
  00001	8b ec		 mov	 ebp, esp

; 202  : 		_Compat(_Right);
; 203  : 		return (this->_Ptr == _Right._Ptr);

  00003	8b 01		 mov	 eax, DWORD PTR [ecx]
  00005	8b 4d 08	 mov	 ecx, DWORD PTR __Right$[ebp]
  00008	2b 01		 sub	 eax, DWORD PTR [ecx]
  0000a	f7 d8		 neg	 eax
  0000c	1b c0		 sbb	 eax, eax
  0000e	40		 inc	 eax

; 204  : 		}

  0000f	5d		 pop	 ebp
  00010	c2 04 00	 ret	 4
??8?$_Vector_const_iterator@V?$_Vector_val@VioHashString@@V?$allocator@VioHashString@@@std@@@std@@@std@@QBE_NABV01@@Z ENDP ; std::_Vector_const_iterator<std::_Vector_val<ioHashString,std::allocator<ioHashString> > >::operator==
_TEXT	ENDS
PUBLIC	??$_Move@PAVioHashString@@PAV1@@std@@YAPAVioHashString@@PAV1@00U_Nonscalar_ptr_iterator_tag@0@@Z ; std::_Move<ioHashString *,ioHashString *>
EXTRN	__imp_??4ioHashString@@QAEAAV0@ABV0@@Z:PROC
; Function compile flags: /Ogsp
; File c:\program files (x86)\microsoft visual studio 10.0\vc\include\xutility
;	COMDAT ??$_Move@PAVioHashString@@PAV1@@std@@YAPAVioHashString@@PAV1@00U_Nonscalar_ptr_iterator_tag@0@@Z
_TEXT	SEGMENT
__First$ = 8						; size = 4
__Last$ = 12						; size = 4
__Dest$ = 16						; size = 4
___formal$ = 20						; size = 1
??$_Move@PAVioHashString@@PAV1@@std@@YAPAVioHashString@@PAV1@00U_Nonscalar_ptr_iterator_tag@0@@Z PROC ; std::_Move<ioHashString *,ioHashString *>, COMDAT

; 2512 : 	{	// move [_First, _Last) to [_Dest, ...), arbitrary iterators

  00000	55		 push	 ebp
  00001	8b ec		 mov	 ebp, esp
  00003	56		 push	 esi

; 2513 : 	for (; _First != _Last; ++_Dest, ++_First)

  00004	8b 75 08	 mov	 esi, DWORD PTR __First$[ebp]
  00007	eb 11		 jmp	 SHORT $LN11@Move
$LL3@Move:

; 2514 : 		*_Dest = _STD move(*_First);

  00009	8b 4d 10	 mov	 ecx, DWORD PTR __Dest$[ebp]
  0000c	56		 push	 esi
  0000d	ff 15 00 00 00
	00		 call	 DWORD PTR __imp_??4ioHashString@@QAEAAV0@ABV0@@Z
  00013	83 45 10 10	 add	 DWORD PTR __Dest$[ebp], 16 ; 00000010H
  00017	83 c6 10	 add	 esi, 16			; 00000010H
$LN11@Move:

; 2513 : 	for (; _First != _Last; ++_Dest, ++_First)

  0001a	3b 75 0c	 cmp	 esi, DWORD PTR __Last$[ebp]
  0001d	75 ea		 jne	 SHORT $LL3@Move

; 2515 : 	return (_Dest);

  0001f	8b 45 10	 mov	 eax, DWORD PTR __Dest$[ebp]
  00022	5e		 pop	 esi

; 2516 : 	}

  00023	5d		 pop	 ebp
  00024	c3		 ret	 0
??$_Move@PAVioHashString@@PAV1@@std@@YAPAVioHashString@@PAV1@00U_Nonscalar_ptr_iterator_tag@0@@Z ENDP ; std::_Move<ioHashString *,ioHashString *>
_TEXT	ENDS
PUBLIC	?max_size@?$vector@UWeaponInfo@@V?$allocator@UWeaponInfo@@@std@@@std@@QBEIXZ ; std::vector<WeaponInfo,std::allocator<WeaponInfo> >::max_size
; Function compile flags: /Ogsp
; File c:\program files (x86)\microsoft visual studio 10.0\vc\include\vector
;	COMDAT ?max_size@?$vector@UWeaponInfo@@V?$allocator@UWeaponInfo@@@std@@@std@@QBEIXZ
_TEXT	SEGMENT
?max_size@?$vector@UWeaponInfo@@V?$allocator@UWeaponInfo@@@std@@@std@@QBEIXZ PROC ; std::vector<WeaponInfo,std::allocator<WeaponInfo> >::max_size, COMDAT
; _this$ = ecx

; 884  : 		return (this->_Alval.max_size());

  00000	b8 66 66 66 06	 mov	 eax, 107374182		; 06666666H

; 885  : 		}

  00005	c3		 ret	 0
?max_size@?$vector@UWeaponInfo@@V?$allocator@UWeaponInfo@@@std@@@std@@QBEIXZ ENDP ; std::vector<WeaponInfo,std::allocator<WeaponInfo> >::max_size
_TEXT	ENDS
PUBLIC	?allocate@?$allocator@UWeaponInfo@@@std@@QAEPAUWeaponInfo@@I@Z ; std::allocator<WeaponInfo>::allocate
; Function compile flags: /Ogsp
; File c:\program files (x86)\microsoft visual studio 10.0\vc\include\xmemory
;	COMDAT ?allocate@?$allocator@UWeaponInfo@@@std@@QAEPAUWeaponInfo@@I@Z
_TEXT	SEGMENT
__Count$ = 8						; size = 4
?allocate@?$allocator@UWeaponInfo@@@std@@QAEPAUWeaponInfo@@I@Z PROC ; std::allocator<WeaponInfo>::allocate, COMDAT
; _this$ = ecx

; 186  : 		{	// allocate array of _Count elements

  00000	55		 push	 ebp
  00001	8b ec		 mov	 ebp, esp

; 187  : 		return (_Allocate(_Count, (pointer)0));

  00003	6a 00		 push	 0
  00005	ff 75 08	 push	 DWORD PTR __Count$[ebp]
  00008	e8 00 00 00 00	 call	 ??$_Allocate@UWeaponInfo@@@std@@YAPAUWeaponInfo@@IPAU1@@Z ; std::_Allocate<WeaponInfo>
  0000d	59		 pop	 ecx
  0000e	59		 pop	 ecx

; 188  : 		}

  0000f	5d		 pop	 ebp
  00010	c2 04 00	 ret	 4
?allocate@?$allocator@UWeaponInfo@@@std@@QAEPAUWeaponInfo@@I@Z ENDP ; std::allocator<WeaponInfo>::allocate
_TEXT	ENDS
PUBLIC	?max_size@?$vector@UForceInfo@@V?$allocator@UForceInfo@@@std@@@std@@QBEIXZ ; std::vector<ForceInfo,std::allocator<ForceInfo> >::max_size
; Function compile flags: /Ogsp
; File c:\program files (x86)\microsoft visual studio 10.0\vc\include\vector
;	COMDAT ?max_size@?$vector@UForceInfo@@V?$allocator@UForceInfo@@@std@@@std@@QBEIXZ
_TEXT	SEGMENT
?max_size@?$vector@UForceInfo@@V?$allocator@UForceInfo@@@std@@@std@@QBEIXZ PROC ; std::vector<ForceInfo,std::allocator<ForceInfo> >::max_size, COMDAT
; _this$ = ecx

; 884  : 		return (this->_Alval.max_size());

  00000	b8 55 55 55 15	 mov	 eax, 357913941		; 15555555H

; 885  : 		}

  00005	c3		 ret	 0
?max_size@?$vector@UForceInfo@@V?$allocator@UForceInfo@@@std@@@std@@QBEIXZ ENDP ; std::vector<ForceInfo,std::allocator<ForceInfo> >::max_size
_TEXT	ENDS
PUBLIC	?allocate@?$allocator@UForceInfo@@@std@@QAEPAUForceInfo@@I@Z ; std::allocator<ForceInfo>::allocate
; Function compile flags: /Ogsp
; File c:\program files (x86)\microsoft visual studio 10.0\vc\include\xmemory
;	COMDAT ?allocate@?$allocator@UForceInfo@@@std@@QAEPAUForceInfo@@I@Z
_TEXT	SEGMENT
__Count$ = 8						; size = 4
?allocate@?$allocator@UForceInfo@@@std@@QAEPAUForceInfo@@I@Z PROC ; std::allocator<ForceInfo>::allocate, COMDAT
; _this$ = ecx

; 186  : 		{	// allocate array of _Count elements

  00000	55		 push	 ebp
  00001	8b ec		 mov	 ebp, esp

; 187  : 		return (_Allocate(_Count, (pointer)0));

  00003	6a 00		 push	 0
  00005	ff 75 08	 push	 DWORD PTR __Count$[ebp]
  00008	e8 00 00 00 00	 call	 ??$_Allocate@UForceInfo@@@std@@YAPAUForceInfo@@IPAU1@@Z ; std::_Allocate<ForceInfo>
  0000d	59		 pop	 ecx
  0000e	59		 pop	 ecx

; 188  : 		}

  0000f	5d		 pop	 ebp
  00010	c2 04 00	 ret	 4
?allocate@?$allocator@UForceInfo@@@std@@QAEPAUForceInfo@@I@Z ENDP ; std::allocator<ForceInfo>::allocate
_TEXT	ENDS
PUBLIC	??8?$_Vector_const_iterator@V?$_Vector_val@UWeaponInfo@@V?$allocator@UWeaponInfo@@@std@@@std@@@std@@QBE_NABV01@@Z ; std::_Vector_const_iterator<std::_Vector_val<WeaponInfo,std::allocator<WeaponInfo> > >::operator==
; Function compile flags: /Ogsp
; File c:\program files (x86)\microsoft visual studio 10.0\vc\include\vector
;	COMDAT ??8?$_Vector_const_iterator@V?$_Vector_val@UWeaponInfo@@V?$allocator@UWeaponInfo@@@std@@@std@@@std@@QBE_NABV01@@Z
_TEXT	SEGMENT
__Right$ = 8						; size = 4
??8?$_Vector_const_iterator@V?$_Vector_val@UWeaponInfo@@V?$allocator@UWeaponInfo@@@std@@@std@@@std@@QBE_NABV01@@Z PROC ; std::_Vector_const_iterator<std::_Vector_val<WeaponInfo,std::allocator<WeaponInfo> > >::operator==, COMDAT
; _this$ = ecx

; 201  : 		{	// test for iterator equality

  00000	55		 push	 ebp
  00001	8b ec		 mov	 ebp, esp

; 202  : 		_Compat(_Right);
; 203  : 		return (this->_Ptr == _Right._Ptr);

  00003	8b 01		 mov	 eax, DWORD PTR [ecx]
  00005	8b 4d 08	 mov	 ecx, DWORD PTR __Right$[ebp]
  00008	2b 01		 sub	 eax, DWORD PTR [ecx]
  0000a	f7 d8		 neg	 eax
  0000c	1b c0		 sbb	 eax, eax
  0000e	40		 inc	 eax

; 204  : 		}

  0000f	5d		 pop	 ebp
  00010	c2 04 00	 ret	 4
??8?$_Vector_const_iterator@V?$_Vector_val@UWeaponInfo@@V?$allocator@UWeaponInfo@@@std@@@std@@@std@@QBE_NABV01@@Z ENDP ; std::_Vector_const_iterator<std::_Vector_val<WeaponInfo,std::allocator<WeaponInfo> > >::operator==
_TEXT	ENDS
PUBLIC	??8?$_Vector_const_iterator@V?$_Vector_val@UForceInfo@@V?$allocator@UForceInfo@@@std@@@std@@@std@@QBE_NABV01@@Z ; std::_Vector_const_iterator<std::_Vector_val<ForceInfo,std::allocator<ForceInfo> > >::operator==
; Function compile flags: /Ogsp
;	COMDAT ??8?$_Vector_const_iterator@V?$_Vector_val@UForceInfo@@V?$allocator@UForceInfo@@@std@@@std@@@std@@QBE_NABV01@@Z
_TEXT	SEGMENT
__Right$ = 8						; size = 4
??8?$_Vector_const_iterator@V?$_Vector_val@UForceInfo@@V?$allocator@UForceInfo@@@std@@@std@@@std@@QBE_NABV01@@Z PROC ; std::_Vector_const_iterator<std::_Vector_val<ForceInfo,std::allocator<ForceInfo> > >::operator==, COMDAT
; _this$ = ecx

; 201  : 		{	// test for iterator equality

  00000	55		 push	 ebp
  00001	8b ec		 mov	 ebp, esp

; 202  : 		_Compat(_Right);
; 203  : 		return (this->_Ptr == _Right._Ptr);

  00003	8b 01		 mov	 eax, DWORD PTR [ecx]
  00005	8b 4d 08	 mov	 ecx, DWORD PTR __Right$[ebp]
  00008	2b 01		 sub	 eax, DWORD PTR [ecx]
  0000a	f7 d8		 neg	 eax
  0000c	1b c0		 sbb	 eax, eax
  0000e	40		 inc	 eax

; 204  : 		}

  0000f	5d		 pop	 ebp
  00010	c2 04 00	 ret	 4
??8?$_Vector_const_iterator@V?$_Vector_val@UForceInfo@@V?$allocator@UForceInfo@@@std@@@std@@@std@@QBE_NABV01@@Z ENDP ; std::_Vector_const_iterator<std::_Vector_val<ForceInfo,std::allocator<ForceInfo> > >::operator==
_TEXT	ENDS
PUBLIC	?destroy@?$allocator@UForceInfo@@@std@@QAEXPAUForceInfo@@@Z ; std::allocator<ForceInfo>::destroy
; Function compile flags: /Ogsp
; File c:\program files (x86)\microsoft visual studio 10.0\vc\include\xmemory
;	COMDAT ?destroy@?$allocator@UForceInfo@@@std@@QAEXPAUForceInfo@@@Z
_TEXT	SEGMENT
__Ptr$ = 8						; size = 4
?destroy@?$allocator@UForceInfo@@@std@@QAEXPAUForceInfo@@@Z PROC ; std::allocator<ForceInfo>::destroy, COMDAT
; _this$ = ecx

; 213  : 		_Destroy(_Ptr);
; 214  : 		}

  00000	c2 04 00	 ret	 4
?destroy@?$allocator@UForceInfo@@@std@@QAEXPAUForceInfo@@@Z ENDP ; std::allocator<ForceInfo>::destroy
_TEXT	ENDS
PUBLIC	??$_Destroy@VioHashString@@@std@@YAXPAVioHashString@@@Z ; std::_Destroy<ioHashString>
; Function compile flags: /Ogsp
;	COMDAT ??$_Destroy@VioHashString@@@std@@YAXPAVioHashString@@@Z
_TEXT	SEGMENT
__Ptr$ = 8						; size = 4
??$_Destroy@VioHashString@@@std@@YAXPAVioHashString@@@Z PROC ; std::_Destroy<ioHashString>, COMDAT

; 62   : 	{	// destroy object at _Ptr

  00000	55		 push	 ebp
  00001	8b ec		 mov	 ebp, esp

; 63   : 	_Ptr->~_Ty();

  00003	8b 4d 08	 mov	 ecx, DWORD PTR __Ptr$[ebp]

; 64   : 	}

  00006	5d		 pop	 ebp

; 63   : 	_Ptr->~_Ty();

  00007	ff 25 00 00 00
	00		 jmp	 DWORD PTR __imp_??1ioHashString@@QAE@XZ
??$_Destroy@VioHashString@@@std@@YAXPAVioHashString@@@Z ENDP ; std::_Destroy<ioHashString>
_TEXT	ENDS
PUBLIC	??$_Destroy@UWeaponInfo@@@std@@YAXPAUWeaponInfo@@@Z ; std::_Destroy<WeaponInfo>
; Function compile flags: /Ogsp
;	COMDAT ??$_Destroy@UWeaponInfo@@@std@@YAXPAUWeaponInfo@@@Z
_TEXT	SEGMENT
__Ptr$ = 8						; size = 4
??$_Destroy@UWeaponInfo@@@std@@YAXPAUWeaponInfo@@@Z PROC ; std::_Destroy<WeaponInfo>, COMDAT

; 62   : 	{	// destroy object at _Ptr

  00000	55		 push	 ebp
  00001	8b ec		 mov	 ebp, esp

; 63   : 	_Ptr->~_Ty();

  00003	8b 4d 08	 mov	 ecx, DWORD PTR __Ptr$[ebp]
  00006	83 c1 08	 add	 ecx, 8

; 64   : 	}

  00009	5d		 pop	 ebp

; 63   : 	_Ptr->~_Ty();

  0000a	ff 25 00 00 00
	00		 jmp	 DWORD PTR __imp_??1ioHashString@@QAE@XZ
??$_Destroy@UWeaponInfo@@@std@@YAXPAUWeaponInfo@@@Z ENDP ; std::_Destroy<WeaponInfo>
_TEXT	ENDS
PUBLIC	?construct@?$allocator@VioHashString@@@std@@QAEXPAVioHashString@@ABV3@@Z ; std::allocator<ioHashString>::construct
; Function compile flags: /Ogsp
;	COMDAT ?construct@?$allocator@VioHashString@@@std@@QAEXPAVioHashString@@ABV3@@Z
_TEXT	SEGMENT
__Ptr$ = 8						; size = 4
__Val$ = 12						; size = 4
?construct@?$allocator@VioHashString@@@std@@QAEXPAVioHashString@@ABV3@@Z PROC ; std::allocator<ioHashString>::construct, COMDAT
; _this$ = ecx

; 196  : 		{	// construct object at _Ptr with value _Val

  00000	55		 push	 ebp
  00001	8b ec		 mov	 ebp, esp

; 197  : 		_Construct(_Ptr, _Val);

  00003	ff 75 0c	 push	 DWORD PTR __Val$[ebp]
  00006	ff 75 08	 push	 DWORD PTR __Ptr$[ebp]
  00009	e8 00 00 00 00	 call	 ??$_Construct@VioHashString@@ABV1@@std@@YAXPAVioHashString@@ABV1@@Z ; std::_Construct<ioHashString,ioHashString const &>
  0000e	59		 pop	 ecx
  0000f	59		 pop	 ecx

; 198  : 		}

  00010	5d		 pop	 ebp
  00011	c2 08 00	 ret	 8
?construct@?$allocator@VioHashString@@@std@@QAEXPAVioHashString@@ABV3@@Z ENDP ; std::allocator<ioHashString>::construct
_TEXT	ENDS
PUBLIC	?IsPrisonerMode@ioBaseChar@@QBE_NXZ		; ioBaseChar::IsPrisonerMode
; Function compile flags: /Ogsp
; File d:\lost saga for developer\youtube\tutorial\source\src\lsclient\iobasechar.h
;	COMDAT ?IsPrisonerMode@ioBaseChar@@QBE_NXZ
_TEXT	SEGMENT
_value$527775 = -1					; size = 1
?IsPrisonerMode@ioBaseChar@@QBE_NXZ PROC		; ioBaseChar::IsPrisonerMode, COMDAT
; _this$ = ecx

; 2130 : 	inline bool IsPrisonerMode() const { return m_bPrisonerMode; }

  00000	55		 push	 ebp
  00001	8b ec		 mov	 ebp, esp
  00003	51		 push	 ecx
  00004	8d 45 ff	 lea	 eax, DWORD PTR _value$527775[ebp]
  00007	50		 push	 eax
  00008	81 c1 cc 14 00
	00		 add	 ecx, 5324		; 000014ccH
  0000e	e8 00 00 00 00	 call	 ?DecryptValueToPool@?$CEncrypt@_N@@QAEXPA_N@Z ; CEncrypt<bool>::DecryptValueToPool
  00013	8a 45 ff	 mov	 al, BYTE PTR _value$527775[ebp]
  00016	c9		 leave
  00017	c3		 ret	 0
?IsPrisonerMode@ioBaseChar@@QBE_NXZ ENDP		; ioBaseChar::IsPrisonerMode
_TEXT	ENDS
PUBLIC	?SetGravityAmt@ioBaseChar@@QAEXM@Z		; ioBaseChar::SetGravityAmt
; Function compile flags: /Ogsp
;	COMDAT ?SetGravityAmt@ioBaseChar@@QAEXM@Z
_TEXT	SEGMENT
_value$527782 = 8					; size = 4
_fAmt$ = 8						; size = 4
?SetGravityAmt@ioBaseChar@@QAEXM@Z PROC			; ioBaseChar::SetGravityAmt, COMDAT
; _this$ = ecx

; 2631 : 	inline void SetGravityAmt( float fAmt ) { m_fGravityAmt = fAmt; }

  00000	55		 push	 ebp
  00001	8b ec		 mov	 ebp, esp
  00003	f3 0f 10 45 08	 movss	 xmm0, DWORD PTR _fAmt$[ebp]
  00008	8d 45 08	 lea	 eax, DWORD PTR _value$527782[ebp]
  0000b	50		 push	 eax
  0000c	81 c1 e8 0b 00
	00		 add	 ecx, 3048		; 00000be8H
  00012	f3 0f 11 45 08	 movss	 DWORD PTR _value$527782[ebp], xmm0
  00017	e8 00 00 00 00	 call	 ?EncryptValueToPool@?$CEncrypt@M@@AAEXPBD@Z ; CEncrypt<float>::EncryptValueToPool
  0001c	5d		 pop	 ebp
  0001d	c2 04 00	 ret	 4
?SetGravityAmt@ioBaseChar@@QAEXM@Z ENDP			; ioBaseChar::SetGravityAmt
_TEXT	ENDS
PUBLIC	?SetForcePowerAmt@ioBaseChar@@QAEXM@Z		; ioBaseChar::SetForcePowerAmt
; Function compile flags: /Ogsp
;	COMDAT ?SetForcePowerAmt@ioBaseChar@@QAEXM@Z
_TEXT	SEGMENT
_value$527788 = 8					; size = 4
_fAmt$ = 8						; size = 4
?SetForcePowerAmt@ioBaseChar@@QAEXM@Z PROC		; ioBaseChar::SetForcePowerAmt, COMDAT
; _this$ = ecx

; 2641 : 	inline void SetForcePowerAmt( float fAmt ) { m_fForceAmt = fAmt; }

  00000	55		 push	 ebp
  00001	8b ec		 mov	 ebp, esp
  00003	f3 0f 10 45 08	 movss	 xmm0, DWORD PTR _fAmt$[ebp]
  00008	8d 45 08	 lea	 eax, DWORD PTR _value$527788[ebp]
  0000b	50		 push	 eax
  0000c	81 c1 88 0b 00
	00		 add	 ecx, 2952		; 00000b88H
  00012	f3 0f 11 45 08	 movss	 DWORD PTR _value$527788[ebp], xmm0
  00017	e8 00 00 00 00	 call	 ?EncryptValueToPool@?$CEncrypt@M@@AAEXPBD@Z ; CEncrypt<float>::EncryptValueToPool
  0001c	5d		 pop	 ebp
  0001d	c2 04 00	 ret	 4
?SetForcePowerAmt@ioBaseChar@@QAEXM@Z ENDP		; ioBaseChar::SetForcePowerAmt
_TEXT	ENDS
PUBLIC	?IsCanDoubleJump@ioKisaragiJump@@IAE_NPAVioBaseChar@@M@Z ; ioKisaragiJump::IsCanDoubleJump
EXTRN	?IsBuffLimitExtendJump@ioBaseChar@@QBE_NXZ:PROC	; ioBaseChar::IsBuffLimitExtendJump
EXTRN	?HasBuff@ioBaseChar@@QBE_NH@Z:PROC		; ioBaseChar::HasBuff
EXTRN	?IsHasCrown@ioBaseChar@@QBE_NXZ:PROC		; ioBaseChar::IsHasCrown
EXTRN	?IsJumpKeyPress@ioBaseChar@@QBE_NXZ:PROC	; ioBaseChar::IsJumpKeyPress
; Function compile flags: /Ogsp
; File d:\lost saga for developer\youtube\tutorial\source\src\lsclient\iokisaragijump.cpp
;	COMDAT ?IsCanDoubleJump@ioKisaragiJump@@IAE_NPAVioBaseChar@@M@Z
_TEXT	SEGMENT
_pOwner$ = 8						; size = 4
_value$527805 = 11					; size = 1
_fHeightGap$ = 12					; size = 4
?IsCanDoubleJump@ioKisaragiJump@@IAE_NPAVioBaseChar@@M@Z PROC ; ioKisaragiJump::IsCanDoubleJump, COMDAT
; _this$ = ecx

; 268  : {

  00000	55		 push	 ebp
  00001	8b ec		 mov	 ebp, esp
  00003	53		 push	 ebx
  00004	56		 push	 esi

; 269  : 	if( !pOwner ) return false;

  00005	8b 75 08	 mov	 esi, DWORD PTR _pOwner$[ebp]
  00008	33 db		 xor	 ebx, ebx
  0000a	57		 push	 edi
  0000b	8b f9		 mov	 edi, ecx
  0000d	3b f3		 cmp	 esi, ebx
  0000f	0f 84 10 01 00
	00		 je	 $LN10@IsCanDoubl

; 270  : 	if( !pOwner->IsNeedProcess() ) return false;

  00015	8b 06		 mov	 eax, DWORD PTR [esi]
  00017	8b ce		 mov	 ecx, esi
  00019	ff 90 00 01 00
	00		 call	 DWORD PTR [eax+256]
  0001f	84 c0		 test	 al, al
  00021	0f 84 fe 00 00
	00		 je	 $LN10@IsCanDoubl

; 271  : 
; 272  : 	if( !pOwner->IsJumpKeyPress() ||
; 273  : 		pOwner->IsHasCrown() ||
; 274  : 		pOwner->IsCatchMode() ||
; 275  : 		pOwner->IsPrisonerMode() ||
; 276  : 		(pOwner->GetUsedBuffJump() != BJUT_NONE) ||
; 277  : 		(pOwner->GetUsedBuffFlyJump() != BJUT_NONE) ||
; 278  : 		(pOwner->GetUsedBuffMultiFlyJump() != BJUT_NONE) ||
; 279  : 		pOwner->GetUsedJumpAttack()	)

  00027	8b ce		 mov	 ecx, esi
  00029	e8 00 00 00 00	 call	 ?IsJumpKeyPress@ioBaseChar@@QBE_NXZ ; ioBaseChar::IsJumpKeyPress
  0002e	84 c0		 test	 al, al
  00030	0f 84 ef 00 00
	00		 je	 $LN10@IsCanDoubl
  00036	8b ce		 mov	 ecx, esi
  00038	e8 00 00 00 00	 call	 ?IsHasCrown@ioBaseChar@@QBE_NXZ ; ioBaseChar::IsHasCrown
  0003d	84 c0		 test	 al, al
  0003f	0f 85 e0 00 00
	00		 jne	 $LN10@IsCanDoubl
  00045	38 9e 78 23 00
	00		 cmp	 BYTE PTR [esi+9080], bl
  0004b	0f 85 d4 00 00
	00		 jne	 $LN10@IsCanDoubl
  00051	8d 45 0b	 lea	 eax, DWORD PTR _value$527805[ebp]
  00054	50		 push	 eax
  00055	8d 8e cc 14 00
	00		 lea	 ecx, DWORD PTR [esi+5324]
  0005b	e8 00 00 00 00	 call	 ?DecryptValueToPool@?$CEncrypt@_N@@QAEXPA_N@Z ; CEncrypt<bool>::DecryptValueToPool
  00060	38 5d 0b	 cmp	 BYTE PTR _value$527805[ebp], bl
  00063	0f 85 bc 00 00
	00		 jne	 $LN10@IsCanDoubl
  00069	39 9e ac 0e 00
	00		 cmp	 DWORD PTR [esi+3756], ebx
  0006f	0f 85 b0 00 00
	00		 jne	 $LN10@IsCanDoubl
  00075	39 9e b0 0e 00
	00		 cmp	 DWORD PTR [esi+3760], ebx
  0007b	0f 85 a4 00 00
	00		 jne	 $LN10@IsCanDoubl
  00081	39 9e b4 0e 00
	00		 cmp	 DWORD PTR [esi+3764], ebx
  00087	0f 85 98 00 00
	00		 jne	 $LN10@IsCanDoubl
  0008d	38 9e 98 0e 00
	00		 cmp	 BYTE PTR [esi+3736], bl
  00093	0f 85 8c 00 00
	00		 jne	 $LN10@IsCanDoubl

; 281  : 
; 282  : 	if( pOwner->HasBuff( BT_BUFF_FLY_JUMP ) || pOwner->HasBuff( BT_BUFF_FLY_JUMP2 ) )

  00099	6a 3b		 push	 59			; 0000003bH
  0009b	8b ce		 mov	 ecx, esi
  0009d	e8 00 00 00 00	 call	 ?HasBuff@ioBaseChar@@QBE_NH@Z ; ioBaseChar::HasBuff
  000a2	84 c0		 test	 al, al
  000a4	75 7f		 jne	 SHORT $LN10@IsCanDoubl
  000a6	68 98 00 00 00	 push	 152			; 00000098H
  000ab	8b ce		 mov	 ecx, esi
  000ad	e8 00 00 00 00	 call	 ?HasBuff@ioBaseChar@@QBE_NH@Z ; ioBaseChar::HasBuff
  000b2	84 c0		 test	 al, al
  000b4	75 6f		 jne	 SHORT $LN10@IsCanDoubl

; 283  : 		return false;
; 284  : 
; 285  : 	if( pOwner->IsBuffLimitExtendJump() )

  000b6	8b ce		 mov	 ecx, esi
  000b8	e8 00 00 00 00	 call	 ?IsBuffLimitExtendJump@ioBaseChar@@QBE_NXZ ; ioBaseChar::IsBuffLimitExtendJump
  000bd	84 c0		 test	 al, al

; 286  : 		return false;

  000bf	75 64		 jne	 SHORT $LN10@IsCanDoubl

; 287  : 
; 288  : 	if( m_bUsedDoubleJump )

  000c1	38 9f 58 01 00
	00		 cmp	 BYTE PTR [edi+344], bl
  000c7	74 0e		 je	 SHORT $LN5@IsCanDoubl

; 289  : 	{
; 290  : 		if( m_iCurJumpCnt >= m_iMaxJumpCnt )

  000c9	8b 87 60 01 00
	00		 mov	 eax, DWORD PTR [edi+352]
  000cf	3b 87 5c 01 00
	00		 cmp	 eax, DWORD PTR [edi+348]

; 291  : 			return false;

  000d5	7d 4e		 jge	 SHORT $LN10@IsCanDoubl
$LN5@IsCanDoubl:

; 292  : 	}
; 293  : 
; 294  : 	if( m_CurJumpState != KJS_NONE && m_CurJumpState != KJS_DOUBLE )

  000d7	8b 87 24 01 00
	00		 mov	 eax, DWORD PTR [edi+292]
  000dd	3b c3		 cmp	 eax, ebx
  000df	74 05		 je	 SHORT $LN4@IsCanDoubl
  000e1	83 f8 02	 cmp	 eax, 2

; 295  : 		return false;

  000e4	75 3f		 jne	 SHORT $LN10@IsCanDoubl
$LN4@IsCanDoubl:

; 296  : 
; 297  : 	DWORD dwMoveStartTime = pOwner->GetJumpMoveStartTime();

  000e6	8b b6 80 0e 00
	00		 mov	 esi, DWORD PTR [esi+3712]

; 298  : 	if( dwMoveStartTime == 0 ) return false;

  000ec	3b f3		 cmp	 esi, ebx
  000ee	74 35		 je	 SHORT $LN10@IsCanDoubl

; 299  : 
; 300  : 	if( FRAMEGETTIME() - dwMoveStartTime < m_dwDoubleJumpEnableTime )

  000f0	ff 15 00 00 00
	00		 call	 DWORD PTR __imp_?GetSingleton@ioFrameTimer@@SAAAV1@XZ
  000f6	8b c8		 mov	 ecx, eax
  000f8	ff 15 00 00 00
	00		 call	 DWORD PTR __imp_?GetLoopSec@ioFrameTimer@@QBEKXZ
  000fe	2b c6		 sub	 eax, esi
  00100	3b 87 34 01 00
	00		 cmp	 eax, DWORD PTR [edi+308]

; 301  : 		return false;

  00106	72 1d		 jb	 SHORT $LN10@IsCanDoubl

; 302  : 
; 303  : 	if( fHeightGap < m_fDoubleJumpEnableHeight )

  00108	f3 0f 10 45 0c	 movss	 xmm0, DWORD PTR _fHeightGap$[ebp]
  0010d	f3 0f 10 8f 30
	01 00 00	 movss	 xmm1, DWORD PTR [edi+304]
  00115	0f 5a c0	 cvtps2pd xmm0, xmm0
  00118	0f 5a c9	 cvtps2pd xmm1, xmm1
  0011b	66 0f 2f c8	 comisd	 xmm1, xmm0

; 304  : 		return false;

  0011f	77 04		 ja	 SHORT $LN10@IsCanDoubl

; 305  : 
; 306  : 	return true;

  00121	b0 01		 mov	 al, 1
  00123	eb 02		 jmp	 SHORT $LN14@IsCanDoubl
$LN10@IsCanDoubl:

; 280  : 		return false;

  00125	32 c0		 xor	 al, al
$LN14@IsCanDoubl:
  00127	5f		 pop	 edi
  00128	5e		 pop	 esi
  00129	5b		 pop	 ebx

; 307  : }

  0012a	5d		 pop	 ebp
  0012b	c2 08 00	 ret	 8
?IsCanDoubleJump@ioKisaragiJump@@IAE_NPAVioBaseChar@@M@Z ENDP ; ioKisaragiJump::IsCanDoubleJump
_TEXT	ENDS
PUBLIC	?IsCanJumpDash@ioKisaragiJump@@IAE_NPAVioBaseChar@@M@Z ; ioKisaragiJump::IsCanJumpDash
EXTRN	?IsCanJumpAttackEnableTime@ioBaseChar@@QAE_NXZ:PROC ; ioBaseChar::IsCanJumpAttackEnableTime
; Function compile flags: /Ogsp
;	COMDAT ?IsCanJumpDash@ioKisaragiJump@@IAE_NPAVioBaseChar@@M@Z
_TEXT	SEGMENT
_pOwner$ = 8						; size = 4
_value$527842 = 11					; size = 1
_fHeightGap$ = 12					; size = 4
?IsCanJumpDash@ioKisaragiJump@@IAE_NPAVioBaseChar@@M@Z PROC ; ioKisaragiJump::IsCanJumpDash, COMDAT
; _this$ = ecx

; 310  : {

  00000	55		 push	 ebp
  00001	8b ec		 mov	 ebp, esp
  00003	53		 push	 ebx
  00004	56		 push	 esi

; 311  : 	if( !pOwner ) return false;

  00005	8b 75 08	 mov	 esi, DWORD PTR _pOwner$[ebp]
  00008	33 db		 xor	 ebx, ebx
  0000a	57		 push	 edi
  0000b	8b f9		 mov	 edi, ecx
  0000d	3b f3		 cmp	 esi, ebx
  0000f	0f 84 ba 00 00
	00		 je	 $LN8@IsCanJumpD

; 312  : 	if( !pOwner->IsNeedProcess() ) return false;

  00015	8b 06		 mov	 eax, DWORD PTR [esi]
  00017	8b ce		 mov	 ecx, esi
  00019	ff 90 00 01 00
	00		 call	 DWORD PTR [eax+256]
  0001f	84 c0		 test	 al, al
  00021	0f 84 a8 00 00
	00		 je	 $LN8@IsCanJumpD

; 313  : 
; 314  : 	if( pOwner->IsHasCrown() ||
; 315  : 		pOwner->IsCatchMode() ||
; 316  : 		pOwner->IsPrisonerMode() ||
; 317  : 		(pOwner->GetUsedBuffJump() != BJUT_NONE) ||
; 318  : 		(pOwner->GetUsedBuffFlyJump() != BJUT_NONE) ||
; 319  : 		(pOwner->GetUsedBuffMultiFlyJump() != BJUT_NONE) ||
; 320  : 		pOwner->GetUsedJumpAttack()	)

  00027	8b ce		 mov	 ecx, esi
  00029	e8 00 00 00 00	 call	 ?IsHasCrown@ioBaseChar@@QBE_NXZ ; ioBaseChar::IsHasCrown
  0002e	84 c0		 test	 al, al
  00030	0f 85 99 00 00
	00		 jne	 $LN8@IsCanJumpD
  00036	38 9e 78 23 00
	00		 cmp	 BYTE PTR [esi+9080], bl
  0003c	0f 85 8d 00 00
	00		 jne	 $LN8@IsCanJumpD
  00042	8d 45 0b	 lea	 eax, DWORD PTR _value$527842[ebp]
  00045	50		 push	 eax
  00046	8d 8e cc 14 00
	00		 lea	 ecx, DWORD PTR [esi+5324]
  0004c	e8 00 00 00 00	 call	 ?DecryptValueToPool@?$CEncrypt@_N@@QAEXPA_N@Z ; CEncrypt<bool>::DecryptValueToPool
  00051	38 5d 0b	 cmp	 BYTE PTR _value$527842[ebp], bl
  00054	75 79		 jne	 SHORT $LN8@IsCanJumpD
  00056	39 9e ac 0e 00
	00		 cmp	 DWORD PTR [esi+3756], ebx
  0005c	75 71		 jne	 SHORT $LN8@IsCanJumpD
  0005e	39 9e b0 0e 00
	00		 cmp	 DWORD PTR [esi+3760], ebx
  00064	75 69		 jne	 SHORT $LN8@IsCanJumpD
  00066	39 9e b4 0e 00
	00		 cmp	 DWORD PTR [esi+3764], ebx
  0006c	75 61		 jne	 SHORT $LN8@IsCanJumpD
  0006e	38 9e 98 0e 00
	00		 cmp	 BYTE PTR [esi+3736], bl
  00074	75 59		 jne	 SHORT $LN8@IsCanJumpD

; 322  : 
; 323  : 	if( pOwner->IsChatModeState( true ) )

  00076	6a 01		 push	 1
  00078	8b ce		 mov	 ecx, esi
  0007a	e8 00 00 00 00	 call	 ?IsChatModeState@ioBaseChar@@QBE_N_N@Z ; ioBaseChar::IsChatModeState
  0007f	84 c0		 test	 al, al

; 324  : 		return false;

  00081	75 4c		 jne	 SHORT $LN8@IsCanJumpD

; 325  : 
; 326  : 	if( pOwner->IsBuffLimitExtendJump() )

  00083	8b ce		 mov	 ecx, esi
  00085	e8 00 00 00 00	 call	 ?IsBuffLimitExtendJump@ioBaseChar@@QBE_NXZ ; ioBaseChar::IsBuffLimitExtendJump
  0008a	84 c0		 test	 al, al

; 327  : 		return false;

  0008c	75 41		 jne	 SHORT $LN8@IsCanJumpD

; 328  : 
; 329  : 	if( pOwner->HasBuff(BT_AIR_ATTACK) )

  0008e	6a 46		 push	 70			; 00000046H
  00090	8b ce		 mov	 ecx, esi
  00092	e8 00 00 00 00	 call	 ?HasBuff@ioBaseChar@@QBE_NH@Z ; ioBaseChar::HasBuff
  00097	84 c0		 test	 al, al

; 330  : 		return false;

  00099	75 34		 jne	 SHORT $LN8@IsCanJumpD

; 331  : 
; 332  : 	if( m_CurJumpState != KJS_NONE && m_CurJumpState != KJS_DOUBLE )

  0009b	8b 87 24 01 00
	00		 mov	 eax, DWORD PTR [edi+292]
  000a1	3b c3		 cmp	 eax, ebx
  000a3	74 05		 je	 SHORT $LN4@IsCanJumpD
  000a5	83 f8 02	 cmp	 eax, 2

; 333  : 		return false;

  000a8	75 25		 jne	 SHORT $LN8@IsCanJumpD
$LN4@IsCanJumpD:

; 334  : 
; 335  : 	if( !pOwner->IsCanJumpAttackEnableTime() )

  000aa	8b ce		 mov	 ecx, esi
  000ac	e8 00 00 00 00	 call	 ?IsCanJumpAttackEnableTime@ioBaseChar@@QAE_NXZ ; ioBaseChar::IsCanJumpAttackEnableTime
  000b1	84 c0		 test	 al, al

; 336  : 		return false;

  000b3	74 1a		 je	 SHORT $LN8@IsCanJumpD

; 337  : 
; 338  : 	DWORD dwMoveStartTime = pOwner->GetJumpMoveStartTime();
; 339  : 	if( dwMoveStartTime == 0 ) return false;

  000b5	39 9e 80 0e 00
	00		 cmp	 DWORD PTR [esi+3712], ebx
  000bb	74 12		 je	 SHORT $LN8@IsCanJumpD

; 340  : 
; 341  : 	if( !pOwner->IsDirKeyDoubleClick() )

  000bd	8d 8e 80 0c 00
	00		 lea	 ecx, DWORD PTR [esi+3200]
  000c3	e8 00 00 00 00	 call	 ?IsDirDoubleClick@ioUserKeyInput@@QBE_NXZ ; ioUserKeyInput::IsDirDoubleClick
  000c8	84 c0		 test	 al, al
  000ca	0f 95 c0	 setne	 al

; 342  : 		return false;
; 343  : 
; 344  : 	return true;

  000cd	eb 02		 jmp	 SHORT $LN12@IsCanJumpD
$LN8@IsCanJumpD:

; 321  : 		return false;

  000cf	32 c0		 xor	 al, al
$LN12@IsCanJumpD:
  000d1	5f		 pop	 edi
  000d2	5e		 pop	 esi
  000d3	5b		 pop	 ebx

; 345  : }

  000d4	5d		 pop	 ebp
  000d5	c2 08 00	 ret	 8
?IsCanJumpDash@ioKisaragiJump@@IAE_NPAVioBaseChar@@M@Z ENDP ; ioKisaragiJump::IsCanJumpDash
_TEXT	ENDS
PUBLIC	_pOwner$GSCopy$
PUBLIC	__$ArrayPad$
PUBLIC	?SetDoubleJumpAni@ioKisaragiJump@@IAEXPAVioBaseChar@@@Z ; ioKisaragiJump::SetDoubleJumpAni
EXTRN	__imp_?SetActionAni@ioEntityGroup@@QAE_NABVioHashString@@MMMMMM_N1@Z:PROC
EXTRN	__imp_?IsEmpty@ioHashString@@QBE_NXZ:PROC
EXTRN	__imp_?AngleGap@ioMath@@SAMMM@Z:PROC
EXTRN	__imp_?ArrangeHead@ioMath@@SAMM@Z:PROC
EXTRN	__imp_?QuaterToYaw@ioMath@@SAMABUD3DXQUATERNION@@@Z:PROC
EXTRN	__imp_?CalcDirectionQuaternion@ioMath@@SAXAAUD3DXQUATERNION@@ABUD3DXVECTOR3@@@Z:PROC
EXTRN	_D3DXVec3Normalize@8:PROC
EXTRN	__ftol2_sse:PROC
; Function compile flags: /Ogsp
;	COMDAT ?SetDoubleJumpAni@ioKisaragiJump@@IAEXPAVioBaseChar@@@Z
_TEXT	SEGMENT
_pGrp$ = -64						; size = 4
_fRate$ = -60						; size = 4
_fCurYaw$ = -60						; size = 4
tv743 = -56						; size = 4
tv184 = -56						; size = 4
_fTargetYaw$ = -56					; size = 4
_qtTargetRot$ = -52					; size = 16
tv759 = -36						; size = 4
tv742 = -36						; size = 4
tv708 = -36						; size = 4
tv704 = -36						; size = 4
tv660 = -36						; size = 4
tv568 = -36						; size = 4
tv565 = -36						; size = 4
tv561 = -36						; size = 4
tv559 = -36						; size = 4
tv555 = -36						; size = 4
$T528042 = -36						; size = 4
$T528026 = -36						; size = 4
tv452 = -36						; size = 4
tv149 = -36						; size = 4
tv146 = -36						; size = 4
tv92 = -36						; size = 4
_iIndex2$ = -36						; size = 4
tv756 = -32						; size = 4
tv748 = -32						; size = 4
tv733 = -32						; size = 4
tv726 = -32						; size = 4
tv672 = -32						; size = 4
tv669 = -32						; size = 4
tv667 = -32						; size = 4
tv664 = -32						; size = 4
tv633 = -32						; size = 4
tv630 = -32						; size = 4
tv628 = -32						; size = 4
tv626 = -32						; size = 4
tv624 = -32						; size = 4
tv547 = -32						; size = 4
_pOwner$GSCopy$ = -32					; size = 4
tv489 = -32						; size = 4
tv484 = -32						; size = 4
tv482 = -32						; size = 4
tv478 = -32						; size = 4
tv476 = -32						; size = 4
tv456 = -32						; size = 4
tv453 = -32						; size = 4
tv450 = -32						; size = 4
tv448 = -32						; size = 4
tv446 = -32						; size = 4
tv296 = -32						; size = 4
_iTest$ = -32						; size = 4
_fAngleGap$ = -32					; size = 4
$T524062 = -28						; size = 12
_vSightDir$ = -28					; size = 12
_vXZDir$ = -16						; size = 12
__$ArrayPad$ = -4					; size = 4
_pOwner$ = 8						; size = 4
?SetDoubleJumpAni@ioKisaragiJump@@IAEXPAVioBaseChar@@@Z PROC ; ioKisaragiJump::SetDoubleJumpAni, COMDAT
; _this$ = ecx

; 460  : {

  00000	55		 push	 ebp
  00001	8b ec		 mov	 ebp, esp
  00003	83 ec 40	 sub	 esp, 64			; 00000040H
  00006	a1 00 00 00 00	 mov	 eax, DWORD PTR ___security_cookie
  0000b	33 c5		 xor	 eax, ebp
  0000d	89 45 fc	 mov	 DWORD PTR __$ArrayPad$[ebp], eax
  00010	8b 45 08	 mov	 eax, DWORD PTR _pOwner$[ebp]
  00013	53		 push	 ebx
  00014	56		 push	 esi
  00015	57		 push	 edi

; 461  : 	ioEntityGroup *pGrp = pOwner->GetGroup();
; 462  : 	D3DXVECTOR3 vSightDir = pOwner->GetMoveDir();

  00016	8d b0 b4 06 00
	00		 lea	 esi, DWORD PTR [eax+1716]
  0001c	8d 7d e4	 lea	 edi, DWORD PTR _vSightDir$[ebp]
  0001f	a5		 movsd
  00020	a5		 movsd
  00021	8b d9		 mov	 ebx, ecx
  00023	8b 48 04	 mov	 ecx, DWORD PTR [eax+4]
  00026	a5		 movsd

; 463  : 
; 464  : 	D3DXVECTOR3 vXZDir( vSightDir.x, 0.0f, vSightDir.z );

  00027	f3 0f 10 45 e4	 movss	 xmm0, DWORD PTR _vSightDir$[ebp]
  0002c	89 45 e0	 mov	 DWORD PTR _pOwner$GSCopy$[ebp], eax

; 465  : 	D3DXVec3Normalize( &vXZDir, &vXZDir );

  0002f	8d 45 f0	 lea	 eax, DWORD PTR _vXZDir$[ebp]
  00032	f3 0f 11 45 f0	 movss	 DWORD PTR _vXZDir$[ebp], xmm0
  00037	0f 57 c0	 xorps	 xmm0, xmm0
  0003a	50		 push	 eax
  0003b	f3 0f 11 45 f4	 movss	 DWORD PTR _vXZDir$[ebp+4], xmm0
  00040	f3 0f 10 45 ec	 movss	 xmm0, DWORD PTR _vSightDir$[ebp+8]
  00045	50		 push	 eax
  00046	89 4d c0	 mov	 DWORD PTR _pGrp$[ebp], ecx
  00049	f3 0f 11 45 f8	 movss	 DWORD PTR _vXZDir$[ebp+8], xmm0
  0004e	e8 00 00 00 00	 call	 _D3DXVec3Normalize@8

; 466  : 
; 467  : 	D3DXQUATERNION qtTargetRot;
; 468  : 	ioMath::CalcDirectionQuaternion( qtTargetRot, -vXZDir );

  00053	f3 0f 10 05 00
	00 00 00	 movss	 xmm0, DWORD PTR __mask@@NegFloat@
  0005b	f3 0f 10 4d f0	 movss	 xmm1, DWORD PTR _vXZDir$[ebp]
  00060	0f 57 c8	 xorps	 xmm1, xmm0
  00063	f3 0f 11 4d e4	 movss	 DWORD PTR $T524062[ebp], xmm1
  00068	f3 0f 10 4d f4	 movss	 xmm1, DWORD PTR _vXZDir$[ebp+4]
  0006d	0f 57 c8	 xorps	 xmm1, xmm0
  00070	8d 45 e4	 lea	 eax, DWORD PTR $T524062[ebp]
  00073	50		 push	 eax
  00074	f3 0f 11 4d e8	 movss	 DWORD PTR $T524062[ebp+4], xmm1
  00079	f3 0f 10 4d f8	 movss	 xmm1, DWORD PTR _vXZDir$[ebp+8]
  0007e	8d 45 cc	 lea	 eax, DWORD PTR _qtTargetRot$[ebp]
  00081	0f 57 c8	 xorps	 xmm1, xmm0
  00084	50		 push	 eax
  00085	f3 0f 11 4d ec	 movss	 DWORD PTR $T524062[ebp+8], xmm1
  0008a	ff 15 00 00 00
	00		 call	 DWORD PTR __imp_?CalcDirectionQuaternion@ioMath@@SAXAAUD3DXQUATERNION@@ABUD3DXVECTOR3@@@Z

; 469  : 
; 470  : 	float fCurYaw, fTargetYaw;
; 471  : 	fTargetYaw = RADtoDEG( ioMath::QuaterToYaw( qtTargetRot ) );

  00090	8d 45 cc	 lea	 eax, DWORD PTR _qtTargetRot$[ebp]
  00093	50		 push	 eax
  00094	ff 15 00 00 00
	00		 call	 DWORD PTR __imp_?QuaterToYaw@ioMath@@SAMABUD3DXQUATERNION@@@Z
  0009a	59		 pop	 ecx
  0009b	59		 pop	 ecx
  0009c	d9 1c 24	 fstp	 DWORD PTR [esp]
  0009f	e8 00 00 00 00	 call	 ??$RADtoDEG@M@@YAMM@Z	; RADtoDEG<float>
  000a4	d9 5d c8	 fstp	 DWORD PTR _fTargetYaw$[ebp]

; 472  : 	fTargetYaw = ioMath::ArrangeHead( fTargetYaw );

  000a7	f3 0f 10 45 c8	 movss	 xmm0, DWORD PTR _fTargetYaw$[ebp]
  000ac	f3 0f 11 04 24	 movss	 DWORD PTR [esp], xmm0
  000b1	ff 15 00 00 00
	00		 call	 DWORD PTR __imp_?ArrangeHead@ioMath@@SAMM@Z
  000b7	d9 5d c8	 fstp	 DWORD PTR _fTargetYaw$[ebp]

; 473  : 	fCurYaw = RADtoDEG( ioMath::QuaterToYaw( pOwner->GetTargetRot() ) );

  000ba	8b 75 e0	 mov	 esi, DWORD PTR _pOwner$GSCopy$[ebp]
  000bd	8d 86 a4 06 00
	00		 lea	 eax, DWORD PTR [esi+1700]
  000c3	50		 push	 eax
  000c4	ff 15 00 00 00
	00		 call	 DWORD PTR __imp_?QuaterToYaw@ioMath@@SAMABUD3DXQUATERNION@@@Z
  000ca	59		 pop	 ecx
  000cb	d9 1c 24	 fstp	 DWORD PTR [esp]
  000ce	e8 00 00 00 00	 call	 ??$RADtoDEG@M@@YAMM@Z	; RADtoDEG<float>
  000d3	d9 5d c4	 fstp	 DWORD PTR _fCurYaw$[ebp]

; 474  : 	fCurYaw = ioMath::ArrangeHead( fCurYaw );

  000d6	f3 0f 10 45 c4	 movss	 xmm0, DWORD PTR _fCurYaw$[ebp]
  000db	f3 0f 11 04 24	 movss	 DWORD PTR [esp], xmm0
  000e0	ff 15 00 00 00
	00		 call	 DWORD PTR __imp_?ArrangeHead@ioMath@@SAMM@Z
  000e6	d9 5d c4	 fstp	 DWORD PTR _fCurYaw$[ebp]

; 475  : 
; 476  : 	float fAngleGap = ioMath::AngleGap( fCurYaw, fTargetYaw );

  000e9	f3 0f 10 45 c8	 movss	 xmm0, DWORD PTR _fTargetYaw$[ebp]
  000ee	f3 0f 11 04 24	 movss	 DWORD PTR [esp], xmm0
  000f3	f3 0f 10 45 c4	 movss	 xmm0, DWORD PTR _fCurYaw$[ebp]
  000f8	51		 push	 ecx
  000f9	f3 0f 11 04 24	 movss	 DWORD PTR [esp], xmm0
  000fe	ff 15 00 00 00
	00		 call	 DWORD PTR __imp_?AngleGap@ioMath@@SAMMM@Z
  00104	d9 5d e0	 fstp	 DWORD PTR _fAngleGap$[ebp]
  00107	59		 pop	 ecx
  00108	59		 pop	 ecx

; 477  : 	fAngleGap += FLOAT360;

  00109	b8 68 01 00 00	 mov	 eax, 360		; 00000168H

; 478  : 	int iTest = (int)fAngleGap % 360;

  0010e	89 45 dc	 mov	 DWORD PTR tv759[ebp], eax
  00111	db 45 dc	 fild	 DWORD PTR tv759[ebp]
  00114	85 c0		 test	 eax, eax
  00116	79 06		 jns	 SHORT $LN105@SetDoubleJ
  00118	d8 05 00 00 00
	00		 fadd	 DWORD PTR __real@4f800000
$LN105@SetDoubleJ:
  0011e	d8 45 e0	 fadd	 DWORD PTR _fAngleGap$[ebp]
  00121	d9 5d e0	 fstp	 DWORD PTR tv756[ebp]
  00124	d9 45 e0	 fld	 DWORD PTR tv756[ebp]
  00127	e8 00 00 00 00	 call	 __ftol2_sse
  0012c	99		 cdq
  0012d	b9 68 01 00 00	 mov	 ecx, 360		; 00000168H
  00132	f7 f9		 idiv	 ecx
  00134	89 55 e0	 mov	 DWORD PTR _iTest$[ebp], edx

; 479  : 
; 480  : 	pGrp->ClearAllActionAni( FLOAT100, true );

  00137	b8 64 00 00 00	 mov	 eax, 100		; 00000064H
  0013c	33 ff		 xor	 edi, edi
  0013e	47		 inc	 edi
  0013f	89 45 dc	 mov	 DWORD PTR tv742[ebp], eax
  00142	db 45 dc	 fild	 DWORD PTR tv742[ebp]
  00145	57		 push	 edi
  00146	85 c0		 test	 eax, eax
  00148	79 06		 jns	 SHORT $LN106@SetDoubleJ
  0014a	d8 05 00 00 00
	00		 fadd	 DWORD PTR __real@4f800000
$LN106@SetDoubleJ:
  00150	51		 push	 ecx
  00151	8b 4d c0	 mov	 ecx, DWORD PTR _pGrp$[ebp]
  00154	d9 1c 24	 fstp	 DWORD PTR [esp]
  00157	ff 15 00 00 00
	00		 call	 DWORD PTR __imp_?ClearAllActionAni@ioEntityGroup@@QAEXM_N@Z

; 481  : 
; 482  : 	float fRate = 0.0f;
; 483  : 	int iIndex = -1;
; 484  : 	int iIndex2 = -1;
; 485  : 	iIndex = iTest / 90;

  0015d	8b 45 e0	 mov	 eax, DWORD PTR _iTest$[ebp]
  00160	6a 5a		 push	 90			; 0000005aH
  00162	99		 cdq
  00163	59		 pop	 ecx
  00164	f7 f9		 idiv	 ecx

; 486  : 	iTest = iTest % 90;
; 487  : 
; 488  : 	int iCnt = m_vDoubleJumpAniList.size();

  00166	8b 8b 4c 01 00
	00		 mov	 ecx, DWORD PTR [ebx+332]
  0016c	2b 8b 48 01 00
	00		 sub	 ecx, DWORD PTR [ebx+328]
  00172	c1 f9 04	 sar	 ecx, 4
  00175	89 55 e0	 mov	 DWORD PTR tv733[ebp], edx
  00178	8b d0		 mov	 edx, eax
  0017a	89 55 c8	 mov	 DWORD PTR tv184[ebp], edx

; 489  : 	if( COMPARE( iIndex, 0, iCnt ) )

  0017d	85 d2		 test	 edx, edx
  0017f	0f 88 d4 03 00
	00		 js	 $LN10@SetDoubleJ
  00185	3b d1		 cmp	 edx, ecx
  00187	0f 8d cc 03 00
	00		 jge	 $LN10@SetDoubleJ

; 490  : 	{
; 491  : 		fRate = (float)iTest / FLOAT90;

  0018d	b8 5a 00 00 00	 mov	 eax, 90			; 0000005aH
  00192	db 45 e0	 fild	 DWORD PTR tv733[ebp]
  00195	89 45 e0	 mov	 DWORD PTR tv726[ebp], eax
  00198	db 45 e0	 fild	 DWORD PTR tv726[ebp]
  0019b	85 c0		 test	 eax, eax
  0019d	79 06		 jns	 SHORT $LN107@SetDoubleJ
  0019f	d8 05 00 00 00
	00		 fadd	 DWORD PTR __real@4f800000
$LN107@SetDoubleJ:

; 492  : 		iIndex2 = (iIndex+1) % iCnt;

  001a5	8d 42 01	 lea	 eax, DWORD PTR [edx+1]
  001a8	de f9		 fdivp	 ST(1), ST(0)
  001aa	99		 cdq
  001ab	f7 f9		 idiv	 ecx

; 493  : 
; 494  : 		if( !m_vDoubleJumpAniList[iIndex].IsEmpty() && !m_vDoubleJumpAniList[iIndex2].IsEmpty() )

  001ad	8b 45 c8	 mov	 eax, DWORD PTR tv184[ebp]
  001b0	8b 8b 48 01 00
	00		 mov	 ecx, DWORD PTR [ebx+328]
  001b6	c1 e0 04	 shl	 eax, 4
  001b9	03 c8		 add	 ecx, eax
  001bb	89 45 c8	 mov	 DWORD PTR tv743[ebp], eax
  001be	d9 5d c4	 fstp	 DWORD PTR _fRate$[ebp]
  001c1	89 55 dc	 mov	 DWORD PTR _iIndex2$[ebp], edx
  001c4	ff 15 00 00 00
	00		 call	 DWORD PTR __imp_?IsEmpty@ioHashString@@QBE_NXZ
  001ca	84 c0		 test	 al, al
  001cc	0f 85 6e 01 00
	00		 jne	 $LN9@SetDoubleJ
  001d2	8b 45 dc	 mov	 eax, DWORD PTR _iIndex2$[ebp]
  001d5	8b 8b 48 01 00
	00		 mov	 ecx, DWORD PTR [ebx+328]
  001db	c1 e0 04	 shl	 eax, 4
  001de	03 c8		 add	 ecx, eax
  001e0	89 45 e0	 mov	 DWORD PTR tv748[ebp], eax
  001e3	ff 15 00 00 00
	00		 call	 DWORD PTR __imp_?IsEmpty@ioHashString@@QBE_NXZ
  001e9	84 c0		 test	 al, al
  001eb	0f 85 4f 01 00
	00		 jne	 $LN9@SetDoubleJ

; 495  : 		{
; 496  : 			if( fRate <= FLOAT05 )

  001f1	b8 05 00 00 00	 mov	 eax, 5
  001f6	8b c8		 mov	 ecx, eax
  001f8	b8 0a 00 00 00	 mov	 eax, 10			; 0000000aH
  001fd	d9 45 c4	 fld	 DWORD PTR _fRate$[ebp]
  00200	89 4d dc	 mov	 DWORD PTR tv708[ebp], ecx
  00203	db 45 dc	 fild	 DWORD PTR tv708[ebp]
  00206	85 c9		 test	 ecx, ecx
  00208	79 06		 jns	 SHORT $LN108@SetDoubleJ
  0020a	d8 05 00 00 00
	00		 fadd	 DWORD PTR __real@4f800000
$LN108@SetDoubleJ:
  00210	89 45 dc	 mov	 DWORD PTR tv704[ebp], eax
  00213	db 45 dc	 fild	 DWORD PTR tv704[ebp]
  00216	85 c0		 test	 eax, eax
  00218	79 06		 jns	 SHORT $LN109@SetDoubleJ
  0021a	d8 05 00 00 00
	00		 fadd	 DWORD PTR __real@4f800000
$LN109@SetDoubleJ:
  00220	de f9		 fdivp	 ST(1), ST(0)
  00222	d9 5d dc	 fstp	 DWORD PTR tv660[ebp]
  00225	d9 45 dc	 fld	 DWORD PTR tv660[ebp]
  00228	df f1		 fcomip	 ST(1)
  0022a	dd d8		 fstp	 ST(0)
  0022c	0f 82 9d 00 00
	00		 jb	 $LN8@SetDoubleJ

; 497  : 				pGrp->SetActionAni( m_vDoubleJumpAniList[iIndex], FLOAT100, FLOAT100, (FLOAT1 - fRate), FLOAT1/m_fDoubleJumpAniRate, 0.0f, 0, true );

  00232	b8 01 00 00 00	 mov	 eax, 1
  00237	8b c8		 mov	 ecx, eax
  00239	b8 01 00 00 00	 mov	 eax, 1
  0023e	8b d0		 mov	 edx, eax
  00240	b8 64 00 00 00	 mov	 eax, 100		; 00000064H
  00245	8b f0		 mov	 esi, eax
  00247	b8 64 00 00 00	 mov	 eax, 100		; 00000064H
  0024c	0f 57 c0	 xorps	 xmm0, xmm0
  0024f	57		 push	 edi
  00250	57		 push	 edi
  00251	83 ec 18	 sub	 esp, 24			; 00000018H
  00254	89 4d e0	 mov	 DWORD PTR tv664[ebp], ecx
  00257	db 45 e0	 fild	 DWORD PTR tv664[ebp]
  0025a	f3 0f 11 44 24
	14		 movss	 DWORD PTR [esp+20], xmm0
  00260	f3 0f 11 44 24
	10		 movss	 DWORD PTR [esp+16], xmm0
  00266	85 c9		 test	 ecx, ecx
  00268	79 06		 jns	 SHORT $LN110@SetDoubleJ
  0026a	d8 05 00 00 00
	00		 fadd	 DWORD PTR __real@4f800000
$LN110@SetDoubleJ:
  00270	d8 b3 44 01 00
	00		 fdiv	 DWORD PTR [ebx+324]
  00276	d9 5d e0	 fstp	 DWORD PTR tv667[ebp]
  00279	d9 45 e0	 fld	 DWORD PTR tv667[ebp]
  0027c	d9 5c 24 0c	 fstp	 DWORD PTR [esp+12]
  00280	89 55 e0	 mov	 DWORD PTR tv669[ebp], edx
  00283	db 45 e0	 fild	 DWORD PTR tv669[ebp]
  00286	85 d2		 test	 edx, edx
  00288	79 06		 jns	 SHORT $LN111@SetDoubleJ
  0028a	d8 05 00 00 00
	00		 fadd	 DWORD PTR __real@4f800000
$LN111@SetDoubleJ:
  00290	d8 65 c4	 fsub	 DWORD PTR _fRate$[ebp]
  00293	d9 5d e0	 fstp	 DWORD PTR tv672[ebp]
  00296	d9 45 e0	 fld	 DWORD PTR tv672[ebp]
  00299	89 75 e0	 mov	 DWORD PTR tv547[ebp], esi
  0029c	d9 5c 24 08	 fstp	 DWORD PTR [esp+8]
  002a0	db 45 e0	 fild	 DWORD PTR tv547[ebp]
  002a3	85 f6		 test	 esi, esi
  002a5	79 06		 jns	 SHORT $LN112@SetDoubleJ
  002a7	d8 05 00 00 00
	00		 fadd	 DWORD PTR __real@4f800000
$LN112@SetDoubleJ:
  002ad	89 45 e0	 mov	 DWORD PTR tv296[ebp], eax
  002b0	d9 5c 24 04	 fstp	 DWORD PTR [esp+4]
  002b4	db 45 e0	 fild	 DWORD PTR tv296[ebp]
$LN139@SetDoubleJ:
  002b7	85 c0		 test	 eax, eax
  002b9	79 06		 jns	 SHORT $LN113@SetDoubleJ
  002bb	d8 05 00 00 00
	00		 fadd	 DWORD PTR __real@4f800000
$LN113@SetDoubleJ:
  002c1	8b 83 48 01 00
	00		 mov	 eax, DWORD PTR [ebx+328]
  002c7	03 45 c8	 add	 eax, DWORD PTR tv743[ebp]

; 498  : 			else

  002ca	e9 e8 01 00 00	 jmp	 $LN137@SetDoubleJ
$LN8@SetDoubleJ:

; 499  : 				pGrp->SetActionAni( m_vDoubleJumpAniList[iIndex2], FLOAT100, FLOAT100, fRate, FLOAT1/m_fDoubleJumpAniRate, 0.0f, 0, true );

  002cf	b8 01 00 00 00	 mov	 eax, 1
  002d4	8b c8		 mov	 ecx, eax
  002d6	b8 64 00 00 00	 mov	 eax, 100		; 00000064H
  002db	8b d0		 mov	 edx, eax
  002dd	b8 64 00 00 00	 mov	 eax, 100		; 00000064H
  002e2	0f 57 c0	 xorps	 xmm0, xmm0
  002e5	57		 push	 edi
  002e6	57		 push	 edi
  002e7	83 ec 18	 sub	 esp, 24			; 00000018H
  002ea	89 4d dc	 mov	 DWORD PTR tv149[ebp], ecx
  002ed	db 45 dc	 fild	 DWORD PTR tv149[ebp]
  002f0	f3 0f 11 44 24
	14		 movss	 DWORD PTR [esp+20], xmm0
  002f6	f3 0f 11 44 24
	10		 movss	 DWORD PTR [esp+16], xmm0
  002fc	85 c9		 test	 ecx, ecx
  002fe	79 06		 jns	 SHORT $LN114@SetDoubleJ
  00300	d8 05 00 00 00
	00		 fadd	 DWORD PTR __real@4f800000
$LN114@SetDoubleJ:
  00306	d8 b3 44 01 00
	00		 fdiv	 DWORD PTR [ebx+324]
  0030c	f3 0f 10 45 c4	 movss	 xmm0, DWORD PTR _fRate$[ebp]
  00311	d9 5d dc	 fstp	 DWORD PTR tv146[ebp]
  00314	d9 45 dc	 fld	 DWORD PTR tv146[ebp]
  00317	d9 5c 24 0c	 fstp	 DWORD PTR [esp+12]
  0031b	89 55 dc	 mov	 DWORD PTR tv92[ebp], edx
  0031e	db 45 dc	 fild	 DWORD PTR tv92[ebp]
  00321	f3 0f 11 44 24
	08		 movss	 DWORD PTR [esp+8], xmm0
  00327	85 d2		 test	 edx, edx
  00329	79 06		 jns	 SHORT $LN115@SetDoubleJ
  0032b	d8 05 00 00 00
	00		 fadd	 DWORD PTR __real@4f800000
$LN115@SetDoubleJ:
  00331	89 45 dc	 mov	 DWORD PTR tv452[ebp], eax
  00334	d9 5c 24 04	 fstp	 DWORD PTR [esp+4]
  00338	db 45 dc	 fild	 DWORD PTR tv452[ebp]
  0033b	e9 64 01 00 00	 jmp	 $LN138@SetDoubleJ
$LN9@SetDoubleJ:

; 500  : 		}
; 501  : 		else if( !m_vDoubleJumpAniList[iIndex].IsEmpty() && m_vDoubleJumpAniList[iIndex2].IsEmpty() )

  00340	8b 8b 48 01 00
	00		 mov	 ecx, DWORD PTR [ebx+328]
  00346	03 4d c8	 add	 ecx, DWORD PTR tv743[ebp]
  00349	ff 15 00 00 00
	00		 call	 DWORD PTR __imp_?IsEmpty@ioHashString@@QBE_NXZ
  0034f	84 c0		 test	 al, al
  00351	0f 85 9b 00 00
	00		 jne	 $LN5@SetDoubleJ
  00357	8b 4d dc	 mov	 ecx, DWORD PTR _iIndex2$[ebp]
  0035a	c1 e1 04	 shl	 ecx, 4
  0035d	03 8b 48 01 00
	00		 add	 ecx, DWORD PTR [ebx+328]
  00363	ff 15 00 00 00
	00		 call	 DWORD PTR __imp_?IsEmpty@ioHashString@@QBE_NXZ
  00369	84 c0		 test	 al, al
  0036b	0f 84 81 00 00
	00		 je	 $LN5@SetDoubleJ

; 502  : 		{
; 503  : 			pGrp->SetActionAni( m_vDoubleJumpAniList[iIndex], FLOAT100, FLOAT100, FLOAT1, FLOAT1/m_fDoubleJumpAniRate, 0.0f, 0, true );

  00371	b8 01 00 00 00	 mov	 eax, 1
  00376	8b c8		 mov	 ecx, eax
  00378	b8 01 00 00 00	 mov	 eax, 1
  0037d	8b d0		 mov	 edx, eax
  0037f	b8 64 00 00 00	 mov	 eax, 100		; 00000064H
  00384	8b f0		 mov	 esi, eax
  00386	b8 64 00 00 00	 mov	 eax, 100		; 00000064H
  0038b	0f 57 c0	 xorps	 xmm0, xmm0
  0038e	57		 push	 edi
  0038f	57		 push	 edi
  00390	83 ec 18	 sub	 esp, 24			; 00000018H
  00393	89 4d e0	 mov	 DWORD PTR tv633[ebp], ecx
  00396	db 45 e0	 fild	 DWORD PTR tv633[ebp]
  00399	f3 0f 11 44 24
	14		 movss	 DWORD PTR [esp+20], xmm0
  0039f	f3 0f 11 44 24
	10		 movss	 DWORD PTR [esp+16], xmm0
  003a5	85 c9		 test	 ecx, ecx
  003a7	79 06		 jns	 SHORT $LN117@SetDoubleJ
  003a9	d8 05 00 00 00
	00		 fadd	 DWORD PTR __real@4f800000
$LN117@SetDoubleJ:
  003af	d8 b3 44 01 00
	00		 fdiv	 DWORD PTR [ebx+324]
  003b5	d9 5d e0	 fstp	 DWORD PTR tv630[ebp]
  003b8	d9 45 e0	 fld	 DWORD PTR tv630[ebp]
  003bb	d9 5c 24 0c	 fstp	 DWORD PTR [esp+12]
  003bf	89 55 e0	 mov	 DWORD PTR tv628[ebp], edx
  003c2	db 45 e0	 fild	 DWORD PTR tv628[ebp]
  003c5	85 d2		 test	 edx, edx
  003c7	79 06		 jns	 SHORT $LN118@SetDoubleJ
  003c9	d8 05 00 00 00
	00		 fadd	 DWORD PTR __real@4f800000
$LN118@SetDoubleJ:
  003cf	89 75 e0	 mov	 DWORD PTR tv626[ebp], esi
  003d2	d9 5c 24 08	 fstp	 DWORD PTR [esp+8]
  003d6	db 45 e0	 fild	 DWORD PTR tv626[ebp]
  003d9	85 f6		 test	 esi, esi
  003db	79 06		 jns	 SHORT $LN119@SetDoubleJ
  003dd	d8 05 00 00 00
	00		 fadd	 DWORD PTR __real@4f800000
$LN119@SetDoubleJ:
  003e3	89 45 e0	 mov	 DWORD PTR tv624[ebp], eax
  003e6	d9 5c 24 04	 fstp	 DWORD PTR [esp+4]
  003ea	db 45 e0	 fild	 DWORD PTR tv624[ebp]
  003ed	e9 c5 fe ff ff	 jmp	 $LN139@SetDoubleJ
$LN5@SetDoubleJ:

; 504  : 		}
; 505  : 		else if( !m_vDoubleJumpAniList[iIndex2].IsEmpty() && m_vDoubleJumpAniList[iIndex].IsEmpty() )

  003f2	8b 45 dc	 mov	 eax, DWORD PTR _iIndex2$[ebp]
  003f5	8b 8b 48 01 00
	00		 mov	 ecx, DWORD PTR [ebx+328]
  003fb	c1 e0 04	 shl	 eax, 4
  003fe	03 c8		 add	 ecx, eax
  00400	89 45 e0	 mov	 DWORD PTR tv748[ebp], eax
  00403	ff 15 00 00 00
	00		 call	 DWORD PTR __imp_?IsEmpty@ioHashString@@QBE_NXZ
  00409	84 c0		 test	 al, al
  0040b	0f 85 b8 00 00
	00		 jne	 $LN3@SetDoubleJ
  00411	8b 8b 48 01 00
	00		 mov	 ecx, DWORD PTR [ebx+328]
  00417	03 4d c8	 add	 ecx, DWORD PTR tv743[ebp]
  0041a	ff 15 00 00 00
	00		 call	 DWORD PTR __imp_?IsEmpty@ioHashString@@QBE_NXZ
  00420	84 c0		 test	 al, al
  00422	0f 84 a1 00 00
	00		 je	 $LN3@SetDoubleJ

; 506  : 		{
; 507  : 			pGrp->SetActionAni( m_vDoubleJumpAniList[iIndex2], FLOAT100, FLOAT100, FLOAT1, FLOAT1/m_fDoubleJumpAniRate, 0.0f, 0, true );

  00428	b8 01 00 00 00	 mov	 eax, 1
  0042d	8b c8		 mov	 ecx, eax
  0042f	b8 01 00 00 00	 mov	 eax, 1
  00434	8b d0		 mov	 edx, eax
  00436	b8 64 00 00 00	 mov	 eax, 100		; 00000064H
  0043b	8b f0		 mov	 esi, eax
  0043d	b8 64 00 00 00	 mov	 eax, 100		; 00000064H
  00442	0f 57 c0	 xorps	 xmm0, xmm0
  00445	57		 push	 edi
  00446	57		 push	 edi
  00447	83 ec 18	 sub	 esp, 24			; 00000018H
  0044a	89 4d dc	 mov	 DWORD PTR tv568[ebp], ecx
  0044d	db 45 dc	 fild	 DWORD PTR tv568[ebp]
  00450	f3 0f 11 44 24
	14		 movss	 DWORD PTR [esp+20], xmm0
  00456	f3 0f 11 44 24
	10		 movss	 DWORD PTR [esp+16], xmm0
  0045c	85 c9		 test	 ecx, ecx
  0045e	79 06		 jns	 SHORT $LN121@SetDoubleJ
  00460	d8 05 00 00 00
	00		 fadd	 DWORD PTR __real@4f800000
$LN121@SetDoubleJ:
  00466	d8 b3 44 01 00
	00		 fdiv	 DWORD PTR [ebx+324]
  0046c	d9 5d dc	 fstp	 DWORD PTR tv565[ebp]
  0046f	d9 45 dc	 fld	 DWORD PTR tv565[ebp]
  00472	d9 5c 24 0c	 fstp	 DWORD PTR [esp+12]
  00476	89 55 dc	 mov	 DWORD PTR tv561[ebp], edx
  00479	db 45 dc	 fild	 DWORD PTR tv561[ebp]
  0047c	85 d2		 test	 edx, edx
  0047e	79 06		 jns	 SHORT $LN122@SetDoubleJ
  00480	d8 05 00 00 00
	00		 fadd	 DWORD PTR __real@4f800000
$LN122@SetDoubleJ:
  00486	89 75 dc	 mov	 DWORD PTR tv559[ebp], esi
  00489	d9 5c 24 08	 fstp	 DWORD PTR [esp+8]
  0048d	db 45 dc	 fild	 DWORD PTR tv559[ebp]
  00490	85 f6		 test	 esi, esi
  00492	79 06		 jns	 SHORT $LN123@SetDoubleJ
  00494	d8 05 00 00 00
	00		 fadd	 DWORD PTR __real@4f800000
$LN123@SetDoubleJ:
  0049a	89 45 dc	 mov	 DWORD PTR tv555[ebp], eax
  0049d	d9 5c 24 04	 fstp	 DWORD PTR [esp+4]
  004a1	db 45 dc	 fild	 DWORD PTR tv555[ebp]
$LN138@SetDoubleJ:
  004a4	85 c0		 test	 eax, eax
  004a6	79 06		 jns	 SHORT $LN124@SetDoubleJ
  004a8	d8 05 00 00 00
	00		 fadd	 DWORD PTR __real@4f800000
$LN124@SetDoubleJ:
  004ae	8b 83 48 01 00
	00		 mov	 eax, DWORD PTR [ebx+328]
  004b4	03 45 e0	 add	 eax, DWORD PTR tv748[ebp]
$LN137@SetDoubleJ:
  004b7	8b 4d c0	 mov	 ecx, DWORD PTR _pGrp$[ebp]
  004ba	d9 1c 24	 fstp	 DWORD PTR [esp]
  004bd	50		 push	 eax
  004be	ff 15 00 00 00
	00		 call	 DWORD PTR __imp_?SetActionAni@ioEntityGroup@@QAE_NABVioHashString@@MMMMMM_N1@Z

; 508  : 		}
; 509  : 		else

  004c4	e9 32 01 00 00	 jmp	 $LN1@SetDoubleJ
$LN3@SetDoubleJ:

; 510  : 		{
; 511  : 			int iAniID = pOwner->GetJumppingAnimationIdx();

  004c9	8b 06		 mov	 eax, DWORD PTR [esi]
  004cb	6a 00		 push	 0
  004cd	8b ce		 mov	 ecx, esi
  004cf	ff 90 6c 01 00
	00		 call	 DWORD PTR [eax+364]
  004d5	8b c8		 mov	 ecx, eax

; 512  : 			pGrp->SetActionAni( iAniID, FLOAT100, FLOAT100, FLOAT1, FLOAT1/m_fDoubleJumpAniRate, 0.0f, 0, true );

  004d7	b8 01 00 00 00	 mov	 eax, 1
  004dc	8b d0		 mov	 edx, eax
  004de	b8 01 00 00 00	 mov	 eax, 1
  004e3	8b f0		 mov	 esi, eax
  004e5	b8 64 00 00 00	 mov	 eax, 100		; 00000064H
  004ea	89 45 dc	 mov	 DWORD PTR $T528026[ebp], eax
  004ed	b8 64 00 00 00	 mov	 eax, 100		; 00000064H
  004f2	0f 57 c0	 xorps	 xmm0, xmm0
  004f5	57		 push	 edi
  004f6	57		 push	 edi
  004f7	83 ec 18	 sub	 esp, 24			; 00000018H
  004fa	89 55 e0	 mov	 DWORD PTR tv489[ebp], edx
  004fd	db 45 e0	 fild	 DWORD PTR tv489[ebp]
  00500	f3 0f 11 44 24
	14		 movss	 DWORD PTR [esp+20], xmm0
  00506	f3 0f 11 44 24
	10		 movss	 DWORD PTR [esp+16], xmm0
  0050c	85 d2		 test	 edx, edx
  0050e	79 06		 jns	 SHORT $LN125@SetDoubleJ
  00510	d8 05 00 00 00
	00		 fadd	 DWORD PTR __real@4f800000
$LN125@SetDoubleJ:
  00516	d8 b3 44 01 00
	00		 fdiv	 DWORD PTR [ebx+324]
  0051c	d9 5d e0	 fstp	 DWORD PTR tv484[ebp]
  0051f	d9 45 e0	 fld	 DWORD PTR tv484[ebp]
  00522	d9 5c 24 0c	 fstp	 DWORD PTR [esp+12]
  00526	89 75 e0	 mov	 DWORD PTR tv482[ebp], esi
  00529	db 45 e0	 fild	 DWORD PTR tv482[ebp]
  0052c	85 f6		 test	 esi, esi
  0052e	79 06		 jns	 SHORT $LN126@SetDoubleJ
  00530	d8 05 00 00 00
	00		 fadd	 DWORD PTR __real@4f800000
$LN126@SetDoubleJ:
  00536	8b 55 dc	 mov	 edx, DWORD PTR $T528026[ebp]
  00539	d9 5c 24 08	 fstp	 DWORD PTR [esp+8]
  0053d	db 45 dc	 fild	 DWORD PTR $T528026[ebp]
  00540	85 d2		 test	 edx, edx
  00542	79 06		 jns	 SHORT $LN127@SetDoubleJ
  00544	d8 05 00 00 00
	00		 fadd	 DWORD PTR __real@4f800000
$LN127@SetDoubleJ:
  0054a	89 45 e0	 mov	 DWORD PTR tv476[ebp], eax
  0054d	d9 5c 24 04	 fstp	 DWORD PTR [esp+4]
  00551	db 45 e0	 fild	 DWORD PTR tv476[ebp]

; 513  : 		}
; 514  : 	}
; 515  : 	else

  00554	e9 8b 00 00 00	 jmp	 $LN134@SetDoubleJ
$LN10@SetDoubleJ:

; 516  : 	{
; 517  : 		int iAniID = pOwner->GetJumppingAnimationIdx();

  00559	8b 06		 mov	 eax, DWORD PTR [esi]
  0055b	6a 00		 push	 0
  0055d	8b ce		 mov	 ecx, esi
  0055f	ff 90 6c 01 00
	00		 call	 DWORD PTR [eax+364]
  00565	8b c8		 mov	 ecx, eax

; 518  : 		pGrp->SetActionAni( iAniID, FLOAT100, FLOAT100, FLOAT1, FLOAT1/m_fDoubleJumpAniRate, 0.0f, 0, true );

  00567	b8 01 00 00 00	 mov	 eax, 1
  0056c	8b d0		 mov	 edx, eax
  0056e	b8 01 00 00 00	 mov	 eax, 1
  00573	8b f0		 mov	 esi, eax
  00575	b8 64 00 00 00	 mov	 eax, 100		; 00000064H
  0057a	89 45 dc	 mov	 DWORD PTR $T528042[ebp], eax
  0057d	b8 64 00 00 00	 mov	 eax, 100		; 00000064H
  00582	0f 57 c0	 xorps	 xmm0, xmm0
  00585	57		 push	 edi
  00586	57		 push	 edi
  00587	83 ec 18	 sub	 esp, 24			; 00000018H
  0058a	89 55 e0	 mov	 DWORD PTR tv456[ebp], edx
  0058d	db 45 e0	 fild	 DWORD PTR tv456[ebp]
  00590	f3 0f 11 44 24
	14		 movss	 DWORD PTR [esp+20], xmm0
  00596	f3 0f 11 44 24
	10		 movss	 DWORD PTR [esp+16], xmm0
  0059c	85 d2		 test	 edx, edx
  0059e	79 06		 jns	 SHORT $LN129@SetDoubleJ
  005a0	d8 05 00 00 00
	00		 fadd	 DWORD PTR __real@4f800000
$LN129@SetDoubleJ:
  005a6	d8 b3 44 01 00
	00		 fdiv	 DWORD PTR [ebx+324]
  005ac	d9 5d e0	 fstp	 DWORD PTR tv453[ebp]
  005af	d9 45 e0	 fld	 DWORD PTR tv453[ebp]
  005b2	d9 5c 24 0c	 fstp	 DWORD PTR [esp+12]
  005b6	89 75 e0	 mov	 DWORD PTR tv450[ebp], esi
  005b9	db 45 e0	 fild	 DWORD PTR tv450[ebp]
  005bc	85 f6		 test	 esi, esi
  005be	79 06		 jns	 SHORT $LN130@SetDoubleJ
  005c0	d8 05 00 00 00
	00		 fadd	 DWORD PTR __real@4f800000
$LN130@SetDoubleJ:
  005c6	8b 55 dc	 mov	 edx, DWORD PTR $T528042[ebp]
  005c9	d9 5c 24 08	 fstp	 DWORD PTR [esp+8]
  005cd	db 45 dc	 fild	 DWORD PTR $T528042[ebp]
  005d0	85 d2		 test	 edx, edx
  005d2	79 06		 jns	 SHORT $LN131@SetDoubleJ
  005d4	d8 05 00 00 00
	00		 fadd	 DWORD PTR __real@4f800000
$LN131@SetDoubleJ:
  005da	89 45 e0	 mov	 DWORD PTR tv446[ebp], eax
  005dd	d9 5c 24 04	 fstp	 DWORD PTR [esp+4]
  005e1	db 45 e0	 fild	 DWORD PTR tv446[ebp]
$LN134@SetDoubleJ:
  005e4	85 c0		 test	 eax, eax
  005e6	79 06		 jns	 SHORT $LN132@SetDoubleJ
  005e8	d8 05 00 00 00
	00		 fadd	 DWORD PTR __real@4f800000
$LN132@SetDoubleJ:
  005ee	d9 1c 24	 fstp	 DWORD PTR [esp]
  005f1	51		 push	 ecx
  005f2	8b 4d c0	 mov	 ecx, DWORD PTR _pGrp$[ebp]
  005f5	ff 15 00 00 00
	00		 call	 DWORD PTR __imp_?SetActionAni@ioEntityGroup@@QAE_NHMMMMMM_N0@Z
$LN1@SetDoubleJ:

; 519  : 	}
; 520  : 	//
; 521  : }

  005fb	8b 4d fc	 mov	 ecx, DWORD PTR __$ArrayPad$[ebp]
  005fe	5f		 pop	 edi
  005ff	5e		 pop	 esi
  00600	33 cd		 xor	 ecx, ebp
  00602	5b		 pop	 ebx
  00603	e8 00 00 00 00	 call	 @__security_check_cookie@4
  00608	c9		 leave
  00609	c2 04 00	 ret	 4
?SetDoubleJumpAni@ioKisaragiJump@@IAEXPAVioBaseChar@@@Z ENDP ; ioKisaragiJump::SetDoubleJumpAni
_TEXT	ENDS
PUBLIC	_qtRot$GSCopy$
PUBLIC	__$ArrayPad$
PUBLIC	?GetExtraJumpSpeedRate@ioKisaragiJump@@UBEMABUD3DXVECTOR3@@ABUD3DXQUATERNION@@@Z ; ioKisaragiJump::GetExtraJumpSpeedRate
; Function compile flags: /Ogsp
;	COMDAT ?GetExtraJumpSpeedRate@ioKisaragiJump@@UBEMABUD3DXVECTOR3@@ABUD3DXQUATERNION@@@Z
_TEXT	SEGMENT
_qtTargetRot$524126 = -52				; size = 16
tv225 = -36						; size = 4
_fTargetYaw$524129 = -36				; size = 4
tv195 = -32						; size = 4
_qtRot$GSCopy$ = -32					; size = 4
_fAngleGap$524130 = -32					; size = 4
_fCurYaw$524128 = -32					; size = 4
$T524127 = -28						; size = 12
_vCurDir$524124 = -28					; size = 12
_vXZDir$524125 = -16					; size = 12
__$ArrayPad$ = -4					; size = 4
_vDir$ = 8						; size = 4
_qtRot$ = 12						; size = 4
?GetExtraJumpSpeedRate@ioKisaragiJump@@UBEMABUD3DXVECTOR3@@ABUD3DXQUATERNION@@@Z PROC ; ioKisaragiJump::GetExtraJumpSpeedRate, COMDAT
; _this$ = ecx

; 524  : {

  00000	55		 push	 ebp
  00001	8b ec		 mov	 ebp, esp
  00003	83 ec 34	 sub	 esp, 52			; 00000034H
  00006	a1 00 00 00 00	 mov	 eax, DWORD PTR ___security_cookie
  0000b	33 c5		 xor	 eax, ebp
  0000d	89 45 fc	 mov	 DWORD PTR __$ArrayPad$[ebp], eax
  00010	8b 45 0c	 mov	 eax, DWORD PTR _qtRot$[ebp]
  00013	53		 push	 ebx
  00014	8b d9		 mov	 ebx, ecx

; 525  : 	if( m_bUsedDoubleJump )

  00016	80 bb 58 01 00
	00 00		 cmp	 BYTE PTR [ebx+344], 0
  0001d	56		 push	 esi
  0001e	8b 75 08	 mov	 esi, DWORD PTR _vDir$[ebp]

; 560  : 		}
; 561  : 	}
; 562  : 
; 563  : 	return m_fJumpSpeedRate;

  00021	89 45 e0	 mov	 DWORD PTR _qtRot$GSCopy$[ebp], eax
  00024	0f 84 3b 01 00
	00		 je	 $LN4@GetExtraJu

; 526  : 	{
; 527  : 		D3DXVECTOR3 vCurDir = vDir;

  0002a	57		 push	 edi
  0002b	8d 7d e4	 lea	 edi, DWORD PTR _vCurDir$524124[ebp]
  0002e	a5		 movsd
  0002f	a5		 movsd
  00030	a5		 movsd

; 528  : 
; 529  : 		D3DXVECTOR3 vXZDir( vCurDir.x, 0.0f, vCurDir.z );

  00031	f3 0f 10 45 e4	 movss	 xmm0, DWORD PTR _vCurDir$524124[ebp]

; 530  : 		D3DXVec3Normalize( &vXZDir, &vXZDir );

  00036	8d 45 f0	 lea	 eax, DWORD PTR _vXZDir$524125[ebp]
  00039	f3 0f 11 45 f0	 movss	 DWORD PTR _vXZDir$524125[ebp], xmm0
  0003e	0f 57 c0	 xorps	 xmm0, xmm0
  00041	50		 push	 eax
  00042	f3 0f 11 45 f4	 movss	 DWORD PTR _vXZDir$524125[ebp+4], xmm0
  00047	f3 0f 10 45 ec	 movss	 xmm0, DWORD PTR _vCurDir$524124[ebp+8]
  0004c	50		 push	 eax
  0004d	f3 0f 11 45 f8	 movss	 DWORD PTR _vXZDir$524125[ebp+8], xmm0
  00052	e8 00 00 00 00	 call	 _D3DXVec3Normalize@8

; 531  : 
; 532  : 		D3DXQUATERNION qtTargetRot;
; 533  : 		ioMath::CalcDirectionQuaternion( qtTargetRot, -vXZDir );

  00057	f3 0f 10 05 00
	00 00 00	 movss	 xmm0, DWORD PTR __mask@@NegFloat@
  0005f	f3 0f 10 4d f0	 movss	 xmm1, DWORD PTR _vXZDir$524125[ebp]
  00064	0f 57 c8	 xorps	 xmm1, xmm0
  00067	f3 0f 11 4d e4	 movss	 DWORD PTR $T524127[ebp], xmm1
  0006c	f3 0f 10 4d f4	 movss	 xmm1, DWORD PTR _vXZDir$524125[ebp+4]
  00071	0f 57 c8	 xorps	 xmm1, xmm0
  00074	8d 45 e4	 lea	 eax, DWORD PTR $T524127[ebp]
  00077	50		 push	 eax
  00078	f3 0f 11 4d e8	 movss	 DWORD PTR $T524127[ebp+4], xmm1
  0007d	f3 0f 10 4d f8	 movss	 xmm1, DWORD PTR _vXZDir$524125[ebp+8]
  00082	8d 45 cc	 lea	 eax, DWORD PTR _qtTargetRot$524126[ebp]
  00085	0f 57 c8	 xorps	 xmm1, xmm0
  00088	50		 push	 eax
  00089	f3 0f 11 4d ec	 movss	 DWORD PTR $T524127[ebp+8], xmm1
  0008e	ff 15 00 00 00
	00		 call	 DWORD PTR __imp_?CalcDirectionQuaternion@ioMath@@SAXAAUD3DXQUATERNION@@ABUD3DXVECTOR3@@@Z

; 534  : 
; 535  : 		float fCurYaw, fTargetYaw;
; 536  : 		fTargetYaw = RADtoDEG( ioMath::QuaterToYaw( qtTargetRot ) );

  00094	8d 45 cc	 lea	 eax, DWORD PTR _qtTargetRot$524126[ebp]
  00097	50		 push	 eax
  00098	ff 15 00 00 00
	00		 call	 DWORD PTR __imp_?QuaterToYaw@ioMath@@SAMABUD3DXQUATERNION@@@Z
  0009e	59		 pop	 ecx
  0009f	59		 pop	 ecx
  000a0	d9 1c 24	 fstp	 DWORD PTR [esp]
  000a3	e8 00 00 00 00	 call	 ??$RADtoDEG@M@@YAMM@Z	; RADtoDEG<float>
  000a8	d9 5d dc	 fstp	 DWORD PTR _fTargetYaw$524129[ebp]

; 537  : 		fTargetYaw = ioMath::ArrangeHead( fTargetYaw );

  000ab	f3 0f 10 45 dc	 movss	 xmm0, DWORD PTR _fTargetYaw$524129[ebp]
  000b0	f3 0f 11 04 24	 movss	 DWORD PTR [esp], xmm0
  000b5	ff 15 00 00 00
	00		 call	 DWORD PTR __imp_?ArrangeHead@ioMath@@SAMM@Z
  000bb	d9 5d dc	 fstp	 DWORD PTR _fTargetYaw$524129[ebp]

; 538  : 		fCurYaw = RADtoDEG( ioMath::QuaterToYaw( qtRot ) );

  000be	ff 75 e0	 push	 DWORD PTR _qtRot$GSCopy$[ebp]
  000c1	ff 15 00 00 00
	00		 call	 DWORD PTR __imp_?QuaterToYaw@ioMath@@SAMABUD3DXQUATERNION@@@Z
  000c7	59		 pop	 ecx
  000c8	d9 1c 24	 fstp	 DWORD PTR [esp]
  000cb	e8 00 00 00 00	 call	 ??$RADtoDEG@M@@YAMM@Z	; RADtoDEG<float>
  000d0	d9 5d e0	 fstp	 DWORD PTR _fCurYaw$524128[ebp]

; 539  : 		fCurYaw = ioMath::ArrangeHead( fCurYaw );

  000d3	f3 0f 10 45 e0	 movss	 xmm0, DWORD PTR _fCurYaw$524128[ebp]
  000d8	f3 0f 11 04 24	 movss	 DWORD PTR [esp], xmm0
  000dd	ff 15 00 00 00
	00		 call	 DWORD PTR __imp_?ArrangeHead@ioMath@@SAMM@Z
  000e3	d9 5d e0	 fstp	 DWORD PTR _fCurYaw$524128[ebp]

; 540  : 
; 541  : 		float fAngleGap = ioMath::AngleGap( fCurYaw, fTargetYaw );

  000e6	f3 0f 10 45 dc	 movss	 xmm0, DWORD PTR _fTargetYaw$524129[ebp]
  000eb	f3 0f 11 04 24	 movss	 DWORD PTR [esp], xmm0
  000f0	f3 0f 10 45 e0	 movss	 xmm0, DWORD PTR _fCurYaw$524128[ebp]
  000f5	51		 push	 ecx
  000f6	f3 0f 11 04 24	 movss	 DWORD PTR [esp], xmm0
  000fb	ff 15 00 00 00
	00		 call	 DWORD PTR __imp_?AngleGap@ioMath@@SAMMM@Z
  00101	d9 5d e0	 fstp	 DWORD PTR _fAngleGap$524130[ebp]
  00104	59		 pop	 ecx
  00105	59		 pop	 ecx

; 542  : 		fAngleGap += FLOAT360;

  00106	b8 68 01 00 00	 mov	 eax, 360		; 00000168H

; 543  : 
; 544  : 		int iTest = (int)fAngleGap % 360;
; 545  : 		iTest /= 45;

  0010b	89 45 dc	 mov	 DWORD PTR tv225[ebp], eax
  0010e	db 45 dc	 fild	 DWORD PTR tv225[ebp]
  00111	85 c0		 test	 eax, eax
  00113	79 06		 jns	 SHORT $LN20@GetExtraJu
  00115	d8 05 00 00 00
	00		 fadd	 DWORD PTR __real@4f800000
$LN20@GetExtraJu:
  0011b	d8 45 e0	 fadd	 DWORD PTR _fAngleGap$524130[ebp]
  0011e	d9 5d e0	 fstp	 DWORD PTR tv195[ebp]
  00121	d9 45 e0	 fld	 DWORD PTR tv195[ebp]
  00124	e8 00 00 00 00	 call	 __ftol2_sse
  00129	99		 cdq
  0012a	b9 68 01 00 00	 mov	 ecx, 360		; 00000168H
  0012f	f7 f9		 idiv	 ecx
  00131	6a 2d		 push	 45			; 0000002dH
  00133	59		 pop	 ecx
  00134	5f		 pop	 edi
  00135	8b c2		 mov	 eax, edx
  00137	99		 cdq
  00138	f7 f9		 idiv	 ecx

; 546  : 
; 547  : 		switch( iTest )

  0013a	83 f8 07	 cmp	 eax, 7
  0013d	77 26		 ja	 SHORT $LN4@GetExtraJu
  0013f	0f b6 80 00 00
	00 00		 movzx	 eax, BYTE PTR $LN19@GetExtraJu[eax]
  00146	ff 24 85 00 00
	00 00		 jmp	 DWORD PTR $LN21@GetExtraJu[eax*4]
$LN3@GetExtraJu:

; 548  : 		{
; 549  : 		case 0:
; 550  : 		case 7:
; 551  : 			return m_fDoubleJumpSpeedRateFR;

  0014d	d9 83 38 01 00
	00		 fld	 DWORD PTR [ebx+312]
  00153	eb 13		 jmp	 SHORT $LN7@GetExtraJu
$LN2@GetExtraJu:

; 552  : 		case 1:
; 553  : 		case 2:
; 554  : 		case 5:
; 555  : 		case 6:
; 556  : 			return m_fDoubleJumpSpeedRateSI;

  00155	d9 83 3c 01 00
	00		 fld	 DWORD PTR [ebx+316]
  0015b	eb 0b		 jmp	 SHORT $LN7@GetExtraJu
$LN1@GetExtraJu:

; 557  : 		case 3:
; 558  : 		case 4:
; 559  : 			return m_fDoubleJumpSpeedRateBG;

  0015d	d9 83 40 01 00
	00		 fld	 DWORD PTR [ebx+320]
  00163	eb 03		 jmp	 SHORT $LN7@GetExtraJu
$LN4@GetExtraJu:

; 560  : 		}
; 561  : 	}
; 562  : 
; 563  : 	return m_fJumpSpeedRate;

  00165	d9 43 0c	 fld	 DWORD PTR [ebx+12]
$LN7@GetExtraJu:

; 564  : }

  00168	8b 4d fc	 mov	 ecx, DWORD PTR __$ArrayPad$[ebp]
  0016b	5e		 pop	 esi
  0016c	33 cd		 xor	 ecx, ebp
  0016e	5b		 pop	 ebx
  0016f	e8 00 00 00 00	 call	 @__security_check_cookie@4
  00174	c9		 leave
  00175	c2 08 00	 ret	 8
$LN21@GetExtraJu:
  00178	00 00 00 00	 DD	 $LN3@GetExtraJu
  0017c	00 00 00 00	 DD	 $LN2@GetExtraJu
  00180	00 00 00 00	 DD	 $LN1@GetExtraJu
$LN19@GetExtraJu:
  00184	00		 DB	 0
  00185	01		 DB	 1
  00186	01		 DB	 1
  00187	02		 DB	 2
  00188	02		 DB	 2
  00189	01		 DB	 1
  0018a	01		 DB	 1
  0018b	00		 DB	 0
?GetExtraJumpSpeedRate@ioKisaragiJump@@UBEMABUD3DXVECTOR3@@ABUD3DXQUATERNION@@@Z ENDP ; ioKisaragiJump::GetExtraJumpSpeedRate
_TEXT	ENDS
PUBLIC	?_Grow_to@?$vector@VioHashString@@V?$allocator@VioHashString@@@std@@@std@@IBEII@Z ; std::vector<ioHashString,std::allocator<ioHashString> >::_Grow_to
; Function compile flags: /Ogsp
; File c:\program files (x86)\microsoft visual studio 10.0\vc\include\vector
;	COMDAT ?_Grow_to@?$vector@VioHashString@@V?$allocator@VioHashString@@@std@@@std@@IBEII@Z
_TEXT	SEGMENT
__Count$ = 8						; size = 4
?_Grow_to@?$vector@VioHashString@@V?$allocator@VioHashString@@@std@@@std@@IBEII@Z PROC ; std::vector<ioHashString,std::allocator<ioHashString> >::_Grow_to, COMDAT
; _this$ = ecx

; 1274 : 		{	// grow by 50% or at least to _Count

  00000	55		 push	 ebp
  00001	8b ec		 mov	 ebp, esp

; 1275 : 		size_type _Capacity = capacity();

  00003	8b 41 08	 mov	 eax, DWORD PTR [ecx+8]
  00006	2b 01		 sub	 eax, DWORD PTR [ecx]

; 1276 : 
; 1277 : 		_Capacity = max_size() - _Capacity / 2 < _Capacity
; 1278 : 			? 0 : _Capacity + _Capacity / 2;	// try to grow by 50%

  00008	ba ff ff ff 0f	 mov	 edx, 268435455		; 0fffffffH
  0000d	c1 f8 04	 sar	 eax, 4
  00010	8b c8		 mov	 ecx, eax
  00012	d1 e9		 shr	 ecx, 1
  00014	2b d1		 sub	 edx, ecx
  00016	3b d0		 cmp	 edx, eax
  00018	73 04		 jae	 SHORT $LN4@Grow_to
  0001a	33 c0		 xor	 eax, eax
  0001c	eb 02		 jmp	 SHORT $LN5@Grow_to
$LN4@Grow_to:
  0001e	03 c1		 add	 eax, ecx
$LN5@Grow_to:

; 1279 : 		if (_Capacity < _Count)

  00020	3b 45 08	 cmp	 eax, DWORD PTR __Count$[ebp]

; 1280 : 			_Capacity = _Count;

  00023	0f 42 45 08	 cmovb	 eax, DWORD PTR __Count$[ebp]

; 1281 : 		return (_Capacity);
; 1282 : 		}

  00027	5d		 pop	 ebp
  00028	c2 04 00	 ret	 4
?_Grow_to@?$vector@VioHashString@@V?$allocator@VioHashString@@@std@@@std@@IBEII@Z ENDP ; std::vector<ioHashString,std::allocator<ioHashString> >::_Grow_to
_TEXT	ENDS
PUBLIC	??$_Cons_val@V?$allocator@UForceInfo@@@std@@UForceInfo@@ABU3@@std@@YAXAAV?$allocator@UForceInfo@@@0@PAUForceInfo@@ABU2@@Z ; std::_Cons_val<std::allocator<ForceInfo>,ForceInfo,ForceInfo const &>
; Function compile flags: /Ogsp
; File c:\program files (x86)\microsoft visual studio 10.0\vc\include\xmemory
;	COMDAT ??$_Cons_val@V?$allocator@UForceInfo@@@std@@UForceInfo@@ABU3@@std@@YAXAAV?$allocator@UForceInfo@@@0@PAUForceInfo@@ABU2@@Z
_TEXT	SEGMENT
__Alval$ = 8						; size = 4
__Pdest$ = 12						; size = 4
__Src$ = 16						; size = 4
??$_Cons_val@V?$allocator@UForceInfo@@@std@@UForceInfo@@ABU3@@std@@YAXAAV?$allocator@UForceInfo@@@0@PAUForceInfo@@ABU2@@Z PROC ; std::_Cons_val<std::allocator<ForceInfo>,ForceInfo,ForceInfo const &>, COMDAT

; 279  : 	{	// construct using allocator

  00000	55		 push	 ebp
  00001	8b ec		 mov	 ebp, esp
  00003	57		 push	 edi

; 280  : 	_Alval.construct(_Pdest, _STD forward<_Ty2>(_Src));

  00004	8b 7d 0c	 mov	 edi, DWORD PTR __Pdest$[ebp]
  00007	85 ff		 test	 edi, edi
  00009	74 08		 je	 SHORT $LN9@Cons_val
  0000b	56		 push	 esi
  0000c	8b 75 10	 mov	 esi, DWORD PTR __Src$[ebp]
  0000f	a5		 movsd
  00010	a5		 movsd
  00011	a5		 movsd
  00012	5e		 pop	 esi
$LN9@Cons_val:
  00013	5f		 pop	 edi

; 281  : 	}

  00014	5d		 pop	 ebp
  00015	c3		 ret	 0
??$_Cons_val@V?$allocator@UForceInfo@@@std@@UForceInfo@@ABU3@@std@@YAXAAV?$allocator@UForceInfo@@@0@PAUForceInfo@@ABU2@@Z ENDP ; std::_Cons_val<std::allocator<ForceInfo>,ForceInfo,ForceInfo const &>
_TEXT	ENDS
PUBLIC	?construct@?$allocator@UWeaponInfo@@@std@@QAEXPAUWeaponInfo@@ABU3@@Z ; std::allocator<WeaponInfo>::construct
; Function compile flags: /Ogsp
;	COMDAT ?construct@?$allocator@UWeaponInfo@@@std@@QAEXPAUWeaponInfo@@ABU3@@Z
_TEXT	SEGMENT
__Ptr$ = 8						; size = 4
__Val$ = 12						; size = 4
?construct@?$allocator@UWeaponInfo@@@std@@QAEXPAUWeaponInfo@@ABU3@@Z PROC ; std::allocator<WeaponInfo>::construct, COMDAT
; _this$ = ecx

; 196  : 		{	// construct object at _Ptr with value _Val

  00000	55		 push	 ebp
  00001	8b ec		 mov	 ebp, esp

; 197  : 		_Construct(_Ptr, _Val);

  00003	ff 75 0c	 push	 DWORD PTR __Val$[ebp]
  00006	ff 75 08	 push	 DWORD PTR __Ptr$[ebp]
  00009	e8 00 00 00 00	 call	 ??$_Construct@UWeaponInfo@@ABU1@@std@@YAXPAUWeaponInfo@@ABU1@@Z ; std::_Construct<WeaponInfo,WeaponInfo const &>
  0000e	59		 pop	 ecx
  0000f	59		 pop	 ecx

; 198  : 		}

  00010	5d		 pop	 ebp
  00011	c2 08 00	 ret	 8
?construct@?$allocator@UWeaponInfo@@@std@@QAEXPAUWeaponInfo@@ABU3@@Z ENDP ; std::allocator<WeaponInfo>::construct
_TEXT	ENDS
PUBLIC	??0?$vector@VioHashString@@V?$allocator@VioHashString@@@std@@@std@@QAE@XZ ; std::vector<ioHashString,std::allocator<ioHashString> >::vector<ioHashString,std::allocator<ioHashString> >
; Function compile flags: /Ogsp
; File c:\program files (x86)\microsoft visual studio 10.0\vc\include\vector
;	COMDAT ??0?$vector@VioHashString@@V?$allocator@VioHashString@@@std@@@std@@QAE@XZ
_TEXT	SEGMENT
??0?$vector@VioHashString@@V?$allocator@VioHashString@@@std@@@std@@QAE@XZ PROC ; std::vector<ioHashString,std::allocator<ioHashString> >::vector<ioHashString,std::allocator<ioHashString> >, COMDAT
; _this$ = ecx

; 507  : 		{	// construct empty vector

  00000	8b c1		 mov	 eax, ecx
  00002	33 c9		 xor	 ecx, ecx
  00004	89 08		 mov	 DWORD PTR [eax], ecx
  00006	89 48 04	 mov	 DWORD PTR [eax+4], ecx
  00009	89 48 08	 mov	 DWORD PTR [eax+8], ecx

; 508  : 		}

  0000c	c3		 ret	 0
??0?$vector@VioHashString@@V?$allocator@VioHashString@@@std@@@std@@QAE@XZ ENDP ; std::vector<ioHashString,std::allocator<ioHashString> >::vector<ioHashString,std::allocator<ioHashString> >
_TEXT	ENDS
PUBLIC	??0?$vector@UWeaponInfo@@V?$allocator@UWeaponInfo@@@std@@@std@@QAE@XZ ; std::vector<WeaponInfo,std::allocator<WeaponInfo> >::vector<WeaponInfo,std::allocator<WeaponInfo> >
; Function compile flags: /Ogsp
;	COMDAT ??0?$vector@UWeaponInfo@@V?$allocator@UWeaponInfo@@@std@@@std@@QAE@XZ
_TEXT	SEGMENT
??0?$vector@UWeaponInfo@@V?$allocator@UWeaponInfo@@@std@@@std@@QAE@XZ PROC ; std::vector<WeaponInfo,std::allocator<WeaponInfo> >::vector<WeaponInfo,std::allocator<WeaponInfo> >, COMDAT
; _this$ = ecx

; 507  : 		{	// construct empty vector

  00000	8b c1		 mov	 eax, ecx
  00002	33 c9		 xor	 ecx, ecx
  00004	89 08		 mov	 DWORD PTR [eax], ecx
  00006	89 48 04	 mov	 DWORD PTR [eax+4], ecx
  00009	89 48 08	 mov	 DWORD PTR [eax+8], ecx

; 508  : 		}

  0000c	c3		 ret	 0
??0?$vector@UWeaponInfo@@V?$allocator@UWeaponInfo@@@std@@@std@@QAE@XZ ENDP ; std::vector<WeaponInfo,std::allocator<WeaponInfo> >::vector<WeaponInfo,std::allocator<WeaponInfo> >
_TEXT	ENDS
PUBLIC	??0?$vector@UForceInfo@@V?$allocator@UForceInfo@@@std@@@std@@QAE@XZ ; std::vector<ForceInfo,std::allocator<ForceInfo> >::vector<ForceInfo,std::allocator<ForceInfo> >
; Function compile flags: /Ogsp
;	COMDAT ??0?$vector@UForceInfo@@V?$allocator@UForceInfo@@@std@@@std@@QAE@XZ
_TEXT	SEGMENT
??0?$vector@UForceInfo@@V?$allocator@UForceInfo@@@std@@@std@@QAE@XZ PROC ; std::vector<ForceInfo,std::allocator<ForceInfo> >::vector<ForceInfo,std::allocator<ForceInfo> >, COMDAT
; _this$ = ecx

; 507  : 		{	// construct empty vector

  00000	8b c1		 mov	 eax, ecx
  00002	33 c9		 xor	 ecx, ecx
  00004	89 08		 mov	 DWORD PTR [eax], ecx
  00006	89 48 04	 mov	 DWORD PTR [eax+4], ecx
  00009	89 48 08	 mov	 DWORD PTR [eax+8], ecx

; 508  : 		}

  0000c	c3		 ret	 0
??0?$vector@UForceInfo@@V?$allocator@UForceInfo@@@std@@@std@@QAE@XZ ENDP ; std::vector<ForceInfo,std::allocator<ForceInfo> >::vector<ForceInfo,std::allocator<ForceInfo> >
_TEXT	ENDS
PUBLIC	?_Buy@?$vector@VioHashString@@V?$allocator@VioHashString@@@std@@@std@@IAE_NI@Z ; std::vector<ioHashString,std::allocator<ioHashString> >::_Buy
; Function compile flags: /Ogsp
;	COMDAT ?_Buy@?$vector@VioHashString@@V?$allocator@VioHashString@@@std@@@std@@IAE_NI@Z
_TEXT	SEGMENT
__Capacity$ = 8						; size = 4
?_Buy@?$vector@VioHashString@@V?$allocator@VioHashString@@@std@@@std@@IAE_NI@Z PROC ; std::vector<ioHashString,std::allocator<ioHashString> >::_Buy, COMDAT
; _this$ = ecx

; 1250 : 		{	// allocate array with _Capacity elements

  00000	55		 push	 ebp
  00001	8b ec		 mov	 ebp, esp
  00003	56		 push	 esi

; 1251 : 		this->_Myfirst = 0;

  00004	33 c0		 xor	 eax, eax
  00006	57		 push	 edi

; 1252 : 		this->_Mylast = 0;
; 1253 : 		this->_Myend = 0;
; 1254 : 
; 1255 : 		if (_Capacity == 0)

  00007	8b 7d 08	 mov	 edi, DWORD PTR __Capacity$[ebp]
  0000a	8b f1		 mov	 esi, ecx
  0000c	89 06		 mov	 DWORD PTR [esi], eax
  0000e	89 46 04	 mov	 DWORD PTR [esi+4], eax
  00011	89 46 08	 mov	 DWORD PTR [esi+8], eax
  00014	3b f8		 cmp	 edi, eax
  00016	75 04		 jne	 SHORT $LN4@Buy

; 1256 : 			return (false);

  00018	32 c0		 xor	 al, al
  0001a	eb 2b		 jmp	 SHORT $LN5@Buy
$LN4@Buy:

; 1257 : 		else if (max_size() < _Capacity)

  0001c	81 ff ff ff ff
	0f		 cmp	 edi, 268435455		; 0fffffffH
  00022	76 0b		 jbe	 SHORT $LN2@Buy

; 1258 : 			_Xlen();	// result too long

  00024	68 00 00 00 00	 push	 OFFSET ??_C@_0BD@OLBABOEK@vector?$DMT?$DO?5too?5long?$AA@
  00029	ff 15 00 00 00
	00		 call	 DWORD PTR __imp_?_Xlength_error@std@@YAXPBD@Z
$LN19@Buy:
$LN2@Buy:

; 1259 : 		else
; 1260 : 			{	// nonempty array, allocate storage
; 1261 : 			this->_Myfirst = this->_Alval.allocate(_Capacity);

  0002f	50		 push	 eax
  00030	57		 push	 edi
  00031	e8 00 00 00 00	 call	 ??$_Allocate@VioHashString@@@std@@YAPAVioHashString@@IPAV1@@Z ; std::_Allocate<ioHashString>

; 1262 : 			this->_Mylast = this->_Myfirst;
; 1263 : 			this->_Myend = this->_Myfirst + _Capacity;

  00036	c1 e7 04	 shl	 edi, 4
  00039	03 f8		 add	 edi, eax
  0003b	59		 pop	 ecx
  0003c	89 06		 mov	 DWORD PTR [esi], eax
  0003e	89 46 04	 mov	 DWORD PTR [esi+4], eax
  00041	59		 pop	 ecx
  00042	89 7e 08	 mov	 DWORD PTR [esi+8], edi

; 1264 : 			}
; 1265 : 		return (true);

  00045	b0 01		 mov	 al, 1
$LN5@Buy:
  00047	5f		 pop	 edi
  00048	5e		 pop	 esi

; 1266 : 		}

  00049	5d		 pop	 ebp
  0004a	c2 04 00	 ret	 4
$LN18@Buy:
?_Buy@?$vector@VioHashString@@V?$allocator@VioHashString@@@std@@@std@@IAE_NI@Z ENDP ; std::vector<ioHashString,std::allocator<ioHashString> >::_Buy
_TEXT	ENDS
PUBLIC	??9?$_Vector_const_iterator@V?$_Vector_val@VioHashString@@V?$allocator@VioHashString@@@std@@@std@@@std@@QBE_NABV01@@Z ; std::_Vector_const_iterator<std::_Vector_val<ioHashString,std::allocator<ioHashString> > >::operator!=
; Function compile flags: /Ogsp
;	COMDAT ??9?$_Vector_const_iterator@V?$_Vector_val@VioHashString@@V?$allocator@VioHashString@@@std@@@std@@@std@@QBE_NABV01@@Z
_TEXT	SEGMENT
__Right$ = 8						; size = 4
??9?$_Vector_const_iterator@V?$_Vector_val@VioHashString@@V?$allocator@VioHashString@@@std@@@std@@@std@@QBE_NABV01@@Z PROC ; std::_Vector_const_iterator<std::_Vector_val<ioHashString,std::allocator<ioHashString> > >::operator!=, COMDAT
; _this$ = ecx

; 207  : 		{	// test for iterator inequality

  00000	55		 push	 ebp
  00001	8b ec		 mov	 ebp, esp

; 208  : 		return (!(*this == _Right));

  00003	8b 01		 mov	 eax, DWORD PTR [ecx]
  00005	8b 55 08	 mov	 edx, DWORD PTR __Right$[ebp]
  00008	33 c9		 xor	 ecx, ecx
  0000a	3b 02		 cmp	 eax, DWORD PTR [edx]
  0000c	0f 95 c0	 setne	 al

; 209  : 		}

  0000f	5d		 pop	 ebp
  00010	c2 04 00	 ret	 4
??9?$_Vector_const_iterator@V?$_Vector_val@VioHashString@@V?$allocator@VioHashString@@@std@@@std@@@std@@QBE_NABV01@@Z ENDP ; std::_Vector_const_iterator<std::_Vector_val<ioHashString,std::allocator<ioHashString> > >::operator!=
_TEXT	ENDS
PUBLIC	??$_Move@PAVioHashString@@PAV1@@std@@YAPAVioHashString@@PAV1@00@Z ; std::_Move<ioHashString *,ioHashString *>
; Function compile flags: /Ogsp
; File c:\program files (x86)\microsoft visual studio 10.0\vc\include\xutility
;	COMDAT ??$_Move@PAVioHashString@@PAV1@@std@@YAPAVioHashString@@PAV1@00@Z
_TEXT	SEGMENT
__Cat$528273 = -4					; size = 1
__First$ = 8						; size = 4
__Last$ = 12						; size = 4
__Dest$ = 16						; size = 4
??$_Move@PAVioHashString@@PAV1@@std@@YAPAVioHashString@@PAV1@00@Z PROC ; std::_Move<ioHashString *,ioHashString *>, COMDAT

; 2533 : 	{	// move [_First, _Last) to [_Dest, ...), unchecked

  00000	55		 push	 ebp
  00001	8b ec		 mov	 ebp, esp
  00003	51		 push	 ecx

; 2534 : 	return (_Move(_First, _Last,
; 2535 : 		_Dest, _Ptr_cat(_First, _Dest)));

  00004	ff 75 fc	 push	 DWORD PTR __Cat$528273[ebp]
  00007	ff 75 10	 push	 DWORD PTR __Dest$[ebp]
  0000a	ff 75 0c	 push	 DWORD PTR __Last$[ebp]
  0000d	ff 75 08	 push	 DWORD PTR __First$[ebp]
  00010	e8 00 00 00 00	 call	 ??$_Move@PAVioHashString@@PAV1@@std@@YAPAVioHashString@@PAV1@00U_Nonscalar_ptr_iterator_tag@0@@Z ; std::_Move<ioHashString *,ioHashString *>
  00015	83 c4 10	 add	 esp, 16			; 00000010H

; 2536 : 	}

  00018	c9		 leave
  00019	c3		 ret	 0
??$_Move@PAVioHashString@@PAV1@@std@@YAPAVioHashString@@PAV1@00@Z ENDP ; std::_Move<ioHashString *,ioHashString *>
_TEXT	ENDS
PUBLIC	?_Buy@?$vector@UWeaponInfo@@V?$allocator@UWeaponInfo@@@std@@@std@@IAE_NI@Z ; std::vector<WeaponInfo,std::allocator<WeaponInfo> >::_Buy
; Function compile flags: /Ogsp
; File c:\program files (x86)\microsoft visual studio 10.0\vc\include\vector
;	COMDAT ?_Buy@?$vector@UWeaponInfo@@V?$allocator@UWeaponInfo@@@std@@@std@@IAE_NI@Z
_TEXT	SEGMENT
__Capacity$ = 8						; size = 4
?_Buy@?$vector@UWeaponInfo@@V?$allocator@UWeaponInfo@@@std@@@std@@IAE_NI@Z PROC ; std::vector<WeaponInfo,std::allocator<WeaponInfo> >::_Buy, COMDAT
; _this$ = ecx

; 1250 : 		{	// allocate array with _Capacity elements

  00000	55		 push	 ebp
  00001	8b ec		 mov	 ebp, esp
  00003	56		 push	 esi

; 1251 : 		this->_Myfirst = 0;

  00004	33 c0		 xor	 eax, eax
  00006	57		 push	 edi

; 1252 : 		this->_Mylast = 0;
; 1253 : 		this->_Myend = 0;
; 1254 : 
; 1255 : 		if (_Capacity == 0)

  00007	8b 7d 08	 mov	 edi, DWORD PTR __Capacity$[ebp]
  0000a	8b f1		 mov	 esi, ecx
  0000c	89 06		 mov	 DWORD PTR [esi], eax
  0000e	89 46 04	 mov	 DWORD PTR [esi+4], eax
  00011	89 46 08	 mov	 DWORD PTR [esi+8], eax
  00014	3b f8		 cmp	 edi, eax
  00016	75 04		 jne	 SHORT $LN4@Buy@2

; 1256 : 			return (false);

  00018	32 c0		 xor	 al, al
  0001a	eb 2b		 jmp	 SHORT $LN5@Buy@2
$LN4@Buy@2:

; 1257 : 		else if (max_size() < _Capacity)

  0001c	81 ff 66 66 66
	06		 cmp	 edi, 107374182		; 06666666H
  00022	76 0b		 jbe	 SHORT $LN2@Buy@2

; 1258 : 			_Xlen();	// result too long

  00024	68 00 00 00 00	 push	 OFFSET ??_C@_0BD@OLBABOEK@vector?$DMT?$DO?5too?5long?$AA@
  00029	ff 15 00 00 00
	00		 call	 DWORD PTR __imp_?_Xlength_error@std@@YAXPBD@Z
$LN19@Buy@2:
$LN2@Buy@2:

; 1259 : 		else
; 1260 : 			{	// nonempty array, allocate storage
; 1261 : 			this->_Myfirst = this->_Alval.allocate(_Capacity);

  0002f	50		 push	 eax
  00030	57		 push	 edi
  00031	e8 00 00 00 00	 call	 ??$_Allocate@UWeaponInfo@@@std@@YAPAUWeaponInfo@@IPAU1@@Z ; std::_Allocate<WeaponInfo>

; 1262 : 			this->_Mylast = this->_Myfirst;
; 1263 : 			this->_Myend = this->_Myfirst + _Capacity;

  00036	6b ff 28	 imul	 edi, 40			; 00000028H
  00039	03 f8		 add	 edi, eax
  0003b	59		 pop	 ecx
  0003c	89 06		 mov	 DWORD PTR [esi], eax
  0003e	89 46 04	 mov	 DWORD PTR [esi+4], eax
  00041	59		 pop	 ecx
  00042	89 7e 08	 mov	 DWORD PTR [esi+8], edi

; 1264 : 			}
; 1265 : 		return (true);

  00045	b0 01		 mov	 al, 1
$LN5@Buy@2:
  00047	5f		 pop	 edi
  00048	5e		 pop	 esi

; 1266 : 		}

  00049	5d		 pop	 ebp
  0004a	c2 04 00	 ret	 4
$LN18@Buy@2:
?_Buy@?$vector@UWeaponInfo@@V?$allocator@UWeaponInfo@@@std@@@std@@IAE_NI@Z ENDP ; std::vector<WeaponInfo,std::allocator<WeaponInfo> >::_Buy
_TEXT	ENDS
PUBLIC	?_Buy@?$vector@UForceInfo@@V?$allocator@UForceInfo@@@std@@@std@@IAE_NI@Z ; std::vector<ForceInfo,std::allocator<ForceInfo> >::_Buy
; Function compile flags: /Ogsp
;	COMDAT ?_Buy@?$vector@UForceInfo@@V?$allocator@UForceInfo@@@std@@@std@@IAE_NI@Z
_TEXT	SEGMENT
__Capacity$ = 8						; size = 4
?_Buy@?$vector@UForceInfo@@V?$allocator@UForceInfo@@@std@@@std@@IAE_NI@Z PROC ; std::vector<ForceInfo,std::allocator<ForceInfo> >::_Buy, COMDAT
; _this$ = ecx

; 1250 : 		{	// allocate array with _Capacity elements

  00000	55		 push	 ebp
  00001	8b ec		 mov	 ebp, esp
  00003	56		 push	 esi

; 1251 : 		this->_Myfirst = 0;

  00004	33 c0		 xor	 eax, eax
  00006	57		 push	 edi

; 1252 : 		this->_Mylast = 0;
; 1253 : 		this->_Myend = 0;
; 1254 : 
; 1255 : 		if (_Capacity == 0)

  00007	8b 7d 08	 mov	 edi, DWORD PTR __Capacity$[ebp]
  0000a	8b f1		 mov	 esi, ecx
  0000c	89 06		 mov	 DWORD PTR [esi], eax
  0000e	89 46 04	 mov	 DWORD PTR [esi+4], eax
  00011	89 46 08	 mov	 DWORD PTR [esi+8], eax
  00014	3b f8		 cmp	 edi, eax
  00016	75 04		 jne	 SHORT $LN4@Buy@3

; 1256 : 			return (false);

  00018	32 c0		 xor	 al, al
  0001a	eb 2b		 jmp	 SHORT $LN5@Buy@3
$LN4@Buy@3:

; 1257 : 		else if (max_size() < _Capacity)

  0001c	81 ff 55 55 55
	15		 cmp	 edi, 357913941		; 15555555H
  00022	76 0b		 jbe	 SHORT $LN2@Buy@3

; 1258 : 			_Xlen();	// result too long

  00024	68 00 00 00 00	 push	 OFFSET ??_C@_0BD@OLBABOEK@vector?$DMT?$DO?5too?5long?$AA@
  00029	ff 15 00 00 00
	00		 call	 DWORD PTR __imp_?_Xlength_error@std@@YAXPBD@Z
$LN19@Buy@3:
$LN2@Buy@3:

; 1259 : 		else
; 1260 : 			{	// nonempty array, allocate storage
; 1261 : 			this->_Myfirst = this->_Alval.allocate(_Capacity);

  0002f	50		 push	 eax
  00030	57		 push	 edi
  00031	e8 00 00 00 00	 call	 ??$_Allocate@UForceInfo@@@std@@YAPAUForceInfo@@IPAU1@@Z ; std::_Allocate<ForceInfo>

; 1262 : 			this->_Mylast = this->_Myfirst;
; 1263 : 			this->_Myend = this->_Myfirst + _Capacity;

  00036	6b ff 0c	 imul	 edi, 12			; 0000000cH
  00039	03 f8		 add	 edi, eax
  0003b	59		 pop	 ecx
  0003c	89 06		 mov	 DWORD PTR [esi], eax
  0003e	89 46 04	 mov	 DWORD PTR [esi+4], eax
  00041	59		 pop	 ecx
  00042	89 7e 08	 mov	 DWORD PTR [esi+8], edi

; 1264 : 			}
; 1265 : 		return (true);

  00045	b0 01		 mov	 al, 1
$LN5@Buy@3:
  00047	5f		 pop	 edi
  00048	5e		 pop	 esi

; 1266 : 		}

  00049	5d		 pop	 ebp
  0004a	c2 04 00	 ret	 4
$LN18@Buy@3:
?_Buy@?$vector@UForceInfo@@V?$allocator@UForceInfo@@@std@@@std@@IAE_NI@Z ENDP ; std::vector<ForceInfo,std::allocator<ForceInfo> >::_Buy
_TEXT	ENDS
PUBLIC	??9?$_Vector_const_iterator@V?$_Vector_val@UWeaponInfo@@V?$allocator@UWeaponInfo@@@std@@@std@@@std@@QBE_NABV01@@Z ; std::_Vector_const_iterator<std::_Vector_val<WeaponInfo,std::allocator<WeaponInfo> > >::operator!=
; Function compile flags: /Ogsp
;	COMDAT ??9?$_Vector_const_iterator@V?$_Vector_val@UWeaponInfo@@V?$allocator@UWeaponInfo@@@std@@@std@@@std@@QBE_NABV01@@Z
_TEXT	SEGMENT
__Right$ = 8						; size = 4
??9?$_Vector_const_iterator@V?$_Vector_val@UWeaponInfo@@V?$allocator@UWeaponInfo@@@std@@@std@@@std@@QBE_NABV01@@Z PROC ; std::_Vector_const_iterator<std::_Vector_val<WeaponInfo,std::allocator<WeaponInfo> > >::operator!=, COMDAT
; _this$ = ecx

; 207  : 		{	// test for iterator inequality

  00000	55		 push	 ebp
  00001	8b ec		 mov	 ebp, esp

; 208  : 		return (!(*this == _Right));

  00003	8b 01		 mov	 eax, DWORD PTR [ecx]
  00005	8b 55 08	 mov	 edx, DWORD PTR __Right$[ebp]
  00008	33 c9		 xor	 ecx, ecx
  0000a	3b 02		 cmp	 eax, DWORD PTR [edx]
  0000c	0f 95 c0	 setne	 al

; 209  : 		}

  0000f	5d		 pop	 ebp
  00010	c2 04 00	 ret	 4
??9?$_Vector_const_iterator@V?$_Vector_val@UWeaponInfo@@V?$allocator@UWeaponInfo@@@std@@@std@@@std@@QBE_NABV01@@Z ENDP ; std::_Vector_const_iterator<std::_Vector_val<WeaponInfo,std::allocator<WeaponInfo> > >::operator!=
_TEXT	ENDS
PUBLIC	??9?$_Vector_const_iterator@V?$_Vector_val@UForceInfo@@V?$allocator@UForceInfo@@@std@@@std@@@std@@QBE_NABV01@@Z ; std::_Vector_const_iterator<std::_Vector_val<ForceInfo,std::allocator<ForceInfo> > >::operator!=
; Function compile flags: /Ogsp
;	COMDAT ??9?$_Vector_const_iterator@V?$_Vector_val@UForceInfo@@V?$allocator@UForceInfo@@@std@@@std@@@std@@QBE_NABV01@@Z
_TEXT	SEGMENT
__Right$ = 8						; size = 4
??9?$_Vector_const_iterator@V?$_Vector_val@UForceInfo@@V?$allocator@UForceInfo@@@std@@@std@@@std@@QBE_NABV01@@Z PROC ; std::_Vector_const_iterator<std::_Vector_val<ForceInfo,std::allocator<ForceInfo> > >::operator!=, COMDAT
; _this$ = ecx

; 207  : 		{	// test for iterator inequality

  00000	55		 push	 ebp
  00001	8b ec		 mov	 ebp, esp

; 208  : 		return (!(*this == _Right));

  00003	8b 01		 mov	 eax, DWORD PTR [ecx]
  00005	8b 55 08	 mov	 edx, DWORD PTR __Right$[ebp]
  00008	33 c9		 xor	 ecx, ecx
  0000a	3b 02		 cmp	 eax, DWORD PTR [edx]
  0000c	0f 95 c0	 setne	 al

; 209  : 		}

  0000f	5d		 pop	 ebp
  00010	c2 04 00	 ret	 4
??9?$_Vector_const_iterator@V?$_Vector_val@UForceInfo@@V?$allocator@UForceInfo@@@std@@@std@@@std@@QBE_NABV01@@Z ENDP ; std::_Vector_const_iterator<std::_Vector_val<ForceInfo,std::allocator<ForceInfo> > >::operator!=
_TEXT	ENDS
PUBLIC	??$_Dest_val@V?$allocator@UForceInfo@@@std@@UForceInfo@@@std@@YAXAAV?$allocator@UForceInfo@@@0@PAUForceInfo@@@Z ; std::_Dest_val<std::allocator<ForceInfo>,ForceInfo>
; Function compile flags: /Ogsp
; File c:\program files (x86)\microsoft visual studio 10.0\vc\include\xmemory
;	COMDAT ??$_Dest_val@V?$allocator@UForceInfo@@@std@@UForceInfo@@@std@@YAXAAV?$allocator@UForceInfo@@@0@PAUForceInfo@@@Z
_TEXT	SEGMENT
__Alval$ = 8						; size = 4
__Pdest$ = 12						; size = 4
??$_Dest_val@V?$allocator@UForceInfo@@@std@@UForceInfo@@@std@@YAXAAV?$allocator@UForceInfo@@@0@PAUForceInfo@@@Z PROC ; std::_Dest_val<std::allocator<ForceInfo>,ForceInfo>, COMDAT

; 287  : 	_Alval.destroy(_Pdest);
; 288  : 	}

  00000	c3		 ret	 0
??$_Dest_val@V?$allocator@UForceInfo@@@std@@UForceInfo@@@std@@YAXAAV?$allocator@UForceInfo@@@0@PAUForceInfo@@@Z ENDP ; std::_Dest_val<std::allocator<ForceInfo>,ForceInfo>
_TEXT	ENDS
PUBLIC	?destroy@?$allocator@VioHashString@@@std@@QAEXPAVioHashString@@@Z ; std::allocator<ioHashString>::destroy
; Function compile flags: /Ogsp
;	COMDAT ?destroy@?$allocator@VioHashString@@@std@@QAEXPAVioHashString@@@Z
_TEXT	SEGMENT
__Ptr$ = 8						; size = 4
?destroy@?$allocator@VioHashString@@@std@@QAEXPAVioHashString@@@Z PROC ; std::allocator<ioHashString>::destroy, COMDAT
; _this$ = ecx

; 212  : 		{	// destroy object at _Ptr

  00000	55		 push	 ebp
  00001	8b ec		 mov	 ebp, esp

; 213  : 		_Destroy(_Ptr);

  00003	8b 4d 08	 mov	 ecx, DWORD PTR __Ptr$[ebp]
  00006	ff 15 00 00 00
	00		 call	 DWORD PTR __imp_??1ioHashString@@QAE@XZ

; 214  : 		}

  0000c	5d		 pop	 ebp
  0000d	c2 04 00	 ret	 4
?destroy@?$allocator@VioHashString@@@std@@QAEXPAVioHashString@@@Z ENDP ; std::allocator<ioHashString>::destroy
_TEXT	ENDS
PUBLIC	?destroy@?$allocator@UWeaponInfo@@@std@@QAEXPAUWeaponInfo@@@Z ; std::allocator<WeaponInfo>::destroy
; Function compile flags: /Ogsp
;	COMDAT ?destroy@?$allocator@UWeaponInfo@@@std@@QAEXPAUWeaponInfo@@@Z
_TEXT	SEGMENT
__Ptr$ = 8						; size = 4
?destroy@?$allocator@UWeaponInfo@@@std@@QAEXPAUWeaponInfo@@@Z PROC ; std::allocator<WeaponInfo>::destroy, COMDAT
; _this$ = ecx

; 212  : 		{	// destroy object at _Ptr

  00000	55		 push	 ebp
  00001	8b ec		 mov	 ebp, esp

; 213  : 		_Destroy(_Ptr);

  00003	8b 4d 08	 mov	 ecx, DWORD PTR __Ptr$[ebp]
  00006	83 c1 08	 add	 ecx, 8
  00009	ff 15 00 00 00
	00		 call	 DWORD PTR __imp_??1ioHashString@@QAE@XZ

; 214  : 		}

  0000f	5d		 pop	 ebp
  00010	c2 04 00	 ret	 4
?destroy@?$allocator@UWeaponInfo@@@std@@QAEXPAUWeaponInfo@@@Z ENDP ; std::allocator<WeaponInfo>::destroy
_TEXT	ENDS
PUBLIC	??$_Cons_val@V?$allocator@VioHashString@@@std@@VioHashString@@ABV3@@std@@YAXAAV?$allocator@VioHashString@@@0@PAVioHashString@@ABV2@@Z ; std::_Cons_val<std::allocator<ioHashString>,ioHashString,ioHashString const &>
; Function compile flags: /Ogsp
;	COMDAT ??$_Cons_val@V?$allocator@VioHashString@@@std@@VioHashString@@ABV3@@std@@YAXAAV?$allocator@VioHashString@@@0@PAVioHashString@@ABV2@@Z
_TEXT	SEGMENT
__Alval$ = 8						; size = 4
__Pdest$ = 12						; size = 4
__Src$ = 16						; size = 4
??$_Cons_val@V?$allocator@VioHashString@@@std@@VioHashString@@ABV3@@std@@YAXAAV?$allocator@VioHashString@@@0@PAVioHashString@@ABV2@@Z PROC ; std::_Cons_val<std::allocator<ioHashString>,ioHashString,ioHashString const &>, COMDAT

; 279  : 	{	// construct using allocator

  00000	55		 push	 ebp
  00001	8b ec		 mov	 ebp, esp

; 280  : 	_Alval.construct(_Pdest, _STD forward<_Ty2>(_Src));

  00003	ff 75 10	 push	 DWORD PTR __Src$[ebp]
  00006	ff 75 0c	 push	 DWORD PTR __Pdest$[ebp]
  00009	e8 00 00 00 00	 call	 ??$_Construct@VioHashString@@ABV1@@std@@YAXPAVioHashString@@ABV1@@Z ; std::_Construct<ioHashString,ioHashString const &>
  0000e	59		 pop	 ecx
  0000f	59		 pop	 ecx

; 281  : 	}

  00010	5d		 pop	 ebp
  00011	c3		 ret	 0
??$_Cons_val@V?$allocator@VioHashString@@@std@@VioHashString@@ABV3@@std@@YAXAAV?$allocator@VioHashString@@@0@PAVioHashString@@ABV2@@Z ENDP ; std::_Cons_val<std::allocator<ioHashString>,ioHashString,ioHashString const &>
_TEXT	ENDS
PUBLIC	__mask@@AbsDouble@
PUBLIC	__real@00000000
PUBLIC	__real@3f800000
PUBLIC	??_C@_00CNPNBAHC@?$AA@				; `string'
PUBLIC	_this$GSCopy$
PUBLIC	__$ArrayPad$
PUBLIC	?ProcessJumpping@ioKisaragiJump@@UAEXPAVioBaseChar@@MM@Z ; ioKisaragiJump::ProcessJumpping
EXTRN	??6SP2Packet@@QAEAAV0@M@Z:PROC			; SP2Packet::operator<<
EXTRN	?ActionDoubleJump@ioTutorialManager@@QAEXXZ:PROC ; ioTutorialManager::ActionDoubleJump
EXTRN	?GetSingleton@ioTutorialManager@@SAAAV1@XZ:PROC	; ioTutorialManager::GetSingleton
EXTRN	?SetForcePower@ioBaseChar@@QAEXABUD3DXVECTOR3@@MM_N@Z:PROC ; ioBaseChar::SetForcePower
EXTRN	?SetJumpPower@ioBaseChar@@QAEXM@Z:PROC		; ioBaseChar::SetJumpPower
EXTRN	??1SP2Packet@@UAE@XZ:PROC			; SP2Packet::~SP2Packet
EXTRN	?SendToAllPlayingUser@P2PNetwork@@YAXAAVSP2Packet@@PAVioBaseChar@@@Z:PROC ; P2PNetwork::SendToAllPlayingUser
EXTRN	?FillAutoTargetInfo@ioBaseChar@@QAEXAAVSP2Packet@@@Z:PROC ; ioBaseChar::FillAutoTargetInfo
EXTRN	??6SP2Packet@@QAEAAV0@ABUD3DXQUATERNION@@@Z:PROC ; SP2Packet::operator<<
EXTRN	??6SP2Packet@@QAEAAV0@_N@Z:PROC			; SP2Packet::operator<<
EXTRN	??6SP2Packet@@QAEAAV0@ABUD3DXVECTOR3@@@Z:PROC	; SP2Packet::operator<<
EXTRN	??6SP2Packet@@QAEAAV0@H@Z:PROC			; SP2Packet::operator<<
EXTRN	??6SP2Packet@@QAEAAV0@ABVioHashString@@@Z:PROC	; SP2Packet::operator<<
EXTRN	??0SP2Packet@@QAE@K@Z:PROC			; SP2Packet::SP2Packet
EXTRN	?SetReservedSliding@ioBaseChar@@QAEXABV?$vector@UForceInfo@@V?$allocator@UForceInfo@@@std@@@std@@HMKM_N@Z:PROC ; ioBaseChar::SetReservedSliding
EXTRN	?CheckCharColSkipTime@ioBaseChar@@QAEXHMK@Z:PROC ; ioBaseChar::CheckCharColSkipTime
EXTRN	?SetAutoTargetTrackingEndTime@ioBaseChar@@QAEXK@Z:PROC ; ioBaseChar::SetAutoTargetTrackingEndTime
EXTRN	__imp_?GetAnimationFullTime@ioEntityGroup@@QAEMH@Z:PROC
EXTRN	?IncreaseWeaponIndexBase@ioBaseChar@@QAEKXZ:PROC ; ioBaseChar::IncreaseWeaponIndexBase
EXTRN	?RefreshFireTimeList@ioBaseChar@@QAEXHABV?$vector@UWeaponInfo@@V?$allocator@UWeaponInfo@@@std@@@std@@W4FireTimeType@@MK_N@Z:PROC ; ioBaseChar::RefreshFireTimeList
EXTRN	?SetAutoTarget@ioBaseChar@@QAEXW4AutoTargetType@@@Z:PROC ; ioBaseChar::SetAutoTarget
EXTRN	?ChangeDirectionByInputDir@ioBaseChar@@QAE_N_N0@Z:PROC ; ioBaseChar::ChangeDirectionByInputDir
EXTRN	?SetChangeJumpMotion@ioBaseChar@@QAEX_NABVioHashString@@11M@Z:PROC ; ioBaseChar::SetChangeJumpMotion
EXTRN	?SetEnableChangeTeam@ioBaseChar@@QAEX_N@Z:PROC	; ioBaseChar::SetEnableChangeTeam
EXTRN	?SetNoWoundState@ioBaseChar@@QAEX_N@Z:PROC	; ioBaseChar::SetNoWoundState
EXTRN	?SetEnableHide@ioBaseChar@@QAEX_NVioHashString@@1@Z:PROC ; ioBaseChar::SetEnableHide
EXTRN	__imp_?GetAnimationIdx@ioEntityGroup@@QAEHABVioHashString@@@Z:PROC
EXTRN	__chkstk:PROC
EXTRN	__ftol2:PROC
;	COMDAT __mask@@AbsDouble@
; File d:\lost saga for developer\youtube\tutorial\source\src\lsclient\iobasechar.h
CONST	SEGMENT
__mask@@AbsDouble@ DB 0ffH, 0ffH, 0ffH, 0ffH, 0ffH, 0ffH, 0ffH, 07fH, 0ffH
	DB	0ffH, 0ffH, 0ffH, 0ffH, 0ffH, 0ffH, 07fH
CONST	ENDS
;	COMDAT __real@00000000
CONST	SEGMENT
__real@00000000 DD 000000000r			; 0
CONST	ENDS
;	COMDAT __real@3f800000
CONST	SEGMENT
__real@3f800000 DD 03f800000r			; 1
CONST	ENDS
;	COMDAT ??_C@_00CNPNBAHC@?$AA@
CONST	SEGMENT
??_C@_00CNPNBAHC@?$AA@ DB 00H				; `string'
CONST	ENDS
;	COMDAT xdata$x
xdata$x	SEGMENT
__ehfuncinfo$?ProcessJumpping@ioKisaragiJump@@UAEXPAVioBaseChar@@MM@Z DD 019930522H
	DD	0bH
	DD	FLAT:__unwindtable$?ProcessJumpping@ioKisaragiJump@@UAEXPAVioBaseChar@@MM@Z
	DD	2 DUP(00H)
	DD	2 DUP(00H)
	DD	00H
	DD	01H
__unwindtable$?ProcessJumpping@ioKisaragiJump@@UAEXPAVioBaseChar@@MM@Z DD 0ffffffffH
	DD	FLAT:__unwindfunclet$?ProcessJumpping@ioKisaragiJump@@UAEXPAVioBaseChar@@MM@Z$0
	DD	0ffffffffH
	DD	FLAT:__unwindfunclet$?ProcessJumpping@ioKisaragiJump@@UAEXPAVioBaseChar@@MM@Z$2
	DD	01H
	DD	FLAT:__unwindfunclet$?ProcessJumpping@ioKisaragiJump@@UAEXPAVioBaseChar@@MM@Z$3
	DD	02H
	DD	FLAT:__unwindfunclet$?ProcessJumpping@ioKisaragiJump@@UAEXPAVioBaseChar@@MM@Z$4
	DD	0ffffffffH
	DD	FLAT:__unwindfunclet$?ProcessJumpping@ioKisaragiJump@@UAEXPAVioBaseChar@@MM@Z$12
	DD	0ffffffffH
	DD	FLAT:__unwindfunclet$?ProcessJumpping@ioKisaragiJump@@UAEXPAVioBaseChar@@MM@Z$5
	DD	0ffffffffH
	DD	FLAT:__unwindfunclet$?ProcessJumpping@ioKisaragiJump@@UAEXPAVioBaseChar@@MM@Z$6
	DD	0ffffffffH
	DD	FLAT:__unwindfunclet$?ProcessJumpping@ioKisaragiJump@@UAEXPAVioBaseChar@@MM@Z$8
	DD	07H
	DD	FLAT:__unwindfunclet$?ProcessJumpping@ioKisaragiJump@@UAEXPAVioBaseChar@@MM@Z$9
	DD	08H
	DD	FLAT:__unwindfunclet$?ProcessJumpping@ioKisaragiJump@@UAEXPAVioBaseChar@@MM@Z$10
	DD	0ffffffffH
	DD	FLAT:__unwindfunclet$?ProcessJumpping@ioKisaragiJump@@UAEXPAVioBaseChar@@MM@Z$11
; Function compile flags: /Ogsp
; File d:\lost saga for developer\youtube\tutorial\source\src\lsclient\iokisaragijump.cpp
xdata$x	ENDS
;	COMDAT ?ProcessJumpping@ioKisaragiJump@@UAEXPAVioBaseChar@@MM@Z
_TEXT	SEGMENT
$T528411 = -65708					; size = 16
$T528406 = -65708					; size = 16
$T528498 = -65692					; size = 16
$T528412 = -65692					; size = 16
$T528405 = -65692					; size = 16
_dwCurTime$523911 = -65676				; size = 4
_iAniID$523913 = -65672					; size = 4
tv1530 = -65668						; size = 4
$T528473 = -65668					; size = 4
$T528409 = -65668					; size = 4
$T528404 = -65668					; size = 4
_dwPreDelay$523915 = -65664				; size = 4
_pGrp$523910 = -65660					; size = 4
_fTimeRate$523914 = -65656				; size = 4
tv1539 = -65652						; size = 4
tv1537 = -65652						; size = 4
tv1534 = -65652						; size = 4
tv1532 = -65652						; size = 4
_value$528452 = -65652					; size = 4
_value$528442 = -65652					; size = 4
_this$GSCopy$ = -65648					; size = 4
tv1552 = -65644						; size = 4
tv1547 = -65644						; size = 4
tv1528 = -65644						; size = 4
tv1510 = -65644						; size = 4
tv1498 = -65644						; size = 4
tv1459 = -65644						; size = 4
tv1441 = -65644						; size = 4
_value$528635 = -65644					; size = 4
_value$528625 = -65644					; size = 4
$T528497 = -65644					; size = 4
$T528477 = -65644					; size = 4
$T528408 = -65644					; size = 4
$T528403 = -65644					; size = 4
_kPacket$523951 = -65640				; size = 32792
_kPacket$523934 = -32848				; size = 32792
_vJumpDir$523939 = -56					; size = 12
$T523943 = -44						; size = 12
_vMoveDir$523912 = -44					; size = 12
_szEncEventType$528511 = -32				; size = 11
$T528410 = -32						; size = 16
$T528407 = -32						; size = 16
__$ArrayPad$ = -16					; size = 4
__$EHRec$ = -12						; size = 12
_pOwner$ = 8						; size = 4
_fHeightGap$ = 12					; size = 4
_fNeedGauge$ = 16					; size = 4
?ProcessJumpping@ioKisaragiJump@@UAEXPAVioBaseChar@@MM@Z PROC ; ioKisaragiJump::ProcessJumpping, COMDAT
; _this$ = ecx

; 113  : {

  00000	55		 push	 ebp
  00001	8b ec		 mov	 ebp, esp
  00003	6a ff		 push	 -1
  00005	68 00 00 00 00	 push	 __ehhandler$?ProcessJumpping@ioKisaragiJump@@UAEXPAVioBaseChar@@MM@Z
  0000a	64 a1 00 00 00
	00		 mov	 eax, DWORD PTR fs:0
  00010	50		 push	 eax
  00011	b8 a0 00 01 00	 mov	 eax, 65696		; 000100a0H
  00016	e8 00 00 00 00	 call	 __chkstk
  0001b	a1 00 00 00 00	 mov	 eax, DWORD PTR ___security_cookie
  00020	33 c5		 xor	 eax, ebp
  00022	89 45 f0	 mov	 DWORD PTR __$ArrayPad$[ebp], eax
  00025	53		 push	 ebx
  00026	56		 push	 esi
  00027	57		 push	 edi
  00028	50		 push	 eax
  00029	8d 45 f4	 lea	 eax, DWORD PTR __$EHRec$[ebp]
  0002c	64 a3 00 00 00
	00		 mov	 DWORD PTR fs:0, eax

; 114  : 	// DashCheck
; 115  : 	if( IsCanJumpDash( pOwner, fHeightGap ) )

  00032	f3 0f 10 45 0c	 movss	 xmm0, DWORD PTR _fHeightGap$[ebp]
  00037	8b 5d 08	 mov	 ebx, DWORD PTR _pOwner$[ebp]
  0003a	51		 push	 ecx
  0003b	8b f1		 mov	 esi, ecx
  0003d	f3 0f 11 04 24	 movss	 DWORD PTR [esp], xmm0
  00042	53		 push	 ebx

; 225  : 		}
; 226  : 	}
; 227  : 
; 228  : 	ProcessJumpDash( pOwner );

  00043	89 b5 90 ff fe
	ff		 mov	 DWORD PTR _this$GSCopy$[ebp], esi
  00049	e8 00 00 00 00	 call	 ?IsCanJumpDash@ioKisaragiJump@@IAE_NPAVioBaseChar@@M@Z ; ioKisaragiJump::IsCanJumpDash
  0004e	84 c0		 test	 al, al
  00050	0f 84 37 05 00
	00		 je	 $LN6@ProcessJum@2

; 116  : 	{
; 117  : 		ioEntityGroup *pGrp = pOwner->GetGroup();

  00056	8b 43 04	 mov	 eax, DWORD PTR [ebx+4]
  00059	89 85 84 ff fe
	ff		 mov	 DWORD PTR _pGrp$523910[ebp], eax

; 118  : 
; 119  : 		DWORD dwCurTime = FRAMEGETTIME();

  0005f	ff 15 00 00 00
	00		 call	 DWORD PTR __imp_?GetSingleton@ioFrameTimer@@SAAAV1@XZ
  00065	8b c8		 mov	 ecx, eax
  00067	ff 15 00 00 00
	00		 call	 DWORD PTR __imp_?GetLoopSec@ioFrameTimer@@QBEKXZ

; 120  : 		D3DXVECTOR3 vMoveDir = pOwner->GetMoveDir();
; 121  : 
; 122  : 		int iAniID = pGrp->GetAnimationIdx( m_DashJumpAttack.m_AttackAnimation );

  0006d	8b 8d 84 ff fe
	ff		 mov	 ecx, DWORD PTR _pGrp$523910[ebp]
  00073	8d b3 b4 06 00
	00		 lea	 esi, DWORD PTR [ebx+1716]
  00079	8d 7d d4	 lea	 edi, DWORD PTR _vMoveDir$523912[ebp]
  0007c	a5		 movsd
  0007d	a5		 movsd
  0007e	a5		 movsd
  0007f	8b b5 90 ff fe
	ff		 mov	 esi, DWORD PTR _this$GSCopy$[ebp]
  00085	89 85 74 ff fe
	ff		 mov	 DWORD PTR _dwCurTime$523911[ebp], eax
  0008b	8d 86 64 01 00
	00		 lea	 eax, DWORD PTR [esi+356]
  00091	50		 push	 eax
  00092	ff 15 00 00 00
	00		 call	 DWORD PTR __imp_?GetAnimationIdx@ioEntityGroup@@QAEHABVioHashString@@@Z

; 123  : 		float fTimeRate = m_DashJumpAttack.m_fAttackAniRate;

  00098	f3 0f 10 86 74
	01 00 00	 movss	 xmm0, DWORD PTR [esi+372]
  000a0	89 85 78 ff fe
	ff		 mov	 DWORD PTR _iAniID$523913[ebp], eax

; 124  : 		DWORD dwPreDelay = m_DashJumpAttack.m_dwPreDelay;

  000a6	8b 86 ac 01 00
	00		 mov	 eax, DWORD PTR [esi+428]
  000ac	89 85 80 ff fe
	ff		 mov	 DWORD PTR _dwPreDelay$523915[ebp], eax

; 125  : 
; 126  : 		m_bUseExtendJump = true;
; 127  : 
; 128  : 		pOwner->SetCurJumpPowerAmt( 0.0f );
; 129  : 		pOwner->SetForcePowerAmt( 0.0f );

  000b2	8d 85 8c ff fe
	ff		 lea	 eax, DWORD PTR _value$528442[ebp]
  000b8	f3 0f 11 85 88
	ff fe ff	 movss	 DWORD PTR _fTimeRate$523914[ebp], xmm0
  000c0	0f 57 c0	 xorps	 xmm0, xmm0
  000c3	c6 46 10 01	 mov	 BYTE PTR [esi+16], 1
  000c7	50		 push	 eax
  000c8	8d 8b 88 0b 00
	00		 lea	 ecx, DWORD PTR [ebx+2952]
  000ce	f3 0f 11 83 90
	0e 00 00	 movss	 DWORD PTR [ebx+3728], xmm0
  000d6	f3 0f 11 85 8c
	ff fe ff	 movss	 DWORD PTR _value$528442[ebp], xmm0
  000de	e8 00 00 00 00	 call	 ?EncryptValueToPool@?$CEncrypt@M@@AAEXPBD@Z ; CEncrypt<float>::EncryptValueToPool

; 130  : 		pOwner->SetGravityAmt( 0.0f );

  000e3	0f 57 c0	 xorps	 xmm0, xmm0
  000e6	8d 85 8c ff fe
	ff		 lea	 eax, DWORD PTR _value$528452[ebp]
  000ec	50		 push	 eax
  000ed	8d 8b e8 0b 00
	00		 lea	 ecx, DWORD PTR [ebx+3048]
  000f3	f3 0f 11 85 8c
	ff fe ff	 movss	 DWORD PTR _value$528452[ebp], xmm0
  000fb	e8 00 00 00 00	 call	 ?EncryptValueToPool@?$CEncrypt@M@@AAEXPBD@Z ; CEncrypt<float>::EncryptValueToPool

; 131  : 
; 132  : 		pOwner->SetEnableHide( false );

  00100	8b 3d 00 00 00
	00		 mov	 edi, DWORD PTR __imp_??0ioHashString@@QAE@PBD@Z
  00106	83 ec 10	 sub	 esp, 16			; 00000010H
  00109	8b cc		 mov	 ecx, esp
  0010b	89 a5 94 ff fe
	ff		 mov	 DWORD PTR $T528403[ebp], esp
  00111	68 00 00 00 00	 push	 OFFSET ??_C@_00CNPNBAHC@?$AA@
  00116	ff d7		 call	 edi
  00118	83 65 fc 00	 and	 DWORD PTR __$EHRec$[ebp+8], 0
  0011c	83 ec 10	 sub	 esp, 16			; 00000010H
  0011f	8b cc		 mov	 ecx, esp
  00121	89 a5 7c ff fe
	ff		 mov	 DWORD PTR $T528404[ebp], esp
  00127	68 00 00 00 00	 push	 OFFSET ??_C@_00CNPNBAHC@?$AA@
  0012c	ff d7		 call	 edi
  0012e	83 4d fc ff	 or	 DWORD PTR __$EHRec$[ebp+8], -1
  00132	6a 00		 push	 0
  00134	8b cb		 mov	 ecx, ebx
  00136	e8 00 00 00 00	 call	 ?SetEnableHide@ioBaseChar@@QAEX_NVioHashString@@1@Z ; ioBaseChar::SetEnableHide

; 133  : 		pOwner->SetNoWoundState( false );

  0013b	6a 00		 push	 0
  0013d	8b cb		 mov	 ecx, ebx
  0013f	e8 00 00 00 00	 call	 ?SetNoWoundState@ioBaseChar@@QAEX_N@Z ; ioBaseChar::SetNoWoundState

; 134  : 		pOwner->SetEnableChangeTeam( false );

  00144	6a 00		 push	 0
  00146	8b cb		 mov	 ecx, ebx
  00148	e8 00 00 00 00	 call	 ?SetEnableChangeTeam@ioBaseChar@@QAEX_N@Z ; ioBaseChar::SetEnableChangeTeam

; 135  : 		pOwner->SetChangeJumpMotion( false, "", "", "", 0.0f );

  0014d	68 00 00 00 00	 push	 OFFSET ??_C@_00CNPNBAHC@?$AA@
  00152	8d 8d 64 ff fe
	ff		 lea	 ecx, DWORD PTR $T528405[ebp]
  00158	ff d7		 call	 edi
  0015a	68 00 00 00 00	 push	 OFFSET ??_C@_00CNPNBAHC@?$AA@
  0015f	8d 8d 54 ff fe
	ff		 lea	 ecx, DWORD PTR $T528406[ebp]
  00165	c7 45 fc 01 00
	00 00		 mov	 DWORD PTR __$EHRec$[ebp+8], 1
  0016c	ff d7		 call	 edi
  0016e	68 00 00 00 00	 push	 OFFSET ??_C@_00CNPNBAHC@?$AA@
  00173	8d 4d e0	 lea	 ecx, DWORD PTR $T528407[ebp]
  00176	c6 45 fc 02	 mov	 BYTE PTR __$EHRec$[ebp+8], 2
  0017a	ff d7		 call	 edi
  0017c	0f 57 c0	 xorps	 xmm0, xmm0
  0017f	51		 push	 ecx
  00180	8d 85 64 ff fe
	ff		 lea	 eax, DWORD PTR $T528405[ebp]
  00186	f3 0f 11 04 24	 movss	 DWORD PTR [esp], xmm0
  0018b	50		 push	 eax
  0018c	8d 85 54 ff fe
	ff		 lea	 eax, DWORD PTR $T528406[ebp]
  00192	50		 push	 eax
  00193	c6 45 fc 03	 mov	 BYTE PTR __$EHRec$[ebp+8], 3
  00197	8d 45 e0	 lea	 eax, DWORD PTR $T528407[ebp]
  0019a	50		 push	 eax
  0019b	6a 00		 push	 0
  0019d	8b cb		 mov	 ecx, ebx
  0019f	e8 00 00 00 00	 call	 ?SetChangeJumpMotion@ioBaseChar@@QAEX_NABVioHashString@@11M@Z ; ioBaseChar::SetChangeJumpMotion
  001a4	8d 4d e0	 lea	 ecx, DWORD PTR $T528407[ebp]
  001a7	c6 45 fc 02	 mov	 BYTE PTR __$EHRec$[ebp+8], 2
  001ab	ff 15 00 00 00
	00		 call	 DWORD PTR __imp_??1ioHashString@@QAE@XZ
  001b1	8d 8d 54 ff fe
	ff		 lea	 ecx, DWORD PTR $T528406[ebp]
  001b7	c6 45 fc 01	 mov	 BYTE PTR __$EHRec$[ebp+8], 1
  001bb	ff 15 00 00 00
	00		 call	 DWORD PTR __imp_??1ioHashString@@QAE@XZ
  001c1	83 4d fc ff	 or	 DWORD PTR __$EHRec$[ebp+8], -1
  001c5	8d 8d 64 ff fe
	ff		 lea	 ecx, DWORD PTR $T528405[ebp]
  001cb	ff 15 00 00 00
	00		 call	 DWORD PTR __imp_??1ioHashString@@QAE@XZ

; 136  : 
; 137  : 		pOwner->ChangeDirectionByInputDir( false );

  001d1	6a 01		 push	 1
  001d3	6a 00		 push	 0
  001d5	8b cb		 mov	 ecx, ebx
  001d7	e8 00 00 00 00	 call	 ?ChangeDirectionByInputDir@ioBaseChar@@QAE_N_N0@Z ; ioBaseChar::ChangeDirectionByInputDir

; 138  : 
; 139  : 		pGrp->ClearAllActionAni( FLOAT100, true );

  001dc	b8 64 00 00 00	 mov	 eax, 100		; 00000064H
  001e1	89 85 94 ff fe
	ff		 mov	 DWORD PTR tv1552[ebp], eax
  001e7	db 85 94 ff fe
	ff		 fild	 DWORD PTR tv1552[ebp]
  001ed	6a 01		 push	 1
  001ef	85 c0		 test	 eax, eax
  001f1	79 06		 jns	 SHORT $LN199@ProcessJum@2
  001f3	d8 05 00 00 00
	00		 fadd	 DWORD PTR __real@4f800000
$LN199@ProcessJum@2:
  001f9	51		 push	 ecx
  001fa	8b 8d 84 ff fe
	ff		 mov	 ecx, DWORD PTR _pGrp$523910[ebp]
  00200	d9 1c 24	 fstp	 DWORD PTR [esp]
  00203	ff 15 00 00 00
	00		 call	 DWORD PTR __imp_?ClearAllActionAni@ioEntityGroup@@QAEXM_N@Z

; 140  : 		pGrp->ClearAllLoopAni( FLOAT100, true );

  00209	b8 64 00 00 00	 mov	 eax, 100		; 00000064H
  0020e	89 85 94 ff fe
	ff		 mov	 DWORD PTR tv1547[ebp], eax
  00214	db 85 94 ff fe
	ff		 fild	 DWORD PTR tv1547[ebp]
  0021a	6a 01		 push	 1
  0021c	85 c0		 test	 eax, eax
  0021e	79 06		 jns	 SHORT $LN200@ProcessJum@2
  00220	d8 05 00 00 00
	00		 fadd	 DWORD PTR __real@4f800000
$LN200@ProcessJum@2:
  00226	51		 push	 ecx
  00227	8b 8d 84 ff fe
	ff		 mov	 ecx, DWORD PTR _pGrp$523910[ebp]
  0022d	d9 1c 24	 fstp	 DWORD PTR [esp]
  00230	ff 15 00 00 00
	00		 call	 DWORD PTR __imp_?ClearAllLoopAni@ioEntityGroup@@QAEXM_N@Z

; 141  : 
; 142  : 		pOwner->SetAutoTarget( ATT_JUMP );

  00236	6a 03		 push	 3
  00238	8b cb		 mov	 ecx, ebx
  0023a	e8 00 00 00 00	 call	 ?SetAutoTarget@ioBaseChar@@QAEXW4AutoTargetType@@@Z ; ioBaseChar::SetAutoTarget

; 143  : 
; 144  : 		pGrp->SetActionAni( iAniID, FLOAT100, FLOAT100, FLOAT1, FLOAT1/fTimeRate, 0.0f, dwPreDelay, true );		

  0023f	b8 01 00 00 00	 mov	 eax, 1
  00244	8b c8		 mov	 ecx, eax
  00246	b8 01 00 00 00	 mov	 eax, 1
  0024b	8b d0		 mov	 edx, eax
  0024d	b8 64 00 00 00	 mov	 eax, 100		; 00000064H
  00252	89 85 7c ff fe
	ff		 mov	 DWORD PTR $T528473[ebp], eax
  00258	b8 64 00 00 00	 mov	 eax, 100		; 00000064H
  0025d	db 85 80 ff fe
	ff		 fild	 DWORD PTR _dwPreDelay$523915[ebp]
  00263	89 85 94 ff fe
	ff		 mov	 DWORD PTR $T528477[ebp], eax
  00269	8b 85 80 ff fe
	ff		 mov	 eax, DWORD PTR _dwPreDelay$523915[ebp]
  0026f	6a 01		 push	 1
  00271	6a 01		 push	 1
  00273	85 c0		 test	 eax, eax
  00275	79 06		 jns	 SHORT $LN201@ProcessJum@2
  00277	d8 05 00 00 00
	00		 fadd	 DWORD PTR __real@4f800000
$LN201@ProcessJum@2:
  0027d	0f 57 c0	 xorps	 xmm0, xmm0
  00280	83 ec 18	 sub	 esp, 24			; 00000018H
  00283	d9 5c 24 14	 fstp	 DWORD PTR [esp+20]
  00287	89 8d 8c ff fe
	ff		 mov	 DWORD PTR tv1537[ebp], ecx
  0028d	db 85 8c ff fe
	ff		 fild	 DWORD PTR tv1537[ebp]
  00293	f3 0f 11 44 24
	10		 movss	 DWORD PTR [esp+16], xmm0
  00299	85 c9		 test	 ecx, ecx
  0029b	79 06		 jns	 SHORT $LN202@ProcessJum@2
  0029d	d8 05 00 00 00
	00		 fadd	 DWORD PTR __real@4f800000
$LN202@ProcessJum@2:
  002a3	d8 b5 88 ff fe
	ff		 fdiv	 DWORD PTR _fTimeRate$523914[ebp]
  002a9	d9 9d 8c ff fe
	ff		 fstp	 DWORD PTR tv1534[ebp]
  002af	d9 85 8c ff fe
	ff		 fld	 DWORD PTR tv1534[ebp]
  002b5	d9 5c 24 0c	 fstp	 DWORD PTR [esp+12]
  002b9	89 95 8c ff fe
	ff		 mov	 DWORD PTR tv1532[ebp], edx
  002bf	db 85 8c ff fe
	ff		 fild	 DWORD PTR tv1532[ebp]
  002c5	85 d2		 test	 edx, edx
  002c7	79 06		 jns	 SHORT $LN203@ProcessJum@2
  002c9	d8 05 00 00 00
	00		 fadd	 DWORD PTR __real@4f800000
$LN203@ProcessJum@2:
  002cf	8b 85 7c ff fe
	ff		 mov	 eax, DWORD PTR $T528473[ebp]
  002d5	d9 5c 24 08	 fstp	 DWORD PTR [esp+8]
  002d9	db 85 7c ff fe
	ff		 fild	 DWORD PTR $T528473[ebp]
  002df	85 c0		 test	 eax, eax
  002e1	79 06		 jns	 SHORT $LN204@ProcessJum@2
  002e3	d8 05 00 00 00
	00		 fadd	 DWORD PTR __real@4f800000
$LN204@ProcessJum@2:
  002e9	8b 85 94 ff fe
	ff		 mov	 eax, DWORD PTR $T528477[ebp]
  002ef	d9 5c 24 04	 fstp	 DWORD PTR [esp+4]
  002f3	db 85 94 ff fe
	ff		 fild	 DWORD PTR $T528477[ebp]
  002f9	85 c0		 test	 eax, eax
  002fb	79 06		 jns	 SHORT $LN205@ProcessJum@2
  002fd	d8 05 00 00 00
	00		 fadd	 DWORD PTR __real@4f800000
$LN205@ProcessJum@2:
  00303	8b 8d 84 ff fe
	ff		 mov	 ecx, DWORD PTR _pGrp$523910[ebp]
  00309	d9 1c 24	 fstp	 DWORD PTR [esp]
  0030c	ff b5 78 ff fe
	ff		 push	 DWORD PTR _iAniID$523913[ebp]
  00312	ff 15 00 00 00
	00		 call	 DWORD PTR __imp_?SetActionAni@ioEntityGroup@@QAE_NHMMMMMM_N0@Z

; 145  : 
; 146  : 		pOwner->RefreshFireTimeList( iAniID,
; 147  : 									 m_DashJumpAttack.m_vWeaponInfoList,
; 148  : 									 FTT_JUMP_ATTACK,
; 149  : 									 fTimeRate,
; 150  : 									 dwPreDelay );

  00318	f3 0f 10 85 88
	ff fe ff	 movss	 xmm0, DWORD PTR _fTimeRate$523914[ebp]
  00320	6a 00		 push	 0
  00322	ff b5 80 ff fe
	ff		 push	 DWORD PTR _dwPreDelay$523915[ebp]
  00328	8d 86 8c 01 00
	00		 lea	 eax, DWORD PTR [esi+396]
  0032e	51		 push	 ecx
  0032f	f3 0f 11 04 24	 movss	 DWORD PTR [esp], xmm0
  00334	6a 03		 push	 3
  00336	50		 push	 eax
  00337	ff b5 78 ff fe
	ff		 push	 DWORD PTR _iAniID$523913[ebp]
  0033d	8b cb		 mov	 ecx, ebx
  0033f	e8 00 00 00 00	 call	 ?RefreshFireTimeList@ioBaseChar@@QAEXHABV?$vector@UWeaponInfo@@V?$allocator@UWeaponInfo@@@std@@@std@@W4FireTimeType@@MK_N@Z ; ioBaseChar::RefreshFireTimeList

; 151  : 
; 152  : 		pOwner->IncreaseWeaponIndexBase();

  00344	8b cb		 mov	 ecx, ebx
  00346	e8 00 00 00 00	 call	 ?IncreaseWeaponIndexBase@ioBaseChar@@QAEKXZ ; ioBaseChar::IncreaseWeaponIndexBase

; 153  : 		//
; 154  : 
; 155  : 		m_dwActionEndTime = dwCurTime + dwPreDelay + pGrp->GetAnimationFullTime( iAniID ) * fTimeRate;

  0034b	ff b5 78 ff fe
	ff		 push	 DWORD PTR _iAniID$523913[ebp]
  00351	8b 8d 84 ff fe
	ff		 mov	 ecx, DWORD PTR _pGrp$523910[ebp]
  00357	ff 15 00 00 00
	00		 call	 DWORD PTR __imp_?GetAnimationFullTime@ioEntityGroup@@QAEMH@Z
  0035d	d8 8d 88 ff fe
	ff		 fmul	 DWORD PTR _fTimeRate$523914[ebp]
  00363	8b 85 80 ff fe
	ff		 mov	 eax, DWORD PTR _dwPreDelay$523915[ebp]
  00369	03 85 74 ff fe
	ff		 add	 eax, DWORD PTR _dwCurTime$523911[ebp]
  0036f	89 85 94 ff fe
	ff		 mov	 DWORD PTR tv1510[ebp], eax
  00375	db 85 94 ff fe
	ff		 fild	 DWORD PTR tv1510[ebp]
  0037b	79 06		 jns	 SHORT $LN206@ProcessJum@2
  0037d	d8 05 00 00 00
	00		 fadd	 DWORD PTR __real@4f800000
$LN206@ProcessJum@2:
  00383	de c1		 faddp	 ST(1), ST(0)
  00385	e8 00 00 00 00	 call	 __ftol2
  0038a	6a 02		 push	 2
  0038c	89 86 b4 01 00
	00		 mov	 DWORD PTR [esi+436], eax

; 156  : 
; 157  : 		DWORD dwTrackingTime = dwCurTime;
; 158  : 		dwTrackingTime += pGrp->GetAnimationEventTime_e( iAniID, "tracking_e" ) * fTimeRate;

  00392	c7 45 e0 99 9e
	8a 89		 mov	 DWORD PTR _szEncEventType$528511[ebp], -1987404135 ; 898a9e99H
  00399	c7 45 e4 86 85
	85 8d		 mov	 DWORD PTR _szEncEventType$528511[ebp+4], -1920629370 ; 8d858586H
  003a0	66 c7 45 e8 b2
	89		 mov	 WORD PTR _szEncEventType$528511[ebp+8], 35250 ; 000089b2H
  003a6	8d 45 e0	 lea	 eax, DWORD PTR _szEncEventType$528511[ebp]
  003a9	c6 45 ea 00	 mov	 BYTE PTR _szEncEventType$528511[ebp+10], 0
  003ad	59		 pop	 ecx
$LL152@ProcessJum@2:
  003ae	81 30 ed ec eb
	ea		 xor	 DWORD PTR [eax], -353637139 ; eaebecedH
  003b4	83 c0 04	 add	 eax, 4
  003b7	49		 dec	 ecx
  003b8	75 f4		 jne	 SHORT $LL152@ProcessJum@2
  003ba	6a 08		 push	 8
  003bc	58		 pop	 eax
$LL149@ProcessJum@2:
  003bd	8b c8		 mov	 ecx, eax
  003bf	81 e1 03 00 00
	80		 and	 ecx, -2147483645	; 80000003H
  003c5	79 05		 jns	 SHORT $LN207@ProcessJum@2
  003c7	49		 dec	 ecx
  003c8	83 c9 fc	 or	 ecx, -4			; fffffffcH
  003cb	41		 inc	 ecx
$LN207@ProcessJum@2:
  003cc	b2 ed		 mov	 dl, -19			; ffffffedH
  003ce	2a d1		 sub	 dl, cl
  003d0	30 54 05 e0	 xor	 BYTE PTR _szEncEventType$528511[ebp+eax], dl
  003d4	40		 inc	 eax
  003d5	83 f8 0a	 cmp	 eax, 10			; 0000000aH
  003d8	7c e3		 jl	 SHORT $LL149@ProcessJum@2
  003da	8d 45 e0	 lea	 eax, DWORD PTR _szEncEventType$528511[ebp]
  003dd	50		 push	 eax
  003de	8d 8d 64 ff fe
	ff		 lea	 ecx, DWORD PTR $T528498[ebp]
  003e4	ff d7		 call	 edi
  003e6	8b bd 78 ff fe
	ff		 mov	 edi, DWORD PTR _iAniID$523913[ebp]
  003ec	8b 8d 84 ff fe
	ff		 mov	 ecx, DWORD PTR _pGrp$523910[ebp]
  003f2	8d 85 64 ff fe
	ff		 lea	 eax, DWORD PTR $T528498[ebp]
  003f8	50		 push	 eax
  003f9	57		 push	 edi
  003fa	c7 45 fc 04 00
	00 00		 mov	 DWORD PTR __$EHRec$[ebp+8], 4
  00401	ff 15 00 00 00
	00		 call	 DWORD PTR __imp_?GetAnimationEventTime@ioEntityGroup@@QAEMHABVioHashString@@@Z
  00407	d9 9d 94 ff fe
	ff		 fstp	 DWORD PTR $T528497[ebp]
  0040d	83 4d fc ff	 or	 DWORD PTR __$EHRec$[ebp+8], -1
  00411	8d 8d 64 ff fe
	ff		 lea	 ecx, DWORD PTR $T528498[ebp]
  00417	ff 15 00 00 00
	00		 call	 DWORD PTR __imp_??1ioHashString@@QAE@XZ
  0041d	d9 85 94 ff fe
	ff		 fld	 DWORD PTR $T528497[ebp]
  00423	8b 85 74 ff fe
	ff		 mov	 eax, DWORD PTR _dwCurTime$523911[ebp]
  00429	d8 8d 88 ff fe
	ff		 fmul	 DWORD PTR _fTimeRate$523914[ebp]
  0042f	db 85 74 ff fe
	ff		 fild	 DWORD PTR _dwCurTime$523911[ebp]
  00435	85 c0		 test	 eax, eax
  00437	79 06		 jns	 SHORT $LN208@ProcessJum@2
  00439	dc 05 00 00 00
	00		 fadd	 QWORD PTR __real@41f0000000000000
$LN208@ProcessJum@2:
  0043f	de c1		 faddp	 ST(1), ST(0)
  00441	e8 00 00 00 00	 call	 __ftol2

; 159  : 		pOwner->SetAutoTargetTrackingEndTime( dwTrackingTime );

  00446	50		 push	 eax
  00447	8b cb		 mov	 ecx, ebx
  00449	e8 00 00 00 00	 call	 ?SetAutoTargetTrackingEndTime@ioBaseChar@@QAEXK@Z ; ioBaseChar::SetAutoTargetTrackingEndTime

; 160  : 
; 161  : 		pOwner->CheckCharColSkipTime( iAniID, fTimeRate, dwPreDelay );

  0044e	ff b5 80 ff fe
	ff		 push	 DWORD PTR _dwPreDelay$523915[ebp]
  00454	f3 0f 10 85 88
	ff fe ff	 movss	 xmm0, DWORD PTR _fTimeRate$523914[ebp]
  0045c	51		 push	 ecx
  0045d	f3 0f 11 04 24	 movss	 DWORD PTR [esp], xmm0
  00462	57		 push	 edi
  00463	8b cb		 mov	 ecx, ebx
  00465	e8 00 00 00 00	 call	 ?CheckCharColSkipTime@ioBaseChar@@QAEXHMK@Z ; ioBaseChar::CheckCharColSkipTime

; 162  : 
; 163  : 		CheckKeyReserveTime( pOwner, iAniID, fTimeRate );

  0046a	f3 0f 10 85 88
	ff fe ff	 movss	 xmm0, DWORD PTR _fTimeRate$523914[ebp]
  00472	8b 06		 mov	 eax, DWORD PTR [esi]
  00474	6a 00		 push	 0
  00476	51		 push	 ecx
  00477	f3 0f 11 04 24	 movss	 DWORD PTR [esp], xmm0
  0047c	57		 push	 edi
  0047d	53		 push	 ebx
  0047e	8b ce		 mov	 ecx, esi
  00480	ff 90 84 00 00
	00		 call	 DWORD PTR [eax+132]
  00486	dd d8		 fstp	 ST(0)

; 164  : 
; 165  : 		pOwner->SetReservedSliding( m_DashJumpAttack.m_vForceInfoList, iAniID, fTimeRate, dwPreDelay );

  00488	f3 0f 10 05 00
	00 00 00	 movss	 xmm0, DWORD PTR __real@3f800000
  00490	6a 01		 push	 1
  00492	51		 push	 ecx
  00493	f3 0f 11 04 24	 movss	 DWORD PTR [esp], xmm0
  00498	ff b5 80 ff fe
	ff		 push	 DWORD PTR _dwPreDelay$523915[ebp]
  0049e	f3 0f 10 85 88
	ff fe ff	 movss	 xmm0, DWORD PTR _fTimeRate$523914[ebp]
  004a6	51		 push	 ecx
  004a7	f3 0f 11 04 24	 movss	 DWORD PTR [esp], xmm0
  004ac	57		 push	 edi
  004ad	8d 86 9c 01 00
	00		 lea	 eax, DWORD PTR [esi+412]
  004b3	50		 push	 eax
  004b4	8b cb		 mov	 ecx, ebx
  004b6	e8 00 00 00 00	 call	 ?SetReservedSliding@ioBaseChar@@QAEXABV?$vector@UForceInfo@@V?$allocator@UForceInfo@@@std@@@std@@HMKM_N@Z ; ioBaseChar::SetReservedSliding

; 166  : 
; 167  : 		m_CurJumpState = KJS_DASH;

  004bb	c7 86 24 01 00
	00 03 00 00 00	 mov	 DWORD PTR [esi+292], 3

; 168  : 
; 169  : 		if( pOwner->IsNeedSendNetwork() )

  004c5	8b 03		 mov	 eax, DWORD PTR [ebx]
  004c7	8b cb		 mov	 ecx, ebx
  004c9	ff 90 04 01 00
	00		 call	 DWORD PTR [eax+260]
  004cf	84 c0		 test	 al, al
  004d1	0f 84 b0 00 00
	00		 je	 $LN195@ProcessJum@2

; 170  : 		{
; 171  : 			SP2Packet kPacket( CUPK_JUMP_DASH );

  004d7	68 63 41 00 00	 push	 16739			; 00004163H
  004dc	8d 8d b0 7f ff
	ff		 lea	 ecx, DWORD PTR _kPacket$523934[ebp]
  004e2	e8 00 00 00 00	 call	 ??0SP2Packet@@QAE@K@Z	; SP2Packet::SP2Packet

; 172  : 			kPacket << pOwner->GetCharName();

  004e7	8d 83 d4 02 00
	00		 lea	 eax, DWORD PTR [ebx+724]
  004ed	50		 push	 eax
  004ee	8d 8d b0 7f ff
	ff		 lea	 ecx, DWORD PTR _kPacket$523934[ebp]
  004f4	c7 45 fc 05 00
	00 00		 mov	 DWORD PTR __$EHRec$[ebp+8], 5
  004fb	e8 00 00 00 00	 call	 ??6SP2Packet@@QAEAAV0@ABVioHashString@@@Z ; SP2Packet::operator<<

; 173  : 			kPacket << (int)GetType();

  00500	8b b5 90 ff fe
	ff		 mov	 esi, DWORD PTR _this$GSCopy$[ebp]
  00506	8b 06		 mov	 eax, DWORD PTR [esi]
  00508	8b ce		 mov	 ecx, esi
  0050a	ff 50 08	 call	 DWORD PTR [eax+8]
  0050d	50		 push	 eax
  0050e	8d 8d b0 7f ff
	ff		 lea	 ecx, DWORD PTR _kPacket$523934[ebp]
  00514	e8 00 00 00 00	 call	 ??6SP2Packet@@QAEAAV0@H@Z ; SP2Packet::operator<<

; 174  : 			kPacket << vMoveDir;

  00519	8d 45 d4	 lea	 eax, DWORD PTR _vMoveDir$523912[ebp]
  0051c	50		 push	 eax
  0051d	8d 8d b0 7f ff
	ff		 lea	 ecx, DWORD PTR _kPacket$523934[ebp]
  00523	e8 00 00 00 00	 call	 ??6SP2Packet@@QAEAAV0@ABUD3DXVECTOR3@@@Z ; SP2Packet::operator<<

; 175  : 			kPacket << (int)m_CurJumpState;

  00528	ff b6 24 01 00
	00		 push	 DWORD PTR [esi+292]
  0052e	8d 8d b0 7f ff
	ff		 lea	 ecx, DWORD PTR _kPacket$523934[ebp]
  00534	e8 00 00 00 00	 call	 ??6SP2Packet@@QAEAAV0@H@Z ; SP2Packet::operator<<

; 176  : 			kPacket << false;					// dash end

  00539	6a 00		 push	 0
  0053b	8d 8d b0 7f ff
	ff		 lea	 ecx, DWORD PTR _kPacket$523934[ebp]
  00541	e8 00 00 00 00	 call	 ??6SP2Packet@@QAEAAV0@_N@Z ; SP2Packet::operator<<

; 177  : 			kPacket << pOwner->GetTargetRot();

  00546	8d 83 a4 06 00
	00		 lea	 eax, DWORD PTR [ebx+1700]
  0054c	50		 push	 eax
  0054d	8d 8d b0 7f ff
	ff		 lea	 ecx, DWORD PTR _kPacket$523934[ebp]
  00553	e8 00 00 00 00	 call	 ??6SP2Packet@@QAEAAV0@ABUD3DXQUATERNION@@@Z ; SP2Packet::operator<<

; 178  : 			pOwner->FillAutoTargetInfo( kPacket );

  00558	8d 85 b0 7f ff
	ff		 lea	 eax, DWORD PTR _kPacket$523934[ebp]
  0055e	50		 push	 eax
  0055f	8b cb		 mov	 ecx, ebx
  00561	e8 00 00 00 00	 call	 ?FillAutoTargetInfo@ioBaseChar@@QAEXAAVSP2Packet@@@Z ; ioBaseChar::FillAutoTargetInfo

; 179  : 			P2PNetwork::SendToAllPlayingUser( kPacket );

  00566	8d 85 b0 7f ff
	ff		 lea	 eax, DWORD PTR _kPacket$523934[ebp]
  0056c	6a 00		 push	 0
  0056e	50		 push	 eax
  0056f	e8 00 00 00 00	 call	 ?SendToAllPlayingUser@P2PNetwork@@YAXAAVSP2Packet@@PAVioBaseChar@@@Z ; P2PNetwork::SendToAllPlayingUser

; 180  : 		}

  00574	83 4d fc ff	 or	 DWORD PTR __$EHRec$[ebp+8], -1
  00578	59		 pop	 ecx
  00579	59		 pop	 ecx
  0057a	8d 8d b0 7f ff
	ff		 lea	 ecx, DWORD PTR _kPacket$523934[ebp]
  00580	e8 00 00 00 00	 call	 ??1SP2Packet@@UAE@XZ	; SP2Packet::~SP2Packet
  00585	eb 06		 jmp	 SHORT $LN6@ProcessJum@2
$LN195@ProcessJum@2:
  00587	8b b5 90 ff fe
	ff		 mov	 esi, DWORD PTR _this$GSCopy$[ebp]
$LN6@ProcessJum@2:

; 181  : 	}
; 182  : 
; 183  : 	// DoubleJumpCheck
; 184  : 	if( IsCanDoubleJump( pOwner, fHeightGap ) )

  0058d	f3 0f 10 45 0c	 movss	 xmm0, DWORD PTR _fHeightGap$[ebp]
  00592	51		 push	 ecx
  00593	f3 0f 11 04 24	 movss	 DWORD PTR [esp], xmm0
  00598	53		 push	 ebx
  00599	8b ce		 mov	 ecx, esi
  0059b	e8 00 00 00 00	 call	 ?IsCanDoubleJump@ioKisaragiJump@@IAE_NPAVioBaseChar@@M@Z ; ioKisaragiJump::IsCanDoubleJump
  005a0	84 c0		 test	 al, al
  005a2	0f 84 13 03 00
	00		 je	 $LN1@ProcessJum@2

; 185  : 	{
; 186  : 		if( m_fDoubleJumpPower >= 0.0f )

  005a8	f3 0f 10 8e 28
	01 00 00	 movss	 xmm1, DWORD PTR [esi+296]
  005b0	0f 57 c0	 xorps	 xmm0, xmm0
  005b3	0f 2f c8	 comiss	 xmm1, xmm0
  005b6	0f 82 ff 02 00
	00		 jb	 $LN1@ProcessJum@2

; 187  : 		{
; 188  : 			m_CurJumpState = KJS_DOUBLE;
; 189  : 
; 190  : 			m_bUsedDoubleJump = true;
; 191  : 			m_bUseExtendJump = true;
; 192  : 			m_iCurJumpCnt++;

  005bc	ff 86 60 01 00
	00		 inc	 DWORD PTR [esi+352]

; 193  : 
; 194  : 			pOwner->SetCurJumpPowerAmt( 0.0f );
; 195  : 			pOwner->SetForcePowerAmt( 0.0f );

  005c2	8d 85 94 ff fe
	ff		 lea	 eax, DWORD PTR _value$528625[ebp]
  005c8	c7 86 24 01 00
	00 02 00 00 00	 mov	 DWORD PTR [esi+292], 2
  005d2	c6 86 58 01 00
	00 01		 mov	 BYTE PTR [esi+344], 1
  005d9	c6 46 10 01	 mov	 BYTE PTR [esi+16], 1
  005dd	50		 push	 eax
  005de	8d 8b 88 0b 00
	00		 lea	 ecx, DWORD PTR [ebx+2952]
  005e4	f3 0f 11 83 90
	0e 00 00	 movss	 DWORD PTR [ebx+3728], xmm0
  005ec	f3 0f 11 85 94
	ff fe ff	 movss	 DWORD PTR _value$528625[ebp], xmm0
  005f4	e8 00 00 00 00	 call	 ?EncryptValueToPool@?$CEncrypt@M@@AAEXPBD@Z ; CEncrypt<float>::EncryptValueToPool

; 196  : 			pOwner->SetGravityAmt( 0.0f );

  005f9	0f 57 c0	 xorps	 xmm0, xmm0
  005fc	8d 85 94 ff fe
	ff		 lea	 eax, DWORD PTR _value$528635[ebp]
  00602	50		 push	 eax
  00603	8d 8b e8 0b 00
	00		 lea	 ecx, DWORD PTR [ebx+3048]
  00609	f3 0f 11 85 94
	ff fe ff	 movss	 DWORD PTR _value$528635[ebp], xmm0
  00611	e8 00 00 00 00	 call	 ?EncryptValueToPool@?$CEncrypt@M@@AAEXPBD@Z ; CEncrypt<float>::EncryptValueToPool

; 197  : 			pOwner->SetJumpPower( m_fDoubleJumpPower );

  00616	f3 0f 10 86 28
	01 00 00	 movss	 xmm0, DWORD PTR [esi+296]
  0061e	51		 push	 ecx
  0061f	8b cb		 mov	 ecx, ebx
  00621	f3 0f 11 04 24	 movss	 DWORD PTR [esp], xmm0
  00626	e8 00 00 00 00	 call	 ?SetJumpPower@ioBaseChar@@QAEXM@Z ; ioBaseChar::SetJumpPower

; 198  : 
; 199  : 			D3DXVECTOR3 vJumpDir = pOwner->GetMoveDir();
; 200  : 			if( m_fDoubleJumpForce > 0.0f )

  0062b	8b 8d 90 ff fe
	ff		 mov	 ecx, DWORD PTR _this$GSCopy$[ebp]
  00631	f3 0f 10 81 2c
	01 00 00	 movss	 xmm0, DWORD PTR [ecx+300]
  00639	0f 2f 05 00 00
	00 00		 comiss	 xmm0, DWORD PTR __real@00000000
  00640	8d b3 b4 06 00
	00		 lea	 esi, DWORD PTR [ebx+1716]
  00646	8d 7d c8	 lea	 edi, DWORD PTR _vJumpDir$523939[ebp]
  00649	a5		 movsd
  0064a	a5		 movsd
  0064b	a5		 movsd
  0064c	76 44		 jbe	 SHORT $LN3@ProcessJum@2

; 201  : 				pOwner->SetForcePower( vJumpDir, fabs(m_fDoubleJumpForce), FLOAT1, true );

  0064e	b8 01 00 00 00	 mov	 eax, 1
  00653	f3 0f 10 81 2c
	01 00 00	 movss	 xmm0, DWORD PTR [ecx+300]
  0065b	89 85 94 ff fe
	ff		 mov	 DWORD PTR tv1459[ebp], eax
  00661	db 85 94 ff fe
	ff		 fild	 DWORD PTR tv1459[ebp]
  00667	6a 01		 push	 1
  00669	85 c0		 test	 eax, eax
  0066b	79 06		 jns	 SHORT $LN209@ProcessJum@2
  0066d	d8 05 00 00 00
	00		 fadd	 DWORD PTR __real@4f800000
$LN209@ProcessJum@2:
  00673	51		 push	 ecx
  00674	51		 push	 ecx
  00675	0f 5a c0	 cvtps2pd xmm0, xmm0
  00678	d9 5c 24 04	 fstp	 DWORD PTR [esp+4]
  0067c	66 0f 54 05 00
	00 00 00	 andpd	 xmm0, QWORD PTR __mask@@AbsDouble@
  00684	f2 0f 5a c0	 cvtsd2ss xmm0, xmm0
  00688	f3 0f 11 04 24	 movss	 DWORD PTR [esp], xmm0
  0068d	8d 45 c8	 lea	 eax, DWORD PTR _vJumpDir$523939[ebp]

; 202  : 			else

  00690	eb 74		 jmp	 SHORT $LN211@ProcessJum@2
$LN3@ProcessJum@2:

; 203  : 				pOwner->SetForcePower( -vJumpDir, fabs(m_fDoubleJumpForce), FLOAT1, true );

  00692	b8 01 00 00 00	 mov	 eax, 1
  00697	f3 0f 10 81 2c
	01 00 00	 movss	 xmm0, DWORD PTR [ecx+300]
  0069f	f3 0f 10 4d c8	 movss	 xmm1, DWORD PTR _vJumpDir$523939[ebp]
  006a4	f3 0f 10 55 cc	 movss	 xmm2, DWORD PTR _vJumpDir$523939[ebp+4]
  006a9	f3 0f 10 5d d0	 movss	 xmm3, DWORD PTR _vJumpDir$523939[ebp+8]
  006ae	0f 5a c0	 cvtps2pd xmm0, xmm0
  006b1	66 0f 54 05 00
	00 00 00	 andpd	 xmm0, QWORD PTR __mask@@AbsDouble@
  006b9	0f 57 e4	 xorps	 xmm4, xmm4
  006bc	f2 0f 5a e0	 cvtsd2ss xmm4, xmm0
  006c0	f3 0f 10 05 00
	00 00 00	 movss	 xmm0, DWORD PTR __mask@@NegFloat@
  006c8	0f 57 c8	 xorps	 xmm1, xmm0
  006cb	0f 57 d0	 xorps	 xmm2, xmm0
  006ce	0f 57 d8	 xorps	 xmm3, xmm0
  006d1	89 85 94 ff fe
	ff		 mov	 DWORD PTR tv1441[ebp], eax
  006d7	db 85 94 ff fe
	ff		 fild	 DWORD PTR tv1441[ebp]
  006dd	f3 0f 11 4d d4	 movss	 DWORD PTR $T523943[ebp], xmm1
  006e2	f3 0f 11 55 d8	 movss	 DWORD PTR $T523943[ebp+4], xmm2
  006e7	f3 0f 11 5d dc	 movss	 DWORD PTR $T523943[ebp+8], xmm3
  006ec	6a 01		 push	 1
  006ee	85 c0		 test	 eax, eax
  006f0	79 06		 jns	 SHORT $LN210@ProcessJum@2
  006f2	d8 05 00 00 00
	00		 fadd	 DWORD PTR __real@4f800000
$LN210@ProcessJum@2:
  006f8	51		 push	 ecx
  006f9	51		 push	 ecx
  006fa	d9 5c 24 04	 fstp	 DWORD PTR [esp+4]
  006fe	f3 0f 11 24 24	 movss	 DWORD PTR [esp], xmm4
  00703	8d 45 d4	 lea	 eax, DWORD PTR $T523943[ebp]
$LN211@ProcessJum@2:
  00706	50		 push	 eax
  00707	8b cb		 mov	 ecx, ebx
  00709	e8 00 00 00 00	 call	 ?SetForcePower@ioBaseChar@@QAEXABUD3DXVECTOR3@@MM_N@Z ; ioBaseChar::SetForcePower

; 204  : 
; 205  : 			pOwner->SetEnableHide( false );

  0070e	8b 35 00 00 00
	00		 mov	 esi, DWORD PTR __imp_??0ioHashString@@QAE@PBD@Z
  00714	83 ec 10	 sub	 esp, 16			; 00000010H
  00717	8b cc		 mov	 ecx, esp
  00719	89 a5 94 ff fe
	ff		 mov	 DWORD PTR $T528408[ebp], esp
  0071f	bf 00 00 00 00	 mov	 edi, OFFSET ??_C@_00CNPNBAHC@?$AA@
  00724	57		 push	 edi
  00725	ff d6		 call	 esi
  00727	83 ec 10	 sub	 esp, 16			; 00000010H
  0072a	8b cc		 mov	 ecx, esp
  0072c	89 a5 7c ff fe
	ff		 mov	 DWORD PTR $T528409[ebp], esp
  00732	57		 push	 edi
  00733	c7 45 fc 06 00
	00 00		 mov	 DWORD PTR __$EHRec$[ebp+8], 6
  0073a	ff d6		 call	 esi
  0073c	83 4d fc ff	 or	 DWORD PTR __$EHRec$[ebp+8], -1
  00740	6a 00		 push	 0
  00742	8b cb		 mov	 ecx, ebx
  00744	e8 00 00 00 00	 call	 ?SetEnableHide@ioBaseChar@@QAEX_NVioHashString@@1@Z ; ioBaseChar::SetEnableHide

; 206  : 			pOwner->SetEnableChangeTeam( false );

  00749	6a 00		 push	 0
  0074b	8b cb		 mov	 ecx, ebx
  0074d	e8 00 00 00 00	 call	 ?SetEnableChangeTeam@ioBaseChar@@QAEX_N@Z ; ioBaseChar::SetEnableChangeTeam

; 207  : 			pOwner->SetChangeJumpMotion( false, "", "", "", 0.0f );

  00752	57		 push	 edi
  00753	8d 4d e0	 lea	 ecx, DWORD PTR $T528410[ebp]
  00756	ff d6		 call	 esi
  00758	57		 push	 edi
  00759	8d 8d 54 ff fe
	ff		 lea	 ecx, DWORD PTR $T528411[ebp]
  0075f	c7 45 fc 07 00
	00 00		 mov	 DWORD PTR __$EHRec$[ebp+8], 7
  00766	ff d6		 call	 esi
  00768	57		 push	 edi
  00769	8d 8d 64 ff fe
	ff		 lea	 ecx, DWORD PTR $T528412[ebp]
  0076f	c6 45 fc 08	 mov	 BYTE PTR __$EHRec$[ebp+8], 8
  00773	ff d6		 call	 esi
  00775	0f 57 c0	 xorps	 xmm0, xmm0
  00778	51		 push	 ecx
  00779	f3 0f 11 04 24	 movss	 DWORD PTR [esp], xmm0
  0077e	8d 45 e0	 lea	 eax, DWORD PTR $T528410[ebp]
  00781	50		 push	 eax
  00782	8d 85 54 ff fe
	ff		 lea	 eax, DWORD PTR $T528411[ebp]
  00788	50		 push	 eax
  00789	8d 85 64 ff fe
	ff		 lea	 eax, DWORD PTR $T528412[ebp]
  0078f	50		 push	 eax
  00790	6a 00		 push	 0
  00792	8b cb		 mov	 ecx, ebx
  00794	c6 45 fc 09	 mov	 BYTE PTR __$EHRec$[ebp+8], 9
  00798	e8 00 00 00 00	 call	 ?SetChangeJumpMotion@ioBaseChar@@QAEX_NABVioHashString@@11M@Z ; ioBaseChar::SetChangeJumpMotion
  0079d	8b 35 00 00 00
	00		 mov	 esi, DWORD PTR __imp_??1ioHashString@@QAE@XZ
  007a3	8d 8d 64 ff fe
	ff		 lea	 ecx, DWORD PTR $T528412[ebp]
  007a9	c6 45 fc 08	 mov	 BYTE PTR __$EHRec$[ebp+8], 8
  007ad	ff d6		 call	 esi
  007af	8d 8d 54 ff fe
	ff		 lea	 ecx, DWORD PTR $T528411[ebp]
  007b5	c6 45 fc 07	 mov	 BYTE PTR __$EHRec$[ebp+8], 7
  007b9	ff d6		 call	 esi
  007bb	83 4d fc ff	 or	 DWORD PTR __$EHRec$[ebp+8], -1
  007bf	8d 4d e0	 lea	 ecx, DWORD PTR $T528410[ebp]
  007c2	ff d6		 call	 esi

; 208  : 
; 209  : 			g_TutorialMgr.ActionDoubleJump();

  007c4	e8 00 00 00 00	 call	 ?GetSingleton@ioTutorialManager@@SAAAV1@XZ ; ioTutorialManager::GetSingleton
  007c9	8b c8		 mov	 ecx, eax
  007cb	e8 00 00 00 00	 call	 ?ActionDoubleJump@ioTutorialManager@@QAEXXZ ; ioTutorialManager::ActionDoubleJump

; 210  : 
; 211  : 			SetDoubleJumpAni( pOwner );

  007d0	8b 8d 90 ff fe
	ff		 mov	 ecx, DWORD PTR _this$GSCopy$[ebp]
  007d6	53		 push	 ebx
  007d7	e8 00 00 00 00	 call	 ?SetDoubleJumpAni@ioKisaragiJump@@IAEXPAVioBaseChar@@@Z ; ioKisaragiJump::SetDoubleJumpAni

; 212  : 
; 213  : 			if( pOwner->IsNeedSendNetwork() )

  007dc	8b 03		 mov	 eax, DWORD PTR [ebx]
  007de	8b cb		 mov	 ecx, ebx
  007e0	ff 90 04 01 00
	00		 call	 DWORD PTR [eax+260]
  007e6	84 c0		 test	 al, al
  007e8	0f 84 c7 00 00
	00		 je	 $LN197@ProcessJum@2

; 214  : 			{
; 215  : 				SP2Packet kPacket( CUPK_DOUBLE_JUMP );

  007ee	68 37 41 00 00	 push	 16695			; 00004137H
  007f3	8d 8d 98 ff fe
	ff		 lea	 ecx, DWORD PTR _kPacket$523951[ebp]
  007f9	e8 00 00 00 00	 call	 ??0SP2Packet@@QAE@K@Z	; SP2Packet::SP2Packet

; 216  : 				kPacket << pOwner->GetCharName();

  007fe	8d 83 d4 02 00
	00		 lea	 eax, DWORD PTR [ebx+724]
  00804	50		 push	 eax
  00805	8d 8d 98 ff fe
	ff		 lea	 ecx, DWORD PTR _kPacket$523951[ebp]
  0080b	c7 45 fc 0a 00
	00 00		 mov	 DWORD PTR __$EHRec$[ebp+8], 10 ; 0000000aH
  00812	e8 00 00 00 00	 call	 ??6SP2Packet@@QAEAAV0@ABVioHashString@@@Z ; SP2Packet::operator<<

; 217  : 				kPacket << (int)GetType();

  00817	8b b5 90 ff fe
	ff		 mov	 esi, DWORD PTR _this$GSCopy$[ebp]
  0081d	8b 06		 mov	 eax, DWORD PTR [esi]
  0081f	8b ce		 mov	 ecx, esi
  00821	ff 50 08	 call	 DWORD PTR [eax+8]
  00824	50		 push	 eax
  00825	8d 8d 98 ff fe
	ff		 lea	 ecx, DWORD PTR _kPacket$523951[ebp]
  0082b	e8 00 00 00 00	 call	 ??6SP2Packet@@QAEAAV0@H@Z ; SP2Packet::operator<<

; 218  : 				kPacket << vJumpDir;

  00830	8d 45 c8	 lea	 eax, DWORD PTR _vJumpDir$523939[ebp]
  00833	50		 push	 eax
  00834	8d 8d 98 ff fe
	ff		 lea	 ecx, DWORD PTR _kPacket$523951[ebp]
  0083a	e8 00 00 00 00	 call	 ??6SP2Packet@@QAEAAV0@ABUD3DXVECTOR3@@@Z ; SP2Packet::operator<<

; 219  : 				kPacket << (int)m_CurJumpState;

  0083f	ff b6 24 01 00
	00		 push	 DWORD PTR [esi+292]
  00845	8d 8d 98 ff fe
	ff		 lea	 ecx, DWORD PTR _kPacket$523951[ebp]
  0084b	e8 00 00 00 00	 call	 ??6SP2Packet@@QAEAAV0@H@Z ; SP2Packet::operator<<

; 220  : 				kPacket << m_fDoubleJumpPower;

  00850	f3 0f 10 86 28
	01 00 00	 movss	 xmm0, DWORD PTR [esi+296]
  00858	51		 push	 ecx
  00859	8d 8d 98 ff fe
	ff		 lea	 ecx, DWORD PTR _kPacket$523951[ebp]
  0085f	f3 0f 11 04 24	 movss	 DWORD PTR [esp], xmm0
  00864	e8 00 00 00 00	 call	 ??6SP2Packet@@QAEAAV0@M@Z ; SP2Packet::operator<<

; 221  : 				kPacket << m_fDoubleJumpForce;

  00869	f3 0f 10 86 2c
	01 00 00	 movss	 xmm0, DWORD PTR [esi+300]
  00871	51		 push	 ecx
  00872	8d 8d 98 ff fe
	ff		 lea	 ecx, DWORD PTR _kPacket$523951[ebp]
  00878	f3 0f 11 04 24	 movss	 DWORD PTR [esp], xmm0
  0087d	e8 00 00 00 00	 call	 ??6SP2Packet@@QAEAAV0@M@Z ; SP2Packet::operator<<

; 222  : 				kPacket << pOwner->GetTargetRot();

  00882	8d 83 a4 06 00
	00		 lea	 eax, DWORD PTR [ebx+1700]
  00888	50		 push	 eax
  00889	8d 8d 98 ff fe
	ff		 lea	 ecx, DWORD PTR _kPacket$523951[ebp]
  0088f	e8 00 00 00 00	 call	 ??6SP2Packet@@QAEAAV0@ABUD3DXQUATERNION@@@Z ; SP2Packet::operator<<

; 223  : 				P2PNetwork::SendToAllPlayingUser( kPacket );

  00894	8d 85 98 ff fe
	ff		 lea	 eax, DWORD PTR _kPacket$523951[ebp]
  0089a	6a 00		 push	 0
  0089c	50		 push	 eax
  0089d	e8 00 00 00 00	 call	 ?SendToAllPlayingUser@P2PNetwork@@YAXAAVSP2Packet@@PAVioBaseChar@@@Z ; P2PNetwork::SendToAllPlayingUser

; 224  : 			}

  008a2	83 4d fc ff	 or	 DWORD PTR __$EHRec$[ebp+8], -1
  008a6	59		 pop	 ecx
  008a7	59		 pop	 ecx
  008a8	8d 8d 98 ff fe
	ff		 lea	 ecx, DWORD PTR _kPacket$523951[ebp]
  008ae	e8 00 00 00 00	 call	 ??1SP2Packet@@UAE@XZ	; SP2Packet::~SP2Packet
  008b3	eb 06		 jmp	 SHORT $LN1@ProcessJum@2
$LN197@ProcessJum@2:
  008b5	8b b5 90 ff fe
	ff		 mov	 esi, DWORD PTR _this$GSCopy$[ebp]
$LN1@ProcessJum@2:

; 225  : 		}
; 226  : 	}
; 227  : 
; 228  : 	ProcessJumpDash( pOwner );

  008bb	53		 push	 ebx
  008bc	8b ce		 mov	 ecx, esi
  008be	e8 00 00 00 00	 call	 ?ProcessJumpDash@ioKisaragiJump@@IAEXPAVioBaseChar@@@Z ; ioKisaragiJump::ProcessJumpDash

; 229  : }

  008c3	8b 4d f4	 mov	 ecx, DWORD PTR __$EHRec$[ebp]
  008c6	64 89 0d 00 00
	00 00		 mov	 DWORD PTR fs:0, ecx
  008cd	59		 pop	 ecx
  008ce	5f		 pop	 edi
  008cf	5e		 pop	 esi
  008d0	5b		 pop	 ebx
  008d1	8b 4d f0	 mov	 ecx, DWORD PTR __$ArrayPad$[ebp]
  008d4	33 cd		 xor	 ecx, ebp
  008d6	e8 00 00 00 00	 call	 @__security_check_cookie@4
  008db	c9		 leave
  008dc	c2 0c 00	 ret	 12			; 0000000cH
_TEXT	ENDS
;	COMDAT text$x
text$x	SEGMENT
__unwindfunclet$?ProcessJumpping@ioKisaragiJump@@UAEXPAVioBaseChar@@MM@Z$0:
  00000	8b 8d 94 ff fe
	ff		 mov	 ecx, DWORD PTR $T528403[ebp]
  00006	ff 25 00 00 00
	00		 jmp	 DWORD PTR __imp_??1ioHashString@@QAE@XZ
__unwindfunclet$?ProcessJumpping@ioKisaragiJump@@UAEXPAVioBaseChar@@MM@Z$2:
  0000c	8d 8d 64 ff fe
	ff		 lea	 ecx, DWORD PTR $T528405[ebp]
  00012	ff 25 00 00 00
	00		 jmp	 DWORD PTR __imp_??1ioHashString@@QAE@XZ
__unwindfunclet$?ProcessJumpping@ioKisaragiJump@@UAEXPAVioBaseChar@@MM@Z$3:
  00018	8d 8d 54 ff fe
	ff		 lea	 ecx, DWORD PTR $T528406[ebp]
  0001e	ff 25 00 00 00
	00		 jmp	 DWORD PTR __imp_??1ioHashString@@QAE@XZ
__unwindfunclet$?ProcessJumpping@ioKisaragiJump@@UAEXPAVioBaseChar@@MM@Z$4:
  00024	8d 4d e0	 lea	 ecx, DWORD PTR $T528407[ebp]
  00027	ff 25 00 00 00
	00		 jmp	 DWORD PTR __imp_??1ioHashString@@QAE@XZ
__unwindfunclet$?ProcessJumpping@ioKisaragiJump@@UAEXPAVioBaseChar@@MM@Z$12:
  0002d	8d 8d 64 ff fe
	ff		 lea	 ecx, DWORD PTR $T528498[ebp]
  00033	ff 25 00 00 00
	00		 jmp	 DWORD PTR __imp_??1ioHashString@@QAE@XZ
__unwindfunclet$?ProcessJumpping@ioKisaragiJump@@UAEXPAVioBaseChar@@MM@Z$5:
  00039	8d 8d b0 7f ff
	ff		 lea	 ecx, DWORD PTR _kPacket$523934[ebp]
  0003f	e9 00 00 00 00	 jmp	 ??1SP2Packet@@UAE@XZ	; SP2Packet::~SP2Packet
__unwindfunclet$?ProcessJumpping@ioKisaragiJump@@UAEXPAVioBaseChar@@MM@Z$6:
  00044	8b 8d 94 ff fe
	ff		 mov	 ecx, DWORD PTR $T528408[ebp]
  0004a	ff 25 00 00 00
	00		 jmp	 DWORD PTR __imp_??1ioHashString@@QAE@XZ
__unwindfunclet$?ProcessJumpping@ioKisaragiJump@@UAEXPAVioBaseChar@@MM@Z$8:
  00050	8d 4d e0	 lea	 ecx, DWORD PTR $T528410[ebp]
  00053	ff 25 00 00 00
	00		 jmp	 DWORD PTR __imp_??1ioHashString@@QAE@XZ
__unwindfunclet$?ProcessJumpping@ioKisaragiJump@@UAEXPAVioBaseChar@@MM@Z$9:
  00059	8d 8d 54 ff fe
	ff		 lea	 ecx, DWORD PTR $T528411[ebp]
  0005f	ff 25 00 00 00
	00		 jmp	 DWORD PTR __imp_??1ioHashString@@QAE@XZ
__unwindfunclet$?ProcessJumpping@ioKisaragiJump@@UAEXPAVioBaseChar@@MM@Z$10:
  00065	8d 8d 64 ff fe
	ff		 lea	 ecx, DWORD PTR $T528412[ebp]
  0006b	ff 25 00 00 00
	00		 jmp	 DWORD PTR __imp_??1ioHashString@@QAE@XZ
__unwindfunclet$?ProcessJumpping@ioKisaragiJump@@UAEXPAVioBaseChar@@MM@Z$11:
  00071	8d 8d 98 ff fe
	ff		 lea	 ecx, DWORD PTR _kPacket$523951[ebp]
  00077	e9 00 00 00 00	 jmp	 ??1SP2Packet@@UAE@XZ	; SP2Packet::~SP2Packet
__ehhandler$?ProcessJumpping@ioKisaragiJump@@UAEXPAVioBaseChar@@MM@Z:
  0007c	8b 54 24 08	 mov	 edx, DWORD PTR [esp+8]
  00080	8d 42 0c	 lea	 eax, DWORD PTR [edx+12]
  00083	8b 8a 50 ff fe
	ff		 mov	 ecx, DWORD PTR [edx-65712]
  00089	33 c8		 xor	 ecx, eax
  0008b	e8 00 00 00 00	 call	 @__security_check_cookie@4
  00090	8b 4a fc	 mov	 ecx, DWORD PTR [edx-4]
  00093	33 c8		 xor	 ecx, eax
  00095	e8 00 00 00 00	 call	 @__security_check_cookie@4
  0009a	b8 00 00 00 00	 mov	 eax, OFFSET __ehfuncinfo$?ProcessJumpping@ioKisaragiJump@@UAEXPAVioBaseChar@@MM@Z
  0009f	e9 00 00 00 00	 jmp	 ___CxxFrameHandler3
text$x	ENDS
?ProcessJumpping@ioKisaragiJump@@UAEXPAVioBaseChar@@MM@Z ENDP ; ioKisaragiJump::ProcessJumpping
PUBLIC	_rkPacket$GSCopy$
PUBLIC	_pOwner$GSCopy$
PUBLIC	?ApplyJump@ioKisaragiJump@@UAEXPAVioBaseChar@@AAVSP2Packet@@@Z ; ioKisaragiJump::ApplyJump
EXTRN	?SetTargetRot@ioBaseChar@@QAEXABUD3DXQUATERNION@@@Z:PROC ; ioBaseChar::SetTargetRot
EXTRN	??5SP2Packet@@QAEAAV0@AAM@Z:PROC		; SP2Packet::operator>>
EXTRN	?ApplyAutoTargetInfo@ioBaseChar@@QAEXAAVSP2Packet@@@Z:PROC ; ioBaseChar::ApplyAutoTargetInfo
EXTRN	?SetTargetRotAndMoveDirChange@ioBaseChar@@QAEXABUD3DXQUATERNION@@_N@Z:PROC ; ioBaseChar::SetTargetRotAndMoveDirChange
EXTRN	??5SP2Packet@@QAEAAV0@AAUD3DXQUATERNION@@@Z:PROC ; SP2Packet::operator>>
EXTRN	??5SP2Packet@@QAEAAV0@AA_N@Z:PROC		; SP2Packet::operator>>
EXTRN	??5SP2Packet@@QAEAAV0@AAH@Z:PROC		; SP2Packet::operator>>
;	COMDAT xdata$x
; File c:\program files (x86)\microsoft directx sdk (june 2010)\include\d3dx9math.inl
xdata$x	SEGMENT
__ehfuncinfo$?ApplyJump@ioKisaragiJump@@UAEXPAVioBaseChar@@AAVSP2Packet@@@Z DD 019930522H
	DD	05H
	DD	FLAT:__unwindtable$?ApplyJump@ioKisaragiJump@@UAEXPAVioBaseChar@@AAVSP2Packet@@@Z
	DD	2 DUP(00H)
	DD	2 DUP(00H)
	DD	00H
	DD	01H
__unwindtable$?ApplyJump@ioKisaragiJump@@UAEXPAVioBaseChar@@AAVSP2Packet@@@Z DD 0ffffffffH
	DD	FLAT:__unwindfunclet$?ApplyJump@ioKisaragiJump@@UAEXPAVioBaseChar@@AAVSP2Packet@@@Z$5
	DD	0ffffffffH
	DD	FLAT:__unwindfunclet$?ApplyJump@ioKisaragiJump@@UAEXPAVioBaseChar@@AAVSP2Packet@@@Z$0
	DD	0ffffffffH
	DD	FLAT:__unwindfunclet$?ApplyJump@ioKisaragiJump@@UAEXPAVioBaseChar@@AAVSP2Packet@@@Z$2
	DD	02H
	DD	FLAT:__unwindfunclet$?ApplyJump@ioKisaragiJump@@UAEXPAVioBaseChar@@AAVSP2Packet@@@Z$3
	DD	03H
	DD	FLAT:__unwindfunclet$?ApplyJump@ioKisaragiJump@@UAEXPAVioBaseChar@@AAVSP2Packet@@@Z$4
; Function compile flags: /Ogsp
; File d:\lost saga for developer\youtube\tutorial\source\src\lsclient\iokisaragijump.cpp
xdata$x	ENDS
;	COMDAT ?ApplyJump@ioKisaragiJump@@UAEXPAVioBaseChar@@AAVSP2Packet@@@Z
_TEXT	SEGMENT
$T528782 = -204						; size = 16
_qtRotate$524046 = -188					; size = 16
tv1338 = -172						; size = 4
_value$528940 = -172					; size = 4
_dwCurTime$524026 = -168				; size = 4
tv1358 = -164						; size = 4
$T528757 = -164						; size = 4
_qtRotate$524023 = -160					; size = 16
$T528726 = -144						; size = 16
$T528725 = -128						; size = 16
$T528724 = -112						; size = 16
tv1367 = -96						; size = 4
tv1365 = -96						; size = 4
tv1362 = -96						; size = 4
tv1360 = -96						; size = 4
tv1380 = -92						; size = 4
tv1375 = -92						; size = 4
tv1356 = -92						; size = 4
$T528761 = -92						; size = 4
$T528723 = -92						; size = 4
_rkPacket$GSCopy$ = -88					; size = 4
_fJumpForce$524045 = -88				; size = 4
_iAniID$524027 = -84					; size = 4
_fTimeRate$524028 = -80					; size = 4
_fJumpPower$524044 = -76				; size = 4
_pOwner$GSCopy$ = -72					; size = 4
_dwPreDelay$524029 = -72				; size = 4
tv1326 = -68						; size = 4
tv1280 = -68						; size = 4
tv1268 = -68						; size = 4
_value$528930 = -68					; size = 4
_value$528911 = -68					; size = 4
_value$528901 = -68					; size = 4
$T528781 = -68						; size = 4
$T528722 = -68						; size = 4
_pGrp$524025 = -68					; size = 4
_iType$ = -64						; size = 4
_bEnd$524022 = -57					; size = 1
_vJumpDir$524048 = -56					; size = 12
$T524052 = -44						; size = 12
_szEncEventType$528795 = -32				; size = 11
__$EHRec$ = -12						; size = 12
_pOwner$ = 8						; size = 4
_rkPacket$ = 12						; size = 4
?ApplyJump@ioKisaragiJump@@UAEXPAVioBaseChar@@AAVSP2Packet@@@Z PROC ; ioKisaragiJump::ApplyJump, COMDAT
; _this$ = ecx

; 348  : {

  00000	68 c0 00 00 00	 push	 192			; 000000c0H
  00005	b8 00 00 00 00	 mov	 eax, __ehhandler$?ApplyJump@ioKisaragiJump@@UAEXPAVioBaseChar@@AAVSP2Packet@@@Z
  0000a	e8 00 00 00 00	 call	 __EH_prolog3_GS
  0000f	8b 75 08	 mov	 esi, DWORD PTR _pOwner$[ebp]
  00012	8b 7d 0c	 mov	 edi, DWORD PTR _rkPacket$[ebp]
  00015	8b d9		 mov	 ebx, ecx

; 451  : 
; 452  : 				SetDoubleJumpAni( pOwner );

  00017	89 75 b8	 mov	 DWORD PTR _pOwner$GSCopy$[ebp], esi
  0001a	89 7d a8	 mov	 DWORD PTR _rkPacket$GSCopy$[ebp], edi
  0001d	85 f6		 test	 esi, esi
  0001f	0f 84 48 05 00
	00		 je	 $LN3@ApplyJump

; 349  : 	if( !pOwner )
; 350  : 		return;
; 351  : 
; 352  : 	int iType;
; 353  : 	rkPacket >> iType;

  00025	8d 45 c0	 lea	 eax, DWORD PTR _iType$[ebp]
  00028	50		 push	 eax
  00029	8b cf		 mov	 ecx, edi
  0002b	e8 00 00 00 00	 call	 ??5SP2Packet@@QAEAAV0@AAH@Z ; SP2Packet::operator>>

; 354  : 
; 355  : 	switch( iType )

  00030	8b 45 c0	 mov	 eax, DWORD PTR _iType$[ebp]
  00033	48		 dec	 eax
  00034	48		 dec	 eax
  00035	0f 84 d8 03 00
	00		 je	 $LN4@ApplyJump
  0003b	48		 dec	 eax
  0003c	0f 85 2b 05 00
	00		 jne	 $LN3@ApplyJump

; 356  : 	{
; 357  : 	case KJS_DASH:
; 358  : 		{
; 359  : 			bool bEnd;
; 360  : 			rkPacket >> bEnd;

  00042	8d 45 c7	 lea	 eax, DWORD PTR _bEnd$524022[ebp]
  00045	50		 push	 eax
  00046	8b cf		 mov	 ecx, edi
  00048	e8 00 00 00 00	 call	 ??5SP2Packet@@QAEAAV0@AA_N@Z ; SP2Packet::operator>>

; 361  : 
; 362  : 			D3DXQUATERNION qtRotate;
; 363  : 			rkPacket >> qtRotate;

  0004d	8d 85 60 ff ff
	ff		 lea	 eax, DWORD PTR _qtRotate$524023[ebp]
  00053	50		 push	 eax
  00054	8b cf		 mov	 ecx, edi
  00056	e8 00 00 00 00	 call	 ??5SP2Packet@@QAEAAV0@AAUD3DXQUATERNION@@@Z ; SP2Packet::operator>>

; 364  : 
; 365  : 			if( !bEnd )

  0005b	80 7d c7 00	 cmp	 BYTE PTR _bEnd$524022[ebp], 0

; 366  : 			{
; 367  : 				pOwner->SetTargetRotAndMoveDirChange( qtRotate );

  0005f	6a 00		 push	 0
  00061	8d 85 60 ff ff
	ff		 lea	 eax, DWORD PTR _qtRotate$524023[ebp]
  00067	8b ce		 mov	 ecx, esi
  00069	50		 push	 eax
  0006a	0f 85 99 03 00
	00		 jne	 $LN6@ApplyJump
  00070	e8 00 00 00 00	 call	 ?SetTargetRotAndMoveDirChange@ioBaseChar@@QAEXABUD3DXQUATERNION@@_N@Z ; ioBaseChar::SetTargetRotAndMoveDirChange

; 368  : 
; 369  : 				ioEntityGroup *pGrp = pOwner->GetGroup();

  00075	8b 7e 04	 mov	 edi, DWORD PTR [esi+4]
  00078	89 7d bc	 mov	 DWORD PTR _pGrp$524025[ebp], edi

; 370  : 				DWORD dwCurTime = FRAMEGETTIME();

  0007b	ff 15 00 00 00
	00		 call	 DWORD PTR __imp_?GetSingleton@ioFrameTimer@@SAAAV1@XZ
  00081	8b c8		 mov	 ecx, eax
  00083	ff 15 00 00 00
	00		 call	 DWORD PTR __imp_?GetLoopSec@ioFrameTimer@@QBEKXZ
  00089	89 85 58 ff ff
	ff		 mov	 DWORD PTR _dwCurTime$524026[ebp], eax

; 371  : 
; 372  : 				int iAniID = pGrp->GetAnimationIdx( m_DashJumpAttack.m_AttackAnimation );

  0008f	8d 83 64 01 00
	00		 lea	 eax, DWORD PTR [ebx+356]
  00095	50		 push	 eax
  00096	8b cf		 mov	 ecx, edi
  00098	ff 15 00 00 00
	00		 call	 DWORD PTR __imp_?GetAnimationIdx@ioEntityGroup@@QAEHABVioHashString@@@Z

; 373  : 				float fTimeRate = m_DashJumpAttack.m_fAttackAniRate;

  0009e	d9 83 74 01 00
	00		 fld	 DWORD PTR [ebx+372]
  000a4	89 45 ac	 mov	 DWORD PTR _iAniID$524027[ebp], eax
  000a7	d9 5d b0	 fstp	 DWORD PTR _fTimeRate$524028[ebp]

; 374  : 				DWORD dwPreDelay = m_DashJumpAttack.m_dwPreDelay;

  000aa	8b 83 ac 01 00
	00		 mov	 eax, DWORD PTR [ebx+428]
  000b0	89 45 b8	 mov	 DWORD PTR _dwPreDelay$524029[ebp], eax

; 375  : 
; 376  : 				pGrp->ClearAllActionAni( FLOAT100, true );

  000b3	b8 64 00 00 00	 mov	 eax, 100		; 00000064H
  000b8	89 45 a4	 mov	 DWORD PTR tv1380[ebp], eax
  000bb	db 45 a4	 fild	 DWORD PTR tv1380[ebp]
  000be	6a 01		 push	 1
  000c0	85 c0		 test	 eax, eax
  000c2	79 06		 jns	 SHORT $LN186@ApplyJump
  000c4	d8 05 00 00 00
	00		 fadd	 DWORD PTR __real@4f800000
$LN186@ApplyJump:
  000ca	51		 push	 ecx
  000cb	8b cf		 mov	 ecx, edi
  000cd	d9 1c 24	 fstp	 DWORD PTR [esp]
  000d0	ff 15 00 00 00
	00		 call	 DWORD PTR __imp_?ClearAllActionAni@ioEntityGroup@@QAEXM_N@Z

; 377  : 				pGrp->ClearAllLoopAni( FLOAT100, true );

  000d6	b8 64 00 00 00	 mov	 eax, 100		; 00000064H
  000db	89 45 a4	 mov	 DWORD PTR tv1375[ebp], eax
  000de	db 45 a4	 fild	 DWORD PTR tv1375[ebp]
  000e1	6a 01		 push	 1
  000e3	85 c0		 test	 eax, eax
  000e5	79 06		 jns	 SHORT $LN187@ApplyJump
  000e7	d8 05 00 00 00
	00		 fadd	 DWORD PTR __real@4f800000
$LN187@ApplyJump:
  000ed	51		 push	 ecx
  000ee	8b cf		 mov	 ecx, edi
  000f0	d9 1c 24	 fstp	 DWORD PTR [esp]
  000f3	ff 15 00 00 00
	00		 call	 DWORD PTR __imp_?ClearAllLoopAni@ioEntityGroup@@QAEXM_N@Z

; 378  : 
; 379  : 				pOwner->SetAutoTarget( ATT_JUMP );

  000f9	6a 03		 push	 3
  000fb	8b ce		 mov	 ecx, esi
  000fd	e8 00 00 00 00	 call	 ?SetAutoTarget@ioBaseChar@@QAEXW4AutoTargetType@@@Z ; ioBaseChar::SetAutoTarget

; 380  : 
; 381  : 				pGrp->SetActionAni( iAniID, FLOAT100, FLOAT100, FLOAT1, FLOAT1/fTimeRate, 0.0f, dwPreDelay, true );		

  00102	b8 01 00 00 00	 mov	 eax, 1
  00107	8b c8		 mov	 ecx, eax
  00109	b8 01 00 00 00	 mov	 eax, 1
  0010e	8b d0		 mov	 edx, eax
  00110	b8 64 00 00 00	 mov	 eax, 100		; 00000064H
  00115	89 85 5c ff ff
	ff		 mov	 DWORD PTR $T528757[ebp], eax
  0011b	b8 64 00 00 00	 mov	 eax, 100		; 00000064H
  00120	db 45 b8	 fild	 DWORD PTR _dwPreDelay$524029[ebp]
  00123	89 45 a4	 mov	 DWORD PTR $T528761[ebp], eax
  00126	8b 45 b8	 mov	 eax, DWORD PTR _dwPreDelay$524029[ebp]
  00129	6a 01		 push	 1
  0012b	6a 01		 push	 1
  0012d	85 c0		 test	 eax, eax
  0012f	79 06		 jns	 SHORT $LN188@ApplyJump
  00131	d8 05 00 00 00
	00		 fadd	 DWORD PTR __real@4f800000
$LN188@ApplyJump:
  00137	0f 57 c0	 xorps	 xmm0, xmm0
  0013a	83 ec 18	 sub	 esp, 24			; 00000018H
  0013d	d9 5c 24 14	 fstp	 DWORD PTR [esp+20]
  00141	89 4d a0	 mov	 DWORD PTR tv1365[ebp], ecx
  00144	db 45 a0	 fild	 DWORD PTR tv1365[ebp]
  00147	f3 0f 11 44 24
	10		 movss	 DWORD PTR [esp+16], xmm0
  0014d	85 c9		 test	 ecx, ecx
  0014f	79 06		 jns	 SHORT $LN189@ApplyJump
  00151	d8 05 00 00 00
	00		 fadd	 DWORD PTR __real@4f800000
$LN189@ApplyJump:
  00157	d8 75 b0	 fdiv	 DWORD PTR _fTimeRate$524028[ebp]
  0015a	d9 5d a0	 fstp	 DWORD PTR tv1362[ebp]
  0015d	d9 45 a0	 fld	 DWORD PTR tv1362[ebp]
  00160	d9 5c 24 0c	 fstp	 DWORD PTR [esp+12]
  00164	89 55 a0	 mov	 DWORD PTR tv1360[ebp], edx
  00167	db 45 a0	 fild	 DWORD PTR tv1360[ebp]
  0016a	85 d2		 test	 edx, edx
  0016c	79 06		 jns	 SHORT $LN190@ApplyJump
  0016e	d8 05 00 00 00
	00		 fadd	 DWORD PTR __real@4f800000
$LN190@ApplyJump:
  00174	8b 85 5c ff ff
	ff		 mov	 eax, DWORD PTR $T528757[ebp]
  0017a	d9 5c 24 08	 fstp	 DWORD PTR [esp+8]
  0017e	db 85 5c ff ff
	ff		 fild	 DWORD PTR $T528757[ebp]
  00184	85 c0		 test	 eax, eax
  00186	79 06		 jns	 SHORT $LN191@ApplyJump
  00188	d8 05 00 00 00
	00		 fadd	 DWORD PTR __real@4f800000
$LN191@ApplyJump:
  0018e	8b 45 a4	 mov	 eax, DWORD PTR $T528761[ebp]
  00191	d9 5c 24 04	 fstp	 DWORD PTR [esp+4]
  00195	db 45 a4	 fild	 DWORD PTR $T528761[ebp]
  00198	85 c0		 test	 eax, eax
  0019a	79 06		 jns	 SHORT $LN192@ApplyJump
  0019c	d8 05 00 00 00
	00		 fadd	 DWORD PTR __real@4f800000
$LN192@ApplyJump:
  001a2	d9 1c 24	 fstp	 DWORD PTR [esp]
  001a5	ff 75 ac	 push	 DWORD PTR _iAniID$524027[ebp]
  001a8	8b cf		 mov	 ecx, edi
  001aa	ff 15 00 00 00
	00		 call	 DWORD PTR __imp_?SetActionAni@ioEntityGroup@@QAE_NHMMMMMM_N0@Z

; 382  : 
; 383  : 				pOwner->RefreshFireTimeList( iAniID,
; 384  : 											 m_DashJumpAttack.m_vWeaponInfoList,
; 385  : 											 FTT_JUMP_ATTACK,
; 386  : 											 fTimeRate,
; 387  : 											 dwPreDelay );

  001b0	f3 0f 10 45 b0	 movss	 xmm0, DWORD PTR _fTimeRate$524028[ebp]
  001b5	6a 00		 push	 0
  001b7	ff 75 b8	 push	 DWORD PTR _dwPreDelay$524029[ebp]
  001ba	8d 83 8c 01 00
	00		 lea	 eax, DWORD PTR [ebx+396]
  001c0	51		 push	 ecx
  001c1	f3 0f 11 04 24	 movss	 DWORD PTR [esp], xmm0
  001c6	6a 03		 push	 3
  001c8	50		 push	 eax
  001c9	ff 75 ac	 push	 DWORD PTR _iAniID$524027[ebp]
  001cc	8b ce		 mov	 ecx, esi
  001ce	e8 00 00 00 00	 call	 ?RefreshFireTimeList@ioBaseChar@@QAEXHABV?$vector@UWeaponInfo@@V?$allocator@UWeaponInfo@@@std@@@std@@W4FireTimeType@@MK_N@Z ; ioBaseChar::RefreshFireTimeList

; 388  : 
; 389  : 				pOwner->IncreaseWeaponIndexBase();

  001d3	8b ce		 mov	 ecx, esi
  001d5	e8 00 00 00 00	 call	 ?IncreaseWeaponIndexBase@ioBaseChar@@QAEKXZ ; ioBaseChar::IncreaseWeaponIndexBase

; 390  : 				//
; 391  : 
; 392  : 				m_dwActionEndTime = dwCurTime + dwPreDelay + pGrp->GetAnimationFullTime( iAniID ) * fTimeRate;

  001da	ff 75 ac	 push	 DWORD PTR _iAniID$524027[ebp]
  001dd	8b cf		 mov	 ecx, edi
  001df	ff 15 00 00 00
	00		 call	 DWORD PTR __imp_?GetAnimationFullTime@ioEntityGroup@@QAEMH@Z
  001e5	d8 4d b0	 fmul	 DWORD PTR _fTimeRate$524028[ebp]
  001e8	8b 45 b8	 mov	 eax, DWORD PTR _dwPreDelay$524029[ebp]
  001eb	03 85 58 ff ff
	ff		 add	 eax, DWORD PTR _dwCurTime$524026[ebp]
  001f1	89 85 54 ff ff
	ff		 mov	 DWORD PTR tv1338[ebp], eax
  001f7	db 85 54 ff ff
	ff		 fild	 DWORD PTR tv1338[ebp]
  001fd	79 06		 jns	 SHORT $LN193@ApplyJump
  001ff	d8 05 00 00 00
	00		 fadd	 DWORD PTR __real@4f800000
$LN193@ApplyJump:
  00205	de c1		 faddp	 ST(1), ST(0)
  00207	e8 00 00 00 00	 call	 __ftol2
  0020c	6a 02		 push	 2
  0020e	89 83 b4 01 00
	00		 mov	 DWORD PTR [ebx+436], eax

; 393  : 
; 394  : 				DWORD dwTrackingTime = dwCurTime;
; 395  : 				dwTrackingTime += pGrp->GetAnimationEventTime_e( iAniID, "tracking_e" ) * fTimeRate;

  00214	c7 45 e0 99 9e
	8a 89		 mov	 DWORD PTR _szEncEventType$528795[ebp], -1987404135 ; 898a9e99H
  0021b	c7 45 e4 86 85
	85 8d		 mov	 DWORD PTR _szEncEventType$528795[ebp+4], -1920629370 ; 8d858586H
  00222	66 c7 45 e8 b2
	89		 mov	 WORD PTR _szEncEventType$528795[ebp+8], 35250 ; 000089b2H
  00228	8d 45 e0	 lea	 eax, DWORD PTR _szEncEventType$528795[ebp]
  0022b	c6 45 ea 00	 mov	 BYTE PTR _szEncEventType$528795[ebp+10], 0
  0022f	59		 pop	 ecx
$LL138@ApplyJump:
  00230	81 30 ed ec eb
	ea		 xor	 DWORD PTR [eax], -353637139 ; eaebecedH
  00236	83 c0 04	 add	 eax, 4
  00239	49		 dec	 ecx
  0023a	75 f4		 jne	 SHORT $LL138@ApplyJump
  0023c	6a 08		 push	 8
  0023e	5f		 pop	 edi
$LL135@ApplyJump:
  0023f	8b c7		 mov	 eax, edi
  00241	25 03 00 00 80	 and	 eax, -2147483645	; 80000003H
  00246	79 05		 jns	 SHORT $LN194@ApplyJump
  00248	48		 dec	 eax
  00249	83 c8 fc	 or	 eax, -4			; fffffffcH
  0024c	40		 inc	 eax
$LN194@ApplyJump:
  0024d	b1 ed		 mov	 cl, -19			; ffffffedH
  0024f	2a c8		 sub	 cl, al
  00251	30 4c 3d e0	 xor	 BYTE PTR _szEncEventType$528795[ebp+edi], cl
  00255	47		 inc	 edi
  00256	83 ff 0a	 cmp	 edi, 10			; 0000000aH
  00259	7c e4		 jl	 SHORT $LL135@ApplyJump
  0025b	8b 3d 00 00 00
	00		 mov	 edi, DWORD PTR __imp_??0ioHashString@@QAE@PBD@Z
  00261	8d 45 e0	 lea	 eax, DWORD PTR _szEncEventType$528795[ebp]
  00264	50		 push	 eax
  00265	8d 8d 34 ff ff
	ff		 lea	 ecx, DWORD PTR $T528782[ebp]
  0026b	ff d7		 call	 edi
  0026d	8b 4d bc	 mov	 ecx, DWORD PTR _pGrp$524025[ebp]
  00270	83 65 fc 00	 and	 DWORD PTR __$EHRec$[ebp+8], 0
  00274	8d 85 34 ff ff
	ff		 lea	 eax, DWORD PTR $T528782[ebp]
  0027a	50		 push	 eax
  0027b	ff 75 ac	 push	 DWORD PTR _iAniID$524027[ebp]
  0027e	ff 15 00 00 00
	00		 call	 DWORD PTR __imp_?GetAnimationEventTime@ioEntityGroup@@QAEMHABVioHashString@@@Z
  00284	d9 5d bc	 fstp	 DWORD PTR $T528781[ebp]
  00287	83 4d fc ff	 or	 DWORD PTR __$EHRec$[ebp+8], -1
  0028b	8d 8d 34 ff ff
	ff		 lea	 ecx, DWORD PTR $T528782[ebp]
  00291	ff 15 00 00 00
	00		 call	 DWORD PTR __imp_??1ioHashString@@QAE@XZ
  00297	d9 45 bc	 fld	 DWORD PTR $T528781[ebp]
  0029a	8b 85 58 ff ff
	ff		 mov	 eax, DWORD PTR _dwCurTime$524026[ebp]
  002a0	d8 4d b0	 fmul	 DWORD PTR _fTimeRate$524028[ebp]
  002a3	db 85 58 ff ff
	ff		 fild	 DWORD PTR _dwCurTime$524026[ebp]
  002a9	85 c0		 test	 eax, eax
  002ab	79 06		 jns	 SHORT $LN195@ApplyJump
  002ad	dc 05 00 00 00
	00		 fadd	 QWORD PTR __real@41f0000000000000
$LN195@ApplyJump:
  002b3	de c1		 faddp	 ST(1), ST(0)
  002b5	e8 00 00 00 00	 call	 __ftol2

; 396  : 				pOwner->SetAutoTargetTrackingEndTime( dwTrackingTime );

  002ba	50		 push	 eax
  002bb	8b ce		 mov	 ecx, esi
  002bd	e8 00 00 00 00	 call	 ?SetAutoTargetTrackingEndTime@ioBaseChar@@QAEXK@Z ; ioBaseChar::SetAutoTargetTrackingEndTime

; 397  : 
; 398  : 				pOwner->CheckCharColSkipTime( iAniID, fTimeRate, dwPreDelay );

  002c2	ff 75 b8	 push	 DWORD PTR _dwPreDelay$524029[ebp]
  002c5	f3 0f 10 45 b0	 movss	 xmm0, DWORD PTR _fTimeRate$524028[ebp]
  002ca	51		 push	 ecx
  002cb	f3 0f 11 04 24	 movss	 DWORD PTR [esp], xmm0
  002d0	ff 75 ac	 push	 DWORD PTR _iAniID$524027[ebp]
  002d3	8b ce		 mov	 ecx, esi
  002d5	e8 00 00 00 00	 call	 ?CheckCharColSkipTime@ioBaseChar@@QAEXHMK@Z ; ioBaseChar::CheckCharColSkipTime

; 399  : 
; 400  : 				pOwner->SetReservedSliding( m_DashJumpAttack.m_vForceInfoList, iAniID, fTimeRate, dwPreDelay );

  002da	f3 0f 10 05 00
	00 00 00	 movss	 xmm0, DWORD PTR __real@3f800000
  002e2	6a 01		 push	 1
  002e4	51		 push	 ecx
  002e5	f3 0f 11 04 24	 movss	 DWORD PTR [esp], xmm0
  002ea	ff 75 b8	 push	 DWORD PTR _dwPreDelay$524029[ebp]
  002ed	f3 0f 10 45 b0	 movss	 xmm0, DWORD PTR _fTimeRate$524028[ebp]
  002f2	51		 push	 ecx
  002f3	f3 0f 11 04 24	 movss	 DWORD PTR [esp], xmm0
  002f8	ff 75 ac	 push	 DWORD PTR _iAniID$524027[ebp]
  002fb	8d 83 9c 01 00
	00		 lea	 eax, DWORD PTR [ebx+412]
  00301	50		 push	 eax
  00302	8b ce		 mov	 ecx, esi
  00304	e8 00 00 00 00	 call	 ?SetReservedSliding@ioBaseChar@@QAEXABV?$vector@UForceInfo@@V?$allocator@UForceInfo@@@std@@@std@@HMKM_N@Z ; ioBaseChar::SetReservedSliding

; 401  : 
; 402  : 				m_CurJumpState = KJS_DASH;
; 403  : 
; 404  : 				m_bUseExtendJump = true;
; 405  : 
; 406  : 				pOwner->SetEnableHide( false );

  00309	83 ec 10	 sub	 esp, 16			; 00000010H
  0030c	c7 83 24 01 00
	00 03 00 00 00	 mov	 DWORD PTR [ebx+292], 3
  00316	c6 43 10 01	 mov	 BYTE PTR [ebx+16], 1
  0031a	8b cc		 mov	 ecx, esp
  0031c	89 65 bc	 mov	 DWORD PTR $T528722[ebp], esp
  0031f	bb 00 00 00 00	 mov	 ebx, OFFSET ??_C@_00CNPNBAHC@?$AA@
  00324	53		 push	 ebx
  00325	ff d7		 call	 edi
  00327	83 ec 10	 sub	 esp, 16			; 00000010H
  0032a	8b cc		 mov	 ecx, esp
  0032c	89 65 a4	 mov	 DWORD PTR $T528723[ebp], esp
  0032f	53		 push	 ebx
  00330	c7 45 fc 01 00
	00 00		 mov	 DWORD PTR __$EHRec$[ebp+8], 1
  00337	ff d7		 call	 edi
  00339	83 4d fc ff	 or	 DWORD PTR __$EHRec$[ebp+8], -1
  0033d	6a 00		 push	 0
  0033f	8b ce		 mov	 ecx, esi
  00341	e8 00 00 00 00	 call	 ?SetEnableHide@ioBaseChar@@QAEX_NVioHashString@@1@Z ; ioBaseChar::SetEnableHide

; 407  : 				pOwner->SetNoWoundState( false );

  00346	6a 00		 push	 0
  00348	8b ce		 mov	 ecx, esi
  0034a	e8 00 00 00 00	 call	 ?SetNoWoundState@ioBaseChar@@QAEX_N@Z ; ioBaseChar::SetNoWoundState

; 408  : 				pOwner->SetEnableChangeTeam( false );

  0034f	6a 00		 push	 0
  00351	8b ce		 mov	 ecx, esi
  00353	e8 00 00 00 00	 call	 ?SetEnableChangeTeam@ioBaseChar@@QAEX_N@Z ; ioBaseChar::SetEnableChangeTeam

; 409  : 
; 410  : 				pOwner->SetChangeJumpMotion( false, "", "", "", 0.0f );

  00358	53		 push	 ebx
  00359	8d 4d 90	 lea	 ecx, DWORD PTR $T528724[ebp]
  0035c	ff d7		 call	 edi
  0035e	53		 push	 ebx
  0035f	8d 4d 80	 lea	 ecx, DWORD PTR $T528725[ebp]
  00362	c7 45 fc 02 00
	00 00		 mov	 DWORD PTR __$EHRec$[ebp+8], 2
  00369	ff d7		 call	 edi
  0036b	53		 push	 ebx
  0036c	8d 8d 70 ff ff
	ff		 lea	 ecx, DWORD PTR $T528726[ebp]
  00372	c6 45 fc 03	 mov	 BYTE PTR __$EHRec$[ebp+8], 3
  00376	ff d7		 call	 edi
  00378	0f 57 c0	 xorps	 xmm0, xmm0
  0037b	51		 push	 ecx
  0037c	f3 0f 11 04 24	 movss	 DWORD PTR [esp], xmm0
  00381	8d 45 90	 lea	 eax, DWORD PTR $T528724[ebp]
  00384	50		 push	 eax
  00385	8d 45 80	 lea	 eax, DWORD PTR $T528725[ebp]
  00388	50		 push	 eax
  00389	8d 85 70 ff ff
	ff		 lea	 eax, DWORD PTR $T528726[ebp]
  0038f	50		 push	 eax
  00390	6a 00		 push	 0
  00392	8b ce		 mov	 ecx, esi
  00394	c6 45 fc 04	 mov	 BYTE PTR __$EHRec$[ebp+8], 4
  00398	e8 00 00 00 00	 call	 ?SetChangeJumpMotion@ioBaseChar@@QAEX_NABVioHashString@@11M@Z ; ioBaseChar::SetChangeJumpMotion
  0039d	8b 3d 00 00 00
	00		 mov	 edi, DWORD PTR __imp_??1ioHashString@@QAE@XZ
  003a3	8d 8d 70 ff ff
	ff		 lea	 ecx, DWORD PTR $T528726[ebp]
  003a9	c6 45 fc 03	 mov	 BYTE PTR __$EHRec$[ebp+8], 3
  003ad	ff d7		 call	 edi
  003af	8d 4d 80	 lea	 ecx, DWORD PTR $T528725[ebp]
  003b2	c6 45 fc 02	 mov	 BYTE PTR __$EHRec$[ebp+8], 2
  003b6	ff d7		 call	 edi
  003b8	83 4d fc ff	 or	 DWORD PTR __$EHRec$[ebp+8], -1
  003bc	8d 4d 90	 lea	 ecx, DWORD PTR $T528724[ebp]
  003bf	ff d7		 call	 edi

; 411  : 
; 412  : 				pOwner->SetGravityAmt( 0.0f );

  003c1	0f 57 c0	 xorps	 xmm0, xmm0
  003c4	8d 45 bc	 lea	 eax, DWORD PTR _value$528901[ebp]
  003c7	50		 push	 eax
  003c8	8d 8e e8 0b 00
	00		 lea	 ecx, DWORD PTR [esi+3048]
  003ce	f3 0f 11 45 bc	 movss	 DWORD PTR _value$528901[ebp], xmm0
  003d3	e8 00 00 00 00	 call	 ?EncryptValueToPool@?$CEncrypt@M@@AAEXPBD@Z ; CEncrypt<float>::EncryptValueToPool

; 413  : 				pOwner->SetForcePowerAmt( 0.0f );

  003d8	0f 57 c0	 xorps	 xmm0, xmm0
  003db	8d 45 bc	 lea	 eax, DWORD PTR _value$528911[ebp]
  003de	50		 push	 eax
  003df	8d 8e 88 0b 00
	00		 lea	 ecx, DWORD PTR [esi+2952]
  003e5	f3 0f 11 45 bc	 movss	 DWORD PTR _value$528911[ebp], xmm0
  003ea	e8 00 00 00 00	 call	 ?EncryptValueToPool@?$CEncrypt@M@@AAEXPBD@Z ; CEncrypt<float>::EncryptValueToPool

; 414  : 				pOwner->SetCurJumpPowerAmt( 0.0f );

  003ef	0f 57 c0	 xorps	 xmm0, xmm0

; 415  : 				
; 416  : 				pOwner->ApplyAutoTargetInfo( rkPacket );

  003f2	ff 75 a8	 push	 DWORD PTR _rkPacket$GSCopy$[ebp]
  003f5	8b ce		 mov	 ecx, esi
  003f7	f3 0f 11 86 90
	0e 00 00	 movss	 DWORD PTR [esi+3728], xmm0
  003ff	e8 00 00 00 00	 call	 ?ApplyAutoTargetInfo@ioBaseChar@@QAEXAAVSP2Packet@@@Z ; ioBaseChar::ApplyAutoTargetInfo

; 417  : 			}
; 418  : 			else

  00404	e9 64 01 00 00	 jmp	 $LN3@ApplyJump
$LN6@ApplyJump:

; 419  : 			{
; 420  : 				pOwner->SetTargetRotAndMoveDirChange( qtRotate );

  00409	e8 00 00 00 00	 call	 ?SetTargetRotAndMoveDirChange@ioBaseChar@@QAEXABUD3DXQUATERNION@@_N@Z ; ioBaseChar::SetTargetRotAndMoveDirChange

; 421  : 			}
; 422  : 		}
; 423  : 		break;

  0040e	e9 5a 01 00 00	 jmp	 $LN3@ApplyJump
$LN4@ApplyJump:

; 424  : 	case KJS_DOUBLE:
; 425  : 		{
; 426  : 			float fJumpPower, fJumpForce;
; 427  : 			D3DXQUATERNION qtRotate;
; 428  : 
; 429  : 			rkPacket >> fJumpPower >> fJumpForce;

  00413	8d 45 a8	 lea	 eax, DWORD PTR _fJumpForce$524045[ebp]
  00416	50		 push	 eax
  00417	8d 45 b4	 lea	 eax, DWORD PTR _fJumpPower$524044[ebp]
  0041a	50		 push	 eax
  0041b	8b cf		 mov	 ecx, edi
  0041d	e8 00 00 00 00	 call	 ??5SP2Packet@@QAEAAV0@AAM@Z ; SP2Packet::operator>>
  00422	8b c8		 mov	 ecx, eax
  00424	e8 00 00 00 00	 call	 ??5SP2Packet@@QAEAAV0@AAM@Z ; SP2Packet::operator>>

; 430  : 			rkPacket >> qtRotate;

  00429	8d 85 44 ff ff
	ff		 lea	 eax, DWORD PTR _qtRotate$524046[ebp]
  0042f	50		 push	 eax
  00430	8b cf		 mov	 ecx, edi
  00432	e8 00 00 00 00	 call	 ??5SP2Packet@@QAEAAV0@AAUD3DXQUATERNION@@@Z ; SP2Packet::operator>>

; 431  : 
; 432  : 			if( fJumpPower >= 0.0f )

  00437	f3 0f 10 4d b4	 movss	 xmm1, DWORD PTR _fJumpPower$524044[ebp]
  0043c	0f 57 c0	 xorps	 xmm0, xmm0
  0043f	0f 2f c8	 comiss	 xmm1, xmm0
  00442	0f 82 25 01 00
	00		 jb	 $LN3@ApplyJump

; 433  : 			{
; 434  : 				m_CurJumpState = KJS_DOUBLE;
; 435  : 
; 436  : 				m_bUsedDoubleJump = true;
; 437  : 				m_bUseExtendJump = true;
; 438  : 
; 439  : 				pOwner->SetCurJumpPowerAmt( 0.0f );
; 440  : 				pOwner->SetForcePowerAmt( 0.0f );

  00448	8d 45 bc	 lea	 eax, DWORD PTR _value$528930[ebp]
  0044b	c7 83 24 01 00
	00 02 00 00 00	 mov	 DWORD PTR [ebx+292], 2
  00455	c6 83 58 01 00
	00 01		 mov	 BYTE PTR [ebx+344], 1
  0045c	c6 43 10 01	 mov	 BYTE PTR [ebx+16], 1
  00460	50		 push	 eax
  00461	8d 8e 88 0b 00
	00		 lea	 ecx, DWORD PTR [esi+2952]
  00467	f3 0f 11 86 90
	0e 00 00	 movss	 DWORD PTR [esi+3728], xmm0
  0046f	f3 0f 11 45 bc	 movss	 DWORD PTR _value$528930[ebp], xmm0
  00474	e8 00 00 00 00	 call	 ?EncryptValueToPool@?$CEncrypt@M@@AAEXPBD@Z ; CEncrypt<float>::EncryptValueToPool

; 441  : 				pOwner->SetGravityAmt( 0.0f );

  00479	0f 57 c0	 xorps	 xmm0, xmm0
  0047c	8d 85 54 ff ff
	ff		 lea	 eax, DWORD PTR _value$528940[ebp]
  00482	50		 push	 eax
  00483	8d 8e e8 0b 00
	00		 lea	 ecx, DWORD PTR [esi+3048]
  00489	f3 0f 11 85 54
	ff ff ff	 movss	 DWORD PTR _value$528940[ebp], xmm0
  00491	e8 00 00 00 00	 call	 ?EncryptValueToPool@?$CEncrypt@M@@AAEXPBD@Z ; CEncrypt<float>::EncryptValueToPool

; 442  : 
; 443  : 				pOwner->SetTargetRot( qtRotate );

  00496	8d 85 44 ff ff
	ff		 lea	 eax, DWORD PTR _qtRotate$524046[ebp]
  0049c	50		 push	 eax
  0049d	8b ce		 mov	 ecx, esi
  0049f	e8 00 00 00 00	 call	 ?SetTargetRot@ioBaseChar@@QAEXABUD3DXQUATERNION@@@Z ; ioBaseChar::SetTargetRot

; 444  : 				pOwner->SetJumpPower( fJumpPower );

  004a4	f3 0f 10 45 b4	 movss	 xmm0, DWORD PTR _fJumpPower$524044[ebp]
  004a9	51		 push	 ecx
  004aa	8b ce		 mov	 ecx, esi
  004ac	f3 0f 11 04 24	 movss	 DWORD PTR [esp], xmm0
  004b1	e8 00 00 00 00	 call	 ?SetJumpPower@ioBaseChar@@QAEXM@Z ; ioBaseChar::SetJumpPower

; 445  : 
; 446  : 				D3DXVECTOR3 vJumpDir = pOwner->GetMoveDir();
; 447  : 				if( m_fDoubleJumpForce > 0.0f )

  004b6	f3 0f 10 83 2c
	01 00 00	 movss	 xmm0, DWORD PTR [ebx+300]
  004be	81 c6 b4 06 00
	00		 add	 esi, 1716		; 000006b4H
  004c4	0f 2f 05 00 00
	00 00		 comiss	 xmm0, DWORD PTR __real@00000000
  004cb	8d 7d c8	 lea	 edi, DWORD PTR _vJumpDir$524048[ebp]
  004ce	a5		 movsd
  004cf	a5		 movsd
  004d0	a5		 movsd
  004d1	76 1c		 jbe	 SHORT $LN2@ApplyJump

; 448  : 					pOwner->SetForcePower( vJumpDir, fabs(m_fDoubleJumpForce), FLOAT1, true );

  004d3	b8 01 00 00 00	 mov	 eax, 1
  004d8	89 45 bc	 mov	 DWORD PTR tv1280[ebp], eax
  004db	db 45 bc	 fild	 DWORD PTR tv1280[ebp]
  004de	6a 01		 push	 1
  004e0	85 c0		 test	 eax, eax
  004e2	79 06		 jns	 SHORT $LN196@ApplyJump
  004e4	d8 05 00 00 00
	00		 fadd	 DWORD PTR __real@4f800000
$LN196@ApplyJump:
  004ea	8d 45 c8	 lea	 eax, DWORD PTR _vJumpDir$524048[ebp]

; 449  : 				else

  004ed	eb 49		 jmp	 SHORT $LN198@ApplyJump
$LN2@ApplyJump:

; 450  : 					pOwner->SetForcePower( -vJumpDir, fabs(m_fDoubleJumpForce), FLOAT1, true );

  004ef	b8 01 00 00 00	 mov	 eax, 1
  004f4	f3 0f 10 05 00
	00 00 00	 movss	 xmm0, DWORD PTR __mask@@NegFloat@
  004fc	f3 0f 10 4d c8	 movss	 xmm1, DWORD PTR _vJumpDir$524048[ebp]
  00501	0f 57 c8	 xorps	 xmm1, xmm0
  00504	f3 0f 11 4d d4	 movss	 DWORD PTR $T524052[ebp], xmm1
  00509	f3 0f 10 4d cc	 movss	 xmm1, DWORD PTR _vJumpDir$524048[ebp+4]
  0050e	0f 57 c8	 xorps	 xmm1, xmm0
  00511	f3 0f 11 4d d8	 movss	 DWORD PTR $T524052[ebp+4], xmm1
  00516	f3 0f 10 4d d0	 movss	 xmm1, DWORD PTR _vJumpDir$524048[ebp+8]
  0051b	0f 57 c8	 xorps	 xmm1, xmm0
  0051e	89 45 bc	 mov	 DWORD PTR tv1268[ebp], eax
  00521	db 45 bc	 fild	 DWORD PTR tv1268[ebp]
  00524	f3 0f 11 4d dc	 movss	 DWORD PTR $T524052[ebp+8], xmm1
  00529	6a 01		 push	 1
  0052b	85 c0		 test	 eax, eax
  0052d	79 06		 jns	 SHORT $LN197@ApplyJump
  0052f	d8 05 00 00 00
	00		 fadd	 DWORD PTR __real@4f800000
$LN197@ApplyJump:
  00535	8d 45 d4	 lea	 eax, DWORD PTR $T524052[ebp]
$LN198@ApplyJump:
  00538	f3 0f 10 83 2c
	01 00 00	 movss	 xmm0, DWORD PTR [ebx+300]
  00540	51		 push	 ecx
  00541	51		 push	 ecx
  00542	8b 4d b8	 mov	 ecx, DWORD PTR _pOwner$GSCopy$[ebp]
  00545	d9 5c 24 04	 fstp	 DWORD PTR [esp+4]
  00549	0f 5a c0	 cvtps2pd xmm0, xmm0
  0054c	66 0f 54 05 00
	00 00 00	 andpd	 xmm0, QWORD PTR __mask@@AbsDouble@
  00554	f2 0f 5a c0	 cvtsd2ss xmm0, xmm0
  00558	f3 0f 11 04 24	 movss	 DWORD PTR [esp], xmm0
  0055d	50		 push	 eax
  0055e	e8 00 00 00 00	 call	 ?SetForcePower@ioBaseChar@@QAEXABUD3DXVECTOR3@@MM_N@Z ; ioBaseChar::SetForcePower

; 451  : 
; 452  : 				SetDoubleJumpAni( pOwner );

  00563	ff 75 b8	 push	 DWORD PTR _pOwner$GSCopy$[ebp]
  00566	8b cb		 mov	 ecx, ebx
  00568	e8 00 00 00 00	 call	 ?SetDoubleJumpAni@ioKisaragiJump@@IAEXPAVioBaseChar@@@Z ; ioKisaragiJump::SetDoubleJumpAni
$LN3@ApplyJump:

; 453  : 			}
; 454  : 		}
; 455  : 		break;
; 456  : 	}
; 457  : }

  0056d	e8 00 00 00 00	 call	 __EH_epilog3_GS
  00572	c2 08 00	 ret	 8
_TEXT	ENDS
;	COMDAT text$x
text$x	SEGMENT
__unwindfunclet$?ApplyJump@ioKisaragiJump@@UAEXPAVioBaseChar@@AAVSP2Packet@@@Z$5:
  00000	8d 8d 34 ff ff
	ff		 lea	 ecx, DWORD PTR $T528782[ebp]
  00006	ff 25 00 00 00
	00		 jmp	 DWORD PTR __imp_??1ioHashString@@QAE@XZ
__unwindfunclet$?ApplyJump@ioKisaragiJump@@UAEXPAVioBaseChar@@AAVSP2Packet@@@Z$0:
  0000c	8b 4d bc	 mov	 ecx, DWORD PTR $T528722[ebp]
  0000f	ff 25 00 00 00
	00		 jmp	 DWORD PTR __imp_??1ioHashString@@QAE@XZ
__unwindfunclet$?ApplyJump@ioKisaragiJump@@UAEXPAVioBaseChar@@AAVSP2Packet@@@Z$2:
  00015	8d 4d 90	 lea	 ecx, DWORD PTR $T528724[ebp]
  00018	ff 25 00 00 00
	00		 jmp	 DWORD PTR __imp_??1ioHashString@@QAE@XZ
__unwindfunclet$?ApplyJump@ioKisaragiJump@@UAEXPAVioBaseChar@@AAVSP2Packet@@@Z$3:
  0001e	8d 4d 80	 lea	 ecx, DWORD PTR $T528725[ebp]
  00021	ff 25 00 00 00
	00		 jmp	 DWORD PTR __imp_??1ioHashString@@QAE@XZ
__unwindfunclet$?ApplyJump@ioKisaragiJump@@UAEXPAVioBaseChar@@AAVSP2Packet@@@Z$4:
  00027	8d 8d 70 ff ff
	ff		 lea	 ecx, DWORD PTR $T528726[ebp]
  0002d	ff 25 00 00 00
	00		 jmp	 DWORD PTR __imp_??1ioHashString@@QAE@XZ
__ehhandler$?ApplyJump@ioKisaragiJump@@UAEXPAVioBaseChar@@AAVSP2Packet@@@Z:
  00033	8b 54 24 08	 mov	 edx, DWORD PTR [esp+8]
  00037	8d 42 0c	 lea	 eax, DWORD PTR [edx+12]
  0003a	8b 8a 30 ff ff
	ff		 mov	 ecx, DWORD PTR [edx-208]
  00040	33 c8		 xor	 ecx, eax
  00042	e8 00 00 00 00	 call	 @__security_check_cookie@4
  00047	8b 4a fc	 mov	 ecx, DWORD PTR [edx-4]
  0004a	33 c8		 xor	 ecx, eax
  0004c	e8 00 00 00 00	 call	 @__security_check_cookie@4
  00051	b8 00 00 00 00	 mov	 eax, OFFSET __ehfuncinfo$?ApplyJump@ioKisaragiJump@@UAEXPAVioBaseChar@@AAVSP2Packet@@@Z
  00056	e9 00 00 00 00	 jmp	 ___CxxFrameHandler3
text$x	ENDS
?ApplyJump@ioKisaragiJump@@UAEXPAVioBaseChar@@AAVSP2Packet@@@Z ENDP ; ioKisaragiJump::ApplyJump
PUBLIC	??$_Uninit_copy@V?$_Vector_const_iterator@V?$_Vector_val@UForceInfo@@V?$allocator@UForceInfo@@@std@@@std@@@std@@PAUForceInfo@@V?$allocator@UForceInfo@@@2@@std@@YAPAUForceInfo@@V?$_Vector_const_iterator@V?$_Vector_val@UForceInfo@@V?$allocator@UForceInfo@@@std@@@std@@@0@0PAU1@AAV?$allocator@UForceInfo@@@0@U_Nonscalar_ptr_iterator_tag@0@@Z ; std::_Uninit_copy<std::_Vector_const_iterator<std::_Vector_val<ForceInfo,std::allocator<ForceInfo> > >,ForceInfo *,std::allocator<ForceInfo> >
; Function compile flags: /Ogsp
; File c:\program files (x86)\microsoft visual studio 10.0\vc\include\memory
;	COMDAT ??$_Uninit_copy@V?$_Vector_const_iterator@V?$_Vector_val@UForceInfo@@V?$allocator@UForceInfo@@@std@@@std@@@std@@PAUForceInfo@@V?$allocator@UForceInfo@@@2@@std@@YAPAUForceInfo@@V?$_Vector_const_iterator@V?$_Vector_val@UForceInfo@@V?$allocator@UForceInfo@@@std@@@std@@@0@0PAU1@AAV?$allocator@UForceInfo@@@0@U_Nonscalar_ptr_iterator_tag@0@@Z
_TEXT	SEGMENT
__First$ = 8						; size = 4
__Last$ = 12						; size = 4
__Dest$ = 16						; size = 4
__Al$ = 20						; size = 4
___formal$ = 24						; size = 1
??$_Uninit_copy@V?$_Vector_const_iterator@V?$_Vector_val@UForceInfo@@V?$allocator@UForceInfo@@@std@@@std@@@std@@PAUForceInfo@@V?$allocator@UForceInfo@@@2@@std@@YAPAUForceInfo@@V?$_Vector_const_iterator@V?$_Vector_val@UForceInfo@@V?$allocator@UForceInfo@@@std@@@std@@@0@0PAU1@AAV?$allocator@UForceInfo@@@0@U_Nonscalar_ptr_iterator_tag@0@@Z PROC ; std::_Uninit_copy<std::_Vector_const_iterator<std::_Vector_val<ForceInfo,std::allocator<ForceInfo> > >,ForceInfo *,std::allocator<ForceInfo> >, COMDAT

; 369  : 	{	// copy [_First, _Last) to raw _Dest, using _Al, arbitrary type

  00000	55		 push	 ebp
  00001	8b ec		 mov	 ebp, esp

; 370  : 	_DEBUG_RANGE(_First, _Last);
; 371  : 	_DEBUG_POINTER(_Dest);
; 372  : 	_FwdIt _Next = _Dest;
; 373  : 
; 374  : 	_TRY_BEGIN
; 375  : 	for (; _First != _Last; ++_Dest, ++_First)

  00003	eb 19		 jmp	 SHORT $LN35@Uninit_cop
$LL14@Uninit_cop:

; 376  : 		_Cons_val(_Al, _Dest, *_First);

  00005	ff 75 08	 push	 DWORD PTR __First$[ebp]
  00008	ff 75 10	 push	 DWORD PTR __Dest$[ebp]
  0000b	ff 75 14	 push	 DWORD PTR __Al$[ebp]
  0000e	e8 00 00 00 00	 call	 ??$_Cons_val@V?$allocator@UForceInfo@@@std@@UForceInfo@@ABU3@@std@@YAXAAV?$allocator@UForceInfo@@@0@PAUForceInfo@@ABU2@@Z ; std::_Cons_val<std::allocator<ForceInfo>,ForceInfo,ForceInfo const &>
  00013	83 45 10 0c	 add	 DWORD PTR __Dest$[ebp], 12 ; 0000000cH
  00017	83 c4 0c	 add	 esp, 12			; 0000000cH
  0001a	83 45 08 0c	 add	 DWORD PTR __First$[ebp], 12 ; 0000000cH
$LN35@Uninit_cop:

; 370  : 	_DEBUG_RANGE(_First, _Last);
; 371  : 	_DEBUG_POINTER(_Dest);
; 372  : 	_FwdIt _Next = _Dest;
; 373  : 
; 374  : 	_TRY_BEGIN
; 375  : 	for (; _First != _Last; ++_Dest, ++_First)

  0001e	8b 45 08	 mov	 eax, DWORD PTR __First$[ebp]
  00021	3b 45 0c	 cmp	 eax, DWORD PTR __Last$[ebp]
  00024	75 df		 jne	 SHORT $LL14@Uninit_cop

; 377  : 	_CATCH_ALL
; 378  : 	for (; _Next != _Dest; ++_Next)
; 379  : 		_Dest_val(_Al, _Next);
; 380  : 	_RERAISE;
; 381  : 	_CATCH_END
; 382  : 	return (_Dest);

  00026	8b 45 10	 mov	 eax, DWORD PTR __Dest$[ebp]

; 383  : 	}

  00029	5d		 pop	 ebp
  0002a	c3		 ret	 0
??$_Uninit_copy@V?$_Vector_const_iterator@V?$_Vector_val@UForceInfo@@V?$allocator@UForceInfo@@@std@@@std@@@std@@PAUForceInfo@@V?$allocator@UForceInfo@@@2@@std@@YAPAUForceInfo@@V?$_Vector_const_iterator@V?$_Vector_val@UForceInfo@@V?$allocator@UForceInfo@@@std@@@std@@@0@0PAU1@AAV?$allocator@UForceInfo@@@0@U_Nonscalar_ptr_iterator_tag@0@@Z ENDP ; std::_Uninit_copy<std::_Vector_const_iterator<std::_Vector_val<ForceInfo,std::allocator<ForceInfo> > >,ForceInfo *,std::allocator<ForceInfo> >
_TEXT	ENDS
PUBLIC	??$_Cons_val@V?$allocator@UWeaponInfo@@@std@@UWeaponInfo@@ABU3@@std@@YAXAAV?$allocator@UWeaponInfo@@@0@PAUWeaponInfo@@ABU2@@Z ; std::_Cons_val<std::allocator<WeaponInfo>,WeaponInfo,WeaponInfo const &>
; Function compile flags: /Ogsp
; File c:\program files (x86)\microsoft visual studio 10.0\vc\include\xmemory
;	COMDAT ??$_Cons_val@V?$allocator@UWeaponInfo@@@std@@UWeaponInfo@@ABU3@@std@@YAXAAV?$allocator@UWeaponInfo@@@0@PAUWeaponInfo@@ABU2@@Z
_TEXT	SEGMENT
__Alval$ = 8						; size = 4
__Pdest$ = 12						; size = 4
__Src$ = 16						; size = 4
??$_Cons_val@V?$allocator@UWeaponInfo@@@std@@UWeaponInfo@@ABU3@@std@@YAXAAV?$allocator@UWeaponInfo@@@0@PAUWeaponInfo@@ABU2@@Z PROC ; std::_Cons_val<std::allocator<WeaponInfo>,WeaponInfo,WeaponInfo const &>, COMDAT

; 279  : 	{	// construct using allocator

  00000	55		 push	 ebp
  00001	8b ec		 mov	 ebp, esp

; 280  : 	_Alval.construct(_Pdest, _STD forward<_Ty2>(_Src));

  00003	ff 75 10	 push	 DWORD PTR __Src$[ebp]
  00006	ff 75 0c	 push	 DWORD PTR __Pdest$[ebp]
  00009	e8 00 00 00 00	 call	 ??$_Construct@UWeaponInfo@@ABU1@@std@@YAXPAUWeaponInfo@@ABU1@@Z ; std::_Construct<WeaponInfo,WeaponInfo const &>
  0000e	59		 pop	 ecx
  0000f	59		 pop	 ecx

; 281  : 	}

  00010	5d		 pop	 ebp
  00011	c3		 ret	 0
??$_Cons_val@V?$allocator@UWeaponInfo@@@std@@UWeaponInfo@@ABU3@@std@@YAXAAV?$allocator@UWeaponInfo@@@0@PAUWeaponInfo@@ABU2@@Z ENDP ; std::_Cons_val<std::allocator<WeaponInfo>,WeaponInfo,WeaponInfo const &>
_TEXT	ENDS
PUBLIC	??$_Destroy_range@V?$allocator@UForceInfo@@@std@@@std@@YAXPAUForceInfo@@0AAV?$allocator@UForceInfo@@@0@U_Nonscalar_ptr_iterator_tag@0@@Z ; std::_Destroy_range<std::allocator<ForceInfo> >
; Function compile flags: /Ogsp
;	COMDAT ??$_Destroy_range@V?$allocator@UForceInfo@@@std@@@std@@YAXPAUForceInfo@@0AAV?$allocator@UForceInfo@@@0@U_Nonscalar_ptr_iterator_tag@0@@Z
_TEXT	SEGMENT
__First$ = 8						; size = 4
__Last$ = 12						; size = 4
__Al$ = 16						; size = 4
___formal$ = 20						; size = 1
??$_Destroy_range@V?$allocator@UForceInfo@@@std@@@std@@YAXPAUForceInfo@@0AAV?$allocator@UForceInfo@@@0@U_Nonscalar_ptr_iterator_tag@0@@Z PROC ; std::_Destroy_range<std::allocator<ForceInfo> >, COMDAT

; 96   : 	for (; _First != _Last; ++_First)
; 97   : 		_Dest_val(_Al, _First);
; 98   : 	}

  00000	c3		 ret	 0
??$_Destroy_range@V?$allocator@UForceInfo@@@std@@@std@@YAXPAUForceInfo@@0AAV?$allocator@UForceInfo@@@0@U_Nonscalar_ptr_iterator_tag@0@@Z ENDP ; std::_Destroy_range<std::allocator<ForceInfo> >
_TEXT	ENDS
PUBLIC	??$_Dest_val@V?$allocator@VioHashString@@@std@@VioHashString@@@std@@YAXAAV?$allocator@VioHashString@@@0@PAVioHashString@@@Z ; std::_Dest_val<std::allocator<ioHashString>,ioHashString>
; Function compile flags: /Ogsp
;	COMDAT ??$_Dest_val@V?$allocator@VioHashString@@@std@@VioHashString@@@std@@YAXAAV?$allocator@VioHashString@@@0@PAVioHashString@@@Z
_TEXT	SEGMENT
__Alval$ = 8						; size = 4
__Pdest$ = 12						; size = 4
??$_Dest_val@V?$allocator@VioHashString@@@std@@VioHashString@@@std@@YAXAAV?$allocator@VioHashString@@@0@PAVioHashString@@@Z PROC ; std::_Dest_val<std::allocator<ioHashString>,ioHashString>, COMDAT

; 286  : 	{	// destroy using allocator

  00000	55		 push	 ebp
  00001	8b ec		 mov	 ebp, esp

; 287  : 	_Alval.destroy(_Pdest);

  00003	8b 4d 0c	 mov	 ecx, DWORD PTR __Pdest$[ebp]

; 288  : 	}

  00006	5d		 pop	 ebp

; 287  : 	_Alval.destroy(_Pdest);

  00007	ff 25 00 00 00
	00		 jmp	 DWORD PTR __imp_??1ioHashString@@QAE@XZ
??$_Dest_val@V?$allocator@VioHashString@@@std@@VioHashString@@@std@@YAXAAV?$allocator@VioHashString@@@0@PAVioHashString@@@Z ENDP ; std::_Dest_val<std::allocator<ioHashString>,ioHashString>
_TEXT	ENDS
PUBLIC	??$_Dest_val@V?$allocator@UWeaponInfo@@@std@@UWeaponInfo@@@std@@YAXAAV?$allocator@UWeaponInfo@@@0@PAUWeaponInfo@@@Z ; std::_Dest_val<std::allocator<WeaponInfo>,WeaponInfo>
; Function compile flags: /Ogsp
;	COMDAT ??$_Dest_val@V?$allocator@UWeaponInfo@@@std@@UWeaponInfo@@@std@@YAXAAV?$allocator@UWeaponInfo@@@0@PAUWeaponInfo@@@Z
_TEXT	SEGMENT
__Alval$ = 8						; size = 4
__Pdest$ = 12						; size = 4
??$_Dest_val@V?$allocator@UWeaponInfo@@@std@@UWeaponInfo@@@std@@YAXAAV?$allocator@UWeaponInfo@@@0@PAUWeaponInfo@@@Z PROC ; std::_Dest_val<std::allocator<WeaponInfo>,WeaponInfo>, COMDAT

; 286  : 	{	// destroy using allocator

  00000	55		 push	 ebp
  00001	8b ec		 mov	 ebp, esp

; 287  : 	_Alval.destroy(_Pdest);

  00003	8b 4d 0c	 mov	 ecx, DWORD PTR __Pdest$[ebp]
  00006	83 c1 08	 add	 ecx, 8

; 288  : 	}

  00009	5d		 pop	 ebp

; 287  : 	_Alval.destroy(_Pdest);

  0000a	ff 25 00 00 00
	00		 jmp	 DWORD PTR __imp_??1ioHashString@@QAE@XZ
??$_Dest_val@V?$allocator@UWeaponInfo@@@std@@UWeaponInfo@@@std@@YAXAAV?$allocator@UWeaponInfo@@@0@PAUWeaponInfo@@@Z ENDP ; std::_Dest_val<std::allocator<WeaponInfo>,WeaponInfo>
_TEXT	ENDS
PUBLIC	??$_Uninitialized_copy@V?$_Vector_const_iterator@V?$_Vector_val@UForceInfo@@V?$allocator@UForceInfo@@@std@@@std@@@std@@PAUForceInfo@@V?$allocator@UForceInfo@@@2@@std@@YAPAUForceInfo@@V?$_Vector_const_iterator@V?$_Vector_val@UForceInfo@@V?$allocator@UForceInfo@@@std@@@std@@@0@0PAU1@AAV?$allocator@UForceInfo@@@0@@Z ; std::_Uninitialized_copy<std::_Vector_const_iterator<std::_Vector_val<ForceInfo,std::allocator<ForceInfo> > >,ForceInfo *,std::allocator<ForceInfo> >
; Function compile flags: /Ogsp
; File c:\program files (x86)\microsoft visual studio 10.0\vc\include\memory
;	COMDAT ??$_Uninitialized_copy@V?$_Vector_const_iterator@V?$_Vector_val@UForceInfo@@V?$allocator@UForceInfo@@@std@@@std@@@std@@PAUForceInfo@@V?$allocator@UForceInfo@@@2@@std@@YAPAUForceInfo@@V?$_Vector_const_iterator@V?$_Vector_val@UForceInfo@@V?$allocator@UForceInfo@@@std@@@std@@@0@0PAU1@AAV?$allocator@UForceInfo@@@0@@Z
_TEXT	SEGMENT
__Cat$529144 = -4					; size = 1
__First$ = 8						; size = 4
__Last$ = 12						; size = 4
__Dest$ = 16						; size = 4
__Al$ = 20						; size = 4
??$_Uninitialized_copy@V?$_Vector_const_iterator@V?$_Vector_val@UForceInfo@@V?$allocator@UForceInfo@@@std@@@std@@@std@@PAUForceInfo@@V?$allocator@UForceInfo@@@2@@std@@YAPAUForceInfo@@V?$_Vector_const_iterator@V?$_Vector_val@UForceInfo@@V?$allocator@UForceInfo@@@std@@@std@@@0@0PAU1@AAV?$allocator@UForceInfo@@@0@@Z PROC ; std::_Uninitialized_copy<std::_Vector_const_iterator<std::_Vector_val<ForceInfo,std::allocator<ForceInfo> > >,ForceInfo *,std::allocator<ForceInfo> >, COMDAT

; 412  : 	{	// copy [_First, _Last) to raw _Dest, using _Al

  00000	55		 push	 ebp
  00001	8b ec		 mov	 ebp, esp
  00003	51		 push	 ecx

; 413  : 	return (_Uninit_copy(_First, _Last, _Dest, _Al,
; 414  : 		_Ptr_cat(_First, _Dest)));

  00004	ff 75 fc	 push	 DWORD PTR __Cat$529144[ebp]
  00007	ff 75 14	 push	 DWORD PTR __Al$[ebp]
  0000a	ff 75 10	 push	 DWORD PTR __Dest$[ebp]
  0000d	ff 75 0c	 push	 DWORD PTR __Last$[ebp]
  00010	ff 75 08	 push	 DWORD PTR __First$[ebp]
  00013	e8 00 00 00 00	 call	 ??$_Uninit_copy@V?$_Vector_const_iterator@V?$_Vector_val@UForceInfo@@V?$allocator@UForceInfo@@@std@@@std@@@std@@PAUForceInfo@@V?$allocator@UForceInfo@@@2@@std@@YAPAUForceInfo@@V?$_Vector_const_iterator@V?$_Vector_val@UForceInfo@@V?$allocator@UForceInfo@@@std@@@std@@@0@0PAU1@AAV?$allocator@UForceInfo@@@0@U_Nonscalar_ptr_iterator_tag@0@@Z ; std::_Uninit_copy<std::_Vector_const_iterator<std::_Vector_val<ForceInfo,std::allocator<ForceInfo> > >,ForceInfo *,std::allocator<ForceInfo> >
  00018	83 c4 14	 add	 esp, 20			; 00000014H

; 415  : 	}

  0001b	c9		 leave
  0001c	c3		 ret	 0
??$_Uninitialized_copy@V?$_Vector_const_iterator@V?$_Vector_val@UForceInfo@@V?$allocator@UForceInfo@@@std@@@std@@@std@@PAUForceInfo@@V?$allocator@UForceInfo@@@2@@std@@YAPAUForceInfo@@V?$_Vector_const_iterator@V?$_Vector_val@UForceInfo@@V?$allocator@UForceInfo@@@std@@@std@@@0@0PAU1@AAV?$allocator@UForceInfo@@@0@@Z ENDP ; std::_Uninitialized_copy<std::_Vector_const_iterator<std::_Vector_val<ForceInfo,std::allocator<ForceInfo> > >,ForceInfo *,std::allocator<ForceInfo> >
_TEXT	ENDS
PUBLIC	??$_Uninit_move@PAVioHashString@@PAV1@V?$allocator@VioHashString@@@std@@V1@@std@@YAPAVioHashString@@PAV1@00AAV?$allocator@VioHashString@@@0@0U_Nonscalar_ptr_iterator_tag@0@@Z ; std::_Uninit_move<ioHashString *,ioHashString *,std::allocator<ioHashString>,ioHashString>
EXTRN	__EH_prolog3_catch:PROC
;	COMDAT xdata$x
; File c:\program files (x86)\microsoft visual studio 10.0\vc\include\vector
xdata$x	SEGMENT
__catchsym$??$_Uninit_move@PAVioHashString@@PAV1@V?$allocator@VioHashString@@@std@@V1@@std@@YAPAVioHashString@@PAV1@00AAV?$allocator@VioHashString@@@0@0U_Nonscalar_ptr_iterator_tag@0@@Z$2 DD 040H
	DD	00H
	DD	00H
	DD	FLAT:__catch$??$_Uninit_move@PAVioHashString@@PAV1@V?$allocator@VioHashString@@@std@@V1@@std@@YAPAVioHashString@@PAV1@00AAV?$allocator@VioHashString@@@0@0U_Nonscalar_ptr_iterator_tag@0@@Z$0
__unwindtable$??$_Uninit_move@PAVioHashString@@PAV1@V?$allocator@VioHashString@@@std@@V1@@std@@YAPAVioHashString@@PAV1@00AAV?$allocator@VioHashString@@@0@0U_Nonscalar_ptr_iterator_tag@0@@Z DD 0ffffffffH
	DD	00H
	DD	0ffffffffH
	DD	00H
__tryblocktable$??$_Uninit_move@PAVioHashString@@PAV1@V?$allocator@VioHashString@@@std@@V1@@std@@YAPAVioHashString@@PAV1@00AAV?$allocator@VioHashString@@@0@0U_Nonscalar_ptr_iterator_tag@0@@Z DD 00H
	DD	00H
	DD	01H
	DD	01H
	DD	FLAT:__catchsym$??$_Uninit_move@PAVioHashString@@PAV1@V?$allocator@VioHashString@@@std@@V1@@std@@YAPAVioHashString@@PAV1@00AAV?$allocator@VioHashString@@@0@0U_Nonscalar_ptr_iterator_tag@0@@Z$2
__ehfuncinfo$??$_Uninit_move@PAVioHashString@@PAV1@V?$allocator@VioHashString@@@std@@V1@@std@@YAPAVioHashString@@PAV1@00AAV?$allocator@VioHashString@@@0@0U_Nonscalar_ptr_iterator_tag@0@@Z DD 019930522H
	DD	02H
	DD	FLAT:__unwindtable$??$_Uninit_move@PAVioHashString@@PAV1@V?$allocator@VioHashString@@@std@@V1@@std@@YAPAVioHashString@@PAV1@00AAV?$allocator@VioHashString@@@0@0U_Nonscalar_ptr_iterator_tag@0@@Z
	DD	01H
	DD	FLAT:__tryblocktable$??$_Uninit_move@PAVioHashString@@PAV1@V?$allocator@VioHashString@@@std@@V1@@std@@YAPAVioHashString@@PAV1@00AAV?$allocator@VioHashString@@@0@0U_Nonscalar_ptr_iterator_tag@0@@Z
	DD	2 DUP(00H)
	DD	00H
	DD	01H
; Function compile flags: /Ogsp
; File c:\program files (x86)\microsoft visual studio 10.0\vc\include\memory
xdata$x	ENDS
;	COMDAT ??$_Uninit_move@PAVioHashString@@PAV1@V?$allocator@VioHashString@@@std@@V1@@std@@YAPAVioHashString@@PAV1@00AAV?$allocator@VioHashString@@@0@0U_Nonscalar_ptr_iterator_tag@0@@Z
_TEXT	SEGMENT
__Next$ = -20						; size = 4
__$EHRec$ = -16						; size = 16
__First$ = 8						; size = 4
__Last$ = 12						; size = 4
__Dest$ = 16						; size = 4
__Al$ = 20						; size = 4
___formal$ = 24						; size = 4
___formal$ = 28						; size = 1
??$_Uninit_move@PAVioHashString@@PAV1@V?$allocator@VioHashString@@@std@@V1@@std@@YAPAVioHashString@@PAV1@00AAV?$allocator@VioHashString@@@0@0U_Nonscalar_ptr_iterator_tag@0@@Z PROC ; std::_Uninit_move<ioHashString *,ioHashString *,std::allocator<ioHashString>,ioHashString>, COMDAT

; 424  : 	{	// move [_First, _Last) to raw _Dest, using _Al, arbitrary type

  00000	6a 08		 push	 8
  00002	b8 00 00 00 00	 mov	 eax, __ehhandler$??$_Uninit_move@PAVioHashString@@PAV1@V?$allocator@VioHashString@@@std@@V1@@std@@YAPAVioHashString@@PAV1@00AAV?$allocator@VioHashString@@@0@0U_Nonscalar_ptr_iterator_tag@0@@Z
  00007	e8 00 00 00 00	 call	 __EH_prolog3_catch

; 425  : 	_DEBUG_RANGE(_First, _Last);
; 426  : 	_DEBUG_POINTER(_Dest);
; 427  : 	_FwdIt _Next = _Dest;

  0000c	8b 45 10	 mov	 eax, DWORD PTR __Dest$[ebp]

; 428  : 
; 429  : 	_TRY_BEGIN

  0000f	83 65 fc 00	 and	 DWORD PTR __$EHRec$[ebp+12], 0
  00013	8b 75 08	 mov	 esi, DWORD PTR __First$[ebp]
  00016	89 45 ec	 mov	 DWORD PTR __Next$[ebp], eax
$LL6@Uninit_mov:

; 430  : 	for (; _First != _Last; ++_Dest, ++_First)

  00019	3b 75 0c	 cmp	 esi, DWORD PTR __Last$[ebp]
  0001c	74 33		 je	 SHORT $LN4@Uninit_mov

; 431  : 		_Cons_val(_Al, _Dest, (_Valty &&)*_First);

  0001e	8b 4d 14	 mov	 ecx, DWORD PTR __Al$[ebp]
  00021	56		 push	 esi
  00022	ff 75 10	 push	 DWORD PTR __Dest$[ebp]
  00025	e8 00 00 00 00	 call	 ?construct@?$allocator@VioHashString@@@std@@QAEXPAVioHashString@@$$QAV3@@Z ; std::allocator<ioHashString>::construct
  0002a	83 45 10 10	 add	 DWORD PTR __Dest$[ebp], 16 ; 00000010H
  0002e	83 c6 10	 add	 esi, 16			; 00000010H
  00031	eb e6		 jmp	 SHORT $LL6@Uninit_mov
__catch$??$_Uninit_move@PAVioHashString@@PAV1@V?$allocator@VioHashString@@@std@@V1@@std@@YAPAVioHashString@@PAV1@00AAV?$allocator@VioHashString@@@0@0U_Nonscalar_ptr_iterator_tag@0@@Z$0:

; 432  : 	_CATCH_ALL
; 433  : 	for (; _Next != _Dest; ++_Next)

  00033	8b 75 ec	 mov	 esi, DWORD PTR __Next$[ebp]
  00036	eb 0b		 jmp	 SHORT $LN33@Uninit_mov
$LL3@Uninit_mov:

; 434  : 		_Dest_val(_Al, _Next);

  00038	8b ce		 mov	 ecx, esi
  0003a	ff 15 00 00 00
	00		 call	 DWORD PTR __imp_??1ioHashString@@QAE@XZ
  00040	83 c6 10	 add	 esi, 16			; 00000010H
$LN33@Uninit_mov:

; 432  : 	_CATCH_ALL
; 433  : 	for (; _Next != _Dest; ++_Next)

  00043	3b 75 10	 cmp	 esi, DWORD PTR __Dest$[ebp]
  00046	75 f0		 jne	 SHORT $LL3@Uninit_mov

; 435  : 	_RERAISE;

  00048	6a 00		 push	 0
  0004a	6a 00		 push	 0
  0004c	e8 00 00 00 00	 call	 __CxxThrowException@8
$LN34@Uninit_mov:
$LN4@Uninit_mov:

; 436  : 	_CATCH_END
; 437  : 	return (_Dest);

  00051	8b 45 10	 mov	 eax, DWORD PTR __Dest$[ebp]

; 438  : 	}

  00054	e8 00 00 00 00	 call	 __EH_epilog3
  00059	c3		 ret	 0
$LN32@Uninit_mov:
_TEXT	ENDS
;	COMDAT text$x
text$x	SEGMENT
__ehhandler$??$_Uninit_move@PAVioHashString@@PAV1@V?$allocator@VioHashString@@@std@@V1@@std@@YAPAVioHashString@@PAV1@00AAV?$allocator@VioHashString@@@0@0U_Nonscalar_ptr_iterator_tag@0@@Z:
  00000	8b 54 24 08	 mov	 edx, DWORD PTR [esp+8]
  00004	8d 42 0c	 lea	 eax, DWORD PTR [edx+12]
  00007	8b 4a e8	 mov	 ecx, DWORD PTR [edx-24]
  0000a	33 c8		 xor	 ecx, eax
  0000c	e8 00 00 00 00	 call	 @__security_check_cookie@4
  00011	b8 00 00 00 00	 mov	 eax, OFFSET __ehfuncinfo$??$_Uninit_move@PAVioHashString@@PAV1@V?$allocator@VioHashString@@@std@@V1@@std@@YAPAVioHashString@@PAV1@00AAV?$allocator@VioHashString@@@0@0U_Nonscalar_ptr_iterator_tag@0@@Z
  00016	e9 00 00 00 00	 jmp	 ___CxxFrameHandler3
text$x	ENDS
??$_Uninit_move@PAVioHashString@@PAV1@V?$allocator@VioHashString@@@std@@V1@@std@@YAPAVioHashString@@PAV1@00AAV?$allocator@VioHashString@@@0@0U_Nonscalar_ptr_iterator_tag@0@@Z ENDP ; std::_Uninit_move<ioHashString *,ioHashString *,std::allocator<ioHashString>,ioHashString>
PUBLIC	??$_Uninit_copy@V?$_Vector_const_iterator@V?$_Vector_val@UWeaponInfo@@V?$allocator@UWeaponInfo@@@std@@@std@@@std@@PAUWeaponInfo@@V?$allocator@UWeaponInfo@@@2@@std@@YAPAUWeaponInfo@@V?$_Vector_const_iterator@V?$_Vector_val@UWeaponInfo@@V?$allocator@UWeaponInfo@@@std@@@std@@@0@0PAU1@AAV?$allocator@UWeaponInfo@@@0@U_Nonscalar_ptr_iterator_tag@0@@Z ; std::_Uninit_copy<std::_Vector_const_iterator<std::_Vector_val<WeaponInfo,std::allocator<WeaponInfo> > >,WeaponInfo *,std::allocator<WeaponInfo> >
;	COMDAT xdata$x
; File d:\lost saga for developer\youtube\tutorial\source\src\lsclient\playentityhelpstruct.h
xdata$x	SEGMENT
__catchsym$??$_Uninit_copy@V?$_Vector_const_iterator@V?$_Vector_val@UWeaponInfo@@V?$allocator@UWeaponInfo@@@std@@@std@@@std@@PAUWeaponInfo@@V?$allocator@UWeaponInfo@@@2@@std@@YAPAUWeaponInfo@@V?$_Vector_const_iterator@V?$_Vector_val@UWeaponInfo@@V?$allocator@UWeaponInfo@@@std@@@std@@@0@0PAU1@AAV?$allocator@UWeaponInfo@@@0@U_Nonscalar_ptr_iterator_tag@0@@Z$3 DD 040H
	DD	00H
	DD	00H
	DD	FLAT:__catch$??$_Uninit_copy@V?$_Vector_const_iterator@V?$_Vector_val@UWeaponInfo@@V?$allocator@UWeaponInfo@@@std@@@std@@@std@@PAUWeaponInfo@@V?$allocator@UWeaponInfo@@@2@@std@@YAPAUWeaponInfo@@V?$_Vector_const_iterator@V?$_Vector_val@UWeaponInfo@@V?$allocator@UWeaponInfo@@@std@@@std@@@0@0PAU1@AAV?$allocator@UWeaponInfo@@@0@U_Nonscalar_ptr_iterator_tag@0@@Z$0
__unwindtable$??$_Uninit_copy@V?$_Vector_const_iterator@V?$_Vector_val@UWeaponInfo@@V?$allocator@UWeaponInfo@@@std@@@std@@@std@@PAUWeaponInfo@@V?$allocator@UWeaponInfo@@@2@@std@@YAPAUWeaponInfo@@V?$_Vector_const_iterator@V?$_Vector_val@UWeaponInfo@@V?$allocator@UWeaponInfo@@@std@@@std@@@0@0PAU1@AAV?$allocator@UWeaponInfo@@@0@U_Nonscalar_ptr_iterator_tag@0@@Z DD 0ffffffffH
	DD	00H
	DD	0ffffffffH
	DD	00H
__tryblocktable$??$_Uninit_copy@V?$_Vector_const_iterator@V?$_Vector_val@UWeaponInfo@@V?$allocator@UWeaponInfo@@@std@@@std@@@std@@PAUWeaponInfo@@V?$allocator@UWeaponInfo@@@2@@std@@YAPAUWeaponInfo@@V?$_Vector_const_iterator@V?$_Vector_val@UWeaponInfo@@V?$allocator@UWeaponInfo@@@std@@@std@@@0@0PAU1@AAV?$allocator@UWeaponInfo@@@0@U_Nonscalar_ptr_iterator_tag@0@@Z DD 00H
	DD	00H
	DD	01H
	DD	01H
	DD	FLAT:__catchsym$??$_Uninit_copy@V?$_Vector_const_iterator@V?$_Vector_val@UWeaponInfo@@V?$allocator@UWeaponInfo@@@std@@@std@@@std@@PAUWeaponInfo@@V?$allocator@UWeaponInfo@@@2@@std@@YAPAUWeaponInfo@@V?$_Vector_const_iterator@V?$_Vector_val@UWeaponInfo@@V?$allocator@UWeaponInfo@@@std@@@std@@@0@0PAU1@AAV?$allocator@UWeaponInfo@@@0@U_Nonscalar_ptr_iterator_tag@0@@Z$3
__ehfuncinfo$??$_Uninit_copy@V?$_Vector_const_iterator@V?$_Vector_val@UWeaponInfo@@V?$allocator@UWeaponInfo@@@std@@@std@@@std@@PAUWeaponInfo@@V?$allocator@UWeaponInfo@@@2@@std@@YAPAUWeaponInfo@@V?$_Vector_const_iterator@V?$_Vector_val@UWeaponInfo@@V?$allocator@UWeaponInfo@@@std@@@std@@@0@0PAU1@AAV?$allocator@UWeaponInfo@@@0@U_Nonscalar_ptr_iterator_tag@0@@Z DD 019930522H
	DD	02H
	DD	FLAT:__unwindtable$??$_Uninit_copy@V?$_Vector_const_iterator@V?$_Vector_val@UWeaponInfo@@V?$allocator@UWeaponInfo@@@std@@@std@@@std@@PAUWeaponInfo@@V?$allocator@UWeaponInfo@@@2@@std@@YAPAUWeaponInfo@@V?$_Vector_const_iterator@V?$_Vector_val@UWeaponInfo@@V?$allocator@UWeaponInfo@@@std@@@std@@@0@0PAU1@AAV?$allocator@UWeaponInfo@@@0@U_Nonscalar_ptr_iterator_tag@0@@Z
	DD	01H
	DD	FLAT:__tryblocktable$??$_Uninit_copy@V?$_Vector_const_iterator@V?$_Vector_val@UWeaponInfo@@V?$allocator@UWeaponInfo@@@std@@@std@@@std@@PAUWeaponInfo@@V?$allocator@UWeaponInfo@@@2@@std@@YAPAUWeaponInfo@@V?$_Vector_const_iterator@V?$_Vector_val@UWeaponInfo@@V?$allocator@UWeaponInfo@@@std@@@std@@@0@0PAU1@AAV?$allocator@UWeaponInfo@@@0@U_Nonscalar_ptr_iterator_tag@0@@Z
	DD	2 DUP(00H)
	DD	00H
	DD	01H
; Function compile flags: /Ogsp
; File c:\program files (x86)\microsoft visual studio 10.0\vc\include\memory
xdata$x	ENDS
;	COMDAT ??$_Uninit_copy@V?$_Vector_const_iterator@V?$_Vector_val@UWeaponInfo@@V?$allocator@UWeaponInfo@@@std@@@std@@@std@@PAUWeaponInfo@@V?$allocator@UWeaponInfo@@@2@@std@@YAPAUWeaponInfo@@V?$_Vector_const_iterator@V?$_Vector_val@UWeaponInfo@@V?$allocator@UWeaponInfo@@@std@@@std@@@0@0PAU1@AAV?$allocator@UWeaponInfo@@@0@U_Nonscalar_ptr_iterator_tag@0@@Z
_TEXT	SEGMENT
__Next$ = -20						; size = 4
__$EHRec$ = -16						; size = 16
__First$ = 8						; size = 4
__Last$ = 12						; size = 4
__Dest$ = 16						; size = 4
__Al$ = 20						; size = 4
___formal$ = 24						; size = 1
??$_Uninit_copy@V?$_Vector_const_iterator@V?$_Vector_val@UWeaponInfo@@V?$allocator@UWeaponInfo@@@std@@@std@@@std@@PAUWeaponInfo@@V?$allocator@UWeaponInfo@@@2@@std@@YAPAUWeaponInfo@@V?$_Vector_const_iterator@V?$_Vector_val@UWeaponInfo@@V?$allocator@UWeaponInfo@@@std@@@std@@@0@0PAU1@AAV?$allocator@UWeaponInfo@@@0@U_Nonscalar_ptr_iterator_tag@0@@Z PROC ; std::_Uninit_copy<std::_Vector_const_iterator<std::_Vector_val<WeaponInfo,std::allocator<WeaponInfo> > >,WeaponInfo *,std::allocator<WeaponInfo> >, COMDAT

; 369  : 	{	// copy [_First, _Last) to raw _Dest, using _Al, arbitrary type

  00000	6a 08		 push	 8
  00002	b8 00 00 00 00	 mov	 eax, __ehhandler$??$_Uninit_copy@V?$_Vector_const_iterator@V?$_Vector_val@UWeaponInfo@@V?$allocator@UWeaponInfo@@@std@@@std@@@std@@PAUWeaponInfo@@V?$allocator@UWeaponInfo@@@2@@std@@YAPAUWeaponInfo@@V?$_Vector_const_iterator@V?$_Vector_val@UWeaponInfo@@V?$allocator@UWeaponInfo@@@std@@@std@@@0@0PAU1@AAV?$allocator@UWeaponInfo@@@0@U_Nonscalar_ptr_iterator_tag@0@@Z
  00007	e8 00 00 00 00	 call	 __EH_prolog3_catch

; 370  : 	_DEBUG_RANGE(_First, _Last);
; 371  : 	_DEBUG_POINTER(_Dest);
; 372  : 	_FwdIt _Next = _Dest;

  0000c	8b 45 10	 mov	 eax, DWORD PTR __Dest$[ebp]

; 373  : 
; 374  : 	_TRY_BEGIN

  0000f	83 65 fc 00	 and	 DWORD PTR __$EHRec$[ebp+12], 0
  00013	89 45 ec	 mov	 DWORD PTR __Next$[ebp], eax

; 375  : 	for (; _First != _Last; ++_Dest, ++_First)

$LL14@Uninit_cop@2:
  00016	8b 45 08	 mov	 eax, DWORD PTR __First$[ebp]
  00019	3b 45 0c	 cmp	 eax, DWORD PTR __Last$[ebp]
  0001c	74 34		 je	 SHORT $LN4@Uninit_cop@2

; 376  : 		_Cons_val(_Al, _Dest, *_First);

  0001e	50		 push	 eax
  0001f	ff 75 10	 push	 DWORD PTR __Dest$[ebp]
  00022	e8 00 00 00 00	 call	 ??$_Construct@UWeaponInfo@@ABU1@@std@@YAXPAUWeaponInfo@@ABU1@@Z ; std::_Construct<WeaponInfo,WeaponInfo const &>
  00027	83 45 10 28	 add	 DWORD PTR __Dest$[ebp], 40 ; 00000028H
  0002b	83 45 08 28	 add	 DWORD PTR __First$[ebp], 40 ; 00000028H
  0002f	59		 pop	 ecx
  00030	59		 pop	 ecx
  00031	eb e3		 jmp	 SHORT $LL14@Uninit_cop@2
__catch$??$_Uninit_copy@V?$_Vector_const_iterator@V?$_Vector_val@UWeaponInfo@@V?$allocator@UWeaponInfo@@@std@@@std@@@std@@PAUWeaponInfo@@V?$allocator@UWeaponInfo@@@2@@std@@YAPAUWeaponInfo@@V?$_Vector_const_iterator@V?$_Vector_val@UWeaponInfo@@V?$allocator@UWeaponInfo@@@std@@@std@@@0@0PAU1@AAV?$allocator@UWeaponInfo@@@0@U_Nonscalar_ptr_iterator_tag@0@@Z$0:

; 377  : 	_CATCH_ALL
; 378  : 	for (; _Next != _Dest; ++_Next)

  00033	8b 75 ec	 mov	 esi, DWORD PTR __Next$[ebp]
  00036	eb 0c		 jmp	 SHORT $LN48@Uninit_cop@2
$LL3@Uninit_cop@2:

; 379  : 		_Dest_val(_Al, _Next);

  00038	8d 4e 08	 lea	 ecx, DWORD PTR [esi+8]
  0003b	ff 15 00 00 00
	00		 call	 DWORD PTR __imp_??1ioHashString@@QAE@XZ
  00041	83 c6 28	 add	 esi, 40			; 00000028H
$LN48@Uninit_cop@2:

; 377  : 	_CATCH_ALL
; 378  : 	for (; _Next != _Dest; ++_Next)

  00044	3b 75 10	 cmp	 esi, DWORD PTR __Dest$[ebp]
  00047	75 ef		 jne	 SHORT $LL3@Uninit_cop@2

; 380  : 	_RERAISE;

  00049	6a 00		 push	 0
  0004b	6a 00		 push	 0
  0004d	e8 00 00 00 00	 call	 __CxxThrowException@8
$LN49@Uninit_cop@2:
$LN4@Uninit_cop@2:

; 381  : 	_CATCH_END
; 382  : 	return (_Dest);

  00052	8b 45 10	 mov	 eax, DWORD PTR __Dest$[ebp]

; 383  : 	}

  00055	e8 00 00 00 00	 call	 __EH_epilog3
  0005a	c3		 ret	 0
$LN47@Uninit_cop@2:
_TEXT	ENDS
;	COMDAT text$x
text$x	SEGMENT
__ehhandler$??$_Uninit_copy@V?$_Vector_const_iterator@V?$_Vector_val@UWeaponInfo@@V?$allocator@UWeaponInfo@@@std@@@std@@@std@@PAUWeaponInfo@@V?$allocator@UWeaponInfo@@@2@@std@@YAPAUWeaponInfo@@V?$_Vector_const_iterator@V?$_Vector_val@UWeaponInfo@@V?$allocator@UWeaponInfo@@@std@@@std@@@0@0PAU1@AAV?$allocator@UWeaponInfo@@@0@U_Nonscalar_ptr_iterator_tag@0@@Z:
  00000	8b 54 24 08	 mov	 edx, DWORD PTR [esp+8]
  00004	8d 42 0c	 lea	 eax, DWORD PTR [edx+12]
  00007	8b 4a e8	 mov	 ecx, DWORD PTR [edx-24]
  0000a	33 c8		 xor	 ecx, eax
  0000c	e8 00 00 00 00	 call	 @__security_check_cookie@4
  00011	b8 00 00 00 00	 mov	 eax, OFFSET __ehfuncinfo$??$_Uninit_copy@V?$_Vector_const_iterator@V?$_Vector_val@UWeaponInfo@@V?$allocator@UWeaponInfo@@@std@@@std@@@std@@PAUWeaponInfo@@V?$allocator@UWeaponInfo@@@2@@std@@YAPAUWeaponInfo@@V?$_Vector_const_iterator@V?$_Vector_val@UWeaponInfo@@V?$allocator@UWeaponInfo@@@std@@@std@@@0@0PAU1@AAV?$allocator@UWeaponInfo@@@0@U_Nonscalar_ptr_iterator_tag@0@@Z
  00016	e9 00 00 00 00	 jmp	 ___CxxFrameHandler3
text$x	ENDS
??$_Uninit_copy@V?$_Vector_const_iterator@V?$_Vector_val@UWeaponInfo@@V?$allocator@UWeaponInfo@@@std@@@std@@@std@@PAUWeaponInfo@@V?$allocator@UWeaponInfo@@@2@@std@@YAPAUWeaponInfo@@V?$_Vector_const_iterator@V?$_Vector_val@UWeaponInfo@@V?$allocator@UWeaponInfo@@@std@@@std@@@0@0PAU1@AAV?$allocator@UWeaponInfo@@@0@U_Nonscalar_ptr_iterator_tag@0@@Z ENDP ; std::_Uninit_copy<std::_Vector_const_iterator<std::_Vector_val<WeaponInfo,std::allocator<WeaponInfo> > >,WeaponInfo *,std::allocator<WeaponInfo> >
PUBLIC	??$_Destroy_range@V?$allocator@UForceInfo@@@std@@@std@@YAXPAUForceInfo@@0AAV?$allocator@UForceInfo@@@0@@Z ; std::_Destroy_range<std::allocator<ForceInfo> >
; Function compile flags: /Ogsp
; File c:\program files (x86)\microsoft visual studio 10.0\vc\include\xmemory
;	COMDAT ??$_Destroy_range@V?$allocator@UForceInfo@@@std@@@std@@YAXPAUForceInfo@@0AAV?$allocator@UForceInfo@@@0@@Z
_TEXT	SEGMENT
__First$ = 8						; size = 4
__Last$ = 12						; size = 4
__Al$ = 16						; size = 4
??$_Destroy_range@V?$allocator@UForceInfo@@@std@@@std@@YAXPAUForceInfo@@0AAV?$allocator@UForceInfo@@@0@@Z PROC ; std::_Destroy_range<std::allocator<ForceInfo> >, COMDAT

; 88   : 	_Destroy_range(_First, _Last, _Al, _Ptr_cat(_First, _Last));
; 89   : 	}

  00000	c3		 ret	 0
??$_Destroy_range@V?$allocator@UForceInfo@@@std@@@std@@YAXPAUForceInfo@@0AAV?$allocator@UForceInfo@@@0@@Z ENDP ; std::_Destroy_range<std::allocator<ForceInfo> >
_TEXT	ENDS
PUBLIC	??$_Destroy_range@V?$allocator@VioHashString@@@std@@@std@@YAXPAVioHashString@@0AAV?$allocator@VioHashString@@@0@U_Nonscalar_ptr_iterator_tag@0@@Z ; std::_Destroy_range<std::allocator<ioHashString> >
; Function compile flags: /Ogsp
;	COMDAT ??$_Destroy_range@V?$allocator@VioHashString@@@std@@@std@@YAXPAVioHashString@@0AAV?$allocator@VioHashString@@@0@U_Nonscalar_ptr_iterator_tag@0@@Z
_TEXT	SEGMENT
__First$ = 8						; size = 4
__Last$ = 12						; size = 4
__Al$ = 16						; size = 4
___formal$ = 20						; size = 1
??$_Destroy_range@V?$allocator@VioHashString@@@std@@@std@@YAXPAVioHashString@@0AAV?$allocator@VioHashString@@@0@U_Nonscalar_ptr_iterator_tag@0@@Z PROC ; std::_Destroy_range<std::allocator<ioHashString> >, COMDAT

; 95   : 	{	// destroy [_First, _Last), arbitrary type

  00000	55		 push	 ebp
  00001	8b ec		 mov	 ebp, esp
  00003	56		 push	 esi

; 96   : 	for (; _First != _Last; ++_First)

  00004	8b 75 08	 mov	 esi, DWORD PTR __First$[ebp]
  00007	eb 0b		 jmp	 SHORT $LN17@Destroy_ra
$LL3@Destroy_ra:

; 97   : 		_Dest_val(_Al, _First);

  00009	8b ce		 mov	 ecx, esi
  0000b	ff 15 00 00 00
	00		 call	 DWORD PTR __imp_??1ioHashString@@QAE@XZ
  00011	83 c6 10	 add	 esi, 16			; 00000010H
$LN17@Destroy_ra:

; 96   : 	for (; _First != _Last; ++_First)

  00014	3b 75 0c	 cmp	 esi, DWORD PTR __Last$[ebp]
  00017	75 f0		 jne	 SHORT $LL3@Destroy_ra
  00019	5e		 pop	 esi

; 98   : 	}

  0001a	5d		 pop	 ebp
  0001b	c3		 ret	 0
??$_Destroy_range@V?$allocator@VioHashString@@@std@@@std@@YAXPAVioHashString@@0AAV?$allocator@VioHashString@@@0@U_Nonscalar_ptr_iterator_tag@0@@Z ENDP ; std::_Destroy_range<std::allocator<ioHashString> >
_TEXT	ENDS
PUBLIC	??$_Destroy_range@V?$allocator@UWeaponInfo@@@std@@@std@@YAXPAUWeaponInfo@@0AAV?$allocator@UWeaponInfo@@@0@U_Nonscalar_ptr_iterator_tag@0@@Z ; std::_Destroy_range<std::allocator<WeaponInfo> >
; Function compile flags: /Ogsp
;	COMDAT ??$_Destroy_range@V?$allocator@UWeaponInfo@@@std@@@std@@YAXPAUWeaponInfo@@0AAV?$allocator@UWeaponInfo@@@0@U_Nonscalar_ptr_iterator_tag@0@@Z
_TEXT	SEGMENT
__First$ = 8						; size = 4
__Last$ = 12						; size = 4
__Al$ = 16						; size = 4
___formal$ = 20						; size = 1
??$_Destroy_range@V?$allocator@UWeaponInfo@@@std@@@std@@YAXPAUWeaponInfo@@0AAV?$allocator@UWeaponInfo@@@0@U_Nonscalar_ptr_iterator_tag@0@@Z PROC ; std::_Destroy_range<std::allocator<WeaponInfo> >, COMDAT

; 95   : 	{	// destroy [_First, _Last), arbitrary type

  00000	55		 push	 ebp
  00001	8b ec		 mov	 ebp, esp
  00003	56		 push	 esi

; 96   : 	for (; _First != _Last; ++_First)

  00004	8b 75 08	 mov	 esi, DWORD PTR __First$[ebp]
  00007	eb 0c		 jmp	 SHORT $LN20@Destroy_ra@2
$LL3@Destroy_ra@2:

; 97   : 		_Dest_val(_Al, _First);

  00009	8d 4e 08	 lea	 ecx, DWORD PTR [esi+8]
  0000c	ff 15 00 00 00
	00		 call	 DWORD PTR __imp_??1ioHashString@@QAE@XZ
  00012	83 c6 28	 add	 esi, 40			; 00000028H
$LN20@Destroy_ra@2:

; 96   : 	for (; _First != _Last; ++_First)

  00015	3b 75 0c	 cmp	 esi, DWORD PTR __Last$[ebp]
  00018	75 ef		 jne	 SHORT $LL3@Destroy_ra@2
  0001a	5e		 pop	 esi

; 98   : 	}

  0001b	5d		 pop	 ebp
  0001c	c3		 ret	 0
??$_Destroy_range@V?$allocator@UWeaponInfo@@@std@@@std@@YAXPAUWeaponInfo@@0AAV?$allocator@UWeaponInfo@@@0@U_Nonscalar_ptr_iterator_tag@0@@Z ENDP ; std::_Destroy_range<std::allocator<WeaponInfo> >
_TEXT	ENDS
PUBLIC	??$_Uninit_copy@V?$_Vector_const_iterator@V?$_Vector_val@VioHashString@@V?$allocator@VioHashString@@@std@@@std@@@std@@PAVioHashString@@V?$allocator@VioHashString@@@2@@std@@YAPAVioHashString@@V?$_Vector_const_iterator@V?$_Vector_val@VioHashString@@V?$allocator@VioHashString@@@std@@@std@@@0@0PAV1@AAV?$allocator@VioHashString@@@0@U_Nonscalar_ptr_iterator_tag@0@@Z ; std::_Uninit_copy<std::_Vector_const_iterator<std::_Vector_val<ioHashString,std::allocator<ioHashString> > >,ioHashString *,std::allocator<ioHashString> >
;	COMDAT xdata$x
; File c:\program files (x86)\microsoft visual studio 10.0\vc\include\vector
xdata$x	SEGMENT
__catchsym$??$_Uninit_copy@V?$_Vector_const_iterator@V?$_Vector_val@VioHashString@@V?$allocator@VioHashString@@@std@@@std@@@std@@PAVioHashString@@V?$allocator@VioHashString@@@2@@std@@YAPAVioHashString@@V?$_Vector_const_iterator@V?$_Vector_val@VioHashString@@V?$allocator@VioHashString@@@std@@@std@@@0@0PAV1@AAV?$allocator@VioHashString@@@0@U_Nonscalar_ptr_iterator_tag@0@@Z$2 DD 040H
	DD	00H
	DD	00H
	DD	FLAT:__catch$??$_Uninit_copy@V?$_Vector_const_iterator@V?$_Vector_val@VioHashString@@V?$allocator@VioHashString@@@std@@@std@@@std@@PAVioHashString@@V?$allocator@VioHashString@@@2@@std@@YAPAVioHashString@@V?$_Vector_const_iterator@V?$_Vector_val@VioHashString@@V?$allocator@VioHashString@@@std@@@std@@@0@0PAV1@AAV?$allocator@VioHashString@@@0@U_Nonscalar_ptr_iterator_tag@0@@Z$0
__unwindtable$??$_Uninit_copy@V?$_Vector_const_iterator@V?$_Vector_val@VioHashString@@V?$allocator@VioHashString@@@std@@@std@@@std@@PAVioHashString@@V?$allocator@VioHashString@@@2@@std@@YAPAVioHashString@@V?$_Vector_const_iterator@V?$_Vector_val@VioHashString@@V?$allocator@VioHashString@@@std@@@std@@@0@0PAV1@AAV?$allocator@VioHashString@@@0@U_Nonscalar_ptr_iterator_tag@0@@Z DD 0ffffffffH
	DD	00H
	DD	0ffffffffH
	DD	00H
__tryblocktable$??$_Uninit_copy@V?$_Vector_const_iterator@V?$_Vector_val@VioHashString@@V?$allocator@VioHashString@@@std@@@std@@@std@@PAVioHashString@@V?$allocator@VioHashString@@@2@@std@@YAPAVioHashString@@V?$_Vector_const_iterator@V?$_Vector_val@VioHashString@@V?$allocator@VioHashString@@@std@@@std@@@0@0PAV1@AAV?$allocator@VioHashString@@@0@U_Nonscalar_ptr_iterator_tag@0@@Z DD 00H
	DD	00H
	DD	01H
	DD	01H
	DD	FLAT:__catchsym$??$_Uninit_copy@V?$_Vector_const_iterator@V?$_Vector_val@VioHashString@@V?$allocator@VioHashString@@@std@@@std@@@std@@PAVioHashString@@V?$allocator@VioHashString@@@2@@std@@YAPAVioHashString@@V?$_Vector_const_iterator@V?$_Vector_val@VioHashString@@V?$allocator@VioHashString@@@std@@@std@@@0@0PAV1@AAV?$allocator@VioHashString@@@0@U_Nonscalar_ptr_iterator_tag@0@@Z$2
__ehfuncinfo$??$_Uninit_copy@V?$_Vector_const_iterator@V?$_Vector_val@VioHashString@@V?$allocator@VioHashString@@@std@@@std@@@std@@PAVioHashString@@V?$allocator@VioHashString@@@2@@std@@YAPAVioHashString@@V?$_Vector_const_iterator@V?$_Vector_val@VioHashString@@V?$allocator@VioHashString@@@std@@@std@@@0@0PAV1@AAV?$allocator@VioHashString@@@0@U_Nonscalar_ptr_iterator_tag@0@@Z DD 019930522H
	DD	02H
	DD	FLAT:__unwindtable$??$_Uninit_copy@V?$_Vector_const_iterator@V?$_Vector_val@VioHashString@@V?$allocator@VioHashString@@@std@@@std@@@std@@PAVioHashString@@V?$allocator@VioHashString@@@2@@std@@YAPAVioHashString@@V?$_Vector_const_iterator@V?$_Vector_val@VioHashString@@V?$allocator@VioHashString@@@std@@@std@@@0@0PAV1@AAV?$allocator@VioHashString@@@0@U_Nonscalar_ptr_iterator_tag@0@@Z
	DD	01H
	DD	FLAT:__tryblocktable$??$_Uninit_copy@V?$_Vector_const_iterator@V?$_Vector_val@VioHashString@@V?$allocator@VioHashString@@@std@@@std@@@std@@PAVioHashString@@V?$allocator@VioHashString@@@2@@std@@YAPAVioHashString@@V?$_Vector_const_iterator@V?$_Vector_val@VioHashString@@V?$allocator@VioHashString@@@std@@@std@@@0@0PAV1@AAV?$allocator@VioHashString@@@0@U_Nonscalar_ptr_iterator_tag@0@@Z
	DD	2 DUP(00H)
	DD	00H
	DD	01H
; Function compile flags: /Ogsp
; File c:\program files (x86)\microsoft visual studio 10.0\vc\include\memory
xdata$x	ENDS
;	COMDAT ??$_Uninit_copy@V?$_Vector_const_iterator@V?$_Vector_val@VioHashString@@V?$allocator@VioHashString@@@std@@@std@@@std@@PAVioHashString@@V?$allocator@VioHashString@@@2@@std@@YAPAVioHashString@@V?$_Vector_const_iterator@V?$_Vector_val@VioHashString@@V?$allocator@VioHashString@@@std@@@std@@@0@0PAV1@AAV?$allocator@VioHashString@@@0@U_Nonscalar_ptr_iterator_tag@0@@Z
_TEXT	SEGMENT
__Next$ = -20						; size = 4
__$EHRec$ = -16						; size = 16
__First$ = 8						; size = 4
__Last$ = 12						; size = 4
__Dest$ = 16						; size = 4
__Al$ = 20						; size = 4
___formal$ = 24						; size = 1
??$_Uninit_copy@V?$_Vector_const_iterator@V?$_Vector_val@VioHashString@@V?$allocator@VioHashString@@@std@@@std@@@std@@PAVioHashString@@V?$allocator@VioHashString@@@2@@std@@YAPAVioHashString@@V?$_Vector_const_iterator@V?$_Vector_val@VioHashString@@V?$allocator@VioHashString@@@std@@@std@@@0@0PAV1@AAV?$allocator@VioHashString@@@0@U_Nonscalar_ptr_iterator_tag@0@@Z PROC ; std::_Uninit_copy<std::_Vector_const_iterator<std::_Vector_val<ioHashString,std::allocator<ioHashString> > >,ioHashString *,std::allocator<ioHashString> >, COMDAT

; 369  : 	{	// copy [_First, _Last) to raw _Dest, using _Al, arbitrary type

  00000	6a 08		 push	 8
  00002	b8 00 00 00 00	 mov	 eax, __ehhandler$??$_Uninit_copy@V?$_Vector_const_iterator@V?$_Vector_val@VioHashString@@V?$allocator@VioHashString@@@std@@@std@@@std@@PAVioHashString@@V?$allocator@VioHashString@@@2@@std@@YAPAVioHashString@@V?$_Vector_const_iterator@V?$_Vector_val@VioHashString@@V?$allocator@VioHashString@@@std@@@std@@@0@0PAV1@AAV?$allocator@VioHashString@@@0@U_Nonscalar_ptr_iterator_tag@0@@Z
  00007	e8 00 00 00 00	 call	 __EH_prolog3_catch

; 370  : 	_DEBUG_RANGE(_First, _Last);
; 371  : 	_DEBUG_POINTER(_Dest);
; 372  : 	_FwdIt _Next = _Dest;

  0000c	8b 45 10	 mov	 eax, DWORD PTR __Dest$[ebp]

; 373  : 
; 374  : 	_TRY_BEGIN

  0000f	83 65 fc 00	 and	 DWORD PTR __$EHRec$[ebp+12], 0
  00013	89 45 ec	 mov	 DWORD PTR __Next$[ebp], eax

; 375  : 	for (; _First != _Last; ++_Dest, ++_First)

$LL14@Uninit_cop@3:
  00016	8b 45 08	 mov	 eax, DWORD PTR __First$[ebp]
  00019	3b 45 0c	 cmp	 eax, DWORD PTR __Last$[ebp]
  0001c	74 33		 je	 SHORT $LN4@Uninit_cop@3

; 376  : 		_Cons_val(_Al, _Dest, *_First);

  0001e	50		 push	 eax
  0001f	ff 75 10	 push	 DWORD PTR __Dest$[ebp]
  00022	e8 00 00 00 00	 call	 ??$_Construct@VioHashString@@ABV1@@std@@YAXPAVioHashString@@ABV1@@Z ; std::_Construct<ioHashString,ioHashString const &>
  00027	83 45 10 10	 add	 DWORD PTR __Dest$[ebp], 16 ; 00000010H
  0002b	83 45 08 10	 add	 DWORD PTR __First$[ebp], 16 ; 00000010H
  0002f	59		 pop	 ecx
  00030	59		 pop	 ecx
  00031	eb e3		 jmp	 SHORT $LL14@Uninit_cop@3
__catch$??$_Uninit_copy@V?$_Vector_const_iterator@V?$_Vector_val@VioHashString@@V?$allocator@VioHashString@@@std@@@std@@@std@@PAVioHashString@@V?$allocator@VioHashString@@@2@@std@@YAPAVioHashString@@V?$_Vector_const_iterator@V?$_Vector_val@VioHashString@@V?$allocator@VioHashString@@@std@@@std@@@0@0PAV1@AAV?$allocator@VioHashString@@@0@U_Nonscalar_ptr_iterator_tag@0@@Z$0:

; 377  : 	_CATCH_ALL
; 378  : 	for (; _Next != _Dest; ++_Next)

  00033	8b 75 ec	 mov	 esi, DWORD PTR __Next$[ebp]
  00036	eb 0b		 jmp	 SHORT $LN45@Uninit_cop@3
$LL3@Uninit_cop@3:

; 379  : 		_Dest_val(_Al, _Next);

  00038	8b ce		 mov	 ecx, esi
  0003a	ff 15 00 00 00
	00		 call	 DWORD PTR __imp_??1ioHashString@@QAE@XZ
  00040	83 c6 10	 add	 esi, 16			; 00000010H
$LN45@Uninit_cop@3:

; 377  : 	_CATCH_ALL
; 378  : 	for (; _Next != _Dest; ++_Next)

  00043	3b 75 10	 cmp	 esi, DWORD PTR __Dest$[ebp]
  00046	75 f0		 jne	 SHORT $LL3@Uninit_cop@3

; 380  : 	_RERAISE;

  00048	6a 00		 push	 0
  0004a	6a 00		 push	 0
  0004c	e8 00 00 00 00	 call	 __CxxThrowException@8
$LN46@Uninit_cop@3:
$LN4@Uninit_cop@3:

; 381  : 	_CATCH_END
; 382  : 	return (_Dest);

  00051	8b 45 10	 mov	 eax, DWORD PTR __Dest$[ebp]

; 383  : 	}

  00054	e8 00 00 00 00	 call	 __EH_epilog3
  00059	c3		 ret	 0
$LN44@Uninit_cop@3:
_TEXT	ENDS
;	COMDAT text$x
text$x	SEGMENT
__ehhandler$??$_Uninit_copy@V?$_Vector_const_iterator@V?$_Vector_val@VioHashString@@V?$allocator@VioHashString@@@std@@@std@@@std@@PAVioHashString@@V?$allocator@VioHashString@@@2@@std@@YAPAVioHashString@@V?$_Vector_const_iterator@V?$_Vector_val@VioHashString@@V?$allocator@VioHashString@@@std@@@std@@@0@0PAV1@AAV?$allocator@VioHashString@@@0@U_Nonscalar_ptr_iterator_tag@0@@Z:
  00000	8b 54 24 08	 mov	 edx, DWORD PTR [esp+8]
  00004	8d 42 0c	 lea	 eax, DWORD PTR [edx+12]
  00007	8b 4a e8	 mov	 ecx, DWORD PTR [edx-24]
  0000a	33 c8		 xor	 ecx, eax
  0000c	e8 00 00 00 00	 call	 @__security_check_cookie@4
  00011	b8 00 00 00 00	 mov	 eax, OFFSET __ehfuncinfo$??$_Uninit_copy@V?$_Vector_const_iterator@V?$_Vector_val@VioHashString@@V?$allocator@VioHashString@@@std@@@std@@@std@@PAVioHashString@@V?$allocator@VioHashString@@@2@@std@@YAPAVioHashString@@V?$_Vector_const_iterator@V?$_Vector_val@VioHashString@@V?$allocator@VioHashString@@@std@@@std@@@0@0PAV1@AAV?$allocator@VioHashString@@@0@U_Nonscalar_ptr_iterator_tag@0@@Z
  00016	e9 00 00 00 00	 jmp	 ___CxxFrameHandler3
text$x	ENDS
??$_Uninit_copy@V?$_Vector_const_iterator@V?$_Vector_val@VioHashString@@V?$allocator@VioHashString@@@std@@@std@@@std@@PAVioHashString@@V?$allocator@VioHashString@@@2@@std@@YAPAVioHashString@@V?$_Vector_const_iterator@V?$_Vector_val@VioHashString@@V?$allocator@VioHashString@@@std@@@std@@@0@0PAV1@AAV?$allocator@VioHashString@@@0@U_Nonscalar_ptr_iterator_tag@0@@Z ENDP ; std::_Uninit_copy<std::_Vector_const_iterator<std::_Vector_val<ioHashString,std::allocator<ioHashString> > >,ioHashString *,std::allocator<ioHashString> >
PUBLIC	??$_Ucopy@V?$_Vector_const_iterator@V?$_Vector_val@UForceInfo@@V?$allocator@UForceInfo@@@std@@@std@@@std@@@?$vector@UForceInfo@@V?$allocator@UForceInfo@@@std@@@std@@IAEPAUForceInfo@@V?$_Vector_const_iterator@V?$_Vector_val@UForceInfo@@V?$allocator@UForceInfo@@@std@@@std@@@1@0PAU2@@Z ; std::vector<ForceInfo,std::allocator<ForceInfo> >::_Ucopy<std::_Vector_const_iterator<std::_Vector_val<ForceInfo,std::allocator<ForceInfo> > > >
; Function compile flags: /Ogsp
; File c:\program files (x86)\microsoft visual studio 10.0\vc\include\vector
;	COMDAT ??$_Ucopy@V?$_Vector_const_iterator@V?$_Vector_val@UForceInfo@@V?$allocator@UForceInfo@@@std@@@std@@@std@@@?$vector@UForceInfo@@V?$allocator@UForceInfo@@@std@@@std@@IAEPAUForceInfo@@V?$_Vector_const_iterator@V?$_Vector_val@UForceInfo@@V?$allocator@UForceInfo@@@std@@@std@@@1@0PAU2@@Z
_TEXT	SEGMENT
__First$ = 8						; size = 4
__Last$ = 12						; size = 4
__Cat$529511 = 16					; size = 1
__Ptr$ = 16						; size = 4
??$_Ucopy@V?$_Vector_const_iterator@V?$_Vector_val@UForceInfo@@V?$allocator@UForceInfo@@@std@@@std@@@std@@@?$vector@UForceInfo@@V?$allocator@UForceInfo@@@std@@@std@@IAEPAUForceInfo@@V?$_Vector_const_iterator@V?$_Vector_val@UForceInfo@@V?$allocator@UForceInfo@@@std@@@std@@@1@0PAU2@@Z PROC ; std::vector<ForceInfo,std::allocator<ForceInfo> >::_Ucopy<std::_Vector_const_iterator<std::_Vector_val<ForceInfo,std::allocator<ForceInfo> > > >, COMDAT
; _this$ = ecx

; 1315 : 		pointer _Ucopy(_Iter _First, _Iter _Last, pointer _Ptr)

  00000	55		 push	 ebp
  00001	8b ec		 mov	 ebp, esp

; 1316 : 		{	// copy initializing [_First, _Last), using allocator
; 1317 : 		return (_Uninitialized_copy(_First, _Last,
; 1318 : 			_Ptr, this->_Alval));

  00003	ff 75 10	 push	 DWORD PTR __Cat$529511[ebp]
  00006	83 c1 0c	 add	 ecx, 12			; 0000000cH
  00009	51		 push	 ecx
  0000a	ff 75 10	 push	 DWORD PTR __Ptr$[ebp]
  0000d	ff 75 0c	 push	 DWORD PTR __Last$[ebp]
  00010	ff 75 08	 push	 DWORD PTR __First$[ebp]
  00013	e8 00 00 00 00	 call	 ??$_Uninit_copy@V?$_Vector_const_iterator@V?$_Vector_val@UForceInfo@@V?$allocator@UForceInfo@@@std@@@std@@@std@@PAUForceInfo@@V?$allocator@UForceInfo@@@2@@std@@YAPAUForceInfo@@V?$_Vector_const_iterator@V?$_Vector_val@UForceInfo@@V?$allocator@UForceInfo@@@std@@@std@@@0@0PAU1@AAV?$allocator@UForceInfo@@@0@U_Nonscalar_ptr_iterator_tag@0@@Z ; std::_Uninit_copy<std::_Vector_const_iterator<std::_Vector_val<ForceInfo,std::allocator<ForceInfo> > >,ForceInfo *,std::allocator<ForceInfo> >
  00018	83 c4 14	 add	 esp, 20			; 00000014H

; 1319 : 		}

  0001b	5d		 pop	 ebp
  0001c	c2 0c 00	 ret	 12			; 0000000cH
??$_Ucopy@V?$_Vector_const_iterator@V?$_Vector_val@UForceInfo@@V?$allocator@UForceInfo@@@std@@@std@@@std@@@?$vector@UForceInfo@@V?$allocator@UForceInfo@@@std@@@std@@IAEPAUForceInfo@@V?$_Vector_const_iterator@V?$_Vector_val@UForceInfo@@V?$allocator@UForceInfo@@@std@@@std@@@1@0PAU2@@Z ENDP ; std::vector<ForceInfo,std::allocator<ForceInfo> >::_Ucopy<std::_Vector_const_iterator<std::_Vector_val<ForceInfo,std::allocator<ForceInfo> > > >
_TEXT	ENDS
PUBLIC	??$_Uninitialized_move@PAVioHashString@@PAV1@V?$allocator@VioHashString@@@std@@@std@@YAPAVioHashString@@PAV1@00AAV?$allocator@VioHashString@@@0@@Z ; std::_Uninitialized_move<ioHashString *,ioHashString *,std::allocator<ioHashString> >
; Function compile flags: /Ogsp
; File c:\program files (x86)\microsoft visual studio 10.0\vc\include\memory
;	COMDAT ??$_Uninitialized_move@PAVioHashString@@PAV1@V?$allocator@VioHashString@@@std@@@std@@YAPAVioHashString@@PAV1@00AAV?$allocator@VioHashString@@@0@@Z
_TEXT	SEGMENT
__Cat$529521 = -4					; size = 1
__First$ = 8						; size = 4
__Last$ = 12						; size = 4
__Dest$ = 16						; size = 4
__Al$ = 20						; size = 4
??$_Uninitialized_move@PAVioHashString@@PAV1@V?$allocator@VioHashString@@@std@@@std@@YAPAVioHashString@@PAV1@00AAV?$allocator@VioHashString@@@0@@Z PROC ; std::_Uninitialized_move<ioHashString *,ioHashString *,std::allocator<ioHashString> >, COMDAT

; 469  : 	{	// move [_First, _Last) to raw _Dest, using _Al

  00000	55		 push	 ebp
  00001	8b ec		 mov	 ebp, esp
  00003	51		 push	 ecx

; 470  : 	return (_Uninit_move(_First, _Last, _Dest, _Al,
; 471  : 		_Val_type(_First), _Ptr_cat(_First, _Dest)));

  00004	ff 75 fc	 push	 DWORD PTR __Cat$529521[ebp]
  00007	6a 00		 push	 0
  00009	ff 75 14	 push	 DWORD PTR __Al$[ebp]
  0000c	ff 75 10	 push	 DWORD PTR __Dest$[ebp]
  0000f	ff 75 0c	 push	 DWORD PTR __Last$[ebp]
  00012	ff 75 08	 push	 DWORD PTR __First$[ebp]
  00015	e8 00 00 00 00	 call	 ??$_Uninit_move@PAVioHashString@@PAV1@V?$allocator@VioHashString@@@std@@V1@@std@@YAPAVioHashString@@PAV1@00AAV?$allocator@VioHashString@@@0@0U_Nonscalar_ptr_iterator_tag@0@@Z ; std::_Uninit_move<ioHashString *,ioHashString *,std::allocator<ioHashString>,ioHashString>
  0001a	83 c4 18	 add	 esp, 24			; 00000018H

; 472  : 	}

  0001d	c9		 leave
  0001e	c3		 ret	 0
??$_Uninitialized_move@PAVioHashString@@PAV1@V?$allocator@VioHashString@@@std@@@std@@YAPAVioHashString@@PAV1@00AAV?$allocator@VioHashString@@@0@@Z ENDP ; std::_Uninitialized_move<ioHashString *,ioHashString *,std::allocator<ioHashString> >
_TEXT	ENDS
PUBLIC	??$_Uninitialized_copy@V?$_Vector_const_iterator@V?$_Vector_val@UWeaponInfo@@V?$allocator@UWeaponInfo@@@std@@@std@@@std@@PAUWeaponInfo@@V?$allocator@UWeaponInfo@@@2@@std@@YAPAUWeaponInfo@@V?$_Vector_const_iterator@V?$_Vector_val@UWeaponInfo@@V?$allocator@UWeaponInfo@@@std@@@std@@@0@0PAU1@AAV?$allocator@UWeaponInfo@@@0@@Z ; std::_Uninitialized_copy<std::_Vector_const_iterator<std::_Vector_val<WeaponInfo,std::allocator<WeaponInfo> > >,WeaponInfo *,std::allocator<WeaponInfo> >
; Function compile flags: /Ogsp
;	COMDAT ??$_Uninitialized_copy@V?$_Vector_const_iterator@V?$_Vector_val@UWeaponInfo@@V?$allocator@UWeaponInfo@@@std@@@std@@@std@@PAUWeaponInfo@@V?$allocator@UWeaponInfo@@@2@@std@@YAPAUWeaponInfo@@V?$_Vector_const_iterator@V?$_Vector_val@UWeaponInfo@@V?$allocator@UWeaponInfo@@@std@@@std@@@0@0PAU1@AAV?$allocator@UWeaponInfo@@@0@@Z
_TEXT	SEGMENT
__Cat$529531 = -4					; size = 1
__First$ = 8						; size = 4
__Last$ = 12						; size = 4
__Dest$ = 16						; size = 4
__Al$ = 20						; size = 4
??$_Uninitialized_copy@V?$_Vector_const_iterator@V?$_Vector_val@UWeaponInfo@@V?$allocator@UWeaponInfo@@@std@@@std@@@std@@PAUWeaponInfo@@V?$allocator@UWeaponInfo@@@2@@std@@YAPAUWeaponInfo@@V?$_Vector_const_iterator@V?$_Vector_val@UWeaponInfo@@V?$allocator@UWeaponInfo@@@std@@@std@@@0@0PAU1@AAV?$allocator@UWeaponInfo@@@0@@Z PROC ; std::_Uninitialized_copy<std::_Vector_const_iterator<std::_Vector_val<WeaponInfo,std::allocator<WeaponInfo> > >,WeaponInfo *,std::allocator<WeaponInfo> >, COMDAT

; 412  : 	{	// copy [_First, _Last) to raw _Dest, using _Al

  00000	55		 push	 ebp
  00001	8b ec		 mov	 ebp, esp
  00003	51		 push	 ecx

; 413  : 	return (_Uninit_copy(_First, _Last, _Dest, _Al,
; 414  : 		_Ptr_cat(_First, _Dest)));

  00004	ff 75 fc	 push	 DWORD PTR __Cat$529531[ebp]
  00007	ff 75 14	 push	 DWORD PTR __Al$[ebp]
  0000a	ff 75 10	 push	 DWORD PTR __Dest$[ebp]
  0000d	ff 75 0c	 push	 DWORD PTR __Last$[ebp]
  00010	ff 75 08	 push	 DWORD PTR __First$[ebp]
  00013	e8 00 00 00 00	 call	 ??$_Uninit_copy@V?$_Vector_const_iterator@V?$_Vector_val@UWeaponInfo@@V?$allocator@UWeaponInfo@@@std@@@std@@@std@@PAUWeaponInfo@@V?$allocator@UWeaponInfo@@@2@@std@@YAPAUWeaponInfo@@V?$_Vector_const_iterator@V?$_Vector_val@UWeaponInfo@@V?$allocator@UWeaponInfo@@@std@@@std@@@0@0PAU1@AAV?$allocator@UWeaponInfo@@@0@U_Nonscalar_ptr_iterator_tag@0@@Z ; std::_Uninit_copy<std::_Vector_const_iterator<std::_Vector_val<WeaponInfo,std::allocator<WeaponInfo> > >,WeaponInfo *,std::allocator<WeaponInfo> >
  00018	83 c4 14	 add	 esp, 20			; 00000014H

; 415  : 	}

  0001b	c9		 leave
  0001c	c3		 ret	 0
??$_Uninitialized_copy@V?$_Vector_const_iterator@V?$_Vector_val@UWeaponInfo@@V?$allocator@UWeaponInfo@@@std@@@std@@@std@@PAUWeaponInfo@@V?$allocator@UWeaponInfo@@@2@@std@@YAPAUWeaponInfo@@V?$_Vector_const_iterator@V?$_Vector_val@UWeaponInfo@@V?$allocator@UWeaponInfo@@@std@@@std@@@0@0PAU1@AAV?$allocator@UWeaponInfo@@@0@@Z ENDP ; std::_Uninitialized_copy<std::_Vector_const_iterator<std::_Vector_val<WeaponInfo,std::allocator<WeaponInfo> > >,WeaponInfo *,std::allocator<WeaponInfo> >
_TEXT	ENDS
PUBLIC	?_Destroy@?$vector@UForceInfo@@V?$allocator@UForceInfo@@@std@@@std@@IAEXPAUForceInfo@@0@Z ; std::vector<ForceInfo,std::allocator<ForceInfo> >::_Destroy
; Function compile flags: /Ogsp
; File c:\program files (x86)\microsoft visual studio 10.0\vc\include\vector
;	COMDAT ?_Destroy@?$vector@UForceInfo@@V?$allocator@UForceInfo@@@std@@@std@@IAEXPAUForceInfo@@0@Z
_TEXT	SEGMENT
__First$ = 8						; size = 4
__Last$ = 12						; size = 4
?_Destroy@?$vector@UForceInfo@@V?$allocator@UForceInfo@@@std@@@std@@IAEXPAUForceInfo@@0@Z PROC ; std::vector<ForceInfo,std::allocator<ForceInfo> >::_Destroy, COMDAT
; _this$ = ecx

; 1270 : 		_Destroy_range(_First, _Last, this->_Alval);
; 1271 : 		}

  00000	c2 08 00	 ret	 8
?_Destroy@?$vector@UForceInfo@@V?$allocator@UForceInfo@@@std@@@std@@IAEXPAUForceInfo@@0@Z ENDP ; std::vector<ForceInfo,std::allocator<ForceInfo> >::_Destroy
_TEXT	ENDS
PUBLIC	??$_Destroy_range@V?$allocator@VioHashString@@@std@@@std@@YAXPAVioHashString@@0AAV?$allocator@VioHashString@@@0@@Z ; std::_Destroy_range<std::allocator<ioHashString> >
; Function compile flags: /Ogsp
; File c:\program files (x86)\microsoft visual studio 10.0\vc\include\xmemory
;	COMDAT ??$_Destroy_range@V?$allocator@VioHashString@@@std@@@std@@YAXPAVioHashString@@0AAV?$allocator@VioHashString@@@0@@Z
_TEXT	SEGMENT
__First$ = 8						; size = 4
__Last$ = 12						; size = 4
__Al$ = 16						; size = 4
??$_Destroy_range@V?$allocator@VioHashString@@@std@@@std@@YAXPAVioHashString@@0AAV?$allocator@VioHashString@@@0@@Z PROC ; std::_Destroy_range<std::allocator<ioHashString> >, COMDAT

; 87   : 	{	// destroy [_First, _Last)

  00000	55		 push	 ebp
  00001	8b ec		 mov	 ebp, esp
  00003	56		 push	 esi

; 88   : 	_Destroy_range(_First, _Last, _Al, _Ptr_cat(_First, _Last));

  00004	8b 75 08	 mov	 esi, DWORD PTR __First$[ebp]
  00007	eb 0b		 jmp	 SHORT $LN21@Destroy_ra@3
$LL7@Destroy_ra@3:
  00009	8b ce		 mov	 ecx, esi
  0000b	ff 15 00 00 00
	00		 call	 DWORD PTR __imp_??1ioHashString@@QAE@XZ
  00011	83 c6 10	 add	 esi, 16			; 00000010H
$LN21@Destroy_ra@3:
  00014	3b 75 0c	 cmp	 esi, DWORD PTR __Last$[ebp]
  00017	75 f0		 jne	 SHORT $LL7@Destroy_ra@3
  00019	5e		 pop	 esi

; 89   : 	}

  0001a	5d		 pop	 ebp
  0001b	c3		 ret	 0
??$_Destroy_range@V?$allocator@VioHashString@@@std@@@std@@YAXPAVioHashString@@0AAV?$allocator@VioHashString@@@0@@Z ENDP ; std::_Destroy_range<std::allocator<ioHashString> >
_TEXT	ENDS
PUBLIC	??$_Destroy_range@V?$allocator@UWeaponInfo@@@std@@@std@@YAXPAUWeaponInfo@@0AAV?$allocator@UWeaponInfo@@@0@@Z ; std::_Destroy_range<std::allocator<WeaponInfo> >
; Function compile flags: /Ogsp
;	COMDAT ??$_Destroy_range@V?$allocator@UWeaponInfo@@@std@@@std@@YAXPAUWeaponInfo@@0AAV?$allocator@UWeaponInfo@@@0@@Z
_TEXT	SEGMENT
__First$ = 8						; size = 4
__Last$ = 12						; size = 4
__Al$ = 16						; size = 4
??$_Destroy_range@V?$allocator@UWeaponInfo@@@std@@@std@@YAXPAUWeaponInfo@@0AAV?$allocator@UWeaponInfo@@@0@@Z PROC ; std::_Destroy_range<std::allocator<WeaponInfo> >, COMDAT

; 87   : 	{	// destroy [_First, _Last)

  00000	55		 push	 ebp
  00001	8b ec		 mov	 ebp, esp
  00003	56		 push	 esi

; 88   : 	_Destroy_range(_First, _Last, _Al, _Ptr_cat(_First, _Last));

  00004	8b 75 08	 mov	 esi, DWORD PTR __First$[ebp]
  00007	eb 0c		 jmp	 SHORT $LN24@Destroy_ra@4
$LL7@Destroy_ra@4:
  00009	8d 4e 08	 lea	 ecx, DWORD PTR [esi+8]
  0000c	ff 15 00 00 00
	00		 call	 DWORD PTR __imp_??1ioHashString@@QAE@XZ
  00012	83 c6 28	 add	 esi, 40			; 00000028H
$LN24@Destroy_ra@4:
  00015	3b 75 0c	 cmp	 esi, DWORD PTR __Last$[ebp]
  00018	75 ef		 jne	 SHORT $LL7@Destroy_ra@4
  0001a	5e		 pop	 esi

; 89   : 	}

  0001b	5d		 pop	 ebp
  0001c	c3		 ret	 0
??$_Destroy_range@V?$allocator@UWeaponInfo@@@std@@@std@@YAXPAUWeaponInfo@@0AAV?$allocator@UWeaponInfo@@@0@@Z ENDP ; std::_Destroy_range<std::allocator<WeaponInfo> >
_TEXT	ENDS
PUBLIC	??$_Uninitialized_copy@V?$_Vector_const_iterator@V?$_Vector_val@VioHashString@@V?$allocator@VioHashString@@@std@@@std@@@std@@PAVioHashString@@V?$allocator@VioHashString@@@2@@std@@YAPAVioHashString@@V?$_Vector_const_iterator@V?$_Vector_val@VioHashString@@V?$allocator@VioHashString@@@std@@@std@@@0@0PAV1@AAV?$allocator@VioHashString@@@0@@Z ; std::_Uninitialized_copy<std::_Vector_const_iterator<std::_Vector_val<ioHashString,std::allocator<ioHashString> > >,ioHashString *,std::allocator<ioHashString> >
; Function compile flags: /Ogsp
; File c:\program files (x86)\microsoft visual studio 10.0\vc\include\memory
;	COMDAT ??$_Uninitialized_copy@V?$_Vector_const_iterator@V?$_Vector_val@VioHashString@@V?$allocator@VioHashString@@@std@@@std@@@std@@PAVioHashString@@V?$allocator@VioHashString@@@2@@std@@YAPAVioHashString@@V?$_Vector_const_iterator@V?$_Vector_val@VioHashString@@V?$allocator@VioHashString@@@std@@@std@@@0@0PAV1@AAV?$allocator@VioHashString@@@0@@Z
_TEXT	SEGMENT
__Cat$529715 = -4					; size = 1
__First$ = 8						; size = 4
__Last$ = 12						; size = 4
__Dest$ = 16						; size = 4
__Al$ = 20						; size = 4
??$_Uninitialized_copy@V?$_Vector_const_iterator@V?$_Vector_val@VioHashString@@V?$allocator@VioHashString@@@std@@@std@@@std@@PAVioHashString@@V?$allocator@VioHashString@@@2@@std@@YAPAVioHashString@@V?$_Vector_const_iterator@V?$_Vector_val@VioHashString@@V?$allocator@VioHashString@@@std@@@std@@@0@0PAV1@AAV?$allocator@VioHashString@@@0@@Z PROC ; std::_Uninitialized_copy<std::_Vector_const_iterator<std::_Vector_val<ioHashString,std::allocator<ioHashString> > >,ioHashString *,std::allocator<ioHashString> >, COMDAT

; 412  : 	{	// copy [_First, _Last) to raw _Dest, using _Al

  00000	55		 push	 ebp
  00001	8b ec		 mov	 ebp, esp
  00003	51		 push	 ecx

; 413  : 	return (_Uninit_copy(_First, _Last, _Dest, _Al,
; 414  : 		_Ptr_cat(_First, _Dest)));

  00004	ff 75 fc	 push	 DWORD PTR __Cat$529715[ebp]
  00007	ff 75 14	 push	 DWORD PTR __Al$[ebp]
  0000a	ff 75 10	 push	 DWORD PTR __Dest$[ebp]
  0000d	ff 75 0c	 push	 DWORD PTR __Last$[ebp]
  00010	ff 75 08	 push	 DWORD PTR __First$[ebp]
  00013	e8 00 00 00 00	 call	 ??$_Uninit_copy@V?$_Vector_const_iterator@V?$_Vector_val@VioHashString@@V?$allocator@VioHashString@@@std@@@std@@@std@@PAVioHashString@@V?$allocator@VioHashString@@@2@@std@@YAPAVioHashString@@V?$_Vector_const_iterator@V?$_Vector_val@VioHashString@@V?$allocator@VioHashString@@@std@@@std@@@0@0PAV1@AAV?$allocator@VioHashString@@@0@U_Nonscalar_ptr_iterator_tag@0@@Z ; std::_Uninit_copy<std::_Vector_const_iterator<std::_Vector_val<ioHashString,std::allocator<ioHashString> > >,ioHashString *,std::allocator<ioHashString> >
  00018	83 c4 14	 add	 esp, 20			; 00000014H

; 415  : 	}

  0001b	c9		 leave
  0001c	c3		 ret	 0
??$_Uninitialized_copy@V?$_Vector_const_iterator@V?$_Vector_val@VioHashString@@V?$allocator@VioHashString@@@std@@@std@@@std@@PAVioHashString@@V?$allocator@VioHashString@@@2@@std@@YAPAVioHashString@@V?$_Vector_const_iterator@V?$_Vector_val@VioHashString@@V?$allocator@VioHashString@@@std@@@std@@@0@0PAV1@AAV?$allocator@VioHashString@@@0@@Z ENDP ; std::_Uninitialized_copy<std::_Vector_const_iterator<std::_Vector_val<ioHashString,std::allocator<ioHashString> > >,ioHashString *,std::allocator<ioHashString> >
_TEXT	ENDS
PUBLIC	??$_Umove@PAVioHashString@@@?$vector@VioHashString@@V?$allocator@VioHashString@@@std@@@std@@IAEPAVioHashString@@PAV2@00@Z ; std::vector<ioHashString,std::allocator<ioHashString> >::_Umove<ioHashString *>
; Function compile flags: /Ogsp
; File c:\program files (x86)\microsoft visual studio 10.0\vc\include\vector
;	COMDAT ??$_Umove@PAVioHashString@@@?$vector@VioHashString@@V?$allocator@VioHashString@@@std@@@std@@IAEPAVioHashString@@PAV2@00@Z
_TEXT	SEGMENT
__First$ = 8						; size = 4
__Last$ = 12						; size = 4
__Ptr$ = 16						; size = 4
??$_Umove@PAVioHashString@@@?$vector@VioHashString@@V?$allocator@VioHashString@@@std@@@std@@IAEPAVioHashString@@PAV2@00@Z PROC ; std::vector<ioHashString,std::allocator<ioHashString> >::_Umove<ioHashString *>, COMDAT
; _this$ = ecx

; 1322 : 		pointer _Umove(_Iter _First, _Iter _Last, pointer _Ptr)

  00000	55		 push	 ebp
  00001	8b ec		 mov	 ebp, esp

; 1323 : 		{	// move initializing [_First, _Last), using allocator
; 1324 : 		return (_Uninitialized_move(_First, _Last,
; 1325 : 			_Ptr, this->_Alval));

  00003	83 c1 0c	 add	 ecx, 12			; 0000000cH
  00006	51		 push	 ecx
  00007	ff 75 10	 push	 DWORD PTR __Ptr$[ebp]
  0000a	ff 75 0c	 push	 DWORD PTR __Last$[ebp]
  0000d	ff 75 08	 push	 DWORD PTR __First$[ebp]
  00010	e8 00 00 00 00	 call	 ??$_Uninitialized_move@PAVioHashString@@PAV1@V?$allocator@VioHashString@@@std@@@std@@YAPAVioHashString@@PAV1@00AAV?$allocator@VioHashString@@@0@@Z ; std::_Uninitialized_move<ioHashString *,ioHashString *,std::allocator<ioHashString> >
  00015	83 c4 10	 add	 esp, 16			; 00000010H

; 1326 : 		}

  00018	5d		 pop	 ebp
  00019	c2 0c 00	 ret	 12			; 0000000cH
??$_Umove@PAVioHashString@@@?$vector@VioHashString@@V?$allocator@VioHashString@@@std@@@std@@IAEPAVioHashString@@PAV2@00@Z ENDP ; std::vector<ioHashString,std::allocator<ioHashString> >::_Umove<ioHashString *>
_TEXT	ENDS
PUBLIC	??$_Ucopy@V?$_Vector_const_iterator@V?$_Vector_val@UWeaponInfo@@V?$allocator@UWeaponInfo@@@std@@@std@@@std@@@?$vector@UWeaponInfo@@V?$allocator@UWeaponInfo@@@std@@@std@@IAEPAUWeaponInfo@@V?$_Vector_const_iterator@V?$_Vector_val@UWeaponInfo@@V?$allocator@UWeaponInfo@@@std@@@std@@@1@0PAU2@@Z ; std::vector<WeaponInfo,std::allocator<WeaponInfo> >::_Ucopy<std::_Vector_const_iterator<std::_Vector_val<WeaponInfo,std::allocator<WeaponInfo> > > >
; Function compile flags: /Ogsp
;	COMDAT ??$_Ucopy@V?$_Vector_const_iterator@V?$_Vector_val@UWeaponInfo@@V?$allocator@UWeaponInfo@@@std@@@std@@@std@@@?$vector@UWeaponInfo@@V?$allocator@UWeaponInfo@@@std@@@std@@IAEPAUWeaponInfo@@V?$_Vector_const_iterator@V?$_Vector_val@UWeaponInfo@@V?$allocator@UWeaponInfo@@@std@@@std@@@1@0PAU2@@Z
_TEXT	SEGMENT
__First$ = 8						; size = 4
__Last$ = 12						; size = 4
__Cat$529731 = 16					; size = 1
__Ptr$ = 16						; size = 4
??$_Ucopy@V?$_Vector_const_iterator@V?$_Vector_val@UWeaponInfo@@V?$allocator@UWeaponInfo@@@std@@@std@@@std@@@?$vector@UWeaponInfo@@V?$allocator@UWeaponInfo@@@std@@@std@@IAEPAUWeaponInfo@@V?$_Vector_const_iterator@V?$_Vector_val@UWeaponInfo@@V?$allocator@UWeaponInfo@@@std@@@std@@@1@0PAU2@@Z PROC ; std::vector<WeaponInfo,std::allocator<WeaponInfo> >::_Ucopy<std::_Vector_const_iterator<std::_Vector_val<WeaponInfo,std::allocator<WeaponInfo> > > >, COMDAT
; _this$ = ecx

; 1315 : 		pointer _Ucopy(_Iter _First, _Iter _Last, pointer _Ptr)

  00000	55		 push	 ebp
  00001	8b ec		 mov	 ebp, esp

; 1316 : 		{	// copy initializing [_First, _Last), using allocator
; 1317 : 		return (_Uninitialized_copy(_First, _Last,
; 1318 : 			_Ptr, this->_Alval));

  00003	ff 75 10	 push	 DWORD PTR __Cat$529731[ebp]
  00006	83 c1 0c	 add	 ecx, 12			; 0000000cH
  00009	51		 push	 ecx
  0000a	ff 75 10	 push	 DWORD PTR __Ptr$[ebp]
  0000d	ff 75 0c	 push	 DWORD PTR __Last$[ebp]
  00010	ff 75 08	 push	 DWORD PTR __First$[ebp]
  00013	e8 00 00 00 00	 call	 ??$_Uninit_copy@V?$_Vector_const_iterator@V?$_Vector_val@UWeaponInfo@@V?$allocator@UWeaponInfo@@@std@@@std@@@std@@PAUWeaponInfo@@V?$allocator@UWeaponInfo@@@2@@std@@YAPAUWeaponInfo@@V?$_Vector_const_iterator@V?$_Vector_val@UWeaponInfo@@V?$allocator@UWeaponInfo@@@std@@@std@@@0@0PAU1@AAV?$allocator@UWeaponInfo@@@0@U_Nonscalar_ptr_iterator_tag@0@@Z ; std::_Uninit_copy<std::_Vector_const_iterator<std::_Vector_val<WeaponInfo,std::allocator<WeaponInfo> > >,WeaponInfo *,std::allocator<WeaponInfo> >
  00018	83 c4 14	 add	 esp, 20			; 00000014H

; 1319 : 		}

  0001b	5d		 pop	 ebp
  0001c	c2 0c 00	 ret	 12			; 0000000cH
??$_Ucopy@V?$_Vector_const_iterator@V?$_Vector_val@UWeaponInfo@@V?$allocator@UWeaponInfo@@@std@@@std@@@std@@@?$vector@UWeaponInfo@@V?$allocator@UWeaponInfo@@@std@@@std@@IAEPAUWeaponInfo@@V?$_Vector_const_iterator@V?$_Vector_val@UWeaponInfo@@V?$allocator@UWeaponInfo@@@std@@@std@@@1@0PAU2@@Z ENDP ; std::vector<WeaponInfo,std::allocator<WeaponInfo> >::_Ucopy<std::_Vector_const_iterator<std::_Vector_val<WeaponInfo,std::allocator<WeaponInfo> > > >
_TEXT	ENDS
PUBLIC	?_Tidy@?$vector@UForceInfo@@V?$allocator@UForceInfo@@@std@@@std@@IAEXXZ ; std::vector<ForceInfo,std::allocator<ForceInfo> >::_Tidy
EXTRN	__imp_?_Orphan_all@_Container_base0@std@@QAEXXZ:PROC
; Function compile flags: /Ogsp
;	COMDAT ?_Tidy@?$vector@UForceInfo@@V?$allocator@UForceInfo@@@std@@@std@@IAEXXZ
_TEXT	SEGMENT
?_Tidy@?$vector@UForceInfo@@V?$allocator@UForceInfo@@@std@@@std@@IAEXXZ PROC ; std::vector<ForceInfo,std::allocator<ForceInfo> >::_Tidy, COMDAT
; _this$ = ecx

; 1301 : 		{	// free all storage

  00000	56		 push	 esi
  00001	8b f1		 mov	 esi, ecx

; 1302 : 		if (this->_Myfirst != 0)

  00003	83 3e 00	 cmp	 DWORD PTR [esi], 0
  00006	74 0e		 je	 SHORT $LN21@Tidy

; 1303 : 			{	// something to free, destroy and deallocate it
; 1304 : 			this->_Orphan_all();

  00008	ff 15 00 00 00
	00		 call	 DWORD PTR __imp_?_Orphan_all@_Container_base0@std@@QAEXXZ

; 1305 : 			_Destroy(this->_Myfirst, this->_Mylast);
; 1306 : 			this->_Alval.deallocate(this->_Myfirst,
; 1307 : 				this->_Myend - this->_Myfirst);

  0000e	ff 36		 push	 DWORD PTR [esi]
  00010	e8 00 00 00 00	 call	 ??3@YAXPAX@Z		; operator delete
  00015	59		 pop	 ecx
$LN21@Tidy:

; 1308 : 			}
; 1309 : 		this->_Myfirst = 0;

  00016	83 26 00	 and	 DWORD PTR [esi], 0

; 1310 : 		this->_Mylast = 0;

  00019	83 66 04 00	 and	 DWORD PTR [esi+4], 0

; 1311 : 		this->_Myend = 0;

  0001d	83 66 08 00	 and	 DWORD PTR [esi+8], 0
  00021	5e		 pop	 esi

; 1312 : 		}

  00022	c3		 ret	 0
?_Tidy@?$vector@UForceInfo@@V?$allocator@UForceInfo@@@std@@@std@@IAEXXZ ENDP ; std::vector<ForceInfo,std::allocator<ForceInfo> >::_Tidy
_TEXT	ENDS
PUBLIC	?_Destroy@?$vector@VioHashString@@V?$allocator@VioHashString@@@std@@@std@@IAEXPAVioHashString@@0@Z ; std::vector<ioHashString,std::allocator<ioHashString> >::_Destroy
; Function compile flags: /Ogsp
;	COMDAT ?_Destroy@?$vector@VioHashString@@V?$allocator@VioHashString@@@std@@@std@@IAEXPAVioHashString@@0@Z
_TEXT	SEGMENT
__First$ = 8						; size = 4
__Last$ = 12						; size = 4
?_Destroy@?$vector@VioHashString@@V?$allocator@VioHashString@@@std@@@std@@IAEXPAVioHashString@@0@Z PROC ; std::vector<ioHashString,std::allocator<ioHashString> >::_Destroy, COMDAT
; _this$ = ecx

; 1269 : 		{	// destroy [_First, _Last) using allocator

  00000	55		 push	 ebp
  00001	8b ec		 mov	 ebp, esp
  00003	56		 push	 esi

; 1270 : 		_Destroy_range(_First, _Last, this->_Alval);

  00004	8b 75 08	 mov	 esi, DWORD PTR __First$[ebp]
  00007	eb 0b		 jmp	 SHORT $LN23@Destroy
$LL9@Destroy:
  00009	8b ce		 mov	 ecx, esi
  0000b	ff 15 00 00 00
	00		 call	 DWORD PTR __imp_??1ioHashString@@QAE@XZ
  00011	83 c6 10	 add	 esi, 16			; 00000010H
$LN23@Destroy:
  00014	3b 75 0c	 cmp	 esi, DWORD PTR __Last$[ebp]
  00017	75 f0		 jne	 SHORT $LL9@Destroy
  00019	5e		 pop	 esi

; 1271 : 		}

  0001a	5d		 pop	 ebp
  0001b	c2 08 00	 ret	 8
?_Destroy@?$vector@VioHashString@@V?$allocator@VioHashString@@@std@@@std@@IAEXPAVioHashString@@0@Z ENDP ; std::vector<ioHashString,std::allocator<ioHashString> >::_Destroy
_TEXT	ENDS
PUBLIC	?_Destroy@?$vector@UWeaponInfo@@V?$allocator@UWeaponInfo@@@std@@@std@@IAEXPAUWeaponInfo@@0@Z ; std::vector<WeaponInfo,std::allocator<WeaponInfo> >::_Destroy
; Function compile flags: /Ogsp
;	COMDAT ?_Destroy@?$vector@UWeaponInfo@@V?$allocator@UWeaponInfo@@@std@@@std@@IAEXPAUWeaponInfo@@0@Z
_TEXT	SEGMENT
__First$ = 8						; size = 4
__Last$ = 12						; size = 4
?_Destroy@?$vector@UWeaponInfo@@V?$allocator@UWeaponInfo@@@std@@@std@@IAEXPAUWeaponInfo@@0@Z PROC ; std::vector<WeaponInfo,std::allocator<WeaponInfo> >::_Destroy, COMDAT
; _this$ = ecx

; 1269 : 		{	// destroy [_First, _Last) using allocator

  00000	55		 push	 ebp
  00001	8b ec		 mov	 ebp, esp

; 1270 : 		_Destroy_range(_First, _Last, this->_Alval);

  00003	83 c1 0c	 add	 ecx, 12			; 0000000cH
  00006	51		 push	 ecx
  00007	ff 75 0c	 push	 DWORD PTR __Last$[ebp]
  0000a	ff 75 08	 push	 DWORD PTR __First$[ebp]
  0000d	e8 00 00 00 00	 call	 ??$_Destroy_range@V?$allocator@UWeaponInfo@@@std@@@std@@YAXPAUWeaponInfo@@0AAV?$allocator@UWeaponInfo@@@0@@Z ; std::_Destroy_range<std::allocator<WeaponInfo> >
  00012	83 c4 0c	 add	 esp, 12			; 0000000cH

; 1271 : 		}

  00015	5d		 pop	 ebp
  00016	c2 08 00	 ret	 8
?_Destroy@?$vector@UWeaponInfo@@V?$allocator@UWeaponInfo@@@std@@@std@@IAEXPAUWeaponInfo@@0@Z ENDP ; std::vector<WeaponInfo,std::allocator<WeaponInfo> >::_Destroy
_TEXT	ENDS
PUBLIC	??$_Ucopy@V?$_Vector_const_iterator@V?$_Vector_val@VioHashString@@V?$allocator@VioHashString@@@std@@@std@@@std@@@?$vector@VioHashString@@V?$allocator@VioHashString@@@std@@@std@@IAEPAVioHashString@@V?$_Vector_const_iterator@V?$_Vector_val@VioHashString@@V?$allocator@VioHashString@@@std@@@std@@@1@0PAV2@@Z ; std::vector<ioHashString,std::allocator<ioHashString> >::_Ucopy<std::_Vector_const_iterator<std::_Vector_val<ioHashString,std::allocator<ioHashString> > > >
; Function compile flags: /Ogsp
;	COMDAT ??$_Ucopy@V?$_Vector_const_iterator@V?$_Vector_val@VioHashString@@V?$allocator@VioHashString@@@std@@@std@@@std@@@?$vector@VioHashString@@V?$allocator@VioHashString@@@std@@@std@@IAEPAVioHashString@@V?$_Vector_const_iterator@V?$_Vector_val@VioHashString@@V?$allocator@VioHashString@@@std@@@std@@@1@0PAV2@@Z
_TEXT	SEGMENT
__First$ = 8						; size = 4
__Last$ = 12						; size = 4
__Cat$529905 = 16					; size = 1
__Ptr$ = 16						; size = 4
??$_Ucopy@V?$_Vector_const_iterator@V?$_Vector_val@VioHashString@@V?$allocator@VioHashString@@@std@@@std@@@std@@@?$vector@VioHashString@@V?$allocator@VioHashString@@@std@@@std@@IAEPAVioHashString@@V?$_Vector_const_iterator@V?$_Vector_val@VioHashString@@V?$allocator@VioHashString@@@std@@@std@@@1@0PAV2@@Z PROC ; std::vector<ioHashString,std::allocator<ioHashString> >::_Ucopy<std::_Vector_const_iterator<std::_Vector_val<ioHashString,std::allocator<ioHashString> > > >, COMDAT
; _this$ = ecx

; 1315 : 		pointer _Ucopy(_Iter _First, _Iter _Last, pointer _Ptr)

  00000	55		 push	 ebp
  00001	8b ec		 mov	 ebp, esp

; 1316 : 		{	// copy initializing [_First, _Last), using allocator
; 1317 : 		return (_Uninitialized_copy(_First, _Last,
; 1318 : 			_Ptr, this->_Alval));

  00003	ff 75 10	 push	 DWORD PTR __Cat$529905[ebp]
  00006	83 c1 0c	 add	 ecx, 12			; 0000000cH
  00009	51		 push	 ecx
  0000a	ff 75 10	 push	 DWORD PTR __Ptr$[ebp]
  0000d	ff 75 0c	 push	 DWORD PTR __Last$[ebp]
  00010	ff 75 08	 push	 DWORD PTR __First$[ebp]
  00013	e8 00 00 00 00	 call	 ??$_Uninit_copy@V?$_Vector_const_iterator@V?$_Vector_val@VioHashString@@V?$allocator@VioHashString@@@std@@@std@@@std@@PAVioHashString@@V?$allocator@VioHashString@@@2@@std@@YAPAVioHashString@@V?$_Vector_const_iterator@V?$_Vector_val@VioHashString@@V?$allocator@VioHashString@@@std@@@std@@@0@0PAV1@AAV?$allocator@VioHashString@@@0@U_Nonscalar_ptr_iterator_tag@0@@Z ; std::_Uninit_copy<std::_Vector_const_iterator<std::_Vector_val<ioHashString,std::allocator<ioHashString> > >,ioHashString *,std::allocator<ioHashString> >
  00018	83 c4 14	 add	 esp, 20			; 00000014H

; 1319 : 		}

  0001b	5d		 pop	 ebp
  0001c	c2 0c 00	 ret	 12			; 0000000cH
??$_Ucopy@V?$_Vector_const_iterator@V?$_Vector_val@VioHashString@@V?$allocator@VioHashString@@@std@@@std@@@std@@@?$vector@VioHashString@@V?$allocator@VioHashString@@@std@@@std@@IAEPAVioHashString@@V?$_Vector_const_iterator@V?$_Vector_val@VioHashString@@V?$allocator@VioHashString@@@std@@@std@@@1@0PAV2@@Z ENDP ; std::vector<ioHashString,std::allocator<ioHashString> >::_Ucopy<std::_Vector_const_iterator<std::_Vector_val<ioHashString,std::allocator<ioHashString> > > >
_TEXT	ENDS
PUBLIC	?reserve@?$vector@VioHashString@@V?$allocator@VioHashString@@@std@@@std@@QAEXI@Z ; std::vector<ioHashString,std::allocator<ioHashString> >::reserve
;	COMDAT xdata$x
; File c:\program files (x86)\microsoft visual studio 10.0\vc\include\xmemory
xdata$x	SEGMENT
__catchsym$?reserve@?$vector@VioHashString@@V?$allocator@VioHashString@@@std@@@std@@QAEXI@Z$2 DD 040H
	DD	00H
	DD	00H
	DD	FLAT:__catch$?reserve@?$vector@VioHashString@@V?$allocator@VioHashString@@@std@@@std@@QAEXI@Z$0
__unwindtable$?reserve@?$vector@VioHashString@@V?$allocator@VioHashString@@@std@@@std@@QAEXI@Z DD 0ffffffffH
	DD	00H
	DD	0ffffffffH
	DD	00H
__tryblocktable$?reserve@?$vector@VioHashString@@V?$allocator@VioHashString@@@std@@@std@@QAEXI@Z DD 00H
	DD	00H
	DD	01H
	DD	01H
	DD	FLAT:__catchsym$?reserve@?$vector@VioHashString@@V?$allocator@VioHashString@@@std@@@std@@QAEXI@Z$2
__ehfuncinfo$?reserve@?$vector@VioHashString@@V?$allocator@VioHashString@@@std@@@std@@QAEXI@Z DD 019930522H
	DD	02H
	DD	FLAT:__unwindtable$?reserve@?$vector@VioHashString@@V?$allocator@VioHashString@@@std@@@std@@QAEXI@Z
	DD	01H
	DD	FLAT:__tryblocktable$?reserve@?$vector@VioHashString@@V?$allocator@VioHashString@@@std@@@std@@QAEXI@Z
	DD	2 DUP(00H)
	DD	00H
	DD	01H
; Function compile flags: /Ogsp
; File c:\program files (x86)\microsoft visual studio 10.0\vc\include\vector
xdata$x	ENDS
;	COMDAT ?reserve@?$vector@VioHashString@@V?$allocator@VioHashString@@@std@@@std@@QAEXI@Z
_TEXT	SEGMENT
tv300 = -24						; size = 4
__Ptr$524211 = -20					; size = 4
__$EHRec$ = -16						; size = 16
$T530002 = 8						; size = 4
__Count$ = 8						; size = 4
?reserve@?$vector@VioHashString@@V?$allocator@VioHashString@@@std@@@std@@QAEXI@Z PROC ; std::vector<ioHashString,std::allocator<ioHashString> >::reserve, COMDAT
; _this$ = ecx

; 746  : 		{	// determine new minimum length of allocated storage

  00000	6a 0c		 push	 12			; 0000000cH
  00002	b8 00 00 00 00	 mov	 eax, __ehhandler$?reserve@?$vector@VioHashString@@V?$allocator@VioHashString@@@std@@@std@@QAEXI@Z
  00007	e8 00 00 00 00	 call	 __EH_prolog3_catch
  0000c	8b f1		 mov	 esi, ecx

; 747  : 		if (max_size() < _Count)

  0000e	8b 5d 08	 mov	 ebx, DWORD PTR __Count$[ebp]
  00011	81 fb ff ff ff
	0f		 cmp	 ebx, 268435455		; 0fffffffH
  00017	76 0b		 jbe	 SHORT $LN5@reserve

; 748  : 			_Xlen();	// result too long

  00019	68 00 00 00 00	 push	 OFFSET ??_C@_0BD@OLBABOEK@vector?$DMT?$DO?5too?5long?$AA@
  0001e	ff 15 00 00 00
	00		 call	 DWORD PTR __imp_?_Xlength_error@std@@YAXPBD@Z
$LN59@reserve:
$LN5@reserve:

; 749  : 		else if (capacity() < _Count)

  00024	8b 46 08	 mov	 eax, DWORD PTR [esi+8]
  00027	2b 06		 sub	 eax, DWORD PTR [esi]
  00029	c1 f8 04	 sar	 eax, 4
  0002c	3b c3		 cmp	 eax, ebx
  0002e	73 7a		 jae	 SHORT $LN3@reserve

; 750  : 			{	// not enough room, reallocate
; 751  : 			pointer _Ptr = this->_Alval.allocate(_Count);

  00030	6a 00		 push	 0
  00032	53		 push	 ebx
  00033	e8 00 00 00 00	 call	 ??$_Allocate@VioHashString@@@std@@YAPAVioHashString@@IPAV1@@Z ; std::_Allocate<ioHashString>

; 752  : 
; 753  : 			_TRY_BEGIN
; 754  : 			_Umove(this->_Myfirst, this->_Mylast, _Ptr);

  00038	8b 0e		 mov	 ecx, DWORD PTR [esi]
  0003a	83 65 fc 00	 and	 DWORD PTR __$EHRec$[ebp+12], 0
  0003e	8d 56 0c	 lea	 edx, DWORD PTR [esi+12]
  00041	52		 push	 edx
  00042	89 45 ec	 mov	 DWORD PTR __Ptr$524211[ebp], eax
  00045	ff 75 ec	 push	 DWORD PTR __Ptr$524211[ebp]
  00048	8b 46 04	 mov	 eax, DWORD PTR [esi+4]
  0004b	50		 push	 eax
  0004c	51		 push	 ecx
  0004d	e8 00 00 00 00	 call	 ??$_Uninitialized_move@PAVioHashString@@PAV1@V?$allocator@VioHashString@@@std@@@std@@YAPAVioHashString@@PAV1@00AAV?$allocator@VioHashString@@@0@@Z ; std::_Uninitialized_move<ioHashString *,ioHashString *,std::allocator<ioHashString> >

; 758  : 			_CATCH_END
; 759  : 
; 760  : 			size_type _Size = size();

  00052	8b 4e 04	 mov	 ecx, DWORD PTR [esi+4]
  00055	8b 06		 mov	 eax, DWORD PTR [esi]
  00057	83 4d fc ff	 or	 DWORD PTR __$EHRec$[ebp+12], -1
  0005b	8b f9		 mov	 edi, ecx
  0005d	83 c4 18	 add	 esp, 24			; 00000018H
  00060	2b f8		 sub	 edi, eax
  00062	89 4d e8	 mov	 DWORD PTR tv300[ebp], ecx
  00065	85 c0		 test	 eax, eax
  00067	74 24		 je	 SHORT $LN51@reserve

; 761  : 			if (this->_Myfirst != 0)
; 762  : 				{	// destroy and deallocate old array
; 763  : 				_Destroy(this->_Myfirst, this->_Mylast);

  00069	89 45 08	 mov	 DWORD PTR $T530002[ebp], eax
  0006c	3b c1		 cmp	 eax, ecx
  0006e	74 15		 je	 SHORT $LN37@reserve
$LN39@reserve:
  00070	8b 4d 08	 mov	 ecx, DWORD PTR $T530002[ebp]
  00073	ff 15 00 00 00
	00		 call	 DWORD PTR __imp_??1ioHashString@@QAE@XZ
  00079	83 45 08 10	 add	 DWORD PTR $T530002[ebp], 16 ; 00000010H
  0007d	8b 45 08	 mov	 eax, DWORD PTR $T530002[ebp]
  00080	3b 45 e8	 cmp	 eax, DWORD PTR tv300[ebp]
  00083	75 eb		 jne	 SHORT $LN39@reserve
$LN37@reserve:

; 764  : 				this->_Alval.deallocate(this->_Myfirst,
; 765  : 					this->_Myend - this->_Myfirst);

  00085	ff 36		 push	 DWORD PTR [esi]
  00087	e8 00 00 00 00	 call	 ??3@YAXPAX@Z		; operator delete
  0008c	59		 pop	 ecx
$LN51@reserve:

; 766  : 				}
; 767  : 
; 768  : 			this->_Orphan_all();

  0008d	8b ce		 mov	 ecx, esi
  0008f	ff 15 00 00 00
	00		 call	 DWORD PTR __imp_?_Orphan_all@_Container_base0@std@@QAEXXZ

; 769  : 			this->_Myend = _Ptr + _Count;

  00095	8b 45 ec	 mov	 eax, DWORD PTR __Ptr$524211[ebp]
  00098	c1 e3 04	 shl	 ebx, 4
  0009b	03 d8		 add	 ebx, eax

; 770  : 			this->_Mylast = _Ptr + _Size;

  0009d	83 e7 f0	 and	 edi, -16		; fffffff0H
  000a0	03 f8		 add	 edi, eax
  000a2	89 5e 08	 mov	 DWORD PTR [esi+8], ebx
  000a5	89 7e 04	 mov	 DWORD PTR [esi+4], edi

; 771  : 			this->_Myfirst = _Ptr;

  000a8	89 06		 mov	 DWORD PTR [esi], eax
$LN3@reserve:

; 772  : 			}
; 773  : 		}

  000aa	e8 00 00 00 00	 call	 __EH_epilog3
  000af	c2 04 00	 ret	 4
__catch$?reserve@?$vector@VioHashString@@V?$allocator@VioHashString@@@std@@@std@@QAEXI@Z$0:

; 755  : 			_CATCH_ALL
; 756  : 			this->_Alval.deallocate(_Ptr, _Count);

  000b2	ff 75 ec	 push	 DWORD PTR __Ptr$524211[ebp]
  000b5	e8 00 00 00 00	 call	 ??3@YAXPAX@Z		; operator delete
  000ba	59		 pop	 ecx

; 757  : 			_RERAISE;

  000bb	6a 00		 push	 0
  000bd	6a 00		 push	 0
  000bf	e8 00 00 00 00	 call	 __CxxThrowException@8
$LN60@reserve:
$LN58@reserve:
  000c4	cc		 int	 3
_TEXT	ENDS
;	COMDAT text$x
text$x	SEGMENT
__ehhandler$?reserve@?$vector@VioHashString@@V?$allocator@VioHashString@@@std@@@std@@QAEXI@Z:
  00000	8b 54 24 08	 mov	 edx, DWORD PTR [esp+8]
  00004	8d 42 0c	 lea	 eax, DWORD PTR [edx+12]
  00007	8b 4a e4	 mov	 ecx, DWORD PTR [edx-28]
  0000a	33 c8		 xor	 ecx, eax
  0000c	e8 00 00 00 00	 call	 @__security_check_cookie@4
  00011	b8 00 00 00 00	 mov	 eax, OFFSET __ehfuncinfo$?reserve@?$vector@VioHashString@@V?$allocator@VioHashString@@@std@@@std@@QAEXI@Z
  00016	e9 00 00 00 00	 jmp	 ___CxxFrameHandler3
text$x	ENDS
?reserve@?$vector@VioHashString@@V?$allocator@VioHashString@@@std@@@std@@QAEXI@Z ENDP ; std::vector<ioHashString,std::allocator<ioHashString> >::reserve
PUBLIC	??0?$vector@UForceInfo@@V?$allocator@UForceInfo@@@std@@@std@@QAE@ABV01@@Z ; std::vector<ForceInfo,std::allocator<ForceInfo> >::vector<ForceInfo,std::allocator<ForceInfo> >
;	COMDAT xdata$x
; File c:\program files (x86)\microsoft visual studio 10.0\vc\include\xutility
xdata$x	SEGMENT
__catchsym$??0?$vector@UForceInfo@@V?$allocator@UForceInfo@@@std@@@std@@QAE@ABV01@@Z$2 DD 040H
	DD	00H
	DD	00H
	DD	FLAT:__catch$??0?$vector@UForceInfo@@V?$allocator@UForceInfo@@@std@@@std@@QAE@ABV01@@Z$0
__unwindtable$??0?$vector@UForceInfo@@V?$allocator@UForceInfo@@@std@@@std@@QAE@ABV01@@Z DD 0ffffffffH
	DD	00H
	DD	0ffffffffH
	DD	00H
__tryblocktable$??0?$vector@UForceInfo@@V?$allocator@UForceInfo@@@std@@@std@@QAE@ABV01@@Z DD 00H
	DD	00H
	DD	01H
	DD	01H
	DD	FLAT:__catchsym$??0?$vector@UForceInfo@@V?$allocator@UForceInfo@@@std@@@std@@QAE@ABV01@@Z$2
__ehfuncinfo$??0?$vector@UForceInfo@@V?$allocator@UForceInfo@@@std@@@std@@QAE@ABV01@@Z DD 019930522H
	DD	02H
	DD	FLAT:__unwindtable$??0?$vector@UForceInfo@@V?$allocator@UForceInfo@@@std@@@std@@QAE@ABV01@@Z
	DD	01H
	DD	FLAT:__tryblocktable$??0?$vector@UForceInfo@@V?$allocator@UForceInfo@@@std@@@std@@QAE@ABV01@@Z
	DD	2 DUP(00H)
	DD	00H
	DD	01H
; Function compile flags: /Ogsp
; File c:\program files (x86)\microsoft visual studio 10.0\vc\include\vector
xdata$x	ENDS
;	COMDAT ??0?$vector@UForceInfo@@V?$allocator@UForceInfo@@@std@@@std@@QAE@ABV01@@Z
_TEXT	SEGMENT
_this$ = -20						; size = 4
__$EHRec$ = -16						; size = 16
__Cat$530145 = 8					; size = 1
__Right$ = 8						; size = 4
??0?$vector@UForceInfo@@V?$allocator@UForceInfo@@@std@@@std@@QAE@ABV01@@Z PROC ; std::vector<ForceInfo,std::allocator<ForceInfo> >::vector<ForceInfo,std::allocator<ForceInfo> >, COMDAT
; _this$ = ecx

; 535  : 		{	// construct by copying _Right

  00000	6a 08		 push	 8
  00002	b8 00 00 00 00	 mov	 eax, __ehhandler$??0?$vector@UForceInfo@@V?$allocator@UForceInfo@@@std@@@std@@QAE@ABV01@@Z
  00007	e8 00 00 00 00	 call	 __EH_prolog3_catch
  0000c	8b f1		 mov	 esi, ecx
  0000e	89 75 ec	 mov	 DWORD PTR _this$[ebp], esi

; 536  : 		if (_Buy(_Right.size()))

  00011	8b 7d 08	 mov	 edi, DWORD PTR __Right$[ebp]
  00014	33 db		 xor	 ebx, ebx
  00016	89 1e		 mov	 DWORD PTR [esi], ebx
  00018	89 5e 04	 mov	 DWORD PTR [esi+4], ebx
  0001b	89 5e 08	 mov	 DWORD PTR [esi+8], ebx
  0001e	8b 47 04	 mov	 eax, DWORD PTR [edi+4]
  00021	2b 07		 sub	 eax, DWORD PTR [edi]
  00023	6a 0c		 push	 12			; 0000000cH
  00025	59		 pop	 ecx
  00026	99		 cdq
  00027	f7 f9		 idiv	 ecx
  00029	8b ce		 mov	 ecx, esi
  0002b	50		 push	 eax
  0002c	e8 00 00 00 00	 call	 ?_Buy@?$vector@UForceInfo@@V?$allocator@UForceInfo@@@std@@@std@@IAE_NI@Z ; std::vector<ForceInfo,std::allocator<ForceInfo> >::_Buy
  00031	84 c0		 test	 al, al
  00033	74 1f		 je	 SHORT $LN7@vector

; 537  : 			_TRY_BEGIN
; 538  : 			this->_Mylast = _Ucopy(_Right.begin(), _Right.end(),
; 539  : 				this->_Myfirst);

  00035	ff 75 08	 push	 DWORD PTR __Cat$530145[ebp]
  00038	8b 0e		 mov	 ecx, DWORD PTR [esi]
  0003a	8b 47 04	 mov	 eax, DWORD PTR [edi+4]
  0003d	8b 3f		 mov	 edi, DWORD PTR [edi]
  0003f	8d 56 0c	 lea	 edx, DWORD PTR [esi+12]
  00042	52		 push	 edx
  00043	51		 push	 ecx
  00044	50		 push	 eax
  00045	57		 push	 edi
  00046	89 5d fc	 mov	 DWORD PTR __$EHRec$[ebp+12], ebx
  00049	e8 00 00 00 00	 call	 ??$_Uninit_copy@V?$_Vector_const_iterator@V?$_Vector_val@UForceInfo@@V?$allocator@UForceInfo@@@std@@@std@@@std@@PAUForceInfo@@V?$allocator@UForceInfo@@@2@@std@@YAPAUForceInfo@@V?$_Vector_const_iterator@V?$_Vector_val@UForceInfo@@V?$allocator@UForceInfo@@@std@@@std@@@0@0PAU1@AAV?$allocator@UForceInfo@@@0@U_Nonscalar_ptr_iterator_tag@0@@Z ; std::_Uninit_copy<std::_Vector_const_iterator<std::_Vector_val<ForceInfo,std::allocator<ForceInfo> > >,ForceInfo *,std::allocator<ForceInfo> >
  0004e	83 c4 14	 add	 esp, 20			; 00000014H
  00051	89 46 04	 mov	 DWORD PTR [esi+4], eax
$LN7@vector:

; 543  : 			_CATCH_END
; 544  : 		}

  00054	8b c6		 mov	 eax, esi
  00056	e8 00 00 00 00	 call	 __EH_epilog3
  0005b	c2 04 00	 ret	 4
__catch$??0?$vector@UForceInfo@@V?$allocator@UForceInfo@@@std@@@std@@QAE@ABV01@@Z$0:

; 540  : 			_CATCH_ALL
; 541  : 			_Tidy();

  0005e	8b 4d ec	 mov	 ecx, DWORD PTR _this$[ebp]
  00061	e8 00 00 00 00	 call	 ?_Tidy@?$vector@UForceInfo@@V?$allocator@UForceInfo@@@std@@@std@@IAEXXZ ; std::vector<ForceInfo,std::allocator<ForceInfo> >::_Tidy

; 542  : 			_RERAISE;

  00066	33 db		 xor	 ebx, ebx
  00068	53		 push	 ebx
  00069	53		 push	 ebx
  0006a	e8 00 00 00 00	 call	 __CxxThrowException@8
$LN38@vector:
$LN37@vector:
  0006f	cc		 int	 3
_TEXT	ENDS
;	COMDAT text$x
text$x	SEGMENT
__ehhandler$??0?$vector@UForceInfo@@V?$allocator@UForceInfo@@@std@@@std@@QAE@ABV01@@Z:
  00000	8b 54 24 08	 mov	 edx, DWORD PTR [esp+8]
  00004	8d 42 0c	 lea	 eax, DWORD PTR [edx+12]
  00007	8b 4a e8	 mov	 ecx, DWORD PTR [edx-24]
  0000a	33 c8		 xor	 ecx, eax
  0000c	e8 00 00 00 00	 call	 @__security_check_cookie@4
  00011	b8 00 00 00 00	 mov	 eax, OFFSET __ehfuncinfo$??0?$vector@UForceInfo@@V?$allocator@UForceInfo@@@std@@@std@@QAE@ABV01@@Z
  00016	e9 00 00 00 00	 jmp	 ___CxxFrameHandler3
text$x	ENDS
??0?$vector@UForceInfo@@V?$allocator@UForceInfo@@@std@@@std@@QAE@ABV01@@Z ENDP ; std::vector<ForceInfo,std::allocator<ForceInfo> >::vector<ForceInfo,std::allocator<ForceInfo> >
PUBLIC	?_Reserve@?$vector@VioHashString@@V?$allocator@VioHashString@@@std@@@std@@IAEXI@Z ; std::vector<ioHashString,std::allocator<ioHashString> >::_Reserve
; Function compile flags: /Ogsp
;	COMDAT ?_Reserve@?$vector@VioHashString@@V?$allocator@VioHashString@@@std@@@std@@IAEXI@Z
_TEXT	SEGMENT
__Count$ = 8						; size = 4
?_Reserve@?$vector@VioHashString@@V?$allocator@VioHashString@@@std@@@std@@IAEXI@Z PROC ; std::vector<ioHashString,std::allocator<ioHashString> >::_Reserve, COMDAT
; _this$ = ecx

; 1290 : 		{	// ensure room for _Count new elements, grow exponentially

  00000	55		 push	 ebp
  00001	8b ec		 mov	 ebp, esp
  00003	56		 push	 esi
  00004	8b f1		 mov	 esi, ecx

; 1291 : 		size_type _Size = size();

  00006	8b 0e		 mov	 ecx, DWORD PTR [esi]
  00008	8b 46 04	 mov	 eax, DWORD PTR [esi+4]
  0000b	2b c1		 sub	 eax, ecx

; 1292 : 		if (max_size() - _Count < _Size)

  0000d	ba ff ff ff 0f	 mov	 edx, 268435455		; 0fffffffH
  00012	2b 55 08	 sub	 edx, DWORD PTR __Count$[ebp]
  00015	c1 f8 04	 sar	 eax, 4
  00018	3b d0		 cmp	 edx, eax
  0001a	73 0b		 jae	 SHORT $LN4@Reserve

; 1293 : 			_Xlen();

  0001c	68 00 00 00 00	 push	 OFFSET ??_C@_0BD@OLBABOEK@vector?$DMT?$DO?5too?5long?$AA@
  00021	ff 15 00 00 00
	00		 call	 DWORD PTR __imp_?_Xlength_error@std@@YAXPBD@Z
$LN21@Reserve:
$LN4@Reserve:

; 1294 : 		else if ((_Size += _Count) <= capacity())

  00027	8b 56 08	 mov	 edx, DWORD PTR [esi+8]
  0002a	03 45 08	 add	 eax, DWORD PTR __Count$[ebp]
  0002d	2b d1		 sub	 edx, ecx
  0002f	c1 fa 04	 sar	 edx, 4
  00032	3b c2		 cmp	 eax, edx
  00034	76 10		 jbe	 SHORT $LN1@Reserve

; 1295 : 			;
; 1296 : 		else
; 1297 : 			reserve(_Grow_to(_Size));

  00036	50		 push	 eax
  00037	8b ce		 mov	 ecx, esi
  00039	e8 00 00 00 00	 call	 ?_Grow_to@?$vector@VioHashString@@V?$allocator@VioHashString@@@std@@@std@@IBEII@Z ; std::vector<ioHashString,std::allocator<ioHashString> >::_Grow_to
  0003e	50		 push	 eax
  0003f	8b ce		 mov	 ecx, esi
  00041	e8 00 00 00 00	 call	 ?reserve@?$vector@VioHashString@@V?$allocator@VioHashString@@@std@@@std@@QAEXI@Z ; std::vector<ioHashString,std::allocator<ioHashString> >::reserve
$LN1@Reserve:
  00046	5e		 pop	 esi

; 1298 : 		}

  00047	5d		 pop	 ebp
  00048	c2 04 00	 ret	 4
$LN20@Reserve:
?_Reserve@?$vector@VioHashString@@V?$allocator@VioHashString@@@std@@@std@@IAEXI@Z ENDP ; std::vector<ioHashString,std::allocator<ioHashString> >::_Reserve
_TEXT	ENDS
PUBLIC	??1?$vector@UForceInfo@@V?$allocator@UForceInfo@@@std@@@std@@QAE@XZ ; std::vector<ForceInfo,std::allocator<ForceInfo> >::~vector<ForceInfo,std::allocator<ForceInfo> >
; Function compile flags: /Ogsp
;	COMDAT ??1?$vector@UForceInfo@@V?$allocator@UForceInfo@@@std@@@std@@QAE@XZ
_TEXT	SEGMENT
??1?$vector@UForceInfo@@V?$allocator@UForceInfo@@@std@@@std@@QAE@XZ PROC ; std::vector<ForceInfo,std::allocator<ForceInfo> >::~vector<ForceInfo,std::allocator<ForceInfo> >, COMDAT
; _this$ = ecx

; 705  : 		_Tidy();

  00000	e9 00 00 00 00	 jmp	 ?_Tidy@?$vector@UForceInfo@@V?$allocator@UForceInfo@@@std@@@std@@IAEXXZ ; std::vector<ForceInfo,std::allocator<ForceInfo> >::_Tidy
??1?$vector@UForceInfo@@V?$allocator@UForceInfo@@@std@@@std@@QAE@XZ ENDP ; std::vector<ForceInfo,std::allocator<ForceInfo> >::~vector<ForceInfo,std::allocator<ForceInfo> >
_TEXT	ENDS
PUBLIC	?erase@?$vector@VioHashString@@V?$allocator@VioHashString@@@std@@@std@@QAE?AV?$_Vector_iterator@V?$_Vector_val@VioHashString@@V?$allocator@VioHashString@@@std@@@std@@@2@V?$_Vector_const_iterator@V?$_Vector_val@VioHashString@@V?$allocator@VioHashString@@@std@@@std@@@2@0@Z ; std::vector<ioHashString,std::allocator<ioHashString> >::erase
; Function compile flags: /Ogsp
;	COMDAT ?erase@?$vector@VioHashString@@V?$allocator@VioHashString@@@std@@@std@@QAE?AV?$_Vector_iterator@V?$_Vector_val@VioHashString@@V?$allocator@VioHashString@@@std@@@std@@@2@V?$_Vector_const_iterator@V?$_Vector_val@VioHashString@@V?$allocator@VioHashString@@@std@@@std@@@2@0@Z
_TEXT	SEGMENT
$T530329 = -4						; size = 4
___$ReturnUdt$ = 8					; size = 4
__First_arg$ = 12					; size = 4
__Cat$530273 = 16					; size = 1
__Last_arg$ = 16					; size = 4
?erase@?$vector@VioHashString@@V?$allocator@VioHashString@@@std@@@std@@QAE?AV?$_Vector_iterator@V?$_Vector_val@VioHashString@@V?$allocator@VioHashString@@@std@@@std@@@2@V?$_Vector_const_iterator@V?$_Vector_val@VioHashString@@V?$allocator@VioHashString@@@std@@@std@@@2@0@Z PROC ; std::vector<ioHashString,std::allocator<ioHashString> >::erase, COMDAT
; _this$ = ecx

; 1190 : 		{	// erase [_First, _Last)

  00000	55		 push	 ebp
  00001	8b ec		 mov	 ebp, esp
  00003	51		 push	 ecx

; 1191 : 		iterator _First = _Make_iter(_First_arg);

  00004	8b 45 08	 mov	 eax, DWORD PTR ___$ReturnUdt$[ebp]
  00007	56		 push	 esi
  00008	8b f1		 mov	 esi, ecx
  0000a	8b 4d 0c	 mov	 ecx, DWORD PTR __First_arg$[ebp]
  0000d	89 08		 mov	 DWORD PTR [eax], ecx

; 1192 : 		iterator _Last = _Make_iter(_Last_arg);
; 1193 : 
; 1194 : 		if (_First != _Last)

  0000f	3b 4d 10	 cmp	 ecx, DWORD PTR __Last_arg$[ebp]
  00012	74 38		 je	 SHORT $LN1@erase

; 1195 : 			{	// worth doing, copy down over hole
; 1196 :  #if _ITERATOR_DEBUG_LEVEL == 2
; 1197 : 			if (_Last < _First || _VICONT(_First) != this
; 1198 : 				|| _VIPTR(_First) < this->_Myfirst
; 1199 : 				|| this->_Mylast < _VIPTR(_Last))
; 1200 : 				_DEBUG_ERROR("vector erase iterator outside range");
; 1201 : 			pointer _Ptr = _Move(_VIPTR(_Last), this->_Mylast,
; 1202 : 				_VIPTR(_First));
; 1203 : 			_Orphan_range(_VIPTR(_First), this->_Mylast);
; 1204 : 
; 1205 :  #else /* _ITERATOR_DEBUG_LEVEL == 2 */
; 1206 : 			pointer _Ptr = _Move(_VIPTR(_Last), this->_Mylast,
; 1207 : 				_VIPTR(_First));

  00014	8b 46 04	 mov	 eax, DWORD PTR [esi+4]
  00017	53		 push	 ebx
  00018	57		 push	 edi
  00019	ff 75 10	 push	 DWORD PTR __Cat$530273[ebp]
  0001c	51		 push	 ecx
  0001d	50		 push	 eax
  0001e	ff 75 10	 push	 DWORD PTR __Last_arg$[ebp]
  00021	e8 00 00 00 00	 call	 ??$_Move@PAVioHashString@@PAV1@@std@@YAPAVioHashString@@PAV1@00U_Nonscalar_ptr_iterator_tag@0@@Z ; std::_Move<ioHashString *,ioHashString *>

; 1208 :  #endif /* _ITERATOR_DEBUG_LEVEL == 2 */
; 1209 : 
; 1210 : 			_Destroy(_Ptr, this->_Mylast);

  00026	8b 7e 04	 mov	 edi, DWORD PTR [esi+4]
  00029	8b d8		 mov	 ebx, eax
  0002b	83 c4 10	 add	 esp, 16			; 00000010H
  0002e	89 5d fc	 mov	 DWORD PTR $T530329[ebp], ebx
  00031	3b df		 cmp	 ebx, edi
  00033	74 12		 je	 SHORT $LN36@erase
$LL52@erase:
  00035	8b 4d fc	 mov	 ecx, DWORD PTR $T530329[ebp]
  00038	ff 15 00 00 00
	00		 call	 DWORD PTR __imp_??1ioHashString@@QAE@XZ
  0003e	83 45 fc 10	 add	 DWORD PTR $T530329[ebp], 16 ; 00000010H
  00042	39 7d fc	 cmp	 DWORD PTR $T530329[ebp], edi
  00045	75 ee		 jne	 SHORT $LL52@erase
$LN36@erase:

; 1211 : 			this->_Mylast = _Ptr;

  00047	5f		 pop	 edi
  00048	89 5e 04	 mov	 DWORD PTR [esi+4], ebx
  0004b	5b		 pop	 ebx
$LN1@erase:

; 1212 : 			}
; 1213 : 		return (_First);

  0004c	8b 45 08	 mov	 eax, DWORD PTR ___$ReturnUdt$[ebp]
  0004f	5e		 pop	 esi

; 1214 : 		}

  00050	c9		 leave
  00051	c2 0c 00	 ret	 12			; 0000000cH
?erase@?$vector@VioHashString@@V?$allocator@VioHashString@@@std@@@std@@QAE?AV?$_Vector_iterator@V?$_Vector_val@VioHashString@@V?$allocator@VioHashString@@@std@@@std@@@2@V?$_Vector_const_iterator@V?$_Vector_val@VioHashString@@V?$allocator@VioHashString@@@std@@@std@@@2@0@Z ENDP ; std::vector<ioHashString,std::allocator<ioHashString> >::erase
_TEXT	ENDS
PUBLIC	?_Tidy@?$vector@VioHashString@@V?$allocator@VioHashString@@@std@@@std@@IAEXXZ ; std::vector<ioHashString,std::allocator<ioHashString> >::_Tidy
; Function compile flags: /Ogsp
;	COMDAT ?_Tidy@?$vector@VioHashString@@V?$allocator@VioHashString@@@std@@@std@@IAEXXZ
_TEXT	SEGMENT
?_Tidy@?$vector@VioHashString@@V?$allocator@VioHashString@@@std@@@std@@IAEXXZ PROC ; std::vector<ioHashString,std::allocator<ioHashString> >::_Tidy, COMDAT
; _this$ = ecx

; 1301 : 		{	// free all storage

  00000	56		 push	 esi
  00001	8b f1		 mov	 esi, ecx

; 1302 : 		if (this->_Myfirst != 0)

  00003	83 3e 00	 cmp	 DWORD PTR [esi], 0
  00006	74 28		 je	 SHORT $LN24@Tidy@2

; 1303 : 			{	// something to free, destroy and deallocate it
; 1304 : 			this->_Orphan_all();

  00008	53		 push	 ebx
  00009	57		 push	 edi
  0000a	ff 15 00 00 00
	00		 call	 DWORD PTR __imp_?_Orphan_all@_Container_base0@std@@QAEXXZ

; 1305 : 			_Destroy(this->_Myfirst, this->_Mylast);

  00010	8b 5e 04	 mov	 ebx, DWORD PTR [esi+4]
  00013	8b 3e		 mov	 edi, DWORD PTR [esi]
  00015	eb 0b		 jmp	 SHORT $LN28@Tidy@2
$LL12@Tidy@2:
  00017	8b cf		 mov	 ecx, edi
  00019	ff 15 00 00 00
	00		 call	 DWORD PTR __imp_??1ioHashString@@QAE@XZ
  0001f	83 c7 10	 add	 edi, 16			; 00000010H
$LN28@Tidy@2:
  00022	3b fb		 cmp	 edi, ebx
  00024	75 f1		 jne	 SHORT $LL12@Tidy@2

; 1306 : 			this->_Alval.deallocate(this->_Myfirst,
; 1307 : 				this->_Myend - this->_Myfirst);

  00026	ff 36		 push	 DWORD PTR [esi]
  00028	e8 00 00 00 00	 call	 ??3@YAXPAX@Z		; operator delete
  0002d	59		 pop	 ecx
  0002e	5f		 pop	 edi
  0002f	5b		 pop	 ebx
$LN24@Tidy@2:

; 1308 : 			}
; 1309 : 		this->_Myfirst = 0;

  00030	33 c0		 xor	 eax, eax
  00032	89 06		 mov	 DWORD PTR [esi], eax

; 1310 : 		this->_Mylast = 0;

  00034	89 46 04	 mov	 DWORD PTR [esi+4], eax

; 1311 : 		this->_Myend = 0;

  00037	89 46 08	 mov	 DWORD PTR [esi+8], eax
  0003a	5e		 pop	 esi

; 1312 : 		}

  0003b	c3		 ret	 0
?_Tidy@?$vector@VioHashString@@V?$allocator@VioHashString@@@std@@@std@@IAEXXZ ENDP ; std::vector<ioHashString,std::allocator<ioHashString> >::_Tidy
_TEXT	ENDS
PUBLIC	?_Tidy@?$vector@UWeaponInfo@@V?$allocator@UWeaponInfo@@@std@@@std@@IAEXXZ ; std::vector<WeaponInfo,std::allocator<WeaponInfo> >::_Tidy
; Function compile flags: /Ogsp
;	COMDAT ?_Tidy@?$vector@UWeaponInfo@@V?$allocator@UWeaponInfo@@@std@@@std@@IAEXXZ
_TEXT	SEGMENT
?_Tidy@?$vector@UWeaponInfo@@V?$allocator@UWeaponInfo@@@std@@@std@@IAEXXZ PROC ; std::vector<WeaponInfo,std::allocator<WeaponInfo> >::_Tidy, COMDAT
; _this$ = ecx

; 1301 : 		{	// free all storage

  00000	56		 push	 esi
  00001	8b f1		 mov	 esi, ecx

; 1302 : 		if (this->_Myfirst != 0)

  00003	83 3e 00	 cmp	 DWORD PTR [esi], 0
  00006	74 1e		 je	 SHORT $LN6@Tidy@3

; 1303 : 			{	// something to free, destroy and deallocate it
; 1304 : 			this->_Orphan_all();

  00008	ff 15 00 00 00
	00		 call	 DWORD PTR __imp_?_Orphan_all@_Container_base0@std@@QAEXXZ

; 1305 : 			_Destroy(this->_Myfirst, this->_Mylast);

  0000e	8d 46 0c	 lea	 eax, DWORD PTR [esi+12]
  00011	50		 push	 eax
  00012	ff 76 04	 push	 DWORD PTR [esi+4]
  00015	ff 36		 push	 DWORD PTR [esi]
  00017	e8 00 00 00 00	 call	 ??$_Destroy_range@V?$allocator@UWeaponInfo@@@std@@@std@@YAXPAUWeaponInfo@@0AAV?$allocator@UWeaponInfo@@@0@@Z ; std::_Destroy_range<std::allocator<WeaponInfo> >

; 1306 : 			this->_Alval.deallocate(this->_Myfirst,
; 1307 : 				this->_Myend - this->_Myfirst);

  0001c	ff 36		 push	 DWORD PTR [esi]
  0001e	e8 00 00 00 00	 call	 ??3@YAXPAX@Z		; operator delete
  00023	83 c4 10	 add	 esp, 16			; 00000010H
$LN6@Tidy@3:

; 1308 : 			}
; 1309 : 		this->_Myfirst = 0;

  00026	83 26 00	 and	 DWORD PTR [esi], 0

; 1310 : 		this->_Mylast = 0;

  00029	83 66 04 00	 and	 DWORD PTR [esi+4], 0

; 1311 : 		this->_Myend = 0;

  0002d	83 66 08 00	 and	 DWORD PTR [esi+8], 0
  00031	5e		 pop	 esi

; 1312 : 		}

  00032	c3		 ret	 0
?_Tidy@?$vector@UWeaponInfo@@V?$allocator@UWeaponInfo@@@std@@@std@@IAEXXZ ENDP ; std::vector<WeaponInfo,std::allocator<WeaponInfo> >::_Tidy
_TEXT	ENDS
PUBLIC	?push_back@?$vector@VioHashString@@V?$allocator@VioHashString@@@std@@@std@@QAEX$$QAVioHashString@@@Z ; std::vector<ioHashString,std::allocator<ioHashString> >::push_back
; Function compile flags: /Ogsp
;	COMDAT ?push_back@?$vector@VioHashString@@V?$allocator@VioHashString@@@std@@@std@@QAEX$$QAVioHashString@@@Z
_TEXT	SEGMENT
__Val$ = 8						; size = 4
?push_back@?$vector@VioHashString@@V?$allocator@VioHashString@@@std@@@std@@QAEX$$QAVioHashString@@@Z PROC ; std::vector<ioHashString,std::allocator<ioHashString> >::push_back, COMDAT
; _this$ = ecx

; 631  : 		{	// insert element at end

  00000	55		 push	 ebp
  00001	8b ec		 mov	 ebp, esp
  00003	56		 push	 esi
  00004	8b f1		 mov	 esi, ecx

; 632  : 		if (_Inside(_STD addressof(_Val)))

  00006	8b 46 04	 mov	 eax, DWORD PTR [esi+4]
  00009	57		 push	 edi
  0000a	8b 7d 08	 mov	 edi, DWORD PTR __Val$[ebp]
  0000d	3b f8		 cmp	 edi, eax
  0000f	73 1d		 jae	 SHORT $LN4@push_back
  00011	8b 0e		 mov	 ecx, DWORD PTR [esi]
  00013	3b cf		 cmp	 ecx, edi
  00015	77 17		 ja	 SHORT $LN4@push_back

; 633  : 			{	// push back an element
; 634  : 			size_type _Idx = _STD addressof(_Val) - this->_Myfirst;

  00017	2b f9		 sub	 edi, ecx

; 635  : 			if (this->_Mylast == this->_Myend)

  00019	3b 46 08	 cmp	 eax, DWORD PTR [esi+8]
  0001c	75 09		 jne	 SHORT $LN3@push_back

; 636  : 				_Reserve(1);

  0001e	6a 01		 push	 1
  00020	8b ce		 mov	 ecx, esi
  00022	e8 00 00 00 00	 call	 ?_Reserve@?$vector@VioHashString@@V?$allocator@VioHashString@@@std@@@std@@IAEXI@Z ; std::vector<ioHashString,std::allocator<ioHashString> >::_Reserve
$LN3@push_back:

; 637  : 			_Orphan_range(this->_Mylast, this->_Mylast);
; 638  : 			_Cons_val(this->_Alval,
; 639  : 				this->_Mylast,
; 640  : 				_STD forward<_Ty>(this->_Myfirst[_Idx]));

  00027	83 e7 f0	 and	 edi, -16		; fffffff0H
  0002a	03 3e		 add	 edi, DWORD PTR [esi]

; 641  : 			++this->_Mylast;
; 642  : 			}
; 643  : 		else

  0002c	eb 0e		 jmp	 SHORT $LN1@push_back
$LN4@push_back:

; 644  : 			{	// push back a non-element
; 645  : 			if (this->_Mylast == this->_Myend)

  0002e	3b 46 08	 cmp	 eax, DWORD PTR [esi+8]
  00031	75 09		 jne	 SHORT $LN1@push_back

; 646  : 				_Reserve(1);

  00033	6a 01		 push	 1
  00035	8b ce		 mov	 ecx, esi
  00037	e8 00 00 00 00	 call	 ?_Reserve@?$vector@VioHashString@@V?$allocator@VioHashString@@@std@@@std@@IAEXI@Z ; std::vector<ioHashString,std::allocator<ioHashString> >::_Reserve
$LN1@push_back:

; 647  : 			_Orphan_range(this->_Mylast, this->_Mylast);
; 648  : 			_Cons_val(this->_Alval,
; 649  : 				this->_Mylast,
; 650  : 				_STD forward<_Ty>(_Val));

  0003c	57		 push	 edi
  0003d	ff 76 04	 push	 DWORD PTR [esi+4]
  00040	8d 4e 0c	 lea	 ecx, DWORD PTR [esi+12]
  00043	e8 00 00 00 00	 call	 ?construct@?$allocator@VioHashString@@@std@@QAEXPAVioHashString@@$$QAV3@@Z ; std::allocator<ioHashString>::construct

; 651  : 			++this->_Mylast;

  00048	83 46 04 10	 add	 DWORD PTR [esi+4], 16	; 00000010H
  0004c	5f		 pop	 edi
  0004d	5e		 pop	 esi

; 652  : 			}
; 653  : 		}

  0004e	5d		 pop	 ebp
  0004f	c2 04 00	 ret	 4
?push_back@?$vector@VioHashString@@V?$allocator@VioHashString@@@std@@@std@@QAEX$$QAVioHashString@@@Z ENDP ; std::vector<ioHashString,std::allocator<ioHashString> >::push_back
_TEXT	ENDS
PUBLIC	??0?$vector@UWeaponInfo@@V?$allocator@UWeaponInfo@@@std@@@std@@QAE@ABV01@@Z ; std::vector<WeaponInfo,std::allocator<WeaponInfo> >::vector<WeaponInfo,std::allocator<WeaponInfo> >
;	COMDAT xdata$x
; File c:\program files (x86)\microsoft visual studio 10.0\vc\include\xutility
xdata$x	SEGMENT
__catchsym$??0?$vector@UWeaponInfo@@V?$allocator@UWeaponInfo@@@std@@@std@@QAE@ABV01@@Z$2 DD 040H
	DD	00H
	DD	00H
	DD	FLAT:__catch$??0?$vector@UWeaponInfo@@V?$allocator@UWeaponInfo@@@std@@@std@@QAE@ABV01@@Z$0
__unwindtable$??0?$vector@UWeaponInfo@@V?$allocator@UWeaponInfo@@@std@@@std@@QAE@ABV01@@Z DD 0ffffffffH
	DD	00H
	DD	0ffffffffH
	DD	00H
__tryblocktable$??0?$vector@UWeaponInfo@@V?$allocator@UWeaponInfo@@@std@@@std@@QAE@ABV01@@Z DD 00H
	DD	00H
	DD	01H
	DD	01H
	DD	FLAT:__catchsym$??0?$vector@UWeaponInfo@@V?$allocator@UWeaponInfo@@@std@@@std@@QAE@ABV01@@Z$2
__ehfuncinfo$??0?$vector@UWeaponInfo@@V?$allocator@UWeaponInfo@@@std@@@std@@QAE@ABV01@@Z DD 019930522H
	DD	02H
	DD	FLAT:__unwindtable$??0?$vector@UWeaponInfo@@V?$allocator@UWeaponInfo@@@std@@@std@@QAE@ABV01@@Z
	DD	01H
	DD	FLAT:__tryblocktable$??0?$vector@UWeaponInfo@@V?$allocator@UWeaponInfo@@@std@@@std@@QAE@ABV01@@Z
	DD	2 DUP(00H)
	DD	00H
	DD	01H
; Function compile flags: /Ogsp
; File c:\program files (x86)\microsoft visual studio 10.0\vc\include\vector
xdata$x	ENDS
;	COMDAT ??0?$vector@UWeaponInfo@@V?$allocator@UWeaponInfo@@@std@@@std@@QAE@ABV01@@Z
_TEXT	SEGMENT
_this$ = -20						; size = 4
__$EHRec$ = -16						; size = 16
__Cat$530620 = 8					; size = 1
__Right$ = 8						; size = 4
??0?$vector@UWeaponInfo@@V?$allocator@UWeaponInfo@@@std@@@std@@QAE@ABV01@@Z PROC ; std::vector<WeaponInfo,std::allocator<WeaponInfo> >::vector<WeaponInfo,std::allocator<WeaponInfo> >, COMDAT
; _this$ = ecx

; 535  : 		{	// construct by copying _Right

  00000	6a 08		 push	 8
  00002	b8 00 00 00 00	 mov	 eax, __ehhandler$??0?$vector@UWeaponInfo@@V?$allocator@UWeaponInfo@@@std@@@std@@QAE@ABV01@@Z
  00007	e8 00 00 00 00	 call	 __EH_prolog3_catch
  0000c	8b f1		 mov	 esi, ecx
  0000e	89 75 ec	 mov	 DWORD PTR _this$[ebp], esi

; 536  : 		if (_Buy(_Right.size()))

  00011	8b 7d 08	 mov	 edi, DWORD PTR __Right$[ebp]
  00014	33 db		 xor	 ebx, ebx
  00016	89 1e		 mov	 DWORD PTR [esi], ebx
  00018	89 5e 04	 mov	 DWORD PTR [esi+4], ebx
  0001b	89 5e 08	 mov	 DWORD PTR [esi+8], ebx
  0001e	8b 47 04	 mov	 eax, DWORD PTR [edi+4]
  00021	2b 07		 sub	 eax, DWORD PTR [edi]
  00023	6a 28		 push	 40			; 00000028H
  00025	59		 pop	 ecx
  00026	99		 cdq
  00027	f7 f9		 idiv	 ecx
  00029	8b ce		 mov	 ecx, esi
  0002b	50		 push	 eax
  0002c	e8 00 00 00 00	 call	 ?_Buy@?$vector@UWeaponInfo@@V?$allocator@UWeaponInfo@@@std@@@std@@IAE_NI@Z ; std::vector<WeaponInfo,std::allocator<WeaponInfo> >::_Buy
  00031	84 c0		 test	 al, al
  00033	74 1f		 je	 SHORT $LN7@vector@2

; 537  : 			_TRY_BEGIN
; 538  : 			this->_Mylast = _Ucopy(_Right.begin(), _Right.end(),
; 539  : 				this->_Myfirst);

  00035	ff 75 08	 push	 DWORD PTR __Cat$530620[ebp]
  00038	8b 0e		 mov	 ecx, DWORD PTR [esi]
  0003a	8b 47 04	 mov	 eax, DWORD PTR [edi+4]
  0003d	8b 3f		 mov	 edi, DWORD PTR [edi]
  0003f	8d 56 0c	 lea	 edx, DWORD PTR [esi+12]
  00042	52		 push	 edx
  00043	51		 push	 ecx
  00044	50		 push	 eax
  00045	57		 push	 edi
  00046	89 5d fc	 mov	 DWORD PTR __$EHRec$[ebp+12], ebx
  00049	e8 00 00 00 00	 call	 ??$_Uninit_copy@V?$_Vector_const_iterator@V?$_Vector_val@UWeaponInfo@@V?$allocator@UWeaponInfo@@@std@@@std@@@std@@PAUWeaponInfo@@V?$allocator@UWeaponInfo@@@2@@std@@YAPAUWeaponInfo@@V?$_Vector_const_iterator@V?$_Vector_val@UWeaponInfo@@V?$allocator@UWeaponInfo@@@std@@@std@@@0@0PAU1@AAV?$allocator@UWeaponInfo@@@0@U_Nonscalar_ptr_iterator_tag@0@@Z ; std::_Uninit_copy<std::_Vector_const_iterator<std::_Vector_val<WeaponInfo,std::allocator<WeaponInfo> > >,WeaponInfo *,std::allocator<WeaponInfo> >
  0004e	83 c4 14	 add	 esp, 20			; 00000014H
  00051	89 46 04	 mov	 DWORD PTR [esi+4], eax
$LN7@vector@2:

; 543  : 			_CATCH_END
; 544  : 		}

  00054	8b c6		 mov	 eax, esi
  00056	e8 00 00 00 00	 call	 __EH_epilog3
  0005b	c2 04 00	 ret	 4
__catch$??0?$vector@UWeaponInfo@@V?$allocator@UWeaponInfo@@@std@@@std@@QAE@ABV01@@Z$0:

; 540  : 			_CATCH_ALL
; 541  : 			_Tidy();

  0005e	8b 4d ec	 mov	 ecx, DWORD PTR _this$[ebp]
  00061	e8 00 00 00 00	 call	 ?_Tidy@?$vector@UWeaponInfo@@V?$allocator@UWeaponInfo@@@std@@@std@@IAEXXZ ; std::vector<WeaponInfo,std::allocator<WeaponInfo> >::_Tidy

; 542  : 			_RERAISE;

  00066	33 db		 xor	 ebx, ebx
  00068	53		 push	 ebx
  00069	53		 push	 ebx
  0006a	e8 00 00 00 00	 call	 __CxxThrowException@8
$LN38@vector@2:
$LN37@vector@2:
  0006f	cc		 int	 3
_TEXT	ENDS
;	COMDAT text$x
text$x	SEGMENT
__ehhandler$??0?$vector@UWeaponInfo@@V?$allocator@UWeaponInfo@@@std@@@std@@QAE@ABV01@@Z:
  00000	8b 54 24 08	 mov	 edx, DWORD PTR [esp+8]
  00004	8d 42 0c	 lea	 eax, DWORD PTR [edx+12]
  00007	8b 4a e8	 mov	 ecx, DWORD PTR [edx-24]
  0000a	33 c8		 xor	 ecx, eax
  0000c	e8 00 00 00 00	 call	 @__security_check_cookie@4
  00011	b8 00 00 00 00	 mov	 eax, OFFSET __ehfuncinfo$??0?$vector@UWeaponInfo@@V?$allocator@UWeaponInfo@@@std@@@std@@QAE@ABV01@@Z
  00016	e9 00 00 00 00	 jmp	 ___CxxFrameHandler3
text$x	ENDS
??0?$vector@UWeaponInfo@@V?$allocator@UWeaponInfo@@@std@@@std@@QAE@ABV01@@Z ENDP ; std::vector<WeaponInfo,std::allocator<WeaponInfo> >::vector<WeaponInfo,std::allocator<WeaponInfo> >
PUBLIC	??0?$vector@VioHashString@@V?$allocator@VioHashString@@@std@@@std@@QAE@ABV01@@Z ; std::vector<ioHashString,std::allocator<ioHashString> >::vector<ioHashString,std::allocator<ioHashString> >
;	COMDAT xdata$x
; File c:\program files (x86)\microsoft visual studio 10.0\vc\include\xutility
xdata$x	SEGMENT
__catchsym$??0?$vector@VioHashString@@V?$allocator@VioHashString@@@std@@@std@@QAE@ABV01@@Z$2 DD 040H
	DD	00H
	DD	00H
	DD	FLAT:__catch$??0?$vector@VioHashString@@V?$allocator@VioHashString@@@std@@@std@@QAE@ABV01@@Z$0
__unwindtable$??0?$vector@VioHashString@@V?$allocator@VioHashString@@@std@@@std@@QAE@ABV01@@Z DD 0ffffffffH
	DD	00H
	DD	0ffffffffH
	DD	00H
__tryblocktable$??0?$vector@VioHashString@@V?$allocator@VioHashString@@@std@@@std@@QAE@ABV01@@Z DD 00H
	DD	00H
	DD	01H
	DD	01H
	DD	FLAT:__catchsym$??0?$vector@VioHashString@@V?$allocator@VioHashString@@@std@@@std@@QAE@ABV01@@Z$2
__ehfuncinfo$??0?$vector@VioHashString@@V?$allocator@VioHashString@@@std@@@std@@QAE@ABV01@@Z DD 019930522H
	DD	02H
	DD	FLAT:__unwindtable$??0?$vector@VioHashString@@V?$allocator@VioHashString@@@std@@@std@@QAE@ABV01@@Z
	DD	01H
	DD	FLAT:__tryblocktable$??0?$vector@VioHashString@@V?$allocator@VioHashString@@@std@@@std@@QAE@ABV01@@Z
	DD	2 DUP(00H)
	DD	00H
	DD	01H
; Function compile flags: /Ogsp
; File c:\program files (x86)\microsoft visual studio 10.0\vc\include\vector
xdata$x	ENDS
;	COMDAT ??0?$vector@VioHashString@@V?$allocator@VioHashString@@@std@@@std@@QAE@ABV01@@Z
_TEXT	SEGMENT
_this$ = -20						; size = 4
__$EHRec$ = -16						; size = 16
__Cat$530715 = 8					; size = 1
__Right$ = 8						; size = 4
??0?$vector@VioHashString@@V?$allocator@VioHashString@@@std@@@std@@QAE@ABV01@@Z PROC ; std::vector<ioHashString,std::allocator<ioHashString> >::vector<ioHashString,std::allocator<ioHashString> >, COMDAT
; _this$ = ecx

; 535  : 		{	// construct by copying _Right

  00000	6a 08		 push	 8
  00002	b8 00 00 00 00	 mov	 eax, __ehhandler$??0?$vector@VioHashString@@V?$allocator@VioHashString@@@std@@@std@@QAE@ABV01@@Z
  00007	e8 00 00 00 00	 call	 __EH_prolog3_catch
  0000c	8b f1		 mov	 esi, ecx
  0000e	89 75 ec	 mov	 DWORD PTR _this$[ebp], esi

; 536  : 		if (_Buy(_Right.size()))

  00011	8b 7d 08	 mov	 edi, DWORD PTR __Right$[ebp]
  00014	33 db		 xor	 ebx, ebx
  00016	89 1e		 mov	 DWORD PTR [esi], ebx
  00018	89 5e 04	 mov	 DWORD PTR [esi+4], ebx
  0001b	89 5e 08	 mov	 DWORD PTR [esi+8], ebx
  0001e	8b 47 04	 mov	 eax, DWORD PTR [edi+4]
  00021	2b 07		 sub	 eax, DWORD PTR [edi]
  00023	c1 f8 04	 sar	 eax, 4
  00026	50		 push	 eax
  00027	e8 00 00 00 00	 call	 ?_Buy@?$vector@VioHashString@@V?$allocator@VioHashString@@@std@@@std@@IAE_NI@Z ; std::vector<ioHashString,std::allocator<ioHashString> >::_Buy
  0002c	84 c0		 test	 al, al
  0002e	74 1f		 je	 SHORT $LN7@vector@3

; 537  : 			_TRY_BEGIN
; 538  : 			this->_Mylast = _Ucopy(_Right.begin(), _Right.end(),
; 539  : 				this->_Myfirst);

  00030	ff 75 08	 push	 DWORD PTR __Cat$530715[ebp]
  00033	8b 0e		 mov	 ecx, DWORD PTR [esi]
  00035	8b 47 04	 mov	 eax, DWORD PTR [edi+4]
  00038	8b 3f		 mov	 edi, DWORD PTR [edi]
  0003a	8d 56 0c	 lea	 edx, DWORD PTR [esi+12]
  0003d	52		 push	 edx
  0003e	51		 push	 ecx
  0003f	50		 push	 eax
  00040	57		 push	 edi
  00041	89 5d fc	 mov	 DWORD PTR __$EHRec$[ebp+12], ebx
  00044	e8 00 00 00 00	 call	 ??$_Uninit_copy@V?$_Vector_const_iterator@V?$_Vector_val@VioHashString@@V?$allocator@VioHashString@@@std@@@std@@@std@@PAVioHashString@@V?$allocator@VioHashString@@@2@@std@@YAPAVioHashString@@V?$_Vector_const_iterator@V?$_Vector_val@VioHashString@@V?$allocator@VioHashString@@@std@@@std@@@0@0PAV1@AAV?$allocator@VioHashString@@@0@U_Nonscalar_ptr_iterator_tag@0@@Z ; std::_Uninit_copy<std::_Vector_const_iterator<std::_Vector_val<ioHashString,std::allocator<ioHashString> > >,ioHashString *,std::allocator<ioHashString> >
  00049	83 c4 14	 add	 esp, 20			; 00000014H
  0004c	89 46 04	 mov	 DWORD PTR [esi+4], eax
$LN7@vector@3:

; 543  : 			_CATCH_END
; 544  : 		}

  0004f	8b c6		 mov	 eax, esi
  00051	e8 00 00 00 00	 call	 __EH_epilog3
  00056	c2 04 00	 ret	 4
__catch$??0?$vector@VioHashString@@V?$allocator@VioHashString@@@std@@@std@@QAE@ABV01@@Z$0:

; 540  : 			_CATCH_ALL
; 541  : 			_Tidy();

  00059	8b 4d ec	 mov	 ecx, DWORD PTR _this$[ebp]
  0005c	e8 00 00 00 00	 call	 ?_Tidy@?$vector@VioHashString@@V?$allocator@VioHashString@@@std@@@std@@IAEXXZ ; std::vector<ioHashString,std::allocator<ioHashString> >::_Tidy

; 542  : 			_RERAISE;

  00061	33 db		 xor	 ebx, ebx
  00063	53		 push	 ebx
  00064	53		 push	 ebx
  00065	e8 00 00 00 00	 call	 __CxxThrowException@8
$LN38@vector@3:
$LN37@vector@3:
  0006a	cc		 int	 3
_TEXT	ENDS
;	COMDAT text$x
text$x	SEGMENT
__ehhandler$??0?$vector@VioHashString@@V?$allocator@VioHashString@@@std@@@std@@QAE@ABV01@@Z:
  00000	8b 54 24 08	 mov	 edx, DWORD PTR [esp+8]
  00004	8d 42 0c	 lea	 eax, DWORD PTR [edx+12]
  00007	8b 4a e8	 mov	 ecx, DWORD PTR [edx-24]
  0000a	33 c8		 xor	 ecx, eax
  0000c	e8 00 00 00 00	 call	 @__security_check_cookie@4
  00011	b8 00 00 00 00	 mov	 eax, OFFSET __ehfuncinfo$??0?$vector@VioHashString@@V?$allocator@VioHashString@@@std@@@std@@QAE@ABV01@@Z
  00016	e9 00 00 00 00	 jmp	 ___CxxFrameHandler3
text$x	ENDS
??0?$vector@VioHashString@@V?$allocator@VioHashString@@@std@@@std@@QAE@ABV01@@Z ENDP ; std::vector<ioHashString,std::allocator<ioHashString> >::vector<ioHashString,std::allocator<ioHashString> >
PUBLIC	??1?$vector@VioHashString@@V?$allocator@VioHashString@@@std@@@std@@QAE@XZ ; std::vector<ioHashString,std::allocator<ioHashString> >::~vector<ioHashString,std::allocator<ioHashString> >
; Function compile flags: /Ogsp
;	COMDAT ??1?$vector@VioHashString@@V?$allocator@VioHashString@@@std@@@std@@QAE@XZ
_TEXT	SEGMENT
??1?$vector@VioHashString@@V?$allocator@VioHashString@@@std@@@std@@QAE@XZ PROC ; std::vector<ioHashString,std::allocator<ioHashString> >::~vector<ioHashString,std::allocator<ioHashString> >, COMDAT
; _this$ = ecx

; 705  : 		_Tidy();

  00000	e9 00 00 00 00	 jmp	 ?_Tidy@?$vector@VioHashString@@V?$allocator@VioHashString@@@std@@@std@@IAEXXZ ; std::vector<ioHashString,std::allocator<ioHashString> >::_Tidy
??1?$vector@VioHashString@@V?$allocator@VioHashString@@@std@@@std@@QAE@XZ ENDP ; std::vector<ioHashString,std::allocator<ioHashString> >::~vector<ioHashString,std::allocator<ioHashString> >
_TEXT	ENDS
PUBLIC	?clear@?$vector@VioHashString@@V?$allocator@VioHashString@@@std@@@std@@QAEXXZ ; std::vector<ioHashString,std::allocator<ioHashString> >::clear
; Function compile flags: /Ogsp
;	COMDAT ?clear@?$vector@VioHashString@@V?$allocator@VioHashString@@@std@@@std@@QAEXXZ
_TEXT	SEGMENT
$T530745 = -4						; size = 4
?clear@?$vector@VioHashString@@V?$allocator@VioHashString@@@std@@@std@@QAEXXZ PROC ; std::vector<ioHashString,std::allocator<ioHashString> >::clear, COMDAT
; _this$ = ecx

; 1217 : 		{	// erase all

  00000	55		 push	 ebp
  00001	8b ec		 mov	 ebp, esp
  00003	51		 push	 ecx

; 1218 : 		erase(begin(), end());

  00004	8b 41 04	 mov	 eax, DWORD PTR [ecx+4]
  00007	8b 11		 mov	 edx, DWORD PTR [ecx]
  00009	50		 push	 eax
  0000a	52		 push	 edx
  0000b	8d 45 fc	 lea	 eax, DWORD PTR $T530745[ebp]
  0000e	50		 push	 eax
  0000f	e8 00 00 00 00	 call	 ?erase@?$vector@VioHashString@@V?$allocator@VioHashString@@@std@@@std@@QAE?AV?$_Vector_iterator@V?$_Vector_val@VioHashString@@V?$allocator@VioHashString@@@std@@@std@@@2@V?$_Vector_const_iterator@V?$_Vector_val@VioHashString@@V?$allocator@VioHashString@@@std@@@std@@@2@0@Z ; std::vector<ioHashString,std::allocator<ioHashString> >::erase

; 1219 : 		}

  00014	c9		 leave
  00015	c3		 ret	 0
?clear@?$vector@VioHashString@@V?$allocator@VioHashString@@@std@@@std@@QAEXXZ ENDP ; std::vector<ioHashString,std::allocator<ioHashString> >::clear
_TEXT	ENDS
PUBLIC	??1?$vector@UWeaponInfo@@V?$allocator@UWeaponInfo@@@std@@@std@@QAE@XZ ; std::vector<WeaponInfo,std::allocator<WeaponInfo> >::~vector<WeaponInfo,std::allocator<WeaponInfo> >
; Function compile flags: /Ogsp
;	COMDAT ??1?$vector@UWeaponInfo@@V?$allocator@UWeaponInfo@@@std@@@std@@QAE@XZ
_TEXT	SEGMENT
??1?$vector@UWeaponInfo@@V?$allocator@UWeaponInfo@@@std@@@std@@QAE@XZ PROC ; std::vector<WeaponInfo,std::allocator<WeaponInfo> >::~vector<WeaponInfo,std::allocator<WeaponInfo> >, COMDAT
; _this$ = ecx

; 705  : 		_Tidy();

  00000	e9 00 00 00 00	 jmp	 ?_Tidy@?$vector@UWeaponInfo@@V?$allocator@UWeaponInfo@@@std@@@std@@IAEXXZ ; std::vector<WeaponInfo,std::allocator<WeaponInfo> >::_Tidy
??1?$vector@UWeaponInfo@@V?$allocator@UWeaponInfo@@@std@@@std@@QAE@XZ ENDP ; std::vector<WeaponInfo,std::allocator<WeaponInfo> >::~vector<WeaponInfo,std::allocator<WeaponInfo> >
_TEXT	ENDS
PUBLIC	??0AttackAttribute@@QAE@ABU0@@Z			; AttackAttribute::AttackAttribute
;	COMDAT xdata$x
xdata$x	SEGMENT
__unwindtable$??0AttackAttribute@@QAE@ABU0@@Z DD 0ffffffffH
	DD	FLAT:__unwindfunclet$??0AttackAttribute@@QAE@ABU0@@Z$0
	DD	00H
	DD	FLAT:__unwindfunclet$??0AttackAttribute@@QAE@ABU0@@Z$1
	DD	01H
	DD	FLAT:__unwindfunclet$??0AttackAttribute@@QAE@ABU0@@Z$2
__ehfuncinfo$??0AttackAttribute@@QAE@ABU0@@Z DD 019930522H
	DD	03H
	DD	FLAT:__unwindtable$??0AttackAttribute@@QAE@ABU0@@Z
	DD	2 DUP(00H)
	DD	2 DUP(00H)
	DD	00H
	DD	01H
; Function compile flags: /Ogsp
xdata$x	ENDS
;	COMDAT ??0AttackAttribute@@QAE@ABU0@@Z
_TEXT	SEGMENT
_this$ = -16						; size = 4
__$EHRec$ = -12						; size = 12
___that$ = 8						; size = 4
??0AttackAttribute@@QAE@ABU0@@Z PROC			; AttackAttribute::AttackAttribute, COMDAT
; _this$ = ecx
  00000	6a 04		 push	 4
  00002	b8 00 00 00 00	 mov	 eax, __ehhandler$??0AttackAttribute@@QAE@ABU0@@Z
  00007	e8 00 00 00 00	 call	 __EH_prolog3
  0000c	8b f1		 mov	 esi, ecx
  0000e	89 75 f0	 mov	 DWORD PTR _this$[ebp], esi
  00011	8b 7d 08	 mov	 edi, DWORD PTR ___that$[ebp]
  00014	8b 1d 00 00 00
	00		 mov	 ebx, DWORD PTR __imp_??0ioHashString@@QAE@ABV0@@Z
  0001a	57		 push	 edi
  0001b	ff d3		 call	 ebx
  0001d	d9 47 10	 fld	 DWORD PTR [edi+16]
  00020	83 65 fc 00	 and	 DWORD PTR __$EHRec$[ebp+8], 0
  00024	d9 5e 10	 fstp	 DWORD PTR [esi+16]
  00027	8d 47 14	 lea	 eax, DWORD PTR [edi+20]
  0002a	50		 push	 eax
  0002b	8d 4e 14	 lea	 ecx, DWORD PTR [esi+20]
  0002e	ff d3		 call	 ebx
  00030	d9 47 24	 fld	 DWORD PTR [edi+36]
  00033	8d 47 28	 lea	 eax, DWORD PTR [edi+40]
  00036	d9 5e 24	 fstp	 DWORD PTR [esi+36]
  00039	50		 push	 eax
  0003a	8d 4e 28	 lea	 ecx, DWORD PTR [esi+40]
  0003d	c6 45 fc 01	 mov	 BYTE PTR __$EHRec$[ebp+8], 1
  00041	e8 00 00 00 00	 call	 ??0?$vector@UWeaponInfo@@V?$allocator@UWeaponInfo@@@std@@@std@@QAE@ABV01@@Z ; std::vector<WeaponInfo,std::allocator<WeaponInfo> >::vector<WeaponInfo,std::allocator<WeaponInfo> >
  00046	8d 47 38	 lea	 eax, DWORD PTR [edi+56]
  00049	50		 push	 eax
  0004a	8d 4e 38	 lea	 ecx, DWORD PTR [esi+56]
  0004d	c6 45 fc 02	 mov	 BYTE PTR __$EHRec$[ebp+8], 2
  00051	e8 00 00 00 00	 call	 ??0?$vector@UForceInfo@@V?$allocator@UForceInfo@@@std@@@std@@QAE@ABV01@@Z ; std::vector<ForceInfo,std::allocator<ForceInfo> >::vector<ForceInfo,std::allocator<ForceInfo> >
  00056	8b 47 48	 mov	 eax, DWORD PTR [edi+72]
  00059	89 46 48	 mov	 DWORD PTR [esi+72], eax
  0005c	8b 47 4c	 mov	 eax, DWORD PTR [edi+76]
  0005f	89 46 4c	 mov	 DWORD PTR [esi+76], eax
  00062	8b c6		 mov	 eax, esi
  00064	e8 00 00 00 00	 call	 __EH_epilog3
  00069	c2 04 00	 ret	 4
_TEXT	ENDS
;	COMDAT text$x
text$x	SEGMENT
__unwindfunclet$??0AttackAttribute@@QAE@ABU0@@Z$0:
  00000	8b 4d f0	 mov	 ecx, DWORD PTR _this$[ebp]
  00003	ff 25 00 00 00
	00		 jmp	 DWORD PTR __imp_??1ioHashString@@QAE@XZ
__unwindfunclet$??0AttackAttribute@@QAE@ABU0@@Z$1:
  00009	8b 4d f0	 mov	 ecx, DWORD PTR _this$[ebp]
  0000c	83 c1 14	 add	 ecx, 20			; 00000014H
  0000f	ff 25 00 00 00
	00		 jmp	 DWORD PTR __imp_??1ioHashString@@QAE@XZ
__unwindfunclet$??0AttackAttribute@@QAE@ABU0@@Z$2:
  00015	8b 4d f0	 mov	 ecx, DWORD PTR _this$[ebp]
  00018	83 c1 28	 add	 ecx, 40			; 00000028H
  0001b	e9 00 00 00 00	 jmp	 ??1?$vector@UWeaponInfo@@V?$allocator@UWeaponInfo@@@std@@@std@@QAE@XZ ; std::vector<WeaponInfo,std::allocator<WeaponInfo> >::~vector<WeaponInfo,std::allocator<WeaponInfo> >
__ehhandler$??0AttackAttribute@@QAE@ABU0@@Z:
  00020	8b 54 24 08	 mov	 edx, DWORD PTR [esp+8]
  00024	8d 42 0c	 lea	 eax, DWORD PTR [edx+12]
  00027	8b 4a ec	 mov	 ecx, DWORD PTR [edx-20]
  0002a	33 c8		 xor	 ecx, eax
  0002c	e8 00 00 00 00	 call	 @__security_check_cookie@4
  00031	b8 00 00 00 00	 mov	 eax, OFFSET __ehfuncinfo$??0AttackAttribute@@QAE@ABU0@@Z
  00036	e9 00 00 00 00	 jmp	 ___CxxFrameHandler3
text$x	ENDS
??0AttackAttribute@@QAE@ABU0@@Z ENDP			; AttackAttribute::AttackAttribute
PUBLIC	_rkLoader$GSCopy$
PUBLIC	?LoadProperty@ioKisaragiJump@@UAEXAAVioINILoader@@@Z ; ioKisaragiJump::LoadProperty
EXTRN	?Init@AttackAttribute@@QAEXXZ:PROC		; AttackAttribute::Init
EXTRN	?LoadProperty@ioExtendJump@@UAEXAAVioINILoader@@@Z:PROC ; ioExtendJump::LoadProperty
EXTRN	_memset:PROC
;	COMDAT xdata$x
; File d:\lost saga for developer\youtube\tutorial\source\src\lsclient\stringprotect.h
xdata$x	SEGMENT
__unwindtable$?LoadProperty@ioKisaragiJump@@UAEXAAVioINILoader@@@Z DD 0ffffffffH
	DD	FLAT:__unwindfunclet$?LoadProperty@ioKisaragiJump@@UAEXAAVioINILoader@@@Z$0
	DD	0ffffffffH
	DD	FLAT:__unwindfunclet$?LoadProperty@ioKisaragiJump@@UAEXAAVioINILoader@@@Z$1
	DD	0ffffffffH
	DD	FLAT:__unwindfunclet$?LoadProperty@ioKisaragiJump@@UAEXAAVioINILoader@@@Z$2
	DD	0ffffffffH
	DD	FLAT:__unwindfunclet$?LoadProperty@ioKisaragiJump@@UAEXAAVioINILoader@@@Z$3
__ehfuncinfo$?LoadProperty@ioKisaragiJump@@UAEXAAVioINILoader@@@Z DD 019930522H
	DD	04H
	DD	FLAT:__unwindtable$?LoadProperty@ioKisaragiJump@@UAEXAAVioINILoader@@@Z
	DD	2 DUP(00H)
	DD	2 DUP(00H)
	DD	00H
	DD	01H
; Function compile flags: /Ogsp
; File d:\lost saga for developer\youtube\tutorial\source\src\lsclient\iokisaragijump.cpp
xdata$x	ENDS
;	COMDAT ?LoadProperty@ioKisaragiJump@@UAEXAAVioINILoader@@@Z
_TEXT	SEGMENT
tv13723 = -344						; size = 4
tv13713 = -344						; size = 4
tv13703 = -344						; size = 4
tv13695 = -344						; size = 4
$T532031 = -344						; size = 4
_rkLoader$GSCopy$ = -340				; size = 4
_szBuf$ = -336						; size = 260
_szEncAttack$532577 = -76				; size = 17
__k$532439 = -52					; size = 27
__k$532314 = -52					; size = 27
__k$532189 = -52					; size = 28
__k$532064 = -52					; size = 28
__k$531743 = -52					; size = 28
__k$531614 = -52					; size = 28
__k$531485 = -52					; size = 29
__k$531343 = -52					; size = 26
__k$531218 = -48					; size = 24
__k$531939 = -44					; size = 21
__k$531093 = -44					; size = 18
__k$530968 = -44					; size = 18
__k$530843 = -36					; size = 13
$T530823 = -36						; size = 16
$T530822 = -36						; size = 16
$T530821 = -36						; size = 16
$T530820 = -36						; size = 16
__$EHRec$ = -12						; size = 12
_rkLoader$ = 8						; size = 4
?LoadProperty@ioKisaragiJump@@UAEXAAVioINILoader@@@Z PROC ; ioKisaragiJump::LoadProperty, COMDAT
; _this$ = ecx

; 61   : {

  00000	68 4c 01 00 00	 push	 332			; 0000014cH
  00005	b8 00 00 00 00	 mov	 eax, __ehhandler$?LoadProperty@ioKisaragiJump@@UAEXAAVioINILoader@@@Z
  0000a	e8 00 00 00 00	 call	 __EH_prolog3_GS
  0000f	8b 5d 08	 mov	 ebx, DWORD PTR _rkLoader$[ebp]

; 62   : 	ioExtendJump::LoadProperty( rkLoader );

  00012	53		 push	 ebx
  00013	8b f1		 mov	 esi, ecx

; 90   : 	rkLoader.LoadString_e( "double_jump_animation_left", "", szBuf, MAX_PATH );

  00015	89 9d ac fe ff
	ff		 mov	 DWORD PTR _rkLoader$GSCopy$[ebp], ebx
  0001b	e8 00 00 00 00	 call	 ?LoadProperty@ioExtendJump@@UAEXAAVioINILoader@@@Z ; ioExtendJump::LoadProperty
  00020	68 03 01 00 00	 push	 259			; 00000103H
  00025	8d 85 b1 fe ff
	ff		 lea	 eax, DWORD PTR _szBuf$[ebp+1]
  0002b	6a 00		 push	 0
  0002d	50		 push	 eax
  0002e	c6 85 b0 fe ff
	ff 00		 mov	 BYTE PTR _szBuf$[ebp], 0
  00035	e8 00 00 00 00	 call	 _memset
  0003a	83 c4 0c	 add	 esp, 12			; 0000000cH
  0003d	6a 03		 push	 3
  0003f	c7 45 dc 80 8d
	93 b5		 mov	 DWORD PTR __k$530843[ebp], -1248621184 ; b5938d80H
  00046	c7 45 e0 87 99
	86 9a		 mov	 DWORD PTR __k$530843[ebp+4], -1702454905 ; 9a869987H
  0004d	c7 45 e4 b2 8f
	85 9e		 mov	 DWORD PTR __k$530843[ebp+8], -1635414094 ; 9e858fb2H
  00054	8d 45 dc	 lea	 eax, DWORD PTR __k$530843[ebp]
  00057	c6 45 e8 00	 mov	 BYTE PTR __k$530843[ebp+12], 0
  0005b	59		 pop	 ecx
$LL112@LoadProper:

; 63   : 
; 64   : 	char szBuf[MAX_PATH] = "";
; 65   : 
; 66   : 	// Double
; 67   : 	m_iMaxJumpCnt = rkLoader.LoadInt_e( "max_jump_cnt", 0 );

  0005c	81 30 ed ec eb
	ea		 xor	 DWORD PTR [eax], -353637139 ; eaebecedH
  00062	83 c0 04	 add	 eax, 4
  00065	49		 dec	 ecx
  00066	75 f4		 jne	 SHORT $LL112@LoadProper
  00068	8b 3d 00 00 00
	00		 mov	 edi, DWORD PTR __imp_?LoadInt@ioINILoader@@QAEHPBDH@Z
  0006e	51		 push	 ecx
  0006f	8d 45 dc	 lea	 eax, DWORD PTR __k$530843[ebp]
  00072	50		 push	 eax
  00073	8b cb		 mov	 ecx, ebx
  00075	ff d7		 call	 edi
  00077	89 86 5c 01 00
	00		 mov	 DWORD PTR [esi+348], eax

; 68   : 	m_iMaxJumpCnt = max( 2, m_iMaxJumpCnt );

  0007d	83 f8 02	 cmp	 eax, 2
  00080	7d 03		 jge	 SHORT $LN3@LoadProper
  00082	6a 02		 push	 2
  00084	58		 pop	 eax
$LN3@LoadProper:
  00085	6a 04		 push	 4
  00087	89 86 5c 01 00
	00		 mov	 DWORD PTR [esi+348], eax

; 69   : 
; 70   : 	m_fDoubleJumpPower = rkLoader.LoadFloat_e( "double_jump_power", 0.0f );

  0008d	c7 45 d4 89 83
	9e 88		 mov	 DWORD PTR __k$530968[ebp], -2002877559 ; 889e8389H
  00094	c7 45 d8 81 89
	b4 80		 mov	 DWORD PTR __k$530968[ebp+4], -2135651967 ; 80b48981H
  0009b	c7 45 dc 98 81
	9b b5		 mov	 DWORD PTR __k$530968[ebp+8], -1248099944 ; b59b8198H
  000a2	c7 45 e0 9d 83
	9c 8f		 mov	 DWORD PTR __k$530968[ebp+12], -1885568099 ; 8f9c839dH
  000a9	8d 45 d4	 lea	 eax, DWORD PTR __k$530968[ebp]
  000ac	66 c7 45 e4 9f
	00		 mov	 WORD PTR __k$530968[ebp+16], 159 ; 0000009fH
  000b2	59		 pop	 ecx
$LL218@LoadProper:
  000b3	81 30 ed ec eb
	ea		 xor	 DWORD PTR [eax], -353637139 ; eaebecedH
  000b9	83 c0 04	 add	 eax, 4
  000bc	49		 dec	 ecx
  000bd	75 f4		 jne	 SHORT $LL218@LoadProper
  000bf	0f 57 c0	 xorps	 xmm0, xmm0
  000c2	80 75 e4 ed	 xor	 BYTE PTR __k$530968[ebp+16], -19 ; ffffffedH
  000c6	51		 push	 ecx
  000c7	8d 45 d4	 lea	 eax, DWORD PTR __k$530968[ebp]
  000ca	f3 0f 11 04 24	 movss	 DWORD PTR [esp], xmm0
  000cf	50		 push	 eax
  000d0	8b cb		 mov	 ecx, ebx
  000d2	ff 15 00 00 00
	00		 call	 DWORD PTR __imp_?LoadFloat@ioINILoader@@QAEMPBDM@Z
  000d8	d9 9e 28 01 00
	00		 fstp	 DWORD PTR [esi+296]
  000de	6a 04		 push	 4

; 71   : 	m_fDoubleJumpForce = rkLoader.LoadFloat_e( "double_jump_force", 0.0f );

  000e0	c7 45 d4 89 83
	9e 88		 mov	 DWORD PTR __k$531093[ebp], -2002877559 ; 889e8389H
  000e7	c7 45 d8 81 89
	b4 80		 mov	 DWORD PTR __k$531093[ebp+4], -2135651967 ; 80b48981H
  000ee	c7 45 dc 98 81
	9b b5		 mov	 DWORD PTR __k$531093[ebp+8], -1248099944 ; b59b8198H
  000f5	c7 45 e0 8b 83
	99 89		 mov	 DWORD PTR __k$531093[ebp+12], -1986428021 ; 8999838bH
  000fc	8d 45 d4	 lea	 eax, DWORD PTR __k$531093[ebp]
  000ff	66 c7 45 e4 88
	00		 mov	 WORD PTR __k$531093[ebp+16], 136 ; 00000088H
  00105	59		 pop	 ecx
$LL324@LoadProper:
  00106	81 30 ed ec eb
	ea		 xor	 DWORD PTR [eax], -353637139 ; eaebecedH
  0010c	83 c0 04	 add	 eax, 4
  0010f	49		 dec	 ecx
  00110	75 f4		 jne	 SHORT $LL324@LoadProper
  00112	0f 57 c0	 xorps	 xmm0, xmm0
  00115	80 75 e4 ed	 xor	 BYTE PTR __k$531093[ebp+16], -19 ; ffffffedH
  00119	51		 push	 ecx
  0011a	8d 45 d4	 lea	 eax, DWORD PTR __k$531093[ebp]
  0011d	f3 0f 11 04 24	 movss	 DWORD PTR [esp], xmm0
  00122	50		 push	 eax
  00123	8b cb		 mov	 ecx, ebx
  00125	ff 15 00 00 00
	00		 call	 DWORD PTR __imp_?LoadFloat@ioINILoader@@QAEMPBDM@Z
  0012b	d9 9e 2c 01 00
	00		 fstp	 DWORD PTR [esi+300]
  00131	6a 05		 push	 5

; 72   : 	m_dwDoubleJumpEnableTime = rkLoader.LoadInt_e( "double_jump_enable_time", 0 );

  00133	c7 45 d0 89 83
	9e 88		 mov	 DWORD PTR __k$531218[ebp], -2002877559 ; 889e8389H
  0013a	c7 45 d4 81 89
	b4 80		 mov	 DWORD PTR __k$531218[ebp+4], -2135651967 ; 80b48981H
  00141	c7 45 d8 98 81
	9b b5		 mov	 DWORD PTR __k$531218[ebp+8], -1248099944 ; b59b8198H
  00148	c7 45 dc 88 82
	8a 88		 mov	 DWORD PTR __k$531218[ebp+12], -2004188536 ; 888a8288H
  0014f	c7 45 e0 81 89
	b4 9e		 mov	 DWORD PTR __k$531218[ebp+16], -1632335487 ; 9eb48981H
  00156	8d 45 d0	 lea	 eax, DWORD PTR __k$531218[ebp]
  00159	c7 45 e4 84 81
	8e 00		 mov	 DWORD PTR __k$531218[ebp+20], 9339268 ; 008e8184H
  00160	59		 pop	 ecx
$LL430@LoadProper:
  00161	81 30 ed ec eb
	ea		 xor	 DWORD PTR [eax], -353637139 ; eaebecedH
  00167	83 c0 04	 add	 eax, 4
  0016a	49		 dec	 ecx
  0016b	75 f4		 jne	 SHORT $LL430@LoadProper
  0016d	6a 14		 push	 20			; 00000014H
  0016f	58		 pop	 eax
$LL427@LoadProper:
  00170	8b c8		 mov	 ecx, eax
  00172	81 e1 03 00 00
	80		 and	 ecx, -2147483645	; 80000003H
  00178	79 05		 jns	 SHORT $LN1576@LoadProper
  0017a	49		 dec	 ecx
  0017b	83 c9 fc	 or	 ecx, -4			; fffffffcH
  0017e	41		 inc	 ecx
$LN1576@LoadProper:
  0017f	b2 ed		 mov	 dl, -19			; ffffffedH
  00181	2a d1		 sub	 dl, cl
  00183	30 54 05 d0	 xor	 BYTE PTR __k$531218[ebp+eax], dl
  00187	40		 inc	 eax
  00188	83 f8 17	 cmp	 eax, 23			; 00000017H
  0018b	7c e3		 jl	 SHORT $LL427@LoadProper
  0018d	6a 00		 push	 0
  0018f	8d 45 d0	 lea	 eax, DWORD PTR __k$531218[ebp]
  00192	50		 push	 eax
  00193	8b cb		 mov	 ecx, ebx
  00195	ff d7		 call	 edi
  00197	6a 06		 push	 6
  00199	89 86 34 01 00
	00		 mov	 DWORD PTR [esi+308], eax

; 73   : 	m_fDoubleJumpEnableHeight = rkLoader.LoadFloat_e( "double_jump_enable_height", 0.0f );

  0019f	c7 45 cc 89 83
	9e 88		 mov	 DWORD PTR __k$531343[ebp], -2002877559 ; 889e8389H
  001a6	c7 45 d0 81 89
	b4 80		 mov	 DWORD PTR __k$531343[ebp+4], -2135651967 ; 80b48981H
  001ad	c7 45 d4 98 81
	9b b5		 mov	 DWORD PTR __k$531343[ebp+8], -1248099944 ; b59b8198H
  001b4	c7 45 d8 88 82
	8a 88		 mov	 DWORD PTR __k$531343[ebp+12], -2004188536 ; 888a8288H
  001bb	c7 45 dc 81 89
	b4 82		 mov	 DWORD PTR __k$531343[ebp+16], -2102097535 ; 82b48981H
  001c2	c7 45 e0 88 85
	8c 82		 mov	 DWORD PTR __k$531343[ebp+20], -2104719992 ; 828c8588H
  001c9	8d 45 cc	 lea	 eax, DWORD PTR __k$531343[ebp]
  001cc	66 c7 45 e4 99
	00		 mov	 WORD PTR __k$531343[ebp+24], 153 ; 00000099H
  001d2	59		 pop	 ecx
$LL536@LoadProper:
  001d3	81 30 ed ec eb
	ea		 xor	 DWORD PTR [eax], -353637139 ; eaebecedH
  001d9	83 c0 04	 add	 eax, 4
  001dc	49		 dec	 ecx
  001dd	75 f4		 jne	 SHORT $LL536@LoadProper
  001df	0f 57 c0	 xorps	 xmm0, xmm0
  001e2	80 75 e4 ed	 xor	 BYTE PTR __k$531343[ebp+24], -19 ; ffffffedH
  001e6	51		 push	 ecx
  001e7	8d 45 cc	 lea	 eax, DWORD PTR __k$531343[ebp]
  001ea	f3 0f 11 04 24	 movss	 DWORD PTR [esp], xmm0
  001ef	50		 push	 eax
  001f0	8b cb		 mov	 ecx, ebx
  001f2	ff 15 00 00 00
	00		 call	 DWORD PTR __imp_?LoadFloat@ioINILoader@@QAEMPBDM@Z
  001f8	d9 9e 30 01 00
	00		 fstp	 DWORD PTR [esi+304]

; 74   : 
; 75   : 	m_fDoubleJumpSpeedRateFR = rkLoader.LoadFloat_e( "double_jump_speed_rate_front", FLOAT1 );

  001fe	b8 01 00 00 00	 mov	 eax, 1
  00203	6a 07		 push	 7
  00205	c7 45 cc 89 83
	9e 88		 mov	 DWORD PTR __k$531485[ebp], -2002877559 ; 889e8389H
  0020c	c7 45 d0 81 89
	b4 80		 mov	 DWORD PTR __k$531485[ebp+4], -2135651967 ; 80b48981H
  00213	c7 45 d4 98 81
	9b b5		 mov	 DWORD PTR __k$531485[ebp+8], -1248099944 ; b59b8198H
  0021a	c7 45 d8 9e 9c
	8e 8f		 mov	 DWORD PTR __k$531485[ebp+12], -1886479202 ; 8f8e9c9eH
  00221	c7 45 dc 89 b3
	99 8b		 mov	 DWORD PTR __k$531485[ebp+16], -1952861303 ; 8b99b389H
  00228	c7 45 e0 99 89
	b4 8c		 mov	 DWORD PTR __k$531485[ebp+20], -1934325351 ; 8cb48999H
  0022f	c7 45 e4 9f 83
	85 9e		 mov	 DWORD PTR __k$531485[ebp+24], -1635417185 ; 9e85839fH
  00236	8d 4d cc	 lea	 ecx, DWORD PTR __k$531485[ebp]
  00239	c6 45 e8 00	 mov	 BYTE PTR __k$531485[ebp+28], 0
  0023d	5a		 pop	 edx
$LL644@LoadProper:
  0023e	81 31 ed ec eb
	ea		 xor	 DWORD PTR [ecx], -353637139 ; eaebecedH
  00244	83 c1 04	 add	 ecx, 4
  00247	4a		 dec	 edx
  00248	75 f4		 jne	 SHORT $LL644@LoadProper
  0024a	89 85 a8 fe ff
	ff		 mov	 DWORD PTR tv13723[ebp], eax
  00250	db 85 a8 fe ff
	ff		 fild	 DWORD PTR tv13723[ebp]
  00256	85 c0		 test	 eax, eax
  00258	79 06		 jns	 SHORT $LN1577@LoadProper
  0025a	d8 05 00 00 00
	00		 fadd	 DWORD PTR __real@4f800000
$LN1577@LoadProper:
  00260	51		 push	 ecx
  00261	8d 45 cc	 lea	 eax, DWORD PTR __k$531485[ebp]
  00264	d9 1c 24	 fstp	 DWORD PTR [esp]
  00267	50		 push	 eax
  00268	8b cb		 mov	 ecx, ebx
  0026a	ff 15 00 00 00
	00		 call	 DWORD PTR __imp_?LoadFloat@ioINILoader@@QAEMPBDM@Z
  00270	d9 9e 38 01 00
	00		 fstp	 DWORD PTR [esi+312]

; 76   : 	m_fDoubleJumpSpeedRateSI = rkLoader.LoadFloat_e( "double_jump_speed_rate_side", FLOAT1 );

  00276	b8 01 00 00 00	 mov	 eax, 1
  0027b	6a 06		 push	 6
  0027d	8b f8		 mov	 edi, eax
  0027f	c7 45 cc 89 83
	9e 88		 mov	 DWORD PTR __k$531614[ebp], -2002877559 ; 889e8389H
  00286	c7 45 d0 81 89
	b4 80		 mov	 DWORD PTR __k$531614[ebp+4], -2135651967 ; 80b48981H
  0028d	c7 45 d4 98 81
	9b b5		 mov	 DWORD PTR __k$531614[ebp+8], -1248099944 ; b59b8198H
  00294	c7 45 d8 9e 9c
	8e 8f		 mov	 DWORD PTR __k$531614[ebp+12], -1886479202 ; 8f8e9c9eH
  0029b	c7 45 dc 89 b3
	99 8b		 mov	 DWORD PTR __k$531614[ebp+16], -1952861303 ; 8b99b389H
  002a2	c7 45 e0 99 89
	b4 99		 mov	 DWORD PTR __k$531614[ebp+20], -1716221543 ; 99b48999H
  002a9	8d 4d cc	 lea	 ecx, DWORD PTR __k$531614[ebp]
  002ac	c7 45 e4 84 88
	8e 00		 mov	 DWORD PTR __k$531614[ebp+24], 9341060 ; 008e8884H
  002b3	58		 pop	 eax
$LL752@LoadProper:
  002b4	81 31 ed ec eb
	ea		 xor	 DWORD PTR [ecx], -353637139 ; eaebecedH
  002ba	83 c1 04	 add	 ecx, 4
  002bd	48		 dec	 eax
  002be	75 f4		 jne	 SHORT $LL752@LoadProper
  002c0	6a 18		 push	 24			; 00000018H
  002c2	58		 pop	 eax
$LL749@LoadProper:
  002c3	8b c8		 mov	 ecx, eax
  002c5	81 e1 03 00 00
	80		 and	 ecx, -2147483645	; 80000003H
  002cb	79 05		 jns	 SHORT $LN1578@LoadProper
  002cd	49		 dec	 ecx
  002ce	83 c9 fc	 or	 ecx, -4			; fffffffcH
  002d1	41		 inc	 ecx
$LN1578@LoadProper:
  002d2	b2 ed		 mov	 dl, -19			; ffffffedH
  002d4	2a d1		 sub	 dl, cl
  002d6	30 54 05 cc	 xor	 BYTE PTR __k$531614[ebp+eax], dl
  002da	40		 inc	 eax
  002db	83 f8 1b	 cmp	 eax, 27			; 0000001bH
  002de	7c e3		 jl	 SHORT $LL749@LoadProper
  002e0	89 bd a8 fe ff
	ff		 mov	 DWORD PTR tv13713[ebp], edi
  002e6	db 85 a8 fe ff
	ff		 fild	 DWORD PTR tv13713[ebp]
  002ec	85 ff		 test	 edi, edi
  002ee	79 06		 jns	 SHORT $LN1579@LoadProper
  002f0	d8 05 00 00 00
	00		 fadd	 DWORD PTR __real@4f800000
$LN1579@LoadProper:
  002f6	51		 push	 ecx
  002f7	8d 45 cc	 lea	 eax, DWORD PTR __k$531614[ebp]
  002fa	d9 1c 24	 fstp	 DWORD PTR [esp]
  002fd	50		 push	 eax
  002fe	8b cb		 mov	 ecx, ebx
  00300	ff 15 00 00 00
	00		 call	 DWORD PTR __imp_?LoadFloat@ioINILoader@@QAEMPBDM@Z
  00306	d9 9e 3c 01 00
	00		 fstp	 DWORD PTR [esi+316]

; 77   : 	m_fDoubleJumpSpeedRateBG = rkLoader.LoadFloat_e( "double_jump_speed_rate_back", FLOAT1 );

  0030c	b8 01 00 00 00	 mov	 eax, 1
  00311	6a 06		 push	 6
  00313	8b f8		 mov	 edi, eax
  00315	c7 45 cc 89 83
	9e 88		 mov	 DWORD PTR __k$531743[ebp], -2002877559 ; 889e8389H
  0031c	c7 45 d0 81 89
	b4 80		 mov	 DWORD PTR __k$531743[ebp+4], -2135651967 ; 80b48981H
  00323	c7 45 d4 98 81
	9b b5		 mov	 DWORD PTR __k$531743[ebp+8], -1248099944 ; b59b8198H
  0032a	c7 45 d8 9e 9c
	8e 8f		 mov	 DWORD PTR __k$531743[ebp+12], -1886479202 ; 8f8e9c9eH
  00331	c7 45 dc 89 b3
	99 8b		 mov	 DWORD PTR __k$531743[ebp+16], -1952861303 ; 8b99b389H
  00338	c7 45 e0 99 89
	b4 88		 mov	 DWORD PTR __k$531743[ebp+20], -2001434215 ; 88b48999H
  0033f	8d 4d cc	 lea	 ecx, DWORD PTR __k$531743[ebp]
  00342	c7 45 e4 8c 8f
	80 00		 mov	 DWORD PTR __k$531743[ebp+24], 8425356 ; 00808f8cH
  00349	58		 pop	 eax
$LL860@LoadProper:
  0034a	81 31 ed ec eb
	ea		 xor	 DWORD PTR [ecx], -353637139 ; eaebecedH
  00350	83 c1 04	 add	 ecx, 4
  00353	48		 dec	 eax
  00354	75 f4		 jne	 SHORT $LL860@LoadProper
  00356	6a 18		 push	 24			; 00000018H
  00358	58		 pop	 eax
$LL857@LoadProper:
  00359	8b c8		 mov	 ecx, eax
  0035b	81 e1 03 00 00
	80		 and	 ecx, -2147483645	; 80000003H
  00361	79 05		 jns	 SHORT $LN1580@LoadProper
  00363	49		 dec	 ecx
  00364	83 c9 fc	 or	 ecx, -4			; fffffffcH
  00367	41		 inc	 ecx
$LN1580@LoadProper:
  00368	b2 ed		 mov	 dl, -19			; ffffffedH
  0036a	2a d1		 sub	 dl, cl
  0036c	30 54 05 cc	 xor	 BYTE PTR __k$531743[ebp+eax], dl
  00370	40		 inc	 eax
  00371	83 f8 1b	 cmp	 eax, 27			; 0000001bH
  00374	7c e3		 jl	 SHORT $LL857@LoadProper
  00376	89 bd a8 fe ff
	ff		 mov	 DWORD PTR tv13703[ebp], edi
  0037c	db 85 a8 fe ff
	ff		 fild	 DWORD PTR tv13703[ebp]
  00382	85 ff		 test	 edi, edi
  00384	79 06		 jns	 SHORT $LN1581@LoadProper
  00386	d8 05 00 00 00
	00		 fadd	 DWORD PTR __real@4f800000
$LN1581@LoadProper:
  0038c	51		 push	 ecx
  0038d	8d 45 cc	 lea	 eax, DWORD PTR __k$531743[ebp]
  00390	d9 1c 24	 fstp	 DWORD PTR [esp]
  00393	50		 push	 eax
  00394	8b cb		 mov	 ecx, ebx
  00396	ff 15 00 00 00
	00		 call	 DWORD PTR __imp_?LoadFloat@ioINILoader@@QAEMPBDM@Z
  0039c	d9 9e 40 01 00
	00		 fstp	 DWORD PTR [esi+320]

; 78   : 
; 79   : 	m_fDoubleJumpAniRate = rkLoader.LoadFloat_e( "double_jump_ani_rate", FLOAT1 );

  003a2	b8 01 00 00 00	 mov	 eax, 1
  003a7	6a 05		 push	 5
  003a9	c7 45 d4 89 83
	9e 88		 mov	 DWORD PTR __k$531939[ebp], -2002877559 ; 889e8389H
  003b0	c7 45 d8 81 89
	b4 80		 mov	 DWORD PTR __k$531939[ebp+4], -2135651967 ; 80b48981H
  003b7	c7 45 dc 98 81
	9b b5		 mov	 DWORD PTR __k$531939[ebp+8], -1248099944 ; b59b8198H
  003be	c7 45 e0 8c 82
	82 b5		 mov	 DWORD PTR __k$531939[ebp+12], -1249738100 ; b582828cH
  003c5	c7 45 e4 9f 8d
	9f 8f		 mov	 DWORD PTR __k$531939[ebp+16], -1885368929 ; 8f9f8d9fH
  003cc	8d 4d d4	 lea	 ecx, DWORD PTR __k$531939[ebp]
  003cf	c6 45 e8 00	 mov	 BYTE PTR __k$531939[ebp+20], 0
  003d3	5a		 pop	 edx
$LL968@LoadProper:
  003d4	81 31 ed ec eb
	ea		 xor	 DWORD PTR [ecx], -353637139 ; eaebecedH
  003da	83 c1 04	 add	 ecx, 4
  003dd	4a		 dec	 edx
  003de	75 f4		 jne	 SHORT $LL968@LoadProper
  003e0	89 85 a8 fe ff
	ff		 mov	 DWORD PTR tv13695[ebp], eax
  003e6	db 85 a8 fe ff
	ff		 fild	 DWORD PTR tv13695[ebp]
  003ec	85 c0		 test	 eax, eax
  003ee	79 06		 jns	 SHORT $LN1582@LoadProper
  003f0	d8 05 00 00 00
	00		 fadd	 DWORD PTR __real@4f800000
$LN1582@LoadProper:
  003f6	51		 push	 ecx
  003f7	8d 45 d4	 lea	 eax, DWORD PTR __k$531939[ebp]
  003fa	d9 1c 24	 fstp	 DWORD PTR [esp]
  003fd	50		 push	 eax
  003fe	8b cb		 mov	 ecx, ebx
  00400	ff 15 00 00 00
	00		 call	 DWORD PTR __imp_?LoadFloat@ioINILoader@@QAEMPBDM@Z
  00406	d9 9e 44 01 00
	00		 fstp	 DWORD PTR [esi+324]

; 80   : 
; 81   : 	m_vDoubleJumpAniList.clear();

  0040c	8b 86 4c 01 00
	00		 mov	 eax, DWORD PTR [esi+332]
  00412	8b 8e 48 01 00
	00		 mov	 ecx, DWORD PTR [esi+328]
  00418	50		 push	 eax
  00419	51		 push	 ecx
  0041a	8d 85 a8 fe ff
	ff		 lea	 eax, DWORD PTR $T532031[ebp]
  00420	50		 push	 eax
  00421	8d 8e 48 01 00
	00		 lea	 ecx, DWORD PTR [esi+328]
  00427	e8 00 00 00 00	 call	 ?erase@?$vector@VioHashString@@V?$allocator@VioHashString@@@std@@@std@@QAE?AV?$_Vector_iterator@V?$_Vector_val@VioHashString@@V?$allocator@VioHashString@@@std@@@std@@@2@V?$_Vector_const_iterator@V?$_Vector_val@VioHashString@@V?$allocator@VioHashString@@@std@@@std@@@2@0@Z ; std::vector<ioHashString,std::allocator<ioHashString> >::erase

; 82   : 	m_vDoubleJumpAniList.reserve( 4 );

  0042c	6a 04		 push	 4
  0042e	8d 8e 48 01 00
	00		 lea	 ecx, DWORD PTR [esi+328]
  00434	e8 00 00 00 00	 call	 ?reserve@?$vector@VioHashString@@V?$allocator@VioHashString@@@std@@@std@@QAEXI@Z ; std::vector<ioHashString,std::allocator<ioHashString> >::reserve
  00439	6a 06		 push	 6

; 83   : 
; 84   : 	rkLoader.LoadString_e( "double_jump_animation_front", "", szBuf, MAX_PATH );

  0043b	c7 45 cc 89 83
	9e 88		 mov	 DWORD PTR __k$532064[ebp], -2002877559 ; 889e8389H
  00442	c7 45 d0 81 89
	b4 80		 mov	 DWORD PTR __k$532064[ebp+4], -2135651967 ; 80b48981H
  00449	c7 45 d4 98 81
	9b b5		 mov	 DWORD PTR __k$532064[ebp+8], -1248099944 ; b59b8198H
  00450	c7 45 d8 8c 82
	82 87		 mov	 DWORD PTR __k$532064[ebp+12], -2021490036 ; 8782828cH
  00457	c7 45 dc 8c 98
	82 85		 mov	 DWORD PTR __k$532064[ebp+16], -2055038836 ; 8582988cH
  0045e	c7 45 e0 83 b3
	8d 98		 mov	 DWORD PTR __k$532064[ebp+20], -1735543933 ; 988db383H
  00465	8d 45 cc	 lea	 eax, DWORD PTR __k$532064[ebp]
  00468	c7 45 e4 82 82
	9f 00		 mov	 DWORD PTR __k$532064[ebp+24], 10453634 ; 009f8282H
  0046f	59		 pop	 ecx
$LL1092@LoadProper:
  00470	81 30 ed ec eb
	ea		 xor	 DWORD PTR [eax], -353637139 ; eaebecedH
  00476	83 c0 04	 add	 eax, 4
  00479	49		 dec	 ecx
  0047a	75 f4		 jne	 SHORT $LL1092@LoadProper
  0047c	6a 18		 push	 24			; 00000018H
  0047e	5f		 pop	 edi
$LL1089@LoadProper:
  0047f	8b c7		 mov	 eax, edi
  00481	25 03 00 00 80	 and	 eax, -2147483645	; 80000003H
  00486	79 05		 jns	 SHORT $LN1583@LoadProper
  00488	48		 dec	 eax
  00489	83 c8 fc	 or	 eax, -4			; fffffffcH
  0048c	40		 inc	 eax
$LN1583@LoadProper:
  0048d	b1 ed		 mov	 cl, -19			; ffffffedH
  0048f	2a c8		 sub	 cl, al
  00491	30 4c 3d cc	 xor	 BYTE PTR __k$532064[ebp+edi], cl
  00495	47		 inc	 edi
  00496	83 ff 1b	 cmp	 edi, 27			; 0000001bH
  00499	7c e4		 jl	 SHORT $LL1089@LoadProper
  0049b	8b 3d 00 00 00
	00		 mov	 edi, DWORD PTR __imp_?LoadStringA@ioINILoader@@QAEXPBD0PADH@Z
  004a1	68 04 01 00 00	 push	 260			; 00000104H
  004a6	8d 85 b0 fe ff
	ff		 lea	 eax, DWORD PTR _szBuf$[ebp]
  004ac	50		 push	 eax
  004ad	68 00 00 00 00	 push	 OFFSET ??_C@_00CNPNBAHC@?$AA@
  004b2	8d 45 cc	 lea	 eax, DWORD PTR __k$532064[ebp]
  004b5	50		 push	 eax
  004b6	8b cb		 mov	 ecx, ebx
  004b8	ff d7		 call	 edi

; 85   : 	m_vDoubleJumpAniList.push_back( ioHashString(szBuf) );

  004ba	8b 1d 00 00 00
	00		 mov	 ebx, DWORD PTR __imp_??0ioHashString@@QAE@PBD@Z
  004c0	8d 85 b0 fe ff
	ff		 lea	 eax, DWORD PTR _szBuf$[ebp]
  004c6	50		 push	 eax
  004c7	8d 4d dc	 lea	 ecx, DWORD PTR $T530820[ebp]
  004ca	ff d3		 call	 ebx
  004cc	83 65 fc 00	 and	 DWORD PTR __$EHRec$[ebp+8], 0
  004d0	50		 push	 eax
  004d1	8d 8e 48 01 00
	00		 lea	 ecx, DWORD PTR [esi+328]
  004d7	e8 00 00 00 00	 call	 ?push_back@?$vector@VioHashString@@V?$allocator@VioHashString@@@std@@@std@@QAEX$$QAVioHashString@@@Z ; std::vector<ioHashString,std::allocator<ioHashString> >::push_back
  004dc	83 4d fc ff	 or	 DWORD PTR __$EHRec$[ebp+8], -1
  004e0	8d 4d dc	 lea	 ecx, DWORD PTR $T530820[ebp]
  004e3	ff 15 00 00 00
	00		 call	 DWORD PTR __imp_??1ioHashString@@QAE@XZ
  004e9	6a 06		 push	 6

; 86   : 	rkLoader.LoadString_e( "double_jump_animation_right", "", szBuf, MAX_PATH );

  004eb	c7 45 cc 89 83
	9e 88		 mov	 DWORD PTR __k$532189[ebp], -2002877559 ; 889e8389H
  004f2	c7 45 d0 81 89
	b4 80		 mov	 DWORD PTR __k$532189[ebp+4], -2135651967 ; 80b48981H
  004f9	c7 45 d4 98 81
	9b b5		 mov	 DWORD PTR __k$532189[ebp+8], -1248099944 ; b59b8198H
  00500	c7 45 d8 8c 82
	82 87		 mov	 DWORD PTR __k$532189[ebp+12], -2021490036 ; 8782828cH
  00507	c7 45 dc 8c 98
	82 85		 mov	 DWORD PTR __k$532189[ebp+16], -2055038836 ; 8582988cH
  0050e	c7 45 e0 83 b3
	99 83		 mov	 DWORD PTR __k$532189[ebp+20], -2087079037 ; 8399b383H
  00515	8d 45 cc	 lea	 eax, DWORD PTR __k$532189[ebp]
  00518	c7 45 e4 8a 84
	9f 00		 mov	 DWORD PTR __k$532189[ebp+24], 10454154 ; 009f848aH
  0051f	59		 pop	 ecx
$LL1198@LoadProper:
  00520	81 30 ed ec eb
	ea		 xor	 DWORD PTR [eax], -353637139 ; eaebecedH
  00526	83 c0 04	 add	 eax, 4
  00529	49		 dec	 ecx
  0052a	75 f4		 jne	 SHORT $LL1198@LoadProper
  0052c	6a 18		 push	 24			; 00000018H
  0052e	58		 pop	 eax
$LL1195@LoadProper:
  0052f	8b c8		 mov	 ecx, eax
  00531	81 e1 03 00 00
	80		 and	 ecx, -2147483645	; 80000003H
  00537	79 05		 jns	 SHORT $LN1584@LoadProper
  00539	49		 dec	 ecx
  0053a	83 c9 fc	 or	 ecx, -4			; fffffffcH
  0053d	41		 inc	 ecx
$LN1584@LoadProper:
  0053e	b2 ed		 mov	 dl, -19			; ffffffedH
  00540	2a d1		 sub	 dl, cl
  00542	30 54 05 cc	 xor	 BYTE PTR __k$532189[ebp+eax], dl
  00546	40		 inc	 eax
  00547	83 f8 1b	 cmp	 eax, 27			; 0000001bH
  0054a	7c e3		 jl	 SHORT $LL1195@LoadProper
  0054c	8b 8d ac fe ff
	ff		 mov	 ecx, DWORD PTR _rkLoader$GSCopy$[ebp]
  00552	68 04 01 00 00	 push	 260			; 00000104H
  00557	8d 85 b0 fe ff
	ff		 lea	 eax, DWORD PTR _szBuf$[ebp]
  0055d	50		 push	 eax
  0055e	68 00 00 00 00	 push	 OFFSET ??_C@_00CNPNBAHC@?$AA@
  00563	8d 45 cc	 lea	 eax, DWORD PTR __k$532189[ebp]
  00566	50		 push	 eax
  00567	ff d7		 call	 edi

; 87   : 	m_vDoubleJumpAniList.push_back( ioHashString(szBuf) );

  00569	8d 85 b0 fe ff
	ff		 lea	 eax, DWORD PTR _szBuf$[ebp]
  0056f	50		 push	 eax
  00570	8d 4d dc	 lea	 ecx, DWORD PTR $T530821[ebp]
  00573	ff d3		 call	 ebx
  00575	50		 push	 eax
  00576	8d 8e 48 01 00
	00		 lea	 ecx, DWORD PTR [esi+328]
  0057c	c7 45 fc 01 00
	00 00		 mov	 DWORD PTR __$EHRec$[ebp+8], 1
  00583	e8 00 00 00 00	 call	 ?push_back@?$vector@VioHashString@@V?$allocator@VioHashString@@@std@@@std@@QAEX$$QAVioHashString@@@Z ; std::vector<ioHashString,std::allocator<ioHashString> >::push_back
  00588	83 4d fc ff	 or	 DWORD PTR __$EHRec$[ebp+8], -1
  0058c	8d 4d dc	 lea	 ecx, DWORD PTR $T530821[ebp]
  0058f	ff 15 00 00 00
	00		 call	 DWORD PTR __imp_??1ioHashString@@QAE@XZ
  00595	6a 06		 push	 6

; 88   : 	rkLoader.LoadString_e( "double_jump_animation_back", "", szBuf, MAX_PATH );

  00597	c7 45 cc 89 83
	9e 88		 mov	 DWORD PTR __k$532314[ebp], -2002877559 ; 889e8389H
  0059e	c7 45 d0 81 89
	b4 80		 mov	 DWORD PTR __k$532314[ebp+4], -2135651967 ; 80b48981H
  005a5	c7 45 d4 98 81
	9b b5		 mov	 DWORD PTR __k$532314[ebp+8], -1248099944 ; b59b8198H
  005ac	c7 45 d8 8c 82
	82 87		 mov	 DWORD PTR __k$532314[ebp+12], -2021490036 ; 8782828cH
  005b3	c7 45 dc 8c 98
	82 85		 mov	 DWORD PTR __k$532314[ebp+16], -2055038836 ; 8582988cH
  005ba	c7 45 e0 83 b3
	89 8b		 mov	 DWORD PTR __k$532314[ebp+20], -1953909885 ; 8b89b383H
  005c1	66 c7 45 e4 8e
	87		 mov	 WORD PTR __k$532314[ebp+24], 34702 ; 0000878eH
  005c7	8d 45 cc	 lea	 eax, DWORD PTR __k$532314[ebp]
  005ca	c6 45 e6 00	 mov	 BYTE PTR __k$532314[ebp+26], 0
  005ce	59		 pop	 ecx
$LL1304@LoadProper:
  005cf	81 30 ed ec eb
	ea		 xor	 DWORD PTR [eax], -353637139 ; eaebecedH
  005d5	83 c0 04	 add	 eax, 4
  005d8	49		 dec	 ecx
  005d9	75 f4		 jne	 SHORT $LL1304@LoadProper
  005db	6a 18		 push	 24			; 00000018H
  005dd	58		 pop	 eax
$LL1301@LoadProper:
  005de	8b c8		 mov	 ecx, eax
  005e0	81 e1 03 00 00
	80		 and	 ecx, -2147483645	; 80000003H
  005e6	79 05		 jns	 SHORT $LN1585@LoadProper
  005e8	49		 dec	 ecx
  005e9	83 c9 fc	 or	 ecx, -4			; fffffffcH
  005ec	41		 inc	 ecx
$LN1585@LoadProper:
  005ed	b2 ed		 mov	 dl, -19			; ffffffedH
  005ef	2a d1		 sub	 dl, cl
  005f1	30 54 05 cc	 xor	 BYTE PTR __k$532314[ebp+eax], dl
  005f5	40		 inc	 eax
  005f6	83 f8 1a	 cmp	 eax, 26			; 0000001aH
  005f9	7c e3		 jl	 SHORT $LL1301@LoadProper
  005fb	8b 8d ac fe ff
	ff		 mov	 ecx, DWORD PTR _rkLoader$GSCopy$[ebp]
  00601	68 04 01 00 00	 push	 260			; 00000104H
  00606	8d 85 b0 fe ff
	ff		 lea	 eax, DWORD PTR _szBuf$[ebp]
  0060c	50		 push	 eax
  0060d	68 00 00 00 00	 push	 OFFSET ??_C@_00CNPNBAHC@?$AA@
  00612	8d 45 cc	 lea	 eax, DWORD PTR __k$532314[ebp]
  00615	50		 push	 eax
  00616	ff d7		 call	 edi

; 89   : 	m_vDoubleJumpAniList.push_back( ioHashString(szBuf) );

  00618	8d 85 b0 fe ff
	ff		 lea	 eax, DWORD PTR _szBuf$[ebp]
  0061e	50		 push	 eax
  0061f	8d 4d dc	 lea	 ecx, DWORD PTR $T530822[ebp]
  00622	ff d3		 call	 ebx
  00624	50		 push	 eax
  00625	8d 8e 48 01 00
	00		 lea	 ecx, DWORD PTR [esi+328]
  0062b	c7 45 fc 02 00
	00 00		 mov	 DWORD PTR __$EHRec$[ebp+8], 2
  00632	e8 00 00 00 00	 call	 ?push_back@?$vector@VioHashString@@V?$allocator@VioHashString@@@std@@@std@@QAEX$$QAVioHashString@@@Z ; std::vector<ioHashString,std::allocator<ioHashString> >::push_back
  00637	83 4d fc ff	 or	 DWORD PTR __$EHRec$[ebp+8], -1
  0063b	8d 4d dc	 lea	 ecx, DWORD PTR $T530822[ebp]
  0063e	ff 15 00 00 00
	00		 call	 DWORD PTR __imp_??1ioHashString@@QAE@XZ
  00644	6a 06		 push	 6

; 90   : 	rkLoader.LoadString_e( "double_jump_animation_left", "", szBuf, MAX_PATH );

  00646	c7 45 cc 89 83
	9e 88		 mov	 DWORD PTR __k$532439[ebp], -2002877559 ; 889e8389H
  0064d	c7 45 d0 81 89
	b4 80		 mov	 DWORD PTR __k$532439[ebp+4], -2135651967 ; 80b48981H
  00654	c7 45 d4 98 81
	9b b5		 mov	 DWORD PTR __k$532439[ebp+8], -1248099944 ; b59b8198H
  0065b	c7 45 d8 8c 82
	82 87		 mov	 DWORD PTR __k$532439[ebp+12], -2021490036 ; 8782828cH
  00662	c7 45 dc 8c 98
	82 85		 mov	 DWORD PTR __k$532439[ebp+16], -2055038836 ; 8582988cH
  00669	c7 45 e0 83 b3
	87 8f		 mov	 DWORD PTR __k$532439[ebp+20], -1886932093 ; 8f87b383H
  00670	66 c7 45 e4 8b
	98		 mov	 WORD PTR __k$532439[ebp+24], 39051 ; 0000988bH
  00676	8d 45 cc	 lea	 eax, DWORD PTR __k$532439[ebp]
  00679	c6 45 e6 00	 mov	 BYTE PTR __k$532439[ebp+26], 0
  0067d	59		 pop	 ecx
$LL1410@LoadProper:
  0067e	81 30 ed ec eb
	ea		 xor	 DWORD PTR [eax], -353637139 ; eaebecedH
  00684	83 c0 04	 add	 eax, 4
  00687	49		 dec	 ecx
  00688	75 f4		 jne	 SHORT $LL1410@LoadProper
  0068a	6a 18		 push	 24			; 00000018H
  0068c	58		 pop	 eax
$LL1407@LoadProper:
  0068d	8b c8		 mov	 ecx, eax
  0068f	81 e1 03 00 00
	80		 and	 ecx, -2147483645	; 80000003H
  00695	79 05		 jns	 SHORT $LN1586@LoadProper
  00697	49		 dec	 ecx
  00698	83 c9 fc	 or	 ecx, -4			; fffffffcH
  0069b	41		 inc	 ecx
$LN1586@LoadProper:
  0069c	b2 ed		 mov	 dl, -19			; ffffffedH
  0069e	2a d1		 sub	 dl, cl
  006a0	30 54 05 cc	 xor	 BYTE PTR __k$532439[ebp+eax], dl
  006a4	40		 inc	 eax
  006a5	83 f8 1a	 cmp	 eax, 26			; 0000001aH
  006a8	7c e3		 jl	 SHORT $LL1407@LoadProper
  006aa	8b 8d ac fe ff
	ff		 mov	 ecx, DWORD PTR _rkLoader$GSCopy$[ebp]
  006b0	68 04 01 00 00	 push	 260			; 00000104H
  006b5	8d 85 b0 fe ff
	ff		 lea	 eax, DWORD PTR _szBuf$[ebp]
  006bb	50		 push	 eax
  006bc	68 00 00 00 00	 push	 OFFSET ??_C@_00CNPNBAHC@?$AA@
  006c1	8d 45 cc	 lea	 eax, DWORD PTR __k$532439[ebp]
  006c4	50		 push	 eax
  006c5	ff d7		 call	 edi

; 91   : 	m_vDoubleJumpAniList.push_back( ioHashString(szBuf) );

  006c7	8d 85 b0 fe ff
	ff		 lea	 eax, DWORD PTR _szBuf$[ebp]
  006cd	50		 push	 eax
  006ce	8d 4d dc	 lea	 ecx, DWORD PTR $T530823[ebp]
  006d1	ff d3		 call	 ebx
  006d3	50		 push	 eax
  006d4	8d 8e 48 01 00
	00		 lea	 ecx, DWORD PTR [esi+328]
  006da	c7 45 fc 03 00
	00 00		 mov	 DWORD PTR __$EHRec$[ebp+8], 3
  006e1	e8 00 00 00 00	 call	 ?push_back@?$vector@VioHashString@@V?$allocator@VioHashString@@@std@@@std@@QAEX$$QAVioHashString@@@Z ; std::vector<ioHashString,std::allocator<ioHashString> >::push_back
  006e6	83 4d fc ff	 or	 DWORD PTR __$EHRec$[ebp+8], -1
  006ea	8d 4d dc	 lea	 ecx, DWORD PTR $T530823[ebp]
  006ed	ff 15 00 00 00
	00		 call	 DWORD PTR __imp_??1ioHashString@@QAE@XZ

; 92   : 
; 93   : 	// Dash JumpAttack
; 94   : 	m_DashJumpAttack.Init();

  006f3	81 c6 64 01 00
	00		 add	 esi, 356		; 00000164H
  006f9	8b ce		 mov	 ecx, esi
  006fb	e8 00 00 00 00	 call	 ?Init@AttackAttribute@@QAEXXZ ; AttackAttribute::Init
  00700	6a 04		 push	 4

; 95   : 	LoadAttackAttribute_e( "dash_jump_attack", m_DashJumpAttack, rkLoader );

  00702	c7 45 b4 89 8d
	98 82		 mov	 DWORD PTR _szEncAttack$532577[ebp], -2103931511 ; 82988d89H
  00709	c7 45 b8 b2 86
	9e 87		 mov	 DWORD PTR _szEncAttack$532577[ebp+4], -2019653966 ; 879e86b2H
  00710	c7 45 bc 9d b3
	8a 9e		 mov	 DWORD PTR _szEncAttack$532577[ebp+8], -1635077219 ; 9e8ab39dH
  00717	c7 45 c0 99 8d
	88 81		 mov	 DWORD PTR _szEncAttack$532577[ebp+12], -2121757287 ; 81888d99H
  0071e	8d 45 b4	 lea	 eax, DWORD PTR _szEncAttack$532577[ebp]
  00721	c6 45 c4 00	 mov	 BYTE PTR _szEncAttack$532577[ebp+16], 0
  00725	59		 pop	 ecx
$LL1516@LoadProper:
  00726	81 30 ed ec eb
	ea		 xor	 DWORD PTR [eax], -353637139 ; eaebecedH
  0072c	83 c0 04	 add	 eax, 4
  0072f	49		 dec	 ecx
  00730	75 f4		 jne	 SHORT $LL1516@LoadProper
  00732	ff b5 ac fe ff
	ff		 push	 DWORD PTR _rkLoader$GSCopy$[ebp]
  00738	8d 45 b4	 lea	 eax, DWORD PTR _szEncAttack$532577[ebp]
  0073b	56		 push	 esi
  0073c	50		 push	 eax
  0073d	e8 00 00 00 00	 call	 ?LoadAttackAttribute@@YAXPBDAAUAttackAttribute@@AAVioINILoader@@@Z ; LoadAttackAttribute
  00742	83 c4 0c	 add	 esp, 12			; 0000000cH

; 96   : }

  00745	e8 00 00 00 00	 call	 __EH_epilog3_GS
  0074a	c2 04 00	 ret	 4
_TEXT	ENDS
;	COMDAT text$x
text$x	SEGMENT
__unwindfunclet$?LoadProperty@ioKisaragiJump@@UAEXAAVioINILoader@@@Z$0:
  00000	8d 4d dc	 lea	 ecx, DWORD PTR $T530820[ebp]
  00003	ff 25 00 00 00
	00		 jmp	 DWORD PTR __imp_??1ioHashString@@QAE@XZ
__unwindfunclet$?LoadProperty@ioKisaragiJump@@UAEXAAVioINILoader@@@Z$1:
  00009	8d 4d dc	 lea	 ecx, DWORD PTR $T530821[ebp]
  0000c	ff 25 00 00 00
	00		 jmp	 DWORD PTR __imp_??1ioHashString@@QAE@XZ
__unwindfunclet$?LoadProperty@ioKisaragiJump@@UAEXAAVioINILoader@@@Z$2:
  00012	8d 4d dc	 lea	 ecx, DWORD PTR $T530822[ebp]
  00015	ff 25 00 00 00
	00		 jmp	 DWORD PTR __imp_??1ioHashString@@QAE@XZ
__unwindfunclet$?LoadProperty@ioKisaragiJump@@UAEXAAVioINILoader@@@Z$3:
  0001b	8d 4d dc	 lea	 ecx, DWORD PTR $T530823[ebp]
  0001e	ff 25 00 00 00
	00		 jmp	 DWORD PTR __imp_??1ioHashString@@QAE@XZ
__ehhandler$?LoadProperty@ioKisaragiJump@@UAEXAAVioINILoader@@@Z:
  00024	8b 54 24 08	 mov	 edx, DWORD PTR [esp+8]
  00028	8d 42 0c	 lea	 eax, DWORD PTR [edx+12]
  0002b	8b 8a a4 fe ff
	ff		 mov	 ecx, DWORD PTR [edx-348]
  00031	33 c8		 xor	 ecx, eax
  00033	e8 00 00 00 00	 call	 @__security_check_cookie@4
  00038	8b 4a fc	 mov	 ecx, DWORD PTR [edx-4]
  0003b	33 c8		 xor	 ecx, eax
  0003d	e8 00 00 00 00	 call	 @__security_check_cookie@4
  00042	b8 00 00 00 00	 mov	 eax, OFFSET __ehfuncinfo$?LoadProperty@ioKisaragiJump@@UAEXAAVioINILoader@@@Z
  00047	e9 00 00 00 00	 jmp	 ___CxxFrameHandler3
text$x	ENDS
?LoadProperty@ioKisaragiJump@@UAEXAAVioINILoader@@@Z ENDP ; ioKisaragiJump::LoadProperty
PUBLIC	??0AttackAttribute@@QAE@XZ			; AttackAttribute::AttackAttribute
EXTRN	__imp_??0ioHashString@@QAE@XZ:PROC
;	COMDAT xdata$x
; File c:\program files (x86)\microsoft visual studio 10.0\vc\include\xmemory
xdata$x	SEGMENT
__unwindtable$??0AttackAttribute@@QAE@XZ DD 0ffffffffH
	DD	FLAT:__unwindfunclet$??0AttackAttribute@@QAE@XZ$0
	DD	00H
	DD	FLAT:__unwindfunclet$??0AttackAttribute@@QAE@XZ$1
	DD	01H
	DD	FLAT:__unwindfunclet$??0AttackAttribute@@QAE@XZ$2
	DD	02H
	DD	FLAT:__unwindfunclet$??0AttackAttribute@@QAE@XZ$3
__ehfuncinfo$??0AttackAttribute@@QAE@XZ DD 019930522H
	DD	04H
	DD	FLAT:__unwindtable$??0AttackAttribute@@QAE@XZ
	DD	2 DUP(00H)
	DD	2 DUP(00H)
	DD	00H
	DD	01H
; Function compile flags: /Ogsp
; File d:\lost saga for developer\youtube\tutorial\source\src\lsclient\ioattackattribute.h
xdata$x	ENDS
;	COMDAT ??0AttackAttribute@@QAE@XZ
_TEXT	SEGMENT
_this$ = -16						; size = 4
__$EHRec$ = -12						; size = 12
??0AttackAttribute@@QAE@XZ PROC				; AttackAttribute::AttackAttribute, COMDAT
; _this$ = ecx

; 107  : 	AttackAttribute()

  00000	6a 04		 push	 4
  00002	b8 00 00 00 00	 mov	 eax, __ehhandler$??0AttackAttribute@@QAE@XZ
  00007	e8 00 00 00 00	 call	 __EH_prolog3
  0000c	8b f1		 mov	 esi, ecx
  0000e	89 75 f0	 mov	 DWORD PTR _this$[ebp], esi
  00011	8b 3d 00 00 00
	00		 mov	 edi, DWORD PTR __imp_??0ioHashString@@QAE@XZ
  00017	ff d7		 call	 edi
  00019	33 db		 xor	 ebx, ebx
  0001b	8d 4e 14	 lea	 ecx, DWORD PTR [esi+20]
  0001e	89 5d fc	 mov	 DWORD PTR __$EHRec$[ebp+8], ebx
  00021	ff d7		 call	 edi
  00023	89 5e 28	 mov	 DWORD PTR [esi+40], ebx
  00026	89 5e 2c	 mov	 DWORD PTR [esi+44], ebx
  00029	89 5e 30	 mov	 DWORD PTR [esi+48], ebx
  0002c	89 5e 38	 mov	 DWORD PTR [esi+56], ebx
  0002f	89 5e 3c	 mov	 DWORD PTR [esi+60], ebx
  00032	89 5e 40	 mov	 DWORD PTR [esi+64], ebx

; 108  : 	{
; 109  : 		Init();

  00035	8b ce		 mov	 ecx, esi
  00037	c6 45 fc 03	 mov	 BYTE PTR __$EHRec$[ebp+8], 3
  0003b	e8 00 00 00 00	 call	 ?Init@AttackAttribute@@QAEXXZ ; AttackAttribute::Init

; 110  : 	}

  00040	8b c6		 mov	 eax, esi
  00042	e8 00 00 00 00	 call	 __EH_epilog3
  00047	c3		 ret	 0
_TEXT	ENDS
;	COMDAT text$x
text$x	SEGMENT
__unwindfunclet$??0AttackAttribute@@QAE@XZ$0:
  00000	8b 4d f0	 mov	 ecx, DWORD PTR _this$[ebp]
  00003	ff 25 00 00 00
	00		 jmp	 DWORD PTR __imp_??1ioHashString@@QAE@XZ
__unwindfunclet$??0AttackAttribute@@QAE@XZ$1:
  00009	8b 4d f0	 mov	 ecx, DWORD PTR _this$[ebp]
  0000c	83 c1 14	 add	 ecx, 20			; 00000014H
  0000f	ff 25 00 00 00
	00		 jmp	 DWORD PTR __imp_??1ioHashString@@QAE@XZ
__unwindfunclet$??0AttackAttribute@@QAE@XZ$2:
  00015	8b 4d f0	 mov	 ecx, DWORD PTR _this$[ebp]
  00018	83 c1 28	 add	 ecx, 40			; 00000028H
  0001b	e9 00 00 00 00	 jmp	 ??1?$vector@UWeaponInfo@@V?$allocator@UWeaponInfo@@@std@@@std@@QAE@XZ ; std::vector<WeaponInfo,std::allocator<WeaponInfo> >::~vector<WeaponInfo,std::allocator<WeaponInfo> >
__unwindfunclet$??0AttackAttribute@@QAE@XZ$3:
  00020	8b 4d f0	 mov	 ecx, DWORD PTR _this$[ebp]
  00023	83 c1 38	 add	 ecx, 56			; 00000038H
  00026	e9 00 00 00 00	 jmp	 ??1?$vector@UForceInfo@@V?$allocator@UForceInfo@@@std@@@std@@QAE@XZ ; std::vector<ForceInfo,std::allocator<ForceInfo> >::~vector<ForceInfo,std::allocator<ForceInfo> >
__ehhandler$??0AttackAttribute@@QAE@XZ:
  0002b	8b 54 24 08	 mov	 edx, DWORD PTR [esp+8]
  0002f	8d 42 0c	 lea	 eax, DWORD PTR [edx+12]
  00032	8b 4a ec	 mov	 ecx, DWORD PTR [edx-20]
  00035	33 c8		 xor	 ecx, eax
  00037	e8 00 00 00 00	 call	 @__security_check_cookie@4
  0003c	b8 00 00 00 00	 mov	 eax, OFFSET __ehfuncinfo$??0AttackAttribute@@QAE@XZ
  00041	e9 00 00 00 00	 jmp	 ___CxxFrameHandler3
text$x	ENDS
??0AttackAttribute@@QAE@XZ ENDP				; AttackAttribute::AttackAttribute
PUBLIC	??1AttackAttribute@@QAE@XZ			; AttackAttribute::~AttackAttribute
;	COMDAT xdata$x
xdata$x	SEGMENT
__unwindtable$??1AttackAttribute@@QAE@XZ DD 0ffffffffH
	DD	FLAT:__unwindfunclet$??1AttackAttribute@@QAE@XZ$0
	DD	00H
	DD	FLAT:__unwindfunclet$??1AttackAttribute@@QAE@XZ$1
	DD	01H
	DD	FLAT:__unwindfunclet$??1AttackAttribute@@QAE@XZ$2
__ehfuncinfo$??1AttackAttribute@@QAE@XZ DD 019930522H
	DD	03H
	DD	FLAT:__unwindtable$??1AttackAttribute@@QAE@XZ
	DD	2 DUP(00H)
	DD	2 DUP(00H)
	DD	00H
	DD	01H
; Function compile flags: /Ogsp
xdata$x	ENDS
;	COMDAT ??1AttackAttribute@@QAE@XZ
_TEXT	SEGMENT
_this$ = -16						; size = 4
__$EHRec$ = -12						; size = 12
??1AttackAttribute@@QAE@XZ PROC				; AttackAttribute::~AttackAttribute, COMDAT
; _this$ = ecx
  00000	6a 04		 push	 4
  00002	b8 00 00 00 00	 mov	 eax, __ehhandler$??1AttackAttribute@@QAE@XZ
  00007	e8 00 00 00 00	 call	 __EH_prolog3
  0000c	8b f1		 mov	 esi, ecx
  0000e	89 75 f0	 mov	 DWORD PTR _this$[ebp], esi
  00011	8d 4e 38	 lea	 ecx, DWORD PTR [esi+56]
  00014	c7 45 fc 02 00
	00 00		 mov	 DWORD PTR __$EHRec$[ebp+8], 2
  0001b	e8 00 00 00 00	 call	 ?_Tidy@?$vector@UForceInfo@@V?$allocator@UForceInfo@@@std@@@std@@IAEXXZ ; std::vector<ForceInfo,std::allocator<ForceInfo> >::_Tidy
  00020	8d 4e 28	 lea	 ecx, DWORD PTR [esi+40]
  00023	c6 45 fc 01	 mov	 BYTE PTR __$EHRec$[ebp+8], 1
  00027	e8 00 00 00 00	 call	 ?_Tidy@?$vector@UWeaponInfo@@V?$allocator@UWeaponInfo@@@std@@@std@@IAEXXZ ; std::vector<WeaponInfo,std::allocator<WeaponInfo> >::_Tidy
  0002c	8b 3d 00 00 00
	00		 mov	 edi, DWORD PTR __imp_??1ioHashString@@QAE@XZ
  00032	8d 4e 14	 lea	 ecx, DWORD PTR [esi+20]
  00035	c6 45 fc 00	 mov	 BYTE PTR __$EHRec$[ebp+8], 0
  00039	ff d7		 call	 edi
  0003b	83 4d fc ff	 or	 DWORD PTR __$EHRec$[ebp+8], -1
  0003f	8b ce		 mov	 ecx, esi
  00041	ff d7		 call	 edi
  00043	e8 00 00 00 00	 call	 __EH_epilog3
  00048	c3		 ret	 0
_TEXT	ENDS
;	COMDAT text$x
text$x	SEGMENT
__unwindfunclet$??1AttackAttribute@@QAE@XZ$0:
  00000	8b 4d f0	 mov	 ecx, DWORD PTR _this$[ebp]
  00003	ff 25 00 00 00
	00		 jmp	 DWORD PTR __imp_??1ioHashString@@QAE@XZ
__unwindfunclet$??1AttackAttribute@@QAE@XZ$1:
  00009	8b 4d f0	 mov	 ecx, DWORD PTR _this$[ebp]
  0000c	83 c1 14	 add	 ecx, 20			; 00000014H
  0000f	ff 25 00 00 00
	00		 jmp	 DWORD PTR __imp_??1ioHashString@@QAE@XZ
__unwindfunclet$??1AttackAttribute@@QAE@XZ$2:
  00015	8b 4d f0	 mov	 ecx, DWORD PTR _this$[ebp]
  00018	83 c1 28	 add	 ecx, 40			; 00000028H
  0001b	e9 00 00 00 00	 jmp	 ??1?$vector@UWeaponInfo@@V?$allocator@UWeaponInfo@@@std@@@std@@QAE@XZ ; std::vector<WeaponInfo,std::allocator<WeaponInfo> >::~vector<WeaponInfo,std::allocator<WeaponInfo> >
__ehhandler$??1AttackAttribute@@QAE@XZ:
  00020	8b 54 24 08	 mov	 edx, DWORD PTR [esp+8]
  00024	8d 42 0c	 lea	 eax, DWORD PTR [edx+12]
  00027	8b 4a ec	 mov	 ecx, DWORD PTR [edx-20]
  0002a	33 c8		 xor	 ecx, eax
  0002c	e8 00 00 00 00	 call	 @__security_check_cookie@4
  00031	b8 00 00 00 00	 mov	 eax, OFFSET __ehfuncinfo$??1AttackAttribute@@QAE@XZ
  00036	e9 00 00 00 00	 jmp	 ___CxxFrameHandler3
text$x	ENDS
??1AttackAttribute@@QAE@XZ ENDP				; AttackAttribute::~AttackAttribute
PUBLIC	??_7ioKisaragiJump@@6B@				; ioKisaragiJump::`vftable'
PUBLIC	??0ioKisaragiJump@@QAE@XZ			; ioKisaragiJump::ioKisaragiJump
PUBLIC	??_R4ioKisaragiJump@@6B@			; ioKisaragiJump::`RTTI Complete Object Locator'
PUBLIC	??_R0?AVioKisaragiJump@@@8			; ioKisaragiJump `RTTI Type Descriptor'
PUBLIC	??_R3ioKisaragiJump@@8				; ioKisaragiJump::`RTTI Class Hierarchy Descriptor'
PUBLIC	??_R2ioKisaragiJump@@8				; ioKisaragiJump::`RTTI Base Class Array'
PUBLIC	??_R1A@?0A@EA@ioKisaragiJump@@8			; ioKisaragiJump::`RTTI Base Class Descriptor at (0,-1,0,64)'
PUBLIC	??_R1A@?0A@EA@ioExtendJump@@8			; ioExtendJump::`RTTI Base Class Descriptor at (0,-1,0,64)'
PUBLIC	??_R0?AVioExtendJump@@@8			; ioExtendJump `RTTI Type Descriptor'
PUBLIC	??_R3ioExtendJump@@8				; ioExtendJump::`RTTI Class Hierarchy Descriptor'
PUBLIC	??_R2ioExtendJump@@8				; ioExtendJump::`RTTI Base Class Array'
PUBLIC	?Clone@ioKisaragiJump@@UAEPAVioExtendJump@@XZ	; ioKisaragiJump::Clone
EXTRN	??1ioExtendJump@@UAE@XZ:PROC			; ioExtendJump::~ioExtendJump
EXTRN	??0ioExtendJump@@QAE@XZ:PROC			; ioExtendJump::ioExtendJump
EXTRN	?SetJumpState@ioExtendJump@@UAEXXZ:PROC		; ioExtendJump::SetJumpState
EXTRN	?ProcessJumpReady@ioExtendJump@@UAEXPAVioBaseChar@@@Z:PROC ; ioExtendJump::ProcessJumpReady
EXTRN	?SetJumpAttack@ioExtendJump@@UAEXPAVioBaseChar@@HM@Z:PROC ; ioExtendJump::SetJumpAttack
EXTRN	?ProcessLanding@ioExtendJump@@UAEXPAVioBaseChar@@@Z:PROC ; ioExtendJump::ProcessLanding
EXTRN	?ProcessJumpAttack@ioExtendJump@@UAEXPAVioBaseChar@@M@Z:PROC ; ioExtendJump::ProcessJumpAttack
EXTRN	?ProcessAimJump@ioExtendJump@@UAE_NPAVioBaseChar@@M@Z:PROC ; ioExtendJump::ProcessAimJump
EXTRN	?OnEndExtendJump@ioExtendJump@@UAEXPAVioBaseChar@@@Z:PROC ; ioExtendJump::OnEndExtendJump
EXTRN	?CheckComboJumpAttack@ioExtendJump@@UAEXPAVioBaseChar@@@Z:PROC ; ioExtendJump::CheckComboJumpAttack
EXTRN	?GetJumpAniDefenseWounded@ioExtendJump@@UAE?AVioHashString@@XZ:PROC ; ioExtendJump::GetJumpAniDefenseWounded
EXTRN	?GetJumpAniDefenseCriticalWounded@ioExtendJump@@UAE?AVioHashString@@XZ:PROC ; ioExtendJump::GetJumpAniDefenseCriticalWounded
EXTRN	?IsCanJumpingSkill@ioExtendJump@@UAE_NPAVioBaseChar@@@Z:PROC ; ioExtendJump::IsCanJumpingSkill
EXTRN	?IsEnableLandAfterState@ioExtendJump@@UAE_NXZ:PROC ; ioExtendJump::IsEnableLandAfterState
EXTRN	?IsEnableJumpLandEndDash@ioExtendJump@@UAE_NXZ:PROC ; ioExtendJump::IsEnableJumpLandEndDash
EXTRN	?IsEnableJumpDash@ioExtendJump@@UAE_NPAVioBaseChar@@@Z:PROC ; ioExtendJump::IsEnableJumpDash
EXTRN	?GetLandAfterAni@ioExtendJump@@UAEABVioHashString@@_N@Z:PROC ; ioExtendJump::GetLandAfterAni
EXTRN	?GetLandAfterAniRate@ioExtendJump@@UAEM_N@Z:PROC ; ioExtendJump::GetLandAfterAniRate
EXTRN	?SetNextJumpItemState@ioExtendJump@@UAEXPAVioBaseChar@@0_NW4ChangeNextItemType@@PAVioWeapon@@M@Z:PROC ; ioExtendJump::SetNextJumpItemState
EXTRN	?SetExtraJump@ioExtendJump@@UAEXPAVioBaseChar@@@Z:PROC ; ioExtendJump::SetExtraJump
EXTRN	?ProcessExtraJump@ioExtendJump@@UAEXPAVioBaseChar@@@Z:PROC ; ioExtendJump::ProcessExtraJump
EXTRN	?ClearAirJump@ioExtendJump@@MAEXXZ:PROC		; ioExtendJump::ClearAirJump
EXTRN	?SetAirJump@ioExtendJump@@MAEXPAVioBaseChar@@HM@Z:PROC ; ioExtendJump::SetAirJump
EXTRN	?CheckAirJump@ioExtendJump@@MAEXPAVioBaseChar@@@Z:PROC ; ioExtendJump::CheckAirJump
EXTRN	?CheckCanUseBuffAirDash@ioExtendJump@@UAE_NXZ:PROC ; ioExtendJump::CheckCanUseBuffAirDash
EXTRN	?CheckKeyReserveTime@ioExtendJump@@MAEMPAVioBaseChar@@HMK@Z:PROC ; ioExtendJump::CheckKeyReserveTime
EXTRN	?CheckUseExtendJump@ioExtendJump@@UAE_NPAVioBaseChar@@@Z:PROC ; ioExtendJump::CheckUseExtendJump
EXTRN	?IsBuffFlyChange@ioExtendJump@@UAE_NPAVioBaseChar@@@Z:PROC ; ioExtendJump::IsBuffFlyChange
EXTRN	?IsNoProcessMove@ioExtendJump@@UAE_NXZ:PROC	; ioExtendJump::IsNoProcessMove
EXTRN	??_EioKisaragiJump@@UAEPAXI@Z:PROC		; ioKisaragiJump::`vector deleting destructor'
;	COMDAT ??_R2ioExtendJump@@8
; File c:\program files (x86)\microsoft visual studio 10.0\vc\include\xmemory
rdata$r	SEGMENT
??_R2ioExtendJump@@8 DD FLAT:??_R1A@?0A@EA@ioExtendJump@@8 ; ioExtendJump::`RTTI Base Class Array'
rdata$r	ENDS
;	COMDAT ??_R3ioExtendJump@@8
rdata$r	SEGMENT
??_R3ioExtendJump@@8 DD 00H				; ioExtendJump::`RTTI Class Hierarchy Descriptor'
	DD	00H
	DD	01H
	DD	FLAT:??_R2ioExtendJump@@8
rdata$r	ENDS
;	COMDAT ??_R0?AVioExtendJump@@@8
_DATA	SEGMENT
??_R0?AVioExtendJump@@@8 DD FLAT:??_7type_info@@6B@	; ioExtendJump `RTTI Type Descriptor'
	DD	00H
	DB	'.?AVioExtendJump@@', 00H
_DATA	ENDS
;	COMDAT ??_R1A@?0A@EA@ioExtendJump@@8
rdata$r	SEGMENT
??_R1A@?0A@EA@ioExtendJump@@8 DD FLAT:??_R0?AVioExtendJump@@@8 ; ioExtendJump::`RTTI Base Class Descriptor at (0,-1,0,64)'
	DD	00H
	DD	00H
	DD	0ffffffffH
	DD	00H
	DD	040H
	DD	FLAT:??_R3ioExtendJump@@8
rdata$r	ENDS
;	COMDAT ??_R1A@?0A@EA@ioKisaragiJump@@8
rdata$r	SEGMENT
??_R1A@?0A@EA@ioKisaragiJump@@8 DD FLAT:??_R0?AVioKisaragiJump@@@8 ; ioKisaragiJump::`RTTI Base Class Descriptor at (0,-1,0,64)'
	DD	01H
	DD	00H
	DD	0ffffffffH
	DD	00H
	DD	040H
	DD	FLAT:??_R3ioKisaragiJump@@8
rdata$r	ENDS
;	COMDAT ??_R2ioKisaragiJump@@8
rdata$r	SEGMENT
??_R2ioKisaragiJump@@8 DD FLAT:??_R1A@?0A@EA@ioKisaragiJump@@8 ; ioKisaragiJump::`RTTI Base Class Array'
	DD	FLAT:??_R1A@?0A@EA@ioExtendJump@@8
rdata$r	ENDS
;	COMDAT ??_R3ioKisaragiJump@@8
rdata$r	SEGMENT
??_R3ioKisaragiJump@@8 DD 00H				; ioKisaragiJump::`RTTI Class Hierarchy Descriptor'
	DD	00H
	DD	02H
	DD	FLAT:??_R2ioKisaragiJump@@8
rdata$r	ENDS
;	COMDAT ??_R0?AVioKisaragiJump@@@8
_DATA	SEGMENT
??_R0?AVioKisaragiJump@@@8 DD FLAT:??_7type_info@@6B@	; ioKisaragiJump `RTTI Type Descriptor'
	DD	00H
	DB	'.?AVioKisaragiJump@@', 00H
_DATA	ENDS
;	COMDAT ??_R4ioKisaragiJump@@6B@
rdata$r	SEGMENT
??_R4ioKisaragiJump@@6B@ DD 00H				; ioKisaragiJump::`RTTI Complete Object Locator'
	DD	00H
	DD	00H
	DD	FLAT:??_R0?AVioKisaragiJump@@@8
	DD	FLAT:??_R3ioKisaragiJump@@8
rdata$r	ENDS
;	COMDAT ??_7ioKisaragiJump@@6B@
CONST	SEGMENT
??_7ioKisaragiJump@@6B@ DD FLAT:??_R4ioKisaragiJump@@6B@ ; ioKisaragiJump::`vftable'
	DD	FLAT:?LoadProperty@ioKisaragiJump@@UAEXAAVioINILoader@@@Z
	DD	FLAT:?Clone@ioKisaragiJump@@UAEPAVioExtendJump@@XZ
	DD	FLAT:?GetType@ioKisaragiJump@@UBE?AW4JumpType@@XZ
	DD	FLAT:?SetJumpState@ioExtendJump@@UAEXXZ
	DD	FLAT:?ProcessJumpReady@ioExtendJump@@UAEXPAVioBaseChar@@@Z
	DD	FLAT:?SetJumpping@ioKisaragiJump@@UAEXPAVioBaseChar@@_N@Z
	DD	FLAT:?SetJumpAttack@ioExtendJump@@UAEXPAVioBaseChar@@HM@Z
	DD	FLAT:?ProcessJumpping@ioKisaragiJump@@UAEXPAVioBaseChar@@MM@Z
	DD	FLAT:?ProcessLanding@ioExtendJump@@UAEXPAVioBaseChar@@@Z
	DD	FLAT:?ProcessJumpAttack@ioExtendJump@@UAEXPAVioBaseChar@@M@Z
	DD	FLAT:?ProcessAimJump@ioExtendJump@@UAE_NPAVioBaseChar@@M@Z
	DD	FLAT:?ApplyJump@ioKisaragiJump@@UAEXPAVioBaseChar@@AAVSP2Packet@@@Z
	DD	FLAT:?OnEndExtendJump@ioExtendJump@@UAEXPAVioBaseChar@@@Z
	DD	FLAT:?CheckComboJumpAttack@ioExtendJump@@UAEXPAVioBaseChar@@@Z
	DD	FLAT:?GetChargingTime@ioKisaragiJump@@UAEKPAVioBaseChar@@@Z
	DD	FLAT:?GetJumpAniDefenseWounded@ioExtendJump@@UAE?AVioHashString@@XZ
	DD	FLAT:?GetJumpAniDefenseCriticalWounded@ioExtendJump@@UAE?AVioHashString@@XZ
	DD	FLAT:?IsCanJumpingSkill@ioExtendJump@@UAE_NPAVioBaseChar@@@Z
	DD	FLAT:?GetExtraJumpSpeedRate@ioKisaragiJump@@UBEMABUD3DXVECTOR3@@ABUD3DXQUATERNION@@@Z
	DD	FLAT:?SetLandingState@ioKisaragiJump@@UAEXPAVioBaseChar@@@Z
	DD	FLAT:?IsCanJumpAttack@ioKisaragiJump@@UAE_NPAVioBaseChar@@@Z
	DD	FLAT:?IsEnableLandAfterState@ioExtendJump@@UAE_NXZ
	DD	FLAT:?IsEnableJumpLandEndDash@ioExtendJump@@UAE_NXZ
	DD	FLAT:?IsEnableJumpDash@ioExtendJump@@UAE_NPAVioBaseChar@@@Z
	DD	FLAT:?GetLandAfterAni@ioExtendJump@@UAEABVioHashString@@_N@Z
	DD	FLAT:?GetLandAfterAniRate@ioExtendJump@@UAEM_N@Z
	DD	FLAT:?SetNextJumpItemState@ioExtendJump@@UAEXPAVioBaseChar@@0_NW4ChangeNextItemType@@PAVioWeapon@@M@Z
	DD	FLAT:?SetExtraJump@ioExtendJump@@UAEXPAVioBaseChar@@@Z
	DD	FLAT:?ProcessExtraJump@ioExtendJump@@UAEXPAVioBaseChar@@@Z
	DD	FLAT:?ClearAirJump@ioExtendJump@@MAEXXZ
	DD	FLAT:?SetAirJump@ioExtendJump@@MAEXPAVioBaseChar@@HM@Z
	DD	FLAT:?CheckAirJump@ioExtendJump@@MAEXPAVioBaseChar@@@Z
	DD	FLAT:?CheckCanUseBuffAirDash@ioExtendJump@@UAE_NXZ
	DD	FLAT:?CheckKeyReserveTime@ioExtendJump@@MAEMPAVioBaseChar@@HMK@Z
	DD	FLAT:?CheckKeyReserve@ioKisaragiJump@@MAEXPAVioBaseChar@@@Z
	DD	FLAT:?CheckUseExtendJump@ioExtendJump@@UAE_NPAVioBaseChar@@@Z
	DD	FLAT:?IsBuffFlyChange@ioExtendJump@@UAE_NPAVioBaseChar@@@Z
	DD	FLAT:?IsNoProcessMove@ioExtendJump@@UAE_NXZ
	DD	FLAT:??_EioKisaragiJump@@UAEPAXI@Z
CONST	ENDS
;	COMDAT xdata$x
xdata$x	SEGMENT
__unwindtable$??0ioKisaragiJump@@QAE@XZ DD 0ffffffffH
	DD	FLAT:__unwindfunclet$??0ioKisaragiJump@@QAE@XZ$0
	DD	00H
	DD	FLAT:__unwindfunclet$??0ioKisaragiJump@@QAE@XZ$1
__ehfuncinfo$??0ioKisaragiJump@@QAE@XZ DD 019930522H
	DD	02H
	DD	FLAT:__unwindtable$??0ioKisaragiJump@@QAE@XZ
	DD	2 DUP(00H)
	DD	2 DUP(00H)
	DD	00H
	DD	01H
; Function compile flags: /Ogsp
; File d:\lost saga for developer\youtube\tutorial\source\src\lsclient\iokisaragijump.cpp
xdata$x	ENDS
;	COMDAT ??0ioKisaragiJump@@QAE@XZ
_TEXT	SEGMENT
_this$ = -16						; size = 4
__$EHRec$ = -12						; size = 12
??0ioKisaragiJump@@QAE@XZ PROC				; ioKisaragiJump::ioKisaragiJump, COMDAT
; _this$ = ecx

; 9    : {

  00000	6a 04		 push	 4
  00002	b8 00 00 00 00	 mov	 eax, __ehhandler$??0ioKisaragiJump@@QAE@XZ
  00007	e8 00 00 00 00	 call	 __EH_prolog3
  0000c	8b f1		 mov	 esi, ecx
  0000e	89 75 f0	 mov	 DWORD PTR _this$[ebp], esi
  00011	e8 00 00 00 00	 call	 ??0ioExtendJump@@QAE@XZ	; ioExtendJump::ioExtendJump
  00016	33 db		 xor	 ebx, ebx
  00018	c7 06 00 00 00
	00		 mov	 DWORD PTR [esi], OFFSET ??_7ioKisaragiJump@@6B@
  0001e	89 5d fc	 mov	 DWORD PTR __$EHRec$[ebp+8], ebx
  00021	89 9e 48 01 00
	00		 mov	 DWORD PTR [esi+328], ebx
  00027	89 9e 4c 01 00
	00		 mov	 DWORD PTR [esi+332], ebx
  0002d	89 9e 50 01 00
	00		 mov	 DWORD PTR [esi+336], ebx
  00033	8d 8e 64 01 00
	00		 lea	 ecx, DWORD PTR [esi+356]
  00039	c6 45 fc 01	 mov	 BYTE PTR __$EHRec$[ebp+8], 1
  0003d	e8 00 00 00 00	 call	 ??0AttackAttribute@@QAE@XZ ; AttackAttribute::AttackAttribute

; 10   : 	m_bUsedDoubleJump = false;

  00042	88 9e 58 01 00
	00		 mov	 BYTE PTR [esi+344], bl

; 11   : 	m_iCurJumpCnt = 1;

  00048	c7 86 60 01 00
	00 01 00 00 00	 mov	 DWORD PTR [esi+352], 1

; 12   : 
; 13   : 	m_bDashEnd = false;

  00052	66 89 9e b8 01
	00 00		 mov	 WORD PTR [esi+440], bx

; 14   : 	m_bJumpAttackReserve = false;
; 15   : 	m_dwActionEndTime = 0;

  00059	89 9e b4 01 00
	00		 mov	 DWORD PTR [esi+436], ebx

; 16   : 	m_dwReserveEnableTime = 0;

  0005f	89 9e e8 00 00
	00		 mov	 DWORD PTR [esi+232], ebx

; 17   : 
; 18   : 	m_CurJumpState = KJS_NONE;

  00065	89 9e 24 01 00
	00		 mov	 DWORD PTR [esi+292], ebx

; 19   : }

  0006b	8b c6		 mov	 eax, esi
  0006d	e8 00 00 00 00	 call	 __EH_epilog3
  00072	c3		 ret	 0
_TEXT	ENDS
;	COMDAT text$x
text$x	SEGMENT
__unwindfunclet$??0ioKisaragiJump@@QAE@XZ$0:
  00000	8b 4d f0	 mov	 ecx, DWORD PTR _this$[ebp]
  00003	e9 00 00 00 00	 jmp	 ??1ioExtendJump@@UAE@XZ	; ioExtendJump::~ioExtendJump
__unwindfunclet$??0ioKisaragiJump@@QAE@XZ$1:
  00008	8b 4d f0	 mov	 ecx, DWORD PTR _this$[ebp]
  0000b	81 c1 48 01 00
	00		 add	 ecx, 328		; 00000148H
  00011	e9 00 00 00 00	 jmp	 ??1?$vector@VioHashString@@V?$allocator@VioHashString@@@std@@@std@@QAE@XZ ; std::vector<ioHashString,std::allocator<ioHashString> >::~vector<ioHashString,std::allocator<ioHashString> >
__ehhandler$??0ioKisaragiJump@@QAE@XZ:
  00016	8b 54 24 08	 mov	 edx, DWORD PTR [esp+8]
  0001a	8d 42 0c	 lea	 eax, DWORD PTR [edx+12]
  0001d	8b 4a ec	 mov	 ecx, DWORD PTR [edx-20]
  00020	33 c8		 xor	 ecx, eax
  00022	e8 00 00 00 00	 call	 @__security_check_cookie@4
  00027	b8 00 00 00 00	 mov	 eax, OFFSET __ehfuncinfo$??0ioKisaragiJump@@QAE@XZ
  0002c	e9 00 00 00 00	 jmp	 ___CxxFrameHandler3
text$x	ENDS
??0ioKisaragiJump@@QAE@XZ ENDP				; ioKisaragiJump::ioKisaragiJump
PUBLIC	??0ioKisaragiJump@@QAE@ABV0@@Z			; ioKisaragiJump::ioKisaragiJump
EXTRN	??0ioExtendJump@@QAE@ABV0@@Z:PROC		; ioExtendJump::ioExtendJump
;	COMDAT xdata$x
xdata$x	SEGMENT
__unwindtable$??0ioKisaragiJump@@QAE@ABV0@@Z DD 0ffffffffH
	DD	FLAT:__unwindfunclet$??0ioKisaragiJump@@QAE@ABV0@@Z$0
	DD	00H
	DD	FLAT:__unwindfunclet$??0ioKisaragiJump@@QAE@ABV0@@Z$1
__ehfuncinfo$??0ioKisaragiJump@@QAE@ABV0@@Z DD 019930522H
	DD	02H
	DD	FLAT:__unwindtable$??0ioKisaragiJump@@QAE@ABV0@@Z
	DD	2 DUP(00H)
	DD	2 DUP(00H)
	DD	00H
	DD	01H
; Function compile flags: /Ogsp
xdata$x	ENDS
;	COMDAT ??0ioKisaragiJump@@QAE@ABV0@@Z
_TEXT	SEGMENT
_this$ = -16						; size = 4
__$EHRec$ = -12						; size = 12
_rhs$ = 8						; size = 4
??0ioKisaragiJump@@QAE@ABV0@@Z PROC			; ioKisaragiJump::ioKisaragiJump, COMDAT
; _this$ = ecx

; 34   : {

  00000	6a 04		 push	 4
  00002	b8 00 00 00 00	 mov	 eax, __ehhandler$??0ioKisaragiJump@@QAE@ABV0@@Z
  00007	e8 00 00 00 00	 call	 __EH_prolog3
  0000c	8b f1		 mov	 esi, ecx
  0000e	89 75 f0	 mov	 DWORD PTR _this$[ebp], esi
  00011	8b 7d 08	 mov	 edi, DWORD PTR _rhs$[ebp]
  00014	57		 push	 edi
  00015	e8 00 00 00 00	 call	 ??0ioExtendJump@@QAE@ABV0@@Z ; ioExtendJump::ioExtendJump
  0001a	c7 06 00 00 00
	00		 mov	 DWORD PTR [esi], OFFSET ??_7ioKisaragiJump@@6B@
  00020	d9 87 28 01 00
	00		 fld	 DWORD PTR [edi+296]
  00026	d9 9e 28 01 00
	00		 fstp	 DWORD PTR [esi+296]
  0002c	33 db		 xor	 ebx, ebx
  0002e	d9 87 2c 01 00
	00		 fld	 DWORD PTR [edi+300]
  00034	8d 8e 48 01 00
	00		 lea	 ecx, DWORD PTR [esi+328]
  0003a	d9 9e 2c 01 00
	00		 fstp	 DWORD PTR [esi+300]
  00040	89 5d fc	 mov	 DWORD PTR __$EHRec$[ebp+8], ebx
  00043	d9 87 30 01 00
	00		 fld	 DWORD PTR [edi+304]
  00049	d9 9e 30 01 00
	00		 fstp	 DWORD PTR [esi+304]
  0004f	8b 87 34 01 00
	00		 mov	 eax, DWORD PTR [edi+308]
  00055	89 86 34 01 00
	00		 mov	 DWORD PTR [esi+308], eax
  0005b	d9 87 38 01 00
	00		 fld	 DWORD PTR [edi+312]
  00061	d9 9e 38 01 00
	00		 fstp	 DWORD PTR [esi+312]
  00067	8d 87 48 01 00
	00		 lea	 eax, DWORD PTR [edi+328]
  0006d	d9 87 3c 01 00
	00		 fld	 DWORD PTR [edi+316]
  00073	50		 push	 eax
  00074	d9 9e 3c 01 00
	00		 fstp	 DWORD PTR [esi+316]
  0007a	d9 87 40 01 00
	00		 fld	 DWORD PTR [edi+320]
  00080	d9 9e 40 01 00
	00		 fstp	 DWORD PTR [esi+320]
  00086	d9 87 44 01 00
	00		 fld	 DWORD PTR [edi+324]
  0008c	d9 9e 44 01 00
	00		 fstp	 DWORD PTR [esi+324]
  00092	e8 00 00 00 00	 call	 ??0?$vector@VioHashString@@V?$allocator@VioHashString@@@std@@@std@@QAE@ABV01@@Z ; std::vector<ioHashString,std::allocator<ioHashString> >::vector<ioHashString,std::allocator<ioHashString> >
  00097	8b 87 5c 01 00
	00		 mov	 eax, DWORD PTR [edi+348]
  0009d	81 c7 64 01 00
	00		 add	 edi, 356		; 00000164H
  000a3	57		 push	 edi
  000a4	8d 8e 64 01 00
	00		 lea	 ecx, DWORD PTR [esi+356]
  000aa	c6 45 fc 01	 mov	 BYTE PTR __$EHRec$[ebp+8], 1
  000ae	89 86 5c 01 00
	00		 mov	 DWORD PTR [esi+348], eax
  000b4	e8 00 00 00 00	 call	 ??0AttackAttribute@@QAE@ABU0@@Z

; 35   : 	m_bUsedDoubleJump = false;

  000b9	88 9e 58 01 00
	00		 mov	 BYTE PTR [esi+344], bl

; 36   : 	m_iCurJumpCnt = 1;

  000bf	c7 86 60 01 00
	00 01 00 00 00	 mov	 DWORD PTR [esi+352], 1

; 37   : 
; 38   : 	m_bDashEnd = false;

  000c9	66 89 9e b8 01
	00 00		 mov	 WORD PTR [esi+440], bx

; 39   : 	m_bJumpAttackReserve = false;
; 40   : 	m_dwActionEndTime = 0;

  000d0	89 9e b4 01 00
	00		 mov	 DWORD PTR [esi+436], ebx

; 41   : 	m_dwReserveEnableTime = 0;

  000d6	89 9e e8 00 00
	00		 mov	 DWORD PTR [esi+232], ebx

; 42   : 
; 43   : 	m_CurJumpState = KJS_NONE;

  000dc	89 9e 24 01 00
	00		 mov	 DWORD PTR [esi+292], ebx

; 44   : }

  000e2	8b c6		 mov	 eax, esi
  000e4	e8 00 00 00 00	 call	 __EH_epilog3
  000e9	c2 04 00	 ret	 4
_TEXT	ENDS
;	COMDAT text$x
text$x	SEGMENT
__unwindfunclet$??0ioKisaragiJump@@QAE@ABV0@@Z$0:
  00000	8b 4d f0	 mov	 ecx, DWORD PTR _this$[ebp]
  00003	e9 00 00 00 00	 jmp	 ??1ioExtendJump@@UAE@XZ	; ioExtendJump::~ioExtendJump
__unwindfunclet$??0ioKisaragiJump@@QAE@ABV0@@Z$1:
  00008	8b 4d f0	 mov	 ecx, DWORD PTR _this$[ebp]
  0000b	81 c1 48 01 00
	00		 add	 ecx, 328		; 00000148H
  00011	e9 00 00 00 00	 jmp	 ??1?$vector@VioHashString@@V?$allocator@VioHashString@@@std@@@std@@QAE@XZ ; std::vector<ioHashString,std::allocator<ioHashString> >::~vector<ioHashString,std::allocator<ioHashString> >
__ehhandler$??0ioKisaragiJump@@QAE@ABV0@@Z:
  00016	8b 54 24 08	 mov	 edx, DWORD PTR [esp+8]
  0001a	8d 42 0c	 lea	 eax, DWORD PTR [edx+12]
  0001d	8b 4a ec	 mov	 ecx, DWORD PTR [edx-20]
  00020	33 c8		 xor	 ecx, eax
  00022	e8 00 00 00 00	 call	 @__security_check_cookie@4
  00027	b8 00 00 00 00	 mov	 eax, OFFSET __ehfuncinfo$??0ioKisaragiJump@@QAE@ABV0@@Z
  0002c	e9 00 00 00 00	 jmp	 ___CxxFrameHandler3
text$x	ENDS
??0ioKisaragiJump@@QAE@ABV0@@Z ENDP			; ioKisaragiJump::ioKisaragiJump
;	COMDAT xdata$x
xdata$x	SEGMENT
__unwindtable$?Clone@ioKisaragiJump@@UAEPAVioExtendJump@@XZ DD 0ffffffffH
	DD	FLAT:__unwindfunclet$?Clone@ioKisaragiJump@@UAEPAVioExtendJump@@XZ$0
__ehfuncinfo$?Clone@ioKisaragiJump@@UAEPAVioExtendJump@@XZ DD 019930522H
	DD	01H
	DD	FLAT:__unwindtable$?Clone@ioKisaragiJump@@UAEPAVioExtendJump@@XZ
	DD	2 DUP(00H)
	DD	2 DUP(00H)
	DD	00H
	DD	01H
; Function compile flags: /Ogsp
xdata$x	ENDS
;	COMDAT ?Clone@ioKisaragiJump@@UAEPAVioExtendJump@@XZ
_TEXT	SEGMENT
$T532890 = -16						; size = 4
__$EHRec$ = -12						; size = 12
?Clone@ioKisaragiJump@@UAEPAVioExtendJump@@XZ PROC	; ioKisaragiJump::Clone, COMDAT
; _this$ = ecx

; 47   : {

  00000	6a 04		 push	 4
  00002	b8 00 00 00 00	 mov	 eax, __ehhandler$?Clone@ioKisaragiJump@@UAEPAVioExtendJump@@XZ
  00007	e8 00 00 00 00	 call	 __EH_prolog3
  0000c	8b f1		 mov	 esi, ecx

; 48   : 	return new ioKisaragiJump( *this );

  0000e	68 bc 01 00 00	 push	 444			; 000001bcH
  00013	e8 00 00 00 00	 call	 ??2@YAPAXI@Z		; operator new
  00018	59		 pop	 ecx
  00019	8b c8		 mov	 ecx, eax
  0001b	89 4d f0	 mov	 DWORD PTR $T532890[ebp], ecx
  0001e	33 c0		 xor	 eax, eax
  00020	89 45 fc	 mov	 DWORD PTR __$EHRec$[ebp+8], eax
  00023	3b c8		 cmp	 ecx, eax
  00025	74 06		 je	 SHORT $LN3@Clone
  00027	56		 push	 esi
  00028	e8 00 00 00 00	 call	 ??0ioKisaragiJump@@QAE@ABV0@@Z ; ioKisaragiJump::ioKisaragiJump
$LN3@Clone:

; 49   : }

  0002d	e8 00 00 00 00	 call	 __EH_epilog3
  00032	c3		 ret	 0
_TEXT	ENDS
;	COMDAT text$x
text$x	SEGMENT
__unwindfunclet$?Clone@ioKisaragiJump@@UAEPAVioExtendJump@@XZ$0:
  00000	ff 75 f0	 push	 DWORD PTR $T532890[ebp]
  00003	e8 00 00 00 00	 call	 ??3@YAXPAX@Z		; operator delete
  00008	59		 pop	 ecx
  00009	c3		 ret	 0
__ehhandler$?Clone@ioKisaragiJump@@UAEPAVioExtendJump@@XZ:
  0000a	8b 54 24 08	 mov	 edx, DWORD PTR [esp+8]
  0000e	8d 42 0c	 lea	 eax, DWORD PTR [edx+12]
  00011	8b 4a ec	 mov	 ecx, DWORD PTR [edx-20]
  00014	33 c8		 xor	 ecx, eax
  00016	e8 00 00 00 00	 call	 @__security_check_cookie@4
  0001b	b8 00 00 00 00	 mov	 eax, OFFSET __ehfuncinfo$?Clone@ioKisaragiJump@@UAEPAVioExtendJump@@XZ
  00020	e9 00 00 00 00	 jmp	 ___CxxFrameHandler3
text$x	ENDS
?Clone@ioKisaragiJump@@UAEPAVioExtendJump@@XZ ENDP	; ioKisaragiJump::Clone
PUBLIC	??1ioKisaragiJump@@UAE@XZ			; ioKisaragiJump::~ioKisaragiJump
;	COMDAT xdata$x
; File c:\program files (x86)\microsoft visual studio 10.0\vc\include\vector
xdata$x	SEGMENT
__unwindtable$??1ioKisaragiJump@@UAE@XZ DD 0ffffffffH
	DD	FLAT:__unwindfunclet$??1ioKisaragiJump@@UAE@XZ$0
	DD	00H
	DD	FLAT:__unwindfunclet$??1ioKisaragiJump@@UAE@XZ$1
__ehfuncinfo$??1ioKisaragiJump@@UAE@XZ DD 019930522H
	DD	02H
	DD	FLAT:__unwindtable$??1ioKisaragiJump@@UAE@XZ
	DD	2 DUP(00H)
	DD	2 DUP(00H)
	DD	00H
	DD	01H
; Function compile flags: /Ogsp
; File d:\lost saga for developer\youtube\tutorial\source\src\lsclient\iokisaragijump.cpp
xdata$x	ENDS
;	COMDAT ??1ioKisaragiJump@@UAE@XZ
_TEXT	SEGMENT
_this$ = -16						; size = 4
__$EHRec$ = -12						; size = 12
??1ioKisaragiJump@@UAE@XZ PROC				; ioKisaragiJump::~ioKisaragiJump, COMDAT
; _this$ = ecx

; 52   : {

  00000	6a 04		 push	 4
  00002	b8 00 00 00 00	 mov	 eax, __ehhandler$??1ioKisaragiJump@@UAE@XZ
  00007	e8 00 00 00 00	 call	 __EH_prolog3
  0000c	8b f1		 mov	 esi, ecx
  0000e	89 75 f0	 mov	 DWORD PTR _this$[ebp], esi
  00011	c7 06 00 00 00
	00		 mov	 DWORD PTR [esi], OFFSET ??_7ioKisaragiJump@@6B@

; 53   : }

  00017	8d 8e 64 01 00
	00		 lea	 ecx, DWORD PTR [esi+356]
  0001d	c7 45 fc 01 00
	00 00		 mov	 DWORD PTR __$EHRec$[ebp+8], 1
  00024	e8 00 00 00 00	 call	 ??1AttackAttribute@@QAE@XZ
  00029	8d 8e 48 01 00
	00		 lea	 ecx, DWORD PTR [esi+328]
  0002f	c6 45 fc 00	 mov	 BYTE PTR __$EHRec$[ebp+8], 0
  00033	e8 00 00 00 00	 call	 ?_Tidy@?$vector@VioHashString@@V?$allocator@VioHashString@@@std@@@std@@IAEXXZ ; std::vector<ioHashString,std::allocator<ioHashString> >::_Tidy
  00038	83 4d fc ff	 or	 DWORD PTR __$EHRec$[ebp+8], -1
  0003c	8b ce		 mov	 ecx, esi
  0003e	e8 00 00 00 00	 call	 ??1ioExtendJump@@UAE@XZ	; ioExtendJump::~ioExtendJump
  00043	e8 00 00 00 00	 call	 __EH_epilog3
  00048	c3		 ret	 0
_TEXT	ENDS
;	COMDAT text$x
text$x	SEGMENT
__unwindfunclet$??1ioKisaragiJump@@UAE@XZ$0:
  00000	8b 4d f0	 mov	 ecx, DWORD PTR _this$[ebp]
  00003	e9 00 00 00 00	 jmp	 ??1ioExtendJump@@UAE@XZ	; ioExtendJump::~ioExtendJump
__unwindfunclet$??1ioKisaragiJump@@UAE@XZ$1:
  00008	8b 4d f0	 mov	 ecx, DWORD PTR _this$[ebp]
  0000b	81 c1 48 01 00
	00		 add	 ecx, 328		; 00000148H
  00011	e9 00 00 00 00	 jmp	 ??1?$vector@VioHashString@@V?$allocator@VioHashString@@@std@@@std@@QAE@XZ ; std::vector<ioHashString,std::allocator<ioHashString> >::~vector<ioHashString,std::allocator<ioHashString> >
__ehhandler$??1ioKisaragiJump@@UAE@XZ:
  00016	8b 54 24 08	 mov	 edx, DWORD PTR [esp+8]
  0001a	8d 42 0c	 lea	 eax, DWORD PTR [edx+12]
  0001d	8b 4a ec	 mov	 ecx, DWORD PTR [edx-20]
  00020	33 c8		 xor	 ecx, eax
  00022	e8 00 00 00 00	 call	 @__security_check_cookie@4
  00027	b8 00 00 00 00	 mov	 eax, OFFSET __ehfuncinfo$??1ioKisaragiJump@@UAE@XZ
  0002c	e9 00 00 00 00	 jmp	 ___CxxFrameHandler3
text$x	ENDS
??1ioKisaragiJump@@UAE@XZ ENDP				; ioKisaragiJump::~ioKisaragiJump
; Function compile flags: /Ogsp
;	COMDAT ??_GioKisaragiJump@@UAEPAXI@Z
_TEXT	SEGMENT
___flags$ = 8						; size = 4
??_GioKisaragiJump@@UAEPAXI@Z PROC			; ioKisaragiJump::`scalar deleting destructor', COMDAT
; _this$ = ecx
  00000	55		 push	 ebp
  00001	8b ec		 mov	 ebp, esp
  00003	56		 push	 esi
  00004	8b f1		 mov	 esi, ecx
  00006	e8 00 00 00 00	 call	 ??1ioKisaragiJump@@UAE@XZ ; ioKisaragiJump::~ioKisaragiJump
  0000b	f6 45 08 01	 test	 BYTE PTR ___flags$[ebp], 1
  0000f	74 07		 je	 SHORT $LN1@scalar@4
  00011	56		 push	 esi
  00012	e8 00 00 00 00	 call	 ??3@YAXPAX@Z		; operator delete
  00017	59		 pop	 ecx
$LN1@scalar@4:
  00018	8b c6		 mov	 eax, esi
  0001a	5e		 pop	 esi
  0001b	5d		 pop	 ebp
  0001c	c2 04 00	 ret	 4
??_GioKisaragiJump@@UAEPAXI@Z ENDP			; ioKisaragiJump::`scalar deleting destructor'
_TEXT	ENDS
END
