; Listing generated by Microsoft (R) Optimizing Compiler Version 16.00.30319.01 

	TITLE	D:\Lost Saga For Developer\Youtube\Tutorial\Source\src\LSClient\ioLeeSunSin.cpp
	.686P
	.XMM
	include listing.inc
	.model	flat

INCLUDELIB MSVCRT
INCLUDELIB OLDNAMES

PUBLIC	?_EEM_DS@?$deque@UD3DXVECTOR3@@V?$allocator@UD3DXVECTOR3@@@std@@@std@@2HB ; std::deque<D3DXVECTOR3,std::allocator<D3DXVECTOR3> >::_EEM_DS
;	COMDAT ?_EEM_DS@?$deque@UD3DXVECTOR3@@V?$allocator@UD3DXVECTOR3@@@std@@@std@@2HB
CONST	SEGMENT
?_EEM_DS@?$deque@UD3DXVECTOR3@@V?$allocator@UD3DXVECTOR3@@@std@@@std@@2HB DD 01H ; std::deque<D3DXVECTOR3,std::allocator<D3DXVECTOR3> >::_EEM_DS
CONST	ENDS
PUBLIC	??0WoundedInfo@ioLeeSunSin@@QAE@XZ		; ioLeeSunSin::WoundedInfo::WoundedInfo
EXTRN	__imp_??0ioHashString@@QAE@XZ:PROC
EXTRN	__fltused:DWORD
; Function compile flags: /Ogsp
; File d:\lost saga for developer\youtube\tutorial\source\src\lsclient\ioleesunsin.h
;	COMDAT ??0WoundedInfo@ioLeeSunSin@@QAE@XZ
_TEXT	SEGMENT
??0WoundedInfo@ioLeeSunSin@@QAE@XZ PROC			; ioLeeSunSin::WoundedInfo::WoundedInfo, COMDAT
; _this$ = ecx

; 64   : 		WoundedInfo()

  00000	56		 push	 esi
  00001	8b f1		 mov	 esi, ecx
  00003	8d 4e 0c	 lea	 ecx, DWORD PTR [esi+12]
  00006	ff 15 00 00 00
	00		 call	 DWORD PTR __imp_??0ioHashString@@QAE@XZ

; 65   : 		{
; 66   : 			eBlowType		= BTT_NONE;
; 67   : 			fMinHeight		= 0.0f;

  0000c	0f 57 c0	 xorps	 xmm0, xmm0
  0000f	c7 06 0f 00 00
	00		 mov	 DWORD PTR [esi], 15	; 0000000fH
  00015	f3 0f 11 46 04	 movss	 DWORD PTR [esi+4], xmm0

; 68   : 			fMaxHeight		= 0.0f;

  0001a	f3 0f 11 46 08	 movss	 DWORD PTR [esi+8], xmm0

; 69   : 			fAnimationRate	= 0.0f;

  0001f	f3 0f 11 46 1c	 movss	 DWORD PTR [esi+28], xmm0

; 70   : 		}

  00024	8b c6		 mov	 eax, esi
  00026	5e		 pop	 esi
  00027	c3		 ret	 0
??0WoundedInfo@ioLeeSunSin@@QAE@XZ ENDP			; ioLeeSunSin::WoundedInfo::WoundedInfo
_TEXT	ENDS
PUBLIC	?IsCatchMode@ioBaseChar@@QBE_NXZ		; ioBaseChar::IsCatchMode
; Function compile flags: /Ogsp
; File d:\lost saga for developer\youtube\tutorial\source\src\lsclient\iobasechar.h
;	COMDAT ?IsCatchMode@ioBaseChar@@QBE_NXZ
_TEXT	SEGMENT
?IsCatchMode@ioBaseChar@@QBE_NXZ PROC			; ioBaseChar::IsCatchMode, COMDAT
; _this$ = ecx

; 2131 : 	inline bool IsCatchMode() const { return m_bCatchState; }

  00000	8a 81 78 23 00
	00		 mov	 al, BYTE PTR [ecx+9080]
  00006	c3		 ret	 0
?IsCatchMode@ioBaseChar@@QBE_NXZ ENDP			; ioBaseChar::IsCatchMode
_TEXT	ENDS
PUBLIC	?GetState@ioBaseChar@@QBE?AW4CharState@@XZ	; ioBaseChar::GetState
; Function compile flags: /Ogsp
;	COMDAT ?GetState@ioBaseChar@@QBE?AW4CharState@@XZ
_TEXT	SEGMENT
?GetState@ioBaseChar@@QBE?AW4CharState@@XZ PROC		; ioBaseChar::GetState, COMDAT
; _this$ = ecx

; 2156 : 	inline CharState GetState() const { return m_CharState; }	

  00000	8a 81 10 03 00
	00		 mov	 al, BYTE PTR [ecx+784]
  00006	c3		 ret	 0
?GetState@ioBaseChar@@QBE?AW4CharState@@XZ ENDP		; ioBaseChar::GetState
_TEXT	ENDS
PUBLIC	?GetCharName@ioBaseChar@@QBEABVioHashString@@XZ	; ioBaseChar::GetCharName
; Function compile flags: /Ogsp
;	COMDAT ?GetCharName@ioBaseChar@@QBEABVioHashString@@XZ
_TEXT	SEGMENT
?GetCharName@ioBaseChar@@QBEABVioHashString@@XZ PROC	; ioBaseChar::GetCharName, COMDAT
; _this$ = ecx

; 2594 : 	inline const ioHashString& GetCharName() const { return m_Name; }

  00000	8d 81 d4 02 00
	00		 lea	 eax, DWORD PTR [ecx+724]
  00006	c3		 ret	 0
?GetCharName@ioBaseChar@@QBEABVioHashString@@XZ ENDP	; ioBaseChar::GetCharName
_TEXT	ENDS
PUBLIC	?GetTargetRot@ioBaseChar@@QBEABUD3DXQUATERNION@@XZ ; ioBaseChar::GetTargetRot
; Function compile flags: /Ogsp
;	COMDAT ?GetTargetRot@ioBaseChar@@QBEABUD3DXQUATERNION@@XZ
_TEXT	SEGMENT
?GetTargetRot@ioBaseChar@@QBEABUD3DXQUATERNION@@XZ PROC	; ioBaseChar::GetTargetRot, COMDAT
; _this$ = ecx

; 2599 : 	inline const D3DXQUATERNION& GetTargetRot() const { return m_qtTargetRot; }

  00000	8d 81 a4 06 00
	00		 lea	 eax, DWORD PTR [ecx+1700]
  00006	c3		 ret	 0
?GetTargetRot@ioBaseChar@@QBEABUD3DXQUATERNION@@XZ ENDP	; ioBaseChar::GetTargetRot
_TEXT	ENDS
PUBLIC	?SetChargingState@ioBaseChar@@QAEX_N@Z		; ioBaseChar::SetChargingState
; Function compile flags: /Ogsp
;	COMDAT ?SetChargingState@ioBaseChar@@QAEX_N@Z
_TEXT	SEGMENT
_bState$ = 8						; size = 1
?SetChargingState@ioBaseChar@@QAEX_N@Z PROC		; ioBaseChar::SetChargingState, COMDAT
; _this$ = ecx

; 2937 : 	inline void SetChargingState( bool bState ) { m_bChargingState = bState; }

  00000	55		 push	 ebp
  00001	8b ec		 mov	 ebp, esp
  00003	8a 45 08	 mov	 al, BYTE PTR _bState$[ebp]
  00006	88 81 54 20 00
	00		 mov	 BYTE PTR [ecx+8276], al
  0000c	5d		 pop	 ebp
  0000d	c2 04 00	 ret	 4
?SetChargingState@ioBaseChar@@QAEX_N@Z ENDP		; ioBaseChar::SetChargingState
_TEXT	ENDS
PUBLIC	??_7bad_alloc@std@@6B@				; std::bad_alloc::`vftable'
PUBLIC	??0bad_alloc@std@@QAE@PBD@Z			; std::bad_alloc::bad_alloc
PUBLIC	??_R4bad_alloc@std@@6B@				; std::bad_alloc::`RTTI Complete Object Locator'
PUBLIC	??_R0?AVbad_alloc@std@@@8			; std::bad_alloc `RTTI Type Descriptor'
PUBLIC	??_R3bad_alloc@std@@8				; std::bad_alloc::`RTTI Class Hierarchy Descriptor'
PUBLIC	??_R2bad_alloc@std@@8				; std::bad_alloc::`RTTI Base Class Array'
PUBLIC	??_R1A@?0A@EA@bad_alloc@std@@8			; std::bad_alloc::`RTTI Base Class Descriptor at (0,-1,0,64)'
PUBLIC	??_R1A@?0A@EA@exception@std@@8			; std::exception::`RTTI Base Class Descriptor at (0,-1,0,64)'
PUBLIC	??_R0?AVexception@std@@@8			; std::exception `RTTI Type Descriptor'
PUBLIC	??_R3exception@std@@8				; std::exception::`RTTI Class Hierarchy Descriptor'
PUBLIC	??_R2exception@std@@8				; std::exception::`RTTI Base Class Array'
EXTRN	__imp_??0exception@std@@QAE@ABQBD@Z:PROC
EXTRN	??_7type_info@@6B@:QWORD			; type_info::`vftable'
EXTRN	??_Ebad_alloc@std@@UAEPAXI@Z:PROC		; std::bad_alloc::`vector deleting destructor'
EXTRN	?what@exception@std@@UBEPBDXZ:PROC		; std::exception::what
;	COMDAT ??_R2exception@std@@8
; File c:\program files (x86)\microsoft visual studio 10.0\vc\include\exception
rdata$r	SEGMENT
??_R2exception@std@@8 DD FLAT:??_R1A@?0A@EA@exception@std@@8 ; std::exception::`RTTI Base Class Array'
rdata$r	ENDS
;	COMDAT ??_R3exception@std@@8
rdata$r	SEGMENT
??_R3exception@std@@8 DD 00H				; std::exception::`RTTI Class Hierarchy Descriptor'
	DD	00H
	DD	01H
	DD	FLAT:??_R2exception@std@@8
rdata$r	ENDS
;	COMDAT ??_R0?AVexception@std@@@8
_DATA	SEGMENT
??_R0?AVexception@std@@@8 DD FLAT:??_7type_info@@6B@	; std::exception `RTTI Type Descriptor'
	DD	00H
	DB	'.?AVexception@std@@', 00H
_DATA	ENDS
;	COMDAT ??_R1A@?0A@EA@exception@std@@8
rdata$r	SEGMENT
??_R1A@?0A@EA@exception@std@@8 DD FLAT:??_R0?AVexception@std@@@8 ; std::exception::`RTTI Base Class Descriptor at (0,-1,0,64)'
	DD	00H
	DD	00H
	DD	0ffffffffH
	DD	00H
	DD	040H
	DD	FLAT:??_R3exception@std@@8
rdata$r	ENDS
;	COMDAT ??_R1A@?0A@EA@bad_alloc@std@@8
rdata$r	SEGMENT
??_R1A@?0A@EA@bad_alloc@std@@8 DD FLAT:??_R0?AVbad_alloc@std@@@8 ; std::bad_alloc::`RTTI Base Class Descriptor at (0,-1,0,64)'
	DD	01H
	DD	00H
	DD	0ffffffffH
	DD	00H
	DD	040H
	DD	FLAT:??_R3bad_alloc@std@@8
rdata$r	ENDS
;	COMDAT ??_R2bad_alloc@std@@8
rdata$r	SEGMENT
??_R2bad_alloc@std@@8 DD FLAT:??_R1A@?0A@EA@bad_alloc@std@@8 ; std::bad_alloc::`RTTI Base Class Array'
	DD	FLAT:??_R1A@?0A@EA@exception@std@@8
rdata$r	ENDS
;	COMDAT ??_R3bad_alloc@std@@8
rdata$r	SEGMENT
??_R3bad_alloc@std@@8 DD 00H				; std::bad_alloc::`RTTI Class Hierarchy Descriptor'
	DD	00H
	DD	02H
	DD	FLAT:??_R2bad_alloc@std@@8
rdata$r	ENDS
;	COMDAT ??_R0?AVbad_alloc@std@@@8
_DATA	SEGMENT
??_R0?AVbad_alloc@std@@@8 DD FLAT:??_7type_info@@6B@	; std::bad_alloc `RTTI Type Descriptor'
	DD	00H
	DB	'.?AVbad_alloc@std@@', 00H
_DATA	ENDS
;	COMDAT ??_R4bad_alloc@std@@6B@
rdata$r	SEGMENT
??_R4bad_alloc@std@@6B@ DD 00H				; std::bad_alloc::`RTTI Complete Object Locator'
	DD	00H
	DD	00H
	DD	FLAT:??_R0?AVbad_alloc@std@@@8
	DD	FLAT:??_R3bad_alloc@std@@8
rdata$r	ENDS
;	COMDAT ??_7bad_alloc@std@@6B@
CONST	SEGMENT
??_7bad_alloc@std@@6B@ DD FLAT:??_R4bad_alloc@std@@6B@	; std::bad_alloc::`vftable'
	DD	FLAT:??_Ebad_alloc@std@@UAEPAXI@Z
	DD	FLAT:?what@exception@std@@UBEPBDXZ
; Function compile flags: /Ogsp
CONST	ENDS
;	COMDAT ??0bad_alloc@std@@QAE@PBD@Z
_TEXT	SEGMENT
__Message$ = 8						; size = 4
??0bad_alloc@std@@QAE@PBD@Z PROC			; std::bad_alloc::bad_alloc, COMDAT
; _this$ = ecx

; 345  : 		{	// construct from message string

  00000	55		 push	 ebp
  00001	8b ec		 mov	 ebp, esp
  00003	56		 push	 esi
  00004	8d 45 08	 lea	 eax, DWORD PTR __Message$[ebp]
  00007	50		 push	 eax
  00008	8b f1		 mov	 esi, ecx
  0000a	ff 15 00 00 00
	00		 call	 DWORD PTR __imp_??0exception@std@@QAE@ABQBD@Z
  00010	c7 06 00 00 00
	00		 mov	 DWORD PTR [esi], OFFSET ??_7bad_alloc@std@@6B@

; 346  : 		}

  00016	8b c6		 mov	 eax, esi
  00018	5e		 pop	 esi
  00019	5d		 pop	 ebp
  0001a	c2 04 00	 ret	 4
??0bad_alloc@std@@QAE@PBD@Z ENDP			; std::bad_alloc::bad_alloc
_TEXT	ENDS
PUBLIC	??1bad_alloc@std@@UAE@XZ			; std::bad_alloc::~bad_alloc
EXTRN	__imp_??1exception@std@@UAE@XZ:PROC
; Function compile flags: /Ogsp
;	COMDAT ??1bad_alloc@std@@UAE@XZ
_TEXT	SEGMENT
??1bad_alloc@std@@UAE@XZ PROC				; std::bad_alloc::~bad_alloc, COMDAT
; _this$ = ecx

; 354  : 		{	// destroy the object

  00000	c7 01 00 00 00
	00		 mov	 DWORD PTR [ecx], OFFSET ??_7bad_alloc@std@@6B@

; 355  : 		}

  00006	ff 25 00 00 00
	00		 jmp	 DWORD PTR __imp_??1exception@std@@UAE@XZ
??1bad_alloc@std@@UAE@XZ ENDP				; std::bad_alloc::~bad_alloc
_TEXT	ENDS
EXTRN	??3@YAXPAX@Z:PROC				; operator delete
; Function compile flags: /Ogsp
;	COMDAT ??_Gbad_alloc@std@@UAEPAXI@Z
_TEXT	SEGMENT
___flags$ = 8						; size = 4
??_Gbad_alloc@std@@UAEPAXI@Z PROC			; std::bad_alloc::`scalar deleting destructor', COMDAT
; _this$ = ecx
  00000	55		 push	 ebp
  00001	8b ec		 mov	 ebp, esp
  00003	56		 push	 esi
  00004	8b f1		 mov	 esi, ecx
  00006	c7 06 00 00 00
	00		 mov	 DWORD PTR [esi], OFFSET ??_7bad_alloc@std@@6B@
  0000c	ff 15 00 00 00
	00		 call	 DWORD PTR __imp_??1exception@std@@UAE@XZ
  00012	f6 45 08 01	 test	 BYTE PTR ___flags$[ebp], 1
  00016	74 07		 je	 SHORT $LN1@scalar
  00018	56		 push	 esi
  00019	e8 00 00 00 00	 call	 ??3@YAXPAX@Z		; operator delete
  0001e	59		 pop	 ecx
$LN1@scalar:
  0001f	8b c6		 mov	 eax, esi
  00021	5e		 pop	 esi
  00022	5d		 pop	 ebp
  00023	c2 04 00	 ret	 4
??_Gbad_alloc@std@@UAEPAXI@Z ENDP			; std::bad_alloc::`scalar deleting destructor'
_TEXT	ENDS
PUBLIC	?IsDirKeyDoubleClick@ioBaseChar@@QBE_NXZ	; ioBaseChar::IsDirKeyDoubleClick
EXTRN	?IsDirDoubleClick@ioUserKeyInput@@QBE_NXZ:PROC	; ioUserKeyInput::IsDirDoubleClick
; Function compile flags: /Ogsp
; File d:\lost saga for developer\youtube\tutorial\source\src\lsclient\iobasechar.h
;	COMDAT ?IsDirKeyDoubleClick@ioBaseChar@@QBE_NXZ
_TEXT	SEGMENT
?IsDirKeyDoubleClick@ioBaseChar@@QBE_NXZ PROC		; ioBaseChar::IsDirKeyDoubleClick, COMDAT
; _this$ = ecx

; 3398 : 	bool IsDirKeyDoubleClick() const { return m_KeyInput.IsDirDoubleClick(); }

  00000	81 c1 80 0c 00
	00		 add	 ecx, 3200		; 00000c80H
  00006	e9 00 00 00 00	 jmp	 ?IsDirDoubleClick@ioUserKeyInput@@QBE_NXZ ; ioUserKeyInput::IsDirDoubleClick
?IsDirKeyDoubleClick@ioBaseChar@@QBE_NXZ ENDP		; ioBaseChar::IsDirKeyDoubleClick
_TEXT	ENDS
PUBLIC	??2@YAPAXIPAX@Z					; operator new
; Function compile flags: /Ogsp
; File c:\program files (x86)\microsoft visual studio 10.0\vc\include\new
;	COMDAT ??2@YAPAXIPAX@Z
_TEXT	SEGMENT
___formal$ = 8						; size = 4
__Where$ = 12						; size = 4
??2@YAPAXIPAX@Z PROC					; operator new, COMDAT

; 56   : 	{	// construct array with placement at _Where

  00000	55		 push	 ebp
  00001	8b ec		 mov	 ebp, esp

; 57   : 	return (_Where);

  00003	8b 45 0c	 mov	 eax, DWORD PTR __Where$[ebp]

; 58   : 	}

  00006	5d		 pop	 ebp
  00007	c3		 ret	 0
??2@YAPAXIPAX@Z ENDP					; operator new
_TEXT	ENDS
PUBLIC	??3@YAXPAX0@Z					; operator delete
; Function compile flags: /Ogsp
;	COMDAT ??3@YAXPAX0@Z
_TEXT	SEGMENT
___formal$ = 8						; size = 4
___formal$ = 12						; size = 4
??3@YAXPAX0@Z PROC					; operator delete, COMDAT

; 62   : 	}

  00000	c3		 ret	 0
??3@YAXPAX0@Z ENDP					; operator delete
_TEXT	ENDS
PUBLIC	??_R0?AVioWeapon@@@8				; ioWeapon `RTTI Type Descriptor'
PUBLIC	??_R0?AVioZoneEffectWeapon@@@8			; ioZoneEffectWeapon `RTTI Type Descriptor'
PUBLIC	?ToZoneEffectWeapon@@YAPAVioZoneEffectWeapon@@PAVioWeapon@@@Z ; ToZoneEffectWeapon
EXTRN	___RTDynamicCast:PROC
;	COMDAT ??_R0?AVioWeapon@@@8
; File d:\lost saga for developer\youtube\tutorial\source\src\lsclient\iozoneeffectweapon.h
_DATA	SEGMENT
??_R0?AVioWeapon@@@8 DD FLAT:??_7type_info@@6B@		; ioWeapon `RTTI Type Descriptor'
	DD	00H
	DB	'.?AVioWeapon@@', 00H
_DATA	ENDS
;	COMDAT ??_R0?AVioZoneEffectWeapon@@@8
_DATA	SEGMENT
??_R0?AVioZoneEffectWeapon@@@8 DD FLAT:??_7type_info@@6B@ ; ioZoneEffectWeapon `RTTI Type Descriptor'
	DD	00H
	DB	'.?AVioZoneEffectWeapon@@', 00H
; Function compile flags: /Ogsp
_DATA	ENDS
;	COMDAT ?ToZoneEffectWeapon@@YAPAVioZoneEffectWeapon@@PAVioWeapon@@@Z
_TEXT	SEGMENT
_pWeapon$ = 8						; size = 4
?ToZoneEffectWeapon@@YAPAVioZoneEffectWeapon@@PAVioWeapon@@@Z PROC ; ToZoneEffectWeapon, COMDAT

; 217  : {

  00000	55		 push	 ebp
  00001	8b ec		 mov	 ebp, esp
  00003	56		 push	 esi

; 218  : 	if( !pWeapon || pWeapon->GetType() != ioWeapon::WT_ZONE_EFFECT )

  00004	8b 75 08	 mov	 esi, DWORD PTR _pWeapon$[ebp]
  00007	85 f6		 test	 esi, esi
  00009	74 28		 je	 SHORT $LN1@ToZoneEffe
  0000b	8b 06		 mov	 eax, DWORD PTR [esi]
  0000d	8b ce		 mov	 ecx, esi
  0000f	ff 90 10 01 00
	00		 call	 DWORD PTR [eax+272]
  00015	83 f8 08	 cmp	 eax, 8
  00018	75 19		 jne	 SHORT $LN1@ToZoneEffe

; 220  : 
; 221  : 	return dynamic_cast< ioZoneEffectWeapon* >( pWeapon );

  0001a	6a 00		 push	 0
  0001c	68 00 00 00 00	 push	 OFFSET ??_R0?AVioZoneEffectWeapon@@@8
  00021	68 00 00 00 00	 push	 OFFSET ??_R0?AVioWeapon@@@8
  00026	6a 00		 push	 0
  00028	56		 push	 esi
  00029	e8 00 00 00 00	 call	 ___RTDynamicCast
  0002e	83 c4 14	 add	 esp, 20			; 00000014H
  00031	eb 02		 jmp	 SHORT $LN3@ToZoneEffe
$LN1@ToZoneEffe:

; 219  : 		return NULL;

  00033	33 c0		 xor	 eax, eax
$LN3@ToZoneEffe:
  00035	5e		 pop	 esi

; 222  : }

  00036	5d		 pop	 ebp
  00037	c3		 ret	 0
?ToZoneEffectWeapon@@YAPAVioZoneEffectWeapon@@PAVioWeapon@@@Z ENDP ; ToZoneEffectWeapon
_TEXT	ENDS
PUBLIC	?_Adopt@_Iterator_base0@std@@QAEXPBX@Z		; std::_Iterator_base0::_Adopt
; Function compile flags: /Ogsp
; File c:\program files (x86)\microsoft visual studio 10.0\vc\include\xutility
;	COMDAT ?_Adopt@_Iterator_base0@std@@QAEXPBX@Z
_TEXT	SEGMENT
___formal$ = 8						; size = 4
?_Adopt@_Iterator_base0@std@@QAEXPBX@Z PROC		; std::_Iterator_base0::_Adopt, COMDAT
; _this$ = ecx

; 49   : 		}

  00000	c2 04 00	 ret	 4
?_Adopt@_Iterator_base0@std@@QAEXPBX@Z ENDP		; std::_Iterator_base0::_Adopt
_TEXT	ENDS
PUBLIC	?Init@ioLeeSunSin@@QAEXXZ			; ioLeeSunSin::Init
; Function compile flags: /Ogsp
; File d:\lost saga for developer\youtube\tutorial\source\src\lsclient\ioleesunsin.cpp
;	COMDAT ?Init@ioLeeSunSin@@QAEXXZ
_TEXT	SEGMENT
?Init@ioLeeSunSin@@QAEXXZ PROC				; ioLeeSunSin::Init, COMDAT
; _this$ = ecx

; 46   : 	m_ChargeState				= CS_NONE;
; 47   : 	m_WoundedState				= WS_DELAY;
; 48   : 	m_GatherState				= GS_NONE;
; 49   : 
; 50   : 	m_CurrDirKey				= ioUserKeyInput::DKI_NONE;
; 51   : 
; 52   : 	m_iCurCombo					= 0;	
; 53   : 	m_iCurAirJump				= 0;
; 54   : 
; 55   : 	m_dwWoundedStartChargeTime	= 0;
; 56   : 	m_dwWoundedPreEndTime		= 0;
; 57   : 	m_dwAttackStartTime			= 0;
; 58   : 	m_dwKeyReserveTime			= 0;
; 59   : 	m_dwExtendAttackEnd			= 0;
; 60   : 	m_dwAssultDashCurrCount		= 0;
; 61   : 
; 62   : 	m_bCurrMaxEffect			= false;
; 63   : 
; 64   : 	m_fAirJumpPowerRate			= 0.0f;

  00000	0f 57 c0	 xorps	 xmm0, xmm0
  00003	33 c0		 xor	 eax, eax
  00005	89 81 54 19 00
	00		 mov	 DWORD PTR [ecx+6484], eax
  0000b	89 81 ac 1b 00
	00		 mov	 DWORD PTR [ecx+7084], eax
  00011	89 81 58 19 00
	00		 mov	 DWORD PTR [ecx+6488], eax
  00017	89 81 0c 1a 00
	00		 mov	 DWORD PTR [ecx+6668], eax
  0001d	89 81 60 19 00
	00		 mov	 DWORD PTR [ecx+6496], eax
  00023	89 81 58 0f 00
	00		 mov	 DWORD PTR [ecx+3928], eax
  00029	89 81 b4 1b 00
	00		 mov	 DWORD PTR [ecx+7092], eax
  0002f	89 81 b8 1b 00
	00		 mov	 DWORD PTR [ecx+7096], eax
  00035	89 81 5c 19 00
	00		 mov	 DWORD PTR [ecx+6492], eax
  0003b	89 81 f8 0e 00
	00		 mov	 DWORD PTR [ecx+3832], eax
  00041	89 81 a0 1b 00
	00		 mov	 DWORD PTR [ecx+7072], eax
  00047	89 81 a8 1b 00
	00		 mov	 DWORD PTR [ecx+7080], eax
  0004d	88 81 08 1a 00
	00		 mov	 BYTE PTR [ecx+6664], al
  00053	f3 0f 11 81 48
	0f 00 00	 movss	 DWORD PTR [ecx+3912], xmm0

; 65   : }

  0005b	c3		 ret	 0
?Init@ioLeeSunSin@@QAEXXZ ENDP				; ioLeeSunSin::Init
_TEXT	ENDS
PUBLIC	?EndEffect@ioLeeSunSin@@QAEXPAVioBaseChar@@@Z	; ioLeeSunSin::EndEffect
EXTRN	?EndEffect@ioBaseChar@@QAEXK_N@Z:PROC		; ioBaseChar::EndEffect
; Function compile flags: /Ogsp
;	COMDAT ?EndEffect@ioLeeSunSin@@QAEXPAVioBaseChar@@@Z
_TEXT	SEGMENT
_pOwner$ = 8						; size = 4
?EndEffect@ioLeeSunSin@@QAEXPAVioBaseChar@@@Z PROC	; ioLeeSunSin::EndEffect, COMDAT
; _this$ = ecx

; 68   : {

  00000	55		 push	 ebp
  00001	8b ec		 mov	 ebp, esp
  00003	56		 push	 esi

; 69   : 	if( m_GatherEffectID != -1 )

  00004	8d b1 04 1a 00
	00		 lea	 esi, DWORD PTR [ecx+6660]
  0000a	8b 06		 mov	 eax, DWORD PTR [esi]
  0000c	83 f8 ff	 cmp	 eax, -1
  0000f	74 0e		 je	 SHORT $LN1@EndEffect

; 70   : 	{
; 71   : 		pOwner->EndEffect( m_GatherEffectID );

  00011	8b 4d 08	 mov	 ecx, DWORD PTR _pOwner$[ebp]
  00014	6a 01		 push	 1
  00016	50		 push	 eax
  00017	e8 00 00 00 00	 call	 ?EndEffect@ioBaseChar@@QAEXK_N@Z ; ioBaseChar::EndEffect

; 72   : 		m_GatherEffectID = -1;

  0001c	83 0e ff	 or	 DWORD PTR [esi], -1
$LN1@EndEffect:
  0001f	5e		 pop	 esi

; 73   : 	}
; 74   : }

  00020	5d		 pop	 ebp
  00021	c2 04 00	 ret	 4
?EndEffect@ioLeeSunSin@@QAEXPAVioBaseChar@@@Z ENDP	; ioLeeSunSin::EndEffect
_TEXT	ENDS
PUBLIC	??1WoundedInfo@ioLeeSunSin@@QAE@XZ		; ioLeeSunSin::WoundedInfo::~WoundedInfo
EXTRN	__imp_??1ioHashString@@QAE@XZ:PROC
; Function compile flags: /Ogsp
;	COMDAT ??1WoundedInfo@ioLeeSunSin@@QAE@XZ
_TEXT	SEGMENT
??1WoundedInfo@ioLeeSunSin@@QAE@XZ PROC			; ioLeeSunSin::WoundedInfo::~WoundedInfo, COMDAT
; _this$ = ecx
  00000	83 c1 0c	 add	 ecx, 12			; 0000000cH
  00003	ff 25 00 00 00
	00		 jmp	 DWORD PTR __imp_??1ioHashString@@QAE@XZ
??1WoundedInfo@ioLeeSunSin@@QAE@XZ ENDP			; ioLeeSunSin::WoundedInfo::~WoundedInfo
_TEXT	ENDS
PUBLIC	?GetSubType@ioLeeSunSin@@UBE?AW4WeaponSubType@ioWeaponItem@@XZ ; ioLeeSunSin::GetSubType
; Function compile flags: /Ogsp
;	COMDAT ?GetSubType@ioLeeSunSin@@UBE?AW4WeaponSubType@ioWeaponItem@@XZ
_TEXT	SEGMENT
?GetSubType@ioLeeSunSin@@UBE?AW4WeaponSubType@ioWeaponItem@@XZ PROC ; ioLeeSunSin::GetSubType, COMDAT
; _this$ = ecx

; 161  : 	return WST_LEESUNSIN_ITEM;

  00000	6a 79		 push	 121			; 00000079H
  00002	58		 pop	 eax

; 162  : }

  00003	c3		 ret	 0
?GetSubType@ioLeeSunSin@@UBE?AW4WeaponSubType@ioWeaponItem@@XZ ENDP ; ioLeeSunSin::GetSubType
_TEXT	ENDS
PUBLIC	?OnEquiped@ioLeeSunSin@@UAEXPAVioBaseChar@@@Z	; ioLeeSunSin::OnEquiped
EXTRN	?OnEquiped@ioAttackableItem@@UAEXPAVioBaseChar@@@Z:PROC ; ioAttackableItem::OnEquiped
; Function compile flags: /Ogsp
;	COMDAT ?OnEquiped@ioLeeSunSin@@UAEXPAVioBaseChar@@@Z
_TEXT	SEGMENT
_pOwner$ = 8						; size = 4
?OnEquiped@ioLeeSunSin@@UAEXPAVioBaseChar@@@Z PROC	; ioLeeSunSin::OnEquiped, COMDAT
; _this$ = ecx

; 165  : {

  00000	55		 push	 ebp
  00001	8b ec		 mov	 ebp, esp

; 167  : }

  00003	5d		 pop	 ebp

; 166  : 	ioAttackableItem::OnEquiped( pOwner );	

  00004	e9 00 00 00 00	 jmp	 ?OnEquiped@ioAttackableItem@@UAEXPAVioBaseChar@@@Z ; ioAttackableItem::OnEquiped
?OnEquiped@ioLeeSunSin@@UAEXPAVioBaseChar@@@Z ENDP	; ioLeeSunSin::OnEquiped
_TEXT	ENDS
PUBLIC	?OnReleased@ioLeeSunSin@@UAEXPAVioBaseChar@@@Z	; ioLeeSunSin::OnReleased
EXTRN	?OnReleased@ioAttackableItem@@UAEXPAVioBaseChar@@@Z:PROC ; ioAttackableItem::OnReleased
; Function compile flags: /Ogsp
;	COMDAT ?OnReleased@ioLeeSunSin@@UAEXPAVioBaseChar@@@Z
_TEXT	SEGMENT
_pOwner$ = 8						; size = 4
?OnReleased@ioLeeSunSin@@UAEXPAVioBaseChar@@@Z PROC	; ioLeeSunSin::OnReleased, COMDAT
; _this$ = ecx

; 170  : {

  00000	55		 push	 ebp
  00001	8b ec		 mov	 ebp, esp
  00003	56		 push	 esi

; 171  : 	ioAttackableItem::OnReleased( pOwner );

  00004	ff 75 08	 push	 DWORD PTR _pOwner$[ebp]
  00007	8b f1		 mov	 esi, ecx
  00009	e8 00 00 00 00	 call	 ?OnReleased@ioAttackableItem@@UAEXPAVioBaseChar@@@Z ; ioAttackableItem::OnReleased

; 172  : 
; 173  : 	EndEffect( pOwner );

  0000e	ff 75 08	 push	 DWORD PTR _pOwner$[ebp]
  00011	8b ce		 mov	 ecx, esi
  00013	e8 00 00 00 00	 call	 ?EndEffect@ioLeeSunSin@@QAEXPAVioBaseChar@@@Z ; ioLeeSunSin::EndEffect
  00018	5e		 pop	 esi

; 174  : }

  00019	5d		 pop	 ebp
  0001a	c2 04 00	 ret	 4
?OnReleased@ioLeeSunSin@@UAEXPAVioBaseChar@@@Z ENDP	; ioLeeSunSin::OnReleased
_TEXT	ENDS
PUBLIC	?OnNormalAttack@ioLeeSunSin@@IAEXPAVioBaseChar@@@Z ; ioLeeSunSin::OnNormalAttack
EXTRN	?CheckNormalAttack@ioAttackableItem@@UAEXPAVioBaseChar@@@Z:PROC ; ioAttackableItem::CheckNormalAttack
; Function compile flags: /Ogsp
;	COMDAT ?OnNormalAttack@ioLeeSunSin@@IAEXPAVioBaseChar@@@Z
_TEXT	SEGMENT
_pOwner$ = 8						; size = 4
?OnNormalAttack@ioLeeSunSin@@IAEXPAVioBaseChar@@@Z PROC	; ioLeeSunSin::OnNormalAttack, COMDAT
; _this$ = ecx

; 226  : {

  00000	55		 push	 ebp
  00001	8b ec		 mov	 ebp, esp
  00003	56		 push	 esi
  00004	57		 push	 edi

; 227  : 	if( pOwner->IsNeedProcess() )

  00005	8b 7d 08	 mov	 edi, DWORD PTR _pOwner$[ebp]
  00008	8b 07		 mov	 eax, DWORD PTR [edi]
  0000a	8b f1		 mov	 esi, ecx
  0000c	8b cf		 mov	 ecx, edi
  0000e	ff 90 00 01 00
	00		 call	 DWORD PTR [eax+256]
  00014	84 c0		 test	 al, al
  00016	74 1a		 je	 SHORT $LN1@OnNormalAt

; 228  : 	{
; 229  : 		CheckCancelReserve( pOwner );

  00018	8b 06		 mov	 eax, DWORD PTR [esi]
  0001a	57		 push	 edi
  0001b	8b ce		 mov	 ecx, esi
  0001d	ff 90 40 02 00
	00		 call	 DWORD PTR [eax+576]

; 230  : 		if( ProcessCancel(pOwner) )

  00023	8b 06		 mov	 eax, DWORD PTR [esi]
  00025	57		 push	 edi
  00026	8b ce		 mov	 ecx, esi
  00028	ff 90 48 02 00
	00		 call	 DWORD PTR [eax+584]
  0002e	84 c0		 test	 al, al
  00030	75 08		 jne	 SHORT $LN3@OnNormalAt
$LN1@OnNormalAt:

; 231  : 			return;
; 232  : 	}
; 233  : 
; 234  : 	ioWeaponItem::CheckNormalAttack( pOwner );

  00032	57		 push	 edi
  00033	8b ce		 mov	 ecx, esi
  00035	e8 00 00 00 00	 call	 ?CheckNormalAttack@ioAttackableItem@@UAEXPAVioBaseChar@@@Z ; ioAttackableItem::CheckNormalAttack
$LN3@OnNormalAt:
  0003a	5f		 pop	 edi
  0003b	5e		 pop	 esi

; 235  : }

  0003c	5d		 pop	 ebp
  0003d	c2 04 00	 ret	 4
?OnNormalAttack@ioLeeSunSin@@IAEXPAVioBaseChar@@@Z ENDP	; ioLeeSunSin::OnNormalAttack
_TEXT	ENDS
PUBLIC	__$ArrayPad$
PUBLIC	?ChangeToGatherEndByJump@ioLeeSunSin@@IAEXPAVioBaseChar@@@Z ; ioLeeSunSin::ChangeToGatherEndByJump
EXTRN	??1SP2Packet@@UAE@XZ:PROC			; SP2Packet::~SP2Packet
EXTRN	?SendToAllPlayingUser@P2PNetwork@@YAXAAVSP2Packet@@PAVioBaseChar@@@Z:PROC ; P2PNetwork::SendToAllPlayingUser
EXTRN	??6SP2Packet@@QAEAAV0@ABUD3DXQUATERNION@@@Z:PROC ; SP2Packet::operator<<
EXTRN	??6SP2Packet@@QAEAAV0@E@Z:PROC			; SP2Packet::operator<<
EXTRN	?FillItemGaugePacketHeader@ioAttackableItem@@QAEXPAVioBaseChar@@AAVSP2Packet@@@Z:PROC ; ioAttackableItem::FillItemGaugePacketHeader
EXTRN	??0SP2Packet@@QAE@K@Z:PROC			; SP2Packet::SP2Packet
EXTRN	?SetJumpState@ioBaseChar@@QAEX_N@Z:PROC		; ioBaseChar::SetJumpState
EXTRN	___security_cookie:DWORD
EXTRN	___CxxFrameHandler3:PROC
EXTRN	@__security_check_cookie@4:PROC
EXTRN	__chkstk:PROC
;	COMDAT xdata$x
; File d:\lost saga for developer\youtube\tutorial\source\src\lsclient\iobasechar.h
xdata$x	SEGMENT
__unwindtable$?ChangeToGatherEndByJump@ioLeeSunSin@@IAEXPAVioBaseChar@@@Z DD 0ffffffffH
	DD	FLAT:__unwindfunclet$?ChangeToGatherEndByJump@ioLeeSunSin@@IAEXPAVioBaseChar@@@Z$0
__ehfuncinfo$?ChangeToGatherEndByJump@ioLeeSunSin@@IAEXPAVioBaseChar@@@Z DD 019930522H
	DD	01H
	DD	FLAT:__unwindtable$?ChangeToGatherEndByJump@ioLeeSunSin@@IAEXPAVioBaseChar@@@Z
	DD	2 DUP(00H)
	DD	2 DUP(00H)
	DD	00H
	DD	01H
; Function compile flags: /Ogsp
; File d:\lost saga for developer\youtube\tutorial\source\src\lsclient\ioleesunsin.cpp
xdata$x	ENDS
;	COMDAT ?ChangeToGatherEndByJump@ioLeeSunSin@@IAEXPAVioBaseChar@@@Z
_TEXT	SEGMENT
_kPacket$549690 = -32808				; size = 32792
__$ArrayPad$ = -16					; size = 4
__$EHRec$ = -12						; size = 12
_pOwner$ = 8						; size = 4
?ChangeToGatherEndByJump@ioLeeSunSin@@IAEXPAVioBaseChar@@@Z PROC ; ioLeeSunSin::ChangeToGatherEndByJump, COMDAT
; _this$ = ecx

; 415  : {

  00000	55		 push	 ebp
  00001	8b ec		 mov	 ebp, esp
  00003	6a ff		 push	 -1
  00005	68 00 00 00 00	 push	 __ehhandler$?ChangeToGatherEndByJump@ioLeeSunSin@@IAEXPAVioBaseChar@@@Z
  0000a	64 a1 00 00 00
	00		 mov	 eax, DWORD PTR fs:0
  00010	50		 push	 eax
  00011	b8 1c 80 00 00	 mov	 eax, 32796		; 0000801cH
  00016	e8 00 00 00 00	 call	 __chkstk
  0001b	a1 00 00 00 00	 mov	 eax, DWORD PTR ___security_cookie
  00020	33 c5		 xor	 eax, ebp
  00022	89 45 f0	 mov	 DWORD PTR __$ArrayPad$[ebp], eax
  00025	56		 push	 esi
  00026	57		 push	 edi
  00027	50		 push	 eax
  00028	8d 45 f4	 lea	 eax, DWORD PTR __$EHRec$[ebp]
  0002b	64 a3 00 00 00
	00		 mov	 DWORD PTR fs:0, eax
  00031	8b 75 08	 mov	 esi, DWORD PTR _pOwner$[ebp]
  00034	8b f9		 mov	 edi, ecx

; 416  : 	SetNoneState( pOwner );

  00036	8b 07		 mov	 eax, DWORD PTR [edi]
  00038	6a 00		 push	 0
  0003a	56		 push	 esi
  0003b	ff 90 4c 01 00
	00		 call	 DWORD PTR [eax+332]

; 417  : 	pOwner->SetJumpState();

  00041	6a 01		 push	 1
  00043	8b ce		 mov	 ecx, esi
  00045	e8 00 00 00 00	 call	 ?SetJumpState@ioBaseChar@@QAEX_N@Z ; ioBaseChar::SetJumpState

; 418  : 
; 419  : 	if( pOwner->IsNeedSendNetwork() )

  0004a	8b 06		 mov	 eax, DWORD PTR [esi]
  0004c	8b ce		 mov	 ecx, esi
  0004e	ff 90 04 01 00
	00		 call	 DWORD PTR [eax+260]
  00054	84 c0		 test	 al, al
  00056	74 61		 je	 SHORT $LN1@ChangeToGa

; 420  : 	{
; 421  : 		SP2Packet kPacket( CUPK_ITEM_GAUGE_OK );

  00058	68 27 41 00 00	 push	 16679			; 00004127H
  0005d	8d 8d d8 7f ff
	ff		 lea	 ecx, DWORD PTR _kPacket$549690[ebp]
  00063	e8 00 00 00 00	 call	 ??0SP2Packet@@QAE@K@Z	; SP2Packet::SP2Packet
  00068	83 65 fc 00	 and	 DWORD PTR __$EHRec$[ebp+8], 0

; 422  : 		FillItemGaugePacketHeader( pOwner, kPacket );

  0006c	8d 85 d8 7f ff
	ff		 lea	 eax, DWORD PTR _kPacket$549690[ebp]
  00072	50		 push	 eax
  00073	56		 push	 esi
  00074	8b cf		 mov	 ecx, edi
  00076	e8 00 00 00 00	 call	 ?FillItemGaugePacketHeader@ioAttackableItem@@QAEXPAVioBaseChar@@AAVSP2Packet@@@Z ; ioAttackableItem::FillItemGaugePacketHeader

; 423  : 		kPacket << static_cast<byte>( SS_GATHERING_END_BY_JUMP );

  0007b	6a 03		 push	 3
  0007d	8d 8d d8 7f ff
	ff		 lea	 ecx, DWORD PTR _kPacket$549690[ebp]
  00083	e8 00 00 00 00	 call	 ??6SP2Packet@@QAEAAV0@E@Z ; SP2Packet::operator<<

; 424  : 		kPacket << pOwner->GetTargetRot();

  00088	81 c6 a4 06 00
	00		 add	 esi, 1700		; 000006a4H
  0008e	56		 push	 esi
  0008f	8d 8d d8 7f ff
	ff		 lea	 ecx, DWORD PTR _kPacket$549690[ebp]
  00095	e8 00 00 00 00	 call	 ??6SP2Packet@@QAEAAV0@ABUD3DXQUATERNION@@@Z ; SP2Packet::operator<<

; 425  : 		P2PNetwork::SendToAllPlayingUser( kPacket );

  0009a	8d 85 d8 7f ff
	ff		 lea	 eax, DWORD PTR _kPacket$549690[ebp]
  000a0	6a 00		 push	 0
  000a2	50		 push	 eax
  000a3	e8 00 00 00 00	 call	 ?SendToAllPlayingUser@P2PNetwork@@YAXAAVSP2Packet@@PAVioBaseChar@@@Z ; P2PNetwork::SendToAllPlayingUser

; 426  : 	}

  000a8	83 4d fc ff	 or	 DWORD PTR __$EHRec$[ebp+8], -1
  000ac	59		 pop	 ecx
  000ad	59		 pop	 ecx
  000ae	8d 8d d8 7f ff
	ff		 lea	 ecx, DWORD PTR _kPacket$549690[ebp]
  000b4	e8 00 00 00 00	 call	 ??1SP2Packet@@UAE@XZ	; SP2Packet::~SP2Packet
$LN1@ChangeToGa:

; 427  : }

  000b9	8b 4d f4	 mov	 ecx, DWORD PTR __$EHRec$[ebp]
  000bc	64 89 0d 00 00
	00 00		 mov	 DWORD PTR fs:0, ecx
  000c3	59		 pop	 ecx
  000c4	5f		 pop	 edi
  000c5	5e		 pop	 esi
  000c6	8b 4d f0	 mov	 ecx, DWORD PTR __$ArrayPad$[ebp]
  000c9	33 cd		 xor	 ecx, ebp
  000cb	e8 00 00 00 00	 call	 @__security_check_cookie@4
  000d0	c9		 leave
  000d1	c2 04 00	 ret	 4
_TEXT	ENDS
;	COMDAT text$x
text$x	SEGMENT
__unwindfunclet$?ChangeToGatherEndByJump@ioLeeSunSin@@IAEXPAVioBaseChar@@@Z$0:
  00000	8d 8d d8 7f ff
	ff		 lea	 ecx, DWORD PTR _kPacket$549690[ebp]
  00006	e9 00 00 00 00	 jmp	 ??1SP2Packet@@UAE@XZ	; SP2Packet::~SP2Packet
__ehhandler$?ChangeToGatherEndByJump@ioLeeSunSin@@IAEXPAVioBaseChar@@@Z:
  0000b	8b 54 24 08	 mov	 edx, DWORD PTR [esp+8]
  0000f	8d 42 0c	 lea	 eax, DWORD PTR [edx+12]
  00012	8b 8a d8 7f ff
	ff		 mov	 ecx, DWORD PTR [edx-32808]
  00018	33 c8		 xor	 ecx, eax
  0001a	e8 00 00 00 00	 call	 @__security_check_cookie@4
  0001f	8b 4a fc	 mov	 ecx, DWORD PTR [edx-4]
  00022	33 c8		 xor	 ecx, eax
  00024	e8 00 00 00 00	 call	 @__security_check_cookie@4
  00029	b8 00 00 00 00	 mov	 eax, OFFSET __ehfuncinfo$?ChangeToGatherEndByJump@ioLeeSunSin@@IAEXPAVioBaseChar@@@Z
  0002e	e9 00 00 00 00	 jmp	 ___CxxFrameHandler3
text$x	ENDS
?ChangeToGatherEndByJump@ioLeeSunSin@@IAEXPAVioBaseChar@@@Z ENDP ; ioLeeSunSin::ChangeToGatherEndByJump
PUBLIC	__$ArrayPad$
PUBLIC	?ChangeToGatherEndBySkill@ioLeeSunSin@@IAEXPAVioBaseChar@@@Z ; ioLeeSunSin::ChangeToGatherEndBySkill
EXTRN	?SetUseSkill@ioBaseChar@@QAE_NHW4SkillUseType@@_N1@Z:PROC ; ioBaseChar::SetUseSkill
EXTRN	?IsBuffLimitSkill@ioBaseChar@@QBE_NXZ:PROC	; ioBaseChar::IsBuffLimitSkill
EXTRN	?GetSkillKeyInput@ioBaseChar@@QAEHXZ:PROC	; ioBaseChar::GetSkillKeyInput
;	COMDAT xdata$x
; File d:\lost saga for developer\youtube\tutorial\source\src\lsclient\iobasechar.h
xdata$x	SEGMENT
__unwindtable$?ChangeToGatherEndBySkill@ioLeeSunSin@@IAEXPAVioBaseChar@@@Z DD 0ffffffffH
	DD	FLAT:__unwindfunclet$?ChangeToGatherEndBySkill@ioLeeSunSin@@IAEXPAVioBaseChar@@@Z$0
__ehfuncinfo$?ChangeToGatherEndBySkill@ioLeeSunSin@@IAEXPAVioBaseChar@@@Z DD 019930522H
	DD	01H
	DD	FLAT:__unwindtable$?ChangeToGatherEndBySkill@ioLeeSunSin@@IAEXPAVioBaseChar@@@Z
	DD	2 DUP(00H)
	DD	2 DUP(00H)
	DD	00H
	DD	01H
; Function compile flags: /Ogsp
; File d:\lost saga for developer\youtube\tutorial\source\src\lsclient\ioleesunsin.cpp
xdata$x	ENDS
;	COMDAT ?ChangeToGatherEndBySkill@ioLeeSunSin@@IAEXPAVioBaseChar@@@Z
_TEXT	SEGMENT
_kPacket$549699 = -32808				; size = 32792
__$ArrayPad$ = -16					; size = 4
__$EHRec$ = -12						; size = 12
_pOwner$ = 8						; size = 4
?ChangeToGatherEndBySkill@ioLeeSunSin@@IAEXPAVioBaseChar@@@Z PROC ; ioLeeSunSin::ChangeToGatherEndBySkill, COMDAT
; _this$ = ecx

; 430  : {

  00000	55		 push	 ebp
  00001	8b ec		 mov	 ebp, esp
  00003	6a ff		 push	 -1
  00005	68 00 00 00 00	 push	 __ehhandler$?ChangeToGatherEndBySkill@ioLeeSunSin@@IAEXPAVioBaseChar@@@Z
  0000a	64 a1 00 00 00
	00		 mov	 eax, DWORD PTR fs:0
  00010	50		 push	 eax
  00011	b8 1c 80 00 00	 mov	 eax, 32796		; 0000801cH
  00016	e8 00 00 00 00	 call	 __chkstk
  0001b	a1 00 00 00 00	 mov	 eax, DWORD PTR ___security_cookie
  00020	33 c5		 xor	 eax, ebp
  00022	89 45 f0	 mov	 DWORD PTR __$ArrayPad$[ebp], eax
  00025	53		 push	 ebx
  00026	56		 push	 esi
  00027	57		 push	 edi
  00028	50		 push	 eax
  00029	8d 45 f4	 lea	 eax, DWORD PTR __$EHRec$[ebp]
  0002c	64 a3 00 00 00
	00		 mov	 DWORD PTR fs:0, eax
  00032	8b 75 08	 mov	 esi, DWORD PTR _pOwner$[ebp]
  00035	8b f9		 mov	 edi, ecx

; 431  : 	int iSkillNum = pOwner->GetSkillKeyInput();

  00037	8b ce		 mov	 ecx, esi
  00039	e8 00 00 00 00	 call	 ?GetSkillKeyInput@ioBaseChar@@QAEHXZ ; ioBaseChar::GetSkillKeyInput

; 432  : 	if( iSkillNum == 0 && !pOwner->IsBuffLimitSkill() && pOwner->SetUseSkill( 0, SUT_NORMAL ) )

  0003e	33 db		 xor	 ebx, ebx
  00040	3b c3		 cmp	 eax, ebx
  00042	75 26		 jne	 SHORT $LN2@ChangeToGa@2
  00044	8b ce		 mov	 ecx, esi
  00046	e8 00 00 00 00	 call	 ?IsBuffLimitSkill@ioBaseChar@@QBE_NXZ ; ioBaseChar::IsBuffLimitSkill
  0004b	84 c0		 test	 al, al
  0004d	75 1b		 jne	 SHORT $LN2@ChangeToGa@2
  0004f	53		 push	 ebx
  00050	53		 push	 ebx
  00051	53		 push	 ebx
  00052	53		 push	 ebx
  00053	8b ce		 mov	 ecx, esi
  00055	e8 00 00 00 00	 call	 ?SetUseSkill@ioBaseChar@@QAE_NHW4SkillUseType@@_N1@Z ; ioBaseChar::SetUseSkill
  0005a	84 c0		 test	 al, al
  0005c	74 0c		 je	 SHORT $LN2@ChangeToGa@2

; 433  : 	{
; 434  : 		SetNoneState( pOwner );

  0005e	8b 07		 mov	 eax, DWORD PTR [edi]
  00060	53		 push	 ebx
  00061	56		 push	 esi
  00062	8b cf		 mov	 ecx, edi
  00064	ff 90 4c 01 00
	00		 call	 DWORD PTR [eax+332]
$LN2@ChangeToGa@2:

; 435  : 	}
; 436  : 
; 437  : 	if( pOwner->IsNeedSendNetwork() )

  0006a	8b 06		 mov	 eax, DWORD PTR [esi]
  0006c	8b ce		 mov	 ecx, esi
  0006e	ff 90 04 01 00
	00		 call	 DWORD PTR [eax+260]
  00074	84 c0		 test	 al, al
  00076	74 5f		 je	 SHORT $LN1@ChangeToGa@2

; 438  : 	{
; 439  : 		SP2Packet kPacket( CUPK_ITEM_GAUGE_OK );

  00078	68 27 41 00 00	 push	 16679			; 00004127H
  0007d	8d 8d d8 7f ff
	ff		 lea	 ecx, DWORD PTR _kPacket$549699[ebp]
  00083	e8 00 00 00 00	 call	 ??0SP2Packet@@QAE@K@Z	; SP2Packet::SP2Packet

; 440  : 		FillItemGaugePacketHeader( pOwner, kPacket );

  00088	8d 85 d8 7f ff
	ff		 lea	 eax, DWORD PTR _kPacket$549699[ebp]
  0008e	50		 push	 eax
  0008f	56		 push	 esi
  00090	8b cf		 mov	 ecx, edi
  00092	89 5d fc	 mov	 DWORD PTR __$EHRec$[ebp+8], ebx
  00095	e8 00 00 00 00	 call	 ?FillItemGaugePacketHeader@ioAttackableItem@@QAEXPAVioBaseChar@@AAVSP2Packet@@@Z ; ioAttackableItem::FillItemGaugePacketHeader

; 441  : 		kPacket << static_cast<byte>( SS_GATHERING_END_BY_SKILL );

  0009a	6a 04		 push	 4
  0009c	8d 8d d8 7f ff
	ff		 lea	 ecx, DWORD PTR _kPacket$549699[ebp]
  000a2	e8 00 00 00 00	 call	 ??6SP2Packet@@QAEAAV0@E@Z ; SP2Packet::operator<<

; 442  : 		kPacket << pOwner->GetTargetRot();

  000a7	81 c6 a4 06 00
	00		 add	 esi, 1700		; 000006a4H
  000ad	56		 push	 esi
  000ae	8d 8d d8 7f ff
	ff		 lea	 ecx, DWORD PTR _kPacket$549699[ebp]
  000b4	e8 00 00 00 00	 call	 ??6SP2Packet@@QAEAAV0@ABUD3DXQUATERNION@@@Z ; SP2Packet::operator<<

; 443  : 		P2PNetwork::SendToAllPlayingUser( kPacket );

  000b9	8d 85 d8 7f ff
	ff		 lea	 eax, DWORD PTR _kPacket$549699[ebp]
  000bf	53		 push	 ebx
  000c0	50		 push	 eax
  000c1	e8 00 00 00 00	 call	 ?SendToAllPlayingUser@P2PNetwork@@YAXAAVSP2Packet@@PAVioBaseChar@@@Z ; P2PNetwork::SendToAllPlayingUser

; 444  : 	}

  000c6	83 4d fc ff	 or	 DWORD PTR __$EHRec$[ebp+8], -1
  000ca	59		 pop	 ecx
  000cb	59		 pop	 ecx
  000cc	8d 8d d8 7f ff
	ff		 lea	 ecx, DWORD PTR _kPacket$549699[ebp]
  000d2	e8 00 00 00 00	 call	 ??1SP2Packet@@UAE@XZ	; SP2Packet::~SP2Packet
$LN1@ChangeToGa@2:

; 445  : }

  000d7	8b 4d f4	 mov	 ecx, DWORD PTR __$EHRec$[ebp]
  000da	64 89 0d 00 00
	00 00		 mov	 DWORD PTR fs:0, ecx
  000e1	59		 pop	 ecx
  000e2	5f		 pop	 edi
  000e3	5e		 pop	 esi
  000e4	5b		 pop	 ebx
  000e5	8b 4d f0	 mov	 ecx, DWORD PTR __$ArrayPad$[ebp]
  000e8	33 cd		 xor	 ecx, ebp
  000ea	e8 00 00 00 00	 call	 @__security_check_cookie@4
  000ef	c9		 leave
  000f0	c2 04 00	 ret	 4
_TEXT	ENDS
;	COMDAT text$x
text$x	SEGMENT
__unwindfunclet$?ChangeToGatherEndBySkill@ioLeeSunSin@@IAEXPAVioBaseChar@@@Z$0:
  00000	8d 8d d8 7f ff
	ff		 lea	 ecx, DWORD PTR _kPacket$549699[ebp]
  00006	e9 00 00 00 00	 jmp	 ??1SP2Packet@@UAE@XZ	; SP2Packet::~SP2Packet
__ehhandler$?ChangeToGatherEndBySkill@ioLeeSunSin@@IAEXPAVioBaseChar@@@Z:
  0000b	8b 54 24 08	 mov	 edx, DWORD PTR [esp+8]
  0000f	8d 42 0c	 lea	 eax, DWORD PTR [edx+12]
  00012	8b 8a d4 7f ff
	ff		 mov	 ecx, DWORD PTR [edx-32812]
  00018	33 c8		 xor	 ecx, eax
  0001a	e8 00 00 00 00	 call	 @__security_check_cookie@4
  0001f	8b 4a fc	 mov	 ecx, DWORD PTR [edx-4]
  00022	33 c8		 xor	 ecx, eax
  00024	e8 00 00 00 00	 call	 @__security_check_cookie@4
  00029	b8 00 00 00 00	 mov	 eax, OFFSET __ehfuncinfo$?ChangeToGatherEndBySkill@ioLeeSunSin@@IAEXPAVioBaseChar@@@Z
  0002e	e9 00 00 00 00	 jmp	 ___CxxFrameHandler3
text$x	ENDS
?ChangeToGatherEndBySkill@ioLeeSunSin@@IAEXPAVioBaseChar@@@Z ENDP ; ioLeeSunSin::ChangeToGatherEndBySkill
PUBLIC	__$ArrayPad$
PUBLIC	?ChangeToGatherEndByRun@ioLeeSunSin@@IAEXPAVioBaseChar@@@Z ; ioLeeSunSin::ChangeToGatherEndByRun
;	COMDAT xdata$x
; File d:\lost saga for developer\youtube\tutorial\source\src\lsclient\iobasechar.h
xdata$x	SEGMENT
__unwindtable$?ChangeToGatherEndByRun@ioLeeSunSin@@IAEXPAVioBaseChar@@@Z DD 0ffffffffH
	DD	FLAT:__unwindfunclet$?ChangeToGatherEndByRun@ioLeeSunSin@@IAEXPAVioBaseChar@@@Z$0
__ehfuncinfo$?ChangeToGatherEndByRun@ioLeeSunSin@@IAEXPAVioBaseChar@@@Z DD 019930522H
	DD	01H
	DD	FLAT:__unwindtable$?ChangeToGatherEndByRun@ioLeeSunSin@@IAEXPAVioBaseChar@@@Z
	DD	2 DUP(00H)
	DD	2 DUP(00H)
	DD	00H
	DD	01H
; Function compile flags: /Ogsp
; File d:\lost saga for developer\youtube\tutorial\source\src\lsclient\ioleesunsin.cpp
xdata$x	ENDS
;	COMDAT ?ChangeToGatherEndByRun@ioLeeSunSin@@IAEXPAVioBaseChar@@@Z
_TEXT	SEGMENT
_kPacket$549706 = -32808				; size = 32792
__$ArrayPad$ = -16					; size = 4
__$EHRec$ = -12						; size = 12
_pOwner$ = 8						; size = 4
?ChangeToGatherEndByRun@ioLeeSunSin@@IAEXPAVioBaseChar@@@Z PROC ; ioLeeSunSin::ChangeToGatherEndByRun, COMDAT
; _this$ = ecx

; 448  : {

  00000	55		 push	 ebp
  00001	8b ec		 mov	 ebp, esp
  00003	6a ff		 push	 -1
  00005	68 00 00 00 00	 push	 __ehhandler$?ChangeToGatherEndByRun@ioLeeSunSin@@IAEXPAVioBaseChar@@@Z
  0000a	64 a1 00 00 00
	00		 mov	 eax, DWORD PTR fs:0
  00010	50		 push	 eax
  00011	b8 1c 80 00 00	 mov	 eax, 32796		; 0000801cH
  00016	e8 00 00 00 00	 call	 __chkstk
  0001b	a1 00 00 00 00	 mov	 eax, DWORD PTR ___security_cookie
  00020	33 c5		 xor	 eax, ebp
  00022	89 45 f0	 mov	 DWORD PTR __$ArrayPad$[ebp], eax
  00025	56		 push	 esi
  00026	57		 push	 edi
  00027	50		 push	 eax
  00028	8d 45 f4	 lea	 eax, DWORD PTR __$EHRec$[ebp]
  0002b	64 a3 00 00 00
	00		 mov	 DWORD PTR fs:0, eax
  00031	8b 75 08	 mov	 esi, DWORD PTR _pOwner$[ebp]
  00034	8b f9		 mov	 edi, ecx

; 449  : 	SetNoneState( pOwner );	

  00036	8b 07		 mov	 eax, DWORD PTR [edi]
  00038	6a 00		 push	 0
  0003a	56		 push	 esi
  0003b	ff 90 4c 01 00
	00		 call	 DWORD PTR [eax+332]

; 450  : 
; 451  : 	if( pOwner->IsNeedSendNetwork() )

  00041	8b 06		 mov	 eax, DWORD PTR [esi]
  00043	8b ce		 mov	 ecx, esi
  00045	ff 90 04 01 00
	00		 call	 DWORD PTR [eax+260]
  0004b	84 c0		 test	 al, al
  0004d	74 61		 je	 SHORT $LN1@ChangeToGa@3

; 452  : 	{
; 453  : 		SP2Packet kPacket( CUPK_ITEM_GAUGE_OK );

  0004f	68 27 41 00 00	 push	 16679			; 00004127H
  00054	8d 8d d8 7f ff
	ff		 lea	 ecx, DWORD PTR _kPacket$549706[ebp]
  0005a	e8 00 00 00 00	 call	 ??0SP2Packet@@QAE@K@Z	; SP2Packet::SP2Packet
  0005f	83 65 fc 00	 and	 DWORD PTR __$EHRec$[ebp+8], 0

; 454  : 		FillItemGaugePacketHeader( pOwner, kPacket );

  00063	8d 85 d8 7f ff
	ff		 lea	 eax, DWORD PTR _kPacket$549706[ebp]
  00069	50		 push	 eax
  0006a	56		 push	 esi
  0006b	8b cf		 mov	 ecx, edi
  0006d	e8 00 00 00 00	 call	 ?FillItemGaugePacketHeader@ioAttackableItem@@QAEXPAVioBaseChar@@AAVSP2Packet@@@Z ; ioAttackableItem::FillItemGaugePacketHeader

; 455  : 		kPacket << static_cast<byte>( SS_GATHERING_END_BY_RUN );

  00072	6a 05		 push	 5
  00074	8d 8d d8 7f ff
	ff		 lea	 ecx, DWORD PTR _kPacket$549706[ebp]
  0007a	e8 00 00 00 00	 call	 ??6SP2Packet@@QAEAAV0@E@Z ; SP2Packet::operator<<

; 456  : 		kPacket << pOwner->GetTargetRot();

  0007f	81 c6 a4 06 00
	00		 add	 esi, 1700		; 000006a4H
  00085	56		 push	 esi
  00086	8d 8d d8 7f ff
	ff		 lea	 ecx, DWORD PTR _kPacket$549706[ebp]
  0008c	e8 00 00 00 00	 call	 ??6SP2Packet@@QAEAAV0@ABUD3DXQUATERNION@@@Z ; SP2Packet::operator<<

; 457  : 		P2PNetwork::SendToAllPlayingUser( kPacket );

  00091	8d 85 d8 7f ff
	ff		 lea	 eax, DWORD PTR _kPacket$549706[ebp]
  00097	6a 00		 push	 0
  00099	50		 push	 eax
  0009a	e8 00 00 00 00	 call	 ?SendToAllPlayingUser@P2PNetwork@@YAXAAVSP2Packet@@PAVioBaseChar@@@Z ; P2PNetwork::SendToAllPlayingUser

; 458  : 	}

  0009f	83 4d fc ff	 or	 DWORD PTR __$EHRec$[ebp+8], -1
  000a3	59		 pop	 ecx
  000a4	59		 pop	 ecx
  000a5	8d 8d d8 7f ff
	ff		 lea	 ecx, DWORD PTR _kPacket$549706[ebp]
  000ab	e8 00 00 00 00	 call	 ??1SP2Packet@@UAE@XZ	; SP2Packet::~SP2Packet
$LN1@ChangeToGa@3:

; 459  : }

  000b0	8b 4d f4	 mov	 ecx, DWORD PTR __$EHRec$[ebp]
  000b3	64 89 0d 00 00
	00 00		 mov	 DWORD PTR fs:0, ecx
  000ba	59		 pop	 ecx
  000bb	5f		 pop	 edi
  000bc	5e		 pop	 esi
  000bd	8b 4d f0	 mov	 ecx, DWORD PTR __$ArrayPad$[ebp]
  000c0	33 cd		 xor	 ecx, ebp
  000c2	e8 00 00 00 00	 call	 @__security_check_cookie@4
  000c7	c9		 leave
  000c8	c2 04 00	 ret	 4
_TEXT	ENDS
;	COMDAT text$x
text$x	SEGMENT
__unwindfunclet$?ChangeToGatherEndByRun@ioLeeSunSin@@IAEXPAVioBaseChar@@@Z$0:
  00000	8d 8d d8 7f ff
	ff		 lea	 ecx, DWORD PTR _kPacket$549706[ebp]
  00006	e9 00 00 00 00	 jmp	 ??1SP2Packet@@UAE@XZ	; SP2Packet::~SP2Packet
__ehhandler$?ChangeToGatherEndByRun@ioLeeSunSin@@IAEXPAVioBaseChar@@@Z:
  0000b	8b 54 24 08	 mov	 edx, DWORD PTR [esp+8]
  0000f	8d 42 0c	 lea	 eax, DWORD PTR [edx+12]
  00012	8b 8a d8 7f ff
	ff		 mov	 ecx, DWORD PTR [edx-32808]
  00018	33 c8		 xor	 ecx, eax
  0001a	e8 00 00 00 00	 call	 @__security_check_cookie@4
  0001f	8b 4a fc	 mov	 ecx, DWORD PTR [edx-4]
  00022	33 c8		 xor	 ecx, eax
  00024	e8 00 00 00 00	 call	 @__security_check_cookie@4
  00029	b8 00 00 00 00	 mov	 eax, OFFSET __ehfuncinfo$?ChangeToGatherEndByRun@ioLeeSunSin@@IAEXPAVioBaseChar@@@Z
  0002e	e9 00 00 00 00	 jmp	 ___CxxFrameHandler3
text$x	ENDS
?ChangeToGatherEndByRun@ioLeeSunSin@@IAEXPAVioBaseChar@@@Z ENDP ; ioLeeSunSin::ChangeToGatherEndByRun
PUBLIC	?CheckWoundExtendUseDelay@ioLeeSunSin@@IAEXPAVioBaseChar@@W4BlowTargetType@@@Z ; ioLeeSunSin::CheckWoundExtendUseDelay
EXTRN	__imp_?GetLoopSec@ioFrameTimer@@QBEKXZ:PROC
EXTRN	__imp_?GetSingleton@ioFrameTimer@@SAAAV1@XZ:PROC
; Function compile flags: /Ogsp
;	COMDAT ?CheckWoundExtendUseDelay@ioLeeSunSin@@IAEXPAVioBaseChar@@W4BlowTargetType@@@Z
_TEXT	SEGMENT
_pOwner$ = 8						; size = 4
_eType$ = 12						; size = 4
?CheckWoundExtendUseDelay@ioLeeSunSin@@IAEXPAVioBaseChar@@W4BlowTargetType@@@Z PROC ; ioLeeSunSin::CheckWoundExtendUseDelay, COMDAT
; _this$ = ecx

; 669  : {

  00000	56		 push	 esi
  00001	8b f1		 mov	 esi, ecx

; 670  : 	m_dwWoundedStartChargeTime	= FRAMEGETTIME();

  00003	ff 15 00 00 00
	00		 call	 DWORD PTR __imp_?GetSingleton@ioFrameTimer@@SAAAV1@XZ
  00009	8b c8		 mov	 ecx, eax
  0000b	ff 15 00 00 00
	00		 call	 DWORD PTR __imp_?GetLoopSec@ioFrameTimer@@QBEKXZ
  00011	89 86 b4 1b 00
	00		 mov	 DWORD PTR [esi+7092], eax

; 671  : 	m_WoundedState				= WS_TIME_CONDITION_CHECK;

  00017	c7 86 ac 1b 00
	00 01 00 00 00	 mov	 DWORD PTR [esi+7084], 1
  00021	5e		 pop	 esi

; 672  : }

  00022	c2 08 00	 ret	 8
?CheckWoundExtendUseDelay@ioLeeSunSin@@IAEXPAVioBaseChar@@W4BlowTargetType@@@Z ENDP ; ioLeeSunSin::CheckWoundExtendUseDelay
_TEXT	ENDS
PUBLIC	?CallItemProcess@ioLeeSunSin@@UAEXPAVioBaseChar@@@Z ; ioLeeSunSin::CallItemProcess
; Function compile flags: /Ogsp
;	COMDAT ?CallItemProcess@ioLeeSunSin@@UAEXPAVioBaseChar@@@Z
_TEXT	SEGMENT
_pOwner$ = 8						; size = 4
?CallItemProcess@ioLeeSunSin@@UAEXPAVioBaseChar@@@Z PROC ; ioLeeSunSin::CallItemProcess, COMDAT
; _this$ = ecx

; 736  : {

  00000	55		 push	 ebp
  00001	8b ec		 mov	 ebp, esp
  00003	56		 push	 esi

; 737  : 	if( !pOwner->IsNeedProcess() )

  00004	8b 75 08	 mov	 esi, DWORD PTR _pOwner$[ebp]
  00007	8b 06		 mov	 eax, DWORD PTR [esi]
  00009	57		 push	 edi
  0000a	8b f9		 mov	 edi, ecx
  0000c	8b ce		 mov	 ecx, esi
  0000e	ff 90 00 01 00
	00		 call	 DWORD PTR [eax+256]
  00014	84 c0		 test	 al, al
  00016	74 1d		 je	 SHORT $LN1@CallItemPr

; 738  : 		return;
; 739  : 
; 740  : 	if( pOwner->GetState() != CS_WOUNDED && pOwner->GetState() != CS_BLOW_WOUNDED && pOwner->GetState() != CS_BOUND_BLOW_WOUNDED && pOwner->GetState() != CS_BLOW_EXTEND_WOUND )

  00018	8a 86 10 03 00
	00		 mov	 al, BYTE PTR [esi+784]
  0001e	3c 0b		 cmp	 al, 11			; 0000000bH
  00020	74 13		 je	 SHORT $LN1@CallItemPr
  00022	3c 0c		 cmp	 al, 12			; 0000000cH
  00024	74 0f		 je	 SHORT $LN1@CallItemPr
  00026	3c 31		 cmp	 al, 49			; 00000031H
  00028	74 0b		 je	 SHORT $LN1@CallItemPr
  0002a	3c 46		 cmp	 al, 70			; 00000046H
  0002c	74 07		 je	 SHORT $LN1@CallItemPr

; 741  : 	{
; 742  : 		m_WoundedState	= WS_DELAY;

  0002e	83 a7 ac 1b 00
	00 00		 and	 DWORD PTR [edi+7084], 0
$LN1@CallItemPr:
  00035	5f		 pop	 edi
  00036	5e		 pop	 esi

; 743  : 	}
; 744  : }

  00037	5d		 pop	 ebp
  00038	c2 04 00	 ret	 4
?CallItemProcess@ioLeeSunSin@@UAEXPAVioBaseChar@@@Z ENDP ; ioLeeSunSin::CallItemProcess
_TEXT	ENDS
PUBLIC	?SetNoneState@ioLeeSunSin@@UAEXPAVioBaseChar@@H@Z ; ioLeeSunSin::SetNoneState
; Function compile flags: /Ogsp
;	COMDAT ?SetNoneState@ioLeeSunSin@@UAEXPAVioBaseChar@@H@Z
_TEXT	SEGMENT
_pOwner$ = 8						; size = 4
_eNewState$ = 12					; size = 4
?SetNoneState@ioLeeSunSin@@UAEXPAVioBaseChar@@H@Z PROC	; ioLeeSunSin::SetNoneState, COMDAT
; _this$ = ecx

; 792  : {

  00000	55		 push	 ebp
  00001	8b ec		 mov	 ebp, esp
  00003	56		 push	 esi

; 793  : 	EndEffect( pOwner );

  00004	ff 75 08	 push	 DWORD PTR _pOwner$[ebp]
  00007	8b f1		 mov	 esi, ecx
  00009	e8 00 00 00 00	 call	 ?EndEffect@ioLeeSunSin@@QAEXPAVioBaseChar@@@Z ; ioLeeSunSin::EndEffect

; 794  : 
; 795  : 	m_dwWoundedStartChargeTime	= 0;
; 796  : 	m_dwExtendAttackEnd			= 0;
; 797  : 	m_dwAssultDashCurrCount		= 0;
; 798  : 
; 799  : 	m_ChargeState	= CS_NONE;
; 800  : 	m_WoundedState	= WS_DELAY;
; 801  : 
; 802  : 	if( eNewState != CS_WOUNDED && eNewState != CS_BLOW_WOUNDED && eNewState != CS_BOUND_BLOW_WOUNDED && eNewState != CS_BLOW_EXTEND_WOUND )

  0000e	8b 4d 0c	 mov	 ecx, DWORD PTR _eNewState$[ebp]
  00011	33 c0		 xor	 eax, eax
  00013	89 86 b4 1b 00
	00		 mov	 DWORD PTR [esi+7092], eax
  00019	89 86 a0 1b 00
	00		 mov	 DWORD PTR [esi+7072], eax
  0001f	89 86 a8 1b 00
	00		 mov	 DWORD PTR [esi+7080], eax
  00025	89 86 54 19 00
	00		 mov	 DWORD PTR [esi+6484], eax
  0002b	89 86 ac 1b 00
	00		 mov	 DWORD PTR [esi+7084], eax
  00031	83 f9 0b	 cmp	 ecx, 11			; 0000000bH
  00034	74 15		 je	 SHORT $LN1@SetNoneSta
  00036	83 f9 0c	 cmp	 ecx, 12			; 0000000cH
  00039	74 10		 je	 SHORT $LN1@SetNoneSta
  0003b	83 f9 31	 cmp	 ecx, 49			; 00000031H
  0003e	74 0b		 je	 SHORT $LN1@SetNoneSta
  00040	83 f9 46	 cmp	 ecx, 70			; 00000046H
  00043	74 06		 je	 SHORT $LN1@SetNoneSta

; 803  : 	{
; 804  : 		m_GatherState = GS_NONE;

  00045	89 86 58 19 00
	00		 mov	 DWORD PTR [esi+6488], eax
$LN1@SetNoneSta:
  0004b	5e		 pop	 esi

; 805  : 	}	
; 806  : }

  0004c	5d		 pop	 ebp
  0004d	c2 08 00	 ret	 8
?SetNoneState@ioLeeSunSin@@UAEXPAVioBaseChar@@H@Z ENDP	; ioLeeSunSin::SetNoneState
_TEXT	ENDS
PUBLIC	?IsChargeAttackState@ioLeeSunSin@@UAE_NPAVioBaseChar@@@Z ; ioLeeSunSin::IsChargeAttackState
; Function compile flags: /Ogsp
;	COMDAT ?IsChargeAttackState@ioLeeSunSin@@UAE_NPAVioBaseChar@@@Z
_TEXT	SEGMENT
_pOwner$ = 8						; size = 4
?IsChargeAttackState@ioLeeSunSin@@UAE_NPAVioBaseChar@@@Z PROC ; ioLeeSunSin::IsChargeAttackState, COMDAT
; _this$ = ecx

; 809  : {

  00000	55		 push	 ebp
  00001	8b ec		 mov	 ebp, esp

; 810  : 	if( pOwner->GetState() == CS_ATTACK )

  00003	8b 45 08	 mov	 eax, DWORD PTR _pOwner$[ebp]
  00006	80 b8 10 03 00
	00 05		 cmp	 BYTE PTR [eax+784], 5
  0000d	0f 94 c0	 sete	 al

; 811  : 	{
; 812  : 		return true; 
; 813  : 	}
; 814  : 
; 815  : 	return false;
; 816  : }

  00010	5d		 pop	 ebp
  00011	c2 04 00	 ret	 4
?IsChargeAttackState@ioLeeSunSin@@UAE_NPAVioBaseChar@@@Z ENDP ; ioLeeSunSin::IsChargeAttackState
_TEXT	ENDS
PUBLIC	?IsEnableAttackDashCheck@ioLeeSunSin@@UAE_NPAVioBaseChar@@_N@Z ; ioLeeSunSin::IsEnableAttackDashCheck
; Function compile flags: /Ogsp
;	COMDAT ?IsEnableAttackDashCheck@ioLeeSunSin@@UAE_NPAVioBaseChar@@_N@Z
_TEXT	SEGMENT
_pOwner$ = 8						; size = 4
_bCheck$ = 12						; size = 1
?IsEnableAttackDashCheck@ioLeeSunSin@@UAE_NPAVioBaseChar@@_N@Z PROC ; ioLeeSunSin::IsEnableAttackDashCheck, COMDAT
; _this$ = ecx

; 819  : {

  00000	55		 push	 ebp
  00001	8b ec		 mov	 ebp, esp

; 820  : 	if( pOwner->GetState() == CS_ATTACK )

  00003	8b 45 08	 mov	 eax, DWORD PTR _pOwner$[ebp]
  00006	80 b8 10 03 00
	00 05		 cmp	 BYTE PTR [eax+784], 5
  0000d	75 18		 jne	 SHORT $LN3@IsEnableAt

; 821  : 	{
; 822  : 		switch( m_ChargeState )

  0000f	8b 81 54 19 00
	00		 mov	 eax, DWORD PTR [ecx+6484]
  00015	48		 dec	 eax
  00016	48		 dec	 eax
  00017	74 05		 je	 SHORT $LN2@IsEnableAt
  00019	83 e8 03	 sub	 eax, 3
  0001c	75 09		 jne	 SHORT $LN3@IsEnableAt
$LN2@IsEnableAt:

; 823  : 		{
; 824  : 		case CS_ATTACK_FIRE:		
; 825  : 		case CS_GATHERING:
; 826  : 			if( !bCheck )

  0001e	80 7d 0c 00	 cmp	 BYTE PTR _bCheck$[ebp], 0
  00022	0f 95 c0	 setne	 al

; 827  : 				return false;
; 828  : 
; 829  : 			return true;

  00025	eb 02		 jmp	 SHORT $LN6@IsEnableAt
$LN3@IsEnableAt:

; 830  : 		}
; 831  : 	}
; 832  : 	return false;

  00027	32 c0		 xor	 al, al
$LN6@IsEnableAt:

; 833  : }

  00029	5d		 pop	 ebp
  0002a	c2 08 00	 ret	 8
?IsEnableAttackDashCheck@ioLeeSunSin@@UAE_NPAVioBaseChar@@_N@Z ENDP ; ioLeeSunSin::IsEnableAttackDashCheck
_TEXT	ENDS
PUBLIC	?UpdateEffect@ioLeeSunSin@@QAEXPAVioBaseChar@@@Z ; ioLeeSunSin::UpdateEffect
EXTRN	__imp_?GetUniqueID@ioMovableObject@@QBEKXZ:PROC
EXTRN	?AttachEffect@ioBaseChar@@QAEPAVioEffect@@ABVioHashString@@PAVioEntityEvent@@_N@Z:PROC ; ioBaseChar::AttachEffect
; Function compile flags: /Ogsp
;	COMDAT ?UpdateEffect@ioLeeSunSin@@QAEXPAVioBaseChar@@@Z
_TEXT	SEGMENT
tv80 = -12						; size = 8
tv181 = -4						; size = 4
_pOwner$ = 8						; size = 4
?UpdateEffect@ioLeeSunSin@@QAEXPAVioBaseChar@@@Z PROC	; ioLeeSunSin::UpdateEffect, COMDAT
; _this$ = ecx

; 937  : {

  00000	55		 push	 ebp
  00001	8b ec		 mov	 ebp, esp
  00003	83 ec 0c	 sub	 esp, 12			; 0000000cH
  00006	56		 push	 esi
  00007	8b f1		 mov	 esi, ecx

; 938  : 	if( GetCurExtraGauge() == GetMaxBullet() )

  00009	8b 06		 mov	 eax, DWORD PTR [esi]
  0000b	ff 90 9c 02 00
	00		 call	 DWORD PTR [eax+668]
  00011	dd 5d f4	 fstp	 QWORD PTR tv80[ebp]
  00014	8b 06		 mov	 eax, DWORD PTR [esi]
  00016	8b ce		 mov	 ecx, esi
  00018	ff 50 68	 call	 DWORD PTR [eax+104]
  0001b	89 45 fc	 mov	 DWORD PTR tv181[ebp], eax
  0001e	db 45 fc	 fild	 DWORD PTR tv181[ebp]
  00021	dd 45 f4	 fld	 QWORD PTR tv80[ebp]
  00024	df e9		 fucomip ST(1)
  00026	dd d8		 fstp	 ST(0)
  00028	9f		 lahf
  00029	f6 c4 44	 test	 ah, 68			; 00000044H
  0002c	7a 42		 jp	 SHORT $LN5@UpdateEffe

; 939  : 	{
; 940  : 		if( !m_bCurrMaxEffect )

  0002e	80 be 08 1a 00
	00 00		 cmp	 BYTE PTR [esi+6664], 0
  00035	75 55		 jne	 SHORT $LN1@UpdateEffe

; 941  : 		{
; 942  : 			EndEffect( pOwner );

  00037	ff 75 08	 push	 DWORD PTR _pOwner$[ebp]
  0003a	8b ce		 mov	 ecx, esi
  0003c	e8 00 00 00 00	 call	 ?EndEffect@ioLeeSunSin@@QAEXPAVioBaseChar@@@Z ; ioLeeSunSin::EndEffect

; 943  : 			ioEffect* pEffect = pOwner->AttachEffect( m_GatherMaxEffect );

  00041	8b 4d 08	 mov	 ecx, DWORD PTR _pOwner$[ebp]
  00044	6a 01		 push	 1
  00046	6a 00		 push	 0
  00048	8d 86 f4 19 00
	00		 lea	 eax, DWORD PTR [esi+6644]
  0004e	50		 push	 eax
  0004f	e8 00 00 00 00	 call	 ?AttachEffect@ioBaseChar@@QAEPAVioEffect@@ABVioHashString@@PAVioEntityEvent@@_N@Z ; ioBaseChar::AttachEffect

; 944  : 			if( pEffect )

  00054	85 c0		 test	 eax, eax
  00056	74 34		 je	 SHORT $LN1@UpdateEffe

; 945  : 			{
; 946  : 				m_GatherEffectID = pEffect->GetUniqueID();

  00058	8d 48 14	 lea	 ecx, DWORD PTR [eax+20]
  0005b	ff 15 00 00 00
	00		 call	 DWORD PTR __imp_?GetUniqueID@ioMovableObject@@QBEKXZ
  00061	89 86 04 1a 00
	00		 mov	 DWORD PTR [esi+6660], eax

; 947  : 				m_bCurrMaxEffect = true;

  00067	c6 86 08 1a 00
	00 01		 mov	 BYTE PTR [esi+6664], 1

; 948  : 			}
; 949  : 		}
; 950  : 	}
; 951  : 	else

  0006e	eb 1c		 jmp	 SHORT $LN1@UpdateEffe
$LN5@UpdateEffe:

; 952  : 	{
; 953  : 		if( m_bCurrMaxEffect )

  00070	80 be 08 1a 00
	00 00		 cmp	 BYTE PTR [esi+6664], 0
  00077	57		 push	 edi
  00078	74 11		 je	 SHORT $LN8@UpdateEffe

; 954  : 		{
; 955  : 			EndEffect( pOwner );

  0007a	ff 75 08	 push	 DWORD PTR _pOwner$[ebp]
  0007d	8b ce		 mov	 ecx, esi
  0007f	e8 00 00 00 00	 call	 ?EndEffect@ioLeeSunSin@@QAEXPAVioBaseChar@@@Z ; ioLeeSunSin::EndEffect

; 956  : 			m_bCurrMaxEffect = false;

  00084	c6 86 08 1a 00
	00 00		 mov	 BYTE PTR [esi+6664], 0
$LN8@UpdateEffe:
  0008b	5f		 pop	 edi
$LN1@UpdateEffe:
  0008c	5e		 pop	 esi

; 957  : 		}
; 958  : 	}
; 959  : }

  0008d	c9		 leave
  0008e	c2 04 00	 ret	 4
?UpdateEffect@ioLeeSunSin@@QAEXPAVioBaseChar@@@Z ENDP	; ioLeeSunSin::UpdateEffect
_TEXT	ENDS
PUBLIC	??A?$vector@VioHashString@@V?$allocator@VioHashString@@@std@@@std@@QAEAAVioHashString@@I@Z ; std::vector<ioHashString,std::allocator<ioHashString> >::operator[]
; Function compile flags: /Ogsp
; File c:\program files (x86)\microsoft visual studio 10.0\vc\include\vector
;	COMDAT ??A?$vector@VioHashString@@V?$allocator@VioHashString@@@std@@@std@@QAEAAVioHashString@@I@Z
_TEXT	SEGMENT
__Pos$ = 8						; size = 4
??A?$vector@VioHashString@@V?$allocator@VioHashString@@@std@@@std@@QAEAAVioHashString@@I@Z PROC ; std::vector<ioHashString,std::allocator<ioHashString> >::operator[], COMDAT
; _this$ = ecx

; 928  : 		{	// subscript mutable sequence

  00000	55		 push	 ebp
  00001	8b ec		 mov	 ebp, esp

; 929  :  #if _ITERATOR_DEBUG_LEVEL == 2
; 930  : 		if (size() <= _Pos)
; 931  : 			{	// report error
; 932  : 			_DEBUG_ERROR("vector subscript out of range");
; 933  : 			_SCL_SECURE_OUT_OF_RANGE;
; 934  : 			}
; 935  : 
; 936  :  #elif _ITERATOR_DEBUG_LEVEL == 1
; 937  : 		_SCL_SECURE_VALIDATE_RANGE(_Pos < size());
; 938  :  #endif /* _ITERATOR_DEBUG_LEVEL */
; 939  : 
; 940  : 		return (*(this->_Myfirst + _Pos));

  00003	8b 45 08	 mov	 eax, DWORD PTR __Pos$[ebp]
  00006	c1 e0 04	 shl	 eax, 4
  00009	03 01		 add	 eax, DWORD PTR [ecx]

; 941  : 		}

  0000b	5d		 pop	 ebp
  0000c	c2 04 00	 ret	 4
??A?$vector@VioHashString@@V?$allocator@VioHashString@@@std@@@std@@QAEAAVioHashString@@I@Z ENDP ; std::vector<ioHashString,std::allocator<ioHashString> >::operator[]
_TEXT	ENDS
PUBLIC	?capacity@?$vector@VioHashString@@V?$allocator@VioHashString@@@std@@@std@@QBEIXZ ; std::vector<ioHashString,std::allocator<ioHashString> >::capacity
; Function compile flags: /Ogsp
;	COMDAT ?capacity@?$vector@VioHashString@@V?$allocator@VioHashString@@@std@@@std@@QBEIXZ
_TEXT	SEGMENT
?capacity@?$vector@VioHashString@@V?$allocator@VioHashString@@@std@@@std@@QBEIXZ PROC ; std::vector<ioHashString,std::allocator<ioHashString> >::capacity, COMDAT
; _this$ = ecx

; 777  : 		return (this->_Myend - this->_Myfirst);

  00000	8b 41 08	 mov	 eax, DWORD PTR [ecx+8]
  00003	2b 01		 sub	 eax, DWORD PTR [ecx]
  00005	c1 f8 04	 sar	 eax, 4

; 778  : 		}

  00008	c3		 ret	 0
?capacity@?$vector@VioHashString@@V?$allocator@VioHashString@@@std@@@std@@QBEIXZ ENDP ; std::vector<ioHashString,std::allocator<ioHashString> >::capacity
_TEXT	ENDS
PUBLIC	?_Inside@?$vector@VioHashString@@V?$allocator@VioHashString@@@std@@@std@@IBE_NPBVioHashString@@@Z ; std::vector<ioHashString,std::allocator<ioHashString> >::_Inside
; Function compile flags: /Ogsp
;	COMDAT ?_Inside@?$vector@VioHashString@@V?$allocator@VioHashString@@@std@@@std@@IBE_NPBVioHashString@@@Z
_TEXT	SEGMENT
__Ptr$ = 8						; size = 4
?_Inside@?$vector@VioHashString@@V?$allocator@VioHashString@@@std@@@std@@IBE_NPBVioHashString@@@Z PROC ; std::vector<ioHashString,std::allocator<ioHashString> >::_Inside, COMDAT
; _this$ = ecx

; 1285 : 		{	// test if _Ptr points inside vector

  00000	55		 push	 ebp
  00001	8b ec		 mov	 ebp, esp

; 1286 : 		return (_Ptr < this->_Mylast && this->_Myfirst <= _Ptr);

  00003	8b 45 08	 mov	 eax, DWORD PTR __Ptr$[ebp]
  00006	3b 41 04	 cmp	 eax, DWORD PTR [ecx+4]
  00009	73 09		 jae	 SHORT $LN3@Inside
  0000b	39 01		 cmp	 DWORD PTR [ecx], eax
  0000d	77 05		 ja	 SHORT $LN3@Inside
  0000f	33 c0		 xor	 eax, eax
  00011	40		 inc	 eax
  00012	eb 02		 jmp	 SHORT $LN4@Inside
$LN3@Inside:
  00014	33 c0		 xor	 eax, eax
$LN4@Inside:

; 1287 : 		}

  00016	5d		 pop	 ebp
  00017	c2 04 00	 ret	 4
?_Inside@?$vector@VioHashString@@V?$allocator@VioHashString@@@std@@@std@@IBE_NPBVioHashString@@@Z ENDP ; std::vector<ioHashString,std::allocator<ioHashString> >::_Inside
_TEXT	ENDS
PUBLIC	?_Orphan_range@?$vector@VioHashString@@V?$allocator@VioHashString@@@std@@@std@@IBEXPAVioHashString@@0@Z ; std::vector<ioHashString,std::allocator<ioHashString> >::_Orphan_range
; Function compile flags: /Ogsp
;	COMDAT ?_Orphan_range@?$vector@VioHashString@@V?$allocator@VioHashString@@@std@@@std@@IBEXPAVioHashString@@0@Z
_TEXT	SEGMENT
___formal$ = 8						; size = 4
___formal$ = 12						; size = 4
?_Orphan_range@?$vector@VioHashString@@V?$allocator@VioHashString@@@std@@@std@@IBEXPAVioHashString@@0@Z PROC ; std::vector<ioHashString,std::allocator<ioHashString> >::_Orphan_range, COMDAT
; _this$ = ecx

; 1454 : 		}

  00000	c2 08 00	 ret	 8
?_Orphan_range@?$vector@VioHashString@@V?$allocator@VioHashString@@@std@@@std@@IBEXPAVioHashString@@0@Z ENDP ; std::vector<ioHashString,std::allocator<ioHashString> >::_Orphan_range
_TEXT	ENDS
PUBLIC	?size@?$vector@UWoundedInfo@ioLeeSunSin@@V?$allocator@UWoundedInfo@ioLeeSunSin@@@std@@@std@@QBEIXZ ; std::vector<ioLeeSunSin::WoundedInfo,std::allocator<ioLeeSunSin::WoundedInfo> >::size
; Function compile flags: /Ogsp
;	COMDAT ?size@?$vector@UWoundedInfo@ioLeeSunSin@@V?$allocator@UWoundedInfo@ioLeeSunSin@@@std@@@std@@QBEIXZ
_TEXT	SEGMENT
?size@?$vector@UWoundedInfo@ioLeeSunSin@@V?$allocator@UWoundedInfo@ioLeeSunSin@@@std@@@std@@QBEIXZ PROC ; std::vector<ioLeeSunSin::WoundedInfo,std::allocator<ioLeeSunSin::WoundedInfo> >::size, COMDAT
; _this$ = ecx

; 879  : 		return (this->_Mylast - this->_Myfirst);

  00000	8b 41 04	 mov	 eax, DWORD PTR [ecx+4]
  00003	2b 01		 sub	 eax, DWORD PTR [ecx]
  00005	c1 f8 05	 sar	 eax, 5

; 880  : 		}

  00008	c3		 ret	 0
?size@?$vector@UWoundedInfo@ioLeeSunSin@@V?$allocator@UWoundedInfo@ioLeeSunSin@@@std@@@std@@QBEIXZ ENDP ; std::vector<ioLeeSunSin::WoundedInfo,std::allocator<ioLeeSunSin::WoundedInfo> >::size
_TEXT	ENDS
PUBLIC	?_Inside@?$vector@UWoundedInfo@ioLeeSunSin@@V?$allocator@UWoundedInfo@ioLeeSunSin@@@std@@@std@@IBE_NPBUWoundedInfo@ioLeeSunSin@@@Z ; std::vector<ioLeeSunSin::WoundedInfo,std::allocator<ioLeeSunSin::WoundedInfo> >::_Inside
; Function compile flags: /Ogsp
;	COMDAT ?_Inside@?$vector@UWoundedInfo@ioLeeSunSin@@V?$allocator@UWoundedInfo@ioLeeSunSin@@@std@@@std@@IBE_NPBUWoundedInfo@ioLeeSunSin@@@Z
_TEXT	SEGMENT
__Ptr$ = 8						; size = 4
?_Inside@?$vector@UWoundedInfo@ioLeeSunSin@@V?$allocator@UWoundedInfo@ioLeeSunSin@@@std@@@std@@IBE_NPBUWoundedInfo@ioLeeSunSin@@@Z PROC ; std::vector<ioLeeSunSin::WoundedInfo,std::allocator<ioLeeSunSin::WoundedInfo> >::_Inside, COMDAT
; _this$ = ecx

; 1285 : 		{	// test if _Ptr points inside vector

  00000	55		 push	 ebp
  00001	8b ec		 mov	 ebp, esp

; 1286 : 		return (_Ptr < this->_Mylast && this->_Myfirst <= _Ptr);

  00003	8b 45 08	 mov	 eax, DWORD PTR __Ptr$[ebp]
  00006	3b 41 04	 cmp	 eax, DWORD PTR [ecx+4]
  00009	73 09		 jae	 SHORT $LN3@Inside@2
  0000b	39 01		 cmp	 DWORD PTR [ecx], eax
  0000d	77 05		 ja	 SHORT $LN3@Inside@2
  0000f	33 c0		 xor	 eax, eax
  00011	40		 inc	 eax
  00012	eb 02		 jmp	 SHORT $LN4@Inside@2
$LN3@Inside@2:
  00014	33 c0		 xor	 eax, eax
$LN4@Inside@2:

; 1287 : 		}

  00016	5d		 pop	 ebp
  00017	c2 04 00	 ret	 4
?_Inside@?$vector@UWoundedInfo@ioLeeSunSin@@V?$allocator@UWoundedInfo@ioLeeSunSin@@@std@@@std@@IBE_NPBUWoundedInfo@ioLeeSunSin@@@Z ENDP ; std::vector<ioLeeSunSin::WoundedInfo,std::allocator<ioLeeSunSin::WoundedInfo> >::_Inside
_TEXT	ENDS
PUBLIC	?_Orphan_range@?$vector@UWoundedInfo@ioLeeSunSin@@V?$allocator@UWoundedInfo@ioLeeSunSin@@@std@@@std@@IBEXPAUWoundedInfo@ioLeeSunSin@@0@Z ; std::vector<ioLeeSunSin::WoundedInfo,std::allocator<ioLeeSunSin::WoundedInfo> >::_Orphan_range
; Function compile flags: /Ogsp
;	COMDAT ?_Orphan_range@?$vector@UWoundedInfo@ioLeeSunSin@@V?$allocator@UWoundedInfo@ioLeeSunSin@@@std@@@std@@IBEXPAUWoundedInfo@ioLeeSunSin@@0@Z
_TEXT	SEGMENT
___formal$ = 8						; size = 4
___formal$ = 12						; size = 4
?_Orphan_range@?$vector@UWoundedInfo@ioLeeSunSin@@V?$allocator@UWoundedInfo@ioLeeSunSin@@@std@@@std@@IBEXPAUWoundedInfo@ioLeeSunSin@@0@Z PROC ; std::vector<ioLeeSunSin::WoundedInfo,std::allocator<ioLeeSunSin::WoundedInfo> >::_Orphan_range, COMDAT
; _this$ = ecx

; 1454 : 		}

  00000	c2 08 00	 ret	 8
?_Orphan_range@?$vector@UWoundedInfo@ioLeeSunSin@@V?$allocator@UWoundedInfo@ioLeeSunSin@@@std@@@std@@IBEXPAUWoundedInfo@ioLeeSunSin@@0@Z ENDP ; std::vector<ioLeeSunSin::WoundedInfo,std::allocator<ioLeeSunSin::WoundedInfo> >::_Orphan_range
_TEXT	ENDS
PUBLIC	??1?$_Vector_val@UWoundedInfo@ioLeeSunSin@@V?$allocator@UWoundedInfo@ioLeeSunSin@@@std@@@std@@QAE@XZ ; std::_Vector_val<ioLeeSunSin::WoundedInfo,std::allocator<ioLeeSunSin::WoundedInfo> >::~_Vector_val<ioLeeSunSin::WoundedInfo,std::allocator<ioLeeSunSin::WoundedInfo> >
; Function compile flags: /Ogsp
;	COMDAT ??1?$_Vector_val@UWoundedInfo@ioLeeSunSin@@V?$allocator@UWoundedInfo@ioLeeSunSin@@@std@@@std@@QAE@XZ
_TEXT	SEGMENT
??1?$_Vector_val@UWoundedInfo@ioLeeSunSin@@V?$allocator@UWoundedInfo@ioLeeSunSin@@@std@@@std@@QAE@XZ PROC ; std::_Vector_val<ioLeeSunSin::WoundedInfo,std::allocator<ioLeeSunSin::WoundedInfo> >::~_Vector_val<ioLeeSunSin::WoundedInfo,std::allocator<ioLeeSunSin::WoundedInfo> >, COMDAT
; _this$ = ecx

; 434  : 		}

  00000	c3		 ret	 0
??1?$_Vector_val@UWoundedInfo@ioLeeSunSin@@V?$allocator@UWoundedInfo@ioLeeSunSin@@@std@@@std@@QAE@XZ ENDP ; std::_Vector_val<ioLeeSunSin::WoundedInfo,std::allocator<ioLeeSunSin::WoundedInfo> >::~_Vector_val<ioLeeSunSin::WoundedInfo,std::allocator<ioLeeSunSin::WoundedInfo> >
_TEXT	ENDS
PUBLIC	??0?$allocator@UWoundedInfo@ioLeeSunSin@@@std@@QAE@XZ ; std::allocator<ioLeeSunSin::WoundedInfo>::allocator<ioLeeSunSin::WoundedInfo>
; Function compile flags: /Ogsp
; File c:\program files (x86)\microsoft visual studio 10.0\vc\include\xmemory
;	COMDAT ??0?$allocator@UWoundedInfo@ioLeeSunSin@@@std@@QAE@XZ
_TEXT	SEGMENT
??0?$allocator@UWoundedInfo@ioLeeSunSin@@@std@@QAE@XZ PROC ; std::allocator<ioLeeSunSin::WoundedInfo>::allocator<ioLeeSunSin::WoundedInfo>, COMDAT
; _this$ = ecx

; 161  : 	_ALLOCATOR() _THROW0()

  00000	8b c1		 mov	 eax, ecx

; 162  : 		{	// construct default allocator (do nothing)
; 163  : 		}

  00002	c3		 ret	 0
??0?$allocator@UWoundedInfo@ioLeeSunSin@@@std@@QAE@XZ ENDP ; std::allocator<ioLeeSunSin::WoundedInfo>::allocator<ioLeeSunSin::WoundedInfo>
_TEXT	ENDS
PUBLIC	??0?$allocator@UWoundedInfo@ioLeeSunSin@@@std@@QAE@ABV01@@Z ; std::allocator<ioLeeSunSin::WoundedInfo>::allocator<ioLeeSunSin::WoundedInfo>
; Function compile flags: /Ogsp
;	COMDAT ??0?$allocator@UWoundedInfo@ioLeeSunSin@@@std@@QAE@ABV01@@Z
_TEXT	SEGMENT
___formal$ = 8						; size = 4
??0?$allocator@UWoundedInfo@ioLeeSunSin@@@std@@QAE@ABV01@@Z PROC ; std::allocator<ioLeeSunSin::WoundedInfo>::allocator<ioLeeSunSin::WoundedInfo>, COMDAT
; _this$ = ecx

; 165  : 	_ALLOCATOR(const _ALLOCATOR<_Ty>&) _THROW0()

  00000	8b c1		 mov	 eax, ecx

; 166  : 		{	// construct by copying (do nothing)
; 167  : 		}

  00002	c2 04 00	 ret	 4
??0?$allocator@UWoundedInfo@ioLeeSunSin@@@std@@QAE@ABV01@@Z ENDP ; std::allocator<ioLeeSunSin::WoundedInfo>::allocator<ioLeeSunSin::WoundedInfo>
_TEXT	ENDS
PUBLIC	?DecryptValueToPool@?$CEncrypt@W4BlowWoundedState@@@@QAEXPAW4BlowWoundedState@@@Z ; CEncrypt<enum BlowWoundedState>::DecryptValueToPool
EXTRN	?DecryptByte@ccddaabb@@QBEXPBDPADH@Z:PROC	; ccddaabb::DecryptByte
; Function compile flags: /Ogsp
; File d:\lost saga for developer\youtube\tutorial\source\src\lsclient\encryptvalue.h
;	COMDAT ?DecryptValueToPool@?$CEncrypt@W4BlowWoundedState@@@@QAEXPAW4BlowWoundedState@@@Z
_TEXT	SEGMENT
_value$ = 8						; size = 4
?DecryptValueToPool@?$CEncrypt@W4BlowWoundedState@@@@QAEXPAW4BlowWoundedState@@@Z PROC ; CEncrypt<enum BlowWoundedState>::DecryptValueToPool, COMDAT
; _this$ = ecx

; 2397 : 	{

  00000	55		 push	 ebp
  00001	8b ec		 mov	 ebp, esp
  00003	56		 push	 esi

; 2398 : 		m_RC5.DecryptByte( m_MemPool, m_TempMem, sizeof(BlowWoundedState) );

  00004	8d 71 28	 lea	 esi, DWORD PTR [ecx+40]
  00007	6a 04		 push	 4
  00009	8d 41 1c	 lea	 eax, DWORD PTR [ecx+28]
  0000c	56		 push	 esi
  0000d	50		 push	 eax
  0000e	83 c1 0c	 add	 ecx, 12			; 0000000cH
  00011	e8 00 00 00 00	 call	 ?DecryptByte@ccddaabb@@QBEXPBDPADH@Z ; ccddaabb::DecryptByte

; 2399 : 		*value = *((BlowWoundedState*)m_TempMem);

  00016	8b 06		 mov	 eax, DWORD PTR [esi]
  00018	8b 4d 08	 mov	 ecx, DWORD PTR _value$[ebp]
  0001b	89 01		 mov	 DWORD PTR [ecx], eax
  0001d	5e		 pop	 esi

; 2400 : 	}

  0001e	5d		 pop	 ebp
  0001f	c2 04 00	 ret	 4
?DecryptValueToPool@?$CEncrypt@W4BlowWoundedState@@@@QAEXPAW4BlowWoundedState@@@Z ENDP ; CEncrypt<enum BlowWoundedState>::DecryptValueToPool
_TEXT	ENDS
PUBLIC	??D?$_Vector_const_iterator@V?$_Vector_val@UWoundedInfo@ioLeeSunSin@@V?$allocator@UWoundedInfo@ioLeeSunSin@@@std@@@std@@@std@@QBEABUWoundedInfo@ioLeeSunSin@@XZ ; std::_Vector_const_iterator<std::_Vector_val<ioLeeSunSin::WoundedInfo,std::allocator<ioLeeSunSin::WoundedInfo> > >::operator*
; Function compile flags: /Ogsp
; File c:\program files (x86)\microsoft visual studio 10.0\vc\include\vector
;	COMDAT ??D?$_Vector_const_iterator@V?$_Vector_val@UWoundedInfo@ioLeeSunSin@@V?$allocator@UWoundedInfo@ioLeeSunSin@@@std@@@std@@@std@@QBEABUWoundedInfo@ioLeeSunSin@@XZ
_TEXT	SEGMENT
??D?$_Vector_const_iterator@V?$_Vector_val@UWoundedInfo@ioLeeSunSin@@V?$allocator@UWoundedInfo@ioLeeSunSin@@@std@@@std@@@std@@QBEABUWoundedInfo@ioLeeSunSin@@XZ PROC ; std::_Vector_const_iterator<std::_Vector_val<ioLeeSunSin::WoundedInfo,std::allocator<ioLeeSunSin::WoundedInfo> > >::operator*, COMDAT
; _this$ = ecx

; 64   :  #if _ITERATOR_DEBUG_LEVEL == 2
; 65   : 		if (this->_Getcont() == 0
; 66   : 			|| this->_Ptr == 0
; 67   : 			|| this->_Ptr < ((_Myvec *)this->_Getcont())->_Myfirst
; 68   : 			|| ((_Myvec *)this->_Getcont())->_Mylast <= this->_Ptr)
; 69   : 			{	// report error
; 70   : 			_DEBUG_ERROR("vector iterator not dereferencable");
; 71   : 			_SCL_SECURE_OUT_OF_RANGE;
; 72   : 			}
; 73   : 
; 74   :  #elif _ITERATOR_DEBUG_LEVEL == 1
; 75   : 		_SCL_SECURE_VALIDATE(this->_Getcont() != 0);
; 76   : 		_SCL_SECURE_VALIDATE_RANGE(
; 77   : 			this->_Ptr != 0
; 78   : 			&& ((_Myvec *)this->_Getcont())->_Myfirst <= this->_Ptr
; 79   : 			&& this->_Ptr < ((_Myvec *)this->_Getcont())->_Mylast);
; 80   :  #endif /* _ITERATOR_DEBUG_LEVEL */
; 81   : 
; 82   : 		__analysis_assume(this->_Ptr != 0);
; 83   : 
; 84   : 		return (*this->_Ptr);

  00000	8b 01		 mov	 eax, DWORD PTR [ecx]

; 85   : 		}

  00002	c3		 ret	 0
??D?$_Vector_const_iterator@V?$_Vector_val@UWoundedInfo@ioLeeSunSin@@V?$allocator@UWoundedInfo@ioLeeSunSin@@@std@@@std@@@std@@QBEABUWoundedInfo@ioLeeSunSin@@XZ ENDP ; std::_Vector_const_iterator<std::_Vector_val<ioLeeSunSin::WoundedInfo,std::allocator<ioLeeSunSin::WoundedInfo> > >::operator*
_TEXT	ENDS
PUBLIC	??E?$_Vector_const_iterator@V?$_Vector_val@UWoundedInfo@ioLeeSunSin@@V?$allocator@UWoundedInfo@ioLeeSunSin@@@std@@@std@@@std@@QAEAAV01@XZ ; std::_Vector_const_iterator<std::_Vector_val<ioLeeSunSin::WoundedInfo,std::allocator<ioLeeSunSin::WoundedInfo> > >::operator++
; Function compile flags: /Ogsp
;	COMDAT ??E?$_Vector_const_iterator@V?$_Vector_val@UWoundedInfo@ioLeeSunSin@@V?$allocator@UWoundedInfo@ioLeeSunSin@@@std@@@std@@@std@@QAEAAV01@XZ
_TEXT	SEGMENT
??E?$_Vector_const_iterator@V?$_Vector_val@UWoundedInfo@ioLeeSunSin@@V?$allocator@UWoundedInfo@ioLeeSunSin@@@std@@@std@@@std@@QAEAAV01@XZ PROC ; std::_Vector_const_iterator<std::_Vector_val<ioLeeSunSin::WoundedInfo,std::allocator<ioLeeSunSin::WoundedInfo> > >::operator++, COMDAT
; _this$ = ecx

; 93   : 		{	// preincrement

  00000	8b c1		 mov	 eax, ecx

; 94   :  #if _ITERATOR_DEBUG_LEVEL == 2
; 95   : 		if (this->_Getcont() == 0
; 96   : 			|| this->_Ptr == 0
; 97   : 			|| ((_Myvec *)this->_Getcont())->_Mylast <= this->_Ptr)
; 98   : 			{	// report error
; 99   : 			_DEBUG_ERROR("vector iterator not incrementable");
; 100  : 			_SCL_SECURE_OUT_OF_RANGE;
; 101  : 			}
; 102  : 
; 103  :  #elif _ITERATOR_DEBUG_LEVEL == 1
; 104  : 		_SCL_SECURE_VALIDATE(this->_Getcont() != 0);
; 105  : 		_SCL_SECURE_VALIDATE_RANGE(
; 106  : 			this->_Ptr != 0
; 107  : 			&& this->_Ptr < ((_Myvec *)this->_Getcont())->_Mylast);
; 108  :  #endif /* _ITERATOR_DEBUG_LEVEL */
; 109  : 
; 110  : 		++this->_Ptr;

  00002	83 00 20	 add	 DWORD PTR [eax], 32	; 00000020H

; 111  : 		return (*this);
; 112  : 		}

  00005	c3		 ret	 0
??E?$_Vector_const_iterator@V?$_Vector_val@UWoundedInfo@ioLeeSunSin@@V?$allocator@UWoundedInfo@ioLeeSunSin@@@std@@@std@@@std@@QAEAAV01@XZ ENDP ; std::_Vector_const_iterator<std::_Vector_val<ioLeeSunSin::WoundedInfo,std::allocator<ioLeeSunSin::WoundedInfo> > >::operator++
_TEXT	ENDS
PUBLIC	?capacity@?$vector@UWoundedInfo@ioLeeSunSin@@V?$allocator@UWoundedInfo@ioLeeSunSin@@@std@@@std@@QBEIXZ ; std::vector<ioLeeSunSin::WoundedInfo,std::allocator<ioLeeSunSin::WoundedInfo> >::capacity
; Function compile flags: /Ogsp
;	COMDAT ?capacity@?$vector@UWoundedInfo@ioLeeSunSin@@V?$allocator@UWoundedInfo@ioLeeSunSin@@@std@@@std@@QBEIXZ
_TEXT	SEGMENT
?capacity@?$vector@UWoundedInfo@ioLeeSunSin@@V?$allocator@UWoundedInfo@ioLeeSunSin@@@std@@@std@@QBEIXZ PROC ; std::vector<ioLeeSunSin::WoundedInfo,std::allocator<ioLeeSunSin::WoundedInfo> >::capacity, COMDAT
; _this$ = ecx

; 777  : 		return (this->_Myend - this->_Myfirst);

  00000	8b 41 08	 mov	 eax, DWORD PTR [ecx+8]
  00003	2b 01		 sub	 eax, DWORD PTR [ecx]
  00005	c1 f8 05	 sar	 eax, 5

; 778  : 		}

  00008	c3		 ret	 0
?capacity@?$vector@UWoundedInfo@ioLeeSunSin@@V?$allocator@UWoundedInfo@ioLeeSunSin@@@std@@@std@@QBEIXZ ENDP ; std::vector<ioLeeSunSin::WoundedInfo,std::allocator<ioLeeSunSin::WoundedInfo> >::capacity
_TEXT	ENDS
PUBLIC	??0D3DXQUATERNION@@QAE@XZ			; D3DXQUATERNION::D3DXQUATERNION
; Function compile flags: /Ogsp
; File c:\program files (x86)\microsoft directx sdk (june 2010)\include\d3dx9math.h
;	COMDAT ??0D3DXQUATERNION@@QAE@XZ
_TEXT	SEGMENT
??0D3DXQUATERNION@@QAE@XZ PROC				; D3DXQUATERNION::D3DXQUATERNION, COMDAT
; _this$ = ecx

; 429  :     D3DXQUATERNION() {}

  00000	8b c1		 mov	 eax, ecx
  00002	c3		 ret	 0
??0D3DXQUATERNION@@QAE@XZ ENDP				; D3DXQUATERNION::D3DXQUATERNION
_TEXT	ENDS
PUBLIC	??_C@_0BD@OLBABOEK@vector?$DMT?$DO?5too?5long?$AA@ ; `string'
PUBLIC	?_Xlen@?$vector@UWoundedInfo@ioLeeSunSin@@V?$allocator@UWoundedInfo@ioLeeSunSin@@@std@@@std@@IBEXXZ ; std::vector<ioLeeSunSin::WoundedInfo,std::allocator<ioLeeSunSin::WoundedInfo> >::_Xlen
EXTRN	__imp_?_Xlength_error@std@@YAXPBD@Z:PROC
;	COMDAT ??_C@_0BD@OLBABOEK@vector?$DMT?$DO?5too?5long?$AA@
; File c:\program files (x86)\microsoft visual studio 10.0\vc\include\vector
CONST	SEGMENT
??_C@_0BD@OLBABOEK@vector?$DMT?$DO?5too?5long?$AA@ DB 'vector<T> too long'
	DB	00H						; `string'
; Function compile flags: /Ogsp
CONST	ENDS
;	COMDAT ?_Xlen@?$vector@UWoundedInfo@ioLeeSunSin@@V?$allocator@UWoundedInfo@ioLeeSunSin@@@std@@@std@@IBEXXZ
_TEXT	SEGMENT
?_Xlen@?$vector@UWoundedInfo@ioLeeSunSin@@V?$allocator@UWoundedInfo@ioLeeSunSin@@@std@@@std@@IBEXXZ PROC ; std::vector<ioLeeSunSin::WoundedInfo,std::allocator<ioLeeSunSin::WoundedInfo> >::_Xlen, COMDAT
; _this$ = ecx

; 1427 : 		_Xlength_error("vector<T> too long");

  00000	68 00 00 00 00	 push	 OFFSET ??_C@_0BD@OLBABOEK@vector?$DMT?$DO?5too?5long?$AA@
  00005	ff 15 00 00 00
	00		 call	 DWORD PTR __imp_?_Xlength_error@std@@YAXPBD@Z
$LN4@Xlen:
$LN3@Xlen:
  0000b	cc		 int	 3
?_Xlen@?$vector@UWoundedInfo@ioLeeSunSin@@V?$allocator@UWoundedInfo@ioLeeSunSin@@@std@@@std@@IBEXXZ ENDP ; std::vector<ioLeeSunSin::WoundedInfo,std::allocator<ioLeeSunSin::WoundedInfo> >::_Xlen
_TEXT	ENDS
PUBLIC	?deallocate@?$allocator@UWoundedInfo@ioLeeSunSin@@@std@@QAEXPAUWoundedInfo@ioLeeSunSin@@I@Z ; std::allocator<ioLeeSunSin::WoundedInfo>::deallocate
; Function compile flags: /Ogsp
; File c:\program files (x86)\microsoft visual studio 10.0\vc\include\xmemory
;	COMDAT ?deallocate@?$allocator@UWoundedInfo@ioLeeSunSin@@@std@@QAEXPAUWoundedInfo@ioLeeSunSin@@I@Z
_TEXT	SEGMENT
__Ptr$ = 8						; size = 4
___formal$ = 12						; size = 4
?deallocate@?$allocator@UWoundedInfo@ioLeeSunSin@@@std@@QAEXPAUWoundedInfo@ioLeeSunSin@@I@Z PROC ; std::allocator<ioLeeSunSin::WoundedInfo>::deallocate, COMDAT
; _this$ = ecx

; 181  : 		{	// deallocate object at _Ptr, ignore size

  00000	55		 push	 ebp
  00001	8b ec		 mov	 ebp, esp

; 182  : 		::operator delete(_Ptr);

  00003	ff 75 08	 push	 DWORD PTR __Ptr$[ebp]
  00006	e8 00 00 00 00	 call	 ??3@YAXPAX@Z		; operator delete
  0000b	59		 pop	 ecx

; 183  : 		}

  0000c	5d		 pop	 ebp
  0000d	c2 08 00	 ret	 8
?deallocate@?$allocator@UWoundedInfo@ioLeeSunSin@@@std@@QAEXPAUWoundedInfo@ioLeeSunSin@@I@Z ENDP ; std::allocator<ioLeeSunSin::WoundedInfo>::deallocate
_TEXT	ENDS
PUBLIC	??0?$_Vector_const_iterator@V?$_Vector_val@UWoundedInfo@ioLeeSunSin@@V?$allocator@UWoundedInfo@ioLeeSunSin@@@std@@@std@@@std@@QAE@PAUWoundedInfo@ioLeeSunSin@@PBU_Container_base0@1@@Z ; std::_Vector_const_iterator<std::_Vector_val<ioLeeSunSin::WoundedInfo,std::allocator<ioLeeSunSin::WoundedInfo> > >::_Vector_const_iterator<std::_Vector_val<ioLeeSunSin::WoundedInfo,std::allocator<ioLeeSunSin::WoundedInfo> > >
; Function compile flags: /Ogsp
; File c:\program files (x86)\microsoft visual studio 10.0\vc\include\vector
;	COMDAT ??0?$_Vector_const_iterator@V?$_Vector_val@UWoundedInfo@ioLeeSunSin@@V?$allocator@UWoundedInfo@ioLeeSunSin@@@std@@@std@@@std@@QAE@PAUWoundedInfo@ioLeeSunSin@@PBU_Container_base0@1@@Z
_TEXT	SEGMENT
__Parg$ = 8						; size = 4
__Pvector$ = 12						; size = 4
??0?$_Vector_const_iterator@V?$_Vector_val@UWoundedInfo@ioLeeSunSin@@V?$allocator@UWoundedInfo@ioLeeSunSin@@@std@@@std@@@std@@QAE@PAUWoundedInfo@ioLeeSunSin@@PBU_Container_base0@1@@Z PROC ; std::_Vector_const_iterator<std::_Vector_val<ioLeeSunSin::WoundedInfo,std::allocator<ioLeeSunSin::WoundedInfo> > >::_Vector_const_iterator<std::_Vector_val<ioLeeSunSin::WoundedInfo,std::allocator<ioLeeSunSin::WoundedInfo> > >, COMDAT
; _this$ = ecx

; 45   : 		{	// construct with pointer _Parg

  00000	55		 push	 ebp
  00001	8b ec		 mov	 ebp, esp
  00003	8b c1		 mov	 eax, ecx
  00005	8b 4d 08	 mov	 ecx, DWORD PTR __Parg$[ebp]
  00008	89 08		 mov	 DWORD PTR [eax], ecx

; 46   : 		this->_Adopt(_Pvector);
; 47   : 		}

  0000a	5d		 pop	 ebp
  0000b	c2 08 00	 ret	 8
??0?$_Vector_const_iterator@V?$_Vector_val@UWoundedInfo@ioLeeSunSin@@V?$allocator@UWoundedInfo@ioLeeSunSin@@@std@@@std@@@std@@QAE@PAUWoundedInfo@ioLeeSunSin@@PBU_Container_base0@1@@Z ENDP ; std::_Vector_const_iterator<std::_Vector_val<ioLeeSunSin::WoundedInfo,std::allocator<ioLeeSunSin::WoundedInfo> > >::_Vector_const_iterator<std::_Vector_val<ioLeeSunSin::WoundedInfo,std::allocator<ioLeeSunSin::WoundedInfo> > >
_TEXT	ENDS
PUBLIC	?_Compat@?$_Vector_const_iterator@V?$_Vector_val@UWoundedInfo@ioLeeSunSin@@V?$allocator@UWoundedInfo@ioLeeSunSin@@@std@@@std@@@std@@QBEXABV12@@Z ; std::_Vector_const_iterator<std::_Vector_val<ioLeeSunSin::WoundedInfo,std::allocator<ioLeeSunSin::WoundedInfo> > >::_Compat
; Function compile flags: /Ogsp
;	COMDAT ?_Compat@?$_Vector_const_iterator@V?$_Vector_val@UWoundedInfo@ioLeeSunSin@@V?$allocator@UWoundedInfo@ioLeeSunSin@@@std@@@std@@@std@@QBEXABV12@@Z
_TEXT	SEGMENT
___formal$ = 8						; size = 4
?_Compat@?$_Vector_const_iterator@V?$_Vector_val@UWoundedInfo@ioLeeSunSin@@V?$allocator@UWoundedInfo@ioLeeSunSin@@@std@@@std@@@std@@QBEXABV12@@Z PROC ; std::_Vector_const_iterator<std::_Vector_val<ioLeeSunSin::WoundedInfo,std::allocator<ioLeeSunSin::WoundedInfo> > >::_Compat, COMDAT
; _this$ = ecx

; 253  : 		}

  00000	c2 04 00	 ret	 4
?_Compat@?$_Vector_const_iterator@V?$_Vector_val@UWoundedInfo@ioLeeSunSin@@V?$allocator@UWoundedInfo@ioLeeSunSin@@@std@@@std@@@std@@QBEXABV12@@Z ENDP ; std::_Vector_const_iterator<std::_Vector_val<ioLeeSunSin::WoundedInfo,std::allocator<ioLeeSunSin::WoundedInfo> > >::_Compat
_TEXT	ENDS
PUBLIC	?max_size@?$allocator@UWoundedInfo@ioLeeSunSin@@@std@@QBEIXZ ; std::allocator<ioLeeSunSin::WoundedInfo>::max_size
; Function compile flags: /Ogsp
; File c:\program files (x86)\microsoft visual studio 10.0\vc\include\xmemory
;	COMDAT ?max_size@?$allocator@UWoundedInfo@ioLeeSunSin@@@std@@QBEIXZ
_TEXT	SEGMENT
?max_size@?$allocator@UWoundedInfo@ioLeeSunSin@@@std@@QBEIXZ PROC ; std::allocator<ioLeeSunSin::WoundedInfo>::max_size, COMDAT
; _this$ = ecx

; 218  : 		_SIZT _Count = (_SIZT)(-1) / sizeof (_Ty);
; 219  : 		return (0 < _Count ? _Count : 1);

  00000	b8 ff ff ff 07	 mov	 eax, 134217727		; 07ffffffH

; 220  : 		}

  00005	c3		 ret	 0
?max_size@?$allocator@UWoundedInfo@ioLeeSunSin@@@std@@QBEIXZ ENDP ; std::allocator<ioLeeSunSin::WoundedInfo>::max_size
_TEXT	ENDS
PUBLIC	??0D3DXVECTOR3@@QAE@MMM@Z			; D3DXVECTOR3::D3DXVECTOR3
; Function compile flags: /Ogsp
; File c:\program files (x86)\microsoft directx sdk (june 2010)\include\d3dx9math.inl
;	COMDAT ??0D3DXVECTOR3@@QAE@MMM@Z
_TEXT	SEGMENT
_fx$ = 8						; size = 4
_fy$ = 12						; size = 4
_fz$ = 16						; size = 4
??0D3DXVECTOR3@@QAE@MMM@Z PROC				; D3DXVECTOR3::D3DXVECTOR3, COMDAT
; _this$ = ecx

; 303  : {

  00000	55		 push	 ebp
  00001	8b ec		 mov	 ebp, esp

; 304  :     x = fx;

  00003	f3 0f 10 45 08	 movss	 xmm0, DWORD PTR _fx$[ebp]
  00008	8b c1		 mov	 eax, ecx
  0000a	f3 0f 11 00	 movss	 DWORD PTR [eax], xmm0

; 305  :     y = fy;

  0000e	f3 0f 10 45 0c	 movss	 xmm0, DWORD PTR _fy$[ebp]
  00013	f3 0f 11 40 04	 movss	 DWORD PTR [eax+4], xmm0

; 306  :     z = fz;

  00018	f3 0f 10 45 10	 movss	 xmm0, DWORD PTR _fz$[ebp]
  0001d	f3 0f 11 40 08	 movss	 DWORD PTR [eax+8], xmm0

; 307  : }

  00022	5d		 pop	 ebp
  00023	c2 0c 00	 ret	 12			; 0000000cH
??0D3DXVECTOR3@@QAE@MMM@Z ENDP				; D3DXVECTOR3::D3DXVECTOR3
_TEXT	ENDS
PUBLIC	??$addressof@$$CBVioHashString@@@std@@YAPBVioHashString@@ABV1@@Z ; std::addressof<ioHashString const >
; Function compile flags: /Ogsp
; File c:\program files (x86)\microsoft visual studio 10.0\vc\include\xmemory
;	COMDAT ??$addressof@$$CBVioHashString@@@std@@YAPBVioHashString@@ABV1@@Z
_TEXT	SEGMENT
__Val$ = 8						; size = 4
??$addressof@$$CBVioHashString@@@std@@YAPBVioHashString@@ABV1@@Z PROC ; std::addressof<ioHashString const >, COMDAT

; 110  : 	{	// return address of _Val

  00000	55		 push	 ebp
  00001	8b ec		 mov	 ebp, esp

; 111  : 	return ((_Ty *) &(char&)_Val);

  00003	8b 45 08	 mov	 eax, DWORD PTR __Val$[ebp]

; 112  : 	}

  00006	5d		 pop	 ebp
  00007	c3		 ret	 0
??$addressof@$$CBVioHashString@@@std@@YAPBVioHashString@@ABV1@@Z ENDP ; std::addressof<ioHashString const >
_TEXT	ENDS
PUBLIC	??$addressof@$$CBUWoundedInfo@ioLeeSunSin@@@std@@YAPBUWoundedInfo@ioLeeSunSin@@ABU12@@Z ; std::addressof<ioLeeSunSin::WoundedInfo const >
; Function compile flags: /Ogsp
;	COMDAT ??$addressof@$$CBUWoundedInfo@ioLeeSunSin@@@std@@YAPBUWoundedInfo@ioLeeSunSin@@ABU12@@Z
_TEXT	SEGMENT
__Val$ = 8						; size = 4
??$addressof@$$CBUWoundedInfo@ioLeeSunSin@@@std@@YAPBUWoundedInfo@ioLeeSunSin@@ABU12@@Z PROC ; std::addressof<ioLeeSunSin::WoundedInfo const >, COMDAT

; 110  : 	{	// return address of _Val

  00000	55		 push	 ebp
  00001	8b ec		 mov	 ebp, esp

; 111  : 	return ((_Ty *) &(char&)_Val);

  00003	8b 45 08	 mov	 eax, DWORD PTR __Val$[ebp]

; 112  : 	}

  00006	5d		 pop	 ebp
  00007	c3		 ret	 0
??$addressof@$$CBUWoundedInfo@ioLeeSunSin@@@std@@YAPBUWoundedInfo@ioLeeSunSin@@ABU12@@Z ENDP ; std::addressof<ioLeeSunSin::WoundedInfo const >
_TEXT	ENDS
PUBLIC	__TI2?AVbad_alloc@std@@
PUBLIC	??$_Allocate@UWoundedInfo@ioLeeSunSin@@@std@@YAPAUWoundedInfo@ioLeeSunSin@@IPAU12@@Z ; std::_Allocate<ioLeeSunSin::WoundedInfo>
PUBLIC	__CTA2?AVbad_alloc@std@@
PUBLIC	__CT??_R0?AVbad_alloc@std@@@8??0bad_alloc@std@@QAE@ABV01@@Z12
PUBLIC	??0bad_alloc@std@@QAE@ABV01@@Z			; std::bad_alloc::bad_alloc
PUBLIC	__CT??_R0?AVexception@std@@@8??0exception@std@@QAE@ABV01@@Z12
EXTRN	??2@YAPAXI@Z:PROC				; operator new
EXTRN	__CxxThrowException@8:PROC
EXTRN	??0exception@std@@QAE@ABV01@@Z:PROC		; std::exception::exception
;	COMDAT __CT??_R0?AVexception@std@@@8??0exception@std@@QAE@ABV01@@Z12
; File c:\program files (x86)\microsoft visual studio 10.0\vc\include\exception
xdata$x	SEGMENT
__CT??_R0?AVexception@std@@@8??0exception@std@@QAE@ABV01@@Z12 DD 00H
	DD	FLAT:??_R0?AVexception@std@@@8
	DD	00H
	DD	0ffffffffH
	ORG $+4
	DD	0cH
	DD	FLAT:??0exception@std@@QAE@ABV01@@Z
xdata$x	ENDS
;	COMDAT __CT??_R0?AVbad_alloc@std@@@8??0bad_alloc@std@@QAE@ABV01@@Z12
xdata$x	SEGMENT
__CT??_R0?AVbad_alloc@std@@@8??0bad_alloc@std@@QAE@ABV01@@Z12 DD 00H
	DD	FLAT:??_R0?AVbad_alloc@std@@@8
	DD	00H
	DD	0ffffffffH
	ORG $+4
	DD	0cH
	DD	FLAT:??0bad_alloc@std@@QAE@ABV01@@Z
xdata$x	ENDS
;	COMDAT __CTA2?AVbad_alloc@std@@
xdata$x	SEGMENT
__CTA2?AVbad_alloc@std@@ DD 02H
	DD	FLAT:__CT??_R0?AVbad_alloc@std@@@8??0bad_alloc@std@@QAE@ABV01@@Z12
	DD	FLAT:__CT??_R0?AVexception@std@@@8??0exception@std@@QAE@ABV01@@Z12
xdata$x	ENDS
;	COMDAT __TI2?AVbad_alloc@std@@
xdata$x	SEGMENT
__TI2?AVbad_alloc@std@@ DD 00H
	DD	FLAT:??1bad_alloc@std@@UAE@XZ
	DD	00H
	DD	FLAT:__CTA2?AVbad_alloc@std@@
; Function compile flags: /Ogsp
; File c:\program files (x86)\microsoft visual studio 10.0\vc\include\xmemory
xdata$x	ENDS
;	COMDAT ??$_Allocate@UWoundedInfo@ioLeeSunSin@@@std@@YAPAUWoundedInfo@ioLeeSunSin@@IPAU12@@Z
_TEXT	SEGMENT
$T554389 = -12						; size = 12
$T554394 = 8						; size = 4
__Count$ = 8						; size = 4
___formal$ = 12						; size = 4
??$_Allocate@UWoundedInfo@ioLeeSunSin@@@std@@YAPAUWoundedInfo@ioLeeSunSin@@IPAU12@@Z PROC ; std::_Allocate<ioLeeSunSin::WoundedInfo>, COMDAT

; 30   : 	{	// allocate storage for _Count elements of type _Ty

  00000	55		 push	 ebp
  00001	8b ec		 mov	 ebp, esp

; 31   : 	void *_Ptr = 0;
; 32   : 
; 33   : 	if (_Count <= 0)

  00003	8b 4d 08	 mov	 ecx, DWORD PTR __Count$[ebp]
  00006	83 ec 0c	 sub	 esp, 12			; 0000000cH
  00009	33 c0		 xor	 eax, eax
  0000b	85 c9		 test	 ecx, ecx

; 34   : 		_Count = 0;
; 35   : 	else if (((_SIZT)(-1) / sizeof (_Ty) < _Count)

  0000d	74 3c		 je	 SHORT $LN5@Allocate

; 36   : 		|| (_Ptr = ::operator new(_Count * sizeof (_Ty))) == 0)

  0000f	81 f9 ff ff ff
	07		 cmp	 ecx, 134217727		; 07ffffffH
  00015	77 0e		 ja	 SHORT $LN1@Allocate
  00017	c1 e1 05	 shl	 ecx, 5
  0001a	51		 push	 ecx
  0001b	e8 00 00 00 00	 call	 ??2@YAPAXI@Z		; operator new
  00020	59		 pop	 ecx
  00021	85 c0		 test	 eax, eax

; 38   : 
; 39   : 	return ((_Ty _FARQ *)_Ptr);

  00023	75 26		 jne	 SHORT $LN5@Allocate
$LN1@Allocate:

; 37   : 		_THROW_NCEE(bad_alloc, 0);

  00025	83 65 08 00	 and	 DWORD PTR $T554394[ebp], 0
  00029	8d 45 08	 lea	 eax, DWORD PTR $T554394[ebp]
  0002c	50		 push	 eax
  0002d	8d 4d f4	 lea	 ecx, DWORD PTR $T554389[ebp]
  00030	ff 15 00 00 00
	00		 call	 DWORD PTR __imp_??0exception@std@@QAE@ABQBD@Z
  00036	68 00 00 00 00	 push	 OFFSET __TI2?AVbad_alloc@std@@
  0003b	8d 45 f4	 lea	 eax, DWORD PTR $T554389[ebp]
  0003e	50		 push	 eax
  0003f	c7 45 f4 00 00
	00 00		 mov	 DWORD PTR $T554389[ebp], OFFSET ??_7bad_alloc@std@@6B@
  00046	e8 00 00 00 00	 call	 __CxxThrowException@8
$LN10@Allocate:
$LN5@Allocate:

; 40   : 	}

  0004b	c9		 leave
  0004c	c3		 ret	 0
$LN9@Allocate:
??$_Allocate@UWoundedInfo@ioLeeSunSin@@@std@@YAPAUWoundedInfo@ioLeeSunSin@@IPAU12@@Z ENDP ; std::_Allocate<ioLeeSunSin::WoundedInfo>
_TEXT	ENDS
PUBLIC	??$forward@AAUWoundedInfo@ioLeeSunSin@@@std@@YAAAUWoundedInfo@ioLeeSunSin@@AAU12@@Z ; std::forward<ioLeeSunSin::WoundedInfo &>
; Function compile flags: /Ogsp
; File c:\program files (x86)\microsoft visual studio 10.0\vc\include\utility
;	COMDAT ??$forward@AAUWoundedInfo@ioLeeSunSin@@@std@@YAAAUWoundedInfo@ioLeeSunSin@@AAU12@@Z
_TEXT	SEGMENT
__Arg$ = 8						; size = 4
??$forward@AAUWoundedInfo@ioLeeSunSin@@@std@@YAAAUWoundedInfo@ioLeeSunSin@@AAU12@@Z PROC ; std::forward<ioLeeSunSin::WoundedInfo &>, COMDAT

; 78   : 	{	// forward _Arg, given explicitly specified type parameter

  00000	55		 push	 ebp
  00001	8b ec		 mov	 ebp, esp

; 79   : 	return ((_Ty&&)_Arg);

  00003	8b 45 08	 mov	 eax, DWORD PTR __Arg$[ebp]

; 80   : 	}

  00006	5d		 pop	 ebp
  00007	c3		 ret	 0
??$forward@AAUWoundedInfo@ioLeeSunSin@@@std@@YAAAUWoundedInfo@ioLeeSunSin@@AAU12@@Z ENDP ; std::forward<ioLeeSunSin::WoundedInfo &>
_TEXT	ENDS
PUBLIC	??$forward@ABUWoundedInfo@ioLeeSunSin@@@std@@YAABUWoundedInfo@ioLeeSunSin@@ABU12@@Z ; std::forward<ioLeeSunSin::WoundedInfo const &>
; Function compile flags: /Ogsp
;	COMDAT ??$forward@ABUWoundedInfo@ioLeeSunSin@@@std@@YAABUWoundedInfo@ioLeeSunSin@@ABU12@@Z
_TEXT	SEGMENT
__Arg$ = 8						; size = 4
??$forward@ABUWoundedInfo@ioLeeSunSin@@@std@@YAABUWoundedInfo@ioLeeSunSin@@ABU12@@Z PROC ; std::forward<ioLeeSunSin::WoundedInfo const &>, COMDAT

; 78   : 	{	// forward _Arg, given explicitly specified type parameter

  00000	55		 push	 ebp
  00001	8b ec		 mov	 ebp, esp

; 79   : 	return ((_Ty&&)_Arg);

  00003	8b 45 08	 mov	 eax, DWORD PTR __Arg$[ebp]

; 80   : 	}

  00006	5d		 pop	 ebp
  00007	c3		 ret	 0
??$forward@ABUWoundedInfo@ioLeeSunSin@@@std@@YAABUWoundedInfo@ioLeeSunSin@@ABU12@@Z ENDP ; std::forward<ioLeeSunSin::WoundedInfo const &>
_TEXT	ENDS
PUBLIC	??$_Ptr_cat@UWoundedInfo@ioLeeSunSin@@U12@@std@@YA?AU_Nonscalar_ptr_iterator_tag@0@PAUWoundedInfo@ioLeeSunSin@@0@Z ; std::_Ptr_cat<ioLeeSunSin::WoundedInfo,ioLeeSunSin::WoundedInfo>
; Function compile flags: /Ogsp
; File c:\program files (x86)\microsoft visual studio 10.0\vc\include\xutility
;	COMDAT ??$_Ptr_cat@UWoundedInfo@ioLeeSunSin@@U12@@std@@YA?AU_Nonscalar_ptr_iterator_tag@0@PAUWoundedInfo@ioLeeSunSin@@0@Z
_TEXT	SEGMENT
__Cat$ = -1						; size = 1
___formal$ = 8						; size = 4
___formal$ = 12						; size = 4
??$_Ptr_cat@UWoundedInfo@ioLeeSunSin@@U12@@std@@YA?AU_Nonscalar_ptr_iterator_tag@0@PAUWoundedInfo@ioLeeSunSin@@0@Z PROC ; std::_Ptr_cat<ioLeeSunSin::WoundedInfo,ioLeeSunSin::WoundedInfo>, COMDAT

; 516  : 	{	// return pointer category from pointers

  00000	55		 push	 ebp
  00001	8b ec		 mov	 ebp, esp
  00003	51		 push	 ecx

; 517  : 	typename _Ptr_cat_helper<_Elem1, _Elem2>::_Type _Cat;
; 518  : 	return (_Cat);

  00004	8a 45 ff	 mov	 al, BYTE PTR __Cat$[ebp]

; 519  : 	}

  00007	c9		 leave
  00008	c3		 ret	 0
??$_Ptr_cat@UWoundedInfo@ioLeeSunSin@@U12@@std@@YA?AU_Nonscalar_ptr_iterator_tag@0@PAUWoundedInfo@ioLeeSunSin@@0@Z ENDP ; std::_Ptr_cat<ioLeeSunSin::WoundedInfo,ioLeeSunSin::WoundedInfo>
_TEXT	ENDS
PUBLIC	??0WoundedInfo@ioLeeSunSin@@QAE@ABU01@@Z	; ioLeeSunSin::WoundedInfo::WoundedInfo
EXTRN	__imp_??0ioHashString@@QAE@ABV0@@Z:PROC
; Function compile flags: /Ogsp
;	COMDAT ??0WoundedInfo@ioLeeSunSin@@QAE@ABU01@@Z
_TEXT	SEGMENT
___that$ = 8						; size = 4
??0WoundedInfo@ioLeeSunSin@@QAE@ABU01@@Z PROC		; ioLeeSunSin::WoundedInfo::WoundedInfo, COMDAT
; _this$ = ecx
  00000	55		 push	 ebp
  00001	8b ec		 mov	 ebp, esp
  00003	56		 push	 esi
  00004	57		 push	 edi
  00005	8b 7d 08	 mov	 edi, DWORD PTR ___that$[ebp]
  00008	8b 07		 mov	 eax, DWORD PTR [edi]
  0000a	8b f1		 mov	 esi, ecx
  0000c	89 06		 mov	 DWORD PTR [esi], eax
  0000e	d9 47 04	 fld	 DWORD PTR [edi+4]
  00011	d9 5e 04	 fstp	 DWORD PTR [esi+4]
  00014	8d 47 0c	 lea	 eax, DWORD PTR [edi+12]
  00017	d9 47 08	 fld	 DWORD PTR [edi+8]
  0001a	50		 push	 eax
  0001b	8d 4e 0c	 lea	 ecx, DWORD PTR [esi+12]
  0001e	d9 5e 08	 fstp	 DWORD PTR [esi+8]
  00021	ff 15 00 00 00
	00		 call	 DWORD PTR __imp_??0ioHashString@@QAE@ABV0@@Z
  00027	d9 47 1c	 fld	 DWORD PTR [edi+28]
  0002a	5f		 pop	 edi
  0002b	d9 5e 1c	 fstp	 DWORD PTR [esi+28]
  0002e	8b c6		 mov	 eax, esi
  00030	5e		 pop	 esi
  00031	5d		 pop	 ebp
  00032	c2 04 00	 ret	 4
??0WoundedInfo@ioLeeSunSin@@QAE@ABU01@@Z ENDP		; ioLeeSunSin::WoundedInfo::WoundedInfo
_TEXT	ENDS
PUBLIC	??$_Ptr_cat@V?$_Vector_const_iterator@V?$_Vector_val@UWeaponInfo@@V?$allocator@UWeaponInfo@@@std@@@std@@@std@@PAUWeaponInfo@@@std@@YA?AU_Nonscalar_ptr_iterator_tag@0@AAV?$_Vector_const_iterator@V?$_Vector_val@UWeaponInfo@@V?$allocator@UWeaponInfo@@@std@@@std@@@0@AAPAUWeaponInfo@@@Z ; std::_Ptr_cat<std::_Vector_const_iterator<std::_Vector_val<WeaponInfo,std::allocator<WeaponInfo> > >,WeaponInfo *>
; Function compile flags: /Ogsp
;	COMDAT ??$_Ptr_cat@V?$_Vector_const_iterator@V?$_Vector_val@UWeaponInfo@@V?$allocator@UWeaponInfo@@@std@@@std@@@std@@PAUWeaponInfo@@@std@@YA?AU_Nonscalar_ptr_iterator_tag@0@AAV?$_Vector_const_iterator@V?$_Vector_val@UWeaponInfo@@V?$allocator@UWeaponInfo@@@std@@@std@@@0@AAPAUWeaponInfo@@@Z
_TEXT	SEGMENT
__Cat$ = -1						; size = 1
___formal$ = 8						; size = 4
___formal$ = 12						; size = 4
??$_Ptr_cat@V?$_Vector_const_iterator@V?$_Vector_val@UWeaponInfo@@V?$allocator@UWeaponInfo@@@std@@@std@@@std@@PAUWeaponInfo@@@std@@YA?AU_Nonscalar_ptr_iterator_tag@0@AAV?$_Vector_const_iterator@V?$_Vector_val@UWeaponInfo@@V?$allocator@UWeaponInfo@@@std@@@std@@@0@AAPAUWeaponInfo@@@Z PROC ; std::_Ptr_cat<std::_Vector_const_iterator<std::_Vector_val<WeaponInfo,std::allocator<WeaponInfo> > >,WeaponInfo *>, COMDAT

; 485  : 	{	// return pointer category from arbitrary arguments

  00000	55		 push	 ebp
  00001	8b ec		 mov	 ebp, esp
  00003	51		 push	 ecx

; 486  : 	_Nonscalar_ptr_iterator_tag _Cat;
; 487  : 	return (_Cat);

  00004	8a 45 ff	 mov	 al, BYTE PTR __Cat$[ebp]

; 488  : 	}

  00007	c9		 leave
  00008	c3		 ret	 0
??$_Ptr_cat@V?$_Vector_const_iterator@V?$_Vector_val@UWeaponInfo@@V?$allocator@UWeaponInfo@@@std@@@std@@@std@@PAUWeaponInfo@@@std@@YA?AU_Nonscalar_ptr_iterator_tag@0@AAV?$_Vector_const_iterator@V?$_Vector_val@UWeaponInfo@@V?$allocator@UWeaponInfo@@@std@@@std@@@0@AAPAUWeaponInfo@@@Z ENDP ; std::_Ptr_cat<std::_Vector_const_iterator<std::_Vector_val<WeaponInfo,std::allocator<WeaponInfo> > >,WeaponInfo *>
_TEXT	ENDS
PUBLIC	??$_Ptr_cat@V?$_Vector_const_iterator@V?$_Vector_val@UForceInfo@@V?$allocator@UForceInfo@@@std@@@std@@@std@@PAUForceInfo@@@std@@YA?AU_Nonscalar_ptr_iterator_tag@0@AAV?$_Vector_const_iterator@V?$_Vector_val@UForceInfo@@V?$allocator@UForceInfo@@@std@@@std@@@0@AAPAUForceInfo@@@Z ; std::_Ptr_cat<std::_Vector_const_iterator<std::_Vector_val<ForceInfo,std::allocator<ForceInfo> > >,ForceInfo *>
; Function compile flags: /Ogsp
;	COMDAT ??$_Ptr_cat@V?$_Vector_const_iterator@V?$_Vector_val@UForceInfo@@V?$allocator@UForceInfo@@@std@@@std@@@std@@PAUForceInfo@@@std@@YA?AU_Nonscalar_ptr_iterator_tag@0@AAV?$_Vector_const_iterator@V?$_Vector_val@UForceInfo@@V?$allocator@UForceInfo@@@std@@@std@@@0@AAPAUForceInfo@@@Z
_TEXT	SEGMENT
__Cat$ = -1						; size = 1
___formal$ = 8						; size = 4
___formal$ = 12						; size = 4
??$_Ptr_cat@V?$_Vector_const_iterator@V?$_Vector_val@UForceInfo@@V?$allocator@UForceInfo@@@std@@@std@@@std@@PAUForceInfo@@@std@@YA?AU_Nonscalar_ptr_iterator_tag@0@AAV?$_Vector_const_iterator@V?$_Vector_val@UForceInfo@@V?$allocator@UForceInfo@@@std@@@std@@@0@AAPAUForceInfo@@@Z PROC ; std::_Ptr_cat<std::_Vector_const_iterator<std::_Vector_val<ForceInfo,std::allocator<ForceInfo> > >,ForceInfo *>, COMDAT

; 485  : 	{	// return pointer category from arbitrary arguments

  00000	55		 push	 ebp
  00001	8b ec		 mov	 ebp, esp
  00003	51		 push	 ecx

; 486  : 	_Nonscalar_ptr_iterator_tag _Cat;
; 487  : 	return (_Cat);

  00004	8a 45 ff	 mov	 al, BYTE PTR __Cat$[ebp]

; 488  : 	}

  00007	c9		 leave
  00008	c3		 ret	 0
??$_Ptr_cat@V?$_Vector_const_iterator@V?$_Vector_val@UForceInfo@@V?$allocator@UForceInfo@@@std@@@std@@@std@@PAUForceInfo@@@std@@YA?AU_Nonscalar_ptr_iterator_tag@0@AAV?$_Vector_const_iterator@V?$_Vector_val@UForceInfo@@V?$allocator@UForceInfo@@@std@@@std@@@0@AAPAUForceInfo@@@Z ENDP ; std::_Ptr_cat<std::_Vector_const_iterator<std::_Vector_val<ForceInfo,std::allocator<ForceInfo> > >,ForceInfo *>
_TEXT	ENDS
PUBLIC	??$_Ptr_cat@V?$_Vector_const_iterator@V?$_Vector_val@UWoundedInfo@ioLeeSunSin@@V?$allocator@UWoundedInfo@ioLeeSunSin@@@std@@@std@@@std@@PAUWoundedInfo@ioLeeSunSin@@@std@@YA?AU_Nonscalar_ptr_iterator_tag@0@AAV?$_Vector_const_iterator@V?$_Vector_val@UWoundedInfo@ioLeeSunSin@@V?$allocator@UWoundedInfo@ioLeeSunSin@@@std@@@std@@@0@AAPAUWoundedInfo@ioLeeSunSin@@@Z ; std::_Ptr_cat<std::_Vector_const_iterator<std::_Vector_val<ioLeeSunSin::WoundedInfo,std::allocator<ioLeeSunSin::WoundedInfo> > >,ioLeeSunSin::WoundedInfo *>
; Function compile flags: /Ogsp
;	COMDAT ??$_Ptr_cat@V?$_Vector_const_iterator@V?$_Vector_val@UWoundedInfo@ioLeeSunSin@@V?$allocator@UWoundedInfo@ioLeeSunSin@@@std@@@std@@@std@@PAUWoundedInfo@ioLeeSunSin@@@std@@YA?AU_Nonscalar_ptr_iterator_tag@0@AAV?$_Vector_const_iterator@V?$_Vector_val@UWoundedInfo@ioLeeSunSin@@V?$allocator@UWoundedInfo@ioLeeSunSin@@@std@@@std@@@0@AAPAUWoundedInfo@ioLeeSunSin@@@Z
_TEXT	SEGMENT
__Cat$ = -1						; size = 1
___formal$ = 8						; size = 4
___formal$ = 12						; size = 4
??$_Ptr_cat@V?$_Vector_const_iterator@V?$_Vector_val@UWoundedInfo@ioLeeSunSin@@V?$allocator@UWoundedInfo@ioLeeSunSin@@@std@@@std@@@std@@PAUWoundedInfo@ioLeeSunSin@@@std@@YA?AU_Nonscalar_ptr_iterator_tag@0@AAV?$_Vector_const_iterator@V?$_Vector_val@UWoundedInfo@ioLeeSunSin@@V?$allocator@UWoundedInfo@ioLeeSunSin@@@std@@@std@@@0@AAPAUWoundedInfo@ioLeeSunSin@@@Z PROC ; std::_Ptr_cat<std::_Vector_const_iterator<std::_Vector_val<ioLeeSunSin::WoundedInfo,std::allocator<ioLeeSunSin::WoundedInfo> > >,ioLeeSunSin::WoundedInfo *>, COMDAT

; 485  : 	{	// return pointer category from arbitrary arguments

  00000	55		 push	 ebp
  00001	8b ec		 mov	 ebp, esp
  00003	51		 push	 ecx

; 486  : 	_Nonscalar_ptr_iterator_tag _Cat;
; 487  : 	return (_Cat);

  00004	8a 45 ff	 mov	 al, BYTE PTR __Cat$[ebp]

; 488  : 	}

  00007	c9		 leave
  00008	c3		 ret	 0
??$_Ptr_cat@V?$_Vector_const_iterator@V?$_Vector_val@UWoundedInfo@ioLeeSunSin@@V?$allocator@UWoundedInfo@ioLeeSunSin@@@std@@@std@@@std@@PAUWoundedInfo@ioLeeSunSin@@@std@@YA?AU_Nonscalar_ptr_iterator_tag@0@AAV?$_Vector_const_iterator@V?$_Vector_val@UWoundedInfo@ioLeeSunSin@@V?$allocator@UWoundedInfo@ioLeeSunSin@@@std@@@std@@@0@AAPAUWoundedInfo@ioLeeSunSin@@@Z ENDP ; std::_Ptr_cat<std::_Vector_const_iterator<std::_Vector_val<ioLeeSunSin::WoundedInfo,std::allocator<ioLeeSunSin::WoundedInfo> > >,ioLeeSunSin::WoundedInfo *>
_TEXT	ENDS
PUBLIC	??$_Val_type@PAVioHashString@@@std@@YAPAVioHashString@@PAV1@@Z ; std::_Val_type<ioHashString *>
; Function compile flags: /Ogsp
;	COMDAT ??$_Val_type@PAVioHashString@@@std@@YAPAVioHashString@@PAV1@@Z
_TEXT	SEGMENT
___formal$ = 8						; size = 4
??$_Val_type@PAVioHashString@@@std@@YAPAVioHashString@@PAV1@@Z PROC ; std::_Val_type<ioHashString *>, COMDAT

; 790  : 	return (0);

  00000	33 c0		 xor	 eax, eax

; 791  : 	}

  00002	c3		 ret	 0
??$_Val_type@PAVioHashString@@@std@@YAPAVioHashString@@PAV1@@Z ENDP ; std::_Val_type<ioHashString *>
_TEXT	ENDS
PUBLIC	??$_Val_type@PAUWoundedInfo@ioLeeSunSin@@@std@@YAPAUWoundedInfo@ioLeeSunSin@@PAU12@@Z ; std::_Val_type<ioLeeSunSin::WoundedInfo *>
; Function compile flags: /Ogsp
;	COMDAT ??$_Val_type@PAUWoundedInfo@ioLeeSunSin@@@std@@YAPAUWoundedInfo@ioLeeSunSin@@PAU12@@Z
_TEXT	SEGMENT
___formal$ = 8						; size = 4
??$_Val_type@PAUWoundedInfo@ioLeeSunSin@@@std@@YAPAUWoundedInfo@ioLeeSunSin@@PAU12@@Z PROC ; std::_Val_type<ioLeeSunSin::WoundedInfo *>, COMDAT

; 790  : 	return (0);

  00000	33 c0		 xor	 eax, eax

; 791  : 	}

  00002	c3		 ret	 0
??$_Val_type@PAUWoundedInfo@ioLeeSunSin@@@std@@YAPAUWoundedInfo@ioLeeSunSin@@PAU12@@Z ENDP ; std::_Val_type<ioLeeSunSin::WoundedInfo *>
_TEXT	ENDS
PUBLIC	??D?$_Vector_const_iterator@V?$_Vector_val@UWeaponInfo@@V?$allocator@UWeaponInfo@@@std@@@std@@@std@@QBEABUWeaponInfo@@XZ ; std::_Vector_const_iterator<std::_Vector_val<WeaponInfo,std::allocator<WeaponInfo> > >::operator*
; Function compile flags: /Ogsp
; File c:\program files (x86)\microsoft visual studio 10.0\vc\include\vector
;	COMDAT ??D?$_Vector_const_iterator@V?$_Vector_val@UWeaponInfo@@V?$allocator@UWeaponInfo@@@std@@@std@@@std@@QBEABUWeaponInfo@@XZ
_TEXT	SEGMENT
??D?$_Vector_const_iterator@V?$_Vector_val@UWeaponInfo@@V?$allocator@UWeaponInfo@@@std@@@std@@@std@@QBEABUWeaponInfo@@XZ PROC ; std::_Vector_const_iterator<std::_Vector_val<WeaponInfo,std::allocator<WeaponInfo> > >::operator*, COMDAT
; _this$ = ecx

; 64   :  #if _ITERATOR_DEBUG_LEVEL == 2
; 65   : 		if (this->_Getcont() == 0
; 66   : 			|| this->_Ptr == 0
; 67   : 			|| this->_Ptr < ((_Myvec *)this->_Getcont())->_Myfirst
; 68   : 			|| ((_Myvec *)this->_Getcont())->_Mylast <= this->_Ptr)
; 69   : 			{	// report error
; 70   : 			_DEBUG_ERROR("vector iterator not dereferencable");
; 71   : 			_SCL_SECURE_OUT_OF_RANGE;
; 72   : 			}
; 73   : 
; 74   :  #elif _ITERATOR_DEBUG_LEVEL == 1
; 75   : 		_SCL_SECURE_VALIDATE(this->_Getcont() != 0);
; 76   : 		_SCL_SECURE_VALIDATE_RANGE(
; 77   : 			this->_Ptr != 0
; 78   : 			&& ((_Myvec *)this->_Getcont())->_Myfirst <= this->_Ptr
; 79   : 			&& this->_Ptr < ((_Myvec *)this->_Getcont())->_Mylast);
; 80   :  #endif /* _ITERATOR_DEBUG_LEVEL */
; 81   : 
; 82   : 		__analysis_assume(this->_Ptr != 0);
; 83   : 
; 84   : 		return (*this->_Ptr);

  00000	8b 01		 mov	 eax, DWORD PTR [ecx]

; 85   : 		}

  00002	c3		 ret	 0
??D?$_Vector_const_iterator@V?$_Vector_val@UWeaponInfo@@V?$allocator@UWeaponInfo@@@std@@@std@@@std@@QBEABUWeaponInfo@@XZ ENDP ; std::_Vector_const_iterator<std::_Vector_val<WeaponInfo,std::allocator<WeaponInfo> > >::operator*
_TEXT	ENDS
PUBLIC	??E?$_Vector_const_iterator@V?$_Vector_val@UWeaponInfo@@V?$allocator@UWeaponInfo@@@std@@@std@@@std@@QAEAAV01@XZ ; std::_Vector_const_iterator<std::_Vector_val<WeaponInfo,std::allocator<WeaponInfo> > >::operator++
; Function compile flags: /Ogsp
;	COMDAT ??E?$_Vector_const_iterator@V?$_Vector_val@UWeaponInfo@@V?$allocator@UWeaponInfo@@@std@@@std@@@std@@QAEAAV01@XZ
_TEXT	SEGMENT
??E?$_Vector_const_iterator@V?$_Vector_val@UWeaponInfo@@V?$allocator@UWeaponInfo@@@std@@@std@@@std@@QAEAAV01@XZ PROC ; std::_Vector_const_iterator<std::_Vector_val<WeaponInfo,std::allocator<WeaponInfo> > >::operator++, COMDAT
; _this$ = ecx

; 93   : 		{	// preincrement

  00000	8b c1		 mov	 eax, ecx

; 94   :  #if _ITERATOR_DEBUG_LEVEL == 2
; 95   : 		if (this->_Getcont() == 0
; 96   : 			|| this->_Ptr == 0
; 97   : 			|| ((_Myvec *)this->_Getcont())->_Mylast <= this->_Ptr)
; 98   : 			{	// report error
; 99   : 			_DEBUG_ERROR("vector iterator not incrementable");
; 100  : 			_SCL_SECURE_OUT_OF_RANGE;
; 101  : 			}
; 102  : 
; 103  :  #elif _ITERATOR_DEBUG_LEVEL == 1
; 104  : 		_SCL_SECURE_VALIDATE(this->_Getcont() != 0);
; 105  : 		_SCL_SECURE_VALIDATE_RANGE(
; 106  : 			this->_Ptr != 0
; 107  : 			&& this->_Ptr < ((_Myvec *)this->_Getcont())->_Mylast);
; 108  :  #endif /* _ITERATOR_DEBUG_LEVEL */
; 109  : 
; 110  : 		++this->_Ptr;

  00002	83 00 28	 add	 DWORD PTR [eax], 40	; 00000028H

; 111  : 		return (*this);
; 112  : 		}

  00005	c3		 ret	 0
??E?$_Vector_const_iterator@V?$_Vector_val@UWeaponInfo@@V?$allocator@UWeaponInfo@@@std@@@std@@@std@@QAEAAV01@XZ ENDP ; std::_Vector_const_iterator<std::_Vector_val<WeaponInfo,std::allocator<WeaponInfo> > >::operator++
_TEXT	ENDS
PUBLIC	??D?$_Vector_const_iterator@V?$_Vector_val@UForceInfo@@V?$allocator@UForceInfo@@@std@@@std@@@std@@QBEABUForceInfo@@XZ ; std::_Vector_const_iterator<std::_Vector_val<ForceInfo,std::allocator<ForceInfo> > >::operator*
; Function compile flags: /Ogsp
;	COMDAT ??D?$_Vector_const_iterator@V?$_Vector_val@UForceInfo@@V?$allocator@UForceInfo@@@std@@@std@@@std@@QBEABUForceInfo@@XZ
_TEXT	SEGMENT
??D?$_Vector_const_iterator@V?$_Vector_val@UForceInfo@@V?$allocator@UForceInfo@@@std@@@std@@@std@@QBEABUForceInfo@@XZ PROC ; std::_Vector_const_iterator<std::_Vector_val<ForceInfo,std::allocator<ForceInfo> > >::operator*, COMDAT
; _this$ = ecx

; 64   :  #if _ITERATOR_DEBUG_LEVEL == 2
; 65   : 		if (this->_Getcont() == 0
; 66   : 			|| this->_Ptr == 0
; 67   : 			|| this->_Ptr < ((_Myvec *)this->_Getcont())->_Myfirst
; 68   : 			|| ((_Myvec *)this->_Getcont())->_Mylast <= this->_Ptr)
; 69   : 			{	// report error
; 70   : 			_DEBUG_ERROR("vector iterator not dereferencable");
; 71   : 			_SCL_SECURE_OUT_OF_RANGE;
; 72   : 			}
; 73   : 
; 74   :  #elif _ITERATOR_DEBUG_LEVEL == 1
; 75   : 		_SCL_SECURE_VALIDATE(this->_Getcont() != 0);
; 76   : 		_SCL_SECURE_VALIDATE_RANGE(
; 77   : 			this->_Ptr != 0
; 78   : 			&& ((_Myvec *)this->_Getcont())->_Myfirst <= this->_Ptr
; 79   : 			&& this->_Ptr < ((_Myvec *)this->_Getcont())->_Mylast);
; 80   :  #endif /* _ITERATOR_DEBUG_LEVEL */
; 81   : 
; 82   : 		__analysis_assume(this->_Ptr != 0);
; 83   : 
; 84   : 		return (*this->_Ptr);

  00000	8b 01		 mov	 eax, DWORD PTR [ecx]

; 85   : 		}

  00002	c3		 ret	 0
??D?$_Vector_const_iterator@V?$_Vector_val@UForceInfo@@V?$allocator@UForceInfo@@@std@@@std@@@std@@QBEABUForceInfo@@XZ ENDP ; std::_Vector_const_iterator<std::_Vector_val<ForceInfo,std::allocator<ForceInfo> > >::operator*
_TEXT	ENDS
PUBLIC	??E?$_Vector_const_iterator@V?$_Vector_val@UForceInfo@@V?$allocator@UForceInfo@@@std@@@std@@@std@@QAEAAV01@XZ ; std::_Vector_const_iterator<std::_Vector_val<ForceInfo,std::allocator<ForceInfo> > >::operator++
; Function compile flags: /Ogsp
;	COMDAT ??E?$_Vector_const_iterator@V?$_Vector_val@UForceInfo@@V?$allocator@UForceInfo@@@std@@@std@@@std@@QAEAAV01@XZ
_TEXT	SEGMENT
??E?$_Vector_const_iterator@V?$_Vector_val@UForceInfo@@V?$allocator@UForceInfo@@@std@@@std@@@std@@QAEAAV01@XZ PROC ; std::_Vector_const_iterator<std::_Vector_val<ForceInfo,std::allocator<ForceInfo> > >::operator++, COMDAT
; _this$ = ecx

; 93   : 		{	// preincrement

  00000	8b c1		 mov	 eax, ecx

; 94   :  #if _ITERATOR_DEBUG_LEVEL == 2
; 95   : 		if (this->_Getcont() == 0
; 96   : 			|| this->_Ptr == 0
; 97   : 			|| ((_Myvec *)this->_Getcont())->_Mylast <= this->_Ptr)
; 98   : 			{	// report error
; 99   : 			_DEBUG_ERROR("vector iterator not incrementable");
; 100  : 			_SCL_SECURE_OUT_OF_RANGE;
; 101  : 			}
; 102  : 
; 103  :  #elif _ITERATOR_DEBUG_LEVEL == 1
; 104  : 		_SCL_SECURE_VALIDATE(this->_Getcont() != 0);
; 105  : 		_SCL_SECURE_VALIDATE_RANGE(
; 106  : 			this->_Ptr != 0
; 107  : 			&& this->_Ptr < ((_Myvec *)this->_Getcont())->_Mylast);
; 108  :  #endif /* _ITERATOR_DEBUG_LEVEL */
; 109  : 
; 110  : 		++this->_Ptr;

  00002	83 00 0c	 add	 DWORD PTR [eax], 12	; 0000000cH

; 111  : 		return (*this);
; 112  : 		}

  00005	c3		 ret	 0
??E?$_Vector_const_iterator@V?$_Vector_val@UForceInfo@@V?$allocator@UForceInfo@@@std@@@std@@@std@@QAEAAV01@XZ ENDP ; std::_Vector_const_iterator<std::_Vector_val<ForceInfo,std::allocator<ForceInfo> > >::operator++
_TEXT	ENDS
PUBLIC	??_GWoundedInfo@ioLeeSunSin@@QAEPAXI@Z		; ioLeeSunSin::WoundedInfo::`scalar deleting destructor'
; Function compile flags: /Ogsp
;	COMDAT ??_GWoundedInfo@ioLeeSunSin@@QAEPAXI@Z
_TEXT	SEGMENT
___flags$ = 8						; size = 4
??_GWoundedInfo@ioLeeSunSin@@QAEPAXI@Z PROC		; ioLeeSunSin::WoundedInfo::`scalar deleting destructor', COMDAT
; _this$ = ecx
  00000	55		 push	 ebp
  00001	8b ec		 mov	 ebp, esp
  00003	56		 push	 esi
  00004	8b f1		 mov	 esi, ecx
  00006	8d 4e 0c	 lea	 ecx, DWORD PTR [esi+12]
  00009	ff 15 00 00 00
	00		 call	 DWORD PTR __imp_??1ioHashString@@QAE@XZ
  0000f	f6 45 08 01	 test	 BYTE PTR ___flags$[ebp], 1
  00013	74 07		 je	 SHORT $LN1@scalar@2
  00015	56		 push	 esi
  00016	e8 00 00 00 00	 call	 ??3@YAXPAX@Z		; operator delete
  0001b	59		 pop	 ecx
$LN1@scalar@2:
  0001c	8b c6		 mov	 eax, esi
  0001e	5e		 pop	 esi
  0001f	5d		 pop	 ebp
  00020	c2 04 00	 ret	 4
??_GWoundedInfo@ioLeeSunSin@@QAEPAXI@Z ENDP		; ioLeeSunSin::WoundedInfo::`scalar deleting destructor'
_TEXT	ENDS
PUBLIC	??$forward@ABUWeaponInfo@@@std@@YAABUWeaponInfo@@ABU1@@Z ; std::forward<WeaponInfo const &>
; Function compile flags: /Ogsp
; File c:\program files (x86)\microsoft visual studio 10.0\vc\include\utility
;	COMDAT ??$forward@ABUWeaponInfo@@@std@@YAABUWeaponInfo@@ABU1@@Z
_TEXT	SEGMENT
__Arg$ = 8						; size = 4
??$forward@ABUWeaponInfo@@@std@@YAABUWeaponInfo@@ABU1@@Z PROC ; std::forward<WeaponInfo const &>, COMDAT

; 78   : 	{	// forward _Arg, given explicitly specified type parameter

  00000	55		 push	 ebp
  00001	8b ec		 mov	 ebp, esp

; 79   : 	return ((_Ty&&)_Arg);

  00003	8b 45 08	 mov	 eax, DWORD PTR __Arg$[ebp]

; 80   : 	}

  00006	5d		 pop	 ebp
  00007	c3		 ret	 0
??$forward@ABUWeaponInfo@@@std@@YAABUWeaponInfo@@ABU1@@Z ENDP ; std::forward<WeaponInfo const &>
_TEXT	ENDS
PUBLIC	??$forward@ABUForceInfo@@@std@@YAABUForceInfo@@ABU1@@Z ; std::forward<ForceInfo const &>
; Function compile flags: /Ogsp
;	COMDAT ??$forward@ABUForceInfo@@@std@@YAABUForceInfo@@ABU1@@Z
_TEXT	SEGMENT
__Arg$ = 8						; size = 4
??$forward@ABUForceInfo@@@std@@YAABUForceInfo@@ABU1@@Z PROC ; std::forward<ForceInfo const &>, COMDAT

; 78   : 	{	// forward _Arg, given explicitly specified type parameter

  00000	55		 push	 ebp
  00001	8b ec		 mov	 ebp, esp

; 79   : 	return ((_Ty&&)_Arg);

  00003	8b 45 08	 mov	 eax, DWORD PTR __Arg$[ebp]

; 80   : 	}

  00006	5d		 pop	 ebp
  00007	c3		 ret	 0
??$forward@ABUForceInfo@@@std@@YAABUForceInfo@@ABU1@@Z ENDP ; std::forward<ForceInfo const &>
_TEXT	ENDS
PUBLIC	??$forward@VioHashString@@@std@@YA$$QAVioHashString@@AAV1@@Z ; std::forward<ioHashString>
; Function compile flags: /Ogsp
;	COMDAT ??$forward@VioHashString@@@std@@YA$$QAVioHashString@@AAV1@@Z
_TEXT	SEGMENT
__Arg$ = 8						; size = 4
??$forward@VioHashString@@@std@@YA$$QAVioHashString@@AAV1@@Z PROC ; std::forward<ioHashString>, COMDAT

; 78   : 	{	// forward _Arg, given explicitly specified type parameter

  00000	55		 push	 ebp
  00001	8b ec		 mov	 ebp, esp

; 79   : 	return ((_Ty&&)_Arg);

  00003	8b 45 08	 mov	 eax, DWORD PTR __Arg$[ebp]

; 80   : 	}

  00006	5d		 pop	 ebp
  00007	c3		 ret	 0
??$forward@VioHashString@@@std@@YA$$QAVioHashString@@AAV1@@Z ENDP ; std::forward<ioHashString>
_TEXT	ENDS
PUBLIC	??$forward@UWoundedInfo@ioLeeSunSin@@@std@@YA$$QAUWoundedInfo@ioLeeSunSin@@AAU12@@Z ; std::forward<ioLeeSunSin::WoundedInfo>
; Function compile flags: /Ogsp
;	COMDAT ??$forward@UWoundedInfo@ioLeeSunSin@@@std@@YA$$QAUWoundedInfo@ioLeeSunSin@@AAU12@@Z
_TEXT	SEGMENT
__Arg$ = 8						; size = 4
??$forward@UWoundedInfo@ioLeeSunSin@@@std@@YA$$QAUWoundedInfo@ioLeeSunSin@@AAU12@@Z PROC ; std::forward<ioLeeSunSin::WoundedInfo>, COMDAT

; 78   : 	{	// forward _Arg, given explicitly specified type parameter

  00000	55		 push	 ebp
  00001	8b ec		 mov	 ebp, esp

; 79   : 	return ((_Ty&&)_Arg);

  00003	8b 45 08	 mov	 eax, DWORD PTR __Arg$[ebp]

; 80   : 	}

  00006	5d		 pop	 ebp
  00007	c3		 ret	 0
??$forward@UWoundedInfo@ioLeeSunSin@@@std@@YA$$QAUWoundedInfo@ioLeeSunSin@@AAU12@@Z ENDP ; std::forward<ioLeeSunSin::WoundedInfo>
_TEXT	ENDS
PUBLIC	??$_Construct@UForceInfo@@ABU1@@std@@YAXPAUForceInfo@@ABU1@@Z ; std::_Construct<ForceInfo,ForceInfo const &>
; Function compile flags: /Ogsp
; File c:\program files (x86)\microsoft visual studio 10.0\vc\include\xmemory
;	COMDAT ??$_Construct@UForceInfo@@ABU1@@std@@YAXPAUForceInfo@@ABU1@@Z
_TEXT	SEGMENT
__Ptr$ = 8						; size = 4
__Val$ = 12						; size = 4
??$_Construct@UForceInfo@@ABU1@@std@@YAXPAUForceInfo@@ABU1@@Z PROC ; std::_Construct<ForceInfo,ForceInfo const &>, COMDAT

; 46   : 	{	// construct object at _Ptr with value _Val

  00000	55		 push	 ebp
  00001	8b ec		 mov	 ebp, esp
  00003	57		 push	 edi

; 47   : 	void _FARQ *_Vptr = _Ptr;
; 48   : 	::new (_Vptr) _Ty1(_STD forward<_Ty2>(_Val));

  00004	8b 7d 08	 mov	 edi, DWORD PTR __Ptr$[ebp]
  00007	85 ff		 test	 edi, edi
  00009	74 08		 je	 SHORT $LN3@Construct
  0000b	56		 push	 esi
  0000c	8b 75 0c	 mov	 esi, DWORD PTR __Val$[ebp]
  0000f	a5		 movsd
  00010	a5		 movsd
  00011	a5		 movsd
  00012	5e		 pop	 esi
$LN3@Construct:
  00013	5f		 pop	 edi

; 49   : 	}

  00014	5d		 pop	 ebp
  00015	c3		 ret	 0
??$_Construct@UForceInfo@@ABU1@@std@@YAXPAUForceInfo@@ABU1@@Z ENDP ; std::_Construct<ForceInfo,ForceInfo const &>
_TEXT	ENDS
PUBLIC	?_DECSTR@@YAXPADH@Z				; _DECSTR
; Function compile flags: /Ogsp
; File d:\lost saga for developer\youtube\tutorial\source\src\lsclient\stringprotect.h
;	COMDAT ?_DECSTR@@YAXPADH@Z
_TEXT	SEGMENT
_s$ = 8							; size = 4
_l$ = 12						; size = 4
?_DECSTR@@YAXPADH@Z PROC				; _DECSTR, COMDAT

; 40   : __forceinline void _DECSTR(char* s, int l){int i=0,l4=(l-1)/4,*p=(int*)s;s[l-1]=0;for(;i<l4;++i)*(p++)^=0xEAEBECED;for(i=l4*4;i<l-1;++i)s[i]^=0xED-i%4;}

  00000	55		 push	 ebp
  00001	8b ec		 mov	 ebp, esp
  00003	8b 4d 0c	 mov	 ecx, DWORD PTR _l$[ebp]
  00006	56		 push	 esi
  00007	8b 75 08	 mov	 esi, DWORD PTR _s$[ebp]
  0000a	57		 push	 edi
  0000b	8d 79 ff	 lea	 edi, DWORD PTR [ecx-1]
  0000e	8b c7		 mov	 eax, edi
  00010	99		 cdq
  00011	83 e2 03	 and	 edx, 3
  00014	03 c2		 add	 eax, edx
  00016	c1 f8 02	 sar	 eax, 2
  00019	8b d6		 mov	 edx, esi
  0001b	c6 44 0e ff 00	 mov	 BYTE PTR [esi+ecx-1], 0
  00020	85 c0		 test	 eax, eax
  00022	7e 0e		 jle	 SHORT $LN4@DECSTR
  00024	8b c8		 mov	 ecx, eax
$LL6@DECSTR:
  00026	81 32 ed ec eb
	ea		 xor	 DWORD PTR [edx], -353637139 ; eaebecedH
  0002c	83 c2 04	 add	 edx, 4
  0002f	49		 dec	 ecx
  00030	75 f4		 jne	 SHORT $LL6@DECSTR
$LN4@DECSTR:
  00032	c1 e0 02	 shl	 eax, 2
  00035	eb 17		 jmp	 SHORT $LN14@DECSTR
$LL3@DECSTR:
  00037	8b c8		 mov	 ecx, eax
  00039	81 e1 03 00 00
	80		 and	 ecx, -2147483645	; 80000003H
  0003f	79 05		 jns	 SHORT $LN13@DECSTR
  00041	49		 dec	 ecx
  00042	83 c9 fc	 or	 ecx, -4			; fffffffcH
  00045	41		 inc	 ecx
$LN13@DECSTR:
  00046	b2 ed		 mov	 dl, -19			; ffffffedH
  00048	2a d1		 sub	 dl, cl
  0004a	30 14 30	 xor	 BYTE PTR [eax+esi], dl
  0004d	40		 inc	 eax
$LN14@DECSTR:
  0004e	3b c7		 cmp	 eax, edi
  00050	7c e5		 jl	 SHORT $LL3@DECSTR
  00052	5f		 pop	 edi
  00053	5e		 pop	 esi
  00054	5d		 pop	 ebp
  00055	c3		 ret	 0
?_DECSTR@@YAXPADH@Z ENDP				; _DECSTR
_TEXT	ENDS
PUBLIC	?GetGroup@ioGameEntity@@QBEPAVioEntityGroup@@XZ	; ioGameEntity::GetGroup
; Function compile flags: /Ogsp
; File d:\lost saga for developer\youtube\tutorial\source\src\lsclient\iogameentity.h
;	COMDAT ?GetGroup@ioGameEntity@@QBEPAVioEntityGroup@@XZ
_TEXT	SEGMENT
?GetGroup@ioGameEntity@@QBEPAVioEntityGroup@@XZ PROC	; ioGameEntity::GetGroup, COMDAT
; _this$ = ecx

; 166  : 	inline ioEntityGroup* GetGroup() const { return m_pGroup; }

  00000	8b 41 04	 mov	 eax, DWORD PTR [ecx+4]
  00003	c3		 ret	 0
?GetGroup@ioGameEntity@@QBEPAVioEntityGroup@@XZ ENDP	; ioGameEntity::GetGroup
_TEXT	ENDS
PUBLIC	??1WeaponInfo@@QAE@XZ				; WeaponInfo::~WeaponInfo
; Function compile flags: /Ogsp
;	COMDAT ??1WeaponInfo@@QAE@XZ
_TEXT	SEGMENT
??1WeaponInfo@@QAE@XZ PROC				; WeaponInfo::~WeaponInfo, COMDAT
; _this$ = ecx
  00000	83 c1 08	 add	 ecx, 8
  00003	ff 25 00 00 00
	00		 jmp	 DWORD PTR __imp_??1ioHashString@@QAE@XZ
??1WeaponInfo@@QAE@XZ ENDP				; WeaponInfo::~WeaponInfo
_TEXT	ENDS
PUBLIC	?GetName@ioItem@@QBEABVioHashString@@XZ		; ioItem::GetName
; Function compile flags: /Ogsp
; File d:\lost saga for developer\youtube\tutorial\source\src\lsclient\ioitem.h
;	COMDAT ?GetName@ioItem@@QBEABVioHashString@@XZ
_TEXT	SEGMENT
?GetName@ioItem@@QBEABVioHashString@@XZ PROC		; ioItem::GetName, COMDAT
; _this$ = ecx

; 269  : 	inline const ioHashString& GetName() const { return m_Name; }

  00000	8d 81 34 01 00
	00		 lea	 eax, DWORD PTR [ecx+308]
  00006	c3		 ret	 0
?GetName@ioItem@@QBEABVioHashString@@XZ ENDP		; ioItem::GetName
_TEXT	ENDS
PUBLIC	?size@?$vector@VioHashString@@V?$allocator@VioHashString@@@std@@@std@@QBEIXZ ; std::vector<ioHashString,std::allocator<ioHashString> >::size
; Function compile flags: /Ogsp
; File c:\program files (x86)\microsoft visual studio 10.0\vc\include\vector
;	COMDAT ?size@?$vector@VioHashString@@V?$allocator@VioHashString@@@std@@@std@@QBEIXZ
_TEXT	SEGMENT
?size@?$vector@VioHashString@@V?$allocator@VioHashString@@@std@@@std@@QBEIXZ PROC ; std::vector<ioHashString,std::allocator<ioHashString> >::size, COMDAT
; _this$ = ecx

; 879  : 		return (this->_Mylast - this->_Myfirst);

  00000	8b 41 04	 mov	 eax, DWORD PTR [ecx+4]
  00003	2b 01		 sub	 eax, DWORD PTR [ecx]
  00005	c1 f8 04	 sar	 eax, 4

; 880  : 		}

  00008	c3		 ret	 0
?size@?$vector@VioHashString@@V?$allocator@VioHashString@@@std@@@std@@QBEIXZ ENDP ; std::vector<ioHashString,std::allocator<ioHashString> >::size
_TEXT	ENDS
PUBLIC	??_7?$CEncrypt@M@@6B@				; CEncrypt<float>::`vftable'
PUBLIC	??1?$CEncrypt@M@@UAE@XZ				; CEncrypt<float>::~CEncrypt<float>
PUBLIC	??_R4?$CEncrypt@M@@6B@				; CEncrypt<float>::`RTTI Complete Object Locator'
PUBLIC	??_R0?AV?$CEncrypt@M@@@8			; CEncrypt<float> `RTTI Type Descriptor'
PUBLIC	??_R3?$CEncrypt@M@@8				; CEncrypt<float>::`RTTI Class Hierarchy Descriptor'
PUBLIC	??_R2?$CEncrypt@M@@8				; CEncrypt<float>::`RTTI Base Class Array'
PUBLIC	??_R1A@?0A@EA@?$CEncrypt@M@@8			; CEncrypt<float>::`RTTI Base Class Descriptor at (0,-1,0,64)'
EXTRN	??1ccddaabb@@UAE@XZ:PROC			; ccddaabb::~ccddaabb
EXTRN	??_E?$CEncrypt@M@@UAEPAXI@Z:PROC		; CEncrypt<float>::`vector deleting destructor'
;	COMDAT ??_R1A@?0A@EA@?$CEncrypt@M@@8
; File d:\lost saga for developer\youtube\tutorial\source\src\lsclient\encryptvalue.h
rdata$r	SEGMENT
??_R1A@?0A@EA@?$CEncrypt@M@@8 DD FLAT:??_R0?AV?$CEncrypt@M@@@8 ; CEncrypt<float>::`RTTI Base Class Descriptor at (0,-1,0,64)'
	DD	00H
	DD	00H
	DD	0ffffffffH
	DD	00H
	DD	040H
	DD	FLAT:??_R3?$CEncrypt@M@@8
rdata$r	ENDS
;	COMDAT ??_R2?$CEncrypt@M@@8
rdata$r	SEGMENT
??_R2?$CEncrypt@M@@8 DD FLAT:??_R1A@?0A@EA@?$CEncrypt@M@@8 ; CEncrypt<float>::`RTTI Base Class Array'
rdata$r	ENDS
;	COMDAT ??_R3?$CEncrypt@M@@8
rdata$r	SEGMENT
??_R3?$CEncrypt@M@@8 DD 00H				; CEncrypt<float>::`RTTI Class Hierarchy Descriptor'
	DD	00H
	DD	01H
	DD	FLAT:??_R2?$CEncrypt@M@@8
rdata$r	ENDS
;	COMDAT ??_R0?AV?$CEncrypt@M@@@8
_DATA	SEGMENT
??_R0?AV?$CEncrypt@M@@@8 DD FLAT:??_7type_info@@6B@	; CEncrypt<float> `RTTI Type Descriptor'
	DD	00H
	DB	'.?AV?$CEncrypt@M@@', 00H
_DATA	ENDS
;	COMDAT ??_R4?$CEncrypt@M@@6B@
rdata$r	SEGMENT
??_R4?$CEncrypt@M@@6B@ DD 00H				; CEncrypt<float>::`RTTI Complete Object Locator'
	DD	00H
	DD	00H
	DD	FLAT:??_R0?AV?$CEncrypt@M@@@8
	DD	FLAT:??_R3?$CEncrypt@M@@8
rdata$r	ENDS
;	COMDAT ??_7?$CEncrypt@M@@6B@
CONST	SEGMENT
??_7?$CEncrypt@M@@6B@ DD FLAT:??_R4?$CEncrypt@M@@6B@	; CEncrypt<float>::`vftable'
	DD	FLAT:??_E?$CEncrypt@M@@UAEPAXI@Z
; Function compile flags: /Ogsp
CONST	ENDS
;	COMDAT ??1?$CEncrypt@M@@UAE@XZ
_TEXT	SEGMENT
??1?$CEncrypt@M@@UAE@XZ PROC				; CEncrypt<float>::~CEncrypt<float>, COMDAT
; _this$ = ecx

; 127  : 	{

  00000	c7 01 00 00 00
	00		 mov	 DWORD PTR [ecx], OFFSET ??_7?$CEncrypt@M@@6B@

; 128  : 	}

  00006	83 c1 0c	 add	 ecx, 12			; 0000000cH
  00009	e9 00 00 00 00	 jmp	 ??1ccddaabb@@UAE@XZ	; ccddaabb::~ccddaabb
??1?$CEncrypt@M@@UAE@XZ ENDP				; CEncrypt<float>::~CEncrypt<float>
; Function compile flags: /Ogsp
_TEXT	ENDS
;	COMDAT ??_G?$CEncrypt@M@@UAEPAXI@Z
_TEXT	SEGMENT
___flags$ = 8						; size = 4
??_G?$CEncrypt@M@@UAEPAXI@Z PROC			; CEncrypt<float>::`scalar deleting destructor', COMDAT
; _this$ = ecx
  00000	55		 push	 ebp
  00001	8b ec		 mov	 ebp, esp
  00003	56		 push	 esi
  00004	8b f1		 mov	 esi, ecx
  00006	8d 4e 0c	 lea	 ecx, DWORD PTR [esi+12]
  00009	c7 06 00 00 00
	00		 mov	 DWORD PTR [esi], OFFSET ??_7?$CEncrypt@M@@6B@
  0000f	e8 00 00 00 00	 call	 ??1ccddaabb@@UAE@XZ	; ccddaabb::~ccddaabb
  00014	f6 45 08 01	 test	 BYTE PTR ___flags$[ebp], 1
  00018	74 07		 je	 SHORT $LN1@scalar@3
  0001a	56		 push	 esi
  0001b	e8 00 00 00 00	 call	 ??3@YAXPAX@Z		; operator delete
  00020	59		 pop	 ecx
$LN1@scalar@3:
  00021	8b c6		 mov	 eax, esi
  00023	5e		 pop	 esi
  00024	5d		 pop	 ebp
  00025	c2 04 00	 ret	 4
??_G?$CEncrypt@M@@UAEPAXI@Z ENDP			; CEncrypt<float>::`scalar deleting destructor'
_TEXT	ENDS
PUBLIC	??1?$_Vector_val@VioHashString@@V?$allocator@VioHashString@@@std@@@std@@QAE@XZ ; std::_Vector_val<ioHashString,std::allocator<ioHashString> >::~_Vector_val<ioHashString,std::allocator<ioHashString> >
; Function compile flags: /Ogsp
; File c:\program files (x86)\microsoft visual studio 10.0\vc\include\vector
;	COMDAT ??1?$_Vector_val@VioHashString@@V?$allocator@VioHashString@@@std@@@std@@QAE@XZ
_TEXT	SEGMENT
??1?$_Vector_val@VioHashString@@V?$allocator@VioHashString@@@std@@@std@@QAE@XZ PROC ; std::_Vector_val<ioHashString,std::allocator<ioHashString> >::~_Vector_val<ioHashString,std::allocator<ioHashString> >, COMDAT
; _this$ = ecx

; 434  : 		}

  00000	c3		 ret	 0
??1?$_Vector_val@VioHashString@@V?$allocator@VioHashString@@@std@@@std@@QAE@XZ ENDP ; std::_Vector_val<ioHashString,std::allocator<ioHashString> >::~_Vector_val<ioHashString,std::allocator<ioHashString> >
_TEXT	ENDS
PUBLIC	??0?$allocator@VioHashString@@@std@@QAE@XZ	; std::allocator<ioHashString>::allocator<ioHashString>
; Function compile flags: /Ogsp
; File c:\program files (x86)\microsoft visual studio 10.0\vc\include\xmemory
;	COMDAT ??0?$allocator@VioHashString@@@std@@QAE@XZ
_TEXT	SEGMENT
??0?$allocator@VioHashString@@@std@@QAE@XZ PROC		; std::allocator<ioHashString>::allocator<ioHashString>, COMDAT
; _this$ = ecx

; 161  : 	_ALLOCATOR() _THROW0()

  00000	8b c1		 mov	 eax, ecx

; 162  : 		{	// construct default allocator (do nothing)
; 163  : 		}

  00002	c3		 ret	 0
??0?$allocator@VioHashString@@@std@@QAE@XZ ENDP		; std::allocator<ioHashString>::allocator<ioHashString>
_TEXT	ENDS
PUBLIC	??0?$allocator@VioHashString@@@std@@QAE@ABV01@@Z ; std::allocator<ioHashString>::allocator<ioHashString>
; Function compile flags: /Ogsp
;	COMDAT ??0?$allocator@VioHashString@@@std@@QAE@ABV01@@Z
_TEXT	SEGMENT
___formal$ = 8						; size = 4
??0?$allocator@VioHashString@@@std@@QAE@ABV01@@Z PROC	; std::allocator<ioHashString>::allocator<ioHashString>, COMDAT
; _this$ = ecx

; 165  : 	_ALLOCATOR(const _ALLOCATOR<_Ty>&) _THROW0()

  00000	8b c1		 mov	 eax, ecx

; 166  : 		{	// construct by copying (do nothing)
; 167  : 		}

  00002	c2 04 00	 ret	 4
??0?$allocator@VioHashString@@@std@@QAE@ABV01@@Z ENDP	; std::allocator<ioHashString>::allocator<ioHashString>
_TEXT	ENDS
PUBLIC	??1?$_Vector_val@UWeaponInfo@@V?$allocator@UWeaponInfo@@@std@@@std@@QAE@XZ ; std::_Vector_val<WeaponInfo,std::allocator<WeaponInfo> >::~_Vector_val<WeaponInfo,std::allocator<WeaponInfo> >
; Function compile flags: /Ogsp
; File c:\program files (x86)\microsoft visual studio 10.0\vc\include\vector
;	COMDAT ??1?$_Vector_val@UWeaponInfo@@V?$allocator@UWeaponInfo@@@std@@@std@@QAE@XZ
_TEXT	SEGMENT
??1?$_Vector_val@UWeaponInfo@@V?$allocator@UWeaponInfo@@@std@@@std@@QAE@XZ PROC ; std::_Vector_val<WeaponInfo,std::allocator<WeaponInfo> >::~_Vector_val<WeaponInfo,std::allocator<WeaponInfo> >, COMDAT
; _this$ = ecx

; 434  : 		}

  00000	c3		 ret	 0
??1?$_Vector_val@UWeaponInfo@@V?$allocator@UWeaponInfo@@@std@@@std@@QAE@XZ ENDP ; std::_Vector_val<WeaponInfo,std::allocator<WeaponInfo> >::~_Vector_val<WeaponInfo,std::allocator<WeaponInfo> >
_TEXT	ENDS
PUBLIC	??0?$allocator@UWeaponInfo@@@std@@QAE@XZ	; std::allocator<WeaponInfo>::allocator<WeaponInfo>
; Function compile flags: /Ogsp
; File c:\program files (x86)\microsoft visual studio 10.0\vc\include\xmemory
;	COMDAT ??0?$allocator@UWeaponInfo@@@std@@QAE@XZ
_TEXT	SEGMENT
??0?$allocator@UWeaponInfo@@@std@@QAE@XZ PROC		; std::allocator<WeaponInfo>::allocator<WeaponInfo>, COMDAT
; _this$ = ecx

; 161  : 	_ALLOCATOR() _THROW0()

  00000	8b c1		 mov	 eax, ecx

; 162  : 		{	// construct default allocator (do nothing)
; 163  : 		}

  00002	c3		 ret	 0
??0?$allocator@UWeaponInfo@@@std@@QAE@XZ ENDP		; std::allocator<WeaponInfo>::allocator<WeaponInfo>
_TEXT	ENDS
PUBLIC	??1?$_Vector_val@UForceInfo@@V?$allocator@UForceInfo@@@std@@@std@@QAE@XZ ; std::_Vector_val<ForceInfo,std::allocator<ForceInfo> >::~_Vector_val<ForceInfo,std::allocator<ForceInfo> >
; Function compile flags: /Ogsp
; File c:\program files (x86)\microsoft visual studio 10.0\vc\include\vector
;	COMDAT ??1?$_Vector_val@UForceInfo@@V?$allocator@UForceInfo@@@std@@@std@@QAE@XZ
_TEXT	SEGMENT
??1?$_Vector_val@UForceInfo@@V?$allocator@UForceInfo@@@std@@@std@@QAE@XZ PROC ; std::_Vector_val<ForceInfo,std::allocator<ForceInfo> >::~_Vector_val<ForceInfo,std::allocator<ForceInfo> >, COMDAT
; _this$ = ecx

; 434  : 		}

  00000	c3		 ret	 0
??1?$_Vector_val@UForceInfo@@V?$allocator@UForceInfo@@@std@@@std@@QAE@XZ ENDP ; std::_Vector_val<ForceInfo,std::allocator<ForceInfo> >::~_Vector_val<ForceInfo,std::allocator<ForceInfo> >
_TEXT	ENDS
PUBLIC	??0?$allocator@UForceInfo@@@std@@QAE@XZ		; std::allocator<ForceInfo>::allocator<ForceInfo>
; Function compile flags: /Ogsp
; File c:\program files (x86)\microsoft visual studio 10.0\vc\include\xmemory
;	COMDAT ??0?$allocator@UForceInfo@@@std@@QAE@XZ
_TEXT	SEGMENT
??0?$allocator@UForceInfo@@@std@@QAE@XZ PROC		; std::allocator<ForceInfo>::allocator<ForceInfo>, COMDAT
; _this$ = ecx

; 161  : 	_ALLOCATOR() _THROW0()

  00000	8b c1		 mov	 eax, ecx

; 162  : 		{	// construct default allocator (do nothing)
; 163  : 		}

  00002	c3		 ret	 0
??0?$allocator@UForceInfo@@@std@@QAE@XZ ENDP		; std::allocator<ForceInfo>::allocator<ForceInfo>
_TEXT	ENDS
PUBLIC	?EncryptValueToPool@?$CEncrypt@M@@AAEXPBD@Z	; CEncrypt<float>::EncryptValueToPool
EXTRN	?EncryptByte@ccddaabb@@QAEXPBDPADH@Z:PROC	; ccddaabb::EncryptByte
; Function compile flags: /Ogsp
; File d:\lost saga for developer\youtube\tutorial\source\src\lsclient\encryptvalue.h
;	COMDAT ?EncryptValueToPool@?$CEncrypt@M@@AAEXPBD@Z
_TEXT	SEGMENT
_value$ = 8						; size = 4
?EncryptValueToPool@?$CEncrypt@M@@AAEXPBD@Z PROC	; CEncrypt<float>::EncryptValueToPool, COMDAT
; _this$ = ecx

; 67   : 	{

  00000	55		 push	 ebp
  00001	8b ec		 mov	 ebp, esp

; 68   : 		m_RC5.EncryptByte( value, m_MemPool, max(m_ValueSize, DEFAULT_ENCRYPT) );

  00003	0f b7 41 06	 movzx	 eax, WORD PTR [ecx+6]
  00007	83 f8 04	 cmp	 eax, 4
  0000a	77 03		 ja	 SHORT $LN4@EncryptVal
  0000c	6a 04		 push	 4
  0000e	58		 pop	 eax
$LN4@EncryptVal:
  0000f	50		 push	 eax
  00010	8d 41 1c	 lea	 eax, DWORD PTR [ecx+28]
  00013	50		 push	 eax
  00014	ff 75 08	 push	 DWORD PTR _value$[ebp]
  00017	83 c1 0c	 add	 ecx, 12			; 0000000cH
  0001a	e8 00 00 00 00	 call	 ?EncryptByte@ccddaabb@@QAEXPBDPADH@Z ; ccddaabb::EncryptByte

; 69   : 		
; 70   : 	}

  0001f	5d		 pop	 ebp
  00020	c2 04 00	 ret	 4
?EncryptValueToPool@?$CEncrypt@M@@AAEXPBD@Z ENDP	; CEncrypt<float>::EncryptValueToPool
_TEXT	ENDS
PUBLIC	?Init@?$CEncrypt@M@@AAEXXZ			; CEncrypt<float>::Init
EXTRN	?Setup@ccddaabb@@QAEXPBDHH@Z:PROC		; ccddaabb::Setup
EXTRN	__imp__rand:PROC
EXTRN	__imp__timeGetTime@0:PROC
EXTRN	__imp__GetCurrentProcessId@0:PROC
; Function compile flags: /Ogsp
;	COMDAT ?Init@?$CEncrypt@M@@AAEXXZ
_TEXT	SEGMENT
_pid$ = -8						; size = 4
_tick$ = -4						; size = 4
?Init@?$CEncrypt@M@@AAEXXZ PROC				; CEncrypt<float>::Init, COMDAT
; _this$ = ecx

; 73   : 	{

  00000	55		 push	 ebp
  00001	8b ec		 mov	 ebp, esp
  00003	51		 push	 ecx
  00004	51		 push	 ecx
  00005	53		 push	 ebx
  00006	56		 push	 esi
  00007	57		 push	 edi
  00008	8b f1		 mov	 esi, ecx

; 74   : 		DWORD pid = GetCurrentProcessId();

  0000a	ff 15 00 00 00
	00		 call	 DWORD PTR __imp__GetCurrentProcessId@0
  00010	89 45 f8	 mov	 DWORD PTR _pid$[ebp], eax

; 75   : 		DWORD tick = timeGetTime();

  00013	ff 15 00 00 00
	00		 call	 DWORD PTR __imp__timeGetTime@0

; 76   : 		m_ValueSize    = sizeof(type);
; 77   : 		m_MemPoolPos   = (unsigned short)( rand()+pid+tick )%(MAX_MEM_POOL-m_ValueSize);

  00019	8b 3d 00 00 00
	00		 mov	 edi, DWORD PTR __imp__rand
  0001f	89 45 fc	 mov	 DWORD PTR _tick$[ebp], eax
  00022	6a 04		 push	 4
  00024	58		 pop	 eax
  00025	66 89 46 06	 mov	 WORD PTR [esi+6], ax
  00029	ff d7		 call	 edi
  0002b	03 45 f8	 add	 eax, DWORD PTR _pid$[ebp]
  0002e	0f b7 4e 06	 movzx	 ecx, WORD PTR [esi+6]
  00032	03 45 fc	 add	 eax, DWORD PTR _tick$[ebp]
  00035	6a 0c		 push	 12			; 0000000cH
  00037	0f b7 c0	 movzx	 eax, ax
  0003a	5b		 pop	 ebx
  0003b	99		 cdq
  0003c	2b d9		 sub	 ebx, ecx
  0003e	f7 fb		 idiv	 ebx
  00040	66 89 56 04	 mov	 WORD PTR [esi+4], dx

; 78   : 		m_EncryptSeed  = (char)( rand()+pid+tick )%256;

  00044	ff d7		 call	 edi
  00046	02 45 f8	 add	 al, BYTE PTR _pid$[ebp]
  00049	02 45 fc	 add	 al, BYTE PTR _tick$[ebp]
  0004c	0f be c0	 movsx	 eax, al
  0004f	25 ff 00 00 80	 and	 eax, -2147483393	; 800000ffH
  00054	79 07		 jns	 SHORT $LN8@Init
  00056	48		 dec	 eax
  00057	0d 00 ff ff ff	 or	 eax, -256		; ffffff00H
  0005c	40		 inc	 eax
$LN8@Init:
  0005d	88 46 08	 mov	 BYTE PTR [esi+8], al

; 79   : 
; 80   : 		for (int i = 0; i < MAX_MEM_POOL ; i++)

  00060	33 db		 xor	 ebx, ebx
$LL3@Init:

; 81   : 			m_MemPool[i] = (char)( rand()+pid+tick )%256; // 

  00062	ff d7		 call	 edi
  00064	02 45 f8	 add	 al, BYTE PTR _pid$[ebp]
  00067	02 45 fc	 add	 al, BYTE PTR _tick$[ebp]
  0006a	0f be c0	 movsx	 eax, al
  0006d	25 ff 00 00 80	 and	 eax, -2147483393	; 800000ffH
  00072	79 07		 jns	 SHORT $LN9@Init
  00074	48		 dec	 eax
  00075	0d 00 ff ff ff	 or	 eax, -256		; ffffff00H
  0007a	40		 inc	 eax
$LN9@Init:
  0007b	88 44 1e 1c	 mov	 BYTE PTR [esi+ebx+28], al
  0007f	43		 inc	 ebx
  00080	83 fb 0c	 cmp	 ebx, 12			; 0000000cH
  00083	7c dd		 jl	 SHORT $LL3@Init

; 82   : 
; 83   : 		//UJ 130913, : szKey  
; 84   : 		//char szKey[ccddaabb::KEY_SIZE];//="";
; 85   : 		//for (int i = 0; i < ccddaabb::KEY_SIZE  ; i++)
; 86   : 		//	szKey[i] = (char)( rand()+pid+tick )%256; // 
; 87   : 		m_RC5.Setup( NULL, pid, tick );

  00085	ff 75 fc	 push	 DWORD PTR _tick$[ebp]
  00088	8d 4e 0c	 lea	 ecx, DWORD PTR [esi+12]
  0008b	ff 75 f8	 push	 DWORD PTR _pid$[ebp]
  0008e	6a 00		 push	 0
  00090	e8 00 00 00 00	 call	 ?Setup@ccddaabb@@QAEXPBDHH@Z ; ccddaabb::Setup
  00095	5f		 pop	 edi
  00096	5e		 pop	 esi
  00097	5b		 pop	 ebx

; 88   : 
; 89   : #ifdef _NOTUSE
; 90   : 		m_value        = 0;
; 91   : 		EncryptValueToPool((char*)&m_value);
; 92   : 		Debug();
; 93   : #endif
; 94   : 	}

  00098	c9		 leave
  00099	c3		 ret	 0
?Init@?$CEncrypt@M@@AAEXXZ ENDP				; CEncrypt<float>::Init
_TEXT	ENDS
PUBLIC	?DecryptValueToPool@?$CEncrypt@M@@QAEXPAM@Z	; CEncrypt<float>::DecryptValueToPool
; Function compile flags: /Ogsp
;	COMDAT ?DecryptValueToPool@?$CEncrypt@M@@QAEXPAM@Z
_TEXT	SEGMENT
_value$ = 8						; size = 4
?DecryptValueToPool@?$CEncrypt@M@@QAEXPAM@Z PROC	; CEncrypt<float>::DecryptValueToPool, COMDAT
; _this$ = ecx

; 1648 : 	{

  00000	55		 push	 ebp
  00001	8b ec		 mov	 ebp, esp
  00003	56		 push	 esi

; 1649 : 		m_RC5.DecryptByte( m_MemPool, m_TempMem, 4 );

  00004	8d 71 28	 lea	 esi, DWORD PTR [ecx+40]
  00007	6a 04		 push	 4
  00009	8d 41 1c	 lea	 eax, DWORD PTR [ecx+28]
  0000c	56		 push	 esi
  0000d	50		 push	 eax
  0000e	83 c1 0c	 add	 ecx, 12			; 0000000cH
  00011	e8 00 00 00 00	 call	 ?DecryptByte@ccddaabb@@QBEXPBDPADH@Z ; ccddaabb::DecryptByte

; 1650 : 		*value = *((float*)m_TempMem);

  00016	d9 06		 fld	 DWORD PTR [esi]
  00018	8b 45 08	 mov	 eax, DWORD PTR _value$[ebp]
  0001b	d9 18		 fstp	 DWORD PTR [eax]
  0001d	5e		 pop	 esi

; 1651 : 	}

  0001e	5d		 pop	 ebp
  0001f	c2 04 00	 ret	 4
?DecryptValueToPool@?$CEncrypt@M@@QAEXPAM@Z ENDP	; CEncrypt<float>::DecryptValueToPool
_TEXT	ENDS
PUBLIC	?DecryptValueToPool@?$CEncrypt@K@@QAEXPAK@Z	; CEncrypt<unsigned long>::DecryptValueToPool
; Function compile flags: /Ogsp
;	COMDAT ?DecryptValueToPool@?$CEncrypt@K@@QAEXPAK@Z
_TEXT	SEGMENT
_value$ = 8						; size = 4
?DecryptValueToPool@?$CEncrypt@K@@QAEXPAK@Z PROC	; CEncrypt<unsigned long>::DecryptValueToPool, COMDAT
; _this$ = ecx

; 1256 : 	{

  00000	55		 push	 ebp
  00001	8b ec		 mov	 ebp, esp
  00003	56		 push	 esi

; 1257 : 		m_RC5.DecryptByte( m_MemPool, m_TempMem, 4 );

  00004	8d 71 28	 lea	 esi, DWORD PTR [ecx+40]
  00007	6a 04		 push	 4
  00009	8d 41 1c	 lea	 eax, DWORD PTR [ecx+28]
  0000c	56		 push	 esi
  0000d	50		 push	 eax
  0000e	83 c1 0c	 add	 ecx, 12			; 0000000cH
  00011	e8 00 00 00 00	 call	 ?DecryptByte@ccddaabb@@QBEXPBDPADH@Z ; ccddaabb::DecryptByte

; 1258 : 		*value = *((DWORD*)m_TempMem);

  00016	8b 06		 mov	 eax, DWORD PTR [esi]
  00018	8b 4d 08	 mov	 ecx, DWORD PTR _value$[ebp]
  0001b	89 01		 mov	 DWORD PTR [ecx], eax
  0001d	5e		 pop	 esi

; 1259 : 	}

  0001e	5d		 pop	 ebp
  0001f	c2 04 00	 ret	 4
?DecryptValueToPool@?$CEncrypt@K@@QAEXPAK@Z ENDP	; CEncrypt<unsigned long>::DecryptValueToPool
_TEXT	ENDS
PUBLIC	?DecryptValueToPool@?$CEncrypt@_N@@QAEXPA_N@Z	; CEncrypt<bool>::DecryptValueToPool
; Function compile flags: /Ogsp
;	COMDAT ?DecryptValueToPool@?$CEncrypt@_N@@QAEXPA_N@Z
_TEXT	SEGMENT
_value$ = 8						; size = 4
?DecryptValueToPool@?$CEncrypt@_N@@QAEXPA_N@Z PROC	; CEncrypt<bool>::DecryptValueToPool, COMDAT
; _this$ = ecx

; 219  : 	{

  00000	55		 push	 ebp
  00001	8b ec		 mov	 ebp, esp
  00003	56		 push	 esi

; 220  : 		m_RC5.DecryptByte( m_MemPool, m_TempMem, 4 );

  00004	8d 71 28	 lea	 esi, DWORD PTR [ecx+40]
  00007	6a 04		 push	 4
  00009	8d 41 1c	 lea	 eax, DWORD PTR [ecx+28]
  0000c	56		 push	 esi
  0000d	50		 push	 eax
  0000e	83 c1 0c	 add	 ecx, 12			; 0000000cH
  00011	e8 00 00 00 00	 call	 ?DecryptByte@ccddaabb@@QBEXPBDPADH@Z ; ccddaabb::DecryptByte

; 221  : 		*value = *((bool*)m_TempMem);

  00016	8a 06		 mov	 al, BYTE PTR [esi]
  00018	8b 4d 08	 mov	 ecx, DWORD PTR _value$[ebp]
  0001b	88 01		 mov	 BYTE PTR [ecx], al
  0001d	5e		 pop	 esi

; 222  : 	}

  0001e	5d		 pop	 ebp
  0001f	c2 04 00	 ret	 4
?DecryptValueToPool@?$CEncrypt@_N@@QAEXPA_N@Z ENDP	; CEncrypt<bool>::DecryptValueToPool
_TEXT	ENDS
PUBLIC	?_Xlen@?$vector@VioHashString@@V?$allocator@VioHashString@@@std@@@std@@IBEXXZ ; std::vector<ioHashString,std::allocator<ioHashString> >::_Xlen
; Function compile flags: /Ogsp
; File c:\program files (x86)\microsoft visual studio 10.0\vc\include\vector
;	COMDAT ?_Xlen@?$vector@VioHashString@@V?$allocator@VioHashString@@@std@@@std@@IBEXXZ
_TEXT	SEGMENT
?_Xlen@?$vector@VioHashString@@V?$allocator@VioHashString@@@std@@@std@@IBEXXZ PROC ; std::vector<ioHashString,std::allocator<ioHashString> >::_Xlen, COMDAT
; _this$ = ecx

; 1427 : 		_Xlength_error("vector<T> too long");

  00000	68 00 00 00 00	 push	 OFFSET ??_C@_0BD@OLBABOEK@vector?$DMT?$DO?5too?5long?$AA@
  00005	ff 15 00 00 00
	00		 call	 DWORD PTR __imp_?_Xlength_error@std@@YAXPBD@Z
$LN4@Xlen@2:
$LN3@Xlen@2:
  0000b	cc		 int	 3
?_Xlen@?$vector@VioHashString@@V?$allocator@VioHashString@@@std@@@std@@IBEXXZ ENDP ; std::vector<ioHashString,std::allocator<ioHashString> >::_Xlen
_TEXT	ENDS
PUBLIC	?deallocate@?$allocator@VioHashString@@@std@@QAEXPAVioHashString@@I@Z ; std::allocator<ioHashString>::deallocate
; Function compile flags: /Ogsp
; File c:\program files (x86)\microsoft visual studio 10.0\vc\include\xmemory
;	COMDAT ?deallocate@?$allocator@VioHashString@@@std@@QAEXPAVioHashString@@I@Z
_TEXT	SEGMENT
__Ptr$ = 8						; size = 4
___formal$ = 12						; size = 4
?deallocate@?$allocator@VioHashString@@@std@@QAEXPAVioHashString@@I@Z PROC ; std::allocator<ioHashString>::deallocate, COMDAT
; _this$ = ecx

; 181  : 		{	// deallocate object at _Ptr, ignore size

  00000	55		 push	 ebp
  00001	8b ec		 mov	 ebp, esp

; 182  : 		::operator delete(_Ptr);

  00003	ff 75 08	 push	 DWORD PTR __Ptr$[ebp]
  00006	e8 00 00 00 00	 call	 ??3@YAXPAX@Z		; operator delete
  0000b	59		 pop	 ecx

; 183  : 		}

  0000c	5d		 pop	 ebp
  0000d	c2 08 00	 ret	 8
?deallocate@?$allocator@VioHashString@@@std@@QAEXPAVioHashString@@I@Z ENDP ; std::allocator<ioHashString>::deallocate
_TEXT	ENDS
PUBLIC	??0?$allocator@UWeaponInfo@@@std@@QAE@ABV01@@Z	; std::allocator<WeaponInfo>::allocator<WeaponInfo>
; Function compile flags: /Ogsp
;	COMDAT ??0?$allocator@UWeaponInfo@@@std@@QAE@ABV01@@Z
_TEXT	SEGMENT
___formal$ = 8						; size = 4
??0?$allocator@UWeaponInfo@@@std@@QAE@ABV01@@Z PROC	; std::allocator<WeaponInfo>::allocator<WeaponInfo>, COMDAT
; _this$ = ecx

; 165  : 	_ALLOCATOR(const _ALLOCATOR<_Ty>&) _THROW0()

  00000	8b c1		 mov	 eax, ecx

; 166  : 		{	// construct by copying (do nothing)
; 167  : 		}

  00002	c2 04 00	 ret	 4
??0?$allocator@UWeaponInfo@@@std@@QAE@ABV01@@Z ENDP	; std::allocator<WeaponInfo>::allocator<WeaponInfo>
_TEXT	ENDS
PUBLIC	?deallocate@?$allocator@UWeaponInfo@@@std@@QAEXPAUWeaponInfo@@I@Z ; std::allocator<WeaponInfo>::deallocate
; Function compile flags: /Ogsp
;	COMDAT ?deallocate@?$allocator@UWeaponInfo@@@std@@QAEXPAUWeaponInfo@@I@Z
_TEXT	SEGMENT
__Ptr$ = 8						; size = 4
___formal$ = 12						; size = 4
?deallocate@?$allocator@UWeaponInfo@@@std@@QAEXPAUWeaponInfo@@I@Z PROC ; std::allocator<WeaponInfo>::deallocate, COMDAT
; _this$ = ecx

; 181  : 		{	// deallocate object at _Ptr, ignore size

  00000	55		 push	 ebp
  00001	8b ec		 mov	 ebp, esp

; 182  : 		::operator delete(_Ptr);

  00003	ff 75 08	 push	 DWORD PTR __Ptr$[ebp]
  00006	e8 00 00 00 00	 call	 ??3@YAXPAX@Z		; operator delete
  0000b	59		 pop	 ecx

; 183  : 		}

  0000c	5d		 pop	 ebp
  0000d	c2 08 00	 ret	 8
?deallocate@?$allocator@UWeaponInfo@@@std@@QAEXPAUWeaponInfo@@I@Z ENDP ; std::allocator<WeaponInfo>::deallocate
_TEXT	ENDS
PUBLIC	??0?$allocator@UForceInfo@@@std@@QAE@ABV01@@Z	; std::allocator<ForceInfo>::allocator<ForceInfo>
; Function compile flags: /Ogsp
;	COMDAT ??0?$allocator@UForceInfo@@@std@@QAE@ABV01@@Z
_TEXT	SEGMENT
___formal$ = 8						; size = 4
??0?$allocator@UForceInfo@@@std@@QAE@ABV01@@Z PROC	; std::allocator<ForceInfo>::allocator<ForceInfo>, COMDAT
; _this$ = ecx

; 165  : 	_ALLOCATOR(const _ALLOCATOR<_Ty>&) _THROW0()

  00000	8b c1		 mov	 eax, ecx

; 166  : 		{	// construct by copying (do nothing)
; 167  : 		}

  00002	c2 04 00	 ret	 4
??0?$allocator@UForceInfo@@@std@@QAE@ABV01@@Z ENDP	; std::allocator<ForceInfo>::allocator<ForceInfo>
_TEXT	ENDS
PUBLIC	?deallocate@?$allocator@UForceInfo@@@std@@QAEXPAUForceInfo@@I@Z ; std::allocator<ForceInfo>::deallocate
; Function compile flags: /Ogsp
;	COMDAT ?deallocate@?$allocator@UForceInfo@@@std@@QAEXPAUForceInfo@@I@Z
_TEXT	SEGMENT
__Ptr$ = 8						; size = 4
___formal$ = 12						; size = 4
?deallocate@?$allocator@UForceInfo@@@std@@QAEXPAUForceInfo@@I@Z PROC ; std::allocator<ForceInfo>::deallocate, COMDAT
; _this$ = ecx

; 181  : 		{	// deallocate object at _Ptr, ignore size

  00000	55		 push	 ebp
  00001	8b ec		 mov	 ebp, esp

; 182  : 		::operator delete(_Ptr);

  00003	ff 75 08	 push	 DWORD PTR __Ptr$[ebp]
  00006	e8 00 00 00 00	 call	 ??3@YAXPAX@Z		; operator delete
  0000b	59		 pop	 ecx

; 183  : 		}

  0000c	5d		 pop	 ebp
  0000d	c2 08 00	 ret	 8
?deallocate@?$allocator@UForceInfo@@@std@@QAEXPAUForceInfo@@I@Z ENDP ; std::allocator<ForceInfo>::deallocate
_TEXT	ENDS
PUBLIC	??0?$_Vector_const_iterator@V?$_Vector_val@VioHashString@@V?$allocator@VioHashString@@@std@@@std@@@std@@QAE@PAVioHashString@@PBU_Container_base0@1@@Z ; std::_Vector_const_iterator<std::_Vector_val<ioHashString,std::allocator<ioHashString> > >::_Vector_const_iterator<std::_Vector_val<ioHashString,std::allocator<ioHashString> > >
; Function compile flags: /Ogsp
; File c:\program files (x86)\microsoft visual studio 10.0\vc\include\vector
;	COMDAT ??0?$_Vector_const_iterator@V?$_Vector_val@VioHashString@@V?$allocator@VioHashString@@@std@@@std@@@std@@QAE@PAVioHashString@@PBU_Container_base0@1@@Z
_TEXT	SEGMENT
__Parg$ = 8						; size = 4
__Pvector$ = 12						; size = 4
??0?$_Vector_const_iterator@V?$_Vector_val@VioHashString@@V?$allocator@VioHashString@@@std@@@std@@@std@@QAE@PAVioHashString@@PBU_Container_base0@1@@Z PROC ; std::_Vector_const_iterator<std::_Vector_val<ioHashString,std::allocator<ioHashString> > >::_Vector_const_iterator<std::_Vector_val<ioHashString,std::allocator<ioHashString> > >, COMDAT
; _this$ = ecx

; 45   : 		{	// construct with pointer _Parg

  00000	55		 push	 ebp
  00001	8b ec		 mov	 ebp, esp
  00003	8b c1		 mov	 eax, ecx
  00005	8b 4d 08	 mov	 ecx, DWORD PTR __Parg$[ebp]
  00008	89 08		 mov	 DWORD PTR [eax], ecx

; 46   : 		this->_Adopt(_Pvector);
; 47   : 		}

  0000a	5d		 pop	 ebp
  0000b	c2 08 00	 ret	 8
??0?$_Vector_const_iterator@V?$_Vector_val@VioHashString@@V?$allocator@VioHashString@@@std@@@std@@@std@@QAE@PAVioHashString@@PBU_Container_base0@1@@Z ENDP ; std::_Vector_const_iterator<std::_Vector_val<ioHashString,std::allocator<ioHashString> > >::_Vector_const_iterator<std::_Vector_val<ioHashString,std::allocator<ioHashString> > >
_TEXT	ENDS
PUBLIC	?max_size@?$allocator@VioHashString@@@std@@QBEIXZ ; std::allocator<ioHashString>::max_size
; Function compile flags: /Ogsp
; File c:\program files (x86)\microsoft visual studio 10.0\vc\include\xmemory
;	COMDAT ?max_size@?$allocator@VioHashString@@@std@@QBEIXZ
_TEXT	SEGMENT
?max_size@?$allocator@VioHashString@@@std@@QBEIXZ PROC	; std::allocator<ioHashString>::max_size, COMDAT
; _this$ = ecx

; 218  : 		_SIZT _Count = (_SIZT)(-1) / sizeof (_Ty);
; 219  : 		return (0 < _Count ? _Count : 1);

  00000	b8 ff ff ff 0f	 mov	 eax, 268435455		; 0fffffffH

; 220  : 		}

  00005	c3		 ret	 0
?max_size@?$allocator@VioHashString@@@std@@QBEIXZ ENDP	; std::allocator<ioHashString>::max_size
_TEXT	ENDS
PUBLIC	?_Compat@?$_Vector_const_iterator@V?$_Vector_val@VioHashString@@V?$allocator@VioHashString@@@std@@@std@@@std@@QBEXABV12@@Z ; std::_Vector_const_iterator<std::_Vector_val<ioHashString,std::allocator<ioHashString> > >::_Compat
; Function compile flags: /Ogsp
; File c:\program files (x86)\microsoft visual studio 10.0\vc\include\vector
;	COMDAT ?_Compat@?$_Vector_const_iterator@V?$_Vector_val@VioHashString@@V?$allocator@VioHashString@@@std@@@std@@@std@@QBEXABV12@@Z
_TEXT	SEGMENT
___formal$ = 8						; size = 4
?_Compat@?$_Vector_const_iterator@V?$_Vector_val@VioHashString@@V?$allocator@VioHashString@@@std@@@std@@@std@@QBEXABV12@@Z PROC ; std::_Vector_const_iterator<std::_Vector_val<ioHashString,std::allocator<ioHashString> > >::_Compat, COMDAT
; _this$ = ecx

; 253  : 		}

  00000	c2 04 00	 ret	 4
?_Compat@?$_Vector_const_iterator@V?$_Vector_val@VioHashString@@V?$allocator@VioHashString@@@std@@@std@@@std@@QBEXABV12@@Z ENDP ; std::_Vector_const_iterator<std::_Vector_val<ioHashString,std::allocator<ioHashString> > >::_Compat
_TEXT	ENDS
PUBLIC	??$_Allocate@VioHashString@@@std@@YAPAVioHashString@@IPAV1@@Z ; std::_Allocate<ioHashString>
; Function compile flags: /Ogsp
; File c:\program files (x86)\microsoft visual studio 10.0\vc\include\xmemory
;	COMDAT ??$_Allocate@VioHashString@@@std@@YAPAVioHashString@@IPAV1@@Z
_TEXT	SEGMENT
$T554558 = -12						; size = 12
$T554562 = 8						; size = 4
__Count$ = 8						; size = 4
___formal$ = 12						; size = 4
??$_Allocate@VioHashString@@@std@@YAPAVioHashString@@IPAV1@@Z PROC ; std::_Allocate<ioHashString>, COMDAT

; 30   : 	{	// allocate storage for _Count elements of type _Ty

  00000	55		 push	 ebp
  00001	8b ec		 mov	 ebp, esp

; 31   : 	void *_Ptr = 0;
; 32   : 
; 33   : 	if (_Count <= 0)

  00003	8b 4d 08	 mov	 ecx, DWORD PTR __Count$[ebp]
  00006	83 ec 0c	 sub	 esp, 12			; 0000000cH
  00009	33 c0		 xor	 eax, eax
  0000b	85 c9		 test	 ecx, ecx

; 34   : 		_Count = 0;
; 35   : 	else if (((_SIZT)(-1) / sizeof (_Ty) < _Count)

  0000d	74 3c		 je	 SHORT $LN5@Allocate@2

; 36   : 		|| (_Ptr = ::operator new(_Count * sizeof (_Ty))) == 0)

  0000f	81 f9 ff ff ff
	0f		 cmp	 ecx, 268435455		; 0fffffffH
  00015	77 0e		 ja	 SHORT $LN1@Allocate@2
  00017	c1 e1 04	 shl	 ecx, 4
  0001a	51		 push	 ecx
  0001b	e8 00 00 00 00	 call	 ??2@YAPAXI@Z		; operator new
  00020	59		 pop	 ecx
  00021	85 c0		 test	 eax, eax

; 38   : 
; 39   : 	return ((_Ty _FARQ *)_Ptr);

  00023	75 26		 jne	 SHORT $LN5@Allocate@2
$LN1@Allocate@2:

; 37   : 		_THROW_NCEE(bad_alloc, 0);

  00025	83 65 08 00	 and	 DWORD PTR $T554562[ebp], 0
  00029	8d 45 08	 lea	 eax, DWORD PTR $T554562[ebp]
  0002c	50		 push	 eax
  0002d	8d 4d f4	 lea	 ecx, DWORD PTR $T554558[ebp]
  00030	ff 15 00 00 00
	00		 call	 DWORD PTR __imp_??0exception@std@@QAE@ABQBD@Z
  00036	68 00 00 00 00	 push	 OFFSET __TI2?AVbad_alloc@std@@
  0003b	8d 45 f4	 lea	 eax, DWORD PTR $T554558[ebp]
  0003e	50		 push	 eax
  0003f	c7 45 f4 00 00
	00 00		 mov	 DWORD PTR $T554558[ebp], OFFSET ??_7bad_alloc@std@@6B@
  00046	e8 00 00 00 00	 call	 __CxxThrowException@8
$LN10@Allocate@2:
$LN5@Allocate@2:

; 40   : 	}

  0004b	c9		 leave
  0004c	c3		 ret	 0
$LN9@Allocate@2:
??$_Allocate@VioHashString@@@std@@YAPAVioHashString@@IPAV1@@Z ENDP ; std::_Allocate<ioHashString>
_TEXT	ENDS
EXTRN	__imp_??0exception@std@@QAE@ABV01@@Z:PROC
; Function compile flags: /Ogsp
;	COMDAT ??0bad_alloc@std@@QAE@ABV01@@Z
_TEXT	SEGMENT
___that$ = 8						; size = 4
??0bad_alloc@std@@QAE@ABV01@@Z PROC			; std::bad_alloc::bad_alloc, COMDAT
; _this$ = ecx
  00000	55		 push	 ebp
  00001	8b ec		 mov	 ebp, esp
  00003	56		 push	 esi
  00004	ff 75 08	 push	 DWORD PTR ___that$[ebp]
  00007	8b f1		 mov	 esi, ecx
  00009	ff 15 00 00 00
	00		 call	 DWORD PTR __imp_??0exception@std@@QAE@ABV01@@Z
  0000f	c7 06 00 00 00
	00		 mov	 DWORD PTR [esi], OFFSET ??_7bad_alloc@std@@6B@
  00015	8b c6		 mov	 eax, esi
  00017	5e		 pop	 esi
  00018	5d		 pop	 ebp
  00019	c2 04 00	 ret	 4
??0bad_alloc@std@@QAE@ABV01@@Z ENDP			; std::bad_alloc::bad_alloc
_TEXT	ENDS
PUBLIC	??$forward@ABVioHashString@@@std@@YAABVioHashString@@ABV1@@Z ; std::forward<ioHashString const &>
; Function compile flags: /Ogsp
; File c:\program files (x86)\microsoft visual studio 10.0\vc\include\utility
;	COMDAT ??$forward@ABVioHashString@@@std@@YAABVioHashString@@ABV1@@Z
_TEXT	SEGMENT
__Arg$ = 8						; size = 4
??$forward@ABVioHashString@@@std@@YAABVioHashString@@ABV1@@Z PROC ; std::forward<ioHashString const &>, COMDAT

; 78   : 	{	// forward _Arg, given explicitly specified type parameter

  00000	55		 push	 ebp
  00001	8b ec		 mov	 ebp, esp

; 79   : 	return ((_Ty&&)_Arg);

  00003	8b 45 08	 mov	 eax, DWORD PTR __Arg$[ebp]

; 80   : 	}

  00006	5d		 pop	 ebp
  00007	c3		 ret	 0
??$forward@ABVioHashString@@@std@@YAABVioHashString@@ABV1@@Z ENDP ; std::forward<ioHashString const &>
_TEXT	ENDS
PUBLIC	??$forward@AAVioHashString@@@std@@YAAAVioHashString@@AAV1@@Z ; std::forward<ioHashString &>
; Function compile flags: /Ogsp
;	COMDAT ??$forward@AAVioHashString@@@std@@YAAAVioHashString@@AAV1@@Z
_TEXT	SEGMENT
__Arg$ = 8						; size = 4
??$forward@AAVioHashString@@@std@@YAAAVioHashString@@AAV1@@Z PROC ; std::forward<ioHashString &>, COMDAT

; 78   : 	{	// forward _Arg, given explicitly specified type parameter

  00000	55		 push	 ebp
  00001	8b ec		 mov	 ebp, esp

; 79   : 	return ((_Ty&&)_Arg);

  00003	8b 45 08	 mov	 eax, DWORD PTR __Arg$[ebp]

; 80   : 	}

  00006	5d		 pop	 ebp
  00007	c3		 ret	 0
??$forward@AAVioHashString@@@std@@YAAAVioHashString@@AAV1@@Z ENDP ; std::forward<ioHashString &>
_TEXT	ENDS
PUBLIC	??$_Ptr_cat@VioHashString@@V1@@std@@YA?AU_Nonscalar_ptr_iterator_tag@0@PAVioHashString@@0@Z ; std::_Ptr_cat<ioHashString,ioHashString>
; Function compile flags: /Ogsp
; File c:\program files (x86)\microsoft visual studio 10.0\vc\include\xutility
;	COMDAT ??$_Ptr_cat@VioHashString@@V1@@std@@YA?AU_Nonscalar_ptr_iterator_tag@0@PAVioHashString@@0@Z
_TEXT	SEGMENT
__Cat$ = -1						; size = 1
___formal$ = 8						; size = 4
___formal$ = 12						; size = 4
??$_Ptr_cat@VioHashString@@V1@@std@@YA?AU_Nonscalar_ptr_iterator_tag@0@PAVioHashString@@0@Z PROC ; std::_Ptr_cat<ioHashString,ioHashString>, COMDAT

; 516  : 	{	// return pointer category from pointers

  00000	55		 push	 ebp
  00001	8b ec		 mov	 ebp, esp
  00003	51		 push	 ecx

; 517  : 	typename _Ptr_cat_helper<_Elem1, _Elem2>::_Type _Cat;
; 518  : 	return (_Cat);

  00004	8a 45 ff	 mov	 al, BYTE PTR __Cat$[ebp]

; 519  : 	}

  00007	c9		 leave
  00008	c3		 ret	 0
??$_Ptr_cat@VioHashString@@V1@@std@@YA?AU_Nonscalar_ptr_iterator_tag@0@PAVioHashString@@0@Z ENDP ; std::_Ptr_cat<ioHashString,ioHashString>
_TEXT	ENDS
PUBLIC	??$_Ptr_cat@UWeaponInfo@@U1@@std@@YA?AU_Nonscalar_ptr_iterator_tag@0@PAUWeaponInfo@@0@Z ; std::_Ptr_cat<WeaponInfo,WeaponInfo>
; Function compile flags: /Ogsp
;	COMDAT ??$_Ptr_cat@UWeaponInfo@@U1@@std@@YA?AU_Nonscalar_ptr_iterator_tag@0@PAUWeaponInfo@@0@Z
_TEXT	SEGMENT
__Cat$ = -1						; size = 1
___formal$ = 8						; size = 4
___formal$ = 12						; size = 4
??$_Ptr_cat@UWeaponInfo@@U1@@std@@YA?AU_Nonscalar_ptr_iterator_tag@0@PAUWeaponInfo@@0@Z PROC ; std::_Ptr_cat<WeaponInfo,WeaponInfo>, COMDAT

; 516  : 	{	// return pointer category from pointers

  00000	55		 push	 ebp
  00001	8b ec		 mov	 ebp, esp
  00003	51		 push	 ecx

; 517  : 	typename _Ptr_cat_helper<_Elem1, _Elem2>::_Type _Cat;
; 518  : 	return (_Cat);

  00004	8a 45 ff	 mov	 al, BYTE PTR __Cat$[ebp]

; 519  : 	}

  00007	c9		 leave
  00008	c3		 ret	 0
??$_Ptr_cat@UWeaponInfo@@U1@@std@@YA?AU_Nonscalar_ptr_iterator_tag@0@PAUWeaponInfo@@0@Z ENDP ; std::_Ptr_cat<WeaponInfo,WeaponInfo>
_TEXT	ENDS
PUBLIC	??$_Ptr_cat@UForceInfo@@U1@@std@@YA?AU_Nonscalar_ptr_iterator_tag@0@PAUForceInfo@@0@Z ; std::_Ptr_cat<ForceInfo,ForceInfo>
; Function compile flags: /Ogsp
;	COMDAT ??$_Ptr_cat@UForceInfo@@U1@@std@@YA?AU_Nonscalar_ptr_iterator_tag@0@PAUForceInfo@@0@Z
_TEXT	SEGMENT
__Cat$ = -1						; size = 1
___formal$ = 8						; size = 4
___formal$ = 12						; size = 4
??$_Ptr_cat@UForceInfo@@U1@@std@@YA?AU_Nonscalar_ptr_iterator_tag@0@PAUForceInfo@@0@Z PROC ; std::_Ptr_cat<ForceInfo,ForceInfo>, COMDAT

; 516  : 	{	// return pointer category from pointers

  00000	55		 push	 ebp
  00001	8b ec		 mov	 ebp, esp
  00003	51		 push	 ecx

; 517  : 	typename _Ptr_cat_helper<_Elem1, _Elem2>::_Type _Cat;
; 518  : 	return (_Cat);

  00004	8a 45 ff	 mov	 al, BYTE PTR __Cat$[ebp]

; 519  : 	}

  00007	c9		 leave
  00008	c3		 ret	 0
??$_Ptr_cat@UForceInfo@@U1@@std@@YA?AU_Nonscalar_ptr_iterator_tag@0@PAUForceInfo@@0@Z ENDP ; std::_Ptr_cat<ForceInfo,ForceInfo>
_TEXT	ENDS
PUBLIC	?size@?$vector@UWeaponInfo@@V?$allocator@UWeaponInfo@@@std@@@std@@QBEIXZ ; std::vector<WeaponInfo,std::allocator<WeaponInfo> >::size
; Function compile flags: /Ogsp
; File c:\program files (x86)\microsoft visual studio 10.0\vc\include\vector
;	COMDAT ?size@?$vector@UWeaponInfo@@V?$allocator@UWeaponInfo@@@std@@@std@@QBEIXZ
_TEXT	SEGMENT
?size@?$vector@UWeaponInfo@@V?$allocator@UWeaponInfo@@@std@@@std@@QBEIXZ PROC ; std::vector<WeaponInfo,std::allocator<WeaponInfo> >::size, COMDAT
; _this$ = ecx

; 879  : 		return (this->_Mylast - this->_Myfirst);

  00000	8b 41 04	 mov	 eax, DWORD PTR [ecx+4]
  00003	2b 01		 sub	 eax, DWORD PTR [ecx]
  00005	6a 28		 push	 40			; 00000028H
  00007	99		 cdq
  00008	59		 pop	 ecx
  00009	f7 f9		 idiv	 ecx

; 880  : 		}

  0000b	c3		 ret	 0
?size@?$vector@UWeaponInfo@@V?$allocator@UWeaponInfo@@@std@@@std@@QBEIXZ ENDP ; std::vector<WeaponInfo,std::allocator<WeaponInfo> >::size
_TEXT	ENDS
PUBLIC	?size@?$vector@UForceInfo@@V?$allocator@UForceInfo@@@std@@@std@@QBEIXZ ; std::vector<ForceInfo,std::allocator<ForceInfo> >::size
; Function compile flags: /Ogsp
;	COMDAT ?size@?$vector@UForceInfo@@V?$allocator@UForceInfo@@@std@@@std@@QBEIXZ
_TEXT	SEGMENT
?size@?$vector@UForceInfo@@V?$allocator@UForceInfo@@@std@@@std@@QBEIXZ PROC ; std::vector<ForceInfo,std::allocator<ForceInfo> >::size, COMDAT
; _this$ = ecx

; 879  : 		return (this->_Mylast - this->_Myfirst);

  00000	8b 41 04	 mov	 eax, DWORD PTR [ecx+4]
  00003	2b 01		 sub	 eax, DWORD PTR [ecx]
  00005	6a 0c		 push	 12			; 0000000cH
  00007	99		 cdq
  00008	59		 pop	 ecx
  00009	f7 f9		 idiv	 ecx

; 880  : 		}

  0000b	c3		 ret	 0
?size@?$vector@UForceInfo@@V?$allocator@UForceInfo@@@std@@@std@@QBEIXZ ENDP ; std::vector<ForceInfo,std::allocator<ForceInfo> >::size
_TEXT	ENDS
PUBLIC	?_Xlen@?$vector@UWeaponInfo@@V?$allocator@UWeaponInfo@@@std@@@std@@IBEXXZ ; std::vector<WeaponInfo,std::allocator<WeaponInfo> >::_Xlen
; Function compile flags: /Ogsp
;	COMDAT ?_Xlen@?$vector@UWeaponInfo@@V?$allocator@UWeaponInfo@@@std@@@std@@IBEXXZ
_TEXT	SEGMENT
?_Xlen@?$vector@UWeaponInfo@@V?$allocator@UWeaponInfo@@@std@@@std@@IBEXXZ PROC ; std::vector<WeaponInfo,std::allocator<WeaponInfo> >::_Xlen, COMDAT
; _this$ = ecx

; 1427 : 		_Xlength_error("vector<T> too long");

  00000	68 00 00 00 00	 push	 OFFSET ??_C@_0BD@OLBABOEK@vector?$DMT?$DO?5too?5long?$AA@
  00005	ff 15 00 00 00
	00		 call	 DWORD PTR __imp_?_Xlength_error@std@@YAXPBD@Z
$LN4@Xlen@3:
$LN3@Xlen@3:
  0000b	cc		 int	 3
?_Xlen@?$vector@UWeaponInfo@@V?$allocator@UWeaponInfo@@@std@@@std@@IBEXXZ ENDP ; std::vector<WeaponInfo,std::allocator<WeaponInfo> >::_Xlen
_TEXT	ENDS
PUBLIC	?_Xlen@?$vector@UForceInfo@@V?$allocator@UForceInfo@@@std@@@std@@IBEXXZ ; std::vector<ForceInfo,std::allocator<ForceInfo> >::_Xlen
; Function compile flags: /Ogsp
;	COMDAT ?_Xlen@?$vector@UForceInfo@@V?$allocator@UForceInfo@@@std@@@std@@IBEXXZ
_TEXT	SEGMENT
?_Xlen@?$vector@UForceInfo@@V?$allocator@UForceInfo@@@std@@@std@@IBEXXZ PROC ; std::vector<ForceInfo,std::allocator<ForceInfo> >::_Xlen, COMDAT
; _this$ = ecx

; 1427 : 		_Xlength_error("vector<T> too long");

  00000	68 00 00 00 00	 push	 OFFSET ??_C@_0BD@OLBABOEK@vector?$DMT?$DO?5too?5long?$AA@
  00005	ff 15 00 00 00
	00		 call	 DWORD PTR __imp_?_Xlength_error@std@@YAXPBD@Z
$LN4@Xlen@4:
$LN3@Xlen@4:
  0000b	cc		 int	 3
?_Xlen@?$vector@UForceInfo@@V?$allocator@UForceInfo@@@std@@@std@@IBEXXZ ENDP ; std::vector<ForceInfo,std::allocator<ForceInfo> >::_Xlen
_TEXT	ENDS
PUBLIC	?max_size@?$allocator@UWeaponInfo@@@std@@QBEIXZ	; std::allocator<WeaponInfo>::max_size
; Function compile flags: /Ogsp
; File c:\program files (x86)\microsoft visual studio 10.0\vc\include\xmemory
;	COMDAT ?max_size@?$allocator@UWeaponInfo@@@std@@QBEIXZ
_TEXT	SEGMENT
?max_size@?$allocator@UWeaponInfo@@@std@@QBEIXZ PROC	; std::allocator<WeaponInfo>::max_size, COMDAT
; _this$ = ecx

; 218  : 		_SIZT _Count = (_SIZT)(-1) / sizeof (_Ty);
; 219  : 		return (0 < _Count ? _Count : 1);

  00000	b8 66 66 66 06	 mov	 eax, 107374182		; 06666666H

; 220  : 		}

  00005	c3		 ret	 0
?max_size@?$allocator@UWeaponInfo@@@std@@QBEIXZ ENDP	; std::allocator<WeaponInfo>::max_size
_TEXT	ENDS
PUBLIC	?max_size@?$allocator@UForceInfo@@@std@@QBEIXZ	; std::allocator<ForceInfo>::max_size
; Function compile flags: /Ogsp
;	COMDAT ?max_size@?$allocator@UForceInfo@@@std@@QBEIXZ
_TEXT	SEGMENT
?max_size@?$allocator@UForceInfo@@@std@@QBEIXZ PROC	; std::allocator<ForceInfo>::max_size, COMDAT
; _this$ = ecx

; 218  : 		_SIZT _Count = (_SIZT)(-1) / sizeof (_Ty);
; 219  : 		return (0 < _Count ? _Count : 1);

  00000	b8 55 55 55 15	 mov	 eax, 357913941		; 15555555H

; 220  : 		}

  00005	c3		 ret	 0
?max_size@?$allocator@UForceInfo@@@std@@QBEIXZ ENDP	; std::allocator<ForceInfo>::max_size
_TEXT	ENDS
PUBLIC	??0?$_Vector_const_iterator@V?$_Vector_val@UWeaponInfo@@V?$allocator@UWeaponInfo@@@std@@@std@@@std@@QAE@PAUWeaponInfo@@PBU_Container_base0@1@@Z ; std::_Vector_const_iterator<std::_Vector_val<WeaponInfo,std::allocator<WeaponInfo> > >::_Vector_const_iterator<std::_Vector_val<WeaponInfo,std::allocator<WeaponInfo> > >
; Function compile flags: /Ogsp
; File c:\program files (x86)\microsoft visual studio 10.0\vc\include\vector
;	COMDAT ??0?$_Vector_const_iterator@V?$_Vector_val@UWeaponInfo@@V?$allocator@UWeaponInfo@@@std@@@std@@@std@@QAE@PAUWeaponInfo@@PBU_Container_base0@1@@Z
_TEXT	SEGMENT
__Parg$ = 8						; size = 4
__Pvector$ = 12						; size = 4
??0?$_Vector_const_iterator@V?$_Vector_val@UWeaponInfo@@V?$allocator@UWeaponInfo@@@std@@@std@@@std@@QAE@PAUWeaponInfo@@PBU_Container_base0@1@@Z PROC ; std::_Vector_const_iterator<std::_Vector_val<WeaponInfo,std::allocator<WeaponInfo> > >::_Vector_const_iterator<std::_Vector_val<WeaponInfo,std::allocator<WeaponInfo> > >, COMDAT
; _this$ = ecx

; 45   : 		{	// construct with pointer _Parg

  00000	55		 push	 ebp
  00001	8b ec		 mov	 ebp, esp
  00003	8b c1		 mov	 eax, ecx
  00005	8b 4d 08	 mov	 ecx, DWORD PTR __Parg$[ebp]
  00008	89 08		 mov	 DWORD PTR [eax], ecx

; 46   : 		this->_Adopt(_Pvector);
; 47   : 		}

  0000a	5d		 pop	 ebp
  0000b	c2 08 00	 ret	 8
??0?$_Vector_const_iterator@V?$_Vector_val@UWeaponInfo@@V?$allocator@UWeaponInfo@@@std@@@std@@@std@@QAE@PAUWeaponInfo@@PBU_Container_base0@1@@Z ENDP ; std::_Vector_const_iterator<std::_Vector_val<WeaponInfo,std::allocator<WeaponInfo> > >::_Vector_const_iterator<std::_Vector_val<WeaponInfo,std::allocator<WeaponInfo> > >
_TEXT	ENDS
PUBLIC	??0?$_Vector_const_iterator@V?$_Vector_val@UForceInfo@@V?$allocator@UForceInfo@@@std@@@std@@@std@@QAE@PAUForceInfo@@PBU_Container_base0@1@@Z ; std::_Vector_const_iterator<std::_Vector_val<ForceInfo,std::allocator<ForceInfo> > >::_Vector_const_iterator<std::_Vector_val<ForceInfo,std::allocator<ForceInfo> > >
; Function compile flags: /Ogsp
;	COMDAT ??0?$_Vector_const_iterator@V?$_Vector_val@UForceInfo@@V?$allocator@UForceInfo@@@std@@@std@@@std@@QAE@PAUForceInfo@@PBU_Container_base0@1@@Z
_TEXT	SEGMENT
__Parg$ = 8						; size = 4
__Pvector$ = 12						; size = 4
??0?$_Vector_const_iterator@V?$_Vector_val@UForceInfo@@V?$allocator@UForceInfo@@@std@@@std@@@std@@QAE@PAUForceInfo@@PBU_Container_base0@1@@Z PROC ; std::_Vector_const_iterator<std::_Vector_val<ForceInfo,std::allocator<ForceInfo> > >::_Vector_const_iterator<std::_Vector_val<ForceInfo,std::allocator<ForceInfo> > >, COMDAT
; _this$ = ecx

; 45   : 		{	// construct with pointer _Parg

  00000	55		 push	 ebp
  00001	8b ec		 mov	 ebp, esp
  00003	8b c1		 mov	 eax, ecx
  00005	8b 4d 08	 mov	 ecx, DWORD PTR __Parg$[ebp]
  00008	89 08		 mov	 DWORD PTR [eax], ecx

; 46   : 		this->_Adopt(_Pvector);
; 47   : 		}

  0000a	5d		 pop	 ebp
  0000b	c2 08 00	 ret	 8
??0?$_Vector_const_iterator@V?$_Vector_val@UForceInfo@@V?$allocator@UForceInfo@@@std@@@std@@@std@@QAE@PAUForceInfo@@PBU_Container_base0@1@@Z ENDP ; std::_Vector_const_iterator<std::_Vector_val<ForceInfo,std::allocator<ForceInfo> > >::_Vector_const_iterator<std::_Vector_val<ForceInfo,std::allocator<ForceInfo> > >
_TEXT	ENDS
PUBLIC	?_Compat@?$_Vector_const_iterator@V?$_Vector_val@UWeaponInfo@@V?$allocator@UWeaponInfo@@@std@@@std@@@std@@QBEXABV12@@Z ; std::_Vector_const_iterator<std::_Vector_val<WeaponInfo,std::allocator<WeaponInfo> > >::_Compat
; Function compile flags: /Ogsp
;	COMDAT ?_Compat@?$_Vector_const_iterator@V?$_Vector_val@UWeaponInfo@@V?$allocator@UWeaponInfo@@@std@@@std@@@std@@QBEXABV12@@Z
_TEXT	SEGMENT
___formal$ = 8						; size = 4
?_Compat@?$_Vector_const_iterator@V?$_Vector_val@UWeaponInfo@@V?$allocator@UWeaponInfo@@@std@@@std@@@std@@QBEXABV12@@Z PROC ; std::_Vector_const_iterator<std::_Vector_val<WeaponInfo,std::allocator<WeaponInfo> > >::_Compat, COMDAT
; _this$ = ecx

; 253  : 		}

  00000	c2 04 00	 ret	 4
?_Compat@?$_Vector_const_iterator@V?$_Vector_val@UWeaponInfo@@V?$allocator@UWeaponInfo@@@std@@@std@@@std@@QBEXABV12@@Z ENDP ; std::_Vector_const_iterator<std::_Vector_val<WeaponInfo,std::allocator<WeaponInfo> > >::_Compat
_TEXT	ENDS
PUBLIC	?_Compat@?$_Vector_const_iterator@V?$_Vector_val@UForceInfo@@V?$allocator@UForceInfo@@@std@@@std@@@std@@QBEXABV12@@Z ; std::_Vector_const_iterator<std::_Vector_val<ForceInfo,std::allocator<ForceInfo> > >::_Compat
; Function compile flags: /Ogsp
;	COMDAT ?_Compat@?$_Vector_const_iterator@V?$_Vector_val@UForceInfo@@V?$allocator@UForceInfo@@@std@@@std@@@std@@QBEXABV12@@Z
_TEXT	SEGMENT
___formal$ = 8						; size = 4
?_Compat@?$_Vector_const_iterator@V?$_Vector_val@UForceInfo@@V?$allocator@UForceInfo@@@std@@@std@@@std@@QBEXABV12@@Z PROC ; std::_Vector_const_iterator<std::_Vector_val<ForceInfo,std::allocator<ForceInfo> > >::_Compat, COMDAT
; _this$ = ecx

; 253  : 		}

  00000	c2 04 00	 ret	 4
?_Compat@?$_Vector_const_iterator@V?$_Vector_val@UForceInfo@@V?$allocator@UForceInfo@@@std@@@std@@@std@@QBEXABV12@@Z ENDP ; std::_Vector_const_iterator<std::_Vector_val<ForceInfo,std::allocator<ForceInfo> > >::_Compat
_TEXT	ENDS
PUBLIC	??$_Ptr_cat@V?$_Vector_const_iterator@V?$_Vector_val@VioHashString@@V?$allocator@VioHashString@@@std@@@std@@@std@@PAVioHashString@@@std@@YA?AU_Nonscalar_ptr_iterator_tag@0@AAV?$_Vector_const_iterator@V?$_Vector_val@VioHashString@@V?$allocator@VioHashString@@@std@@@std@@@0@AAPAVioHashString@@@Z ; std::_Ptr_cat<std::_Vector_const_iterator<std::_Vector_val<ioHashString,std::allocator<ioHashString> > >,ioHashString *>
; Function compile flags: /Ogsp
; File c:\program files (x86)\microsoft visual studio 10.0\vc\include\xutility
;	COMDAT ??$_Ptr_cat@V?$_Vector_const_iterator@V?$_Vector_val@VioHashString@@V?$allocator@VioHashString@@@std@@@std@@@std@@PAVioHashString@@@std@@YA?AU_Nonscalar_ptr_iterator_tag@0@AAV?$_Vector_const_iterator@V?$_Vector_val@VioHashString@@V?$allocator@VioHashString@@@std@@@std@@@0@AAPAVioHashString@@@Z
_TEXT	SEGMENT
__Cat$ = -1						; size = 1
___formal$ = 8						; size = 4
___formal$ = 12						; size = 4
??$_Ptr_cat@V?$_Vector_const_iterator@V?$_Vector_val@VioHashString@@V?$allocator@VioHashString@@@std@@@std@@@std@@PAVioHashString@@@std@@YA?AU_Nonscalar_ptr_iterator_tag@0@AAV?$_Vector_const_iterator@V?$_Vector_val@VioHashString@@V?$allocator@VioHashString@@@std@@@std@@@0@AAPAVioHashString@@@Z PROC ; std::_Ptr_cat<std::_Vector_const_iterator<std::_Vector_val<ioHashString,std::allocator<ioHashString> > >,ioHashString *>, COMDAT

; 485  : 	{	// return pointer category from arbitrary arguments

  00000	55		 push	 ebp
  00001	8b ec		 mov	 ebp, esp
  00003	51		 push	 ecx

; 486  : 	_Nonscalar_ptr_iterator_tag _Cat;
; 487  : 	return (_Cat);

  00004	8a 45 ff	 mov	 al, BYTE PTR __Cat$[ebp]

; 488  : 	}

  00007	c9		 leave
  00008	c3		 ret	 0
??$_Ptr_cat@V?$_Vector_const_iterator@V?$_Vector_val@VioHashString@@V?$allocator@VioHashString@@@std@@@std@@@std@@PAVioHashString@@@std@@YA?AU_Nonscalar_ptr_iterator_tag@0@AAV?$_Vector_const_iterator@V?$_Vector_val@VioHashString@@V?$allocator@VioHashString@@@std@@@std@@@0@AAPAVioHashString@@@Z ENDP ; std::_Ptr_cat<std::_Vector_const_iterator<std::_Vector_val<ioHashString,std::allocator<ioHashString> > >,ioHashString *>
_TEXT	ENDS
PUBLIC	??$_Allocate@UWeaponInfo@@@std@@YAPAUWeaponInfo@@IPAU1@@Z ; std::_Allocate<WeaponInfo>
; Function compile flags: /Ogsp
; File c:\program files (x86)\microsoft visual studio 10.0\vc\include\xmemory
;	COMDAT ??$_Allocate@UWeaponInfo@@@std@@YAPAUWeaponInfo@@IPAU1@@Z
_TEXT	SEGMENT
$T554624 = -12						; size = 12
$T554628 = 8						; size = 4
__Count$ = 8						; size = 4
___formal$ = 12						; size = 4
??$_Allocate@UWeaponInfo@@@std@@YAPAUWeaponInfo@@IPAU1@@Z PROC ; std::_Allocate<WeaponInfo>, COMDAT

; 30   : 	{	// allocate storage for _Count elements of type _Ty

  00000	55		 push	 ebp
  00001	8b ec		 mov	 ebp, esp

; 31   : 	void *_Ptr = 0;
; 32   : 
; 33   : 	if (_Count <= 0)

  00003	8b 4d 08	 mov	 ecx, DWORD PTR __Count$[ebp]
  00006	83 ec 0c	 sub	 esp, 12			; 0000000cH
  00009	33 c0		 xor	 eax, eax
  0000b	85 c9		 test	 ecx, ecx

; 34   : 		_Count = 0;
; 35   : 	else if (((_SIZT)(-1) / sizeof (_Ty) < _Count)

  0000d	74 3c		 je	 SHORT $LN5@Allocate@3

; 36   : 		|| (_Ptr = ::operator new(_Count * sizeof (_Ty))) == 0)

  0000f	81 f9 66 66 66
	06		 cmp	 ecx, 107374182		; 06666666H
  00015	77 0e		 ja	 SHORT $LN1@Allocate@3
  00017	6b c9 28	 imul	 ecx, 40			; 00000028H
  0001a	51		 push	 ecx
  0001b	e8 00 00 00 00	 call	 ??2@YAPAXI@Z		; operator new
  00020	59		 pop	 ecx
  00021	85 c0		 test	 eax, eax

; 38   : 
; 39   : 	return ((_Ty _FARQ *)_Ptr);

  00023	75 26		 jne	 SHORT $LN5@Allocate@3
$LN1@Allocate@3:

; 37   : 		_THROW_NCEE(bad_alloc, 0);

  00025	83 65 08 00	 and	 DWORD PTR $T554628[ebp], 0
  00029	8d 45 08	 lea	 eax, DWORD PTR $T554628[ebp]
  0002c	50		 push	 eax
  0002d	8d 4d f4	 lea	 ecx, DWORD PTR $T554624[ebp]
  00030	ff 15 00 00 00
	00		 call	 DWORD PTR __imp_??0exception@std@@QAE@ABQBD@Z
  00036	68 00 00 00 00	 push	 OFFSET __TI2?AVbad_alloc@std@@
  0003b	8d 45 f4	 lea	 eax, DWORD PTR $T554624[ebp]
  0003e	50		 push	 eax
  0003f	c7 45 f4 00 00
	00 00		 mov	 DWORD PTR $T554624[ebp], OFFSET ??_7bad_alloc@std@@6B@
  00046	e8 00 00 00 00	 call	 __CxxThrowException@8
$LN10@Allocate@3:
$LN5@Allocate@3:

; 40   : 	}

  0004b	c9		 leave
  0004c	c3		 ret	 0
$LN9@Allocate@3:
??$_Allocate@UWeaponInfo@@@std@@YAPAUWeaponInfo@@IPAU1@@Z ENDP ; std::_Allocate<WeaponInfo>
_TEXT	ENDS
PUBLIC	??$_Allocate@UForceInfo@@@std@@YAPAUForceInfo@@IPAU1@@Z ; std::_Allocate<ForceInfo>
; Function compile flags: /Ogsp
;	COMDAT ??$_Allocate@UForceInfo@@@std@@YAPAUForceInfo@@IPAU1@@Z
_TEXT	SEGMENT
$T554633 = -12						; size = 12
$T554637 = 8						; size = 4
__Count$ = 8						; size = 4
___formal$ = 12						; size = 4
??$_Allocate@UForceInfo@@@std@@YAPAUForceInfo@@IPAU1@@Z PROC ; std::_Allocate<ForceInfo>, COMDAT

; 30   : 	{	// allocate storage for _Count elements of type _Ty

  00000	55		 push	 ebp
  00001	8b ec		 mov	 ebp, esp

; 31   : 	void *_Ptr = 0;
; 32   : 
; 33   : 	if (_Count <= 0)

  00003	8b 4d 08	 mov	 ecx, DWORD PTR __Count$[ebp]
  00006	83 ec 0c	 sub	 esp, 12			; 0000000cH
  00009	33 c0		 xor	 eax, eax
  0000b	85 c9		 test	 ecx, ecx

; 34   : 		_Count = 0;
; 35   : 	else if (((_SIZT)(-1) / sizeof (_Ty) < _Count)

  0000d	74 3c		 je	 SHORT $LN5@Allocate@4

; 36   : 		|| (_Ptr = ::operator new(_Count * sizeof (_Ty))) == 0)

  0000f	81 f9 55 55 55
	15		 cmp	 ecx, 357913941		; 15555555H
  00015	77 0e		 ja	 SHORT $LN1@Allocate@4
  00017	6b c9 0c	 imul	 ecx, 12			; 0000000cH
  0001a	51		 push	 ecx
  0001b	e8 00 00 00 00	 call	 ??2@YAPAXI@Z		; operator new
  00020	59		 pop	 ecx
  00021	85 c0		 test	 eax, eax

; 38   : 
; 39   : 	return ((_Ty _FARQ *)_Ptr);

  00023	75 26		 jne	 SHORT $LN5@Allocate@4
$LN1@Allocate@4:

; 37   : 		_THROW_NCEE(bad_alloc, 0);

  00025	83 65 08 00	 and	 DWORD PTR $T554637[ebp], 0
  00029	8d 45 08	 lea	 eax, DWORD PTR $T554637[ebp]
  0002c	50		 push	 eax
  0002d	8d 4d f4	 lea	 ecx, DWORD PTR $T554633[ebp]
  00030	ff 15 00 00 00
	00		 call	 DWORD PTR __imp_??0exception@std@@QAE@ABQBD@Z
  00036	68 00 00 00 00	 push	 OFFSET __TI2?AVbad_alloc@std@@
  0003b	8d 45 f4	 lea	 eax, DWORD PTR $T554633[ebp]
  0003e	50		 push	 eax
  0003f	c7 45 f4 00 00
	00 00		 mov	 DWORD PTR $T554633[ebp], OFFSET ??_7bad_alloc@std@@6B@
  00046	e8 00 00 00 00	 call	 __CxxThrowException@8
$LN10@Allocate@4:
$LN5@Allocate@4:

; 40   : 	}

  0004b	c9		 leave
  0004c	c3		 ret	 0
$LN9@Allocate@4:
??$_Allocate@UForceInfo@@@std@@YAPAUForceInfo@@IPAU1@@Z ENDP ; std::_Allocate<ForceInfo>
_TEXT	ENDS
PUBLIC	??D?$_Vector_const_iterator@V?$_Vector_val@VioHashString@@V?$allocator@VioHashString@@@std@@@std@@@std@@QBEABVioHashString@@XZ ; std::_Vector_const_iterator<std::_Vector_val<ioHashString,std::allocator<ioHashString> > >::operator*
; Function compile flags: /Ogsp
; File c:\program files (x86)\microsoft visual studio 10.0\vc\include\vector
;	COMDAT ??D?$_Vector_const_iterator@V?$_Vector_val@VioHashString@@V?$allocator@VioHashString@@@std@@@std@@@std@@QBEABVioHashString@@XZ
_TEXT	SEGMENT
??D?$_Vector_const_iterator@V?$_Vector_val@VioHashString@@V?$allocator@VioHashString@@@std@@@std@@@std@@QBEABVioHashString@@XZ PROC ; std::_Vector_const_iterator<std::_Vector_val<ioHashString,std::allocator<ioHashString> > >::operator*, COMDAT
; _this$ = ecx

; 64   :  #if _ITERATOR_DEBUG_LEVEL == 2
; 65   : 		if (this->_Getcont() == 0
; 66   : 			|| this->_Ptr == 0
; 67   : 			|| this->_Ptr < ((_Myvec *)this->_Getcont())->_Myfirst
; 68   : 			|| ((_Myvec *)this->_Getcont())->_Mylast <= this->_Ptr)
; 69   : 			{	// report error
; 70   : 			_DEBUG_ERROR("vector iterator not dereferencable");
; 71   : 			_SCL_SECURE_OUT_OF_RANGE;
; 72   : 			}
; 73   : 
; 74   :  #elif _ITERATOR_DEBUG_LEVEL == 1
; 75   : 		_SCL_SECURE_VALIDATE(this->_Getcont() != 0);
; 76   : 		_SCL_SECURE_VALIDATE_RANGE(
; 77   : 			this->_Ptr != 0
; 78   : 			&& ((_Myvec *)this->_Getcont())->_Myfirst <= this->_Ptr
; 79   : 			&& this->_Ptr < ((_Myvec *)this->_Getcont())->_Mylast);
; 80   :  #endif /* _ITERATOR_DEBUG_LEVEL */
; 81   : 
; 82   : 		__analysis_assume(this->_Ptr != 0);
; 83   : 
; 84   : 		return (*this->_Ptr);

  00000	8b 01		 mov	 eax, DWORD PTR [ecx]

; 85   : 		}

  00002	c3		 ret	 0
??D?$_Vector_const_iterator@V?$_Vector_val@VioHashString@@V?$allocator@VioHashString@@@std@@@std@@@std@@QBEABVioHashString@@XZ ENDP ; std::_Vector_const_iterator<std::_Vector_val<ioHashString,std::allocator<ioHashString> > >::operator*
_TEXT	ENDS
PUBLIC	??E?$_Vector_const_iterator@V?$_Vector_val@VioHashString@@V?$allocator@VioHashString@@@std@@@std@@@std@@QAEAAV01@XZ ; std::_Vector_const_iterator<std::_Vector_val<ioHashString,std::allocator<ioHashString> > >::operator++
; Function compile flags: /Ogsp
;	COMDAT ??E?$_Vector_const_iterator@V?$_Vector_val@VioHashString@@V?$allocator@VioHashString@@@std@@@std@@@std@@QAEAAV01@XZ
_TEXT	SEGMENT
??E?$_Vector_const_iterator@V?$_Vector_val@VioHashString@@V?$allocator@VioHashString@@@std@@@std@@@std@@QAEAAV01@XZ PROC ; std::_Vector_const_iterator<std::_Vector_val<ioHashString,std::allocator<ioHashString> > >::operator++, COMDAT
; _this$ = ecx

; 93   : 		{	// preincrement

  00000	8b c1		 mov	 eax, ecx

; 94   :  #if _ITERATOR_DEBUG_LEVEL == 2
; 95   : 		if (this->_Getcont() == 0
; 96   : 			|| this->_Ptr == 0
; 97   : 			|| ((_Myvec *)this->_Getcont())->_Mylast <= this->_Ptr)
; 98   : 			{	// report error
; 99   : 			_DEBUG_ERROR("vector iterator not incrementable");
; 100  : 			_SCL_SECURE_OUT_OF_RANGE;
; 101  : 			}
; 102  : 
; 103  :  #elif _ITERATOR_DEBUG_LEVEL == 1
; 104  : 		_SCL_SECURE_VALIDATE(this->_Getcont() != 0);
; 105  : 		_SCL_SECURE_VALIDATE_RANGE(
; 106  : 			this->_Ptr != 0
; 107  : 			&& this->_Ptr < ((_Myvec *)this->_Getcont())->_Mylast);
; 108  :  #endif /* _ITERATOR_DEBUG_LEVEL */
; 109  : 
; 110  : 		++this->_Ptr;

  00002	83 00 10	 add	 DWORD PTR [eax], 16	; 00000010H

; 111  : 		return (*this);
; 112  : 		}

  00005	c3		 ret	 0
??E?$_Vector_const_iterator@V?$_Vector_val@VioHashString@@V?$allocator@VioHashString@@@std@@@std@@@std@@QAEAAV01@XZ ENDP ; std::_Vector_const_iterator<std::_Vector_val<ioHashString,std::allocator<ioHashString> > >::operator++
_TEXT	ENDS
PUBLIC	??$_Destroy@UForceInfo@@@std@@YAXPAUForceInfo@@@Z ; std::_Destroy<ForceInfo>
; Function compile flags: /Ogsp
; File c:\program files (x86)\microsoft visual studio 10.0\vc\include\xmemory
;	COMDAT ??$_Destroy@UForceInfo@@@std@@YAXPAUForceInfo@@@Z
_TEXT	SEGMENT
__Ptr$ = 8						; size = 4
??$_Destroy@UForceInfo@@@std@@YAXPAUForceInfo@@@Z PROC	; std::_Destroy<ForceInfo>, COMDAT

; 63   : 	_Ptr->~_Ty();
; 64   : 	}

  00000	c3		 ret	 0
??$_Destroy@UForceInfo@@@std@@YAXPAUForceInfo@@@Z ENDP	; std::_Destroy<ForceInfo>
_TEXT	ENDS
PUBLIC	??_GioHashString@@QAEPAXI@Z			; ioHashString::`scalar deleting destructor'
; Function compile flags: /Ogsp
;	COMDAT ??_GioHashString@@QAEPAXI@Z
_TEXT	SEGMENT
___flags$ = 8						; size = 4
??_GioHashString@@QAEPAXI@Z PROC			; ioHashString::`scalar deleting destructor', COMDAT
; _this$ = ecx
  00000	55		 push	 ebp
  00001	8b ec		 mov	 ebp, esp
  00003	56		 push	 esi
  00004	8b f1		 mov	 esi, ecx
  00006	ff 15 00 00 00
	00		 call	 DWORD PTR __imp_??1ioHashString@@QAE@XZ
  0000c	f6 45 08 01	 test	 BYTE PTR ___flags$[ebp], 1
  00010	74 07		 je	 SHORT $LN1@scalar@4
  00012	56		 push	 esi
  00013	e8 00 00 00 00	 call	 ??3@YAXPAX@Z		; operator delete
  00018	59		 pop	 ecx
$LN1@scalar@4:
  00019	8b c6		 mov	 eax, esi
  0001b	5e		 pop	 esi
  0001c	5d		 pop	 ebp
  0001d	c2 04 00	 ret	 4
??_GioHashString@@QAEPAXI@Z ENDP			; ioHashString::`scalar deleting destructor'
_TEXT	ENDS
PUBLIC	??_GWeaponInfo@@QAEPAXI@Z			; WeaponInfo::`scalar deleting destructor'
; Function compile flags: /Ogsp
;	COMDAT ??_GWeaponInfo@@QAEPAXI@Z
_TEXT	SEGMENT
___flags$ = 8						; size = 4
??_GWeaponInfo@@QAEPAXI@Z PROC				; WeaponInfo::`scalar deleting destructor', COMDAT
; _this$ = ecx
  00000	55		 push	 ebp
  00001	8b ec		 mov	 ebp, esp
  00003	56		 push	 esi
  00004	8b f1		 mov	 esi, ecx
  00006	8d 4e 08	 lea	 ecx, DWORD PTR [esi+8]
  00009	ff 15 00 00 00
	00		 call	 DWORD PTR __imp_??1ioHashString@@QAE@XZ
  0000f	f6 45 08 01	 test	 BYTE PTR ___flags$[ebp], 1
  00013	74 07		 je	 SHORT $LN1@scalar@5
  00015	56		 push	 esi
  00016	e8 00 00 00 00	 call	 ??3@YAXPAX@Z		; operator delete
  0001b	59		 pop	 ecx
$LN1@scalar@5:
  0001c	8b c6		 mov	 eax, esi
  0001e	5e		 pop	 esi
  0001f	5d		 pop	 ebp
  00020	c2 04 00	 ret	 4
??_GWeaponInfo@@QAEPAXI@Z ENDP				; WeaponInfo::`scalar deleting destructor'
_TEXT	ENDS
PUBLIC	??$_Construct@VioHashString@@ABV1@@std@@YAXPAVioHashString@@ABV1@@Z ; std::_Construct<ioHashString,ioHashString const &>
EXTRN	__EH_epilog3:PROC
EXTRN	__EH_prolog3:PROC
;	COMDAT xdata$x
; File c:\program files (x86)\microsoft visual studio 10.0\vc\include\utility
xdata$x	SEGMENT
__unwindtable$??$_Construct@VioHashString@@ABV1@@std@@YAXPAVioHashString@@ABV1@@Z DD 0ffffffffH
	DD	FLAT:__unwindfunclet$??$_Construct@VioHashString@@ABV1@@std@@YAXPAVioHashString@@ABV1@@Z$0
__ehfuncinfo$??$_Construct@VioHashString@@ABV1@@std@@YAXPAVioHashString@@ABV1@@Z DD 019930522H
	DD	01H
	DD	FLAT:__unwindtable$??$_Construct@VioHashString@@ABV1@@std@@YAXPAVioHashString@@ABV1@@Z
	DD	2 DUP(00H)
	DD	2 DUP(00H)
	DD	00H
	DD	01H
; Function compile flags: /Ogsp
; File c:\program files (x86)\microsoft visual studio 10.0\vc\include\xmemory
xdata$x	ENDS
;	COMDAT ??$_Construct@VioHashString@@ABV1@@std@@YAXPAVioHashString@@ABV1@@Z
_TEXT	SEGMENT
$T554660 = -16						; size = 4
__$EHRec$ = -12						; size = 12
__Vptr$ = 8						; size = 4
__Ptr$ = 8						; size = 4
__Val$ = 12						; size = 4
??$_Construct@VioHashString@@ABV1@@std@@YAXPAVioHashString@@ABV1@@Z PROC ; std::_Construct<ioHashString,ioHashString const &>, COMDAT

; 46   : 	{	// construct object at _Ptr with value _Val

  00000	6a 04		 push	 4
  00002	b8 00 00 00 00	 mov	 eax, __ehhandler$??$_Construct@VioHashString@@ABV1@@std@@YAXPAVioHashString@@ABV1@@Z
  00007	e8 00 00 00 00	 call	 __EH_prolog3

; 47   : 	void _FARQ *_Vptr = _Ptr;

  0000c	8b 4d 08	 mov	 ecx, DWORD PTR __Ptr$[ebp]
  0000f	89 4d 08	 mov	 DWORD PTR __Vptr$[ebp], ecx

; 48   : 	::new (_Vptr) _Ty1(_STD forward<_Ty2>(_Val));

  00012	89 4d f0	 mov	 DWORD PTR $T554660[ebp], ecx
  00015	83 65 fc 00	 and	 DWORD PTR __$EHRec$[ebp+8], 0
  00019	85 c9		 test	 ecx, ecx
  0001b	74 09		 je	 SHORT $LN3@Construct@2
  0001d	ff 75 0c	 push	 DWORD PTR __Val$[ebp]
  00020	ff 15 00 00 00
	00		 call	 DWORD PTR __imp_??0ioHashString@@QAE@ABV0@@Z
$LN3@Construct@2:

; 49   : 	}

  00026	e8 00 00 00 00	 call	 __EH_epilog3
  0002b	c3		 ret	 0
_TEXT	ENDS
;	COMDAT text$x
text$x	SEGMENT
__unwindfunclet$??$_Construct@VioHashString@@ABV1@@std@@YAXPAVioHashString@@ABV1@@Z$0:
  00000	ff 75 08	 push	 DWORD PTR __Vptr$[ebp]
  00003	ff 75 f0	 push	 DWORD PTR $T554660[ebp]
  00006	e8 00 00 00 00	 call	 ??3@YAXPAX0@Z		; operator delete
  0000b	59		 pop	 ecx
  0000c	59		 pop	 ecx
  0000d	c3		 ret	 0
__ehhandler$??$_Construct@VioHashString@@ABV1@@std@@YAXPAVioHashString@@ABV1@@Z:
  0000e	8b 54 24 08	 mov	 edx, DWORD PTR [esp+8]
  00012	8d 42 0c	 lea	 eax, DWORD PTR [edx+12]
  00015	8b 4a ec	 mov	 ecx, DWORD PTR [edx-20]
  00018	33 c8		 xor	 ecx, eax
  0001a	e8 00 00 00 00	 call	 @__security_check_cookie@4
  0001f	b8 00 00 00 00	 mov	 eax, OFFSET __ehfuncinfo$??$_Construct@VioHashString@@ABV1@@std@@YAXPAVioHashString@@ABV1@@Z
  00024	e9 00 00 00 00	 jmp	 ___CxxFrameHandler3
text$x	ENDS
??$_Construct@VioHashString@@ABV1@@std@@YAXPAVioHashString@@ABV1@@Z ENDP ; std::_Construct<ioHashString,ioHashString const &>
PUBLIC	??0WeaponInfo@@QAE@ABU0@@Z			; WeaponInfo::WeaponInfo
; Function compile flags: /Ogsp
;	COMDAT ??0WeaponInfo@@QAE@ABU0@@Z
_TEXT	SEGMENT
___that$ = 8						; size = 4
??0WeaponInfo@@QAE@ABU0@@Z PROC				; WeaponInfo::WeaponInfo, COMDAT
; _this$ = ecx
  00000	55		 push	 ebp
  00001	8b ec		 mov	 ebp, esp
  00003	56		 push	 esi
  00004	57		 push	 edi
  00005	8b 7d 08	 mov	 edi, DWORD PTR ___that$[ebp]
  00008	8b 07		 mov	 eax, DWORD PTR [edi]
  0000a	8b f1		 mov	 esi, ecx
  0000c	89 06		 mov	 DWORD PTR [esi], eax
  0000e	8b 47 04	 mov	 eax, DWORD PTR [edi+4]
  00011	89 46 04	 mov	 DWORD PTR [esi+4], eax
  00014	8d 47 08	 lea	 eax, DWORD PTR [edi+8]
  00017	50		 push	 eax
  00018	8d 4e 08	 lea	 ecx, DWORD PTR [esi+8]
  0001b	ff 15 00 00 00
	00		 call	 DWORD PTR __imp_??0ioHashString@@QAE@ABV0@@Z
  00021	8b 47 18	 mov	 eax, DWORD PTR [edi+24]
  00024	89 46 18	 mov	 DWORD PTR [esi+24], eax
  00027	8b 47 1c	 mov	 eax, DWORD PTR [edi+28]
  0002a	89 46 1c	 mov	 DWORD PTR [esi+28], eax
  0002d	8a 47 20	 mov	 al, BYTE PTR [edi+32]
  00030	88 46 20	 mov	 BYTE PTR [esi+32], al
  00033	8b 47 24	 mov	 eax, DWORD PTR [edi+36]
  00036	89 46 24	 mov	 DWORD PTR [esi+36], eax
  00039	5f		 pop	 edi
  0003a	8b c6		 mov	 eax, esi
  0003c	5e		 pop	 esi
  0003d	5d		 pop	 ebp
  0003e	c2 04 00	 ret	 4
??0WeaponInfo@@QAE@ABU0@@Z ENDP				; WeaponInfo::WeaponInfo
_TEXT	ENDS
PUBLIC	__real@3f800000
PUBLIC	__real@42c80000
PUBLIC	__$ArrayPad$
PUBLIC	?ChangeToGathering@ioLeeSunSin@@IAEXPAVioBaseChar@@@Z ; ioLeeSunSin::ChangeToGathering
EXTRN	__imp_?SetLoopAni@ioEntityGroup@@QAE_NABVioHashString@@MMMM@Z:PROC
EXTRN	__imp_?ClearAllLoopAni@ioEntityGroup@@QAEXM_N@Z:PROC
EXTRN	__imp_?ClearAllActionAni@ioEntityGroup@@QAEXM_N@Z:PROC
EXTRN	?StopAutoTargetTracking@ioBaseChar@@QAEXXZ:PROC	; ioBaseChar::StopAutoTargetTracking
;	COMDAT __real@3f800000
; File d:\lost saga for developer\youtube\tutorial\source\src\lsclient\iobasechar.h
CONST	SEGMENT
__real@3f800000 DD 03f800000r			; 1
CONST	ENDS
;	COMDAT __real@42c80000
CONST	SEGMENT
__real@42c80000 DD 042c80000r			; 100
CONST	ENDS
;	COMDAT xdata$x
xdata$x	SEGMENT
__unwindtable$?ChangeToGathering@ioLeeSunSin@@IAEXPAVioBaseChar@@@Z DD 0ffffffffH
	DD	FLAT:__unwindfunclet$?ChangeToGathering@ioLeeSunSin@@IAEXPAVioBaseChar@@@Z$0
__ehfuncinfo$?ChangeToGathering@ioLeeSunSin@@IAEXPAVioBaseChar@@@Z DD 019930522H
	DD	01H
	DD	FLAT:__unwindtable$?ChangeToGathering@ioLeeSunSin@@IAEXPAVioBaseChar@@@Z
	DD	2 DUP(00H)
	DD	2 DUP(00H)
	DD	00H
	DD	01H
; Function compile flags: /Ogsp
; File d:\lost saga for developer\youtube\tutorial\source\src\lsclient\ioleesunsin.cpp
xdata$x	ENDS
;	COMDAT ?ChangeToGathering@ioLeeSunSin@@IAEXPAVioBaseChar@@@Z
_TEXT	SEGMENT
_kPacket$549660 = -32808				; size = 32792
__$ArrayPad$ = -16					; size = 4
__$EHRec$ = -12						; size = 12
_pOwner$ = 8						; size = 4
?ChangeToGathering@ioLeeSunSin@@IAEXPAVioBaseChar@@@Z PROC ; ioLeeSunSin::ChangeToGathering, COMDAT
; _this$ = ecx

; 330  : {

  00000	55		 push	 ebp
  00001	8b ec		 mov	 ebp, esp
  00003	6a ff		 push	 -1
  00005	68 00 00 00 00	 push	 __ehhandler$?ChangeToGathering@ioLeeSunSin@@IAEXPAVioBaseChar@@@Z
  0000a	64 a1 00 00 00
	00		 mov	 eax, DWORD PTR fs:0
  00010	50		 push	 eax
  00011	b8 1c 80 00 00	 mov	 eax, 32796		; 0000801cH
  00016	e8 00 00 00 00	 call	 __chkstk
  0001b	a1 00 00 00 00	 mov	 eax, DWORD PTR ___security_cookie
  00020	33 c5		 xor	 eax, ebp
  00022	89 45 f0	 mov	 DWORD PTR __$ArrayPad$[ebp], eax
  00025	53		 push	 ebx
  00026	56		 push	 esi
  00027	57		 push	 edi
  00028	50		 push	 eax
  00029	8d 45 f4	 lea	 eax, DWORD PTR __$EHRec$[ebp]
  0002c	64 a3 00 00 00
	00		 mov	 DWORD PTR fs:0, eax
  00032	8b 7d 08	 mov	 edi, DWORD PTR _pOwner$[ebp]
  00035	8b f1		 mov	 esi, ecx

; 331  : 	pOwner->StopAutoTargetTracking();

  00037	8b cf		 mov	 ecx, edi
  00039	e8 00 00 00 00	 call	 ?StopAutoTargetTracking@ioBaseChar@@QAEXXZ ; ioBaseChar::StopAutoTargetTracking

; 332  : 
; 333  : 	ioEntityGroup *pGrp = pOwner->GetGroup();

  0003e	8b 5f 04	 mov	 ebx, DWORD PTR [edi+4]

; 334  : 	pGrp->ClearAllActionAni( 100.0f, true );

  00041	f3 0f 10 05 00
	00 00 00	 movss	 xmm0, DWORD PTR __real@42c80000
  00049	6a 01		 push	 1
  0004b	51		 push	 ecx
  0004c	8b cb		 mov	 ecx, ebx
  0004e	f3 0f 11 04 24	 movss	 DWORD PTR [esp], xmm0
  00053	ff 15 00 00 00
	00		 call	 DWORD PTR __imp_?ClearAllActionAni@ioEntityGroup@@QAEXM_N@Z

; 335  : 	pGrp->ClearAllLoopAni( 100.0f, true );

  00059	f3 0f 10 05 00
	00 00 00	 movss	 xmm0, DWORD PTR __real@42c80000
  00061	6a 01		 push	 1
  00063	51		 push	 ecx
  00064	8b cb		 mov	 ecx, ebx
  00066	f3 0f 11 04 24	 movss	 DWORD PTR [esp], xmm0
  0006b	ff 15 00 00 00
	00		 call	 DWORD PTR __imp_?ClearAllLoopAni@ioEntityGroup@@QAEXM_N@Z

; 336  : 	pGrp->SetLoopAni( m_GatherAnimation, 100.0f );

  00071	0f 57 c0	 xorps	 xmm0, xmm0
  00074	83 ec 10	 sub	 esp, 16			; 00000010H
  00077	f3 0f 11 44 24
	0c		 movss	 DWORD PTR [esp+12], xmm0
  0007d	f3 0f 10 05 00
	00 00 00	 movss	 xmm0, DWORD PTR __real@3f800000
  00085	f3 0f 11 44 24
	08		 movss	 DWORD PTR [esp+8], xmm0
  0008b	f3 0f 11 44 24
	04		 movss	 DWORD PTR [esp+4], xmm0
  00091	f3 0f 10 05 00
	00 00 00	 movss	 xmm0, DWORD PTR __real@42c80000
  00099	8d 86 d4 19 00
	00		 lea	 eax, DWORD PTR [esi+6612]
  0009f	f3 0f 11 04 24	 movss	 DWORD PTR [esp], xmm0
  000a4	50		 push	 eax
  000a5	8b cb		 mov	 ecx, ebx
  000a7	ff 15 00 00 00
	00		 call	 DWORD PTR __imp_?SetLoopAni@ioEntityGroup@@QAE_NABVioHashString@@MMMM@Z

; 337  : 	EndEffect( pOwner );

  000ad	57		 push	 edi
  000ae	8b ce		 mov	 ecx, esi
  000b0	e8 00 00 00 00	 call	 ?EndEffect@ioLeeSunSin@@QAEXPAVioBaseChar@@@Z ; ioLeeSunSin::EndEffect

; 338  : 
; 339  : 	m_bCurrMaxEffect = false;
; 340  : 	 ioEffect* pEffect = pOwner->AttachEffect( m_GatherEffect );

  000b5	33 db		 xor	 ebx, ebx
  000b7	43		 inc	 ebx
  000b8	53		 push	 ebx
  000b9	6a 00		 push	 0
  000bb	8d 86 e4 19 00
	00		 lea	 eax, DWORD PTR [esi+6628]
  000c1	50		 push	 eax
  000c2	8b cf		 mov	 ecx, edi
  000c4	c6 86 08 1a 00
	00 00		 mov	 BYTE PTR [esi+6664], 0
  000cb	e8 00 00 00 00	 call	 ?AttachEffect@ioBaseChar@@QAEPAVioEffect@@ABVioHashString@@PAVioEntityEvent@@_N@Z ; ioBaseChar::AttachEffect

; 341  : 	 if( pEffect )

  000d0	85 c0		 test	 eax, eax
  000d2	74 0f		 je	 SHORT $LN2@ChangeToGa@4

; 342  : 	{
; 343  : 		m_GatherEffectID = pEffect->GetUniqueID();

  000d4	8d 48 14	 lea	 ecx, DWORD PTR [eax+20]
  000d7	ff 15 00 00 00
	00		 call	 DWORD PTR __imp_?GetUniqueID@ioMovableObject@@QBEKXZ
  000dd	89 86 04 1a 00
	00		 mov	 DWORD PTR [esi+6660], eax
$LN2@ChangeToGa@4:

; 344  : 	 }
; 345  : 
; 346  : 	m_ChargeState	= CS_GATHERING;

  000e3	c7 86 54 19 00
	00 05 00 00 00	 mov	 DWORD PTR [esi+6484], 5

; 347  : 	m_GatherState	= GS_GATHER;

  000ed	89 9e 58 19 00
	00		 mov	 DWORD PTR [esi+6488], ebx

; 348  : 
; 349  : 	if( pOwner->IsNeedSendNetwork() )

  000f3	8b 07		 mov	 eax, DWORD PTR [edi]
  000f5	8b cf		 mov	 ecx, edi
  000f7	ff 90 04 01 00
	00		 call	 DWORD PTR [eax+260]
  000fd	84 c0		 test	 al, al
  000ff	74 60		 je	 SHORT $LN1@ChangeToGa@4

; 350  : 	{
; 351  : 		SP2Packet kPacket( CUPK_ITEM_GAUGE_OK );

  00101	68 27 41 00 00	 push	 16679			; 00004127H
  00106	8d 8d d8 7f ff
	ff		 lea	 ecx, DWORD PTR _kPacket$549660[ebp]
  0010c	e8 00 00 00 00	 call	 ??0SP2Packet@@QAE@K@Z	; SP2Packet::SP2Packet
  00111	83 65 fc 00	 and	 DWORD PTR __$EHRec$[ebp+8], 0

; 352  : 		FillItemGaugePacketHeader( pOwner, kPacket );

  00115	8d 85 d8 7f ff
	ff		 lea	 eax, DWORD PTR _kPacket$549660[ebp]
  0011b	50		 push	 eax
  0011c	57		 push	 edi
  0011d	8b ce		 mov	 ecx, esi
  0011f	e8 00 00 00 00	 call	 ?FillItemGaugePacketHeader@ioAttackableItem@@QAEXPAVioBaseChar@@AAVSP2Packet@@@Z ; ioAttackableItem::FillItemGaugePacketHeader

; 353  : 		kPacket << static_cast<byte>( SS_GATHERING );

  00124	53		 push	 ebx
  00125	8d 8d d8 7f ff
	ff		 lea	 ecx, DWORD PTR _kPacket$549660[ebp]
  0012b	e8 00 00 00 00	 call	 ??6SP2Packet@@QAEAAV0@E@Z ; SP2Packet::operator<<

; 354  : 		kPacket << pOwner->GetTargetRot();

  00130	81 c7 a4 06 00
	00		 add	 edi, 1700		; 000006a4H
  00136	57		 push	 edi
  00137	8d 8d d8 7f ff
	ff		 lea	 ecx, DWORD PTR _kPacket$549660[ebp]
  0013d	e8 00 00 00 00	 call	 ??6SP2Packet@@QAEAAV0@ABUD3DXQUATERNION@@@Z ; SP2Packet::operator<<

; 355  : 		P2PNetwork::SendToAllPlayingUser( kPacket );

  00142	8d 85 d8 7f ff
	ff		 lea	 eax, DWORD PTR _kPacket$549660[ebp]
  00148	6a 00		 push	 0
  0014a	50		 push	 eax
  0014b	e8 00 00 00 00	 call	 ?SendToAllPlayingUser@P2PNetwork@@YAXAAVSP2Packet@@PAVioBaseChar@@@Z ; P2PNetwork::SendToAllPlayingUser

; 356  : 	}

  00150	83 4d fc ff	 or	 DWORD PTR __$EHRec$[ebp+8], -1
  00154	59		 pop	 ecx
  00155	59		 pop	 ecx
  00156	8d 8d d8 7f ff
	ff		 lea	 ecx, DWORD PTR _kPacket$549660[ebp]
  0015c	e8 00 00 00 00	 call	 ??1SP2Packet@@UAE@XZ	; SP2Packet::~SP2Packet
$LN1@ChangeToGa@4:

; 357  : }

  00161	8b 4d f4	 mov	 ecx, DWORD PTR __$EHRec$[ebp]
  00164	64 89 0d 00 00
	00 00		 mov	 DWORD PTR fs:0, ecx
  0016b	59		 pop	 ecx
  0016c	5f		 pop	 edi
  0016d	5e		 pop	 esi
  0016e	5b		 pop	 ebx
  0016f	8b 4d f0	 mov	 ecx, DWORD PTR __$ArrayPad$[ebp]
  00172	33 cd		 xor	 ecx, ebp
  00174	e8 00 00 00 00	 call	 @__security_check_cookie@4
  00179	c9		 leave
  0017a	c2 04 00	 ret	 4
_TEXT	ENDS
;	COMDAT text$x
text$x	SEGMENT
__unwindfunclet$?ChangeToGathering@ioLeeSunSin@@IAEXPAVioBaseChar@@@Z$0:
  00000	8d 8d d8 7f ff
	ff		 lea	 ecx, DWORD PTR _kPacket$549660[ebp]
  00006	e9 00 00 00 00	 jmp	 ??1SP2Packet@@UAE@XZ	; SP2Packet::~SP2Packet
__ehhandler$?ChangeToGathering@ioLeeSunSin@@IAEXPAVioBaseChar@@@Z:
  0000b	8b 54 24 08	 mov	 edx, DWORD PTR [esp+8]
  0000f	8d 42 0c	 lea	 eax, DWORD PTR [edx+12]
  00012	8b 8a d4 7f ff
	ff		 mov	 ecx, DWORD PTR [edx-32812]
  00018	33 c8		 xor	 ecx, eax
  0001a	e8 00 00 00 00	 call	 @__security_check_cookie@4
  0001f	8b 4a fc	 mov	 ecx, DWORD PTR [edx-4]
  00022	33 c8		 xor	 ecx, eax
  00024	e8 00 00 00 00	 call	 @__security_check_cookie@4
  00029	b8 00 00 00 00	 mov	 eax, OFFSET __ehfuncinfo$?ChangeToGathering@ioLeeSunSin@@IAEXPAVioBaseChar@@@Z
  0002e	e9 00 00 00 00	 jmp	 ___CxxFrameHandler3
text$x	ENDS
?ChangeToGathering@ioLeeSunSin@@IAEXPAVioBaseChar@@@Z ENDP ; ioLeeSunSin::ChangeToGathering
PUBLIC	?OnAsulltAttack@ioLeeSunSin@@IAEXPAVioBaseChar@@@Z ; ioLeeSunSin::OnAsulltAttack
EXTRN	?SetState@ioBaseChar@@QAEXH_N@Z:PROC		; ioBaseChar::SetState
EXTRN	?IsAttackKeyDown@ioBaseChar@@QBE_NXZ:PROC	; ioBaseChar::IsAttackKeyDown
; Function compile flags: /Ogsp
;	COMDAT ?OnAsulltAttack@ioLeeSunSin@@IAEXPAVioBaseChar@@@Z
_TEXT	SEGMENT
_pOwner$ = 8						; size = 4
?OnAsulltAttack@ioLeeSunSin@@IAEXPAVioBaseChar@@@Z PROC	; ioLeeSunSin::OnAsulltAttack, COMDAT
; _this$ = ecx

; 490  : {

  00000	55		 push	 ebp
  00001	8b ec		 mov	 ebp, esp
  00003	53		 push	 ebx

; 491  : 	if( !pOwner || !pOwner->IsNeedProcess() )

  00004	8b 5d 08	 mov	 ebx, DWORD PTR _pOwner$[ebp]
  00007	56		 push	 esi
  00008	8b f1		 mov	 esi, ecx
  0000a	85 db		 test	 ebx, ebx
  0000c	74 55		 je	 SHORT $LN4@OnAsulltAt
  0000e	8b 03		 mov	 eax, DWORD PTR [ebx]
  00010	8b cb		 mov	 ecx, ebx
  00012	ff 90 00 01 00
	00		 call	 DWORD PTR [eax+256]
  00018	84 c0		 test	 al, al
  0001a	74 47		 je	 SHORT $LN4@OnAsulltAt

; 492  : 		return;
; 493  : 
; 494  : 	if( 0 < m_dwExtendAttackEnd && m_dwExtendAttackEnd < FRAMEGETTIME() )

  0001c	83 be a0 1b 00
	00 00		 cmp	 DWORD PTR [esi+7072], 0
  00023	57		 push	 edi
  00024	76 3c		 jbe	 SHORT $LN8@OnAsulltAt
  00026	ff 15 00 00 00
	00		 call	 DWORD PTR __imp_?GetSingleton@ioFrameTimer@@SAAAV1@XZ
  0002c	8b c8		 mov	 ecx, eax
  0002e	ff 15 00 00 00
	00		 call	 DWORD PTR __imp_?GetLoopSec@ioFrameTimer@@QBEKXZ
  00034	39 86 a0 1b 00
	00		 cmp	 DWORD PTR [esi+7072], eax
  0003a	73 26		 jae	 SHORT $LN8@OnAsulltAt

; 495  : 	{
; 496  : 		if( pOwner->IsAttackKeyDown() )

  0003c	8b cb		 mov	 ecx, ebx
  0003e	e8 00 00 00 00	 call	 ?IsAttackKeyDown@ioBaseChar@@QBE_NXZ ; ioBaseChar::IsAttackKeyDown
  00043	84 c0		 test	 al, al
  00045	74 10		 je	 SHORT $LN2@OnAsulltAt

; 497  : 		{
; 498  : 			m_dwAssultDashCurrCount++;

  00047	ff 86 a8 1b 00
	00		 inc	 DWORD PTR [esi+7080]

; 499  : 			ChangeToGathering( pOwner );

  0004d	53		 push	 ebx
  0004e	8b ce		 mov	 ecx, esi
  00050	e8 00 00 00 00	 call	 ?ChangeToGathering@ioLeeSunSin@@IAEXPAVioBaseChar@@@Z ; ioLeeSunSin::ChangeToGathering

; 500  : 		}
; 501  : 		else

  00055	eb 0b		 jmp	 SHORT $LN8@OnAsulltAt
$LN2@OnAsulltAt:

; 502  : 		{
; 503  : 			pOwner->SetState( CS_DELAY );

  00057	6a 01		 push	 1
  00059	6a 00		 push	 0
  0005b	8b cb		 mov	 ecx, ebx
  0005d	e8 00 00 00 00	 call	 ?SetState@ioBaseChar@@QAEXH_N@Z ; ioBaseChar::SetState
$LN8@OnAsulltAt:
  00062	5f		 pop	 edi
$LN4@OnAsulltAt:
  00063	5e		 pop	 esi
  00064	5b		 pop	 ebx

; 504  : 		}
; 505  : 	}
; 506  : }

  00065	5d		 pop	 ebp
  00066	c2 04 00	 ret	 4
?OnAsulltAttack@ioLeeSunSin@@IAEXPAVioBaseChar@@@Z ENDP	; ioLeeSunSin::OnAsulltAttack
_TEXT	ENDS
PUBLIC	__real@4f800000
PUBLIC	__real@3ff0000000000000
PUBLIC	__real@41200000
PUBLIC	_szAnmationName$GSCopy$
PUBLIC	__$ArrayPad$
PUBLIC	?ChangeToWoundedPreState@ioLeeSunSin@@IAEXPAVioBaseChar@@ABVioHashString@@M@Z ; ioLeeSunSin::ChangeToWoundedPreState
EXTRN	??6SP2Packet@@QAEAAV0@M@Z:PROC			; SP2Packet::operator<<
EXTRN	??6SP2Packet@@QAEAAV0@ABVioHashString@@@Z:PROC	; SP2Packet::operator<<
EXTRN	__imp_?GetAnimationFullTime@ioEntityGroup@@QAEMH@Z:PROC
EXTRN	__imp_?SetActionAni@ioEntityGroup@@QAE_NHMMMMMM_N0@Z:PROC
EXTRN	__imp_?GetAnimationIdx@ioEntityGroup@@QAEHABVioHashString@@@Z:PROC
EXTRN	__ftol2:PROC
;	COMDAT __real@4f800000
; File d:\lost saga for developer\youtube\tutorial\source\src\lsclient\iobasechar.h
CONST	SEGMENT
__real@4f800000 DD 04f800000r			; 4.29497e+009
CONST	ENDS
;	COMDAT __real@3ff0000000000000
CONST	SEGMENT
__real@3ff0000000000000 DQ 03ff0000000000000r	; 1
CONST	ENDS
;	COMDAT __real@41200000
CONST	SEGMENT
__real@41200000 DD 041200000r			; 10
CONST	ENDS
;	COMDAT xdata$x
xdata$x	SEGMENT
__unwindtable$?ChangeToWoundedPreState@ioLeeSunSin@@IAEXPAVioBaseChar@@ABVioHashString@@M@Z DD 0ffffffffH
	DD	FLAT:__unwindfunclet$?ChangeToWoundedPreState@ioLeeSunSin@@IAEXPAVioBaseChar@@ABVioHashString@@M@Z$0
__ehfuncinfo$?ChangeToWoundedPreState@ioLeeSunSin@@IAEXPAVioBaseChar@@ABVioHashString@@M@Z DD 019930522H
	DD	01H
	DD	FLAT:__unwindtable$?ChangeToWoundedPreState@ioLeeSunSin@@IAEXPAVioBaseChar@@ABVioHashString@@M@Z
	DD	2 DUP(00H)
	DD	2 DUP(00H)
	DD	00H
	DD	01H
; Function compile flags: /Ogsp
; File d:\lost saga for developer\youtube\tutorial\source\src\lsclient\ioleesunsin.cpp
xdata$x	ENDS
;	COMDAT ?ChangeToWoundedPreState@ioLeeSunSin@@IAEXPAVioBaseChar@@ABVioHashString@@M@Z
_TEXT	SEGMENT
tv137 = -32824						; size = 8
tv195 = -32820						; size = 4
_iAniID$ = -32816					; size = 4
_szAnmationName$GSCopy$ = -32812			; size = 4
_kPacket$549803 = -32808				; size = 32792
__$ArrayPad$ = -16					; size = 4
__$EHRec$ = -12						; size = 12
_pOwner$ = 8						; size = 4
_szAnmationName$ = 12					; size = 4
_fTimeRate$ = 16					; size = 4
?ChangeToWoundedPreState@ioLeeSunSin@@IAEXPAVioBaseChar@@ABVioHashString@@M@Z PROC ; ioLeeSunSin::ChangeToWoundedPreState, COMDAT
; _this$ = ecx

; 675  : {

  00000	55		 push	 ebp
  00001	8b ec		 mov	 ebp, esp
  00003	6a ff		 push	 -1
  00005	68 00 00 00 00	 push	 __ehhandler$?ChangeToWoundedPreState@ioLeeSunSin@@IAEXPAVioBaseChar@@ABVioHashString@@M@Z
  0000a	64 a1 00 00 00
	00		 mov	 eax, DWORD PTR fs:0
  00010	50		 push	 eax
  00011	b8 2c 80 00 00	 mov	 eax, 32812		; 0000802cH
  00016	e8 00 00 00 00	 call	 __chkstk
  0001b	a1 00 00 00 00	 mov	 eax, DWORD PTR ___security_cookie
  00020	33 c5		 xor	 eax, ebp
  00022	89 45 f0	 mov	 DWORD PTR __$ArrayPad$[ebp], eax
  00025	53		 push	 ebx
  00026	56		 push	 esi
  00027	57		 push	 edi
  00028	50		 push	 eax
  00029	8d 45 f4	 lea	 eax, DWORD PTR __$EHRec$[ebp]
  0002c	64 a3 00 00 00
	00		 mov	 DWORD PTR fs:0, eax
  00032	8b 75 08	 mov	 esi, DWORD PTR _pOwner$[ebp]
  00035	8b 45 0c	 mov	 eax, DWORD PTR _szAnmationName$[ebp]
  00038	8b d9		 mov	 ebx, ecx

; 690  : 	{
; 691  : 		SP2Packet kPacket( CUPK_ITEM_GAUGE_OK );

  0003a	89 85 d4 7f ff
	ff		 mov	 DWORD PTR _szAnmationName$GSCopy$[ebp], eax
  00040	85 f6		 test	 esi, esi
  00042	0f 84 93 01 00
	00		 je	 $LN1@ChangeToWo

; 676  : 	if( !pOwner )
; 677  : 		return;
; 678  : 
; 679  : 	ioEntityGroup *pGrp = pOwner->GetGroup();
; 680  : 	if( !pGrp )

  00048	8b 7e 04	 mov	 edi, DWORD PTR [esi+4]
  0004b	85 ff		 test	 edi, edi
  0004d	0f 84 88 01 00
	00		 je	 $LN1@ChangeToWo

; 681  : 		return;
; 682  : 
; 683  : 	pGrp->ClearAllLoopAni( 10.0f, true );

  00053	f3 0f 10 05 00
	00 00 00	 movss	 xmm0, DWORD PTR __real@41200000
  0005b	6a 01		 push	 1
  0005d	51		 push	 ecx
  0005e	8b cf		 mov	 ecx, edi
  00060	f3 0f 11 04 24	 movss	 DWORD PTR [esp], xmm0
  00065	ff 15 00 00 00
	00		 call	 DWORD PTR __imp_?ClearAllLoopAni@ioEntityGroup@@QAEXM_N@Z

; 684  : 	pGrp->ClearAllActionAni( 10.0f, true );

  0006b	f3 0f 10 05 00
	00 00 00	 movss	 xmm0, DWORD PTR __real@41200000
  00073	6a 01		 push	 1
  00075	51		 push	 ecx
  00076	8b cf		 mov	 ecx, edi
  00078	f3 0f 11 04 24	 movss	 DWORD PTR [esp], xmm0
  0007d	ff 15 00 00 00
	00		 call	 DWORD PTR __imp_?ClearAllActionAni@ioEntityGroup@@QAEXM_N@Z

; 685  : 	int iAniID = pGrp->GetAnimationIdx( szAnmationName );

  00083	ff b5 d4 7f ff
	ff		 push	 DWORD PTR _szAnmationName$GSCopy$[ebp]
  00089	8b cf		 mov	 ecx, edi
  0008b	ff 15 00 00 00
	00		 call	 DWORD PTR __imp_?GetAnimationIdx@ioEntityGroup@@QAEHABVioHashString@@@Z

; 686  : 	pGrp->SetActionAni( iAniID, 10.0f, 10.0f, 1.0f, 1.0f/fTimeRate, 0.0f, 0, true );

  00091	0f 57 c0	 xorps	 xmm0, xmm0
  00094	f2 0f 10 0d 00
	00 00 00	 movsd	 xmm1, QWORD PTR __real@3ff0000000000000
  0009c	6a 01		 push	 1
  0009e	6a 01		 push	 1
  000a0	83 ec 18	 sub	 esp, 24			; 00000018H
  000a3	f3 0f 11 44 24
	14		 movss	 DWORD PTR [esp+20], xmm0
  000a9	f3 0f 11 44 24
	10		 movss	 DWORD PTR [esp+16], xmm0
  000af	f3 0f 10 45 10	 movss	 xmm0, DWORD PTR _fTimeRate$[ebp]
  000b4	0f 5a c0	 cvtps2pd xmm0, xmm0
  000b7	f2 0f 5e c8	 divsd	 xmm1, xmm0
  000bb	8b cf		 mov	 ecx, edi
  000bd	89 85 d0 7f ff
	ff		 mov	 DWORD PTR _iAniID$[ebp], eax
  000c3	66 0f 5a c1	 cvtpd2ps xmm0, xmm1
  000c7	f3 0f 11 44 24
	0c		 movss	 DWORD PTR [esp+12], xmm0
  000cd	f3 0f 10 05 00
	00 00 00	 movss	 xmm0, DWORD PTR __real@3f800000
  000d5	f3 0f 11 44 24
	08		 movss	 DWORD PTR [esp+8], xmm0
  000db	f3 0f 10 05 00
	00 00 00	 movss	 xmm0, DWORD PTR __real@41200000
  000e3	f3 0f 11 44 24
	04		 movss	 DWORD PTR [esp+4], xmm0
  000e9	f3 0f 11 04 24	 movss	 DWORD PTR [esp], xmm0
  000ee	50		 push	 eax
  000ef	ff 15 00 00 00
	00		 call	 DWORD PTR __imp_?SetActionAni@ioEntityGroup@@QAE_NHMMMMMM_N0@Z

; 687  : 	m_dwWoundedPreEndTime = FRAMEGETTIME() + pGrp->GetAnimationFullTime( iAniID ) * fTimeRate;

  000f5	ff 15 00 00 00
	00		 call	 DWORD PTR __imp_?GetSingleton@ioFrameTimer@@SAAAV1@XZ
  000fb	8b c8		 mov	 ecx, eax
  000fd	ff 15 00 00 00
	00		 call	 DWORD PTR __imp_?GetLoopSec@ioFrameTimer@@QBEKXZ
  00103	89 85 cc 7f ff
	ff		 mov	 DWORD PTR tv195[ebp], eax
  00109	db 85 cc 7f ff
	ff		 fild	 DWORD PTR tv195[ebp]
  0010f	85 c0		 test	 eax, eax
  00111	79 06		 jns	 SHORT $LN12@ChangeToWo
  00113	d8 05 00 00 00
	00		 fadd	 DWORD PTR __real@4f800000
$LN12@ChangeToWo:
  00119	ff b5 d0 7f ff
	ff		 push	 DWORD PTR _iAniID$[ebp]
  0011f	dd 9d c8 7f ff
	ff		 fstp	 QWORD PTR tv137[ebp]
  00125	8b cf		 mov	 ecx, edi
  00127	ff 15 00 00 00
	00		 call	 DWORD PTR __imp_?GetAnimationFullTime@ioEntityGroup@@QAEMH@Z
  0012d	d8 4d 10	 fmul	 DWORD PTR _fTimeRate$[ebp]
  00130	dc 85 c8 7f ff
	ff		 fadd	 QWORD PTR tv137[ebp]
  00136	e8 00 00 00 00	 call	 __ftol2
  0013b	89 83 b8 1b 00
	00		 mov	 DWORD PTR [ebx+7096], eax

; 688  : 
; 689  : 	if( pOwner->IsNeedSendNetwork() )

  00141	8b 06		 mov	 eax, DWORD PTR [esi]
  00143	8b ce		 mov	 ecx, esi
  00145	ff 90 04 01 00
	00		 call	 DWORD PTR [eax+260]
  0014b	84 c0		 test	 al, al
  0014d	0f 84 88 00 00
	00		 je	 $LN1@ChangeToWo

; 690  : 	{
; 691  : 		SP2Packet kPacket( CUPK_ITEM_GAUGE_OK );

  00153	68 27 41 00 00	 push	 16679			; 00004127H
  00158	8d 8d d8 7f ff
	ff		 lea	 ecx, DWORD PTR _kPacket$549803[ebp]
  0015e	e8 00 00 00 00	 call	 ??0SP2Packet@@QAE@K@Z	; SP2Packet::SP2Packet
  00163	83 65 fc 00	 and	 DWORD PTR __$EHRec$[ebp+8], 0

; 692  : 		FillItemGaugePacketHeader( pOwner, kPacket );

  00167	8d 85 d8 7f ff
	ff		 lea	 eax, DWORD PTR _kPacket$549803[ebp]
  0016d	50		 push	 eax
  0016e	56		 push	 esi
  0016f	8b cb		 mov	 ecx, ebx
  00171	e8 00 00 00 00	 call	 ?FillItemGaugePacketHeader@ioAttackableItem@@QAEXPAVioBaseChar@@AAVSP2Packet@@@Z ; ioAttackableItem::FillItemGaugePacketHeader

; 693  : 		kPacket << static_cast<byte>( SS_WOUNDED_EXTEND_PRE );

  00176	6a 06		 push	 6
  00178	8d 8d d8 7f ff
	ff		 lea	 ecx, DWORD PTR _kPacket$549803[ebp]
  0017e	e8 00 00 00 00	 call	 ??6SP2Packet@@QAEAAV0@E@Z ; SP2Packet::operator<<

; 694  : 		kPacket << pOwner->GetTargetRot();

  00183	81 c6 a4 06 00
	00		 add	 esi, 1700		; 000006a4H
  00189	56		 push	 esi
  0018a	8d 8d d8 7f ff
	ff		 lea	 ecx, DWORD PTR _kPacket$549803[ebp]
  00190	e8 00 00 00 00	 call	 ??6SP2Packet@@QAEAAV0@ABUD3DXQUATERNION@@@Z ; SP2Packet::operator<<

; 695  : 		kPacket << szAnmationName;

  00195	ff b5 d4 7f ff
	ff		 push	 DWORD PTR _szAnmationName$GSCopy$[ebp]
  0019b	8d 8d d8 7f ff
	ff		 lea	 ecx, DWORD PTR _kPacket$549803[ebp]
  001a1	e8 00 00 00 00	 call	 ??6SP2Packet@@QAEAAV0@ABVioHashString@@@Z ; SP2Packet::operator<<

; 696  : 		kPacket << fTimeRate;

  001a6	f3 0f 10 45 10	 movss	 xmm0, DWORD PTR _fTimeRate$[ebp]
  001ab	51		 push	 ecx
  001ac	8d 8d d8 7f ff
	ff		 lea	 ecx, DWORD PTR _kPacket$549803[ebp]
  001b2	f3 0f 11 04 24	 movss	 DWORD PTR [esp], xmm0
  001b7	e8 00 00 00 00	 call	 ??6SP2Packet@@QAEAAV0@M@Z ; SP2Packet::operator<<

; 697  : 		P2PNetwork::SendToAllPlayingUser( kPacket );

  001bc	8d 85 d8 7f ff
	ff		 lea	 eax, DWORD PTR _kPacket$549803[ebp]
  001c2	6a 00		 push	 0
  001c4	50		 push	 eax
  001c5	e8 00 00 00 00	 call	 ?SendToAllPlayingUser@P2PNetwork@@YAXAAVSP2Packet@@PAVioBaseChar@@@Z ; P2PNetwork::SendToAllPlayingUser

; 698  : 	}

  001ca	83 4d fc ff	 or	 DWORD PTR __$EHRec$[ebp+8], -1
  001ce	59		 pop	 ecx
  001cf	59		 pop	 ecx
  001d0	8d 8d d8 7f ff
	ff		 lea	 ecx, DWORD PTR _kPacket$549803[ebp]
  001d6	e8 00 00 00 00	 call	 ??1SP2Packet@@UAE@XZ	; SP2Packet::~SP2Packet
$LN1@ChangeToWo:

; 699  : }

  001db	8b 4d f4	 mov	 ecx, DWORD PTR __$EHRec$[ebp]
  001de	64 89 0d 00 00
	00 00		 mov	 DWORD PTR fs:0, ecx
  001e5	59		 pop	 ecx
  001e6	5f		 pop	 edi
  001e7	5e		 pop	 esi
  001e8	5b		 pop	 ebx
  001e9	8b 4d f0	 mov	 ecx, DWORD PTR __$ArrayPad$[ebp]
  001ec	33 cd		 xor	 ecx, ebp
  001ee	e8 00 00 00 00	 call	 @__security_check_cookie@4
  001f3	c9		 leave
  001f4	c2 0c 00	 ret	 12			; 0000000cH
_TEXT	ENDS
;	COMDAT text$x
text$x	SEGMENT
__unwindfunclet$?ChangeToWoundedPreState@ioLeeSunSin@@IAEXPAVioBaseChar@@ABVioHashString@@M@Z$0:
  00000	8d 8d d8 7f ff
	ff		 lea	 ecx, DWORD PTR _kPacket$549803[ebp]
  00006	e9 00 00 00 00	 jmp	 ??1SP2Packet@@UAE@XZ	; SP2Packet::~SP2Packet
__ehhandler$?ChangeToWoundedPreState@ioLeeSunSin@@IAEXPAVioBaseChar@@ABVioHashString@@M@Z:
  0000b	8b 54 24 08	 mov	 edx, DWORD PTR [esp+8]
  0000f	8d 42 0c	 lea	 eax, DWORD PTR [edx+12]
  00012	8b 8a c4 7f ff
	ff		 mov	 ecx, DWORD PTR [edx-32828]
  00018	33 c8		 xor	 ecx, eax
  0001a	e8 00 00 00 00	 call	 @__security_check_cookie@4
  0001f	8b 4a fc	 mov	 ecx, DWORD PTR [edx-4]
  00022	33 c8		 xor	 ecx, eax
  00024	e8 00 00 00 00	 call	 @__security_check_cookie@4
  00029	b8 00 00 00 00	 mov	 eax, OFFSET __ehfuncinfo$?ChangeToWoundedPreState@ioLeeSunSin@@IAEXPAVioBaseChar@@ABVioHashString@@M@Z
  0002e	e9 00 00 00 00	 jmp	 ___CxxFrameHandler3
text$x	ENDS
?ChangeToWoundedPreState@ioLeeSunSin@@IAEXPAVioBaseChar@@ABVioHashString@@M@Z ENDP ; ioLeeSunSin::ChangeToWoundedPreState
PUBLIC	?OnWoundedExtensUseAddBuff@ioLeeSunSin@@IAEXPAVioBaseChar@@@Z ; ioLeeSunSin::OnWoundedExtensUseAddBuff
EXTRN	?AddNewBuff@ioBaseChar@@QAEPAVioBuff@@ABVioHashString@@00PAVioSkill@@_N@Z:PROC ; ioBaseChar::AddNewBuff
; Function compile flags: /Ogsp
;	COMDAT ?OnWoundedExtensUseAddBuff@ioLeeSunSin@@IAEXPAVioBaseChar@@@Z
_TEXT	SEGMENT
_i$549968 = -4						; size = 4
tv202 = 8						; size = 4
_pOwner$ = 8						; size = 4
?OnWoundedExtensUseAddBuff@ioLeeSunSin@@IAEXPAVioBaseChar@@@Z PROC ; ioLeeSunSin::OnWoundedExtensUseAddBuff, COMDAT
; _this$ = ecx

; 728  : {

  00000	55		 push	 ebp
  00001	8b ec		 mov	 ebp, esp
  00003	51		 push	 ecx

; 729  : 	for( int i = 0; i < (int)m_WoundedExtendUseBuffList.size(); ++i )

  00004	83 65 fc 00	 and	 DWORD PTR _i$549968[ebp], 0
  00008	56		 push	 esi
  00009	8b f1		 mov	 esi, ecx
  0000b	8b 86 d0 1b 00
	00		 mov	 eax, DWORD PTR [esi+7120]
  00011	2b 86 cc 1b 00
	00		 sub	 eax, DWORD PTR [esi+7116]
  00017	a9 f0 ff ff ff	 test	 eax, -16		; fffffff0H
  0001c	7e 49		 jle	 SHORT $LN1@OnWoundedE
  0001e	53		 push	 ebx
  0001f	8b 5d 08	 mov	 ebx, DWORD PTR _pOwner$[ebp]
  00022	83 65 08 00	 and	 DWORD PTR tv202[ebp], 0
  00026	57		 push	 edi
  00027	8d be 34 01 00
	00		 lea	 edi, DWORD PTR [esi+308]
$LL16@OnWoundedE:

; 730  : 		pOwner->AddNewBuff( m_WoundedExtendUseBuffList[i], pOwner->GetCharName(), GetName(), NULL );

  0002d	6a 00		 push	 0
  0002f	6a 00		 push	 0
  00031	57		 push	 edi
  00032	8d 83 d4 02 00
	00		 lea	 eax, DWORD PTR [ebx+724]
  00038	50		 push	 eax
  00039	8b 86 cc 1b 00
	00		 mov	 eax, DWORD PTR [esi+7116]
  0003f	03 45 08	 add	 eax, DWORD PTR tv202[ebp]
  00042	8b cb		 mov	 ecx, ebx
  00044	50		 push	 eax
  00045	e8 00 00 00 00	 call	 ?AddNewBuff@ioBaseChar@@QAEPAVioBuff@@ABVioHashString@@00PAVioSkill@@_N@Z ; ioBaseChar::AddNewBuff
  0004a	8b 86 d0 1b 00
	00		 mov	 eax, DWORD PTR [esi+7120]
  00050	2b 86 cc 1b 00
	00		 sub	 eax, DWORD PTR [esi+7116]
  00056	ff 45 fc	 inc	 DWORD PTR _i$549968[ebp]
  00059	83 45 08 10	 add	 DWORD PTR tv202[ebp], 16 ; 00000010H
  0005d	c1 f8 04	 sar	 eax, 4
  00060	39 45 fc	 cmp	 DWORD PTR _i$549968[ebp], eax
  00063	7c c8		 jl	 SHORT $LL16@OnWoundedE
  00065	5f		 pop	 edi
  00066	5b		 pop	 ebx
$LN1@OnWoundedE:
  00067	5e		 pop	 esi

; 731  : }

  00068	c9		 leave
  00069	c2 04 00	 ret	 4
?OnWoundedExtensUseAddBuff@ioLeeSunSin@@IAEXPAVioBaseChar@@@Z ENDP ; ioLeeSunSin::OnWoundedExtensUseAddBuff
_TEXT	ENDS
PUBLIC	__real@bf800000
PUBLIC	__$ArrayPad$
PUBLIC	?SetExtraInfoToWeapon@ioLeeSunSin@@UAEXPAVioWeapon@@_N@Z ; ioLeeSunSin::SetExtraInfoToWeapon
EXTRN	?SetZoneValue@ioZoneEffectWeapon@@QAEX_N0@Z:PROC ; ioZoneEffectWeapon::SetZoneValue
EXTRN	?SetCollisionDir@ioZoneEffectWeapon@@QAEXAAUD3DXVECTOR3@@@Z:PROC ; ioZoneEffectWeapon::SetCollisionDir
EXTRN	__imp_??D@YA?AUD3DXVECTOR3@@ABUD3DXQUATERNION@@ABU0@@Z:PROC
EXTRN	?GetOwner@ioWeapon@@QBEPAVioBaseChar@@XZ:PROC	; ioWeapon::GetOwner
EXTRN	?SetExtraInfoToWeapon@ioAttackableItem@@UAEXPAVioWeapon@@_N@Z:PROC ; ioAttackableItem::SetExtraInfoToWeapon
;	COMDAT __real@bf800000
; File d:\lost saga for developer\youtube\tutorial\source\src\lsclient\iobasechar.h
CONST	SEGMENT
__real@bf800000 DD 0bf800000r			; -1
; Function compile flags: /Ogsp
; File d:\lost saga for developer\youtube\tutorial\source\src\lsclient\ioleesunsin.cpp
CONST	ENDS
;	COMDAT ?SetExtraInfoToWeapon@ioLeeSunSin@@UAEXPAVioWeapon@@_N@Z
_TEXT	SEGMENT
_vDir$550159 = -28					; size = 12
$T550160 = -16						; size = 12
__$ArrayPad$ = -4					; size = 4
_pWeapon$ = 8						; size = 4
_bJumpAttack$ = 12					; size = 1
?SetExtraInfoToWeapon@ioLeeSunSin@@UAEXPAVioWeapon@@_N@Z PROC ; ioLeeSunSin::SetExtraInfoToWeapon, COMDAT
; _this$ = ecx

; 1002 : {

  00000	55		 push	 ebp
  00001	8b ec		 mov	 ebp, esp
  00003	83 ec 1c	 sub	 esp, 28			; 0000001cH
  00006	a1 00 00 00 00	 mov	 eax, DWORD PTR ___security_cookie
  0000b	33 c5		 xor	 eax, ebp
  0000d	89 45 fc	 mov	 DWORD PTR __$ArrayPad$[ebp], eax
  00010	56		 push	 esi

; 1003 : 	ioAttackableItem::SetExtraInfoToWeapon( pWeapon, bJumpAttack );

  00011	ff 75 0c	 push	 DWORD PTR _bJumpAttack$[ebp]
  00014	8b 75 08	 mov	 esi, DWORD PTR _pWeapon$[ebp]
  00017	56		 push	 esi
  00018	e8 00 00 00 00	 call	 ?SetExtraInfoToWeapon@ioAttackableItem@@UAEXPAVioWeapon@@_N@Z ; ioAttackableItem::SetExtraInfoToWeapon

; 1004 : 
; 1005 : 	ioZoneEffectWeapon *pZone = ToZoneEffectWeapon( pWeapon );

  0001d	56		 push	 esi
  0001e	e8 00 00 00 00	 call	 ?ToZoneEffectWeapon@@YAPAVioZoneEffectWeapon@@PAVioWeapon@@@Z ; ToZoneEffectWeapon
  00023	8b f0		 mov	 esi, eax
  00025	59		 pop	 ecx

; 1006 : 	if( pZone )

  00026	85 f6		 test	 esi, esi
  00028	74 52		 je	 SHORT $LN1@SetExtraIn

; 1007 : 	{
; 1008 : 		ioBaseChar *pChar = pZone->GetOwner();

  0002a	8b ce		 mov	 ecx, esi
  0002c	e8 00 00 00 00	 call	 ?GetOwner@ioWeapon@@QBEPAVioBaseChar@@XZ ; ioWeapon::GetOwner

; 1009 : 		if( pChar )

  00031	85 c0		 test	 eax, eax
  00033	74 47		 je	 SHORT $LN1@SetExtraIn

; 1010 : 		{
; 1011 : 			D3DXVECTOR3 vDir = pChar->GetTargetRot() * D3DXVECTOR3( 0.0f, 0.0f, -1.0f );

  00035	0f 57 c0	 xorps	 xmm0, xmm0
  00038	8d 4d f0	 lea	 ecx, DWORD PTR $T550160[ebp]
  0003b	51		 push	 ecx
  0003c	05 a4 06 00 00	 add	 eax, 1700		; 000006a4H
  00041	50		 push	 eax
  00042	8d 45 e4	 lea	 eax, DWORD PTR _vDir$550159[ebp]
  00045	f3 0f 11 45 f0	 movss	 DWORD PTR $T550160[ebp], xmm0
  0004a	f3 0f 11 45 f4	 movss	 DWORD PTR $T550160[ebp+4], xmm0
  0004f	f3 0f 10 05 00
	00 00 00	 movss	 xmm0, DWORD PTR __real@bf800000
  00057	50		 push	 eax
  00058	f3 0f 11 45 f8	 movss	 DWORD PTR $T550160[ebp+8], xmm0
  0005d	ff 15 00 00 00
	00		 call	 DWORD PTR __imp_??D@YA?AUD3DXVECTOR3@@ABUD3DXQUATERNION@@ABU0@@Z
  00063	83 c4 0c	 add	 esp, 12			; 0000000cH

; 1012 : 			pZone->SetCollisionDir( vDir );

  00066	8d 45 e4	 lea	 eax, DWORD PTR _vDir$550159[ebp]
  00069	50		 push	 eax
  0006a	8b ce		 mov	 ecx, esi
  0006c	e8 00 00 00 00	 call	 ?SetCollisionDir@ioZoneEffectWeapon@@QAEXAAUD3DXVECTOR3@@@Z ; ioZoneEffectWeapon::SetCollisionDir

; 1013 : 			pZone->SetZoneValue( true, false );

  00071	6a 00		 push	 0
  00073	6a 01		 push	 1
  00075	8b ce		 mov	 ecx, esi
  00077	e8 00 00 00 00	 call	 ?SetZoneValue@ioZoneEffectWeapon@@QAEX_N0@Z ; ioZoneEffectWeapon::SetZoneValue
$LN1@SetExtraIn:

; 1014 : 		}
; 1015 : 	}
; 1016 : }

  0007c	8b 4d fc	 mov	 ecx, DWORD PTR __$ArrayPad$[ebp]
  0007f	33 cd		 xor	 ecx, ebp
  00081	5e		 pop	 esi
  00082	e8 00 00 00 00	 call	 @__security_check_cookie@4
  00087	c9		 leave
  00088	c2 08 00	 ret	 8
?SetExtraInfoToWeapon@ioLeeSunSin@@UAEXPAVioWeapon@@_N@Z ENDP ; ioLeeSunSin::SetExtraInfoToWeapon
_TEXT	ENDS
PUBLIC	??D?$CEncrypt@M@@QAEMABM@Z			; CEncrypt<float>::operator*
; Function compile flags: /Ogsp
; File d:\lost saga for developer\youtube\tutorial\source\src\lsclient\encryptvalue.h
;	COMDAT ??D?$CEncrypt@M@@QAEMABM@Z
_TEXT	SEGMENT
_value$ = -4						; size = 4
tv130 = 8						; size = 4
_inValue$ = 8						; size = 4
??D?$CEncrypt@M@@QAEMABM@Z PROC				; CEncrypt<float>::operator*, COMDAT
; _this$ = ecx

; 1685 : 	{	

  00000	55		 push	 ebp
  00001	8b ec		 mov	 ebp, esp
  00003	51		 push	 ecx

; 1686 : 		type value;
; 1687 : 		DecryptValueToPool(&value);

  00004	8d 45 fc	 lea	 eax, DWORD PTR _value$[ebp]
  00007	50		 push	 eax
  00008	e8 00 00 00 00	 call	 ?DecryptValueToPool@?$CEncrypt@M@@QAEXPAM@Z ; CEncrypt<float>::DecryptValueToPool

; 1688 : #ifdef _NOTUSE
; 1689 : 		Debug();
; 1690 : #endif
; 1691 : 		return value * inValue;

  0000d	8b 45 08	 mov	 eax, DWORD PTR _inValue$[ebp]
  00010	d9 00		 fld	 DWORD PTR [eax]
  00012	d8 4d fc	 fmul	 DWORD PTR _value$[ebp]
  00015	d9 5d 08	 fstp	 DWORD PTR tv130[ebp]
  00018	d9 45 08	 fld	 DWORD PTR tv130[ebp]

; 1692 : 	}

  0001b	c9		 leave
  0001c	c2 04 00	 ret	 4
??D?$CEncrypt@M@@QAEMABM@Z ENDP				; CEncrypt<float>::operator*
_TEXT	ENDS
PUBLIC	??M?$CEncrypt@M@@QAE_NABM@Z			; CEncrypt<float>::operator<
; Function compile flags: /Ogsp
;	COMDAT ??M?$CEncrypt@M@@QAE_NABM@Z
_TEXT	SEGMENT
_value$ = -4						; size = 4
_inValue$ = 8						; size = 4
??M?$CEncrypt@M@@QAE_NABM@Z PROC			; CEncrypt<float>::operator<, COMDAT
; _this$ = ecx

; 1791 : 	{

  00000	55		 push	 ebp
  00001	8b ec		 mov	 ebp, esp
  00003	51		 push	 ecx

; 1792 : 		type value;
; 1793 : 		DecryptValueToPool(&value);

  00004	8d 45 fc	 lea	 eax, DWORD PTR _value$[ebp]
  00007	50		 push	 eax
  00008	e8 00 00 00 00	 call	 ?DecryptValueToPool@?$CEncrypt@M@@QAEXPAM@Z ; CEncrypt<float>::DecryptValueToPool

; 1794 : #ifdef _NOTUSE
; 1795 : 		Debug();
; 1796 : #endif
; 1797 : 		return (value < inValue);

  0000d	8b 45 08	 mov	 eax, DWORD PTR _inValue$[ebp]
  00010	f3 0f 10 08	 movss	 xmm1, DWORD PTR [eax]
  00014	f3 0f 10 45 fc	 movss	 xmm0, DWORD PTR _value$[ebp]
  00019	0f 5a c0	 cvtps2pd xmm0, xmm0
  0001c	0f 5a c9	 cvtps2pd xmm1, xmm1
  0001f	33 c0		 xor	 eax, eax
  00021	66 0f 2f c8	 comisd	 xmm1, xmm0
  00025	76 01		 jbe	 SHORT $LN4@operator
  00027	40		 inc	 eax
$LN4@operator:

; 1798 : 	} 

  00028	c9		 leave
  00029	c2 04 00	 ret	 4
??M?$CEncrypt@M@@QAE_NABM@Z ENDP			; CEncrypt<float>::operator<
_TEXT	ENDS
PUBLIC	??B?$CEncrypt@W4BlowWoundedState@@@@QBE?AW4BlowWoundedState@@XZ ; CEncrypt<enum BlowWoundedState>::operator enum BlowWoundedState
; Function compile flags: /Ogsp
;	COMDAT ??B?$CEncrypt@W4BlowWoundedState@@@@QBE?AW4BlowWoundedState@@XZ
_TEXT	SEGMENT
_value$ = -4						; size = 4
??B?$CEncrypt@W4BlowWoundedState@@@@QBE?AW4BlowWoundedState@@XZ PROC ; CEncrypt<enum BlowWoundedState>::operator enum BlowWoundedState, COMDAT
; _this$ = ecx

; 145  : 	{

  00000	55		 push	 ebp
  00001	8b ec		 mov	 ebp, esp
  00003	51		 push	 ecx

; 146  : 		//UJ 130829, const    --start
; 147  : 		type value;
; 148  : 		CEncrypt<type>* pThis = const_cast<CEncrypt<type>*>(this);
; 149  : 		pThis->DecryptValueToPool(&value);

  00004	8d 45 fc	 lea	 eax, DWORD PTR _value$[ebp]
  00007	50		 push	 eax
  00008	e8 00 00 00 00	 call	 ?DecryptValueToPool@?$CEncrypt@W4BlowWoundedState@@@@QAEXPAW4BlowWoundedState@@@Z ; CEncrypt<enum BlowWoundedState>::DecryptValueToPool

; 150  : 		//// const DecryptValueToPool     .
; 151  :  		//type value;
; 152  : 		//char szTempMem[MAX_ENCRYPT];
; 153  : 		//m_RC5.DecryptByte( m_MemPool, szTempMem, max(m_ValueSize, DEFAULT_ENCRYPT) );
; 154  : 		//memcpy( &value, szTempMem, m_ValueSize );
; 155  : 		//UJ --end
; 156  : 
; 157  : #ifdef _NOTUSE
; 158  : 		Debug();
; 159  : #endif
; 160  : 		return value;

  0000d	8b 45 fc	 mov	 eax, DWORD PTR _value$[ebp]

; 161  : 	}

  00010	c9		 leave
  00011	c3		 ret	 0
??B?$CEncrypt@W4BlowWoundedState@@@@QBE?AW4BlowWoundedState@@XZ ENDP ; CEncrypt<enum BlowWoundedState>::operator enum BlowWoundedState
_TEXT	ENDS
PUBLIC	??D?$_Vector_iterator@V?$_Vector_val@UWoundedInfo@ioLeeSunSin@@V?$allocator@UWoundedInfo@ioLeeSunSin@@@std@@@std@@@std@@QBEAAUWoundedInfo@ioLeeSunSin@@XZ ; std::_Vector_iterator<std::_Vector_val<ioLeeSunSin::WoundedInfo,std::allocator<ioLeeSunSin::WoundedInfo> > >::operator*
; Function compile flags: /Ogsp
; File c:\program files (x86)\microsoft visual studio 10.0\vc\include\vector
;	COMDAT ??D?$_Vector_iterator@V?$_Vector_val@UWoundedInfo@ioLeeSunSin@@V?$allocator@UWoundedInfo@ioLeeSunSin@@@std@@@std@@@std@@QBEAAUWoundedInfo@ioLeeSunSin@@XZ
_TEXT	SEGMENT
??D?$_Vector_iterator@V?$_Vector_val@UWoundedInfo@ioLeeSunSin@@V?$allocator@UWoundedInfo@ioLeeSunSin@@@std@@@std@@@std@@QBEAAUWoundedInfo@ioLeeSunSin@@XZ PROC ; std::_Vector_iterator<std::_Vector_val<ioLeeSunSin::WoundedInfo,std::allocator<ioLeeSunSin::WoundedInfo> > >::operator*, COMDAT
; _this$ = ecx

; 322  : 		return ((reference)**(_Mybase *)this);

  00000	8b 01		 mov	 eax, DWORD PTR [ecx]

; 323  : 		}

  00002	c3		 ret	 0
??D?$_Vector_iterator@V?$_Vector_val@UWoundedInfo@ioLeeSunSin@@V?$allocator@UWoundedInfo@ioLeeSunSin@@@std@@@std@@@std@@QBEAAUWoundedInfo@ioLeeSunSin@@XZ ENDP ; std::_Vector_iterator<std::_Vector_val<ioLeeSunSin::WoundedInfo,std::allocator<ioLeeSunSin::WoundedInfo> > >::operator*
_TEXT	ENDS
PUBLIC	??E?$_Vector_iterator@V?$_Vector_val@UWoundedInfo@ioLeeSunSin@@V?$allocator@UWoundedInfo@ioLeeSunSin@@@std@@@std@@@std@@QAEAAV01@XZ ; std::_Vector_iterator<std::_Vector_val<ioLeeSunSin::WoundedInfo,std::allocator<ioLeeSunSin::WoundedInfo> > >::operator++
; Function compile flags: /Ogsp
;	COMDAT ??E?$_Vector_iterator@V?$_Vector_val@UWoundedInfo@ioLeeSunSin@@V?$allocator@UWoundedInfo@ioLeeSunSin@@@std@@@std@@@std@@QAEAAV01@XZ
_TEXT	SEGMENT
??E?$_Vector_iterator@V?$_Vector_val@UWoundedInfo@ioLeeSunSin@@V?$allocator@UWoundedInfo@ioLeeSunSin@@@std@@@std@@@std@@QAEAAV01@XZ PROC ; std::_Vector_iterator<std::_Vector_val<ioLeeSunSin::WoundedInfo,std::allocator<ioLeeSunSin::WoundedInfo> > >::operator++, COMDAT
; _this$ = ecx

; 331  : 		{	// preincrement

  00000	8b c1		 mov	 eax, ecx

; 332  : 		++*(_Mybase *)this;

  00002	83 00 20	 add	 DWORD PTR [eax], 32	; 00000020H

; 333  : 		return (*this);
; 334  : 		}

  00005	c3		 ret	 0
??E?$_Vector_iterator@V?$_Vector_val@UWoundedInfo@ioLeeSunSin@@V?$allocator@UWoundedInfo@ioLeeSunSin@@@std@@@std@@@std@@QAEAAV01@XZ ENDP ; std::_Vector_iterator<std::_Vector_val<ioLeeSunSin::WoundedInfo,std::allocator<ioLeeSunSin::WoundedInfo> > >::operator++
_TEXT	ENDS
PUBLIC	?begin@?$vector@UWeaponInfo@@V?$allocator@UWeaponInfo@@@std@@@std@@QBE?AV?$_Vector_const_iterator@V?$_Vector_val@UWeaponInfo@@V?$allocator@UWeaponInfo@@@std@@@std@@@2@XZ ; std::vector<WeaponInfo,std::allocator<WeaponInfo> >::begin
; Function compile flags: /Ogsp
;	COMDAT ?begin@?$vector@UWeaponInfo@@V?$allocator@UWeaponInfo@@@std@@@std@@QBE?AV?$_Vector_const_iterator@V?$_Vector_val@UWeaponInfo@@V?$allocator@UWeaponInfo@@@std@@@std@@@2@XZ
_TEXT	SEGMENT
___$ReturnUdt$ = 8					; size = 4
?begin@?$vector@UWeaponInfo@@V?$allocator@UWeaponInfo@@@std@@@std@@QBE?AV?$_Vector_const_iterator@V?$_Vector_val@UWeaponInfo@@V?$allocator@UWeaponInfo@@@std@@@std@@@2@XZ PROC ; std::vector<WeaponInfo,std::allocator<WeaponInfo> >::begin, COMDAT
; _this$ = ecx

; 786  : 		{	// return iterator for beginning of nonmutable sequence

  00000	55		 push	 ebp
  00001	8b ec		 mov	 ebp, esp

; 787  : 		return (const_iterator(this->_Myfirst, this));

  00003	8b 09		 mov	 ecx, DWORD PTR [ecx]
  00005	8b 45 08	 mov	 eax, DWORD PTR ___$ReturnUdt$[ebp]
  00008	89 08		 mov	 DWORD PTR [eax], ecx

; 788  : 		}

  0000a	5d		 pop	 ebp
  0000b	c2 04 00	 ret	 4
?begin@?$vector@UWeaponInfo@@V?$allocator@UWeaponInfo@@@std@@@std@@QBE?AV?$_Vector_const_iterator@V?$_Vector_val@UWeaponInfo@@V?$allocator@UWeaponInfo@@@std@@@std@@@2@XZ ENDP ; std::vector<WeaponInfo,std::allocator<WeaponInfo> >::begin
_TEXT	ENDS
PUBLIC	?end@?$vector@UWeaponInfo@@V?$allocator@UWeaponInfo@@@std@@@std@@QBE?AV?$_Vector_const_iterator@V?$_Vector_val@UWeaponInfo@@V?$allocator@UWeaponInfo@@@std@@@std@@@2@XZ ; std::vector<WeaponInfo,std::allocator<WeaponInfo> >::end
; Function compile flags: /Ogsp
;	COMDAT ?end@?$vector@UWeaponInfo@@V?$allocator@UWeaponInfo@@@std@@@std@@QBE?AV?$_Vector_const_iterator@V?$_Vector_val@UWeaponInfo@@V?$allocator@UWeaponInfo@@@std@@@std@@@2@XZ
_TEXT	SEGMENT
___$ReturnUdt$ = 8					; size = 4
?end@?$vector@UWeaponInfo@@V?$allocator@UWeaponInfo@@@std@@@std@@QBE?AV?$_Vector_const_iterator@V?$_Vector_val@UWeaponInfo@@V?$allocator@UWeaponInfo@@@std@@@std@@@2@XZ PROC ; std::vector<WeaponInfo,std::allocator<WeaponInfo> >::end, COMDAT
; _this$ = ecx

; 796  : 		{	// return iterator for end of nonmutable sequence

  00000	55		 push	 ebp
  00001	8b ec		 mov	 ebp, esp

; 797  : 		return (const_iterator(this->_Mylast, this));

  00003	8b 49 04	 mov	 ecx, DWORD PTR [ecx+4]
  00006	8b 45 08	 mov	 eax, DWORD PTR ___$ReturnUdt$[ebp]
  00009	89 08		 mov	 DWORD PTR [eax], ecx

; 798  : 		}

  0000b	5d		 pop	 ebp
  0000c	c2 04 00	 ret	 4
?end@?$vector@UWeaponInfo@@V?$allocator@UWeaponInfo@@@std@@@std@@QBE?AV?$_Vector_const_iterator@V?$_Vector_val@UWeaponInfo@@V?$allocator@UWeaponInfo@@@std@@@std@@@2@XZ ENDP ; std::vector<WeaponInfo,std::allocator<WeaponInfo> >::end
_TEXT	ENDS
PUBLIC	?begin@?$vector@UForceInfo@@V?$allocator@UForceInfo@@@std@@@std@@QBE?AV?$_Vector_const_iterator@V?$_Vector_val@UForceInfo@@V?$allocator@UForceInfo@@@std@@@std@@@2@XZ ; std::vector<ForceInfo,std::allocator<ForceInfo> >::begin
; Function compile flags: /Ogsp
;	COMDAT ?begin@?$vector@UForceInfo@@V?$allocator@UForceInfo@@@std@@@std@@QBE?AV?$_Vector_const_iterator@V?$_Vector_val@UForceInfo@@V?$allocator@UForceInfo@@@std@@@std@@@2@XZ
_TEXT	SEGMENT
___$ReturnUdt$ = 8					; size = 4
?begin@?$vector@UForceInfo@@V?$allocator@UForceInfo@@@std@@@std@@QBE?AV?$_Vector_const_iterator@V?$_Vector_val@UForceInfo@@V?$allocator@UForceInfo@@@std@@@std@@@2@XZ PROC ; std::vector<ForceInfo,std::allocator<ForceInfo> >::begin, COMDAT
; _this$ = ecx

; 786  : 		{	// return iterator for beginning of nonmutable sequence

  00000	55		 push	 ebp
  00001	8b ec		 mov	 ebp, esp

; 787  : 		return (const_iterator(this->_Myfirst, this));

  00003	8b 09		 mov	 ecx, DWORD PTR [ecx]
  00005	8b 45 08	 mov	 eax, DWORD PTR ___$ReturnUdt$[ebp]
  00008	89 08		 mov	 DWORD PTR [eax], ecx

; 788  : 		}

  0000a	5d		 pop	 ebp
  0000b	c2 04 00	 ret	 4
?begin@?$vector@UForceInfo@@V?$allocator@UForceInfo@@@std@@@std@@QBE?AV?$_Vector_const_iterator@V?$_Vector_val@UForceInfo@@V?$allocator@UForceInfo@@@std@@@std@@@2@XZ ENDP ; std::vector<ForceInfo,std::allocator<ForceInfo> >::begin
_TEXT	ENDS
PUBLIC	?end@?$vector@UForceInfo@@V?$allocator@UForceInfo@@@std@@@std@@QBE?AV?$_Vector_const_iterator@V?$_Vector_val@UForceInfo@@V?$allocator@UForceInfo@@@std@@@std@@@2@XZ ; std::vector<ForceInfo,std::allocator<ForceInfo> >::end
; Function compile flags: /Ogsp
;	COMDAT ?end@?$vector@UForceInfo@@V?$allocator@UForceInfo@@@std@@@std@@QBE?AV?$_Vector_const_iterator@V?$_Vector_val@UForceInfo@@V?$allocator@UForceInfo@@@std@@@std@@@2@XZ
_TEXT	SEGMENT
___$ReturnUdt$ = 8					; size = 4
?end@?$vector@UForceInfo@@V?$allocator@UForceInfo@@@std@@@std@@QBE?AV?$_Vector_const_iterator@V?$_Vector_val@UForceInfo@@V?$allocator@UForceInfo@@@std@@@std@@@2@XZ PROC ; std::vector<ForceInfo,std::allocator<ForceInfo> >::end, COMDAT
; _this$ = ecx

; 796  : 		{	// return iterator for end of nonmutable sequence

  00000	55		 push	 ebp
  00001	8b ec		 mov	 ebp, esp

; 797  : 		return (const_iterator(this->_Mylast, this));

  00003	8b 49 04	 mov	 ecx, DWORD PTR [ecx+4]
  00006	8b 45 08	 mov	 eax, DWORD PTR ___$ReturnUdt$[ebp]
  00009	89 08		 mov	 DWORD PTR [eax], ecx

; 798  : 		}

  0000b	5d		 pop	 ebp
  0000c	c2 04 00	 ret	 4
?end@?$vector@UForceInfo@@V?$allocator@UForceInfo@@@std@@@std@@QBE?AV?$_Vector_const_iterator@V?$_Vector_val@UForceInfo@@V?$allocator@UForceInfo@@@std@@@std@@@2@XZ ENDP ; std::vector<ForceInfo,std::allocator<ForceInfo> >::end
_TEXT	ENDS
PUBLIC	?begin@?$vector@UWoundedInfo@ioLeeSunSin@@V?$allocator@UWoundedInfo@ioLeeSunSin@@@std@@@std@@QBE?AV?$_Vector_const_iterator@V?$_Vector_val@UWoundedInfo@ioLeeSunSin@@V?$allocator@UWoundedInfo@ioLeeSunSin@@@std@@@std@@@2@XZ ; std::vector<ioLeeSunSin::WoundedInfo,std::allocator<ioLeeSunSin::WoundedInfo> >::begin
; Function compile flags: /Ogsp
;	COMDAT ?begin@?$vector@UWoundedInfo@ioLeeSunSin@@V?$allocator@UWoundedInfo@ioLeeSunSin@@@std@@@std@@QBE?AV?$_Vector_const_iterator@V?$_Vector_val@UWoundedInfo@ioLeeSunSin@@V?$allocator@UWoundedInfo@ioLeeSunSin@@@std@@@std@@@2@XZ
_TEXT	SEGMENT
___$ReturnUdt$ = 8					; size = 4
?begin@?$vector@UWoundedInfo@ioLeeSunSin@@V?$allocator@UWoundedInfo@ioLeeSunSin@@@std@@@std@@QBE?AV?$_Vector_const_iterator@V?$_Vector_val@UWoundedInfo@ioLeeSunSin@@V?$allocator@UWoundedInfo@ioLeeSunSin@@@std@@@std@@@2@XZ PROC ; std::vector<ioLeeSunSin::WoundedInfo,std::allocator<ioLeeSunSin::WoundedInfo> >::begin, COMDAT
; _this$ = ecx

; 786  : 		{	// return iterator for beginning of nonmutable sequence

  00000	55		 push	 ebp
  00001	8b ec		 mov	 ebp, esp

; 787  : 		return (const_iterator(this->_Myfirst, this));

  00003	8b 09		 mov	 ecx, DWORD PTR [ecx]
  00005	8b 45 08	 mov	 eax, DWORD PTR ___$ReturnUdt$[ebp]
  00008	89 08		 mov	 DWORD PTR [eax], ecx

; 788  : 		}

  0000a	5d		 pop	 ebp
  0000b	c2 04 00	 ret	 4
?begin@?$vector@UWoundedInfo@ioLeeSunSin@@V?$allocator@UWoundedInfo@ioLeeSunSin@@@std@@@std@@QBE?AV?$_Vector_const_iterator@V?$_Vector_val@UWoundedInfo@ioLeeSunSin@@V?$allocator@UWoundedInfo@ioLeeSunSin@@@std@@@std@@@2@XZ ENDP ; std::vector<ioLeeSunSin::WoundedInfo,std::allocator<ioLeeSunSin::WoundedInfo> >::begin
_TEXT	ENDS
PUBLIC	?end@?$vector@UWoundedInfo@ioLeeSunSin@@V?$allocator@UWoundedInfo@ioLeeSunSin@@@std@@@std@@QBE?AV?$_Vector_const_iterator@V?$_Vector_val@UWoundedInfo@ioLeeSunSin@@V?$allocator@UWoundedInfo@ioLeeSunSin@@@std@@@std@@@2@XZ ; std::vector<ioLeeSunSin::WoundedInfo,std::allocator<ioLeeSunSin::WoundedInfo> >::end
; Function compile flags: /Ogsp
;	COMDAT ?end@?$vector@UWoundedInfo@ioLeeSunSin@@V?$allocator@UWoundedInfo@ioLeeSunSin@@@std@@@std@@QBE?AV?$_Vector_const_iterator@V?$_Vector_val@UWoundedInfo@ioLeeSunSin@@V?$allocator@UWoundedInfo@ioLeeSunSin@@@std@@@std@@@2@XZ
_TEXT	SEGMENT
___$ReturnUdt$ = 8					; size = 4
?end@?$vector@UWoundedInfo@ioLeeSunSin@@V?$allocator@UWoundedInfo@ioLeeSunSin@@@std@@@std@@QBE?AV?$_Vector_const_iterator@V?$_Vector_val@UWoundedInfo@ioLeeSunSin@@V?$allocator@UWoundedInfo@ioLeeSunSin@@@std@@@std@@@2@XZ PROC ; std::vector<ioLeeSunSin::WoundedInfo,std::allocator<ioLeeSunSin::WoundedInfo> >::end, COMDAT
; _this$ = ecx

; 796  : 		{	// return iterator for end of nonmutable sequence

  00000	55		 push	 ebp
  00001	8b ec		 mov	 ebp, esp

; 797  : 		return (const_iterator(this->_Mylast, this));

  00003	8b 49 04	 mov	 ecx, DWORD PTR [ecx+4]
  00006	8b 45 08	 mov	 eax, DWORD PTR ___$ReturnUdt$[ebp]
  00009	89 08		 mov	 DWORD PTR [eax], ecx

; 798  : 		}

  0000b	5d		 pop	 ebp
  0000c	c2 04 00	 ret	 4
?end@?$vector@UWoundedInfo@ioLeeSunSin@@V?$allocator@UWoundedInfo@ioLeeSunSin@@@std@@@std@@QBE?AV?$_Vector_const_iterator@V?$_Vector_val@UWoundedInfo@ioLeeSunSin@@V?$allocator@UWoundedInfo@ioLeeSunSin@@@std@@@std@@@2@XZ ENDP ; std::vector<ioLeeSunSin::WoundedInfo,std::allocator<ioLeeSunSin::WoundedInfo> >::end
_TEXT	ENDS
PUBLIC	??0?$_Vector_val@UWoundedInfo@ioLeeSunSin@@V?$allocator@UWoundedInfo@ioLeeSunSin@@@std@@@std@@QAE@V?$allocator@UWoundedInfo@ioLeeSunSin@@@1@@Z ; std::_Vector_val<ioLeeSunSin::WoundedInfo,std::allocator<ioLeeSunSin::WoundedInfo> >::_Vector_val<ioLeeSunSin::WoundedInfo,std::allocator<ioLeeSunSin::WoundedInfo> >
; Function compile flags: /Ogsp
;	COMDAT ??0?$_Vector_val@UWoundedInfo@ioLeeSunSin@@V?$allocator@UWoundedInfo@ioLeeSunSin@@@std@@@std@@QAE@V?$allocator@UWoundedInfo@ioLeeSunSin@@@1@@Z
_TEXT	SEGMENT
__Al$ = 8						; size = 1
??0?$_Vector_val@UWoundedInfo@ioLeeSunSin@@V?$allocator@UWoundedInfo@ioLeeSunSin@@@std@@@std@@QAE@V?$allocator@UWoundedInfo@ioLeeSunSin@@@1@@Z PROC ; std::_Vector_val<ioLeeSunSin::WoundedInfo,std::allocator<ioLeeSunSin::WoundedInfo> >::_Vector_val<ioLeeSunSin::WoundedInfo,std::allocator<ioLeeSunSin::WoundedInfo> >, COMDAT
; _this$ = ecx

; 426  : 		{	// construct allocator from _Al

  00000	8b c1		 mov	 eax, ecx

; 427  : 		_Myfirst = 0;

  00002	33 c9		 xor	 ecx, ecx
  00004	89 08		 mov	 DWORD PTR [eax], ecx

; 428  : 		_Mylast = 0;

  00006	89 48 04	 mov	 DWORD PTR [eax+4], ecx

; 429  : 		_Myend = 0;

  00009	89 48 08	 mov	 DWORD PTR [eax+8], ecx

; 430  : 		}

  0000c	c2 04 00	 ret	 4
??0?$_Vector_val@UWoundedInfo@ioLeeSunSin@@V?$allocator@UWoundedInfo@ioLeeSunSin@@@std@@@std@@QAE@V?$allocator@UWoundedInfo@ioLeeSunSin@@@1@@Z ENDP ; std::_Vector_val<ioLeeSunSin::WoundedInfo,std::allocator<ioLeeSunSin::WoundedInfo> >::_Vector_val<ioLeeSunSin::WoundedInfo,std::allocator<ioLeeSunSin::WoundedInfo> >
_TEXT	ENDS
PUBLIC	??0?$_Vector_iterator@V?$_Vector_val@UWoundedInfo@ioLeeSunSin@@V?$allocator@UWoundedInfo@ioLeeSunSin@@@std@@@std@@@std@@QAE@PAUWoundedInfo@ioLeeSunSin@@PBU_Container_base0@1@@Z ; std::_Vector_iterator<std::_Vector_val<ioLeeSunSin::WoundedInfo,std::allocator<ioLeeSunSin::WoundedInfo> > >::_Vector_iterator<std::_Vector_val<ioLeeSunSin::WoundedInfo,std::allocator<ioLeeSunSin::WoundedInfo> > >
; Function compile flags: /Ogsp
;	COMDAT ??0?$_Vector_iterator@V?$_Vector_val@UWoundedInfo@ioLeeSunSin@@V?$allocator@UWoundedInfo@ioLeeSunSin@@@std@@@std@@@std@@QAE@PAUWoundedInfo@ioLeeSunSin@@PBU_Container_base0@1@@Z
_TEXT	SEGMENT
__Parg$ = 8						; size = 4
__Pvector$ = 12						; size = 4
??0?$_Vector_iterator@V?$_Vector_val@UWoundedInfo@ioLeeSunSin@@V?$allocator@UWoundedInfo@ioLeeSunSin@@@std@@@std@@@std@@QAE@PAUWoundedInfo@ioLeeSunSin@@PBU_Container_base0@1@@Z PROC ; std::_Vector_iterator<std::_Vector_val<ioLeeSunSin::WoundedInfo,std::allocator<ioLeeSunSin::WoundedInfo> > >::_Vector_iterator<std::_Vector_val<ioLeeSunSin::WoundedInfo,std::allocator<ioLeeSunSin::WoundedInfo> > >, COMDAT
; _this$ = ecx

; 304  : 		{	// construct with pointer _Parg

  00000	55		 push	 ebp
  00001	8b ec		 mov	 ebp, esp
  00003	8b c1		 mov	 eax, ecx
  00005	8b 4d 08	 mov	 ecx, DWORD PTR __Parg$[ebp]
  00008	89 08		 mov	 DWORD PTR [eax], ecx

; 305  : 		}

  0000a	5d		 pop	 ebp
  0000b	c2 08 00	 ret	 8
??0?$_Vector_iterator@V?$_Vector_val@UWoundedInfo@ioLeeSunSin@@V?$allocator@UWoundedInfo@ioLeeSunSin@@@std@@@std@@@std@@QAE@PAUWoundedInfo@ioLeeSunSin@@PBU_Container_base0@1@@Z ENDP ; std::_Vector_iterator<std::_Vector_val<ioLeeSunSin::WoundedInfo,std::allocator<ioLeeSunSin::WoundedInfo> > >::_Vector_iterator<std::_Vector_val<ioLeeSunSin::WoundedInfo,std::allocator<ioLeeSunSin::WoundedInfo> > >
_TEXT	ENDS
PUBLIC	??8?$_Vector_const_iterator@V?$_Vector_val@UWoundedInfo@ioLeeSunSin@@V?$allocator@UWoundedInfo@ioLeeSunSin@@@std@@@std@@@std@@QBE_NABV01@@Z ; std::_Vector_const_iterator<std::_Vector_val<ioLeeSunSin::WoundedInfo,std::allocator<ioLeeSunSin::WoundedInfo> > >::operator==
; Function compile flags: /Ogsp
;	COMDAT ??8?$_Vector_const_iterator@V?$_Vector_val@UWoundedInfo@ioLeeSunSin@@V?$allocator@UWoundedInfo@ioLeeSunSin@@@std@@@std@@@std@@QBE_NABV01@@Z
_TEXT	SEGMENT
__Right$ = 8						; size = 4
??8?$_Vector_const_iterator@V?$_Vector_val@UWoundedInfo@ioLeeSunSin@@V?$allocator@UWoundedInfo@ioLeeSunSin@@@std@@@std@@@std@@QBE_NABV01@@Z PROC ; std::_Vector_const_iterator<std::_Vector_val<ioLeeSunSin::WoundedInfo,std::allocator<ioLeeSunSin::WoundedInfo> > >::operator==, COMDAT
; _this$ = ecx

; 201  : 		{	// test for iterator equality

  00000	55		 push	 ebp
  00001	8b ec		 mov	 ebp, esp

; 202  : 		_Compat(_Right);
; 203  : 		return (this->_Ptr == _Right._Ptr);

  00003	8b 01		 mov	 eax, DWORD PTR [ecx]
  00005	8b 4d 08	 mov	 ecx, DWORD PTR __Right$[ebp]
  00008	2b 01		 sub	 eax, DWORD PTR [ecx]
  0000a	f7 d8		 neg	 eax
  0000c	1b c0		 sbb	 eax, eax
  0000e	40		 inc	 eax

; 204  : 		}

  0000f	5d		 pop	 ebp
  00010	c2 04 00	 ret	 4
??8?$_Vector_const_iterator@V?$_Vector_val@UWoundedInfo@ioLeeSunSin@@V?$allocator@UWoundedInfo@ioLeeSunSin@@@std@@@std@@@std@@QBE_NABV01@@Z ENDP ; std::_Vector_const_iterator<std::_Vector_val<ioLeeSunSin::WoundedInfo,std::allocator<ioLeeSunSin::WoundedInfo> > >::operator==
_TEXT	ENDS
PUBLIC	?max_size@?$vector@UWoundedInfo@ioLeeSunSin@@V?$allocator@UWoundedInfo@ioLeeSunSin@@@std@@@std@@QBEIXZ ; std::vector<ioLeeSunSin::WoundedInfo,std::allocator<ioLeeSunSin::WoundedInfo> >::max_size
; Function compile flags: /Ogsp
;	COMDAT ?max_size@?$vector@UWoundedInfo@ioLeeSunSin@@V?$allocator@UWoundedInfo@ioLeeSunSin@@@std@@@std@@QBEIXZ
_TEXT	SEGMENT
?max_size@?$vector@UWoundedInfo@ioLeeSunSin@@V?$allocator@UWoundedInfo@ioLeeSunSin@@@std@@@std@@QBEIXZ PROC ; std::vector<ioLeeSunSin::WoundedInfo,std::allocator<ioLeeSunSin::WoundedInfo> >::max_size, COMDAT
; _this$ = ecx

; 884  : 		return (this->_Alval.max_size());

  00000	b8 ff ff ff 07	 mov	 eax, 134217727		; 07ffffffH

; 885  : 		}

  00005	c3		 ret	 0
?max_size@?$vector@UWoundedInfo@ioLeeSunSin@@V?$allocator@UWoundedInfo@ioLeeSunSin@@@std@@@std@@QBEIXZ ENDP ; std::vector<ioLeeSunSin::WoundedInfo,std::allocator<ioLeeSunSin::WoundedInfo> >::max_size
_TEXT	ENDS
PUBLIC	?_Grow_to@?$vector@UWoundedInfo@ioLeeSunSin@@V?$allocator@UWoundedInfo@ioLeeSunSin@@@std@@@std@@IBEII@Z ; std::vector<ioLeeSunSin::WoundedInfo,std::allocator<ioLeeSunSin::WoundedInfo> >::_Grow_to
; Function compile flags: /Ogsp
;	COMDAT ?_Grow_to@?$vector@UWoundedInfo@ioLeeSunSin@@V?$allocator@UWoundedInfo@ioLeeSunSin@@@std@@@std@@IBEII@Z
_TEXT	SEGMENT
__Count$ = 8						; size = 4
?_Grow_to@?$vector@UWoundedInfo@ioLeeSunSin@@V?$allocator@UWoundedInfo@ioLeeSunSin@@@std@@@std@@IBEII@Z PROC ; std::vector<ioLeeSunSin::WoundedInfo,std::allocator<ioLeeSunSin::WoundedInfo> >::_Grow_to, COMDAT
; _this$ = ecx

; 1274 : 		{	// grow by 50% or at least to _Count

  00000	55		 push	 ebp
  00001	8b ec		 mov	 ebp, esp

; 1275 : 		size_type _Capacity = capacity();

  00003	8b 41 08	 mov	 eax, DWORD PTR [ecx+8]
  00006	2b 01		 sub	 eax, DWORD PTR [ecx]

; 1276 : 
; 1277 : 		_Capacity = max_size() - _Capacity / 2 < _Capacity
; 1278 : 			? 0 : _Capacity + _Capacity / 2;	// try to grow by 50%

  00008	ba ff ff ff 07	 mov	 edx, 134217727		; 07ffffffH
  0000d	c1 f8 05	 sar	 eax, 5
  00010	8b c8		 mov	 ecx, eax
  00012	d1 e9		 shr	 ecx, 1
  00014	2b d1		 sub	 edx, ecx
  00016	3b d0		 cmp	 edx, eax
  00018	73 04		 jae	 SHORT $LN4@Grow_to
  0001a	33 c0		 xor	 eax, eax
  0001c	eb 02		 jmp	 SHORT $LN5@Grow_to
$LN4@Grow_to:
  0001e	03 c1		 add	 eax, ecx
$LN5@Grow_to:

; 1279 : 		if (_Capacity < _Count)

  00020	3b 45 08	 cmp	 eax, DWORD PTR __Count$[ebp]

; 1280 : 			_Capacity = _Count;

  00023	0f 42 45 08	 cmovb	 eax, DWORD PTR __Count$[ebp]

; 1281 : 		return (_Capacity);
; 1282 : 		}

  00027	5d		 pop	 ebp
  00028	c2 04 00	 ret	 4
?_Grow_to@?$vector@UWoundedInfo@ioLeeSunSin@@V?$allocator@UWoundedInfo@ioLeeSunSin@@@std@@@std@@IBEII@Z ENDP ; std::vector<ioLeeSunSin::WoundedInfo,std::allocator<ioLeeSunSin::WoundedInfo> >::_Grow_to
_TEXT	ENDS
PUBLIC	?allocate@?$allocator@UWoundedInfo@ioLeeSunSin@@@std@@QAEPAUWoundedInfo@ioLeeSunSin@@I@Z ; std::allocator<ioLeeSunSin::WoundedInfo>::allocate
; Function compile flags: /Ogsp
; File c:\program files (x86)\microsoft visual studio 10.0\vc\include\xmemory
;	COMDAT ?allocate@?$allocator@UWoundedInfo@ioLeeSunSin@@@std@@QAEPAUWoundedInfo@ioLeeSunSin@@I@Z
_TEXT	SEGMENT
__Count$ = 8						; size = 4
?allocate@?$allocator@UWoundedInfo@ioLeeSunSin@@@std@@QAEPAUWoundedInfo@ioLeeSunSin@@I@Z PROC ; std::allocator<ioLeeSunSin::WoundedInfo>::allocate, COMDAT
; _this$ = ecx

; 186  : 		{	// allocate array of _Count elements

  00000	55		 push	 ebp
  00001	8b ec		 mov	 ebp, esp

; 187  : 		return (_Allocate(_Count, (pointer)0));

  00003	6a 00		 push	 0
  00005	ff 75 08	 push	 DWORD PTR __Count$[ebp]
  00008	e8 00 00 00 00	 call	 ??$_Allocate@UWoundedInfo@ioLeeSunSin@@@std@@YAPAUWoundedInfo@ioLeeSunSin@@IPAU12@@Z ; std::_Allocate<ioLeeSunSin::WoundedInfo>
  0000d	59		 pop	 ecx
  0000e	59		 pop	 ecx

; 188  : 		}

  0000f	5d		 pop	 ebp
  00010	c2 04 00	 ret	 4
?allocate@?$allocator@UWoundedInfo@ioLeeSunSin@@@std@@QAEPAUWoundedInfo@ioLeeSunSin@@I@Z ENDP ; std::allocator<ioLeeSunSin::WoundedInfo>::allocate
_TEXT	ENDS
PUBLIC	__$ArrayPad$
PUBLIC	??$LoadFloat_e@$0BB@@ioINILoader@@QAEMAAY0BB@$$CBDM@Z ; ioINILoader::LoadFloat_e<17>
EXTRN	__imp_?LoadFloat@ioINILoader@@QAEMPBDM@Z:PROC
; Function compile flags: /Ogsp
; File d:\lost saga for developer\youtube\tutorial\source\src\io3dengine\ioiniloader.h
;	COMDAT ??$LoadFloat_e@$0BB@@ioINILoader@@QAEMAAY0BB@$$CBDM@Z
_TEXT	SEGMENT
__k$ = -28						; size = 17
__$ArrayPad$ = -4					; size = 4
_k$ = 8							; size = 4
_f$ = 12						; size = 4
??$LoadFloat_e@$0BB@@ioINILoader@@QAEMAAY0BB@$$CBDM@Z PROC ; ioINILoader::LoadFloat_e<17>, COMDAT
; _this$ = ecx

; 135  : 	{

  00000	55		 push	 ebp
  00001	8b ec		 mov	 ebp, esp
  00003	83 ec 1c	 sub	 esp, 28			; 0000001cH
  00006	a1 00 00 00 00	 mov	 eax, DWORD PTR ___security_cookie
  0000b	33 c5		 xor	 eax, ebp
  0000d	89 45 fc	 mov	 DWORD PTR __$ArrayPad$[ebp], eax
  00010	8b 45 08	 mov	 eax, DWORD PTR _k$[ebp]

; 136  : 		_ENCSTR(k, _k);

  00013	8a 10		 mov	 dl, BYTE PTR [eax]
  00015	56		 push	 esi
  00016	8b f1		 mov	 esi, ecx
  00018	84 d2		 test	 dl, dl
  0001a	0f 84 a7 01 00
	00		 je	 $LN96@LoadFloat_
  00020	80 f2 ed	 xor	 dl, -19			; ffffffedH
  00023	88 55 e4	 mov	 BYTE PTR __k$[ebp], dl
  00026	8a 50 01	 mov	 dl, BYTE PTR [eax+1]
  00029	84 d2		 test	 dl, dl
  0002b	0f 84 90 01 00
	00		 je	 $LN95@LoadFloat_
  00031	b1 ec		 mov	 cl, -20			; ffffffecH
  00033	32 d1		 xor	 dl, cl
  00035	88 55 e5	 mov	 BYTE PTR __k$[ebp+1], dl
  00038	8a 50 02	 mov	 dl, BYTE PTR [eax+2]
  0003b	84 d2		 test	 dl, dl
  0003d	0f 84 78 01 00
	00		 je	 $LN94@LoadFloat_
  00043	80 f2 eb	 xor	 dl, -21			; ffffffebH
  00046	88 55 e6	 mov	 BYTE PTR __k$[ebp+2], dl
  00049	8a 50 03	 mov	 dl, BYTE PTR [eax+3]
  0004c	84 d2		 test	 dl, dl
  0004e	0f 84 61 01 00
	00		 je	 $LN93@LoadFloat_
  00054	80 f2 ea	 xor	 dl, -22			; ffffffeaH
  00057	88 55 e7	 mov	 BYTE PTR __k$[ebp+3], dl
  0005a	8a 50 04	 mov	 dl, BYTE PTR [eax+4]
  0005d	84 d2		 test	 dl, dl
  0005f	0f 84 4a 01 00
	00		 je	 $LN92@LoadFloat_
  00065	80 f2 ed	 xor	 dl, -19			; ffffffedH
  00068	88 55 e8	 mov	 BYTE PTR __k$[ebp+4], dl
  0006b	8a 50 05	 mov	 dl, BYTE PTR [eax+5]
  0006e	84 d2		 test	 dl, dl
  00070	0f 84 34 01 00
	00		 je	 $LN91@LoadFloat_
  00076	32 d1		 xor	 dl, cl
  00078	88 55 e9	 mov	 BYTE PTR __k$[ebp+5], dl
  0007b	8a 50 06	 mov	 dl, BYTE PTR [eax+6]
  0007e	84 d2		 test	 dl, dl
  00080	0f 84 1e 01 00
	00		 je	 $LN90@LoadFloat_
  00086	80 f2 eb	 xor	 dl, -21			; ffffffebH
  00089	88 55 ea	 mov	 BYTE PTR __k$[ebp+6], dl
  0008c	8a 50 07	 mov	 dl, BYTE PTR [eax+7]
  0008f	84 d2		 test	 dl, dl
  00091	0f 84 07 01 00
	00		 je	 $LN89@LoadFloat_
  00097	80 f2 ea	 xor	 dl, -22			; ffffffeaH
  0009a	88 55 eb	 mov	 BYTE PTR __k$[ebp+7], dl
  0009d	8a 50 08	 mov	 dl, BYTE PTR [eax+8]
  000a0	84 d2		 test	 dl, dl
  000a2	0f 84 f0 00 00
	00		 je	 $LN88@LoadFloat_
  000a8	80 f2 ed	 xor	 dl, -19			; ffffffedH
  000ab	88 55 ec	 mov	 BYTE PTR __k$[ebp+8], dl
  000ae	8a 50 09	 mov	 dl, BYTE PTR [eax+9]
  000b1	84 d2		 test	 dl, dl
  000b3	0f 84 da 00 00
	00		 je	 $LN87@LoadFloat_
  000b9	32 d1		 xor	 dl, cl
  000bb	88 55 ed	 mov	 BYTE PTR __k$[ebp+9], dl
  000be	8a 50 0a	 mov	 dl, BYTE PTR [eax+10]
  000c1	84 d2		 test	 dl, dl
  000c3	0f 84 c4 00 00
	00		 je	 $LN86@LoadFloat_
  000c9	80 f2 eb	 xor	 dl, -21			; ffffffebH
  000cc	88 55 ee	 mov	 BYTE PTR __k$[ebp+10], dl
  000cf	8a 50 0b	 mov	 dl, BYTE PTR [eax+11]
  000d2	84 d2		 test	 dl, dl
  000d4	0f 84 ad 00 00
	00		 je	 $LN85@LoadFloat_
  000da	80 f2 ea	 xor	 dl, -22			; ffffffeaH
  000dd	88 55 ef	 mov	 BYTE PTR __k$[ebp+11], dl
  000e0	8a 50 0c	 mov	 dl, BYTE PTR [eax+12]
  000e3	84 d2		 test	 dl, dl
  000e5	0f 84 96 00 00
	00		 je	 $LN84@LoadFloat_
  000eb	80 f2 ed	 xor	 dl, -19			; ffffffedH
  000ee	88 55 f0	 mov	 BYTE PTR __k$[ebp+12], dl
  000f1	8a 50 0d	 mov	 dl, BYTE PTR [eax+13]
  000f4	84 d2		 test	 dl, dl
  000f6	0f 84 80 00 00
	00		 je	 $LN83@LoadFloat_
  000fc	32 d1		 xor	 dl, cl
  000fe	88 55 f1	 mov	 BYTE PTR __k$[ebp+13], dl
  00101	8a 50 0e	 mov	 dl, BYTE PTR [eax+14]
  00104	84 d2		 test	 dl, dl
  00106	74 6e		 je	 SHORT $LN82@LoadFloat_
  00108	80 f2 eb	 xor	 dl, -21			; ffffffebH
  0010b	88 55 f2	 mov	 BYTE PTR __k$[ebp+14], dl
  0010e	8a 50 0f	 mov	 dl, BYTE PTR [eax+15]
  00111	84 d2		 test	 dl, dl
  00113	74 5b		 je	 SHORT $LN81@LoadFloat_
  00115	80 f2 ea	 xor	 dl, -22			; ffffffeaH
  00118	80 78 10 00	 cmp	 BYTE PTR [eax+16], 0
  0011c	88 55 f3	 mov	 BYTE PTR __k$[ebp+15], dl
  0011f	0f 84 a6 00 00
	00		 je	 $LN1@LoadFloat_
  00125	8a 50 11	 mov	 dl, BYTE PTR [eax+17]
  00128	84 d2		 test	 dl, dl
  0012a	74 3f		 je	 SHORT $LN79@LoadFloat_
  0012c	32 d1		 xor	 dl, cl
  0012e	88 55 f5	 mov	 BYTE PTR __k$[ebp+17], dl
  00131	8a 50 12	 mov	 dl, BYTE PTR [eax+18]
  00134	84 d2		 test	 dl, dl
  00136	74 2d		 je	 SHORT $LN78@LoadFloat_
  00138	80 f2 eb	 xor	 dl, -21			; ffffffebH
  0013b	88 55 f6	 mov	 BYTE PTR __k$[ebp+18], dl
  0013e	8a 50 13	 mov	 dl, BYTE PTR [eax+19]
  00141	84 d2		 test	 dl, dl
  00143	74 1a		 je	 SHORT $LN77@LoadFloat_
  00145	8a 40 14	 mov	 al, BYTE PTR [eax+20]
  00148	80 f2 ea	 xor	 dl, -22			; ffffffeaH
  0014b	88 55 f7	 mov	 BYTE PTR __k$[ebp+19], dl
  0014e	84 c0		 test	 al, al
  00150	74 07		 je	 SHORT $LN76@LoadFloat_
  00152	34 ed		 xor	 al, -19			; ffffffedH
  00154	88 45 f8	 mov	 BYTE PTR __k$[ebp+20], al
  00157	eb 72		 jmp	 SHORT $LN1@LoadFloat_
$LN76@LoadFloat_:
  00159	c6 45 f8 ed	 mov	 BYTE PTR __k$[ebp+20], -19 ; ffffffedH
  0015d	eb 6c		 jmp	 SHORT $LN1@LoadFloat_
$LN77@LoadFloat_:
  0015f	c6 45 f7 ea	 mov	 BYTE PTR __k$[ebp+19], -22 ; ffffffeaH
  00163	eb 66		 jmp	 SHORT $LN1@LoadFloat_
$LN78@LoadFloat_:
  00165	c6 45 f6 eb	 mov	 BYTE PTR __k$[ebp+18], -21 ; ffffffebH
  00169	eb 60		 jmp	 SHORT $LN1@LoadFloat_
$LN79@LoadFloat_:
  0016b	88 4d f5	 mov	 BYTE PTR __k$[ebp+17], cl
  0016e	eb 5b		 jmp	 SHORT $LN1@LoadFloat_
$LN81@LoadFloat_:
  00170	c6 45 f3 ea	 mov	 BYTE PTR __k$[ebp+15], -22 ; ffffffeaH
  00174	eb 55		 jmp	 SHORT $LN1@LoadFloat_
$LN82@LoadFloat_:
  00176	c6 45 f2 eb	 mov	 BYTE PTR __k$[ebp+14], -21 ; ffffffebH
  0017a	eb 4f		 jmp	 SHORT $LN1@LoadFloat_
$LN83@LoadFloat_:
  0017c	88 4d f1	 mov	 BYTE PTR __k$[ebp+13], cl
  0017f	eb 4a		 jmp	 SHORT $LN1@LoadFloat_
$LN84@LoadFloat_:
  00181	c6 45 f0 ed	 mov	 BYTE PTR __k$[ebp+12], -19 ; ffffffedH
  00185	eb 44		 jmp	 SHORT $LN1@LoadFloat_
$LN85@LoadFloat_:
  00187	c6 45 ef ea	 mov	 BYTE PTR __k$[ebp+11], -22 ; ffffffeaH
  0018b	eb 3e		 jmp	 SHORT $LN1@LoadFloat_
$LN86@LoadFloat_:
  0018d	c6 45 ee eb	 mov	 BYTE PTR __k$[ebp+10], -21 ; ffffffebH
  00191	eb 38		 jmp	 SHORT $LN1@LoadFloat_
$LN87@LoadFloat_:
  00193	88 4d ed	 mov	 BYTE PTR __k$[ebp+9], cl
  00196	eb 33		 jmp	 SHORT $LN1@LoadFloat_
$LN88@LoadFloat_:
  00198	c6 45 ec ed	 mov	 BYTE PTR __k$[ebp+8], -19 ; ffffffedH
  0019c	eb 2d		 jmp	 SHORT $LN1@LoadFloat_
$LN89@LoadFloat_:
  0019e	c6 45 eb ea	 mov	 BYTE PTR __k$[ebp+7], -22 ; ffffffeaH
  001a2	eb 27		 jmp	 SHORT $LN1@LoadFloat_
$LN90@LoadFloat_:
  001a4	c6 45 ea eb	 mov	 BYTE PTR __k$[ebp+6], -21 ; ffffffebH
  001a8	eb 21		 jmp	 SHORT $LN1@LoadFloat_
$LN91@LoadFloat_:
  001aa	88 4d e9	 mov	 BYTE PTR __k$[ebp+5], cl
  001ad	eb 1c		 jmp	 SHORT $LN1@LoadFloat_
$LN92@LoadFloat_:
  001af	c6 45 e8 ed	 mov	 BYTE PTR __k$[ebp+4], -19 ; ffffffedH
  001b3	eb 16		 jmp	 SHORT $LN1@LoadFloat_
$LN93@LoadFloat_:
  001b5	c6 45 e7 ea	 mov	 BYTE PTR __k$[ebp+3], -22 ; ffffffeaH
  001b9	eb 10		 jmp	 SHORT $LN1@LoadFloat_
$LN94@LoadFloat_:
  001bb	c6 45 e6 eb	 mov	 BYTE PTR __k$[ebp+2], -21 ; ffffffebH
  001bf	eb 0a		 jmp	 SHORT $LN1@LoadFloat_
$LN95@LoadFloat_:
  001c1	c6 45 e5 ec	 mov	 BYTE PTR __k$[ebp+1], -20 ; ffffffecH
  001c5	eb 04		 jmp	 SHORT $LN1@LoadFloat_
$LN96@LoadFloat_:
  001c7	c6 45 e4 ed	 mov	 BYTE PTR __k$[ebp], -19	; ffffffedH
$LN1@LoadFloat_:
  001cb	6a 04		 push	 4
  001cd	8d 45 e4	 lea	 eax, DWORD PTR __k$[ebp]
  001d0	c6 45 f4 00	 mov	 BYTE PTR __k$[ebp+16], 0
  001d4	5a		 pop	 edx
$LL104@LoadFloat_:
  001d5	81 30 ed ec eb
	ea		 xor	 DWORD PTR [eax], -353637139 ; eaebecedH
  001db	83 c0 04	 add	 eax, 4
  001de	4a		 dec	 edx
  001df	75 f4		 jne	 SHORT $LL104@LoadFloat_

; 137  : 		return LoadFloat(_k, f);

  001e1	f3 0f 10 45 0c	 movss	 xmm0, DWORD PTR _f$[ebp]
  001e6	51		 push	 ecx
  001e7	8d 45 e4	 lea	 eax, DWORD PTR __k$[ebp]
  001ea	f3 0f 11 04 24	 movss	 DWORD PTR [esp], xmm0
  001ef	50		 push	 eax
  001f0	8b ce		 mov	 ecx, esi
  001f2	ff 15 00 00 00
	00		 call	 DWORD PTR __imp_?LoadFloat@ioINILoader@@QAEMPBDM@Z

; 138  : 	}

  001f8	8b 4d fc	 mov	 ecx, DWORD PTR __$ArrayPad$[ebp]
  001fb	33 cd		 xor	 ecx, ebp
  001fd	5e		 pop	 esi
  001fe	e8 00 00 00 00	 call	 @__security_check_cookie@4
  00203	c9		 leave
  00204	c2 08 00	 ret	 8
??$LoadFloat_e@$0BB@@ioINILoader@@QAEMAAY0BB@$$CBDM@Z ENDP ; ioINILoader::LoadFloat_e<17>
_TEXT	ENDS
PUBLIC	__$ArrayPad$
PUBLIC	??$LoadFloat_e@$0BI@@ioINILoader@@QAEMAAY0BI@$$CBDM@Z ; ioINILoader::LoadFloat_e<24>
; Function compile flags: /Ogsp
;	COMDAT ??$LoadFloat_e@$0BI@@ioINILoader@@QAEMAAY0BI@$$CBDM@Z
_TEXT	SEGMENT
__k$ = -32						; size = 24
__$ArrayPad$ = -4					; size = 4
_k$ = 8							; size = 4
_f$ = 12						; size = 4
??$LoadFloat_e@$0BI@@ioINILoader@@QAEMAAY0BI@$$CBDM@Z PROC ; ioINILoader::LoadFloat_e<24>, COMDAT
; _this$ = ecx

; 135  : 	{

  00000	55		 push	 ebp
  00001	8b ec		 mov	 ebp, esp
  00003	83 ec 20	 sub	 esp, 32			; 00000020H
  00006	a1 00 00 00 00	 mov	 eax, DWORD PTR ___security_cookie
  0000b	33 c5		 xor	 eax, ebp
  0000d	89 45 fc	 mov	 DWORD PTR __$ArrayPad$[ebp], eax
  00010	8b 45 08	 mov	 eax, DWORD PTR _k$[ebp]

; 136  : 		_ENCSTR(k, _k);

  00013	8a 10		 mov	 dl, BYTE PTR [eax]
  00015	53		 push	 ebx
  00016	56		 push	 esi
  00017	8b f1		 mov	 esi, ecx
  00019	84 d2		 test	 dl, dl
  0001b	0f 84 45 02 00
	00		 je	 $LN96@LoadFloat_@2
  00021	80 f2 ed	 xor	 dl, -19			; ffffffedH
  00024	88 55 e0	 mov	 BYTE PTR __k$[ebp], dl
  00027	8a 50 01	 mov	 dl, BYTE PTR [eax+1]
  0002a	84 d2		 test	 dl, dl
  0002c	0f 84 2e 02 00
	00		 je	 $LN95@LoadFloat_@2
  00032	b3 ec		 mov	 bl, -20			; ffffffecH
  00034	32 d3		 xor	 dl, bl
  00036	88 55 e1	 mov	 BYTE PTR __k$[ebp+1], dl
  00039	8a 50 02	 mov	 dl, BYTE PTR [eax+2]
  0003c	84 d2		 test	 dl, dl
  0003e	0f 84 16 02 00
	00		 je	 $LN94@LoadFloat_@2
  00044	b1 eb		 mov	 cl, -21			; ffffffebH
  00046	32 d1		 xor	 dl, cl
  00048	88 55 e2	 mov	 BYTE PTR __k$[ebp+2], dl
  0004b	8a 50 03	 mov	 dl, BYTE PTR [eax+3]
  0004e	84 d2		 test	 dl, dl
  00050	0f 84 fe 01 00
	00		 je	 $LN93@LoadFloat_@2
  00056	80 f2 ea	 xor	 dl, -22			; ffffffeaH
  00059	88 55 e3	 mov	 BYTE PTR __k$[ebp+3], dl
  0005c	8a 50 04	 mov	 dl, BYTE PTR [eax+4]
  0005f	84 d2		 test	 dl, dl
  00061	0f 84 e7 01 00
	00		 je	 $LN92@LoadFloat_@2
  00067	80 f2 ed	 xor	 dl, -19			; ffffffedH
  0006a	88 55 e4	 mov	 BYTE PTR __k$[ebp+4], dl
  0006d	8a 50 05	 mov	 dl, BYTE PTR [eax+5]
  00070	84 d2		 test	 dl, dl
  00072	0f 84 d1 01 00
	00		 je	 $LN91@LoadFloat_@2
  00078	32 d3		 xor	 dl, bl
  0007a	88 55 e5	 mov	 BYTE PTR __k$[ebp+5], dl
  0007d	8a 50 06	 mov	 dl, BYTE PTR [eax+6]
  00080	84 d2		 test	 dl, dl
  00082	0f 84 bc 01 00
	00		 je	 $LN90@LoadFloat_@2
  00088	32 d1		 xor	 dl, cl
  0008a	88 55 e6	 mov	 BYTE PTR __k$[ebp+6], dl
  0008d	8a 50 07	 mov	 dl, BYTE PTR [eax+7]
  00090	84 d2		 test	 dl, dl
  00092	0f 84 a6 01 00
	00		 je	 $LN89@LoadFloat_@2
  00098	80 f2 ea	 xor	 dl, -22			; ffffffeaH
  0009b	88 55 e7	 mov	 BYTE PTR __k$[ebp+7], dl
  0009e	8a 50 08	 mov	 dl, BYTE PTR [eax+8]
  000a1	84 d2		 test	 dl, dl
  000a3	0f 84 8f 01 00
	00		 je	 $LN88@LoadFloat_@2
  000a9	80 f2 ed	 xor	 dl, -19			; ffffffedH
  000ac	88 55 e8	 mov	 BYTE PTR __k$[ebp+8], dl
  000af	8a 50 09	 mov	 dl, BYTE PTR [eax+9]
  000b2	84 d2		 test	 dl, dl
  000b4	0f 84 79 01 00
	00		 je	 $LN87@LoadFloat_@2
  000ba	32 d3		 xor	 dl, bl
  000bc	88 55 e9	 mov	 BYTE PTR __k$[ebp+9], dl
  000bf	8a 50 0a	 mov	 dl, BYTE PTR [eax+10]
  000c2	84 d2		 test	 dl, dl
  000c4	0f 84 64 01 00
	00		 je	 $LN86@LoadFloat_@2
  000ca	32 d1		 xor	 dl, cl
  000cc	88 55 ea	 mov	 BYTE PTR __k$[ebp+10], dl
  000cf	8a 50 0b	 mov	 dl, BYTE PTR [eax+11]
  000d2	84 d2		 test	 dl, dl
  000d4	0f 84 4e 01 00
	00		 je	 $LN85@LoadFloat_@2
  000da	80 f2 ea	 xor	 dl, -22			; ffffffeaH
  000dd	88 55 eb	 mov	 BYTE PTR __k$[ebp+11], dl
  000e0	8a 50 0c	 mov	 dl, BYTE PTR [eax+12]
  000e3	84 d2		 test	 dl, dl
  000e5	0f 84 37 01 00
	00		 je	 $LN84@LoadFloat_@2
  000eb	80 f2 ed	 xor	 dl, -19			; ffffffedH
  000ee	88 55 ec	 mov	 BYTE PTR __k$[ebp+12], dl
  000f1	8a 50 0d	 mov	 dl, BYTE PTR [eax+13]
  000f4	84 d2		 test	 dl, dl
  000f6	0f 84 21 01 00
	00		 je	 $LN83@LoadFloat_@2
  000fc	32 d3		 xor	 dl, bl
  000fe	88 55 ed	 mov	 BYTE PTR __k$[ebp+13], dl
  00101	8a 50 0e	 mov	 dl, BYTE PTR [eax+14]
  00104	84 d2		 test	 dl, dl
  00106	0f 84 0c 01 00
	00		 je	 $LN82@LoadFloat_@2
  0010c	32 d1		 xor	 dl, cl
  0010e	88 55 ee	 mov	 BYTE PTR __k$[ebp+14], dl
  00111	8a 50 0f	 mov	 dl, BYTE PTR [eax+15]
  00114	84 d2		 test	 dl, dl
  00116	0f 84 f6 00 00
	00		 je	 $LN81@LoadFloat_@2
  0011c	80 f2 ea	 xor	 dl, -22			; ffffffeaH
  0011f	88 55 ef	 mov	 BYTE PTR __k$[ebp+15], dl
  00122	8a 50 10	 mov	 dl, BYTE PTR [eax+16]
  00125	84 d2		 test	 dl, dl
  00127	0f 84 df 00 00
	00		 je	 $LN80@LoadFloat_@2
  0012d	80 f2 ed	 xor	 dl, -19			; ffffffedH
  00130	88 55 f0	 mov	 BYTE PTR __k$[ebp+16], dl
  00133	8a 50 11	 mov	 dl, BYTE PTR [eax+17]
  00136	84 d2		 test	 dl, dl
  00138	0f 84 c9 00 00
	00		 je	 $LN79@LoadFloat_@2
  0013e	32 d3		 xor	 dl, bl
  00140	88 55 f1	 mov	 BYTE PTR __k$[ebp+17], dl
  00143	8a 50 12	 mov	 dl, BYTE PTR [eax+18]
  00146	84 d2		 test	 dl, dl
  00148	0f 84 b4 00 00
	00		 je	 $LN78@LoadFloat_@2
  0014e	32 d1		 xor	 dl, cl
  00150	88 55 f2	 mov	 BYTE PTR __k$[ebp+18], dl
  00153	8a 50 13	 mov	 dl, BYTE PTR [eax+19]
  00156	84 d2		 test	 dl, dl
  00158	0f 84 9e 00 00
	00		 je	 $LN77@LoadFloat_@2
  0015e	80 f2 ea	 xor	 dl, -22			; ffffffeaH
  00161	88 55 f3	 mov	 BYTE PTR __k$[ebp+19], dl
  00164	8a 50 14	 mov	 dl, BYTE PTR [eax+20]
  00167	84 d2		 test	 dl, dl
  00169	0f 84 87 00 00
	00		 je	 $LN76@LoadFloat_@2
  0016f	80 f2 ed	 xor	 dl, -19			; ffffffedH
  00172	88 55 f4	 mov	 BYTE PTR __k$[ebp+20], dl
  00175	8a 50 15	 mov	 dl, BYTE PTR [eax+21]
  00178	84 d2		 test	 dl, dl
  0017a	74 75		 je	 SHORT $LN75@LoadFloat_@2
  0017c	32 d3		 xor	 dl, bl
  0017e	88 55 f5	 mov	 BYTE PTR __k$[ebp+21], dl
  00181	8a 50 16	 mov	 dl, BYTE PTR [eax+22]
  00184	84 d2		 test	 dl, dl
  00186	74 64		 je	 SHORT $LN74@LoadFloat_@2
  00188	32 d1		 xor	 dl, cl
  0018a	80 78 17 00	 cmp	 BYTE PTR [eax+23], 0
  0018e	88 55 f6	 mov	 BYTE PTR __k$[ebp+22], dl
  00191	0f 84 d3 00 00
	00		 je	 $LN1@LoadFloat_@2
  00197	8a 50 18	 mov	 dl, BYTE PTR [eax+24]
  0019a	84 d2		 test	 dl, dl
  0019c	74 48		 je	 SHORT $LN72@LoadFloat_@2
  0019e	80 f2 ed	 xor	 dl, -19			; ffffffedH
  001a1	88 55 f8	 mov	 BYTE PTR __k$[ebp+24], dl
  001a4	8a 50 19	 mov	 dl, BYTE PTR [eax+25]
  001a7	84 d2		 test	 dl, dl
  001a9	74 33		 je	 SHORT $LN71@LoadFloat_@2
  001ab	32 d3		 xor	 dl, bl
  001ad	88 55 f9	 mov	 BYTE PTR __k$[ebp+25], dl
  001b0	8a 50 1a	 mov	 dl, BYTE PTR [eax+26]
  001b3	84 d2		 test	 dl, dl
  001b5	74 1f		 je	 SHORT $LN70@LoadFloat_@2
  001b7	8a 40 1b	 mov	 al, BYTE PTR [eax+27]
  001ba	32 d1		 xor	 dl, cl
  001bc	88 55 fa	 mov	 BYTE PTR __k$[ebp+26], dl
  001bf	84 c0		 test	 al, al
  001c1	74 0a		 je	 SHORT $LN69@LoadFloat_@2
  001c3	34 ea		 xor	 al, -22			; ffffffeaH
  001c5	88 45 fb	 mov	 BYTE PTR __k$[ebp+27], al
  001c8	e9 9d 00 00 00	 jmp	 $LN1@LoadFloat_@2
$LN69@LoadFloat_@2:
  001cd	c6 45 fb ea	 mov	 BYTE PTR __k$[ebp+27], -22 ; ffffffeaH
  001d1	e9 94 00 00 00	 jmp	 $LN1@LoadFloat_@2
$LN70@LoadFloat_@2:
  001d6	88 4d fa	 mov	 BYTE PTR __k$[ebp+26], cl
  001d9	e9 8c 00 00 00	 jmp	 $LN1@LoadFloat_@2
$LN71@LoadFloat_@2:
  001de	88 5d f9	 mov	 BYTE PTR __k$[ebp+25], bl
  001e1	e9 84 00 00 00	 jmp	 $LN1@LoadFloat_@2
$LN72@LoadFloat_@2:
  001e6	c6 45 f8 ed	 mov	 BYTE PTR __k$[ebp+24], -19 ; ffffffedH
  001ea	eb 7e		 jmp	 SHORT $LN1@LoadFloat_@2
$LN74@LoadFloat_@2:
  001ec	88 4d f6	 mov	 BYTE PTR __k$[ebp+22], cl
  001ef	eb 79		 jmp	 SHORT $LN1@LoadFloat_@2
$LN75@LoadFloat_@2:
  001f1	88 5d f5	 mov	 BYTE PTR __k$[ebp+21], bl
  001f4	eb 74		 jmp	 SHORT $LN1@LoadFloat_@2
$LN76@LoadFloat_@2:
  001f6	c6 45 f4 ed	 mov	 BYTE PTR __k$[ebp+20], -19 ; ffffffedH
  001fa	eb 6e		 jmp	 SHORT $LN1@LoadFloat_@2
$LN77@LoadFloat_@2:
  001fc	c6 45 f3 ea	 mov	 BYTE PTR __k$[ebp+19], -22 ; ffffffeaH
  00200	eb 68		 jmp	 SHORT $LN1@LoadFloat_@2
$LN78@LoadFloat_@2:
  00202	88 4d f2	 mov	 BYTE PTR __k$[ebp+18], cl
  00205	eb 63		 jmp	 SHORT $LN1@LoadFloat_@2
$LN79@LoadFloat_@2:
  00207	88 5d f1	 mov	 BYTE PTR __k$[ebp+17], bl
  0020a	eb 5e		 jmp	 SHORT $LN1@LoadFloat_@2
$LN80@LoadFloat_@2:
  0020c	c6 45 f0 ed	 mov	 BYTE PTR __k$[ebp+16], -19 ; ffffffedH
  00210	eb 58		 jmp	 SHORT $LN1@LoadFloat_@2
$LN81@LoadFloat_@2:
  00212	c6 45 ef ea	 mov	 BYTE PTR __k$[ebp+15], -22 ; ffffffeaH
  00216	eb 52		 jmp	 SHORT $LN1@LoadFloat_@2
$LN82@LoadFloat_@2:
  00218	88 4d ee	 mov	 BYTE PTR __k$[ebp+14], cl
  0021b	eb 4d		 jmp	 SHORT $LN1@LoadFloat_@2
$LN83@LoadFloat_@2:
  0021d	88 5d ed	 mov	 BYTE PTR __k$[ebp+13], bl
  00220	eb 48		 jmp	 SHORT $LN1@LoadFloat_@2
$LN84@LoadFloat_@2:
  00222	c6 45 ec ed	 mov	 BYTE PTR __k$[ebp+12], -19 ; ffffffedH
  00226	eb 42		 jmp	 SHORT $LN1@LoadFloat_@2
$LN85@LoadFloat_@2:
  00228	c6 45 eb ea	 mov	 BYTE PTR __k$[ebp+11], -22 ; ffffffeaH
  0022c	eb 3c		 jmp	 SHORT $LN1@LoadFloat_@2
$LN86@LoadFloat_@2:
  0022e	88 4d ea	 mov	 BYTE PTR __k$[ebp+10], cl
  00231	eb 37		 jmp	 SHORT $LN1@LoadFloat_@2
$LN87@LoadFloat_@2:
  00233	88 5d e9	 mov	 BYTE PTR __k$[ebp+9], bl
  00236	eb 32		 jmp	 SHORT $LN1@LoadFloat_@2
$LN88@LoadFloat_@2:
  00238	c6 45 e8 ed	 mov	 BYTE PTR __k$[ebp+8], -19 ; ffffffedH
  0023c	eb 2c		 jmp	 SHORT $LN1@LoadFloat_@2
$LN89@LoadFloat_@2:
  0023e	c6 45 e7 ea	 mov	 BYTE PTR __k$[ebp+7], -22 ; ffffffeaH
  00242	eb 26		 jmp	 SHORT $LN1@LoadFloat_@2
$LN90@LoadFloat_@2:
  00244	88 4d e6	 mov	 BYTE PTR __k$[ebp+6], cl
  00247	eb 21		 jmp	 SHORT $LN1@LoadFloat_@2
$LN91@LoadFloat_@2:
  00249	88 5d e5	 mov	 BYTE PTR __k$[ebp+5], bl
  0024c	eb 1c		 jmp	 SHORT $LN1@LoadFloat_@2
$LN92@LoadFloat_@2:
  0024e	c6 45 e4 ed	 mov	 BYTE PTR __k$[ebp+4], -19 ; ffffffedH
  00252	eb 16		 jmp	 SHORT $LN1@LoadFloat_@2
$LN93@LoadFloat_@2:
  00254	c6 45 e3 ea	 mov	 BYTE PTR __k$[ebp+3], -22 ; ffffffeaH
  00258	eb 10		 jmp	 SHORT $LN1@LoadFloat_@2
$LN94@LoadFloat_@2:
  0025a	c6 45 e2 eb	 mov	 BYTE PTR __k$[ebp+2], -21 ; ffffffebH
  0025e	eb 0a		 jmp	 SHORT $LN1@LoadFloat_@2
$LN95@LoadFloat_@2:
  00260	c6 45 e1 ec	 mov	 BYTE PTR __k$[ebp+1], -20 ; ffffffecH
  00264	eb 04		 jmp	 SHORT $LN1@LoadFloat_@2
$LN96@LoadFloat_@2:
  00266	c6 45 e0 ed	 mov	 BYTE PTR __k$[ebp], -19	; ffffffedH
$LN1@LoadFloat_@2:
  0026a	6a 05		 push	 5
  0026c	8d 45 e0	 lea	 eax, DWORD PTR __k$[ebp]
  0026f	c6 45 f7 00	 mov	 BYTE PTR __k$[ebp+23], 0
  00273	5a		 pop	 edx
$LL104@LoadFloat_@2:
  00274	81 30 ed ec eb
	ea		 xor	 DWORD PTR [eax], -353637139 ; eaebecedH
  0027a	83 c0 04	 add	 eax, 4
  0027d	4a		 dec	 edx
  0027e	75 f4		 jne	 SHORT $LL104@LoadFloat_@2
  00280	6a 14		 push	 20			; 00000014H
  00282	58		 pop	 eax
$LL101@LoadFloat_@2:
  00283	8b c8		 mov	 ecx, eax
  00285	81 e1 03 00 00
	80		 and	 ecx, -2147483645	; 80000003H
  0028b	79 05		 jns	 SHORT $LN111@LoadFloat_@2
  0028d	49		 dec	 ecx
  0028e	83 c9 fc	 or	 ecx, -4			; fffffffcH
  00291	41		 inc	 ecx
$LN111@LoadFloat_@2:
  00292	b2 ed		 mov	 dl, -19			; ffffffedH
  00294	2a d1		 sub	 dl, cl
  00296	30 54 05 e0	 xor	 BYTE PTR __k$[ebp+eax], dl
  0029a	40		 inc	 eax
  0029b	83 f8 17	 cmp	 eax, 23			; 00000017H
  0029e	7c e3		 jl	 SHORT $LL101@LoadFloat_@2

; 137  : 		return LoadFloat(_k, f);

  002a0	f3 0f 10 45 0c	 movss	 xmm0, DWORD PTR _f$[ebp]
  002a5	51		 push	 ecx
  002a6	8d 45 e0	 lea	 eax, DWORD PTR __k$[ebp]
  002a9	f3 0f 11 04 24	 movss	 DWORD PTR [esp], xmm0
  002ae	50		 push	 eax
  002af	8b ce		 mov	 ecx, esi
  002b1	ff 15 00 00 00
	00		 call	 DWORD PTR __imp_?LoadFloat@ioINILoader@@QAEMPBDM@Z

; 138  : 	}

  002b7	8b 4d fc	 mov	 ecx, DWORD PTR __$ArrayPad$[ebp]
  002ba	5e		 pop	 esi
  002bb	33 cd		 xor	 ecx, ebp
  002bd	5b		 pop	 ebx
  002be	e8 00 00 00 00	 call	 @__security_check_cookie@4
  002c3	c9		 leave
  002c4	c2 08 00	 ret	 8
??$LoadFloat_e@$0BI@@ioINILoader@@QAEMAAY0BI@$$CBDM@Z ENDP ; ioINILoader::LoadFloat_e<24>
_TEXT	ENDS
PUBLIC	_this$GSCopy$
PUBLIC	__$ArrayPad$
PUBLIC	??$LoadString_e@$0BF@@ioINILoader@@QAEXAAY0BF@$$CBDAAY00$$CBDPADH@Z ; ioINILoader::LoadString_e<21>
EXTRN	__imp_?LoadStringA@ioINILoader@@QAEXPBD0PADH@Z:PROC
; Function compile flags: /Ogsp
;	COMDAT ??$LoadString_e@$0BF@@ioINILoader@@QAEXAAY0BF@$$CBDAAY00$$CBDPADH@Z
_TEXT	SEGMENT
_this$GSCopy$ = -36					; size = 4
__k$ = -32						; size = 21
__$ArrayPad$ = -4					; size = 4
_k$ = 8							; size = 4
_d$ = 12						; size = 4
_b$ = 16						; size = 4
_i$ = 20						; size = 4
??$LoadString_e@$0BF@@ioINILoader@@QAEXAAY0BF@$$CBDAAY00$$CBDPADH@Z PROC ; ioINILoader::LoadString_e<21>, COMDAT
; _this$ = ecx

; 161  : 	{

  00000	55		 push	 ebp
  00001	8b ec		 mov	 ebp, esp
  00003	83 ec 24	 sub	 esp, 36			; 00000024H
  00006	a1 00 00 00 00	 mov	 eax, DWORD PTR ___security_cookie
  0000b	33 c5		 xor	 eax, ebp
  0000d	89 45 fc	 mov	 DWORD PTR __$ArrayPad$[ebp], eax
  00010	8b 45 08	 mov	 eax, DWORD PTR _k$[ebp]

; 162  : 		_ENCSTR(k, _k);

  00013	8a 10		 mov	 dl, BYTE PTR [eax]
  00015	53		 push	 ebx
  00016	56		 push	 esi
  00017	8b 75 0c	 mov	 esi, DWORD PTR _d$[ebp]
  0001a	57		 push	 edi
  0001b	8b 7d 10	 mov	 edi, DWORD PTR _b$[ebp]
  0001e	89 4d dc	 mov	 DWORD PTR _this$GSCopy$[ebp], ecx
  00021	84 d2		 test	 dl, dl
  00023	0f 84 f7 01 00
	00		 je	 $LN96@LoadString
  00029	80 f2 ed	 xor	 dl, -19			; ffffffedH
  0002c	88 55 e0	 mov	 BYTE PTR __k$[ebp], dl
  0002f	8a 50 01	 mov	 dl, BYTE PTR [eax+1]
  00032	84 d2		 test	 dl, dl
  00034	0f 84 e0 01 00
	00		 je	 $LN95@LoadString
  0003a	b1 ec		 mov	 cl, -20			; ffffffecH
  0003c	32 d1		 xor	 dl, cl
  0003e	88 55 e1	 mov	 BYTE PTR __k$[ebp+1], dl
  00041	8a 50 02	 mov	 dl, BYTE PTR [eax+2]
  00044	84 d2		 test	 dl, dl
  00046	0f 84 c8 01 00
	00		 je	 $LN94@LoadString
  0004c	b3 eb		 mov	 bl, -21			; ffffffebH
  0004e	32 d3		 xor	 dl, bl
  00050	88 55 e2	 mov	 BYTE PTR __k$[ebp+2], dl
  00053	8a 50 03	 mov	 dl, BYTE PTR [eax+3]
  00056	84 d2		 test	 dl, dl
  00058	0f 84 b0 01 00
	00		 je	 $LN93@LoadString
  0005e	80 f2 ea	 xor	 dl, -22			; ffffffeaH
  00061	88 55 e3	 mov	 BYTE PTR __k$[ebp+3], dl
  00064	8a 50 04	 mov	 dl, BYTE PTR [eax+4]
  00067	84 d2		 test	 dl, dl
  00069	0f 84 99 01 00
	00		 je	 $LN92@LoadString
  0006f	80 f2 ed	 xor	 dl, -19			; ffffffedH
  00072	88 55 e4	 mov	 BYTE PTR __k$[ebp+4], dl
  00075	8a 50 05	 mov	 dl, BYTE PTR [eax+5]
  00078	84 d2		 test	 dl, dl
  0007a	0f 84 83 01 00
	00		 je	 $LN91@LoadString
  00080	32 d1		 xor	 dl, cl
  00082	88 55 e5	 mov	 BYTE PTR __k$[ebp+5], dl
  00085	8a 50 06	 mov	 dl, BYTE PTR [eax+6]
  00088	84 d2		 test	 dl, dl
  0008a	0f 84 6e 01 00
	00		 je	 $LN90@LoadString
  00090	32 d3		 xor	 dl, bl
  00092	88 55 e6	 mov	 BYTE PTR __k$[ebp+6], dl
  00095	8a 50 07	 mov	 dl, BYTE PTR [eax+7]
  00098	84 d2		 test	 dl, dl
  0009a	0f 84 58 01 00
	00		 je	 $LN89@LoadString
  000a0	80 f2 ea	 xor	 dl, -22			; ffffffeaH
  000a3	88 55 e7	 mov	 BYTE PTR __k$[ebp+7], dl
  000a6	8a 50 08	 mov	 dl, BYTE PTR [eax+8]
  000a9	84 d2		 test	 dl, dl
  000ab	0f 84 41 01 00
	00		 je	 $LN88@LoadString
  000b1	80 f2 ed	 xor	 dl, -19			; ffffffedH
  000b4	88 55 e8	 mov	 BYTE PTR __k$[ebp+8], dl
  000b7	8a 50 09	 mov	 dl, BYTE PTR [eax+9]
  000ba	84 d2		 test	 dl, dl
  000bc	0f 84 2b 01 00
	00		 je	 $LN87@LoadString
  000c2	32 d1		 xor	 dl, cl
  000c4	88 55 e9	 mov	 BYTE PTR __k$[ebp+9], dl
  000c7	8a 50 0a	 mov	 dl, BYTE PTR [eax+10]
  000ca	84 d2		 test	 dl, dl
  000cc	0f 84 16 01 00
	00		 je	 $LN86@LoadString
  000d2	32 d3		 xor	 dl, bl
  000d4	88 55 ea	 mov	 BYTE PTR __k$[ebp+10], dl
  000d7	8a 50 0b	 mov	 dl, BYTE PTR [eax+11]
  000da	84 d2		 test	 dl, dl
  000dc	0f 84 00 01 00
	00		 je	 $LN85@LoadString
  000e2	80 f2 ea	 xor	 dl, -22			; ffffffeaH
  000e5	88 55 eb	 mov	 BYTE PTR __k$[ebp+11], dl
  000e8	8a 50 0c	 mov	 dl, BYTE PTR [eax+12]
  000eb	84 d2		 test	 dl, dl
  000ed	0f 84 e9 00 00
	00		 je	 $LN84@LoadString
  000f3	80 f2 ed	 xor	 dl, -19			; ffffffedH
  000f6	88 55 ec	 mov	 BYTE PTR __k$[ebp+12], dl
  000f9	8a 50 0d	 mov	 dl, BYTE PTR [eax+13]
  000fc	84 d2		 test	 dl, dl
  000fe	0f 84 d3 00 00
	00		 je	 $LN83@LoadString
  00104	32 d1		 xor	 dl, cl
  00106	88 55 ed	 mov	 BYTE PTR __k$[ebp+13], dl
  00109	8a 50 0e	 mov	 dl, BYTE PTR [eax+14]
  0010c	84 d2		 test	 dl, dl
  0010e	0f 84 be 00 00
	00		 je	 $LN82@LoadString
  00114	32 d3		 xor	 dl, bl
  00116	88 55 ee	 mov	 BYTE PTR __k$[ebp+14], dl
  00119	8a 50 0f	 mov	 dl, BYTE PTR [eax+15]
  0011c	84 d2		 test	 dl, dl
  0011e	0f 84 a8 00 00
	00		 je	 $LN81@LoadString
  00124	80 f2 ea	 xor	 dl, -22			; ffffffeaH
  00127	88 55 ef	 mov	 BYTE PTR __k$[ebp+15], dl
  0012a	8a 50 10	 mov	 dl, BYTE PTR [eax+16]
  0012d	84 d2		 test	 dl, dl
  0012f	0f 84 91 00 00
	00		 je	 $LN80@LoadString
  00135	80 f2 ed	 xor	 dl, -19			; ffffffedH
  00138	88 55 f0	 mov	 BYTE PTR __k$[ebp+16], dl
  0013b	8a 50 11	 mov	 dl, BYTE PTR [eax+17]
  0013e	84 d2		 test	 dl, dl
  00140	74 7f		 je	 SHORT $LN79@LoadString
  00142	32 d1		 xor	 dl, cl
  00144	88 55 f1	 mov	 BYTE PTR __k$[ebp+17], dl
  00147	8a 50 12	 mov	 dl, BYTE PTR [eax+18]
  0014a	84 d2		 test	 dl, dl
  0014c	74 6e		 je	 SHORT $LN78@LoadString
  0014e	32 d3		 xor	 dl, bl
  00150	88 55 f2	 mov	 BYTE PTR __k$[ebp+18], dl
  00153	8a 50 13	 mov	 dl, BYTE PTR [eax+19]
  00156	84 d2		 test	 dl, dl
  00158	74 5c		 je	 SHORT $LN77@LoadString
  0015a	80 f2 ea	 xor	 dl, -22			; ffffffeaH
  0015d	80 78 14 00	 cmp	 BYTE PTR [eax+20], 0
  00161	88 55 f3	 mov	 BYTE PTR __k$[ebp+19], dl
  00164	0f 84 ba 00 00
	00		 je	 $LN111@LoadString
  0016a	8a 50 15	 mov	 dl, BYTE PTR [eax+21]
  0016d	84 d2		 test	 dl, dl
  0016f	74 40		 je	 SHORT $LN75@LoadString
  00171	32 d1		 xor	 dl, cl
  00173	88 55 f5	 mov	 BYTE PTR __k$[ebp+21], dl
  00176	8a 50 16	 mov	 dl, BYTE PTR [eax+22]
  00179	84 d2		 test	 dl, dl
  0017b	74 2f		 je	 SHORT $LN74@LoadString
  0017d	32 d3		 xor	 dl, bl
  0017f	88 55 f6	 mov	 BYTE PTR __k$[ebp+22], dl
  00182	8a 50 17	 mov	 dl, BYTE PTR [eax+23]
  00185	84 d2		 test	 dl, dl
  00187	74 1d		 je	 SHORT $LN73@LoadString
  00189	8a 40 18	 mov	 al, BYTE PTR [eax+24]
  0018c	80 f2 ea	 xor	 dl, -22			; ffffffeaH
  0018f	88 55 f7	 mov	 BYTE PTR __k$[ebp+23], dl
  00192	84 c0		 test	 al, al
  00194	74 0a		 je	 SHORT $LN72@LoadString
  00196	34 ed		 xor	 al, -19			; ffffffedH
  00198	88 45 f8	 mov	 BYTE PTR __k$[ebp+24], al
  0019b	e9 84 00 00 00	 jmp	 $LN111@LoadString
$LN72@LoadString:
  001a0	c6 45 f8 ed	 mov	 BYTE PTR __k$[ebp+24], -19 ; ffffffedH
  001a4	eb 7e		 jmp	 SHORT $LN111@LoadString
$LN73@LoadString:
  001a6	c6 45 f7 ea	 mov	 BYTE PTR __k$[ebp+23], -22 ; ffffffeaH
  001aa	eb 78		 jmp	 SHORT $LN111@LoadString
$LN74@LoadString:
  001ac	88 5d f6	 mov	 BYTE PTR __k$[ebp+22], bl
  001af	eb 73		 jmp	 SHORT $LN111@LoadString
$LN75@LoadString:
  001b1	88 4d f5	 mov	 BYTE PTR __k$[ebp+21], cl
  001b4	eb 6e		 jmp	 SHORT $LN111@LoadString
$LN77@LoadString:
  001b6	c6 45 f3 ea	 mov	 BYTE PTR __k$[ebp+19], -22 ; ffffffeaH
  001ba	eb 68		 jmp	 SHORT $LN111@LoadString
$LN78@LoadString:
  001bc	88 5d f2	 mov	 BYTE PTR __k$[ebp+18], bl
  001bf	eb 63		 jmp	 SHORT $LN111@LoadString
$LN79@LoadString:
  001c1	88 4d f1	 mov	 BYTE PTR __k$[ebp+17], cl
  001c4	eb 5e		 jmp	 SHORT $LN111@LoadString
$LN80@LoadString:
  001c6	c6 45 f0 ed	 mov	 BYTE PTR __k$[ebp+16], -19 ; ffffffedH
  001ca	eb 58		 jmp	 SHORT $LN111@LoadString
$LN81@LoadString:
  001cc	c6 45 ef ea	 mov	 BYTE PTR __k$[ebp+15], -22 ; ffffffeaH
  001d0	eb 52		 jmp	 SHORT $LN111@LoadString
$LN82@LoadString:
  001d2	88 5d ee	 mov	 BYTE PTR __k$[ebp+14], bl
  001d5	eb 4d		 jmp	 SHORT $LN111@LoadString
$LN83@LoadString:
  001d7	88 4d ed	 mov	 BYTE PTR __k$[ebp+13], cl
  001da	eb 48		 jmp	 SHORT $LN111@LoadString
$LN84@LoadString:
  001dc	c6 45 ec ed	 mov	 BYTE PTR __k$[ebp+12], -19 ; ffffffedH
  001e0	eb 42		 jmp	 SHORT $LN111@LoadString
$LN85@LoadString:
  001e2	c6 45 eb ea	 mov	 BYTE PTR __k$[ebp+11], -22 ; ffffffeaH
  001e6	eb 3c		 jmp	 SHORT $LN111@LoadString
$LN86@LoadString:
  001e8	88 5d ea	 mov	 BYTE PTR __k$[ebp+10], bl
  001eb	eb 37		 jmp	 SHORT $LN111@LoadString
$LN87@LoadString:
  001ed	88 4d e9	 mov	 BYTE PTR __k$[ebp+9], cl
  001f0	eb 32		 jmp	 SHORT $LN111@LoadString
$LN88@LoadString:
  001f2	c6 45 e8 ed	 mov	 BYTE PTR __k$[ebp+8], -19 ; ffffffedH
  001f6	eb 2c		 jmp	 SHORT $LN111@LoadString
$LN89@LoadString:
  001f8	c6 45 e7 ea	 mov	 BYTE PTR __k$[ebp+7], -22 ; ffffffeaH
  001fc	eb 26		 jmp	 SHORT $LN111@LoadString
$LN90@LoadString:
  001fe	88 5d e6	 mov	 BYTE PTR __k$[ebp+6], bl
  00201	eb 21		 jmp	 SHORT $LN111@LoadString
$LN91@LoadString:
  00203	88 4d e5	 mov	 BYTE PTR __k$[ebp+5], cl
  00206	eb 1c		 jmp	 SHORT $LN111@LoadString
$LN92@LoadString:
  00208	c6 45 e4 ed	 mov	 BYTE PTR __k$[ebp+4], -19 ; ffffffedH
  0020c	eb 16		 jmp	 SHORT $LN111@LoadString
$LN93@LoadString:
  0020e	c6 45 e3 ea	 mov	 BYTE PTR __k$[ebp+3], -22 ; ffffffeaH
  00212	eb 10		 jmp	 SHORT $LN111@LoadString
$LN94@LoadString:
  00214	c6 45 e2 eb	 mov	 BYTE PTR __k$[ebp+2], -21 ; ffffffebH
  00218	eb 0a		 jmp	 SHORT $LN111@LoadString
$LN95@LoadString:
  0021a	c6 45 e1 ec	 mov	 BYTE PTR __k$[ebp+1], -20 ; ffffffecH
  0021e	eb 04		 jmp	 SHORT $LN111@LoadString
$LN96@LoadString:
  00220	c6 45 e0 ed	 mov	 BYTE PTR __k$[ebp], -19	; ffffffedH
$LN111@LoadString:
  00224	6a 05		 push	 5
  00226	8d 45 e0	 lea	 eax, DWORD PTR __k$[ebp]
  00229	c6 45 f4 00	 mov	 BYTE PTR __k$[ebp+20], 0
  0022d	5a		 pop	 edx
$LL104@LoadString:
  0022e	81 30 ed ec eb
	ea		 xor	 DWORD PTR [eax], -353637139 ; eaebecedH
  00234	83 c0 04	 add	 eax, 4
  00237	4a		 dec	 edx
  00238	75 f4		 jne	 SHORT $LL104@LoadString

; 163  : 		LoadString(_k, d, b, i);

  0023a	ff 75 14	 push	 DWORD PTR _i$[ebp]
  0023d	8b 4d dc	 mov	 ecx, DWORD PTR _this$GSCopy$[ebp]
  00240	57		 push	 edi
  00241	56		 push	 esi
  00242	8d 45 e0	 lea	 eax, DWORD PTR __k$[ebp]
  00245	50		 push	 eax
  00246	ff 15 00 00 00
	00		 call	 DWORD PTR __imp_?LoadStringA@ioINILoader@@QAEXPBD0PADH@Z

; 164  : 	}

  0024c	8b 4d fc	 mov	 ecx, DWORD PTR __$ArrayPad$[ebp]
  0024f	5f		 pop	 edi
  00250	5e		 pop	 esi
  00251	33 cd		 xor	 ecx, ebp
  00253	5b		 pop	 ebx
  00254	e8 00 00 00 00	 call	 @__security_check_cookie@4
  00259	c9		 leave
  0025a	c2 10 00	 ret	 16			; 00000010H
??$LoadString_e@$0BF@@ioINILoader@@QAEXAAY0BF@$$CBDAAY00$$CBDPADH@Z ENDP ; ioINILoader::LoadString_e<21>
_TEXT	ENDS
PUBLIC	_this$GSCopy$
PUBLIC	__$ArrayPad$
PUBLIC	??$LoadString_e@$0BB@@ioINILoader@@QAEXAAY0BB@$$CBDAAY00$$CBDPADH@Z ; ioINILoader::LoadString_e<17>
; Function compile flags: /Ogsp
;	COMDAT ??$LoadString_e@$0BB@@ioINILoader@@QAEXAAY0BB@$$CBDAAY00$$CBDPADH@Z
_TEXT	SEGMENT
_this$GSCopy$ = -32					; size = 4
__k$ = -28						; size = 17
__$ArrayPad$ = -4					; size = 4
_k$ = 8							; size = 4
_d$ = 12						; size = 4
_b$ = 16						; size = 4
_i$ = 20						; size = 4
??$LoadString_e@$0BB@@ioINILoader@@QAEXAAY0BB@$$CBDAAY00$$CBDPADH@Z PROC ; ioINILoader::LoadString_e<17>, COMDAT
; _this$ = ecx

; 161  : 	{

  00000	55		 push	 ebp
  00001	8b ec		 mov	 ebp, esp
  00003	83 ec 20	 sub	 esp, 32			; 00000020H
  00006	a1 00 00 00 00	 mov	 eax, DWORD PTR ___security_cookie
  0000b	33 c5		 xor	 eax, ebp
  0000d	89 45 fc	 mov	 DWORD PTR __$ArrayPad$[ebp], eax
  00010	8b 45 08	 mov	 eax, DWORD PTR _k$[ebp]

; 162  : 		_ENCSTR(k, _k);

  00013	8a 10		 mov	 dl, BYTE PTR [eax]
  00015	56		 push	 esi
  00016	8b 75 0c	 mov	 esi, DWORD PTR _d$[ebp]
  00019	57		 push	 edi
  0001a	8b 7d 10	 mov	 edi, DWORD PTR _b$[ebp]
  0001d	89 4d e0	 mov	 DWORD PTR _this$GSCopy$[ebp], ecx
  00020	84 d2		 test	 dl, dl
  00022	0f 84 a7 01 00
	00		 je	 $LN96@LoadString@2
  00028	80 f2 ed	 xor	 dl, -19			; ffffffedH
  0002b	88 55 e4	 mov	 BYTE PTR __k$[ebp], dl
  0002e	8a 50 01	 mov	 dl, BYTE PTR [eax+1]
  00031	84 d2		 test	 dl, dl
  00033	0f 84 90 01 00
	00		 je	 $LN95@LoadString@2
  00039	b1 ec		 mov	 cl, -20			; ffffffecH
  0003b	32 d1		 xor	 dl, cl
  0003d	88 55 e5	 mov	 BYTE PTR __k$[ebp+1], dl
  00040	8a 50 02	 mov	 dl, BYTE PTR [eax+2]
  00043	84 d2		 test	 dl, dl
  00045	0f 84 78 01 00
	00		 je	 $LN94@LoadString@2
  0004b	80 f2 eb	 xor	 dl, -21			; ffffffebH
  0004e	88 55 e6	 mov	 BYTE PTR __k$[ebp+2], dl
  00051	8a 50 03	 mov	 dl, BYTE PTR [eax+3]
  00054	84 d2		 test	 dl, dl
  00056	0f 84 61 01 00
	00		 je	 $LN93@LoadString@2
  0005c	80 f2 ea	 xor	 dl, -22			; ffffffeaH
  0005f	88 55 e7	 mov	 BYTE PTR __k$[ebp+3], dl
  00062	8a 50 04	 mov	 dl, BYTE PTR [eax+4]
  00065	84 d2		 test	 dl, dl
  00067	0f 84 4a 01 00
	00		 je	 $LN92@LoadString@2
  0006d	80 f2 ed	 xor	 dl, -19			; ffffffedH
  00070	88 55 e8	 mov	 BYTE PTR __k$[ebp+4], dl
  00073	8a 50 05	 mov	 dl, BYTE PTR [eax+5]
  00076	84 d2		 test	 dl, dl
  00078	0f 84 34 01 00
	00		 je	 $LN91@LoadString@2
  0007e	32 d1		 xor	 dl, cl
  00080	88 55 e9	 mov	 BYTE PTR __k$[ebp+5], dl
  00083	8a 50 06	 mov	 dl, BYTE PTR [eax+6]
  00086	84 d2		 test	 dl, dl
  00088	0f 84 1e 01 00
	00		 je	 $LN90@LoadString@2
  0008e	80 f2 eb	 xor	 dl, -21			; ffffffebH
  00091	88 55 ea	 mov	 BYTE PTR __k$[ebp+6], dl
  00094	8a 50 07	 mov	 dl, BYTE PTR [eax+7]
  00097	84 d2		 test	 dl, dl
  00099	0f 84 07 01 00
	00		 je	 $LN89@LoadString@2
  0009f	80 f2 ea	 xor	 dl, -22			; ffffffeaH
  000a2	88 55 eb	 mov	 BYTE PTR __k$[ebp+7], dl
  000a5	8a 50 08	 mov	 dl, BYTE PTR [eax+8]
  000a8	84 d2		 test	 dl, dl
  000aa	0f 84 f0 00 00
	00		 je	 $LN88@LoadString@2
  000b0	80 f2 ed	 xor	 dl, -19			; ffffffedH
  000b3	88 55 ec	 mov	 BYTE PTR __k$[ebp+8], dl
  000b6	8a 50 09	 mov	 dl, BYTE PTR [eax+9]
  000b9	84 d2		 test	 dl, dl
  000bb	0f 84 da 00 00
	00		 je	 $LN87@LoadString@2
  000c1	32 d1		 xor	 dl, cl
  000c3	88 55 ed	 mov	 BYTE PTR __k$[ebp+9], dl
  000c6	8a 50 0a	 mov	 dl, BYTE PTR [eax+10]
  000c9	84 d2		 test	 dl, dl
  000cb	0f 84 c4 00 00
	00		 je	 $LN86@LoadString@2
  000d1	80 f2 eb	 xor	 dl, -21			; ffffffebH
  000d4	88 55 ee	 mov	 BYTE PTR __k$[ebp+10], dl
  000d7	8a 50 0b	 mov	 dl, BYTE PTR [eax+11]
  000da	84 d2		 test	 dl, dl
  000dc	0f 84 ad 00 00
	00		 je	 $LN85@LoadString@2
  000e2	80 f2 ea	 xor	 dl, -22			; ffffffeaH
  000e5	88 55 ef	 mov	 BYTE PTR __k$[ebp+11], dl
  000e8	8a 50 0c	 mov	 dl, BYTE PTR [eax+12]
  000eb	84 d2		 test	 dl, dl
  000ed	0f 84 96 00 00
	00		 je	 $LN84@LoadString@2
  000f3	80 f2 ed	 xor	 dl, -19			; ffffffedH
  000f6	88 55 f0	 mov	 BYTE PTR __k$[ebp+12], dl
  000f9	8a 50 0d	 mov	 dl, BYTE PTR [eax+13]
  000fc	84 d2		 test	 dl, dl
  000fe	0f 84 80 00 00
	00		 je	 $LN83@LoadString@2
  00104	32 d1		 xor	 dl, cl
  00106	88 55 f1	 mov	 BYTE PTR __k$[ebp+13], dl
  00109	8a 50 0e	 mov	 dl, BYTE PTR [eax+14]
  0010c	84 d2		 test	 dl, dl
  0010e	74 6e		 je	 SHORT $LN82@LoadString@2
  00110	80 f2 eb	 xor	 dl, -21			; ffffffebH
  00113	88 55 f2	 mov	 BYTE PTR __k$[ebp+14], dl
  00116	8a 50 0f	 mov	 dl, BYTE PTR [eax+15]
  00119	84 d2		 test	 dl, dl
  0011b	74 5b		 je	 SHORT $LN81@LoadString@2
  0011d	80 f2 ea	 xor	 dl, -22			; ffffffeaH
  00120	80 78 10 00	 cmp	 BYTE PTR [eax+16], 0
  00124	88 55 f3	 mov	 BYTE PTR __k$[ebp+15], dl
  00127	0f 84 a6 00 00
	00		 je	 $LN111@LoadString@2
  0012d	8a 50 11	 mov	 dl, BYTE PTR [eax+17]
  00130	84 d2		 test	 dl, dl
  00132	74 3f		 je	 SHORT $LN79@LoadString@2
  00134	32 d1		 xor	 dl, cl
  00136	88 55 f5	 mov	 BYTE PTR __k$[ebp+17], dl
  00139	8a 50 12	 mov	 dl, BYTE PTR [eax+18]
  0013c	84 d2		 test	 dl, dl
  0013e	74 2d		 je	 SHORT $LN78@LoadString@2
  00140	80 f2 eb	 xor	 dl, -21			; ffffffebH
  00143	88 55 f6	 mov	 BYTE PTR __k$[ebp+18], dl
  00146	8a 50 13	 mov	 dl, BYTE PTR [eax+19]
  00149	84 d2		 test	 dl, dl
  0014b	74 1a		 je	 SHORT $LN77@LoadString@2
  0014d	8a 40 14	 mov	 al, BYTE PTR [eax+20]
  00150	80 f2 ea	 xor	 dl, -22			; ffffffeaH
  00153	88 55 f7	 mov	 BYTE PTR __k$[ebp+19], dl
  00156	84 c0		 test	 al, al
  00158	74 07		 je	 SHORT $LN76@LoadString@2
  0015a	34 ed		 xor	 al, -19			; ffffffedH
  0015c	88 45 f8	 mov	 BYTE PTR __k$[ebp+20], al
  0015f	eb 72		 jmp	 SHORT $LN111@LoadString@2
$LN76@LoadString@2:
  00161	c6 45 f8 ed	 mov	 BYTE PTR __k$[ebp+20], -19 ; ffffffedH
  00165	eb 6c		 jmp	 SHORT $LN111@LoadString@2
$LN77@LoadString@2:
  00167	c6 45 f7 ea	 mov	 BYTE PTR __k$[ebp+19], -22 ; ffffffeaH
  0016b	eb 66		 jmp	 SHORT $LN111@LoadString@2
$LN78@LoadString@2:
  0016d	c6 45 f6 eb	 mov	 BYTE PTR __k$[ebp+18], -21 ; ffffffebH
  00171	eb 60		 jmp	 SHORT $LN111@LoadString@2
$LN79@LoadString@2:
  00173	88 4d f5	 mov	 BYTE PTR __k$[ebp+17], cl
  00176	eb 5b		 jmp	 SHORT $LN111@LoadString@2
$LN81@LoadString@2:
  00178	c6 45 f3 ea	 mov	 BYTE PTR __k$[ebp+15], -22 ; ffffffeaH
  0017c	eb 55		 jmp	 SHORT $LN111@LoadString@2
$LN82@LoadString@2:
  0017e	c6 45 f2 eb	 mov	 BYTE PTR __k$[ebp+14], -21 ; ffffffebH
  00182	eb 4f		 jmp	 SHORT $LN111@LoadString@2
$LN83@LoadString@2:
  00184	88 4d f1	 mov	 BYTE PTR __k$[ebp+13], cl
  00187	eb 4a		 jmp	 SHORT $LN111@LoadString@2
$LN84@LoadString@2:
  00189	c6 45 f0 ed	 mov	 BYTE PTR __k$[ebp+12], -19 ; ffffffedH
  0018d	eb 44		 jmp	 SHORT $LN111@LoadString@2
$LN85@LoadString@2:
  0018f	c6 45 ef ea	 mov	 BYTE PTR __k$[ebp+11], -22 ; ffffffeaH
  00193	eb 3e		 jmp	 SHORT $LN111@LoadString@2
$LN86@LoadString@2:
  00195	c6 45 ee eb	 mov	 BYTE PTR __k$[ebp+10], -21 ; ffffffebH
  00199	eb 38		 jmp	 SHORT $LN111@LoadString@2
$LN87@LoadString@2:
  0019b	88 4d ed	 mov	 BYTE PTR __k$[ebp+9], cl
  0019e	eb 33		 jmp	 SHORT $LN111@LoadString@2
$LN88@LoadString@2:
  001a0	c6 45 ec ed	 mov	 BYTE PTR __k$[ebp+8], -19 ; ffffffedH
  001a4	eb 2d		 jmp	 SHORT $LN111@LoadString@2
$LN89@LoadString@2:
  001a6	c6 45 eb ea	 mov	 BYTE PTR __k$[ebp+7], -22 ; ffffffeaH
  001aa	eb 27		 jmp	 SHORT $LN111@LoadString@2
$LN90@LoadString@2:
  001ac	c6 45 ea eb	 mov	 BYTE PTR __k$[ebp+6], -21 ; ffffffebH
  001b0	eb 21		 jmp	 SHORT $LN111@LoadString@2
$LN91@LoadString@2:
  001b2	88 4d e9	 mov	 BYTE PTR __k$[ebp+5], cl
  001b5	eb 1c		 jmp	 SHORT $LN111@LoadString@2
$LN92@LoadString@2:
  001b7	c6 45 e8 ed	 mov	 BYTE PTR __k$[ebp+4], -19 ; ffffffedH
  001bb	eb 16		 jmp	 SHORT $LN111@LoadString@2
$LN93@LoadString@2:
  001bd	c6 45 e7 ea	 mov	 BYTE PTR __k$[ebp+3], -22 ; ffffffeaH
  001c1	eb 10		 jmp	 SHORT $LN111@LoadString@2
$LN94@LoadString@2:
  001c3	c6 45 e6 eb	 mov	 BYTE PTR __k$[ebp+2], -21 ; ffffffebH
  001c7	eb 0a		 jmp	 SHORT $LN111@LoadString@2
$LN95@LoadString@2:
  001c9	c6 45 e5 ec	 mov	 BYTE PTR __k$[ebp+1], -20 ; ffffffecH
  001cd	eb 04		 jmp	 SHORT $LN111@LoadString@2
$LN96@LoadString@2:
  001cf	c6 45 e4 ed	 mov	 BYTE PTR __k$[ebp], -19	; ffffffedH
$LN111@LoadString@2:
  001d3	6a 04		 push	 4
  001d5	8d 45 e4	 lea	 eax, DWORD PTR __k$[ebp]
  001d8	c6 45 f4 00	 mov	 BYTE PTR __k$[ebp+16], 0
  001dc	5a		 pop	 edx
$LL104@LoadString@2:
  001dd	81 30 ed ec eb
	ea		 xor	 DWORD PTR [eax], -353637139 ; eaebecedH
  001e3	83 c0 04	 add	 eax, 4
  001e6	4a		 dec	 edx
  001e7	75 f4		 jne	 SHORT $LL104@LoadString@2

; 163  : 		LoadString(_k, d, b, i);

  001e9	ff 75 14	 push	 DWORD PTR _i$[ebp]
  001ec	8b 4d e0	 mov	 ecx, DWORD PTR _this$GSCopy$[ebp]
  001ef	57		 push	 edi
  001f0	56		 push	 esi
  001f1	8d 45 e4	 lea	 eax, DWORD PTR __k$[ebp]
  001f4	50		 push	 eax
  001f5	ff 15 00 00 00
	00		 call	 DWORD PTR __imp_?LoadStringA@ioINILoader@@QAEXPBD0PADH@Z

; 164  : 	}

  001fb	8b 4d fc	 mov	 ecx, DWORD PTR __$ArrayPad$[ebp]
  001fe	5f		 pop	 edi
  001ff	33 cd		 xor	 ecx, ebp
  00201	5e		 pop	 esi
  00202	e8 00 00 00 00	 call	 @__security_check_cookie@4
  00207	c9		 leave
  00208	c2 10 00	 ret	 16			; 00000010H
??$LoadString_e@$0BB@@ioINILoader@@QAEXAAY0BB@$$CBDAAY00$$CBDPADH@Z ENDP ; ioINILoader::LoadString_e<17>
_TEXT	ENDS
PUBLIC	_this$GSCopy$
PUBLIC	__$ArrayPad$
PUBLIC	??$LoadString_e@$0O@@ioINILoader@@QAEXAAY0O@$$CBDAAY00$$CBDPADH@Z ; ioINILoader::LoadString_e<14>
; Function compile flags: /Ogsp
;	COMDAT ??$LoadString_e@$0O@@ioINILoader@@QAEXAAY0O@$$CBDAAY00$$CBDPADH@Z
_TEXT	SEGMENT
_this$GSCopy$ = -28					; size = 4
__k$ = -24						; size = 14
__$ArrayPad$ = -4					; size = 4
_k$ = 8							; size = 4
_d$ = 12						; size = 4
_b$ = 16						; size = 4
_i$ = 20						; size = 4
??$LoadString_e@$0O@@ioINILoader@@QAEXAAY0O@$$CBDAAY00$$CBDPADH@Z PROC ; ioINILoader::LoadString_e<14>, COMDAT
; _this$ = ecx

; 161  : 	{

  00000	55		 push	 ebp
  00001	8b ec		 mov	 ebp, esp
  00003	83 ec 1c	 sub	 esp, 28			; 0000001cH
  00006	a1 00 00 00 00	 mov	 eax, DWORD PTR ___security_cookie
  0000b	33 c5		 xor	 eax, ebp
  0000d	89 45 fc	 mov	 DWORD PTR __$ArrayPad$[ebp], eax
  00010	8b 45 08	 mov	 eax, DWORD PTR _k$[ebp]

; 162  : 		_ENCSTR(k, _k);

  00013	8a 10		 mov	 dl, BYTE PTR [eax]
  00015	56		 push	 esi
  00016	8b 75 0c	 mov	 esi, DWORD PTR _d$[ebp]
  00019	57		 push	 edi
  0001a	8b 7d 10	 mov	 edi, DWORD PTR _b$[ebp]
  0001d	89 4d e4	 mov	 DWORD PTR _this$GSCopy$[ebp], ecx
  00020	84 d2		 test	 dl, dl
  00022	0f 84 64 01 00
	00		 je	 $LN96@LoadString@3
  00028	80 f2 ed	 xor	 dl, -19			; ffffffedH
  0002b	88 55 e8	 mov	 BYTE PTR __k$[ebp], dl
  0002e	8a 50 01	 mov	 dl, BYTE PTR [eax+1]
  00031	84 d2		 test	 dl, dl
  00033	0f 84 4d 01 00
	00		 je	 $LN95@LoadString@3
  00039	80 f2 ec	 xor	 dl, -20			; ffffffecH
  0003c	88 55 e9	 mov	 BYTE PTR __k$[ebp+1], dl
  0003f	8a 50 02	 mov	 dl, BYTE PTR [eax+2]
  00042	84 d2		 test	 dl, dl
  00044	0f 84 36 01 00
	00		 je	 $LN94@LoadString@3
  0004a	b1 eb		 mov	 cl, -21			; ffffffebH
  0004c	32 d1		 xor	 dl, cl
  0004e	88 55 ea	 mov	 BYTE PTR __k$[ebp+2], dl
  00051	8a 50 03	 mov	 dl, BYTE PTR [eax+3]
  00054	84 d2		 test	 dl, dl
  00056	0f 84 1e 01 00
	00		 je	 $LN93@LoadString@3
  0005c	80 f2 ea	 xor	 dl, -22			; ffffffeaH
  0005f	88 55 eb	 mov	 BYTE PTR __k$[ebp+3], dl
  00062	8a 50 04	 mov	 dl, BYTE PTR [eax+4]
  00065	84 d2		 test	 dl, dl
  00067	0f 84 07 01 00
	00		 je	 $LN92@LoadString@3
  0006d	80 f2 ed	 xor	 dl, -19			; ffffffedH
  00070	88 55 ec	 mov	 BYTE PTR __k$[ebp+4], dl
  00073	8a 50 05	 mov	 dl, BYTE PTR [eax+5]
  00076	84 d2		 test	 dl, dl
  00078	0f 84 f0 00 00
	00		 je	 $LN91@LoadString@3
  0007e	80 f2 ec	 xor	 dl, -20			; ffffffecH
  00081	88 55 ed	 mov	 BYTE PTR __k$[ebp+5], dl
  00084	8a 50 06	 mov	 dl, BYTE PTR [eax+6]
  00087	84 d2		 test	 dl, dl
  00089	0f 84 da 00 00
	00		 je	 $LN90@LoadString@3
  0008f	32 d1		 xor	 dl, cl
  00091	88 55 ee	 mov	 BYTE PTR __k$[ebp+6], dl
  00094	8a 50 07	 mov	 dl, BYTE PTR [eax+7]
  00097	84 d2		 test	 dl, dl
  00099	0f 84 c4 00 00
	00		 je	 $LN89@LoadString@3
  0009f	80 f2 ea	 xor	 dl, -22			; ffffffeaH
  000a2	88 55 ef	 mov	 BYTE PTR __k$[ebp+7], dl
  000a5	8a 50 08	 mov	 dl, BYTE PTR [eax+8]
  000a8	84 d2		 test	 dl, dl
  000aa	0f 84 ad 00 00
	00		 je	 $LN88@LoadString@3
  000b0	80 f2 ed	 xor	 dl, -19			; ffffffedH
  000b3	88 55 f0	 mov	 BYTE PTR __k$[ebp+8], dl
  000b6	8a 50 09	 mov	 dl, BYTE PTR [eax+9]
  000b9	84 d2		 test	 dl, dl
  000bb	0f 84 96 00 00
	00		 je	 $LN87@LoadString@3
  000c1	80 f2 ec	 xor	 dl, -20			; ffffffecH
  000c4	88 55 f1	 mov	 BYTE PTR __k$[ebp+9], dl
  000c7	8a 50 0a	 mov	 dl, BYTE PTR [eax+10]
  000ca	84 d2		 test	 dl, dl
  000cc	0f 84 80 00 00
	00		 je	 $LN86@LoadString@3
  000d2	32 d1		 xor	 dl, cl
  000d4	88 55 f2	 mov	 BYTE PTR __k$[ebp+10], dl
  000d7	8a 50 0b	 mov	 dl, BYTE PTR [eax+11]
  000da	84 d2		 test	 dl, dl
  000dc	74 6e		 je	 SHORT $LN85@LoadString@3
  000de	80 f2 ea	 xor	 dl, -22			; ffffffeaH
  000e1	88 55 f3	 mov	 BYTE PTR __k$[ebp+11], dl
  000e4	8a 50 0c	 mov	 dl, BYTE PTR [eax+12]
  000e7	84 d2		 test	 dl, dl
  000e9	74 5b		 je	 SHORT $LN84@LoadString@3
  000eb	80 f2 ed	 xor	 dl, -19			; ffffffedH
  000ee	80 78 0d 00	 cmp	 BYTE PTR [eax+13], 0
  000f2	88 55 f4	 mov	 BYTE PTR __k$[ebp+12], dl
  000f5	0f 84 95 00 00
	00		 je	 $LN111@LoadString@3
  000fb	8a 50 0e	 mov	 dl, BYTE PTR [eax+14]
  000fe	84 d2		 test	 dl, dl
  00100	74 3f		 je	 SHORT $LN82@LoadString@3
  00102	32 d1		 xor	 dl, cl
  00104	88 55 f6	 mov	 BYTE PTR __k$[ebp+14], dl
  00107	8a 50 0f	 mov	 dl, BYTE PTR [eax+15]
  0010a	84 d2		 test	 dl, dl
  0010c	74 2d		 je	 SHORT $LN81@LoadString@3
  0010e	80 f2 ea	 xor	 dl, -22			; ffffffeaH
  00111	88 55 f7	 mov	 BYTE PTR __k$[ebp+15], dl
  00114	8a 50 10	 mov	 dl, BYTE PTR [eax+16]
  00117	84 d2		 test	 dl, dl
  00119	74 1a		 je	 SHORT $LN80@LoadString@3
  0011b	8a 40 11	 mov	 al, BYTE PTR [eax+17]
  0011e	80 f2 ed	 xor	 dl, -19			; ffffffedH
  00121	88 55 f8	 mov	 BYTE PTR __k$[ebp+16], dl
  00124	84 c0		 test	 al, al
  00126	74 07		 je	 SHORT $LN79@LoadString@3
  00128	34 ec		 xor	 al, -20			; ffffffecH
  0012a	88 45 f9	 mov	 BYTE PTR __k$[ebp+17], al
  0012d	eb 61		 jmp	 SHORT $LN111@LoadString@3
$LN79@LoadString@3:
  0012f	c6 45 f9 ec	 mov	 BYTE PTR __k$[ebp+17], -20 ; ffffffecH
  00133	eb 5b		 jmp	 SHORT $LN111@LoadString@3
$LN80@LoadString@3:
  00135	c6 45 f8 ed	 mov	 BYTE PTR __k$[ebp+16], -19 ; ffffffedH
  00139	eb 55		 jmp	 SHORT $LN111@LoadString@3
$LN81@LoadString@3:
  0013b	c6 45 f7 ea	 mov	 BYTE PTR __k$[ebp+15], -22 ; ffffffeaH
  0013f	eb 4f		 jmp	 SHORT $LN111@LoadString@3
$LN82@LoadString@3:
  00141	88 4d f6	 mov	 BYTE PTR __k$[ebp+14], cl
  00144	eb 4a		 jmp	 SHORT $LN111@LoadString@3
$LN84@LoadString@3:
  00146	c6 45 f4 ed	 mov	 BYTE PTR __k$[ebp+12], -19 ; ffffffedH
  0014a	eb 44		 jmp	 SHORT $LN111@LoadString@3
$LN85@LoadString@3:
  0014c	c6 45 f3 ea	 mov	 BYTE PTR __k$[ebp+11], -22 ; ffffffeaH
  00150	eb 3e		 jmp	 SHORT $LN111@LoadString@3
$LN86@LoadString@3:
  00152	88 4d f2	 mov	 BYTE PTR __k$[ebp+10], cl
  00155	eb 39		 jmp	 SHORT $LN111@LoadString@3
$LN87@LoadString@3:
  00157	c6 45 f1 ec	 mov	 BYTE PTR __k$[ebp+9], -20 ; ffffffecH
  0015b	eb 33		 jmp	 SHORT $LN111@LoadString@3
$LN88@LoadString@3:
  0015d	c6 45 f0 ed	 mov	 BYTE PTR __k$[ebp+8], -19 ; ffffffedH
  00161	eb 2d		 jmp	 SHORT $LN111@LoadString@3
$LN89@LoadString@3:
  00163	c6 45 ef ea	 mov	 BYTE PTR __k$[ebp+7], -22 ; ffffffeaH
  00167	eb 27		 jmp	 SHORT $LN111@LoadString@3
$LN90@LoadString@3:
  00169	88 4d ee	 mov	 BYTE PTR __k$[ebp+6], cl
  0016c	eb 22		 jmp	 SHORT $LN111@LoadString@3
$LN91@LoadString@3:
  0016e	c6 45 ed ec	 mov	 BYTE PTR __k$[ebp+5], -20 ; ffffffecH
  00172	eb 1c		 jmp	 SHORT $LN111@LoadString@3
$LN92@LoadString@3:
  00174	c6 45 ec ed	 mov	 BYTE PTR __k$[ebp+4], -19 ; ffffffedH
  00178	eb 16		 jmp	 SHORT $LN111@LoadString@3
$LN93@LoadString@3:
  0017a	c6 45 eb ea	 mov	 BYTE PTR __k$[ebp+3], -22 ; ffffffeaH
  0017e	eb 10		 jmp	 SHORT $LN111@LoadString@3
$LN94@LoadString@3:
  00180	c6 45 ea eb	 mov	 BYTE PTR __k$[ebp+2], -21 ; ffffffebH
  00184	eb 0a		 jmp	 SHORT $LN111@LoadString@3
$LN95@LoadString@3:
  00186	c6 45 e9 ec	 mov	 BYTE PTR __k$[ebp+1], -20 ; ffffffecH
  0018a	eb 04		 jmp	 SHORT $LN111@LoadString@3
$LN96@LoadString@3:
  0018c	c6 45 e8 ed	 mov	 BYTE PTR __k$[ebp], -19	; ffffffedH
$LN111@LoadString@3:
  00190	6a 03		 push	 3
  00192	8d 45 e8	 lea	 eax, DWORD PTR __k$[ebp]
  00195	c6 45 f5 00	 mov	 BYTE PTR __k$[ebp+13], 0
  00199	5a		 pop	 edx
$LL104@LoadString@3:
  0019a	81 30 ed ec eb
	ea		 xor	 DWORD PTR [eax], -353637139 ; eaebecedH
  001a0	83 c0 04	 add	 eax, 4
  001a3	4a		 dec	 edx
  001a4	75 f4		 jne	 SHORT $LL104@LoadString@3

; 163  : 		LoadString(_k, d, b, i);

  001a6	ff 75 14	 push	 DWORD PTR _i$[ebp]
  001a9	8b 4d e4	 mov	 ecx, DWORD PTR _this$GSCopy$[ebp]
  001ac	80 75 f4 ed	 xor	 BYTE PTR __k$[ebp+12], -19 ; ffffffedH
  001b0	57		 push	 edi
  001b1	56		 push	 esi
  001b2	8d 45 e8	 lea	 eax, DWORD PTR __k$[ebp]
  001b5	50		 push	 eax
  001b6	ff 15 00 00 00
	00		 call	 DWORD PTR __imp_?LoadStringA@ioINILoader@@QAEXPBD0PADH@Z

; 164  : 	}

  001bc	8b 4d fc	 mov	 ecx, DWORD PTR __$ArrayPad$[ebp]
  001bf	5f		 pop	 edi
  001c0	33 cd		 xor	 ecx, ebp
  001c2	5e		 pop	 esi
  001c3	e8 00 00 00 00	 call	 @__security_check_cookie@4
  001c8	c9		 leave
  001c9	c2 10 00	 ret	 16			; 00000010H
??$LoadString_e@$0O@@ioINILoader@@QAEXAAY0O@$$CBDAAY00$$CBDPADH@Z ENDP ; ioINILoader::LoadString_e<14>
_TEXT	ENDS
PUBLIC	_this$GSCopy$
PUBLIC	__$ArrayPad$
PUBLIC	??$LoadString_e@$0BC@@ioINILoader@@QAEXAAY0BC@$$CBDAAY00$$CBDPADH@Z ; ioINILoader::LoadString_e<18>
; Function compile flags: /Ogsp
;	COMDAT ??$LoadString_e@$0BC@@ioINILoader@@QAEXAAY0BC@$$CBDAAY00$$CBDPADH@Z
_TEXT	SEGMENT
_this$GSCopy$ = -32					; size = 4
__k$ = -28						; size = 18
__$ArrayPad$ = -4					; size = 4
_k$ = 8							; size = 4
_d$ = 12						; size = 4
_b$ = 16						; size = 4
_i$ = 20						; size = 4
??$LoadString_e@$0BC@@ioINILoader@@QAEXAAY0BC@$$CBDAAY00$$CBDPADH@Z PROC ; ioINILoader::LoadString_e<18>, COMDAT
; _this$ = ecx

; 161  : 	{

  00000	55		 push	 ebp
  00001	8b ec		 mov	 ebp, esp
  00003	83 ec 20	 sub	 esp, 32			; 00000020H
  00006	a1 00 00 00 00	 mov	 eax, DWORD PTR ___security_cookie
  0000b	33 c5		 xor	 eax, ebp
  0000d	89 45 fc	 mov	 DWORD PTR __$ArrayPad$[ebp], eax
  00010	8b 45 08	 mov	 eax, DWORD PTR _k$[ebp]

; 162  : 		_ENCSTR(k, _k);

  00013	8a 10		 mov	 dl, BYTE PTR [eax]
  00015	56		 push	 esi
  00016	8b 75 0c	 mov	 esi, DWORD PTR _d$[ebp]
  00019	57		 push	 edi
  0001a	8b 7d 10	 mov	 edi, DWORD PTR _b$[ebp]
  0001d	89 4d e0	 mov	 DWORD PTR _this$GSCopy$[ebp], ecx
  00020	84 d2		 test	 dl, dl
  00022	0f 84 be 01 00
	00		 je	 $LN96@LoadString@4
  00028	80 f2 ed	 xor	 dl, -19			; ffffffedH
  0002b	88 55 e4	 mov	 BYTE PTR __k$[ebp], dl
  0002e	8a 50 01	 mov	 dl, BYTE PTR [eax+1]
  00031	84 d2		 test	 dl, dl
  00033	0f 84 a7 01 00
	00		 je	 $LN95@LoadString@4
  00039	80 f2 ec	 xor	 dl, -20			; ffffffecH
  0003c	88 55 e5	 mov	 BYTE PTR __k$[ebp+1], dl
  0003f	8a 50 02	 mov	 dl, BYTE PTR [eax+2]
  00042	84 d2		 test	 dl, dl
  00044	0f 84 90 01 00
	00		 je	 $LN94@LoadString@4
  0004a	b1 eb		 mov	 cl, -21			; ffffffebH
  0004c	32 d1		 xor	 dl, cl
  0004e	88 55 e6	 mov	 BYTE PTR __k$[ebp+2], dl
  00051	8a 50 03	 mov	 dl, BYTE PTR [eax+3]
  00054	84 d2		 test	 dl, dl
  00056	0f 84 78 01 00
	00		 je	 $LN93@LoadString@4
  0005c	80 f2 ea	 xor	 dl, -22			; ffffffeaH
  0005f	88 55 e7	 mov	 BYTE PTR __k$[ebp+3], dl
  00062	8a 50 04	 mov	 dl, BYTE PTR [eax+4]
  00065	84 d2		 test	 dl, dl
  00067	0f 84 61 01 00
	00		 je	 $LN92@LoadString@4
  0006d	80 f2 ed	 xor	 dl, -19			; ffffffedH
  00070	88 55 e8	 mov	 BYTE PTR __k$[ebp+4], dl
  00073	8a 50 05	 mov	 dl, BYTE PTR [eax+5]
  00076	84 d2		 test	 dl, dl
  00078	0f 84 4a 01 00
	00		 je	 $LN91@LoadString@4
  0007e	80 f2 ec	 xor	 dl, -20			; ffffffecH
  00081	88 55 e9	 mov	 BYTE PTR __k$[ebp+5], dl
  00084	8a 50 06	 mov	 dl, BYTE PTR [eax+6]
  00087	84 d2		 test	 dl, dl
  00089	0f 84 34 01 00
	00		 je	 $LN90@LoadString@4
  0008f	32 d1		 xor	 dl, cl
  00091	88 55 ea	 mov	 BYTE PTR __k$[ebp+6], dl
  00094	8a 50 07	 mov	 dl, BYTE PTR [eax+7]
  00097	84 d2		 test	 dl, dl
  00099	0f 84 1e 01 00
	00		 je	 $LN89@LoadString@4
  0009f	80 f2 ea	 xor	 dl, -22			; ffffffeaH
  000a2	88 55 eb	 mov	 BYTE PTR __k$[ebp+7], dl
  000a5	8a 50 08	 mov	 dl, BYTE PTR [eax+8]
  000a8	84 d2		 test	 dl, dl
  000aa	0f 84 07 01 00
	00		 je	 $LN88@LoadString@4
  000b0	80 f2 ed	 xor	 dl, -19			; ffffffedH
  000b3	88 55 ec	 mov	 BYTE PTR __k$[ebp+8], dl
  000b6	8a 50 09	 mov	 dl, BYTE PTR [eax+9]
  000b9	84 d2		 test	 dl, dl
  000bb	0f 84 f0 00 00
	00		 je	 $LN87@LoadString@4
  000c1	80 f2 ec	 xor	 dl, -20			; ffffffecH
  000c4	88 55 ed	 mov	 BYTE PTR __k$[ebp+9], dl
  000c7	8a 50 0a	 mov	 dl, BYTE PTR [eax+10]
  000ca	84 d2		 test	 dl, dl
  000cc	0f 84 da 00 00
	00		 je	 $LN86@LoadString@4
  000d2	32 d1		 xor	 dl, cl
  000d4	88 55 ee	 mov	 BYTE PTR __k$[ebp+10], dl
  000d7	8a 50 0b	 mov	 dl, BYTE PTR [eax+11]
  000da	84 d2		 test	 dl, dl
  000dc	0f 84 c4 00 00
	00		 je	 $LN85@LoadString@4
  000e2	80 f2 ea	 xor	 dl, -22			; ffffffeaH
  000e5	88 55 ef	 mov	 BYTE PTR __k$[ebp+11], dl
  000e8	8a 50 0c	 mov	 dl, BYTE PTR [eax+12]
  000eb	84 d2		 test	 dl, dl
  000ed	0f 84 ad 00 00
	00		 je	 $LN84@LoadString@4
  000f3	80 f2 ed	 xor	 dl, -19			; ffffffedH
  000f6	88 55 f0	 mov	 BYTE PTR __k$[ebp+12], dl
  000f9	8a 50 0d	 mov	 dl, BYTE PTR [eax+13]
  000fc	84 d2		 test	 dl, dl
  000fe	0f 84 96 00 00
	00		 je	 $LN83@LoadString@4
  00104	80 f2 ec	 xor	 dl, -20			; ffffffecH
  00107	88 55 f1	 mov	 BYTE PTR __k$[ebp+13], dl
  0010a	8a 50 0e	 mov	 dl, BYTE PTR [eax+14]
  0010d	84 d2		 test	 dl, dl
  0010f	0f 84 80 00 00
	00		 je	 $LN82@LoadString@4
  00115	32 d1		 xor	 dl, cl
  00117	88 55 f2	 mov	 BYTE PTR __k$[ebp+14], dl
  0011a	8a 50 0f	 mov	 dl, BYTE PTR [eax+15]
  0011d	84 d2		 test	 dl, dl
  0011f	74 6e		 je	 SHORT $LN81@LoadString@4
  00121	80 f2 ea	 xor	 dl, -22			; ffffffeaH
  00124	88 55 f3	 mov	 BYTE PTR __k$[ebp+15], dl
  00127	8a 50 10	 mov	 dl, BYTE PTR [eax+16]
  0012a	84 d2		 test	 dl, dl
  0012c	74 5b		 je	 SHORT $LN80@LoadString@4
  0012e	80 f2 ed	 xor	 dl, -19			; ffffffedH
  00131	80 78 11 00	 cmp	 BYTE PTR [eax+17], 0
  00135	88 55 f4	 mov	 BYTE PTR __k$[ebp+16], dl
  00138	0f 84 ac 00 00
	00		 je	 $LN111@LoadString@4
  0013e	8a 50 12	 mov	 dl, BYTE PTR [eax+18]
  00141	84 d2		 test	 dl, dl
  00143	74 3f		 je	 SHORT $LN78@LoadString@4
  00145	32 d1		 xor	 dl, cl
  00147	88 55 f6	 mov	 BYTE PTR __k$[ebp+18], dl
  0014a	8a 50 13	 mov	 dl, BYTE PTR [eax+19]
  0014d	84 d2		 test	 dl, dl
  0014f	74 2d		 je	 SHORT $LN77@LoadString@4
  00151	80 f2 ea	 xor	 dl, -22			; ffffffeaH
  00154	88 55 f7	 mov	 BYTE PTR __k$[ebp+19], dl
  00157	8a 50 14	 mov	 dl, BYTE PTR [eax+20]
  0015a	84 d2		 test	 dl, dl
  0015c	74 1a		 je	 SHORT $LN76@LoadString@4
  0015e	8a 40 15	 mov	 al, BYTE PTR [eax+21]
  00161	80 f2 ed	 xor	 dl, -19			; ffffffedH
  00164	88 55 f8	 mov	 BYTE PTR __k$[ebp+20], dl
  00167	84 c0		 test	 al, al
  00169	74 07		 je	 SHORT $LN75@LoadString@4
  0016b	34 ec		 xor	 al, -20			; ffffffecH
  0016d	88 45 f9	 mov	 BYTE PTR __k$[ebp+21], al
  00170	eb 78		 jmp	 SHORT $LN111@LoadString@4
$LN75@LoadString@4:
  00172	c6 45 f9 ec	 mov	 BYTE PTR __k$[ebp+21], -20 ; ffffffecH
  00176	eb 72		 jmp	 SHORT $LN111@LoadString@4
$LN76@LoadString@4:
  00178	c6 45 f8 ed	 mov	 BYTE PTR __k$[ebp+20], -19 ; ffffffedH
  0017c	eb 6c		 jmp	 SHORT $LN111@LoadString@4
$LN77@LoadString@4:
  0017e	c6 45 f7 ea	 mov	 BYTE PTR __k$[ebp+19], -22 ; ffffffeaH
  00182	eb 66		 jmp	 SHORT $LN111@LoadString@4
$LN78@LoadString@4:
  00184	88 4d f6	 mov	 BYTE PTR __k$[ebp+18], cl
  00187	eb 61		 jmp	 SHORT $LN111@LoadString@4
$LN80@LoadString@4:
  00189	c6 45 f4 ed	 mov	 BYTE PTR __k$[ebp+16], -19 ; ffffffedH
  0018d	eb 5b		 jmp	 SHORT $LN111@LoadString@4
$LN81@LoadString@4:
  0018f	c6 45 f3 ea	 mov	 BYTE PTR __k$[ebp+15], -22 ; ffffffeaH
  00193	eb 55		 jmp	 SHORT $LN111@LoadString@4
$LN82@LoadString@4:
  00195	88 4d f2	 mov	 BYTE PTR __k$[ebp+14], cl
  00198	eb 50		 jmp	 SHORT $LN111@LoadString@4
$LN83@LoadString@4:
  0019a	c6 45 f1 ec	 mov	 BYTE PTR __k$[ebp+13], -20 ; ffffffecH
  0019e	eb 4a		 jmp	 SHORT $LN111@LoadString@4
$LN84@LoadString@4:
  001a0	c6 45 f0 ed	 mov	 BYTE PTR __k$[ebp+12], -19 ; ffffffedH
  001a4	eb 44		 jmp	 SHORT $LN111@LoadString@4
$LN85@LoadString@4:
  001a6	c6 45 ef ea	 mov	 BYTE PTR __k$[ebp+11], -22 ; ffffffeaH
  001aa	eb 3e		 jmp	 SHORT $LN111@LoadString@4
$LN86@LoadString@4:
  001ac	88 4d ee	 mov	 BYTE PTR __k$[ebp+10], cl
  001af	eb 39		 jmp	 SHORT $LN111@LoadString@4
$LN87@LoadString@4:
  001b1	c6 45 ed ec	 mov	 BYTE PTR __k$[ebp+9], -20 ; ffffffecH
  001b5	eb 33		 jmp	 SHORT $LN111@LoadString@4
$LN88@LoadString@4:
  001b7	c6 45 ec ed	 mov	 BYTE PTR __k$[ebp+8], -19 ; ffffffedH
  001bb	eb 2d		 jmp	 SHORT $LN111@LoadString@4
$LN89@LoadString@4:
  001bd	c6 45 eb ea	 mov	 BYTE PTR __k$[ebp+7], -22 ; ffffffeaH
  001c1	eb 27		 jmp	 SHORT $LN111@LoadString@4
$LN90@LoadString@4:
  001c3	88 4d ea	 mov	 BYTE PTR __k$[ebp+6], cl
  001c6	eb 22		 jmp	 SHORT $LN111@LoadString@4
$LN91@LoadString@4:
  001c8	c6 45 e9 ec	 mov	 BYTE PTR __k$[ebp+5], -20 ; ffffffecH
  001cc	eb 1c		 jmp	 SHORT $LN111@LoadString@4
$LN92@LoadString@4:
  001ce	c6 45 e8 ed	 mov	 BYTE PTR __k$[ebp+4], -19 ; ffffffedH
  001d2	eb 16		 jmp	 SHORT $LN111@LoadString@4
$LN93@LoadString@4:
  001d4	c6 45 e7 ea	 mov	 BYTE PTR __k$[ebp+3], -22 ; ffffffeaH
  001d8	eb 10		 jmp	 SHORT $LN111@LoadString@4
$LN94@LoadString@4:
  001da	c6 45 e6 eb	 mov	 BYTE PTR __k$[ebp+2], -21 ; ffffffebH
  001de	eb 0a		 jmp	 SHORT $LN111@LoadString@4
$LN95@LoadString@4:
  001e0	c6 45 e5 ec	 mov	 BYTE PTR __k$[ebp+1], -20 ; ffffffecH
  001e4	eb 04		 jmp	 SHORT $LN111@LoadString@4
$LN96@LoadString@4:
  001e6	c6 45 e4 ed	 mov	 BYTE PTR __k$[ebp], -19	; ffffffedH
$LN111@LoadString@4:
  001ea	6a 04		 push	 4
  001ec	8d 45 e4	 lea	 eax, DWORD PTR __k$[ebp]
  001ef	c6 45 f5 00	 mov	 BYTE PTR __k$[ebp+17], 0
  001f3	5a		 pop	 edx
$LL104@LoadString@4:
  001f4	81 30 ed ec eb
	ea		 xor	 DWORD PTR [eax], -353637139 ; eaebecedH
  001fa	83 c0 04	 add	 eax, 4
  001fd	4a		 dec	 edx
  001fe	75 f4		 jne	 SHORT $LL104@LoadString@4

; 163  : 		LoadString(_k, d, b, i);

  00200	ff 75 14	 push	 DWORD PTR _i$[ebp]
  00203	8b 4d e0	 mov	 ecx, DWORD PTR _this$GSCopy$[ebp]
  00206	80 75 f4 ed	 xor	 BYTE PTR __k$[ebp+16], -19 ; ffffffedH
  0020a	57		 push	 edi
  0020b	56		 push	 esi
  0020c	8d 45 e4	 lea	 eax, DWORD PTR __k$[ebp]
  0020f	50		 push	 eax
  00210	ff 15 00 00 00
	00		 call	 DWORD PTR __imp_?LoadStringA@ioINILoader@@QAEXPBD0PADH@Z

; 164  : 	}

  00216	8b 4d fc	 mov	 ecx, DWORD PTR __$ArrayPad$[ebp]
  00219	5f		 pop	 edi
  0021a	33 cd		 xor	 ecx, ebp
  0021c	5e		 pop	 esi
  0021d	e8 00 00 00 00	 call	 @__security_check_cookie@4
  00222	c9		 leave
  00223	c2 10 00	 ret	 16			; 00000010H
??$LoadString_e@$0BC@@ioINILoader@@QAEXAAY0BC@$$CBDAAY00$$CBDPADH@Z ENDP ; ioINILoader::LoadString_e<18>
_TEXT	ENDS
PUBLIC	__$ArrayPad$
PUBLIC	??$LoadInt_e@$0BK@@ioINILoader@@QAEHAAY0BK@$$CBDH@Z ; ioINILoader::LoadInt_e<26>
EXTRN	__imp_?LoadInt@ioINILoader@@QAEHPBDH@Z:PROC
; Function compile flags: /Ogsp
;	COMDAT ??$LoadInt_e@$0BK@@ioINILoader@@QAEHAAY0BK@$$CBDH@Z
_TEXT	SEGMENT
__k$ = -36						; size = 26
__$ArrayPad$ = -4					; size = 4
_k$ = 8							; size = 4
_i$ = 12						; size = 4
??$LoadInt_e@$0BK@@ioINILoader@@QAEHAAY0BK@$$CBDH@Z PROC ; ioINILoader::LoadInt_e<26>, COMDAT
; _this$ = ecx

; 118  : 	{

  00000	55		 push	 ebp
  00001	8b ec		 mov	 ebp, esp
  00003	83 ec 24	 sub	 esp, 36			; 00000024H
  00006	a1 00 00 00 00	 mov	 eax, DWORD PTR ___security_cookie
  0000b	33 c5		 xor	 eax, ebp
  0000d	89 45 fc	 mov	 DWORD PTR __$ArrayPad$[ebp], eax
  00010	8b 45 08	 mov	 eax, DWORD PTR _k$[ebp]

; 119  : 		_ENCSTR(k, _k);

  00013	8a 10		 mov	 dl, BYTE PTR [eax]
  00015	53		 push	 ebx
  00016	56		 push	 esi
  00017	8b f1		 mov	 esi, ecx
  00019	84 d2		 test	 dl, dl
  0001b	0f 84 79 02 00
	00		 je	 $LN96@LoadInt_e
  00021	80 f2 ed	 xor	 dl, -19			; ffffffedH
  00024	88 55 dc	 mov	 BYTE PTR __k$[ebp], dl
  00027	8a 50 01	 mov	 dl, BYTE PTR [eax+1]
  0002a	84 d2		 test	 dl, dl
  0002c	0f 84 62 02 00
	00		 je	 $LN95@LoadInt_e
  00032	80 f2 ec	 xor	 dl, -20			; ffffffecH
  00035	88 55 dd	 mov	 BYTE PTR __k$[ebp+1], dl
  00038	8a 50 02	 mov	 dl, BYTE PTR [eax+2]
  0003b	84 d2		 test	 dl, dl
  0003d	0f 84 4b 02 00
	00		 je	 $LN94@LoadInt_e
  00043	b1 eb		 mov	 cl, -21			; ffffffebH
  00045	32 d1		 xor	 dl, cl
  00047	88 55 de	 mov	 BYTE PTR __k$[ebp+2], dl
  0004a	8a 50 03	 mov	 dl, BYTE PTR [eax+3]
  0004d	84 d2		 test	 dl, dl
  0004f	0f 84 33 02 00
	00		 je	 $LN93@LoadInt_e
  00055	b3 ea		 mov	 bl, -22			; ffffffeaH
  00057	32 d3		 xor	 dl, bl
  00059	88 55 df	 mov	 BYTE PTR __k$[ebp+3], dl
  0005c	8a 50 04	 mov	 dl, BYTE PTR [eax+4]
  0005f	84 d2		 test	 dl, dl
  00061	0f 84 1b 02 00
	00		 je	 $LN92@LoadInt_e
  00067	80 f2 ed	 xor	 dl, -19			; ffffffedH
  0006a	88 55 e0	 mov	 BYTE PTR __k$[ebp+4], dl
  0006d	8a 50 05	 mov	 dl, BYTE PTR [eax+5]
  00070	84 d2		 test	 dl, dl
  00072	0f 84 04 02 00
	00		 je	 $LN91@LoadInt_e
  00078	80 f2 ec	 xor	 dl, -20			; ffffffecH
  0007b	88 55 e1	 mov	 BYTE PTR __k$[ebp+5], dl
  0007e	8a 50 06	 mov	 dl, BYTE PTR [eax+6]
  00081	84 d2		 test	 dl, dl
  00083	0f 84 ee 01 00
	00		 je	 $LN90@LoadInt_e
  00089	32 d1		 xor	 dl, cl
  0008b	88 55 e2	 mov	 BYTE PTR __k$[ebp+6], dl
  0008e	8a 50 07	 mov	 dl, BYTE PTR [eax+7]
  00091	84 d2		 test	 dl, dl
  00093	0f 84 d9 01 00
	00		 je	 $LN89@LoadInt_e
  00099	32 d3		 xor	 dl, bl
  0009b	88 55 e3	 mov	 BYTE PTR __k$[ebp+7], dl
  0009e	8a 50 08	 mov	 dl, BYTE PTR [eax+8]
  000a1	84 d2		 test	 dl, dl
  000a3	0f 84 c3 01 00
	00		 je	 $LN88@LoadInt_e
  000a9	80 f2 ed	 xor	 dl, -19			; ffffffedH
  000ac	88 55 e4	 mov	 BYTE PTR __k$[ebp+8], dl
  000af	8a 50 09	 mov	 dl, BYTE PTR [eax+9]
  000b2	84 d2		 test	 dl, dl
  000b4	0f 84 ac 01 00
	00		 je	 $LN87@LoadInt_e
  000ba	80 f2 ec	 xor	 dl, -20			; ffffffecH
  000bd	88 55 e5	 mov	 BYTE PTR __k$[ebp+9], dl
  000c0	8a 50 0a	 mov	 dl, BYTE PTR [eax+10]
  000c3	84 d2		 test	 dl, dl
  000c5	0f 84 96 01 00
	00		 je	 $LN86@LoadInt_e
  000cb	32 d1		 xor	 dl, cl
  000cd	88 55 e6	 mov	 BYTE PTR __k$[ebp+10], dl
  000d0	8a 50 0b	 mov	 dl, BYTE PTR [eax+11]
  000d3	84 d2		 test	 dl, dl
  000d5	0f 84 81 01 00
	00		 je	 $LN85@LoadInt_e
  000db	32 d3		 xor	 dl, bl
  000dd	88 55 e7	 mov	 BYTE PTR __k$[ebp+11], dl
  000e0	8a 50 0c	 mov	 dl, BYTE PTR [eax+12]
  000e3	84 d2		 test	 dl, dl
  000e5	0f 84 6b 01 00
	00		 je	 $LN84@LoadInt_e
  000eb	80 f2 ed	 xor	 dl, -19			; ffffffedH
  000ee	88 55 e8	 mov	 BYTE PTR __k$[ebp+12], dl
  000f1	8a 50 0d	 mov	 dl, BYTE PTR [eax+13]
  000f4	84 d2		 test	 dl, dl
  000f6	0f 84 54 01 00
	00		 je	 $LN83@LoadInt_e
  000fc	80 f2 ec	 xor	 dl, -20			; ffffffecH
  000ff	88 55 e9	 mov	 BYTE PTR __k$[ebp+13], dl
  00102	8a 50 0e	 mov	 dl, BYTE PTR [eax+14]
  00105	84 d2		 test	 dl, dl
  00107	0f 84 3e 01 00
	00		 je	 $LN82@LoadInt_e
  0010d	32 d1		 xor	 dl, cl
  0010f	88 55 ea	 mov	 BYTE PTR __k$[ebp+14], dl
  00112	8a 50 0f	 mov	 dl, BYTE PTR [eax+15]
  00115	84 d2		 test	 dl, dl
  00117	0f 84 29 01 00
	00		 je	 $LN81@LoadInt_e
  0011d	32 d3		 xor	 dl, bl
  0011f	88 55 eb	 mov	 BYTE PTR __k$[ebp+15], dl
  00122	8a 50 10	 mov	 dl, BYTE PTR [eax+16]
  00125	84 d2		 test	 dl, dl
  00127	0f 84 13 01 00
	00		 je	 $LN80@LoadInt_e
  0012d	80 f2 ed	 xor	 dl, -19			; ffffffedH
  00130	88 55 ec	 mov	 BYTE PTR __k$[ebp+16], dl
  00133	8a 50 11	 mov	 dl, BYTE PTR [eax+17]
  00136	84 d2		 test	 dl, dl
  00138	0f 84 fc 00 00
	00		 je	 $LN79@LoadInt_e
  0013e	80 f2 ec	 xor	 dl, -20			; ffffffecH
  00141	88 55 ed	 mov	 BYTE PTR __k$[ebp+17], dl
  00144	8a 50 12	 mov	 dl, BYTE PTR [eax+18]
  00147	84 d2		 test	 dl, dl
  00149	0f 84 e6 00 00
	00		 je	 $LN78@LoadInt_e
  0014f	32 d1		 xor	 dl, cl
  00151	88 55 ee	 mov	 BYTE PTR __k$[ebp+18], dl
  00154	8a 50 13	 mov	 dl, BYTE PTR [eax+19]
  00157	84 d2		 test	 dl, dl
  00159	0f 84 d1 00 00
	00		 je	 $LN77@LoadInt_e
  0015f	32 d3		 xor	 dl, bl
  00161	88 55 ef	 mov	 BYTE PTR __k$[ebp+19], dl
  00164	8a 50 14	 mov	 dl, BYTE PTR [eax+20]
  00167	84 d2		 test	 dl, dl
  00169	0f 84 bb 00 00
	00		 je	 $LN76@LoadInt_e
  0016f	80 f2 ed	 xor	 dl, -19			; ffffffedH
  00172	88 55 f0	 mov	 BYTE PTR __k$[ebp+20], dl
  00175	8a 50 15	 mov	 dl, BYTE PTR [eax+21]
  00178	84 d2		 test	 dl, dl
  0017a	0f 84 a4 00 00
	00		 je	 $LN75@LoadInt_e
  00180	80 f2 ec	 xor	 dl, -20			; ffffffecH
  00183	88 55 f1	 mov	 BYTE PTR __k$[ebp+21], dl
  00186	8a 50 16	 mov	 dl, BYTE PTR [eax+22]
  00189	84 d2		 test	 dl, dl
  0018b	0f 84 8e 00 00
	00		 je	 $LN74@LoadInt_e
  00191	32 d1		 xor	 dl, cl
  00193	88 55 f2	 mov	 BYTE PTR __k$[ebp+22], dl
  00196	8a 50 17	 mov	 dl, BYTE PTR [eax+23]
  00199	84 d2		 test	 dl, dl
  0019b	74 7d		 je	 SHORT $LN73@LoadInt_e
  0019d	32 d3		 xor	 dl, bl
  0019f	88 55 f3	 mov	 BYTE PTR __k$[ebp+23], dl
  001a2	8a 50 18	 mov	 dl, BYTE PTR [eax+24]
  001a5	84 d2		 test	 dl, dl
  001a7	74 68		 je	 SHORT $LN72@LoadInt_e
  001a9	80 f2 ed	 xor	 dl, -19			; ffffffedH
  001ac	80 78 19 00	 cmp	 BYTE PTR [eax+25], 0
  001b0	88 55 f4	 mov	 BYTE PTR __k$[ebp+24], dl
  001b3	0f 84 e5 00 00
	00		 je	 $LN1@LoadInt_e
  001b9	8a 50 1a	 mov	 dl, BYTE PTR [eax+26]
  001bc	84 d2		 test	 dl, dl
  001be	74 49		 je	 SHORT $LN70@LoadInt_e
  001c0	32 d1		 xor	 dl, cl
  001c2	88 55 f6	 mov	 BYTE PTR __k$[ebp+26], dl
  001c5	8a 50 1b	 mov	 dl, BYTE PTR [eax+27]
  001c8	84 d2		 test	 dl, dl
  001ca	74 35		 je	 SHORT $LN69@LoadInt_e
  001cc	32 d3		 xor	 dl, bl
  001ce	88 55 f7	 mov	 BYTE PTR __k$[ebp+27], dl
  001d1	8a 50 1c	 mov	 dl, BYTE PTR [eax+28]
  001d4	84 d2		 test	 dl, dl
  001d6	74 20		 je	 SHORT $LN68@LoadInt_e
  001d8	8a 40 1d	 mov	 al, BYTE PTR [eax+29]
  001db	80 f2 ed	 xor	 dl, -19			; ffffffedH
  001de	88 55 f8	 mov	 BYTE PTR __k$[ebp+28], dl
  001e1	84 c0		 test	 al, al
  001e3	74 0a		 je	 SHORT $LN67@LoadInt_e
  001e5	34 ec		 xor	 al, -20			; ffffffecH
  001e7	88 45 f9	 mov	 BYTE PTR __k$[ebp+29], al
  001ea	e9 af 00 00 00	 jmp	 $LN1@LoadInt_e
$LN67@LoadInt_e:
  001ef	c6 45 f9 ec	 mov	 BYTE PTR __k$[ebp+29], -20 ; ffffffecH
  001f3	e9 a6 00 00 00	 jmp	 $LN1@LoadInt_e
$LN68@LoadInt_e:
  001f8	c6 45 f8 ed	 mov	 BYTE PTR __k$[ebp+28], -19 ; ffffffedH
  001fc	e9 9d 00 00 00	 jmp	 $LN1@LoadInt_e
$LN69@LoadInt_e:
  00201	88 5d f7	 mov	 BYTE PTR __k$[ebp+27], bl
  00204	e9 95 00 00 00	 jmp	 $LN1@LoadInt_e
$LN70@LoadInt_e:
  00209	88 4d f6	 mov	 BYTE PTR __k$[ebp+26], cl
  0020c	e9 8d 00 00 00	 jmp	 $LN1@LoadInt_e
$LN72@LoadInt_e:
  00211	c6 45 f4 ed	 mov	 BYTE PTR __k$[ebp+24], -19 ; ffffffedH
  00215	e9 84 00 00 00	 jmp	 $LN1@LoadInt_e
$LN73@LoadInt_e:
  0021a	88 5d f3	 mov	 BYTE PTR __k$[ebp+23], bl
  0021d	eb 7f		 jmp	 SHORT $LN1@LoadInt_e
$LN74@LoadInt_e:
  0021f	88 4d f2	 mov	 BYTE PTR __k$[ebp+22], cl
  00222	eb 7a		 jmp	 SHORT $LN1@LoadInt_e
$LN75@LoadInt_e:
  00224	c6 45 f1 ec	 mov	 BYTE PTR __k$[ebp+21], -20 ; ffffffecH
  00228	eb 74		 jmp	 SHORT $LN1@LoadInt_e
$LN76@LoadInt_e:
  0022a	c6 45 f0 ed	 mov	 BYTE PTR __k$[ebp+20], -19 ; ffffffedH
  0022e	eb 6e		 jmp	 SHORT $LN1@LoadInt_e
$LN77@LoadInt_e:
  00230	88 5d ef	 mov	 BYTE PTR __k$[ebp+19], bl
  00233	eb 69		 jmp	 SHORT $LN1@LoadInt_e
$LN78@LoadInt_e:
  00235	88 4d ee	 mov	 BYTE PTR __k$[ebp+18], cl
  00238	eb 64		 jmp	 SHORT $LN1@LoadInt_e
$LN79@LoadInt_e:
  0023a	c6 45 ed ec	 mov	 BYTE PTR __k$[ebp+17], -20 ; ffffffecH
  0023e	eb 5e		 jmp	 SHORT $LN1@LoadInt_e
$LN80@LoadInt_e:
  00240	c6 45 ec ed	 mov	 BYTE PTR __k$[ebp+16], -19 ; ffffffedH
  00244	eb 58		 jmp	 SHORT $LN1@LoadInt_e
$LN81@LoadInt_e:
  00246	88 5d eb	 mov	 BYTE PTR __k$[ebp+15], bl
  00249	eb 53		 jmp	 SHORT $LN1@LoadInt_e
$LN82@LoadInt_e:
  0024b	88 4d ea	 mov	 BYTE PTR __k$[ebp+14], cl
  0024e	eb 4e		 jmp	 SHORT $LN1@LoadInt_e
$LN83@LoadInt_e:
  00250	c6 45 e9 ec	 mov	 BYTE PTR __k$[ebp+13], -20 ; ffffffecH
  00254	eb 48		 jmp	 SHORT $LN1@LoadInt_e
$LN84@LoadInt_e:
  00256	c6 45 e8 ed	 mov	 BYTE PTR __k$[ebp+12], -19 ; ffffffedH
  0025a	eb 42		 jmp	 SHORT $LN1@LoadInt_e
$LN85@LoadInt_e:
  0025c	88 5d e7	 mov	 BYTE PTR __k$[ebp+11], bl
  0025f	eb 3d		 jmp	 SHORT $LN1@LoadInt_e
$LN86@LoadInt_e:
  00261	88 4d e6	 mov	 BYTE PTR __k$[ebp+10], cl
  00264	eb 38		 jmp	 SHORT $LN1@LoadInt_e
$LN87@LoadInt_e:
  00266	c6 45 e5 ec	 mov	 BYTE PTR __k$[ebp+9], -20 ; ffffffecH
  0026a	eb 32		 jmp	 SHORT $LN1@LoadInt_e
$LN88@LoadInt_e:
  0026c	c6 45 e4 ed	 mov	 BYTE PTR __k$[ebp+8], -19 ; ffffffedH
  00270	eb 2c		 jmp	 SHORT $LN1@LoadInt_e
$LN89@LoadInt_e:
  00272	88 5d e3	 mov	 BYTE PTR __k$[ebp+7], bl
  00275	eb 27		 jmp	 SHORT $LN1@LoadInt_e
$LN90@LoadInt_e:
  00277	88 4d e2	 mov	 BYTE PTR __k$[ebp+6], cl
  0027a	eb 22		 jmp	 SHORT $LN1@LoadInt_e
$LN91@LoadInt_e:
  0027c	c6 45 e1 ec	 mov	 BYTE PTR __k$[ebp+5], -20 ; ffffffecH
  00280	eb 1c		 jmp	 SHORT $LN1@LoadInt_e
$LN92@LoadInt_e:
  00282	c6 45 e0 ed	 mov	 BYTE PTR __k$[ebp+4], -19 ; ffffffedH
  00286	eb 16		 jmp	 SHORT $LN1@LoadInt_e
$LN93@LoadInt_e:
  00288	c6 45 df ea	 mov	 BYTE PTR __k$[ebp+3], -22 ; ffffffeaH
  0028c	eb 10		 jmp	 SHORT $LN1@LoadInt_e
$LN94@LoadInt_e:
  0028e	c6 45 de eb	 mov	 BYTE PTR __k$[ebp+2], -21 ; ffffffebH
  00292	eb 0a		 jmp	 SHORT $LN1@LoadInt_e
$LN95@LoadInt_e:
  00294	c6 45 dd ec	 mov	 BYTE PTR __k$[ebp+1], -20 ; ffffffecH
  00298	eb 04		 jmp	 SHORT $LN1@LoadInt_e
$LN96@LoadInt_e:
  0029a	c6 45 dc ed	 mov	 BYTE PTR __k$[ebp], -19	; ffffffedH
$LN1@LoadInt_e:
  0029e	6a 06		 push	 6
  002a0	8d 45 dc	 lea	 eax, DWORD PTR __k$[ebp]
  002a3	c6 45 f5 00	 mov	 BYTE PTR __k$[ebp+25], 0
  002a7	5a		 pop	 edx
$LL104@LoadInt_e:
  002a8	81 30 ed ec eb
	ea		 xor	 DWORD PTR [eax], -353637139 ; eaebecedH
  002ae	83 c0 04	 add	 eax, 4
  002b1	4a		 dec	 edx
  002b2	75 f4		 jne	 SHORT $LL104@LoadInt_e

; 120  : 		return LoadInt(_k, i);

  002b4	ff 75 0c	 push	 DWORD PTR _i$[ebp]
  002b7	80 75 f4 ed	 xor	 BYTE PTR __k$[ebp+24], -19 ; ffffffedH
  002bb	8d 45 dc	 lea	 eax, DWORD PTR __k$[ebp]
  002be	50		 push	 eax
  002bf	8b ce		 mov	 ecx, esi
  002c1	ff 15 00 00 00
	00		 call	 DWORD PTR __imp_?LoadInt@ioINILoader@@QAEHPBDH@Z

; 121  : 	}

  002c7	8b 4d fc	 mov	 ecx, DWORD PTR __$ArrayPad$[ebp]
  002ca	5e		 pop	 esi
  002cb	33 cd		 xor	 ecx, ebp
  002cd	5b		 pop	 ebx
  002ce	e8 00 00 00 00	 call	 @__security_check_cookie@4
  002d3	c9		 leave
  002d4	c2 08 00	 ret	 8
??$LoadInt_e@$0BK@@ioINILoader@@QAEHAAY0BK@$$CBDH@Z ENDP ; ioINILoader::LoadInt_e<26>
_TEXT	ENDS
PUBLIC	__$ArrayPad$
PUBLIC	??$LoadInt_e@$0BD@@ioINILoader@@QAEHAAY0BD@$$CBDH@Z ; ioINILoader::LoadInt_e<19>
; Function compile flags: /Ogsp
;	COMDAT ??$LoadInt_e@$0BD@@ioINILoader@@QAEHAAY0BD@$$CBDH@Z
_TEXT	SEGMENT
__k$ = -28						; size = 19
__$ArrayPad$ = -4					; size = 4
_k$ = 8							; size = 4
_i$ = 12						; size = 4
??$LoadInt_e@$0BD@@ioINILoader@@QAEHAAY0BD@$$CBDH@Z PROC ; ioINILoader::LoadInt_e<19>, COMDAT
; _this$ = ecx

; 118  : 	{

  00000	55		 push	 ebp
  00001	8b ec		 mov	 ebp, esp
  00003	83 ec 1c	 sub	 esp, 28			; 0000001cH
  00006	a1 00 00 00 00	 mov	 eax, DWORD PTR ___security_cookie
  0000b	33 c5		 xor	 eax, ebp
  0000d	89 45 fc	 mov	 DWORD PTR __$ArrayPad$[ebp], eax
  00010	8b 45 08	 mov	 eax, DWORD PTR _k$[ebp]

; 119  : 		_ENCSTR(k, _k);

  00013	8a 10		 mov	 dl, BYTE PTR [eax]
  00015	56		 push	 esi
  00016	8b f1		 mov	 esi, ecx
  00018	84 d2		 test	 dl, dl
  0001a	0f 84 cf 01 00
	00		 je	 $LN96@LoadInt_e@2
  00020	80 f2 ed	 xor	 dl, -19			; ffffffedH
  00023	88 55 e4	 mov	 BYTE PTR __k$[ebp], dl
  00026	8a 50 01	 mov	 dl, BYTE PTR [eax+1]
  00029	84 d2		 test	 dl, dl
  0002b	0f 84 b8 01 00
	00		 je	 $LN95@LoadInt_e@2
  00031	b1 ec		 mov	 cl, -20			; ffffffecH
  00033	32 d1		 xor	 dl, cl
  00035	88 55 e5	 mov	 BYTE PTR __k$[ebp+1], dl
  00038	8a 50 02	 mov	 dl, BYTE PTR [eax+2]
  0003b	84 d2		 test	 dl, dl
  0003d	0f 84 a0 01 00
	00		 je	 $LN94@LoadInt_e@2
  00043	80 f2 eb	 xor	 dl, -21			; ffffffebH
  00046	88 55 e6	 mov	 BYTE PTR __k$[ebp+2], dl
  00049	8a 50 03	 mov	 dl, BYTE PTR [eax+3]
  0004c	84 d2		 test	 dl, dl
  0004e	0f 84 89 01 00
	00		 je	 $LN93@LoadInt_e@2
  00054	80 f2 ea	 xor	 dl, -22			; ffffffeaH
  00057	88 55 e7	 mov	 BYTE PTR __k$[ebp+3], dl
  0005a	8a 50 04	 mov	 dl, BYTE PTR [eax+4]
  0005d	84 d2		 test	 dl, dl
  0005f	0f 84 72 01 00
	00		 je	 $LN92@LoadInt_e@2
  00065	80 f2 ed	 xor	 dl, -19			; ffffffedH
  00068	88 55 e8	 mov	 BYTE PTR __k$[ebp+4], dl
  0006b	8a 50 05	 mov	 dl, BYTE PTR [eax+5]
  0006e	84 d2		 test	 dl, dl
  00070	0f 84 5c 01 00
	00		 je	 $LN91@LoadInt_e@2
  00076	32 d1		 xor	 dl, cl
  00078	88 55 e9	 mov	 BYTE PTR __k$[ebp+5], dl
  0007b	8a 50 06	 mov	 dl, BYTE PTR [eax+6]
  0007e	84 d2		 test	 dl, dl
  00080	0f 84 46 01 00
	00		 je	 $LN90@LoadInt_e@2
  00086	80 f2 eb	 xor	 dl, -21			; ffffffebH
  00089	88 55 ea	 mov	 BYTE PTR __k$[ebp+6], dl
  0008c	8a 50 07	 mov	 dl, BYTE PTR [eax+7]
  0008f	84 d2		 test	 dl, dl
  00091	0f 84 2f 01 00
	00		 je	 $LN89@LoadInt_e@2
  00097	80 f2 ea	 xor	 dl, -22			; ffffffeaH
  0009a	88 55 eb	 mov	 BYTE PTR __k$[ebp+7], dl
  0009d	8a 50 08	 mov	 dl, BYTE PTR [eax+8]
  000a0	84 d2		 test	 dl, dl
  000a2	0f 84 18 01 00
	00		 je	 $LN88@LoadInt_e@2
  000a8	80 f2 ed	 xor	 dl, -19			; ffffffedH
  000ab	88 55 ec	 mov	 BYTE PTR __k$[ebp+8], dl
  000ae	8a 50 09	 mov	 dl, BYTE PTR [eax+9]
  000b1	84 d2		 test	 dl, dl
  000b3	0f 84 02 01 00
	00		 je	 $LN87@LoadInt_e@2
  000b9	32 d1		 xor	 dl, cl
  000bb	88 55 ed	 mov	 BYTE PTR __k$[ebp+9], dl
  000be	8a 50 0a	 mov	 dl, BYTE PTR [eax+10]
  000c1	84 d2		 test	 dl, dl
  000c3	0f 84 ec 00 00
	00		 je	 $LN86@LoadInt_e@2
  000c9	80 f2 eb	 xor	 dl, -21			; ffffffebH
  000cc	88 55 ee	 mov	 BYTE PTR __k$[ebp+10], dl
  000cf	8a 50 0b	 mov	 dl, BYTE PTR [eax+11]
  000d2	84 d2		 test	 dl, dl
  000d4	0f 84 d5 00 00
	00		 je	 $LN85@LoadInt_e@2
  000da	80 f2 ea	 xor	 dl, -22			; ffffffeaH
  000dd	88 55 ef	 mov	 BYTE PTR __k$[ebp+11], dl
  000e0	8a 50 0c	 mov	 dl, BYTE PTR [eax+12]
  000e3	84 d2		 test	 dl, dl
  000e5	0f 84 be 00 00
	00		 je	 $LN84@LoadInt_e@2
  000eb	80 f2 ed	 xor	 dl, -19			; ffffffedH
  000ee	88 55 f0	 mov	 BYTE PTR __k$[ebp+12], dl
  000f1	8a 50 0d	 mov	 dl, BYTE PTR [eax+13]
  000f4	84 d2		 test	 dl, dl
  000f6	0f 84 a8 00 00
	00		 je	 $LN83@LoadInt_e@2
  000fc	32 d1		 xor	 dl, cl
  000fe	88 55 f1	 mov	 BYTE PTR __k$[ebp+13], dl
  00101	8a 50 0e	 mov	 dl, BYTE PTR [eax+14]
  00104	84 d2		 test	 dl, dl
  00106	0f 84 92 00 00
	00		 je	 $LN82@LoadInt_e@2
  0010c	80 f2 eb	 xor	 dl, -21			; ffffffebH
  0010f	88 55 f2	 mov	 BYTE PTR __k$[ebp+14], dl
  00112	8a 50 0f	 mov	 dl, BYTE PTR [eax+15]
  00115	84 d2		 test	 dl, dl
  00117	74 7f		 je	 SHORT $LN81@LoadInt_e@2
  00119	80 f2 ea	 xor	 dl, -22			; ffffffeaH
  0011c	88 55 f3	 mov	 BYTE PTR __k$[ebp+15], dl
  0011f	8a 50 10	 mov	 dl, BYTE PTR [eax+16]
  00122	84 d2		 test	 dl, dl
  00124	74 6c		 je	 SHORT $LN80@LoadInt_e@2
  00126	80 f2 ed	 xor	 dl, -19			; ffffffedH
  00129	88 55 f4	 mov	 BYTE PTR __k$[ebp+16], dl
  0012c	8a 50 11	 mov	 dl, BYTE PTR [eax+17]
  0012f	84 d2		 test	 dl, dl
  00131	74 5a		 je	 SHORT $LN79@LoadInt_e@2
  00133	32 d1		 xor	 dl, cl
  00135	80 78 12 00	 cmp	 BYTE PTR [eax+18], 0
  00139	88 55 f5	 mov	 BYTE PTR __k$[ebp+17], dl
  0013c	0f 84 b1 00 00
	00		 je	 $LN1@LoadInt_e@2
  00142	8a 50 13	 mov	 dl, BYTE PTR [eax+19]
  00145	84 d2		 test	 dl, dl
  00147	74 3e		 je	 SHORT $LN77@LoadInt_e@2
  00149	80 f2 ea	 xor	 dl, -22			; ffffffeaH
  0014c	88 55 f7	 mov	 BYTE PTR __k$[ebp+19], dl
  0014f	8a 50 14	 mov	 dl, BYTE PTR [eax+20]
  00152	84 d2		 test	 dl, dl
  00154	74 2b		 je	 SHORT $LN76@LoadInt_e@2
  00156	80 f2 ed	 xor	 dl, -19			; ffffffedH
  00159	88 55 f8	 mov	 BYTE PTR __k$[ebp+20], dl
  0015c	8a 50 15	 mov	 dl, BYTE PTR [eax+21]
  0015f	84 d2		 test	 dl, dl
  00161	74 19		 je	 SHORT $LN75@LoadInt_e@2
  00163	8a 40 16	 mov	 al, BYTE PTR [eax+22]
  00166	32 d1		 xor	 dl, cl
  00168	88 55 f9	 mov	 BYTE PTR __k$[ebp+21], dl
  0016b	84 c0		 test	 al, al
  0016d	74 07		 je	 SHORT $LN74@LoadInt_e@2
  0016f	34 eb		 xor	 al, -21			; ffffffebH
  00171	88 45 fa	 mov	 BYTE PTR __k$[ebp+22], al
  00174	eb 7d		 jmp	 SHORT $LN1@LoadInt_e@2
$LN74@LoadInt_e@2:
  00176	c6 45 fa eb	 mov	 BYTE PTR __k$[ebp+22], -21 ; ffffffebH
  0017a	eb 77		 jmp	 SHORT $LN1@LoadInt_e@2
$LN75@LoadInt_e@2:
  0017c	88 4d f9	 mov	 BYTE PTR __k$[ebp+21], cl
  0017f	eb 72		 jmp	 SHORT $LN1@LoadInt_e@2
$LN76@LoadInt_e@2:
  00181	c6 45 f8 ed	 mov	 BYTE PTR __k$[ebp+20], -19 ; ffffffedH
  00185	eb 6c		 jmp	 SHORT $LN1@LoadInt_e@2
$LN77@LoadInt_e@2:
  00187	c6 45 f7 ea	 mov	 BYTE PTR __k$[ebp+19], -22 ; ffffffeaH
  0018b	eb 66		 jmp	 SHORT $LN1@LoadInt_e@2
$LN79@LoadInt_e@2:
  0018d	88 4d f5	 mov	 BYTE PTR __k$[ebp+17], cl
  00190	eb 61		 jmp	 SHORT $LN1@LoadInt_e@2
$LN80@LoadInt_e@2:
  00192	c6 45 f4 ed	 mov	 BYTE PTR __k$[ebp+16], -19 ; ffffffedH
  00196	eb 5b		 jmp	 SHORT $LN1@LoadInt_e@2
$LN81@LoadInt_e@2:
  00198	c6 45 f3 ea	 mov	 BYTE PTR __k$[ebp+15], -22 ; ffffffeaH
  0019c	eb 55		 jmp	 SHORT $LN1@LoadInt_e@2
$LN82@LoadInt_e@2:
  0019e	c6 45 f2 eb	 mov	 BYTE PTR __k$[ebp+14], -21 ; ffffffebH
  001a2	eb 4f		 jmp	 SHORT $LN1@LoadInt_e@2
$LN83@LoadInt_e@2:
  001a4	88 4d f1	 mov	 BYTE PTR __k$[ebp+13], cl
  001a7	eb 4a		 jmp	 SHORT $LN1@LoadInt_e@2
$LN84@LoadInt_e@2:
  001a9	c6 45 f0 ed	 mov	 BYTE PTR __k$[ebp+12], -19 ; ffffffedH
  001ad	eb 44		 jmp	 SHORT $LN1@LoadInt_e@2
$LN85@LoadInt_e@2:
  001af	c6 45 ef ea	 mov	 BYTE PTR __k$[ebp+11], -22 ; ffffffeaH
  001b3	eb 3e		 jmp	 SHORT $LN1@LoadInt_e@2
$LN86@LoadInt_e@2:
  001b5	c6 45 ee eb	 mov	 BYTE PTR __k$[ebp+10], -21 ; ffffffebH
  001b9	eb 38		 jmp	 SHORT $LN1@LoadInt_e@2
$LN87@LoadInt_e@2:
  001bb	88 4d ed	 mov	 BYTE PTR __k$[ebp+9], cl
  001be	eb 33		 jmp	 SHORT $LN1@LoadInt_e@2
$LN88@LoadInt_e@2:
  001c0	c6 45 ec ed	 mov	 BYTE PTR __k$[ebp+8], -19 ; ffffffedH
  001c4	eb 2d		 jmp	 SHORT $LN1@LoadInt_e@2
$LN89@LoadInt_e@2:
  001c6	c6 45 eb ea	 mov	 BYTE PTR __k$[ebp+7], -22 ; ffffffeaH
  001ca	eb 27		 jmp	 SHORT $LN1@LoadInt_e@2
$LN90@LoadInt_e@2:
  001cc	c6 45 ea eb	 mov	 BYTE PTR __k$[ebp+6], -21 ; ffffffebH
  001d0	eb 21		 jmp	 SHORT $LN1@LoadInt_e@2
$LN91@LoadInt_e@2:
  001d2	88 4d e9	 mov	 BYTE PTR __k$[ebp+5], cl
  001d5	eb 1c		 jmp	 SHORT $LN1@LoadInt_e@2
$LN92@LoadInt_e@2:
  001d7	c6 45 e8 ed	 mov	 BYTE PTR __k$[ebp+4], -19 ; ffffffedH
  001db	eb 16		 jmp	 SHORT $LN1@LoadInt_e@2
$LN93@LoadInt_e@2:
  001dd	c6 45 e7 ea	 mov	 BYTE PTR __k$[ebp+3], -22 ; ffffffeaH
  001e1	eb 10		 jmp	 SHORT $LN1@LoadInt_e@2
$LN94@LoadInt_e@2:
  001e3	c6 45 e6 eb	 mov	 BYTE PTR __k$[ebp+2], -21 ; ffffffebH
  001e7	eb 0a		 jmp	 SHORT $LN1@LoadInt_e@2
$LN95@LoadInt_e@2:
  001e9	c6 45 e5 ec	 mov	 BYTE PTR __k$[ebp+1], -20 ; ffffffecH
  001ed	eb 04		 jmp	 SHORT $LN1@LoadInt_e@2
$LN96@LoadInt_e@2:
  001ef	c6 45 e4 ed	 mov	 BYTE PTR __k$[ebp], -19	; ffffffedH
$LN1@LoadInt_e@2:
  001f3	6a 04		 push	 4
  001f5	8d 45 e4	 lea	 eax, DWORD PTR __k$[ebp]
  001f8	c6 45 f6 00	 mov	 BYTE PTR __k$[ebp+18], 0
  001fc	5a		 pop	 edx
$LL104@LoadInt_e@2:
  001fd	81 30 ed ec eb
	ea		 xor	 DWORD PTR [eax], -353637139 ; eaebecedH
  00203	83 c0 04	 add	 eax, 4
  00206	4a		 dec	 edx
  00207	75 f4		 jne	 SHORT $LL104@LoadInt_e@2
  00209	6a 10		 push	 16			; 00000010H
  0020b	58		 pop	 eax
$LL101@LoadInt_e@2:
  0020c	8b c8		 mov	 ecx, eax
  0020e	81 e1 03 00 00
	80		 and	 ecx, -2147483645	; 80000003H
  00214	79 05		 jns	 SHORT $LN111@LoadInt_e@2
  00216	49		 dec	 ecx
  00217	83 c9 fc	 or	 ecx, -4			; fffffffcH
  0021a	41		 inc	 ecx
$LN111@LoadInt_e@2:
  0021b	b2 ed		 mov	 dl, -19			; ffffffedH
  0021d	2a d1		 sub	 dl, cl
  0021f	30 54 05 e4	 xor	 BYTE PTR __k$[ebp+eax], dl
  00223	40		 inc	 eax
  00224	83 f8 12	 cmp	 eax, 18			; 00000012H
  00227	7c e3		 jl	 SHORT $LL101@LoadInt_e@2

; 120  : 		return LoadInt(_k, i);

  00229	ff 75 0c	 push	 DWORD PTR _i$[ebp]
  0022c	8d 45 e4	 lea	 eax, DWORD PTR __k$[ebp]
  0022f	50		 push	 eax
  00230	8b ce		 mov	 ecx, esi
  00232	ff 15 00 00 00
	00		 call	 DWORD PTR __imp_?LoadInt@ioINILoader@@QAEHPBDH@Z

; 121  : 	}

  00238	8b 4d fc	 mov	 ecx, DWORD PTR __$ArrayPad$[ebp]
  0023b	33 cd		 xor	 ecx, ebp
  0023d	5e		 pop	 esi
  0023e	e8 00 00 00 00	 call	 @__security_check_cookie@4
  00243	c9		 leave
  00244	c2 08 00	 ret	 8
??$LoadInt_e@$0BD@@ioINILoader@@QAEHAAY0BD@$$CBDH@Z ENDP ; ioINILoader::LoadInt_e<19>
_TEXT	ENDS
PUBLIC	__$ArrayPad$
PUBLIC	??$LoadInt_e@$0BM@@ioINILoader@@QAEHAAY0BM@$$CBDH@Z ; ioINILoader::LoadInt_e<28>
; Function compile flags: /Ogsp
;	COMDAT ??$LoadInt_e@$0BM@@ioINILoader@@QAEHAAY0BM@$$CBDH@Z
_TEXT	SEGMENT
__k$ = -36						; size = 28
__$ArrayPad$ = -4					; size = 4
_k$ = 8							; size = 4
_i$ = 12						; size = 4
??$LoadInt_e@$0BM@@ioINILoader@@QAEHAAY0BM@$$CBDH@Z PROC ; ioINILoader::LoadInt_e<28>, COMDAT
; _this$ = ecx

; 118  : 	{

  00000	55		 push	 ebp
  00001	8b ec		 mov	 ebp, esp
  00003	83 ec 24	 sub	 esp, 36			; 00000024H
  00006	a1 00 00 00 00	 mov	 eax, DWORD PTR ___security_cookie
  0000b	33 c5		 xor	 eax, ebp
  0000d	89 45 fc	 mov	 DWORD PTR __$ArrayPad$[ebp], eax
  00010	8b 45 08	 mov	 eax, DWORD PTR _k$[ebp]

; 119  : 		_ENCSTR(k, _k);

  00013	8a 10		 mov	 dl, BYTE PTR [eax]
  00015	53		 push	 ebx
  00016	56		 push	 esi
  00017	8b f1		 mov	 esi, ecx
  00019	84 d2		 test	 dl, dl
  0001b	0f 84 a9 02 00
	00		 je	 $LN96@LoadInt_e@3
  00021	80 f2 ed	 xor	 dl, -19			; ffffffedH
  00024	88 55 dc	 mov	 BYTE PTR __k$[ebp], dl
  00027	8a 50 01	 mov	 dl, BYTE PTR [eax+1]
  0002a	84 d2		 test	 dl, dl
  0002c	0f 84 92 02 00
	00		 je	 $LN95@LoadInt_e@3
  00032	b3 ec		 mov	 bl, -20			; ffffffecH
  00034	32 d3		 xor	 dl, bl
  00036	88 55 dd	 mov	 BYTE PTR __k$[ebp+1], dl
  00039	8a 50 02	 mov	 dl, BYTE PTR [eax+2]
  0003c	84 d2		 test	 dl, dl
  0003e	0f 84 7a 02 00
	00		 je	 $LN94@LoadInt_e@3
  00044	b1 eb		 mov	 cl, -21			; ffffffebH
  00046	32 d1		 xor	 dl, cl
  00048	88 55 de	 mov	 BYTE PTR __k$[ebp+2], dl
  0004b	8a 50 03	 mov	 dl, BYTE PTR [eax+3]
  0004e	84 d2		 test	 dl, dl
  00050	0f 84 62 02 00
	00		 je	 $LN93@LoadInt_e@3
  00056	80 f2 ea	 xor	 dl, -22			; ffffffeaH
  00059	88 55 df	 mov	 BYTE PTR __k$[ebp+3], dl
  0005c	8a 50 04	 mov	 dl, BYTE PTR [eax+4]
  0005f	84 d2		 test	 dl, dl
  00061	0f 84 4b 02 00
	00		 je	 $LN92@LoadInt_e@3
  00067	80 f2 ed	 xor	 dl, -19			; ffffffedH
  0006a	88 55 e0	 mov	 BYTE PTR __k$[ebp+4], dl
  0006d	8a 50 05	 mov	 dl, BYTE PTR [eax+5]
  00070	84 d2		 test	 dl, dl
  00072	0f 84 35 02 00
	00		 je	 $LN91@LoadInt_e@3
  00078	32 d3		 xor	 dl, bl
  0007a	88 55 e1	 mov	 BYTE PTR __k$[ebp+5], dl
  0007d	8a 50 06	 mov	 dl, BYTE PTR [eax+6]
  00080	84 d2		 test	 dl, dl
  00082	0f 84 20 02 00
	00		 je	 $LN90@LoadInt_e@3
  00088	32 d1		 xor	 dl, cl
  0008a	88 55 e2	 mov	 BYTE PTR __k$[ebp+6], dl
  0008d	8a 50 07	 mov	 dl, BYTE PTR [eax+7]
  00090	84 d2		 test	 dl, dl
  00092	0f 84 0a 02 00
	00		 je	 $LN89@LoadInt_e@3
  00098	80 f2 ea	 xor	 dl, -22			; ffffffeaH
  0009b	88 55 e3	 mov	 BYTE PTR __k$[ebp+7], dl
  0009e	8a 50 08	 mov	 dl, BYTE PTR [eax+8]
  000a1	84 d2		 test	 dl, dl
  000a3	0f 84 f3 01 00
	00		 je	 $LN88@LoadInt_e@3
  000a9	80 f2 ed	 xor	 dl, -19			; ffffffedH
  000ac	88 55 e4	 mov	 BYTE PTR __k$[ebp+8], dl
  000af	8a 50 09	 mov	 dl, BYTE PTR [eax+9]
  000b2	84 d2		 test	 dl, dl
  000b4	0f 84 dd 01 00
	00		 je	 $LN87@LoadInt_e@3
  000ba	32 d3		 xor	 dl, bl
  000bc	88 55 e5	 mov	 BYTE PTR __k$[ebp+9], dl
  000bf	8a 50 0a	 mov	 dl, BYTE PTR [eax+10]
  000c2	84 d2		 test	 dl, dl
  000c4	0f 84 c8 01 00
	00		 je	 $LN86@LoadInt_e@3
  000ca	32 d1		 xor	 dl, cl
  000cc	88 55 e6	 mov	 BYTE PTR __k$[ebp+10], dl
  000cf	8a 50 0b	 mov	 dl, BYTE PTR [eax+11]
  000d2	84 d2		 test	 dl, dl
  000d4	0f 84 b2 01 00
	00		 je	 $LN85@LoadInt_e@3
  000da	80 f2 ea	 xor	 dl, -22			; ffffffeaH
  000dd	88 55 e7	 mov	 BYTE PTR __k$[ebp+11], dl
  000e0	8a 50 0c	 mov	 dl, BYTE PTR [eax+12]
  000e3	84 d2		 test	 dl, dl
  000e5	0f 84 9b 01 00
	00		 je	 $LN84@LoadInt_e@3
  000eb	80 f2 ed	 xor	 dl, -19			; ffffffedH
  000ee	88 55 e8	 mov	 BYTE PTR __k$[ebp+12], dl
  000f1	8a 50 0d	 mov	 dl, BYTE PTR [eax+13]
  000f4	84 d2		 test	 dl, dl
  000f6	0f 84 85 01 00
	00		 je	 $LN83@LoadInt_e@3
  000fc	32 d3		 xor	 dl, bl
  000fe	88 55 e9	 mov	 BYTE PTR __k$[ebp+13], dl
  00101	8a 50 0e	 mov	 dl, BYTE PTR [eax+14]
  00104	84 d2		 test	 dl, dl
  00106	0f 84 70 01 00
	00		 je	 $LN82@LoadInt_e@3
  0010c	32 d1		 xor	 dl, cl
  0010e	88 55 ea	 mov	 BYTE PTR __k$[ebp+14], dl
  00111	8a 50 0f	 mov	 dl, BYTE PTR [eax+15]
  00114	84 d2		 test	 dl, dl
  00116	0f 84 5a 01 00
	00		 je	 $LN81@LoadInt_e@3
  0011c	80 f2 ea	 xor	 dl, -22			; ffffffeaH
  0011f	88 55 eb	 mov	 BYTE PTR __k$[ebp+15], dl
  00122	8a 50 10	 mov	 dl, BYTE PTR [eax+16]
  00125	84 d2		 test	 dl, dl
  00127	0f 84 43 01 00
	00		 je	 $LN80@LoadInt_e@3
  0012d	80 f2 ed	 xor	 dl, -19			; ffffffedH
  00130	88 55 ec	 mov	 BYTE PTR __k$[ebp+16], dl
  00133	8a 50 11	 mov	 dl, BYTE PTR [eax+17]
  00136	84 d2		 test	 dl, dl
  00138	0f 84 2d 01 00
	00		 je	 $LN79@LoadInt_e@3
  0013e	32 d3		 xor	 dl, bl
  00140	88 55 ed	 mov	 BYTE PTR __k$[ebp+17], dl
  00143	8a 50 12	 mov	 dl, BYTE PTR [eax+18]
  00146	84 d2		 test	 dl, dl
  00148	0f 84 18 01 00
	00		 je	 $LN78@LoadInt_e@3
  0014e	32 d1		 xor	 dl, cl
  00150	88 55 ee	 mov	 BYTE PTR __k$[ebp+18], dl
  00153	8a 50 13	 mov	 dl, BYTE PTR [eax+19]
  00156	84 d2		 test	 dl, dl
  00158	0f 84 02 01 00
	00		 je	 $LN77@LoadInt_e@3
  0015e	80 f2 ea	 xor	 dl, -22			; ffffffeaH
  00161	88 55 ef	 mov	 BYTE PTR __k$[ebp+19], dl
  00164	8a 50 14	 mov	 dl, BYTE PTR [eax+20]
  00167	84 d2		 test	 dl, dl
  00169	0f 84 eb 00 00
	00		 je	 $LN76@LoadInt_e@3
  0016f	80 f2 ed	 xor	 dl, -19			; ffffffedH
  00172	88 55 f0	 mov	 BYTE PTR __k$[ebp+20], dl
  00175	8a 50 15	 mov	 dl, BYTE PTR [eax+21]
  00178	84 d2		 test	 dl, dl
  0017a	0f 84 d5 00 00
	00		 je	 $LN75@LoadInt_e@3
  00180	32 d3		 xor	 dl, bl
  00182	88 55 f1	 mov	 BYTE PTR __k$[ebp+21], dl
  00185	8a 50 16	 mov	 dl, BYTE PTR [eax+22]
  00188	84 d2		 test	 dl, dl
  0018a	0f 84 c0 00 00
	00		 je	 $LN74@LoadInt_e@3
  00190	32 d1		 xor	 dl, cl
  00192	88 55 f2	 mov	 BYTE PTR __k$[ebp+22], dl
  00195	8a 50 17	 mov	 dl, BYTE PTR [eax+23]
  00198	84 d2		 test	 dl, dl
  0019a	0f 84 aa 00 00
	00		 je	 $LN73@LoadInt_e@3
  001a0	80 f2 ea	 xor	 dl, -22			; ffffffeaH
  001a3	88 55 f3	 mov	 BYTE PTR __k$[ebp+23], dl
  001a6	8a 50 18	 mov	 dl, BYTE PTR [eax+24]
  001a9	84 d2		 test	 dl, dl
  001ab	0f 84 90 00 00
	00		 je	 $LN72@LoadInt_e@3
  001b1	80 f2 ed	 xor	 dl, -19			; ffffffedH
  001b4	88 55 f4	 mov	 BYTE PTR __k$[ebp+24], dl
  001b7	8a 50 19	 mov	 dl, BYTE PTR [eax+25]
  001ba	84 d2		 test	 dl, dl
  001bc	74 7b		 je	 SHORT $LN71@LoadInt_e@3
  001be	32 d3		 xor	 dl, bl
  001c0	88 55 f5	 mov	 BYTE PTR __k$[ebp+25], dl
  001c3	8a 50 1a	 mov	 dl, BYTE PTR [eax+26]
  001c6	84 d2		 test	 dl, dl
  001c8	74 67		 je	 SHORT $LN70@LoadInt_e@3
  001ca	32 d1		 xor	 dl, cl
  001cc	80 78 1b 00	 cmp	 BYTE PTR [eax+27], 0
  001d0	88 55 f6	 mov	 BYTE PTR __k$[ebp+26], dl
  001d3	0f 84 f5 00 00
	00		 je	 $LN1@LoadInt_e@3
  001d9	8a 50 1c	 mov	 dl, BYTE PTR [eax+28]
  001dc	84 d2		 test	 dl, dl
  001de	74 48		 je	 SHORT $LN68@LoadInt_e@3
  001e0	80 f2 ed	 xor	 dl, -19			; ffffffedH
  001e3	88 55 f8	 mov	 BYTE PTR __k$[ebp+28], dl
  001e6	8a 50 1d	 mov	 dl, BYTE PTR [eax+29]
  001e9	84 d2		 test	 dl, dl
  001eb	74 33		 je	 SHORT $LN67@LoadInt_e@3
  001ed	32 d3		 xor	 dl, bl
  001ef	88 55 f9	 mov	 BYTE PTR __k$[ebp+29], dl
  001f2	8a 50 1e	 mov	 dl, BYTE PTR [eax+30]
  001f5	84 d2		 test	 dl, dl
  001f7	74 1f		 je	 SHORT $LN66@LoadInt_e@3
  001f9	8a 40 1f	 mov	 al, BYTE PTR [eax+31]
  001fc	32 d1		 xor	 dl, cl
  001fe	88 55 fa	 mov	 BYTE PTR __k$[ebp+30], dl
  00201	84 c0		 test	 al, al
  00203	74 0a		 je	 SHORT $LN65@LoadInt_e@3
  00205	34 ea		 xor	 al, -22			; ffffffeaH
  00207	88 45 fb	 mov	 BYTE PTR __k$[ebp+31], al
  0020a	e9 bf 00 00 00	 jmp	 $LN1@LoadInt_e@3
$LN65@LoadInt_e@3:
  0020f	c6 45 fb ea	 mov	 BYTE PTR __k$[ebp+31], -22 ; ffffffeaH
  00213	e9 b6 00 00 00	 jmp	 $LN1@LoadInt_e@3
$LN66@LoadInt_e@3:
  00218	88 4d fa	 mov	 BYTE PTR __k$[ebp+30], cl
  0021b	e9 ae 00 00 00	 jmp	 $LN1@LoadInt_e@3
$LN67@LoadInt_e@3:
  00220	88 5d f9	 mov	 BYTE PTR __k$[ebp+29], bl
  00223	e9 a6 00 00 00	 jmp	 $LN1@LoadInt_e@3
$LN68@LoadInt_e@3:
  00228	c6 45 f8 ed	 mov	 BYTE PTR __k$[ebp+28], -19 ; ffffffedH
  0022c	e9 9d 00 00 00	 jmp	 $LN1@LoadInt_e@3
$LN70@LoadInt_e@3:
  00231	88 4d f6	 mov	 BYTE PTR __k$[ebp+26], cl
  00234	e9 95 00 00 00	 jmp	 $LN1@LoadInt_e@3
$LN71@LoadInt_e@3:
  00239	88 5d f5	 mov	 BYTE PTR __k$[ebp+25], bl
  0023c	e9 8d 00 00 00	 jmp	 $LN1@LoadInt_e@3
$LN72@LoadInt_e@3:
  00241	c6 45 f4 ed	 mov	 BYTE PTR __k$[ebp+24], -19 ; ffffffedH
  00245	e9 84 00 00 00	 jmp	 $LN1@LoadInt_e@3
$LN73@LoadInt_e@3:
  0024a	c6 45 f3 ea	 mov	 BYTE PTR __k$[ebp+23], -22 ; ffffffeaH
  0024e	eb 7e		 jmp	 SHORT $LN1@LoadInt_e@3
$LN74@LoadInt_e@3:
  00250	88 4d f2	 mov	 BYTE PTR __k$[ebp+22], cl
  00253	eb 79		 jmp	 SHORT $LN1@LoadInt_e@3
$LN75@LoadInt_e@3:
  00255	88 5d f1	 mov	 BYTE PTR __k$[ebp+21], bl
  00258	eb 74		 jmp	 SHORT $LN1@LoadInt_e@3
$LN76@LoadInt_e@3:
  0025a	c6 45 f0 ed	 mov	 BYTE PTR __k$[ebp+20], -19 ; ffffffedH
  0025e	eb 6e		 jmp	 SHORT $LN1@LoadInt_e@3
$LN77@LoadInt_e@3:
  00260	c6 45 ef ea	 mov	 BYTE PTR __k$[ebp+19], -22 ; ffffffeaH
  00264	eb 68		 jmp	 SHORT $LN1@LoadInt_e@3
$LN78@LoadInt_e@3:
  00266	88 4d ee	 mov	 BYTE PTR __k$[ebp+18], cl
  00269	eb 63		 jmp	 SHORT $LN1@LoadInt_e@3
$LN79@LoadInt_e@3:
  0026b	88 5d ed	 mov	 BYTE PTR __k$[ebp+17], bl
  0026e	eb 5e		 jmp	 SHORT $LN1@LoadInt_e@3
$LN80@LoadInt_e@3:
  00270	c6 45 ec ed	 mov	 BYTE PTR __k$[ebp+16], -19 ; ffffffedH
  00274	eb 58		 jmp	 SHORT $LN1@LoadInt_e@3
$LN81@LoadInt_e@3:
  00276	c6 45 eb ea	 mov	 BYTE PTR __k$[ebp+15], -22 ; ffffffeaH
  0027a	eb 52		 jmp	 SHORT $LN1@LoadInt_e@3
$LN82@LoadInt_e@3:
  0027c	88 4d ea	 mov	 BYTE PTR __k$[ebp+14], cl
  0027f	eb 4d		 jmp	 SHORT $LN1@LoadInt_e@3
$LN83@LoadInt_e@3:
  00281	88 5d e9	 mov	 BYTE PTR __k$[ebp+13], bl
  00284	eb 48		 jmp	 SHORT $LN1@LoadInt_e@3
$LN84@LoadInt_e@3:
  00286	c6 45 e8 ed	 mov	 BYTE PTR __k$[ebp+12], -19 ; ffffffedH
  0028a	eb 42		 jmp	 SHORT $LN1@LoadInt_e@3
$LN85@LoadInt_e@3:
  0028c	c6 45 e7 ea	 mov	 BYTE PTR __k$[ebp+11], -22 ; ffffffeaH
  00290	eb 3c		 jmp	 SHORT $LN1@LoadInt_e@3
$LN86@LoadInt_e@3:
  00292	88 4d e6	 mov	 BYTE PTR __k$[ebp+10], cl
  00295	eb 37		 jmp	 SHORT $LN1@LoadInt_e@3
$LN87@LoadInt_e@3:
  00297	88 5d e5	 mov	 BYTE PTR __k$[ebp+9], bl
  0029a	eb 32		 jmp	 SHORT $LN1@LoadInt_e@3
$LN88@LoadInt_e@3:
  0029c	c6 45 e4 ed	 mov	 BYTE PTR __k$[ebp+8], -19 ; ffffffedH
  002a0	eb 2c		 jmp	 SHORT $LN1@LoadInt_e@3
$LN89@LoadInt_e@3:
  002a2	c6 45 e3 ea	 mov	 BYTE PTR __k$[ebp+7], -22 ; ffffffeaH
  002a6	eb 26		 jmp	 SHORT $LN1@LoadInt_e@3
$LN90@LoadInt_e@3:
  002a8	88 4d e2	 mov	 BYTE PTR __k$[ebp+6], cl
  002ab	eb 21		 jmp	 SHORT $LN1@LoadInt_e@3
$LN91@LoadInt_e@3:
  002ad	88 5d e1	 mov	 BYTE PTR __k$[ebp+5], bl
  002b0	eb 1c		 jmp	 SHORT $LN1@LoadInt_e@3
$LN92@LoadInt_e@3:
  002b2	c6 45 e0 ed	 mov	 BYTE PTR __k$[ebp+4], -19 ; ffffffedH
  002b6	eb 16		 jmp	 SHORT $LN1@LoadInt_e@3
$LN93@LoadInt_e@3:
  002b8	c6 45 df ea	 mov	 BYTE PTR __k$[ebp+3], -22 ; ffffffeaH
  002bc	eb 10		 jmp	 SHORT $LN1@LoadInt_e@3
$LN94@LoadInt_e@3:
  002be	c6 45 de eb	 mov	 BYTE PTR __k$[ebp+2], -21 ; ffffffebH
  002c2	eb 0a		 jmp	 SHORT $LN1@LoadInt_e@3
$LN95@LoadInt_e@3:
  002c4	c6 45 dd ec	 mov	 BYTE PTR __k$[ebp+1], -20 ; ffffffecH
  002c8	eb 04		 jmp	 SHORT $LN1@LoadInt_e@3
$LN96@LoadInt_e@3:
  002ca	c6 45 dc ed	 mov	 BYTE PTR __k$[ebp], -19	; ffffffedH
$LN1@LoadInt_e@3:
  002ce	6a 06		 push	 6
  002d0	8d 45 dc	 lea	 eax, DWORD PTR __k$[ebp]
  002d3	c6 45 f7 00	 mov	 BYTE PTR __k$[ebp+27], 0
  002d7	5a		 pop	 edx
$LL104@LoadInt_e@3:
  002d8	81 30 ed ec eb
	ea		 xor	 DWORD PTR [eax], -353637139 ; eaebecedH
  002de	83 c0 04	 add	 eax, 4
  002e1	4a		 dec	 edx
  002e2	75 f4		 jne	 SHORT $LL104@LoadInt_e@3
  002e4	6a 18		 push	 24			; 00000018H
  002e6	58		 pop	 eax
$LL101@LoadInt_e@3:
  002e7	8b c8		 mov	 ecx, eax
  002e9	81 e1 03 00 00
	80		 and	 ecx, -2147483645	; 80000003H
  002ef	79 05		 jns	 SHORT $LN111@LoadInt_e@3
  002f1	49		 dec	 ecx
  002f2	83 c9 fc	 or	 ecx, -4			; fffffffcH
  002f5	41		 inc	 ecx
$LN111@LoadInt_e@3:
  002f6	b2 ed		 mov	 dl, -19			; ffffffedH
  002f8	2a d1		 sub	 dl, cl
  002fa	30 54 05 dc	 xor	 BYTE PTR __k$[ebp+eax], dl
  002fe	40		 inc	 eax
  002ff	83 f8 1b	 cmp	 eax, 27			; 0000001bH
  00302	7c e3		 jl	 SHORT $LL101@LoadInt_e@3

; 120  : 		return LoadInt(_k, i);

  00304	ff 75 0c	 push	 DWORD PTR _i$[ebp]
  00307	8d 45 dc	 lea	 eax, DWORD PTR __k$[ebp]
  0030a	50		 push	 eax
  0030b	8b ce		 mov	 ecx, esi
  0030d	ff 15 00 00 00
	00		 call	 DWORD PTR __imp_?LoadInt@ioINILoader@@QAEHPBDH@Z

; 121  : 	}

  00313	8b 4d fc	 mov	 ecx, DWORD PTR __$ArrayPad$[ebp]
  00316	5e		 pop	 esi
  00317	33 cd		 xor	 ecx, ebp
  00319	5b		 pop	 ebx
  0031a	e8 00 00 00 00	 call	 @__security_check_cookie@4
  0031f	c9		 leave
  00320	c2 08 00	 ret	 8
??$LoadInt_e@$0BM@@ioINILoader@@QAEHAAY0BM@$$CBDH@Z ENDP ; ioINILoader::LoadInt_e<28>
_TEXT	ENDS
PUBLIC	??$GetAnimationEventTime_e@$0M@@ioEntityGroup@@QAEMHAAY0M@$$CBD@Z ; ioEntityGroup::GetAnimationEventTime_e<12>
EXTRN	__imp_?GetAnimationEventTime@ioEntityGroup@@QAEMHABVioHashString@@@Z:PROC
EXTRN	__imp_??0ioHashString@@QAE@PBD@Z:PROC
EXTRN	__EH_epilog3_GS:PROC
EXTRN	__EH_prolog3_GS:PROC
;	COMDAT xdata$x
; File d:\lost saga for developer\youtube\tutorial\source\src\lsclient\stringprotect.h
xdata$x	SEGMENT
__unwindtable$??$GetAnimationEventTime_e@$0M@@ioEntityGroup@@QAEMHAAY0M@$$CBD@Z DD 0ffffffffH
	DD	FLAT:__unwindfunclet$??$GetAnimationEventTime_e@$0M@@ioEntityGroup@@QAEMHAAY0M@$$CBD@Z$0
__ehfuncinfo$??$GetAnimationEventTime_e@$0M@@ioEntityGroup@@QAEMHAAY0M@$$CBD@Z DD 019930522H
	DD	01H
	DD	FLAT:__unwindtable$??$GetAnimationEventTime_e@$0M@@ioEntityGroup@@QAEMHAAY0M@$$CBD@Z
	DD	2 DUP(00H)
	DD	2 DUP(00H)
	DD	00H
	DD	01H
; Function compile flags: /Ogsp
; File d:\lost saga for developer\youtube\tutorial\source\src\io3dengine\ioentitygroup.h
xdata$x	ENDS
;	COMDAT ??$GetAnimationEventTime_e@$0M@@ioEntityGroup@@QAEMHAAY0M@$$CBD@Z
_TEXT	SEGMENT
$T555116 = -52						; size = 16
$T555115 = -36						; size = 4
_szEncEventType$ = -32					; size = 12
__$EHRec$ = -12						; size = 12
_id$ = 8						; size = 4
_szEventType$ = 12					; size = 4
??$GetAnimationEventTime_e@$0M@@ioEntityGroup@@QAEMHAAY0M@$$CBD@Z PROC ; ioEntityGroup::GetAnimationEventTime_e<12>, COMDAT
; _this$ = ecx

; 414  : 	{

  00000	6a 28		 push	 40			; 00000028H
  00002	b8 00 00 00 00	 mov	 eax, __ehhandler$??$GetAnimationEventTime_e@$0M@@ioEntityGroup@@QAEMHAAY0M@$$CBD@Z
  00007	e8 00 00 00 00	 call	 __EH_prolog3_GS
  0000c	8b 45 0c	 mov	 eax, DWORD PTR _szEventType$[ebp]
  0000f	8b f1		 mov	 esi, ecx

; 415  : 		_ENCSTR(szEventType, szEncEventType);

  00011	8a 08		 mov	 cl, BYTE PTR [eax]
  00013	84 c9		 test	 cl, cl
  00015	0f 84 36 01 00
	00		 je	 $LN96@GetAnimati
  0001b	b2 ed		 mov	 dl, -19			; ffffffedH
  0001d	32 ca		 xor	 cl, dl
  0001f	88 4d e0	 mov	 BYTE PTR _szEncEventType$[ebp], cl
  00022	8a 48 01	 mov	 cl, BYTE PTR [eax+1]
  00025	84 c9		 test	 cl, cl
  00027	0f 84 1e 01 00
	00		 je	 $LN95@GetAnimati
  0002d	80 f1 ec	 xor	 cl, -20			; ffffffecH
  00030	88 4d e1	 mov	 BYTE PTR _szEncEventType$[ebp+1], cl
  00033	8a 48 02	 mov	 cl, BYTE PTR [eax+2]
  00036	84 c9		 test	 cl, cl
  00038	0f 84 07 01 00
	00		 je	 $LN94@GetAnimati
  0003e	80 f1 eb	 xor	 cl, -21			; ffffffebH
  00041	88 4d e2	 mov	 BYTE PTR _szEncEventType$[ebp+2], cl
  00044	8a 48 03	 mov	 cl, BYTE PTR [eax+3]
  00047	84 c9		 test	 cl, cl
  00049	0f 84 f0 00 00
	00		 je	 $LN93@GetAnimati
  0004f	80 f1 ea	 xor	 cl, -22			; ffffffeaH
  00052	88 4d e3	 mov	 BYTE PTR _szEncEventType$[ebp+3], cl
  00055	8a 48 04	 mov	 cl, BYTE PTR [eax+4]
  00058	84 c9		 test	 cl, cl
  0005a	0f 84 da 00 00
	00		 je	 $LN92@GetAnimati
  00060	32 ca		 xor	 cl, dl
  00062	88 4d e4	 mov	 BYTE PTR _szEncEventType$[ebp+4], cl
  00065	8a 48 05	 mov	 cl, BYTE PTR [eax+5]
  00068	84 c9		 test	 cl, cl
  0006a	0f 84 c4 00 00
	00		 je	 $LN91@GetAnimati
  00070	80 f1 ec	 xor	 cl, -20			; ffffffecH
  00073	88 4d e5	 mov	 BYTE PTR _szEncEventType$[ebp+5], cl
  00076	8a 48 06	 mov	 cl, BYTE PTR [eax+6]
  00079	84 c9		 test	 cl, cl
  0007b	0f 84 ad 00 00
	00		 je	 $LN90@GetAnimati
  00081	80 f1 eb	 xor	 cl, -21			; ffffffebH
  00084	88 4d e6	 mov	 BYTE PTR _szEncEventType$[ebp+6], cl
  00087	8a 48 07	 mov	 cl, BYTE PTR [eax+7]
  0008a	84 c9		 test	 cl, cl
  0008c	0f 84 96 00 00
	00		 je	 $LN89@GetAnimati
  00092	80 f1 ea	 xor	 cl, -22			; ffffffeaH
  00095	88 4d e7	 mov	 BYTE PTR _szEncEventType$[ebp+7], cl
  00098	8a 48 08	 mov	 cl, BYTE PTR [eax+8]
  0009b	84 c9		 test	 cl, cl
  0009d	0f 84 80 00 00
	00		 je	 $LN88@GetAnimati
  000a3	32 ca		 xor	 cl, dl
  000a5	88 4d e8	 mov	 BYTE PTR _szEncEventType$[ebp+8], cl
  000a8	8a 48 09	 mov	 cl, BYTE PTR [eax+9]
  000ab	84 c9		 test	 cl, cl
  000ad	74 6e		 je	 SHORT $LN87@GetAnimati
  000af	80 f1 ec	 xor	 cl, -20			; ffffffecH
  000b2	88 4d e9	 mov	 BYTE PTR _szEncEventType$[ebp+9], cl
  000b5	8a 48 0a	 mov	 cl, BYTE PTR [eax+10]
  000b8	84 c9		 test	 cl, cl
  000ba	74 5b		 je	 SHORT $LN86@GetAnimati
  000bc	80 f1 eb	 xor	 cl, -21			; ffffffebH
  000bf	80 78 0b 00	 cmp	 BYTE PTR [eax+11], 0
  000c3	88 4d ea	 mov	 BYTE PTR _szEncEventType$[ebp+10], cl
  000c6	0f 84 89 00 00
	00		 je	 $LN1@GetAnimati
  000cc	8a 48 0c	 mov	 cl, BYTE PTR [eax+12]
  000cf	84 c9		 test	 cl, cl
  000d1	74 3f		 je	 SHORT $LN84@GetAnimati
  000d3	32 ca		 xor	 cl, dl
  000d5	88 4d ec	 mov	 BYTE PTR _szEncEventType$[ebp+12], cl
  000d8	8a 48 0d	 mov	 cl, BYTE PTR [eax+13]
  000db	84 c9		 test	 cl, cl
  000dd	74 2d		 je	 SHORT $LN83@GetAnimati
  000df	80 f1 ec	 xor	 cl, -20			; ffffffecH
  000e2	88 4d ed	 mov	 BYTE PTR _szEncEventType$[ebp+13], cl
  000e5	8a 48 0e	 mov	 cl, BYTE PTR [eax+14]
  000e8	84 c9		 test	 cl, cl
  000ea	74 1a		 je	 SHORT $LN82@GetAnimati
  000ec	8a 40 0f	 mov	 al, BYTE PTR [eax+15]
  000ef	80 f1 eb	 xor	 cl, -21			; ffffffebH
  000f2	88 4d ee	 mov	 BYTE PTR _szEncEventType$[ebp+14], cl
  000f5	84 c0		 test	 al, al
  000f7	74 07		 je	 SHORT $LN81@GetAnimati
  000f9	34 ea		 xor	 al, -22			; ffffffeaH
  000fb	88 45 ef	 mov	 BYTE PTR _szEncEventType$[ebp+15], al
  000fe	eb 55		 jmp	 SHORT $LN1@GetAnimati
$LN81@GetAnimati:
  00100	c6 45 ef ea	 mov	 BYTE PTR _szEncEventType$[ebp+15], -22 ; ffffffeaH
  00104	eb 4f		 jmp	 SHORT $LN1@GetAnimati
$LN82@GetAnimati:
  00106	c6 45 ee eb	 mov	 BYTE PTR _szEncEventType$[ebp+14], -21 ; ffffffebH
  0010a	eb 49		 jmp	 SHORT $LN1@GetAnimati
$LN83@GetAnimati:
  0010c	c6 45 ed ec	 mov	 BYTE PTR _szEncEventType$[ebp+13], -20 ; ffffffecH
  00110	eb 43		 jmp	 SHORT $LN1@GetAnimati
$LN84@GetAnimati:
  00112	88 55 ec	 mov	 BYTE PTR _szEncEventType$[ebp+12], dl
  00115	eb 3e		 jmp	 SHORT $LN1@GetAnimati
$LN86@GetAnimati:
  00117	c6 45 ea eb	 mov	 BYTE PTR _szEncEventType$[ebp+10], -21 ; ffffffebH
  0011b	eb 38		 jmp	 SHORT $LN1@GetAnimati
$LN87@GetAnimati:
  0011d	c6 45 e9 ec	 mov	 BYTE PTR _szEncEventType$[ebp+9], -20 ; ffffffecH
  00121	eb 32		 jmp	 SHORT $LN1@GetAnimati
$LN88@GetAnimati:
  00123	88 55 e8	 mov	 BYTE PTR _szEncEventType$[ebp+8], dl
  00126	eb 2d		 jmp	 SHORT $LN1@GetAnimati
$LN89@GetAnimati:
  00128	c6 45 e7 ea	 mov	 BYTE PTR _szEncEventType$[ebp+7], -22 ; ffffffeaH
  0012c	eb 27		 jmp	 SHORT $LN1@GetAnimati
$LN90@GetAnimati:
  0012e	c6 45 e6 eb	 mov	 BYTE PTR _szEncEventType$[ebp+6], -21 ; ffffffebH
  00132	eb 21		 jmp	 SHORT $LN1@GetAnimati
$LN91@GetAnimati:
  00134	c6 45 e5 ec	 mov	 BYTE PTR _szEncEventType$[ebp+5], -20 ; ffffffecH
  00138	eb 1b		 jmp	 SHORT $LN1@GetAnimati
$LN92@GetAnimati:
  0013a	88 55 e4	 mov	 BYTE PTR _szEncEventType$[ebp+4], dl
  0013d	eb 16		 jmp	 SHORT $LN1@GetAnimati
$LN93@GetAnimati:
  0013f	c6 45 e3 ea	 mov	 BYTE PTR _szEncEventType$[ebp+3], -22 ; ffffffeaH
  00143	eb 10		 jmp	 SHORT $LN1@GetAnimati
$LN94@GetAnimati:
  00145	c6 45 e2 eb	 mov	 BYTE PTR _szEncEventType$[ebp+2], -21 ; ffffffebH
  00149	eb 0a		 jmp	 SHORT $LN1@GetAnimati
$LN95@GetAnimati:
  0014b	c6 45 e1 ec	 mov	 BYTE PTR _szEncEventType$[ebp+1], -20 ; ffffffecH
  0014f	eb 04		 jmp	 SHORT $LN1@GetAnimati
$LN96@GetAnimati:
  00151	c6 45 e0 ed	 mov	 BYTE PTR _szEncEventType$[ebp], -19 ; ffffffedH
$LN1@GetAnimati:
  00155	6a 02		 push	 2
  00157	8d 45 e0	 lea	 eax, DWORD PTR _szEncEventType$[ebp]
  0015a	c6 45 eb 00	 mov	 BYTE PTR _szEncEventType$[ebp+11], 0
  0015e	59		 pop	 ecx
$LL105@GetAnimati:
  0015f	81 30 ed ec eb
	ea		 xor	 DWORD PTR [eax], -353637139 ; eaebecedH
  00165	83 c0 04	 add	 eax, 4
  00168	49		 dec	 ecx
  00169	75 f4		 jne	 SHORT $LL105@GetAnimati
  0016b	6a 08		 push	 8
  0016d	58		 pop	 eax
$LL102@GetAnimati:
  0016e	8b c8		 mov	 ecx, eax
  00170	81 e1 03 00 00
	80		 and	 ecx, -2147483645	; 80000003H
  00176	79 05		 jns	 SHORT $LN113@GetAnimati
  00178	49		 dec	 ecx
  00179	83 c9 fc	 or	 ecx, -4			; fffffffcH
  0017c	41		 inc	 ecx
$LN113@GetAnimati:
  0017d	b2 ed		 mov	 dl, -19			; ffffffedH
  0017f	2a d1		 sub	 dl, cl
  00181	30 54 05 e0	 xor	 BYTE PTR _szEncEventType$[ebp+eax], dl
  00185	40		 inc	 eax
  00186	83 f8 0b	 cmp	 eax, 11			; 0000000bH
  00189	7c e3		 jl	 SHORT $LL102@GetAnimati

; 416  : 		return GetAnimationEventTime(id, szEncEventType);

  0018b	8d 45 e0	 lea	 eax, DWORD PTR _szEncEventType$[ebp]
  0018e	50		 push	 eax
  0018f	8d 4d cc	 lea	 ecx, DWORD PTR $T555116[ebp]
  00192	ff 15 00 00 00
	00		 call	 DWORD PTR __imp_??0ioHashString@@QAE@PBD@Z
  00198	83 65 fc 00	 and	 DWORD PTR __$EHRec$[ebp+8], 0
  0019c	8d 45 cc	 lea	 eax, DWORD PTR $T555116[ebp]
  0019f	50		 push	 eax
  001a0	ff 75 08	 push	 DWORD PTR _id$[ebp]
  001a3	8b ce		 mov	 ecx, esi
  001a5	ff 15 00 00 00
	00		 call	 DWORD PTR __imp_?GetAnimationEventTime@ioEntityGroup@@QAEMHABVioHashString@@@Z
  001ab	d9 5d dc	 fstp	 DWORD PTR $T555115[ebp]
  001ae	83 4d fc ff	 or	 DWORD PTR __$EHRec$[ebp+8], -1
  001b2	8d 4d cc	 lea	 ecx, DWORD PTR $T555116[ebp]
  001b5	ff 15 00 00 00
	00		 call	 DWORD PTR __imp_??1ioHashString@@QAE@XZ
  001bb	d9 45 dc	 fld	 DWORD PTR $T555115[ebp]

; 417  : 	}

  001be	e8 00 00 00 00	 call	 __EH_epilog3_GS
  001c3	c2 08 00	 ret	 8
_TEXT	ENDS
;	COMDAT text$x
text$x	SEGMENT
__unwindfunclet$??$GetAnimationEventTime_e@$0M@@ioEntityGroup@@QAEMHAAY0M@$$CBD@Z$0:
  00000	8d 4d cc	 lea	 ecx, DWORD PTR $T555116[ebp]
  00003	ff 25 00 00 00
	00		 jmp	 DWORD PTR __imp_??1ioHashString@@QAE@XZ
__ehhandler$??$GetAnimationEventTime_e@$0M@@ioEntityGroup@@QAEMHAAY0M@$$CBD@Z:
  00009	8b 54 24 08	 mov	 edx, DWORD PTR [esp+8]
  0000d	8d 42 0c	 lea	 eax, DWORD PTR [edx+12]
  00010	8b 4a c8	 mov	 ecx, DWORD PTR [edx-56]
  00013	33 c8		 xor	 ecx, eax
  00015	e8 00 00 00 00	 call	 @__security_check_cookie@4
  0001a	8b 4a fc	 mov	 ecx, DWORD PTR [edx-4]
  0001d	33 c8		 xor	 ecx, eax
  0001f	e8 00 00 00 00	 call	 @__security_check_cookie@4
  00024	b8 00 00 00 00	 mov	 eax, OFFSET __ehfuncinfo$??$GetAnimationEventTime_e@$0M@@ioEntityGroup@@QAEMHAAY0M@$$CBD@Z
  00029	e9 00 00 00 00	 jmp	 ___CxxFrameHandler3
text$x	ENDS
??$GetAnimationEventTime_e@$0M@@ioEntityGroup@@QAEMHAAY0M@$$CBD@Z ENDP ; ioEntityGroup::GetAnimationEventTime_e<12>
PUBLIC	??$GetAnimationEventTime_e@$0L@@ioEntityGroup@@QAEMHAAY0L@$$CBD@Z ; ioEntityGroup::GetAnimationEventTime_e<11>
;	COMDAT xdata$x
; File d:\lost saga for developer\youtube\tutorial\source\src\lsclient\stringprotect.h
xdata$x	SEGMENT
__unwindtable$??$GetAnimationEventTime_e@$0L@@ioEntityGroup@@QAEMHAAY0L@$$CBD@Z DD 0ffffffffH
	DD	FLAT:__unwindfunclet$??$GetAnimationEventTime_e@$0L@@ioEntityGroup@@QAEMHAAY0L@$$CBD@Z$0
__ehfuncinfo$??$GetAnimationEventTime_e@$0L@@ioEntityGroup@@QAEMHAAY0L@$$CBD@Z DD 019930522H
	DD	01H
	DD	FLAT:__unwindtable$??$GetAnimationEventTime_e@$0L@@ioEntityGroup@@QAEMHAAY0L@$$CBD@Z
	DD	2 DUP(00H)
	DD	2 DUP(00H)
	DD	00H
	DD	01H
; Function compile flags: /Ogsp
; File d:\lost saga for developer\youtube\tutorial\source\src\io3dengine\ioentitygroup.h
xdata$x	ENDS
;	COMDAT ??$GetAnimationEventTime_e@$0L@@ioEntityGroup@@QAEMHAAY0L@$$CBD@Z
_TEXT	SEGMENT
$T555149 = -52						; size = 16
$T555148 = -36						; size = 4
_szEncEventType$ = -32					; size = 11
__$EHRec$ = -12						; size = 12
_id$ = 8						; size = 4
_szEventType$ = 12					; size = 4
??$GetAnimationEventTime_e@$0L@@ioEntityGroup@@QAEMHAAY0L@$$CBD@Z PROC ; ioEntityGroup::GetAnimationEventTime_e<11>, COMDAT
; _this$ = ecx

; 414  : 	{

  00000	6a 28		 push	 40			; 00000028H
  00002	b8 00 00 00 00	 mov	 eax, __ehhandler$??$GetAnimationEventTime_e@$0L@@ioEntityGroup@@QAEMHAAY0L@$$CBD@Z
  00007	e8 00 00 00 00	 call	 __EH_prolog3_GS
  0000c	8b 45 0c	 mov	 eax, DWORD PTR _szEventType$[ebp]
  0000f	8b f1		 mov	 esi, ecx

; 415  : 		_ENCSTR(szEventType, szEncEventType);

  00011	8a 08		 mov	 cl, BYTE PTR [eax]
  00013	84 c9		 test	 cl, cl
  00015	0f 84 1b 01 00
	00		 je	 $LN96@GetAnimati@2
  0001b	b2 ed		 mov	 dl, -19			; ffffffedH
  0001d	32 ca		 xor	 cl, dl
  0001f	88 4d e0	 mov	 BYTE PTR _szEncEventType$[ebp], cl
  00022	8a 48 01	 mov	 cl, BYTE PTR [eax+1]
  00025	84 c9		 test	 cl, cl
  00027	0f 84 03 01 00
	00		 je	 $LN95@GetAnimati@2
  0002d	80 f1 ec	 xor	 cl, -20			; ffffffecH
  00030	88 4d e1	 mov	 BYTE PTR _szEncEventType$[ebp+1], cl
  00033	8a 48 02	 mov	 cl, BYTE PTR [eax+2]
  00036	84 c9		 test	 cl, cl
  00038	0f 84 ec 00 00
	00		 je	 $LN94@GetAnimati@2
  0003e	80 f1 eb	 xor	 cl, -21			; ffffffebH
  00041	88 4d e2	 mov	 BYTE PTR _szEncEventType$[ebp+2], cl
  00044	8a 48 03	 mov	 cl, BYTE PTR [eax+3]
  00047	84 c9		 test	 cl, cl
  00049	0f 84 d5 00 00
	00		 je	 $LN93@GetAnimati@2
  0004f	80 f1 ea	 xor	 cl, -22			; ffffffeaH
  00052	88 4d e3	 mov	 BYTE PTR _szEncEventType$[ebp+3], cl
  00055	8a 48 04	 mov	 cl, BYTE PTR [eax+4]
  00058	84 c9		 test	 cl, cl
  0005a	0f 84 bf 00 00
	00		 je	 $LN92@GetAnimati@2
  00060	32 ca		 xor	 cl, dl
  00062	88 4d e4	 mov	 BYTE PTR _szEncEventType$[ebp+4], cl
  00065	8a 48 05	 mov	 cl, BYTE PTR [eax+5]
  00068	84 c9		 test	 cl, cl
  0006a	0f 84 a9 00 00
	00		 je	 $LN91@GetAnimati@2
  00070	80 f1 ec	 xor	 cl, -20			; ffffffecH
  00073	88 4d e5	 mov	 BYTE PTR _szEncEventType$[ebp+5], cl
  00076	8a 48 06	 mov	 cl, BYTE PTR [eax+6]
  00079	84 c9		 test	 cl, cl
  0007b	0f 84 92 00 00
	00		 je	 $LN90@GetAnimati@2
  00081	80 f1 eb	 xor	 cl, -21			; ffffffebH
  00084	88 4d e6	 mov	 BYTE PTR _szEncEventType$[ebp+6], cl
  00087	8a 48 07	 mov	 cl, BYTE PTR [eax+7]
  0008a	84 c9		 test	 cl, cl
  0008c	74 7f		 je	 SHORT $LN89@GetAnimati@2
  0008e	80 f1 ea	 xor	 cl, -22			; ffffffeaH
  00091	88 4d e7	 mov	 BYTE PTR _szEncEventType$[ebp+7], cl
  00094	8a 48 08	 mov	 cl, BYTE PTR [eax+8]
  00097	84 c9		 test	 cl, cl
  00099	74 6d		 je	 SHORT $LN88@GetAnimati@2
  0009b	32 ca		 xor	 cl, dl
  0009d	88 4d e8	 mov	 BYTE PTR _szEncEventType$[ebp+8], cl
  000a0	8a 48 09	 mov	 cl, BYTE PTR [eax+9]
  000a3	84 c9		 test	 cl, cl
  000a5	74 5b		 je	 SHORT $LN87@GetAnimati@2
  000a7	80 f1 ec	 xor	 cl, -20			; ffffffecH
  000aa	80 78 0a 00	 cmp	 BYTE PTR [eax+10], 0
  000ae	88 4d e9	 mov	 BYTE PTR _szEncEventType$[ebp+9], cl
  000b1	0f 84 83 00 00
	00		 je	 $LN1@GetAnimati@2
  000b7	8a 48 0b	 mov	 cl, BYTE PTR [eax+11]
  000ba	84 c9		 test	 cl, cl
  000bc	74 3e		 je	 SHORT $LN85@GetAnimati@2
  000be	80 f1 ea	 xor	 cl, -22			; ffffffeaH
  000c1	88 4d eb	 mov	 BYTE PTR _szEncEventType$[ebp+11], cl
  000c4	8a 48 0c	 mov	 cl, BYTE PTR [eax+12]
  000c7	84 c9		 test	 cl, cl
  000c9	74 2c		 je	 SHORT $LN84@GetAnimati@2
  000cb	32 ca		 xor	 cl, dl
  000cd	88 4d ec	 mov	 BYTE PTR _szEncEventType$[ebp+12], cl
  000d0	8a 48 0d	 mov	 cl, BYTE PTR [eax+13]
  000d3	84 c9		 test	 cl, cl
  000d5	74 1a		 je	 SHORT $LN83@GetAnimati@2
  000d7	8a 40 0e	 mov	 al, BYTE PTR [eax+14]
  000da	80 f1 ec	 xor	 cl, -20			; ffffffecH
  000dd	88 4d ed	 mov	 BYTE PTR _szEncEventType$[ebp+13], cl
  000e0	84 c0		 test	 al, al
  000e2	74 07		 je	 SHORT $LN82@GetAnimati@2
  000e4	34 eb		 xor	 al, -21			; ffffffebH
  000e6	88 45 ee	 mov	 BYTE PTR _szEncEventType$[ebp+14], al
  000e9	eb 4f		 jmp	 SHORT $LN1@GetAnimati@2
$LN82@GetAnimati@2:
  000eb	c6 45 ee eb	 mov	 BYTE PTR _szEncEventType$[ebp+14], -21 ; ffffffebH
  000ef	eb 49		 jmp	 SHORT $LN1@GetAnimati@2
$LN83@GetAnimati@2:
  000f1	c6 45 ed ec	 mov	 BYTE PTR _szEncEventType$[ebp+13], -20 ; ffffffecH
  000f5	eb 43		 jmp	 SHORT $LN1@GetAnimati@2
$LN84@GetAnimati@2:
  000f7	88 55 ec	 mov	 BYTE PTR _szEncEventType$[ebp+12], dl
  000fa	eb 3e		 jmp	 SHORT $LN1@GetAnimati@2
$LN85@GetAnimati@2:
  000fc	c6 45 eb ea	 mov	 BYTE PTR _szEncEventType$[ebp+11], -22 ; ffffffeaH
  00100	eb 38		 jmp	 SHORT $LN1@GetAnimati@2
$LN87@GetAnimati@2:
  00102	c6 45 e9 ec	 mov	 BYTE PTR _szEncEventType$[ebp+9], -20 ; ffffffecH
  00106	eb 32		 jmp	 SHORT $LN1@GetAnimati@2
$LN88@GetAnimati@2:
  00108	88 55 e8	 mov	 BYTE PTR _szEncEventType$[ebp+8], dl
  0010b	eb 2d		 jmp	 SHORT $LN1@GetAnimati@2
$LN89@GetAnimati@2:
  0010d	c6 45 e7 ea	 mov	 BYTE PTR _szEncEventType$[ebp+7], -22 ; ffffffeaH
  00111	eb 27		 jmp	 SHORT $LN1@GetAnimati@2
$LN90@GetAnimati@2:
  00113	c6 45 e6 eb	 mov	 BYTE PTR _szEncEventType$[ebp+6], -21 ; ffffffebH
  00117	eb 21		 jmp	 SHORT $LN1@GetAnimati@2
$LN91@GetAnimati@2:
  00119	c6 45 e5 ec	 mov	 BYTE PTR _szEncEventType$[ebp+5], -20 ; ffffffecH
  0011d	eb 1b		 jmp	 SHORT $LN1@GetAnimati@2
$LN92@GetAnimati@2:
  0011f	88 55 e4	 mov	 BYTE PTR _szEncEventType$[ebp+4], dl
  00122	eb 16		 jmp	 SHORT $LN1@GetAnimati@2
$LN93@GetAnimati@2:
  00124	c6 45 e3 ea	 mov	 BYTE PTR _szEncEventType$[ebp+3], -22 ; ffffffeaH
  00128	eb 10		 jmp	 SHORT $LN1@GetAnimati@2
$LN94@GetAnimati@2:
  0012a	c6 45 e2 eb	 mov	 BYTE PTR _szEncEventType$[ebp+2], -21 ; ffffffebH
  0012e	eb 0a		 jmp	 SHORT $LN1@GetAnimati@2
$LN95@GetAnimati@2:
  00130	c6 45 e1 ec	 mov	 BYTE PTR _szEncEventType$[ebp+1], -20 ; ffffffecH
  00134	eb 04		 jmp	 SHORT $LN1@GetAnimati@2
$LN96@GetAnimati@2:
  00136	c6 45 e0 ed	 mov	 BYTE PTR _szEncEventType$[ebp], -19 ; ffffffedH
$LN1@GetAnimati@2:
  0013a	6a 02		 push	 2
  0013c	8d 45 e0	 lea	 eax, DWORD PTR _szEncEventType$[ebp]
  0013f	c6 45 ea 00	 mov	 BYTE PTR _szEncEventType$[ebp+10], 0
  00143	59		 pop	 ecx
$LL105@GetAnimati@2:
  00144	81 30 ed ec eb
	ea		 xor	 DWORD PTR [eax], -353637139 ; eaebecedH
  0014a	83 c0 04	 add	 eax, 4
  0014d	49		 dec	 ecx
  0014e	75 f4		 jne	 SHORT $LL105@GetAnimati@2
  00150	6a 08		 push	 8
  00152	58		 pop	 eax
$LL102@GetAnimati@2:
  00153	8b c8		 mov	 ecx, eax
  00155	81 e1 03 00 00
	80		 and	 ecx, -2147483645	; 80000003H
  0015b	79 05		 jns	 SHORT $LN113@GetAnimati@2
  0015d	49		 dec	 ecx
  0015e	83 c9 fc	 or	 ecx, -4			; fffffffcH
  00161	41		 inc	 ecx
$LN113@GetAnimati@2:
  00162	b2 ed		 mov	 dl, -19			; ffffffedH
  00164	2a d1		 sub	 dl, cl
  00166	30 54 05 e0	 xor	 BYTE PTR _szEncEventType$[ebp+eax], dl
  0016a	40		 inc	 eax
  0016b	83 f8 0a	 cmp	 eax, 10			; 0000000aH
  0016e	7c e3		 jl	 SHORT $LL102@GetAnimati@2

; 416  : 		return GetAnimationEventTime(id, szEncEventType);

  00170	8d 45 e0	 lea	 eax, DWORD PTR _szEncEventType$[ebp]
  00173	50		 push	 eax
  00174	8d 4d cc	 lea	 ecx, DWORD PTR $T555149[ebp]
  00177	ff 15 00 00 00
	00		 call	 DWORD PTR __imp_??0ioHashString@@QAE@PBD@Z
  0017d	83 65 fc 00	 and	 DWORD PTR __$EHRec$[ebp+8], 0
  00181	8d 45 cc	 lea	 eax, DWORD PTR $T555149[ebp]
  00184	50		 push	 eax
  00185	ff 75 08	 push	 DWORD PTR _id$[ebp]
  00188	8b ce		 mov	 ecx, esi
  0018a	ff 15 00 00 00
	00		 call	 DWORD PTR __imp_?GetAnimationEventTime@ioEntityGroup@@QAEMHABVioHashString@@@Z
  00190	d9 5d dc	 fstp	 DWORD PTR $T555148[ebp]
  00193	83 4d fc ff	 or	 DWORD PTR __$EHRec$[ebp+8], -1
  00197	8d 4d cc	 lea	 ecx, DWORD PTR $T555149[ebp]
  0019a	ff 15 00 00 00
	00		 call	 DWORD PTR __imp_??1ioHashString@@QAE@XZ
  001a0	d9 45 dc	 fld	 DWORD PTR $T555148[ebp]

; 417  : 	}

  001a3	e8 00 00 00 00	 call	 __EH_epilog3_GS
  001a8	c2 08 00	 ret	 8
_TEXT	ENDS
;	COMDAT text$x
text$x	SEGMENT
__unwindfunclet$??$GetAnimationEventTime_e@$0L@@ioEntityGroup@@QAEMHAAY0L@$$CBD@Z$0:
  00000	8d 4d cc	 lea	 ecx, DWORD PTR $T555149[ebp]
  00003	ff 25 00 00 00
	00		 jmp	 DWORD PTR __imp_??1ioHashString@@QAE@XZ
__ehhandler$??$GetAnimationEventTime_e@$0L@@ioEntityGroup@@QAEMHAAY0L@$$CBD@Z:
  00009	8b 54 24 08	 mov	 edx, DWORD PTR [esp+8]
  0000d	8d 42 0c	 lea	 eax, DWORD PTR [edx+12]
  00010	8b 4a c8	 mov	 ecx, DWORD PTR [edx-56]
  00013	33 c8		 xor	 ecx, eax
  00015	e8 00 00 00 00	 call	 @__security_check_cookie@4
  0001a	8b 4a fc	 mov	 ecx, DWORD PTR [edx-4]
  0001d	33 c8		 xor	 ecx, eax
  0001f	e8 00 00 00 00	 call	 @__security_check_cookie@4
  00024	b8 00 00 00 00	 mov	 eax, OFFSET __ehfuncinfo$??$GetAnimationEventTime_e@$0L@@ioEntityGroup@@QAEMHAAY0L@$$CBD@Z
  00029	e9 00 00 00 00	 jmp	 ___CxxFrameHandler3
text$x	ENDS
??$GetAnimationEventTime_e@$0L@@ioEntityGroup@@QAEMHAAY0L@$$CBD@Z ENDP ; ioEntityGroup::GetAnimationEventTime_e<11>
PUBLIC	??$construct@AAVioHashString@@@?$allocator@VioHashString@@@std@@QAEXPAVioHashString@@AAV2@@Z ; std::allocator<ioHashString>::construct<ioHashString &>
;	COMDAT xdata$x
; File c:\program files (x86)\microsoft visual studio 10.0\vc\include\utility
xdata$x	SEGMENT
__unwindtable$??$construct@AAVioHashString@@@?$allocator@VioHashString@@@std@@QAEXPAVioHashString@@AAV2@@Z DD 0ffffffffH
	DD	FLAT:__unwindfunclet$??$construct@AAVioHashString@@@?$allocator@VioHashString@@@std@@QAEXPAVioHashString@@AAV2@@Z$0
__ehfuncinfo$??$construct@AAVioHashString@@@?$allocator@VioHashString@@@std@@QAEXPAVioHashString@@AAV2@@Z DD 019930522H
	DD	01H
	DD	FLAT:__unwindtable$??$construct@AAVioHashString@@@?$allocator@VioHashString@@@std@@QAEXPAVioHashString@@AAV2@@Z
	DD	2 DUP(00H)
	DD	2 DUP(00H)
	DD	00H
	DD	01H
; Function compile flags: /Ogsp
; File c:\program files (x86)\microsoft visual studio 10.0\vc\include\xmemory
xdata$x	ENDS
;	COMDAT ??$construct@AAVioHashString@@@?$allocator@VioHashString@@@std@@QAEXPAVioHashString@@AAV2@@Z
_TEXT	SEGMENT
$T555179 = -16						; size = 4
__$EHRec$ = -12						; size = 12
__Ptr$ = 8						; size = 4
__Val$ = 12						; size = 4
??$construct@AAVioHashString@@@?$allocator@VioHashString@@@std@@QAEXPAVioHashString@@AAV2@@Z PROC ; std::allocator<ioHashString>::construct<ioHashString &>, COMDAT
; _this$ = ecx

; 206  : 		void construct(pointer _Ptr, _Other&& _Val)

  00000	6a 04		 push	 4
  00002	b8 00 00 00 00	 mov	 eax, __ehhandler$??$construct@AAVioHashString@@@?$allocator@VioHashString@@@std@@QAEXPAVioHashString@@AAV2@@Z
  00007	e8 00 00 00 00	 call	 __EH_prolog3

; 207  : 		{	// construct object at _Ptr with value _Val
; 208  : 		::new ((void _FARQ *)_Ptr) _Ty(_STD forward<_Other>(_Val));

  0000c	8b 4d 08	 mov	 ecx, DWORD PTR __Ptr$[ebp]
  0000f	89 4d f0	 mov	 DWORD PTR $T555179[ebp], ecx
  00012	83 65 fc 00	 and	 DWORD PTR __$EHRec$[ebp+8], 0
  00016	85 c9		 test	 ecx, ecx
  00018	74 09		 je	 SHORT $LN3@construct
  0001a	ff 75 0c	 push	 DWORD PTR __Val$[ebp]
  0001d	ff 15 00 00 00
	00		 call	 DWORD PTR __imp_??0ioHashString@@QAE@ABV0@@Z
$LN3@construct:

; 209  : 		}

  00023	e8 00 00 00 00	 call	 __EH_epilog3
  00028	c2 08 00	 ret	 8
_TEXT	ENDS
;	COMDAT text$x
text$x	SEGMENT
__unwindfunclet$??$construct@AAVioHashString@@@?$allocator@VioHashString@@@std@@QAEXPAVioHashString@@AAV2@@Z$0:
  00000	ff 75 08	 push	 DWORD PTR __Ptr$[ebp]
  00003	ff 75 f0	 push	 DWORD PTR $T555179[ebp]
  00006	e8 00 00 00 00	 call	 ??3@YAXPAX0@Z		; operator delete
  0000b	59		 pop	 ecx
  0000c	59		 pop	 ecx
  0000d	c3		 ret	 0
__ehhandler$??$construct@AAVioHashString@@@?$allocator@VioHashString@@@std@@QAEXPAVioHashString@@AAV2@@Z:
  0000e	8b 54 24 08	 mov	 edx, DWORD PTR [esp+8]
  00012	8d 42 0c	 lea	 eax, DWORD PTR [edx+12]
  00015	8b 4a ec	 mov	 ecx, DWORD PTR [edx-20]
  00018	33 c8		 xor	 ecx, eax
  0001a	e8 00 00 00 00	 call	 @__security_check_cookie@4
  0001f	b8 00 00 00 00	 mov	 eax, OFFSET __ehfuncinfo$??$construct@AAVioHashString@@@?$allocator@VioHashString@@@std@@QAEXPAVioHashString@@AAV2@@Z
  00024	e9 00 00 00 00	 jmp	 ___CxxFrameHandler3
text$x	ENDS
??$construct@AAVioHashString@@@?$allocator@VioHashString@@@std@@QAEXPAVioHashString@@AAV2@@Z ENDP ; std::allocator<ioHashString>::construct<ioHashString &>
PUBLIC	??$construct@AAUWoundedInfo@ioLeeSunSin@@@?$allocator@UWoundedInfo@ioLeeSunSin@@@std@@QAEXPAUWoundedInfo@ioLeeSunSin@@AAU23@@Z ; std::allocator<ioLeeSunSin::WoundedInfo>::construct<ioLeeSunSin::WoundedInfo &>
;	COMDAT xdata$x
; File c:\program files (x86)\microsoft visual studio 10.0\vc\include\utility
xdata$x	SEGMENT
__unwindtable$??$construct@AAUWoundedInfo@ioLeeSunSin@@@?$allocator@UWoundedInfo@ioLeeSunSin@@@std@@QAEXPAUWoundedInfo@ioLeeSunSin@@AAU23@@Z DD 0ffffffffH
	DD	FLAT:__unwindfunclet$??$construct@AAUWoundedInfo@ioLeeSunSin@@@?$allocator@UWoundedInfo@ioLeeSunSin@@@std@@QAEXPAUWoundedInfo@ioLeeSunSin@@AAU23@@Z$0
__ehfuncinfo$??$construct@AAUWoundedInfo@ioLeeSunSin@@@?$allocator@UWoundedInfo@ioLeeSunSin@@@std@@QAEXPAUWoundedInfo@ioLeeSunSin@@AAU23@@Z DD 019930522H
	DD	01H
	DD	FLAT:__unwindtable$??$construct@AAUWoundedInfo@ioLeeSunSin@@@?$allocator@UWoundedInfo@ioLeeSunSin@@@std@@QAEXPAUWoundedInfo@ioLeeSunSin@@AAU23@@Z
	DD	2 DUP(00H)
	DD	2 DUP(00H)
	DD	00H
	DD	01H
; Function compile flags: /Ogsp
; File c:\program files (x86)\microsoft visual studio 10.0\vc\include\xmemory
xdata$x	ENDS
;	COMDAT ??$construct@AAUWoundedInfo@ioLeeSunSin@@@?$allocator@UWoundedInfo@ioLeeSunSin@@@std@@QAEXPAUWoundedInfo@ioLeeSunSin@@AAU23@@Z
_TEXT	SEGMENT
$T555198 = -16						; size = 4
__$EHRec$ = -12						; size = 12
__Ptr$ = 8						; size = 4
__Val$ = 12						; size = 4
??$construct@AAUWoundedInfo@ioLeeSunSin@@@?$allocator@UWoundedInfo@ioLeeSunSin@@@std@@QAEXPAUWoundedInfo@ioLeeSunSin@@AAU23@@Z PROC ; std::allocator<ioLeeSunSin::WoundedInfo>::construct<ioLeeSunSin::WoundedInfo &>, COMDAT
; _this$ = ecx

; 206  : 		void construct(pointer _Ptr, _Other&& _Val)

  00000	6a 04		 push	 4
  00002	b8 00 00 00 00	 mov	 eax, __ehhandler$??$construct@AAUWoundedInfo@ioLeeSunSin@@@?$allocator@UWoundedInfo@ioLeeSunSin@@@std@@QAEXPAUWoundedInfo@ioLeeSunSin@@AAU23@@Z
  00007	e8 00 00 00 00	 call	 __EH_prolog3

; 207  : 		{	// construct object at _Ptr with value _Val
; 208  : 		::new ((void _FARQ *)_Ptr) _Ty(_STD forward<_Other>(_Val));

  0000c	8b 4d 08	 mov	 ecx, DWORD PTR __Ptr$[ebp]
  0000f	89 4d f0	 mov	 DWORD PTR $T555198[ebp], ecx
  00012	83 65 fc 00	 and	 DWORD PTR __$EHRec$[ebp+8], 0
  00016	85 c9		 test	 ecx, ecx
  00018	74 08		 je	 SHORT $LN3@construct@2
  0001a	ff 75 0c	 push	 DWORD PTR __Val$[ebp]
  0001d	e8 00 00 00 00	 call	 ??0WoundedInfo@ioLeeSunSin@@QAE@ABU01@@Z
$LN3@construct@2:

; 209  : 		}

  00022	e8 00 00 00 00	 call	 __EH_epilog3
  00027	c2 08 00	 ret	 8
_TEXT	ENDS
;	COMDAT text$x
text$x	SEGMENT
__unwindfunclet$??$construct@AAUWoundedInfo@ioLeeSunSin@@@?$allocator@UWoundedInfo@ioLeeSunSin@@@std@@QAEXPAUWoundedInfo@ioLeeSunSin@@AAU23@@Z$0:
  00000	ff 75 08	 push	 DWORD PTR __Ptr$[ebp]
  00003	ff 75 f0	 push	 DWORD PTR $T555198[ebp]
  00006	e8 00 00 00 00	 call	 ??3@YAXPAX0@Z		; operator delete
  0000b	59		 pop	 ecx
  0000c	59		 pop	 ecx
  0000d	c3		 ret	 0
__ehhandler$??$construct@AAUWoundedInfo@ioLeeSunSin@@@?$allocator@UWoundedInfo@ioLeeSunSin@@@std@@QAEXPAUWoundedInfo@ioLeeSunSin@@AAU23@@Z:
  0000e	8b 54 24 08	 mov	 edx, DWORD PTR [esp+8]
  00012	8d 42 0c	 lea	 eax, DWORD PTR [edx+12]
  00015	8b 4a ec	 mov	 ecx, DWORD PTR [edx-20]
  00018	33 c8		 xor	 ecx, eax
  0001a	e8 00 00 00 00	 call	 @__security_check_cookie@4
  0001f	b8 00 00 00 00	 mov	 eax, OFFSET __ehfuncinfo$??$construct@AAUWoundedInfo@ioLeeSunSin@@@?$allocator@UWoundedInfo@ioLeeSunSin@@@std@@QAEXPAUWoundedInfo@ioLeeSunSin@@AAU23@@Z
  00024	e9 00 00 00 00	 jmp	 ___CxxFrameHandler3
text$x	ENDS
??$construct@AAUWoundedInfo@ioLeeSunSin@@@?$allocator@UWoundedInfo@ioLeeSunSin@@@std@@QAEXPAUWoundedInfo@ioLeeSunSin@@AAU23@@Z ENDP ; std::allocator<ioLeeSunSin::WoundedInfo>::construct<ioLeeSunSin::WoundedInfo &>
PUBLIC	??$_Construct@UWoundedInfo@ioLeeSunSin@@ABU12@@std@@YAXPAUWoundedInfo@ioLeeSunSin@@ABU12@@Z ; std::_Construct<ioLeeSunSin::WoundedInfo,ioLeeSunSin::WoundedInfo const &>
;	COMDAT xdata$x
; File c:\program files (x86)\microsoft visual studio 10.0\vc\include\utility
xdata$x	SEGMENT
__unwindtable$??$_Construct@UWoundedInfo@ioLeeSunSin@@ABU12@@std@@YAXPAUWoundedInfo@ioLeeSunSin@@ABU12@@Z DD 0ffffffffH
	DD	FLAT:__unwindfunclet$??$_Construct@UWoundedInfo@ioLeeSunSin@@ABU12@@std@@YAXPAUWoundedInfo@ioLeeSunSin@@ABU12@@Z$0
__ehfuncinfo$??$_Construct@UWoundedInfo@ioLeeSunSin@@ABU12@@std@@YAXPAUWoundedInfo@ioLeeSunSin@@ABU12@@Z DD 019930522H
	DD	01H
	DD	FLAT:__unwindtable$??$_Construct@UWoundedInfo@ioLeeSunSin@@ABU12@@std@@YAXPAUWoundedInfo@ioLeeSunSin@@ABU12@@Z
	DD	2 DUP(00H)
	DD	2 DUP(00H)
	DD	00H
	DD	01H
; Function compile flags: /Ogsp
; File c:\program files (x86)\microsoft visual studio 10.0\vc\include\xmemory
xdata$x	ENDS
;	COMDAT ??$_Construct@UWoundedInfo@ioLeeSunSin@@ABU12@@std@@YAXPAUWoundedInfo@ioLeeSunSin@@ABU12@@Z
_TEXT	SEGMENT
$T555217 = -16						; size = 4
__$EHRec$ = -12						; size = 12
__Vptr$ = 8						; size = 4
__Ptr$ = 8						; size = 4
__Val$ = 12						; size = 4
??$_Construct@UWoundedInfo@ioLeeSunSin@@ABU12@@std@@YAXPAUWoundedInfo@ioLeeSunSin@@ABU12@@Z PROC ; std::_Construct<ioLeeSunSin::WoundedInfo,ioLeeSunSin::WoundedInfo const &>, COMDAT

; 46   : 	{	// construct object at _Ptr with value _Val

  00000	6a 04		 push	 4
  00002	b8 00 00 00 00	 mov	 eax, __ehhandler$??$_Construct@UWoundedInfo@ioLeeSunSin@@ABU12@@std@@YAXPAUWoundedInfo@ioLeeSunSin@@ABU12@@Z
  00007	e8 00 00 00 00	 call	 __EH_prolog3

; 47   : 	void _FARQ *_Vptr = _Ptr;

  0000c	8b 4d 08	 mov	 ecx, DWORD PTR __Ptr$[ebp]
  0000f	89 4d 08	 mov	 DWORD PTR __Vptr$[ebp], ecx

; 48   : 	::new (_Vptr) _Ty1(_STD forward<_Ty2>(_Val));

  00012	89 4d f0	 mov	 DWORD PTR $T555217[ebp], ecx
  00015	83 65 fc 00	 and	 DWORD PTR __$EHRec$[ebp+8], 0
  00019	85 c9		 test	 ecx, ecx
  0001b	74 08		 je	 SHORT $LN3@Construct@3
  0001d	ff 75 0c	 push	 DWORD PTR __Val$[ebp]
  00020	e8 00 00 00 00	 call	 ??0WoundedInfo@ioLeeSunSin@@QAE@ABU01@@Z
$LN3@Construct@3:

; 49   : 	}

  00025	e8 00 00 00 00	 call	 __EH_epilog3
  0002a	c3		 ret	 0
_TEXT	ENDS
;	COMDAT text$x
text$x	SEGMENT
__unwindfunclet$??$_Construct@UWoundedInfo@ioLeeSunSin@@ABU12@@std@@YAXPAUWoundedInfo@ioLeeSunSin@@ABU12@@Z$0:
  00000	ff 75 08	 push	 DWORD PTR __Vptr$[ebp]
  00003	ff 75 f0	 push	 DWORD PTR $T555217[ebp]
  00006	e8 00 00 00 00	 call	 ??3@YAXPAX0@Z		; operator delete
  0000b	59		 pop	 ecx
  0000c	59		 pop	 ecx
  0000d	c3		 ret	 0
__ehhandler$??$_Construct@UWoundedInfo@ioLeeSunSin@@ABU12@@std@@YAXPAUWoundedInfo@ioLeeSunSin@@ABU12@@Z:
  0000e	8b 54 24 08	 mov	 edx, DWORD PTR [esp+8]
  00012	8d 42 0c	 lea	 eax, DWORD PTR [edx+12]
  00015	8b 4a ec	 mov	 ecx, DWORD PTR [edx-20]
  00018	33 c8		 xor	 ecx, eax
  0001a	e8 00 00 00 00	 call	 @__security_check_cookie@4
  0001f	b8 00 00 00 00	 mov	 eax, OFFSET __ehfuncinfo$??$_Construct@UWoundedInfo@ioLeeSunSin@@ABU12@@std@@YAXPAUWoundedInfo@ioLeeSunSin@@ABU12@@Z
  00024	e9 00 00 00 00	 jmp	 ___CxxFrameHandler3
text$x	ENDS
??$_Construct@UWoundedInfo@ioLeeSunSin@@ABU12@@std@@YAXPAUWoundedInfo@ioLeeSunSin@@ABU12@@Z ENDP ; std::_Construct<ioLeeSunSin::WoundedInfo,ioLeeSunSin::WoundedInfo const &>
PUBLIC	??$_Destroy@UWoundedInfo@ioLeeSunSin@@@std@@YAXPAUWoundedInfo@ioLeeSunSin@@@Z ; std::_Destroy<ioLeeSunSin::WoundedInfo>
; Function compile flags: /Ogsp
;	COMDAT ??$_Destroy@UWoundedInfo@ioLeeSunSin@@@std@@YAXPAUWoundedInfo@ioLeeSunSin@@@Z
_TEXT	SEGMENT
__Ptr$ = 8						; size = 4
??$_Destroy@UWoundedInfo@ioLeeSunSin@@@std@@YAXPAUWoundedInfo@ioLeeSunSin@@@Z PROC ; std::_Destroy<ioLeeSunSin::WoundedInfo>, COMDAT

; 62   : 	{	// destroy object at _Ptr

  00000	55		 push	 ebp
  00001	8b ec		 mov	 ebp, esp

; 63   : 	_Ptr->~_Ty();

  00003	8b 4d 08	 mov	 ecx, DWORD PTR __Ptr$[ebp]
  00006	83 c1 0c	 add	 ecx, 12			; 0000000cH

; 64   : 	}

  00009	5d		 pop	 ebp

; 63   : 	_Ptr->~_Ty();

  0000a	ff 25 00 00 00
	00		 jmp	 DWORD PTR __imp_??1ioHashString@@QAE@XZ
??$_Destroy@UWoundedInfo@ioLeeSunSin@@@std@@YAXPAUWoundedInfo@ioLeeSunSin@@@Z ENDP ; std::_Destroy<ioLeeSunSin::WoundedInfo>
_TEXT	ENDS
PUBLIC	?construct@?$allocator@VioHashString@@@std@@QAEXPAVioHashString@@$$QAV3@@Z ; std::allocator<ioHashString>::construct
;	COMDAT xdata$x
; File c:\program files (x86)\microsoft visual studio 10.0\vc\include\utility
xdata$x	SEGMENT
__unwindtable$?construct@?$allocator@VioHashString@@@std@@QAEXPAVioHashString@@$$QAV3@@Z DD 0ffffffffH
	DD	FLAT:__unwindfunclet$?construct@?$allocator@VioHashString@@@std@@QAEXPAVioHashString@@$$QAV3@@Z$0
__ehfuncinfo$?construct@?$allocator@VioHashString@@@std@@QAEXPAVioHashString@@$$QAV3@@Z DD 019930522H
	DD	01H
	DD	FLAT:__unwindtable$?construct@?$allocator@VioHashString@@@std@@QAEXPAVioHashString@@$$QAV3@@Z
	DD	2 DUP(00H)
	DD	2 DUP(00H)
	DD	00H
	DD	01H
; Function compile flags: /Ogsp
; File c:\program files (x86)\microsoft visual studio 10.0\vc\include\xmemory
xdata$x	ENDS
;	COMDAT ?construct@?$allocator@VioHashString@@@std@@QAEXPAVioHashString@@$$QAV3@@Z
_TEXT	SEGMENT
$T555249 = -16						; size = 4
__$EHRec$ = -12						; size = 12
__Ptr$ = 8						; size = 4
__Val$ = 12						; size = 4
?construct@?$allocator@VioHashString@@@std@@QAEXPAVioHashString@@$$QAV3@@Z PROC ; std::allocator<ioHashString>::construct, COMDAT
; _this$ = ecx

; 201  : 		{	// construct object at _Ptr with value _Val

  00000	6a 04		 push	 4
  00002	b8 00 00 00 00	 mov	 eax, __ehhandler$?construct@?$allocator@VioHashString@@@std@@QAEXPAVioHashString@@$$QAV3@@Z
  00007	e8 00 00 00 00	 call	 __EH_prolog3

; 202  : 		::new ((void _FARQ *)_Ptr) _Ty(_STD forward<_Ty>(_Val));

  0000c	8b 4d 08	 mov	 ecx, DWORD PTR __Ptr$[ebp]
  0000f	89 4d f0	 mov	 DWORD PTR $T555249[ebp], ecx
  00012	83 65 fc 00	 and	 DWORD PTR __$EHRec$[ebp+8], 0
  00016	85 c9		 test	 ecx, ecx
  00018	74 09		 je	 SHORT $LN3@construct@3
  0001a	ff 75 0c	 push	 DWORD PTR __Val$[ebp]
  0001d	ff 15 00 00 00
	00		 call	 DWORD PTR __imp_??0ioHashString@@QAE@ABV0@@Z
$LN3@construct@3:

; 203  : 		}

  00023	e8 00 00 00 00	 call	 __EH_epilog3
  00028	c2 08 00	 ret	 8
_TEXT	ENDS
;	COMDAT text$x
text$x	SEGMENT
__unwindfunclet$?construct@?$allocator@VioHashString@@@std@@QAEXPAVioHashString@@$$QAV3@@Z$0:
  00000	ff 75 08	 push	 DWORD PTR __Ptr$[ebp]
  00003	ff 75 f0	 push	 DWORD PTR $T555249[ebp]
  00006	e8 00 00 00 00	 call	 ??3@YAXPAX0@Z		; operator delete
  0000b	59		 pop	 ecx
  0000c	59		 pop	 ecx
  0000d	c3		 ret	 0
__ehhandler$?construct@?$allocator@VioHashString@@@std@@QAEXPAVioHashString@@$$QAV3@@Z:
  0000e	8b 54 24 08	 mov	 edx, DWORD PTR [esp+8]
  00012	8d 42 0c	 lea	 eax, DWORD PTR [edx+12]
  00015	8b 4a ec	 mov	 ecx, DWORD PTR [edx-20]
  00018	33 c8		 xor	 ecx, eax
  0001a	e8 00 00 00 00	 call	 @__security_check_cookie@4
  0001f	b8 00 00 00 00	 mov	 eax, OFFSET __ehfuncinfo$?construct@?$allocator@VioHashString@@@std@@QAEXPAVioHashString@@$$QAV3@@Z
  00024	e9 00 00 00 00	 jmp	 ___CxxFrameHandler3
text$x	ENDS
?construct@?$allocator@VioHashString@@@std@@QAEXPAVioHashString@@$$QAV3@@Z ENDP ; std::allocator<ioHashString>::construct
PUBLIC	?construct@?$allocator@UForceInfo@@@std@@QAEXPAUForceInfo@@ABU3@@Z ; std::allocator<ForceInfo>::construct
; Function compile flags: /Ogsp
;	COMDAT ?construct@?$allocator@UForceInfo@@@std@@QAEXPAUForceInfo@@ABU3@@Z
_TEXT	SEGMENT
__Ptr$ = 8						; size = 4
__Val$ = 12						; size = 4
?construct@?$allocator@UForceInfo@@@std@@QAEXPAUForceInfo@@ABU3@@Z PROC ; std::allocator<ForceInfo>::construct, COMDAT
; _this$ = ecx

; 196  : 		{	// construct object at _Ptr with value _Val

  00000	55		 push	 ebp
  00001	8b ec		 mov	 ebp, esp
  00003	57		 push	 edi

; 197  : 		_Construct(_Ptr, _Val);

  00004	8b 7d 08	 mov	 edi, DWORD PTR __Ptr$[ebp]
  00007	85 ff		 test	 edi, edi
  00009	74 08		 je	 SHORT $LN5@construct@4
  0000b	56		 push	 esi
  0000c	8b 75 0c	 mov	 esi, DWORD PTR __Val$[ebp]
  0000f	a5		 movsd
  00010	a5		 movsd
  00011	a5		 movsd
  00012	5e		 pop	 esi
$LN5@construct@4:
  00013	5f		 pop	 edi

; 198  : 		}

  00014	5d		 pop	 ebp
  00015	c2 08 00	 ret	 8
?construct@?$allocator@UForceInfo@@@std@@QAEXPAUForceInfo@@ABU3@@Z ENDP ; std::allocator<ForceInfo>::construct
_TEXT	ENDS
PUBLIC	?construct@?$allocator@UWoundedInfo@ioLeeSunSin@@@std@@QAEXPAUWoundedInfo@ioLeeSunSin@@$$QAU34@@Z ; std::allocator<ioLeeSunSin::WoundedInfo>::construct
;	COMDAT xdata$x
; File c:\program files (x86)\microsoft visual studio 10.0\vc\include\utility
xdata$x	SEGMENT
__unwindtable$?construct@?$allocator@UWoundedInfo@ioLeeSunSin@@@std@@QAEXPAUWoundedInfo@ioLeeSunSin@@$$QAU34@@Z DD 0ffffffffH
	DD	FLAT:__unwindfunclet$?construct@?$allocator@UWoundedInfo@ioLeeSunSin@@@std@@QAEXPAUWoundedInfo@ioLeeSunSin@@$$QAU34@@Z$0
__ehfuncinfo$?construct@?$allocator@UWoundedInfo@ioLeeSunSin@@@std@@QAEXPAUWoundedInfo@ioLeeSunSin@@$$QAU34@@Z DD 019930522H
	DD	01H
	DD	FLAT:__unwindtable$?construct@?$allocator@UWoundedInfo@ioLeeSunSin@@@std@@QAEXPAUWoundedInfo@ioLeeSunSin@@$$QAU34@@Z
	DD	2 DUP(00H)
	DD	2 DUP(00H)
	DD	00H
	DD	01H
; Function compile flags: /Ogsp
; File c:\program files (x86)\microsoft visual studio 10.0\vc\include\xmemory
xdata$x	ENDS
;	COMDAT ?construct@?$allocator@UWoundedInfo@ioLeeSunSin@@@std@@QAEXPAUWoundedInfo@ioLeeSunSin@@$$QAU34@@Z
_TEXT	SEGMENT
$T555292 = -16						; size = 4
__$EHRec$ = -12						; size = 12
__Ptr$ = 8						; size = 4
__Val$ = 12						; size = 4
?construct@?$allocator@UWoundedInfo@ioLeeSunSin@@@std@@QAEXPAUWoundedInfo@ioLeeSunSin@@$$QAU34@@Z PROC ; std::allocator<ioLeeSunSin::WoundedInfo>::construct, COMDAT
; _this$ = ecx

; 201  : 		{	// construct object at _Ptr with value _Val

  00000	6a 04		 push	 4
  00002	b8 00 00 00 00	 mov	 eax, __ehhandler$?construct@?$allocator@UWoundedInfo@ioLeeSunSin@@@std@@QAEXPAUWoundedInfo@ioLeeSunSin@@$$QAU34@@Z
  00007	e8 00 00 00 00	 call	 __EH_prolog3

; 202  : 		::new ((void _FARQ *)_Ptr) _Ty(_STD forward<_Ty>(_Val));

  0000c	8b 4d 08	 mov	 ecx, DWORD PTR __Ptr$[ebp]
  0000f	89 4d f0	 mov	 DWORD PTR $T555292[ebp], ecx
  00012	83 65 fc 00	 and	 DWORD PTR __$EHRec$[ebp+8], 0
  00016	85 c9		 test	 ecx, ecx
  00018	74 08		 je	 SHORT $LN3@construct@5
  0001a	ff 75 0c	 push	 DWORD PTR __Val$[ebp]
  0001d	e8 00 00 00 00	 call	 ??0WoundedInfo@ioLeeSunSin@@QAE@ABU01@@Z
$LN3@construct@5:

; 203  : 		}

  00022	e8 00 00 00 00	 call	 __EH_epilog3
  00027	c2 08 00	 ret	 8
_TEXT	ENDS
;	COMDAT text$x
text$x	SEGMENT
__unwindfunclet$?construct@?$allocator@UWoundedInfo@ioLeeSunSin@@@std@@QAEXPAUWoundedInfo@ioLeeSunSin@@$$QAU34@@Z$0:
  00000	ff 75 08	 push	 DWORD PTR __Ptr$[ebp]
  00003	ff 75 f0	 push	 DWORD PTR $T555292[ebp]
  00006	e8 00 00 00 00	 call	 ??3@YAXPAX0@Z		; operator delete
  0000b	59		 pop	 ecx
  0000c	59		 pop	 ecx
  0000d	c3		 ret	 0
__ehhandler$?construct@?$allocator@UWoundedInfo@ioLeeSunSin@@@std@@QAEXPAUWoundedInfo@ioLeeSunSin@@$$QAU34@@Z:
  0000e	8b 54 24 08	 mov	 edx, DWORD PTR [esp+8]
  00012	8d 42 0c	 lea	 eax, DWORD PTR [edx+12]
  00015	8b 4a ec	 mov	 ecx, DWORD PTR [edx-20]
  00018	33 c8		 xor	 ecx, eax
  0001a	e8 00 00 00 00	 call	 @__security_check_cookie@4
  0001f	b8 00 00 00 00	 mov	 eax, OFFSET __ehfuncinfo$?construct@?$allocator@UWoundedInfo@ioLeeSunSin@@@std@@QAEXPAUWoundedInfo@ioLeeSunSin@@$$QAU34@@Z
  00024	e9 00 00 00 00	 jmp	 ___CxxFrameHandler3
text$x	ENDS
?construct@?$allocator@UWoundedInfo@ioLeeSunSin@@@std@@QAEXPAUWoundedInfo@ioLeeSunSin@@$$QAU34@@Z ENDP ; std::allocator<ioLeeSunSin::WoundedInfo>::construct
PUBLIC	??$_Construct@UWeaponInfo@@ABU1@@std@@YAXPAUWeaponInfo@@ABU1@@Z ; std::_Construct<WeaponInfo,WeaponInfo const &>
;	COMDAT xdata$x
; File c:\program files (x86)\microsoft visual studio 10.0\vc\include\utility
xdata$x	SEGMENT
__unwindtable$??$_Construct@UWeaponInfo@@ABU1@@std@@YAXPAUWeaponInfo@@ABU1@@Z DD 0ffffffffH
	DD	FLAT:__unwindfunclet$??$_Construct@UWeaponInfo@@ABU1@@std@@YAXPAUWeaponInfo@@ABU1@@Z$0
__ehfuncinfo$??$_Construct@UWeaponInfo@@ABU1@@std@@YAXPAUWeaponInfo@@ABU1@@Z DD 019930522H
	DD	01H
	DD	FLAT:__unwindtable$??$_Construct@UWeaponInfo@@ABU1@@std@@YAXPAUWeaponInfo@@ABU1@@Z
	DD	2 DUP(00H)
	DD	2 DUP(00H)
	DD	00H
	DD	01H
; Function compile flags: /Ogsp
; File c:\program files (x86)\microsoft visual studio 10.0\vc\include\xmemory
xdata$x	ENDS
;	COMDAT ??$_Construct@UWeaponInfo@@ABU1@@std@@YAXPAUWeaponInfo@@ABU1@@Z
_TEXT	SEGMENT
$T555311 = -16						; size = 4
__$EHRec$ = -12						; size = 12
__Vptr$ = 8						; size = 4
__Ptr$ = 8						; size = 4
__Val$ = 12						; size = 4
??$_Construct@UWeaponInfo@@ABU1@@std@@YAXPAUWeaponInfo@@ABU1@@Z PROC ; std::_Construct<WeaponInfo,WeaponInfo const &>, COMDAT

; 46   : 	{	// construct object at _Ptr with value _Val

  00000	6a 04		 push	 4
  00002	b8 00 00 00 00	 mov	 eax, __ehhandler$??$_Construct@UWeaponInfo@@ABU1@@std@@YAXPAUWeaponInfo@@ABU1@@Z
  00007	e8 00 00 00 00	 call	 __EH_prolog3

; 47   : 	void _FARQ *_Vptr = _Ptr;

  0000c	8b 4d 08	 mov	 ecx, DWORD PTR __Ptr$[ebp]
  0000f	89 4d 08	 mov	 DWORD PTR __Vptr$[ebp], ecx

; 48   : 	::new (_Vptr) _Ty1(_STD forward<_Ty2>(_Val));

  00012	89 4d f0	 mov	 DWORD PTR $T555311[ebp], ecx
  00015	83 65 fc 00	 and	 DWORD PTR __$EHRec$[ebp+8], 0
  00019	85 c9		 test	 ecx, ecx
  0001b	74 08		 je	 SHORT $LN3@Construct@4
  0001d	ff 75 0c	 push	 DWORD PTR __Val$[ebp]
  00020	e8 00 00 00 00	 call	 ??0WeaponInfo@@QAE@ABU0@@Z
$LN3@Construct@4:

; 49   : 	}

  00025	e8 00 00 00 00	 call	 __EH_epilog3
  0002a	c3		 ret	 0
_TEXT	ENDS
;	COMDAT text$x
text$x	SEGMENT
__unwindfunclet$??$_Construct@UWeaponInfo@@ABU1@@std@@YAXPAUWeaponInfo@@ABU1@@Z$0:
  00000	ff 75 08	 push	 DWORD PTR __Vptr$[ebp]
  00003	ff 75 f0	 push	 DWORD PTR $T555311[ebp]
  00006	e8 00 00 00 00	 call	 ??3@YAXPAX0@Z		; operator delete
  0000b	59		 pop	 ecx
  0000c	59		 pop	 ecx
  0000d	c3		 ret	 0
__ehhandler$??$_Construct@UWeaponInfo@@ABU1@@std@@YAXPAUWeaponInfo@@ABU1@@Z:
  0000e	8b 54 24 08	 mov	 edx, DWORD PTR [esp+8]
  00012	8d 42 0c	 lea	 eax, DWORD PTR [edx+12]
  00015	8b 4a ec	 mov	 ecx, DWORD PTR [edx-20]
  00018	33 c8		 xor	 ecx, eax
  0001a	e8 00 00 00 00	 call	 @__security_check_cookie@4
  0001f	b8 00 00 00 00	 mov	 eax, OFFSET __ehfuncinfo$??$_Construct@UWeaponInfo@@ABU1@@std@@YAXPAUWeaponInfo@@ABU1@@Z
  00024	e9 00 00 00 00	 jmp	 ___CxxFrameHandler3
text$x	ENDS
??$_Construct@UWeaponInfo@@ABU1@@std@@YAXPAUWeaponInfo@@ABU1@@Z ENDP ; std::_Construct<WeaponInfo,WeaponInfo const &>
PUBLIC	??0?$CEncrypt@M@@QAE@XZ				; CEncrypt<float>::CEncrypt<float>
EXTRN	??0ccddaabb@@QAE@XZ:PROC			; ccddaabb::ccddaabb
;	COMDAT xdata$x
; File d:\lost saga for developer\youtube\tutorial\source\src\lsclient\encryptvalue.h
xdata$x	SEGMENT
__unwindtable$??0?$CEncrypt@M@@QAE@XZ DD 0ffffffffH
	DD	FLAT:__unwindfunclet$??0?$CEncrypt@M@@QAE@XZ$0
__ehfuncinfo$??0?$CEncrypt@M@@QAE@XZ DD 019930522H
	DD	01H
	DD	FLAT:__unwindtable$??0?$CEncrypt@M@@QAE@XZ
	DD	2 DUP(00H)
	DD	2 DUP(00H)
	DD	00H
	DD	01H
; Function compile flags: /Ogsp
xdata$x	ENDS
;	COMDAT ??0?$CEncrypt@M@@QAE@XZ
_TEXT	SEGMENT
_this$ = -16						; size = 4
__$EHRec$ = -12						; size = 12
??0?$CEncrypt@M@@QAE@XZ PROC				; CEncrypt<float>::CEncrypt<float>, COMDAT
; _this$ = ecx

; 109  : 	CEncrypt()

  00000	6a 04		 push	 4
  00002	b8 00 00 00 00	 mov	 eax, __ehhandler$??0?$CEncrypt@M@@QAE@XZ
  00007	e8 00 00 00 00	 call	 __EH_prolog3
  0000c	8b f1		 mov	 esi, ecx
  0000e	89 75 f0	 mov	 DWORD PTR _this$[ebp], esi
  00011	8d 4e 0c	 lea	 ecx, DWORD PTR [esi+12]
  00014	c7 06 00 00 00
	00		 mov	 DWORD PTR [esi], OFFSET ??_7?$CEncrypt@M@@6B@
  0001a	e8 00 00 00 00	 call	 ??0ccddaabb@@QAE@XZ	; ccddaabb::ccddaabb
  0001f	83 65 fc 00	 and	 DWORD PTR __$EHRec$[ebp+8], 0

; 110  : 	{
; 111  : 		Init();

  00023	8b ce		 mov	 ecx, esi
  00025	e8 00 00 00 00	 call	 ?Init@?$CEncrypt@M@@AAEXXZ ; CEncrypt<float>::Init

; 112  : 	}

  0002a	8b c6		 mov	 eax, esi
  0002c	e8 00 00 00 00	 call	 __EH_epilog3
  00031	c3		 ret	 0
_TEXT	ENDS
;	COMDAT text$x
text$x	SEGMENT
__unwindfunclet$??0?$CEncrypt@M@@QAE@XZ$0:
  00000	8b 4d f0	 mov	 ecx, DWORD PTR _this$[ebp]
  00003	83 c1 0c	 add	 ecx, 12			; 0000000cH
  00006	e9 00 00 00 00	 jmp	 ??1ccddaabb@@UAE@XZ	; ccddaabb::~ccddaabb
__ehhandler$??0?$CEncrypt@M@@QAE@XZ:
  0000b	8b 54 24 08	 mov	 edx, DWORD PTR [esp+8]
  0000f	8d 42 0c	 lea	 eax, DWORD PTR [edx+12]
  00012	8b 4a ec	 mov	 ecx, DWORD PTR [edx-20]
  00015	33 c8		 xor	 ecx, eax
  00017	e8 00 00 00 00	 call	 @__security_check_cookie@4
  0001c	b8 00 00 00 00	 mov	 eax, OFFSET __ehfuncinfo$??0?$CEncrypt@M@@QAE@XZ
  00021	e9 00 00 00 00	 jmp	 ___CxxFrameHandler3
text$x	ENDS
??0?$CEncrypt@M@@QAE@XZ ENDP				; CEncrypt<float>::CEncrypt<float>
PUBLIC	??B?$CEncrypt@M@@QAEMXZ				; CEncrypt<float>::operator float
; Function compile flags: /Ogsp
;	COMDAT ??B?$CEncrypt@M@@QAEMXZ
_TEXT	SEGMENT
_value$ = -4						; size = 4
??B?$CEncrypt@M@@QAEMXZ PROC				; CEncrypt<float>::operator float, COMDAT
; _this$ = ecx

; 134  : 	{

  00000	55		 push	 ebp
  00001	8b ec		 mov	 ebp, esp
  00003	51		 push	 ecx

; 135  : 		type value;
; 136  : 		DecryptValueToPool(&value);

  00004	8d 45 fc	 lea	 eax, DWORD PTR _value$[ebp]
  00007	50		 push	 eax
  00008	e8 00 00 00 00	 call	 ?DecryptValueToPool@?$CEncrypt@M@@QAEXPAM@Z ; CEncrypt<float>::DecryptValueToPool

; 137  : 
; 138  : #ifdef _NOTUSE
; 139  : 		Debug();
; 140  : #endif
; 141  : 		return value;

  0000d	d9 45 fc	 fld	 DWORD PTR _value$[ebp]

; 142  : 	}

  00010	c9		 leave
  00011	c3		 ret	 0
??B?$CEncrypt@M@@QAEMXZ ENDP				; CEncrypt<float>::operator float
_TEXT	ENDS
PUBLIC	??B?$CEncrypt@M@@QBEMXZ				; CEncrypt<float>::operator float
; Function compile flags: /Ogsp
;	COMDAT ??B?$CEncrypt@M@@QBEMXZ
_TEXT	SEGMENT
_value$ = -4						; size = 4
??B?$CEncrypt@M@@QBEMXZ PROC				; CEncrypt<float>::operator float, COMDAT
; _this$ = ecx

; 145  : 	{

  00000	55		 push	 ebp
  00001	8b ec		 mov	 ebp, esp
  00003	51		 push	 ecx

; 146  : 		//UJ 130829, const    --start
; 147  : 		type value;
; 148  : 		CEncrypt<type>* pThis = const_cast<CEncrypt<type>*>(this);
; 149  : 		pThis->DecryptValueToPool(&value);

  00004	8d 45 fc	 lea	 eax, DWORD PTR _value$[ebp]
  00007	50		 push	 eax
  00008	e8 00 00 00 00	 call	 ?DecryptValueToPool@?$CEncrypt@M@@QAEXPAM@Z ; CEncrypt<float>::DecryptValueToPool

; 150  : 		//// const DecryptValueToPool     .
; 151  :  		//type value;
; 152  : 		//char szTempMem[MAX_ENCRYPT];
; 153  : 		//m_RC5.DecryptByte( m_MemPool, szTempMem, max(m_ValueSize, DEFAULT_ENCRYPT) );
; 154  : 		//memcpy( &value, szTempMem, m_ValueSize );
; 155  : 		//UJ --end
; 156  : 
; 157  : #ifdef _NOTUSE
; 158  : 		Debug();
; 159  : #endif
; 160  : 		return value;

  0000d	d9 45 fc	 fld	 DWORD PTR _value$[ebp]

; 161  : 	}

  00010	c9		 leave
  00011	c3		 ret	 0
??B?$CEncrypt@M@@QBEMXZ ENDP				; CEncrypt<float>::operator float
_TEXT	ENDS
PUBLIC	??4?$CEncrypt@M@@QAEMM@Z			; CEncrypt<float>::operator=
; Function compile flags: /Ogsp
;	COMDAT ??4?$CEncrypt@M@@QAEMM@Z
_TEXT	SEGMENT
_value$ = 8						; size = 4
_inValue$ = 8						; size = 4
??4?$CEncrypt@M@@QAEMM@Z PROC				; CEncrypt<float>::operator=, COMDAT
; _this$ = ecx

; 1654 : 	{	

  00000	55		 push	 ebp
  00001	8b ec		 mov	 ebp, esp

; 1655 : 		type value = inValue;

  00003	d9 45 08	 fld	 DWORD PTR _inValue$[ebp]

; 1656 : 		EncryptValueToPool((char*)&value);

  00006	8d 45 08	 lea	 eax, DWORD PTR _value$[ebp]
  00009	50		 push	 eax
  0000a	d9 5d 08	 fstp	 DWORD PTR _value$[ebp]
  0000d	e8 00 00 00 00	 call	 ?EncryptValueToPool@?$CEncrypt@M@@AAEXPBD@Z ; CEncrypt<float>::EncryptValueToPool

; 1657 : #ifdef _NOTUSE
; 1658 : 		m_value = inValue;
; 1659 : 		Debug();
; 1660 : #endif
; 1661 : 		return value;

  00012	d9 45 08	 fld	 DWORD PTR _value$[ebp]

; 1662 : 	}

  00015	5d		 pop	 ebp
  00016	c2 04 00	 ret	 4
??4?$CEncrypt@M@@QAEMM@Z ENDP				; CEncrypt<float>::operator=
_TEXT	ENDS
PUBLIC	??Y?$CEncrypt@M@@QAEAAMABM@Z			; CEncrypt<float>::operator+=
; Function compile flags: /Ogsp
;	COMDAT ??Y?$CEncrypt@M@@QAEAAMABM@Z
_TEXT	SEGMENT
_value$ = -4						; size = 4
_inValue$ = 8						; size = 4
??Y?$CEncrypt@M@@QAEAAMABM@Z PROC			; CEncrypt<float>::operator+=, COMDAT
; _this$ = ecx

; 1715 : 	{

  00000	55		 push	 ebp
  00001	8b ec		 mov	 ebp, esp
  00003	51		 push	 ecx
  00004	56		 push	 esi

; 1716 : 		type value;
; 1717 : 		DecryptValueToPool(&value);

  00005	8d 45 fc	 lea	 eax, DWORD PTR _value$[ebp]
  00008	50		 push	 eax
  00009	8b f1		 mov	 esi, ecx
  0000b	e8 00 00 00 00	 call	 ?DecryptValueToPool@?$CEncrypt@M@@QAEXPAM@Z ; CEncrypt<float>::DecryptValueToPool

; 1718 : 		value += inValue;

  00010	8b 45 08	 mov	 eax, DWORD PTR _inValue$[ebp]
  00013	f3 0f 10 00	 movss	 xmm0, DWORD PTR [eax]
  00017	f3 0f 10 4d fc	 movss	 xmm1, DWORD PTR _value$[ebp]
  0001c	0f 5a c0	 cvtps2pd xmm0, xmm0
  0001f	0f 5a c9	 cvtps2pd xmm1, xmm1

; 1719 : 		EncryptValueToPool((char*)&value);

  00022	8d 45 fc	 lea	 eax, DWORD PTR _value$[ebp]
  00025	f2 0f 58 c1	 addsd	 xmm0, xmm1
  00029	66 0f 5a c0	 cvtpd2ps xmm0, xmm0
  0002d	50		 push	 eax
  0002e	8b ce		 mov	 ecx, esi
  00030	f3 0f 11 45 fc	 movss	 DWORD PTR _value$[ebp], xmm0
  00035	e8 00 00 00 00	 call	 ?EncryptValueToPool@?$CEncrypt@M@@AAEXPBD@Z ; CEncrypt<float>::EncryptValueToPool

; 1720 : #ifdef _NOTUSE
; 1721 : 		m_value += inValue;
; 1722 : 		Debug();
; 1723 : #endif
; 1724 : 		return value;

  0003a	8d 45 fc	 lea	 eax, DWORD PTR _value$[ebp]
  0003d	5e		 pop	 esi

; 1725 : 	} 

  0003e	c9		 leave
  0003f	c2 04 00	 ret	 4
??Y?$CEncrypt@M@@QAEAAMABM@Z ENDP			; CEncrypt<float>::operator+=
_TEXT	ENDS
PUBLIC	??Z?$CEncrypt@M@@QAEAAMABM@Z			; CEncrypt<float>::operator-=
; Function compile flags: /Ogsp
;	COMDAT ??Z?$CEncrypt@M@@QAEAAMABM@Z
_TEXT	SEGMENT
_value$ = -4						; size = 4
_inValue$ = 8						; size = 4
??Z?$CEncrypt@M@@QAEAAMABM@Z PROC			; CEncrypt<float>::operator-=, COMDAT
; _this$ = ecx

; 1728 : 	{

  00000	55		 push	 ebp
  00001	8b ec		 mov	 ebp, esp
  00003	51		 push	 ecx
  00004	56		 push	 esi

; 1729 : 		type value;
; 1730 : 		DecryptValueToPool(&value);

  00005	8d 45 fc	 lea	 eax, DWORD PTR _value$[ebp]
  00008	50		 push	 eax
  00009	8b f1		 mov	 esi, ecx
  0000b	e8 00 00 00 00	 call	 ?DecryptValueToPool@?$CEncrypt@M@@QAEXPAM@Z ; CEncrypt<float>::DecryptValueToPool

; 1731 : 		value -= inValue;

  00010	8b 45 08	 mov	 eax, DWORD PTR _inValue$[ebp]
  00013	f3 0f 10 45 fc	 movss	 xmm0, DWORD PTR _value$[ebp]
  00018	f3 0f 10 08	 movss	 xmm1, DWORD PTR [eax]
  0001c	0f 5a c0	 cvtps2pd xmm0, xmm0
  0001f	0f 5a c9	 cvtps2pd xmm1, xmm1

; 1732 : 		EncryptValueToPool((char*)&value);

  00022	8d 45 fc	 lea	 eax, DWORD PTR _value$[ebp]
  00025	f2 0f 5c c1	 subsd	 xmm0, xmm1
  00029	66 0f 5a c0	 cvtpd2ps xmm0, xmm0
  0002d	50		 push	 eax
  0002e	8b ce		 mov	 ecx, esi
  00030	f3 0f 11 45 fc	 movss	 DWORD PTR _value$[ebp], xmm0
  00035	e8 00 00 00 00	 call	 ?EncryptValueToPool@?$CEncrypt@M@@AAEXPBD@Z ; CEncrypt<float>::EncryptValueToPool

; 1733 : #ifdef _NOTUSE
; 1734 : 		m_value -= inValue;
; 1735 : 		Debug();
; 1736 : #endif
; 1737 : 		return value;

  0003a	8d 45 fc	 lea	 eax, DWORD PTR _value$[ebp]
  0003d	5e		 pop	 esi

; 1738 : 	} 

  0003e	c9		 leave
  0003f	c2 04 00	 ret	 4
??Z?$CEncrypt@M@@QAEAAMABM@Z ENDP			; CEncrypt<float>::operator-=
_TEXT	ENDS
PUBLIC	??B?$CEncrypt@K@@QAEKXZ				; CEncrypt<unsigned long>::operator unsigned long
; Function compile flags: /Ogsp
;	COMDAT ??B?$CEncrypt@K@@QAEKXZ
_TEXT	SEGMENT
_value$ = -4						; size = 4
??B?$CEncrypt@K@@QAEKXZ PROC				; CEncrypt<unsigned long>::operator unsigned long, COMDAT
; _this$ = ecx

; 134  : 	{

  00000	55		 push	 ebp
  00001	8b ec		 mov	 ebp, esp
  00003	51		 push	 ecx

; 135  : 		type value;
; 136  : 		DecryptValueToPool(&value);

  00004	8d 45 fc	 lea	 eax, DWORD PTR _value$[ebp]
  00007	50		 push	 eax
  00008	e8 00 00 00 00	 call	 ?DecryptValueToPool@?$CEncrypt@K@@QAEXPAK@Z ; CEncrypt<unsigned long>::DecryptValueToPool

; 137  : 
; 138  : #ifdef _NOTUSE
; 139  : 		Debug();
; 140  : #endif
; 141  : 		return value;

  0000d	8b 45 fc	 mov	 eax, DWORD PTR _value$[ebp]

; 142  : 	}

  00010	c9		 leave
  00011	c3		 ret	 0
??B?$CEncrypt@K@@QAEKXZ ENDP				; CEncrypt<unsigned long>::operator unsigned long
_TEXT	ENDS
PUBLIC	??B?$CEncrypt@_N@@QBE_NXZ			; CEncrypt<bool>::operator bool
; Function compile flags: /Ogsp
;	COMDAT ??B?$CEncrypt@_N@@QBE_NXZ
_TEXT	SEGMENT
_value$ = -1						; size = 1
??B?$CEncrypt@_N@@QBE_NXZ PROC				; CEncrypt<bool>::operator bool, COMDAT
; _this$ = ecx

; 145  : 	{

  00000	55		 push	 ebp
  00001	8b ec		 mov	 ebp, esp
  00003	51		 push	 ecx

; 146  : 		//UJ 130829, const    --start
; 147  : 		type value;
; 148  : 		CEncrypt<type>* pThis = const_cast<CEncrypt<type>*>(this);
; 149  : 		pThis->DecryptValueToPool(&value);

  00004	8d 45 ff	 lea	 eax, DWORD PTR _value$[ebp]
  00007	50		 push	 eax
  00008	e8 00 00 00 00	 call	 ?DecryptValueToPool@?$CEncrypt@_N@@QAEXPA_N@Z ; CEncrypt<bool>::DecryptValueToPool

; 150  : 		//// const DecryptValueToPool     .
; 151  :  		//type value;
; 152  : 		//char szTempMem[MAX_ENCRYPT];
; 153  : 		//m_RC5.DecryptByte( m_MemPool, szTempMem, max(m_ValueSize, DEFAULT_ENCRYPT) );
; 154  : 		//memcpy( &value, szTempMem, m_ValueSize );
; 155  : 		//UJ --end
; 156  : 
; 157  : #ifdef _NOTUSE
; 158  : 		Debug();
; 159  : #endif
; 160  : 		return value;

  0000d	8a 45 ff	 mov	 al, BYTE PTR _value$[ebp]

; 161  : 	}

  00010	c9		 leave
  00011	c3		 ret	 0
??B?$CEncrypt@_N@@QBE_NXZ ENDP				; CEncrypt<bool>::operator bool
_TEXT	ENDS
PUBLIC	?begin@?$vector@VioHashString@@V?$allocator@VioHashString@@@std@@@std@@QBE?AV?$_Vector_const_iterator@V?$_Vector_val@VioHashString@@V?$allocator@VioHashString@@@std@@@std@@@2@XZ ; std::vector<ioHashString,std::allocator<ioHashString> >::begin
; Function compile flags: /Ogsp
; File c:\program files (x86)\microsoft visual studio 10.0\vc\include\vector
;	COMDAT ?begin@?$vector@VioHashString@@V?$allocator@VioHashString@@@std@@@std@@QBE?AV?$_Vector_const_iterator@V?$_Vector_val@VioHashString@@V?$allocator@VioHashString@@@std@@@std@@@2@XZ
_TEXT	SEGMENT
___$ReturnUdt$ = 8					; size = 4
?begin@?$vector@VioHashString@@V?$allocator@VioHashString@@@std@@@std@@QBE?AV?$_Vector_const_iterator@V?$_Vector_val@VioHashString@@V?$allocator@VioHashString@@@std@@@std@@@2@XZ PROC ; std::vector<ioHashString,std::allocator<ioHashString> >::begin, COMDAT
; _this$ = ecx

; 786  : 		{	// return iterator for beginning of nonmutable sequence

  00000	55		 push	 ebp
  00001	8b ec		 mov	 ebp, esp

; 787  : 		return (const_iterator(this->_Myfirst, this));

  00003	8b 09		 mov	 ecx, DWORD PTR [ecx]
  00005	8b 45 08	 mov	 eax, DWORD PTR ___$ReturnUdt$[ebp]
  00008	89 08		 mov	 DWORD PTR [eax], ecx

; 788  : 		}

  0000a	5d		 pop	 ebp
  0000b	c2 04 00	 ret	 4
?begin@?$vector@VioHashString@@V?$allocator@VioHashString@@@std@@@std@@QBE?AV?$_Vector_const_iterator@V?$_Vector_val@VioHashString@@V?$allocator@VioHashString@@@std@@@std@@@2@XZ ENDP ; std::vector<ioHashString,std::allocator<ioHashString> >::begin
_TEXT	ENDS
PUBLIC	?end@?$vector@VioHashString@@V?$allocator@VioHashString@@@std@@@std@@QBE?AV?$_Vector_const_iterator@V?$_Vector_val@VioHashString@@V?$allocator@VioHashString@@@std@@@std@@@2@XZ ; std::vector<ioHashString,std::allocator<ioHashString> >::end
; Function compile flags: /Ogsp
;	COMDAT ?end@?$vector@VioHashString@@V?$allocator@VioHashString@@@std@@@std@@QBE?AV?$_Vector_const_iterator@V?$_Vector_val@VioHashString@@V?$allocator@VioHashString@@@std@@@std@@@2@XZ
_TEXT	SEGMENT
___$ReturnUdt$ = 8					; size = 4
?end@?$vector@VioHashString@@V?$allocator@VioHashString@@@std@@@std@@QBE?AV?$_Vector_const_iterator@V?$_Vector_val@VioHashString@@V?$allocator@VioHashString@@@std@@@std@@@2@XZ PROC ; std::vector<ioHashString,std::allocator<ioHashString> >::end, COMDAT
; _this$ = ecx

; 796  : 		{	// return iterator for end of nonmutable sequence

  00000	55		 push	 ebp
  00001	8b ec		 mov	 ebp, esp

; 797  : 		return (const_iterator(this->_Mylast, this));

  00003	8b 49 04	 mov	 ecx, DWORD PTR [ecx+4]
  00006	8b 45 08	 mov	 eax, DWORD PTR ___$ReturnUdt$[ebp]
  00009	89 08		 mov	 DWORD PTR [eax], ecx

; 798  : 		}

  0000b	5d		 pop	 ebp
  0000c	c2 04 00	 ret	 4
?end@?$vector@VioHashString@@V?$allocator@VioHashString@@@std@@@std@@QBE?AV?$_Vector_const_iterator@V?$_Vector_val@VioHashString@@V?$allocator@VioHashString@@@std@@@std@@@2@XZ ENDP ; std::vector<ioHashString,std::allocator<ioHashString> >::end
_TEXT	ENDS
PUBLIC	??0?$_Vector_val@VioHashString@@V?$allocator@VioHashString@@@std@@@std@@QAE@V?$allocator@VioHashString@@@1@@Z ; std::_Vector_val<ioHashString,std::allocator<ioHashString> >::_Vector_val<ioHashString,std::allocator<ioHashString> >
; Function compile flags: /Ogsp
;	COMDAT ??0?$_Vector_val@VioHashString@@V?$allocator@VioHashString@@@std@@@std@@QAE@V?$allocator@VioHashString@@@1@@Z
_TEXT	SEGMENT
__Al$ = 8						; size = 1
??0?$_Vector_val@VioHashString@@V?$allocator@VioHashString@@@std@@@std@@QAE@V?$allocator@VioHashString@@@1@@Z PROC ; std::_Vector_val<ioHashString,std::allocator<ioHashString> >::_Vector_val<ioHashString,std::allocator<ioHashString> >, COMDAT
; _this$ = ecx

; 426  : 		{	// construct allocator from _Al

  00000	8b c1		 mov	 eax, ecx

; 427  : 		_Myfirst = 0;

  00002	33 c9		 xor	 ecx, ecx
  00004	89 08		 mov	 DWORD PTR [eax], ecx

; 428  : 		_Mylast = 0;

  00006	89 48 04	 mov	 DWORD PTR [eax+4], ecx

; 429  : 		_Myend = 0;

  00009	89 48 08	 mov	 DWORD PTR [eax+8], ecx

; 430  : 		}

  0000c	c2 04 00	 ret	 4
??0?$_Vector_val@VioHashString@@V?$allocator@VioHashString@@@std@@@std@@QAE@V?$allocator@VioHashString@@@1@@Z ENDP ; std::_Vector_val<ioHashString,std::allocator<ioHashString> >::_Vector_val<ioHashString,std::allocator<ioHashString> >
_TEXT	ENDS
PUBLIC	??0?$_Vector_val@UWeaponInfo@@V?$allocator@UWeaponInfo@@@std@@@std@@QAE@V?$allocator@UWeaponInfo@@@1@@Z ; std::_Vector_val<WeaponInfo,std::allocator<WeaponInfo> >::_Vector_val<WeaponInfo,std::allocator<WeaponInfo> >
; Function compile flags: /Ogsp
;	COMDAT ??0?$_Vector_val@UWeaponInfo@@V?$allocator@UWeaponInfo@@@std@@@std@@QAE@V?$allocator@UWeaponInfo@@@1@@Z
_TEXT	SEGMENT
__Al$ = 8						; size = 1
??0?$_Vector_val@UWeaponInfo@@V?$allocator@UWeaponInfo@@@std@@@std@@QAE@V?$allocator@UWeaponInfo@@@1@@Z PROC ; std::_Vector_val<WeaponInfo,std::allocator<WeaponInfo> >::_Vector_val<WeaponInfo,std::allocator<WeaponInfo> >, COMDAT
; _this$ = ecx

; 426  : 		{	// construct allocator from _Al

  00000	8b c1		 mov	 eax, ecx

; 427  : 		_Myfirst = 0;

  00002	33 c9		 xor	 ecx, ecx
  00004	89 08		 mov	 DWORD PTR [eax], ecx

; 428  : 		_Mylast = 0;

  00006	89 48 04	 mov	 DWORD PTR [eax+4], ecx

; 429  : 		_Myend = 0;

  00009	89 48 08	 mov	 DWORD PTR [eax+8], ecx

; 430  : 		}

  0000c	c2 04 00	 ret	 4
??0?$_Vector_val@UWeaponInfo@@V?$allocator@UWeaponInfo@@@std@@@std@@QAE@V?$allocator@UWeaponInfo@@@1@@Z ENDP ; std::_Vector_val<WeaponInfo,std::allocator<WeaponInfo> >::_Vector_val<WeaponInfo,std::allocator<WeaponInfo> >
_TEXT	ENDS
PUBLIC	??0?$_Vector_val@UForceInfo@@V?$allocator@UForceInfo@@@std@@@std@@QAE@V?$allocator@UForceInfo@@@1@@Z ; std::_Vector_val<ForceInfo,std::allocator<ForceInfo> >::_Vector_val<ForceInfo,std::allocator<ForceInfo> >
; Function compile flags: /Ogsp
;	COMDAT ??0?$_Vector_val@UForceInfo@@V?$allocator@UForceInfo@@@std@@@std@@QAE@V?$allocator@UForceInfo@@@1@@Z
_TEXT	SEGMENT
__Al$ = 8						; size = 1
??0?$_Vector_val@UForceInfo@@V?$allocator@UForceInfo@@@std@@@std@@QAE@V?$allocator@UForceInfo@@@1@@Z PROC ; std::_Vector_val<ForceInfo,std::allocator<ForceInfo> >::_Vector_val<ForceInfo,std::allocator<ForceInfo> >, COMDAT
; _this$ = ecx

; 426  : 		{	// construct allocator from _Al

  00000	8b c1		 mov	 eax, ecx

; 427  : 		_Myfirst = 0;

  00002	33 c9		 xor	 ecx, ecx
  00004	89 08		 mov	 DWORD PTR [eax], ecx

; 428  : 		_Mylast = 0;

  00006	89 48 04	 mov	 DWORD PTR [eax+4], ecx

; 429  : 		_Myend = 0;

  00009	89 48 08	 mov	 DWORD PTR [eax+8], ecx

; 430  : 		}

  0000c	c2 04 00	 ret	 4
??0?$_Vector_val@UForceInfo@@V?$allocator@UForceInfo@@@std@@@std@@QAE@V?$allocator@UForceInfo@@@1@@Z ENDP ; std::_Vector_val<ForceInfo,std::allocator<ForceInfo> >::_Vector_val<ForceInfo,std::allocator<ForceInfo> >
_TEXT	ENDS
PUBLIC	?max_size@?$vector@VioHashString@@V?$allocator@VioHashString@@@std@@@std@@QBEIXZ ; std::vector<ioHashString,std::allocator<ioHashString> >::max_size
; Function compile flags: /Ogsp
;	COMDAT ?max_size@?$vector@VioHashString@@V?$allocator@VioHashString@@@std@@@std@@QBEIXZ
_TEXT	SEGMENT
?max_size@?$vector@VioHashString@@V?$allocator@VioHashString@@@std@@@std@@QBEIXZ PROC ; std::vector<ioHashString,std::allocator<ioHashString> >::max_size, COMDAT
; _this$ = ecx

; 884  : 		return (this->_Alval.max_size());

  00000	b8 ff ff ff 0f	 mov	 eax, 268435455		; 0fffffffH

; 885  : 		}

  00005	c3		 ret	 0
?max_size@?$vector@VioHashString@@V?$allocator@VioHashString@@@std@@@std@@QBEIXZ ENDP ; std::vector<ioHashString,std::allocator<ioHashString> >::max_size
_TEXT	ENDS
PUBLIC	?allocate@?$allocator@VioHashString@@@std@@QAEPAVioHashString@@I@Z ; std::allocator<ioHashString>::allocate
; Function compile flags: /Ogsp
; File c:\program files (x86)\microsoft visual studio 10.0\vc\include\xmemory
;	COMDAT ?allocate@?$allocator@VioHashString@@@std@@QAEPAVioHashString@@I@Z
_TEXT	SEGMENT
__Count$ = 8						; size = 4
?allocate@?$allocator@VioHashString@@@std@@QAEPAVioHashString@@I@Z PROC ; std::allocator<ioHashString>::allocate, COMDAT
; _this$ = ecx

; 186  : 		{	// allocate array of _Count elements

  00000	55		 push	 ebp
  00001	8b ec		 mov	 ebp, esp

; 187  : 		return (_Allocate(_Count, (pointer)0));

  00003	6a 00		 push	 0
  00005	ff 75 08	 push	 DWORD PTR __Count$[ebp]
  00008	e8 00 00 00 00	 call	 ??$_Allocate@VioHashString@@@std@@YAPAVioHashString@@IPAV1@@Z ; std::_Allocate<ioHashString>
  0000d	59		 pop	 ecx
  0000e	59		 pop	 ecx

; 188  : 		}

  0000f	5d		 pop	 ebp
  00010	c2 04 00	 ret	 4
?allocate@?$allocator@VioHashString@@@std@@QAEPAVioHashString@@I@Z ENDP ; std::allocator<ioHashString>::allocate
_TEXT	ENDS
PUBLIC	??8?$_Vector_const_iterator@V?$_Vector_val@VioHashString@@V?$allocator@VioHashString@@@std@@@std@@@std@@QBE_NABV01@@Z ; std::_Vector_const_iterator<std::_Vector_val<ioHashString,std::allocator<ioHashString> > >::operator==
; Function compile flags: /Ogsp
; File c:\program files (x86)\microsoft visual studio 10.0\vc\include\vector
;	COMDAT ??8?$_Vector_const_iterator@V?$_Vector_val@VioHashString@@V?$allocator@VioHashString@@@std@@@std@@@std@@QBE_NABV01@@Z
_TEXT	SEGMENT
__Right$ = 8						; size = 4
??8?$_Vector_const_iterator@V?$_Vector_val@VioHashString@@V?$allocator@VioHashString@@@std@@@std@@@std@@QBE_NABV01@@Z PROC ; std::_Vector_const_iterator<std::_Vector_val<ioHashString,std::allocator<ioHashString> > >::operator==, COMDAT
; _this$ = ecx

; 201  : 		{	// test for iterator equality

  00000	55		 push	 ebp
  00001	8b ec		 mov	 ebp, esp

; 202  : 		_Compat(_Right);
; 203  : 		return (this->_Ptr == _Right._Ptr);

  00003	8b 01		 mov	 eax, DWORD PTR [ecx]
  00005	8b 4d 08	 mov	 ecx, DWORD PTR __Right$[ebp]
  00008	2b 01		 sub	 eax, DWORD PTR [ecx]
  0000a	f7 d8		 neg	 eax
  0000c	1b c0		 sbb	 eax, eax
  0000e	40		 inc	 eax

; 204  : 		}

  0000f	5d		 pop	 ebp
  00010	c2 04 00	 ret	 4
??8?$_Vector_const_iterator@V?$_Vector_val@VioHashString@@V?$allocator@VioHashString@@@std@@@std@@@std@@QBE_NABV01@@Z ENDP ; std::_Vector_const_iterator<std::_Vector_val<ioHashString,std::allocator<ioHashString> > >::operator==
_TEXT	ENDS
PUBLIC	?max_size@?$vector@UWeaponInfo@@V?$allocator@UWeaponInfo@@@std@@@std@@QBEIXZ ; std::vector<WeaponInfo,std::allocator<WeaponInfo> >::max_size
; Function compile flags: /Ogsp
;	COMDAT ?max_size@?$vector@UWeaponInfo@@V?$allocator@UWeaponInfo@@@std@@@std@@QBEIXZ
_TEXT	SEGMENT
?max_size@?$vector@UWeaponInfo@@V?$allocator@UWeaponInfo@@@std@@@std@@QBEIXZ PROC ; std::vector<WeaponInfo,std::allocator<WeaponInfo> >::max_size, COMDAT
; _this$ = ecx

; 884  : 		return (this->_Alval.max_size());

  00000	b8 66 66 66 06	 mov	 eax, 107374182		; 06666666H

; 885  : 		}

  00005	c3		 ret	 0
?max_size@?$vector@UWeaponInfo@@V?$allocator@UWeaponInfo@@@std@@@std@@QBEIXZ ENDP ; std::vector<WeaponInfo,std::allocator<WeaponInfo> >::max_size
_TEXT	ENDS
PUBLIC	?allocate@?$allocator@UWeaponInfo@@@std@@QAEPAUWeaponInfo@@I@Z ; std::allocator<WeaponInfo>::allocate
; Function compile flags: /Ogsp
; File c:\program files (x86)\microsoft visual studio 10.0\vc\include\xmemory
;	COMDAT ?allocate@?$allocator@UWeaponInfo@@@std@@QAEPAUWeaponInfo@@I@Z
_TEXT	SEGMENT
__Count$ = 8						; size = 4
?allocate@?$allocator@UWeaponInfo@@@std@@QAEPAUWeaponInfo@@I@Z PROC ; std::allocator<WeaponInfo>::allocate, COMDAT
; _this$ = ecx

; 186  : 		{	// allocate array of _Count elements

  00000	55		 push	 ebp
  00001	8b ec		 mov	 ebp, esp

; 187  : 		return (_Allocate(_Count, (pointer)0));

  00003	6a 00		 push	 0
  00005	ff 75 08	 push	 DWORD PTR __Count$[ebp]
  00008	e8 00 00 00 00	 call	 ??$_Allocate@UWeaponInfo@@@std@@YAPAUWeaponInfo@@IPAU1@@Z ; std::_Allocate<WeaponInfo>
  0000d	59		 pop	 ecx
  0000e	59		 pop	 ecx

; 188  : 		}

  0000f	5d		 pop	 ebp
  00010	c2 04 00	 ret	 4
?allocate@?$allocator@UWeaponInfo@@@std@@QAEPAUWeaponInfo@@I@Z ENDP ; std::allocator<WeaponInfo>::allocate
_TEXT	ENDS
PUBLIC	?max_size@?$vector@UForceInfo@@V?$allocator@UForceInfo@@@std@@@std@@QBEIXZ ; std::vector<ForceInfo,std::allocator<ForceInfo> >::max_size
; Function compile flags: /Ogsp
; File c:\program files (x86)\microsoft visual studio 10.0\vc\include\vector
;	COMDAT ?max_size@?$vector@UForceInfo@@V?$allocator@UForceInfo@@@std@@@std@@QBEIXZ
_TEXT	SEGMENT
?max_size@?$vector@UForceInfo@@V?$allocator@UForceInfo@@@std@@@std@@QBEIXZ PROC ; std::vector<ForceInfo,std::allocator<ForceInfo> >::max_size, COMDAT
; _this$ = ecx

; 884  : 		return (this->_Alval.max_size());

  00000	b8 55 55 55 15	 mov	 eax, 357913941		; 15555555H

; 885  : 		}

  00005	c3		 ret	 0
?max_size@?$vector@UForceInfo@@V?$allocator@UForceInfo@@@std@@@std@@QBEIXZ ENDP ; std::vector<ForceInfo,std::allocator<ForceInfo> >::max_size
_TEXT	ENDS
PUBLIC	?allocate@?$allocator@UForceInfo@@@std@@QAEPAUForceInfo@@I@Z ; std::allocator<ForceInfo>::allocate
; Function compile flags: /Ogsp
; File c:\program files (x86)\microsoft visual studio 10.0\vc\include\xmemory
;	COMDAT ?allocate@?$allocator@UForceInfo@@@std@@QAEPAUForceInfo@@I@Z
_TEXT	SEGMENT
__Count$ = 8						; size = 4
?allocate@?$allocator@UForceInfo@@@std@@QAEPAUForceInfo@@I@Z PROC ; std::allocator<ForceInfo>::allocate, COMDAT
; _this$ = ecx

; 186  : 		{	// allocate array of _Count elements

  00000	55		 push	 ebp
  00001	8b ec		 mov	 ebp, esp

; 187  : 		return (_Allocate(_Count, (pointer)0));

  00003	6a 00		 push	 0
  00005	ff 75 08	 push	 DWORD PTR __Count$[ebp]
  00008	e8 00 00 00 00	 call	 ??$_Allocate@UForceInfo@@@std@@YAPAUForceInfo@@IPAU1@@Z ; std::_Allocate<ForceInfo>
  0000d	59		 pop	 ecx
  0000e	59		 pop	 ecx

; 188  : 		}

  0000f	5d		 pop	 ebp
  00010	c2 04 00	 ret	 4
?allocate@?$allocator@UForceInfo@@@std@@QAEPAUForceInfo@@I@Z ENDP ; std::allocator<ForceInfo>::allocate
_TEXT	ENDS
PUBLIC	??8?$_Vector_const_iterator@V?$_Vector_val@UWeaponInfo@@V?$allocator@UWeaponInfo@@@std@@@std@@@std@@QBE_NABV01@@Z ; std::_Vector_const_iterator<std::_Vector_val<WeaponInfo,std::allocator<WeaponInfo> > >::operator==
; Function compile flags: /Ogsp
; File c:\program files (x86)\microsoft visual studio 10.0\vc\include\vector
;	COMDAT ??8?$_Vector_const_iterator@V?$_Vector_val@UWeaponInfo@@V?$allocator@UWeaponInfo@@@std@@@std@@@std@@QBE_NABV01@@Z
_TEXT	SEGMENT
__Right$ = 8						; size = 4
??8?$_Vector_const_iterator@V?$_Vector_val@UWeaponInfo@@V?$allocator@UWeaponInfo@@@std@@@std@@@std@@QBE_NABV01@@Z PROC ; std::_Vector_const_iterator<std::_Vector_val<WeaponInfo,std::allocator<WeaponInfo> > >::operator==, COMDAT
; _this$ = ecx

; 201  : 		{	// test for iterator equality

  00000	55		 push	 ebp
  00001	8b ec		 mov	 ebp, esp

; 202  : 		_Compat(_Right);
; 203  : 		return (this->_Ptr == _Right._Ptr);

  00003	8b 01		 mov	 eax, DWORD PTR [ecx]
  00005	8b 4d 08	 mov	 ecx, DWORD PTR __Right$[ebp]
  00008	2b 01		 sub	 eax, DWORD PTR [ecx]
  0000a	f7 d8		 neg	 eax
  0000c	1b c0		 sbb	 eax, eax
  0000e	40		 inc	 eax

; 204  : 		}

  0000f	5d		 pop	 ebp
  00010	c2 04 00	 ret	 4
??8?$_Vector_const_iterator@V?$_Vector_val@UWeaponInfo@@V?$allocator@UWeaponInfo@@@std@@@std@@@std@@QBE_NABV01@@Z ENDP ; std::_Vector_const_iterator<std::_Vector_val<WeaponInfo,std::allocator<WeaponInfo> > >::operator==
_TEXT	ENDS
PUBLIC	??8?$_Vector_const_iterator@V?$_Vector_val@UForceInfo@@V?$allocator@UForceInfo@@@std@@@std@@@std@@QBE_NABV01@@Z ; std::_Vector_const_iterator<std::_Vector_val<ForceInfo,std::allocator<ForceInfo> > >::operator==
; Function compile flags: /Ogsp
;	COMDAT ??8?$_Vector_const_iterator@V?$_Vector_val@UForceInfo@@V?$allocator@UForceInfo@@@std@@@std@@@std@@QBE_NABV01@@Z
_TEXT	SEGMENT
__Right$ = 8						; size = 4
??8?$_Vector_const_iterator@V?$_Vector_val@UForceInfo@@V?$allocator@UForceInfo@@@std@@@std@@@std@@QBE_NABV01@@Z PROC ; std::_Vector_const_iterator<std::_Vector_val<ForceInfo,std::allocator<ForceInfo> > >::operator==, COMDAT
; _this$ = ecx

; 201  : 		{	// test for iterator equality

  00000	55		 push	 ebp
  00001	8b ec		 mov	 ebp, esp

; 202  : 		_Compat(_Right);
; 203  : 		return (this->_Ptr == _Right._Ptr);

  00003	8b 01		 mov	 eax, DWORD PTR [ecx]
  00005	8b 4d 08	 mov	 ecx, DWORD PTR __Right$[ebp]
  00008	2b 01		 sub	 eax, DWORD PTR [ecx]
  0000a	f7 d8		 neg	 eax
  0000c	1b c0		 sbb	 eax, eax
  0000e	40		 inc	 eax

; 204  : 		}

  0000f	5d		 pop	 ebp
  00010	c2 04 00	 ret	 4
??8?$_Vector_const_iterator@V?$_Vector_val@UForceInfo@@V?$allocator@UForceInfo@@@std@@@std@@@std@@QBE_NABV01@@Z ENDP ; std::_Vector_const_iterator<std::_Vector_val<ForceInfo,std::allocator<ForceInfo> > >::operator==
_TEXT	ENDS
PUBLIC	?destroy@?$allocator@UForceInfo@@@std@@QAEXPAUForceInfo@@@Z ; std::allocator<ForceInfo>::destroy
; Function compile flags: /Ogsp
; File c:\program files (x86)\microsoft visual studio 10.0\vc\include\xmemory
;	COMDAT ?destroy@?$allocator@UForceInfo@@@std@@QAEXPAUForceInfo@@@Z
_TEXT	SEGMENT
__Ptr$ = 8						; size = 4
?destroy@?$allocator@UForceInfo@@@std@@QAEXPAUForceInfo@@@Z PROC ; std::allocator<ForceInfo>::destroy, COMDAT
; _this$ = ecx

; 213  : 		_Destroy(_Ptr);
; 214  : 		}

  00000	c2 04 00	 ret	 4
?destroy@?$allocator@UForceInfo@@@std@@QAEXPAUForceInfo@@@Z ENDP ; std::allocator<ForceInfo>::destroy
_TEXT	ENDS
PUBLIC	??$_Destroy@VioHashString@@@std@@YAXPAVioHashString@@@Z ; std::_Destroy<ioHashString>
; Function compile flags: /Ogsp
;	COMDAT ??$_Destroy@VioHashString@@@std@@YAXPAVioHashString@@@Z
_TEXT	SEGMENT
__Ptr$ = 8						; size = 4
??$_Destroy@VioHashString@@@std@@YAXPAVioHashString@@@Z PROC ; std::_Destroy<ioHashString>, COMDAT

; 62   : 	{	// destroy object at _Ptr

  00000	55		 push	 ebp
  00001	8b ec		 mov	 ebp, esp

; 63   : 	_Ptr->~_Ty();

  00003	8b 4d 08	 mov	 ecx, DWORD PTR __Ptr$[ebp]

; 64   : 	}

  00006	5d		 pop	 ebp

; 63   : 	_Ptr->~_Ty();

  00007	ff 25 00 00 00
	00		 jmp	 DWORD PTR __imp_??1ioHashString@@QAE@XZ
??$_Destroy@VioHashString@@@std@@YAXPAVioHashString@@@Z ENDP ; std::_Destroy<ioHashString>
_TEXT	ENDS
PUBLIC	??$_Destroy@UWeaponInfo@@@std@@YAXPAUWeaponInfo@@@Z ; std::_Destroy<WeaponInfo>
; Function compile flags: /Ogsp
;	COMDAT ??$_Destroy@UWeaponInfo@@@std@@YAXPAUWeaponInfo@@@Z
_TEXT	SEGMENT
__Ptr$ = 8						; size = 4
??$_Destroy@UWeaponInfo@@@std@@YAXPAUWeaponInfo@@@Z PROC ; std::_Destroy<WeaponInfo>, COMDAT

; 62   : 	{	// destroy object at _Ptr

  00000	55		 push	 ebp
  00001	8b ec		 mov	 ebp, esp

; 63   : 	_Ptr->~_Ty();

  00003	8b 4d 08	 mov	 ecx, DWORD PTR __Ptr$[ebp]
  00006	83 c1 08	 add	 ecx, 8

; 64   : 	}

  00009	5d		 pop	 ebp

; 63   : 	_Ptr->~_Ty();

  0000a	ff 25 00 00 00
	00		 jmp	 DWORD PTR __imp_??1ioHashString@@QAE@XZ
??$_Destroy@UWeaponInfo@@@std@@YAXPAUWeaponInfo@@@Z ENDP ; std::_Destroy<WeaponInfo>
_TEXT	ENDS
PUBLIC	?construct@?$allocator@VioHashString@@@std@@QAEXPAVioHashString@@ABV3@@Z ; std::allocator<ioHashString>::construct
; Function compile flags: /Ogsp
;	COMDAT ?construct@?$allocator@VioHashString@@@std@@QAEXPAVioHashString@@ABV3@@Z
_TEXT	SEGMENT
__Ptr$ = 8						; size = 4
__Val$ = 12						; size = 4
?construct@?$allocator@VioHashString@@@std@@QAEXPAVioHashString@@ABV3@@Z PROC ; std::allocator<ioHashString>::construct, COMDAT
; _this$ = ecx

; 196  : 		{	// construct object at _Ptr with value _Val

  00000	55		 push	 ebp
  00001	8b ec		 mov	 ebp, esp

; 197  : 		_Construct(_Ptr, _Val);

  00003	ff 75 0c	 push	 DWORD PTR __Val$[ebp]
  00006	ff 75 08	 push	 DWORD PTR __Ptr$[ebp]
  00009	e8 00 00 00 00	 call	 ??$_Construct@VioHashString@@ABV1@@std@@YAXPAVioHashString@@ABV1@@Z ; std::_Construct<ioHashString,ioHashString const &>
  0000e	59		 pop	 ecx
  0000f	59		 pop	 ecx

; 198  : 		}

  00010	5d		 pop	 ebp
  00011	c2 08 00	 ret	 8
?construct@?$allocator@VioHashString@@@std@@QAEXPAVioHashString@@ABV3@@Z ENDP ; std::allocator<ioHashString>::construct
_TEXT	ENDS
PUBLIC	?IsPrisonerMode@ioBaseChar@@QBE_NXZ		; ioBaseChar::IsPrisonerMode
; Function compile flags: /Ogsp
; File d:\lost saga for developer\youtube\tutorial\source\src\lsclient\iobasechar.h
;	COMDAT ?IsPrisonerMode@ioBaseChar@@QBE_NXZ
_TEXT	SEGMENT
_value$555477 = -1					; size = 1
?IsPrisonerMode@ioBaseChar@@QBE_NXZ PROC		; ioBaseChar::IsPrisonerMode, COMDAT
; _this$ = ecx

; 2130 : 	inline bool IsPrisonerMode() const { return m_bPrisonerMode; }

  00000	55		 push	 ebp
  00001	8b ec		 mov	 ebp, esp
  00003	51		 push	 ecx
  00004	8d 45 ff	 lea	 eax, DWORD PTR _value$555477[ebp]
  00007	50		 push	 eax
  00008	81 c1 cc 14 00
	00		 add	 ecx, 5324		; 000014ccH
  0000e	e8 00 00 00 00	 call	 ?DecryptValueToPool@?$CEncrypt@_N@@QAEXPA_N@Z ; CEncrypt<bool>::DecryptValueToPool
  00013	8a 45 ff	 mov	 al, BYTE PTR _value$555477[ebp]
  00016	c9		 leave
  00017	c3		 ret	 0
?IsPrisonerMode@ioBaseChar@@QBE_NXZ ENDP		; ioBaseChar::IsPrisonerMode
_TEXT	ENDS
PUBLIC	?GetBlowWoundedState@ioBaseChar@@QBE?AW4BlowWoundedState@@XZ ; ioBaseChar::GetBlowWoundedState
; Function compile flags: /Ogsp
;	COMDAT ?GetBlowWoundedState@ioBaseChar@@QBE?AW4BlowWoundedState@@XZ
_TEXT	SEGMENT
_value$555483 = -4					; size = 4
?GetBlowWoundedState@ioBaseChar@@QBE?AW4BlowWoundedState@@XZ PROC ; ioBaseChar::GetBlowWoundedState, COMDAT
; _this$ = ecx

; 2161 : 	inline BlowWoundedState GetBlowWoundedState() const { return m_BlowState; }

  00000	55		 push	 ebp
  00001	8b ec		 mov	 ebp, esp
  00003	51		 push	 ecx
  00004	8d 45 fc	 lea	 eax, DWORD PTR _value$555483[ebp]
  00007	50		 push	 eax
  00008	81 c1 58 0f 00
	00		 add	 ecx, 3928		; 00000f58H
  0000e	e8 00 00 00 00	 call	 ?DecryptValueToPool@?$CEncrypt@W4BlowWoundedState@@@@QAEXPAW4BlowWoundedState@@@Z ; CEncrypt<enum BlowWoundedState>::DecryptValueToPool
  00013	8b 45 fc	 mov	 eax, DWORD PTR _value$555483[ebp]
  00016	c9		 leave
  00017	c3		 ret	 0
?GetBlowWoundedState@ioBaseChar@@QBE?AW4BlowWoundedState@@XZ ENDP ; ioBaseChar::GetBlowWoundedState
_TEXT	ENDS
PUBLIC	?SetNormalAttack@ioLeeSunSin@@UAEXPAVioBaseChar@@H@Z ; ioLeeSunSin::SetNormalAttack
EXTRN	?SetAttackMoveEnable@ioBaseChar@@QAEX_N@Z:PROC	; ioBaseChar::SetAttackMoveEnable
; Function compile flags: /Ogsp
; File d:\lost saga for developer\youtube\tutorial\source\src\lsclient\ioleesunsin.cpp
;	COMDAT ?SetNormalAttack@ioLeeSunSin@@UAEXPAVioBaseChar@@H@Z
_TEXT	SEGMENT
tv164 = -8						; size = 8
_iAniID$ = 8						; size = 4
_pOwner$ = 8						; size = 4
tv211 = 12						; size = 4
tv204 = 12						; size = 4
_value$555497 = 12					; size = 4
_fTimeRate$ = 12					; size = 4
_iCurCombo$ = 12					; size = 4
?SetNormalAttack@ioLeeSunSin@@UAEXPAVioBaseChar@@H@Z PROC ; ioLeeSunSin::SetNormalAttack, COMDAT
; _this$ = ecx

; 180  : {

  00000	55		 push	 ebp
  00001	8b ec		 mov	 ebp, esp
  00003	51		 push	 ecx
  00004	51		 push	 ecx
  00005	56		 push	 esi
  00006	57		 push	 edi

; 181  : 	if( !pOwner )

  00007	8b 7d 08	 mov	 edi, DWORD PTR _pOwner$[ebp]
  0000a	8b f1		 mov	 esi, ecx
  0000c	85 ff		 test	 edi, edi
  0000e	0f 84 11 01 00
	00		 je	 $LN2@SetNormalA

; 182  : 		return;
; 183  : 
; 184  : 	ClearCancelInfo();

  00014	8b 06		 mov	 eax, DWORD PTR [esi]
  00016	53		 push	 ebx
  00017	ff 90 3c 02 00
	00		 call	 DWORD PTR [eax+572]

; 185  : 
; 186  : 	m_ChargeState		= CS_CHARGING;

  0001d	33 db		 xor	 ebx, ebx
  0001f	43		 inc	 ebx
  00020	89 9e 54 19 00
	00		 mov	 DWORD PTR [esi+6484], ebx

; 187  : 	m_dwAttackStartTime	= FRAMEGETTIME();

  00026	ff 15 00 00 00
	00		 call	 DWORD PTR __imp_?GetSingleton@ioFrameTimer@@SAAAV1@XZ
  0002c	8b c8		 mov	 ecx, eax
  0002e	ff 15 00 00 00
	00		 call	 DWORD PTR __imp_?GetLoopSec@ioFrameTimer@@QBEKXZ
  00034	89 86 5c 19 00
	00		 mov	 DWORD PTR [esi+6492], eax

; 188  : 	m_iCurCombo			= iCurCombo;

  0003a	8b 45 0c	 mov	 eax, DWORD PTR _iCurCombo$[ebp]

; 189  : 
; 190  : 	pOwner->SetState( CS_ATTACK );

  0003d	53		 push	 ebx
  0003e	6a 05		 push	 5
  00040	8b cf		 mov	 ecx, edi
  00042	89 86 60 19 00
	00		 mov	 DWORD PTR [esi+6496], eax
  00048	e8 00 00 00 00	 call	 ?SetState@ioBaseChar@@QAEXH_N@Z ; ioBaseChar::SetState

; 191  : 	pOwner->SetChargingState( false );
; 192  : 	pOwner->SetAttackMoveEnable( false );

  0004d	6a 00		 push	 0
  0004f	8b cf		 mov	 ecx, edi
  00051	c6 87 54 20 00
	00 00		 mov	 BYTE PTR [edi+8276], 0
  00058	e8 00 00 00 00	 call	 ?SetAttackMoveEnable@ioBaseChar@@QAEX_N@Z ; ioBaseChar::SetAttackMoveEnable

; 193  : 
; 194  : 	ioEntityGroup *pGrp = pOwner->GetGroup();

  0005d	8b 7f 04	 mov	 edi, DWORD PTR [edi+4]

; 195  : 	pGrp->ClearAllActionAni( 100.0f, true );

  00060	f3 0f 10 05 00
	00 00 00	 movss	 xmm0, DWORD PTR __real@42c80000
  00068	53		 push	 ebx
  00069	51		 push	 ecx
  0006a	8b cf		 mov	 ecx, edi
  0006c	f3 0f 11 04 24	 movss	 DWORD PTR [esp], xmm0
  00071	ff 15 00 00 00
	00		 call	 DWORD PTR __imp_?ClearAllActionAni@ioEntityGroup@@QAEXM_N@Z

; 196  : 	pGrp->ClearAllLoopAni( 100.0f, true );

  00077	f3 0f 10 05 00
	00 00 00	 movss	 xmm0, DWORD PTR __real@42c80000
  0007f	53		 push	 ebx
  00080	51		 push	 ecx
  00081	8b cf		 mov	 ecx, edi
  00083	f3 0f 11 04 24	 movss	 DWORD PTR [esp], xmm0
  00088	ff 15 00 00 00
	00		 call	 DWORD PTR __imp_?ClearAllLoopAni@ioEntityGroup@@QAEXM_N@Z

; 197  : 
; 198  : 	int iAniID = pGrp->GetAnimationIdx( m_PreGatherAnimation );

  0008e	8d 86 c4 19 00
	00		 lea	 eax, DWORD PTR [esi+6596]
  00094	50		 push	 eax
  00095	8b cf		 mov	 ecx, edi
  00097	ff 15 00 00 00
	00		 call	 DWORD PTR __imp_?GetAnimationIdx@ioEntityGroup@@QAEHABVioHashString@@@Z
  0009d	89 45 08	 mov	 DWORD PTR _iAniID$[ebp], eax

; 199  : 	float fTimeRate = (float)m_dwChargeTime / pGrp->GetAnimationFullTime( iAniID );

  000a0	8d 45 0c	 lea	 eax, DWORD PTR _value$555497[ebp]
  000a3	50		 push	 eax
  000a4	8d 8e b0 18 00
	00		 lea	 ecx, DWORD PTR [esi+6320]
  000aa	e8 00 00 00 00	 call	 ?DecryptValueToPool@?$CEncrypt@K@@QAEXPAK@Z ; CEncrypt<unsigned long>::DecryptValueToPool
  000af	db 45 0c	 fild	 DWORD PTR _value$555497[ebp]
  000b2	8b 45 0c	 mov	 eax, DWORD PTR _value$555497[ebp]
  000b5	85 c0		 test	 eax, eax
  000b7	79 06		 jns	 SHORT $LN10@SetNormalA
  000b9	d8 05 00 00 00
	00		 fadd	 DWORD PTR __real@4f800000
$LN10@SetNormalA:
  000bf	ff 75 08	 push	 DWORD PTR _iAniID$[ebp]
  000c2	dd 5d f8	 fstp	 QWORD PTR tv164[ebp]
  000c5	8b cf		 mov	 ecx, edi
  000c7	ff 15 00 00 00
	00		 call	 DWORD PTR __imp_?GetAnimationFullTime@ioEntityGroup@@QAEMH@Z
  000cd	dc 7d f8	 fdivr	 QWORD PTR tv164[ebp]

; 200  : 	pGrp->SetActionAni( iAniID, 100.0f, 100.0f, 1.0f, 1.0f/fTimeRate, 0.0f, 0.0f, true );

  000d0	0f 57 c0	 xorps	 xmm0, xmm0
  000d3	53		 push	 ebx
  000d4	53		 push	 ebx
  000d5	83 ec 18	 sub	 esp, 24			; 00000018H
  000d8	f3 0f 11 44 24
	14		 movss	 DWORD PTR [esp+20], xmm0
  000de	f3 0f 11 44 24
	10		 movss	 DWORD PTR [esp+16], xmm0
  000e4	f3 0f 10 05 00
	00 00 00	 movss	 xmm0, DWORD PTR __real@3f800000
  000ec	8b cf		 mov	 ecx, edi
  000ee	d9 5d 0c	 fstp	 DWORD PTR _fTimeRate$[ebp]
  000f1	d9 45 0c	 fld	 DWORD PTR _fTimeRate$[ebp]
  000f4	d9 e8		 fld1
  000f6	de f1		 fdivrp	 ST(1), ST(0)
  000f8	d9 5d 0c	 fstp	 DWORD PTR tv204[ebp]
  000fb	d9 45 0c	 fld	 DWORD PTR tv204[ebp]
  000fe	d9 5c 24 0c	 fstp	 DWORD PTR [esp+12]
  00102	f3 0f 11 44 24
	08		 movss	 DWORD PTR [esp+8], xmm0
  00108	f3 0f 10 05 00
	00 00 00	 movss	 xmm0, DWORD PTR __real@42c80000
  00110	f3 0f 11 44 24
	04		 movss	 DWORD PTR [esp+4], xmm0
  00116	f3 0f 11 04 24	 movss	 DWORD PTR [esp], xmm0
  0011b	ff 75 08	 push	 DWORD PTR _iAniID$[ebp]
  0011e	ff 15 00 00 00
	00		 call	 DWORD PTR __imp_?SetActionAni@ioEntityGroup@@QAE_NHMMMMMM_N0@Z
  00124	5b		 pop	 ebx
$LN2@SetNormalA:
  00125	5f		 pop	 edi
  00126	5e		 pop	 esi

; 201  : }

  00127	c9		 leave
  00128	c2 08 00	 ret	 8
?SetNormalAttack@ioLeeSunSin@@UAEXPAVioBaseChar@@H@Z ENDP ; ioLeeSunSin::SetNormalAttack
_TEXT	ENDS
PUBLIC	__real@41f0000000000000
PUBLIC	_dwReserve$GSCopy$
PUBLIC	_pOwner$GSCopy$
PUBLIC	?SetAttack@ioLeeSunSin@@QAEXPAVioBaseChar@@PBUAttackAttribute@@_N2AAK3@Z ; ioLeeSunSin::SetAttack
EXTRN	?SetExtendAttackEndJumpInfo@ioBaseChar@@QAEXHMK@Z:PROC ; ioBaseChar::SetExtendAttackEndJumpInfo
EXTRN	?SetBaseAttackExtraAniJump@ioBaseChar@@QAEXHMK@Z:PROC ; ioBaseChar::SetBaseAttackExtraAniJump
EXTRN	?SetAutoTargetTrackingEndTime@ioBaseChar@@QAEXK@Z:PROC ; ioBaseChar::SetAutoTargetTrackingEndTime
EXTRN	__imp_??4ioHashString@@QAEAAV0@ABV0@@Z:PROC
EXTRN	?SetNormalAttackByAttribute@ioBaseChar@@QAEKABUAttackAttribute@@_NMM@Z:PROC ; ioBaseChar::SetNormalAttackByAttribute
;	COMDAT __real@41f0000000000000
; File d:\lost saga for developer\youtube\tutorial\source\src\lsclient\stringprotect.h
CONST	SEGMENT
__real@41f0000000000000 DQ 041f0000000000000r	; 4.29497e+009
CONST	ENDS
;	COMDAT xdata$x
xdata$x	SEGMENT
__unwindtable$?SetAttack@ioLeeSunSin@@QAEXPAVioBaseChar@@PBUAttackAttribute@@_N2AAK3@Z DD 0ffffffffH
	DD	FLAT:__unwindfunclet$?SetAttack@ioLeeSunSin@@QAEXPAVioBaseChar@@PBUAttackAttribute@@_N2AAK3@Z$0
	DD	0ffffffffH
	DD	FLAT:__unwindfunclet$?SetAttack@ioLeeSunSin@@QAEXPAVioBaseChar@@PBUAttackAttribute@@_N2AAK3@Z$1
__ehfuncinfo$?SetAttack@ioLeeSunSin@@QAEXPAVioBaseChar@@PBUAttackAttribute@@_N2AAK3@Z DD 019930522H
	DD	02H
	DD	FLAT:__unwindtable$?SetAttack@ioLeeSunSin@@QAEXPAVioBaseChar@@PBUAttackAttribute@@_N2AAK3@Z
	DD	2 DUP(00H)
	DD	2 DUP(00H)
	DD	00H
	DD	01H
; Function compile flags: /Ogsp
; File d:\lost saga for developer\youtube\tutorial\source\src\lsclient\ioleesunsin.cpp
xdata$x	ENDS
;	COMDAT ?SetAttack@ioLeeSunSin@@QAEXPAVioBaseChar@@PBUAttackAttribute@@_N2AAK3@Z
_TEXT	SEGMENT
$T555753 = -112						; size = 16
$T555623 = -96						; size = 16
tv1685 = -80						; size = 4
_dwPreDelay$ = -76					; size = 4
tv2040 = -72						; size = 4
tv2032 = -72						; size = 4
$T555622 = -72						; size = 4
_dwCurTime$ = -68					; size = 4
tv2011 = -64						; size = 4
_dwReserve$GSCopy$ = -64				; size = 4
$T555752 = -64						; size = 4
_iAniID$ = -60						; size = 4
_fTimeRate$ = -56					; size = 4
_pOwner$GSCopy$ = -52					; size = 4
_szEncEventType$555653 = -48				; size = 11
_szEncEventType$555523 = -32				; size = 12
__$EHRec$ = -12						; size = 12
_pOwner$ = 8						; size = 4
_pAttribute$ = 12					; size = 4
_bExtra$ = 16						; size = 1
_bAutoTarget$ = 20					; size = 1
_dwAttackEnd$ = 24					; size = 4
_dwReserve$ = 28					; size = 4
?SetAttack@ioLeeSunSin@@QAEXPAVioBaseChar@@PBUAttackAttribute@@_N2AAK3@Z PROC ; ioLeeSunSin::SetAttack, COMDAT
; _this$ = ecx

; 240  : {

  00000	6a 64		 push	 100			; 00000064H
  00002	b8 00 00 00 00	 mov	 eax, __ehhandler$?SetAttack@ioLeeSunSin@@QAEXPAVioBaseChar@@PBUAttackAttribute@@_N2AAK3@Z
  00007	e8 00 00 00 00	 call	 __EH_prolog3_GS
  0000c	8b 45 08	 mov	 eax, DWORD PTR _pOwner$[ebp]
  0000f	8b 75 0c	 mov	 esi, DWORD PTR _pAttribute$[ebp]
  00012	8b 5d 18	 mov	 ebx, DWORD PTR _dwAttackEnd$[ebp]

; 241  : 	if( !pAttribute )
; 242  : 		return;
; 243  : 
; 244  : 	DWORD dwCurTime = FRAMEGETTIME();

  00015	89 45 cc	 mov	 DWORD PTR _pOwner$GSCopy$[ebp], eax
  00018	8b 45 1c	 mov	 eax, DWORD PTR _dwReserve$[ebp]
  0001b	8b f9		 mov	 edi, ecx
  0001d	89 45 c0	 mov	 DWORD PTR _dwReserve$GSCopy$[ebp], eax
  00020	85 f6		 test	 esi, esi
  00022	0f 84 26 02 00
	00		 je	 $LN1@SetAttack
  00028	ff 15 00 00 00
	00		 call	 DWORD PTR __imp_?GetSingleton@ioFrameTimer@@SAAAV1@XZ
  0002e	8b c8		 mov	 ecx, eax
  00030	ff 15 00 00 00
	00		 call	 DWORD PTR __imp_?GetLoopSec@ioFrameTimer@@QBEKXZ

; 245  : 	pOwner->SetNormalAttackByAttribute( *pAttribute );

  00036	f3 0f 10 05 00
	00 00 00	 movss	 xmm0, DWORD PTR __real@3f800000
  0003e	51		 push	 ecx
  0003f	51		 push	 ecx
  00040	8b 4d cc	 mov	 ecx, DWORD PTR _pOwner$GSCopy$[ebp]
  00043	f3 0f 11 44 24
	04		 movss	 DWORD PTR [esp+4], xmm0
  00049	f3 0f 11 04 24	 movss	 DWORD PTR [esp], xmm0
  0004e	6a 01		 push	 1
  00050	56		 push	 esi
  00051	89 45 bc	 mov	 DWORD PTR _dwCurTime$[ebp], eax
  00054	e8 00 00 00 00	 call	 ?SetNormalAttackByAttribute@ioBaseChar@@QAEKABUAttackAttribute@@_NMM@Z ; ioBaseChar::SetNormalAttackByAttribute

; 246  : 
; 247  : 	m_szCurAni					= pAttribute->m_AttackAnimation;

  00059	56		 push	 esi
  0005a	8d 8f 10 0f 00
	00		 lea	 ecx, DWORD PTR [edi+3856]
  00060	ff 15 00 00 00
	00		 call	 DWORD PTR __imp_??4ioHashString@@QAEAAV0@ABV0@@Z

; 248  : 	m_fCurAniRate				= pAttribute->m_fAttackAniRate;

  00066	d9 46 10	 fld	 DWORD PTR [esi+16]

; 249  : 	m_dwInputCancelCheckTime	= dwCurTime;

  00069	8b 45 bc	 mov	 eax, DWORD PTR _dwCurTime$[ebp]
  0006c	d9 9f 20 0f 00
	00		 fstp	 DWORD PTR [edi+3872]
  00072	89 87 0c 0f 00
	00		 mov	 DWORD PTR [edi+3852], eax

; 250  : 	m_dwCancelCheckTime			= dwCurTime;

  00078	89 87 08 0f 00
	00		 mov	 DWORD PTR [edi+3848], eax

; 251  : 
; 252  : 	ioEntityGroup* pGrp	= pOwner->GetGroup();

  0007e	8b 45 cc	 mov	 eax, DWORD PTR _pOwner$GSCopy$[ebp]
  00081	8b 78 04	 mov	 edi, DWORD PTR [eax+4]

; 253  : 	int iAniID			= pGrp->GetAnimationIdx( pAttribute->m_AttackAnimation );

  00084	56		 push	 esi
  00085	8b cf		 mov	 ecx, edi
  00087	ff 15 00 00 00
	00		 call	 DWORD PTR __imp_?GetAnimationIdx@ioEntityGroup@@QAEHABVioHashString@@@Z

; 254  : 	float fTimeRate		= pAttribute->m_fAttackAniRate;

  0008d	d9 46 10	 fld	 DWORD PTR [esi+16]

; 255  : 	DWORD dwPreDelay	= pAttribute->m_dwPreDelay;	

  00090	8b 76 48	 mov	 esi, DWORD PTR [esi+72]
  00093	d9 5d c8	 fstp	 DWORD PTR _fTimeRate$[ebp]

; 256  : 	dwAttackEnd			= dwCurTime;

  00096	8b 4d bc	 mov	 ecx, DWORD PTR _dwCurTime$[ebp]

; 257  : 	dwAttackEnd			+= pGrp->GetAnimationFullTime( iAniID ) * fTimeRate + dwPreDelay;

  00099	89 75 b8	 mov	 DWORD PTR tv2040[ebp], esi
  0009c	db 45 b8	 fild	 DWORD PTR tv2040[ebp]
  0009f	89 45 c4	 mov	 DWORD PTR _iAniID$[ebp], eax
  000a2	89 75 b4	 mov	 DWORD PTR _dwPreDelay$[ebp], esi
  000a5	89 0b		 mov	 DWORD PTR [ebx], ecx
  000a7	85 f6		 test	 esi, esi
  000a9	79 06		 jns	 SHORT $LN233@SetAttack
  000ab	d8 05 00 00 00
	00		 fadd	 DWORD PTR __real@4f800000
$LN233@SetAttack:
  000b1	50		 push	 eax
  000b2	d9 5d b0	 fstp	 DWORD PTR tv1685[ebp]
  000b5	8b cf		 mov	 ecx, edi
  000b7	ff 15 00 00 00
	00		 call	 DWORD PTR __imp_?GetAnimationFullTime@ioEntityGroup@@QAEMH@Z
  000bd	d8 4d c8	 fmul	 DWORD PTR _fTimeRate$[ebp]
  000c0	8b 03		 mov	 eax, DWORD PTR [ebx]
  000c2	d8 45 b0	 fadd	 DWORD PTR tv1685[ebp]
  000c5	db 03		 fild	 DWORD PTR [ebx]
  000c7	85 c0		 test	 eax, eax
  000c9	79 06		 jns	 SHORT $LN234@SetAttack
  000cb	dc 05 00 00 00
	00		 fadd	 QWORD PTR __real@41f0000000000000
$LN234@SetAttack:
  000d1	de c1		 faddp	 ST(1), ST(0)
  000d3	e8 00 00 00 00	 call	 __ftol2
  000d8	6a 02		 push	 2
  000da	89 03		 mov	 DWORD PTR [ebx], eax

; 258  : 
; 259  : 	dwReserve = pGrp->GetAnimationEventTime_e( iAniID, "key_reserve" ) * fTimeRate + dwPreDelay;

  000dc	c7 45 e0 86 89
	92 b5		 mov	 DWORD PTR _szEncEventType$555523[ebp], -1248687738 ; b5928986H
  000e3	c7 45 e4 9f 89
	98 8f		 mov	 DWORD PTR _szEncEventType$555523[ebp+4], -1885828705 ; 8f98899fH
  000ea	8d 45 e0	 lea	 eax, DWORD PTR _szEncEventType$555523[ebp]
  000ed	c7 45 e8 9f 9a
	8e 00		 mov	 DWORD PTR _szEncEventType$555523[ebp+8], 9345695 ; 008e9a9fH
  000f4	59		 pop	 ecx
$LL113@SetAttack:
  000f5	81 30 ed ec eb
	ea		 xor	 DWORD PTR [eax], -353637139 ; eaebecedH
  000fb	83 c0 04	 add	 eax, 4
  000fe	49		 dec	 ecx
  000ff	75 f4		 jne	 SHORT $LL113@SetAttack
  00101	6a 08		 push	 8
  00103	58		 pop	 eax
$LL110@SetAttack:
  00104	8b c8		 mov	 ecx, eax
  00106	81 e1 03 00 00
	80		 and	 ecx, -2147483645	; 80000003H
  0010c	79 05		 jns	 SHORT $LN235@SetAttack
  0010e	49		 dec	 ecx
  0010f	83 c9 fc	 or	 ecx, -4			; fffffffcH
  00112	41		 inc	 ecx
$LN235@SetAttack:
  00113	b2 ed		 mov	 dl, -19			; ffffffedH
  00115	2a d1		 sub	 dl, cl
  00117	30 54 05 e0	 xor	 BYTE PTR _szEncEventType$555523[ebp+eax], dl
  0011b	40		 inc	 eax
  0011c	83 f8 0b	 cmp	 eax, 11			; 0000000bH
  0011f	7c e3		 jl	 SHORT $LL110@SetAttack
  00121	8b 1d 00 00 00
	00		 mov	 ebx, DWORD PTR __imp_??0ioHashString@@QAE@PBD@Z
  00127	8d 45 e0	 lea	 eax, DWORD PTR _szEncEventType$555523[ebp]
  0012a	50		 push	 eax
  0012b	8d 4d a0	 lea	 ecx, DWORD PTR $T555623[ebp]
  0012e	ff d3		 call	 ebx
  00130	83 65 fc 00	 and	 DWORD PTR __$EHRec$[ebp+8], 0
  00134	8d 45 a0	 lea	 eax, DWORD PTR $T555623[ebp]
  00137	50		 push	 eax
  00138	ff 75 c4	 push	 DWORD PTR _iAniID$[ebp]
  0013b	8b cf		 mov	 ecx, edi
  0013d	ff 15 00 00 00
	00		 call	 DWORD PTR __imp_?GetAnimationEventTime@ioEntityGroup@@QAEMHABVioHashString@@@Z
  00143	d9 5d b8	 fstp	 DWORD PTR $T555622[ebp]
  00146	8b 35 00 00 00
	00		 mov	 esi, DWORD PTR __imp_??1ioHashString@@QAE@XZ
  0014c	83 4d fc ff	 or	 DWORD PTR __$EHRec$[ebp+8], -1
  00150	8d 4d a0	 lea	 ecx, DWORD PTR $T555623[ebp]
  00153	ff d6		 call	 esi
  00155	d9 45 b8	 fld	 DWORD PTR $T555622[ebp]
  00158	d8 4d c8	 fmul	 DWORD PTR _fTimeRate$[ebp]
  0015b	d8 45 b0	 fadd	 DWORD PTR tv1685[ebp]
  0015e	e8 00 00 00 00	 call	 __ftol2
  00163	8b 4d c0	 mov	 ecx, DWORD PTR _dwReserve$GSCopy$[ebp]
  00166	89 01		 mov	 DWORD PTR [ecx], eax

; 260  : 	if( dwReserve > 0 )

  00168	85 c0		 test	 eax, eax
  0016a	74 05		 je	 SHORT $LN3@SetAttack

; 261  : 		dwReserve += dwCurTime;

  0016c	03 45 bc	 add	 eax, DWORD PTR _dwCurTime$[ebp]
  0016f	89 01		 mov	 DWORD PTR [ecx], eax
$LN3@SetAttack:

; 262  : 
; 263  : 	if( bAutoTarget )

  00171	80 7d 14 00	 cmp	 BYTE PTR _bAutoTarget$[ebp], 0
  00175	0f 84 9b 00 00
	00		 je	 $LN2@SetAttack

; 264  : 	{
; 265  : 		DWORD dwTrackingTime = dwCurTime + pGrp->GetAnimationEventTime_e( iAniID, "tracking_e" ) * fTimeRate;

  0017b	6a 02		 push	 2
  0017d	c7 45 d0 99 9e
	8a 89		 mov	 DWORD PTR _szEncEventType$555653[ebp], -1987404135 ; 898a9e99H
  00184	c7 45 d4 86 85
	85 8d		 mov	 DWORD PTR _szEncEventType$555653[ebp+4], -1920629370 ; 8d858586H
  0018b	66 c7 45 d8 b2
	89		 mov	 WORD PTR _szEncEventType$555653[ebp+8], 35250 ; 000089b2H
  00191	8d 45 d0	 lea	 eax, DWORD PTR _szEncEventType$555653[ebp]
  00194	c6 45 da 00	 mov	 BYTE PTR _szEncEventType$555653[ebp+10], 0
  00198	59		 pop	 ecx
$LL220@SetAttack:
  00199	81 30 ed ec eb
	ea		 xor	 DWORD PTR [eax], -353637139 ; eaebecedH
  0019f	83 c0 04	 add	 eax, 4
  001a2	49		 dec	 ecx
  001a3	75 f4		 jne	 SHORT $LL220@SetAttack
  001a5	6a 08		 push	 8
  001a7	58		 pop	 eax
$LL217@SetAttack:
  001a8	8b c8		 mov	 ecx, eax
  001aa	81 e1 03 00 00
	80		 and	 ecx, -2147483645	; 80000003H
  001b0	79 05		 jns	 SHORT $LN236@SetAttack
  001b2	49		 dec	 ecx
  001b3	83 c9 fc	 or	 ecx, -4			; fffffffcH
  001b6	41		 inc	 ecx
$LN236@SetAttack:
  001b7	b2 ed		 mov	 dl, -19			; ffffffedH
  001b9	2a d1		 sub	 dl, cl
  001bb	30 54 05 d0	 xor	 BYTE PTR _szEncEventType$555653[ebp+eax], dl
  001bf	40		 inc	 eax
  001c0	83 f8 0a	 cmp	 eax, 10			; 0000000aH
  001c3	7c e3		 jl	 SHORT $LL217@SetAttack
  001c5	8d 45 d0	 lea	 eax, DWORD PTR _szEncEventType$555653[ebp]
  001c8	50		 push	 eax
  001c9	8d 4d 90	 lea	 ecx, DWORD PTR $T555753[ebp]
  001cc	ff d3		 call	 ebx
  001ce	8d 45 90	 lea	 eax, DWORD PTR $T555753[ebp]
  001d1	50		 push	 eax
  001d2	ff 75 c4	 push	 DWORD PTR _iAniID$[ebp]
  001d5	8b cf		 mov	 ecx, edi
  001d7	c7 45 fc 01 00
	00 00		 mov	 DWORD PTR __$EHRec$[ebp+8], 1
  001de	ff 15 00 00 00
	00		 call	 DWORD PTR __imp_?GetAnimationEventTime@ioEntityGroup@@QAEMHABVioHashString@@@Z
  001e4	d9 5d c0	 fstp	 DWORD PTR $T555752[ebp]
  001e7	83 4d fc ff	 or	 DWORD PTR __$EHRec$[ebp+8], -1
  001eb	8d 4d 90	 lea	 ecx, DWORD PTR $T555753[ebp]
  001ee	ff d6		 call	 esi

; 266  : 		pOwner->SetAutoTargetTrackingEndTime( dwTrackingTime );

  001f0	d9 45 c0	 fld	 DWORD PTR $T555752[ebp]
  001f3	8b 45 bc	 mov	 eax, DWORD PTR _dwCurTime$[ebp]
  001f6	d8 4d c8	 fmul	 DWORD PTR _fTimeRate$[ebp]
  001f9	db 45 bc	 fild	 DWORD PTR _dwCurTime$[ebp]
  001fc	85 c0		 test	 eax, eax
  001fe	79 06		 jns	 SHORT $LN237@SetAttack
  00200	d8 05 00 00 00
	00		 fadd	 DWORD PTR __real@4f800000
$LN237@SetAttack:

; 264  : 	{
; 265  : 		DWORD dwTrackingTime = dwCurTime + pGrp->GetAnimationEventTime_e( iAniID, "tracking_e" ) * fTimeRate;

  00206	de c1		 faddp	 ST(1), ST(0)

; 266  : 		pOwner->SetAutoTargetTrackingEndTime( dwTrackingTime );

  00208	e8 00 00 00 00	 call	 __ftol2
  0020d	8b 4d cc	 mov	 ecx, DWORD PTR _pOwner$GSCopy$[ebp]
  00210	50		 push	 eax
  00211	e8 00 00 00 00	 call	 ?SetAutoTargetTrackingEndTime@ioBaseChar@@QAEXK@Z ; ioBaseChar::SetAutoTargetTrackingEndTime
$LN2@SetAttack:

; 267  : 	}
; 268  : 
; 269  : 	if( bExtra )

  00216	80 7d 10 00	 cmp	 BYTE PTR _bExtra$[ebp], 0
  0021a	74 32		 je	 SHORT $LN1@SetAttack

; 270  : 	{
; 271  : 		pOwner->SetBaseAttackExtraAniJump( iAniID, fTimeRate, dwPreDelay );

  0021c	ff 75 b4	 push	 DWORD PTR _dwPreDelay$[ebp]
  0021f	f3 0f 10 45 c8	 movss	 xmm0, DWORD PTR _fTimeRate$[ebp]
  00224	51		 push	 ecx
  00225	8b 4d cc	 mov	 ecx, DWORD PTR _pOwner$GSCopy$[ebp]
  00228	f3 0f 11 04 24	 movss	 DWORD PTR [esp], xmm0
  0022d	ff 75 c4	 push	 DWORD PTR _iAniID$[ebp]
  00230	e8 00 00 00 00	 call	 ?SetBaseAttackExtraAniJump@ioBaseChar@@QAEXHMK@Z ; ioBaseChar::SetBaseAttackExtraAniJump

; 272  : 		pOwner->SetExtendAttackEndJumpInfo( iAniID, fTimeRate, dwPreDelay );

  00235	ff 75 b4	 push	 DWORD PTR _dwPreDelay$[ebp]
  00238	f3 0f 10 45 c8	 movss	 xmm0, DWORD PTR _fTimeRate$[ebp]
  0023d	51		 push	 ecx
  0023e	8b 4d cc	 mov	 ecx, DWORD PTR _pOwner$GSCopy$[ebp]
  00241	f3 0f 11 04 24	 movss	 DWORD PTR [esp], xmm0
  00246	ff 75 c4	 push	 DWORD PTR _iAniID$[ebp]
  00249	e8 00 00 00 00	 call	 ?SetExtendAttackEndJumpInfo@ioBaseChar@@QAEXHMK@Z ; ioBaseChar::SetExtendAttackEndJumpInfo
$LN1@SetAttack:

; 273  : 	}
; 274  : }

  0024e	e8 00 00 00 00	 call	 __EH_epilog3_GS
  00253	c2 18 00	 ret	 24			; 00000018H
_TEXT	ENDS
;	COMDAT text$x
text$x	SEGMENT
__unwindfunclet$?SetAttack@ioLeeSunSin@@QAEXPAVioBaseChar@@PBUAttackAttribute@@_N2AAK3@Z$0:
  00000	8d 4d a0	 lea	 ecx, DWORD PTR $T555623[ebp]
  00003	ff 25 00 00 00
	00		 jmp	 DWORD PTR __imp_??1ioHashString@@QAE@XZ
__unwindfunclet$?SetAttack@ioLeeSunSin@@QAEXPAVioBaseChar@@PBUAttackAttribute@@_N2AAK3@Z$1:
  00009	8d 4d 90	 lea	 ecx, DWORD PTR $T555753[ebp]
  0000c	ff 25 00 00 00
	00		 jmp	 DWORD PTR __imp_??1ioHashString@@QAE@XZ
__ehhandler$?SetAttack@ioLeeSunSin@@QAEXPAVioBaseChar@@PBUAttackAttribute@@_N2AAK3@Z:
  00012	8b 54 24 08	 mov	 edx, DWORD PTR [esp+8]
  00016	8d 42 0c	 lea	 eax, DWORD PTR [edx+12]
  00019	8b 4a 8c	 mov	 ecx, DWORD PTR [edx-116]
  0001c	33 c8		 xor	 ecx, eax
  0001e	e8 00 00 00 00	 call	 @__security_check_cookie@4
  00023	8b 4a fc	 mov	 ecx, DWORD PTR [edx-4]
  00026	33 c8		 xor	 ecx, eax
  00028	e8 00 00 00 00	 call	 @__security_check_cookie@4
  0002d	b8 00 00 00 00	 mov	 eax, OFFSET __ehfuncinfo$?SetAttack@ioLeeSunSin@@QAEXPAVioBaseChar@@PBUAttackAttribute@@_N2AAK3@Z
  00032	e9 00 00 00 00	 jmp	 ___CxxFrameHandler3
text$x	ENDS
?SetAttack@ioLeeSunSin@@QAEXPAVioBaseChar@@PBUAttackAttribute@@_N2AAK3@Z ENDP ; ioLeeSunSin::SetAttack
PUBLIC	__$ArrayPad$
PUBLIC	?ChangeToAttackFire@ioLeeSunSin@@IAEXPAVioBaseChar@@@Z ; ioLeeSunSin::ChangeToAttackFire
EXTRN	??6SP2Packet@@QAEAAV0@H@Z:PROC			; SP2Packet::operator<<
EXTRN	?ApplyNormalAttackResult@ioBaseChar@@QAEXH_N@Z:PROC ; ioBaseChar::ApplyNormalAttackResult
EXTRN	?GetAttribute@ioFormalAttackGrp@@QBEPBUAttackAttribute@@W4AttackType@@H@Z:PROC ; ioFormalAttackGrp::GetAttribute
EXTRN	?InitExtendAttackTagInfo@ioBaseChar@@QAEXXZ:PROC ; ioBaseChar::InitExtendAttackTagInfo
;	COMDAT xdata$x
; File d:\lost saga for developer\youtube\tutorial\source\src\lsclient\iobasechar.h
xdata$x	SEGMENT
__unwindtable$?ChangeToAttackFire@ioLeeSunSin@@IAEXPAVioBaseChar@@@Z DD 0ffffffffH
	DD	FLAT:__unwindfunclet$?ChangeToAttackFire@ioLeeSunSin@@IAEXPAVioBaseChar@@@Z$0
__ehfuncinfo$?ChangeToAttackFire@ioLeeSunSin@@IAEXPAVioBaseChar@@@Z DD 019930522H
	DD	01H
	DD	FLAT:__unwindtable$?ChangeToAttackFire@ioLeeSunSin@@IAEXPAVioBaseChar@@@Z
	DD	2 DUP(00H)
	DD	2 DUP(00H)
	DD	00H
	DD	01H
; Function compile flags: /Ogsp
; File d:\lost saga for developer\youtube\tutorial\source\src\lsclient\ioleesunsin.cpp
xdata$x	ENDS
;	COMDAT ?ChangeToAttackFire@ioLeeSunSin@@IAEXPAVioBaseChar@@@Z
_TEXT	SEGMENT
_dwKeyRserve$ = -32816					; size = 4
_dwEndTime$ = -32812					; size = 4
_kPacket$549641 = -32808				; size = 32792
__$ArrayPad$ = -16					; size = 4
__$EHRec$ = -12						; size = 12
_pOwner$ = 8						; size = 4
?ChangeToAttackFire@ioLeeSunSin@@IAEXPAVioBaseChar@@@Z PROC ; ioLeeSunSin::ChangeToAttackFire, COMDAT
; _this$ = ecx

; 277  : {

  00000	55		 push	 ebp
  00001	8b ec		 mov	 ebp, esp
  00003	6a ff		 push	 -1
  00005	68 00 00 00 00	 push	 __ehhandler$?ChangeToAttackFire@ioLeeSunSin@@IAEXPAVioBaseChar@@@Z
  0000a	64 a1 00 00 00
	00		 mov	 eax, DWORD PTR fs:0
  00010	50		 push	 eax
  00011	b8 24 80 00 00	 mov	 eax, 32804		; 00008024H
  00016	e8 00 00 00 00	 call	 __chkstk
  0001b	a1 00 00 00 00	 mov	 eax, DWORD PTR ___security_cookie
  00020	33 c5		 xor	 eax, ebp
  00022	89 45 f0	 mov	 DWORD PTR __$ArrayPad$[ebp], eax
  00025	53		 push	 ebx
  00026	56		 push	 esi
  00027	57		 push	 edi
  00028	50		 push	 eax
  00029	8d 45 f4	 lea	 eax, DWORD PTR __$EHRec$[ebp]
  0002c	64 a3 00 00 00
	00		 mov	 DWORD PTR fs:0, eax
  00032	8b 7d 08	 mov	 edi, DWORD PTR _pOwner$[ebp]

; 278  : 	if( !pOwner )

  00035	33 db		 xor	 ebx, ebx
  00037	8b f1		 mov	 esi, ecx
  00039	3b fb		 cmp	 edi, ebx
  0003b	0f 84 fc 00 00
	00		 je	 $LN1@ChangeToAt

; 279  : 		return;
; 280  : 
; 281  : 	m_GatherState	= GS_NONE;

  00041	89 9e 58 19 00
	00		 mov	 DWORD PTR [esi+6488], ebx

; 282  : 	DWORD dwCurTime	= FRAMEGETTIME();

  00047	ff 15 00 00 00
	00		 call	 DWORD PTR __imp_?GetSingleton@ioFrameTimer@@SAAAV1@XZ
  0004d	8b c8		 mov	 ecx, eax
  0004f	ff 15 00 00 00
	00		 call	 DWORD PTR __imp_?GetLoopSec@ioFrameTimer@@QBEKXZ

; 283  : 	pOwner->InitExtendAttackTagInfo();

  00055	8b cf		 mov	 ecx, edi
  00057	e8 00 00 00 00	 call	 ?InitExtendAttackTagInfo@ioBaseChar@@QAEXXZ ; ioBaseChar::InitExtendAttackTagInfo

; 284  : 
; 285  : 	ClearCancelInfo();

  0005c	8b 06		 mov	 eax, DWORD PTR [esi]
  0005e	8b ce		 mov	 ecx, esi
  00060	ff 90 3c 02 00
	00		 call	 DWORD PTR [eax+572]

; 286  : 	ClearKeyReserve();

  00066	8b 06		 mov	 eax, DWORD PTR [esi]
  00068	8b ce		 mov	 ecx, esi
  0006a	ff 90 a8 01 00
	00		 call	 DWORD PTR [eax+424]

; 287  : 
; 288  : 	DWORD dwEndTime		= 0;
; 289  : 	DWORD dwKeyRserve	= 0;
; 290  : 	const AttackAttribute *pAttribute = m_FormalAttack.GetAttribute( AT_NORMAL, m_iCurCombo );

  00070	ff b6 60 19 00
	00		 push	 DWORD PTR [esi+6496]
  00076	8d 8e 2c 06 00
	00		 lea	 ecx, DWORD PTR [esi+1580]
  0007c	53		 push	 ebx
  0007d	89 9d d4 7f ff
	ff		 mov	 DWORD PTR _dwEndTime$[ebp], ebx
  00083	89 9d d0 7f ff
	ff		 mov	 DWORD PTR _dwKeyRserve$[ebp], ebx
  00089	e8 00 00 00 00	 call	 ?GetAttribute@ioFormalAttackGrp@@QBEPBUAttackAttribute@@W4AttackType@@H@Z ; ioFormalAttackGrp::GetAttribute

; 291  : 	SetAttack( pOwner, pAttribute, false, true, dwEndTime, dwKeyRserve );

  0008e	8d 8d d0 7f ff
	ff		 lea	 ecx, DWORD PTR _dwKeyRserve$[ebp]
  00094	51		 push	 ecx
  00095	8d 8d d4 7f ff
	ff		 lea	 ecx, DWORD PTR _dwEndTime$[ebp]
  0009b	51		 push	 ecx
  0009c	6a 01		 push	 1
  0009e	53		 push	 ebx
  0009f	50		 push	 eax
  000a0	57		 push	 edi
  000a1	8b ce		 mov	 ecx, esi
  000a3	e8 00 00 00 00	 call	 ?SetAttack@ioLeeSunSin@@QAEXPAVioBaseChar@@PBUAttackAttribute@@_N2AAK3@Z ; ioLeeSunSin::SetAttack

; 292  : 
; 293  : 	pOwner->ApplyNormalAttackResult( m_iCurCombo );

  000a8	53		 push	 ebx
  000a9	ff b6 60 19 00
	00		 push	 DWORD PTR [esi+6496]
  000af	8b cf		 mov	 ecx, edi
  000b1	e8 00 00 00 00	 call	 ?ApplyNormalAttackResult@ioBaseChar@@QAEXH_N@Z ; ioBaseChar::ApplyNormalAttackResult

; 294  : 	m_ChargeState = CS_ATTACK_FIRE;

  000b6	c7 86 54 19 00
	00 02 00 00 00	 mov	 DWORD PTR [esi+6484], 2

; 295  : 
; 296  : 	if( pOwner->IsNeedSendNetwork() )

  000c0	8b 07		 mov	 eax, DWORD PTR [edi]
  000c2	8b cf		 mov	 ecx, edi
  000c4	ff 90 04 01 00
	00		 call	 DWORD PTR [eax+260]
  000ca	84 c0		 test	 al, al
  000cc	74 6f		 je	 SHORT $LN1@ChangeToAt

; 297  : 	{
; 298  : 		SP2Packet kPacket( CUPK_ITEM_GAUGE_OK );

  000ce	68 27 41 00 00	 push	 16679			; 00004127H
  000d3	8d 8d d8 7f ff
	ff		 lea	 ecx, DWORD PTR _kPacket$549641[ebp]
  000d9	e8 00 00 00 00	 call	 ??0SP2Packet@@QAE@K@Z	; SP2Packet::SP2Packet

; 299  : 		FillItemGaugePacketHeader( pOwner, kPacket );

  000de	8d 85 d8 7f ff
	ff		 lea	 eax, DWORD PTR _kPacket$549641[ebp]
  000e4	50		 push	 eax
  000e5	57		 push	 edi
  000e6	8b ce		 mov	 ecx, esi
  000e8	89 5d fc	 mov	 DWORD PTR __$EHRec$[ebp+8], ebx
  000eb	e8 00 00 00 00	 call	 ?FillItemGaugePacketHeader@ioAttackableItem@@QAEXPAVioBaseChar@@AAVSP2Packet@@@Z ; ioAttackableItem::FillItemGaugePacketHeader

; 300  : 		kPacket << static_cast<byte>( SS_ATTACK_FIRE );

  000f0	53		 push	 ebx
  000f1	8d 8d d8 7f ff
	ff		 lea	 ecx, DWORD PTR _kPacket$549641[ebp]
  000f7	e8 00 00 00 00	 call	 ??6SP2Packet@@QAEAAV0@E@Z ; SP2Packet::operator<<

; 301  : 		kPacket << pOwner->GetTargetRot();

  000fc	81 c7 a4 06 00
	00		 add	 edi, 1700		; 000006a4H
  00102	57		 push	 edi
  00103	8d 8d d8 7f ff
	ff		 lea	 ecx, DWORD PTR _kPacket$549641[ebp]
  00109	e8 00 00 00 00	 call	 ??6SP2Packet@@QAEAAV0@ABUD3DXQUATERNION@@@Z ; SP2Packet::operator<<

; 302  : 		kPacket << m_iCurCombo;

  0010e	ff b6 60 19 00
	00		 push	 DWORD PTR [esi+6496]
  00114	8d 8d d8 7f ff
	ff		 lea	 ecx, DWORD PTR _kPacket$549641[ebp]
  0011a	e8 00 00 00 00	 call	 ??6SP2Packet@@QAEAAV0@H@Z ; SP2Packet::operator<<

; 303  : 		P2PNetwork::SendToAllPlayingUser( kPacket );

  0011f	8d 85 d8 7f ff
	ff		 lea	 eax, DWORD PTR _kPacket$549641[ebp]
  00125	53		 push	 ebx
  00126	50		 push	 eax
  00127	e8 00 00 00 00	 call	 ?SendToAllPlayingUser@P2PNetwork@@YAXAAVSP2Packet@@PAVioBaseChar@@@Z ; P2PNetwork::SendToAllPlayingUser

; 304  : 	}

  0012c	83 4d fc ff	 or	 DWORD PTR __$EHRec$[ebp+8], -1
  00130	59		 pop	 ecx
  00131	59		 pop	 ecx
  00132	8d 8d d8 7f ff
	ff		 lea	 ecx, DWORD PTR _kPacket$549641[ebp]
  00138	e8 00 00 00 00	 call	 ??1SP2Packet@@UAE@XZ	; SP2Packet::~SP2Packet
$LN1@ChangeToAt:

; 305  : }

  0013d	8b 4d f4	 mov	 ecx, DWORD PTR __$EHRec$[ebp]
  00140	64 89 0d 00 00
	00 00		 mov	 DWORD PTR fs:0, ecx
  00147	59		 pop	 ecx
  00148	5f		 pop	 edi
  00149	5e		 pop	 esi
  0014a	5b		 pop	 ebx
  0014b	8b 4d f0	 mov	 ecx, DWORD PTR __$ArrayPad$[ebp]
  0014e	33 cd		 xor	 ecx, ebp
  00150	e8 00 00 00 00	 call	 @__security_check_cookie@4
  00155	c9		 leave
  00156	c2 04 00	 ret	 4
_TEXT	ENDS
;	COMDAT text$x
text$x	SEGMENT
__unwindfunclet$?ChangeToAttackFire@ioLeeSunSin@@IAEXPAVioBaseChar@@@Z$0:
  00000	8d 8d d8 7f ff
	ff		 lea	 ecx, DWORD PTR _kPacket$549641[ebp]
  00006	e9 00 00 00 00	 jmp	 ??1SP2Packet@@UAE@XZ	; SP2Packet::~SP2Packet
__ehhandler$?ChangeToAttackFire@ioLeeSunSin@@IAEXPAVioBaseChar@@@Z:
  0000b	8b 54 24 08	 mov	 edx, DWORD PTR [esp+8]
  0000f	8d 42 0c	 lea	 eax, DWORD PTR [edx+12]
  00012	8b 8a cc 7f ff
	ff		 mov	 ecx, DWORD PTR [edx-32820]
  00018	33 c8		 xor	 ecx, eax
  0001a	e8 00 00 00 00	 call	 @__security_check_cookie@4
  0001f	8b 4a fc	 mov	 ecx, DWORD PTR [edx-4]
  00022	33 c8		 xor	 ecx, eax
  00024	e8 00 00 00 00	 call	 @__security_check_cookie@4
  00029	b8 00 00 00 00	 mov	 eax, OFFSET __ehfuncinfo$?ChangeToAttackFire@ioLeeSunSin@@IAEXPAVioBaseChar@@@Z
  0002e	e9 00 00 00 00	 jmp	 ___CxxFrameHandler3
text$x	ENDS
?ChangeToAttackFire@ioLeeSunSin@@IAEXPAVioBaseChar@@@Z ENDP ; ioLeeSunSin::ChangeToAttackFire
PUBLIC	?OnCharging@ioLeeSunSin@@IAEXPAVioBaseChar@@@Z	; ioLeeSunSin::OnCharging
; Function compile flags: /Ogsp
;	COMDAT ?OnCharging@ioLeeSunSin@@IAEXPAVioBaseChar@@@Z
_TEXT	SEGMENT
_value$555811 = 8					; size = 4
_pOwner$ = 8						; size = 4
?OnCharging@ioLeeSunSin@@IAEXPAVioBaseChar@@@Z PROC	; ioLeeSunSin::OnCharging, COMDAT
; _this$ = ecx

; 310  : {

  00000	55		 push	 ebp
  00001	8b ec		 mov	 ebp, esp
  00003	56		 push	 esi
  00004	57		 push	 edi

; 311  : 	if( !pOwner || !pOwner->IsNeedProcess() )

  00005	8b 7d 08	 mov	 edi, DWORD PTR _pOwner$[ebp]
  00008	8b f1		 mov	 esi, ecx
  0000a	85 ff		 test	 edi, edi
  0000c	74 55		 je	 SHORT $LN4@OnCharging
  0000e	8b 07		 mov	 eax, DWORD PTR [edi]
  00010	8b cf		 mov	 ecx, edi
  00012	ff 90 00 01 00
	00		 call	 DWORD PTR [eax+256]
  00018	84 c0		 test	 al, al
  0001a	74 47		 je	 SHORT $LN4@OnCharging

; 312  : 		return;
; 313  : 
; 314  : 	if( pOwner->IsAttackKeyDown() )

  0001c	8b cf		 mov	 ecx, edi
  0001e	e8 00 00 00 00	 call	 ?IsAttackKeyDown@ioBaseChar@@QBE_NXZ ; ioBaseChar::IsAttackKeyDown
  00023	84 c0		 test	 al, al
  00025	74 34		 je	 SHORT $LN3@OnCharging

; 315  : 	{
; 316  : 		if( m_dwAttackStartTime + m_dwChargeTime <= FRAMEGETTIME() )

  00027	8d 45 08	 lea	 eax, DWORD PTR _value$555811[ebp]
  0002a	50		 push	 eax
  0002b	8d 8e b0 18 00
	00		 lea	 ecx, DWORD PTR [esi+6320]
  00031	e8 00 00 00 00	 call	 ?DecryptValueToPool@?$CEncrypt@K@@QAEXPAK@Z ; CEncrypt<unsigned long>::DecryptValueToPool
  00036	ff 15 00 00 00
	00		 call	 DWORD PTR __imp_?GetSingleton@ioFrameTimer@@SAAAV1@XZ
  0003c	8b c8		 mov	 ecx, eax
  0003e	ff 15 00 00 00
	00		 call	 DWORD PTR __imp_?GetLoopSec@ioFrameTimer@@QBEKXZ
  00044	8b 8e 5c 19 00
	00		 mov	 ecx, DWORD PTR [esi+6492]
  0004a	03 4d 08	 add	 ecx, DWORD PTR _value$555811[ebp]
  0004d	3b c8		 cmp	 ecx, eax
  0004f	77 12		 ja	 SHORT $LN4@OnCharging

; 317  : 		{	
; 318  : 			ChangeToGathering( pOwner );

  00051	57		 push	 edi
  00052	8b ce		 mov	 ecx, esi
  00054	e8 00 00 00 00	 call	 ?ChangeToGathering@ioLeeSunSin@@IAEXPAVioBaseChar@@@Z ; ioLeeSunSin::ChangeToGathering

; 319  : 		}
; 320  : 	}
; 321  : 	else

  00059	eb 08		 jmp	 SHORT $LN4@OnCharging
$LN3@OnCharging:

; 322  : 	{
; 323  : 		ChangeToAttackFire( pOwner );

  0005b	57		 push	 edi
  0005c	8b ce		 mov	 ecx, esi
  0005e	e8 00 00 00 00	 call	 ?ChangeToAttackFire@ioLeeSunSin@@IAEXPAVioBaseChar@@@Z ; ioLeeSunSin::ChangeToAttackFire
$LN4@OnCharging:
  00063	5f		 pop	 edi
  00064	5e		 pop	 esi

; 324  : 	}
; 325  : }

  00065	5d		 pop	 ebp
  00066	c2 04 00	 ret	 4
?OnCharging@ioLeeSunSin@@IAEXPAVioBaseChar@@@Z ENDP	; ioLeeSunSin::OnCharging
_TEXT	ENDS
PUBLIC	__$ArrayPad$
PUBLIC	?ChangeToAssultAttackFire@ioLeeSunSin@@IAEXPAVioBaseChar@@@Z ; ioLeeSunSin::ChangeToAssultAttackFire
EXTRN	?SetTargetRotToDirKey@ioBaseChar@@QAEXW4DirKeyInput@ioUserKeyInput@@@Z:PROC ; ioBaseChar::SetTargetRotToDirKey
EXTRN	?CheckCurDirKey@ioBaseChar@@QAE?AW4DirKeyInput@ioUserKeyInput@@XZ:PROC ; ioBaseChar::CheckCurDirKey
;	COMDAT xdata$x
; File d:\lost saga for developer\youtube\tutorial\source\src\lsclient\iobasechar.h
xdata$x	SEGMENT
__unwindtable$?ChangeToAssultAttackFire@ioLeeSunSin@@IAEXPAVioBaseChar@@@Z DD 0ffffffffH
	DD	FLAT:__unwindfunclet$?ChangeToAssultAttackFire@ioLeeSunSin@@IAEXPAVioBaseChar@@@Z$0
__ehfuncinfo$?ChangeToAssultAttackFire@ioLeeSunSin@@IAEXPAVioBaseChar@@@Z DD 019930522H
	DD	01H
	DD	FLAT:__unwindtable$?ChangeToAssultAttackFire@ioLeeSunSin@@IAEXPAVioBaseChar@@@Z
	DD	2 DUP(00H)
	DD	2 DUP(00H)
	DD	00H
	DD	01H
; Function compile flags: /Ogsp
; File d:\lost saga for developer\youtube\tutorial\source\src\lsclient\ioleesunsin.cpp
xdata$x	ENDS
;	COMDAT ?ChangeToAssultAttackFire@ioLeeSunSin@@IAEXPAVioBaseChar@@@Z
_TEXT	SEGMENT
_kPacket$549715 = -32808				; size = 32792
__$ArrayPad$ = -16					; size = 4
__$EHRec$ = -12						; size = 12
_pOwner$ = 8						; size = 4
?ChangeToAssultAttackFire@ioLeeSunSin@@IAEXPAVioBaseChar@@@Z PROC ; ioLeeSunSin::ChangeToAssultAttackFire, COMDAT
; _this$ = ecx

; 462  : {

  00000	55		 push	 ebp
  00001	8b ec		 mov	 ebp, esp
  00003	6a ff		 push	 -1
  00005	68 00 00 00 00	 push	 __ehhandler$?ChangeToAssultAttackFire@ioLeeSunSin@@IAEXPAVioBaseChar@@@Z
  0000a	64 a1 00 00 00
	00		 mov	 eax, DWORD PTR fs:0
  00010	50		 push	 eax
  00011	b8 1c 80 00 00	 mov	 eax, 32796		; 0000801cH
  00016	e8 00 00 00 00	 call	 __chkstk
  0001b	a1 00 00 00 00	 mov	 eax, DWORD PTR ___security_cookie
  00020	33 c5		 xor	 eax, ebp
  00022	89 45 f0	 mov	 DWORD PTR __$ArrayPad$[ebp], eax
  00025	56		 push	 esi
  00026	57		 push	 edi
  00027	50		 push	 eax
  00028	8d 45 f4	 lea	 eax, DWORD PTR __$EHRec$[ebp]
  0002b	64 a3 00 00 00
	00		 mov	 DWORD PTR fs:0, eax
  00031	8b 7d 08	 mov	 edi, DWORD PTR _pOwner$[ebp]
  00034	8b f1		 mov	 esi, ecx

; 463  : 	if( !pOwner )

  00036	85 ff		 test	 edi, edi
  00038	0f 84 f8 00 00
	00		 je	 $LN1@ChangeToAs

; 464  : 		return;
; 465  : 
; 466  : 	DWORD dwCurTime = FRAMEGETTIME();

  0003e	ff 15 00 00 00
	00		 call	 DWORD PTR __imp_?GetSingleton@ioFrameTimer@@SAAAV1@XZ
  00044	8b c8		 mov	 ecx, eax
  00046	ff 15 00 00 00
	00		 call	 DWORD PTR __imp_?GetLoopSec@ioFrameTimer@@QBEKXZ

; 467  : 	pOwner->SetState( CS_ATTACK );

  0004c	6a 01		 push	 1
  0004e	6a 05		 push	 5
  00050	8b cf		 mov	 ecx, edi
  00052	e8 00 00 00 00	 call	 ?SetState@ioBaseChar@@QAEXH_N@Z ; ioBaseChar::SetState

; 468  : 	pOwner->InitExtendAttackTagInfo();

  00057	8b cf		 mov	 ecx, edi
  00059	e8 00 00 00 00	 call	 ?InitExtendAttackTagInfo@ioBaseChar@@QAEXXZ ; ioBaseChar::InitExtendAttackTagInfo

; 469  : 	ClearCancelInfo();

  0005e	8b 06		 mov	 eax, DWORD PTR [esi]
  00060	8b ce		 mov	 ecx, esi
  00062	ff 90 3c 02 00
	00		 call	 DWORD PTR [eax+572]

; 470  : 	ClearKeyReserve();

  00068	8b 06		 mov	 eax, DWORD PTR [esi]
  0006a	8b ce		 mov	 ecx, esi
  0006c	ff 90 a8 01 00
	00		 call	 DWORD PTR [eax+424]

; 471  : 
; 472  : 	EndEffect( pOwner );

  00072	57		 push	 edi
  00073	8b ce		 mov	 ecx, esi
  00075	e8 00 00 00 00	 call	 ?EndEffect@ioLeeSunSin@@QAEXPAVioBaseChar@@@Z ; ioLeeSunSin::EndEffect

; 473  : 	pOwner->SetTargetRotToDirKey( pOwner->CheckCurDirKey() );

  0007a	8b cf		 mov	 ecx, edi
  0007c	e8 00 00 00 00	 call	 ?CheckCurDirKey@ioBaseChar@@QAE?AW4DirKeyInput@ioUserKeyInput@@XZ ; ioBaseChar::CheckCurDirKey
  00081	50		 push	 eax
  00082	8b cf		 mov	 ecx, edi
  00084	e8 00 00 00 00	 call	 ?SetTargetRotToDirKey@ioBaseChar@@QAEXW4DirKeyInput@ioUserKeyInput@@@Z ; ioBaseChar::SetTargetRotToDirKey

; 474  : 
; 475  : 	SetAttack( pOwner, &m_AssultExtendAttack, true, true, m_dwExtendAttackEnd, m_dwKeyReserveTime );

  00089	8d 86 f8 0e 00
	00		 lea	 eax, DWORD PTR [esi+3832]
  0008f	50		 push	 eax
  00090	8d 86 a0 1b 00
	00		 lea	 eax, DWORD PTR [esi+7072]
  00096	50		 push	 eax
  00097	6a 01		 push	 1
  00099	6a 01		 push	 1
  0009b	8d 86 b0 1a 00
	00		 lea	 eax, DWORD PTR [esi+6832]
  000a1	50		 push	 eax
  000a2	57		 push	 edi
  000a3	8b ce		 mov	 ecx, esi
  000a5	e8 00 00 00 00	 call	 ?SetAttack@ioLeeSunSin@@QAEXPAVioBaseChar@@PBUAttackAttribute@@_N2AAK3@Z ; ioLeeSunSin::SetAttack

; 476  : 	m_ChargeState = CS_ASSULT_FIRE;

  000aa	c7 86 54 19 00
	00 04 00 00 00	 mov	 DWORD PTR [esi+6484], 4

; 477  : 
; 478  : 	if( pOwner->IsNeedSendNetwork() )

  000b4	8b 07		 mov	 eax, DWORD PTR [edi]
  000b6	8b cf		 mov	 ecx, edi
  000b8	ff 90 04 01 00
	00		 call	 DWORD PTR [eax+260]
  000be	84 c0		 test	 al, al
  000c0	74 74		 je	 SHORT $LN1@ChangeToAs

; 479  : 	{
; 480  : 		SP2Packet kPacket( CUPK_ITEM_GAUGE_OK );

  000c2	68 27 41 00 00	 push	 16679			; 00004127H
  000c7	8d 8d d8 7f ff
	ff		 lea	 ecx, DWORD PTR _kPacket$549715[ebp]
  000cd	e8 00 00 00 00	 call	 ??0SP2Packet@@QAE@K@Z	; SP2Packet::SP2Packet
  000d2	83 65 fc 00	 and	 DWORD PTR __$EHRec$[ebp+8], 0

; 481  : 		FillItemGaugePacketHeader( pOwner, kPacket );

  000d6	8d 85 d8 7f ff
	ff		 lea	 eax, DWORD PTR _kPacket$549715[ebp]
  000dc	50		 push	 eax
  000dd	57		 push	 edi
  000de	8b ce		 mov	 ecx, esi
  000e0	e8 00 00 00 00	 call	 ?FillItemGaugePacketHeader@ioAttackableItem@@QAEXPAVioBaseChar@@AAVSP2Packet@@@Z ; ioAttackableItem::FillItemGaugePacketHeader

; 482  : 		kPacket << static_cast<byte>( SS_ASSULT_ATTACK );		

  000e5	6a 08		 push	 8
  000e7	8d 8d d8 7f ff
	ff		 lea	 ecx, DWORD PTR _kPacket$549715[ebp]
  000ed	e8 00 00 00 00	 call	 ??6SP2Packet@@QAEAAV0@E@Z ; SP2Packet::operator<<

; 483  : 		kPacket << pOwner->GetTargetRot();

  000f2	8d 87 a4 06 00
	00		 lea	 eax, DWORD PTR [edi+1700]
  000f8	50		 push	 eax
  000f9	8d 8d d8 7f ff
	ff		 lea	 ecx, DWORD PTR _kPacket$549715[ebp]
  000ff	e8 00 00 00 00	 call	 ??6SP2Packet@@QAEAAV0@ABUD3DXQUATERNION@@@Z ; SP2Packet::operator<<

; 484  : 		kPacket << (byte)pOwner->CheckCurDirKey();

  00104	8b cf		 mov	 ecx, edi
  00106	e8 00 00 00 00	 call	 ?CheckCurDirKey@ioBaseChar@@QAE?AW4DirKeyInput@ioUserKeyInput@@XZ ; ioBaseChar::CheckCurDirKey
  0010b	50		 push	 eax
  0010c	8d 8d d8 7f ff
	ff		 lea	 ecx, DWORD PTR _kPacket$549715[ebp]
  00112	e8 00 00 00 00	 call	 ??6SP2Packet@@QAEAAV0@E@Z ; SP2Packet::operator<<

; 485  : 		P2PNetwork::SendToAllPlayingUser( kPacket );

  00117	8d 85 d8 7f ff
	ff		 lea	 eax, DWORD PTR _kPacket$549715[ebp]
  0011d	6a 00		 push	 0
  0011f	50		 push	 eax
  00120	e8 00 00 00 00	 call	 ?SendToAllPlayingUser@P2PNetwork@@YAXAAVSP2Packet@@PAVioBaseChar@@@Z ; P2PNetwork::SendToAllPlayingUser

; 486  : 	}

  00125	83 4d fc ff	 or	 DWORD PTR __$EHRec$[ebp+8], -1
  00129	59		 pop	 ecx
  0012a	59		 pop	 ecx
  0012b	8d 8d d8 7f ff
	ff		 lea	 ecx, DWORD PTR _kPacket$549715[ebp]
  00131	e8 00 00 00 00	 call	 ??1SP2Packet@@UAE@XZ	; SP2Packet::~SP2Packet
$LN1@ChangeToAs:

; 487  : }

  00136	8b 4d f4	 mov	 ecx, DWORD PTR __$EHRec$[ebp]
  00139	64 89 0d 00 00
	00 00		 mov	 DWORD PTR fs:0, ecx
  00140	59		 pop	 ecx
  00141	5f		 pop	 edi
  00142	5e		 pop	 esi
  00143	8b 4d f0	 mov	 ecx, DWORD PTR __$ArrayPad$[ebp]
  00146	33 cd		 xor	 ecx, ebp
  00148	e8 00 00 00 00	 call	 @__security_check_cookie@4
  0014d	c9		 leave
  0014e	c2 04 00	 ret	 4
_TEXT	ENDS
;	COMDAT text$x
text$x	SEGMENT
__unwindfunclet$?ChangeToAssultAttackFire@ioLeeSunSin@@IAEXPAVioBaseChar@@@Z$0:
  00000	8d 8d d8 7f ff
	ff		 lea	 ecx, DWORD PTR _kPacket$549715[ebp]
  00006	e9 00 00 00 00	 jmp	 ??1SP2Packet@@UAE@XZ	; SP2Packet::~SP2Packet
__ehhandler$?ChangeToAssultAttackFire@ioLeeSunSin@@IAEXPAVioBaseChar@@@Z:
  0000b	8b 54 24 08	 mov	 edx, DWORD PTR [esp+8]
  0000f	8d 42 0c	 lea	 eax, DWORD PTR [edx+12]
  00012	8b 8a d8 7f ff
	ff		 mov	 ecx, DWORD PTR [edx-32808]
  00018	33 c8		 xor	 ecx, eax
  0001a	e8 00 00 00 00	 call	 @__security_check_cookie@4
  0001f	8b 4a fc	 mov	 ecx, DWORD PTR [edx-4]
  00022	33 c8		 xor	 ecx, eax
  00024	e8 00 00 00 00	 call	 @__security_check_cookie@4
  00029	b8 00 00 00 00	 mov	 eax, OFFSET __ehfuncinfo$?ChangeToAssultAttackFire@ioLeeSunSin@@IAEXPAVioBaseChar@@@Z
  0002e	e9 00 00 00 00	 jmp	 ___CxxFrameHandler3
text$x	ENDS
?ChangeToAssultAttackFire@ioLeeSunSin@@IAEXPAVioBaseChar@@@Z ENDP ; ioLeeSunSin::ChangeToAssultAttackFire
PUBLIC	?ChangeToExtendAttackFire@ioLeeSunSin@@IAEXPAVioBaseChar@@PAUAttackAttribute@@@Z ; ioLeeSunSin::ChangeToExtendAttackFire
; Function compile flags: /Ogsp
;	COMDAT ?ChangeToExtendAttackFire@ioLeeSunSin@@IAEXPAVioBaseChar@@PAUAttackAttribute@@@Z
_TEXT	SEGMENT
_pOwner$ = 8						; size = 4
_pAttribute$ = 12					; size = 4
?ChangeToExtendAttackFire@ioLeeSunSin@@IAEXPAVioBaseChar@@PAUAttackAttribute@@@Z PROC ; ioLeeSunSin::ChangeToExtendAttackFire, COMDAT
; _this$ = ecx

; 566  : {

  00000	55		 push	 ebp
  00001	8b ec		 mov	 ebp, esp
  00003	56		 push	 esi
  00004	57		 push	 edi

; 567  : 	if( !pOwner )

  00005	8b 7d 08	 mov	 edi, DWORD PTR _pOwner$[ebp]
  00008	8b f1		 mov	 esi, ecx
  0000a	85 ff		 test	 edi, edi
  0000c	74 61		 je	 SHORT $LN3@ChangeToEx

; 568  : 		return;
; 569  : 
; 570  : 	if( !pAttribute )

  0000e	83 7d 0c 00	 cmp	 DWORD PTR _pAttribute$[ebp], 0
  00012	74 5b		 je	 SHORT $LN3@ChangeToEx

; 571  : 		return;
; 572  : 
; 573  : 	DWORD dwCurTime = FRAMEGETTIME();

  00014	ff 15 00 00 00
	00		 call	 DWORD PTR __imp_?GetSingleton@ioFrameTimer@@SAAAV1@XZ
  0001a	8b c8		 mov	 ecx, eax
  0001c	ff 15 00 00 00
	00		 call	 DWORD PTR __imp_?GetLoopSec@ioFrameTimer@@QBEKXZ

; 574  : 	pOwner->SetState( CS_ATTACK );

  00022	6a 01		 push	 1
  00024	6a 05		 push	 5
  00026	8b cf		 mov	 ecx, edi
  00028	e8 00 00 00 00	 call	 ?SetState@ioBaseChar@@QAEXH_N@Z ; ioBaseChar::SetState

; 575  : 	pOwner->InitExtendAttackTagInfo();

  0002d	8b cf		 mov	 ecx, edi
  0002f	e8 00 00 00 00	 call	 ?InitExtendAttackTagInfo@ioBaseChar@@QAEXXZ ; ioBaseChar::InitExtendAttackTagInfo

; 576  : 	ClearCancelInfo();

  00034	8b 06		 mov	 eax, DWORD PTR [esi]
  00036	8b ce		 mov	 ecx, esi
  00038	ff 90 3c 02 00
	00		 call	 DWORD PTR [eax+572]

; 577  : 	ClearKeyReserve();

  0003e	8b 06		 mov	 eax, DWORD PTR [esi]
  00040	8b ce		 mov	 ecx, esi
  00042	ff 90 a8 01 00
	00		 call	 DWORD PTR [eax+424]

; 578  : 
; 579  : 	SetAttack( pOwner, pAttribute, true, true, m_dwExtendAttackEnd, m_dwKeyReserveTime );

  00048	8d 86 f8 0e 00
	00		 lea	 eax, DWORD PTR [esi+3832]
  0004e	50		 push	 eax
  0004f	8d 86 a0 1b 00
	00		 lea	 eax, DWORD PTR [esi+7072]
  00055	50		 push	 eax
  00056	6a 01		 push	 1
  00058	6a 01		 push	 1
  0005a	ff 75 0c	 push	 DWORD PTR _pAttribute$[ebp]
  0005d	8b ce		 mov	 ecx, esi
  0005f	57		 push	 edi
  00060	e8 00 00 00 00	 call	 ?SetAttack@ioLeeSunSin@@QAEXPAVioBaseChar@@PBUAttackAttribute@@_N2AAK3@Z ; ioLeeSunSin::SetAttack

; 580  : 	m_ChargeState = CS_EXTEND_FIRE;

  00065	c7 86 54 19 00
	00 03 00 00 00	 mov	 DWORD PTR [esi+6484], 3
$LN3@ChangeToEx:
  0006f	5f		 pop	 edi
  00070	5e		 pop	 esi

; 581  : }

  00071	5d		 pop	 ebp
  00072	c2 08 00	 ret	 8
?ChangeToExtendAttackFire@ioLeeSunSin@@IAEXPAVioBaseChar@@PAUAttackAttribute@@@Z ENDP ; ioLeeSunSin::ChangeToExtendAttackFire
_TEXT	ENDS
PUBLIC	?GetMaxBullet@ioLeeSunSin@@UAEHXZ		; ioLeeSunSin::GetMaxBullet
; Function compile flags: /Ogsp
;	COMDAT ?GetMaxBullet@ioLeeSunSin@@UAEHXZ
_TEXT	SEGMENT
_value$555835 = -4					; size = 4
?GetMaxBullet@ioLeeSunSin@@UAEHXZ PROC			; ioLeeSunSin::GetMaxBullet, COMDAT
; _this$ = ecx

; 962  : {

  00000	55		 push	 ebp
  00001	8b ec		 mov	 ebp, esp
  00003	51		 push	 ecx

; 963  : 	return (int)m_fMaxExtraGauge;

  00004	8d 45 fc	 lea	 eax, DWORD PTR _value$555835[ebp]
  00007	50		 push	 eax
  00008	81 c1 ac 16 00
	00		 add	 ecx, 5804		; 000016acH
  0000e	e8 00 00 00 00	 call	 ?DecryptValueToPool@?$CEncrypt@M@@QAEXPAM@Z ; CEncrypt<float>::DecryptValueToPool
  00013	f3 0f 2c 45 fc	 cvttss2si eax, DWORD PTR _value$555835[ebp]

; 964  : }

  00018	c9		 leave
  00019	c3		 ret	 0
?GetMaxBullet@ioLeeSunSin@@UAEHXZ ENDP			; ioLeeSunSin::GetMaxBullet
_TEXT	ENDS
PUBLIC	?GetNeedBullet@ioLeeSunSin@@QAEHXZ		; ioLeeSunSin::GetNeedBullet
; Function compile flags: /Ogsp
;	COMDAT ?GetNeedBullet@ioLeeSunSin@@QAEHXZ
_TEXT	SEGMENT
_value$555841 = -4					; size = 4
?GetNeedBullet@ioLeeSunSin@@QAEHXZ PROC			; ioLeeSunSin::GetNeedBullet, COMDAT
; _this$ = ecx

; 967  : {

  00000	55		 push	 ebp
  00001	8b ec		 mov	 ebp, esp
  00003	51		 push	 ecx

; 968  : 	return (int)m_fNeedGauge;

  00004	8d 45 fc	 lea	 eax, DWORD PTR _value$555841[ebp]
  00007	50		 push	 eax
  00008	81 c1 64 19 00
	00		 add	 ecx, 6500		; 00001964H
  0000e	e8 00 00 00 00	 call	 ?DecryptValueToPool@?$CEncrypt@M@@QAEXPAM@Z ; CEncrypt<float>::DecryptValueToPool
  00013	f3 0f 2c 45 fc	 cvttss2si eax, DWORD PTR _value$555841[ebp]

; 969  : }

  00018	c9		 leave
  00019	c3		 ret	 0
?GetNeedBullet@ioLeeSunSin@@QAEHXZ ENDP			; ioLeeSunSin::GetNeedBullet
_TEXT	ENDS
PUBLIC	?GetNeedGaugeByMax@ioLeeSunSin@@QAEHXZ		; ioLeeSunSin::GetNeedGaugeByMax
; Function compile flags: /Ogsp
;	COMDAT ?GetNeedGaugeByMax@ioLeeSunSin@@QAEHXZ
_TEXT	SEGMENT
_value$555847 = -4					; size = 4
?GetNeedGaugeByMax@ioLeeSunSin@@QAEHXZ PROC		; ioLeeSunSin::GetNeedGaugeByMax, COMDAT
; _this$ = ecx

; 972  : {

  00000	55		 push	 ebp
  00001	8b ec		 mov	 ebp, esp
  00003	51		 push	 ecx

; 973  : 	return (int)m_fNeedGaugeByMax;

  00004	8d 45 fc	 lea	 eax, DWORD PTR _value$555847[ebp]
  00007	50		 push	 eax
  00008	81 c1 94 19 00
	00		 add	 ecx, 6548		; 00001994H
  0000e	e8 00 00 00 00	 call	 ?DecryptValueToPool@?$CEncrypt@M@@QAEXPAM@Z ; CEncrypt<float>::DecryptValueToPool
  00013	f3 0f 2c 45 fc	 cvttss2si eax, DWORD PTR _value$555847[ebp]

; 974  : }

  00018	c9		 leave
  00019	c3		 ret	 0
?GetNeedGaugeByMax@ioLeeSunSin@@QAEHXZ ENDP		; ioLeeSunSin::GetNeedGaugeByMax
_TEXT	ENDS
PUBLIC	?GetCurBullet@ioLeeSunSin@@UAEHXZ		; ioLeeSunSin::GetCurBullet
; Function compile flags: /Ogsp
;	COMDAT ?GetCurBullet@ioLeeSunSin@@UAEHXZ
_TEXT	SEGMENT
_fCurCoolTime$ = -12					; size = 4
_value$555875 = -8					; size = 4
_value$555871 = -8					; size = 4
_value$555867 = -8					; size = 4
_value$555863 = -8					; size = 4
_value$555859 = -4					; size = 4
?GetCurBullet@ioLeeSunSin@@UAEHXZ PROC			; ioLeeSunSin::GetCurBullet, COMDAT
; _this$ = ecx

; 977  : {

  00000	55		 push	 ebp
  00001	8b ec		 mov	 ebp, esp
  00003	83 ec 0c	 sub	 esp, 12			; 0000000cH
  00006	56		 push	 esi
  00007	8b f1		 mov	 esi, ecx

; 978  : 	float fCurCoolTime = m_fCurExtraGauge;

  00009	8d 45 fc	 lea	 eax, DWORD PTR _value$555859[ebp]
  0000c	50		 push	 eax
  0000d	8d 8e dc 16 00
	00		 lea	 ecx, DWORD PTR [esi+5852]
  00013	e8 00 00 00 00	 call	 ?DecryptValueToPool@?$CEncrypt@M@@QAEXPAM@Z ; CEncrypt<float>::DecryptValueToPool
  00018	f3 0f 10 45 fc	 movss	 xmm0, DWORD PTR _value$555859[ebp]

; 979  : 	fCurCoolTime = max( 0, min( fCurCoolTime, m_fMaxExtraGauge ) );

  0001d	8d 45 f8	 lea	 eax, DWORD PTR _value$555863[ebp]
  00020	81 c6 ac 16 00
	00		 add	 esi, 5804		; 000016acH
  00026	50		 push	 eax
  00027	8b ce		 mov	 ecx, esi
  00029	f3 0f 11 45 f4	 movss	 DWORD PTR _fCurCoolTime$[ebp], xmm0
  0002e	e8 00 00 00 00	 call	 ?DecryptValueToPool@?$CEncrypt@M@@QAEXPAM@Z ; CEncrypt<float>::DecryptValueToPool
  00033	f3 0f 10 45 fc	 movss	 xmm0, DWORD PTR _value$555859[ebp]
  00038	f3 0f 10 55 f8	 movss	 xmm2, DWORD PTR _value$555863[ebp]
  0003d	0f 57 c9	 xorps	 xmm1, xmm1
  00040	0f 5a c8	 cvtps2pd xmm1, xmm0
  00043	0f 5a d2	 cvtps2pd xmm2, xmm2
  00046	66 0f 2f d1	 comisd	 xmm2, xmm1
  0004a	77 10		 ja	 SHORT $LN4@GetCurBull
  0004c	8d 45 f8	 lea	 eax, DWORD PTR _value$555867[ebp]
  0004f	50		 push	 eax
  00050	8b ce		 mov	 ecx, esi
  00052	e8 00 00 00 00	 call	 ?DecryptValueToPool@?$CEncrypt@M@@QAEXPAM@Z ; CEncrypt<float>::DecryptValueToPool
  00057	f3 0f 10 45 f8	 movss	 xmm0, DWORD PTR _value$555867[ebp]
$LN4@GetCurBull:
  0005c	0f 57 c9	 xorps	 xmm1, xmm1
  0005f	0f 5a c0	 cvtps2pd xmm0, xmm0
  00062	66 0f 2f c8	 comisd	 xmm1, xmm0
  00066	76 05		 jbe	 SHORT $LN7@GetCurBull
  00068	0f 57 c0	 xorps	 xmm0, xmm0
  0006b	eb 38		 jmp	 SHORT $LN6@GetCurBull
$LN7@GetCurBull:
  0006d	8d 45 f8	 lea	 eax, DWORD PTR _value$555871[ebp]
  00070	50		 push	 eax
  00071	8b ce		 mov	 ecx, esi
  00073	e8 00 00 00 00	 call	 ?DecryptValueToPool@?$CEncrypt@M@@QAEXPAM@Z ; CEncrypt<float>::DecryptValueToPool
  00078	f3 0f 10 45 fc	 movss	 xmm0, DWORD PTR _value$555859[ebp]
  0007d	f3 0f 10 4d f8	 movss	 xmm1, DWORD PTR _value$555871[ebp]
  00082	0f 5a c0	 cvtps2pd xmm0, xmm0
  00085	0f 5a c9	 cvtps2pd xmm1, xmm1
  00088	66 0f 2f c8	 comisd	 xmm1, xmm0
  0008c	77 12		 ja	 SHORT $LN19@GetCurBull
  0008e	8d 45 f8	 lea	 eax, DWORD PTR _value$555875[ebp]
  00091	50		 push	 eax
  00092	8b ce		 mov	 ecx, esi
  00094	e8 00 00 00 00	 call	 ?DecryptValueToPool@?$CEncrypt@M@@QAEXPAM@Z ; CEncrypt<float>::DecryptValueToPool
  00099	f3 0f 10 45 f8	 movss	 xmm0, DWORD PTR _value$555875[ebp]
  0009e	eb 05		 jmp	 SHORT $LN6@GetCurBull
$LN19@GetCurBull:
  000a0	f3 0f 10 45 f4	 movss	 xmm0, DWORD PTR _fCurCoolTime$[ebp]
$LN6@GetCurBull:

; 980  : 
; 981  : 	return (int)fCurCoolTime;

  000a5	f3 0f 2c c0	 cvttss2si eax, xmm0
  000a9	5e		 pop	 esi

; 982  : }

  000aa	c9		 leave
  000ab	c3		 ret	 0
?GetCurBullet@ioLeeSunSin@@UAEHXZ ENDP			; ioLeeSunSin::GetCurBullet
_TEXT	ENDS
PUBLIC	?SetCurBullet@ioLeeSunSin@@UAEXH@Z		; ioLeeSunSin::SetCurBullet
; Function compile flags: /Ogsp
;	COMDAT ?SetCurBullet@ioLeeSunSin@@UAEXH@Z
_TEXT	SEGMENT
_value$555898 = -4					; size = 4
_value$555894 = -4					; size = 4
_value$555890 = -4					; size = 4
_value$555906 = 8					; size = 4
_value$555902 = 8					; size = 4
_fCurBullet$ = 8					; size = 4
_iCurBullet$ = 8					; size = 4
?SetCurBullet@ioLeeSunSin@@UAEXH@Z PROC			; ioLeeSunSin::SetCurBullet, COMDAT
; _this$ = ecx

; 985  : {

  00000	55		 push	 ebp
  00001	8b ec		 mov	 ebp, esp
  00003	51		 push	 ecx

; 986  : 	if( iCurBullet < 0 )

  00004	83 7d 08 00	 cmp	 DWORD PTR _iCurBullet$[ebp], 0
  00008	57		 push	 edi
  00009	8b f9		 mov	 edi, ecx
  0000b	0f 8c a6 00 00
	00		 jl	 $LN18@SetCurBull

; 987  : 		return;
; 988  : 
; 989  : 	float fCurBullet = iCurBullet;

  00011	66 0f 6e 45 08	 movd	 xmm0, DWORD PTR _iCurBullet$[ebp]
  00016	56		 push	 esi

; 990  : 	fCurBullet = max( 0, min( fCurBullet, m_fMaxExtraGauge ) );

  00017	8d 45 fc	 lea	 eax, DWORD PTR _value$555890[ebp]
  0001a	0f 5b c0	 cvtdq2ps xmm0, xmm0
  0001d	50		 push	 eax
  0001e	8d 8f ac 16 00
	00		 lea	 ecx, DWORD PTR [edi+5804]
  00024	f3 0f 11 45 08	 movss	 DWORD PTR _fCurBullet$[ebp], xmm0
  00029	e8 00 00 00 00	 call	 ?DecryptValueToPool@?$CEncrypt@M@@QAEXPAM@Z ; CEncrypt<float>::DecryptValueToPool
  0002e	f3 0f 10 45 08	 movss	 xmm0, DWORD PTR _fCurBullet$[ebp]
  00033	f3 0f 10 55 fc	 movss	 xmm2, DWORD PTR _value$555890[ebp]
  00038	0f 5a c8	 cvtps2pd xmm1, xmm0
  0003b	0f 5a d2	 cvtps2pd xmm2, xmm2
  0003e	66 0f 2f d1	 comisd	 xmm2, xmm1
  00042	77 14		 ja	 SHORT $LN5@SetCurBull
  00044	8d 45 fc	 lea	 eax, DWORD PTR _value$555894[ebp]
  00047	50		 push	 eax
  00048	8d 8f ac 16 00
	00		 lea	 ecx, DWORD PTR [edi+5804]
  0004e	e8 00 00 00 00	 call	 ?DecryptValueToPool@?$CEncrypt@M@@QAEXPAM@Z ; CEncrypt<float>::DecryptValueToPool
  00053	f3 0f 10 45 fc	 movss	 xmm0, DWORD PTR _value$555894[ebp]
$LN5@SetCurBull:
  00058	0f 57 c9	 xorps	 xmm1, xmm1
  0005b	0f 5a c0	 cvtps2pd xmm0, xmm0
  0005e	66 0f 2f c8	 comisd	 xmm1, xmm0
  00062	76 05		 jbe	 SHORT $LN8@SetCurBull
  00064	0f 57 c0	 xorps	 xmm0, xmm0
  00067	eb 39		 jmp	 SHORT $LN7@SetCurBull
$LN8@SetCurBull:
  00069	8d 45 fc	 lea	 eax, DWORD PTR _value$555898[ebp]
  0006c	50		 push	 eax
  0006d	8d 8f ac 16 00
	00		 lea	 ecx, DWORD PTR [edi+5804]
  00073	e8 00 00 00 00	 call	 ?DecryptValueToPool@?$CEncrypt@M@@QAEXPAM@Z ; CEncrypt<float>::DecryptValueToPool
  00078	f3 0f 10 45 08	 movss	 xmm0, DWORD PTR _fCurBullet$[ebp]
  0007d	f3 0f 10 55 fc	 movss	 xmm2, DWORD PTR _value$555898[ebp]
  00082	0f 5a c8	 cvtps2pd xmm1, xmm0
  00085	0f 5a d2	 cvtps2pd xmm2, xmm2
  00088	66 0f 2f d1	 comisd	 xmm2, xmm1
  0008c	77 14		 ja	 SHORT $LN7@SetCurBull
  0008e	8d 45 08	 lea	 eax, DWORD PTR _value$555902[ebp]
  00091	50		 push	 eax
  00092	8d 8f ac 16 00
	00		 lea	 ecx, DWORD PTR [edi+5804]
  00098	e8 00 00 00 00	 call	 ?DecryptValueToPool@?$CEncrypt@M@@QAEXPAM@Z ; CEncrypt<float>::DecryptValueToPool
  0009d	f3 0f 10 45 08	 movss	 xmm0, DWORD PTR _value$555902[ebp]
$LN7@SetCurBull:

; 991  : 
; 992  : 	m_fCurExtraGauge = fCurBullet;

  000a2	8d 45 08	 lea	 eax, DWORD PTR _value$555906[ebp]
  000a5	50		 push	 eax
  000a6	8d 8f dc 16 00
	00		 lea	 ecx, DWORD PTR [edi+5852]
  000ac	f3 0f 11 45 08	 movss	 DWORD PTR _value$555906[ebp], xmm0
  000b1	e8 00 00 00 00	 call	 ?EncryptValueToPool@?$CEncrypt@M@@AAEXPBD@Z ; CEncrypt<float>::EncryptValueToPool
  000b6	5e		 pop	 esi
$LN18@SetCurBull:
  000b7	5f		 pop	 edi

; 993  : }

  000b8	c9		 leave
  000b9	c2 04 00	 ret	 4
?SetCurBullet@ioLeeSunSin@@UAEXH@Z ENDP			; ioLeeSunSin::SetCurBullet
_TEXT	ENDS
PUBLIC	?SetUseExtraGauge@ioLeeSunSin@@UAEXM@Z		; ioLeeSunSin::SetUseExtraGauge
; Function compile flags: /Ogsp
;	COMDAT ?SetUseExtraGauge@ioLeeSunSin@@UAEXM@Z
_TEXT	SEGMENT
_value$555914 = -4					; size = 4
_value$555927 = 8					; size = 4
_value$555923 = 8					; size = 4
_value$555919 = 8					; size = 4
_fAmt$ = 8						; size = 4
?SetUseExtraGauge@ioLeeSunSin@@UAEXM@Z PROC		; ioLeeSunSin::SetUseExtraGauge, COMDAT
; _this$ = ecx

; 996  : {

  00000	55		 push	 ebp
  00001	8b ec		 mov	 ebp, esp
  00003	51		 push	 ecx
  00004	56		 push	 esi

; 997  : 	m_fCurExtraGauge -= fAmt;

  00005	8d b1 dc 16 00
	00		 lea	 esi, DWORD PTR [ecx+5852]
  0000b	8d 45 fc	 lea	 eax, DWORD PTR _value$555914[ebp]
  0000e	50		 push	 eax
  0000f	8b ce		 mov	 ecx, esi
  00011	e8 00 00 00 00	 call	 ?DecryptValueToPool@?$CEncrypt@M@@QAEXPAM@Z ; CEncrypt<float>::DecryptValueToPool
  00016	f3 0f 10 45 fc	 movss	 xmm0, DWORD PTR _value$555914[ebp]
  0001b	f3 0f 10 4d 08	 movss	 xmm1, DWORD PTR _fAmt$[ebp]
  00020	0f 5a c0	 cvtps2pd xmm0, xmm0
  00023	0f 5a c9	 cvtps2pd xmm1, xmm1
  00026	8d 45 fc	 lea	 eax, DWORD PTR _value$555914[ebp]
  00029	f2 0f 5c c1	 subsd	 xmm0, xmm1
  0002d	66 0f 5a c0	 cvtpd2ps xmm0, xmm0
  00031	50		 push	 eax
  00032	8b ce		 mov	 ecx, esi
  00034	f3 0f 11 45 fc	 movss	 DWORD PTR _value$555914[ebp], xmm0
  00039	e8 00 00 00 00	 call	 ?EncryptValueToPool@?$CEncrypt@M@@AAEXPBD@Z ; CEncrypt<float>::EncryptValueToPool

; 998  : 	m_fCurExtraGauge = max( 0.0f, m_fCurExtraGauge );

  0003e	8d 45 08	 lea	 eax, DWORD PTR _value$555919[ebp]
  00041	50		 push	 eax
  00042	8b ce		 mov	 ecx, esi
  00044	e8 00 00 00 00	 call	 ?DecryptValueToPool@?$CEncrypt@M@@QAEXPAM@Z ; CEncrypt<float>::DecryptValueToPool
  00049	f3 0f 10 45 08	 movss	 xmm0, DWORD PTR _value$555919[ebp]
  0004e	0f 57 c9	 xorps	 xmm1, xmm1
  00051	0f 5a c0	 cvtps2pd xmm0, xmm0
  00054	66 0f 2f c8	 comisd	 xmm1, xmm0
  00058	76 05		 jbe	 SHORT $LN3@SetUseExtr
  0005a	0f 57 c0	 xorps	 xmm0, xmm0
  0005d	eb 10		 jmp	 SHORT $LN4@SetUseExtr
$LN3@SetUseExtr:
  0005f	8d 45 08	 lea	 eax, DWORD PTR _value$555923[ebp]
  00062	50		 push	 eax
  00063	8b ce		 mov	 ecx, esi
  00065	e8 00 00 00 00	 call	 ?DecryptValueToPool@?$CEncrypt@M@@QAEXPAM@Z ; CEncrypt<float>::DecryptValueToPool
  0006a	f3 0f 10 45 08	 movss	 xmm0, DWORD PTR _value$555923[ebp]
$LN4@SetUseExtr:
  0006f	8d 45 08	 lea	 eax, DWORD PTR _value$555927[ebp]
  00072	50		 push	 eax
  00073	8b ce		 mov	 ecx, esi
  00075	f3 0f 11 45 08	 movss	 DWORD PTR _value$555927[ebp], xmm0
  0007a	e8 00 00 00 00	 call	 ?EncryptValueToPool@?$CEncrypt@M@@AAEXPBD@Z ; CEncrypt<float>::EncryptValueToPool
  0007f	5e		 pop	 esi

; 999  : }

  00080	c9		 leave
  00081	c2 04 00	 ret	 4
?SetUseExtraGauge@ioLeeSunSin@@UAEXM@Z ENDP		; ioLeeSunSin::SetUseExtraGauge
_TEXT	ENDS
PUBLIC	__real@00000000
PUBLIC	??4?$CEncrypt@M@@QAE_NAAV0@@Z			; CEncrypt<float>::operator=
;	COMDAT __real@00000000
; File d:\lost saga for developer\youtube\tutorial\source\src\lsclient\encryptvalue.h
CONST	SEGMENT
__real@00000000 DD 000000000r			; 0
; Function compile flags: /Ogsp
CONST	ENDS
;	COMDAT ??4?$CEncrypt@M@@QAE_NAAV0@@Z
_TEXT	SEGMENT
_value$555936 = -4					; size = 4
_value$ = 8						; size = 4
_inValue$ = 8						; size = 4
??4?$CEncrypt@M@@QAE_NAAV0@@Z PROC			; CEncrypt<float>::operator=, COMDAT
; _this$ = ecx

; 3314 : 	 {

  00000	55		 push	 ebp
  00001	8b ec		 mov	 ebp, esp
  00003	51		 push	 ecx
  00004	56		 push	 esi

; 3315 : 		 type value = inValue;

  00005	8d 45 fc	 lea	 eax, DWORD PTR _value$555936[ebp]
  00008	8b f1		 mov	 esi, ecx
  0000a	8b 4d 08	 mov	 ecx, DWORD PTR _inValue$[ebp]
  0000d	50		 push	 eax
  0000e	e8 00 00 00 00	 call	 ?DecryptValueToPool@?$CEncrypt@M@@QAEXPAM@Z ; CEncrypt<float>::DecryptValueToPool
  00013	f3 0f 10 45 fc	 movss	 xmm0, DWORD PTR _value$555936[ebp]

; 3316 : 		 EncryptValueToPool((char*)&value);

  00018	8d 45 08	 lea	 eax, DWORD PTR _value$[ebp]
  0001b	50		 push	 eax
  0001c	8b ce		 mov	 ecx, esi
  0001e	f3 0f 11 45 08	 movss	 DWORD PTR _value$[ebp], xmm0
  00023	e8 00 00 00 00	 call	 ?EncryptValueToPool@?$CEncrypt@M@@AAEXPBD@Z ; CEncrypt<float>::EncryptValueToPool

; 3317 : #ifdef _NOTUSE
; 3318 : 		 m_value = inValue;
; 3319 : 		 Debug();
; 3320 : #endif
; 3321 : 		 return value;

  00028	f3 0f 10 45 08	 movss	 xmm0, DWORD PTR _value$[ebp]
  0002d	0f 2e 05 00 00
	00 00		 ucomiss xmm0, DWORD PTR __real@00000000
  00034	9f		 lahf
  00035	5e		 pop	 esi
  00036	f6 c4 44	 test	 ah, 68			; 00000044H
  00039	7b 04		 jnp	 SHORT $LN3@operator@2
  0003b	b0 01		 mov	 al, 1
  0003d	eb 02		 jmp	 SHORT $LN4@operator@2
$LN3@operator@2:
  0003f	32 c0		 xor	 al, al
$LN4@operator@2:

; 3322 : 	 }

  00041	c9		 leave
  00042	c2 04 00	 ret	 4
??4?$CEncrypt@M@@QAE_NAAV0@@Z ENDP			; CEncrypt<float>::operator=
_TEXT	ENDS
PUBLIC	??0?$vector@UWoundedInfo@ioLeeSunSin@@V?$allocator@UWoundedInfo@ioLeeSunSin@@@std@@@std@@QAE@XZ ; std::vector<ioLeeSunSin::WoundedInfo,std::allocator<ioLeeSunSin::WoundedInfo> >::vector<ioLeeSunSin::WoundedInfo,std::allocator<ioLeeSunSin::WoundedInfo> >
; Function compile flags: /Ogsp
; File c:\program files (x86)\microsoft visual studio 10.0\vc\include\vector
;	COMDAT ??0?$vector@UWoundedInfo@ioLeeSunSin@@V?$allocator@UWoundedInfo@ioLeeSunSin@@@std@@@std@@QAE@XZ
_TEXT	SEGMENT
??0?$vector@UWoundedInfo@ioLeeSunSin@@V?$allocator@UWoundedInfo@ioLeeSunSin@@@std@@@std@@QAE@XZ PROC ; std::vector<ioLeeSunSin::WoundedInfo,std::allocator<ioLeeSunSin::WoundedInfo> >::vector<ioLeeSunSin::WoundedInfo,std::allocator<ioLeeSunSin::WoundedInfo> >, COMDAT
; _this$ = ecx

; 507  : 		{	// construct empty vector

  00000	8b c1		 mov	 eax, ecx
  00002	33 c9		 xor	 ecx, ecx
  00004	89 08		 mov	 DWORD PTR [eax], ecx
  00006	89 48 04	 mov	 DWORD PTR [eax+4], ecx
  00009	89 48 08	 mov	 DWORD PTR [eax+8], ecx

; 508  : 		}

  0000c	c3		 ret	 0
??0?$vector@UWoundedInfo@ioLeeSunSin@@V?$allocator@UWoundedInfo@ioLeeSunSin@@@std@@@std@@QAE@XZ ENDP ; std::vector<ioLeeSunSin::WoundedInfo,std::allocator<ioLeeSunSin::WoundedInfo> >::vector<ioLeeSunSin::WoundedInfo,std::allocator<ioLeeSunSin::WoundedInfo> >
_TEXT	ENDS
PUBLIC	?begin@?$vector@UWoundedInfo@ioLeeSunSin@@V?$allocator@UWoundedInfo@ioLeeSunSin@@@std@@@std@@QAE?AV?$_Vector_iterator@V?$_Vector_val@UWoundedInfo@ioLeeSunSin@@V?$allocator@UWoundedInfo@ioLeeSunSin@@@std@@@std@@@2@XZ ; std::vector<ioLeeSunSin::WoundedInfo,std::allocator<ioLeeSunSin::WoundedInfo> >::begin
; Function compile flags: /Ogsp
;	COMDAT ?begin@?$vector@UWoundedInfo@ioLeeSunSin@@V?$allocator@UWoundedInfo@ioLeeSunSin@@@std@@@std@@QAE?AV?$_Vector_iterator@V?$_Vector_val@UWoundedInfo@ioLeeSunSin@@V?$allocator@UWoundedInfo@ioLeeSunSin@@@std@@@std@@@2@XZ
_TEXT	SEGMENT
___$ReturnUdt$ = 8					; size = 4
?begin@?$vector@UWoundedInfo@ioLeeSunSin@@V?$allocator@UWoundedInfo@ioLeeSunSin@@@std@@@std@@QAE?AV?$_Vector_iterator@V?$_Vector_val@UWoundedInfo@ioLeeSunSin@@V?$allocator@UWoundedInfo@ioLeeSunSin@@@std@@@std@@@2@XZ PROC ; std::vector<ioLeeSunSin::WoundedInfo,std::allocator<ioLeeSunSin::WoundedInfo> >::begin, COMDAT
; _this$ = ecx

; 781  : 		{	// return iterator for beginning of mutable sequence

  00000	55		 push	 ebp
  00001	8b ec		 mov	 ebp, esp

; 782  : 		return (iterator(this->_Myfirst, this));

  00003	8b 09		 mov	 ecx, DWORD PTR [ecx]
  00005	8b 45 08	 mov	 eax, DWORD PTR ___$ReturnUdt$[ebp]
  00008	89 08		 mov	 DWORD PTR [eax], ecx

; 783  : 		}

  0000a	5d		 pop	 ebp
  0000b	c2 04 00	 ret	 4
?begin@?$vector@UWoundedInfo@ioLeeSunSin@@V?$allocator@UWoundedInfo@ioLeeSunSin@@@std@@@std@@QAE?AV?$_Vector_iterator@V?$_Vector_val@UWoundedInfo@ioLeeSunSin@@V?$allocator@UWoundedInfo@ioLeeSunSin@@@std@@@std@@@2@XZ ENDP ; std::vector<ioLeeSunSin::WoundedInfo,std::allocator<ioLeeSunSin::WoundedInfo> >::begin
_TEXT	ENDS
PUBLIC	?end@?$vector@UWoundedInfo@ioLeeSunSin@@V?$allocator@UWoundedInfo@ioLeeSunSin@@@std@@@std@@QAE?AV?$_Vector_iterator@V?$_Vector_val@UWoundedInfo@ioLeeSunSin@@V?$allocator@UWoundedInfo@ioLeeSunSin@@@std@@@std@@@2@XZ ; std::vector<ioLeeSunSin::WoundedInfo,std::allocator<ioLeeSunSin::WoundedInfo> >::end
; Function compile flags: /Ogsp
;	COMDAT ?end@?$vector@UWoundedInfo@ioLeeSunSin@@V?$allocator@UWoundedInfo@ioLeeSunSin@@@std@@@std@@QAE?AV?$_Vector_iterator@V?$_Vector_val@UWoundedInfo@ioLeeSunSin@@V?$allocator@UWoundedInfo@ioLeeSunSin@@@std@@@std@@@2@XZ
_TEXT	SEGMENT
___$ReturnUdt$ = 8					; size = 4
?end@?$vector@UWoundedInfo@ioLeeSunSin@@V?$allocator@UWoundedInfo@ioLeeSunSin@@@std@@@std@@QAE?AV?$_Vector_iterator@V?$_Vector_val@UWoundedInfo@ioLeeSunSin@@V?$allocator@UWoundedInfo@ioLeeSunSin@@@std@@@std@@@2@XZ PROC ; std::vector<ioLeeSunSin::WoundedInfo,std::allocator<ioLeeSunSin::WoundedInfo> >::end, COMDAT
; _this$ = ecx

; 791  : 		{	// return iterator for end of mutable sequence

  00000	55		 push	 ebp
  00001	8b ec		 mov	 ebp, esp

; 792  : 		return (iterator(this->_Mylast, this));

  00003	8b 49 04	 mov	 ecx, DWORD PTR [ecx+4]
  00006	8b 45 08	 mov	 eax, DWORD PTR ___$ReturnUdt$[ebp]
  00009	89 08		 mov	 DWORD PTR [eax], ecx

; 793  : 		}

  0000b	5d		 pop	 ebp
  0000c	c2 04 00	 ret	 4
?end@?$vector@UWoundedInfo@ioLeeSunSin@@V?$allocator@UWoundedInfo@ioLeeSunSin@@@std@@@std@@QAE?AV?$_Vector_iterator@V?$_Vector_val@UWoundedInfo@ioLeeSunSin@@V?$allocator@UWoundedInfo@ioLeeSunSin@@@std@@@std@@@2@XZ ENDP ; std::vector<ioLeeSunSin::WoundedInfo,std::allocator<ioLeeSunSin::WoundedInfo> >::end
_TEXT	ENDS
PUBLIC	??9?$_Vector_const_iterator@V?$_Vector_val@UWoundedInfo@ioLeeSunSin@@V?$allocator@UWoundedInfo@ioLeeSunSin@@@std@@@std@@@std@@QBE_NABV01@@Z ; std::_Vector_const_iterator<std::_Vector_val<ioLeeSunSin::WoundedInfo,std::allocator<ioLeeSunSin::WoundedInfo> > >::operator!=
; Function compile flags: /Ogsp
;	COMDAT ??9?$_Vector_const_iterator@V?$_Vector_val@UWoundedInfo@ioLeeSunSin@@V?$allocator@UWoundedInfo@ioLeeSunSin@@@std@@@std@@@std@@QBE_NABV01@@Z
_TEXT	SEGMENT
__Right$ = 8						; size = 4
??9?$_Vector_const_iterator@V?$_Vector_val@UWoundedInfo@ioLeeSunSin@@V?$allocator@UWoundedInfo@ioLeeSunSin@@@std@@@std@@@std@@QBE_NABV01@@Z PROC ; std::_Vector_const_iterator<std::_Vector_val<ioLeeSunSin::WoundedInfo,std::allocator<ioLeeSunSin::WoundedInfo> > >::operator!=, COMDAT
; _this$ = ecx

; 207  : 		{	// test for iterator inequality

  00000	55		 push	 ebp
  00001	8b ec		 mov	 ebp, esp

; 208  : 		return (!(*this == _Right));

  00003	8b 01		 mov	 eax, DWORD PTR [ecx]
  00005	8b 55 08	 mov	 edx, DWORD PTR __Right$[ebp]
  00008	33 c9		 xor	 ecx, ecx
  0000a	3b 02		 cmp	 eax, DWORD PTR [edx]
  0000c	0f 95 c0	 setne	 al

; 209  : 		}

  0000f	5d		 pop	 ebp
  00010	c2 04 00	 ret	 4
??9?$_Vector_const_iterator@V?$_Vector_val@UWoundedInfo@ioLeeSunSin@@V?$allocator@UWoundedInfo@ioLeeSunSin@@@std@@@std@@@std@@QBE_NABV01@@Z ENDP ; std::_Vector_const_iterator<std::_Vector_val<ioLeeSunSin::WoundedInfo,std::allocator<ioLeeSunSin::WoundedInfo> > >::operator!=
_TEXT	ENDS
PUBLIC	?_Buy@?$vector@UWoundedInfo@ioLeeSunSin@@V?$allocator@UWoundedInfo@ioLeeSunSin@@@std@@@std@@IAE_NI@Z ; std::vector<ioLeeSunSin::WoundedInfo,std::allocator<ioLeeSunSin::WoundedInfo> >::_Buy
; Function compile flags: /Ogsp
;	COMDAT ?_Buy@?$vector@UWoundedInfo@ioLeeSunSin@@V?$allocator@UWoundedInfo@ioLeeSunSin@@@std@@@std@@IAE_NI@Z
_TEXT	SEGMENT
__Capacity$ = 8						; size = 4
?_Buy@?$vector@UWoundedInfo@ioLeeSunSin@@V?$allocator@UWoundedInfo@ioLeeSunSin@@@std@@@std@@IAE_NI@Z PROC ; std::vector<ioLeeSunSin::WoundedInfo,std::allocator<ioLeeSunSin::WoundedInfo> >::_Buy, COMDAT
; _this$ = ecx

; 1250 : 		{	// allocate array with _Capacity elements

  00000	55		 push	 ebp
  00001	8b ec		 mov	 ebp, esp
  00003	56		 push	 esi

; 1251 : 		this->_Myfirst = 0;

  00004	33 c0		 xor	 eax, eax
  00006	57		 push	 edi

; 1252 : 		this->_Mylast = 0;
; 1253 : 		this->_Myend = 0;
; 1254 : 
; 1255 : 		if (_Capacity == 0)

  00007	8b 7d 08	 mov	 edi, DWORD PTR __Capacity$[ebp]
  0000a	8b f1		 mov	 esi, ecx
  0000c	89 06		 mov	 DWORD PTR [esi], eax
  0000e	89 46 04	 mov	 DWORD PTR [esi+4], eax
  00011	89 46 08	 mov	 DWORD PTR [esi+8], eax
  00014	3b f8		 cmp	 edi, eax
  00016	75 04		 jne	 SHORT $LN4@Buy

; 1256 : 			return (false);

  00018	32 c0		 xor	 al, al
  0001a	eb 2b		 jmp	 SHORT $LN5@Buy
$LN4@Buy:

; 1257 : 		else if (max_size() < _Capacity)

  0001c	81 ff ff ff ff
	07		 cmp	 edi, 134217727		; 07ffffffH
  00022	76 0b		 jbe	 SHORT $LN2@Buy

; 1258 : 			_Xlen();	// result too long

  00024	68 00 00 00 00	 push	 OFFSET ??_C@_0BD@OLBABOEK@vector?$DMT?$DO?5too?5long?$AA@
  00029	ff 15 00 00 00
	00		 call	 DWORD PTR __imp_?_Xlength_error@std@@YAXPBD@Z
$LN19@Buy:
$LN2@Buy:

; 1259 : 		else
; 1260 : 			{	// nonempty array, allocate storage
; 1261 : 			this->_Myfirst = this->_Alval.allocate(_Capacity);

  0002f	50		 push	 eax
  00030	57		 push	 edi
  00031	e8 00 00 00 00	 call	 ??$_Allocate@UWoundedInfo@ioLeeSunSin@@@std@@YAPAUWoundedInfo@ioLeeSunSin@@IPAU12@@Z ; std::_Allocate<ioLeeSunSin::WoundedInfo>

; 1262 : 			this->_Mylast = this->_Myfirst;
; 1263 : 			this->_Myend = this->_Myfirst + _Capacity;

  00036	c1 e7 05	 shl	 edi, 5
  00039	03 f8		 add	 edi, eax
  0003b	59		 pop	 ecx
  0003c	89 06		 mov	 DWORD PTR [esi], eax
  0003e	89 46 04	 mov	 DWORD PTR [esi+4], eax
  00041	59		 pop	 ecx
  00042	89 7e 08	 mov	 DWORD PTR [esi+8], edi

; 1264 : 			}
; 1265 : 		return (true);

  00045	b0 01		 mov	 al, 1
$LN5@Buy:
  00047	5f		 pop	 edi
  00048	5e		 pop	 esi

; 1266 : 		}

  00049	5d		 pop	 ebp
  0004a	c2 04 00	 ret	 4
$LN18@Buy:
?_Buy@?$vector@UWoundedInfo@ioLeeSunSin@@V?$allocator@UWoundedInfo@ioLeeSunSin@@@std@@@std@@IAE_NI@Z ENDP ; std::vector<ioLeeSunSin::WoundedInfo,std::allocator<ioLeeSunSin::WoundedInfo> >::_Buy
_TEXT	ENDS
PUBLIC	?_Grow_to@?$vector@VioHashString@@V?$allocator@VioHashString@@@std@@@std@@IBEII@Z ; std::vector<ioHashString,std::allocator<ioHashString> >::_Grow_to
; Function compile flags: /Ogsp
;	COMDAT ?_Grow_to@?$vector@VioHashString@@V?$allocator@VioHashString@@@std@@@std@@IBEII@Z
_TEXT	SEGMENT
__Count$ = 8						; size = 4
?_Grow_to@?$vector@VioHashString@@V?$allocator@VioHashString@@@std@@@std@@IBEII@Z PROC ; std::vector<ioHashString,std::allocator<ioHashString> >::_Grow_to, COMDAT
; _this$ = ecx

; 1274 : 		{	// grow by 50% or at least to _Count

  00000	55		 push	 ebp
  00001	8b ec		 mov	 ebp, esp

; 1275 : 		size_type _Capacity = capacity();

  00003	8b 41 08	 mov	 eax, DWORD PTR [ecx+8]
  00006	2b 01		 sub	 eax, DWORD PTR [ecx]

; 1276 : 
; 1277 : 		_Capacity = max_size() - _Capacity / 2 < _Capacity
; 1278 : 			? 0 : _Capacity + _Capacity / 2;	// try to grow by 50%

  00008	ba ff ff ff 0f	 mov	 edx, 268435455		; 0fffffffH
  0000d	c1 f8 04	 sar	 eax, 4
  00010	8b c8		 mov	 ecx, eax
  00012	d1 e9		 shr	 ecx, 1
  00014	2b d1		 sub	 edx, ecx
  00016	3b d0		 cmp	 edx, eax
  00018	73 04		 jae	 SHORT $LN4@Grow_to@2
  0001a	33 c0		 xor	 eax, eax
  0001c	eb 02		 jmp	 SHORT $LN5@Grow_to@2
$LN4@Grow_to@2:
  0001e	03 c1		 add	 eax, ecx
$LN5@Grow_to@2:

; 1279 : 		if (_Capacity < _Count)

  00020	3b 45 08	 cmp	 eax, DWORD PTR __Count$[ebp]

; 1280 : 			_Capacity = _Count;

  00023	0f 42 45 08	 cmovb	 eax, DWORD PTR __Count$[ebp]

; 1281 : 		return (_Capacity);
; 1282 : 		}

  00027	5d		 pop	 ebp
  00028	c2 04 00	 ret	 4
?_Grow_to@?$vector@VioHashString@@V?$allocator@VioHashString@@@std@@@std@@IBEII@Z ENDP ; std::vector<ioHashString,std::allocator<ioHashString> >::_Grow_to
_TEXT	ENDS
PUBLIC	??$_Cons_val@V?$allocator@VioHashString@@@std@@VioHashString@@AAV3@@std@@YAXAAV?$allocator@VioHashString@@@0@PAVioHashString@@AAV2@@Z ; std::_Cons_val<std::allocator<ioHashString>,ioHashString,ioHashString &>
; Function compile flags: /Ogsp
; File c:\program files (x86)\microsoft visual studio 10.0\vc\include\xmemory
;	COMDAT ??$_Cons_val@V?$allocator@VioHashString@@@std@@VioHashString@@AAV3@@std@@YAXAAV?$allocator@VioHashString@@@0@PAVioHashString@@AAV2@@Z
_TEXT	SEGMENT
__Alval$ = 8						; size = 4
__Pdest$ = 12						; size = 4
__Src$ = 16						; size = 4
??$_Cons_val@V?$allocator@VioHashString@@@std@@VioHashString@@AAV3@@std@@YAXAAV?$allocator@VioHashString@@@0@PAVioHashString@@AAV2@@Z PROC ; std::_Cons_val<std::allocator<ioHashString>,ioHashString,ioHashString &>, COMDAT

; 279  : 	{	// construct using allocator

  00000	55		 push	 ebp
  00001	8b ec		 mov	 ebp, esp

; 280  : 	_Alval.construct(_Pdest, _STD forward<_Ty2>(_Src));

  00003	ff 75 10	 push	 DWORD PTR __Src$[ebp]
  00006	8b 4d 08	 mov	 ecx, DWORD PTR __Alval$[ebp]
  00009	ff 75 0c	 push	 DWORD PTR __Pdest$[ebp]
  0000c	e8 00 00 00 00	 call	 ??$construct@AAVioHashString@@@?$allocator@VioHashString@@@std@@QAEXPAVioHashString@@AAV2@@Z ; std::allocator<ioHashString>::construct<ioHashString &>

; 281  : 	}

  00011	5d		 pop	 ebp
  00012	c3		 ret	 0
??$_Cons_val@V?$allocator@VioHashString@@@std@@VioHashString@@AAV3@@std@@YAXAAV?$allocator@VioHashString@@@0@PAVioHashString@@AAV2@@Z ENDP ; std::_Cons_val<std::allocator<ioHashString>,ioHashString,ioHashString &>
_TEXT	ENDS
PUBLIC	??$_Cons_val@V?$allocator@UWoundedInfo@ioLeeSunSin@@@std@@UWoundedInfo@ioLeeSunSin@@AAU34@@std@@YAXAAV?$allocator@UWoundedInfo@ioLeeSunSin@@@0@PAUWoundedInfo@ioLeeSunSin@@AAU23@@Z ; std::_Cons_val<std::allocator<ioLeeSunSin::WoundedInfo>,ioLeeSunSin::WoundedInfo,ioLeeSunSin::WoundedInfo &>
;	COMDAT xdata$x
; File c:\program files (x86)\microsoft visual studio 10.0\vc\include\utility
xdata$x	SEGMENT
__unwindtable$??$_Cons_val@V?$allocator@UWoundedInfo@ioLeeSunSin@@@std@@UWoundedInfo@ioLeeSunSin@@AAU34@@std@@YAXAAV?$allocator@UWoundedInfo@ioLeeSunSin@@@0@PAUWoundedInfo@ioLeeSunSin@@AAU23@@Z DD 0ffffffffH
	DD	FLAT:__unwindfunclet$??$_Cons_val@V?$allocator@UWoundedInfo@ioLeeSunSin@@@std@@UWoundedInfo@ioLeeSunSin@@AAU34@@std@@YAXAAV?$allocator@UWoundedInfo@ioLeeSunSin@@@0@PAUWoundedInfo@ioLeeSunSin@@AAU23@@Z$0
__ehfuncinfo$??$_Cons_val@V?$allocator@UWoundedInfo@ioLeeSunSin@@@std@@UWoundedInfo@ioLeeSunSin@@AAU34@@std@@YAXAAV?$allocator@UWoundedInfo@ioLeeSunSin@@@0@PAUWoundedInfo@ioLeeSunSin@@AAU23@@Z DD 019930522H
	DD	01H
	DD	FLAT:__unwindtable$??$_Cons_val@V?$allocator@UWoundedInfo@ioLeeSunSin@@@std@@UWoundedInfo@ioLeeSunSin@@AAU34@@std@@YAXAAV?$allocator@UWoundedInfo@ioLeeSunSin@@@0@PAUWoundedInfo@ioLeeSunSin@@AAU23@@Z
	DD	2 DUP(00H)
	DD	2 DUP(00H)
	DD	00H
	DD	01H
; Function compile flags: /Ogsp
; File c:\program files (x86)\microsoft visual studio 10.0\vc\include\xmemory
xdata$x	ENDS
;	COMDAT ??$_Cons_val@V?$allocator@UWoundedInfo@ioLeeSunSin@@@std@@UWoundedInfo@ioLeeSunSin@@AAU34@@std@@YAXAAV?$allocator@UWoundedInfo@ioLeeSunSin@@@0@PAUWoundedInfo@ioLeeSunSin@@AAU23@@Z
_TEXT	SEGMENT
$T556076 = -16						; size = 4
__$EHRec$ = -12						; size = 12
__Alval$ = 8						; size = 4
__Pdest$ = 12						; size = 4
__Src$ = 16						; size = 4
??$_Cons_val@V?$allocator@UWoundedInfo@ioLeeSunSin@@@std@@UWoundedInfo@ioLeeSunSin@@AAU34@@std@@YAXAAV?$allocator@UWoundedInfo@ioLeeSunSin@@@0@PAUWoundedInfo@ioLeeSunSin@@AAU23@@Z PROC ; std::_Cons_val<std::allocator<ioLeeSunSin::WoundedInfo>,ioLeeSunSin::WoundedInfo,ioLeeSunSin::WoundedInfo &>, COMDAT

; 279  : 	{	// construct using allocator

  00000	6a 04		 push	 4
  00002	b8 00 00 00 00	 mov	 eax, __ehhandler$??$_Cons_val@V?$allocator@UWoundedInfo@ioLeeSunSin@@@std@@UWoundedInfo@ioLeeSunSin@@AAU34@@std@@YAXAAV?$allocator@UWoundedInfo@ioLeeSunSin@@@0@PAUWoundedInfo@ioLeeSunSin@@AAU23@@Z
  00007	e8 00 00 00 00	 call	 __EH_prolog3

; 280  : 	_Alval.construct(_Pdest, _STD forward<_Ty2>(_Src));

  0000c	8b 4d 0c	 mov	 ecx, DWORD PTR __Pdest$[ebp]
  0000f	89 4d f0	 mov	 DWORD PTR $T556076[ebp], ecx
  00012	83 65 fc 00	 and	 DWORD PTR __$EHRec$[ebp+8], 0
  00016	85 c9		 test	 ecx, ecx
  00018	74 08		 je	 SHORT $LN7@Cons_val
  0001a	ff 75 10	 push	 DWORD PTR __Src$[ebp]
  0001d	e8 00 00 00 00	 call	 ??0WoundedInfo@ioLeeSunSin@@QAE@ABU01@@Z
$LN7@Cons_val:

; 281  : 	}

  00022	e8 00 00 00 00	 call	 __EH_epilog3
  00027	c3		 ret	 0
_TEXT	ENDS
;	COMDAT text$x
text$x	SEGMENT
__unwindfunclet$??$_Cons_val@V?$allocator@UWoundedInfo@ioLeeSunSin@@@std@@UWoundedInfo@ioLeeSunSin@@AAU34@@std@@YAXAAV?$allocator@UWoundedInfo@ioLeeSunSin@@@0@PAUWoundedInfo@ioLeeSunSin@@AAU23@@Z$0:
  00000	ff 75 0c	 push	 DWORD PTR __Pdest$[ebp]
  00003	ff 75 f0	 push	 DWORD PTR $T556076[ebp]
  00006	e8 00 00 00 00	 call	 ??3@YAXPAX0@Z		; operator delete
  0000b	59		 pop	 ecx
  0000c	59		 pop	 ecx
  0000d	c3		 ret	 0
__ehhandler$??$_Cons_val@V?$allocator@UWoundedInfo@ioLeeSunSin@@@std@@UWoundedInfo@ioLeeSunSin@@AAU34@@std@@YAXAAV?$allocator@UWoundedInfo@ioLeeSunSin@@@0@PAUWoundedInfo@ioLeeSunSin@@AAU23@@Z:
  0000e	8b 54 24 08	 mov	 edx, DWORD PTR [esp+8]
  00012	8d 42 0c	 lea	 eax, DWORD PTR [edx+12]
  00015	8b 4a ec	 mov	 ecx, DWORD PTR [edx-20]
  00018	33 c8		 xor	 ecx, eax
  0001a	e8 00 00 00 00	 call	 @__security_check_cookie@4
  0001f	b8 00 00 00 00	 mov	 eax, OFFSET __ehfuncinfo$??$_Cons_val@V?$allocator@UWoundedInfo@ioLeeSunSin@@@std@@UWoundedInfo@ioLeeSunSin@@AAU34@@std@@YAXAAV?$allocator@UWoundedInfo@ioLeeSunSin@@@0@PAUWoundedInfo@ioLeeSunSin@@AAU23@@Z
  00024	e9 00 00 00 00	 jmp	 ___CxxFrameHandler3
text$x	ENDS
??$_Cons_val@V?$allocator@UWoundedInfo@ioLeeSunSin@@@std@@UWoundedInfo@ioLeeSunSin@@AAU34@@std@@YAXAAV?$allocator@UWoundedInfo@ioLeeSunSin@@@0@PAUWoundedInfo@ioLeeSunSin@@AAU23@@Z ENDP ; std::_Cons_val<std::allocator<ioLeeSunSin::WoundedInfo>,ioLeeSunSin::WoundedInfo,ioLeeSunSin::WoundedInfo &>
PUBLIC	?construct@?$allocator@UWoundedInfo@ioLeeSunSin@@@std@@QAEXPAUWoundedInfo@ioLeeSunSin@@ABU34@@Z ; std::allocator<ioLeeSunSin::WoundedInfo>::construct
; Function compile flags: /Ogsp
;	COMDAT ?construct@?$allocator@UWoundedInfo@ioLeeSunSin@@@std@@QAEXPAUWoundedInfo@ioLeeSunSin@@ABU34@@Z
_TEXT	SEGMENT
__Ptr$ = 8						; size = 4
__Val$ = 12						; size = 4
?construct@?$allocator@UWoundedInfo@ioLeeSunSin@@@std@@QAEXPAUWoundedInfo@ioLeeSunSin@@ABU34@@Z PROC ; std::allocator<ioLeeSunSin::WoundedInfo>::construct, COMDAT
; _this$ = ecx

; 196  : 		{	// construct object at _Ptr with value _Val

  00000	55		 push	 ebp
  00001	8b ec		 mov	 ebp, esp

; 197  : 		_Construct(_Ptr, _Val);

  00003	ff 75 0c	 push	 DWORD PTR __Val$[ebp]
  00006	ff 75 08	 push	 DWORD PTR __Ptr$[ebp]
  00009	e8 00 00 00 00	 call	 ??$_Construct@UWoundedInfo@ioLeeSunSin@@ABU12@@std@@YAXPAUWoundedInfo@ioLeeSunSin@@ABU12@@Z ; std::_Construct<ioLeeSunSin::WoundedInfo,ioLeeSunSin::WoundedInfo const &>
  0000e	59		 pop	 ecx
  0000f	59		 pop	 ecx

; 198  : 		}

  00010	5d		 pop	 ebp
  00011	c2 08 00	 ret	 8
?construct@?$allocator@UWoundedInfo@ioLeeSunSin@@@std@@QAEXPAUWoundedInfo@ioLeeSunSin@@ABU34@@Z ENDP ; std::allocator<ioLeeSunSin::WoundedInfo>::construct
_TEXT	ENDS
PUBLIC	?destroy@?$allocator@UWoundedInfo@ioLeeSunSin@@@std@@QAEXPAUWoundedInfo@ioLeeSunSin@@@Z ; std::allocator<ioLeeSunSin::WoundedInfo>::destroy
; Function compile flags: /Ogsp
;	COMDAT ?destroy@?$allocator@UWoundedInfo@ioLeeSunSin@@@std@@QAEXPAUWoundedInfo@ioLeeSunSin@@@Z
_TEXT	SEGMENT
__Ptr$ = 8						; size = 4
?destroy@?$allocator@UWoundedInfo@ioLeeSunSin@@@std@@QAEXPAUWoundedInfo@ioLeeSunSin@@@Z PROC ; std::allocator<ioLeeSunSin::WoundedInfo>::destroy, COMDAT
; _this$ = ecx

; 212  : 		{	// destroy object at _Ptr

  00000	55		 push	 ebp
  00001	8b ec		 mov	 ebp, esp

; 213  : 		_Destroy(_Ptr);

  00003	8b 4d 08	 mov	 ecx, DWORD PTR __Ptr$[ebp]
  00006	83 c1 0c	 add	 ecx, 12			; 0000000cH
  00009	ff 15 00 00 00
	00		 call	 DWORD PTR __imp_??1ioHashString@@QAE@XZ

; 214  : 		}

  0000f	5d		 pop	 ebp
  00010	c2 04 00	 ret	 4
?destroy@?$allocator@UWoundedInfo@ioLeeSunSin@@@std@@QAEXPAUWoundedInfo@ioLeeSunSin@@@Z ENDP ; std::allocator<ioLeeSunSin::WoundedInfo>::destroy
_TEXT	ENDS
PUBLIC	??$_Cons_val@V?$allocator@UForceInfo@@@std@@UForceInfo@@ABU3@@std@@YAXAAV?$allocator@UForceInfo@@@0@PAUForceInfo@@ABU2@@Z ; std::_Cons_val<std::allocator<ForceInfo>,ForceInfo,ForceInfo const &>
; Function compile flags: /Ogsp
;	COMDAT ??$_Cons_val@V?$allocator@UForceInfo@@@std@@UForceInfo@@ABU3@@std@@YAXAAV?$allocator@UForceInfo@@@0@PAUForceInfo@@ABU2@@Z
_TEXT	SEGMENT
__Alval$ = 8						; size = 4
__Pdest$ = 12						; size = 4
__Src$ = 16						; size = 4
??$_Cons_val@V?$allocator@UForceInfo@@@std@@UForceInfo@@ABU3@@std@@YAXAAV?$allocator@UForceInfo@@@0@PAUForceInfo@@ABU2@@Z PROC ; std::_Cons_val<std::allocator<ForceInfo>,ForceInfo,ForceInfo const &>, COMDAT

; 279  : 	{	// construct using allocator

  00000	55		 push	 ebp
  00001	8b ec		 mov	 ebp, esp
  00003	57		 push	 edi

; 280  : 	_Alval.construct(_Pdest, _STD forward<_Ty2>(_Src));

  00004	8b 7d 0c	 mov	 edi, DWORD PTR __Pdest$[ebp]
  00007	85 ff		 test	 edi, edi
  00009	74 08		 je	 SHORT $LN9@Cons_val@2
  0000b	56		 push	 esi
  0000c	8b 75 10	 mov	 esi, DWORD PTR __Src$[ebp]
  0000f	a5		 movsd
  00010	a5		 movsd
  00011	a5		 movsd
  00012	5e		 pop	 esi
$LN9@Cons_val@2:
  00013	5f		 pop	 edi

; 281  : 	}

  00014	5d		 pop	 ebp
  00015	c3		 ret	 0
??$_Cons_val@V?$allocator@UForceInfo@@@std@@UForceInfo@@ABU3@@std@@YAXAAV?$allocator@UForceInfo@@@0@PAUForceInfo@@ABU2@@Z ENDP ; std::_Cons_val<std::allocator<ForceInfo>,ForceInfo,ForceInfo const &>
_TEXT	ENDS
PUBLIC	??$_Cons_val@V?$allocator@VioHashString@@@std@@VioHashString@@V3@@std@@YAXAAV?$allocator@VioHashString@@@0@PAVioHashString@@$$QAV2@@Z ; std::_Cons_val<std::allocator<ioHashString>,ioHashString,ioHashString>
; Function compile flags: /Ogsp
;	COMDAT ??$_Cons_val@V?$allocator@VioHashString@@@std@@VioHashString@@V3@@std@@YAXAAV?$allocator@VioHashString@@@0@PAVioHashString@@$$QAV2@@Z
_TEXT	SEGMENT
__Alval$ = 8						; size = 4
__Pdest$ = 12						; size = 4
__Src$ = 16						; size = 4
??$_Cons_val@V?$allocator@VioHashString@@@std@@VioHashString@@V3@@std@@YAXAAV?$allocator@VioHashString@@@0@PAVioHashString@@$$QAV2@@Z PROC ; std::_Cons_val<std::allocator<ioHashString>,ioHashString,ioHashString>, COMDAT

; 279  : 	{	// construct using allocator

  00000	55		 push	 ebp
  00001	8b ec		 mov	 ebp, esp

; 280  : 	_Alval.construct(_Pdest, _STD forward<_Ty2>(_Src));

  00003	ff 75 10	 push	 DWORD PTR __Src$[ebp]
  00006	8b 4d 08	 mov	 ecx, DWORD PTR __Alval$[ebp]
  00009	ff 75 0c	 push	 DWORD PTR __Pdest$[ebp]
  0000c	e8 00 00 00 00	 call	 ?construct@?$allocator@VioHashString@@@std@@QAEXPAVioHashString@@$$QAV3@@Z ; std::allocator<ioHashString>::construct

; 281  : 	}

  00011	5d		 pop	 ebp
  00012	c3		 ret	 0
??$_Cons_val@V?$allocator@VioHashString@@@std@@VioHashString@@V3@@std@@YAXAAV?$allocator@VioHashString@@@0@PAVioHashString@@$$QAV2@@Z ENDP ; std::_Cons_val<std::allocator<ioHashString>,ioHashString,ioHashString>
_TEXT	ENDS
PUBLIC	??$_Cons_val@V?$allocator@UWoundedInfo@ioLeeSunSin@@@std@@UWoundedInfo@ioLeeSunSin@@U34@@std@@YAXAAV?$allocator@UWoundedInfo@ioLeeSunSin@@@0@PAUWoundedInfo@ioLeeSunSin@@$$QAU23@@Z ; std::_Cons_val<std::allocator<ioLeeSunSin::WoundedInfo>,ioLeeSunSin::WoundedInfo,ioLeeSunSin::WoundedInfo>
;	COMDAT xdata$x
; File c:\program files (x86)\microsoft visual studio 10.0\vc\include\utility
xdata$x	SEGMENT
__unwindtable$??$_Cons_val@V?$allocator@UWoundedInfo@ioLeeSunSin@@@std@@UWoundedInfo@ioLeeSunSin@@U34@@std@@YAXAAV?$allocator@UWoundedInfo@ioLeeSunSin@@@0@PAUWoundedInfo@ioLeeSunSin@@$$QAU23@@Z DD 0ffffffffH
	DD	FLAT:__unwindfunclet$??$_Cons_val@V?$allocator@UWoundedInfo@ioLeeSunSin@@@std@@UWoundedInfo@ioLeeSunSin@@U34@@std@@YAXAAV?$allocator@UWoundedInfo@ioLeeSunSin@@@0@PAUWoundedInfo@ioLeeSunSin@@$$QAU23@@Z$0
__ehfuncinfo$??$_Cons_val@V?$allocator@UWoundedInfo@ioLeeSunSin@@@std@@UWoundedInfo@ioLeeSunSin@@U34@@std@@YAXAAV?$allocator@UWoundedInfo@ioLeeSunSin@@@0@PAUWoundedInfo@ioLeeSunSin@@$$QAU23@@Z DD 019930522H
	DD	01H
	DD	FLAT:__unwindtable$??$_Cons_val@V?$allocator@UWoundedInfo@ioLeeSunSin@@@std@@UWoundedInfo@ioLeeSunSin@@U34@@std@@YAXAAV?$allocator@UWoundedInfo@ioLeeSunSin@@@0@PAUWoundedInfo@ioLeeSunSin@@$$QAU23@@Z
	DD	2 DUP(00H)
	DD	2 DUP(00H)
	DD	00H
	DD	01H
; Function compile flags: /Ogsp
; File c:\program files (x86)\microsoft visual studio 10.0\vc\include\xmemory
xdata$x	ENDS
;	COMDAT ??$_Cons_val@V?$allocator@UWoundedInfo@ioLeeSunSin@@@std@@UWoundedInfo@ioLeeSunSin@@U34@@std@@YAXAAV?$allocator@UWoundedInfo@ioLeeSunSin@@@0@PAUWoundedInfo@ioLeeSunSin@@$$QAU23@@Z
_TEXT	SEGMENT
$T556176 = -16						; size = 4
__$EHRec$ = -12						; size = 12
__Alval$ = 8						; size = 4
__Pdest$ = 12						; size = 4
__Src$ = 16						; size = 4
??$_Cons_val@V?$allocator@UWoundedInfo@ioLeeSunSin@@@std@@UWoundedInfo@ioLeeSunSin@@U34@@std@@YAXAAV?$allocator@UWoundedInfo@ioLeeSunSin@@@0@PAUWoundedInfo@ioLeeSunSin@@$$QAU23@@Z PROC ; std::_Cons_val<std::allocator<ioLeeSunSin::WoundedInfo>,ioLeeSunSin::WoundedInfo,ioLeeSunSin::WoundedInfo>, COMDAT

; 279  : 	{	// construct using allocator

  00000	6a 04		 push	 4
  00002	b8 00 00 00 00	 mov	 eax, __ehhandler$??$_Cons_val@V?$allocator@UWoundedInfo@ioLeeSunSin@@@std@@UWoundedInfo@ioLeeSunSin@@U34@@std@@YAXAAV?$allocator@UWoundedInfo@ioLeeSunSin@@@0@PAUWoundedInfo@ioLeeSunSin@@$$QAU23@@Z
  00007	e8 00 00 00 00	 call	 __EH_prolog3

; 280  : 	_Alval.construct(_Pdest, _STD forward<_Ty2>(_Src));

  0000c	8b 4d 0c	 mov	 ecx, DWORD PTR __Pdest$[ebp]
  0000f	89 4d f0	 mov	 DWORD PTR $T556176[ebp], ecx
  00012	83 65 fc 00	 and	 DWORD PTR __$EHRec$[ebp+8], 0
  00016	85 c9		 test	 ecx, ecx
  00018	74 08		 je	 SHORT $LN7@Cons_val@3
  0001a	ff 75 10	 push	 DWORD PTR __Src$[ebp]
  0001d	e8 00 00 00 00	 call	 ??0WoundedInfo@ioLeeSunSin@@QAE@ABU01@@Z
$LN7@Cons_val@3:

; 281  : 	}

  00022	e8 00 00 00 00	 call	 __EH_epilog3
  00027	c3		 ret	 0
_TEXT	ENDS
;	COMDAT text$x
text$x	SEGMENT
__unwindfunclet$??$_Cons_val@V?$allocator@UWoundedInfo@ioLeeSunSin@@@std@@UWoundedInfo@ioLeeSunSin@@U34@@std@@YAXAAV?$allocator@UWoundedInfo@ioLeeSunSin@@@0@PAUWoundedInfo@ioLeeSunSin@@$$QAU23@@Z$0:
  00000	ff 75 0c	 push	 DWORD PTR __Pdest$[ebp]
  00003	ff 75 f0	 push	 DWORD PTR $T556176[ebp]
  00006	e8 00 00 00 00	 call	 ??3@YAXPAX0@Z		; operator delete
  0000b	59		 pop	 ecx
  0000c	59		 pop	 ecx
  0000d	c3		 ret	 0
__ehhandler$??$_Cons_val@V?$allocator@UWoundedInfo@ioLeeSunSin@@@std@@UWoundedInfo@ioLeeSunSin@@U34@@std@@YAXAAV?$allocator@UWoundedInfo@ioLeeSunSin@@@0@PAUWoundedInfo@ioLeeSunSin@@$$QAU23@@Z:
  0000e	8b 54 24 08	 mov	 edx, DWORD PTR [esp+8]
  00012	8d 42 0c	 lea	 eax, DWORD PTR [edx+12]
  00015	8b 4a ec	 mov	 ecx, DWORD PTR [edx-20]
  00018	33 c8		 xor	 ecx, eax
  0001a	e8 00 00 00 00	 call	 @__security_check_cookie@4
  0001f	b8 00 00 00 00	 mov	 eax, OFFSET __ehfuncinfo$??$_Cons_val@V?$allocator@UWoundedInfo@ioLeeSunSin@@@std@@UWoundedInfo@ioLeeSunSin@@U34@@std@@YAXAAV?$allocator@UWoundedInfo@ioLeeSunSin@@@0@PAUWoundedInfo@ioLeeSunSin@@$$QAU23@@Z
  00024	e9 00 00 00 00	 jmp	 ___CxxFrameHandler3
text$x	ENDS
??$_Cons_val@V?$allocator@UWoundedInfo@ioLeeSunSin@@@std@@UWoundedInfo@ioLeeSunSin@@U34@@std@@YAXAAV?$allocator@UWoundedInfo@ioLeeSunSin@@@0@PAUWoundedInfo@ioLeeSunSin@@$$QAU23@@Z ENDP ; std::_Cons_val<std::allocator<ioLeeSunSin::WoundedInfo>,ioLeeSunSin::WoundedInfo,ioLeeSunSin::WoundedInfo>
PUBLIC	?construct@?$allocator@UWeaponInfo@@@std@@QAEXPAUWeaponInfo@@ABU3@@Z ; std::allocator<WeaponInfo>::construct
; Function compile flags: /Ogsp
;	COMDAT ?construct@?$allocator@UWeaponInfo@@@std@@QAEXPAUWeaponInfo@@ABU3@@Z
_TEXT	SEGMENT
__Ptr$ = 8						; size = 4
__Val$ = 12						; size = 4
?construct@?$allocator@UWeaponInfo@@@std@@QAEXPAUWeaponInfo@@ABU3@@Z PROC ; std::allocator<WeaponInfo>::construct, COMDAT
; _this$ = ecx

; 196  : 		{	// construct object at _Ptr with value _Val

  00000	55		 push	 ebp
  00001	8b ec		 mov	 ebp, esp

; 197  : 		_Construct(_Ptr, _Val);

  00003	ff 75 0c	 push	 DWORD PTR __Val$[ebp]
  00006	ff 75 08	 push	 DWORD PTR __Ptr$[ebp]
  00009	e8 00 00 00 00	 call	 ??$_Construct@UWeaponInfo@@ABU1@@std@@YAXPAUWeaponInfo@@ABU1@@Z ; std::_Construct<WeaponInfo,WeaponInfo const &>
  0000e	59		 pop	 ecx
  0000f	59		 pop	 ecx

; 198  : 		}

  00010	5d		 pop	 ebp
  00011	c2 08 00	 ret	 8
?construct@?$allocator@UWeaponInfo@@@std@@QAEXPAUWeaponInfo@@ABU3@@Z ENDP ; std::allocator<WeaponInfo>::construct
_TEXT	ENDS
PUBLIC	??0?$vector@VioHashString@@V?$allocator@VioHashString@@@std@@@std@@QAE@XZ ; std::vector<ioHashString,std::allocator<ioHashString> >::vector<ioHashString,std::allocator<ioHashString> >
; Function compile flags: /Ogsp
; File c:\program files (x86)\microsoft visual studio 10.0\vc\include\vector
;	COMDAT ??0?$vector@VioHashString@@V?$allocator@VioHashString@@@std@@@std@@QAE@XZ
_TEXT	SEGMENT
??0?$vector@VioHashString@@V?$allocator@VioHashString@@@std@@@std@@QAE@XZ PROC ; std::vector<ioHashString,std::allocator<ioHashString> >::vector<ioHashString,std::allocator<ioHashString> >, COMDAT
; _this$ = ecx

; 507  : 		{	// construct empty vector

  00000	8b c1		 mov	 eax, ecx
  00002	33 c9		 xor	 ecx, ecx
  00004	89 08		 mov	 DWORD PTR [eax], ecx
  00006	89 48 04	 mov	 DWORD PTR [eax+4], ecx
  00009	89 48 08	 mov	 DWORD PTR [eax+8], ecx

; 508  : 		}

  0000c	c3		 ret	 0
??0?$vector@VioHashString@@V?$allocator@VioHashString@@@std@@@std@@QAE@XZ ENDP ; std::vector<ioHashString,std::allocator<ioHashString> >::vector<ioHashString,std::allocator<ioHashString> >
_TEXT	ENDS
PUBLIC	??0?$vector@UWeaponInfo@@V?$allocator@UWeaponInfo@@@std@@@std@@QAE@XZ ; std::vector<WeaponInfo,std::allocator<WeaponInfo> >::vector<WeaponInfo,std::allocator<WeaponInfo> >
; Function compile flags: /Ogsp
;	COMDAT ??0?$vector@UWeaponInfo@@V?$allocator@UWeaponInfo@@@std@@@std@@QAE@XZ
_TEXT	SEGMENT
??0?$vector@UWeaponInfo@@V?$allocator@UWeaponInfo@@@std@@@std@@QAE@XZ PROC ; std::vector<WeaponInfo,std::allocator<WeaponInfo> >::vector<WeaponInfo,std::allocator<WeaponInfo> >, COMDAT
; _this$ = ecx

; 507  : 		{	// construct empty vector

  00000	8b c1		 mov	 eax, ecx
  00002	33 c9		 xor	 ecx, ecx
  00004	89 08		 mov	 DWORD PTR [eax], ecx
  00006	89 48 04	 mov	 DWORD PTR [eax+4], ecx
  00009	89 48 08	 mov	 DWORD PTR [eax+8], ecx

; 508  : 		}

  0000c	c3		 ret	 0
??0?$vector@UWeaponInfo@@V?$allocator@UWeaponInfo@@@std@@@std@@QAE@XZ ENDP ; std::vector<WeaponInfo,std::allocator<WeaponInfo> >::vector<WeaponInfo,std::allocator<WeaponInfo> >
_TEXT	ENDS
PUBLIC	??0?$vector@UForceInfo@@V?$allocator@UForceInfo@@@std@@@std@@QAE@XZ ; std::vector<ForceInfo,std::allocator<ForceInfo> >::vector<ForceInfo,std::allocator<ForceInfo> >
; Function compile flags: /Ogsp
;	COMDAT ??0?$vector@UForceInfo@@V?$allocator@UForceInfo@@@std@@@std@@QAE@XZ
_TEXT	SEGMENT
??0?$vector@UForceInfo@@V?$allocator@UForceInfo@@@std@@@std@@QAE@XZ PROC ; std::vector<ForceInfo,std::allocator<ForceInfo> >::vector<ForceInfo,std::allocator<ForceInfo> >, COMDAT
; _this$ = ecx

; 507  : 		{	// construct empty vector

  00000	8b c1		 mov	 eax, ecx
  00002	33 c9		 xor	 ecx, ecx
  00004	89 08		 mov	 DWORD PTR [eax], ecx
  00006	89 48 04	 mov	 DWORD PTR [eax+4], ecx
  00009	89 48 08	 mov	 DWORD PTR [eax+8], ecx

; 508  : 		}

  0000c	c3		 ret	 0
??0?$vector@UForceInfo@@V?$allocator@UForceInfo@@@std@@@std@@QAE@XZ ENDP ; std::vector<ForceInfo,std::allocator<ForceInfo> >::vector<ForceInfo,std::allocator<ForceInfo> >
_TEXT	ENDS
PUBLIC	??0?$CEncrypt@M@@QAE@ABV0@@Z			; CEncrypt<float>::CEncrypt<float>
;	COMDAT xdata$x
; File d:\lost saga for developer\youtube\tutorial\source\src\lsclient\encryptvalue.h
xdata$x	SEGMENT
__unwindtable$??0?$CEncrypt@M@@QAE@ABV0@@Z DD 0ffffffffH
	DD	FLAT:__unwindfunclet$??0?$CEncrypt@M@@QAE@ABV0@@Z$0
__ehfuncinfo$??0?$CEncrypt@M@@QAE@ABV0@@Z DD 019930522H
	DD	01H
	DD	FLAT:__unwindtable$??0?$CEncrypt@M@@QAE@ABV0@@Z
	DD	2 DUP(00H)
	DD	2 DUP(00H)
	DD	00H
	DD	01H
; Function compile flags: /Ogsp
xdata$x	ENDS
;	COMDAT ??0?$CEncrypt@M@@QAE@ABV0@@Z
_TEXT	SEGMENT
_this$ = -16						; size = 4
__$EHRec$ = -12						; size = 12
_value$556254 = 8					; size = 4
_value$556249 = 8					; size = 4
_inValue$ = 8						; size = 4
??0?$CEncrypt@M@@QAE@ABV0@@Z PROC			; CEncrypt<float>::CEncrypt<float>, COMDAT
; _this$ = ecx

; 120  : 	CEncrypt( const CEncrypt<type> &inValue )   //     

  00000	6a 04		 push	 4
  00002	b8 00 00 00 00	 mov	 eax, __ehhandler$??0?$CEncrypt@M@@QAE@ABV0@@Z
  00007	e8 00 00 00 00	 call	 __EH_prolog3
  0000c	8b f1		 mov	 esi, ecx
  0000e	89 75 f0	 mov	 DWORD PTR _this$[ebp], esi
  00011	8d 4e 0c	 lea	 ecx, DWORD PTR [esi+12]
  00014	c7 06 00 00 00
	00		 mov	 DWORD PTR [esi], OFFSET ??_7?$CEncrypt@M@@6B@
  0001a	e8 00 00 00 00	 call	 ??0ccddaabb@@QAE@XZ	; ccddaabb::ccddaabb
  0001f	83 65 fc 00	 and	 DWORD PTR __$EHRec$[ebp+8], 0

; 121  : 	{
; 122  : 		Init();

  00023	8b ce		 mov	 ecx, esi
  00025	e8 00 00 00 00	 call	 ?Init@?$CEncrypt@M@@AAEXXZ ; CEncrypt<float>::Init

; 123  : 		*this = inValue;

  0002a	8b 4d 08	 mov	 ecx, DWORD PTR _inValue$[ebp]
  0002d	8d 45 08	 lea	 eax, DWORD PTR _value$556249[ebp]
  00030	50		 push	 eax
  00031	e8 00 00 00 00	 call	 ?DecryptValueToPool@?$CEncrypt@M@@QAEXPAM@Z ; CEncrypt<float>::DecryptValueToPool
  00036	f3 0f 10 45 08	 movss	 xmm0, DWORD PTR _value$556249[ebp]
  0003b	8d 45 08	 lea	 eax, DWORD PTR _value$556254[ebp]
  0003e	50		 push	 eax
  0003f	8b ce		 mov	 ecx, esi
  00041	f3 0f 11 45 08	 movss	 DWORD PTR _value$556254[ebp], xmm0
  00046	e8 00 00 00 00	 call	 ?EncryptValueToPool@?$CEncrypt@M@@AAEXPBD@Z ; CEncrypt<float>::EncryptValueToPool

; 124  : 	}

  0004b	8b c6		 mov	 eax, esi
  0004d	e8 00 00 00 00	 call	 __EH_epilog3
  00052	c2 04 00	 ret	 4
_TEXT	ENDS
;	COMDAT text$x
text$x	SEGMENT
__unwindfunclet$??0?$CEncrypt@M@@QAE@ABV0@@Z$0:
  00000	8b 4d f0	 mov	 ecx, DWORD PTR _this$[ebp]
  00003	83 c1 0c	 add	 ecx, 12			; 0000000cH
  00006	e9 00 00 00 00	 jmp	 ??1ccddaabb@@UAE@XZ	; ccddaabb::~ccddaabb
__ehhandler$??0?$CEncrypt@M@@QAE@ABV0@@Z:
  0000b	8b 54 24 08	 mov	 edx, DWORD PTR [esp+8]
  0000f	8d 42 0c	 lea	 eax, DWORD PTR [edx+12]
  00012	8b 4a ec	 mov	 ecx, DWORD PTR [edx-20]
  00015	33 c8		 xor	 ecx, eax
  00017	e8 00 00 00 00	 call	 @__security_check_cookie@4
  0001c	b8 00 00 00 00	 mov	 eax, OFFSET __ehfuncinfo$??0?$CEncrypt@M@@QAE@ABV0@@Z
  00021	e9 00 00 00 00	 jmp	 ___CxxFrameHandler3
text$x	ENDS
??0?$CEncrypt@M@@QAE@ABV0@@Z ENDP			; CEncrypt<float>::CEncrypt<float>
PUBLIC	?_Buy@?$vector@VioHashString@@V?$allocator@VioHashString@@@std@@@std@@IAE_NI@Z ; std::vector<ioHashString,std::allocator<ioHashString> >::_Buy
; Function compile flags: /Ogsp
; File c:\program files (x86)\microsoft visual studio 10.0\vc\include\vector
;	COMDAT ?_Buy@?$vector@VioHashString@@V?$allocator@VioHashString@@@std@@@std@@IAE_NI@Z
_TEXT	SEGMENT
__Capacity$ = 8						; size = 4
?_Buy@?$vector@VioHashString@@V?$allocator@VioHashString@@@std@@@std@@IAE_NI@Z PROC ; std::vector<ioHashString,std::allocator<ioHashString> >::_Buy, COMDAT
; _this$ = ecx

; 1250 : 		{	// allocate array with _Capacity elements

  00000	55		 push	 ebp
  00001	8b ec		 mov	 ebp, esp
  00003	56		 push	 esi

; 1251 : 		this->_Myfirst = 0;

  00004	33 c0		 xor	 eax, eax
  00006	57		 push	 edi

; 1252 : 		this->_Mylast = 0;
; 1253 : 		this->_Myend = 0;
; 1254 : 
; 1255 : 		if (_Capacity == 0)

  00007	8b 7d 08	 mov	 edi, DWORD PTR __Capacity$[ebp]
  0000a	8b f1		 mov	 esi, ecx
  0000c	89 06		 mov	 DWORD PTR [esi], eax
  0000e	89 46 04	 mov	 DWORD PTR [esi+4], eax
  00011	89 46 08	 mov	 DWORD PTR [esi+8], eax
  00014	3b f8		 cmp	 edi, eax
  00016	75 04		 jne	 SHORT $LN4@Buy@2

; 1256 : 			return (false);

  00018	32 c0		 xor	 al, al
  0001a	eb 2b		 jmp	 SHORT $LN5@Buy@2
$LN4@Buy@2:

; 1257 : 		else if (max_size() < _Capacity)

  0001c	81 ff ff ff ff
	0f		 cmp	 edi, 268435455		; 0fffffffH
  00022	76 0b		 jbe	 SHORT $LN2@Buy@2

; 1258 : 			_Xlen();	// result too long

  00024	68 00 00 00 00	 push	 OFFSET ??_C@_0BD@OLBABOEK@vector?$DMT?$DO?5too?5long?$AA@
  00029	ff 15 00 00 00
	00		 call	 DWORD PTR __imp_?_Xlength_error@std@@YAXPBD@Z
$LN19@Buy@2:
$LN2@Buy@2:

; 1259 : 		else
; 1260 : 			{	// nonempty array, allocate storage
; 1261 : 			this->_Myfirst = this->_Alval.allocate(_Capacity);

  0002f	50		 push	 eax
  00030	57		 push	 edi
  00031	e8 00 00 00 00	 call	 ??$_Allocate@VioHashString@@@std@@YAPAVioHashString@@IPAV1@@Z ; std::_Allocate<ioHashString>

; 1262 : 			this->_Mylast = this->_Myfirst;
; 1263 : 			this->_Myend = this->_Myfirst + _Capacity;

  00036	c1 e7 04	 shl	 edi, 4
  00039	03 f8		 add	 edi, eax
  0003b	59		 pop	 ecx
  0003c	89 06		 mov	 DWORD PTR [esi], eax
  0003e	89 46 04	 mov	 DWORD PTR [esi+4], eax
  00041	59		 pop	 ecx
  00042	89 7e 08	 mov	 DWORD PTR [esi+8], edi

; 1264 : 			}
; 1265 : 		return (true);

  00045	b0 01		 mov	 al, 1
$LN5@Buy@2:
  00047	5f		 pop	 edi
  00048	5e		 pop	 esi

; 1266 : 		}

  00049	5d		 pop	 ebp
  0004a	c2 04 00	 ret	 4
$LN18@Buy@2:
?_Buy@?$vector@VioHashString@@V?$allocator@VioHashString@@@std@@@std@@IAE_NI@Z ENDP ; std::vector<ioHashString,std::allocator<ioHashString> >::_Buy
_TEXT	ENDS
PUBLIC	??9?$_Vector_const_iterator@V?$_Vector_val@VioHashString@@V?$allocator@VioHashString@@@std@@@std@@@std@@QBE_NABV01@@Z ; std::_Vector_const_iterator<std::_Vector_val<ioHashString,std::allocator<ioHashString> > >::operator!=
; Function compile flags: /Ogsp
;	COMDAT ??9?$_Vector_const_iterator@V?$_Vector_val@VioHashString@@V?$allocator@VioHashString@@@std@@@std@@@std@@QBE_NABV01@@Z
_TEXT	SEGMENT
__Right$ = 8						; size = 4
??9?$_Vector_const_iterator@V?$_Vector_val@VioHashString@@V?$allocator@VioHashString@@@std@@@std@@@std@@QBE_NABV01@@Z PROC ; std::_Vector_const_iterator<std::_Vector_val<ioHashString,std::allocator<ioHashString> > >::operator!=, COMDAT
; _this$ = ecx

; 207  : 		{	// test for iterator inequality

  00000	55		 push	 ebp
  00001	8b ec		 mov	 ebp, esp

; 208  : 		return (!(*this == _Right));

  00003	8b 01		 mov	 eax, DWORD PTR [ecx]
  00005	8b 55 08	 mov	 edx, DWORD PTR __Right$[ebp]
  00008	33 c9		 xor	 ecx, ecx
  0000a	3b 02		 cmp	 eax, DWORD PTR [edx]
  0000c	0f 95 c0	 setne	 al

; 209  : 		}

  0000f	5d		 pop	 ebp
  00010	c2 04 00	 ret	 4
??9?$_Vector_const_iterator@V?$_Vector_val@VioHashString@@V?$allocator@VioHashString@@@std@@@std@@@std@@QBE_NABV01@@Z ENDP ; std::_Vector_const_iterator<std::_Vector_val<ioHashString,std::allocator<ioHashString> > >::operator!=
_TEXT	ENDS
PUBLIC	?_Buy@?$vector@UWeaponInfo@@V?$allocator@UWeaponInfo@@@std@@@std@@IAE_NI@Z ; std::vector<WeaponInfo,std::allocator<WeaponInfo> >::_Buy
; Function compile flags: /Ogsp
;	COMDAT ?_Buy@?$vector@UWeaponInfo@@V?$allocator@UWeaponInfo@@@std@@@std@@IAE_NI@Z
_TEXT	SEGMENT
__Capacity$ = 8						; size = 4
?_Buy@?$vector@UWeaponInfo@@V?$allocator@UWeaponInfo@@@std@@@std@@IAE_NI@Z PROC ; std::vector<WeaponInfo,std::allocator<WeaponInfo> >::_Buy, COMDAT
; _this$ = ecx

; 1250 : 		{	// allocate array with _Capacity elements

  00000	55		 push	 ebp
  00001	8b ec		 mov	 ebp, esp
  00003	56		 push	 esi

; 1251 : 		this->_Myfirst = 0;

  00004	33 c0		 xor	 eax, eax
  00006	57		 push	 edi

; 1252 : 		this->_Mylast = 0;
; 1253 : 		this->_Myend = 0;
; 1254 : 
; 1255 : 		if (_Capacity == 0)

  00007	8b 7d 08	 mov	 edi, DWORD PTR __Capacity$[ebp]
  0000a	8b f1		 mov	 esi, ecx
  0000c	89 06		 mov	 DWORD PTR [esi], eax
  0000e	89 46 04	 mov	 DWORD PTR [esi+4], eax
  00011	89 46 08	 mov	 DWORD PTR [esi+8], eax
  00014	3b f8		 cmp	 edi, eax
  00016	75 04		 jne	 SHORT $LN4@Buy@3

; 1256 : 			return (false);

  00018	32 c0		 xor	 al, al
  0001a	eb 2b		 jmp	 SHORT $LN5@Buy@3
$LN4@Buy@3:

; 1257 : 		else if (max_size() < _Capacity)

  0001c	81 ff 66 66 66
	06		 cmp	 edi, 107374182		; 06666666H
  00022	76 0b		 jbe	 SHORT $LN2@Buy@3

; 1258 : 			_Xlen();	// result too long

  00024	68 00 00 00 00	 push	 OFFSET ??_C@_0BD@OLBABOEK@vector?$DMT?$DO?5too?5long?$AA@
  00029	ff 15 00 00 00
	00		 call	 DWORD PTR __imp_?_Xlength_error@std@@YAXPBD@Z
$LN19@Buy@3:
$LN2@Buy@3:

; 1259 : 		else
; 1260 : 			{	// nonempty array, allocate storage
; 1261 : 			this->_Myfirst = this->_Alval.allocate(_Capacity);

  0002f	50		 push	 eax
  00030	57		 push	 edi
  00031	e8 00 00 00 00	 call	 ??$_Allocate@UWeaponInfo@@@std@@YAPAUWeaponInfo@@IPAU1@@Z ; std::_Allocate<WeaponInfo>

; 1262 : 			this->_Mylast = this->_Myfirst;
; 1263 : 			this->_Myend = this->_Myfirst + _Capacity;

  00036	6b ff 28	 imul	 edi, 40			; 00000028H
  00039	03 f8		 add	 edi, eax
  0003b	59		 pop	 ecx
  0003c	89 06		 mov	 DWORD PTR [esi], eax
  0003e	89 46 04	 mov	 DWORD PTR [esi+4], eax
  00041	59		 pop	 ecx
  00042	89 7e 08	 mov	 DWORD PTR [esi+8], edi

; 1264 : 			}
; 1265 : 		return (true);

  00045	b0 01		 mov	 al, 1
$LN5@Buy@3:
  00047	5f		 pop	 edi
  00048	5e		 pop	 esi

; 1266 : 		}

  00049	5d		 pop	 ebp
  0004a	c2 04 00	 ret	 4
$LN18@Buy@3:
?_Buy@?$vector@UWeaponInfo@@V?$allocator@UWeaponInfo@@@std@@@std@@IAE_NI@Z ENDP ; std::vector<WeaponInfo,std::allocator<WeaponInfo> >::_Buy
_TEXT	ENDS
PUBLIC	?_Buy@?$vector@UForceInfo@@V?$allocator@UForceInfo@@@std@@@std@@IAE_NI@Z ; std::vector<ForceInfo,std::allocator<ForceInfo> >::_Buy
; Function compile flags: /Ogsp
;	COMDAT ?_Buy@?$vector@UForceInfo@@V?$allocator@UForceInfo@@@std@@@std@@IAE_NI@Z
_TEXT	SEGMENT
__Capacity$ = 8						; size = 4
?_Buy@?$vector@UForceInfo@@V?$allocator@UForceInfo@@@std@@@std@@IAE_NI@Z PROC ; std::vector<ForceInfo,std::allocator<ForceInfo> >::_Buy, COMDAT
; _this$ = ecx

; 1250 : 		{	// allocate array with _Capacity elements

  00000	55		 push	 ebp
  00001	8b ec		 mov	 ebp, esp
  00003	56		 push	 esi

; 1251 : 		this->_Myfirst = 0;

  00004	33 c0		 xor	 eax, eax
  00006	57		 push	 edi

; 1252 : 		this->_Mylast = 0;
; 1253 : 		this->_Myend = 0;
; 1254 : 
; 1255 : 		if (_Capacity == 0)

  00007	8b 7d 08	 mov	 edi, DWORD PTR __Capacity$[ebp]
  0000a	8b f1		 mov	 esi, ecx
  0000c	89 06		 mov	 DWORD PTR [esi], eax
  0000e	89 46 04	 mov	 DWORD PTR [esi+4], eax
  00011	89 46 08	 mov	 DWORD PTR [esi+8], eax
  00014	3b f8		 cmp	 edi, eax
  00016	75 04		 jne	 SHORT $LN4@Buy@4

; 1256 : 			return (false);

  00018	32 c0		 xor	 al, al
  0001a	eb 2b		 jmp	 SHORT $LN5@Buy@4
$LN4@Buy@4:

; 1257 : 		else if (max_size() < _Capacity)

  0001c	81 ff 55 55 55
	15		 cmp	 edi, 357913941		; 15555555H
  00022	76 0b		 jbe	 SHORT $LN2@Buy@4

; 1258 : 			_Xlen();	// result too long

  00024	68 00 00 00 00	 push	 OFFSET ??_C@_0BD@OLBABOEK@vector?$DMT?$DO?5too?5long?$AA@
  00029	ff 15 00 00 00
	00		 call	 DWORD PTR __imp_?_Xlength_error@std@@YAXPBD@Z
$LN19@Buy@4:
$LN2@Buy@4:

; 1259 : 		else
; 1260 : 			{	// nonempty array, allocate storage
; 1261 : 			this->_Myfirst = this->_Alval.allocate(_Capacity);

  0002f	50		 push	 eax
  00030	57		 push	 edi
  00031	e8 00 00 00 00	 call	 ??$_Allocate@UForceInfo@@@std@@YAPAUForceInfo@@IPAU1@@Z ; std::_Allocate<ForceInfo>

; 1262 : 			this->_Mylast = this->_Myfirst;
; 1263 : 			this->_Myend = this->_Myfirst + _Capacity;

  00036	6b ff 0c	 imul	 edi, 12			; 0000000cH
  00039	03 f8		 add	 edi, eax
  0003b	59		 pop	 ecx
  0003c	89 06		 mov	 DWORD PTR [esi], eax
  0003e	89 46 04	 mov	 DWORD PTR [esi+4], eax
  00041	59		 pop	 ecx
  00042	89 7e 08	 mov	 DWORD PTR [esi+8], edi

; 1264 : 			}
; 1265 : 		return (true);

  00045	b0 01		 mov	 al, 1
$LN5@Buy@4:
  00047	5f		 pop	 edi
  00048	5e		 pop	 esi

; 1266 : 		}

  00049	5d		 pop	 ebp
  0004a	c2 04 00	 ret	 4
$LN18@Buy@4:
?_Buy@?$vector@UForceInfo@@V?$allocator@UForceInfo@@@std@@@std@@IAE_NI@Z ENDP ; std::vector<ForceInfo,std::allocator<ForceInfo> >::_Buy
_TEXT	ENDS
PUBLIC	??9?$_Vector_const_iterator@V?$_Vector_val@UWeaponInfo@@V?$allocator@UWeaponInfo@@@std@@@std@@@std@@QBE_NABV01@@Z ; std::_Vector_const_iterator<std::_Vector_val<WeaponInfo,std::allocator<WeaponInfo> > >::operator!=
; Function compile flags: /Ogsp
;	COMDAT ??9?$_Vector_const_iterator@V?$_Vector_val@UWeaponInfo@@V?$allocator@UWeaponInfo@@@std@@@std@@@std@@QBE_NABV01@@Z
_TEXT	SEGMENT
__Right$ = 8						; size = 4
??9?$_Vector_const_iterator@V?$_Vector_val@UWeaponInfo@@V?$allocator@UWeaponInfo@@@std@@@std@@@std@@QBE_NABV01@@Z PROC ; std::_Vector_const_iterator<std::_Vector_val<WeaponInfo,std::allocator<WeaponInfo> > >::operator!=, COMDAT
; _this$ = ecx

; 207  : 		{	// test for iterator inequality

  00000	55		 push	 ebp
  00001	8b ec		 mov	 ebp, esp

; 208  : 		return (!(*this == _Right));

  00003	8b 01		 mov	 eax, DWORD PTR [ecx]
  00005	8b 55 08	 mov	 edx, DWORD PTR __Right$[ebp]
  00008	33 c9		 xor	 ecx, ecx
  0000a	3b 02		 cmp	 eax, DWORD PTR [edx]
  0000c	0f 95 c0	 setne	 al

; 209  : 		}

  0000f	5d		 pop	 ebp
  00010	c2 04 00	 ret	 4
??9?$_Vector_const_iterator@V?$_Vector_val@UWeaponInfo@@V?$allocator@UWeaponInfo@@@std@@@std@@@std@@QBE_NABV01@@Z ENDP ; std::_Vector_const_iterator<std::_Vector_val<WeaponInfo,std::allocator<WeaponInfo> > >::operator!=
_TEXT	ENDS
PUBLIC	??9?$_Vector_const_iterator@V?$_Vector_val@UForceInfo@@V?$allocator@UForceInfo@@@std@@@std@@@std@@QBE_NABV01@@Z ; std::_Vector_const_iterator<std::_Vector_val<ForceInfo,std::allocator<ForceInfo> > >::operator!=
; Function compile flags: /Ogsp
;	COMDAT ??9?$_Vector_const_iterator@V?$_Vector_val@UForceInfo@@V?$allocator@UForceInfo@@@std@@@std@@@std@@QBE_NABV01@@Z
_TEXT	SEGMENT
__Right$ = 8						; size = 4
??9?$_Vector_const_iterator@V?$_Vector_val@UForceInfo@@V?$allocator@UForceInfo@@@std@@@std@@@std@@QBE_NABV01@@Z PROC ; std::_Vector_const_iterator<std::_Vector_val<ForceInfo,std::allocator<ForceInfo> > >::operator!=, COMDAT
; _this$ = ecx

; 207  : 		{	// test for iterator inequality

  00000	55		 push	 ebp
  00001	8b ec		 mov	 ebp, esp

; 208  : 		return (!(*this == _Right));

  00003	8b 01		 mov	 eax, DWORD PTR [ecx]
  00005	8b 55 08	 mov	 edx, DWORD PTR __Right$[ebp]
  00008	33 c9		 xor	 ecx, ecx
  0000a	3b 02		 cmp	 eax, DWORD PTR [edx]
  0000c	0f 95 c0	 setne	 al

; 209  : 		}

  0000f	5d		 pop	 ebp
  00010	c2 04 00	 ret	 4
??9?$_Vector_const_iterator@V?$_Vector_val@UForceInfo@@V?$allocator@UForceInfo@@@std@@@std@@@std@@QBE_NABV01@@Z ENDP ; std::_Vector_const_iterator<std::_Vector_val<ForceInfo,std::allocator<ForceInfo> > >::operator!=
_TEXT	ENDS
PUBLIC	??$_Dest_val@V?$allocator@UForceInfo@@@std@@UForceInfo@@@std@@YAXAAV?$allocator@UForceInfo@@@0@PAUForceInfo@@@Z ; std::_Dest_val<std::allocator<ForceInfo>,ForceInfo>
; Function compile flags: /Ogsp
; File c:\program files (x86)\microsoft visual studio 10.0\vc\include\xmemory
;	COMDAT ??$_Dest_val@V?$allocator@UForceInfo@@@std@@UForceInfo@@@std@@YAXAAV?$allocator@UForceInfo@@@0@PAUForceInfo@@@Z
_TEXT	SEGMENT
__Alval$ = 8						; size = 4
__Pdest$ = 12						; size = 4
??$_Dest_val@V?$allocator@UForceInfo@@@std@@UForceInfo@@@std@@YAXAAV?$allocator@UForceInfo@@@0@PAUForceInfo@@@Z PROC ; std::_Dest_val<std::allocator<ForceInfo>,ForceInfo>, COMDAT

; 287  : 	_Alval.destroy(_Pdest);
; 288  : 	}

  00000	c3		 ret	 0
??$_Dest_val@V?$allocator@UForceInfo@@@std@@UForceInfo@@@std@@YAXAAV?$allocator@UForceInfo@@@0@PAUForceInfo@@@Z ENDP ; std::_Dest_val<std::allocator<ForceInfo>,ForceInfo>
_TEXT	ENDS
PUBLIC	?destroy@?$allocator@VioHashString@@@std@@QAEXPAVioHashString@@@Z ; std::allocator<ioHashString>::destroy
; Function compile flags: /Ogsp
;	COMDAT ?destroy@?$allocator@VioHashString@@@std@@QAEXPAVioHashString@@@Z
_TEXT	SEGMENT
__Ptr$ = 8						; size = 4
?destroy@?$allocator@VioHashString@@@std@@QAEXPAVioHashString@@@Z PROC ; std::allocator<ioHashString>::destroy, COMDAT
; _this$ = ecx

; 212  : 		{	// destroy object at _Ptr

  00000	55		 push	 ebp
  00001	8b ec		 mov	 ebp, esp

; 213  : 		_Destroy(_Ptr);

  00003	8b 4d 08	 mov	 ecx, DWORD PTR __Ptr$[ebp]
  00006	ff 15 00 00 00
	00		 call	 DWORD PTR __imp_??1ioHashString@@QAE@XZ

; 214  : 		}

  0000c	5d		 pop	 ebp
  0000d	c2 04 00	 ret	 4
?destroy@?$allocator@VioHashString@@@std@@QAEXPAVioHashString@@@Z ENDP ; std::allocator<ioHashString>::destroy
_TEXT	ENDS
PUBLIC	?destroy@?$allocator@UWeaponInfo@@@std@@QAEXPAUWeaponInfo@@@Z ; std::allocator<WeaponInfo>::destroy
; Function compile flags: /Ogsp
;	COMDAT ?destroy@?$allocator@UWeaponInfo@@@std@@QAEXPAUWeaponInfo@@@Z
_TEXT	SEGMENT
__Ptr$ = 8						; size = 4
?destroy@?$allocator@UWeaponInfo@@@std@@QAEXPAUWeaponInfo@@@Z PROC ; std::allocator<WeaponInfo>::destroy, COMDAT
; _this$ = ecx

; 212  : 		{	// destroy object at _Ptr

  00000	55		 push	 ebp
  00001	8b ec		 mov	 ebp, esp

; 213  : 		_Destroy(_Ptr);

  00003	8b 4d 08	 mov	 ecx, DWORD PTR __Ptr$[ebp]
  00006	83 c1 08	 add	 ecx, 8
  00009	ff 15 00 00 00
	00		 call	 DWORD PTR __imp_??1ioHashString@@QAE@XZ

; 214  : 		}

  0000f	5d		 pop	 ebp
  00010	c2 04 00	 ret	 4
?destroy@?$allocator@UWeaponInfo@@@std@@QAEXPAUWeaponInfo@@@Z ENDP ; std::allocator<WeaponInfo>::destroy
_TEXT	ENDS
PUBLIC	??$_Cons_val@V?$allocator@VioHashString@@@std@@VioHashString@@ABV3@@std@@YAXAAV?$allocator@VioHashString@@@0@PAVioHashString@@ABV2@@Z ; std::_Cons_val<std::allocator<ioHashString>,ioHashString,ioHashString const &>
; Function compile flags: /Ogsp
;	COMDAT ??$_Cons_val@V?$allocator@VioHashString@@@std@@VioHashString@@ABV3@@std@@YAXAAV?$allocator@VioHashString@@@0@PAVioHashString@@ABV2@@Z
_TEXT	SEGMENT
__Alval$ = 8						; size = 4
__Pdest$ = 12						; size = 4
__Src$ = 16						; size = 4
??$_Cons_val@V?$allocator@VioHashString@@@std@@VioHashString@@ABV3@@std@@YAXAAV?$allocator@VioHashString@@@0@PAVioHashString@@ABV2@@Z PROC ; std::_Cons_val<std::allocator<ioHashString>,ioHashString,ioHashString const &>, COMDAT

; 279  : 	{	// construct using allocator

  00000	55		 push	 ebp
  00001	8b ec		 mov	 ebp, esp

; 280  : 	_Alval.construct(_Pdest, _STD forward<_Ty2>(_Src));

  00003	ff 75 10	 push	 DWORD PTR __Src$[ebp]
  00006	ff 75 0c	 push	 DWORD PTR __Pdest$[ebp]
  00009	e8 00 00 00 00	 call	 ??$_Construct@VioHashString@@ABV1@@std@@YAXPAVioHashString@@ABV1@@Z ; std::_Construct<ioHashString,ioHashString const &>
  0000e	59		 pop	 ecx
  0000f	59		 pop	 ecx

; 281  : 	}

  00010	5d		 pop	 ebp
  00011	c3		 ret	 0
??$_Cons_val@V?$allocator@VioHashString@@@std@@VioHashString@@ABV3@@std@@YAXAAV?$allocator@VioHashString@@@0@PAVioHashString@@ABV2@@Z ENDP ; std::_Cons_val<std::allocator<ioHashString>,ioHashString,ioHashString const &>
_TEXT	ENDS
PUBLIC	__$ArrayPad$
PUBLIC	?ChangeToExtendAttackFire@ioLeeSunSin@@IAEXPAVioBaseChar@@W4ExtendType@1@@Z ; ioLeeSunSin::ChangeToExtendAttackFire
EXTRN	??6SP2Packet@@QAEAAV0@AAV?$CEncrypt@M@@@Z:PROC	; SP2Packet::operator<<
;	COMDAT xdata$x
; File d:\lost saga for developer\youtube\tutorial\source\src\lsclient\iobasechar.h
xdata$x	SEGMENT
__unwindtable$?ChangeToExtendAttackFire@ioLeeSunSin@@IAEXPAVioBaseChar@@W4ExtendType@1@@Z DD 0ffffffffH
	DD	FLAT:__unwindfunclet$?ChangeToExtendAttackFire@ioLeeSunSin@@IAEXPAVioBaseChar@@W4ExtendType@1@@Z$0
__ehfuncinfo$?ChangeToExtendAttackFire@ioLeeSunSin@@IAEXPAVioBaseChar@@W4ExtendType@1@@Z DD 019930522H
	DD	01H
	DD	FLAT:__unwindtable$?ChangeToExtendAttackFire@ioLeeSunSin@@IAEXPAVioBaseChar@@W4ExtendType@1@@Z
	DD	2 DUP(00H)
	DD	2 DUP(00H)
	DD	00H
	DD	01H
; Function compile flags: /Ogsp
; File d:\lost saga for developer\youtube\tutorial\source\src\lsclient\ioleesunsin.cpp
xdata$x	ENDS
;	COMDAT ?ChangeToExtendAttackFire@ioLeeSunSin@@IAEXPAVioBaseChar@@W4ExtendType@1@@Z
_TEXT	SEGMENT
_kPacket$549733 = -32808				; size = 32792
__$ArrayPad$ = -16					; size = 4
__$EHRec$ = -12						; size = 12
_pOwner$ = 8						; size = 4
_eType$ = 12						; size = 4
?ChangeToExtendAttackFire@ioLeeSunSin@@IAEXPAVioBaseChar@@W4ExtendType@1@@Z PROC ; ioLeeSunSin::ChangeToExtendAttackFire, COMDAT
; _this$ = ecx

; 511  : {

  00000	55		 push	 ebp
  00001	8b ec		 mov	 ebp, esp
  00003	6a ff		 push	 -1
  00005	68 00 00 00 00	 push	 __ehhandler$?ChangeToExtendAttackFire@ioLeeSunSin@@IAEXPAVioBaseChar@@W4ExtendType@1@@Z
  0000a	64 a1 00 00 00
	00		 mov	 eax, DWORD PTR fs:0
  00010	50		 push	 eax
  00011	b8 1c 80 00 00	 mov	 eax, 32796		; 0000801cH
  00016	e8 00 00 00 00	 call	 __chkstk
  0001b	a1 00 00 00 00	 mov	 eax, DWORD PTR ___security_cookie
  00020	33 c5		 xor	 eax, ebp
  00022	89 45 f0	 mov	 DWORD PTR __$ArrayPad$[ebp], eax
  00025	53		 push	 ebx
  00026	56		 push	 esi
  00027	57		 push	 edi
  00028	50		 push	 eax
  00029	8d 45 f4	 lea	 eax, DWORD PTR __$EHRec$[ebp]
  0002c	64 a3 00 00 00
	00		 mov	 DWORD PTR fs:0, eax
  00032	8b 7d 08	 mov	 edi, DWORD PTR _pOwner$[ebp]

; 512  : 	if( pOwner->IsNeedSendNetwork() )

  00035	8b 07		 mov	 eax, DWORD PTR [edi]
  00037	8b f1		 mov	 esi, ecx
  00039	8b cf		 mov	 ecx, edi
  0003b	ff 90 04 01 00
	00		 call	 DWORD PTR [eax+260]
  00041	84 c0		 test	 al, al
  00043	0f 84 81 00 00
	00		 je	 $LN11@ChangeToEx@2

; 513  : 	{
; 514  : 		SP2Packet kPacket( CUPK_ITEM_GAUGE_OK );

  00049	68 27 41 00 00	 push	 16679			; 00004127H
  0004e	8d 8d d8 7f ff
	ff		 lea	 ecx, DWORD PTR _kPacket$549733[ebp]
  00054	e8 00 00 00 00	 call	 ??0SP2Packet@@QAE@K@Z	; SP2Packet::SP2Packet
  00059	83 65 fc 00	 and	 DWORD PTR __$EHRec$[ebp+8], 0

; 515  : 		FillItemGaugePacketHeader( pOwner, kPacket );

  0005d	8d 85 d8 7f ff
	ff		 lea	 eax, DWORD PTR _kPacket$549733[ebp]
  00063	50		 push	 eax
  00064	57		 push	 edi
  00065	8b ce		 mov	 ecx, esi
  00067	e8 00 00 00 00	 call	 ?FillItemGaugePacketHeader@ioAttackableItem@@QAEXPAVioBaseChar@@AAVSP2Packet@@@Z ; ioAttackableItem::FillItemGaugePacketHeader

; 516  : 		kPacket << static_cast<byte>( SS_EXTEND_ATTACK );

  0006c	6a 07		 push	 7
  0006e	8d 8d d8 7f ff
	ff		 lea	 ecx, DWORD PTR _kPacket$549733[ebp]
  00074	e8 00 00 00 00	 call	 ??6SP2Packet@@QAEAAV0@E@Z ; SP2Packet::operator<<

; 517  : 		kPacket << pOwner->GetTargetRot();

  00079	8d 87 a4 06 00
	00		 lea	 eax, DWORD PTR [edi+1700]
  0007f	50		 push	 eax
  00080	8d 8d d8 7f ff
	ff		 lea	 ecx, DWORD PTR _kPacket$549733[ebp]
  00086	e8 00 00 00 00	 call	 ??6SP2Packet@@QAEAAV0@ABUD3DXQUATERNION@@@Z ; SP2Packet::operator<<

; 518  : 		kPacket << m_fCurExtraGauge;

  0008b	8d 86 dc 16 00
	00		 lea	 eax, DWORD PTR [esi+5852]
  00091	50		 push	 eax
  00092	8d 8d d8 7f ff
	ff		 lea	 ecx, DWORD PTR _kPacket$549733[ebp]
  00098	e8 00 00 00 00	 call	 ??6SP2Packet@@QAEAAV0@AAV?$CEncrypt@M@@@Z ; SP2Packet::operator<<

; 519  : 		kPacket << (byte)eType;

  0009d	ff 75 0c	 push	 DWORD PTR _eType$[ebp]
  000a0	8d 8d d8 7f ff
	ff		 lea	 ecx, DWORD PTR _kPacket$549733[ebp]
  000a6	e8 00 00 00 00	 call	 ??6SP2Packet@@QAEAAV0@E@Z ; SP2Packet::operator<<

; 520  : 		P2PNetwork::SendToAllPlayingUser( kPacket );

  000ab	8d 85 d8 7f ff
	ff		 lea	 eax, DWORD PTR _kPacket$549733[ebp]
  000b1	6a 00		 push	 0
  000b3	50		 push	 eax
  000b4	e8 00 00 00 00	 call	 ?SendToAllPlayingUser@P2PNetwork@@YAXAAVSP2Packet@@PAVioBaseChar@@@Z ; P2PNetwork::SendToAllPlayingUser

; 521  : 	}

  000b9	83 4d fc ff	 or	 DWORD PTR __$EHRec$[ebp+8], -1
  000bd	59		 pop	 ecx
  000be	59		 pop	 ecx
  000bf	8d 8d d8 7f ff
	ff		 lea	 ecx, DWORD PTR _kPacket$549733[ebp]
  000c5	e8 00 00 00 00	 call	 ??1SP2Packet@@UAE@XZ	; SP2Packet::~SP2Packet
$LN11@ChangeToEx@2:

; 522  : 
; 523  : 	if( GetCurBullet() >= GetMaxBullet() )

  000ca	8b 06		 mov	 eax, DWORD PTR [esi]
  000cc	8b ce		 mov	 ecx, esi
  000ce	ff 50 68	 call	 DWORD PTR [eax+104]
  000d1	8b d8		 mov	 ebx, eax
  000d3	8b 06		 mov	 eax, DWORD PTR [esi]
  000d5	8b ce		 mov	 ecx, esi
  000d7	ff 50 64	 call	 DWORD PTR [eax+100]
  000da	3b c3		 cmp	 eax, ebx

; 524  : 	{		
; 525  : 		switch( eType )

  000dc	8b 45 0c	 mov	 eax, DWORD PTR _eType$[ebp]
  000df	7c 58		 jl	 SHORT $LN10@ChangeToEx@2
  000e1	83 e8 00	 sub	 eax, 0
  000e4	74 2d		 je	 SHORT $LN7@ChangeToEx@2
  000e6	48		 dec	 eax
  000e7	0f 85 b8 00 00
	00		 jne	 $LN3@ChangeToEx@2

; 531  : 			}
; 532  : 			break;
; 533  : 		case ET_WOUNDED:
; 534  : 			{
; 535  : 				SetUseExtraGauge( GetNeedGaugeByMax() );

  000ed	8b 1e		 mov	 ebx, DWORD PTR [esi]
  000ef	8b ce		 mov	 ecx, esi
  000f1	e8 00 00 00 00	 call	 ?GetNeedGaugeByMax@ioLeeSunSin@@QAEHXZ ; ioLeeSunSin::GetNeedGaugeByMax
  000f6	51		 push	 ecx
  000f7	0f 57 c0	 xorps	 xmm0, xmm0
  000fa	f3 0f 2a c0	 cvtsi2ss xmm0, eax
  000fe	8b ce		 mov	 ecx, esi
  00100	f3 0f 11 04 24	 movss	 DWORD PTR [esp], xmm0
  00105	ff 93 8c 02 00
	00		 call	 DWORD PTR [ebx+652]

; 536  : 				ChangeToExtendAttackFire( pOwner, &m_FullChargeWoundedExtendAttack );

  0010b	8d 86 50 1b 00
	00		 lea	 eax, DWORD PTR [esi+6992]

; 537  : 				OnWoundedExtensUseAddBuff( pOwner );
; 538  : 			}
; 539  : 			break;

  00111	eb 52		 jmp	 SHORT $LN19@ChangeToEx@2
$LN7@ChangeToEx@2:

; 526  : 		{
; 527  : 		case ET_NORMAL:
; 528  : 			{
; 529  : 				SetUseExtraGauge( GetNeedGaugeByMax() );

  00113	8b 1e		 mov	 ebx, DWORD PTR [esi]
  00115	8b ce		 mov	 ecx, esi
  00117	e8 00 00 00 00	 call	 ?GetNeedGaugeByMax@ioLeeSunSin@@QAEHXZ ; ioLeeSunSin::GetNeedGaugeByMax
  0011c	51		 push	 ecx
  0011d	0f 57 c0	 xorps	 xmm0, xmm0
  00120	f3 0f 2a c0	 cvtsi2ss xmm0, eax
  00124	8b ce		 mov	 ecx, esi
  00126	f3 0f 11 04 24	 movss	 DWORD PTR [esp], xmm0
  0012b	ff 93 8c 02 00
	00		 call	 DWORD PTR [ebx+652]

; 530  : 				ChangeToExtendAttackFire( pOwner, &m_FullChargeExtendAttack );

  00131	8d 86 00 1b 00
	00		 lea	 eax, DWORD PTR [esi+6912]

; 540  : 		}
; 541  : 	}
; 542  : 	else

  00137	eb 63		 jmp	 SHORT $LN18@ChangeToEx@2
$LN10@ChangeToEx@2:

; 543  : 	{
; 544  : 		switch( eType )

  00139	83 e8 00	 sub	 eax, 0
  0013c	74 3a		 je	 SHORT $LN2@ChangeToEx@2
  0013e	48		 dec	 eax
  0013f	75 64		 jne	 SHORT $LN3@ChangeToEx@2

; 550  : 			}
; 551  : 			break;
; 552  : 		case ET_WOUNDED:
; 553  : 			{
; 554  : 				SetUseExtraGauge( GetNeedGaugeByMax() );

  00141	8b 1e		 mov	 ebx, DWORD PTR [esi]
  00143	8b ce		 mov	 ecx, esi
  00145	e8 00 00 00 00	 call	 ?GetNeedGaugeByMax@ioLeeSunSin@@QAEHXZ ; ioLeeSunSin::GetNeedGaugeByMax
  0014a	51		 push	 ecx
  0014b	0f 57 c0	 xorps	 xmm0, xmm0
  0014e	f3 0f 2a c0	 cvtsi2ss xmm0, eax
  00152	8b ce		 mov	 ecx, esi
  00154	f3 0f 11 04 24	 movss	 DWORD PTR [esp], xmm0
  00159	ff 93 8c 02 00
	00		 call	 DWORD PTR [ebx+652]

; 555  : 				ChangeToExtendAttackFire( pOwner, &m_WoundedExtendAttack );

  0015f	8d 86 60 1a 00
	00		 lea	 eax, DWORD PTR [esi+6752]
$LN19@ChangeToEx@2:
  00165	50		 push	 eax
  00166	57		 push	 edi
  00167	8b ce		 mov	 ecx, esi
  00169	e8 00 00 00 00	 call	 ?ChangeToExtendAttackFire@ioLeeSunSin@@IAEXPAVioBaseChar@@PAUAttackAttribute@@@Z ; ioLeeSunSin::ChangeToExtendAttackFire

; 556  : 				OnWoundedExtensUseAddBuff( pOwner );

  0016e	57		 push	 edi
  0016f	8b ce		 mov	 ecx, esi
  00171	e8 00 00 00 00	 call	 ?OnWoundedExtensUseAddBuff@ioLeeSunSin@@IAEXPAVioBaseChar@@@Z ; ioLeeSunSin::OnWoundedExtensUseAddBuff

; 557  : 			}
; 558  : 			break;

  00176	eb 2d		 jmp	 SHORT $LN3@ChangeToEx@2
$LN2@ChangeToEx@2:

; 545  : 		{
; 546  : 		case ET_NORMAL:
; 547  : 			{
; 548  : 				SetUseExtraGauge( GetNeedGaugeByMax() );

  00178	8b 1e		 mov	 ebx, DWORD PTR [esi]
  0017a	8b ce		 mov	 ecx, esi
  0017c	e8 00 00 00 00	 call	 ?GetNeedGaugeByMax@ioLeeSunSin@@QAEHXZ ; ioLeeSunSin::GetNeedGaugeByMax
  00181	51		 push	 ecx
  00182	0f 57 c0	 xorps	 xmm0, xmm0
  00185	f3 0f 2a c0	 cvtsi2ss xmm0, eax
  00189	8b ce		 mov	 ecx, esi
  0018b	f3 0f 11 04 24	 movss	 DWORD PTR [esp], xmm0
  00190	ff 93 8c 02 00
	00		 call	 DWORD PTR [ebx+652]

; 549  : 				ChangeToExtendAttackFire( pOwner, &m_ExtendAttack );

  00196	8d 86 10 1a 00
	00		 lea	 eax, DWORD PTR [esi+6672]
$LN18@ChangeToEx@2:
  0019c	50		 push	 eax
  0019d	57		 push	 edi
  0019e	8b ce		 mov	 ecx, esi
  001a0	e8 00 00 00 00	 call	 ?ChangeToExtendAttackFire@ioLeeSunSin@@IAEXPAVioBaseChar@@PAUAttackAttribute@@@Z ; ioLeeSunSin::ChangeToExtendAttackFire
$LN3@ChangeToEx@2:

; 559  : 		}
; 560  : 	}
; 561  : 
; 562  : 	EndEffect( pOwner );

  001a5	57		 push	 edi
  001a6	8b ce		 mov	 ecx, esi
  001a8	e8 00 00 00 00	 call	 ?EndEffect@ioLeeSunSin@@QAEXPAVioBaseChar@@@Z ; ioLeeSunSin::EndEffect

; 563  : }

  001ad	8b 4d f4	 mov	 ecx, DWORD PTR __$EHRec$[ebp]
  001b0	64 89 0d 00 00
	00 00		 mov	 DWORD PTR fs:0, ecx
  001b7	59		 pop	 ecx
  001b8	5f		 pop	 edi
  001b9	5e		 pop	 esi
  001ba	5b		 pop	 ebx
  001bb	8b 4d f0	 mov	 ecx, DWORD PTR __$ArrayPad$[ebp]
  001be	33 cd		 xor	 ecx, ebp
  001c0	e8 00 00 00 00	 call	 @__security_check_cookie@4
  001c5	c9		 leave
  001c6	c2 08 00	 ret	 8
_TEXT	ENDS
;	COMDAT text$x
text$x	SEGMENT
__unwindfunclet$?ChangeToExtendAttackFire@ioLeeSunSin@@IAEXPAVioBaseChar@@W4ExtendType@1@@Z$0:
  00000	8d 8d d8 7f ff
	ff		 lea	 ecx, DWORD PTR _kPacket$549733[ebp]
  00006	e9 00 00 00 00	 jmp	 ??1SP2Packet@@UAE@XZ	; SP2Packet::~SP2Packet
__ehhandler$?ChangeToExtendAttackFire@ioLeeSunSin@@IAEXPAVioBaseChar@@W4ExtendType@1@@Z:
  0000b	8b 54 24 08	 mov	 edx, DWORD PTR [esp+8]
  0000f	8d 42 0c	 lea	 eax, DWORD PTR [edx+12]
  00012	8b 8a d4 7f ff
	ff		 mov	 ecx, DWORD PTR [edx-32812]
  00018	33 c8		 xor	 ecx, eax
  0001a	e8 00 00 00 00	 call	 @__security_check_cookie@4
  0001f	8b 4a fc	 mov	 ecx, DWORD PTR [edx-4]
  00022	33 c8		 xor	 ecx, eax
  00024	e8 00 00 00 00	 call	 @__security_check_cookie@4
  00029	b8 00 00 00 00	 mov	 eax, OFFSET __ehfuncinfo$?ChangeToExtendAttackFire@ioLeeSunSin@@IAEXPAVioBaseChar@@W4ExtendType@1@@Z
  0002e	e9 00 00 00 00	 jmp	 ___CxxFrameHandler3
text$x	ENDS
?ChangeToExtendAttackFire@ioLeeSunSin@@IAEXPAVioBaseChar@@W4ExtendType@1@@Z ENDP ; ioLeeSunSin::ChangeToExtendAttackFire
PUBLIC	?CheckWoundExtendUsePre@ioLeeSunSin@@IAE_NPAVioBaseChar@@W4BlowTargetType@@@Z ; ioLeeSunSin::CheckWoundExtendUsePre
EXTRN	__imp_?IsEmpty@ioHashString@@QBE_NXZ:PROC
EXTRN	?GetBottomHeight@ioGameEntity@@QBEMXZ:PROC	; ioGameEntity::GetBottomHeight
; Function compile flags: /Ogsp
;	COMDAT ?CheckWoundExtendUsePre@ioLeeSunSin@@IAE_NPAVioBaseChar@@W4BlowTargetType@@@Z
_TEXT	SEGMENT
tv209 = -8						; size = 8
tv344 = 8						; size = 4
_value$556534 = 8					; size = 4
_fHeightGap$ = 8					; size = 4
_pOwner$ = 8						; size = 4
_eType$ = 12						; size = 4
?CheckWoundExtendUsePre@ioLeeSunSin@@IAE_NPAVioBaseChar@@W4BlowTargetType@@@Z PROC ; ioLeeSunSin::CheckWoundExtendUsePre, COMDAT
; _this$ = ecx

; 702  : {

  00000	55		 push	 ebp
  00001	8b ec		 mov	 ebp, esp
  00003	51		 push	 ecx
  00004	51		 push	 ecx
  00005	53		 push	 ebx

; 703  : 	float fHeightGap = pOwner->GetWorldPosition().y - pOwner->GetBottomHeight();

  00006	8b 5d 08	 mov	 ebx, DWORD PTR _pOwner$[ebp]
  00009	8b 03		 mov	 eax, DWORD PTR [ebx]
  0000b	56		 push	 esi
  0000c	57		 push	 edi
  0000d	8b f9		 mov	 edi, ecx
  0000f	8b cb		 mov	 ecx, ebx
  00011	ff 50 70	 call	 DWORD PTR [eax+112]
  00014	d9 40 04	 fld	 DWORD PTR [eax+4]
  00017	8b cb		 mov	 ecx, ebx
  00019	dd 5d f8	 fstp	 QWORD PTR tv209[ebp]
  0001c	e8 00 00 00 00	 call	 ?GetBottomHeight@ioGameEntity@@QBEMXZ ; ioGameEntity::GetBottomHeight
  00021	dc 6d f8	 fsubr	 QWORD PTR tv209[ebp]

; 704  : 	for( WoundedInfoList::iterator iter = m_WoundedInfoList.begin(); iter != m_WoundedInfoList.end(); ++iter )

  00024	8b b7 bc 1b 00
	00		 mov	 esi, DWORD PTR [edi+7100]
  0002a	d9 5d 08	 fstp	 DWORD PTR _fHeightGap$[ebp]
  0002d	eb 36		 jmp	 SHORT $LN46@CheckWound
$LL19@CheckWound:

; 705  : 	{
; 706  : 		const WoundedInfo& Info = *iter;
; 707  : 		if( Info.eBlowType == eType && COMPARE( fHeightGap, Info.fMinHeight, Info.fMaxHeight ) )

  0002f	8b 06		 mov	 eax, DWORD PTR [esi]
  00031	3b 45 0c	 cmp	 eax, DWORD PTR _eType$[ebp]
  00034	75 2c		 jne	 SHORT $LN5@CheckWound
  00036	f3 0f 10 45 08	 movss	 xmm0, DWORD PTR _fHeightGap$[ebp]
  0003b	f3 0f 10 4e 04	 movss	 xmm1, DWORD PTR [esi+4]
  00040	0f 5a c0	 cvtps2pd xmm0, xmm0
  00043	0f 5a c9	 cvtps2pd xmm1, xmm1
  00046	66 0f 2f c1	 comisd	 xmm0, xmm1
  0004a	72 16		 jb	 SHORT $LN5@CheckWound
  0004c	f3 0f 10 45 08	 movss	 xmm0, DWORD PTR _fHeightGap$[ebp]
  00051	f3 0f 10 4e 08	 movss	 xmm1, DWORD PTR [esi+8]
  00056	0f 5a c0	 cvtps2pd xmm0, xmm0
  00059	0f 5a c9	 cvtps2pd xmm1, xmm1
  0005c	66 0f 2f c8	 comisd	 xmm1, xmm0
  00060	77 14		 ja	 SHORT $LN44@CheckWound
$LN5@CheckWound:

; 704  : 	for( WoundedInfoList::iterator iter = m_WoundedInfoList.begin(); iter != m_WoundedInfoList.end(); ++iter )

  00062	83 c6 20	 add	 esi, 32			; 00000020H
$LN46@CheckWound:
  00065	3b b7 c0 1b 00
	00		 cmp	 esi, DWORD PTR [edi+7104]
  0006b	75 c2		 jne	 SHORT $LL19@CheckWound

; 721  : 		}
; 722  : 	}
; 723  : 
; 724  : 	return false;

  0006d	32 c0		 xor	 al, al
$LN7@CheckWound:
  0006f	5f		 pop	 edi
  00070	5e		 pop	 esi
  00071	5b		 pop	 ebx

; 725  : }

  00072	c9		 leave
  00073	c2 08 00	 ret	 8
$LN44@CheckWound:

; 708  : 		{
; 709  : 			BlowWoundedState eBlowState = pOwner->GetBlowWoundedState();				

  00076	8d 45 08	 lea	 eax, DWORD PTR _value$556534[ebp]
  00079	50		 push	 eax
  0007a	8d 8b 58 0f 00
	00		 lea	 ecx, DWORD PTR [ebx+3928]
  00080	e8 00 00 00 00	 call	 ?DecryptValueToPool@?$CEncrypt@W4BlowWoundedState@@@@QAEXPAW4BlowWoundedState@@@Z ; CEncrypt<enum BlowWoundedState>::DecryptValueToPool

; 710  : 			if( eBlowState == BW_BLOW_ENDED && !Info.BranchAnimation.IsEmpty() )

  00085	83 7d 08 02	 cmp	 DWORD PTR _value$556534[ebp], 2
  00089	75 32		 jne	 SHORT $LN2@CheckWound
  0008b	8d 4e 0c	 lea	 ecx, DWORD PTR [esi+12]
  0008e	89 4d 08	 mov	 DWORD PTR tv344[ebp], ecx
  00091	ff 15 00 00 00
	00		 call	 DWORD PTR __imp_?IsEmpty@ioHashString@@QBE_NXZ
  00097	84 c0		 test	 al, al
  00099	75 22		 jne	 SHORT $LN2@CheckWound

; 711  : 			{
; 712  : 				m_WoundedState = WS_PRE;
; 713  : 				ChangeToWoundedPreState( pOwner, Info.BranchAnimation, Info.fAnimationRate );

  0009b	51		 push	 ecx
  0009c	c7 87 ac 1b 00
	00 02 00 00 00	 mov	 DWORD PTR [edi+7084], 2
  000a6	f3 0f 10 46 1c	 movss	 xmm0, DWORD PTR [esi+28]
  000ab	f3 0f 11 04 24	 movss	 DWORD PTR [esp], xmm0
  000b0	ff 75 08	 push	 DWORD PTR tv344[ebp]
  000b3	8b cf		 mov	 ecx, edi
  000b5	53		 push	 ebx
  000b6	e8 00 00 00 00	 call	 ?ChangeToWoundedPreState@ioLeeSunSin@@IAEXPAVioBaseChar@@ABVioHashString@@M@Z ; ioLeeSunSin::ChangeToWoundedPreState

; 714  : 			}			
; 715  : 			else

  000bb	eb 0a		 jmp	 SHORT $LN1@CheckWound
$LN2@CheckWound:

; 716  : 			{
; 717  : 				m_WoundedState = WS_ACTION;

  000bd	c7 87 ac 1b 00
	00 03 00 00 00	 mov	 DWORD PTR [edi+7084], 3
$LN1@CheckWound:

; 718  : 			}
; 719  : 
; 720  : 			return true;

  000c7	b0 01		 mov	 al, 1
  000c9	eb a4		 jmp	 SHORT $LN7@CheckWound
?CheckWoundExtendUsePre@ioLeeSunSin@@IAE_NPAVioBaseChar@@W4BlowTargetType@@@Z ENDP ; ioLeeSunSin::CheckWoundExtendUsePre
_TEXT	ENDS
PUBLIC	?SetExtraGaugeTypeByWeapon@ioLeeSunSin@@UAEXPAVioBaseChar@@HHM@Z ; ioLeeSunSin::SetExtraGaugeTypeByWeapon
; Function compile flags: /Ogsp
;	COMDAT ?SetExtraGaugeTypeByWeapon@ioLeeSunSin@@UAEXPAVioBaseChar@@HHM@Z
_TEXT	SEGMENT
_fGauge$ = -4						; size = 4
_pOwner$ = 8						; size = 4
_value$556571 = 12					; size = 4
_iType$ = 12						; size = 4
_value$556576 = 16					; size = 4
_value$556566 = 16					; size = 4
_value$556550 = 16					; size = 4
_iWGT$ = 16						; size = 4
_fDamage$ = 20						; size = 4
?SetExtraGaugeTypeByWeapon@ioLeeSunSin@@UAEXPAVioBaseChar@@HHM@Z PROC ; ioLeeSunSin::SetExtraGaugeTypeByWeapon, COMDAT
; _this$ = ecx

; 749  : {

  00000	55		 push	 ebp
  00001	8b ec		 mov	 ebp, esp
  00003	51		 push	 ecx

; 750  : 	float fGauge = 0.0f;
; 751  : 	switch( iType )

  00004	8b 45 0c	 mov	 eax, DWORD PTR _iType$[ebp]
  00007	48		 dec	 eax
  00008	0f 57 c0	 xorps	 xmm0, xmm0
  0000b	56		 push	 esi
  0000c	57		 push	 edi
  0000d	8b f1		 mov	 esi, ecx
  0000f	f3 0f 11 45 fc	 movss	 DWORD PTR _fGauge$[ebp], xmm0
  00014	74 27		 je	 SHORT $LN8@SetExtraGa
  00016	48		 dec	 eax
  00017	74 16		 je	 SHORT $LN5@SetExtraGa
  00019	48		 dec	 eax
  0001a	74 0b		 je	 SHORT $LN2@SetExtraGa
  0001c	48		 dec	 eax
  0001d	75 3d		 jne	 SHORT $LN6@SetExtraGa

; 778  : 	case EGT_WOUNDED_DEF:		
; 779  : 		{
; 780  : 			fGauge = m_fExtraGaugeWoundDef;

  0001f	8d 8e 5c 15 00
	00		 lea	 ecx, DWORD PTR [esi+5468]

; 781  : 		}
; 782  : 		break;		

  00025	eb 22		 jmp	 SHORT $LN33@SetExtraGa
$LN2@SetExtraGa:

; 769  : 		{
; 770  : 			fGauge = 0.0f;
; 771  : 		}
; 772  : 		break;
; 773  : 	case EGT_WOUNDED:
; 774  : 		{
; 775  : 			fGauge = m_fExtraGaugeWound;

  00027	8d 8e 2c 15 00
	00		 lea	 ecx, DWORD PTR [esi+5420]

; 776  : 		}
; 777  : 		break;

  0002d	eb 1a		 jmp	 SHORT $LN33@SetExtraGa
$LN5@SetExtraGa:

; 761  : 		}
; 762  : 		break;
; 763  : 	case EGT_ATTACK_DEF:
; 764  : 		if( iWGT == WGT_LEESUNSIN )

  0002f	83 7d 10 07	 cmp	 DWORD PTR _iWGT$[ebp], 7
  00033	75 22		 jne	 SHORT $LN7@SetExtraGa

; 765  : 		{
; 766  : 			fGauge = m_fExtraGaugeAttackDef;

  00035	8d 8e fc 14 00
	00		 lea	 ecx, DWORD PTR [esi+5372]

; 767  : 		}
; 768  : 		else

  0003b	eb 0c		 jmp	 SHORT $LN33@SetExtraGa
$LN8@SetExtraGa:

; 752  : 	{
; 753  : 	case EGT_ATTACK:
; 754  : 		if( iWGT == WGT_LEESUNSIN )

  0003d	83 7d 10 07	 cmp	 DWORD PTR _iWGT$[ebp], 7
  00041	75 14		 jne	 SHORT $LN7@SetExtraGa

; 755  : 		{
; 756  : 			fGauge = m_fExtraGaugeAttack;

  00043	8d 8e cc 14 00
	00		 lea	 ecx, DWORD PTR [esi+5324]
$LN33@SetExtraGa:
  00049	8d 45 10	 lea	 eax, DWORD PTR _value$556550[ebp]
  0004c	50		 push	 eax
  0004d	e8 00 00 00 00	 call	 ?DecryptValueToPool@?$CEncrypt@M@@QAEXPAM@Z ; CEncrypt<float>::DecryptValueToPool
  00052	f3 0f 10 45 10	 movss	 xmm0, DWORD PTR _value$556550[ebp]
$LN7@SetExtraGa:

; 757  : 		}
; 758  : 		else
; 759  : 		{
; 760  : 			fGauge = 0.0f;

  00057	f3 0f 11 45 fc	 movss	 DWORD PTR _fGauge$[ebp], xmm0
$LN6@SetExtraGa:

; 783  : 	}
; 784  : 
; 785  : 	m_fCurExtraGauge += fGauge;

  0005c	8d 45 10	 lea	 eax, DWORD PTR _value$556566[ebp]
  0005f	8d be dc 16 00
	00		 lea	 edi, DWORD PTR [esi+5852]
  00065	50		 push	 eax
  00066	8b cf		 mov	 ecx, edi
  00068	e8 00 00 00 00	 call	 ?DecryptValueToPool@?$CEncrypt@M@@QAEXPAM@Z ; CEncrypt<float>::DecryptValueToPool
  0006d	f3 0f 10 45 10	 movss	 xmm0, DWORD PTR _value$556566[ebp]
  00072	f3 0f 10 4d fc	 movss	 xmm1, DWORD PTR _fGauge$[ebp]
  00077	0f 5a c0	 cvtps2pd xmm0, xmm0
  0007a	0f 5a c9	 cvtps2pd xmm1, xmm1
  0007d	8d 45 10	 lea	 eax, DWORD PTR _value$556566[ebp]
  00080	f2 0f 58 c1	 addsd	 xmm0, xmm1
  00084	66 0f 5a c0	 cvtpd2ps xmm0, xmm0
  00088	50		 push	 eax
  00089	8b cf		 mov	 ecx, edi
  0008b	f3 0f 11 45 10	 movss	 DWORD PTR _value$556566[ebp], xmm0
  00090	e8 00 00 00 00	 call	 ?EncryptValueToPool@?$CEncrypt@M@@AAEXPBD@Z ; CEncrypt<float>::EncryptValueToPool

; 786  : 	m_fCurExtraGauge = min( m_fCurExtraGauge, m_fMaxExtraGauge );

  00095	8d 45 0c	 lea	 eax, DWORD PTR _value$556571[ebp]
  00098	81 c6 ac 16 00
	00		 add	 esi, 5804		; 000016acH
  0009e	50		 push	 eax
  0009f	8b ce		 mov	 ecx, esi
  000a1	e8 00 00 00 00	 call	 ?DecryptValueToPool@?$CEncrypt@M@@QAEXPAM@Z ; CEncrypt<float>::DecryptValueToPool
  000a6	8d 45 10	 lea	 eax, DWORD PTR _value$556576[ebp]
  000a9	50		 push	 eax
  000aa	8b cf		 mov	 ecx, edi
  000ac	e8 00 00 00 00	 call	 ?DecryptValueToPool@?$CEncrypt@M@@QAEXPAM@Z ; CEncrypt<float>::DecryptValueToPool
  000b1	f3 0f 10 45 10	 movss	 xmm0, DWORD PTR _value$556576[ebp]
  000b6	f3 0f 10 4d 0c	 movss	 xmm1, DWORD PTR _value$556571[ebp]
  000bb	0f 5a c0	 cvtps2pd xmm0, xmm0
  000be	0f 5a c9	 cvtps2pd xmm1, xmm1
  000c1	66 0f 2f c8	 comisd	 xmm1, xmm0
  000c5	0f 47 f7	 cmova	 esi, edi
  000c8	56		 push	 esi
  000c9	8b cf		 mov	 ecx, edi
  000cb	e8 00 00 00 00	 call	 ??4?$CEncrypt@M@@QAE_NAAV0@@Z ; CEncrypt<float>::operator=
  000d0	5f		 pop	 edi
  000d1	5e		 pop	 esi

; 787  : }

  000d2	c9		 leave
  000d3	c2 10 00	 ret	 16			; 00000010H
?SetExtraGaugeTypeByWeapon@ioLeeSunSin@@UAEXPAVioBaseChar@@HHM@Z ENDP ; ioLeeSunSin::SetExtraGaugeTypeByWeapon
_TEXT	ENDS
PUBLIC	?OnItemGaugeOK@ioLeeSunSin@@UAEXPAVioBaseChar@@AAVSP2Packet@@@Z ; ioLeeSunSin::OnItemGaugeOK
EXTRN	??5SP2Packet@@QAEAAV0@AAV?$CEncrypt@M@@@Z:PROC	; SP2Packet::operator>>
EXTRN	??5SP2Packet@@QAEAAV0@AAM@Z:PROC		; SP2Packet::operator>>
EXTRN	??5SP2Packet@@QAEAAV0@AAVioHashString@@@Z:PROC	; SP2Packet::operator>>
EXTRN	??5SP2Packet@@QAEAAV0@AAH@Z:PROC		; SP2Packet::operator>>
EXTRN	?SetTargetRot@ioBaseChar@@QAEXABUD3DXQUATERNION@@@Z:PROC ; ioBaseChar::SetTargetRot
EXTRN	??5SP2Packet@@QAEAAV0@AAUD3DXQUATERNION@@@Z:PROC ; SP2Packet::operator>>
EXTRN	??5SP2Packet@@QAEAAV0@AAE@Z:PROC		; SP2Packet::operator>>
;	COMDAT xdata$x
; File c:\program files (x86)\microsoft directx sdk (june 2010)\include\d3dx9math.h
xdata$x	SEGMENT
__unwindtable$?OnItemGaugeOK@ioLeeSunSin@@UAEXPAVioBaseChar@@AAVSP2Packet@@@Z DD 0ffffffffH
	DD	FLAT:__unwindfunclet$?OnItemGaugeOK@ioLeeSunSin@@UAEXPAVioBaseChar@@AAVSP2Packet@@@Z$0
__ehfuncinfo$?OnItemGaugeOK@ioLeeSunSin@@UAEXPAVioBaseChar@@AAVSP2Packet@@@Z DD 019930522H
	DD	01H
	DD	FLAT:__unwindtable$?OnItemGaugeOK@ioLeeSunSin@@UAEXPAVioBaseChar@@AAVSP2Packet@@@Z
	DD	2 DUP(00H)
	DD	2 DUP(00H)
	DD	00H
	DD	01H
; Function compile flags: /Ogsp
; File d:\lost saga for developer\youtube\tutorial\source\src\lsclient\ioleesunsin.cpp
xdata$x	ENDS
;	COMDAT ?OnItemGaugeOK@ioLeeSunSin@@UAEXPAVioBaseChar@@AAVSP2Packet@@@Z
_TEXT	SEGMENT
_qtRot$ = -48						; size = 16
_szAnmationName$550068 = -32				; size = 16
_eDirKey$550074 = -13					; size = 1
__$EHRec$ = -12						; size = 12
_pOwner$ = 8						; size = 4
_eState$ = 11						; size = 1
_fTimeRate$550069 = 12					; size = 4
_rkPacket$ = 12						; size = 4
_eType$550071 = 15					; size = 1
_DirKey$550062 = 15					; size = 1
?OnItemGaugeOK@ioLeeSunSin@@UAEXPAVioBaseChar@@AAVSP2Packet@@@Z PROC ; ioLeeSunSin::OnItemGaugeOK, COMDAT
; _this$ = ecx

; 838  : {

  00000	6a 24		 push	 36			; 00000024H
  00002	b8 00 00 00 00	 mov	 eax, __ehhandler$?OnItemGaugeOK@ioLeeSunSin@@UAEXPAVioBaseChar@@AAVSP2Packet@@@Z
  00007	e8 00 00 00 00	 call	 __EH_prolog3
  0000c	8b f1		 mov	 esi, ecx

; 839  : 	if( !pOwner )

  0000e	8b 7d 08	 mov	 edi, DWORD PTR _pOwner$[ebp]
  00011	85 ff		 test	 edi, edi
  00013	0f 84 43 01 00
	00		 je	 $LN10@OnItemGaug

; 840  : 		return;
; 841  : 
; 842  : 	byte eState;
; 843  : 	rkPacket >> eState;

  00019	8b 5d 0c	 mov	 ebx, DWORD PTR _rkPacket$[ebp]
  0001c	8d 45 0b	 lea	 eax, DWORD PTR _eState$[ebp]
  0001f	50		 push	 eax
  00020	8b cb		 mov	 ecx, ebx
  00022	e8 00 00 00 00	 call	 ??5SP2Packet@@QAEAAV0@AAE@Z ; SP2Packet::operator>>

; 844  : 
; 845  : 	D3DXQUATERNION qtRot;
; 846  : 	rkPacket >> qtRot;

  00027	8d 45 d0	 lea	 eax, DWORD PTR _qtRot$[ebp]
  0002a	50		 push	 eax
  0002b	8b cb		 mov	 ecx, ebx
  0002d	e8 00 00 00 00	 call	 ??5SP2Packet@@QAEAAV0@AAUD3DXQUATERNION@@@Z ; SP2Packet::operator>>

; 847  : 	pOwner->SetTargetRot( qtRot );

  00032	8d 45 d0	 lea	 eax, DWORD PTR _qtRot$[ebp]
  00035	50		 push	 eax
  00036	8b cf		 mov	 ecx, edi
  00038	e8 00 00 00 00	 call	 ?SetTargetRot@ioBaseChar@@QAEXABUD3DXQUATERNION@@@Z ; ioBaseChar::SetTargetRot

; 848  : 
; 849  : 	switch( eState )

  0003d	0f b6 45 0b	 movzx	 eax, BYTE PTR _eState$[ebp]
  00041	83 f8 08	 cmp	 eax, 8
  00044	0f 87 12 01 00
	00		 ja	 $LN10@OnItemGaug
  0004a	ff 24 85 00 00
	00 00		 jmp	 DWORD PTR $LN19@OnItemGaug[eax*4]
$LN9@OnItemGaug:

; 850  : 	{
; 851  : 	case SS_ATTACK_FIRE:
; 852  : 		{	
; 853  : 			rkPacket >> m_iCurCombo;

  00051	8d 86 60 19 00
	00		 lea	 eax, DWORD PTR [esi+6496]
  00057	50		 push	 eax
  00058	8b cb		 mov	 ecx, ebx
  0005a	e8 00 00 00 00	 call	 ??5SP2Packet@@QAEAAV0@AAH@Z ; SP2Packet::operator>>

; 854  : 			ChangeToAttackFire( pOwner );

  0005f	57		 push	 edi
  00060	8b ce		 mov	 ecx, esi
  00062	e8 00 00 00 00	 call	 ?ChangeToAttackFire@ioLeeSunSin@@IAEXPAVioBaseChar@@@Z ; ioLeeSunSin::ChangeToAttackFire

; 855  : 		}
; 856  : 		break;

  00067	e9 f0 00 00 00	 jmp	 $LN10@OnItemGaug
$LN8@OnItemGaug:

; 857  : 	case SS_GATHERING:
; 858  : 		{
; 859  : 			ChangeToGathering( pOwner );

  0006c	57		 push	 edi
  0006d	8b ce		 mov	 ecx, esi
  0006f	e8 00 00 00 00	 call	 ?ChangeToGathering@ioLeeSunSin@@IAEXPAVioBaseChar@@@Z ; ioLeeSunSin::ChangeToGathering

; 860  : 		}
; 861  : 		break;

  00074	e9 e3 00 00 00	 jmp	 $LN10@OnItemGaug
$LN7@OnItemGaug:

; 862  : 	case SS_GATHERING_DIR:
; 863  : 		{
; 864  : 			byte DirKey;
; 865  : 			rkPacket >>  DirKey;

  00079	8d 45 0f	 lea	 eax, DWORD PTR _DirKey$550062[ebp]
  0007c	50		 push	 eax
  0007d	8b cb		 mov	 ecx, ebx
  0007f	e8 00 00 00 00	 call	 ??5SP2Packet@@QAEAAV0@AAE@Z ; SP2Packet::operator>>

; 866  : 			m_CurrDirKey = (ioUserKeyInput::DirKeyInput)DirKey;

  00084	0f b6 45 0f	 movzx	 eax, BYTE PTR _DirKey$550062[ebp]

; 867  : 			pOwner->SetTargetRotToDirKey( m_CurrDirKey );

  00088	50		 push	 eax
  00089	8b cf		 mov	 ecx, edi
  0008b	89 86 0c 1a 00
	00		 mov	 DWORD PTR [esi+6668], eax
  00091	e8 00 00 00 00	 call	 ?SetTargetRotToDirKey@ioBaseChar@@QAEXW4DirKeyInput@ioUserKeyInput@@@Z ; ioBaseChar::SetTargetRotToDirKey

; 868  : 		}
; 869  : 		break;

  00096	e9 c1 00 00 00	 jmp	 $LN10@OnItemGaug
$LN6@OnItemGaug:

; 870  : 	case SS_GATHERING_END_BY_JUMP:
; 871  : 		{
; 872  : 			ChangeToGatherEndByJump( pOwner );

  0009b	57		 push	 edi
  0009c	8b ce		 mov	 ecx, esi
  0009e	e8 00 00 00 00	 call	 ?ChangeToGatherEndByJump@ioLeeSunSin@@IAEXPAVioBaseChar@@@Z ; ioLeeSunSin::ChangeToGatherEndByJump

; 873  : 		}
; 874  : 		break;

  000a3	e9 b4 00 00 00	 jmp	 $LN10@OnItemGaug
$LN5@OnItemGaug:

; 875  : 	case SS_GATHERING_END_BY_SKILL:
; 876  : 		{
; 877  : 			ChangeToGatherEndBySkill( pOwner );

  000a8	57		 push	 edi
  000a9	8b ce		 mov	 ecx, esi
  000ab	e8 00 00 00 00	 call	 ?ChangeToGatherEndBySkill@ioLeeSunSin@@IAEXPAVioBaseChar@@@Z ; ioLeeSunSin::ChangeToGatherEndBySkill

; 878  : 		}
; 879  : 		break;

  000b0	e9 a7 00 00 00	 jmp	 $LN10@OnItemGaug
$LN4@OnItemGaug:

; 880  : 	case SS_GATHERING_END_BY_RUN:
; 881  : 		{
; 882  : 			ChangeToGatherEndByRun( pOwner );

  000b5	57		 push	 edi
  000b6	8b ce		 mov	 ecx, esi
  000b8	e8 00 00 00 00	 call	 ?ChangeToGatherEndByRun@ioLeeSunSin@@IAEXPAVioBaseChar@@@Z ; ioLeeSunSin::ChangeToGatherEndByRun

; 883  : 		}
; 884  : 		break;

  000bd	e9 9a 00 00 00	 jmp	 $LN10@OnItemGaug
$LN3@OnItemGaug:

; 885  : 	case SS_WOUNDED_EXTEND_PRE:
; 886  : 		{
; 887  : 			ioHashString szAnmationName;

  000c2	8d 4d e0	 lea	 ecx, DWORD PTR _szAnmationName$550068[ebp]
  000c5	ff 15 00 00 00
	00		 call	 DWORD PTR __imp_??0ioHashString@@QAE@XZ
  000cb	83 65 fc 00	 and	 DWORD PTR __$EHRec$[ebp+8], 0

; 888  : 			float fTimeRate;
; 889  : 			rkPacket >> szAnmationName;

  000cf	8d 45 e0	 lea	 eax, DWORD PTR _szAnmationName$550068[ebp]
  000d2	50		 push	 eax
  000d3	8b cb		 mov	 ecx, ebx
  000d5	e8 00 00 00 00	 call	 ??5SP2Packet@@QAEAAV0@AAVioHashString@@@Z ; SP2Packet::operator>>

; 890  : 			rkPacket >> fTimeRate;

  000da	8d 45 0c	 lea	 eax, DWORD PTR _fTimeRate$550069[ebp]
  000dd	50		 push	 eax
  000de	8b cb		 mov	 ecx, ebx
  000e0	e8 00 00 00 00	 call	 ??5SP2Packet@@QAEAAV0@AAM@Z ; SP2Packet::operator>>

; 891  : 
; 892  : 			m_WoundedState = WS_PRE;
; 893  : 			ChangeToWoundedPreState( pOwner, szAnmationName, fTimeRate );

  000e5	f3 0f 10 45 0c	 movss	 xmm0, DWORD PTR _fTimeRate$550069[ebp]
  000ea	51		 push	 ecx
  000eb	f3 0f 11 04 24	 movss	 DWORD PTR [esp], xmm0
  000f0	8d 45 e0	 lea	 eax, DWORD PTR _szAnmationName$550068[ebp]
  000f3	50		 push	 eax
  000f4	57		 push	 edi
  000f5	8b ce		 mov	 ecx, esi
  000f7	c7 86 ac 1b 00
	00 02 00 00 00	 mov	 DWORD PTR [esi+7084], 2
  00101	e8 00 00 00 00	 call	 ?ChangeToWoundedPreState@ioLeeSunSin@@IAEXPAVioBaseChar@@ABVioHashString@@M@Z ; ioLeeSunSin::ChangeToWoundedPreState

; 894  : 		}

  00106	83 4d fc ff	 or	 DWORD PTR __$EHRec$[ebp+8], -1
  0010a	8d 4d e0	 lea	 ecx, DWORD PTR _szAnmationName$550068[ebp]
  0010d	ff 15 00 00 00
	00		 call	 DWORD PTR __imp_??1ioHashString@@QAE@XZ

; 895  : 		break;

  00113	eb 47		 jmp	 SHORT $LN10@OnItemGaug
$LN2@OnItemGaug:

; 896  : 	case SS_EXTEND_ATTACK:
; 897  : 		{
; 898  : 			rkPacket >> m_fCurExtraGauge;

  00115	8d 86 dc 16 00
	00		 lea	 eax, DWORD PTR [esi+5852]
  0011b	50		 push	 eax
  0011c	8b cb		 mov	 ecx, ebx
  0011e	e8 00 00 00 00	 call	 ??5SP2Packet@@QAEAAV0@AAV?$CEncrypt@M@@@Z ; SP2Packet::operator>>

; 899  : 			byte eType;
; 900  : 			rkPacket >> eType;

  00123	8d 45 0f	 lea	 eax, DWORD PTR _eType$550071[ebp]
  00126	50		 push	 eax
  00127	8b cb		 mov	 ecx, ebx
  00129	e8 00 00 00 00	 call	 ??5SP2Packet@@QAEAAV0@AAE@Z ; SP2Packet::operator>>

; 901  : 			ChangeToExtendAttackFire( pOwner, (ExtendType)eType );

  0012e	0f b6 45 0f	 movzx	 eax, BYTE PTR _eType$550071[ebp]
  00132	50		 push	 eax
  00133	57		 push	 edi
  00134	8b ce		 mov	 ecx, esi
  00136	e8 00 00 00 00	 call	 ?ChangeToExtendAttackFire@ioLeeSunSin@@IAEXPAVioBaseChar@@W4ExtendType@1@@Z ; ioLeeSunSin::ChangeToExtendAttackFire

; 902  : 		}
; 903  : 		break;

  0013b	eb 1f		 jmp	 SHORT $LN10@OnItemGaug
$LN1@OnItemGaug:

; 904  : 	case SS_ASSULT_ATTACK:
; 905  : 		{
; 906  : 			byte eDirKey;
; 907  : 			rkPacket >> eDirKey;

  0013d	8d 45 f3	 lea	 eax, DWORD PTR _eDirKey$550074[ebp]
  00140	50		 push	 eax
  00141	8b cb		 mov	 ecx, ebx
  00143	e8 00 00 00 00	 call	 ??5SP2Packet@@QAEAAV0@AAE@Z ; SP2Packet::operator>>

; 908  : 			pOwner->SetTargetRotToDirKey( (ioUserKeyInput::DirKeyInput)eDirKey );

  00148	0f b6 45 f3	 movzx	 eax, BYTE PTR _eDirKey$550074[ebp]
  0014c	50		 push	 eax
  0014d	8b cf		 mov	 ecx, edi
  0014f	e8 00 00 00 00	 call	 ?SetTargetRotToDirKey@ioBaseChar@@QAEXW4DirKeyInput@ioUserKeyInput@@@Z ; ioBaseChar::SetTargetRotToDirKey

; 909  : 			ChangeToAssultAttackFire( pOwner );

  00154	57		 push	 edi
  00155	8b ce		 mov	 ecx, esi
  00157	e8 00 00 00 00	 call	 ?ChangeToAssultAttackFire@ioLeeSunSin@@IAEXPAVioBaseChar@@@Z ; ioLeeSunSin::ChangeToAssultAttackFire
$LN10@OnItemGaug:

; 910  : 		}
; 911  : 		break;
; 912  : 	}	
; 913  : }

  0015c	e8 00 00 00 00	 call	 __EH_epilog3
  00161	c2 08 00	 ret	 8
$LN19@OnItemGaug:
  00164	00 00 00 00	 DD	 $LN9@OnItemGaug
  00168	00 00 00 00	 DD	 $LN8@OnItemGaug
  0016c	00 00 00 00	 DD	 $LN7@OnItemGaug
  00170	00 00 00 00	 DD	 $LN6@OnItemGaug
  00174	00 00 00 00	 DD	 $LN5@OnItemGaug
  00178	00 00 00 00	 DD	 $LN4@OnItemGaug
  0017c	00 00 00 00	 DD	 $LN3@OnItemGaug
  00180	00 00 00 00	 DD	 $LN2@OnItemGaug
  00184	00 00 00 00	 DD	 $LN1@OnItemGaug
_TEXT	ENDS
;	COMDAT text$x
text$x	SEGMENT
__unwindfunclet$?OnItemGaugeOK@ioLeeSunSin@@UAEXPAVioBaseChar@@AAVSP2Packet@@@Z$0:
  00000	8d 4d e0	 lea	 ecx, DWORD PTR _szAnmationName$550068[ebp]
  00003	ff 25 00 00 00
	00		 jmp	 DWORD PTR __imp_??1ioHashString@@QAE@XZ
__ehhandler$?OnItemGaugeOK@ioLeeSunSin@@UAEXPAVioBaseChar@@AAVSP2Packet@@@Z:
  00009	8b 54 24 08	 mov	 edx, DWORD PTR [esp+8]
  0000d	8d 42 0c	 lea	 eax, DWORD PTR [edx+12]
  00010	8b 4a cc	 mov	 ecx, DWORD PTR [edx-52]
  00013	33 c8		 xor	 ecx, eax
  00015	e8 00 00 00 00	 call	 @__security_check_cookie@4
  0001a	b8 00 00 00 00	 mov	 eax, OFFSET __ehfuncinfo$?OnItemGaugeOK@ioLeeSunSin@@UAEXPAVioBaseChar@@AAVSP2Packet@@@Z
  0001f	e9 00 00 00 00	 jmp	 ___CxxFrameHandler3
text$x	ENDS
?OnItemGaugeOK@ioLeeSunSin@@UAEXPAVioBaseChar@@AAVSP2Packet@@@Z ENDP ; ioLeeSunSin::OnItemGaugeOK
PUBLIC	?UpdateExtraData@ioLeeSunSin@@UAEXPAVioBaseChar@@@Z ; ioLeeSunSin::UpdateExtraData
EXTRN	__imp_?GetSecPerFrame@ioFrameTimer@@QBEMXZ:PROC
; Function compile flags: /Ogsp
;	COMDAT ?UpdateExtraData@ioLeeSunSin@@UAEXPAVioBaseChar@@@Z
_TEXT	SEGMENT
_value$556619 = -12					; size = 4
_fTimePerSec$ = -12					; size = 4
_value$556614 = -8					; size = 4
_value$556604 = -8					; size = 4
_value$556609 = -4					; size = 4
_pOwner$ = 8						; size = 4
?UpdateExtraData@ioLeeSunSin@@UAEXPAVioBaseChar@@@Z PROC ; ioLeeSunSin::UpdateExtraData, COMDAT
; _this$ = ecx

; 916  : {

  00000	55		 push	 ebp
  00001	8b ec		 mov	 ebp, esp
  00003	83 ec 0c	 sub	 esp, 12			; 0000000cH

; 917  : 	if( !pOwner )

  00006	83 7d 08 00	 cmp	 DWORD PTR _pOwner$[ebp], 0
  0000a	56		 push	 esi
  0000b	8b f1		 mov	 esi, ecx
  0000d	0f 84 c8 00 00
	00		 je	 $LN5@UpdateExtr

; 918  : 		return;
; 919  : 
; 920  : 	float fTimePerSec = g_FrameTimer.GetSecPerFrame();		

  00013	ff 15 00 00 00
	00		 call	 DWORD PTR __imp_?GetSingleton@ioFrameTimer@@SAAAV1@XZ
  00019	8b c8		 mov	 ecx, eax
  0001b	ff 15 00 00 00
	00		 call	 DWORD PTR __imp_?GetSecPerFrame@ioFrameTimer@@QBEMXZ
  00021	d9 5d f4	 fstp	 DWORD PTR _fTimePerSec$[ebp]

; 921  : 	switch( m_ChargeState )

  00024	8b 86 54 19 00
	00		 mov	 eax, DWORD PTR [esi+6484]
  0002a	83 c0 fc	 add	 eax, -4			; fffffffcH
  0002d	83 f8 01	 cmp	 eax, 1
  00030	0f 87 9b 00 00
	00		 ja	 $LN2@UpdateExtr

; 922  : 	{
; 923  : 	case CS_GATHERING:
; 924  : 	case CS_ASSULT_FIRE:
; 925  : 		{
; 926  : 			float fGauge = m_fExtraGaugeBaseInc * fTimePerSec;

  00036	53		 push	 ebx
  00037	57		 push	 edi
  00038	8d 45 f8	 lea	 eax, DWORD PTR _value$556604[ebp]
  0003b	50		 push	 eax
  0003c	8d 8e 4c 16 00
	00		 lea	 ecx, DWORD PTR [esi+5708]
  00042	e8 00 00 00 00	 call	 ?DecryptValueToPool@?$CEncrypt@M@@QAEXPAM@Z ; CEncrypt<float>::DecryptValueToPool

; 927  : 			m_fCurExtraGauge += fGauge;

  00047	8d 45 fc	 lea	 eax, DWORD PTR _value$556609[ebp]
  0004a	8d be dc 16 00
	00		 lea	 edi, DWORD PTR [esi+5852]
  00050	50		 push	 eax
  00051	8b cf		 mov	 ecx, edi
  00053	e8 00 00 00 00	 call	 ?DecryptValueToPool@?$CEncrypt@M@@QAEXPAM@Z ; CEncrypt<float>::DecryptValueToPool
  00058	f3 0f 10 45 f8	 movss	 xmm0, DWORD PTR _value$556604[ebp]
  0005d	f3 0f 10 4d f4	 movss	 xmm1, DWORD PTR _fTimePerSec$[ebp]
  00062	0f 5a c0	 cvtps2pd xmm0, xmm0
  00065	0f 5a c9	 cvtps2pd xmm1, xmm1
  00068	f2 0f 59 c1	 mulsd	 xmm0, xmm1
  0006c	f3 0f 10 4d fc	 movss	 xmm1, DWORD PTR _value$556609[ebp]
  00071	66 0f 5a c0	 cvtpd2ps xmm0, xmm0
  00075	f3 0f 5a c0	 cvtss2sd xmm0, xmm0
  00079	0f 5a c9	 cvtps2pd xmm1, xmm1
  0007c	8d 45 fc	 lea	 eax, DWORD PTR _value$556609[ebp]
  0007f	f2 0f 58 c1	 addsd	 xmm0, xmm1
  00083	66 0f 5a c0	 cvtpd2ps xmm0, xmm0
  00087	50		 push	 eax
  00088	8b cf		 mov	 ecx, edi
  0008a	f3 0f 11 45 fc	 movss	 DWORD PTR _value$556609[ebp], xmm0
  0008f	e8 00 00 00 00	 call	 ?EncryptValueToPool@?$CEncrypt@M@@AAEXPBD@Z ; CEncrypt<float>::EncryptValueToPool

; 928  : 			m_fCurExtraGauge = min( m_fCurExtraGauge, m_fMaxExtraGauge );

  00094	8d 45 f8	 lea	 eax, DWORD PTR _value$556614[ebp]
  00097	8d 9e ac 16 00
	00		 lea	 ebx, DWORD PTR [esi+5804]
  0009d	50		 push	 eax
  0009e	8b cb		 mov	 ecx, ebx
  000a0	e8 00 00 00 00	 call	 ?DecryptValueToPool@?$CEncrypt@M@@QAEXPAM@Z ; CEncrypt<float>::DecryptValueToPool
  000a5	8d 45 f4	 lea	 eax, DWORD PTR _value$556619[ebp]
  000a8	50		 push	 eax
  000a9	8b cf		 mov	 ecx, edi
  000ab	e8 00 00 00 00	 call	 ?DecryptValueToPool@?$CEncrypt@M@@QAEXPAM@Z ; CEncrypt<float>::DecryptValueToPool
  000b0	f3 0f 10 45 f4	 movss	 xmm0, DWORD PTR _value$556619[ebp]
  000b5	f3 0f 10 4d f8	 movss	 xmm1, DWORD PTR _value$556614[ebp]
  000ba	0f 5a c0	 cvtps2pd xmm0, xmm0
  000bd	0f 5a c9	 cvtps2pd xmm1, xmm1
  000c0	66 0f 2f c8	 comisd	 xmm1, xmm0
  000c4	0f 47 df	 cmova	 ebx, edi
  000c7	53		 push	 ebx
  000c8	8b cf		 mov	 ecx, edi
  000ca	e8 00 00 00 00	 call	 ??4?$CEncrypt@M@@QAE_NAAV0@@Z ; CEncrypt<float>::operator=
  000cf	5f		 pop	 edi
  000d0	5b		 pop	 ebx
$LN2@UpdateExtr:

; 929  : 		}
; 930  : 		break;
; 931  : 	}
; 932  : 
; 933  : 	UpdateEffect( pOwner );

  000d1	ff 75 08	 push	 DWORD PTR _pOwner$[ebp]
  000d4	8b ce		 mov	 ecx, esi
  000d6	e8 00 00 00 00	 call	 ?UpdateEffect@ioLeeSunSin@@QAEXPAVioBaseChar@@@Z ; ioLeeSunSin::UpdateEffect
$LN5@UpdateExtr:
  000db	5e		 pop	 esi

; 934  : }

  000dc	c9		 leave
  000dd	c2 04 00	 ret	 4
?UpdateExtraData@ioLeeSunSin@@UAEXPAVioBaseChar@@@Z ENDP ; ioLeeSunSin::UpdateExtraData
_TEXT	ENDS
PUBLIC	??$_Cons_val@V?$allocator@UWoundedInfo@ioLeeSunSin@@@std@@UWoundedInfo@ioLeeSunSin@@ABU34@@std@@YAXAAV?$allocator@UWoundedInfo@ioLeeSunSin@@@0@PAUWoundedInfo@ioLeeSunSin@@ABU23@@Z ; std::_Cons_val<std::allocator<ioLeeSunSin::WoundedInfo>,ioLeeSunSin::WoundedInfo,ioLeeSunSin::WoundedInfo const &>
; Function compile flags: /Ogsp
; File c:\program files (x86)\microsoft visual studio 10.0\vc\include\xmemory
;	COMDAT ??$_Cons_val@V?$allocator@UWoundedInfo@ioLeeSunSin@@@std@@UWoundedInfo@ioLeeSunSin@@ABU34@@std@@YAXAAV?$allocator@UWoundedInfo@ioLeeSunSin@@@0@PAUWoundedInfo@ioLeeSunSin@@ABU23@@Z
_TEXT	SEGMENT
__Alval$ = 8						; size = 4
__Pdest$ = 12						; size = 4
__Src$ = 16						; size = 4
??$_Cons_val@V?$allocator@UWoundedInfo@ioLeeSunSin@@@std@@UWoundedInfo@ioLeeSunSin@@ABU34@@std@@YAXAAV?$allocator@UWoundedInfo@ioLeeSunSin@@@0@PAUWoundedInfo@ioLeeSunSin@@ABU23@@Z PROC ; std::_Cons_val<std::allocator<ioLeeSunSin::WoundedInfo>,ioLeeSunSin::WoundedInfo,ioLeeSunSin::WoundedInfo const &>, COMDAT

; 279  : 	{	// construct using allocator

  00000	55		 push	 ebp
  00001	8b ec		 mov	 ebp, esp

; 280  : 	_Alval.construct(_Pdest, _STD forward<_Ty2>(_Src));

  00003	ff 75 10	 push	 DWORD PTR __Src$[ebp]
  00006	ff 75 0c	 push	 DWORD PTR __Pdest$[ebp]
  00009	e8 00 00 00 00	 call	 ??$_Construct@UWoundedInfo@ioLeeSunSin@@ABU12@@std@@YAXPAUWoundedInfo@ioLeeSunSin@@ABU12@@Z ; std::_Construct<ioLeeSunSin::WoundedInfo,ioLeeSunSin::WoundedInfo const &>
  0000e	59		 pop	 ecx
  0000f	59		 pop	 ecx

; 281  : 	}

  00010	5d		 pop	 ebp
  00011	c3		 ret	 0
??$_Cons_val@V?$allocator@UWoundedInfo@ioLeeSunSin@@@std@@UWoundedInfo@ioLeeSunSin@@ABU34@@std@@YAXAAV?$allocator@UWoundedInfo@ioLeeSunSin@@@0@PAUWoundedInfo@ioLeeSunSin@@ABU23@@Z ENDP ; std::_Cons_val<std::allocator<ioLeeSunSin::WoundedInfo>,ioLeeSunSin::WoundedInfo,ioLeeSunSin::WoundedInfo const &>
_TEXT	ENDS
PUBLIC	??$_Uninit_copy@V?$_Vector_const_iterator@V?$_Vector_val@UForceInfo@@V?$allocator@UForceInfo@@@std@@@std@@@std@@PAUForceInfo@@V?$allocator@UForceInfo@@@2@@std@@YAPAUForceInfo@@V?$_Vector_const_iterator@V?$_Vector_val@UForceInfo@@V?$allocator@UForceInfo@@@std@@@std@@@0@0PAU1@AAV?$allocator@UForceInfo@@@0@U_Nonscalar_ptr_iterator_tag@0@@Z ; std::_Uninit_copy<std::_Vector_const_iterator<std::_Vector_val<ForceInfo,std::allocator<ForceInfo> > >,ForceInfo *,std::allocator<ForceInfo> >
; Function compile flags: /Ogsp
; File c:\program files (x86)\microsoft visual studio 10.0\vc\include\memory
;	COMDAT ??$_Uninit_copy@V?$_Vector_const_iterator@V?$_Vector_val@UForceInfo@@V?$allocator@UForceInfo@@@std@@@std@@@std@@PAUForceInfo@@V?$allocator@UForceInfo@@@2@@std@@YAPAUForceInfo@@V?$_Vector_const_iterator@V?$_Vector_val@UForceInfo@@V?$allocator@UForceInfo@@@std@@@std@@@0@0PAU1@AAV?$allocator@UForceInfo@@@0@U_Nonscalar_ptr_iterator_tag@0@@Z
_TEXT	SEGMENT
__First$ = 8						; size = 4
__Last$ = 12						; size = 4
__Dest$ = 16						; size = 4
__Al$ = 20						; size = 4
___formal$ = 24						; size = 1
??$_Uninit_copy@V?$_Vector_const_iterator@V?$_Vector_val@UForceInfo@@V?$allocator@UForceInfo@@@std@@@std@@@std@@PAUForceInfo@@V?$allocator@UForceInfo@@@2@@std@@YAPAUForceInfo@@V?$_Vector_const_iterator@V?$_Vector_val@UForceInfo@@V?$allocator@UForceInfo@@@std@@@std@@@0@0PAU1@AAV?$allocator@UForceInfo@@@0@U_Nonscalar_ptr_iterator_tag@0@@Z PROC ; std::_Uninit_copy<std::_Vector_const_iterator<std::_Vector_val<ForceInfo,std::allocator<ForceInfo> > >,ForceInfo *,std::allocator<ForceInfo> >, COMDAT

; 369  : 	{	// copy [_First, _Last) to raw _Dest, using _Al, arbitrary type

  00000	55		 push	 ebp
  00001	8b ec		 mov	 ebp, esp

; 370  : 	_DEBUG_RANGE(_First, _Last);
; 371  : 	_DEBUG_POINTER(_Dest);
; 372  : 	_FwdIt _Next = _Dest;
; 373  : 
; 374  : 	_TRY_BEGIN
; 375  : 	for (; _First != _Last; ++_Dest, ++_First)

  00003	eb 19		 jmp	 SHORT $LN35@Uninit_cop
$LL14@Uninit_cop:

; 376  : 		_Cons_val(_Al, _Dest, *_First);

  00005	ff 75 08	 push	 DWORD PTR __First$[ebp]
  00008	ff 75 10	 push	 DWORD PTR __Dest$[ebp]
  0000b	ff 75 14	 push	 DWORD PTR __Al$[ebp]
  0000e	e8 00 00 00 00	 call	 ??$_Cons_val@V?$allocator@UForceInfo@@@std@@UForceInfo@@ABU3@@std@@YAXAAV?$allocator@UForceInfo@@@0@PAUForceInfo@@ABU2@@Z ; std::_Cons_val<std::allocator<ForceInfo>,ForceInfo,ForceInfo const &>
  00013	83 45 10 0c	 add	 DWORD PTR __Dest$[ebp], 12 ; 0000000cH
  00017	83 c4 0c	 add	 esp, 12			; 0000000cH
  0001a	83 45 08 0c	 add	 DWORD PTR __First$[ebp], 12 ; 0000000cH
$LN35@Uninit_cop:

; 370  : 	_DEBUG_RANGE(_First, _Last);
; 371  : 	_DEBUG_POINTER(_Dest);
; 372  : 	_FwdIt _Next = _Dest;
; 373  : 
; 374  : 	_TRY_BEGIN
; 375  : 	for (; _First != _Last; ++_Dest, ++_First)

  0001e	8b 45 08	 mov	 eax, DWORD PTR __First$[ebp]
  00021	3b 45 0c	 cmp	 eax, DWORD PTR __Last$[ebp]
  00024	75 df		 jne	 SHORT $LL14@Uninit_cop

; 377  : 	_CATCH_ALL
; 378  : 	for (; _Next != _Dest; ++_Next)
; 379  : 		_Dest_val(_Al, _Next);
; 380  : 	_RERAISE;
; 381  : 	_CATCH_END
; 382  : 	return (_Dest);

  00026	8b 45 10	 mov	 eax, DWORD PTR __Dest$[ebp]

; 383  : 	}

  00029	5d		 pop	 ebp
  0002a	c3		 ret	 0
??$_Uninit_copy@V?$_Vector_const_iterator@V?$_Vector_val@UForceInfo@@V?$allocator@UForceInfo@@@std@@@std@@@std@@PAUForceInfo@@V?$allocator@UForceInfo@@@2@@std@@YAPAUForceInfo@@V?$_Vector_const_iterator@V?$_Vector_val@UForceInfo@@V?$allocator@UForceInfo@@@std@@@std@@@0@0PAU1@AAV?$allocator@UForceInfo@@@0@U_Nonscalar_ptr_iterator_tag@0@@Z ENDP ; std::_Uninit_copy<std::_Vector_const_iterator<std::_Vector_val<ForceInfo,std::allocator<ForceInfo> > >,ForceInfo *,std::allocator<ForceInfo> >
_TEXT	ENDS
PUBLIC	??$_Dest_val@V?$allocator@UWoundedInfo@ioLeeSunSin@@@std@@UWoundedInfo@ioLeeSunSin@@@std@@YAXAAV?$allocator@UWoundedInfo@ioLeeSunSin@@@0@PAUWoundedInfo@ioLeeSunSin@@@Z ; std::_Dest_val<std::allocator<ioLeeSunSin::WoundedInfo>,ioLeeSunSin::WoundedInfo>
; Function compile flags: /Ogsp
; File c:\program files (x86)\microsoft visual studio 10.0\vc\include\xmemory
;	COMDAT ??$_Dest_val@V?$allocator@UWoundedInfo@ioLeeSunSin@@@std@@UWoundedInfo@ioLeeSunSin@@@std@@YAXAAV?$allocator@UWoundedInfo@ioLeeSunSin@@@0@PAUWoundedInfo@ioLeeSunSin@@@Z
_TEXT	SEGMENT
__Alval$ = 8						; size = 4
__Pdest$ = 12						; size = 4
??$_Dest_val@V?$allocator@UWoundedInfo@ioLeeSunSin@@@std@@UWoundedInfo@ioLeeSunSin@@@std@@YAXAAV?$allocator@UWoundedInfo@ioLeeSunSin@@@0@PAUWoundedInfo@ioLeeSunSin@@@Z PROC ; std::_Dest_val<std::allocator<ioLeeSunSin::WoundedInfo>,ioLeeSunSin::WoundedInfo>, COMDAT

; 286  : 	{	// destroy using allocator

  00000	55		 push	 ebp
  00001	8b ec		 mov	 ebp, esp

; 287  : 	_Alval.destroy(_Pdest);

  00003	8b 4d 0c	 mov	 ecx, DWORD PTR __Pdest$[ebp]
  00006	83 c1 0c	 add	 ecx, 12			; 0000000cH

; 288  : 	}

  00009	5d		 pop	 ebp

; 287  : 	_Alval.destroy(_Pdest);

  0000a	ff 25 00 00 00
	00		 jmp	 DWORD PTR __imp_??1ioHashString@@QAE@XZ
??$_Dest_val@V?$allocator@UWoundedInfo@ioLeeSunSin@@@std@@UWoundedInfo@ioLeeSunSin@@@std@@YAXAAV?$allocator@UWoundedInfo@ioLeeSunSin@@@0@PAUWoundedInfo@ioLeeSunSin@@@Z ENDP ; std::_Dest_val<std::allocator<ioLeeSunSin::WoundedInfo>,ioLeeSunSin::WoundedInfo>
_TEXT	ENDS
PUBLIC	??$_Cons_val@V?$allocator@UWeaponInfo@@@std@@UWeaponInfo@@ABU3@@std@@YAXAAV?$allocator@UWeaponInfo@@@0@PAUWeaponInfo@@ABU2@@Z ; std::_Cons_val<std::allocator<WeaponInfo>,WeaponInfo,WeaponInfo const &>
; Function compile flags: /Ogsp
;	COMDAT ??$_Cons_val@V?$allocator@UWeaponInfo@@@std@@UWeaponInfo@@ABU3@@std@@YAXAAV?$allocator@UWeaponInfo@@@0@PAUWeaponInfo@@ABU2@@Z
_TEXT	SEGMENT
__Alval$ = 8						; size = 4
__Pdest$ = 12						; size = 4
__Src$ = 16						; size = 4
??$_Cons_val@V?$allocator@UWeaponInfo@@@std@@UWeaponInfo@@ABU3@@std@@YAXAAV?$allocator@UWeaponInfo@@@0@PAUWeaponInfo@@ABU2@@Z PROC ; std::_Cons_val<std::allocator<WeaponInfo>,WeaponInfo,WeaponInfo const &>, COMDAT

; 279  : 	{	// construct using allocator

  00000	55		 push	 ebp
  00001	8b ec		 mov	 ebp, esp

; 280  : 	_Alval.construct(_Pdest, _STD forward<_Ty2>(_Src));

  00003	ff 75 10	 push	 DWORD PTR __Src$[ebp]
  00006	ff 75 0c	 push	 DWORD PTR __Pdest$[ebp]
  00009	e8 00 00 00 00	 call	 ??$_Construct@UWeaponInfo@@ABU1@@std@@YAXPAUWeaponInfo@@ABU1@@Z ; std::_Construct<WeaponInfo,WeaponInfo const &>
  0000e	59		 pop	 ecx
  0000f	59		 pop	 ecx

; 281  : 	}

  00010	5d		 pop	 ebp
  00011	c3		 ret	 0
??$_Cons_val@V?$allocator@UWeaponInfo@@@std@@UWeaponInfo@@ABU3@@std@@YAXAAV?$allocator@UWeaponInfo@@@0@PAUWeaponInfo@@ABU2@@Z ENDP ; std::_Cons_val<std::allocator<WeaponInfo>,WeaponInfo,WeaponInfo const &>
_TEXT	ENDS
PUBLIC	??$_Destroy_range@V?$allocator@UForceInfo@@@std@@@std@@YAXPAUForceInfo@@0AAV?$allocator@UForceInfo@@@0@U_Nonscalar_ptr_iterator_tag@0@@Z ; std::_Destroy_range<std::allocator<ForceInfo> >
; Function compile flags: /Ogsp
;	COMDAT ??$_Destroy_range@V?$allocator@UForceInfo@@@std@@@std@@YAXPAUForceInfo@@0AAV?$allocator@UForceInfo@@@0@U_Nonscalar_ptr_iterator_tag@0@@Z
_TEXT	SEGMENT
__First$ = 8						; size = 4
__Last$ = 12						; size = 4
__Al$ = 16						; size = 4
___formal$ = 20						; size = 1
??$_Destroy_range@V?$allocator@UForceInfo@@@std@@@std@@YAXPAUForceInfo@@0AAV?$allocator@UForceInfo@@@0@U_Nonscalar_ptr_iterator_tag@0@@Z PROC ; std::_Destroy_range<std::allocator<ForceInfo> >, COMDAT

; 96   : 	for (; _First != _Last; ++_First)
; 97   : 		_Dest_val(_Al, _First);
; 98   : 	}

  00000	c3		 ret	 0
??$_Destroy_range@V?$allocator@UForceInfo@@@std@@@std@@YAXPAUForceInfo@@0AAV?$allocator@UForceInfo@@@0@U_Nonscalar_ptr_iterator_tag@0@@Z ENDP ; std::_Destroy_range<std::allocator<ForceInfo> >
_TEXT	ENDS
PUBLIC	??$_Dest_val@V?$allocator@VioHashString@@@std@@VioHashString@@@std@@YAXAAV?$allocator@VioHashString@@@0@PAVioHashString@@@Z ; std::_Dest_val<std::allocator<ioHashString>,ioHashString>
; Function compile flags: /Ogsp
;	COMDAT ??$_Dest_val@V?$allocator@VioHashString@@@std@@VioHashString@@@std@@YAXAAV?$allocator@VioHashString@@@0@PAVioHashString@@@Z
_TEXT	SEGMENT
__Alval$ = 8						; size = 4
__Pdest$ = 12						; size = 4
??$_Dest_val@V?$allocator@VioHashString@@@std@@VioHashString@@@std@@YAXAAV?$allocator@VioHashString@@@0@PAVioHashString@@@Z PROC ; std::_Dest_val<std::allocator<ioHashString>,ioHashString>, COMDAT

; 286  : 	{	// destroy using allocator

  00000	55		 push	 ebp
  00001	8b ec		 mov	 ebp, esp

; 287  : 	_Alval.destroy(_Pdest);

  00003	8b 4d 0c	 mov	 ecx, DWORD PTR __Pdest$[ebp]

; 288  : 	}

  00006	5d		 pop	 ebp

; 287  : 	_Alval.destroy(_Pdest);

  00007	ff 25 00 00 00
	00		 jmp	 DWORD PTR __imp_??1ioHashString@@QAE@XZ
??$_Dest_val@V?$allocator@VioHashString@@@std@@VioHashString@@@std@@YAXAAV?$allocator@VioHashString@@@0@PAVioHashString@@@Z ENDP ; std::_Dest_val<std::allocator<ioHashString>,ioHashString>
_TEXT	ENDS
PUBLIC	??$_Dest_val@V?$allocator@UWeaponInfo@@@std@@UWeaponInfo@@@std@@YAXAAV?$allocator@UWeaponInfo@@@0@PAUWeaponInfo@@@Z ; std::_Dest_val<std::allocator<WeaponInfo>,WeaponInfo>
; Function compile flags: /Ogsp
;	COMDAT ??$_Dest_val@V?$allocator@UWeaponInfo@@@std@@UWeaponInfo@@@std@@YAXAAV?$allocator@UWeaponInfo@@@0@PAUWeaponInfo@@@Z
_TEXT	SEGMENT
__Alval$ = 8						; size = 4
__Pdest$ = 12						; size = 4
??$_Dest_val@V?$allocator@UWeaponInfo@@@std@@UWeaponInfo@@@std@@YAXAAV?$allocator@UWeaponInfo@@@0@PAUWeaponInfo@@@Z PROC ; std::_Dest_val<std::allocator<WeaponInfo>,WeaponInfo>, COMDAT

; 286  : 	{	// destroy using allocator

  00000	55		 push	 ebp
  00001	8b ec		 mov	 ebp, esp

; 287  : 	_Alval.destroy(_Pdest);

  00003	8b 4d 0c	 mov	 ecx, DWORD PTR __Pdest$[ebp]
  00006	83 c1 08	 add	 ecx, 8

; 288  : 	}

  00009	5d		 pop	 ebp

; 287  : 	_Alval.destroy(_Pdest);

  0000a	ff 25 00 00 00
	00		 jmp	 DWORD PTR __imp_??1ioHashString@@QAE@XZ
??$_Dest_val@V?$allocator@UWeaponInfo@@@std@@UWeaponInfo@@@std@@YAXAAV?$allocator@UWeaponInfo@@@0@PAUWeaponInfo@@@Z ENDP ; std::_Dest_val<std::allocator<WeaponInfo>,WeaponInfo>
_TEXT	ENDS
PUBLIC	__$ArrayPad$
PUBLIC	?OnGathering@ioLeeSunSin@@IAEXPAVioBaseChar@@@Z	; ioLeeSunSin::OnGathering
EXTRN	?IsDefenseKeyDown@ioBaseChar@@QBE_NXZ:PROC	; ioBaseChar::IsDefenseKeyDown
EXTRN	?IsJumpKeyDown@ioBaseChar@@QBE_NXZ:PROC		; ioBaseChar::IsJumpKeyDown
;	COMDAT xdata$x
; File d:\lost saga for developer\youtube\tutorial\source\src\lsclient\iobasechar.h
xdata$x	SEGMENT
__unwindtable$?OnGathering@ioLeeSunSin@@IAEXPAVioBaseChar@@@Z DD 0ffffffffH
	DD	FLAT:__unwindfunclet$?OnGathering@ioLeeSunSin@@IAEXPAVioBaseChar@@@Z$0
__ehfuncinfo$?OnGathering@ioLeeSunSin@@IAEXPAVioBaseChar@@@Z DD 019930522H
	DD	01H
	DD	FLAT:__unwindtable$?OnGathering@ioLeeSunSin@@IAEXPAVioBaseChar@@@Z
	DD	2 DUP(00H)
	DD	2 DUP(00H)
	DD	00H
	DD	01H
; Function compile flags: /Ogsp
; File d:\lost saga for developer\youtube\tutorial\source\src\lsclient\ioleesunsin.cpp
xdata$x	ENDS
;	COMDAT ?OnGathering@ioLeeSunSin@@IAEXPAVioBaseChar@@@Z
_TEXT	SEGMENT
_kPacket$549670 = -32808				; size = 32792
__$ArrayPad$ = -16					; size = 4
__$EHRec$ = -12						; size = 12
_pOwner$ = 8						; size = 4
?OnGathering@ioLeeSunSin@@IAEXPAVioBaseChar@@@Z PROC	; ioLeeSunSin::OnGathering, COMDAT
; _this$ = ecx

; 360  : {

  00000	55		 push	 ebp
  00001	8b ec		 mov	 ebp, esp
  00003	6a ff		 push	 -1
  00005	68 00 00 00 00	 push	 __ehhandler$?OnGathering@ioLeeSunSin@@IAEXPAVioBaseChar@@@Z
  0000a	64 a1 00 00 00
	00		 mov	 eax, DWORD PTR fs:0
  00010	50		 push	 eax
  00011	b8 1c 80 00 00	 mov	 eax, 32796		; 0000801cH
  00016	e8 00 00 00 00	 call	 __chkstk
  0001b	a1 00 00 00 00	 mov	 eax, DWORD PTR ___security_cookie
  00020	33 c5		 xor	 eax, ebp
  00022	89 45 f0	 mov	 DWORD PTR __$ArrayPad$[ebp], eax
  00025	53		 push	 ebx
  00026	56		 push	 esi
  00027	57		 push	 edi
  00028	50		 push	 eax
  00029	8d 45 f4	 lea	 eax, DWORD PTR __$EHRec$[ebp]
  0002c	64 a3 00 00 00
	00		 mov	 DWORD PTR fs:0, eax
  00032	8b 75 08	 mov	 esi, DWORD PTR _pOwner$[ebp]
  00035	8b f9		 mov	 edi, ecx

; 361  : 	if( !pOwner || !pOwner->IsNeedProcess() )

  00037	85 f6		 test	 esi, esi
  00039	0f 84 60 01 00
	00		 je	 $LN15@OnGatherin
  0003f	8b 06		 mov	 eax, DWORD PTR [esi]
  00041	8b ce		 mov	 ecx, esi
  00043	ff 90 00 01 00
	00		 call	 DWORD PTR [eax+256]
  00049	84 c0		 test	 al, al
  0004b	0f 84 4e 01 00
	00		 je	 $LN15@OnGatherin

; 362  : 		return;
; 363  : 	
; 364  : 	if( pOwner->CheckCurDirKey() != ioUserKeyInput::DKI_NONE && m_CurrDirKey != pOwner->CheckCurDirKey() )

  00051	8b ce		 mov	 ecx, esi
  00053	e8 00 00 00 00	 call	 ?CheckCurDirKey@ioBaseChar@@QAE?AW4DirKeyInput@ioUserKeyInput@@XZ ; ioBaseChar::CheckCurDirKey
  00058	85 c0		 test	 eax, eax
  0005a	0f 84 a8 00 00
	00		 je	 $LN14@OnGatherin
  00060	8b ce		 mov	 ecx, esi
  00062	e8 00 00 00 00	 call	 ?CheckCurDirKey@ioBaseChar@@QAE?AW4DirKeyInput@ioUserKeyInput@@XZ ; ioBaseChar::CheckCurDirKey
  00067	39 87 0c 1a 00
	00		 cmp	 DWORD PTR [edi+6668], eax
  0006d	0f 84 95 00 00
	00		 je	 $LN14@OnGatherin

; 365  : 	{
; 366  : 		pOwner->SetTargetRotToDirKey( pOwner->CheckCurDirKey() );

  00073	8b ce		 mov	 ecx, esi
  00075	e8 00 00 00 00	 call	 ?CheckCurDirKey@ioBaseChar@@QAE?AW4DirKeyInput@ioUserKeyInput@@XZ ; ioBaseChar::CheckCurDirKey
  0007a	50		 push	 eax
  0007b	8b ce		 mov	 ecx, esi
  0007d	e8 00 00 00 00	 call	 ?SetTargetRotToDirKey@ioBaseChar@@QAEXW4DirKeyInput@ioUserKeyInput@@@Z ; ioBaseChar::SetTargetRotToDirKey

; 367  : 		m_CurrDirKey = pOwner->CheckCurDirKey();

  00082	8b ce		 mov	 ecx, esi
  00084	e8 00 00 00 00	 call	 ?CheckCurDirKey@ioBaseChar@@QAE?AW4DirKeyInput@ioUserKeyInput@@XZ ; ioBaseChar::CheckCurDirKey
  00089	89 87 0c 1a 00
	00		 mov	 DWORD PTR [edi+6668], eax

; 368  : 
; 369  : 		if( pOwner->IsNeedSendNetwork() )

  0008f	8b 06		 mov	 eax, DWORD PTR [esi]
  00091	8b ce		 mov	 ecx, esi
  00093	ff 90 04 01 00
	00		 call	 DWORD PTR [eax+260]
  00099	84 c0		 test	 al, al
  0009b	0f 84 fe 00 00
	00		 je	 $LN15@OnGatherin

; 370  : 		{
; 371  : 			SP2Packet kPacket( CUPK_ITEM_GAUGE_OK );

  000a1	68 27 41 00 00	 push	 16679			; 00004127H
  000a6	8d 8d d8 7f ff
	ff		 lea	 ecx, DWORD PTR _kPacket$549670[ebp]
  000ac	e8 00 00 00 00	 call	 ??0SP2Packet@@QAE@K@Z	; SP2Packet::SP2Packet
  000b1	83 65 fc 00	 and	 DWORD PTR __$EHRec$[ebp+8], 0

; 372  : 			FillItemGaugePacketHeader( pOwner, kPacket );

  000b5	8d 85 d8 7f ff
	ff		 lea	 eax, DWORD PTR _kPacket$549670[ebp]
  000bb	50		 push	 eax
  000bc	56		 push	 esi
  000bd	8b cf		 mov	 ecx, edi
  000bf	e8 00 00 00 00	 call	 ?FillItemGaugePacketHeader@ioAttackableItem@@QAEXPAVioBaseChar@@AAVSP2Packet@@@Z ; ioAttackableItem::FillItemGaugePacketHeader

; 373  : 			kPacket << static_cast<byte>( SS_GATHERING_DIR );

  000c4	6a 02		 push	 2
  000c6	8d 8d d8 7f ff
	ff		 lea	 ecx, DWORD PTR _kPacket$549670[ebp]
  000cc	e8 00 00 00 00	 call	 ??6SP2Packet@@QAEAAV0@E@Z ; SP2Packet::operator<<

; 374  : 			kPacket << static_cast<byte>( m_CurrDirKey );

  000d1	0f b6 87 0c 1a
	00 00		 movzx	 eax, BYTE PTR [edi+6668]
  000d8	50		 push	 eax
  000d9	8d 8d d8 7f ff
	ff		 lea	 ecx, DWORD PTR _kPacket$549670[ebp]
  000df	e8 00 00 00 00	 call	 ??6SP2Packet@@QAEAAV0@E@Z ; SP2Packet::operator<<

; 375  : 			P2PNetwork::SendToAllPlayingUser( kPacket );

  000e4	8d 85 d8 7f ff
	ff		 lea	 eax, DWORD PTR _kPacket$549670[ebp]
  000ea	6a 00		 push	 0
  000ec	50		 push	 eax
  000ed	e8 00 00 00 00	 call	 ?SendToAllPlayingUser@P2PNetwork@@YAXAAVSP2Packet@@PAVioBaseChar@@@Z ; P2PNetwork::SendToAllPlayingUser

; 376  : 		}

  000f2	83 4d fc ff	 or	 DWORD PTR __$EHRec$[ebp+8], -1
  000f6	59		 pop	 ecx
  000f7	59		 pop	 ecx
  000f8	8d 8d d8 7f ff
	ff		 lea	 ecx, DWORD PTR _kPacket$549670[ebp]
  000fe	e8 00 00 00 00	 call	 ??1SP2Packet@@UAE@XZ	; SP2Packet::~SP2Packet

; 377  : 	}
; 378  : 	else

  00103	e9 97 00 00 00	 jmp	 $LN15@OnGatherin
$LN14@OnGatherin:

; 379  : 	{
; 380  : 		if( pOwner->IsAttackKeyDown() )

  00108	8b ce		 mov	 ecx, esi
  0010a	e8 00 00 00 00	 call	 ?IsAttackKeyDown@ioBaseChar@@QBE_NXZ ; ioBaseChar::IsAttackKeyDown
  0010f	84 c0		 test	 al, al
  00111	74 0a		 je	 SHORT $LN11@OnGatherin

; 381  : 		{
; 382  : 			m_GatherState = GS_GATHER;

  00113	c7 87 58 19 00
	00 01 00 00 00	 mov	 DWORD PTR [edi+6488], 1
$LN11@OnGatherin:

; 383  : 		}
; 384  : 
; 385  : 		if( !pOwner->IsAttackKeyDown() )

  0011d	8b ce		 mov	 ecx, esi
  0011f	e8 00 00 00 00	 call	 ?IsAttackKeyDown@ioBaseChar@@QBE_NXZ ; ioBaseChar::IsAttackKeyDown
  00124	84 c0		 test	 al, al
  00126	75 28		 jne	 SHORT $LN10@OnGatherin

; 386  : 		{
; 387  : 			if( GetNeedBullet() > GetCurBullet() )

  00128	8b 07		 mov	 eax, DWORD PTR [edi]
  0012a	8b cf		 mov	 ecx, edi
  0012c	ff 50 64	 call	 DWORD PTR [eax+100]
  0012f	8b cf		 mov	 ecx, edi
  00131	8b d8		 mov	 ebx, eax
  00133	e8 00 00 00 00	 call	 ?GetNeedBullet@ioLeeSunSin@@QAEHXZ ; ioLeeSunSin::GetNeedBullet

; 388  : 			{
; 389  : 				ChangeToAttackFire( pOwner );

  00138	8b cf		 mov	 ecx, edi
  0013a	3b c3		 cmp	 eax, ebx
  0013c	7e 08		 jle	 SHORT $LN9@OnGatherin
  0013e	56		 push	 esi
  0013f	e8 00 00 00 00	 call	 ?ChangeToAttackFire@ioLeeSunSin@@IAEXPAVioBaseChar@@@Z ; ioLeeSunSin::ChangeToAttackFire

; 390  : 			}
; 391  : 			else

  00144	eb 59		 jmp	 SHORT $LN15@OnGatherin
$LN9@OnGatherin:

; 392  : 			{
; 393  : 				ChangeToExtendAttackFire( pOwner, ET_NORMAL );

  00146	6a 00		 push	 0
  00148	56		 push	 esi
  00149	e8 00 00 00 00	 call	 ?ChangeToExtendAttackFire@ioLeeSunSin@@IAEXPAVioBaseChar@@W4ExtendType@1@@Z ; ioLeeSunSin::ChangeToExtendAttackFire

; 394  : 			}

  0014e	eb 4f		 jmp	 SHORT $LN15@OnGatherin
$LN10@OnGatherin:

; 395  : 		}
; 396  : 		else if( pOwner->IsJumpKeyDown() )

  00150	8b ce		 mov	 ecx, esi
  00152	e8 00 00 00 00	 call	 ?IsJumpKeyDown@ioBaseChar@@QBE_NXZ ; ioBaseChar::IsJumpKeyDown
  00157	84 c0		 test	 al, al
  00159	74 0a		 je	 SHORT $LN6@OnGatherin

; 397  : 		{
; 398  : 			ChangeToGatherEndByJump( pOwner );

  0015b	56		 push	 esi
  0015c	8b cf		 mov	 ecx, edi
  0015e	e8 00 00 00 00	 call	 ?ChangeToGatherEndByJump@ioLeeSunSin@@IAEXPAVioBaseChar@@@Z ; ioLeeSunSin::ChangeToGatherEndByJump
  00163	eb 3a		 jmp	 SHORT $LN15@OnGatherin
$LN6@OnGatherin:

; 399  : 		}
; 400  : 		else if( pOwner->IsDefenseKeyDown() )

  00165	8b ce		 mov	 ecx, esi
  00167	e8 00 00 00 00	 call	 ?IsDefenseKeyDown@ioBaseChar@@QBE_NXZ ; ioBaseChar::IsDefenseKeyDown
  0016c	84 c0		 test	 al, al
  0016e	74 0a		 je	 SHORT $LN4@OnGatherin

; 401  : 		{
; 402  : 			ChangeToGatherEndBySkill( pOwner );

  00170	56		 push	 esi
  00171	8b cf		 mov	 ecx, edi
  00173	e8 00 00 00 00	 call	 ?ChangeToGatherEndBySkill@ioLeeSunSin@@IAEXPAVioBaseChar@@@Z ; ioLeeSunSin::ChangeToGatherEndBySkill

; 403  : 		}
; 404  : 		else if( pOwner->IsDirKeyDoubleClick() )

  00178	eb 25		 jmp	 SHORT $LN15@OnGatherin
$LN4@OnGatherin:
  0017a	8d 8e 80 0c 00
	00		 lea	 ecx, DWORD PTR [esi+3200]
  00180	e8 00 00 00 00	 call	 ?IsDirDoubleClick@ioUserKeyInput@@QBE_NXZ ; ioUserKeyInput::IsDirDoubleClick
  00185	84 c0		 test	 al, al
  00187	74 16		 je	 SHORT $LN15@OnGatherin

; 405  : 		{
; 406  : 			if( COMPARE( m_dwAssultDashCurrCount, 0, m_dwAssultDashCount ) )

  00189	8b 87 a8 1b 00
	00		 mov	 eax, DWORD PTR [edi+7080]
  0018f	3b 87 a4 1b 00
	00		 cmp	 eax, DWORD PTR [edi+7076]
  00195	73 08		 jae	 SHORT $LN15@OnGatherin

; 407  : 			{	
; 408  : 				ChangeToAssultAttackFire( pOwner );

  00197	56		 push	 esi
  00198	8b cf		 mov	 ecx, edi
  0019a	e8 00 00 00 00	 call	 ?ChangeToAssultAttackFire@ioLeeSunSin@@IAEXPAVioBaseChar@@@Z ; ioLeeSunSin::ChangeToAssultAttackFire
$LN15@OnGatherin:

; 409  : 			}
; 410  : 		}
; 411  : 	}
; 412  : }

  0019f	8b 4d f4	 mov	 ecx, DWORD PTR __$EHRec$[ebp]
  001a2	64 89 0d 00 00
	00 00		 mov	 DWORD PTR fs:0, ecx
  001a9	59		 pop	 ecx
  001aa	5f		 pop	 edi
  001ab	5e		 pop	 esi
  001ac	5b		 pop	 ebx
  001ad	8b 4d f0	 mov	 ecx, DWORD PTR __$ArrayPad$[ebp]
  001b0	33 cd		 xor	 ecx, ebp
  001b2	e8 00 00 00 00	 call	 @__security_check_cookie@4
  001b7	c9		 leave
  001b8	c2 04 00	 ret	 4
_TEXT	ENDS
;	COMDAT text$x
text$x	SEGMENT
__unwindfunclet$?OnGathering@ioLeeSunSin@@IAEXPAVioBaseChar@@@Z$0:
  00000	8d 8d d8 7f ff
	ff		 lea	 ecx, DWORD PTR _kPacket$549670[ebp]
  00006	e9 00 00 00 00	 jmp	 ??1SP2Packet@@UAE@XZ	; SP2Packet::~SP2Packet
__ehhandler$?OnGathering@ioLeeSunSin@@IAEXPAVioBaseChar@@@Z:
  0000b	8b 54 24 08	 mov	 edx, DWORD PTR [esp+8]
  0000f	8d 42 0c	 lea	 eax, DWORD PTR [edx+12]
  00012	8b 8a d4 7f ff
	ff		 mov	 ecx, DWORD PTR [edx-32812]
  00018	33 c8		 xor	 ecx, eax
  0001a	e8 00 00 00 00	 call	 @__security_check_cookie@4
  0001f	8b 4a fc	 mov	 ecx, DWORD PTR [edx-4]
  00022	33 c8		 xor	 ecx, eax
  00024	e8 00 00 00 00	 call	 @__security_check_cookie@4
  00029	b8 00 00 00 00	 mov	 eax, OFFSET __ehfuncinfo$?OnGathering@ioLeeSunSin@@IAEXPAVioBaseChar@@@Z
  0002e	e9 00 00 00 00	 jmp	 ___CxxFrameHandler3
text$x	ENDS
?OnGathering@ioLeeSunSin@@IAEXPAVioBaseChar@@@Z ENDP	; ioLeeSunSin::OnGathering
PUBLIC	?CheckWoundAfterUseExtendState@ioLeeSunSin@@UAE_NPAVioBaseChar@@W4BlowTargetType@@@Z ; ioLeeSunSin::CheckWoundAfterUseExtendState
; Function compile flags: /Ogsp
;	COMDAT ?CheckWoundAfterUseExtendState@ioLeeSunSin@@UAE_NPAVioBaseChar@@W4BlowTargetType@@@Z
_TEXT	SEGMENT
_pOwner$ = 8						; size = 4
_value$556820 = 11					; size = 1
_eType$ = 12						; size = 4
?CheckWoundAfterUseExtendState@ioLeeSunSin@@UAE_NPAVioBaseChar@@W4BlowTargetType@@@Z PROC ; ioLeeSunSin::CheckWoundAfterUseExtendState, COMDAT
; _this$ = ecx

; 586  : {

  00000	55		 push	 ebp
  00001	8b ec		 mov	 ebp, esp
  00003	53		 push	 ebx
  00004	56		 push	 esi
  00005	57		 push	 edi

; 587  : 	if( !pOwner || !pOwner->IsNeedProcess() )

  00006	8b 7d 08	 mov	 edi, DWORD PTR _pOwner$[ebp]
  00009	33 db		 xor	 ebx, ebx
  0000b	8b f1		 mov	 esi, ecx
  0000d	3b fb		 cmp	 edi, ebx
  0000f	0f 84 37 01 00
	00		 je	 $LN21@CheckWound@2
  00015	8b 07		 mov	 eax, DWORD PTR [edi]
  00017	8b cf		 mov	 ecx, edi
  00019	ff 90 00 01 00
	00		 call	 DWORD PTR [eax+256]
  0001f	84 c0		 test	 al, al
  00021	0f 84 25 01 00
	00		 je	 $LN21@CheckWound@2

; 589  : 
; 590  : 	if( pOwner->IsPrisonerMode() )

  00027	8d 45 0b	 lea	 eax, DWORD PTR _value$556820[ebp]
  0002a	50		 push	 eax
  0002b	8d 8f cc 14 00
	00		 lea	 ecx, DWORD PTR [edi+5324]
  00031	e8 00 00 00 00	 call	 ?DecryptValueToPool@?$CEncrypt@_N@@QAEXPA_N@Z ; CEncrypt<bool>::DecryptValueToPool
  00036	38 5d 0b	 cmp	 BYTE PTR _value$556820[ebp], bl

; 591  : 		return false;

  00039	0f 85 0d 01 00
	00		 jne	 $LN21@CheckWound@2

; 592  : 
; 593  : 	if( pOwner->IsCatchMode() )

  0003f	38 9f 78 23 00
	00		 cmp	 BYTE PTR [edi+9080], bl

; 594  : 		return false;

  00045	0f 85 01 01 00
	00		 jne	 $LN21@CheckWound@2

; 595  : 	
; 596  : 	//D     D    D    
; 597  : 	if( m_GatherState == GS_GATHER )

  0004b	83 be 58 19 00
	00 01		 cmp	 DWORD PTR [esi+6488], 1
  00052	75 15		 jne	 SHORT $LN16@CheckWound@2

; 598  : 	{
; 599  : 		if( pOwner->IsAttackKeyDown() )

  00054	8b cf		 mov	 ecx, edi
  00056	e8 00 00 00 00	 call	 ?IsAttackKeyDown@ioBaseChar@@QBE_NXZ ; ioBaseChar::IsAttackKeyDown
  0005b	84 c0		 test	 al, al

; 600  : 		{
; 601  : 			return false;

  0005d	0f 85 e9 00 00
	00		 jne	 $LN21@CheckWound@2

; 602  : 		}
; 603  : 		else
; 604  : 		{
; 605  : 			m_GatherState = GS_NONE;

  00063	89 9e 58 19 00
	00		 mov	 DWORD PTR [esi+6488], ebx
$LN16@CheckWound@2:

; 606  : 		}
; 607  : 	}
; 608  : 
; 609  : 	if( pOwner->GetState() != CS_WOUNDED && pOwner->GetState() != CS_BLOW_WOUNDED && pOwner->GetState() != CS_BOUND_BLOW_WOUNDED && pOwner->GetState() != CS_BLOW_EXTEND_WOUND )

  00069	8a 87 10 03 00
	00		 mov	 al, BYTE PTR [edi+784]
  0006f	3c 0b		 cmp	 al, 11			; 0000000bH
  00071	74 10		 je	 SHORT $LN15@CheckWound@2
  00073	3c 0c		 cmp	 al, 12			; 0000000cH
  00075	74 0c		 je	 SHORT $LN15@CheckWound@2
  00077	3c 31		 cmp	 al, 49			; 00000031H
  00079	74 08		 je	 SHORT $LN15@CheckWound@2
  0007b	3c 46		 cmp	 al, 70			; 00000046H

; 610  : 		return false;

  0007d	0f 85 c9 00 00
	00		 jne	 $LN21@CheckWound@2
$LN15@CheckWound@2:

; 611  : 
; 612  : 	if( GetNeedBullet() > GetCurBullet() )

  00083	8b 06		 mov	 eax, DWORD PTR [esi]
  00085	8b ce		 mov	 ecx, esi
  00087	ff 50 64	 call	 DWORD PTR [eax+100]
  0008a	8b ce		 mov	 ecx, esi
  0008c	8b d8		 mov	 ebx, eax
  0008e	e8 00 00 00 00	 call	 ?GetNeedBullet@ioLeeSunSin@@QAEHXZ ; ioLeeSunSin::GetNeedBullet
  00093	3b c3		 cmp	 eax, ebx

; 613  : 		return false;

  00095	0f 8f b1 00 00
	00		 jg	 $LN21@CheckWound@2

; 614  : 
; 615  : 	switch( m_WoundedState )

  0009b	8b 86 ac 1b 00
	00		 mov	 eax, DWORD PTR [esi+7084]
  000a1	33 db		 xor	 ebx, ebx
  000a3	2b c3		 sub	 eax, ebx
  000a5	0f 84 8b 00 00
	00		 je	 $LN11@CheckWound@2
  000ab	48		 dec	 eax
  000ac	74 3b		 je	 SHORT $LN9@CheckWound@2
  000ae	48		 dec	 eax
  000af	74 16		 je	 SHORT $LN3@CheckWound@2
  000b1	48		 dec	 eax
  000b2	0f 85 94 00 00
	00		 jne	 $LN21@CheckWound@2

; 658  : 	case WS_ACTION:
; 659  : 		{
; 660  : 			ChangeToExtendAttackFire( pOwner, ET_WOUNDED );

  000b8	6a 01		 push	 1
  000ba	57		 push	 edi
  000bb	8b ce		 mov	 ecx, esi
  000bd	e8 00 00 00 00	 call	 ?ChangeToExtendAttackFire@ioLeeSunSin@@IAEXPAVioBaseChar@@W4ExtendType@1@@Z ; ioLeeSunSin::ChangeToExtendAttackFire

; 661  : 		}
; 662  : 		break;

  000c2	e9 85 00 00 00	 jmp	 $LN21@CheckWound@2
$LN3@CheckWound@2:

; 646  : 				}
; 647  : 			}
; 648  : 		}
; 649  : 		break;
; 650  : 	case WS_PRE:
; 651  : 		{
; 652  : 			if( m_dwWoundedPreEndTime < FRAMEGETTIME() )

  000c7	ff 15 00 00 00
	00		 call	 DWORD PTR __imp_?GetSingleton@ioFrameTimer@@SAAAV1@XZ
  000cd	8b c8		 mov	 ecx, eax
  000cf	ff 15 00 00 00
	00		 call	 DWORD PTR __imp_?GetLoopSec@ioFrameTimer@@QBEKXZ
  000d5	39 86 b8 1b 00
	00		 cmp	 DWORD PTR [esi+7096], eax
  000db	73 6f		 jae	 SHORT $LN21@CheckWound@2

; 653  : 			{
; 654  : 				m_WoundedState = WS_ACTION;

  000dd	c7 86 ac 1b 00
	00 03 00 00 00	 mov	 DWORD PTR [esi+7084], 3

; 655  : 			}
; 656  : 		}
; 657  : 		break;

  000e7	eb 63		 jmp	 SHORT $LN21@CheckWound@2
$LN9@CheckWound@2:

; 622  : 			}
; 623  : 		}
; 624  : 		break;
; 625  : 	case WS_TIME_CONDITION_CHECK:
; 626  : 		{
; 627  : 			if( m_dwWoundedStartChargeTime + m_dwWoundedChargeTime < FRAMEGETTIME() )

  000e9	ff 15 00 00 00
	00		 call	 DWORD PTR __imp_?GetSingleton@ioFrameTimer@@SAAAV1@XZ
  000ef	8b c8		 mov	 ecx, eax
  000f1	ff 15 00 00 00
	00		 call	 DWORD PTR __imp_?GetLoopSec@ioFrameTimer@@QBEKXZ
  000f7	8b 8e b0 1b 00
	00		 mov	 ecx, DWORD PTR [esi+7088]
  000fd	03 8e b4 1b 00
	00		 add	 ecx, DWORD PTR [esi+7092]
  00103	3b c8		 cmp	 ecx, eax

; 628  : 			{
; 629  : 				if( !pOwner->IsAttackKeyDown() )

  00105	8b cf		 mov	 ecx, edi
  00107	73 26		 jae	 SHORT $LN8@CheckWound@2
  00109	e8 00 00 00 00	 call	 ?IsAttackKeyDown@ioBaseChar@@QBE_NXZ ; ioBaseChar::IsAttackKeyDown
  0010e	84 c0		 test	 al, al
  00110	75 3a		 jne	 SHORT $LN21@CheckWound@2

; 630  : 				{
; 631  : 					if( !CheckWoundExtendUsePre( pOwner, eType ) )

  00112	ff 75 0c	 push	 DWORD PTR _eType$[ebp]
  00115	8b ce		 mov	 ecx, esi
  00117	57		 push	 edi
  00118	e8 00 00 00 00	 call	 ?CheckWoundExtendUsePre@ioLeeSunSin@@IAE_NPAVioBaseChar@@W4BlowTargetType@@@Z ; ioLeeSunSin::CheckWoundExtendUsePre
$LN39@CheckWound@2:
  0011d	84 c0		 test	 al, al
  0011f	75 2b		 jne	 SHORT $LN21@CheckWound@2

; 632  : 					{
; 633  : 						m_dwWoundedStartChargeTime	= 0;

  00121	89 9e b4 1b 00
	00		 mov	 DWORD PTR [esi+7092], ebx

; 634  : 						m_WoundedState				= WS_DELAY;

  00127	89 9e ac 1b 00
	00		 mov	 DWORD PTR [esi+7084], ebx

; 635  : 						return false;

  0012d	eb 1d		 jmp	 SHORT $LN21@CheckWound@2
$LN8@CheckWound@2:

; 636  : 					}
; 637  : 				}				
; 638  : 			}
; 639  : 			else
; 640  : 			{
; 641  : 				if( !pOwner->IsAttackKeyDown() )

  0012f	e8 00 00 00 00	 call	 ?IsAttackKeyDown@ioBaseChar@@QBE_NXZ ; ioBaseChar::IsAttackKeyDown

; 642  : 				{
; 643  : 					m_dwWoundedStartChargeTime	= 0;
; 644  : 					m_WoundedState				= WS_DELAY;
; 645  : 					return false;

  00134	eb e7		 jmp	 SHORT $LN39@CheckWound@2
$LN11@CheckWound@2:

; 616  : 	{
; 617  : 	case WS_DELAY:
; 618  : 		{
; 619  : 			if( pOwner->IsAttackKeyDown() )

  00136	8b cf		 mov	 ecx, edi
  00138	e8 00 00 00 00	 call	 ?IsAttackKeyDown@ioBaseChar@@QBE_NXZ ; ioBaseChar::IsAttackKeyDown
  0013d	84 c0		 test	 al, al
  0013f	74 0b		 je	 SHORT $LN21@CheckWound@2

; 620  : 			{
; 621  : 				CheckWoundExtendUseDelay( pOwner, eType );

  00141	ff 75 0c	 push	 DWORD PTR _eType$[ebp]
  00144	8b ce		 mov	 ecx, esi
  00146	57		 push	 edi
  00147	e8 00 00 00 00	 call	 ?CheckWoundExtendUseDelay@ioLeeSunSin@@IAEXPAVioBaseChar@@W4BlowTargetType@@@Z ; ioLeeSunSin::CheckWoundExtendUseDelay
$LN21@CheckWound@2:

; 588  : 		return false;

  0014c	5f		 pop	 edi
  0014d	5e		 pop	 esi
  0014e	32 c0		 xor	 al, al
  00150	5b		 pop	 ebx

; 663  : 	}
; 664  : 
; 665  : 	return false;
; 666  : }

  00151	5d		 pop	 ebp
  00152	c2 08 00	 ret	 8
?CheckWoundAfterUseExtendState@ioLeeSunSin@@UAE_NPAVioBaseChar@@W4BlowTargetType@@@Z ENDP ; ioLeeSunSin::CheckWoundAfterUseExtendState
_TEXT	ENDS
PUBLIC	??$_Uninitialized_copy@V?$_Vector_const_iterator@V?$_Vector_val@UForceInfo@@V?$allocator@UForceInfo@@@std@@@std@@@std@@PAUForceInfo@@V?$allocator@UForceInfo@@@2@@std@@YAPAUForceInfo@@V?$_Vector_const_iterator@V?$_Vector_val@UForceInfo@@V?$allocator@UForceInfo@@@std@@@std@@@0@0PAU1@AAV?$allocator@UForceInfo@@@0@@Z ; std::_Uninitialized_copy<std::_Vector_const_iterator<std::_Vector_val<ForceInfo,std::allocator<ForceInfo> > >,ForceInfo *,std::allocator<ForceInfo> >
; Function compile flags: /Ogsp
; File c:\program files (x86)\microsoft visual studio 10.0\vc\include\memory
;	COMDAT ??$_Uninitialized_copy@V?$_Vector_const_iterator@V?$_Vector_val@UForceInfo@@V?$allocator@UForceInfo@@@std@@@std@@@std@@PAUForceInfo@@V?$allocator@UForceInfo@@@2@@std@@YAPAUForceInfo@@V?$_Vector_const_iterator@V?$_Vector_val@UForceInfo@@V?$allocator@UForceInfo@@@std@@@std@@@0@0PAU1@AAV?$allocator@UForceInfo@@@0@@Z
_TEXT	SEGMENT
__Cat$556848 = -4					; size = 1
__First$ = 8						; size = 4
__Last$ = 12						; size = 4
__Dest$ = 16						; size = 4
__Al$ = 20						; size = 4
??$_Uninitialized_copy@V?$_Vector_const_iterator@V?$_Vector_val@UForceInfo@@V?$allocator@UForceInfo@@@std@@@std@@@std@@PAUForceInfo@@V?$allocator@UForceInfo@@@2@@std@@YAPAUForceInfo@@V?$_Vector_const_iterator@V?$_Vector_val@UForceInfo@@V?$allocator@UForceInfo@@@std@@@std@@@0@0PAU1@AAV?$allocator@UForceInfo@@@0@@Z PROC ; std::_Uninitialized_copy<std::_Vector_const_iterator<std::_Vector_val<ForceInfo,std::allocator<ForceInfo> > >,ForceInfo *,std::allocator<ForceInfo> >, COMDAT

; 412  : 	{	// copy [_First, _Last) to raw _Dest, using _Al

  00000	55		 push	 ebp
  00001	8b ec		 mov	 ebp, esp
  00003	51		 push	 ecx

; 413  : 	return (_Uninit_copy(_First, _Last, _Dest, _Al,
; 414  : 		_Ptr_cat(_First, _Dest)));

  00004	ff 75 fc	 push	 DWORD PTR __Cat$556848[ebp]
  00007	ff 75 14	 push	 DWORD PTR __Al$[ebp]
  0000a	ff 75 10	 push	 DWORD PTR __Dest$[ebp]
  0000d	ff 75 0c	 push	 DWORD PTR __Last$[ebp]
  00010	ff 75 08	 push	 DWORD PTR __First$[ebp]
  00013	e8 00 00 00 00	 call	 ??$_Uninit_copy@V?$_Vector_const_iterator@V?$_Vector_val@UForceInfo@@V?$allocator@UForceInfo@@@std@@@std@@@std@@PAUForceInfo@@V?$allocator@UForceInfo@@@2@@std@@YAPAUForceInfo@@V?$_Vector_const_iterator@V?$_Vector_val@UForceInfo@@V?$allocator@UForceInfo@@@std@@@std@@@0@0PAU1@AAV?$allocator@UForceInfo@@@0@U_Nonscalar_ptr_iterator_tag@0@@Z ; std::_Uninit_copy<std::_Vector_const_iterator<std::_Vector_val<ForceInfo,std::allocator<ForceInfo> > >,ForceInfo *,std::allocator<ForceInfo> >
  00018	83 c4 14	 add	 esp, 20			; 00000014H

; 415  : 	}

  0001b	c9		 leave
  0001c	c3		 ret	 0
??$_Uninitialized_copy@V?$_Vector_const_iterator@V?$_Vector_val@UForceInfo@@V?$allocator@UForceInfo@@@std@@@std@@@std@@PAUForceInfo@@V?$allocator@UForceInfo@@@2@@std@@YAPAUForceInfo@@V?$_Vector_const_iterator@V?$_Vector_val@UForceInfo@@V?$allocator@UForceInfo@@@std@@@std@@@0@0PAU1@AAV?$allocator@UForceInfo@@@0@@Z ENDP ; std::_Uninitialized_copy<std::_Vector_const_iterator<std::_Vector_val<ForceInfo,std::allocator<ForceInfo> > >,ForceInfo *,std::allocator<ForceInfo> >
_TEXT	ENDS
PUBLIC	??$_Destroy_range@V?$allocator@UWoundedInfo@ioLeeSunSin@@@std@@@std@@YAXPAUWoundedInfo@ioLeeSunSin@@0AAV?$allocator@UWoundedInfo@ioLeeSunSin@@@0@U_Nonscalar_ptr_iterator_tag@0@@Z ; std::_Destroy_range<std::allocator<ioLeeSunSin::WoundedInfo> >
; Function compile flags: /Ogsp
; File c:\program files (x86)\microsoft visual studio 10.0\vc\include\xmemory
;	COMDAT ??$_Destroy_range@V?$allocator@UWoundedInfo@ioLeeSunSin@@@std@@@std@@YAXPAUWoundedInfo@ioLeeSunSin@@0AAV?$allocator@UWoundedInfo@ioLeeSunSin@@@0@U_Nonscalar_ptr_iterator_tag@0@@Z
_TEXT	SEGMENT
__First$ = 8						; size = 4
__Last$ = 12						; size = 4
__Al$ = 16						; size = 4
___formal$ = 20						; size = 1
??$_Destroy_range@V?$allocator@UWoundedInfo@ioLeeSunSin@@@std@@@std@@YAXPAUWoundedInfo@ioLeeSunSin@@0AAV?$allocator@UWoundedInfo@ioLeeSunSin@@@0@U_Nonscalar_ptr_iterator_tag@0@@Z PROC ; std::_Destroy_range<std::allocator<ioLeeSunSin::WoundedInfo> >, COMDAT

; 95   : 	{	// destroy [_First, _Last), arbitrary type

  00000	55		 push	 ebp
  00001	8b ec		 mov	 ebp, esp
  00003	56		 push	 esi

; 96   : 	for (; _First != _Last; ++_First)

  00004	8b 75 08	 mov	 esi, DWORD PTR __First$[ebp]
  00007	eb 0c		 jmp	 SHORT $LN20@Destroy_ra
$LL3@Destroy_ra:

; 97   : 		_Dest_val(_Al, _First);

  00009	8d 4e 0c	 lea	 ecx, DWORD PTR [esi+12]
  0000c	ff 15 00 00 00
	00		 call	 DWORD PTR __imp_??1ioHashString@@QAE@XZ
  00012	83 c6 20	 add	 esi, 32			; 00000020H
$LN20@Destroy_ra:

; 96   : 	for (; _First != _Last; ++_First)

  00015	3b 75 0c	 cmp	 esi, DWORD PTR __Last$[ebp]
  00018	75 ef		 jne	 SHORT $LL3@Destroy_ra
  0001a	5e		 pop	 esi

; 98   : 	}

  0001b	5d		 pop	 ebp
  0001c	c3		 ret	 0
??$_Destroy_range@V?$allocator@UWoundedInfo@ioLeeSunSin@@@std@@@std@@YAXPAUWoundedInfo@ioLeeSunSin@@0AAV?$allocator@UWoundedInfo@ioLeeSunSin@@@0@U_Nonscalar_ptr_iterator_tag@0@@Z ENDP ; std::_Destroy_range<std::allocator<ioLeeSunSin::WoundedInfo> >
_TEXT	ENDS
PUBLIC	??$_Uninit_copy@V?$_Vector_const_iterator@V?$_Vector_val@UWeaponInfo@@V?$allocator@UWeaponInfo@@@std@@@std@@@std@@PAUWeaponInfo@@V?$allocator@UWeaponInfo@@@2@@std@@YAPAUWeaponInfo@@V?$_Vector_const_iterator@V?$_Vector_val@UWeaponInfo@@V?$allocator@UWeaponInfo@@@std@@@std@@@0@0PAU1@AAV?$allocator@UWeaponInfo@@@0@U_Nonscalar_ptr_iterator_tag@0@@Z ; std::_Uninit_copy<std::_Vector_const_iterator<std::_Vector_val<WeaponInfo,std::allocator<WeaponInfo> > >,WeaponInfo *,std::allocator<WeaponInfo> >
EXTRN	__EH_prolog3_catch:PROC
;	COMDAT xdata$x
; File d:\lost saga for developer\youtube\tutorial\source\src\lsclient\playentityhelpstruct.h
xdata$x	SEGMENT
__catchsym$??$_Uninit_copy@V?$_Vector_const_iterator@V?$_Vector_val@UWeaponInfo@@V?$allocator@UWeaponInfo@@@std@@@std@@@std@@PAUWeaponInfo@@V?$allocator@UWeaponInfo@@@2@@std@@YAPAUWeaponInfo@@V?$_Vector_const_iterator@V?$_Vector_val@UWeaponInfo@@V?$allocator@UWeaponInfo@@@std@@@std@@@0@0PAU1@AAV?$allocator@UWeaponInfo@@@0@U_Nonscalar_ptr_iterator_tag@0@@Z$3 DD 040H
	DD	00H
	DD	00H
	DD	FLAT:__catch$??$_Uninit_copy@V?$_Vector_const_iterator@V?$_Vector_val@UWeaponInfo@@V?$allocator@UWeaponInfo@@@std@@@std@@@std@@PAUWeaponInfo@@V?$allocator@UWeaponInfo@@@2@@std@@YAPAUWeaponInfo@@V?$_Vector_const_iterator@V?$_Vector_val@UWeaponInfo@@V?$allocator@UWeaponInfo@@@std@@@std@@@0@0PAU1@AAV?$allocator@UWeaponInfo@@@0@U_Nonscalar_ptr_iterator_tag@0@@Z$0
__unwindtable$??$_Uninit_copy@V?$_Vector_const_iterator@V?$_Vector_val@UWeaponInfo@@V?$allocator@UWeaponInfo@@@std@@@std@@@std@@PAUWeaponInfo@@V?$allocator@UWeaponInfo@@@2@@std@@YAPAUWeaponInfo@@V?$_Vector_const_iterator@V?$_Vector_val@UWeaponInfo@@V?$allocator@UWeaponInfo@@@std@@@std@@@0@0PAU1@AAV?$allocator@UWeaponInfo@@@0@U_Nonscalar_ptr_iterator_tag@0@@Z DD 0ffffffffH
	DD	00H
	DD	0ffffffffH
	DD	00H
__tryblocktable$??$_Uninit_copy@V?$_Vector_const_iterator@V?$_Vector_val@UWeaponInfo@@V?$allocator@UWeaponInfo@@@std@@@std@@@std@@PAUWeaponInfo@@V?$allocator@UWeaponInfo@@@2@@std@@YAPAUWeaponInfo@@V?$_Vector_const_iterator@V?$_Vector_val@UWeaponInfo@@V?$allocator@UWeaponInfo@@@std@@@std@@@0@0PAU1@AAV?$allocator@UWeaponInfo@@@0@U_Nonscalar_ptr_iterator_tag@0@@Z DD 00H
	DD	00H
	DD	01H
	DD	01H
	DD	FLAT:__catchsym$??$_Uninit_copy@V?$_Vector_const_iterator@V?$_Vector_val@UWeaponInfo@@V?$allocator@UWeaponInfo@@@std@@@std@@@std@@PAUWeaponInfo@@V?$allocator@UWeaponInfo@@@2@@std@@YAPAUWeaponInfo@@V?$_Vector_const_iterator@V?$_Vector_val@UWeaponInfo@@V?$allocator@UWeaponInfo@@@std@@@std@@@0@0PAU1@AAV?$allocator@UWeaponInfo@@@0@U_Nonscalar_ptr_iterator_tag@0@@Z$3
__ehfuncinfo$??$_Uninit_copy@V?$_Vector_const_iterator@V?$_Vector_val@UWeaponInfo@@V?$allocator@UWeaponInfo@@@std@@@std@@@std@@PAUWeaponInfo@@V?$allocator@UWeaponInfo@@@2@@std@@YAPAUWeaponInfo@@V?$_Vector_const_iterator@V?$_Vector_val@UWeaponInfo@@V?$allocator@UWeaponInfo@@@std@@@std@@@0@0PAU1@AAV?$allocator@UWeaponInfo@@@0@U_Nonscalar_ptr_iterator_tag@0@@Z DD 019930522H
	DD	02H
	DD	FLAT:__unwindtable$??$_Uninit_copy@V?$_Vector_const_iterator@V?$_Vector_val@UWeaponInfo@@V?$allocator@UWeaponInfo@@@std@@@std@@@std@@PAUWeaponInfo@@V?$allocator@UWeaponInfo@@@2@@std@@YAPAUWeaponInfo@@V?$_Vector_const_iterator@V?$_Vector_val@UWeaponInfo@@V?$allocator@UWeaponInfo@@@std@@@std@@@0@0PAU1@AAV?$allocator@UWeaponInfo@@@0@U_Nonscalar_ptr_iterator_tag@0@@Z
	DD	01H
	DD	FLAT:__tryblocktable$??$_Uninit_copy@V?$_Vector_const_iterator@V?$_Vector_val@UWeaponInfo@@V?$allocator@UWeaponInfo@@@std@@@std@@@std@@PAUWeaponInfo@@V?$allocator@UWeaponInfo@@@2@@std@@YAPAUWeaponInfo@@V?$_Vector_const_iterator@V?$_Vector_val@UWeaponInfo@@V?$allocator@UWeaponInfo@@@std@@@std@@@0@0PAU1@AAV?$allocator@UWeaponInfo@@@0@U_Nonscalar_ptr_iterator_tag@0@@Z
	DD	2 DUP(00H)
	DD	00H
	DD	01H
; Function compile flags: /Ogsp
; File c:\program files (x86)\microsoft visual studio 10.0\vc\include\memory
xdata$x	ENDS
;	COMDAT ??$_Uninit_copy@V?$_Vector_const_iterator@V?$_Vector_val@UWeaponInfo@@V?$allocator@UWeaponInfo@@@std@@@std@@@std@@PAUWeaponInfo@@V?$allocator@UWeaponInfo@@@2@@std@@YAPAUWeaponInfo@@V?$_Vector_const_iterator@V?$_Vector_val@UWeaponInfo@@V?$allocator@UWeaponInfo@@@std@@@std@@@0@0PAU1@AAV?$allocator@UWeaponInfo@@@0@U_Nonscalar_ptr_iterator_tag@0@@Z
_TEXT	SEGMENT
__Next$ = -20						; size = 4
__$EHRec$ = -16						; size = 16
__First$ = 8						; size = 4
__Last$ = 12						; size = 4
__Dest$ = 16						; size = 4
__Al$ = 20						; size = 4
___formal$ = 24						; size = 1
??$_Uninit_copy@V?$_Vector_const_iterator@V?$_Vector_val@UWeaponInfo@@V?$allocator@UWeaponInfo@@@std@@@std@@@std@@PAUWeaponInfo@@V?$allocator@UWeaponInfo@@@2@@std@@YAPAUWeaponInfo@@V?$_Vector_const_iterator@V?$_Vector_val@UWeaponInfo@@V?$allocator@UWeaponInfo@@@std@@@std@@@0@0PAU1@AAV?$allocator@UWeaponInfo@@@0@U_Nonscalar_ptr_iterator_tag@0@@Z PROC ; std::_Uninit_copy<std::_Vector_const_iterator<std::_Vector_val<WeaponInfo,std::allocator<WeaponInfo> > >,WeaponInfo *,std::allocator<WeaponInfo> >, COMDAT

; 369  : 	{	// copy [_First, _Last) to raw _Dest, using _Al, arbitrary type

  00000	6a 08		 push	 8
  00002	b8 00 00 00 00	 mov	 eax, __ehhandler$??$_Uninit_copy@V?$_Vector_const_iterator@V?$_Vector_val@UWeaponInfo@@V?$allocator@UWeaponInfo@@@std@@@std@@@std@@PAUWeaponInfo@@V?$allocator@UWeaponInfo@@@2@@std@@YAPAUWeaponInfo@@V?$_Vector_const_iterator@V?$_Vector_val@UWeaponInfo@@V?$allocator@UWeaponInfo@@@std@@@std@@@0@0PAU1@AAV?$allocator@UWeaponInfo@@@0@U_Nonscalar_ptr_iterator_tag@0@@Z
  00007	e8 00 00 00 00	 call	 __EH_prolog3_catch

; 370  : 	_DEBUG_RANGE(_First, _Last);
; 371  : 	_DEBUG_POINTER(_Dest);
; 372  : 	_FwdIt _Next = _Dest;

  0000c	8b 45 10	 mov	 eax, DWORD PTR __Dest$[ebp]

; 373  : 
; 374  : 	_TRY_BEGIN

  0000f	83 65 fc 00	 and	 DWORD PTR __$EHRec$[ebp+12], 0
  00013	89 45 ec	 mov	 DWORD PTR __Next$[ebp], eax

; 375  : 	for (; _First != _Last; ++_Dest, ++_First)

$LL14@Uninit_cop@2:
  00016	8b 45 08	 mov	 eax, DWORD PTR __First$[ebp]
  00019	3b 45 0c	 cmp	 eax, DWORD PTR __Last$[ebp]
  0001c	74 34		 je	 SHORT $LN4@Uninit_cop@2

; 376  : 		_Cons_val(_Al, _Dest, *_First);

  0001e	50		 push	 eax
  0001f	ff 75 10	 push	 DWORD PTR __Dest$[ebp]
  00022	e8 00 00 00 00	 call	 ??$_Construct@UWeaponInfo@@ABU1@@std@@YAXPAUWeaponInfo@@ABU1@@Z ; std::_Construct<WeaponInfo,WeaponInfo const &>
  00027	83 45 10 28	 add	 DWORD PTR __Dest$[ebp], 40 ; 00000028H
  0002b	83 45 08 28	 add	 DWORD PTR __First$[ebp], 40 ; 00000028H
  0002f	59		 pop	 ecx
  00030	59		 pop	 ecx
  00031	eb e3		 jmp	 SHORT $LL14@Uninit_cop@2
__catch$??$_Uninit_copy@V?$_Vector_const_iterator@V?$_Vector_val@UWeaponInfo@@V?$allocator@UWeaponInfo@@@std@@@std@@@std@@PAUWeaponInfo@@V?$allocator@UWeaponInfo@@@2@@std@@YAPAUWeaponInfo@@V?$_Vector_const_iterator@V?$_Vector_val@UWeaponInfo@@V?$allocator@UWeaponInfo@@@std@@@std@@@0@0PAU1@AAV?$allocator@UWeaponInfo@@@0@U_Nonscalar_ptr_iterator_tag@0@@Z$0:

; 377  : 	_CATCH_ALL
; 378  : 	for (; _Next != _Dest; ++_Next)

  00033	8b 75 ec	 mov	 esi, DWORD PTR __Next$[ebp]
  00036	eb 0c		 jmp	 SHORT $LN48@Uninit_cop@2
$LL3@Uninit_cop@2:

; 379  : 		_Dest_val(_Al, _Next);

  00038	8d 4e 08	 lea	 ecx, DWORD PTR [esi+8]
  0003b	ff 15 00 00 00
	00		 call	 DWORD PTR __imp_??1ioHashString@@QAE@XZ
  00041	83 c6 28	 add	 esi, 40			; 00000028H
$LN48@Uninit_cop@2:

; 377  : 	_CATCH_ALL
; 378  : 	for (; _Next != _Dest; ++_Next)

  00044	3b 75 10	 cmp	 esi, DWORD PTR __Dest$[ebp]
  00047	75 ef		 jne	 SHORT $LL3@Uninit_cop@2

; 380  : 	_RERAISE;

  00049	6a 00		 push	 0
  0004b	6a 00		 push	 0
  0004d	e8 00 00 00 00	 call	 __CxxThrowException@8
$LN49@Uninit_cop@2:
$LN4@Uninit_cop@2:

; 381  : 	_CATCH_END
; 382  : 	return (_Dest);

  00052	8b 45 10	 mov	 eax, DWORD PTR __Dest$[ebp]

; 383  : 	}

  00055	e8 00 00 00 00	 call	 __EH_epilog3
  0005a	c3		 ret	 0
$LN47@Uninit_cop@2:
_TEXT	ENDS
;	COMDAT text$x
text$x	SEGMENT
__ehhandler$??$_Uninit_copy@V?$_Vector_const_iterator@V?$_Vector_val@UWeaponInfo@@V?$allocator@UWeaponInfo@@@std@@@std@@@std@@PAUWeaponInfo@@V?$allocator@UWeaponInfo@@@2@@std@@YAPAUWeaponInfo@@V?$_Vector_const_iterator@V?$_Vector_val@UWeaponInfo@@V?$allocator@UWeaponInfo@@@std@@@std@@@0@0PAU1@AAV?$allocator@UWeaponInfo@@@0@U_Nonscalar_ptr_iterator_tag@0@@Z:
  00000	8b 54 24 08	 mov	 edx, DWORD PTR [esp+8]
  00004	8d 42 0c	 lea	 eax, DWORD PTR [edx+12]
  00007	8b 4a e8	 mov	 ecx, DWORD PTR [edx-24]
  0000a	33 c8		 xor	 ecx, eax
  0000c	e8 00 00 00 00	 call	 @__security_check_cookie@4
  00011	b8 00 00 00 00	 mov	 eax, OFFSET __ehfuncinfo$??$_Uninit_copy@V?$_Vector_const_iterator@V?$_Vector_val@UWeaponInfo@@V?$allocator@UWeaponInfo@@@std@@@std@@@std@@PAUWeaponInfo@@V?$allocator@UWeaponInfo@@@2@@std@@YAPAUWeaponInfo@@V?$_Vector_const_iterator@V?$_Vector_val@UWeaponInfo@@V?$allocator@UWeaponInfo@@@std@@@std@@@0@0PAU1@AAV?$allocator@UWeaponInfo@@@0@U_Nonscalar_ptr_iterator_tag@0@@Z
  00016	e9 00 00 00 00	 jmp	 ___CxxFrameHandler3
text$x	ENDS
??$_Uninit_copy@V?$_Vector_const_iterator@V?$_Vector_val@UWeaponInfo@@V?$allocator@UWeaponInfo@@@std@@@std@@@std@@PAUWeaponInfo@@V?$allocator@UWeaponInfo@@@2@@std@@YAPAUWeaponInfo@@V?$_Vector_const_iterator@V?$_Vector_val@UWeaponInfo@@V?$allocator@UWeaponInfo@@@std@@@std@@@0@0PAU1@AAV?$allocator@UWeaponInfo@@@0@U_Nonscalar_ptr_iterator_tag@0@@Z ENDP ; std::_Uninit_copy<std::_Vector_const_iterator<std::_Vector_val<WeaponInfo,std::allocator<WeaponInfo> > >,WeaponInfo *,std::allocator<WeaponInfo> >
PUBLIC	??$_Uninit_copy@V?$_Vector_const_iterator@V?$_Vector_val@UWoundedInfo@ioLeeSunSin@@V?$allocator@UWoundedInfo@ioLeeSunSin@@@std@@@std@@@std@@PAUWoundedInfo@ioLeeSunSin@@V?$allocator@UWoundedInfo@ioLeeSunSin@@@2@@std@@YAPAUWoundedInfo@ioLeeSunSin@@V?$_Vector_const_iterator@V?$_Vector_val@UWoundedInfo@ioLeeSunSin@@V?$allocator@UWoundedInfo@ioLeeSunSin@@@std@@@std@@@0@0PAU12@AAV?$allocator@UWoundedInfo@ioLeeSunSin@@@0@U_Nonscalar_ptr_iterator_tag@0@@Z ; std::_Uninit_copy<std::_Vector_const_iterator<std::_Vector_val<ioLeeSunSin::WoundedInfo,std::allocator<ioLeeSunSin::WoundedInfo> > >,ioLeeSunSin::WoundedInfo *,std::allocator<ioLeeSunSin::WoundedInfo> >
;	COMDAT xdata$x
; File d:\lost saga for developer\youtube\tutorial\source\src\lsclient\ioleesunsin.cpp
xdata$x	SEGMENT
__catchsym$??$_Uninit_copy@V?$_Vector_const_iterator@V?$_Vector_val@UWoundedInfo@ioLeeSunSin@@V?$allocator@UWoundedInfo@ioLeeSunSin@@@std@@@std@@@std@@PAUWoundedInfo@ioLeeSunSin@@V?$allocator@UWoundedInfo@ioLeeSunSin@@@2@@std@@YAPAUWoundedInfo@ioLeeSunSin@@V?$_Vector_const_iterator@V?$_Vector_val@UWoundedInfo@ioLeeSunSin@@V?$allocator@UWoundedInfo@ioLeeSunSin@@@std@@@std@@@0@0PAU12@AAV?$allocator@UWoundedInfo@ioLeeSunSin@@@0@U_Nonscalar_ptr_iterator_tag@0@@Z$3 DD 040H
	DD	00H
	DD	00H
	DD	FLAT:__catch$??$_Uninit_copy@V?$_Vector_const_iterator@V?$_Vector_val@UWoundedInfo@ioLeeSunSin@@V?$allocator@UWoundedInfo@ioLeeSunSin@@@std@@@std@@@std@@PAUWoundedInfo@ioLeeSunSin@@V?$allocator@UWoundedInfo@ioLeeSunSin@@@2@@std@@YAPAUWoundedInfo@ioLeeSunSin@@V?$_Vector_const_iterator@V?$_Vector_val@UWoundedInfo@ioLeeSunSin@@V?$allocator@UWoundedInfo@ioLeeSunSin@@@std@@@std@@@0@0PAU12@AAV?$allocator@UWoundedInfo@ioLeeSunSin@@@0@U_Nonscalar_ptr_iterator_tag@0@@Z$0
__unwindtable$??$_Uninit_copy@V?$_Vector_const_iterator@V?$_Vector_val@UWoundedInfo@ioLeeSunSin@@V?$allocator@UWoundedInfo@ioLeeSunSin@@@std@@@std@@@std@@PAUWoundedInfo@ioLeeSunSin@@V?$allocator@UWoundedInfo@ioLeeSunSin@@@2@@std@@YAPAUWoundedInfo@ioLeeSunSin@@V?$_Vector_const_iterator@V?$_Vector_val@UWoundedInfo@ioLeeSunSin@@V?$allocator@UWoundedInfo@ioLeeSunSin@@@std@@@std@@@0@0PAU12@AAV?$allocator@UWoundedInfo@ioLeeSunSin@@@0@U_Nonscalar_ptr_iterator_tag@0@@Z DD 0ffffffffH
	DD	00H
	DD	0ffffffffH
	DD	00H
__tryblocktable$??$_Uninit_copy@V?$_Vector_const_iterator@V?$_Vector_val@UWoundedInfo@ioLeeSunSin@@V?$allocator@UWoundedInfo@ioLeeSunSin@@@std@@@std@@@std@@PAUWoundedInfo@ioLeeSunSin@@V?$allocator@UWoundedInfo@ioLeeSunSin@@@2@@std@@YAPAUWoundedInfo@ioLeeSunSin@@V?$_Vector_const_iterator@V?$_Vector_val@UWoundedInfo@ioLeeSunSin@@V?$allocator@UWoundedInfo@ioLeeSunSin@@@std@@@std@@@0@0PAU12@AAV?$allocator@UWoundedInfo@ioLeeSunSin@@@0@U_Nonscalar_ptr_iterator_tag@0@@Z DD 00H
	DD	00H
	DD	01H
	DD	01H
	DD	FLAT:__catchsym$??$_Uninit_copy@V?$_Vector_const_iterator@V?$_Vector_val@UWoundedInfo@ioLeeSunSin@@V?$allocator@UWoundedInfo@ioLeeSunSin@@@std@@@std@@@std@@PAUWoundedInfo@ioLeeSunSin@@V?$allocator@UWoundedInfo@ioLeeSunSin@@@2@@std@@YAPAUWoundedInfo@ioLeeSunSin@@V?$_Vector_const_iterator@V?$_Vector_val@UWoundedInfo@ioLeeSunSin@@V?$allocator@UWoundedInfo@ioLeeSunSin@@@std@@@std@@@0@0PAU12@AAV?$allocator@UWoundedInfo@ioLeeSunSin@@@0@U_Nonscalar_ptr_iterator_tag@0@@Z$3
__ehfuncinfo$??$_Uninit_copy@V?$_Vector_const_iterator@V?$_Vector_val@UWoundedInfo@ioLeeSunSin@@V?$allocator@UWoundedInfo@ioLeeSunSin@@@std@@@std@@@std@@PAUWoundedInfo@ioLeeSunSin@@V?$allocator@UWoundedInfo@ioLeeSunSin@@@2@@std@@YAPAUWoundedInfo@ioLeeSunSin@@V?$_Vector_const_iterator@V?$_Vector_val@UWoundedInfo@ioLeeSunSin@@V?$allocator@UWoundedInfo@ioLeeSunSin@@@std@@@std@@@0@0PAU12@AAV?$allocator@UWoundedInfo@ioLeeSunSin@@@0@U_Nonscalar_ptr_iterator_tag@0@@Z DD 019930522H
	DD	02H
	DD	FLAT:__unwindtable$??$_Uninit_copy@V?$_Vector_const_iterator@V?$_Vector_val@UWoundedInfo@ioLeeSunSin@@V?$allocator@UWoundedInfo@ioLeeSunSin@@@std@@@std@@@std@@PAUWoundedInfo@ioLeeSunSin@@V?$allocator@UWoundedInfo@ioLeeSunSin@@@2@@std@@YAPAUWoundedInfo@ioLeeSunSin@@V?$_Vector_const_iterator@V?$_Vector_val@UWoundedInfo@ioLeeSunSin@@V?$allocator@UWoundedInfo@ioLeeSunSin@@@std@@@std@@@0@0PAU12@AAV?$allocator@UWoundedInfo@ioLeeSunSin@@@0@U_Nonscalar_ptr_iterator_tag@0@@Z
	DD	01H
	DD	FLAT:__tryblocktable$??$_Uninit_copy@V?$_Vector_const_iterator@V?$_Vector_val@UWoundedInfo@ioLeeSunSin@@V?$allocator@UWoundedInfo@ioLeeSunSin@@@std@@@std@@@std@@PAUWoundedInfo@ioLeeSunSin@@V?$allocator@UWoundedInfo@ioLeeSunSin@@@2@@std@@YAPAUWoundedInfo@ioLeeSunSin@@V?$_Vector_const_iterator@V?$_Vector_val@UWoundedInfo@ioLeeSunSin@@V?$allocator@UWoundedInfo@ioLeeSunSin@@@std@@@std@@@0@0PAU12@AAV?$allocator@UWoundedInfo@ioLeeSunSin@@@0@U_Nonscalar_ptr_iterator_tag@0@@Z
	DD	2 DUP(00H)
	DD	00H
	DD	01H
; Function compile flags: /Ogsp
; File c:\program files (x86)\microsoft visual studio 10.0\vc\include\memory
xdata$x	ENDS
;	COMDAT ??$_Uninit_copy@V?$_Vector_const_iterator@V?$_Vector_val@UWoundedInfo@ioLeeSunSin@@V?$allocator@UWoundedInfo@ioLeeSunSin@@@std@@@std@@@std@@PAUWoundedInfo@ioLeeSunSin@@V?$allocator@UWoundedInfo@ioLeeSunSin@@@2@@std@@YAPAUWoundedInfo@ioLeeSunSin@@V?$_Vector_const_iterator@V?$_Vector_val@UWoundedInfo@ioLeeSunSin@@V?$allocator@UWoundedInfo@ioLeeSunSin@@@std@@@std@@@0@0PAU12@AAV?$allocator@UWoundedInfo@ioLeeSunSin@@@0@U_Nonscalar_ptr_iterator_tag@0@@Z
_TEXT	SEGMENT
__Next$ = -20						; size = 4
__$EHRec$ = -16						; size = 16
__First$ = 8						; size = 4
__Last$ = 12						; size = 4
__Dest$ = 16						; size = 4
__Al$ = 20						; size = 4
___formal$ = 24						; size = 1
??$_Uninit_copy@V?$_Vector_const_iterator@V?$_Vector_val@UWoundedInfo@ioLeeSunSin@@V?$allocator@UWoundedInfo@ioLeeSunSin@@@std@@@std@@@std@@PAUWoundedInfo@ioLeeSunSin@@V?$allocator@UWoundedInfo@ioLeeSunSin@@@2@@std@@YAPAUWoundedInfo@ioLeeSunSin@@V?$_Vector_const_iterator@V?$_Vector_val@UWoundedInfo@ioLeeSunSin@@V?$allocator@UWoundedInfo@ioLeeSunSin@@@std@@@std@@@0@0PAU12@AAV?$allocator@UWoundedInfo@ioLeeSunSin@@@0@U_Nonscalar_ptr_iterator_tag@0@@Z PROC ; std::_Uninit_copy<std::_Vector_const_iterator<std::_Vector_val<ioLeeSunSin::WoundedInfo,std::allocator<ioLeeSunSin::WoundedInfo> > >,ioLeeSunSin::WoundedInfo *,std::allocator<ioLeeSunSin::WoundedInfo> >, COMDAT

; 369  : 	{	// copy [_First, _Last) to raw _Dest, using _Al, arbitrary type

  00000	6a 08		 push	 8
  00002	b8 00 00 00 00	 mov	 eax, __ehhandler$??$_Uninit_copy@V?$_Vector_const_iterator@V?$_Vector_val@UWoundedInfo@ioLeeSunSin@@V?$allocator@UWoundedInfo@ioLeeSunSin@@@std@@@std@@@std@@PAUWoundedInfo@ioLeeSunSin@@V?$allocator@UWoundedInfo@ioLeeSunSin@@@2@@std@@YAPAUWoundedInfo@ioLeeSunSin@@V?$_Vector_const_iterator@V?$_Vector_val@UWoundedInfo@ioLeeSunSin@@V?$allocator@UWoundedInfo@ioLeeSunSin@@@std@@@std@@@0@0PAU12@AAV?$allocator@UWoundedInfo@ioLeeSunSin@@@0@U_Nonscalar_ptr_iterator_tag@0@@Z
  00007	e8 00 00 00 00	 call	 __EH_prolog3_catch

; 370  : 	_DEBUG_RANGE(_First, _Last);
; 371  : 	_DEBUG_POINTER(_Dest);
; 372  : 	_FwdIt _Next = _Dest;

  0000c	8b 45 10	 mov	 eax, DWORD PTR __Dest$[ebp]

; 373  : 
; 374  : 	_TRY_BEGIN

  0000f	83 65 fc 00	 and	 DWORD PTR __$EHRec$[ebp+12], 0
  00013	89 45 ec	 mov	 DWORD PTR __Next$[ebp], eax

; 375  : 	for (; _First != _Last; ++_Dest, ++_First)

$LL14@Uninit_cop@3:
  00016	8b 45 08	 mov	 eax, DWORD PTR __First$[ebp]
  00019	3b 45 0c	 cmp	 eax, DWORD PTR __Last$[ebp]
  0001c	74 34		 je	 SHORT $LN4@Uninit_cop@3

; 376  : 		_Cons_val(_Al, _Dest, *_First);

  0001e	50		 push	 eax
  0001f	ff 75 10	 push	 DWORD PTR __Dest$[ebp]
  00022	e8 00 00 00 00	 call	 ??$_Construct@UWoundedInfo@ioLeeSunSin@@ABU12@@std@@YAXPAUWoundedInfo@ioLeeSunSin@@ABU12@@Z ; std::_Construct<ioLeeSunSin::WoundedInfo,ioLeeSunSin::WoundedInfo const &>
  00027	83 45 10 20	 add	 DWORD PTR __Dest$[ebp], 32 ; 00000020H
  0002b	83 45 08 20	 add	 DWORD PTR __First$[ebp], 32 ; 00000020H
  0002f	59		 pop	 ecx
  00030	59		 pop	 ecx
  00031	eb e3		 jmp	 SHORT $LL14@Uninit_cop@3
__catch$??$_Uninit_copy@V?$_Vector_const_iterator@V?$_Vector_val@UWoundedInfo@ioLeeSunSin@@V?$allocator@UWoundedInfo@ioLeeSunSin@@@std@@@std@@@std@@PAUWoundedInfo@ioLeeSunSin@@V?$allocator@UWoundedInfo@ioLeeSunSin@@@2@@std@@YAPAUWoundedInfo@ioLeeSunSin@@V?$_Vector_const_iterator@V?$_Vector_val@UWoundedInfo@ioLeeSunSin@@V?$allocator@UWoundedInfo@ioLeeSunSin@@@std@@@std@@@0@0PAU12@AAV?$allocator@UWoundedInfo@ioLeeSunSin@@@0@U_Nonscalar_ptr_iterator_tag@0@@Z$0:

; 377  : 	_CATCH_ALL
; 378  : 	for (; _Next != _Dest; ++_Next)

  00033	8b 75 ec	 mov	 esi, DWORD PTR __Next$[ebp]
  00036	eb 0c		 jmp	 SHORT $LN48@Uninit_cop@3
$LL3@Uninit_cop@3:

; 379  : 		_Dest_val(_Al, _Next);

  00038	8d 4e 0c	 lea	 ecx, DWORD PTR [esi+12]
  0003b	ff 15 00 00 00
	00		 call	 DWORD PTR __imp_??1ioHashString@@QAE@XZ
  00041	83 c6 20	 add	 esi, 32			; 00000020H
$LN48@Uninit_cop@3:

; 377  : 	_CATCH_ALL
; 378  : 	for (; _Next != _Dest; ++_Next)

  00044	3b 75 10	 cmp	 esi, DWORD PTR __Dest$[ebp]
  00047	75 ef		 jne	 SHORT $LL3@Uninit_cop@3

; 380  : 	_RERAISE;

  00049	6a 00		 push	 0
  0004b	6a 00		 push	 0
  0004d	e8 00 00 00 00	 call	 __CxxThrowException@8
$LN49@Uninit_cop@3:
$LN4@Uninit_cop@3:

; 381  : 	_CATCH_END
; 382  : 	return (_Dest);

  00052	8b 45 10	 mov	 eax, DWORD PTR __Dest$[ebp]

; 383  : 	}

  00055	e8 00 00 00 00	 call	 __EH_epilog3
  0005a	c3		 ret	 0
$LN47@Uninit_cop@3:
_TEXT	ENDS
;	COMDAT text$x
text$x	SEGMENT
__ehhandler$??$_Uninit_copy@V?$_Vector_const_iterator@V?$_Vector_val@UWoundedInfo@ioLeeSunSin@@V?$allocator@UWoundedInfo@ioLeeSunSin@@@std@@@std@@@std@@PAUWoundedInfo@ioLeeSunSin@@V?$allocator@UWoundedInfo@ioLeeSunSin@@@2@@std@@YAPAUWoundedInfo@ioLeeSunSin@@V?$_Vector_const_iterator@V?$_Vector_val@UWoundedInfo@ioLeeSunSin@@V?$allocator@UWoundedInfo@ioLeeSunSin@@@std@@@std@@@0@0PAU12@AAV?$allocator@UWoundedInfo@ioLeeSunSin@@@0@U_Nonscalar_ptr_iterator_tag@0@@Z:
  00000	8b 54 24 08	 mov	 edx, DWORD PTR [esp+8]
  00004	8d 42 0c	 lea	 eax, DWORD PTR [edx+12]
  00007	8b 4a e8	 mov	 ecx, DWORD PTR [edx-24]
  0000a	33 c8		 xor	 ecx, eax
  0000c	e8 00 00 00 00	 call	 @__security_check_cookie@4
  00011	b8 00 00 00 00	 mov	 eax, OFFSET __ehfuncinfo$??$_Uninit_copy@V?$_Vector_const_iterator@V?$_Vector_val@UWoundedInfo@ioLeeSunSin@@V?$allocator@UWoundedInfo@ioLeeSunSin@@@std@@@std@@@std@@PAUWoundedInfo@ioLeeSunSin@@V?$allocator@UWoundedInfo@ioLeeSunSin@@@2@@std@@YAPAUWoundedInfo@ioLeeSunSin@@V?$_Vector_const_iterator@V?$_Vector_val@UWoundedInfo@ioLeeSunSin@@V?$allocator@UWoundedInfo@ioLeeSunSin@@@std@@@std@@@0@0PAU12@AAV?$allocator@UWoundedInfo@ioLeeSunSin@@@0@U_Nonscalar_ptr_iterator_tag@0@@Z
  00016	e9 00 00 00 00	 jmp	 ___CxxFrameHandler3
text$x	ENDS
??$_Uninit_copy@V?$_Vector_const_iterator@V?$_Vector_val@UWoundedInfo@ioLeeSunSin@@V?$allocator@UWoundedInfo@ioLeeSunSin@@@std@@@std@@@std@@PAUWoundedInfo@ioLeeSunSin@@V?$allocator@UWoundedInfo@ioLeeSunSin@@@2@@std@@YAPAUWoundedInfo@ioLeeSunSin@@V?$_Vector_const_iterator@V?$_Vector_val@UWoundedInfo@ioLeeSunSin@@V?$allocator@UWoundedInfo@ioLeeSunSin@@@std@@@std@@@0@0PAU12@AAV?$allocator@UWoundedInfo@ioLeeSunSin@@@0@U_Nonscalar_ptr_iterator_tag@0@@Z ENDP ; std::_Uninit_copy<std::_Vector_const_iterator<std::_Vector_val<ioLeeSunSin::WoundedInfo,std::allocator<ioLeeSunSin::WoundedInfo> > >,ioLeeSunSin::WoundedInfo *,std::allocator<ioLeeSunSin::WoundedInfo> >
PUBLIC	??$_Uninit_move@PAVioHashString@@PAV1@V?$allocator@VioHashString@@@std@@V1@@std@@YAPAVioHashString@@PAV1@00AAV?$allocator@VioHashString@@@0@0U_Nonscalar_ptr_iterator_tag@0@@Z ; std::_Uninit_move<ioHashString *,ioHashString *,std::allocator<ioHashString>,ioHashString>
;	COMDAT xdata$x
; File c:\program files (x86)\microsoft visual studio 10.0\vc\include\vector
xdata$x	SEGMENT
__catchsym$??$_Uninit_move@PAVioHashString@@PAV1@V?$allocator@VioHashString@@@std@@V1@@std@@YAPAVioHashString@@PAV1@00AAV?$allocator@VioHashString@@@0@0U_Nonscalar_ptr_iterator_tag@0@@Z$2 DD 040H
	DD	00H
	DD	00H
	DD	FLAT:__catch$??$_Uninit_move@PAVioHashString@@PAV1@V?$allocator@VioHashString@@@std@@V1@@std@@YAPAVioHashString@@PAV1@00AAV?$allocator@VioHashString@@@0@0U_Nonscalar_ptr_iterator_tag@0@@Z$0
__unwindtable$??$_Uninit_move@PAVioHashString@@PAV1@V?$allocator@VioHashString@@@std@@V1@@std@@YAPAVioHashString@@PAV1@00AAV?$allocator@VioHashString@@@0@0U_Nonscalar_ptr_iterator_tag@0@@Z DD 0ffffffffH
	DD	00H
	DD	0ffffffffH
	DD	00H
__tryblocktable$??$_Uninit_move@PAVioHashString@@PAV1@V?$allocator@VioHashString@@@std@@V1@@std@@YAPAVioHashString@@PAV1@00AAV?$allocator@VioHashString@@@0@0U_Nonscalar_ptr_iterator_tag@0@@Z DD 00H
	DD	00H
	DD	01H
	DD	01H
	DD	FLAT:__catchsym$??$_Uninit_move@PAVioHashString@@PAV1@V?$allocator@VioHashString@@@std@@V1@@std@@YAPAVioHashString@@PAV1@00AAV?$allocator@VioHashString@@@0@0U_Nonscalar_ptr_iterator_tag@0@@Z$2
__ehfuncinfo$??$_Uninit_move@PAVioHashString@@PAV1@V?$allocator@VioHashString@@@std@@V1@@std@@YAPAVioHashString@@PAV1@00AAV?$allocator@VioHashString@@@0@0U_Nonscalar_ptr_iterator_tag@0@@Z DD 019930522H
	DD	02H
	DD	FLAT:__unwindtable$??$_Uninit_move@PAVioHashString@@PAV1@V?$allocator@VioHashString@@@std@@V1@@std@@YAPAVioHashString@@PAV1@00AAV?$allocator@VioHashString@@@0@0U_Nonscalar_ptr_iterator_tag@0@@Z
	DD	01H
	DD	FLAT:__tryblocktable$??$_Uninit_move@PAVioHashString@@PAV1@V?$allocator@VioHashString@@@std@@V1@@std@@YAPAVioHashString@@PAV1@00AAV?$allocator@VioHashString@@@0@0U_Nonscalar_ptr_iterator_tag@0@@Z
	DD	2 DUP(00H)
	DD	00H
	DD	01H
; Function compile flags: /Ogsp
; File c:\program files (x86)\microsoft visual studio 10.0\vc\include\memory
xdata$x	ENDS
;	COMDAT ??$_Uninit_move@PAVioHashString@@PAV1@V?$allocator@VioHashString@@@std@@V1@@std@@YAPAVioHashString@@PAV1@00AAV?$allocator@VioHashString@@@0@0U_Nonscalar_ptr_iterator_tag@0@@Z
_TEXT	SEGMENT
__Next$ = -20						; size = 4
__$EHRec$ = -16						; size = 16
__First$ = 8						; size = 4
__Last$ = 12						; size = 4
__Dest$ = 16						; size = 4
__Al$ = 20						; size = 4
___formal$ = 24						; size = 4
___formal$ = 28						; size = 1
??$_Uninit_move@PAVioHashString@@PAV1@V?$allocator@VioHashString@@@std@@V1@@std@@YAPAVioHashString@@PAV1@00AAV?$allocator@VioHashString@@@0@0U_Nonscalar_ptr_iterator_tag@0@@Z PROC ; std::_Uninit_move<ioHashString *,ioHashString *,std::allocator<ioHashString>,ioHashString>, COMDAT

; 424  : 	{	// move [_First, _Last) to raw _Dest, using _Al, arbitrary type

  00000	6a 08		 push	 8
  00002	b8 00 00 00 00	 mov	 eax, __ehhandler$??$_Uninit_move@PAVioHashString@@PAV1@V?$allocator@VioHashString@@@std@@V1@@std@@YAPAVioHashString@@PAV1@00AAV?$allocator@VioHashString@@@0@0U_Nonscalar_ptr_iterator_tag@0@@Z
  00007	e8 00 00 00 00	 call	 __EH_prolog3_catch

; 425  : 	_DEBUG_RANGE(_First, _Last);
; 426  : 	_DEBUG_POINTER(_Dest);
; 427  : 	_FwdIt _Next = _Dest;

  0000c	8b 45 10	 mov	 eax, DWORD PTR __Dest$[ebp]

; 428  : 
; 429  : 	_TRY_BEGIN

  0000f	83 65 fc 00	 and	 DWORD PTR __$EHRec$[ebp+12], 0
  00013	8b 75 08	 mov	 esi, DWORD PTR __First$[ebp]
  00016	89 45 ec	 mov	 DWORD PTR __Next$[ebp], eax
$LL6@Uninit_mov:

; 430  : 	for (; _First != _Last; ++_Dest, ++_First)

  00019	3b 75 0c	 cmp	 esi, DWORD PTR __Last$[ebp]
  0001c	74 33		 je	 SHORT $LN4@Uninit_mov

; 431  : 		_Cons_val(_Al, _Dest, (_Valty &&)*_First);

  0001e	8b 4d 14	 mov	 ecx, DWORD PTR __Al$[ebp]
  00021	56		 push	 esi
  00022	ff 75 10	 push	 DWORD PTR __Dest$[ebp]
  00025	e8 00 00 00 00	 call	 ?construct@?$allocator@VioHashString@@@std@@QAEXPAVioHashString@@$$QAV3@@Z ; std::allocator<ioHashString>::construct
  0002a	83 45 10 10	 add	 DWORD PTR __Dest$[ebp], 16 ; 00000010H
  0002e	83 c6 10	 add	 esi, 16			; 00000010H
  00031	eb e6		 jmp	 SHORT $LL6@Uninit_mov
__catch$??$_Uninit_move@PAVioHashString@@PAV1@V?$allocator@VioHashString@@@std@@V1@@std@@YAPAVioHashString@@PAV1@00AAV?$allocator@VioHashString@@@0@0U_Nonscalar_ptr_iterator_tag@0@@Z$0:

; 432  : 	_CATCH_ALL
; 433  : 	for (; _Next != _Dest; ++_Next)

  00033	8b 75 ec	 mov	 esi, DWORD PTR __Next$[ebp]
  00036	eb 0b		 jmp	 SHORT $LN33@Uninit_mov
$LL3@Uninit_mov:

; 434  : 		_Dest_val(_Al, _Next);

  00038	8b ce		 mov	 ecx, esi
  0003a	ff 15 00 00 00
	00		 call	 DWORD PTR __imp_??1ioHashString@@QAE@XZ
  00040	83 c6 10	 add	 esi, 16			; 00000010H
$LN33@Uninit_mov:

; 432  : 	_CATCH_ALL
; 433  : 	for (; _Next != _Dest; ++_Next)

  00043	3b 75 10	 cmp	 esi, DWORD PTR __Dest$[ebp]
  00046	75 f0		 jne	 SHORT $LL3@Uninit_mov

; 435  : 	_RERAISE;

  00048	6a 00		 push	 0
  0004a	6a 00		 push	 0
  0004c	e8 00 00 00 00	 call	 __CxxThrowException@8
$LN34@Uninit_mov:
$LN4@Uninit_mov:

; 436  : 	_CATCH_END
; 437  : 	return (_Dest);

  00051	8b 45 10	 mov	 eax, DWORD PTR __Dest$[ebp]

; 438  : 	}

  00054	e8 00 00 00 00	 call	 __EH_epilog3
  00059	c3		 ret	 0
$LN32@Uninit_mov:
_TEXT	ENDS
;	COMDAT text$x
text$x	SEGMENT
__ehhandler$??$_Uninit_move@PAVioHashString@@PAV1@V?$allocator@VioHashString@@@std@@V1@@std@@YAPAVioHashString@@PAV1@00AAV?$allocator@VioHashString@@@0@0U_Nonscalar_ptr_iterator_tag@0@@Z:
  00000	8b 54 24 08	 mov	 edx, DWORD PTR [esp+8]
  00004	8d 42 0c	 lea	 eax, DWORD PTR [edx+12]
  00007	8b 4a e8	 mov	 ecx, DWORD PTR [edx-24]
  0000a	33 c8		 xor	 ecx, eax
  0000c	e8 00 00 00 00	 call	 @__security_check_cookie@4
  00011	b8 00 00 00 00	 mov	 eax, OFFSET __ehfuncinfo$??$_Uninit_move@PAVioHashString@@PAV1@V?$allocator@VioHashString@@@std@@V1@@std@@YAPAVioHashString@@PAV1@00AAV?$allocator@VioHashString@@@0@0U_Nonscalar_ptr_iterator_tag@0@@Z
  00016	e9 00 00 00 00	 jmp	 ___CxxFrameHandler3
text$x	ENDS
??$_Uninit_move@PAVioHashString@@PAV1@V?$allocator@VioHashString@@@std@@V1@@std@@YAPAVioHashString@@PAV1@00AAV?$allocator@VioHashString@@@0@0U_Nonscalar_ptr_iterator_tag@0@@Z ENDP ; std::_Uninit_move<ioHashString *,ioHashString *,std::allocator<ioHashString>,ioHashString>
PUBLIC	??$_Uninit_move@PAUWoundedInfo@ioLeeSunSin@@PAU12@V?$allocator@UWoundedInfo@ioLeeSunSin@@@std@@U12@@std@@YAPAUWoundedInfo@ioLeeSunSin@@PAU12@00AAV?$allocator@UWoundedInfo@ioLeeSunSin@@@0@0U_Nonscalar_ptr_iterator_tag@0@@Z ; std::_Uninit_move<ioLeeSunSin::WoundedInfo *,ioLeeSunSin::WoundedInfo *,std::allocator<ioLeeSunSin::WoundedInfo>,ioLeeSunSin::WoundedInfo>
;	COMDAT xdata$x
; File d:\lost saga for developer\youtube\tutorial\source\src\lsclient\ioleesunsin.cpp
xdata$x	SEGMENT
__catchsym$??$_Uninit_move@PAUWoundedInfo@ioLeeSunSin@@PAU12@V?$allocator@UWoundedInfo@ioLeeSunSin@@@std@@U12@@std@@YAPAUWoundedInfo@ioLeeSunSin@@PAU12@00AAV?$allocator@UWoundedInfo@ioLeeSunSin@@@0@0U_Nonscalar_ptr_iterator_tag@0@@Z$3 DD 040H
	DD	00H
	DD	00H
	DD	FLAT:__catch$??$_Uninit_move@PAUWoundedInfo@ioLeeSunSin@@PAU12@V?$allocator@UWoundedInfo@ioLeeSunSin@@@std@@U12@@std@@YAPAUWoundedInfo@ioLeeSunSin@@PAU12@00AAV?$allocator@UWoundedInfo@ioLeeSunSin@@@0@0U_Nonscalar_ptr_iterator_tag@0@@Z$0
__unwindtable$??$_Uninit_move@PAUWoundedInfo@ioLeeSunSin@@PAU12@V?$allocator@UWoundedInfo@ioLeeSunSin@@@std@@U12@@std@@YAPAUWoundedInfo@ioLeeSunSin@@PAU12@00AAV?$allocator@UWoundedInfo@ioLeeSunSin@@@0@0U_Nonscalar_ptr_iterator_tag@0@@Z DD 0ffffffffH
	DD	00H
	DD	0ffffffffH
	DD	00H
__tryblocktable$??$_Uninit_move@PAUWoundedInfo@ioLeeSunSin@@PAU12@V?$allocator@UWoundedInfo@ioLeeSunSin@@@std@@U12@@std@@YAPAUWoundedInfo@ioLeeSunSin@@PAU12@00AAV?$allocator@UWoundedInfo@ioLeeSunSin@@@0@0U_Nonscalar_ptr_iterator_tag@0@@Z DD 00H
	DD	00H
	DD	01H
	DD	01H
	DD	FLAT:__catchsym$??$_Uninit_move@PAUWoundedInfo@ioLeeSunSin@@PAU12@V?$allocator@UWoundedInfo@ioLeeSunSin@@@std@@U12@@std@@YAPAUWoundedInfo@ioLeeSunSin@@PAU12@00AAV?$allocator@UWoundedInfo@ioLeeSunSin@@@0@0U_Nonscalar_ptr_iterator_tag@0@@Z$3
__ehfuncinfo$??$_Uninit_move@PAUWoundedInfo@ioLeeSunSin@@PAU12@V?$allocator@UWoundedInfo@ioLeeSunSin@@@std@@U12@@std@@YAPAUWoundedInfo@ioLeeSunSin@@PAU12@00AAV?$allocator@UWoundedInfo@ioLeeSunSin@@@0@0U_Nonscalar_ptr_iterator_tag@0@@Z DD 019930522H
	DD	02H
	DD	FLAT:__unwindtable$??$_Uninit_move@PAUWoundedInfo@ioLeeSunSin@@PAU12@V?$allocator@UWoundedInfo@ioLeeSunSin@@@std@@U12@@std@@YAPAUWoundedInfo@ioLeeSunSin@@PAU12@00AAV?$allocator@UWoundedInfo@ioLeeSunSin@@@0@0U_Nonscalar_ptr_iterator_tag@0@@Z
	DD	01H
	DD	FLAT:__tryblocktable$??$_Uninit_move@PAUWoundedInfo@ioLeeSunSin@@PAU12@V?$allocator@UWoundedInfo@ioLeeSunSin@@@std@@U12@@std@@YAPAUWoundedInfo@ioLeeSunSin@@PAU12@00AAV?$allocator@UWoundedInfo@ioLeeSunSin@@@0@0U_Nonscalar_ptr_iterator_tag@0@@Z
	DD	2 DUP(00H)
	DD	00H
	DD	01H
; Function compile flags: /Ogsp
; File c:\program files (x86)\microsoft visual studio 10.0\vc\include\memory
xdata$x	ENDS
;	COMDAT ??$_Uninit_move@PAUWoundedInfo@ioLeeSunSin@@PAU12@V?$allocator@UWoundedInfo@ioLeeSunSin@@@std@@U12@@std@@YAPAUWoundedInfo@ioLeeSunSin@@PAU12@00AAV?$allocator@UWoundedInfo@ioLeeSunSin@@@0@0U_Nonscalar_ptr_iterator_tag@0@@Z
_TEXT	SEGMENT
__Next$ = -20						; size = 4
__$EHRec$ = -16						; size = 16
__First$ = 8						; size = 4
__Last$ = 12						; size = 4
__Dest$ = 16						; size = 4
__Al$ = 20						; size = 4
___formal$ = 24						; size = 4
___formal$ = 28						; size = 1
??$_Uninit_move@PAUWoundedInfo@ioLeeSunSin@@PAU12@V?$allocator@UWoundedInfo@ioLeeSunSin@@@std@@U12@@std@@YAPAUWoundedInfo@ioLeeSunSin@@PAU12@00AAV?$allocator@UWoundedInfo@ioLeeSunSin@@@0@0U_Nonscalar_ptr_iterator_tag@0@@Z PROC ; std::_Uninit_move<ioLeeSunSin::WoundedInfo *,ioLeeSunSin::WoundedInfo *,std::allocator<ioLeeSunSin::WoundedInfo>,ioLeeSunSin::WoundedInfo>, COMDAT

; 424  : 	{	// move [_First, _Last) to raw _Dest, using _Al, arbitrary type

  00000	6a 08		 push	 8
  00002	b8 00 00 00 00	 mov	 eax, __ehhandler$??$_Uninit_move@PAUWoundedInfo@ioLeeSunSin@@PAU12@V?$allocator@UWoundedInfo@ioLeeSunSin@@@std@@U12@@std@@YAPAUWoundedInfo@ioLeeSunSin@@PAU12@00AAV?$allocator@UWoundedInfo@ioLeeSunSin@@@0@0U_Nonscalar_ptr_iterator_tag@0@@Z
  00007	e8 00 00 00 00	 call	 __EH_prolog3_catch

; 425  : 	_DEBUG_RANGE(_First, _Last);
; 426  : 	_DEBUG_POINTER(_Dest);
; 427  : 	_FwdIt _Next = _Dest;

  0000c	8b 45 10	 mov	 eax, DWORD PTR __Dest$[ebp]

; 428  : 
; 429  : 	_TRY_BEGIN

  0000f	83 65 fc 00	 and	 DWORD PTR __$EHRec$[ebp+12], 0
  00013	8b 75 08	 mov	 esi, DWORD PTR __First$[ebp]
  00016	89 45 ec	 mov	 DWORD PTR __Next$[ebp], eax
$LL6@Uninit_mov@2:

; 430  : 	for (; _First != _Last; ++_Dest, ++_First)

  00019	3b 75 0c	 cmp	 esi, DWORD PTR __Last$[ebp]
  0001c	74 37		 je	 SHORT $LN4@Uninit_mov@2

; 431  : 		_Cons_val(_Al, _Dest, (_Valty &&)*_First);

  0001e	56		 push	 esi
  0001f	ff 75 10	 push	 DWORD PTR __Dest$[ebp]
  00022	ff 75 14	 push	 DWORD PTR __Al$[ebp]
  00025	e8 00 00 00 00	 call	 ??$_Cons_val@V?$allocator@UWoundedInfo@ioLeeSunSin@@@std@@UWoundedInfo@ioLeeSunSin@@U34@@std@@YAXAAV?$allocator@UWoundedInfo@ioLeeSunSin@@@0@PAUWoundedInfo@ioLeeSunSin@@$$QAU23@@Z ; std::_Cons_val<std::allocator<ioLeeSunSin::WoundedInfo>,ioLeeSunSin::WoundedInfo,ioLeeSunSin::WoundedInfo>
  0002a	83 45 10 20	 add	 DWORD PTR __Dest$[ebp], 32 ; 00000020H
  0002e	83 c4 0c	 add	 esp, 12			; 0000000cH
  00031	83 c6 20	 add	 esi, 32			; 00000020H
  00034	eb e3		 jmp	 SHORT $LL6@Uninit_mov@2
__catch$??$_Uninit_move@PAUWoundedInfo@ioLeeSunSin@@PAU12@V?$allocator@UWoundedInfo@ioLeeSunSin@@@std@@U12@@std@@YAPAUWoundedInfo@ioLeeSunSin@@PAU12@00AAV?$allocator@UWoundedInfo@ioLeeSunSin@@@0@0U_Nonscalar_ptr_iterator_tag@0@@Z$0:

; 432  : 	_CATCH_ALL
; 433  : 	for (; _Next != _Dest; ++_Next)

  00036	8b 75 ec	 mov	 esi, DWORD PTR __Next$[ebp]
  00039	eb 0c		 jmp	 SHORT $LN32@Uninit_mov@2
$LL3@Uninit_mov@2:

; 434  : 		_Dest_val(_Al, _Next);

  0003b	8d 4e 0c	 lea	 ecx, DWORD PTR [esi+12]
  0003e	ff 15 00 00 00
	00		 call	 DWORD PTR __imp_??1ioHashString@@QAE@XZ
  00044	83 c6 20	 add	 esi, 32			; 00000020H
$LN32@Uninit_mov@2:

; 432  : 	_CATCH_ALL
; 433  : 	for (; _Next != _Dest; ++_Next)

  00047	3b 75 10	 cmp	 esi, DWORD PTR __Dest$[ebp]
  0004a	75 ef		 jne	 SHORT $LL3@Uninit_mov@2

; 435  : 	_RERAISE;

  0004c	6a 00		 push	 0
  0004e	6a 00		 push	 0
  00050	e8 00 00 00 00	 call	 __CxxThrowException@8
$LN33@Uninit_mov@2:
$LN4@Uninit_mov@2:

; 436  : 	_CATCH_END
; 437  : 	return (_Dest);

  00055	8b 45 10	 mov	 eax, DWORD PTR __Dest$[ebp]

; 438  : 	}

  00058	e8 00 00 00 00	 call	 __EH_epilog3
  0005d	c3		 ret	 0
$LN31@Uninit_mov@2:
_TEXT	ENDS
;	COMDAT text$x
text$x	SEGMENT
__ehhandler$??$_Uninit_move@PAUWoundedInfo@ioLeeSunSin@@PAU12@V?$allocator@UWoundedInfo@ioLeeSunSin@@@std@@U12@@std@@YAPAUWoundedInfo@ioLeeSunSin@@PAU12@00AAV?$allocator@UWoundedInfo@ioLeeSunSin@@@0@0U_Nonscalar_ptr_iterator_tag@0@@Z:
  00000	8b 54 24 08	 mov	 edx, DWORD PTR [esp+8]
  00004	8d 42 0c	 lea	 eax, DWORD PTR [edx+12]
  00007	8b 4a e8	 mov	 ecx, DWORD PTR [edx-24]
  0000a	33 c8		 xor	 ecx, eax
  0000c	e8 00 00 00 00	 call	 @__security_check_cookie@4
  00011	b8 00 00 00 00	 mov	 eax, OFFSET __ehfuncinfo$??$_Uninit_move@PAUWoundedInfo@ioLeeSunSin@@PAU12@V?$allocator@UWoundedInfo@ioLeeSunSin@@@std@@U12@@std@@YAPAUWoundedInfo@ioLeeSunSin@@PAU12@00AAV?$allocator@UWoundedInfo@ioLeeSunSin@@@0@0U_Nonscalar_ptr_iterator_tag@0@@Z
  00016	e9 00 00 00 00	 jmp	 ___CxxFrameHandler3
text$x	ENDS
??$_Uninit_move@PAUWoundedInfo@ioLeeSunSin@@PAU12@V?$allocator@UWoundedInfo@ioLeeSunSin@@@std@@U12@@std@@YAPAUWoundedInfo@ioLeeSunSin@@PAU12@00AAV?$allocator@UWoundedInfo@ioLeeSunSin@@@0@0U_Nonscalar_ptr_iterator_tag@0@@Z ENDP ; std::_Uninit_move<ioLeeSunSin::WoundedInfo *,ioLeeSunSin::WoundedInfo *,std::allocator<ioLeeSunSin::WoundedInfo>,ioLeeSunSin::WoundedInfo>
PUBLIC	??$_Destroy_range@V?$allocator@UForceInfo@@@std@@@std@@YAXPAUForceInfo@@0AAV?$allocator@UForceInfo@@@0@@Z ; std::_Destroy_range<std::allocator<ForceInfo> >
; Function compile flags: /Ogsp
; File c:\program files (x86)\microsoft visual studio 10.0\vc\include\xmemory
;	COMDAT ??$_Destroy_range@V?$allocator@UForceInfo@@@std@@@std@@YAXPAUForceInfo@@0AAV?$allocator@UForceInfo@@@0@@Z
_TEXT	SEGMENT
__First$ = 8						; size = 4
__Last$ = 12						; size = 4
__Al$ = 16						; size = 4
??$_Destroy_range@V?$allocator@UForceInfo@@@std@@@std@@YAXPAUForceInfo@@0AAV?$allocator@UForceInfo@@@0@@Z PROC ; std::_Destroy_range<std::allocator<ForceInfo> >, COMDAT

; 88   : 	_Destroy_range(_First, _Last, _Al, _Ptr_cat(_First, _Last));
; 89   : 	}

  00000	c3		 ret	 0
??$_Destroy_range@V?$allocator@UForceInfo@@@std@@@std@@YAXPAUForceInfo@@0AAV?$allocator@UForceInfo@@@0@@Z ENDP ; std::_Destroy_range<std::allocator<ForceInfo> >
_TEXT	ENDS
PUBLIC	??$_Destroy_range@V?$allocator@VioHashString@@@std@@@std@@YAXPAVioHashString@@0AAV?$allocator@VioHashString@@@0@U_Nonscalar_ptr_iterator_tag@0@@Z ; std::_Destroy_range<std::allocator<ioHashString> >
; Function compile flags: /Ogsp
;	COMDAT ??$_Destroy_range@V?$allocator@VioHashString@@@std@@@std@@YAXPAVioHashString@@0AAV?$allocator@VioHashString@@@0@U_Nonscalar_ptr_iterator_tag@0@@Z
_TEXT	SEGMENT
__First$ = 8						; size = 4
__Last$ = 12						; size = 4
__Al$ = 16						; size = 4
___formal$ = 20						; size = 1
??$_Destroy_range@V?$allocator@VioHashString@@@std@@@std@@YAXPAVioHashString@@0AAV?$allocator@VioHashString@@@0@U_Nonscalar_ptr_iterator_tag@0@@Z PROC ; std::_Destroy_range<std::allocator<ioHashString> >, COMDAT

; 95   : 	{	// destroy [_First, _Last), arbitrary type

  00000	55		 push	 ebp
  00001	8b ec		 mov	 ebp, esp
  00003	56		 push	 esi

; 96   : 	for (; _First != _Last; ++_First)

  00004	8b 75 08	 mov	 esi, DWORD PTR __First$[ebp]
  00007	eb 0b		 jmp	 SHORT $LN17@Destroy_ra@2
$LL3@Destroy_ra@2:

; 97   : 		_Dest_val(_Al, _First);

  00009	8b ce		 mov	 ecx, esi
  0000b	ff 15 00 00 00
	00		 call	 DWORD PTR __imp_??1ioHashString@@QAE@XZ
  00011	83 c6 10	 add	 esi, 16			; 00000010H
$LN17@Destroy_ra@2:

; 96   : 	for (; _First != _Last; ++_First)

  00014	3b 75 0c	 cmp	 esi, DWORD PTR __Last$[ebp]
  00017	75 f0		 jne	 SHORT $LL3@Destroy_ra@2
  00019	5e		 pop	 esi

; 98   : 	}

  0001a	5d		 pop	 ebp
  0001b	c3		 ret	 0
??$_Destroy_range@V?$allocator@VioHashString@@@std@@@std@@YAXPAVioHashString@@0AAV?$allocator@VioHashString@@@0@U_Nonscalar_ptr_iterator_tag@0@@Z ENDP ; std::_Destroy_range<std::allocator<ioHashString> >
_TEXT	ENDS
PUBLIC	??$_Destroy_range@V?$allocator@UWeaponInfo@@@std@@@std@@YAXPAUWeaponInfo@@0AAV?$allocator@UWeaponInfo@@@0@U_Nonscalar_ptr_iterator_tag@0@@Z ; std::_Destroy_range<std::allocator<WeaponInfo> >
; Function compile flags: /Ogsp
;	COMDAT ??$_Destroy_range@V?$allocator@UWeaponInfo@@@std@@@std@@YAXPAUWeaponInfo@@0AAV?$allocator@UWeaponInfo@@@0@U_Nonscalar_ptr_iterator_tag@0@@Z
_TEXT	SEGMENT
__First$ = 8						; size = 4
__Last$ = 12						; size = 4
__Al$ = 16						; size = 4
___formal$ = 20						; size = 1
??$_Destroy_range@V?$allocator@UWeaponInfo@@@std@@@std@@YAXPAUWeaponInfo@@0AAV?$allocator@UWeaponInfo@@@0@U_Nonscalar_ptr_iterator_tag@0@@Z PROC ; std::_Destroy_range<std::allocator<WeaponInfo> >, COMDAT

; 95   : 	{	// destroy [_First, _Last), arbitrary type

  00000	55		 push	 ebp
  00001	8b ec		 mov	 ebp, esp
  00003	56		 push	 esi

; 96   : 	for (; _First != _Last; ++_First)

  00004	8b 75 08	 mov	 esi, DWORD PTR __First$[ebp]
  00007	eb 0c		 jmp	 SHORT $LN20@Destroy_ra@3
$LL3@Destroy_ra@3:

; 97   : 		_Dest_val(_Al, _First);

  00009	8d 4e 08	 lea	 ecx, DWORD PTR [esi+8]
  0000c	ff 15 00 00 00
	00		 call	 DWORD PTR __imp_??1ioHashString@@QAE@XZ
  00012	83 c6 28	 add	 esi, 40			; 00000028H
$LN20@Destroy_ra@3:

; 96   : 	for (; _First != _Last; ++_First)

  00015	3b 75 0c	 cmp	 esi, DWORD PTR __Last$[ebp]
  00018	75 ef		 jne	 SHORT $LL3@Destroy_ra@3
  0001a	5e		 pop	 esi

; 98   : 	}

  0001b	5d		 pop	 ebp
  0001c	c3		 ret	 0
??$_Destroy_range@V?$allocator@UWeaponInfo@@@std@@@std@@YAXPAUWeaponInfo@@0AAV?$allocator@UWeaponInfo@@@0@U_Nonscalar_ptr_iterator_tag@0@@Z ENDP ; std::_Destroy_range<std::allocator<WeaponInfo> >
_TEXT	ENDS
PUBLIC	??$_Uninit_copy@V?$_Vector_const_iterator@V?$_Vector_val@VioHashString@@V?$allocator@VioHashString@@@std@@@std@@@std@@PAVioHashString@@V?$allocator@VioHashString@@@2@@std@@YAPAVioHashString@@V?$_Vector_const_iterator@V?$_Vector_val@VioHashString@@V?$allocator@VioHashString@@@std@@@std@@@0@0PAV1@AAV?$allocator@VioHashString@@@0@U_Nonscalar_ptr_iterator_tag@0@@Z ; std::_Uninit_copy<std::_Vector_const_iterator<std::_Vector_val<ioHashString,std::allocator<ioHashString> > >,ioHashString *,std::allocator<ioHashString> >
;	COMDAT xdata$x
; File c:\program files (x86)\microsoft visual studio 10.0\vc\include\vector
xdata$x	SEGMENT
__catchsym$??$_Uninit_copy@V?$_Vector_const_iterator@V?$_Vector_val@VioHashString@@V?$allocator@VioHashString@@@std@@@std@@@std@@PAVioHashString@@V?$allocator@VioHashString@@@2@@std@@YAPAVioHashString@@V?$_Vector_const_iterator@V?$_Vector_val@VioHashString@@V?$allocator@VioHashString@@@std@@@std@@@0@0PAV1@AAV?$allocator@VioHashString@@@0@U_Nonscalar_ptr_iterator_tag@0@@Z$2 DD 040H
	DD	00H
	DD	00H
	DD	FLAT:__catch$??$_Uninit_copy@V?$_Vector_const_iterator@V?$_Vector_val@VioHashString@@V?$allocator@VioHashString@@@std@@@std@@@std@@PAVioHashString@@V?$allocator@VioHashString@@@2@@std@@YAPAVioHashString@@V?$_Vector_const_iterator@V?$_Vector_val@VioHashString@@V?$allocator@VioHashString@@@std@@@std@@@0@0PAV1@AAV?$allocator@VioHashString@@@0@U_Nonscalar_ptr_iterator_tag@0@@Z$0
__unwindtable$??$_Uninit_copy@V?$_Vector_const_iterator@V?$_Vector_val@VioHashString@@V?$allocator@VioHashString@@@std@@@std@@@std@@PAVioHashString@@V?$allocator@VioHashString@@@2@@std@@YAPAVioHashString@@V?$_Vector_const_iterator@V?$_Vector_val@VioHashString@@V?$allocator@VioHashString@@@std@@@std@@@0@0PAV1@AAV?$allocator@VioHashString@@@0@U_Nonscalar_ptr_iterator_tag@0@@Z DD 0ffffffffH
	DD	00H
	DD	0ffffffffH
	DD	00H
__tryblocktable$??$_Uninit_copy@V?$_Vector_const_iterator@V?$_Vector_val@VioHashString@@V?$allocator@VioHashString@@@std@@@std@@@std@@PAVioHashString@@V?$allocator@VioHashString@@@2@@std@@YAPAVioHashString@@V?$_Vector_const_iterator@V?$_Vector_val@VioHashString@@V?$allocator@VioHashString@@@std@@@std@@@0@0PAV1@AAV?$allocator@VioHashString@@@0@U_Nonscalar_ptr_iterator_tag@0@@Z DD 00H
	DD	00H
	DD	01H
	DD	01H
	DD	FLAT:__catchsym$??$_Uninit_copy@V?$_Vector_const_iterator@V?$_Vector_val@VioHashString@@V?$allocator@VioHashString@@@std@@@std@@@std@@PAVioHashString@@V?$allocator@VioHashString@@@2@@std@@YAPAVioHashString@@V?$_Vector_const_iterator@V?$_Vector_val@VioHashString@@V?$allocator@VioHashString@@@std@@@std@@@0@0PAV1@AAV?$allocator@VioHashString@@@0@U_Nonscalar_ptr_iterator_tag@0@@Z$2
__ehfuncinfo$??$_Uninit_copy@V?$_Vector_const_iterator@V?$_Vector_val@VioHashString@@V?$allocator@VioHashString@@@std@@@std@@@std@@PAVioHashString@@V?$allocator@VioHashString@@@2@@std@@YAPAVioHashString@@V?$_Vector_const_iterator@V?$_Vector_val@VioHashString@@V?$allocator@VioHashString@@@std@@@std@@@0@0PAV1@AAV?$allocator@VioHashString@@@0@U_Nonscalar_ptr_iterator_tag@0@@Z DD 019930522H
	DD	02H
	DD	FLAT:__unwindtable$??$_Uninit_copy@V?$_Vector_const_iterator@V?$_Vector_val@VioHashString@@V?$allocator@VioHashString@@@std@@@std@@@std@@PAVioHashString@@V?$allocator@VioHashString@@@2@@std@@YAPAVioHashString@@V?$_Vector_const_iterator@V?$_Vector_val@VioHashString@@V?$allocator@VioHashString@@@std@@@std@@@0@0PAV1@AAV?$allocator@VioHashString@@@0@U_Nonscalar_ptr_iterator_tag@0@@Z
	DD	01H
	DD	FLAT:__tryblocktable$??$_Uninit_copy@V?$_Vector_const_iterator@V?$_Vector_val@VioHashString@@V?$allocator@VioHashString@@@std@@@std@@@std@@PAVioHashString@@V?$allocator@VioHashString@@@2@@std@@YAPAVioHashString@@V?$_Vector_const_iterator@V?$_Vector_val@VioHashString@@V?$allocator@VioHashString@@@std@@@std@@@0@0PAV1@AAV?$allocator@VioHashString@@@0@U_Nonscalar_ptr_iterator_tag@0@@Z
	DD	2 DUP(00H)
	DD	00H
	DD	01H
; Function compile flags: /Ogsp
; File c:\program files (x86)\microsoft visual studio 10.0\vc\include\memory
xdata$x	ENDS
;	COMDAT ??$_Uninit_copy@V?$_Vector_const_iterator@V?$_Vector_val@VioHashString@@V?$allocator@VioHashString@@@std@@@std@@@std@@PAVioHashString@@V?$allocator@VioHashString@@@2@@std@@YAPAVioHashString@@V?$_Vector_const_iterator@V?$_Vector_val@VioHashString@@V?$allocator@VioHashString@@@std@@@std@@@0@0PAV1@AAV?$allocator@VioHashString@@@0@U_Nonscalar_ptr_iterator_tag@0@@Z
_TEXT	SEGMENT
__Next$ = -20						; size = 4
__$EHRec$ = -16						; size = 16
__First$ = 8						; size = 4
__Last$ = 12						; size = 4
__Dest$ = 16						; size = 4
__Al$ = 20						; size = 4
___formal$ = 24						; size = 1
??$_Uninit_copy@V?$_Vector_const_iterator@V?$_Vector_val@VioHashString@@V?$allocator@VioHashString@@@std@@@std@@@std@@PAVioHashString@@V?$allocator@VioHashString@@@2@@std@@YAPAVioHashString@@V?$_Vector_const_iterator@V?$_Vector_val@VioHashString@@V?$allocator@VioHashString@@@std@@@std@@@0@0PAV1@AAV?$allocator@VioHashString@@@0@U_Nonscalar_ptr_iterator_tag@0@@Z PROC ; std::_Uninit_copy<std::_Vector_const_iterator<std::_Vector_val<ioHashString,std::allocator<ioHashString> > >,ioHashString *,std::allocator<ioHashString> >, COMDAT

; 369  : 	{	// copy [_First, _Last) to raw _Dest, using _Al, arbitrary type

  00000	6a 08		 push	 8
  00002	b8 00 00 00 00	 mov	 eax, __ehhandler$??$_Uninit_copy@V?$_Vector_const_iterator@V?$_Vector_val@VioHashString@@V?$allocator@VioHashString@@@std@@@std@@@std@@PAVioHashString@@V?$allocator@VioHashString@@@2@@std@@YAPAVioHashString@@V?$_Vector_const_iterator@V?$_Vector_val@VioHashString@@V?$allocator@VioHashString@@@std@@@std@@@0@0PAV1@AAV?$allocator@VioHashString@@@0@U_Nonscalar_ptr_iterator_tag@0@@Z
  00007	e8 00 00 00 00	 call	 __EH_prolog3_catch

; 370  : 	_DEBUG_RANGE(_First, _Last);
; 371  : 	_DEBUG_POINTER(_Dest);
; 372  : 	_FwdIt _Next = _Dest;

  0000c	8b 45 10	 mov	 eax, DWORD PTR __Dest$[ebp]

; 373  : 
; 374  : 	_TRY_BEGIN

  0000f	83 65 fc 00	 and	 DWORD PTR __$EHRec$[ebp+12], 0
  00013	89 45 ec	 mov	 DWORD PTR __Next$[ebp], eax

; 375  : 	for (; _First != _Last; ++_Dest, ++_First)

$LL14@Uninit_cop@4:
  00016	8b 45 08	 mov	 eax, DWORD PTR __First$[ebp]
  00019	3b 45 0c	 cmp	 eax, DWORD PTR __Last$[ebp]
  0001c	74 33		 je	 SHORT $LN4@Uninit_cop@4

; 376  : 		_Cons_val(_Al, _Dest, *_First);

  0001e	50		 push	 eax
  0001f	ff 75 10	 push	 DWORD PTR __Dest$[ebp]
  00022	e8 00 00 00 00	 call	 ??$_Construct@VioHashString@@ABV1@@std@@YAXPAVioHashString@@ABV1@@Z ; std::_Construct<ioHashString,ioHashString const &>
  00027	83 45 10 10	 add	 DWORD PTR __Dest$[ebp], 16 ; 00000010H
  0002b	83 45 08 10	 add	 DWORD PTR __First$[ebp], 16 ; 00000010H
  0002f	59		 pop	 ecx
  00030	59		 pop	 ecx
  00031	eb e3		 jmp	 SHORT $LL14@Uninit_cop@4
__catch$??$_Uninit_copy@V?$_Vector_const_iterator@V?$_Vector_val@VioHashString@@V?$allocator@VioHashString@@@std@@@std@@@std@@PAVioHashString@@V?$allocator@VioHashString@@@2@@std@@YAPAVioHashString@@V?$_Vector_const_iterator@V?$_Vector_val@VioHashString@@V?$allocator@VioHashString@@@std@@@std@@@0@0PAV1@AAV?$allocator@VioHashString@@@0@U_Nonscalar_ptr_iterator_tag@0@@Z$0:

; 377  : 	_CATCH_ALL
; 378  : 	for (; _Next != _Dest; ++_Next)

  00033	8b 75 ec	 mov	 esi, DWORD PTR __Next$[ebp]
  00036	eb 0b		 jmp	 SHORT $LN45@Uninit_cop@4
$LL3@Uninit_cop@4:

; 379  : 		_Dest_val(_Al, _Next);

  00038	8b ce		 mov	 ecx, esi
  0003a	ff 15 00 00 00
	00		 call	 DWORD PTR __imp_??1ioHashString@@QAE@XZ
  00040	83 c6 10	 add	 esi, 16			; 00000010H
$LN45@Uninit_cop@4:

; 377  : 	_CATCH_ALL
; 378  : 	for (; _Next != _Dest; ++_Next)

  00043	3b 75 10	 cmp	 esi, DWORD PTR __Dest$[ebp]
  00046	75 f0		 jne	 SHORT $LL3@Uninit_cop@4

; 380  : 	_RERAISE;

  00048	6a 00		 push	 0
  0004a	6a 00		 push	 0
  0004c	e8 00 00 00 00	 call	 __CxxThrowException@8
$LN46@Uninit_cop@4:
$LN4@Uninit_cop@4:

; 381  : 	_CATCH_END
; 382  : 	return (_Dest);

  00051	8b 45 10	 mov	 eax, DWORD PTR __Dest$[ebp]

; 383  : 	}

  00054	e8 00 00 00 00	 call	 __EH_epilog3
  00059	c3		 ret	 0
$LN44@Uninit_cop@4:
_TEXT	ENDS
;	COMDAT text$x
text$x	SEGMENT
__ehhandler$??$_Uninit_copy@V?$_Vector_const_iterator@V?$_Vector_val@VioHashString@@V?$allocator@VioHashString@@@std@@@std@@@std@@PAVioHashString@@V?$allocator@VioHashString@@@2@@std@@YAPAVioHashString@@V?$_Vector_const_iterator@V?$_Vector_val@VioHashString@@V?$allocator@VioHashString@@@std@@@std@@@0@0PAV1@AAV?$allocator@VioHashString@@@0@U_Nonscalar_ptr_iterator_tag@0@@Z:
  00000	8b 54 24 08	 mov	 edx, DWORD PTR [esp+8]
  00004	8d 42 0c	 lea	 eax, DWORD PTR [edx+12]
  00007	8b 4a e8	 mov	 ecx, DWORD PTR [edx-24]
  0000a	33 c8		 xor	 ecx, eax
  0000c	e8 00 00 00 00	 call	 @__security_check_cookie@4
  00011	b8 00 00 00 00	 mov	 eax, OFFSET __ehfuncinfo$??$_Uninit_copy@V?$_Vector_const_iterator@V?$_Vector_val@VioHashString@@V?$allocator@VioHashString@@@std@@@std@@@std@@PAVioHashString@@V?$allocator@VioHashString@@@2@@std@@YAPAVioHashString@@V?$_Vector_const_iterator@V?$_Vector_val@VioHashString@@V?$allocator@VioHashString@@@std@@@std@@@0@0PAV1@AAV?$allocator@VioHashString@@@0@U_Nonscalar_ptr_iterator_tag@0@@Z
  00016	e9 00 00 00 00	 jmp	 ___CxxFrameHandler3
text$x	ENDS
??$_Uninit_copy@V?$_Vector_const_iterator@V?$_Vector_val@VioHashString@@V?$allocator@VioHashString@@@std@@@std@@@std@@PAVioHashString@@V?$allocator@VioHashString@@@2@@std@@YAPAVioHashString@@V?$_Vector_const_iterator@V?$_Vector_val@VioHashString@@V?$allocator@VioHashString@@@std@@@std@@@0@0PAV1@AAV?$allocator@VioHashString@@@0@U_Nonscalar_ptr_iterator_tag@0@@Z ENDP ; std::_Uninit_copy<std::_Vector_const_iterator<std::_Vector_val<ioHashString,std::allocator<ioHashString> > >,ioHashString *,std::allocator<ioHashString> >
PUBLIC	?CheckNormalAttack@ioLeeSunSin@@UAEXPAVioBaseChar@@@Z ; ioLeeSunSin::CheckNormalAttack
; Function compile flags: /Ogsp
; File d:\lost saga for developer\youtube\tutorial\source\src\lsclient\ioleesunsin.cpp
;	COMDAT ?CheckNormalAttack@ioLeeSunSin@@UAEXPAVioBaseChar@@@Z
_TEXT	SEGMENT
_pOwner$ = 8						; size = 4
?CheckNormalAttack@ioLeeSunSin@@UAEXPAVioBaseChar@@@Z PROC ; ioLeeSunSin::CheckNormalAttack, COMDAT
; _this$ = ecx

; 204  : {

  00000	55		 push	 ebp
  00001	8b ec		 mov	 ebp, esp
  00003	56		 push	 esi
  00004	8b f1		 mov	 esi, ecx

; 205  : 	DWORD dwCurTime = FRAMEGETTIME();

  00006	ff 15 00 00 00
	00		 call	 DWORD PTR __imp_?GetSingleton@ioFrameTimer@@SAAAV1@XZ
  0000c	8b c8		 mov	 ecx, eax
  0000e	ff 15 00 00 00
	00		 call	 DWORD PTR __imp_?GetLoopSec@ioFrameTimer@@QBEKXZ

; 206  : 
; 207  : 	switch( m_ChargeState )

  00014	8b 86 54 19 00
	00		 mov	 eax, DWORD PTR [esi+6484]
  0001a	83 f8 01	 cmp	 eax, 1
  0001d	74 35		 je	 SHORT $LN4@CheckNorma
  0001f	7e 3d		 jle	 SHORT $LN5@CheckNorma
  00021	83 f8 03	 cmp	 eax, 3
  00024	7e 22		 jle	 SHORT $LN3@CheckNorma
  00026	83 f8 04	 cmp	 eax, 4
  00029	74 11		 je	 SHORT $LN2@CheckNorma
  0002b	83 f8 05	 cmp	 eax, 5
  0002e	75 2e		 jne	 SHORT $LN5@CheckNorma

; 219  : 	case CS_GATHERING:
; 220  : 		OnGathering( pOwner );

  00030	ff 75 08	 push	 DWORD PTR _pOwner$[ebp]
  00033	8b ce		 mov	 ecx, esi
  00035	e8 00 00 00 00	 call	 ?OnGathering@ioLeeSunSin@@IAEXPAVioBaseChar@@@Z ; ioLeeSunSin::OnGathering

; 221  : 		break;

  0003a	eb 22		 jmp	 SHORT $LN5@CheckNorma
$LN2@CheckNorma:

; 216  : 	case CS_ASSULT_FIRE:
; 217  : 		OnAsulltAttack( pOwner );

  0003c	ff 75 08	 push	 DWORD PTR _pOwner$[ebp]
  0003f	8b ce		 mov	 ecx, esi
  00041	e8 00 00 00 00	 call	 ?OnAsulltAttack@ioLeeSunSin@@IAEXPAVioBaseChar@@@Z ; ioLeeSunSin::OnAsulltAttack

; 218  : 		break;

  00046	eb 16		 jmp	 SHORT $LN5@CheckNorma
$LN3@CheckNorma:

; 211  : 		break;
; 212  : 	case CS_ATTACK_FIRE:
; 213  : 	case CS_EXTEND_FIRE:
; 214  : 		OnNormalAttack( pOwner );

  00048	ff 75 08	 push	 DWORD PTR _pOwner$[ebp]
  0004b	8b ce		 mov	 ecx, esi
  0004d	e8 00 00 00 00	 call	 ?OnNormalAttack@ioLeeSunSin@@IAEXPAVioBaseChar@@@Z ; ioLeeSunSin::OnNormalAttack

; 215  : 		break;

  00052	eb 0a		 jmp	 SHORT $LN5@CheckNorma
$LN4@CheckNorma:

; 208  : 	{
; 209  : 	case CS_CHARGING:
; 210  : 		OnCharging( pOwner );

  00054	ff 75 08	 push	 DWORD PTR _pOwner$[ebp]
  00057	8b ce		 mov	 ecx, esi
  00059	e8 00 00 00 00	 call	 ?OnCharging@ioLeeSunSin@@IAEXPAVioBaseChar@@@Z ; ioLeeSunSin::OnCharging
$LN5@CheckNorma:
  0005e	5e		 pop	 esi

; 222  : 	}
; 223  : }

  0005f	5d		 pop	 ebp
  00060	c2 04 00	 ret	 4
?CheckNormalAttack@ioLeeSunSin@@UAEXPAVioBaseChar@@@Z ENDP ; ioLeeSunSin::CheckNormalAttack
_TEXT	ENDS
PUBLIC	??$_Ucopy@V?$_Vector_const_iterator@V?$_Vector_val@UForceInfo@@V?$allocator@UForceInfo@@@std@@@std@@@std@@@?$vector@UForceInfo@@V?$allocator@UForceInfo@@@std@@@std@@IAEPAUForceInfo@@V?$_Vector_const_iterator@V?$_Vector_val@UForceInfo@@V?$allocator@UForceInfo@@@std@@@std@@@1@0PAU2@@Z ; std::vector<ForceInfo,std::allocator<ForceInfo> >::_Ucopy<std::_Vector_const_iterator<std::_Vector_val<ForceInfo,std::allocator<ForceInfo> > > >
; Function compile flags: /Ogsp
; File c:\program files (x86)\microsoft visual studio 10.0\vc\include\vector
;	COMDAT ??$_Ucopy@V?$_Vector_const_iterator@V?$_Vector_val@UForceInfo@@V?$allocator@UForceInfo@@@std@@@std@@@std@@@?$vector@UForceInfo@@V?$allocator@UForceInfo@@@std@@@std@@IAEPAUForceInfo@@V?$_Vector_const_iterator@V?$_Vector_val@UForceInfo@@V?$allocator@UForceInfo@@@std@@@std@@@1@0PAU2@@Z
_TEXT	SEGMENT
__First$ = 8						; size = 4
__Last$ = 12						; size = 4
__Cat$557419 = 16					; size = 1
__Ptr$ = 16						; size = 4
??$_Ucopy@V?$_Vector_const_iterator@V?$_Vector_val@UForceInfo@@V?$allocator@UForceInfo@@@std@@@std@@@std@@@?$vector@UForceInfo@@V?$allocator@UForceInfo@@@std@@@std@@IAEPAUForceInfo@@V?$_Vector_const_iterator@V?$_Vector_val@UForceInfo@@V?$allocator@UForceInfo@@@std@@@std@@@1@0PAU2@@Z PROC ; std::vector<ForceInfo,std::allocator<ForceInfo> >::_Ucopy<std::_Vector_const_iterator<std::_Vector_val<ForceInfo,std::allocator<ForceInfo> > > >, COMDAT
; _this$ = ecx

; 1315 : 		pointer _Ucopy(_Iter _First, _Iter _Last, pointer _Ptr)

  00000	55		 push	 ebp
  00001	8b ec		 mov	 ebp, esp

; 1316 : 		{	// copy initializing [_First, _Last), using allocator
; 1317 : 		return (_Uninitialized_copy(_First, _Last,
; 1318 : 			_Ptr, this->_Alval));

  00003	ff 75 10	 push	 DWORD PTR __Cat$557419[ebp]
  00006	83 c1 0c	 add	 ecx, 12			; 0000000cH
  00009	51		 push	 ecx
  0000a	ff 75 10	 push	 DWORD PTR __Ptr$[ebp]
  0000d	ff 75 0c	 push	 DWORD PTR __Last$[ebp]
  00010	ff 75 08	 push	 DWORD PTR __First$[ebp]
  00013	e8 00 00 00 00	 call	 ??$_Uninit_copy@V?$_Vector_const_iterator@V?$_Vector_val@UForceInfo@@V?$allocator@UForceInfo@@@std@@@std@@@std@@PAUForceInfo@@V?$allocator@UForceInfo@@@2@@std@@YAPAUForceInfo@@V?$_Vector_const_iterator@V?$_Vector_val@UForceInfo@@V?$allocator@UForceInfo@@@std@@@std@@@0@0PAU1@AAV?$allocator@UForceInfo@@@0@U_Nonscalar_ptr_iterator_tag@0@@Z ; std::_Uninit_copy<std::_Vector_const_iterator<std::_Vector_val<ForceInfo,std::allocator<ForceInfo> > >,ForceInfo *,std::allocator<ForceInfo> >
  00018	83 c4 14	 add	 esp, 20			; 00000014H

; 1319 : 		}

  0001b	5d		 pop	 ebp
  0001c	c2 0c 00	 ret	 12			; 0000000cH
??$_Ucopy@V?$_Vector_const_iterator@V?$_Vector_val@UForceInfo@@V?$allocator@UForceInfo@@@std@@@std@@@std@@@?$vector@UForceInfo@@V?$allocator@UForceInfo@@@std@@@std@@IAEPAUForceInfo@@V?$_Vector_const_iterator@V?$_Vector_val@UForceInfo@@V?$allocator@UForceInfo@@@std@@@std@@@1@0PAU2@@Z ENDP ; std::vector<ForceInfo,std::allocator<ForceInfo> >::_Ucopy<std::_Vector_const_iterator<std::_Vector_val<ForceInfo,std::allocator<ForceInfo> > > >
_TEXT	ENDS
PUBLIC	??$_Destroy_range@V?$allocator@UWoundedInfo@ioLeeSunSin@@@std@@@std@@YAXPAUWoundedInfo@ioLeeSunSin@@0AAV?$allocator@UWoundedInfo@ioLeeSunSin@@@0@@Z ; std::_Destroy_range<std::allocator<ioLeeSunSin::WoundedInfo> >
; Function compile flags: /Ogsp
; File c:\program files (x86)\microsoft visual studio 10.0\vc\include\xmemory
;	COMDAT ??$_Destroy_range@V?$allocator@UWoundedInfo@ioLeeSunSin@@@std@@@std@@YAXPAUWoundedInfo@ioLeeSunSin@@0AAV?$allocator@UWoundedInfo@ioLeeSunSin@@@0@@Z
_TEXT	SEGMENT
__First$ = 8						; size = 4
__Last$ = 12						; size = 4
__Al$ = 16						; size = 4
??$_Destroy_range@V?$allocator@UWoundedInfo@ioLeeSunSin@@@std@@@std@@YAXPAUWoundedInfo@ioLeeSunSin@@0AAV?$allocator@UWoundedInfo@ioLeeSunSin@@@0@@Z PROC ; std::_Destroy_range<std::allocator<ioLeeSunSin::WoundedInfo> >, COMDAT

; 87   : 	{	// destroy [_First, _Last)

  00000	55		 push	 ebp
  00001	8b ec		 mov	 ebp, esp
  00003	56		 push	 esi

; 88   : 	_Destroy_range(_First, _Last, _Al, _Ptr_cat(_First, _Last));

  00004	8b 75 08	 mov	 esi, DWORD PTR __First$[ebp]
  00007	eb 0c		 jmp	 SHORT $LN24@Destroy_ra@4
$LL7@Destroy_ra@4:
  00009	8d 4e 0c	 lea	 ecx, DWORD PTR [esi+12]
  0000c	ff 15 00 00 00
	00		 call	 DWORD PTR __imp_??1ioHashString@@QAE@XZ
  00012	83 c6 20	 add	 esi, 32			; 00000020H
$LN24@Destroy_ra@4:
  00015	3b 75 0c	 cmp	 esi, DWORD PTR __Last$[ebp]
  00018	75 ef		 jne	 SHORT $LL7@Destroy_ra@4
  0001a	5e		 pop	 esi

; 89   : 	}

  0001b	5d		 pop	 ebp
  0001c	c3		 ret	 0
??$_Destroy_range@V?$allocator@UWoundedInfo@ioLeeSunSin@@@std@@@std@@YAXPAUWoundedInfo@ioLeeSunSin@@0AAV?$allocator@UWoundedInfo@ioLeeSunSin@@@0@@Z ENDP ; std::_Destroy_range<std::allocator<ioLeeSunSin::WoundedInfo> >
_TEXT	ENDS
PUBLIC	??$_Uninitialized_copy@V?$_Vector_const_iterator@V?$_Vector_val@UWeaponInfo@@V?$allocator@UWeaponInfo@@@std@@@std@@@std@@PAUWeaponInfo@@V?$allocator@UWeaponInfo@@@2@@std@@YAPAUWeaponInfo@@V?$_Vector_const_iterator@V?$_Vector_val@UWeaponInfo@@V?$allocator@UWeaponInfo@@@std@@@std@@@0@0PAU1@AAV?$allocator@UWeaponInfo@@@0@@Z ; std::_Uninitialized_copy<std::_Vector_const_iterator<std::_Vector_val<WeaponInfo,std::allocator<WeaponInfo> > >,WeaponInfo *,std::allocator<WeaponInfo> >
; Function compile flags: /Ogsp
; File c:\program files (x86)\microsoft visual studio 10.0\vc\include\memory
;	COMDAT ??$_Uninitialized_copy@V?$_Vector_const_iterator@V?$_Vector_val@UWeaponInfo@@V?$allocator@UWeaponInfo@@@std@@@std@@@std@@PAUWeaponInfo@@V?$allocator@UWeaponInfo@@@2@@std@@YAPAUWeaponInfo@@V?$_Vector_const_iterator@V?$_Vector_val@UWeaponInfo@@V?$allocator@UWeaponInfo@@@std@@@std@@@0@0PAU1@AAV?$allocator@UWeaponInfo@@@0@@Z
_TEXT	SEGMENT
__Cat$557497 = -4					; size = 1
__First$ = 8						; size = 4
__Last$ = 12						; size = 4
__Dest$ = 16						; size = 4
__Al$ = 20						; size = 4
??$_Uninitialized_copy@V?$_Vector_const_iterator@V?$_Vector_val@UWeaponInfo@@V?$allocator@UWeaponInfo@@@std@@@std@@@std@@PAUWeaponInfo@@V?$allocator@UWeaponInfo@@@2@@std@@YAPAUWeaponInfo@@V?$_Vector_const_iterator@V?$_Vector_val@UWeaponInfo@@V?$allocator@UWeaponInfo@@@std@@@std@@@0@0PAU1@AAV?$allocator@UWeaponInfo@@@0@@Z PROC ; std::_Uninitialized_copy<std::_Vector_const_iterator<std::_Vector_val<WeaponInfo,std::allocator<WeaponInfo> > >,WeaponInfo *,std::allocator<WeaponInfo> >, COMDAT

; 412  : 	{	// copy [_First, _Last) to raw _Dest, using _Al

  00000	55		 push	 ebp
  00001	8b ec		 mov	 ebp, esp
  00003	51		 push	 ecx

; 413  : 	return (_Uninit_copy(_First, _Last, _Dest, _Al,
; 414  : 		_Ptr_cat(_First, _Dest)));

  00004	ff 75 fc	 push	 DWORD PTR __Cat$557497[ebp]
  00007	ff 75 14	 push	 DWORD PTR __Al$[ebp]
  0000a	ff 75 10	 push	 DWORD PTR __Dest$[ebp]
  0000d	ff 75 0c	 push	 DWORD PTR __Last$[ebp]
  00010	ff 75 08	 push	 DWORD PTR __First$[ebp]
  00013	e8 00 00 00 00	 call	 ??$_Uninit_copy@V?$_Vector_const_iterator@V?$_Vector_val@UWeaponInfo@@V?$allocator@UWeaponInfo@@@std@@@std@@@std@@PAUWeaponInfo@@V?$allocator@UWeaponInfo@@@2@@std@@YAPAUWeaponInfo@@V?$_Vector_const_iterator@V?$_Vector_val@UWeaponInfo@@V?$allocator@UWeaponInfo@@@std@@@std@@@0@0PAU1@AAV?$allocator@UWeaponInfo@@@0@U_Nonscalar_ptr_iterator_tag@0@@Z ; std::_Uninit_copy<std::_Vector_const_iterator<std::_Vector_val<WeaponInfo,std::allocator<WeaponInfo> > >,WeaponInfo *,std::allocator<WeaponInfo> >
  00018	83 c4 14	 add	 esp, 20			; 00000014H

; 415  : 	}

  0001b	c9		 leave
  0001c	c3		 ret	 0
??$_Uninitialized_copy@V?$_Vector_const_iterator@V?$_Vector_val@UWeaponInfo@@V?$allocator@UWeaponInfo@@@std@@@std@@@std@@PAUWeaponInfo@@V?$allocator@UWeaponInfo@@@2@@std@@YAPAUWeaponInfo@@V?$_Vector_const_iterator@V?$_Vector_val@UWeaponInfo@@V?$allocator@UWeaponInfo@@@std@@@std@@@0@0PAU1@AAV?$allocator@UWeaponInfo@@@0@@Z ENDP ; std::_Uninitialized_copy<std::_Vector_const_iterator<std::_Vector_val<WeaponInfo,std::allocator<WeaponInfo> > >,WeaponInfo *,std::allocator<WeaponInfo> >
_TEXT	ENDS
PUBLIC	??$_Uninitialized_copy@V?$_Vector_const_iterator@V?$_Vector_val@UWoundedInfo@ioLeeSunSin@@V?$allocator@UWoundedInfo@ioLeeSunSin@@@std@@@std@@@std@@PAUWoundedInfo@ioLeeSunSin@@V?$allocator@UWoundedInfo@ioLeeSunSin@@@2@@std@@YAPAUWoundedInfo@ioLeeSunSin@@V?$_Vector_const_iterator@V?$_Vector_val@UWoundedInfo@ioLeeSunSin@@V?$allocator@UWoundedInfo@ioLeeSunSin@@@std@@@std@@@0@0PAU12@AAV?$allocator@UWoundedInfo@ioLeeSunSin@@@0@@Z ; std::_Uninitialized_copy<std::_Vector_const_iterator<std::_Vector_val<ioLeeSunSin::WoundedInfo,std::allocator<ioLeeSunSin::WoundedInfo> > >,ioLeeSunSin::WoundedInfo *,std::allocator<ioLeeSunSin::WoundedInfo> >
; Function compile flags: /Ogsp
;	COMDAT ??$_Uninitialized_copy@V?$_Vector_const_iterator@V?$_Vector_val@UWoundedInfo@ioLeeSunSin@@V?$allocator@UWoundedInfo@ioLeeSunSin@@@std@@@std@@@std@@PAUWoundedInfo@ioLeeSunSin@@V?$allocator@UWoundedInfo@ioLeeSunSin@@@2@@std@@YAPAUWoundedInfo@ioLeeSunSin@@V?$_Vector_const_iterator@V?$_Vector_val@UWoundedInfo@ioLeeSunSin@@V?$allocator@UWoundedInfo@ioLeeSunSin@@@std@@@std@@@0@0PAU12@AAV?$allocator@UWoundedInfo@ioLeeSunSin@@@0@@Z
_TEXT	SEGMENT
__Cat$557504 = -4					; size = 1
__First$ = 8						; size = 4
__Last$ = 12						; size = 4
__Dest$ = 16						; size = 4
__Al$ = 20						; size = 4
??$_Uninitialized_copy@V?$_Vector_const_iterator@V?$_Vector_val@UWoundedInfo@ioLeeSunSin@@V?$allocator@UWoundedInfo@ioLeeSunSin@@@std@@@std@@@std@@PAUWoundedInfo@ioLeeSunSin@@V?$allocator@UWoundedInfo@ioLeeSunSin@@@2@@std@@YAPAUWoundedInfo@ioLeeSunSin@@V?$_Vector_const_iterator@V?$_Vector_val@UWoundedInfo@ioLeeSunSin@@V?$allocator@UWoundedInfo@ioLeeSunSin@@@std@@@std@@@0@0PAU12@AAV?$allocator@UWoundedInfo@ioLeeSunSin@@@0@@Z PROC ; std::_Uninitialized_copy<std::_Vector_const_iterator<std::_Vector_val<ioLeeSunSin::WoundedInfo,std::allocator<ioLeeSunSin::WoundedInfo> > >,ioLeeSunSin::WoundedInfo *,std::allocator<ioLeeSunSin::WoundedInfo> >, COMDAT

; 412  : 	{	// copy [_First, _Last) to raw _Dest, using _Al

  00000	55		 push	 ebp
  00001	8b ec		 mov	 ebp, esp
  00003	51		 push	 ecx

; 413  : 	return (_Uninit_copy(_First, _Last, _Dest, _Al,
; 414  : 		_Ptr_cat(_First, _Dest)));

  00004	ff 75 fc	 push	 DWORD PTR __Cat$557504[ebp]
  00007	ff 75 14	 push	 DWORD PTR __Al$[ebp]
  0000a	ff 75 10	 push	 DWORD PTR __Dest$[ebp]
  0000d	ff 75 0c	 push	 DWORD PTR __Last$[ebp]
  00010	ff 75 08	 push	 DWORD PTR __First$[ebp]
  00013	e8 00 00 00 00	 call	 ??$_Uninit_copy@V?$_Vector_const_iterator@V?$_Vector_val@UWoundedInfo@ioLeeSunSin@@V?$allocator@UWoundedInfo@ioLeeSunSin@@@std@@@std@@@std@@PAUWoundedInfo@ioLeeSunSin@@V?$allocator@UWoundedInfo@ioLeeSunSin@@@2@@std@@YAPAUWoundedInfo@ioLeeSunSin@@V?$_Vector_const_iterator@V?$_Vector_val@UWoundedInfo@ioLeeSunSin@@V?$allocator@UWoundedInfo@ioLeeSunSin@@@std@@@std@@@0@0PAU12@AAV?$allocator@UWoundedInfo@ioLeeSunSin@@@0@U_Nonscalar_ptr_iterator_tag@0@@Z ; std::_Uninit_copy<std::_Vector_const_iterator<std::_Vector_val<ioLeeSunSin::WoundedInfo,std::allocator<ioLeeSunSin::WoundedInfo> > >,ioLeeSunSin::WoundedInfo *,std::allocator<ioLeeSunSin::WoundedInfo> >
  00018	83 c4 14	 add	 esp, 20			; 00000014H

; 415  : 	}

  0001b	c9		 leave
  0001c	c3		 ret	 0
??$_Uninitialized_copy@V?$_Vector_const_iterator@V?$_Vector_val@UWoundedInfo@ioLeeSunSin@@V?$allocator@UWoundedInfo@ioLeeSunSin@@@std@@@std@@@std@@PAUWoundedInfo@ioLeeSunSin@@V?$allocator@UWoundedInfo@ioLeeSunSin@@@2@@std@@YAPAUWoundedInfo@ioLeeSunSin@@V?$_Vector_const_iterator@V?$_Vector_val@UWoundedInfo@ioLeeSunSin@@V?$allocator@UWoundedInfo@ioLeeSunSin@@@std@@@std@@@0@0PAU12@AAV?$allocator@UWoundedInfo@ioLeeSunSin@@@0@@Z ENDP ; std::_Uninitialized_copy<std::_Vector_const_iterator<std::_Vector_val<ioLeeSunSin::WoundedInfo,std::allocator<ioLeeSunSin::WoundedInfo> > >,ioLeeSunSin::WoundedInfo *,std::allocator<ioLeeSunSin::WoundedInfo> >
_TEXT	ENDS
PUBLIC	??$_Uninitialized_move@PAVioHashString@@PAV1@V?$allocator@VioHashString@@@std@@@std@@YAPAVioHashString@@PAV1@00AAV?$allocator@VioHashString@@@0@@Z ; std::_Uninitialized_move<ioHashString *,ioHashString *,std::allocator<ioHashString> >
; Function compile flags: /Ogsp
;	COMDAT ??$_Uninitialized_move@PAVioHashString@@PAV1@V?$allocator@VioHashString@@@std@@@std@@YAPAVioHashString@@PAV1@00AAV?$allocator@VioHashString@@@0@@Z
_TEXT	SEGMENT
__Cat$557511 = -4					; size = 1
__First$ = 8						; size = 4
__Last$ = 12						; size = 4
__Dest$ = 16						; size = 4
__Al$ = 20						; size = 4
??$_Uninitialized_move@PAVioHashString@@PAV1@V?$allocator@VioHashString@@@std@@@std@@YAPAVioHashString@@PAV1@00AAV?$allocator@VioHashString@@@0@@Z PROC ; std::_Uninitialized_move<ioHashString *,ioHashString *,std::allocator<ioHashString> >, COMDAT

; 469  : 	{	// move [_First, _Last) to raw _Dest, using _Al

  00000	55		 push	 ebp
  00001	8b ec		 mov	 ebp, esp
  00003	51		 push	 ecx

; 470  : 	return (_Uninit_move(_First, _Last, _Dest, _Al,
; 471  : 		_Val_type(_First), _Ptr_cat(_First, _Dest)));

  00004	ff 75 fc	 push	 DWORD PTR __Cat$557511[ebp]
  00007	6a 00		 push	 0
  00009	ff 75 14	 push	 DWORD PTR __Al$[ebp]
  0000c	ff 75 10	 push	 DWORD PTR __Dest$[ebp]
  0000f	ff 75 0c	 push	 DWORD PTR __Last$[ebp]
  00012	ff 75 08	 push	 DWORD PTR __First$[ebp]
  00015	e8 00 00 00 00	 call	 ??$_Uninit_move@PAVioHashString@@PAV1@V?$allocator@VioHashString@@@std@@V1@@std@@YAPAVioHashString@@PAV1@00AAV?$allocator@VioHashString@@@0@0U_Nonscalar_ptr_iterator_tag@0@@Z ; std::_Uninit_move<ioHashString *,ioHashString *,std::allocator<ioHashString>,ioHashString>
  0001a	83 c4 18	 add	 esp, 24			; 00000018H

; 472  : 	}

  0001d	c9		 leave
  0001e	c3		 ret	 0
??$_Uninitialized_move@PAVioHashString@@PAV1@V?$allocator@VioHashString@@@std@@@std@@YAPAVioHashString@@PAV1@00AAV?$allocator@VioHashString@@@0@@Z ENDP ; std::_Uninitialized_move<ioHashString *,ioHashString *,std::allocator<ioHashString> >
_TEXT	ENDS
PUBLIC	??$_Uninitialized_move@PAUWoundedInfo@ioLeeSunSin@@PAU12@V?$allocator@UWoundedInfo@ioLeeSunSin@@@std@@@std@@YAPAUWoundedInfo@ioLeeSunSin@@PAU12@00AAV?$allocator@UWoundedInfo@ioLeeSunSin@@@0@@Z ; std::_Uninitialized_move<ioLeeSunSin::WoundedInfo *,ioLeeSunSin::WoundedInfo *,std::allocator<ioLeeSunSin::WoundedInfo> >
; Function compile flags: /Ogsp
;	COMDAT ??$_Uninitialized_move@PAUWoundedInfo@ioLeeSunSin@@PAU12@V?$allocator@UWoundedInfo@ioLeeSunSin@@@std@@@std@@YAPAUWoundedInfo@ioLeeSunSin@@PAU12@00AAV?$allocator@UWoundedInfo@ioLeeSunSin@@@0@@Z
_TEXT	SEGMENT
__Cat$557521 = -4					; size = 1
__First$ = 8						; size = 4
__Last$ = 12						; size = 4
__Dest$ = 16						; size = 4
__Al$ = 20						; size = 4
??$_Uninitialized_move@PAUWoundedInfo@ioLeeSunSin@@PAU12@V?$allocator@UWoundedInfo@ioLeeSunSin@@@std@@@std@@YAPAUWoundedInfo@ioLeeSunSin@@PAU12@00AAV?$allocator@UWoundedInfo@ioLeeSunSin@@@0@@Z PROC ; std::_Uninitialized_move<ioLeeSunSin::WoundedInfo *,ioLeeSunSin::WoundedInfo *,std::allocator<ioLeeSunSin::WoundedInfo> >, COMDAT

; 469  : 	{	// move [_First, _Last) to raw _Dest, using _Al

  00000	55		 push	 ebp
  00001	8b ec		 mov	 ebp, esp
  00003	51		 push	 ecx

; 470  : 	return (_Uninit_move(_First, _Last, _Dest, _Al,
; 471  : 		_Val_type(_First), _Ptr_cat(_First, _Dest)));

  00004	ff 75 fc	 push	 DWORD PTR __Cat$557521[ebp]
  00007	6a 00		 push	 0
  00009	ff 75 14	 push	 DWORD PTR __Al$[ebp]
  0000c	ff 75 10	 push	 DWORD PTR __Dest$[ebp]
  0000f	ff 75 0c	 push	 DWORD PTR __Last$[ebp]
  00012	ff 75 08	 push	 DWORD PTR __First$[ebp]
  00015	e8 00 00 00 00	 call	 ??$_Uninit_move@PAUWoundedInfo@ioLeeSunSin@@PAU12@V?$allocator@UWoundedInfo@ioLeeSunSin@@@std@@U12@@std@@YAPAUWoundedInfo@ioLeeSunSin@@PAU12@00AAV?$allocator@UWoundedInfo@ioLeeSunSin@@@0@0U_Nonscalar_ptr_iterator_tag@0@@Z ; std::_Uninit_move<ioLeeSunSin::WoundedInfo *,ioLeeSunSin::WoundedInfo *,std::allocator<ioLeeSunSin::WoundedInfo>,ioLeeSunSin::WoundedInfo>
  0001a	83 c4 18	 add	 esp, 24			; 00000018H

; 472  : 	}

  0001d	c9		 leave
  0001e	c3		 ret	 0
??$_Uninitialized_move@PAUWoundedInfo@ioLeeSunSin@@PAU12@V?$allocator@UWoundedInfo@ioLeeSunSin@@@std@@@std@@YAPAUWoundedInfo@ioLeeSunSin@@PAU12@00AAV?$allocator@UWoundedInfo@ioLeeSunSin@@@0@@Z ENDP ; std::_Uninitialized_move<ioLeeSunSin::WoundedInfo *,ioLeeSunSin::WoundedInfo *,std::allocator<ioLeeSunSin::WoundedInfo> >
_TEXT	ENDS
PUBLIC	?_Destroy@?$vector@UForceInfo@@V?$allocator@UForceInfo@@@std@@@std@@IAEXPAUForceInfo@@0@Z ; std::vector<ForceInfo,std::allocator<ForceInfo> >::_Destroy
; Function compile flags: /Ogsp
; File c:\program files (x86)\microsoft visual studio 10.0\vc\include\vector
;	COMDAT ?_Destroy@?$vector@UForceInfo@@V?$allocator@UForceInfo@@@std@@@std@@IAEXPAUForceInfo@@0@Z
_TEXT	SEGMENT
__First$ = 8						; size = 4
__Last$ = 12						; size = 4
?_Destroy@?$vector@UForceInfo@@V?$allocator@UForceInfo@@@std@@@std@@IAEXPAUForceInfo@@0@Z PROC ; std::vector<ForceInfo,std::allocator<ForceInfo> >::_Destroy, COMDAT
; _this$ = ecx

; 1270 : 		_Destroy_range(_First, _Last, this->_Alval);
; 1271 : 		}

  00000	c2 08 00	 ret	 8
?_Destroy@?$vector@UForceInfo@@V?$allocator@UForceInfo@@@std@@@std@@IAEXPAUForceInfo@@0@Z ENDP ; std::vector<ForceInfo,std::allocator<ForceInfo> >::_Destroy
_TEXT	ENDS
PUBLIC	??$_Destroy_range@V?$allocator@VioHashString@@@std@@@std@@YAXPAVioHashString@@0AAV?$allocator@VioHashString@@@0@@Z ; std::_Destroy_range<std::allocator<ioHashString> >
; Function compile flags: /Ogsp
; File c:\program files (x86)\microsoft visual studio 10.0\vc\include\xmemory
;	COMDAT ??$_Destroy_range@V?$allocator@VioHashString@@@std@@@std@@YAXPAVioHashString@@0AAV?$allocator@VioHashString@@@0@@Z
_TEXT	SEGMENT
__First$ = 8						; size = 4
__Last$ = 12						; size = 4
__Al$ = 16						; size = 4
??$_Destroy_range@V?$allocator@VioHashString@@@std@@@std@@YAXPAVioHashString@@0AAV?$allocator@VioHashString@@@0@@Z PROC ; std::_Destroy_range<std::allocator<ioHashString> >, COMDAT

; 87   : 	{	// destroy [_First, _Last)

  00000	55		 push	 ebp
  00001	8b ec		 mov	 ebp, esp
  00003	56		 push	 esi

; 88   : 	_Destroy_range(_First, _Last, _Al, _Ptr_cat(_First, _Last));

  00004	8b 75 08	 mov	 esi, DWORD PTR __First$[ebp]
  00007	eb 0b		 jmp	 SHORT $LN21@Destroy_ra@5
$LL7@Destroy_ra@5:
  00009	8b ce		 mov	 ecx, esi
  0000b	ff 15 00 00 00
	00		 call	 DWORD PTR __imp_??1ioHashString@@QAE@XZ
  00011	83 c6 10	 add	 esi, 16			; 00000010H
$LN21@Destroy_ra@5:
  00014	3b 75 0c	 cmp	 esi, DWORD PTR __Last$[ebp]
  00017	75 f0		 jne	 SHORT $LL7@Destroy_ra@5
  00019	5e		 pop	 esi

; 89   : 	}

  0001a	5d		 pop	 ebp
  0001b	c3		 ret	 0
??$_Destroy_range@V?$allocator@VioHashString@@@std@@@std@@YAXPAVioHashString@@0AAV?$allocator@VioHashString@@@0@@Z ENDP ; std::_Destroy_range<std::allocator<ioHashString> >
_TEXT	ENDS
PUBLIC	??$_Destroy_range@V?$allocator@UWeaponInfo@@@std@@@std@@YAXPAUWeaponInfo@@0AAV?$allocator@UWeaponInfo@@@0@@Z ; std::_Destroy_range<std::allocator<WeaponInfo> >
; Function compile flags: /Ogsp
;	COMDAT ??$_Destroy_range@V?$allocator@UWeaponInfo@@@std@@@std@@YAXPAUWeaponInfo@@0AAV?$allocator@UWeaponInfo@@@0@@Z
_TEXT	SEGMENT
__First$ = 8						; size = 4
__Last$ = 12						; size = 4
__Al$ = 16						; size = 4
??$_Destroy_range@V?$allocator@UWeaponInfo@@@std@@@std@@YAXPAUWeaponInfo@@0AAV?$allocator@UWeaponInfo@@@0@@Z PROC ; std::_Destroy_range<std::allocator<WeaponInfo> >, COMDAT

; 87   : 	{	// destroy [_First, _Last)

  00000	55		 push	 ebp
  00001	8b ec		 mov	 ebp, esp
  00003	56		 push	 esi

; 88   : 	_Destroy_range(_First, _Last, _Al, _Ptr_cat(_First, _Last));

  00004	8b 75 08	 mov	 esi, DWORD PTR __First$[ebp]
  00007	eb 0c		 jmp	 SHORT $LN24@Destroy_ra@6
$LL7@Destroy_ra@6:
  00009	8d 4e 08	 lea	 ecx, DWORD PTR [esi+8]
  0000c	ff 15 00 00 00
	00		 call	 DWORD PTR __imp_??1ioHashString@@QAE@XZ
  00012	83 c6 28	 add	 esi, 40			; 00000028H
$LN24@Destroy_ra@6:
  00015	3b 75 0c	 cmp	 esi, DWORD PTR __Last$[ebp]
  00018	75 ef		 jne	 SHORT $LL7@Destroy_ra@6
  0001a	5e		 pop	 esi

; 89   : 	}

  0001b	5d		 pop	 ebp
  0001c	c3		 ret	 0
??$_Destroy_range@V?$allocator@UWeaponInfo@@@std@@@std@@YAXPAUWeaponInfo@@0AAV?$allocator@UWeaponInfo@@@0@@Z ENDP ; std::_Destroy_range<std::allocator<WeaponInfo> >
_TEXT	ENDS
PUBLIC	??$_Uninitialized_copy@V?$_Vector_const_iterator@V?$_Vector_val@VioHashString@@V?$allocator@VioHashString@@@std@@@std@@@std@@PAVioHashString@@V?$allocator@VioHashString@@@2@@std@@YAPAVioHashString@@V?$_Vector_const_iterator@V?$_Vector_val@VioHashString@@V?$allocator@VioHashString@@@std@@@std@@@0@0PAV1@AAV?$allocator@VioHashString@@@0@@Z ; std::_Uninitialized_copy<std::_Vector_const_iterator<std::_Vector_val<ioHashString,std::allocator<ioHashString> > >,ioHashString *,std::allocator<ioHashString> >
; Function compile flags: /Ogsp
; File c:\program files (x86)\microsoft visual studio 10.0\vc\include\memory
;	COMDAT ??$_Uninitialized_copy@V?$_Vector_const_iterator@V?$_Vector_val@VioHashString@@V?$allocator@VioHashString@@@std@@@std@@@std@@PAVioHashString@@V?$allocator@VioHashString@@@2@@std@@YAPAVioHashString@@V?$_Vector_const_iterator@V?$_Vector_val@VioHashString@@V?$allocator@VioHashString@@@std@@@std@@@0@0PAV1@AAV?$allocator@VioHashString@@@0@@Z
_TEXT	SEGMENT
__Cat$557709 = -4					; size = 1
__First$ = 8						; size = 4
__Last$ = 12						; size = 4
__Dest$ = 16						; size = 4
__Al$ = 20						; size = 4
??$_Uninitialized_copy@V?$_Vector_const_iterator@V?$_Vector_val@VioHashString@@V?$allocator@VioHashString@@@std@@@std@@@std@@PAVioHashString@@V?$allocator@VioHashString@@@2@@std@@YAPAVioHashString@@V?$_Vector_const_iterator@V?$_Vector_val@VioHashString@@V?$allocator@VioHashString@@@std@@@std@@@0@0PAV1@AAV?$allocator@VioHashString@@@0@@Z PROC ; std::_Uninitialized_copy<std::_Vector_const_iterator<std::_Vector_val<ioHashString,std::allocator<ioHashString> > >,ioHashString *,std::allocator<ioHashString> >, COMDAT

; 412  : 	{	// copy [_First, _Last) to raw _Dest, using _Al

  00000	55		 push	 ebp
  00001	8b ec		 mov	 ebp, esp
  00003	51		 push	 ecx

; 413  : 	return (_Uninit_copy(_First, _Last, _Dest, _Al,
; 414  : 		_Ptr_cat(_First, _Dest)));

  00004	ff 75 fc	 push	 DWORD PTR __Cat$557709[ebp]
  00007	ff 75 14	 push	 DWORD PTR __Al$[ebp]
  0000a	ff 75 10	 push	 DWORD PTR __Dest$[ebp]
  0000d	ff 75 0c	 push	 DWORD PTR __Last$[ebp]
  00010	ff 75 08	 push	 DWORD PTR __First$[ebp]
  00013	e8 00 00 00 00	 call	 ??$_Uninit_copy@V?$_Vector_const_iterator@V?$_Vector_val@VioHashString@@V?$allocator@VioHashString@@@std@@@std@@@std@@PAVioHashString@@V?$allocator@VioHashString@@@2@@std@@YAPAVioHashString@@V?$_Vector_const_iterator@V?$_Vector_val@VioHashString@@V?$allocator@VioHashString@@@std@@@std@@@0@0PAV1@AAV?$allocator@VioHashString@@@0@U_Nonscalar_ptr_iterator_tag@0@@Z ; std::_Uninit_copy<std::_Vector_const_iterator<std::_Vector_val<ioHashString,std::allocator<ioHashString> > >,ioHashString *,std::allocator<ioHashString> >
  00018	83 c4 14	 add	 esp, 20			; 00000014H

; 415  : 	}

  0001b	c9		 leave
  0001c	c3		 ret	 0
??$_Uninitialized_copy@V?$_Vector_const_iterator@V?$_Vector_val@VioHashString@@V?$allocator@VioHashString@@@std@@@std@@@std@@PAVioHashString@@V?$allocator@VioHashString@@@2@@std@@YAPAVioHashString@@V?$_Vector_const_iterator@V?$_Vector_val@VioHashString@@V?$allocator@VioHashString@@@std@@@std@@@0@0PAV1@AAV?$allocator@VioHashString@@@0@@Z ENDP ; std::_Uninitialized_copy<std::_Vector_const_iterator<std::_Vector_val<ioHashString,std::allocator<ioHashString> > >,ioHashString *,std::allocator<ioHashString> >
_TEXT	ENDS
PUBLIC	?_Destroy@?$vector@UWoundedInfo@ioLeeSunSin@@V?$allocator@UWoundedInfo@ioLeeSunSin@@@std@@@std@@IAEXPAUWoundedInfo@ioLeeSunSin@@0@Z ; std::vector<ioLeeSunSin::WoundedInfo,std::allocator<ioLeeSunSin::WoundedInfo> >::_Destroy
; Function compile flags: /Ogsp
; File c:\program files (x86)\microsoft visual studio 10.0\vc\include\vector
;	COMDAT ?_Destroy@?$vector@UWoundedInfo@ioLeeSunSin@@V?$allocator@UWoundedInfo@ioLeeSunSin@@@std@@@std@@IAEXPAUWoundedInfo@ioLeeSunSin@@0@Z
_TEXT	SEGMENT
__First$ = 8						; size = 4
__Last$ = 12						; size = 4
?_Destroy@?$vector@UWoundedInfo@ioLeeSunSin@@V?$allocator@UWoundedInfo@ioLeeSunSin@@@std@@@std@@IAEXPAUWoundedInfo@ioLeeSunSin@@0@Z PROC ; std::vector<ioLeeSunSin::WoundedInfo,std::allocator<ioLeeSunSin::WoundedInfo> >::_Destroy, COMDAT
; _this$ = ecx

; 1269 : 		{	// destroy [_First, _Last) using allocator

  00000	55		 push	 ebp
  00001	8b ec		 mov	 ebp, esp

; 1270 : 		_Destroy_range(_First, _Last, this->_Alval);

  00003	83 c1 0c	 add	 ecx, 12			; 0000000cH
  00006	51		 push	 ecx
  00007	ff 75 0c	 push	 DWORD PTR __Last$[ebp]
  0000a	ff 75 08	 push	 DWORD PTR __First$[ebp]
  0000d	e8 00 00 00 00	 call	 ??$_Destroy_range@V?$allocator@UWoundedInfo@ioLeeSunSin@@@std@@@std@@YAXPAUWoundedInfo@ioLeeSunSin@@0AAV?$allocator@UWoundedInfo@ioLeeSunSin@@@0@@Z ; std::_Destroy_range<std::allocator<ioLeeSunSin::WoundedInfo> >
  00012	83 c4 0c	 add	 esp, 12			; 0000000cH

; 1271 : 		}

  00015	5d		 pop	 ebp
  00016	c2 08 00	 ret	 8
?_Destroy@?$vector@UWoundedInfo@ioLeeSunSin@@V?$allocator@UWoundedInfo@ioLeeSunSin@@@std@@@std@@IAEXPAUWoundedInfo@ioLeeSunSin@@0@Z ENDP ; std::vector<ioLeeSunSin::WoundedInfo,std::allocator<ioLeeSunSin::WoundedInfo> >::_Destroy
_TEXT	ENDS
PUBLIC	??$_Ucopy@V?$_Vector_const_iterator@V?$_Vector_val@UWeaponInfo@@V?$allocator@UWeaponInfo@@@std@@@std@@@std@@@?$vector@UWeaponInfo@@V?$allocator@UWeaponInfo@@@std@@@std@@IAEPAUWeaponInfo@@V?$_Vector_const_iterator@V?$_Vector_val@UWeaponInfo@@V?$allocator@UWeaponInfo@@@std@@@std@@@1@0PAU2@@Z ; std::vector<WeaponInfo,std::allocator<WeaponInfo> >::_Ucopy<std::_Vector_const_iterator<std::_Vector_val<WeaponInfo,std::allocator<WeaponInfo> > > >
; Function compile flags: /Ogsp
;	COMDAT ??$_Ucopy@V?$_Vector_const_iterator@V?$_Vector_val@UWeaponInfo@@V?$allocator@UWeaponInfo@@@std@@@std@@@std@@@?$vector@UWeaponInfo@@V?$allocator@UWeaponInfo@@@std@@@std@@IAEPAUWeaponInfo@@V?$_Vector_const_iterator@V?$_Vector_val@UWeaponInfo@@V?$allocator@UWeaponInfo@@@std@@@std@@@1@0PAU2@@Z
_TEXT	SEGMENT
__First$ = 8						; size = 4
__Last$ = 12						; size = 4
__Cat$557724 = 16					; size = 1
__Ptr$ = 16						; size = 4
??$_Ucopy@V?$_Vector_const_iterator@V?$_Vector_val@UWeaponInfo@@V?$allocator@UWeaponInfo@@@std@@@std@@@std@@@?$vector@UWeaponInfo@@V?$allocator@UWeaponInfo@@@std@@@std@@IAEPAUWeaponInfo@@V?$_Vector_const_iterator@V?$_Vector_val@UWeaponInfo@@V?$allocator@UWeaponInfo@@@std@@@std@@@1@0PAU2@@Z PROC ; std::vector<WeaponInfo,std::allocator<WeaponInfo> >::_Ucopy<std::_Vector_const_iterator<std::_Vector_val<WeaponInfo,std::allocator<WeaponInfo> > > >, COMDAT
; _this$ = ecx

; 1315 : 		pointer _Ucopy(_Iter _First, _Iter _Last, pointer _Ptr)

  00000	55		 push	 ebp
  00001	8b ec		 mov	 ebp, esp

; 1316 : 		{	// copy initializing [_First, _Last), using allocator
; 1317 : 		return (_Uninitialized_copy(_First, _Last,
; 1318 : 			_Ptr, this->_Alval));

  00003	ff 75 10	 push	 DWORD PTR __Cat$557724[ebp]
  00006	83 c1 0c	 add	 ecx, 12			; 0000000cH
  00009	51		 push	 ecx
  0000a	ff 75 10	 push	 DWORD PTR __Ptr$[ebp]
  0000d	ff 75 0c	 push	 DWORD PTR __Last$[ebp]
  00010	ff 75 08	 push	 DWORD PTR __First$[ebp]
  00013	e8 00 00 00 00	 call	 ??$_Uninit_copy@V?$_Vector_const_iterator@V?$_Vector_val@UWeaponInfo@@V?$allocator@UWeaponInfo@@@std@@@std@@@std@@PAUWeaponInfo@@V?$allocator@UWeaponInfo@@@2@@std@@YAPAUWeaponInfo@@V?$_Vector_const_iterator@V?$_Vector_val@UWeaponInfo@@V?$allocator@UWeaponInfo@@@std@@@std@@@0@0PAU1@AAV?$allocator@UWeaponInfo@@@0@U_Nonscalar_ptr_iterator_tag@0@@Z ; std::_Uninit_copy<std::_Vector_const_iterator<std::_Vector_val<WeaponInfo,std::allocator<WeaponInfo> > >,WeaponInfo *,std::allocator<WeaponInfo> >
  00018	83 c4 14	 add	 esp, 20			; 00000014H

; 1319 : 		}

  0001b	5d		 pop	 ebp
  0001c	c2 0c 00	 ret	 12			; 0000000cH
??$_Ucopy@V?$_Vector_const_iterator@V?$_Vector_val@UWeaponInfo@@V?$allocator@UWeaponInfo@@@std@@@std@@@std@@@?$vector@UWeaponInfo@@V?$allocator@UWeaponInfo@@@std@@@std@@IAEPAUWeaponInfo@@V?$_Vector_const_iterator@V?$_Vector_val@UWeaponInfo@@V?$allocator@UWeaponInfo@@@std@@@std@@@1@0PAU2@@Z ENDP ; std::vector<WeaponInfo,std::allocator<WeaponInfo> >::_Ucopy<std::_Vector_const_iterator<std::_Vector_val<WeaponInfo,std::allocator<WeaponInfo> > > >
_TEXT	ENDS
PUBLIC	??$_Ucopy@V?$_Vector_const_iterator@V?$_Vector_val@UWoundedInfo@ioLeeSunSin@@V?$allocator@UWoundedInfo@ioLeeSunSin@@@std@@@std@@@std@@@?$vector@UWoundedInfo@ioLeeSunSin@@V?$allocator@UWoundedInfo@ioLeeSunSin@@@std@@@std@@IAEPAUWoundedInfo@ioLeeSunSin@@V?$_Vector_const_iterator@V?$_Vector_val@UWoundedInfo@ioLeeSunSin@@V?$allocator@UWoundedInfo@ioLeeSunSin@@@std@@@std@@@1@0PAU23@@Z ; std::vector<ioLeeSunSin::WoundedInfo,std::allocator<ioLeeSunSin::WoundedInfo> >::_Ucopy<std::_Vector_const_iterator<std::_Vector_val<ioLeeSunSin::WoundedInfo,std::allocator<ioLeeSunSin::WoundedInfo> > > >
; Function compile flags: /Ogsp
;	COMDAT ??$_Ucopy@V?$_Vector_const_iterator@V?$_Vector_val@UWoundedInfo@ioLeeSunSin@@V?$allocator@UWoundedInfo@ioLeeSunSin@@@std@@@std@@@std@@@?$vector@UWoundedInfo@ioLeeSunSin@@V?$allocator@UWoundedInfo@ioLeeSunSin@@@std@@@std@@IAEPAUWoundedInfo@ioLeeSunSin@@V?$_Vector_const_iterator@V?$_Vector_val@UWoundedInfo@ioLeeSunSin@@V?$allocator@UWoundedInfo@ioLeeSunSin@@@std@@@std@@@1@0PAU23@@Z
_TEXT	SEGMENT
__First$ = 8						; size = 4
__Last$ = 12						; size = 4
__Cat$557740 = 16					; size = 1
__Ptr$ = 16						; size = 4
??$_Ucopy@V?$_Vector_const_iterator@V?$_Vector_val@UWoundedInfo@ioLeeSunSin@@V?$allocator@UWoundedInfo@ioLeeSunSin@@@std@@@std@@@std@@@?$vector@UWoundedInfo@ioLeeSunSin@@V?$allocator@UWoundedInfo@ioLeeSunSin@@@std@@@std@@IAEPAUWoundedInfo@ioLeeSunSin@@V?$_Vector_const_iterator@V?$_Vector_val@UWoundedInfo@ioLeeSunSin@@V?$allocator@UWoundedInfo@ioLeeSunSin@@@std@@@std@@@1@0PAU23@@Z PROC ; std::vector<ioLeeSunSin::WoundedInfo,std::allocator<ioLeeSunSin::WoundedInfo> >::_Ucopy<std::_Vector_const_iterator<std::_Vector_val<ioLeeSunSin::WoundedInfo,std::allocator<ioLeeSunSin::WoundedInfo> > > >, COMDAT
; _this$ = ecx

; 1315 : 		pointer _Ucopy(_Iter _First, _Iter _Last, pointer _Ptr)

  00000	55		 push	 ebp
  00001	8b ec		 mov	 ebp, esp

; 1316 : 		{	// copy initializing [_First, _Last), using allocator
; 1317 : 		return (_Uninitialized_copy(_First, _Last,
; 1318 : 			_Ptr, this->_Alval));

  00003	ff 75 10	 push	 DWORD PTR __Cat$557740[ebp]
  00006	83 c1 0c	 add	 ecx, 12			; 0000000cH
  00009	51		 push	 ecx
  0000a	ff 75 10	 push	 DWORD PTR __Ptr$[ebp]
  0000d	ff 75 0c	 push	 DWORD PTR __Last$[ebp]
  00010	ff 75 08	 push	 DWORD PTR __First$[ebp]
  00013	e8 00 00 00 00	 call	 ??$_Uninit_copy@V?$_Vector_const_iterator@V?$_Vector_val@UWoundedInfo@ioLeeSunSin@@V?$allocator@UWoundedInfo@ioLeeSunSin@@@std@@@std@@@std@@PAUWoundedInfo@ioLeeSunSin@@V?$allocator@UWoundedInfo@ioLeeSunSin@@@2@@std@@YAPAUWoundedInfo@ioLeeSunSin@@V?$_Vector_const_iterator@V?$_Vector_val@UWoundedInfo@ioLeeSunSin@@V?$allocator@UWoundedInfo@ioLeeSunSin@@@std@@@std@@@0@0PAU12@AAV?$allocator@UWoundedInfo@ioLeeSunSin@@@0@U_Nonscalar_ptr_iterator_tag@0@@Z ; std::_Uninit_copy<std::_Vector_const_iterator<std::_Vector_val<ioLeeSunSin::WoundedInfo,std::allocator<ioLeeSunSin::WoundedInfo> > >,ioLeeSunSin::WoundedInfo *,std::allocator<ioLeeSunSin::WoundedInfo> >
  00018	83 c4 14	 add	 esp, 20			; 00000014H

; 1319 : 		}

  0001b	5d		 pop	 ebp
  0001c	c2 0c 00	 ret	 12			; 0000000cH
??$_Ucopy@V?$_Vector_const_iterator@V?$_Vector_val@UWoundedInfo@ioLeeSunSin@@V?$allocator@UWoundedInfo@ioLeeSunSin@@@std@@@std@@@std@@@?$vector@UWoundedInfo@ioLeeSunSin@@V?$allocator@UWoundedInfo@ioLeeSunSin@@@std@@@std@@IAEPAUWoundedInfo@ioLeeSunSin@@V?$_Vector_const_iterator@V?$_Vector_val@UWoundedInfo@ioLeeSunSin@@V?$allocator@UWoundedInfo@ioLeeSunSin@@@std@@@std@@@1@0PAU23@@Z ENDP ; std::vector<ioLeeSunSin::WoundedInfo,std::allocator<ioLeeSunSin::WoundedInfo> >::_Ucopy<std::_Vector_const_iterator<std::_Vector_val<ioLeeSunSin::WoundedInfo,std::allocator<ioLeeSunSin::WoundedInfo> > > >
_TEXT	ENDS
PUBLIC	??$_Umove@PAVioHashString@@@?$vector@VioHashString@@V?$allocator@VioHashString@@@std@@@std@@IAEPAVioHashString@@PAV2@00@Z ; std::vector<ioHashString,std::allocator<ioHashString> >::_Umove<ioHashString *>
; Function compile flags: /Ogsp
;	COMDAT ??$_Umove@PAVioHashString@@@?$vector@VioHashString@@V?$allocator@VioHashString@@@std@@@std@@IAEPAVioHashString@@PAV2@00@Z
_TEXT	SEGMENT
__First$ = 8						; size = 4
__Last$ = 12						; size = 4
__Ptr$ = 16						; size = 4
??$_Umove@PAVioHashString@@@?$vector@VioHashString@@V?$allocator@VioHashString@@@std@@@std@@IAEPAVioHashString@@PAV2@00@Z PROC ; std::vector<ioHashString,std::allocator<ioHashString> >::_Umove<ioHashString *>, COMDAT
; _this$ = ecx

; 1322 : 		pointer _Umove(_Iter _First, _Iter _Last, pointer _Ptr)

  00000	55		 push	 ebp
  00001	8b ec		 mov	 ebp, esp

; 1323 : 		{	// move initializing [_First, _Last), using allocator
; 1324 : 		return (_Uninitialized_move(_First, _Last,
; 1325 : 			_Ptr, this->_Alval));

  00003	83 c1 0c	 add	 ecx, 12			; 0000000cH
  00006	51		 push	 ecx
  00007	ff 75 10	 push	 DWORD PTR __Ptr$[ebp]
  0000a	ff 75 0c	 push	 DWORD PTR __Last$[ebp]
  0000d	ff 75 08	 push	 DWORD PTR __First$[ebp]
  00010	e8 00 00 00 00	 call	 ??$_Uninitialized_move@PAVioHashString@@PAV1@V?$allocator@VioHashString@@@std@@@std@@YAPAVioHashString@@PAV1@00AAV?$allocator@VioHashString@@@0@@Z ; std::_Uninitialized_move<ioHashString *,ioHashString *,std::allocator<ioHashString> >
  00015	83 c4 10	 add	 esp, 16			; 00000010H

; 1326 : 		}

  00018	5d		 pop	 ebp
  00019	c2 0c 00	 ret	 12			; 0000000cH
??$_Umove@PAVioHashString@@@?$vector@VioHashString@@V?$allocator@VioHashString@@@std@@@std@@IAEPAVioHashString@@PAV2@00@Z ENDP ; std::vector<ioHashString,std::allocator<ioHashString> >::_Umove<ioHashString *>
_TEXT	ENDS
PUBLIC	??$_Umove@PAUWoundedInfo@ioLeeSunSin@@@?$vector@UWoundedInfo@ioLeeSunSin@@V?$allocator@UWoundedInfo@ioLeeSunSin@@@std@@@std@@IAEPAUWoundedInfo@ioLeeSunSin@@PAU23@00@Z ; std::vector<ioLeeSunSin::WoundedInfo,std::allocator<ioLeeSunSin::WoundedInfo> >::_Umove<ioLeeSunSin::WoundedInfo *>
; Function compile flags: /Ogsp
;	COMDAT ??$_Umove@PAUWoundedInfo@ioLeeSunSin@@@?$vector@UWoundedInfo@ioLeeSunSin@@V?$allocator@UWoundedInfo@ioLeeSunSin@@@std@@@std@@IAEPAUWoundedInfo@ioLeeSunSin@@PAU23@00@Z
_TEXT	SEGMENT
__First$ = 8						; size = 4
__Last$ = 12						; size = 4
__Ptr$ = 16						; size = 4
??$_Umove@PAUWoundedInfo@ioLeeSunSin@@@?$vector@UWoundedInfo@ioLeeSunSin@@V?$allocator@UWoundedInfo@ioLeeSunSin@@@std@@@std@@IAEPAUWoundedInfo@ioLeeSunSin@@PAU23@00@Z PROC ; std::vector<ioLeeSunSin::WoundedInfo,std::allocator<ioLeeSunSin::WoundedInfo> >::_Umove<ioLeeSunSin::WoundedInfo *>, COMDAT
; _this$ = ecx

; 1322 : 		pointer _Umove(_Iter _First, _Iter _Last, pointer _Ptr)

  00000	55		 push	 ebp
  00001	8b ec		 mov	 ebp, esp

; 1323 : 		{	// move initializing [_First, _Last), using allocator
; 1324 : 		return (_Uninitialized_move(_First, _Last,
; 1325 : 			_Ptr, this->_Alval));

  00003	83 c1 0c	 add	 ecx, 12			; 0000000cH
  00006	51		 push	 ecx
  00007	ff 75 10	 push	 DWORD PTR __Ptr$[ebp]
  0000a	ff 75 0c	 push	 DWORD PTR __Last$[ebp]
  0000d	ff 75 08	 push	 DWORD PTR __First$[ebp]
  00010	e8 00 00 00 00	 call	 ??$_Uninitialized_move@PAUWoundedInfo@ioLeeSunSin@@PAU12@V?$allocator@UWoundedInfo@ioLeeSunSin@@@std@@@std@@YAPAUWoundedInfo@ioLeeSunSin@@PAU12@00AAV?$allocator@UWoundedInfo@ioLeeSunSin@@@0@@Z ; std::_Uninitialized_move<ioLeeSunSin::WoundedInfo *,ioLeeSunSin::WoundedInfo *,std::allocator<ioLeeSunSin::WoundedInfo> >
  00015	83 c4 10	 add	 esp, 16			; 00000010H

; 1326 : 		}

  00018	5d		 pop	 ebp
  00019	c2 0c 00	 ret	 12			; 0000000cH
??$_Umove@PAUWoundedInfo@ioLeeSunSin@@@?$vector@UWoundedInfo@ioLeeSunSin@@V?$allocator@UWoundedInfo@ioLeeSunSin@@@std@@@std@@IAEPAUWoundedInfo@ioLeeSunSin@@PAU23@00@Z ENDP ; std::vector<ioLeeSunSin::WoundedInfo,std::allocator<ioLeeSunSin::WoundedInfo> >::_Umove<ioLeeSunSin::WoundedInfo *>
_TEXT	ENDS
PUBLIC	?_Tidy@?$vector@UForceInfo@@V?$allocator@UForceInfo@@@std@@@std@@IAEXXZ ; std::vector<ForceInfo,std::allocator<ForceInfo> >::_Tidy
EXTRN	__imp_?_Orphan_all@_Container_base0@std@@QAEXXZ:PROC
; Function compile flags: /Ogsp
;	COMDAT ?_Tidy@?$vector@UForceInfo@@V?$allocator@UForceInfo@@@std@@@std@@IAEXXZ
_TEXT	SEGMENT
?_Tidy@?$vector@UForceInfo@@V?$allocator@UForceInfo@@@std@@@std@@IAEXXZ PROC ; std::vector<ForceInfo,std::allocator<ForceInfo> >::_Tidy, COMDAT
; _this$ = ecx

; 1301 : 		{	// free all storage

  00000	56		 push	 esi
  00001	8b f1		 mov	 esi, ecx

; 1302 : 		if (this->_Myfirst != 0)

  00003	83 3e 00	 cmp	 DWORD PTR [esi], 0
  00006	74 0e		 je	 SHORT $LN21@Tidy

; 1303 : 			{	// something to free, destroy and deallocate it
; 1304 : 			this->_Orphan_all();

  00008	ff 15 00 00 00
	00		 call	 DWORD PTR __imp_?_Orphan_all@_Container_base0@std@@QAEXXZ

; 1305 : 			_Destroy(this->_Myfirst, this->_Mylast);
; 1306 : 			this->_Alval.deallocate(this->_Myfirst,
; 1307 : 				this->_Myend - this->_Myfirst);

  0000e	ff 36		 push	 DWORD PTR [esi]
  00010	e8 00 00 00 00	 call	 ??3@YAXPAX@Z		; operator delete
  00015	59		 pop	 ecx
$LN21@Tidy:

; 1308 : 			}
; 1309 : 		this->_Myfirst = 0;

  00016	83 26 00	 and	 DWORD PTR [esi], 0

; 1310 : 		this->_Mylast = 0;

  00019	83 66 04 00	 and	 DWORD PTR [esi+4], 0

; 1311 : 		this->_Myend = 0;

  0001d	83 66 08 00	 and	 DWORD PTR [esi+8], 0
  00021	5e		 pop	 esi

; 1312 : 		}

  00022	c3		 ret	 0
?_Tidy@?$vector@UForceInfo@@V?$allocator@UForceInfo@@@std@@@std@@IAEXXZ ENDP ; std::vector<ForceInfo,std::allocator<ForceInfo> >::_Tidy
_TEXT	ENDS
PUBLIC	?_Destroy@?$vector@VioHashString@@V?$allocator@VioHashString@@@std@@@std@@IAEXPAVioHashString@@0@Z ; std::vector<ioHashString,std::allocator<ioHashString> >::_Destroy
; Function compile flags: /Ogsp
;	COMDAT ?_Destroy@?$vector@VioHashString@@V?$allocator@VioHashString@@@std@@@std@@IAEXPAVioHashString@@0@Z
_TEXT	SEGMENT
__First$ = 8						; size = 4
__Last$ = 12						; size = 4
?_Destroy@?$vector@VioHashString@@V?$allocator@VioHashString@@@std@@@std@@IAEXPAVioHashString@@0@Z PROC ; std::vector<ioHashString,std::allocator<ioHashString> >::_Destroy, COMDAT
; _this$ = ecx

; 1269 : 		{	// destroy [_First, _Last) using allocator

  00000	55		 push	 ebp
  00001	8b ec		 mov	 ebp, esp
  00003	56		 push	 esi

; 1270 : 		_Destroy_range(_First, _Last, this->_Alval);

  00004	8b 75 08	 mov	 esi, DWORD PTR __First$[ebp]
  00007	eb 0b		 jmp	 SHORT $LN23@Destroy
$LL9@Destroy:
  00009	8b ce		 mov	 ecx, esi
  0000b	ff 15 00 00 00
	00		 call	 DWORD PTR __imp_??1ioHashString@@QAE@XZ
  00011	83 c6 10	 add	 esi, 16			; 00000010H
$LN23@Destroy:
  00014	3b 75 0c	 cmp	 esi, DWORD PTR __Last$[ebp]
  00017	75 f0		 jne	 SHORT $LL9@Destroy
  00019	5e		 pop	 esi

; 1271 : 		}

  0001a	5d		 pop	 ebp
  0001b	c2 08 00	 ret	 8
?_Destroy@?$vector@VioHashString@@V?$allocator@VioHashString@@@std@@@std@@IAEXPAVioHashString@@0@Z ENDP ; std::vector<ioHashString,std::allocator<ioHashString> >::_Destroy
_TEXT	ENDS
PUBLIC	?_Destroy@?$vector@UWeaponInfo@@V?$allocator@UWeaponInfo@@@std@@@std@@IAEXPAUWeaponInfo@@0@Z ; std::vector<WeaponInfo,std::allocator<WeaponInfo> >::_Destroy
; Function compile flags: /Ogsp
;	COMDAT ?_Destroy@?$vector@UWeaponInfo@@V?$allocator@UWeaponInfo@@@std@@@std@@IAEXPAUWeaponInfo@@0@Z
_TEXT	SEGMENT
__First$ = 8						; size = 4
__Last$ = 12						; size = 4
?_Destroy@?$vector@UWeaponInfo@@V?$allocator@UWeaponInfo@@@std@@@std@@IAEXPAUWeaponInfo@@0@Z PROC ; std::vector<WeaponInfo,std::allocator<WeaponInfo> >::_Destroy, COMDAT
; _this$ = ecx

; 1269 : 		{	// destroy [_First, _Last) using allocator

  00000	55		 push	 ebp
  00001	8b ec		 mov	 ebp, esp

; 1270 : 		_Destroy_range(_First, _Last, this->_Alval);

  00003	83 c1 0c	 add	 ecx, 12			; 0000000cH
  00006	51		 push	 ecx
  00007	ff 75 0c	 push	 DWORD PTR __Last$[ebp]
  0000a	ff 75 08	 push	 DWORD PTR __First$[ebp]
  0000d	e8 00 00 00 00	 call	 ??$_Destroy_range@V?$allocator@UWeaponInfo@@@std@@@std@@YAXPAUWeaponInfo@@0AAV?$allocator@UWeaponInfo@@@0@@Z ; std::_Destroy_range<std::allocator<WeaponInfo> >
  00012	83 c4 0c	 add	 esp, 12			; 0000000cH

; 1271 : 		}

  00015	5d		 pop	 ebp
  00016	c2 08 00	 ret	 8
?_Destroy@?$vector@UWeaponInfo@@V?$allocator@UWeaponInfo@@@std@@@std@@IAEXPAUWeaponInfo@@0@Z ENDP ; std::vector<WeaponInfo,std::allocator<WeaponInfo> >::_Destroy
_TEXT	ENDS
PUBLIC	??$_Ucopy@V?$_Vector_const_iterator@V?$_Vector_val@VioHashString@@V?$allocator@VioHashString@@@std@@@std@@@std@@@?$vector@VioHashString@@V?$allocator@VioHashString@@@std@@@std@@IAEPAVioHashString@@V?$_Vector_const_iterator@V?$_Vector_val@VioHashString@@V?$allocator@VioHashString@@@std@@@std@@@1@0PAV2@@Z ; std::vector<ioHashString,std::allocator<ioHashString> >::_Ucopy<std::_Vector_const_iterator<std::_Vector_val<ioHashString,std::allocator<ioHashString> > > >
; Function compile flags: /Ogsp
;	COMDAT ??$_Ucopy@V?$_Vector_const_iterator@V?$_Vector_val@VioHashString@@V?$allocator@VioHashString@@@std@@@std@@@std@@@?$vector@VioHashString@@V?$allocator@VioHashString@@@std@@@std@@IAEPAVioHashString@@V?$_Vector_const_iterator@V?$_Vector_val@VioHashString@@V?$allocator@VioHashString@@@std@@@std@@@1@0PAV2@@Z
_TEXT	SEGMENT
__First$ = 8						; size = 4
__Last$ = 12						; size = 4
__Cat$557919 = 16					; size = 1
__Ptr$ = 16						; size = 4
??$_Ucopy@V?$_Vector_const_iterator@V?$_Vector_val@VioHashString@@V?$allocator@VioHashString@@@std@@@std@@@std@@@?$vector@VioHashString@@V?$allocator@VioHashString@@@std@@@std@@IAEPAVioHashString@@V?$_Vector_const_iterator@V?$_Vector_val@VioHashString@@V?$allocator@VioHashString@@@std@@@std@@@1@0PAV2@@Z PROC ; std::vector<ioHashString,std::allocator<ioHashString> >::_Ucopy<std::_Vector_const_iterator<std::_Vector_val<ioHashString,std::allocator<ioHashString> > > >, COMDAT
; _this$ = ecx

; 1315 : 		pointer _Ucopy(_Iter _First, _Iter _Last, pointer _Ptr)

  00000	55		 push	 ebp
  00001	8b ec		 mov	 ebp, esp

; 1316 : 		{	// copy initializing [_First, _Last), using allocator
; 1317 : 		return (_Uninitialized_copy(_First, _Last,
; 1318 : 			_Ptr, this->_Alval));

  00003	ff 75 10	 push	 DWORD PTR __Cat$557919[ebp]
  00006	83 c1 0c	 add	 ecx, 12			; 0000000cH
  00009	51		 push	 ecx
  0000a	ff 75 10	 push	 DWORD PTR __Ptr$[ebp]
  0000d	ff 75 0c	 push	 DWORD PTR __Last$[ebp]
  00010	ff 75 08	 push	 DWORD PTR __First$[ebp]
  00013	e8 00 00 00 00	 call	 ??$_Uninit_copy@V?$_Vector_const_iterator@V?$_Vector_val@VioHashString@@V?$allocator@VioHashString@@@std@@@std@@@std@@PAVioHashString@@V?$allocator@VioHashString@@@2@@std@@YAPAVioHashString@@V?$_Vector_const_iterator@V?$_Vector_val@VioHashString@@V?$allocator@VioHashString@@@std@@@std@@@0@0PAV1@AAV?$allocator@VioHashString@@@0@U_Nonscalar_ptr_iterator_tag@0@@Z ; std::_Uninit_copy<std::_Vector_const_iterator<std::_Vector_val<ioHashString,std::allocator<ioHashString> > >,ioHashString *,std::allocator<ioHashString> >
  00018	83 c4 14	 add	 esp, 20			; 00000014H

; 1319 : 		}

  0001b	5d		 pop	 ebp
  0001c	c2 0c 00	 ret	 12			; 0000000cH
??$_Ucopy@V?$_Vector_const_iterator@V?$_Vector_val@VioHashString@@V?$allocator@VioHashString@@@std@@@std@@@std@@@?$vector@VioHashString@@V?$allocator@VioHashString@@@std@@@std@@IAEPAVioHashString@@V?$_Vector_const_iterator@V?$_Vector_val@VioHashString@@V?$allocator@VioHashString@@@std@@@std@@@1@0PAV2@@Z ENDP ; std::vector<ioHashString,std::allocator<ioHashString> >::_Ucopy<std::_Vector_const_iterator<std::_Vector_val<ioHashString,std::allocator<ioHashString> > > >
_TEXT	ENDS
PUBLIC	??0?$vector@UForceInfo@@V?$allocator@UForceInfo@@@std@@@std@@QAE@ABV01@@Z ; std::vector<ForceInfo,std::allocator<ForceInfo> >::vector<ForceInfo,std::allocator<ForceInfo> >
;	COMDAT xdata$x
; File c:\program files (x86)\microsoft visual studio 10.0\vc\include\xutility
xdata$x	SEGMENT
__catchsym$??0?$vector@UForceInfo@@V?$allocator@UForceInfo@@@std@@@std@@QAE@ABV01@@Z$2 DD 040H
	DD	00H
	DD	00H
	DD	FLAT:__catch$??0?$vector@UForceInfo@@V?$allocator@UForceInfo@@@std@@@std@@QAE@ABV01@@Z$0
__unwindtable$??0?$vector@UForceInfo@@V?$allocator@UForceInfo@@@std@@@std@@QAE@ABV01@@Z DD 0ffffffffH
	DD	00H
	DD	0ffffffffH
	DD	00H
__tryblocktable$??0?$vector@UForceInfo@@V?$allocator@UForceInfo@@@std@@@std@@QAE@ABV01@@Z DD 00H
	DD	00H
	DD	01H
	DD	01H
	DD	FLAT:__catchsym$??0?$vector@UForceInfo@@V?$allocator@UForceInfo@@@std@@@std@@QAE@ABV01@@Z$2
__ehfuncinfo$??0?$vector@UForceInfo@@V?$allocator@UForceInfo@@@std@@@std@@QAE@ABV01@@Z DD 019930522H
	DD	02H
	DD	FLAT:__unwindtable$??0?$vector@UForceInfo@@V?$allocator@UForceInfo@@@std@@@std@@QAE@ABV01@@Z
	DD	01H
	DD	FLAT:__tryblocktable$??0?$vector@UForceInfo@@V?$allocator@UForceInfo@@@std@@@std@@QAE@ABV01@@Z
	DD	2 DUP(00H)
	DD	00H
	DD	01H
; Function compile flags: /Ogsp
; File c:\program files (x86)\microsoft visual studio 10.0\vc\include\vector
xdata$x	ENDS
;	COMDAT ??0?$vector@UForceInfo@@V?$allocator@UForceInfo@@@std@@@std@@QAE@ABV01@@Z
_TEXT	SEGMENT
_this$ = -20						; size = 4
__$EHRec$ = -16						; size = 16
__Cat$558001 = 8					; size = 1
__Right$ = 8						; size = 4
??0?$vector@UForceInfo@@V?$allocator@UForceInfo@@@std@@@std@@QAE@ABV01@@Z PROC ; std::vector<ForceInfo,std::allocator<ForceInfo> >::vector<ForceInfo,std::allocator<ForceInfo> >, COMDAT
; _this$ = ecx

; 535  : 		{	// construct by copying _Right

  00000	6a 08		 push	 8
  00002	b8 00 00 00 00	 mov	 eax, __ehhandler$??0?$vector@UForceInfo@@V?$allocator@UForceInfo@@@std@@@std@@QAE@ABV01@@Z
  00007	e8 00 00 00 00	 call	 __EH_prolog3_catch
  0000c	8b f1		 mov	 esi, ecx
  0000e	89 75 ec	 mov	 DWORD PTR _this$[ebp], esi

; 536  : 		if (_Buy(_Right.size()))

  00011	8b 7d 08	 mov	 edi, DWORD PTR __Right$[ebp]
  00014	33 db		 xor	 ebx, ebx
  00016	89 1e		 mov	 DWORD PTR [esi], ebx
  00018	89 5e 04	 mov	 DWORD PTR [esi+4], ebx
  0001b	89 5e 08	 mov	 DWORD PTR [esi+8], ebx
  0001e	8b 47 04	 mov	 eax, DWORD PTR [edi+4]
  00021	2b 07		 sub	 eax, DWORD PTR [edi]
  00023	6a 0c		 push	 12			; 0000000cH
  00025	59		 pop	 ecx
  00026	99		 cdq
  00027	f7 f9		 idiv	 ecx
  00029	8b ce		 mov	 ecx, esi
  0002b	50		 push	 eax
  0002c	e8 00 00 00 00	 call	 ?_Buy@?$vector@UForceInfo@@V?$allocator@UForceInfo@@@std@@@std@@IAE_NI@Z ; std::vector<ForceInfo,std::allocator<ForceInfo> >::_Buy
  00031	84 c0		 test	 al, al
  00033	74 1f		 je	 SHORT $LN7@vector

; 537  : 			_TRY_BEGIN
; 538  : 			this->_Mylast = _Ucopy(_Right.begin(), _Right.end(),
; 539  : 				this->_Myfirst);

  00035	ff 75 08	 push	 DWORD PTR __Cat$558001[ebp]
  00038	8b 0e		 mov	 ecx, DWORD PTR [esi]
  0003a	8b 47 04	 mov	 eax, DWORD PTR [edi+4]
  0003d	8b 3f		 mov	 edi, DWORD PTR [edi]
  0003f	8d 56 0c	 lea	 edx, DWORD PTR [esi+12]
  00042	52		 push	 edx
  00043	51		 push	 ecx
  00044	50		 push	 eax
  00045	57		 push	 edi
  00046	89 5d fc	 mov	 DWORD PTR __$EHRec$[ebp+12], ebx
  00049	e8 00 00 00 00	 call	 ??$_Uninit_copy@V?$_Vector_const_iterator@V?$_Vector_val@UForceInfo@@V?$allocator@UForceInfo@@@std@@@std@@@std@@PAUForceInfo@@V?$allocator@UForceInfo@@@2@@std@@YAPAUForceInfo@@V?$_Vector_const_iterator@V?$_Vector_val@UForceInfo@@V?$allocator@UForceInfo@@@std@@@std@@@0@0PAU1@AAV?$allocator@UForceInfo@@@0@U_Nonscalar_ptr_iterator_tag@0@@Z ; std::_Uninit_copy<std::_Vector_const_iterator<std::_Vector_val<ForceInfo,std::allocator<ForceInfo> > >,ForceInfo *,std::allocator<ForceInfo> >
  0004e	83 c4 14	 add	 esp, 20			; 00000014H
  00051	89 46 04	 mov	 DWORD PTR [esi+4], eax
$LN7@vector:

; 543  : 			_CATCH_END
; 544  : 		}

  00054	8b c6		 mov	 eax, esi
  00056	e8 00 00 00 00	 call	 __EH_epilog3
  0005b	c2 04 00	 ret	 4
__catch$??0?$vector@UForceInfo@@V?$allocator@UForceInfo@@@std@@@std@@QAE@ABV01@@Z$0:

; 540  : 			_CATCH_ALL
; 541  : 			_Tidy();

  0005e	8b 4d ec	 mov	 ecx, DWORD PTR _this$[ebp]
  00061	e8 00 00 00 00	 call	 ?_Tidy@?$vector@UForceInfo@@V?$allocator@UForceInfo@@@std@@@std@@IAEXXZ ; std::vector<ForceInfo,std::allocator<ForceInfo> >::_Tidy

; 542  : 			_RERAISE;

  00066	33 db		 xor	 ebx, ebx
  00068	53		 push	 ebx
  00069	53		 push	 ebx
  0006a	e8 00 00 00 00	 call	 __CxxThrowException@8
$LN38@vector:
$LN37@vector:
  0006f	cc		 int	 3
_TEXT	ENDS
;	COMDAT text$x
text$x	SEGMENT
__ehhandler$??0?$vector@UForceInfo@@V?$allocator@UForceInfo@@@std@@@std@@QAE@ABV01@@Z:
  00000	8b 54 24 08	 mov	 edx, DWORD PTR [esp+8]
  00004	8d 42 0c	 lea	 eax, DWORD PTR [edx+12]
  00007	8b 4a e8	 mov	 ecx, DWORD PTR [edx-24]
  0000a	33 c8		 xor	 ecx, eax
  0000c	e8 00 00 00 00	 call	 @__security_check_cookie@4
  00011	b8 00 00 00 00	 mov	 eax, OFFSET __ehfuncinfo$??0?$vector@UForceInfo@@V?$allocator@UForceInfo@@@std@@@std@@QAE@ABV01@@Z
  00016	e9 00 00 00 00	 jmp	 ___CxxFrameHandler3
text$x	ENDS
??0?$vector@UForceInfo@@V?$allocator@UForceInfo@@@std@@@std@@QAE@ABV01@@Z ENDP ; std::vector<ForceInfo,std::allocator<ForceInfo> >::vector<ForceInfo,std::allocator<ForceInfo> >
PUBLIC	?_Tidy@?$vector@UWoundedInfo@ioLeeSunSin@@V?$allocator@UWoundedInfo@ioLeeSunSin@@@std@@@std@@IAEXXZ ; std::vector<ioLeeSunSin::WoundedInfo,std::allocator<ioLeeSunSin::WoundedInfo> >::_Tidy
; Function compile flags: /Ogsp
;	COMDAT ?_Tidy@?$vector@UWoundedInfo@ioLeeSunSin@@V?$allocator@UWoundedInfo@ioLeeSunSin@@@std@@@std@@IAEXXZ
_TEXT	SEGMENT
?_Tidy@?$vector@UWoundedInfo@ioLeeSunSin@@V?$allocator@UWoundedInfo@ioLeeSunSin@@@std@@@std@@IAEXXZ PROC ; std::vector<ioLeeSunSin::WoundedInfo,std::allocator<ioLeeSunSin::WoundedInfo> >::_Tidy, COMDAT
; _this$ = ecx

; 1301 : 		{	// free all storage

  00000	56		 push	 esi
  00001	8b f1		 mov	 esi, ecx

; 1302 : 		if (this->_Myfirst != 0)

  00003	83 3e 00	 cmp	 DWORD PTR [esi], 0
  00006	74 1e		 je	 SHORT $LN6@Tidy@2

; 1303 : 			{	// something to free, destroy and deallocate it
; 1304 : 			this->_Orphan_all();

  00008	ff 15 00 00 00
	00		 call	 DWORD PTR __imp_?_Orphan_all@_Container_base0@std@@QAEXXZ

; 1305 : 			_Destroy(this->_Myfirst, this->_Mylast);

  0000e	8d 46 0c	 lea	 eax, DWORD PTR [esi+12]
  00011	50		 push	 eax
  00012	ff 76 04	 push	 DWORD PTR [esi+4]
  00015	ff 36		 push	 DWORD PTR [esi]
  00017	e8 00 00 00 00	 call	 ??$_Destroy_range@V?$allocator@UWoundedInfo@ioLeeSunSin@@@std@@@std@@YAXPAUWoundedInfo@ioLeeSunSin@@0AAV?$allocator@UWoundedInfo@ioLeeSunSin@@@0@@Z ; std::_Destroy_range<std::allocator<ioLeeSunSin::WoundedInfo> >

; 1306 : 			this->_Alval.deallocate(this->_Myfirst,
; 1307 : 				this->_Myend - this->_Myfirst);

  0001c	ff 36		 push	 DWORD PTR [esi]
  0001e	e8 00 00 00 00	 call	 ??3@YAXPAX@Z		; operator delete
  00023	83 c4 10	 add	 esp, 16			; 00000010H
$LN6@Tidy@2:

; 1308 : 			}
; 1309 : 		this->_Myfirst = 0;

  00026	83 26 00	 and	 DWORD PTR [esi], 0

; 1310 : 		this->_Mylast = 0;

  00029	83 66 04 00	 and	 DWORD PTR [esi+4], 0

; 1311 : 		this->_Myend = 0;

  0002d	83 66 08 00	 and	 DWORD PTR [esi+8], 0
  00031	5e		 pop	 esi

; 1312 : 		}

  00032	c3		 ret	 0
?_Tidy@?$vector@UWoundedInfo@ioLeeSunSin@@V?$allocator@UWoundedInfo@ioLeeSunSin@@@std@@@std@@IAEXXZ ENDP ; std::vector<ioLeeSunSin::WoundedInfo,std::allocator<ioLeeSunSin::WoundedInfo> >::_Tidy
_TEXT	ENDS
PUBLIC	?reserve@?$vector@VioHashString@@V?$allocator@VioHashString@@@std@@@std@@QAEXI@Z ; std::vector<ioHashString,std::allocator<ioHashString> >::reserve
;	COMDAT xdata$x
; File c:\program files (x86)\microsoft visual studio 10.0\vc\include\xmemory
xdata$x	SEGMENT
__catchsym$?reserve@?$vector@VioHashString@@V?$allocator@VioHashString@@@std@@@std@@QAEXI@Z$2 DD 040H
	DD	00H
	DD	00H
	DD	FLAT:__catch$?reserve@?$vector@VioHashString@@V?$allocator@VioHashString@@@std@@@std@@QAEXI@Z$0
__unwindtable$?reserve@?$vector@VioHashString@@V?$allocator@VioHashString@@@std@@@std@@QAEXI@Z DD 0ffffffffH
	DD	00H
	DD	0ffffffffH
	DD	00H
__tryblocktable$?reserve@?$vector@VioHashString@@V?$allocator@VioHashString@@@std@@@std@@QAEXI@Z DD 00H
	DD	00H
	DD	01H
	DD	01H
	DD	FLAT:__catchsym$?reserve@?$vector@VioHashString@@V?$allocator@VioHashString@@@std@@@std@@QAEXI@Z$2
__ehfuncinfo$?reserve@?$vector@VioHashString@@V?$allocator@VioHashString@@@std@@@std@@QAEXI@Z DD 019930522H
	DD	02H
	DD	FLAT:__unwindtable$?reserve@?$vector@VioHashString@@V?$allocator@VioHashString@@@std@@@std@@QAEXI@Z
	DD	01H
	DD	FLAT:__tryblocktable$?reserve@?$vector@VioHashString@@V?$allocator@VioHashString@@@std@@@std@@QAEXI@Z
	DD	2 DUP(00H)
	DD	00H
	DD	01H
; Function compile flags: /Ogsp
; File c:\program files (x86)\microsoft visual studio 10.0\vc\include\vector
xdata$x	ENDS
;	COMDAT ?reserve@?$vector@VioHashString@@V?$allocator@VioHashString@@@std@@@std@@QAEXI@Z
_TEXT	SEGMENT
tv300 = -24						; size = 4
__Ptr$550541 = -20					; size = 4
__$EHRec$ = -16						; size = 16
$T558124 = 8						; size = 4
__Count$ = 8						; size = 4
?reserve@?$vector@VioHashString@@V?$allocator@VioHashString@@@std@@@std@@QAEXI@Z PROC ; std::vector<ioHashString,std::allocator<ioHashString> >::reserve, COMDAT
; _this$ = ecx

; 746  : 		{	// determine new minimum length of allocated storage

  00000	6a 0c		 push	 12			; 0000000cH
  00002	b8 00 00 00 00	 mov	 eax, __ehhandler$?reserve@?$vector@VioHashString@@V?$allocator@VioHashString@@@std@@@std@@QAEXI@Z
  00007	e8 00 00 00 00	 call	 __EH_prolog3_catch
  0000c	8b f1		 mov	 esi, ecx

; 747  : 		if (max_size() < _Count)

  0000e	8b 5d 08	 mov	 ebx, DWORD PTR __Count$[ebp]
  00011	81 fb ff ff ff
	0f		 cmp	 ebx, 268435455		; 0fffffffH
  00017	76 0b		 jbe	 SHORT $LN5@reserve

; 748  : 			_Xlen();	// result too long

  00019	68 00 00 00 00	 push	 OFFSET ??_C@_0BD@OLBABOEK@vector?$DMT?$DO?5too?5long?$AA@
  0001e	ff 15 00 00 00
	00		 call	 DWORD PTR __imp_?_Xlength_error@std@@YAXPBD@Z
$LN59@reserve:
$LN5@reserve:

; 749  : 		else if (capacity() < _Count)

  00024	8b 46 08	 mov	 eax, DWORD PTR [esi+8]
  00027	2b 06		 sub	 eax, DWORD PTR [esi]
  00029	c1 f8 04	 sar	 eax, 4
  0002c	3b c3		 cmp	 eax, ebx
  0002e	73 7a		 jae	 SHORT $LN3@reserve

; 750  : 			{	// not enough room, reallocate
; 751  : 			pointer _Ptr = this->_Alval.allocate(_Count);

  00030	6a 00		 push	 0
  00032	53		 push	 ebx
  00033	e8 00 00 00 00	 call	 ??$_Allocate@VioHashString@@@std@@YAPAVioHashString@@IPAV1@@Z ; std::_Allocate<ioHashString>

; 752  : 
; 753  : 			_TRY_BEGIN
; 754  : 			_Umove(this->_Myfirst, this->_Mylast, _Ptr);

  00038	8b 0e		 mov	 ecx, DWORD PTR [esi]
  0003a	83 65 fc 00	 and	 DWORD PTR __$EHRec$[ebp+12], 0
  0003e	8d 56 0c	 lea	 edx, DWORD PTR [esi+12]
  00041	52		 push	 edx
  00042	89 45 ec	 mov	 DWORD PTR __Ptr$550541[ebp], eax
  00045	ff 75 ec	 push	 DWORD PTR __Ptr$550541[ebp]
  00048	8b 46 04	 mov	 eax, DWORD PTR [esi+4]
  0004b	50		 push	 eax
  0004c	51		 push	 ecx
  0004d	e8 00 00 00 00	 call	 ??$_Uninitialized_move@PAVioHashString@@PAV1@V?$allocator@VioHashString@@@std@@@std@@YAPAVioHashString@@PAV1@00AAV?$allocator@VioHashString@@@0@@Z ; std::_Uninitialized_move<ioHashString *,ioHashString *,std::allocator<ioHashString> >

; 758  : 			_CATCH_END
; 759  : 
; 760  : 			size_type _Size = size();

  00052	8b 4e 04	 mov	 ecx, DWORD PTR [esi+4]
  00055	8b 06		 mov	 eax, DWORD PTR [esi]
  00057	83 4d fc ff	 or	 DWORD PTR __$EHRec$[ebp+12], -1
  0005b	8b f9		 mov	 edi, ecx
  0005d	83 c4 18	 add	 esp, 24			; 00000018H
  00060	2b f8		 sub	 edi, eax
  00062	89 4d e8	 mov	 DWORD PTR tv300[ebp], ecx
  00065	85 c0		 test	 eax, eax
  00067	74 24		 je	 SHORT $LN51@reserve

; 761  : 			if (this->_Myfirst != 0)
; 762  : 				{	// destroy and deallocate old array
; 763  : 				_Destroy(this->_Myfirst, this->_Mylast);

  00069	89 45 08	 mov	 DWORD PTR $T558124[ebp], eax
  0006c	3b c1		 cmp	 eax, ecx
  0006e	74 15		 je	 SHORT $LN37@reserve
$LN39@reserve:
  00070	8b 4d 08	 mov	 ecx, DWORD PTR $T558124[ebp]
  00073	ff 15 00 00 00
	00		 call	 DWORD PTR __imp_??1ioHashString@@QAE@XZ
  00079	83 45 08 10	 add	 DWORD PTR $T558124[ebp], 16 ; 00000010H
  0007d	8b 45 08	 mov	 eax, DWORD PTR $T558124[ebp]
  00080	3b 45 e8	 cmp	 eax, DWORD PTR tv300[ebp]
  00083	75 eb		 jne	 SHORT $LN39@reserve
$LN37@reserve:

; 764  : 				this->_Alval.deallocate(this->_Myfirst,
; 765  : 					this->_Myend - this->_Myfirst);

  00085	ff 36		 push	 DWORD PTR [esi]
  00087	e8 00 00 00 00	 call	 ??3@YAXPAX@Z		; operator delete
  0008c	59		 pop	 ecx
$LN51@reserve:

; 766  : 				}
; 767  : 
; 768  : 			this->_Orphan_all();

  0008d	8b ce		 mov	 ecx, esi
  0008f	ff 15 00 00 00
	00		 call	 DWORD PTR __imp_?_Orphan_all@_Container_base0@std@@QAEXXZ

; 769  : 			this->_Myend = _Ptr + _Count;

  00095	8b 45 ec	 mov	 eax, DWORD PTR __Ptr$550541[ebp]
  00098	c1 e3 04	 shl	 ebx, 4
  0009b	03 d8		 add	 ebx, eax

; 770  : 			this->_Mylast = _Ptr + _Size;

  0009d	83 e7 f0	 and	 edi, -16		; fffffff0H
  000a0	03 f8		 add	 edi, eax
  000a2	89 5e 08	 mov	 DWORD PTR [esi+8], ebx
  000a5	89 7e 04	 mov	 DWORD PTR [esi+4], edi

; 771  : 			this->_Myfirst = _Ptr;

  000a8	89 06		 mov	 DWORD PTR [esi], eax
$LN3@reserve:

; 772  : 			}
; 773  : 		}

  000aa	e8 00 00 00 00	 call	 __EH_epilog3
  000af	c2 04 00	 ret	 4
__catch$?reserve@?$vector@VioHashString@@V?$allocator@VioHashString@@@std@@@std@@QAEXI@Z$0:

; 755  : 			_CATCH_ALL
; 756  : 			this->_Alval.deallocate(_Ptr, _Count);

  000b2	ff 75 ec	 push	 DWORD PTR __Ptr$550541[ebp]
  000b5	e8 00 00 00 00	 call	 ??3@YAXPAX@Z		; operator delete
  000ba	59		 pop	 ecx

; 757  : 			_RERAISE;

  000bb	6a 00		 push	 0
  000bd	6a 00		 push	 0
  000bf	e8 00 00 00 00	 call	 __CxxThrowException@8
$LN60@reserve:
$LN58@reserve:
  000c4	cc		 int	 3
_TEXT	ENDS
;	COMDAT text$x
text$x	SEGMENT
__ehhandler$?reserve@?$vector@VioHashString@@V?$allocator@VioHashString@@@std@@@std@@QAEXI@Z:
  00000	8b 54 24 08	 mov	 edx, DWORD PTR [esp+8]
  00004	8d 42 0c	 lea	 eax, DWORD PTR [edx+12]
  00007	8b 4a e4	 mov	 ecx, DWORD PTR [edx-28]
  0000a	33 c8		 xor	 ecx, eax
  0000c	e8 00 00 00 00	 call	 @__security_check_cookie@4
  00011	b8 00 00 00 00	 mov	 eax, OFFSET __ehfuncinfo$?reserve@?$vector@VioHashString@@V?$allocator@VioHashString@@@std@@@std@@QAEXI@Z
  00016	e9 00 00 00 00	 jmp	 ___CxxFrameHandler3
text$x	ENDS
?reserve@?$vector@VioHashString@@V?$allocator@VioHashString@@@std@@@std@@QAEXI@Z ENDP ; std::vector<ioHashString,std::allocator<ioHashString> >::reserve
PUBLIC	?reserve@?$vector@UWoundedInfo@ioLeeSunSin@@V?$allocator@UWoundedInfo@ioLeeSunSin@@@std@@@std@@QAEXI@Z ; std::vector<ioLeeSunSin::WoundedInfo,std::allocator<ioLeeSunSin::WoundedInfo> >::reserve
;	COMDAT xdata$x
; File c:\program files (x86)\microsoft visual studio 10.0\vc\include\xmemory
xdata$x	SEGMENT
__catchsym$?reserve@?$vector@UWoundedInfo@ioLeeSunSin@@V?$allocator@UWoundedInfo@ioLeeSunSin@@@std@@@std@@QAEXI@Z$2 DD 040H
	DD	00H
	DD	00H
	DD	FLAT:__catch$?reserve@?$vector@UWoundedInfo@ioLeeSunSin@@V?$allocator@UWoundedInfo@ioLeeSunSin@@@std@@@std@@QAEXI@Z$0
__unwindtable$?reserve@?$vector@UWoundedInfo@ioLeeSunSin@@V?$allocator@UWoundedInfo@ioLeeSunSin@@@std@@@std@@QAEXI@Z DD 0ffffffffH
	DD	00H
	DD	0ffffffffH
	DD	00H
__tryblocktable$?reserve@?$vector@UWoundedInfo@ioLeeSunSin@@V?$allocator@UWoundedInfo@ioLeeSunSin@@@std@@@std@@QAEXI@Z DD 00H
	DD	00H
	DD	01H
	DD	01H
	DD	FLAT:__catchsym$?reserve@?$vector@UWoundedInfo@ioLeeSunSin@@V?$allocator@UWoundedInfo@ioLeeSunSin@@@std@@@std@@QAEXI@Z$2
__ehfuncinfo$?reserve@?$vector@UWoundedInfo@ioLeeSunSin@@V?$allocator@UWoundedInfo@ioLeeSunSin@@@std@@@std@@QAEXI@Z DD 019930522H
	DD	02H
	DD	FLAT:__unwindtable$?reserve@?$vector@UWoundedInfo@ioLeeSunSin@@V?$allocator@UWoundedInfo@ioLeeSunSin@@@std@@@std@@QAEXI@Z
	DD	01H
	DD	FLAT:__tryblocktable$?reserve@?$vector@UWoundedInfo@ioLeeSunSin@@V?$allocator@UWoundedInfo@ioLeeSunSin@@@std@@@std@@QAEXI@Z
	DD	2 DUP(00H)
	DD	00H
	DD	01H
; Function compile flags: /Ogsp
; File c:\program files (x86)\microsoft visual studio 10.0\vc\include\vector
xdata$x	ENDS
;	COMDAT ?reserve@?$vector@UWoundedInfo@ioLeeSunSin@@V?$allocator@UWoundedInfo@ioLeeSunSin@@@std@@@std@@QAEXI@Z
_TEXT	SEGMENT
__$EHRec$ = -16						; size = 16
__Ptr$550559 = 8					; size = 4
__Count$ = 8						; size = 4
?reserve@?$vector@UWoundedInfo@ioLeeSunSin@@V?$allocator@UWoundedInfo@ioLeeSunSin@@@std@@@std@@QAEXI@Z PROC ; std::vector<ioLeeSunSin::WoundedInfo,std::allocator<ioLeeSunSin::WoundedInfo> >::reserve, COMDAT
; _this$ = ecx

; 746  : 		{	// determine new minimum length of allocated storage

  00000	6a 04		 push	 4
  00002	b8 00 00 00 00	 mov	 eax, __ehhandler$?reserve@?$vector@UWoundedInfo@ioLeeSunSin@@V?$allocator@UWoundedInfo@ioLeeSunSin@@@std@@@std@@QAEXI@Z
  00007	e8 00 00 00 00	 call	 __EH_prolog3_catch
  0000c	8b f1		 mov	 esi, ecx

; 747  : 		if (max_size() < _Count)

  0000e	8b 5d 08	 mov	 ebx, DWORD PTR __Count$[ebp]
  00011	81 fb ff ff ff
	07		 cmp	 ebx, 134217727		; 07ffffffH
  00017	76 0b		 jbe	 SHORT $LN5@reserve@2

; 748  : 			_Xlen();	// result too long

  00019	68 00 00 00 00	 push	 OFFSET ??_C@_0BD@OLBABOEK@vector?$DMT?$DO?5too?5long?$AA@
  0001e	ff 15 00 00 00
	00		 call	 DWORD PTR __imp_?_Xlength_error@std@@YAXPBD@Z
$LN38@reserve@2:
$LN5@reserve@2:

; 749  : 		else if (capacity() < _Count)

  00024	8b 46 08	 mov	 eax, DWORD PTR [esi+8]
  00027	2b 06		 sub	 eax, DWORD PTR [esi]
  00029	c1 f8 05	 sar	 eax, 5
  0002c	3b c3		 cmp	 eax, ebx
  0002e	73 68		 jae	 SHORT $LN3@reserve@2

; 750  : 			{	// not enough room, reallocate
; 751  : 			pointer _Ptr = this->_Alval.allocate(_Count);

  00030	6a 00		 push	 0
  00032	53		 push	 ebx
  00033	e8 00 00 00 00	 call	 ??$_Allocate@UWoundedInfo@ioLeeSunSin@@@std@@YAPAUWoundedInfo@ioLeeSunSin@@IPAU12@@Z ; std::_Allocate<ioLeeSunSin::WoundedInfo>

; 752  : 
; 753  : 			_TRY_BEGIN
; 754  : 			_Umove(this->_Myfirst, this->_Mylast, _Ptr);

  00038	8b 0e		 mov	 ecx, DWORD PTR [esi]
  0003a	83 65 fc 00	 and	 DWORD PTR __$EHRec$[ebp+12], 0
  0003e	8d 56 0c	 lea	 edx, DWORD PTR [esi+12]
  00041	52		 push	 edx
  00042	89 45 08	 mov	 DWORD PTR __Ptr$550559[ebp], eax
  00045	ff 75 08	 push	 DWORD PTR __Ptr$550559[ebp]
  00048	8b 46 04	 mov	 eax, DWORD PTR [esi+4]
  0004b	50		 push	 eax
  0004c	51		 push	 ecx
  0004d	e8 00 00 00 00	 call	 ??$_Uninitialized_move@PAUWoundedInfo@ioLeeSunSin@@PAU12@V?$allocator@UWoundedInfo@ioLeeSunSin@@@std@@@std@@YAPAUWoundedInfo@ioLeeSunSin@@PAU12@00AAV?$allocator@UWoundedInfo@ioLeeSunSin@@@0@@Z ; std::_Uninitialized_move<ioLeeSunSin::WoundedInfo *,ioLeeSunSin::WoundedInfo *,std::allocator<ioLeeSunSin::WoundedInfo> >

; 758  : 			_CATCH_END
; 759  : 
; 760  : 			size_type _Size = size();

  00052	8b 4e 04	 mov	 ecx, DWORD PTR [esi+4]
  00055	8b 06		 mov	 eax, DWORD PTR [esi]
  00057	83 4d fc ff	 or	 DWORD PTR __$EHRec$[ebp+12], -1
  0005b	8b f9		 mov	 edi, ecx
  0005d	83 c4 18	 add	 esp, 24			; 00000018H
  00060	2b f8		 sub	 edi, eax
  00062	85 c0		 test	 eax, eax
  00064	74 15		 je	 SHORT $LN33@reserve@2

; 761  : 			if (this->_Myfirst != 0)
; 762  : 				{	// destroy and deallocate old array
; 763  : 				_Destroy(this->_Myfirst, this->_Mylast);

  00066	8d 56 0c	 lea	 edx, DWORD PTR [esi+12]
  00069	52		 push	 edx
  0006a	51		 push	 ecx
  0006b	50		 push	 eax
  0006c	e8 00 00 00 00	 call	 ??$_Destroy_range@V?$allocator@UWoundedInfo@ioLeeSunSin@@@std@@@std@@YAXPAUWoundedInfo@ioLeeSunSin@@0AAV?$allocator@UWoundedInfo@ioLeeSunSin@@@0@@Z ; std::_Destroy_range<std::allocator<ioLeeSunSin::WoundedInfo> >

; 764  : 				this->_Alval.deallocate(this->_Myfirst,
; 765  : 					this->_Myend - this->_Myfirst);

  00071	ff 36		 push	 DWORD PTR [esi]
  00073	e8 00 00 00 00	 call	 ??3@YAXPAX@Z		; operator delete
  00078	83 c4 10	 add	 esp, 16			; 00000010H
$LN33@reserve@2:

; 766  : 				}
; 767  : 
; 768  : 			this->_Orphan_all();

  0007b	8b ce		 mov	 ecx, esi
  0007d	ff 15 00 00 00
	00		 call	 DWORD PTR __imp_?_Orphan_all@_Container_base0@std@@QAEXXZ

; 769  : 			this->_Myend = _Ptr + _Count;

  00083	8b 45 08	 mov	 eax, DWORD PTR __Ptr$550559[ebp]
  00086	c1 e3 05	 shl	 ebx, 5
  00089	03 d8		 add	 ebx, eax

; 770  : 			this->_Mylast = _Ptr + _Size;

  0008b	83 e7 e0	 and	 edi, -32		; ffffffe0H
  0008e	03 f8		 add	 edi, eax
  00090	89 5e 08	 mov	 DWORD PTR [esi+8], ebx
  00093	89 7e 04	 mov	 DWORD PTR [esi+4], edi

; 771  : 			this->_Myfirst = _Ptr;

  00096	89 06		 mov	 DWORD PTR [esi], eax
$LN3@reserve@2:

; 772  : 			}
; 773  : 		}

  00098	e8 00 00 00 00	 call	 __EH_epilog3
  0009d	c2 04 00	 ret	 4
__catch$?reserve@?$vector@UWoundedInfo@ioLeeSunSin@@V?$allocator@UWoundedInfo@ioLeeSunSin@@@std@@@std@@QAEXI@Z$0:

; 755  : 			_CATCH_ALL
; 756  : 			this->_Alval.deallocate(_Ptr, _Count);

  000a0	ff 75 08	 push	 DWORD PTR __Ptr$550559[ebp]
  000a3	e8 00 00 00 00	 call	 ??3@YAXPAX@Z		; operator delete
  000a8	59		 pop	 ecx

; 757  : 			_RERAISE;

  000a9	6a 00		 push	 0
  000ab	6a 00		 push	 0
  000ad	e8 00 00 00 00	 call	 __CxxThrowException@8
$LN39@reserve@2:
$LN37@reserve@2:
  000b2	cc		 int	 3
_TEXT	ENDS
;	COMDAT text$x
text$x	SEGMENT
__ehhandler$?reserve@?$vector@UWoundedInfo@ioLeeSunSin@@V?$allocator@UWoundedInfo@ioLeeSunSin@@@std@@@std@@QAEXI@Z:
  00000	8b 54 24 08	 mov	 edx, DWORD PTR [esp+8]
  00004	8d 42 0c	 lea	 eax, DWORD PTR [edx+12]
  00007	8b 4a ec	 mov	 ecx, DWORD PTR [edx-20]
  0000a	33 c8		 xor	 ecx, eax
  0000c	e8 00 00 00 00	 call	 @__security_check_cookie@4
  00011	b8 00 00 00 00	 mov	 eax, OFFSET __ehfuncinfo$?reserve@?$vector@UWoundedInfo@ioLeeSunSin@@V?$allocator@UWoundedInfo@ioLeeSunSin@@@std@@@std@@QAEXI@Z
  00016	e9 00 00 00 00	 jmp	 ___CxxFrameHandler3
text$x	ENDS
?reserve@?$vector@UWoundedInfo@ioLeeSunSin@@V?$allocator@UWoundedInfo@ioLeeSunSin@@@std@@@std@@QAEXI@Z ENDP ; std::vector<ioLeeSunSin::WoundedInfo,std::allocator<ioLeeSunSin::WoundedInfo> >::reserve
PUBLIC	??1?$vector@UForceInfo@@V?$allocator@UForceInfo@@@std@@@std@@QAE@XZ ; std::vector<ForceInfo,std::allocator<ForceInfo> >::~vector<ForceInfo,std::allocator<ForceInfo> >
; Function compile flags: /Ogsp
;	COMDAT ??1?$vector@UForceInfo@@V?$allocator@UForceInfo@@@std@@@std@@QAE@XZ
_TEXT	SEGMENT
??1?$vector@UForceInfo@@V?$allocator@UForceInfo@@@std@@@std@@QAE@XZ PROC ; std::vector<ForceInfo,std::allocator<ForceInfo> >::~vector<ForceInfo,std::allocator<ForceInfo> >, COMDAT
; _this$ = ecx

; 705  : 		_Tidy();

  00000	e9 00 00 00 00	 jmp	 ?_Tidy@?$vector@UForceInfo@@V?$allocator@UForceInfo@@@std@@@std@@IAEXXZ ; std::vector<ForceInfo,std::allocator<ForceInfo> >::_Tidy
??1?$vector@UForceInfo@@V?$allocator@UForceInfo@@@std@@@std@@QAE@XZ ENDP ; std::vector<ForceInfo,std::allocator<ForceInfo> >::~vector<ForceInfo,std::allocator<ForceInfo> >
_TEXT	ENDS
PUBLIC	?_Tidy@?$vector@VioHashString@@V?$allocator@VioHashString@@@std@@@std@@IAEXXZ ; std::vector<ioHashString,std::allocator<ioHashString> >::_Tidy
; Function compile flags: /Ogsp
;	COMDAT ?_Tidy@?$vector@VioHashString@@V?$allocator@VioHashString@@@std@@@std@@IAEXXZ
_TEXT	SEGMENT
?_Tidy@?$vector@VioHashString@@V?$allocator@VioHashString@@@std@@@std@@IAEXXZ PROC ; std::vector<ioHashString,std::allocator<ioHashString> >::_Tidy, COMDAT
; _this$ = ecx

; 1301 : 		{	// free all storage

  00000	56		 push	 esi
  00001	8b f1		 mov	 esi, ecx

; 1302 : 		if (this->_Myfirst != 0)

  00003	83 3e 00	 cmp	 DWORD PTR [esi], 0
  00006	74 28		 je	 SHORT $LN24@Tidy@3

; 1303 : 			{	// something to free, destroy and deallocate it
; 1304 : 			this->_Orphan_all();

  00008	53		 push	 ebx
  00009	57		 push	 edi
  0000a	ff 15 00 00 00
	00		 call	 DWORD PTR __imp_?_Orphan_all@_Container_base0@std@@QAEXXZ

; 1305 : 			_Destroy(this->_Myfirst, this->_Mylast);

  00010	8b 5e 04	 mov	 ebx, DWORD PTR [esi+4]
  00013	8b 3e		 mov	 edi, DWORD PTR [esi]
  00015	eb 0b		 jmp	 SHORT $LN28@Tidy@3
$LL12@Tidy@3:
  00017	8b cf		 mov	 ecx, edi
  00019	ff 15 00 00 00
	00		 call	 DWORD PTR __imp_??1ioHashString@@QAE@XZ
  0001f	83 c7 10	 add	 edi, 16			; 00000010H
$LN28@Tidy@3:
  00022	3b fb		 cmp	 edi, ebx
  00024	75 f1		 jne	 SHORT $LL12@Tidy@3

; 1306 : 			this->_Alval.deallocate(this->_Myfirst,
; 1307 : 				this->_Myend - this->_Myfirst);

  00026	ff 36		 push	 DWORD PTR [esi]
  00028	e8 00 00 00 00	 call	 ??3@YAXPAX@Z		; operator delete
  0002d	59		 pop	 ecx
  0002e	5f		 pop	 edi
  0002f	5b		 pop	 ebx
$LN24@Tidy@3:

; 1308 : 			}
; 1309 : 		this->_Myfirst = 0;

  00030	33 c0		 xor	 eax, eax
  00032	89 06		 mov	 DWORD PTR [esi], eax

; 1310 : 		this->_Mylast = 0;

  00034	89 46 04	 mov	 DWORD PTR [esi+4], eax

; 1311 : 		this->_Myend = 0;

  00037	89 46 08	 mov	 DWORD PTR [esi+8], eax
  0003a	5e		 pop	 esi

; 1312 : 		}

  0003b	c3		 ret	 0
?_Tidy@?$vector@VioHashString@@V?$allocator@VioHashString@@@std@@@std@@IAEXXZ ENDP ; std::vector<ioHashString,std::allocator<ioHashString> >::_Tidy
_TEXT	ENDS
PUBLIC	?_Tidy@?$vector@UWeaponInfo@@V?$allocator@UWeaponInfo@@@std@@@std@@IAEXXZ ; std::vector<WeaponInfo,std::allocator<WeaponInfo> >::_Tidy
; Function compile flags: /Ogsp
;	COMDAT ?_Tidy@?$vector@UWeaponInfo@@V?$allocator@UWeaponInfo@@@std@@@std@@IAEXXZ
_TEXT	SEGMENT
?_Tidy@?$vector@UWeaponInfo@@V?$allocator@UWeaponInfo@@@std@@@std@@IAEXXZ PROC ; std::vector<WeaponInfo,std::allocator<WeaponInfo> >::_Tidy, COMDAT
; _this$ = ecx

; 1301 : 		{	// free all storage

  00000	56		 push	 esi
  00001	8b f1		 mov	 esi, ecx

; 1302 : 		if (this->_Myfirst != 0)

  00003	83 3e 00	 cmp	 DWORD PTR [esi], 0
  00006	74 1e		 je	 SHORT $LN6@Tidy@4

; 1303 : 			{	// something to free, destroy and deallocate it
; 1304 : 			this->_Orphan_all();

  00008	ff 15 00 00 00
	00		 call	 DWORD PTR __imp_?_Orphan_all@_Container_base0@std@@QAEXXZ

; 1305 : 			_Destroy(this->_Myfirst, this->_Mylast);

  0000e	8d 46 0c	 lea	 eax, DWORD PTR [esi+12]
  00011	50		 push	 eax
  00012	ff 76 04	 push	 DWORD PTR [esi+4]
  00015	ff 36		 push	 DWORD PTR [esi]
  00017	e8 00 00 00 00	 call	 ??$_Destroy_range@V?$allocator@UWeaponInfo@@@std@@@std@@YAXPAUWeaponInfo@@0AAV?$allocator@UWeaponInfo@@@0@@Z ; std::_Destroy_range<std::allocator<WeaponInfo> >

; 1306 : 			this->_Alval.deallocate(this->_Myfirst,
; 1307 : 				this->_Myend - this->_Myfirst);

  0001c	ff 36		 push	 DWORD PTR [esi]
  0001e	e8 00 00 00 00	 call	 ??3@YAXPAX@Z		; operator delete
  00023	83 c4 10	 add	 esp, 16			; 00000010H
$LN6@Tidy@4:

; 1308 : 			}
; 1309 : 		this->_Myfirst = 0;

  00026	83 26 00	 and	 DWORD PTR [esi], 0

; 1310 : 		this->_Mylast = 0;

  00029	83 66 04 00	 and	 DWORD PTR [esi+4], 0

; 1311 : 		this->_Myend = 0;

  0002d	83 66 08 00	 and	 DWORD PTR [esi+8], 0
  00031	5e		 pop	 esi

; 1312 : 		}

  00032	c3		 ret	 0
?_Tidy@?$vector@UWeaponInfo@@V?$allocator@UWeaponInfo@@@std@@@std@@IAEXXZ ENDP ; std::vector<WeaponInfo,std::allocator<WeaponInfo> >::_Tidy
_TEXT	ENDS
PUBLIC	??0?$vector@UWeaponInfo@@V?$allocator@UWeaponInfo@@@std@@@std@@QAE@ABV01@@Z ; std::vector<WeaponInfo,std::allocator<WeaponInfo> >::vector<WeaponInfo,std::allocator<WeaponInfo> >
;	COMDAT xdata$x
; File c:\program files (x86)\microsoft visual studio 10.0\vc\include\xutility
xdata$x	SEGMENT
__catchsym$??0?$vector@UWeaponInfo@@V?$allocator@UWeaponInfo@@@std@@@std@@QAE@ABV01@@Z$2 DD 040H
	DD	00H
	DD	00H
	DD	FLAT:__catch$??0?$vector@UWeaponInfo@@V?$allocator@UWeaponInfo@@@std@@@std@@QAE@ABV01@@Z$0
__unwindtable$??0?$vector@UWeaponInfo@@V?$allocator@UWeaponInfo@@@std@@@std@@QAE@ABV01@@Z DD 0ffffffffH
	DD	00H
	DD	0ffffffffH
	DD	00H
__tryblocktable$??0?$vector@UWeaponInfo@@V?$allocator@UWeaponInfo@@@std@@@std@@QAE@ABV01@@Z DD 00H
	DD	00H
	DD	01H
	DD	01H
	DD	FLAT:__catchsym$??0?$vector@UWeaponInfo@@V?$allocator@UWeaponInfo@@@std@@@std@@QAE@ABV01@@Z$2
__ehfuncinfo$??0?$vector@UWeaponInfo@@V?$allocator@UWeaponInfo@@@std@@@std@@QAE@ABV01@@Z DD 019930522H
	DD	02H
	DD	FLAT:__unwindtable$??0?$vector@UWeaponInfo@@V?$allocator@UWeaponInfo@@@std@@@std@@QAE@ABV01@@Z
	DD	01H
	DD	FLAT:__tryblocktable$??0?$vector@UWeaponInfo@@V?$allocator@UWeaponInfo@@@std@@@std@@QAE@ABV01@@Z
	DD	2 DUP(00H)
	DD	00H
	DD	01H
; Function compile flags: /Ogsp
; File c:\program files (x86)\microsoft visual studio 10.0\vc\include\vector
xdata$x	ENDS
;	COMDAT ??0?$vector@UWeaponInfo@@V?$allocator@UWeaponInfo@@@std@@@std@@QAE@ABV01@@Z
_TEXT	SEGMENT
_this$ = -20						; size = 4
__$EHRec$ = -16						; size = 16
__Cat$558457 = 8					; size = 1
__Right$ = 8						; size = 4
??0?$vector@UWeaponInfo@@V?$allocator@UWeaponInfo@@@std@@@std@@QAE@ABV01@@Z PROC ; std::vector<WeaponInfo,std::allocator<WeaponInfo> >::vector<WeaponInfo,std::allocator<WeaponInfo> >, COMDAT
; _this$ = ecx

; 535  : 		{	// construct by copying _Right

  00000	6a 08		 push	 8
  00002	b8 00 00 00 00	 mov	 eax, __ehhandler$??0?$vector@UWeaponInfo@@V?$allocator@UWeaponInfo@@@std@@@std@@QAE@ABV01@@Z
  00007	e8 00 00 00 00	 call	 __EH_prolog3_catch
  0000c	8b f1		 mov	 esi, ecx
  0000e	89 75 ec	 mov	 DWORD PTR _this$[ebp], esi

; 536  : 		if (_Buy(_Right.size()))

  00011	8b 7d 08	 mov	 edi, DWORD PTR __Right$[ebp]
  00014	33 db		 xor	 ebx, ebx
  00016	89 1e		 mov	 DWORD PTR [esi], ebx
  00018	89 5e 04	 mov	 DWORD PTR [esi+4], ebx
  0001b	89 5e 08	 mov	 DWORD PTR [esi+8], ebx
  0001e	8b 47 04	 mov	 eax, DWORD PTR [edi+4]
  00021	2b 07		 sub	 eax, DWORD PTR [edi]
  00023	6a 28		 push	 40			; 00000028H
  00025	59		 pop	 ecx
  00026	99		 cdq
  00027	f7 f9		 idiv	 ecx
  00029	8b ce		 mov	 ecx, esi
  0002b	50		 push	 eax
  0002c	e8 00 00 00 00	 call	 ?_Buy@?$vector@UWeaponInfo@@V?$allocator@UWeaponInfo@@@std@@@std@@IAE_NI@Z ; std::vector<WeaponInfo,std::allocator<WeaponInfo> >::_Buy
  00031	84 c0		 test	 al, al
  00033	74 1f		 je	 SHORT $LN7@vector@2

; 537  : 			_TRY_BEGIN
; 538  : 			this->_Mylast = _Ucopy(_Right.begin(), _Right.end(),
; 539  : 				this->_Myfirst);

  00035	ff 75 08	 push	 DWORD PTR __Cat$558457[ebp]
  00038	8b 0e		 mov	 ecx, DWORD PTR [esi]
  0003a	8b 47 04	 mov	 eax, DWORD PTR [edi+4]
  0003d	8b 3f		 mov	 edi, DWORD PTR [edi]
  0003f	8d 56 0c	 lea	 edx, DWORD PTR [esi+12]
  00042	52		 push	 edx
  00043	51		 push	 ecx
  00044	50		 push	 eax
  00045	57		 push	 edi
  00046	89 5d fc	 mov	 DWORD PTR __$EHRec$[ebp+12], ebx
  00049	e8 00 00 00 00	 call	 ??$_Uninit_copy@V?$_Vector_const_iterator@V?$_Vector_val@UWeaponInfo@@V?$allocator@UWeaponInfo@@@std@@@std@@@std@@PAUWeaponInfo@@V?$allocator@UWeaponInfo@@@2@@std@@YAPAUWeaponInfo@@V?$_Vector_const_iterator@V?$_Vector_val@UWeaponInfo@@V?$allocator@UWeaponInfo@@@std@@@std@@@0@0PAU1@AAV?$allocator@UWeaponInfo@@@0@U_Nonscalar_ptr_iterator_tag@0@@Z ; std::_Uninit_copy<std::_Vector_const_iterator<std::_Vector_val<WeaponInfo,std::allocator<WeaponInfo> > >,WeaponInfo *,std::allocator<WeaponInfo> >
  0004e	83 c4 14	 add	 esp, 20			; 00000014H
  00051	89 46 04	 mov	 DWORD PTR [esi+4], eax
$LN7@vector@2:

; 543  : 			_CATCH_END
; 544  : 		}

  00054	8b c6		 mov	 eax, esi
  00056	e8 00 00 00 00	 call	 __EH_epilog3
  0005b	c2 04 00	 ret	 4
__catch$??0?$vector@UWeaponInfo@@V?$allocator@UWeaponInfo@@@std@@@std@@QAE@ABV01@@Z$0:

; 540  : 			_CATCH_ALL
; 541  : 			_Tidy();

  0005e	8b 4d ec	 mov	 ecx, DWORD PTR _this$[ebp]
  00061	e8 00 00 00 00	 call	 ?_Tidy@?$vector@UWeaponInfo@@V?$allocator@UWeaponInfo@@@std@@@std@@IAEXXZ ; std::vector<WeaponInfo,std::allocator<WeaponInfo> >::_Tidy

; 542  : 			_RERAISE;

  00066	33 db		 xor	 ebx, ebx
  00068	53		 push	 ebx
  00069	53		 push	 ebx
  0006a	e8 00 00 00 00	 call	 __CxxThrowException@8
$LN38@vector@2:
$LN37@vector@2:
  0006f	cc		 int	 3
_TEXT	ENDS
;	COMDAT text$x
text$x	SEGMENT
__ehhandler$??0?$vector@UWeaponInfo@@V?$allocator@UWeaponInfo@@@std@@@std@@QAE@ABV01@@Z:
  00000	8b 54 24 08	 mov	 edx, DWORD PTR [esp+8]
  00004	8d 42 0c	 lea	 eax, DWORD PTR [edx+12]
  00007	8b 4a e8	 mov	 ecx, DWORD PTR [edx-24]
  0000a	33 c8		 xor	 ecx, eax
  0000c	e8 00 00 00 00	 call	 @__security_check_cookie@4
  00011	b8 00 00 00 00	 mov	 eax, OFFSET __ehfuncinfo$??0?$vector@UWeaponInfo@@V?$allocator@UWeaponInfo@@@std@@@std@@QAE@ABV01@@Z
  00016	e9 00 00 00 00	 jmp	 ___CxxFrameHandler3
text$x	ENDS
??0?$vector@UWeaponInfo@@V?$allocator@UWeaponInfo@@@std@@@std@@QAE@ABV01@@Z ENDP ; std::vector<WeaponInfo,std::allocator<WeaponInfo> >::vector<WeaponInfo,std::allocator<WeaponInfo> >
PUBLIC	??0?$vector@UWoundedInfo@ioLeeSunSin@@V?$allocator@UWoundedInfo@ioLeeSunSin@@@std@@@std@@QAE@ABV01@@Z ; std::vector<ioLeeSunSin::WoundedInfo,std::allocator<ioLeeSunSin::WoundedInfo> >::vector<ioLeeSunSin::WoundedInfo,std::allocator<ioLeeSunSin::WoundedInfo> >
;	COMDAT xdata$x
; File c:\program files (x86)\microsoft visual studio 10.0\vc\include\xutility
xdata$x	SEGMENT
__catchsym$??0?$vector@UWoundedInfo@ioLeeSunSin@@V?$allocator@UWoundedInfo@ioLeeSunSin@@@std@@@std@@QAE@ABV01@@Z$2 DD 040H
	DD	00H
	DD	00H
	DD	FLAT:__catch$??0?$vector@UWoundedInfo@ioLeeSunSin@@V?$allocator@UWoundedInfo@ioLeeSunSin@@@std@@@std@@QAE@ABV01@@Z$0
__unwindtable$??0?$vector@UWoundedInfo@ioLeeSunSin@@V?$allocator@UWoundedInfo@ioLeeSunSin@@@std@@@std@@QAE@ABV01@@Z DD 0ffffffffH
	DD	00H
	DD	0ffffffffH
	DD	00H
__tryblocktable$??0?$vector@UWoundedInfo@ioLeeSunSin@@V?$allocator@UWoundedInfo@ioLeeSunSin@@@std@@@std@@QAE@ABV01@@Z DD 00H
	DD	00H
	DD	01H
	DD	01H
	DD	FLAT:__catchsym$??0?$vector@UWoundedInfo@ioLeeSunSin@@V?$allocator@UWoundedInfo@ioLeeSunSin@@@std@@@std@@QAE@ABV01@@Z$2
__ehfuncinfo$??0?$vector@UWoundedInfo@ioLeeSunSin@@V?$allocator@UWoundedInfo@ioLeeSunSin@@@std@@@std@@QAE@ABV01@@Z DD 019930522H
	DD	02H
	DD	FLAT:__unwindtable$??0?$vector@UWoundedInfo@ioLeeSunSin@@V?$allocator@UWoundedInfo@ioLeeSunSin@@@std@@@std@@QAE@ABV01@@Z
	DD	01H
	DD	FLAT:__tryblocktable$??0?$vector@UWoundedInfo@ioLeeSunSin@@V?$allocator@UWoundedInfo@ioLeeSunSin@@@std@@@std@@QAE@ABV01@@Z
	DD	2 DUP(00H)
	DD	00H
	DD	01H
; Function compile flags: /Ogsp
; File c:\program files (x86)\microsoft visual studio 10.0\vc\include\vector
xdata$x	ENDS
;	COMDAT ??0?$vector@UWoundedInfo@ioLeeSunSin@@V?$allocator@UWoundedInfo@ioLeeSunSin@@@std@@@std@@QAE@ABV01@@Z
_TEXT	SEGMENT
_this$ = -20						; size = 4
__$EHRec$ = -16						; size = 16
__Cat$558553 = 8					; size = 1
__Right$ = 8						; size = 4
??0?$vector@UWoundedInfo@ioLeeSunSin@@V?$allocator@UWoundedInfo@ioLeeSunSin@@@std@@@std@@QAE@ABV01@@Z PROC ; std::vector<ioLeeSunSin::WoundedInfo,std::allocator<ioLeeSunSin::WoundedInfo> >::vector<ioLeeSunSin::WoundedInfo,std::allocator<ioLeeSunSin::WoundedInfo> >, COMDAT
; _this$ = ecx

; 535  : 		{	// construct by copying _Right

  00000	6a 08		 push	 8
  00002	b8 00 00 00 00	 mov	 eax, __ehhandler$??0?$vector@UWoundedInfo@ioLeeSunSin@@V?$allocator@UWoundedInfo@ioLeeSunSin@@@std@@@std@@QAE@ABV01@@Z
  00007	e8 00 00 00 00	 call	 __EH_prolog3_catch
  0000c	8b f1		 mov	 esi, ecx
  0000e	89 75 ec	 mov	 DWORD PTR _this$[ebp], esi

; 536  : 		if (_Buy(_Right.size()))

  00011	8b 7d 08	 mov	 edi, DWORD PTR __Right$[ebp]
  00014	33 db		 xor	 ebx, ebx
  00016	89 1e		 mov	 DWORD PTR [esi], ebx
  00018	89 5e 04	 mov	 DWORD PTR [esi+4], ebx
  0001b	89 5e 08	 mov	 DWORD PTR [esi+8], ebx
  0001e	8b 47 04	 mov	 eax, DWORD PTR [edi+4]
  00021	2b 07		 sub	 eax, DWORD PTR [edi]
  00023	c1 f8 05	 sar	 eax, 5
  00026	50		 push	 eax
  00027	e8 00 00 00 00	 call	 ?_Buy@?$vector@UWoundedInfo@ioLeeSunSin@@V?$allocator@UWoundedInfo@ioLeeSunSin@@@std@@@std@@IAE_NI@Z ; std::vector<ioLeeSunSin::WoundedInfo,std::allocator<ioLeeSunSin::WoundedInfo> >::_Buy
  0002c	84 c0		 test	 al, al
  0002e	74 1f		 je	 SHORT $LN7@vector@3

; 537  : 			_TRY_BEGIN
; 538  : 			this->_Mylast = _Ucopy(_Right.begin(), _Right.end(),
; 539  : 				this->_Myfirst);

  00030	ff 75 08	 push	 DWORD PTR __Cat$558553[ebp]
  00033	8b 0e		 mov	 ecx, DWORD PTR [esi]
  00035	8b 47 04	 mov	 eax, DWORD PTR [edi+4]
  00038	8b 3f		 mov	 edi, DWORD PTR [edi]
  0003a	8d 56 0c	 lea	 edx, DWORD PTR [esi+12]
  0003d	52		 push	 edx
  0003e	51		 push	 ecx
  0003f	50		 push	 eax
  00040	57		 push	 edi
  00041	89 5d fc	 mov	 DWORD PTR __$EHRec$[ebp+12], ebx
  00044	e8 00 00 00 00	 call	 ??$_Uninit_copy@V?$_Vector_const_iterator@V?$_Vector_val@UWoundedInfo@ioLeeSunSin@@V?$allocator@UWoundedInfo@ioLeeSunSin@@@std@@@std@@@std@@PAUWoundedInfo@ioLeeSunSin@@V?$allocator@UWoundedInfo@ioLeeSunSin@@@2@@std@@YAPAUWoundedInfo@ioLeeSunSin@@V?$_Vector_const_iterator@V?$_Vector_val@UWoundedInfo@ioLeeSunSin@@V?$allocator@UWoundedInfo@ioLeeSunSin@@@std@@@std@@@0@0PAU12@AAV?$allocator@UWoundedInfo@ioLeeSunSin@@@0@U_Nonscalar_ptr_iterator_tag@0@@Z ; std::_Uninit_copy<std::_Vector_const_iterator<std::_Vector_val<ioLeeSunSin::WoundedInfo,std::allocator<ioLeeSunSin::WoundedInfo> > >,ioLeeSunSin::WoundedInfo *,std::allocator<ioLeeSunSin::WoundedInfo> >
  00049	83 c4 14	 add	 esp, 20			; 00000014H
  0004c	89 46 04	 mov	 DWORD PTR [esi+4], eax
$LN7@vector@3:

; 543  : 			_CATCH_END
; 544  : 		}

  0004f	8b c6		 mov	 eax, esi
  00051	e8 00 00 00 00	 call	 __EH_epilog3
  00056	c2 04 00	 ret	 4
__catch$??0?$vector@UWoundedInfo@ioLeeSunSin@@V?$allocator@UWoundedInfo@ioLeeSunSin@@@std@@@std@@QAE@ABV01@@Z$0:

; 540  : 			_CATCH_ALL
; 541  : 			_Tidy();

  00059	8b 4d ec	 mov	 ecx, DWORD PTR _this$[ebp]
  0005c	e8 00 00 00 00	 call	 ?_Tidy@?$vector@UWoundedInfo@ioLeeSunSin@@V?$allocator@UWoundedInfo@ioLeeSunSin@@@std@@@std@@IAEXXZ ; std::vector<ioLeeSunSin::WoundedInfo,std::allocator<ioLeeSunSin::WoundedInfo> >::_Tidy

; 542  : 			_RERAISE;

  00061	33 db		 xor	 ebx, ebx
  00063	53		 push	 ebx
  00064	53		 push	 ebx
  00065	e8 00 00 00 00	 call	 __CxxThrowException@8
$LN38@vector@3:
$LN37@vector@3:
  0006a	cc		 int	 3
_TEXT	ENDS
;	COMDAT text$x
text$x	SEGMENT
__ehhandler$??0?$vector@UWoundedInfo@ioLeeSunSin@@V?$allocator@UWoundedInfo@ioLeeSunSin@@@std@@@std@@QAE@ABV01@@Z:
  00000	8b 54 24 08	 mov	 edx, DWORD PTR [esp+8]
  00004	8d 42 0c	 lea	 eax, DWORD PTR [edx+12]
  00007	8b 4a e8	 mov	 ecx, DWORD PTR [edx-24]
  0000a	33 c8		 xor	 ecx, eax
  0000c	e8 00 00 00 00	 call	 @__security_check_cookie@4
  00011	b8 00 00 00 00	 mov	 eax, OFFSET __ehfuncinfo$??0?$vector@UWoundedInfo@ioLeeSunSin@@V?$allocator@UWoundedInfo@ioLeeSunSin@@@std@@@std@@QAE@ABV01@@Z
  00016	e9 00 00 00 00	 jmp	 ___CxxFrameHandler3
text$x	ENDS
??0?$vector@UWoundedInfo@ioLeeSunSin@@V?$allocator@UWoundedInfo@ioLeeSunSin@@@std@@@std@@QAE@ABV01@@Z ENDP ; std::vector<ioLeeSunSin::WoundedInfo,std::allocator<ioLeeSunSin::WoundedInfo> >::vector<ioLeeSunSin::WoundedInfo,std::allocator<ioLeeSunSin::WoundedInfo> >
PUBLIC	??1?$vector@UWoundedInfo@ioLeeSunSin@@V?$allocator@UWoundedInfo@ioLeeSunSin@@@std@@@std@@QAE@XZ ; std::vector<ioLeeSunSin::WoundedInfo,std::allocator<ioLeeSunSin::WoundedInfo> >::~vector<ioLeeSunSin::WoundedInfo,std::allocator<ioLeeSunSin::WoundedInfo> >
; Function compile flags: /Ogsp
;	COMDAT ??1?$vector@UWoundedInfo@ioLeeSunSin@@V?$allocator@UWoundedInfo@ioLeeSunSin@@@std@@@std@@QAE@XZ
_TEXT	SEGMENT
??1?$vector@UWoundedInfo@ioLeeSunSin@@V?$allocator@UWoundedInfo@ioLeeSunSin@@@std@@@std@@QAE@XZ PROC ; std::vector<ioLeeSunSin::WoundedInfo,std::allocator<ioLeeSunSin::WoundedInfo> >::~vector<ioLeeSunSin::WoundedInfo,std::allocator<ioLeeSunSin::WoundedInfo> >, COMDAT
; _this$ = ecx

; 705  : 		_Tidy();

  00000	e9 00 00 00 00	 jmp	 ?_Tidy@?$vector@UWoundedInfo@ioLeeSunSin@@V?$allocator@UWoundedInfo@ioLeeSunSin@@@std@@@std@@IAEXXZ ; std::vector<ioLeeSunSin::WoundedInfo,std::allocator<ioLeeSunSin::WoundedInfo> >::_Tidy
??1?$vector@UWoundedInfo@ioLeeSunSin@@V?$allocator@UWoundedInfo@ioLeeSunSin@@@std@@@std@@QAE@XZ ENDP ; std::vector<ioLeeSunSin::WoundedInfo,std::allocator<ioLeeSunSin::WoundedInfo> >::~vector<ioLeeSunSin::WoundedInfo,std::allocator<ioLeeSunSin::WoundedInfo> >
_TEXT	ENDS
PUBLIC	?_Reserve@?$vector@VioHashString@@V?$allocator@VioHashString@@@std@@@std@@IAEXI@Z ; std::vector<ioHashString,std::allocator<ioHashString> >::_Reserve
; Function compile flags: /Ogsp
;	COMDAT ?_Reserve@?$vector@VioHashString@@V?$allocator@VioHashString@@@std@@@std@@IAEXI@Z
_TEXT	SEGMENT
__Count$ = 8						; size = 4
?_Reserve@?$vector@VioHashString@@V?$allocator@VioHashString@@@std@@@std@@IAEXI@Z PROC ; std::vector<ioHashString,std::allocator<ioHashString> >::_Reserve, COMDAT
; _this$ = ecx

; 1290 : 		{	// ensure room for _Count new elements, grow exponentially

  00000	55		 push	 ebp
  00001	8b ec		 mov	 ebp, esp
  00003	56		 push	 esi
  00004	8b f1		 mov	 esi, ecx

; 1291 : 		size_type _Size = size();

  00006	8b 0e		 mov	 ecx, DWORD PTR [esi]
  00008	8b 46 04	 mov	 eax, DWORD PTR [esi+4]
  0000b	2b c1		 sub	 eax, ecx

; 1292 : 		if (max_size() - _Count < _Size)

  0000d	ba ff ff ff 0f	 mov	 edx, 268435455		; 0fffffffH
  00012	2b 55 08	 sub	 edx, DWORD PTR __Count$[ebp]
  00015	c1 f8 04	 sar	 eax, 4
  00018	3b d0		 cmp	 edx, eax
  0001a	73 0b		 jae	 SHORT $LN4@Reserve

; 1293 : 			_Xlen();

  0001c	68 00 00 00 00	 push	 OFFSET ??_C@_0BD@OLBABOEK@vector?$DMT?$DO?5too?5long?$AA@
  00021	ff 15 00 00 00
	00		 call	 DWORD PTR __imp_?_Xlength_error@std@@YAXPBD@Z
$LN21@Reserve:
$LN4@Reserve:

; 1294 : 		else if ((_Size += _Count) <= capacity())

  00027	8b 56 08	 mov	 edx, DWORD PTR [esi+8]
  0002a	03 45 08	 add	 eax, DWORD PTR __Count$[ebp]
  0002d	2b d1		 sub	 edx, ecx
  0002f	c1 fa 04	 sar	 edx, 4
  00032	3b c2		 cmp	 eax, edx
  00034	76 10		 jbe	 SHORT $LN1@Reserve

; 1295 : 			;
; 1296 : 		else
; 1297 : 			reserve(_Grow_to(_Size));

  00036	50		 push	 eax
  00037	8b ce		 mov	 ecx, esi
  00039	e8 00 00 00 00	 call	 ?_Grow_to@?$vector@VioHashString@@V?$allocator@VioHashString@@@std@@@std@@IBEII@Z ; std::vector<ioHashString,std::allocator<ioHashString> >::_Grow_to
  0003e	50		 push	 eax
  0003f	8b ce		 mov	 ecx, esi
  00041	e8 00 00 00 00	 call	 ?reserve@?$vector@VioHashString@@V?$allocator@VioHashString@@@std@@@std@@QAEXI@Z ; std::vector<ioHashString,std::allocator<ioHashString> >::reserve
$LN1@Reserve:
  00046	5e		 pop	 esi

; 1298 : 		}

  00047	5d		 pop	 ebp
  00048	c2 04 00	 ret	 4
$LN20@Reserve:
?_Reserve@?$vector@VioHashString@@V?$allocator@VioHashString@@@std@@@std@@IAEXI@Z ENDP ; std::vector<ioHashString,std::allocator<ioHashString> >::_Reserve
_TEXT	ENDS
PUBLIC	?_Reserve@?$vector@UWoundedInfo@ioLeeSunSin@@V?$allocator@UWoundedInfo@ioLeeSunSin@@@std@@@std@@IAEXI@Z ; std::vector<ioLeeSunSin::WoundedInfo,std::allocator<ioLeeSunSin::WoundedInfo> >::_Reserve
; Function compile flags: /Ogsp
;	COMDAT ?_Reserve@?$vector@UWoundedInfo@ioLeeSunSin@@V?$allocator@UWoundedInfo@ioLeeSunSin@@@std@@@std@@IAEXI@Z
_TEXT	SEGMENT
__Count$ = 8						; size = 4
?_Reserve@?$vector@UWoundedInfo@ioLeeSunSin@@V?$allocator@UWoundedInfo@ioLeeSunSin@@@std@@@std@@IAEXI@Z PROC ; std::vector<ioLeeSunSin::WoundedInfo,std::allocator<ioLeeSunSin::WoundedInfo> >::_Reserve, COMDAT
; _this$ = ecx

; 1290 : 		{	// ensure room for _Count new elements, grow exponentially

  00000	55		 push	 ebp
  00001	8b ec		 mov	 ebp, esp
  00003	56		 push	 esi
  00004	8b f1		 mov	 esi, ecx

; 1291 : 		size_type _Size = size();

  00006	8b 0e		 mov	 ecx, DWORD PTR [esi]
  00008	8b 46 04	 mov	 eax, DWORD PTR [esi+4]
  0000b	2b c1		 sub	 eax, ecx

; 1292 : 		if (max_size() - _Count < _Size)

  0000d	ba ff ff ff 07	 mov	 edx, 134217727		; 07ffffffH
  00012	2b 55 08	 sub	 edx, DWORD PTR __Count$[ebp]
  00015	c1 f8 05	 sar	 eax, 5
  00018	3b d0		 cmp	 edx, eax
  0001a	73 0b		 jae	 SHORT $LN4@Reserve@2

; 1293 : 			_Xlen();

  0001c	68 00 00 00 00	 push	 OFFSET ??_C@_0BD@OLBABOEK@vector?$DMT?$DO?5too?5long?$AA@
  00021	ff 15 00 00 00
	00		 call	 DWORD PTR __imp_?_Xlength_error@std@@YAXPBD@Z
$LN21@Reserve@2:
$LN4@Reserve@2:

; 1294 : 		else if ((_Size += _Count) <= capacity())

  00027	8b 56 08	 mov	 edx, DWORD PTR [esi+8]
  0002a	03 45 08	 add	 eax, DWORD PTR __Count$[ebp]
  0002d	2b d1		 sub	 edx, ecx
  0002f	c1 fa 05	 sar	 edx, 5
  00032	3b c2		 cmp	 eax, edx
  00034	76 10		 jbe	 SHORT $LN1@Reserve@2

; 1295 : 			;
; 1296 : 		else
; 1297 : 			reserve(_Grow_to(_Size));

  00036	50		 push	 eax
  00037	8b ce		 mov	 ecx, esi
  00039	e8 00 00 00 00	 call	 ?_Grow_to@?$vector@UWoundedInfo@ioLeeSunSin@@V?$allocator@UWoundedInfo@ioLeeSunSin@@@std@@@std@@IBEII@Z ; std::vector<ioLeeSunSin::WoundedInfo,std::allocator<ioLeeSunSin::WoundedInfo> >::_Grow_to
  0003e	50		 push	 eax
  0003f	8b ce		 mov	 ecx, esi
  00041	e8 00 00 00 00	 call	 ?reserve@?$vector@UWoundedInfo@ioLeeSunSin@@V?$allocator@UWoundedInfo@ioLeeSunSin@@@std@@@std@@QAEXI@Z ; std::vector<ioLeeSunSin::WoundedInfo,std::allocator<ioLeeSunSin::WoundedInfo> >::reserve
$LN1@Reserve@2:
  00046	5e		 pop	 esi

; 1298 : 		}

  00047	5d		 pop	 ebp
  00048	c2 04 00	 ret	 4
$LN20@Reserve@2:
?_Reserve@?$vector@UWoundedInfo@ioLeeSunSin@@V?$allocator@UWoundedInfo@ioLeeSunSin@@@std@@@std@@IAEXI@Z ENDP ; std::vector<ioLeeSunSin::WoundedInfo,std::allocator<ioLeeSunSin::WoundedInfo> >::_Reserve
_TEXT	ENDS
PUBLIC	??0?$vector@VioHashString@@V?$allocator@VioHashString@@@std@@@std@@QAE@ABV01@@Z ; std::vector<ioHashString,std::allocator<ioHashString> >::vector<ioHashString,std::allocator<ioHashString> >
;	COMDAT xdata$x
; File c:\program files (x86)\microsoft visual studio 10.0\vc\include\xutility
xdata$x	SEGMENT
__catchsym$??0?$vector@VioHashString@@V?$allocator@VioHashString@@@std@@@std@@QAE@ABV01@@Z$2 DD 040H
	DD	00H
	DD	00H
	DD	FLAT:__catch$??0?$vector@VioHashString@@V?$allocator@VioHashString@@@std@@@std@@QAE@ABV01@@Z$0
__unwindtable$??0?$vector@VioHashString@@V?$allocator@VioHashString@@@std@@@std@@QAE@ABV01@@Z DD 0ffffffffH
	DD	00H
	DD	0ffffffffH
	DD	00H
__tryblocktable$??0?$vector@VioHashString@@V?$allocator@VioHashString@@@std@@@std@@QAE@ABV01@@Z DD 00H
	DD	00H
	DD	01H
	DD	01H
	DD	FLAT:__catchsym$??0?$vector@VioHashString@@V?$allocator@VioHashString@@@std@@@std@@QAE@ABV01@@Z$2
__ehfuncinfo$??0?$vector@VioHashString@@V?$allocator@VioHashString@@@std@@@std@@QAE@ABV01@@Z DD 019930522H
	DD	02H
	DD	FLAT:__unwindtable$??0?$vector@VioHashString@@V?$allocator@VioHashString@@@std@@@std@@QAE@ABV01@@Z
	DD	01H
	DD	FLAT:__tryblocktable$??0?$vector@VioHashString@@V?$allocator@VioHashString@@@std@@@std@@QAE@ABV01@@Z
	DD	2 DUP(00H)
	DD	00H
	DD	01H
; Function compile flags: /Ogsp
; File c:\program files (x86)\microsoft visual studio 10.0\vc\include\vector
xdata$x	ENDS
;	COMDAT ??0?$vector@VioHashString@@V?$allocator@VioHashString@@@std@@@std@@QAE@ABV01@@Z
_TEXT	SEGMENT
_this$ = -20						; size = 4
__$EHRec$ = -16						; size = 16
__Cat$558715 = 8					; size = 1
__Right$ = 8						; size = 4
??0?$vector@VioHashString@@V?$allocator@VioHashString@@@std@@@std@@QAE@ABV01@@Z PROC ; std::vector<ioHashString,std::allocator<ioHashString> >::vector<ioHashString,std::allocator<ioHashString> >, COMDAT
; _this$ = ecx

; 535  : 		{	// construct by copying _Right

  00000	6a 08		 push	 8
  00002	b8 00 00 00 00	 mov	 eax, __ehhandler$??0?$vector@VioHashString@@V?$allocator@VioHashString@@@std@@@std@@QAE@ABV01@@Z
  00007	e8 00 00 00 00	 call	 __EH_prolog3_catch
  0000c	8b f1		 mov	 esi, ecx
  0000e	89 75 ec	 mov	 DWORD PTR _this$[ebp], esi

; 536  : 		if (_Buy(_Right.size()))

  00011	8b 7d 08	 mov	 edi, DWORD PTR __Right$[ebp]
  00014	33 db		 xor	 ebx, ebx
  00016	89 1e		 mov	 DWORD PTR [esi], ebx
  00018	89 5e 04	 mov	 DWORD PTR [esi+4], ebx
  0001b	89 5e 08	 mov	 DWORD PTR [esi+8], ebx
  0001e	8b 47 04	 mov	 eax, DWORD PTR [edi+4]
  00021	2b 07		 sub	 eax, DWORD PTR [edi]
  00023	c1 f8 04	 sar	 eax, 4
  00026	50		 push	 eax
  00027	e8 00 00 00 00	 call	 ?_Buy@?$vector@VioHashString@@V?$allocator@VioHashString@@@std@@@std@@IAE_NI@Z ; std::vector<ioHashString,std::allocator<ioHashString> >::_Buy
  0002c	84 c0		 test	 al, al
  0002e	74 1f		 je	 SHORT $LN7@vector@4

; 537  : 			_TRY_BEGIN
; 538  : 			this->_Mylast = _Ucopy(_Right.begin(), _Right.end(),
; 539  : 				this->_Myfirst);

  00030	ff 75 08	 push	 DWORD PTR __Cat$558715[ebp]
  00033	8b 0e		 mov	 ecx, DWORD PTR [esi]
  00035	8b 47 04	 mov	 eax, DWORD PTR [edi+4]
  00038	8b 3f		 mov	 edi, DWORD PTR [edi]
  0003a	8d 56 0c	 lea	 edx, DWORD PTR [esi+12]
  0003d	52		 push	 edx
  0003e	51		 push	 ecx
  0003f	50		 push	 eax
  00040	57		 push	 edi
  00041	89 5d fc	 mov	 DWORD PTR __$EHRec$[ebp+12], ebx
  00044	e8 00 00 00 00	 call	 ??$_Uninit_copy@V?$_Vector_const_iterator@V?$_Vector_val@VioHashString@@V?$allocator@VioHashString@@@std@@@std@@@std@@PAVioHashString@@V?$allocator@VioHashString@@@2@@std@@YAPAVioHashString@@V?$_Vector_const_iterator@V?$_Vector_val@VioHashString@@V?$allocator@VioHashString@@@std@@@std@@@0@0PAV1@AAV?$allocator@VioHashString@@@0@U_Nonscalar_ptr_iterator_tag@0@@Z ; std::_Uninit_copy<std::_Vector_const_iterator<std::_Vector_val<ioHashString,std::allocator<ioHashString> > >,ioHashString *,std::allocator<ioHashString> >
  00049	83 c4 14	 add	 esp, 20			; 00000014H
  0004c	89 46 04	 mov	 DWORD PTR [esi+4], eax
$LN7@vector@4:

; 543  : 			_CATCH_END
; 544  : 		}

  0004f	8b c6		 mov	 eax, esi
  00051	e8 00 00 00 00	 call	 __EH_epilog3
  00056	c2 04 00	 ret	 4
__catch$??0?$vector@VioHashString@@V?$allocator@VioHashString@@@std@@@std@@QAE@ABV01@@Z$0:

; 540  : 			_CATCH_ALL
; 541  : 			_Tidy();

  00059	8b 4d ec	 mov	 ecx, DWORD PTR _this$[ebp]
  0005c	e8 00 00 00 00	 call	 ?_Tidy@?$vector@VioHashString@@V?$allocator@VioHashString@@@std@@@std@@IAEXXZ ; std::vector<ioHashString,std::allocator<ioHashString> >::_Tidy

; 542  : 			_RERAISE;

  00061	33 db		 xor	 ebx, ebx
  00063	53		 push	 ebx
  00064	53		 push	 ebx
  00065	e8 00 00 00 00	 call	 __CxxThrowException@8
$LN38@vector@4:
$LN37@vector@4:
  0006a	cc		 int	 3
_TEXT	ENDS
;	COMDAT text$x
text$x	SEGMENT
__ehhandler$??0?$vector@VioHashString@@V?$allocator@VioHashString@@@std@@@std@@QAE@ABV01@@Z:
  00000	8b 54 24 08	 mov	 edx, DWORD PTR [esp+8]
  00004	8d 42 0c	 lea	 eax, DWORD PTR [edx+12]
  00007	8b 4a e8	 mov	 ecx, DWORD PTR [edx-24]
  0000a	33 c8		 xor	 ecx, eax
  0000c	e8 00 00 00 00	 call	 @__security_check_cookie@4
  00011	b8 00 00 00 00	 mov	 eax, OFFSET __ehfuncinfo$??0?$vector@VioHashString@@V?$allocator@VioHashString@@@std@@@std@@QAE@ABV01@@Z
  00016	e9 00 00 00 00	 jmp	 ___CxxFrameHandler3
text$x	ENDS
??0?$vector@VioHashString@@V?$allocator@VioHashString@@@std@@@std@@QAE@ABV01@@Z ENDP ; std::vector<ioHashString,std::allocator<ioHashString> >::vector<ioHashString,std::allocator<ioHashString> >
PUBLIC	??1?$vector@VioHashString@@V?$allocator@VioHashString@@@std@@@std@@QAE@XZ ; std::vector<ioHashString,std::allocator<ioHashString> >::~vector<ioHashString,std::allocator<ioHashString> >
; Function compile flags: /Ogsp
;	COMDAT ??1?$vector@VioHashString@@V?$allocator@VioHashString@@@std@@@std@@QAE@XZ
_TEXT	SEGMENT
??1?$vector@VioHashString@@V?$allocator@VioHashString@@@std@@@std@@QAE@XZ PROC ; std::vector<ioHashString,std::allocator<ioHashString> >::~vector<ioHashString,std::allocator<ioHashString> >, COMDAT
; _this$ = ecx

; 705  : 		_Tidy();

  00000	e9 00 00 00 00	 jmp	 ?_Tidy@?$vector@VioHashString@@V?$allocator@VioHashString@@@std@@@std@@IAEXXZ ; std::vector<ioHashString,std::allocator<ioHashString> >::_Tidy
??1?$vector@VioHashString@@V?$allocator@VioHashString@@@std@@@std@@QAE@XZ ENDP ; std::vector<ioHashString,std::allocator<ioHashString> >::~vector<ioHashString,std::allocator<ioHashString> >
_TEXT	ENDS
PUBLIC	??1?$vector@UWeaponInfo@@V?$allocator@UWeaponInfo@@@std@@@std@@QAE@XZ ; std::vector<WeaponInfo,std::allocator<WeaponInfo> >::~vector<WeaponInfo,std::allocator<WeaponInfo> >
; Function compile flags: /Ogsp
;	COMDAT ??1?$vector@UWeaponInfo@@V?$allocator@UWeaponInfo@@@std@@@std@@QAE@XZ
_TEXT	SEGMENT
??1?$vector@UWeaponInfo@@V?$allocator@UWeaponInfo@@@std@@@std@@QAE@XZ PROC ; std::vector<WeaponInfo,std::allocator<WeaponInfo> >::~vector<WeaponInfo,std::allocator<WeaponInfo> >, COMDAT
; _this$ = ecx

; 705  : 		_Tidy();

  00000	e9 00 00 00 00	 jmp	 ?_Tidy@?$vector@UWeaponInfo@@V?$allocator@UWeaponInfo@@@std@@@std@@IAEXXZ ; std::vector<WeaponInfo,std::allocator<WeaponInfo> >::_Tidy
??1?$vector@UWeaponInfo@@V?$allocator@UWeaponInfo@@@std@@@std@@QAE@XZ ENDP ; std::vector<WeaponInfo,std::allocator<WeaponInfo> >::~vector<WeaponInfo,std::allocator<WeaponInfo> >
_TEXT	ENDS
PUBLIC	??0AttackAttribute@@QAE@ABU0@@Z			; AttackAttribute::AttackAttribute
;	COMDAT xdata$x
xdata$x	SEGMENT
__unwindtable$??0AttackAttribute@@QAE@ABU0@@Z DD 0ffffffffH
	DD	FLAT:__unwindfunclet$??0AttackAttribute@@QAE@ABU0@@Z$0
	DD	00H
	DD	FLAT:__unwindfunclet$??0AttackAttribute@@QAE@ABU0@@Z$1
	DD	01H
	DD	FLAT:__unwindfunclet$??0AttackAttribute@@QAE@ABU0@@Z$2
__ehfuncinfo$??0AttackAttribute@@QAE@ABU0@@Z DD 019930522H
	DD	03H
	DD	FLAT:__unwindtable$??0AttackAttribute@@QAE@ABU0@@Z
	DD	2 DUP(00H)
	DD	2 DUP(00H)
	DD	00H
	DD	01H
; Function compile flags: /Ogsp
xdata$x	ENDS
;	COMDAT ??0AttackAttribute@@QAE@ABU0@@Z
_TEXT	SEGMENT
_this$ = -16						; size = 4
__$EHRec$ = -12						; size = 12
___that$ = 8						; size = 4
??0AttackAttribute@@QAE@ABU0@@Z PROC			; AttackAttribute::AttackAttribute, COMDAT
; _this$ = ecx
  00000	6a 04		 push	 4
  00002	b8 00 00 00 00	 mov	 eax, __ehhandler$??0AttackAttribute@@QAE@ABU0@@Z
  00007	e8 00 00 00 00	 call	 __EH_prolog3
  0000c	8b f1		 mov	 esi, ecx
  0000e	89 75 f0	 mov	 DWORD PTR _this$[ebp], esi
  00011	8b 7d 08	 mov	 edi, DWORD PTR ___that$[ebp]
  00014	8b 1d 00 00 00
	00		 mov	 ebx, DWORD PTR __imp_??0ioHashString@@QAE@ABV0@@Z
  0001a	57		 push	 edi
  0001b	ff d3		 call	 ebx
  0001d	d9 47 10	 fld	 DWORD PTR [edi+16]
  00020	83 65 fc 00	 and	 DWORD PTR __$EHRec$[ebp+8], 0
  00024	d9 5e 10	 fstp	 DWORD PTR [esi+16]
  00027	8d 47 14	 lea	 eax, DWORD PTR [edi+20]
  0002a	50		 push	 eax
  0002b	8d 4e 14	 lea	 ecx, DWORD PTR [esi+20]
  0002e	ff d3		 call	 ebx
  00030	d9 47 24	 fld	 DWORD PTR [edi+36]
  00033	8d 47 28	 lea	 eax, DWORD PTR [edi+40]
  00036	d9 5e 24	 fstp	 DWORD PTR [esi+36]
  00039	50		 push	 eax
  0003a	8d 4e 28	 lea	 ecx, DWORD PTR [esi+40]
  0003d	c6 45 fc 01	 mov	 BYTE PTR __$EHRec$[ebp+8], 1
  00041	e8 00 00 00 00	 call	 ??0?$vector@UWeaponInfo@@V?$allocator@UWeaponInfo@@@std@@@std@@QAE@ABV01@@Z ; std::vector<WeaponInfo,std::allocator<WeaponInfo> >::vector<WeaponInfo,std::allocator<WeaponInfo> >
  00046	8d 47 38	 lea	 eax, DWORD PTR [edi+56]
  00049	50		 push	 eax
  0004a	8d 4e 38	 lea	 ecx, DWORD PTR [esi+56]
  0004d	c6 45 fc 02	 mov	 BYTE PTR __$EHRec$[ebp+8], 2
  00051	e8 00 00 00 00	 call	 ??0?$vector@UForceInfo@@V?$allocator@UForceInfo@@@std@@@std@@QAE@ABV01@@Z ; std::vector<ForceInfo,std::allocator<ForceInfo> >::vector<ForceInfo,std::allocator<ForceInfo> >
  00056	8b 47 48	 mov	 eax, DWORD PTR [edi+72]
  00059	89 46 48	 mov	 DWORD PTR [esi+72], eax
  0005c	8b 47 4c	 mov	 eax, DWORD PTR [edi+76]
  0005f	89 46 4c	 mov	 DWORD PTR [esi+76], eax
  00062	8b c6		 mov	 eax, esi
  00064	e8 00 00 00 00	 call	 __EH_epilog3
  00069	c2 04 00	 ret	 4
_TEXT	ENDS
;	COMDAT text$x
text$x	SEGMENT
__unwindfunclet$??0AttackAttribute@@QAE@ABU0@@Z$0:
  00000	8b 4d f0	 mov	 ecx, DWORD PTR _this$[ebp]
  00003	ff 25 00 00 00
	00		 jmp	 DWORD PTR __imp_??1ioHashString@@QAE@XZ
__unwindfunclet$??0AttackAttribute@@QAE@ABU0@@Z$1:
  00009	8b 4d f0	 mov	 ecx, DWORD PTR _this$[ebp]
  0000c	83 c1 14	 add	 ecx, 20			; 00000014H
  0000f	ff 25 00 00 00
	00		 jmp	 DWORD PTR __imp_??1ioHashString@@QAE@XZ
__unwindfunclet$??0AttackAttribute@@QAE@ABU0@@Z$2:
  00015	8b 4d f0	 mov	 ecx, DWORD PTR _this$[ebp]
  00018	83 c1 28	 add	 ecx, 40			; 00000028H
  0001b	e9 00 00 00 00	 jmp	 ??1?$vector@UWeaponInfo@@V?$allocator@UWeaponInfo@@@std@@@std@@QAE@XZ ; std::vector<WeaponInfo,std::allocator<WeaponInfo> >::~vector<WeaponInfo,std::allocator<WeaponInfo> >
__ehhandler$??0AttackAttribute@@QAE@ABU0@@Z:
  00020	8b 54 24 08	 mov	 edx, DWORD PTR [esp+8]
  00024	8d 42 0c	 lea	 eax, DWORD PTR [edx+12]
  00027	8b 4a ec	 mov	 ecx, DWORD PTR [edx-20]
  0002a	33 c8		 xor	 ecx, eax
  0002c	e8 00 00 00 00	 call	 @__security_check_cookie@4
  00031	b8 00 00 00 00	 mov	 eax, OFFSET __ehfuncinfo$??0AttackAttribute@@QAE@ABU0@@Z
  00036	e9 00 00 00 00	 jmp	 ___CxxFrameHandler3
text$x	ENDS
??0AttackAttribute@@QAE@ABU0@@Z ENDP			; AttackAttribute::AttackAttribute
PUBLIC	?push_back@?$vector@VioHashString@@V?$allocator@VioHashString@@@std@@@std@@QAEXABVioHashString@@@Z ; std::vector<ioHashString,std::allocator<ioHashString> >::push_back
; Function compile flags: /Ogsp
;	COMDAT ?push_back@?$vector@VioHashString@@V?$allocator@VioHashString@@@std@@@std@@QAEXABVioHashString@@@Z
_TEXT	SEGMENT
__Val$ = 8						; size = 4
?push_back@?$vector@VioHashString@@V?$allocator@VioHashString@@@std@@@std@@QAEXABVioHashString@@@Z PROC ; std::vector<ioHashString,std::allocator<ioHashString> >::push_back, COMDAT
; _this$ = ecx

; 976  : 		{	// insert element at end

  00000	55		 push	 ebp
  00001	8b ec		 mov	 ebp, esp
  00003	56		 push	 esi
  00004	8b f1		 mov	 esi, ecx

; 977  : 		if (_Inside(_STD addressof(_Val)))

  00006	8b 46 04	 mov	 eax, DWORD PTR [esi+4]
  00009	57		 push	 edi
  0000a	8b 7d 08	 mov	 edi, DWORD PTR __Val$[ebp]
  0000d	3b f8		 cmp	 edi, eax
  0000f	73 29		 jae	 SHORT $LN4@push_back
  00011	8b 0e		 mov	 ecx, DWORD PTR [esi]
  00013	3b cf		 cmp	 ecx, edi
  00015	77 23		 ja	 SHORT $LN4@push_back

; 978  : 			{	// push back an element
; 979  : 			size_type _Idx = _STD addressof(_Val) - this->_Myfirst;

  00017	2b f9		 sub	 edi, ecx

; 980  : 			if (this->_Mylast == this->_Myend)

  00019	3b 46 08	 cmp	 eax, DWORD PTR [esi+8]
  0001c	75 09		 jne	 SHORT $LN3@push_back

; 981  : 				_Reserve(1);

  0001e	6a 01		 push	 1
  00020	8b ce		 mov	 ecx, esi
  00022	e8 00 00 00 00	 call	 ?_Reserve@?$vector@VioHashString@@V?$allocator@VioHashString@@@std@@@std@@IAEXI@Z ; std::vector<ioHashString,std::allocator<ioHashString> >::_Reserve
$LN3@push_back:

; 982  : 			_Orphan_range(this->_Mylast, this->_Mylast);
; 983  : 			_Cons_val(this->_Alval,
; 984  : 				this->_Mylast,
; 985  : 				this->_Myfirst[_Idx]);

  00027	83 e7 f0	 and	 edi, -16		; fffffff0H
  0002a	03 3e		 add	 edi, DWORD PTR [esi]
  0002c	8d 4e 0c	 lea	 ecx, DWORD PTR [esi+12]
  0002f	57		 push	 edi
  00030	ff 76 04	 push	 DWORD PTR [esi+4]
  00033	e8 00 00 00 00	 call	 ??$construct@AAVioHashString@@@?$allocator@VioHashString@@@std@@QAEXPAVioHashString@@AAV2@@Z ; std::allocator<ioHashString>::construct<ioHashString &>

; 986  : 			++this->_Mylast;
; 987  : 			}
; 988  : 		else

  00038	eb 19		 jmp	 SHORT $LN30@push_back
$LN4@push_back:

; 989  : 			{	// push back a non-element
; 990  : 			if (this->_Mylast == this->_Myend)

  0003a	3b 46 08	 cmp	 eax, DWORD PTR [esi+8]
  0003d	75 09		 jne	 SHORT $LN1@push_back

; 991  : 				_Reserve(1);

  0003f	6a 01		 push	 1
  00041	8b ce		 mov	 ecx, esi
  00043	e8 00 00 00 00	 call	 ?_Reserve@?$vector@VioHashString@@V?$allocator@VioHashString@@@std@@@std@@IAEXI@Z ; std::vector<ioHashString,std::allocator<ioHashString> >::_Reserve
$LN1@push_back:

; 992  : 			_Orphan_range(this->_Mylast, this->_Mylast);
; 993  : 			_Cons_val(this->_Alval,
; 994  : 				this->_Mylast,
; 995  : 				_Val);

  00048	57		 push	 edi
  00049	ff 76 04	 push	 DWORD PTR [esi+4]
  0004c	e8 00 00 00 00	 call	 ??$_Construct@VioHashString@@ABV1@@std@@YAXPAVioHashString@@ABV1@@Z ; std::_Construct<ioHashString,ioHashString const &>
  00051	59		 pop	 ecx
  00052	59		 pop	 ecx
$LN30@push_back:

; 996  : 			++this->_Mylast;

  00053	83 46 04 10	 add	 DWORD PTR [esi+4], 16	; 00000010H
  00057	5f		 pop	 edi
  00058	5e		 pop	 esi

; 997  : 			}
; 998  : 		}

  00059	5d		 pop	 ebp
  0005a	c2 04 00	 ret	 4
?push_back@?$vector@VioHashString@@V?$allocator@VioHashString@@@std@@@std@@QAEXABVioHashString@@@Z ENDP ; std::vector<ioHashString,std::allocator<ioHashString> >::push_back
_TEXT	ENDS
PUBLIC	?push_back@?$vector@UWoundedInfo@ioLeeSunSin@@V?$allocator@UWoundedInfo@ioLeeSunSin@@@std@@@std@@QAEXABUWoundedInfo@ioLeeSunSin@@@Z ; std::vector<ioLeeSunSin::WoundedInfo,std::allocator<ioLeeSunSin::WoundedInfo> >::push_back
; Function compile flags: /Ogsp
;	COMDAT ?push_back@?$vector@UWoundedInfo@ioLeeSunSin@@V?$allocator@UWoundedInfo@ioLeeSunSin@@@std@@@std@@QAEXABUWoundedInfo@ioLeeSunSin@@@Z
_TEXT	SEGMENT
__Val$ = 8						; size = 4
?push_back@?$vector@UWoundedInfo@ioLeeSunSin@@V?$allocator@UWoundedInfo@ioLeeSunSin@@@std@@@std@@QAEXABUWoundedInfo@ioLeeSunSin@@@Z PROC ; std::vector<ioLeeSunSin::WoundedInfo,std::allocator<ioLeeSunSin::WoundedInfo> >::push_back, COMDAT
; _this$ = ecx

; 976  : 		{	// insert element at end

  00000	55		 push	 ebp
  00001	8b ec		 mov	 ebp, esp
  00003	56		 push	 esi
  00004	8b f1		 mov	 esi, ecx

; 977  : 		if (_Inside(_STD addressof(_Val)))

  00006	8b 46 04	 mov	 eax, DWORD PTR [esi+4]
  00009	57		 push	 edi
  0000a	8b 7d 08	 mov	 edi, DWORD PTR __Val$[ebp]
  0000d	3b f8		 cmp	 edi, eax
  0000f	73 2d		 jae	 SHORT $LN4@push_back@2
  00011	8b 0e		 mov	 ecx, DWORD PTR [esi]
  00013	3b cf		 cmp	 ecx, edi
  00015	77 27		 ja	 SHORT $LN4@push_back@2

; 978  : 			{	// push back an element
; 979  : 			size_type _Idx = _STD addressof(_Val) - this->_Myfirst;

  00017	2b f9		 sub	 edi, ecx

; 980  : 			if (this->_Mylast == this->_Myend)

  00019	3b 46 08	 cmp	 eax, DWORD PTR [esi+8]
  0001c	75 09		 jne	 SHORT $LN3@push_back@2

; 981  : 				_Reserve(1);

  0001e	6a 01		 push	 1
  00020	8b ce		 mov	 ecx, esi
  00022	e8 00 00 00 00	 call	 ?_Reserve@?$vector@UWoundedInfo@ioLeeSunSin@@V?$allocator@UWoundedInfo@ioLeeSunSin@@@std@@@std@@IAEXI@Z ; std::vector<ioLeeSunSin::WoundedInfo,std::allocator<ioLeeSunSin::WoundedInfo> >::_Reserve
$LN3@push_back@2:

; 982  : 			_Orphan_range(this->_Mylast, this->_Mylast);
; 983  : 			_Cons_val(this->_Alval,
; 984  : 				this->_Mylast,
; 985  : 				this->_Myfirst[_Idx]);

  00027	83 e7 e0	 and	 edi, -32		; ffffffe0H
  0002a	03 3e		 add	 edi, DWORD PTR [esi]
  0002c	8d 46 0c	 lea	 eax, DWORD PTR [esi+12]
  0002f	57		 push	 edi
  00030	ff 76 04	 push	 DWORD PTR [esi+4]
  00033	50		 push	 eax
  00034	e8 00 00 00 00	 call	 ??$_Cons_val@V?$allocator@UWoundedInfo@ioLeeSunSin@@@std@@UWoundedInfo@ioLeeSunSin@@AAU34@@std@@YAXAAV?$allocator@UWoundedInfo@ioLeeSunSin@@@0@PAUWoundedInfo@ioLeeSunSin@@AAU23@@Z ; std::_Cons_val<std::allocator<ioLeeSunSin::WoundedInfo>,ioLeeSunSin::WoundedInfo,ioLeeSunSin::WoundedInfo &>
  00039	83 c4 0c	 add	 esp, 12			; 0000000cH

; 986  : 			++this->_Mylast;
; 987  : 			}
; 988  : 		else

  0003c	eb 19		 jmp	 SHORT $LN26@push_back@2
$LN4@push_back@2:

; 989  : 			{	// push back a non-element
; 990  : 			if (this->_Mylast == this->_Myend)

  0003e	3b 46 08	 cmp	 eax, DWORD PTR [esi+8]
  00041	75 09		 jne	 SHORT $LN1@push_back@2

; 991  : 				_Reserve(1);

  00043	6a 01		 push	 1
  00045	8b ce		 mov	 ecx, esi
  00047	e8 00 00 00 00	 call	 ?_Reserve@?$vector@UWoundedInfo@ioLeeSunSin@@V?$allocator@UWoundedInfo@ioLeeSunSin@@@std@@@std@@IAEXI@Z ; std::vector<ioLeeSunSin::WoundedInfo,std::allocator<ioLeeSunSin::WoundedInfo> >::_Reserve
$LN1@push_back@2:

; 992  : 			_Orphan_range(this->_Mylast, this->_Mylast);
; 993  : 			_Cons_val(this->_Alval,
; 994  : 				this->_Mylast,
; 995  : 				_Val);

  0004c	57		 push	 edi
  0004d	ff 76 04	 push	 DWORD PTR [esi+4]
  00050	e8 00 00 00 00	 call	 ??$_Construct@UWoundedInfo@ioLeeSunSin@@ABU12@@std@@YAXPAUWoundedInfo@ioLeeSunSin@@ABU12@@Z ; std::_Construct<ioLeeSunSin::WoundedInfo,ioLeeSunSin::WoundedInfo const &>
  00055	59		 pop	 ecx
  00056	59		 pop	 ecx
$LN26@push_back@2:

; 996  : 			++this->_Mylast;

  00057	83 46 04 20	 add	 DWORD PTR [esi+4], 32	; 00000020H
  0005b	5f		 pop	 edi
  0005c	5e		 pop	 esi

; 997  : 			}
; 998  : 		}

  0005d	5d		 pop	 ebp
  0005e	c2 04 00	 ret	 4
?push_back@?$vector@UWoundedInfo@ioLeeSunSin@@V?$allocator@UWoundedInfo@ioLeeSunSin@@@std@@@std@@QAEXABUWoundedInfo@ioLeeSunSin@@@Z ENDP ; std::vector<ioLeeSunSin::WoundedInfo,std::allocator<ioLeeSunSin::WoundedInfo> >::push_back
_TEXT	ENDS
PUBLIC	??0AttackAttribute@@QAE@XZ			; AttackAttribute::AttackAttribute
EXTRN	?Init@AttackAttribute@@QAEXXZ:PROC		; AttackAttribute::Init
;	COMDAT xdata$x
; File c:\program files (x86)\microsoft visual studio 10.0\vc\include\xmemory
xdata$x	SEGMENT
__unwindtable$??0AttackAttribute@@QAE@XZ DD 0ffffffffH
	DD	FLAT:__unwindfunclet$??0AttackAttribute@@QAE@XZ$0
	DD	00H
	DD	FLAT:__unwindfunclet$??0AttackAttribute@@QAE@XZ$1
	DD	01H
	DD	FLAT:__unwindfunclet$??0AttackAttribute@@QAE@XZ$2
	DD	02H
	DD	FLAT:__unwindfunclet$??0AttackAttribute@@QAE@XZ$3
__ehfuncinfo$??0AttackAttribute@@QAE@XZ DD 019930522H
	DD	04H
	DD	FLAT:__unwindtable$??0AttackAttribute@@QAE@XZ
	DD	2 DUP(00H)
	DD	2 DUP(00H)
	DD	00H
	DD	01H
; Function compile flags: /Ogsp
; File d:\lost saga for developer\youtube\tutorial\source\src\lsclient\ioattackattribute.h
xdata$x	ENDS
;	COMDAT ??0AttackAttribute@@QAE@XZ
_TEXT	SEGMENT
_this$ = -16						; size = 4
__$EHRec$ = -12						; size = 12
??0AttackAttribute@@QAE@XZ PROC				; AttackAttribute::AttackAttribute, COMDAT
; _this$ = ecx

; 107  : 	AttackAttribute()

  00000	6a 04		 push	 4
  00002	b8 00 00 00 00	 mov	 eax, __ehhandler$??0AttackAttribute@@QAE@XZ
  00007	e8 00 00 00 00	 call	 __EH_prolog3
  0000c	8b f1		 mov	 esi, ecx
  0000e	89 75 f0	 mov	 DWORD PTR _this$[ebp], esi
  00011	8b 3d 00 00 00
	00		 mov	 edi, DWORD PTR __imp_??0ioHashString@@QAE@XZ
  00017	ff d7		 call	 edi
  00019	33 db		 xor	 ebx, ebx
  0001b	8d 4e 14	 lea	 ecx, DWORD PTR [esi+20]
  0001e	89 5d fc	 mov	 DWORD PTR __$EHRec$[ebp+8], ebx
  00021	ff d7		 call	 edi
  00023	89 5e 28	 mov	 DWORD PTR [esi+40], ebx
  00026	89 5e 2c	 mov	 DWORD PTR [esi+44], ebx
  00029	89 5e 30	 mov	 DWORD PTR [esi+48], ebx
  0002c	89 5e 38	 mov	 DWORD PTR [esi+56], ebx
  0002f	89 5e 3c	 mov	 DWORD PTR [esi+60], ebx
  00032	89 5e 40	 mov	 DWORD PTR [esi+64], ebx

; 108  : 	{
; 109  : 		Init();

  00035	8b ce		 mov	 ecx, esi
  00037	c6 45 fc 03	 mov	 BYTE PTR __$EHRec$[ebp+8], 3
  0003b	e8 00 00 00 00	 call	 ?Init@AttackAttribute@@QAEXXZ ; AttackAttribute::Init

; 110  : 	}

  00040	8b c6		 mov	 eax, esi
  00042	e8 00 00 00 00	 call	 __EH_epilog3
  00047	c3		 ret	 0
_TEXT	ENDS
;	COMDAT text$x
text$x	SEGMENT
__unwindfunclet$??0AttackAttribute@@QAE@XZ$0:
  00000	8b 4d f0	 mov	 ecx, DWORD PTR _this$[ebp]
  00003	ff 25 00 00 00
	00		 jmp	 DWORD PTR __imp_??1ioHashString@@QAE@XZ
__unwindfunclet$??0AttackAttribute@@QAE@XZ$1:
  00009	8b 4d f0	 mov	 ecx, DWORD PTR _this$[ebp]
  0000c	83 c1 14	 add	 ecx, 20			; 00000014H
  0000f	ff 25 00 00 00
	00		 jmp	 DWORD PTR __imp_??1ioHashString@@QAE@XZ
__unwindfunclet$??0AttackAttribute@@QAE@XZ$2:
  00015	8b 4d f0	 mov	 ecx, DWORD PTR _this$[ebp]
  00018	83 c1 28	 add	 ecx, 40			; 00000028H
  0001b	e9 00 00 00 00	 jmp	 ??1?$vector@UWeaponInfo@@V?$allocator@UWeaponInfo@@@std@@@std@@QAE@XZ ; std::vector<WeaponInfo,std::allocator<WeaponInfo> >::~vector<WeaponInfo,std::allocator<WeaponInfo> >
__unwindfunclet$??0AttackAttribute@@QAE@XZ$3:
  00020	8b 4d f0	 mov	 ecx, DWORD PTR _this$[ebp]
  00023	83 c1 38	 add	 ecx, 56			; 00000038H
  00026	e9 00 00 00 00	 jmp	 ??1?$vector@UForceInfo@@V?$allocator@UForceInfo@@@std@@@std@@QAE@XZ ; std::vector<ForceInfo,std::allocator<ForceInfo> >::~vector<ForceInfo,std::allocator<ForceInfo> >
__ehhandler$??0AttackAttribute@@QAE@XZ:
  0002b	8b 54 24 08	 mov	 edx, DWORD PTR [esp+8]
  0002f	8d 42 0c	 lea	 eax, DWORD PTR [edx+12]
  00032	8b 4a ec	 mov	 ecx, DWORD PTR [edx-20]
  00035	33 c8		 xor	 ecx, eax
  00037	e8 00 00 00 00	 call	 @__security_check_cookie@4
  0003c	b8 00 00 00 00	 mov	 eax, OFFSET __ehfuncinfo$??0AttackAttribute@@QAE@XZ
  00041	e9 00 00 00 00	 jmp	 ___CxxFrameHandler3
text$x	ENDS
??0AttackAttribute@@QAE@XZ ENDP				; AttackAttribute::AttackAttribute
PUBLIC	??1AttackAttribute@@QAE@XZ			; AttackAttribute::~AttackAttribute
;	COMDAT xdata$x
xdata$x	SEGMENT
__unwindtable$??1AttackAttribute@@QAE@XZ DD 0ffffffffH
	DD	FLAT:__unwindfunclet$??1AttackAttribute@@QAE@XZ$0
	DD	00H
	DD	FLAT:__unwindfunclet$??1AttackAttribute@@QAE@XZ$1
	DD	01H
	DD	FLAT:__unwindfunclet$??1AttackAttribute@@QAE@XZ$2
__ehfuncinfo$??1AttackAttribute@@QAE@XZ DD 019930522H
	DD	03H
	DD	FLAT:__unwindtable$??1AttackAttribute@@QAE@XZ
	DD	2 DUP(00H)
	DD	2 DUP(00H)
	DD	00H
	DD	01H
; Function compile flags: /Ogsp
xdata$x	ENDS
;	COMDAT ??1AttackAttribute@@QAE@XZ
_TEXT	SEGMENT
_this$ = -16						; size = 4
__$EHRec$ = -12						; size = 12
??1AttackAttribute@@QAE@XZ PROC				; AttackAttribute::~AttackAttribute, COMDAT
; _this$ = ecx
  00000	6a 04		 push	 4
  00002	b8 00 00 00 00	 mov	 eax, __ehhandler$??1AttackAttribute@@QAE@XZ
  00007	e8 00 00 00 00	 call	 __EH_prolog3
  0000c	8b f1		 mov	 esi, ecx
  0000e	89 75 f0	 mov	 DWORD PTR _this$[ebp], esi
  00011	8d 4e 38	 lea	 ecx, DWORD PTR [esi+56]
  00014	c7 45 fc 02 00
	00 00		 mov	 DWORD PTR __$EHRec$[ebp+8], 2
  0001b	e8 00 00 00 00	 call	 ?_Tidy@?$vector@UForceInfo@@V?$allocator@UForceInfo@@@std@@@std@@IAEXXZ ; std::vector<ForceInfo,std::allocator<ForceInfo> >::_Tidy
  00020	8d 4e 28	 lea	 ecx, DWORD PTR [esi+40]
  00023	c6 45 fc 01	 mov	 BYTE PTR __$EHRec$[ebp+8], 1
  00027	e8 00 00 00 00	 call	 ?_Tidy@?$vector@UWeaponInfo@@V?$allocator@UWeaponInfo@@@std@@@std@@IAEXXZ ; std::vector<WeaponInfo,std::allocator<WeaponInfo> >::_Tidy
  0002c	8b 3d 00 00 00
	00		 mov	 edi, DWORD PTR __imp_??1ioHashString@@QAE@XZ
  00032	8d 4e 14	 lea	 ecx, DWORD PTR [esi+20]
  00035	c6 45 fc 00	 mov	 BYTE PTR __$EHRec$[ebp+8], 0
  00039	ff d7		 call	 edi
  0003b	83 4d fc ff	 or	 DWORD PTR __$EHRec$[ebp+8], -1
  0003f	8b ce		 mov	 ecx, esi
  00041	ff d7		 call	 edi
  00043	e8 00 00 00 00	 call	 __EH_epilog3
  00048	c3		 ret	 0
_TEXT	ENDS
;	COMDAT text$x
text$x	SEGMENT
__unwindfunclet$??1AttackAttribute@@QAE@XZ$0:
  00000	8b 4d f0	 mov	 ecx, DWORD PTR _this$[ebp]
  00003	ff 25 00 00 00
	00		 jmp	 DWORD PTR __imp_??1ioHashString@@QAE@XZ
__unwindfunclet$??1AttackAttribute@@QAE@XZ$1:
  00009	8b 4d f0	 mov	 ecx, DWORD PTR _this$[ebp]
  0000c	83 c1 14	 add	 ecx, 20			; 00000014H
  0000f	ff 25 00 00 00
	00		 jmp	 DWORD PTR __imp_??1ioHashString@@QAE@XZ
__unwindfunclet$??1AttackAttribute@@QAE@XZ$2:
  00015	8b 4d f0	 mov	 ecx, DWORD PTR _this$[ebp]
  00018	83 c1 28	 add	 ecx, 40			; 00000028H
  0001b	e9 00 00 00 00	 jmp	 ??1?$vector@UWeaponInfo@@V?$allocator@UWeaponInfo@@@std@@@std@@QAE@XZ ; std::vector<WeaponInfo,std::allocator<WeaponInfo> >::~vector<WeaponInfo,std::allocator<WeaponInfo> >
__ehhandler$??1AttackAttribute@@QAE@XZ:
  00020	8b 54 24 08	 mov	 edx, DWORD PTR [esp+8]
  00024	8d 42 0c	 lea	 eax, DWORD PTR [edx+12]
  00027	8b 4a ec	 mov	 ecx, DWORD PTR [edx-20]
  0002a	33 c8		 xor	 ecx, eax
  0002c	e8 00 00 00 00	 call	 @__security_check_cookie@4
  00031	b8 00 00 00 00	 mov	 eax, OFFSET __ehfuncinfo$??1AttackAttribute@@QAE@XZ
  00036	e9 00 00 00 00	 jmp	 ___CxxFrameHandler3
text$x	ENDS
??1AttackAttribute@@QAE@XZ ENDP				; AttackAttribute::~AttackAttribute
PUBLIC	??_7ioLeeSunSin@@6B@				; ioLeeSunSin::`vftable'
PUBLIC	??0ioLeeSunSin@@QAE@XZ				; ioLeeSunSin::ioLeeSunSin
PUBLIC	??_R4ioLeeSunSin@@6B@				; ioLeeSunSin::`RTTI Complete Object Locator'
PUBLIC	??_R0?AVioLeeSunSin@@@8				; ioLeeSunSin `RTTI Type Descriptor'
PUBLIC	??_R3ioLeeSunSin@@8				; ioLeeSunSin::`RTTI Class Hierarchy Descriptor'
PUBLIC	??_R2ioLeeSunSin@@8				; ioLeeSunSin::`RTTI Base Class Array'
PUBLIC	??_R1A@?0A@EA@ioLeeSunSin@@8			; ioLeeSunSin::`RTTI Base Class Descriptor at (0,-1,0,64)'
PUBLIC	??_R1A@?0A@EA@ioWeaponItem@@8			; ioWeaponItem::`RTTI Base Class Descriptor at (0,-1,0,64)'
PUBLIC	??_R0?AVioWeaponItem@@@8			; ioWeaponItem `RTTI Type Descriptor'
PUBLIC	??_R3ioWeaponItem@@8				; ioWeaponItem::`RTTI Class Hierarchy Descriptor'
PUBLIC	??_R2ioWeaponItem@@8				; ioWeaponItem::`RTTI Base Class Array'
PUBLIC	??_R1A@?0A@EA@ioAttackableItem@@8		; ioAttackableItem::`RTTI Base Class Descriptor at (0,-1,0,64)'
PUBLIC	??_R0?AVioAttackableItem@@@8			; ioAttackableItem `RTTI Type Descriptor'
PUBLIC	??_R3ioAttackableItem@@8			; ioAttackableItem::`RTTI Class Hierarchy Descriptor'
PUBLIC	??_R2ioAttackableItem@@8			; ioAttackableItem::`RTTI Base Class Array'
PUBLIC	??_R1A@?0A@EA@ioItem@@8				; ioItem::`RTTI Base Class Descriptor at (0,-1,0,64)'
PUBLIC	??_R0?AVioItem@@@8				; ioItem `RTTI Type Descriptor'
PUBLIC	??_R3ioItem@@8					; ioItem::`RTTI Class Hierarchy Descriptor'
PUBLIC	??_R2ioItem@@8					; ioItem::`RTTI Base Class Array'
PUBLIC	?LoadProperty@ioLeeSunSin@@UAEXAAVioINILoader@@@Z ; ioLeeSunSin::LoadProperty
PUBLIC	?Clone@ioLeeSunSin@@UAEPAVioItem@@XZ		; ioLeeSunSin::Clone
PUBLIC	?IsEnableExtraGauge@ioItem@@UAE_NPAVioBaseChar@@@Z ; ioItem::IsEnableExtraGauge
PUBLIC	?GetExtraGauge@ioItem@@UAEMXZ			; ioItem::GetExtraGauge
PUBLIC	?CheckOnHand@ioAttackableItem@@UAE_NXZ		; ioAttackableItem::CheckOnHand
PUBLIC	?CheckAimState@ioAttackableItem@@UAE_N_N@Z	; ioAttackableItem::CheckAimState
PUBLIC	?SetAimState@ioAttackableItem@@UAE_NPAVioBaseChar@@@Z ; ioAttackableItem::SetAimState
PUBLIC	?CheckExtendDefenseEnable@ioAttackableItem@@UAE_NPAVioBaseChar@@@Z ; ioAttackableItem::CheckExtendDefenseEnable
PUBLIC	?IsMoveAttackState@ioAttackableItem@@UAE_NPAVioBaseChar@@@Z ; ioAttackableItem::IsMoveAttackState
PUBLIC	?IsNoGhostWalk@ioAttackableItem@@UAE_NPAVioBaseChar@@@Z ; ioAttackableItem::IsNoGhostWalk
PUBLIC	?IsEnableItemDashCheck@ioAttackableItem@@UAE_NPAVioBaseChar@@_N@Z ; ioAttackableItem::IsEnableItemDashCheck
PUBLIC	?IsEnableAttackRotateCheck@ioAttackableItem@@UAE_NPAVioBaseChar@@@Z ; ioAttackableItem::IsEnableAttackRotateCheck
PUBLIC	?IsEnableChargeDefenseCheck@ioAttackableItem@@UAE_NXZ ; ioAttackableItem::IsEnableChargeDefenseCheck
PUBLIC	?IsUseDefenceCounterAttackEndDash@ioAttackableItem@@UAE_NXZ ; ioAttackableItem::IsUseDefenceCounterAttackEndDash
PUBLIC	?IsAutoTarget@ioAttackableItem@@UBE_NXZ		; ioAttackableItem::IsAutoTarget
PUBLIC	?IsWoundAfterUseExtendState@ioLeeSunSin@@UAE_NXZ ; ioLeeSunSin::IsWoundAfterUseExtendState
PUBLIC	?IsCharSkipState@ioAttackableItem@@UAE_NPBVioBaseChar@@@Z ; ioAttackableItem::IsCharSkipState
EXTRN	??1ioWeaponItem@@UAE@XZ:PROC			; ioWeaponItem::~ioWeaponItem
EXTRN	??0ioWeaponItem@@QAE@XZ:PROC			; ioWeaponItem::ioWeaponItem
EXTRN	?FindFieldEntityGrp@ioItem@@MBEABVioHashString@@XZ:PROC ; ioItem::FindFieldEntityGrp
EXTRN	?GetType@ioWeaponItem@@UBE?AW4ItemType@ioItem@@XZ:PROC ; ioWeaponItem::GetType
EXTRN	?UseCreateIndexItem@ioItem@@UBE_NXZ:PROC	; ioItem::UseCreateIndexItem
EXTRN	?GetSetFocusColor@ioItem@@UBEKXZ:PROC		; ioItem::GetSetFocusColor
EXTRN	?Initialize@ioItem@@UAEXABVioHashString@@PAVioPlayStage@@@Z:PROC ; ioItem::Initialize
EXTRN	?InitializeBeforeEquip@ioItem@@UAEXABVioHashString@@PAVioPlayStage@@@Z:PROC ; ioItem::InitializeBeforeEquip
EXTRN	?SetExtendEquipEffect@ioItem@@UAEXPAVioBaseChar@@@Z:PROC ; ioItem::SetExtendEquipEffect
EXTRN	?ReleaseExtendEquipEffect@ioItem@@UAEXPAVioBaseChar@@@Z:PROC ; ioItem::ReleaseExtendEquipEffect
EXTRN	?AddGlowLine@ioWeaponItem@@UAEXPAVioBaseChar@@@Z:PROC ; ioWeaponItem::AddGlowLine
EXTRN	?RemoveGlowLine@ioWeaponItem@@UAEXPAVioBaseChar@@@Z:PROC ; ioWeaponItem::RemoveGlowLine
EXTRN	?GetTargetName@ioItem@@UAE?AVioHashString@@XZ:PROC ; ioItem::GetTargetName
EXTRN	?ClearTarget@ioItem@@UAEXXZ:PROC		; ioItem::ClearTarget
EXTRN	?SetItemType@ioWeaponItem@@UAEXXZ:PROC		; ioWeaponItem::SetItemType
EXTRN	?CheckWeaponDefenseState@ioItem@@UAEXPAVioBaseChar@@@Z:PROC ; ioItem::CheckWeaponDefenseState
EXTRN	?CheckWoundedState@ioItem@@UAEXPAVioBaseChar@@@Z:PROC ; ioItem::CheckWoundedState
EXTRN	?SetVisible@ioItem@@UAEXPAVioBaseChar@@_N@Z:PROC ; ioItem::SetVisible
EXTRN	?UpdateSkillGauge@ioItem@@UAEXPAVioBaseChar@@M_N@Z:PROC ; ioItem::UpdateSkillGauge
EXTRN	?ReduceNeedGauge@ioItem@@UAEXMPAVioBaseChar@@@Z:PROC ; ioItem::ReduceNeedGauge
EXTRN	?GetCurSecoundBullet@ioItem@@UAEHXZ:PROC	; ioItem::GetCurSecoundBullet
EXTRN	?GetMaxSecoundBullet@ioItem@@UAEHXZ:PROC	; ioItem::GetMaxSecoundBullet
EXTRN	?SetCurSecoundBullet@ioItem@@UAEXH@Z:PROC	; ioItem::SetCurSecoundBullet
EXTRN	?GetGrowthInfoNum@ioItem@@UBEHH@Z:PROC		; ioItem::GetGrowthInfoNum
EXTRN	?GetGrowthInfoNumByType@ioItem@@UBEHHAAH@Z:PROC	; ioItem::GetGrowthInfoNumByType
EXTRN	?ClearCurChargeRateForSkill@ioItem@@UAEXXZ:PROC	; ioItem::ClearCurChargeRateForSkill
EXTRN	?GetChargeDamageRateForSkill@ioItem@@UAEMXZ:PROC ; ioItem::GetChargeDamageRateForSkill
EXTRN	?GetChargeForceRateForSkill@ioItem@@UAEMXZ:PROC	; ioItem::GetChargeForceRateForSkill
EXTRN	?GetChargeBlowRateForSkill@ioItem@@UAEMXZ:PROC	; ioItem::GetChargeBlowRateForSkill
EXTRN	?GetChargeRangeRateForSkill@ioItem@@UAEMXZ:PROC	; ioItem::GetChargeRangeRateForSkill
EXTRN	?GetChargeSpeedRateForSkill@ioItem@@UAEMXZ:PROC	; ioItem::GetChargeSpeedRateForSkill
EXTRN	?GetChargeFloatRateForSkill@ioItem@@UAEMXZ:PROC	; ioItem::GetChargeFloatRateForSkill
EXTRN	?GetChargeScaleRateForSkill@ioItem@@UAEMXZ:PROC	; ioItem::GetChargeScaleRateForSkill
EXTRN	?GetChargeExplosionRateForSkill@ioItem@@UAEMXZ:PROC ; ioItem::GetChargeExplosionRateForSkill
EXTRN	?GetChargeWoundedTimeRateForSkill@ioItem@@UAEMXZ:PROC ; ioItem::GetChargeWoundedTimeRateForSkill
EXTRN	?SetCurEquipEffect@ioItem@@UAEX_N@Z:PROC	; ioItem::SetCurEquipEffect
EXTRN	?SetCostume@ioItem@@UAEXH_N@Z:PROC		; ioItem::SetCostume
EXTRN	??_EioLeeSunSin@@UAEPAXI@Z:PROC			; ioLeeSunSin::`vector deleting destructor'
EXTRN	?IsCanFire@ioAttackableItem@@UBE_NPBVioBaseChar@@H_N@Z:PROC ; ioAttackableItem::IsCanFire
EXTRN	?CheckChargeInfo@ioAttackableItem@@UAEXPAVioWeapon@@_N@Z:PROC ; ioAttackableItem::CheckChargeInfo
EXTRN	?SetExtendDefenseState@ioAttackableItem@@UAE_NPAVioBaseChar@@@Z:PROC ; ioAttackableItem::SetExtendDefenseState
EXTRN	?CheckExtendDefenseState@ioAttackableItem@@UAEXPAVioBaseChar@@@Z:PROC ; ioAttackableItem::CheckExtendDefenseState
EXTRN	?CheckDefenseMoveAniState@ioAttackableItem@@UAEXPAVioBaseChar@@@Z:PROC ; ioAttackableItem::CheckDefenseMoveAniState
EXTRN	?SetDodgeDefenseState@ioAttackableItem@@UAE_NPAVioBaseChar@@@Z:PROC ; ioAttackableItem::SetDodgeDefenseState
EXTRN	?CheckDodgeDefenseState@ioAttackableItem@@UAEXPAVioBaseChar@@@Z:PROC ; ioAttackableItem::CheckDodgeDefenseState
EXTRN	?ApplyDodgeDefenseState@ioAttackableItem@@UAEXPAVioBaseChar@@AAVSP2Packet@@@Z:PROC ; ioAttackableItem::ApplyDodgeDefenseState
EXTRN	?SetDefenseAttackState@ioAttackableItem@@UAE_NPAVioBaseChar@@@Z:PROC ; ioAttackableItem::SetDefenseAttackState
EXTRN	?CheckDefenseAttackState@ioAttackableItem@@UAEXPAVioBaseChar@@@Z:PROC ; ioAttackableItem::CheckDefenseAttackState
EXTRN	?ApplyDefenseAttackState@ioAttackableItem@@UAEXPAVioBaseChar@@AAVSP2Packet@@@Z:PROC ; ioAttackableItem::ApplyDefenseAttackState
EXTRN	?SetExtendDashState@ioAttackableItem@@UAE_NPAVioBaseChar@@@Z:PROC ; ioAttackableItem::SetExtendDashState
EXTRN	?CheckExtendDashState@ioAttackableItem@@UAEXPAVioBaseChar@@@Z:PROC ; ioAttackableItem::CheckExtendDashState
EXTRN	?SetJumpAttack@ioAttackableItem@@UAE_NPAVioBaseChar@@HMW4AttackType@@@Z:PROC ; ioAttackableItem::SetJumpAttack
EXTRN	?CheckJumpAttack@ioAttackableItem@@UAEXPAVioBaseChar@@@Z:PROC ; ioAttackableItem::CheckJumpAttack
EXTRN	?SetJumpReloadState@ioAttackableItem@@UAE_NPAVioBaseChar@@@Z:PROC ; ioAttackableItem::SetJumpReloadState
EXTRN	?SetJumpReload@ioAttackableItem@@UAE_NPAVioBaseChar@@@Z:PROC ; ioAttackableItem::SetJumpReload
EXTRN	?CheckJumpReloadState@ioAttackableItem@@UAEXPAVioBaseChar@@@Z:PROC ; ioAttackableItem::CheckJumpReloadState
EXTRN	?CheckJumpReloadReserve@ioAttackableItem@@UAEXPAVioBaseChar@@@Z:PROC ; ioAttackableItem::CheckJumpReloadReserve
EXTRN	?ProcessJumpReloadState@ioAttackableItem@@UAEXPAVioBaseChar@@@Z:PROC ; ioAttackableItem::ProcessJumpReloadState
EXTRN	?ApplyJumpReload@ioAttackableItem@@UAEXPAVioBaseChar@@AAVSP2Packet@@@Z:PROC ; ioAttackableItem::ApplyJumpReload
EXTRN	?OnItemGaugeCancel@ioAttackableItem@@UAEXPAVioBaseChar@@AAVSP2Packet@@@Z:PROC ; ioAttackableItem::OnItemGaugeCancel
EXTRN	?OnEndExtendDefense@ioAttackableItem@@UAEXPAVioBaseChar@@@Z:PROC ; ioAttackableItem::OnEndExtendDefense
EXTRN	?OnEndNormalAttack@ioAttackableItem@@UAEXPAVioBaseChar@@@Z:PROC ; ioAttackableItem::OnEndNormalAttack
EXTRN	?OnEndExtendAttack@ioAttackableItem@@UAEXPAVioBaseChar@@_N@Z:PROC ; ioAttackableItem::OnEndExtendAttack
EXTRN	?OnEndExtendJump@ioAttackableItem@@UAEXPAVioBaseChar@@@Z:PROC ; ioAttackableItem::OnEndExtendJump
EXTRN	?FillNormalAttackExtraInfo@ioAttackableItem@@UAEXAAVSP2Packet@@@Z:PROC ; ioAttackableItem::FillNormalAttackExtraInfo
EXTRN	?ApplyNormalAttackExtraInfo@ioAttackableItem@@UAEXAAVSP2Packet@@@Z:PROC ; ioAttackableItem::ApplyNormalAttackExtraInfo
EXTRN	?CheckLanding@ioAttackableItem@@UAE_NPAVioBaseChar@@@Z:PROC ; ioAttackableItem::CheckLanding
EXTRN	?IsCanUpdateGauge@ioAttackableItem@@UAE_NPAVioBaseChar@@@Z:PROC ; ioAttackableItem::IsCanUpdateGauge
EXTRN	?CheckAimJumpState@ioAttackableItem@@UAEXPAVioBaseChar@@@Z:PROC ; ioAttackableItem::CheckAimJumpState
EXTRN	?GetJumppingAnimation@ioAttackableItem@@UBEABVioHashString@@XZ:PROC ; ioAttackableItem::GetJumppingAnimation
EXTRN	?GetExtendJumppingAnimation@ioAttackableItem@@UBEABVioHashString@@XZ:PROC ; ioAttackableItem::GetExtendJumppingAnimation
EXTRN	?CheckRetreatState@ioAttackableItem@@UAEXPAVioBaseChar@@@Z:PROC ; ioAttackableItem::CheckRetreatState
EXTRN	?SetNextItemState@ioAttackableItem@@UAEXPAVioBaseChar@@0PAVioWeapon@@_NM@Z:PROC ; ioAttackableItem::SetNextItemState
EXTRN	?WeaponWounded@ioWeaponItem@@UAEXPAVioWeapon@@PAVioBaseChar@@@Z:PROC ; ioWeaponItem::WeaponWounded
EXTRN	?WeaponMapColDead@ioAttackableItem@@UAEXPAVioWeapon@@@Z:PROC ; ioAttackableItem::WeaponMapColDead
EXTRN	?SetDefenceCounterState@ioAttackableItem@@UAEXPAVioBaseChar@@@Z:PROC ; ioAttackableItem::SetDefenceCounterState
EXTRN	?IsUseDefenceCounterAttack@ioAttackableItem@@UAE_NXZ:PROC ; ioAttackableItem::IsUseDefenceCounterAttack
EXTRN	?ProcessDefenceCounterAttack@ioAttackableItem@@UAEXPAVioBaseChar@@@Z:PROC ; ioAttackableItem::ProcessDefenceCounterAttack
EXTRN	?ProcessExtraJump@ioAttackableItem@@UAEXPAVioBaseChar@@@Z:PROC ; ioAttackableItem::ProcessExtraJump
EXTRN	?SetEndGrappling@ioAttackableItem@@UAEXPAVioBaseChar@@@Z:PROC ; ioAttackableItem::SetEndGrappling
EXTRN	?ClearKeyReserve@ioAttackableItem@@MAEXXZ:PROC	; ioAttackableItem::ClearKeyReserve
EXTRN	?CheckReserve@ioAttackableItem@@MAEXPAVioBaseChar@@@Z:PROC ; ioAttackableItem::CheckReserve
EXTRN	?ProcessReserveKeyInput@ioAttackableItem@@MAEXPAVioBaseChar@@@Z:PROC ; ioAttackableItem::ProcessReserveKeyInput
EXTRN	?SetJumpState@ioAttackableItem@@UAEXXZ:PROC	; ioAttackableItem::SetJumpState
EXTRN	?SetJumpping@ioAttackableItem@@UAEXPAVioBaseChar@@_N@Z:PROC ; ioAttackableItem::SetJumpping
EXTRN	?ProcessJumpping@ioAttackableItem@@UAEXPAVioBaseChar@@M@Z:PROC ; ioAttackableItem::ProcessJumpping
EXTRN	?ProcessJumppingByNoNeedProcess@ioAttackableItem@@UAEXPAVioBaseChar@@M@Z:PROC ; ioAttackableItem::ProcessJumppingByNoNeedProcess
EXTRN	?ProcessLanding@ioAttackableItem@@UAEXPAVioBaseChar@@@Z:PROC ; ioAttackableItem::ProcessLanding
EXTRN	?ProcessJumpAttack@ioAttackableItem@@UAEXPAVioBaseChar@@M@Z:PROC ; ioAttackableItem::ProcessJumpAttack
EXTRN	?ProcessAimJump@ioAttackableItem@@UAE_NPAVioBaseChar@@M@Z:PROC ; ioAttackableItem::ProcessAimJump
EXTRN	?ApplyJump@ioAttackableItem@@UAEXPAVioBaseChar@@AAVSP2Packet@@@Z:PROC ; ioAttackableItem::ApplyJump
EXTRN	?ApplyDash@ioAttackableItem@@UAEXPAVioBaseChar@@AAVSP2Packet@@@Z:PROC ; ioAttackableItem::ApplyDash
EXTRN	?ApplyCounterAttack@ioAttackableItem@@UAEXPAVioBaseChar@@AAVSP2Packet@@@Z:PROC ; ioAttackableItem::ApplyCounterAttack
EXTRN	?CheckComboJumpAttack@ioAttackableItem@@UAEXPAVioBaseChar@@@Z:PROC ; ioAttackableItem::CheckComboJumpAttack
EXTRN	?SetFlashJumpAttack@ioAttackableItem@@UAE_NPAVioBaseChar@@@Z:PROC ; ioAttackableItem::SetFlashJumpAttack
EXTRN	?SetComboFlashAttack@ioAttackableItem@@UAE_NPAVioBaseChar@@@Z:PROC ; ioAttackableItem::SetComboFlashAttack
EXTRN	?SetCollectJumpAttack@ioAttackableItem@@UAE_NPAVioBaseChar@@@Z:PROC ; ioAttackableItem::SetCollectJumpAttack
EXTRN	?SetPowerChargeJumpAttack@ioAttackableItem@@UAE_NPAVioBaseChar@@@Z:PROC ; ioAttackableItem::SetPowerChargeJumpAttack
EXTRN	?GetAttackSpeedRate@ioAttackableItem@@UBEMXZ:PROC ; ioAttackableItem::GetAttackSpeedRate
EXTRN	?GetExtraJumpSpeedRate@ioAttackableItem@@UBEMABUD3DXVECTOR3@@ABUD3DXQUATERNION@@@Z:PROC ; ioAttackableItem::GetExtraJumpSpeedRate
EXTRN	?IsEnableExtendJump@ioAttackableItem@@UAE_NXZ:PROC ; ioAttackableItem::IsEnableExtendJump
EXTRN	?RecevieExtendJumpUse@ioAttackableItem@@UAEXPAVioBaseChar@@@Z:PROC ; ioAttackableItem::RecevieExtendJumpUse
EXTRN	?HasAniFile@ioAttackableItem@@UBE_NW4AttackType@@H@Z:PROC ; ioAttackableItem::HasAniFile
EXTRN	?HasEndAniFile@ioAttackableItem@@UBE_NW4AttackType@@H@Z:PROC ; ioAttackableItem::HasEndAniFile
EXTRN	?GetAttackAttribute@ioAttackableItem@@UBEPBUAttackAttribute@@W4AttackType@@H@Z:PROC ; ioAttackableItem::GetAttackAttribute
EXTRN	?GetAniFile@ioAttackableItem@@UBEABVioHashString@@W4AttackType@@H@Z:PROC ; ioAttackableItem::GetAniFile
EXTRN	?GetAttackAniRate@ioAttackableItem@@UBEMW4AttackType@@H@Z:PROC ; ioAttackableItem::GetAttackAniRate
EXTRN	?GetEndAniFile@ioAttackableItem@@UBEABVioHashString@@W4AttackType@@H@Z:PROC ; ioAttackableItem::GetEndAniFile
EXTRN	?GetAttackEndAniRate@ioAttackableItem@@UBEMW4AttackType@@H@Z:PROC ; ioAttackableItem::GetAttackEndAniRate
EXTRN	?GetAttackAttributeIdx@ioAttackableItem@@UBEABV?$vector@UWeaponInfo@@V?$allocator@UWeaponInfo@@@std@@@std@@W4AttackType@@H@Z:PROC ; ioAttackableItem::GetAttackAttributeIdx
EXTRN	?GetForceInfoList@ioAttackableItem@@UBEABV?$vector@UForceInfo@@V?$allocator@UForceInfo@@@std@@@std@@W4AttackType@@H@Z:PROC ; ioAttackableItem::GetForceInfoList
EXTRN	?GetAttackPreDelay@ioAttackableItem@@UBEKW4AttackType@@H@Z:PROC ; ioAttackableItem::GetAttackPreDelay
EXTRN	?GetAttackAnimationDelay@ioAttackableItem@@UBEKW4AttackType@@H@Z:PROC ; ioAttackableItem::GetAttackAnimationDelay
EXTRN	?GetMaxCombo@ioAttackableItem@@UBEHXZ:PROC	; ioAttackableItem::GetMaxCombo
EXTRN	?GetExtraDashAttackMax@ioAttackableItem@@UBEHXZ:PROC ; ioAttackableItem::GetExtraDashAttackMax
EXTRN	?HasJumpEndAnimation@ioAttackableItem@@UBE_N_NPAVioBaseChar@@@Z:PROC ; ioAttackableItem::HasJumpEndAnimation
EXTRN	?GetJumpEndAnimation@ioAttackableItem@@UBEABVioHashString@@_NPAVioBaseChar@@@Z:PROC ; ioAttackableItem::GetJumpEndAnimation
EXTRN	?ClearCancelInfo@ioAttackableItem@@MAEXXZ:PROC	; ioAttackableItem::ClearCancelInfo
EXTRN	?CheckCancelReserve@ioAttackableItem@@MAEXPAVioBaseChar@@@Z:PROC ; ioAttackableItem::CheckCancelReserve
EXTRN	?SetCurAttackAniForInputJump@ioAttackableItem@@MAEXABVioHashString@@M@Z:PROC ; ioAttackableItem::SetCurAttackAniForInputJump
EXTRN	?ProcessCancel@ioAttackableItem@@MAE_NPAVioBaseChar@@@Z:PROC ; ioAttackableItem::ProcessCancel
EXTRN	?ProcessCancelBySpeicalDash@ioAttackableItem@@MAE_NPAVioBaseChar@@@Z:PROC ; ioAttackableItem::ProcessCancelBySpeicalDash
EXTRN	?SetCurAttackAniForInputDashS@ioAttackableItem@@UAEXABVioHashString@@M@Z:PROC ; ioAttackableItem::SetCurAttackAniForInputDashS
EXTRN	?CheckCancelReserveByConditionalSpecialDash@ioAttackableItem@@UAEXPAVioBaseChar@@@Z:PROC ; ioAttackableItem::CheckCancelReserveByConditionalSpecialDash
EXTRN	?IsConditionalSpecialDashReserve@ioAttackableItem@@UAE_NPAVioBaseChar@@@Z:PROC ; ioAttackableItem::IsConditionalSpecialDashReserve
EXTRN	?SetChangeConditionalSpecialDash@ioAttackableItem@@UAEXPAVioBaseChar@@W4DirKeyInput@ioUserKeyInput@@H@Z:PROC ; ioAttackableItem::SetChangeConditionalSpecialDash
EXTRN	?CheckChangeWereWolfState@ioAttackableItem@@UAE_NPAVioBaseChar@@@Z:PROC ; ioAttackableItem::CheckChangeWereWolfState
EXTRN	?SetChangeWereWolfState@ioAttackableItem@@UAEXPAVioBaseChar@@@Z:PROC ; ioAttackableItem::SetChangeWereWolfState
EXTRN	?CheckReleaseWereWolfState@ioAttackableItem@@UAE_NPAVioBaseChar@@@Z:PROC ; ioAttackableItem::CheckReleaseWereWolfState
EXTRN	?ReleseWereWolfState@ioAttackableItem@@UAEXPAVioBaseChar@@@Z:PROC ; ioAttackableItem::ReleseWereWolfState
EXTRN	?ReleseWereWolfStateByOwner@ioAttackableItem@@UAEXPAVioBaseChar@@@Z:PROC ; ioAttackableItem::ReleseWereWolfStateByOwner
EXTRN	?IncreaseChangeDamage@ioAttackableItem@@UAEXMH_N@Z:PROC ; ioAttackableItem::IncreaseChangeDamage
EXTRN	?IncreaseChangeDamageByWeapon@ioAttackableItem@@UAEXM@Z:PROC ; ioAttackableItem::IncreaseChangeDamageByWeapon
EXTRN	?CheckIncreaseChangeDamage@ioAttackableItem@@UAEXPAVioBaseChar@@@Z:PROC ; ioAttackableItem::CheckIncreaseChangeDamage
EXTRN	?DecreaseChangeDamage@ioAttackableItem@@UAEXPAVioBaseChar@@@Z:PROC ; ioAttackableItem::DecreaseChangeDamage
EXTRN	?IsEnableActionStopDelay@ioAttackableItem@@UAE_NXZ:PROC ; ioAttackableItem::IsEnableActionStopDelay
EXTRN	?InitExtraGauge@ioAttackableItem@@UAEXXZ:PROC	; ioAttackableItem::InitExtraGauge
EXTRN	?MaxExtraGauge@ioAttackableItem@@UAEXXZ:PROC	; ioAttackableItem::MaxExtraGauge
EXTRN	?GetMaxExtraGauge@ioAttackableItem@@UAEMXZ:PROC	; ioAttackableItem::GetMaxExtraGauge
EXTRN	?GetCurExtraGauge@ioAttackableItem@@UAEMXZ:PROC	; ioAttackableItem::GetCurExtraGauge
EXTRN	?SetCurExtraGauge@ioAttackableItem@@UAEXM@Z:PROC ; ioAttackableItem::SetCurExtraGauge
EXTRN	?GetAutoTargetValue@ioAttackableItem@@UAEXPAVioBaseChar@@AAM11W4AutoTargetType@@@Z:PROC ; ioAttackableItem::GetAutoTargetValue
EXTRN	?ClearAirJump@ioAttackableItem@@UAEXXZ:PROC	; ioAttackableItem::ClearAirJump
EXTRN	?SetAirJump@ioAttackableItem@@UAEXPAVioBaseChar@@HM@Z:PROC ; ioAttackableItem::SetAirJump
EXTRN	?CheckAirJump@ioAttackableItem@@UAEXPAVioBaseChar@@@Z:PROC ; ioAttackableItem::CheckAirJump
EXTRN	?EquipObjectItemByAttakable@ioAttackableItem@@UAEXPAVioBaseChar@@PAVioItem@@@Z:PROC ; ioAttackableItem::EquipObjectItemByAttakable
EXTRN	?ReleaseObjectItemByAttack@ioAttackableItem@@UAEXPAVioBaseChar@@PAVioItem@@@Z:PROC ; ioAttackableItem::ReleaseObjectItemByAttack
EXTRN	?IsBuffFlyChange@ioAttackableItem@@UAE_NPAVioBaseChar@@@Z:PROC ; ioAttackableItem::IsBuffFlyChange
EXTRN	?GetAttackStateText@ioAttackableItem@@UBEPBDXZ:PROC ; ioAttackableItem::GetAttackStateText
EXTRN	?SetJumpLandingExtraState@ioAttackableItem@@UAE_NPAVioBaseChar@@@Z:PROC ; ioAttackableItem::SetJumpLandingExtraState
EXTRN	?ReleaseObjectState@ioWeaponItem@@UAEXPAVioBaseChar@@PAVioObjectItem@@@Z:PROC ; ioWeaponItem::ReleaseObjectState
EXTRN	?IsCmdCheckEnableTime@ioWeaponItem@@UAE_NXZ:PROC ; ioWeaponItem::IsCmdCheckEnableTime
EXTRN	?IsCmdSuccess@ioWeaponItem@@UAE_NXZ:PROC	; ioWeaponItem::IsCmdSuccess
EXTRN	?IsOneTimeWeaponItem@ioWeaponItem@@UBE_NXZ:PROC	; ioWeaponItem::IsOneTimeWeaponItem
EXTRN	?GetEquipMesh@ioWeaponItem@@UBEABVioHashString@@PAVioBaseChar@@@Z:PROC ; ioWeaponItem::GetEquipMesh
EXTRN	?IsCanSendControl@ioWeaponItem@@UBE_NXZ:PROC	; ioWeaponItem::IsCanSendControl
;	COMDAT ??_R2ioItem@@8
; File c:\program files (x86)\microsoft visual studio 10.0\vc\include\xmemory
rdata$r	SEGMENT
??_R2ioItem@@8 DD FLAT:??_R1A@?0A@EA@ioItem@@8		; ioItem::`RTTI Base Class Array'
rdata$r	ENDS
;	COMDAT ??_R3ioItem@@8
rdata$r	SEGMENT
??_R3ioItem@@8 DD 00H					; ioItem::`RTTI Class Hierarchy Descriptor'
	DD	00H
	DD	01H
	DD	FLAT:??_R2ioItem@@8
rdata$r	ENDS
;	COMDAT ??_R0?AVioItem@@@8
_DATA	SEGMENT
??_R0?AVioItem@@@8 DD FLAT:??_7type_info@@6B@		; ioItem `RTTI Type Descriptor'
	DD	00H
	DB	'.?AVioItem@@', 00H
_DATA	ENDS
;	COMDAT ??_R1A@?0A@EA@ioItem@@8
rdata$r	SEGMENT
??_R1A@?0A@EA@ioItem@@8 DD FLAT:??_R0?AVioItem@@@8	; ioItem::`RTTI Base Class Descriptor at (0,-1,0,64)'
	DD	00H
	DD	00H
	DD	0ffffffffH
	DD	00H
	DD	040H
	DD	FLAT:??_R3ioItem@@8
rdata$r	ENDS
;	COMDAT ??_R2ioAttackableItem@@8
rdata$r	SEGMENT
??_R2ioAttackableItem@@8 DD FLAT:??_R1A@?0A@EA@ioAttackableItem@@8 ; ioAttackableItem::`RTTI Base Class Array'
	DD	FLAT:??_R1A@?0A@EA@ioItem@@8
rdata$r	ENDS
;	COMDAT ??_R3ioAttackableItem@@8
rdata$r	SEGMENT
??_R3ioAttackableItem@@8 DD 00H				; ioAttackableItem::`RTTI Class Hierarchy Descriptor'
	DD	00H
	DD	02H
	DD	FLAT:??_R2ioAttackableItem@@8
rdata$r	ENDS
;	COMDAT ??_R0?AVioAttackableItem@@@8
_DATA	SEGMENT
??_R0?AVioAttackableItem@@@8 DD FLAT:??_7type_info@@6B@	; ioAttackableItem `RTTI Type Descriptor'
	DD	00H
	DB	'.?AVioAttackableItem@@', 00H
_DATA	ENDS
;	COMDAT ??_R1A@?0A@EA@ioAttackableItem@@8
rdata$r	SEGMENT
??_R1A@?0A@EA@ioAttackableItem@@8 DD FLAT:??_R0?AVioAttackableItem@@@8 ; ioAttackableItem::`RTTI Base Class Descriptor at (0,-1,0,64)'
	DD	01H
	DD	00H
	DD	0ffffffffH
	DD	00H
	DD	040H
	DD	FLAT:??_R3ioAttackableItem@@8
rdata$r	ENDS
;	COMDAT ??_R2ioWeaponItem@@8
rdata$r	SEGMENT
??_R2ioWeaponItem@@8 DD FLAT:??_R1A@?0A@EA@ioWeaponItem@@8 ; ioWeaponItem::`RTTI Base Class Array'
	DD	FLAT:??_R1A@?0A@EA@ioAttackableItem@@8
	DD	FLAT:??_R1A@?0A@EA@ioItem@@8
rdata$r	ENDS
;	COMDAT ??_R3ioWeaponItem@@8
rdata$r	SEGMENT
??_R3ioWeaponItem@@8 DD 00H				; ioWeaponItem::`RTTI Class Hierarchy Descriptor'
	DD	00H
	DD	03H
	DD	FLAT:??_R2ioWeaponItem@@8
rdata$r	ENDS
;	COMDAT ??_R0?AVioWeaponItem@@@8
_DATA	SEGMENT
??_R0?AVioWeaponItem@@@8 DD FLAT:??_7type_info@@6B@	; ioWeaponItem `RTTI Type Descriptor'
	DD	00H
	DB	'.?AVioWeaponItem@@', 00H
_DATA	ENDS
;	COMDAT ??_R1A@?0A@EA@ioWeaponItem@@8
rdata$r	SEGMENT
??_R1A@?0A@EA@ioWeaponItem@@8 DD FLAT:??_R0?AVioWeaponItem@@@8 ; ioWeaponItem::`RTTI Base Class Descriptor at (0,-1,0,64)'
	DD	02H
	DD	00H
	DD	0ffffffffH
	DD	00H
	DD	040H
	DD	FLAT:??_R3ioWeaponItem@@8
rdata$r	ENDS
;	COMDAT ??_R1A@?0A@EA@ioLeeSunSin@@8
rdata$r	SEGMENT
??_R1A@?0A@EA@ioLeeSunSin@@8 DD FLAT:??_R0?AVioLeeSunSin@@@8 ; ioLeeSunSin::`RTTI Base Class Descriptor at (0,-1,0,64)'
	DD	03H
	DD	00H
	DD	0ffffffffH
	DD	00H
	DD	040H
	DD	FLAT:??_R3ioLeeSunSin@@8
rdata$r	ENDS
;	COMDAT ??_R2ioLeeSunSin@@8
rdata$r	SEGMENT
??_R2ioLeeSunSin@@8 DD FLAT:??_R1A@?0A@EA@ioLeeSunSin@@8 ; ioLeeSunSin::`RTTI Base Class Array'
	DD	FLAT:??_R1A@?0A@EA@ioWeaponItem@@8
	DD	FLAT:??_R1A@?0A@EA@ioAttackableItem@@8
	DD	FLAT:??_R1A@?0A@EA@ioItem@@8
rdata$r	ENDS
;	COMDAT ??_R3ioLeeSunSin@@8
rdata$r	SEGMENT
??_R3ioLeeSunSin@@8 DD 00H				; ioLeeSunSin::`RTTI Class Hierarchy Descriptor'
	DD	00H
	DD	04H
	DD	FLAT:??_R2ioLeeSunSin@@8
rdata$r	ENDS
;	COMDAT ??_R0?AVioLeeSunSin@@@8
_DATA	SEGMENT
??_R0?AVioLeeSunSin@@@8 DD FLAT:??_7type_info@@6B@	; ioLeeSunSin `RTTI Type Descriptor'
	DD	00H
	DB	'.?AVioLeeSunSin@@', 00H
_DATA	ENDS
;	COMDAT ??_R4ioLeeSunSin@@6B@
rdata$r	SEGMENT
??_R4ioLeeSunSin@@6B@ DD 00H				; ioLeeSunSin::`RTTI Complete Object Locator'
	DD	00H
	DD	00H
	DD	FLAT:??_R0?AVioLeeSunSin@@@8
	DD	FLAT:??_R3ioLeeSunSin@@8
rdata$r	ENDS
;	COMDAT ??_7ioLeeSunSin@@6B@
CONST	SEGMENT
??_7ioLeeSunSin@@6B@ DD FLAT:??_R4ioLeeSunSin@@6B@	; ioLeeSunSin::`vftable'
	DD	FLAT:?FindFieldEntityGrp@ioItem@@MBEABVioHashString@@XZ
	DD	FLAT:?LoadProperty@ioLeeSunSin@@UAEXAAVioINILoader@@@Z
	DD	FLAT:?GetType@ioWeaponItem@@UBE?AW4ItemType@ioItem@@XZ
	DD	FLAT:?Clone@ioLeeSunSin@@UAEPAVioItem@@XZ
	DD	FLAT:?UseCreateIndexItem@ioItem@@UBE_NXZ
	DD	FLAT:?GetSetFocusColor@ioItem@@UBEKXZ
	DD	FLAT:?Initialize@ioItem@@UAEXABVioHashString@@PAVioPlayStage@@@Z
	DD	FLAT:?InitializeBeforeEquip@ioItem@@UAEXABVioHashString@@PAVioPlayStage@@@Z
	DD	FLAT:?OnEquiped@ioLeeSunSin@@UAEXPAVioBaseChar@@@Z
	DD	FLAT:?OnReleased@ioLeeSunSin@@UAEXPAVioBaseChar@@@Z
	DD	FLAT:?SetExtendEquipEffect@ioItem@@UAEXPAVioBaseChar@@@Z
	DD	FLAT:?ReleaseExtendEquipEffect@ioItem@@UAEXPAVioBaseChar@@@Z
	DD	FLAT:?AddGlowLine@ioWeaponItem@@UAEXPAVioBaseChar@@@Z
	DD	FLAT:?RemoveGlowLine@ioWeaponItem@@UAEXPAVioBaseChar@@@Z
	DD	FLAT:?GetTargetName@ioItem@@UAE?AVioHashString@@XZ
	DD	FLAT:?ClearTarget@ioItem@@UAEXXZ
	DD	FLAT:?SetItemType@ioWeaponItem@@UAEXXZ
	DD	FLAT:?UpdateExtraData@ioLeeSunSin@@UAEXPAVioBaseChar@@@Z
	DD	FLAT:?CheckWeaponDefenseState@ioItem@@UAEXPAVioBaseChar@@@Z
	DD	FLAT:?CheckWoundedState@ioItem@@UAEXPAVioBaseChar@@@Z
	DD	FLAT:?SetVisible@ioItem@@UAEXPAVioBaseChar@@_N@Z
	DD	FLAT:?UpdateSkillGauge@ioItem@@UAEXPAVioBaseChar@@M_N@Z
	DD	FLAT:?IsEnableExtraGauge@ioItem@@UAE_NPAVioBaseChar@@@Z
	DD	FLAT:?GetExtraGauge@ioItem@@UAEMXZ
	DD	FLAT:?ReduceNeedGauge@ioItem@@UAEXMPAVioBaseChar@@@Z
	DD	FLAT:?GetCurBullet@ioLeeSunSin@@UAEHXZ
	DD	FLAT:?GetMaxBullet@ioLeeSunSin@@UAEHXZ
	DD	FLAT:?SetCurBullet@ioLeeSunSin@@UAEXH@Z
	DD	FLAT:?GetCurSecoundBullet@ioItem@@UAEHXZ
	DD	FLAT:?GetMaxSecoundBullet@ioItem@@UAEHXZ
	DD	FLAT:?SetCurSecoundBullet@ioItem@@UAEXH@Z
	DD	FLAT:?GetGrowthInfoNum@ioItem@@UBEHH@Z
	DD	FLAT:?GetGrowthInfoNumByType@ioItem@@UBEHHAAH@Z
	DD	FLAT:?ClearCurChargeRateForSkill@ioItem@@UAEXXZ
	DD	FLAT:?GetChargeDamageRateForSkill@ioItem@@UAEMXZ
	DD	FLAT:?GetChargeForceRateForSkill@ioItem@@UAEMXZ
	DD	FLAT:?GetChargeBlowRateForSkill@ioItem@@UAEMXZ
	DD	FLAT:?GetChargeRangeRateForSkill@ioItem@@UAEMXZ
	DD	FLAT:?GetChargeSpeedRateForSkill@ioItem@@UAEMXZ
	DD	FLAT:?GetChargeFloatRateForSkill@ioItem@@UAEMXZ
	DD	FLAT:?GetChargeScaleRateForSkill@ioItem@@UAEMXZ
	DD	FLAT:?GetChargeExplosionRateForSkill@ioItem@@UAEMXZ
	DD	FLAT:?GetChargeWoundedTimeRateForSkill@ioItem@@UAEMXZ
	DD	FLAT:?SetCurEquipEffect@ioItem@@UAEX_N@Z
	DD	FLAT:?SetCostume@ioItem@@UAEXH_N@Z
	DD	FLAT:??_EioLeeSunSin@@UAEPAXI@Z
	DD	FLAT:?IsCanFire@ioAttackableItem@@UBE_NPBVioBaseChar@@H_N@Z
	DD	FLAT:?CallItemProcess@ioLeeSunSin@@UAEXPAVioBaseChar@@@Z
	DD	FLAT:?SetExtraInfoToWeapon@ioLeeSunSin@@UAEXPAVioWeapon@@_N@Z
	DD	FLAT:?CheckChargeInfo@ioAttackableItem@@UAEXPAVioWeapon@@_N@Z
	DD	FLAT:?SetExtendDefenseState@ioAttackableItem@@UAE_NPAVioBaseChar@@@Z
	DD	FLAT:?CheckExtendDefenseState@ioAttackableItem@@UAEXPAVioBaseChar@@@Z
	DD	FLAT:?CheckDefenseMoveAniState@ioAttackableItem@@UAEXPAVioBaseChar@@@Z
	DD	FLAT:?SetDodgeDefenseState@ioAttackableItem@@UAE_NPAVioBaseChar@@@Z
	DD	FLAT:?CheckDodgeDefenseState@ioAttackableItem@@UAEXPAVioBaseChar@@@Z
	DD	FLAT:?ApplyDodgeDefenseState@ioAttackableItem@@UAEXPAVioBaseChar@@AAVSP2Packet@@@Z
	DD	FLAT:?SetDefenseAttackState@ioAttackableItem@@UAE_NPAVioBaseChar@@@Z
	DD	FLAT:?CheckDefenseAttackState@ioAttackableItem@@UAEXPAVioBaseChar@@@Z
	DD	FLAT:?ApplyDefenseAttackState@ioAttackableItem@@UAEXPAVioBaseChar@@AAVSP2Packet@@@Z
	DD	FLAT:?SetExtendDashState@ioAttackableItem@@UAE_NPAVioBaseChar@@@Z
	DD	FLAT:?CheckExtendDashState@ioAttackableItem@@UAEXPAVioBaseChar@@@Z
	DD	FLAT:?SetNormalAttack@ioLeeSunSin@@UAEXPAVioBaseChar@@H@Z
	DD	FLAT:?CheckNormalAttack@ioLeeSunSin@@UAEXPAVioBaseChar@@@Z
	DD	FLAT:?SetJumpAttack@ioAttackableItem@@UAE_NPAVioBaseChar@@HMW4AttackType@@@Z
	DD	FLAT:?CheckJumpAttack@ioAttackableItem@@UAEXPAVioBaseChar@@@Z
	DD	FLAT:?SetJumpReloadState@ioAttackableItem@@UAE_NPAVioBaseChar@@@Z
	DD	FLAT:?SetJumpReload@ioAttackableItem@@UAE_NPAVioBaseChar@@@Z
	DD	FLAT:?CheckJumpReloadState@ioAttackableItem@@UAEXPAVioBaseChar@@@Z
	DD	FLAT:?CheckJumpReloadReserve@ioAttackableItem@@UAEXPAVioBaseChar@@@Z
	DD	FLAT:?ProcessJumpReloadState@ioAttackableItem@@UAEXPAVioBaseChar@@@Z
	DD	FLAT:?ApplyJumpReload@ioAttackableItem@@UAEXPAVioBaseChar@@AAVSP2Packet@@@Z
	DD	FLAT:?OnItemGaugeOK@ioLeeSunSin@@UAEXPAVioBaseChar@@AAVSP2Packet@@@Z
	DD	FLAT:?OnItemGaugeCancel@ioAttackableItem@@UAEXPAVioBaseChar@@AAVSP2Packet@@@Z
	DD	FLAT:?OnEndExtendDefense@ioAttackableItem@@UAEXPAVioBaseChar@@@Z
	DD	FLAT:?OnEndNormalAttack@ioAttackableItem@@UAEXPAVioBaseChar@@@Z
	DD	FLAT:?OnEndExtendAttack@ioAttackableItem@@UAEXPAVioBaseChar@@_N@Z
	DD	FLAT:?OnEndExtendJump@ioAttackableItem@@UAEXPAVioBaseChar@@@Z
	DD	FLAT:?FillNormalAttackExtraInfo@ioAttackableItem@@UAEXAAVSP2Packet@@@Z
	DD	FLAT:?ApplyNormalAttackExtraInfo@ioAttackableItem@@UAEXAAVSP2Packet@@@Z
	DD	FLAT:?CheckOnHand@ioAttackableItem@@UAE_NXZ
	DD	FLAT:?CheckAimState@ioAttackableItem@@UAE_N_N@Z
	DD	FLAT:?SetAimState@ioAttackableItem@@UAE_NPAVioBaseChar@@@Z
	DD	FLAT:?CheckLanding@ioAttackableItem@@UAE_NPAVioBaseChar@@@Z
	DD	FLAT:?SetNoneState@ioLeeSunSin@@UAEXPAVioBaseChar@@H@Z
	DD	FLAT:?CheckExtendDefenseEnable@ioAttackableItem@@UAE_NPAVioBaseChar@@@Z
	DD	FLAT:?IsChargeAttackState@ioLeeSunSin@@UAE_NPAVioBaseChar@@@Z
	DD	FLAT:?IsMoveAttackState@ioAttackableItem@@UAE_NPAVioBaseChar@@@Z
	DD	FLAT:?IsCanUpdateGauge@ioAttackableItem@@UAE_NPAVioBaseChar@@@Z
	DD	FLAT:?IsNoGhostWalk@ioAttackableItem@@UAE_NPAVioBaseChar@@@Z
	DD	FLAT:?IsEnableAttackDashCheck@ioLeeSunSin@@UAE_NPAVioBaseChar@@_N@Z
	DD	FLAT:?IsEnableItemDashCheck@ioAttackableItem@@UAE_NPAVioBaseChar@@_N@Z
	DD	FLAT:?IsEnableAttackRotateCheck@ioAttackableItem@@UAE_NPAVioBaseChar@@@Z
	DD	FLAT:?IsEnableChargeDefenseCheck@ioAttackableItem@@UAE_NXZ
	DD	FLAT:?CheckAimJumpState@ioAttackableItem@@UAEXPAVioBaseChar@@@Z
	DD	FLAT:?GetJumppingAnimation@ioAttackableItem@@UBEABVioHashString@@XZ
	DD	FLAT:?GetExtendJumppingAnimation@ioAttackableItem@@UBEABVioHashString@@XZ
	DD	FLAT:?CheckRetreatState@ioAttackableItem@@UAEXPAVioBaseChar@@@Z
	DD	FLAT:?SetNextItemState@ioAttackableItem@@UAEXPAVioBaseChar@@0PAVioWeapon@@_NM@Z
	DD	FLAT:?WeaponWounded@ioWeaponItem@@UAEXPAVioWeapon@@PAVioBaseChar@@@Z
	DD	FLAT:?WeaponMapColDead@ioAttackableItem@@UAEXPAVioWeapon@@@Z
	DD	FLAT:?SetDefenceCounterState@ioAttackableItem@@UAEXPAVioBaseChar@@@Z
	DD	FLAT:?IsUseDefenceCounterAttack@ioAttackableItem@@UAE_NXZ
	DD	FLAT:?ProcessDefenceCounterAttack@ioAttackableItem@@UAEXPAVioBaseChar@@@Z
	DD	FLAT:?IsUseDefenceCounterAttackEndDash@ioAttackableItem@@UAE_NXZ
	DD	FLAT:?ProcessExtraJump@ioAttackableItem@@UAEXPAVioBaseChar@@@Z
	DD	FLAT:?SetEndGrappling@ioAttackableItem@@UAEXPAVioBaseChar@@@Z
	DD	FLAT:?ClearKeyReserve@ioAttackableItem@@MAEXXZ
	DD	FLAT:?CheckReserve@ioAttackableItem@@MAEXPAVioBaseChar@@@Z
	DD	FLAT:?ProcessReserveKeyInput@ioAttackableItem@@MAEXPAVioBaseChar@@@Z
	DD	FLAT:?SetJumpState@ioAttackableItem@@UAEXXZ
	DD	FLAT:?SetJumpping@ioAttackableItem@@UAEXPAVioBaseChar@@_N@Z
	DD	FLAT:?ProcessJumpping@ioAttackableItem@@UAEXPAVioBaseChar@@M@Z
	DD	FLAT:?ProcessJumppingByNoNeedProcess@ioAttackableItem@@UAEXPAVioBaseChar@@M@Z
	DD	FLAT:?ProcessLanding@ioAttackableItem@@UAEXPAVioBaseChar@@@Z
	DD	FLAT:?ProcessJumpAttack@ioAttackableItem@@UAEXPAVioBaseChar@@M@Z
	DD	FLAT:?ProcessAimJump@ioAttackableItem@@UAE_NPAVioBaseChar@@M@Z
	DD	FLAT:?ApplyJump@ioAttackableItem@@UAEXPAVioBaseChar@@AAVSP2Packet@@@Z
	DD	FLAT:?ApplyDash@ioAttackableItem@@UAEXPAVioBaseChar@@AAVSP2Packet@@@Z
	DD	FLAT:?ApplyCounterAttack@ioAttackableItem@@UAEXPAVioBaseChar@@AAVSP2Packet@@@Z
	DD	FLAT:?CheckComboJumpAttack@ioAttackableItem@@UAEXPAVioBaseChar@@@Z
	DD	FLAT:?SetFlashJumpAttack@ioAttackableItem@@UAE_NPAVioBaseChar@@@Z
	DD	FLAT:?SetComboFlashAttack@ioAttackableItem@@UAE_NPAVioBaseChar@@@Z
	DD	FLAT:?SetCollectJumpAttack@ioAttackableItem@@UAE_NPAVioBaseChar@@@Z
	DD	FLAT:?SetPowerChargeJumpAttack@ioAttackableItem@@UAE_NPAVioBaseChar@@@Z
	DD	FLAT:?GetAttackSpeedRate@ioAttackableItem@@UBEMXZ
	DD	FLAT:?GetExtraJumpSpeedRate@ioAttackableItem@@UBEMABUD3DXVECTOR3@@ABUD3DXQUATERNION@@@Z
	DD	FLAT:?IsEnableExtendJump@ioAttackableItem@@UAE_NXZ
	DD	FLAT:?RecevieExtendJumpUse@ioAttackableItem@@UAEXPAVioBaseChar@@@Z
	DD	FLAT:?HasAniFile@ioAttackableItem@@UBE_NW4AttackType@@H@Z
	DD	FLAT:?HasEndAniFile@ioAttackableItem@@UBE_NW4AttackType@@H@Z
	DD	FLAT:?GetAttackAttribute@ioAttackableItem@@UBEPBUAttackAttribute@@W4AttackType@@H@Z
	DD	FLAT:?GetAniFile@ioAttackableItem@@UBEABVioHashString@@W4AttackType@@H@Z
	DD	FLAT:?GetAttackAniRate@ioAttackableItem@@UBEMW4AttackType@@H@Z
	DD	FLAT:?GetEndAniFile@ioAttackableItem@@UBEABVioHashString@@W4AttackType@@H@Z
	DD	FLAT:?GetAttackEndAniRate@ioAttackableItem@@UBEMW4AttackType@@H@Z
	DD	FLAT:?GetAttackAttributeIdx@ioAttackableItem@@UBEABV?$vector@UWeaponInfo@@V?$allocator@UWeaponInfo@@@std@@@std@@W4AttackType@@H@Z
	DD	FLAT:?GetForceInfoList@ioAttackableItem@@UBEABV?$vector@UForceInfo@@V?$allocator@UForceInfo@@@std@@@std@@W4AttackType@@H@Z
	DD	FLAT:?GetAttackPreDelay@ioAttackableItem@@UBEKW4AttackType@@H@Z
	DD	FLAT:?GetAttackAnimationDelay@ioAttackableItem@@UBEKW4AttackType@@H@Z
	DD	FLAT:?GetMaxCombo@ioAttackableItem@@UBEHXZ
	DD	FLAT:?GetExtraDashAttackMax@ioAttackableItem@@UBEHXZ
	DD	FLAT:?HasJumpEndAnimation@ioAttackableItem@@UBE_N_NPAVioBaseChar@@@Z
	DD	FLAT:?GetJumpEndAnimation@ioAttackableItem@@UBEABVioHashString@@_NPAVioBaseChar@@@Z
	DD	FLAT:?ClearCancelInfo@ioAttackableItem@@MAEXXZ
	DD	FLAT:?CheckCancelReserve@ioAttackableItem@@MAEXPAVioBaseChar@@@Z
	DD	FLAT:?SetCurAttackAniForInputJump@ioAttackableItem@@MAEXABVioHashString@@M@Z
	DD	FLAT:?ProcessCancel@ioAttackableItem@@MAE_NPAVioBaseChar@@@Z
	DD	FLAT:?ProcessCancelBySpeicalDash@ioAttackableItem@@MAE_NPAVioBaseChar@@@Z
	DD	FLAT:?SetCurAttackAniForInputDashS@ioAttackableItem@@UAEXABVioHashString@@M@Z
	DD	FLAT:?CheckCancelReserveByConditionalSpecialDash@ioAttackableItem@@UAEXPAVioBaseChar@@@Z
	DD	FLAT:?IsConditionalSpecialDashReserve@ioAttackableItem@@UAE_NPAVioBaseChar@@@Z
	DD	FLAT:?SetChangeConditionalSpecialDash@ioAttackableItem@@UAEXPAVioBaseChar@@W4DirKeyInput@ioUserKeyInput@@H@Z
	DD	FLAT:?CheckChangeWereWolfState@ioAttackableItem@@UAE_NPAVioBaseChar@@@Z
	DD	FLAT:?SetChangeWereWolfState@ioAttackableItem@@UAEXPAVioBaseChar@@@Z
	DD	FLAT:?CheckReleaseWereWolfState@ioAttackableItem@@UAE_NPAVioBaseChar@@@Z
	DD	FLAT:?ReleseWereWolfState@ioAttackableItem@@UAEXPAVioBaseChar@@@Z
	DD	FLAT:?ReleseWereWolfStateByOwner@ioAttackableItem@@UAEXPAVioBaseChar@@@Z
	DD	FLAT:?IncreaseChangeDamage@ioAttackableItem@@UAEXMH_N@Z
	DD	FLAT:?IncreaseChangeDamageByWeapon@ioAttackableItem@@UAEXM@Z
	DD	FLAT:?CheckIncreaseChangeDamage@ioAttackableItem@@UAEXPAVioBaseChar@@@Z
	DD	FLAT:?DecreaseChangeDamage@ioAttackableItem@@UAEXPAVioBaseChar@@@Z
	DD	FLAT:?IsEnableActionStopDelay@ioAttackableItem@@UAE_NXZ
	DD	FLAT:?SetExtraGaugeTypeByWeapon@ioLeeSunSin@@UAEXPAVioBaseChar@@HHM@Z
	DD	FLAT:?SetUseExtraGauge@ioLeeSunSin@@UAEXM@Z
	DD	FLAT:?InitExtraGauge@ioAttackableItem@@UAEXXZ
	DD	FLAT:?MaxExtraGauge@ioAttackableItem@@UAEXXZ
	DD	FLAT:?GetMaxExtraGauge@ioAttackableItem@@UAEMXZ
	DD	FLAT:?GetCurExtraGauge@ioAttackableItem@@UAEMXZ
	DD	FLAT:?SetCurExtraGauge@ioAttackableItem@@UAEXM@Z
	DD	FLAT:?GetAutoTargetValue@ioAttackableItem@@UAEXPAVioBaseChar@@AAM11W4AutoTargetType@@@Z
	DD	FLAT:?ClearAirJump@ioAttackableItem@@UAEXXZ
	DD	FLAT:?SetAirJump@ioAttackableItem@@UAEXPAVioBaseChar@@HM@Z
	DD	FLAT:?CheckAirJump@ioAttackableItem@@UAEXPAVioBaseChar@@@Z
	DD	FLAT:?IsAutoTarget@ioAttackableItem@@UBE_NXZ
	DD	FLAT:?EquipObjectItemByAttakable@ioAttackableItem@@UAEXPAVioBaseChar@@PAVioItem@@@Z
	DD	FLAT:?ReleaseObjectItemByAttack@ioAttackableItem@@UAEXPAVioBaseChar@@PAVioItem@@@Z
	DD	FLAT:?IsBuffFlyChange@ioAttackableItem@@UAE_NPAVioBaseChar@@@Z
	DD	FLAT:?GetAttackStateText@ioAttackableItem@@UBEPBDXZ
	DD	FLAT:?SetJumpLandingExtraState@ioAttackableItem@@UAE_NPAVioBaseChar@@@Z
	DD	FLAT:?IsWoundAfterUseExtendState@ioLeeSunSin@@UAE_NXZ
	DD	FLAT:?CheckWoundAfterUseExtendState@ioLeeSunSin@@UAE_NPAVioBaseChar@@W4BlowTargetType@@@Z
	DD	FLAT:?IsCharSkipState@ioAttackableItem@@UAE_NPBVioBaseChar@@@Z
	DD	FLAT:?ReleaseObjectState@ioWeaponItem@@UAEXPAVioBaseChar@@PAVioObjectItem@@@Z
	DD	FLAT:?IsCmdCheckEnableTime@ioWeaponItem@@UAE_NXZ
	DD	FLAT:?IsCmdSuccess@ioWeaponItem@@UAE_NXZ
	DD	FLAT:?IsOneTimeWeaponItem@ioWeaponItem@@UBE_NXZ
	DD	FLAT:?GetEquipMesh@ioWeaponItem@@UBEABVioHashString@@PAVioBaseChar@@@Z
	DD	FLAT:?IsCanSendControl@ioWeaponItem@@UBE_NXZ
	DD	FLAT:?GetSubType@ioLeeSunSin@@UBE?AW4WeaponSubType@ioWeaponItem@@XZ
CONST	ENDS
;	COMDAT xdata$x
xdata$x	SEGMENT
__ehfuncinfo$??0ioLeeSunSin@@QAE@XZ DD 019930522H
	DD	0bH
	DD	FLAT:__unwindtable$??0ioLeeSunSin@@QAE@XZ
	DD	2 DUP(00H)
	DD	2 DUP(00H)
	DD	00H
	DD	01H
__unwindtable$??0ioLeeSunSin@@QAE@XZ DD 0ffffffffH
	DD	FLAT:__unwindfunclet$??0ioLeeSunSin@@QAE@XZ$0
	DD	00H
	DD	FLAT:__unwindfunclet$??0ioLeeSunSin@@QAE@XZ$1
	DD	01H
	DD	FLAT:__unwindfunclet$??0ioLeeSunSin@@QAE@XZ$2
	DD	02H
	DD	FLAT:__unwindfunclet$??0ioLeeSunSin@@QAE@XZ$3
	DD	03H
	DD	FLAT:__unwindfunclet$??0ioLeeSunSin@@QAE@XZ$4
	DD	04H
	DD	FLAT:__unwindfunclet$??0ioLeeSunSin@@QAE@XZ$5
	DD	05H
	DD	FLAT:__unwindfunclet$??0ioLeeSunSin@@QAE@XZ$6
	DD	06H
	DD	FLAT:__unwindfunclet$??0ioLeeSunSin@@QAE@XZ$7
	DD	07H
	DD	FLAT:__unwindfunclet$??0ioLeeSunSin@@QAE@XZ$8
	DD	08H
	DD	FLAT:__unwindfunclet$??0ioLeeSunSin@@QAE@XZ$9
	DD	09H
	DD	FLAT:__unwindfunclet$??0ioLeeSunSin@@QAE@XZ$10
; Function compile flags: /Ogsp
; File d:\lost saga for developer\youtube\tutorial\source\src\lsclient\ioleesunsin.cpp
xdata$x	ENDS
;	COMDAT ??0ioLeeSunSin@@QAE@XZ
_TEXT	SEGMENT
_this$ = -16						; size = 4
__$EHRec$ = -12						; size = 12
??0ioLeeSunSin@@QAE@XZ PROC				; ioLeeSunSin::ioLeeSunSin, COMDAT
; _this$ = ecx

; 13   : {

  00000	6a 04		 push	 4
  00002	b8 00 00 00 00	 mov	 eax, __ehhandler$??0ioLeeSunSin@@QAE@XZ
  00007	e8 00 00 00 00	 call	 __EH_prolog3
  0000c	8b f1		 mov	 esi, ecx
  0000e	89 75 f0	 mov	 DWORD PTR _this$[ebp], esi
  00011	e8 00 00 00 00	 call	 ??0ioWeaponItem@@QAE@XZ	; ioWeaponItem::ioWeaponItem
  00016	33 db		 xor	 ebx, ebx
  00018	8d 8e 64 19 00
	00		 lea	 ecx, DWORD PTR [esi+6500]
  0001e	89 5d fc	 mov	 DWORD PTR __$EHRec$[ebp+8], ebx
  00021	c7 06 00 00 00
	00		 mov	 DWORD PTR [esi], OFFSET ??_7ioLeeSunSin@@6B@
  00027	e8 00 00 00 00	 call	 ??0?$CEncrypt@M@@QAE@XZ	; CEncrypt<float>::CEncrypt<float>
  0002c	8d 8e 94 19 00
	00		 lea	 ecx, DWORD PTR [esi+6548]
  00032	c6 45 fc 01	 mov	 BYTE PTR __$EHRec$[ebp+8], 1
  00036	e8 00 00 00 00	 call	 ??0?$CEncrypt@M@@QAE@XZ	; CEncrypt<float>::CEncrypt<float>
  0003b	8b 3d 00 00 00
	00		 mov	 edi, DWORD PTR __imp_??0ioHashString@@QAE@XZ
  00041	8d 8e c4 19 00
	00		 lea	 ecx, DWORD PTR [esi+6596]
  00047	c6 45 fc 02	 mov	 BYTE PTR __$EHRec$[ebp+8], 2
  0004b	ff d7		 call	 edi
  0004d	8d 8e d4 19 00
	00		 lea	 ecx, DWORD PTR [esi+6612]
  00053	c6 45 fc 03	 mov	 BYTE PTR __$EHRec$[ebp+8], 3
  00057	ff d7		 call	 edi
  00059	8d 8e e4 19 00
	00		 lea	 ecx, DWORD PTR [esi+6628]
  0005f	c6 45 fc 04	 mov	 BYTE PTR __$EHRec$[ebp+8], 4
  00063	ff d7		 call	 edi
  00065	8d 8e f4 19 00
	00		 lea	 ecx, DWORD PTR [esi+6644]
  0006b	c6 45 fc 05	 mov	 BYTE PTR __$EHRec$[ebp+8], 5
  0006f	ff d7		 call	 edi
  00071	8d 8e 10 1a 00
	00		 lea	 ecx, DWORD PTR [esi+6672]
  00077	c6 45 fc 06	 mov	 BYTE PTR __$EHRec$[ebp+8], 6
  0007b	e8 00 00 00 00	 call	 ??0AttackAttribute@@QAE@XZ ; AttackAttribute::AttackAttribute
  00080	8d 8e 60 1a 00
	00		 lea	 ecx, DWORD PTR [esi+6752]
  00086	c6 45 fc 07	 mov	 BYTE PTR __$EHRec$[ebp+8], 7
  0008a	e8 00 00 00 00	 call	 ??0AttackAttribute@@QAE@XZ ; AttackAttribute::AttackAttribute
  0008f	8d 8e b0 1a 00
	00		 lea	 ecx, DWORD PTR [esi+6832]
  00095	c6 45 fc 08	 mov	 BYTE PTR __$EHRec$[ebp+8], 8
  00099	e8 00 00 00 00	 call	 ??0AttackAttribute@@QAE@XZ ; AttackAttribute::AttackAttribute
  0009e	8d 8e 00 1b 00
	00		 lea	 ecx, DWORD PTR [esi+6912]
  000a4	c6 45 fc 09	 mov	 BYTE PTR __$EHRec$[ebp+8], 9
  000a8	e8 00 00 00 00	 call	 ??0AttackAttribute@@QAE@XZ ; AttackAttribute::AttackAttribute
  000ad	8d 8e 50 1b 00
	00		 lea	 ecx, DWORD PTR [esi+6992]
  000b3	c6 45 fc 0a	 mov	 BYTE PTR __$EHRec$[ebp+8], 10 ; 0000000aH
  000b7	e8 00 00 00 00	 call	 ??0AttackAttribute@@QAE@XZ ; AttackAttribute::AttackAttribute
  000bc	89 9e bc 1b 00
	00		 mov	 DWORD PTR [esi+7100], ebx
  000c2	89 9e c0 1b 00
	00		 mov	 DWORD PTR [esi+7104], ebx
  000c8	89 9e c4 1b 00
	00		 mov	 DWORD PTR [esi+7108], ebx

; 14   : 
; 15   : 	Init();

  000ce	8b ce		 mov	 ecx, esi
  000d0	89 9e cc 1b 00
	00		 mov	 DWORD PTR [esi+7116], ebx
  000d6	89 9e d0 1b 00
	00		 mov	 DWORD PTR [esi+7120], ebx
  000dc	89 9e d4 1b 00
	00		 mov	 DWORD PTR [esi+7124], ebx
  000e2	e8 00 00 00 00	 call	 ?Init@ioLeeSunSin@@QAEXXZ ; ioLeeSunSin::Init

; 16   : }

  000e7	8b c6		 mov	 eax, esi
  000e9	e8 00 00 00 00	 call	 __EH_epilog3
  000ee	c3		 ret	 0
_TEXT	ENDS
;	COMDAT text$x
text$x	SEGMENT
__unwindfunclet$??0ioLeeSunSin@@QAE@XZ$0:
  00000	8b 4d f0	 mov	 ecx, DWORD PTR _this$[ebp]
  00003	e9 00 00 00 00	 jmp	 ??1ioWeaponItem@@UAE@XZ	; ioWeaponItem::~ioWeaponItem
__unwindfunclet$??0ioLeeSunSin@@QAE@XZ$1:
  00008	8b 4d f0	 mov	 ecx, DWORD PTR _this$[ebp]
  0000b	81 c1 64 19 00
	00		 add	 ecx, 6500		; 00001964H
  00011	e9 00 00 00 00	 jmp	 ??1?$CEncrypt@M@@UAE@XZ	; CEncrypt<float>::~CEncrypt<float>
__unwindfunclet$??0ioLeeSunSin@@QAE@XZ$2:
  00016	8b 4d f0	 mov	 ecx, DWORD PTR _this$[ebp]
  00019	81 c1 94 19 00
	00		 add	 ecx, 6548		; 00001994H
  0001f	e9 00 00 00 00	 jmp	 ??1?$CEncrypt@M@@UAE@XZ	; CEncrypt<float>::~CEncrypt<float>
__unwindfunclet$??0ioLeeSunSin@@QAE@XZ$3:
  00024	8b 4d f0	 mov	 ecx, DWORD PTR _this$[ebp]
  00027	81 c1 c4 19 00
	00		 add	 ecx, 6596		; 000019c4H
  0002d	ff 25 00 00 00
	00		 jmp	 DWORD PTR __imp_??1ioHashString@@QAE@XZ
__unwindfunclet$??0ioLeeSunSin@@QAE@XZ$4:
  00033	8b 4d f0	 mov	 ecx, DWORD PTR _this$[ebp]
  00036	81 c1 d4 19 00
	00		 add	 ecx, 6612		; 000019d4H
  0003c	ff 25 00 00 00
	00		 jmp	 DWORD PTR __imp_??1ioHashString@@QAE@XZ
__unwindfunclet$??0ioLeeSunSin@@QAE@XZ$5:
  00042	8b 4d f0	 mov	 ecx, DWORD PTR _this$[ebp]
  00045	81 c1 e4 19 00
	00		 add	 ecx, 6628		; 000019e4H
  0004b	ff 25 00 00 00
	00		 jmp	 DWORD PTR __imp_??1ioHashString@@QAE@XZ
__unwindfunclet$??0ioLeeSunSin@@QAE@XZ$6:
  00051	8b 4d f0	 mov	 ecx, DWORD PTR _this$[ebp]
  00054	81 c1 f4 19 00
	00		 add	 ecx, 6644		; 000019f4H
  0005a	ff 25 00 00 00
	00		 jmp	 DWORD PTR __imp_??1ioHashString@@QAE@XZ
__unwindfunclet$??0ioLeeSunSin@@QAE@XZ$7:
  00060	8b 4d f0	 mov	 ecx, DWORD PTR _this$[ebp]
  00063	81 c1 10 1a 00
	00		 add	 ecx, 6672		; 00001a10H
  00069	e9 00 00 00 00	 jmp	 ??1AttackAttribute@@QAE@XZ
__unwindfunclet$??0ioLeeSunSin@@QAE@XZ$8:
  0006e	8b 4d f0	 mov	 ecx, DWORD PTR _this$[ebp]
  00071	81 c1 60 1a 00
	00		 add	 ecx, 6752		; 00001a60H
  00077	e9 00 00 00 00	 jmp	 ??1AttackAttribute@@QAE@XZ
__unwindfunclet$??0ioLeeSunSin@@QAE@XZ$9:
  0007c	8b 4d f0	 mov	 ecx, DWORD PTR _this$[ebp]
  0007f	81 c1 b0 1a 00
	00		 add	 ecx, 6832		; 00001ab0H
  00085	e9 00 00 00 00	 jmp	 ??1AttackAttribute@@QAE@XZ
__unwindfunclet$??0ioLeeSunSin@@QAE@XZ$10:
  0008a	8b 4d f0	 mov	 ecx, DWORD PTR _this$[ebp]
  0008d	81 c1 00 1b 00
	00		 add	 ecx, 6912		; 00001b00H
  00093	e9 00 00 00 00	 jmp	 ??1AttackAttribute@@QAE@XZ
__ehhandler$??0ioLeeSunSin@@QAE@XZ:
  00098	8b 54 24 08	 mov	 edx, DWORD PTR [esp+8]
  0009c	8d 42 0c	 lea	 eax, DWORD PTR [edx+12]
  0009f	8b 4a ec	 mov	 ecx, DWORD PTR [edx-20]
  000a2	33 c8		 xor	 ecx, eax
  000a4	e8 00 00 00 00	 call	 @__security_check_cookie@4
  000a9	b8 00 00 00 00	 mov	 eax, OFFSET __ehfuncinfo$??0ioLeeSunSin@@QAE@XZ
  000ae	e9 00 00 00 00	 jmp	 ___CxxFrameHandler3
text$x	ENDS
??0ioLeeSunSin@@QAE@XZ ENDP				; ioLeeSunSin::ioLeeSunSin
; Function compile flags: /Ogsp
; File d:\lost saga for developer\youtube\tutorial\source\src\lsclient\ioleesunsin.h
;	COMDAT ?IsWoundAfterUseExtendState@ioLeeSunSin@@UAE_NXZ
_TEXT	SEGMENT
?IsWoundAfterUseExtendState@ioLeeSunSin@@UAE_NXZ PROC	; ioLeeSunSin::IsWoundAfterUseExtendState, COMDAT
; _this$ = ecx

; 156  : 	virtual bool IsWoundAfterUseExtendState(){ return true; }

  00000	b0 01		 mov	 al, 1
  00002	c3		 ret	 0
?IsWoundAfterUseExtendState@ioLeeSunSin@@UAE_NXZ ENDP	; ioLeeSunSin::IsWoundAfterUseExtendState
_TEXT	ENDS
PUBLIC	?return1@@YAIXZ					; return1
; Function compile flags: /Ogsp
; File d:\lost saga for developer\youtube\tutorial\source\src\lsclient\stdafx.h
;	COMDAT ?return1@@YAIXZ
_TEXT	SEGMENT
?return1@@YAIXZ PROC					; return1, COMDAT

; 17   : 	__forceinline unsigned int return1() { __asm mov eax, 1 };

  00000	b8 01 00 00 00	 mov	 eax, 1
  00005	c3		 ret	 0
?return1@@YAIXZ ENDP					; return1
; Function compile flags: /Ogsp
; File d:\lost saga for developer\youtube\tutorial\source\src\lsclient\ioitem.h
_TEXT	ENDS
;	COMDAT ?IsEnableExtraGauge@ioItem@@UAE_NPAVioBaseChar@@@Z
_TEXT	SEGMENT
_pChar$ = 8						; size = 4
?IsEnableExtraGauge@ioItem@@UAE_NPAVioBaseChar@@@Z PROC	; ioItem::IsEnableExtraGauge, COMDAT
; _this$ = ecx

; 375  : 	virtual bool IsEnableExtraGauge( ioBaseChar *pChar ) { return true; }

  00000	b0 01		 mov	 al, 1
  00002	c2 04 00	 ret	 4
?IsEnableExtraGauge@ioItem@@UAE_NPAVioBaseChar@@@Z ENDP	; ioItem::IsEnableExtraGauge
; Function compile flags: /Ogsp
_TEXT	ENDS
;	COMDAT ?GetExtraGauge@ioItem@@UAEMXZ
_TEXT	SEGMENT
tv64 = -4						; size = 4
?GetExtraGauge@ioItem@@UAEMXZ PROC			; ioItem::GetExtraGauge, COMDAT
; _this$ = ecx

; 376  : 	virtual float GetExtraGauge() { return FLOAT1; }

  00000	55		 push	 ebp
  00001	8b ec		 mov	 ebp, esp
  00003	51		 push	 ecx
  00004	b8 01 00 00 00	 mov	 eax, 1
  00009	89 45 fc	 mov	 DWORD PTR tv64[ebp], eax
  0000c	db 45 fc	 fild	 DWORD PTR tv64[ebp]
  0000f	85 c0		 test	 eax, eax
  00011	79 06		 jns	 SHORT $LN5@GetExtraGa
  00013	d8 05 00 00 00
	00		 fadd	 DWORD PTR __real@4f800000
$LN5@GetExtraGa:
  00019	c9		 leave
  0001a	c3		 ret	 0
?GetExtraGauge@ioItem@@UAEMXZ ENDP			; ioItem::GetExtraGauge
; Function compile flags: /Ogsp
; File d:\lost saga for developer\youtube\tutorial\source\src\lsclient\ioattackableitem.h
_TEXT	ENDS
;	COMDAT ?CheckOnHand@ioAttackableItem@@UAE_NXZ
_TEXT	SEGMENT
?CheckOnHand@ioAttackableItem@@UAE_NXZ PROC		; ioAttackableItem::CheckOnHand, COMDAT
; _this$ = ecx

; 429  : 	virtual bool CheckOnHand() { return false; }

  00000	32 c0		 xor	 al, al
  00002	c3		 ret	 0
?CheckOnHand@ioAttackableItem@@UAE_NXZ ENDP		; ioAttackableItem::CheckOnHand
; Function compile flags: /Ogsp
_TEXT	ENDS
;	COMDAT ?CheckAimState@ioAttackableItem@@UAE_N_N@Z
_TEXT	SEGMENT
_bAimMove$ = 8						; size = 1
?CheckAimState@ioAttackableItem@@UAE_N_N@Z PROC		; ioAttackableItem::CheckAimState, COMDAT
; _this$ = ecx

; 430  : 	virtual bool CheckAimState( bool bAimMove = false ) { return false; }

  00000	32 c0		 xor	 al, al
  00002	c2 04 00	 ret	 4
?CheckAimState@ioAttackableItem@@UAE_N_N@Z ENDP		; ioAttackableItem::CheckAimState
; Function compile flags: /Ogsp
_TEXT	ENDS
;	COMDAT ?SetAimState@ioAttackableItem@@UAE_NPAVioBaseChar@@@Z
_TEXT	SEGMENT
_pChar$ = 8						; size = 4
?SetAimState@ioAttackableItem@@UAE_NPAVioBaseChar@@@Z PROC ; ioAttackableItem::SetAimState, COMDAT
; _this$ = ecx

; 431  : 	virtual bool SetAimState( ioBaseChar *pChar ) { return false; }

  00000	32 c0		 xor	 al, al
  00002	c2 04 00	 ret	 4
?SetAimState@ioAttackableItem@@UAE_NPAVioBaseChar@@@Z ENDP ; ioAttackableItem::SetAimState
; Function compile flags: /Ogsp
_TEXT	ENDS
;	COMDAT ?CheckExtendDefenseEnable@ioAttackableItem@@UAE_NPAVioBaseChar@@@Z
_TEXT	SEGMENT
_pChar$ = 8						; size = 4
?CheckExtendDefenseEnable@ioAttackableItem@@UAE_NPAVioBaseChar@@@Z PROC ; ioAttackableItem::CheckExtendDefenseEnable, COMDAT
; _this$ = ecx

; 434  : 	virtual bool CheckExtendDefenseEnable( ioBaseChar *pChar ) { return true; }

  00000	b0 01		 mov	 al, 1
  00002	c2 04 00	 ret	 4
?CheckExtendDefenseEnable@ioAttackableItem@@UAE_NPAVioBaseChar@@@Z ENDP ; ioAttackableItem::CheckExtendDefenseEnable
; Function compile flags: /Ogsp
_TEXT	ENDS
;	COMDAT ?IsMoveAttackState@ioAttackableItem@@UAE_NPAVioBaseChar@@@Z
_TEXT	SEGMENT
_pOwner$ = 8						; size = 4
?IsMoveAttackState@ioAttackableItem@@UAE_NPAVioBaseChar@@@Z PROC ; ioAttackableItem::IsMoveAttackState, COMDAT
; _this$ = ecx

; 437  : 	virtual bool IsMoveAttackState( ioBaseChar *pOwner ) { return false; }

  00000	32 c0		 xor	 al, al
  00002	c2 04 00	 ret	 4
?IsMoveAttackState@ioAttackableItem@@UAE_NPAVioBaseChar@@@Z ENDP ; ioAttackableItem::IsMoveAttackState
; Function compile flags: /Ogsp
_TEXT	ENDS
;	COMDAT ?IsNoGhostWalk@ioAttackableItem@@UAE_NPAVioBaseChar@@@Z
_TEXT	SEGMENT
_pOwner$ = 8						; size = 4
?IsNoGhostWalk@ioAttackableItem@@UAE_NPAVioBaseChar@@@Z PROC ; ioAttackableItem::IsNoGhostWalk, COMDAT
; _this$ = ecx

; 439  : 	virtual bool IsNoGhostWalk( ioBaseChar *pOwner ) { return false; }

  00000	32 c0		 xor	 al, al
  00002	c2 04 00	 ret	 4
?IsNoGhostWalk@ioAttackableItem@@UAE_NPAVioBaseChar@@@Z ENDP ; ioAttackableItem::IsNoGhostWalk
; Function compile flags: /Ogsp
_TEXT	ENDS
;	COMDAT ?IsEnableItemDashCheck@ioAttackableItem@@UAE_NPAVioBaseChar@@_N@Z
_TEXT	SEGMENT
_pOwner$ = 8						; size = 4
_bCheck$ = 12						; size = 1
?IsEnableItemDashCheck@ioAttackableItem@@UAE_NPAVioBaseChar@@_N@Z PROC ; ioAttackableItem::IsEnableItemDashCheck, COMDAT
; _this$ = ecx

; 442  : 	virtual bool IsEnableItemDashCheck( ioBaseChar *pOwner, bool bCheck ) { return false; }

  00000	32 c0		 xor	 al, al
  00002	c2 08 00	 ret	 8
?IsEnableItemDashCheck@ioAttackableItem@@UAE_NPAVioBaseChar@@_N@Z ENDP ; ioAttackableItem::IsEnableItemDashCheck
; Function compile flags: /Ogsp
_TEXT	ENDS
;	COMDAT ?IsEnableAttackRotateCheck@ioAttackableItem@@UAE_NPAVioBaseChar@@@Z
_TEXT	SEGMENT
_pOwner$ = 8						; size = 4
?IsEnableAttackRotateCheck@ioAttackableItem@@UAE_NPAVioBaseChar@@@Z PROC ; ioAttackableItem::IsEnableAttackRotateCheck, COMDAT
; _this$ = ecx

; 443  : 	virtual bool IsEnableAttackRotateCheck( ioBaseChar *pOwner ) { return false; }

  00000	32 c0		 xor	 al, al
  00002	c2 04 00	 ret	 4
?IsEnableAttackRotateCheck@ioAttackableItem@@UAE_NPAVioBaseChar@@@Z ENDP ; ioAttackableItem::IsEnableAttackRotateCheck
; Function compile flags: /Ogsp
_TEXT	ENDS
;	COMDAT ?IsEnableChargeDefenseCheck@ioAttackableItem@@UAE_NXZ
_TEXT	SEGMENT
?IsEnableChargeDefenseCheck@ioAttackableItem@@UAE_NXZ PROC ; ioAttackableItem::IsEnableChargeDefenseCheck, COMDAT
; _this$ = ecx

; 444  : 	virtual bool IsEnableChargeDefenseCheck() { return false; }

  00000	32 c0		 xor	 al, al
  00002	c3		 ret	 0
?IsEnableChargeDefenseCheck@ioAttackableItem@@UAE_NXZ ENDP ; ioAttackableItem::IsEnableChargeDefenseCheck
; Function compile flags: /Ogsp
_TEXT	ENDS
;	COMDAT ?IsUseDefenceCounterAttackEndDash@ioAttackableItem@@UAE_NXZ
_TEXT	SEGMENT
?IsUseDefenceCounterAttackEndDash@ioAttackableItem@@UAE_NXZ PROC ; ioAttackableItem::IsUseDefenceCounterAttackEndDash, COMDAT
; _this$ = ecx

; 464  : 	virtual bool IsUseDefenceCounterAttackEndDash() { return false; }

  00000	32 c0		 xor	 al, al
  00002	c3		 ret	 0
?IsUseDefenceCounterAttackEndDash@ioAttackableItem@@UAE_NXZ ENDP ; ioAttackableItem::IsUseDefenceCounterAttackEndDash
; Function compile flags: /Ogsp
_TEXT	ENDS
;	COMDAT ?IsAutoTarget@ioAttackableItem@@UBE_NXZ
_TEXT	SEGMENT
?IsAutoTarget@ioAttackableItem@@UBE_NXZ PROC		; ioAttackableItem::IsAutoTarget, COMDAT
; _this$ = ecx

; 707  : 	virtual bool IsAutoTarget() const { return true; }

  00000	b0 01		 mov	 al, 1
  00002	c3		 ret	 0
?IsAutoTarget@ioAttackableItem@@UBE_NXZ ENDP		; ioAttackableItem::IsAutoTarget
; Function compile flags: /Ogsp
_TEXT	ENDS
;	COMDAT ?IsCharSkipState@ioAttackableItem@@UAE_NPBVioBaseChar@@@Z
_TEXT	SEGMENT
_pOwner$ = 8						; size = 4
?IsCharSkipState@ioAttackableItem@@UAE_NPBVioBaseChar@@@Z PROC ; ioAttackableItem::IsCharSkipState, COMDAT
; _this$ = ecx

; 728  : 	virtual bool IsCharSkipState( const ioBaseChar* pOwner ){ return false; }

  00000	32 c0		 xor	 al, al
  00002	c2 04 00	 ret	 4
?IsCharSkipState@ioAttackableItem@@UAE_NPBVioBaseChar@@@Z ENDP ; ioAttackableItem::IsCharSkipState
_TEXT	ENDS
PUBLIC	??0ioLeeSunSin@@QAE@ABV0@@Z			; ioLeeSunSin::ioLeeSunSin
EXTRN	??0ioWeaponItem@@QAE@ABV0@@Z:PROC		; ioWeaponItem::ioWeaponItem
;	COMDAT xdata$x
; File d:\lost saga for developer\youtube\tutorial\source\src\lsclient\ioleesunsin.cpp
xdata$x	SEGMENT
__ehfuncinfo$??0ioLeeSunSin@@QAE@ABV0@@Z DD 019930522H
	DD	0dH
	DD	FLAT:__unwindtable$??0ioLeeSunSin@@QAE@ABV0@@Z
	DD	2 DUP(00H)
	DD	2 DUP(00H)
	DD	00H
	DD	01H
__unwindtable$??0ioLeeSunSin@@QAE@ABV0@@Z DD 0ffffffffH
	DD	FLAT:__unwindfunclet$??0ioLeeSunSin@@QAE@ABV0@@Z$0
	DD	00H
	DD	FLAT:__unwindfunclet$??0ioLeeSunSin@@QAE@ABV0@@Z$1
	DD	01H
	DD	FLAT:__unwindfunclet$??0ioLeeSunSin@@QAE@ABV0@@Z$2
	DD	02H
	DD	FLAT:__unwindfunclet$??0ioLeeSunSin@@QAE@ABV0@@Z$3
	DD	03H
	DD	FLAT:__unwindfunclet$??0ioLeeSunSin@@QAE@ABV0@@Z$4
	DD	04H
	DD	FLAT:__unwindfunclet$??0ioLeeSunSin@@QAE@ABV0@@Z$5
	DD	05H
	DD	FLAT:__unwindfunclet$??0ioLeeSunSin@@QAE@ABV0@@Z$6
	DD	06H
	DD	FLAT:__unwindfunclet$??0ioLeeSunSin@@QAE@ABV0@@Z$7
	DD	07H
	DD	FLAT:__unwindfunclet$??0ioLeeSunSin@@QAE@ABV0@@Z$8
	DD	08H
	DD	FLAT:__unwindfunclet$??0ioLeeSunSin@@QAE@ABV0@@Z$9
	DD	09H
	DD	FLAT:__unwindfunclet$??0ioLeeSunSin@@QAE@ABV0@@Z$10
	DD	0aH
	DD	FLAT:__unwindfunclet$??0ioLeeSunSin@@QAE@ABV0@@Z$11
	DD	0bH
	DD	FLAT:__unwindfunclet$??0ioLeeSunSin@@QAE@ABV0@@Z$12
; Function compile flags: /Ogsp
xdata$x	ENDS
;	COMDAT ??0ioLeeSunSin@@QAE@ABV0@@Z
_TEXT	SEGMENT
_this$ = -16						; size = 4
__$EHRec$ = -12						; size = 12
_rhs$ = 8						; size = 4
??0ioLeeSunSin@@QAE@ABV0@@Z PROC			; ioLeeSunSin::ioLeeSunSin, COMDAT
; _this$ = ecx

; 36   : {

  00000	6a 04		 push	 4
  00002	b8 00 00 00 00	 mov	 eax, __ehhandler$??0ioLeeSunSin@@QAE@ABV0@@Z
  00007	e8 00 00 00 00	 call	 __EH_prolog3
  0000c	8b f1		 mov	 esi, ecx
  0000e	89 75 f0	 mov	 DWORD PTR _this$[ebp], esi
  00011	8b 7d 08	 mov	 edi, DWORD PTR _rhs$[ebp]
  00014	57		 push	 edi
  00015	e8 00 00 00 00	 call	 ??0ioWeaponItem@@QAE@ABV0@@Z ; ioWeaponItem::ioWeaponItem
  0001a	83 65 fc 00	 and	 DWORD PTR __$EHRec$[ebp+8], 0
  0001e	8d 87 64 19 00
	00		 lea	 eax, DWORD PTR [edi+6500]
  00024	50		 push	 eax
  00025	8d 8e 64 19 00
	00		 lea	 ecx, DWORD PTR [esi+6500]
  0002b	c7 06 00 00 00
	00		 mov	 DWORD PTR [esi], OFFSET ??_7ioLeeSunSin@@6B@
  00031	e8 00 00 00 00	 call	 ??0?$CEncrypt@M@@QAE@ABV0@@Z ; CEncrypt<float>::CEncrypt<float>
  00036	8d 87 94 19 00
	00		 lea	 eax, DWORD PTR [edi+6548]
  0003c	50		 push	 eax
  0003d	8d 8e 94 19 00
	00		 lea	 ecx, DWORD PTR [esi+6548]
  00043	c6 45 fc 01	 mov	 BYTE PTR __$EHRec$[ebp+8], 1
  00047	e8 00 00 00 00	 call	 ??0?$CEncrypt@M@@QAE@ABV0@@Z ; CEncrypt<float>::CEncrypt<float>
  0004c	8b 1d 00 00 00
	00		 mov	 ebx, DWORD PTR __imp_??0ioHashString@@QAE@ABV0@@Z
  00052	8d 87 c4 19 00
	00		 lea	 eax, DWORD PTR [edi+6596]
  00058	50		 push	 eax
  00059	8d 8e c4 19 00
	00		 lea	 ecx, DWORD PTR [esi+6596]
  0005f	c6 45 fc 02	 mov	 BYTE PTR __$EHRec$[ebp+8], 2
  00063	ff d3		 call	 ebx
  00065	8d 87 d4 19 00
	00		 lea	 eax, DWORD PTR [edi+6612]
  0006b	50		 push	 eax
  0006c	8d 8e d4 19 00
	00		 lea	 ecx, DWORD PTR [esi+6612]
  00072	c6 45 fc 03	 mov	 BYTE PTR __$EHRec$[ebp+8], 3
  00076	ff d3		 call	 ebx
  00078	8d 87 e4 19 00
	00		 lea	 eax, DWORD PTR [edi+6628]
  0007e	50		 push	 eax
  0007f	8d 8e e4 19 00
	00		 lea	 ecx, DWORD PTR [esi+6628]
  00085	c6 45 fc 04	 mov	 BYTE PTR __$EHRec$[ebp+8], 4
  00089	ff d3		 call	 ebx
  0008b	8d 87 f4 19 00
	00		 lea	 eax, DWORD PTR [edi+6644]
  00091	50		 push	 eax
  00092	8d 8e f4 19 00
	00		 lea	 ecx, DWORD PTR [esi+6644]
  00098	c6 45 fc 05	 mov	 BYTE PTR __$EHRec$[ebp+8], 5
  0009c	ff d3		 call	 ebx
  0009e	8d 87 10 1a 00
	00		 lea	 eax, DWORD PTR [edi+6672]
  000a4	50		 push	 eax
  000a5	8d 8e 10 1a 00
	00		 lea	 ecx, DWORD PTR [esi+6672]
  000ab	c6 45 fc 06	 mov	 BYTE PTR __$EHRec$[ebp+8], 6
  000af	e8 00 00 00 00	 call	 ??0AttackAttribute@@QAE@ABU0@@Z
  000b4	8d 87 60 1a 00
	00		 lea	 eax, DWORD PTR [edi+6752]
  000ba	50		 push	 eax
  000bb	8d 8e 60 1a 00
	00		 lea	 ecx, DWORD PTR [esi+6752]
  000c1	c6 45 fc 07	 mov	 BYTE PTR __$EHRec$[ebp+8], 7
  000c5	e8 00 00 00 00	 call	 ??0AttackAttribute@@QAE@ABU0@@Z
  000ca	8d 87 b0 1a 00
	00		 lea	 eax, DWORD PTR [edi+6832]
  000d0	50		 push	 eax
  000d1	8d 8e b0 1a 00
	00		 lea	 ecx, DWORD PTR [esi+6832]
  000d7	c6 45 fc 08	 mov	 BYTE PTR __$EHRec$[ebp+8], 8
  000db	e8 00 00 00 00	 call	 ??0AttackAttribute@@QAE@ABU0@@Z
  000e0	8d 87 00 1b 00
	00		 lea	 eax, DWORD PTR [edi+6912]
  000e6	50		 push	 eax
  000e7	8d 8e 00 1b 00
	00		 lea	 ecx, DWORD PTR [esi+6912]
  000ed	c6 45 fc 09	 mov	 BYTE PTR __$EHRec$[ebp+8], 9
  000f1	e8 00 00 00 00	 call	 ??0AttackAttribute@@QAE@ABU0@@Z
  000f6	8d 87 50 1b 00
	00		 lea	 eax, DWORD PTR [edi+6992]
  000fc	50		 push	 eax
  000fd	8d 8e 50 1b 00
	00		 lea	 ecx, DWORD PTR [esi+6992]
  00103	c6 45 fc 0a	 mov	 BYTE PTR __$EHRec$[ebp+8], 10 ; 0000000aH
  00107	e8 00 00 00 00	 call	 ??0AttackAttribute@@QAE@ABU0@@Z
  0010c	8b 87 a4 1b 00
	00		 mov	 eax, DWORD PTR [edi+7076]
  00112	89 86 a4 1b 00
	00		 mov	 DWORD PTR [esi+7076], eax
  00118	8b 87 b0 1b 00
	00		 mov	 eax, DWORD PTR [edi+7088]
  0011e	89 86 b0 1b 00
	00		 mov	 DWORD PTR [esi+7088], eax
  00124	8d 87 bc 1b 00
	00		 lea	 eax, DWORD PTR [edi+7100]
  0012a	50		 push	 eax
  0012b	8d 8e bc 1b 00
	00		 lea	 ecx, DWORD PTR [esi+7100]
  00131	c6 45 fc 0b	 mov	 BYTE PTR __$EHRec$[ebp+8], 11 ; 0000000bH
  00135	e8 00 00 00 00	 call	 ??0?$vector@UWoundedInfo@ioLeeSunSin@@V?$allocator@UWoundedInfo@ioLeeSunSin@@@std@@@std@@QAE@ABV01@@Z ; std::vector<ioLeeSunSin::WoundedInfo,std::allocator<ioLeeSunSin::WoundedInfo> >::vector<ioLeeSunSin::WoundedInfo,std::allocator<ioLeeSunSin::WoundedInfo> >
  0013a	81 c7 cc 1b 00
	00		 add	 edi, 7116		; 00001bccH
  00140	57		 push	 edi
  00141	8d 8e cc 1b 00
	00		 lea	 ecx, DWORD PTR [esi+7116]
  00147	c6 45 fc 0c	 mov	 BYTE PTR __$EHRec$[ebp+8], 12 ; 0000000cH
  0014b	e8 00 00 00 00	 call	 ??0?$vector@VioHashString@@V?$allocator@VioHashString@@@std@@@std@@QAE@ABV01@@Z ; std::vector<ioHashString,std::allocator<ioHashString> >::vector<ioHashString,std::allocator<ioHashString> >

; 37   : 	Init();

  00150	8b ce		 mov	 ecx, esi
  00152	e8 00 00 00 00	 call	 ?Init@ioLeeSunSin@@QAEXXZ ; ioLeeSunSin::Init

; 38   : }

  00157	8b c6		 mov	 eax, esi
  00159	e8 00 00 00 00	 call	 __EH_epilog3
  0015e	c2 04 00	 ret	 4
_TEXT	ENDS
;	COMDAT text$x
text$x	SEGMENT
__unwindfunclet$??0ioLeeSunSin@@QAE@ABV0@@Z$0:
  00000	8b 4d f0	 mov	 ecx, DWORD PTR _this$[ebp]
  00003	e9 00 00 00 00	 jmp	 ??1ioWeaponItem@@UAE@XZ	; ioWeaponItem::~ioWeaponItem
__unwindfunclet$??0ioLeeSunSin@@QAE@ABV0@@Z$1:
  00008	8b 4d f0	 mov	 ecx, DWORD PTR _this$[ebp]
  0000b	81 c1 64 19 00
	00		 add	 ecx, 6500		; 00001964H
  00011	e9 00 00 00 00	 jmp	 ??1?$CEncrypt@M@@UAE@XZ	; CEncrypt<float>::~CEncrypt<float>
__unwindfunclet$??0ioLeeSunSin@@QAE@ABV0@@Z$2:
  00016	8b 4d f0	 mov	 ecx, DWORD PTR _this$[ebp]
  00019	81 c1 94 19 00
	00		 add	 ecx, 6548		; 00001994H
  0001f	e9 00 00 00 00	 jmp	 ??1?$CEncrypt@M@@UAE@XZ	; CEncrypt<float>::~CEncrypt<float>
__unwindfunclet$??0ioLeeSunSin@@QAE@ABV0@@Z$3:
  00024	8b 4d f0	 mov	 ecx, DWORD PTR _this$[ebp]
  00027	81 c1 c4 19 00
	00		 add	 ecx, 6596		; 000019c4H
  0002d	ff 25 00 00 00
	00		 jmp	 DWORD PTR __imp_??1ioHashString@@QAE@XZ
__unwindfunclet$??0ioLeeSunSin@@QAE@ABV0@@Z$4:
  00033	8b 4d f0	 mov	 ecx, DWORD PTR _this$[ebp]
  00036	81 c1 d4 19 00
	00		 add	 ecx, 6612		; 000019d4H
  0003c	ff 25 00 00 00
	00		 jmp	 DWORD PTR __imp_??1ioHashString@@QAE@XZ
__unwindfunclet$??0ioLeeSunSin@@QAE@ABV0@@Z$5:
  00042	8b 4d f0	 mov	 ecx, DWORD PTR _this$[ebp]
  00045	81 c1 e4 19 00
	00		 add	 ecx, 6628		; 000019e4H
  0004b	ff 25 00 00 00
	00		 jmp	 DWORD PTR __imp_??1ioHashString@@QAE@XZ
__unwindfunclet$??0ioLeeSunSin@@QAE@ABV0@@Z$6:
  00051	8b 4d f0	 mov	 ecx, DWORD PTR _this$[ebp]
  00054	81 c1 f4 19 00
	00		 add	 ecx, 6644		; 000019f4H
  0005a	ff 25 00 00 00
	00		 jmp	 DWORD PTR __imp_??1ioHashString@@QAE@XZ
__unwindfunclet$??0ioLeeSunSin@@QAE@ABV0@@Z$7:
  00060	8b 4d f0	 mov	 ecx, DWORD PTR _this$[ebp]
  00063	81 c1 10 1a 00
	00		 add	 ecx, 6672		; 00001a10H
  00069	e9 00 00 00 00	 jmp	 ??1AttackAttribute@@QAE@XZ
__unwindfunclet$??0ioLeeSunSin@@QAE@ABV0@@Z$8:
  0006e	8b 4d f0	 mov	 ecx, DWORD PTR _this$[ebp]
  00071	81 c1 60 1a 00
	00		 add	 ecx, 6752		; 00001a60H
  00077	e9 00 00 00 00	 jmp	 ??1AttackAttribute@@QAE@XZ
__unwindfunclet$??0ioLeeSunSin@@QAE@ABV0@@Z$9:
  0007c	8b 4d f0	 mov	 ecx, DWORD PTR _this$[ebp]
  0007f	81 c1 b0 1a 00
	00		 add	 ecx, 6832		; 00001ab0H
  00085	e9 00 00 00 00	 jmp	 ??1AttackAttribute@@QAE@XZ
__unwindfunclet$??0ioLeeSunSin@@QAE@ABV0@@Z$10:
  0008a	8b 4d f0	 mov	 ecx, DWORD PTR _this$[ebp]
  0008d	81 c1 00 1b 00
	00		 add	 ecx, 6912		; 00001b00H
  00093	e9 00 00 00 00	 jmp	 ??1AttackAttribute@@QAE@XZ
__unwindfunclet$??0ioLeeSunSin@@QAE@ABV0@@Z$11:
  00098	8b 4d f0	 mov	 ecx, DWORD PTR _this$[ebp]
  0009b	81 c1 50 1b 00
	00		 add	 ecx, 6992		; 00001b50H
  000a1	e9 00 00 00 00	 jmp	 ??1AttackAttribute@@QAE@XZ
__unwindfunclet$??0ioLeeSunSin@@QAE@ABV0@@Z$12:
  000a6	8b 4d f0	 mov	 ecx, DWORD PTR _this$[ebp]
  000a9	81 c1 bc 1b 00
	00		 add	 ecx, 7100		; 00001bbcH
  000af	e9 00 00 00 00	 jmp	 ??1?$vector@UWoundedInfo@ioLeeSunSin@@V?$allocator@UWoundedInfo@ioLeeSunSin@@@std@@@std@@QAE@XZ ; std::vector<ioLeeSunSin::WoundedInfo,std::allocator<ioLeeSunSin::WoundedInfo> >::~vector<ioLeeSunSin::WoundedInfo,std::allocator<ioLeeSunSin::WoundedInfo> >
__ehhandler$??0ioLeeSunSin@@QAE@ABV0@@Z:
  000b4	8b 54 24 08	 mov	 edx, DWORD PTR [esp+8]
  000b8	8d 42 0c	 lea	 eax, DWORD PTR [edx+12]
  000bb	8b 4a ec	 mov	 ecx, DWORD PTR [edx-20]
  000be	33 c8		 xor	 ecx, eax
  000c0	e8 00 00 00 00	 call	 @__security_check_cookie@4
  000c5	b8 00 00 00 00	 mov	 eax, OFFSET __ehfuncinfo$??0ioLeeSunSin@@QAE@ABV0@@Z
  000ca	e9 00 00 00 00	 jmp	 ___CxxFrameHandler3
text$x	ENDS
??0ioLeeSunSin@@QAE@ABV0@@Z ENDP			; ioLeeSunSin::ioLeeSunSin
PUBLIC	??1ioLeeSunSin@@UAE@XZ				; ioLeeSunSin::~ioLeeSunSin
;	COMDAT xdata$x
; File d:\lost saga for developer\youtube\tutorial\source\src\lsclient\encryptvalue.h
xdata$x	SEGMENT
__ehfuncinfo$??1ioLeeSunSin@@UAE@XZ DD 019930522H
	DD	0dH
	DD	FLAT:__unwindtable$??1ioLeeSunSin@@UAE@XZ
	DD	2 DUP(00H)
	DD	2 DUP(00H)
	DD	00H
	DD	01H
__unwindtable$??1ioLeeSunSin@@UAE@XZ DD 0ffffffffH
	DD	FLAT:__unwindfunclet$??1ioLeeSunSin@@UAE@XZ$0
	DD	00H
	DD	FLAT:__unwindfunclet$??1ioLeeSunSin@@UAE@XZ$1
	DD	01H
	DD	FLAT:__unwindfunclet$??1ioLeeSunSin@@UAE@XZ$2
	DD	02H
	DD	FLAT:__unwindfunclet$??1ioLeeSunSin@@UAE@XZ$3
	DD	03H
	DD	FLAT:__unwindfunclet$??1ioLeeSunSin@@UAE@XZ$4
	DD	04H
	DD	FLAT:__unwindfunclet$??1ioLeeSunSin@@UAE@XZ$5
	DD	05H
	DD	FLAT:__unwindfunclet$??1ioLeeSunSin@@UAE@XZ$6
	DD	06H
	DD	FLAT:__unwindfunclet$??1ioLeeSunSin@@UAE@XZ$7
	DD	07H
	DD	FLAT:__unwindfunclet$??1ioLeeSunSin@@UAE@XZ$8
	DD	08H
	DD	FLAT:__unwindfunclet$??1ioLeeSunSin@@UAE@XZ$9
	DD	09H
	DD	FLAT:__unwindfunclet$??1ioLeeSunSin@@UAE@XZ$10
	DD	0aH
	DD	FLAT:__unwindfunclet$??1ioLeeSunSin@@UAE@XZ$11
	DD	0bH
	DD	FLAT:__unwindfunclet$??1ioLeeSunSin@@UAE@XZ$12
; Function compile flags: /Ogsp
; File d:\lost saga for developer\youtube\tutorial\source\src\lsclient\ioleesunsin.cpp
xdata$x	ENDS
;	COMDAT ??1ioLeeSunSin@@UAE@XZ
_TEXT	SEGMENT
_this$ = -16						; size = 4
__$EHRec$ = -12						; size = 12
??1ioLeeSunSin@@UAE@XZ PROC				; ioLeeSunSin::~ioLeeSunSin, COMDAT
; _this$ = ecx

; 41   : {

  00000	6a 04		 push	 4
  00002	b8 00 00 00 00	 mov	 eax, __ehhandler$??1ioLeeSunSin@@UAE@XZ
  00007	e8 00 00 00 00	 call	 __EH_prolog3
  0000c	8b f1		 mov	 esi, ecx
  0000e	89 75 f0	 mov	 DWORD PTR _this$[ebp], esi
  00011	c7 06 00 00 00
	00		 mov	 DWORD PTR [esi], OFFSET ??_7ioLeeSunSin@@6B@

; 42   : }

  00017	8d 8e cc 1b 00
	00		 lea	 ecx, DWORD PTR [esi+7116]
  0001d	c7 45 fc 0c 00
	00 00		 mov	 DWORD PTR __$EHRec$[ebp+8], 12 ; 0000000cH
  00024	e8 00 00 00 00	 call	 ?_Tidy@?$vector@VioHashString@@V?$allocator@VioHashString@@@std@@@std@@IAEXXZ ; std::vector<ioHashString,std::allocator<ioHashString> >::_Tidy
  00029	8d 8e bc 1b 00
	00		 lea	 ecx, DWORD PTR [esi+7100]
  0002f	c6 45 fc 0b	 mov	 BYTE PTR __$EHRec$[ebp+8], 11 ; 0000000bH
  00033	e8 00 00 00 00	 call	 ?_Tidy@?$vector@UWoundedInfo@ioLeeSunSin@@V?$allocator@UWoundedInfo@ioLeeSunSin@@@std@@@std@@IAEXXZ ; std::vector<ioLeeSunSin::WoundedInfo,std::allocator<ioLeeSunSin::WoundedInfo> >::_Tidy
  00038	8d 8e 50 1b 00
	00		 lea	 ecx, DWORD PTR [esi+6992]
  0003e	c6 45 fc 0a	 mov	 BYTE PTR __$EHRec$[ebp+8], 10 ; 0000000aH
  00042	e8 00 00 00 00	 call	 ??1AttackAttribute@@QAE@XZ
  00047	8d 8e 00 1b 00
	00		 lea	 ecx, DWORD PTR [esi+6912]
  0004d	c6 45 fc 09	 mov	 BYTE PTR __$EHRec$[ebp+8], 9
  00051	e8 00 00 00 00	 call	 ??1AttackAttribute@@QAE@XZ
  00056	8d 8e b0 1a 00
	00		 lea	 ecx, DWORD PTR [esi+6832]
  0005c	c6 45 fc 08	 mov	 BYTE PTR __$EHRec$[ebp+8], 8
  00060	e8 00 00 00 00	 call	 ??1AttackAttribute@@QAE@XZ
  00065	8d 8e 60 1a 00
	00		 lea	 ecx, DWORD PTR [esi+6752]
  0006b	c6 45 fc 07	 mov	 BYTE PTR __$EHRec$[ebp+8], 7
  0006f	e8 00 00 00 00	 call	 ??1AttackAttribute@@QAE@XZ
  00074	8d 8e 10 1a 00
	00		 lea	 ecx, DWORD PTR [esi+6672]
  0007a	c6 45 fc 06	 mov	 BYTE PTR __$EHRec$[ebp+8], 6
  0007e	e8 00 00 00 00	 call	 ??1AttackAttribute@@QAE@XZ
  00083	8b 3d 00 00 00
	00		 mov	 edi, DWORD PTR __imp_??1ioHashString@@QAE@XZ
  00089	8d 8e f4 19 00
	00		 lea	 ecx, DWORD PTR [esi+6644]
  0008f	c6 45 fc 05	 mov	 BYTE PTR __$EHRec$[ebp+8], 5
  00093	ff d7		 call	 edi
  00095	8d 8e e4 19 00
	00		 lea	 ecx, DWORD PTR [esi+6628]
  0009b	c6 45 fc 04	 mov	 BYTE PTR __$EHRec$[ebp+8], 4
  0009f	ff d7		 call	 edi
  000a1	8d 8e d4 19 00
	00		 lea	 ecx, DWORD PTR [esi+6612]
  000a7	c6 45 fc 03	 mov	 BYTE PTR __$EHRec$[ebp+8], 3
  000ab	ff d7		 call	 edi
  000ad	8d 8e c4 19 00
	00		 lea	 ecx, DWORD PTR [esi+6596]
  000b3	c6 45 fc 02	 mov	 BYTE PTR __$EHRec$[ebp+8], 2
  000b7	ff d7		 call	 edi
  000b9	bf 00 00 00 00	 mov	 edi, OFFSET ??_7?$CEncrypt@M@@6B@
  000be	8d 8e a0 19 00
	00		 lea	 ecx, DWORD PTR [esi+6560]
  000c4	c6 45 fc 01	 mov	 BYTE PTR __$EHRec$[ebp+8], 1
  000c8	89 be 94 19 00
	00		 mov	 DWORD PTR [esi+6548], edi
  000ce	e8 00 00 00 00	 call	 ??1ccddaabb@@UAE@XZ	; ccddaabb::~ccddaabb
  000d3	8d 8e 70 19 00
	00		 lea	 ecx, DWORD PTR [esi+6512]
  000d9	c6 45 fc 00	 mov	 BYTE PTR __$EHRec$[ebp+8], 0
  000dd	89 be 64 19 00
	00		 mov	 DWORD PTR [esi+6500], edi
  000e3	e8 00 00 00 00	 call	 ??1ccddaabb@@UAE@XZ	; ccddaabb::~ccddaabb
  000e8	83 4d fc ff	 or	 DWORD PTR __$EHRec$[ebp+8], -1
  000ec	8b ce		 mov	 ecx, esi
  000ee	e8 00 00 00 00	 call	 ??1ioWeaponItem@@UAE@XZ	; ioWeaponItem::~ioWeaponItem
  000f3	e8 00 00 00 00	 call	 __EH_epilog3
  000f8	c3		 ret	 0
_TEXT	ENDS
;	COMDAT text$x
text$x	SEGMENT
__unwindfunclet$??1ioLeeSunSin@@UAE@XZ$0:
  00000	8b 4d f0	 mov	 ecx, DWORD PTR _this$[ebp]
  00003	e9 00 00 00 00	 jmp	 ??1ioWeaponItem@@UAE@XZ	; ioWeaponItem::~ioWeaponItem
__unwindfunclet$??1ioLeeSunSin@@UAE@XZ$1:
  00008	8b 4d f0	 mov	 ecx, DWORD PTR _this$[ebp]
  0000b	81 c1 64 19 00
	00		 add	 ecx, 6500		; 00001964H
  00011	e9 00 00 00 00	 jmp	 ??1?$CEncrypt@M@@UAE@XZ	; CEncrypt<float>::~CEncrypt<float>
__unwindfunclet$??1ioLeeSunSin@@UAE@XZ$2:
  00016	8b 4d f0	 mov	 ecx, DWORD PTR _this$[ebp]
  00019	81 c1 94 19 00
	00		 add	 ecx, 6548		; 00001994H
  0001f	e9 00 00 00 00	 jmp	 ??1?$CEncrypt@M@@UAE@XZ	; CEncrypt<float>::~CEncrypt<float>
__unwindfunclet$??1ioLeeSunSin@@UAE@XZ$3:
  00024	8b 4d f0	 mov	 ecx, DWORD PTR _this$[ebp]
  00027	81 c1 c4 19 00
	00		 add	 ecx, 6596		; 000019c4H
  0002d	ff 25 00 00 00
	00		 jmp	 DWORD PTR __imp_??1ioHashString@@QAE@XZ
__unwindfunclet$??1ioLeeSunSin@@UAE@XZ$4:
  00033	8b 4d f0	 mov	 ecx, DWORD PTR _this$[ebp]
  00036	81 c1 d4 19 00
	00		 add	 ecx, 6612		; 000019d4H
  0003c	ff 25 00 00 00
	00		 jmp	 DWORD PTR __imp_??1ioHashString@@QAE@XZ
__unwindfunclet$??1ioLeeSunSin@@UAE@XZ$5:
  00042	8b 4d f0	 mov	 ecx, DWORD PTR _this$[ebp]
  00045	81 c1 e4 19 00
	00		 add	 ecx, 6628		; 000019e4H
  0004b	ff 25 00 00 00
	00		 jmp	 DWORD PTR __imp_??1ioHashString@@QAE@XZ
__unwindfunclet$??1ioLeeSunSin@@UAE@XZ$6:
  00051	8b 4d f0	 mov	 ecx, DWORD PTR _this$[ebp]
  00054	81 c1 f4 19 00
	00		 add	 ecx, 6644		; 000019f4H
  0005a	ff 25 00 00 00
	00		 jmp	 DWORD PTR __imp_??1ioHashString@@QAE@XZ
__unwindfunclet$??1ioLeeSunSin@@UAE@XZ$7:
  00060	8b 4d f0	 mov	 ecx, DWORD PTR _this$[ebp]
  00063	81 c1 10 1a 00
	00		 add	 ecx, 6672		; 00001a10H
  00069	e9 00 00 00 00	 jmp	 ??1AttackAttribute@@QAE@XZ
__unwindfunclet$??1ioLeeSunSin@@UAE@XZ$8:
  0006e	8b 4d f0	 mov	 ecx, DWORD PTR _this$[ebp]
  00071	81 c1 60 1a 00
	00		 add	 ecx, 6752		; 00001a60H
  00077	e9 00 00 00 00	 jmp	 ??1AttackAttribute@@QAE@XZ
__unwindfunclet$??1ioLeeSunSin@@UAE@XZ$9:
  0007c	8b 4d f0	 mov	 ecx, DWORD PTR _this$[ebp]
  0007f	81 c1 b0 1a 00
	00		 add	 ecx, 6832		; 00001ab0H
  00085	e9 00 00 00 00	 jmp	 ??1AttackAttribute@@QAE@XZ
__unwindfunclet$??1ioLeeSunSin@@UAE@XZ$10:
  0008a	8b 4d f0	 mov	 ecx, DWORD PTR _this$[ebp]
  0008d	81 c1 00 1b 00
	00		 add	 ecx, 6912		; 00001b00H
  00093	e9 00 00 00 00	 jmp	 ??1AttackAttribute@@QAE@XZ
__unwindfunclet$??1ioLeeSunSin@@UAE@XZ$11:
  00098	8b 4d f0	 mov	 ecx, DWORD PTR _this$[ebp]
  0009b	81 c1 50 1b 00
	00		 add	 ecx, 6992		; 00001b50H
  000a1	e9 00 00 00 00	 jmp	 ??1AttackAttribute@@QAE@XZ
__unwindfunclet$??1ioLeeSunSin@@UAE@XZ$12:
  000a6	8b 4d f0	 mov	 ecx, DWORD PTR _this$[ebp]
  000a9	81 c1 bc 1b 00
	00		 add	 ecx, 7100		; 00001bbcH
  000af	e9 00 00 00 00	 jmp	 ??1?$vector@UWoundedInfo@ioLeeSunSin@@V?$allocator@UWoundedInfo@ioLeeSunSin@@@std@@@std@@QAE@XZ ; std::vector<ioLeeSunSin::WoundedInfo,std::allocator<ioLeeSunSin::WoundedInfo> >::~vector<ioLeeSunSin::WoundedInfo,std::allocator<ioLeeSunSin::WoundedInfo> >
__ehhandler$??1ioLeeSunSin@@UAE@XZ:
  000b4	8b 54 24 08	 mov	 edx, DWORD PTR [esp+8]
  000b8	8d 42 0c	 lea	 eax, DWORD PTR [edx+12]
  000bb	8b 4a ec	 mov	 ecx, DWORD PTR [edx-20]
  000be	33 c8		 xor	 ecx, eax
  000c0	e8 00 00 00 00	 call	 @__security_check_cookie@4
  000c5	b8 00 00 00 00	 mov	 eax, OFFSET __ehfuncinfo$??1ioLeeSunSin@@UAE@XZ
  000ca	e9 00 00 00 00	 jmp	 ___CxxFrameHandler3
text$x	ENDS
??1ioLeeSunSin@@UAE@XZ ENDP				; ioLeeSunSin::~ioLeeSunSin
PUBLIC	??_C@_00CNPNBAHC@?$AA@				; `string'
PUBLIC	__real@40a00000
PUBLIC	??_C@_0BD@KLLKABLO@wounded_extend_max?$AA@	; `string'
PUBLIC	_this$GSCopy$
PUBLIC	?LoadWoundedInfo@ioLeeSunSin@@QAEXAAVioINILoader@@@Z ; ioLeeSunSin::LoadWoundedInfo
EXTRN	__imp_??4ioHashString@@QAEAAV0@PBD@Z:PROC
EXTRN	__imp__wsprintfA:PROC
;	COMDAT ??_C@_00CNPNBAHC@?$AA@
CONST	SEGMENT
??_C@_00CNPNBAHC@?$AA@ DB 00H				; `string'
CONST	ENDS
;	COMDAT __real@40a00000
CONST	SEGMENT
__real@40a00000 DD 040a00000r			; 5
CONST	ENDS
;	COMDAT ??_C@_0BD@KLLKABLO@wounded_extend_max?$AA@
CONST	SEGMENT
??_C@_0BD@KLLKABLO@wounded_extend_max?$AA@ DB 'wounded_extend_max', 00H ; `string'
CONST	ENDS
;	COMDAT xdata$x
xdata$x	SEGMENT
__unwindtable$?LoadWoundedInfo@ioLeeSunSin@@QAEXAAVioINILoader@@@Z DD 0ffffffffH
	DD	FLAT:__unwindfunclet$?LoadWoundedInfo@ioLeeSunSin@@QAEXAAVioINILoader@@@Z$0
__ehfuncinfo$?LoadWoundedInfo@ioLeeSunSin@@QAEXAAVioINILoader@@@Z DD 019930522H
	DD	01H
	DD	FLAT:__unwindtable$?LoadWoundedInfo@ioLeeSunSin@@QAEXAAVioINILoader@@@Z
	DD	2 DUP(00H)
	DD	2 DUP(00H)
	DD	00H
	DD	01H
; Function compile flags: /Ogsp
xdata$x	ENDS
;	COMDAT ?LoadWoundedInfo@ioLeeSunSin@@QAEXAAVioINILoader@@@Z
_TEXT	SEGMENT
_Info$548621 = -664					; size = 32
tv3983 = -632						; size = 4
tv3692 = -628						; size = 4
tv4738 = -624						; size = 4
_this$GSCopy$ = -624					; size = 4
_szBuf$ = -620						; size = 260
_szKey$ = -360						; size = 260
___encStr$549235 = -100					; size = 39
___encStr$549083 = -56					; size = 34
___encStr$548625 = -56					; size = 34
___encStr$548931 = -52					; size = 28
___encStr$548779 = -52					; size = 28
__k$559158 = -44					; size = 19
__$EHRec$ = -12						; size = 12
_rkLoader$ = 8						; size = 4
?LoadWoundedInfo@ioLeeSunSin@@QAEXAAVioINILoader@@@Z PROC ; ioLeeSunSin::LoadWoundedInfo, COMDAT
; _this$ = ecx

; 110  : {

  00000	68 8c 02 00 00	 push	 652			; 0000028cH
  00005	b8 00 00 00 00	 mov	 eax, __ehhandler$?LoadWoundedInfo@ioLeeSunSin@@QAEXAAVioINILoader@@@Z
  0000a	e8 00 00 00 00	 call	 __EH_prolog3_GS
  0000f	8b 7d 08	 mov	 edi, DWORD PTR _rkLoader$[ebp]

; 111  : 	m_dwWoundedChargeTime = rkLoader.LoadInt_e( "blow_charging_time", 100 );

  00012	33 db		 xor	 ebx, ebx
  00014	6a 04		 push	 4
  00016	89 8d 90 fd ff
	ff		 mov	 DWORD PTR _this$GSCopy$[ebp], ecx
  0001c	c7 45 d4 8f 80
	84 9d		 mov	 DWORD PTR __k$559158[ebp], -1652260721 ; 9d84808fH
  00023	c7 45 d8 b2 8f
	83 8b		 mov	 DWORD PTR __k$559158[ebp+4], -1954312270 ; 8b838fb2H
  0002a	c7 45 dc 9f 8b
	82 84		 mov	 DWORD PTR __k$559158[ebp+8], -2071819361 ; 84828b9fH
  00031	c7 45 e0 8a b3
	9f 83		 mov	 DWORD PTR __k$559158[ebp+12], -2086685814 ; 839fb38aH
  00038	66 c7 45 e4 80
	89		 mov	 WORD PTR __k$559158[ebp+16], 35200 ; 00008980H
  0003e	8d 45 d4	 lea	 eax, DWORD PTR __k$559158[ebp]
  00041	88 5d e6	 mov	 BYTE PTR __k$559158[ebp+18], bl
  00044	59		 pop	 ecx
$LL605@LoadWounde:
  00045	81 30 ed ec eb
	ea		 xor	 DWORD PTR [eax], -353637139 ; eaebecedH
  0004b	83 c0 04	 add	 eax, 4
  0004e	49		 dec	 ecx
  0004f	75 f4		 jne	 SHORT $LL605@LoadWounde
  00051	6a 10		 push	 16			; 00000010H
  00053	5e		 pop	 esi
$LL602@LoadWounde:
  00054	8b c6		 mov	 eax, esi
  00056	25 03 00 00 80	 and	 eax, -2147483645	; 80000003H
  0005b	79 05		 jns	 SHORT $LN678@LoadWounde
  0005d	48		 dec	 eax
  0005e	83 c8 fc	 or	 eax, -4			; fffffffcH
  00061	40		 inc	 eax
$LN678@LoadWounde:
  00062	b1 ed		 mov	 cl, -19			; ffffffedH
  00064	2a c8		 sub	 cl, al
  00066	30 4c 35 d4	 xor	 BYTE PTR __k$559158[ebp+esi], cl
  0006a	46		 inc	 esi
  0006b	83 fe 12	 cmp	 esi, 18			; 00000012H
  0006e	7c e4		 jl	 SHORT $LL602@LoadWounde
  00070	8b 35 00 00 00
	00		 mov	 esi, DWORD PTR __imp_?LoadInt@ioINILoader@@QAEHPBDH@Z
  00076	6a 64		 push	 100			; 00000064H
  00078	8d 45 d4	 lea	 eax, DWORD PTR __k$559158[ebp]
  0007b	50		 push	 eax
  0007c	8b cf		 mov	 ecx, edi
  0007e	ff d6		 call	 esi
  00080	8b 8d 90 fd ff
	ff		 mov	 ecx, DWORD PTR _this$GSCopy$[ebp]

; 112  : 
; 113  : 	char szBuf[MAX_PATH];	
; 114  : 	char szKey[MAX_PATH];
; 115  : 	int iCnt = rkLoader.LoadInt( "wounded_extend_max", 0 );

  00086	53		 push	 ebx
  00087	89 81 b0 1b 00
	00		 mov	 DWORD PTR [ecx+7088], eax
  0008d	68 00 00 00 00	 push	 OFFSET ??_C@_0BD@KLLKABLO@wounded_extend_max?$AA@
  00092	8b cf		 mov	 ecx, edi
  00094	ff d6		 call	 esi

; 116  : 
; 117  : 	for( int i = 0; i < iCnt ; ++i )

  00096	3b c3		 cmp	 eax, ebx
  00098	0f 8e 68 03 00
	00		 jle	 $LN496@LoadWounde
  0009e	8b 8d 90 fd ff
	ff		 mov	 ecx, DWORD PTR _this$GSCopy$[ebp]
  000a4	8b 35 00 00 00
	00		 mov	 esi, DWORD PTR __imp__wsprintfA
  000aa	81 c1 bc 1b 00
	00		 add	 ecx, 7100		; 00001bbcH
  000b0	89 8d 88 fd ff
	ff		 mov	 DWORD PTR tv3983[ebp], ecx
  000b6	c7 85 90 fd ff
	ff 01 00 00 00	 mov	 DWORD PTR tv4738[ebp], 1
  000c0	89 85 8c fd ff
	ff		 mov	 DWORD PTR tv3692[ebp], eax
$LL498@LoadWounde:

; 118  : 	{
; 119  : 		WoundedInfo Info;

  000c6	8d 8d 68 fd ff
	ff		 lea	 ecx, DWORD PTR _Info$548621[ebp]
  000cc	e8 00 00 00 00	 call	 ??0WoundedInfo@ioLeeSunSin@@QAE@XZ ; ioLeeSunSin::WoundedInfo::WoundedInfo
  000d1	6a 08		 push	 8
  000d3	89 5d fc	 mov	 DWORD PTR __$EHRec$[ebp+8], ebx

; 120  : 		wsprintf_e( szKey, "wounded_extend%d_target_blow_type", i+1 );

  000d6	c7 45 c8 9a 83
	9e 84		 mov	 DWORD PTR ___encStr$548625[ebp], -2069986406 ; 849e839aH
  000dd	c7 45 cc 89 89
	8f b5		 mov	 DWORD PTR ___encStr$548625[ebp+4], -1248884343 ; b58f8989H
  000e4	c7 45 d0 88 94
	9f 8f		 mov	 DWORD PTR ___encStr$548625[ebp+8], -1885367160 ; 8f9f9488H
  000eb	c7 45 d4 83 88
	ce 8e		 mov	 DWORD PTR ___encStr$548625[ebp+12], -1899067261 ; 8ece8883H
  000f2	c7 45 d8 b2 98
	8a 98		 mov	 DWORD PTR ___encStr$548625[ebp+16], -1735747406 ; 988a98b2H
  000f9	c7 45 dc 8a 89
	9f b5		 mov	 DWORD PTR ___encStr$548625[ebp+20], -1247835766 ; b59f898aH
  00100	c7 45 e0 8f 80
	84 9d		 mov	 DWORD PTR ___encStr$548625[ebp+24], -1652260721 ; 9d84808fH
  00107	c7 45 e4 b2 98
	92 9a		 mov	 DWORD PTR ___encStr$548625[ebp+28], -1701668686 ; 9a9298b2H
  0010e	8d 45 c8	 lea	 eax, DWORD PTR ___encStr$548625[ebp]
  00111	66 c7 45 e8 88
	00		 mov	 WORD PTR ___encStr$548625[ebp+32], 136 ; 00000088H
  00117	59		 pop	 ecx
$LL613@LoadWounde:
  00118	81 30 ed ec eb
	ea		 xor	 DWORD PTR [eax], -353637139 ; eaebecedH
  0011e	83 c0 04	 add	 eax, 4
  00121	49		 dec	 ecx
  00122	75 f4		 jne	 SHORT $LL613@LoadWounde
  00124	ff b5 90 fd ff
	ff		 push	 DWORD PTR tv4738[ebp]
  0012a	80 75 e8 ed	 xor	 BYTE PTR ___encStr$548625[ebp+32], -19 ; ffffffedH
  0012e	8d 45 c8	 lea	 eax, DWORD PTR ___encStr$548625[ebp]
  00131	50		 push	 eax
  00132	8d 85 98 fe ff
	ff		 lea	 eax, DWORD PTR _szKey$[ebp]
  00138	50		 push	 eax
  00139	ff d6		 call	 esi
  0013b	83 c4 0c	 add	 esp, 12			; 0000000cH

; 121  : 		Info.eBlowType	= (BlowTargetType)rkLoader.LoadInt( szKey, BTT_NONE );

  0013e	6a 0f		 push	 15			; 0000000fH
  00140	8d 85 98 fe ff
	ff		 lea	 eax, DWORD PTR _szKey$[ebp]
  00146	50		 push	 eax
  00147	8b cf		 mov	 ecx, edi
  00149	ff 15 00 00 00
	00		 call	 DWORD PTR __imp_?LoadInt@ioINILoader@@QAEHPBDH@Z
  0014f	6a 06		 push	 6
  00151	89 85 68 fd ff
	ff		 mov	 DWORD PTR _Info$548621[ebp], eax

; 122  : 
; 123  : 		wsprintf_e( szKey, "wounded_extend%d_min_height", i+1 );

  00157	c7 45 cc 9a 83
	9e 84		 mov	 DWORD PTR ___encStr$548779[ebp], -2069986406 ; 849e839aH
  0015e	c7 45 d0 89 89
	8f b5		 mov	 DWORD PTR ___encStr$548779[ebp+4], -1248884343 ; b58f8989H
  00165	c7 45 d4 88 94
	9f 8f		 mov	 DWORD PTR ___encStr$548779[ebp+8], -1885367160 ; 8f9f9488H
  0016c	c7 45 d8 83 88
	ce 8e		 mov	 DWORD PTR ___encStr$548779[ebp+12], -1899067261 ; 8ece8883H
  00173	c7 45 dc b2 81
	82 84		 mov	 DWORD PTR ___encStr$548779[ebp+16], -2071821902 ; 848281b2H
  0017a	c7 45 e0 b2 84
	8e 83		 mov	 DWORD PTR ___encStr$548779[ebp+20], -2087811918 ; 838e84b2H
  00181	8d 45 cc	 lea	 eax, DWORD PTR ___encStr$548779[ebp]
  00184	c7 45 e4 8a 84
	9f 00		 mov	 DWORD PTR ___encStr$548779[ebp+24], 10454154 ; 009f848aH
  0018b	59		 pop	 ecx
$LL621@LoadWounde:
  0018c	81 30 ed ec eb
	ea		 xor	 DWORD PTR [eax], -353637139 ; eaebecedH
  00192	83 c0 04	 add	 eax, 4
  00195	49		 dec	 ecx
  00196	75 f4		 jne	 SHORT $LL621@LoadWounde
  00198	6a 18		 push	 24			; 00000018H
  0019a	58		 pop	 eax
$LL618@LoadWounde:
  0019b	8b c8		 mov	 ecx, eax
  0019d	81 e1 03 00 00
	80		 and	 ecx, -2147483645	; 80000003H
  001a3	79 05		 jns	 SHORT $LN679@LoadWounde
  001a5	49		 dec	 ecx
  001a6	83 c9 fc	 or	 ecx, -4			; fffffffcH
  001a9	41		 inc	 ecx
$LN679@LoadWounde:
  001aa	b2 ed		 mov	 dl, -19			; ffffffedH
  001ac	2a d1		 sub	 dl, cl
  001ae	30 54 05 cc	 xor	 BYTE PTR ___encStr$548779[ebp+eax], dl
  001b2	40		 inc	 eax
  001b3	83 f8 1b	 cmp	 eax, 27			; 0000001bH
  001b6	7c e3		 jl	 SHORT $LL618@LoadWounde
  001b8	ff b5 90 fd ff
	ff		 push	 DWORD PTR tv4738[ebp]
  001be	8d 45 cc	 lea	 eax, DWORD PTR ___encStr$548779[ebp]
  001c1	50		 push	 eax
  001c2	8d 85 98 fe ff
	ff		 lea	 eax, DWORD PTR _szKey$[ebp]
  001c8	50		 push	 eax
  001c9	ff d6		 call	 esi

; 124  : 		Info.fMaxHeight	= rkLoader.LoadFloat( szKey, 0.0f );

  001cb	0f 57 c0	 xorps	 xmm0, xmm0
  001ce	59		 pop	 ecx
  001cf	59		 pop	 ecx
  001d0	8d 85 98 fe ff
	ff		 lea	 eax, DWORD PTR _szKey$[ebp]
  001d6	f3 0f 11 04 24	 movss	 DWORD PTR [esp], xmm0
  001db	50		 push	 eax
  001dc	8b cf		 mov	 ecx, edi
  001de	ff 15 00 00 00
	00		 call	 DWORD PTR __imp_?LoadFloat@ioINILoader@@QAEMPBDM@Z
  001e4	d9 9d 70 fd ff
	ff		 fstp	 DWORD PTR _Info$548621[ebp+8]
  001ea	6a 06		 push	 6

; 125  : 
; 126  : 		wsprintf_e( szKey, "wounded_extend%d_max_height", i+1 );

  001ec	c7 45 cc 9a 83
	9e 84		 mov	 DWORD PTR ___encStr$548931[ebp], -2069986406 ; 849e839aH
  001f3	c7 45 d0 89 89
	8f b5		 mov	 DWORD PTR ___encStr$548931[ebp+4], -1248884343 ; b58f8989H
  001fa	c7 45 d4 88 94
	9f 8f		 mov	 DWORD PTR ___encStr$548931[ebp+8], -1885367160 ; 8f9f9488H
  00201	c7 45 d8 83 88
	ce 8e		 mov	 DWORD PTR ___encStr$548931[ebp+12], -1899067261 ; 8ece8883H
  00208	c7 45 dc b2 81
	8a 92		 mov	 DWORD PTR ___encStr$548931[ebp+16], -1836416590 ; 928a81b2H
  0020f	c7 45 e0 b2 84
	8e 83		 mov	 DWORD PTR ___encStr$548931[ebp+20], -2087811918 ; 838e84b2H
  00216	8d 45 cc	 lea	 eax, DWORD PTR ___encStr$548931[ebp]
  00219	c7 45 e4 8a 84
	9f 00		 mov	 DWORD PTR ___encStr$548931[ebp+24], 10454154 ; 009f848aH
  00220	59		 pop	 ecx
$LL629@LoadWounde:
  00221	81 30 ed ec eb
	ea		 xor	 DWORD PTR [eax], -353637139 ; eaebecedH
  00227	83 c0 04	 add	 eax, 4
  0022a	49		 dec	 ecx
  0022b	75 f4		 jne	 SHORT $LL629@LoadWounde
  0022d	6a 18		 push	 24			; 00000018H
  0022f	58		 pop	 eax
$LL626@LoadWounde:
  00230	8b c8		 mov	 ecx, eax
  00232	81 e1 03 00 00
	80		 and	 ecx, -2147483645	; 80000003H
  00238	79 05		 jns	 SHORT $LN680@LoadWounde
  0023a	49		 dec	 ecx
  0023b	83 c9 fc	 or	 ecx, -4			; fffffffcH
  0023e	41		 inc	 ecx
$LN680@LoadWounde:
  0023f	b2 ed		 mov	 dl, -19			; ffffffedH
  00241	2a d1		 sub	 dl, cl
  00243	30 54 05 cc	 xor	 BYTE PTR ___encStr$548931[ebp+eax], dl
  00247	40		 inc	 eax
  00248	83 f8 1b	 cmp	 eax, 27			; 0000001bH
  0024b	7c e3		 jl	 SHORT $LL626@LoadWounde
  0024d	ff b5 90 fd ff
	ff		 push	 DWORD PTR tv4738[ebp]
  00253	8d 45 cc	 lea	 eax, DWORD PTR ___encStr$548931[ebp]
  00256	50		 push	 eax
  00257	8d 85 98 fe ff
	ff		 lea	 eax, DWORD PTR _szKey$[ebp]
  0025d	50		 push	 eax
  0025e	ff d6		 call	 esi

; 127  : 		Info.fMaxHeight	= rkLoader.LoadFloat( szKey, 5.0f );

  00260	f3 0f 10 05 00
	00 00 00	 movss	 xmm0, DWORD PTR __real@40a00000
  00268	59		 pop	 ecx
  00269	59		 pop	 ecx
  0026a	8d 85 98 fe ff
	ff		 lea	 eax, DWORD PTR _szKey$[ebp]
  00270	f3 0f 11 04 24	 movss	 DWORD PTR [esp], xmm0
  00275	50		 push	 eax
  00276	8b cf		 mov	 ecx, edi
  00278	ff 15 00 00 00
	00		 call	 DWORD PTR __imp_?LoadFloat@ioINILoader@@QAEMPBDM@Z
  0027e	d9 9d 70 fd ff
	ff		 fstp	 DWORD PTR _Info$548621[ebp+8]
  00284	6a 08		 push	 8

; 128  : 
; 129  : 		wsprintf_e( szKey, "wounded_extend%d_branch_animation", i+1 );

  00286	c7 45 c8 9a 83
	9e 84		 mov	 DWORD PTR ___encStr$549083[ebp], -2069986406 ; 849e839aH
  0028d	c7 45 cc 89 89
	8f b5		 mov	 DWORD PTR ___encStr$549083[ebp+4], -1248884343 ; b58f8989H
  00294	c7 45 d0 88 94
	9f 8f		 mov	 DWORD PTR ___encStr$549083[ebp+8], -1885367160 ; 8f9f9488H
  0029b	c7 45 d4 83 88
	ce 8e		 mov	 DWORD PTR ___encStr$549083[ebp+12], -1899067261 ; 8ece8883H
  002a2	c7 45 d8 b2 8e
	99 8b		 mov	 DWORD PTR ___encStr$549083[ebp+16], -1952870734 ; 8b998eb2H
  002a9	c7 45 dc 83 8f
	83 b5		 mov	 DWORD PTR ___encStr$549083[ebp+20], -1249669245 ; b5838f83H
  002b0	c7 45 e0 8c 82
	82 87		 mov	 DWORD PTR ___encStr$549083[ebp+24], -2021490036 ; 8782828cH
  002b7	c7 45 e4 8c 98
	82 85		 mov	 DWORD PTR ___encStr$549083[ebp+28], -2055038836 ; 8582988cH
  002be	8d 45 c8	 lea	 eax, DWORD PTR ___encStr$549083[ebp]
  002c1	66 c7 45 e8 83
	00		 mov	 WORD PTR ___encStr$549083[ebp+32], 131 ; 00000083H
  002c7	59		 pop	 ecx
$LL637@LoadWounde:
  002c8	81 30 ed ec eb
	ea		 xor	 DWORD PTR [eax], -353637139 ; eaebecedH
  002ce	83 c0 04	 add	 eax, 4
  002d1	49		 dec	 ecx
  002d2	75 f4		 jne	 SHORT $LL637@LoadWounde
  002d4	ff b5 90 fd ff
	ff		 push	 DWORD PTR tv4738[ebp]
  002da	80 75 e8 ed	 xor	 BYTE PTR ___encStr$549083[ebp+32], -19 ; ffffffedH
  002de	8d 45 c8	 lea	 eax, DWORD PTR ___encStr$549083[ebp]
  002e1	50		 push	 eax
  002e2	8d 85 98 fe ff
	ff		 lea	 eax, DWORD PTR _szKey$[ebp]
  002e8	50		 push	 eax
  002e9	ff d6		 call	 esi
  002eb	83 c4 0c	 add	 esp, 12			; 0000000cH

; 130  : 		rkLoader.LoadString( szKey, "", szBuf, MAX_PATH );

  002ee	68 04 01 00 00	 push	 260			; 00000104H
  002f3	8d 85 94 fd ff
	ff		 lea	 eax, DWORD PTR _szBuf$[ebp]
  002f9	50		 push	 eax
  002fa	68 00 00 00 00	 push	 OFFSET ??_C@_00CNPNBAHC@?$AA@
  002ff	8d 85 98 fe ff
	ff		 lea	 eax, DWORD PTR _szKey$[ebp]
  00305	50		 push	 eax
  00306	8b cf		 mov	 ecx, edi
  00308	ff 15 00 00 00
	00		 call	 DWORD PTR __imp_?LoadStringA@ioINILoader@@QAEXPBD0PADH@Z

; 131  : 		Info.BranchAnimation = szBuf;

  0030e	8d 85 94 fd ff
	ff		 lea	 eax, DWORD PTR _szBuf$[ebp]
  00314	50		 push	 eax
  00315	8d 8d 74 fd ff
	ff		 lea	 ecx, DWORD PTR _Info$548621[ebp+12]
  0031b	ff 15 00 00 00
	00		 call	 DWORD PTR __imp_??4ioHashString@@QAEAAV0@PBD@Z
  00321	6a 09		 push	 9

; 132  : 
; 133  : 		wsprintf_e( szKey, "wounded_extend%d_branch_animation_rate", i+1 );

  00323	c7 45 9c 9a 83
	9e 84		 mov	 DWORD PTR ___encStr$549235[ebp], -2069986406 ; 849e839aH
  0032a	c7 45 a0 89 89
	8f b5		 mov	 DWORD PTR ___encStr$549235[ebp+4], -1248884343 ; b58f8989H
  00331	c7 45 a4 88 94
	9f 8f		 mov	 DWORD PTR ___encStr$549235[ebp+8], -1885367160 ; 8f9f9488H
  00338	c7 45 a8 83 88
	ce 8e		 mov	 DWORD PTR ___encStr$549235[ebp+12], -1899067261 ; 8ece8883H
  0033f	c7 45 ac b2 8e
	99 8b		 mov	 DWORD PTR ___encStr$549235[ebp+16], -1952870734 ; 8b998eb2H
  00346	c7 45 b0 83 8f
	83 b5		 mov	 DWORD PTR ___encStr$549235[ebp+20], -1249669245 ; b5838f83H
  0034d	c7 45 b4 8c 82
	82 87		 mov	 DWORD PTR ___encStr$549235[ebp+24], -2021490036 ; 8782828cH
  00354	c7 45 b8 8c 98
	82 85		 mov	 DWORD PTR ___encStr$549235[ebp+28], -2055038836 ; 8582988cH
  0035b	c7 45 bc 83 b3
	99 8b		 mov	 DWORD PTR ___encStr$549235[ebp+32], -1952861309 ; 8b99b383H
  00362	66 c7 45 c0 99
	89		 mov	 WORD PTR ___encStr$549235[ebp+36], 35225 ; 00008999H
  00368	8d 45 9c	 lea	 eax, DWORD PTR ___encStr$549235[ebp]
  0036b	88 5d c2	 mov	 BYTE PTR ___encStr$549235[ebp+38], bl
  0036e	59		 pop	 ecx
$LL645@LoadWounde:
  0036f	81 30 ed ec eb
	ea		 xor	 DWORD PTR [eax], -353637139 ; eaebecedH
  00375	83 c0 04	 add	 eax, 4
  00378	49		 dec	 ecx
  00379	75 f4		 jne	 SHORT $LL645@LoadWounde
  0037b	6a 24		 push	 36			; 00000024H
  0037d	58		 pop	 eax
$LL642@LoadWounde:
  0037e	8b c8		 mov	 ecx, eax
  00380	81 e1 03 00 00
	80		 and	 ecx, -2147483645	; 80000003H
  00386	79 05		 jns	 SHORT $LN681@LoadWounde
  00388	49		 dec	 ecx
  00389	83 c9 fc	 or	 ecx, -4			; fffffffcH
  0038c	41		 inc	 ecx
$LN681@LoadWounde:
  0038d	b2 ed		 mov	 dl, -19			; ffffffedH
  0038f	2a d1		 sub	 dl, cl
  00391	30 54 05 9c	 xor	 BYTE PTR ___encStr$549235[ebp+eax], dl
  00395	40		 inc	 eax
  00396	83 f8 26	 cmp	 eax, 38			; 00000026H
  00399	7c e3		 jl	 SHORT $LL642@LoadWounde
  0039b	ff b5 90 fd ff
	ff		 push	 DWORD PTR tv4738[ebp]
  003a1	8d 45 9c	 lea	 eax, DWORD PTR ___encStr$549235[ebp]
  003a4	50		 push	 eax
  003a5	8d 85 98 fe ff
	ff		 lea	 eax, DWORD PTR _szKey$[ebp]
  003ab	50		 push	 eax
  003ac	ff d6		 call	 esi

; 134  : 		Info.fAnimationRate	= rkLoader.LoadFloat( szKey, 1.0f );

  003ae	f3 0f 10 05 00
	00 00 00	 movss	 xmm0, DWORD PTR __real@3f800000
  003b6	59		 pop	 ecx
  003b7	59		 pop	 ecx
  003b8	8d 85 98 fe ff
	ff		 lea	 eax, DWORD PTR _szKey$[ebp]
  003be	f3 0f 11 04 24	 movss	 DWORD PTR [esp], xmm0
  003c3	50		 push	 eax
  003c4	8b cf		 mov	 ecx, edi
  003c6	ff 15 00 00 00
	00		 call	 DWORD PTR __imp_?LoadFloat@ioINILoader@@QAEMPBDM@Z
  003cc	d9 9d 84 fd ff
	ff		 fstp	 DWORD PTR _Info$548621[ebp+28]

; 135  : 
; 136  : 		m_WoundedInfoList.push_back( Info );

  003d2	8b 8d 88 fd ff
	ff		 mov	 ecx, DWORD PTR tv3983[ebp]
  003d8	8d 85 68 fd ff
	ff		 lea	 eax, DWORD PTR _Info$548621[ebp]
  003de	50		 push	 eax
  003df	e8 00 00 00 00	 call	 ?push_back@?$vector@UWoundedInfo@ioLeeSunSin@@V?$allocator@UWoundedInfo@ioLeeSunSin@@@std@@@std@@QAEXABUWoundedInfo@ioLeeSunSin@@@Z ; std::vector<ioLeeSunSin::WoundedInfo,std::allocator<ioLeeSunSin::WoundedInfo> >::push_back

; 137  : 	}

  003e4	83 4d fc ff	 or	 DWORD PTR __$EHRec$[ebp+8], -1
  003e8	8d 8d 74 fd ff
	ff		 lea	 ecx, DWORD PTR _Info$548621[ebp+12]
  003ee	ff 15 00 00 00
	00		 call	 DWORD PTR __imp_??1ioHashString@@QAE@XZ
  003f4	ff 85 90 fd ff
	ff		 inc	 DWORD PTR tv4738[ebp]
  003fa	ff 8d 8c fd ff
	ff		 dec	 DWORD PTR tv3692[ebp]
  00400	0f 85 c0 fc ff
	ff		 jne	 $LL498@LoadWounde
$LN496@LoadWounde:

; 138  : }

  00406	e8 00 00 00 00	 call	 __EH_epilog3_GS
  0040b	c2 04 00	 ret	 4
_TEXT	ENDS
;	COMDAT text$x
text$x	SEGMENT
__unwindfunclet$?LoadWoundedInfo@ioLeeSunSin@@QAEXAAVioINILoader@@@Z$0:
  00000	8d 8d 68 fd ff
	ff		 lea	 ecx, DWORD PTR _Info$548621[ebp]
  00006	e9 00 00 00 00	 jmp	 ??1WoundedInfo@ioLeeSunSin@@QAE@XZ
__ehhandler$?LoadWoundedInfo@ioLeeSunSin@@QAEXAAVioINILoader@@@Z:
  0000b	8b 54 24 08	 mov	 edx, DWORD PTR [esp+8]
  0000f	8d 42 0c	 lea	 eax, DWORD PTR [edx+12]
  00012	8b 8a 64 fd ff
	ff		 mov	 ecx, DWORD PTR [edx-668]
  00018	33 c8		 xor	 ecx, eax
  0001a	e8 00 00 00 00	 call	 @__security_check_cookie@4
  0001f	8b 4a fc	 mov	 ecx, DWORD PTR [edx-4]
  00022	33 c8		 xor	 ecx, eax
  00024	e8 00 00 00 00	 call	 @__security_check_cookie@4
  00029	b8 00 00 00 00	 mov	 eax, OFFSET __ehfuncinfo$?LoadWoundedInfo@ioLeeSunSin@@QAEXAAVioINILoader@@@Z
  0002e	e9 00 00 00 00	 jmp	 ___CxxFrameHandler3
text$x	ENDS
?LoadWoundedInfo@ioLeeSunSin@@QAEXAAVioINILoader@@@Z ENDP ; ioLeeSunSin::LoadWoundedInfo
PUBLIC	_this$GSCopy$
PUBLIC	?LoadBuffProperty@ioLeeSunSin@@QAEXAAVioINILoader@@@Z ; ioLeeSunSin::LoadBuffProperty
;	COMDAT xdata$x
; File d:\lost saga for developer\youtube\tutorial\source\src\lsclient\stringprotect.h
xdata$x	SEGMENT
__unwindtable$?LoadBuffProperty@ioLeeSunSin@@QAEXAAVioINILoader@@@Z DD 0ffffffffH
	DD	FLAT:__unwindfunclet$?LoadBuffProperty@ioLeeSunSin@@QAEXAAVioINILoader@@@Z$0
__ehfuncinfo$?LoadBuffProperty@ioLeeSunSin@@QAEXAAVioINILoader@@@Z DD 019930522H
	DD	01H
	DD	FLAT:__unwindtable$?LoadBuffProperty@ioLeeSunSin@@QAEXAAVioINILoader@@@Z
	DD	2 DUP(00H)
	DD	2 DUP(00H)
	DD	00H
	DD	01H
; Function compile flags: /Ogsp
; File d:\lost saga for developer\youtube\tutorial\source\src\lsclient\ioleesunsin.cpp
xdata$x	ENDS
;	COMDAT ?LoadBuffProperty@ioLeeSunSin@@QAEXAAVioINILoader@@@Z
_TEXT	SEGMENT
$T559362 = -592						; size = 16
_iCnt$ = -576						; size = 4
tv1527 = -572						; size = 4
_this$GSCopy$ = -572					; size = 4
_szKey$ = -568						; size = 260
_szBuf$ = -308						; size = 260
__k$559407 = -48					; size = 28
___encStr$549405 = -48					; size = 26
__$EHRec$ = -12						; size = 12
_rkLoader$ = 8						; size = 4
?LoadBuffProperty@ioLeeSunSin@@QAEXAAVioINILoader@@@Z PROC ; ioLeeSunSin::LoadBuffProperty, COMDAT
; _this$ = ecx

; 141  : {

  00000	68 44 02 00 00	 push	 580			; 00000244H
  00005	b8 00 00 00 00	 mov	 eax, __ehhandler$?LoadBuffProperty@ioLeeSunSin@@QAEXAAVioINILoader@@@Z
  0000a	e8 00 00 00 00	 call	 __EH_prolog3_GS
  0000f	8b 7d 08	 mov	 edi, DWORD PTR _rkLoader$[ebp]

; 142  : 	char szBuf[MAX_PATH];
; 143  : 	char szKey[MAX_PATH];
; 144  : 
; 145  : 	int iCnt = rkLoader.LoadInt_e( "wounded_extend_use_buff_cnt", 0 );

  00012	6a 06		 push	 6
  00014	89 8d c4 fd ff
	ff		 mov	 DWORD PTR _this$GSCopy$[ebp], ecx
  0001a	c7 45 d0 9a 83
	9e 84		 mov	 DWORD PTR __k$559407[ebp], -2069986406 ; 849e839aH
  00021	c7 45 d4 89 89
	8f b5		 mov	 DWORD PTR __k$559407[ebp+4], -1248884343 ; b58f8989H
  00028	c7 45 d8 88 94
	9f 8f		 mov	 DWORD PTR __k$559407[ebp+8], -1885367160 ; 8f9f9488H
  0002f	c7 45 dc 83 88
	b4 9f		 mov	 DWORD PTR __k$559407[ebp+12], -1615558525 ; 9fb48883H
  00036	c7 45 e0 9e 89
	b4 88		 mov	 DWORD PTR __k$559407[ebp+16], -2001434210 ; 88b4899eH
  0003d	c7 45 e4 98 8a
	8d b5		 mov	 DWORD PTR __k$559407[ebp+20], -1249015144 ; b58d8a98H
  00044	8d 45 d0	 lea	 eax, DWORD PTR __k$559407[ebp]
  00047	c7 45 e8 8e 82
	9f 00		 mov	 DWORD PTR __k$559407[ebp+24], 10453646 ; 009f828eH
  0004e	59		 pop	 ecx
$LL209@LoadBuffPr:
  0004f	81 30 ed ec eb
	ea		 xor	 DWORD PTR [eax], -353637139 ; eaebecedH
  00055	83 c0 04	 add	 eax, 4
  00058	49		 dec	 ecx
  00059	75 f4		 jne	 SHORT $LL209@LoadBuffPr
  0005b	6a 18		 push	 24			; 00000018H
  0005d	5e		 pop	 esi
$LL206@LoadBuffPr:
  0005e	8b c6		 mov	 eax, esi
  00060	25 03 00 00 80	 and	 eax, -2147483645	; 80000003H
  00065	79 05		 jns	 SHORT $LN231@LoadBuffPr
  00067	48		 dec	 eax
  00068	83 c8 fc	 or	 eax, -4			; fffffffcH
  0006b	40		 inc	 eax
$LN231@LoadBuffPr:
  0006c	b1 ed		 mov	 cl, -19			; ffffffedH
  0006e	2a c8		 sub	 cl, al
  00070	30 4c 35 d0	 xor	 BYTE PTR __k$559407[ebp+esi], cl
  00074	46		 inc	 esi
  00075	83 fe 1b	 cmp	 esi, 27			; 0000001bH
  00078	7c e4		 jl	 SHORT $LL206@LoadBuffPr
  0007a	6a 00		 push	 0
  0007c	8d 45 d0	 lea	 eax, DWORD PTR __k$559407[ebp]
  0007f	50		 push	 eax
  00080	8b cf		 mov	 ecx, edi
  00082	ff 15 00 00 00
	00		 call	 DWORD PTR __imp_?LoadInt@ioINILoader@@QAEHPBDH@Z

; 146  : 	for( int i = 0; i < iCnt; ++i )

  00088	33 f6		 xor	 esi, esi
  0008a	89 85 c0 fd ff
	ff		 mov	 DWORD PTR _iCnt$[ebp], eax
  00090	85 c0		 test	 eax, eax
  00092	0f 8e d2 00 00
	00		 jle	 $LN100@LoadBuffPr
  00098	8b 85 c4 fd ff
	ff		 mov	 eax, DWORD PTR _this$GSCopy$[ebp]
  0009e	05 cc 1b 00 00	 add	 eax, 7116		; 00001bccH
  000a3	89 85 c4 fd ff
	ff		 mov	 DWORD PTR tv1527[ebp], eax
$LL102@LoadBuffPr:

; 147  : 	{
; 148  : 		wsprintf_e( szKey, "wounded_extend_use_buff%d", i+1 );

  000a9	6a 06		 push	 6
  000ab	c7 45 d0 9a 83
	9e 84		 mov	 DWORD PTR ___encStr$549405[ebp], -2069986406 ; 849e839aH
  000b2	c7 45 d4 89 89
	8f b5		 mov	 DWORD PTR ___encStr$549405[ebp+4], -1248884343 ; b58f8989H
  000b9	c7 45 d8 88 94
	9f 8f		 mov	 DWORD PTR ___encStr$549405[ebp+8], -1885367160 ; 8f9f9488H
  000c0	c7 45 dc 83 88
	b4 9f		 mov	 DWORD PTR ___encStr$549405[ebp+12], -1615558525 ; 9fb48883H
  000c7	c7 45 e0 9e 89
	b4 88		 mov	 DWORD PTR ___encStr$549405[ebp+16], -2001434210 ; 88b4899eH
  000ce	c7 45 e4 98 8a
	8d cf		 mov	 DWORD PTR ___encStr$549405[ebp+20], -812807528 ; cf8d8a98H
  000d5	8d 45 d0	 lea	 eax, DWORD PTR ___encStr$549405[ebp]
  000d8	66 c7 45 e8 89
	00		 mov	 WORD PTR ___encStr$549405[ebp+24], 137 ; 00000089H
  000de	59		 pop	 ecx
$LL217@LoadBuffPr:
  000df	81 30 ed ec eb
	ea		 xor	 DWORD PTR [eax], -353637139 ; eaebecedH
  000e5	83 c0 04	 add	 eax, 4
  000e8	49		 dec	 ecx
  000e9	75 f4		 jne	 SHORT $LL217@LoadBuffPr
  000eb	80 75 e8 ed	 xor	 BYTE PTR ___encStr$549405[ebp+24], -19 ; ffffffedH
  000ef	46		 inc	 esi
  000f0	56		 push	 esi
  000f1	8d 45 d0	 lea	 eax, DWORD PTR ___encStr$549405[ebp]
  000f4	50		 push	 eax
  000f5	8d 85 c8 fd ff
	ff		 lea	 eax, DWORD PTR _szKey$[ebp]
  000fb	50		 push	 eax
  000fc	ff 15 00 00 00
	00		 call	 DWORD PTR __imp__wsprintfA
  00102	83 c4 0c	 add	 esp, 12			; 0000000cH

; 149  : 		rkLoader.LoadString( szKey, "", szBuf, MAX_PATH );

  00105	68 04 01 00 00	 push	 260			; 00000104H
  0010a	8d 85 cc fe ff
	ff		 lea	 eax, DWORD PTR _szBuf$[ebp]
  00110	50		 push	 eax
  00111	68 00 00 00 00	 push	 OFFSET ??_C@_00CNPNBAHC@?$AA@
  00116	8d 85 c8 fd ff
	ff		 lea	 eax, DWORD PTR _szKey$[ebp]
  0011c	50		 push	 eax
  0011d	8b cf		 mov	 ecx, edi
  0011f	ff 15 00 00 00
	00		 call	 DWORD PTR __imp_?LoadStringA@ioINILoader@@QAEXPBD0PADH@Z

; 150  : 		m_WoundedExtendUseBuffList.push_back( szBuf );

  00125	8d 85 cc fe ff
	ff		 lea	 eax, DWORD PTR _szBuf$[ebp]
  0012b	50		 push	 eax
  0012c	8d 8d b0 fd ff
	ff		 lea	 ecx, DWORD PTR $T559362[ebp]
  00132	ff 15 00 00 00
	00		 call	 DWORD PTR __imp_??0ioHashString@@QAE@PBD@Z
  00138	8b 8d c4 fd ff
	ff		 mov	 ecx, DWORD PTR tv1527[ebp]
  0013e	83 65 fc 00	 and	 DWORD PTR __$EHRec$[ebp+8], 0
  00142	8d 85 b0 fd ff
	ff		 lea	 eax, DWORD PTR $T559362[ebp]
  00148	50		 push	 eax
  00149	e8 00 00 00 00	 call	 ?push_back@?$vector@VioHashString@@V?$allocator@VioHashString@@@std@@@std@@QAEXABVioHashString@@@Z ; std::vector<ioHashString,std::allocator<ioHashString> >::push_back
  0014e	83 4d fc ff	 or	 DWORD PTR __$EHRec$[ebp+8], -1
  00152	8d 8d b0 fd ff
	ff		 lea	 ecx, DWORD PTR $T559362[ebp]
  00158	ff 15 00 00 00
	00		 call	 DWORD PTR __imp_??1ioHashString@@QAE@XZ
  0015e	3b b5 c0 fd ff
	ff		 cmp	 esi, DWORD PTR _iCnt$[ebp]
  00164	0f 8c 3f ff ff
	ff		 jl	 $LL102@LoadBuffPr
$LN100@LoadBuffPr:

; 151  : 	}
; 152  : }

  0016a	e8 00 00 00 00	 call	 __EH_epilog3_GS
  0016f	c2 04 00	 ret	 4
_TEXT	ENDS
;	COMDAT text$x
text$x	SEGMENT
__unwindfunclet$?LoadBuffProperty@ioLeeSunSin@@QAEXAAVioINILoader@@@Z$0:
  00000	8d 8d b0 fd ff
	ff		 lea	 ecx, DWORD PTR $T559362[ebp]
  00006	ff 25 00 00 00
	00		 jmp	 DWORD PTR __imp_??1ioHashString@@QAE@XZ
__ehhandler$?LoadBuffProperty@ioLeeSunSin@@QAEXAAVioINILoader@@@Z:
  0000c	8b 54 24 08	 mov	 edx, DWORD PTR [esp+8]
  00010	8d 42 0c	 lea	 eax, DWORD PTR [edx+12]
  00013	8b 8a ac fd ff
	ff		 mov	 ecx, DWORD PTR [edx-596]
  00019	33 c8		 xor	 ecx, eax
  0001b	e8 00 00 00 00	 call	 @__security_check_cookie@4
  00020	8b 4a fc	 mov	 ecx, DWORD PTR [edx-4]
  00023	33 c8		 xor	 ecx, eax
  00025	e8 00 00 00 00	 call	 @__security_check_cookie@4
  0002a	b8 00 00 00 00	 mov	 eax, OFFSET __ehfuncinfo$?LoadBuffProperty@ioLeeSunSin@@QAEXAAVioINILoader@@@Z
  0002f	e9 00 00 00 00	 jmp	 ___CxxFrameHandler3
text$x	ENDS
?LoadBuffProperty@ioLeeSunSin@@QAEXAAVioINILoader@@@Z ENDP ; ioLeeSunSin::LoadBuffProperty
;	COMDAT xdata$x
xdata$x	SEGMENT
__unwindtable$?Clone@ioLeeSunSin@@UAEPAVioItem@@XZ DD 0ffffffffH
	DD	FLAT:__unwindfunclet$?Clone@ioLeeSunSin@@UAEPAVioItem@@XZ$0
__ehfuncinfo$?Clone@ioLeeSunSin@@UAEPAVioItem@@XZ DD 019930522H
	DD	01H
	DD	FLAT:__unwindtable$?Clone@ioLeeSunSin@@UAEPAVioItem@@XZ
	DD	2 DUP(00H)
	DD	2 DUP(00H)
	DD	00H
	DD	01H
; Function compile flags: /Ogsp
xdata$x	ENDS
;	COMDAT ?Clone@ioLeeSunSin@@UAEPAVioItem@@XZ
_TEXT	SEGMENT
$T559523 = -16						; size = 4
__$EHRec$ = -12						; size = 12
?Clone@ioLeeSunSin@@UAEPAVioItem@@XZ PROC		; ioLeeSunSin::Clone, COMDAT
; _this$ = ecx

; 155  : {

  00000	6a 04		 push	 4
  00002	b8 00 00 00 00	 mov	 eax, __ehhandler$?Clone@ioLeeSunSin@@UAEPAVioItem@@XZ
  00007	e8 00 00 00 00	 call	 __EH_prolog3
  0000c	8b f1		 mov	 esi, ecx

; 156  : 	return new ioLeeSunSin( *this );

  0000e	68 dc 1b 00 00	 push	 7132			; 00001bdcH
  00013	e8 00 00 00 00	 call	 ??2@YAPAXI@Z		; operator new
  00018	59		 pop	 ecx
  00019	8b c8		 mov	 ecx, eax
  0001b	89 4d f0	 mov	 DWORD PTR $T559523[ebp], ecx
  0001e	33 c0		 xor	 eax, eax
  00020	89 45 fc	 mov	 DWORD PTR __$EHRec$[ebp+8], eax
  00023	3b c8		 cmp	 ecx, eax
  00025	74 06		 je	 SHORT $LN3@Clone
  00027	56		 push	 esi
  00028	e8 00 00 00 00	 call	 ??0ioLeeSunSin@@QAE@ABV0@@Z ; ioLeeSunSin::ioLeeSunSin
$LN3@Clone:

; 157  : }

  0002d	e8 00 00 00 00	 call	 __EH_epilog3
  00032	c3		 ret	 0
_TEXT	ENDS
;	COMDAT text$x
text$x	SEGMENT
__unwindfunclet$?Clone@ioLeeSunSin@@UAEPAVioItem@@XZ$0:
  00000	ff 75 f0	 push	 DWORD PTR $T559523[ebp]
  00003	e8 00 00 00 00	 call	 ??3@YAXPAX@Z		; operator delete
  00008	59		 pop	 ecx
  00009	c3		 ret	 0
__ehhandler$?Clone@ioLeeSunSin@@UAEPAVioItem@@XZ:
  0000a	8b 54 24 08	 mov	 edx, DWORD PTR [esp+8]
  0000e	8d 42 0c	 lea	 eax, DWORD PTR [edx+12]
  00011	8b 4a ec	 mov	 ecx, DWORD PTR [edx-20]
  00014	33 c8		 xor	 ecx, eax
  00016	e8 00 00 00 00	 call	 @__security_check_cookie@4
  0001b	b8 00 00 00 00	 mov	 eax, OFFSET __ehfuncinfo$?Clone@ioLeeSunSin@@UAEPAVioItem@@XZ
  00020	e9 00 00 00 00	 jmp	 ___CxxFrameHandler3
text$x	ENDS
?Clone@ioLeeSunSin@@UAEPAVioItem@@XZ ENDP		; ioLeeSunSin::Clone
; Function compile flags: /Ogsp
;	COMDAT ??_GioLeeSunSin@@UAEPAXI@Z
_TEXT	SEGMENT
___flags$ = 8						; size = 4
??_GioLeeSunSin@@UAEPAXI@Z PROC				; ioLeeSunSin::`scalar deleting destructor', COMDAT
; _this$ = ecx
  00000	55		 push	 ebp
  00001	8b ec		 mov	 ebp, esp
  00003	56		 push	 esi
  00004	8b f1		 mov	 esi, ecx
  00006	e8 00 00 00 00	 call	 ??1ioLeeSunSin@@UAE@XZ	; ioLeeSunSin::~ioLeeSunSin
  0000b	f6 45 08 01	 test	 BYTE PTR ___flags$[ebp], 1
  0000f	74 07		 je	 SHORT $LN1@scalar@6
  00011	56		 push	 esi
  00012	e8 00 00 00 00	 call	 ??3@YAXPAX@Z		; operator delete
  00017	59		 pop	 ecx
$LN1@scalar@6:
  00018	8b c6		 mov	 eax, esi
  0001a	5e		 pop	 esi
  0001b	5d		 pop	 ebp
  0001c	c2 04 00	 ret	 4
??_GioLeeSunSin@@UAEPAXI@Z ENDP				; ioLeeSunSin::`scalar deleting destructor'
_TEXT	ENDS
PUBLIC	??_C@_0BL@BCLOOKHH@full_wounded_extend_attack?$AA@ ; `string'
PUBLIC	??_C@_0BD@OHJMGAI@full_extend_attack?$AA@	; `string'
PUBLIC	??_C@_0BG@ODCGPLEM@wounded_extend_attack?$AA@	; `string'
PUBLIC	??_C@_0O@HMIHFEJP@extend_attack?$AA@		; `string'
PUBLIC	??_C@_0BF@LBBBCAMI@assult_extend_attack?$AA@	; `string'
PUBLIC	_rkLoader$GSCopy$
PUBLIC	__$ArrayPad$
EXTRN	?LoadAttackAttribute@@YAXPBDAAUAttackAttribute@@AAVioINILoader@@@Z:PROC ; LoadAttackAttribute
EXTRN	?LoadProperty@ioWeaponItem@@UAEXAAVioINILoader@@@Z:PROC ; ioWeaponItem::LoadProperty
;	COMDAT ??_C@_0BL@BCLOOKHH@full_wounded_extend_attack?$AA@
; File d:\lost saga for developer\youtube\tutorial\source\src\lsclient\stringprotect.h
CONST	SEGMENT
??_C@_0BL@BCLOOKHH@full_wounded_extend_attack?$AA@ DB 'full_wounded_exten'
	DB	'd_attack', 00H				; `string'
CONST	ENDS
;	COMDAT ??_C@_0BD@OHJMGAI@full_extend_attack?$AA@
CONST	SEGMENT
??_C@_0BD@OHJMGAI@full_extend_attack?$AA@ DB 'full_extend_attack', 00H ; `string'
CONST	ENDS
;	COMDAT ??_C@_0BG@ODCGPLEM@wounded_extend_attack?$AA@
CONST	SEGMENT
??_C@_0BG@ODCGPLEM@wounded_extend_attack?$AA@ DB 'wounded_extend_attack', 00H ; `string'
CONST	ENDS
;	COMDAT ??_C@_0O@HMIHFEJP@extend_attack?$AA@
CONST	SEGMENT
??_C@_0O@HMIHFEJP@extend_attack?$AA@ DB 'extend_attack', 00H ; `string'
CONST	ENDS
;	COMDAT ??_C@_0BF@LBBBCAMI@assult_extend_attack?$AA@
CONST	SEGMENT
??_C@_0BF@LBBBCAMI@assult_extend_attack?$AA@ DB 'assult_extend_attack', 00H ; `string'
; Function compile flags: /Ogsp
; File d:\lost saga for developer\youtube\tutorial\source\src\lsclient\ioleesunsin.cpp
CONST	ENDS
;	COMDAT ?LoadProperty@ioLeeSunSin@@UAEXAAVioINILoader@@@Z
_TEXT	SEGMENT
_value$559796 = -304					; size = 4
_value$559666 = -304					; size = 4
_rkLoader$GSCopy$ = -300				; size = 4
_szBuf$ = -296						; size = 260
__k$560326 = -36					; size = 26
__k$559698 = -36					; size = 24
__k$559813 = -32					; size = 21
__k$560201 = -28					; size = 18
__k$559938 = -28					; size = 17
__k$559566 = -28					; size = 17
__k$560063 = -24					; size = 14
__$ArrayPad$ = -4					; size = 4
_rkLoader$ = 8						; size = 4
?LoadProperty@ioLeeSunSin@@UAEXAAVioINILoader@@@Z PROC	; ioLeeSunSin::LoadProperty, COMDAT
; _this$ = ecx

; 77   : {

  00000	55		 push	 ebp
  00001	8b ec		 mov	 ebp, esp
  00003	81 ec 30 01 00
	00		 sub	 esp, 304		; 00000130H
  00009	a1 00 00 00 00	 mov	 eax, DWORD PTR ___security_cookie
  0000e	33 c5		 xor	 eax, ebp
  00010	89 45 fc	 mov	 DWORD PTR __$ArrayPad$[ebp], eax
  00013	53		 push	 ebx
  00014	56		 push	 esi
  00015	57		 push	 edi
  00016	8b 7d 08	 mov	 edi, DWORD PTR _rkLoader$[ebp]

; 78   : 	ioWeaponItem::LoadProperty( rkLoader );

  00019	57		 push	 edi
  0001a	8b f1		 mov	 esi, ecx

; 93   : 
; 94   : 	rkLoader.LoadString_e( "max_gather_effect", "", szBuf, MAX_PATH );

  0001c	89 bd d4 fe ff
	ff		 mov	 DWORD PTR _rkLoader$GSCopy$[ebp], edi
  00022	e8 00 00 00 00	 call	 ?LoadProperty@ioWeaponItem@@UAEXAAVioINILoader@@@Z ; ioWeaponItem::LoadProperty
  00027	6a 04		 push	 4
  00029	5b		 pop	 ebx
  0002a	c7 45 e4 83 89
	8e 8e		 mov	 DWORD PTR __k$559566[ebp], -1903261309 ; 8e8e8983H
  00031	c7 45 e8 b2 89
	93 9e		 mov	 DWORD PTR __k$559566[ebp+4], -1634498126 ; 9e9389b2H
  00038	c7 45 ec 9f 8d
	b4 8d		 mov	 DWORD PTR __k$559566[ebp+8], -1917547105 ; 8db48d9fH
  0003f	c7 45 f0 8c 99
	8c 8f		 mov	 DWORD PTR __k$559566[ebp+12], -1886611060 ; 8f8c998cH
  00046	8d 45 e4	 lea	 eax, DWORD PTR __k$559566[ebp]
  00049	c6 45 f4 00	 mov	 BYTE PTR __k$559566[ebp+16], 0
  0004d	8b cb		 mov	 ecx, ebx
$LL106@LoadProper:

; 79   : 
; 80   : 	char szBuf[MAX_PATH];
; 81   : 
; 82   : 	m_fNeedGauge		= rkLoader.LoadFloat_e( "need_extra_gauge", 0.0f );

  0004f	81 30 ed ec eb
	ea		 xor	 DWORD PTR [eax], -353637139 ; eaebecedH
  00055	03 c3		 add	 eax, ebx
  00057	49		 dec	 ecx
  00058	75 f5		 jne	 SHORT $LL106@LoadProper
  0005a	0f 57 c0	 xorps	 xmm0, xmm0
  0005d	51		 push	 ecx
  0005e	8d 45 e4	 lea	 eax, DWORD PTR __k$559566[ebp]
  00061	f3 0f 11 04 24	 movss	 DWORD PTR [esp], xmm0
  00066	50		 push	 eax
  00067	8b cf		 mov	 ecx, edi
  00069	ff 15 00 00 00
	00		 call	 DWORD PTR __imp_?LoadFloat@ioINILoader@@QAEMPBDM@Z
  0006f	d9 9d d0 fe ff
	ff		 fstp	 DWORD PTR _value$559666[ebp]
  00075	8d 85 d0 fe ff
	ff		 lea	 eax, DWORD PTR _value$559666[ebp]
  0007b	50		 push	 eax
  0007c	8d 8e 64 19 00
	00		 lea	 ecx, DWORD PTR [esi+6500]
  00082	e8 00 00 00 00	 call	 ?EncryptValueToPool@?$CEncrypt@M@@AAEXPBD@Z ; CEncrypt<float>::EncryptValueToPool
  00087	6a 05		 push	 5

; 83   : 	m_fNeedGaugeByMax	= rkLoader.LoadFloat_e( "need_extra_gauge_by_max", 0.0f );

  00089	c7 45 dc 83 89
	8e 8e		 mov	 DWORD PTR __k$559698[ebp], -1903261309 ; 8e8e8983H
  00090	c7 45 e0 b2 89
	93 9e		 mov	 DWORD PTR __k$559698[ebp+4], -1634498126 ; 9e9389b2H
  00097	c7 45 e4 9f 8d
	b4 8d		 mov	 DWORD PTR __k$559698[ebp+8], -1917547105 ; 8db48d9fH
  0009e	c7 45 e8 8c 99
	8c 8f		 mov	 DWORD PTR __k$559698[ebp+12], -1886611060 ; 8f8c998cH
  000a5	c7 45 ec b2 8e
	92 b5		 mov	 DWORD PTR __k$559698[ebp+16], -1248686414 ; b5928eb2H
  000ac	8d 45 dc	 lea	 eax, DWORD PTR __k$559698[ebp]
  000af	c7 45 f0 80 8d
	93 00		 mov	 DWORD PTR __k$559698[ebp+20], 9670016 ; 00938d80H
  000b6	59		 pop	 ecx
$LL214@LoadProper:
  000b7	81 30 ed ec eb
	ea		 xor	 DWORD PTR [eax], -353637139 ; eaebecedH
  000bd	03 c3		 add	 eax, ebx
  000bf	49		 dec	 ecx
  000c0	75 f5		 jne	 SHORT $LL214@LoadProper
  000c2	6a 14		 push	 20			; 00000014H
  000c4	58		 pop	 eax
$LL211@LoadProper:
  000c5	8b c8		 mov	 ecx, eax
  000c7	81 e1 03 00 00
	80		 and	 ecx, -2147483645	; 80000003H
  000cd	79 05		 jns	 SHORT $LN777@LoadProper
  000cf	49		 dec	 ecx
  000d0	83 c9 fc	 or	 ecx, -4			; fffffffcH
  000d3	41		 inc	 ecx
$LN777@LoadProper:
  000d4	b2 ed		 mov	 dl, -19			; ffffffedH
  000d6	2a d1		 sub	 dl, cl
  000d8	30 54 05 dc	 xor	 BYTE PTR __k$559698[ebp+eax], dl
  000dc	40		 inc	 eax
  000dd	83 f8 17	 cmp	 eax, 23			; 00000017H
  000e0	7c e3		 jl	 SHORT $LL211@LoadProper
  000e2	0f 57 c0	 xorps	 xmm0, xmm0
  000e5	51		 push	 ecx
  000e6	8d 45 dc	 lea	 eax, DWORD PTR __k$559698[ebp]
  000e9	f3 0f 11 04 24	 movss	 DWORD PTR [esp], xmm0
  000ee	50		 push	 eax
  000ef	8b cf		 mov	 ecx, edi
  000f1	ff 15 00 00 00
	00		 call	 DWORD PTR __imp_?LoadFloat@ioINILoader@@QAEMPBDM@Z
  000f7	d9 9d d0 fe ff
	ff		 fstp	 DWORD PTR _value$559796[ebp]
  000fd	8d 85 d0 fe ff
	ff		 lea	 eax, DWORD PTR _value$559796[ebp]
  00103	50		 push	 eax
  00104	8d 8e 94 19 00
	00		 lea	 ecx, DWORD PTR [esi+6548]
  0010a	e8 00 00 00 00	 call	 ?EncryptValueToPool@?$CEncrypt@M@@AAEXPBD@Z ; CEncrypt<float>::EncryptValueToPool
  0010f	6a 05		 push	 5

; 84   : 
; 85   : 	rkLoader.LoadString_e( "pre_gather_animation", "", szBuf, MAX_PATH );

  00111	c7 45 e0 9d 9e
	8e b5		 mov	 DWORD PTR __k$559813[ebp], -1248944483 ; b58e9e9dH
  00118	c7 45 e4 8a 8d
	9f 82		 mov	 DWORD PTR __k$559813[ebp+4], -2103472758 ; 829f8d8aH
  0011f	c7 45 e8 88 9e
	b4 8b		 mov	 DWORD PTR __k$559813[ebp+8], -1951097208 ; 8bb49e88H
  00126	c7 45 ec 83 85
	86 8b		 mov	 DWORD PTR __k$559813[ebp+12], -1954118269 ; 8b868583H
  0012d	c7 45 f0 99 85
	84 84		 mov	 DWORD PTR __k$559813[ebp+16], -2071689831 ; 84848599H
  00134	8d 45 e0	 lea	 eax, DWORD PTR __k$559813[ebp]
  00137	c6 45 f4 00	 mov	 BYTE PTR __k$559813[ebp+20], 0
  0013b	59		 pop	 ecx
$LL322@LoadProper:
  0013c	81 30 ed ec eb
	ea		 xor	 DWORD PTR [eax], -353637139 ; eaebecedH
  00142	03 c3		 add	 eax, ebx
  00144	49		 dec	 ecx
  00145	75 f5		 jne	 SHORT $LL322@LoadProper
  00147	68 04 01 00 00	 push	 260			; 00000104H
  0014c	8d 85 d8 fe ff
	ff		 lea	 eax, DWORD PTR _szBuf$[ebp]
  00152	50		 push	 eax
  00153	68 00 00 00 00	 push	 OFFSET ??_C@_00CNPNBAHC@?$AA@
  00158	8d 45 e0	 lea	 eax, DWORD PTR __k$559813[ebp]
  0015b	8b cf		 mov	 ecx, edi
  0015d	8b 3d 00 00 00
	00		 mov	 edi, DWORD PTR __imp_?LoadStringA@ioINILoader@@QAEXPBD0PADH@Z
  00163	50		 push	 eax
  00164	ff d7		 call	 edi

; 86   : 	m_PreGatherAnimation = szBuf;

  00166	8b 1d 00 00 00
	00		 mov	 ebx, DWORD PTR __imp_??4ioHashString@@QAEAAV0@PBD@Z
  0016c	8d 85 d8 fe ff
	ff		 lea	 eax, DWORD PTR _szBuf$[ebp]
  00172	50		 push	 eax
  00173	8d 8e c4 19 00
	00		 lea	 ecx, DWORD PTR [esi+6596]
  00179	ff d3		 call	 ebx
  0017b	6a 04		 push	 4

; 87   : 
; 88   : 	rkLoader.LoadString_e( "gather_animation", "", szBuf, MAX_PATH );

  0017d	c7 45 e4 8a 8d
	9f 82		 mov	 DWORD PTR __k$559938[ebp], -2103472758 ; 829f8d8aH
  00184	c7 45 e8 88 9e
	b4 8b		 mov	 DWORD PTR __k$559938[ebp+4], -1951097208 ; 8bb49e88H
  0018b	c7 45 ec 83 85
	86 8b		 mov	 DWORD PTR __k$559938[ebp+8], -1954118269 ; 8b868583H
  00192	c7 45 f0 99 85
	84 84		 mov	 DWORD PTR __k$559938[ebp+12], -2071689831 ; 84848599H
  00199	8d 45 e4	 lea	 eax, DWORD PTR __k$559938[ebp]
  0019c	c6 45 f4 00	 mov	 BYTE PTR __k$559938[ebp+16], 0
  001a0	59		 pop	 ecx
$LL428@LoadProper:
  001a1	81 30 ed ec eb
	ea		 xor	 DWORD PTR [eax], -353637139 ; eaebecedH
  001a7	83 c0 04	 add	 eax, 4
  001aa	49		 dec	 ecx
  001ab	75 f4		 jne	 SHORT $LL428@LoadProper
  001ad	8b 8d d4 fe ff
	ff		 mov	 ecx, DWORD PTR _rkLoader$GSCopy$[ebp]
  001b3	68 04 01 00 00	 push	 260			; 00000104H
  001b8	8d 85 d8 fe ff
	ff		 lea	 eax, DWORD PTR _szBuf$[ebp]
  001be	50		 push	 eax
  001bf	68 00 00 00 00	 push	 OFFSET ??_C@_00CNPNBAHC@?$AA@
  001c4	8d 45 e4	 lea	 eax, DWORD PTR __k$559938[ebp]
  001c7	50		 push	 eax
  001c8	ff d7		 call	 edi

; 89   : 	m_GatherAnimation = szBuf;

  001ca	8d 85 d8 fe ff
	ff		 lea	 eax, DWORD PTR _szBuf$[ebp]
  001d0	50		 push	 eax
  001d1	8d 8e d4 19 00
	00		 lea	 ecx, DWORD PTR [esi+6612]
  001d7	ff d3		 call	 ebx
  001d9	6a 03		 push	 3

; 90   : 
; 91   : 	rkLoader.LoadString_e( "gather_effect", "", szBuf, MAX_PATH );

  001db	c7 45 e8 8a 8d
	9f 82		 mov	 DWORD PTR __k$560063[ebp], -2103472758 ; 829f8d8aH
  001e2	c7 45 ec 88 9e
	b4 8f		 mov	 DWORD PTR __k$560063[ebp+4], -1883988344 ; 8fb49e88H
  001e9	c7 45 f0 8b 8a
	8e 89		 mov	 DWORD PTR __k$560063[ebp+8], -1987147125 ; 898e8a8bH
  001f0	8d 45 e8	 lea	 eax, DWORD PTR __k$560063[ebp]
  001f3	66 c7 45 f4 99
	00		 mov	 WORD PTR __k$560063[ebp+12], 153 ; 00000099H
  001f9	59		 pop	 ecx
$LL534@LoadProper:
  001fa	81 30 ed ec eb
	ea		 xor	 DWORD PTR [eax], -353637139 ; eaebecedH
  00200	83 c0 04	 add	 eax, 4
  00203	49		 dec	 ecx
  00204	75 f4		 jne	 SHORT $LL534@LoadProper
  00206	8b 8d d4 fe ff
	ff		 mov	 ecx, DWORD PTR _rkLoader$GSCopy$[ebp]
  0020c	80 75 f4 ed	 xor	 BYTE PTR __k$560063[ebp+12], -19 ; ffffffedH
  00210	68 04 01 00 00	 push	 260			; 00000104H
  00215	8d 85 d8 fe ff
	ff		 lea	 eax, DWORD PTR _szBuf$[ebp]
  0021b	50		 push	 eax
  0021c	68 00 00 00 00	 push	 OFFSET ??_C@_00CNPNBAHC@?$AA@
  00221	8d 45 e8	 lea	 eax, DWORD PTR __k$560063[ebp]
  00224	50		 push	 eax
  00225	ff d7		 call	 edi

; 92   : 	m_GatherEffect = szBuf;

  00227	8d 85 d8 fe ff
	ff		 lea	 eax, DWORD PTR _szBuf$[ebp]
  0022d	50		 push	 eax
  0022e	8d 8e e4 19 00
	00		 lea	 ecx, DWORD PTR [esi+6628]
  00234	ff d3		 call	 ebx
  00236	6a 04		 push	 4

; 93   : 
; 94   : 	rkLoader.LoadString_e( "max_gather_effect", "", szBuf, MAX_PATH );

  00238	c7 45 e4 80 8d
	93 b5		 mov	 DWORD PTR __k$560201[ebp], -1248621184 ; b5938d80H
  0023f	c7 45 e8 8a 8d
	9f 82		 mov	 DWORD PTR __k$560201[ebp+4], -2103472758 ; 829f8d8aH
  00246	c7 45 ec 88 9e
	b4 8f		 mov	 DWORD PTR __k$560201[ebp+8], -1883988344 ; 8fb49e88H
  0024d	c7 45 f0 8b 8a
	8e 89		 mov	 DWORD PTR __k$560201[ebp+12], -1987147125 ; 898e8a8bH
  00254	8d 45 e4	 lea	 eax, DWORD PTR __k$560201[ebp]
  00257	66 c7 45 f4 99
	00		 mov	 WORD PTR __k$560201[ebp+16], 153 ; 00000099H
  0025d	59		 pop	 ecx
$LL640@LoadProper:
  0025e	81 30 ed ec eb
	ea		 xor	 DWORD PTR [eax], -353637139 ; eaebecedH
  00264	83 c0 04	 add	 eax, 4
  00267	49		 dec	 ecx
  00268	75 f4		 jne	 SHORT $LL640@LoadProper
  0026a	8b 8d d4 fe ff
	ff		 mov	 ecx, DWORD PTR _rkLoader$GSCopy$[ebp]
  00270	80 75 f4 ed	 xor	 BYTE PTR __k$560201[ebp+16], -19 ; ffffffedH
  00274	68 04 01 00 00	 push	 260			; 00000104H
  00279	8d 85 d8 fe ff
	ff		 lea	 eax, DWORD PTR _szBuf$[ebp]
  0027f	50		 push	 eax
  00280	68 00 00 00 00	 push	 OFFSET ??_C@_00CNPNBAHC@?$AA@
  00285	8d 45 e4	 lea	 eax, DWORD PTR __k$560201[ebp]
  00288	50		 push	 eax
  00289	ff d7		 call	 edi

; 95   : 	m_GatherMaxEffect = szBuf;

  0028b	8d 85 d8 fe ff
	ff		 lea	 eax, DWORD PTR _szBuf$[ebp]
  00291	50		 push	 eax
  00292	8d 8e f4 19 00
	00		 lea	 ecx, DWORD PTR [esi+6644]
  00298	ff d3		 call	 ebx

; 96   : 	
; 97   : 	LoadAttackAttribute( "assult_extend_attack", m_AssultExtendAttack, rkLoader );

  0029a	8b bd d4 fe ff
	ff		 mov	 edi, DWORD PTR _rkLoader$GSCopy$[ebp]
  002a0	57		 push	 edi
  002a1	8d 86 b0 1a 00
	00		 lea	 eax, DWORD PTR [esi+6832]
  002a7	50		 push	 eax
  002a8	68 00 00 00 00	 push	 OFFSET ??_C@_0BF@LBBBCAMI@assult_extend_attack?$AA@
  002ad	e8 00 00 00 00	 call	 ?LoadAttackAttribute@@YAXPBDAAUAttackAttribute@@AAVioINILoader@@@Z ; LoadAttackAttribute

; 98   : 	LoadAttackAttribute( "extend_attack", m_ExtendAttack, rkLoader );

  002b2	57		 push	 edi
  002b3	8d 86 10 1a 00
	00		 lea	 eax, DWORD PTR [esi+6672]
  002b9	50		 push	 eax
  002ba	68 00 00 00 00	 push	 OFFSET ??_C@_0O@HMIHFEJP@extend_attack?$AA@
  002bf	e8 00 00 00 00	 call	 ?LoadAttackAttribute@@YAXPBDAAUAttackAttribute@@AAVioINILoader@@@Z ; LoadAttackAttribute

; 99   : 	LoadAttackAttribute( "wounded_extend_attack", m_WoundedExtendAttack, rkLoader );

  002c4	57		 push	 edi
  002c5	8d 86 60 1a 00
	00		 lea	 eax, DWORD PTR [esi+6752]
  002cb	50		 push	 eax
  002cc	68 00 00 00 00	 push	 OFFSET ??_C@_0BG@ODCGPLEM@wounded_extend_attack?$AA@
  002d1	e8 00 00 00 00	 call	 ?LoadAttackAttribute@@YAXPBDAAUAttackAttribute@@AAVioINILoader@@@Z ; LoadAttackAttribute

; 100  : 	LoadAttackAttribute( "full_extend_attack", m_FullChargeExtendAttack, rkLoader );

  002d6	57		 push	 edi
  002d7	8d 86 00 1b 00
	00		 lea	 eax, DWORD PTR [esi+6912]
  002dd	50		 push	 eax
  002de	68 00 00 00 00	 push	 OFFSET ??_C@_0BD@OHJMGAI@full_extend_attack?$AA@
  002e3	e8 00 00 00 00	 call	 ?LoadAttackAttribute@@YAXPBDAAUAttackAttribute@@AAVioINILoader@@@Z ; LoadAttackAttribute

; 101  : 	LoadAttackAttribute( "full_wounded_extend_attack", m_FullChargeWoundedExtendAttack, rkLoader );

  002e8	57		 push	 edi
  002e9	8d 86 50 1b 00
	00		 lea	 eax, DWORD PTR [esi+6992]
  002ef	50		 push	 eax
  002f0	68 00 00 00 00	 push	 OFFSET ??_C@_0BL@BCLOOKHH@full_wounded_extend_attack?$AA@
  002f5	e8 00 00 00 00	 call	 ?LoadAttackAttribute@@YAXPBDAAUAttackAttribute@@AAVioINILoader@@@Z ; LoadAttackAttribute
  002fa	83 c4 3c	 add	 esp, 60			; 0000003cH
  002fd	6a 06		 push	 6

; 102  : 
; 103  : 	m_dwAssultDashCount = rkLoader.LoadInt_e( "assult_extend_limit_count", 1 );

  002ff	c7 45 dc 8c 9f
	98 9f		 mov	 DWORD PTR __k$560326[ebp], -1617387636 ; 9f989f8cH
  00306	c7 45 e0 81 98
	b4 8f		 mov	 DWORD PTR __k$560326[ebp+4], -1883989887 ; 8fb49881H
  0030d	c7 45 e4 95 98
	8e 84		 mov	 DWORD PTR __k$560326[ebp+8], -2071029611 ; 848e9895H
  00314	c7 45 e8 89 b3
	87 83		 mov	 DWORD PTR __k$560326[ebp+12], -2088258679 ; 8387b389H
  0031b	c7 45 ec 80 85
	9f b5		 mov	 DWORD PTR __k$560326[ebp+16], -1247836800 ; b59f8580H
  00322	c7 45 f0 8e 83
	9e 84		 mov	 DWORD PTR __k$560326[ebp+20], -2069986418 ; 849e838eH
  00329	8d 45 dc	 lea	 eax, DWORD PTR __k$560326[ebp]
  0032c	66 c7 45 f4 99
	00		 mov	 WORD PTR __k$560326[ebp+24], 153 ; 00000099H
  00332	59		 pop	 ecx
$LL746@LoadProper:
  00333	81 30 ed ec eb
	ea		 xor	 DWORD PTR [eax], -353637139 ; eaebecedH
  00339	83 c0 04	 add	 eax, 4
  0033c	49		 dec	 ecx
  0033d	75 f4		 jne	 SHORT $LL746@LoadProper
  0033f	80 75 f4 ed	 xor	 BYTE PTR __k$560326[ebp+24], -19 ; ffffffedH
  00343	6a 01		 push	 1
  00345	8d 45 dc	 lea	 eax, DWORD PTR __k$560326[ebp]
  00348	50		 push	 eax
  00349	8b cf		 mov	 ecx, edi
  0034b	ff 15 00 00 00
	00		 call	 DWORD PTR __imp_?LoadInt@ioINILoader@@QAEHPBDH@Z

; 104  : 
; 105  : 	LoadWoundedInfo( rkLoader );

  00351	57		 push	 edi
  00352	8b ce		 mov	 ecx, esi
  00354	89 86 a4 1b 00
	00		 mov	 DWORD PTR [esi+7076], eax
  0035a	e8 00 00 00 00	 call	 ?LoadWoundedInfo@ioLeeSunSin@@QAEXAAVioINILoader@@@Z ; ioLeeSunSin::LoadWoundedInfo

; 106  : 	LoadBuffProperty( rkLoader );

  0035f	57		 push	 edi
  00360	8b ce		 mov	 ecx, esi
  00362	e8 00 00 00 00	 call	 ?LoadBuffProperty@ioLeeSunSin@@QAEXAAVioINILoader@@@Z ; ioLeeSunSin::LoadBuffProperty

; 107  : }

  00367	8b 4d fc	 mov	 ecx, DWORD PTR __$ArrayPad$[ebp]
  0036a	5f		 pop	 edi
  0036b	5e		 pop	 esi
  0036c	33 cd		 xor	 ecx, ebp
  0036e	5b		 pop	 ebx
  0036f	e8 00 00 00 00	 call	 @__security_check_cookie@4
  00374	c9		 leave
  00375	c2 04 00	 ret	 4
?LoadProperty@ioLeeSunSin@@UAEXAAVioINILoader@@@Z ENDP	; ioLeeSunSin::LoadProperty
_TEXT	ENDS
END
