; Listing generated by Microsoft (R) Optimizing Compiler Version 16.00.30319.01 

	TITLE	D:\Lost Saga For Developer\Youtube\Tutorial\Source\src\LSClient\ioLinearComboSkill2.cpp
	.686P
	.XMM
	include listing.inc
	.model	flat

INCLUDELIB MSVCRT
INCLUDELIB OLDNAMES

PUBLIC	?_EEM_DS@?$deque@UD3DXVECTOR3@@V?$allocator@UD3DXVECTOR3@@@std@@@std@@2HB ; std::deque<D3DXVECTOR3,std::allocator<D3DXVECTOR3> >::_EEM_DS
;	COMDAT ?_EEM_DS@?$deque@UD3DXVECTOR3@@V?$allocator@UD3DXVECTOR3@@@std@@@std@@2HB
CONST	SEGMENT
?_EEM_DS@?$deque@UD3DXVECTOR3@@V?$allocator@UD3DXVECTOR3@@@std@@@std@@2HB DD 01H ; std::deque<D3DXVECTOR3,std::allocator<D3DXVECTOR3> >::_EEM_DS
CONST	ENDS
PUBLIC	?return5@@YAIXZ					; return5
; Function compile flags: /Ogsp
; File d:\lost saga for developer\youtube\tutorial\source\src\lsclient\stdafx.h
;	COMDAT ?return5@@YAIXZ
_TEXT	SEGMENT
?return5@@YAIXZ PROC					; return5, COMDAT

; 18   : 	__forceinline unsigned int return5() { __asm mov eax, 5 };

  00000	b8 05 00 00 00	 mov	 eax, 5
  00005	c3		 ret	 0
?return5@@YAIXZ ENDP					; return5
_TEXT	ENDS
PUBLIC	?return10@@YAIXZ				; return10
; Function compile flags: /Ogsp
;	COMDAT ?return10@@YAIXZ
_TEXT	SEGMENT
?return10@@YAIXZ PROC					; return10, COMDAT

; 21   : 	__forceinline unsigned int return10() { __asm mov eax, 10 };

  00000	b8 0a 00 00 00	 mov	 eax, 10			; 0000000aH
  00005	c3		 ret	 0
?return10@@YAIXZ ENDP					; return10
_TEXT	ENDS
PUBLIC	?GetCharName@ioBaseChar@@QBEABVioHashString@@XZ	; ioBaseChar::GetCharName
; Function compile flags: /Ogsp
; File d:\lost saga for developer\youtube\tutorial\source\src\lsclient\iobasechar.h
;	COMDAT ?GetCharName@ioBaseChar@@QBEABVioHashString@@XZ
_TEXT	SEGMENT
?GetCharName@ioBaseChar@@QBEABVioHashString@@XZ PROC	; ioBaseChar::GetCharName, COMDAT
; _this$ = ecx

; 2594 : 	inline const ioHashString& GetCharName() const { return m_Name; }

  00000	8d 81 d4 02 00
	00		 lea	 eax, DWORD PTR [ecx+724]
  00006	c3		 ret	 0
?GetCharName@ioBaseChar@@QBEABVioHashString@@XZ ENDP	; ioBaseChar::GetCharName
_TEXT	ENDS
PUBLIC	?GetTargetRot@ioBaseChar@@QBEABUD3DXQUATERNION@@XZ ; ioBaseChar::GetTargetRot
; Function compile flags: /Ogsp
;	COMDAT ?GetTargetRot@ioBaseChar@@QBEABUD3DXQUATERNION@@XZ
_TEXT	SEGMENT
?GetTargetRot@ioBaseChar@@QBEABUD3DXQUATERNION@@XZ PROC	; ioBaseChar::GetTargetRot, COMDAT
; _this$ = ecx

; 2599 : 	inline const D3DXQUATERNION& GetTargetRot() const { return m_qtTargetRot; }

  00000	8d 81 a4 06 00
	00		 lea	 eax, DWORD PTR [ecx+1700]
  00006	c3		 ret	 0
?GetTargetRot@ioBaseChar@@QBEABUD3DXQUATERNION@@XZ ENDP	; ioBaseChar::GetTargetRot
_TEXT	ENDS
PUBLIC	?SetCurJumpPowerAmt@ioBaseChar@@QAEXM@Z		; ioBaseChar::SetCurJumpPowerAmt
EXTRN	__fltused:DWORD
; Function compile flags: /Ogsp
;	COMDAT ?SetCurJumpPowerAmt@ioBaseChar@@QAEXM@Z
_TEXT	SEGMENT
_fAmt$ = 8						; size = 4
?SetCurJumpPowerAmt@ioBaseChar@@QAEXM@Z PROC		; ioBaseChar::SetCurJumpPowerAmt, COMDAT
; _this$ = ecx

; 2628 : 	inline void SetCurJumpPowerAmt( float fAmt ) { m_fCurJumpPowerAmt = fAmt; }

  00000	55		 push	 ebp
  00001	8b ec		 mov	 ebp, esp
  00003	f3 0f 10 45 08	 movss	 xmm0, DWORD PTR _fAmt$[ebp]
  00008	f3 0f 11 81 90
	0e 00 00	 movss	 DWORD PTR [ecx+3728], xmm0
  00010	5d		 pop	 ebp
  00011	c2 04 00	 ret	 4
?SetCurJumpPowerAmt@ioBaseChar@@QAEXM@Z ENDP		; ioBaseChar::SetCurJumpPowerAmt
_TEXT	ENDS
PUBLIC	??_7bad_alloc@std@@6B@				; std::bad_alloc::`vftable'
PUBLIC	??0bad_alloc@std@@QAE@PBD@Z			; std::bad_alloc::bad_alloc
PUBLIC	??_R4bad_alloc@std@@6B@				; std::bad_alloc::`RTTI Complete Object Locator'
PUBLIC	??_R0?AVbad_alloc@std@@@8			; std::bad_alloc `RTTI Type Descriptor'
PUBLIC	??_R3bad_alloc@std@@8				; std::bad_alloc::`RTTI Class Hierarchy Descriptor'
PUBLIC	??_R2bad_alloc@std@@8				; std::bad_alloc::`RTTI Base Class Array'
PUBLIC	??_R1A@?0A@EA@bad_alloc@std@@8			; std::bad_alloc::`RTTI Base Class Descriptor at (0,-1,0,64)'
PUBLIC	??_R1A@?0A@EA@exception@std@@8			; std::exception::`RTTI Base Class Descriptor at (0,-1,0,64)'
PUBLIC	??_R0?AVexception@std@@@8			; std::exception `RTTI Type Descriptor'
PUBLIC	??_R3exception@std@@8				; std::exception::`RTTI Class Hierarchy Descriptor'
PUBLIC	??_R2exception@std@@8				; std::exception::`RTTI Base Class Array'
EXTRN	__imp_??0exception@std@@QAE@ABQBD@Z:PROC
EXTRN	??_7type_info@@6B@:QWORD			; type_info::`vftable'
EXTRN	??_Ebad_alloc@std@@UAEPAXI@Z:PROC		; std::bad_alloc::`vector deleting destructor'
EXTRN	?what@exception@std@@UBEPBDXZ:PROC		; std::exception::what
;	COMDAT ??_R2exception@std@@8
; File c:\program files (x86)\microsoft visual studio 10.0\vc\include\exception
rdata$r	SEGMENT
??_R2exception@std@@8 DD FLAT:??_R1A@?0A@EA@exception@std@@8 ; std::exception::`RTTI Base Class Array'
rdata$r	ENDS
;	COMDAT ??_R3exception@std@@8
rdata$r	SEGMENT
??_R3exception@std@@8 DD 00H				; std::exception::`RTTI Class Hierarchy Descriptor'
	DD	00H
	DD	01H
	DD	FLAT:??_R2exception@std@@8
rdata$r	ENDS
;	COMDAT ??_R0?AVexception@std@@@8
_DATA	SEGMENT
??_R0?AVexception@std@@@8 DD FLAT:??_7type_info@@6B@	; std::exception `RTTI Type Descriptor'
	DD	00H
	DB	'.?AVexception@std@@', 00H
_DATA	ENDS
;	COMDAT ??_R1A@?0A@EA@exception@std@@8
rdata$r	SEGMENT
??_R1A@?0A@EA@exception@std@@8 DD FLAT:??_R0?AVexception@std@@@8 ; std::exception::`RTTI Base Class Descriptor at (0,-1,0,64)'
	DD	00H
	DD	00H
	DD	0ffffffffH
	DD	00H
	DD	040H
	DD	FLAT:??_R3exception@std@@8
rdata$r	ENDS
;	COMDAT ??_R1A@?0A@EA@bad_alloc@std@@8
rdata$r	SEGMENT
??_R1A@?0A@EA@bad_alloc@std@@8 DD FLAT:??_R0?AVbad_alloc@std@@@8 ; std::bad_alloc::`RTTI Base Class Descriptor at (0,-1,0,64)'
	DD	01H
	DD	00H
	DD	0ffffffffH
	DD	00H
	DD	040H
	DD	FLAT:??_R3bad_alloc@std@@8
rdata$r	ENDS
;	COMDAT ??_R2bad_alloc@std@@8
rdata$r	SEGMENT
??_R2bad_alloc@std@@8 DD FLAT:??_R1A@?0A@EA@bad_alloc@std@@8 ; std::bad_alloc::`RTTI Base Class Array'
	DD	FLAT:??_R1A@?0A@EA@exception@std@@8
rdata$r	ENDS
;	COMDAT ??_R3bad_alloc@std@@8
rdata$r	SEGMENT
??_R3bad_alloc@std@@8 DD 00H				; std::bad_alloc::`RTTI Class Hierarchy Descriptor'
	DD	00H
	DD	02H
	DD	FLAT:??_R2bad_alloc@std@@8
rdata$r	ENDS
;	COMDAT ??_R0?AVbad_alloc@std@@@8
_DATA	SEGMENT
??_R0?AVbad_alloc@std@@@8 DD FLAT:??_7type_info@@6B@	; std::bad_alloc `RTTI Type Descriptor'
	DD	00H
	DB	'.?AVbad_alloc@std@@', 00H
_DATA	ENDS
;	COMDAT ??_R4bad_alloc@std@@6B@
rdata$r	SEGMENT
??_R4bad_alloc@std@@6B@ DD 00H				; std::bad_alloc::`RTTI Complete Object Locator'
	DD	00H
	DD	00H
	DD	FLAT:??_R0?AVbad_alloc@std@@@8
	DD	FLAT:??_R3bad_alloc@std@@8
rdata$r	ENDS
;	COMDAT ??_7bad_alloc@std@@6B@
CONST	SEGMENT
??_7bad_alloc@std@@6B@ DD FLAT:??_R4bad_alloc@std@@6B@	; std::bad_alloc::`vftable'
	DD	FLAT:??_Ebad_alloc@std@@UAEPAXI@Z
	DD	FLAT:?what@exception@std@@UBEPBDXZ
; Function compile flags: /Ogsp
CONST	ENDS
;	COMDAT ??0bad_alloc@std@@QAE@PBD@Z
_TEXT	SEGMENT
__Message$ = 8						; size = 4
??0bad_alloc@std@@QAE@PBD@Z PROC			; std::bad_alloc::bad_alloc, COMDAT
; _this$ = ecx

; 345  : 		{	// construct from message string

  00000	55		 push	 ebp
  00001	8b ec		 mov	 ebp, esp
  00003	56		 push	 esi
  00004	8d 45 08	 lea	 eax, DWORD PTR __Message$[ebp]
  00007	50		 push	 eax
  00008	8b f1		 mov	 esi, ecx
  0000a	ff 15 00 00 00
	00		 call	 DWORD PTR __imp_??0exception@std@@QAE@ABQBD@Z
  00010	c7 06 00 00 00
	00		 mov	 DWORD PTR [esi], OFFSET ??_7bad_alloc@std@@6B@

; 346  : 		}

  00016	8b c6		 mov	 eax, esi
  00018	5e		 pop	 esi
  00019	5d		 pop	 ebp
  0001a	c2 04 00	 ret	 4
??0bad_alloc@std@@QAE@PBD@Z ENDP			; std::bad_alloc::bad_alloc
_TEXT	ENDS
PUBLIC	??1bad_alloc@std@@UAE@XZ			; std::bad_alloc::~bad_alloc
EXTRN	__imp_??1exception@std@@UAE@XZ:PROC
; Function compile flags: /Ogsp
;	COMDAT ??1bad_alloc@std@@UAE@XZ
_TEXT	SEGMENT
??1bad_alloc@std@@UAE@XZ PROC				; std::bad_alloc::~bad_alloc, COMDAT
; _this$ = ecx

; 354  : 		{	// destroy the object

  00000	c7 01 00 00 00
	00		 mov	 DWORD PTR [ecx], OFFSET ??_7bad_alloc@std@@6B@

; 355  : 		}

  00006	ff 25 00 00 00
	00		 jmp	 DWORD PTR __imp_??1exception@std@@UAE@XZ
??1bad_alloc@std@@UAE@XZ ENDP				; std::bad_alloc::~bad_alloc
_TEXT	ENDS
EXTRN	??3@YAXPAX@Z:PROC				; operator delete
; Function compile flags: /Ogsp
;	COMDAT ??_Gbad_alloc@std@@UAEPAXI@Z
_TEXT	SEGMENT
___flags$ = 8						; size = 4
??_Gbad_alloc@std@@UAEPAXI@Z PROC			; std::bad_alloc::`scalar deleting destructor', COMDAT
; _this$ = ecx
  00000	55		 push	 ebp
  00001	8b ec		 mov	 ebp, esp
  00003	56		 push	 esi
  00004	8b f1		 mov	 esi, ecx
  00006	c7 06 00 00 00
	00		 mov	 DWORD PTR [esi], OFFSET ??_7bad_alloc@std@@6B@
  0000c	ff 15 00 00 00
	00		 call	 DWORD PTR __imp_??1exception@std@@UAE@XZ
  00012	f6 45 08 01	 test	 BYTE PTR ___flags$[ebp], 1
  00016	74 07		 je	 SHORT $LN1@scalar
  00018	56		 push	 esi
  00019	e8 00 00 00 00	 call	 ??3@YAXPAX@Z		; operator delete
  0001e	59		 pop	 ecx
$LN1@scalar:
  0001f	8b c6		 mov	 eax, esi
  00021	5e		 pop	 esi
  00022	5d		 pop	 ebp
  00023	c2 04 00	 ret	 4
??_Gbad_alloc@std@@UAEPAXI@Z ENDP			; std::bad_alloc::`scalar deleting destructor'
_TEXT	ENDS
PUBLIC	?IsDirKeyDoubleClick@ioBaseChar@@QBE_NXZ	; ioBaseChar::IsDirKeyDoubleClick
EXTRN	?IsDirDoubleClick@ioUserKeyInput@@QBE_NXZ:PROC	; ioUserKeyInput::IsDirDoubleClick
; Function compile flags: /Ogsp
; File d:\lost saga for developer\youtube\tutorial\source\src\lsclient\iobasechar.h
;	COMDAT ?IsDirKeyDoubleClick@ioBaseChar@@QBE_NXZ
_TEXT	SEGMENT
?IsDirKeyDoubleClick@ioBaseChar@@QBE_NXZ PROC		; ioBaseChar::IsDirKeyDoubleClick, COMDAT
; _this$ = ecx

; 3398 : 	bool IsDirKeyDoubleClick() const { return m_KeyInput.IsDirDoubleClick(); }

  00000	81 c1 80 0c 00
	00		 add	 ecx, 3200		; 00000c80H
  00006	e9 00 00 00 00	 jmp	 ?IsDirDoubleClick@ioUserKeyInput@@QBE_NXZ ; ioUserKeyInput::IsDirDoubleClick
?IsDirKeyDoubleClick@ioBaseChar@@QBE_NXZ ENDP		; ioBaseChar::IsDirKeyDoubleClick
_TEXT	ENDS
PUBLIC	??2@YAPAXIPAX@Z					; operator new
; Function compile flags: /Ogsp
; File c:\program files (x86)\microsoft visual studio 10.0\vc\include\new
;	COMDAT ??2@YAPAXIPAX@Z
_TEXT	SEGMENT
___formal$ = 8						; size = 4
__Where$ = 12						; size = 4
??2@YAPAXIPAX@Z PROC					; operator new, COMDAT

; 56   : 	{	// construct array with placement at _Where

  00000	55		 push	 ebp
  00001	8b ec		 mov	 ebp, esp

; 57   : 	return (_Where);

  00003	8b 45 0c	 mov	 eax, DWORD PTR __Where$[ebp]

; 58   : 	}

  00006	5d		 pop	 ebp
  00007	c3		 ret	 0
??2@YAPAXIPAX@Z ENDP					; operator new
_TEXT	ENDS
PUBLIC	??3@YAXPAX0@Z					; operator delete
; Function compile flags: /Ogsp
;	COMDAT ??3@YAXPAX0@Z
_TEXT	SEGMENT
___formal$ = 8						; size = 4
___formal$ = 12						; size = 4
??3@YAXPAX0@Z PROC					; operator delete, COMDAT

; 62   : 	}

  00000	c3		 ret	 0
??3@YAXPAX0@Z ENDP					; operator delete
_TEXT	ENDS
PUBLIC	??_R0?AVioWeapon@@@8				; ioWeapon `RTTI Type Descriptor'
PUBLIC	??_R0?AVioZoneEffectWeapon@@@8			; ioZoneEffectWeapon `RTTI Type Descriptor'
PUBLIC	?ToZoneEffectWeapon@@YAPAVioZoneEffectWeapon@@PAVioWeapon@@@Z ; ToZoneEffectWeapon
EXTRN	___RTDynamicCast:PROC
;	COMDAT ??_R0?AVioWeapon@@@8
; File d:\lost saga for developer\youtube\tutorial\source\src\lsclient\iozoneeffectweapon.h
_DATA	SEGMENT
??_R0?AVioWeapon@@@8 DD FLAT:??_7type_info@@6B@		; ioWeapon `RTTI Type Descriptor'
	DD	00H
	DB	'.?AVioWeapon@@', 00H
_DATA	ENDS
;	COMDAT ??_R0?AVioZoneEffectWeapon@@@8
_DATA	SEGMENT
??_R0?AVioZoneEffectWeapon@@@8 DD FLAT:??_7type_info@@6B@ ; ioZoneEffectWeapon `RTTI Type Descriptor'
	DD	00H
	DB	'.?AVioZoneEffectWeapon@@', 00H
; Function compile flags: /Ogsp
_DATA	ENDS
;	COMDAT ?ToZoneEffectWeapon@@YAPAVioZoneEffectWeapon@@PAVioWeapon@@@Z
_TEXT	SEGMENT
_pWeapon$ = 8						; size = 4
?ToZoneEffectWeapon@@YAPAVioZoneEffectWeapon@@PAVioWeapon@@@Z PROC ; ToZoneEffectWeapon, COMDAT

; 217  : {

  00000	55		 push	 ebp
  00001	8b ec		 mov	 ebp, esp
  00003	56		 push	 esi

; 218  : 	if( !pWeapon || pWeapon->GetType() != ioWeapon::WT_ZONE_EFFECT )

  00004	8b 75 08	 mov	 esi, DWORD PTR _pWeapon$[ebp]
  00007	85 f6		 test	 esi, esi
  00009	74 28		 je	 SHORT $LN1@ToZoneEffe
  0000b	8b 06		 mov	 eax, DWORD PTR [esi]
  0000d	8b ce		 mov	 ecx, esi
  0000f	ff 90 10 01 00
	00		 call	 DWORD PTR [eax+272]
  00015	83 f8 08	 cmp	 eax, 8
  00018	75 19		 jne	 SHORT $LN1@ToZoneEffe

; 220  : 
; 221  : 	return dynamic_cast< ioZoneEffectWeapon* >( pWeapon );

  0001a	6a 00		 push	 0
  0001c	68 00 00 00 00	 push	 OFFSET ??_R0?AVioZoneEffectWeapon@@@8
  00021	68 00 00 00 00	 push	 OFFSET ??_R0?AVioWeapon@@@8
  00026	6a 00		 push	 0
  00028	56		 push	 esi
  00029	e8 00 00 00 00	 call	 ___RTDynamicCast
  0002e	83 c4 14	 add	 esp, 20			; 00000014H
  00031	eb 02		 jmp	 SHORT $LN3@ToZoneEffe
$LN1@ToZoneEffe:

; 219  : 		return NULL;

  00033	33 c0		 xor	 eax, eax
$LN3@ToZoneEffe:
  00035	5e		 pop	 esi

; 222  : }

  00036	5d		 pop	 ebp
  00037	c3		 ret	 0
?ToZoneEffectWeapon@@YAPAVioZoneEffectWeapon@@PAVioWeapon@@@Z ENDP ; ToZoneEffectWeapon
_TEXT	ENDS
PUBLIC	??_R0?AVioTraceWeaponType2@@@8			; ioTraceWeaponType2 `RTTI Type Descriptor'
PUBLIC	?ToTraceWeaponType2@@YAPAVioTraceWeaponType2@@PAVioWeapon@@@Z ; ToTraceWeaponType2
;	COMDAT ??_R0?AVioTraceWeaponType2@@@8
; File d:\lost saga for developer\youtube\tutorial\source\src\lsclient\iotraceweapontype2.h
_DATA	SEGMENT
??_R0?AVioTraceWeaponType2@@@8 DD FLAT:??_7type_info@@6B@ ; ioTraceWeaponType2 `RTTI Type Descriptor'
	DD	00H
	DB	'.?AVioTraceWeaponType2@@', 00H
; Function compile flags: /Ogsp
_DATA	ENDS
;	COMDAT ?ToTraceWeaponType2@@YAPAVioTraceWeaponType2@@PAVioWeapon@@@Z
_TEXT	SEGMENT
_pWeapon$ = 8						; size = 4
?ToTraceWeaponType2@@YAPAVioTraceWeaponType2@@PAVioWeapon@@@Z PROC ; ToTraceWeaponType2, COMDAT

; 110  : {

  00000	55		 push	 ebp
  00001	8b ec		 mov	 ebp, esp
  00003	56		 push	 esi

; 111  : 	if( !pWeapon || pWeapon->GetType() != ioWeapon::WT_TRACE2 )

  00004	8b 75 08	 mov	 esi, DWORD PTR _pWeapon$[ebp]
  00007	85 f6		 test	 esi, esi
  00009	74 28		 je	 SHORT $LN1@ToTraceWea
  0000b	8b 06		 mov	 eax, DWORD PTR [esi]
  0000d	8b ce		 mov	 ecx, esi
  0000f	ff 90 10 01 00
	00		 call	 DWORD PTR [eax+272]
  00015	83 f8 27	 cmp	 eax, 39			; 00000027H
  00018	75 19		 jne	 SHORT $LN1@ToTraceWea

; 113  : 
; 114  : 	return dynamic_cast< ioTraceWeaponType2* >( pWeapon );

  0001a	6a 00		 push	 0
  0001c	68 00 00 00 00	 push	 OFFSET ??_R0?AVioTraceWeaponType2@@@8
  00021	68 00 00 00 00	 push	 OFFSET ??_R0?AVioWeapon@@@8
  00026	6a 00		 push	 0
  00028	56		 push	 esi
  00029	e8 00 00 00 00	 call	 ___RTDynamicCast
  0002e	83 c4 14	 add	 esp, 20			; 00000014H
  00031	eb 02		 jmp	 SHORT $LN3@ToTraceWea
$LN1@ToTraceWea:

; 112  : 		return NULL;

  00033	33 c0		 xor	 eax, eax
$LN3@ToTraceWea:
  00035	5e		 pop	 esi

; 115  : }

  00036	5d		 pop	 ebp
  00037	c3		 ret	 0
?ToTraceWeaponType2@@YAPAVioTraceWeaponType2@@PAVioWeapon@@@Z ENDP ; ToTraceWeaponType2
_TEXT	ENDS
PUBLIC	?_Adopt@_Iterator_base0@std@@QAEXPBX@Z		; std::_Iterator_base0::_Adopt
; Function compile flags: /Ogsp
; File c:\program files (x86)\microsoft visual studio 10.0\vc\include\xutility
;	COMDAT ?_Adopt@_Iterator_base0@std@@QAEXPBX@Z
_TEXT	SEGMENT
___formal$ = 8						; size = 4
?_Adopt@_Iterator_base0@std@@QAEXPBX@Z PROC		; std::_Iterator_base0::_Adopt, COMDAT
; _this$ = ecx

; 49   : 		}

  00000	c2 04 00	 ret	 4
?_Adopt@_Iterator_base0@std@@QAEXPBX@Z ENDP		; std::_Iterator_base0::_Adopt
_TEXT	ENDS
PUBLIC	??0D3DXQUATERNION@@QAE@XZ			; D3DXQUATERNION::D3DXQUATERNION
; Function compile flags: /Ogsp
; File c:\program files (x86)\microsoft directx sdk (june 2010)\include\d3dx9math.h
;	COMDAT ??0D3DXQUATERNION@@QAE@XZ
_TEXT	SEGMENT
??0D3DXQUATERNION@@QAE@XZ PROC				; D3DXQUATERNION::D3DXQUATERNION, COMDAT
; _this$ = ecx

; 429  :     D3DXQUATERNION() {}

  00000	8b c1		 mov	 eax, ecx
  00002	c3		 ret	 0
??0D3DXQUATERNION@@QAE@XZ ENDP				; D3DXQUATERNION::D3DXQUATERNION
_TEXT	ENDS
PUBLIC	??0D3DXVECTOR3@@QAE@MMM@Z			; D3DXVECTOR3::D3DXVECTOR3
; Function compile flags: /Ogsp
; File c:\program files (x86)\microsoft directx sdk (june 2010)\include\d3dx9math.inl
;	COMDAT ??0D3DXVECTOR3@@QAE@MMM@Z
_TEXT	SEGMENT
_fx$ = 8						; size = 4
_fy$ = 12						; size = 4
_fz$ = 16						; size = 4
??0D3DXVECTOR3@@QAE@MMM@Z PROC				; D3DXVECTOR3::D3DXVECTOR3, COMDAT
; _this$ = ecx

; 303  : {

  00000	55		 push	 ebp
  00001	8b ec		 mov	 ebp, esp

; 304  :     x = fx;

  00003	f3 0f 10 45 08	 movss	 xmm0, DWORD PTR _fx$[ebp]
  00008	8b c1		 mov	 eax, ecx
  0000a	f3 0f 11 00	 movss	 DWORD PTR [eax], xmm0

; 305  :     y = fy;

  0000e	f3 0f 10 45 0c	 movss	 xmm0, DWORD PTR _fy$[ebp]
  00013	f3 0f 11 40 04	 movss	 DWORD PTR [eax+4], xmm0

; 306  :     z = fz;

  00018	f3 0f 10 45 10	 movss	 xmm0, DWORD PTR _fz$[ebp]
  0001d	f3 0f 11 40 08	 movss	 DWORD PTR [eax+8], xmm0

; 307  : }

  00022	5d		 pop	 ebp
  00023	c2 0c 00	 ret	 12			; 0000000cH
??0D3DXVECTOR3@@QAE@MMM@Z ENDP				; D3DXVECTOR3::D3DXVECTOR3
_TEXT	ENDS
PUBLIC	__mask@@NegFloat@
PUBLIC	??GD3DXVECTOR3@@QBE?AU0@XZ			; D3DXVECTOR3::operator-
;	COMDAT __mask@@NegFloat@
CONST	SEGMENT
__mask@@NegFloat@ DB 00H, 00H, 00H, 080H, 00H, 00H, 00H, 080H, 00H, 00H, 00H
	DB	080H, 00H, 00H, 00H, 080H
; Function compile flags: /Ogsp
CONST	ENDS
;	COMDAT ??GD3DXVECTOR3@@QBE?AU0@XZ
_TEXT	SEGMENT
___$ReturnUdt$ = 8					; size = 4
??GD3DXVECTOR3@@QBE?AU0@XZ PROC				; D3DXVECTOR3::operator-, COMDAT
; _this$ = ecx

; 372  : {

  00000	55		 push	 ebp
  00001	8b ec		 mov	 ebp, esp

; 373  :     return D3DXVECTOR3(-x, -y, -z);

  00003	f3 0f 10 05 00
	00 00 00	 movss	 xmm0, DWORD PTR __mask@@NegFloat@
  0000b	8b 45 08	 mov	 eax, DWORD PTR ___$ReturnUdt$[ebp]
  0000e	f3 0f 10 09	 movss	 xmm1, DWORD PTR [ecx]
  00012	0f 57 c8	 xorps	 xmm1, xmm0
  00015	f3 0f 11 08	 movss	 DWORD PTR [eax], xmm1
  00019	f3 0f 10 49 04	 movss	 xmm1, DWORD PTR [ecx+4]
  0001e	0f 57 c8	 xorps	 xmm1, xmm0
  00021	f3 0f 11 48 04	 movss	 DWORD PTR [eax+4], xmm1
  00026	f3 0f 10 49 08	 movss	 xmm1, DWORD PTR [ecx+8]
  0002b	0f 57 c8	 xorps	 xmm1, xmm0
  0002e	f3 0f 11 48 08	 movss	 DWORD PTR [eax+8], xmm1

; 374  : }

  00033	5d		 pop	 ebp
  00034	c2 04 00	 ret	 4
??GD3DXVECTOR3@@QBE?AU0@XZ ENDP				; D3DXVECTOR3::operator-
_TEXT	ENDS
PUBLIC	??HD3DXVECTOR3@@QBE?AU0@ABU0@@Z			; D3DXVECTOR3::operator+
; Function compile flags: /Ogsp
;	COMDAT ??HD3DXVECTOR3@@QBE?AU0@ABU0@@Z
_TEXT	SEGMENT
___$ReturnUdt$ = 8					; size = 4
_v$ = 12						; size = 4
??HD3DXVECTOR3@@QBE?AU0@ABU0@@Z PROC			; D3DXVECTOR3::operator+, COMDAT
; _this$ = ecx

; 380  : {

  00000	55		 push	 ebp
  00001	8b ec		 mov	 ebp, esp

; 381  :     return D3DXVECTOR3(x + v.x, y + v.y, z + v.z);

  00003	8b 55 0c	 mov	 edx, DWORD PTR _v$[ebp]
  00006	f3 0f 10 02	 movss	 xmm0, DWORD PTR [edx]
  0000a	f3 0f 10 09	 movss	 xmm1, DWORD PTR [ecx]
  0000e	8b 45 08	 mov	 eax, DWORD PTR ___$ReturnUdt$[ebp]
  00011	0f 5a c0	 cvtps2pd xmm0, xmm0
  00014	0f 5a c9	 cvtps2pd xmm1, xmm1
  00017	f2 0f 58 c1	 addsd	 xmm0, xmm1
  0001b	f3 0f 10 49 04	 movss	 xmm1, DWORD PTR [ecx+4]
  00020	66 0f 5a c0	 cvtpd2ps xmm0, xmm0
  00024	f3 0f 11 00	 movss	 DWORD PTR [eax], xmm0
  00028	f3 0f 10 42 04	 movss	 xmm0, DWORD PTR [edx+4]
  0002d	0f 5a c0	 cvtps2pd xmm0, xmm0
  00030	0f 5a c9	 cvtps2pd xmm1, xmm1
  00033	f2 0f 58 c1	 addsd	 xmm0, xmm1
  00037	f3 0f 10 49 08	 movss	 xmm1, DWORD PTR [ecx+8]
  0003c	66 0f 5a c0	 cvtpd2ps xmm0, xmm0
  00040	f3 0f 11 40 04	 movss	 DWORD PTR [eax+4], xmm0
  00045	f3 0f 10 42 08	 movss	 xmm0, DWORD PTR [edx+8]
  0004a	0f 5a c0	 cvtps2pd xmm0, xmm0
  0004d	0f 5a c9	 cvtps2pd xmm1, xmm1
  00050	f2 0f 58 c1	 addsd	 xmm0, xmm1
  00054	66 0f 5a c0	 cvtpd2ps xmm0, xmm0
  00058	f3 0f 11 40 08	 movss	 DWORD PTR [eax+8], xmm0

; 382  : }

  0005d	5d		 pop	 ebp
  0005e	c2 08 00	 ret	 8
??HD3DXVECTOR3@@QBE?AU0@ABU0@@Z ENDP			; D3DXVECTOR3::operator+
_TEXT	ENDS
PUBLIC	??DD3DXVECTOR3@@QBE?AU0@M@Z			; D3DXVECTOR3::operator*
; Function compile flags: /Ogsp
;	COMDAT ??DD3DXVECTOR3@@QBE?AU0@M@Z
_TEXT	SEGMENT
___$ReturnUdt$ = 8					; size = 4
_f$ = 12						; size = 4
??DD3DXVECTOR3@@QBE?AU0@M@Z PROC			; D3DXVECTOR3::operator*, COMDAT
; _this$ = ecx

; 392  : {

  00000	55		 push	 ebp
  00001	8b ec		 mov	 ebp, esp

; 393  :     return D3DXVECTOR3(x * f, y * f, z * f);

  00003	f3 0f 10 4d 0c	 movss	 xmm1, DWORD PTR _f$[ebp]
  00008	f3 0f 10 01	 movss	 xmm0, DWORD PTR [ecx]
  0000c	8b 45 08	 mov	 eax, DWORD PTR ___$ReturnUdt$[ebp]
  0000f	0f 5a c0	 cvtps2pd xmm0, xmm0
  00012	0f 5a c9	 cvtps2pd xmm1, xmm1
  00015	f2 0f 59 c1	 mulsd	 xmm0, xmm1
  00019	f3 0f 10 4d 0c	 movss	 xmm1, DWORD PTR _f$[ebp]
  0001e	66 0f 5a c0	 cvtpd2ps xmm0, xmm0
  00022	f3 0f 11 00	 movss	 DWORD PTR [eax], xmm0
  00026	f3 0f 10 41 04	 movss	 xmm0, DWORD PTR [ecx+4]
  0002b	0f 5a c0	 cvtps2pd xmm0, xmm0
  0002e	0f 5a c9	 cvtps2pd xmm1, xmm1
  00031	f2 0f 59 c1	 mulsd	 xmm0, xmm1
  00035	f3 0f 10 4d 0c	 movss	 xmm1, DWORD PTR _f$[ebp]
  0003a	66 0f 5a c0	 cvtpd2ps xmm0, xmm0
  0003e	f3 0f 11 40 04	 movss	 DWORD PTR [eax+4], xmm0
  00043	f3 0f 10 41 08	 movss	 xmm0, DWORD PTR [ecx+8]
  00048	0f 5a c0	 cvtps2pd xmm0, xmm0
  0004b	0f 5a c9	 cvtps2pd xmm1, xmm1
  0004e	f2 0f 59 c1	 mulsd	 xmm0, xmm1
  00052	66 0f 5a c0	 cvtpd2ps xmm0, xmm0
  00056	f3 0f 11 40 08	 movss	 DWORD PTR [eax+8], xmm0

; 394  : }

  0005b	5d		 pop	 ebp
  0005c	c2 08 00	 ret	 8
??DD3DXVECTOR3@@QBE?AU0@M@Z ENDP			; D3DXVECTOR3::operator*
_TEXT	ENDS
PUBLIC	?SetSkillActionState@ioLinearComboSkill2@@IAEXPAVioBaseChar@@@Z ; ioLinearComboSkill2::SetSkillActionState
EXTRN	?ChangeSkillWeaponMesh@ioBaseChar@@QAE_NPAVioSkill@@ABVioHashString@@_N@Z:PROC ; ioBaseChar::ChangeSkillWeaponMesh
EXTRN	__imp_?IsEmpty@ioHashString@@QBE_NXZ:PROC
; Function compile flags: /Ogsp
; File d:\lost saga for developer\youtube\tutorial\source\src\lsclient\iolinearcomboskill2.cpp
;	COMDAT ?SetSkillActionState@ioLinearComboSkill2@@IAEXPAVioBaseChar@@@Z
_TEXT	SEGMENT
_pChar$ = 8						; size = 4
?SetSkillActionState@ioLinearComboSkill2@@IAEXPAVioBaseChar@@@Z PROC ; ioLinearComboSkill2::SetSkillActionState, COMDAT
; _this$ = ecx

; 272  : {

  00000	55		 push	 ebp
  00001	8b ec		 mov	 ebp, esp
  00003	56		 push	 esi
  00004	8b f1		 mov	 esi, ecx

; 273  : 	if( !m_bSetHandMesh && m_bUseItemMesh && !m_HandMesh.IsEmpty() )

  00006	80 be 0a 0f 00
	00 00		 cmp	 BYTE PTR [esi+3850], 0
  0000d	75 36		 jne	 SHORT $LN1@SetSkillAc
  0000f	80 be 08 0f 00
	00 00		 cmp	 BYTE PTR [esi+3848], 0
  00016	74 2d		 je	 SHORT $LN1@SetSkillAc
  00018	57		 push	 edi
  00019	8d be f8 0e 00
	00		 lea	 edi, DWORD PTR [esi+3832]
  0001f	8b cf		 mov	 ecx, edi
  00021	ff 15 00 00 00
	00		 call	 DWORD PTR __imp_?IsEmpty@ioHashString@@QBE_NXZ
  00027	84 c0		 test	 al, al
  00029	75 19		 jne	 SHORT $LN4@SetSkillAc

; 274  : 	{
; 275  : 		pChar->ChangeSkillWeaponMesh( this, m_HandMesh, m_bVisibleEquipMesh );

  0002b	0f b6 86 09 0f
	00 00		 movzx	 eax, BYTE PTR [esi+3849]
  00032	8b 4d 08	 mov	 ecx, DWORD PTR _pChar$[ebp]
  00035	50		 push	 eax
  00036	57		 push	 edi
  00037	56		 push	 esi
  00038	e8 00 00 00 00	 call	 ?ChangeSkillWeaponMesh@ioBaseChar@@QAE_NPAVioSkill@@ABVioHashString@@_N@Z ; ioBaseChar::ChangeSkillWeaponMesh

; 276  : 		m_bSetHandMesh = true;

  0003d	c6 86 0a 0f 00
	00 01		 mov	 BYTE PTR [esi+3850], 1
$LN4@SetSkillAc:
  00044	5f		 pop	 edi
$LN1@SetSkillAc:
  00045	5e		 pop	 esi

; 277  : 	}
; 278  : }

  00046	5d		 pop	 ebp
  00047	c2 04 00	 ret	 4
?SetSkillActionState@ioLinearComboSkill2@@IAEXPAVioBaseChar@@@Z ENDP ; ioLinearComboSkill2::SetSkillActionState
_TEXT	ENDS
PUBLIC	?CheckUseItemMesh@ioLinearComboSkill2@@UAE_NXZ	; ioLinearComboSkill2::CheckUseItemMesh
; Function compile flags: /Ogsp
;	COMDAT ?CheckUseItemMesh@ioLinearComboSkill2@@UAE_NXZ
_TEXT	SEGMENT
?CheckUseItemMesh@ioLinearComboSkill2@@UAE_NXZ PROC	; ioLinearComboSkill2::CheckUseItemMesh, COMDAT
; _this$ = ecx

; 381  : 	return m_bUseItemMesh;

  00000	8a 81 08 0f 00
	00		 mov	 al, BYTE PTR [ecx+3848]

; 382  : }

  00006	c3		 ret	 0
?CheckUseItemMesh@ioLinearComboSkill2@@UAE_NXZ ENDP	; ioLinearComboSkill2::CheckUseItemMesh
_TEXT	ENDS
PUBLIC	?IsSkillMotionEnd@ioLinearComboSkill2@@UBE_NKPAVioBaseChar@@@Z ; ioLinearComboSkill2::IsSkillMotionEnd
EXTRN	__imp_?GetLoopSec@ioFrameTimer@@QBEKXZ:PROC
EXTRN	__imp_?GetSingleton@ioFrameTimer@@SAAAV1@XZ:PROC
; Function compile flags: /Ogsp
;	COMDAT ?IsSkillMotionEnd@ioLinearComboSkill2@@UBE_NKPAVioBaseChar@@@Z
_TEXT	SEGMENT
_dwActionStop$ = 8					; size = 4
_pOwner$ = 12						; size = 4
?IsSkillMotionEnd@ioLinearComboSkill2@@UBE_NKPAVioBaseChar@@@Z PROC ; ioLinearComboSkill2::IsSkillMotionEnd, COMDAT
; _this$ = ecx

; 818  : {

  00000	55		 push	 ebp
  00001	8b ec		 mov	 ebp, esp
  00003	56		 push	 esi
  00004	8b f1		 mov	 esi, ecx

; 819  : 	if( m_dwPreDelayStartTime > 0 )

  00006	83 be 20 02 00
	00 00		 cmp	 DWORD PTR [esi+544], 0
  0000d	76 04		 jbe	 SHORT $LN3@IsSkillMot
$LN6@IsSkillMot:

; 820  : 		return false;

  0000f	32 c0		 xor	 al, al
  00011	eb 25		 jmp	 SHORT $LN1@IsSkillMot
$LN3@IsSkillMot:

; 821  : 
; 822  : 	if( m_dwMotionEndTime + dwActionStop >= FRAMEGETTIME() )

  00013	ff 15 00 00 00
	00		 call	 DWORD PTR __imp_?GetSingleton@ioFrameTimer@@SAAAV1@XZ
  00019	8b c8		 mov	 ecx, eax
  0001b	ff 15 00 00 00
	00		 call	 DWORD PTR __imp_?GetLoopSec@ioFrameTimer@@QBEKXZ
  00021	8b 8e d8 02 00
	00		 mov	 ecx, DWORD PTR [esi+728]
  00027	03 4d 08	 add	 ecx, DWORD PTR _dwActionStop$[ebp]
  0002a	3b c8		 cmp	 ecx, eax

; 823  : 		return false;

  0002c	73 e1		 jae	 SHORT $LN6@IsSkillMot

; 824  : 
; 825  : 	if( m_bCheckJumpNoDrop )

  0002e	80 be c9 13 00
	00 00		 cmp	 BYTE PTR [esi+5065], 0
  00035	0f 94 c0	 sete	 al
$LN1@IsSkillMot:
  00038	5e		 pop	 esi

; 826  : 		return false;
; 827  : 
; 828  : 	return true;
; 829  : }

  00039	5d		 pop	 ebp
  0003a	c2 08 00	 ret	 8
?IsSkillMotionEnd@ioLinearComboSkill2@@UBE_NKPAVioBaseChar@@@Z ENDP ; ioLinearComboSkill2::IsSkillMotionEnd
_TEXT	ENDS
PUBLIC	?IsEnableDashCheck@ioLinearComboSkill2@@UAE_NPAVioBaseChar@@@Z ; ioLinearComboSkill2::IsEnableDashCheck
; Function compile flags: /Ogsp
;	COMDAT ?IsEnableDashCheck@ioLinearComboSkill2@@UAE_NPAVioBaseChar@@@Z
_TEXT	SEGMENT
_pChar$ = 8						; size = 4
?IsEnableDashCheck@ioLinearComboSkill2@@UAE_NPAVioBaseChar@@@Z PROC ; ioLinearComboSkill2::IsEnableDashCheck, COMDAT
; _this$ = ecx

; 1077 : 	switch( m_SkillState )

  00000	8b 81 e4 10 00
	00		 mov	 eax, DWORD PTR [ecx+4324]
  00006	33 c9		 xor	 ecx, ecx
  00008	48		 dec	 eax
  00009	41		 inc	 ecx
  0000a	3b c8		 cmp	 ecx, eax
  0000c	1a c0		 sbb	 al, al
  0000e	fe c0		 inc	 al

; 1078 : 	{
; 1079 : 	case SS_ACTION:
; 1080 : 	case SS_COMBO:
; 1081 : 		return true;
; 1082 : 	}
; 1083 : 
; 1084 : 	return false;
; 1085 : }

  00010	c2 04 00	 ret	 4
?IsEnableDashCheck@ioLinearComboSkill2@@UAE_NPAVioBaseChar@@@Z ENDP ; ioLinearComboSkill2::IsEnableDashCheck
_TEXT	ENDS
PUBLIC	?IsAttackEndState@ioLinearComboSkill2@@UBE_NXZ	; ioLinearComboSkill2::IsAttackEndState
EXTRN	?IsAttackEndState@ioAttackSkill@@UBE_NXZ:PROC	; ioAttackSkill::IsAttackEndState
; Function compile flags: /Ogsp
;	COMDAT ?IsAttackEndState@ioLinearComboSkill2@@UBE_NXZ
_TEXT	SEGMENT
?IsAttackEndState@ioLinearComboSkill2@@UBE_NXZ PROC	; ioLinearComboSkill2::IsAttackEndState, COMDAT
; _this$ = ecx

; 1088 : {

  00000	56		 push	 esi
  00001	8b f1		 mov	 esi, ecx

; 1089 : 	if( m_bCheckJumpNoDrop )

  00003	80 be c9 13 00
	00 00		 cmp	 BYTE PTR [esi+5065], 0
  0000a	74 26		 je	 SHORT $LN4@IsAttackEn

; 1090 : 	{
; 1091 : 		if( m_dwPreDelayStartTime > 0 )

  0000c	83 be 20 02 00
	00 00		 cmp	 DWORD PTR [esi+544], 0
  00013	76 04		 jbe	 SHORT $LN3@IsAttackEn

; 1092 : 			return false;

  00015	32 c0		 xor	 al, al
  00017	5e		 pop	 esi

; 1101 : }

  00018	c3		 ret	 0
$LN3@IsAttackEn:

; 1093 : 
; 1094 : 		if( m_dwMotionEndTime >= FRAMEGETTIME() )

  00019	ff 15 00 00 00
	00		 call	 DWORD PTR __imp_?GetSingleton@ioFrameTimer@@SAAAV1@XZ
  0001f	8b c8		 mov	 ecx, eax
  00021	ff 15 00 00 00
	00		 call	 DWORD PTR __imp_?GetLoopSec@ioFrameTimer@@QBEKXZ
  00027	39 86 d8 02 00
	00		 cmp	 DWORD PTR [esi+728], eax
  0002d	5e		 pop	 esi
  0002e	0f 92 c0	 setb	 al

; 1101 : }

  00031	c3		 ret	 0
$LN4@IsAttackEn:
  00032	5e		 pop	 esi

; 1095 : 			return false;
; 1096 : 
; 1097 : 		return true;
; 1098 : 	}
; 1099 : 	else 
; 1100 : 		return __super::IsAttackEndState();

  00033	e9 00 00 00 00	 jmp	 ?IsAttackEndState@ioAttackSkill@@UBE_NXZ ; ioAttackSkill::IsAttackEndState
?IsAttackEndState@ioLinearComboSkill2@@UBE_NXZ ENDP	; ioLinearComboSkill2::IsAttackEndState
_TEXT	ENDS
PUBLIC	?size@?$vector@UAttackAttribute@@V?$allocator@UAttackAttribute@@@std@@@std@@QBEIXZ ; std::vector<AttackAttribute,std::allocator<AttackAttribute> >::size
; Function compile flags: /Ogsp
; File c:\program files (x86)\microsoft visual studio 10.0\vc\include\vector
;	COMDAT ?size@?$vector@UAttackAttribute@@V?$allocator@UAttackAttribute@@@std@@@std@@QBEIXZ
_TEXT	SEGMENT
?size@?$vector@UAttackAttribute@@V?$allocator@UAttackAttribute@@@std@@@std@@QBEIXZ PROC ; std::vector<AttackAttribute,std::allocator<AttackAttribute> >::size, COMDAT
; _this$ = ecx

; 879  : 		return (this->_Mylast - this->_Myfirst);

  00000	8b 41 04	 mov	 eax, DWORD PTR [ecx+4]
  00003	2b 01		 sub	 eax, DWORD PTR [ecx]
  00005	6a 50		 push	 80			; 00000050H
  00007	99		 cdq
  00008	59		 pop	 ecx
  00009	f7 f9		 idiv	 ecx

; 880  : 		}

  0000b	c3		 ret	 0
?size@?$vector@UAttackAttribute@@V?$allocator@UAttackAttribute@@@std@@@std@@QBEIXZ ENDP ; std::vector<AttackAttribute,std::allocator<AttackAttribute> >::size
_TEXT	ENDS
PUBLIC	?empty@?$vector@UAttackAttribute@@V?$allocator@UAttackAttribute@@@std@@@std@@QBE_NXZ ; std::vector<AttackAttribute,std::allocator<AttackAttribute> >::empty
; Function compile flags: /Ogsp
;	COMDAT ?empty@?$vector@UAttackAttribute@@V?$allocator@UAttackAttribute@@@std@@@std@@QBE_NXZ
_TEXT	SEGMENT
?empty@?$vector@UAttackAttribute@@V?$allocator@UAttackAttribute@@@std@@@std@@QBE_NXZ PROC ; std::vector<AttackAttribute,std::allocator<AttackAttribute> >::empty, COMDAT
; _this$ = ecx

; 889  : 		return (this->_Myfirst == this->_Mylast);

  00000	8b 01		 mov	 eax, DWORD PTR [ecx]
  00002	2b 41 04	 sub	 eax, DWORD PTR [ecx+4]
  00005	f7 d8		 neg	 eax
  00007	1b c0		 sbb	 eax, eax
  00009	40		 inc	 eax

; 890  : 		}

  0000a	c3		 ret	 0
?empty@?$vector@UAttackAttribute@@V?$allocator@UAttackAttribute@@@std@@@std@@QBE_NXZ ENDP ; std::vector<AttackAttribute,std::allocator<AttackAttribute> >::empty
_TEXT	ENDS
PUBLIC	??A?$vector@UAttackAttribute@@V?$allocator@UAttackAttribute@@@std@@@std@@QBEABUAttackAttribute@@I@Z ; std::vector<AttackAttribute,std::allocator<AttackAttribute> >::operator[]
; Function compile flags: /Ogsp
;	COMDAT ??A?$vector@UAttackAttribute@@V?$allocator@UAttackAttribute@@@std@@@std@@QBEABUAttackAttribute@@I@Z
_TEXT	SEGMENT
__Pos$ = 8						; size = 4
??A?$vector@UAttackAttribute@@V?$allocator@UAttackAttribute@@@std@@@std@@QBEABUAttackAttribute@@I@Z PROC ; std::vector<AttackAttribute,std::allocator<AttackAttribute> >::operator[], COMDAT
; _this$ = ecx

; 912  : 		{	// subscript nonmutable sequence

  00000	55		 push	 ebp
  00001	8b ec		 mov	 ebp, esp

; 913  :  #if _ITERATOR_DEBUG_LEVEL == 2
; 914  : 		if (size() <= _Pos)
; 915  : 			{	// report error
; 916  : 			_DEBUG_ERROR("vector subscript out of range");
; 917  : 			_SCL_SECURE_OUT_OF_RANGE;
; 918  : 			}
; 919  : 
; 920  :  #elif _ITERATOR_DEBUG_LEVEL == 1
; 921  : 		_SCL_SECURE_VALIDATE_RANGE(_Pos < size());
; 922  :  #endif /* _ITERATOR_DEBUG_LEVEL */
; 923  : 
; 924  : 		return (*(this->_Myfirst + _Pos));

  00003	8b 45 08	 mov	 eax, DWORD PTR __Pos$[ebp]
  00006	6b c0 50	 imul	 eax, 80			; 00000050H
  00009	03 01		 add	 eax, DWORD PTR [ecx]

; 925  : 		}

  0000b	5d		 pop	 ebp
  0000c	c2 04 00	 ret	 4
??A?$vector@UAttackAttribute@@V?$allocator@UAttackAttribute@@@std@@@std@@QBEABUAttackAttribute@@I@Z ENDP ; std::vector<AttackAttribute,std::allocator<AttackAttribute> >::operator[]
_TEXT	ENDS
PUBLIC	?capacity@?$vector@UAttackAttribute@@V?$allocator@UAttackAttribute@@@std@@@std@@QBEIXZ ; std::vector<AttackAttribute,std::allocator<AttackAttribute> >::capacity
; Function compile flags: /Ogsp
;	COMDAT ?capacity@?$vector@UAttackAttribute@@V?$allocator@UAttackAttribute@@@std@@@std@@QBEIXZ
_TEXT	SEGMENT
?capacity@?$vector@UAttackAttribute@@V?$allocator@UAttackAttribute@@@std@@@std@@QBEIXZ PROC ; std::vector<AttackAttribute,std::allocator<AttackAttribute> >::capacity, COMDAT
; _this$ = ecx

; 777  : 		return (this->_Myend - this->_Myfirst);

  00000	8b 41 08	 mov	 eax, DWORD PTR [ecx+8]
  00003	2b 01		 sub	 eax, DWORD PTR [ecx]
  00005	6a 50		 push	 80			; 00000050H
  00007	99		 cdq
  00008	59		 pop	 ecx
  00009	f7 f9		 idiv	 ecx

; 778  : 		}

  0000b	c3		 ret	 0
?capacity@?$vector@UAttackAttribute@@V?$allocator@UAttackAttribute@@@std@@@std@@QBEIXZ ENDP ; std::vector<AttackAttribute,std::allocator<AttackAttribute> >::capacity
_TEXT	ENDS
PUBLIC	?_Inside@?$vector@UAttackAttribute@@V?$allocator@UAttackAttribute@@@std@@@std@@IBE_NPBUAttackAttribute@@@Z ; std::vector<AttackAttribute,std::allocator<AttackAttribute> >::_Inside
; Function compile flags: /Ogsp
;	COMDAT ?_Inside@?$vector@UAttackAttribute@@V?$allocator@UAttackAttribute@@@std@@@std@@IBE_NPBUAttackAttribute@@@Z
_TEXT	SEGMENT
__Ptr$ = 8						; size = 4
?_Inside@?$vector@UAttackAttribute@@V?$allocator@UAttackAttribute@@@std@@@std@@IBE_NPBUAttackAttribute@@@Z PROC ; std::vector<AttackAttribute,std::allocator<AttackAttribute> >::_Inside, COMDAT
; _this$ = ecx

; 1285 : 		{	// test if _Ptr points inside vector

  00000	55		 push	 ebp
  00001	8b ec		 mov	 ebp, esp

; 1286 : 		return (_Ptr < this->_Mylast && this->_Myfirst <= _Ptr);

  00003	8b 45 08	 mov	 eax, DWORD PTR __Ptr$[ebp]
  00006	3b 41 04	 cmp	 eax, DWORD PTR [ecx+4]
  00009	73 09		 jae	 SHORT $LN3@Inside
  0000b	39 01		 cmp	 DWORD PTR [ecx], eax
  0000d	77 05		 ja	 SHORT $LN3@Inside
  0000f	33 c0		 xor	 eax, eax
  00011	40		 inc	 eax
  00012	eb 02		 jmp	 SHORT $LN4@Inside
$LN3@Inside:
  00014	33 c0		 xor	 eax, eax
$LN4@Inside:

; 1287 : 		}

  00016	5d		 pop	 ebp
  00017	c2 04 00	 ret	 4
?_Inside@?$vector@UAttackAttribute@@V?$allocator@UAttackAttribute@@@std@@@std@@IBE_NPBUAttackAttribute@@@Z ENDP ; std::vector<AttackAttribute,std::allocator<AttackAttribute> >::_Inside
_TEXT	ENDS
PUBLIC	??_C@_0BD@OLBABOEK@vector?$DMT?$DO?5too?5long?$AA@ ; `string'
PUBLIC	?_Xlen@?$vector@UAttackAttribute@@V?$allocator@UAttackAttribute@@@std@@@std@@IBEXXZ ; std::vector<AttackAttribute,std::allocator<AttackAttribute> >::_Xlen
EXTRN	__imp_?_Xlength_error@std@@YAXPBD@Z:PROC
;	COMDAT ??_C@_0BD@OLBABOEK@vector?$DMT?$DO?5too?5long?$AA@
CONST	SEGMENT
??_C@_0BD@OLBABOEK@vector?$DMT?$DO?5too?5long?$AA@ DB 'vector<T> too long'
	DB	00H						; `string'
; Function compile flags: /Ogsp
CONST	ENDS
;	COMDAT ?_Xlen@?$vector@UAttackAttribute@@V?$allocator@UAttackAttribute@@@std@@@std@@IBEXXZ
_TEXT	SEGMENT
?_Xlen@?$vector@UAttackAttribute@@V?$allocator@UAttackAttribute@@@std@@@std@@IBEXXZ PROC ; std::vector<AttackAttribute,std::allocator<AttackAttribute> >::_Xlen, COMDAT
; _this$ = ecx

; 1427 : 		_Xlength_error("vector<T> too long");

  00000	68 00 00 00 00	 push	 OFFSET ??_C@_0BD@OLBABOEK@vector?$DMT?$DO?5too?5long?$AA@
  00005	ff 15 00 00 00
	00		 call	 DWORD PTR __imp_?_Xlength_error@std@@YAXPBD@Z
$LN4@Xlen:
$LN3@Xlen:
  0000b	cc		 int	 3
?_Xlen@?$vector@UAttackAttribute@@V?$allocator@UAttackAttribute@@@std@@@std@@IBEXXZ ENDP ; std::vector<AttackAttribute,std::allocator<AttackAttribute> >::_Xlen
_TEXT	ENDS
PUBLIC	?_Orphan_range@?$vector@UAttackAttribute@@V?$allocator@UAttackAttribute@@@std@@@std@@IBEXPAUAttackAttribute@@0@Z ; std::vector<AttackAttribute,std::allocator<AttackAttribute> >::_Orphan_range
; Function compile flags: /Ogsp
;	COMDAT ?_Orphan_range@?$vector@UAttackAttribute@@V?$allocator@UAttackAttribute@@@std@@@std@@IBEXPAUAttackAttribute@@0@Z
_TEXT	SEGMENT
___formal$ = 8						; size = 4
___formal$ = 12						; size = 4
?_Orphan_range@?$vector@UAttackAttribute@@V?$allocator@UAttackAttribute@@@std@@@std@@IBEXPAUAttackAttribute@@0@Z PROC ; std::vector<AttackAttribute,std::allocator<AttackAttribute> >::_Orphan_range, COMDAT
; _this$ = ecx

; 1454 : 		}

  00000	c2 08 00	 ret	 8
?_Orphan_range@?$vector@UAttackAttribute@@V?$allocator@UAttackAttribute@@@std@@@std@@IBEXPAUAttackAttribute@@0@Z ENDP ; std::vector<AttackAttribute,std::allocator<AttackAttribute> >::_Orphan_range
_TEXT	ENDS
PUBLIC	?max_size@?$allocator@UAttackAttribute@@@std@@QBEIXZ ; std::allocator<AttackAttribute>::max_size
; Function compile flags: /Ogsp
; File c:\program files (x86)\microsoft visual studio 10.0\vc\include\xmemory
;	COMDAT ?max_size@?$allocator@UAttackAttribute@@@std@@QBEIXZ
_TEXT	SEGMENT
?max_size@?$allocator@UAttackAttribute@@@std@@QBEIXZ PROC ; std::allocator<AttackAttribute>::max_size, COMDAT
; _this$ = ecx

; 218  : 		_SIZT _Count = (_SIZT)(-1) / sizeof (_Ty);
; 219  : 		return (0 < _Count ? _Count : 1);

  00000	b8 33 33 33 03	 mov	 eax, 53687091		; 03333333H

; 220  : 		}

  00005	c3		 ret	 0
?max_size@?$allocator@UAttackAttribute@@@std@@QBEIXZ ENDP ; std::allocator<AttackAttribute>::max_size
_TEXT	ENDS
PUBLIC	??$addressof@$$CBUAttackAttribute@@@std@@YAPBUAttackAttribute@@ABU1@@Z ; std::addressof<AttackAttribute const >
; Function compile flags: /Ogsp
;	COMDAT ??$addressof@$$CBUAttackAttribute@@@std@@YAPBUAttackAttribute@@ABU1@@Z
_TEXT	SEGMENT
__Val$ = 8						; size = 4
??$addressof@$$CBUAttackAttribute@@@std@@YAPBUAttackAttribute@@ABU1@@Z PROC ; std::addressof<AttackAttribute const >, COMDAT

; 110  : 	{	// return address of _Val

  00000	55		 push	 ebp
  00001	8b ec		 mov	 ebp, esp

; 111  : 	return ((_Ty *) &(char&)_Val);

  00003	8b 45 08	 mov	 eax, DWORD PTR __Val$[ebp]

; 112  : 	}

  00006	5d		 pop	 ebp
  00007	c3		 ret	 0
??$addressof@$$CBUAttackAttribute@@@std@@YAPBUAttackAttribute@@ABU1@@Z ENDP ; std::addressof<AttackAttribute const >
_TEXT	ENDS
PUBLIC	__TI2?AVbad_alloc@std@@
PUBLIC	??$_Allocate@UAttackAttribute@@@std@@YAPAUAttackAttribute@@IPAU1@@Z ; std::_Allocate<AttackAttribute>
PUBLIC	__CTA2?AVbad_alloc@std@@
PUBLIC	__CT??_R0?AVbad_alloc@std@@@8??0bad_alloc@std@@QAE@ABV01@@Z12
PUBLIC	??0bad_alloc@std@@QAE@ABV01@@Z			; std::bad_alloc::bad_alloc
PUBLIC	__CT??_R0?AVexception@std@@@8??0exception@std@@QAE@ABV01@@Z12
EXTRN	??2@YAPAXI@Z:PROC				; operator new
EXTRN	__CxxThrowException@8:PROC
EXTRN	??0exception@std@@QAE@ABV01@@Z:PROC		; std::exception::exception
;	COMDAT __CT??_R0?AVexception@std@@@8??0exception@std@@QAE@ABV01@@Z12
; File c:\program files (x86)\microsoft visual studio 10.0\vc\include\exception
xdata$x	SEGMENT
__CT??_R0?AVexception@std@@@8??0exception@std@@QAE@ABV01@@Z12 DD 00H
	DD	FLAT:??_R0?AVexception@std@@@8
	DD	00H
	DD	0ffffffffH
	ORG $+4
	DD	0cH
	DD	FLAT:??0exception@std@@QAE@ABV01@@Z
xdata$x	ENDS
;	COMDAT __CT??_R0?AVbad_alloc@std@@@8??0bad_alloc@std@@QAE@ABV01@@Z12
xdata$x	SEGMENT
__CT??_R0?AVbad_alloc@std@@@8??0bad_alloc@std@@QAE@ABV01@@Z12 DD 00H
	DD	FLAT:??_R0?AVbad_alloc@std@@@8
	DD	00H
	DD	0ffffffffH
	ORG $+4
	DD	0cH
	DD	FLAT:??0bad_alloc@std@@QAE@ABV01@@Z
xdata$x	ENDS
;	COMDAT __CTA2?AVbad_alloc@std@@
xdata$x	SEGMENT
__CTA2?AVbad_alloc@std@@ DD 02H
	DD	FLAT:__CT??_R0?AVbad_alloc@std@@@8??0bad_alloc@std@@QAE@ABV01@@Z12
	DD	FLAT:__CT??_R0?AVexception@std@@@8??0exception@std@@QAE@ABV01@@Z12
xdata$x	ENDS
;	COMDAT __TI2?AVbad_alloc@std@@
xdata$x	SEGMENT
__TI2?AVbad_alloc@std@@ DD 00H
	DD	FLAT:??1bad_alloc@std@@UAE@XZ
	DD	00H
	DD	FLAT:__CTA2?AVbad_alloc@std@@
; Function compile flags: /Ogsp
; File c:\program files (x86)\microsoft visual studio 10.0\vc\include\xmemory
xdata$x	ENDS
;	COMDAT ??$_Allocate@UAttackAttribute@@@std@@YAPAUAttackAttribute@@IPAU1@@Z
_TEXT	SEGMENT
$T615004 = -12						; size = 12
$T615009 = 8						; size = 4
__Count$ = 8						; size = 4
___formal$ = 12						; size = 4
??$_Allocate@UAttackAttribute@@@std@@YAPAUAttackAttribute@@IPAU1@@Z PROC ; std::_Allocate<AttackAttribute>, COMDAT

; 30   : 	{	// allocate storage for _Count elements of type _Ty

  00000	55		 push	 ebp
  00001	8b ec		 mov	 ebp, esp

; 31   : 	void *_Ptr = 0;
; 32   : 
; 33   : 	if (_Count <= 0)

  00003	8b 4d 08	 mov	 ecx, DWORD PTR __Count$[ebp]
  00006	83 ec 0c	 sub	 esp, 12			; 0000000cH
  00009	33 c0		 xor	 eax, eax
  0000b	85 c9		 test	 ecx, ecx

; 34   : 		_Count = 0;
; 35   : 	else if (((_SIZT)(-1) / sizeof (_Ty) < _Count)

  0000d	74 3c		 je	 SHORT $LN5@Allocate

; 36   : 		|| (_Ptr = ::operator new(_Count * sizeof (_Ty))) == 0)

  0000f	81 f9 33 33 33
	03		 cmp	 ecx, 53687091		; 03333333H
  00015	77 0e		 ja	 SHORT $LN1@Allocate
  00017	6b c9 50	 imul	 ecx, 80			; 00000050H
  0001a	51		 push	 ecx
  0001b	e8 00 00 00 00	 call	 ??2@YAPAXI@Z		; operator new
  00020	59		 pop	 ecx
  00021	85 c0		 test	 eax, eax

; 38   : 
; 39   : 	return ((_Ty _FARQ *)_Ptr);

  00023	75 26		 jne	 SHORT $LN5@Allocate
$LN1@Allocate:

; 37   : 		_THROW_NCEE(bad_alloc, 0);

  00025	83 65 08 00	 and	 DWORD PTR $T615009[ebp], 0
  00029	8d 45 08	 lea	 eax, DWORD PTR $T615009[ebp]
  0002c	50		 push	 eax
  0002d	8d 4d f4	 lea	 ecx, DWORD PTR $T615004[ebp]
  00030	ff 15 00 00 00
	00		 call	 DWORD PTR __imp_??0exception@std@@QAE@ABQBD@Z
  00036	68 00 00 00 00	 push	 OFFSET __TI2?AVbad_alloc@std@@
  0003b	8d 45 f4	 lea	 eax, DWORD PTR $T615004[ebp]
  0003e	50		 push	 eax
  0003f	c7 45 f4 00 00
	00 00		 mov	 DWORD PTR $T615004[ebp], OFFSET ??_7bad_alloc@std@@6B@
  00046	e8 00 00 00 00	 call	 __CxxThrowException@8
$LN10@Allocate:
$LN5@Allocate:

; 40   : 	}

  0004b	c9		 leave
  0004c	c3		 ret	 0
$LN9@Allocate:
??$_Allocate@UAttackAttribute@@@std@@YAPAUAttackAttribute@@IPAU1@@Z ENDP ; std::_Allocate<AttackAttribute>
_TEXT	ENDS
PUBLIC	??$forward@AAUAttackAttribute@@@std@@YAAAUAttackAttribute@@AAU1@@Z ; std::forward<AttackAttribute &>
; Function compile flags: /Ogsp
; File c:\program files (x86)\microsoft visual studio 10.0\vc\include\utility
;	COMDAT ??$forward@AAUAttackAttribute@@@std@@YAAAUAttackAttribute@@AAU1@@Z
_TEXT	SEGMENT
__Arg$ = 8						; size = 4
??$forward@AAUAttackAttribute@@@std@@YAAAUAttackAttribute@@AAU1@@Z PROC ; std::forward<AttackAttribute &>, COMDAT

; 78   : 	{	// forward _Arg, given explicitly specified type parameter

  00000	55		 push	 ebp
  00001	8b ec		 mov	 ebp, esp

; 79   : 	return ((_Ty&&)_Arg);

  00003	8b 45 08	 mov	 eax, DWORD PTR __Arg$[ebp]

; 80   : 	}

  00006	5d		 pop	 ebp
  00007	c3		 ret	 0
??$forward@AAUAttackAttribute@@@std@@YAAAUAttackAttribute@@AAU1@@Z ENDP ; std::forward<AttackAttribute &>
_TEXT	ENDS
PUBLIC	??$forward@ABUAttackAttribute@@@std@@YAABUAttackAttribute@@ABU1@@Z ; std::forward<AttackAttribute const &>
; Function compile flags: /Ogsp
;	COMDAT ??$forward@ABUAttackAttribute@@@std@@YAABUAttackAttribute@@ABU1@@Z
_TEXT	SEGMENT
__Arg$ = 8						; size = 4
??$forward@ABUAttackAttribute@@@std@@YAABUAttackAttribute@@ABU1@@Z PROC ; std::forward<AttackAttribute const &>, COMDAT

; 78   : 	{	// forward _Arg, given explicitly specified type parameter

  00000	55		 push	 ebp
  00001	8b ec		 mov	 ebp, esp

; 79   : 	return ((_Ty&&)_Arg);

  00003	8b 45 08	 mov	 eax, DWORD PTR __Arg$[ebp]

; 80   : 	}

  00006	5d		 pop	 ebp
  00007	c3		 ret	 0
??$forward@ABUAttackAttribute@@@std@@YAABUAttackAttribute@@ABU1@@Z ENDP ; std::forward<AttackAttribute const &>
_TEXT	ENDS
PUBLIC	??$_Ptr_cat@V?$_Vector_const_iterator@V?$_Vector_val@UWeaponInfo@@V?$allocator@UWeaponInfo@@@std@@@std@@@std@@PAUWeaponInfo@@@std@@YA?AU_Nonscalar_ptr_iterator_tag@0@AAV?$_Vector_const_iterator@V?$_Vector_val@UWeaponInfo@@V?$allocator@UWeaponInfo@@@std@@@std@@@0@AAPAUWeaponInfo@@@Z ; std::_Ptr_cat<std::_Vector_const_iterator<std::_Vector_val<WeaponInfo,std::allocator<WeaponInfo> > >,WeaponInfo *>
; Function compile flags: /Ogsp
; File c:\program files (x86)\microsoft visual studio 10.0\vc\include\xutility
;	COMDAT ??$_Ptr_cat@V?$_Vector_const_iterator@V?$_Vector_val@UWeaponInfo@@V?$allocator@UWeaponInfo@@@std@@@std@@@std@@PAUWeaponInfo@@@std@@YA?AU_Nonscalar_ptr_iterator_tag@0@AAV?$_Vector_const_iterator@V?$_Vector_val@UWeaponInfo@@V?$allocator@UWeaponInfo@@@std@@@std@@@0@AAPAUWeaponInfo@@@Z
_TEXT	SEGMENT
__Cat$ = -1						; size = 1
___formal$ = 8						; size = 4
___formal$ = 12						; size = 4
??$_Ptr_cat@V?$_Vector_const_iterator@V?$_Vector_val@UWeaponInfo@@V?$allocator@UWeaponInfo@@@std@@@std@@@std@@PAUWeaponInfo@@@std@@YA?AU_Nonscalar_ptr_iterator_tag@0@AAV?$_Vector_const_iterator@V?$_Vector_val@UWeaponInfo@@V?$allocator@UWeaponInfo@@@std@@@std@@@0@AAPAUWeaponInfo@@@Z PROC ; std::_Ptr_cat<std::_Vector_const_iterator<std::_Vector_val<WeaponInfo,std::allocator<WeaponInfo> > >,WeaponInfo *>, COMDAT

; 485  : 	{	// return pointer category from arbitrary arguments

  00000	55		 push	 ebp
  00001	8b ec		 mov	 ebp, esp
  00003	51		 push	 ecx

; 486  : 	_Nonscalar_ptr_iterator_tag _Cat;
; 487  : 	return (_Cat);

  00004	8a 45 ff	 mov	 al, BYTE PTR __Cat$[ebp]

; 488  : 	}

  00007	c9		 leave
  00008	c3		 ret	 0
??$_Ptr_cat@V?$_Vector_const_iterator@V?$_Vector_val@UWeaponInfo@@V?$allocator@UWeaponInfo@@@std@@@std@@@std@@PAUWeaponInfo@@@std@@YA?AU_Nonscalar_ptr_iterator_tag@0@AAV?$_Vector_const_iterator@V?$_Vector_val@UWeaponInfo@@V?$allocator@UWeaponInfo@@@std@@@std@@@0@AAPAUWeaponInfo@@@Z ENDP ; std::_Ptr_cat<std::_Vector_const_iterator<std::_Vector_val<WeaponInfo,std::allocator<WeaponInfo> > >,WeaponInfo *>
_TEXT	ENDS
PUBLIC	??$_Ptr_cat@V?$_Vector_const_iterator@V?$_Vector_val@UForceInfo@@V?$allocator@UForceInfo@@@std@@@std@@@std@@PAUForceInfo@@@std@@YA?AU_Nonscalar_ptr_iterator_tag@0@AAV?$_Vector_const_iterator@V?$_Vector_val@UForceInfo@@V?$allocator@UForceInfo@@@std@@@std@@@0@AAPAUForceInfo@@@Z ; std::_Ptr_cat<std::_Vector_const_iterator<std::_Vector_val<ForceInfo,std::allocator<ForceInfo> > >,ForceInfo *>
; Function compile flags: /Ogsp
;	COMDAT ??$_Ptr_cat@V?$_Vector_const_iterator@V?$_Vector_val@UForceInfo@@V?$allocator@UForceInfo@@@std@@@std@@@std@@PAUForceInfo@@@std@@YA?AU_Nonscalar_ptr_iterator_tag@0@AAV?$_Vector_const_iterator@V?$_Vector_val@UForceInfo@@V?$allocator@UForceInfo@@@std@@@std@@@0@AAPAUForceInfo@@@Z
_TEXT	SEGMENT
__Cat$ = -1						; size = 1
___formal$ = 8						; size = 4
___formal$ = 12						; size = 4
??$_Ptr_cat@V?$_Vector_const_iterator@V?$_Vector_val@UForceInfo@@V?$allocator@UForceInfo@@@std@@@std@@@std@@PAUForceInfo@@@std@@YA?AU_Nonscalar_ptr_iterator_tag@0@AAV?$_Vector_const_iterator@V?$_Vector_val@UForceInfo@@V?$allocator@UForceInfo@@@std@@@std@@@0@AAPAUForceInfo@@@Z PROC ; std::_Ptr_cat<std::_Vector_const_iterator<std::_Vector_val<ForceInfo,std::allocator<ForceInfo> > >,ForceInfo *>, COMDAT

; 485  : 	{	// return pointer category from arbitrary arguments

  00000	55		 push	 ebp
  00001	8b ec		 mov	 ebp, esp
  00003	51		 push	 ecx

; 486  : 	_Nonscalar_ptr_iterator_tag _Cat;
; 487  : 	return (_Cat);

  00004	8a 45 ff	 mov	 al, BYTE PTR __Cat$[ebp]

; 488  : 	}

  00007	c9		 leave
  00008	c3		 ret	 0
??$_Ptr_cat@V?$_Vector_const_iterator@V?$_Vector_val@UForceInfo@@V?$allocator@UForceInfo@@@std@@@std@@@std@@PAUForceInfo@@@std@@YA?AU_Nonscalar_ptr_iterator_tag@0@AAV?$_Vector_const_iterator@V?$_Vector_val@UForceInfo@@V?$allocator@UForceInfo@@@std@@@std@@@0@AAPAUForceInfo@@@Z ENDP ; std::_Ptr_cat<std::_Vector_const_iterator<std::_Vector_val<ForceInfo,std::allocator<ForceInfo> > >,ForceInfo *>
_TEXT	ENDS
PUBLIC	??$_Ptr_cat@V?$_Vector_const_iterator@V?$_Vector_val@UAttackAttribute@@V?$allocator@UAttackAttribute@@@std@@@std@@@std@@PAUAttackAttribute@@@std@@YA?AU_Nonscalar_ptr_iterator_tag@0@AAV?$_Vector_const_iterator@V?$_Vector_val@UAttackAttribute@@V?$allocator@UAttackAttribute@@@std@@@std@@@0@AAPAUAttackAttribute@@@Z ; std::_Ptr_cat<std::_Vector_const_iterator<std::_Vector_val<AttackAttribute,std::allocator<AttackAttribute> > >,AttackAttribute *>
; Function compile flags: /Ogsp
;	COMDAT ??$_Ptr_cat@V?$_Vector_const_iterator@V?$_Vector_val@UAttackAttribute@@V?$allocator@UAttackAttribute@@@std@@@std@@@std@@PAUAttackAttribute@@@std@@YA?AU_Nonscalar_ptr_iterator_tag@0@AAV?$_Vector_const_iterator@V?$_Vector_val@UAttackAttribute@@V?$allocator@UAttackAttribute@@@std@@@std@@@0@AAPAUAttackAttribute@@@Z
_TEXT	SEGMENT
__Cat$ = -1						; size = 1
___formal$ = 8						; size = 4
___formal$ = 12						; size = 4
??$_Ptr_cat@V?$_Vector_const_iterator@V?$_Vector_val@UAttackAttribute@@V?$allocator@UAttackAttribute@@@std@@@std@@@std@@PAUAttackAttribute@@@std@@YA?AU_Nonscalar_ptr_iterator_tag@0@AAV?$_Vector_const_iterator@V?$_Vector_val@UAttackAttribute@@V?$allocator@UAttackAttribute@@@std@@@std@@@0@AAPAUAttackAttribute@@@Z PROC ; std::_Ptr_cat<std::_Vector_const_iterator<std::_Vector_val<AttackAttribute,std::allocator<AttackAttribute> > >,AttackAttribute *>, COMDAT

; 485  : 	{	// return pointer category from arbitrary arguments

  00000	55		 push	 ebp
  00001	8b ec		 mov	 ebp, esp
  00003	51		 push	 ecx

; 486  : 	_Nonscalar_ptr_iterator_tag _Cat;
; 487  : 	return (_Cat);

  00004	8a 45 ff	 mov	 al, BYTE PTR __Cat$[ebp]

; 488  : 	}

  00007	c9		 leave
  00008	c3		 ret	 0
??$_Ptr_cat@V?$_Vector_const_iterator@V?$_Vector_val@UAttackAttribute@@V?$allocator@UAttackAttribute@@@std@@@std@@@std@@PAUAttackAttribute@@@std@@YA?AU_Nonscalar_ptr_iterator_tag@0@AAV?$_Vector_const_iterator@V?$_Vector_val@UAttackAttribute@@V?$allocator@UAttackAttribute@@@std@@@std@@@0@AAPAUAttackAttribute@@@Z ENDP ; std::_Ptr_cat<std::_Vector_const_iterator<std::_Vector_val<AttackAttribute,std::allocator<AttackAttribute> > >,AttackAttribute *>
_TEXT	ENDS
PUBLIC	??$_Val_type@PAUAttackAttribute@@@std@@YAPAUAttackAttribute@@PAU1@@Z ; std::_Val_type<AttackAttribute *>
; Function compile flags: /Ogsp
;	COMDAT ??$_Val_type@PAUAttackAttribute@@@std@@YAPAUAttackAttribute@@PAU1@@Z
_TEXT	SEGMENT
___formal$ = 8						; size = 4
??$_Val_type@PAUAttackAttribute@@@std@@YAPAUAttackAttribute@@PAU1@@Z PROC ; std::_Val_type<AttackAttribute *>, COMDAT

; 790  : 	return (0);

  00000	33 c0		 xor	 eax, eax

; 791  : 	}

  00002	c3		 ret	 0
??$_Val_type@PAUAttackAttribute@@@std@@YAPAUAttackAttribute@@PAU1@@Z ENDP ; std::_Val_type<AttackAttribute *>
_TEXT	ENDS
PUBLIC	??D?$_Vector_const_iterator@V?$_Vector_val@UAttackAttribute@@V?$allocator@UAttackAttribute@@@std@@@std@@@std@@QBEABUAttackAttribute@@XZ ; std::_Vector_const_iterator<std::_Vector_val<AttackAttribute,std::allocator<AttackAttribute> > >::operator*
; Function compile flags: /Ogsp
; File c:\program files (x86)\microsoft visual studio 10.0\vc\include\vector
;	COMDAT ??D?$_Vector_const_iterator@V?$_Vector_val@UAttackAttribute@@V?$allocator@UAttackAttribute@@@std@@@std@@@std@@QBEABUAttackAttribute@@XZ
_TEXT	SEGMENT
??D?$_Vector_const_iterator@V?$_Vector_val@UAttackAttribute@@V?$allocator@UAttackAttribute@@@std@@@std@@@std@@QBEABUAttackAttribute@@XZ PROC ; std::_Vector_const_iterator<std::_Vector_val<AttackAttribute,std::allocator<AttackAttribute> > >::operator*, COMDAT
; _this$ = ecx

; 64   :  #if _ITERATOR_DEBUG_LEVEL == 2
; 65   : 		if (this->_Getcont() == 0
; 66   : 			|| this->_Ptr == 0
; 67   : 			|| this->_Ptr < ((_Myvec *)this->_Getcont())->_Myfirst
; 68   : 			|| ((_Myvec *)this->_Getcont())->_Mylast <= this->_Ptr)
; 69   : 			{	// report error
; 70   : 			_DEBUG_ERROR("vector iterator not dereferencable");
; 71   : 			_SCL_SECURE_OUT_OF_RANGE;
; 72   : 			}
; 73   : 
; 74   :  #elif _ITERATOR_DEBUG_LEVEL == 1
; 75   : 		_SCL_SECURE_VALIDATE(this->_Getcont() != 0);
; 76   : 		_SCL_SECURE_VALIDATE_RANGE(
; 77   : 			this->_Ptr != 0
; 78   : 			&& ((_Myvec *)this->_Getcont())->_Myfirst <= this->_Ptr
; 79   : 			&& this->_Ptr < ((_Myvec *)this->_Getcont())->_Mylast);
; 80   :  #endif /* _ITERATOR_DEBUG_LEVEL */
; 81   : 
; 82   : 		__analysis_assume(this->_Ptr != 0);
; 83   : 
; 84   : 		return (*this->_Ptr);

  00000	8b 01		 mov	 eax, DWORD PTR [ecx]

; 85   : 		}

  00002	c3		 ret	 0
??D?$_Vector_const_iterator@V?$_Vector_val@UAttackAttribute@@V?$allocator@UAttackAttribute@@@std@@@std@@@std@@QBEABUAttackAttribute@@XZ ENDP ; std::_Vector_const_iterator<std::_Vector_val<AttackAttribute,std::allocator<AttackAttribute> > >::operator*
_TEXT	ENDS
PUBLIC	??E?$_Vector_const_iterator@V?$_Vector_val@UAttackAttribute@@V?$allocator@UAttackAttribute@@@std@@@std@@@std@@QAEAAV01@XZ ; std::_Vector_const_iterator<std::_Vector_val<AttackAttribute,std::allocator<AttackAttribute> > >::operator++
; Function compile flags: /Ogsp
;	COMDAT ??E?$_Vector_const_iterator@V?$_Vector_val@UAttackAttribute@@V?$allocator@UAttackAttribute@@@std@@@std@@@std@@QAEAAV01@XZ
_TEXT	SEGMENT
??E?$_Vector_const_iterator@V?$_Vector_val@UAttackAttribute@@V?$allocator@UAttackAttribute@@@std@@@std@@@std@@QAEAAV01@XZ PROC ; std::_Vector_const_iterator<std::_Vector_val<AttackAttribute,std::allocator<AttackAttribute> > >::operator++, COMDAT
; _this$ = ecx

; 93   : 		{	// preincrement

  00000	8b c1		 mov	 eax, ecx

; 94   :  #if _ITERATOR_DEBUG_LEVEL == 2
; 95   : 		if (this->_Getcont() == 0
; 96   : 			|| this->_Ptr == 0
; 97   : 			|| ((_Myvec *)this->_Getcont())->_Mylast <= this->_Ptr)
; 98   : 			{	// report error
; 99   : 			_DEBUG_ERROR("vector iterator not incrementable");
; 100  : 			_SCL_SECURE_OUT_OF_RANGE;
; 101  : 			}
; 102  : 
; 103  :  #elif _ITERATOR_DEBUG_LEVEL == 1
; 104  : 		_SCL_SECURE_VALIDATE(this->_Getcont() != 0);
; 105  : 		_SCL_SECURE_VALIDATE_RANGE(
; 106  : 			this->_Ptr != 0
; 107  : 			&& this->_Ptr < ((_Myvec *)this->_Getcont())->_Mylast);
; 108  :  #endif /* _ITERATOR_DEBUG_LEVEL */
; 109  : 
; 110  : 		++this->_Ptr;

  00002	83 00 50	 add	 DWORD PTR [eax], 80	; 00000050H

; 111  : 		return (*this);
; 112  : 		}

  00005	c3		 ret	 0
??E?$_Vector_const_iterator@V?$_Vector_val@UAttackAttribute@@V?$allocator@UAttackAttribute@@@std@@@std@@@std@@QAEAAV01@XZ ENDP ; std::_Vector_const_iterator<std::_Vector_val<AttackAttribute,std::allocator<AttackAttribute> > >::operator++
_TEXT	ENDS
PUBLIC	??D?$_Vector_const_iterator@V?$_Vector_val@UWeaponInfo@@V?$allocator@UWeaponInfo@@@std@@@std@@@std@@QBEABUWeaponInfo@@XZ ; std::_Vector_const_iterator<std::_Vector_val<WeaponInfo,std::allocator<WeaponInfo> > >::operator*
; Function compile flags: /Ogsp
;	COMDAT ??D?$_Vector_const_iterator@V?$_Vector_val@UWeaponInfo@@V?$allocator@UWeaponInfo@@@std@@@std@@@std@@QBEABUWeaponInfo@@XZ
_TEXT	SEGMENT
??D?$_Vector_const_iterator@V?$_Vector_val@UWeaponInfo@@V?$allocator@UWeaponInfo@@@std@@@std@@@std@@QBEABUWeaponInfo@@XZ PROC ; std::_Vector_const_iterator<std::_Vector_val<WeaponInfo,std::allocator<WeaponInfo> > >::operator*, COMDAT
; _this$ = ecx

; 64   :  #if _ITERATOR_DEBUG_LEVEL == 2
; 65   : 		if (this->_Getcont() == 0
; 66   : 			|| this->_Ptr == 0
; 67   : 			|| this->_Ptr < ((_Myvec *)this->_Getcont())->_Myfirst
; 68   : 			|| ((_Myvec *)this->_Getcont())->_Mylast <= this->_Ptr)
; 69   : 			{	// report error
; 70   : 			_DEBUG_ERROR("vector iterator not dereferencable");
; 71   : 			_SCL_SECURE_OUT_OF_RANGE;
; 72   : 			}
; 73   : 
; 74   :  #elif _ITERATOR_DEBUG_LEVEL == 1
; 75   : 		_SCL_SECURE_VALIDATE(this->_Getcont() != 0);
; 76   : 		_SCL_SECURE_VALIDATE_RANGE(
; 77   : 			this->_Ptr != 0
; 78   : 			&& ((_Myvec *)this->_Getcont())->_Myfirst <= this->_Ptr
; 79   : 			&& this->_Ptr < ((_Myvec *)this->_Getcont())->_Mylast);
; 80   :  #endif /* _ITERATOR_DEBUG_LEVEL */
; 81   : 
; 82   : 		__analysis_assume(this->_Ptr != 0);
; 83   : 
; 84   : 		return (*this->_Ptr);

  00000	8b 01		 mov	 eax, DWORD PTR [ecx]

; 85   : 		}

  00002	c3		 ret	 0
??D?$_Vector_const_iterator@V?$_Vector_val@UWeaponInfo@@V?$allocator@UWeaponInfo@@@std@@@std@@@std@@QBEABUWeaponInfo@@XZ ENDP ; std::_Vector_const_iterator<std::_Vector_val<WeaponInfo,std::allocator<WeaponInfo> > >::operator*
_TEXT	ENDS
PUBLIC	??E?$_Vector_const_iterator@V?$_Vector_val@UWeaponInfo@@V?$allocator@UWeaponInfo@@@std@@@std@@@std@@QAEAAV01@XZ ; std::_Vector_const_iterator<std::_Vector_val<WeaponInfo,std::allocator<WeaponInfo> > >::operator++
; Function compile flags: /Ogsp
;	COMDAT ??E?$_Vector_const_iterator@V?$_Vector_val@UWeaponInfo@@V?$allocator@UWeaponInfo@@@std@@@std@@@std@@QAEAAV01@XZ
_TEXT	SEGMENT
??E?$_Vector_const_iterator@V?$_Vector_val@UWeaponInfo@@V?$allocator@UWeaponInfo@@@std@@@std@@@std@@QAEAAV01@XZ PROC ; std::_Vector_const_iterator<std::_Vector_val<WeaponInfo,std::allocator<WeaponInfo> > >::operator++, COMDAT
; _this$ = ecx

; 93   : 		{	// preincrement

  00000	8b c1		 mov	 eax, ecx

; 94   :  #if _ITERATOR_DEBUG_LEVEL == 2
; 95   : 		if (this->_Getcont() == 0
; 96   : 			|| this->_Ptr == 0
; 97   : 			|| ((_Myvec *)this->_Getcont())->_Mylast <= this->_Ptr)
; 98   : 			{	// report error
; 99   : 			_DEBUG_ERROR("vector iterator not incrementable");
; 100  : 			_SCL_SECURE_OUT_OF_RANGE;
; 101  : 			}
; 102  : 
; 103  :  #elif _ITERATOR_DEBUG_LEVEL == 1
; 104  : 		_SCL_SECURE_VALIDATE(this->_Getcont() != 0);
; 105  : 		_SCL_SECURE_VALIDATE_RANGE(
; 106  : 			this->_Ptr != 0
; 107  : 			&& this->_Ptr < ((_Myvec *)this->_Getcont())->_Mylast);
; 108  :  #endif /* _ITERATOR_DEBUG_LEVEL */
; 109  : 
; 110  : 		++this->_Ptr;

  00002	83 00 28	 add	 DWORD PTR [eax], 40	; 00000028H

; 111  : 		return (*this);
; 112  : 		}

  00005	c3		 ret	 0
??E?$_Vector_const_iterator@V?$_Vector_val@UWeaponInfo@@V?$allocator@UWeaponInfo@@@std@@@std@@@std@@QAEAAV01@XZ ENDP ; std::_Vector_const_iterator<std::_Vector_val<WeaponInfo,std::allocator<WeaponInfo> > >::operator++
_TEXT	ENDS
PUBLIC	??D?$_Vector_const_iterator@V?$_Vector_val@UForceInfo@@V?$allocator@UForceInfo@@@std@@@std@@@std@@QBEABUForceInfo@@XZ ; std::_Vector_const_iterator<std::_Vector_val<ForceInfo,std::allocator<ForceInfo> > >::operator*
; Function compile flags: /Ogsp
;	COMDAT ??D?$_Vector_const_iterator@V?$_Vector_val@UForceInfo@@V?$allocator@UForceInfo@@@std@@@std@@@std@@QBEABUForceInfo@@XZ
_TEXT	SEGMENT
??D?$_Vector_const_iterator@V?$_Vector_val@UForceInfo@@V?$allocator@UForceInfo@@@std@@@std@@@std@@QBEABUForceInfo@@XZ PROC ; std::_Vector_const_iterator<std::_Vector_val<ForceInfo,std::allocator<ForceInfo> > >::operator*, COMDAT
; _this$ = ecx

; 64   :  #if _ITERATOR_DEBUG_LEVEL == 2
; 65   : 		if (this->_Getcont() == 0
; 66   : 			|| this->_Ptr == 0
; 67   : 			|| this->_Ptr < ((_Myvec *)this->_Getcont())->_Myfirst
; 68   : 			|| ((_Myvec *)this->_Getcont())->_Mylast <= this->_Ptr)
; 69   : 			{	// report error
; 70   : 			_DEBUG_ERROR("vector iterator not dereferencable");
; 71   : 			_SCL_SECURE_OUT_OF_RANGE;
; 72   : 			}
; 73   : 
; 74   :  #elif _ITERATOR_DEBUG_LEVEL == 1
; 75   : 		_SCL_SECURE_VALIDATE(this->_Getcont() != 0);
; 76   : 		_SCL_SECURE_VALIDATE_RANGE(
; 77   : 			this->_Ptr != 0
; 78   : 			&& ((_Myvec *)this->_Getcont())->_Myfirst <= this->_Ptr
; 79   : 			&& this->_Ptr < ((_Myvec *)this->_Getcont())->_Mylast);
; 80   :  #endif /* _ITERATOR_DEBUG_LEVEL */
; 81   : 
; 82   : 		__analysis_assume(this->_Ptr != 0);
; 83   : 
; 84   : 		return (*this->_Ptr);

  00000	8b 01		 mov	 eax, DWORD PTR [ecx]

; 85   : 		}

  00002	c3		 ret	 0
??D?$_Vector_const_iterator@V?$_Vector_val@UForceInfo@@V?$allocator@UForceInfo@@@std@@@std@@@std@@QBEABUForceInfo@@XZ ENDP ; std::_Vector_const_iterator<std::_Vector_val<ForceInfo,std::allocator<ForceInfo> > >::operator*
_TEXT	ENDS
PUBLIC	??E?$_Vector_const_iterator@V?$_Vector_val@UForceInfo@@V?$allocator@UForceInfo@@@std@@@std@@@std@@QAEAAV01@XZ ; std::_Vector_const_iterator<std::_Vector_val<ForceInfo,std::allocator<ForceInfo> > >::operator++
; Function compile flags: /Ogsp
;	COMDAT ??E?$_Vector_const_iterator@V?$_Vector_val@UForceInfo@@V?$allocator@UForceInfo@@@std@@@std@@@std@@QAEAAV01@XZ
_TEXT	SEGMENT
??E?$_Vector_const_iterator@V?$_Vector_val@UForceInfo@@V?$allocator@UForceInfo@@@std@@@std@@@std@@QAEAAV01@XZ PROC ; std::_Vector_const_iterator<std::_Vector_val<ForceInfo,std::allocator<ForceInfo> > >::operator++, COMDAT
; _this$ = ecx

; 93   : 		{	// preincrement

  00000	8b c1		 mov	 eax, ecx

; 94   :  #if _ITERATOR_DEBUG_LEVEL == 2
; 95   : 		if (this->_Getcont() == 0
; 96   : 			|| this->_Ptr == 0
; 97   : 			|| ((_Myvec *)this->_Getcont())->_Mylast <= this->_Ptr)
; 98   : 			{	// report error
; 99   : 			_DEBUG_ERROR("vector iterator not incrementable");
; 100  : 			_SCL_SECURE_OUT_OF_RANGE;
; 101  : 			}
; 102  : 
; 103  :  #elif _ITERATOR_DEBUG_LEVEL == 1
; 104  : 		_SCL_SECURE_VALIDATE(this->_Getcont() != 0);
; 105  : 		_SCL_SECURE_VALIDATE_RANGE(
; 106  : 			this->_Ptr != 0
; 107  : 			&& this->_Ptr < ((_Myvec *)this->_Getcont())->_Mylast);
; 108  :  #endif /* _ITERATOR_DEBUG_LEVEL */
; 109  : 
; 110  : 		++this->_Ptr;

  00002	83 00 0c	 add	 DWORD PTR [eax], 12	; 0000000cH

; 111  : 		return (*this);
; 112  : 		}

  00005	c3		 ret	 0
??E?$_Vector_const_iterator@V?$_Vector_val@UForceInfo@@V?$allocator@UForceInfo@@@std@@@std@@@std@@QAEAAV01@XZ ENDP ; std::_Vector_const_iterator<std::_Vector_val<ForceInfo,std::allocator<ForceInfo> > >::operator++
_TEXT	ENDS
PUBLIC	??$forward@ABUWeaponInfo@@@std@@YAABUWeaponInfo@@ABU1@@Z ; std::forward<WeaponInfo const &>
; Function compile flags: /Ogsp
; File c:\program files (x86)\microsoft visual studio 10.0\vc\include\utility
;	COMDAT ??$forward@ABUWeaponInfo@@@std@@YAABUWeaponInfo@@ABU1@@Z
_TEXT	SEGMENT
__Arg$ = 8						; size = 4
??$forward@ABUWeaponInfo@@@std@@YAABUWeaponInfo@@ABU1@@Z PROC ; std::forward<WeaponInfo const &>, COMDAT

; 78   : 	{	// forward _Arg, given explicitly specified type parameter

  00000	55		 push	 ebp
  00001	8b ec		 mov	 ebp, esp

; 79   : 	return ((_Ty&&)_Arg);

  00003	8b 45 08	 mov	 eax, DWORD PTR __Arg$[ebp]

; 80   : 	}

  00006	5d		 pop	 ebp
  00007	c3		 ret	 0
??$forward@ABUWeaponInfo@@@std@@YAABUWeaponInfo@@ABU1@@Z ENDP ; std::forward<WeaponInfo const &>
_TEXT	ENDS
PUBLIC	??$forward@ABUForceInfo@@@std@@YAABUForceInfo@@ABU1@@Z ; std::forward<ForceInfo const &>
; Function compile flags: /Ogsp
;	COMDAT ??$forward@ABUForceInfo@@@std@@YAABUForceInfo@@ABU1@@Z
_TEXT	SEGMENT
__Arg$ = 8						; size = 4
??$forward@ABUForceInfo@@@std@@YAABUForceInfo@@ABU1@@Z PROC ; std::forward<ForceInfo const &>, COMDAT

; 78   : 	{	// forward _Arg, given explicitly specified type parameter

  00000	55		 push	 ebp
  00001	8b ec		 mov	 ebp, esp

; 79   : 	return ((_Ty&&)_Arg);

  00003	8b 45 08	 mov	 eax, DWORD PTR __Arg$[ebp]

; 80   : 	}

  00006	5d		 pop	 ebp
  00007	c3		 ret	 0
??$forward@ABUForceInfo@@@std@@YAABUForceInfo@@ABU1@@Z ENDP ; std::forward<ForceInfo const &>
_TEXT	ENDS
PUBLIC	??$forward@UAttackAttribute@@@std@@YA$$QAUAttackAttribute@@AAU1@@Z ; std::forward<AttackAttribute>
; Function compile flags: /Ogsp
;	COMDAT ??$forward@UAttackAttribute@@@std@@YA$$QAUAttackAttribute@@AAU1@@Z
_TEXT	SEGMENT
__Arg$ = 8						; size = 4
??$forward@UAttackAttribute@@@std@@YA$$QAUAttackAttribute@@AAU1@@Z PROC ; std::forward<AttackAttribute>, COMDAT

; 78   : 	{	// forward _Arg, given explicitly specified type parameter

  00000	55		 push	 ebp
  00001	8b ec		 mov	 ebp, esp

; 79   : 	return ((_Ty&&)_Arg);

  00003	8b 45 08	 mov	 eax, DWORD PTR __Arg$[ebp]

; 80   : 	}

  00006	5d		 pop	 ebp
  00007	c3		 ret	 0
??$forward@UAttackAttribute@@@std@@YA$$QAUAttackAttribute@@AAU1@@Z ENDP ; std::forward<AttackAttribute>
_TEXT	ENDS
PUBLIC	??$_Construct@UForceInfo@@ABU1@@std@@YAXPAUForceInfo@@ABU1@@Z ; std::_Construct<ForceInfo,ForceInfo const &>
; Function compile flags: /Ogsp
; File c:\program files (x86)\microsoft visual studio 10.0\vc\include\xmemory
;	COMDAT ??$_Construct@UForceInfo@@ABU1@@std@@YAXPAUForceInfo@@ABU1@@Z
_TEXT	SEGMENT
__Ptr$ = 8						; size = 4
__Val$ = 12						; size = 4
??$_Construct@UForceInfo@@ABU1@@std@@YAXPAUForceInfo@@ABU1@@Z PROC ; std::_Construct<ForceInfo,ForceInfo const &>, COMDAT

; 46   : 	{	// construct object at _Ptr with value _Val

  00000	55		 push	 ebp
  00001	8b ec		 mov	 ebp, esp
  00003	57		 push	 edi

; 47   : 	void _FARQ *_Vptr = _Ptr;
; 48   : 	::new (_Vptr) _Ty1(_STD forward<_Ty2>(_Val));

  00004	8b 7d 08	 mov	 edi, DWORD PTR __Ptr$[ebp]
  00007	85 ff		 test	 edi, edi
  00009	74 08		 je	 SHORT $LN3@Construct
  0000b	56		 push	 esi
  0000c	8b 75 0c	 mov	 esi, DWORD PTR __Val$[ebp]
  0000f	a5		 movsd
  00010	a5		 movsd
  00011	a5		 movsd
  00012	5e		 pop	 esi
$LN3@Construct:
  00013	5f		 pop	 edi

; 49   : 	}

  00014	5d		 pop	 ebp
  00015	c3		 ret	 0
??$_Construct@UForceInfo@@ABU1@@std@@YAXPAUForceInfo@@ABU1@@Z ENDP ; std::_Construct<ForceInfo,ForceInfo const &>
_TEXT	ENDS
PUBLIC	?_DECSTR@@YAXPADH@Z				; _DECSTR
; Function compile flags: /Ogsp
; File d:\lost saga for developer\youtube\tutorial\source\src\lsclient\stringprotect.h
;	COMDAT ?_DECSTR@@YAXPADH@Z
_TEXT	SEGMENT
_s$ = 8							; size = 4
_l$ = 12						; size = 4
?_DECSTR@@YAXPADH@Z PROC				; _DECSTR, COMDAT

; 40   : __forceinline void _DECSTR(char* s, int l){int i=0,l4=(l-1)/4,*p=(int*)s;s[l-1]=0;for(;i<l4;++i)*(p++)^=0xEAEBECED;for(i=l4*4;i<l-1;++i)s[i]^=0xED-i%4;}

  00000	55		 push	 ebp
  00001	8b ec		 mov	 ebp, esp
  00003	8b 4d 0c	 mov	 ecx, DWORD PTR _l$[ebp]
  00006	56		 push	 esi
  00007	8b 75 08	 mov	 esi, DWORD PTR _s$[ebp]
  0000a	57		 push	 edi
  0000b	8d 79 ff	 lea	 edi, DWORD PTR [ecx-1]
  0000e	8b c7		 mov	 eax, edi
  00010	99		 cdq
  00011	83 e2 03	 and	 edx, 3
  00014	03 c2		 add	 eax, edx
  00016	c1 f8 02	 sar	 eax, 2
  00019	8b d6		 mov	 edx, esi
  0001b	c6 44 0e ff 00	 mov	 BYTE PTR [esi+ecx-1], 0
  00020	85 c0		 test	 eax, eax
  00022	7e 0e		 jle	 SHORT $LN4@DECSTR
  00024	8b c8		 mov	 ecx, eax
$LL6@DECSTR:
  00026	81 32 ed ec eb
	ea		 xor	 DWORD PTR [edx], -353637139 ; eaebecedH
  0002c	83 c2 04	 add	 edx, 4
  0002f	49		 dec	 ecx
  00030	75 f4		 jne	 SHORT $LL6@DECSTR
$LN4@DECSTR:
  00032	c1 e0 02	 shl	 eax, 2
  00035	eb 17		 jmp	 SHORT $LN14@DECSTR
$LL3@DECSTR:
  00037	8b c8		 mov	 ecx, eax
  00039	81 e1 03 00 00
	80		 and	 ecx, -2147483645	; 80000003H
  0003f	79 05		 jns	 SHORT $LN13@DECSTR
  00041	49		 dec	 ecx
  00042	83 c9 fc	 or	 ecx, -4			; fffffffcH
  00045	41		 inc	 ecx
$LN13@DECSTR:
  00046	b2 ed		 mov	 dl, -19			; ffffffedH
  00048	2a d1		 sub	 dl, cl
  0004a	30 14 30	 xor	 BYTE PTR [eax+esi], dl
  0004d	40		 inc	 eax
$LN14@DECSTR:
  0004e	3b c7		 cmp	 eax, edi
  00050	7c e5		 jl	 SHORT $LL3@DECSTR
  00052	5f		 pop	 edi
  00053	5e		 pop	 esi
  00054	5d		 pop	 ebp
  00055	c3		 ret	 0
?_DECSTR@@YAXPADH@Z ENDP				; _DECSTR
_TEXT	ENDS
PUBLIC	?GetGroup@ioGameEntity@@QBEPAVioEntityGroup@@XZ	; ioGameEntity::GetGroup
; Function compile flags: /Ogsp
; File d:\lost saga for developer\youtube\tutorial\source\src\lsclient\iogameentity.h
;	COMDAT ?GetGroup@ioGameEntity@@QBEPAVioEntityGroup@@XZ
_TEXT	SEGMENT
?GetGroup@ioGameEntity@@QBEPAVioEntityGroup@@XZ PROC	; ioGameEntity::GetGroup, COMDAT
; _this$ = ecx

; 166  : 	inline ioEntityGroup* GetGroup() const { return m_pGroup; }

  00000	8b 41 04	 mov	 eax, DWORD PTR [ecx+4]
  00003	c3		 ret	 0
?GetGroup@ioGameEntity@@QBEPAVioEntityGroup@@XZ ENDP	; ioGameEntity::GetGroup
_TEXT	ENDS
PUBLIC	??1WeaponInfo@@QAE@XZ				; WeaponInfo::~WeaponInfo
EXTRN	__imp_??1ioHashString@@QAE@XZ:PROC
; Function compile flags: /Ogsp
;	COMDAT ??1WeaponInfo@@QAE@XZ
_TEXT	SEGMENT
??1WeaponInfo@@QAE@XZ PROC				; WeaponInfo::~WeaponInfo, COMDAT
; _this$ = ecx
  00000	83 c1 08	 add	 ecx, 8
  00003	ff 25 00 00 00
	00		 jmp	 DWORD PTR __imp_??1ioHashString@@QAE@XZ
??1WeaponInfo@@QAE@XZ ENDP				; WeaponInfo::~WeaponInfo
_TEXT	ENDS
PUBLIC	??_R0?AVioItem@@@8				; ioItem `RTTI Type Descriptor'
PUBLIC	??_R0?AVioWeaponItem@@@8			; ioWeaponItem `RTTI Type Descriptor'
PUBLIC	?ToWeaponItem@@YAPAVioWeaponItem@@PAVioItem@@@Z	; ToWeaponItem
;	COMDAT ??_R0?AVioItem@@@8
; File d:\lost saga for developer\youtube\tutorial\source\src\lsclient\ioweaponitem.h
_DATA	SEGMENT
??_R0?AVioItem@@@8 DD FLAT:??_7type_info@@6B@		; ioItem `RTTI Type Descriptor'
	DD	00H
	DB	'.?AVioItem@@', 00H
_DATA	ENDS
;	COMDAT ??_R0?AVioWeaponItem@@@8
_DATA	SEGMENT
??_R0?AVioWeaponItem@@@8 DD FLAT:??_7type_info@@6B@	; ioWeaponItem `RTTI Type Descriptor'
	DD	00H
	DB	'.?AVioWeaponItem@@', 00H
; Function compile flags: /Ogsp
_DATA	ENDS
;	COMDAT ?ToWeaponItem@@YAPAVioWeaponItem@@PAVioItem@@@Z
_TEXT	SEGMENT
_pItem$ = 8						; size = 4
?ToWeaponItem@@YAPAVioWeaponItem@@PAVioItem@@@Z PROC	; ToWeaponItem, COMDAT

; 303  : {

  00000	55		 push	 ebp
  00001	8b ec		 mov	 ebp, esp
  00003	56		 push	 esi

; 304  : 	if( !pItem || pItem->GetType() != ioItem::IT_WEAPON )

  00004	8b 75 08	 mov	 esi, DWORD PTR _pItem$[ebp]
  00007	85 f6		 test	 esi, esi
  00009	74 25		 je	 SHORT $LN1@ToWeaponIt
  0000b	8b 06		 mov	 eax, DWORD PTR [esi]
  0000d	8b ce		 mov	 ecx, esi
  0000f	ff 50 08	 call	 DWORD PTR [eax+8]
  00012	83 f8 01	 cmp	 eax, 1
  00015	75 19		 jne	 SHORT $LN1@ToWeaponIt

; 306  : 
; 307  : 	return dynamic_cast< ioWeaponItem* >( pItem );

  00017	6a 00		 push	 0
  00019	68 00 00 00 00	 push	 OFFSET ??_R0?AVioWeaponItem@@@8
  0001e	68 00 00 00 00	 push	 OFFSET ??_R0?AVioItem@@@8
  00023	6a 00		 push	 0
  00025	56		 push	 esi
  00026	e8 00 00 00 00	 call	 ___RTDynamicCast
  0002b	83 c4 14	 add	 esp, 20			; 00000014H
  0002e	eb 02		 jmp	 SHORT $LN3@ToWeaponIt
$LN1@ToWeaponIt:

; 305  : 		return NULL;

  00030	33 c0		 xor	 eax, eax
$LN3@ToWeaponIt:
  00032	5e		 pop	 esi

; 308  : }

  00033	5d		 pop	 ebp
  00034	c3		 ret	 0
?ToWeaponItem@@YAPAVioWeaponItem@@PAVioItem@@@Z ENDP	; ToWeaponItem
_TEXT	ENDS
PUBLIC	?GetOwnerItem@ioSkill@@QBEPAVioItem@@XZ		; ioSkill::GetOwnerItem
; Function compile flags: /Ogsp
; File d:\lost saga for developer\youtube\tutorial\source\src\lsclient\ioskill.h
;	COMDAT ?GetOwnerItem@ioSkill@@QBEPAVioItem@@XZ
_TEXT	SEGMENT
?GetOwnerItem@ioSkill@@QBEPAVioItem@@XZ PROC		; ioSkill::GetOwnerItem, COMDAT
; _this$ = ecx

; 397  : 	inline ioItem *GetOwnerItem() const { return m_pOwnerItem; }

  00000	8b 81 a4 02 00
	00		 mov	 eax, DWORD PTR [ecx+676]
  00006	c3		 ret	 0
?GetOwnerItem@ioSkill@@QBEPAVioItem@@XZ ENDP		; ioSkill::GetOwnerItem
_TEXT	ENDS
PUBLIC	?GetName@ioSkill@@QBEABVioHashString@@XZ	; ioSkill::GetName
; Function compile flags: /Ogsp
;	COMDAT ?GetName@ioSkill@@QBEABVioHashString@@XZ
_TEXT	SEGMENT
?GetName@ioSkill@@QBEABVioHashString@@XZ PROC		; ioSkill::GetName, COMDAT
; _this$ = ecx

; 414  : 	inline const ioHashString& GetName() const { return m_Name; }

  00000	8d 41 24	 lea	 eax, DWORD PTR [ecx+36]
  00003	c3		 ret	 0
?GetName@ioSkill@@QBEABVioHashString@@XZ ENDP		; ioSkill::GetName
_TEXT	ENDS
PUBLIC	??_7?$CEncrypt@_N@@6B@				; CEncrypt<bool>::`vftable'
PUBLIC	??1?$CEncrypt@_N@@UAE@XZ			; CEncrypt<bool>::~CEncrypt<bool>
PUBLIC	??_R4?$CEncrypt@_N@@6B@				; CEncrypt<bool>::`RTTI Complete Object Locator'
PUBLIC	??_R0?AV?$CEncrypt@_N@@@8			; CEncrypt<bool> `RTTI Type Descriptor'
PUBLIC	??_R3?$CEncrypt@_N@@8				; CEncrypt<bool>::`RTTI Class Hierarchy Descriptor'
PUBLIC	??_R2?$CEncrypt@_N@@8				; CEncrypt<bool>::`RTTI Base Class Array'
PUBLIC	??_R1A@?0A@EA@?$CEncrypt@_N@@8			; CEncrypt<bool>::`RTTI Base Class Descriptor at (0,-1,0,64)'
EXTRN	??1ccddaabb@@UAE@XZ:PROC			; ccddaabb::~ccddaabb
EXTRN	??_E?$CEncrypt@_N@@UAEPAXI@Z:PROC		; CEncrypt<bool>::`vector deleting destructor'
;	COMDAT ??_R1A@?0A@EA@?$CEncrypt@_N@@8
; File d:\lost saga for developer\youtube\tutorial\source\src\lsclient\encryptvalue.h
rdata$r	SEGMENT
??_R1A@?0A@EA@?$CEncrypt@_N@@8 DD FLAT:??_R0?AV?$CEncrypt@_N@@@8 ; CEncrypt<bool>::`RTTI Base Class Descriptor at (0,-1,0,64)'
	DD	00H
	DD	00H
	DD	0ffffffffH
	DD	00H
	DD	040H
	DD	FLAT:??_R3?$CEncrypt@_N@@8
rdata$r	ENDS
;	COMDAT ??_R2?$CEncrypt@_N@@8
rdata$r	SEGMENT
??_R2?$CEncrypt@_N@@8 DD FLAT:??_R1A@?0A@EA@?$CEncrypt@_N@@8 ; CEncrypt<bool>::`RTTI Base Class Array'
rdata$r	ENDS
;	COMDAT ??_R3?$CEncrypt@_N@@8
rdata$r	SEGMENT
??_R3?$CEncrypt@_N@@8 DD 00H				; CEncrypt<bool>::`RTTI Class Hierarchy Descriptor'
	DD	00H
	DD	01H
	DD	FLAT:??_R2?$CEncrypt@_N@@8
rdata$r	ENDS
;	COMDAT ??_R0?AV?$CEncrypt@_N@@@8
_DATA	SEGMENT
??_R0?AV?$CEncrypt@_N@@@8 DD FLAT:??_7type_info@@6B@	; CEncrypt<bool> `RTTI Type Descriptor'
	DD	00H
	DB	'.?AV?$CEncrypt@_N@@', 00H
_DATA	ENDS
;	COMDAT ??_R4?$CEncrypt@_N@@6B@
rdata$r	SEGMENT
??_R4?$CEncrypt@_N@@6B@ DD 00H				; CEncrypt<bool>::`RTTI Complete Object Locator'
	DD	00H
	DD	00H
	DD	FLAT:??_R0?AV?$CEncrypt@_N@@@8
	DD	FLAT:??_R3?$CEncrypt@_N@@8
rdata$r	ENDS
;	COMDAT ??_7?$CEncrypt@_N@@6B@
CONST	SEGMENT
??_7?$CEncrypt@_N@@6B@ DD FLAT:??_R4?$CEncrypt@_N@@6B@	; CEncrypt<bool>::`vftable'
	DD	FLAT:??_E?$CEncrypt@_N@@UAEPAXI@Z
; Function compile flags: /Ogsp
CONST	ENDS
;	COMDAT ??1?$CEncrypt@_N@@UAE@XZ
_TEXT	SEGMENT
??1?$CEncrypt@_N@@UAE@XZ PROC				; CEncrypt<bool>::~CEncrypt<bool>, COMDAT
; _this$ = ecx

; 127  : 	{

  00000	c7 01 00 00 00
	00		 mov	 DWORD PTR [ecx], OFFSET ??_7?$CEncrypt@_N@@6B@

; 128  : 	}

  00006	83 c1 0c	 add	 ecx, 12			; 0000000cH
  00009	e9 00 00 00 00	 jmp	 ??1ccddaabb@@UAE@XZ	; ccddaabb::~ccddaabb
??1?$CEncrypt@_N@@UAE@XZ ENDP				; CEncrypt<bool>::~CEncrypt<bool>
_TEXT	ENDS
PUBLIC	??_7?$CEncrypt@H@@6B@				; CEncrypt<int>::`vftable'
PUBLIC	??1?$CEncrypt@H@@UAE@XZ				; CEncrypt<int>::~CEncrypt<int>
PUBLIC	??_R4?$CEncrypt@H@@6B@				; CEncrypt<int>::`RTTI Complete Object Locator'
PUBLIC	??_R0?AV?$CEncrypt@H@@@8			; CEncrypt<int> `RTTI Type Descriptor'
PUBLIC	??_R3?$CEncrypt@H@@8				; CEncrypt<int>::`RTTI Class Hierarchy Descriptor'
PUBLIC	??_R2?$CEncrypt@H@@8				; CEncrypt<int>::`RTTI Base Class Array'
PUBLIC	??_R1A@?0A@EA@?$CEncrypt@H@@8			; CEncrypt<int>::`RTTI Base Class Descriptor at (0,-1,0,64)'
EXTRN	??_E?$CEncrypt@H@@UAEPAXI@Z:PROC		; CEncrypt<int>::`vector deleting destructor'
;	COMDAT ??_R1A@?0A@EA@?$CEncrypt@H@@8
rdata$r	SEGMENT
??_R1A@?0A@EA@?$CEncrypt@H@@8 DD FLAT:??_R0?AV?$CEncrypt@H@@@8 ; CEncrypt<int>::`RTTI Base Class Descriptor at (0,-1,0,64)'
	DD	00H
	DD	00H
	DD	0ffffffffH
	DD	00H
	DD	040H
	DD	FLAT:??_R3?$CEncrypt@H@@8
rdata$r	ENDS
;	COMDAT ??_R2?$CEncrypt@H@@8
rdata$r	SEGMENT
??_R2?$CEncrypt@H@@8 DD FLAT:??_R1A@?0A@EA@?$CEncrypt@H@@8 ; CEncrypt<int>::`RTTI Base Class Array'
rdata$r	ENDS
;	COMDAT ??_R3?$CEncrypt@H@@8
rdata$r	SEGMENT
??_R3?$CEncrypt@H@@8 DD 00H				; CEncrypt<int>::`RTTI Class Hierarchy Descriptor'
	DD	00H
	DD	01H
	DD	FLAT:??_R2?$CEncrypt@H@@8
rdata$r	ENDS
;	COMDAT ??_R0?AV?$CEncrypt@H@@@8
_DATA	SEGMENT
??_R0?AV?$CEncrypt@H@@@8 DD FLAT:??_7type_info@@6B@	; CEncrypt<int> `RTTI Type Descriptor'
	DD	00H
	DB	'.?AV?$CEncrypt@H@@', 00H
_DATA	ENDS
;	COMDAT ??_R4?$CEncrypt@H@@6B@
rdata$r	SEGMENT
??_R4?$CEncrypt@H@@6B@ DD 00H				; CEncrypt<int>::`RTTI Complete Object Locator'
	DD	00H
	DD	00H
	DD	FLAT:??_R0?AV?$CEncrypt@H@@@8
	DD	FLAT:??_R3?$CEncrypt@H@@8
rdata$r	ENDS
;	COMDAT ??_7?$CEncrypt@H@@6B@
CONST	SEGMENT
??_7?$CEncrypt@H@@6B@ DD FLAT:??_R4?$CEncrypt@H@@6B@	; CEncrypt<int>::`vftable'
	DD	FLAT:??_E?$CEncrypt@H@@UAEPAXI@Z
; Function compile flags: /Ogsp
CONST	ENDS
;	COMDAT ??1?$CEncrypt@H@@UAE@XZ
_TEXT	SEGMENT
??1?$CEncrypt@H@@UAE@XZ PROC				; CEncrypt<int>::~CEncrypt<int>, COMDAT
; _this$ = ecx

; 127  : 	{

  00000	c7 01 00 00 00
	00		 mov	 DWORD PTR [ecx], OFFSET ??_7?$CEncrypt@H@@6B@

; 128  : 	}

  00006	83 c1 0c	 add	 ecx, 12			; 0000000cH
  00009	e9 00 00 00 00	 jmp	 ??1ccddaabb@@UAE@XZ	; ccddaabb::~ccddaabb
??1?$CEncrypt@H@@UAE@XZ ENDP				; CEncrypt<int>::~CEncrypt<int>
; Function compile flags: /Ogsp
_TEXT	ENDS
;	COMDAT ??_G?$CEncrypt@_N@@UAEPAXI@Z
_TEXT	SEGMENT
___flags$ = 8						; size = 4
??_G?$CEncrypt@_N@@UAEPAXI@Z PROC			; CEncrypt<bool>::`scalar deleting destructor', COMDAT
; _this$ = ecx
  00000	55		 push	 ebp
  00001	8b ec		 mov	 ebp, esp
  00003	56		 push	 esi
  00004	8b f1		 mov	 esi, ecx
  00006	8d 4e 0c	 lea	 ecx, DWORD PTR [esi+12]
  00009	c7 06 00 00 00
	00		 mov	 DWORD PTR [esi], OFFSET ??_7?$CEncrypt@_N@@6B@
  0000f	e8 00 00 00 00	 call	 ??1ccddaabb@@UAE@XZ	; ccddaabb::~ccddaabb
  00014	f6 45 08 01	 test	 BYTE PTR ___flags$[ebp], 1
  00018	74 07		 je	 SHORT $LN1@scalar@2
  0001a	56		 push	 esi
  0001b	e8 00 00 00 00	 call	 ??3@YAXPAX@Z		; operator delete
  00020	59		 pop	 ecx
$LN1@scalar@2:
  00021	8b c6		 mov	 eax, esi
  00023	5e		 pop	 esi
  00024	5d		 pop	 ebp
  00025	c2 04 00	 ret	 4
??_G?$CEncrypt@_N@@UAEPAXI@Z ENDP			; CEncrypt<bool>::`scalar deleting destructor'
; Function compile flags: /Ogsp
_TEXT	ENDS
;	COMDAT ??_G?$CEncrypt@H@@UAEPAXI@Z
_TEXT	SEGMENT
___flags$ = 8						; size = 4
??_G?$CEncrypt@H@@UAEPAXI@Z PROC			; CEncrypt<int>::`scalar deleting destructor', COMDAT
; _this$ = ecx
  00000	55		 push	 ebp
  00001	8b ec		 mov	 ebp, esp
  00003	56		 push	 esi
  00004	8b f1		 mov	 esi, ecx
  00006	8d 4e 0c	 lea	 ecx, DWORD PTR [esi+12]
  00009	c7 06 00 00 00
	00		 mov	 DWORD PTR [esi], OFFSET ??_7?$CEncrypt@H@@6B@
  0000f	e8 00 00 00 00	 call	 ??1ccddaabb@@UAE@XZ	; ccddaabb::~ccddaabb
  00014	f6 45 08 01	 test	 BYTE PTR ___flags$[ebp], 1
  00018	74 07		 je	 SHORT $LN1@scalar@3
  0001a	56		 push	 esi
  0001b	e8 00 00 00 00	 call	 ??3@YAXPAX@Z		; operator delete
  00020	59		 pop	 ecx
$LN1@scalar@3:
  00021	8b c6		 mov	 eax, esi
  00023	5e		 pop	 esi
  00024	5d		 pop	 ebp
  00025	c2 04 00	 ret	 4
??_G?$CEncrypt@H@@UAEPAXI@Z ENDP			; CEncrypt<int>::`scalar deleting destructor'
_TEXT	ENDS
PUBLIC	??1?$_Vector_val@UWeaponInfo@@V?$allocator@UWeaponInfo@@@std@@@std@@QAE@XZ ; std::_Vector_val<WeaponInfo,std::allocator<WeaponInfo> >::~_Vector_val<WeaponInfo,std::allocator<WeaponInfo> >
; Function compile flags: /Ogsp
; File c:\program files (x86)\microsoft visual studio 10.0\vc\include\vector
;	COMDAT ??1?$_Vector_val@UWeaponInfo@@V?$allocator@UWeaponInfo@@@std@@@std@@QAE@XZ
_TEXT	SEGMENT
??1?$_Vector_val@UWeaponInfo@@V?$allocator@UWeaponInfo@@@std@@@std@@QAE@XZ PROC ; std::_Vector_val<WeaponInfo,std::allocator<WeaponInfo> >::~_Vector_val<WeaponInfo,std::allocator<WeaponInfo> >, COMDAT
; _this$ = ecx

; 434  : 		}

  00000	c3		 ret	 0
??1?$_Vector_val@UWeaponInfo@@V?$allocator@UWeaponInfo@@@std@@@std@@QAE@XZ ENDP ; std::_Vector_val<WeaponInfo,std::allocator<WeaponInfo> >::~_Vector_val<WeaponInfo,std::allocator<WeaponInfo> >
_TEXT	ENDS
PUBLIC	??0?$allocator@UWeaponInfo@@@std@@QAE@XZ	; std::allocator<WeaponInfo>::allocator<WeaponInfo>
; Function compile flags: /Ogsp
; File c:\program files (x86)\microsoft visual studio 10.0\vc\include\xmemory
;	COMDAT ??0?$allocator@UWeaponInfo@@@std@@QAE@XZ
_TEXT	SEGMENT
??0?$allocator@UWeaponInfo@@@std@@QAE@XZ PROC		; std::allocator<WeaponInfo>::allocator<WeaponInfo>, COMDAT
; _this$ = ecx

; 161  : 	_ALLOCATOR() _THROW0()

  00000	8b c1		 mov	 eax, ecx

; 162  : 		{	// construct default allocator (do nothing)
; 163  : 		}

  00002	c3		 ret	 0
??0?$allocator@UWeaponInfo@@@std@@QAE@XZ ENDP		; std::allocator<WeaponInfo>::allocator<WeaponInfo>
_TEXT	ENDS
PUBLIC	??1?$_Vector_val@UForceInfo@@V?$allocator@UForceInfo@@@std@@@std@@QAE@XZ ; std::_Vector_val<ForceInfo,std::allocator<ForceInfo> >::~_Vector_val<ForceInfo,std::allocator<ForceInfo> >
; Function compile flags: /Ogsp
; File c:\program files (x86)\microsoft visual studio 10.0\vc\include\vector
;	COMDAT ??1?$_Vector_val@UForceInfo@@V?$allocator@UForceInfo@@@std@@@std@@QAE@XZ
_TEXT	SEGMENT
??1?$_Vector_val@UForceInfo@@V?$allocator@UForceInfo@@@std@@@std@@QAE@XZ PROC ; std::_Vector_val<ForceInfo,std::allocator<ForceInfo> >::~_Vector_val<ForceInfo,std::allocator<ForceInfo> >, COMDAT
; _this$ = ecx

; 434  : 		}

  00000	c3		 ret	 0
??1?$_Vector_val@UForceInfo@@V?$allocator@UForceInfo@@@std@@@std@@QAE@XZ ENDP ; std::_Vector_val<ForceInfo,std::allocator<ForceInfo> >::~_Vector_val<ForceInfo,std::allocator<ForceInfo> >
_TEXT	ENDS
PUBLIC	??0?$allocator@UForceInfo@@@std@@QAE@XZ		; std::allocator<ForceInfo>::allocator<ForceInfo>
; Function compile flags: /Ogsp
; File c:\program files (x86)\microsoft visual studio 10.0\vc\include\xmemory
;	COMDAT ??0?$allocator@UForceInfo@@@std@@QAE@XZ
_TEXT	SEGMENT
??0?$allocator@UForceInfo@@@std@@QAE@XZ PROC		; std::allocator<ForceInfo>::allocator<ForceInfo>, COMDAT
; _this$ = ecx

; 161  : 	_ALLOCATOR() _THROW0()

  00000	8b c1		 mov	 eax, ecx

; 162  : 		{	// construct default allocator (do nothing)
; 163  : 		}

  00002	c3		 ret	 0
??0?$allocator@UForceInfo@@@std@@QAE@XZ ENDP		; std::allocator<ForceInfo>::allocator<ForceInfo>
_TEXT	ENDS
PUBLIC	?EncryptValueToPool@?$CEncrypt@M@@AAEXPBD@Z	; CEncrypt<float>::EncryptValueToPool
EXTRN	?EncryptByte@ccddaabb@@QAEXPBDPADH@Z:PROC	; ccddaabb::EncryptByte
; Function compile flags: /Ogsp
; File d:\lost saga for developer\youtube\tutorial\source\src\lsclient\encryptvalue.h
;	COMDAT ?EncryptValueToPool@?$CEncrypt@M@@AAEXPBD@Z
_TEXT	SEGMENT
_value$ = 8						; size = 4
?EncryptValueToPool@?$CEncrypt@M@@AAEXPBD@Z PROC	; CEncrypt<float>::EncryptValueToPool, COMDAT
; _this$ = ecx

; 67   : 	{

  00000	55		 push	 ebp
  00001	8b ec		 mov	 ebp, esp

; 68   : 		m_RC5.EncryptByte( value, m_MemPool, max(m_ValueSize, DEFAULT_ENCRYPT) );

  00003	0f b7 41 06	 movzx	 eax, WORD PTR [ecx+6]
  00007	83 f8 04	 cmp	 eax, 4
  0000a	77 03		 ja	 SHORT $LN4@EncryptVal
  0000c	6a 04		 push	 4
  0000e	58		 pop	 eax
$LN4@EncryptVal:
  0000f	50		 push	 eax
  00010	8d 41 1c	 lea	 eax, DWORD PTR [ecx+28]
  00013	50		 push	 eax
  00014	ff 75 08	 push	 DWORD PTR _value$[ebp]
  00017	83 c1 0c	 add	 ecx, 12			; 0000000cH
  0001a	e8 00 00 00 00	 call	 ?EncryptByte@ccddaabb@@QAEXPBDPADH@Z ; ccddaabb::EncryptByte

; 69   : 		
; 70   : 	}

  0001f	5d		 pop	 ebp
  00020	c2 04 00	 ret	 4
?EncryptValueToPool@?$CEncrypt@M@@AAEXPBD@Z ENDP	; CEncrypt<float>::EncryptValueToPool
_TEXT	ENDS
PUBLIC	?DecryptValueToPool@?$CEncrypt@K@@QAEXPAK@Z	; CEncrypt<unsigned long>::DecryptValueToPool
EXTRN	?DecryptByte@ccddaabb@@QBEXPBDPADH@Z:PROC	; ccddaabb::DecryptByte
; Function compile flags: /Ogsp
;	COMDAT ?DecryptValueToPool@?$CEncrypt@K@@QAEXPAK@Z
_TEXT	SEGMENT
_value$ = 8						; size = 4
?DecryptValueToPool@?$CEncrypt@K@@QAEXPAK@Z PROC	; CEncrypt<unsigned long>::DecryptValueToPool, COMDAT
; _this$ = ecx

; 1256 : 	{

  00000	55		 push	 ebp
  00001	8b ec		 mov	 ebp, esp
  00003	56		 push	 esi

; 1257 : 		m_RC5.DecryptByte( m_MemPool, m_TempMem, 4 );

  00004	8d 71 28	 lea	 esi, DWORD PTR [ecx+40]
  00007	6a 04		 push	 4
  00009	8d 41 1c	 lea	 eax, DWORD PTR [ecx+28]
  0000c	56		 push	 esi
  0000d	50		 push	 eax
  0000e	83 c1 0c	 add	 ecx, 12			; 0000000cH
  00011	e8 00 00 00 00	 call	 ?DecryptByte@ccddaabb@@QBEXPBDPADH@Z ; ccddaabb::DecryptByte

; 1258 : 		*value = *((DWORD*)m_TempMem);

  00016	8b 06		 mov	 eax, DWORD PTR [esi]
  00018	8b 4d 08	 mov	 ecx, DWORD PTR _value$[ebp]
  0001b	89 01		 mov	 DWORD PTR [ecx], eax
  0001d	5e		 pop	 esi

; 1259 : 	}

  0001e	5d		 pop	 ebp
  0001f	c2 04 00	 ret	 4
?DecryptValueToPool@?$CEncrypt@K@@QAEXPAK@Z ENDP	; CEncrypt<unsigned long>::DecryptValueToPool
_TEXT	ENDS
PUBLIC	?EncryptValueToPool@?$CEncrypt@_N@@AAEXPBD@Z	; CEncrypt<bool>::EncryptValueToPool
; Function compile flags: /Ogsp
;	COMDAT ?EncryptValueToPool@?$CEncrypt@_N@@AAEXPBD@Z
_TEXT	SEGMENT
_value$ = 8						; size = 4
?EncryptValueToPool@?$CEncrypt@_N@@AAEXPBD@Z PROC	; CEncrypt<bool>::EncryptValueToPool, COMDAT
; _this$ = ecx

; 67   : 	{

  00000	55		 push	 ebp
  00001	8b ec		 mov	 ebp, esp

; 68   : 		m_RC5.EncryptByte( value, m_MemPool, max(m_ValueSize, DEFAULT_ENCRYPT) );

  00003	0f b7 41 06	 movzx	 eax, WORD PTR [ecx+6]
  00007	83 f8 04	 cmp	 eax, 4
  0000a	77 03		 ja	 SHORT $LN4@EncryptVal@2
  0000c	6a 04		 push	 4
  0000e	58		 pop	 eax
$LN4@EncryptVal@2:
  0000f	50		 push	 eax
  00010	8d 41 1c	 lea	 eax, DWORD PTR [ecx+28]
  00013	50		 push	 eax
  00014	ff 75 08	 push	 DWORD PTR _value$[ebp]
  00017	83 c1 0c	 add	 ecx, 12			; 0000000cH
  0001a	e8 00 00 00 00	 call	 ?EncryptByte@ccddaabb@@QAEXPBDPADH@Z ; ccddaabb::EncryptByte

; 69   : 		
; 70   : 	}

  0001f	5d		 pop	 ebp
  00020	c2 04 00	 ret	 4
?EncryptValueToPool@?$CEncrypt@_N@@AAEXPBD@Z ENDP	; CEncrypt<bool>::EncryptValueToPool
_TEXT	ENDS
PUBLIC	?Init@?$CEncrypt@_N@@AAEXXZ			; CEncrypt<bool>::Init
EXTRN	?Setup@ccddaabb@@QAEXPBDHH@Z:PROC		; ccddaabb::Setup
EXTRN	__imp__rand:PROC
EXTRN	__imp__timeGetTime@0:PROC
EXTRN	__imp__GetCurrentProcessId@0:PROC
; Function compile flags: /Ogsp
;	COMDAT ?Init@?$CEncrypt@_N@@AAEXXZ
_TEXT	SEGMENT
_pid$ = -8						; size = 4
_tick$ = -4						; size = 4
?Init@?$CEncrypt@_N@@AAEXXZ PROC			; CEncrypt<bool>::Init, COMDAT
; _this$ = ecx

; 73   : 	{

  00000	55		 push	 ebp
  00001	8b ec		 mov	 ebp, esp
  00003	51		 push	 ecx
  00004	51		 push	 ecx
  00005	53		 push	 ebx
  00006	56		 push	 esi
  00007	57		 push	 edi
  00008	8b f1		 mov	 esi, ecx

; 74   : 		DWORD pid = GetCurrentProcessId();

  0000a	ff 15 00 00 00
	00		 call	 DWORD PTR __imp__GetCurrentProcessId@0
  00010	89 45 f8	 mov	 DWORD PTR _pid$[ebp], eax

; 75   : 		DWORD tick = timeGetTime();

  00013	ff 15 00 00 00
	00		 call	 DWORD PTR __imp__timeGetTime@0

; 76   : 		m_ValueSize    = sizeof(type);
; 77   : 		m_MemPoolPos   = (unsigned short)( rand()+pid+tick )%(MAX_MEM_POOL-m_ValueSize);

  00019	8b 3d 00 00 00
	00		 mov	 edi, DWORD PTR __imp__rand
  0001f	89 45 fc	 mov	 DWORD PTR _tick$[ebp], eax
  00022	33 c0		 xor	 eax, eax
  00024	40		 inc	 eax
  00025	66 89 46 06	 mov	 WORD PTR [esi+6], ax
  00029	ff d7		 call	 edi
  0002b	03 45 f8	 add	 eax, DWORD PTR _pid$[ebp]
  0002e	0f b7 4e 06	 movzx	 ecx, WORD PTR [esi+6]
  00032	03 45 fc	 add	 eax, DWORD PTR _tick$[ebp]
  00035	6a 0c		 push	 12			; 0000000cH
  00037	0f b7 c0	 movzx	 eax, ax
  0003a	5b		 pop	 ebx
  0003b	99		 cdq
  0003c	2b d9		 sub	 ebx, ecx
  0003e	f7 fb		 idiv	 ebx
  00040	66 89 56 04	 mov	 WORD PTR [esi+4], dx

; 78   : 		m_EncryptSeed  = (char)( rand()+pid+tick )%256;

  00044	ff d7		 call	 edi
  00046	02 45 f8	 add	 al, BYTE PTR _pid$[ebp]
  00049	02 45 fc	 add	 al, BYTE PTR _tick$[ebp]
  0004c	0f be c0	 movsx	 eax, al
  0004f	25 ff 00 00 80	 and	 eax, -2147483393	; 800000ffH
  00054	79 07		 jns	 SHORT $LN8@Init
  00056	48		 dec	 eax
  00057	0d 00 ff ff ff	 or	 eax, -256		; ffffff00H
  0005c	40		 inc	 eax
$LN8@Init:
  0005d	88 46 08	 mov	 BYTE PTR [esi+8], al

; 79   : 
; 80   : 		for (int i = 0; i < MAX_MEM_POOL ; i++)

  00060	33 db		 xor	 ebx, ebx
$LL3@Init:

; 81   : 			m_MemPool[i] = (char)( rand()+pid+tick )%256; // 

  00062	ff d7		 call	 edi
  00064	02 45 f8	 add	 al, BYTE PTR _pid$[ebp]
  00067	02 45 fc	 add	 al, BYTE PTR _tick$[ebp]
  0006a	0f be c0	 movsx	 eax, al
  0006d	25 ff 00 00 80	 and	 eax, -2147483393	; 800000ffH
  00072	79 07		 jns	 SHORT $LN9@Init
  00074	48		 dec	 eax
  00075	0d 00 ff ff ff	 or	 eax, -256		; ffffff00H
  0007a	40		 inc	 eax
$LN9@Init:
  0007b	88 44 1e 1c	 mov	 BYTE PTR [esi+ebx+28], al
  0007f	43		 inc	 ebx
  00080	83 fb 0c	 cmp	 ebx, 12			; 0000000cH
  00083	7c dd		 jl	 SHORT $LL3@Init

; 82   : 
; 83   : 		//UJ 130913, : szKey  
; 84   : 		//char szKey[ccddaabb::KEY_SIZE];//="";
; 85   : 		//for (int i = 0; i < ccddaabb::KEY_SIZE  ; i++)
; 86   : 		//	szKey[i] = (char)( rand()+pid+tick )%256; // 
; 87   : 		m_RC5.Setup( NULL, pid, tick );

  00085	ff 75 fc	 push	 DWORD PTR _tick$[ebp]
  00088	8d 4e 0c	 lea	 ecx, DWORD PTR [esi+12]
  0008b	ff 75 f8	 push	 DWORD PTR _pid$[ebp]
  0008e	6a 00		 push	 0
  00090	e8 00 00 00 00	 call	 ?Setup@ccddaabb@@QAEXPBDHH@Z ; ccddaabb::Setup
  00095	5f		 pop	 edi
  00096	5e		 pop	 esi
  00097	5b		 pop	 ebx

; 88   : 
; 89   : #ifdef _NOTUSE
; 90   : 		m_value        = 0;
; 91   : 		EncryptValueToPool((char*)&m_value);
; 92   : 		Debug();
; 93   : #endif
; 94   : 	}

  00098	c9		 leave
  00099	c3		 ret	 0
?Init@?$CEncrypt@_N@@AAEXXZ ENDP			; CEncrypt<bool>::Init
_TEXT	ENDS
PUBLIC	?DecryptValueToPool@?$CEncrypt@_N@@QAEXPA_N@Z	; CEncrypt<bool>::DecryptValueToPool
; Function compile flags: /Ogsp
;	COMDAT ?DecryptValueToPool@?$CEncrypt@_N@@QAEXPA_N@Z
_TEXT	SEGMENT
_value$ = 8						; size = 4
?DecryptValueToPool@?$CEncrypt@_N@@QAEXPA_N@Z PROC	; CEncrypt<bool>::DecryptValueToPool, COMDAT
; _this$ = ecx

; 219  : 	{

  00000	55		 push	 ebp
  00001	8b ec		 mov	 ebp, esp
  00003	56		 push	 esi

; 220  : 		m_RC5.DecryptByte( m_MemPool, m_TempMem, 4 );

  00004	8d 71 28	 lea	 esi, DWORD PTR [ecx+40]
  00007	6a 04		 push	 4
  00009	8d 41 1c	 lea	 eax, DWORD PTR [ecx+28]
  0000c	56		 push	 esi
  0000d	50		 push	 eax
  0000e	83 c1 0c	 add	 ecx, 12			; 0000000cH
  00011	e8 00 00 00 00	 call	 ?DecryptByte@ccddaabb@@QBEXPBDPADH@Z ; ccddaabb::DecryptByte

; 221  : 		*value = *((bool*)m_TempMem);

  00016	8a 06		 mov	 al, BYTE PTR [esi]
  00018	8b 4d 08	 mov	 ecx, DWORD PTR _value$[ebp]
  0001b	88 01		 mov	 BYTE PTR [ecx], al
  0001d	5e		 pop	 esi

; 222  : 	}

  0001e	5d		 pop	 ebp
  0001f	c2 04 00	 ret	 4
?DecryptValueToPool@?$CEncrypt@_N@@QAEXPA_N@Z ENDP	; CEncrypt<bool>::DecryptValueToPool
_TEXT	ENDS
PUBLIC	?EncryptValueToPool@?$CEncrypt@H@@AAEXPBD@Z	; CEncrypt<int>::EncryptValueToPool
; Function compile flags: /Ogsp
;	COMDAT ?EncryptValueToPool@?$CEncrypt@H@@AAEXPBD@Z
_TEXT	SEGMENT
_value$ = 8						; size = 4
?EncryptValueToPool@?$CEncrypt@H@@AAEXPBD@Z PROC	; CEncrypt<int>::EncryptValueToPool, COMDAT
; _this$ = ecx

; 67   : 	{

  00000	55		 push	 ebp
  00001	8b ec		 mov	 ebp, esp

; 68   : 		m_RC5.EncryptByte( value, m_MemPool, max(m_ValueSize, DEFAULT_ENCRYPT) );

  00003	0f b7 41 06	 movzx	 eax, WORD PTR [ecx+6]
  00007	83 f8 04	 cmp	 eax, 4
  0000a	77 03		 ja	 SHORT $LN4@EncryptVal@3
  0000c	6a 04		 push	 4
  0000e	58		 pop	 eax
$LN4@EncryptVal@3:
  0000f	50		 push	 eax
  00010	8d 41 1c	 lea	 eax, DWORD PTR [ecx+28]
  00013	50		 push	 eax
  00014	ff 75 08	 push	 DWORD PTR _value$[ebp]
  00017	83 c1 0c	 add	 ecx, 12			; 0000000cH
  0001a	e8 00 00 00 00	 call	 ?EncryptByte@ccddaabb@@QAEXPBDPADH@Z ; ccddaabb::EncryptByte

; 69   : 		
; 70   : 	}

  0001f	5d		 pop	 ebp
  00020	c2 04 00	 ret	 4
?EncryptValueToPool@?$CEncrypt@H@@AAEXPBD@Z ENDP	; CEncrypt<int>::EncryptValueToPool
_TEXT	ENDS
PUBLIC	?Init@?$CEncrypt@H@@AAEXXZ			; CEncrypt<int>::Init
; Function compile flags: /Ogsp
;	COMDAT ?Init@?$CEncrypt@H@@AAEXXZ
_TEXT	SEGMENT
_pid$ = -8						; size = 4
_tick$ = -4						; size = 4
?Init@?$CEncrypt@H@@AAEXXZ PROC				; CEncrypt<int>::Init, COMDAT
; _this$ = ecx

; 73   : 	{

  00000	55		 push	 ebp
  00001	8b ec		 mov	 ebp, esp
  00003	51		 push	 ecx
  00004	51		 push	 ecx
  00005	53		 push	 ebx
  00006	56		 push	 esi
  00007	57		 push	 edi
  00008	8b f1		 mov	 esi, ecx

; 74   : 		DWORD pid = GetCurrentProcessId();

  0000a	ff 15 00 00 00
	00		 call	 DWORD PTR __imp__GetCurrentProcessId@0
  00010	89 45 f8	 mov	 DWORD PTR _pid$[ebp], eax

; 75   : 		DWORD tick = timeGetTime();

  00013	ff 15 00 00 00
	00		 call	 DWORD PTR __imp__timeGetTime@0

; 76   : 		m_ValueSize    = sizeof(type);
; 77   : 		m_MemPoolPos   = (unsigned short)( rand()+pid+tick )%(MAX_MEM_POOL-m_ValueSize);

  00019	8b 3d 00 00 00
	00		 mov	 edi, DWORD PTR __imp__rand
  0001f	89 45 fc	 mov	 DWORD PTR _tick$[ebp], eax
  00022	6a 04		 push	 4
  00024	58		 pop	 eax
  00025	66 89 46 06	 mov	 WORD PTR [esi+6], ax
  00029	ff d7		 call	 edi
  0002b	03 45 f8	 add	 eax, DWORD PTR _pid$[ebp]
  0002e	0f b7 4e 06	 movzx	 ecx, WORD PTR [esi+6]
  00032	03 45 fc	 add	 eax, DWORD PTR _tick$[ebp]
  00035	6a 0c		 push	 12			; 0000000cH
  00037	0f b7 c0	 movzx	 eax, ax
  0003a	5b		 pop	 ebx
  0003b	99		 cdq
  0003c	2b d9		 sub	 ebx, ecx
  0003e	f7 fb		 idiv	 ebx
  00040	66 89 56 04	 mov	 WORD PTR [esi+4], dx

; 78   : 		m_EncryptSeed  = (char)( rand()+pid+tick )%256;

  00044	ff d7		 call	 edi
  00046	02 45 f8	 add	 al, BYTE PTR _pid$[ebp]
  00049	02 45 fc	 add	 al, BYTE PTR _tick$[ebp]
  0004c	0f be c0	 movsx	 eax, al
  0004f	25 ff 00 00 80	 and	 eax, -2147483393	; 800000ffH
  00054	79 07		 jns	 SHORT $LN8@Init@2
  00056	48		 dec	 eax
  00057	0d 00 ff ff ff	 or	 eax, -256		; ffffff00H
  0005c	40		 inc	 eax
$LN8@Init@2:
  0005d	88 46 08	 mov	 BYTE PTR [esi+8], al

; 79   : 
; 80   : 		for (int i = 0; i < MAX_MEM_POOL ; i++)

  00060	33 db		 xor	 ebx, ebx
$LL3@Init@2:

; 81   : 			m_MemPool[i] = (char)( rand()+pid+tick )%256; // 

  00062	ff d7		 call	 edi
  00064	02 45 f8	 add	 al, BYTE PTR _pid$[ebp]
  00067	02 45 fc	 add	 al, BYTE PTR _tick$[ebp]
  0006a	0f be c0	 movsx	 eax, al
  0006d	25 ff 00 00 80	 and	 eax, -2147483393	; 800000ffH
  00072	79 07		 jns	 SHORT $LN9@Init@2
  00074	48		 dec	 eax
  00075	0d 00 ff ff ff	 or	 eax, -256		; ffffff00H
  0007a	40		 inc	 eax
$LN9@Init@2:
  0007b	88 44 1e 1c	 mov	 BYTE PTR [esi+ebx+28], al
  0007f	43		 inc	 ebx
  00080	83 fb 0c	 cmp	 ebx, 12			; 0000000cH
  00083	7c dd		 jl	 SHORT $LL3@Init@2

; 82   : 
; 83   : 		//UJ 130913, : szKey  
; 84   : 		//char szKey[ccddaabb::KEY_SIZE];//="";
; 85   : 		//for (int i = 0; i < ccddaabb::KEY_SIZE  ; i++)
; 86   : 		//	szKey[i] = (char)( rand()+pid+tick )%256; // 
; 87   : 		m_RC5.Setup( NULL, pid, tick );

  00085	ff 75 fc	 push	 DWORD PTR _tick$[ebp]
  00088	8d 4e 0c	 lea	 ecx, DWORD PTR [esi+12]
  0008b	ff 75 f8	 push	 DWORD PTR _pid$[ebp]
  0008e	6a 00		 push	 0
  00090	e8 00 00 00 00	 call	 ?Setup@ccddaabb@@QAEXPBDHH@Z ; ccddaabb::Setup
  00095	5f		 pop	 edi
  00096	5e		 pop	 esi
  00097	5b		 pop	 ebx

; 88   : 
; 89   : #ifdef _NOTUSE
; 90   : 		m_value        = 0;
; 91   : 		EncryptValueToPool((char*)&m_value);
; 92   : 		Debug();
; 93   : #endif
; 94   : 	}

  00098	c9		 leave
  00099	c3		 ret	 0
?Init@?$CEncrypt@H@@AAEXXZ ENDP				; CEncrypt<int>::Init
_TEXT	ENDS
PUBLIC	?DecryptValueToPool@?$CEncrypt@H@@QAEXPAH@Z	; CEncrypt<int>::DecryptValueToPool
; Function compile flags: /Ogsp
;	COMDAT ?DecryptValueToPool@?$CEncrypt@H@@QAEXPAH@Z
_TEXT	SEGMENT
_value$ = 8						; size = 4
?DecryptValueToPool@?$CEncrypt@H@@QAEXPAH@Z PROC	; CEncrypt<int>::DecryptValueToPool, COMDAT
; _this$ = ecx

; 837  : 	{

  00000	55		 push	 ebp
  00001	8b ec		 mov	 ebp, esp
  00003	56		 push	 esi

; 838  : 		m_RC5.DecryptByte( m_MemPool, m_TempMem, 4 );

  00004	8d 71 28	 lea	 esi, DWORD PTR [ecx+40]
  00007	6a 04		 push	 4
  00009	8d 41 1c	 lea	 eax, DWORD PTR [ecx+28]
  0000c	56		 push	 esi
  0000d	50		 push	 eax
  0000e	83 c1 0c	 add	 ecx, 12			; 0000000cH
  00011	e8 00 00 00 00	 call	 ?DecryptByte@ccddaabb@@QBEXPBDPADH@Z ; ccddaabb::DecryptByte

; 839  : 		*value = *((int*)m_TempMem);

  00016	8b 06		 mov	 eax, DWORD PTR [esi]
  00018	8b 4d 08	 mov	 ecx, DWORD PTR _value$[ebp]
  0001b	89 01		 mov	 DWORD PTR [ecx], eax
  0001d	5e		 pop	 esi

; 840  : 	}

  0001e	5d		 pop	 ebp
  0001f	c2 04 00	 ret	 4
?DecryptValueToPool@?$CEncrypt@H@@QAEXPAH@Z ENDP	; CEncrypt<int>::DecryptValueToPool
_TEXT	ENDS
PUBLIC	??1?$_Vector_val@UAttackAttribute@@V?$allocator@UAttackAttribute@@@std@@@std@@QAE@XZ ; std::_Vector_val<AttackAttribute,std::allocator<AttackAttribute> >::~_Vector_val<AttackAttribute,std::allocator<AttackAttribute> >
; Function compile flags: /Ogsp
; File c:\program files (x86)\microsoft visual studio 10.0\vc\include\vector
;	COMDAT ??1?$_Vector_val@UAttackAttribute@@V?$allocator@UAttackAttribute@@@std@@@std@@QAE@XZ
_TEXT	SEGMENT
??1?$_Vector_val@UAttackAttribute@@V?$allocator@UAttackAttribute@@@std@@@std@@QAE@XZ PROC ; std::_Vector_val<AttackAttribute,std::allocator<AttackAttribute> >::~_Vector_val<AttackAttribute,std::allocator<AttackAttribute> >, COMDAT
; _this$ = ecx

; 434  : 		}

  00000	c3		 ret	 0
??1?$_Vector_val@UAttackAttribute@@V?$allocator@UAttackAttribute@@@std@@@std@@QAE@XZ ENDP ; std::_Vector_val<AttackAttribute,std::allocator<AttackAttribute> >::~_Vector_val<AttackAttribute,std::allocator<AttackAttribute> >
_TEXT	ENDS
PUBLIC	??0?$allocator@UAttackAttribute@@@std@@QAE@XZ	; std::allocator<AttackAttribute>::allocator<AttackAttribute>
; Function compile flags: /Ogsp
; File c:\program files (x86)\microsoft visual studio 10.0\vc\include\xmemory
;	COMDAT ??0?$allocator@UAttackAttribute@@@std@@QAE@XZ
_TEXT	SEGMENT
??0?$allocator@UAttackAttribute@@@std@@QAE@XZ PROC	; std::allocator<AttackAttribute>::allocator<AttackAttribute>, COMDAT
; _this$ = ecx

; 161  : 	_ALLOCATOR() _THROW0()

  00000	8b c1		 mov	 eax, ecx

; 162  : 		{	// construct default allocator (do nothing)
; 163  : 		}

  00002	c3		 ret	 0
??0?$allocator@UAttackAttribute@@@std@@QAE@XZ ENDP	; std::allocator<AttackAttribute>::allocator<AttackAttribute>
_TEXT	ENDS
PUBLIC	??0?$allocator@UWeaponInfo@@@std@@QAE@ABV01@@Z	; std::allocator<WeaponInfo>::allocator<WeaponInfo>
; Function compile flags: /Ogsp
;	COMDAT ??0?$allocator@UWeaponInfo@@@std@@QAE@ABV01@@Z
_TEXT	SEGMENT
___formal$ = 8						; size = 4
??0?$allocator@UWeaponInfo@@@std@@QAE@ABV01@@Z PROC	; std::allocator<WeaponInfo>::allocator<WeaponInfo>, COMDAT
; _this$ = ecx

; 165  : 	_ALLOCATOR(const _ALLOCATOR<_Ty>&) _THROW0()

  00000	8b c1		 mov	 eax, ecx

; 166  : 		{	// construct by copying (do nothing)
; 167  : 		}

  00002	c2 04 00	 ret	 4
??0?$allocator@UWeaponInfo@@@std@@QAE@ABV01@@Z ENDP	; std::allocator<WeaponInfo>::allocator<WeaponInfo>
_TEXT	ENDS
PUBLIC	?deallocate@?$allocator@UWeaponInfo@@@std@@QAEXPAUWeaponInfo@@I@Z ; std::allocator<WeaponInfo>::deallocate
; Function compile flags: /Ogsp
;	COMDAT ?deallocate@?$allocator@UWeaponInfo@@@std@@QAEXPAUWeaponInfo@@I@Z
_TEXT	SEGMENT
__Ptr$ = 8						; size = 4
___formal$ = 12						; size = 4
?deallocate@?$allocator@UWeaponInfo@@@std@@QAEXPAUWeaponInfo@@I@Z PROC ; std::allocator<WeaponInfo>::deallocate, COMDAT
; _this$ = ecx

; 181  : 		{	// deallocate object at _Ptr, ignore size

  00000	55		 push	 ebp
  00001	8b ec		 mov	 ebp, esp

; 182  : 		::operator delete(_Ptr);

  00003	ff 75 08	 push	 DWORD PTR __Ptr$[ebp]
  00006	e8 00 00 00 00	 call	 ??3@YAXPAX@Z		; operator delete
  0000b	59		 pop	 ecx

; 183  : 		}

  0000c	5d		 pop	 ebp
  0000d	c2 08 00	 ret	 8
?deallocate@?$allocator@UWeaponInfo@@@std@@QAEXPAUWeaponInfo@@I@Z ENDP ; std::allocator<WeaponInfo>::deallocate
_TEXT	ENDS
PUBLIC	??0?$allocator@UForceInfo@@@std@@QAE@ABV01@@Z	; std::allocator<ForceInfo>::allocator<ForceInfo>
; Function compile flags: /Ogsp
;	COMDAT ??0?$allocator@UForceInfo@@@std@@QAE@ABV01@@Z
_TEXT	SEGMENT
___formal$ = 8						; size = 4
??0?$allocator@UForceInfo@@@std@@QAE@ABV01@@Z PROC	; std::allocator<ForceInfo>::allocator<ForceInfo>, COMDAT
; _this$ = ecx

; 165  : 	_ALLOCATOR(const _ALLOCATOR<_Ty>&) _THROW0()

  00000	8b c1		 mov	 eax, ecx

; 166  : 		{	// construct by copying (do nothing)
; 167  : 		}

  00002	c2 04 00	 ret	 4
??0?$allocator@UForceInfo@@@std@@QAE@ABV01@@Z ENDP	; std::allocator<ForceInfo>::allocator<ForceInfo>
_TEXT	ENDS
PUBLIC	?deallocate@?$allocator@UForceInfo@@@std@@QAEXPAUForceInfo@@I@Z ; std::allocator<ForceInfo>::deallocate
; Function compile flags: /Ogsp
;	COMDAT ?deallocate@?$allocator@UForceInfo@@@std@@QAEXPAUForceInfo@@I@Z
_TEXT	SEGMENT
__Ptr$ = 8						; size = 4
___formal$ = 12						; size = 4
?deallocate@?$allocator@UForceInfo@@@std@@QAEXPAUForceInfo@@I@Z PROC ; std::allocator<ForceInfo>::deallocate, COMDAT
; _this$ = ecx

; 181  : 		{	// deallocate object at _Ptr, ignore size

  00000	55		 push	 ebp
  00001	8b ec		 mov	 ebp, esp

; 182  : 		::operator delete(_Ptr);

  00003	ff 75 08	 push	 DWORD PTR __Ptr$[ebp]
  00006	e8 00 00 00 00	 call	 ??3@YAXPAX@Z		; operator delete
  0000b	59		 pop	 ecx

; 183  : 		}

  0000c	5d		 pop	 ebp
  0000d	c2 08 00	 ret	 8
?deallocate@?$allocator@UForceInfo@@@std@@QAEXPAUForceInfo@@I@Z ENDP ; std::allocator<ForceInfo>::deallocate
_TEXT	ENDS
PUBLIC	??0?$allocator@UAttackAttribute@@@std@@QAE@ABV01@@Z ; std::allocator<AttackAttribute>::allocator<AttackAttribute>
; Function compile flags: /Ogsp
;	COMDAT ??0?$allocator@UAttackAttribute@@@std@@QAE@ABV01@@Z
_TEXT	SEGMENT
___formal$ = 8						; size = 4
??0?$allocator@UAttackAttribute@@@std@@QAE@ABV01@@Z PROC ; std::allocator<AttackAttribute>::allocator<AttackAttribute>, COMDAT
; _this$ = ecx

; 165  : 	_ALLOCATOR(const _ALLOCATOR<_Ty>&) _THROW0()

  00000	8b c1		 mov	 eax, ecx

; 166  : 		{	// construct by copying (do nothing)
; 167  : 		}

  00002	c2 04 00	 ret	 4
??0?$allocator@UAttackAttribute@@@std@@QAE@ABV01@@Z ENDP ; std::allocator<AttackAttribute>::allocator<AttackAttribute>
_TEXT	ENDS
PUBLIC	?deallocate@?$allocator@UAttackAttribute@@@std@@QAEXPAUAttackAttribute@@I@Z ; std::allocator<AttackAttribute>::deallocate
; Function compile flags: /Ogsp
;	COMDAT ?deallocate@?$allocator@UAttackAttribute@@@std@@QAEXPAUAttackAttribute@@I@Z
_TEXT	SEGMENT
__Ptr$ = 8						; size = 4
___formal$ = 12						; size = 4
?deallocate@?$allocator@UAttackAttribute@@@std@@QAEXPAUAttackAttribute@@I@Z PROC ; std::allocator<AttackAttribute>::deallocate, COMDAT
; _this$ = ecx

; 181  : 		{	// deallocate object at _Ptr, ignore size

  00000	55		 push	 ebp
  00001	8b ec		 mov	 ebp, esp

; 182  : 		::operator delete(_Ptr);

  00003	ff 75 08	 push	 DWORD PTR __Ptr$[ebp]
  00006	e8 00 00 00 00	 call	 ??3@YAXPAX@Z		; operator delete
  0000b	59		 pop	 ecx

; 183  : 		}

  0000c	5d		 pop	 ebp
  0000d	c2 08 00	 ret	 8
?deallocate@?$allocator@UAttackAttribute@@@std@@QAEXPAUAttackAttribute@@I@Z ENDP ; std::allocator<AttackAttribute>::deallocate
_TEXT	ENDS
PUBLIC	??0?$_Vector_const_iterator@V?$_Vector_val@UAttackAttribute@@V?$allocator@UAttackAttribute@@@std@@@std@@@std@@QAE@PAUAttackAttribute@@PBU_Container_base0@1@@Z ; std::_Vector_const_iterator<std::_Vector_val<AttackAttribute,std::allocator<AttackAttribute> > >::_Vector_const_iterator<std::_Vector_val<AttackAttribute,std::allocator<AttackAttribute> > >
; Function compile flags: /Ogsp
; File c:\program files (x86)\microsoft visual studio 10.0\vc\include\vector
;	COMDAT ??0?$_Vector_const_iterator@V?$_Vector_val@UAttackAttribute@@V?$allocator@UAttackAttribute@@@std@@@std@@@std@@QAE@PAUAttackAttribute@@PBU_Container_base0@1@@Z
_TEXT	SEGMENT
__Parg$ = 8						; size = 4
__Pvector$ = 12						; size = 4
??0?$_Vector_const_iterator@V?$_Vector_val@UAttackAttribute@@V?$allocator@UAttackAttribute@@@std@@@std@@@std@@QAE@PAUAttackAttribute@@PBU_Container_base0@1@@Z PROC ; std::_Vector_const_iterator<std::_Vector_val<AttackAttribute,std::allocator<AttackAttribute> > >::_Vector_const_iterator<std::_Vector_val<AttackAttribute,std::allocator<AttackAttribute> > >, COMDAT
; _this$ = ecx

; 45   : 		{	// construct with pointer _Parg

  00000	55		 push	 ebp
  00001	8b ec		 mov	 ebp, esp
  00003	8b c1		 mov	 eax, ecx
  00005	8b 4d 08	 mov	 ecx, DWORD PTR __Parg$[ebp]
  00008	89 08		 mov	 DWORD PTR [eax], ecx

; 46   : 		this->_Adopt(_Pvector);
; 47   : 		}

  0000a	5d		 pop	 ebp
  0000b	c2 08 00	 ret	 8
??0?$_Vector_const_iterator@V?$_Vector_val@UAttackAttribute@@V?$allocator@UAttackAttribute@@@std@@@std@@@std@@QAE@PAUAttackAttribute@@PBU_Container_base0@1@@Z ENDP ; std::_Vector_const_iterator<std::_Vector_val<AttackAttribute,std::allocator<AttackAttribute> > >::_Vector_const_iterator<std::_Vector_val<AttackAttribute,std::allocator<AttackAttribute> > >
_TEXT	ENDS
PUBLIC	?_Compat@?$_Vector_const_iterator@V?$_Vector_val@UAttackAttribute@@V?$allocator@UAttackAttribute@@@std@@@std@@@std@@QBEXABV12@@Z ; std::_Vector_const_iterator<std::_Vector_val<AttackAttribute,std::allocator<AttackAttribute> > >::_Compat
; Function compile flags: /Ogsp
;	COMDAT ?_Compat@?$_Vector_const_iterator@V?$_Vector_val@UAttackAttribute@@V?$allocator@UAttackAttribute@@@std@@@std@@@std@@QBEXABV12@@Z
_TEXT	SEGMENT
___formal$ = 8						; size = 4
?_Compat@?$_Vector_const_iterator@V?$_Vector_val@UAttackAttribute@@V?$allocator@UAttackAttribute@@@std@@@std@@@std@@QBEXABV12@@Z PROC ; std::_Vector_const_iterator<std::_Vector_val<AttackAttribute,std::allocator<AttackAttribute> > >::_Compat, COMDAT
; _this$ = ecx

; 253  : 		}

  00000	c2 04 00	 ret	 4
?_Compat@?$_Vector_const_iterator@V?$_Vector_val@UAttackAttribute@@V?$allocator@UAttackAttribute@@@std@@@std@@@std@@QBEXABV12@@Z ENDP ; std::_Vector_const_iterator<std::_Vector_val<AttackAttribute,std::allocator<AttackAttribute> > >::_Compat
_TEXT	ENDS
EXTRN	__imp_??0exception@std@@QAE@ABV01@@Z:PROC
; Function compile flags: /Ogsp
;	COMDAT ??0bad_alloc@std@@QAE@ABV01@@Z
_TEXT	SEGMENT
___that$ = 8						; size = 4
??0bad_alloc@std@@QAE@ABV01@@Z PROC			; std::bad_alloc::bad_alloc, COMDAT
; _this$ = ecx
  00000	55		 push	 ebp
  00001	8b ec		 mov	 ebp, esp
  00003	56		 push	 esi
  00004	ff 75 08	 push	 DWORD PTR ___that$[ebp]
  00007	8b f1		 mov	 esi, ecx
  00009	ff 15 00 00 00
	00		 call	 DWORD PTR __imp_??0exception@std@@QAE@ABV01@@Z
  0000f	c7 06 00 00 00
	00		 mov	 DWORD PTR [esi], OFFSET ??_7bad_alloc@std@@6B@
  00015	8b c6		 mov	 eax, esi
  00017	5e		 pop	 esi
  00018	5d		 pop	 ebp
  00019	c2 04 00	 ret	 4
??0bad_alloc@std@@QAE@ABV01@@Z ENDP			; std::bad_alloc::bad_alloc
_TEXT	ENDS
PUBLIC	??$_Ptr_cat@UAttackAttribute@@U1@@std@@YA?AU_Nonscalar_ptr_iterator_tag@0@PAUAttackAttribute@@0@Z ; std::_Ptr_cat<AttackAttribute,AttackAttribute>
; Function compile flags: /Ogsp
; File c:\program files (x86)\microsoft visual studio 10.0\vc\include\xutility
;	COMDAT ??$_Ptr_cat@UAttackAttribute@@U1@@std@@YA?AU_Nonscalar_ptr_iterator_tag@0@PAUAttackAttribute@@0@Z
_TEXT	SEGMENT
__Cat$ = -1						; size = 1
___formal$ = 8						; size = 4
___formal$ = 12						; size = 4
??$_Ptr_cat@UAttackAttribute@@U1@@std@@YA?AU_Nonscalar_ptr_iterator_tag@0@PAUAttackAttribute@@0@Z PROC ; std::_Ptr_cat<AttackAttribute,AttackAttribute>, COMDAT

; 516  : 	{	// return pointer category from pointers

  00000	55		 push	 ebp
  00001	8b ec		 mov	 ebp, esp
  00003	51		 push	 ecx

; 517  : 	typename _Ptr_cat_helper<_Elem1, _Elem2>::_Type _Cat;
; 518  : 	return (_Cat);

  00004	8a 45 ff	 mov	 al, BYTE PTR __Cat$[ebp]

; 519  : 	}

  00007	c9		 leave
  00008	c3		 ret	 0
??$_Ptr_cat@UAttackAttribute@@U1@@std@@YA?AU_Nonscalar_ptr_iterator_tag@0@PAUAttackAttribute@@0@Z ENDP ; std::_Ptr_cat<AttackAttribute,AttackAttribute>
_TEXT	ENDS
PUBLIC	??$_Ptr_cat@UWeaponInfo@@U1@@std@@YA?AU_Nonscalar_ptr_iterator_tag@0@PAUWeaponInfo@@0@Z ; std::_Ptr_cat<WeaponInfo,WeaponInfo>
; Function compile flags: /Ogsp
;	COMDAT ??$_Ptr_cat@UWeaponInfo@@U1@@std@@YA?AU_Nonscalar_ptr_iterator_tag@0@PAUWeaponInfo@@0@Z
_TEXT	SEGMENT
__Cat$ = -1						; size = 1
___formal$ = 8						; size = 4
___formal$ = 12						; size = 4
??$_Ptr_cat@UWeaponInfo@@U1@@std@@YA?AU_Nonscalar_ptr_iterator_tag@0@PAUWeaponInfo@@0@Z PROC ; std::_Ptr_cat<WeaponInfo,WeaponInfo>, COMDAT

; 516  : 	{	// return pointer category from pointers

  00000	55		 push	 ebp
  00001	8b ec		 mov	 ebp, esp
  00003	51		 push	 ecx

; 517  : 	typename _Ptr_cat_helper<_Elem1, _Elem2>::_Type _Cat;
; 518  : 	return (_Cat);

  00004	8a 45 ff	 mov	 al, BYTE PTR __Cat$[ebp]

; 519  : 	}

  00007	c9		 leave
  00008	c3		 ret	 0
??$_Ptr_cat@UWeaponInfo@@U1@@std@@YA?AU_Nonscalar_ptr_iterator_tag@0@PAUWeaponInfo@@0@Z ENDP ; std::_Ptr_cat<WeaponInfo,WeaponInfo>
_TEXT	ENDS
PUBLIC	??$_Ptr_cat@UForceInfo@@U1@@std@@YA?AU_Nonscalar_ptr_iterator_tag@0@PAUForceInfo@@0@Z ; std::_Ptr_cat<ForceInfo,ForceInfo>
; Function compile flags: /Ogsp
;	COMDAT ??$_Ptr_cat@UForceInfo@@U1@@std@@YA?AU_Nonscalar_ptr_iterator_tag@0@PAUForceInfo@@0@Z
_TEXT	SEGMENT
__Cat$ = -1						; size = 1
___formal$ = 8						; size = 4
___formal$ = 12						; size = 4
??$_Ptr_cat@UForceInfo@@U1@@std@@YA?AU_Nonscalar_ptr_iterator_tag@0@PAUForceInfo@@0@Z PROC ; std::_Ptr_cat<ForceInfo,ForceInfo>, COMDAT

; 516  : 	{	// return pointer category from pointers

  00000	55		 push	 ebp
  00001	8b ec		 mov	 ebp, esp
  00003	51		 push	 ecx

; 517  : 	typename _Ptr_cat_helper<_Elem1, _Elem2>::_Type _Cat;
; 518  : 	return (_Cat);

  00004	8a 45 ff	 mov	 al, BYTE PTR __Cat$[ebp]

; 519  : 	}

  00007	c9		 leave
  00008	c3		 ret	 0
??$_Ptr_cat@UForceInfo@@U1@@std@@YA?AU_Nonscalar_ptr_iterator_tag@0@PAUForceInfo@@0@Z ENDP ; std::_Ptr_cat<ForceInfo,ForceInfo>
_TEXT	ENDS
PUBLIC	?capacity@?$vector@UWeaponInfo@@V?$allocator@UWeaponInfo@@@std@@@std@@QBEIXZ ; std::vector<WeaponInfo,std::allocator<WeaponInfo> >::capacity
; Function compile flags: /Ogsp
; File c:\program files (x86)\microsoft visual studio 10.0\vc\include\vector
;	COMDAT ?capacity@?$vector@UWeaponInfo@@V?$allocator@UWeaponInfo@@@std@@@std@@QBEIXZ
_TEXT	SEGMENT
?capacity@?$vector@UWeaponInfo@@V?$allocator@UWeaponInfo@@@std@@@std@@QBEIXZ PROC ; std::vector<WeaponInfo,std::allocator<WeaponInfo> >::capacity, COMDAT
; _this$ = ecx

; 777  : 		return (this->_Myend - this->_Myfirst);

  00000	8b 41 08	 mov	 eax, DWORD PTR [ecx+8]
  00003	2b 01		 sub	 eax, DWORD PTR [ecx]
  00005	6a 28		 push	 40			; 00000028H
  00007	99		 cdq
  00008	59		 pop	 ecx
  00009	f7 f9		 idiv	 ecx

; 778  : 		}

  0000b	c3		 ret	 0
?capacity@?$vector@UWeaponInfo@@V?$allocator@UWeaponInfo@@@std@@@std@@QBEIXZ ENDP ; std::vector<WeaponInfo,std::allocator<WeaponInfo> >::capacity
_TEXT	ENDS
PUBLIC	?size@?$vector@UWeaponInfo@@V?$allocator@UWeaponInfo@@@std@@@std@@QBEIXZ ; std::vector<WeaponInfo,std::allocator<WeaponInfo> >::size
; Function compile flags: /Ogsp
;	COMDAT ?size@?$vector@UWeaponInfo@@V?$allocator@UWeaponInfo@@@std@@@std@@QBEIXZ
_TEXT	SEGMENT
?size@?$vector@UWeaponInfo@@V?$allocator@UWeaponInfo@@@std@@@std@@QBEIXZ PROC ; std::vector<WeaponInfo,std::allocator<WeaponInfo> >::size, COMDAT
; _this$ = ecx

; 879  : 		return (this->_Mylast - this->_Myfirst);

  00000	8b 41 04	 mov	 eax, DWORD PTR [ecx+4]
  00003	2b 01		 sub	 eax, DWORD PTR [ecx]
  00005	6a 28		 push	 40			; 00000028H
  00007	99		 cdq
  00008	59		 pop	 ecx
  00009	f7 f9		 idiv	 ecx

; 880  : 		}

  0000b	c3		 ret	 0
?size@?$vector@UWeaponInfo@@V?$allocator@UWeaponInfo@@@std@@@std@@QBEIXZ ENDP ; std::vector<WeaponInfo,std::allocator<WeaponInfo> >::size
_TEXT	ENDS
PUBLIC	?capacity@?$vector@UForceInfo@@V?$allocator@UForceInfo@@@std@@@std@@QBEIXZ ; std::vector<ForceInfo,std::allocator<ForceInfo> >::capacity
; Function compile flags: /Ogsp
;	COMDAT ?capacity@?$vector@UForceInfo@@V?$allocator@UForceInfo@@@std@@@std@@QBEIXZ
_TEXT	SEGMENT
?capacity@?$vector@UForceInfo@@V?$allocator@UForceInfo@@@std@@@std@@QBEIXZ PROC ; std::vector<ForceInfo,std::allocator<ForceInfo> >::capacity, COMDAT
; _this$ = ecx

; 777  : 		return (this->_Myend - this->_Myfirst);

  00000	8b 41 08	 mov	 eax, DWORD PTR [ecx+8]
  00003	2b 01		 sub	 eax, DWORD PTR [ecx]
  00005	6a 0c		 push	 12			; 0000000cH
  00007	99		 cdq
  00008	59		 pop	 ecx
  00009	f7 f9		 idiv	 ecx

; 778  : 		}

  0000b	c3		 ret	 0
?capacity@?$vector@UForceInfo@@V?$allocator@UForceInfo@@@std@@@std@@QBEIXZ ENDP ; std::vector<ForceInfo,std::allocator<ForceInfo> >::capacity
_TEXT	ENDS
PUBLIC	?size@?$vector@UForceInfo@@V?$allocator@UForceInfo@@@std@@@std@@QBEIXZ ; std::vector<ForceInfo,std::allocator<ForceInfo> >::size
; Function compile flags: /Ogsp
;	COMDAT ?size@?$vector@UForceInfo@@V?$allocator@UForceInfo@@@std@@@std@@QBEIXZ
_TEXT	SEGMENT
?size@?$vector@UForceInfo@@V?$allocator@UForceInfo@@@std@@@std@@QBEIXZ PROC ; std::vector<ForceInfo,std::allocator<ForceInfo> >::size, COMDAT
; _this$ = ecx

; 879  : 		return (this->_Mylast - this->_Myfirst);

  00000	8b 41 04	 mov	 eax, DWORD PTR [ecx+4]
  00003	2b 01		 sub	 eax, DWORD PTR [ecx]
  00005	6a 0c		 push	 12			; 0000000cH
  00007	99		 cdq
  00008	59		 pop	 ecx
  00009	f7 f9		 idiv	 ecx

; 880  : 		}

  0000b	c3		 ret	 0
?size@?$vector@UForceInfo@@V?$allocator@UForceInfo@@@std@@@std@@QBEIXZ ENDP ; std::vector<ForceInfo,std::allocator<ForceInfo> >::size
_TEXT	ENDS
PUBLIC	?_Xlen@?$vector@UWeaponInfo@@V?$allocator@UWeaponInfo@@@std@@@std@@IBEXXZ ; std::vector<WeaponInfo,std::allocator<WeaponInfo> >::_Xlen
; Function compile flags: /Ogsp
;	COMDAT ?_Xlen@?$vector@UWeaponInfo@@V?$allocator@UWeaponInfo@@@std@@@std@@IBEXXZ
_TEXT	SEGMENT
?_Xlen@?$vector@UWeaponInfo@@V?$allocator@UWeaponInfo@@@std@@@std@@IBEXXZ PROC ; std::vector<WeaponInfo,std::allocator<WeaponInfo> >::_Xlen, COMDAT
; _this$ = ecx

; 1427 : 		_Xlength_error("vector<T> too long");

  00000	68 00 00 00 00	 push	 OFFSET ??_C@_0BD@OLBABOEK@vector?$DMT?$DO?5too?5long?$AA@
  00005	ff 15 00 00 00
	00		 call	 DWORD PTR __imp_?_Xlength_error@std@@YAXPBD@Z
$LN4@Xlen@2:
$LN3@Xlen@2:
  0000b	cc		 int	 3
?_Xlen@?$vector@UWeaponInfo@@V?$allocator@UWeaponInfo@@@std@@@std@@IBEXXZ ENDP ; std::vector<WeaponInfo,std::allocator<WeaponInfo> >::_Xlen
_TEXT	ENDS
PUBLIC	?_Xlen@?$vector@UForceInfo@@V?$allocator@UForceInfo@@@std@@@std@@IBEXXZ ; std::vector<ForceInfo,std::allocator<ForceInfo> >::_Xlen
; Function compile flags: /Ogsp
;	COMDAT ?_Xlen@?$vector@UForceInfo@@V?$allocator@UForceInfo@@@std@@@std@@IBEXXZ
_TEXT	SEGMENT
?_Xlen@?$vector@UForceInfo@@V?$allocator@UForceInfo@@@std@@@std@@IBEXXZ PROC ; std::vector<ForceInfo,std::allocator<ForceInfo> >::_Xlen, COMDAT
; _this$ = ecx

; 1427 : 		_Xlength_error("vector<T> too long");

  00000	68 00 00 00 00	 push	 OFFSET ??_C@_0BD@OLBABOEK@vector?$DMT?$DO?5too?5long?$AA@
  00005	ff 15 00 00 00
	00		 call	 DWORD PTR __imp_?_Xlength_error@std@@YAXPBD@Z
$LN4@Xlen@3:
$LN3@Xlen@3:
  0000b	cc		 int	 3
?_Xlen@?$vector@UForceInfo@@V?$allocator@UForceInfo@@@std@@@std@@IBEXXZ ENDP ; std::vector<ForceInfo,std::allocator<ForceInfo> >::_Xlen
_TEXT	ENDS
PUBLIC	?max_size@?$allocator@UWeaponInfo@@@std@@QBEIXZ	; std::allocator<WeaponInfo>::max_size
; Function compile flags: /Ogsp
; File c:\program files (x86)\microsoft visual studio 10.0\vc\include\xmemory
;	COMDAT ?max_size@?$allocator@UWeaponInfo@@@std@@QBEIXZ
_TEXT	SEGMENT
?max_size@?$allocator@UWeaponInfo@@@std@@QBEIXZ PROC	; std::allocator<WeaponInfo>::max_size, COMDAT
; _this$ = ecx

; 218  : 		_SIZT _Count = (_SIZT)(-1) / sizeof (_Ty);
; 219  : 		return (0 < _Count ? _Count : 1);

  00000	b8 66 66 66 06	 mov	 eax, 107374182		; 06666666H

; 220  : 		}

  00005	c3		 ret	 0
?max_size@?$allocator@UWeaponInfo@@@std@@QBEIXZ ENDP	; std::allocator<WeaponInfo>::max_size
_TEXT	ENDS
PUBLIC	?max_size@?$allocator@UForceInfo@@@std@@QBEIXZ	; std::allocator<ForceInfo>::max_size
; Function compile flags: /Ogsp
;	COMDAT ?max_size@?$allocator@UForceInfo@@@std@@QBEIXZ
_TEXT	SEGMENT
?max_size@?$allocator@UForceInfo@@@std@@QBEIXZ PROC	; std::allocator<ForceInfo>::max_size, COMDAT
; _this$ = ecx

; 218  : 		_SIZT _Count = (_SIZT)(-1) / sizeof (_Ty);
; 219  : 		return (0 < _Count ? _Count : 1);

  00000	b8 55 55 55 15	 mov	 eax, 357913941		; 15555555H

; 220  : 		}

  00005	c3		 ret	 0
?max_size@?$allocator@UForceInfo@@@std@@QBEIXZ ENDP	; std::allocator<ForceInfo>::max_size
_TEXT	ENDS
PUBLIC	??0?$_Vector_const_iterator@V?$_Vector_val@UWeaponInfo@@V?$allocator@UWeaponInfo@@@std@@@std@@@std@@QAE@PAUWeaponInfo@@PBU_Container_base0@1@@Z ; std::_Vector_const_iterator<std::_Vector_val<WeaponInfo,std::allocator<WeaponInfo> > >::_Vector_const_iterator<std::_Vector_val<WeaponInfo,std::allocator<WeaponInfo> > >
; Function compile flags: /Ogsp
; File c:\program files (x86)\microsoft visual studio 10.0\vc\include\vector
;	COMDAT ??0?$_Vector_const_iterator@V?$_Vector_val@UWeaponInfo@@V?$allocator@UWeaponInfo@@@std@@@std@@@std@@QAE@PAUWeaponInfo@@PBU_Container_base0@1@@Z
_TEXT	SEGMENT
__Parg$ = 8						; size = 4
__Pvector$ = 12						; size = 4
??0?$_Vector_const_iterator@V?$_Vector_val@UWeaponInfo@@V?$allocator@UWeaponInfo@@@std@@@std@@@std@@QAE@PAUWeaponInfo@@PBU_Container_base0@1@@Z PROC ; std::_Vector_const_iterator<std::_Vector_val<WeaponInfo,std::allocator<WeaponInfo> > >::_Vector_const_iterator<std::_Vector_val<WeaponInfo,std::allocator<WeaponInfo> > >, COMDAT
; _this$ = ecx

; 45   : 		{	// construct with pointer _Parg

  00000	55		 push	 ebp
  00001	8b ec		 mov	 ebp, esp
  00003	8b c1		 mov	 eax, ecx
  00005	8b 4d 08	 mov	 ecx, DWORD PTR __Parg$[ebp]
  00008	89 08		 mov	 DWORD PTR [eax], ecx

; 46   : 		this->_Adopt(_Pvector);
; 47   : 		}

  0000a	5d		 pop	 ebp
  0000b	c2 08 00	 ret	 8
??0?$_Vector_const_iterator@V?$_Vector_val@UWeaponInfo@@V?$allocator@UWeaponInfo@@@std@@@std@@@std@@QAE@PAUWeaponInfo@@PBU_Container_base0@1@@Z ENDP ; std::_Vector_const_iterator<std::_Vector_val<WeaponInfo,std::allocator<WeaponInfo> > >::_Vector_const_iterator<std::_Vector_val<WeaponInfo,std::allocator<WeaponInfo> > >
_TEXT	ENDS
PUBLIC	??0?$_Vector_const_iterator@V?$_Vector_val@UForceInfo@@V?$allocator@UForceInfo@@@std@@@std@@@std@@QAE@PAUForceInfo@@PBU_Container_base0@1@@Z ; std::_Vector_const_iterator<std::_Vector_val<ForceInfo,std::allocator<ForceInfo> > >::_Vector_const_iterator<std::_Vector_val<ForceInfo,std::allocator<ForceInfo> > >
; Function compile flags: /Ogsp
;	COMDAT ??0?$_Vector_const_iterator@V?$_Vector_val@UForceInfo@@V?$allocator@UForceInfo@@@std@@@std@@@std@@QAE@PAUForceInfo@@PBU_Container_base0@1@@Z
_TEXT	SEGMENT
__Parg$ = 8						; size = 4
__Pvector$ = 12						; size = 4
??0?$_Vector_const_iterator@V?$_Vector_val@UForceInfo@@V?$allocator@UForceInfo@@@std@@@std@@@std@@QAE@PAUForceInfo@@PBU_Container_base0@1@@Z PROC ; std::_Vector_const_iterator<std::_Vector_val<ForceInfo,std::allocator<ForceInfo> > >::_Vector_const_iterator<std::_Vector_val<ForceInfo,std::allocator<ForceInfo> > >, COMDAT
; _this$ = ecx

; 45   : 		{	// construct with pointer _Parg

  00000	55		 push	 ebp
  00001	8b ec		 mov	 ebp, esp
  00003	8b c1		 mov	 eax, ecx
  00005	8b 4d 08	 mov	 ecx, DWORD PTR __Parg$[ebp]
  00008	89 08		 mov	 DWORD PTR [eax], ecx

; 46   : 		this->_Adopt(_Pvector);
; 47   : 		}

  0000a	5d		 pop	 ebp
  0000b	c2 08 00	 ret	 8
??0?$_Vector_const_iterator@V?$_Vector_val@UForceInfo@@V?$allocator@UForceInfo@@@std@@@std@@@std@@QAE@PAUForceInfo@@PBU_Container_base0@1@@Z ENDP ; std::_Vector_const_iterator<std::_Vector_val<ForceInfo,std::allocator<ForceInfo> > >::_Vector_const_iterator<std::_Vector_val<ForceInfo,std::allocator<ForceInfo> > >
_TEXT	ENDS
PUBLIC	?_Compat@?$_Vector_const_iterator@V?$_Vector_val@UWeaponInfo@@V?$allocator@UWeaponInfo@@@std@@@std@@@std@@QBEXABV12@@Z ; std::_Vector_const_iterator<std::_Vector_val<WeaponInfo,std::allocator<WeaponInfo> > >::_Compat
; Function compile flags: /Ogsp
;	COMDAT ?_Compat@?$_Vector_const_iterator@V?$_Vector_val@UWeaponInfo@@V?$allocator@UWeaponInfo@@@std@@@std@@@std@@QBEXABV12@@Z
_TEXT	SEGMENT
___formal$ = 8						; size = 4
?_Compat@?$_Vector_const_iterator@V?$_Vector_val@UWeaponInfo@@V?$allocator@UWeaponInfo@@@std@@@std@@@std@@QBEXABV12@@Z PROC ; std::_Vector_const_iterator<std::_Vector_val<WeaponInfo,std::allocator<WeaponInfo> > >::_Compat, COMDAT
; _this$ = ecx

; 253  : 		}

  00000	c2 04 00	 ret	 4
?_Compat@?$_Vector_const_iterator@V?$_Vector_val@UWeaponInfo@@V?$allocator@UWeaponInfo@@@std@@@std@@@std@@QBEXABV12@@Z ENDP ; std::_Vector_const_iterator<std::_Vector_val<WeaponInfo,std::allocator<WeaponInfo> > >::_Compat
_TEXT	ENDS
PUBLIC	?_Compat@?$_Vector_const_iterator@V?$_Vector_val@UForceInfo@@V?$allocator@UForceInfo@@@std@@@std@@@std@@QBEXABV12@@Z ; std::_Vector_const_iterator<std::_Vector_val<ForceInfo,std::allocator<ForceInfo> > >::_Compat
; Function compile flags: /Ogsp
;	COMDAT ?_Compat@?$_Vector_const_iterator@V?$_Vector_val@UForceInfo@@V?$allocator@UForceInfo@@@std@@@std@@@std@@QBEXABV12@@Z
_TEXT	SEGMENT
___formal$ = 8						; size = 4
?_Compat@?$_Vector_const_iterator@V?$_Vector_val@UForceInfo@@V?$allocator@UForceInfo@@@std@@@std@@@std@@QBEXABV12@@Z PROC ; std::_Vector_const_iterator<std::_Vector_val<ForceInfo,std::allocator<ForceInfo> > >::_Compat, COMDAT
; _this$ = ecx

; 253  : 		}

  00000	c2 04 00	 ret	 4
?_Compat@?$_Vector_const_iterator@V?$_Vector_val@UForceInfo@@V?$allocator@UForceInfo@@@std@@@std@@@std@@QBEXABV12@@Z ENDP ; std::_Vector_const_iterator<std::_Vector_val<ForceInfo,std::allocator<ForceInfo> > >::_Compat
_TEXT	ENDS
PUBLIC	??$move@AAUAttackAttribute@@@std@@YA$$QAUAttackAttribute@@AAU1@@Z ; std::move<AttackAttribute &>
; Function compile flags: /Ogsp
; File c:\program files (x86)\microsoft visual studio 10.0\vc\include\utility
;	COMDAT ??$move@AAUAttackAttribute@@@std@@YA$$QAUAttackAttribute@@AAU1@@Z
_TEXT	SEGMENT
__Arg$ = 8						; size = 4
??$move@AAUAttackAttribute@@@std@@YA$$QAUAttackAttribute@@AAU1@@Z PROC ; std::move<AttackAttribute &>, COMDAT

; 86   : 	{	// forward _Arg as movable

  00000	55		 push	 ebp
  00001	8b ec		 mov	 ebp, esp

; 87   : 	return ((typename tr1::_Remove_reference<_Ty>::_Type&&)_Arg);

  00003	8b 45 08	 mov	 eax, DWORD PTR __Arg$[ebp]

; 88   : 	}

  00006	5d		 pop	 ebp
  00007	c3		 ret	 0
??$move@AAUAttackAttribute@@@std@@YA$$QAUAttackAttribute@@AAU1@@Z ENDP ; std::move<AttackAttribute &>
_TEXT	ENDS
PUBLIC	??$_Allocate@UWeaponInfo@@@std@@YAPAUWeaponInfo@@IPAU1@@Z ; std::_Allocate<WeaponInfo>
; Function compile flags: /Ogsp
; File c:\program files (x86)\microsoft visual studio 10.0\vc\include\xmemory
;	COMDAT ??$_Allocate@UWeaponInfo@@@std@@YAPAUWeaponInfo@@IPAU1@@Z
_TEXT	SEGMENT
$T615239 = -12						; size = 12
$T615243 = 8						; size = 4
__Count$ = 8						; size = 4
___formal$ = 12						; size = 4
??$_Allocate@UWeaponInfo@@@std@@YAPAUWeaponInfo@@IPAU1@@Z PROC ; std::_Allocate<WeaponInfo>, COMDAT

; 30   : 	{	// allocate storage for _Count elements of type _Ty

  00000	55		 push	 ebp
  00001	8b ec		 mov	 ebp, esp

; 31   : 	void *_Ptr = 0;
; 32   : 
; 33   : 	if (_Count <= 0)

  00003	8b 4d 08	 mov	 ecx, DWORD PTR __Count$[ebp]
  00006	83 ec 0c	 sub	 esp, 12			; 0000000cH
  00009	33 c0		 xor	 eax, eax
  0000b	85 c9		 test	 ecx, ecx

; 34   : 		_Count = 0;
; 35   : 	else if (((_SIZT)(-1) / sizeof (_Ty) < _Count)

  0000d	74 3c		 je	 SHORT $LN5@Allocate@2

; 36   : 		|| (_Ptr = ::operator new(_Count * sizeof (_Ty))) == 0)

  0000f	81 f9 66 66 66
	06		 cmp	 ecx, 107374182		; 06666666H
  00015	77 0e		 ja	 SHORT $LN1@Allocate@2
  00017	6b c9 28	 imul	 ecx, 40			; 00000028H
  0001a	51		 push	 ecx
  0001b	e8 00 00 00 00	 call	 ??2@YAPAXI@Z		; operator new
  00020	59		 pop	 ecx
  00021	85 c0		 test	 eax, eax

; 38   : 
; 39   : 	return ((_Ty _FARQ *)_Ptr);

  00023	75 26		 jne	 SHORT $LN5@Allocate@2
$LN1@Allocate@2:

; 37   : 		_THROW_NCEE(bad_alloc, 0);

  00025	83 65 08 00	 and	 DWORD PTR $T615243[ebp], 0
  00029	8d 45 08	 lea	 eax, DWORD PTR $T615243[ebp]
  0002c	50		 push	 eax
  0002d	8d 4d f4	 lea	 ecx, DWORD PTR $T615239[ebp]
  00030	ff 15 00 00 00
	00		 call	 DWORD PTR __imp_??0exception@std@@QAE@ABQBD@Z
  00036	68 00 00 00 00	 push	 OFFSET __TI2?AVbad_alloc@std@@
  0003b	8d 45 f4	 lea	 eax, DWORD PTR $T615239[ebp]
  0003e	50		 push	 eax
  0003f	c7 45 f4 00 00
	00 00		 mov	 DWORD PTR $T615239[ebp], OFFSET ??_7bad_alloc@std@@6B@
  00046	e8 00 00 00 00	 call	 __CxxThrowException@8
$LN10@Allocate@2:
$LN5@Allocate@2:

; 40   : 	}

  0004b	c9		 leave
  0004c	c3		 ret	 0
$LN9@Allocate@2:
??$_Allocate@UWeaponInfo@@@std@@YAPAUWeaponInfo@@IPAU1@@Z ENDP ; std::_Allocate<WeaponInfo>
_TEXT	ENDS
PUBLIC	??$_Allocate@UForceInfo@@@std@@YAPAUForceInfo@@IPAU1@@Z ; std::_Allocate<ForceInfo>
; Function compile flags: /Ogsp
;	COMDAT ??$_Allocate@UForceInfo@@@std@@YAPAUForceInfo@@IPAU1@@Z
_TEXT	SEGMENT
$T615248 = -12						; size = 12
$T615252 = 8						; size = 4
__Count$ = 8						; size = 4
___formal$ = 12						; size = 4
??$_Allocate@UForceInfo@@@std@@YAPAUForceInfo@@IPAU1@@Z PROC ; std::_Allocate<ForceInfo>, COMDAT

; 30   : 	{	// allocate storage for _Count elements of type _Ty

  00000	55		 push	 ebp
  00001	8b ec		 mov	 ebp, esp

; 31   : 	void *_Ptr = 0;
; 32   : 
; 33   : 	if (_Count <= 0)

  00003	8b 4d 08	 mov	 ecx, DWORD PTR __Count$[ebp]
  00006	83 ec 0c	 sub	 esp, 12			; 0000000cH
  00009	33 c0		 xor	 eax, eax
  0000b	85 c9		 test	 ecx, ecx

; 34   : 		_Count = 0;
; 35   : 	else if (((_SIZT)(-1) / sizeof (_Ty) < _Count)

  0000d	74 3c		 je	 SHORT $LN5@Allocate@3

; 36   : 		|| (_Ptr = ::operator new(_Count * sizeof (_Ty))) == 0)

  0000f	81 f9 55 55 55
	15		 cmp	 ecx, 357913941		; 15555555H
  00015	77 0e		 ja	 SHORT $LN1@Allocate@3
  00017	6b c9 0c	 imul	 ecx, 12			; 0000000cH
  0001a	51		 push	 ecx
  0001b	e8 00 00 00 00	 call	 ??2@YAPAXI@Z		; operator new
  00020	59		 pop	 ecx
  00021	85 c0		 test	 eax, eax

; 38   : 
; 39   : 	return ((_Ty _FARQ *)_Ptr);

  00023	75 26		 jne	 SHORT $LN5@Allocate@3
$LN1@Allocate@3:

; 37   : 		_THROW_NCEE(bad_alloc, 0);

  00025	83 65 08 00	 and	 DWORD PTR $T615252[ebp], 0
  00029	8d 45 08	 lea	 eax, DWORD PTR $T615252[ebp]
  0002c	50		 push	 eax
  0002d	8d 4d f4	 lea	 ecx, DWORD PTR $T615248[ebp]
  00030	ff 15 00 00 00
	00		 call	 DWORD PTR __imp_??0exception@std@@QAE@ABQBD@Z
  00036	68 00 00 00 00	 push	 OFFSET __TI2?AVbad_alloc@std@@
  0003b	8d 45 f4	 lea	 eax, DWORD PTR $T615248[ebp]
  0003e	50		 push	 eax
  0003f	c7 45 f4 00 00
	00 00		 mov	 DWORD PTR $T615248[ebp], OFFSET ??_7bad_alloc@std@@6B@
  00046	e8 00 00 00 00	 call	 __CxxThrowException@8
$LN10@Allocate@3:
$LN5@Allocate@3:

; 40   : 	}

  0004b	c9		 leave
  0004c	c3		 ret	 0
$LN9@Allocate@3:
??$_Allocate@UForceInfo@@@std@@YAPAUForceInfo@@IPAU1@@Z ENDP ; std::_Allocate<ForceInfo>
_TEXT	ENDS
PUBLIC	??$_Copy_impl@PAUForceInfo@@PAU1@@std@@YAPAUForceInfo@@PAU1@00U_Nonscalar_ptr_iterator_tag@0@@Z ; std::_Copy_impl<ForceInfo *,ForceInfo *>
; Function compile flags: /Ogsp
; File c:\program files (x86)\microsoft visual studio 10.0\vc\include\xutility
;	COMDAT ??$_Copy_impl@PAUForceInfo@@PAU1@@std@@YAPAUForceInfo@@PAU1@00U_Nonscalar_ptr_iterator_tag@0@@Z
_TEXT	SEGMENT
__First$ = 8						; size = 4
__Last$ = 12						; size = 4
__Dest$ = 16						; size = 4
___formal$ = 20						; size = 1
??$_Copy_impl@PAUForceInfo@@PAU1@@std@@YAPAUForceInfo@@PAU1@00U_Nonscalar_ptr_iterator_tag@0@@Z PROC ; std::_Copy_impl<ForceInfo *,ForceInfo *>, COMDAT

; 2142 : 	{	// copy [_First, _Last) to [_Dest, ...), arbitrary iterators

  00000	55		 push	 ebp
  00001	8b ec		 mov	 ebp, esp

; 2143 : 	for (; _First != _Last; ++_Dest, ++_First)

  00003	8b 45 08	 mov	 eax, DWORD PTR __First$[ebp]
  00006	3b 45 0c	 cmp	 eax, DWORD PTR __Last$[ebp]
  00009	74 18		 je	 SHORT $LN8@Copy_impl
  0000b	56		 push	 esi
  0000c	57		 push	 edi
$LL3@Copy_impl:

; 2144 : 		*_Dest = *_First;

  0000d	8b 7d 10	 mov	 edi, DWORD PTR __Dest$[ebp]
  00010	83 45 10 0c	 add	 DWORD PTR __Dest$[ebp], 12 ; 0000000cH
  00014	8b f0		 mov	 esi, eax
  00016	a5		 movsd
  00017	a5		 movsd
  00018	83 c0 0c	 add	 eax, 12			; 0000000cH
  0001b	a5		 movsd
  0001c	3b 45 0c	 cmp	 eax, DWORD PTR __Last$[ebp]
  0001f	75 ec		 jne	 SHORT $LL3@Copy_impl
  00021	5f		 pop	 edi
  00022	5e		 pop	 esi
$LN8@Copy_impl:

; 2145 : 	return (_Dest);

  00023	8b 45 10	 mov	 eax, DWORD PTR __Dest$[ebp]

; 2146 : 	}

  00026	5d		 pop	 ebp
  00027	c3		 ret	 0
??$_Copy_impl@PAUForceInfo@@PAU1@@std@@YAPAUForceInfo@@PAU1@00U_Nonscalar_ptr_iterator_tag@0@@Z ENDP ; std::_Copy_impl<ForceInfo *,ForceInfo *>
_TEXT	ENDS
PUBLIC	??$_Destroy@UForceInfo@@@std@@YAXPAUForceInfo@@@Z ; std::_Destroy<ForceInfo>
; Function compile flags: /Ogsp
; File c:\program files (x86)\microsoft visual studio 10.0\vc\include\xmemory
;	COMDAT ??$_Destroy@UForceInfo@@@std@@YAXPAUForceInfo@@@Z
_TEXT	SEGMENT
__Ptr$ = 8						; size = 4
??$_Destroy@UForceInfo@@@std@@YAXPAUForceInfo@@@Z PROC	; std::_Destroy<ForceInfo>, COMDAT

; 63   : 	_Ptr->~_Ty();
; 64   : 	}

  00000	c3		 ret	 0
??$_Destroy@UForceInfo@@@std@@YAXPAUForceInfo@@@Z ENDP	; std::_Destroy<ForceInfo>
_TEXT	ENDS
PUBLIC	??4WeaponInfo@@QAEAAU0@ABU0@@Z			; WeaponInfo::operator=
EXTRN	__imp_??4ioHashString@@QAEAAV0@ABV0@@Z:PROC
; Function compile flags: /Ogsp
;	COMDAT ??4WeaponInfo@@QAEAAU0@ABU0@@Z
_TEXT	SEGMENT
___that$ = 8						; size = 4
??4WeaponInfo@@QAEAAU0@ABU0@@Z PROC			; WeaponInfo::operator=, COMDAT
; _this$ = ecx
  00000	55		 push	 ebp
  00001	8b ec		 mov	 ebp, esp
  00003	56		 push	 esi
  00004	57		 push	 edi
  00005	8b 7d 08	 mov	 edi, DWORD PTR ___that$[ebp]
  00008	8b 07		 mov	 eax, DWORD PTR [edi]
  0000a	8b f1		 mov	 esi, ecx
  0000c	89 06		 mov	 DWORD PTR [esi], eax
  0000e	8b 47 04	 mov	 eax, DWORD PTR [edi+4]
  00011	89 46 04	 mov	 DWORD PTR [esi+4], eax
  00014	8d 47 08	 lea	 eax, DWORD PTR [edi+8]
  00017	50		 push	 eax
  00018	8d 4e 08	 lea	 ecx, DWORD PTR [esi+8]
  0001b	ff 15 00 00 00
	00		 call	 DWORD PTR __imp_??4ioHashString@@QAEAAV0@ABV0@@Z
  00021	8b 47 18	 mov	 eax, DWORD PTR [edi+24]
  00024	89 46 18	 mov	 DWORD PTR [esi+24], eax
  00027	8b 47 1c	 mov	 eax, DWORD PTR [edi+28]
  0002a	89 46 1c	 mov	 DWORD PTR [esi+28], eax
  0002d	8a 47 20	 mov	 al, BYTE PTR [edi+32]
  00030	88 46 20	 mov	 BYTE PTR [esi+32], al
  00033	8b 47 24	 mov	 eax, DWORD PTR [edi+36]
  00036	89 46 24	 mov	 DWORD PTR [esi+36], eax
  00039	5f		 pop	 edi
  0003a	8b c6		 mov	 eax, esi
  0003c	5e		 pop	 esi
  0003d	5d		 pop	 ebp
  0003e	c2 04 00	 ret	 4
??4WeaponInfo@@QAEAAU0@ABU0@@Z ENDP			; WeaponInfo::operator=
_TEXT	ENDS
PUBLIC	??_GWeaponInfo@@QAEPAXI@Z			; WeaponInfo::`scalar deleting destructor'
; Function compile flags: /Ogsp
;	COMDAT ??_GWeaponInfo@@QAEPAXI@Z
_TEXT	SEGMENT
___flags$ = 8						; size = 4
??_GWeaponInfo@@QAEPAXI@Z PROC				; WeaponInfo::`scalar deleting destructor', COMDAT
; _this$ = ecx
  00000	55		 push	 ebp
  00001	8b ec		 mov	 ebp, esp
  00003	56		 push	 esi
  00004	8b f1		 mov	 esi, ecx
  00006	8d 4e 08	 lea	 ecx, DWORD PTR [esi+8]
  00009	ff 15 00 00 00
	00		 call	 DWORD PTR __imp_??1ioHashString@@QAE@XZ
  0000f	f6 45 08 01	 test	 BYTE PTR ___flags$[ebp], 1
  00013	74 07		 je	 SHORT $LN1@scalar@4
  00015	56		 push	 esi
  00016	e8 00 00 00 00	 call	 ??3@YAXPAX@Z		; operator delete
  0001b	59		 pop	 ecx
$LN1@scalar@4:
  0001c	8b c6		 mov	 eax, esi
  0001e	5e		 pop	 esi
  0001f	5d		 pop	 ebp
  00020	c2 04 00	 ret	 4
??_GWeaponInfo@@QAEPAXI@Z ENDP				; WeaponInfo::`scalar deleting destructor'
_TEXT	ENDS
PUBLIC	??$move@AAUWeaponInfo@@@std@@YA$$QAUWeaponInfo@@AAU1@@Z ; std::move<WeaponInfo &>
; Function compile flags: /Ogsp
; File c:\program files (x86)\microsoft visual studio 10.0\vc\include\utility
;	COMDAT ??$move@AAUWeaponInfo@@@std@@YA$$QAUWeaponInfo@@AAU1@@Z
_TEXT	SEGMENT
__Arg$ = 8						; size = 4
??$move@AAUWeaponInfo@@@std@@YA$$QAUWeaponInfo@@AAU1@@Z PROC ; std::move<WeaponInfo &>, COMDAT

; 86   : 	{	// forward _Arg as movable

  00000	55		 push	 ebp
  00001	8b ec		 mov	 ebp, esp

; 87   : 	return ((typename tr1::_Remove_reference<_Ty>::_Type&&)_Arg);

  00003	8b 45 08	 mov	 eax, DWORD PTR __Arg$[ebp]

; 88   : 	}

  00006	5d		 pop	 ebp
  00007	c3		 ret	 0
??$move@AAUWeaponInfo@@@std@@YA$$QAUWeaponInfo@@AAU1@@Z ENDP ; std::move<WeaponInfo &>
_TEXT	ENDS
PUBLIC	??$move@AAUForceInfo@@@std@@YA$$QAUForceInfo@@AAU1@@Z ; std::move<ForceInfo &>
; Function compile flags: /Ogsp
;	COMDAT ??$move@AAUForceInfo@@@std@@YA$$QAUForceInfo@@AAU1@@Z
_TEXT	SEGMENT
__Arg$ = 8						; size = 4
??$move@AAUForceInfo@@@std@@YA$$QAUForceInfo@@AAU1@@Z PROC ; std::move<ForceInfo &>, COMDAT

; 86   : 	{	// forward _Arg as movable

  00000	55		 push	 ebp
  00001	8b ec		 mov	 ebp, esp

; 87   : 	return ((typename tr1::_Remove_reference<_Ty>::_Type&&)_Arg);

  00003	8b 45 08	 mov	 eax, DWORD PTR __Arg$[ebp]

; 88   : 	}

  00006	5d		 pop	 ebp
  00007	c3		 ret	 0
??$move@AAUForceInfo@@@std@@YA$$QAUForceInfo@@AAU1@@Z ENDP ; std::move<ForceInfo &>
_TEXT	ENDS
PUBLIC	??$forward@AAUWeaponInfo@@@std@@YAAAUWeaponInfo@@AAU1@@Z ; std::forward<WeaponInfo &>
; Function compile flags: /Ogsp
;	COMDAT ??$forward@AAUWeaponInfo@@@std@@YAAAUWeaponInfo@@AAU1@@Z
_TEXT	SEGMENT
__Arg$ = 8						; size = 4
??$forward@AAUWeaponInfo@@@std@@YAAAUWeaponInfo@@AAU1@@Z PROC ; std::forward<WeaponInfo &>, COMDAT

; 78   : 	{	// forward _Arg, given explicitly specified type parameter

  00000	55		 push	 ebp
  00001	8b ec		 mov	 ebp, esp

; 79   : 	return ((_Ty&&)_Arg);

  00003	8b 45 08	 mov	 eax, DWORD PTR __Arg$[ebp]

; 80   : 	}

  00006	5d		 pop	 ebp
  00007	c3		 ret	 0
??$forward@AAUWeaponInfo@@@std@@YAAAUWeaponInfo@@AAU1@@Z ENDP ; std::forward<WeaponInfo &>
_TEXT	ENDS
PUBLIC	??$forward@AAUForceInfo@@@std@@YAAAUForceInfo@@AAU1@@Z ; std::forward<ForceInfo &>
; Function compile flags: /Ogsp
;	COMDAT ??$forward@AAUForceInfo@@@std@@YAAAUForceInfo@@AAU1@@Z
_TEXT	SEGMENT
__Arg$ = 8						; size = 4
??$forward@AAUForceInfo@@@std@@YAAAUForceInfo@@AAU1@@Z PROC ; std::forward<ForceInfo &>, COMDAT

; 78   : 	{	// forward _Arg, given explicitly specified type parameter

  00000	55		 push	 ebp
  00001	8b ec		 mov	 ebp, esp

; 79   : 	return ((_Ty&&)_Arg);

  00003	8b 45 08	 mov	 eax, DWORD PTR __Arg$[ebp]

; 80   : 	}

  00006	5d		 pop	 ebp
  00007	c3		 ret	 0
??$forward@AAUForceInfo@@@std@@YAAAUForceInfo@@AAU1@@Z ENDP ; std::forward<ForceInfo &>
_TEXT	ENDS
PUBLIC	??$construct@AAUForceInfo@@@?$allocator@UForceInfo@@@std@@QAEXPAUForceInfo@@AAU2@@Z ; std::allocator<ForceInfo>::construct<ForceInfo &>
; Function compile flags: /Ogsp
; File c:\program files (x86)\microsoft visual studio 10.0\vc\include\xmemory
;	COMDAT ??$construct@AAUForceInfo@@@?$allocator@UForceInfo@@@std@@QAEXPAUForceInfo@@AAU2@@Z
_TEXT	SEGMENT
__Ptr$ = 8						; size = 4
__Val$ = 12						; size = 4
??$construct@AAUForceInfo@@@?$allocator@UForceInfo@@@std@@QAEXPAUForceInfo@@AAU2@@Z PROC ; std::allocator<ForceInfo>::construct<ForceInfo &>, COMDAT
; _this$ = ecx

; 206  : 		void construct(pointer _Ptr, _Other&& _Val)

  00000	55		 push	 ebp
  00001	8b ec		 mov	 ebp, esp
  00003	57		 push	 edi

; 207  : 		{	// construct object at _Ptr with value _Val
; 208  : 		::new ((void _FARQ *)_Ptr) _Ty(_STD forward<_Other>(_Val));

  00004	8b 7d 08	 mov	 edi, DWORD PTR __Ptr$[ebp]
  00007	85 ff		 test	 edi, edi
  00009	74 08		 je	 SHORT $LN3@construct
  0000b	56		 push	 esi
  0000c	8b 75 0c	 mov	 esi, DWORD PTR __Val$[ebp]
  0000f	a5		 movsd
  00010	a5		 movsd
  00011	a5		 movsd
  00012	5e		 pop	 esi
$LN3@construct:
  00013	5f		 pop	 edi

; 209  : 		}

  00014	5d		 pop	 ebp
  00015	c2 08 00	 ret	 8
??$construct@AAUForceInfo@@@?$allocator@UForceInfo@@@std@@QAEXPAUForceInfo@@AAU2@@Z ENDP ; std::allocator<ForceInfo>::construct<ForceInfo &>
_TEXT	ENDS
PUBLIC	??0WeaponInfo@@QAE@ABU0@@Z			; WeaponInfo::WeaponInfo
EXTRN	__imp_??0ioHashString@@QAE@ABV0@@Z:PROC
; Function compile flags: /Ogsp
;	COMDAT ??0WeaponInfo@@QAE@ABU0@@Z
_TEXT	SEGMENT
___that$ = 8						; size = 4
??0WeaponInfo@@QAE@ABU0@@Z PROC				; WeaponInfo::WeaponInfo, COMDAT
; _this$ = ecx
  00000	55		 push	 ebp
  00001	8b ec		 mov	 ebp, esp
  00003	56		 push	 esi
  00004	57		 push	 edi
  00005	8b 7d 08	 mov	 edi, DWORD PTR ___that$[ebp]
  00008	8b 07		 mov	 eax, DWORD PTR [edi]
  0000a	8b f1		 mov	 esi, ecx
  0000c	89 06		 mov	 DWORD PTR [esi], eax
  0000e	8b 47 04	 mov	 eax, DWORD PTR [edi+4]
  00011	89 46 04	 mov	 DWORD PTR [esi+4], eax
  00014	8d 47 08	 lea	 eax, DWORD PTR [edi+8]
  00017	50		 push	 eax
  00018	8d 4e 08	 lea	 ecx, DWORD PTR [esi+8]
  0001b	ff 15 00 00 00
	00		 call	 DWORD PTR __imp_??0ioHashString@@QAE@ABV0@@Z
  00021	8b 47 18	 mov	 eax, DWORD PTR [edi+24]
  00024	89 46 18	 mov	 DWORD PTR [esi+24], eax
  00027	8b 47 1c	 mov	 eax, DWORD PTR [edi+28]
  0002a	89 46 1c	 mov	 DWORD PTR [esi+28], eax
  0002d	8a 47 20	 mov	 al, BYTE PTR [edi+32]
  00030	88 46 20	 mov	 BYTE PTR [esi+32], al
  00033	8b 47 24	 mov	 eax, DWORD PTR [edi+36]
  00036	89 46 24	 mov	 DWORD PTR [esi+36], eax
  00039	5f		 pop	 edi
  0003a	8b c6		 mov	 eax, esi
  0003c	5e		 pop	 esi
  0003d	5d		 pop	 ebp
  0003e	c2 04 00	 ret	 4
??0WeaponInfo@@QAE@ABU0@@Z ENDP				; WeaponInfo::WeaponInfo
_TEXT	ENDS
PUBLIC	??_R0?AVioChargeComboBowItem@@@8		; ioChargeComboBowItem `RTTI Type Descriptor'
PUBLIC	?ToChargeComboBowItem@@YAPAVioChargeComboBowItem@@PAVioItem@@@Z ; ToChargeComboBowItem
;	COMDAT ??_R0?AVioChargeComboBowItem@@@8
; File d:\lost saga for developer\youtube\tutorial\source\src\lsclient\iochargecombobowitem.h
_DATA	SEGMENT
??_R0?AVioChargeComboBowItem@@@8 DD FLAT:??_7type_info@@6B@ ; ioChargeComboBowItem `RTTI Type Descriptor'
	DD	00H
	DB	'.?AVioChargeComboBowItem@@', 00H
; Function compile flags: /Ogsp
_DATA	ENDS
;	COMDAT ?ToChargeComboBowItem@@YAPAVioChargeComboBowItem@@PAVioItem@@@Z
_TEXT	SEGMENT
_pItem$ = 8						; size = 4
?ToChargeComboBowItem@@YAPAVioChargeComboBowItem@@PAVioItem@@@Z PROC ; ToChargeComboBowItem, COMDAT

; 426  : {

  00000	55		 push	 ebp
  00001	8b ec		 mov	 ebp, esp
  00003	56		 push	 esi

; 427  : 	ioWeaponItem *pWeapon = ToWeaponItem( pItem );

  00004	ff 75 08	 push	 DWORD PTR _pItem$[ebp]
  00007	e8 00 00 00 00	 call	 ?ToWeaponItem@@YAPAVioWeaponItem@@PAVioItem@@@Z ; ToWeaponItem
  0000c	8b f0		 mov	 esi, eax
  0000e	59		 pop	 ecx

; 428  : 	if( !pWeapon || pWeapon->GetSubType() != ioWeaponItem::WST_CHARGE_COMBO_BOW )

  0000f	85 f6		 test	 esi, esi
  00011	74 28		 je	 SHORT $LN1@ToChargeCo
  00013	8b 06		 mov	 eax, DWORD PTR [esi]
  00015	8b ce		 mov	 ecx, esi
  00017	ff 90 f0 02 00
	00		 call	 DWORD PTR [eax+752]
  0001d	83 f8 39	 cmp	 eax, 57			; 00000039H
  00020	75 19		 jne	 SHORT $LN1@ToChargeCo

; 430  : 
; 431  : 	return dynamic_cast< ioChargeComboBowItem* >( pWeapon );

  00022	6a 00		 push	 0
  00024	68 00 00 00 00	 push	 OFFSET ??_R0?AVioChargeComboBowItem@@@8
  00029	68 00 00 00 00	 push	 OFFSET ??_R0?AVioWeaponItem@@@8
  0002e	6a 00		 push	 0
  00030	56		 push	 esi
  00031	e8 00 00 00 00	 call	 ___RTDynamicCast
  00036	83 c4 14	 add	 esp, 20			; 00000014H
  00039	eb 02		 jmp	 SHORT $LN3@ToChargeCo
$LN1@ToChargeCo:

; 429  : 		return NULL;

  0003b	33 c0		 xor	 eax, eax
$LN3@ToChargeCo:
  0003d	5e		 pop	 esi

; 432  : }

  0003e	5d		 pop	 ebp
  0003f	c3		 ret	 0
?ToChargeComboBowItem@@YAPAVioChargeComboBowItem@@PAVioItem@@@Z ENDP ; ToChargeComboBowItem
_TEXT	ENDS
PUBLIC	__real@bf800000
PUBLIC	__real@80000000
PUBLIC	__$ArrayPad$
PUBLIC	?ApplyAttributeToWeapon@ioLinearComboSkill2@@UAEXPAVioWeapon@@PAVioPlayStage@@@Z ; ioLinearComboSkill2::ApplyAttributeToWeapon
EXTRN	?SetZoneValue@ioZoneEffectWeapon@@QAEX_N0@Z:PROC ; ioZoneEffectWeapon::SetZoneValue
EXTRN	?SetCollisionDir@ioZoneEffectWeapon@@QAEXAAUD3DXVECTOR3@@@Z:PROC ; ioZoneEffectWeapon::SetCollisionDir
EXTRN	__imp_??D@YA?AUD3DXVECTOR3@@ABUD3DXQUATERNION@@ABU0@@Z:PROC
EXTRN	?SetTargetRotToRotate@ioBaseChar@@QAEXABUD3DXQUATERNION@@_N1@Z:PROC ; ioBaseChar::SetTargetRotToRotate
EXTRN	?SetTraceTarget@ioTraceWeaponType2@@QAEXABVioHashString@@@Z:PROC ; ioTraceWeaponType2::SetTraceTarget
EXTRN	__imp_?CalcDirectionQuaternion@ioMath@@SAXAAUD3DXQUATERNION@@ABUD3DXVECTOR3@@@Z:PROC
EXTRN	?ReCalcMoveDir@ioChargeComboBowItem@@QAE?AUD3DXVECTOR3@@PAVioBaseChar@@PAVioWeapon@@_N@Z:PROC ; ioChargeComboBowItem::ReCalcMoveDir
EXTRN	?GetOwner@ioWeapon@@QBEPAVioBaseChar@@XZ:PROC	; ioWeapon::GetOwner
EXTRN	?ApplyAttributeToWeapon@ioSkill@@UAEXPAVioWeapon@@PAVioPlayStage@@@Z:PROC ; ioSkill::ApplyAttributeToWeapon
EXTRN	___security_cookie:DWORD
EXTRN	@__security_check_cookie@4:PROC
;	COMDAT __real@bf800000
; File d:\lost saga for developer\youtube\tutorial\source\src\lsclient\iobasechar.h
CONST	SEGMENT
__real@bf800000 DD 0bf800000r			; -1
CONST	ENDS
;	COMDAT __real@80000000
CONST	SEGMENT
__real@80000000 DD 080000000r			; -0
; Function compile flags: /Ogsp
; File d:\lost saga for developer\youtube\tutorial\source\src\lsclient\iolinearcomboskill2.cpp
CONST	ENDS
;	COMDAT ?ApplyAttributeToWeapon@ioLinearComboSkill2@@UAEXPAVioWeapon@@PAVioPlayStage@@@Z
_TEXT	SEGMENT
_qtRot$608434 = -56					; size = 16
tv329 = -40						; size = 4
_pCCBI$ = -36						; size = 4
_pZone$ = -32						; size = 4
_vDir$608440 = -28					; size = 12
_vTargetDir$608431 = -28				; size = 12
$T608441 = -16						; size = 12
$T608436 = -16						; size = 12
$T608435 = -16						; size = 12
__$ArrayPad$ = -4					; size = 4
_pWeapon$ = 8						; size = 4
_pStage$ = 12						; size = 4
?ApplyAttributeToWeapon@ioLinearComboSkill2@@UAEXPAVioWeapon@@PAVioPlayStage@@@Z PROC ; ioLinearComboSkill2::ApplyAttributeToWeapon, COMDAT
; _this$ = ecx

; 385  : {

  00000	55		 push	 ebp
  00001	8b ec		 mov	 ebp, esp
  00003	83 ec 38	 sub	 esp, 56			; 00000038H
  00006	a1 00 00 00 00	 mov	 eax, DWORD PTR ___security_cookie
  0000b	33 c5		 xor	 eax, ebp
  0000d	89 45 fc	 mov	 DWORD PTR __$ArrayPad$[ebp], eax
  00010	8b 45 0c	 mov	 eax, DWORD PTR _pStage$[ebp]
  00013	53		 push	 ebx
  00014	56		 push	 esi
  00015	57		 push	 edi
  00016	8b 7d 08	 mov	 edi, DWORD PTR _pWeapon$[ebp]

; 386  : 	ioSkill::ApplyAttributeToWeapon( pWeapon, pStage );

  00019	50		 push	 eax
  0001a	57		 push	 edi
  0001b	8b f1		 mov	 esi, ecx
  0001d	e8 00 00 00 00	 call	 ?ApplyAttributeToWeapon@ioSkill@@UAEXPAVioWeapon@@PAVioPlayStage@@@Z ; ioSkill::ApplyAttributeToWeapon

; 387  : 
; 388  : 	SetChargingRateForWeapon( pWeapon );

  00022	8b 06		 mov	 eax, DWORD PTR [esi]
  00024	57		 push	 edi
  00025	8b ce		 mov	 ecx, esi
  00027	ff 90 68 01 00
	00		 call	 DWORD PTR [eax+360]

; 389  : 
; 390  : 	ioZoneEffectWeapon *pZone = ToZoneEffectWeapon( pWeapon );

  0002d	57		 push	 edi
  0002e	e8 00 00 00 00	 call	 ?ToZoneEffectWeapon@@YAPAVioZoneEffectWeapon@@PAVioWeapon@@@Z ; ToZoneEffectWeapon

; 391  : 	ioTraceWeaponType2 *pTraceWeaponType2 = ToTraceWeaponType2( pWeapon );

  00033	57		 push	 edi
  00034	89 45 e0	 mov	 DWORD PTR _pZone$[ebp], eax
  00037	e8 00 00 00 00	 call	 ?ToTraceWeaponType2@@YAPAVioTraceWeaponType2@@PAVioWeapon@@@Z ; ToTraceWeaponType2

; 392  : 	ioChargeComboBowItem *pCCBI = ToChargeComboBowItem( GetOwnerItem() );

  0003c	ff b6 a4 02 00
	00		 push	 DWORD PTR [esi+676]
  00042	8b d8		 mov	 ebx, eax
  00044	e8 00 00 00 00	 call	 ?ToChargeComboBowItem@@YAPAVioChargeComboBowItem@@PAVioItem@@@Z ; ToChargeComboBowItem
  00049	83 c4 0c	 add	 esp, 12			; 0000000cH
  0004c	89 45 dc	 mov	 DWORD PTR _pCCBI$[ebp], eax

; 393  : 
; 394  : 	if( pCCBI )

  0004f	85 c0		 test	 eax, eax
  00051	0f 84 e8 00 00
	00		 je	 $LN24@ApplyAttri

; 395  : 	{
; 396  : 		if( !m_stTargetName.IsEmpty() )

  00057	8d 8e b8 13 00
	00		 lea	 ecx, DWORD PTR [esi+5048]
  0005d	89 4d d8	 mov	 DWORD PTR tv329[ebp], ecx
  00060	ff 15 00 00 00
	00		 call	 DWORD PTR __imp_?IsEmpty@ioHashString@@QBE_NXZ
  00066	84 c0		 test	 al, al
  00068	0f 85 d1 00 00
	00		 jne	 $LN24@ApplyAttri

; 397  : 		{
; 398  : 			D3DXVECTOR3 vTargetDir = pCCBI->ReCalcMoveDir( pWeapon->GetOwner(), pWeapon, true );

  0006e	6a 01		 push	 1
  00070	57		 push	 edi
  00071	8b cf		 mov	 ecx, edi
  00073	e8 00 00 00 00	 call	 ?GetOwner@ioWeapon@@QBEPAVioBaseChar@@XZ ; ioWeapon::GetOwner
  00078	8b 4d dc	 mov	 ecx, DWORD PTR _pCCBI$[ebp]
  0007b	50		 push	 eax
  0007c	8d 45 e4	 lea	 eax, DWORD PTR _vTargetDir$608431[ebp]
  0007f	50		 push	 eax
  00080	e8 00 00 00 00	 call	 ?ReCalcMoveDir@ioChargeComboBowItem@@QAE?AUD3DXVECTOR3@@PAVioBaseChar@@PAVioWeapon@@_N@Z ; ioChargeComboBowItem::ReCalcMoveDir

; 399  : 			if( pTraceWeaponType2 )

  00085	85 db		 test	 ebx, ebx
  00087	0f 84 b2 00 00
	00		 je	 $LN24@ApplyAttri

; 400  : 			{
; 401  : 				D3DXQUATERNION qtRot;
; 402  : 				ioMath::CalcDirectionQuaternion( qtRot, -vTargetDir );

  0008d	f3 0f 10 05 00
	00 00 00	 movss	 xmm0, DWORD PTR __mask@@NegFloat@
  00095	f3 0f 10 4d e4	 movss	 xmm1, DWORD PTR _vTargetDir$608431[ebp]
  0009a	8b 35 00 00 00
	00		 mov	 esi, DWORD PTR __imp_?CalcDirectionQuaternion@ioMath@@SAXAAUD3DXQUATERNION@@ABUD3DXVECTOR3@@@Z
  000a0	0f 57 c8	 xorps	 xmm1, xmm0
  000a3	f3 0f 11 4d f0	 movss	 DWORD PTR $T608435[ebp], xmm1
  000a8	f3 0f 10 4d e8	 movss	 xmm1, DWORD PTR _vTargetDir$608431[ebp+4]
  000ad	0f 57 c8	 xorps	 xmm1, xmm0
  000b0	8d 45 f0	 lea	 eax, DWORD PTR $T608435[ebp]
  000b3	50		 push	 eax
  000b4	f3 0f 11 4d f4	 movss	 DWORD PTR $T608435[ebp+4], xmm1
  000b9	f3 0f 10 4d ec	 movss	 xmm1, DWORD PTR _vTargetDir$608431[ebp+8]
  000be	8d 45 c8	 lea	 eax, DWORD PTR _qtRot$608434[ebp]
  000c1	0f 57 c8	 xorps	 xmm1, xmm0
  000c4	50		 push	 eax
  000c5	f3 0f 11 4d f8	 movss	 DWORD PTR $T608435[ebp+8], xmm1
  000ca	ff d6		 call	 esi
  000cc	59		 pop	 ecx
  000cd	59		 pop	 ecx

; 403  : 				pTraceWeaponType2->SetTraceTarget( m_stTargetName );

  000ce	ff 75 d8	 push	 DWORD PTR tv329[ebp]
  000d1	8b cb		 mov	 ecx, ebx
  000d3	e8 00 00 00 00	 call	 ?SetTraceTarget@ioTraceWeaponType2@@QAEXABVioHashString@@@Z ; ioTraceWeaponType2::SetTraceTarget

; 404  : 				pTraceWeaponType2->SetMoveDir( vTargetDir );

  000d8	8b 03		 mov	 eax, DWORD PTR [ebx]
  000da	8d 4d e4	 lea	 ecx, DWORD PTR _vTargetDir$608431[ebp]
  000dd	51		 push	 ecx
  000de	8b cb		 mov	 ecx, ebx
  000e0	ff 90 b0 00 00
	00		 call	 DWORD PTR [eax+176]

; 405  : 
; 406  : 				vTargetDir.y = 0;
; 407  : 				ioMath::CalcDirectionQuaternion( qtRot, -vTargetDir );

  000e6	f3 0f 10 4d e4	 movss	 xmm1, DWORD PTR _vTargetDir$608431[ebp]
  000eb	0f 57 0d 00 00
	00 00		 xorps	 xmm1, DWORD PTR __mask@@NegFloat@
  000f2	0f 57 c0	 xorps	 xmm0, xmm0
  000f5	f3 0f 11 4d f0	 movss	 DWORD PTR $T608436[ebp], xmm1
  000fa	f3 0f 10 0d 00
	00 00 00	 movss	 xmm1, DWORD PTR __real@80000000
  00102	8d 45 f0	 lea	 eax, DWORD PTR $T608436[ebp]
  00105	50		 push	 eax
  00106	f3 0f 11 4d f4	 movss	 DWORD PTR $T608436[ebp+4], xmm1
  0010b	f3 0f 10 4d ec	 movss	 xmm1, DWORD PTR _vTargetDir$608431[ebp+8]
  00110	0f 57 0d 00 00
	00 00		 xorps	 xmm1, DWORD PTR __mask@@NegFloat@
  00117	8d 45 c8	 lea	 eax, DWORD PTR _qtRot$608434[ebp]
  0011a	50		 push	 eax
  0011b	f3 0f 11 45 e8	 movss	 DWORD PTR _vTargetDir$608431[ebp+4], xmm0
  00120	f3 0f 11 4d f8	 movss	 DWORD PTR $T608436[ebp+8], xmm1
  00125	ff d6		 call	 esi
  00127	59		 pop	 ecx
  00128	59		 pop	 ecx

; 408  : 				pWeapon->GetOwner()->SetTargetRotToRotate( qtRot, true );

  00129	6a 00		 push	 0
  0012b	6a 01		 push	 1
  0012d	8d 45 c8	 lea	 eax, DWORD PTR _qtRot$608434[ebp]
  00130	50		 push	 eax
  00131	8b cf		 mov	 ecx, edi
  00133	e8 00 00 00 00	 call	 ?GetOwner@ioWeapon@@QBEPAVioBaseChar@@XZ ; ioWeapon::GetOwner
  00138	8b c8		 mov	 ecx, eax
  0013a	e8 00 00 00 00	 call	 ?SetTargetRotToRotate@ioBaseChar@@QAEXABUD3DXQUATERNION@@_N1@Z ; ioBaseChar::SetTargetRotToRotate
$LN24@ApplyAttri:

; 409  : 			}
; 410  : 		}
; 411  : 	}
; 412  : 
; 413  : 	if( pZone )

  0013f	8b 75 e0	 mov	 esi, DWORD PTR _pZone$[ebp]
  00142	85 f6		 test	 esi, esi
  00144	74 52		 je	 SHORT $LN1@ApplyAttri

; 414  : 	{
; 415  : 		ioBaseChar *pChar = pZone->GetOwner();

  00146	8b ce		 mov	 ecx, esi
  00148	e8 00 00 00 00	 call	 ?GetOwner@ioWeapon@@QBEPAVioBaseChar@@XZ ; ioWeapon::GetOwner

; 416  : 		if( pChar )

  0014d	85 c0		 test	 eax, eax
  0014f	74 47		 je	 SHORT $LN1@ApplyAttri

; 417  : 		{
; 418  : 			D3DXVECTOR3 vDir = pChar->GetTargetRot() * D3DXVECTOR3( 0.0f, 0.0f, -1.0f );

  00151	0f 57 c0	 xorps	 xmm0, xmm0
  00154	8d 4d f0	 lea	 ecx, DWORD PTR $T608441[ebp]
  00157	51		 push	 ecx
  00158	05 a4 06 00 00	 add	 eax, 1700		; 000006a4H
  0015d	50		 push	 eax
  0015e	8d 45 e4	 lea	 eax, DWORD PTR _vDir$608440[ebp]
  00161	f3 0f 11 45 f0	 movss	 DWORD PTR $T608441[ebp], xmm0
  00166	f3 0f 11 45 f4	 movss	 DWORD PTR $T608441[ebp+4], xmm0
  0016b	f3 0f 10 05 00
	00 00 00	 movss	 xmm0, DWORD PTR __real@bf800000
  00173	50		 push	 eax
  00174	f3 0f 11 45 f8	 movss	 DWORD PTR $T608441[ebp+8], xmm0
  00179	ff 15 00 00 00
	00		 call	 DWORD PTR __imp_??D@YA?AUD3DXVECTOR3@@ABUD3DXQUATERNION@@ABU0@@Z
  0017f	83 c4 0c	 add	 esp, 12			; 0000000cH

; 419  : 			pZone->SetCollisionDir( vDir );

  00182	8d 45 e4	 lea	 eax, DWORD PTR _vDir$608440[ebp]
  00185	50		 push	 eax
  00186	8b ce		 mov	 ecx, esi
  00188	e8 00 00 00 00	 call	 ?SetCollisionDir@ioZoneEffectWeapon@@QAEXAAUD3DXVECTOR3@@@Z ; ioZoneEffectWeapon::SetCollisionDir

; 420  : 			pZone->SetZoneValue( false, true );

  0018d	6a 01		 push	 1
  0018f	6a 00		 push	 0
  00191	8b ce		 mov	 ecx, esi
  00193	e8 00 00 00 00	 call	 ?SetZoneValue@ioZoneEffectWeapon@@QAEX_N0@Z ; ioZoneEffectWeapon::SetZoneValue
$LN1@ApplyAttri:

; 421  : 		}
; 422  : 	}
; 423  : }

  00198	8b 4d fc	 mov	 ecx, DWORD PTR __$ArrayPad$[ebp]
  0019b	5f		 pop	 edi
  0019c	5e		 pop	 esi
  0019d	33 cd		 xor	 ecx, ebp
  0019f	5b		 pop	 ebx
  001a0	e8 00 00 00 00	 call	 @__security_check_cookie@4
  001a5	c9		 leave
  001a6	c2 08 00	 ret	 8
?ApplyAttributeToWeapon@ioLinearComboSkill2@@UAEXPAVioWeapon@@PAVioPlayStage@@@Z ENDP ; ioLinearComboSkill2::ApplyAttributeToWeapon
_TEXT	ENDS
PUBLIC	?GetComboList@ioLinearComboSkill2@@IAEABV?$vector@UAttackAttribute@@V?$allocator@UAttackAttribute@@@std@@@std@@XZ ; ioLinearComboSkill2::GetComboList
; Function compile flags: /Ogsp
;	COMDAT ?GetComboList@ioLinearComboSkill2@@IAEABV?$vector@UAttackAttribute@@V?$allocator@UAttackAttribute@@@std@@@std@@XZ
_TEXT	SEGMENT
?GetComboList@ioLinearComboSkill2@@IAEABV?$vector@UAttackAttribute@@V?$allocator@UAttackAttribute@@@std@@@std@@XZ PROC ; ioLinearComboSkill2::GetComboList, COMDAT
; _this$ = ecx

; 888  : 	switch( m_SkillUseType )

  00000	8b 41 74	 mov	 eax, DWORD PTR [ecx+116]
  00003	83 e8 00	 sub	 eax, 0
  00006	74 1b		 je	 SHORT $LN5@GetComboLi
  00008	48		 dec	 eax
  00009	74 0b		 je	 SHORT $LN2@GetComboLi
  0000b	48		 dec	 eax

; 899  : 		return m_vComboList;
; 900  : 	}
; 901  : 
; 902  : 	return m_vComboList;

  0000c	75 15		 jne	 SHORT $LN5@GetComboLi

; 892  : 	case SUT_DOWN:
; 893  : 		if( !m_vDownComboList.empty() )

  0000e	8d 81 08 11 00
	00		 lea	 eax, DWORD PTR [ecx+4360]

; 894  : 			return m_vDownComboList;
; 895  : 		return m_vComboList;

  00014	eb 06		 jmp	 SHORT $LN14@GetComboLi
$LN2@GetComboLi:

; 896  : 	case SUT_JUMP:
; 897  : 		if( !m_vJumpComboList.empty() )

  00016	8d 81 f8 10 00
	00		 lea	 eax, DWORD PTR [ecx+4344]
$LN14@GetComboLi:
  0001c	8b 10		 mov	 edx, DWORD PTR [eax]
  0001e	3b 50 04	 cmp	 edx, DWORD PTR [eax+4]

; 898  : 			return m_vJumpComboList;

  00021	75 06		 jne	 SHORT $LN8@GetComboLi
$LN5@GetComboLi:

; 889  : 	{
; 890  : 	case SUT_NORMAL:
; 891  : 		return m_vComboList;

  00023	8d 81 e8 10 00
	00		 lea	 eax, DWORD PTR [ecx+4328]
$LN8@GetComboLi:

; 903  : }

  00029	c3		 ret	 0
?GetComboList@ioLinearComboSkill2@@IAEABV?$vector@UAttackAttribute@@V?$allocator@UAttackAttribute@@@std@@@std@@XZ ENDP ; ioLinearComboSkill2::GetComboList
_TEXT	ENDS
PUBLIC	??M?$CEncrypt@H@@QAE_NABH@Z			; CEncrypt<int>::operator<
; Function compile flags: /Ogsp
; File d:\lost saga for developer\youtube\tutorial\source\src\lsclient\encryptvalue.h
;	COMDAT ??M?$CEncrypt@H@@QAE_NABH@Z
_TEXT	SEGMENT
_value$ = -4						; size = 4
_inValue$ = 8						; size = 4
??M?$CEncrypt@H@@QAE_NABH@Z PROC			; CEncrypt<int>::operator<, COMDAT
; _this$ = ecx

; 987  : 	{

  00000	55		 push	 ebp
  00001	8b ec		 mov	 ebp, esp
  00003	51		 push	 ecx

; 988  : 		
; 989  : 		type value;
; 990  : 		DecryptValueToPool(&value);

  00004	8d 45 fc	 lea	 eax, DWORD PTR _value$[ebp]
  00007	50		 push	 eax
  00008	e8 00 00 00 00	 call	 ?DecryptValueToPool@?$CEncrypt@H@@QAEXPAH@Z ; CEncrypt<int>::DecryptValueToPool

; 991  : #ifdef _NOTUSE
; 992  : 		Debug();
; 993  : #endif
; 994  : 		return (value < inValue);

  0000d	8b 4d 08	 mov	 ecx, DWORD PTR _inValue$[ebp]
  00010	8b 55 fc	 mov	 edx, DWORD PTR _value$[ebp]
  00013	33 c0		 xor	 eax, eax
  00015	3b 11		 cmp	 edx, DWORD PTR [ecx]
  00017	0f 9c c0	 setl	 al

; 995  : 	} 

  0001a	c9		 leave
  0001b	c2 04 00	 ret	 4
??M?$CEncrypt@H@@QAE_NABH@Z ENDP			; CEncrypt<int>::operator<
_TEXT	ENDS
PUBLIC	??N?$CEncrypt@H@@QAE_NABH@Z			; CEncrypt<int>::operator<=
; Function compile flags: /Ogsp
;	COMDAT ??N?$CEncrypt@H@@QAE_NABH@Z
_TEXT	SEGMENT
_value$ = -4						; size = 4
_inValue$ = 8						; size = 4
??N?$CEncrypt@H@@QAE_NABH@Z PROC			; CEncrypt<int>::operator<=, COMDAT
; _this$ = ecx

; 1020 : 	{

  00000	55		 push	 ebp
  00001	8b ec		 mov	 ebp, esp
  00003	51		 push	 ecx

; 1021 : 		
; 1022 : 		type value;
; 1023 : 		DecryptValueToPool(&value);

  00004	8d 45 fc	 lea	 eax, DWORD PTR _value$[ebp]
  00007	50		 push	 eax
  00008	e8 00 00 00 00	 call	 ?DecryptValueToPool@?$CEncrypt@H@@QAEXPAH@Z ; CEncrypt<int>::DecryptValueToPool

; 1024 : #ifdef _NOTUSE
; 1025 : 		Debug();
; 1026 : #endif
; 1027 : 		return (value <= inValue);

  0000d	8b 4d 08	 mov	 ecx, DWORD PTR _inValue$[ebp]
  00010	8b 55 fc	 mov	 edx, DWORD PTR _value$[ebp]
  00013	33 c0		 xor	 eax, eax
  00015	3b 11		 cmp	 edx, DWORD PTR [ecx]
  00017	0f 9e c0	 setle	 al

; 1028 : 	}		

  0001a	c9		 leave
  0001b	c2 04 00	 ret	 4
??N?$CEncrypt@H@@QAE_NABH@Z ENDP			; CEncrypt<int>::operator<=
_TEXT	ENDS
PUBLIC	?begin@?$vector@UWeaponInfo@@V?$allocator@UWeaponInfo@@@std@@@std@@QBE?AV?$_Vector_const_iterator@V?$_Vector_val@UWeaponInfo@@V?$allocator@UWeaponInfo@@@std@@@std@@@2@XZ ; std::vector<WeaponInfo,std::allocator<WeaponInfo> >::begin
; Function compile flags: /Ogsp
; File c:\program files (x86)\microsoft visual studio 10.0\vc\include\vector
;	COMDAT ?begin@?$vector@UWeaponInfo@@V?$allocator@UWeaponInfo@@@std@@@std@@QBE?AV?$_Vector_const_iterator@V?$_Vector_val@UWeaponInfo@@V?$allocator@UWeaponInfo@@@std@@@std@@@2@XZ
_TEXT	SEGMENT
___$ReturnUdt$ = 8					; size = 4
?begin@?$vector@UWeaponInfo@@V?$allocator@UWeaponInfo@@@std@@@std@@QBE?AV?$_Vector_const_iterator@V?$_Vector_val@UWeaponInfo@@V?$allocator@UWeaponInfo@@@std@@@std@@@2@XZ PROC ; std::vector<WeaponInfo,std::allocator<WeaponInfo> >::begin, COMDAT
; _this$ = ecx

; 786  : 		{	// return iterator for beginning of nonmutable sequence

  00000	55		 push	 ebp
  00001	8b ec		 mov	 ebp, esp

; 787  : 		return (const_iterator(this->_Myfirst, this));

  00003	8b 09		 mov	 ecx, DWORD PTR [ecx]
  00005	8b 45 08	 mov	 eax, DWORD PTR ___$ReturnUdt$[ebp]
  00008	89 08		 mov	 DWORD PTR [eax], ecx

; 788  : 		}

  0000a	5d		 pop	 ebp
  0000b	c2 04 00	 ret	 4
?begin@?$vector@UWeaponInfo@@V?$allocator@UWeaponInfo@@@std@@@std@@QBE?AV?$_Vector_const_iterator@V?$_Vector_val@UWeaponInfo@@V?$allocator@UWeaponInfo@@@std@@@std@@@2@XZ ENDP ; std::vector<WeaponInfo,std::allocator<WeaponInfo> >::begin
_TEXT	ENDS
PUBLIC	?end@?$vector@UWeaponInfo@@V?$allocator@UWeaponInfo@@@std@@@std@@QBE?AV?$_Vector_const_iterator@V?$_Vector_val@UWeaponInfo@@V?$allocator@UWeaponInfo@@@std@@@std@@@2@XZ ; std::vector<WeaponInfo,std::allocator<WeaponInfo> >::end
; Function compile flags: /Ogsp
;	COMDAT ?end@?$vector@UWeaponInfo@@V?$allocator@UWeaponInfo@@@std@@@std@@QBE?AV?$_Vector_const_iterator@V?$_Vector_val@UWeaponInfo@@V?$allocator@UWeaponInfo@@@std@@@std@@@2@XZ
_TEXT	SEGMENT
___$ReturnUdt$ = 8					; size = 4
?end@?$vector@UWeaponInfo@@V?$allocator@UWeaponInfo@@@std@@@std@@QBE?AV?$_Vector_const_iterator@V?$_Vector_val@UWeaponInfo@@V?$allocator@UWeaponInfo@@@std@@@std@@@2@XZ PROC ; std::vector<WeaponInfo,std::allocator<WeaponInfo> >::end, COMDAT
; _this$ = ecx

; 796  : 		{	// return iterator for end of nonmutable sequence

  00000	55		 push	 ebp
  00001	8b ec		 mov	 ebp, esp

; 797  : 		return (const_iterator(this->_Mylast, this));

  00003	8b 49 04	 mov	 ecx, DWORD PTR [ecx+4]
  00006	8b 45 08	 mov	 eax, DWORD PTR ___$ReturnUdt$[ebp]
  00009	89 08		 mov	 DWORD PTR [eax], ecx

; 798  : 		}

  0000b	5d		 pop	 ebp
  0000c	c2 04 00	 ret	 4
?end@?$vector@UWeaponInfo@@V?$allocator@UWeaponInfo@@@std@@@std@@QBE?AV?$_Vector_const_iterator@V?$_Vector_val@UWeaponInfo@@V?$allocator@UWeaponInfo@@@std@@@std@@@2@XZ ENDP ; std::vector<WeaponInfo,std::allocator<WeaponInfo> >::end
_TEXT	ENDS
PUBLIC	?begin@?$vector@UForceInfo@@V?$allocator@UForceInfo@@@std@@@std@@QBE?AV?$_Vector_const_iterator@V?$_Vector_val@UForceInfo@@V?$allocator@UForceInfo@@@std@@@std@@@2@XZ ; std::vector<ForceInfo,std::allocator<ForceInfo> >::begin
; Function compile flags: /Ogsp
;	COMDAT ?begin@?$vector@UForceInfo@@V?$allocator@UForceInfo@@@std@@@std@@QBE?AV?$_Vector_const_iterator@V?$_Vector_val@UForceInfo@@V?$allocator@UForceInfo@@@std@@@std@@@2@XZ
_TEXT	SEGMENT
___$ReturnUdt$ = 8					; size = 4
?begin@?$vector@UForceInfo@@V?$allocator@UForceInfo@@@std@@@std@@QBE?AV?$_Vector_const_iterator@V?$_Vector_val@UForceInfo@@V?$allocator@UForceInfo@@@std@@@std@@@2@XZ PROC ; std::vector<ForceInfo,std::allocator<ForceInfo> >::begin, COMDAT
; _this$ = ecx

; 786  : 		{	// return iterator for beginning of nonmutable sequence

  00000	55		 push	 ebp
  00001	8b ec		 mov	 ebp, esp

; 787  : 		return (const_iterator(this->_Myfirst, this));

  00003	8b 09		 mov	 ecx, DWORD PTR [ecx]
  00005	8b 45 08	 mov	 eax, DWORD PTR ___$ReturnUdt$[ebp]
  00008	89 08		 mov	 DWORD PTR [eax], ecx

; 788  : 		}

  0000a	5d		 pop	 ebp
  0000b	c2 04 00	 ret	 4
?begin@?$vector@UForceInfo@@V?$allocator@UForceInfo@@@std@@@std@@QBE?AV?$_Vector_const_iterator@V?$_Vector_val@UForceInfo@@V?$allocator@UForceInfo@@@std@@@std@@@2@XZ ENDP ; std::vector<ForceInfo,std::allocator<ForceInfo> >::begin
_TEXT	ENDS
PUBLIC	?end@?$vector@UForceInfo@@V?$allocator@UForceInfo@@@std@@@std@@QBE?AV?$_Vector_const_iterator@V?$_Vector_val@UForceInfo@@V?$allocator@UForceInfo@@@std@@@std@@@2@XZ ; std::vector<ForceInfo,std::allocator<ForceInfo> >::end
; Function compile flags: /Ogsp
;	COMDAT ?end@?$vector@UForceInfo@@V?$allocator@UForceInfo@@@std@@@std@@QBE?AV?$_Vector_const_iterator@V?$_Vector_val@UForceInfo@@V?$allocator@UForceInfo@@@std@@@std@@@2@XZ
_TEXT	SEGMENT
___$ReturnUdt$ = 8					; size = 4
?end@?$vector@UForceInfo@@V?$allocator@UForceInfo@@@std@@@std@@QBE?AV?$_Vector_const_iterator@V?$_Vector_val@UForceInfo@@V?$allocator@UForceInfo@@@std@@@std@@@2@XZ PROC ; std::vector<ForceInfo,std::allocator<ForceInfo> >::end, COMDAT
; _this$ = ecx

; 796  : 		{	// return iterator for end of nonmutable sequence

  00000	55		 push	 ebp
  00001	8b ec		 mov	 ebp, esp

; 797  : 		return (const_iterator(this->_Mylast, this));

  00003	8b 49 04	 mov	 ecx, DWORD PTR [ecx+4]
  00006	8b 45 08	 mov	 eax, DWORD PTR ___$ReturnUdt$[ebp]
  00009	89 08		 mov	 DWORD PTR [eax], ecx

; 798  : 		}

  0000b	5d		 pop	 ebp
  0000c	c2 04 00	 ret	 4
?end@?$vector@UForceInfo@@V?$allocator@UForceInfo@@@std@@@std@@QBE?AV?$_Vector_const_iterator@V?$_Vector_val@UForceInfo@@V?$allocator@UForceInfo@@@std@@@std@@@2@XZ ENDP ; std::vector<ForceInfo,std::allocator<ForceInfo> >::end
_TEXT	ENDS
PUBLIC	?begin@?$vector@UAttackAttribute@@V?$allocator@UAttackAttribute@@@std@@@std@@QBE?AV?$_Vector_const_iterator@V?$_Vector_val@UAttackAttribute@@V?$allocator@UAttackAttribute@@@std@@@std@@@2@XZ ; std::vector<AttackAttribute,std::allocator<AttackAttribute> >::begin
; Function compile flags: /Ogsp
;	COMDAT ?begin@?$vector@UAttackAttribute@@V?$allocator@UAttackAttribute@@@std@@@std@@QBE?AV?$_Vector_const_iterator@V?$_Vector_val@UAttackAttribute@@V?$allocator@UAttackAttribute@@@std@@@std@@@2@XZ
_TEXT	SEGMENT
___$ReturnUdt$ = 8					; size = 4
?begin@?$vector@UAttackAttribute@@V?$allocator@UAttackAttribute@@@std@@@std@@QBE?AV?$_Vector_const_iterator@V?$_Vector_val@UAttackAttribute@@V?$allocator@UAttackAttribute@@@std@@@std@@@2@XZ PROC ; std::vector<AttackAttribute,std::allocator<AttackAttribute> >::begin, COMDAT
; _this$ = ecx

; 786  : 		{	// return iterator for beginning of nonmutable sequence

  00000	55		 push	 ebp
  00001	8b ec		 mov	 ebp, esp

; 787  : 		return (const_iterator(this->_Myfirst, this));

  00003	8b 09		 mov	 ecx, DWORD PTR [ecx]
  00005	8b 45 08	 mov	 eax, DWORD PTR ___$ReturnUdt$[ebp]
  00008	89 08		 mov	 DWORD PTR [eax], ecx

; 788  : 		}

  0000a	5d		 pop	 ebp
  0000b	c2 04 00	 ret	 4
?begin@?$vector@UAttackAttribute@@V?$allocator@UAttackAttribute@@@std@@@std@@QBE?AV?$_Vector_const_iterator@V?$_Vector_val@UAttackAttribute@@V?$allocator@UAttackAttribute@@@std@@@std@@@2@XZ ENDP ; std::vector<AttackAttribute,std::allocator<AttackAttribute> >::begin
_TEXT	ENDS
PUBLIC	?end@?$vector@UAttackAttribute@@V?$allocator@UAttackAttribute@@@std@@@std@@QBE?AV?$_Vector_const_iterator@V?$_Vector_val@UAttackAttribute@@V?$allocator@UAttackAttribute@@@std@@@std@@@2@XZ ; std::vector<AttackAttribute,std::allocator<AttackAttribute> >::end
; Function compile flags: /Ogsp
;	COMDAT ?end@?$vector@UAttackAttribute@@V?$allocator@UAttackAttribute@@@std@@@std@@QBE?AV?$_Vector_const_iterator@V?$_Vector_val@UAttackAttribute@@V?$allocator@UAttackAttribute@@@std@@@std@@@2@XZ
_TEXT	SEGMENT
___$ReturnUdt$ = 8					; size = 4
?end@?$vector@UAttackAttribute@@V?$allocator@UAttackAttribute@@@std@@@std@@QBE?AV?$_Vector_const_iterator@V?$_Vector_val@UAttackAttribute@@V?$allocator@UAttackAttribute@@@std@@@std@@@2@XZ PROC ; std::vector<AttackAttribute,std::allocator<AttackAttribute> >::end, COMDAT
; _this$ = ecx

; 796  : 		{	// return iterator for end of nonmutable sequence

  00000	55		 push	 ebp
  00001	8b ec		 mov	 ebp, esp

; 797  : 		return (const_iterator(this->_Mylast, this));

  00003	8b 49 04	 mov	 ecx, DWORD PTR [ecx+4]
  00006	8b 45 08	 mov	 eax, DWORD PTR ___$ReturnUdt$[ebp]
  00009	89 08		 mov	 DWORD PTR [eax], ecx

; 798  : 		}

  0000b	5d		 pop	 ebp
  0000c	c2 04 00	 ret	 4
?end@?$vector@UAttackAttribute@@V?$allocator@UAttackAttribute@@@std@@@std@@QBE?AV?$_Vector_const_iterator@V?$_Vector_val@UAttackAttribute@@V?$allocator@UAttackAttribute@@@std@@@std@@@2@XZ ENDP ; std::vector<AttackAttribute,std::allocator<AttackAttribute> >::end
_TEXT	ENDS
PUBLIC	?max_size@?$vector@UAttackAttribute@@V?$allocator@UAttackAttribute@@@std@@@std@@QBEIXZ ; std::vector<AttackAttribute,std::allocator<AttackAttribute> >::max_size
; Function compile flags: /Ogsp
;	COMDAT ?max_size@?$vector@UAttackAttribute@@V?$allocator@UAttackAttribute@@@std@@@std@@QBEIXZ
_TEXT	SEGMENT
?max_size@?$vector@UAttackAttribute@@V?$allocator@UAttackAttribute@@@std@@@std@@QBEIXZ PROC ; std::vector<AttackAttribute,std::allocator<AttackAttribute> >::max_size, COMDAT
; _this$ = ecx

; 884  : 		return (this->_Alval.max_size());

  00000	b8 33 33 33 03	 mov	 eax, 53687091		; 03333333H

; 885  : 		}

  00005	c3		 ret	 0
?max_size@?$vector@UAttackAttribute@@V?$allocator@UAttackAttribute@@@std@@@std@@QBEIXZ ENDP ; std::vector<AttackAttribute,std::allocator<AttackAttribute> >::max_size
_TEXT	ENDS
PUBLIC	?allocate@?$allocator@UAttackAttribute@@@std@@QAEPAUAttackAttribute@@I@Z ; std::allocator<AttackAttribute>::allocate
; Function compile flags: /Ogsp
; File c:\program files (x86)\microsoft visual studio 10.0\vc\include\xmemory
;	COMDAT ?allocate@?$allocator@UAttackAttribute@@@std@@QAEPAUAttackAttribute@@I@Z
_TEXT	SEGMENT
__Count$ = 8						; size = 4
?allocate@?$allocator@UAttackAttribute@@@std@@QAEPAUAttackAttribute@@I@Z PROC ; std::allocator<AttackAttribute>::allocate, COMDAT
; _this$ = ecx

; 186  : 		{	// allocate array of _Count elements

  00000	55		 push	 ebp
  00001	8b ec		 mov	 ebp, esp

; 187  : 		return (_Allocate(_Count, (pointer)0));

  00003	6a 00		 push	 0
  00005	ff 75 08	 push	 DWORD PTR __Count$[ebp]
  00008	e8 00 00 00 00	 call	 ??$_Allocate@UAttackAttribute@@@std@@YAPAUAttackAttribute@@IPAU1@@Z ; std::_Allocate<AttackAttribute>
  0000d	59		 pop	 ecx
  0000e	59		 pop	 ecx

; 188  : 		}

  0000f	5d		 pop	 ebp
  00010	c2 04 00	 ret	 4
?allocate@?$allocator@UAttackAttribute@@@std@@QAEPAUAttackAttribute@@I@Z ENDP ; std::allocator<AttackAttribute>::allocate
_TEXT	ENDS
PUBLIC	?_Grow_to@?$vector@UAttackAttribute@@V?$allocator@UAttackAttribute@@@std@@@std@@IBEII@Z ; std::vector<AttackAttribute,std::allocator<AttackAttribute> >::_Grow_to
; Function compile flags: /Ogsp
; File c:\program files (x86)\microsoft visual studio 10.0\vc\include\vector
;	COMDAT ?_Grow_to@?$vector@UAttackAttribute@@V?$allocator@UAttackAttribute@@@std@@@std@@IBEII@Z
_TEXT	SEGMENT
__Count$ = 8						; size = 4
?_Grow_to@?$vector@UAttackAttribute@@V?$allocator@UAttackAttribute@@@std@@@std@@IBEII@Z PROC ; std::vector<AttackAttribute,std::allocator<AttackAttribute> >::_Grow_to, COMDAT
; _this$ = ecx

; 1274 : 		{	// grow by 50% or at least to _Count

  00000	55		 push	 ebp
  00001	8b ec		 mov	 ebp, esp

; 1275 : 		size_type _Capacity = capacity();

  00003	8b 41 08	 mov	 eax, DWORD PTR [ecx+8]
  00006	2b 01		 sub	 eax, DWORD PTR [ecx]
  00008	6a 50		 push	 80			; 00000050H
  0000a	99		 cdq
  0000b	59		 pop	 ecx
  0000c	f7 f9		 idiv	 ecx

; 1276 : 
; 1277 : 		_Capacity = max_size() - _Capacity / 2 < _Capacity
; 1278 : 			? 0 : _Capacity + _Capacity / 2;	// try to grow by 50%

  0000e	ba 33 33 33 03	 mov	 edx, 53687091		; 03333333H
  00013	8b c8		 mov	 ecx, eax
  00015	d1 e9		 shr	 ecx, 1
  00017	2b d1		 sub	 edx, ecx
  00019	3b d0		 cmp	 edx, eax
  0001b	73 04		 jae	 SHORT $LN4@Grow_to
  0001d	33 c0		 xor	 eax, eax
  0001f	eb 02		 jmp	 SHORT $LN5@Grow_to
$LN4@Grow_to:
  00021	03 c1		 add	 eax, ecx
$LN5@Grow_to:

; 1279 : 		if (_Capacity < _Count)

  00023	3b 45 08	 cmp	 eax, DWORD PTR __Count$[ebp]

; 1280 : 			_Capacity = _Count;

  00026	0f 42 45 08	 cmovb	 eax, DWORD PTR __Count$[ebp]

; 1281 : 		return (_Capacity);
; 1282 : 		}

  0002a	5d		 pop	 ebp
  0002b	c2 04 00	 ret	 4
?_Grow_to@?$vector@UAttackAttribute@@V?$allocator@UAttackAttribute@@@std@@@std@@IBEII@Z ENDP ; std::vector<AttackAttribute,std::allocator<AttackAttribute> >::_Grow_to
_TEXT	ENDS
PUBLIC	__$ArrayPad$
PUBLIC	??$LoadInt_e@$0BD@@ioINILoader@@QAEHAAY0BD@$$CBDH@Z ; ioINILoader::LoadInt_e<19>
EXTRN	__imp_?LoadInt@ioINILoader@@QAEHPBDH@Z:PROC
; Function compile flags: /Ogsp
; File d:\lost saga for developer\youtube\tutorial\source\src\io3dengine\ioiniloader.h
;	COMDAT ??$LoadInt_e@$0BD@@ioINILoader@@QAEHAAY0BD@$$CBDH@Z
_TEXT	SEGMENT
__k$ = -28						; size = 19
__$ArrayPad$ = -4					; size = 4
_k$ = 8							; size = 4
_i$ = 12						; size = 4
??$LoadInt_e@$0BD@@ioINILoader@@QAEHAAY0BD@$$CBDH@Z PROC ; ioINILoader::LoadInt_e<19>, COMDAT
; _this$ = ecx

; 118  : 	{

  00000	55		 push	 ebp
  00001	8b ec		 mov	 ebp, esp
  00003	83 ec 1c	 sub	 esp, 28			; 0000001cH
  00006	a1 00 00 00 00	 mov	 eax, DWORD PTR ___security_cookie
  0000b	33 c5		 xor	 eax, ebp
  0000d	89 45 fc	 mov	 DWORD PTR __$ArrayPad$[ebp], eax
  00010	8b 45 08	 mov	 eax, DWORD PTR _k$[ebp]

; 119  : 		_ENCSTR(k, _k);

  00013	8a 10		 mov	 dl, BYTE PTR [eax]
  00015	56		 push	 esi
  00016	8b f1		 mov	 esi, ecx
  00018	84 d2		 test	 dl, dl
  0001a	0f 84 cf 01 00
	00		 je	 $LN96@LoadInt_e
  00020	80 f2 ed	 xor	 dl, -19			; ffffffedH
  00023	88 55 e4	 mov	 BYTE PTR __k$[ebp], dl
  00026	8a 50 01	 mov	 dl, BYTE PTR [eax+1]
  00029	84 d2		 test	 dl, dl
  0002b	0f 84 b8 01 00
	00		 je	 $LN95@LoadInt_e
  00031	b1 ec		 mov	 cl, -20			; ffffffecH
  00033	32 d1		 xor	 dl, cl
  00035	88 55 e5	 mov	 BYTE PTR __k$[ebp+1], dl
  00038	8a 50 02	 mov	 dl, BYTE PTR [eax+2]
  0003b	84 d2		 test	 dl, dl
  0003d	0f 84 a0 01 00
	00		 je	 $LN94@LoadInt_e
  00043	80 f2 eb	 xor	 dl, -21			; ffffffebH
  00046	88 55 e6	 mov	 BYTE PTR __k$[ebp+2], dl
  00049	8a 50 03	 mov	 dl, BYTE PTR [eax+3]
  0004c	84 d2		 test	 dl, dl
  0004e	0f 84 89 01 00
	00		 je	 $LN93@LoadInt_e
  00054	80 f2 ea	 xor	 dl, -22			; ffffffeaH
  00057	88 55 e7	 mov	 BYTE PTR __k$[ebp+3], dl
  0005a	8a 50 04	 mov	 dl, BYTE PTR [eax+4]
  0005d	84 d2		 test	 dl, dl
  0005f	0f 84 72 01 00
	00		 je	 $LN92@LoadInt_e
  00065	80 f2 ed	 xor	 dl, -19			; ffffffedH
  00068	88 55 e8	 mov	 BYTE PTR __k$[ebp+4], dl
  0006b	8a 50 05	 mov	 dl, BYTE PTR [eax+5]
  0006e	84 d2		 test	 dl, dl
  00070	0f 84 5c 01 00
	00		 je	 $LN91@LoadInt_e
  00076	32 d1		 xor	 dl, cl
  00078	88 55 e9	 mov	 BYTE PTR __k$[ebp+5], dl
  0007b	8a 50 06	 mov	 dl, BYTE PTR [eax+6]
  0007e	84 d2		 test	 dl, dl
  00080	0f 84 46 01 00
	00		 je	 $LN90@LoadInt_e
  00086	80 f2 eb	 xor	 dl, -21			; ffffffebH
  00089	88 55 ea	 mov	 BYTE PTR __k$[ebp+6], dl
  0008c	8a 50 07	 mov	 dl, BYTE PTR [eax+7]
  0008f	84 d2		 test	 dl, dl
  00091	0f 84 2f 01 00
	00		 je	 $LN89@LoadInt_e
  00097	80 f2 ea	 xor	 dl, -22			; ffffffeaH
  0009a	88 55 eb	 mov	 BYTE PTR __k$[ebp+7], dl
  0009d	8a 50 08	 mov	 dl, BYTE PTR [eax+8]
  000a0	84 d2		 test	 dl, dl
  000a2	0f 84 18 01 00
	00		 je	 $LN88@LoadInt_e
  000a8	80 f2 ed	 xor	 dl, -19			; ffffffedH
  000ab	88 55 ec	 mov	 BYTE PTR __k$[ebp+8], dl
  000ae	8a 50 09	 mov	 dl, BYTE PTR [eax+9]
  000b1	84 d2		 test	 dl, dl
  000b3	0f 84 02 01 00
	00		 je	 $LN87@LoadInt_e
  000b9	32 d1		 xor	 dl, cl
  000bb	88 55 ed	 mov	 BYTE PTR __k$[ebp+9], dl
  000be	8a 50 0a	 mov	 dl, BYTE PTR [eax+10]
  000c1	84 d2		 test	 dl, dl
  000c3	0f 84 ec 00 00
	00		 je	 $LN86@LoadInt_e
  000c9	80 f2 eb	 xor	 dl, -21			; ffffffebH
  000cc	88 55 ee	 mov	 BYTE PTR __k$[ebp+10], dl
  000cf	8a 50 0b	 mov	 dl, BYTE PTR [eax+11]
  000d2	84 d2		 test	 dl, dl
  000d4	0f 84 d5 00 00
	00		 je	 $LN85@LoadInt_e
  000da	80 f2 ea	 xor	 dl, -22			; ffffffeaH
  000dd	88 55 ef	 mov	 BYTE PTR __k$[ebp+11], dl
  000e0	8a 50 0c	 mov	 dl, BYTE PTR [eax+12]
  000e3	84 d2		 test	 dl, dl
  000e5	0f 84 be 00 00
	00		 je	 $LN84@LoadInt_e
  000eb	80 f2 ed	 xor	 dl, -19			; ffffffedH
  000ee	88 55 f0	 mov	 BYTE PTR __k$[ebp+12], dl
  000f1	8a 50 0d	 mov	 dl, BYTE PTR [eax+13]
  000f4	84 d2		 test	 dl, dl
  000f6	0f 84 a8 00 00
	00		 je	 $LN83@LoadInt_e
  000fc	32 d1		 xor	 dl, cl
  000fe	88 55 f1	 mov	 BYTE PTR __k$[ebp+13], dl
  00101	8a 50 0e	 mov	 dl, BYTE PTR [eax+14]
  00104	84 d2		 test	 dl, dl
  00106	0f 84 92 00 00
	00		 je	 $LN82@LoadInt_e
  0010c	80 f2 eb	 xor	 dl, -21			; ffffffebH
  0010f	88 55 f2	 mov	 BYTE PTR __k$[ebp+14], dl
  00112	8a 50 0f	 mov	 dl, BYTE PTR [eax+15]
  00115	84 d2		 test	 dl, dl
  00117	74 7f		 je	 SHORT $LN81@LoadInt_e
  00119	80 f2 ea	 xor	 dl, -22			; ffffffeaH
  0011c	88 55 f3	 mov	 BYTE PTR __k$[ebp+15], dl
  0011f	8a 50 10	 mov	 dl, BYTE PTR [eax+16]
  00122	84 d2		 test	 dl, dl
  00124	74 6c		 je	 SHORT $LN80@LoadInt_e
  00126	80 f2 ed	 xor	 dl, -19			; ffffffedH
  00129	88 55 f4	 mov	 BYTE PTR __k$[ebp+16], dl
  0012c	8a 50 11	 mov	 dl, BYTE PTR [eax+17]
  0012f	84 d2		 test	 dl, dl
  00131	74 5a		 je	 SHORT $LN79@LoadInt_e
  00133	32 d1		 xor	 dl, cl
  00135	80 78 12 00	 cmp	 BYTE PTR [eax+18], 0
  00139	88 55 f5	 mov	 BYTE PTR __k$[ebp+17], dl
  0013c	0f 84 b1 00 00
	00		 je	 $LN1@LoadInt_e
  00142	8a 50 13	 mov	 dl, BYTE PTR [eax+19]
  00145	84 d2		 test	 dl, dl
  00147	74 3e		 je	 SHORT $LN77@LoadInt_e
  00149	80 f2 ea	 xor	 dl, -22			; ffffffeaH
  0014c	88 55 f7	 mov	 BYTE PTR __k$[ebp+19], dl
  0014f	8a 50 14	 mov	 dl, BYTE PTR [eax+20]
  00152	84 d2		 test	 dl, dl
  00154	74 2b		 je	 SHORT $LN76@LoadInt_e
  00156	80 f2 ed	 xor	 dl, -19			; ffffffedH
  00159	88 55 f8	 mov	 BYTE PTR __k$[ebp+20], dl
  0015c	8a 50 15	 mov	 dl, BYTE PTR [eax+21]
  0015f	84 d2		 test	 dl, dl
  00161	74 19		 je	 SHORT $LN75@LoadInt_e
  00163	8a 40 16	 mov	 al, BYTE PTR [eax+22]
  00166	32 d1		 xor	 dl, cl
  00168	88 55 f9	 mov	 BYTE PTR __k$[ebp+21], dl
  0016b	84 c0		 test	 al, al
  0016d	74 07		 je	 SHORT $LN74@LoadInt_e
  0016f	34 eb		 xor	 al, -21			; ffffffebH
  00171	88 45 fa	 mov	 BYTE PTR __k$[ebp+22], al
  00174	eb 7d		 jmp	 SHORT $LN1@LoadInt_e
$LN74@LoadInt_e:
  00176	c6 45 fa eb	 mov	 BYTE PTR __k$[ebp+22], -21 ; ffffffebH
  0017a	eb 77		 jmp	 SHORT $LN1@LoadInt_e
$LN75@LoadInt_e:
  0017c	88 4d f9	 mov	 BYTE PTR __k$[ebp+21], cl
  0017f	eb 72		 jmp	 SHORT $LN1@LoadInt_e
$LN76@LoadInt_e:
  00181	c6 45 f8 ed	 mov	 BYTE PTR __k$[ebp+20], -19 ; ffffffedH
  00185	eb 6c		 jmp	 SHORT $LN1@LoadInt_e
$LN77@LoadInt_e:
  00187	c6 45 f7 ea	 mov	 BYTE PTR __k$[ebp+19], -22 ; ffffffeaH
  0018b	eb 66		 jmp	 SHORT $LN1@LoadInt_e
$LN79@LoadInt_e:
  0018d	88 4d f5	 mov	 BYTE PTR __k$[ebp+17], cl
  00190	eb 61		 jmp	 SHORT $LN1@LoadInt_e
$LN80@LoadInt_e:
  00192	c6 45 f4 ed	 mov	 BYTE PTR __k$[ebp+16], -19 ; ffffffedH
  00196	eb 5b		 jmp	 SHORT $LN1@LoadInt_e
$LN81@LoadInt_e:
  00198	c6 45 f3 ea	 mov	 BYTE PTR __k$[ebp+15], -22 ; ffffffeaH
  0019c	eb 55		 jmp	 SHORT $LN1@LoadInt_e
$LN82@LoadInt_e:
  0019e	c6 45 f2 eb	 mov	 BYTE PTR __k$[ebp+14], -21 ; ffffffebH
  001a2	eb 4f		 jmp	 SHORT $LN1@LoadInt_e
$LN83@LoadInt_e:
  001a4	88 4d f1	 mov	 BYTE PTR __k$[ebp+13], cl
  001a7	eb 4a		 jmp	 SHORT $LN1@LoadInt_e
$LN84@LoadInt_e:
  001a9	c6 45 f0 ed	 mov	 BYTE PTR __k$[ebp+12], -19 ; ffffffedH
  001ad	eb 44		 jmp	 SHORT $LN1@LoadInt_e
$LN85@LoadInt_e:
  001af	c6 45 ef ea	 mov	 BYTE PTR __k$[ebp+11], -22 ; ffffffeaH
  001b3	eb 3e		 jmp	 SHORT $LN1@LoadInt_e
$LN86@LoadInt_e:
  001b5	c6 45 ee eb	 mov	 BYTE PTR __k$[ebp+10], -21 ; ffffffebH
  001b9	eb 38		 jmp	 SHORT $LN1@LoadInt_e
$LN87@LoadInt_e:
  001bb	88 4d ed	 mov	 BYTE PTR __k$[ebp+9], cl
  001be	eb 33		 jmp	 SHORT $LN1@LoadInt_e
$LN88@LoadInt_e:
  001c0	c6 45 ec ed	 mov	 BYTE PTR __k$[ebp+8], -19 ; ffffffedH
  001c4	eb 2d		 jmp	 SHORT $LN1@LoadInt_e
$LN89@LoadInt_e:
  001c6	c6 45 eb ea	 mov	 BYTE PTR __k$[ebp+7], -22 ; ffffffeaH
  001ca	eb 27		 jmp	 SHORT $LN1@LoadInt_e
$LN90@LoadInt_e:
  001cc	c6 45 ea eb	 mov	 BYTE PTR __k$[ebp+6], -21 ; ffffffebH
  001d0	eb 21		 jmp	 SHORT $LN1@LoadInt_e
$LN91@LoadInt_e:
  001d2	88 4d e9	 mov	 BYTE PTR __k$[ebp+5], cl
  001d5	eb 1c		 jmp	 SHORT $LN1@LoadInt_e
$LN92@LoadInt_e:
  001d7	c6 45 e8 ed	 mov	 BYTE PTR __k$[ebp+4], -19 ; ffffffedH
  001db	eb 16		 jmp	 SHORT $LN1@LoadInt_e
$LN93@LoadInt_e:
  001dd	c6 45 e7 ea	 mov	 BYTE PTR __k$[ebp+3], -22 ; ffffffeaH
  001e1	eb 10		 jmp	 SHORT $LN1@LoadInt_e
$LN94@LoadInt_e:
  001e3	c6 45 e6 eb	 mov	 BYTE PTR __k$[ebp+2], -21 ; ffffffebH
  001e7	eb 0a		 jmp	 SHORT $LN1@LoadInt_e
$LN95@LoadInt_e:
  001e9	c6 45 e5 ec	 mov	 BYTE PTR __k$[ebp+1], -20 ; ffffffecH
  001ed	eb 04		 jmp	 SHORT $LN1@LoadInt_e
$LN96@LoadInt_e:
  001ef	c6 45 e4 ed	 mov	 BYTE PTR __k$[ebp], -19	; ffffffedH
$LN1@LoadInt_e:
  001f3	6a 04		 push	 4
  001f5	8d 45 e4	 lea	 eax, DWORD PTR __k$[ebp]
  001f8	c6 45 f6 00	 mov	 BYTE PTR __k$[ebp+18], 0
  001fc	5a		 pop	 edx
$LL104@LoadInt_e:
  001fd	81 30 ed ec eb
	ea		 xor	 DWORD PTR [eax], -353637139 ; eaebecedH
  00203	83 c0 04	 add	 eax, 4
  00206	4a		 dec	 edx
  00207	75 f4		 jne	 SHORT $LL104@LoadInt_e
  00209	6a 10		 push	 16			; 00000010H
  0020b	58		 pop	 eax
$LL101@LoadInt_e:
  0020c	8b c8		 mov	 ecx, eax
  0020e	81 e1 03 00 00
	80		 and	 ecx, -2147483645	; 80000003H
  00214	79 05		 jns	 SHORT $LN111@LoadInt_e
  00216	49		 dec	 ecx
  00217	83 c9 fc	 or	 ecx, -4			; fffffffcH
  0021a	41		 inc	 ecx
$LN111@LoadInt_e:
  0021b	b2 ed		 mov	 dl, -19			; ffffffedH
  0021d	2a d1		 sub	 dl, cl
  0021f	30 54 05 e4	 xor	 BYTE PTR __k$[ebp+eax], dl
  00223	40		 inc	 eax
  00224	83 f8 12	 cmp	 eax, 18			; 00000012H
  00227	7c e3		 jl	 SHORT $LL101@LoadInt_e

; 120  : 		return LoadInt(_k, i);

  00229	ff 75 0c	 push	 DWORD PTR _i$[ebp]
  0022c	8d 45 e4	 lea	 eax, DWORD PTR __k$[ebp]
  0022f	50		 push	 eax
  00230	8b ce		 mov	 ecx, esi
  00232	ff 15 00 00 00
	00		 call	 DWORD PTR __imp_?LoadInt@ioINILoader@@QAEHPBDH@Z

; 121  : 	}

  00238	8b 4d fc	 mov	 ecx, DWORD PTR __$ArrayPad$[ebp]
  0023b	33 cd		 xor	 ecx, ebp
  0023d	5e		 pop	 esi
  0023e	e8 00 00 00 00	 call	 @__security_check_cookie@4
  00243	c9		 leave
  00244	c2 08 00	 ret	 8
??$LoadInt_e@$0BD@@ioINILoader@@QAEHAAY0BD@$$CBDH@Z ENDP ; ioINILoader::LoadInt_e<19>
_TEXT	ENDS
PUBLIC	__$ArrayPad$
PUBLIC	??$LoadInt_e@$0BB@@ioINILoader@@QAEHAAY0BB@$$CBDH@Z ; ioINILoader::LoadInt_e<17>
; Function compile flags: /Ogsp
;	COMDAT ??$LoadInt_e@$0BB@@ioINILoader@@QAEHAAY0BB@$$CBDH@Z
_TEXT	SEGMENT
__k$ = -28						; size = 17
__$ArrayPad$ = -4					; size = 4
_k$ = 8							; size = 4
_i$ = 12						; size = 4
??$LoadInt_e@$0BB@@ioINILoader@@QAEHAAY0BB@$$CBDH@Z PROC ; ioINILoader::LoadInt_e<17>, COMDAT
; _this$ = ecx

; 118  : 	{

  00000	55		 push	 ebp
  00001	8b ec		 mov	 ebp, esp
  00003	83 ec 1c	 sub	 esp, 28			; 0000001cH
  00006	a1 00 00 00 00	 mov	 eax, DWORD PTR ___security_cookie
  0000b	33 c5		 xor	 eax, ebp
  0000d	89 45 fc	 mov	 DWORD PTR __$ArrayPad$[ebp], eax
  00010	8b 45 08	 mov	 eax, DWORD PTR _k$[ebp]

; 119  : 		_ENCSTR(k, _k);

  00013	8a 10		 mov	 dl, BYTE PTR [eax]
  00015	56		 push	 esi
  00016	8b f1		 mov	 esi, ecx
  00018	84 d2		 test	 dl, dl
  0001a	0f 84 a7 01 00
	00		 je	 $LN96@LoadInt_e@2
  00020	80 f2 ed	 xor	 dl, -19			; ffffffedH
  00023	88 55 e4	 mov	 BYTE PTR __k$[ebp], dl
  00026	8a 50 01	 mov	 dl, BYTE PTR [eax+1]
  00029	84 d2		 test	 dl, dl
  0002b	0f 84 90 01 00
	00		 je	 $LN95@LoadInt_e@2
  00031	b1 ec		 mov	 cl, -20			; ffffffecH
  00033	32 d1		 xor	 dl, cl
  00035	88 55 e5	 mov	 BYTE PTR __k$[ebp+1], dl
  00038	8a 50 02	 mov	 dl, BYTE PTR [eax+2]
  0003b	84 d2		 test	 dl, dl
  0003d	0f 84 78 01 00
	00		 je	 $LN94@LoadInt_e@2
  00043	80 f2 eb	 xor	 dl, -21			; ffffffebH
  00046	88 55 e6	 mov	 BYTE PTR __k$[ebp+2], dl
  00049	8a 50 03	 mov	 dl, BYTE PTR [eax+3]
  0004c	84 d2		 test	 dl, dl
  0004e	0f 84 61 01 00
	00		 je	 $LN93@LoadInt_e@2
  00054	80 f2 ea	 xor	 dl, -22			; ffffffeaH
  00057	88 55 e7	 mov	 BYTE PTR __k$[ebp+3], dl
  0005a	8a 50 04	 mov	 dl, BYTE PTR [eax+4]
  0005d	84 d2		 test	 dl, dl
  0005f	0f 84 4a 01 00
	00		 je	 $LN92@LoadInt_e@2
  00065	80 f2 ed	 xor	 dl, -19			; ffffffedH
  00068	88 55 e8	 mov	 BYTE PTR __k$[ebp+4], dl
  0006b	8a 50 05	 mov	 dl, BYTE PTR [eax+5]
  0006e	84 d2		 test	 dl, dl
  00070	0f 84 34 01 00
	00		 je	 $LN91@LoadInt_e@2
  00076	32 d1		 xor	 dl, cl
  00078	88 55 e9	 mov	 BYTE PTR __k$[ebp+5], dl
  0007b	8a 50 06	 mov	 dl, BYTE PTR [eax+6]
  0007e	84 d2		 test	 dl, dl
  00080	0f 84 1e 01 00
	00		 je	 $LN90@LoadInt_e@2
  00086	80 f2 eb	 xor	 dl, -21			; ffffffebH
  00089	88 55 ea	 mov	 BYTE PTR __k$[ebp+6], dl
  0008c	8a 50 07	 mov	 dl, BYTE PTR [eax+7]
  0008f	84 d2		 test	 dl, dl
  00091	0f 84 07 01 00
	00		 je	 $LN89@LoadInt_e@2
  00097	80 f2 ea	 xor	 dl, -22			; ffffffeaH
  0009a	88 55 eb	 mov	 BYTE PTR __k$[ebp+7], dl
  0009d	8a 50 08	 mov	 dl, BYTE PTR [eax+8]
  000a0	84 d2		 test	 dl, dl
  000a2	0f 84 f0 00 00
	00		 je	 $LN88@LoadInt_e@2
  000a8	80 f2 ed	 xor	 dl, -19			; ffffffedH
  000ab	88 55 ec	 mov	 BYTE PTR __k$[ebp+8], dl
  000ae	8a 50 09	 mov	 dl, BYTE PTR [eax+9]
  000b1	84 d2		 test	 dl, dl
  000b3	0f 84 da 00 00
	00		 je	 $LN87@LoadInt_e@2
  000b9	32 d1		 xor	 dl, cl
  000bb	88 55 ed	 mov	 BYTE PTR __k$[ebp+9], dl
  000be	8a 50 0a	 mov	 dl, BYTE PTR [eax+10]
  000c1	84 d2		 test	 dl, dl
  000c3	0f 84 c4 00 00
	00		 je	 $LN86@LoadInt_e@2
  000c9	80 f2 eb	 xor	 dl, -21			; ffffffebH
  000cc	88 55 ee	 mov	 BYTE PTR __k$[ebp+10], dl
  000cf	8a 50 0b	 mov	 dl, BYTE PTR [eax+11]
  000d2	84 d2		 test	 dl, dl
  000d4	0f 84 ad 00 00
	00		 je	 $LN85@LoadInt_e@2
  000da	80 f2 ea	 xor	 dl, -22			; ffffffeaH
  000dd	88 55 ef	 mov	 BYTE PTR __k$[ebp+11], dl
  000e0	8a 50 0c	 mov	 dl, BYTE PTR [eax+12]
  000e3	84 d2		 test	 dl, dl
  000e5	0f 84 96 00 00
	00		 je	 $LN84@LoadInt_e@2
  000eb	80 f2 ed	 xor	 dl, -19			; ffffffedH
  000ee	88 55 f0	 mov	 BYTE PTR __k$[ebp+12], dl
  000f1	8a 50 0d	 mov	 dl, BYTE PTR [eax+13]
  000f4	84 d2		 test	 dl, dl
  000f6	0f 84 80 00 00
	00		 je	 $LN83@LoadInt_e@2
  000fc	32 d1		 xor	 dl, cl
  000fe	88 55 f1	 mov	 BYTE PTR __k$[ebp+13], dl
  00101	8a 50 0e	 mov	 dl, BYTE PTR [eax+14]
  00104	84 d2		 test	 dl, dl
  00106	74 6e		 je	 SHORT $LN82@LoadInt_e@2
  00108	80 f2 eb	 xor	 dl, -21			; ffffffebH
  0010b	88 55 f2	 mov	 BYTE PTR __k$[ebp+14], dl
  0010e	8a 50 0f	 mov	 dl, BYTE PTR [eax+15]
  00111	84 d2		 test	 dl, dl
  00113	74 5b		 je	 SHORT $LN81@LoadInt_e@2
  00115	80 f2 ea	 xor	 dl, -22			; ffffffeaH
  00118	80 78 10 00	 cmp	 BYTE PTR [eax+16], 0
  0011c	88 55 f3	 mov	 BYTE PTR __k$[ebp+15], dl
  0011f	0f 84 a6 00 00
	00		 je	 $LN1@LoadInt_e@2
  00125	8a 50 11	 mov	 dl, BYTE PTR [eax+17]
  00128	84 d2		 test	 dl, dl
  0012a	74 3f		 je	 SHORT $LN79@LoadInt_e@2
  0012c	32 d1		 xor	 dl, cl
  0012e	88 55 f5	 mov	 BYTE PTR __k$[ebp+17], dl
  00131	8a 50 12	 mov	 dl, BYTE PTR [eax+18]
  00134	84 d2		 test	 dl, dl
  00136	74 2d		 je	 SHORT $LN78@LoadInt_e@2
  00138	80 f2 eb	 xor	 dl, -21			; ffffffebH
  0013b	88 55 f6	 mov	 BYTE PTR __k$[ebp+18], dl
  0013e	8a 50 13	 mov	 dl, BYTE PTR [eax+19]
  00141	84 d2		 test	 dl, dl
  00143	74 1a		 je	 SHORT $LN77@LoadInt_e@2
  00145	8a 40 14	 mov	 al, BYTE PTR [eax+20]
  00148	80 f2 ea	 xor	 dl, -22			; ffffffeaH
  0014b	88 55 f7	 mov	 BYTE PTR __k$[ebp+19], dl
  0014e	84 c0		 test	 al, al
  00150	74 07		 je	 SHORT $LN76@LoadInt_e@2
  00152	34 ed		 xor	 al, -19			; ffffffedH
  00154	88 45 f8	 mov	 BYTE PTR __k$[ebp+20], al
  00157	eb 72		 jmp	 SHORT $LN1@LoadInt_e@2
$LN76@LoadInt_e@2:
  00159	c6 45 f8 ed	 mov	 BYTE PTR __k$[ebp+20], -19 ; ffffffedH
  0015d	eb 6c		 jmp	 SHORT $LN1@LoadInt_e@2
$LN77@LoadInt_e@2:
  0015f	c6 45 f7 ea	 mov	 BYTE PTR __k$[ebp+19], -22 ; ffffffeaH
  00163	eb 66		 jmp	 SHORT $LN1@LoadInt_e@2
$LN78@LoadInt_e@2:
  00165	c6 45 f6 eb	 mov	 BYTE PTR __k$[ebp+18], -21 ; ffffffebH
  00169	eb 60		 jmp	 SHORT $LN1@LoadInt_e@2
$LN79@LoadInt_e@2:
  0016b	88 4d f5	 mov	 BYTE PTR __k$[ebp+17], cl
  0016e	eb 5b		 jmp	 SHORT $LN1@LoadInt_e@2
$LN81@LoadInt_e@2:
  00170	c6 45 f3 ea	 mov	 BYTE PTR __k$[ebp+15], -22 ; ffffffeaH
  00174	eb 55		 jmp	 SHORT $LN1@LoadInt_e@2
$LN82@LoadInt_e@2:
  00176	c6 45 f2 eb	 mov	 BYTE PTR __k$[ebp+14], -21 ; ffffffebH
  0017a	eb 4f		 jmp	 SHORT $LN1@LoadInt_e@2
$LN83@LoadInt_e@2:
  0017c	88 4d f1	 mov	 BYTE PTR __k$[ebp+13], cl
  0017f	eb 4a		 jmp	 SHORT $LN1@LoadInt_e@2
$LN84@LoadInt_e@2:
  00181	c6 45 f0 ed	 mov	 BYTE PTR __k$[ebp+12], -19 ; ffffffedH
  00185	eb 44		 jmp	 SHORT $LN1@LoadInt_e@2
$LN85@LoadInt_e@2:
  00187	c6 45 ef ea	 mov	 BYTE PTR __k$[ebp+11], -22 ; ffffffeaH
  0018b	eb 3e		 jmp	 SHORT $LN1@LoadInt_e@2
$LN86@LoadInt_e@2:
  0018d	c6 45 ee eb	 mov	 BYTE PTR __k$[ebp+10], -21 ; ffffffebH
  00191	eb 38		 jmp	 SHORT $LN1@LoadInt_e@2
$LN87@LoadInt_e@2:
  00193	88 4d ed	 mov	 BYTE PTR __k$[ebp+9], cl
  00196	eb 33		 jmp	 SHORT $LN1@LoadInt_e@2
$LN88@LoadInt_e@2:
  00198	c6 45 ec ed	 mov	 BYTE PTR __k$[ebp+8], -19 ; ffffffedH
  0019c	eb 2d		 jmp	 SHORT $LN1@LoadInt_e@2
$LN89@LoadInt_e@2:
  0019e	c6 45 eb ea	 mov	 BYTE PTR __k$[ebp+7], -22 ; ffffffeaH
  001a2	eb 27		 jmp	 SHORT $LN1@LoadInt_e@2
$LN90@LoadInt_e@2:
  001a4	c6 45 ea eb	 mov	 BYTE PTR __k$[ebp+6], -21 ; ffffffebH
  001a8	eb 21		 jmp	 SHORT $LN1@LoadInt_e@2
$LN91@LoadInt_e@2:
  001aa	88 4d e9	 mov	 BYTE PTR __k$[ebp+5], cl
  001ad	eb 1c		 jmp	 SHORT $LN1@LoadInt_e@2
$LN92@LoadInt_e@2:
  001af	c6 45 e8 ed	 mov	 BYTE PTR __k$[ebp+4], -19 ; ffffffedH
  001b3	eb 16		 jmp	 SHORT $LN1@LoadInt_e@2
$LN93@LoadInt_e@2:
  001b5	c6 45 e7 ea	 mov	 BYTE PTR __k$[ebp+3], -22 ; ffffffeaH
  001b9	eb 10		 jmp	 SHORT $LN1@LoadInt_e@2
$LN94@LoadInt_e@2:
  001bb	c6 45 e6 eb	 mov	 BYTE PTR __k$[ebp+2], -21 ; ffffffebH
  001bf	eb 0a		 jmp	 SHORT $LN1@LoadInt_e@2
$LN95@LoadInt_e@2:
  001c1	c6 45 e5 ec	 mov	 BYTE PTR __k$[ebp+1], -20 ; ffffffecH
  001c5	eb 04		 jmp	 SHORT $LN1@LoadInt_e@2
$LN96@LoadInt_e@2:
  001c7	c6 45 e4 ed	 mov	 BYTE PTR __k$[ebp], -19	; ffffffedH
$LN1@LoadInt_e@2:
  001cb	6a 04		 push	 4
  001cd	8d 45 e4	 lea	 eax, DWORD PTR __k$[ebp]
  001d0	c6 45 f4 00	 mov	 BYTE PTR __k$[ebp+16], 0
  001d4	5a		 pop	 edx
$LL104@LoadInt_e@2:
  001d5	81 30 ed ec eb
	ea		 xor	 DWORD PTR [eax], -353637139 ; eaebecedH
  001db	83 c0 04	 add	 eax, 4
  001de	4a		 dec	 edx
  001df	75 f4		 jne	 SHORT $LL104@LoadInt_e@2

; 120  : 		return LoadInt(_k, i);

  001e1	ff 75 0c	 push	 DWORD PTR _i$[ebp]
  001e4	8d 45 e4	 lea	 eax, DWORD PTR __k$[ebp]
  001e7	50		 push	 eax
  001e8	8b ce		 mov	 ecx, esi
  001ea	ff 15 00 00 00
	00		 call	 DWORD PTR __imp_?LoadInt@ioINILoader@@QAEHPBDH@Z

; 121  : 	}

  001f0	8b 4d fc	 mov	 ecx, DWORD PTR __$ArrayPad$[ebp]
  001f3	33 cd		 xor	 ecx, ebp
  001f5	5e		 pop	 esi
  001f6	e8 00 00 00 00	 call	 @__security_check_cookie@4
  001fb	c9		 leave
  001fc	c2 08 00	 ret	 8
??$LoadInt_e@$0BB@@ioINILoader@@QAEHAAY0BB@$$CBDH@Z ENDP ; ioINILoader::LoadInt_e<17>
_TEXT	ENDS
PUBLIC	__$ArrayPad$
PUBLIC	??$LoadInt_e@$0BG@@ioINILoader@@QAEHAAY0BG@$$CBDH@Z ; ioINILoader::LoadInt_e<22>
; Function compile flags: /Ogsp
;	COMDAT ??$LoadInt_e@$0BG@@ioINILoader@@QAEHAAY0BG@$$CBDH@Z
_TEXT	SEGMENT
__k$ = -32						; size = 22
__$ArrayPad$ = -4					; size = 4
_k$ = 8							; size = 4
_i$ = 12						; size = 4
??$LoadInt_e@$0BG@@ioINILoader@@QAEHAAY0BG@$$CBDH@Z PROC ; ioINILoader::LoadInt_e<22>, COMDAT
; _this$ = ecx

; 118  : 	{

  00000	55		 push	 ebp
  00001	8b ec		 mov	 ebp, esp
  00003	83 ec 20	 sub	 esp, 32			; 00000020H
  00006	a1 00 00 00 00	 mov	 eax, DWORD PTR ___security_cookie
  0000b	33 c5		 xor	 eax, ebp
  0000d	89 45 fc	 mov	 DWORD PTR __$ArrayPad$[ebp], eax
  00010	8b 45 08	 mov	 eax, DWORD PTR _k$[ebp]

; 119  : 		_ENCSTR(k, _k);

  00013	8a 10		 mov	 dl, BYTE PTR [eax]
  00015	53		 push	 ebx
  00016	56		 push	 esi
  00017	8b f1		 mov	 esi, ecx
  00019	84 d2		 test	 dl, dl
  0001b	0f 84 15 02 00
	00		 je	 $LN96@LoadInt_e@3
  00021	80 f2 ed	 xor	 dl, -19			; ffffffedH
  00024	88 55 e0	 mov	 BYTE PTR __k$[ebp], dl
  00027	8a 50 01	 mov	 dl, BYTE PTR [eax+1]
  0002a	84 d2		 test	 dl, dl
  0002c	0f 84 fe 01 00
	00		 je	 $LN95@LoadInt_e@3
  00032	80 f2 ec	 xor	 dl, -20			; ffffffecH
  00035	88 55 e1	 mov	 BYTE PTR __k$[ebp+1], dl
  00038	8a 50 02	 mov	 dl, BYTE PTR [eax+2]
  0003b	84 d2		 test	 dl, dl
  0003d	0f 84 e7 01 00
	00		 je	 $LN94@LoadInt_e@3
  00043	b1 eb		 mov	 cl, -21			; ffffffebH
  00045	32 d1		 xor	 dl, cl
  00047	88 55 e2	 mov	 BYTE PTR __k$[ebp+2], dl
  0004a	8a 50 03	 mov	 dl, BYTE PTR [eax+3]
  0004d	84 d2		 test	 dl, dl
  0004f	0f 84 cf 01 00
	00		 je	 $LN93@LoadInt_e@3
  00055	b3 ea		 mov	 bl, -22			; ffffffeaH
  00057	32 d3		 xor	 dl, bl
  00059	88 55 e3	 mov	 BYTE PTR __k$[ebp+3], dl
  0005c	8a 50 04	 mov	 dl, BYTE PTR [eax+4]
  0005f	84 d2		 test	 dl, dl
  00061	0f 84 b7 01 00
	00		 je	 $LN92@LoadInt_e@3
  00067	80 f2 ed	 xor	 dl, -19			; ffffffedH
  0006a	88 55 e4	 mov	 BYTE PTR __k$[ebp+4], dl
  0006d	8a 50 05	 mov	 dl, BYTE PTR [eax+5]
  00070	84 d2		 test	 dl, dl
  00072	0f 84 a0 01 00
	00		 je	 $LN91@LoadInt_e@3
  00078	80 f2 ec	 xor	 dl, -20			; ffffffecH
  0007b	88 55 e5	 mov	 BYTE PTR __k$[ebp+5], dl
  0007e	8a 50 06	 mov	 dl, BYTE PTR [eax+6]
  00081	84 d2		 test	 dl, dl
  00083	0f 84 8a 01 00
	00		 je	 $LN90@LoadInt_e@3
  00089	32 d1		 xor	 dl, cl
  0008b	88 55 e6	 mov	 BYTE PTR __k$[ebp+6], dl
  0008e	8a 50 07	 mov	 dl, BYTE PTR [eax+7]
  00091	84 d2		 test	 dl, dl
  00093	0f 84 75 01 00
	00		 je	 $LN89@LoadInt_e@3
  00099	32 d3		 xor	 dl, bl
  0009b	88 55 e7	 mov	 BYTE PTR __k$[ebp+7], dl
  0009e	8a 50 08	 mov	 dl, BYTE PTR [eax+8]
  000a1	84 d2		 test	 dl, dl
  000a3	0f 84 5f 01 00
	00		 je	 $LN88@LoadInt_e@3
  000a9	80 f2 ed	 xor	 dl, -19			; ffffffedH
  000ac	88 55 e8	 mov	 BYTE PTR __k$[ebp+8], dl
  000af	8a 50 09	 mov	 dl, BYTE PTR [eax+9]
  000b2	84 d2		 test	 dl, dl
  000b4	0f 84 48 01 00
	00		 je	 $LN87@LoadInt_e@3
  000ba	80 f2 ec	 xor	 dl, -20			; ffffffecH
  000bd	88 55 e9	 mov	 BYTE PTR __k$[ebp+9], dl
  000c0	8a 50 0a	 mov	 dl, BYTE PTR [eax+10]
  000c3	84 d2		 test	 dl, dl
  000c5	0f 84 32 01 00
	00		 je	 $LN86@LoadInt_e@3
  000cb	32 d1		 xor	 dl, cl
  000cd	88 55 ea	 mov	 BYTE PTR __k$[ebp+10], dl
  000d0	8a 50 0b	 mov	 dl, BYTE PTR [eax+11]
  000d3	84 d2		 test	 dl, dl
  000d5	0f 84 1d 01 00
	00		 je	 $LN85@LoadInt_e@3
  000db	32 d3		 xor	 dl, bl
  000dd	88 55 eb	 mov	 BYTE PTR __k$[ebp+11], dl
  000e0	8a 50 0c	 mov	 dl, BYTE PTR [eax+12]
  000e3	84 d2		 test	 dl, dl
  000e5	0f 84 07 01 00
	00		 je	 $LN84@LoadInt_e@3
  000eb	80 f2 ed	 xor	 dl, -19			; ffffffedH
  000ee	88 55 ec	 mov	 BYTE PTR __k$[ebp+12], dl
  000f1	8a 50 0d	 mov	 dl, BYTE PTR [eax+13]
  000f4	84 d2		 test	 dl, dl
  000f6	0f 84 f0 00 00
	00		 je	 $LN83@LoadInt_e@3
  000fc	80 f2 ec	 xor	 dl, -20			; ffffffecH
  000ff	88 55 ed	 mov	 BYTE PTR __k$[ebp+13], dl
  00102	8a 50 0e	 mov	 dl, BYTE PTR [eax+14]
  00105	84 d2		 test	 dl, dl
  00107	0f 84 da 00 00
	00		 je	 $LN82@LoadInt_e@3
  0010d	32 d1		 xor	 dl, cl
  0010f	88 55 ee	 mov	 BYTE PTR __k$[ebp+14], dl
  00112	8a 50 0f	 mov	 dl, BYTE PTR [eax+15]
  00115	84 d2		 test	 dl, dl
  00117	0f 84 c5 00 00
	00		 je	 $LN81@LoadInt_e@3
  0011d	32 d3		 xor	 dl, bl
  0011f	88 55 ef	 mov	 BYTE PTR __k$[ebp+15], dl
  00122	8a 50 10	 mov	 dl, BYTE PTR [eax+16]
  00125	84 d2		 test	 dl, dl
  00127	0f 84 af 00 00
	00		 je	 $LN80@LoadInt_e@3
  0012d	80 f2 ed	 xor	 dl, -19			; ffffffedH
  00130	88 55 f0	 mov	 BYTE PTR __k$[ebp+16], dl
  00133	8a 50 11	 mov	 dl, BYTE PTR [eax+17]
  00136	84 d2		 test	 dl, dl
  00138	0f 84 98 00 00
	00		 je	 $LN79@LoadInt_e@3
  0013e	80 f2 ec	 xor	 dl, -20			; ffffffecH
  00141	88 55 f1	 mov	 BYTE PTR __k$[ebp+17], dl
  00144	8a 50 12	 mov	 dl, BYTE PTR [eax+18]
  00147	84 d2		 test	 dl, dl
  00149	0f 84 82 00 00
	00		 je	 $LN78@LoadInt_e@3
  0014f	32 d1		 xor	 dl, cl
  00151	88 55 f2	 mov	 BYTE PTR __k$[ebp+18], dl
  00154	8a 50 13	 mov	 dl, BYTE PTR [eax+19]
  00157	84 d2		 test	 dl, dl
  00159	74 71		 je	 SHORT $LN77@LoadInt_e@3
  0015b	32 d3		 xor	 dl, bl
  0015d	88 55 f3	 mov	 BYTE PTR __k$[ebp+19], dl
  00160	8a 50 14	 mov	 dl, BYTE PTR [eax+20]
  00163	84 d2		 test	 dl, dl
  00165	74 5f		 je	 SHORT $LN76@LoadInt_e@3
  00167	80 f2 ed	 xor	 dl, -19			; ffffffedH
  0016a	80 78 15 00	 cmp	 BYTE PTR [eax+21], 0
  0016e	88 55 f4	 mov	 BYTE PTR __k$[ebp+20], dl
  00171	0f 84 c3 00 00
	00		 je	 $LN1@LoadInt_e@3
  00177	8a 50 16	 mov	 dl, BYTE PTR [eax+22]
  0017a	84 d2		 test	 dl, dl
  0017c	74 43		 je	 SHORT $LN74@LoadInt_e@3
  0017e	32 d1		 xor	 dl, cl
  00180	88 55 f6	 mov	 BYTE PTR __k$[ebp+22], dl
  00183	8a 50 17	 mov	 dl, BYTE PTR [eax+23]
  00186	84 d2		 test	 dl, dl
  00188	74 32		 je	 SHORT $LN73@LoadInt_e@3
  0018a	32 d3		 xor	 dl, bl
  0018c	88 55 f7	 mov	 BYTE PTR __k$[ebp+23], dl
  0018f	8a 50 18	 mov	 dl, BYTE PTR [eax+24]
  00192	84 d2		 test	 dl, dl
  00194	74 20		 je	 SHORT $LN72@LoadInt_e@3
  00196	8a 40 19	 mov	 al, BYTE PTR [eax+25]
  00199	80 f2 ed	 xor	 dl, -19			; ffffffedH
  0019c	88 55 f8	 mov	 BYTE PTR __k$[ebp+24], dl
  0019f	84 c0		 test	 al, al
  001a1	74 0a		 je	 SHORT $LN71@LoadInt_e@3
  001a3	34 ec		 xor	 al, -20			; ffffffecH
  001a5	88 45 f9	 mov	 BYTE PTR __k$[ebp+25], al
  001a8	e9 8d 00 00 00	 jmp	 $LN1@LoadInt_e@3
$LN71@LoadInt_e@3:
  001ad	c6 45 f9 ec	 mov	 BYTE PTR __k$[ebp+25], -20 ; ffffffecH
  001b1	e9 84 00 00 00	 jmp	 $LN1@LoadInt_e@3
$LN72@LoadInt_e@3:
  001b6	c6 45 f8 ed	 mov	 BYTE PTR __k$[ebp+24], -19 ; ffffffedH
  001ba	eb 7e		 jmp	 SHORT $LN1@LoadInt_e@3
$LN73@LoadInt_e@3:
  001bc	88 5d f7	 mov	 BYTE PTR __k$[ebp+23], bl
  001bf	eb 79		 jmp	 SHORT $LN1@LoadInt_e@3
$LN74@LoadInt_e@3:
  001c1	88 4d f6	 mov	 BYTE PTR __k$[ebp+22], cl
  001c4	eb 74		 jmp	 SHORT $LN1@LoadInt_e@3
$LN76@LoadInt_e@3:
  001c6	c6 45 f4 ed	 mov	 BYTE PTR __k$[ebp+20], -19 ; ffffffedH
  001ca	eb 6e		 jmp	 SHORT $LN1@LoadInt_e@3
$LN77@LoadInt_e@3:
  001cc	88 5d f3	 mov	 BYTE PTR __k$[ebp+19], bl
  001cf	eb 69		 jmp	 SHORT $LN1@LoadInt_e@3
$LN78@LoadInt_e@3:
  001d1	88 4d f2	 mov	 BYTE PTR __k$[ebp+18], cl
  001d4	eb 64		 jmp	 SHORT $LN1@LoadInt_e@3
$LN79@LoadInt_e@3:
  001d6	c6 45 f1 ec	 mov	 BYTE PTR __k$[ebp+17], -20 ; ffffffecH
  001da	eb 5e		 jmp	 SHORT $LN1@LoadInt_e@3
$LN80@LoadInt_e@3:
  001dc	c6 45 f0 ed	 mov	 BYTE PTR __k$[ebp+16], -19 ; ffffffedH
  001e0	eb 58		 jmp	 SHORT $LN1@LoadInt_e@3
$LN81@LoadInt_e@3:
  001e2	88 5d ef	 mov	 BYTE PTR __k$[ebp+15], bl
  001e5	eb 53		 jmp	 SHORT $LN1@LoadInt_e@3
$LN82@LoadInt_e@3:
  001e7	88 4d ee	 mov	 BYTE PTR __k$[ebp+14], cl
  001ea	eb 4e		 jmp	 SHORT $LN1@LoadInt_e@3
$LN83@LoadInt_e@3:
  001ec	c6 45 ed ec	 mov	 BYTE PTR __k$[ebp+13], -20 ; ffffffecH
  001f0	eb 48		 jmp	 SHORT $LN1@LoadInt_e@3
$LN84@LoadInt_e@3:
  001f2	c6 45 ec ed	 mov	 BYTE PTR __k$[ebp+12], -19 ; ffffffedH
  001f6	eb 42		 jmp	 SHORT $LN1@LoadInt_e@3
$LN85@LoadInt_e@3:
  001f8	88 5d eb	 mov	 BYTE PTR __k$[ebp+11], bl
  001fb	eb 3d		 jmp	 SHORT $LN1@LoadInt_e@3
$LN86@LoadInt_e@3:
  001fd	88 4d ea	 mov	 BYTE PTR __k$[ebp+10], cl
  00200	eb 38		 jmp	 SHORT $LN1@LoadInt_e@3
$LN87@LoadInt_e@3:
  00202	c6 45 e9 ec	 mov	 BYTE PTR __k$[ebp+9], -20 ; ffffffecH
  00206	eb 32		 jmp	 SHORT $LN1@LoadInt_e@3
$LN88@LoadInt_e@3:
  00208	c6 45 e8 ed	 mov	 BYTE PTR __k$[ebp+8], -19 ; ffffffedH
  0020c	eb 2c		 jmp	 SHORT $LN1@LoadInt_e@3
$LN89@LoadInt_e@3:
  0020e	88 5d e7	 mov	 BYTE PTR __k$[ebp+7], bl
  00211	eb 27		 jmp	 SHORT $LN1@LoadInt_e@3
$LN90@LoadInt_e@3:
  00213	88 4d e6	 mov	 BYTE PTR __k$[ebp+6], cl
  00216	eb 22		 jmp	 SHORT $LN1@LoadInt_e@3
$LN91@LoadInt_e@3:
  00218	c6 45 e5 ec	 mov	 BYTE PTR __k$[ebp+5], -20 ; ffffffecH
  0021c	eb 1c		 jmp	 SHORT $LN1@LoadInt_e@3
$LN92@LoadInt_e@3:
  0021e	c6 45 e4 ed	 mov	 BYTE PTR __k$[ebp+4], -19 ; ffffffedH
  00222	eb 16		 jmp	 SHORT $LN1@LoadInt_e@3
$LN93@LoadInt_e@3:
  00224	c6 45 e3 ea	 mov	 BYTE PTR __k$[ebp+3], -22 ; ffffffeaH
  00228	eb 10		 jmp	 SHORT $LN1@LoadInt_e@3
$LN94@LoadInt_e@3:
  0022a	c6 45 e2 eb	 mov	 BYTE PTR __k$[ebp+2], -21 ; ffffffebH
  0022e	eb 0a		 jmp	 SHORT $LN1@LoadInt_e@3
$LN95@LoadInt_e@3:
  00230	c6 45 e1 ec	 mov	 BYTE PTR __k$[ebp+1], -20 ; ffffffecH
  00234	eb 04		 jmp	 SHORT $LN1@LoadInt_e@3
$LN96@LoadInt_e@3:
  00236	c6 45 e0 ed	 mov	 BYTE PTR __k$[ebp], -19	; ffffffedH
$LN1@LoadInt_e@3:
  0023a	6a 05		 push	 5
  0023c	8d 45 e0	 lea	 eax, DWORD PTR __k$[ebp]
  0023f	c6 45 f5 00	 mov	 BYTE PTR __k$[ebp+21], 0
  00243	5a		 pop	 edx
$LL104@LoadInt_e@3:
  00244	81 30 ed ec eb
	ea		 xor	 DWORD PTR [eax], -353637139 ; eaebecedH
  0024a	83 c0 04	 add	 eax, 4
  0024d	4a		 dec	 edx
  0024e	75 f4		 jne	 SHORT $LL104@LoadInt_e@3

; 120  : 		return LoadInt(_k, i);

  00250	ff 75 0c	 push	 DWORD PTR _i$[ebp]
  00253	80 75 f4 ed	 xor	 BYTE PTR __k$[ebp+20], -19 ; ffffffedH
  00257	8d 45 e0	 lea	 eax, DWORD PTR __k$[ebp]
  0025a	50		 push	 eax
  0025b	8b ce		 mov	 ecx, esi
  0025d	ff 15 00 00 00
	00		 call	 DWORD PTR __imp_?LoadInt@ioINILoader@@QAEHPBDH@Z

; 121  : 	}

  00263	8b 4d fc	 mov	 ecx, DWORD PTR __$ArrayPad$[ebp]
  00266	5e		 pop	 esi
  00267	33 cd		 xor	 ecx, ebp
  00269	5b		 pop	 ebx
  0026a	e8 00 00 00 00	 call	 @__security_check_cookie@4
  0026f	c9		 leave
  00270	c2 08 00	 ret	 8
??$LoadInt_e@$0BG@@ioINILoader@@QAEHAAY0BG@$$CBDH@Z ENDP ; ioINILoader::LoadInt_e<22>
_TEXT	ENDS
PUBLIC	__$ArrayPad$
PUBLIC	??$LoadBool_e@$0BC@@ioINILoader@@QAE_NAAY0BC@$$CBD_N@Z ; ioINILoader::LoadBool_e<18>
EXTRN	__imp_?LoadBool@ioINILoader@@QAE_NPBD_N@Z:PROC
; Function compile flags: /Ogsp
;	COMDAT ??$LoadBool_e@$0BC@@ioINILoader@@QAE_NAAY0BC@$$CBD_N@Z
_TEXT	SEGMENT
__k$ = -28						; size = 18
__$ArrayPad$ = -4					; size = 4
_k$ = 8							; size = 4
_b$ = 12						; size = 1
??$LoadBool_e@$0BC@@ioINILoader@@QAE_NAAY0BC@$$CBD_N@Z PROC ; ioINILoader::LoadBool_e<18>, COMDAT
; _this$ = ecx

; 101  : 	{

  00000	55		 push	 ebp
  00001	8b ec		 mov	 ebp, esp
  00003	83 ec 1c	 sub	 esp, 28			; 0000001cH
  00006	a1 00 00 00 00	 mov	 eax, DWORD PTR ___security_cookie
  0000b	33 c5		 xor	 eax, ebp
  0000d	89 45 fc	 mov	 DWORD PTR __$ArrayPad$[ebp], eax
  00010	8b 45 08	 mov	 eax, DWORD PTR _k$[ebp]

; 102  : 		_ENCSTR(k, _k);

  00013	8a 10		 mov	 dl, BYTE PTR [eax]
  00015	56		 push	 esi
  00016	8b f1		 mov	 esi, ecx
  00018	84 d2		 test	 dl, dl
  0001a	0f 84 be 01 00
	00		 je	 $LN96@LoadBool_e
  00020	80 f2 ed	 xor	 dl, -19			; ffffffedH
  00023	88 55 e4	 mov	 BYTE PTR __k$[ebp], dl
  00026	8a 50 01	 mov	 dl, BYTE PTR [eax+1]
  00029	84 d2		 test	 dl, dl
  0002b	0f 84 a7 01 00
	00		 je	 $LN95@LoadBool_e
  00031	80 f2 ec	 xor	 dl, -20			; ffffffecH
  00034	88 55 e5	 mov	 BYTE PTR __k$[ebp+1], dl
  00037	8a 50 02	 mov	 dl, BYTE PTR [eax+2]
  0003a	84 d2		 test	 dl, dl
  0003c	0f 84 90 01 00
	00		 je	 $LN94@LoadBool_e
  00042	b1 eb		 mov	 cl, -21			; ffffffebH
  00044	32 d1		 xor	 dl, cl
  00046	88 55 e6	 mov	 BYTE PTR __k$[ebp+2], dl
  00049	8a 50 03	 mov	 dl, BYTE PTR [eax+3]
  0004c	84 d2		 test	 dl, dl
  0004e	0f 84 78 01 00
	00		 je	 $LN93@LoadBool_e
  00054	80 f2 ea	 xor	 dl, -22			; ffffffeaH
  00057	88 55 e7	 mov	 BYTE PTR __k$[ebp+3], dl
  0005a	8a 50 04	 mov	 dl, BYTE PTR [eax+4]
  0005d	84 d2		 test	 dl, dl
  0005f	0f 84 61 01 00
	00		 je	 $LN92@LoadBool_e
  00065	80 f2 ed	 xor	 dl, -19			; ffffffedH
  00068	88 55 e8	 mov	 BYTE PTR __k$[ebp+4], dl
  0006b	8a 50 05	 mov	 dl, BYTE PTR [eax+5]
  0006e	84 d2		 test	 dl, dl
  00070	0f 84 4a 01 00
	00		 je	 $LN91@LoadBool_e
  00076	80 f2 ec	 xor	 dl, -20			; ffffffecH
  00079	88 55 e9	 mov	 BYTE PTR __k$[ebp+5], dl
  0007c	8a 50 06	 mov	 dl, BYTE PTR [eax+6]
  0007f	84 d2		 test	 dl, dl
  00081	0f 84 34 01 00
	00		 je	 $LN90@LoadBool_e
  00087	32 d1		 xor	 dl, cl
  00089	88 55 ea	 mov	 BYTE PTR __k$[ebp+6], dl
  0008c	8a 50 07	 mov	 dl, BYTE PTR [eax+7]
  0008f	84 d2		 test	 dl, dl
  00091	0f 84 1e 01 00
	00		 je	 $LN89@LoadBool_e
  00097	80 f2 ea	 xor	 dl, -22			; ffffffeaH
  0009a	88 55 eb	 mov	 BYTE PTR __k$[ebp+7], dl
  0009d	8a 50 08	 mov	 dl, BYTE PTR [eax+8]
  000a0	84 d2		 test	 dl, dl
  000a2	0f 84 07 01 00
	00		 je	 $LN88@LoadBool_e
  000a8	80 f2 ed	 xor	 dl, -19			; ffffffedH
  000ab	88 55 ec	 mov	 BYTE PTR __k$[ebp+8], dl
  000ae	8a 50 09	 mov	 dl, BYTE PTR [eax+9]
  000b1	84 d2		 test	 dl, dl
  000b3	0f 84 f0 00 00
	00		 je	 $LN87@LoadBool_e
  000b9	80 f2 ec	 xor	 dl, -20			; ffffffecH
  000bc	88 55 ed	 mov	 BYTE PTR __k$[ebp+9], dl
  000bf	8a 50 0a	 mov	 dl, BYTE PTR [eax+10]
  000c2	84 d2		 test	 dl, dl
  000c4	0f 84 da 00 00
	00		 je	 $LN86@LoadBool_e
  000ca	32 d1		 xor	 dl, cl
  000cc	88 55 ee	 mov	 BYTE PTR __k$[ebp+10], dl
  000cf	8a 50 0b	 mov	 dl, BYTE PTR [eax+11]
  000d2	84 d2		 test	 dl, dl
  000d4	0f 84 c4 00 00
	00		 je	 $LN85@LoadBool_e
  000da	80 f2 ea	 xor	 dl, -22			; ffffffeaH
  000dd	88 55 ef	 mov	 BYTE PTR __k$[ebp+11], dl
  000e0	8a 50 0c	 mov	 dl, BYTE PTR [eax+12]
  000e3	84 d2		 test	 dl, dl
  000e5	0f 84 ad 00 00
	00		 je	 $LN84@LoadBool_e
  000eb	80 f2 ed	 xor	 dl, -19			; ffffffedH
  000ee	88 55 f0	 mov	 BYTE PTR __k$[ebp+12], dl
  000f1	8a 50 0d	 mov	 dl, BYTE PTR [eax+13]
  000f4	84 d2		 test	 dl, dl
  000f6	0f 84 96 00 00
	00		 je	 $LN83@LoadBool_e
  000fc	80 f2 ec	 xor	 dl, -20			; ffffffecH
  000ff	88 55 f1	 mov	 BYTE PTR __k$[ebp+13], dl
  00102	8a 50 0e	 mov	 dl, BYTE PTR [eax+14]
  00105	84 d2		 test	 dl, dl
  00107	0f 84 80 00 00
	00		 je	 $LN82@LoadBool_e
  0010d	32 d1		 xor	 dl, cl
  0010f	88 55 f2	 mov	 BYTE PTR __k$[ebp+14], dl
  00112	8a 50 0f	 mov	 dl, BYTE PTR [eax+15]
  00115	84 d2		 test	 dl, dl
  00117	74 6e		 je	 SHORT $LN81@LoadBool_e
  00119	80 f2 ea	 xor	 dl, -22			; ffffffeaH
  0011c	88 55 f3	 mov	 BYTE PTR __k$[ebp+15], dl
  0011f	8a 50 10	 mov	 dl, BYTE PTR [eax+16]
  00122	84 d2		 test	 dl, dl
  00124	74 5b		 je	 SHORT $LN80@LoadBool_e
  00126	80 f2 ed	 xor	 dl, -19			; ffffffedH
  00129	80 78 11 00	 cmp	 BYTE PTR [eax+17], 0
  0012d	88 55 f4	 mov	 BYTE PTR __k$[ebp+16], dl
  00130	0f 84 ac 00 00
	00		 je	 $LN1@LoadBool_e
  00136	8a 50 12	 mov	 dl, BYTE PTR [eax+18]
  00139	84 d2		 test	 dl, dl
  0013b	74 3f		 je	 SHORT $LN78@LoadBool_e
  0013d	32 d1		 xor	 dl, cl
  0013f	88 55 f6	 mov	 BYTE PTR __k$[ebp+18], dl
  00142	8a 50 13	 mov	 dl, BYTE PTR [eax+19]
  00145	84 d2		 test	 dl, dl
  00147	74 2d		 je	 SHORT $LN77@LoadBool_e
  00149	80 f2 ea	 xor	 dl, -22			; ffffffeaH
  0014c	88 55 f7	 mov	 BYTE PTR __k$[ebp+19], dl
  0014f	8a 50 14	 mov	 dl, BYTE PTR [eax+20]
  00152	84 d2		 test	 dl, dl
  00154	74 1a		 je	 SHORT $LN76@LoadBool_e
  00156	8a 40 15	 mov	 al, BYTE PTR [eax+21]
  00159	80 f2 ed	 xor	 dl, -19			; ffffffedH
  0015c	88 55 f8	 mov	 BYTE PTR __k$[ebp+20], dl
  0015f	84 c0		 test	 al, al
  00161	74 07		 je	 SHORT $LN75@LoadBool_e
  00163	34 ec		 xor	 al, -20			; ffffffecH
  00165	88 45 f9	 mov	 BYTE PTR __k$[ebp+21], al
  00168	eb 78		 jmp	 SHORT $LN1@LoadBool_e
$LN75@LoadBool_e:
  0016a	c6 45 f9 ec	 mov	 BYTE PTR __k$[ebp+21], -20 ; ffffffecH
  0016e	eb 72		 jmp	 SHORT $LN1@LoadBool_e
$LN76@LoadBool_e:
  00170	c6 45 f8 ed	 mov	 BYTE PTR __k$[ebp+20], -19 ; ffffffedH
  00174	eb 6c		 jmp	 SHORT $LN1@LoadBool_e
$LN77@LoadBool_e:
  00176	c6 45 f7 ea	 mov	 BYTE PTR __k$[ebp+19], -22 ; ffffffeaH
  0017a	eb 66		 jmp	 SHORT $LN1@LoadBool_e
$LN78@LoadBool_e:
  0017c	88 4d f6	 mov	 BYTE PTR __k$[ebp+18], cl
  0017f	eb 61		 jmp	 SHORT $LN1@LoadBool_e
$LN80@LoadBool_e:
  00181	c6 45 f4 ed	 mov	 BYTE PTR __k$[ebp+16], -19 ; ffffffedH
  00185	eb 5b		 jmp	 SHORT $LN1@LoadBool_e
$LN81@LoadBool_e:
  00187	c6 45 f3 ea	 mov	 BYTE PTR __k$[ebp+15], -22 ; ffffffeaH
  0018b	eb 55		 jmp	 SHORT $LN1@LoadBool_e
$LN82@LoadBool_e:
  0018d	88 4d f2	 mov	 BYTE PTR __k$[ebp+14], cl
  00190	eb 50		 jmp	 SHORT $LN1@LoadBool_e
$LN83@LoadBool_e:
  00192	c6 45 f1 ec	 mov	 BYTE PTR __k$[ebp+13], -20 ; ffffffecH
  00196	eb 4a		 jmp	 SHORT $LN1@LoadBool_e
$LN84@LoadBool_e:
  00198	c6 45 f0 ed	 mov	 BYTE PTR __k$[ebp+12], -19 ; ffffffedH
  0019c	eb 44		 jmp	 SHORT $LN1@LoadBool_e
$LN85@LoadBool_e:
  0019e	c6 45 ef ea	 mov	 BYTE PTR __k$[ebp+11], -22 ; ffffffeaH
  001a2	eb 3e		 jmp	 SHORT $LN1@LoadBool_e
$LN86@LoadBool_e:
  001a4	88 4d ee	 mov	 BYTE PTR __k$[ebp+10], cl
  001a7	eb 39		 jmp	 SHORT $LN1@LoadBool_e
$LN87@LoadBool_e:
  001a9	c6 45 ed ec	 mov	 BYTE PTR __k$[ebp+9], -20 ; ffffffecH
  001ad	eb 33		 jmp	 SHORT $LN1@LoadBool_e
$LN88@LoadBool_e:
  001af	c6 45 ec ed	 mov	 BYTE PTR __k$[ebp+8], -19 ; ffffffedH
  001b3	eb 2d		 jmp	 SHORT $LN1@LoadBool_e
$LN89@LoadBool_e:
  001b5	c6 45 eb ea	 mov	 BYTE PTR __k$[ebp+7], -22 ; ffffffeaH
  001b9	eb 27		 jmp	 SHORT $LN1@LoadBool_e
$LN90@LoadBool_e:
  001bb	88 4d ea	 mov	 BYTE PTR __k$[ebp+6], cl
  001be	eb 22		 jmp	 SHORT $LN1@LoadBool_e
$LN91@LoadBool_e:
  001c0	c6 45 e9 ec	 mov	 BYTE PTR __k$[ebp+5], -20 ; ffffffecH
  001c4	eb 1c		 jmp	 SHORT $LN1@LoadBool_e
$LN92@LoadBool_e:
  001c6	c6 45 e8 ed	 mov	 BYTE PTR __k$[ebp+4], -19 ; ffffffedH
  001ca	eb 16		 jmp	 SHORT $LN1@LoadBool_e
$LN93@LoadBool_e:
  001cc	c6 45 e7 ea	 mov	 BYTE PTR __k$[ebp+3], -22 ; ffffffeaH
  001d0	eb 10		 jmp	 SHORT $LN1@LoadBool_e
$LN94@LoadBool_e:
  001d2	c6 45 e6 eb	 mov	 BYTE PTR __k$[ebp+2], -21 ; ffffffebH
  001d6	eb 0a		 jmp	 SHORT $LN1@LoadBool_e
$LN95@LoadBool_e:
  001d8	c6 45 e5 ec	 mov	 BYTE PTR __k$[ebp+1], -20 ; ffffffecH
  001dc	eb 04		 jmp	 SHORT $LN1@LoadBool_e
$LN96@LoadBool_e:
  001de	c6 45 e4 ed	 mov	 BYTE PTR __k$[ebp], -19	; ffffffedH
$LN1@LoadBool_e:
  001e2	6a 04		 push	 4
  001e4	8d 45 e4	 lea	 eax, DWORD PTR __k$[ebp]
  001e7	c6 45 f5 00	 mov	 BYTE PTR __k$[ebp+17], 0
  001eb	5a		 pop	 edx
$LL104@LoadBool_e:
  001ec	81 30 ed ec eb
	ea		 xor	 DWORD PTR [eax], -353637139 ; eaebecedH
  001f2	83 c0 04	 add	 eax, 4
  001f5	4a		 dec	 edx
  001f6	75 f4		 jne	 SHORT $LL104@LoadBool_e

; 103  : 		return LoadBool(_k, b);

  001f8	ff 75 0c	 push	 DWORD PTR _b$[ebp]
  001fb	80 75 f4 ed	 xor	 BYTE PTR __k$[ebp+16], -19 ; ffffffedH
  001ff	8d 45 e4	 lea	 eax, DWORD PTR __k$[ebp]
  00202	50		 push	 eax
  00203	8b ce		 mov	 ecx, esi
  00205	ff 15 00 00 00
	00		 call	 DWORD PTR __imp_?LoadBool@ioINILoader@@QAE_NPBD_N@Z

; 104  : 	}

  0020b	8b 4d fc	 mov	 ecx, DWORD PTR __$ArrayPad$[ebp]
  0020e	33 cd		 xor	 ecx, ebp
  00210	5e		 pop	 esi
  00211	e8 00 00 00 00	 call	 @__security_check_cookie@4
  00216	c9		 leave
  00217	c2 08 00	 ret	 8
??$LoadBool_e@$0BC@@ioINILoader@@QAE_NAAY0BC@$$CBD_N@Z ENDP ; ioINILoader::LoadBool_e<18>
_TEXT	ENDS
PUBLIC	__$ArrayPad$
PUBLIC	??$LoadBool_e@$0BF@@ioINILoader@@QAE_NAAY0BF@$$CBD_N@Z ; ioINILoader::LoadBool_e<21>
; Function compile flags: /Ogsp
;	COMDAT ??$LoadBool_e@$0BF@@ioINILoader@@QAE_NAAY0BF@$$CBD_N@Z
_TEXT	SEGMENT
__k$ = -32						; size = 21
__$ArrayPad$ = -4					; size = 4
_k$ = 8							; size = 4
_b$ = 12						; size = 1
??$LoadBool_e@$0BF@@ioINILoader@@QAE_NAAY0BF@$$CBD_N@Z PROC ; ioINILoader::LoadBool_e<21>, COMDAT
; _this$ = ecx

; 101  : 	{

  00000	55		 push	 ebp
  00001	8b ec		 mov	 ebp, esp
  00003	83 ec 20	 sub	 esp, 32			; 00000020H
  00006	a1 00 00 00 00	 mov	 eax, DWORD PTR ___security_cookie
  0000b	33 c5		 xor	 eax, ebp
  0000d	89 45 fc	 mov	 DWORD PTR __$ArrayPad$[ebp], eax
  00010	8b 45 08	 mov	 eax, DWORD PTR _k$[ebp]

; 102  : 		_ENCSTR(k, _k);

  00013	8a 10		 mov	 dl, BYTE PTR [eax]
  00015	53		 push	 ebx
  00016	56		 push	 esi
  00017	8b f1		 mov	 esi, ecx
  00019	84 d2		 test	 dl, dl
  0001b	0f 84 f7 01 00
	00		 je	 $LN96@LoadBool_e@2
  00021	80 f2 ed	 xor	 dl, -19			; ffffffedH
  00024	88 55 e0	 mov	 BYTE PTR __k$[ebp], dl
  00027	8a 50 01	 mov	 dl, BYTE PTR [eax+1]
  0002a	84 d2		 test	 dl, dl
  0002c	0f 84 e0 01 00
	00		 je	 $LN95@LoadBool_e@2
  00032	b1 ec		 mov	 cl, -20			; ffffffecH
  00034	32 d1		 xor	 dl, cl
  00036	88 55 e1	 mov	 BYTE PTR __k$[ebp+1], dl
  00039	8a 50 02	 mov	 dl, BYTE PTR [eax+2]
  0003c	84 d2		 test	 dl, dl
  0003e	0f 84 c8 01 00
	00		 je	 $LN94@LoadBool_e@2
  00044	b3 eb		 mov	 bl, -21			; ffffffebH
  00046	32 d3		 xor	 dl, bl
  00048	88 55 e2	 mov	 BYTE PTR __k$[ebp+2], dl
  0004b	8a 50 03	 mov	 dl, BYTE PTR [eax+3]
  0004e	84 d2		 test	 dl, dl
  00050	0f 84 b0 01 00
	00		 je	 $LN93@LoadBool_e@2
  00056	80 f2 ea	 xor	 dl, -22			; ffffffeaH
  00059	88 55 e3	 mov	 BYTE PTR __k$[ebp+3], dl
  0005c	8a 50 04	 mov	 dl, BYTE PTR [eax+4]
  0005f	84 d2		 test	 dl, dl
  00061	0f 84 99 01 00
	00		 je	 $LN92@LoadBool_e@2
  00067	80 f2 ed	 xor	 dl, -19			; ffffffedH
  0006a	88 55 e4	 mov	 BYTE PTR __k$[ebp+4], dl
  0006d	8a 50 05	 mov	 dl, BYTE PTR [eax+5]
  00070	84 d2		 test	 dl, dl
  00072	0f 84 83 01 00
	00		 je	 $LN91@LoadBool_e@2
  00078	32 d1		 xor	 dl, cl
  0007a	88 55 e5	 mov	 BYTE PTR __k$[ebp+5], dl
  0007d	8a 50 06	 mov	 dl, BYTE PTR [eax+6]
  00080	84 d2		 test	 dl, dl
  00082	0f 84 6e 01 00
	00		 je	 $LN90@LoadBool_e@2
  00088	32 d3		 xor	 dl, bl
  0008a	88 55 e6	 mov	 BYTE PTR __k$[ebp+6], dl
  0008d	8a 50 07	 mov	 dl, BYTE PTR [eax+7]
  00090	84 d2		 test	 dl, dl
  00092	0f 84 58 01 00
	00		 je	 $LN89@LoadBool_e@2
  00098	80 f2 ea	 xor	 dl, -22			; ffffffeaH
  0009b	88 55 e7	 mov	 BYTE PTR __k$[ebp+7], dl
  0009e	8a 50 08	 mov	 dl, BYTE PTR [eax+8]
  000a1	84 d2		 test	 dl, dl
  000a3	0f 84 41 01 00
	00		 je	 $LN88@LoadBool_e@2
  000a9	80 f2 ed	 xor	 dl, -19			; ffffffedH
  000ac	88 55 e8	 mov	 BYTE PTR __k$[ebp+8], dl
  000af	8a 50 09	 mov	 dl, BYTE PTR [eax+9]
  000b2	84 d2		 test	 dl, dl
  000b4	0f 84 2b 01 00
	00		 je	 $LN87@LoadBool_e@2
  000ba	32 d1		 xor	 dl, cl
  000bc	88 55 e9	 mov	 BYTE PTR __k$[ebp+9], dl
  000bf	8a 50 0a	 mov	 dl, BYTE PTR [eax+10]
  000c2	84 d2		 test	 dl, dl
  000c4	0f 84 16 01 00
	00		 je	 $LN86@LoadBool_e@2
  000ca	32 d3		 xor	 dl, bl
  000cc	88 55 ea	 mov	 BYTE PTR __k$[ebp+10], dl
  000cf	8a 50 0b	 mov	 dl, BYTE PTR [eax+11]
  000d2	84 d2		 test	 dl, dl
  000d4	0f 84 00 01 00
	00		 je	 $LN85@LoadBool_e@2
  000da	80 f2 ea	 xor	 dl, -22			; ffffffeaH
  000dd	88 55 eb	 mov	 BYTE PTR __k$[ebp+11], dl
  000e0	8a 50 0c	 mov	 dl, BYTE PTR [eax+12]
  000e3	84 d2		 test	 dl, dl
  000e5	0f 84 e9 00 00
	00		 je	 $LN84@LoadBool_e@2
  000eb	80 f2 ed	 xor	 dl, -19			; ffffffedH
  000ee	88 55 ec	 mov	 BYTE PTR __k$[ebp+12], dl
  000f1	8a 50 0d	 mov	 dl, BYTE PTR [eax+13]
  000f4	84 d2		 test	 dl, dl
  000f6	0f 84 d3 00 00
	00		 je	 $LN83@LoadBool_e@2
  000fc	32 d1		 xor	 dl, cl
  000fe	88 55 ed	 mov	 BYTE PTR __k$[ebp+13], dl
  00101	8a 50 0e	 mov	 dl, BYTE PTR [eax+14]
  00104	84 d2		 test	 dl, dl
  00106	0f 84 be 00 00
	00		 je	 $LN82@LoadBool_e@2
  0010c	32 d3		 xor	 dl, bl
  0010e	88 55 ee	 mov	 BYTE PTR __k$[ebp+14], dl
  00111	8a 50 0f	 mov	 dl, BYTE PTR [eax+15]
  00114	84 d2		 test	 dl, dl
  00116	0f 84 a8 00 00
	00		 je	 $LN81@LoadBool_e@2
  0011c	80 f2 ea	 xor	 dl, -22			; ffffffeaH
  0011f	88 55 ef	 mov	 BYTE PTR __k$[ebp+15], dl
  00122	8a 50 10	 mov	 dl, BYTE PTR [eax+16]
  00125	84 d2		 test	 dl, dl
  00127	0f 84 91 00 00
	00		 je	 $LN80@LoadBool_e@2
  0012d	80 f2 ed	 xor	 dl, -19			; ffffffedH
  00130	88 55 f0	 mov	 BYTE PTR __k$[ebp+16], dl
  00133	8a 50 11	 mov	 dl, BYTE PTR [eax+17]
  00136	84 d2		 test	 dl, dl
  00138	74 7f		 je	 SHORT $LN79@LoadBool_e@2
  0013a	32 d1		 xor	 dl, cl
  0013c	88 55 f1	 mov	 BYTE PTR __k$[ebp+17], dl
  0013f	8a 50 12	 mov	 dl, BYTE PTR [eax+18]
  00142	84 d2		 test	 dl, dl
  00144	74 6e		 je	 SHORT $LN78@LoadBool_e@2
  00146	32 d3		 xor	 dl, bl
  00148	88 55 f2	 mov	 BYTE PTR __k$[ebp+18], dl
  0014b	8a 50 13	 mov	 dl, BYTE PTR [eax+19]
  0014e	84 d2		 test	 dl, dl
  00150	74 5c		 je	 SHORT $LN77@LoadBool_e@2
  00152	80 f2 ea	 xor	 dl, -22			; ffffffeaH
  00155	80 78 14 00	 cmp	 BYTE PTR [eax+20], 0
  00159	88 55 f3	 mov	 BYTE PTR __k$[ebp+19], dl
  0015c	0f 84 ba 00 00
	00		 je	 $LN1@LoadBool_e@2
  00162	8a 50 15	 mov	 dl, BYTE PTR [eax+21]
  00165	84 d2		 test	 dl, dl
  00167	74 40		 je	 SHORT $LN75@LoadBool_e@2
  00169	32 d1		 xor	 dl, cl
  0016b	88 55 f5	 mov	 BYTE PTR __k$[ebp+21], dl
  0016e	8a 50 16	 mov	 dl, BYTE PTR [eax+22]
  00171	84 d2		 test	 dl, dl
  00173	74 2f		 je	 SHORT $LN74@LoadBool_e@2
  00175	32 d3		 xor	 dl, bl
  00177	88 55 f6	 mov	 BYTE PTR __k$[ebp+22], dl
  0017a	8a 50 17	 mov	 dl, BYTE PTR [eax+23]
  0017d	84 d2		 test	 dl, dl
  0017f	74 1d		 je	 SHORT $LN73@LoadBool_e@2
  00181	8a 40 18	 mov	 al, BYTE PTR [eax+24]
  00184	80 f2 ea	 xor	 dl, -22			; ffffffeaH
  00187	88 55 f7	 mov	 BYTE PTR __k$[ebp+23], dl
  0018a	84 c0		 test	 al, al
  0018c	74 0a		 je	 SHORT $LN72@LoadBool_e@2
  0018e	34 ed		 xor	 al, -19			; ffffffedH
  00190	88 45 f8	 mov	 BYTE PTR __k$[ebp+24], al
  00193	e9 84 00 00 00	 jmp	 $LN1@LoadBool_e@2
$LN72@LoadBool_e@2:
  00198	c6 45 f8 ed	 mov	 BYTE PTR __k$[ebp+24], -19 ; ffffffedH
  0019c	eb 7e		 jmp	 SHORT $LN1@LoadBool_e@2
$LN73@LoadBool_e@2:
  0019e	c6 45 f7 ea	 mov	 BYTE PTR __k$[ebp+23], -22 ; ffffffeaH
  001a2	eb 78		 jmp	 SHORT $LN1@LoadBool_e@2
$LN74@LoadBool_e@2:
  001a4	88 5d f6	 mov	 BYTE PTR __k$[ebp+22], bl
  001a7	eb 73		 jmp	 SHORT $LN1@LoadBool_e@2
$LN75@LoadBool_e@2:
  001a9	88 4d f5	 mov	 BYTE PTR __k$[ebp+21], cl
  001ac	eb 6e		 jmp	 SHORT $LN1@LoadBool_e@2
$LN77@LoadBool_e@2:
  001ae	c6 45 f3 ea	 mov	 BYTE PTR __k$[ebp+19], -22 ; ffffffeaH
  001b2	eb 68		 jmp	 SHORT $LN1@LoadBool_e@2
$LN78@LoadBool_e@2:
  001b4	88 5d f2	 mov	 BYTE PTR __k$[ebp+18], bl
  001b7	eb 63		 jmp	 SHORT $LN1@LoadBool_e@2
$LN79@LoadBool_e@2:
  001b9	88 4d f1	 mov	 BYTE PTR __k$[ebp+17], cl
  001bc	eb 5e		 jmp	 SHORT $LN1@LoadBool_e@2
$LN80@LoadBool_e@2:
  001be	c6 45 f0 ed	 mov	 BYTE PTR __k$[ebp+16], -19 ; ffffffedH
  001c2	eb 58		 jmp	 SHORT $LN1@LoadBool_e@2
$LN81@LoadBool_e@2:
  001c4	c6 45 ef ea	 mov	 BYTE PTR __k$[ebp+15], -22 ; ffffffeaH
  001c8	eb 52		 jmp	 SHORT $LN1@LoadBool_e@2
$LN82@LoadBool_e@2:
  001ca	88 5d ee	 mov	 BYTE PTR __k$[ebp+14], bl
  001cd	eb 4d		 jmp	 SHORT $LN1@LoadBool_e@2
$LN83@LoadBool_e@2:
  001cf	88 4d ed	 mov	 BYTE PTR __k$[ebp+13], cl
  001d2	eb 48		 jmp	 SHORT $LN1@LoadBool_e@2
$LN84@LoadBool_e@2:
  001d4	c6 45 ec ed	 mov	 BYTE PTR __k$[ebp+12], -19 ; ffffffedH
  001d8	eb 42		 jmp	 SHORT $LN1@LoadBool_e@2
$LN85@LoadBool_e@2:
  001da	c6 45 eb ea	 mov	 BYTE PTR __k$[ebp+11], -22 ; ffffffeaH
  001de	eb 3c		 jmp	 SHORT $LN1@LoadBool_e@2
$LN86@LoadBool_e@2:
  001e0	88 5d ea	 mov	 BYTE PTR __k$[ebp+10], bl
  001e3	eb 37		 jmp	 SHORT $LN1@LoadBool_e@2
$LN87@LoadBool_e@2:
  001e5	88 4d e9	 mov	 BYTE PTR __k$[ebp+9], cl
  001e8	eb 32		 jmp	 SHORT $LN1@LoadBool_e@2
$LN88@LoadBool_e@2:
  001ea	c6 45 e8 ed	 mov	 BYTE PTR __k$[ebp+8], -19 ; ffffffedH
  001ee	eb 2c		 jmp	 SHORT $LN1@LoadBool_e@2
$LN89@LoadBool_e@2:
  001f0	c6 45 e7 ea	 mov	 BYTE PTR __k$[ebp+7], -22 ; ffffffeaH
  001f4	eb 26		 jmp	 SHORT $LN1@LoadBool_e@2
$LN90@LoadBool_e@2:
  001f6	88 5d e6	 mov	 BYTE PTR __k$[ebp+6], bl
  001f9	eb 21		 jmp	 SHORT $LN1@LoadBool_e@2
$LN91@LoadBool_e@2:
  001fb	88 4d e5	 mov	 BYTE PTR __k$[ebp+5], cl
  001fe	eb 1c		 jmp	 SHORT $LN1@LoadBool_e@2
$LN92@LoadBool_e@2:
  00200	c6 45 e4 ed	 mov	 BYTE PTR __k$[ebp+4], -19 ; ffffffedH
  00204	eb 16		 jmp	 SHORT $LN1@LoadBool_e@2
$LN93@LoadBool_e@2:
  00206	c6 45 e3 ea	 mov	 BYTE PTR __k$[ebp+3], -22 ; ffffffeaH
  0020a	eb 10		 jmp	 SHORT $LN1@LoadBool_e@2
$LN94@LoadBool_e@2:
  0020c	c6 45 e2 eb	 mov	 BYTE PTR __k$[ebp+2], -21 ; ffffffebH
  00210	eb 0a		 jmp	 SHORT $LN1@LoadBool_e@2
$LN95@LoadBool_e@2:
  00212	c6 45 e1 ec	 mov	 BYTE PTR __k$[ebp+1], -20 ; ffffffecH
  00216	eb 04		 jmp	 SHORT $LN1@LoadBool_e@2
$LN96@LoadBool_e@2:
  00218	c6 45 e0 ed	 mov	 BYTE PTR __k$[ebp], -19	; ffffffedH
$LN1@LoadBool_e@2:
  0021c	6a 05		 push	 5
  0021e	8d 45 e0	 lea	 eax, DWORD PTR __k$[ebp]
  00221	c6 45 f4 00	 mov	 BYTE PTR __k$[ebp+20], 0
  00225	5a		 pop	 edx
$LL104@LoadBool_e@2:
  00226	81 30 ed ec eb
	ea		 xor	 DWORD PTR [eax], -353637139 ; eaebecedH
  0022c	83 c0 04	 add	 eax, 4
  0022f	4a		 dec	 edx
  00230	75 f4		 jne	 SHORT $LL104@LoadBool_e@2

; 103  : 		return LoadBool(_k, b);

  00232	ff 75 0c	 push	 DWORD PTR _b$[ebp]
  00235	8d 45 e0	 lea	 eax, DWORD PTR __k$[ebp]
  00238	50		 push	 eax
  00239	8b ce		 mov	 ecx, esi
  0023b	ff 15 00 00 00
	00		 call	 DWORD PTR __imp_?LoadBool@ioINILoader@@QAE_NPBD_N@Z

; 104  : 	}

  00241	8b 4d fc	 mov	 ecx, DWORD PTR __$ArrayPad$[ebp]
  00244	5e		 pop	 esi
  00245	33 cd		 xor	 ecx, ebp
  00247	5b		 pop	 ebx
  00248	e8 00 00 00 00	 call	 @__security_check_cookie@4
  0024d	c9		 leave
  0024e	c2 08 00	 ret	 8
??$LoadBool_e@$0BF@@ioINILoader@@QAE_NAAY0BF@$$CBD_N@Z ENDP ; ioINILoader::LoadBool_e<21>
_TEXT	ENDS
PUBLIC	__$ArrayPad$
PUBLIC	??$LoadAttackAttribute_e@$0BB@@@YAXAAY0BB@$$CBDAAUAttackAttribute@@AAVioINILoader@@@Z ; LoadAttackAttribute_e<17>
EXTRN	?LoadAttackAttribute@@YAXPBDAAUAttackAttribute@@AAVioINILoader@@@Z:PROC ; LoadAttackAttribute
; Function compile flags: /Ogsp
; File d:\lost saga for developer\youtube\tutorial\source\src\lsclient\ioattackattribute.h
;	COMDAT ??$LoadAttackAttribute_e@$0BB@@@YAXAAY0BB@$$CBDAAUAttackAttribute@@AAVioINILoader@@@Z
_TEXT	SEGMENT
_szEncAttack$ = -28					; size = 17
__$ArrayPad$ = -4					; size = 4
_szAttack$ = 8						; size = 4
_rkAttribute$ = 12					; size = 4
_rkLoader$ = 16						; size = 4
??$LoadAttackAttribute_e@$0BB@@@YAXAAY0BB@$$CBDAAUAttackAttribute@@AAVioINILoader@@@Z PROC ; LoadAttackAttribute_e<17>, COMDAT

; 131  : {

  00000	55		 push	 ebp
  00001	8b ec		 mov	 ebp, esp
  00003	83 ec 1c	 sub	 esp, 28			; 0000001cH
  00006	a1 00 00 00 00	 mov	 eax, DWORD PTR ___security_cookie
  0000b	33 c5		 xor	 eax, ebp
  0000d	89 45 fc	 mov	 DWORD PTR __$ArrayPad$[ebp], eax
  00010	8b 45 08	 mov	 eax, DWORD PTR _szAttack$[ebp]

; 132  : 	_ENCSTR(szAttack, szEncAttack);

  00013	8a 08		 mov	 cl, BYTE PTR [eax]
  00015	56		 push	 esi
  00016	8b 75 0c	 mov	 esi, DWORD PTR _rkAttribute$[ebp]
  00019	57		 push	 edi
  0001a	8b 7d 10	 mov	 edi, DWORD PTR _rkLoader$[ebp]
  0001d	84 c9		 test	 cl, cl
  0001f	0f 84 a3 01 00
	00		 je	 $LN96@LoadAttack
  00025	80 f1 ed	 xor	 cl, -19			; ffffffedH
  00028	88 4d e4	 mov	 BYTE PTR _szEncAttack$[ebp], cl
  0002b	8a 48 01	 mov	 cl, BYTE PTR [eax+1]
  0002e	84 c9		 test	 cl, cl
  00030	0f 84 8c 01 00
	00		 je	 $LN95@LoadAttack
  00036	80 f1 ec	 xor	 cl, -20			; ffffffecH
  00039	88 4d e5	 mov	 BYTE PTR _szEncAttack$[ebp+1], cl
  0003c	8a 48 02	 mov	 cl, BYTE PTR [eax+2]
  0003f	84 c9		 test	 cl, cl
  00041	0f 84 75 01 00
	00		 je	 $LN94@LoadAttack
  00047	b2 eb		 mov	 dl, -21			; ffffffebH
  00049	32 ca		 xor	 cl, dl
  0004b	88 4d e6	 mov	 BYTE PTR _szEncAttack$[ebp+2], cl
  0004e	8a 48 03	 mov	 cl, BYTE PTR [eax+3]
  00051	84 c9		 test	 cl, cl
  00053	0f 84 5d 01 00
	00		 je	 $LN93@LoadAttack
  00059	80 f1 ea	 xor	 cl, -22			; ffffffeaH
  0005c	88 4d e7	 mov	 BYTE PTR _szEncAttack$[ebp+3], cl
  0005f	8a 48 04	 mov	 cl, BYTE PTR [eax+4]
  00062	84 c9		 test	 cl, cl
  00064	0f 84 46 01 00
	00		 je	 $LN92@LoadAttack
  0006a	80 f1 ed	 xor	 cl, -19			; ffffffedH
  0006d	88 4d e8	 mov	 BYTE PTR _szEncAttack$[ebp+4], cl
  00070	8a 48 05	 mov	 cl, BYTE PTR [eax+5]
  00073	84 c9		 test	 cl, cl
  00075	0f 84 2f 01 00
	00		 je	 $LN91@LoadAttack
  0007b	80 f1 ec	 xor	 cl, -20			; ffffffecH
  0007e	88 4d e9	 mov	 BYTE PTR _szEncAttack$[ebp+5], cl
  00081	8a 48 06	 mov	 cl, BYTE PTR [eax+6]
  00084	84 c9		 test	 cl, cl
  00086	0f 84 19 01 00
	00		 je	 $LN90@LoadAttack
  0008c	32 ca		 xor	 cl, dl
  0008e	88 4d ea	 mov	 BYTE PTR _szEncAttack$[ebp+6], cl
  00091	8a 48 07	 mov	 cl, BYTE PTR [eax+7]
  00094	84 c9		 test	 cl, cl
  00096	0f 84 03 01 00
	00		 je	 $LN89@LoadAttack
  0009c	80 f1 ea	 xor	 cl, -22			; ffffffeaH
  0009f	88 4d eb	 mov	 BYTE PTR _szEncAttack$[ebp+7], cl
  000a2	8a 48 08	 mov	 cl, BYTE PTR [eax+8]
  000a5	84 c9		 test	 cl, cl
  000a7	0f 84 ec 00 00
	00		 je	 $LN88@LoadAttack
  000ad	80 f1 ed	 xor	 cl, -19			; ffffffedH
  000b0	88 4d ec	 mov	 BYTE PTR _szEncAttack$[ebp+8], cl
  000b3	8a 48 09	 mov	 cl, BYTE PTR [eax+9]
  000b6	84 c9		 test	 cl, cl
  000b8	0f 84 d5 00 00
	00		 je	 $LN87@LoadAttack
  000be	80 f1 ec	 xor	 cl, -20			; ffffffecH
  000c1	88 4d ed	 mov	 BYTE PTR _szEncAttack$[ebp+9], cl
  000c4	8a 48 0a	 mov	 cl, BYTE PTR [eax+10]
  000c7	84 c9		 test	 cl, cl
  000c9	0f 84 bf 00 00
	00		 je	 $LN86@LoadAttack
  000cf	32 ca		 xor	 cl, dl
  000d1	88 4d ee	 mov	 BYTE PTR _szEncAttack$[ebp+10], cl
  000d4	8a 48 0b	 mov	 cl, BYTE PTR [eax+11]
  000d7	84 c9		 test	 cl, cl
  000d9	0f 84 a9 00 00
	00		 je	 $LN85@LoadAttack
  000df	80 f1 ea	 xor	 cl, -22			; ffffffeaH
  000e2	88 4d ef	 mov	 BYTE PTR _szEncAttack$[ebp+11], cl
  000e5	8a 48 0c	 mov	 cl, BYTE PTR [eax+12]
  000e8	84 c9		 test	 cl, cl
  000ea	0f 84 92 00 00
	00		 je	 $LN84@LoadAttack
  000f0	80 f1 ed	 xor	 cl, -19			; ffffffedH
  000f3	88 4d f0	 mov	 BYTE PTR _szEncAttack$[ebp+12], cl
  000f6	8a 48 0d	 mov	 cl, BYTE PTR [eax+13]
  000f9	84 c9		 test	 cl, cl
  000fb	74 7f		 je	 SHORT $LN83@LoadAttack
  000fd	80 f1 ec	 xor	 cl, -20			; ffffffecH
  00100	88 4d f1	 mov	 BYTE PTR _szEncAttack$[ebp+13], cl
  00103	8a 48 0e	 mov	 cl, BYTE PTR [eax+14]
  00106	84 c9		 test	 cl, cl
  00108	74 6d		 je	 SHORT $LN82@LoadAttack
  0010a	32 ca		 xor	 cl, dl
  0010c	88 4d f2	 mov	 BYTE PTR _szEncAttack$[ebp+14], cl
  0010f	8a 48 0f	 mov	 cl, BYTE PTR [eax+15]
  00112	84 c9		 test	 cl, cl
  00114	74 5b		 je	 SHORT $LN81@LoadAttack
  00116	80 f1 ea	 xor	 cl, -22			; ffffffeaH
  00119	80 78 10 00	 cmp	 BYTE PTR [eax+16], 0
  0011d	88 4d f3	 mov	 BYTE PTR _szEncAttack$[ebp+15], cl
  00120	0f 84 a6 00 00
	00		 je	 $LN1@LoadAttack
  00126	8a 48 11	 mov	 cl, BYTE PTR [eax+17]
  00129	84 c9		 test	 cl, cl
  0012b	74 3e		 je	 SHORT $LN79@LoadAttack
  0012d	80 f1 ec	 xor	 cl, -20			; ffffffecH
  00130	88 4d f5	 mov	 BYTE PTR _szEncAttack$[ebp+17], cl
  00133	8a 48 12	 mov	 cl, BYTE PTR [eax+18]
  00136	84 c9		 test	 cl, cl
  00138	74 2c		 je	 SHORT $LN78@LoadAttack
  0013a	32 ca		 xor	 cl, dl
  0013c	88 4d f6	 mov	 BYTE PTR _szEncAttack$[ebp+18], cl
  0013f	8a 48 13	 mov	 cl, BYTE PTR [eax+19]
  00142	84 c9		 test	 cl, cl
  00144	74 1a		 je	 SHORT $LN77@LoadAttack
  00146	8a 40 14	 mov	 al, BYTE PTR [eax+20]
  00149	80 f1 ea	 xor	 cl, -22			; ffffffeaH
  0014c	88 4d f7	 mov	 BYTE PTR _szEncAttack$[ebp+19], cl
  0014f	84 c0		 test	 al, al
  00151	74 07		 je	 SHORT $LN76@LoadAttack
  00153	34 ed		 xor	 al, -19			; ffffffedH
  00155	88 45 f8	 mov	 BYTE PTR _szEncAttack$[ebp+20], al
  00158	eb 72		 jmp	 SHORT $LN1@LoadAttack
$LN76@LoadAttack:
  0015a	c6 45 f8 ed	 mov	 BYTE PTR _szEncAttack$[ebp+20], -19 ; ffffffedH
  0015e	eb 6c		 jmp	 SHORT $LN1@LoadAttack
$LN77@LoadAttack:
  00160	c6 45 f7 ea	 mov	 BYTE PTR _szEncAttack$[ebp+19], -22 ; ffffffeaH
  00164	eb 66		 jmp	 SHORT $LN1@LoadAttack
$LN78@LoadAttack:
  00166	88 55 f6	 mov	 BYTE PTR _szEncAttack$[ebp+18], dl
  00169	eb 61		 jmp	 SHORT $LN1@LoadAttack
$LN79@LoadAttack:
  0016b	c6 45 f5 ec	 mov	 BYTE PTR _szEncAttack$[ebp+17], -20 ; ffffffecH
  0016f	eb 5b		 jmp	 SHORT $LN1@LoadAttack
$LN81@LoadAttack:
  00171	c6 45 f3 ea	 mov	 BYTE PTR _szEncAttack$[ebp+15], -22 ; ffffffeaH
  00175	eb 55		 jmp	 SHORT $LN1@LoadAttack
$LN82@LoadAttack:
  00177	88 55 f2	 mov	 BYTE PTR _szEncAttack$[ebp+14], dl
  0017a	eb 50		 jmp	 SHORT $LN1@LoadAttack
$LN83@LoadAttack:
  0017c	c6 45 f1 ec	 mov	 BYTE PTR _szEncAttack$[ebp+13], -20 ; ffffffecH
  00180	eb 4a		 jmp	 SHORT $LN1@LoadAttack
$LN84@LoadAttack:
  00182	c6 45 f0 ed	 mov	 BYTE PTR _szEncAttack$[ebp+12], -19 ; ffffffedH
  00186	eb 44		 jmp	 SHORT $LN1@LoadAttack
$LN85@LoadAttack:
  00188	c6 45 ef ea	 mov	 BYTE PTR _szEncAttack$[ebp+11], -22 ; ffffffeaH
  0018c	eb 3e		 jmp	 SHORT $LN1@LoadAttack
$LN86@LoadAttack:
  0018e	88 55 ee	 mov	 BYTE PTR _szEncAttack$[ebp+10], dl
  00191	eb 39		 jmp	 SHORT $LN1@LoadAttack
$LN87@LoadAttack:
  00193	c6 45 ed ec	 mov	 BYTE PTR _szEncAttack$[ebp+9], -20 ; ffffffecH
  00197	eb 33		 jmp	 SHORT $LN1@LoadAttack
$LN88@LoadAttack:
  00199	c6 45 ec ed	 mov	 BYTE PTR _szEncAttack$[ebp+8], -19 ; ffffffedH
  0019d	eb 2d		 jmp	 SHORT $LN1@LoadAttack
$LN89@LoadAttack:
  0019f	c6 45 eb ea	 mov	 BYTE PTR _szEncAttack$[ebp+7], -22 ; ffffffeaH
  001a3	eb 27		 jmp	 SHORT $LN1@LoadAttack
$LN90@LoadAttack:
  001a5	88 55 ea	 mov	 BYTE PTR _szEncAttack$[ebp+6], dl
  001a8	eb 22		 jmp	 SHORT $LN1@LoadAttack
$LN91@LoadAttack:
  001aa	c6 45 e9 ec	 mov	 BYTE PTR _szEncAttack$[ebp+5], -20 ; ffffffecH
  001ae	eb 1c		 jmp	 SHORT $LN1@LoadAttack
$LN92@LoadAttack:
  001b0	c6 45 e8 ed	 mov	 BYTE PTR _szEncAttack$[ebp+4], -19 ; ffffffedH
  001b4	eb 16		 jmp	 SHORT $LN1@LoadAttack
$LN93@LoadAttack:
  001b6	c6 45 e7 ea	 mov	 BYTE PTR _szEncAttack$[ebp+3], -22 ; ffffffeaH
  001ba	eb 10		 jmp	 SHORT $LN1@LoadAttack
$LN94@LoadAttack:
  001bc	c6 45 e6 eb	 mov	 BYTE PTR _szEncAttack$[ebp+2], -21 ; ffffffebH
  001c0	eb 0a		 jmp	 SHORT $LN1@LoadAttack
$LN95@LoadAttack:
  001c2	c6 45 e5 ec	 mov	 BYTE PTR _szEncAttack$[ebp+1], -20 ; ffffffecH
  001c6	eb 04		 jmp	 SHORT $LN1@LoadAttack
$LN96@LoadAttack:
  001c8	c6 45 e4 ed	 mov	 BYTE PTR _szEncAttack$[ebp], -19 ; ffffffedH
$LN1@LoadAttack:
  001cc	6a 04		 push	 4
  001ce	8d 45 e4	 lea	 eax, DWORD PTR _szEncAttack$[ebp]
  001d1	c6 45 f4 00	 mov	 BYTE PTR _szEncAttack$[ebp+16], 0
  001d5	59		 pop	 ecx
$LL104@LoadAttack:
  001d6	81 30 ed ec eb
	ea		 xor	 DWORD PTR [eax], -353637139 ; eaebecedH
  001dc	83 c0 04	 add	 eax, 4
  001df	49		 dec	 ecx
  001e0	75 f4		 jne	 SHORT $LL104@LoadAttack

; 133  : 	LoadAttackAttribute(szEncAttack, rkAttribute, rkLoader);

  001e2	57		 push	 edi
  001e3	8d 45 e4	 lea	 eax, DWORD PTR _szEncAttack$[ebp]
  001e6	56		 push	 esi
  001e7	50		 push	 eax
  001e8	e8 00 00 00 00	 call	 ?LoadAttackAttribute@@YAXPBDAAUAttackAttribute@@AAVioINILoader@@@Z ; LoadAttackAttribute

; 134  : }

  001ed	8b 4d fc	 mov	 ecx, DWORD PTR __$ArrayPad$[ebp]
  001f0	83 c4 0c	 add	 esp, 12			; 0000000cH
  001f3	5f		 pop	 edi
  001f4	33 cd		 xor	 ecx, ebp
  001f6	5e		 pop	 esi
  001f7	e8 00 00 00 00	 call	 @__security_check_cookie@4
  001fc	c9		 leave
  001fd	c3		 ret	 0
??$LoadAttackAttribute_e@$0BB@@@YAXAAY0BB@$$CBDAAUAttackAttribute@@AAVioINILoader@@@Z ENDP ; LoadAttackAttribute_e<17>
_TEXT	ENDS
PUBLIC	__$ArrayPad$
PUBLIC	??$LoadAttackAttribute_e@$0BG@@@YAXAAY0BG@$$CBDAAUAttackAttribute@@AAVioINILoader@@@Z ; LoadAttackAttribute_e<22>
; Function compile flags: /Ogsp
;	COMDAT ??$LoadAttackAttribute_e@$0BG@@@YAXAAY0BG@$$CBDAAUAttackAttribute@@AAVioINILoader@@@Z
_TEXT	SEGMENT
_szEncAttack$ = -32					; size = 22
__$ArrayPad$ = -4					; size = 4
_szAttack$ = 8						; size = 4
_rkAttribute$ = 12					; size = 4
_rkLoader$ = 16						; size = 4
??$LoadAttackAttribute_e@$0BG@@@YAXAAY0BG@$$CBDAAUAttackAttribute@@AAVioINILoader@@@Z PROC ; LoadAttackAttribute_e<22>, COMDAT

; 131  : {

  00000	55		 push	 ebp
  00001	8b ec		 mov	 ebp, esp
  00003	83 ec 20	 sub	 esp, 32			; 00000020H
  00006	a1 00 00 00 00	 mov	 eax, DWORD PTR ___security_cookie
  0000b	33 c5		 xor	 eax, ebp
  0000d	89 45 fc	 mov	 DWORD PTR __$ArrayPad$[ebp], eax
  00010	8b 45 08	 mov	 eax, DWORD PTR _szAttack$[ebp]

; 132  : 	_ENCSTR(szAttack, szEncAttack);

  00013	8a 08		 mov	 cl, BYTE PTR [eax]
  00015	53		 push	 ebx
  00016	56		 push	 esi
  00017	8b 75 0c	 mov	 esi, DWORD PTR _rkAttribute$[ebp]
  0001a	57		 push	 edi
  0001b	8b 7d 10	 mov	 edi, DWORD PTR _rkLoader$[ebp]
  0001e	84 c9		 test	 cl, cl
  00020	0f 84 15 02 00
	00		 je	 $LN96@LoadAttack@2
  00026	80 f1 ed	 xor	 cl, -19			; ffffffedH
  00029	88 4d e0	 mov	 BYTE PTR _szEncAttack$[ebp], cl
  0002c	8a 48 01	 mov	 cl, BYTE PTR [eax+1]
  0002f	84 c9		 test	 cl, cl
  00031	0f 84 fe 01 00
	00		 je	 $LN95@LoadAttack@2
  00037	80 f1 ec	 xor	 cl, -20			; ffffffecH
  0003a	88 4d e1	 mov	 BYTE PTR _szEncAttack$[ebp+1], cl
  0003d	8a 48 02	 mov	 cl, BYTE PTR [eax+2]
  00040	84 c9		 test	 cl, cl
  00042	0f 84 e7 01 00
	00		 je	 $LN94@LoadAttack@2
  00048	b3 eb		 mov	 bl, -21			; ffffffebH
  0004a	32 cb		 xor	 cl, bl
  0004c	88 4d e2	 mov	 BYTE PTR _szEncAttack$[ebp+2], cl
  0004f	8a 48 03	 mov	 cl, BYTE PTR [eax+3]
  00052	84 c9		 test	 cl, cl
  00054	0f 84 cf 01 00
	00		 je	 $LN93@LoadAttack@2
  0005a	b2 ea		 mov	 dl, -22			; ffffffeaH
  0005c	32 ca		 xor	 cl, dl
  0005e	88 4d e3	 mov	 BYTE PTR _szEncAttack$[ebp+3], cl
  00061	8a 48 04	 mov	 cl, BYTE PTR [eax+4]
  00064	84 c9		 test	 cl, cl
  00066	0f 84 b7 01 00
	00		 je	 $LN92@LoadAttack@2
  0006c	80 f1 ed	 xor	 cl, -19			; ffffffedH
  0006f	88 4d e4	 mov	 BYTE PTR _szEncAttack$[ebp+4], cl
  00072	8a 48 05	 mov	 cl, BYTE PTR [eax+5]
  00075	84 c9		 test	 cl, cl
  00077	0f 84 a0 01 00
	00		 je	 $LN91@LoadAttack@2
  0007d	80 f1 ec	 xor	 cl, -20			; ffffffecH
  00080	88 4d e5	 mov	 BYTE PTR _szEncAttack$[ebp+5], cl
  00083	8a 48 06	 mov	 cl, BYTE PTR [eax+6]
  00086	84 c9		 test	 cl, cl
  00088	0f 84 8a 01 00
	00		 je	 $LN90@LoadAttack@2
  0008e	32 cb		 xor	 cl, bl
  00090	88 4d e6	 mov	 BYTE PTR _szEncAttack$[ebp+6], cl
  00093	8a 48 07	 mov	 cl, BYTE PTR [eax+7]
  00096	84 c9		 test	 cl, cl
  00098	0f 84 75 01 00
	00		 je	 $LN89@LoadAttack@2
  0009e	32 ca		 xor	 cl, dl
  000a0	88 4d e7	 mov	 BYTE PTR _szEncAttack$[ebp+7], cl
  000a3	8a 48 08	 mov	 cl, BYTE PTR [eax+8]
  000a6	84 c9		 test	 cl, cl
  000a8	0f 84 5f 01 00
	00		 je	 $LN88@LoadAttack@2
  000ae	80 f1 ed	 xor	 cl, -19			; ffffffedH
  000b1	88 4d e8	 mov	 BYTE PTR _szEncAttack$[ebp+8], cl
  000b4	8a 48 09	 mov	 cl, BYTE PTR [eax+9]
  000b7	84 c9		 test	 cl, cl
  000b9	0f 84 48 01 00
	00		 je	 $LN87@LoadAttack@2
  000bf	80 f1 ec	 xor	 cl, -20			; ffffffecH
  000c2	88 4d e9	 mov	 BYTE PTR _szEncAttack$[ebp+9], cl
  000c5	8a 48 0a	 mov	 cl, BYTE PTR [eax+10]
  000c8	84 c9		 test	 cl, cl
  000ca	0f 84 32 01 00
	00		 je	 $LN86@LoadAttack@2
  000d0	32 cb		 xor	 cl, bl
  000d2	88 4d ea	 mov	 BYTE PTR _szEncAttack$[ebp+10], cl
  000d5	8a 48 0b	 mov	 cl, BYTE PTR [eax+11]
  000d8	84 c9		 test	 cl, cl
  000da	0f 84 1d 01 00
	00		 je	 $LN85@LoadAttack@2
  000e0	32 ca		 xor	 cl, dl
  000e2	88 4d eb	 mov	 BYTE PTR _szEncAttack$[ebp+11], cl
  000e5	8a 48 0c	 mov	 cl, BYTE PTR [eax+12]
  000e8	84 c9		 test	 cl, cl
  000ea	0f 84 07 01 00
	00		 je	 $LN84@LoadAttack@2
  000f0	80 f1 ed	 xor	 cl, -19			; ffffffedH
  000f3	88 4d ec	 mov	 BYTE PTR _szEncAttack$[ebp+12], cl
  000f6	8a 48 0d	 mov	 cl, BYTE PTR [eax+13]
  000f9	84 c9		 test	 cl, cl
  000fb	0f 84 f0 00 00
	00		 je	 $LN83@LoadAttack@2
  00101	80 f1 ec	 xor	 cl, -20			; ffffffecH
  00104	88 4d ed	 mov	 BYTE PTR _szEncAttack$[ebp+13], cl
  00107	8a 48 0e	 mov	 cl, BYTE PTR [eax+14]
  0010a	84 c9		 test	 cl, cl
  0010c	0f 84 da 00 00
	00		 je	 $LN82@LoadAttack@2
  00112	32 cb		 xor	 cl, bl
  00114	88 4d ee	 mov	 BYTE PTR _szEncAttack$[ebp+14], cl
  00117	8a 48 0f	 mov	 cl, BYTE PTR [eax+15]
  0011a	84 c9		 test	 cl, cl
  0011c	0f 84 c5 00 00
	00		 je	 $LN81@LoadAttack@2
  00122	32 ca		 xor	 cl, dl
  00124	88 4d ef	 mov	 BYTE PTR _szEncAttack$[ebp+15], cl
  00127	8a 48 10	 mov	 cl, BYTE PTR [eax+16]
  0012a	84 c9		 test	 cl, cl
  0012c	0f 84 af 00 00
	00		 je	 $LN80@LoadAttack@2
  00132	80 f1 ed	 xor	 cl, -19			; ffffffedH
  00135	88 4d f0	 mov	 BYTE PTR _szEncAttack$[ebp+16], cl
  00138	8a 48 11	 mov	 cl, BYTE PTR [eax+17]
  0013b	84 c9		 test	 cl, cl
  0013d	0f 84 98 00 00
	00		 je	 $LN79@LoadAttack@2
  00143	80 f1 ec	 xor	 cl, -20			; ffffffecH
  00146	88 4d f1	 mov	 BYTE PTR _szEncAttack$[ebp+17], cl
  00149	8a 48 12	 mov	 cl, BYTE PTR [eax+18]
  0014c	84 c9		 test	 cl, cl
  0014e	0f 84 82 00 00
	00		 je	 $LN78@LoadAttack@2
  00154	32 cb		 xor	 cl, bl
  00156	88 4d f2	 mov	 BYTE PTR _szEncAttack$[ebp+18], cl
  00159	8a 48 13	 mov	 cl, BYTE PTR [eax+19]
  0015c	84 c9		 test	 cl, cl
  0015e	74 71		 je	 SHORT $LN77@LoadAttack@2
  00160	32 ca		 xor	 cl, dl
  00162	88 4d f3	 mov	 BYTE PTR _szEncAttack$[ebp+19], cl
  00165	8a 48 14	 mov	 cl, BYTE PTR [eax+20]
  00168	84 c9		 test	 cl, cl
  0016a	74 5f		 je	 SHORT $LN76@LoadAttack@2
  0016c	80 f1 ed	 xor	 cl, -19			; ffffffedH
  0016f	80 78 15 00	 cmp	 BYTE PTR [eax+21], 0
  00173	88 4d f4	 mov	 BYTE PTR _szEncAttack$[ebp+20], cl
  00176	0f 84 c3 00 00
	00		 je	 $LN1@LoadAttack@2
  0017c	8a 48 16	 mov	 cl, BYTE PTR [eax+22]
  0017f	84 c9		 test	 cl, cl
  00181	74 43		 je	 SHORT $LN74@LoadAttack@2
  00183	32 cb		 xor	 cl, bl
  00185	88 4d f6	 mov	 BYTE PTR _szEncAttack$[ebp+22], cl
  00188	8a 48 17	 mov	 cl, BYTE PTR [eax+23]
  0018b	84 c9		 test	 cl, cl
  0018d	74 32		 je	 SHORT $LN73@LoadAttack@2
  0018f	32 ca		 xor	 cl, dl
  00191	88 4d f7	 mov	 BYTE PTR _szEncAttack$[ebp+23], cl
  00194	8a 48 18	 mov	 cl, BYTE PTR [eax+24]
  00197	84 c9		 test	 cl, cl
  00199	74 20		 je	 SHORT $LN72@LoadAttack@2
  0019b	8a 40 19	 mov	 al, BYTE PTR [eax+25]
  0019e	80 f1 ed	 xor	 cl, -19			; ffffffedH
  001a1	88 4d f8	 mov	 BYTE PTR _szEncAttack$[ebp+24], cl
  001a4	84 c0		 test	 al, al
  001a6	74 0a		 je	 SHORT $LN71@LoadAttack@2
  001a8	34 ec		 xor	 al, -20			; ffffffecH
  001aa	88 45 f9	 mov	 BYTE PTR _szEncAttack$[ebp+25], al
  001ad	e9 8d 00 00 00	 jmp	 $LN1@LoadAttack@2
$LN71@LoadAttack@2:
  001b2	c6 45 f9 ec	 mov	 BYTE PTR _szEncAttack$[ebp+25], -20 ; ffffffecH
  001b6	e9 84 00 00 00	 jmp	 $LN1@LoadAttack@2
$LN72@LoadAttack@2:
  001bb	c6 45 f8 ed	 mov	 BYTE PTR _szEncAttack$[ebp+24], -19 ; ffffffedH
  001bf	eb 7e		 jmp	 SHORT $LN1@LoadAttack@2
$LN73@LoadAttack@2:
  001c1	88 55 f7	 mov	 BYTE PTR _szEncAttack$[ebp+23], dl
  001c4	eb 79		 jmp	 SHORT $LN1@LoadAttack@2
$LN74@LoadAttack@2:
  001c6	88 5d f6	 mov	 BYTE PTR _szEncAttack$[ebp+22], bl
  001c9	eb 74		 jmp	 SHORT $LN1@LoadAttack@2
$LN76@LoadAttack@2:
  001cb	c6 45 f4 ed	 mov	 BYTE PTR _szEncAttack$[ebp+20], -19 ; ffffffedH
  001cf	eb 6e		 jmp	 SHORT $LN1@LoadAttack@2
$LN77@LoadAttack@2:
  001d1	88 55 f3	 mov	 BYTE PTR _szEncAttack$[ebp+19], dl
  001d4	eb 69		 jmp	 SHORT $LN1@LoadAttack@2
$LN78@LoadAttack@2:
  001d6	88 5d f2	 mov	 BYTE PTR _szEncAttack$[ebp+18], bl
  001d9	eb 64		 jmp	 SHORT $LN1@LoadAttack@2
$LN79@LoadAttack@2:
  001db	c6 45 f1 ec	 mov	 BYTE PTR _szEncAttack$[ebp+17], -20 ; ffffffecH
  001df	eb 5e		 jmp	 SHORT $LN1@LoadAttack@2
$LN80@LoadAttack@2:
  001e1	c6 45 f0 ed	 mov	 BYTE PTR _szEncAttack$[ebp+16], -19 ; ffffffedH
  001e5	eb 58		 jmp	 SHORT $LN1@LoadAttack@2
$LN81@LoadAttack@2:
  001e7	88 55 ef	 mov	 BYTE PTR _szEncAttack$[ebp+15], dl
  001ea	eb 53		 jmp	 SHORT $LN1@LoadAttack@2
$LN82@LoadAttack@2:
  001ec	88 5d ee	 mov	 BYTE PTR _szEncAttack$[ebp+14], bl
  001ef	eb 4e		 jmp	 SHORT $LN1@LoadAttack@2
$LN83@LoadAttack@2:
  001f1	c6 45 ed ec	 mov	 BYTE PTR _szEncAttack$[ebp+13], -20 ; ffffffecH
  001f5	eb 48		 jmp	 SHORT $LN1@LoadAttack@2
$LN84@LoadAttack@2:
  001f7	c6 45 ec ed	 mov	 BYTE PTR _szEncAttack$[ebp+12], -19 ; ffffffedH
  001fb	eb 42		 jmp	 SHORT $LN1@LoadAttack@2
$LN85@LoadAttack@2:
  001fd	88 55 eb	 mov	 BYTE PTR _szEncAttack$[ebp+11], dl
  00200	eb 3d		 jmp	 SHORT $LN1@LoadAttack@2
$LN86@LoadAttack@2:
  00202	88 5d ea	 mov	 BYTE PTR _szEncAttack$[ebp+10], bl
  00205	eb 38		 jmp	 SHORT $LN1@LoadAttack@2
$LN87@LoadAttack@2:
  00207	c6 45 e9 ec	 mov	 BYTE PTR _szEncAttack$[ebp+9], -20 ; ffffffecH
  0020b	eb 32		 jmp	 SHORT $LN1@LoadAttack@2
$LN88@LoadAttack@2:
  0020d	c6 45 e8 ed	 mov	 BYTE PTR _szEncAttack$[ebp+8], -19 ; ffffffedH
  00211	eb 2c		 jmp	 SHORT $LN1@LoadAttack@2
$LN89@LoadAttack@2:
  00213	88 55 e7	 mov	 BYTE PTR _szEncAttack$[ebp+7], dl
  00216	eb 27		 jmp	 SHORT $LN1@LoadAttack@2
$LN90@LoadAttack@2:
  00218	88 5d e6	 mov	 BYTE PTR _szEncAttack$[ebp+6], bl
  0021b	eb 22		 jmp	 SHORT $LN1@LoadAttack@2
$LN91@LoadAttack@2:
  0021d	c6 45 e5 ec	 mov	 BYTE PTR _szEncAttack$[ebp+5], -20 ; ffffffecH
  00221	eb 1c		 jmp	 SHORT $LN1@LoadAttack@2
$LN92@LoadAttack@2:
  00223	c6 45 e4 ed	 mov	 BYTE PTR _szEncAttack$[ebp+4], -19 ; ffffffedH
  00227	eb 16		 jmp	 SHORT $LN1@LoadAttack@2
$LN93@LoadAttack@2:
  00229	c6 45 e3 ea	 mov	 BYTE PTR _szEncAttack$[ebp+3], -22 ; ffffffeaH
  0022d	eb 10		 jmp	 SHORT $LN1@LoadAttack@2
$LN94@LoadAttack@2:
  0022f	c6 45 e2 eb	 mov	 BYTE PTR _szEncAttack$[ebp+2], -21 ; ffffffebH
  00233	eb 0a		 jmp	 SHORT $LN1@LoadAttack@2
$LN95@LoadAttack@2:
  00235	c6 45 e1 ec	 mov	 BYTE PTR _szEncAttack$[ebp+1], -20 ; ffffffecH
  00239	eb 04		 jmp	 SHORT $LN1@LoadAttack@2
$LN96@LoadAttack@2:
  0023b	c6 45 e0 ed	 mov	 BYTE PTR _szEncAttack$[ebp], -19 ; ffffffedH
$LN1@LoadAttack@2:
  0023f	6a 05		 push	 5
  00241	8d 45 e0	 lea	 eax, DWORD PTR _szEncAttack$[ebp]
  00244	c6 45 f5 00	 mov	 BYTE PTR _szEncAttack$[ebp+21], 0
  00248	59		 pop	 ecx
$LL104@LoadAttack@2:
  00249	81 30 ed ec eb
	ea		 xor	 DWORD PTR [eax], -353637139 ; eaebecedH
  0024f	83 c0 04	 add	 eax, 4
  00252	49		 dec	 ecx
  00253	75 f4		 jne	 SHORT $LL104@LoadAttack@2
  00255	80 75 f4 ed	 xor	 BYTE PTR _szEncAttack$[ebp+20], -19 ; ffffffedH

; 133  : 	LoadAttackAttribute(szEncAttack, rkAttribute, rkLoader);

  00259	57		 push	 edi
  0025a	8d 45 e0	 lea	 eax, DWORD PTR _szEncAttack$[ebp]
  0025d	56		 push	 esi
  0025e	50		 push	 eax
  0025f	e8 00 00 00 00	 call	 ?LoadAttackAttribute@@YAXPBDAAUAttackAttribute@@AAVioINILoader@@@Z ; LoadAttackAttribute

; 134  : }

  00264	8b 4d fc	 mov	 ecx, DWORD PTR __$ArrayPad$[ebp]
  00267	83 c4 0c	 add	 esp, 12			; 0000000cH
  0026a	5f		 pop	 edi
  0026b	5e		 pop	 esi
  0026c	33 cd		 xor	 ecx, ebp
  0026e	5b		 pop	 ebx
  0026f	e8 00 00 00 00	 call	 @__security_check_cookie@4
  00274	c9		 leave
  00275	c3		 ret	 0
??$LoadAttackAttribute_e@$0BG@@@YAXAAY0BG@$$CBDAAUAttackAttribute@@AAVioINILoader@@@Z ENDP ; LoadAttackAttribute_e<22>
_TEXT	ENDS
PUBLIC	__$ArrayPad$
PUBLIC	??$LoadBool_e@$0BB@@ioINILoader@@QAE_NAAY0BB@$$CBD_N@Z ; ioINILoader::LoadBool_e<17>
; Function compile flags: /Ogsp
; File d:\lost saga for developer\youtube\tutorial\source\src\io3dengine\ioiniloader.h
;	COMDAT ??$LoadBool_e@$0BB@@ioINILoader@@QAE_NAAY0BB@$$CBD_N@Z
_TEXT	SEGMENT
__k$ = -28						; size = 17
__$ArrayPad$ = -4					; size = 4
_k$ = 8							; size = 4
_b$ = 12						; size = 1
??$LoadBool_e@$0BB@@ioINILoader@@QAE_NAAY0BB@$$CBD_N@Z PROC ; ioINILoader::LoadBool_e<17>, COMDAT
; _this$ = ecx

; 101  : 	{

  00000	55		 push	 ebp
  00001	8b ec		 mov	 ebp, esp
  00003	83 ec 1c	 sub	 esp, 28			; 0000001cH
  00006	a1 00 00 00 00	 mov	 eax, DWORD PTR ___security_cookie
  0000b	33 c5		 xor	 eax, ebp
  0000d	89 45 fc	 mov	 DWORD PTR __$ArrayPad$[ebp], eax
  00010	8b 45 08	 mov	 eax, DWORD PTR _k$[ebp]

; 102  : 		_ENCSTR(k, _k);

  00013	8a 10		 mov	 dl, BYTE PTR [eax]
  00015	56		 push	 esi
  00016	8b f1		 mov	 esi, ecx
  00018	84 d2		 test	 dl, dl
  0001a	0f 84 a7 01 00
	00		 je	 $LN96@LoadBool_e@3
  00020	80 f2 ed	 xor	 dl, -19			; ffffffedH
  00023	88 55 e4	 mov	 BYTE PTR __k$[ebp], dl
  00026	8a 50 01	 mov	 dl, BYTE PTR [eax+1]
  00029	84 d2		 test	 dl, dl
  0002b	0f 84 90 01 00
	00		 je	 $LN95@LoadBool_e@3
  00031	b1 ec		 mov	 cl, -20			; ffffffecH
  00033	32 d1		 xor	 dl, cl
  00035	88 55 e5	 mov	 BYTE PTR __k$[ebp+1], dl
  00038	8a 50 02	 mov	 dl, BYTE PTR [eax+2]
  0003b	84 d2		 test	 dl, dl
  0003d	0f 84 78 01 00
	00		 je	 $LN94@LoadBool_e@3
  00043	80 f2 eb	 xor	 dl, -21			; ffffffebH
  00046	88 55 e6	 mov	 BYTE PTR __k$[ebp+2], dl
  00049	8a 50 03	 mov	 dl, BYTE PTR [eax+3]
  0004c	84 d2		 test	 dl, dl
  0004e	0f 84 61 01 00
	00		 je	 $LN93@LoadBool_e@3
  00054	80 f2 ea	 xor	 dl, -22			; ffffffeaH
  00057	88 55 e7	 mov	 BYTE PTR __k$[ebp+3], dl
  0005a	8a 50 04	 mov	 dl, BYTE PTR [eax+4]
  0005d	84 d2		 test	 dl, dl
  0005f	0f 84 4a 01 00
	00		 je	 $LN92@LoadBool_e@3
  00065	80 f2 ed	 xor	 dl, -19			; ffffffedH
  00068	88 55 e8	 mov	 BYTE PTR __k$[ebp+4], dl
  0006b	8a 50 05	 mov	 dl, BYTE PTR [eax+5]
  0006e	84 d2		 test	 dl, dl
  00070	0f 84 34 01 00
	00		 je	 $LN91@LoadBool_e@3
  00076	32 d1		 xor	 dl, cl
  00078	88 55 e9	 mov	 BYTE PTR __k$[ebp+5], dl
  0007b	8a 50 06	 mov	 dl, BYTE PTR [eax+6]
  0007e	84 d2		 test	 dl, dl
  00080	0f 84 1e 01 00
	00		 je	 $LN90@LoadBool_e@3
  00086	80 f2 eb	 xor	 dl, -21			; ffffffebH
  00089	88 55 ea	 mov	 BYTE PTR __k$[ebp+6], dl
  0008c	8a 50 07	 mov	 dl, BYTE PTR [eax+7]
  0008f	84 d2		 test	 dl, dl
  00091	0f 84 07 01 00
	00		 je	 $LN89@LoadBool_e@3
  00097	80 f2 ea	 xor	 dl, -22			; ffffffeaH
  0009a	88 55 eb	 mov	 BYTE PTR __k$[ebp+7], dl
  0009d	8a 50 08	 mov	 dl, BYTE PTR [eax+8]
  000a0	84 d2		 test	 dl, dl
  000a2	0f 84 f0 00 00
	00		 je	 $LN88@LoadBool_e@3
  000a8	80 f2 ed	 xor	 dl, -19			; ffffffedH
  000ab	88 55 ec	 mov	 BYTE PTR __k$[ebp+8], dl
  000ae	8a 50 09	 mov	 dl, BYTE PTR [eax+9]
  000b1	84 d2		 test	 dl, dl
  000b3	0f 84 da 00 00
	00		 je	 $LN87@LoadBool_e@3
  000b9	32 d1		 xor	 dl, cl
  000bb	88 55 ed	 mov	 BYTE PTR __k$[ebp+9], dl
  000be	8a 50 0a	 mov	 dl, BYTE PTR [eax+10]
  000c1	84 d2		 test	 dl, dl
  000c3	0f 84 c4 00 00
	00		 je	 $LN86@LoadBool_e@3
  000c9	80 f2 eb	 xor	 dl, -21			; ffffffebH
  000cc	88 55 ee	 mov	 BYTE PTR __k$[ebp+10], dl
  000cf	8a 50 0b	 mov	 dl, BYTE PTR [eax+11]
  000d2	84 d2		 test	 dl, dl
  000d4	0f 84 ad 00 00
	00		 je	 $LN85@LoadBool_e@3
  000da	80 f2 ea	 xor	 dl, -22			; ffffffeaH
  000dd	88 55 ef	 mov	 BYTE PTR __k$[ebp+11], dl
  000e0	8a 50 0c	 mov	 dl, BYTE PTR [eax+12]
  000e3	84 d2		 test	 dl, dl
  000e5	0f 84 96 00 00
	00		 je	 $LN84@LoadBool_e@3
  000eb	80 f2 ed	 xor	 dl, -19			; ffffffedH
  000ee	88 55 f0	 mov	 BYTE PTR __k$[ebp+12], dl
  000f1	8a 50 0d	 mov	 dl, BYTE PTR [eax+13]
  000f4	84 d2		 test	 dl, dl
  000f6	0f 84 80 00 00
	00		 je	 $LN83@LoadBool_e@3
  000fc	32 d1		 xor	 dl, cl
  000fe	88 55 f1	 mov	 BYTE PTR __k$[ebp+13], dl
  00101	8a 50 0e	 mov	 dl, BYTE PTR [eax+14]
  00104	84 d2		 test	 dl, dl
  00106	74 6e		 je	 SHORT $LN82@LoadBool_e@3
  00108	80 f2 eb	 xor	 dl, -21			; ffffffebH
  0010b	88 55 f2	 mov	 BYTE PTR __k$[ebp+14], dl
  0010e	8a 50 0f	 mov	 dl, BYTE PTR [eax+15]
  00111	84 d2		 test	 dl, dl
  00113	74 5b		 je	 SHORT $LN81@LoadBool_e@3
  00115	80 f2 ea	 xor	 dl, -22			; ffffffeaH
  00118	80 78 10 00	 cmp	 BYTE PTR [eax+16], 0
  0011c	88 55 f3	 mov	 BYTE PTR __k$[ebp+15], dl
  0011f	0f 84 a6 00 00
	00		 je	 $LN1@LoadBool_e@3
  00125	8a 50 11	 mov	 dl, BYTE PTR [eax+17]
  00128	84 d2		 test	 dl, dl
  0012a	74 3f		 je	 SHORT $LN79@LoadBool_e@3
  0012c	32 d1		 xor	 dl, cl
  0012e	88 55 f5	 mov	 BYTE PTR __k$[ebp+17], dl
  00131	8a 50 12	 mov	 dl, BYTE PTR [eax+18]
  00134	84 d2		 test	 dl, dl
  00136	74 2d		 je	 SHORT $LN78@LoadBool_e@3
  00138	80 f2 eb	 xor	 dl, -21			; ffffffebH
  0013b	88 55 f6	 mov	 BYTE PTR __k$[ebp+18], dl
  0013e	8a 50 13	 mov	 dl, BYTE PTR [eax+19]
  00141	84 d2		 test	 dl, dl
  00143	74 1a		 je	 SHORT $LN77@LoadBool_e@3
  00145	8a 40 14	 mov	 al, BYTE PTR [eax+20]
  00148	80 f2 ea	 xor	 dl, -22			; ffffffeaH
  0014b	88 55 f7	 mov	 BYTE PTR __k$[ebp+19], dl
  0014e	84 c0		 test	 al, al
  00150	74 07		 je	 SHORT $LN76@LoadBool_e@3
  00152	34 ed		 xor	 al, -19			; ffffffedH
  00154	88 45 f8	 mov	 BYTE PTR __k$[ebp+20], al
  00157	eb 72		 jmp	 SHORT $LN1@LoadBool_e@3
$LN76@LoadBool_e@3:
  00159	c6 45 f8 ed	 mov	 BYTE PTR __k$[ebp+20], -19 ; ffffffedH
  0015d	eb 6c		 jmp	 SHORT $LN1@LoadBool_e@3
$LN77@LoadBool_e@3:
  0015f	c6 45 f7 ea	 mov	 BYTE PTR __k$[ebp+19], -22 ; ffffffeaH
  00163	eb 66		 jmp	 SHORT $LN1@LoadBool_e@3
$LN78@LoadBool_e@3:
  00165	c6 45 f6 eb	 mov	 BYTE PTR __k$[ebp+18], -21 ; ffffffebH
  00169	eb 60		 jmp	 SHORT $LN1@LoadBool_e@3
$LN79@LoadBool_e@3:
  0016b	88 4d f5	 mov	 BYTE PTR __k$[ebp+17], cl
  0016e	eb 5b		 jmp	 SHORT $LN1@LoadBool_e@3
$LN81@LoadBool_e@3:
  00170	c6 45 f3 ea	 mov	 BYTE PTR __k$[ebp+15], -22 ; ffffffeaH
  00174	eb 55		 jmp	 SHORT $LN1@LoadBool_e@3
$LN82@LoadBool_e@3:
  00176	c6 45 f2 eb	 mov	 BYTE PTR __k$[ebp+14], -21 ; ffffffebH
  0017a	eb 4f		 jmp	 SHORT $LN1@LoadBool_e@3
$LN83@LoadBool_e@3:
  0017c	88 4d f1	 mov	 BYTE PTR __k$[ebp+13], cl
  0017f	eb 4a		 jmp	 SHORT $LN1@LoadBool_e@3
$LN84@LoadBool_e@3:
  00181	c6 45 f0 ed	 mov	 BYTE PTR __k$[ebp+12], -19 ; ffffffedH
  00185	eb 44		 jmp	 SHORT $LN1@LoadBool_e@3
$LN85@LoadBool_e@3:
  00187	c6 45 ef ea	 mov	 BYTE PTR __k$[ebp+11], -22 ; ffffffeaH
  0018b	eb 3e		 jmp	 SHORT $LN1@LoadBool_e@3
$LN86@LoadBool_e@3:
  0018d	c6 45 ee eb	 mov	 BYTE PTR __k$[ebp+10], -21 ; ffffffebH
  00191	eb 38		 jmp	 SHORT $LN1@LoadBool_e@3
$LN87@LoadBool_e@3:
  00193	88 4d ed	 mov	 BYTE PTR __k$[ebp+9], cl
  00196	eb 33		 jmp	 SHORT $LN1@LoadBool_e@3
$LN88@LoadBool_e@3:
  00198	c6 45 ec ed	 mov	 BYTE PTR __k$[ebp+8], -19 ; ffffffedH
  0019c	eb 2d		 jmp	 SHORT $LN1@LoadBool_e@3
$LN89@LoadBool_e@3:
  0019e	c6 45 eb ea	 mov	 BYTE PTR __k$[ebp+7], -22 ; ffffffeaH
  001a2	eb 27		 jmp	 SHORT $LN1@LoadBool_e@3
$LN90@LoadBool_e@3:
  001a4	c6 45 ea eb	 mov	 BYTE PTR __k$[ebp+6], -21 ; ffffffebH
  001a8	eb 21		 jmp	 SHORT $LN1@LoadBool_e@3
$LN91@LoadBool_e@3:
  001aa	88 4d e9	 mov	 BYTE PTR __k$[ebp+5], cl
  001ad	eb 1c		 jmp	 SHORT $LN1@LoadBool_e@3
$LN92@LoadBool_e@3:
  001af	c6 45 e8 ed	 mov	 BYTE PTR __k$[ebp+4], -19 ; ffffffedH
  001b3	eb 16		 jmp	 SHORT $LN1@LoadBool_e@3
$LN93@LoadBool_e@3:
  001b5	c6 45 e7 ea	 mov	 BYTE PTR __k$[ebp+3], -22 ; ffffffeaH
  001b9	eb 10		 jmp	 SHORT $LN1@LoadBool_e@3
$LN94@LoadBool_e@3:
  001bb	c6 45 e6 eb	 mov	 BYTE PTR __k$[ebp+2], -21 ; ffffffebH
  001bf	eb 0a		 jmp	 SHORT $LN1@LoadBool_e@3
$LN95@LoadBool_e@3:
  001c1	c6 45 e5 ec	 mov	 BYTE PTR __k$[ebp+1], -20 ; ffffffecH
  001c5	eb 04		 jmp	 SHORT $LN1@LoadBool_e@3
$LN96@LoadBool_e@3:
  001c7	c6 45 e4 ed	 mov	 BYTE PTR __k$[ebp], -19	; ffffffedH
$LN1@LoadBool_e@3:
  001cb	6a 04		 push	 4
  001cd	8d 45 e4	 lea	 eax, DWORD PTR __k$[ebp]
  001d0	c6 45 f4 00	 mov	 BYTE PTR __k$[ebp+16], 0
  001d4	5a		 pop	 edx
$LL104@LoadBool_e@3:
  001d5	81 30 ed ec eb
	ea		 xor	 DWORD PTR [eax], -353637139 ; eaebecedH
  001db	83 c0 04	 add	 eax, 4
  001de	4a		 dec	 edx
  001df	75 f4		 jne	 SHORT $LL104@LoadBool_e@3

; 103  : 		return LoadBool(_k, b);

  001e1	ff 75 0c	 push	 DWORD PTR _b$[ebp]
  001e4	8d 45 e4	 lea	 eax, DWORD PTR __k$[ebp]
  001e7	50		 push	 eax
  001e8	8b ce		 mov	 ecx, esi
  001ea	ff 15 00 00 00
	00		 call	 DWORD PTR __imp_?LoadBool@ioINILoader@@QAE_NPBD_N@Z

; 104  : 	}

  001f0	8b 4d fc	 mov	 ecx, DWORD PTR __$ArrayPad$[ebp]
  001f3	33 cd		 xor	 ecx, ebp
  001f5	5e		 pop	 esi
  001f6	e8 00 00 00 00	 call	 @__security_check_cookie@4
  001fb	c9		 leave
  001fc	c2 08 00	 ret	 8
??$LoadBool_e@$0BB@@ioINILoader@@QAE_NAAY0BB@$$CBD_N@Z ENDP ; ioINILoader::LoadBool_e<17>
_TEXT	ENDS
PUBLIC	__$ArrayPad$
PUBLIC	??$LoadAttackAttribute_e@$0P@@@YAXAAY0P@$$CBDAAUAttackAttribute@@AAVioINILoader@@@Z ; LoadAttackAttribute_e<15>
; Function compile flags: /Ogsp
; File d:\lost saga for developer\youtube\tutorial\source\src\lsclient\ioattackattribute.h
;	COMDAT ??$LoadAttackAttribute_e@$0P@@@YAXAAY0P@$$CBDAAUAttackAttribute@@AAVioINILoader@@@Z
_TEXT	SEGMENT
_szEncAttack$ = -24					; size = 15
__$ArrayPad$ = -4					; size = 4
_szAttack$ = 8						; size = 4
_rkAttribute$ = 12					; size = 4
_rkLoader$ = 16						; size = 4
??$LoadAttackAttribute_e@$0P@@@YAXAAY0P@$$CBDAAUAttackAttribute@@AAVioINILoader@@@Z PROC ; LoadAttackAttribute_e<15>, COMDAT

; 131  : {

  00000	55		 push	 ebp
  00001	8b ec		 mov	 ebp, esp
  00003	83 ec 18	 sub	 esp, 24			; 00000018H
  00006	a1 00 00 00 00	 mov	 eax, DWORD PTR ___security_cookie
  0000b	33 c5		 xor	 eax, ebp
  0000d	89 45 fc	 mov	 DWORD PTR __$ArrayPad$[ebp], eax
  00010	8b 45 08	 mov	 eax, DWORD PTR _szAttack$[ebp]

; 132  : 	_ENCSTR(szAttack, szEncAttack);

  00013	8a 08		 mov	 cl, BYTE PTR [eax]
  00015	56		 push	 esi
  00016	8b 75 0c	 mov	 esi, DWORD PTR _rkAttribute$[ebp]
  00019	57		 push	 edi
  0001a	8b 7d 10	 mov	 edi, DWORD PTR _rkLoader$[ebp]
  0001d	84 c9		 test	 cl, cl
  0001f	0f 84 7b 01 00
	00		 je	 $LN96@LoadAttack@3
  00025	80 f1 ed	 xor	 cl, -19			; ffffffedH
  00028	88 4d e8	 mov	 BYTE PTR _szEncAttack$[ebp], cl
  0002b	8a 48 01	 mov	 cl, BYTE PTR [eax+1]
  0002e	84 c9		 test	 cl, cl
  00030	0f 84 64 01 00
	00		 je	 $LN95@LoadAttack@3
  00036	80 f1 ec	 xor	 cl, -20			; ffffffecH
  00039	88 4d e9	 mov	 BYTE PTR _szEncAttack$[ebp+1], cl
  0003c	8a 48 02	 mov	 cl, BYTE PTR [eax+2]
  0003f	84 c9		 test	 cl, cl
  00041	0f 84 4d 01 00
	00		 je	 $LN94@LoadAttack@3
  00047	80 f1 eb	 xor	 cl, -21			; ffffffebH
  0004a	88 4d ea	 mov	 BYTE PTR _szEncAttack$[ebp+2], cl
  0004d	8a 48 03	 mov	 cl, BYTE PTR [eax+3]
  00050	84 c9		 test	 cl, cl
  00052	0f 84 36 01 00
	00		 je	 $LN93@LoadAttack@3
  00058	b2 ea		 mov	 dl, -22			; ffffffeaH
  0005a	32 ca		 xor	 cl, dl
  0005c	88 4d eb	 mov	 BYTE PTR _szEncAttack$[ebp+3], cl
  0005f	8a 48 04	 mov	 cl, BYTE PTR [eax+4]
  00062	84 c9		 test	 cl, cl
  00064	0f 84 1e 01 00
	00		 je	 $LN92@LoadAttack@3
  0006a	80 f1 ed	 xor	 cl, -19			; ffffffedH
  0006d	88 4d ec	 mov	 BYTE PTR _szEncAttack$[ebp+4], cl
  00070	8a 48 05	 mov	 cl, BYTE PTR [eax+5]
  00073	84 c9		 test	 cl, cl
  00075	0f 84 07 01 00
	00		 je	 $LN91@LoadAttack@3
  0007b	80 f1 ec	 xor	 cl, -20			; ffffffecH
  0007e	88 4d ed	 mov	 BYTE PTR _szEncAttack$[ebp+5], cl
  00081	8a 48 06	 mov	 cl, BYTE PTR [eax+6]
  00084	84 c9		 test	 cl, cl
  00086	0f 84 f0 00 00
	00		 je	 $LN90@LoadAttack@3
  0008c	80 f1 eb	 xor	 cl, -21			; ffffffebH
  0008f	88 4d ee	 mov	 BYTE PTR _szEncAttack$[ebp+6], cl
  00092	8a 48 07	 mov	 cl, BYTE PTR [eax+7]
  00095	84 c9		 test	 cl, cl
  00097	0f 84 da 00 00
	00		 je	 $LN89@LoadAttack@3
  0009d	32 ca		 xor	 cl, dl
  0009f	88 4d ef	 mov	 BYTE PTR _szEncAttack$[ebp+7], cl
  000a2	8a 48 08	 mov	 cl, BYTE PTR [eax+8]
  000a5	84 c9		 test	 cl, cl
  000a7	0f 84 c4 00 00
	00		 je	 $LN88@LoadAttack@3
  000ad	80 f1 ed	 xor	 cl, -19			; ffffffedH
  000b0	88 4d f0	 mov	 BYTE PTR _szEncAttack$[ebp+8], cl
  000b3	8a 48 09	 mov	 cl, BYTE PTR [eax+9]
  000b6	84 c9		 test	 cl, cl
  000b8	0f 84 ad 00 00
	00		 je	 $LN87@LoadAttack@3
  000be	80 f1 ec	 xor	 cl, -20			; ffffffecH
  000c1	88 4d f1	 mov	 BYTE PTR _szEncAttack$[ebp+9], cl
  000c4	8a 48 0a	 mov	 cl, BYTE PTR [eax+10]
  000c7	84 c9		 test	 cl, cl
  000c9	0f 84 96 00 00
	00		 je	 $LN86@LoadAttack@3
  000cf	80 f1 eb	 xor	 cl, -21			; ffffffebH
  000d2	88 4d f2	 mov	 BYTE PTR _szEncAttack$[ebp+10], cl
  000d5	8a 48 0b	 mov	 cl, BYTE PTR [eax+11]
  000d8	84 c9		 test	 cl, cl
  000da	0f 84 80 00 00
	00		 je	 $LN85@LoadAttack@3
  000e0	32 ca		 xor	 cl, dl
  000e2	88 4d f3	 mov	 BYTE PTR _szEncAttack$[ebp+11], cl
  000e5	8a 48 0c	 mov	 cl, BYTE PTR [eax+12]
  000e8	84 c9		 test	 cl, cl
  000ea	74 6e		 je	 SHORT $LN84@LoadAttack@3
  000ec	80 f1 ed	 xor	 cl, -19			; ffffffedH
  000ef	88 4d f4	 mov	 BYTE PTR _szEncAttack$[ebp+12], cl
  000f2	8a 48 0d	 mov	 cl, BYTE PTR [eax+13]
  000f5	84 c9		 test	 cl, cl
  000f7	74 5b		 je	 SHORT $LN83@LoadAttack@3
  000f9	80 f1 ec	 xor	 cl, -20			; ffffffecH
  000fc	80 78 0e 00	 cmp	 BYTE PTR [eax+14], 0
  00100	88 4d f5	 mov	 BYTE PTR _szEncAttack$[ebp+13], cl
  00103	0f 84 9b 00 00
	00		 je	 $LN1@LoadAttack@3
  00109	8a 48 0f	 mov	 cl, BYTE PTR [eax+15]
  0010c	84 c9		 test	 cl, cl
  0010e	74 3f		 je	 SHORT $LN81@LoadAttack@3
  00110	32 ca		 xor	 cl, dl
  00112	88 4d f7	 mov	 BYTE PTR _szEncAttack$[ebp+15], cl
  00115	8a 48 10	 mov	 cl, BYTE PTR [eax+16]
  00118	84 c9		 test	 cl, cl
  0011a	74 2d		 je	 SHORT $LN80@LoadAttack@3
  0011c	80 f1 ed	 xor	 cl, -19			; ffffffedH
  0011f	88 4d f8	 mov	 BYTE PTR _szEncAttack$[ebp+16], cl
  00122	8a 48 11	 mov	 cl, BYTE PTR [eax+17]
  00125	84 c9		 test	 cl, cl
  00127	74 1a		 je	 SHORT $LN79@LoadAttack@3
  00129	8a 40 12	 mov	 al, BYTE PTR [eax+18]
  0012c	80 f1 ec	 xor	 cl, -20			; ffffffecH
  0012f	88 4d f9	 mov	 BYTE PTR _szEncAttack$[ebp+17], cl
  00132	84 c0		 test	 al, al
  00134	74 07		 je	 SHORT $LN78@LoadAttack@3
  00136	34 eb		 xor	 al, -21			; ffffffebH
  00138	88 45 fa	 mov	 BYTE PTR _szEncAttack$[ebp+18], al
  0013b	eb 67		 jmp	 SHORT $LN1@LoadAttack@3
$LN78@LoadAttack@3:
  0013d	c6 45 fa eb	 mov	 BYTE PTR _szEncAttack$[ebp+18], -21 ; ffffffebH
  00141	eb 61		 jmp	 SHORT $LN1@LoadAttack@3
$LN79@LoadAttack@3:
  00143	c6 45 f9 ec	 mov	 BYTE PTR _szEncAttack$[ebp+17], -20 ; ffffffecH
  00147	eb 5b		 jmp	 SHORT $LN1@LoadAttack@3
$LN80@LoadAttack@3:
  00149	c6 45 f8 ed	 mov	 BYTE PTR _szEncAttack$[ebp+16], -19 ; ffffffedH
  0014d	eb 55		 jmp	 SHORT $LN1@LoadAttack@3
$LN81@LoadAttack@3:
  0014f	88 55 f7	 mov	 BYTE PTR _szEncAttack$[ebp+15], dl
  00152	eb 50		 jmp	 SHORT $LN1@LoadAttack@3
$LN83@LoadAttack@3:
  00154	c6 45 f5 ec	 mov	 BYTE PTR _szEncAttack$[ebp+13], -20 ; ffffffecH
  00158	eb 4a		 jmp	 SHORT $LN1@LoadAttack@3
$LN84@LoadAttack@3:
  0015a	c6 45 f4 ed	 mov	 BYTE PTR _szEncAttack$[ebp+12], -19 ; ffffffedH
  0015e	eb 44		 jmp	 SHORT $LN1@LoadAttack@3
$LN85@LoadAttack@3:
  00160	88 55 f3	 mov	 BYTE PTR _szEncAttack$[ebp+11], dl
  00163	eb 3f		 jmp	 SHORT $LN1@LoadAttack@3
$LN86@LoadAttack@3:
  00165	c6 45 f2 eb	 mov	 BYTE PTR _szEncAttack$[ebp+10], -21 ; ffffffebH
  00169	eb 39		 jmp	 SHORT $LN1@LoadAttack@3
$LN87@LoadAttack@3:
  0016b	c6 45 f1 ec	 mov	 BYTE PTR _szEncAttack$[ebp+9], -20 ; ffffffecH
  0016f	eb 33		 jmp	 SHORT $LN1@LoadAttack@3
$LN88@LoadAttack@3:
  00171	c6 45 f0 ed	 mov	 BYTE PTR _szEncAttack$[ebp+8], -19 ; ffffffedH
  00175	eb 2d		 jmp	 SHORT $LN1@LoadAttack@3
$LN89@LoadAttack@3:
  00177	88 55 ef	 mov	 BYTE PTR _szEncAttack$[ebp+7], dl
  0017a	eb 28		 jmp	 SHORT $LN1@LoadAttack@3
$LN90@LoadAttack@3:
  0017c	c6 45 ee eb	 mov	 BYTE PTR _szEncAttack$[ebp+6], -21 ; ffffffebH
  00180	eb 22		 jmp	 SHORT $LN1@LoadAttack@3
$LN91@LoadAttack@3:
  00182	c6 45 ed ec	 mov	 BYTE PTR _szEncAttack$[ebp+5], -20 ; ffffffecH
  00186	eb 1c		 jmp	 SHORT $LN1@LoadAttack@3
$LN92@LoadAttack@3:
  00188	c6 45 ec ed	 mov	 BYTE PTR _szEncAttack$[ebp+4], -19 ; ffffffedH
  0018c	eb 16		 jmp	 SHORT $LN1@LoadAttack@3
$LN93@LoadAttack@3:
  0018e	c6 45 eb ea	 mov	 BYTE PTR _szEncAttack$[ebp+3], -22 ; ffffffeaH
  00192	eb 10		 jmp	 SHORT $LN1@LoadAttack@3
$LN94@LoadAttack@3:
  00194	c6 45 ea eb	 mov	 BYTE PTR _szEncAttack$[ebp+2], -21 ; ffffffebH
  00198	eb 0a		 jmp	 SHORT $LN1@LoadAttack@3
$LN95@LoadAttack@3:
  0019a	c6 45 e9 ec	 mov	 BYTE PTR _szEncAttack$[ebp+1], -20 ; ffffffecH
  0019e	eb 04		 jmp	 SHORT $LN1@LoadAttack@3
$LN96@LoadAttack@3:
  001a0	c6 45 e8 ed	 mov	 BYTE PTR _szEncAttack$[ebp], -19 ; ffffffedH
$LN1@LoadAttack@3:
  001a4	6a 03		 push	 3
  001a6	8d 45 e8	 lea	 eax, DWORD PTR _szEncAttack$[ebp]
  001a9	c6 45 f6 00	 mov	 BYTE PTR _szEncAttack$[ebp+14], 0
  001ad	59		 pop	 ecx
$LL104@LoadAttack@3:
  001ae	81 30 ed ec eb
	ea		 xor	 DWORD PTR [eax], -353637139 ; eaebecedH
  001b4	83 c0 04	 add	 eax, 4
  001b7	49		 dec	 ecx
  001b8	75 f4		 jne	 SHORT $LL104@LoadAttack@3
  001ba	6a 0c		 push	 12			; 0000000cH
  001bc	58		 pop	 eax
$LL101@LoadAttack@3:
  001bd	8b c8		 mov	 ecx, eax
  001bf	81 e1 03 00 00
	80		 and	 ecx, -2147483645	; 80000003H
  001c5	79 05		 jns	 SHORT $LN111@LoadAttack@3
  001c7	49		 dec	 ecx
  001c8	83 c9 fc	 or	 ecx, -4			; fffffffcH
  001cb	41		 inc	 ecx
$LN111@LoadAttack@3:
  001cc	b2 ed		 mov	 dl, -19			; ffffffedH
  001ce	2a d1		 sub	 dl, cl
  001d0	30 54 05 e8	 xor	 BYTE PTR _szEncAttack$[ebp+eax], dl
  001d4	40		 inc	 eax
  001d5	83 f8 0e	 cmp	 eax, 14			; 0000000eH
  001d8	7c e3		 jl	 SHORT $LL101@LoadAttack@3

; 133  : 	LoadAttackAttribute(szEncAttack, rkAttribute, rkLoader);

  001da	57		 push	 edi
  001db	8d 45 e8	 lea	 eax, DWORD PTR _szEncAttack$[ebp]
  001de	56		 push	 esi
  001df	50		 push	 eax
  001e0	e8 00 00 00 00	 call	 ?LoadAttackAttribute@@YAXPBDAAUAttackAttribute@@AAVioINILoader@@@Z ; LoadAttackAttribute

; 134  : }

  001e5	8b 4d fc	 mov	 ecx, DWORD PTR __$ArrayPad$[ebp]
  001e8	83 c4 0c	 add	 esp, 12			; 0000000cH
  001eb	5f		 pop	 edi
  001ec	33 cd		 xor	 ecx, ebp
  001ee	5e		 pop	 esi
  001ef	e8 00 00 00 00	 call	 @__security_check_cookie@4
  001f4	c9		 leave
  001f5	c3		 ret	 0
??$LoadAttackAttribute_e@$0P@@@YAXAAY0P@$$CBDAAUAttackAttribute@@AAVioINILoader@@@Z ENDP ; LoadAttackAttribute_e<15>
_TEXT	ENDS
PUBLIC	__$ArrayPad$
PUBLIC	??$LoadInt_e@$0BA@@ioINILoader@@QAEHAAY0BA@$$CBDH@Z ; ioINILoader::LoadInt_e<16>
; Function compile flags: /Ogsp
; File d:\lost saga for developer\youtube\tutorial\source\src\io3dengine\ioiniloader.h
;	COMDAT ??$LoadInt_e@$0BA@@ioINILoader@@QAEHAAY0BA@$$CBDH@Z
_TEXT	SEGMENT
__k$ = -24						; size = 16
__$ArrayPad$ = -4					; size = 4
_k$ = 8							; size = 4
_i$ = 12						; size = 4
??$LoadInt_e@$0BA@@ioINILoader@@QAEHAAY0BA@$$CBDH@Z PROC ; ioINILoader::LoadInt_e<16>, COMDAT
; _this$ = ecx

; 118  : 	{

  00000	55		 push	 ebp
  00001	8b ec		 mov	 ebp, esp
  00003	83 ec 18	 sub	 esp, 24			; 00000018H
  00006	a1 00 00 00 00	 mov	 eax, DWORD PTR ___security_cookie
  0000b	33 c5		 xor	 eax, ebp
  0000d	89 45 fc	 mov	 DWORD PTR __$ArrayPad$[ebp], eax
  00010	8b 45 08	 mov	 eax, DWORD PTR _k$[ebp]

; 119  : 		_ENCSTR(k, _k);

  00013	8a 10		 mov	 dl, BYTE PTR [eax]
  00015	56		 push	 esi
  00016	8b f1		 mov	 esi, ecx
  00018	84 d2		 test	 dl, dl
  0001a	0f 84 8c 01 00
	00		 je	 $LN96@LoadInt_e@4
  00020	80 f2 ed	 xor	 dl, -19			; ffffffedH
  00023	88 55 e8	 mov	 BYTE PTR __k$[ebp], dl
  00026	8a 50 01	 mov	 dl, BYTE PTR [eax+1]
  00029	84 d2		 test	 dl, dl
  0002b	0f 84 75 01 00
	00		 je	 $LN95@LoadInt_e@4
  00031	80 f2 ec	 xor	 dl, -20			; ffffffecH
  00034	88 55 e9	 mov	 BYTE PTR __k$[ebp+1], dl
  00037	8a 50 02	 mov	 dl, BYTE PTR [eax+2]
  0003a	84 d2		 test	 dl, dl
  0003c	0f 84 5e 01 00
	00		 je	 $LN94@LoadInt_e@4
  00042	b1 eb		 mov	 cl, -21			; ffffffebH
  00044	32 d1		 xor	 dl, cl
  00046	88 55 ea	 mov	 BYTE PTR __k$[ebp+2], dl
  00049	8a 50 03	 mov	 dl, BYTE PTR [eax+3]
  0004c	84 d2		 test	 dl, dl
  0004e	0f 84 46 01 00
	00		 je	 $LN93@LoadInt_e@4
  00054	80 f2 ea	 xor	 dl, -22			; ffffffeaH
  00057	88 55 eb	 mov	 BYTE PTR __k$[ebp+3], dl
  0005a	8a 50 04	 mov	 dl, BYTE PTR [eax+4]
  0005d	84 d2		 test	 dl, dl
  0005f	0f 84 2f 01 00
	00		 je	 $LN92@LoadInt_e@4
  00065	80 f2 ed	 xor	 dl, -19			; ffffffedH
  00068	88 55 ec	 mov	 BYTE PTR __k$[ebp+4], dl
  0006b	8a 50 05	 mov	 dl, BYTE PTR [eax+5]
  0006e	84 d2		 test	 dl, dl
  00070	0f 84 18 01 00
	00		 je	 $LN91@LoadInt_e@4
  00076	80 f2 ec	 xor	 dl, -20			; ffffffecH
  00079	88 55 ed	 mov	 BYTE PTR __k$[ebp+5], dl
  0007c	8a 50 06	 mov	 dl, BYTE PTR [eax+6]
  0007f	84 d2		 test	 dl, dl
  00081	0f 84 02 01 00
	00		 je	 $LN90@LoadInt_e@4
  00087	32 d1		 xor	 dl, cl
  00089	88 55 ee	 mov	 BYTE PTR __k$[ebp+6], dl
  0008c	8a 50 07	 mov	 dl, BYTE PTR [eax+7]
  0008f	84 d2		 test	 dl, dl
  00091	0f 84 ec 00 00
	00		 je	 $LN89@LoadInt_e@4
  00097	80 f2 ea	 xor	 dl, -22			; ffffffeaH
  0009a	88 55 ef	 mov	 BYTE PTR __k$[ebp+7], dl
  0009d	8a 50 08	 mov	 dl, BYTE PTR [eax+8]
  000a0	84 d2		 test	 dl, dl
  000a2	0f 84 d5 00 00
	00		 je	 $LN88@LoadInt_e@4
  000a8	80 f2 ed	 xor	 dl, -19			; ffffffedH
  000ab	88 55 f0	 mov	 BYTE PTR __k$[ebp+8], dl
  000ae	8a 50 09	 mov	 dl, BYTE PTR [eax+9]
  000b1	84 d2		 test	 dl, dl
  000b3	0f 84 be 00 00
	00		 je	 $LN87@LoadInt_e@4
  000b9	80 f2 ec	 xor	 dl, -20			; ffffffecH
  000bc	88 55 f1	 mov	 BYTE PTR __k$[ebp+9], dl
  000bf	8a 50 0a	 mov	 dl, BYTE PTR [eax+10]
  000c2	84 d2		 test	 dl, dl
  000c4	0f 84 a8 00 00
	00		 je	 $LN86@LoadInt_e@4
  000ca	32 d1		 xor	 dl, cl
  000cc	88 55 f2	 mov	 BYTE PTR __k$[ebp+10], dl
  000cf	8a 50 0b	 mov	 dl, BYTE PTR [eax+11]
  000d2	84 d2		 test	 dl, dl
  000d4	0f 84 92 00 00
	00		 je	 $LN85@LoadInt_e@4
  000da	80 f2 ea	 xor	 dl, -22			; ffffffeaH
  000dd	88 55 f3	 mov	 BYTE PTR __k$[ebp+11], dl
  000e0	8a 50 0c	 mov	 dl, BYTE PTR [eax+12]
  000e3	84 d2		 test	 dl, dl
  000e5	74 7f		 je	 SHORT $LN84@LoadInt_e@4
  000e7	80 f2 ed	 xor	 dl, -19			; ffffffedH
  000ea	88 55 f4	 mov	 BYTE PTR __k$[ebp+12], dl
  000ed	8a 50 0d	 mov	 dl, BYTE PTR [eax+13]
  000f0	84 d2		 test	 dl, dl
  000f2	74 6c		 je	 SHORT $LN83@LoadInt_e@4
  000f4	80 f2 ec	 xor	 dl, -20			; ffffffecH
  000f7	88 55 f5	 mov	 BYTE PTR __k$[ebp+13], dl
  000fa	8a 50 0e	 mov	 dl, BYTE PTR [eax+14]
  000fd	84 d2		 test	 dl, dl
  000ff	74 5a		 je	 SHORT $LN82@LoadInt_e@4
  00101	32 d1		 xor	 dl, cl
  00103	80 78 0f 00	 cmp	 BYTE PTR [eax+15], 0
  00107	88 55 f6	 mov	 BYTE PTR __k$[ebp+14], dl
  0010a	0f 84 a0 00 00
	00		 je	 $LN1@LoadInt_e@4
  00110	8a 50 10	 mov	 dl, BYTE PTR [eax+16]
  00113	84 d2		 test	 dl, dl
  00115	74 3e		 je	 SHORT $LN80@LoadInt_e@4
  00117	80 f2 ed	 xor	 dl, -19			; ffffffedH
  0011a	88 55 f8	 mov	 BYTE PTR __k$[ebp+16], dl
  0011d	8a 50 11	 mov	 dl, BYTE PTR [eax+17]
  00120	84 d2		 test	 dl, dl
  00122	74 2b		 je	 SHORT $LN79@LoadInt_e@4
  00124	80 f2 ec	 xor	 dl, -20			; ffffffecH
  00127	88 55 f9	 mov	 BYTE PTR __k$[ebp+17], dl
  0012a	8a 50 12	 mov	 dl, BYTE PTR [eax+18]
  0012d	84 d2		 test	 dl, dl
  0012f	74 19		 je	 SHORT $LN78@LoadInt_e@4
  00131	8a 40 13	 mov	 al, BYTE PTR [eax+19]
  00134	32 d1		 xor	 dl, cl
  00136	88 55 fa	 mov	 BYTE PTR __k$[ebp+18], dl
  00139	84 c0		 test	 al, al
  0013b	74 07		 je	 SHORT $LN77@LoadInt_e@4
  0013d	34 ea		 xor	 al, -22			; ffffffeaH
  0013f	88 45 fb	 mov	 BYTE PTR __k$[ebp+19], al
  00142	eb 6c		 jmp	 SHORT $LN1@LoadInt_e@4
$LN77@LoadInt_e@4:
  00144	c6 45 fb ea	 mov	 BYTE PTR __k$[ebp+19], -22 ; ffffffeaH
  00148	eb 66		 jmp	 SHORT $LN1@LoadInt_e@4
$LN78@LoadInt_e@4:
  0014a	88 4d fa	 mov	 BYTE PTR __k$[ebp+18], cl
  0014d	eb 61		 jmp	 SHORT $LN1@LoadInt_e@4
$LN79@LoadInt_e@4:
  0014f	c6 45 f9 ec	 mov	 BYTE PTR __k$[ebp+17], -20 ; ffffffecH
  00153	eb 5b		 jmp	 SHORT $LN1@LoadInt_e@4
$LN80@LoadInt_e@4:
  00155	c6 45 f8 ed	 mov	 BYTE PTR __k$[ebp+16], -19 ; ffffffedH
  00159	eb 55		 jmp	 SHORT $LN1@LoadInt_e@4
$LN82@LoadInt_e@4:
  0015b	88 4d f6	 mov	 BYTE PTR __k$[ebp+14], cl
  0015e	eb 50		 jmp	 SHORT $LN1@LoadInt_e@4
$LN83@LoadInt_e@4:
  00160	c6 45 f5 ec	 mov	 BYTE PTR __k$[ebp+13], -20 ; ffffffecH
  00164	eb 4a		 jmp	 SHORT $LN1@LoadInt_e@4
$LN84@LoadInt_e@4:
  00166	c6 45 f4 ed	 mov	 BYTE PTR __k$[ebp+12], -19 ; ffffffedH
  0016a	eb 44		 jmp	 SHORT $LN1@LoadInt_e@4
$LN85@LoadInt_e@4:
  0016c	c6 45 f3 ea	 mov	 BYTE PTR __k$[ebp+11], -22 ; ffffffeaH
  00170	eb 3e		 jmp	 SHORT $LN1@LoadInt_e@4
$LN86@LoadInt_e@4:
  00172	88 4d f2	 mov	 BYTE PTR __k$[ebp+10], cl
  00175	eb 39		 jmp	 SHORT $LN1@LoadInt_e@4
$LN87@LoadInt_e@4:
  00177	c6 45 f1 ec	 mov	 BYTE PTR __k$[ebp+9], -20 ; ffffffecH
  0017b	eb 33		 jmp	 SHORT $LN1@LoadInt_e@4
$LN88@LoadInt_e@4:
  0017d	c6 45 f0 ed	 mov	 BYTE PTR __k$[ebp+8], -19 ; ffffffedH
  00181	eb 2d		 jmp	 SHORT $LN1@LoadInt_e@4
$LN89@LoadInt_e@4:
  00183	c6 45 ef ea	 mov	 BYTE PTR __k$[ebp+7], -22 ; ffffffeaH
  00187	eb 27		 jmp	 SHORT $LN1@LoadInt_e@4
$LN90@LoadInt_e@4:
  00189	88 4d ee	 mov	 BYTE PTR __k$[ebp+6], cl
  0018c	eb 22		 jmp	 SHORT $LN1@LoadInt_e@4
$LN91@LoadInt_e@4:
  0018e	c6 45 ed ec	 mov	 BYTE PTR __k$[ebp+5], -20 ; ffffffecH
  00192	eb 1c		 jmp	 SHORT $LN1@LoadInt_e@4
$LN92@LoadInt_e@4:
  00194	c6 45 ec ed	 mov	 BYTE PTR __k$[ebp+4], -19 ; ffffffedH
  00198	eb 16		 jmp	 SHORT $LN1@LoadInt_e@4
$LN93@LoadInt_e@4:
  0019a	c6 45 eb ea	 mov	 BYTE PTR __k$[ebp+3], -22 ; ffffffeaH
  0019e	eb 10		 jmp	 SHORT $LN1@LoadInt_e@4
$LN94@LoadInt_e@4:
  001a0	c6 45 ea eb	 mov	 BYTE PTR __k$[ebp+2], -21 ; ffffffebH
  001a4	eb 0a		 jmp	 SHORT $LN1@LoadInt_e@4
$LN95@LoadInt_e@4:
  001a6	c6 45 e9 ec	 mov	 BYTE PTR __k$[ebp+1], -20 ; ffffffecH
  001aa	eb 04		 jmp	 SHORT $LN1@LoadInt_e@4
$LN96@LoadInt_e@4:
  001ac	c6 45 e8 ed	 mov	 BYTE PTR __k$[ebp], -19	; ffffffedH
$LN1@LoadInt_e@4:
  001b0	6a 03		 push	 3
  001b2	8d 45 e8	 lea	 eax, DWORD PTR __k$[ebp]
  001b5	c6 45 f7 00	 mov	 BYTE PTR __k$[ebp+15], 0
  001b9	5a		 pop	 edx
$LL104@LoadInt_e@4:
  001ba	81 30 ed ec eb
	ea		 xor	 DWORD PTR [eax], -353637139 ; eaebecedH
  001c0	83 c0 04	 add	 eax, 4
  001c3	4a		 dec	 edx
  001c4	75 f4		 jne	 SHORT $LL104@LoadInt_e@4
  001c6	6a 0c		 push	 12			; 0000000cH
  001c8	58		 pop	 eax
$LL101@LoadInt_e@4:
  001c9	8b c8		 mov	 ecx, eax
  001cb	81 e1 03 00 00
	80		 and	 ecx, -2147483645	; 80000003H
  001d1	79 05		 jns	 SHORT $LN111@LoadInt_e@4
  001d3	49		 dec	 ecx
  001d4	83 c9 fc	 or	 ecx, -4			; fffffffcH
  001d7	41		 inc	 ecx
$LN111@LoadInt_e@4:
  001d8	b2 ed		 mov	 dl, -19			; ffffffedH
  001da	2a d1		 sub	 dl, cl
  001dc	30 54 05 e8	 xor	 BYTE PTR __k$[ebp+eax], dl
  001e0	40		 inc	 eax
  001e1	83 f8 0f	 cmp	 eax, 15			; 0000000fH
  001e4	7c e3		 jl	 SHORT $LL101@LoadInt_e@4

; 120  : 		return LoadInt(_k, i);

  001e6	ff 75 0c	 push	 DWORD PTR _i$[ebp]
  001e9	8d 45 e8	 lea	 eax, DWORD PTR __k$[ebp]
  001ec	50		 push	 eax
  001ed	8b ce		 mov	 ecx, esi
  001ef	ff 15 00 00 00
	00		 call	 DWORD PTR __imp_?LoadInt@ioINILoader@@QAEHPBDH@Z

; 121  : 	}

  001f5	8b 4d fc	 mov	 ecx, DWORD PTR __$ArrayPad$[ebp]
  001f8	33 cd		 xor	 ecx, ebp
  001fa	5e		 pop	 esi
  001fb	e8 00 00 00 00	 call	 @__security_check_cookie@4
  00200	c9		 leave
  00201	c2 08 00	 ret	 8
??$LoadInt_e@$0BA@@ioINILoader@@QAEHAAY0BA@$$CBDH@Z ENDP ; ioINILoader::LoadInt_e<16>
_TEXT	ENDS
PUBLIC	__$ArrayPad$
PUBLIC	??$LoadBool_e@$0BD@@ioINILoader@@QAE_NAAY0BD@$$CBD_N@Z ; ioINILoader::LoadBool_e<19>
; Function compile flags: /Ogsp
;	COMDAT ??$LoadBool_e@$0BD@@ioINILoader@@QAE_NAAY0BD@$$CBD_N@Z
_TEXT	SEGMENT
__k$ = -28						; size = 19
__$ArrayPad$ = -4					; size = 4
_k$ = 8							; size = 4
_b$ = 12						; size = 1
??$LoadBool_e@$0BD@@ioINILoader@@QAE_NAAY0BD@$$CBD_N@Z PROC ; ioINILoader::LoadBool_e<19>, COMDAT
; _this$ = ecx

; 101  : 	{

  00000	55		 push	 ebp
  00001	8b ec		 mov	 ebp, esp
  00003	83 ec 1c	 sub	 esp, 28			; 0000001cH
  00006	a1 00 00 00 00	 mov	 eax, DWORD PTR ___security_cookie
  0000b	33 c5		 xor	 eax, ebp
  0000d	89 45 fc	 mov	 DWORD PTR __$ArrayPad$[ebp], eax
  00010	8b 45 08	 mov	 eax, DWORD PTR _k$[ebp]

; 102  : 		_ENCSTR(k, _k);

  00013	8a 10		 mov	 dl, BYTE PTR [eax]
  00015	56		 push	 esi
  00016	8b f1		 mov	 esi, ecx
  00018	84 d2		 test	 dl, dl
  0001a	0f 84 cf 01 00
	00		 je	 $LN96@LoadBool_e@4
  00020	80 f2 ed	 xor	 dl, -19			; ffffffedH
  00023	88 55 e4	 mov	 BYTE PTR __k$[ebp], dl
  00026	8a 50 01	 mov	 dl, BYTE PTR [eax+1]
  00029	84 d2		 test	 dl, dl
  0002b	0f 84 b8 01 00
	00		 je	 $LN95@LoadBool_e@4
  00031	b1 ec		 mov	 cl, -20			; ffffffecH
  00033	32 d1		 xor	 dl, cl
  00035	88 55 e5	 mov	 BYTE PTR __k$[ebp+1], dl
  00038	8a 50 02	 mov	 dl, BYTE PTR [eax+2]
  0003b	84 d2		 test	 dl, dl
  0003d	0f 84 a0 01 00
	00		 je	 $LN94@LoadBool_e@4
  00043	80 f2 eb	 xor	 dl, -21			; ffffffebH
  00046	88 55 e6	 mov	 BYTE PTR __k$[ebp+2], dl
  00049	8a 50 03	 mov	 dl, BYTE PTR [eax+3]
  0004c	84 d2		 test	 dl, dl
  0004e	0f 84 89 01 00
	00		 je	 $LN93@LoadBool_e@4
  00054	80 f2 ea	 xor	 dl, -22			; ffffffeaH
  00057	88 55 e7	 mov	 BYTE PTR __k$[ebp+3], dl
  0005a	8a 50 04	 mov	 dl, BYTE PTR [eax+4]
  0005d	84 d2		 test	 dl, dl
  0005f	0f 84 72 01 00
	00		 je	 $LN92@LoadBool_e@4
  00065	80 f2 ed	 xor	 dl, -19			; ffffffedH
  00068	88 55 e8	 mov	 BYTE PTR __k$[ebp+4], dl
  0006b	8a 50 05	 mov	 dl, BYTE PTR [eax+5]
  0006e	84 d2		 test	 dl, dl
  00070	0f 84 5c 01 00
	00		 je	 $LN91@LoadBool_e@4
  00076	32 d1		 xor	 dl, cl
  00078	88 55 e9	 mov	 BYTE PTR __k$[ebp+5], dl
  0007b	8a 50 06	 mov	 dl, BYTE PTR [eax+6]
  0007e	84 d2		 test	 dl, dl
  00080	0f 84 46 01 00
	00		 je	 $LN90@LoadBool_e@4
  00086	80 f2 eb	 xor	 dl, -21			; ffffffebH
  00089	88 55 ea	 mov	 BYTE PTR __k$[ebp+6], dl
  0008c	8a 50 07	 mov	 dl, BYTE PTR [eax+7]
  0008f	84 d2		 test	 dl, dl
  00091	0f 84 2f 01 00
	00		 je	 $LN89@LoadBool_e@4
  00097	80 f2 ea	 xor	 dl, -22			; ffffffeaH
  0009a	88 55 eb	 mov	 BYTE PTR __k$[ebp+7], dl
  0009d	8a 50 08	 mov	 dl, BYTE PTR [eax+8]
  000a0	84 d2		 test	 dl, dl
  000a2	0f 84 18 01 00
	00		 je	 $LN88@LoadBool_e@4
  000a8	80 f2 ed	 xor	 dl, -19			; ffffffedH
  000ab	88 55 ec	 mov	 BYTE PTR __k$[ebp+8], dl
  000ae	8a 50 09	 mov	 dl, BYTE PTR [eax+9]
  000b1	84 d2		 test	 dl, dl
  000b3	0f 84 02 01 00
	00		 je	 $LN87@LoadBool_e@4
  000b9	32 d1		 xor	 dl, cl
  000bb	88 55 ed	 mov	 BYTE PTR __k$[ebp+9], dl
  000be	8a 50 0a	 mov	 dl, BYTE PTR [eax+10]
  000c1	84 d2		 test	 dl, dl
  000c3	0f 84 ec 00 00
	00		 je	 $LN86@LoadBool_e@4
  000c9	80 f2 eb	 xor	 dl, -21			; ffffffebH
  000cc	88 55 ee	 mov	 BYTE PTR __k$[ebp+10], dl
  000cf	8a 50 0b	 mov	 dl, BYTE PTR [eax+11]
  000d2	84 d2		 test	 dl, dl
  000d4	0f 84 d5 00 00
	00		 je	 $LN85@LoadBool_e@4
  000da	80 f2 ea	 xor	 dl, -22			; ffffffeaH
  000dd	88 55 ef	 mov	 BYTE PTR __k$[ebp+11], dl
  000e0	8a 50 0c	 mov	 dl, BYTE PTR [eax+12]
  000e3	84 d2		 test	 dl, dl
  000e5	0f 84 be 00 00
	00		 je	 $LN84@LoadBool_e@4
  000eb	80 f2 ed	 xor	 dl, -19			; ffffffedH
  000ee	88 55 f0	 mov	 BYTE PTR __k$[ebp+12], dl
  000f1	8a 50 0d	 mov	 dl, BYTE PTR [eax+13]
  000f4	84 d2		 test	 dl, dl
  000f6	0f 84 a8 00 00
	00		 je	 $LN83@LoadBool_e@4
  000fc	32 d1		 xor	 dl, cl
  000fe	88 55 f1	 mov	 BYTE PTR __k$[ebp+13], dl
  00101	8a 50 0e	 mov	 dl, BYTE PTR [eax+14]
  00104	84 d2		 test	 dl, dl
  00106	0f 84 92 00 00
	00		 je	 $LN82@LoadBool_e@4
  0010c	80 f2 eb	 xor	 dl, -21			; ffffffebH
  0010f	88 55 f2	 mov	 BYTE PTR __k$[ebp+14], dl
  00112	8a 50 0f	 mov	 dl, BYTE PTR [eax+15]
  00115	84 d2		 test	 dl, dl
  00117	74 7f		 je	 SHORT $LN81@LoadBool_e@4
  00119	80 f2 ea	 xor	 dl, -22			; ffffffeaH
  0011c	88 55 f3	 mov	 BYTE PTR __k$[ebp+15], dl
  0011f	8a 50 10	 mov	 dl, BYTE PTR [eax+16]
  00122	84 d2		 test	 dl, dl
  00124	74 6c		 je	 SHORT $LN80@LoadBool_e@4
  00126	80 f2 ed	 xor	 dl, -19			; ffffffedH
  00129	88 55 f4	 mov	 BYTE PTR __k$[ebp+16], dl
  0012c	8a 50 11	 mov	 dl, BYTE PTR [eax+17]
  0012f	84 d2		 test	 dl, dl
  00131	74 5a		 je	 SHORT $LN79@LoadBool_e@4
  00133	32 d1		 xor	 dl, cl
  00135	80 78 12 00	 cmp	 BYTE PTR [eax+18], 0
  00139	88 55 f5	 mov	 BYTE PTR __k$[ebp+17], dl
  0013c	0f 84 b1 00 00
	00		 je	 $LN1@LoadBool_e@4
  00142	8a 50 13	 mov	 dl, BYTE PTR [eax+19]
  00145	84 d2		 test	 dl, dl
  00147	74 3e		 je	 SHORT $LN77@LoadBool_e@4
  00149	80 f2 ea	 xor	 dl, -22			; ffffffeaH
  0014c	88 55 f7	 mov	 BYTE PTR __k$[ebp+19], dl
  0014f	8a 50 14	 mov	 dl, BYTE PTR [eax+20]
  00152	84 d2		 test	 dl, dl
  00154	74 2b		 je	 SHORT $LN76@LoadBool_e@4
  00156	80 f2 ed	 xor	 dl, -19			; ffffffedH
  00159	88 55 f8	 mov	 BYTE PTR __k$[ebp+20], dl
  0015c	8a 50 15	 mov	 dl, BYTE PTR [eax+21]
  0015f	84 d2		 test	 dl, dl
  00161	74 19		 je	 SHORT $LN75@LoadBool_e@4
  00163	8a 40 16	 mov	 al, BYTE PTR [eax+22]
  00166	32 d1		 xor	 dl, cl
  00168	88 55 f9	 mov	 BYTE PTR __k$[ebp+21], dl
  0016b	84 c0		 test	 al, al
  0016d	74 07		 je	 SHORT $LN74@LoadBool_e@4
  0016f	34 eb		 xor	 al, -21			; ffffffebH
  00171	88 45 fa	 mov	 BYTE PTR __k$[ebp+22], al
  00174	eb 7d		 jmp	 SHORT $LN1@LoadBool_e@4
$LN74@LoadBool_e@4:
  00176	c6 45 fa eb	 mov	 BYTE PTR __k$[ebp+22], -21 ; ffffffebH
  0017a	eb 77		 jmp	 SHORT $LN1@LoadBool_e@4
$LN75@LoadBool_e@4:
  0017c	88 4d f9	 mov	 BYTE PTR __k$[ebp+21], cl
  0017f	eb 72		 jmp	 SHORT $LN1@LoadBool_e@4
$LN76@LoadBool_e@4:
  00181	c6 45 f8 ed	 mov	 BYTE PTR __k$[ebp+20], -19 ; ffffffedH
  00185	eb 6c		 jmp	 SHORT $LN1@LoadBool_e@4
$LN77@LoadBool_e@4:
  00187	c6 45 f7 ea	 mov	 BYTE PTR __k$[ebp+19], -22 ; ffffffeaH
  0018b	eb 66		 jmp	 SHORT $LN1@LoadBool_e@4
$LN79@LoadBool_e@4:
  0018d	88 4d f5	 mov	 BYTE PTR __k$[ebp+17], cl
  00190	eb 61		 jmp	 SHORT $LN1@LoadBool_e@4
$LN80@LoadBool_e@4:
  00192	c6 45 f4 ed	 mov	 BYTE PTR __k$[ebp+16], -19 ; ffffffedH
  00196	eb 5b		 jmp	 SHORT $LN1@LoadBool_e@4
$LN81@LoadBool_e@4:
  00198	c6 45 f3 ea	 mov	 BYTE PTR __k$[ebp+15], -22 ; ffffffeaH
  0019c	eb 55		 jmp	 SHORT $LN1@LoadBool_e@4
$LN82@LoadBool_e@4:
  0019e	c6 45 f2 eb	 mov	 BYTE PTR __k$[ebp+14], -21 ; ffffffebH
  001a2	eb 4f		 jmp	 SHORT $LN1@LoadBool_e@4
$LN83@LoadBool_e@4:
  001a4	88 4d f1	 mov	 BYTE PTR __k$[ebp+13], cl
  001a7	eb 4a		 jmp	 SHORT $LN1@LoadBool_e@4
$LN84@LoadBool_e@4:
  001a9	c6 45 f0 ed	 mov	 BYTE PTR __k$[ebp+12], -19 ; ffffffedH
  001ad	eb 44		 jmp	 SHORT $LN1@LoadBool_e@4
$LN85@LoadBool_e@4:
  001af	c6 45 ef ea	 mov	 BYTE PTR __k$[ebp+11], -22 ; ffffffeaH
  001b3	eb 3e		 jmp	 SHORT $LN1@LoadBool_e@4
$LN86@LoadBool_e@4:
  001b5	c6 45 ee eb	 mov	 BYTE PTR __k$[ebp+10], -21 ; ffffffebH
  001b9	eb 38		 jmp	 SHORT $LN1@LoadBool_e@4
$LN87@LoadBool_e@4:
  001bb	88 4d ed	 mov	 BYTE PTR __k$[ebp+9], cl
  001be	eb 33		 jmp	 SHORT $LN1@LoadBool_e@4
$LN88@LoadBool_e@4:
  001c0	c6 45 ec ed	 mov	 BYTE PTR __k$[ebp+8], -19 ; ffffffedH
  001c4	eb 2d		 jmp	 SHORT $LN1@LoadBool_e@4
$LN89@LoadBool_e@4:
  001c6	c6 45 eb ea	 mov	 BYTE PTR __k$[ebp+7], -22 ; ffffffeaH
  001ca	eb 27		 jmp	 SHORT $LN1@LoadBool_e@4
$LN90@LoadBool_e@4:
  001cc	c6 45 ea eb	 mov	 BYTE PTR __k$[ebp+6], -21 ; ffffffebH
  001d0	eb 21		 jmp	 SHORT $LN1@LoadBool_e@4
$LN91@LoadBool_e@4:
  001d2	88 4d e9	 mov	 BYTE PTR __k$[ebp+5], cl
  001d5	eb 1c		 jmp	 SHORT $LN1@LoadBool_e@4
$LN92@LoadBool_e@4:
  001d7	c6 45 e8 ed	 mov	 BYTE PTR __k$[ebp+4], -19 ; ffffffedH
  001db	eb 16		 jmp	 SHORT $LN1@LoadBool_e@4
$LN93@LoadBool_e@4:
  001dd	c6 45 e7 ea	 mov	 BYTE PTR __k$[ebp+3], -22 ; ffffffeaH
  001e1	eb 10		 jmp	 SHORT $LN1@LoadBool_e@4
$LN94@LoadBool_e@4:
  001e3	c6 45 e6 eb	 mov	 BYTE PTR __k$[ebp+2], -21 ; ffffffebH
  001e7	eb 0a		 jmp	 SHORT $LN1@LoadBool_e@4
$LN95@LoadBool_e@4:
  001e9	c6 45 e5 ec	 mov	 BYTE PTR __k$[ebp+1], -20 ; ffffffecH
  001ed	eb 04		 jmp	 SHORT $LN1@LoadBool_e@4
$LN96@LoadBool_e@4:
  001ef	c6 45 e4 ed	 mov	 BYTE PTR __k$[ebp], -19	; ffffffedH
$LN1@LoadBool_e@4:
  001f3	6a 04		 push	 4
  001f5	8d 45 e4	 lea	 eax, DWORD PTR __k$[ebp]
  001f8	c6 45 f6 00	 mov	 BYTE PTR __k$[ebp+18], 0
  001fc	5a		 pop	 edx
$LL104@LoadBool_e@4:
  001fd	81 30 ed ec eb
	ea		 xor	 DWORD PTR [eax], -353637139 ; eaebecedH
  00203	83 c0 04	 add	 eax, 4
  00206	4a		 dec	 edx
  00207	75 f4		 jne	 SHORT $LL104@LoadBool_e@4
  00209	6a 10		 push	 16			; 00000010H
  0020b	58		 pop	 eax
$LL101@LoadBool_e@4:
  0020c	8b c8		 mov	 ecx, eax
  0020e	81 e1 03 00 00
	80		 and	 ecx, -2147483645	; 80000003H
  00214	79 05		 jns	 SHORT $LN111@LoadBool_e@4
  00216	49		 dec	 ecx
  00217	83 c9 fc	 or	 ecx, -4			; fffffffcH
  0021a	41		 inc	 ecx
$LN111@LoadBool_e@4:
  0021b	b2 ed		 mov	 dl, -19			; ffffffedH
  0021d	2a d1		 sub	 dl, cl
  0021f	30 54 05 e4	 xor	 BYTE PTR __k$[ebp+eax], dl
  00223	40		 inc	 eax
  00224	83 f8 12	 cmp	 eax, 18			; 00000012H
  00227	7c e3		 jl	 SHORT $LL101@LoadBool_e@4

; 103  : 		return LoadBool(_k, b);

  00229	ff 75 0c	 push	 DWORD PTR _b$[ebp]
  0022c	8d 45 e4	 lea	 eax, DWORD PTR __k$[ebp]
  0022f	50		 push	 eax
  00230	8b ce		 mov	 ecx, esi
  00232	ff 15 00 00 00
	00		 call	 DWORD PTR __imp_?LoadBool@ioINILoader@@QAE_NPBD_N@Z

; 104  : 	}

  00238	8b 4d fc	 mov	 ecx, DWORD PTR __$ArrayPad$[ebp]
  0023b	33 cd		 xor	 ecx, ebp
  0023d	5e		 pop	 esi
  0023e	e8 00 00 00 00	 call	 @__security_check_cookie@4
  00243	c9		 leave
  00244	c2 08 00	 ret	 8
??$LoadBool_e@$0BD@@ioINILoader@@QAE_NAAY0BD@$$CBD_N@Z ENDP ; ioINILoader::LoadBool_e<19>
_TEXT	ENDS
PUBLIC	_this$GSCopy$
PUBLIC	__$ArrayPad$
PUBLIC	??$LoadString_e@$0BA@@ioINILoader@@QAEXAAY0BA@$$CBDAAY00$$CBDPADH@Z ; ioINILoader::LoadString_e<16>
EXTRN	__imp_?LoadStringA@ioINILoader@@QAEXPBD0PADH@Z:PROC
; Function compile flags: /Ogsp
;	COMDAT ??$LoadString_e@$0BA@@ioINILoader@@QAEXAAY0BA@$$CBDAAY00$$CBDPADH@Z
_TEXT	SEGMENT
_this$GSCopy$ = -28					; size = 4
__k$ = -24						; size = 16
__$ArrayPad$ = -4					; size = 4
_k$ = 8							; size = 4
_d$ = 12						; size = 4
_b$ = 16						; size = 4
_i$ = 20						; size = 4
??$LoadString_e@$0BA@@ioINILoader@@QAEXAAY0BA@$$CBDAAY00$$CBDPADH@Z PROC ; ioINILoader::LoadString_e<16>, COMDAT
; _this$ = ecx

; 161  : 	{

  00000	55		 push	 ebp
  00001	8b ec		 mov	 ebp, esp
  00003	83 ec 1c	 sub	 esp, 28			; 0000001cH
  00006	a1 00 00 00 00	 mov	 eax, DWORD PTR ___security_cookie
  0000b	33 c5		 xor	 eax, ebp
  0000d	89 45 fc	 mov	 DWORD PTR __$ArrayPad$[ebp], eax
  00010	8b 45 08	 mov	 eax, DWORD PTR _k$[ebp]

; 162  : 		_ENCSTR(k, _k);

  00013	8a 10		 mov	 dl, BYTE PTR [eax]
  00015	56		 push	 esi
  00016	8b 75 0c	 mov	 esi, DWORD PTR _d$[ebp]
  00019	57		 push	 edi
  0001a	8b 7d 10	 mov	 edi, DWORD PTR _b$[ebp]
  0001d	89 4d e4	 mov	 DWORD PTR _this$GSCopy$[ebp], ecx
  00020	84 d2		 test	 dl, dl
  00022	0f 84 8c 01 00
	00		 je	 $LN96@LoadString
  00028	80 f2 ed	 xor	 dl, -19			; ffffffedH
  0002b	88 55 e8	 mov	 BYTE PTR __k$[ebp], dl
  0002e	8a 50 01	 mov	 dl, BYTE PTR [eax+1]
  00031	84 d2		 test	 dl, dl
  00033	0f 84 75 01 00
	00		 je	 $LN95@LoadString
  00039	80 f2 ec	 xor	 dl, -20			; ffffffecH
  0003c	88 55 e9	 mov	 BYTE PTR __k$[ebp+1], dl
  0003f	8a 50 02	 mov	 dl, BYTE PTR [eax+2]
  00042	84 d2		 test	 dl, dl
  00044	0f 84 5e 01 00
	00		 je	 $LN94@LoadString
  0004a	b1 eb		 mov	 cl, -21			; ffffffebH
  0004c	32 d1		 xor	 dl, cl
  0004e	88 55 ea	 mov	 BYTE PTR __k$[ebp+2], dl
  00051	8a 50 03	 mov	 dl, BYTE PTR [eax+3]
  00054	84 d2		 test	 dl, dl
  00056	0f 84 46 01 00
	00		 je	 $LN93@LoadString
  0005c	80 f2 ea	 xor	 dl, -22			; ffffffeaH
  0005f	88 55 eb	 mov	 BYTE PTR __k$[ebp+3], dl
  00062	8a 50 04	 mov	 dl, BYTE PTR [eax+4]
  00065	84 d2		 test	 dl, dl
  00067	0f 84 2f 01 00
	00		 je	 $LN92@LoadString
  0006d	80 f2 ed	 xor	 dl, -19			; ffffffedH
  00070	88 55 ec	 mov	 BYTE PTR __k$[ebp+4], dl
  00073	8a 50 05	 mov	 dl, BYTE PTR [eax+5]
  00076	84 d2		 test	 dl, dl
  00078	0f 84 18 01 00
	00		 je	 $LN91@LoadString
  0007e	80 f2 ec	 xor	 dl, -20			; ffffffecH
  00081	88 55 ed	 mov	 BYTE PTR __k$[ebp+5], dl
  00084	8a 50 06	 mov	 dl, BYTE PTR [eax+6]
  00087	84 d2		 test	 dl, dl
  00089	0f 84 02 01 00
	00		 je	 $LN90@LoadString
  0008f	32 d1		 xor	 dl, cl
  00091	88 55 ee	 mov	 BYTE PTR __k$[ebp+6], dl
  00094	8a 50 07	 mov	 dl, BYTE PTR [eax+7]
  00097	84 d2		 test	 dl, dl
  00099	0f 84 ec 00 00
	00		 je	 $LN89@LoadString
  0009f	80 f2 ea	 xor	 dl, -22			; ffffffeaH
  000a2	88 55 ef	 mov	 BYTE PTR __k$[ebp+7], dl
  000a5	8a 50 08	 mov	 dl, BYTE PTR [eax+8]
  000a8	84 d2		 test	 dl, dl
  000aa	0f 84 d5 00 00
	00		 je	 $LN88@LoadString
  000b0	80 f2 ed	 xor	 dl, -19			; ffffffedH
  000b3	88 55 f0	 mov	 BYTE PTR __k$[ebp+8], dl
  000b6	8a 50 09	 mov	 dl, BYTE PTR [eax+9]
  000b9	84 d2		 test	 dl, dl
  000bb	0f 84 be 00 00
	00		 je	 $LN87@LoadString
  000c1	80 f2 ec	 xor	 dl, -20			; ffffffecH
  000c4	88 55 f1	 mov	 BYTE PTR __k$[ebp+9], dl
  000c7	8a 50 0a	 mov	 dl, BYTE PTR [eax+10]
  000ca	84 d2		 test	 dl, dl
  000cc	0f 84 a8 00 00
	00		 je	 $LN86@LoadString
  000d2	32 d1		 xor	 dl, cl
  000d4	88 55 f2	 mov	 BYTE PTR __k$[ebp+10], dl
  000d7	8a 50 0b	 mov	 dl, BYTE PTR [eax+11]
  000da	84 d2		 test	 dl, dl
  000dc	0f 84 92 00 00
	00		 je	 $LN85@LoadString
  000e2	80 f2 ea	 xor	 dl, -22			; ffffffeaH
  000e5	88 55 f3	 mov	 BYTE PTR __k$[ebp+11], dl
  000e8	8a 50 0c	 mov	 dl, BYTE PTR [eax+12]
  000eb	84 d2		 test	 dl, dl
  000ed	74 7f		 je	 SHORT $LN84@LoadString
  000ef	80 f2 ed	 xor	 dl, -19			; ffffffedH
  000f2	88 55 f4	 mov	 BYTE PTR __k$[ebp+12], dl
  000f5	8a 50 0d	 mov	 dl, BYTE PTR [eax+13]
  000f8	84 d2		 test	 dl, dl
  000fa	74 6c		 je	 SHORT $LN83@LoadString
  000fc	80 f2 ec	 xor	 dl, -20			; ffffffecH
  000ff	88 55 f5	 mov	 BYTE PTR __k$[ebp+13], dl
  00102	8a 50 0e	 mov	 dl, BYTE PTR [eax+14]
  00105	84 d2		 test	 dl, dl
  00107	74 5a		 je	 SHORT $LN82@LoadString
  00109	32 d1		 xor	 dl, cl
  0010b	80 78 0f 00	 cmp	 BYTE PTR [eax+15], 0
  0010f	88 55 f6	 mov	 BYTE PTR __k$[ebp+14], dl
  00112	0f 84 a0 00 00
	00		 je	 $LN111@LoadString
  00118	8a 50 10	 mov	 dl, BYTE PTR [eax+16]
  0011b	84 d2		 test	 dl, dl
  0011d	74 3e		 je	 SHORT $LN80@LoadString
  0011f	80 f2 ed	 xor	 dl, -19			; ffffffedH
  00122	88 55 f8	 mov	 BYTE PTR __k$[ebp+16], dl
  00125	8a 50 11	 mov	 dl, BYTE PTR [eax+17]
  00128	84 d2		 test	 dl, dl
  0012a	74 2b		 je	 SHORT $LN79@LoadString
  0012c	80 f2 ec	 xor	 dl, -20			; ffffffecH
  0012f	88 55 f9	 mov	 BYTE PTR __k$[ebp+17], dl
  00132	8a 50 12	 mov	 dl, BYTE PTR [eax+18]
  00135	84 d2		 test	 dl, dl
  00137	74 19		 je	 SHORT $LN78@LoadString
  00139	8a 40 13	 mov	 al, BYTE PTR [eax+19]
  0013c	32 d1		 xor	 dl, cl
  0013e	88 55 fa	 mov	 BYTE PTR __k$[ebp+18], dl
  00141	84 c0		 test	 al, al
  00143	74 07		 je	 SHORT $LN77@LoadString
  00145	34 ea		 xor	 al, -22			; ffffffeaH
  00147	88 45 fb	 mov	 BYTE PTR __k$[ebp+19], al
  0014a	eb 6c		 jmp	 SHORT $LN111@LoadString
$LN77@LoadString:
  0014c	c6 45 fb ea	 mov	 BYTE PTR __k$[ebp+19], -22 ; ffffffeaH
  00150	eb 66		 jmp	 SHORT $LN111@LoadString
$LN78@LoadString:
  00152	88 4d fa	 mov	 BYTE PTR __k$[ebp+18], cl
  00155	eb 61		 jmp	 SHORT $LN111@LoadString
$LN79@LoadString:
  00157	c6 45 f9 ec	 mov	 BYTE PTR __k$[ebp+17], -20 ; ffffffecH
  0015b	eb 5b		 jmp	 SHORT $LN111@LoadString
$LN80@LoadString:
  0015d	c6 45 f8 ed	 mov	 BYTE PTR __k$[ebp+16], -19 ; ffffffedH
  00161	eb 55		 jmp	 SHORT $LN111@LoadString
$LN82@LoadString:
  00163	88 4d f6	 mov	 BYTE PTR __k$[ebp+14], cl
  00166	eb 50		 jmp	 SHORT $LN111@LoadString
$LN83@LoadString:
  00168	c6 45 f5 ec	 mov	 BYTE PTR __k$[ebp+13], -20 ; ffffffecH
  0016c	eb 4a		 jmp	 SHORT $LN111@LoadString
$LN84@LoadString:
  0016e	c6 45 f4 ed	 mov	 BYTE PTR __k$[ebp+12], -19 ; ffffffedH
  00172	eb 44		 jmp	 SHORT $LN111@LoadString
$LN85@LoadString:
  00174	c6 45 f3 ea	 mov	 BYTE PTR __k$[ebp+11], -22 ; ffffffeaH
  00178	eb 3e		 jmp	 SHORT $LN111@LoadString
$LN86@LoadString:
  0017a	88 4d f2	 mov	 BYTE PTR __k$[ebp+10], cl
  0017d	eb 39		 jmp	 SHORT $LN111@LoadString
$LN87@LoadString:
  0017f	c6 45 f1 ec	 mov	 BYTE PTR __k$[ebp+9], -20 ; ffffffecH
  00183	eb 33		 jmp	 SHORT $LN111@LoadString
$LN88@LoadString:
  00185	c6 45 f0 ed	 mov	 BYTE PTR __k$[ebp+8], -19 ; ffffffedH
  00189	eb 2d		 jmp	 SHORT $LN111@LoadString
$LN89@LoadString:
  0018b	c6 45 ef ea	 mov	 BYTE PTR __k$[ebp+7], -22 ; ffffffeaH
  0018f	eb 27		 jmp	 SHORT $LN111@LoadString
$LN90@LoadString:
  00191	88 4d ee	 mov	 BYTE PTR __k$[ebp+6], cl
  00194	eb 22		 jmp	 SHORT $LN111@LoadString
$LN91@LoadString:
  00196	c6 45 ed ec	 mov	 BYTE PTR __k$[ebp+5], -20 ; ffffffecH
  0019a	eb 1c		 jmp	 SHORT $LN111@LoadString
$LN92@LoadString:
  0019c	c6 45 ec ed	 mov	 BYTE PTR __k$[ebp+4], -19 ; ffffffedH
  001a0	eb 16		 jmp	 SHORT $LN111@LoadString
$LN93@LoadString:
  001a2	c6 45 eb ea	 mov	 BYTE PTR __k$[ebp+3], -22 ; ffffffeaH
  001a6	eb 10		 jmp	 SHORT $LN111@LoadString
$LN94@LoadString:
  001a8	c6 45 ea eb	 mov	 BYTE PTR __k$[ebp+2], -21 ; ffffffebH
  001ac	eb 0a		 jmp	 SHORT $LN111@LoadString
$LN95@LoadString:
  001ae	c6 45 e9 ec	 mov	 BYTE PTR __k$[ebp+1], -20 ; ffffffecH
  001b2	eb 04		 jmp	 SHORT $LN111@LoadString
$LN96@LoadString:
  001b4	c6 45 e8 ed	 mov	 BYTE PTR __k$[ebp], -19	; ffffffedH
$LN111@LoadString:
  001b8	6a 03		 push	 3
  001ba	8d 45 e8	 lea	 eax, DWORD PTR __k$[ebp]
  001bd	c6 45 f7 00	 mov	 BYTE PTR __k$[ebp+15], 0
  001c1	5a		 pop	 edx
$LL104@LoadString:
  001c2	81 30 ed ec eb
	ea		 xor	 DWORD PTR [eax], -353637139 ; eaebecedH
  001c8	83 c0 04	 add	 eax, 4
  001cb	4a		 dec	 edx
  001cc	75 f4		 jne	 SHORT $LL104@LoadString
  001ce	6a 0c		 push	 12			; 0000000cH
  001d0	58		 pop	 eax
$LL101@LoadString:
  001d1	8b c8		 mov	 ecx, eax
  001d3	81 e1 03 00 00
	80		 and	 ecx, -2147483645	; 80000003H
  001d9	79 05		 jns	 SHORT $LN112@LoadString
  001db	49		 dec	 ecx
  001dc	83 c9 fc	 or	 ecx, -4			; fffffffcH
  001df	41		 inc	 ecx
$LN112@LoadString:
  001e0	b2 ed		 mov	 dl, -19			; ffffffedH
  001e2	2a d1		 sub	 dl, cl
  001e4	30 54 05 e8	 xor	 BYTE PTR __k$[ebp+eax], dl
  001e8	40		 inc	 eax
  001e9	83 f8 0f	 cmp	 eax, 15			; 0000000fH
  001ec	7c e3		 jl	 SHORT $LL101@LoadString

; 163  : 		LoadString(_k, d, b, i);

  001ee	ff 75 14	 push	 DWORD PTR _i$[ebp]
  001f1	8b 4d e4	 mov	 ecx, DWORD PTR _this$GSCopy$[ebp]
  001f4	57		 push	 edi
  001f5	56		 push	 esi
  001f6	8d 45 e8	 lea	 eax, DWORD PTR __k$[ebp]
  001f9	50		 push	 eax
  001fa	ff 15 00 00 00
	00		 call	 DWORD PTR __imp_?LoadStringA@ioINILoader@@QAEXPBD0PADH@Z

; 164  : 	}

  00200	8b 4d fc	 mov	 ecx, DWORD PTR __$ArrayPad$[ebp]
  00203	5f		 pop	 edi
  00204	33 cd		 xor	 ecx, ebp
  00206	5e		 pop	 esi
  00207	e8 00 00 00 00	 call	 @__security_check_cookie@4
  0020c	c9		 leave
  0020d	c2 10 00	 ret	 16			; 00000010H
??$LoadString_e@$0BA@@ioINILoader@@QAEXAAY0BA@$$CBDAAY00$$CBDPADH@Z ENDP ; ioINILoader::LoadString_e<16>
_TEXT	ENDS
PUBLIC	__$ArrayPad$
PUBLIC	??$LoadFloat_e@$0BM@@ioINILoader@@QAEMAAY0BM@$$CBDM@Z ; ioINILoader::LoadFloat_e<28>
EXTRN	__imp_?LoadFloat@ioINILoader@@QAEMPBDM@Z:PROC
; Function compile flags: /Ogsp
;	COMDAT ??$LoadFloat_e@$0BM@@ioINILoader@@QAEMAAY0BM@$$CBDM@Z
_TEXT	SEGMENT
__k$ = -36						; size = 28
__$ArrayPad$ = -4					; size = 4
_k$ = 8							; size = 4
_f$ = 12						; size = 4
??$LoadFloat_e@$0BM@@ioINILoader@@QAEMAAY0BM@$$CBDM@Z PROC ; ioINILoader::LoadFloat_e<28>, COMDAT
; _this$ = ecx

; 135  : 	{

  00000	55		 push	 ebp
  00001	8b ec		 mov	 ebp, esp
  00003	83 ec 24	 sub	 esp, 36			; 00000024H
  00006	a1 00 00 00 00	 mov	 eax, DWORD PTR ___security_cookie
  0000b	33 c5		 xor	 eax, ebp
  0000d	89 45 fc	 mov	 DWORD PTR __$ArrayPad$[ebp], eax
  00010	8b 45 08	 mov	 eax, DWORD PTR _k$[ebp]

; 136  : 		_ENCSTR(k, _k);

  00013	8a 10		 mov	 dl, BYTE PTR [eax]
  00015	53		 push	 ebx
  00016	56		 push	 esi
  00017	8b f1		 mov	 esi, ecx
  00019	84 d2		 test	 dl, dl
  0001b	0f 84 a9 02 00
	00		 je	 $LN96@LoadFloat_
  00021	80 f2 ed	 xor	 dl, -19			; ffffffedH
  00024	88 55 dc	 mov	 BYTE PTR __k$[ebp], dl
  00027	8a 50 01	 mov	 dl, BYTE PTR [eax+1]
  0002a	84 d2		 test	 dl, dl
  0002c	0f 84 92 02 00
	00		 je	 $LN95@LoadFloat_
  00032	b3 ec		 mov	 bl, -20			; ffffffecH
  00034	32 d3		 xor	 dl, bl
  00036	88 55 dd	 mov	 BYTE PTR __k$[ebp+1], dl
  00039	8a 50 02	 mov	 dl, BYTE PTR [eax+2]
  0003c	84 d2		 test	 dl, dl
  0003e	0f 84 7a 02 00
	00		 je	 $LN94@LoadFloat_
  00044	b1 eb		 mov	 cl, -21			; ffffffebH
  00046	32 d1		 xor	 dl, cl
  00048	88 55 de	 mov	 BYTE PTR __k$[ebp+2], dl
  0004b	8a 50 03	 mov	 dl, BYTE PTR [eax+3]
  0004e	84 d2		 test	 dl, dl
  00050	0f 84 62 02 00
	00		 je	 $LN93@LoadFloat_
  00056	80 f2 ea	 xor	 dl, -22			; ffffffeaH
  00059	88 55 df	 mov	 BYTE PTR __k$[ebp+3], dl
  0005c	8a 50 04	 mov	 dl, BYTE PTR [eax+4]
  0005f	84 d2		 test	 dl, dl
  00061	0f 84 4b 02 00
	00		 je	 $LN92@LoadFloat_
  00067	80 f2 ed	 xor	 dl, -19			; ffffffedH
  0006a	88 55 e0	 mov	 BYTE PTR __k$[ebp+4], dl
  0006d	8a 50 05	 mov	 dl, BYTE PTR [eax+5]
  00070	84 d2		 test	 dl, dl
  00072	0f 84 35 02 00
	00		 je	 $LN91@LoadFloat_
  00078	32 d3		 xor	 dl, bl
  0007a	88 55 e1	 mov	 BYTE PTR __k$[ebp+5], dl
  0007d	8a 50 06	 mov	 dl, BYTE PTR [eax+6]
  00080	84 d2		 test	 dl, dl
  00082	0f 84 20 02 00
	00		 je	 $LN90@LoadFloat_
  00088	32 d1		 xor	 dl, cl
  0008a	88 55 e2	 mov	 BYTE PTR __k$[ebp+6], dl
  0008d	8a 50 07	 mov	 dl, BYTE PTR [eax+7]
  00090	84 d2		 test	 dl, dl
  00092	0f 84 0a 02 00
	00		 je	 $LN89@LoadFloat_
  00098	80 f2 ea	 xor	 dl, -22			; ffffffeaH
  0009b	88 55 e3	 mov	 BYTE PTR __k$[ebp+7], dl
  0009e	8a 50 08	 mov	 dl, BYTE PTR [eax+8]
  000a1	84 d2		 test	 dl, dl
  000a3	0f 84 f3 01 00
	00		 je	 $LN88@LoadFloat_
  000a9	80 f2 ed	 xor	 dl, -19			; ffffffedH
  000ac	88 55 e4	 mov	 BYTE PTR __k$[ebp+8], dl
  000af	8a 50 09	 mov	 dl, BYTE PTR [eax+9]
  000b2	84 d2		 test	 dl, dl
  000b4	0f 84 dd 01 00
	00		 je	 $LN87@LoadFloat_
  000ba	32 d3		 xor	 dl, bl
  000bc	88 55 e5	 mov	 BYTE PTR __k$[ebp+9], dl
  000bf	8a 50 0a	 mov	 dl, BYTE PTR [eax+10]
  000c2	84 d2		 test	 dl, dl
  000c4	0f 84 c8 01 00
	00		 je	 $LN86@LoadFloat_
  000ca	32 d1		 xor	 dl, cl
  000cc	88 55 e6	 mov	 BYTE PTR __k$[ebp+10], dl
  000cf	8a 50 0b	 mov	 dl, BYTE PTR [eax+11]
  000d2	84 d2		 test	 dl, dl
  000d4	0f 84 b2 01 00
	00		 je	 $LN85@LoadFloat_
  000da	80 f2 ea	 xor	 dl, -22			; ffffffeaH
  000dd	88 55 e7	 mov	 BYTE PTR __k$[ebp+11], dl
  000e0	8a 50 0c	 mov	 dl, BYTE PTR [eax+12]
  000e3	84 d2		 test	 dl, dl
  000e5	0f 84 9b 01 00
	00		 je	 $LN84@LoadFloat_
  000eb	80 f2 ed	 xor	 dl, -19			; ffffffedH
  000ee	88 55 e8	 mov	 BYTE PTR __k$[ebp+12], dl
  000f1	8a 50 0d	 mov	 dl, BYTE PTR [eax+13]
  000f4	84 d2		 test	 dl, dl
  000f6	0f 84 85 01 00
	00		 je	 $LN83@LoadFloat_
  000fc	32 d3		 xor	 dl, bl
  000fe	88 55 e9	 mov	 BYTE PTR __k$[ebp+13], dl
  00101	8a 50 0e	 mov	 dl, BYTE PTR [eax+14]
  00104	84 d2		 test	 dl, dl
  00106	0f 84 70 01 00
	00		 je	 $LN82@LoadFloat_
  0010c	32 d1		 xor	 dl, cl
  0010e	88 55 ea	 mov	 BYTE PTR __k$[ebp+14], dl
  00111	8a 50 0f	 mov	 dl, BYTE PTR [eax+15]
  00114	84 d2		 test	 dl, dl
  00116	0f 84 5a 01 00
	00		 je	 $LN81@LoadFloat_
  0011c	80 f2 ea	 xor	 dl, -22			; ffffffeaH
  0011f	88 55 eb	 mov	 BYTE PTR __k$[ebp+15], dl
  00122	8a 50 10	 mov	 dl, BYTE PTR [eax+16]
  00125	84 d2		 test	 dl, dl
  00127	0f 84 43 01 00
	00		 je	 $LN80@LoadFloat_
  0012d	80 f2 ed	 xor	 dl, -19			; ffffffedH
  00130	88 55 ec	 mov	 BYTE PTR __k$[ebp+16], dl
  00133	8a 50 11	 mov	 dl, BYTE PTR [eax+17]
  00136	84 d2		 test	 dl, dl
  00138	0f 84 2d 01 00
	00		 je	 $LN79@LoadFloat_
  0013e	32 d3		 xor	 dl, bl
  00140	88 55 ed	 mov	 BYTE PTR __k$[ebp+17], dl
  00143	8a 50 12	 mov	 dl, BYTE PTR [eax+18]
  00146	84 d2		 test	 dl, dl
  00148	0f 84 18 01 00
	00		 je	 $LN78@LoadFloat_
  0014e	32 d1		 xor	 dl, cl
  00150	88 55 ee	 mov	 BYTE PTR __k$[ebp+18], dl
  00153	8a 50 13	 mov	 dl, BYTE PTR [eax+19]
  00156	84 d2		 test	 dl, dl
  00158	0f 84 02 01 00
	00		 je	 $LN77@LoadFloat_
  0015e	80 f2 ea	 xor	 dl, -22			; ffffffeaH
  00161	88 55 ef	 mov	 BYTE PTR __k$[ebp+19], dl
  00164	8a 50 14	 mov	 dl, BYTE PTR [eax+20]
  00167	84 d2		 test	 dl, dl
  00169	0f 84 eb 00 00
	00		 je	 $LN76@LoadFloat_
  0016f	80 f2 ed	 xor	 dl, -19			; ffffffedH
  00172	88 55 f0	 mov	 BYTE PTR __k$[ebp+20], dl
  00175	8a 50 15	 mov	 dl, BYTE PTR [eax+21]
  00178	84 d2		 test	 dl, dl
  0017a	0f 84 d5 00 00
	00		 je	 $LN75@LoadFloat_
  00180	32 d3		 xor	 dl, bl
  00182	88 55 f1	 mov	 BYTE PTR __k$[ebp+21], dl
  00185	8a 50 16	 mov	 dl, BYTE PTR [eax+22]
  00188	84 d2		 test	 dl, dl
  0018a	0f 84 c0 00 00
	00		 je	 $LN74@LoadFloat_
  00190	32 d1		 xor	 dl, cl
  00192	88 55 f2	 mov	 BYTE PTR __k$[ebp+22], dl
  00195	8a 50 17	 mov	 dl, BYTE PTR [eax+23]
  00198	84 d2		 test	 dl, dl
  0019a	0f 84 aa 00 00
	00		 je	 $LN73@LoadFloat_
  001a0	80 f2 ea	 xor	 dl, -22			; ffffffeaH
  001a3	88 55 f3	 mov	 BYTE PTR __k$[ebp+23], dl
  001a6	8a 50 18	 mov	 dl, BYTE PTR [eax+24]
  001a9	84 d2		 test	 dl, dl
  001ab	0f 84 90 00 00
	00		 je	 $LN72@LoadFloat_
  001b1	80 f2 ed	 xor	 dl, -19			; ffffffedH
  001b4	88 55 f4	 mov	 BYTE PTR __k$[ebp+24], dl
  001b7	8a 50 19	 mov	 dl, BYTE PTR [eax+25]
  001ba	84 d2		 test	 dl, dl
  001bc	74 7b		 je	 SHORT $LN71@LoadFloat_
  001be	32 d3		 xor	 dl, bl
  001c0	88 55 f5	 mov	 BYTE PTR __k$[ebp+25], dl
  001c3	8a 50 1a	 mov	 dl, BYTE PTR [eax+26]
  001c6	84 d2		 test	 dl, dl
  001c8	74 67		 je	 SHORT $LN70@LoadFloat_
  001ca	32 d1		 xor	 dl, cl
  001cc	80 78 1b 00	 cmp	 BYTE PTR [eax+27], 0
  001d0	88 55 f6	 mov	 BYTE PTR __k$[ebp+26], dl
  001d3	0f 84 f5 00 00
	00		 je	 $LN1@LoadFloat_
  001d9	8a 50 1c	 mov	 dl, BYTE PTR [eax+28]
  001dc	84 d2		 test	 dl, dl
  001de	74 48		 je	 SHORT $LN68@LoadFloat_
  001e0	80 f2 ed	 xor	 dl, -19			; ffffffedH
  001e3	88 55 f8	 mov	 BYTE PTR __k$[ebp+28], dl
  001e6	8a 50 1d	 mov	 dl, BYTE PTR [eax+29]
  001e9	84 d2		 test	 dl, dl
  001eb	74 33		 je	 SHORT $LN67@LoadFloat_
  001ed	32 d3		 xor	 dl, bl
  001ef	88 55 f9	 mov	 BYTE PTR __k$[ebp+29], dl
  001f2	8a 50 1e	 mov	 dl, BYTE PTR [eax+30]
  001f5	84 d2		 test	 dl, dl
  001f7	74 1f		 je	 SHORT $LN66@LoadFloat_
  001f9	8a 40 1f	 mov	 al, BYTE PTR [eax+31]
  001fc	32 d1		 xor	 dl, cl
  001fe	88 55 fa	 mov	 BYTE PTR __k$[ebp+30], dl
  00201	84 c0		 test	 al, al
  00203	74 0a		 je	 SHORT $LN65@LoadFloat_
  00205	34 ea		 xor	 al, -22			; ffffffeaH
  00207	88 45 fb	 mov	 BYTE PTR __k$[ebp+31], al
  0020a	e9 bf 00 00 00	 jmp	 $LN1@LoadFloat_
$LN65@LoadFloat_:
  0020f	c6 45 fb ea	 mov	 BYTE PTR __k$[ebp+31], -22 ; ffffffeaH
  00213	e9 b6 00 00 00	 jmp	 $LN1@LoadFloat_
$LN66@LoadFloat_:
  00218	88 4d fa	 mov	 BYTE PTR __k$[ebp+30], cl
  0021b	e9 ae 00 00 00	 jmp	 $LN1@LoadFloat_
$LN67@LoadFloat_:
  00220	88 5d f9	 mov	 BYTE PTR __k$[ebp+29], bl
  00223	e9 a6 00 00 00	 jmp	 $LN1@LoadFloat_
$LN68@LoadFloat_:
  00228	c6 45 f8 ed	 mov	 BYTE PTR __k$[ebp+28], -19 ; ffffffedH
  0022c	e9 9d 00 00 00	 jmp	 $LN1@LoadFloat_
$LN70@LoadFloat_:
  00231	88 4d f6	 mov	 BYTE PTR __k$[ebp+26], cl
  00234	e9 95 00 00 00	 jmp	 $LN1@LoadFloat_
$LN71@LoadFloat_:
  00239	88 5d f5	 mov	 BYTE PTR __k$[ebp+25], bl
  0023c	e9 8d 00 00 00	 jmp	 $LN1@LoadFloat_
$LN72@LoadFloat_:
  00241	c6 45 f4 ed	 mov	 BYTE PTR __k$[ebp+24], -19 ; ffffffedH
  00245	e9 84 00 00 00	 jmp	 $LN1@LoadFloat_
$LN73@LoadFloat_:
  0024a	c6 45 f3 ea	 mov	 BYTE PTR __k$[ebp+23], -22 ; ffffffeaH
  0024e	eb 7e		 jmp	 SHORT $LN1@LoadFloat_
$LN74@LoadFloat_:
  00250	88 4d f2	 mov	 BYTE PTR __k$[ebp+22], cl
  00253	eb 79		 jmp	 SHORT $LN1@LoadFloat_
$LN75@LoadFloat_:
  00255	88 5d f1	 mov	 BYTE PTR __k$[ebp+21], bl
  00258	eb 74		 jmp	 SHORT $LN1@LoadFloat_
$LN76@LoadFloat_:
  0025a	c6 45 f0 ed	 mov	 BYTE PTR __k$[ebp+20], -19 ; ffffffedH
  0025e	eb 6e		 jmp	 SHORT $LN1@LoadFloat_
$LN77@LoadFloat_:
  00260	c6 45 ef ea	 mov	 BYTE PTR __k$[ebp+19], -22 ; ffffffeaH
  00264	eb 68		 jmp	 SHORT $LN1@LoadFloat_
$LN78@LoadFloat_:
  00266	88 4d ee	 mov	 BYTE PTR __k$[ebp+18], cl
  00269	eb 63		 jmp	 SHORT $LN1@LoadFloat_
$LN79@LoadFloat_:
  0026b	88 5d ed	 mov	 BYTE PTR __k$[ebp+17], bl
  0026e	eb 5e		 jmp	 SHORT $LN1@LoadFloat_
$LN80@LoadFloat_:
  00270	c6 45 ec ed	 mov	 BYTE PTR __k$[ebp+16], -19 ; ffffffedH
  00274	eb 58		 jmp	 SHORT $LN1@LoadFloat_
$LN81@LoadFloat_:
  00276	c6 45 eb ea	 mov	 BYTE PTR __k$[ebp+15], -22 ; ffffffeaH
  0027a	eb 52		 jmp	 SHORT $LN1@LoadFloat_
$LN82@LoadFloat_:
  0027c	88 4d ea	 mov	 BYTE PTR __k$[ebp+14], cl
  0027f	eb 4d		 jmp	 SHORT $LN1@LoadFloat_
$LN83@LoadFloat_:
  00281	88 5d e9	 mov	 BYTE PTR __k$[ebp+13], bl
  00284	eb 48		 jmp	 SHORT $LN1@LoadFloat_
$LN84@LoadFloat_:
  00286	c6 45 e8 ed	 mov	 BYTE PTR __k$[ebp+12], -19 ; ffffffedH
  0028a	eb 42		 jmp	 SHORT $LN1@LoadFloat_
$LN85@LoadFloat_:
  0028c	c6 45 e7 ea	 mov	 BYTE PTR __k$[ebp+11], -22 ; ffffffeaH
  00290	eb 3c		 jmp	 SHORT $LN1@LoadFloat_
$LN86@LoadFloat_:
  00292	88 4d e6	 mov	 BYTE PTR __k$[ebp+10], cl
  00295	eb 37		 jmp	 SHORT $LN1@LoadFloat_
$LN87@LoadFloat_:
  00297	88 5d e5	 mov	 BYTE PTR __k$[ebp+9], bl
  0029a	eb 32		 jmp	 SHORT $LN1@LoadFloat_
$LN88@LoadFloat_:
  0029c	c6 45 e4 ed	 mov	 BYTE PTR __k$[ebp+8], -19 ; ffffffedH
  002a0	eb 2c		 jmp	 SHORT $LN1@LoadFloat_
$LN89@LoadFloat_:
  002a2	c6 45 e3 ea	 mov	 BYTE PTR __k$[ebp+7], -22 ; ffffffeaH
  002a6	eb 26		 jmp	 SHORT $LN1@LoadFloat_
$LN90@LoadFloat_:
  002a8	88 4d e2	 mov	 BYTE PTR __k$[ebp+6], cl
  002ab	eb 21		 jmp	 SHORT $LN1@LoadFloat_
$LN91@LoadFloat_:
  002ad	88 5d e1	 mov	 BYTE PTR __k$[ebp+5], bl
  002b0	eb 1c		 jmp	 SHORT $LN1@LoadFloat_
$LN92@LoadFloat_:
  002b2	c6 45 e0 ed	 mov	 BYTE PTR __k$[ebp+4], -19 ; ffffffedH
  002b6	eb 16		 jmp	 SHORT $LN1@LoadFloat_
$LN93@LoadFloat_:
  002b8	c6 45 df ea	 mov	 BYTE PTR __k$[ebp+3], -22 ; ffffffeaH
  002bc	eb 10		 jmp	 SHORT $LN1@LoadFloat_
$LN94@LoadFloat_:
  002be	c6 45 de eb	 mov	 BYTE PTR __k$[ebp+2], -21 ; ffffffebH
  002c2	eb 0a		 jmp	 SHORT $LN1@LoadFloat_
$LN95@LoadFloat_:
  002c4	c6 45 dd ec	 mov	 BYTE PTR __k$[ebp+1], -20 ; ffffffecH
  002c8	eb 04		 jmp	 SHORT $LN1@LoadFloat_
$LN96@LoadFloat_:
  002ca	c6 45 dc ed	 mov	 BYTE PTR __k$[ebp], -19	; ffffffedH
$LN1@LoadFloat_:
  002ce	6a 06		 push	 6
  002d0	8d 45 dc	 lea	 eax, DWORD PTR __k$[ebp]
  002d3	c6 45 f7 00	 mov	 BYTE PTR __k$[ebp+27], 0
  002d7	5a		 pop	 edx
$LL104@LoadFloat_:
  002d8	81 30 ed ec eb
	ea		 xor	 DWORD PTR [eax], -353637139 ; eaebecedH
  002de	83 c0 04	 add	 eax, 4
  002e1	4a		 dec	 edx
  002e2	75 f4		 jne	 SHORT $LL104@LoadFloat_
  002e4	6a 18		 push	 24			; 00000018H
  002e6	58		 pop	 eax
$LL101@LoadFloat_:
  002e7	8b c8		 mov	 ecx, eax
  002e9	81 e1 03 00 00
	80		 and	 ecx, -2147483645	; 80000003H
  002ef	79 05		 jns	 SHORT $LN111@LoadFloat_
  002f1	49		 dec	 ecx
  002f2	83 c9 fc	 or	 ecx, -4			; fffffffcH
  002f5	41		 inc	 ecx
$LN111@LoadFloat_:
  002f6	b2 ed		 mov	 dl, -19			; ffffffedH
  002f8	2a d1		 sub	 dl, cl
  002fa	30 54 05 dc	 xor	 BYTE PTR __k$[ebp+eax], dl
  002fe	40		 inc	 eax
  002ff	83 f8 1b	 cmp	 eax, 27			; 0000001bH
  00302	7c e3		 jl	 SHORT $LL101@LoadFloat_

; 137  : 		return LoadFloat(_k, f);

  00304	f3 0f 10 45 0c	 movss	 xmm0, DWORD PTR _f$[ebp]
  00309	51		 push	 ecx
  0030a	8d 45 dc	 lea	 eax, DWORD PTR __k$[ebp]
  0030d	f3 0f 11 04 24	 movss	 DWORD PTR [esp], xmm0
  00312	50		 push	 eax
  00313	8b ce		 mov	 ecx, esi
  00315	ff 15 00 00 00
	00		 call	 DWORD PTR __imp_?LoadFloat@ioINILoader@@QAEMPBDM@Z

; 138  : 	}

  0031b	8b 4d fc	 mov	 ecx, DWORD PTR __$ArrayPad$[ebp]
  0031e	5e		 pop	 esi
  0031f	33 cd		 xor	 ecx, ebp
  00321	5b		 pop	 ebx
  00322	e8 00 00 00 00	 call	 @__security_check_cookie@4
  00327	c9		 leave
  00328	c2 08 00	 ret	 8
??$LoadFloat_e@$0BM@@ioINILoader@@QAEMAAY0BM@$$CBDM@Z ENDP ; ioINILoader::LoadFloat_e<28>
_TEXT	ENDS
PUBLIC	__$ArrayPad$
PUBLIC	??$LoadBool_e@$0O@@ioINILoader@@QAE_NAAY0O@$$CBD_N@Z ; ioINILoader::LoadBool_e<14>
; Function compile flags: /Ogsp
;	COMDAT ??$LoadBool_e@$0O@@ioINILoader@@QAE_NAAY0O@$$CBD_N@Z
_TEXT	SEGMENT
__k$ = -24						; size = 14
__$ArrayPad$ = -4					; size = 4
_k$ = 8							; size = 4
_b$ = 12						; size = 1
??$LoadBool_e@$0O@@ioINILoader@@QAE_NAAY0O@$$CBD_N@Z PROC ; ioINILoader::LoadBool_e<14>, COMDAT
; _this$ = ecx

; 101  : 	{

  00000	55		 push	 ebp
  00001	8b ec		 mov	 ebp, esp
  00003	83 ec 18	 sub	 esp, 24			; 00000018H
  00006	a1 00 00 00 00	 mov	 eax, DWORD PTR ___security_cookie
  0000b	33 c5		 xor	 eax, ebp
  0000d	89 45 fc	 mov	 DWORD PTR __$ArrayPad$[ebp], eax
  00010	8b 45 08	 mov	 eax, DWORD PTR _k$[ebp]

; 102  : 		_ENCSTR(k, _k);

  00013	8a 10		 mov	 dl, BYTE PTR [eax]
  00015	56		 push	 esi
  00016	8b f1		 mov	 esi, ecx
  00018	84 d2		 test	 dl, dl
  0001a	0f 84 64 01 00
	00		 je	 $LN96@LoadBool_e@5
  00020	80 f2 ed	 xor	 dl, -19			; ffffffedH
  00023	88 55 e8	 mov	 BYTE PTR __k$[ebp], dl
  00026	8a 50 01	 mov	 dl, BYTE PTR [eax+1]
  00029	84 d2		 test	 dl, dl
  0002b	0f 84 4d 01 00
	00		 je	 $LN95@LoadBool_e@5
  00031	80 f2 ec	 xor	 dl, -20			; ffffffecH
  00034	88 55 e9	 mov	 BYTE PTR __k$[ebp+1], dl
  00037	8a 50 02	 mov	 dl, BYTE PTR [eax+2]
  0003a	84 d2		 test	 dl, dl
  0003c	0f 84 36 01 00
	00		 je	 $LN94@LoadBool_e@5
  00042	b1 eb		 mov	 cl, -21			; ffffffebH
  00044	32 d1		 xor	 dl, cl
  00046	88 55 ea	 mov	 BYTE PTR __k$[ebp+2], dl
  00049	8a 50 03	 mov	 dl, BYTE PTR [eax+3]
  0004c	84 d2		 test	 dl, dl
  0004e	0f 84 1e 01 00
	00		 je	 $LN93@LoadBool_e@5
  00054	80 f2 ea	 xor	 dl, -22			; ffffffeaH
  00057	88 55 eb	 mov	 BYTE PTR __k$[ebp+3], dl
  0005a	8a 50 04	 mov	 dl, BYTE PTR [eax+4]
  0005d	84 d2		 test	 dl, dl
  0005f	0f 84 07 01 00
	00		 je	 $LN92@LoadBool_e@5
  00065	80 f2 ed	 xor	 dl, -19			; ffffffedH
  00068	88 55 ec	 mov	 BYTE PTR __k$[ebp+4], dl
  0006b	8a 50 05	 mov	 dl, BYTE PTR [eax+5]
  0006e	84 d2		 test	 dl, dl
  00070	0f 84 f0 00 00
	00		 je	 $LN91@LoadBool_e@5
  00076	80 f2 ec	 xor	 dl, -20			; ffffffecH
  00079	88 55 ed	 mov	 BYTE PTR __k$[ebp+5], dl
  0007c	8a 50 06	 mov	 dl, BYTE PTR [eax+6]
  0007f	84 d2		 test	 dl, dl
  00081	0f 84 da 00 00
	00		 je	 $LN90@LoadBool_e@5
  00087	32 d1		 xor	 dl, cl
  00089	88 55 ee	 mov	 BYTE PTR __k$[ebp+6], dl
  0008c	8a 50 07	 mov	 dl, BYTE PTR [eax+7]
  0008f	84 d2		 test	 dl, dl
  00091	0f 84 c4 00 00
	00		 je	 $LN89@LoadBool_e@5
  00097	80 f2 ea	 xor	 dl, -22			; ffffffeaH
  0009a	88 55 ef	 mov	 BYTE PTR __k$[ebp+7], dl
  0009d	8a 50 08	 mov	 dl, BYTE PTR [eax+8]
  000a0	84 d2		 test	 dl, dl
  000a2	0f 84 ad 00 00
	00		 je	 $LN88@LoadBool_e@5
  000a8	80 f2 ed	 xor	 dl, -19			; ffffffedH
  000ab	88 55 f0	 mov	 BYTE PTR __k$[ebp+8], dl
  000ae	8a 50 09	 mov	 dl, BYTE PTR [eax+9]
  000b1	84 d2		 test	 dl, dl
  000b3	0f 84 96 00 00
	00		 je	 $LN87@LoadBool_e@5
  000b9	80 f2 ec	 xor	 dl, -20			; ffffffecH
  000bc	88 55 f1	 mov	 BYTE PTR __k$[ebp+9], dl
  000bf	8a 50 0a	 mov	 dl, BYTE PTR [eax+10]
  000c2	84 d2		 test	 dl, dl
  000c4	0f 84 80 00 00
	00		 je	 $LN86@LoadBool_e@5
  000ca	32 d1		 xor	 dl, cl
  000cc	88 55 f2	 mov	 BYTE PTR __k$[ebp+10], dl
  000cf	8a 50 0b	 mov	 dl, BYTE PTR [eax+11]
  000d2	84 d2		 test	 dl, dl
  000d4	74 6e		 je	 SHORT $LN85@LoadBool_e@5
  000d6	80 f2 ea	 xor	 dl, -22			; ffffffeaH
  000d9	88 55 f3	 mov	 BYTE PTR __k$[ebp+11], dl
  000dc	8a 50 0c	 mov	 dl, BYTE PTR [eax+12]
  000df	84 d2		 test	 dl, dl
  000e1	74 5b		 je	 SHORT $LN84@LoadBool_e@5
  000e3	80 f2 ed	 xor	 dl, -19			; ffffffedH
  000e6	80 78 0d 00	 cmp	 BYTE PTR [eax+13], 0
  000ea	88 55 f4	 mov	 BYTE PTR __k$[ebp+12], dl
  000ed	0f 84 95 00 00
	00		 je	 $LN1@LoadBool_e@5
  000f3	8a 50 0e	 mov	 dl, BYTE PTR [eax+14]
  000f6	84 d2		 test	 dl, dl
  000f8	74 3f		 je	 SHORT $LN82@LoadBool_e@5
  000fa	32 d1		 xor	 dl, cl
  000fc	88 55 f6	 mov	 BYTE PTR __k$[ebp+14], dl
  000ff	8a 50 0f	 mov	 dl, BYTE PTR [eax+15]
  00102	84 d2		 test	 dl, dl
  00104	74 2d		 je	 SHORT $LN81@LoadBool_e@5
  00106	80 f2 ea	 xor	 dl, -22			; ffffffeaH
  00109	88 55 f7	 mov	 BYTE PTR __k$[ebp+15], dl
  0010c	8a 50 10	 mov	 dl, BYTE PTR [eax+16]
  0010f	84 d2		 test	 dl, dl
  00111	74 1a		 je	 SHORT $LN80@LoadBool_e@5
  00113	8a 40 11	 mov	 al, BYTE PTR [eax+17]
  00116	80 f2 ed	 xor	 dl, -19			; ffffffedH
  00119	88 55 f8	 mov	 BYTE PTR __k$[ebp+16], dl
  0011c	84 c0		 test	 al, al
  0011e	74 07		 je	 SHORT $LN79@LoadBool_e@5
  00120	34 ec		 xor	 al, -20			; ffffffecH
  00122	88 45 f9	 mov	 BYTE PTR __k$[ebp+17], al
  00125	eb 61		 jmp	 SHORT $LN1@LoadBool_e@5
$LN79@LoadBool_e@5:
  00127	c6 45 f9 ec	 mov	 BYTE PTR __k$[ebp+17], -20 ; ffffffecH
  0012b	eb 5b		 jmp	 SHORT $LN1@LoadBool_e@5
$LN80@LoadBool_e@5:
  0012d	c6 45 f8 ed	 mov	 BYTE PTR __k$[ebp+16], -19 ; ffffffedH
  00131	eb 55		 jmp	 SHORT $LN1@LoadBool_e@5
$LN81@LoadBool_e@5:
  00133	c6 45 f7 ea	 mov	 BYTE PTR __k$[ebp+15], -22 ; ffffffeaH
  00137	eb 4f		 jmp	 SHORT $LN1@LoadBool_e@5
$LN82@LoadBool_e@5:
  00139	88 4d f6	 mov	 BYTE PTR __k$[ebp+14], cl
  0013c	eb 4a		 jmp	 SHORT $LN1@LoadBool_e@5
$LN84@LoadBool_e@5:
  0013e	c6 45 f4 ed	 mov	 BYTE PTR __k$[ebp+12], -19 ; ffffffedH
  00142	eb 44		 jmp	 SHORT $LN1@LoadBool_e@5
$LN85@LoadBool_e@5:
  00144	c6 45 f3 ea	 mov	 BYTE PTR __k$[ebp+11], -22 ; ffffffeaH
  00148	eb 3e		 jmp	 SHORT $LN1@LoadBool_e@5
$LN86@LoadBool_e@5:
  0014a	88 4d f2	 mov	 BYTE PTR __k$[ebp+10], cl
  0014d	eb 39		 jmp	 SHORT $LN1@LoadBool_e@5
$LN87@LoadBool_e@5:
  0014f	c6 45 f1 ec	 mov	 BYTE PTR __k$[ebp+9], -20 ; ffffffecH
  00153	eb 33		 jmp	 SHORT $LN1@LoadBool_e@5
$LN88@LoadBool_e@5:
  00155	c6 45 f0 ed	 mov	 BYTE PTR __k$[ebp+8], -19 ; ffffffedH
  00159	eb 2d		 jmp	 SHORT $LN1@LoadBool_e@5
$LN89@LoadBool_e@5:
  0015b	c6 45 ef ea	 mov	 BYTE PTR __k$[ebp+7], -22 ; ffffffeaH
  0015f	eb 27		 jmp	 SHORT $LN1@LoadBool_e@5
$LN90@LoadBool_e@5:
  00161	88 4d ee	 mov	 BYTE PTR __k$[ebp+6], cl
  00164	eb 22		 jmp	 SHORT $LN1@LoadBool_e@5
$LN91@LoadBool_e@5:
  00166	c6 45 ed ec	 mov	 BYTE PTR __k$[ebp+5], -20 ; ffffffecH
  0016a	eb 1c		 jmp	 SHORT $LN1@LoadBool_e@5
$LN92@LoadBool_e@5:
  0016c	c6 45 ec ed	 mov	 BYTE PTR __k$[ebp+4], -19 ; ffffffedH
  00170	eb 16		 jmp	 SHORT $LN1@LoadBool_e@5
$LN93@LoadBool_e@5:
  00172	c6 45 eb ea	 mov	 BYTE PTR __k$[ebp+3], -22 ; ffffffeaH
  00176	eb 10		 jmp	 SHORT $LN1@LoadBool_e@5
$LN94@LoadBool_e@5:
  00178	c6 45 ea eb	 mov	 BYTE PTR __k$[ebp+2], -21 ; ffffffebH
  0017c	eb 0a		 jmp	 SHORT $LN1@LoadBool_e@5
$LN95@LoadBool_e@5:
  0017e	c6 45 e9 ec	 mov	 BYTE PTR __k$[ebp+1], -20 ; ffffffecH
  00182	eb 04		 jmp	 SHORT $LN1@LoadBool_e@5
$LN96@LoadBool_e@5:
  00184	c6 45 e8 ed	 mov	 BYTE PTR __k$[ebp], -19	; ffffffedH
$LN1@LoadBool_e@5:
  00188	6a 03		 push	 3
  0018a	8d 45 e8	 lea	 eax, DWORD PTR __k$[ebp]
  0018d	c6 45 f5 00	 mov	 BYTE PTR __k$[ebp+13], 0
  00191	5a		 pop	 edx
$LL104@LoadBool_e@5:
  00192	81 30 ed ec eb
	ea		 xor	 DWORD PTR [eax], -353637139 ; eaebecedH
  00198	83 c0 04	 add	 eax, 4
  0019b	4a		 dec	 edx
  0019c	75 f4		 jne	 SHORT $LL104@LoadBool_e@5

; 103  : 		return LoadBool(_k, b);

  0019e	ff 75 0c	 push	 DWORD PTR _b$[ebp]
  001a1	80 75 f4 ed	 xor	 BYTE PTR __k$[ebp+12], -19 ; ffffffedH
  001a5	8d 45 e8	 lea	 eax, DWORD PTR __k$[ebp]
  001a8	50		 push	 eax
  001a9	8b ce		 mov	 ecx, esi
  001ab	ff 15 00 00 00
	00		 call	 DWORD PTR __imp_?LoadBool@ioINILoader@@QAE_NPBD_N@Z

; 104  : 	}

  001b1	8b 4d fc	 mov	 ecx, DWORD PTR __$ArrayPad$[ebp]
  001b4	33 cd		 xor	 ecx, ebp
  001b6	5e		 pop	 esi
  001b7	e8 00 00 00 00	 call	 @__security_check_cookie@4
  001bc	c9		 leave
  001bd	c2 08 00	 ret	 8
??$LoadBool_e@$0O@@ioINILoader@@QAE_NAAY0O@$$CBD_N@Z ENDP ; ioINILoader::LoadBool_e<14>
_TEXT	ENDS
PUBLIC	__$ArrayPad$
PUBLIC	??$LoadInt_e@$0O@@ioINILoader@@QAEHAAY0O@$$CBDH@Z ; ioINILoader::LoadInt_e<14>
; Function compile flags: /Ogsp
;	COMDAT ??$LoadInt_e@$0O@@ioINILoader@@QAEHAAY0O@$$CBDH@Z
_TEXT	SEGMENT
__k$ = -24						; size = 14
__$ArrayPad$ = -4					; size = 4
_k$ = 8							; size = 4
_i$ = 12						; size = 4
??$LoadInt_e@$0O@@ioINILoader@@QAEHAAY0O@$$CBDH@Z PROC	; ioINILoader::LoadInt_e<14>, COMDAT
; _this$ = ecx

; 118  : 	{

  00000	55		 push	 ebp
  00001	8b ec		 mov	 ebp, esp
  00003	83 ec 18	 sub	 esp, 24			; 00000018H
  00006	a1 00 00 00 00	 mov	 eax, DWORD PTR ___security_cookie
  0000b	33 c5		 xor	 eax, ebp
  0000d	89 45 fc	 mov	 DWORD PTR __$ArrayPad$[ebp], eax
  00010	8b 45 08	 mov	 eax, DWORD PTR _k$[ebp]

; 119  : 		_ENCSTR(k, _k);

  00013	8a 10		 mov	 dl, BYTE PTR [eax]
  00015	56		 push	 esi
  00016	8b f1		 mov	 esi, ecx
  00018	84 d2		 test	 dl, dl
  0001a	0f 84 64 01 00
	00		 je	 $LN96@LoadInt_e@5
  00020	80 f2 ed	 xor	 dl, -19			; ffffffedH
  00023	88 55 e8	 mov	 BYTE PTR __k$[ebp], dl
  00026	8a 50 01	 mov	 dl, BYTE PTR [eax+1]
  00029	84 d2		 test	 dl, dl
  0002b	0f 84 4d 01 00
	00		 je	 $LN95@LoadInt_e@5
  00031	80 f2 ec	 xor	 dl, -20			; ffffffecH
  00034	88 55 e9	 mov	 BYTE PTR __k$[ebp+1], dl
  00037	8a 50 02	 mov	 dl, BYTE PTR [eax+2]
  0003a	84 d2		 test	 dl, dl
  0003c	0f 84 36 01 00
	00		 je	 $LN94@LoadInt_e@5
  00042	b1 eb		 mov	 cl, -21			; ffffffebH
  00044	32 d1		 xor	 dl, cl
  00046	88 55 ea	 mov	 BYTE PTR __k$[ebp+2], dl
  00049	8a 50 03	 mov	 dl, BYTE PTR [eax+3]
  0004c	84 d2		 test	 dl, dl
  0004e	0f 84 1e 01 00
	00		 je	 $LN93@LoadInt_e@5
  00054	80 f2 ea	 xor	 dl, -22			; ffffffeaH
  00057	88 55 eb	 mov	 BYTE PTR __k$[ebp+3], dl
  0005a	8a 50 04	 mov	 dl, BYTE PTR [eax+4]
  0005d	84 d2		 test	 dl, dl
  0005f	0f 84 07 01 00
	00		 je	 $LN92@LoadInt_e@5
  00065	80 f2 ed	 xor	 dl, -19			; ffffffedH
  00068	88 55 ec	 mov	 BYTE PTR __k$[ebp+4], dl
  0006b	8a 50 05	 mov	 dl, BYTE PTR [eax+5]
  0006e	84 d2		 test	 dl, dl
  00070	0f 84 f0 00 00
	00		 je	 $LN91@LoadInt_e@5
  00076	80 f2 ec	 xor	 dl, -20			; ffffffecH
  00079	88 55 ed	 mov	 BYTE PTR __k$[ebp+5], dl
  0007c	8a 50 06	 mov	 dl, BYTE PTR [eax+6]
  0007f	84 d2		 test	 dl, dl
  00081	0f 84 da 00 00
	00		 je	 $LN90@LoadInt_e@5
  00087	32 d1		 xor	 dl, cl
  00089	88 55 ee	 mov	 BYTE PTR __k$[ebp+6], dl
  0008c	8a 50 07	 mov	 dl, BYTE PTR [eax+7]
  0008f	84 d2		 test	 dl, dl
  00091	0f 84 c4 00 00
	00		 je	 $LN89@LoadInt_e@5
  00097	80 f2 ea	 xor	 dl, -22			; ffffffeaH
  0009a	88 55 ef	 mov	 BYTE PTR __k$[ebp+7], dl
  0009d	8a 50 08	 mov	 dl, BYTE PTR [eax+8]
  000a0	84 d2		 test	 dl, dl
  000a2	0f 84 ad 00 00
	00		 je	 $LN88@LoadInt_e@5
  000a8	80 f2 ed	 xor	 dl, -19			; ffffffedH
  000ab	88 55 f0	 mov	 BYTE PTR __k$[ebp+8], dl
  000ae	8a 50 09	 mov	 dl, BYTE PTR [eax+9]
  000b1	84 d2		 test	 dl, dl
  000b3	0f 84 96 00 00
	00		 je	 $LN87@LoadInt_e@5
  000b9	80 f2 ec	 xor	 dl, -20			; ffffffecH
  000bc	88 55 f1	 mov	 BYTE PTR __k$[ebp+9], dl
  000bf	8a 50 0a	 mov	 dl, BYTE PTR [eax+10]
  000c2	84 d2		 test	 dl, dl
  000c4	0f 84 80 00 00
	00		 je	 $LN86@LoadInt_e@5
  000ca	32 d1		 xor	 dl, cl
  000cc	88 55 f2	 mov	 BYTE PTR __k$[ebp+10], dl
  000cf	8a 50 0b	 mov	 dl, BYTE PTR [eax+11]
  000d2	84 d2		 test	 dl, dl
  000d4	74 6e		 je	 SHORT $LN85@LoadInt_e@5
  000d6	80 f2 ea	 xor	 dl, -22			; ffffffeaH
  000d9	88 55 f3	 mov	 BYTE PTR __k$[ebp+11], dl
  000dc	8a 50 0c	 mov	 dl, BYTE PTR [eax+12]
  000df	84 d2		 test	 dl, dl
  000e1	74 5b		 je	 SHORT $LN84@LoadInt_e@5
  000e3	80 f2 ed	 xor	 dl, -19			; ffffffedH
  000e6	80 78 0d 00	 cmp	 BYTE PTR [eax+13], 0
  000ea	88 55 f4	 mov	 BYTE PTR __k$[ebp+12], dl
  000ed	0f 84 95 00 00
	00		 je	 $LN1@LoadInt_e@5
  000f3	8a 50 0e	 mov	 dl, BYTE PTR [eax+14]
  000f6	84 d2		 test	 dl, dl
  000f8	74 3f		 je	 SHORT $LN82@LoadInt_e@5
  000fa	32 d1		 xor	 dl, cl
  000fc	88 55 f6	 mov	 BYTE PTR __k$[ebp+14], dl
  000ff	8a 50 0f	 mov	 dl, BYTE PTR [eax+15]
  00102	84 d2		 test	 dl, dl
  00104	74 2d		 je	 SHORT $LN81@LoadInt_e@5
  00106	80 f2 ea	 xor	 dl, -22			; ffffffeaH
  00109	88 55 f7	 mov	 BYTE PTR __k$[ebp+15], dl
  0010c	8a 50 10	 mov	 dl, BYTE PTR [eax+16]
  0010f	84 d2		 test	 dl, dl
  00111	74 1a		 je	 SHORT $LN80@LoadInt_e@5
  00113	8a 40 11	 mov	 al, BYTE PTR [eax+17]
  00116	80 f2 ed	 xor	 dl, -19			; ffffffedH
  00119	88 55 f8	 mov	 BYTE PTR __k$[ebp+16], dl
  0011c	84 c0		 test	 al, al
  0011e	74 07		 je	 SHORT $LN79@LoadInt_e@5
  00120	34 ec		 xor	 al, -20			; ffffffecH
  00122	88 45 f9	 mov	 BYTE PTR __k$[ebp+17], al
  00125	eb 61		 jmp	 SHORT $LN1@LoadInt_e@5
$LN79@LoadInt_e@5:
  00127	c6 45 f9 ec	 mov	 BYTE PTR __k$[ebp+17], -20 ; ffffffecH
  0012b	eb 5b		 jmp	 SHORT $LN1@LoadInt_e@5
$LN80@LoadInt_e@5:
  0012d	c6 45 f8 ed	 mov	 BYTE PTR __k$[ebp+16], -19 ; ffffffedH
  00131	eb 55		 jmp	 SHORT $LN1@LoadInt_e@5
$LN81@LoadInt_e@5:
  00133	c6 45 f7 ea	 mov	 BYTE PTR __k$[ebp+15], -22 ; ffffffeaH
  00137	eb 4f		 jmp	 SHORT $LN1@LoadInt_e@5
$LN82@LoadInt_e@5:
  00139	88 4d f6	 mov	 BYTE PTR __k$[ebp+14], cl
  0013c	eb 4a		 jmp	 SHORT $LN1@LoadInt_e@5
$LN84@LoadInt_e@5:
  0013e	c6 45 f4 ed	 mov	 BYTE PTR __k$[ebp+12], -19 ; ffffffedH
  00142	eb 44		 jmp	 SHORT $LN1@LoadInt_e@5
$LN85@LoadInt_e@5:
  00144	c6 45 f3 ea	 mov	 BYTE PTR __k$[ebp+11], -22 ; ffffffeaH
  00148	eb 3e		 jmp	 SHORT $LN1@LoadInt_e@5
$LN86@LoadInt_e@5:
  0014a	88 4d f2	 mov	 BYTE PTR __k$[ebp+10], cl
  0014d	eb 39		 jmp	 SHORT $LN1@LoadInt_e@5
$LN87@LoadInt_e@5:
  0014f	c6 45 f1 ec	 mov	 BYTE PTR __k$[ebp+9], -20 ; ffffffecH
  00153	eb 33		 jmp	 SHORT $LN1@LoadInt_e@5
$LN88@LoadInt_e@5:
  00155	c6 45 f0 ed	 mov	 BYTE PTR __k$[ebp+8], -19 ; ffffffedH
  00159	eb 2d		 jmp	 SHORT $LN1@LoadInt_e@5
$LN89@LoadInt_e@5:
  0015b	c6 45 ef ea	 mov	 BYTE PTR __k$[ebp+7], -22 ; ffffffeaH
  0015f	eb 27		 jmp	 SHORT $LN1@LoadInt_e@5
$LN90@LoadInt_e@5:
  00161	88 4d ee	 mov	 BYTE PTR __k$[ebp+6], cl
  00164	eb 22		 jmp	 SHORT $LN1@LoadInt_e@5
$LN91@LoadInt_e@5:
  00166	c6 45 ed ec	 mov	 BYTE PTR __k$[ebp+5], -20 ; ffffffecH
  0016a	eb 1c		 jmp	 SHORT $LN1@LoadInt_e@5
$LN92@LoadInt_e@5:
  0016c	c6 45 ec ed	 mov	 BYTE PTR __k$[ebp+4], -19 ; ffffffedH
  00170	eb 16		 jmp	 SHORT $LN1@LoadInt_e@5
$LN93@LoadInt_e@5:
  00172	c6 45 eb ea	 mov	 BYTE PTR __k$[ebp+3], -22 ; ffffffeaH
  00176	eb 10		 jmp	 SHORT $LN1@LoadInt_e@5
$LN94@LoadInt_e@5:
  00178	c6 45 ea eb	 mov	 BYTE PTR __k$[ebp+2], -21 ; ffffffebH
  0017c	eb 0a		 jmp	 SHORT $LN1@LoadInt_e@5
$LN95@LoadInt_e@5:
  0017e	c6 45 e9 ec	 mov	 BYTE PTR __k$[ebp+1], -20 ; ffffffecH
  00182	eb 04		 jmp	 SHORT $LN1@LoadInt_e@5
$LN96@LoadInt_e@5:
  00184	c6 45 e8 ed	 mov	 BYTE PTR __k$[ebp], -19	; ffffffedH
$LN1@LoadInt_e@5:
  00188	6a 03		 push	 3
  0018a	8d 45 e8	 lea	 eax, DWORD PTR __k$[ebp]
  0018d	c6 45 f5 00	 mov	 BYTE PTR __k$[ebp+13], 0
  00191	5a		 pop	 edx
$LL104@LoadInt_e@5:
  00192	81 30 ed ec eb
	ea		 xor	 DWORD PTR [eax], -353637139 ; eaebecedH
  00198	83 c0 04	 add	 eax, 4
  0019b	4a		 dec	 edx
  0019c	75 f4		 jne	 SHORT $LL104@LoadInt_e@5

; 120  : 		return LoadInt(_k, i);

  0019e	ff 75 0c	 push	 DWORD PTR _i$[ebp]
  001a1	80 75 f4 ed	 xor	 BYTE PTR __k$[ebp+12], -19 ; ffffffedH
  001a5	8d 45 e8	 lea	 eax, DWORD PTR __k$[ebp]
  001a8	50		 push	 eax
  001a9	8b ce		 mov	 ecx, esi
  001ab	ff 15 00 00 00
	00		 call	 DWORD PTR __imp_?LoadInt@ioINILoader@@QAEHPBDH@Z

; 121  : 	}

  001b1	8b 4d fc	 mov	 ecx, DWORD PTR __$ArrayPad$[ebp]
  001b4	33 cd		 xor	 ecx, ebp
  001b6	5e		 pop	 esi
  001b7	e8 00 00 00 00	 call	 @__security_check_cookie@4
  001bc	c9		 leave
  001bd	c2 08 00	 ret	 8
??$LoadInt_e@$0O@@ioINILoader@@QAEHAAY0O@$$CBDH@Z ENDP	; ioINILoader::LoadInt_e<14>
_TEXT	ENDS
PUBLIC	??$GetAnimationEventTime_e@$06@ioEntityGroup@@QAEMHAAY06$$CBD@Z ; ioEntityGroup::GetAnimationEventTime_e<7>
EXTRN	__imp_?GetAnimationEventTime@ioEntityGroup@@QAEMHABVioHashString@@@Z:PROC
EXTRN	__imp_??0ioHashString@@QAE@PBD@Z:PROC
EXTRN	___CxxFrameHandler3:PROC
EXTRN	__EH_epilog3_GS:PROC
EXTRN	__EH_prolog3_GS:PROC
;	COMDAT xdata$x
; File d:\lost saga for developer\youtube\tutorial\source\src\lsclient\stringprotect.h
xdata$x	SEGMENT
__unwindtable$??$GetAnimationEventTime_e@$06@ioEntityGroup@@QAEMHAAY06$$CBD@Z DD 0ffffffffH
	DD	FLAT:__unwindfunclet$??$GetAnimationEventTime_e@$06@ioEntityGroup@@QAEMHAAY06$$CBD@Z$0
__ehfuncinfo$??$GetAnimationEventTime_e@$06@ioEntityGroup@@QAEMHAAY06$$CBD@Z DD 019930522H
	DD	01H
	DD	FLAT:__unwindtable$??$GetAnimationEventTime_e@$06@ioEntityGroup@@QAEMHAAY06$$CBD@Z
	DD	2 DUP(00H)
	DD	2 DUP(00H)
	DD	00H
	DD	01H
; Function compile flags: /Ogsp
; File d:\lost saga for developer\youtube\tutorial\source\src\io3dengine\ioentitygroup.h
xdata$x	ENDS
;	COMDAT ??$GetAnimationEventTime_e@$06@ioEntityGroup@@QAEMHAAY06$$CBD@Z
_TEXT	SEGMENT
$T615798 = -48						; size = 16
$T615797 = -32						; size = 4
_szEncEventType$ = -28					; size = 7
__$EHRec$ = -12						; size = 12
_id$ = 8						; size = 4
_szEventType$ = 12					; size = 4
??$GetAnimationEventTime_e@$06@ioEntityGroup@@QAEMHAAY06$$CBD@Z PROC ; ioEntityGroup::GetAnimationEventTime_e<7>, COMDAT
; _this$ = ecx

; 414  : 	{

  00000	6a 24		 push	 36			; 00000024H
  00002	b8 00 00 00 00	 mov	 eax, __ehhandler$??$GetAnimationEventTime_e@$06@ioEntityGroup@@QAEMHAAY06$$CBD@Z
  00007	e8 00 00 00 00	 call	 __EH_prolog3_GS
  0000c	8b 45 0c	 mov	 eax, DWORD PTR _szEventType$[ebp]
  0000f	8b f1		 mov	 esi, ecx

; 415  : 		_ENCSTR(szEventType, szEncEventType);

  00011	8a 08		 mov	 cl, BYTE PTR [eax]
  00013	84 c9		 test	 cl, cl
  00015	0f 84 c0 00 00
	00		 je	 $LN96@GetAnimati
  0001b	80 f1 ed	 xor	 cl, -19			; ffffffedH
  0001e	88 4d e4	 mov	 BYTE PTR _szEncEventType$[ebp], cl
  00021	8a 48 01	 mov	 cl, BYTE PTR [eax+1]
  00024	84 c9		 test	 cl, cl
  00026	0f 84 a9 00 00
	00		 je	 $LN95@GetAnimati
  0002c	80 f1 ec	 xor	 cl, -20			; ffffffecH
  0002f	88 4d e5	 mov	 BYTE PTR _szEncEventType$[ebp+1], cl
  00032	8a 48 02	 mov	 cl, BYTE PTR [eax+2]
  00035	84 c9		 test	 cl, cl
  00037	0f 84 92 00 00
	00		 je	 $LN94@GetAnimati
  0003d	80 f1 eb	 xor	 cl, -21			; ffffffebH
  00040	88 4d e6	 mov	 BYTE PTR _szEncEventType$[ebp+2], cl
  00043	8a 48 03	 mov	 cl, BYTE PTR [eax+3]
  00046	84 c9		 test	 cl, cl
  00048	74 7f		 je	 SHORT $LN93@GetAnimati
  0004a	80 f1 ea	 xor	 cl, -22			; ffffffeaH
  0004d	88 4d e7	 mov	 BYTE PTR _szEncEventType$[ebp+3], cl
  00050	8a 48 04	 mov	 cl, BYTE PTR [eax+4]
  00053	84 c9		 test	 cl, cl
  00055	74 6c		 je	 SHORT $LN92@GetAnimati
  00057	80 f1 ed	 xor	 cl, -19			; ffffffedH
  0005a	88 4d e8	 mov	 BYTE PTR _szEncEventType$[ebp+4], cl
  0005d	8a 48 05	 mov	 cl, BYTE PTR [eax+5]
  00060	84 c9		 test	 cl, cl
  00062	74 59		 je	 SHORT $LN91@GetAnimati
  00064	80 f1 ec	 xor	 cl, -20			; ffffffecH
  00067	80 78 06 00	 cmp	 BYTE PTR [eax+6], 0
  0006b	88 4d e9	 mov	 BYTE PTR _szEncEventType$[ebp+5], cl
  0006e	74 6f		 je	 SHORT $LN1@GetAnimati
  00070	8a 48 07	 mov	 cl, BYTE PTR [eax+7]
  00073	84 c9		 test	 cl, cl
  00075	74 40		 je	 SHORT $LN89@GetAnimati
  00077	80 f1 ea	 xor	 cl, -22			; ffffffeaH
  0007a	88 4d eb	 mov	 BYTE PTR _szEncEventType$[ebp+7], cl
  0007d	8a 48 08	 mov	 cl, BYTE PTR [eax+8]
  00080	84 c9		 test	 cl, cl
  00082	74 2d		 je	 SHORT $LN88@GetAnimati
  00084	80 f1 ed	 xor	 cl, -19			; ffffffedH
  00087	88 4d ec	 mov	 BYTE PTR _szEncEventType$[ebp+8], cl
  0008a	8a 48 09	 mov	 cl, BYTE PTR [eax+9]
  0008d	84 c9		 test	 cl, cl
  0008f	74 1a		 je	 SHORT $LN87@GetAnimati
  00091	8a 40 0a	 mov	 al, BYTE PTR [eax+10]
  00094	80 f1 ec	 xor	 cl, -20			; ffffffecH
  00097	88 4d ed	 mov	 BYTE PTR _szEncEventType$[ebp+9], cl
  0009a	84 c0		 test	 al, al
  0009c	74 07		 je	 SHORT $LN86@GetAnimati
  0009e	34 eb		 xor	 al, -21			; ffffffebH
  000a0	88 45 ee	 mov	 BYTE PTR _szEncEventType$[ebp+10], al
  000a3	eb 3a		 jmp	 SHORT $LN1@GetAnimati
$LN86@GetAnimati:
  000a5	c6 45 ee eb	 mov	 BYTE PTR _szEncEventType$[ebp+10], -21 ; ffffffebH
  000a9	eb 34		 jmp	 SHORT $LN1@GetAnimati
$LN87@GetAnimati:
  000ab	c6 45 ed ec	 mov	 BYTE PTR _szEncEventType$[ebp+9], -20 ; ffffffecH
  000af	eb 2e		 jmp	 SHORT $LN1@GetAnimati
$LN88@GetAnimati:
  000b1	c6 45 ec ed	 mov	 BYTE PTR _szEncEventType$[ebp+8], -19 ; ffffffedH
  000b5	eb 28		 jmp	 SHORT $LN1@GetAnimati
$LN89@GetAnimati:
  000b7	c6 45 eb ea	 mov	 BYTE PTR _szEncEventType$[ebp+7], -22 ; ffffffeaH
  000bb	eb 22		 jmp	 SHORT $LN1@GetAnimati
$LN91@GetAnimati:
  000bd	c6 45 e9 ec	 mov	 BYTE PTR _szEncEventType$[ebp+5], -20 ; ffffffecH
  000c1	eb 1c		 jmp	 SHORT $LN1@GetAnimati
$LN92@GetAnimati:
  000c3	c6 45 e8 ed	 mov	 BYTE PTR _szEncEventType$[ebp+4], -19 ; ffffffedH
  000c7	eb 16		 jmp	 SHORT $LN1@GetAnimati
$LN93@GetAnimati:
  000c9	c6 45 e7 ea	 mov	 BYTE PTR _szEncEventType$[ebp+3], -22 ; ffffffeaH
  000cd	eb 10		 jmp	 SHORT $LN1@GetAnimati
$LN94@GetAnimati:
  000cf	c6 45 e6 eb	 mov	 BYTE PTR _szEncEventType$[ebp+2], -21 ; ffffffebH
  000d3	eb 0a		 jmp	 SHORT $LN1@GetAnimati
$LN95@GetAnimati:
  000d5	c6 45 e5 ec	 mov	 BYTE PTR _szEncEventType$[ebp+1], -20 ; ffffffecH
  000d9	eb 04		 jmp	 SHORT $LN1@GetAnimati
$LN96@GetAnimati:
  000db	c6 45 e4 ed	 mov	 BYTE PTR _szEncEventType$[ebp], -19 ; ffffffedH
$LN1@GetAnimati:
  000df	81 75 e4 ed ec
	eb ea		 xor	 DWORD PTR _szEncEventType$[ebp], -353637139 ; eaebecedH
  000e6	6a 04		 push	 4
  000e8	c6 45 ea 00	 mov	 BYTE PTR _szEncEventType$[ebp+6], 0
  000ec	58		 pop	 eax
$LL102@GetAnimati:
  000ed	8b c8		 mov	 ecx, eax
  000ef	81 e1 03 00 00
	80		 and	 ecx, -2147483645	; 80000003H
  000f5	79 05		 jns	 SHORT $LN113@GetAnimati
  000f7	49		 dec	 ecx
  000f8	83 c9 fc	 or	 ecx, -4			; fffffffcH
  000fb	41		 inc	 ecx
$LN113@GetAnimati:
  000fc	b2 ed		 mov	 dl, -19			; ffffffedH
  000fe	2a d1		 sub	 dl, cl
  00100	30 54 05 e4	 xor	 BYTE PTR _szEncEventType$[ebp+eax], dl
  00104	40		 inc	 eax
  00105	83 f8 06	 cmp	 eax, 6
  00108	7c e3		 jl	 SHORT $LL102@GetAnimati

; 416  : 		return GetAnimationEventTime(id, szEncEventType);

  0010a	8d 45 e4	 lea	 eax, DWORD PTR _szEncEventType$[ebp]
  0010d	50		 push	 eax
  0010e	8d 4d d0	 lea	 ecx, DWORD PTR $T615798[ebp]
  00111	ff 15 00 00 00
	00		 call	 DWORD PTR __imp_??0ioHashString@@QAE@PBD@Z
  00117	83 65 fc 00	 and	 DWORD PTR __$EHRec$[ebp+8], 0
  0011b	8d 45 d0	 lea	 eax, DWORD PTR $T615798[ebp]
  0011e	50		 push	 eax
  0011f	ff 75 08	 push	 DWORD PTR _id$[ebp]
  00122	8b ce		 mov	 ecx, esi
  00124	ff 15 00 00 00
	00		 call	 DWORD PTR __imp_?GetAnimationEventTime@ioEntityGroup@@QAEMHABVioHashString@@@Z
  0012a	d9 5d e0	 fstp	 DWORD PTR $T615797[ebp]
  0012d	83 4d fc ff	 or	 DWORD PTR __$EHRec$[ebp+8], -1
  00131	8d 4d d0	 lea	 ecx, DWORD PTR $T615798[ebp]
  00134	ff 15 00 00 00
	00		 call	 DWORD PTR __imp_??1ioHashString@@QAE@XZ
  0013a	d9 45 e0	 fld	 DWORD PTR $T615797[ebp]

; 417  : 	}

  0013d	e8 00 00 00 00	 call	 __EH_epilog3_GS
  00142	c2 08 00	 ret	 8
_TEXT	ENDS
;	COMDAT text$x
text$x	SEGMENT
__unwindfunclet$??$GetAnimationEventTime_e@$06@ioEntityGroup@@QAEMHAAY06$$CBD@Z$0:
  00000	8d 4d d0	 lea	 ecx, DWORD PTR $T615798[ebp]
  00003	ff 25 00 00 00
	00		 jmp	 DWORD PTR __imp_??1ioHashString@@QAE@XZ
__ehhandler$??$GetAnimationEventTime_e@$06@ioEntityGroup@@QAEMHAAY06$$CBD@Z:
  00009	8b 54 24 08	 mov	 edx, DWORD PTR [esp+8]
  0000d	8d 42 0c	 lea	 eax, DWORD PTR [edx+12]
  00010	8b 4a cc	 mov	 ecx, DWORD PTR [edx-52]
  00013	33 c8		 xor	 ecx, eax
  00015	e8 00 00 00 00	 call	 @__security_check_cookie@4
  0001a	8b 4a fc	 mov	 ecx, DWORD PTR [edx-4]
  0001d	33 c8		 xor	 ecx, eax
  0001f	e8 00 00 00 00	 call	 @__security_check_cookie@4
  00024	b8 00 00 00 00	 mov	 eax, OFFSET __ehfuncinfo$??$GetAnimationEventTime_e@$06@ioEntityGroup@@QAEMHAAY06$$CBD@Z
  00029	e9 00 00 00 00	 jmp	 ___CxxFrameHandler3
text$x	ENDS
??$GetAnimationEventTime_e@$06@ioEntityGroup@@QAEMHAAY06$$CBD@Z ENDP ; ioEntityGroup::GetAnimationEventTime_e<7>
PUBLIC	??$GetAnimationEventTime_e@$0L@@ioEntityGroup@@QAEMHAAY0L@$$CBD@Z ; ioEntityGroup::GetAnimationEventTime_e<11>
;	COMDAT xdata$x
; File d:\lost saga for developer\youtube\tutorial\source\src\lsclient\stringprotect.h
xdata$x	SEGMENT
__unwindtable$??$GetAnimationEventTime_e@$0L@@ioEntityGroup@@QAEMHAAY0L@$$CBD@Z DD 0ffffffffH
	DD	FLAT:__unwindfunclet$??$GetAnimationEventTime_e@$0L@@ioEntityGroup@@QAEMHAAY0L@$$CBD@Z$0
__ehfuncinfo$??$GetAnimationEventTime_e@$0L@@ioEntityGroup@@QAEMHAAY0L@$$CBD@Z DD 019930522H
	DD	01H
	DD	FLAT:__unwindtable$??$GetAnimationEventTime_e@$0L@@ioEntityGroup@@QAEMHAAY0L@$$CBD@Z
	DD	2 DUP(00H)
	DD	2 DUP(00H)
	DD	00H
	DD	01H
; Function compile flags: /Ogsp
; File d:\lost saga for developer\youtube\tutorial\source\src\io3dengine\ioentitygroup.h
xdata$x	ENDS
;	COMDAT ??$GetAnimationEventTime_e@$0L@@ioEntityGroup@@QAEMHAAY0L@$$CBD@Z
_TEXT	SEGMENT
$T615834 = -52						; size = 16
$T615833 = -36						; size = 4
_szEncEventType$ = -32					; size = 11
__$EHRec$ = -12						; size = 12
_id$ = 8						; size = 4
_szEventType$ = 12					; size = 4
??$GetAnimationEventTime_e@$0L@@ioEntityGroup@@QAEMHAAY0L@$$CBD@Z PROC ; ioEntityGroup::GetAnimationEventTime_e<11>, COMDAT
; _this$ = ecx

; 414  : 	{

  00000	6a 28		 push	 40			; 00000028H
  00002	b8 00 00 00 00	 mov	 eax, __ehhandler$??$GetAnimationEventTime_e@$0L@@ioEntityGroup@@QAEMHAAY0L@$$CBD@Z
  00007	e8 00 00 00 00	 call	 __EH_prolog3_GS
  0000c	8b 45 0c	 mov	 eax, DWORD PTR _szEventType$[ebp]
  0000f	8b f1		 mov	 esi, ecx

; 415  : 		_ENCSTR(szEventType, szEncEventType);

  00011	8a 08		 mov	 cl, BYTE PTR [eax]
  00013	84 c9		 test	 cl, cl
  00015	0f 84 1b 01 00
	00		 je	 $LN96@GetAnimati@2
  0001b	b2 ed		 mov	 dl, -19			; ffffffedH
  0001d	32 ca		 xor	 cl, dl
  0001f	88 4d e0	 mov	 BYTE PTR _szEncEventType$[ebp], cl
  00022	8a 48 01	 mov	 cl, BYTE PTR [eax+1]
  00025	84 c9		 test	 cl, cl
  00027	0f 84 03 01 00
	00		 je	 $LN95@GetAnimati@2
  0002d	80 f1 ec	 xor	 cl, -20			; ffffffecH
  00030	88 4d e1	 mov	 BYTE PTR _szEncEventType$[ebp+1], cl
  00033	8a 48 02	 mov	 cl, BYTE PTR [eax+2]
  00036	84 c9		 test	 cl, cl
  00038	0f 84 ec 00 00
	00		 je	 $LN94@GetAnimati@2
  0003e	80 f1 eb	 xor	 cl, -21			; ffffffebH
  00041	88 4d e2	 mov	 BYTE PTR _szEncEventType$[ebp+2], cl
  00044	8a 48 03	 mov	 cl, BYTE PTR [eax+3]
  00047	84 c9		 test	 cl, cl
  00049	0f 84 d5 00 00
	00		 je	 $LN93@GetAnimati@2
  0004f	80 f1 ea	 xor	 cl, -22			; ffffffeaH
  00052	88 4d e3	 mov	 BYTE PTR _szEncEventType$[ebp+3], cl
  00055	8a 48 04	 mov	 cl, BYTE PTR [eax+4]
  00058	84 c9		 test	 cl, cl
  0005a	0f 84 bf 00 00
	00		 je	 $LN92@GetAnimati@2
  00060	32 ca		 xor	 cl, dl
  00062	88 4d e4	 mov	 BYTE PTR _szEncEventType$[ebp+4], cl
  00065	8a 48 05	 mov	 cl, BYTE PTR [eax+5]
  00068	84 c9		 test	 cl, cl
  0006a	0f 84 a9 00 00
	00		 je	 $LN91@GetAnimati@2
  00070	80 f1 ec	 xor	 cl, -20			; ffffffecH
  00073	88 4d e5	 mov	 BYTE PTR _szEncEventType$[ebp+5], cl
  00076	8a 48 06	 mov	 cl, BYTE PTR [eax+6]
  00079	84 c9		 test	 cl, cl
  0007b	0f 84 92 00 00
	00		 je	 $LN90@GetAnimati@2
  00081	80 f1 eb	 xor	 cl, -21			; ffffffebH
  00084	88 4d e6	 mov	 BYTE PTR _szEncEventType$[ebp+6], cl
  00087	8a 48 07	 mov	 cl, BYTE PTR [eax+7]
  0008a	84 c9		 test	 cl, cl
  0008c	74 7f		 je	 SHORT $LN89@GetAnimati@2
  0008e	80 f1 ea	 xor	 cl, -22			; ffffffeaH
  00091	88 4d e7	 mov	 BYTE PTR _szEncEventType$[ebp+7], cl
  00094	8a 48 08	 mov	 cl, BYTE PTR [eax+8]
  00097	84 c9		 test	 cl, cl
  00099	74 6d		 je	 SHORT $LN88@GetAnimati@2
  0009b	32 ca		 xor	 cl, dl
  0009d	88 4d e8	 mov	 BYTE PTR _szEncEventType$[ebp+8], cl
  000a0	8a 48 09	 mov	 cl, BYTE PTR [eax+9]
  000a3	84 c9		 test	 cl, cl
  000a5	74 5b		 je	 SHORT $LN87@GetAnimati@2
  000a7	80 f1 ec	 xor	 cl, -20			; ffffffecH
  000aa	80 78 0a 00	 cmp	 BYTE PTR [eax+10], 0
  000ae	88 4d e9	 mov	 BYTE PTR _szEncEventType$[ebp+9], cl
  000b1	0f 84 83 00 00
	00		 je	 $LN1@GetAnimati@2
  000b7	8a 48 0b	 mov	 cl, BYTE PTR [eax+11]
  000ba	84 c9		 test	 cl, cl
  000bc	74 3e		 je	 SHORT $LN85@GetAnimati@2
  000be	80 f1 ea	 xor	 cl, -22			; ffffffeaH
  000c1	88 4d eb	 mov	 BYTE PTR _szEncEventType$[ebp+11], cl
  000c4	8a 48 0c	 mov	 cl, BYTE PTR [eax+12]
  000c7	84 c9		 test	 cl, cl
  000c9	74 2c		 je	 SHORT $LN84@GetAnimati@2
  000cb	32 ca		 xor	 cl, dl
  000cd	88 4d ec	 mov	 BYTE PTR _szEncEventType$[ebp+12], cl
  000d0	8a 48 0d	 mov	 cl, BYTE PTR [eax+13]
  000d3	84 c9		 test	 cl, cl
  000d5	74 1a		 je	 SHORT $LN83@GetAnimati@2
  000d7	8a 40 0e	 mov	 al, BYTE PTR [eax+14]
  000da	80 f1 ec	 xor	 cl, -20			; ffffffecH
  000dd	88 4d ed	 mov	 BYTE PTR _szEncEventType$[ebp+13], cl
  000e0	84 c0		 test	 al, al
  000e2	74 07		 je	 SHORT $LN82@GetAnimati@2
  000e4	34 eb		 xor	 al, -21			; ffffffebH
  000e6	88 45 ee	 mov	 BYTE PTR _szEncEventType$[ebp+14], al
  000e9	eb 4f		 jmp	 SHORT $LN1@GetAnimati@2
$LN82@GetAnimati@2:
  000eb	c6 45 ee eb	 mov	 BYTE PTR _szEncEventType$[ebp+14], -21 ; ffffffebH
  000ef	eb 49		 jmp	 SHORT $LN1@GetAnimati@2
$LN83@GetAnimati@2:
  000f1	c6 45 ed ec	 mov	 BYTE PTR _szEncEventType$[ebp+13], -20 ; ffffffecH
  000f5	eb 43		 jmp	 SHORT $LN1@GetAnimati@2
$LN84@GetAnimati@2:
  000f7	88 55 ec	 mov	 BYTE PTR _szEncEventType$[ebp+12], dl
  000fa	eb 3e		 jmp	 SHORT $LN1@GetAnimati@2
$LN85@GetAnimati@2:
  000fc	c6 45 eb ea	 mov	 BYTE PTR _szEncEventType$[ebp+11], -22 ; ffffffeaH
  00100	eb 38		 jmp	 SHORT $LN1@GetAnimati@2
$LN87@GetAnimati@2:
  00102	c6 45 e9 ec	 mov	 BYTE PTR _szEncEventType$[ebp+9], -20 ; ffffffecH
  00106	eb 32		 jmp	 SHORT $LN1@GetAnimati@2
$LN88@GetAnimati@2:
  00108	88 55 e8	 mov	 BYTE PTR _szEncEventType$[ebp+8], dl
  0010b	eb 2d		 jmp	 SHORT $LN1@GetAnimati@2
$LN89@GetAnimati@2:
  0010d	c6 45 e7 ea	 mov	 BYTE PTR _szEncEventType$[ebp+7], -22 ; ffffffeaH
  00111	eb 27		 jmp	 SHORT $LN1@GetAnimati@2
$LN90@GetAnimati@2:
  00113	c6 45 e6 eb	 mov	 BYTE PTR _szEncEventType$[ebp+6], -21 ; ffffffebH
  00117	eb 21		 jmp	 SHORT $LN1@GetAnimati@2
$LN91@GetAnimati@2:
  00119	c6 45 e5 ec	 mov	 BYTE PTR _szEncEventType$[ebp+5], -20 ; ffffffecH
  0011d	eb 1b		 jmp	 SHORT $LN1@GetAnimati@2
$LN92@GetAnimati@2:
  0011f	88 55 e4	 mov	 BYTE PTR _szEncEventType$[ebp+4], dl
  00122	eb 16		 jmp	 SHORT $LN1@GetAnimati@2
$LN93@GetAnimati@2:
  00124	c6 45 e3 ea	 mov	 BYTE PTR _szEncEventType$[ebp+3], -22 ; ffffffeaH
  00128	eb 10		 jmp	 SHORT $LN1@GetAnimati@2
$LN94@GetAnimati@2:
  0012a	c6 45 e2 eb	 mov	 BYTE PTR _szEncEventType$[ebp+2], -21 ; ffffffebH
  0012e	eb 0a		 jmp	 SHORT $LN1@GetAnimati@2
$LN95@GetAnimati@2:
  00130	c6 45 e1 ec	 mov	 BYTE PTR _szEncEventType$[ebp+1], -20 ; ffffffecH
  00134	eb 04		 jmp	 SHORT $LN1@GetAnimati@2
$LN96@GetAnimati@2:
  00136	c6 45 e0 ed	 mov	 BYTE PTR _szEncEventType$[ebp], -19 ; ffffffedH
$LN1@GetAnimati@2:
  0013a	6a 02		 push	 2
  0013c	8d 45 e0	 lea	 eax, DWORD PTR _szEncEventType$[ebp]
  0013f	c6 45 ea 00	 mov	 BYTE PTR _szEncEventType$[ebp+10], 0
  00143	59		 pop	 ecx
$LL105@GetAnimati@2:
  00144	81 30 ed ec eb
	ea		 xor	 DWORD PTR [eax], -353637139 ; eaebecedH
  0014a	83 c0 04	 add	 eax, 4
  0014d	49		 dec	 ecx
  0014e	75 f4		 jne	 SHORT $LL105@GetAnimati@2
  00150	6a 08		 push	 8
  00152	58		 pop	 eax
$LL102@GetAnimati@2:
  00153	8b c8		 mov	 ecx, eax
  00155	81 e1 03 00 00
	80		 and	 ecx, -2147483645	; 80000003H
  0015b	79 05		 jns	 SHORT $LN113@GetAnimati@2
  0015d	49		 dec	 ecx
  0015e	83 c9 fc	 or	 ecx, -4			; fffffffcH
  00161	41		 inc	 ecx
$LN113@GetAnimati@2:
  00162	b2 ed		 mov	 dl, -19			; ffffffedH
  00164	2a d1		 sub	 dl, cl
  00166	30 54 05 e0	 xor	 BYTE PTR _szEncEventType$[ebp+eax], dl
  0016a	40		 inc	 eax
  0016b	83 f8 0a	 cmp	 eax, 10			; 0000000aH
  0016e	7c e3		 jl	 SHORT $LL102@GetAnimati@2

; 416  : 		return GetAnimationEventTime(id, szEncEventType);

  00170	8d 45 e0	 lea	 eax, DWORD PTR _szEncEventType$[ebp]
  00173	50		 push	 eax
  00174	8d 4d cc	 lea	 ecx, DWORD PTR $T615834[ebp]
  00177	ff 15 00 00 00
	00		 call	 DWORD PTR __imp_??0ioHashString@@QAE@PBD@Z
  0017d	83 65 fc 00	 and	 DWORD PTR __$EHRec$[ebp+8], 0
  00181	8d 45 cc	 lea	 eax, DWORD PTR $T615834[ebp]
  00184	50		 push	 eax
  00185	ff 75 08	 push	 DWORD PTR _id$[ebp]
  00188	8b ce		 mov	 ecx, esi
  0018a	ff 15 00 00 00
	00		 call	 DWORD PTR __imp_?GetAnimationEventTime@ioEntityGroup@@QAEMHABVioHashString@@@Z
  00190	d9 5d dc	 fstp	 DWORD PTR $T615833[ebp]
  00193	83 4d fc ff	 or	 DWORD PTR __$EHRec$[ebp+8], -1
  00197	8d 4d cc	 lea	 ecx, DWORD PTR $T615834[ebp]
  0019a	ff 15 00 00 00
	00		 call	 DWORD PTR __imp_??1ioHashString@@QAE@XZ
  001a0	d9 45 dc	 fld	 DWORD PTR $T615833[ebp]

; 417  : 	}

  001a3	e8 00 00 00 00	 call	 __EH_epilog3_GS
  001a8	c2 08 00	 ret	 8
_TEXT	ENDS
;	COMDAT text$x
text$x	SEGMENT
__unwindfunclet$??$GetAnimationEventTime_e@$0L@@ioEntityGroup@@QAEMHAAY0L@$$CBD@Z$0:
  00000	8d 4d cc	 lea	 ecx, DWORD PTR $T615834[ebp]
  00003	ff 25 00 00 00
	00		 jmp	 DWORD PTR __imp_??1ioHashString@@QAE@XZ
__ehhandler$??$GetAnimationEventTime_e@$0L@@ioEntityGroup@@QAEMHAAY0L@$$CBD@Z:
  00009	8b 54 24 08	 mov	 edx, DWORD PTR [esp+8]
  0000d	8d 42 0c	 lea	 eax, DWORD PTR [edx+12]
  00010	8b 4a c8	 mov	 ecx, DWORD PTR [edx-56]
  00013	33 c8		 xor	 ecx, eax
  00015	e8 00 00 00 00	 call	 @__security_check_cookie@4
  0001a	8b 4a fc	 mov	 ecx, DWORD PTR [edx-4]
  0001d	33 c8		 xor	 ecx, eax
  0001f	e8 00 00 00 00	 call	 @__security_check_cookie@4
  00024	b8 00 00 00 00	 mov	 eax, OFFSET __ehfuncinfo$??$GetAnimationEventTime_e@$0L@@ioEntityGroup@@QAEMHAAY0L@$$CBD@Z
  00029	e9 00 00 00 00	 jmp	 ___CxxFrameHandler3
text$x	ENDS
??$GetAnimationEventTime_e@$0L@@ioEntityGroup@@QAEMHAAY0L@$$CBD@Z ENDP ; ioEntityGroup::GetAnimationEventTime_e<11>
PUBLIC	??$GetAnimationEventTime_e@$0M@@ioEntityGroup@@QAEMHAAY0M@$$CBD@Z ; ioEntityGroup::GetAnimationEventTime_e<12>
;	COMDAT xdata$x
; File d:\lost saga for developer\youtube\tutorial\source\src\lsclient\stringprotect.h
xdata$x	SEGMENT
__unwindtable$??$GetAnimationEventTime_e@$0M@@ioEntityGroup@@QAEMHAAY0M@$$CBD@Z DD 0ffffffffH
	DD	FLAT:__unwindfunclet$??$GetAnimationEventTime_e@$0M@@ioEntityGroup@@QAEMHAAY0M@$$CBD@Z$0
__ehfuncinfo$??$GetAnimationEventTime_e@$0M@@ioEntityGroup@@QAEMHAAY0M@$$CBD@Z DD 019930522H
	DD	01H
	DD	FLAT:__unwindtable$??$GetAnimationEventTime_e@$0M@@ioEntityGroup@@QAEMHAAY0M@$$CBD@Z
	DD	2 DUP(00H)
	DD	2 DUP(00H)
	DD	00H
	DD	01H
; Function compile flags: /Ogsp
; File d:\lost saga for developer\youtube\tutorial\source\src\io3dengine\ioentitygroup.h
xdata$x	ENDS
;	COMDAT ??$GetAnimationEventTime_e@$0M@@ioEntityGroup@@QAEMHAAY0M@$$CBD@Z
_TEXT	SEGMENT
$T615865 = -52						; size = 16
$T615864 = -36						; size = 4
_szEncEventType$ = -32					; size = 12
__$EHRec$ = -12						; size = 12
_id$ = 8						; size = 4
_szEventType$ = 12					; size = 4
??$GetAnimationEventTime_e@$0M@@ioEntityGroup@@QAEMHAAY0M@$$CBD@Z PROC ; ioEntityGroup::GetAnimationEventTime_e<12>, COMDAT
; _this$ = ecx

; 414  : 	{

  00000	6a 28		 push	 40			; 00000028H
  00002	b8 00 00 00 00	 mov	 eax, __ehhandler$??$GetAnimationEventTime_e@$0M@@ioEntityGroup@@QAEMHAAY0M@$$CBD@Z
  00007	e8 00 00 00 00	 call	 __EH_prolog3_GS
  0000c	8b 45 0c	 mov	 eax, DWORD PTR _szEventType$[ebp]
  0000f	8b f1		 mov	 esi, ecx

; 415  : 		_ENCSTR(szEventType, szEncEventType);

  00011	8a 08		 mov	 cl, BYTE PTR [eax]
  00013	84 c9		 test	 cl, cl
  00015	0f 84 36 01 00
	00		 je	 $LN96@GetAnimati@3
  0001b	b2 ed		 mov	 dl, -19			; ffffffedH
  0001d	32 ca		 xor	 cl, dl
  0001f	88 4d e0	 mov	 BYTE PTR _szEncEventType$[ebp], cl
  00022	8a 48 01	 mov	 cl, BYTE PTR [eax+1]
  00025	84 c9		 test	 cl, cl
  00027	0f 84 1e 01 00
	00		 je	 $LN95@GetAnimati@3
  0002d	80 f1 ec	 xor	 cl, -20			; ffffffecH
  00030	88 4d e1	 mov	 BYTE PTR _szEncEventType$[ebp+1], cl
  00033	8a 48 02	 mov	 cl, BYTE PTR [eax+2]
  00036	84 c9		 test	 cl, cl
  00038	0f 84 07 01 00
	00		 je	 $LN94@GetAnimati@3
  0003e	80 f1 eb	 xor	 cl, -21			; ffffffebH
  00041	88 4d e2	 mov	 BYTE PTR _szEncEventType$[ebp+2], cl
  00044	8a 48 03	 mov	 cl, BYTE PTR [eax+3]
  00047	84 c9		 test	 cl, cl
  00049	0f 84 f0 00 00
	00		 je	 $LN93@GetAnimati@3
  0004f	80 f1 ea	 xor	 cl, -22			; ffffffeaH
  00052	88 4d e3	 mov	 BYTE PTR _szEncEventType$[ebp+3], cl
  00055	8a 48 04	 mov	 cl, BYTE PTR [eax+4]
  00058	84 c9		 test	 cl, cl
  0005a	0f 84 da 00 00
	00		 je	 $LN92@GetAnimati@3
  00060	32 ca		 xor	 cl, dl
  00062	88 4d e4	 mov	 BYTE PTR _szEncEventType$[ebp+4], cl
  00065	8a 48 05	 mov	 cl, BYTE PTR [eax+5]
  00068	84 c9		 test	 cl, cl
  0006a	0f 84 c4 00 00
	00		 je	 $LN91@GetAnimati@3
  00070	80 f1 ec	 xor	 cl, -20			; ffffffecH
  00073	88 4d e5	 mov	 BYTE PTR _szEncEventType$[ebp+5], cl
  00076	8a 48 06	 mov	 cl, BYTE PTR [eax+6]
  00079	84 c9		 test	 cl, cl
  0007b	0f 84 ad 00 00
	00		 je	 $LN90@GetAnimati@3
  00081	80 f1 eb	 xor	 cl, -21			; ffffffebH
  00084	88 4d e6	 mov	 BYTE PTR _szEncEventType$[ebp+6], cl
  00087	8a 48 07	 mov	 cl, BYTE PTR [eax+7]
  0008a	84 c9		 test	 cl, cl
  0008c	0f 84 96 00 00
	00		 je	 $LN89@GetAnimati@3
  00092	80 f1 ea	 xor	 cl, -22			; ffffffeaH
  00095	88 4d e7	 mov	 BYTE PTR _szEncEventType$[ebp+7], cl
  00098	8a 48 08	 mov	 cl, BYTE PTR [eax+8]
  0009b	84 c9		 test	 cl, cl
  0009d	0f 84 80 00 00
	00		 je	 $LN88@GetAnimati@3
  000a3	32 ca		 xor	 cl, dl
  000a5	88 4d e8	 mov	 BYTE PTR _szEncEventType$[ebp+8], cl
  000a8	8a 48 09	 mov	 cl, BYTE PTR [eax+9]
  000ab	84 c9		 test	 cl, cl
  000ad	74 6e		 je	 SHORT $LN87@GetAnimati@3
  000af	80 f1 ec	 xor	 cl, -20			; ffffffecH
  000b2	88 4d e9	 mov	 BYTE PTR _szEncEventType$[ebp+9], cl
  000b5	8a 48 0a	 mov	 cl, BYTE PTR [eax+10]
  000b8	84 c9		 test	 cl, cl
  000ba	74 5b		 je	 SHORT $LN86@GetAnimati@3
  000bc	80 f1 eb	 xor	 cl, -21			; ffffffebH
  000bf	80 78 0b 00	 cmp	 BYTE PTR [eax+11], 0
  000c3	88 4d ea	 mov	 BYTE PTR _szEncEventType$[ebp+10], cl
  000c6	0f 84 89 00 00
	00		 je	 $LN1@GetAnimati@3
  000cc	8a 48 0c	 mov	 cl, BYTE PTR [eax+12]
  000cf	84 c9		 test	 cl, cl
  000d1	74 3f		 je	 SHORT $LN84@GetAnimati@3
  000d3	32 ca		 xor	 cl, dl
  000d5	88 4d ec	 mov	 BYTE PTR _szEncEventType$[ebp+12], cl
  000d8	8a 48 0d	 mov	 cl, BYTE PTR [eax+13]
  000db	84 c9		 test	 cl, cl
  000dd	74 2d		 je	 SHORT $LN83@GetAnimati@3
  000df	80 f1 ec	 xor	 cl, -20			; ffffffecH
  000e2	88 4d ed	 mov	 BYTE PTR _szEncEventType$[ebp+13], cl
  000e5	8a 48 0e	 mov	 cl, BYTE PTR [eax+14]
  000e8	84 c9		 test	 cl, cl
  000ea	74 1a		 je	 SHORT $LN82@GetAnimati@3
  000ec	8a 40 0f	 mov	 al, BYTE PTR [eax+15]
  000ef	80 f1 eb	 xor	 cl, -21			; ffffffebH
  000f2	88 4d ee	 mov	 BYTE PTR _szEncEventType$[ebp+14], cl
  000f5	84 c0		 test	 al, al
  000f7	74 07		 je	 SHORT $LN81@GetAnimati@3
  000f9	34 ea		 xor	 al, -22			; ffffffeaH
  000fb	88 45 ef	 mov	 BYTE PTR _szEncEventType$[ebp+15], al
  000fe	eb 55		 jmp	 SHORT $LN1@GetAnimati@3
$LN81@GetAnimati@3:
  00100	c6 45 ef ea	 mov	 BYTE PTR _szEncEventType$[ebp+15], -22 ; ffffffeaH
  00104	eb 4f		 jmp	 SHORT $LN1@GetAnimati@3
$LN82@GetAnimati@3:
  00106	c6 45 ee eb	 mov	 BYTE PTR _szEncEventType$[ebp+14], -21 ; ffffffebH
  0010a	eb 49		 jmp	 SHORT $LN1@GetAnimati@3
$LN83@GetAnimati@3:
  0010c	c6 45 ed ec	 mov	 BYTE PTR _szEncEventType$[ebp+13], -20 ; ffffffecH
  00110	eb 43		 jmp	 SHORT $LN1@GetAnimati@3
$LN84@GetAnimati@3:
  00112	88 55 ec	 mov	 BYTE PTR _szEncEventType$[ebp+12], dl
  00115	eb 3e		 jmp	 SHORT $LN1@GetAnimati@3
$LN86@GetAnimati@3:
  00117	c6 45 ea eb	 mov	 BYTE PTR _szEncEventType$[ebp+10], -21 ; ffffffebH
  0011b	eb 38		 jmp	 SHORT $LN1@GetAnimati@3
$LN87@GetAnimati@3:
  0011d	c6 45 e9 ec	 mov	 BYTE PTR _szEncEventType$[ebp+9], -20 ; ffffffecH
  00121	eb 32		 jmp	 SHORT $LN1@GetAnimati@3
$LN88@GetAnimati@3:
  00123	88 55 e8	 mov	 BYTE PTR _szEncEventType$[ebp+8], dl
  00126	eb 2d		 jmp	 SHORT $LN1@GetAnimati@3
$LN89@GetAnimati@3:
  00128	c6 45 e7 ea	 mov	 BYTE PTR _szEncEventType$[ebp+7], -22 ; ffffffeaH
  0012c	eb 27		 jmp	 SHORT $LN1@GetAnimati@3
$LN90@GetAnimati@3:
  0012e	c6 45 e6 eb	 mov	 BYTE PTR _szEncEventType$[ebp+6], -21 ; ffffffebH
  00132	eb 21		 jmp	 SHORT $LN1@GetAnimati@3
$LN91@GetAnimati@3:
  00134	c6 45 e5 ec	 mov	 BYTE PTR _szEncEventType$[ebp+5], -20 ; ffffffecH
  00138	eb 1b		 jmp	 SHORT $LN1@GetAnimati@3
$LN92@GetAnimati@3:
  0013a	88 55 e4	 mov	 BYTE PTR _szEncEventType$[ebp+4], dl
  0013d	eb 16		 jmp	 SHORT $LN1@GetAnimati@3
$LN93@GetAnimati@3:
  0013f	c6 45 e3 ea	 mov	 BYTE PTR _szEncEventType$[ebp+3], -22 ; ffffffeaH
  00143	eb 10		 jmp	 SHORT $LN1@GetAnimati@3
$LN94@GetAnimati@3:
  00145	c6 45 e2 eb	 mov	 BYTE PTR _szEncEventType$[ebp+2], -21 ; ffffffebH
  00149	eb 0a		 jmp	 SHORT $LN1@GetAnimati@3
$LN95@GetAnimati@3:
  0014b	c6 45 e1 ec	 mov	 BYTE PTR _szEncEventType$[ebp+1], -20 ; ffffffecH
  0014f	eb 04		 jmp	 SHORT $LN1@GetAnimati@3
$LN96@GetAnimati@3:
  00151	c6 45 e0 ed	 mov	 BYTE PTR _szEncEventType$[ebp], -19 ; ffffffedH
$LN1@GetAnimati@3:
  00155	6a 02		 push	 2
  00157	8d 45 e0	 lea	 eax, DWORD PTR _szEncEventType$[ebp]
  0015a	c6 45 eb 00	 mov	 BYTE PTR _szEncEventType$[ebp+11], 0
  0015e	59		 pop	 ecx
$LL105@GetAnimati@3:
  0015f	81 30 ed ec eb
	ea		 xor	 DWORD PTR [eax], -353637139 ; eaebecedH
  00165	83 c0 04	 add	 eax, 4
  00168	49		 dec	 ecx
  00169	75 f4		 jne	 SHORT $LL105@GetAnimati@3
  0016b	6a 08		 push	 8
  0016d	58		 pop	 eax
$LL102@GetAnimati@3:
  0016e	8b c8		 mov	 ecx, eax
  00170	81 e1 03 00 00
	80		 and	 ecx, -2147483645	; 80000003H
  00176	79 05		 jns	 SHORT $LN113@GetAnimati@3
  00178	49		 dec	 ecx
  00179	83 c9 fc	 or	 ecx, -4			; fffffffcH
  0017c	41		 inc	 ecx
$LN113@GetAnimati@3:
  0017d	b2 ed		 mov	 dl, -19			; ffffffedH
  0017f	2a d1		 sub	 dl, cl
  00181	30 54 05 e0	 xor	 BYTE PTR _szEncEventType$[ebp+eax], dl
  00185	40		 inc	 eax
  00186	83 f8 0b	 cmp	 eax, 11			; 0000000bH
  00189	7c e3		 jl	 SHORT $LL102@GetAnimati@3

; 416  : 		return GetAnimationEventTime(id, szEncEventType);

  0018b	8d 45 e0	 lea	 eax, DWORD PTR _szEncEventType$[ebp]
  0018e	50		 push	 eax
  0018f	8d 4d cc	 lea	 ecx, DWORD PTR $T615865[ebp]
  00192	ff 15 00 00 00
	00		 call	 DWORD PTR __imp_??0ioHashString@@QAE@PBD@Z
  00198	83 65 fc 00	 and	 DWORD PTR __$EHRec$[ebp+8], 0
  0019c	8d 45 cc	 lea	 eax, DWORD PTR $T615865[ebp]
  0019f	50		 push	 eax
  001a0	ff 75 08	 push	 DWORD PTR _id$[ebp]
  001a3	8b ce		 mov	 ecx, esi
  001a5	ff 15 00 00 00
	00		 call	 DWORD PTR __imp_?GetAnimationEventTime@ioEntityGroup@@QAEMHABVioHashString@@@Z
  001ab	d9 5d dc	 fstp	 DWORD PTR $T615864[ebp]
  001ae	83 4d fc ff	 or	 DWORD PTR __$EHRec$[ebp+8], -1
  001b2	8d 4d cc	 lea	 ecx, DWORD PTR $T615865[ebp]
  001b5	ff 15 00 00 00
	00		 call	 DWORD PTR __imp_??1ioHashString@@QAE@XZ
  001bb	d9 45 dc	 fld	 DWORD PTR $T615864[ebp]

; 417  : 	}

  001be	e8 00 00 00 00	 call	 __EH_epilog3_GS
  001c3	c2 08 00	 ret	 8
_TEXT	ENDS
;	COMDAT text$x
text$x	SEGMENT
__unwindfunclet$??$GetAnimationEventTime_e@$0M@@ioEntityGroup@@QAEMHAAY0M@$$CBD@Z$0:
  00000	8d 4d cc	 lea	 ecx, DWORD PTR $T615865[ebp]
  00003	ff 25 00 00 00
	00		 jmp	 DWORD PTR __imp_??1ioHashString@@QAE@XZ
__ehhandler$??$GetAnimationEventTime_e@$0M@@ioEntityGroup@@QAEMHAAY0M@$$CBD@Z:
  00009	8b 54 24 08	 mov	 edx, DWORD PTR [esp+8]
  0000d	8d 42 0c	 lea	 eax, DWORD PTR [edx+12]
  00010	8b 4a c8	 mov	 ecx, DWORD PTR [edx-56]
  00013	33 c8		 xor	 ecx, eax
  00015	e8 00 00 00 00	 call	 @__security_check_cookie@4
  0001a	8b 4a fc	 mov	 ecx, DWORD PTR [edx-4]
  0001d	33 c8		 xor	 ecx, eax
  0001f	e8 00 00 00 00	 call	 @__security_check_cookie@4
  00024	b8 00 00 00 00	 mov	 eax, OFFSET __ehfuncinfo$??$GetAnimationEventTime_e@$0M@@ioEntityGroup@@QAEMHAAY0M@$$CBD@Z
  00029	e9 00 00 00 00	 jmp	 ___CxxFrameHandler3
text$x	ENDS
??$GetAnimationEventTime_e@$0M@@ioEntityGroup@@QAEMHAAY0M@$$CBD@Z ENDP ; ioEntityGroup::GetAnimationEventTime_e<12>
PUBLIC	?construct@?$allocator@UForceInfo@@@std@@QAEXPAUForceInfo@@ABU3@@Z ; std::allocator<ForceInfo>::construct
; Function compile flags: /Ogsp
; File c:\program files (x86)\microsoft visual studio 10.0\vc\include\xmemory
;	COMDAT ?construct@?$allocator@UForceInfo@@@std@@QAEXPAUForceInfo@@ABU3@@Z
_TEXT	SEGMENT
__Ptr$ = 8						; size = 4
__Val$ = 12						; size = 4
?construct@?$allocator@UForceInfo@@@std@@QAEXPAUForceInfo@@ABU3@@Z PROC ; std::allocator<ForceInfo>::construct, COMDAT
; _this$ = ecx

; 196  : 		{	// construct object at _Ptr with value _Val

  00000	55		 push	 ebp
  00001	8b ec		 mov	 ebp, esp
  00003	57		 push	 edi

; 197  : 		_Construct(_Ptr, _Val);

  00004	8b 7d 08	 mov	 edi, DWORD PTR __Ptr$[ebp]
  00007	85 ff		 test	 edi, edi
  00009	74 08		 je	 SHORT $LN5@construct@2
  0000b	56		 push	 esi
  0000c	8b 75 0c	 mov	 esi, DWORD PTR __Val$[ebp]
  0000f	a5		 movsd
  00010	a5		 movsd
  00011	a5		 movsd
  00012	5e		 pop	 esi
$LN5@construct@2:
  00013	5f		 pop	 edi

; 198  : 		}

  00014	5d		 pop	 ebp
  00015	c2 08 00	 ret	 8
?construct@?$allocator@UForceInfo@@@std@@QAEXPAUForceInfo@@ABU3@@Z ENDP ; std::allocator<ForceInfo>::construct
_TEXT	ENDS
PUBLIC	??$_Construct@UWeaponInfo@@ABU1@@std@@YAXPAUWeaponInfo@@ABU1@@Z ; std::_Construct<WeaponInfo,WeaponInfo const &>
EXTRN	__EH_epilog3:PROC
EXTRN	__EH_prolog3:PROC
;	COMDAT xdata$x
; File c:\program files (x86)\microsoft visual studio 10.0\vc\include\utility
xdata$x	SEGMENT
__unwindtable$??$_Construct@UWeaponInfo@@ABU1@@std@@YAXPAUWeaponInfo@@ABU1@@Z DD 0ffffffffH
	DD	FLAT:__unwindfunclet$??$_Construct@UWeaponInfo@@ABU1@@std@@YAXPAUWeaponInfo@@ABU1@@Z$0
__ehfuncinfo$??$_Construct@UWeaponInfo@@ABU1@@std@@YAXPAUWeaponInfo@@ABU1@@Z DD 019930522H
	DD	01H
	DD	FLAT:__unwindtable$??$_Construct@UWeaponInfo@@ABU1@@std@@YAXPAUWeaponInfo@@ABU1@@Z
	DD	2 DUP(00H)
	DD	2 DUP(00H)
	DD	00H
	DD	01H
; Function compile flags: /Ogsp
; File c:\program files (x86)\microsoft visual studio 10.0\vc\include\xmemory
xdata$x	ENDS
;	COMDAT ??$_Construct@UWeaponInfo@@ABU1@@std@@YAXPAUWeaponInfo@@ABU1@@Z
_TEXT	SEGMENT
$T615919 = -16						; size = 4
__$EHRec$ = -12						; size = 12
__Vptr$ = 8						; size = 4
__Ptr$ = 8						; size = 4
__Val$ = 12						; size = 4
??$_Construct@UWeaponInfo@@ABU1@@std@@YAXPAUWeaponInfo@@ABU1@@Z PROC ; std::_Construct<WeaponInfo,WeaponInfo const &>, COMDAT

; 46   : 	{	// construct object at _Ptr with value _Val

  00000	6a 04		 push	 4
  00002	b8 00 00 00 00	 mov	 eax, __ehhandler$??$_Construct@UWeaponInfo@@ABU1@@std@@YAXPAUWeaponInfo@@ABU1@@Z
  00007	e8 00 00 00 00	 call	 __EH_prolog3

; 47   : 	void _FARQ *_Vptr = _Ptr;

  0000c	8b 4d 08	 mov	 ecx, DWORD PTR __Ptr$[ebp]
  0000f	89 4d 08	 mov	 DWORD PTR __Vptr$[ebp], ecx

; 48   : 	::new (_Vptr) _Ty1(_STD forward<_Ty2>(_Val));

  00012	89 4d f0	 mov	 DWORD PTR $T615919[ebp], ecx
  00015	83 65 fc 00	 and	 DWORD PTR __$EHRec$[ebp+8], 0
  00019	85 c9		 test	 ecx, ecx
  0001b	74 08		 je	 SHORT $LN3@Construct@2
  0001d	ff 75 0c	 push	 DWORD PTR __Val$[ebp]
  00020	e8 00 00 00 00	 call	 ??0WeaponInfo@@QAE@ABU0@@Z
$LN3@Construct@2:

; 49   : 	}

  00025	e8 00 00 00 00	 call	 __EH_epilog3
  0002a	c3		 ret	 0
_TEXT	ENDS
;	COMDAT text$x
text$x	SEGMENT
__unwindfunclet$??$_Construct@UWeaponInfo@@ABU1@@std@@YAXPAUWeaponInfo@@ABU1@@Z$0:
  00000	ff 75 08	 push	 DWORD PTR __Vptr$[ebp]
  00003	ff 75 f0	 push	 DWORD PTR $T615919[ebp]
  00006	e8 00 00 00 00	 call	 ??3@YAXPAX0@Z		; operator delete
  0000b	59		 pop	 ecx
  0000c	59		 pop	 ecx
  0000d	c3		 ret	 0
__ehhandler$??$_Construct@UWeaponInfo@@ABU1@@std@@YAXPAUWeaponInfo@@ABU1@@Z:
  0000e	8b 54 24 08	 mov	 edx, DWORD PTR [esp+8]
  00012	8d 42 0c	 lea	 eax, DWORD PTR [edx+12]
  00015	8b 4a ec	 mov	 ecx, DWORD PTR [edx-20]
  00018	33 c8		 xor	 ecx, eax
  0001a	e8 00 00 00 00	 call	 @__security_check_cookie@4
  0001f	b8 00 00 00 00	 mov	 eax, OFFSET __ehfuncinfo$??$_Construct@UWeaponInfo@@ABU1@@std@@YAXPAUWeaponInfo@@ABU1@@Z
  00024	e9 00 00 00 00	 jmp	 ___CxxFrameHandler3
text$x	ENDS
??$_Construct@UWeaponInfo@@ABU1@@std@@YAXPAUWeaponInfo@@ABU1@@Z ENDP ; std::_Construct<WeaponInfo,WeaponInfo const &>
PUBLIC	??4?$CEncrypt@M@@QAEMM@Z			; CEncrypt<float>::operator=
; Function compile flags: /Ogsp
; File d:\lost saga for developer\youtube\tutorial\source\src\lsclient\encryptvalue.h
;	COMDAT ??4?$CEncrypt@M@@QAEMM@Z
_TEXT	SEGMENT
_value$ = 8						; size = 4
_inValue$ = 8						; size = 4
??4?$CEncrypt@M@@QAEMM@Z PROC				; CEncrypt<float>::operator=, COMDAT
; _this$ = ecx

; 1654 : 	{	

  00000	55		 push	 ebp
  00001	8b ec		 mov	 ebp, esp

; 1655 : 		type value = inValue;

  00003	d9 45 08	 fld	 DWORD PTR _inValue$[ebp]

; 1656 : 		EncryptValueToPool((char*)&value);

  00006	8d 45 08	 lea	 eax, DWORD PTR _value$[ebp]
  00009	50		 push	 eax
  0000a	d9 5d 08	 fstp	 DWORD PTR _value$[ebp]
  0000d	e8 00 00 00 00	 call	 ?EncryptValueToPool@?$CEncrypt@M@@AAEXPBD@Z ; CEncrypt<float>::EncryptValueToPool

; 1657 : #ifdef _NOTUSE
; 1658 : 		m_value = inValue;
; 1659 : 		Debug();
; 1660 : #endif
; 1661 : 		return value;

  00012	d9 45 08	 fld	 DWORD PTR _value$[ebp]

; 1662 : 	}

  00015	5d		 pop	 ebp
  00016	c2 04 00	 ret	 4
??4?$CEncrypt@M@@QAEMM@Z ENDP				; CEncrypt<float>::operator=
_TEXT	ENDS
PUBLIC	??B?$CEncrypt@K@@QBEKXZ				; CEncrypt<unsigned long>::operator unsigned long
; Function compile flags: /Ogsp
;	COMDAT ??B?$CEncrypt@K@@QBEKXZ
_TEXT	SEGMENT
_value$ = -4						; size = 4
??B?$CEncrypt@K@@QBEKXZ PROC				; CEncrypt<unsigned long>::operator unsigned long, COMDAT
; _this$ = ecx

; 145  : 	{

  00000	55		 push	 ebp
  00001	8b ec		 mov	 ebp, esp
  00003	51		 push	 ecx

; 146  : 		//UJ 130829, const    --start
; 147  : 		type value;
; 148  : 		CEncrypt<type>* pThis = const_cast<CEncrypt<type>*>(this);
; 149  : 		pThis->DecryptValueToPool(&value);

  00004	8d 45 fc	 lea	 eax, DWORD PTR _value$[ebp]
  00007	50		 push	 eax
  00008	e8 00 00 00 00	 call	 ?DecryptValueToPool@?$CEncrypt@K@@QAEXPAK@Z ; CEncrypt<unsigned long>::DecryptValueToPool

; 150  : 		//// const DecryptValueToPool     .
; 151  :  		//type value;
; 152  : 		//char szTempMem[MAX_ENCRYPT];
; 153  : 		//m_RC5.DecryptByte( m_MemPool, szTempMem, max(m_ValueSize, DEFAULT_ENCRYPT) );
; 154  : 		//memcpy( &value, szTempMem, m_ValueSize );
; 155  : 		//UJ --end
; 156  : 
; 157  : #ifdef _NOTUSE
; 158  : 		Debug();
; 159  : #endif
; 160  : 		return value;

  0000d	8b 45 fc	 mov	 eax, DWORD PTR _value$[ebp]

; 161  : 	}

  00010	c9		 leave
  00011	c3		 ret	 0
??B?$CEncrypt@K@@QBEKXZ ENDP				; CEncrypt<unsigned long>::operator unsigned long
_TEXT	ENDS
PUBLIC	??0?$CEncrypt@_N@@QAE@XZ			; CEncrypt<bool>::CEncrypt<bool>
EXTRN	??0ccddaabb@@QAE@XZ:PROC			; ccddaabb::ccddaabb
;	COMDAT xdata$x
xdata$x	SEGMENT
__unwindtable$??0?$CEncrypt@_N@@QAE@XZ DD 0ffffffffH
	DD	FLAT:__unwindfunclet$??0?$CEncrypt@_N@@QAE@XZ$0
__ehfuncinfo$??0?$CEncrypt@_N@@QAE@XZ DD 019930522H
	DD	01H
	DD	FLAT:__unwindtable$??0?$CEncrypt@_N@@QAE@XZ
	DD	2 DUP(00H)
	DD	2 DUP(00H)
	DD	00H
	DD	01H
; Function compile flags: /Ogsp
xdata$x	ENDS
;	COMDAT ??0?$CEncrypt@_N@@QAE@XZ
_TEXT	SEGMENT
_this$ = -16						; size = 4
__$EHRec$ = -12						; size = 12
??0?$CEncrypt@_N@@QAE@XZ PROC				; CEncrypt<bool>::CEncrypt<bool>, COMDAT
; _this$ = ecx

; 109  : 	CEncrypt()

  00000	6a 04		 push	 4
  00002	b8 00 00 00 00	 mov	 eax, __ehhandler$??0?$CEncrypt@_N@@QAE@XZ
  00007	e8 00 00 00 00	 call	 __EH_prolog3
  0000c	8b f1		 mov	 esi, ecx
  0000e	89 75 f0	 mov	 DWORD PTR _this$[ebp], esi
  00011	8d 4e 0c	 lea	 ecx, DWORD PTR [esi+12]
  00014	c7 06 00 00 00
	00		 mov	 DWORD PTR [esi], OFFSET ??_7?$CEncrypt@_N@@6B@
  0001a	e8 00 00 00 00	 call	 ??0ccddaabb@@QAE@XZ	; ccddaabb::ccddaabb
  0001f	83 65 fc 00	 and	 DWORD PTR __$EHRec$[ebp+8], 0

; 110  : 	{
; 111  : 		Init();

  00023	8b ce		 mov	 ecx, esi
  00025	e8 00 00 00 00	 call	 ?Init@?$CEncrypt@_N@@AAEXXZ ; CEncrypt<bool>::Init

; 112  : 	}

  0002a	8b c6		 mov	 eax, esi
  0002c	e8 00 00 00 00	 call	 __EH_epilog3
  00031	c3		 ret	 0
_TEXT	ENDS
;	COMDAT text$x
text$x	SEGMENT
__unwindfunclet$??0?$CEncrypt@_N@@QAE@XZ$0:
  00000	8b 4d f0	 mov	 ecx, DWORD PTR _this$[ebp]
  00003	83 c1 0c	 add	 ecx, 12			; 0000000cH
  00006	e9 00 00 00 00	 jmp	 ??1ccddaabb@@UAE@XZ	; ccddaabb::~ccddaabb
__ehhandler$??0?$CEncrypt@_N@@QAE@XZ:
  0000b	8b 54 24 08	 mov	 edx, DWORD PTR [esp+8]
  0000f	8d 42 0c	 lea	 eax, DWORD PTR [edx+12]
  00012	8b 4a ec	 mov	 ecx, DWORD PTR [edx-20]
  00015	33 c8		 xor	 ecx, eax
  00017	e8 00 00 00 00	 call	 @__security_check_cookie@4
  0001c	b8 00 00 00 00	 mov	 eax, OFFSET __ehfuncinfo$??0?$CEncrypt@_N@@QAE@XZ
  00021	e9 00 00 00 00	 jmp	 ___CxxFrameHandler3
text$x	ENDS
??0?$CEncrypt@_N@@QAE@XZ ENDP				; CEncrypt<bool>::CEncrypt<bool>
PUBLIC	??B?$CEncrypt@_N@@QAE_NXZ			; CEncrypt<bool>::operator bool
; Function compile flags: /Ogsp
;	COMDAT ??B?$CEncrypt@_N@@QAE_NXZ
_TEXT	SEGMENT
_value$ = -1						; size = 1
??B?$CEncrypt@_N@@QAE_NXZ PROC				; CEncrypt<bool>::operator bool, COMDAT
; _this$ = ecx

; 134  : 	{

  00000	55		 push	 ebp
  00001	8b ec		 mov	 ebp, esp
  00003	51		 push	 ecx

; 135  : 		type value;
; 136  : 		DecryptValueToPool(&value);

  00004	8d 45 ff	 lea	 eax, DWORD PTR _value$[ebp]
  00007	50		 push	 eax
  00008	e8 00 00 00 00	 call	 ?DecryptValueToPool@?$CEncrypt@_N@@QAEXPA_N@Z ; CEncrypt<bool>::DecryptValueToPool

; 137  : 
; 138  : #ifdef _NOTUSE
; 139  : 		Debug();
; 140  : #endif
; 141  : 		return value;

  0000d	8a 45 ff	 mov	 al, BYTE PTR _value$[ebp]

; 142  : 	}

  00010	c9		 leave
  00011	c3		 ret	 0
??B?$CEncrypt@_N@@QAE_NXZ ENDP				; CEncrypt<bool>::operator bool
_TEXT	ENDS
PUBLIC	??B?$CEncrypt@_N@@QBE_NXZ			; CEncrypt<bool>::operator bool
; Function compile flags: /Ogsp
;	COMDAT ??B?$CEncrypt@_N@@QBE_NXZ
_TEXT	SEGMENT
_value$ = -1						; size = 1
??B?$CEncrypt@_N@@QBE_NXZ PROC				; CEncrypt<bool>::operator bool, COMDAT
; _this$ = ecx

; 145  : 	{

  00000	55		 push	 ebp
  00001	8b ec		 mov	 ebp, esp
  00003	51		 push	 ecx

; 146  : 		//UJ 130829, const    --start
; 147  : 		type value;
; 148  : 		CEncrypt<type>* pThis = const_cast<CEncrypt<type>*>(this);
; 149  : 		pThis->DecryptValueToPool(&value);

  00004	8d 45 ff	 lea	 eax, DWORD PTR _value$[ebp]
  00007	50		 push	 eax
  00008	e8 00 00 00 00	 call	 ?DecryptValueToPool@?$CEncrypt@_N@@QAEXPA_N@Z ; CEncrypt<bool>::DecryptValueToPool

; 150  : 		//// const DecryptValueToPool     .
; 151  :  		//type value;
; 152  : 		//char szTempMem[MAX_ENCRYPT];
; 153  : 		//m_RC5.DecryptByte( m_MemPool, szTempMem, max(m_ValueSize, DEFAULT_ENCRYPT) );
; 154  : 		//memcpy( &value, szTempMem, m_ValueSize );
; 155  : 		//UJ --end
; 156  : 
; 157  : #ifdef _NOTUSE
; 158  : 		Debug();
; 159  : #endif
; 160  : 		return value;

  0000d	8a 45 ff	 mov	 al, BYTE PTR _value$[ebp]

; 161  : 	}

  00010	c9		 leave
  00011	c3		 ret	 0
??B?$CEncrypt@_N@@QBE_NXZ ENDP				; CEncrypt<bool>::operator bool
_TEXT	ENDS
PUBLIC	??4?$CEncrypt@_N@@QAE_N_N@Z			; CEncrypt<bool>::operator=
; Function compile flags: /Ogsp
;	COMDAT ??4?$CEncrypt@_N@@QAE_N_N@Z
_TEXT	SEGMENT
_inValue$ = 8						; size = 1
_value$ = 11						; size = 1
??4?$CEncrypt@_N@@QAE_N_N@Z PROC			; CEncrypt<bool>::operator=, COMDAT
; _this$ = ecx

; 225  : 	{

  00000	55		 push	 ebp
  00001	8b ec		 mov	 ebp, esp

; 226  : 		type value = inValue;

  00003	8a 45 08	 mov	 al, BYTE PTR _inValue$[ebp]
  00006	88 45 0b	 mov	 BYTE PTR _value$[ebp], al

; 227  : 		EncryptValueToPool((char*)&value);

  00009	8d 45 0b	 lea	 eax, DWORD PTR _value$[ebp]
  0000c	50		 push	 eax
  0000d	e8 00 00 00 00	 call	 ?EncryptValueToPool@?$CEncrypt@_N@@AAEXPBD@Z ; CEncrypt<bool>::EncryptValueToPool

; 228  : #ifdef _NOTUSE
; 229  : 		m_value = inValue;
; 230  : 		Debug();
; 231  : #endif
; 232  : 		return value;

  00012	8a 45 0b	 mov	 al, BYTE PTR _value$[ebp]

; 233  : 	}

  00015	5d		 pop	 ebp
  00016	c2 04 00	 ret	 4
??4?$CEncrypt@_N@@QAE_N_N@Z ENDP			; CEncrypt<bool>::operator=
_TEXT	ENDS
PUBLIC	??0?$CEncrypt@H@@QAE@XZ				; CEncrypt<int>::CEncrypt<int>
;	COMDAT xdata$x
xdata$x	SEGMENT
__unwindtable$??0?$CEncrypt@H@@QAE@XZ DD 0ffffffffH
	DD	FLAT:__unwindfunclet$??0?$CEncrypt@H@@QAE@XZ$0
__ehfuncinfo$??0?$CEncrypt@H@@QAE@XZ DD 019930522H
	DD	01H
	DD	FLAT:__unwindtable$??0?$CEncrypt@H@@QAE@XZ
	DD	2 DUP(00H)
	DD	2 DUP(00H)
	DD	00H
	DD	01H
; Function compile flags: /Ogsp
xdata$x	ENDS
;	COMDAT ??0?$CEncrypt@H@@QAE@XZ
_TEXT	SEGMENT
_this$ = -16						; size = 4
__$EHRec$ = -12						; size = 12
??0?$CEncrypt@H@@QAE@XZ PROC				; CEncrypt<int>::CEncrypt<int>, COMDAT
; _this$ = ecx

; 109  : 	CEncrypt()

  00000	6a 04		 push	 4
  00002	b8 00 00 00 00	 mov	 eax, __ehhandler$??0?$CEncrypt@H@@QAE@XZ
  00007	e8 00 00 00 00	 call	 __EH_prolog3
  0000c	8b f1		 mov	 esi, ecx
  0000e	89 75 f0	 mov	 DWORD PTR _this$[ebp], esi
  00011	8d 4e 0c	 lea	 ecx, DWORD PTR [esi+12]
  00014	c7 06 00 00 00
	00		 mov	 DWORD PTR [esi], OFFSET ??_7?$CEncrypt@H@@6B@
  0001a	e8 00 00 00 00	 call	 ??0ccddaabb@@QAE@XZ	; ccddaabb::ccddaabb
  0001f	83 65 fc 00	 and	 DWORD PTR __$EHRec$[ebp+8], 0

; 110  : 	{
; 111  : 		Init();

  00023	8b ce		 mov	 ecx, esi
  00025	e8 00 00 00 00	 call	 ?Init@?$CEncrypt@H@@AAEXXZ ; CEncrypt<int>::Init

; 112  : 	}

  0002a	8b c6		 mov	 eax, esi
  0002c	e8 00 00 00 00	 call	 __EH_epilog3
  00031	c3		 ret	 0
_TEXT	ENDS
;	COMDAT text$x
text$x	SEGMENT
__unwindfunclet$??0?$CEncrypt@H@@QAE@XZ$0:
  00000	8b 4d f0	 mov	 ecx, DWORD PTR _this$[ebp]
  00003	83 c1 0c	 add	 ecx, 12			; 0000000cH
  00006	e9 00 00 00 00	 jmp	 ??1ccddaabb@@UAE@XZ	; ccddaabb::~ccddaabb
__ehhandler$??0?$CEncrypt@H@@QAE@XZ:
  0000b	8b 54 24 08	 mov	 edx, DWORD PTR [esp+8]
  0000f	8d 42 0c	 lea	 eax, DWORD PTR [edx+12]
  00012	8b 4a ec	 mov	 ecx, DWORD PTR [edx-20]
  00015	33 c8		 xor	 ecx, eax
  00017	e8 00 00 00 00	 call	 @__security_check_cookie@4
  0001c	b8 00 00 00 00	 mov	 eax, OFFSET __ehfuncinfo$??0?$CEncrypt@H@@QAE@XZ
  00021	e9 00 00 00 00	 jmp	 ___CxxFrameHandler3
text$x	ENDS
??0?$CEncrypt@H@@QAE@XZ ENDP				; CEncrypt<int>::CEncrypt<int>
PUBLIC	??B?$CEncrypt@H@@QAEHXZ				; CEncrypt<int>::operator int
; Function compile flags: /Ogsp
;	COMDAT ??B?$CEncrypt@H@@QAEHXZ
_TEXT	SEGMENT
_value$ = -4						; size = 4
??B?$CEncrypt@H@@QAEHXZ PROC				; CEncrypt<int>::operator int, COMDAT
; _this$ = ecx

; 134  : 	{

  00000	55		 push	 ebp
  00001	8b ec		 mov	 ebp, esp
  00003	51		 push	 ecx

; 135  : 		type value;
; 136  : 		DecryptValueToPool(&value);

  00004	8d 45 fc	 lea	 eax, DWORD PTR _value$[ebp]
  00007	50		 push	 eax
  00008	e8 00 00 00 00	 call	 ?DecryptValueToPool@?$CEncrypt@H@@QAEXPAH@Z ; CEncrypt<int>::DecryptValueToPool

; 137  : 
; 138  : #ifdef _NOTUSE
; 139  : 		Debug();
; 140  : #endif
; 141  : 		return value;

  0000d	8b 45 fc	 mov	 eax, DWORD PTR _value$[ebp]

; 142  : 	}

  00010	c9		 leave
  00011	c3		 ret	 0
??B?$CEncrypt@H@@QAEHXZ ENDP				; CEncrypt<int>::operator int
_TEXT	ENDS
PUBLIC	??B?$CEncrypt@H@@QBEHXZ				; CEncrypt<int>::operator int
; Function compile flags: /Ogsp
;	COMDAT ??B?$CEncrypt@H@@QBEHXZ
_TEXT	SEGMENT
_value$ = -4						; size = 4
??B?$CEncrypt@H@@QBEHXZ PROC				; CEncrypt<int>::operator int, COMDAT
; _this$ = ecx

; 145  : 	{

  00000	55		 push	 ebp
  00001	8b ec		 mov	 ebp, esp
  00003	51		 push	 ecx

; 146  : 		//UJ 130829, const    --start
; 147  : 		type value;
; 148  : 		CEncrypt<type>* pThis = const_cast<CEncrypt<type>*>(this);
; 149  : 		pThis->DecryptValueToPool(&value);

  00004	8d 45 fc	 lea	 eax, DWORD PTR _value$[ebp]
  00007	50		 push	 eax
  00008	e8 00 00 00 00	 call	 ?DecryptValueToPool@?$CEncrypt@H@@QAEXPAH@Z ; CEncrypt<int>::DecryptValueToPool

; 150  : 		//// const DecryptValueToPool     .
; 151  :  		//type value;
; 152  : 		//char szTempMem[MAX_ENCRYPT];
; 153  : 		//m_RC5.DecryptByte( m_MemPool, szTempMem, max(m_ValueSize, DEFAULT_ENCRYPT) );
; 154  : 		//memcpy( &value, szTempMem, m_ValueSize );
; 155  : 		//UJ --end
; 156  : 
; 157  : #ifdef _NOTUSE
; 158  : 		Debug();
; 159  : #endif
; 160  : 		return value;

  0000d	8b 45 fc	 mov	 eax, DWORD PTR _value$[ebp]

; 161  : 	}

  00010	c9		 leave
  00011	c3		 ret	 0
??B?$CEncrypt@H@@QBEHXZ ENDP				; CEncrypt<int>::operator int
_TEXT	ENDS
PUBLIC	??E?$CEncrypt@H@@QAEHH@Z			; CEncrypt<int>::operator++
; Function compile flags: /Ogsp
;	COMDAT ??E?$CEncrypt@H@@QAEHH@Z
_TEXT	SEGMENT
_value$ = -4						; size = 4
___formal$ = 8						; size = 4
??E?$CEncrypt@H@@QAEHH@Z PROC				; CEncrypt<int>::operator++, COMDAT
; _this$ = ecx

; 190  : 	{

  00000	55		 push	 ebp
  00001	8b ec		 mov	 ebp, esp
  00003	51		 push	 ecx
  00004	56		 push	 esi

; 191  : 		type value;
; 192  : 		DecryptValueToPool(&value);

  00005	8d 45 fc	 lea	 eax, DWORD PTR _value$[ebp]
  00008	50		 push	 eax
  00009	8b f1		 mov	 esi, ecx
  0000b	e8 00 00 00 00	 call	 ?DecryptValueToPool@?$CEncrypt@H@@QAEXPAH@Z ; CEncrypt<int>::DecryptValueToPool

; 193  : 		++value;

  00010	ff 45 fc	 inc	 DWORD PTR _value$[ebp]

; 194  : 		EncryptValueToPool((char*)&value);

  00013	8d 45 fc	 lea	 eax, DWORD PTR _value$[ebp]
  00016	50		 push	 eax
  00017	8b ce		 mov	 ecx, esi
  00019	e8 00 00 00 00	 call	 ?EncryptValueToPool@?$CEncrypt@H@@AAEXPBD@Z ; CEncrypt<int>::EncryptValueToPool

; 195  : #ifdef _NOTUSE
; 196  : 		++m_value;
; 197  : 		Debug();
; 198  : #endif
; 199  : 		return value;

  0001e	8b 45 fc	 mov	 eax, DWORD PTR _value$[ebp]
  00021	5e		 pop	 esi

; 200  : 	}	

  00022	c9		 leave
  00023	c2 04 00	 ret	 4
??E?$CEncrypt@H@@QAEHH@Z ENDP				; CEncrypt<int>::operator++
_TEXT	ENDS
PUBLIC	??4?$CEncrypt@H@@QAEHH@Z			; CEncrypt<int>::operator=
; Function compile flags: /Ogsp
;	COMDAT ??4?$CEncrypt@H@@QAEHH@Z
_TEXT	SEGMENT
_value$ = 8						; size = 4
_inValue$ = 8						; size = 4
??4?$CEncrypt@H@@QAEHH@Z PROC				; CEncrypt<int>::operator=, COMDAT
; _this$ = ecx

; 843  : 	{

  00000	55		 push	 ebp
  00001	8b ec		 mov	 ebp, esp

; 844  : 		type value = inValue;

  00003	8b 45 08	 mov	 eax, DWORD PTR _inValue$[ebp]
  00006	89 45 08	 mov	 DWORD PTR _value$[ebp], eax

; 845  : 		EncryptValueToPool((char*)&value);

  00009	8d 45 08	 lea	 eax, DWORD PTR _value$[ebp]
  0000c	50		 push	 eax
  0000d	e8 00 00 00 00	 call	 ?EncryptValueToPool@?$CEncrypt@H@@AAEXPBD@Z ; CEncrypt<int>::EncryptValueToPool

; 846  : #ifdef _NOTUSE
; 847  : 		m_value = inValue;
; 848  : 		Debug();
; 849  : #endif
; 850  : 		return value;

  00012	8b 45 08	 mov	 eax, DWORD PTR _value$[ebp]

; 851  : 	}

  00015	5d		 pop	 ebp
  00016	c2 04 00	 ret	 4
??4?$CEncrypt@H@@QAEHH@Z ENDP				; CEncrypt<int>::operator=
_TEXT	ENDS
PUBLIC	??0?$_Vector_val@UWeaponInfo@@V?$allocator@UWeaponInfo@@@std@@@std@@QAE@V?$allocator@UWeaponInfo@@@1@@Z ; std::_Vector_val<WeaponInfo,std::allocator<WeaponInfo> >::_Vector_val<WeaponInfo,std::allocator<WeaponInfo> >
; Function compile flags: /Ogsp
; File c:\program files (x86)\microsoft visual studio 10.0\vc\include\vector
;	COMDAT ??0?$_Vector_val@UWeaponInfo@@V?$allocator@UWeaponInfo@@@std@@@std@@QAE@V?$allocator@UWeaponInfo@@@1@@Z
_TEXT	SEGMENT
__Al$ = 8						; size = 1
??0?$_Vector_val@UWeaponInfo@@V?$allocator@UWeaponInfo@@@std@@@std@@QAE@V?$allocator@UWeaponInfo@@@1@@Z PROC ; std::_Vector_val<WeaponInfo,std::allocator<WeaponInfo> >::_Vector_val<WeaponInfo,std::allocator<WeaponInfo> >, COMDAT
; _this$ = ecx

; 426  : 		{	// construct allocator from _Al

  00000	8b c1		 mov	 eax, ecx

; 427  : 		_Myfirst = 0;

  00002	33 c9		 xor	 ecx, ecx
  00004	89 08		 mov	 DWORD PTR [eax], ecx

; 428  : 		_Mylast = 0;

  00006	89 48 04	 mov	 DWORD PTR [eax+4], ecx

; 429  : 		_Myend = 0;

  00009	89 48 08	 mov	 DWORD PTR [eax+8], ecx

; 430  : 		}

  0000c	c2 04 00	 ret	 4
??0?$_Vector_val@UWeaponInfo@@V?$allocator@UWeaponInfo@@@std@@@std@@QAE@V?$allocator@UWeaponInfo@@@1@@Z ENDP ; std::_Vector_val<WeaponInfo,std::allocator<WeaponInfo> >::_Vector_val<WeaponInfo,std::allocator<WeaponInfo> >
_TEXT	ENDS
PUBLIC	??0?$_Vector_val@UForceInfo@@V?$allocator@UForceInfo@@@std@@@std@@QAE@V?$allocator@UForceInfo@@@1@@Z ; std::_Vector_val<ForceInfo,std::allocator<ForceInfo> >::_Vector_val<ForceInfo,std::allocator<ForceInfo> >
; Function compile flags: /Ogsp
;	COMDAT ??0?$_Vector_val@UForceInfo@@V?$allocator@UForceInfo@@@std@@@std@@QAE@V?$allocator@UForceInfo@@@1@@Z
_TEXT	SEGMENT
__Al$ = 8						; size = 1
??0?$_Vector_val@UForceInfo@@V?$allocator@UForceInfo@@@std@@@std@@QAE@V?$allocator@UForceInfo@@@1@@Z PROC ; std::_Vector_val<ForceInfo,std::allocator<ForceInfo> >::_Vector_val<ForceInfo,std::allocator<ForceInfo> >, COMDAT
; _this$ = ecx

; 426  : 		{	// construct allocator from _Al

  00000	8b c1		 mov	 eax, ecx

; 427  : 		_Myfirst = 0;

  00002	33 c9		 xor	 ecx, ecx
  00004	89 08		 mov	 DWORD PTR [eax], ecx

; 428  : 		_Mylast = 0;

  00006	89 48 04	 mov	 DWORD PTR [eax+4], ecx

; 429  : 		_Myend = 0;

  00009	89 48 08	 mov	 DWORD PTR [eax+8], ecx

; 430  : 		}

  0000c	c2 04 00	 ret	 4
??0?$_Vector_val@UForceInfo@@V?$allocator@UForceInfo@@@std@@@std@@QAE@V?$allocator@UForceInfo@@@1@@Z ENDP ; std::_Vector_val<ForceInfo,std::allocator<ForceInfo> >::_Vector_val<ForceInfo,std::allocator<ForceInfo> >
_TEXT	ENDS
PUBLIC	??0?$_Vector_val@UAttackAttribute@@V?$allocator@UAttackAttribute@@@std@@@std@@QAE@V?$allocator@UAttackAttribute@@@1@@Z ; std::_Vector_val<AttackAttribute,std::allocator<AttackAttribute> >::_Vector_val<AttackAttribute,std::allocator<AttackAttribute> >
; Function compile flags: /Ogsp
;	COMDAT ??0?$_Vector_val@UAttackAttribute@@V?$allocator@UAttackAttribute@@@std@@@std@@QAE@V?$allocator@UAttackAttribute@@@1@@Z
_TEXT	SEGMENT
__Al$ = 8						; size = 1
??0?$_Vector_val@UAttackAttribute@@V?$allocator@UAttackAttribute@@@std@@@std@@QAE@V?$allocator@UAttackAttribute@@@1@@Z PROC ; std::_Vector_val<AttackAttribute,std::allocator<AttackAttribute> >::_Vector_val<AttackAttribute,std::allocator<AttackAttribute> >, COMDAT
; _this$ = ecx

; 426  : 		{	// construct allocator from _Al

  00000	8b c1		 mov	 eax, ecx

; 427  : 		_Myfirst = 0;

  00002	33 c9		 xor	 ecx, ecx
  00004	89 08		 mov	 DWORD PTR [eax], ecx

; 428  : 		_Mylast = 0;

  00006	89 48 04	 mov	 DWORD PTR [eax+4], ecx

; 429  : 		_Myend = 0;

  00009	89 48 08	 mov	 DWORD PTR [eax+8], ecx

; 430  : 		}

  0000c	c2 04 00	 ret	 4
??0?$_Vector_val@UAttackAttribute@@V?$allocator@UAttackAttribute@@@std@@@std@@QAE@V?$allocator@UAttackAttribute@@@1@@Z ENDP ; std::_Vector_val<AttackAttribute,std::allocator<AttackAttribute> >::_Vector_val<AttackAttribute,std::allocator<AttackAttribute> >
_TEXT	ENDS
PUBLIC	??0?$_Vector_iterator@V?$_Vector_val@UAttackAttribute@@V?$allocator@UAttackAttribute@@@std@@@std@@@std@@QAE@PAUAttackAttribute@@PBU_Container_base0@1@@Z ; std::_Vector_iterator<std::_Vector_val<AttackAttribute,std::allocator<AttackAttribute> > >::_Vector_iterator<std::_Vector_val<AttackAttribute,std::allocator<AttackAttribute> > >
; Function compile flags: /Ogsp
;	COMDAT ??0?$_Vector_iterator@V?$_Vector_val@UAttackAttribute@@V?$allocator@UAttackAttribute@@@std@@@std@@@std@@QAE@PAUAttackAttribute@@PBU_Container_base0@1@@Z
_TEXT	SEGMENT
__Parg$ = 8						; size = 4
__Pvector$ = 12						; size = 4
??0?$_Vector_iterator@V?$_Vector_val@UAttackAttribute@@V?$allocator@UAttackAttribute@@@std@@@std@@@std@@QAE@PAUAttackAttribute@@PBU_Container_base0@1@@Z PROC ; std::_Vector_iterator<std::_Vector_val<AttackAttribute,std::allocator<AttackAttribute> > >::_Vector_iterator<std::_Vector_val<AttackAttribute,std::allocator<AttackAttribute> > >, COMDAT
; _this$ = ecx

; 304  : 		{	// construct with pointer _Parg

  00000	55		 push	 ebp
  00001	8b ec		 mov	 ebp, esp
  00003	8b c1		 mov	 eax, ecx
  00005	8b 4d 08	 mov	 ecx, DWORD PTR __Parg$[ebp]
  00008	89 08		 mov	 DWORD PTR [eax], ecx

; 305  : 		}

  0000a	5d		 pop	 ebp
  0000b	c2 08 00	 ret	 8
??0?$_Vector_iterator@V?$_Vector_val@UAttackAttribute@@V?$allocator@UAttackAttribute@@@std@@@std@@@std@@QAE@PAUAttackAttribute@@PBU_Container_base0@1@@Z ENDP ; std::_Vector_iterator<std::_Vector_val<AttackAttribute,std::allocator<AttackAttribute> > >::_Vector_iterator<std::_Vector_val<AttackAttribute,std::allocator<AttackAttribute> > >
_TEXT	ENDS
PUBLIC	??8?$_Vector_const_iterator@V?$_Vector_val@UAttackAttribute@@V?$allocator@UAttackAttribute@@@std@@@std@@@std@@QBE_NABV01@@Z ; std::_Vector_const_iterator<std::_Vector_val<AttackAttribute,std::allocator<AttackAttribute> > >::operator==
; Function compile flags: /Ogsp
;	COMDAT ??8?$_Vector_const_iterator@V?$_Vector_val@UAttackAttribute@@V?$allocator@UAttackAttribute@@@std@@@std@@@std@@QBE_NABV01@@Z
_TEXT	SEGMENT
__Right$ = 8						; size = 4
??8?$_Vector_const_iterator@V?$_Vector_val@UAttackAttribute@@V?$allocator@UAttackAttribute@@@std@@@std@@@std@@QBE_NABV01@@Z PROC ; std::_Vector_const_iterator<std::_Vector_val<AttackAttribute,std::allocator<AttackAttribute> > >::operator==, COMDAT
; _this$ = ecx

; 201  : 		{	// test for iterator equality

  00000	55		 push	 ebp
  00001	8b ec		 mov	 ebp, esp

; 202  : 		_Compat(_Right);
; 203  : 		return (this->_Ptr == _Right._Ptr);

  00003	8b 01		 mov	 eax, DWORD PTR [ecx]
  00005	8b 4d 08	 mov	 ecx, DWORD PTR __Right$[ebp]
  00008	2b 01		 sub	 eax, DWORD PTR [ecx]
  0000a	f7 d8		 neg	 eax
  0000c	1b c0		 sbb	 eax, eax
  0000e	40		 inc	 eax

; 204  : 		}

  0000f	5d		 pop	 ebp
  00010	c2 04 00	 ret	 4
??8?$_Vector_const_iterator@V?$_Vector_val@UAttackAttribute@@V?$allocator@UAttackAttribute@@@std@@@std@@@std@@QBE_NABV01@@Z ENDP ; std::_Vector_const_iterator<std::_Vector_val<AttackAttribute,std::allocator<AttackAttribute> > >::operator==
_TEXT	ENDS
PUBLIC	?max_size@?$vector@UWeaponInfo@@V?$allocator@UWeaponInfo@@@std@@@std@@QBEIXZ ; std::vector<WeaponInfo,std::allocator<WeaponInfo> >::max_size
; Function compile flags: /Ogsp
;	COMDAT ?max_size@?$vector@UWeaponInfo@@V?$allocator@UWeaponInfo@@@std@@@std@@QBEIXZ
_TEXT	SEGMENT
?max_size@?$vector@UWeaponInfo@@V?$allocator@UWeaponInfo@@@std@@@std@@QBEIXZ PROC ; std::vector<WeaponInfo,std::allocator<WeaponInfo> >::max_size, COMDAT
; _this$ = ecx

; 884  : 		return (this->_Alval.max_size());

  00000	b8 66 66 66 06	 mov	 eax, 107374182		; 06666666H

; 885  : 		}

  00005	c3		 ret	 0
?max_size@?$vector@UWeaponInfo@@V?$allocator@UWeaponInfo@@@std@@@std@@QBEIXZ ENDP ; std::vector<WeaponInfo,std::allocator<WeaponInfo> >::max_size
_TEXT	ENDS
PUBLIC	?allocate@?$allocator@UWeaponInfo@@@std@@QAEPAUWeaponInfo@@I@Z ; std::allocator<WeaponInfo>::allocate
; Function compile flags: /Ogsp
; File c:\program files (x86)\microsoft visual studio 10.0\vc\include\xmemory
;	COMDAT ?allocate@?$allocator@UWeaponInfo@@@std@@QAEPAUWeaponInfo@@I@Z
_TEXT	SEGMENT
__Count$ = 8						; size = 4
?allocate@?$allocator@UWeaponInfo@@@std@@QAEPAUWeaponInfo@@I@Z PROC ; std::allocator<WeaponInfo>::allocate, COMDAT
; _this$ = ecx

; 186  : 		{	// allocate array of _Count elements

  00000	55		 push	 ebp
  00001	8b ec		 mov	 ebp, esp

; 187  : 		return (_Allocate(_Count, (pointer)0));

  00003	6a 00		 push	 0
  00005	ff 75 08	 push	 DWORD PTR __Count$[ebp]
  00008	e8 00 00 00 00	 call	 ??$_Allocate@UWeaponInfo@@@std@@YAPAUWeaponInfo@@IPAU1@@Z ; std::_Allocate<WeaponInfo>
  0000d	59		 pop	 ecx
  0000e	59		 pop	 ecx

; 188  : 		}

  0000f	5d		 pop	 ebp
  00010	c2 04 00	 ret	 4
?allocate@?$allocator@UWeaponInfo@@@std@@QAEPAUWeaponInfo@@I@Z ENDP ; std::allocator<WeaponInfo>::allocate
_TEXT	ENDS
PUBLIC	?max_size@?$vector@UForceInfo@@V?$allocator@UForceInfo@@@std@@@std@@QBEIXZ ; std::vector<ForceInfo,std::allocator<ForceInfo> >::max_size
; Function compile flags: /Ogsp
; File c:\program files (x86)\microsoft visual studio 10.0\vc\include\vector
;	COMDAT ?max_size@?$vector@UForceInfo@@V?$allocator@UForceInfo@@@std@@@std@@QBEIXZ
_TEXT	SEGMENT
?max_size@?$vector@UForceInfo@@V?$allocator@UForceInfo@@@std@@@std@@QBEIXZ PROC ; std::vector<ForceInfo,std::allocator<ForceInfo> >::max_size, COMDAT
; _this$ = ecx

; 884  : 		return (this->_Alval.max_size());

  00000	b8 55 55 55 15	 mov	 eax, 357913941		; 15555555H

; 885  : 		}

  00005	c3		 ret	 0
?max_size@?$vector@UForceInfo@@V?$allocator@UForceInfo@@@std@@@std@@QBEIXZ ENDP ; std::vector<ForceInfo,std::allocator<ForceInfo> >::max_size
_TEXT	ENDS
PUBLIC	?allocate@?$allocator@UForceInfo@@@std@@QAEPAUForceInfo@@I@Z ; std::allocator<ForceInfo>::allocate
; Function compile flags: /Ogsp
; File c:\program files (x86)\microsoft visual studio 10.0\vc\include\xmemory
;	COMDAT ?allocate@?$allocator@UForceInfo@@@std@@QAEPAUForceInfo@@I@Z
_TEXT	SEGMENT
__Count$ = 8						; size = 4
?allocate@?$allocator@UForceInfo@@@std@@QAEPAUForceInfo@@I@Z PROC ; std::allocator<ForceInfo>::allocate, COMDAT
; _this$ = ecx

; 186  : 		{	// allocate array of _Count elements

  00000	55		 push	 ebp
  00001	8b ec		 mov	 ebp, esp

; 187  : 		return (_Allocate(_Count, (pointer)0));

  00003	6a 00		 push	 0
  00005	ff 75 08	 push	 DWORD PTR __Count$[ebp]
  00008	e8 00 00 00 00	 call	 ??$_Allocate@UForceInfo@@@std@@YAPAUForceInfo@@IPAU1@@Z ; std::_Allocate<ForceInfo>
  0000d	59		 pop	 ecx
  0000e	59		 pop	 ecx

; 188  : 		}

  0000f	5d		 pop	 ebp
  00010	c2 04 00	 ret	 4
?allocate@?$allocator@UForceInfo@@@std@@QAEPAUForceInfo@@I@Z ENDP ; std::allocator<ForceInfo>::allocate
_TEXT	ENDS
PUBLIC	??0?$_Vector_iterator@V?$_Vector_val@UWeaponInfo@@V?$allocator@UWeaponInfo@@@std@@@std@@@std@@QAE@PAUWeaponInfo@@PBU_Container_base0@1@@Z ; std::_Vector_iterator<std::_Vector_val<WeaponInfo,std::allocator<WeaponInfo> > >::_Vector_iterator<std::_Vector_val<WeaponInfo,std::allocator<WeaponInfo> > >
; Function compile flags: /Ogsp
; File c:\program files (x86)\microsoft visual studio 10.0\vc\include\vector
;	COMDAT ??0?$_Vector_iterator@V?$_Vector_val@UWeaponInfo@@V?$allocator@UWeaponInfo@@@std@@@std@@@std@@QAE@PAUWeaponInfo@@PBU_Container_base0@1@@Z
_TEXT	SEGMENT
__Parg$ = 8						; size = 4
__Pvector$ = 12						; size = 4
??0?$_Vector_iterator@V?$_Vector_val@UWeaponInfo@@V?$allocator@UWeaponInfo@@@std@@@std@@@std@@QAE@PAUWeaponInfo@@PBU_Container_base0@1@@Z PROC ; std::_Vector_iterator<std::_Vector_val<WeaponInfo,std::allocator<WeaponInfo> > >::_Vector_iterator<std::_Vector_val<WeaponInfo,std::allocator<WeaponInfo> > >, COMDAT
; _this$ = ecx

; 304  : 		{	// construct with pointer _Parg

  00000	55		 push	 ebp
  00001	8b ec		 mov	 ebp, esp
  00003	8b c1		 mov	 eax, ecx
  00005	8b 4d 08	 mov	 ecx, DWORD PTR __Parg$[ebp]
  00008	89 08		 mov	 DWORD PTR [eax], ecx

; 305  : 		}

  0000a	5d		 pop	 ebp
  0000b	c2 08 00	 ret	 8
??0?$_Vector_iterator@V?$_Vector_val@UWeaponInfo@@V?$allocator@UWeaponInfo@@@std@@@std@@@std@@QAE@PAUWeaponInfo@@PBU_Container_base0@1@@Z ENDP ; std::_Vector_iterator<std::_Vector_val<WeaponInfo,std::allocator<WeaponInfo> > >::_Vector_iterator<std::_Vector_val<WeaponInfo,std::allocator<WeaponInfo> > >
_TEXT	ENDS
PUBLIC	??0?$_Vector_iterator@V?$_Vector_val@UForceInfo@@V?$allocator@UForceInfo@@@std@@@std@@@std@@QAE@PAUForceInfo@@PBU_Container_base0@1@@Z ; std::_Vector_iterator<std::_Vector_val<ForceInfo,std::allocator<ForceInfo> > >::_Vector_iterator<std::_Vector_val<ForceInfo,std::allocator<ForceInfo> > >
; Function compile flags: /Ogsp
;	COMDAT ??0?$_Vector_iterator@V?$_Vector_val@UForceInfo@@V?$allocator@UForceInfo@@@std@@@std@@@std@@QAE@PAUForceInfo@@PBU_Container_base0@1@@Z
_TEXT	SEGMENT
__Parg$ = 8						; size = 4
__Pvector$ = 12						; size = 4
??0?$_Vector_iterator@V?$_Vector_val@UForceInfo@@V?$allocator@UForceInfo@@@std@@@std@@@std@@QAE@PAUForceInfo@@PBU_Container_base0@1@@Z PROC ; std::_Vector_iterator<std::_Vector_val<ForceInfo,std::allocator<ForceInfo> > >::_Vector_iterator<std::_Vector_val<ForceInfo,std::allocator<ForceInfo> > >, COMDAT
; _this$ = ecx

; 304  : 		{	// construct with pointer _Parg

  00000	55		 push	 ebp
  00001	8b ec		 mov	 ebp, esp
  00003	8b c1		 mov	 eax, ecx
  00005	8b 4d 08	 mov	 ecx, DWORD PTR __Parg$[ebp]
  00008	89 08		 mov	 DWORD PTR [eax], ecx

; 305  : 		}

  0000a	5d		 pop	 ebp
  0000b	c2 08 00	 ret	 8
??0?$_Vector_iterator@V?$_Vector_val@UForceInfo@@V?$allocator@UForceInfo@@@std@@@std@@@std@@QAE@PAUForceInfo@@PBU_Container_base0@1@@Z ENDP ; std::_Vector_iterator<std::_Vector_val<ForceInfo,std::allocator<ForceInfo> > >::_Vector_iterator<std::_Vector_val<ForceInfo,std::allocator<ForceInfo> > >
_TEXT	ENDS
PUBLIC	??8?$_Vector_const_iterator@V?$_Vector_val@UWeaponInfo@@V?$allocator@UWeaponInfo@@@std@@@std@@@std@@QBE_NABV01@@Z ; std::_Vector_const_iterator<std::_Vector_val<WeaponInfo,std::allocator<WeaponInfo> > >::operator==
; Function compile flags: /Ogsp
;	COMDAT ??8?$_Vector_const_iterator@V?$_Vector_val@UWeaponInfo@@V?$allocator@UWeaponInfo@@@std@@@std@@@std@@QBE_NABV01@@Z
_TEXT	SEGMENT
__Right$ = 8						; size = 4
??8?$_Vector_const_iterator@V?$_Vector_val@UWeaponInfo@@V?$allocator@UWeaponInfo@@@std@@@std@@@std@@QBE_NABV01@@Z PROC ; std::_Vector_const_iterator<std::_Vector_val<WeaponInfo,std::allocator<WeaponInfo> > >::operator==, COMDAT
; _this$ = ecx

; 201  : 		{	// test for iterator equality

  00000	55		 push	 ebp
  00001	8b ec		 mov	 ebp, esp

; 202  : 		_Compat(_Right);
; 203  : 		return (this->_Ptr == _Right._Ptr);

  00003	8b 01		 mov	 eax, DWORD PTR [ecx]
  00005	8b 4d 08	 mov	 ecx, DWORD PTR __Right$[ebp]
  00008	2b 01		 sub	 eax, DWORD PTR [ecx]
  0000a	f7 d8		 neg	 eax
  0000c	1b c0		 sbb	 eax, eax
  0000e	40		 inc	 eax

; 204  : 		}

  0000f	5d		 pop	 ebp
  00010	c2 04 00	 ret	 4
??8?$_Vector_const_iterator@V?$_Vector_val@UWeaponInfo@@V?$allocator@UWeaponInfo@@@std@@@std@@@std@@QBE_NABV01@@Z ENDP ; std::_Vector_const_iterator<std::_Vector_val<WeaponInfo,std::allocator<WeaponInfo> > >::operator==
_TEXT	ENDS
PUBLIC	??8?$_Vector_const_iterator@V?$_Vector_val@UForceInfo@@V?$allocator@UForceInfo@@@std@@@std@@@std@@QBE_NABV01@@Z ; std::_Vector_const_iterator<std::_Vector_val<ForceInfo,std::allocator<ForceInfo> > >::operator==
; Function compile flags: /Ogsp
;	COMDAT ??8?$_Vector_const_iterator@V?$_Vector_val@UForceInfo@@V?$allocator@UForceInfo@@@std@@@std@@@std@@QBE_NABV01@@Z
_TEXT	SEGMENT
__Right$ = 8						; size = 4
??8?$_Vector_const_iterator@V?$_Vector_val@UForceInfo@@V?$allocator@UForceInfo@@@std@@@std@@@std@@QBE_NABV01@@Z PROC ; std::_Vector_const_iterator<std::_Vector_val<ForceInfo,std::allocator<ForceInfo> > >::operator==, COMDAT
; _this$ = ecx

; 201  : 		{	// test for iterator equality

  00000	55		 push	 ebp
  00001	8b ec		 mov	 ebp, esp

; 202  : 		_Compat(_Right);
; 203  : 		return (this->_Ptr == _Right._Ptr);

  00003	8b 01		 mov	 eax, DWORD PTR [ecx]
  00005	8b 4d 08	 mov	 ecx, DWORD PTR __Right$[ebp]
  00008	2b 01		 sub	 eax, DWORD PTR [ecx]
  0000a	f7 d8		 neg	 eax
  0000c	1b c0		 sbb	 eax, eax
  0000e	40		 inc	 eax

; 204  : 		}

  0000f	5d		 pop	 ebp
  00010	c2 04 00	 ret	 4
??8?$_Vector_const_iterator@V?$_Vector_val@UForceInfo@@V?$allocator@UForceInfo@@@std@@@std@@@std@@QBE_NABV01@@Z ENDP ; std::_Vector_const_iterator<std::_Vector_val<ForceInfo,std::allocator<ForceInfo> > >::operator==
_TEXT	ENDS
PUBLIC	??$_Copy_impl@PAUForceInfo@@PAU1@@std@@YAPAUForceInfo@@PAU1@00@Z ; std::_Copy_impl<ForceInfo *,ForceInfo *>
; Function compile flags: /Ogsp
; File c:\program files (x86)\microsoft visual studio 10.0\vc\include\xutility
;	COMDAT ??$_Copy_impl@PAUForceInfo@@PAU1@@std@@YAPAUForceInfo@@PAU1@00@Z
_TEXT	SEGMENT
__Cat$616068 = -4					; size = 1
__First$ = 8						; size = 4
__Last$ = 12						; size = 4
__Dest$ = 16						; size = 4
??$_Copy_impl@PAUForceInfo@@PAU1@@std@@YAPAUForceInfo@@PAU1@00@Z PROC ; std::_Copy_impl<ForceInfo *,ForceInfo *>, COMDAT

; 2163 : 	{	// copy [_First, _Last) to [_Dest, ...)

  00000	55		 push	 ebp
  00001	8b ec		 mov	 ebp, esp
  00003	51		 push	 ecx

; 2164 : 	return (_Copy_impl(_First, _Last,
; 2165 : 		_Dest, _Ptr_cat(_First, _Dest)));

  00004	ff 75 fc	 push	 DWORD PTR __Cat$616068[ebp]
  00007	ff 75 10	 push	 DWORD PTR __Dest$[ebp]
  0000a	ff 75 0c	 push	 DWORD PTR __Last$[ebp]
  0000d	ff 75 08	 push	 DWORD PTR __First$[ebp]
  00010	e8 00 00 00 00	 call	 ??$_Copy_impl@PAUForceInfo@@PAU1@@std@@YAPAUForceInfo@@PAU1@00U_Nonscalar_ptr_iterator_tag@0@@Z ; std::_Copy_impl<ForceInfo *,ForceInfo *>
  00015	83 c4 10	 add	 esp, 16			; 00000010H

; 2166 : 	}

  00018	c9		 leave
  00019	c3		 ret	 0
??$_Copy_impl@PAUForceInfo@@PAU1@@std@@YAPAUForceInfo@@PAU1@00@Z ENDP ; std::_Copy_impl<ForceInfo *,ForceInfo *>
_TEXT	ENDS
PUBLIC	?destroy@?$allocator@UForceInfo@@@std@@QAEXPAUForceInfo@@@Z ; std::allocator<ForceInfo>::destroy
; Function compile flags: /Ogsp
; File c:\program files (x86)\microsoft visual studio 10.0\vc\include\xmemory
;	COMDAT ?destroy@?$allocator@UForceInfo@@@std@@QAEXPAUForceInfo@@@Z
_TEXT	SEGMENT
__Ptr$ = 8						; size = 4
?destroy@?$allocator@UForceInfo@@@std@@QAEXPAUForceInfo@@@Z PROC ; std::allocator<ForceInfo>::destroy, COMDAT
; _this$ = ecx

; 213  : 		_Destroy(_Ptr);
; 214  : 		}

  00000	c2 04 00	 ret	 4
?destroy@?$allocator@UForceInfo@@@std@@QAEXPAUForceInfo@@@Z ENDP ; std::allocator<ForceInfo>::destroy
_TEXT	ENDS
PUBLIC	??$_Copy_impl@PAUWeaponInfo@@PAU1@@std@@YAPAUWeaponInfo@@PAU1@00U_Nonscalar_ptr_iterator_tag@0@@Z ; std::_Copy_impl<WeaponInfo *,WeaponInfo *>
; Function compile flags: /Ogsp
; File c:\program files (x86)\microsoft visual studio 10.0\vc\include\xutility
;	COMDAT ??$_Copy_impl@PAUWeaponInfo@@PAU1@@std@@YAPAUWeaponInfo@@PAU1@00U_Nonscalar_ptr_iterator_tag@0@@Z
_TEXT	SEGMENT
__First$ = 8						; size = 4
__Last$ = 12						; size = 4
__Dest$ = 16						; size = 4
___formal$ = 20						; size = 1
??$_Copy_impl@PAUWeaponInfo@@PAU1@@std@@YAPAUWeaponInfo@@PAU1@00U_Nonscalar_ptr_iterator_tag@0@@Z PROC ; std::_Copy_impl<WeaponInfo *,WeaponInfo *>, COMDAT

; 2142 : 	{	// copy [_First, _Last) to [_Dest, ...), arbitrary iterators

  00000	55		 push	 ebp
  00001	8b ec		 mov	 ebp, esp
  00003	56		 push	 esi

; 2143 : 	for (; _First != _Last; ++_Dest, ++_First)

  00004	8b 75 08	 mov	 esi, DWORD PTR __First$[ebp]
  00007	eb 10		 jmp	 SHORT $LN9@Copy_impl@2
$LL3@Copy_impl@2:

; 2144 : 		*_Dest = *_First;

  00009	8b 4d 10	 mov	 ecx, DWORD PTR __Dest$[ebp]
  0000c	56		 push	 esi
  0000d	e8 00 00 00 00	 call	 ??4WeaponInfo@@QAEAAU0@ABU0@@Z
  00012	83 45 10 28	 add	 DWORD PTR __Dest$[ebp], 40 ; 00000028H
  00016	83 c6 28	 add	 esi, 40			; 00000028H
$LN9@Copy_impl@2:

; 2143 : 	for (; _First != _Last; ++_Dest, ++_First)

  00019	3b 75 0c	 cmp	 esi, DWORD PTR __Last$[ebp]
  0001c	75 eb		 jne	 SHORT $LL3@Copy_impl@2

; 2145 : 	return (_Dest);

  0001e	8b 45 10	 mov	 eax, DWORD PTR __Dest$[ebp]
  00021	5e		 pop	 esi

; 2146 : 	}

  00022	5d		 pop	 ebp
  00023	c3		 ret	 0
??$_Copy_impl@PAUWeaponInfo@@PAU1@@std@@YAPAUWeaponInfo@@PAU1@00U_Nonscalar_ptr_iterator_tag@0@@Z ENDP ; std::_Copy_impl<WeaponInfo *,WeaponInfo *>
_TEXT	ENDS
PUBLIC	??$_Move@PAUWeaponInfo@@PAU1@@std@@YAPAUWeaponInfo@@PAU1@00U_Nonscalar_ptr_iterator_tag@0@@Z ; std::_Move<WeaponInfo *,WeaponInfo *>
; Function compile flags: /Ogsp
;	COMDAT ??$_Move@PAUWeaponInfo@@PAU1@@std@@YAPAUWeaponInfo@@PAU1@00U_Nonscalar_ptr_iterator_tag@0@@Z
_TEXT	SEGMENT
__First$ = 8						; size = 4
__Last$ = 12						; size = 4
__Dest$ = 16						; size = 4
___formal$ = 20						; size = 1
??$_Move@PAUWeaponInfo@@PAU1@@std@@YAPAUWeaponInfo@@PAU1@00U_Nonscalar_ptr_iterator_tag@0@@Z PROC ; std::_Move<WeaponInfo *,WeaponInfo *>, COMDAT

; 2512 : 	{	// move [_First, _Last) to [_Dest, ...), arbitrary iterators

  00000	55		 push	 ebp
  00001	8b ec		 mov	 ebp, esp
  00003	56		 push	 esi

; 2513 : 	for (; _First != _Last; ++_Dest, ++_First)

  00004	8b 75 08	 mov	 esi, DWORD PTR __First$[ebp]
  00007	eb 10		 jmp	 SHORT $LN11@Move
$LL3@Move:

; 2514 : 		*_Dest = _STD move(*_First);

  00009	8b 4d 10	 mov	 ecx, DWORD PTR __Dest$[ebp]
  0000c	56		 push	 esi
  0000d	e8 00 00 00 00	 call	 ??4WeaponInfo@@QAEAAU0@ABU0@@Z
  00012	83 45 10 28	 add	 DWORD PTR __Dest$[ebp], 40 ; 00000028H
  00016	83 c6 28	 add	 esi, 40			; 00000028H
$LN11@Move:

; 2513 : 	for (; _First != _Last; ++_Dest, ++_First)

  00019	3b 75 0c	 cmp	 esi, DWORD PTR __Last$[ebp]
  0001c	75 eb		 jne	 SHORT $LL3@Move

; 2515 : 	return (_Dest);

  0001e	8b 45 10	 mov	 eax, DWORD PTR __Dest$[ebp]
  00021	5e		 pop	 esi

; 2516 : 	}

  00022	5d		 pop	 ebp
  00023	c3		 ret	 0
??$_Move@PAUWeaponInfo@@PAU1@@std@@YAPAUWeaponInfo@@PAU1@00U_Nonscalar_ptr_iterator_tag@0@@Z ENDP ; std::_Move<WeaponInfo *,WeaponInfo *>
_TEXT	ENDS
PUBLIC	??$_Move@PAUForceInfo@@PAU1@@std@@YAPAUForceInfo@@PAU1@00U_Nonscalar_ptr_iterator_tag@0@@Z ; std::_Move<ForceInfo *,ForceInfo *>
; Function compile flags: /Ogsp
;	COMDAT ??$_Move@PAUForceInfo@@PAU1@@std@@YAPAUForceInfo@@PAU1@00U_Nonscalar_ptr_iterator_tag@0@@Z
_TEXT	SEGMENT
__First$ = 8						; size = 4
__Last$ = 12						; size = 4
__Dest$ = 16						; size = 4
___formal$ = 20						; size = 1
??$_Move@PAUForceInfo@@PAU1@@std@@YAPAUForceInfo@@PAU1@00U_Nonscalar_ptr_iterator_tag@0@@Z PROC ; std::_Move<ForceInfo *,ForceInfo *>, COMDAT

; 2512 : 	{	// move [_First, _Last) to [_Dest, ...), arbitrary iterators

  00000	55		 push	 ebp
  00001	8b ec		 mov	 ebp, esp

; 2513 : 	for (; _First != _Last; ++_Dest, ++_First)

  00003	8b 45 08	 mov	 eax, DWORD PTR __First$[ebp]
  00006	3b 45 0c	 cmp	 eax, DWORD PTR __Last$[ebp]
  00009	74 18		 je	 SHORT $LN10@Move@2
  0000b	56		 push	 esi
  0000c	57		 push	 edi
$LL3@Move@2:

; 2514 : 		*_Dest = _STD move(*_First);

  0000d	8b 7d 10	 mov	 edi, DWORD PTR __Dest$[ebp]
  00010	83 45 10 0c	 add	 DWORD PTR __Dest$[ebp], 12 ; 0000000cH
  00014	8b f0		 mov	 esi, eax
  00016	a5		 movsd
  00017	a5		 movsd
  00018	83 c0 0c	 add	 eax, 12			; 0000000cH
  0001b	a5		 movsd
  0001c	3b 45 0c	 cmp	 eax, DWORD PTR __Last$[ebp]
  0001f	75 ec		 jne	 SHORT $LL3@Move@2
  00021	5f		 pop	 edi
  00022	5e		 pop	 esi
$LN10@Move@2:

; 2515 : 	return (_Dest);

  00023	8b 45 10	 mov	 eax, DWORD PTR __Dest$[ebp]

; 2516 : 	}

  00026	5d		 pop	 ebp
  00027	c3		 ret	 0
??$_Move@PAUForceInfo@@PAU1@@std@@YAPAUForceInfo@@PAU1@00U_Nonscalar_ptr_iterator_tag@0@@Z ENDP ; std::_Move<ForceInfo *,ForceInfo *>
_TEXT	ENDS
PUBLIC	??$_Destroy@UWeaponInfo@@@std@@YAXPAUWeaponInfo@@@Z ; std::_Destroy<WeaponInfo>
; Function compile flags: /Ogsp
; File c:\program files (x86)\microsoft visual studio 10.0\vc\include\xmemory
;	COMDAT ??$_Destroy@UWeaponInfo@@@std@@YAXPAUWeaponInfo@@@Z
_TEXT	SEGMENT
__Ptr$ = 8						; size = 4
??$_Destroy@UWeaponInfo@@@std@@YAXPAUWeaponInfo@@@Z PROC ; std::_Destroy<WeaponInfo>, COMDAT

; 62   : 	{	// destroy object at _Ptr

  00000	55		 push	 ebp
  00001	8b ec		 mov	 ebp, esp

; 63   : 	_Ptr->~_Ty();

  00003	8b 4d 08	 mov	 ecx, DWORD PTR __Ptr$[ebp]
  00006	83 c1 08	 add	 ecx, 8

; 64   : 	}

  00009	5d		 pop	 ebp

; 63   : 	_Ptr->~_Ty();

  0000a	ff 25 00 00 00
	00		 jmp	 DWORD PTR __imp_??1ioHashString@@QAE@XZ
??$_Destroy@UWeaponInfo@@@std@@YAXPAUWeaponInfo@@@Z ENDP ; std::_Destroy<WeaponInfo>
_TEXT	ENDS
PUBLIC	??$_Cons_val@V?$allocator@UForceInfo@@@std@@UForceInfo@@AAU3@@std@@YAXAAV?$allocator@UForceInfo@@@0@PAUForceInfo@@AAU2@@Z ; std::_Cons_val<std::allocator<ForceInfo>,ForceInfo,ForceInfo &>
; Function compile flags: /Ogsp
;	COMDAT ??$_Cons_val@V?$allocator@UForceInfo@@@std@@UForceInfo@@AAU3@@std@@YAXAAV?$allocator@UForceInfo@@@0@PAUForceInfo@@AAU2@@Z
_TEXT	SEGMENT
__Alval$ = 8						; size = 4
__Pdest$ = 12						; size = 4
__Src$ = 16						; size = 4
??$_Cons_val@V?$allocator@UForceInfo@@@std@@UForceInfo@@AAU3@@std@@YAXAAV?$allocator@UForceInfo@@@0@PAUForceInfo@@AAU2@@Z PROC ; std::_Cons_val<std::allocator<ForceInfo>,ForceInfo,ForceInfo &>, COMDAT

; 279  : 	{	// construct using allocator

  00000	55		 push	 ebp
  00001	8b ec		 mov	 ebp, esp
  00003	57		 push	 edi

; 280  : 	_Alval.construct(_Pdest, _STD forward<_Ty2>(_Src));

  00004	8b 7d 0c	 mov	 edi, DWORD PTR __Pdest$[ebp]
  00007	85 ff		 test	 edi, edi
  00009	74 08		 je	 SHORT $LN7@Cons_val
  0000b	56		 push	 esi
  0000c	8b 75 10	 mov	 esi, DWORD PTR __Src$[ebp]
  0000f	a5		 movsd
  00010	a5		 movsd
  00011	a5		 movsd
  00012	5e		 pop	 esi
$LN7@Cons_val:
  00013	5f		 pop	 edi

; 281  : 	}

  00014	5d		 pop	 ebp
  00015	c3		 ret	 0
??$_Cons_val@V?$allocator@UForceInfo@@@std@@UForceInfo@@AAU3@@std@@YAXAAV?$allocator@UForceInfo@@@0@PAUForceInfo@@AAU2@@Z ENDP ; std::_Cons_val<std::allocator<ForceInfo>,ForceInfo,ForceInfo &>
_TEXT	ENDS
PUBLIC	??$construct@AAUWeaponInfo@@@?$allocator@UWeaponInfo@@@std@@QAEXPAUWeaponInfo@@AAU2@@Z ; std::allocator<WeaponInfo>::construct<WeaponInfo &>
;	COMDAT xdata$x
; File c:\program files (x86)\microsoft visual studio 10.0\vc\include\utility
xdata$x	SEGMENT
__unwindtable$??$construct@AAUWeaponInfo@@@?$allocator@UWeaponInfo@@@std@@QAEXPAUWeaponInfo@@AAU2@@Z DD 0ffffffffH
	DD	FLAT:__unwindfunclet$??$construct@AAUWeaponInfo@@@?$allocator@UWeaponInfo@@@std@@QAEXPAUWeaponInfo@@AAU2@@Z$0
__ehfuncinfo$??$construct@AAUWeaponInfo@@@?$allocator@UWeaponInfo@@@std@@QAEXPAUWeaponInfo@@AAU2@@Z DD 019930522H
	DD	01H
	DD	FLAT:__unwindtable$??$construct@AAUWeaponInfo@@@?$allocator@UWeaponInfo@@@std@@QAEXPAUWeaponInfo@@AAU2@@Z
	DD	2 DUP(00H)
	DD	2 DUP(00H)
	DD	00H
	DD	01H
; Function compile flags: /Ogsp
; File c:\program files (x86)\microsoft visual studio 10.0\vc\include\xmemory
xdata$x	ENDS
;	COMDAT ??$construct@AAUWeaponInfo@@@?$allocator@UWeaponInfo@@@std@@QAEXPAUWeaponInfo@@AAU2@@Z
_TEXT	SEGMENT
$T616140 = -16						; size = 4
__$EHRec$ = -12						; size = 12
__Ptr$ = 8						; size = 4
__Val$ = 12						; size = 4
??$construct@AAUWeaponInfo@@@?$allocator@UWeaponInfo@@@std@@QAEXPAUWeaponInfo@@AAU2@@Z PROC ; std::allocator<WeaponInfo>::construct<WeaponInfo &>, COMDAT
; _this$ = ecx

; 206  : 		void construct(pointer _Ptr, _Other&& _Val)

  00000	6a 04		 push	 4
  00002	b8 00 00 00 00	 mov	 eax, __ehhandler$??$construct@AAUWeaponInfo@@@?$allocator@UWeaponInfo@@@std@@QAEXPAUWeaponInfo@@AAU2@@Z
  00007	e8 00 00 00 00	 call	 __EH_prolog3

; 207  : 		{	// construct object at _Ptr with value _Val
; 208  : 		::new ((void _FARQ *)_Ptr) _Ty(_STD forward<_Other>(_Val));

  0000c	8b 4d 08	 mov	 ecx, DWORD PTR __Ptr$[ebp]
  0000f	89 4d f0	 mov	 DWORD PTR $T616140[ebp], ecx
  00012	83 65 fc 00	 and	 DWORD PTR __$EHRec$[ebp+8], 0
  00016	85 c9		 test	 ecx, ecx
  00018	74 08		 je	 SHORT $LN3@construct@3
  0001a	ff 75 0c	 push	 DWORD PTR __Val$[ebp]
  0001d	e8 00 00 00 00	 call	 ??0WeaponInfo@@QAE@ABU0@@Z
$LN3@construct@3:

; 209  : 		}

  00022	e8 00 00 00 00	 call	 __EH_epilog3
  00027	c2 08 00	 ret	 8
_TEXT	ENDS
;	COMDAT text$x
text$x	SEGMENT
__unwindfunclet$??$construct@AAUWeaponInfo@@@?$allocator@UWeaponInfo@@@std@@QAEXPAUWeaponInfo@@AAU2@@Z$0:
  00000	ff 75 08	 push	 DWORD PTR __Ptr$[ebp]
  00003	ff 75 f0	 push	 DWORD PTR $T616140[ebp]
  00006	e8 00 00 00 00	 call	 ??3@YAXPAX0@Z		; operator delete
  0000b	59		 pop	 ecx
  0000c	59		 pop	 ecx
  0000d	c3		 ret	 0
__ehhandler$??$construct@AAUWeaponInfo@@@?$allocator@UWeaponInfo@@@std@@QAEXPAUWeaponInfo@@AAU2@@Z:
  0000e	8b 54 24 08	 mov	 edx, DWORD PTR [esp+8]
  00012	8d 42 0c	 lea	 eax, DWORD PTR [edx+12]
  00015	8b 4a ec	 mov	 ecx, DWORD PTR [edx-20]
  00018	33 c8		 xor	 ecx, eax
  0001a	e8 00 00 00 00	 call	 @__security_check_cookie@4
  0001f	b8 00 00 00 00	 mov	 eax, OFFSET __ehfuncinfo$??$construct@AAUWeaponInfo@@@?$allocator@UWeaponInfo@@@std@@QAEXPAUWeaponInfo@@AAU2@@Z
  00024	e9 00 00 00 00	 jmp	 ___CxxFrameHandler3
text$x	ENDS
??$construct@AAUWeaponInfo@@@?$allocator@UWeaponInfo@@@std@@QAEXPAUWeaponInfo@@AAU2@@Z ENDP ; std::allocator<WeaponInfo>::construct<WeaponInfo &>
PUBLIC	?SetGravityAmt@ioBaseChar@@QAEXM@Z		; ioBaseChar::SetGravityAmt
; Function compile flags: /Ogsp
; File d:\lost saga for developer\youtube\tutorial\source\src\lsclient\iobasechar.h
;	COMDAT ?SetGravityAmt@ioBaseChar@@QAEXM@Z
_TEXT	SEGMENT
_value$616161 = 8					; size = 4
_fAmt$ = 8						; size = 4
?SetGravityAmt@ioBaseChar@@QAEXM@Z PROC			; ioBaseChar::SetGravityAmt, COMDAT
; _this$ = ecx

; 2631 : 	inline void SetGravityAmt( float fAmt ) { m_fGravityAmt = fAmt; }

  00000	55		 push	 ebp
  00001	8b ec		 mov	 ebp, esp
  00003	f3 0f 10 45 08	 movss	 xmm0, DWORD PTR _fAmt$[ebp]
  00008	8d 45 08	 lea	 eax, DWORD PTR _value$616161[ebp]
  0000b	50		 push	 eax
  0000c	81 c1 e8 0b 00
	00		 add	 ecx, 3048		; 00000be8H
  00012	f3 0f 11 45 08	 movss	 DWORD PTR _value$616161[ebp], xmm0
  00017	e8 00 00 00 00	 call	 ?EncryptValueToPool@?$CEncrypt@M@@AAEXPBD@Z ; CEncrypt<float>::EncryptValueToPool
  0001c	5d		 pop	 ebp
  0001d	c2 04 00	 ret	 4
?SetGravityAmt@ioBaseChar@@QAEXM@Z ENDP			; ioBaseChar::SetGravityAmt
_TEXT	ENDS
PUBLIC	?SetForcePowerAmt@ioBaseChar@@QAEXM@Z		; ioBaseChar::SetForcePowerAmt
; Function compile flags: /Ogsp
;	COMDAT ?SetForcePowerAmt@ioBaseChar@@QAEXM@Z
_TEXT	SEGMENT
_value$616167 = 8					; size = 4
_fAmt$ = 8						; size = 4
?SetForcePowerAmt@ioBaseChar@@QAEXM@Z PROC		; ioBaseChar::SetForcePowerAmt, COMDAT
; _this$ = ecx

; 2641 : 	inline void SetForcePowerAmt( float fAmt ) { m_fForceAmt = fAmt; }

  00000	55		 push	 ebp
  00001	8b ec		 mov	 ebp, esp
  00003	f3 0f 10 45 08	 movss	 xmm0, DWORD PTR _fAmt$[ebp]
  00008	8d 45 08	 lea	 eax, DWORD PTR _value$616167[ebp]
  0000b	50		 push	 eax
  0000c	81 c1 88 0b 00
	00		 add	 ecx, 2952		; 00000b88H
  00012	f3 0f 11 45 08	 movss	 DWORD PTR _value$616167[ebp], xmm0
  00017	e8 00 00 00 00	 call	 ?EncryptValueToPool@?$CEncrypt@M@@AAEXPBD@Z ; CEncrypt<float>::EncryptValueToPool
  0001c	5d		 pop	 ebp
  0001d	c2 04 00	 ret	 4
?SetForcePowerAmt@ioBaseChar@@QAEXM@Z ENDP		; ioBaseChar::SetForcePowerAmt
_TEXT	ENDS
PUBLIC	__real@4f800000
PUBLIC	_pChar$GSCopy$
PUBLIC	?OnSkillStart@ioLinearComboSkill2@@UAE_NPAVioBaseChar@@@Z ; ioLinearComboSkill2::OnSkillStart
EXTRN	?GetUniqueID@ioMapEffect@@QBEKXZ:PROC		; ioMapEffect::GetUniqueID
EXTRN	?CreateMapEffectBySkill@ioBaseChar@@QAEPAVioMapEffect@@ABVioHashString@@ABUD3DXVECTOR3@@AAU4@@Z:PROC ; ioBaseChar::CreateMapEffectBySkill
EXTRN	_D3DXVec3Normalize@8:PROC
EXTRN	?GetMidPositionByRate@ioGameEntity@@QBE?AUD3DXVECTOR3@@M@Z:PROC ; ioGameEntity::GetMidPositionByRate
EXTRN	__imp_?Clear@ioHashString@@QAEXXZ:PROC
EXTRN	__imp_?PlaySoundA@ioSoundManager@@QAEKABVioHashString@@PAVioSceneNode@@K@Z:PROC
EXTRN	__imp_?GetSingleton@ioSoundManager@@SAAAV1@XZ:PROC
EXTRN	?OnSkillStart@ioAttackSkill@@UAE_NPAVioBaseChar@@@Z:PROC ; ioAttackSkill::OnSkillStart
EXTRN	?InitExtraAniJump@ioSkill@@IAEXXZ:PROC		; ioSkill::InitExtraAniJump
EXTRN	?ShowWeaponItemMesh@ioBaseChar@@QAEX_N0@Z:PROC	; ioBaseChar::ShowWeaponItemMesh
;	COMDAT __real@4f800000
; File c:\program files (x86)\microsoft directx sdk (june 2010)\include\d3dx9math.inl
CONST	SEGMENT
__real@4f800000 DD 04f800000r			; 4.29497e+009
CONST	ENDS
;	COMDAT xdata$x
xdata$x	SEGMENT
__unwindtable$?OnSkillStart@ioLinearComboSkill2@@UAE_NPAVioBaseChar@@@Z DD 0ffffffffH
	DD	FLAT:__unwindfunclet$?OnSkillStart@ioLinearComboSkill2@@UAE_NPAVioBaseChar@@@Z$0
__ehfuncinfo$?OnSkillStart@ioLinearComboSkill2@@UAE_NPAVioBaseChar@@@Z DD 019930522H
	DD	01H
	DD	FLAT:__unwindtable$?OnSkillStart@ioLinearComboSkill2@@UAE_NPAVioBaseChar@@@Z
	DD	2 DUP(00H)
	DD	2 DUP(00H)
	DD	00H
	DD	01H
; Function compile flags: /Ogsp
; File d:\lost saga for developer\youtube\tutorial\source\src\lsclient\iolinearcomboskill2.cpp
xdata$x	ENDS
;	COMDAT ?OnSkillStart@ioLinearComboSkill2@@UAE_NPAVioBaseChar@@@Z
_TEXT	SEGMENT
$T616171 = -92						; size = 16
$T608378 = -88						; size = 12
_pChar$GSCopy$ = -76					; size = 4
tv585 = -72						; size = 4
tv581 = -72						; size = 4
tv577 = -72						; size = 4
_value$616212 = -72					; size = 4
_value$616202 = -72					; size = 4
_value$616176 = -72					; size = 4
_value$616184 = -65					; size = 1
_value$616180 = -65					; size = 1
$T608375 = -64						; size = 12
_vScale$608371 = -52					; size = 12
_vPos$608372 = -40					; size = 12
_vLook$608374 = -28					; size = 12
__$EHRec$ = -12						; size = 12
_pChar$ = 8						; size = 4
?OnSkillStart@ioLinearComboSkill2@@UAE_NPAVioBaseChar@@@Z PROC ; ioLinearComboSkill2::OnSkillStart, COMDAT
; _this$ = ecx

; 191  : {

  00000	6a 50		 push	 80			; 00000050H
  00002	b8 00 00 00 00	 mov	 eax, __ehhandler$?OnSkillStart@ioLinearComboSkill2@@UAE_NPAVioBaseChar@@@Z
  00007	e8 00 00 00 00	 call	 __EH_prolog3_GS
  0000c	8b 75 08	 mov	 esi, DWORD PTR _pChar$[ebp]
  0000f	8b d9		 mov	 ebx, ecx

; 192  : 	m_bSetHandMesh = false;
; 193  : 	m_bReserveLastAttack = false;
; 194  : 
; 195  : 	//    
; 196  : 	if( m_bUseItemMesh )
; 197  : 	{
; 198  : 		pChar->ShowWeaponItemMesh( false );

  00011	33 ff		 xor	 edi, edi
  00013	80 bb 08 0f 00
	00 00		 cmp	 BYTE PTR [ebx+3848], 0

; 253  : 		{
; 254  : 			//pMapEffect->SetWorldOrientation( pChar->GetWorldOrientation() );
; 255  : 			m_dwAreMapEffectID = pMapEffect->GetUniqueID();

  0001a	89 75 b4	 mov	 DWORD PTR _pChar$GSCopy$[ebp], esi
  0001d	c6 83 0a 0f 00
	00 00		 mov	 BYTE PTR [ebx+3850], 0
  00024	c6 83 f0 13 00
	00 00		 mov	 BYTE PTR [ebx+5104], 0
  0002b	74 09		 je	 SHORT $LN8@OnSkillSta

; 192  : 	m_bSetHandMesh = false;
; 193  : 	m_bReserveLastAttack = false;
; 194  : 
; 195  : 	//    
; 196  : 	if( m_bUseItemMesh )
; 197  : 	{
; 198  : 		pChar->ShowWeaponItemMesh( false );

  0002d	57		 push	 edi
  0002e	57		 push	 edi
  0002f	8b ce		 mov	 ecx, esi
  00031	e8 00 00 00 00	 call	 ?ShowWeaponItemMesh@ioBaseChar@@QAEX_N0@Z ; ioBaseChar::ShowWeaponItemMesh
$LN8@OnSkillSta:

; 199  : 	}
; 200  : 
; 201  : 	m_iCurLinearCombo = 0;
; 202  : 	m_dwNextComboTime = 0;
; 203  : 	m_dwEnableReserveTime = 0;
; 204  : 	m_dwFireMotionEndTime = 0;
; 205  : 
; 206  : 	m_iCurRetreatCnt = 0;

  00036	8d 45 b8	 lea	 eax, DWORD PTR _value$616176[ebp]
  00039	50		 push	 eax
  0003a	8d 8b 88 13 00
	00		 lea	 ecx, DWORD PTR [ebx+5000]
  00040	89 bb 68 11 00
	00		 mov	 DWORD PTR [ebx+4456], edi
  00046	89 bb 6c 11 00
	00		 mov	 DWORD PTR [ebx+4460], edi
  0004c	89 bb dc 02 00
	00		 mov	 DWORD PTR [ebx+732], edi
  00052	89 bb 24 02 00
	00		 mov	 DWORD PTR [ebx+548], edi
  00058	89 7d b8	 mov	 DWORD PTR _value$616176[ebp], edi
  0005b	e8 00 00 00 00	 call	 ?EncryptValueToPool@?$CEncrypt@H@@AAEXPBD@Z ; CEncrypt<int>::EncryptValueToPool

; 207  : 	m_SkillState = SS_NONE;
; 208  : 	m_CurDirKey = ioUserKeyInput::DKI_NONE;
; 209  : 	m_nCurEndCombo = 0;
; 210  : 
; 211  : 	InitExtraAniJump();

  00060	8b cb		 mov	 ecx, ebx
  00062	89 bb e4 10 00
	00		 mov	 DWORD PTR [ebx+4324], edi
  00068	89 bb 04 13 00
	00		 mov	 DWORD PTR [ebx+4868], edi
  0006e	89 bb e8 13 00
	00		 mov	 DWORD PTR [ebx+5096], edi
  00074	e8 00 00 00 00	 call	 ?InitExtraAniJump@ioSkill@@IAEXXZ ; ioSkill::InitExtraAniJump

; 212  : 
; 213  : 	m_bUsedEndOtherAttack = false;
; 214  : 	m_bUsedComboList = false;

  00079	8d 45 bf	 lea	 eax, DWORD PTR _value$616180[ebp]
  0007c	50		 push	 eax
  0007d	8d 8b a4 12 00
	00		 lea	 ecx, DWORD PTR [ebx+4772]
  00083	c6 83 81 11 00
	00 00		 mov	 BYTE PTR [ebx+4481], 0
  0008a	c6 45 bf 00	 mov	 BYTE PTR _value$616180[ebp], 0
  0008e	e8 00 00 00 00	 call	 ?EncryptValueToPool@?$CEncrypt@_N@@AAEXPBD@Z ; CEncrypt<bool>::EncryptValueToPool

; 215  : 	m_bSetAttackFire = false;

  00093	8d 45 bf	 lea	 eax, DWORD PTR _value$616184[ebp]
  00096	50		 push	 eax
  00097	8d 8b d4 12 00
	00		 lea	 ecx, DWORD PTR [ebx+4820]
  0009d	c6 45 bf 00	 mov	 BYTE PTR _value$616184[ebp], 0
  000a1	e8 00 00 00 00	 call	 ?EncryptValueToPool@?$CEncrypt@_N@@AAEXPBD@Z ; CEncrypt<bool>::EncryptValueToPool

; 216  : 
; 217  : 	if( !ioAttackSkill::OnSkillStart( pChar ) )

  000a6	56		 push	 esi
  000a7	8b cb		 mov	 ecx, ebx
  000a9	e8 00 00 00 00	 call	 ?OnSkillStart@ioAttackSkill@@UAE_NPAVioBaseChar@@@Z ; ioAttackSkill::OnSkillStart
  000ae	84 c0		 test	 al, al
  000b0	0f 84 54 02 00
	00		 je	 $LN9@OnSkillSta
$LN7@OnSkillSta:

; 218  : 		return false;
; 219  : 
; 220  : 	if( !m_SkillSoundName.IsEmpty() && pChar )

  000b6	8d 8b f8 01 00
	00		 lea	 ecx, DWORD PTR [ebx+504]
  000bc	ff 15 00 00 00
	00		 call	 DWORD PTR __imp_?IsEmpty@ioHashString@@QBE_NXZ
  000c2	84 c0		 test	 al, al
  000c4	75 2a		 jne	 SHORT $LN6@OnSkillSta
  000c6	3b f7		 cmp	 esi, edi
  000c8	74 26		 je	 SHORT $LN6@OnSkillSta

; 221  : 	{
; 222  : 		ioEntityGroup *pGrp = pChar->GetGroup();

  000ca	8b 4e 04	 mov	 ecx, DWORD PTR [esi+4]

; 223  : 		m_SkillSoundID = g_SoundMgr.PlaySound( m_SkillSoundName, pGrp->GetParentSceneNode() );

  000cd	8b 01		 mov	 eax, DWORD PTR [ecx]
  000cf	6a 04		 push	 4
  000d1	ff 50 34	 call	 DWORD PTR [eax+52]
  000d4	50		 push	 eax
  000d5	8d 83 f8 01 00
	00		 lea	 eax, DWORD PTR [ebx+504]
  000db	50		 push	 eax
  000dc	ff 15 00 00 00
	00		 call	 DWORD PTR __imp_?GetSingleton@ioSoundManager@@SAAAV1@XZ
  000e2	8b c8		 mov	 ecx, eax
  000e4	ff 15 00 00 00
	00		 call	 DWORD PTR __imp_?PlaySoundA@ioSoundManager@@QAEKABVioHashString@@PAVioSceneNode@@K@Z
  000ea	89 83 08 02 00
	00		 mov	 DWORD PTR [ebx+520], eax
$LN6@OnSkillSta:

; 224  : 	}
; 225  : 
; 226  : 	m_dwCurSkillProtectTime = 0;

  000f0	89 bb 74 11 00
	00		 mov	 DWORD PTR [ebx+4468], edi

; 227  : 	if( m_dwSkillProtectTime > 0 )

  000f6	39 bb 70 11 00
	00		 cmp	 DWORD PTR [ebx+4464], edi
  000fc	76 1a		 jbe	 SHORT $LN5@OnSkillSta

; 228  : 		m_dwCurSkillProtectTime = FRAMEGETTIME() + m_dwSkillProtectTime;

  000fe	ff 15 00 00 00
	00		 call	 DWORD PTR __imp_?GetSingleton@ioFrameTimer@@SAAAV1@XZ
  00104	8b c8		 mov	 ecx, eax
  00106	ff 15 00 00 00
	00		 call	 DWORD PTR __imp_?GetLoopSec@ioFrameTimer@@QBEKXZ
  0010c	03 83 70 11 00
	00		 add	 eax, DWORD PTR [ebx+4464]
  00112	89 83 74 11 00
	00		 mov	 DWORD PTR [ebx+4468], eax
$LN5@OnSkillSta:

; 229  : 
; 230  : 	m_stTargetName.Clear();

  00118	8d 8b b8 13 00
	00		 lea	 ecx, DWORD PTR [ebx+5048]
  0011e	ff 15 00 00 00
	00		 call	 DWORD PTR __imp_?Clear@ioHashString@@QAEXXZ

; 231  : 	ioChargeComboBowItem *pCCBI = ToChargeComboBowItem( GetOwnerItem() );

  00124	ff b3 a4 02 00
	00		 push	 DWORD PTR [ebx+676]
  0012a	e8 00 00 00 00	 call	 ?ToChargeComboBowItem@@YAPAVioChargeComboBowItem@@PAVioItem@@@Z ; ToChargeComboBowItem
  0012f	59		 pop	 ecx

; 232  : 	if( pCCBI )

  00130	3b c7		 cmp	 eax, edi
  00132	74 28		 je	 SHORT $LN4@OnSkillSta

; 233  : 		m_stTargetName = pCCBI->GetTargetName();

  00134	8b 10		 mov	 edx, DWORD PTR [eax]
  00136	8d 4d a4	 lea	 ecx, DWORD PTR $T616171[ebp]
  00139	51		 push	 ecx
  0013a	8b c8		 mov	 ecx, eax
  0013c	ff 52 38	 call	 DWORD PTR [edx+56]
  0013f	50		 push	 eax
  00140	8d 8b b8 13 00
	00		 lea	 ecx, DWORD PTR [ebx+5048]
  00146	89 7d fc	 mov	 DWORD PTR __$EHRec$[ebp+8], edi
  00149	ff 15 00 00 00
	00		 call	 DWORD PTR __imp_??4ioHashString@@QAEAAV0@ABV0@@Z
  0014f	83 4d fc ff	 or	 DWORD PTR __$EHRec$[ebp+8], -1
  00153	8d 4d a4	 lea	 ecx, DWORD PTR $T616171[ebp]
  00156	ff 15 00 00 00
	00		 call	 DWORD PTR __imp_??1ioHashString@@QAE@XZ
$LN4@OnSkillSta:

; 234  : 
; 235  : 	if( m_SkillUseType == SUT_JUMP && m_bCheckJumpNoDrop )

  0015c	83 7b 74 01	 cmp	 DWORD PTR [ebx+116], 1
  00160	0f 57 c0	 xorps	 xmm0, xmm0
  00163	75 3c		 jne	 SHORT $LN30@OnSkillSta
  00165	80 bb c9 13 00
	00 00		 cmp	 BYTE PTR [ebx+5065], 0
  0016c	74 33		 je	 SHORT $LN30@OnSkillSta

; 236  : 	{
; 237  : 		pChar->SetCurJumpPowerAmt( 0.0f );
; 238  : 		pChar->SetGravityAmt( 0.0f );

  0016e	8d 45 b8	 lea	 eax, DWORD PTR _value$616202[ebp]
  00171	50		 push	 eax
  00172	8d 8e e8 0b 00
	00		 lea	 ecx, DWORD PTR [esi+3048]
  00178	f3 0f 11 86 90
	0e 00 00	 movss	 DWORD PTR [esi+3728], xmm0
  00180	f3 0f 11 45 b8	 movss	 DWORD PTR _value$616202[ebp], xmm0
  00185	e8 00 00 00 00	 call	 ?EncryptValueToPool@?$CEncrypt@M@@AAEXPBD@Z ; CEncrypt<float>::EncryptValueToPool

; 239  : 		pChar->SetForcePowerAmt( 0.0f );

  0018a	0f 57 c0	 xorps	 xmm0, xmm0
  0018d	8d 45 b8	 lea	 eax, DWORD PTR _value$616212[ebp]
  00190	50		 push	 eax
  00191	8d 8e 88 0b 00
	00		 lea	 ecx, DWORD PTR [esi+2952]
  00197	f3 0f 11 45 b8	 movss	 DWORD PTR _value$616212[ebp], xmm0
  0019c	e8 00 00 00 00	 call	 ?EncryptValueToPool@?$CEncrypt@M@@AAEXPBD@Z ; CEncrypt<float>::EncryptValueToPool
$LN30@OnSkillSta:

; 240  : 	}
; 241  : 
; 242  : 	if( !m_stAreaMapEffect.IsEmpty() )

  001a1	8d 8b d0 13 00
	00		 lea	 ecx, DWORD PTR [ebx+5072]
  001a7	ff 15 00 00 00
	00		 call	 DWORD PTR __imp_?IsEmpty@ioHashString@@QBE_NXZ
  001ad	84 c0		 test	 al, al
  001af	0f 85 53 01 00
	00		 jne	 $LN1@OnSkillSta

; 243  : 	{
; 244  : 		D3DXVECTOR3 vScale = pChar->GetWorldScale();

  001b5	8b 06		 mov	 eax, DWORD PTR [esi]
  001b7	8b ce		 mov	 ecx, esi
  001b9	ff 50 78	 call	 DWORD PTR [eax+120]
  001bc	8b f0		 mov	 esi, eax
  001be	8d 7d cc	 lea	 edi, DWORD PTR _vScale$608371[ebp]
  001c1	a5		 movsd
  001c2	a5		 movsd
  001c3	a5		 movsd

; 245  : 		D3DXVECTOR3 vPos = pChar->GetMidPositionByRate();

  001c4	b8 05 00 00 00	 mov	 eax, 5
  001c9	8b c8		 mov	 ecx, eax
  001cb	b8 0a 00 00 00	 mov	 eax, 10			; 0000000aH
  001d0	89 4d b8	 mov	 DWORD PTR tv585[ebp], ecx
  001d3	db 45 b8	 fild	 DWORD PTR tv585[ebp]
  001d6	85 c9		 test	 ecx, ecx
  001d8	79 06		 jns	 SHORT $LN50@OnSkillSta
  001da	d8 05 00 00 00
	00		 fadd	 DWORD PTR __real@4f800000
$LN50@OnSkillSta:
  001e0	89 45 b8	 mov	 DWORD PTR tv581[ebp], eax
  001e3	db 45 b8	 fild	 DWORD PTR tv581[ebp]
  001e6	85 c0		 test	 eax, eax
  001e8	79 06		 jns	 SHORT $LN51@OnSkillSta
  001ea	d8 05 00 00 00
	00		 fadd	 DWORD PTR __real@4f800000
$LN51@OnSkillSta:
  001f0	de f9		 fdivp	 ST(1), ST(0)
  001f2	8b 75 b4	 mov	 esi, DWORD PTR _pChar$GSCopy$[ebp]
  001f5	51		 push	 ecx
  001f6	8d 45 d8	 lea	 eax, DWORD PTR _vPos$608372[ebp]
  001f9	8b ce		 mov	 ecx, esi
  001fb	d9 5d b8	 fstp	 DWORD PTR tv577[ebp]
  001fe	d9 45 b8	 fld	 DWORD PTR tv577[ebp]
  00201	d9 1c 24	 fstp	 DWORD PTR [esp]
  00204	50		 push	 eax
  00205	e8 00 00 00 00	 call	 ?GetMidPositionByRate@ioGameEntity@@QBE?AUD3DXVECTOR3@@M@Z ; ioGameEntity::GetMidPositionByRate

; 246  : 		D3DXVECTOR3 vLook = pChar->GetTargetRot() * D3DXVECTOR3( 0.f, 0.f, -1.f );

  0020a	0f 57 c0	 xorps	 xmm0, xmm0
  0020d	8d 45 c0	 lea	 eax, DWORD PTR $T608375[ebp]
  00210	50		 push	 eax
  00211	81 c6 a4 06 00
	00		 add	 esi, 1700		; 000006a4H
  00217	8d 45 e4	 lea	 eax, DWORD PTR _vLook$608374[ebp]
  0021a	f3 0f 11 45 c0	 movss	 DWORD PTR $T608375[ebp], xmm0
  0021f	f3 0f 11 45 c4	 movss	 DWORD PTR $T608375[ebp+4], xmm0
  00224	f3 0f 10 05 00
	00 00 00	 movss	 xmm0, DWORD PTR __real@bf800000
  0022c	56		 push	 esi
  0022d	50		 push	 eax
  0022e	f3 0f 11 45 c8	 movss	 DWORD PTR $T608375[ebp+8], xmm0
  00233	ff 15 00 00 00
	00		 call	 DWORD PTR __imp_??D@YA?AUD3DXVECTOR3@@ABUD3DXQUATERNION@@ABU0@@Z
  00239	83 c4 0c	 add	 esp, 12			; 0000000cH

; 247  : 		D3DXVec3Normalize( &vLook, &vLook );

  0023c	8d 45 e4	 lea	 eax, DWORD PTR _vLook$608374[ebp]
  0023f	50		 push	 eax
  00240	50		 push	 eax
  00241	e8 00 00 00 00	 call	 _D3DXVec3Normalize@8

; 248  : 
; 249  : 		vPos = vPos + vLook* m_fAreaMapEffectLookOffset;

  00246	f3 0f 10 83 e0
	13 00 00	 movss	 xmm0, DWORD PTR [ebx+5088]
  0024e	f3 0f 10 55 e4	 movss	 xmm2, DWORD PTR _vLook$608374[ebp]
  00253	0f 5a c8	 cvtps2pd xmm1, xmm0
  00256	0f 5a d8	 cvtps2pd xmm3, xmm0
  00259	0f 5a d2	 cvtps2pd xmm2, xmm2
  0025c	f2 0f 59 ca	 mulsd	 xmm1, xmm2
  00260	f3 0f 10 55 e8	 movss	 xmm2, DWORD PTR _vLook$608374[ebp+4]
  00265	66 0f 5a c9	 cvtpd2ps xmm1, xmm1
  00269	0f 5a d2	 cvtps2pd xmm2, xmm2
  0026c	f2 0f 59 d3	 mulsd	 xmm2, xmm3
  00270	f3 0f 10 5d ec	 movss	 xmm3, DWORD PTR _vLook$608374[ebp+8]
  00275	0f 5a c0	 cvtps2pd xmm0, xmm0
  00278	f3 0f 5a c9	 cvtss2sd xmm1, xmm1
  0027c	0f 5a db	 cvtps2pd xmm3, xmm3
  0027f	f2 0f 59 d8	 mulsd	 xmm3, xmm0

; 250  : 
; 251  : 		ioMapEffect *pMapEffect = pChar->CreateMapEffectBySkill( m_stAreaMapEffect, vPos, vScale );

  00283	8b 4d b4	 mov	 ecx, DWORD PTR _pChar$GSCopy$[ebp]
  00286	0f 57 c0	 xorps	 xmm0, xmm0
  00289	66 0f 5a c3	 cvtpd2ps xmm0, xmm3
  0028d	f3 0f 10 5d d8	 movss	 xmm3, DWORD PTR _vPos$608372[ebp]
  00292	0f 5a db	 cvtps2pd xmm3, xmm3
  00295	f2 0f 58 d9	 addsd	 xmm3, xmm1
  00299	0f 57 c9	 xorps	 xmm1, xmm1
  0029c	66 0f 5a cb	 cvtpd2ps xmm1, xmm3
  002a0	f3 0f 11 4d a8	 movss	 DWORD PTR $T608378[ebp], xmm1
  002a5	f3 0f 10 4d dc	 movss	 xmm1, DWORD PTR _vPos$608372[ebp+4]
  002aa	0f 5a c9	 cvtps2pd xmm1, xmm1
  002ad	66 0f 5a d2	 cvtpd2ps xmm2, xmm2
  002b1	0f 5a c0	 cvtps2pd xmm0, xmm0
  002b4	f3 0f 5a d2	 cvtss2sd xmm2, xmm2
  002b8	f2 0f 58 ca	 addsd	 xmm1, xmm2
  002bc	66 0f 5a c9	 cvtpd2ps xmm1, xmm1
  002c0	f3 0f 11 4d ac	 movss	 DWORD PTR $T608378[ebp+4], xmm1
  002c5	f3 0f 10 4d e0	 movss	 xmm1, DWORD PTR _vPos$608372[ebp+8]
  002ca	0f 5a c9	 cvtps2pd xmm1, xmm1
  002cd	f2 0f 58 c8	 addsd	 xmm1, xmm0
  002d1	66 0f 5a c1	 cvtpd2ps xmm0, xmm1
  002d5	f3 0f 11 45 b0	 movss	 DWORD PTR $T608378[ebp+8], xmm0
  002da	8d 75 a8	 lea	 esi, DWORD PTR $T608378[ebp]
  002dd	8d 7d d8	 lea	 edi, DWORD PTR _vPos$608372[ebp]
  002e0	a5		 movsd
  002e1	8d 45 cc	 lea	 eax, DWORD PTR _vScale$608371[ebp]
  002e4	50		 push	 eax
  002e5	8d 45 d8	 lea	 eax, DWORD PTR _vPos$608372[ebp]
  002e8	a5		 movsd
  002e9	50		 push	 eax
  002ea	8d 83 d0 13 00
	00		 lea	 eax, DWORD PTR [ebx+5072]
  002f0	50		 push	 eax
  002f1	a5		 movsd
  002f2	e8 00 00 00 00	 call	 ?CreateMapEffectBySkill@ioBaseChar@@QAEPAVioMapEffect@@ABVioHashString@@ABUD3DXVECTOR3@@AAU4@@Z ; ioBaseChar::CreateMapEffectBySkill

; 252  : 		if( pMapEffect )

  002f7	85 c0		 test	 eax, eax
  002f9	74 0d		 je	 SHORT $LN1@OnSkillSta

; 253  : 		{
; 254  : 			//pMapEffect->SetWorldOrientation( pChar->GetWorldOrientation() );
; 255  : 			m_dwAreMapEffectID = pMapEffect->GetUniqueID();

  002fb	8b c8		 mov	 ecx, eax
  002fd	e8 00 00 00 00	 call	 ?GetUniqueID@ioMapEffect@@QBEKXZ ; ioMapEffect::GetUniqueID
  00302	89 83 cc 13 00
	00		 mov	 DWORD PTR [ebx+5068], eax
$LN1@OnSkillSta:

; 256  : 		}
; 257  : 	}
; 258  : 
; 259  : 	return true;

  00308	b0 01		 mov	 al, 1
$LN9@OnSkillSta:

; 260  : }

  0030a	e8 00 00 00 00	 call	 __EH_epilog3_GS
  0030f	c2 04 00	 ret	 4
_TEXT	ENDS
;	COMDAT text$x
text$x	SEGMENT
__unwindfunclet$?OnSkillStart@ioLinearComboSkill2@@UAE_NPAVioBaseChar@@@Z$0:
  00000	8d 4d a4	 lea	 ecx, DWORD PTR $T616171[ebp]
  00003	ff 25 00 00 00
	00		 jmp	 DWORD PTR __imp_??1ioHashString@@QAE@XZ
__ehhandler$?OnSkillStart@ioLinearComboSkill2@@UAE_NPAVioBaseChar@@@Z:
  00009	8b 54 24 08	 mov	 edx, DWORD PTR [esp+8]
  0000d	8d 42 0c	 lea	 eax, DWORD PTR [edx+12]
  00010	8b 4a a0	 mov	 ecx, DWORD PTR [edx-96]
  00013	33 c8		 xor	 ecx, eax
  00015	e8 00 00 00 00	 call	 @__security_check_cookie@4
  0001a	8b 4a fc	 mov	 ecx, DWORD PTR [edx-4]
  0001d	33 c8		 xor	 ecx, eax
  0001f	e8 00 00 00 00	 call	 @__security_check_cookie@4
  00024	b8 00 00 00 00	 mov	 eax, OFFSET __ehfuncinfo$?OnSkillStart@ioLinearComboSkill2@@UAE_NPAVioBaseChar@@@Z
  00029	e9 00 00 00 00	 jmp	 ___CxxFrameHandler3
text$x	ENDS
?OnSkillStart@ioLinearComboSkill2@@UAE_NPAVioBaseChar@@@Z ENDP ; ioLinearComboSkill2::OnSkillStart
PUBLIC	?AttackSkillFire@ioLinearComboSkill2@@MAEXPAVioBaseChar@@@Z ; ioLinearComboSkill2::AttackSkillFire
EXTRN	?AttackSkillFire@ioAttackSkill@@MAEXPAVioBaseChar@@@Z:PROC ; ioAttackSkill::AttackSkillFire
; Function compile flags: /Ogsp
;	COMDAT ?AttackSkillFire@ioLinearComboSkill2@@MAEXPAVioBaseChar@@@Z
_TEXT	SEGMENT
_pChar$ = 8						; size = 4
_value$616269 = 11					; size = 1
?AttackSkillFire@ioLinearComboSkill2@@MAEXPAVioBaseChar@@@Z PROC ; ioLinearComboSkill2::AttackSkillFire, COMDAT
; _this$ = ecx

; 263  : {

  00000	55		 push	 ebp
  00001	8b ec		 mov	 ebp, esp
  00003	56		 push	 esi

; 264  : 	ioAttackSkill::AttackSkillFire( pChar );

  00004	ff 75 08	 push	 DWORD PTR _pChar$[ebp]
  00007	8b f1		 mov	 esi, ecx
  00009	e8 00 00 00 00	 call	 ?AttackSkillFire@ioAttackSkill@@MAEXPAVioBaseChar@@@Z ; ioAttackSkill::AttackSkillFire

; 265  : 
; 266  : 	SetSkillActionState( pChar );

  0000e	ff 75 08	 push	 DWORD PTR _pChar$[ebp]
  00011	8b ce		 mov	 ecx, esi
  00013	e8 00 00 00 00	 call	 ?SetSkillActionState@ioLinearComboSkill2@@IAEXPAVioBaseChar@@@Z ; ioLinearComboSkill2::SetSkillActionState

; 267  : 	m_bSetAttackFire = true;

  00018	8d 45 0b	 lea	 eax, DWORD PTR _value$616269[ebp]
  0001b	50		 push	 eax
  0001c	8d 8e d4 12 00
	00		 lea	 ecx, DWORD PTR [esi+4820]
  00022	c6 45 0b 01	 mov	 BYTE PTR _value$616269[ebp], 1
  00026	e8 00 00 00 00	 call	 ?EncryptValueToPool@?$CEncrypt@_N@@AAEXPBD@Z ; CEncrypt<bool>::EncryptValueToPool

; 268  : 	m_SkillState = SS_ACTION;

  0002b	c7 86 e4 10 00
	00 01 00 00 00	 mov	 DWORD PTR [esi+4324], 1
  00035	5e		 pop	 esi

; 269  : }

  00036	5d		 pop	 ebp
  00037	c2 04 00	 ret	 4
?AttackSkillFire@ioLinearComboSkill2@@MAEXPAVioBaseChar@@@Z ENDP ; ioLinearComboSkill2::AttackSkillFire
_TEXT	ENDS
PUBLIC	?OnSkillEnd@ioLinearComboSkill2@@UAEXPAVioBaseChar@@@Z ; ioLinearComboSkill2::OnSkillEnd
EXTRN	?DestroyMapEffect@ioBaseChar@@QAEXK@Z:PROC	; ioBaseChar::DestroyMapEffect
EXTRN	__imp_?StopSound@ioSoundManager@@QAEXABVioHashString@@K@Z:PROC
EXTRN	?SetSkillMoveEnable@ioBaseChar@@QAEX_N0@Z:PROC	; ioBaseChar::SetSkillMoveEnable
EXTRN	?RestoreSkillWeaponMesh@ioBaseChar@@QAE_NPAVioSkill@@ABVioHashString@@_N2@Z:PROC ; ioBaseChar::RestoreSkillWeaponMesh
EXTRN	?OnSkillEnd@ioAttackSkill@@UAEXPAVioBaseChar@@@Z:PROC ; ioAttackSkill::OnSkillEnd
; Function compile flags: /Ogsp
;	COMDAT ?OnSkillEnd@ioLinearComboSkill2@@UAEXPAVioBaseChar@@@Z
_TEXT	SEGMENT
_value$616287 = -1					; size = 1
_value$616283 = -1					; size = 1
_pChar$ = 8						; size = 4
?OnSkillEnd@ioLinearComboSkill2@@UAEXPAVioBaseChar@@@Z PROC ; ioLinearComboSkill2::OnSkillEnd, COMDAT
; _this$ = ecx

; 337  : {

  00000	55		 push	 ebp
  00001	8b ec		 mov	 ebp, esp
  00003	51		 push	 ecx
  00004	53		 push	 ebx
  00005	56		 push	 esi

; 338  : 	ioAttackSkill::OnSkillEnd( pChar );

  00006	ff 75 08	 push	 DWORD PTR _pChar$[ebp]
  00009	8b f1		 mov	 esi, ecx
  0000b	e8 00 00 00 00	 call	 ?OnSkillEnd@ioAttackSkill@@UAEXPAVioBaseChar@@@Z ; ioAttackSkill::OnSkillEnd

; 339  : 
; 340  : 	if( GetOwnerItem() )

  00010	8b 8e a4 02 00
	00		 mov	 ecx, DWORD PTR [esi+676]
  00016	33 db		 xor	 ebx, ebx
  00018	3b cb		 cmp	 ecx, ebx
  0001a	74 08		 je	 SHORT $LN5@OnSkillEnd

; 341  : 		GetOwnerItem()->ClearCurChargeRateForSkill();

  0001c	8b 01		 mov	 eax, DWORD PTR [ecx]
  0001e	ff 90 84 00 00
	00		 call	 DWORD PTR [eax+132]
$LN5@OnSkillEnd:

; 342  : 
; 343  : 	//  
; 344  : 	if( m_bUseItemMesh )

  00024	38 9e 08 0f 00
	00		 cmp	 BYTE PTR [esi+3848], bl
  0002a	74 0b		 je	 SHORT $LN4@OnSkillEnd

; 345  : 	{
; 346  : 		pChar->ShowWeaponItemMesh( true );

  0002c	8b 4d 08	 mov	 ecx, DWORD PTR _pChar$[ebp]
  0002f	53		 push	 ebx
  00030	6a 01		 push	 1
  00032	e8 00 00 00 00	 call	 ?ShowWeaponItemMesh@ioBaseChar@@QAEX_N0@Z ; ioBaseChar::ShowWeaponItemMesh
$LN4@OnSkillEnd:

; 347  : 	}
; 348  : 
; 349  : 
; 350  : 	if( !m_HandMesh.IsEmpty() )

  00037	57		 push	 edi
  00038	8d be f8 0e 00
	00		 lea	 edi, DWORD PTR [esi+3832]
  0003e	8b cf		 mov	 ecx, edi
  00040	ff 15 00 00 00
	00		 call	 DWORD PTR __imp_?IsEmpty@ioHashString@@QBE_NXZ
  00046	84 c0		 test	 al, al
  00048	75 13		 jne	 SHORT $LN16@OnSkillEnd

; 351  : 	{
; 352  : 		pChar->RestoreSkillWeaponMesh( this, m_HandMesh, m_bVisibleEquipMesh );

  0004a	0f b6 86 09 0f
	00 00		 movzx	 eax, BYTE PTR [esi+3849]
  00051	8b 4d 08	 mov	 ecx, DWORD PTR _pChar$[ebp]
  00054	53		 push	 ebx
  00055	50		 push	 eax
  00056	57		 push	 edi
  00057	56		 push	 esi
  00058	e8 00 00 00 00	 call	 ?RestoreSkillWeaponMesh@ioBaseChar@@QAE_NPAVioSkill@@ABVioHashString@@_N2@Z ; ioBaseChar::RestoreSkillWeaponMesh
$LN16@OnSkillEnd:

; 353  : 	}
; 354  : 	m_bSetHandMesh = false;
; 355  : 	m_bUsedEndOtherAttack = false;
; 356  : 	m_bUsedComboList = false;

  0005d	8d 45 ff	 lea	 eax, DWORD PTR _value$616283[ebp]
  00060	50		 push	 eax
  00061	8d 8e a4 12 00
	00		 lea	 ecx, DWORD PTR [esi+4772]
  00067	88 9e 0a 0f 00
	00		 mov	 BYTE PTR [esi+3850], bl
  0006d	88 9e 81 11 00
	00		 mov	 BYTE PTR [esi+4481], bl
  00073	88 5d ff	 mov	 BYTE PTR _value$616283[ebp], bl
  00076	e8 00 00 00 00	 call	 ?EncryptValueToPool@?$CEncrypt@_N@@AAEXPBD@Z ; CEncrypt<bool>::EncryptValueToPool

; 357  : 	m_bSetAttackFire = false;

  0007b	8d 45 ff	 lea	 eax, DWORD PTR _value$616287[ebp]
  0007e	50		 push	 eax
  0007f	8d 8e d4 12 00
	00		 lea	 ecx, DWORD PTR [esi+4820]
  00085	88 5d ff	 mov	 BYTE PTR _value$616287[ebp], bl
  00088	e8 00 00 00 00	 call	 ?EncryptValueToPool@?$CEncrypt@_N@@AAEXPBD@Z ; CEncrypt<bool>::EncryptValueToPool

; 358  : 
; 359  : 	m_iCurLinearCombo = 0;
; 360  : 	m_dwEnableReserveTime = 0;
; 361  : 
; 362  : 	m_CurDirKey = ioUserKeyInput::DKI_NONE;
; 363  : 
; 364  : 	pChar->SetSkillMoveEnable( false, false );

  0008d	8b 4d 08	 mov	 ecx, DWORD PTR _pChar$[ebp]
  00090	53		 push	 ebx
  00091	53		 push	 ebx
  00092	89 9e 68 11 00
	00		 mov	 DWORD PTR [esi+4456], ebx
  00098	89 9e dc 02 00
	00		 mov	 DWORD PTR [esi+732], ebx
  0009e	89 9e 04 13 00
	00		 mov	 DWORD PTR [esi+4868], ebx
  000a4	e8 00 00 00 00	 call	 ?SetSkillMoveEnable@ioBaseChar@@QAEX_N0@Z ; ioBaseChar::SetSkillMoveEnable

; 365  : 
; 366  : 	if( !m_SkillSoundName.IsEmpty() )

  000a9	8d 9e f8 01 00
	00		 lea	 ebx, DWORD PTR [esi+504]
  000af	8b cb		 mov	 ecx, ebx
  000b1	ff 15 00 00 00
	00		 call	 DWORD PTR __imp_?IsEmpty@ioHashString@@QBE_NXZ
  000b7	5f		 pop	 edi
  000b8	84 c0		 test	 al, al
  000ba	75 15		 jne	 SHORT $LN2@OnSkillEnd

; 367  : 	{
; 368  : 		g_SoundMgr.StopSound( m_SkillSoundName, m_SkillSoundID );

  000bc	ff b6 08 02 00
	00		 push	 DWORD PTR [esi+520]
  000c2	53		 push	 ebx
  000c3	ff 15 00 00 00
	00		 call	 DWORD PTR __imp_?GetSingleton@ioSoundManager@@SAAAV1@XZ
  000c9	8b c8		 mov	 ecx, eax
  000cb	ff 15 00 00 00
	00		 call	 DWORD PTR __imp_?StopSound@ioSoundManager@@QAEXABVioHashString@@K@Z
$LN2@OnSkillEnd:

; 369  : 		//g_SoundMgr.StopSound( m_SkillSoundName, 0 );
; 370  : 	}
; 371  : 
; 372  : 	if( m_dwAreMapEffectID != -1 )

  000d1	8b 86 cc 13 00
	00		 mov	 eax, DWORD PTR [esi+5068]
  000d7	83 f8 ff	 cmp	 eax, -1
  000da	74 10		 je	 SHORT $LN1@OnSkillEnd

; 373  : 	{
; 374  : 		pChar->DestroyMapEffect( m_dwAreMapEffectID );

  000dc	8b 4d 08	 mov	 ecx, DWORD PTR _pChar$[ebp]
  000df	50		 push	 eax
  000e0	e8 00 00 00 00	 call	 ?DestroyMapEffect@ioBaseChar@@QAEXK@Z ; ioBaseChar::DestroyMapEffect

; 375  : 		m_dwAreMapEffectID = -1;

  000e5	83 8e cc 13 00
	00 ff		 or	 DWORD PTR [esi+5068], -1
$LN1@OnSkillEnd:
  000ec	5e		 pop	 esi
  000ed	5b		 pop	 ebx

; 376  : 	}
; 377  : }

  000ee	c9		 leave
  000ef	c2 04 00	 ret	 4
?OnSkillEnd@ioLinearComboSkill2@@UAEXPAVioBaseChar@@@Z ENDP ; ioLinearComboSkill2::OnSkillEnd
_TEXT	ENDS
PUBLIC	__real@3f800000
PUBLIC	__real@3ff0000000000000
PUBLIC	__real@00000000
PUBLIC	__real@41f0000000000000
PUBLIC	__real@42c80000
PUBLIC	_pChar$GSCopy$
PUBLIC	__$ArrayPad$
PUBLIC	?SetLastAttack@ioLinearComboSkill2@@IAEXPAVioBaseChar@@@Z ; ioLinearComboSkill2::SetLastAttack
EXTRN	??1SP2Packet@@UAE@XZ:PROC			; SP2Packet::~SP2Packet
EXTRN	?SendToAllPlayingUser@P2PNetwork@@YAXAAVSP2Packet@@PAVioBaseChar@@@Z:PROC ; P2PNetwork::SendToAllPlayingUser
EXTRN	?FillAutoTargetInfo@ioBaseChar@@QAEXAAVSP2Packet@@@Z:PROC ; ioBaseChar::FillAutoTargetInfo
EXTRN	??6SP2Packet@@QAEAAV0@H@Z:PROC			; SP2Packet::operator<<
EXTRN	??6SP2Packet@@QAEAAV0@ABVioHashString@@@Z:PROC	; SP2Packet::operator<<
EXTRN	??0SP2Packet@@QAE@K@Z:PROC			; SP2Packet::SP2Packet
EXTRN	?SetReservedSliding@ioBaseChar@@QAEXABV?$vector@UForceInfo@@V?$allocator@UForceInfo@@@std@@@std@@HMKM_N@Z:PROC ; ioBaseChar::SetReservedSliding
EXTRN	?SetAutoTargetTrackingEndTime@ioBaseChar@@QAEXK@Z:PROC ; ioBaseChar::SetAutoTargetTrackingEndTime
EXTRN	?SetExtraAniJump@ioSkill@@IAEXPAVioBaseChar@@HM@Z:PROC ; ioSkill::SetExtraAniJump
EXTRN	?CheckCharColSkipSkillTime@ioBaseChar@@QAEXHMK@Z:PROC ; ioBaseChar::CheckCharColSkipSkillTime
EXTRN	__imp_?SetActionAni@ioEntityGroup@@QAE_NHMMMMMM_N0@Z:PROC
EXTRN	__imp_?GetAnimationFullTime@ioEntityGroup@@QAEMH@Z:PROC
EXTRN	?RefreshFireTimeListWithBase@ioBaseChar@@QAEXKHABV?$vector@UWeaponInfo@@V?$allocator@UWeaponInfo@@@std@@@std@@W4FireTimeType@@MK_N@Z:PROC ; ioBaseChar::RefreshFireTimeListWithBase
EXTRN	?SetAutoTarget@ioBaseChar@@QAEXW4AutoTargetType@@@Z:PROC ; ioBaseChar::SetAutoTarget
EXTRN	__imp_?ClearAllActionAni@ioEntityGroup@@QAEXM_N@Z:PROC
EXTRN	__imp_?ClearAllLoopAni@ioEntityGroup@@QAEXM_N@Z:PROC
EXTRN	?InitActionStopDelay@ioBaseChar@@QAEX_N@Z:PROC	; ioBaseChar::InitActionStopDelay
EXTRN	__imp_?GetAnimationIdx@ioEntityGroup@@QAEHABVioHashString@@@Z:PROC
EXTRN	?SetTargetRotToDirKey@ioBaseChar@@QAEXW4DirKeyInput@ioUserKeyInput@@@Z:PROC ; ioBaseChar::SetTargetRotToDirKey
EXTRN	?CheckCurDirKey@ioBaseChar@@QAE?AW4DirKeyInput@ioUserKeyInput@@XZ:PROC ; ioBaseChar::CheckCurDirKey
EXTRN	?IsSettedDirection@ioBaseChar@@QBE_NXZ:PROC	; ioBaseChar::IsSettedDirection
EXTRN	?ClearSkillReserveKey@ioBaseChar@@QAEXXZ:PROC	; ioBaseChar::ClearSkillReserveKey
EXTRN	__chkstk:PROC
EXTRN	__ftol2:PROC
;	COMDAT __real@3f800000
; File d:\lost saga for developer\youtube\tutorial\source\src\lsclient\ioskill.h
CONST	SEGMENT
__real@3f800000 DD 03f800000r			; 1
CONST	ENDS
;	COMDAT __real@3ff0000000000000
CONST	SEGMENT
__real@3ff0000000000000 DQ 03ff0000000000000r	; 1
CONST	ENDS
;	COMDAT __real@00000000
CONST	SEGMENT
__real@00000000 DD 000000000r			; 0
CONST	ENDS
;	COMDAT __real@41f0000000000000
CONST	SEGMENT
__real@41f0000000000000 DQ 041f0000000000000r	; 4.29497e+009
CONST	ENDS
;	COMDAT __real@42c80000
CONST	SEGMENT
__real@42c80000 DD 042c80000r			; 100
CONST	ENDS
;	COMDAT xdata$x
xdata$x	SEGMENT
__ehfuncinfo$?SetLastAttack@ioLinearComboSkill2@@IAEXPAVioBaseChar@@@Z DD 019930522H
	DD	05H
	DD	FLAT:__unwindtable$?SetLastAttack@ioLinearComboSkill2@@IAEXPAVioBaseChar@@@Z
	DD	2 DUP(00H)
	DD	2 DUP(00H)
	DD	00H
	DD	01H
__unwindtable$?SetLastAttack@ioLinearComboSkill2@@IAEXPAVioBaseChar@@@Z DD 0ffffffffH
	DD	FLAT:__unwindfunclet$?SetLastAttack@ioLinearComboSkill2@@IAEXPAVioBaseChar@@@Z$1
	DD	0ffffffffH
	DD	FLAT:__unwindfunclet$?SetLastAttack@ioLinearComboSkill2@@IAEXPAVioBaseChar@@@Z$2
	DD	0ffffffffH
	DD	FLAT:__unwindfunclet$?SetLastAttack@ioLinearComboSkill2@@IAEXPAVioBaseChar@@@Z$3
	DD	0ffffffffH
	DD	FLAT:__unwindfunclet$?SetLastAttack@ioLinearComboSkill2@@IAEXPAVioBaseChar@@@Z$4
	DD	0ffffffffH
	DD	FLAT:__unwindfunclet$?SetLastAttack@ioLinearComboSkill2@@IAEXPAVioBaseChar@@@Z$0
; Function compile flags: /Ogsp
; File d:\lost saga for developer\youtube\tutorial\source\src\lsclient\iolinearcomboskill2.cpp
xdata$x	ENDS
;	COMDAT ?SetLastAttack@ioLinearComboSkill2@@IAEXPAVioBaseChar@@@Z
_TEXT	SEGMENT
$T616707 = -32872					; size = 16
$T616577 = -32872					; size = 16
$T616545 = -32872					; size = 16
$T616415 = -32872					; size = 16
tv3965 = -32856						; size = 4
tv3952 = -32856						; size = 4
tv3947 = -32856						; size = 4
tv3922 = -32856						; size = 4
_pChar$GSCopy$ = -32852					; size = 4
_pGrp$ = -32848						; size = 4
_dwTrackingTime$ = -32844				; size = 4
_dwCurTime$ = -32844					; size = 4
_dwPreDelay$ = -32840					; size = 4
tv3983 = -32836						; size = 4
$T616706 = -32836					; size = 4
$T616576 = -32836					; size = 4
$T616544 = -32836					; size = 4
_fAttackEnd$ = -32836					; size = 4
_fTimeRate$ = -32832					; size = 4
_iAniID$ = -32828					; size = 4
_kPacket$608480 = -32824				; size = 32792
_szEncEventType$616720 = -32				; size = 11
_szEncEventType$616590 = -32				; size = 12
_szEncEventType$616445 = -32				; size = 11
_szEncEventType$616315 = -28				; size = 7
__$ArrayPad$ = -16					; size = 4
__$EHRec$ = -12						; size = 12
_pChar$ = 8						; size = 4
?SetLastAttack@ioLinearComboSkill2@@IAEXPAVioBaseChar@@@Z PROC ; ioLinearComboSkill2::SetLastAttack, COMDAT
; _this$ = ecx

; 427  : {

  00000	55		 push	 ebp
  00001	8b ec		 mov	 ebp, esp
  00003	6a ff		 push	 -1
  00005	68 00 00 00 00	 push	 __ehhandler$?SetLastAttack@ioLinearComboSkill2@@IAEXPAVioBaseChar@@@Z
  0000a	64 a1 00 00 00
	00		 mov	 eax, DWORD PTR fs:0
  00010	50		 push	 eax
  00011	b8 5c 80 00 00	 mov	 eax, 32860		; 0000805cH
  00016	e8 00 00 00 00	 call	 __chkstk
  0001b	a1 00 00 00 00	 mov	 eax, DWORD PTR ___security_cookie
  00020	33 c5		 xor	 eax, ebp
  00022	89 45 f0	 mov	 DWORD PTR __$ArrayPad$[ebp], eax
  00025	53		 push	 ebx
  00026	56		 push	 esi
  00027	57		 push	 edi
  00028	50		 push	 eax
  00029	8d 45 f4	 lea	 eax, DWORD PTR __$EHRec$[ebp]
  0002c	64 a3 00 00 00
	00		 mov	 DWORD PTR fs:0, eax
  00032	8b 7d 08	 mov	 edi, DWORD PTR _pChar$[ebp]
  00035	8b f1		 mov	 esi, ecx

; 496  : 	dwTrackingTime += pGrp->GetAnimationEventTime_e( iAniID, "tracking_e" ) * fTimeRate;

  00037	89 bd ac 7f ff
	ff		 mov	 DWORD PTR _pChar$GSCopy$[ebp], edi
  0003d	85 ff		 test	 edi, edi
  0003f	0f 84 29 06 00
	00		 je	 $LN2@SetLastAtt

; 428  : 	if( !pChar ) return;
; 429  : 
; 430  : 	m_dwEnableReserveTime = 0;
; 431  : 	pChar->ClearSkillReserveKey();

  00045	83 a6 dc 02 00
	00 00		 and	 DWORD PTR [esi+732], 0
  0004c	8b cf		 mov	 ecx, edi
  0004e	e8 00 00 00 00	 call	 ?ClearSkillReserveKey@ioBaseChar@@QAEXXZ ; ioBaseChar::ClearSkillReserveKey

; 432  : 
; 433  : 	m_SkillState = SS_LAST_ATTACK;
; 434  : 	m_CurDirKey = ioUserKeyInput::DKI_NONE;

  00053	83 a6 04 13 00
	00 00		 and	 DWORD PTR [esi+4868], 0
  0005a	c7 86 e4 10 00
	00 04 00 00 00	 mov	 DWORD PTR [esi+4324], 4

; 435  : 
; 436  : 	if( pChar->IsNeedProcess() && pChar->IsSettedDirection() && m_bUseChangeDirection )

  00064	8b 07		 mov	 eax, DWORD PTR [edi]
  00066	8b cf		 mov	 ecx, edi
  00068	ff 90 00 01 00
	00		 call	 DWORD PTR [eax+256]
  0006e	84 c0		 test	 al, al
  00070	74 29		 je	 SHORT $LN8@SetLastAtt
  00072	8b cf		 mov	 ecx, edi
  00074	e8 00 00 00 00	 call	 ?IsSettedDirection@ioBaseChar@@QBE_NXZ ; ioBaseChar::IsSettedDirection
  00079	84 c0		 test	 al, al
  0007b	74 1e		 je	 SHORT $LN8@SetLastAtt
  0007d	80 be c8 13 00
	00 00		 cmp	 BYTE PTR [esi+5064], 0
  00084	74 15		 je	 SHORT $LN8@SetLastAtt

; 437  : 	{
; 438  : 		ioUserKeyInput::DirKeyInput eNewDirKey = pChar->CheckCurDirKey();

  00086	8b cf		 mov	 ecx, edi
  00088	e8 00 00 00 00	 call	 ?CheckCurDirKey@ioBaseChar@@QAE?AW4DirKeyInput@ioUserKeyInput@@XZ ; ioBaseChar::CheckCurDirKey

; 439  : 		m_CurDirKey = eNewDirKey;
; 440  : 		pChar->SetTargetRotToDirKey( eNewDirKey );

  0008d	50		 push	 eax
  0008e	8b cf		 mov	 ecx, edi
  00090	89 86 04 13 00
	00		 mov	 DWORD PTR [esi+4868], eax
  00096	e8 00 00 00 00	 call	 ?SetTargetRotToDirKey@ioBaseChar@@QAEXW4DirKeyInput@ioUserKeyInput@@@Z ; ioBaseChar::SetTargetRotToDirKey
$LN8@SetLastAtt:

; 441  : 	}
; 442  : 
; 443  : 	ioEntityGroup *pGrp = pChar->GetGroup();

  0009b	8b 5f 04	 mov	 ebx, DWORD PTR [edi+4]

; 444  : 
; 445  : 	int iAniID = pGrp->GetAnimationIdx( m_LastAttack.m_AttackAnimation );

  0009e	8d 86 18 11 00
	00		 lea	 eax, DWORD PTR [esi+4376]
  000a4	50		 push	 eax
  000a5	8b cb		 mov	 ecx, ebx
  000a7	89 9d b0 7f ff
	ff		 mov	 DWORD PTR _pGrp$[ebp], ebx
  000ad	ff 15 00 00 00
	00		 call	 DWORD PTR __imp_?GetAnimationIdx@ioEntityGroup@@QAEHABVioHashString@@@Z
  000b3	89 85 c4 7f ff
	ff		 mov	 DWORD PTR _iAniID$[ebp], eax

; 446  : 	if( iAniID == -1 )	return;

  000b9	83 f8 ff	 cmp	 eax, -1
  000bc	0f 84 ac 05 00
	00		 je	 $LN2@SetLastAtt

; 447  : 
; 448  : 	pChar->InitActionStopDelay( true );

  000c2	6a 01		 push	 1
  000c4	8b cf		 mov	 ecx, edi
  000c6	e8 00 00 00 00	 call	 ?InitActionStopDelay@ioBaseChar@@QAEX_N@Z ; ioBaseChar::InitActionStopDelay

; 449  : 
; 450  : 	float fTimeRate = m_LastAttack.m_fAttackAniRate;

  000cb	f3 0f 10 86 28
	11 00 00	 movss	 xmm0, DWORD PTR [esi+4392]

; 451  : 	DWORD dwPreDelay = m_LastAttack.m_dwPreDelay;

  000d3	8b 86 60 11 00
	00		 mov	 eax, DWORD PTR [esi+4448]

; 452  : 
; 453  : 	pGrp->ClearAllLoopAni( 100.0f, true );

  000d9	6a 01		 push	 1
  000db	51		 push	 ecx
  000dc	f3 0f 11 85 c0
	7f ff ff	 movss	 DWORD PTR _fTimeRate$[ebp], xmm0
  000e4	f3 0f 10 05 00
	00 00 00	 movss	 xmm0, DWORD PTR __real@42c80000
  000ec	8b cb		 mov	 ecx, ebx
  000ee	89 85 b8 7f ff
	ff		 mov	 DWORD PTR _dwPreDelay$[ebp], eax
  000f4	f3 0f 11 04 24	 movss	 DWORD PTR [esp], xmm0
  000f9	ff 15 00 00 00
	00		 call	 DWORD PTR __imp_?ClearAllLoopAni@ioEntityGroup@@QAEXM_N@Z

; 454  : 	pGrp->ClearAllActionAni( 100.0f, true );

  000ff	f3 0f 10 05 00
	00 00 00	 movss	 xmm0, DWORD PTR __real@42c80000
  00107	6a 01		 push	 1
  00109	51		 push	 ecx
  0010a	8b cb		 mov	 ecx, ebx
  0010c	f3 0f 11 04 24	 movss	 DWORD PTR [esp], xmm0
  00111	ff 15 00 00 00
	00		 call	 DWORD PTR __imp_?ClearAllActionAni@ioEntityGroup@@QAEXM_N@Z

; 455  : 
; 456  : 	if( IsUseAutoTargetValue() )

  00117	8b 06		 mov	 eax, DWORD PTR [esi]
  00119	8b ce		 mov	 ecx, esi
  0011b	ff 90 e0 00 00
	00		 call	 DWORD PTR [eax+224]
  00121	84 c0		 test	 al, al
  00123	74 09		 je	 SHORT $LN6@SetLastAtt

; 457  : 	{
; 458  : 		pChar->SetAutoTarget( ATT_SKILL );

  00125	6a 04		 push	 4
  00127	8b cf		 mov	 ecx, edi
  00129	e8 00 00 00 00	 call	 ?SetAutoTarget@ioBaseChar@@QAEXW4AutoTargetType@@@Z ; ioBaseChar::SetAutoTarget
$LN6@SetLastAtt:

; 459  : 	}
; 460  : 
; 461  : 	pChar->RefreshFireTimeListWithBase( m_dwWeaponBaseIndex+m_iCurLinearCombo+1,
; 462  : 		iAniID,
; 463  : 		m_LastAttack.m_vWeaponInfoList,
; 464  : 		FTT_SKILL_ATTACK,
; 465  : 		fTimeRate,
; 466  : 		dwPreDelay );

  0012e	f3 0f 10 85 c0
	7f ff ff	 movss	 xmm0, DWORD PTR _fTimeRate$[ebp]
  00136	6a 00		 push	 0
  00138	ff b5 b8 7f ff
	ff		 push	 DWORD PTR _dwPreDelay$[ebp]
  0013e	8d 86 40 11 00
	00		 lea	 eax, DWORD PTR [esi+4416]
  00144	51		 push	 ecx
  00145	8b 4e 78	 mov	 ecx, DWORD PTR [esi+120]
  00148	f3 0f 11 04 24	 movss	 DWORD PTR [esp], xmm0
  0014d	6a 04		 push	 4
  0014f	50		 push	 eax
  00150	8b 86 68 11 00
	00		 mov	 eax, DWORD PTR [esi+4456]
  00156	ff b5 c4 7f ff
	ff		 push	 DWORD PTR _iAniID$[ebp]
  0015c	8d 44 08 01	 lea	 eax, DWORD PTR [eax+ecx+1]
  00160	50		 push	 eax
  00161	8b cf		 mov	 ecx, edi
  00163	e8 00 00 00 00	 call	 ?RefreshFireTimeListWithBase@ioBaseChar@@QAEXKHABV?$vector@UWeaponInfo@@V?$allocator@UWeaponInfo@@@std@@@std@@W4FireTimeType@@MK_N@Z ; ioBaseChar::RefreshFireTimeListWithBase

; 467  : 
; 468  : 	DWORD dwCurTime = FRAMEGETTIME();

  00168	ff 15 00 00 00
	00		 call	 DWORD PTR __imp_?GetSingleton@ioFrameTimer@@SAAAV1@XZ
  0016e	8b c8		 mov	 ecx, eax
  00170	ff 15 00 00 00
	00		 call	 DWORD PTR __imp_?GetLoopSec@ioFrameTimer@@QBEKXZ

; 469  : 	m_dwMotionEndTime = dwCurTime;
; 470  : 	m_dwMotionEndTime += pGrp->GetAnimationFullTime( iAniID ) * fTimeRate;

  00176	ff b5 c4 7f ff
	ff		 push	 DWORD PTR _iAniID$[ebp]
  0017c	8b cb		 mov	 ecx, ebx
  0017e	89 85 b4 7f ff
	ff		 mov	 DWORD PTR _dwCurTime$[ebp], eax
  00184	89 86 d8 02 00
	00		 mov	 DWORD PTR [esi+728], eax
  0018a	ff 15 00 00 00
	00		 call	 DWORD PTR __imp_?GetAnimationFullTime@ioEntityGroup@@QAEMH@Z

; 471  : 	m_dwMotionEndTime += dwPreDelay + m_LastAttack.m_dwEndDelay;

  00190	d8 8d c0 7f ff
	ff		 fmul	 DWORD PTR _fTimeRate$[ebp]
  00196	8b 86 d8 02 00
	00		 mov	 eax, DWORD PTR [esi+728]
  0019c	db 86 d8 02 00
	00		 fild	 DWORD PTR [esi+728]
  001a2	85 c0		 test	 eax, eax
  001a4	79 06		 jns	 SHORT $LN465@SetLastAtt
  001a6	dc 05 00 00 00
	00		 fadd	 QWORD PTR __real@41f0000000000000
$LN465@SetLastAtt:

; 469  : 	m_dwMotionEndTime = dwCurTime;
; 470  : 	m_dwMotionEndTime += pGrp->GetAnimationFullTime( iAniID ) * fTimeRate;

  001ac	de c1		 faddp	 ST(1), ST(0)

; 471  : 	m_dwMotionEndTime += dwPreDelay + m_LastAttack.m_dwEndDelay;

  001ae	e8 00 00 00 00	 call	 __ftol2
  001b3	03 86 64 11 00
	00		 add	 eax, DWORD PTR [esi+4452]

; 472  : 
; 473  : 	DWORD dwFireStartTime;
; 474  : 	dwFireStartTime = dwCurTime;
; 475  : 
; 476  : 	dwFireStartTime += dwPreDelay;
; 477  : 	dwFireStartTime += pGrp->GetAnimationEventTime_e( iAniID, "fire_s" ) * fTimeRate;

  001b9	6a 04		 push	 4
  001bb	03 85 b8 7f ff
	ff		 add	 eax, DWORD PTR _dwPreDelay$[ebp]
  001c1	c7 45 e4 8b 85
	99 8f		 mov	 DWORD PTR _szEncEventType$616315[ebp], -1885764213 ; 8f99858bH
  001c8	81 75 e4 ed ec
	eb ea		 xor	 DWORD PTR _szEncEventType$616315[ebp], -353637139 ; eaebecedH
  001cf	89 86 d8 02 00
	00		 mov	 DWORD PTR [esi+728], eax
  001d5	66 c7 45 e8 b2
	9f		 mov	 WORD PTR _szEncEventType$616315[ebp+4], 40882 ; 00009fb2H
  001db	c6 45 ea 00	 mov	 BYTE PTR _szEncEventType$616315[ebp+6], 0
  001df	5f		 pop	 edi
$LL116@SetLastAtt:
  001e0	8b c7		 mov	 eax, edi
  001e2	25 03 00 00 80	 and	 eax, -2147483645	; 80000003H
  001e7	79 05		 jns	 SHORT $LN466@SetLastAtt
  001e9	48		 dec	 eax
  001ea	83 c8 fc	 or	 eax, -4			; fffffffcH
  001ed	40		 inc	 eax
$LN466@SetLastAtt:
  001ee	b1 ed		 mov	 cl, -19			; ffffffedH
  001f0	2a c8		 sub	 cl, al
  001f2	30 4c 3d e4	 xor	 BYTE PTR _szEncEventType$616315[ebp+edi], cl
  001f6	47		 inc	 edi
  001f7	83 ff 06	 cmp	 edi, 6
  001fa	7c e4		 jl	 SHORT $LL116@SetLastAtt
  001fc	8b 3d 00 00 00
	00		 mov	 edi, DWORD PTR __imp_??0ioHashString@@QAE@PBD@Z
  00202	8d 45 e4	 lea	 eax, DWORD PTR _szEncEventType$616315[ebp]
  00205	50		 push	 eax
  00206	8d 8d 98 7f ff
	ff		 lea	 ecx, DWORD PTR $T616415[ebp]
  0020c	ff d7		 call	 edi
  0020e	83 65 fc 00	 and	 DWORD PTR __$EHRec$[ebp+8], 0
  00212	8d 85 98 7f ff
	ff		 lea	 eax, DWORD PTR $T616415[ebp]
  00218	50		 push	 eax
  00219	ff b5 c4 7f ff
	ff		 push	 DWORD PTR _iAniID$[ebp]
  0021f	8b cb		 mov	 ecx, ebx
  00221	ff 15 00 00 00
	00		 call	 DWORD PTR __imp_?GetAnimationEventTime@ioEntityGroup@@QAEMHABVioHashString@@@Z
  00227	dd d8		 fstp	 ST(0)
  00229	8b 1d 00 00 00
	00		 mov	 ebx, DWORD PTR __imp_??1ioHashString@@QAE@XZ
  0022f	83 4d fc ff	 or	 DWORD PTR __$EHRec$[ebp+8], -1
  00233	8d 8d 98 7f ff
	ff		 lea	 ecx, DWORD PTR $T616415[ebp]
  00239	ff d3		 call	 ebx
  0023b	6a 02		 push	 2

; 478  : 
; 479  : 	float fAttackEnd = pGrp->GetAnimationEventTime_e( iAniID, "attack_end" ) * fTimeRate;

  0023d	c7 45 e0 8c 98
	9f 8b		 mov	 DWORD PTR _szEncEventType$616445[ebp], -1952474996 ; 8b9f988cH
  00244	c7 45 e4 8e 87
	b4 8f		 mov	 DWORD PTR _szEncEventType$616445[ebp+4], -1883994226 ; 8fb4878eH
  0024b	66 c7 45 e8 83
	88		 mov	 WORD PTR _szEncEventType$616445[ebp+8], 34947 ; 00008883H
  00251	8d 45 e0	 lea	 eax, DWORD PTR _szEncEventType$616445[ebp]
  00254	c6 45 ea 00	 mov	 BYTE PTR _szEncEventType$616445[ebp+10], 0
  00258	59		 pop	 ecx
$LL226@SetLastAtt:
  00259	81 30 ed ec eb
	ea		 xor	 DWORD PTR [eax], -353637139 ; eaebecedH
  0025f	83 c0 04	 add	 eax, 4
  00262	49		 dec	 ecx
  00263	75 f4		 jne	 SHORT $LL226@SetLastAtt
  00265	6a 08		 push	 8
  00267	58		 pop	 eax
$LL223@SetLastAtt:
  00268	8b c8		 mov	 ecx, eax
  0026a	81 e1 03 00 00
	80		 and	 ecx, -2147483645	; 80000003H
  00270	79 05		 jns	 SHORT $LN467@SetLastAtt
  00272	49		 dec	 ecx
  00273	83 c9 fc	 or	 ecx, -4			; fffffffcH
  00276	41		 inc	 ecx
$LN467@SetLastAtt:
  00277	b2 ed		 mov	 dl, -19			; ffffffedH
  00279	2a d1		 sub	 dl, cl
  0027b	30 54 05 e0	 xor	 BYTE PTR _szEncEventType$616445[ebp+eax], dl
  0027f	40		 inc	 eax
  00280	83 f8 0a	 cmp	 eax, 10			; 0000000aH
  00283	7c e3		 jl	 SHORT $LL223@SetLastAtt
  00285	8d 45 e0	 lea	 eax, DWORD PTR _szEncEventType$616445[ebp]
  00288	50		 push	 eax
  00289	8d 8d 98 7f ff
	ff		 lea	 ecx, DWORD PTR $T616545[ebp]
  0028f	ff d7		 call	 edi
  00291	8b 8d b0 7f ff
	ff		 mov	 ecx, DWORD PTR _pGrp$[ebp]
  00297	8d 85 98 7f ff
	ff		 lea	 eax, DWORD PTR $T616545[ebp]
  0029d	50		 push	 eax
  0029e	ff b5 c4 7f ff
	ff		 push	 DWORD PTR _iAniID$[ebp]
  002a4	c7 45 fc 01 00
	00 00		 mov	 DWORD PTR __$EHRec$[ebp+8], 1
  002ab	ff 15 00 00 00
	00		 call	 DWORD PTR __imp_?GetAnimationEventTime@ioEntityGroup@@QAEMHABVioHashString@@@Z
  002b1	d9 9d bc 7f ff
	ff		 fstp	 DWORD PTR $T616544[ebp]
  002b7	83 4d fc ff	 or	 DWORD PTR __$EHRec$[ebp+8], -1
  002bb	8d 8d 98 7f ff
	ff		 lea	 ecx, DWORD PTR $T616545[ebp]
  002c1	ff d3		 call	 ebx
  002c3	f3 0f 10 85 bc
	7f ff ff	 movss	 xmm0, DWORD PTR $T616544[ebp]
  002cb	f3 0f 10 8d c0
	7f ff ff	 movss	 xmm1, DWORD PTR _fTimeRate$[ebp]
  002d3	0f 5a c0	 cvtps2pd xmm0, xmm0
  002d6	0f 5a c9	 cvtps2pd xmm1, xmm1
  002d9	f2 0f 59 c1	 mulsd	 xmm0, xmm1
  002dd	66 0f 5a c0	 cvtpd2ps xmm0, xmm0

; 480  : 	if( fAttackEnd > 0.0f )

  002e1	0f 2f 05 00 00
	00 00		 comiss	 xmm0, DWORD PTR __real@00000000
  002e8	f3 0f 11 85 bc
	7f ff ff	 movss	 DWORD PTR _fAttackEnd$[ebp], xmm0
  002f0	76 29		 jbe	 SHORT $LN5@SetLastAtt

; 481  : 		m_dwAttackEndTime = dwCurTime + fAttackEnd;

  002f2	8b 85 b4 7f ff
	ff		 mov	 eax, DWORD PTR _dwCurTime$[ebp]
  002f8	db 85 b4 7f ff
	ff		 fild	 DWORD PTR _dwCurTime$[ebp]
  002fe	85 c0		 test	 eax, eax
  00300	79 06		 jns	 SHORT $LN468@SetLastAtt
  00302	d8 05 00 00 00
	00		 fadd	 DWORD PTR __real@4f800000
$LN468@SetLastAtt:
  00308	d8 85 bc 7f ff
	ff		 fadd	 DWORD PTR _fAttackEnd$[ebp]
  0030e	e8 00 00 00 00	 call	 __ftol2
  00313	89 86 50 10 00
	00		 mov	 DWORD PTR [esi+4176], eax

; 482  : 	else

  00319	eb 07		 jmp	 SHORT $LN4@SetLastAtt
$LN5@SetLastAtt:

; 483  : 		m_dwAttackEndTime = 0;

  0031b	83 a6 50 10 00
	00 00		 and	 DWORD PTR [esi+4176], 0
$LN4@SetLastAtt:

; 484  : 
; 485  : 	m_dwEnableReserveTime = dwCurTime;

  00322	8b 85 b4 7f ff
	ff		 mov	 eax, DWORD PTR _dwCurTime$[ebp]
  00328	6a 02		 push	 2
  0032a	89 86 dc 02 00
	00		 mov	 DWORD PTR [esi+732], eax

; 486  : 	m_dwEnableReserveTime += pGrp->GetAnimationEventTime_e( iAniID, "key_reserve" ) * fTimeRate;

  00330	c7 45 e0 86 89
	92 b5		 mov	 DWORD PTR _szEncEventType$616590[ebp], -1248687738 ; b5928986H
  00337	c7 45 e4 9f 89
	98 8f		 mov	 DWORD PTR _szEncEventType$616590[ebp+4], -1885828705 ; 8f98899fH
  0033e	8d 45 e0	 lea	 eax, DWORD PTR _szEncEventType$616590[ebp]
  00341	c7 45 e8 9f 9a
	8e 00		 mov	 DWORD PTR _szEncEventType$616590[ebp+8], 9345695 ; 008e9a9fH
  00348	59		 pop	 ecx
$LL333@SetLastAtt:
  00349	81 30 ed ec eb
	ea		 xor	 DWORD PTR [eax], -353637139 ; eaebecedH
  0034f	83 c0 04	 add	 eax, 4
  00352	49		 dec	 ecx
  00353	75 f4		 jne	 SHORT $LL333@SetLastAtt
  00355	6a 08		 push	 8
  00357	58		 pop	 eax
$LL330@SetLastAtt:
  00358	8b c8		 mov	 ecx, eax
  0035a	81 e1 03 00 00
	80		 and	 ecx, -2147483645	; 80000003H
  00360	79 05		 jns	 SHORT $LN469@SetLastAtt
  00362	49		 dec	 ecx
  00363	83 c9 fc	 or	 ecx, -4			; fffffffcH
  00366	41		 inc	 ecx
$LN469@SetLastAtt:
  00367	b2 ed		 mov	 dl, -19			; ffffffedH
  00369	2a d1		 sub	 dl, cl
  0036b	30 54 05 e0	 xor	 BYTE PTR _szEncEventType$616590[ebp+eax], dl
  0036f	40		 inc	 eax
  00370	83 f8 0b	 cmp	 eax, 11			; 0000000bH
  00373	7c e3		 jl	 SHORT $LL330@SetLastAtt
  00375	8d 45 e0	 lea	 eax, DWORD PTR _szEncEventType$616590[ebp]
  00378	50		 push	 eax
  00379	8d 8d 98 7f ff
	ff		 lea	 ecx, DWORD PTR $T616577[ebp]
  0037f	ff d7		 call	 edi
  00381	8b 8d b0 7f ff
	ff		 mov	 ecx, DWORD PTR _pGrp$[ebp]
  00387	8d 85 98 7f ff
	ff		 lea	 eax, DWORD PTR $T616577[ebp]
  0038d	50		 push	 eax
  0038e	ff b5 c4 7f ff
	ff		 push	 DWORD PTR _iAniID$[ebp]
  00394	c7 45 fc 02 00
	00 00		 mov	 DWORD PTR __$EHRec$[ebp+8], 2
  0039b	ff 15 00 00 00
	00		 call	 DWORD PTR __imp_?GetAnimationEventTime@ioEntityGroup@@QAEMHABVioHashString@@@Z
  003a1	d9 9d bc 7f ff
	ff		 fstp	 DWORD PTR $T616576[ebp]
  003a7	83 4d fc ff	 or	 DWORD PTR __$EHRec$[ebp+8], -1
  003ab	8d 8d 98 7f ff
	ff		 lea	 ecx, DWORD PTR $T616577[ebp]
  003b1	ff d3		 call	 ebx
  003b3	d9 85 bc 7f ff
	ff		 fld	 DWORD PTR $T616576[ebp]
  003b9	8b 86 dc 02 00
	00		 mov	 eax, DWORD PTR [esi+732]
  003bf	d8 8d c0 7f ff
	ff		 fmul	 DWORD PTR _fTimeRate$[ebp]
  003c5	db 86 dc 02 00
	00		 fild	 DWORD PTR [esi+732]
  003cb	85 c0		 test	 eax, eax
  003cd	79 06		 jns	 SHORT $LN470@SetLastAtt
  003cf	dc 05 00 00 00
	00		 fadd	 QWORD PTR __real@41f0000000000000
$LN470@SetLastAtt:
  003d5	de c1		 faddp	 ST(1), ST(0)
  003d7	e8 00 00 00 00	 call	 __ftol2

; 487  : 
; 488  : 	pGrp->SetActionAni( iAniID, 100.0f, 100.0f, 1.0f, 1.0f/fTimeRate, 0.0f, dwPreDelay, true );

  003dc	db 85 b8 7f ff
	ff		 fild	 DWORD PTR _dwPreDelay$[ebp]
  003e2	89 86 dc 02 00
	00		 mov	 DWORD PTR [esi+732], eax
  003e8	8b 85 b8 7f ff
	ff		 mov	 eax, DWORD PTR _dwPreDelay$[ebp]
  003ee	6a 01		 push	 1
  003f0	6a 01		 push	 1
  003f2	85 c0		 test	 eax, eax
  003f4	79 06		 jns	 SHORT $LN471@SetLastAtt
  003f6	d8 05 00 00 00
	00		 fadd	 DWORD PTR __real@4f800000
$LN471@SetLastAtt:
  003fc	0f 57 c0	 xorps	 xmm0, xmm0
  003ff	f2 0f 10 0d 00
	00 00 00	 movsd	 xmm1, QWORD PTR __real@3ff0000000000000
  00407	8b 8d b0 7f ff
	ff		 mov	 ecx, DWORD PTR _pGrp$[ebp]
  0040d	83 ec 18	 sub	 esp, 24			; 00000018H
  00410	d9 5c 24 14	 fstp	 DWORD PTR [esp+20]
  00414	f3 0f 11 44 24
	10		 movss	 DWORD PTR [esp+16], xmm0
  0041a	f3 0f 10 85 c0
	7f ff ff	 movss	 xmm0, DWORD PTR _fTimeRate$[ebp]
  00422	0f 5a c0	 cvtps2pd xmm0, xmm0
  00425	f2 0f 5e c8	 divsd	 xmm1, xmm0
  00429	66 0f 5a c1	 cvtpd2ps xmm0, xmm1
  0042d	f3 0f 11 44 24
	0c		 movss	 DWORD PTR [esp+12], xmm0
  00433	f3 0f 10 05 00
	00 00 00	 movss	 xmm0, DWORD PTR __real@3f800000
  0043b	f3 0f 11 44 24
	08		 movss	 DWORD PTR [esp+8], xmm0
  00441	f3 0f 10 05 00
	00 00 00	 movss	 xmm0, DWORD PTR __real@42c80000
  00449	f3 0f 11 44 24
	04		 movss	 DWORD PTR [esp+4], xmm0
  0044f	f3 0f 11 04 24	 movss	 DWORD PTR [esp], xmm0
  00454	ff b5 c4 7f ff
	ff		 push	 DWORD PTR _iAniID$[ebp]
  0045a	ff 15 00 00 00
	00		 call	 DWORD PTR __imp_?SetActionAni@ioEntityGroup@@QAE_NHMMMMMM_N0@Z

; 489  : 
; 490  : 	pChar->CheckCharColSkipSkillTime( iAniID, fTimeRate, dwPreDelay );

  00460	ff b5 b8 7f ff
	ff		 push	 DWORD PTR _dwPreDelay$[ebp]
  00466	f3 0f 10 85 c0
	7f ff ff	 movss	 xmm0, DWORD PTR _fTimeRate$[ebp]
  0046e	51		 push	 ecx
  0046f	8b 8d ac 7f ff
	ff		 mov	 ecx, DWORD PTR _pChar$GSCopy$[ebp]
  00475	f3 0f 11 04 24	 movss	 DWORD PTR [esp], xmm0
  0047a	ff b5 c4 7f ff
	ff		 push	 DWORD PTR _iAniID$[ebp]
  00480	e8 00 00 00 00	 call	 ?CheckCharColSkipSkillTime@ioBaseChar@@QAEXHMK@Z ; ioBaseChar::CheckCharColSkipSkillTime

; 491  : 
; 492  : 	SetExtraAniJump( pChar, iAniID, fTimeRate );

  00485	f3 0f 10 85 c0
	7f ff ff	 movss	 xmm0, DWORD PTR _fTimeRate$[ebp]
  0048d	51		 push	 ecx
  0048e	f3 0f 11 04 24	 movss	 DWORD PTR [esp], xmm0
  00493	ff b5 c4 7f ff
	ff		 push	 DWORD PTR _iAniID$[ebp]
  00499	8b ce		 mov	 ecx, esi
  0049b	ff b5 ac 7f ff
	ff		 push	 DWORD PTR _pChar$GSCopy$[ebp]
  004a1	e8 00 00 00 00	 call	 ?SetExtraAniJump@ioSkill@@IAEXPAVioBaseChar@@HM@Z ; ioSkill::SetExtraAniJump

; 493  : 
; 494  : 	//
; 495  : 	DWORD dwTrackingTime = dwCurTime + dwPreDelay;

  004a6	8b 85 b4 7f ff
	ff		 mov	 eax, DWORD PTR _dwCurTime$[ebp]
  004ac	03 85 b8 7f ff
	ff		 add	 eax, DWORD PTR _dwPreDelay$[ebp]
  004b2	6a 02		 push	 2
  004b4	89 85 b4 7f ff
	ff		 mov	 DWORD PTR _dwTrackingTime$[ebp], eax

; 496  : 	dwTrackingTime += pGrp->GetAnimationEventTime_e( iAniID, "tracking_e" ) * fTimeRate;

  004ba	c7 45 e0 99 9e
	8a 89		 mov	 DWORD PTR _szEncEventType$616720[ebp], -1987404135 ; 898a9e99H
  004c1	c7 45 e4 86 85
	85 8d		 mov	 DWORD PTR _szEncEventType$616720[ebp+4], -1920629370 ; 8d858586H
  004c8	66 c7 45 e8 b2
	89		 mov	 WORD PTR _szEncEventType$616720[ebp+8], 35250 ; 000089b2H
  004ce	8d 45 e0	 lea	 eax, DWORD PTR _szEncEventType$616720[ebp]
  004d1	c6 45 ea 00	 mov	 BYTE PTR _szEncEventType$616720[ebp+10], 0
  004d5	59		 pop	 ecx
$LL440@SetLastAtt:
  004d6	81 30 ed ec eb
	ea		 xor	 DWORD PTR [eax], -353637139 ; eaebecedH
  004dc	83 c0 04	 add	 eax, 4
  004df	49		 dec	 ecx
  004e0	75 f4		 jne	 SHORT $LL440@SetLastAtt
  004e2	6a 08		 push	 8
  004e4	58		 pop	 eax
$LL437@SetLastAtt:
  004e5	8b c8		 mov	 ecx, eax
  004e7	81 e1 03 00 00
	80		 and	 ecx, -2147483645	; 80000003H
  004ed	79 05		 jns	 SHORT $LN472@SetLastAtt
  004ef	49		 dec	 ecx
  004f0	83 c9 fc	 or	 ecx, -4			; fffffffcH
  004f3	41		 inc	 ecx
$LN472@SetLastAtt:
  004f4	b2 ed		 mov	 dl, -19			; ffffffedH
  004f6	2a d1		 sub	 dl, cl
  004f8	30 54 05 e0	 xor	 BYTE PTR _szEncEventType$616720[ebp+eax], dl
  004fc	40		 inc	 eax
  004fd	83 f8 0a	 cmp	 eax, 10			; 0000000aH
  00500	7c e3		 jl	 SHORT $LL437@SetLastAtt
  00502	8d 45 e0	 lea	 eax, DWORD PTR _szEncEventType$616720[ebp]
  00505	50		 push	 eax
  00506	8d 8d 98 7f ff
	ff		 lea	 ecx, DWORD PTR $T616707[ebp]
  0050c	ff d7		 call	 edi
  0050e	8b 8d b0 7f ff
	ff		 mov	 ecx, DWORD PTR _pGrp$[ebp]
  00514	8d 85 98 7f ff
	ff		 lea	 eax, DWORD PTR $T616707[ebp]
  0051a	50		 push	 eax
  0051b	ff b5 c4 7f ff
	ff		 push	 DWORD PTR _iAniID$[ebp]
  00521	c7 45 fc 03 00
	00 00		 mov	 DWORD PTR __$EHRec$[ebp+8], 3
  00528	ff 15 00 00 00
	00		 call	 DWORD PTR __imp_?GetAnimationEventTime@ioEntityGroup@@QAEMHABVioHashString@@@Z
  0052e	d9 9d bc 7f ff
	ff		 fstp	 DWORD PTR $T616706[ebp]
  00534	83 4d fc ff	 or	 DWORD PTR __$EHRec$[ebp+8], -1
  00538	8d 8d 98 7f ff
	ff		 lea	 ecx, DWORD PTR $T616707[ebp]
  0053e	ff d3		 call	 ebx
  00540	d9 85 bc 7f ff
	ff		 fld	 DWORD PTR $T616706[ebp]
  00546	8b 85 b4 7f ff
	ff		 mov	 eax, DWORD PTR _dwTrackingTime$[ebp]
  0054c	d8 8d c0 7f ff
	ff		 fmul	 DWORD PTR _fTimeRate$[ebp]
  00552	db 85 b4 7f ff
	ff		 fild	 DWORD PTR _dwTrackingTime$[ebp]
  00558	85 c0		 test	 eax, eax
  0055a	79 06		 jns	 SHORT $LN473@SetLastAtt
  0055c	dc 05 00 00 00
	00		 fadd	 QWORD PTR __real@41f0000000000000
$LN473@SetLastAtt:
  00562	de c1		 faddp	 ST(1), ST(0)
  00564	e8 00 00 00 00	 call	 __ftol2
  00569	8b f8		 mov	 edi, eax

; 497  : 
; 498  : 	if( IsUseAutoTargetValue() )

  0056b	8b 06		 mov	 eax, DWORD PTR [esi]
  0056d	8b ce		 mov	 ecx, esi
  0056f	ff 90 e0 00 00
	00		 call	 DWORD PTR [eax+224]
  00575	84 c0		 test	 al, al
  00577	74 10		 je	 SHORT $LN463@SetLastAtt

; 499  : 	{
; 500  : 		pChar->SetAutoTargetTrackingEndTime( dwTrackingTime );

  00579	57		 push	 edi
  0057a	8b bd ac 7f ff
	ff		 mov	 edi, DWORD PTR _pChar$GSCopy$[ebp]
  00580	8b cf		 mov	 ecx, edi
  00582	e8 00 00 00 00	 call	 ?SetAutoTargetTrackingEndTime@ioBaseChar@@QAEXK@Z ; ioBaseChar::SetAutoTargetTrackingEndTime
  00587	eb 06		 jmp	 SHORT $LN3@SetLastAtt
$LN463@SetLastAtt:
  00589	8b bd ac 7f ff
	ff		 mov	 edi, DWORD PTR _pChar$GSCopy$[ebp]
$LN3@SetLastAtt:

; 501  : 	}
; 502  : 
; 503  : 	//
; 504  : 	pChar->SetReservedSliding( m_LastAttack.m_vForceInfoList, iAniID, fTimeRate, dwPreDelay );

  0058f	f3 0f 10 05 00
	00 00 00	 movss	 xmm0, DWORD PTR __real@3f800000
  00597	6a 01		 push	 1
  00599	51		 push	 ecx
  0059a	f3 0f 11 04 24	 movss	 DWORD PTR [esp], xmm0
  0059f	ff b5 b8 7f ff
	ff		 push	 DWORD PTR _dwPreDelay$[ebp]
  005a5	f3 0f 10 85 c0
	7f ff ff	 movss	 xmm0, DWORD PTR _fTimeRate$[ebp]
  005ad	51		 push	 ecx
  005ae	f3 0f 11 04 24	 movss	 DWORD PTR [esp], xmm0
  005b3	ff b5 c4 7f ff
	ff		 push	 DWORD PTR _iAniID$[ebp]
  005b9	8d 86 50 11 00
	00		 lea	 eax, DWORD PTR [esi+4432]
  005bf	50		 push	 eax
  005c0	8b cf		 mov	 ecx, edi
  005c2	e8 00 00 00 00	 call	 ?SetReservedSliding@ioBaseChar@@QAEXABV?$vector@UForceInfo@@V?$allocator@UForceInfo@@@std@@@std@@HMKM_N@Z ; ioBaseChar::SetReservedSliding

; 505  : 
; 506  : 	if( pChar->IsNeedSendNetwork() )

  005c7	8b 07		 mov	 eax, DWORD PTR [edi]
  005c9	8b cf		 mov	 ecx, edi
  005cb	ff 90 04 01 00
	00		 call	 DWORD PTR [eax+260]
  005d1	84 c0		 test	 al, al
  005d3	0f 84 95 00 00
	00		 je	 $LN2@SetLastAtt

; 507  : 	{
; 508  : 		SP2Packet kPacket( CUPK_SKILL_EXTRA_INFO );

  005d9	68 39 41 00 00	 push	 16697			; 00004139H
  005de	8d 8d c8 7f ff
	ff		 lea	 ecx, DWORD PTR _kPacket$608480[ebp]
  005e4	e8 00 00 00 00	 call	 ??0SP2Packet@@QAE@K@Z	; SP2Packet::SP2Packet

; 509  : 		kPacket << pChar->GetCharName();

  005e9	8d 87 d4 02 00
	00		 lea	 eax, DWORD PTR [edi+724]
  005ef	50		 push	 eax
  005f0	8d 8d c8 7f ff
	ff		 lea	 ecx, DWORD PTR _kPacket$608480[ebp]
  005f6	c7 45 fc 04 00
	00 00		 mov	 DWORD PTR __$EHRec$[ebp+8], 4
  005fd	e8 00 00 00 00	 call	 ??6SP2Packet@@QAEAAV0@ABVioHashString@@@Z ; SP2Packet::operator<<

; 510  : 		kPacket << GetName();

  00602	8d 46 24	 lea	 eax, DWORD PTR [esi+36]
  00605	50		 push	 eax
  00606	8d 8d c8 7f ff
	ff		 lea	 ecx, DWORD PTR _kPacket$608480[ebp]
  0060c	e8 00 00 00 00	 call	 ??6SP2Packet@@QAEAAV0@ABVioHashString@@@Z ; SP2Packet::operator<<

; 511  : 		kPacket << m_SkillState;

  00611	ff b6 e4 10 00
	00		 push	 DWORD PTR [esi+4324]
  00617	8d 8d c8 7f ff
	ff		 lea	 ecx, DWORD PTR _kPacket$608480[ebp]
  0061d	e8 00 00 00 00	 call	 ??6SP2Packet@@QAEAAV0@H@Z ; SP2Packet::operator<<

; 512  : 		kPacket << (int)m_CurDirKey;

  00622	ff b6 04 13 00
	00		 push	 DWORD PTR [esi+4868]
  00628	8d 8d c8 7f ff
	ff		 lea	 ecx, DWORD PTR _kPacket$608480[ebp]
  0062e	e8 00 00 00 00	 call	 ??6SP2Packet@@QAEAAV0@H@Z ; SP2Packet::operator<<

; 513  : 
; 514  : 		if( IsUseAutoTargetValue() )

  00633	8b 06		 mov	 eax, DWORD PTR [esi]
  00635	8b ce		 mov	 ecx, esi
  00637	ff 90 e0 00 00
	00		 call	 DWORD PTR [eax+224]
  0063d	84 c0		 test	 al, al
  0063f	74 0e		 je	 SHORT $LN1@SetLastAtt

; 515  : 		{
; 516  : 			pChar->FillAutoTargetInfo( kPacket );

  00641	8d 85 c8 7f ff
	ff		 lea	 eax, DWORD PTR _kPacket$608480[ebp]
  00647	50		 push	 eax
  00648	8b cf		 mov	 ecx, edi
  0064a	e8 00 00 00 00	 call	 ?FillAutoTargetInfo@ioBaseChar@@QAEXAAVSP2Packet@@@Z ; ioBaseChar::FillAutoTargetInfo
$LN1@SetLastAtt:

; 517  : 		}
; 518  : 		P2PNetwork::SendToAllPlayingUser( kPacket );

  0064f	8d 85 c8 7f ff
	ff		 lea	 eax, DWORD PTR _kPacket$608480[ebp]
  00655	6a 00		 push	 0
  00657	50		 push	 eax
  00658	e8 00 00 00 00	 call	 ?SendToAllPlayingUser@P2PNetwork@@YAXAAVSP2Packet@@PAVioBaseChar@@@Z ; P2PNetwork::SendToAllPlayingUser

; 519  : 	}

  0065d	83 4d fc ff	 or	 DWORD PTR __$EHRec$[ebp+8], -1
  00661	59		 pop	 ecx
  00662	59		 pop	 ecx
  00663	8d 8d c8 7f ff
	ff		 lea	 ecx, DWORD PTR _kPacket$608480[ebp]
  00669	e8 00 00 00 00	 call	 ??1SP2Packet@@UAE@XZ	; SP2Packet::~SP2Packet
$LN2@SetLastAtt:

; 520  : 	
; 521  : }

  0066e	8b 4d f4	 mov	 ecx, DWORD PTR __$EHRec$[ebp]
  00671	64 89 0d 00 00
	00 00		 mov	 DWORD PTR fs:0, ecx
  00678	59		 pop	 ecx
  00679	5f		 pop	 edi
  0067a	5e		 pop	 esi
  0067b	5b		 pop	 ebx
  0067c	8b 4d f0	 mov	 ecx, DWORD PTR __$ArrayPad$[ebp]
  0067f	33 cd		 xor	 ecx, ebp
  00681	e8 00 00 00 00	 call	 @__security_check_cookie@4
  00686	c9		 leave
  00687	c2 04 00	 ret	 4
_TEXT	ENDS
;	COMDAT text$x
text$x	SEGMENT
__unwindfunclet$?SetLastAttack@ioLinearComboSkill2@@IAEXPAVioBaseChar@@@Z$1:
  00000	8d 8d 98 7f ff
	ff		 lea	 ecx, DWORD PTR $T616415[ebp]
  00006	ff 25 00 00 00
	00		 jmp	 DWORD PTR __imp_??1ioHashString@@QAE@XZ
__unwindfunclet$?SetLastAttack@ioLinearComboSkill2@@IAEXPAVioBaseChar@@@Z$2:
  0000c	8d 8d 98 7f ff
	ff		 lea	 ecx, DWORD PTR $T616545[ebp]
  00012	ff 25 00 00 00
	00		 jmp	 DWORD PTR __imp_??1ioHashString@@QAE@XZ
__unwindfunclet$?SetLastAttack@ioLinearComboSkill2@@IAEXPAVioBaseChar@@@Z$3:
  00018	8d 8d 98 7f ff
	ff		 lea	 ecx, DWORD PTR $T616577[ebp]
  0001e	ff 25 00 00 00
	00		 jmp	 DWORD PTR __imp_??1ioHashString@@QAE@XZ
__unwindfunclet$?SetLastAttack@ioLinearComboSkill2@@IAEXPAVioBaseChar@@@Z$4:
  00024	8d 8d 98 7f ff
	ff		 lea	 ecx, DWORD PTR $T616707[ebp]
  0002a	ff 25 00 00 00
	00		 jmp	 DWORD PTR __imp_??1ioHashString@@QAE@XZ
__unwindfunclet$?SetLastAttack@ioLinearComboSkill2@@IAEXPAVioBaseChar@@@Z$0:
  00030	8d 8d c8 7f ff
	ff		 lea	 ecx, DWORD PTR _kPacket$608480[ebp]
  00036	e9 00 00 00 00	 jmp	 ??1SP2Packet@@UAE@XZ	; SP2Packet::~SP2Packet
__ehhandler$?SetLastAttack@ioLinearComboSkill2@@IAEXPAVioBaseChar@@@Z:
  0003b	8b 54 24 08	 mov	 edx, DWORD PTR [esp+8]
  0003f	8d 42 0c	 lea	 eax, DWORD PTR [edx+12]
  00042	8b 8a 94 7f ff
	ff		 mov	 ecx, DWORD PTR [edx-32876]
  00048	33 c8		 xor	 ecx, eax
  0004a	e8 00 00 00 00	 call	 @__security_check_cookie@4
  0004f	8b 4a fc	 mov	 ecx, DWORD PTR [edx-4]
  00052	33 c8		 xor	 ecx, eax
  00054	e8 00 00 00 00	 call	 @__security_check_cookie@4
  00059	b8 00 00 00 00	 mov	 eax, OFFSET __ehfuncinfo$?SetLastAttack@ioLinearComboSkill2@@IAEXPAVioBaseChar@@@Z
  0005e	e9 00 00 00 00	 jmp	 ___CxxFrameHandler3
text$x	ENDS
?SetLastAttack@ioLinearComboSkill2@@IAEXPAVioBaseChar@@@Z ENDP ; ioLinearComboSkill2::SetLastAttack
PUBLIC	?IsEnableReserve@ioLinearComboSkill2@@UBE_NXZ	; ioLinearComboSkill2::IsEnableReserve
; Function compile flags: /Ogsp
;	COMDAT ?IsEnableReserve@ioLinearComboSkill2@@UBE_NXZ
_TEXT	SEGMENT
_value$616872 = -4					; size = 4
?IsEnableReserve@ioLinearComboSkill2@@UBE_NXZ PROC	; ioLinearComboSkill2::IsEnableReserve, COMDAT
; _this$ = ecx

; 832  : {

  00000	55		 push	 ebp
  00001	8b ec		 mov	 ebp, esp
  00003	51		 push	 ecx
  00004	56		 push	 esi
  00005	8b f1		 mov	 esi, ecx

; 833  : 	if( m_dwPreDelayStartTime != 0 )

  00007	83 be 20 02 00
	00 00		 cmp	 DWORD PTR [esi+544], 0

; 834  : 		return false;

  0000e	75 3c		 jne	 SHORT $LN2@IsEnableRe

; 835  : 
; 836  : 	if( m_dwEnableReserveTime == 0 || m_dwMotionStartTime >= m_dwEnableReserveTime )

  00010	83 be dc 02 00
	00 00		 cmp	 DWORD PTR [esi+732], 0
  00017	74 33		 je	 SHORT $LN2@IsEnableRe
  00019	8d 45 fc	 lea	 eax, DWORD PTR _value$616872[ebp]
  0001c	50		 push	 eax
  0001d	8d 8e a8 02 00
	00		 lea	 ecx, DWORD PTR [esi+680]
  00023	e8 00 00 00 00	 call	 ?DecryptValueToPool@?$CEncrypt@K@@QAEXPAK@Z ; CEncrypt<unsigned long>::DecryptValueToPool
  00028	8b 45 fc	 mov	 eax, DWORD PTR _value$616872[ebp]
  0002b	3b 86 dc 02 00
	00		 cmp	 eax, DWORD PTR [esi+732]
  00031	73 19		 jae	 SHORT $LN2@IsEnableRe

; 838  : 
; 839  : 	if( m_dwEnableReserveTime < FRAMEGETTIME() )

  00033	ff 15 00 00 00
	00		 call	 DWORD PTR __imp_?GetSingleton@ioFrameTimer@@SAAAV1@XZ
  00039	8b c8		 mov	 ecx, eax
  0003b	ff 15 00 00 00
	00		 call	 DWORD PTR __imp_?GetLoopSec@ioFrameTimer@@QBEKXZ
  00041	39 86 dc 02 00
	00		 cmp	 DWORD PTR [esi+732], eax
  00047	0f 92 c0	 setb	 al

; 840  : 		return true;
; 841  : 
; 842  : 	return false;

  0004a	eb 02		 jmp	 SHORT $LN5@IsEnableRe
$LN2@IsEnableRe:

; 837  : 		return false;

  0004c	32 c0		 xor	 al, al
$LN5@IsEnableRe:
  0004e	5e		 pop	 esi

; 843  : }

  0004f	c9		 leave
  00050	c3		 ret	 0
?IsEnableReserve@ioLinearComboSkill2@@UBE_NXZ ENDP	; ioLinearComboSkill2::IsEnableReserve
_TEXT	ENDS
PUBLIC	?IsProtected@ioLinearComboSkill2@@UBE_NH@Z	; ioLinearComboSkill2::IsProtected
; Function compile flags: /Ogsp
;	COMDAT ?IsProtected@ioLinearComboSkill2@@UBE_NH@Z
_TEXT	SEGMENT
_value$616879 = -1					; size = 1
_iDefenseBreakType$ = 8					; size = 4
?IsProtected@ioLinearComboSkill2@@UBE_NH@Z PROC		; ioLinearComboSkill2::IsProtected, COMDAT
; _this$ = ecx

; 846  : {

  00000	55		 push	 ebp
  00001	8b ec		 mov	 ebp, esp
  00003	51		 push	 ecx
  00004	56		 push	 esi
  00005	8b f1		 mov	 esi, ecx

; 847  : 	if( m_bDisableSkillProtect )

  00007	8d 45 ff	 lea	 eax, DWORD PTR _value$616879[ebp]
  0000a	50		 push	 eax
  0000b	8d 8e a8 00 00
	00		 lea	 ecx, DWORD PTR [esi+168]
  00011	e8 00 00 00 00	 call	 ?DecryptValueToPool@?$CEncrypt@_N@@QAEXPA_N@Z ; CEncrypt<bool>::DecryptValueToPool
  00016	80 7d ff 00	 cmp	 BYTE PTR _value$616879[ebp], 0
  0001a	74 04		 je	 SHORT $LN12@IsProtecte
$LN22@IsProtecte:

; 848  : 		return false;

  0001c	32 c0		 xor	 al, al
  0001e	eb 73		 jmp	 SHORT $LN13@IsProtecte
$LN12@IsProtecte:

; 849  : 
; 850  : 	if( DBT_NONE != (DefenseBreakType)m_ProtectCancelType )

  00020	8b 86 a4 00 00
	00		 mov	 eax, DWORD PTR [esi+164]
  00026	85 c0		 test	 eax, eax
  00028	74 05		 je	 SHORT $LN10@IsProtecte

; 851  : 	{
; 852  : 		if( iDefenseBreakType == m_ProtectCancelType )   //   

  0002a	39 45 08	 cmp	 DWORD PTR _iDefenseBreakType$[ebp], eax

; 853  : 			return false;

  0002d	74 ed		 je	 SHORT $LN22@IsProtecte
$LN10@IsProtecte:
  0002f	57		 push	 edi

; 854  : 	}
; 855  : 
; 856  : 	DWORD dwCurTime = FRAMEGETTIME();

  00030	ff 15 00 00 00
	00		 call	 DWORD PTR __imp_?GetSingleton@ioFrameTimer@@SAAAV1@XZ
  00036	8b c8		 mov	 ecx, eax
  00038	ff 15 00 00 00
	00		 call	 DWORD PTR __imp_?GetLoopSec@ioFrameTimer@@QBEKXZ
  0003e	8b f8		 mov	 edi, eax

; 857  : 
; 858  : 	if( IsPreDelayProtect() )

  00040	8b 06		 mov	 eax, DWORD PTR [esi]
  00042	8b ce		 mov	 ecx, esi
  00044	ff 90 2c 01 00
	00		 call	 DWORD PTR [eax+300]
  0004a	84 c0		 test	 al, al
  0004c	74 0b		 je	 SHORT $LN8@IsProtecte

; 859  : 	{
; 860  : 		if( m_dwPreDelayStartTime != 0 )

  0004e	83 be 20 02 00
	00 00		 cmp	 DWORD PTR [esi+544], 0
  00055	74 0b		 je	 SHORT $LN19@IsProtecte

; 861  : 			return true;

  00057	eb 33		 jmp	 SHORT $LN21@IsProtecte
$LN8@IsProtecte:

; 862  : 	}
; 863  : 
; 864  : 	if( m_dwPreDelayStartTime == 0 )

  00059	83 be 20 02 00
	00 00		 cmp	 DWORD PTR [esi+544], 0
  00060	75 2e		 jne	 SHORT $LN3@IsProtecte
$LN19@IsProtecte:

; 865  : 	{
; 866  : 		switch( m_ProtectCheckType )

  00062	8b 86 7c 11 00
	00		 mov	 eax, DWORD PTR [esi+4476]
  00068	48		 dec	 eax
  00069	74 19		 je	 SHORT $LN4@IsProtecte
  0006b	48		 dec	 eax
  0006c	75 22		 jne	 SHORT $LN3@IsProtecte

; 871  : 			break;
; 872  : 		case PCT_ANI:
; 873  : 			if( m_iCurLinearCombo == 0 &&
; 874  : 				m_dwFireMotionEndTime > 0 &&
; 875  : 				m_dwFireMotionEndTime > dwCurTime )

  0006e	39 86 68 11 00
	00		 cmp	 DWORD PTR [esi+4456], eax
  00074	75 1a		 jne	 SHORT $LN3@IsProtecte
  00076	8b b6 24 02 00
	00		 mov	 esi, DWORD PTR [esi+548]
  0007c	85 f6		 test	 esi, esi
  0007e	74 10		 je	 SHORT $LN3@IsProtecte
  00080	3b f7		 cmp	 esi, edi

; 876  : 			{
; 877  : 				return true;

  00082	eb 06		 jmp	 SHORT $LN20@IsProtecte
$LN4@IsProtecte:

; 867  : 		{
; 868  : 		case PCT_TIME:
; 869  : 			if( m_dwCurSkillProtectTime > dwCurTime )

  00084	39 be 74 11 00
	00		 cmp	 DWORD PTR [esi+4468], edi
$LN20@IsProtecte:
  0008a	76 04		 jbe	 SHORT $LN3@IsProtecte
$LN21@IsProtecte:

; 870  : 				return true;

  0008c	b0 01		 mov	 al, 1
  0008e	eb 02		 jmp	 SHORT $LN17@IsProtecte
$LN3@IsProtecte:

; 878  : 			}
; 879  : 			break;
; 880  : 		}
; 881  : 	}
; 882  : 
; 883  : 	return false;

  00090	32 c0		 xor	 al, al
$LN17@IsProtecte:
  00092	5f		 pop	 edi
$LN13@IsProtecte:
  00093	5e		 pop	 esi

; 884  : }

  00094	c9		 leave
  00095	c2 04 00	 ret	 4
?IsProtected@ioLinearComboSkill2@@UBE_NH@Z ENDP		; ioLinearComboSkill2::IsProtected
_TEXT	ENDS
PUBLIC	?IsJumpState@ioLinearComboSkill2@@UBE_NXZ	; ioLinearComboSkill2::IsJumpState
; Function compile flags: /Ogsp
;	COMDAT ?IsJumpState@ioLinearComboSkill2@@UBE_NXZ
_TEXT	SEGMENT
_value$616897 = -1					; size = 1
_value$616892 = -1					; size = 1
?IsJumpState@ioLinearComboSkill2@@UBE_NXZ PROC		; ioLinearComboSkill2::IsJumpState, COMDAT
; _this$ = ecx

; 925  : {

  00000	55		 push	 ebp
  00001	8b ec		 mov	 ebp, esp
  00003	51		 push	 ecx
  00004	56		 push	 esi
  00005	8b f1		 mov	 esi, ecx

; 926  : 	if( !m_bNoGravityCombo )

  00007	8d 45 ff	 lea	 eax, DWORD PTR _value$616892[ebp]
  0000a	50		 push	 eax
  0000b	8d 8e 74 12 00
	00		 lea	 ecx, DWORD PTR [esi+4724]
  00011	e8 00 00 00 00	 call	 ?DecryptValueToPool@?$CEncrypt@_N@@QAEXPA_N@Z ; CEncrypt<bool>::DecryptValueToPool
  00016	80 7d ff 00	 cmp	 BYTE PTR _value$616892[ebp], 0
  0001a	75 04		 jne	 SHORT $LN1@IsJumpStat

; 927  : 		return false;

  0001c	32 c0		 xor	 al, al
  0001e	eb 12		 jmp	 SHORT $LN2@IsJumpStat
$LN1@IsJumpStat:

; 928  : 
; 929  : 	return m_bUsedComboList;

  00020	8d 45 ff	 lea	 eax, DWORD PTR _value$616897[ebp]
  00023	50		 push	 eax
  00024	8d 8e a4 12 00
	00		 lea	 ecx, DWORD PTR [esi+4772]
  0002a	e8 00 00 00 00	 call	 ?DecryptValueToPool@?$CEncrypt@_N@@QAEXPA_N@Z ; CEncrypt<bool>::DecryptValueToPool
  0002f	8a 45 ff	 mov	 al, BYTE PTR _value$616897[ebp]
$LN2@IsJumpStat:
  00032	5e		 pop	 esi

; 930  : }

  00033	c9		 leave
  00034	c3		 ret	 0
?IsJumpState@ioLinearComboSkill2@@UBE_NXZ ENDP		; ioLinearComboSkill2::IsJumpState
_TEXT	ENDS
PUBLIC	?IsNoDropState@ioLinearComboSkill2@@UBE_NXZ	; ioLinearComboSkill2::IsNoDropState
; Function compile flags: /Ogsp
;	COMDAT ?IsNoDropState@ioLinearComboSkill2@@UBE_NXZ
_TEXT	SEGMENT
_value$616909 = -1					; size = 1
_value$616904 = -1					; size = 1
?IsNoDropState@ioLinearComboSkill2@@UBE_NXZ PROC	; ioLinearComboSkill2::IsNoDropState, COMDAT
; _this$ = ecx

; 933  : {

  00000	55		 push	 ebp
  00001	8b ec		 mov	 ebp, esp
  00003	51		 push	 ecx
  00004	56		 push	 esi
  00005	8b f1		 mov	 esi, ecx

; 934  : 	if( !m_bNoGravityCombo )

  00007	8d 45 ff	 lea	 eax, DWORD PTR _value$616904[ebp]
  0000a	50		 push	 eax
  0000b	8d 8e 74 12 00
	00		 lea	 ecx, DWORD PTR [esi+4724]
  00011	e8 00 00 00 00	 call	 ?DecryptValueToPool@?$CEncrypt@_N@@QAEXPA_N@Z ; CEncrypt<bool>::DecryptValueToPool
  00016	80 7d ff 00	 cmp	 BYTE PTR _value$616904[ebp], 0
  0001a	75 04		 jne	 SHORT $LN2@IsNoDropSt

; 935  : 		return false;

  0001c	32 c0		 xor	 al, al
  0001e	eb 23		 jmp	 SHORT $LN3@IsNoDropSt
$LN2@IsNoDropSt:

; 936  : 
; 937  : 	if( m_bCheckJumpNoDrop && m_SkillUseType == SUT_JUMP )

  00020	80 be c9 13 00
	00 00		 cmp	 BYTE PTR [esi+5065], 0
  00027	74 08		 je	 SHORT $LN1@IsNoDropSt
  00029	33 c0		 xor	 eax, eax
  0002b	40		 inc	 eax
  0002c	39 46 74	 cmp	 DWORD PTR [esi+116], eax

; 938  : 		return true;

  0002f	74 12		 je	 SHORT $LN3@IsNoDropSt
$LN1@IsNoDropSt:

; 939  : 
; 940  : 	return m_bUsedComboList;

  00031	8d 45 ff	 lea	 eax, DWORD PTR _value$616909[ebp]
  00034	50		 push	 eax
  00035	8d 8e a4 12 00
	00		 lea	 ecx, DWORD PTR [esi+4772]
  0003b	e8 00 00 00 00	 call	 ?DecryptValueToPool@?$CEncrypt@_N@@QAEXPA_N@Z ; CEncrypt<bool>::DecryptValueToPool
  00040	8a 45 ff	 mov	 al, BYTE PTR _value$616909[ebp]
$LN3@IsNoDropSt:
  00043	5e		 pop	 esi

; 941  : }

  00044	c9		 leave
  00045	c3		 ret	 0
?IsNoDropState@ioLinearComboSkill2@@UBE_NXZ ENDP	; ioLinearComboSkill2::IsNoDropState
_TEXT	ENDS
PUBLIC	?IsCanSendControl@ioLinearComboSkill2@@UBE_NXZ	; ioLinearComboSkill2::IsCanSendControl
; Function compile flags: /Ogsp
;	COMDAT ?IsCanSendControl@ioLinearComboSkill2@@UBE_NXZ
_TEXT	SEGMENT
_value$616916 = -1					; size = 1
?IsCanSendControl@ioLinearComboSkill2@@UBE_NXZ PROC	; ioLinearComboSkill2::IsCanSendControl, COMDAT
; _this$ = ecx

; 944  : {

  00000	55		 push	 ebp
  00001	8b ec		 mov	 ebp, esp
  00003	51		 push	 ecx

; 945  : 	if( m_bSetAttackFire )

  00004	8d 45 ff	 lea	 eax, DWORD PTR _value$616916[ebp]
  00007	50		 push	 eax
  00008	81 c1 d4 12 00
	00		 add	 ecx, 4820		; 000012d4H
  0000e	e8 00 00 00 00	 call	 ?DecryptValueToPool@?$CEncrypt@_N@@QAEXPA_N@Z ; CEncrypt<bool>::DecryptValueToPool
  00013	80 7d ff 00	 cmp	 BYTE PTR _value$616916[ebp], 0
  00017	0f 94 c0	 sete	 al

; 946  : 		return false;
; 947  : 
; 948  : 	return true;
; 949  : }

  0001a	c9		 leave
  0001b	c3		 ret	 0
?IsCanSendControl@ioLinearComboSkill2@@UBE_NXZ ENDP	; ioLinearComboSkill2::IsCanSendControl
_TEXT	ENDS
PUBLIC	?CheckEnableRetreatState@ioLinearComboSkill2@@IAE_NPAVioBaseChar@@@Z ; ioLinearComboSkill2::CheckEnableRetreatState
; Function compile flags: /Ogsp
;	COMDAT ?CheckEnableRetreatState@ioLinearComboSkill2@@IAE_NPAVioBaseChar@@@Z
_TEXT	SEGMENT
_value$616936 = -4					; size = 4
_value$616940 = 8					; size = 4
_value$616925 = 8					; size = 4
_value$616932 = 8					; size = 4
_pChar$ = 8						; size = 4
?CheckEnableRetreatState@ioLinearComboSkill2@@IAE_NPAVioBaseChar@@@Z PROC ; ioLinearComboSkill2::CheckEnableRetreatState, COMDAT
; _this$ = ecx

; 952  : {

  00000	55		 push	 ebp
  00001	8b ec		 mov	 ebp, esp
  00003	51		 push	 ecx
  00004	53		 push	 ebx

; 953  : 	if( !pChar )

  00005	8b 5d 08	 mov	 ebx, DWORD PTR _pChar$[ebp]
  00008	56		 push	 esi
  00009	8b f1		 mov	 esi, ecx
  0000b	85 db		 test	 ebx, ebx
  0000d	75 04		 jne	 SHORT $LN5@CheckEnabl

; 954  : 		return false;

  0000f	32 c0		 xor	 al, al
  00011	eb 6b		 jmp	 SHORT $LN1@CheckEnabl
$LN5@CheckEnabl:
  00013	57		 push	 edi

; 955  : 
; 956  : 	if( m_iMaxRetreatCnt <= 0 )

  00014	8d 45 08	 lea	 eax, DWORD PTR _value$616925[ebp]
  00017	50		 push	 eax
  00018	8d 8e 58 13 00
	00		 lea	 ecx, DWORD PTR [esi+4952]
  0001e	e8 00 00 00 00	 call	 ?DecryptValueToPool@?$CEncrypt@H@@QAEXPAH@Z ; CEncrypt<int>::DecryptValueToPool
  00023	83 7d 08 00	 cmp	 DWORD PTR _value$616925[ebp], 0

; 957  : 		return false;

  00027	7e 29		 jle	 SHORT $LN19@CheckEnabl

; 958  : 
; 959  : 	if( !pChar->IsDirKeyDoubleClick() )

  00029	8d 8b 80 0c 00
	00		 lea	 ecx, DWORD PTR [ebx+3200]
  0002f	e8 00 00 00 00	 call	 ?IsDirDoubleClick@ioUserKeyInput@@QBE_NXZ ; ioUserKeyInput::IsDirDoubleClick
  00034	84 c0		 test	 al, al

; 960  : 		return false;

  00036	74 1a		 je	 SHORT $LN19@CheckEnabl

; 961  : 
; 962  : 	if( m_iCurLinearCombo >= m_iMaxRetreatCnt )

  00038	8d 45 08	 lea	 eax, DWORD PTR _value$616932[ebp]
  0003b	50		 push	 eax
  0003c	8d 8e 58 13 00
	00		 lea	 ecx, DWORD PTR [esi+4952]
  00042	e8 00 00 00 00	 call	 ?DecryptValueToPool@?$CEncrypt@H@@QAEXPAH@Z ; CEncrypt<int>::DecryptValueToPool
  00047	8b 86 68 11 00
	00		 mov	 eax, DWORD PTR [esi+4456]
  0004d	3b 45 08	 cmp	 eax, DWORD PTR _value$616932[ebp]
  00050	7c 04		 jl	 SHORT $LN2@CheckEnabl
$LN19@CheckEnabl:

; 963  : 		return false;

  00052	32 c0		 xor	 al, al
  00054	eb 27		 jmp	 SHORT $LN18@CheckEnabl
$LN2@CheckEnabl:

; 964  : 
; 965  : 	if( m_iCurRetreatCnt < m_iMaxRetreatCnt )

  00056	8d 45 fc	 lea	 eax, DWORD PTR _value$616936[ebp]
  00059	50		 push	 eax
  0005a	8d 8e 58 13 00
	00		 lea	 ecx, DWORD PTR [esi+4952]
  00060	e8 00 00 00 00	 call	 ?DecryptValueToPool@?$CEncrypt@H@@QAEXPAH@Z ; CEncrypt<int>::DecryptValueToPool
  00065	8d 45 08	 lea	 eax, DWORD PTR _value$616940[ebp]
  00068	50		 push	 eax
  00069	8d 8e 88 13 00
	00		 lea	 ecx, DWORD PTR [esi+5000]
  0006f	e8 00 00 00 00	 call	 ?DecryptValueToPool@?$CEncrypt@H@@QAEXPAH@Z ; CEncrypt<int>::DecryptValueToPool
  00074	8b 45 08	 mov	 eax, DWORD PTR _value$616940[ebp]
  00077	3b 45 fc	 cmp	 eax, DWORD PTR _value$616936[ebp]
  0007a	0f 9c c0	 setl	 al
$LN18@CheckEnabl:
  0007d	5f		 pop	 edi
$LN1@CheckEnabl:
  0007e	5e		 pop	 esi
  0007f	5b		 pop	 ebx

; 966  : 		return true;
; 967  : 
; 968  : 	return false;
; 969  : }

  00080	c9		 leave
  00081	c2 04 00	 ret	 4
?CheckEnableRetreatState@ioLinearComboSkill2@@IAE_NPAVioBaseChar@@@Z ENDP ; ioLinearComboSkill2::CheckEnableRetreatState
_TEXT	ENDS
PUBLIC	_pChar$GSCopy$
PUBLIC	__$ArrayPad$
PUBLIC	?SetRetreatState@ioLinearComboSkill2@@IAEXPAVioBaseChar@@@Z ; ioLinearComboSkill2::SetRetreatState
EXTRN	?ClearDirDoubleClick@ioBaseChar@@QAEXXZ:PROC	; ioBaseChar::ClearDirDoubleClick
EXTRN	??6SP2Packet@@QAEAAV0@AAV?$CEncrypt@H@@@Z:PROC	; SP2Packet::operator<<
EXTRN	__imp_?SetActionAni@ioEntityGroup@@QAE_NABVioHashString@@MMMMMM_N1@Z:PROC
EXTRN	?IncreaseWeaponIndexBase@ioBaseChar@@QAEKXZ:PROC ; ioBaseChar::IncreaseWeaponIndexBase
;	COMDAT xdata$x
; File d:\lost saga for developer\youtube\tutorial\source\src\lsclient\encryptvalue.h
xdata$x	SEGMENT
__unwindtable$?SetRetreatState@ioLinearComboSkill2@@IAEXPAVioBaseChar@@@Z DD 0ffffffffH
	DD	FLAT:__unwindfunclet$?SetRetreatState@ioLinearComboSkill2@@IAEXPAVioBaseChar@@@Z$1
	DD	0ffffffffH
	DD	FLAT:__unwindfunclet$?SetRetreatState@ioLinearComboSkill2@@IAEXPAVioBaseChar@@@Z$2
	DD	0ffffffffH
	DD	FLAT:__unwindfunclet$?SetRetreatState@ioLinearComboSkill2@@IAEXPAVioBaseChar@@@Z$3
	DD	0ffffffffH
	DD	FLAT:__unwindfunclet$?SetRetreatState@ioLinearComboSkill2@@IAEXPAVioBaseChar@@@Z$0
__ehfuncinfo$?SetRetreatState@ioLinearComboSkill2@@IAEXPAVioBaseChar@@@Z DD 019930522H
	DD	04H
	DD	FLAT:__unwindtable$?SetRetreatState@ioLinearComboSkill2@@IAEXPAVioBaseChar@@@Z
	DD	2 DUP(00H)
	DD	2 DUP(00H)
	DD	00H
	DD	01H
; Function compile flags: /Ogsp
; File d:\lost saga for developer\youtube\tutorial\source\src\lsclient\iolinearcomboskill2.cpp
xdata$x	ENDS
;	COMDAT ?SetRetreatState@ioLinearComboSkill2@@IAEXPAVioBaseChar@@@Z
_TEXT	SEGMENT
_pChar$GSCopy$ = -32872					; size = 4
$T617328 = -32868					; size = 16
$T617198 = -32868					; size = 16
$T617068 = -32868					; size = 16
_dwPreDelay$ = -32852					; size = 4
tv3104 = -32848						; size = 4
tv3091 = -32848						; size = 4
tv3085 = -32848						; size = 4
tv3070 = -32848						; size = 4
tv3030 = -32848						; size = 4
tv2785 = -32844						; size = 4
_fEndTimeRate$608687 = -32844				; size = 4
_dwCurTime$ = -32844					; size = 4
tv3122 = -32840						; size = 4
$T617327 = -32840					; size = 4
$T617197 = -32840					; size = 4
_fWaitTime$608686 = -32840				; size = 4
_fAttackEnd$ = -32840					; size = 4
_fTimeRate$ = -32836					; size = 4
_pGrp$ = -32832						; size = 4
_value$617348 = -32828					; size = 4
_iAniID$ = -32828					; size = 4
_kPacket$608690 = -32824				; size = 32792
_szEncEventType$617228 = -32				; size = 12
_szEncEventType$617098 = -32				; size = 11
_szEncEventType$616968 = -28				; size = 7
__$ArrayPad$ = -16					; size = 4
__$EHRec$ = -12						; size = 12
_pChar$ = 8						; size = 4
?SetRetreatState@ioLinearComboSkill2@@IAEXPAVioBaseChar@@@Z PROC ; ioLinearComboSkill2::SetRetreatState, COMDAT
; _this$ = ecx

; 972  : {

  00000	55		 push	 ebp
  00001	8b ec		 mov	 ebp, esp
  00003	6a ff		 push	 -1
  00005	68 00 00 00 00	 push	 __ehhandler$?SetRetreatState@ioLinearComboSkill2@@IAEXPAVioBaseChar@@@Z
  0000a	64 a1 00 00 00
	00		 mov	 eax, DWORD PTR fs:0
  00010	50		 push	 eax
  00011	b8 5c 80 00 00	 mov	 eax, 32860		; 0000805cH
  00016	e8 00 00 00 00	 call	 __chkstk
  0001b	a1 00 00 00 00	 mov	 eax, DWORD PTR ___security_cookie
  00020	33 c5		 xor	 eax, ebp
  00022	89 45 f0	 mov	 DWORD PTR __$ArrayPad$[ebp], eax
  00025	53		 push	 ebx
  00026	56		 push	 esi
  00027	57		 push	 edi
  00028	50		 push	 eax
  00029	8d 45 f4	 lea	 eax, DWORD PTR __$EHRec$[ebp]
  0002c	64 a3 00 00 00
	00		 mov	 DWORD PTR fs:0, eax
  00032	8b 7d 08	 mov	 edi, DWORD PTR _pChar$[ebp]
  00035	8b f1		 mov	 esi, ecx

; 1030 : 	m_dwEnableReserveTime += pGrp->GetAnimationEventTime_e( iAniID, "key_reserve" ) * fTimeRate;

  00037	89 bd 98 7f ff
	ff		 mov	 DWORD PTR _pChar$GSCopy$[ebp], edi
  0003d	85 ff		 test	 edi, edi
  0003f	0f 84 ea 06 00
	00		 je	 $LN341@SetRetreat

; 973  : 	if( !pChar )
; 974  : 		return;
; 975  : 
; 976  : 	ioEntityGroup *pGrp = pChar->GetGroup();

  00045	8b 5f 04	 mov	 ebx, DWORD PTR [edi+4]
  00048	89 9d c0 7f ff
	ff		 mov	 DWORD PTR _pGrp$[ebp], ebx

; 977  : 	if( !pGrp )

  0004e	85 db		 test	 ebx, ebx
  00050	0f 84 d9 06 00
	00		 je	 $LN341@SetRetreat

; 978  : 		return;
; 979  : 
; 980  : 	m_SkillState = SS_RETREAT;
; 981  : 	m_CurDirKey = ioUserKeyInput::DKI_NONE;

  00056	83 a6 04 13 00
	00 00		 and	 DWORD PTR [esi+4868], 0
  0005d	c7 86 e4 10 00
	00 03 00 00 00	 mov	 DWORD PTR [esi+4324], 3

; 982  : 
; 983  : 	if( pChar->IsNeedProcess() && pChar->IsSettedDirection() )

  00067	8b 07		 mov	 eax, DWORD PTR [edi]
  00069	8b cf		 mov	 ecx, edi
  0006b	ff 90 00 01 00
	00		 call	 DWORD PTR [eax+256]
  00071	84 c0		 test	 al, al
  00073	74 20		 je	 SHORT $LN8@SetRetreat
  00075	8b cf		 mov	 ecx, edi
  00077	e8 00 00 00 00	 call	 ?IsSettedDirection@ioBaseChar@@QBE_NXZ ; ioBaseChar::IsSettedDirection
  0007c	84 c0		 test	 al, al
  0007e	74 15		 je	 SHORT $LN8@SetRetreat

; 984  : 	{
; 985  : 		ioUserKeyInput::DirKeyInput eNewDirKey = pChar->CheckCurDirKey();

  00080	8b cf		 mov	 ecx, edi
  00082	e8 00 00 00 00	 call	 ?CheckCurDirKey@ioBaseChar@@QAE?AW4DirKeyInput@ioUserKeyInput@@XZ ; ioBaseChar::CheckCurDirKey

; 986  : 		m_CurDirKey = eNewDirKey;
; 987  : 		pChar->SetTargetRotToDirKey( eNewDirKey );

  00087	50		 push	 eax
  00088	8b cf		 mov	 ecx, edi
  0008a	89 86 04 13 00
	00		 mov	 DWORD PTR [esi+4868], eax
  00090	e8 00 00 00 00	 call	 ?SetTargetRotToDirKey@ioBaseChar@@QAEXW4DirKeyInput@ioUserKeyInput@@@Z ; ioBaseChar::SetTargetRotToDirKey
$LN8@SetRetreat:

; 988  : 	}
; 989  : 
; 990  : 	int iAniID = pGrp->GetAnimationIdx( m_RetreatAttack.m_AttackAnimation );

  00095	8d 86 08 13 00
	00		 lea	 eax, DWORD PTR [esi+4872]
  0009b	50		 push	 eax
  0009c	8b cb		 mov	 ecx, ebx
  0009e	ff 15 00 00 00
	00		 call	 DWORD PTR __imp_?GetAnimationIdx@ioEntityGroup@@QAEHABVioHashString@@@Z
  000a4	89 85 c4 7f ff
	ff		 mov	 DWORD PTR _iAniID$[ebp], eax

; 991  : 	if( iAniID == -1 )	return;

  000aa	83 f8 ff	 cmp	 eax, -1
  000ad	0f 84 7c 06 00
	00		 je	 $LN341@SetRetreat

; 992  : 
; 993  : 	pChar->InitActionStopDelay( true );

  000b3	6a 01		 push	 1
  000b5	8b cf		 mov	 ecx, edi
  000b7	e8 00 00 00 00	 call	 ?InitActionStopDelay@ioBaseChar@@QAEX_N@Z ; ioBaseChar::InitActionStopDelay

; 994  : 
; 995  : 	float fTimeRate = m_RetreatAttack.m_fAttackAniRate;

  000bc	f3 0f 10 86 18
	13 00 00	 movss	 xmm0, DWORD PTR [esi+4888]

; 996  : 	if( fTimeRate <= 0.0f )

  000c4	0f 57 c9	 xorps	 xmm1, xmm1
  000c7	0f 2f c8	 comiss	 xmm1, xmm0
  000ca	f3 0f 11 85 bc
	7f ff ff	 movss	 DWORD PTR _fTimeRate$[ebp], xmm0
  000d2	72 10		 jb	 SHORT $LN6@SetRetreat

; 997  : 		fTimeRate = 1.0f;

  000d4	f3 0f 10 05 00
	00 00 00	 movss	 xmm0, DWORD PTR __real@3f800000
  000dc	f3 0f 11 85 bc
	7f ff ff	 movss	 DWORD PTR _fTimeRate$[ebp], xmm0
$LN6@SetRetreat:

; 998  : 
; 999  : 	DWORD dwPreDelay = m_RetreatAttack.m_dwPreDelay;

  000e4	8b 9e 50 13 00
	00		 mov	 ebx, DWORD PTR [esi+4944]

; 1000 : 
; 1001 : 	pGrp->ClearAllLoopAni( 100.0f, true );

  000ea	f3 0f 10 05 00
	00 00 00	 movss	 xmm0, DWORD PTR __real@42c80000
  000f2	6a 01		 push	 1
  000f4	51		 push	 ecx
  000f5	8b 8d c0 7f ff
	ff		 mov	 ecx, DWORD PTR _pGrp$[ebp]
  000fb	89 9d ac 7f ff
	ff		 mov	 DWORD PTR _dwPreDelay$[ebp], ebx
  00101	f3 0f 11 04 24	 movss	 DWORD PTR [esp], xmm0
  00106	ff 15 00 00 00
	00		 call	 DWORD PTR __imp_?ClearAllLoopAni@ioEntityGroup@@QAEXM_N@Z

; 1002 : 	pGrp->ClearAllActionAni( 100.0f, true );

  0010c	f3 0f 10 05 00
	00 00 00	 movss	 xmm0, DWORD PTR __real@42c80000
  00114	6a 01		 push	 1
  00116	51		 push	 ecx
  00117	8b 8d c0 7f ff
	ff		 mov	 ecx, DWORD PTR _pGrp$[ebp]
  0011d	f3 0f 11 04 24	 movss	 DWORD PTR [esp], xmm0
  00122	ff 15 00 00 00
	00		 call	 DWORD PTR __imp_?ClearAllActionAni@ioEntityGroup@@QAEXM_N@Z

; 1003 : 
; 1004 : 	m_dwWeaponBaseIndex = pChar->IncreaseWeaponIndexBase();

  00128	8b cf		 mov	 ecx, edi
  0012a	e8 00 00 00 00	 call	 ?IncreaseWeaponIndexBase@ioBaseChar@@QAEKXZ ; ioBaseChar::IncreaseWeaponIndexBase

; 1005 : 	pChar->RefreshFireTimeListWithBase( m_dwWeaponBaseIndex,
; 1006 : 		iAniID,
; 1007 : 		m_RetreatAttack.m_vWeaponInfoList,
; 1008 : 		FTT_SKILL_ATTACK,
; 1009 : 		fTimeRate,
; 1010 : 		dwPreDelay );

  0012f	f3 0f 10 85 bc
	7f ff ff	 movss	 xmm0, DWORD PTR _fTimeRate$[ebp]
  00137	6a 00		 push	 0
  00139	53		 push	 ebx
  0013a	51		 push	 ecx
  0013b	f3 0f 11 04 24	 movss	 DWORD PTR [esp], xmm0
  00140	6a 04		 push	 4
  00142	8d 8e 30 13 00
	00		 lea	 ecx, DWORD PTR [esi+4912]
  00148	51		 push	 ecx
  00149	ff b5 c4 7f ff
	ff		 push	 DWORD PTR _iAniID$[ebp]
  0014f	8b cf		 mov	 ecx, edi
  00151	50		 push	 eax
  00152	89 46 78	 mov	 DWORD PTR [esi+120], eax
  00155	e8 00 00 00 00	 call	 ?RefreshFireTimeListWithBase@ioBaseChar@@QAEXKHABV?$vector@UWeaponInfo@@V?$allocator@UWeaponInfo@@@std@@@std@@W4FireTimeType@@MK_N@Z ; ioBaseChar::RefreshFireTimeListWithBase

; 1011 : 
; 1012 : 	DWORD dwCurTime = FRAMEGETTIME();

  0015a	ff 15 00 00 00
	00		 call	 DWORD PTR __imp_?GetSingleton@ioFrameTimer@@SAAAV1@XZ
  00160	8b c8		 mov	 ecx, eax
  00162	ff 15 00 00 00
	00		 call	 DWORD PTR __imp_?GetLoopSec@ioFrameTimer@@QBEKXZ

; 1013 : 	m_dwMotionEndTime = dwCurTime;
; 1014 : 	m_dwMotionEndTime += pGrp->GetAnimationFullTime( iAniID ) * fTimeRate;

  00168	ff b5 c4 7f ff
	ff		 push	 DWORD PTR _iAniID$[ebp]
  0016e	8b 8d c0 7f ff
	ff		 mov	 ecx, DWORD PTR _pGrp$[ebp]
  00174	89 85 b4 7f ff
	ff		 mov	 DWORD PTR _dwCurTime$[ebp], eax
  0017a	89 86 d8 02 00
	00		 mov	 DWORD PTR [esi+728], eax
  00180	ff 15 00 00 00
	00		 call	 DWORD PTR __imp_?GetAnimationFullTime@ioEntityGroup@@QAEMH@Z

; 1015 : 	m_dwMotionEndTime += dwPreDelay + m_RetreatAttack.m_dwEndDelay;

  00186	d8 8d bc 7f ff
	ff		 fmul	 DWORD PTR _fTimeRate$[ebp]
  0018c	8b 86 d8 02 00
	00		 mov	 eax, DWORD PTR [esi+728]
  00192	db 86 d8 02 00
	00		 fild	 DWORD PTR [esi+728]
  00198	85 c0		 test	 eax, eax
  0019a	79 06		 jns	 SHORT $LN356@SetRetreat
  0019c	dc 05 00 00 00
	00		 fadd	 QWORD PTR __real@41f0000000000000
$LN356@SetRetreat:

; 1013 : 	m_dwMotionEndTime = dwCurTime;
; 1014 : 	m_dwMotionEndTime += pGrp->GetAnimationFullTime( iAniID ) * fTimeRate;

  001a2	de c1		 faddp	 ST(1), ST(0)

; 1015 : 	m_dwMotionEndTime += dwPreDelay + m_RetreatAttack.m_dwEndDelay;

  001a4	e8 00 00 00 00	 call	 __ftol2
  001a9	03 86 54 13 00
	00		 add	 eax, DWORD PTR [esi+4948]

; 1016 : 
; 1017 : 	DWORD dwFireStartTime;
; 1018 : 	dwFireStartTime = dwCurTime;
; 1019 : 
; 1020 : 	dwFireStartTime += dwPreDelay;
; 1021 : 	dwFireStartTime += pGrp->GetAnimationEventTime_e( iAniID, "fire_s" ) * fTimeRate;

  001af	6a 04		 push	 4
  001b1	03 c3		 add	 eax, ebx
  001b3	bb ed ec eb ea	 mov	 ebx, -353637139		; eaebecedH
  001b8	89 86 d8 02 00
	00		 mov	 DWORD PTR [esi+728], eax
  001be	c7 45 e4 8b 85
	99 8f		 mov	 DWORD PTR _szEncEventType$616968[ebp], -1885764213 ; 8f99858bH
  001c5	31 5d e4	 xor	 DWORD PTR _szEncEventType$616968[ebp], ebx
  001c8	66 c7 45 e8 b2
	9f		 mov	 WORD PTR _szEncEventType$616968[ebp+4], 40882 ; 00009fb2H
  001ce	c6 45 ea 00	 mov	 BYTE PTR _szEncEventType$616968[ebp+6], 0
  001d2	58		 pop	 eax
$LL117@SetRetreat:
  001d3	8b c8		 mov	 ecx, eax
  001d5	81 e1 03 00 00
	80		 and	 ecx, -2147483645	; 80000003H
  001db	79 05		 jns	 SHORT $LN357@SetRetreat
  001dd	49		 dec	 ecx
  001de	83 c9 fc	 or	 ecx, -4			; fffffffcH
  001e1	41		 inc	 ecx
$LN357@SetRetreat:
  001e2	b2 ed		 mov	 dl, -19			; ffffffedH
  001e4	2a d1		 sub	 dl, cl
  001e6	30 54 05 e4	 xor	 BYTE PTR _szEncEventType$616968[ebp+eax], dl
  001ea	40		 inc	 eax
  001eb	83 f8 06	 cmp	 eax, 6
  001ee	7c e3		 jl	 SHORT $LL117@SetRetreat
  001f0	8d 45 e4	 lea	 eax, DWORD PTR _szEncEventType$616968[ebp]
  001f3	50		 push	 eax
  001f4	8d 8d 9c 7f ff
	ff		 lea	 ecx, DWORD PTR $T617068[ebp]
  001fa	ff 15 00 00 00
	00		 call	 DWORD PTR __imp_??0ioHashString@@QAE@PBD@Z
  00200	8b 8d c0 7f ff
	ff		 mov	 ecx, DWORD PTR _pGrp$[ebp]
  00206	83 65 fc 00	 and	 DWORD PTR __$EHRec$[ebp+8], 0
  0020a	8d 85 9c 7f ff
	ff		 lea	 eax, DWORD PTR $T617068[ebp]
  00210	50		 push	 eax
  00211	ff b5 c4 7f ff
	ff		 push	 DWORD PTR _iAniID$[ebp]
  00217	ff 15 00 00 00
	00		 call	 DWORD PTR __imp_?GetAnimationEventTime@ioEntityGroup@@QAEMHABVioHashString@@@Z
  0021d	dd d8		 fstp	 ST(0)
  0021f	83 4d fc ff	 or	 DWORD PTR __$EHRec$[ebp+8], -1
  00223	8d 8d 9c 7f ff
	ff		 lea	 ecx, DWORD PTR $T617068[ebp]
  00229	ff 15 00 00 00
	00		 call	 DWORD PTR __imp_??1ioHashString@@QAE@XZ
  0022f	6a 02		 push	 2

; 1022 : 
; 1023 : 	float fAttackEnd = pGrp->GetAnimationEventTime_e( iAniID, "attack_end" ) * fTimeRate;

  00231	c7 45 e0 8c 98
	9f 8b		 mov	 DWORD PTR _szEncEventType$617098[ebp], -1952474996 ; 8b9f988cH
  00238	c7 45 e4 8e 87
	b4 8f		 mov	 DWORD PTR _szEncEventType$617098[ebp+4], -1883994226 ; 8fb4878eH
  0023f	66 c7 45 e8 83
	88		 mov	 WORD PTR _szEncEventType$617098[ebp+8], 34947 ; 00008883H
  00245	8d 45 e0	 lea	 eax, DWORD PTR _szEncEventType$617098[ebp]
  00248	c6 45 ea 00	 mov	 BYTE PTR _szEncEventType$617098[ebp+10], 0
  0024c	59		 pop	 ecx
$LL227@SetRetreat:
  0024d	31 18		 xor	 DWORD PTR [eax], ebx
  0024f	83 c0 04	 add	 eax, 4
  00252	49		 dec	 ecx
  00253	75 f8		 jne	 SHORT $LL227@SetRetreat
  00255	6a 08		 push	 8
  00257	58		 pop	 eax
$LL224@SetRetreat:
  00258	8b c8		 mov	 ecx, eax
  0025a	81 e1 03 00 00
	80		 and	 ecx, -2147483645	; 80000003H
  00260	79 05		 jns	 SHORT $LN358@SetRetreat
  00262	49		 dec	 ecx
  00263	83 c9 fc	 or	 ecx, -4			; fffffffcH
  00266	41		 inc	 ecx
$LN358@SetRetreat:
  00267	b2 ed		 mov	 dl, -19			; ffffffedH
  00269	2a d1		 sub	 dl, cl
  0026b	30 54 05 e0	 xor	 BYTE PTR _szEncEventType$617098[ebp+eax], dl
  0026f	40		 inc	 eax
  00270	83 f8 0a	 cmp	 eax, 10			; 0000000aH
  00273	7c e3		 jl	 SHORT $LL224@SetRetreat
  00275	8d 45 e0	 lea	 eax, DWORD PTR _szEncEventType$617098[ebp]
  00278	50		 push	 eax
  00279	8d 8d 9c 7f ff
	ff		 lea	 ecx, DWORD PTR $T617198[ebp]
  0027f	ff 15 00 00 00
	00		 call	 DWORD PTR __imp_??0ioHashString@@QAE@PBD@Z
  00285	8b 8d c0 7f ff
	ff		 mov	 ecx, DWORD PTR _pGrp$[ebp]
  0028b	8d 85 9c 7f ff
	ff		 lea	 eax, DWORD PTR $T617198[ebp]
  00291	50		 push	 eax
  00292	ff b5 c4 7f ff
	ff		 push	 DWORD PTR _iAniID$[ebp]
  00298	c7 45 fc 01 00
	00 00		 mov	 DWORD PTR __$EHRec$[ebp+8], 1
  0029f	ff 15 00 00 00
	00		 call	 DWORD PTR __imp_?GetAnimationEventTime@ioEntityGroup@@QAEMHABVioHashString@@@Z
  002a5	d9 9d b8 7f ff
	ff		 fstp	 DWORD PTR $T617197[ebp]
  002ab	83 4d fc ff	 or	 DWORD PTR __$EHRec$[ebp+8], -1
  002af	8d 8d 9c 7f ff
	ff		 lea	 ecx, DWORD PTR $T617198[ebp]
  002b5	ff 15 00 00 00
	00		 call	 DWORD PTR __imp_??1ioHashString@@QAE@XZ
  002bb	f3 0f 10 85 b8
	7f ff ff	 movss	 xmm0, DWORD PTR $T617197[ebp]
  002c3	f3 0f 10 8d bc
	7f ff ff	 movss	 xmm1, DWORD PTR _fTimeRate$[ebp]
  002cb	0f 5a c0	 cvtps2pd xmm0, xmm0
  002ce	0f 5a c9	 cvtps2pd xmm1, xmm1
  002d1	f2 0f 59 c1	 mulsd	 xmm0, xmm1
  002d5	66 0f 5a c0	 cvtpd2ps xmm0, xmm0

; 1024 : 	if( fAttackEnd > 0.0f )

  002d9	0f 2f 05 00 00
	00 00		 comiss	 xmm0, DWORD PTR __real@00000000
  002e0	f3 0f 11 85 b8
	7f ff ff	 movss	 DWORD PTR _fAttackEnd$[ebp], xmm0
  002e8	76 29		 jbe	 SHORT $LN5@SetRetreat

; 1025 : 		m_dwAttackEndTime = dwCurTime + fAttackEnd;

  002ea	8b 85 b4 7f ff
	ff		 mov	 eax, DWORD PTR _dwCurTime$[ebp]
  002f0	db 85 b4 7f ff
	ff		 fild	 DWORD PTR _dwCurTime$[ebp]
  002f6	85 c0		 test	 eax, eax
  002f8	79 06		 jns	 SHORT $LN359@SetRetreat
  002fa	d8 05 00 00 00
	00		 fadd	 DWORD PTR __real@4f800000
$LN359@SetRetreat:
  00300	d8 85 b8 7f ff
	ff		 fadd	 DWORD PTR _fAttackEnd$[ebp]
  00306	e8 00 00 00 00	 call	 __ftol2
  0030b	89 86 50 10 00
	00		 mov	 DWORD PTR [esi+4176], eax

; 1026 : 	else

  00311	eb 07		 jmp	 SHORT $LN4@SetRetreat
$LN5@SetRetreat:

; 1027 : 		m_dwAttackEndTime = 0;

  00313	83 a6 50 10 00
	00 00		 and	 DWORD PTR [esi+4176], 0
$LN4@SetRetreat:

; 1028 : 
; 1029 : 	m_dwEnableReserveTime = dwCurTime;

  0031a	8b 85 b4 7f ff
	ff		 mov	 eax, DWORD PTR _dwCurTime$[ebp]
  00320	6a 02		 push	 2
  00322	89 86 dc 02 00
	00		 mov	 DWORD PTR [esi+732], eax

; 1030 : 	m_dwEnableReserveTime += pGrp->GetAnimationEventTime_e( iAniID, "key_reserve" ) * fTimeRate;

  00328	c7 45 e0 86 89
	92 b5		 mov	 DWORD PTR _szEncEventType$617228[ebp], -1248687738 ; b5928986H
  0032f	c7 45 e4 9f 89
	98 8f		 mov	 DWORD PTR _szEncEventType$617228[ebp+4], -1885828705 ; 8f98899fH
  00336	8d 45 e0	 lea	 eax, DWORD PTR _szEncEventType$617228[ebp]
  00339	c7 45 e8 9f 9a
	8e 00		 mov	 DWORD PTR _szEncEventType$617228[ebp+8], 9345695 ; 008e9a9fH
  00340	59		 pop	 ecx
$LL334@SetRetreat:
  00341	81 30 ed ec eb
	ea		 xor	 DWORD PTR [eax], -353637139 ; eaebecedH
  00347	83 c0 04	 add	 eax, 4
  0034a	49		 dec	 ecx
  0034b	75 f4		 jne	 SHORT $LL334@SetRetreat
  0034d	6a 08		 push	 8
  0034f	58		 pop	 eax
$LL331@SetRetreat:
  00350	8b c8		 mov	 ecx, eax
  00352	81 e1 03 00 00
	80		 and	 ecx, -2147483645	; 80000003H
  00358	79 05		 jns	 SHORT $LN360@SetRetreat
  0035a	49		 dec	 ecx
  0035b	83 c9 fc	 or	 ecx, -4			; fffffffcH
  0035e	41		 inc	 ecx
$LN360@SetRetreat:
  0035f	b2 ed		 mov	 dl, -19			; ffffffedH
  00361	2a d1		 sub	 dl, cl
  00363	30 54 05 e0	 xor	 BYTE PTR _szEncEventType$617228[ebp+eax], dl
  00367	40		 inc	 eax
  00368	83 f8 0b	 cmp	 eax, 11			; 0000000bH
  0036b	7c e3		 jl	 SHORT $LL331@SetRetreat
  0036d	8d 45 e0	 lea	 eax, DWORD PTR _szEncEventType$617228[ebp]
  00370	50		 push	 eax
  00371	8d 8d 9c 7f ff
	ff		 lea	 ecx, DWORD PTR $T617328[ebp]
  00377	ff 15 00 00 00
	00		 call	 DWORD PTR __imp_??0ioHashString@@QAE@PBD@Z
  0037d	8b 8d c0 7f ff
	ff		 mov	 ecx, DWORD PTR _pGrp$[ebp]
  00383	8d 85 9c 7f ff
	ff		 lea	 eax, DWORD PTR $T617328[ebp]
  00389	50		 push	 eax
  0038a	ff b5 c4 7f ff
	ff		 push	 DWORD PTR _iAniID$[ebp]
  00390	c7 45 fc 02 00
	00 00		 mov	 DWORD PTR __$EHRec$[ebp+8], 2
  00397	ff 15 00 00 00
	00		 call	 DWORD PTR __imp_?GetAnimationEventTime@ioEntityGroup@@QAEMHABVioHashString@@@Z
  0039d	d9 9d b8 7f ff
	ff		 fstp	 DWORD PTR $T617327[ebp]
  003a3	83 4d fc ff	 or	 DWORD PTR __$EHRec$[ebp+8], -1
  003a7	8d 8d 9c 7f ff
	ff		 lea	 ecx, DWORD PTR $T617328[ebp]
  003ad	ff 15 00 00 00
	00		 call	 DWORD PTR __imp_??1ioHashString@@QAE@XZ
  003b3	d9 85 b8 7f ff
	ff		 fld	 DWORD PTR $T617327[ebp]
  003b9	8b 86 dc 02 00
	00		 mov	 eax, DWORD PTR [esi+732]
  003bf	d8 8d bc 7f ff
	ff		 fmul	 DWORD PTR _fTimeRate$[ebp]
  003c5	db 86 dc 02 00
	00		 fild	 DWORD PTR [esi+732]
  003cb	85 c0		 test	 eax, eax
  003cd	79 06		 jns	 SHORT $LN361@SetRetreat
  003cf	dc 05 00 00 00
	00		 fadd	 QWORD PTR __real@41f0000000000000
$LN361@SetRetreat:
  003d5	de c1		 faddp	 ST(1), ST(0)
  003d7	e8 00 00 00 00	 call	 __ftol2

; 1031 : 
; 1032 : 	if( m_RetreatAttack.m_AttackEndAnimation.IsEmpty() )

  003dc	8d 9e 1c 13 00
	00		 lea	 ebx, DWORD PTR [esi+4892]
  003e2	8b cb		 mov	 ecx, ebx
  003e4	89 86 dc 02 00
	00		 mov	 DWORD PTR [esi+732], eax
  003ea	ff 15 00 00 00
	00		 call	 DWORD PTR __imp_?IsEmpty@ioHashString@@QBE_NXZ

; 1033 : 	{
; 1034 : 		pGrp->SetActionAni( iAniID, 100.0f, 100.0f, 1.0f, 1.0f/fTimeRate, 0.0f, dwPreDelay, true );

  003f0	db 85 ac 7f ff
	ff		 fild	 DWORD PTR _dwPreDelay$[ebp]
  003f6	84 c0		 test	 al, al
  003f8	8b 85 ac 7f ff
	ff		 mov	 eax, DWORD PTR _dwPreDelay$[ebp]
  003fe	74 77		 je	 SHORT $LN3@SetRetreat
  00400	6a 01		 push	 1
  00402	6a 01		 push	 1
  00404	85 c0		 test	 eax, eax
  00406	79 06		 jns	 SHORT $LN362@SetRetreat
  00408	d8 05 00 00 00
	00		 fadd	 DWORD PTR __real@4f800000
$LN362@SetRetreat:
  0040e	0f 57 c0	 xorps	 xmm0, xmm0
  00411	f2 0f 10 0d 00
	00 00 00	 movsd	 xmm1, QWORD PTR __real@3ff0000000000000
  00419	8b 8d c0 7f ff
	ff		 mov	 ecx, DWORD PTR _pGrp$[ebp]
  0041f	83 ec 18	 sub	 esp, 24			; 00000018H
  00422	d9 5c 24 14	 fstp	 DWORD PTR [esp+20]
  00426	f3 0f 11 44 24
	10		 movss	 DWORD PTR [esp+16], xmm0
  0042c	f3 0f 10 85 bc
	7f ff ff	 movss	 xmm0, DWORD PTR _fTimeRate$[ebp]
  00434	0f 5a c0	 cvtps2pd xmm0, xmm0
  00437	f2 0f 5e c8	 divsd	 xmm1, xmm0
  0043b	66 0f 5a c1	 cvtpd2ps xmm0, xmm1
  0043f	f3 0f 11 44 24
	0c		 movss	 DWORD PTR [esp+12], xmm0
  00445	f3 0f 10 05 00
	00 00 00	 movss	 xmm0, DWORD PTR __real@3f800000
  0044d	f3 0f 11 44 24
	08		 movss	 DWORD PTR [esp+8], xmm0
  00453	f3 0f 10 05 00
	00 00 00	 movss	 xmm0, DWORD PTR __real@42c80000
  0045b	f3 0f 11 44 24
	04		 movss	 DWORD PTR [esp+4], xmm0
  00461	f3 0f 11 04 24	 movss	 DWORD PTR [esp], xmm0
  00466	ff b5 c4 7f ff
	ff		 push	 DWORD PTR _iAniID$[ebp]
  0046c	ff 15 00 00 00
	00		 call	 DWORD PTR __imp_?SetActionAni@ioEntityGroup@@QAE_NHMMMMMM_N0@Z

; 1035 : 	}
; 1036 : 	else

  00472	e9 5e 01 00 00	 jmp	 $LN2@SetRetreat
$LN3@SetRetreat:

; 1037 : 	{
; 1038 : 		pGrp->SetActionAni( iAniID, 100.0f, 0.0f, 1.0f, 1.0f/fTimeRate, 0.0f, dwPreDelay );

  00477	85 c0		 test	 eax, eax
  00479	79 06		 jns	 SHORT $LN363@SetRetreat
  0047b	d8 05 00 00 00
	00		 fadd	 DWORD PTR __real@4f800000
$LN363@SetRetreat:
  00481	f3 0f 10 8d bc
	7f ff ff	 movss	 xmm1, DWORD PTR _fTimeRate$[ebp]
  00489	d9 9d b4 7f ff
	ff		 fstp	 DWORD PTR tv2785[ebp]
  0048f	f3 0f 10 85 b4
	7f ff ff	 movss	 xmm0, DWORD PTR tv2785[ebp]
  00497	f2 0f 10 15 00
	00 00 00	 movsd	 xmm2, QWORD PTR __real@3ff0000000000000
  0049f	8b 8d c0 7f ff
	ff		 mov	 ecx, DWORD PTR _pGrp$[ebp]
  004a5	6a 01		 push	 1
  004a7	0f 5a c9	 cvtps2pd xmm1, xmm1
  004aa	6a 00		 push	 0
  004ac	83 ec 18	 sub	 esp, 24			; 00000018H
  004af	f3 0f 11 44 24
	14		 movss	 DWORD PTR [esp+20], xmm0
  004b5	0f 57 c0	 xorps	 xmm0, xmm0
  004b8	f3 0f 11 44 24
	10		 movss	 DWORD PTR [esp+16], xmm0
  004be	f2 0f 5e d1	 divsd	 xmm2, xmm1
  004c2	66 0f 5a ca	 cvtpd2ps xmm1, xmm2
  004c6	f3 0f 11 4c 24
	0c		 movss	 DWORD PTR [esp+12], xmm1
  004cc	f3 0f 10 0d 00
	00 00 00	 movss	 xmm1, DWORD PTR __real@3f800000
  004d4	f3 0f 11 4c 24
	08		 movss	 DWORD PTR [esp+8], xmm1
  004da	f3 0f 11 44 24
	04		 movss	 DWORD PTR [esp+4], xmm0
  004e0	f3 0f 10 05 00
	00 00 00	 movss	 xmm0, DWORD PTR __real@42c80000
  004e8	f3 0f 11 04 24	 movss	 DWORD PTR [esp], xmm0
  004ed	ff b5 c4 7f ff
	ff		 push	 DWORD PTR _iAniID$[ebp]
  004f3	ff 15 00 00 00
	00		 call	 DWORD PTR __imp_?SetActionAni@ioEntityGroup@@QAE_NHMMMMMM_N0@Z

; 1039 : 
; 1040 : 		float fWaitTime = pGrp->GetAnimationFullTime( iAniID ) * fTimeRate + dwPreDelay;

  004f9	ff b5 c4 7f ff
	ff		 push	 DWORD PTR _iAniID$[ebp]
  004ff	8b 8d c0 7f ff
	ff		 mov	 ecx, DWORD PTR _pGrp$[ebp]
  00505	ff 15 00 00 00
	00		 call	 DWORD PTR __imp_?GetAnimationFullTime@ioEntityGroup@@QAEMH@Z
  0050b	d8 8d bc 7f ff
	ff		 fmul	 DWORD PTR _fTimeRate$[ebp]

; 1041 : 		float fEndTimeRate = m_RetreatAttack.m_fAttackEndAniRate;
; 1042 : 
; 1043 : 		pGrp->SetActionAni( m_RetreatAttack.m_AttackEndAnimation,
; 1044 : 			0.0f, 100.0f,
; 1045 : 			1.0f, 1.0f/fEndTimeRate,
; 1046 : 			fWaitTime, 0.0f, true );

  00511	0f 57 c0	 xorps	 xmm0, xmm0
  00514	f3 0f 10 8e 2c
	13 00 00	 movss	 xmm1, DWORD PTR [esi+4908]
  0051c	d8 85 b4 7f ff
	ff		 fadd	 DWORD PTR tv2785[ebp]
  00522	8b 8d c0 7f ff
	ff		 mov	 ecx, DWORD PTR _pGrp$[ebp]
  00528	6a 01		 push	 1
  0052a	6a 01		 push	 1
  0052c	83 ec 18	 sub	 esp, 24			; 00000018H
  0052f	d9 9d b8 7f ff
	ff		 fstp	 DWORD PTR _fWaitTime$608686[ebp]
  00535	f3 0f 10 95 b8
	7f ff ff	 movss	 xmm2, DWORD PTR _fWaitTime$608686[ebp]
  0053d	f3 0f 11 44 24
	14		 movss	 DWORD PTR [esp+20], xmm0
  00543	f3 0f 11 54 24
	10		 movss	 DWORD PTR [esp+16], xmm2
  00549	f3 0f 11 8d b4
	7f ff ff	 movss	 DWORD PTR _fEndTimeRate$608687[ebp], xmm1
  00551	0f 5a d1	 cvtps2pd xmm2, xmm1
  00554	f2 0f 10 0d 00
	00 00 00	 movsd	 xmm1, QWORD PTR __real@3ff0000000000000
  0055c	f2 0f 5e ca	 divsd	 xmm1, xmm2
  00560	66 0f 5a c9	 cvtpd2ps xmm1, xmm1
  00564	f3 0f 11 4c 24
	0c		 movss	 DWORD PTR [esp+12], xmm1
  0056a	f3 0f 10 0d 00
	00 00 00	 movss	 xmm1, DWORD PTR __real@3f800000
  00572	f3 0f 11 4c 24
	08		 movss	 DWORD PTR [esp+8], xmm1
  00578	f3 0f 10 0d 00
	00 00 00	 movss	 xmm1, DWORD PTR __real@42c80000
  00580	f3 0f 11 4c 24
	04		 movss	 DWORD PTR [esp+4], xmm1
  00586	f3 0f 11 04 24	 movss	 DWORD PTR [esp], xmm0
  0058b	53		 push	 ebx
  0058c	ff 15 00 00 00
	00		 call	 DWORD PTR __imp_?SetActionAni@ioEntityGroup@@QAE_NABVioHashString@@MMMMMM_N1@Z

; 1047 : 
; 1048 : 		int iEndAniID = pGrp->GetAnimationIdx( m_RetreatAttack.m_AttackEndAnimation );

  00592	8b 8d c0 7f ff
	ff		 mov	 ecx, DWORD PTR _pGrp$[ebp]
  00598	53		 push	 ebx
  00599	ff 15 00 00 00
	00		 call	 DWORD PTR __imp_?GetAnimationIdx@ioEntityGroup@@QAEHABVioHashString@@@Z

; 1049 : 		m_dwMotionEndTime += pGrp->GetAnimationFullTime( iEndAniID ) * fEndTimeRate;

  0059f	8b 8d c0 7f ff
	ff		 mov	 ecx, DWORD PTR _pGrp$[ebp]
  005a5	50		 push	 eax
  005a6	ff 15 00 00 00
	00		 call	 DWORD PTR __imp_?GetAnimationFullTime@ioEntityGroup@@QAEMH@Z
  005ac	d8 8d b4 7f ff
	ff		 fmul	 DWORD PTR _fEndTimeRate$608687[ebp]
  005b2	8b 86 d8 02 00
	00		 mov	 eax, DWORD PTR [esi+728]
  005b8	db 86 d8 02 00
	00		 fild	 DWORD PTR [esi+728]
  005be	85 c0		 test	 eax, eax
  005c0	79 06		 jns	 SHORT $LN364@SetRetreat
  005c2	dc 05 00 00 00
	00		 fadd	 QWORD PTR __real@41f0000000000000
$LN364@SetRetreat:
  005c8	de c1		 faddp	 ST(1), ST(0)
  005ca	e8 00 00 00 00	 call	 __ftol2
  005cf	89 86 d8 02 00
	00		 mov	 DWORD PTR [esi+728], eax
$LN2@SetRetreat:

; 1050 : 	}
; 1051 : 
; 1052 : 	pChar->CheckCharColSkipSkillTime( iAniID, fTimeRate, dwPreDelay );

  005d5	ff b5 ac 7f ff
	ff		 push	 DWORD PTR _dwPreDelay$[ebp]
  005db	f3 0f 10 85 bc
	7f ff ff	 movss	 xmm0, DWORD PTR _fTimeRate$[ebp]
  005e3	8b bd 98 7f ff
	ff		 mov	 edi, DWORD PTR _pChar$GSCopy$[ebp]
  005e9	51		 push	 ecx
  005ea	f3 0f 11 04 24	 movss	 DWORD PTR [esp], xmm0
  005ef	ff b5 c4 7f ff
	ff		 push	 DWORD PTR _iAniID$[ebp]
  005f5	8b cf		 mov	 ecx, edi
  005f7	e8 00 00 00 00	 call	 ?CheckCharColSkipSkillTime@ioBaseChar@@QAEXHMK@Z ; ioBaseChar::CheckCharColSkipSkillTime

; 1053 : 
; 1054 : 	SetExtraAniJump( pChar, iAniID, fTimeRate );

  005fc	f3 0f 10 85 bc
	7f ff ff	 movss	 xmm0, DWORD PTR _fTimeRate$[ebp]
  00604	51		 push	 ecx
  00605	f3 0f 11 04 24	 movss	 DWORD PTR [esp], xmm0
  0060a	ff b5 c4 7f ff
	ff		 push	 DWORD PTR _iAniID$[ebp]
  00610	8b ce		 mov	 ecx, esi
  00612	57		 push	 edi
  00613	e8 00 00 00 00	 call	 ?SetExtraAniJump@ioSkill@@IAEXPAVioBaseChar@@HM@Z ; ioSkill::SetExtraAniJump

; 1055 : 
; 1056 : 	//
; 1057 : 	pChar->SetReservedSliding( m_RetreatAttack.m_vForceInfoList, iAniID, fTimeRate, dwPreDelay );

  00618	f3 0f 10 05 00
	00 00 00	 movss	 xmm0, DWORD PTR __real@3f800000
  00620	6a 01		 push	 1
  00622	51		 push	 ecx
  00623	f3 0f 11 04 24	 movss	 DWORD PTR [esp], xmm0
  00628	ff b5 ac 7f ff
	ff		 push	 DWORD PTR _dwPreDelay$[ebp]
  0062e	f3 0f 10 85 bc
	7f ff ff	 movss	 xmm0, DWORD PTR _fTimeRate$[ebp]
  00636	51		 push	 ecx
  00637	f3 0f 11 04 24	 movss	 DWORD PTR [esp], xmm0
  0063c	ff b5 c4 7f ff
	ff		 push	 DWORD PTR _iAniID$[ebp]
  00642	8d 86 40 13 00
	00		 lea	 eax, DWORD PTR [esi+4928]
  00648	50		 push	 eax
  00649	8b cf		 mov	 ecx, edi
  0064b	e8 00 00 00 00	 call	 ?SetReservedSliding@ioBaseChar@@QAEXABV?$vector@UForceInfo@@V?$allocator@UForceInfo@@@std@@@std@@HMKM_N@Z ; ioBaseChar::SetReservedSliding

; 1058 : 
; 1059 : 	if( pChar->IsNeedSendNetwork() )

  00650	8b 07		 mov	 eax, DWORD PTR [edi]
  00652	8b cf		 mov	 ecx, edi
  00654	ff 90 04 01 00
	00		 call	 DWORD PTR [eax+260]
  0065a	84 c0		 test	 al, al
  0065c	0f 84 9c 00 00
	00		 je	 $LN1@SetRetreat

; 1060 : 	{
; 1061 : 		SP2Packet kPacket( CUPK_SKILL_EXTRA_INFO );

  00662	68 39 41 00 00	 push	 16697			; 00004139H
  00667	8d 8d c8 7f ff
	ff		 lea	 ecx, DWORD PTR _kPacket$608690[ebp]
  0066d	e8 00 00 00 00	 call	 ??0SP2Packet@@QAE@K@Z	; SP2Packet::SP2Packet

; 1062 : 		kPacket << pChar->GetCharName();

  00672	8d 87 d4 02 00
	00		 lea	 eax, DWORD PTR [edi+724]
  00678	50		 push	 eax
  00679	8d 8d c8 7f ff
	ff		 lea	 ecx, DWORD PTR _kPacket$608690[ebp]
  0067f	c7 45 fc 03 00
	00 00		 mov	 DWORD PTR __$EHRec$[ebp+8], 3
  00686	e8 00 00 00 00	 call	 ??6SP2Packet@@QAEAAV0@ABVioHashString@@@Z ; SP2Packet::operator<<

; 1063 : 		kPacket << GetName();

  0068b	8d 46 24	 lea	 eax, DWORD PTR [esi+36]
  0068e	50		 push	 eax
  0068f	8d 8d c8 7f ff
	ff		 lea	 ecx, DWORD PTR _kPacket$608690[ebp]
  00695	e8 00 00 00 00	 call	 ??6SP2Packet@@QAEAAV0@ABVioHashString@@@Z ; SP2Packet::operator<<

; 1064 : 		kPacket << m_SkillState;

  0069a	ff b6 e4 10 00
	00		 push	 DWORD PTR [esi+4324]
  006a0	8d 8d c8 7f ff
	ff		 lea	 ecx, DWORD PTR _kPacket$608690[ebp]
  006a6	e8 00 00 00 00	 call	 ??6SP2Packet@@QAEAAV0@H@Z ; SP2Packet::operator<<

; 1065 : 		kPacket << m_iCurLinearCombo;

  006ab	ff b6 68 11 00
	00		 push	 DWORD PTR [esi+4456]
  006b1	8d 8d c8 7f ff
	ff		 lea	 ecx, DWORD PTR _kPacket$608690[ebp]
  006b7	e8 00 00 00 00	 call	 ??6SP2Packet@@QAEAAV0@H@Z ; SP2Packet::operator<<

; 1066 : 		kPacket << m_iCurRetreatCnt;

  006bc	8d 86 88 13 00
	00		 lea	 eax, DWORD PTR [esi+5000]
  006c2	50		 push	 eax
  006c3	8d 8d c8 7f ff
	ff		 lea	 ecx, DWORD PTR _kPacket$608690[ebp]
  006c9	e8 00 00 00 00	 call	 ??6SP2Packet@@QAEAAV0@AAV?$CEncrypt@H@@@Z ; SP2Packet::operator<<

; 1067 : 		kPacket << (int)m_CurDirKey;

  006ce	ff b6 04 13 00
	00		 push	 DWORD PTR [esi+4868]
  006d4	8d 8d c8 7f ff
	ff		 lea	 ecx, DWORD PTR _kPacket$608690[ebp]
  006da	e8 00 00 00 00	 call	 ??6SP2Packet@@QAEAAV0@H@Z ; SP2Packet::operator<<

; 1068 : 		P2PNetwork::SendToAllPlayingUser( kPacket );

  006df	8d 85 c8 7f ff
	ff		 lea	 eax, DWORD PTR _kPacket$608690[ebp]
  006e5	6a 00		 push	 0
  006e7	50		 push	 eax
  006e8	e8 00 00 00 00	 call	 ?SendToAllPlayingUser@P2PNetwork@@YAXAAVSP2Packet@@PAVioBaseChar@@@Z ; P2PNetwork::SendToAllPlayingUser

; 1069 : 	}

  006ed	83 4d fc ff	 or	 DWORD PTR __$EHRec$[ebp+8], -1
  006f1	59		 pop	 ecx
  006f2	59		 pop	 ecx
  006f3	8d 8d c8 7f ff
	ff		 lea	 ecx, DWORD PTR _kPacket$608690[ebp]
  006f9	e8 00 00 00 00	 call	 ??1SP2Packet@@UAE@XZ	; SP2Packet::~SP2Packet
$LN1@SetRetreat:

; 1070 : 
; 1071 : 	pChar->ClearDirDoubleClick();

  006fe	8b cf		 mov	 ecx, edi
  00700	e8 00 00 00 00	 call	 ?ClearDirDoubleClick@ioBaseChar@@QAEXXZ ; ioBaseChar::ClearDirDoubleClick

; 1072 : 	m_iCurRetreatCnt++;

  00705	8d 85 c4 7f ff
	ff		 lea	 eax, DWORD PTR _value$617348[ebp]
  0070b	50		 push	 eax
  0070c	8d 8e 88 13 00
	00		 lea	 ecx, DWORD PTR [esi+5000]
  00712	e8 00 00 00 00	 call	 ?DecryptValueToPool@?$CEncrypt@H@@QAEXPAH@Z ; CEncrypt<int>::DecryptValueToPool
  00717	ff 85 c4 7f ff
	ff		 inc	 DWORD PTR _value$617348[ebp]
  0071d	8d 85 c4 7f ff
	ff		 lea	 eax, DWORD PTR _value$617348[ebp]
  00723	50		 push	 eax
  00724	8d 8e 88 13 00
	00		 lea	 ecx, DWORD PTR [esi+5000]
  0072a	e8 00 00 00 00	 call	 ?EncryptValueToPool@?$CEncrypt@H@@AAEXPBD@Z ; CEncrypt<int>::EncryptValueToPool
$LN341@SetRetreat:

; 1073 : }

  0072f	8b 4d f4	 mov	 ecx, DWORD PTR __$EHRec$[ebp]
  00732	64 89 0d 00 00
	00 00		 mov	 DWORD PTR fs:0, ecx
  00739	59		 pop	 ecx
  0073a	5f		 pop	 edi
  0073b	5e		 pop	 esi
  0073c	5b		 pop	 ebx
  0073d	8b 4d f0	 mov	 ecx, DWORD PTR __$ArrayPad$[ebp]
  00740	33 cd		 xor	 ecx, ebp
  00742	e8 00 00 00 00	 call	 @__security_check_cookie@4
  00747	c9		 leave
  00748	c2 04 00	 ret	 4
_TEXT	ENDS
;	COMDAT text$x
text$x	SEGMENT
__unwindfunclet$?SetRetreatState@ioLinearComboSkill2@@IAEXPAVioBaseChar@@@Z$1:
  00000	8d 8d 9c 7f ff
	ff		 lea	 ecx, DWORD PTR $T617068[ebp]
  00006	ff 25 00 00 00
	00		 jmp	 DWORD PTR __imp_??1ioHashString@@QAE@XZ
__unwindfunclet$?SetRetreatState@ioLinearComboSkill2@@IAEXPAVioBaseChar@@@Z$2:
  0000c	8d 8d 9c 7f ff
	ff		 lea	 ecx, DWORD PTR $T617198[ebp]
  00012	ff 25 00 00 00
	00		 jmp	 DWORD PTR __imp_??1ioHashString@@QAE@XZ
__unwindfunclet$?SetRetreatState@ioLinearComboSkill2@@IAEXPAVioBaseChar@@@Z$3:
  00018	8d 8d 9c 7f ff
	ff		 lea	 ecx, DWORD PTR $T617328[ebp]
  0001e	ff 25 00 00 00
	00		 jmp	 DWORD PTR __imp_??1ioHashString@@QAE@XZ
__unwindfunclet$?SetRetreatState@ioLinearComboSkill2@@IAEXPAVioBaseChar@@@Z$0:
  00024	8d 8d c8 7f ff
	ff		 lea	 ecx, DWORD PTR _kPacket$608690[ebp]
  0002a	e9 00 00 00 00	 jmp	 ??1SP2Packet@@UAE@XZ	; SP2Packet::~SP2Packet
__ehhandler$?SetRetreatState@ioLinearComboSkill2@@IAEXPAVioBaseChar@@@Z:
  0002f	8b 54 24 08	 mov	 edx, DWORD PTR [esp+8]
  00033	8d 42 0c	 lea	 eax, DWORD PTR [edx+12]
  00036	8b 8a 94 7f ff
	ff		 mov	 ecx, DWORD PTR [edx-32876]
  0003c	33 c8		 xor	 ecx, eax
  0003e	e8 00 00 00 00	 call	 @__security_check_cookie@4
  00043	8b 4a fc	 mov	 ecx, DWORD PTR [edx-4]
  00046	33 c8		 xor	 ecx, eax
  00048	e8 00 00 00 00	 call	 @__security_check_cookie@4
  0004d	b8 00 00 00 00	 mov	 eax, OFFSET __ehfuncinfo$?SetRetreatState@ioLinearComboSkill2@@IAEXPAVioBaseChar@@@Z
  00052	e9 00 00 00 00	 jmp	 ___CxxFrameHandler3
text$x	ENDS
?SetRetreatState@ioLinearComboSkill2@@IAEXPAVioBaseChar@@@Z ENDP ; ioLinearComboSkill2::SetRetreatState
PUBLIC	??0?$CEncrypt@_N@@QAE@ABV0@@Z			; CEncrypt<bool>::CEncrypt<bool>
;	COMDAT xdata$x
; File d:\lost saga for developer\youtube\tutorial\source\src\lsclient\encryptvalue.h
xdata$x	SEGMENT
__unwindtable$??0?$CEncrypt@_N@@QAE@ABV0@@Z DD 0ffffffffH
	DD	FLAT:__unwindfunclet$??0?$CEncrypt@_N@@QAE@ABV0@@Z$0
__ehfuncinfo$??0?$CEncrypt@_N@@QAE@ABV0@@Z DD 019930522H
	DD	01H
	DD	FLAT:__unwindtable$??0?$CEncrypt@_N@@QAE@ABV0@@Z
	DD	2 DUP(00H)
	DD	2 DUP(00H)
	DD	00H
	DD	01H
; Function compile flags: /Ogsp
xdata$x	ENDS
;	COMDAT ??0?$CEncrypt@_N@@QAE@ABV0@@Z
_TEXT	SEGMENT
_this$ = -16						; size = 4
__$EHRec$ = -12						; size = 12
_inValue$ = 8						; size = 4
_value$617390 = 11					; size = 1
_value$617385 = 11					; size = 1
??0?$CEncrypt@_N@@QAE@ABV0@@Z PROC			; CEncrypt<bool>::CEncrypt<bool>, COMDAT
; _this$ = ecx

; 120  : 	CEncrypt( const CEncrypt<type> &inValue )   //     

  00000	6a 04		 push	 4
  00002	b8 00 00 00 00	 mov	 eax, __ehhandler$??0?$CEncrypt@_N@@QAE@ABV0@@Z
  00007	e8 00 00 00 00	 call	 __EH_prolog3
  0000c	8b f1		 mov	 esi, ecx
  0000e	89 75 f0	 mov	 DWORD PTR _this$[ebp], esi
  00011	8d 4e 0c	 lea	 ecx, DWORD PTR [esi+12]
  00014	c7 06 00 00 00
	00		 mov	 DWORD PTR [esi], OFFSET ??_7?$CEncrypt@_N@@6B@
  0001a	e8 00 00 00 00	 call	 ??0ccddaabb@@QAE@XZ	; ccddaabb::ccddaabb
  0001f	83 65 fc 00	 and	 DWORD PTR __$EHRec$[ebp+8], 0

; 121  : 	{
; 122  : 		Init();

  00023	8b ce		 mov	 ecx, esi
  00025	e8 00 00 00 00	 call	 ?Init@?$CEncrypt@_N@@AAEXXZ ; CEncrypt<bool>::Init

; 123  : 		*this = inValue;

  0002a	8b 4d 08	 mov	 ecx, DWORD PTR _inValue$[ebp]
  0002d	8d 45 0b	 lea	 eax, DWORD PTR _value$617385[ebp]
  00030	50		 push	 eax
  00031	e8 00 00 00 00	 call	 ?DecryptValueToPool@?$CEncrypt@_N@@QAEXPA_N@Z ; CEncrypt<bool>::DecryptValueToPool
  00036	8a 45 0b	 mov	 al, BYTE PTR _value$617385[ebp]
  00039	88 45 0b	 mov	 BYTE PTR _value$617390[ebp], al
  0003c	8d 45 0b	 lea	 eax, DWORD PTR _value$617390[ebp]
  0003f	50		 push	 eax
  00040	8b ce		 mov	 ecx, esi
  00042	e8 00 00 00 00	 call	 ?EncryptValueToPool@?$CEncrypt@_N@@AAEXPBD@Z ; CEncrypt<bool>::EncryptValueToPool

; 124  : 	}

  00047	8b c6		 mov	 eax, esi
  00049	e8 00 00 00 00	 call	 __EH_epilog3
  0004e	c2 04 00	 ret	 4
_TEXT	ENDS
;	COMDAT text$x
text$x	SEGMENT
__unwindfunclet$??0?$CEncrypt@_N@@QAE@ABV0@@Z$0:
  00000	8b 4d f0	 mov	 ecx, DWORD PTR _this$[ebp]
  00003	83 c1 0c	 add	 ecx, 12			; 0000000cH
  00006	e9 00 00 00 00	 jmp	 ??1ccddaabb@@UAE@XZ	; ccddaabb::~ccddaabb
__ehhandler$??0?$CEncrypt@_N@@QAE@ABV0@@Z:
  0000b	8b 54 24 08	 mov	 edx, DWORD PTR [esp+8]
  0000f	8d 42 0c	 lea	 eax, DWORD PTR [edx+12]
  00012	8b 4a ec	 mov	 ecx, DWORD PTR [edx-20]
  00015	33 c8		 xor	 ecx, eax
  00017	e8 00 00 00 00	 call	 @__security_check_cookie@4
  0001c	b8 00 00 00 00	 mov	 eax, OFFSET __ehfuncinfo$??0?$CEncrypt@_N@@QAE@ABV0@@Z
  00021	e9 00 00 00 00	 jmp	 ___CxxFrameHandler3
text$x	ENDS
??0?$CEncrypt@_N@@QAE@ABV0@@Z ENDP			; CEncrypt<bool>::CEncrypt<bool>
PUBLIC	??0?$CEncrypt@H@@QAE@ABV0@@Z			; CEncrypt<int>::CEncrypt<int>
;	COMDAT xdata$x
xdata$x	SEGMENT
__unwindtable$??0?$CEncrypt@H@@QAE@ABV0@@Z DD 0ffffffffH
	DD	FLAT:__unwindfunclet$??0?$CEncrypt@H@@QAE@ABV0@@Z$0
__ehfuncinfo$??0?$CEncrypt@H@@QAE@ABV0@@Z DD 019930522H
	DD	01H
	DD	FLAT:__unwindtable$??0?$CEncrypt@H@@QAE@ABV0@@Z
	DD	2 DUP(00H)
	DD	2 DUP(00H)
	DD	00H
	DD	01H
; Function compile flags: /Ogsp
xdata$x	ENDS
;	COMDAT ??0?$CEncrypt@H@@QAE@ABV0@@Z
_TEXT	SEGMENT
_this$ = -16						; size = 4
__$EHRec$ = -12						; size = 12
_value$617409 = 8					; size = 4
_value$617404 = 8					; size = 4
_inValue$ = 8						; size = 4
??0?$CEncrypt@H@@QAE@ABV0@@Z PROC			; CEncrypt<int>::CEncrypt<int>, COMDAT
; _this$ = ecx

; 120  : 	CEncrypt( const CEncrypt<type> &inValue )   //     

  00000	6a 04		 push	 4
  00002	b8 00 00 00 00	 mov	 eax, __ehhandler$??0?$CEncrypt@H@@QAE@ABV0@@Z
  00007	e8 00 00 00 00	 call	 __EH_prolog3
  0000c	8b f1		 mov	 esi, ecx
  0000e	89 75 f0	 mov	 DWORD PTR _this$[ebp], esi
  00011	8d 4e 0c	 lea	 ecx, DWORD PTR [esi+12]
  00014	c7 06 00 00 00
	00		 mov	 DWORD PTR [esi], OFFSET ??_7?$CEncrypt@H@@6B@
  0001a	e8 00 00 00 00	 call	 ??0ccddaabb@@QAE@XZ	; ccddaabb::ccddaabb
  0001f	83 65 fc 00	 and	 DWORD PTR __$EHRec$[ebp+8], 0

; 121  : 	{
; 122  : 		Init();

  00023	8b ce		 mov	 ecx, esi
  00025	e8 00 00 00 00	 call	 ?Init@?$CEncrypt@H@@AAEXXZ ; CEncrypt<int>::Init

; 123  : 		*this = inValue;

  0002a	8b 4d 08	 mov	 ecx, DWORD PTR _inValue$[ebp]
  0002d	8d 45 08	 lea	 eax, DWORD PTR _value$617404[ebp]
  00030	50		 push	 eax
  00031	e8 00 00 00 00	 call	 ?DecryptValueToPool@?$CEncrypt@H@@QAEXPAH@Z ; CEncrypt<int>::DecryptValueToPool
  00036	8b 45 08	 mov	 eax, DWORD PTR _value$617404[ebp]
  00039	89 45 08	 mov	 DWORD PTR _value$617409[ebp], eax
  0003c	8d 45 08	 lea	 eax, DWORD PTR _value$617409[ebp]
  0003f	50		 push	 eax
  00040	8b ce		 mov	 ecx, esi
  00042	e8 00 00 00 00	 call	 ?EncryptValueToPool@?$CEncrypt@H@@AAEXPBD@Z ; CEncrypt<int>::EncryptValueToPool

; 124  : 	}

  00047	8b c6		 mov	 eax, esi
  00049	e8 00 00 00 00	 call	 __EH_epilog3
  0004e	c2 04 00	 ret	 4
_TEXT	ENDS
;	COMDAT text$x
text$x	SEGMENT
__unwindfunclet$??0?$CEncrypt@H@@QAE@ABV0@@Z$0:
  00000	8b 4d f0	 mov	 ecx, DWORD PTR _this$[ebp]
  00003	83 c1 0c	 add	 ecx, 12			; 0000000cH
  00006	e9 00 00 00 00	 jmp	 ??1ccddaabb@@UAE@XZ	; ccddaabb::~ccddaabb
__ehhandler$??0?$CEncrypt@H@@QAE@ABV0@@Z:
  0000b	8b 54 24 08	 mov	 edx, DWORD PTR [esp+8]
  0000f	8d 42 0c	 lea	 eax, DWORD PTR [edx+12]
  00012	8b 4a ec	 mov	 ecx, DWORD PTR [edx-20]
  00015	33 c8		 xor	 ecx, eax
  00017	e8 00 00 00 00	 call	 @__security_check_cookie@4
  0001c	b8 00 00 00 00	 mov	 eax, OFFSET __ehfuncinfo$??0?$CEncrypt@H@@QAE@ABV0@@Z
  00021	e9 00 00 00 00	 jmp	 ___CxxFrameHandler3
text$x	ENDS
??0?$CEncrypt@H@@QAE@ABV0@@Z ENDP			; CEncrypt<int>::CEncrypt<int>
PUBLIC	?_Buy@?$vector@UAttackAttribute@@V?$allocator@UAttackAttribute@@@std@@@std@@IAE_NI@Z ; std::vector<AttackAttribute,std::allocator<AttackAttribute> >::_Buy
; Function compile flags: /Ogsp
; File c:\program files (x86)\microsoft visual studio 10.0\vc\include\vector
;	COMDAT ?_Buy@?$vector@UAttackAttribute@@V?$allocator@UAttackAttribute@@@std@@@std@@IAE_NI@Z
_TEXT	SEGMENT
__Capacity$ = 8						; size = 4
?_Buy@?$vector@UAttackAttribute@@V?$allocator@UAttackAttribute@@@std@@@std@@IAE_NI@Z PROC ; std::vector<AttackAttribute,std::allocator<AttackAttribute> >::_Buy, COMDAT
; _this$ = ecx

; 1250 : 		{	// allocate array with _Capacity elements

  00000	55		 push	 ebp
  00001	8b ec		 mov	 ebp, esp
  00003	56		 push	 esi

; 1251 : 		this->_Myfirst = 0;

  00004	33 c0		 xor	 eax, eax
  00006	57		 push	 edi

; 1252 : 		this->_Mylast = 0;
; 1253 : 		this->_Myend = 0;
; 1254 : 
; 1255 : 		if (_Capacity == 0)

  00007	8b 7d 08	 mov	 edi, DWORD PTR __Capacity$[ebp]
  0000a	8b f1		 mov	 esi, ecx
  0000c	89 06		 mov	 DWORD PTR [esi], eax
  0000e	89 46 04	 mov	 DWORD PTR [esi+4], eax
  00011	89 46 08	 mov	 DWORD PTR [esi+8], eax
  00014	3b f8		 cmp	 edi, eax
  00016	75 04		 jne	 SHORT $LN4@Buy

; 1256 : 			return (false);

  00018	32 c0		 xor	 al, al
  0001a	eb 2b		 jmp	 SHORT $LN5@Buy
$LN4@Buy:

; 1257 : 		else if (max_size() < _Capacity)

  0001c	81 ff 33 33 33
	03		 cmp	 edi, 53687091		; 03333333H
  00022	76 0b		 jbe	 SHORT $LN2@Buy

; 1258 : 			_Xlen();	// result too long

  00024	68 00 00 00 00	 push	 OFFSET ??_C@_0BD@OLBABOEK@vector?$DMT?$DO?5too?5long?$AA@
  00029	ff 15 00 00 00
	00		 call	 DWORD PTR __imp_?_Xlength_error@std@@YAXPBD@Z
$LN19@Buy:
$LN2@Buy:

; 1259 : 		else
; 1260 : 			{	// nonempty array, allocate storage
; 1261 : 			this->_Myfirst = this->_Alval.allocate(_Capacity);

  0002f	50		 push	 eax
  00030	57		 push	 edi
  00031	e8 00 00 00 00	 call	 ??$_Allocate@UAttackAttribute@@@std@@YAPAUAttackAttribute@@IPAU1@@Z ; std::_Allocate<AttackAttribute>

; 1262 : 			this->_Mylast = this->_Myfirst;
; 1263 : 			this->_Myend = this->_Myfirst + _Capacity;

  00036	6b ff 50	 imul	 edi, 80			; 00000050H
  00039	03 f8		 add	 edi, eax
  0003b	59		 pop	 ecx
  0003c	89 06		 mov	 DWORD PTR [esi], eax
  0003e	89 46 04	 mov	 DWORD PTR [esi+4], eax
  00041	59		 pop	 ecx
  00042	89 7e 08	 mov	 DWORD PTR [esi+8], edi

; 1264 : 			}
; 1265 : 		return (true);

  00045	b0 01		 mov	 al, 1
$LN5@Buy:
  00047	5f		 pop	 edi
  00048	5e		 pop	 esi

; 1266 : 		}

  00049	5d		 pop	 ebp
  0004a	c2 04 00	 ret	 4
$LN18@Buy:
?_Buy@?$vector@UAttackAttribute@@V?$allocator@UAttackAttribute@@@std@@@std@@IAE_NI@Z ENDP ; std::vector<AttackAttribute,std::allocator<AttackAttribute> >::_Buy
_TEXT	ENDS
PUBLIC	??$_Cons_val@V?$allocator@UForceInfo@@@std@@UForceInfo@@ABU3@@std@@YAXAAV?$allocator@UForceInfo@@@0@PAUForceInfo@@ABU2@@Z ; std::_Cons_val<std::allocator<ForceInfo>,ForceInfo,ForceInfo const &>
; Function compile flags: /Ogsp
; File c:\program files (x86)\microsoft visual studio 10.0\vc\include\xmemory
;	COMDAT ??$_Cons_val@V?$allocator@UForceInfo@@@std@@UForceInfo@@ABU3@@std@@YAXAAV?$allocator@UForceInfo@@@0@PAUForceInfo@@ABU2@@Z
_TEXT	SEGMENT
__Alval$ = 8						; size = 4
__Pdest$ = 12						; size = 4
__Src$ = 16						; size = 4
??$_Cons_val@V?$allocator@UForceInfo@@@std@@UForceInfo@@ABU3@@std@@YAXAAV?$allocator@UForceInfo@@@0@PAUForceInfo@@ABU2@@Z PROC ; std::_Cons_val<std::allocator<ForceInfo>,ForceInfo,ForceInfo const &>, COMDAT

; 279  : 	{	// construct using allocator

  00000	55		 push	 ebp
  00001	8b ec		 mov	 ebp, esp
  00003	57		 push	 edi

; 280  : 	_Alval.construct(_Pdest, _STD forward<_Ty2>(_Src));

  00004	8b 7d 0c	 mov	 edi, DWORD PTR __Pdest$[ebp]
  00007	85 ff		 test	 edi, edi
  00009	74 08		 je	 SHORT $LN9@Cons_val@2
  0000b	56		 push	 esi
  0000c	8b 75 10	 mov	 esi, DWORD PTR __Src$[ebp]
  0000f	a5		 movsd
  00010	a5		 movsd
  00011	a5		 movsd
  00012	5e		 pop	 esi
$LN9@Cons_val@2:
  00013	5f		 pop	 edi

; 281  : 	}

  00014	5d		 pop	 ebp
  00015	c3		 ret	 0
??$_Cons_val@V?$allocator@UForceInfo@@@std@@UForceInfo@@ABU3@@std@@YAXAAV?$allocator@UForceInfo@@@0@PAUForceInfo@@ABU2@@Z ENDP ; std::_Cons_val<std::allocator<ForceInfo>,ForceInfo,ForceInfo const &>
_TEXT	ENDS
PUBLIC	?construct@?$allocator@UWeaponInfo@@@std@@QAEXPAUWeaponInfo@@ABU3@@Z ; std::allocator<WeaponInfo>::construct
; Function compile flags: /Ogsp
;	COMDAT ?construct@?$allocator@UWeaponInfo@@@std@@QAEXPAUWeaponInfo@@ABU3@@Z
_TEXT	SEGMENT
__Ptr$ = 8						; size = 4
__Val$ = 12						; size = 4
?construct@?$allocator@UWeaponInfo@@@std@@QAEXPAUWeaponInfo@@ABU3@@Z PROC ; std::allocator<WeaponInfo>::construct, COMDAT
; _this$ = ecx

; 196  : 		{	// construct object at _Ptr with value _Val

  00000	55		 push	 ebp
  00001	8b ec		 mov	 ebp, esp

; 197  : 		_Construct(_Ptr, _Val);

  00003	ff 75 0c	 push	 DWORD PTR __Val$[ebp]
  00006	ff 75 08	 push	 DWORD PTR __Ptr$[ebp]
  00009	e8 00 00 00 00	 call	 ??$_Construct@UWeaponInfo@@ABU1@@std@@YAXPAUWeaponInfo@@ABU1@@Z ; std::_Construct<WeaponInfo,WeaponInfo const &>
  0000e	59		 pop	 ecx
  0000f	59		 pop	 ecx

; 198  : 		}

  00010	5d		 pop	 ebp
  00011	c2 08 00	 ret	 8
?construct@?$allocator@UWeaponInfo@@@std@@QAEXPAUWeaponInfo@@ABU3@@Z ENDP ; std::allocator<WeaponInfo>::construct
_TEXT	ENDS
PUBLIC	??0?$vector@UWeaponInfo@@V?$allocator@UWeaponInfo@@@std@@@std@@QAE@XZ ; std::vector<WeaponInfo,std::allocator<WeaponInfo> >::vector<WeaponInfo,std::allocator<WeaponInfo> >
; Function compile flags: /Ogsp
; File c:\program files (x86)\microsoft visual studio 10.0\vc\include\vector
;	COMDAT ??0?$vector@UWeaponInfo@@V?$allocator@UWeaponInfo@@@std@@@std@@QAE@XZ
_TEXT	SEGMENT
??0?$vector@UWeaponInfo@@V?$allocator@UWeaponInfo@@@std@@@std@@QAE@XZ PROC ; std::vector<WeaponInfo,std::allocator<WeaponInfo> >::vector<WeaponInfo,std::allocator<WeaponInfo> >, COMDAT
; _this$ = ecx

; 507  : 		{	// construct empty vector

  00000	8b c1		 mov	 eax, ecx
  00002	33 c9		 xor	 ecx, ecx
  00004	89 08		 mov	 DWORD PTR [eax], ecx
  00006	89 48 04	 mov	 DWORD PTR [eax+4], ecx
  00009	89 48 08	 mov	 DWORD PTR [eax+8], ecx

; 508  : 		}

  0000c	c3		 ret	 0
??0?$vector@UWeaponInfo@@V?$allocator@UWeaponInfo@@@std@@@std@@QAE@XZ ENDP ; std::vector<WeaponInfo,std::allocator<WeaponInfo> >::vector<WeaponInfo,std::allocator<WeaponInfo> >
_TEXT	ENDS
PUBLIC	??0?$vector@UForceInfo@@V?$allocator@UForceInfo@@@std@@@std@@QAE@XZ ; std::vector<ForceInfo,std::allocator<ForceInfo> >::vector<ForceInfo,std::allocator<ForceInfo> >
; Function compile flags: /Ogsp
;	COMDAT ??0?$vector@UForceInfo@@V?$allocator@UForceInfo@@@std@@@std@@QAE@XZ
_TEXT	SEGMENT
??0?$vector@UForceInfo@@V?$allocator@UForceInfo@@@std@@@std@@QAE@XZ PROC ; std::vector<ForceInfo,std::allocator<ForceInfo> >::vector<ForceInfo,std::allocator<ForceInfo> >, COMDAT
; _this$ = ecx

; 507  : 		{	// construct empty vector

  00000	8b c1		 mov	 eax, ecx
  00002	33 c9		 xor	 ecx, ecx
  00004	89 08		 mov	 DWORD PTR [eax], ecx
  00006	89 48 04	 mov	 DWORD PTR [eax+4], ecx
  00009	89 48 08	 mov	 DWORD PTR [eax+8], ecx

; 508  : 		}

  0000c	c3		 ret	 0
??0?$vector@UForceInfo@@V?$allocator@UForceInfo@@@std@@@std@@QAE@XZ ENDP ; std::vector<ForceInfo,std::allocator<ForceInfo> >::vector<ForceInfo,std::allocator<ForceInfo> >
_TEXT	ENDS
PUBLIC	??0?$vector@UAttackAttribute@@V?$allocator@UAttackAttribute@@@std@@@std@@QAE@XZ ; std::vector<AttackAttribute,std::allocator<AttackAttribute> >::vector<AttackAttribute,std::allocator<AttackAttribute> >
; Function compile flags: /Ogsp
;	COMDAT ??0?$vector@UAttackAttribute@@V?$allocator@UAttackAttribute@@@std@@@std@@QAE@XZ
_TEXT	SEGMENT
??0?$vector@UAttackAttribute@@V?$allocator@UAttackAttribute@@@std@@@std@@QAE@XZ PROC ; std::vector<AttackAttribute,std::allocator<AttackAttribute> >::vector<AttackAttribute,std::allocator<AttackAttribute> >, COMDAT
; _this$ = ecx

; 507  : 		{	// construct empty vector

  00000	8b c1		 mov	 eax, ecx
  00002	33 c9		 xor	 ecx, ecx
  00004	89 08		 mov	 DWORD PTR [eax], ecx
  00006	89 48 04	 mov	 DWORD PTR [eax+4], ecx
  00009	89 48 08	 mov	 DWORD PTR [eax+8], ecx

; 508  : 		}

  0000c	c3		 ret	 0
??0?$vector@UAttackAttribute@@V?$allocator@UAttackAttribute@@@std@@@std@@QAE@XZ ENDP ; std::vector<AttackAttribute,std::allocator<AttackAttribute> >::vector<AttackAttribute,std::allocator<AttackAttribute> >
_TEXT	ENDS
PUBLIC	?begin@?$vector@UAttackAttribute@@V?$allocator@UAttackAttribute@@@std@@@std@@QAE?AV?$_Vector_iterator@V?$_Vector_val@UAttackAttribute@@V?$allocator@UAttackAttribute@@@std@@@std@@@2@XZ ; std::vector<AttackAttribute,std::allocator<AttackAttribute> >::begin
; Function compile flags: /Ogsp
;	COMDAT ?begin@?$vector@UAttackAttribute@@V?$allocator@UAttackAttribute@@@std@@@std@@QAE?AV?$_Vector_iterator@V?$_Vector_val@UAttackAttribute@@V?$allocator@UAttackAttribute@@@std@@@std@@@2@XZ
_TEXT	SEGMENT
___$ReturnUdt$ = 8					; size = 4
?begin@?$vector@UAttackAttribute@@V?$allocator@UAttackAttribute@@@std@@@std@@QAE?AV?$_Vector_iterator@V?$_Vector_val@UAttackAttribute@@V?$allocator@UAttackAttribute@@@std@@@std@@@2@XZ PROC ; std::vector<AttackAttribute,std::allocator<AttackAttribute> >::begin, COMDAT
; _this$ = ecx

; 781  : 		{	// return iterator for beginning of mutable sequence

  00000	55		 push	 ebp
  00001	8b ec		 mov	 ebp, esp

; 782  : 		return (iterator(this->_Myfirst, this));

  00003	8b 09		 mov	 ecx, DWORD PTR [ecx]
  00005	8b 45 08	 mov	 eax, DWORD PTR ___$ReturnUdt$[ebp]
  00008	89 08		 mov	 DWORD PTR [eax], ecx

; 783  : 		}

  0000a	5d		 pop	 ebp
  0000b	c2 04 00	 ret	 4
?begin@?$vector@UAttackAttribute@@V?$allocator@UAttackAttribute@@@std@@@std@@QAE?AV?$_Vector_iterator@V?$_Vector_val@UAttackAttribute@@V?$allocator@UAttackAttribute@@@std@@@std@@@2@XZ ENDP ; std::vector<AttackAttribute,std::allocator<AttackAttribute> >::begin
_TEXT	ENDS
PUBLIC	?end@?$vector@UAttackAttribute@@V?$allocator@UAttackAttribute@@@std@@@std@@QAE?AV?$_Vector_iterator@V?$_Vector_val@UAttackAttribute@@V?$allocator@UAttackAttribute@@@std@@@std@@@2@XZ ; std::vector<AttackAttribute,std::allocator<AttackAttribute> >::end
; Function compile flags: /Ogsp
;	COMDAT ?end@?$vector@UAttackAttribute@@V?$allocator@UAttackAttribute@@@std@@@std@@QAE?AV?$_Vector_iterator@V?$_Vector_val@UAttackAttribute@@V?$allocator@UAttackAttribute@@@std@@@std@@@2@XZ
_TEXT	SEGMENT
___$ReturnUdt$ = 8					; size = 4
?end@?$vector@UAttackAttribute@@V?$allocator@UAttackAttribute@@@std@@@std@@QAE?AV?$_Vector_iterator@V?$_Vector_val@UAttackAttribute@@V?$allocator@UAttackAttribute@@@std@@@std@@@2@XZ PROC ; std::vector<AttackAttribute,std::allocator<AttackAttribute> >::end, COMDAT
; _this$ = ecx

; 791  : 		{	// return iterator for end of mutable sequence

  00000	55		 push	 ebp
  00001	8b ec		 mov	 ebp, esp

; 792  : 		return (iterator(this->_Mylast, this));

  00003	8b 49 04	 mov	 ecx, DWORD PTR [ecx+4]
  00006	8b 45 08	 mov	 eax, DWORD PTR ___$ReturnUdt$[ebp]
  00009	89 08		 mov	 DWORD PTR [eax], ecx

; 793  : 		}

  0000b	5d		 pop	 ebp
  0000c	c2 04 00	 ret	 4
?end@?$vector@UAttackAttribute@@V?$allocator@UAttackAttribute@@@std@@@std@@QAE?AV?$_Vector_iterator@V?$_Vector_val@UAttackAttribute@@V?$allocator@UAttackAttribute@@@std@@@std@@@2@XZ ENDP ; std::vector<AttackAttribute,std::allocator<AttackAttribute> >::end
_TEXT	ENDS
PUBLIC	?_Make_iter@?$vector@UAttackAttribute@@V?$allocator@UAttackAttribute@@@std@@@std@@QBE?AV?$_Vector_iterator@V?$_Vector_val@UAttackAttribute@@V?$allocator@UAttackAttribute@@@std@@@std@@@2@V?$_Vector_const_iterator@V?$_Vector_val@UAttackAttribute@@V?$allocator@UAttackAttribute@@@std@@@std@@@2@@Z ; std::vector<AttackAttribute,std::allocator<AttackAttribute> >::_Make_iter
; Function compile flags: /Ogsp
;	COMDAT ?_Make_iter@?$vector@UAttackAttribute@@V?$allocator@UAttackAttribute@@@std@@@std@@QBE?AV?$_Vector_iterator@V?$_Vector_val@UAttackAttribute@@V?$allocator@UAttackAttribute@@@std@@@std@@@2@V?$_Vector_const_iterator@V?$_Vector_val@UAttackAttribute@@V?$allocator@UAttackAttribute@@@std@@@std@@@2@@Z
_TEXT	SEGMENT
___$ReturnUdt$ = 8					; size = 4
__Where$ = 12						; size = 4
?_Make_iter@?$vector@UAttackAttribute@@V?$allocator@UAttackAttribute@@@std@@@std@@QBE?AV?$_Vector_iterator@V?$_Vector_val@UAttackAttribute@@V?$allocator@UAttackAttribute@@@std@@@std@@@2@V?$_Vector_const_iterator@V?$_Vector_val@UAttackAttribute@@V?$allocator@UAttackAttribute@@@std@@@std@@@2@@Z PROC ; std::vector<AttackAttribute,std::allocator<AttackAttribute> >::_Make_iter, COMDAT
; _this$ = ecx

; 801  : 		{	// make iterator from const_iterator

  00000	55		 push	 ebp
  00001	8b ec		 mov	 ebp, esp

; 802  : 		return (iterator(_Where._Ptr, this));

  00003	8b 45 08	 mov	 eax, DWORD PTR ___$ReturnUdt$[ebp]
  00006	8b 4d 0c	 mov	 ecx, DWORD PTR __Where$[ebp]
  00009	89 08		 mov	 DWORD PTR [eax], ecx

; 803  : 		}

  0000b	5d		 pop	 ebp
  0000c	c2 08 00	 ret	 8
?_Make_iter@?$vector@UAttackAttribute@@V?$allocator@UAttackAttribute@@@std@@@std@@QBE?AV?$_Vector_iterator@V?$_Vector_val@UAttackAttribute@@V?$allocator@UAttackAttribute@@@std@@@std@@@2@V?$_Vector_const_iterator@V?$_Vector_val@UAttackAttribute@@V?$allocator@UAttackAttribute@@@std@@@std@@@2@@Z ENDP ; std::vector<AttackAttribute,std::allocator<AttackAttribute> >::_Make_iter
_TEXT	ENDS
PUBLIC	??9?$_Vector_const_iterator@V?$_Vector_val@UAttackAttribute@@V?$allocator@UAttackAttribute@@@std@@@std@@@std@@QBE_NABV01@@Z ; std::_Vector_const_iterator<std::_Vector_val<AttackAttribute,std::allocator<AttackAttribute> > >::operator!=
; Function compile flags: /Ogsp
;	COMDAT ??9?$_Vector_const_iterator@V?$_Vector_val@UAttackAttribute@@V?$allocator@UAttackAttribute@@@std@@@std@@@std@@QBE_NABV01@@Z
_TEXT	SEGMENT
__Right$ = 8						; size = 4
??9?$_Vector_const_iterator@V?$_Vector_val@UAttackAttribute@@V?$allocator@UAttackAttribute@@@std@@@std@@@std@@QBE_NABV01@@Z PROC ; std::_Vector_const_iterator<std::_Vector_val<AttackAttribute,std::allocator<AttackAttribute> > >::operator!=, COMDAT
; _this$ = ecx

; 207  : 		{	// test for iterator inequality

  00000	55		 push	 ebp
  00001	8b ec		 mov	 ebp, esp

; 208  : 		return (!(*this == _Right));

  00003	8b 01		 mov	 eax, DWORD PTR [ecx]
  00005	8b 55 08	 mov	 edx, DWORD PTR __Right$[ebp]
  00008	33 c9		 xor	 ecx, ecx
  0000a	3b 02		 cmp	 eax, DWORD PTR [edx]
  0000c	0f 95 c0	 setne	 al

; 209  : 		}

  0000f	5d		 pop	 ebp
  00010	c2 04 00	 ret	 4
??9?$_Vector_const_iterator@V?$_Vector_val@UAttackAttribute@@V?$allocator@UAttackAttribute@@@std@@@std@@@std@@QBE_NABV01@@Z ENDP ; std::_Vector_const_iterator<std::_Vector_val<AttackAttribute,std::allocator<AttackAttribute> > >::operator!=
_TEXT	ENDS
PUBLIC	?_Buy@?$vector@UWeaponInfo@@V?$allocator@UWeaponInfo@@@std@@@std@@IAE_NI@Z ; std::vector<WeaponInfo,std::allocator<WeaponInfo> >::_Buy
; Function compile flags: /Ogsp
;	COMDAT ?_Buy@?$vector@UWeaponInfo@@V?$allocator@UWeaponInfo@@@std@@@std@@IAE_NI@Z
_TEXT	SEGMENT
__Capacity$ = 8						; size = 4
?_Buy@?$vector@UWeaponInfo@@V?$allocator@UWeaponInfo@@@std@@@std@@IAE_NI@Z PROC ; std::vector<WeaponInfo,std::allocator<WeaponInfo> >::_Buy, COMDAT
; _this$ = ecx

; 1250 : 		{	// allocate array with _Capacity elements

  00000	55		 push	 ebp
  00001	8b ec		 mov	 ebp, esp
  00003	56		 push	 esi

; 1251 : 		this->_Myfirst = 0;

  00004	33 c0		 xor	 eax, eax
  00006	57		 push	 edi

; 1252 : 		this->_Mylast = 0;
; 1253 : 		this->_Myend = 0;
; 1254 : 
; 1255 : 		if (_Capacity == 0)

  00007	8b 7d 08	 mov	 edi, DWORD PTR __Capacity$[ebp]
  0000a	8b f1		 mov	 esi, ecx
  0000c	89 06		 mov	 DWORD PTR [esi], eax
  0000e	89 46 04	 mov	 DWORD PTR [esi+4], eax
  00011	89 46 08	 mov	 DWORD PTR [esi+8], eax
  00014	3b f8		 cmp	 edi, eax
  00016	75 04		 jne	 SHORT $LN4@Buy@2

; 1256 : 			return (false);

  00018	32 c0		 xor	 al, al
  0001a	eb 2b		 jmp	 SHORT $LN5@Buy@2
$LN4@Buy@2:

; 1257 : 		else if (max_size() < _Capacity)

  0001c	81 ff 66 66 66
	06		 cmp	 edi, 107374182		; 06666666H
  00022	76 0b		 jbe	 SHORT $LN2@Buy@2

; 1258 : 			_Xlen();	// result too long

  00024	68 00 00 00 00	 push	 OFFSET ??_C@_0BD@OLBABOEK@vector?$DMT?$DO?5too?5long?$AA@
  00029	ff 15 00 00 00
	00		 call	 DWORD PTR __imp_?_Xlength_error@std@@YAXPBD@Z
$LN19@Buy@2:
$LN2@Buy@2:

; 1259 : 		else
; 1260 : 			{	// nonempty array, allocate storage
; 1261 : 			this->_Myfirst = this->_Alval.allocate(_Capacity);

  0002f	50		 push	 eax
  00030	57		 push	 edi
  00031	e8 00 00 00 00	 call	 ??$_Allocate@UWeaponInfo@@@std@@YAPAUWeaponInfo@@IPAU1@@Z ; std::_Allocate<WeaponInfo>

; 1262 : 			this->_Mylast = this->_Myfirst;
; 1263 : 			this->_Myend = this->_Myfirst + _Capacity;

  00036	6b ff 28	 imul	 edi, 40			; 00000028H
  00039	03 f8		 add	 edi, eax
  0003b	59		 pop	 ecx
  0003c	89 06		 mov	 DWORD PTR [esi], eax
  0003e	89 46 04	 mov	 DWORD PTR [esi+4], eax
  00041	59		 pop	 ecx
  00042	89 7e 08	 mov	 DWORD PTR [esi+8], edi

; 1264 : 			}
; 1265 : 		return (true);

  00045	b0 01		 mov	 al, 1
$LN5@Buy@2:
  00047	5f		 pop	 edi
  00048	5e		 pop	 esi

; 1266 : 		}

  00049	5d		 pop	 ebp
  0004a	c2 04 00	 ret	 4
$LN18@Buy@2:
?_Buy@?$vector@UWeaponInfo@@V?$allocator@UWeaponInfo@@@std@@@std@@IAE_NI@Z ENDP ; std::vector<WeaponInfo,std::allocator<WeaponInfo> >::_Buy
_TEXT	ENDS
PUBLIC	?_Buy@?$vector@UForceInfo@@V?$allocator@UForceInfo@@@std@@@std@@IAE_NI@Z ; std::vector<ForceInfo,std::allocator<ForceInfo> >::_Buy
; Function compile flags: /Ogsp
;	COMDAT ?_Buy@?$vector@UForceInfo@@V?$allocator@UForceInfo@@@std@@@std@@IAE_NI@Z
_TEXT	SEGMENT
__Capacity$ = 8						; size = 4
?_Buy@?$vector@UForceInfo@@V?$allocator@UForceInfo@@@std@@@std@@IAE_NI@Z PROC ; std::vector<ForceInfo,std::allocator<ForceInfo> >::_Buy, COMDAT
; _this$ = ecx

; 1250 : 		{	// allocate array with _Capacity elements

  00000	55		 push	 ebp
  00001	8b ec		 mov	 ebp, esp
  00003	56		 push	 esi

; 1251 : 		this->_Myfirst = 0;

  00004	33 c0		 xor	 eax, eax
  00006	57		 push	 edi

; 1252 : 		this->_Mylast = 0;
; 1253 : 		this->_Myend = 0;
; 1254 : 
; 1255 : 		if (_Capacity == 0)

  00007	8b 7d 08	 mov	 edi, DWORD PTR __Capacity$[ebp]
  0000a	8b f1		 mov	 esi, ecx
  0000c	89 06		 mov	 DWORD PTR [esi], eax
  0000e	89 46 04	 mov	 DWORD PTR [esi+4], eax
  00011	89 46 08	 mov	 DWORD PTR [esi+8], eax
  00014	3b f8		 cmp	 edi, eax
  00016	75 04		 jne	 SHORT $LN4@Buy@3

; 1256 : 			return (false);

  00018	32 c0		 xor	 al, al
  0001a	eb 2b		 jmp	 SHORT $LN5@Buy@3
$LN4@Buy@3:

; 1257 : 		else if (max_size() < _Capacity)

  0001c	81 ff 55 55 55
	15		 cmp	 edi, 357913941		; 15555555H
  00022	76 0b		 jbe	 SHORT $LN2@Buy@3

; 1258 : 			_Xlen();	// result too long

  00024	68 00 00 00 00	 push	 OFFSET ??_C@_0BD@OLBABOEK@vector?$DMT?$DO?5too?5long?$AA@
  00029	ff 15 00 00 00
	00		 call	 DWORD PTR __imp_?_Xlength_error@std@@YAXPBD@Z
$LN19@Buy@3:
$LN2@Buy@3:

; 1259 : 		else
; 1260 : 			{	// nonempty array, allocate storage
; 1261 : 			this->_Myfirst = this->_Alval.allocate(_Capacity);

  0002f	50		 push	 eax
  00030	57		 push	 edi
  00031	e8 00 00 00 00	 call	 ??$_Allocate@UForceInfo@@@std@@YAPAUForceInfo@@IPAU1@@Z ; std::_Allocate<ForceInfo>

; 1262 : 			this->_Mylast = this->_Myfirst;
; 1263 : 			this->_Myend = this->_Myfirst + _Capacity;

  00036	6b ff 0c	 imul	 edi, 12			; 0000000cH
  00039	03 f8		 add	 edi, eax
  0003b	59		 pop	 ecx
  0003c	89 06		 mov	 DWORD PTR [esi], eax
  0003e	89 46 04	 mov	 DWORD PTR [esi+4], eax
  00041	59		 pop	 ecx
  00042	89 7e 08	 mov	 DWORD PTR [esi+8], edi

; 1264 : 			}
; 1265 : 		return (true);

  00045	b0 01		 mov	 al, 1
$LN5@Buy@3:
  00047	5f		 pop	 edi
  00048	5e		 pop	 esi

; 1266 : 		}

  00049	5d		 pop	 ebp
  0004a	c2 04 00	 ret	 4
$LN18@Buy@3:
?_Buy@?$vector@UForceInfo@@V?$allocator@UForceInfo@@@std@@@std@@IAE_NI@Z ENDP ; std::vector<ForceInfo,std::allocator<ForceInfo> >::_Buy
_TEXT	ENDS
PUBLIC	?begin@?$vector@UWeaponInfo@@V?$allocator@UWeaponInfo@@@std@@@std@@QAE?AV?$_Vector_iterator@V?$_Vector_val@UWeaponInfo@@V?$allocator@UWeaponInfo@@@std@@@std@@@2@XZ ; std::vector<WeaponInfo,std::allocator<WeaponInfo> >::begin
; Function compile flags: /Ogsp
;	COMDAT ?begin@?$vector@UWeaponInfo@@V?$allocator@UWeaponInfo@@@std@@@std@@QAE?AV?$_Vector_iterator@V?$_Vector_val@UWeaponInfo@@V?$allocator@UWeaponInfo@@@std@@@std@@@2@XZ
_TEXT	SEGMENT
___$ReturnUdt$ = 8					; size = 4
?begin@?$vector@UWeaponInfo@@V?$allocator@UWeaponInfo@@@std@@@std@@QAE?AV?$_Vector_iterator@V?$_Vector_val@UWeaponInfo@@V?$allocator@UWeaponInfo@@@std@@@std@@@2@XZ PROC ; std::vector<WeaponInfo,std::allocator<WeaponInfo> >::begin, COMDAT
; _this$ = ecx

; 781  : 		{	// return iterator for beginning of mutable sequence

  00000	55		 push	 ebp
  00001	8b ec		 mov	 ebp, esp

; 782  : 		return (iterator(this->_Myfirst, this));

  00003	8b 09		 mov	 ecx, DWORD PTR [ecx]
  00005	8b 45 08	 mov	 eax, DWORD PTR ___$ReturnUdt$[ebp]
  00008	89 08		 mov	 DWORD PTR [eax], ecx

; 783  : 		}

  0000a	5d		 pop	 ebp
  0000b	c2 04 00	 ret	 4
?begin@?$vector@UWeaponInfo@@V?$allocator@UWeaponInfo@@@std@@@std@@QAE?AV?$_Vector_iterator@V?$_Vector_val@UWeaponInfo@@V?$allocator@UWeaponInfo@@@std@@@std@@@2@XZ ENDP ; std::vector<WeaponInfo,std::allocator<WeaponInfo> >::begin
_TEXT	ENDS
PUBLIC	?end@?$vector@UWeaponInfo@@V?$allocator@UWeaponInfo@@@std@@@std@@QAE?AV?$_Vector_iterator@V?$_Vector_val@UWeaponInfo@@V?$allocator@UWeaponInfo@@@std@@@std@@@2@XZ ; std::vector<WeaponInfo,std::allocator<WeaponInfo> >::end
; Function compile flags: /Ogsp
;	COMDAT ?end@?$vector@UWeaponInfo@@V?$allocator@UWeaponInfo@@@std@@@std@@QAE?AV?$_Vector_iterator@V?$_Vector_val@UWeaponInfo@@V?$allocator@UWeaponInfo@@@std@@@std@@@2@XZ
_TEXT	SEGMENT
___$ReturnUdt$ = 8					; size = 4
?end@?$vector@UWeaponInfo@@V?$allocator@UWeaponInfo@@@std@@@std@@QAE?AV?$_Vector_iterator@V?$_Vector_val@UWeaponInfo@@V?$allocator@UWeaponInfo@@@std@@@std@@@2@XZ PROC ; std::vector<WeaponInfo,std::allocator<WeaponInfo> >::end, COMDAT
; _this$ = ecx

; 791  : 		{	// return iterator for end of mutable sequence

  00000	55		 push	 ebp
  00001	8b ec		 mov	 ebp, esp

; 792  : 		return (iterator(this->_Mylast, this));

  00003	8b 49 04	 mov	 ecx, DWORD PTR [ecx+4]
  00006	8b 45 08	 mov	 eax, DWORD PTR ___$ReturnUdt$[ebp]
  00009	89 08		 mov	 DWORD PTR [eax], ecx

; 793  : 		}

  0000b	5d		 pop	 ebp
  0000c	c2 04 00	 ret	 4
?end@?$vector@UWeaponInfo@@V?$allocator@UWeaponInfo@@@std@@@std@@QAE?AV?$_Vector_iterator@V?$_Vector_val@UWeaponInfo@@V?$allocator@UWeaponInfo@@@std@@@std@@@2@XZ ENDP ; std::vector<WeaponInfo,std::allocator<WeaponInfo> >::end
_TEXT	ENDS
PUBLIC	?begin@?$vector@UForceInfo@@V?$allocator@UForceInfo@@@std@@@std@@QAE?AV?$_Vector_iterator@V?$_Vector_val@UForceInfo@@V?$allocator@UForceInfo@@@std@@@std@@@2@XZ ; std::vector<ForceInfo,std::allocator<ForceInfo> >::begin
; Function compile flags: /Ogsp
;	COMDAT ?begin@?$vector@UForceInfo@@V?$allocator@UForceInfo@@@std@@@std@@QAE?AV?$_Vector_iterator@V?$_Vector_val@UForceInfo@@V?$allocator@UForceInfo@@@std@@@std@@@2@XZ
_TEXT	SEGMENT
___$ReturnUdt$ = 8					; size = 4
?begin@?$vector@UForceInfo@@V?$allocator@UForceInfo@@@std@@@std@@QAE?AV?$_Vector_iterator@V?$_Vector_val@UForceInfo@@V?$allocator@UForceInfo@@@std@@@std@@@2@XZ PROC ; std::vector<ForceInfo,std::allocator<ForceInfo> >::begin, COMDAT
; _this$ = ecx

; 781  : 		{	// return iterator for beginning of mutable sequence

  00000	55		 push	 ebp
  00001	8b ec		 mov	 ebp, esp

; 782  : 		return (iterator(this->_Myfirst, this));

  00003	8b 09		 mov	 ecx, DWORD PTR [ecx]
  00005	8b 45 08	 mov	 eax, DWORD PTR ___$ReturnUdt$[ebp]
  00008	89 08		 mov	 DWORD PTR [eax], ecx

; 783  : 		}

  0000a	5d		 pop	 ebp
  0000b	c2 04 00	 ret	 4
?begin@?$vector@UForceInfo@@V?$allocator@UForceInfo@@@std@@@std@@QAE?AV?$_Vector_iterator@V?$_Vector_val@UForceInfo@@V?$allocator@UForceInfo@@@std@@@std@@@2@XZ ENDP ; std::vector<ForceInfo,std::allocator<ForceInfo> >::begin
_TEXT	ENDS
PUBLIC	?end@?$vector@UForceInfo@@V?$allocator@UForceInfo@@@std@@@std@@QAE?AV?$_Vector_iterator@V?$_Vector_val@UForceInfo@@V?$allocator@UForceInfo@@@std@@@std@@@2@XZ ; std::vector<ForceInfo,std::allocator<ForceInfo> >::end
; Function compile flags: /Ogsp
;	COMDAT ?end@?$vector@UForceInfo@@V?$allocator@UForceInfo@@@std@@@std@@QAE?AV?$_Vector_iterator@V?$_Vector_val@UForceInfo@@V?$allocator@UForceInfo@@@std@@@std@@@2@XZ
_TEXT	SEGMENT
___$ReturnUdt$ = 8					; size = 4
?end@?$vector@UForceInfo@@V?$allocator@UForceInfo@@@std@@@std@@QAE?AV?$_Vector_iterator@V?$_Vector_val@UForceInfo@@V?$allocator@UForceInfo@@@std@@@std@@@2@XZ PROC ; std::vector<ForceInfo,std::allocator<ForceInfo> >::end, COMDAT
; _this$ = ecx

; 791  : 		{	// return iterator for end of mutable sequence

  00000	55		 push	 ebp
  00001	8b ec		 mov	 ebp, esp

; 792  : 		return (iterator(this->_Mylast, this));

  00003	8b 49 04	 mov	 ecx, DWORD PTR [ecx+4]
  00006	8b 45 08	 mov	 eax, DWORD PTR ___$ReturnUdt$[ebp]
  00009	89 08		 mov	 DWORD PTR [eax], ecx

; 793  : 		}

  0000b	5d		 pop	 ebp
  0000c	c2 04 00	 ret	 4
?end@?$vector@UForceInfo@@V?$allocator@UForceInfo@@@std@@@std@@QAE?AV?$_Vector_iterator@V?$_Vector_val@UForceInfo@@V?$allocator@UForceInfo@@@std@@@std@@@2@XZ ENDP ; std::vector<ForceInfo,std::allocator<ForceInfo> >::end
_TEXT	ENDS
PUBLIC	?_Make_iter@?$vector@UWeaponInfo@@V?$allocator@UWeaponInfo@@@std@@@std@@QBE?AV?$_Vector_iterator@V?$_Vector_val@UWeaponInfo@@V?$allocator@UWeaponInfo@@@std@@@std@@@2@V?$_Vector_const_iterator@V?$_Vector_val@UWeaponInfo@@V?$allocator@UWeaponInfo@@@std@@@std@@@2@@Z ; std::vector<WeaponInfo,std::allocator<WeaponInfo> >::_Make_iter
; Function compile flags: /Ogsp
;	COMDAT ?_Make_iter@?$vector@UWeaponInfo@@V?$allocator@UWeaponInfo@@@std@@@std@@QBE?AV?$_Vector_iterator@V?$_Vector_val@UWeaponInfo@@V?$allocator@UWeaponInfo@@@std@@@std@@@2@V?$_Vector_const_iterator@V?$_Vector_val@UWeaponInfo@@V?$allocator@UWeaponInfo@@@std@@@std@@@2@@Z
_TEXT	SEGMENT
___$ReturnUdt$ = 8					; size = 4
__Where$ = 12						; size = 4
?_Make_iter@?$vector@UWeaponInfo@@V?$allocator@UWeaponInfo@@@std@@@std@@QBE?AV?$_Vector_iterator@V?$_Vector_val@UWeaponInfo@@V?$allocator@UWeaponInfo@@@std@@@std@@@2@V?$_Vector_const_iterator@V?$_Vector_val@UWeaponInfo@@V?$allocator@UWeaponInfo@@@std@@@std@@@2@@Z PROC ; std::vector<WeaponInfo,std::allocator<WeaponInfo> >::_Make_iter, COMDAT
; _this$ = ecx

; 801  : 		{	// make iterator from const_iterator

  00000	55		 push	 ebp
  00001	8b ec		 mov	 ebp, esp

; 802  : 		return (iterator(_Where._Ptr, this));

  00003	8b 45 08	 mov	 eax, DWORD PTR ___$ReturnUdt$[ebp]
  00006	8b 4d 0c	 mov	 ecx, DWORD PTR __Where$[ebp]
  00009	89 08		 mov	 DWORD PTR [eax], ecx

; 803  : 		}

  0000b	5d		 pop	 ebp
  0000c	c2 08 00	 ret	 8
?_Make_iter@?$vector@UWeaponInfo@@V?$allocator@UWeaponInfo@@@std@@@std@@QBE?AV?$_Vector_iterator@V?$_Vector_val@UWeaponInfo@@V?$allocator@UWeaponInfo@@@std@@@std@@@2@V?$_Vector_const_iterator@V?$_Vector_val@UWeaponInfo@@V?$allocator@UWeaponInfo@@@std@@@std@@@2@@Z ENDP ; std::vector<WeaponInfo,std::allocator<WeaponInfo> >::_Make_iter
_TEXT	ENDS
PUBLIC	?_Make_iter@?$vector@UForceInfo@@V?$allocator@UForceInfo@@@std@@@std@@QBE?AV?$_Vector_iterator@V?$_Vector_val@UForceInfo@@V?$allocator@UForceInfo@@@std@@@std@@@2@V?$_Vector_const_iterator@V?$_Vector_val@UForceInfo@@V?$allocator@UForceInfo@@@std@@@std@@@2@@Z ; std::vector<ForceInfo,std::allocator<ForceInfo> >::_Make_iter
; Function compile flags: /Ogsp
;	COMDAT ?_Make_iter@?$vector@UForceInfo@@V?$allocator@UForceInfo@@@std@@@std@@QBE?AV?$_Vector_iterator@V?$_Vector_val@UForceInfo@@V?$allocator@UForceInfo@@@std@@@std@@@2@V?$_Vector_const_iterator@V?$_Vector_val@UForceInfo@@V?$allocator@UForceInfo@@@std@@@std@@@2@@Z
_TEXT	SEGMENT
___$ReturnUdt$ = 8					; size = 4
__Where$ = 12						; size = 4
?_Make_iter@?$vector@UForceInfo@@V?$allocator@UForceInfo@@@std@@@std@@QBE?AV?$_Vector_iterator@V?$_Vector_val@UForceInfo@@V?$allocator@UForceInfo@@@std@@@std@@@2@V?$_Vector_const_iterator@V?$_Vector_val@UForceInfo@@V?$allocator@UForceInfo@@@std@@@std@@@2@@Z PROC ; std::vector<ForceInfo,std::allocator<ForceInfo> >::_Make_iter, COMDAT
; _this$ = ecx

; 801  : 		{	// make iterator from const_iterator

  00000	55		 push	 ebp
  00001	8b ec		 mov	 ebp, esp

; 802  : 		return (iterator(_Where._Ptr, this));

  00003	8b 45 08	 mov	 eax, DWORD PTR ___$ReturnUdt$[ebp]
  00006	8b 4d 0c	 mov	 ecx, DWORD PTR __Where$[ebp]
  00009	89 08		 mov	 DWORD PTR [eax], ecx

; 803  : 		}

  0000b	5d		 pop	 ebp
  0000c	c2 08 00	 ret	 8
?_Make_iter@?$vector@UForceInfo@@V?$allocator@UForceInfo@@@std@@@std@@QBE?AV?$_Vector_iterator@V?$_Vector_val@UForceInfo@@V?$allocator@UForceInfo@@@std@@@std@@@2@V?$_Vector_const_iterator@V?$_Vector_val@UForceInfo@@V?$allocator@UForceInfo@@@std@@@std@@@2@@Z ENDP ; std::vector<ForceInfo,std::allocator<ForceInfo> >::_Make_iter
_TEXT	ENDS
PUBLIC	??9?$_Vector_const_iterator@V?$_Vector_val@UWeaponInfo@@V?$allocator@UWeaponInfo@@@std@@@std@@@std@@QBE_NABV01@@Z ; std::_Vector_const_iterator<std::_Vector_val<WeaponInfo,std::allocator<WeaponInfo> > >::operator!=
; Function compile flags: /Ogsp
;	COMDAT ??9?$_Vector_const_iterator@V?$_Vector_val@UWeaponInfo@@V?$allocator@UWeaponInfo@@@std@@@std@@@std@@QBE_NABV01@@Z
_TEXT	SEGMENT
__Right$ = 8						; size = 4
??9?$_Vector_const_iterator@V?$_Vector_val@UWeaponInfo@@V?$allocator@UWeaponInfo@@@std@@@std@@@std@@QBE_NABV01@@Z PROC ; std::_Vector_const_iterator<std::_Vector_val<WeaponInfo,std::allocator<WeaponInfo> > >::operator!=, COMDAT
; _this$ = ecx

; 207  : 		{	// test for iterator inequality

  00000	55		 push	 ebp
  00001	8b ec		 mov	 ebp, esp

; 208  : 		return (!(*this == _Right));

  00003	8b 01		 mov	 eax, DWORD PTR [ecx]
  00005	8b 55 08	 mov	 edx, DWORD PTR __Right$[ebp]
  00008	33 c9		 xor	 ecx, ecx
  0000a	3b 02		 cmp	 eax, DWORD PTR [edx]
  0000c	0f 95 c0	 setne	 al

; 209  : 		}

  0000f	5d		 pop	 ebp
  00010	c2 04 00	 ret	 4
??9?$_Vector_const_iterator@V?$_Vector_val@UWeaponInfo@@V?$allocator@UWeaponInfo@@@std@@@std@@@std@@QBE_NABV01@@Z ENDP ; std::_Vector_const_iterator<std::_Vector_val<WeaponInfo,std::allocator<WeaponInfo> > >::operator!=
_TEXT	ENDS
PUBLIC	??9?$_Vector_const_iterator@V?$_Vector_val@UForceInfo@@V?$allocator@UForceInfo@@@std@@@std@@@std@@QBE_NABV01@@Z ; std::_Vector_const_iterator<std::_Vector_val<ForceInfo,std::allocator<ForceInfo> > >::operator!=
; Function compile flags: /Ogsp
;	COMDAT ??9?$_Vector_const_iterator@V?$_Vector_val@UForceInfo@@V?$allocator@UForceInfo@@@std@@@std@@@std@@QBE_NABV01@@Z
_TEXT	SEGMENT
__Right$ = 8						; size = 4
??9?$_Vector_const_iterator@V?$_Vector_val@UForceInfo@@V?$allocator@UForceInfo@@@std@@@std@@@std@@QBE_NABV01@@Z PROC ; std::_Vector_const_iterator<std::_Vector_val<ForceInfo,std::allocator<ForceInfo> > >::operator!=, COMDAT
; _this$ = ecx

; 207  : 		{	// test for iterator inequality

  00000	55		 push	 ebp
  00001	8b ec		 mov	 ebp, esp

; 208  : 		return (!(*this == _Right));

  00003	8b 01		 mov	 eax, DWORD PTR [ecx]
  00005	8b 55 08	 mov	 edx, DWORD PTR __Right$[ebp]
  00008	33 c9		 xor	 ecx, ecx
  0000a	3b 02		 cmp	 eax, DWORD PTR [edx]
  0000c	0f 95 c0	 setne	 al

; 209  : 		}

  0000f	5d		 pop	 ebp
  00010	c2 04 00	 ret	 4
??9?$_Vector_const_iterator@V?$_Vector_val@UForceInfo@@V?$allocator@UForceInfo@@@std@@@std@@@std@@QBE_NABV01@@Z ENDP ; std::_Vector_const_iterator<std::_Vector_val<ForceInfo,std::allocator<ForceInfo> > >::operator!=
_TEXT	ENDS
PUBLIC	??$_Dest_val@V?$allocator@UForceInfo@@@std@@UForceInfo@@@std@@YAXAAV?$allocator@UForceInfo@@@0@PAUForceInfo@@@Z ; std::_Dest_val<std::allocator<ForceInfo>,ForceInfo>
; Function compile flags: /Ogsp
; File c:\program files (x86)\microsoft visual studio 10.0\vc\include\xmemory
;	COMDAT ??$_Dest_val@V?$allocator@UForceInfo@@@std@@UForceInfo@@@std@@YAXAAV?$allocator@UForceInfo@@@0@PAUForceInfo@@@Z
_TEXT	SEGMENT
__Alval$ = 8						; size = 4
__Pdest$ = 12						; size = 4
??$_Dest_val@V?$allocator@UForceInfo@@@std@@UForceInfo@@@std@@YAXAAV?$allocator@UForceInfo@@@0@PAUForceInfo@@@Z PROC ; std::_Dest_val<std::allocator<ForceInfo>,ForceInfo>, COMDAT

; 287  : 	_Alval.destroy(_Pdest);
; 288  : 	}

  00000	c3		 ret	 0
??$_Dest_val@V?$allocator@UForceInfo@@@std@@UForceInfo@@@std@@YAXAAV?$allocator@UForceInfo@@@0@PAUForceInfo@@@Z ENDP ; std::_Dest_val<std::allocator<ForceInfo>,ForceInfo>
_TEXT	ENDS
PUBLIC	??$_Copy_impl@PAUWeaponInfo@@PAU1@@std@@YAPAUWeaponInfo@@PAU1@00@Z ; std::_Copy_impl<WeaponInfo *,WeaponInfo *>
; Function compile flags: /Ogsp
; File c:\program files (x86)\microsoft visual studio 10.0\vc\include\xutility
;	COMDAT ??$_Copy_impl@PAUWeaponInfo@@PAU1@@std@@YAPAUWeaponInfo@@PAU1@00@Z
_TEXT	SEGMENT
__Cat$617799 = -4					; size = 1
__First$ = 8						; size = 4
__Last$ = 12						; size = 4
__Dest$ = 16						; size = 4
??$_Copy_impl@PAUWeaponInfo@@PAU1@@std@@YAPAUWeaponInfo@@PAU1@00@Z PROC ; std::_Copy_impl<WeaponInfo *,WeaponInfo *>, COMDAT

; 2163 : 	{	// copy [_First, _Last) to [_Dest, ...)

  00000	55		 push	 ebp
  00001	8b ec		 mov	 ebp, esp
  00003	51		 push	 ecx

; 2164 : 	return (_Copy_impl(_First, _Last,
; 2165 : 		_Dest, _Ptr_cat(_First, _Dest)));

  00004	ff 75 fc	 push	 DWORD PTR __Cat$617799[ebp]
  00007	ff 75 10	 push	 DWORD PTR __Dest$[ebp]
  0000a	ff 75 0c	 push	 DWORD PTR __Last$[ebp]
  0000d	ff 75 08	 push	 DWORD PTR __First$[ebp]
  00010	e8 00 00 00 00	 call	 ??$_Copy_impl@PAUWeaponInfo@@PAU1@@std@@YAPAUWeaponInfo@@PAU1@00U_Nonscalar_ptr_iterator_tag@0@@Z ; std::_Copy_impl<WeaponInfo *,WeaponInfo *>
  00015	83 c4 10	 add	 esp, 16			; 00000010H

; 2166 : 	}

  00018	c9		 leave
  00019	c3		 ret	 0
??$_Copy_impl@PAUWeaponInfo@@PAU1@@std@@YAPAUWeaponInfo@@PAU1@00@Z ENDP ; std::_Copy_impl<WeaponInfo *,WeaponInfo *>
_TEXT	ENDS
PUBLIC	??$_Move@PAUWeaponInfo@@PAU1@@std@@YAPAUWeaponInfo@@PAU1@00@Z ; std::_Move<WeaponInfo *,WeaponInfo *>
; Function compile flags: /Ogsp
;	COMDAT ??$_Move@PAUWeaponInfo@@PAU1@@std@@YAPAUWeaponInfo@@PAU1@00@Z
_TEXT	SEGMENT
__Cat$617806 = -4					; size = 1
__First$ = 8						; size = 4
__Last$ = 12						; size = 4
__Dest$ = 16						; size = 4
??$_Move@PAUWeaponInfo@@PAU1@@std@@YAPAUWeaponInfo@@PAU1@00@Z PROC ; std::_Move<WeaponInfo *,WeaponInfo *>, COMDAT

; 2533 : 	{	// move [_First, _Last) to [_Dest, ...), unchecked

  00000	55		 push	 ebp
  00001	8b ec		 mov	 ebp, esp
  00003	51		 push	 ecx

; 2534 : 	return (_Move(_First, _Last,
; 2535 : 		_Dest, _Ptr_cat(_First, _Dest)));

  00004	ff 75 fc	 push	 DWORD PTR __Cat$617806[ebp]
  00007	ff 75 10	 push	 DWORD PTR __Dest$[ebp]
  0000a	ff 75 0c	 push	 DWORD PTR __Last$[ebp]
  0000d	ff 75 08	 push	 DWORD PTR __First$[ebp]
  00010	e8 00 00 00 00	 call	 ??$_Move@PAUWeaponInfo@@PAU1@@std@@YAPAUWeaponInfo@@PAU1@00U_Nonscalar_ptr_iterator_tag@0@@Z ; std::_Move<WeaponInfo *,WeaponInfo *>
  00015	83 c4 10	 add	 esp, 16			; 00000010H

; 2536 : 	}

  00018	c9		 leave
  00019	c3		 ret	 0
??$_Move@PAUWeaponInfo@@PAU1@@std@@YAPAUWeaponInfo@@PAU1@00@Z ENDP ; std::_Move<WeaponInfo *,WeaponInfo *>
_TEXT	ENDS
PUBLIC	??$_Move@PAUForceInfo@@PAU1@@std@@YAPAUForceInfo@@PAU1@00@Z ; std::_Move<ForceInfo *,ForceInfo *>
; Function compile flags: /Ogsp
;	COMDAT ??$_Move@PAUForceInfo@@PAU1@@std@@YAPAUForceInfo@@PAU1@00@Z
_TEXT	SEGMENT
__Cat$617813 = -4					; size = 1
__First$ = 8						; size = 4
__Last$ = 12						; size = 4
__Dest$ = 16						; size = 4
??$_Move@PAUForceInfo@@PAU1@@std@@YAPAUForceInfo@@PAU1@00@Z PROC ; std::_Move<ForceInfo *,ForceInfo *>, COMDAT

; 2533 : 	{	// move [_First, _Last) to [_Dest, ...), unchecked

  00000	55		 push	 ebp
  00001	8b ec		 mov	 ebp, esp
  00003	51		 push	 ecx

; 2534 : 	return (_Move(_First, _Last,
; 2535 : 		_Dest, _Ptr_cat(_First, _Dest)));

  00004	ff 75 fc	 push	 DWORD PTR __Cat$617813[ebp]
  00007	ff 75 10	 push	 DWORD PTR __Dest$[ebp]
  0000a	ff 75 0c	 push	 DWORD PTR __Last$[ebp]
  0000d	ff 75 08	 push	 DWORD PTR __First$[ebp]
  00010	e8 00 00 00 00	 call	 ??$_Move@PAUForceInfo@@PAU1@@std@@YAPAUForceInfo@@PAU1@00U_Nonscalar_ptr_iterator_tag@0@@Z ; std::_Move<ForceInfo *,ForceInfo *>
  00015	83 c4 10	 add	 esp, 16			; 00000010H

; 2536 : 	}

  00018	c9		 leave
  00019	c3		 ret	 0
??$_Move@PAUForceInfo@@PAU1@@std@@YAPAUForceInfo@@PAU1@00@Z ENDP ; std::_Move<ForceInfo *,ForceInfo *>
_TEXT	ENDS
PUBLIC	?destroy@?$allocator@UWeaponInfo@@@std@@QAEXPAUWeaponInfo@@@Z ; std::allocator<WeaponInfo>::destroy
; Function compile flags: /Ogsp
; File c:\program files (x86)\microsoft visual studio 10.0\vc\include\xmemory
;	COMDAT ?destroy@?$allocator@UWeaponInfo@@@std@@QAEXPAUWeaponInfo@@@Z
_TEXT	SEGMENT
__Ptr$ = 8						; size = 4
?destroy@?$allocator@UWeaponInfo@@@std@@QAEXPAUWeaponInfo@@@Z PROC ; std::allocator<WeaponInfo>::destroy, COMDAT
; _this$ = ecx

; 212  : 		{	// destroy object at _Ptr

  00000	55		 push	 ebp
  00001	8b ec		 mov	 ebp, esp

; 213  : 		_Destroy(_Ptr);

  00003	8b 4d 08	 mov	 ecx, DWORD PTR __Ptr$[ebp]
  00006	83 c1 08	 add	 ecx, 8
  00009	ff 15 00 00 00
	00		 call	 DWORD PTR __imp_??1ioHashString@@QAE@XZ

; 214  : 		}

  0000f	5d		 pop	 ebp
  00010	c2 04 00	 ret	 4
?destroy@?$allocator@UWeaponInfo@@@std@@QAEXPAUWeaponInfo@@@Z ENDP ; std::allocator<WeaponInfo>::destroy
_TEXT	ENDS
PUBLIC	??$_Uninit_copy@PAUForceInfo@@PAU1@V?$allocator@UForceInfo@@@std@@@std@@YAPAUForceInfo@@PAU1@00AAV?$allocator@UForceInfo@@@0@U_Nonscalar_ptr_iterator_tag@0@@Z ; std::_Uninit_copy<ForceInfo *,ForceInfo *,std::allocator<ForceInfo> >
; Function compile flags: /Ogsp
; File c:\program files (x86)\microsoft visual studio 10.0\vc\include\memory
;	COMDAT ??$_Uninit_copy@PAUForceInfo@@PAU1@V?$allocator@UForceInfo@@@std@@@std@@YAPAUForceInfo@@PAU1@00AAV?$allocator@UForceInfo@@@0@U_Nonscalar_ptr_iterator_tag@0@@Z
_TEXT	SEGMENT
__First$ = 8						; size = 4
__Last$ = 12						; size = 4
__Dest$ = 16						; size = 4
__Al$ = 20						; size = 4
___formal$ = 24						; size = 1
??$_Uninit_copy@PAUForceInfo@@PAU1@V?$allocator@UForceInfo@@@std@@@std@@YAPAUForceInfo@@PAU1@00AAV?$allocator@UForceInfo@@@0@U_Nonscalar_ptr_iterator_tag@0@@Z PROC ; std::_Uninit_copy<ForceInfo *,ForceInfo *,std::allocator<ForceInfo> >, COMDAT

; 369  : 	{	// copy [_First, _Last) to raw _Dest, using _Al, arbitrary type

  00000	55		 push	 ebp
  00001	8b ec		 mov	 ebp, esp
  00003	56		 push	 esi

; 370  : 	_DEBUG_RANGE(_First, _Last);
; 371  : 	_DEBUG_POINTER(_Dest);
; 372  : 	_FwdIt _Next = _Dest;
; 373  : 
; 374  : 	_TRY_BEGIN
; 375  : 	for (; _First != _Last; ++_Dest, ++_First)

  00004	8b 75 08	 mov	 esi, DWORD PTR __First$[ebp]
  00007	eb 16		 jmp	 SHORT $LN24@Uninit_cop
$LL6@Uninit_cop:

; 376  : 		_Cons_val(_Al, _Dest, *_First);

  00009	56		 push	 esi
  0000a	ff 75 10	 push	 DWORD PTR __Dest$[ebp]
  0000d	ff 75 14	 push	 DWORD PTR __Al$[ebp]
  00010	e8 00 00 00 00	 call	 ??$_Cons_val@V?$allocator@UForceInfo@@@std@@UForceInfo@@AAU3@@std@@YAXAAV?$allocator@UForceInfo@@@0@PAUForceInfo@@AAU2@@Z ; std::_Cons_val<std::allocator<ForceInfo>,ForceInfo,ForceInfo &>
  00015	83 45 10 0c	 add	 DWORD PTR __Dest$[ebp], 12 ; 0000000cH
  00019	83 c4 0c	 add	 esp, 12			; 0000000cH
  0001c	83 c6 0c	 add	 esi, 12			; 0000000cH
$LN24@Uninit_cop:

; 370  : 	_DEBUG_RANGE(_First, _Last);
; 371  : 	_DEBUG_POINTER(_Dest);
; 372  : 	_FwdIt _Next = _Dest;
; 373  : 
; 374  : 	_TRY_BEGIN
; 375  : 	for (; _First != _Last; ++_Dest, ++_First)

  0001f	3b 75 0c	 cmp	 esi, DWORD PTR __Last$[ebp]
  00022	75 e5		 jne	 SHORT $LL6@Uninit_cop

; 377  : 	_CATCH_ALL
; 378  : 	for (; _Next != _Dest; ++_Next)
; 379  : 		_Dest_val(_Al, _Next);
; 380  : 	_RERAISE;
; 381  : 	_CATCH_END
; 382  : 	return (_Dest);

  00024	8b 45 10	 mov	 eax, DWORD PTR __Dest$[ebp]
  00027	5e		 pop	 esi

; 383  : 	}

  00028	5d		 pop	 ebp
  00029	c3		 ret	 0
??$_Uninit_copy@PAUForceInfo@@PAU1@V?$allocator@UForceInfo@@@std@@@std@@YAPAUForceInfo@@PAU1@00AAV?$allocator@UForceInfo@@@0@U_Nonscalar_ptr_iterator_tag@0@@Z ENDP ; std::_Uninit_copy<ForceInfo *,ForceInfo *,std::allocator<ForceInfo> >
_TEXT	ENDS
PUBLIC	??$_Cons_val@V?$allocator@UWeaponInfo@@@std@@UWeaponInfo@@AAU3@@std@@YAXAAV?$allocator@UWeaponInfo@@@0@PAUWeaponInfo@@AAU2@@Z ; std::_Cons_val<std::allocator<WeaponInfo>,WeaponInfo,WeaponInfo &>
;	COMDAT xdata$x
; File c:\program files (x86)\microsoft visual studio 10.0\vc\include\utility
xdata$x	SEGMENT
__unwindtable$??$_Cons_val@V?$allocator@UWeaponInfo@@@std@@UWeaponInfo@@AAU3@@std@@YAXAAV?$allocator@UWeaponInfo@@@0@PAUWeaponInfo@@AAU2@@Z DD 0ffffffffH
	DD	FLAT:__unwindfunclet$??$_Cons_val@V?$allocator@UWeaponInfo@@@std@@UWeaponInfo@@AAU3@@std@@YAXAAV?$allocator@UWeaponInfo@@@0@PAUWeaponInfo@@AAU2@@Z$0
__ehfuncinfo$??$_Cons_val@V?$allocator@UWeaponInfo@@@std@@UWeaponInfo@@AAU3@@std@@YAXAAV?$allocator@UWeaponInfo@@@0@PAUWeaponInfo@@AAU2@@Z DD 019930522H
	DD	01H
	DD	FLAT:__unwindtable$??$_Cons_val@V?$allocator@UWeaponInfo@@@std@@UWeaponInfo@@AAU3@@std@@YAXAAV?$allocator@UWeaponInfo@@@0@PAUWeaponInfo@@AAU2@@Z
	DD	2 DUP(00H)
	DD	2 DUP(00H)
	DD	00H
	DD	01H
; Function compile flags: /Ogsp
; File c:\program files (x86)\microsoft visual studio 10.0\vc\include\xmemory
xdata$x	ENDS
;	COMDAT ??$_Cons_val@V?$allocator@UWeaponInfo@@@std@@UWeaponInfo@@AAU3@@std@@YAXAAV?$allocator@UWeaponInfo@@@0@PAUWeaponInfo@@AAU2@@Z
_TEXT	SEGMENT
$T617882 = -16						; size = 4
__$EHRec$ = -12						; size = 12
__Alval$ = 8						; size = 4
__Pdest$ = 12						; size = 4
__Src$ = 16						; size = 4
??$_Cons_val@V?$allocator@UWeaponInfo@@@std@@UWeaponInfo@@AAU3@@std@@YAXAAV?$allocator@UWeaponInfo@@@0@PAUWeaponInfo@@AAU2@@Z PROC ; std::_Cons_val<std::allocator<WeaponInfo>,WeaponInfo,WeaponInfo &>, COMDAT

; 279  : 	{	// construct using allocator

  00000	6a 04		 push	 4
  00002	b8 00 00 00 00	 mov	 eax, __ehhandler$??$_Cons_val@V?$allocator@UWeaponInfo@@@std@@UWeaponInfo@@AAU3@@std@@YAXAAV?$allocator@UWeaponInfo@@@0@PAUWeaponInfo@@AAU2@@Z
  00007	e8 00 00 00 00	 call	 __EH_prolog3

; 280  : 	_Alval.construct(_Pdest, _STD forward<_Ty2>(_Src));

  0000c	8b 4d 0c	 mov	 ecx, DWORD PTR __Pdest$[ebp]
  0000f	89 4d f0	 mov	 DWORD PTR $T617882[ebp], ecx
  00012	83 65 fc 00	 and	 DWORD PTR __$EHRec$[ebp+8], 0
  00016	85 c9		 test	 ecx, ecx
  00018	74 08		 je	 SHORT $LN7@Cons_val@3
  0001a	ff 75 10	 push	 DWORD PTR __Src$[ebp]
  0001d	e8 00 00 00 00	 call	 ??0WeaponInfo@@QAE@ABU0@@Z
$LN7@Cons_val@3:

; 281  : 	}

  00022	e8 00 00 00 00	 call	 __EH_epilog3
  00027	c3		 ret	 0
_TEXT	ENDS
;	COMDAT text$x
text$x	SEGMENT
__unwindfunclet$??$_Cons_val@V?$allocator@UWeaponInfo@@@std@@UWeaponInfo@@AAU3@@std@@YAXAAV?$allocator@UWeaponInfo@@@0@PAUWeaponInfo@@AAU2@@Z$0:
  00000	ff 75 0c	 push	 DWORD PTR __Pdest$[ebp]
  00003	ff 75 f0	 push	 DWORD PTR $T617882[ebp]
  00006	e8 00 00 00 00	 call	 ??3@YAXPAX0@Z		; operator delete
  0000b	59		 pop	 ecx
  0000c	59		 pop	 ecx
  0000d	c3		 ret	 0
__ehhandler$??$_Cons_val@V?$allocator@UWeaponInfo@@@std@@UWeaponInfo@@AAU3@@std@@YAXAAV?$allocator@UWeaponInfo@@@0@PAUWeaponInfo@@AAU2@@Z:
  0000e	8b 54 24 08	 mov	 edx, DWORD PTR [esp+8]
  00012	8d 42 0c	 lea	 eax, DWORD PTR [edx+12]
  00015	8b 4a ec	 mov	 ecx, DWORD PTR [edx-20]
  00018	33 c8		 xor	 ecx, eax
  0001a	e8 00 00 00 00	 call	 @__security_check_cookie@4
  0001f	b8 00 00 00 00	 mov	 eax, OFFSET __ehfuncinfo$??$_Cons_val@V?$allocator@UWeaponInfo@@@std@@UWeaponInfo@@AAU3@@std@@YAXAAV?$allocator@UWeaponInfo@@@0@PAUWeaponInfo@@AAU2@@Z
  00024	e9 00 00 00 00	 jmp	 ___CxxFrameHandler3
text$x	ENDS
??$_Cons_val@V?$allocator@UWeaponInfo@@@std@@UWeaponInfo@@AAU3@@std@@YAXAAV?$allocator@UWeaponInfo@@@0@PAUWeaponInfo@@AAU2@@Z ENDP ; std::_Cons_val<std::allocator<WeaponInfo>,WeaponInfo,WeaponInfo &>
PUBLIC	??$_Uninit_copy@V?$_Vector_const_iterator@V?$_Vector_val@UForceInfo@@V?$allocator@UForceInfo@@@std@@@std@@@std@@PAUForceInfo@@V?$allocator@UForceInfo@@@2@@std@@YAPAUForceInfo@@V?$_Vector_const_iterator@V?$_Vector_val@UForceInfo@@V?$allocator@UForceInfo@@@std@@@std@@@0@0PAU1@AAV?$allocator@UForceInfo@@@0@U_Nonscalar_ptr_iterator_tag@0@@Z ; std::_Uninit_copy<std::_Vector_const_iterator<std::_Vector_val<ForceInfo,std::allocator<ForceInfo> > >,ForceInfo *,std::allocator<ForceInfo> >
; Function compile flags: /Ogsp
; File c:\program files (x86)\microsoft visual studio 10.0\vc\include\memory
;	COMDAT ??$_Uninit_copy@V?$_Vector_const_iterator@V?$_Vector_val@UForceInfo@@V?$allocator@UForceInfo@@@std@@@std@@@std@@PAUForceInfo@@V?$allocator@UForceInfo@@@2@@std@@YAPAUForceInfo@@V?$_Vector_const_iterator@V?$_Vector_val@UForceInfo@@V?$allocator@UForceInfo@@@std@@@std@@@0@0PAU1@AAV?$allocator@UForceInfo@@@0@U_Nonscalar_ptr_iterator_tag@0@@Z
_TEXT	SEGMENT
__First$ = 8						; size = 4
__Last$ = 12						; size = 4
__Dest$ = 16						; size = 4
__Al$ = 20						; size = 4
___formal$ = 24						; size = 1
??$_Uninit_copy@V?$_Vector_const_iterator@V?$_Vector_val@UForceInfo@@V?$allocator@UForceInfo@@@std@@@std@@@std@@PAUForceInfo@@V?$allocator@UForceInfo@@@2@@std@@YAPAUForceInfo@@V?$_Vector_const_iterator@V?$_Vector_val@UForceInfo@@V?$allocator@UForceInfo@@@std@@@std@@@0@0PAU1@AAV?$allocator@UForceInfo@@@0@U_Nonscalar_ptr_iterator_tag@0@@Z PROC ; std::_Uninit_copy<std::_Vector_const_iterator<std::_Vector_val<ForceInfo,std::allocator<ForceInfo> > >,ForceInfo *,std::allocator<ForceInfo> >, COMDAT

; 369  : 	{	// copy [_First, _Last) to raw _Dest, using _Al, arbitrary type

  00000	55		 push	 ebp
  00001	8b ec		 mov	 ebp, esp

; 370  : 	_DEBUG_RANGE(_First, _Last);
; 371  : 	_DEBUG_POINTER(_Dest);
; 372  : 	_FwdIt _Next = _Dest;
; 373  : 
; 374  : 	_TRY_BEGIN
; 375  : 	for (; _First != _Last; ++_Dest, ++_First)

  00003	eb 19		 jmp	 SHORT $LN35@Uninit_cop@2
$LL14@Uninit_cop@2:

; 376  : 		_Cons_val(_Al, _Dest, *_First);

  00005	ff 75 08	 push	 DWORD PTR __First$[ebp]
  00008	ff 75 10	 push	 DWORD PTR __Dest$[ebp]
  0000b	ff 75 14	 push	 DWORD PTR __Al$[ebp]
  0000e	e8 00 00 00 00	 call	 ??$_Cons_val@V?$allocator@UForceInfo@@@std@@UForceInfo@@ABU3@@std@@YAXAAV?$allocator@UForceInfo@@@0@PAUForceInfo@@ABU2@@Z ; std::_Cons_val<std::allocator<ForceInfo>,ForceInfo,ForceInfo const &>
  00013	83 45 10 0c	 add	 DWORD PTR __Dest$[ebp], 12 ; 0000000cH
  00017	83 c4 0c	 add	 esp, 12			; 0000000cH
  0001a	83 45 08 0c	 add	 DWORD PTR __First$[ebp], 12 ; 0000000cH
$LN35@Uninit_cop@2:

; 370  : 	_DEBUG_RANGE(_First, _Last);
; 371  : 	_DEBUG_POINTER(_Dest);
; 372  : 	_FwdIt _Next = _Dest;
; 373  : 
; 374  : 	_TRY_BEGIN
; 375  : 	for (; _First != _Last; ++_Dest, ++_First)

  0001e	8b 45 08	 mov	 eax, DWORD PTR __First$[ebp]
  00021	3b 45 0c	 cmp	 eax, DWORD PTR __Last$[ebp]
  00024	75 df		 jne	 SHORT $LL14@Uninit_cop@2

; 377  : 	_CATCH_ALL
; 378  : 	for (; _Next != _Dest; ++_Next)
; 379  : 		_Dest_val(_Al, _Next);
; 380  : 	_RERAISE;
; 381  : 	_CATCH_END
; 382  : 	return (_Dest);

  00026	8b 45 10	 mov	 eax, DWORD PTR __Dest$[ebp]

; 383  : 	}

  00029	5d		 pop	 ebp
  0002a	c3		 ret	 0
??$_Uninit_copy@V?$_Vector_const_iterator@V?$_Vector_val@UForceInfo@@V?$allocator@UForceInfo@@@std@@@std@@@std@@PAUForceInfo@@V?$allocator@UForceInfo@@@2@@std@@YAPAUForceInfo@@V?$_Vector_const_iterator@V?$_Vector_val@UForceInfo@@V?$allocator@UForceInfo@@@std@@@std@@@0@0PAU1@AAV?$allocator@UForceInfo@@@0@U_Nonscalar_ptr_iterator_tag@0@@Z ENDP ; std::_Uninit_copy<std::_Vector_const_iterator<std::_Vector_val<ForceInfo,std::allocator<ForceInfo> > >,ForceInfo *,std::allocator<ForceInfo> >
_TEXT	ENDS
PUBLIC	??$_Cons_val@V?$allocator@UWeaponInfo@@@std@@UWeaponInfo@@ABU3@@std@@YAXAAV?$allocator@UWeaponInfo@@@0@PAUWeaponInfo@@ABU2@@Z ; std::_Cons_val<std::allocator<WeaponInfo>,WeaponInfo,WeaponInfo const &>
; Function compile flags: /Ogsp
; File c:\program files (x86)\microsoft visual studio 10.0\vc\include\xmemory
;	COMDAT ??$_Cons_val@V?$allocator@UWeaponInfo@@@std@@UWeaponInfo@@ABU3@@std@@YAXAAV?$allocator@UWeaponInfo@@@0@PAUWeaponInfo@@ABU2@@Z
_TEXT	SEGMENT
__Alval$ = 8						; size = 4
__Pdest$ = 12						; size = 4
__Src$ = 16						; size = 4
??$_Cons_val@V?$allocator@UWeaponInfo@@@std@@UWeaponInfo@@ABU3@@std@@YAXAAV?$allocator@UWeaponInfo@@@0@PAUWeaponInfo@@ABU2@@Z PROC ; std::_Cons_val<std::allocator<WeaponInfo>,WeaponInfo,WeaponInfo const &>, COMDAT

; 279  : 	{	// construct using allocator

  00000	55		 push	 ebp
  00001	8b ec		 mov	 ebp, esp

; 280  : 	_Alval.construct(_Pdest, _STD forward<_Ty2>(_Src));

  00003	ff 75 10	 push	 DWORD PTR __Src$[ebp]
  00006	ff 75 0c	 push	 DWORD PTR __Pdest$[ebp]
  00009	e8 00 00 00 00	 call	 ??$_Construct@UWeaponInfo@@ABU1@@std@@YAXPAUWeaponInfo@@ABU1@@Z ; std::_Construct<WeaponInfo,WeaponInfo const &>
  0000e	59		 pop	 ecx
  0000f	59		 pop	 ecx

; 281  : 	}

  00010	5d		 pop	 ebp
  00011	c3		 ret	 0
??$_Cons_val@V?$allocator@UWeaponInfo@@@std@@UWeaponInfo@@ABU3@@std@@YAXAAV?$allocator@UWeaponInfo@@@0@PAUWeaponInfo@@ABU2@@Z ENDP ; std::_Cons_val<std::allocator<WeaponInfo>,WeaponInfo,WeaponInfo const &>
_TEXT	ENDS
PUBLIC	??$_Destroy_range@V?$allocator@UForceInfo@@@std@@@std@@YAXPAUForceInfo@@0AAV?$allocator@UForceInfo@@@0@U_Nonscalar_ptr_iterator_tag@0@@Z ; std::_Destroy_range<std::allocator<ForceInfo> >
; Function compile flags: /Ogsp
;	COMDAT ??$_Destroy_range@V?$allocator@UForceInfo@@@std@@@std@@YAXPAUForceInfo@@0AAV?$allocator@UForceInfo@@@0@U_Nonscalar_ptr_iterator_tag@0@@Z
_TEXT	SEGMENT
__First$ = 8						; size = 4
__Last$ = 12						; size = 4
__Al$ = 16						; size = 4
___formal$ = 20						; size = 1
??$_Destroy_range@V?$allocator@UForceInfo@@@std@@@std@@YAXPAUForceInfo@@0AAV?$allocator@UForceInfo@@@0@U_Nonscalar_ptr_iterator_tag@0@@Z PROC ; std::_Destroy_range<std::allocator<ForceInfo> >, COMDAT

; 96   : 	for (; _First != _Last; ++_First)
; 97   : 		_Dest_val(_Al, _First);
; 98   : 	}

  00000	c3		 ret	 0
??$_Destroy_range@V?$allocator@UForceInfo@@@std@@@std@@YAXPAUForceInfo@@0AAV?$allocator@UForceInfo@@@0@U_Nonscalar_ptr_iterator_tag@0@@Z ENDP ; std::_Destroy_range<std::allocator<ForceInfo> >
_TEXT	ENDS
PUBLIC	??$_Dest_val@V?$allocator@UWeaponInfo@@@std@@UWeaponInfo@@@std@@YAXAAV?$allocator@UWeaponInfo@@@0@PAUWeaponInfo@@@Z ; std::_Dest_val<std::allocator<WeaponInfo>,WeaponInfo>
; Function compile flags: /Ogsp
;	COMDAT ??$_Dest_val@V?$allocator@UWeaponInfo@@@std@@UWeaponInfo@@@std@@YAXAAV?$allocator@UWeaponInfo@@@0@PAUWeaponInfo@@@Z
_TEXT	SEGMENT
__Alval$ = 8						; size = 4
__Pdest$ = 12						; size = 4
??$_Dest_val@V?$allocator@UWeaponInfo@@@std@@UWeaponInfo@@@std@@YAXAAV?$allocator@UWeaponInfo@@@0@PAUWeaponInfo@@@Z PROC ; std::_Dest_val<std::allocator<WeaponInfo>,WeaponInfo>, COMDAT

; 286  : 	{	// destroy using allocator

  00000	55		 push	 ebp
  00001	8b ec		 mov	 ebp, esp

; 287  : 	_Alval.destroy(_Pdest);

  00003	8b 4d 0c	 mov	 ecx, DWORD PTR __Pdest$[ebp]
  00006	83 c1 08	 add	 ecx, 8

; 288  : 	}

  00009	5d		 pop	 ebp

; 287  : 	_Alval.destroy(_Pdest);

  0000a	ff 25 00 00 00
	00		 jmp	 DWORD PTR __imp_??1ioHashString@@QAE@XZ
??$_Dest_val@V?$allocator@UWeaponInfo@@@std@@UWeaponInfo@@@std@@YAXAAV?$allocator@UWeaponInfo@@@0@PAUWeaponInfo@@@Z ENDP ; std::_Dest_val<std::allocator<WeaponInfo>,WeaponInfo>
_TEXT	ENDS
PUBLIC	??$_Uninitialized_copy@PAUForceInfo@@PAU1@V?$allocator@UForceInfo@@@std@@@std@@YAPAUForceInfo@@PAU1@00AAV?$allocator@UForceInfo@@@0@@Z ; std::_Uninitialized_copy<ForceInfo *,ForceInfo *,std::allocator<ForceInfo> >
; Function compile flags: /Ogsp
; File c:\program files (x86)\microsoft visual studio 10.0\vc\include\memory
;	COMDAT ??$_Uninitialized_copy@PAUForceInfo@@PAU1@V?$allocator@UForceInfo@@@std@@@std@@YAPAUForceInfo@@PAU1@00AAV?$allocator@UForceInfo@@@0@@Z
_TEXT	SEGMENT
__Cat$618010 = -4					; size = 1
__First$ = 8						; size = 4
__Last$ = 12						; size = 4
__Dest$ = 16						; size = 4
__Al$ = 20						; size = 4
??$_Uninitialized_copy@PAUForceInfo@@PAU1@V?$allocator@UForceInfo@@@std@@@std@@YAPAUForceInfo@@PAU1@00AAV?$allocator@UForceInfo@@@0@@Z PROC ; std::_Uninitialized_copy<ForceInfo *,ForceInfo *,std::allocator<ForceInfo> >, COMDAT

; 412  : 	{	// copy [_First, _Last) to raw _Dest, using _Al

  00000	55		 push	 ebp
  00001	8b ec		 mov	 ebp, esp
  00003	51		 push	 ecx

; 413  : 	return (_Uninit_copy(_First, _Last, _Dest, _Al,
; 414  : 		_Ptr_cat(_First, _Dest)));

  00004	ff 75 fc	 push	 DWORD PTR __Cat$618010[ebp]
  00007	ff 75 14	 push	 DWORD PTR __Al$[ebp]
  0000a	ff 75 10	 push	 DWORD PTR __Dest$[ebp]
  0000d	ff 75 0c	 push	 DWORD PTR __Last$[ebp]
  00010	ff 75 08	 push	 DWORD PTR __First$[ebp]
  00013	e8 00 00 00 00	 call	 ??$_Uninit_copy@PAUForceInfo@@PAU1@V?$allocator@UForceInfo@@@std@@@std@@YAPAUForceInfo@@PAU1@00AAV?$allocator@UForceInfo@@@0@U_Nonscalar_ptr_iterator_tag@0@@Z ; std::_Uninit_copy<ForceInfo *,ForceInfo *,std::allocator<ForceInfo> >
  00018	83 c4 14	 add	 esp, 20			; 00000014H

; 415  : 	}

  0001b	c9		 leave
  0001c	c3		 ret	 0
??$_Uninitialized_copy@PAUForceInfo@@PAU1@V?$allocator@UForceInfo@@@std@@@std@@YAPAUForceInfo@@PAU1@00AAV?$allocator@UForceInfo@@@0@@Z ENDP ; std::_Uninitialized_copy<ForceInfo *,ForceInfo *,std::allocator<ForceInfo> >
_TEXT	ENDS
PUBLIC	??$_Uninit_copy@PAUWeaponInfo@@PAU1@V?$allocator@UWeaponInfo@@@std@@@std@@YAPAUWeaponInfo@@PAU1@00AAV?$allocator@UWeaponInfo@@@0@U_Nonscalar_ptr_iterator_tag@0@@Z ; std::_Uninit_copy<WeaponInfo *,WeaponInfo *,std::allocator<WeaponInfo> >
EXTRN	__EH_prolog3_catch:PROC
;	COMDAT xdata$x
; File d:\lost saga for developer\youtube\tutorial\source\src\lsclient\playentityhelpstruct.h
xdata$x	SEGMENT
__catchsym$??$_Uninit_copy@PAUWeaponInfo@@PAU1@V?$allocator@UWeaponInfo@@@std@@@std@@YAPAUWeaponInfo@@PAU1@00AAV?$allocator@UWeaponInfo@@@0@U_Nonscalar_ptr_iterator_tag@0@@Z$3 DD 040H
	DD	00H
	DD	00H
	DD	FLAT:__catch$??$_Uninit_copy@PAUWeaponInfo@@PAU1@V?$allocator@UWeaponInfo@@@std@@@std@@YAPAUWeaponInfo@@PAU1@00AAV?$allocator@UWeaponInfo@@@0@U_Nonscalar_ptr_iterator_tag@0@@Z$0
__unwindtable$??$_Uninit_copy@PAUWeaponInfo@@PAU1@V?$allocator@UWeaponInfo@@@std@@@std@@YAPAUWeaponInfo@@PAU1@00AAV?$allocator@UWeaponInfo@@@0@U_Nonscalar_ptr_iterator_tag@0@@Z DD 0ffffffffH
	DD	00H
	DD	0ffffffffH
	DD	00H
__tryblocktable$??$_Uninit_copy@PAUWeaponInfo@@PAU1@V?$allocator@UWeaponInfo@@@std@@@std@@YAPAUWeaponInfo@@PAU1@00AAV?$allocator@UWeaponInfo@@@0@U_Nonscalar_ptr_iterator_tag@0@@Z DD 00H
	DD	00H
	DD	01H
	DD	01H
	DD	FLAT:__catchsym$??$_Uninit_copy@PAUWeaponInfo@@PAU1@V?$allocator@UWeaponInfo@@@std@@@std@@YAPAUWeaponInfo@@PAU1@00AAV?$allocator@UWeaponInfo@@@0@U_Nonscalar_ptr_iterator_tag@0@@Z$3
__ehfuncinfo$??$_Uninit_copy@PAUWeaponInfo@@PAU1@V?$allocator@UWeaponInfo@@@std@@@std@@YAPAUWeaponInfo@@PAU1@00AAV?$allocator@UWeaponInfo@@@0@U_Nonscalar_ptr_iterator_tag@0@@Z DD 019930522H
	DD	02H
	DD	FLAT:__unwindtable$??$_Uninit_copy@PAUWeaponInfo@@PAU1@V?$allocator@UWeaponInfo@@@std@@@std@@YAPAUWeaponInfo@@PAU1@00AAV?$allocator@UWeaponInfo@@@0@U_Nonscalar_ptr_iterator_tag@0@@Z
	DD	01H
	DD	FLAT:__tryblocktable$??$_Uninit_copy@PAUWeaponInfo@@PAU1@V?$allocator@UWeaponInfo@@@std@@@std@@YAPAUWeaponInfo@@PAU1@00AAV?$allocator@UWeaponInfo@@@0@U_Nonscalar_ptr_iterator_tag@0@@Z
	DD	2 DUP(00H)
	DD	00H
	DD	01H
; Function compile flags: /Ogsp
; File c:\program files (x86)\microsoft visual studio 10.0\vc\include\memory
xdata$x	ENDS
;	COMDAT ??$_Uninit_copy@PAUWeaponInfo@@PAU1@V?$allocator@UWeaponInfo@@@std@@@std@@YAPAUWeaponInfo@@PAU1@00AAV?$allocator@UWeaponInfo@@@0@U_Nonscalar_ptr_iterator_tag@0@@Z
_TEXT	SEGMENT
__Next$ = -20						; size = 4
__$EHRec$ = -16						; size = 16
__First$ = 8						; size = 4
__Last$ = 12						; size = 4
__Dest$ = 16						; size = 4
__Al$ = 20						; size = 4
___formal$ = 24						; size = 1
??$_Uninit_copy@PAUWeaponInfo@@PAU1@V?$allocator@UWeaponInfo@@@std@@@std@@YAPAUWeaponInfo@@PAU1@00AAV?$allocator@UWeaponInfo@@@0@U_Nonscalar_ptr_iterator_tag@0@@Z PROC ; std::_Uninit_copy<WeaponInfo *,WeaponInfo *,std::allocator<WeaponInfo> >, COMDAT

; 369  : 	{	// copy [_First, _Last) to raw _Dest, using _Al, arbitrary type

  00000	6a 08		 push	 8
  00002	b8 00 00 00 00	 mov	 eax, __ehhandler$??$_Uninit_copy@PAUWeaponInfo@@PAU1@V?$allocator@UWeaponInfo@@@std@@@std@@YAPAUWeaponInfo@@PAU1@00AAV?$allocator@UWeaponInfo@@@0@U_Nonscalar_ptr_iterator_tag@0@@Z
  00007	e8 00 00 00 00	 call	 __EH_prolog3_catch

; 370  : 	_DEBUG_RANGE(_First, _Last);
; 371  : 	_DEBUG_POINTER(_Dest);
; 372  : 	_FwdIt _Next = _Dest;

  0000c	8b 45 10	 mov	 eax, DWORD PTR __Dest$[ebp]

; 373  : 
; 374  : 	_TRY_BEGIN

  0000f	83 65 fc 00	 and	 DWORD PTR __$EHRec$[ebp+12], 0
  00013	8b 75 08	 mov	 esi, DWORD PTR __First$[ebp]
  00016	89 45 ec	 mov	 DWORD PTR __Next$[ebp], eax
$LL6@Uninit_cop@3:

; 375  : 	for (; _First != _Last; ++_Dest, ++_First)

  00019	3b 75 0c	 cmp	 esi, DWORD PTR __Last$[ebp]
  0001c	74 37		 je	 SHORT $LN4@Uninit_cop@3

; 376  : 		_Cons_val(_Al, _Dest, *_First);

  0001e	56		 push	 esi
  0001f	ff 75 10	 push	 DWORD PTR __Dest$[ebp]
  00022	ff 75 14	 push	 DWORD PTR __Al$[ebp]
  00025	e8 00 00 00 00	 call	 ??$_Cons_val@V?$allocator@UWeaponInfo@@@std@@UWeaponInfo@@AAU3@@std@@YAXAAV?$allocator@UWeaponInfo@@@0@PAUWeaponInfo@@AAU2@@Z ; std::_Cons_val<std::allocator<WeaponInfo>,WeaponInfo,WeaponInfo &>
  0002a	83 45 10 28	 add	 DWORD PTR __Dest$[ebp], 40 ; 00000028H
  0002e	83 c4 0c	 add	 esp, 12			; 0000000cH
  00031	83 c6 28	 add	 esi, 40			; 00000028H
  00034	eb e3		 jmp	 SHORT $LL6@Uninit_cop@3
__catch$??$_Uninit_copy@PAUWeaponInfo@@PAU1@V?$allocator@UWeaponInfo@@@std@@@std@@YAPAUWeaponInfo@@PAU1@00AAV?$allocator@UWeaponInfo@@@0@U_Nonscalar_ptr_iterator_tag@0@@Z$0:

; 377  : 	_CATCH_ALL
; 378  : 	for (; _Next != _Dest; ++_Next)

  00036	8b 75 ec	 mov	 esi, DWORD PTR __Next$[ebp]
  00039	eb 0c		 jmp	 SHORT $LN32@Uninit_cop@3
$LL3@Uninit_cop@3:

; 379  : 		_Dest_val(_Al, _Next);

  0003b	8d 4e 08	 lea	 ecx, DWORD PTR [esi+8]
  0003e	ff 15 00 00 00
	00		 call	 DWORD PTR __imp_??1ioHashString@@QAE@XZ
  00044	83 c6 28	 add	 esi, 40			; 00000028H
$LN32@Uninit_cop@3:

; 377  : 	_CATCH_ALL
; 378  : 	for (; _Next != _Dest; ++_Next)

  00047	3b 75 10	 cmp	 esi, DWORD PTR __Dest$[ebp]
  0004a	75 ef		 jne	 SHORT $LL3@Uninit_cop@3

; 380  : 	_RERAISE;

  0004c	6a 00		 push	 0
  0004e	6a 00		 push	 0
  00050	e8 00 00 00 00	 call	 __CxxThrowException@8
$LN33@Uninit_cop@3:
$LN4@Uninit_cop@3:

; 381  : 	_CATCH_END
; 382  : 	return (_Dest);

  00055	8b 45 10	 mov	 eax, DWORD PTR __Dest$[ebp]

; 383  : 	}

  00058	e8 00 00 00 00	 call	 __EH_epilog3
  0005d	c3		 ret	 0
$LN31@Uninit_cop@3:
_TEXT	ENDS
;	COMDAT text$x
text$x	SEGMENT
__ehhandler$??$_Uninit_copy@PAUWeaponInfo@@PAU1@V?$allocator@UWeaponInfo@@@std@@@std@@YAPAUWeaponInfo@@PAU1@00AAV?$allocator@UWeaponInfo@@@0@U_Nonscalar_ptr_iterator_tag@0@@Z:
  00000	8b 54 24 08	 mov	 edx, DWORD PTR [esp+8]
  00004	8d 42 0c	 lea	 eax, DWORD PTR [edx+12]
  00007	8b 4a e8	 mov	 ecx, DWORD PTR [edx-24]
  0000a	33 c8		 xor	 ecx, eax
  0000c	e8 00 00 00 00	 call	 @__security_check_cookie@4
  00011	b8 00 00 00 00	 mov	 eax, OFFSET __ehfuncinfo$??$_Uninit_copy@PAUWeaponInfo@@PAU1@V?$allocator@UWeaponInfo@@@std@@@std@@YAPAUWeaponInfo@@PAU1@00AAV?$allocator@UWeaponInfo@@@0@U_Nonscalar_ptr_iterator_tag@0@@Z
  00016	e9 00 00 00 00	 jmp	 ___CxxFrameHandler3
text$x	ENDS
??$_Uninit_copy@PAUWeaponInfo@@PAU1@V?$allocator@UWeaponInfo@@@std@@@std@@YAPAUWeaponInfo@@PAU1@00AAV?$allocator@UWeaponInfo@@@0@U_Nonscalar_ptr_iterator_tag@0@@Z ENDP ; std::_Uninit_copy<WeaponInfo *,WeaponInfo *,std::allocator<WeaponInfo> >
PUBLIC	??$_Uninitialized_copy@V?$_Vector_const_iterator@V?$_Vector_val@UForceInfo@@V?$allocator@UForceInfo@@@std@@@std@@@std@@PAUForceInfo@@V?$allocator@UForceInfo@@@2@@std@@YAPAUForceInfo@@V?$_Vector_const_iterator@V?$_Vector_val@UForceInfo@@V?$allocator@UForceInfo@@@std@@@std@@@0@0PAU1@AAV?$allocator@UForceInfo@@@0@@Z ; std::_Uninitialized_copy<std::_Vector_const_iterator<std::_Vector_val<ForceInfo,std::allocator<ForceInfo> > >,ForceInfo *,std::allocator<ForceInfo> >
; Function compile flags: /Ogsp
;	COMDAT ??$_Uninitialized_copy@V?$_Vector_const_iterator@V?$_Vector_val@UForceInfo@@V?$allocator@UForceInfo@@@std@@@std@@@std@@PAUForceInfo@@V?$allocator@UForceInfo@@@2@@std@@YAPAUForceInfo@@V?$_Vector_const_iterator@V?$_Vector_val@UForceInfo@@V?$allocator@UForceInfo@@@std@@@std@@@0@0PAU1@AAV?$allocator@UForceInfo@@@0@@Z
_TEXT	SEGMENT
__Cat$618079 = -4					; size = 1
__First$ = 8						; size = 4
__Last$ = 12						; size = 4
__Dest$ = 16						; size = 4
__Al$ = 20						; size = 4
??$_Uninitialized_copy@V?$_Vector_const_iterator@V?$_Vector_val@UForceInfo@@V?$allocator@UForceInfo@@@std@@@std@@@std@@PAUForceInfo@@V?$allocator@UForceInfo@@@2@@std@@YAPAUForceInfo@@V?$_Vector_const_iterator@V?$_Vector_val@UForceInfo@@V?$allocator@UForceInfo@@@std@@@std@@@0@0PAU1@AAV?$allocator@UForceInfo@@@0@@Z PROC ; std::_Uninitialized_copy<std::_Vector_const_iterator<std::_Vector_val<ForceInfo,std::allocator<ForceInfo> > >,ForceInfo *,std::allocator<ForceInfo> >, COMDAT

; 412  : 	{	// copy [_First, _Last) to raw _Dest, using _Al

  00000	55		 push	 ebp
  00001	8b ec		 mov	 ebp, esp
  00003	51		 push	 ecx

; 413  : 	return (_Uninit_copy(_First, _Last, _Dest, _Al,
; 414  : 		_Ptr_cat(_First, _Dest)));

  00004	ff 75 fc	 push	 DWORD PTR __Cat$618079[ebp]
  00007	ff 75 14	 push	 DWORD PTR __Al$[ebp]
  0000a	ff 75 10	 push	 DWORD PTR __Dest$[ebp]
  0000d	ff 75 0c	 push	 DWORD PTR __Last$[ebp]
  00010	ff 75 08	 push	 DWORD PTR __First$[ebp]
  00013	e8 00 00 00 00	 call	 ??$_Uninit_copy@V?$_Vector_const_iterator@V?$_Vector_val@UForceInfo@@V?$allocator@UForceInfo@@@std@@@std@@@std@@PAUForceInfo@@V?$allocator@UForceInfo@@@2@@std@@YAPAUForceInfo@@V?$_Vector_const_iterator@V?$_Vector_val@UForceInfo@@V?$allocator@UForceInfo@@@std@@@std@@@0@0PAU1@AAV?$allocator@UForceInfo@@@0@U_Nonscalar_ptr_iterator_tag@0@@Z ; std::_Uninit_copy<std::_Vector_const_iterator<std::_Vector_val<ForceInfo,std::allocator<ForceInfo> > >,ForceInfo *,std::allocator<ForceInfo> >
  00018	83 c4 14	 add	 esp, 20			; 00000014H

; 415  : 	}

  0001b	c9		 leave
  0001c	c3		 ret	 0
??$_Uninitialized_copy@V?$_Vector_const_iterator@V?$_Vector_val@UForceInfo@@V?$allocator@UForceInfo@@@std@@@std@@@std@@PAUForceInfo@@V?$allocator@UForceInfo@@@2@@std@@YAPAUForceInfo@@V?$_Vector_const_iterator@V?$_Vector_val@UForceInfo@@V?$allocator@UForceInfo@@@std@@@std@@@0@0PAU1@AAV?$allocator@UForceInfo@@@0@@Z ENDP ; std::_Uninitialized_copy<std::_Vector_const_iterator<std::_Vector_val<ForceInfo,std::allocator<ForceInfo> > >,ForceInfo *,std::allocator<ForceInfo> >
_TEXT	ENDS
PUBLIC	??$_Uninit_copy@V?$_Vector_const_iterator@V?$_Vector_val@UWeaponInfo@@V?$allocator@UWeaponInfo@@@std@@@std@@@std@@PAUWeaponInfo@@V?$allocator@UWeaponInfo@@@2@@std@@YAPAUWeaponInfo@@V?$_Vector_const_iterator@V?$_Vector_val@UWeaponInfo@@V?$allocator@UWeaponInfo@@@std@@@std@@@0@0PAU1@AAV?$allocator@UWeaponInfo@@@0@U_Nonscalar_ptr_iterator_tag@0@@Z ; std::_Uninit_copy<std::_Vector_const_iterator<std::_Vector_val<WeaponInfo,std::allocator<WeaponInfo> > >,WeaponInfo *,std::allocator<WeaponInfo> >
;	COMDAT xdata$x
; File d:\lost saga for developer\youtube\tutorial\source\src\lsclient\playentityhelpstruct.h
xdata$x	SEGMENT
__catchsym$??$_Uninit_copy@V?$_Vector_const_iterator@V?$_Vector_val@UWeaponInfo@@V?$allocator@UWeaponInfo@@@std@@@std@@@std@@PAUWeaponInfo@@V?$allocator@UWeaponInfo@@@2@@std@@YAPAUWeaponInfo@@V?$_Vector_const_iterator@V?$_Vector_val@UWeaponInfo@@V?$allocator@UWeaponInfo@@@std@@@std@@@0@0PAU1@AAV?$allocator@UWeaponInfo@@@0@U_Nonscalar_ptr_iterator_tag@0@@Z$3 DD 040H
	DD	00H
	DD	00H
	DD	FLAT:__catch$??$_Uninit_copy@V?$_Vector_const_iterator@V?$_Vector_val@UWeaponInfo@@V?$allocator@UWeaponInfo@@@std@@@std@@@std@@PAUWeaponInfo@@V?$allocator@UWeaponInfo@@@2@@std@@YAPAUWeaponInfo@@V?$_Vector_const_iterator@V?$_Vector_val@UWeaponInfo@@V?$allocator@UWeaponInfo@@@std@@@std@@@0@0PAU1@AAV?$allocator@UWeaponInfo@@@0@U_Nonscalar_ptr_iterator_tag@0@@Z$0
__unwindtable$??$_Uninit_copy@V?$_Vector_const_iterator@V?$_Vector_val@UWeaponInfo@@V?$allocator@UWeaponInfo@@@std@@@std@@@std@@PAUWeaponInfo@@V?$allocator@UWeaponInfo@@@2@@std@@YAPAUWeaponInfo@@V?$_Vector_const_iterator@V?$_Vector_val@UWeaponInfo@@V?$allocator@UWeaponInfo@@@std@@@std@@@0@0PAU1@AAV?$allocator@UWeaponInfo@@@0@U_Nonscalar_ptr_iterator_tag@0@@Z DD 0ffffffffH
	DD	00H
	DD	0ffffffffH
	DD	00H
__tryblocktable$??$_Uninit_copy@V?$_Vector_const_iterator@V?$_Vector_val@UWeaponInfo@@V?$allocator@UWeaponInfo@@@std@@@std@@@std@@PAUWeaponInfo@@V?$allocator@UWeaponInfo@@@2@@std@@YAPAUWeaponInfo@@V?$_Vector_const_iterator@V?$_Vector_val@UWeaponInfo@@V?$allocator@UWeaponInfo@@@std@@@std@@@0@0PAU1@AAV?$allocator@UWeaponInfo@@@0@U_Nonscalar_ptr_iterator_tag@0@@Z DD 00H
	DD	00H
	DD	01H
	DD	01H
	DD	FLAT:__catchsym$??$_Uninit_copy@V?$_Vector_const_iterator@V?$_Vector_val@UWeaponInfo@@V?$allocator@UWeaponInfo@@@std@@@std@@@std@@PAUWeaponInfo@@V?$allocator@UWeaponInfo@@@2@@std@@YAPAUWeaponInfo@@V?$_Vector_const_iterator@V?$_Vector_val@UWeaponInfo@@V?$allocator@UWeaponInfo@@@std@@@std@@@0@0PAU1@AAV?$allocator@UWeaponInfo@@@0@U_Nonscalar_ptr_iterator_tag@0@@Z$3
__ehfuncinfo$??$_Uninit_copy@V?$_Vector_const_iterator@V?$_Vector_val@UWeaponInfo@@V?$allocator@UWeaponInfo@@@std@@@std@@@std@@PAUWeaponInfo@@V?$allocator@UWeaponInfo@@@2@@std@@YAPAUWeaponInfo@@V?$_Vector_const_iterator@V?$_Vector_val@UWeaponInfo@@V?$allocator@UWeaponInfo@@@std@@@std@@@0@0PAU1@AAV?$allocator@UWeaponInfo@@@0@U_Nonscalar_ptr_iterator_tag@0@@Z DD 019930522H
	DD	02H
	DD	FLAT:__unwindtable$??$_Uninit_copy@V?$_Vector_const_iterator@V?$_Vector_val@UWeaponInfo@@V?$allocator@UWeaponInfo@@@std@@@std@@@std@@PAUWeaponInfo@@V?$allocator@UWeaponInfo@@@2@@std@@YAPAUWeaponInfo@@V?$_Vector_const_iterator@V?$_Vector_val@UWeaponInfo@@V?$allocator@UWeaponInfo@@@std@@@std@@@0@0PAU1@AAV?$allocator@UWeaponInfo@@@0@U_Nonscalar_ptr_iterator_tag@0@@Z
	DD	01H
	DD	FLAT:__tryblocktable$??$_Uninit_copy@V?$_Vector_const_iterator@V?$_Vector_val@UWeaponInfo@@V?$allocator@UWeaponInfo@@@std@@@std@@@std@@PAUWeaponInfo@@V?$allocator@UWeaponInfo@@@2@@std@@YAPAUWeaponInfo@@V?$_Vector_const_iterator@V?$_Vector_val@UWeaponInfo@@V?$allocator@UWeaponInfo@@@std@@@std@@@0@0PAU1@AAV?$allocator@UWeaponInfo@@@0@U_Nonscalar_ptr_iterator_tag@0@@Z
	DD	2 DUP(00H)
	DD	00H
	DD	01H
; Function compile flags: /Ogsp
; File c:\program files (x86)\microsoft visual studio 10.0\vc\include\memory
xdata$x	ENDS
;	COMDAT ??$_Uninit_copy@V?$_Vector_const_iterator@V?$_Vector_val@UWeaponInfo@@V?$allocator@UWeaponInfo@@@std@@@std@@@std@@PAUWeaponInfo@@V?$allocator@UWeaponInfo@@@2@@std@@YAPAUWeaponInfo@@V?$_Vector_const_iterator@V?$_Vector_val@UWeaponInfo@@V?$allocator@UWeaponInfo@@@std@@@std@@@0@0PAU1@AAV?$allocator@UWeaponInfo@@@0@U_Nonscalar_ptr_iterator_tag@0@@Z
_TEXT	SEGMENT
__Next$ = -20						; size = 4
__$EHRec$ = -16						; size = 16
__First$ = 8						; size = 4
__Last$ = 12						; size = 4
__Dest$ = 16						; size = 4
__Al$ = 20						; size = 4
___formal$ = 24						; size = 1
??$_Uninit_copy@V?$_Vector_const_iterator@V?$_Vector_val@UWeaponInfo@@V?$allocator@UWeaponInfo@@@std@@@std@@@std@@PAUWeaponInfo@@V?$allocator@UWeaponInfo@@@2@@std@@YAPAUWeaponInfo@@V?$_Vector_const_iterator@V?$_Vector_val@UWeaponInfo@@V?$allocator@UWeaponInfo@@@std@@@std@@@0@0PAU1@AAV?$allocator@UWeaponInfo@@@0@U_Nonscalar_ptr_iterator_tag@0@@Z PROC ; std::_Uninit_copy<std::_Vector_const_iterator<std::_Vector_val<WeaponInfo,std::allocator<WeaponInfo> > >,WeaponInfo *,std::allocator<WeaponInfo> >, COMDAT

; 369  : 	{	// copy [_First, _Last) to raw _Dest, using _Al, arbitrary type

  00000	6a 08		 push	 8
  00002	b8 00 00 00 00	 mov	 eax, __ehhandler$??$_Uninit_copy@V?$_Vector_const_iterator@V?$_Vector_val@UWeaponInfo@@V?$allocator@UWeaponInfo@@@std@@@std@@@std@@PAUWeaponInfo@@V?$allocator@UWeaponInfo@@@2@@std@@YAPAUWeaponInfo@@V?$_Vector_const_iterator@V?$_Vector_val@UWeaponInfo@@V?$allocator@UWeaponInfo@@@std@@@std@@@0@0PAU1@AAV?$allocator@UWeaponInfo@@@0@U_Nonscalar_ptr_iterator_tag@0@@Z
  00007	e8 00 00 00 00	 call	 __EH_prolog3_catch

; 370  : 	_DEBUG_RANGE(_First, _Last);
; 371  : 	_DEBUG_POINTER(_Dest);
; 372  : 	_FwdIt _Next = _Dest;

  0000c	8b 45 10	 mov	 eax, DWORD PTR __Dest$[ebp]

; 373  : 
; 374  : 	_TRY_BEGIN

  0000f	83 65 fc 00	 and	 DWORD PTR __$EHRec$[ebp+12], 0
  00013	89 45 ec	 mov	 DWORD PTR __Next$[ebp], eax

; 375  : 	for (; _First != _Last; ++_Dest, ++_First)

$LL14@Uninit_cop@4:
  00016	8b 45 08	 mov	 eax, DWORD PTR __First$[ebp]
  00019	3b 45 0c	 cmp	 eax, DWORD PTR __Last$[ebp]
  0001c	74 34		 je	 SHORT $LN4@Uninit_cop@4

; 376  : 		_Cons_val(_Al, _Dest, *_First);

  0001e	50		 push	 eax
  0001f	ff 75 10	 push	 DWORD PTR __Dest$[ebp]
  00022	e8 00 00 00 00	 call	 ??$_Construct@UWeaponInfo@@ABU1@@std@@YAXPAUWeaponInfo@@ABU1@@Z ; std::_Construct<WeaponInfo,WeaponInfo const &>
  00027	83 45 10 28	 add	 DWORD PTR __Dest$[ebp], 40 ; 00000028H
  0002b	83 45 08 28	 add	 DWORD PTR __First$[ebp], 40 ; 00000028H
  0002f	59		 pop	 ecx
  00030	59		 pop	 ecx
  00031	eb e3		 jmp	 SHORT $LL14@Uninit_cop@4
__catch$??$_Uninit_copy@V?$_Vector_const_iterator@V?$_Vector_val@UWeaponInfo@@V?$allocator@UWeaponInfo@@@std@@@std@@@std@@PAUWeaponInfo@@V?$allocator@UWeaponInfo@@@2@@std@@YAPAUWeaponInfo@@V?$_Vector_const_iterator@V?$_Vector_val@UWeaponInfo@@V?$allocator@UWeaponInfo@@@std@@@std@@@0@0PAU1@AAV?$allocator@UWeaponInfo@@@0@U_Nonscalar_ptr_iterator_tag@0@@Z$0:

; 377  : 	_CATCH_ALL
; 378  : 	for (; _Next != _Dest; ++_Next)

  00033	8b 75 ec	 mov	 esi, DWORD PTR __Next$[ebp]
  00036	eb 0c		 jmp	 SHORT $LN48@Uninit_cop@4
$LL3@Uninit_cop@4:

; 379  : 		_Dest_val(_Al, _Next);

  00038	8d 4e 08	 lea	 ecx, DWORD PTR [esi+8]
  0003b	ff 15 00 00 00
	00		 call	 DWORD PTR __imp_??1ioHashString@@QAE@XZ
  00041	83 c6 28	 add	 esi, 40			; 00000028H
$LN48@Uninit_cop@4:

; 377  : 	_CATCH_ALL
; 378  : 	for (; _Next != _Dest; ++_Next)

  00044	3b 75 10	 cmp	 esi, DWORD PTR __Dest$[ebp]
  00047	75 ef		 jne	 SHORT $LL3@Uninit_cop@4

; 380  : 	_RERAISE;

  00049	6a 00		 push	 0
  0004b	6a 00		 push	 0
  0004d	e8 00 00 00 00	 call	 __CxxThrowException@8
$LN49@Uninit_cop@4:
$LN4@Uninit_cop@4:

; 381  : 	_CATCH_END
; 382  : 	return (_Dest);

  00052	8b 45 10	 mov	 eax, DWORD PTR __Dest$[ebp]

; 383  : 	}

  00055	e8 00 00 00 00	 call	 __EH_epilog3
  0005a	c3		 ret	 0
$LN47@Uninit_cop@4:
_TEXT	ENDS
;	COMDAT text$x
text$x	SEGMENT
__ehhandler$??$_Uninit_copy@V?$_Vector_const_iterator@V?$_Vector_val@UWeaponInfo@@V?$allocator@UWeaponInfo@@@std@@@std@@@std@@PAUWeaponInfo@@V?$allocator@UWeaponInfo@@@2@@std@@YAPAUWeaponInfo@@V?$_Vector_const_iterator@V?$_Vector_val@UWeaponInfo@@V?$allocator@UWeaponInfo@@@std@@@std@@@0@0PAU1@AAV?$allocator@UWeaponInfo@@@0@U_Nonscalar_ptr_iterator_tag@0@@Z:
  00000	8b 54 24 08	 mov	 edx, DWORD PTR [esp+8]
  00004	8d 42 0c	 lea	 eax, DWORD PTR [edx+12]
  00007	8b 4a e8	 mov	 ecx, DWORD PTR [edx-24]
  0000a	33 c8		 xor	 ecx, eax
  0000c	e8 00 00 00 00	 call	 @__security_check_cookie@4
  00011	b8 00 00 00 00	 mov	 eax, OFFSET __ehfuncinfo$??$_Uninit_copy@V?$_Vector_const_iterator@V?$_Vector_val@UWeaponInfo@@V?$allocator@UWeaponInfo@@@std@@@std@@@std@@PAUWeaponInfo@@V?$allocator@UWeaponInfo@@@2@@std@@YAPAUWeaponInfo@@V?$_Vector_const_iterator@V?$_Vector_val@UWeaponInfo@@V?$allocator@UWeaponInfo@@@std@@@std@@@0@0PAU1@AAV?$allocator@UWeaponInfo@@@0@U_Nonscalar_ptr_iterator_tag@0@@Z
  00016	e9 00 00 00 00	 jmp	 ___CxxFrameHandler3
text$x	ENDS
??$_Uninit_copy@V?$_Vector_const_iterator@V?$_Vector_val@UWeaponInfo@@V?$allocator@UWeaponInfo@@@std@@@std@@@std@@PAUWeaponInfo@@V?$allocator@UWeaponInfo@@@2@@std@@YAPAUWeaponInfo@@V?$_Vector_const_iterator@V?$_Vector_val@UWeaponInfo@@V?$allocator@UWeaponInfo@@@std@@@std@@@0@0PAU1@AAV?$allocator@UWeaponInfo@@@0@U_Nonscalar_ptr_iterator_tag@0@@Z ENDP ; std::_Uninit_copy<std::_Vector_const_iterator<std::_Vector_val<WeaponInfo,std::allocator<WeaponInfo> > >,WeaponInfo *,std::allocator<WeaponInfo> >
PUBLIC	??$_Destroy_range@V?$allocator@UForceInfo@@@std@@@std@@YAXPAUForceInfo@@0AAV?$allocator@UForceInfo@@@0@@Z ; std::_Destroy_range<std::allocator<ForceInfo> >
; Function compile flags: /Ogsp
; File c:\program files (x86)\microsoft visual studio 10.0\vc\include\xmemory
;	COMDAT ??$_Destroy_range@V?$allocator@UForceInfo@@@std@@@std@@YAXPAUForceInfo@@0AAV?$allocator@UForceInfo@@@0@@Z
_TEXT	SEGMENT
__First$ = 8						; size = 4
__Last$ = 12						; size = 4
__Al$ = 16						; size = 4
??$_Destroy_range@V?$allocator@UForceInfo@@@std@@@std@@YAXPAUForceInfo@@0AAV?$allocator@UForceInfo@@@0@@Z PROC ; std::_Destroy_range<std::allocator<ForceInfo> >, COMDAT

; 88   : 	_Destroy_range(_First, _Last, _Al, _Ptr_cat(_First, _Last));
; 89   : 	}

  00000	c3		 ret	 0
??$_Destroy_range@V?$allocator@UForceInfo@@@std@@@std@@YAXPAUForceInfo@@0AAV?$allocator@UForceInfo@@@0@@Z ENDP ; std::_Destroy_range<std::allocator<ForceInfo> >
_TEXT	ENDS
PUBLIC	??$_Destroy_range@V?$allocator@UWeaponInfo@@@std@@@std@@YAXPAUWeaponInfo@@0AAV?$allocator@UWeaponInfo@@@0@U_Nonscalar_ptr_iterator_tag@0@@Z ; std::_Destroy_range<std::allocator<WeaponInfo> >
; Function compile flags: /Ogsp
;	COMDAT ??$_Destroy_range@V?$allocator@UWeaponInfo@@@std@@@std@@YAXPAUWeaponInfo@@0AAV?$allocator@UWeaponInfo@@@0@U_Nonscalar_ptr_iterator_tag@0@@Z
_TEXT	SEGMENT
__First$ = 8						; size = 4
__Last$ = 12						; size = 4
__Al$ = 16						; size = 4
___formal$ = 20						; size = 1
??$_Destroy_range@V?$allocator@UWeaponInfo@@@std@@@std@@YAXPAUWeaponInfo@@0AAV?$allocator@UWeaponInfo@@@0@U_Nonscalar_ptr_iterator_tag@0@@Z PROC ; std::_Destroy_range<std::allocator<WeaponInfo> >, COMDAT

; 95   : 	{	// destroy [_First, _Last), arbitrary type

  00000	55		 push	 ebp
  00001	8b ec		 mov	 ebp, esp
  00003	56		 push	 esi

; 96   : 	for (; _First != _Last; ++_First)

  00004	8b 75 08	 mov	 esi, DWORD PTR __First$[ebp]
  00007	eb 0c		 jmp	 SHORT $LN20@Destroy_ra
$LL3@Destroy_ra:

; 97   : 		_Dest_val(_Al, _First);

  00009	8d 4e 08	 lea	 ecx, DWORD PTR [esi+8]
  0000c	ff 15 00 00 00
	00		 call	 DWORD PTR __imp_??1ioHashString@@QAE@XZ
  00012	83 c6 28	 add	 esi, 40			; 00000028H
$LN20@Destroy_ra:

; 96   : 	for (; _First != _Last; ++_First)

  00015	3b 75 0c	 cmp	 esi, DWORD PTR __Last$[ebp]
  00018	75 ef		 jne	 SHORT $LL3@Destroy_ra
  0001a	5e		 pop	 esi

; 98   : 	}

  0001b	5d		 pop	 ebp
  0001c	c3		 ret	 0
??$_Destroy_range@V?$allocator@UWeaponInfo@@@std@@@std@@YAXPAUWeaponInfo@@0AAV?$allocator@UWeaponInfo@@@0@U_Nonscalar_ptr_iterator_tag@0@@Z ENDP ; std::_Destroy_range<std::allocator<WeaponInfo> >
_TEXT	ENDS
PUBLIC	??$_Ucopy@PAUForceInfo@@@?$vector@UForceInfo@@V?$allocator@UForceInfo@@@std@@@std@@IAEPAUForceInfo@@PAU2@00@Z ; std::vector<ForceInfo,std::allocator<ForceInfo> >::_Ucopy<ForceInfo *>
; Function compile flags: /Ogsp
; File c:\program files (x86)\microsoft visual studio 10.0\vc\include\vector
;	COMDAT ??$_Ucopy@PAUForceInfo@@@?$vector@UForceInfo@@V?$allocator@UForceInfo@@@std@@@std@@IAEPAUForceInfo@@PAU2@00@Z
_TEXT	SEGMENT
__First$ = 8						; size = 4
__Last$ = 12						; size = 4
__Cat$618271 = 16					; size = 1
__Ptr$ = 16						; size = 4
??$_Ucopy@PAUForceInfo@@@?$vector@UForceInfo@@V?$allocator@UForceInfo@@@std@@@std@@IAEPAUForceInfo@@PAU2@00@Z PROC ; std::vector<ForceInfo,std::allocator<ForceInfo> >::_Ucopy<ForceInfo *>, COMDAT
; _this$ = ecx

; 1315 : 		pointer _Ucopy(_Iter _First, _Iter _Last, pointer _Ptr)

  00000	55		 push	 ebp
  00001	8b ec		 mov	 ebp, esp

; 1316 : 		{	// copy initializing [_First, _Last), using allocator
; 1317 : 		return (_Uninitialized_copy(_First, _Last,
; 1318 : 			_Ptr, this->_Alval));

  00003	ff 75 10	 push	 DWORD PTR __Cat$618271[ebp]
  00006	83 c1 0c	 add	 ecx, 12			; 0000000cH
  00009	51		 push	 ecx
  0000a	ff 75 10	 push	 DWORD PTR __Ptr$[ebp]
  0000d	ff 75 0c	 push	 DWORD PTR __Last$[ebp]
  00010	ff 75 08	 push	 DWORD PTR __First$[ebp]
  00013	e8 00 00 00 00	 call	 ??$_Uninit_copy@PAUForceInfo@@PAU1@V?$allocator@UForceInfo@@@std@@@std@@YAPAUForceInfo@@PAU1@00AAV?$allocator@UForceInfo@@@0@U_Nonscalar_ptr_iterator_tag@0@@Z ; std::_Uninit_copy<ForceInfo *,ForceInfo *,std::allocator<ForceInfo> >
  00018	83 c4 14	 add	 esp, 20			; 00000014H

; 1319 : 		}

  0001b	5d		 pop	 ebp
  0001c	c2 0c 00	 ret	 12			; 0000000cH
??$_Ucopy@PAUForceInfo@@@?$vector@UForceInfo@@V?$allocator@UForceInfo@@@std@@@std@@IAEPAUForceInfo@@PAU2@00@Z ENDP ; std::vector<ForceInfo,std::allocator<ForceInfo> >::_Ucopy<ForceInfo *>
_TEXT	ENDS
PUBLIC	??$_Uninitialized_copy@PAUWeaponInfo@@PAU1@V?$allocator@UWeaponInfo@@@std@@@std@@YAPAUWeaponInfo@@PAU1@00AAV?$allocator@UWeaponInfo@@@0@@Z ; std::_Uninitialized_copy<WeaponInfo *,WeaponInfo *,std::allocator<WeaponInfo> >
; Function compile flags: /Ogsp
; File c:\program files (x86)\microsoft visual studio 10.0\vc\include\memory
;	COMDAT ??$_Uninitialized_copy@PAUWeaponInfo@@PAU1@V?$allocator@UWeaponInfo@@@std@@@std@@YAPAUWeaponInfo@@PAU1@00AAV?$allocator@UWeaponInfo@@@0@@Z
_TEXT	SEGMENT
__Cat$618279 = -4					; size = 1
__First$ = 8						; size = 4
__Last$ = 12						; size = 4
__Dest$ = 16						; size = 4
__Al$ = 20						; size = 4
??$_Uninitialized_copy@PAUWeaponInfo@@PAU1@V?$allocator@UWeaponInfo@@@std@@@std@@YAPAUWeaponInfo@@PAU1@00AAV?$allocator@UWeaponInfo@@@0@@Z PROC ; std::_Uninitialized_copy<WeaponInfo *,WeaponInfo *,std::allocator<WeaponInfo> >, COMDAT

; 412  : 	{	// copy [_First, _Last) to raw _Dest, using _Al

  00000	55		 push	 ebp
  00001	8b ec		 mov	 ebp, esp
  00003	51		 push	 ecx

; 413  : 	return (_Uninit_copy(_First, _Last, _Dest, _Al,
; 414  : 		_Ptr_cat(_First, _Dest)));

  00004	ff 75 fc	 push	 DWORD PTR __Cat$618279[ebp]
  00007	ff 75 14	 push	 DWORD PTR __Al$[ebp]
  0000a	ff 75 10	 push	 DWORD PTR __Dest$[ebp]
  0000d	ff 75 0c	 push	 DWORD PTR __Last$[ebp]
  00010	ff 75 08	 push	 DWORD PTR __First$[ebp]
  00013	e8 00 00 00 00	 call	 ??$_Uninit_copy@PAUWeaponInfo@@PAU1@V?$allocator@UWeaponInfo@@@std@@@std@@YAPAUWeaponInfo@@PAU1@00AAV?$allocator@UWeaponInfo@@@0@U_Nonscalar_ptr_iterator_tag@0@@Z ; std::_Uninit_copy<WeaponInfo *,WeaponInfo *,std::allocator<WeaponInfo> >
  00018	83 c4 14	 add	 esp, 20			; 00000014H

; 415  : 	}

  0001b	c9		 leave
  0001c	c3		 ret	 0
??$_Uninitialized_copy@PAUWeaponInfo@@PAU1@V?$allocator@UWeaponInfo@@@std@@@std@@YAPAUWeaponInfo@@PAU1@00AAV?$allocator@UWeaponInfo@@@0@@Z ENDP ; std::_Uninitialized_copy<WeaponInfo *,WeaponInfo *,std::allocator<WeaponInfo> >
_TEXT	ENDS
PUBLIC	??$_Ucopy@V?$_Vector_const_iterator@V?$_Vector_val@UForceInfo@@V?$allocator@UForceInfo@@@std@@@std@@@std@@@?$vector@UForceInfo@@V?$allocator@UForceInfo@@@std@@@std@@IAEPAUForceInfo@@V?$_Vector_const_iterator@V?$_Vector_val@UForceInfo@@V?$allocator@UForceInfo@@@std@@@std@@@1@0PAU2@@Z ; std::vector<ForceInfo,std::allocator<ForceInfo> >::_Ucopy<std::_Vector_const_iterator<std::_Vector_val<ForceInfo,std::allocator<ForceInfo> > > >
; Function compile flags: /Ogsp
; File c:\program files (x86)\microsoft visual studio 10.0\vc\include\vector
;	COMDAT ??$_Ucopy@V?$_Vector_const_iterator@V?$_Vector_val@UForceInfo@@V?$allocator@UForceInfo@@@std@@@std@@@std@@@?$vector@UForceInfo@@V?$allocator@UForceInfo@@@std@@@std@@IAEPAUForceInfo@@V?$_Vector_const_iterator@V?$_Vector_val@UForceInfo@@V?$allocator@UForceInfo@@@std@@@std@@@1@0PAU2@@Z
_TEXT	SEGMENT
__First$ = 8						; size = 4
__Last$ = 12						; size = 4
__Cat$618293 = 16					; size = 1
__Ptr$ = 16						; size = 4
??$_Ucopy@V?$_Vector_const_iterator@V?$_Vector_val@UForceInfo@@V?$allocator@UForceInfo@@@std@@@std@@@std@@@?$vector@UForceInfo@@V?$allocator@UForceInfo@@@std@@@std@@IAEPAUForceInfo@@V?$_Vector_const_iterator@V?$_Vector_val@UForceInfo@@V?$allocator@UForceInfo@@@std@@@std@@@1@0PAU2@@Z PROC ; std::vector<ForceInfo,std::allocator<ForceInfo> >::_Ucopy<std::_Vector_const_iterator<std::_Vector_val<ForceInfo,std::allocator<ForceInfo> > > >, COMDAT
; _this$ = ecx

; 1315 : 		pointer _Ucopy(_Iter _First, _Iter _Last, pointer _Ptr)

  00000	55		 push	 ebp
  00001	8b ec		 mov	 ebp, esp

; 1316 : 		{	// copy initializing [_First, _Last), using allocator
; 1317 : 		return (_Uninitialized_copy(_First, _Last,
; 1318 : 			_Ptr, this->_Alval));

  00003	ff 75 10	 push	 DWORD PTR __Cat$618293[ebp]
  00006	83 c1 0c	 add	 ecx, 12			; 0000000cH
  00009	51		 push	 ecx
  0000a	ff 75 10	 push	 DWORD PTR __Ptr$[ebp]
  0000d	ff 75 0c	 push	 DWORD PTR __Last$[ebp]
  00010	ff 75 08	 push	 DWORD PTR __First$[ebp]
  00013	e8 00 00 00 00	 call	 ??$_Uninit_copy@V?$_Vector_const_iterator@V?$_Vector_val@UForceInfo@@V?$allocator@UForceInfo@@@std@@@std@@@std@@PAUForceInfo@@V?$allocator@UForceInfo@@@2@@std@@YAPAUForceInfo@@V?$_Vector_const_iterator@V?$_Vector_val@UForceInfo@@V?$allocator@UForceInfo@@@std@@@std@@@0@0PAU1@AAV?$allocator@UForceInfo@@@0@U_Nonscalar_ptr_iterator_tag@0@@Z ; std::_Uninit_copy<std::_Vector_const_iterator<std::_Vector_val<ForceInfo,std::allocator<ForceInfo> > >,ForceInfo *,std::allocator<ForceInfo> >
  00018	83 c4 14	 add	 esp, 20			; 00000014H

; 1319 : 		}

  0001b	5d		 pop	 ebp
  0001c	c2 0c 00	 ret	 12			; 0000000cH
??$_Ucopy@V?$_Vector_const_iterator@V?$_Vector_val@UForceInfo@@V?$allocator@UForceInfo@@@std@@@std@@@std@@@?$vector@UForceInfo@@V?$allocator@UForceInfo@@@std@@@std@@IAEPAUForceInfo@@V?$_Vector_const_iterator@V?$_Vector_val@UForceInfo@@V?$allocator@UForceInfo@@@std@@@std@@@1@0PAU2@@Z ENDP ; std::vector<ForceInfo,std::allocator<ForceInfo> >::_Ucopy<std::_Vector_const_iterator<std::_Vector_val<ForceInfo,std::allocator<ForceInfo> > > >
_TEXT	ENDS
PUBLIC	??$_Uninitialized_copy@V?$_Vector_const_iterator@V?$_Vector_val@UWeaponInfo@@V?$allocator@UWeaponInfo@@@std@@@std@@@std@@PAUWeaponInfo@@V?$allocator@UWeaponInfo@@@2@@std@@YAPAUWeaponInfo@@V?$_Vector_const_iterator@V?$_Vector_val@UWeaponInfo@@V?$allocator@UWeaponInfo@@@std@@@std@@@0@0PAU1@AAV?$allocator@UWeaponInfo@@@0@@Z ; std::_Uninitialized_copy<std::_Vector_const_iterator<std::_Vector_val<WeaponInfo,std::allocator<WeaponInfo> > >,WeaponInfo *,std::allocator<WeaponInfo> >
; Function compile flags: /Ogsp
; File c:\program files (x86)\microsoft visual studio 10.0\vc\include\memory
;	COMDAT ??$_Uninitialized_copy@V?$_Vector_const_iterator@V?$_Vector_val@UWeaponInfo@@V?$allocator@UWeaponInfo@@@std@@@std@@@std@@PAUWeaponInfo@@V?$allocator@UWeaponInfo@@@2@@std@@YAPAUWeaponInfo@@V?$_Vector_const_iterator@V?$_Vector_val@UWeaponInfo@@V?$allocator@UWeaponInfo@@@std@@@std@@@0@0PAU1@AAV?$allocator@UWeaponInfo@@@0@@Z
_TEXT	SEGMENT
__Cat$618302 = -4					; size = 1
__First$ = 8						; size = 4
__Last$ = 12						; size = 4
__Dest$ = 16						; size = 4
__Al$ = 20						; size = 4
??$_Uninitialized_copy@V?$_Vector_const_iterator@V?$_Vector_val@UWeaponInfo@@V?$allocator@UWeaponInfo@@@std@@@std@@@std@@PAUWeaponInfo@@V?$allocator@UWeaponInfo@@@2@@std@@YAPAUWeaponInfo@@V?$_Vector_const_iterator@V?$_Vector_val@UWeaponInfo@@V?$allocator@UWeaponInfo@@@std@@@std@@@0@0PAU1@AAV?$allocator@UWeaponInfo@@@0@@Z PROC ; std::_Uninitialized_copy<std::_Vector_const_iterator<std::_Vector_val<WeaponInfo,std::allocator<WeaponInfo> > >,WeaponInfo *,std::allocator<WeaponInfo> >, COMDAT

; 412  : 	{	// copy [_First, _Last) to raw _Dest, using _Al

  00000	55		 push	 ebp
  00001	8b ec		 mov	 ebp, esp
  00003	51		 push	 ecx

; 413  : 	return (_Uninit_copy(_First, _Last, _Dest, _Al,
; 414  : 		_Ptr_cat(_First, _Dest)));

  00004	ff 75 fc	 push	 DWORD PTR __Cat$618302[ebp]
  00007	ff 75 14	 push	 DWORD PTR __Al$[ebp]
  0000a	ff 75 10	 push	 DWORD PTR __Dest$[ebp]
  0000d	ff 75 0c	 push	 DWORD PTR __Last$[ebp]
  00010	ff 75 08	 push	 DWORD PTR __First$[ebp]
  00013	e8 00 00 00 00	 call	 ??$_Uninit_copy@V?$_Vector_const_iterator@V?$_Vector_val@UWeaponInfo@@V?$allocator@UWeaponInfo@@@std@@@std@@@std@@PAUWeaponInfo@@V?$allocator@UWeaponInfo@@@2@@std@@YAPAUWeaponInfo@@V?$_Vector_const_iterator@V?$_Vector_val@UWeaponInfo@@V?$allocator@UWeaponInfo@@@std@@@std@@@0@0PAU1@AAV?$allocator@UWeaponInfo@@@0@U_Nonscalar_ptr_iterator_tag@0@@Z ; std::_Uninit_copy<std::_Vector_const_iterator<std::_Vector_val<WeaponInfo,std::allocator<WeaponInfo> > >,WeaponInfo *,std::allocator<WeaponInfo> >
  00018	83 c4 14	 add	 esp, 20			; 00000014H

; 415  : 	}

  0001b	c9		 leave
  0001c	c3		 ret	 0
??$_Uninitialized_copy@V?$_Vector_const_iterator@V?$_Vector_val@UWeaponInfo@@V?$allocator@UWeaponInfo@@@std@@@std@@@std@@PAUWeaponInfo@@V?$allocator@UWeaponInfo@@@2@@std@@YAPAUWeaponInfo@@V?$_Vector_const_iterator@V?$_Vector_val@UWeaponInfo@@V?$allocator@UWeaponInfo@@@std@@@std@@@0@0PAU1@AAV?$allocator@UWeaponInfo@@@0@@Z ENDP ; std::_Uninitialized_copy<std::_Vector_const_iterator<std::_Vector_val<WeaponInfo,std::allocator<WeaponInfo> > >,WeaponInfo *,std::allocator<WeaponInfo> >
_TEXT	ENDS
PUBLIC	?_Destroy@?$vector@UForceInfo@@V?$allocator@UForceInfo@@@std@@@std@@IAEXPAUForceInfo@@0@Z ; std::vector<ForceInfo,std::allocator<ForceInfo> >::_Destroy
; Function compile flags: /Ogsp
; File c:\program files (x86)\microsoft visual studio 10.0\vc\include\vector
;	COMDAT ?_Destroy@?$vector@UForceInfo@@V?$allocator@UForceInfo@@@std@@@std@@IAEXPAUForceInfo@@0@Z
_TEXT	SEGMENT
__First$ = 8						; size = 4
__Last$ = 12						; size = 4
?_Destroy@?$vector@UForceInfo@@V?$allocator@UForceInfo@@@std@@@std@@IAEXPAUForceInfo@@0@Z PROC ; std::vector<ForceInfo,std::allocator<ForceInfo> >::_Destroy, COMDAT
; _this$ = ecx

; 1270 : 		_Destroy_range(_First, _Last, this->_Alval);
; 1271 : 		}

  00000	c2 08 00	 ret	 8
?_Destroy@?$vector@UForceInfo@@V?$allocator@UForceInfo@@@std@@@std@@IAEXPAUForceInfo@@0@Z ENDP ; std::vector<ForceInfo,std::allocator<ForceInfo> >::_Destroy
_TEXT	ENDS
PUBLIC	??$_Destroy_range@V?$allocator@UWeaponInfo@@@std@@@std@@YAXPAUWeaponInfo@@0AAV?$allocator@UWeaponInfo@@@0@@Z ; std::_Destroy_range<std::allocator<WeaponInfo> >
; Function compile flags: /Ogsp
; File c:\program files (x86)\microsoft visual studio 10.0\vc\include\xmemory
;	COMDAT ??$_Destroy_range@V?$allocator@UWeaponInfo@@@std@@@std@@YAXPAUWeaponInfo@@0AAV?$allocator@UWeaponInfo@@@0@@Z
_TEXT	SEGMENT
__First$ = 8						; size = 4
__Last$ = 12						; size = 4
__Al$ = 16						; size = 4
??$_Destroy_range@V?$allocator@UWeaponInfo@@@std@@@std@@YAXPAUWeaponInfo@@0AAV?$allocator@UWeaponInfo@@@0@@Z PROC ; std::_Destroy_range<std::allocator<WeaponInfo> >, COMDAT

; 87   : 	{	// destroy [_First, _Last)

  00000	55		 push	 ebp
  00001	8b ec		 mov	 ebp, esp
  00003	56		 push	 esi

; 88   : 	_Destroy_range(_First, _Last, _Al, _Ptr_cat(_First, _Last));

  00004	8b 75 08	 mov	 esi, DWORD PTR __First$[ebp]
  00007	eb 0c		 jmp	 SHORT $LN24@Destroy_ra@2
$LL7@Destroy_ra@2:
  00009	8d 4e 08	 lea	 ecx, DWORD PTR [esi+8]
  0000c	ff 15 00 00 00
	00		 call	 DWORD PTR __imp_??1ioHashString@@QAE@XZ
  00012	83 c6 28	 add	 esi, 40			; 00000028H
$LN24@Destroy_ra@2:
  00015	3b 75 0c	 cmp	 esi, DWORD PTR __Last$[ebp]
  00018	75 ef		 jne	 SHORT $LL7@Destroy_ra@2
  0001a	5e		 pop	 esi

; 89   : 	}

  0001b	5d		 pop	 ebp
  0001c	c3		 ret	 0
??$_Destroy_range@V?$allocator@UWeaponInfo@@@std@@@std@@YAXPAUWeaponInfo@@0AAV?$allocator@UWeaponInfo@@@0@@Z ENDP ; std::_Destroy_range<std::allocator<WeaponInfo> >
_TEXT	ENDS
PUBLIC	?erase@?$vector@UForceInfo@@V?$allocator@UForceInfo@@@std@@@std@@QAE?AV?$_Vector_iterator@V?$_Vector_val@UForceInfo@@V?$allocator@UForceInfo@@@std@@@std@@@2@V?$_Vector_const_iterator@V?$_Vector_val@UForceInfo@@V?$allocator@UForceInfo@@@std@@@std@@@2@0@Z ; std::vector<ForceInfo,std::allocator<ForceInfo> >::erase
; Function compile flags: /Ogsp
; File c:\program files (x86)\microsoft visual studio 10.0\vc\include\vector
;	COMDAT ?erase@?$vector@UForceInfo@@V?$allocator@UForceInfo@@@std@@@std@@QAE?AV?$_Vector_iterator@V?$_Vector_val@UForceInfo@@V?$allocator@UForceInfo@@@std@@@std@@@2@V?$_Vector_const_iterator@V?$_Vector_val@UForceInfo@@V?$allocator@UForceInfo@@@std@@@std@@@2@0@Z
_TEXT	SEGMENT
___$ReturnUdt$ = 8					; size = 4
__First_arg$ = 12					; size = 4
__Cat$618498 = 16					; size = 1
__Last_arg$ = 16					; size = 4
?erase@?$vector@UForceInfo@@V?$allocator@UForceInfo@@@std@@@std@@QAE?AV?$_Vector_iterator@V?$_Vector_val@UForceInfo@@V?$allocator@UForceInfo@@@std@@@std@@@2@V?$_Vector_const_iterator@V?$_Vector_val@UForceInfo@@V?$allocator@UForceInfo@@@std@@@std@@@2@0@Z PROC ; std::vector<ForceInfo,std::allocator<ForceInfo> >::erase, COMDAT
; _this$ = ecx

; 1190 : 		{	// erase [_First, _Last)

  00000	55		 push	 ebp
  00001	8b ec		 mov	 ebp, esp

; 1191 : 		iterator _First = _Make_iter(_First_arg);

  00003	8b 45 0c	 mov	 eax, DWORD PTR __First_arg$[ebp]
  00006	56		 push	 esi
  00007	57		 push	 edi
  00008	8b 7d 08	 mov	 edi, DWORD PTR ___$ReturnUdt$[ebp]
  0000b	8b f1		 mov	 esi, ecx
  0000d	89 07		 mov	 DWORD PTR [edi], eax

; 1192 : 		iterator _Last = _Make_iter(_Last_arg);
; 1193 : 
; 1194 : 		if (_First != _Last)

  0000f	3b 45 10	 cmp	 eax, DWORD PTR __Last_arg$[ebp]
  00012	74 16		 je	 SHORT $LN1@erase

; 1195 : 			{	// worth doing, copy down over hole
; 1196 :  #if _ITERATOR_DEBUG_LEVEL == 2
; 1197 : 			if (_Last < _First || _VICONT(_First) != this
; 1198 : 				|| _VIPTR(_First) < this->_Myfirst
; 1199 : 				|| this->_Mylast < _VIPTR(_Last))
; 1200 : 				_DEBUG_ERROR("vector erase iterator outside range");
; 1201 : 			pointer _Ptr = _Move(_VIPTR(_Last), this->_Mylast,
; 1202 : 				_VIPTR(_First));
; 1203 : 			_Orphan_range(_VIPTR(_First), this->_Mylast);
; 1204 : 
; 1205 :  #else /* _ITERATOR_DEBUG_LEVEL == 2 */
; 1206 : 			pointer _Ptr = _Move(_VIPTR(_Last), this->_Mylast,
; 1207 : 				_VIPTR(_First));

  00014	ff 75 10	 push	 DWORD PTR __Cat$618498[ebp]
  00017	8b 4e 04	 mov	 ecx, DWORD PTR [esi+4]
  0001a	50		 push	 eax
  0001b	51		 push	 ecx
  0001c	ff 75 10	 push	 DWORD PTR __Last_arg$[ebp]
  0001f	e8 00 00 00 00	 call	 ??$_Move@PAUForceInfo@@PAU1@@std@@YAPAUForceInfo@@PAU1@00U_Nonscalar_ptr_iterator_tag@0@@Z ; std::_Move<ForceInfo *,ForceInfo *>
  00024	83 c4 10	 add	 esp, 16			; 00000010H

; 1208 :  #endif /* _ITERATOR_DEBUG_LEVEL == 2 */
; 1209 : 
; 1210 : 			_Destroy(_Ptr, this->_Mylast);
; 1211 : 			this->_Mylast = _Ptr;

  00027	89 46 04	 mov	 DWORD PTR [esi+4], eax
$LN1@erase:

; 1212 : 			}
; 1213 : 		return (_First);

  0002a	8b c7		 mov	 eax, edi
  0002c	5f		 pop	 edi
  0002d	5e		 pop	 esi

; 1214 : 		}

  0002e	5d		 pop	 ebp
  0002f	c2 0c 00	 ret	 12			; 0000000cH
?erase@?$vector@UForceInfo@@V?$allocator@UForceInfo@@@std@@@std@@QAE?AV?$_Vector_iterator@V?$_Vector_val@UForceInfo@@V?$allocator@UForceInfo@@@std@@@std@@@2@V?$_Vector_const_iterator@V?$_Vector_val@UForceInfo@@V?$allocator@UForceInfo@@@std@@@std@@@2@0@Z ENDP ; std::vector<ForceInfo,std::allocator<ForceInfo> >::erase
_TEXT	ENDS
PUBLIC	??$_Ucopy@PAUWeaponInfo@@@?$vector@UWeaponInfo@@V?$allocator@UWeaponInfo@@@std@@@std@@IAEPAUWeaponInfo@@PAU2@00@Z ; std::vector<WeaponInfo,std::allocator<WeaponInfo> >::_Ucopy<WeaponInfo *>
; Function compile flags: /Ogsp
;	COMDAT ??$_Ucopy@PAUWeaponInfo@@@?$vector@UWeaponInfo@@V?$allocator@UWeaponInfo@@@std@@@std@@IAEPAUWeaponInfo@@PAU2@00@Z
_TEXT	SEGMENT
__First$ = 8						; size = 4
__Last$ = 12						; size = 4
__Cat$618592 = 16					; size = 1
__Ptr$ = 16						; size = 4
??$_Ucopy@PAUWeaponInfo@@@?$vector@UWeaponInfo@@V?$allocator@UWeaponInfo@@@std@@@std@@IAEPAUWeaponInfo@@PAU2@00@Z PROC ; std::vector<WeaponInfo,std::allocator<WeaponInfo> >::_Ucopy<WeaponInfo *>, COMDAT
; _this$ = ecx

; 1315 : 		pointer _Ucopy(_Iter _First, _Iter _Last, pointer _Ptr)

  00000	55		 push	 ebp
  00001	8b ec		 mov	 ebp, esp

; 1316 : 		{	// copy initializing [_First, _Last), using allocator
; 1317 : 		return (_Uninitialized_copy(_First, _Last,
; 1318 : 			_Ptr, this->_Alval));

  00003	ff 75 10	 push	 DWORD PTR __Cat$618592[ebp]
  00006	83 c1 0c	 add	 ecx, 12			; 0000000cH
  00009	51		 push	 ecx
  0000a	ff 75 10	 push	 DWORD PTR __Ptr$[ebp]
  0000d	ff 75 0c	 push	 DWORD PTR __Last$[ebp]
  00010	ff 75 08	 push	 DWORD PTR __First$[ebp]
  00013	e8 00 00 00 00	 call	 ??$_Uninit_copy@PAUWeaponInfo@@PAU1@V?$allocator@UWeaponInfo@@@std@@@std@@YAPAUWeaponInfo@@PAU1@00AAV?$allocator@UWeaponInfo@@@0@U_Nonscalar_ptr_iterator_tag@0@@Z ; std::_Uninit_copy<WeaponInfo *,WeaponInfo *,std::allocator<WeaponInfo> >
  00018	83 c4 14	 add	 esp, 20			; 00000014H

; 1319 : 		}

  0001b	5d		 pop	 ebp
  0001c	c2 0c 00	 ret	 12			; 0000000cH
??$_Ucopy@PAUWeaponInfo@@@?$vector@UWeaponInfo@@V?$allocator@UWeaponInfo@@@std@@@std@@IAEPAUWeaponInfo@@PAU2@00@Z ENDP ; std::vector<WeaponInfo,std::allocator<WeaponInfo> >::_Ucopy<WeaponInfo *>
_TEXT	ENDS
PUBLIC	??$_Ucopy@V?$_Vector_const_iterator@V?$_Vector_val@UWeaponInfo@@V?$allocator@UWeaponInfo@@@std@@@std@@@std@@@?$vector@UWeaponInfo@@V?$allocator@UWeaponInfo@@@std@@@std@@IAEPAUWeaponInfo@@V?$_Vector_const_iterator@V?$_Vector_val@UWeaponInfo@@V?$allocator@UWeaponInfo@@@std@@@std@@@1@0PAU2@@Z ; std::vector<WeaponInfo,std::allocator<WeaponInfo> >::_Ucopy<std::_Vector_const_iterator<std::_Vector_val<WeaponInfo,std::allocator<WeaponInfo> > > >
; Function compile flags: /Ogsp
;	COMDAT ??$_Ucopy@V?$_Vector_const_iterator@V?$_Vector_val@UWeaponInfo@@V?$allocator@UWeaponInfo@@@std@@@std@@@std@@@?$vector@UWeaponInfo@@V?$allocator@UWeaponInfo@@@std@@@std@@IAEPAUWeaponInfo@@V?$_Vector_const_iterator@V?$_Vector_val@UWeaponInfo@@V?$allocator@UWeaponInfo@@@std@@@std@@@1@0PAU2@@Z
_TEXT	SEGMENT
__First$ = 8						; size = 4
__Last$ = 12						; size = 4
__Cat$618606 = 16					; size = 1
__Ptr$ = 16						; size = 4
??$_Ucopy@V?$_Vector_const_iterator@V?$_Vector_val@UWeaponInfo@@V?$allocator@UWeaponInfo@@@std@@@std@@@std@@@?$vector@UWeaponInfo@@V?$allocator@UWeaponInfo@@@std@@@std@@IAEPAUWeaponInfo@@V?$_Vector_const_iterator@V?$_Vector_val@UWeaponInfo@@V?$allocator@UWeaponInfo@@@std@@@std@@@1@0PAU2@@Z PROC ; std::vector<WeaponInfo,std::allocator<WeaponInfo> >::_Ucopy<std::_Vector_const_iterator<std::_Vector_val<WeaponInfo,std::allocator<WeaponInfo> > > >, COMDAT
; _this$ = ecx

; 1315 : 		pointer _Ucopy(_Iter _First, _Iter _Last, pointer _Ptr)

  00000	55		 push	 ebp
  00001	8b ec		 mov	 ebp, esp

; 1316 : 		{	// copy initializing [_First, _Last), using allocator
; 1317 : 		return (_Uninitialized_copy(_First, _Last,
; 1318 : 			_Ptr, this->_Alval));

  00003	ff 75 10	 push	 DWORD PTR __Cat$618606[ebp]
  00006	83 c1 0c	 add	 ecx, 12			; 0000000cH
  00009	51		 push	 ecx
  0000a	ff 75 10	 push	 DWORD PTR __Ptr$[ebp]
  0000d	ff 75 0c	 push	 DWORD PTR __Last$[ebp]
  00010	ff 75 08	 push	 DWORD PTR __First$[ebp]
  00013	e8 00 00 00 00	 call	 ??$_Uninit_copy@V?$_Vector_const_iterator@V?$_Vector_val@UWeaponInfo@@V?$allocator@UWeaponInfo@@@std@@@std@@@std@@PAUWeaponInfo@@V?$allocator@UWeaponInfo@@@2@@std@@YAPAUWeaponInfo@@V?$_Vector_const_iterator@V?$_Vector_val@UWeaponInfo@@V?$allocator@UWeaponInfo@@@std@@@std@@@0@0PAU1@AAV?$allocator@UWeaponInfo@@@0@U_Nonscalar_ptr_iterator_tag@0@@Z ; std::_Uninit_copy<std::_Vector_const_iterator<std::_Vector_val<WeaponInfo,std::allocator<WeaponInfo> > >,WeaponInfo *,std::allocator<WeaponInfo> >
  00018	83 c4 14	 add	 esp, 20			; 00000014H

; 1319 : 		}

  0001b	5d		 pop	 ebp
  0001c	c2 0c 00	 ret	 12			; 0000000cH
??$_Ucopy@V?$_Vector_const_iterator@V?$_Vector_val@UWeaponInfo@@V?$allocator@UWeaponInfo@@@std@@@std@@@std@@@?$vector@UWeaponInfo@@V?$allocator@UWeaponInfo@@@std@@@std@@IAEPAUWeaponInfo@@V?$_Vector_const_iterator@V?$_Vector_val@UWeaponInfo@@V?$allocator@UWeaponInfo@@@std@@@std@@@1@0PAU2@@Z ENDP ; std::vector<WeaponInfo,std::allocator<WeaponInfo> >::_Ucopy<std::_Vector_const_iterator<std::_Vector_val<WeaponInfo,std::allocator<WeaponInfo> > > >
_TEXT	ENDS
PUBLIC	?_Tidy@?$vector@UForceInfo@@V?$allocator@UForceInfo@@@std@@@std@@IAEXXZ ; std::vector<ForceInfo,std::allocator<ForceInfo> >::_Tidy
EXTRN	__imp_?_Orphan_all@_Container_base0@std@@QAEXXZ:PROC
; Function compile flags: /Ogsp
;	COMDAT ?_Tidy@?$vector@UForceInfo@@V?$allocator@UForceInfo@@@std@@@std@@IAEXXZ
_TEXT	SEGMENT
?_Tidy@?$vector@UForceInfo@@V?$allocator@UForceInfo@@@std@@@std@@IAEXXZ PROC ; std::vector<ForceInfo,std::allocator<ForceInfo> >::_Tidy, COMDAT
; _this$ = ecx

; 1301 : 		{	// free all storage

  00000	56		 push	 esi
  00001	8b f1		 mov	 esi, ecx

; 1302 : 		if (this->_Myfirst != 0)

  00003	83 3e 00	 cmp	 DWORD PTR [esi], 0
  00006	74 0e		 je	 SHORT $LN21@Tidy

; 1303 : 			{	// something to free, destroy and deallocate it
; 1304 : 			this->_Orphan_all();

  00008	ff 15 00 00 00
	00		 call	 DWORD PTR __imp_?_Orphan_all@_Container_base0@std@@QAEXXZ

; 1305 : 			_Destroy(this->_Myfirst, this->_Mylast);
; 1306 : 			this->_Alval.deallocate(this->_Myfirst,
; 1307 : 				this->_Myend - this->_Myfirst);

  0000e	ff 36		 push	 DWORD PTR [esi]
  00010	e8 00 00 00 00	 call	 ??3@YAXPAX@Z		; operator delete
  00015	59		 pop	 ecx
$LN21@Tidy:

; 1308 : 			}
; 1309 : 		this->_Myfirst = 0;

  00016	83 26 00	 and	 DWORD PTR [esi], 0

; 1310 : 		this->_Mylast = 0;

  00019	83 66 04 00	 and	 DWORD PTR [esi+4], 0

; 1311 : 		this->_Myend = 0;

  0001d	83 66 08 00	 and	 DWORD PTR [esi+8], 0
  00021	5e		 pop	 esi

; 1312 : 		}

  00022	c3		 ret	 0
?_Tidy@?$vector@UForceInfo@@V?$allocator@UForceInfo@@@std@@@std@@IAEXXZ ENDP ; std::vector<ForceInfo,std::allocator<ForceInfo> >::_Tidy
_TEXT	ENDS
PUBLIC	?_Destroy@?$vector@UWeaponInfo@@V?$allocator@UWeaponInfo@@@std@@@std@@IAEXPAUWeaponInfo@@0@Z ; std::vector<WeaponInfo,std::allocator<WeaponInfo> >::_Destroy
; Function compile flags: /Ogsp
;	COMDAT ?_Destroy@?$vector@UWeaponInfo@@V?$allocator@UWeaponInfo@@@std@@@std@@IAEXPAUWeaponInfo@@0@Z
_TEXT	SEGMENT
__First$ = 8						; size = 4
__Last$ = 12						; size = 4
?_Destroy@?$vector@UWeaponInfo@@V?$allocator@UWeaponInfo@@@std@@@std@@IAEXPAUWeaponInfo@@0@Z PROC ; std::vector<WeaponInfo,std::allocator<WeaponInfo> >::_Destroy, COMDAT
; _this$ = ecx

; 1269 : 		{	// destroy [_First, _Last) using allocator

  00000	55		 push	 ebp
  00001	8b ec		 mov	 ebp, esp

; 1270 : 		_Destroy_range(_First, _Last, this->_Alval);

  00003	83 c1 0c	 add	 ecx, 12			; 0000000cH
  00006	51		 push	 ecx
  00007	ff 75 0c	 push	 DWORD PTR __Last$[ebp]
  0000a	ff 75 08	 push	 DWORD PTR __First$[ebp]
  0000d	e8 00 00 00 00	 call	 ??$_Destroy_range@V?$allocator@UWeaponInfo@@@std@@@std@@YAXPAUWeaponInfo@@0AAV?$allocator@UWeaponInfo@@@0@@Z ; std::_Destroy_range<std::allocator<WeaponInfo> >
  00012	83 c4 0c	 add	 esp, 12			; 0000000cH

; 1271 : 		}

  00015	5d		 pop	 ebp
  00016	c2 08 00	 ret	 8
?_Destroy@?$vector@UWeaponInfo@@V?$allocator@UWeaponInfo@@@std@@@std@@IAEXPAUWeaponInfo@@0@Z ENDP ; std::vector<WeaponInfo,std::allocator<WeaponInfo> >::_Destroy
_TEXT	ENDS
PUBLIC	?clear@?$vector@UForceInfo@@V?$allocator@UForceInfo@@@std@@@std@@QAEXXZ ; std::vector<ForceInfo,std::allocator<ForceInfo> >::clear
; Function compile flags: /Ogsp
;	COMDAT ?clear@?$vector@UForceInfo@@V?$allocator@UForceInfo@@@std@@@std@@QAEXXZ
_TEXT	SEGMENT
$T618699 = -4						; size = 4
?clear@?$vector@UForceInfo@@V?$allocator@UForceInfo@@@std@@@std@@QAEXXZ PROC ; std::vector<ForceInfo,std::allocator<ForceInfo> >::clear, COMDAT
; _this$ = ecx

; 1217 : 		{	// erase all

  00000	55		 push	 ebp
  00001	8b ec		 mov	 ebp, esp
  00003	51		 push	 ecx

; 1218 : 		erase(begin(), end());

  00004	8b 41 04	 mov	 eax, DWORD PTR [ecx+4]
  00007	8b 11		 mov	 edx, DWORD PTR [ecx]
  00009	50		 push	 eax
  0000a	52		 push	 edx
  0000b	8d 45 fc	 lea	 eax, DWORD PTR $T618699[ebp]
  0000e	50		 push	 eax
  0000f	e8 00 00 00 00	 call	 ?erase@?$vector@UForceInfo@@V?$allocator@UForceInfo@@@std@@@std@@QAE?AV?$_Vector_iterator@V?$_Vector_val@UForceInfo@@V?$allocator@UForceInfo@@@std@@@std@@@2@V?$_Vector_const_iterator@V?$_Vector_val@UForceInfo@@V?$allocator@UForceInfo@@@std@@@std@@@2@0@Z ; std::vector<ForceInfo,std::allocator<ForceInfo> >::erase

; 1219 : 		}

  00014	c9		 leave
  00015	c3		 ret	 0
?clear@?$vector@UForceInfo@@V?$allocator@UForceInfo@@@std@@@std@@QAEXXZ ENDP ; std::vector<ForceInfo,std::allocator<ForceInfo> >::clear
_TEXT	ENDS
PUBLIC	?erase@?$vector@UWeaponInfo@@V?$allocator@UWeaponInfo@@@std@@@std@@QAE?AV?$_Vector_iterator@V?$_Vector_val@UWeaponInfo@@V?$allocator@UWeaponInfo@@@std@@@std@@@2@V?$_Vector_const_iterator@V?$_Vector_val@UWeaponInfo@@V?$allocator@UWeaponInfo@@@std@@@std@@@2@0@Z ; std::vector<WeaponInfo,std::allocator<WeaponInfo> >::erase
; Function compile flags: /Ogsp
;	COMDAT ?erase@?$vector@UWeaponInfo@@V?$allocator@UWeaponInfo@@@std@@@std@@QAE?AV?$_Vector_iterator@V?$_Vector_val@UWeaponInfo@@V?$allocator@UWeaponInfo@@@std@@@std@@@2@V?$_Vector_const_iterator@V?$_Vector_val@UWeaponInfo@@V?$allocator@UWeaponInfo@@@std@@@std@@@2@0@Z
_TEXT	SEGMENT
___$ReturnUdt$ = 8					; size = 4
__First_arg$ = 12					; size = 4
__Cat$618825 = 16					; size = 1
__Last_arg$ = 16					; size = 4
?erase@?$vector@UWeaponInfo@@V?$allocator@UWeaponInfo@@@std@@@std@@QAE?AV?$_Vector_iterator@V?$_Vector_val@UWeaponInfo@@V?$allocator@UWeaponInfo@@@std@@@std@@@2@V?$_Vector_const_iterator@V?$_Vector_val@UWeaponInfo@@V?$allocator@UWeaponInfo@@@std@@@std@@@2@0@Z PROC ; std::vector<WeaponInfo,std::allocator<WeaponInfo> >::erase, COMDAT
; _this$ = ecx

; 1190 : 		{	// erase [_First, _Last)

  00000	55		 push	 ebp
  00001	8b ec		 mov	 ebp, esp

; 1191 : 		iterator _First = _Make_iter(_First_arg);

  00003	8b 45 0c	 mov	 eax, DWORD PTR __First_arg$[ebp]
  00006	53		 push	 ebx
  00007	8b 5d 08	 mov	 ebx, DWORD PTR ___$ReturnUdt$[ebp]
  0000a	56		 push	 esi
  0000b	8b f1		 mov	 esi, ecx
  0000d	89 03		 mov	 DWORD PTR [ebx], eax

; 1192 : 		iterator _Last = _Make_iter(_Last_arg);
; 1193 : 
; 1194 : 		if (_First != _Last)

  0000f	3b 45 10	 cmp	 eax, DWORD PTR __Last_arg$[ebp]
  00012	74 27		 je	 SHORT $LN1@erase@2

; 1195 : 			{	// worth doing, copy down over hole
; 1196 :  #if _ITERATOR_DEBUG_LEVEL == 2
; 1197 : 			if (_Last < _First || _VICONT(_First) != this
; 1198 : 				|| _VIPTR(_First) < this->_Myfirst
; 1199 : 				|| this->_Mylast < _VIPTR(_Last))
; 1200 : 				_DEBUG_ERROR("vector erase iterator outside range");
; 1201 : 			pointer _Ptr = _Move(_VIPTR(_Last), this->_Mylast,
; 1202 : 				_VIPTR(_First));
; 1203 : 			_Orphan_range(_VIPTR(_First), this->_Mylast);
; 1204 : 
; 1205 :  #else /* _ITERATOR_DEBUG_LEVEL == 2 */
; 1206 : 			pointer _Ptr = _Move(_VIPTR(_Last), this->_Mylast,
; 1207 : 				_VIPTR(_First));

  00014	8b 4e 04	 mov	 ecx, DWORD PTR [esi+4]
  00017	57		 push	 edi
  00018	ff 75 10	 push	 DWORD PTR __Cat$618825[ebp]
  0001b	50		 push	 eax
  0001c	51		 push	 ecx
  0001d	ff 75 10	 push	 DWORD PTR __Last_arg$[ebp]
  00020	e8 00 00 00 00	 call	 ??$_Move@PAUWeaponInfo@@PAU1@@std@@YAPAUWeaponInfo@@PAU1@00U_Nonscalar_ptr_iterator_tag@0@@Z ; std::_Move<WeaponInfo *,WeaponInfo *>
  00025	8b f8		 mov	 edi, eax

; 1208 :  #endif /* _ITERATOR_DEBUG_LEVEL == 2 */
; 1209 : 
; 1210 : 			_Destroy(_Ptr, this->_Mylast);

  00027	8d 46 0c	 lea	 eax, DWORD PTR [esi+12]
  0002a	50		 push	 eax
  0002b	ff 76 04	 push	 DWORD PTR [esi+4]
  0002e	57		 push	 edi
  0002f	e8 00 00 00 00	 call	 ??$_Destroy_range@V?$allocator@UWeaponInfo@@@std@@@std@@YAXPAUWeaponInfo@@0AAV?$allocator@UWeaponInfo@@@0@@Z ; std::_Destroy_range<std::allocator<WeaponInfo> >
  00034	83 c4 1c	 add	 esp, 28			; 0000001cH

; 1211 : 			this->_Mylast = _Ptr;

  00037	89 7e 04	 mov	 DWORD PTR [esi+4], edi
  0003a	5f		 pop	 edi
$LN1@erase@2:

; 1212 : 			}
; 1213 : 		return (_First);

  0003b	5e		 pop	 esi
  0003c	8b c3		 mov	 eax, ebx
  0003e	5b		 pop	 ebx

; 1214 : 		}

  0003f	5d		 pop	 ebp
  00040	c2 0c 00	 ret	 12			; 0000000cH
?erase@?$vector@UWeaponInfo@@V?$allocator@UWeaponInfo@@@std@@@std@@QAE?AV?$_Vector_iterator@V?$_Vector_val@UWeaponInfo@@V?$allocator@UWeaponInfo@@@std@@@std@@@2@V?$_Vector_const_iterator@V?$_Vector_val@UWeaponInfo@@V?$allocator@UWeaponInfo@@@std@@@std@@@2@0@Z ENDP ; std::vector<WeaponInfo,std::allocator<WeaponInfo> >::erase
_TEXT	ENDS
PUBLIC	??0?$vector@UForceInfo@@V?$allocator@UForceInfo@@@std@@@std@@QAE@ABV01@@Z ; std::vector<ForceInfo,std::allocator<ForceInfo> >::vector<ForceInfo,std::allocator<ForceInfo> >
;	COMDAT xdata$x
; File c:\program files (x86)\microsoft visual studio 10.0\vc\include\xutility
xdata$x	SEGMENT
__catchsym$??0?$vector@UForceInfo@@V?$allocator@UForceInfo@@@std@@@std@@QAE@ABV01@@Z$2 DD 040H
	DD	00H
	DD	00H
	DD	FLAT:__catch$??0?$vector@UForceInfo@@V?$allocator@UForceInfo@@@std@@@std@@QAE@ABV01@@Z$0
__unwindtable$??0?$vector@UForceInfo@@V?$allocator@UForceInfo@@@std@@@std@@QAE@ABV01@@Z DD 0ffffffffH
	DD	00H
	DD	0ffffffffH
	DD	00H
__tryblocktable$??0?$vector@UForceInfo@@V?$allocator@UForceInfo@@@std@@@std@@QAE@ABV01@@Z DD 00H
	DD	00H
	DD	01H
	DD	01H
	DD	FLAT:__catchsym$??0?$vector@UForceInfo@@V?$allocator@UForceInfo@@@std@@@std@@QAE@ABV01@@Z$2
__ehfuncinfo$??0?$vector@UForceInfo@@V?$allocator@UForceInfo@@@std@@@std@@QAE@ABV01@@Z DD 019930522H
	DD	02H
	DD	FLAT:__unwindtable$??0?$vector@UForceInfo@@V?$allocator@UForceInfo@@@std@@@std@@QAE@ABV01@@Z
	DD	01H
	DD	FLAT:__tryblocktable$??0?$vector@UForceInfo@@V?$allocator@UForceInfo@@@std@@@std@@QAE@ABV01@@Z
	DD	2 DUP(00H)
	DD	00H
	DD	01H
; Function compile flags: /Ogsp
; File c:\program files (x86)\microsoft visual studio 10.0\vc\include\vector
xdata$x	ENDS
;	COMDAT ??0?$vector@UForceInfo@@V?$allocator@UForceInfo@@@std@@@std@@QAE@ABV01@@Z
_TEXT	SEGMENT
_this$ = -20						; size = 4
__$EHRec$ = -16						; size = 16
__Cat$618912 = 8					; size = 1
__Right$ = 8						; size = 4
??0?$vector@UForceInfo@@V?$allocator@UForceInfo@@@std@@@std@@QAE@ABV01@@Z PROC ; std::vector<ForceInfo,std::allocator<ForceInfo> >::vector<ForceInfo,std::allocator<ForceInfo> >, COMDAT
; _this$ = ecx

; 535  : 		{	// construct by copying _Right

  00000	6a 08		 push	 8
  00002	b8 00 00 00 00	 mov	 eax, __ehhandler$??0?$vector@UForceInfo@@V?$allocator@UForceInfo@@@std@@@std@@QAE@ABV01@@Z
  00007	e8 00 00 00 00	 call	 __EH_prolog3_catch
  0000c	8b f1		 mov	 esi, ecx
  0000e	89 75 ec	 mov	 DWORD PTR _this$[ebp], esi

; 536  : 		if (_Buy(_Right.size()))

  00011	8b 7d 08	 mov	 edi, DWORD PTR __Right$[ebp]
  00014	33 db		 xor	 ebx, ebx
  00016	89 1e		 mov	 DWORD PTR [esi], ebx
  00018	89 5e 04	 mov	 DWORD PTR [esi+4], ebx
  0001b	89 5e 08	 mov	 DWORD PTR [esi+8], ebx
  0001e	8b 47 04	 mov	 eax, DWORD PTR [edi+4]
  00021	2b 07		 sub	 eax, DWORD PTR [edi]
  00023	6a 0c		 push	 12			; 0000000cH
  00025	59		 pop	 ecx
  00026	99		 cdq
  00027	f7 f9		 idiv	 ecx
  00029	8b ce		 mov	 ecx, esi
  0002b	50		 push	 eax
  0002c	e8 00 00 00 00	 call	 ?_Buy@?$vector@UForceInfo@@V?$allocator@UForceInfo@@@std@@@std@@IAE_NI@Z ; std::vector<ForceInfo,std::allocator<ForceInfo> >::_Buy
  00031	84 c0		 test	 al, al
  00033	74 1f		 je	 SHORT $LN7@vector

; 537  : 			_TRY_BEGIN
; 538  : 			this->_Mylast = _Ucopy(_Right.begin(), _Right.end(),
; 539  : 				this->_Myfirst);

  00035	ff 75 08	 push	 DWORD PTR __Cat$618912[ebp]
  00038	8b 0e		 mov	 ecx, DWORD PTR [esi]
  0003a	8b 47 04	 mov	 eax, DWORD PTR [edi+4]
  0003d	8b 3f		 mov	 edi, DWORD PTR [edi]
  0003f	8d 56 0c	 lea	 edx, DWORD PTR [esi+12]
  00042	52		 push	 edx
  00043	51		 push	 ecx
  00044	50		 push	 eax
  00045	57		 push	 edi
  00046	89 5d fc	 mov	 DWORD PTR __$EHRec$[ebp+12], ebx
  00049	e8 00 00 00 00	 call	 ??$_Uninit_copy@V?$_Vector_const_iterator@V?$_Vector_val@UForceInfo@@V?$allocator@UForceInfo@@@std@@@std@@@std@@PAUForceInfo@@V?$allocator@UForceInfo@@@2@@std@@YAPAUForceInfo@@V?$_Vector_const_iterator@V?$_Vector_val@UForceInfo@@V?$allocator@UForceInfo@@@std@@@std@@@0@0PAU1@AAV?$allocator@UForceInfo@@@0@U_Nonscalar_ptr_iterator_tag@0@@Z ; std::_Uninit_copy<std::_Vector_const_iterator<std::_Vector_val<ForceInfo,std::allocator<ForceInfo> > >,ForceInfo *,std::allocator<ForceInfo> >
  0004e	83 c4 14	 add	 esp, 20			; 00000014H
  00051	89 46 04	 mov	 DWORD PTR [esi+4], eax
$LN7@vector:

; 543  : 			_CATCH_END
; 544  : 		}

  00054	8b c6		 mov	 eax, esi
  00056	e8 00 00 00 00	 call	 __EH_epilog3
  0005b	c2 04 00	 ret	 4
__catch$??0?$vector@UForceInfo@@V?$allocator@UForceInfo@@@std@@@std@@QAE@ABV01@@Z$0:

; 540  : 			_CATCH_ALL
; 541  : 			_Tidy();

  0005e	8b 4d ec	 mov	 ecx, DWORD PTR _this$[ebp]
  00061	e8 00 00 00 00	 call	 ?_Tidy@?$vector@UForceInfo@@V?$allocator@UForceInfo@@@std@@@std@@IAEXXZ ; std::vector<ForceInfo,std::allocator<ForceInfo> >::_Tidy

; 542  : 			_RERAISE;

  00066	33 db		 xor	 ebx, ebx
  00068	53		 push	 ebx
  00069	53		 push	 ebx
  0006a	e8 00 00 00 00	 call	 __CxxThrowException@8
$LN38@vector:
$LN37@vector:
  0006f	cc		 int	 3
_TEXT	ENDS
;	COMDAT text$x
text$x	SEGMENT
__ehhandler$??0?$vector@UForceInfo@@V?$allocator@UForceInfo@@@std@@@std@@QAE@ABV01@@Z:
  00000	8b 54 24 08	 mov	 edx, DWORD PTR [esp+8]
  00004	8d 42 0c	 lea	 eax, DWORD PTR [edx+12]
  00007	8b 4a e8	 mov	 ecx, DWORD PTR [edx-24]
  0000a	33 c8		 xor	 ecx, eax
  0000c	e8 00 00 00 00	 call	 @__security_check_cookie@4
  00011	b8 00 00 00 00	 mov	 eax, OFFSET __ehfuncinfo$??0?$vector@UForceInfo@@V?$allocator@UForceInfo@@@std@@@std@@QAE@ABV01@@Z
  00016	e9 00 00 00 00	 jmp	 ___CxxFrameHandler3
text$x	ENDS
??0?$vector@UForceInfo@@V?$allocator@UForceInfo@@@std@@@std@@QAE@ABV01@@Z ENDP ; std::vector<ForceInfo,std::allocator<ForceInfo> >::vector<ForceInfo,std::allocator<ForceInfo> >
PUBLIC	??1?$vector@UForceInfo@@V?$allocator@UForceInfo@@@std@@@std@@QAE@XZ ; std::vector<ForceInfo,std::allocator<ForceInfo> >::~vector<ForceInfo,std::allocator<ForceInfo> >
; Function compile flags: /Ogsp
;	COMDAT ??1?$vector@UForceInfo@@V?$allocator@UForceInfo@@@std@@@std@@QAE@XZ
_TEXT	SEGMENT
??1?$vector@UForceInfo@@V?$allocator@UForceInfo@@@std@@@std@@QAE@XZ PROC ; std::vector<ForceInfo,std::allocator<ForceInfo> >::~vector<ForceInfo,std::allocator<ForceInfo> >, COMDAT
; _this$ = ecx

; 705  : 		_Tidy();

  00000	e9 00 00 00 00	 jmp	 ?_Tidy@?$vector@UForceInfo@@V?$allocator@UForceInfo@@@std@@@std@@IAEXXZ ; std::vector<ForceInfo,std::allocator<ForceInfo> >::_Tidy
??1?$vector@UForceInfo@@V?$allocator@UForceInfo@@@std@@@std@@QAE@XZ ENDP ; std::vector<ForceInfo,std::allocator<ForceInfo> >::~vector<ForceInfo,std::allocator<ForceInfo> >
_TEXT	ENDS
PUBLIC	?_Tidy@?$vector@UWeaponInfo@@V?$allocator@UWeaponInfo@@@std@@@std@@IAEXXZ ; std::vector<WeaponInfo,std::allocator<WeaponInfo> >::_Tidy
; Function compile flags: /Ogsp
;	COMDAT ?_Tidy@?$vector@UWeaponInfo@@V?$allocator@UWeaponInfo@@@std@@@std@@IAEXXZ
_TEXT	SEGMENT
?_Tidy@?$vector@UWeaponInfo@@V?$allocator@UWeaponInfo@@@std@@@std@@IAEXXZ PROC ; std::vector<WeaponInfo,std::allocator<WeaponInfo> >::_Tidy, COMDAT
; _this$ = ecx

; 1301 : 		{	// free all storage

  00000	56		 push	 esi
  00001	8b f1		 mov	 esi, ecx

; 1302 : 		if (this->_Myfirst != 0)

  00003	83 3e 00	 cmp	 DWORD PTR [esi], 0
  00006	74 1e		 je	 SHORT $LN6@Tidy@2

; 1303 : 			{	// something to free, destroy and deallocate it
; 1304 : 			this->_Orphan_all();

  00008	ff 15 00 00 00
	00		 call	 DWORD PTR __imp_?_Orphan_all@_Container_base0@std@@QAEXXZ

; 1305 : 			_Destroy(this->_Myfirst, this->_Mylast);

  0000e	8d 46 0c	 lea	 eax, DWORD PTR [esi+12]
  00011	50		 push	 eax
  00012	ff 76 04	 push	 DWORD PTR [esi+4]
  00015	ff 36		 push	 DWORD PTR [esi]
  00017	e8 00 00 00 00	 call	 ??$_Destroy_range@V?$allocator@UWeaponInfo@@@std@@@std@@YAXPAUWeaponInfo@@0AAV?$allocator@UWeaponInfo@@@0@@Z ; std::_Destroy_range<std::allocator<WeaponInfo> >

; 1306 : 			this->_Alval.deallocate(this->_Myfirst,
; 1307 : 				this->_Myend - this->_Myfirst);

  0001c	ff 36		 push	 DWORD PTR [esi]
  0001e	e8 00 00 00 00	 call	 ??3@YAXPAX@Z		; operator delete
  00023	83 c4 10	 add	 esp, 16			; 00000010H
$LN6@Tidy@2:

; 1308 : 			}
; 1309 : 		this->_Myfirst = 0;

  00026	83 26 00	 and	 DWORD PTR [esi], 0

; 1310 : 		this->_Mylast = 0;

  00029	83 66 04 00	 and	 DWORD PTR [esi+4], 0

; 1311 : 		this->_Myend = 0;

  0002d	83 66 08 00	 and	 DWORD PTR [esi+8], 0
  00031	5e		 pop	 esi

; 1312 : 		}

  00032	c3		 ret	 0
?_Tidy@?$vector@UWeaponInfo@@V?$allocator@UWeaponInfo@@@std@@@std@@IAEXXZ ENDP ; std::vector<WeaponInfo,std::allocator<WeaponInfo> >::_Tidy
_TEXT	ENDS
PUBLIC	??4?$vector@UForceInfo@@V?$allocator@UForceInfo@@@std@@@std@@QAEAAV01@ABV01@@Z ; std::vector<ForceInfo,std::allocator<ForceInfo> >::operator=
; Function compile flags: /Ogsp
;	COMDAT ??4?$vector@UForceInfo@@V?$allocator@UForceInfo@@@std@@@std@@QAEAAV01@ABV01@@Z
_TEXT	SEGMENT
tv551 = 8						; size = 4
__Cat$619273 = 8					; size = 1
__Cat$619170 = 8					; size = 1
__Cat$619148 = 8					; size = 1
__Cat$619050 = 8					; size = 1
$T619015 = 8						; size = 4
__Right$ = 8						; size = 4
??4?$vector@UForceInfo@@V?$allocator@UForceInfo@@@std@@@std@@QAEAAV01@ABV01@@Z PROC ; std::vector<ForceInfo,std::allocator<ForceInfo> >::operator=, COMDAT
; _this$ = ecx

; 709  : 		{	// assign _Right

  00000	55		 push	 ebp
  00001	8b ec		 mov	 ebp, esp
  00003	56		 push	 esi
  00004	57		 push	 edi

; 710  : 		if (this != &_Right)

  00005	8b 7d 08	 mov	 edi, DWORD PTR __Right$[ebp]
  00008	8b f1		 mov	 esi, ecx
  0000a	3b f7		 cmp	 esi, edi
  0000c	0f 84 e2 00 00
	00		 je	 $LN1@operator

; 711  : 			{	// worth doing
; 712  : 			this->_Orphan_all();

  00012	53		 push	 ebx
  00013	ff 15 00 00 00
	00		 call	 DWORD PTR __imp_?_Orphan_all@_Container_base0@std@@QAEXXZ

; 713  : 
; 714  : 			if (_Right.size() == 0)

  00019	8b 5f 04	 mov	 ebx, DWORD PTR [edi+4]
  0001c	8b c3		 mov	 eax, ebx
  0001e	2b 07		 sub	 eax, DWORD PTR [edi]
  00020	6a 0c		 push	 12			; 0000000cH
  00022	99		 cdq
  00023	59		 pop	 ecx
  00024	f7 f9		 idiv	 ecx
  00026	89 45 08	 mov	 DWORD PTR tv551[ebp], eax
  00029	85 c0		 test	 eax, eax

; 715  : 				clear();	// new sequence empty, erase existing sequence

  0002b	8b 46 04	 mov	 eax, DWORD PTR [esi+4]
  0002e	75 14		 jne	 SHORT $LN8@operator
  00030	8b 0e		 mov	 ecx, DWORD PTR [esi]
  00032	50		 push	 eax
  00033	51		 push	 ecx
  00034	8d 45 08	 lea	 eax, DWORD PTR $T619015[ebp]
  00037	50		 push	 eax
  00038	8b ce		 mov	 ecx, esi
  0003a	e8 00 00 00 00	 call	 ?erase@?$vector@UForceInfo@@V?$allocator@UForceInfo@@@std@@@std@@QAE?AV?$_Vector_iterator@V?$_Vector_val@UForceInfo@@V?$allocator@UForceInfo@@@std@@@std@@@2@V?$_Vector_const_iterator@V?$_Vector_val@UForceInfo@@V?$allocator@UForceInfo@@@std@@@std@@@2@0@Z ; std::vector<ForceInfo,std::allocator<ForceInfo> >::erase

; 716  : 			else if (_Right.size() <= size())

  0003f	e9 af 00 00 00	 jmp	 $LN106@operator
$LN8@operator:
  00044	2b 06		 sub	 eax, DWORD PTR [esi]
  00046	6a 0c		 push	 12			; 0000000cH
  00048	99		 cdq
  00049	59		 pop	 ecx
  0004a	f7 f9		 idiv	 ecx
  0004c	8b c8		 mov	 ecx, eax
  0004e	39 4d 08	 cmp	 DWORD PTR tv551[ebp], ecx
  00051	77 22		 ja	 SHORT $LN6@operator

; 717  : 				{	// enough elements, copy new and destroy old
; 718  : 				pointer _Ptr = _STD _Copy_impl(_Right._Myfirst, _Right._Mylast,
; 719  : 					this->_Myfirst);	// copy new

  00053	ff 75 08	 push	 DWORD PTR __Cat$619050[ebp]
  00056	ff 36		 push	 DWORD PTR [esi]
  00058	53		 push	 ebx
  00059	ff 37		 push	 DWORD PTR [edi]
  0005b	e8 00 00 00 00	 call	 ??$_Copy_impl@PAUForceInfo@@PAU1@@std@@YAPAUForceInfo@@PAU1@00U_Nonscalar_ptr_iterator_tag@0@@Z ; std::_Copy_impl<ForceInfo *,ForceInfo *>

; 720  : 				_Destroy(_Ptr, this->_Mylast);	// destroy old
; 721  : 				this->_Mylast = this->_Myfirst + _Right.size();

  00060	8b 47 04	 mov	 eax, DWORD PTR [edi+4]
  00063	2b 07		 sub	 eax, DWORD PTR [edi]
  00065	83 c4 10	 add	 esp, 16			; 00000010H
  00068	99		 cdq
  00069	6a 0c		 push	 12			; 0000000cH
  0006b	59		 pop	 ecx
  0006c	f7 f9		 idiv	 ecx
  0006e	6b c0 0c	 imul	 eax, 12			; 0000000cH
  00071	03 06		 add	 eax, DWORD PTR [esi]

; 722  : 				}
; 723  : 			else if (_Right.size() <= capacity())

  00073	eb 7b		 jmp	 SHORT $LN107@operator
$LN6@operator:
  00075	8b 46 08	 mov	 eax, DWORD PTR [esi+8]
  00078	2b 06		 sub	 eax, DWORD PTR [esi]
  0007a	6a 0c		 push	 12			; 0000000cH
  0007c	99		 cdq
  0007d	5b		 pop	 ebx
  0007e	f7 fb		 idiv	 ebx
  00080	39 45 08	 cmp	 DWORD PTR tv551[ebp], eax
  00083	77 2e		 ja	 SHORT $LN4@operator

; 724  : 				{	// enough room, copy and construct new
; 725  : 				pointer _Ptr = _Right._Myfirst + size();
; 726  : 				_STD _Copy_impl(_Right._Myfirst, _Ptr, this->_Myfirst);

  00085	ff 75 08	 push	 DWORD PTR __Cat$619148[ebp]
  00088	6b c9 0c	 imul	 ecx, 12			; 0000000cH
  0008b	8b 07		 mov	 eax, DWORD PTR [edi]
  0008d	ff 36		 push	 DWORD PTR [esi]
  0008f	8d 1c 08	 lea	 ebx, DWORD PTR [eax+ecx]
  00092	53		 push	 ebx
  00093	50		 push	 eax
  00094	e8 00 00 00 00	 call	 ??$_Copy_impl@PAUForceInfo@@PAU1@@std@@YAPAUForceInfo@@PAU1@00U_Nonscalar_ptr_iterator_tag@0@@Z ; std::_Copy_impl<ForceInfo *,ForceInfo *>

; 727  : 				this->_Mylast = _Ucopy(_Ptr, _Right._Mylast, this->_Mylast);

  00099	ff 75 08	 push	 DWORD PTR __Cat$619170[ebp]
  0009c	8b 46 04	 mov	 eax, DWORD PTR [esi+4]
  0009f	8b 7f 04	 mov	 edi, DWORD PTR [edi+4]
  000a2	8d 4e 0c	 lea	 ecx, DWORD PTR [esi+12]
  000a5	51		 push	 ecx
  000a6	50		 push	 eax
  000a7	57		 push	 edi
  000a8	53		 push	 ebx
  000a9	e8 00 00 00 00	 call	 ??$_Uninit_copy@PAUForceInfo@@PAU1@V?$allocator@UForceInfo@@@std@@@std@@YAPAUForceInfo@@PAU1@00AAV?$allocator@UForceInfo@@@0@U_Nonscalar_ptr_iterator_tag@0@@Z ; std::_Uninit_copy<ForceInfo *,ForceInfo *,std::allocator<ForceInfo> >
  000ae	83 c4 24	 add	 esp, 36			; 00000024H

; 728  : 				}
; 729  : 			else

  000b1	eb 3d		 jmp	 SHORT $LN107@operator
$LN4@operator:

; 730  : 				{	// not enough room, allocate new array and construct new
; 731  : 				if (this->_Myfirst != 0)

  000b3	8b 06		 mov	 eax, DWORD PTR [esi]
  000b5	85 c0		 test	 eax, eax
  000b7	74 07		 je	 SHORT $LN92@operator

; 732  : 					{	// discard old array
; 733  : 					_Destroy(this->_Myfirst, this->_Mylast);
; 734  : 					this->_Alval.deallocate(this->_Myfirst,
; 735  : 						this->_Myend - this->_Myfirst);

  000b9	50		 push	 eax
  000ba	e8 00 00 00 00	 call	 ??3@YAXPAX@Z		; operator delete
  000bf	59		 pop	 ecx
$LN92@operator:

; 736  : 					}
; 737  : 				if (_Buy(_Right.size()))

  000c0	8b 47 04	 mov	 eax, DWORD PTR [edi+4]
  000c3	2b 07		 sub	 eax, DWORD PTR [edi]
  000c5	6a 0c		 push	 12			; 0000000cH
  000c7	59		 pop	 ecx
  000c8	99		 cdq
  000c9	f7 f9		 idiv	 ecx
  000cb	8b ce		 mov	 ecx, esi
  000cd	50		 push	 eax
  000ce	e8 00 00 00 00	 call	 ?_Buy@?$vector@UForceInfo@@V?$allocator@UForceInfo@@@std@@@std@@IAE_NI@Z ; std::vector<ForceInfo,std::allocator<ForceInfo> >::_Buy
  000d3	84 c0		 test	 al, al
  000d5	74 1c		 je	 SHORT $LN106@operator

; 738  : 					this->_Mylast = _Ucopy(_Right._Myfirst, _Right._Mylast,
; 739  : 						this->_Myfirst);

  000d7	ff 75 08	 push	 DWORD PTR __Cat$619273[ebp]
  000da	8b 06		 mov	 eax, DWORD PTR [esi]
  000dc	8b 4f 04	 mov	 ecx, DWORD PTR [edi+4]
  000df	8b 3f		 mov	 edi, DWORD PTR [edi]
  000e1	8d 56 0c	 lea	 edx, DWORD PTR [esi+12]
  000e4	52		 push	 edx
  000e5	50		 push	 eax
  000e6	51		 push	 ecx
  000e7	57		 push	 edi
  000e8	e8 00 00 00 00	 call	 ??$_Uninit_copy@PAUForceInfo@@PAU1@V?$allocator@UForceInfo@@@std@@@std@@YAPAUForceInfo@@PAU1@00AAV?$allocator@UForceInfo@@@0@U_Nonscalar_ptr_iterator_tag@0@@Z ; std::_Uninit_copy<ForceInfo *,ForceInfo *,std::allocator<ForceInfo> >
  000ed	83 c4 14	 add	 esp, 20			; 00000014H
$LN107@operator:
  000f0	89 46 04	 mov	 DWORD PTR [esi+4], eax
$LN106@operator:
  000f3	5b		 pop	 ebx
$LN1@operator:
  000f4	5f		 pop	 edi

; 740  : 				}
; 741  : 			}
; 742  : 		return (*this);

  000f5	8b c6		 mov	 eax, esi
  000f7	5e		 pop	 esi

; 743  : 		}

  000f8	5d		 pop	 ebp
  000f9	c2 04 00	 ret	 4
??4?$vector@UForceInfo@@V?$allocator@UForceInfo@@@std@@@std@@QAEAAV01@ABV01@@Z ENDP ; std::vector<ForceInfo,std::allocator<ForceInfo> >::operator=
_TEXT	ENDS
PUBLIC	?clear@?$vector@UWeaponInfo@@V?$allocator@UWeaponInfo@@@std@@@std@@QAEXXZ ; std::vector<WeaponInfo,std::allocator<WeaponInfo> >::clear
; Function compile flags: /Ogsp
;	COMDAT ?clear@?$vector@UWeaponInfo@@V?$allocator@UWeaponInfo@@@std@@@std@@QAEXXZ
_TEXT	SEGMENT
$T619290 = -4						; size = 4
?clear@?$vector@UWeaponInfo@@V?$allocator@UWeaponInfo@@@std@@@std@@QAEXXZ PROC ; std::vector<WeaponInfo,std::allocator<WeaponInfo> >::clear, COMDAT
; _this$ = ecx

; 1217 : 		{	// erase all

  00000	55		 push	 ebp
  00001	8b ec		 mov	 ebp, esp
  00003	51		 push	 ecx

; 1218 : 		erase(begin(), end());

  00004	8b 41 04	 mov	 eax, DWORD PTR [ecx+4]
  00007	8b 11		 mov	 edx, DWORD PTR [ecx]
  00009	50		 push	 eax
  0000a	52		 push	 edx
  0000b	8d 45 fc	 lea	 eax, DWORD PTR $T619290[ebp]
  0000e	50		 push	 eax
  0000f	e8 00 00 00 00	 call	 ?erase@?$vector@UWeaponInfo@@V?$allocator@UWeaponInfo@@@std@@@std@@QAE?AV?$_Vector_iterator@V?$_Vector_val@UWeaponInfo@@V?$allocator@UWeaponInfo@@@std@@@std@@@2@V?$_Vector_const_iterator@V?$_Vector_val@UWeaponInfo@@V?$allocator@UWeaponInfo@@@std@@@std@@@2@0@Z ; std::vector<WeaponInfo,std::allocator<WeaponInfo> >::erase

; 1219 : 		}

  00014	c9		 leave
  00015	c3		 ret	 0
?clear@?$vector@UWeaponInfo@@V?$allocator@UWeaponInfo@@@std@@@std@@QAEXXZ ENDP ; std::vector<WeaponInfo,std::allocator<WeaponInfo> >::clear
_TEXT	ENDS
PUBLIC	??0?$vector@UWeaponInfo@@V?$allocator@UWeaponInfo@@@std@@@std@@QAE@ABV01@@Z ; std::vector<WeaponInfo,std::allocator<WeaponInfo> >::vector<WeaponInfo,std::allocator<WeaponInfo> >
;	COMDAT xdata$x
; File c:\program files (x86)\microsoft visual studio 10.0\vc\include\xutility
xdata$x	SEGMENT
__catchsym$??0?$vector@UWeaponInfo@@V?$allocator@UWeaponInfo@@@std@@@std@@QAE@ABV01@@Z$2 DD 040H
	DD	00H
	DD	00H
	DD	FLAT:__catch$??0?$vector@UWeaponInfo@@V?$allocator@UWeaponInfo@@@std@@@std@@QAE@ABV01@@Z$0
__unwindtable$??0?$vector@UWeaponInfo@@V?$allocator@UWeaponInfo@@@std@@@std@@QAE@ABV01@@Z DD 0ffffffffH
	DD	00H
	DD	0ffffffffH
	DD	00H
__tryblocktable$??0?$vector@UWeaponInfo@@V?$allocator@UWeaponInfo@@@std@@@std@@QAE@ABV01@@Z DD 00H
	DD	00H
	DD	01H
	DD	01H
	DD	FLAT:__catchsym$??0?$vector@UWeaponInfo@@V?$allocator@UWeaponInfo@@@std@@@std@@QAE@ABV01@@Z$2
__ehfuncinfo$??0?$vector@UWeaponInfo@@V?$allocator@UWeaponInfo@@@std@@@std@@QAE@ABV01@@Z DD 019930522H
	DD	02H
	DD	FLAT:__unwindtable$??0?$vector@UWeaponInfo@@V?$allocator@UWeaponInfo@@@std@@@std@@QAE@ABV01@@Z
	DD	01H
	DD	FLAT:__tryblocktable$??0?$vector@UWeaponInfo@@V?$allocator@UWeaponInfo@@@std@@@std@@QAE@ABV01@@Z
	DD	2 DUP(00H)
	DD	00H
	DD	01H
; Function compile flags: /Ogsp
; File c:\program files (x86)\microsoft visual studio 10.0\vc\include\vector
xdata$x	ENDS
;	COMDAT ??0?$vector@UWeaponInfo@@V?$allocator@UWeaponInfo@@@std@@@std@@QAE@ABV01@@Z
_TEXT	SEGMENT
_this$ = -20						; size = 4
__$EHRec$ = -16						; size = 16
__Cat$619421 = 8					; size = 1
__Right$ = 8						; size = 4
??0?$vector@UWeaponInfo@@V?$allocator@UWeaponInfo@@@std@@@std@@QAE@ABV01@@Z PROC ; std::vector<WeaponInfo,std::allocator<WeaponInfo> >::vector<WeaponInfo,std::allocator<WeaponInfo> >, COMDAT
; _this$ = ecx

; 535  : 		{	// construct by copying _Right

  00000	6a 08		 push	 8
  00002	b8 00 00 00 00	 mov	 eax, __ehhandler$??0?$vector@UWeaponInfo@@V?$allocator@UWeaponInfo@@@std@@@std@@QAE@ABV01@@Z
  00007	e8 00 00 00 00	 call	 __EH_prolog3_catch
  0000c	8b f1		 mov	 esi, ecx
  0000e	89 75 ec	 mov	 DWORD PTR _this$[ebp], esi

; 536  : 		if (_Buy(_Right.size()))

  00011	8b 7d 08	 mov	 edi, DWORD PTR __Right$[ebp]
  00014	33 db		 xor	 ebx, ebx
  00016	89 1e		 mov	 DWORD PTR [esi], ebx
  00018	89 5e 04	 mov	 DWORD PTR [esi+4], ebx
  0001b	89 5e 08	 mov	 DWORD PTR [esi+8], ebx
  0001e	8b 47 04	 mov	 eax, DWORD PTR [edi+4]
  00021	2b 07		 sub	 eax, DWORD PTR [edi]
  00023	6a 28		 push	 40			; 00000028H
  00025	59		 pop	 ecx
  00026	99		 cdq
  00027	f7 f9		 idiv	 ecx
  00029	8b ce		 mov	 ecx, esi
  0002b	50		 push	 eax
  0002c	e8 00 00 00 00	 call	 ?_Buy@?$vector@UWeaponInfo@@V?$allocator@UWeaponInfo@@@std@@@std@@IAE_NI@Z ; std::vector<WeaponInfo,std::allocator<WeaponInfo> >::_Buy
  00031	84 c0		 test	 al, al
  00033	74 1f		 je	 SHORT $LN7@vector@2

; 537  : 			_TRY_BEGIN
; 538  : 			this->_Mylast = _Ucopy(_Right.begin(), _Right.end(),
; 539  : 				this->_Myfirst);

  00035	ff 75 08	 push	 DWORD PTR __Cat$619421[ebp]
  00038	8b 0e		 mov	 ecx, DWORD PTR [esi]
  0003a	8b 47 04	 mov	 eax, DWORD PTR [edi+4]
  0003d	8b 3f		 mov	 edi, DWORD PTR [edi]
  0003f	8d 56 0c	 lea	 edx, DWORD PTR [esi+12]
  00042	52		 push	 edx
  00043	51		 push	 ecx
  00044	50		 push	 eax
  00045	57		 push	 edi
  00046	89 5d fc	 mov	 DWORD PTR __$EHRec$[ebp+12], ebx
  00049	e8 00 00 00 00	 call	 ??$_Uninit_copy@V?$_Vector_const_iterator@V?$_Vector_val@UWeaponInfo@@V?$allocator@UWeaponInfo@@@std@@@std@@@std@@PAUWeaponInfo@@V?$allocator@UWeaponInfo@@@2@@std@@YAPAUWeaponInfo@@V?$_Vector_const_iterator@V?$_Vector_val@UWeaponInfo@@V?$allocator@UWeaponInfo@@@std@@@std@@@0@0PAU1@AAV?$allocator@UWeaponInfo@@@0@U_Nonscalar_ptr_iterator_tag@0@@Z ; std::_Uninit_copy<std::_Vector_const_iterator<std::_Vector_val<WeaponInfo,std::allocator<WeaponInfo> > >,WeaponInfo *,std::allocator<WeaponInfo> >
  0004e	83 c4 14	 add	 esp, 20			; 00000014H
  00051	89 46 04	 mov	 DWORD PTR [esi+4], eax
$LN7@vector@2:

; 543  : 			_CATCH_END
; 544  : 		}

  00054	8b c6		 mov	 eax, esi
  00056	e8 00 00 00 00	 call	 __EH_epilog3
  0005b	c2 04 00	 ret	 4
__catch$??0?$vector@UWeaponInfo@@V?$allocator@UWeaponInfo@@@std@@@std@@QAE@ABV01@@Z$0:

; 540  : 			_CATCH_ALL
; 541  : 			_Tidy();

  0005e	8b 4d ec	 mov	 ecx, DWORD PTR _this$[ebp]
  00061	e8 00 00 00 00	 call	 ?_Tidy@?$vector@UWeaponInfo@@V?$allocator@UWeaponInfo@@@std@@@std@@IAEXXZ ; std::vector<WeaponInfo,std::allocator<WeaponInfo> >::_Tidy

; 542  : 			_RERAISE;

  00066	33 db		 xor	 ebx, ebx
  00068	53		 push	 ebx
  00069	53		 push	 ebx
  0006a	e8 00 00 00 00	 call	 __CxxThrowException@8
$LN38@vector@2:
$LN37@vector@2:
  0006f	cc		 int	 3
_TEXT	ENDS
;	COMDAT text$x
text$x	SEGMENT
__ehhandler$??0?$vector@UWeaponInfo@@V?$allocator@UWeaponInfo@@@std@@@std@@QAE@ABV01@@Z:
  00000	8b 54 24 08	 mov	 edx, DWORD PTR [esp+8]
  00004	8d 42 0c	 lea	 eax, DWORD PTR [edx+12]
  00007	8b 4a e8	 mov	 ecx, DWORD PTR [edx-24]
  0000a	33 c8		 xor	 ecx, eax
  0000c	e8 00 00 00 00	 call	 @__security_check_cookie@4
  00011	b8 00 00 00 00	 mov	 eax, OFFSET __ehfuncinfo$??0?$vector@UWeaponInfo@@V?$allocator@UWeaponInfo@@@std@@@std@@QAE@ABV01@@Z
  00016	e9 00 00 00 00	 jmp	 ___CxxFrameHandler3
text$x	ENDS
??0?$vector@UWeaponInfo@@V?$allocator@UWeaponInfo@@@std@@@std@@QAE@ABV01@@Z ENDP ; std::vector<WeaponInfo,std::allocator<WeaponInfo> >::vector<WeaponInfo,std::allocator<WeaponInfo> >
PUBLIC	??1?$vector@UWeaponInfo@@V?$allocator@UWeaponInfo@@@std@@@std@@QAE@XZ ; std::vector<WeaponInfo,std::allocator<WeaponInfo> >::~vector<WeaponInfo,std::allocator<WeaponInfo> >
; Function compile flags: /Ogsp
;	COMDAT ??1?$vector@UWeaponInfo@@V?$allocator@UWeaponInfo@@@std@@@std@@QAE@XZ
_TEXT	SEGMENT
??1?$vector@UWeaponInfo@@V?$allocator@UWeaponInfo@@@std@@@std@@QAE@XZ PROC ; std::vector<WeaponInfo,std::allocator<WeaponInfo> >::~vector<WeaponInfo,std::allocator<WeaponInfo> >, COMDAT
; _this$ = ecx

; 705  : 		_Tidy();

  00000	e9 00 00 00 00	 jmp	 ?_Tidy@?$vector@UWeaponInfo@@V?$allocator@UWeaponInfo@@@std@@@std@@IAEXXZ ; std::vector<WeaponInfo,std::allocator<WeaponInfo> >::_Tidy
??1?$vector@UWeaponInfo@@V?$allocator@UWeaponInfo@@@std@@@std@@QAE@XZ ENDP ; std::vector<WeaponInfo,std::allocator<WeaponInfo> >::~vector<WeaponInfo,std::allocator<WeaponInfo> >
_TEXT	ENDS
PUBLIC	??4?$vector@UWeaponInfo@@V?$allocator@UWeaponInfo@@@std@@@std@@QAEAAV01@ABV01@@Z ; std::vector<WeaponInfo,std::allocator<WeaponInfo> >::operator=
; Function compile flags: /Ogsp
;	COMDAT ??4?$vector@UWeaponInfo@@V?$allocator@UWeaponInfo@@@std@@@std@@QAEAAV01@ABV01@@Z
_TEXT	SEGMENT
tv551 = 8						; size = 4
__Cat$619633 = 8					; size = 1
__Cat$619596 = 8					; size = 1
__Cat$619574 = 8					; size = 1
__Cat$619543 = 8					; size = 1
$T619510 = 8						; size = 4
__Right$ = 8						; size = 4
??4?$vector@UWeaponInfo@@V?$allocator@UWeaponInfo@@@std@@@std@@QAEAAV01@ABV01@@Z PROC ; std::vector<WeaponInfo,std::allocator<WeaponInfo> >::operator=, COMDAT
; _this$ = ecx

; 709  : 		{	// assign _Right

  00000	55		 push	 ebp
  00001	8b ec		 mov	 ebp, esp
  00003	56		 push	 esi
  00004	57		 push	 edi

; 710  : 		if (this != &_Right)

  00005	8b 7d 08	 mov	 edi, DWORD PTR __Right$[ebp]
  00008	8b f1		 mov	 esi, ecx
  0000a	3b f7		 cmp	 esi, edi
  0000c	0f 84 03 01 00
	00		 je	 $LN1@operator@2

; 711  : 			{	// worth doing
; 712  : 			this->_Orphan_all();

  00012	ff 15 00 00 00
	00		 call	 DWORD PTR __imp_?_Orphan_all@_Container_base0@std@@QAEXXZ

; 713  : 
; 714  : 			if (_Right.size() == 0)

  00018	8b 47 04	 mov	 eax, DWORD PTR [edi+4]
  0001b	2b 07		 sub	 eax, DWORD PTR [edi]
  0001d	6a 28		 push	 40			; 00000028H
  0001f	99		 cdq
  00020	59		 pop	 ecx
  00021	f7 f9		 idiv	 ecx
  00023	89 45 08	 mov	 DWORD PTR tv551[ebp], eax
  00026	85 c0		 test	 eax, eax

; 715  : 				clear();	// new sequence empty, erase existing sequence

  00028	8b 46 04	 mov	 eax, DWORD PTR [esi+4]
  0002b	75 14		 jne	 SHORT $LN8@operator@2
  0002d	8b 0e		 mov	 ecx, DWORD PTR [esi]
  0002f	50		 push	 eax
  00030	51		 push	 ecx
  00031	8d 45 08	 lea	 eax, DWORD PTR $T619510[ebp]
  00034	50		 push	 eax
  00035	8b ce		 mov	 ecx, esi
  00037	e8 00 00 00 00	 call	 ?erase@?$vector@UWeaponInfo@@V?$allocator@UWeaponInfo@@@std@@@std@@QAE?AV?$_Vector_iterator@V?$_Vector_val@UWeaponInfo@@V?$allocator@UWeaponInfo@@@std@@@std@@@2@V?$_Vector_const_iterator@V?$_Vector_val@UWeaponInfo@@V?$allocator@UWeaponInfo@@@std@@@std@@@2@0@Z ; std::vector<WeaponInfo,std::allocator<WeaponInfo> >::erase

; 716  : 			else if (_Right.size() <= size())

  0003c	e9 d4 00 00 00	 jmp	 $LN1@operator@2
$LN8@operator@2:
  00041	53		 push	 ebx
  00042	8b 1e		 mov	 ebx, DWORD PTR [esi]
  00044	2b c3		 sub	 eax, ebx
  00046	6a 28		 push	 40			; 00000028H
  00048	99		 cdq
  00049	59		 pop	 ecx
  0004a	f7 f9		 idiv	 ecx
  0004c	8b c8		 mov	 ecx, eax
  0004e	39 4d 08	 cmp	 DWORD PTR tv551[ebp], ecx
  00051	77 33		 ja	 SHORT $LN6@operator@2

; 717  : 				{	// enough elements, copy new and destroy old
; 718  : 				pointer _Ptr = _STD _Copy_impl(_Right._Myfirst, _Right._Mylast,
; 719  : 					this->_Myfirst);	// copy new

  00053	ff 75 08	 push	 DWORD PTR __Cat$619543[ebp]
  00056	53		 push	 ebx
  00057	ff 77 04	 push	 DWORD PTR [edi+4]
  0005a	ff 37		 push	 DWORD PTR [edi]
  0005c	e8 00 00 00 00	 call	 ??$_Copy_impl@PAUWeaponInfo@@PAU1@@std@@YAPAUWeaponInfo@@PAU1@00U_Nonscalar_ptr_iterator_tag@0@@Z ; std::_Copy_impl<WeaponInfo *,WeaponInfo *>

; 720  : 				_Destroy(_Ptr, this->_Mylast);	// destroy old

  00061	8d 4e 0c	 lea	 ecx, DWORD PTR [esi+12]
  00064	51		 push	 ecx
  00065	ff 76 04	 push	 DWORD PTR [esi+4]
  00068	50		 push	 eax
  00069	e8 00 00 00 00	 call	 ??$_Destroy_range@V?$allocator@UWeaponInfo@@@std@@@std@@YAXPAUWeaponInfo@@0AAV?$allocator@UWeaponInfo@@@0@@Z ; std::_Destroy_range<std::allocator<WeaponInfo> >

; 721  : 				this->_Mylast = this->_Myfirst + _Right.size();

  0006e	8b 47 04	 mov	 eax, DWORD PTR [edi+4]
  00071	2b 07		 sub	 eax, DWORD PTR [edi]
  00073	83 c4 1c	 add	 esp, 28			; 0000001cH
  00076	99		 cdq
  00077	6a 28		 push	 40			; 00000028H
  00079	59		 pop	 ecx
  0007a	f7 f9		 idiv	 ecx
  0007c	6b c0 28	 imul	 eax, 40			; 00000028H
  0007f	03 06		 add	 eax, DWORD PTR [esi]

; 722  : 				}
; 723  : 			else if (_Right.size() <= capacity())

  00081	e9 8b 00 00 00	 jmp	 $LN73@operator@2
$LN6@operator@2:
  00086	8b 46 08	 mov	 eax, DWORD PTR [esi+8]
  00089	2b c3		 sub	 eax, ebx
  0008b	6a 28		 push	 40			; 00000028H
  0008d	99		 cdq
  0008e	5b		 pop	 ebx
  0008f	f7 fb		 idiv	 ebx
  00091	39 45 08	 cmp	 DWORD PTR tv551[ebp], eax
  00094	77 2e		 ja	 SHORT $LN4@operator@2

; 724  : 				{	// enough room, copy and construct new
; 725  : 				pointer _Ptr = _Right._Myfirst + size();
; 726  : 				_STD _Copy_impl(_Right._Myfirst, _Ptr, this->_Myfirst);

  00096	ff 75 08	 push	 DWORD PTR __Cat$619574[ebp]
  00099	6b c9 28	 imul	 ecx, 40			; 00000028H
  0009c	8b 07		 mov	 eax, DWORD PTR [edi]
  0009e	ff 36		 push	 DWORD PTR [esi]
  000a0	8d 1c 08	 lea	 ebx, DWORD PTR [eax+ecx]
  000a3	53		 push	 ebx
  000a4	50		 push	 eax
  000a5	e8 00 00 00 00	 call	 ??$_Copy_impl@PAUWeaponInfo@@PAU1@@std@@YAPAUWeaponInfo@@PAU1@00U_Nonscalar_ptr_iterator_tag@0@@Z ; std::_Copy_impl<WeaponInfo *,WeaponInfo *>

; 727  : 				this->_Mylast = _Ucopy(_Ptr, _Right._Mylast, this->_Mylast);

  000aa	ff 75 08	 push	 DWORD PTR __Cat$619596[ebp]
  000ad	8b 46 04	 mov	 eax, DWORD PTR [esi+4]
  000b0	8b 7f 04	 mov	 edi, DWORD PTR [edi+4]
  000b3	8d 4e 0c	 lea	 ecx, DWORD PTR [esi+12]
  000b6	51		 push	 ecx
  000b7	50		 push	 eax
  000b8	57		 push	 edi
  000b9	53		 push	 ebx
  000ba	e8 00 00 00 00	 call	 ??$_Uninit_copy@PAUWeaponInfo@@PAU1@V?$allocator@UWeaponInfo@@@std@@@std@@YAPAUWeaponInfo@@PAU1@00AAV?$allocator@UWeaponInfo@@@0@U_Nonscalar_ptr_iterator_tag@0@@Z ; std::_Uninit_copy<WeaponInfo *,WeaponInfo *,std::allocator<WeaponInfo> >
  000bf	83 c4 24	 add	 esp, 36			; 00000024H

; 728  : 				}
; 729  : 			else

  000c2	eb 4d		 jmp	 SHORT $LN73@operator@2
$LN4@operator@2:

; 730  : 				{	// not enough room, allocate new array and construct new
; 731  : 				if (this->_Myfirst != 0)

  000c4	8b 06		 mov	 eax, DWORD PTR [esi]
  000c6	85 c0		 test	 eax, eax
  000c8	74 17		 je	 SHORT $LN62@operator@2

; 732  : 					{	// discard old array
; 733  : 					_Destroy(this->_Myfirst, this->_Mylast);

  000ca	8d 4e 0c	 lea	 ecx, DWORD PTR [esi+12]
  000cd	51		 push	 ecx
  000ce	ff 76 04	 push	 DWORD PTR [esi+4]
  000d1	50		 push	 eax
  000d2	e8 00 00 00 00	 call	 ??$_Destroy_range@V?$allocator@UWeaponInfo@@@std@@@std@@YAXPAUWeaponInfo@@0AAV?$allocator@UWeaponInfo@@@0@@Z ; std::_Destroy_range<std::allocator<WeaponInfo> >

; 734  : 					this->_Alval.deallocate(this->_Myfirst,
; 735  : 						this->_Myend - this->_Myfirst);

  000d7	ff 36		 push	 DWORD PTR [esi]
  000d9	e8 00 00 00 00	 call	 ??3@YAXPAX@Z		; operator delete
  000de	83 c4 10	 add	 esp, 16			; 00000010H
$LN62@operator@2:

; 736  : 					}
; 737  : 				if (_Buy(_Right.size()))

  000e1	8b 47 04	 mov	 eax, DWORD PTR [edi+4]
  000e4	2b 07		 sub	 eax, DWORD PTR [edi]
  000e6	6a 28		 push	 40			; 00000028H
  000e8	59		 pop	 ecx
  000e9	99		 cdq
  000ea	f7 f9		 idiv	 ecx
  000ec	8b ce		 mov	 ecx, esi
  000ee	50		 push	 eax
  000ef	e8 00 00 00 00	 call	 ?_Buy@?$vector@UWeaponInfo@@V?$allocator@UWeaponInfo@@@std@@@std@@IAE_NI@Z ; std::vector<WeaponInfo,std::allocator<WeaponInfo> >::_Buy
  000f4	84 c0		 test	 al, al
  000f6	74 1c		 je	 SHORT $LN72@operator@2

; 738  : 					this->_Mylast = _Ucopy(_Right._Myfirst, _Right._Mylast,
; 739  : 						this->_Myfirst);

  000f8	ff 75 08	 push	 DWORD PTR __Cat$619633[ebp]
  000fb	8b 06		 mov	 eax, DWORD PTR [esi]
  000fd	8b 4f 04	 mov	 ecx, DWORD PTR [edi+4]
  00100	8b 3f		 mov	 edi, DWORD PTR [edi]
  00102	8d 56 0c	 lea	 edx, DWORD PTR [esi+12]
  00105	52		 push	 edx
  00106	50		 push	 eax
  00107	51		 push	 ecx
  00108	57		 push	 edi
  00109	e8 00 00 00 00	 call	 ??$_Uninit_copy@PAUWeaponInfo@@PAU1@V?$allocator@UWeaponInfo@@@std@@@std@@YAPAUWeaponInfo@@PAU1@00AAV?$allocator@UWeaponInfo@@@0@U_Nonscalar_ptr_iterator_tag@0@@Z ; std::_Uninit_copy<WeaponInfo *,WeaponInfo *,std::allocator<WeaponInfo> >
  0010e	83 c4 14	 add	 esp, 20			; 00000014H
$LN73@operator@2:
  00111	89 46 04	 mov	 DWORD PTR [esi+4], eax
$LN72@operator@2:
  00114	5b		 pop	 ebx
$LN1@operator@2:
  00115	5f		 pop	 edi

; 740  : 				}
; 741  : 			}
; 742  : 		return (*this);

  00116	8b c6		 mov	 eax, esi
  00118	5e		 pop	 esi

; 743  : 		}

  00119	5d		 pop	 ebp
  0011a	c2 04 00	 ret	 4
??4?$vector@UWeaponInfo@@V?$allocator@UWeaponInfo@@@std@@@std@@QAEAAV01@ABV01@@Z ENDP ; std::vector<WeaponInfo,std::allocator<WeaponInfo> >::operator=
_TEXT	ENDS
PUBLIC	??0AttackAttribute@@QAE@ABU0@@Z			; AttackAttribute::AttackAttribute
;	COMDAT xdata$x
xdata$x	SEGMENT
__unwindtable$??0AttackAttribute@@QAE@ABU0@@Z DD 0ffffffffH
	DD	FLAT:__unwindfunclet$??0AttackAttribute@@QAE@ABU0@@Z$0
	DD	00H
	DD	FLAT:__unwindfunclet$??0AttackAttribute@@QAE@ABU0@@Z$1
	DD	01H
	DD	FLAT:__unwindfunclet$??0AttackAttribute@@QAE@ABU0@@Z$2
__ehfuncinfo$??0AttackAttribute@@QAE@ABU0@@Z DD 019930522H
	DD	03H
	DD	FLAT:__unwindtable$??0AttackAttribute@@QAE@ABU0@@Z
	DD	2 DUP(00H)
	DD	2 DUP(00H)
	DD	00H
	DD	01H
; Function compile flags: /Ogsp
xdata$x	ENDS
;	COMDAT ??0AttackAttribute@@QAE@ABU0@@Z
_TEXT	SEGMENT
_this$ = -16						; size = 4
__$EHRec$ = -12						; size = 12
___that$ = 8						; size = 4
??0AttackAttribute@@QAE@ABU0@@Z PROC			; AttackAttribute::AttackAttribute, COMDAT
; _this$ = ecx
  00000	6a 04		 push	 4
  00002	b8 00 00 00 00	 mov	 eax, __ehhandler$??0AttackAttribute@@QAE@ABU0@@Z
  00007	e8 00 00 00 00	 call	 __EH_prolog3
  0000c	8b f1		 mov	 esi, ecx
  0000e	89 75 f0	 mov	 DWORD PTR _this$[ebp], esi
  00011	8b 7d 08	 mov	 edi, DWORD PTR ___that$[ebp]
  00014	8b 1d 00 00 00
	00		 mov	 ebx, DWORD PTR __imp_??0ioHashString@@QAE@ABV0@@Z
  0001a	57		 push	 edi
  0001b	ff d3		 call	 ebx
  0001d	d9 47 10	 fld	 DWORD PTR [edi+16]
  00020	83 65 fc 00	 and	 DWORD PTR __$EHRec$[ebp+8], 0
  00024	d9 5e 10	 fstp	 DWORD PTR [esi+16]
  00027	8d 47 14	 lea	 eax, DWORD PTR [edi+20]
  0002a	50		 push	 eax
  0002b	8d 4e 14	 lea	 ecx, DWORD PTR [esi+20]
  0002e	ff d3		 call	 ebx
  00030	d9 47 24	 fld	 DWORD PTR [edi+36]
  00033	8d 47 28	 lea	 eax, DWORD PTR [edi+40]
  00036	d9 5e 24	 fstp	 DWORD PTR [esi+36]
  00039	50		 push	 eax
  0003a	8d 4e 28	 lea	 ecx, DWORD PTR [esi+40]
  0003d	c6 45 fc 01	 mov	 BYTE PTR __$EHRec$[ebp+8], 1
  00041	e8 00 00 00 00	 call	 ??0?$vector@UWeaponInfo@@V?$allocator@UWeaponInfo@@@std@@@std@@QAE@ABV01@@Z ; std::vector<WeaponInfo,std::allocator<WeaponInfo> >::vector<WeaponInfo,std::allocator<WeaponInfo> >
  00046	8d 47 38	 lea	 eax, DWORD PTR [edi+56]
  00049	50		 push	 eax
  0004a	8d 4e 38	 lea	 ecx, DWORD PTR [esi+56]
  0004d	c6 45 fc 02	 mov	 BYTE PTR __$EHRec$[ebp+8], 2
  00051	e8 00 00 00 00	 call	 ??0?$vector@UForceInfo@@V?$allocator@UForceInfo@@@std@@@std@@QAE@ABV01@@Z ; std::vector<ForceInfo,std::allocator<ForceInfo> >::vector<ForceInfo,std::allocator<ForceInfo> >
  00056	8b 47 48	 mov	 eax, DWORD PTR [edi+72]
  00059	89 46 48	 mov	 DWORD PTR [esi+72], eax
  0005c	8b 47 4c	 mov	 eax, DWORD PTR [edi+76]
  0005f	89 46 4c	 mov	 DWORD PTR [esi+76], eax
  00062	8b c6		 mov	 eax, esi
  00064	e8 00 00 00 00	 call	 __EH_epilog3
  00069	c2 04 00	 ret	 4
_TEXT	ENDS
;	COMDAT text$x
text$x	SEGMENT
__unwindfunclet$??0AttackAttribute@@QAE@ABU0@@Z$0:
  00000	8b 4d f0	 mov	 ecx, DWORD PTR _this$[ebp]
  00003	ff 25 00 00 00
	00		 jmp	 DWORD PTR __imp_??1ioHashString@@QAE@XZ
__unwindfunclet$??0AttackAttribute@@QAE@ABU0@@Z$1:
  00009	8b 4d f0	 mov	 ecx, DWORD PTR _this$[ebp]
  0000c	83 c1 14	 add	 ecx, 20			; 00000014H
  0000f	ff 25 00 00 00
	00		 jmp	 DWORD PTR __imp_??1ioHashString@@QAE@XZ
__unwindfunclet$??0AttackAttribute@@QAE@ABU0@@Z$2:
  00015	8b 4d f0	 mov	 ecx, DWORD PTR _this$[ebp]
  00018	83 c1 28	 add	 ecx, 40			; 00000028H
  0001b	e9 00 00 00 00	 jmp	 ??1?$vector@UWeaponInfo@@V?$allocator@UWeaponInfo@@@std@@@std@@QAE@XZ ; std::vector<WeaponInfo,std::allocator<WeaponInfo> >::~vector<WeaponInfo,std::allocator<WeaponInfo> >
__ehhandler$??0AttackAttribute@@QAE@ABU0@@Z:
  00020	8b 54 24 08	 mov	 edx, DWORD PTR [esp+8]
  00024	8d 42 0c	 lea	 eax, DWORD PTR [edx+12]
  00027	8b 4a ec	 mov	 ecx, DWORD PTR [edx-20]
  0002a	33 c8		 xor	 ecx, eax
  0002c	e8 00 00 00 00	 call	 @__security_check_cookie@4
  00031	b8 00 00 00 00	 mov	 eax, OFFSET __ehfuncinfo$??0AttackAttribute@@QAE@ABU0@@Z
  00036	e9 00 00 00 00	 jmp	 ___CxxFrameHandler3
text$x	ENDS
??0AttackAttribute@@QAE@ABU0@@Z ENDP			; AttackAttribute::AttackAttribute
PUBLIC	??$construct@AAUAttackAttribute@@@?$allocator@UAttackAttribute@@@std@@QAEXPAUAttackAttribute@@AAU2@@Z ; std::allocator<AttackAttribute>::construct<AttackAttribute &>
;	COMDAT xdata$x
; File c:\program files (x86)\microsoft visual studio 10.0\vc\include\utility
xdata$x	SEGMENT
__unwindtable$??$construct@AAUAttackAttribute@@@?$allocator@UAttackAttribute@@@std@@QAEXPAUAttackAttribute@@AAU2@@Z DD 0ffffffffH
	DD	FLAT:__unwindfunclet$??$construct@AAUAttackAttribute@@@?$allocator@UAttackAttribute@@@std@@QAEXPAUAttackAttribute@@AAU2@@Z$0
__ehfuncinfo$??$construct@AAUAttackAttribute@@@?$allocator@UAttackAttribute@@@std@@QAEXPAUAttackAttribute@@AAU2@@Z DD 019930522H
	DD	01H
	DD	FLAT:__unwindtable$??$construct@AAUAttackAttribute@@@?$allocator@UAttackAttribute@@@std@@QAEXPAUAttackAttribute@@AAU2@@Z
	DD	2 DUP(00H)
	DD	2 DUP(00H)
	DD	00H
	DD	01H
; Function compile flags: /Ogsp
; File c:\program files (x86)\microsoft visual studio 10.0\vc\include\xmemory
xdata$x	ENDS
;	COMDAT ??$construct@AAUAttackAttribute@@@?$allocator@UAttackAttribute@@@std@@QAEXPAUAttackAttribute@@AAU2@@Z
_TEXT	SEGMENT
$T619656 = -16						; size = 4
__$EHRec$ = -12						; size = 12
__Ptr$ = 8						; size = 4
__Val$ = 12						; size = 4
??$construct@AAUAttackAttribute@@@?$allocator@UAttackAttribute@@@std@@QAEXPAUAttackAttribute@@AAU2@@Z PROC ; std::allocator<AttackAttribute>::construct<AttackAttribute &>, COMDAT
; _this$ = ecx

; 206  : 		void construct(pointer _Ptr, _Other&& _Val)

  00000	6a 04		 push	 4
  00002	b8 00 00 00 00	 mov	 eax, __ehhandler$??$construct@AAUAttackAttribute@@@?$allocator@UAttackAttribute@@@std@@QAEXPAUAttackAttribute@@AAU2@@Z
  00007	e8 00 00 00 00	 call	 __EH_prolog3

; 207  : 		{	// construct object at _Ptr with value _Val
; 208  : 		::new ((void _FARQ *)_Ptr) _Ty(_STD forward<_Other>(_Val));

  0000c	8b 4d 08	 mov	 ecx, DWORD PTR __Ptr$[ebp]
  0000f	89 4d f0	 mov	 DWORD PTR $T619656[ebp], ecx
  00012	83 65 fc 00	 and	 DWORD PTR __$EHRec$[ebp+8], 0
  00016	85 c9		 test	 ecx, ecx
  00018	74 08		 je	 SHORT $LN3@construct@4
  0001a	ff 75 0c	 push	 DWORD PTR __Val$[ebp]
  0001d	e8 00 00 00 00	 call	 ??0AttackAttribute@@QAE@ABU0@@Z
$LN3@construct@4:

; 209  : 		}

  00022	e8 00 00 00 00	 call	 __EH_epilog3
  00027	c2 08 00	 ret	 8
_TEXT	ENDS
;	COMDAT text$x
text$x	SEGMENT
__unwindfunclet$??$construct@AAUAttackAttribute@@@?$allocator@UAttackAttribute@@@std@@QAEXPAUAttackAttribute@@AAU2@@Z$0:
  00000	ff 75 08	 push	 DWORD PTR __Ptr$[ebp]
  00003	ff 75 f0	 push	 DWORD PTR $T619656[ebp]
  00006	e8 00 00 00 00	 call	 ??3@YAXPAX0@Z		; operator delete
  0000b	59		 pop	 ecx
  0000c	59		 pop	 ecx
  0000d	c3		 ret	 0
__ehhandler$??$construct@AAUAttackAttribute@@@?$allocator@UAttackAttribute@@@std@@QAEXPAUAttackAttribute@@AAU2@@Z:
  0000e	8b 54 24 08	 mov	 edx, DWORD PTR [esp+8]
  00012	8d 42 0c	 lea	 eax, DWORD PTR [edx+12]
  00015	8b 4a ec	 mov	 ecx, DWORD PTR [edx-20]
  00018	33 c8		 xor	 ecx, eax
  0001a	e8 00 00 00 00	 call	 @__security_check_cookie@4
  0001f	b8 00 00 00 00	 mov	 eax, OFFSET __ehfuncinfo$??$construct@AAUAttackAttribute@@@?$allocator@UAttackAttribute@@@std@@QAEXPAUAttackAttribute@@AAU2@@Z
  00024	e9 00 00 00 00	 jmp	 ___CxxFrameHandler3
text$x	ENDS
??$construct@AAUAttackAttribute@@@?$allocator@UAttackAttribute@@@std@@QAEXPAUAttackAttribute@@AAU2@@Z ENDP ; std::allocator<AttackAttribute>::construct<AttackAttribute &>
PUBLIC	??$_Construct@UAttackAttribute@@ABU1@@std@@YAXPAUAttackAttribute@@ABU1@@Z ; std::_Construct<AttackAttribute,AttackAttribute const &>
;	COMDAT xdata$x
; File c:\program files (x86)\microsoft visual studio 10.0\vc\include\utility
xdata$x	SEGMENT
__unwindtable$??$_Construct@UAttackAttribute@@ABU1@@std@@YAXPAUAttackAttribute@@ABU1@@Z DD 0ffffffffH
	DD	FLAT:__unwindfunclet$??$_Construct@UAttackAttribute@@ABU1@@std@@YAXPAUAttackAttribute@@ABU1@@Z$0
__ehfuncinfo$??$_Construct@UAttackAttribute@@ABU1@@std@@YAXPAUAttackAttribute@@ABU1@@Z DD 019930522H
	DD	01H
	DD	FLAT:__unwindtable$??$_Construct@UAttackAttribute@@ABU1@@std@@YAXPAUAttackAttribute@@ABU1@@Z
	DD	2 DUP(00H)
	DD	2 DUP(00H)
	DD	00H
	DD	01H
; Function compile flags: /Ogsp
; File c:\program files (x86)\microsoft visual studio 10.0\vc\include\xmemory
xdata$x	ENDS
;	COMDAT ??$_Construct@UAttackAttribute@@ABU1@@std@@YAXPAUAttackAttribute@@ABU1@@Z
_TEXT	SEGMENT
$T619675 = -16						; size = 4
__$EHRec$ = -12						; size = 12
__Vptr$ = 8						; size = 4
__Ptr$ = 8						; size = 4
__Val$ = 12						; size = 4
??$_Construct@UAttackAttribute@@ABU1@@std@@YAXPAUAttackAttribute@@ABU1@@Z PROC ; std::_Construct<AttackAttribute,AttackAttribute const &>, COMDAT

; 46   : 	{	// construct object at _Ptr with value _Val

  00000	6a 04		 push	 4
  00002	b8 00 00 00 00	 mov	 eax, __ehhandler$??$_Construct@UAttackAttribute@@ABU1@@std@@YAXPAUAttackAttribute@@ABU1@@Z
  00007	e8 00 00 00 00	 call	 __EH_prolog3

; 47   : 	void _FARQ *_Vptr = _Ptr;

  0000c	8b 4d 08	 mov	 ecx, DWORD PTR __Ptr$[ebp]
  0000f	89 4d 08	 mov	 DWORD PTR __Vptr$[ebp], ecx

; 48   : 	::new (_Vptr) _Ty1(_STD forward<_Ty2>(_Val));

  00012	89 4d f0	 mov	 DWORD PTR $T619675[ebp], ecx
  00015	83 65 fc 00	 and	 DWORD PTR __$EHRec$[ebp+8], 0
  00019	85 c9		 test	 ecx, ecx
  0001b	74 08		 je	 SHORT $LN3@Construct@3
  0001d	ff 75 0c	 push	 DWORD PTR __Val$[ebp]
  00020	e8 00 00 00 00	 call	 ??0AttackAttribute@@QAE@ABU0@@Z
$LN3@Construct@3:

; 49   : 	}

  00025	e8 00 00 00 00	 call	 __EH_epilog3
  0002a	c3		 ret	 0
_TEXT	ENDS
;	COMDAT text$x
text$x	SEGMENT
__unwindfunclet$??$_Construct@UAttackAttribute@@ABU1@@std@@YAXPAUAttackAttribute@@ABU1@@Z$0:
  00000	ff 75 08	 push	 DWORD PTR __Vptr$[ebp]
  00003	ff 75 f0	 push	 DWORD PTR $T619675[ebp]
  00006	e8 00 00 00 00	 call	 ??3@YAXPAX0@Z		; operator delete
  0000b	59		 pop	 ecx
  0000c	59		 pop	 ecx
  0000d	c3		 ret	 0
__ehhandler$??$_Construct@UAttackAttribute@@ABU1@@std@@YAXPAUAttackAttribute@@ABU1@@Z:
  0000e	8b 54 24 08	 mov	 edx, DWORD PTR [esp+8]
  00012	8d 42 0c	 lea	 eax, DWORD PTR [edx+12]
  00015	8b 4a ec	 mov	 ecx, DWORD PTR [edx-20]
  00018	33 c8		 xor	 ecx, eax
  0001a	e8 00 00 00 00	 call	 @__security_check_cookie@4
  0001f	b8 00 00 00 00	 mov	 eax, OFFSET __ehfuncinfo$??$_Construct@UAttackAttribute@@ABU1@@std@@YAXPAUAttackAttribute@@ABU1@@Z
  00024	e9 00 00 00 00	 jmp	 ___CxxFrameHandler3
text$x	ENDS
??$_Construct@UAttackAttribute@@ABU1@@std@@YAXPAUAttackAttribute@@ABU1@@Z ENDP ; std::_Construct<AttackAttribute,AttackAttribute const &>
PUBLIC	?construct@?$allocator@UAttackAttribute@@@std@@QAEXPAUAttackAttribute@@$$QAU3@@Z ; std::allocator<AttackAttribute>::construct
;	COMDAT xdata$x
; File c:\program files (x86)\microsoft visual studio 10.0\vc\include\utility
xdata$x	SEGMENT
__unwindtable$?construct@?$allocator@UAttackAttribute@@@std@@QAEXPAUAttackAttribute@@$$QAU3@@Z DD 0ffffffffH
	DD	FLAT:__unwindfunclet$?construct@?$allocator@UAttackAttribute@@@std@@QAEXPAUAttackAttribute@@$$QAU3@@Z$0
__ehfuncinfo$?construct@?$allocator@UAttackAttribute@@@std@@QAEXPAUAttackAttribute@@$$QAU3@@Z DD 019930522H
	DD	01H
	DD	FLAT:__unwindtable$?construct@?$allocator@UAttackAttribute@@@std@@QAEXPAUAttackAttribute@@$$QAU3@@Z
	DD	2 DUP(00H)
	DD	2 DUP(00H)
	DD	00H
	DD	01H
; Function compile flags: /Ogsp
; File c:\program files (x86)\microsoft visual studio 10.0\vc\include\xmemory
xdata$x	ENDS
;	COMDAT ?construct@?$allocator@UAttackAttribute@@@std@@QAEXPAUAttackAttribute@@$$QAU3@@Z
_TEXT	SEGMENT
$T619694 = -16						; size = 4
__$EHRec$ = -12						; size = 12
__Ptr$ = 8						; size = 4
__Val$ = 12						; size = 4
?construct@?$allocator@UAttackAttribute@@@std@@QAEXPAUAttackAttribute@@$$QAU3@@Z PROC ; std::allocator<AttackAttribute>::construct, COMDAT
; _this$ = ecx

; 201  : 		{	// construct object at _Ptr with value _Val

  00000	6a 04		 push	 4
  00002	b8 00 00 00 00	 mov	 eax, __ehhandler$?construct@?$allocator@UAttackAttribute@@@std@@QAEXPAUAttackAttribute@@$$QAU3@@Z
  00007	e8 00 00 00 00	 call	 __EH_prolog3

; 202  : 		::new ((void _FARQ *)_Ptr) _Ty(_STD forward<_Ty>(_Val));

  0000c	8b 4d 08	 mov	 ecx, DWORD PTR __Ptr$[ebp]
  0000f	89 4d f0	 mov	 DWORD PTR $T619694[ebp], ecx
  00012	83 65 fc 00	 and	 DWORD PTR __$EHRec$[ebp+8], 0
  00016	85 c9		 test	 ecx, ecx
  00018	74 08		 je	 SHORT $LN3@construct@5
  0001a	ff 75 0c	 push	 DWORD PTR __Val$[ebp]
  0001d	e8 00 00 00 00	 call	 ??0AttackAttribute@@QAE@ABU0@@Z
$LN3@construct@5:

; 203  : 		}

  00022	e8 00 00 00 00	 call	 __EH_epilog3
  00027	c2 08 00	 ret	 8
_TEXT	ENDS
;	COMDAT text$x
text$x	SEGMENT
__unwindfunclet$?construct@?$allocator@UAttackAttribute@@@std@@QAEXPAUAttackAttribute@@$$QAU3@@Z$0:
  00000	ff 75 08	 push	 DWORD PTR __Ptr$[ebp]
  00003	ff 75 f0	 push	 DWORD PTR $T619694[ebp]
  00006	e8 00 00 00 00	 call	 ??3@YAXPAX0@Z		; operator delete
  0000b	59		 pop	 ecx
  0000c	59		 pop	 ecx
  0000d	c3		 ret	 0
__ehhandler$?construct@?$allocator@UAttackAttribute@@@std@@QAEXPAUAttackAttribute@@$$QAU3@@Z:
  0000e	8b 54 24 08	 mov	 edx, DWORD PTR [esp+8]
  00012	8d 42 0c	 lea	 eax, DWORD PTR [edx+12]
  00015	8b 4a ec	 mov	 ecx, DWORD PTR [edx-20]
  00018	33 c8		 xor	 ecx, eax
  0001a	e8 00 00 00 00	 call	 @__security_check_cookie@4
  0001f	b8 00 00 00 00	 mov	 eax, OFFSET __ehfuncinfo$?construct@?$allocator@UAttackAttribute@@@std@@QAEXPAUAttackAttribute@@$$QAU3@@Z
  00024	e9 00 00 00 00	 jmp	 ___CxxFrameHandler3
text$x	ENDS
?construct@?$allocator@UAttackAttribute@@@std@@QAEXPAUAttackAttribute@@$$QAU3@@Z ENDP ; std::allocator<AttackAttribute>::construct
PUBLIC	??0AttackAttribute@@QAE@XZ			; AttackAttribute::AttackAttribute
EXTRN	?Init@AttackAttribute@@QAEXXZ:PROC		; AttackAttribute::Init
EXTRN	__imp_??0ioHashString@@QAE@XZ:PROC
;	COMDAT xdata$x
xdata$x	SEGMENT
__unwindtable$??0AttackAttribute@@QAE@XZ DD 0ffffffffH
	DD	FLAT:__unwindfunclet$??0AttackAttribute@@QAE@XZ$0
	DD	00H
	DD	FLAT:__unwindfunclet$??0AttackAttribute@@QAE@XZ$1
	DD	01H
	DD	FLAT:__unwindfunclet$??0AttackAttribute@@QAE@XZ$2
	DD	02H
	DD	FLAT:__unwindfunclet$??0AttackAttribute@@QAE@XZ$3
__ehfuncinfo$??0AttackAttribute@@QAE@XZ DD 019930522H
	DD	04H
	DD	FLAT:__unwindtable$??0AttackAttribute@@QAE@XZ
	DD	2 DUP(00H)
	DD	2 DUP(00H)
	DD	00H
	DD	01H
; Function compile flags: /Ogsp
; File d:\lost saga for developer\youtube\tutorial\source\src\lsclient\ioattackattribute.h
xdata$x	ENDS
;	COMDAT ??0AttackAttribute@@QAE@XZ
_TEXT	SEGMENT
_this$ = -16						; size = 4
__$EHRec$ = -12						; size = 12
??0AttackAttribute@@QAE@XZ PROC				; AttackAttribute::AttackAttribute, COMDAT
; _this$ = ecx

; 107  : 	AttackAttribute()

  00000	6a 04		 push	 4
  00002	b8 00 00 00 00	 mov	 eax, __ehhandler$??0AttackAttribute@@QAE@XZ
  00007	e8 00 00 00 00	 call	 __EH_prolog3
  0000c	8b f1		 mov	 esi, ecx
  0000e	89 75 f0	 mov	 DWORD PTR _this$[ebp], esi
  00011	8b 3d 00 00 00
	00		 mov	 edi, DWORD PTR __imp_??0ioHashString@@QAE@XZ
  00017	ff d7		 call	 edi
  00019	33 db		 xor	 ebx, ebx
  0001b	8d 4e 14	 lea	 ecx, DWORD PTR [esi+20]
  0001e	89 5d fc	 mov	 DWORD PTR __$EHRec$[ebp+8], ebx
  00021	ff d7		 call	 edi
  00023	89 5e 28	 mov	 DWORD PTR [esi+40], ebx
  00026	89 5e 2c	 mov	 DWORD PTR [esi+44], ebx
  00029	89 5e 30	 mov	 DWORD PTR [esi+48], ebx
  0002c	89 5e 38	 mov	 DWORD PTR [esi+56], ebx
  0002f	89 5e 3c	 mov	 DWORD PTR [esi+60], ebx
  00032	89 5e 40	 mov	 DWORD PTR [esi+64], ebx

; 108  : 	{
; 109  : 		Init();

  00035	8b ce		 mov	 ecx, esi
  00037	c6 45 fc 03	 mov	 BYTE PTR __$EHRec$[ebp+8], 3
  0003b	e8 00 00 00 00	 call	 ?Init@AttackAttribute@@QAEXXZ ; AttackAttribute::Init

; 110  : 	}

  00040	8b c6		 mov	 eax, esi
  00042	e8 00 00 00 00	 call	 __EH_epilog3
  00047	c3		 ret	 0
_TEXT	ENDS
;	COMDAT text$x
text$x	SEGMENT
__unwindfunclet$??0AttackAttribute@@QAE@XZ$0:
  00000	8b 4d f0	 mov	 ecx, DWORD PTR _this$[ebp]
  00003	ff 25 00 00 00
	00		 jmp	 DWORD PTR __imp_??1ioHashString@@QAE@XZ
__unwindfunclet$??0AttackAttribute@@QAE@XZ$1:
  00009	8b 4d f0	 mov	 ecx, DWORD PTR _this$[ebp]
  0000c	83 c1 14	 add	 ecx, 20			; 00000014H
  0000f	ff 25 00 00 00
	00		 jmp	 DWORD PTR __imp_??1ioHashString@@QAE@XZ
__unwindfunclet$??0AttackAttribute@@QAE@XZ$2:
  00015	8b 4d f0	 mov	 ecx, DWORD PTR _this$[ebp]
  00018	83 c1 28	 add	 ecx, 40			; 00000028H
  0001b	e9 00 00 00 00	 jmp	 ??1?$vector@UWeaponInfo@@V?$allocator@UWeaponInfo@@@std@@@std@@QAE@XZ ; std::vector<WeaponInfo,std::allocator<WeaponInfo> >::~vector<WeaponInfo,std::allocator<WeaponInfo> >
__unwindfunclet$??0AttackAttribute@@QAE@XZ$3:
  00020	8b 4d f0	 mov	 ecx, DWORD PTR _this$[ebp]
  00023	83 c1 38	 add	 ecx, 56			; 00000038H
  00026	e9 00 00 00 00	 jmp	 ??1?$vector@UForceInfo@@V?$allocator@UForceInfo@@@std@@@std@@QAE@XZ ; std::vector<ForceInfo,std::allocator<ForceInfo> >::~vector<ForceInfo,std::allocator<ForceInfo> >
__ehhandler$??0AttackAttribute@@QAE@XZ:
  0002b	8b 54 24 08	 mov	 edx, DWORD PTR [esp+8]
  0002f	8d 42 0c	 lea	 eax, DWORD PTR [edx+12]
  00032	8b 4a ec	 mov	 ecx, DWORD PTR [edx-20]
  00035	33 c8		 xor	 ecx, eax
  00037	e8 00 00 00 00	 call	 @__security_check_cookie@4
  0003c	b8 00 00 00 00	 mov	 eax, OFFSET __ehfuncinfo$??0AttackAttribute@@QAE@XZ
  00041	e9 00 00 00 00	 jmp	 ___CxxFrameHandler3
text$x	ENDS
??0AttackAttribute@@QAE@XZ ENDP				; AttackAttribute::AttackAttribute
PUBLIC	??1AttackAttribute@@QAE@XZ			; AttackAttribute::~AttackAttribute
;	COMDAT xdata$x
xdata$x	SEGMENT
__unwindtable$??1AttackAttribute@@QAE@XZ DD 0ffffffffH
	DD	FLAT:__unwindfunclet$??1AttackAttribute@@QAE@XZ$0
	DD	00H
	DD	FLAT:__unwindfunclet$??1AttackAttribute@@QAE@XZ$1
	DD	01H
	DD	FLAT:__unwindfunclet$??1AttackAttribute@@QAE@XZ$2
__ehfuncinfo$??1AttackAttribute@@QAE@XZ DD 019930522H
	DD	03H
	DD	FLAT:__unwindtable$??1AttackAttribute@@QAE@XZ
	DD	2 DUP(00H)
	DD	2 DUP(00H)
	DD	00H
	DD	01H
; Function compile flags: /Ogsp
xdata$x	ENDS
;	COMDAT ??1AttackAttribute@@QAE@XZ
_TEXT	SEGMENT
_this$ = -16						; size = 4
__$EHRec$ = -12						; size = 12
??1AttackAttribute@@QAE@XZ PROC				; AttackAttribute::~AttackAttribute, COMDAT
; _this$ = ecx
  00000	6a 04		 push	 4
  00002	b8 00 00 00 00	 mov	 eax, __ehhandler$??1AttackAttribute@@QAE@XZ
  00007	e8 00 00 00 00	 call	 __EH_prolog3
  0000c	8b f1		 mov	 esi, ecx
  0000e	89 75 f0	 mov	 DWORD PTR _this$[ebp], esi
  00011	8d 4e 38	 lea	 ecx, DWORD PTR [esi+56]
  00014	c7 45 fc 02 00
	00 00		 mov	 DWORD PTR __$EHRec$[ebp+8], 2
  0001b	e8 00 00 00 00	 call	 ?_Tidy@?$vector@UForceInfo@@V?$allocator@UForceInfo@@@std@@@std@@IAEXXZ ; std::vector<ForceInfo,std::allocator<ForceInfo> >::_Tidy
  00020	8d 4e 28	 lea	 ecx, DWORD PTR [esi+40]
  00023	c6 45 fc 01	 mov	 BYTE PTR __$EHRec$[ebp+8], 1
  00027	e8 00 00 00 00	 call	 ?_Tidy@?$vector@UWeaponInfo@@V?$allocator@UWeaponInfo@@@std@@@std@@IAEXXZ ; std::vector<WeaponInfo,std::allocator<WeaponInfo> >::_Tidy
  0002c	8b 3d 00 00 00
	00		 mov	 edi, DWORD PTR __imp_??1ioHashString@@QAE@XZ
  00032	8d 4e 14	 lea	 ecx, DWORD PTR [esi+20]
  00035	c6 45 fc 00	 mov	 BYTE PTR __$EHRec$[ebp+8], 0
  00039	ff d7		 call	 edi
  0003b	83 4d fc ff	 or	 DWORD PTR __$EHRec$[ebp+8], -1
  0003f	8b ce		 mov	 ecx, esi
  00041	ff d7		 call	 edi
  00043	e8 00 00 00 00	 call	 __EH_epilog3
  00048	c3		 ret	 0
_TEXT	ENDS
;	COMDAT text$x
text$x	SEGMENT
__unwindfunclet$??1AttackAttribute@@QAE@XZ$0:
  00000	8b 4d f0	 mov	 ecx, DWORD PTR _this$[ebp]
  00003	ff 25 00 00 00
	00		 jmp	 DWORD PTR __imp_??1ioHashString@@QAE@XZ
__unwindfunclet$??1AttackAttribute@@QAE@XZ$1:
  00009	8b 4d f0	 mov	 ecx, DWORD PTR _this$[ebp]
  0000c	83 c1 14	 add	 ecx, 20			; 00000014H
  0000f	ff 25 00 00 00
	00		 jmp	 DWORD PTR __imp_??1ioHashString@@QAE@XZ
__unwindfunclet$??1AttackAttribute@@QAE@XZ$2:
  00015	8b 4d f0	 mov	 ecx, DWORD PTR _this$[ebp]
  00018	83 c1 28	 add	 ecx, 40			; 00000028H
  0001b	e9 00 00 00 00	 jmp	 ??1?$vector@UWeaponInfo@@V?$allocator@UWeaponInfo@@@std@@@std@@QAE@XZ ; std::vector<WeaponInfo,std::allocator<WeaponInfo> >::~vector<WeaponInfo,std::allocator<WeaponInfo> >
__ehhandler$??1AttackAttribute@@QAE@XZ:
  00020	8b 54 24 08	 mov	 edx, DWORD PTR [esp+8]
  00024	8d 42 0c	 lea	 eax, DWORD PTR [edx+12]
  00027	8b 4a ec	 mov	 ecx, DWORD PTR [edx-20]
  0002a	33 c8		 xor	 ecx, eax
  0002c	e8 00 00 00 00	 call	 @__security_check_cookie@4
  00031	b8 00 00 00 00	 mov	 eax, OFFSET __ehfuncinfo$??1AttackAttribute@@QAE@XZ
  00036	e9 00 00 00 00	 jmp	 ___CxxFrameHandler3
text$x	ENDS
??1AttackAttribute@@QAE@XZ ENDP				; AttackAttribute::~AttackAttribute
PUBLIC	??4AttackAttribute@@QAEAAU0@ABU0@@Z		; AttackAttribute::operator=
; Function compile flags: /Ogsp
;	COMDAT ??4AttackAttribute@@QAEAAU0@ABU0@@Z
_TEXT	SEGMENT
___that$ = 8						; size = 4
??4AttackAttribute@@QAEAAU0@ABU0@@Z PROC		; AttackAttribute::operator=, COMDAT
; _this$ = ecx
  00000	55		 push	 ebp
  00001	8b ec		 mov	 ebp, esp
  00003	53		 push	 ebx
  00004	8b 1d 00 00 00
	00		 mov	 ebx, DWORD PTR __imp_??4ioHashString@@QAEAAV0@ABV0@@Z
  0000a	56		 push	 esi
  0000b	57		 push	 edi
  0000c	8b 7d 08	 mov	 edi, DWORD PTR ___that$[ebp]
  0000f	57		 push	 edi
  00010	8b f1		 mov	 esi, ecx
  00012	ff d3		 call	 ebx
  00014	d9 47 10	 fld	 DWORD PTR [edi+16]
  00017	8d 47 14	 lea	 eax, DWORD PTR [edi+20]
  0001a	d9 5e 10	 fstp	 DWORD PTR [esi+16]
  0001d	50		 push	 eax
  0001e	8d 4e 14	 lea	 ecx, DWORD PTR [esi+20]
  00021	ff d3		 call	 ebx
  00023	d9 47 24	 fld	 DWORD PTR [edi+36]
  00026	8d 47 28	 lea	 eax, DWORD PTR [edi+40]
  00029	d9 5e 24	 fstp	 DWORD PTR [esi+36]
  0002c	50		 push	 eax
  0002d	8d 4e 28	 lea	 ecx, DWORD PTR [esi+40]
  00030	e8 00 00 00 00	 call	 ??4?$vector@UWeaponInfo@@V?$allocator@UWeaponInfo@@@std@@@std@@QAEAAV01@ABV01@@Z ; std::vector<WeaponInfo,std::allocator<WeaponInfo> >::operator=
  00035	8d 47 38	 lea	 eax, DWORD PTR [edi+56]
  00038	50		 push	 eax
  00039	8d 4e 38	 lea	 ecx, DWORD PTR [esi+56]
  0003c	e8 00 00 00 00	 call	 ??4?$vector@UForceInfo@@V?$allocator@UForceInfo@@@std@@@std@@QAEAAV01@ABV01@@Z ; std::vector<ForceInfo,std::allocator<ForceInfo> >::operator=
  00041	8b 47 48	 mov	 eax, DWORD PTR [edi+72]
  00044	89 46 48	 mov	 DWORD PTR [esi+72], eax
  00047	8b 47 4c	 mov	 eax, DWORD PTR [edi+76]
  0004a	89 46 4c	 mov	 DWORD PTR [esi+76], eax
  0004d	5f		 pop	 edi
  0004e	8b c6		 mov	 eax, esi
  00050	5e		 pop	 esi
  00051	5b		 pop	 ebx
  00052	5d		 pop	 ebp
  00053	c2 04 00	 ret	 4
??4AttackAttribute@@QAEAAU0@ABU0@@Z ENDP		; AttackAttribute::operator=
_TEXT	ENDS
PUBLIC	??_GAttackAttribute@@QAEPAXI@Z			; AttackAttribute::`scalar deleting destructor'
; Function compile flags: /Ogsp
;	COMDAT ??_GAttackAttribute@@QAEPAXI@Z
_TEXT	SEGMENT
___flags$ = 8						; size = 4
??_GAttackAttribute@@QAEPAXI@Z PROC			; AttackAttribute::`scalar deleting destructor', COMDAT
; _this$ = ecx
  00000	55		 push	 ebp
  00001	8b ec		 mov	 ebp, esp
  00003	56		 push	 esi
  00004	8b f1		 mov	 esi, ecx
  00006	e8 00 00 00 00	 call	 ??1AttackAttribute@@QAE@XZ
  0000b	f6 45 08 01	 test	 BYTE PTR ___flags$[ebp], 1
  0000f	74 07		 je	 SHORT $LN1@scalar@5
  00011	56		 push	 esi
  00012	e8 00 00 00 00	 call	 ??3@YAXPAX@Z		; operator delete
  00017	59		 pop	 ecx
$LN1@scalar@5:
  00018	8b c6		 mov	 eax, esi
  0001a	5e		 pop	 esi
  0001b	5d		 pop	 ebp
  0001c	c2 04 00	 ret	 4
??_GAttackAttribute@@QAEPAXI@Z ENDP			; AttackAttribute::`scalar deleting destructor'
_TEXT	ENDS
PUBLIC	?GetEndAttribute@ioLinearComboSkill2@@IAE?AUAttackAttribute@@XZ ; ioLinearComboSkill2::GetEndAttribute
; Function compile flags: /Ogsp
; File d:\lost saga for developer\youtube\tutorial\source\src\lsclient\iolinearcomboskill2.cpp
;	COMDAT ?GetEndAttribute@ioLinearComboSkill2@@IAE?AUAttackAttribute@@XZ
_TEXT	SEGMENT
$T619807 = -4						; size = 4
___$ReturnUdt$ = 8					; size = 4
?GetEndAttribute@ioLinearComboSkill2@@IAE?AUAttackAttribute@@XZ PROC ; ioLinearComboSkill2::GetEndAttribute, COMDAT
; _this$ = ecx

; 906  : {

  00000	55		 push	 ebp
  00001	8b ec		 mov	 ebp, esp
  00003	51		 push	 ecx
  00004	83 65 fc 00	 and	 DWORD PTR $T619807[ebp], 0
  00008	56		 push	 esi
  00009	8b f1		 mov	 esi, ecx

; 907  : 	switch( m_SkillUseType )

  0000b	8b 46 74	 mov	 eax, DWORD PTR [esi+116]
  0000e	83 e8 00	 sub	 eax, 0
  00011	57		 push	 edi
  00012	74 26		 je	 SHORT $LN5@GetEndAttr
  00014	48		 dec	 eax
  00015	74 1b		 je	 SHORT $LN2@GetEndAttr
  00017	48		 dec	 eax

; 918  : 		return m_EndOtherAttack;
; 919  : 	}
; 920  : 
; 921  : 	return m_EndOtherAttack;

  00018	75 20		 jne	 SHORT $LN5@GetEndAttr

; 911  : 	case SUT_DOWN:
; 912  : 		if( !m_DownEndOtherAttack.m_AttackAnimation.IsEmpty() )

  0001a	8d be 24 12 00
	00		 lea	 edi, DWORD PTR [esi+4644]
$LN13@GetEndAttr:
  00020	8b cf		 mov	 ecx, edi
  00022	ff 15 00 00 00
	00		 call	 DWORD PTR __imp_?IsEmpty@ioHashString@@QBE_NXZ

; 913  : 			return m_DownEndOtherAttack;

  00028	8b 4d 08	 mov	 ecx, DWORD PTR ___$ReturnUdt$[ebp]
  0002b	84 c0		 test	 al, al
  0002d	75 0e		 jne	 SHORT $LN3@GetEndAttr
  0002f	57		 push	 edi
  00030	eb 12		 jmp	 SHORT $LN12@GetEndAttr
$LN2@GetEndAttr:

; 914  : 		return m_EndOtherAttack;
; 915  : 	case SUT_JUMP:
; 916  : 		if( !m_JumpEndOtherAttack.m_AttackAnimation.IsEmpty() )

  00032	8d be d4 11 00
	00		 lea	 edi, DWORD PTR [esi+4564]

; 917  : 			return m_JumpEndOtherAttack;

  00038	eb e6		 jmp	 SHORT $LN13@GetEndAttr
$LN5@GetEndAttr:

; 908  : 	{
; 909  : 	case SUT_NORMAL:
; 910  : 		return m_EndOtherAttack;

  0003a	8b 4d 08	 mov	 ecx, DWORD PTR ___$ReturnUdt$[ebp]
$LN3@GetEndAttr:
  0003d	81 c6 84 11 00
	00		 add	 esi, 4484		; 00001184H
  00043	56		 push	 esi
$LN12@GetEndAttr:
  00044	e8 00 00 00 00	 call	 ??0AttackAttribute@@QAE@ABU0@@Z
  00049	8b 45 08	 mov	 eax, DWORD PTR ___$ReturnUdt$[ebp]
  0004c	5f		 pop	 edi
  0004d	5e		 pop	 esi

; 922  : }

  0004e	c9		 leave
  0004f	c2 04 00	 ret	 4
?GetEndAttribute@ioLinearComboSkill2@@IAE?AUAttackAttribute@@XZ ENDP ; ioLinearComboSkill2::GetEndAttribute
_TEXT	ENDS
PUBLIC	??$_Cons_val@V?$allocator@UAttackAttribute@@@std@@UAttackAttribute@@AAU3@@std@@YAXAAV?$allocator@UAttackAttribute@@@0@PAUAttackAttribute@@AAU2@@Z ; std::_Cons_val<std::allocator<AttackAttribute>,AttackAttribute,AttackAttribute &>
;	COMDAT xdata$x
; File c:\program files (x86)\microsoft visual studio 10.0\vc\include\utility
xdata$x	SEGMENT
__unwindtable$??$_Cons_val@V?$allocator@UAttackAttribute@@@std@@UAttackAttribute@@AAU3@@std@@YAXAAV?$allocator@UAttackAttribute@@@0@PAUAttackAttribute@@AAU2@@Z DD 0ffffffffH
	DD	FLAT:__unwindfunclet$??$_Cons_val@V?$allocator@UAttackAttribute@@@std@@UAttackAttribute@@AAU3@@std@@YAXAAV?$allocator@UAttackAttribute@@@0@PAUAttackAttribute@@AAU2@@Z$0
__ehfuncinfo$??$_Cons_val@V?$allocator@UAttackAttribute@@@std@@UAttackAttribute@@AAU3@@std@@YAXAAV?$allocator@UAttackAttribute@@@0@PAUAttackAttribute@@AAU2@@Z DD 019930522H
	DD	01H
	DD	FLAT:__unwindtable$??$_Cons_val@V?$allocator@UAttackAttribute@@@std@@UAttackAttribute@@AAU3@@std@@YAXAAV?$allocator@UAttackAttribute@@@0@PAUAttackAttribute@@AAU2@@Z
	DD	2 DUP(00H)
	DD	2 DUP(00H)
	DD	00H
	DD	01H
; Function compile flags: /Ogsp
; File c:\program files (x86)\microsoft visual studio 10.0\vc\include\xmemory
xdata$x	ENDS
;	COMDAT ??$_Cons_val@V?$allocator@UAttackAttribute@@@std@@UAttackAttribute@@AAU3@@std@@YAXAAV?$allocator@UAttackAttribute@@@0@PAUAttackAttribute@@AAU2@@Z
_TEXT	SEGMENT
$T619830 = -16						; size = 4
__$EHRec$ = -12						; size = 12
__Alval$ = 8						; size = 4
__Pdest$ = 12						; size = 4
__Src$ = 16						; size = 4
??$_Cons_val@V?$allocator@UAttackAttribute@@@std@@UAttackAttribute@@AAU3@@std@@YAXAAV?$allocator@UAttackAttribute@@@0@PAUAttackAttribute@@AAU2@@Z PROC ; std::_Cons_val<std::allocator<AttackAttribute>,AttackAttribute,AttackAttribute &>, COMDAT

; 279  : 	{	// construct using allocator

  00000	6a 04		 push	 4
  00002	b8 00 00 00 00	 mov	 eax, __ehhandler$??$_Cons_val@V?$allocator@UAttackAttribute@@@std@@UAttackAttribute@@AAU3@@std@@YAXAAV?$allocator@UAttackAttribute@@@0@PAUAttackAttribute@@AAU2@@Z
  00007	e8 00 00 00 00	 call	 __EH_prolog3

; 280  : 	_Alval.construct(_Pdest, _STD forward<_Ty2>(_Src));

  0000c	8b 4d 0c	 mov	 ecx, DWORD PTR __Pdest$[ebp]
  0000f	89 4d f0	 mov	 DWORD PTR $T619830[ebp], ecx
  00012	83 65 fc 00	 and	 DWORD PTR __$EHRec$[ebp+8], 0
  00016	85 c9		 test	 ecx, ecx
  00018	74 08		 je	 SHORT $LN7@Cons_val@4
  0001a	ff 75 10	 push	 DWORD PTR __Src$[ebp]
  0001d	e8 00 00 00 00	 call	 ??0AttackAttribute@@QAE@ABU0@@Z
$LN7@Cons_val@4:

; 281  : 	}

  00022	e8 00 00 00 00	 call	 __EH_epilog3
  00027	c3		 ret	 0
_TEXT	ENDS
;	COMDAT text$x
text$x	SEGMENT
__unwindfunclet$??$_Cons_val@V?$allocator@UAttackAttribute@@@std@@UAttackAttribute@@AAU3@@std@@YAXAAV?$allocator@UAttackAttribute@@@0@PAUAttackAttribute@@AAU2@@Z$0:
  00000	ff 75 0c	 push	 DWORD PTR __Pdest$[ebp]
  00003	ff 75 f0	 push	 DWORD PTR $T619830[ebp]
  00006	e8 00 00 00 00	 call	 ??3@YAXPAX0@Z		; operator delete
  0000b	59		 pop	 ecx
  0000c	59		 pop	 ecx
  0000d	c3		 ret	 0
__ehhandler$??$_Cons_val@V?$allocator@UAttackAttribute@@@std@@UAttackAttribute@@AAU3@@std@@YAXAAV?$allocator@UAttackAttribute@@@0@PAUAttackAttribute@@AAU2@@Z:
  0000e	8b 54 24 08	 mov	 edx, DWORD PTR [esp+8]
  00012	8d 42 0c	 lea	 eax, DWORD PTR [edx+12]
  00015	8b 4a ec	 mov	 ecx, DWORD PTR [edx-20]
  00018	33 c8		 xor	 ecx, eax
  0001a	e8 00 00 00 00	 call	 @__security_check_cookie@4
  0001f	b8 00 00 00 00	 mov	 eax, OFFSET __ehfuncinfo$??$_Cons_val@V?$allocator@UAttackAttribute@@@std@@UAttackAttribute@@AAU3@@std@@YAXAAV?$allocator@UAttackAttribute@@@0@PAUAttackAttribute@@AAU2@@Z
  00024	e9 00 00 00 00	 jmp	 ___CxxFrameHandler3
text$x	ENDS
??$_Cons_val@V?$allocator@UAttackAttribute@@@std@@UAttackAttribute@@AAU3@@std@@YAXAAV?$allocator@UAttackAttribute@@@0@PAUAttackAttribute@@AAU2@@Z ENDP ; std::_Cons_val<std::allocator<AttackAttribute>,AttackAttribute,AttackAttribute &>
PUBLIC	?construct@?$allocator@UAttackAttribute@@@std@@QAEXPAUAttackAttribute@@ABU3@@Z ; std::allocator<AttackAttribute>::construct
; Function compile flags: /Ogsp
;	COMDAT ?construct@?$allocator@UAttackAttribute@@@std@@QAEXPAUAttackAttribute@@ABU3@@Z
_TEXT	SEGMENT
__Ptr$ = 8						; size = 4
__Val$ = 12						; size = 4
?construct@?$allocator@UAttackAttribute@@@std@@QAEXPAUAttackAttribute@@ABU3@@Z PROC ; std::allocator<AttackAttribute>::construct, COMDAT
; _this$ = ecx

; 196  : 		{	// construct object at _Ptr with value _Val

  00000	55		 push	 ebp
  00001	8b ec		 mov	 ebp, esp

; 197  : 		_Construct(_Ptr, _Val);

  00003	ff 75 0c	 push	 DWORD PTR __Val$[ebp]
  00006	ff 75 08	 push	 DWORD PTR __Ptr$[ebp]
  00009	e8 00 00 00 00	 call	 ??$_Construct@UAttackAttribute@@ABU1@@std@@YAXPAUAttackAttribute@@ABU1@@Z ; std::_Construct<AttackAttribute,AttackAttribute const &>
  0000e	59		 pop	 ecx
  0000f	59		 pop	 ecx

; 198  : 		}

  00010	5d		 pop	 ebp
  00011	c2 08 00	 ret	 8
?construct@?$allocator@UAttackAttribute@@@std@@QAEXPAUAttackAttribute@@ABU3@@Z ENDP ; std::allocator<AttackAttribute>::construct
_TEXT	ENDS
PUBLIC	??$_Cons_val@V?$allocator@UAttackAttribute@@@std@@UAttackAttribute@@U3@@std@@YAXAAV?$allocator@UAttackAttribute@@@0@PAUAttackAttribute@@$$QAU2@@Z ; std::_Cons_val<std::allocator<AttackAttribute>,AttackAttribute,AttackAttribute>
;	COMDAT xdata$x
; File c:\program files (x86)\microsoft visual studio 10.0\vc\include\utility
xdata$x	SEGMENT
__unwindtable$??$_Cons_val@V?$allocator@UAttackAttribute@@@std@@UAttackAttribute@@U3@@std@@YAXAAV?$allocator@UAttackAttribute@@@0@PAUAttackAttribute@@$$QAU2@@Z DD 0ffffffffH
	DD	FLAT:__unwindfunclet$??$_Cons_val@V?$allocator@UAttackAttribute@@@std@@UAttackAttribute@@U3@@std@@YAXAAV?$allocator@UAttackAttribute@@@0@PAUAttackAttribute@@$$QAU2@@Z$0
__ehfuncinfo$??$_Cons_val@V?$allocator@UAttackAttribute@@@std@@UAttackAttribute@@U3@@std@@YAXAAV?$allocator@UAttackAttribute@@@0@PAUAttackAttribute@@$$QAU2@@Z DD 019930522H
	DD	01H
	DD	FLAT:__unwindtable$??$_Cons_val@V?$allocator@UAttackAttribute@@@std@@UAttackAttribute@@U3@@std@@YAXAAV?$allocator@UAttackAttribute@@@0@PAUAttackAttribute@@$$QAU2@@Z
	DD	2 DUP(00H)
	DD	2 DUP(00H)
	DD	00H
	DD	01H
; Function compile flags: /Ogsp
; File c:\program files (x86)\microsoft visual studio 10.0\vc\include\xmemory
xdata$x	ENDS
;	COMDAT ??$_Cons_val@V?$allocator@UAttackAttribute@@@std@@UAttackAttribute@@U3@@std@@YAXAAV?$allocator@UAttackAttribute@@@0@PAUAttackAttribute@@$$QAU2@@Z
_TEXT	SEGMENT
$T619866 = -16						; size = 4
__$EHRec$ = -12						; size = 12
__Alval$ = 8						; size = 4
__Pdest$ = 12						; size = 4
__Src$ = 16						; size = 4
??$_Cons_val@V?$allocator@UAttackAttribute@@@std@@UAttackAttribute@@U3@@std@@YAXAAV?$allocator@UAttackAttribute@@@0@PAUAttackAttribute@@$$QAU2@@Z PROC ; std::_Cons_val<std::allocator<AttackAttribute>,AttackAttribute,AttackAttribute>, COMDAT

; 279  : 	{	// construct using allocator

  00000	6a 04		 push	 4
  00002	b8 00 00 00 00	 mov	 eax, __ehhandler$??$_Cons_val@V?$allocator@UAttackAttribute@@@std@@UAttackAttribute@@U3@@std@@YAXAAV?$allocator@UAttackAttribute@@@0@PAUAttackAttribute@@$$QAU2@@Z
  00007	e8 00 00 00 00	 call	 __EH_prolog3

; 280  : 	_Alval.construct(_Pdest, _STD forward<_Ty2>(_Src));

  0000c	8b 4d 0c	 mov	 ecx, DWORD PTR __Pdest$[ebp]
  0000f	89 4d f0	 mov	 DWORD PTR $T619866[ebp], ecx
  00012	83 65 fc 00	 and	 DWORD PTR __$EHRec$[ebp+8], 0
  00016	85 c9		 test	 ecx, ecx
  00018	74 08		 je	 SHORT $LN7@Cons_val@5
  0001a	ff 75 10	 push	 DWORD PTR __Src$[ebp]
  0001d	e8 00 00 00 00	 call	 ??0AttackAttribute@@QAE@ABU0@@Z
$LN7@Cons_val@5:

; 281  : 	}

  00022	e8 00 00 00 00	 call	 __EH_epilog3
  00027	c3		 ret	 0
_TEXT	ENDS
;	COMDAT text$x
text$x	SEGMENT
__unwindfunclet$??$_Cons_val@V?$allocator@UAttackAttribute@@@std@@UAttackAttribute@@U3@@std@@YAXAAV?$allocator@UAttackAttribute@@@0@PAUAttackAttribute@@$$QAU2@@Z$0:
  00000	ff 75 0c	 push	 DWORD PTR __Pdest$[ebp]
  00003	ff 75 f0	 push	 DWORD PTR $T619866[ebp]
  00006	e8 00 00 00 00	 call	 ??3@YAXPAX0@Z		; operator delete
  0000b	59		 pop	 ecx
  0000c	59		 pop	 ecx
  0000d	c3		 ret	 0
__ehhandler$??$_Cons_val@V?$allocator@UAttackAttribute@@@std@@UAttackAttribute@@U3@@std@@YAXAAV?$allocator@UAttackAttribute@@@0@PAUAttackAttribute@@$$QAU2@@Z:
  0000e	8b 54 24 08	 mov	 edx, DWORD PTR [esp+8]
  00012	8d 42 0c	 lea	 eax, DWORD PTR [edx+12]
  00015	8b 4a ec	 mov	 ecx, DWORD PTR [edx-20]
  00018	33 c8		 xor	 ecx, eax
  0001a	e8 00 00 00 00	 call	 @__security_check_cookie@4
  0001f	b8 00 00 00 00	 mov	 eax, OFFSET __ehfuncinfo$??$_Cons_val@V?$allocator@UAttackAttribute@@@std@@UAttackAttribute@@U3@@std@@YAXAAV?$allocator@UAttackAttribute@@@0@PAUAttackAttribute@@$$QAU2@@Z
  00024	e9 00 00 00 00	 jmp	 ___CxxFrameHandler3
text$x	ENDS
??$_Cons_val@V?$allocator@UAttackAttribute@@@std@@UAttackAttribute@@U3@@std@@YAXAAV?$allocator@UAttackAttribute@@@0@PAUAttackAttribute@@$$QAU2@@Z ENDP ; std::_Cons_val<std::allocator<AttackAttribute>,AttackAttribute,AttackAttribute>
PUBLIC	??$_Move@PAUAttackAttribute@@PAU1@@std@@YAPAUAttackAttribute@@PAU1@00U_Nonscalar_ptr_iterator_tag@0@@Z ; std::_Move<AttackAttribute *,AttackAttribute *>
; Function compile flags: /Ogsp
; File c:\program files (x86)\microsoft visual studio 10.0\vc\include\xutility
;	COMDAT ??$_Move@PAUAttackAttribute@@PAU1@@std@@YAPAUAttackAttribute@@PAU1@00U_Nonscalar_ptr_iterator_tag@0@@Z
_TEXT	SEGMENT
__First$ = 8						; size = 4
__Last$ = 12						; size = 4
__Dest$ = 16						; size = 4
___formal$ = 20						; size = 1
??$_Move@PAUAttackAttribute@@PAU1@@std@@YAPAUAttackAttribute@@PAU1@00U_Nonscalar_ptr_iterator_tag@0@@Z PROC ; std::_Move<AttackAttribute *,AttackAttribute *>, COMDAT

; 2512 : 	{	// move [_First, _Last) to [_Dest, ...), arbitrary iterators

  00000	55		 push	 ebp
  00001	8b ec		 mov	 ebp, esp
  00003	56		 push	 esi

; 2513 : 	for (; _First != _Last; ++_Dest, ++_First)

  00004	8b 75 08	 mov	 esi, DWORD PTR __First$[ebp]
  00007	eb 10		 jmp	 SHORT $LN11@Move@3
$LL3@Move@3:

; 2514 : 		*_Dest = _STD move(*_First);

  00009	8b 4d 10	 mov	 ecx, DWORD PTR __Dest$[ebp]
  0000c	56		 push	 esi
  0000d	e8 00 00 00 00	 call	 ??4AttackAttribute@@QAEAAU0@ABU0@@Z
  00012	83 45 10 50	 add	 DWORD PTR __Dest$[ebp], 80 ; 00000050H
  00016	83 c6 50	 add	 esi, 80			; 00000050H
$LN11@Move@3:

; 2513 : 	for (; _First != _Last; ++_Dest, ++_First)

  00019	3b 75 0c	 cmp	 esi, DWORD PTR __Last$[ebp]
  0001c	75 eb		 jne	 SHORT $LL3@Move@3

; 2515 : 	return (_Dest);

  0001e	8b 45 10	 mov	 eax, DWORD PTR __Dest$[ebp]
  00021	5e		 pop	 esi

; 2516 : 	}

  00022	5d		 pop	 ebp
  00023	c3		 ret	 0
??$_Move@PAUAttackAttribute@@PAU1@@std@@YAPAUAttackAttribute@@PAU1@00U_Nonscalar_ptr_iterator_tag@0@@Z ENDP ; std::_Move<AttackAttribute *,AttackAttribute *>
_TEXT	ENDS
PUBLIC	??$_Destroy@UAttackAttribute@@@std@@YAXPAUAttackAttribute@@@Z ; std::_Destroy<AttackAttribute>
; Function compile flags: /Ogsp
; File c:\program files (x86)\microsoft visual studio 10.0\vc\include\xmemory
;	COMDAT ??$_Destroy@UAttackAttribute@@@std@@YAXPAUAttackAttribute@@@Z
_TEXT	SEGMENT
__Ptr$ = 8						; size = 4
??$_Destroy@UAttackAttribute@@@std@@YAXPAUAttackAttribute@@@Z PROC ; std::_Destroy<AttackAttribute>, COMDAT

; 62   : 	{	// destroy object at _Ptr

  00000	55		 push	 ebp
  00001	8b ec		 mov	 ebp, esp

; 63   : 	_Ptr->~_Ty();

  00003	8b 4d 08	 mov	 ecx, DWORD PTR __Ptr$[ebp]

; 64   : 	}

  00006	5d		 pop	 ebp

; 63   : 	_Ptr->~_Ty();

  00007	e9 00 00 00 00	 jmp	 ??1AttackAttribute@@QAE@XZ
??$_Destroy@UAttackAttribute@@@std@@YAXPAUAttackAttribute@@@Z ENDP ; std::_Destroy<AttackAttribute>
_TEXT	ENDS
PUBLIC	_pChar$GSCopy$
PUBLIC	__$ArrayPad$
PUBLIC	?SetNextLinearCombo@ioLinearComboSkill2@@IAEXPAVioBaseChar@@_N@Z ; ioLinearComboSkill2::SetNextLinearCombo
EXTRN	??6SP2Packet@@QAEAAV0@_N@Z:PROC			; SP2Packet::operator<<
;	COMDAT xdata$x
; File d:\lost saga for developer\youtube\tutorial\source\src\lsclient\ioskill.h
xdata$x	SEGMENT
__ehfuncinfo$?SetNextLinearCombo@ioLinearComboSkill2@@IAEXPAVioBaseChar@@_N@Z DD 019930522H
	DD	07H
	DD	FLAT:__unwindtable$?SetNextLinearCombo@ioLinearComboSkill2@@IAEXPAVioBaseChar@@_N@Z
	DD	2 DUP(00H)
	DD	2 DUP(00H)
	DD	00H
	DD	01H
__unwindtable$?SetNextLinearCombo@ioLinearComboSkill2@@IAEXPAVioBaseChar@@_N@Z DD 0ffffffffH
	DD	FLAT:__unwindfunclet$?SetNextLinearCombo@ioLinearComboSkill2@@IAEXPAVioBaseChar@@_N@Z$0
	DD	00H
	DD	FLAT:__unwindfunclet$?SetNextLinearCombo@ioLinearComboSkill2@@IAEXPAVioBaseChar@@_N@Z$1
	DD	00H
	DD	FLAT:__unwindfunclet$?SetNextLinearCombo@ioLinearComboSkill2@@IAEXPAVioBaseChar@@_N@Z$3
	DD	00H
	DD	FLAT:__unwindfunclet$?SetNextLinearCombo@ioLinearComboSkill2@@IAEXPAVioBaseChar@@_N@Z$4
	DD	00H
	DD	FLAT:__unwindfunclet$?SetNextLinearCombo@ioLinearComboSkill2@@IAEXPAVioBaseChar@@_N@Z$5
	DD	00H
	DD	FLAT:__unwindfunclet$?SetNextLinearCombo@ioLinearComboSkill2@@IAEXPAVioBaseChar@@_N@Z$6
	DD	00H
	DD	FLAT:__unwindfunclet$?SetNextLinearCombo@ioLinearComboSkill2@@IAEXPAVioBaseChar@@_N@Z$2
; Function compile flags: /Ogsp
; File d:\lost saga for developer\youtube\tutorial\source\src\lsclient\iolinearcomboskill2.cpp
xdata$x	ENDS
;	COMDAT ?SetNextLinearCombo@ioLinearComboSkill2@@IAEXPAVioBaseChar@@_N@Z
_TEXT	SEGMENT
$T619899 = -33032					; size = 80
_kAttack$ = -32952					; size = 80
$T620448 = -32872					; size = 16
$T620302 = -32872					; size = 16
$T620183 = -32872					; size = 16
$T620058 = -32872					; size = 16
tv4029 = -32856						; size = 4
$T620447 = -32856					; size = 4
_pChar$GSCopy$ = -32856					; size = 4
_dwPreDelay$ = -32852					; size = 4
tv4138 = -32848						; size = 4
tv4120 = -32848						; size = 4
tv4107 = -32848						; size = 4
tv4101 = -32848						; size = 4
tv4086 = -32848						; size = 4
tv4044 = -32848						; size = 4
_fEndTimeRate$608513 = -32848				; size = 4
_fTimeRate$ = -32844					; size = 4
_iAniID$ = -32840					; size = 4
tv3629 = -32836						; size = 4
$T620300 = -32836					; size = 4
$T620181 = -32836					; size = 4
_value$619935 = -32836					; size = 4
_value$619925 = -32836					; size = 4
_fWaitTime$608512 = -32836				; size = 4
_fAttackEnd$ = -32836					; size = 4
_pGrp$ = -32832						; size = 4
_value$620462 = -32825					; size = 1
_value$619916 = -32825					; size = 1
_kPacket$608518 = -32824				; size = 32792
_szEncEventType$620348 = -32				; size = 11
_szEncEventType$620218 = -32				; size = 12
_szEncEventType$620088 = -32				; size = 11
_szEncEventType$619958 = -28				; size = 7
__$ArrayPad$ = -16					; size = 4
__$EHRec$ = -12						; size = 12
_pChar$ = 8						; size = 4
_bOther$ = 12						; size = 1
?SetNextLinearCombo@ioLinearComboSkill2@@IAEXPAVioBaseChar@@_N@Z PROC ; ioLinearComboSkill2::SetNextLinearCombo, COMDAT
; _this$ = ecx

; 525  : {

  00000	55		 push	 ebp
  00001	8b ec		 mov	 ebp, esp
  00003	6a ff		 push	 -1
  00005	68 00 00 00 00	 push	 __ehhandler$?SetNextLinearCombo@ioLinearComboSkill2@@IAEXPAVioBaseChar@@_N@Z
  0000a	64 a1 00 00 00
	00		 mov	 eax, DWORD PTR fs:0
  00010	50		 push	 eax
  00011	b8 fc 80 00 00	 mov	 eax, 33020		; 000080fcH
  00016	e8 00 00 00 00	 call	 __chkstk
  0001b	a1 00 00 00 00	 mov	 eax, DWORD PTR ___security_cookie
  00020	33 c5		 xor	 eax, ebp
  00022	89 45 f0	 mov	 DWORD PTR __$ArrayPad$[ebp], eax
  00025	53		 push	 ebx
  00026	56		 push	 esi
  00027	57		 push	 edi
  00028	50		 push	 eax
  00029	8d 45 f4	 lea	 eax, DWORD PTR __$EHRec$[ebp]
  0002c	64 a3 00 00 00
	00		 mov	 DWORD PTR fs:0, eax
  00032	8b 5d 08	 mov	 ebx, DWORD PTR _pChar$[ebp]
  00035	8b f1		 mov	 esi, ecx

; 627  : 	}
; 628  : 
; 629  : 	pChar->CheckCharColSkipSkillTime( iAniID, fTimeRate, dwPreDelay );

  00037	89 9d a8 7f ff
	ff		 mov	 DWORD PTR _pChar$GSCopy$[ebp], ebx
  0003d	85 db		 test	 ebx, ebx
  0003f	0f 84 b2 08 00
	00		 je	 $LN18@SetNextLin

; 526  : 	if( !pChar ) return;
; 527  : 
; 528  : 	m_dwEnableReserveTime = 0;
; 529  : 	pChar->ClearSkillReserveKey();

  00045	83 a6 dc 02 00
	00 00		 and	 DWORD PTR [esi+732], 0
  0004c	8b cb		 mov	 ecx, ebx
  0004e	e8 00 00 00 00	 call	 ?ClearSkillReserveKey@ioBaseChar@@QAEXXZ ; ioBaseChar::ClearSkillReserveKey

; 530  : 
; 531  : 	const AttributeList &rkComboList = GetComboList();

  00053	8b ce		 mov	 ecx, esi
  00055	e8 00 00 00 00	 call	 ?GetComboList@ioLinearComboSkill2@@IAEABV?$vector@UAttackAttribute@@V?$allocator@UAttackAttribute@@@std@@@std@@XZ ; ioLinearComboSkill2::GetComboList
  0005a	8b f8		 mov	 edi, eax

; 532  : 
; 533  : 	int iMaxCombo = rkComboList.size();

  0005c	8b 47 04	 mov	 eax, DWORD PTR [edi+4]
  0005f	2b 07		 sub	 eax, DWORD PTR [edi]
  00061	6a 50		 push	 80			; 00000050H
  00063	99		 cdq
  00064	59		 pop	 ecx
  00065	f7 f9		 idiv	 ecx

; 534  : 	if( !COMPARE( m_iCurLinearCombo, 0, iMaxCombo ) )

  00067	8b 8e 68 11 00
	00		 mov	 ecx, DWORD PTR [esi+4456]
  0006d	85 c9		 test	 ecx, ecx
  0006f	0f 88 82 08 00
	00		 js	 $LN18@SetNextLin
  00075	3b c8		 cmp	 ecx, eax
  00077	0f 8d 7a 08 00
	00		 jge	 $LN18@SetNextLin

; 535  : 		return;
; 536  : 
; 537  : 	m_SkillState = SS_COMBO;
; 538  : 	m_CurDirKey = ioUserKeyInput::DKI_NONE;

  0007d	83 a6 04 13 00
	00 00		 and	 DWORD PTR [esi+4868], 0

; 539  : 
; 540  : 	/*if( pChar->IsNeedProcess() && pChar->IsSettedDirection() && m_bUseChangeDirection )
; 541  : 	{
; 542  : 		ioUserKeyInput::DirKeyInput eNewDirKey = pChar->CheckCurDirKey();
; 543  : 		m_CurDirKey = eNewDirKey;
; 544  : 		pChar->SetTargetRotToDirKey( eNewDirKey );
; 545  : 	}*/
; 546  : 
; 547  : 	ioEntityGroup *pGrp = pChar->GetGroup();
; 548  : 	AttackAttribute kAttack = rkComboList[m_iCurLinearCombo];

  00084	6b c9 50	 imul	 ecx, 80			; 00000050H
  00087	c7 86 e4 10 00
	00 02 00 00 00	 mov	 DWORD PTR [esi+4324], 2
  00091	03 0f		 add	 ecx, DWORD PTR [edi]
  00093	8b 43 04	 mov	 eax, DWORD PTR [ebx+4]
  00096	51		 push	 ecx
  00097	8d 8d 48 7f ff
	ff		 lea	 ecx, DWORD PTR _kAttack$[ebp]
  0009d	89 85 c0 7f ff
	ff		 mov	 DWORD PTR _pGrp$[ebp], eax
  000a3	e8 00 00 00 00	 call	 ??0AttackAttribute@@QAE@ABU0@@Z
  000a8	83 65 fc 00	 and	 DWORD PTR __$EHRec$[ebp+8], 0

; 549  : 
; 550  : 	if( bOther )

  000ac	80 7d 0c 00	 cmp	 BYTE PTR _bOther$[ebp], 0
  000b0	74 2d		 je	 SHORT $LN17@SetNextLin

; 551  : 		kAttack = GetEndAttribute();

  000b2	8d 85 f8 7e ff
	ff		 lea	 eax, DWORD PTR $T619899[ebp]
  000b8	50		 push	 eax
  000b9	8b ce		 mov	 ecx, esi
  000bb	e8 00 00 00 00	 call	 ?GetEndAttribute@ioLinearComboSkill2@@IAE?AUAttackAttribute@@XZ ; ioLinearComboSkill2::GetEndAttribute
  000c0	50		 push	 eax
  000c1	8d 8d 48 7f ff
	ff		 lea	 ecx, DWORD PTR _kAttack$[ebp]
  000c7	c6 45 fc 01	 mov	 BYTE PTR __$EHRec$[ebp+8], 1
  000cb	e8 00 00 00 00	 call	 ??4AttackAttribute@@QAEAAU0@ABU0@@Z
  000d0	8d 8d f8 7e ff
	ff		 lea	 ecx, DWORD PTR $T619899[ebp]
  000d6	c6 45 fc 00	 mov	 BYTE PTR __$EHRec$[ebp+8], 0
  000da	e8 00 00 00 00	 call	 ??1AttackAttribute@@QAE@XZ
$LN17@SetNextLin:

; 552  : 
; 553  : 	int iAniID = pGrp->GetAnimationIdx( kAttack.m_AttackAnimation );

  000df	8b 8d c0 7f ff
	ff		 mov	 ecx, DWORD PTR _pGrp$[ebp]
  000e5	8d 85 48 7f ff
	ff		 lea	 eax, DWORD PTR _kAttack$[ebp]
  000eb	50		 push	 eax
  000ec	ff 15 00 00 00
	00		 call	 DWORD PTR __imp_?GetAnimationIdx@ioEntityGroup@@QAEHABVioHashString@@@Z
  000f2	89 85 b8 7f ff
	ff		 mov	 DWORD PTR _iAniID$[ebp], eax

; 554  : 	if( iAniID == -1 )	return;

  000f8	83 f8 ff	 cmp	 eax, -1
  000fb	0f 84 e7 07 00
	00		 je	 $LN1@SetNextLin

; 555  : 
; 556  : 	pChar->InitActionStopDelay( true );

  00101	6a 01		 push	 1
  00103	8b cb		 mov	 ecx, ebx
  00105	e8 00 00 00 00	 call	 ?InitActionStopDelay@ioBaseChar@@QAEX_N@Z ; ioBaseChar::InitActionStopDelay

; 557  : 
; 558  : 	if( m_bNoGravityCombo )

  0010a	8d 85 c7 7f ff
	ff		 lea	 eax, DWORD PTR _value$619916[ebp]
  00110	50		 push	 eax
  00111	8d 8e 74 12 00
	00		 lea	 ecx, DWORD PTR [esi+4724]
  00117	e8 00 00 00 00	 call	 ?DecryptValueToPool@?$CEncrypt@_N@@QAEXPA_N@Z ; CEncrypt<bool>::DecryptValueToPool
  0011c	80 bd c7 7f ff
	ff 00		 cmp	 BYTE PTR _value$619916[ebp], 0
  00123	74 45		 je	 SHORT $LN42@SetNextLin

; 559  : 	{
; 560  : 		pChar->SetGravityAmt( 0.0f );

  00125	0f 57 c0	 xorps	 xmm0, xmm0
  00128	8d 85 bc 7f ff
	ff		 lea	 eax, DWORD PTR _value$619925[ebp]
  0012e	50		 push	 eax
  0012f	8d 8b e8 0b 00
	00		 lea	 ecx, DWORD PTR [ebx+3048]
  00135	f3 0f 11 85 bc
	7f ff ff	 movss	 DWORD PTR _value$619925[ebp], xmm0
  0013d	e8 00 00 00 00	 call	 ?EncryptValueToPool@?$CEncrypt@M@@AAEXPBD@Z ; CEncrypt<float>::EncryptValueToPool

; 561  : 		pChar->SetForcePowerAmt( 0.0f );

  00142	0f 57 c0	 xorps	 xmm0, xmm0
  00145	8d 85 bc 7f ff
	ff		 lea	 eax, DWORD PTR _value$619935[ebp]
  0014b	50		 push	 eax
  0014c	8d 8b 88 0b 00
	00		 lea	 ecx, DWORD PTR [ebx+2952]
  00152	f3 0f 11 85 bc
	7f ff ff	 movss	 DWORD PTR _value$619935[ebp], xmm0
  0015a	e8 00 00 00 00	 call	 ?EncryptValueToPool@?$CEncrypt@M@@AAEXPBD@Z ; CEncrypt<float>::EncryptValueToPool

; 562  : 		pChar->SetCurJumpPowerAmt( 0.0f );

  0015f	0f 57 c0	 xorps	 xmm0, xmm0
  00162	f3 0f 11 83 90
	0e 00 00	 movss	 DWORD PTR [ebx+3728], xmm0
$LN42@SetNextLin:

; 563  : 	}
; 564  : 
; 565  : 	float fTimeRate = kAttack.m_fAttackAniRate;

  0016a	f3 0f 10 85 58
	7f ff ff	 movss	 xmm0, DWORD PTR _kAttack$[ebp+16]

; 566  : 	DWORD dwPreDelay = kAttack.m_dwPreDelay;

  00172	8b bd 90 7f ff
	ff		 mov	 edi, DWORD PTR _kAttack$[ebp+72]

; 567  : 
; 568  : 	pGrp->ClearAllLoopAni( 100.0f, true );

  00178	6a 01		 push	 1
  0017a	51		 push	 ecx
  0017b	8b 8d c0 7f ff
	ff		 mov	 ecx, DWORD PTR _pGrp$[ebp]
  00181	f3 0f 11 85 b4
	7f ff ff	 movss	 DWORD PTR _fTimeRate$[ebp], xmm0
  00189	f3 0f 10 05 00
	00 00 00	 movss	 xmm0, DWORD PTR __real@42c80000
  00191	89 bd ac 7f ff
	ff		 mov	 DWORD PTR _dwPreDelay$[ebp], edi
  00197	f3 0f 11 04 24	 movss	 DWORD PTR [esp], xmm0
  0019c	ff 15 00 00 00
	00		 call	 DWORD PTR __imp_?ClearAllLoopAni@ioEntityGroup@@QAEXM_N@Z

; 569  : 	pGrp->ClearAllActionAni( 100.0f, true );

  001a2	f3 0f 10 05 00
	00 00 00	 movss	 xmm0, DWORD PTR __real@42c80000
  001aa	6a 01		 push	 1
  001ac	51		 push	 ecx
  001ad	8b 8d c0 7f ff
	ff		 mov	 ecx, DWORD PTR _pGrp$[ebp]
  001b3	f3 0f 11 04 24	 movss	 DWORD PTR [esp], xmm0
  001b8	ff 15 00 00 00
	00		 call	 DWORD PTR __imp_?ClearAllActionAni@ioEntityGroup@@QAEXM_N@Z

; 570  : 
; 571  : 	if( IsUseAutoTargetValue() )

  001be	8b 06		 mov	 eax, DWORD PTR [esi]
  001c0	8b ce		 mov	 ecx, esi
  001c2	ff 90 e0 00 00
	00		 call	 DWORD PTR [eax+224]
  001c8	84 c0		 test	 al, al
  001ca	74 09		 je	 SHORT $LN14@SetNextLin

; 572  : 	{
; 573  : 		pChar->SetAutoTarget( ATT_SKILL );

  001cc	6a 04		 push	 4
  001ce	8b cb		 mov	 ecx, ebx
  001d0	e8 00 00 00 00	 call	 ?SetAutoTarget@ioBaseChar@@QAEXW4AutoTargetType@@@Z ; ioBaseChar::SetAutoTarget
$LN14@SetNextLin:

; 574  : 	}
; 575  : 
; 576  : 	if( m_bRefreshFireTimeList )

  001d5	80 be 44 10 00
	00 00		 cmp	 BYTE PTR [esi+4164], 0
  001dc	74 44		 je	 SHORT $LN13@SetNextLin

; 577  : 	{
; 578  : 		if( m_iCurLinearCombo == 0 )

  001de	83 be 68 11 00
	00 00		 cmp	 DWORD PTR [esi+4456], 0
  001e5	75 0a		 jne	 SHORT $LN12@SetNextLin

; 579  : 			m_dwWeaponBaseIndex = pChar->IncreaseWeaponIndexBase();

  001e7	8b cb		 mov	 ecx, ebx
  001e9	e8 00 00 00 00	 call	 ?IncreaseWeaponIndexBase@ioBaseChar@@QAEKXZ ; ioBaseChar::IncreaseWeaponIndexBase
  001ee	89 46 78	 mov	 DWORD PTR [esi+120], eax
$LN12@SetNextLin:

; 580  : 
; 581  : 		pChar->RefreshFireTimeListWithBase( m_dwWeaponBaseIndex+m_iCurLinearCombo,
; 582  : 			iAniID,
; 583  : 			kAttack.m_vWeaponInfoList,
; 584  : 			FTT_SKILL_ATTACK,
; 585  : 			fTimeRate,
; 586  : 			dwPreDelay );

  001f1	f3 0f 10 85 b4
	7f ff ff	 movss	 xmm0, DWORD PTR _fTimeRate$[ebp]
  001f9	6a 00		 push	 0
  001fb	57		 push	 edi
  001fc	51		 push	 ecx
  001fd	f3 0f 11 04 24	 movss	 DWORD PTR [esp], xmm0
  00202	6a 04		 push	 4
  00204	8d 85 70 7f ff
	ff		 lea	 eax, DWORD PTR _kAttack$[ebp+40]
  0020a	50		 push	 eax
  0020b	8b 46 78	 mov	 eax, DWORD PTR [esi+120]
  0020e	ff b5 b8 7f ff
	ff		 push	 DWORD PTR _iAniID$[ebp]
  00214	03 86 68 11 00
	00		 add	 eax, DWORD PTR [esi+4456]
  0021a	8b cb		 mov	 ecx, ebx
  0021c	50		 push	 eax
  0021d	e8 00 00 00 00	 call	 ?RefreshFireTimeListWithBase@ioBaseChar@@QAEXKHABV?$vector@UWeaponInfo@@V?$allocator@UWeaponInfo@@@std@@@std@@W4FireTimeType@@MK_N@Z ; ioBaseChar::RefreshFireTimeListWithBase
$LN13@SetNextLin:

; 587  : 	}
; 588  : 
; 589  : 	DWORD dwCurTime = FRAMEGETTIME();

  00222	ff 15 00 00 00
	00		 call	 DWORD PTR __imp_?GetSingleton@ioFrameTimer@@SAAAV1@XZ
  00228	8b c8		 mov	 ecx, eax
  0022a	ff 15 00 00 00
	00		 call	 DWORD PTR __imp_?GetLoopSec@ioFrameTimer@@QBEKXZ

; 590  : 	m_dwMotionEndTime = dwCurTime;
; 591  : 	m_dwMotionEndTime += pGrp->GetAnimationFullTime( iAniID ) * fTimeRate;

  00230	ff b5 b8 7f ff
	ff		 push	 DWORD PTR _iAniID$[ebp]
  00236	8b 8d c0 7f ff
	ff		 mov	 ecx, DWORD PTR _pGrp$[ebp]
  0023c	8b d8		 mov	 ebx, eax
  0023e	89 9e d8 02 00
	00		 mov	 DWORD PTR [esi+728], ebx
  00244	ff 15 00 00 00
	00		 call	 DWORD PTR __imp_?GetAnimationFullTime@ioEntityGroup@@QAEMH@Z

; 592  : 	m_dwMotionEndTime += dwPreDelay + kAttack.m_dwEndDelay;

  0024a	d8 8d b4 7f ff
	ff		 fmul	 DWORD PTR _fTimeRate$[ebp]
  00250	8b 86 d8 02 00
	00		 mov	 eax, DWORD PTR [esi+728]
  00256	db 86 d8 02 00
	00		 fild	 DWORD PTR [esi+728]
  0025c	85 c0		 test	 eax, eax
  0025e	79 06		 jns	 SHORT $LN497@SetNextLin
  00260	dc 05 00 00 00
	00		 fadd	 QWORD PTR __real@41f0000000000000
$LN497@SetNextLin:

; 590  : 	m_dwMotionEndTime = dwCurTime;
; 591  : 	m_dwMotionEndTime += pGrp->GetAnimationFullTime( iAniID ) * fTimeRate;

  00266	de c1		 faddp	 ST(1), ST(0)

; 592  : 	m_dwMotionEndTime += dwPreDelay + kAttack.m_dwEndDelay;

  00268	e8 00 00 00 00	 call	 __ftol2
  0026d	03 85 94 7f ff
	ff		 add	 eax, DWORD PTR _kAttack$[ebp+76]

; 593  : 
; 594  : 	DWORD dwFireStartTime;
; 595  : 	dwFireStartTime = dwCurTime;
; 596  : 
; 597  : 	dwFireStartTime += dwPreDelay;
; 598  : 	dwFireStartTime += pGrp->GetAnimationEventTime_e( iAniID, "fire_s" ) * fTimeRate;

  00273	6a 04		 push	 4
  00275	03 c7		 add	 eax, edi
  00277	89 86 d8 02 00
	00		 mov	 DWORD PTR [esi+728], eax
  0027d	c7 45 e4 8b 85
	99 8f		 mov	 DWORD PTR _szEncEventType$619958[ebp], -1885764213 ; 8f99858bH
  00284	81 75 e4 ed ec
	eb ea		 xor	 DWORD PTR _szEncEventType$619958[ebp], -353637139 ; eaebecedH
  0028b	66 c7 45 e8 b2
	9f		 mov	 WORD PTR _szEncEventType$619958[ebp+4], 40882 ; 00009fb2H
  00291	c6 45 ea 00	 mov	 BYTE PTR _szEncEventType$619958[ebp+6], 0
  00295	58		 pop	 eax
$LL145@SetNextLin:
  00296	8b c8		 mov	 ecx, eax
  00298	81 e1 03 00 00
	80		 and	 ecx, -2147483645	; 80000003H
  0029e	79 05		 jns	 SHORT $LN498@SetNextLin
  002a0	49		 dec	 ecx
  002a1	83 c9 fc	 or	 ecx, -4			; fffffffcH
  002a4	41		 inc	 ecx
$LN498@SetNextLin:
  002a5	b2 ed		 mov	 dl, -19			; ffffffedH
  002a7	2a d1		 sub	 dl, cl
  002a9	30 54 05 e4	 xor	 BYTE PTR _szEncEventType$619958[ebp+eax], dl
  002ad	40		 inc	 eax
  002ae	83 f8 06	 cmp	 eax, 6
  002b1	7c e3		 jl	 SHORT $LL145@SetNextLin
  002b3	8d 45 e4	 lea	 eax, DWORD PTR _szEncEventType$619958[ebp]
  002b6	50		 push	 eax
  002b7	8d 8d 98 7f ff
	ff		 lea	 ecx, DWORD PTR $T620058[ebp]
  002bd	ff 15 00 00 00
	00		 call	 DWORD PTR __imp_??0ioHashString@@QAE@PBD@Z
  002c3	8b 8d c0 7f ff
	ff		 mov	 ecx, DWORD PTR _pGrp$[ebp]
  002c9	8d 85 98 7f ff
	ff		 lea	 eax, DWORD PTR $T620058[ebp]
  002cf	50		 push	 eax
  002d0	ff b5 b8 7f ff
	ff		 push	 DWORD PTR _iAniID$[ebp]
  002d6	c6 45 fc 02	 mov	 BYTE PTR __$EHRec$[ebp+8], 2
  002da	ff 15 00 00 00
	00		 call	 DWORD PTR __imp_?GetAnimationEventTime@ioEntityGroup@@QAEMHABVioHashString@@@Z
  002e0	dd d8		 fstp	 ST(0)
  002e2	8d 8d 98 7f ff
	ff		 lea	 ecx, DWORD PTR $T620058[ebp]
  002e8	c6 45 fc 00	 mov	 BYTE PTR __$EHRec$[ebp+8], 0
  002ec	ff 15 00 00 00
	00		 call	 DWORD PTR __imp_??1ioHashString@@QAE@XZ
  002f2	6a 02		 push	 2

; 599  : 
; 600  : 	float fAttackEnd = pGrp->GetAnimationEventTime_e( iAniID, "attack_end" ) * fTimeRate;

  002f4	c7 45 e0 8c 98
	9f 8b		 mov	 DWORD PTR _szEncEventType$620088[ebp], -1952474996 ; 8b9f988cH
  002fb	c7 45 e4 8e 87
	b4 8f		 mov	 DWORD PTR _szEncEventType$620088[ebp+4], -1883994226 ; 8fb4878eH
  00302	66 c7 45 e8 83
	88		 mov	 WORD PTR _szEncEventType$620088[ebp+8], 34947 ; 00008883H
  00308	8d 45 e0	 lea	 eax, DWORD PTR _szEncEventType$620088[ebp]
  0030b	c6 45 ea 00	 mov	 BYTE PTR _szEncEventType$620088[ebp+10], 0
  0030f	59		 pop	 ecx
$LL255@SetNextLin:
  00310	81 30 ed ec eb
	ea		 xor	 DWORD PTR [eax], -353637139 ; eaebecedH
  00316	83 c0 04	 add	 eax, 4
  00319	49		 dec	 ecx
  0031a	75 f4		 jne	 SHORT $LL255@SetNextLin
  0031c	6a 08		 push	 8
  0031e	58		 pop	 eax
$LL252@SetNextLin:
  0031f	8b c8		 mov	 ecx, eax
  00321	81 e1 03 00 00
	80		 and	 ecx, -2147483645	; 80000003H
  00327	79 05		 jns	 SHORT $LN499@SetNextLin
  00329	49		 dec	 ecx
  0032a	83 c9 fc	 or	 ecx, -4			; fffffffcH
  0032d	41		 inc	 ecx
$LN499@SetNextLin:
  0032e	b2 ed		 mov	 dl, -19			; ffffffedH
  00330	2a d1		 sub	 dl, cl
  00332	30 54 05 e0	 xor	 BYTE PTR _szEncEventType$620088[ebp+eax], dl
  00336	40		 inc	 eax
  00337	83 f8 0a	 cmp	 eax, 10			; 0000000aH
  0033a	7c e3		 jl	 SHORT $LL252@SetNextLin
  0033c	8d 45 e0	 lea	 eax, DWORD PTR _szEncEventType$620088[ebp]
  0033f	50		 push	 eax
  00340	8d 8d 98 7f ff
	ff		 lea	 ecx, DWORD PTR $T620183[ebp]
  00346	ff 15 00 00 00
	00		 call	 DWORD PTR __imp_??0ioHashString@@QAE@PBD@Z
  0034c	8b 8d c0 7f ff
	ff		 mov	 ecx, DWORD PTR _pGrp$[ebp]
  00352	8d 85 98 7f ff
	ff		 lea	 eax, DWORD PTR $T620183[ebp]
  00358	50		 push	 eax
  00359	ff b5 b8 7f ff
	ff		 push	 DWORD PTR _iAniID$[ebp]
  0035f	c6 45 fc 03	 mov	 BYTE PTR __$EHRec$[ebp+8], 3
  00363	ff 15 00 00 00
	00		 call	 DWORD PTR __imp_?GetAnimationEventTime@ioEntityGroup@@QAEMHABVioHashString@@@Z
  00369	d9 9d bc 7f ff
	ff		 fstp	 DWORD PTR $T620181[ebp]
  0036f	8d 8d 98 7f ff
	ff		 lea	 ecx, DWORD PTR $T620183[ebp]
  00375	c6 45 fc 00	 mov	 BYTE PTR __$EHRec$[ebp+8], 0
  00379	ff 15 00 00 00
	00		 call	 DWORD PTR __imp_??1ioHashString@@QAE@XZ
  0037f	f3 0f 10 85 bc
	7f ff ff	 movss	 xmm0, DWORD PTR $T620181[ebp]
  00387	f3 0f 10 8d b4
	7f ff ff	 movss	 xmm1, DWORD PTR _fTimeRate$[ebp]
  0038f	0f 5a c0	 cvtps2pd xmm0, xmm0
  00392	0f 5a c9	 cvtps2pd xmm1, xmm1
  00395	f2 0f 59 c1	 mulsd	 xmm0, xmm1
  00399	66 0f 5a c0	 cvtpd2ps xmm0, xmm0

; 601  : 	if( fAttackEnd > 0.0f )

  0039d	0f 2f 05 00 00
	00 00		 comiss	 xmm0, DWORD PTR __real@00000000
  003a4	f3 0f 11 85 bc
	7f ff ff	 movss	 DWORD PTR _fAttackEnd$[ebp], xmm0
  003ac	76 2b		 jbe	 SHORT $LN11@SetNextLin

; 602  : 		m_dwAttackEndTime = dwCurTime + fAttackEnd;

  003ae	8b c3		 mov	 eax, ebx
  003b0	89 85 b0 7f ff
	ff		 mov	 DWORD PTR tv4120[ebp], eax
  003b6	db 85 b0 7f ff
	ff		 fild	 DWORD PTR tv4120[ebp]
  003bc	85 c0		 test	 eax, eax
  003be	79 06		 jns	 SHORT $LN500@SetNextLin
  003c0	d8 05 00 00 00
	00		 fadd	 DWORD PTR __real@4f800000
$LN500@SetNextLin:
  003c6	d8 85 bc 7f ff
	ff		 fadd	 DWORD PTR _fAttackEnd$[ebp]
  003cc	e8 00 00 00 00	 call	 __ftol2
  003d1	89 86 50 10 00
	00		 mov	 DWORD PTR [esi+4176], eax

; 603  : 	else

  003d7	eb 07		 jmp	 SHORT $LN10@SetNextLin
$LN11@SetNextLin:

; 604  : 		m_dwAttackEndTime = 0;

  003d9	83 a6 50 10 00
	00 00		 and	 DWORD PTR [esi+4176], 0
$LN10@SetNextLin:

; 605  : 
; 606  : 	m_dwEnableReserveTime = dwCurTime;

  003e0	6a 02		 push	 2
  003e2	89 9e dc 02 00
	00		 mov	 DWORD PTR [esi+732], ebx

; 607  : 	m_dwEnableReserveTime += pGrp->GetAnimationEventTime_e( iAniID, "key_reserve" ) * fTimeRate;

  003e8	c7 45 e0 86 89
	92 b5		 mov	 DWORD PTR _szEncEventType$620218[ebp], -1248687738 ; b5928986H
  003ef	c7 45 e4 9f 89
	98 8f		 mov	 DWORD PTR _szEncEventType$620218[ebp+4], -1885828705 ; 8f98899fH
  003f6	8d 45 e0	 lea	 eax, DWORD PTR _szEncEventType$620218[ebp]
  003f9	c7 45 e8 9f 9a
	8e 00		 mov	 DWORD PTR _szEncEventType$620218[ebp+8], 9345695 ; 008e9a9fH
  00400	59		 pop	 ecx
$LL362@SetNextLin:
  00401	81 30 ed ec eb
	ea		 xor	 DWORD PTR [eax], -353637139 ; eaebecedH
  00407	83 c0 04	 add	 eax, 4
  0040a	49		 dec	 ecx
  0040b	75 f4		 jne	 SHORT $LL362@SetNextLin
  0040d	6a 08		 push	 8
  0040f	58		 pop	 eax
$LL359@SetNextLin:
  00410	8b c8		 mov	 ecx, eax
  00412	81 e1 03 00 00
	80		 and	 ecx, -2147483645	; 80000003H
  00418	79 05		 jns	 SHORT $LN501@SetNextLin
  0041a	49		 dec	 ecx
  0041b	83 c9 fc	 or	 ecx, -4			; fffffffcH
  0041e	41		 inc	 ecx
$LN501@SetNextLin:
  0041f	b2 ed		 mov	 dl, -19			; ffffffedH
  00421	2a d1		 sub	 dl, cl
  00423	30 54 05 e0	 xor	 BYTE PTR _szEncEventType$620218[ebp+eax], dl
  00427	40		 inc	 eax
  00428	83 f8 0b	 cmp	 eax, 11			; 0000000bH
  0042b	7c e3		 jl	 SHORT $LL359@SetNextLin
  0042d	8d 45 e0	 lea	 eax, DWORD PTR _szEncEventType$620218[ebp]
  00430	50		 push	 eax
  00431	8d 8d 98 7f ff
	ff		 lea	 ecx, DWORD PTR $T620302[ebp]
  00437	ff 15 00 00 00
	00		 call	 DWORD PTR __imp_??0ioHashString@@QAE@PBD@Z
  0043d	8b 8d c0 7f ff
	ff		 mov	 ecx, DWORD PTR _pGrp$[ebp]
  00443	8d 85 98 7f ff
	ff		 lea	 eax, DWORD PTR $T620302[ebp]
  00449	50		 push	 eax
  0044a	ff b5 b8 7f ff
	ff		 push	 DWORD PTR _iAniID$[ebp]
  00450	c6 45 fc 04	 mov	 BYTE PTR __$EHRec$[ebp+8], 4
  00454	ff 15 00 00 00
	00		 call	 DWORD PTR __imp_?GetAnimationEventTime@ioEntityGroup@@QAEMHABVioHashString@@@Z
  0045a	d9 9d bc 7f ff
	ff		 fstp	 DWORD PTR $T620300[ebp]
  00460	8d 8d 98 7f ff
	ff		 lea	 ecx, DWORD PTR $T620302[ebp]
  00466	c6 45 fc 00	 mov	 BYTE PTR __$EHRec$[ebp+8], 0
  0046a	ff 15 00 00 00
	00		 call	 DWORD PTR __imp_??1ioHashString@@QAE@XZ
  00470	d9 85 bc 7f ff
	ff		 fld	 DWORD PTR $T620300[ebp]
  00476	8b 86 dc 02 00
	00		 mov	 eax, DWORD PTR [esi+732]
  0047c	d8 8d b4 7f ff
	ff		 fmul	 DWORD PTR _fTimeRate$[ebp]
  00482	db 86 dc 02 00
	00		 fild	 DWORD PTR [esi+732]
  00488	85 c0		 test	 eax, eax
  0048a	79 06		 jns	 SHORT $LN502@SetNextLin
  0048c	dc 05 00 00 00
	00		 fadd	 QWORD PTR __real@41f0000000000000
$LN502@SetNextLin:
  00492	de c1		 faddp	 ST(1), ST(0)
  00494	e8 00 00 00 00	 call	 __ftol2

; 608  : 
; 609  : 	if( kAttack.m_AttackEndAnimation.IsEmpty() )

  00499	8d 8d 5c 7f ff
	ff		 lea	 ecx, DWORD PTR _kAttack$[ebp+20]
  0049f	89 86 dc 02 00
	00		 mov	 DWORD PTR [esi+732], eax
  004a5	ff 15 00 00 00
	00		 call	 DWORD PTR __imp_?IsEmpty@ioHashString@@QBE_NXZ

; 610  : 	{
; 611  : 		pGrp->SetActionAni( iAniID, 100.0f, 100.0f, 1.0f, 1.0f/fTimeRate, 0.0f, dwPreDelay, true );

  004ab	db 85 ac 7f ff
	ff		 fild	 DWORD PTR _dwPreDelay$[ebp]
  004b1	84 c0		 test	 al, al
  004b3	8b 85 ac 7f ff
	ff		 mov	 eax, DWORD PTR _dwPreDelay$[ebp]
  004b9	74 77		 je	 SHORT $LN9@SetNextLin
  004bb	6a 01		 push	 1
  004bd	6a 01		 push	 1
  004bf	85 c0		 test	 eax, eax
  004c1	79 06		 jns	 SHORT $LN503@SetNextLin
  004c3	d8 05 00 00 00
	00		 fadd	 DWORD PTR __real@4f800000
$LN503@SetNextLin:
  004c9	0f 57 c0	 xorps	 xmm0, xmm0
  004cc	f2 0f 10 0d 00
	00 00 00	 movsd	 xmm1, QWORD PTR __real@3ff0000000000000
  004d4	8b 8d c0 7f ff
	ff		 mov	 ecx, DWORD PTR _pGrp$[ebp]
  004da	83 ec 18	 sub	 esp, 24			; 00000018H
  004dd	d9 5c 24 14	 fstp	 DWORD PTR [esp+20]
  004e1	f3 0f 11 44 24
	10		 movss	 DWORD PTR [esp+16], xmm0
  004e7	f3 0f 10 85 b4
	7f ff ff	 movss	 xmm0, DWORD PTR _fTimeRate$[ebp]
  004ef	0f 5a c0	 cvtps2pd xmm0, xmm0
  004f2	f2 0f 5e c8	 divsd	 xmm1, xmm0
  004f6	66 0f 5a c1	 cvtpd2ps xmm0, xmm1
  004fa	f3 0f 11 44 24
	0c		 movss	 DWORD PTR [esp+12], xmm0
  00500	f3 0f 10 05 00
	00 00 00	 movss	 xmm0, DWORD PTR __real@3f800000
  00508	f3 0f 11 44 24
	08		 movss	 DWORD PTR [esp+8], xmm0
  0050e	f3 0f 10 05 00
	00 00 00	 movss	 xmm0, DWORD PTR __real@42c80000
  00516	f3 0f 11 44 24
	04		 movss	 DWORD PTR [esp+4], xmm0
  0051c	f3 0f 11 04 24	 movss	 DWORD PTR [esp], xmm0
  00521	ff b5 b8 7f ff
	ff		 push	 DWORD PTR _iAniID$[ebp]
  00527	ff 15 00 00 00
	00		 call	 DWORD PTR __imp_?SetActionAni@ioEntityGroup@@QAE_NHMMMMMM_N0@Z

; 612  : 	}
; 613  : 	else

  0052d	e9 6e 01 00 00	 jmp	 $LN8@SetNextLin
$LN9@SetNextLin:

; 614  : 	{
; 615  : 		pGrp->SetActionAni( iAniID, 100.0f, 0.0f, 1.0f, 1.0f/fTimeRate, 0.0f, dwPreDelay );

  00532	85 c0		 test	 eax, eax
  00534	79 06		 jns	 SHORT $LN504@SetNextLin
  00536	d8 05 00 00 00
	00		 fadd	 DWORD PTR __real@4f800000
$LN504@SetNextLin:
  0053c	f3 0f 10 8d b4
	7f ff ff	 movss	 xmm1, DWORD PTR _fTimeRate$[ebp]
  00544	d9 9d bc 7f ff
	ff		 fstp	 DWORD PTR tv3629[ebp]
  0054a	f3 0f 10 85 bc
	7f ff ff	 movss	 xmm0, DWORD PTR tv3629[ebp]
  00552	f2 0f 10 15 00
	00 00 00	 movsd	 xmm2, QWORD PTR __real@3ff0000000000000
  0055a	8b 8d c0 7f ff
	ff		 mov	 ecx, DWORD PTR _pGrp$[ebp]
  00560	6a 01		 push	 1
  00562	0f 5a c9	 cvtps2pd xmm1, xmm1
  00565	6a 00		 push	 0
  00567	83 ec 18	 sub	 esp, 24			; 00000018H
  0056a	f3 0f 11 44 24
	14		 movss	 DWORD PTR [esp+20], xmm0
  00570	0f 57 c0	 xorps	 xmm0, xmm0
  00573	f3 0f 11 44 24
	10		 movss	 DWORD PTR [esp+16], xmm0
  00579	f2 0f 5e d1	 divsd	 xmm2, xmm1
  0057d	66 0f 5a ca	 cvtpd2ps xmm1, xmm2
  00581	f3 0f 11 4c 24
	0c		 movss	 DWORD PTR [esp+12], xmm1
  00587	f3 0f 10 0d 00
	00 00 00	 movss	 xmm1, DWORD PTR __real@3f800000
  0058f	f3 0f 11 4c 24
	08		 movss	 DWORD PTR [esp+8], xmm1
  00595	f3 0f 11 44 24
	04		 movss	 DWORD PTR [esp+4], xmm0
  0059b	f3 0f 10 05 00
	00 00 00	 movss	 xmm0, DWORD PTR __real@42c80000
  005a3	f3 0f 11 04 24	 movss	 DWORD PTR [esp], xmm0
  005a8	ff b5 b8 7f ff
	ff		 push	 DWORD PTR _iAniID$[ebp]
  005ae	ff 15 00 00 00
	00		 call	 DWORD PTR __imp_?SetActionAni@ioEntityGroup@@QAE_NHMMMMMM_N0@Z

; 616  : 
; 617  : 		float fWaitTime = pGrp->GetAnimationFullTime( iAniID ) * fTimeRate + dwPreDelay;

  005b4	ff b5 b8 7f ff
	ff		 push	 DWORD PTR _iAniID$[ebp]
  005ba	8b 8d c0 7f ff
	ff		 mov	 ecx, DWORD PTR _pGrp$[ebp]
  005c0	ff 15 00 00 00
	00		 call	 DWORD PTR __imp_?GetAnimationFullTime@ioEntityGroup@@QAEMH@Z
  005c6	d8 8d b4 7f ff
	ff		 fmul	 DWORD PTR _fTimeRate$[ebp]

; 618  : 		float fEndTimeRate = kAttack.m_fAttackEndAniRate;
; 619  : 
; 620  : 		pGrp->SetActionAni( kAttack.m_AttackEndAnimation,
; 621  : 			0.0f, 100.0f,
; 622  : 			1.0f, 1.0f/fEndTimeRate,
; 623  : 			fWaitTime, 0.0f, true );

  005cc	0f 57 c0	 xorps	 xmm0, xmm0
  005cf	8b 8d c0 7f ff
	ff		 mov	 ecx, DWORD PTR _pGrp$[ebp]
  005d5	d8 85 bc 7f ff
	ff		 fadd	 DWORD PTR tv3629[ebp]
  005db	6a 01		 push	 1
  005dd	6a 01		 push	 1
  005df	83 ec 18	 sub	 esp, 24			; 00000018H
  005e2	f3 0f 11 44 24
	14		 movss	 DWORD PTR [esp+20], xmm0
  005e8	d9 9d bc 7f ff
	ff		 fstp	 DWORD PTR _fWaitTime$608512[ebp]
  005ee	f3 0f 10 8d bc
	7f ff ff	 movss	 xmm1, DWORD PTR _fWaitTime$608512[ebp]
  005f6	d9 85 6c 7f ff
	ff		 fld	 DWORD PTR _kAttack$[ebp+36]
  005fc	f3 0f 11 4c 24
	10		 movss	 DWORD PTR [esp+16], xmm1
  00602	d9 9d b0 7f ff
	ff		 fstp	 DWORD PTR _fEndTimeRate$608513[ebp]
  00608	f3 0f 10 8d 6c
	7f ff ff	 movss	 xmm1, DWORD PTR _kAttack$[ebp+36]
  00610	0f 5a d1	 cvtps2pd xmm2, xmm1
  00613	f2 0f 10 0d 00
	00 00 00	 movsd	 xmm1, QWORD PTR __real@3ff0000000000000
  0061b	f2 0f 5e ca	 divsd	 xmm1, xmm2
  0061f	66 0f 5a c9	 cvtpd2ps xmm1, xmm1
  00623	f3 0f 11 4c 24
	0c		 movss	 DWORD PTR [esp+12], xmm1
  00629	f3 0f 10 0d 00
	00 00 00	 movss	 xmm1, DWORD PTR __real@3f800000
  00631	f3 0f 11 4c 24
	08		 movss	 DWORD PTR [esp+8], xmm1
  00637	f3 0f 10 0d 00
	00 00 00	 movss	 xmm1, DWORD PTR __real@42c80000
  0063f	f3 0f 11 4c 24
	04		 movss	 DWORD PTR [esp+4], xmm1
  00645	8d 85 5c 7f ff
	ff		 lea	 eax, DWORD PTR _kAttack$[ebp+20]
  0064b	f3 0f 11 04 24	 movss	 DWORD PTR [esp], xmm0
  00650	50		 push	 eax
  00651	ff 15 00 00 00
	00		 call	 DWORD PTR __imp_?SetActionAni@ioEntityGroup@@QAE_NABVioHashString@@MMMMMM_N1@Z

; 624  : 
; 625  : 		int iEndAniID = pGrp->GetAnimationIdx( kAttack.m_AttackEndAnimation );

  00657	8b 8d c0 7f ff
	ff		 mov	 ecx, DWORD PTR _pGrp$[ebp]
  0065d	8d 85 5c 7f ff
	ff		 lea	 eax, DWORD PTR _kAttack$[ebp+20]
  00663	50		 push	 eax
  00664	ff 15 00 00 00
	00		 call	 DWORD PTR __imp_?GetAnimationIdx@ioEntityGroup@@QAEHABVioHashString@@@Z

; 626  : 		m_dwMotionEndTime += pGrp->GetAnimationFullTime( iEndAniID ) * fEndTimeRate;

  0066a	8b 8d c0 7f ff
	ff		 mov	 ecx, DWORD PTR _pGrp$[ebp]
  00670	50		 push	 eax
  00671	ff 15 00 00 00
	00		 call	 DWORD PTR __imp_?GetAnimationFullTime@ioEntityGroup@@QAEMH@Z
  00677	d8 8d b0 7f ff
	ff		 fmul	 DWORD PTR _fEndTimeRate$608513[ebp]
  0067d	8b 86 d8 02 00
	00		 mov	 eax, DWORD PTR [esi+728]
  00683	db 86 d8 02 00
	00		 fild	 DWORD PTR [esi+728]
  00689	85 c0		 test	 eax, eax
  0068b	79 06		 jns	 SHORT $LN505@SetNextLin
  0068d	dc 05 00 00 00
	00		 fadd	 QWORD PTR __real@41f0000000000000
$LN505@SetNextLin:
  00693	de c1		 faddp	 ST(1), ST(0)
  00695	e8 00 00 00 00	 call	 __ftol2
  0069a	89 86 d8 02 00
	00		 mov	 DWORD PTR [esi+728], eax
$LN8@SetNextLin:

; 627  : 	}
; 628  : 
; 629  : 	pChar->CheckCharColSkipSkillTime( iAniID, fTimeRate, dwPreDelay );

  006a0	ff b5 ac 7f ff
	ff		 push	 DWORD PTR _dwPreDelay$[ebp]
  006a6	f3 0f 10 85 b4
	7f ff ff	 movss	 xmm0, DWORD PTR _fTimeRate$[ebp]
  006ae	8b bd a8 7f ff
	ff		 mov	 edi, DWORD PTR _pChar$GSCopy$[ebp]
  006b4	51		 push	 ecx
  006b5	f3 0f 11 04 24	 movss	 DWORD PTR [esp], xmm0
  006ba	ff b5 b8 7f ff
	ff		 push	 DWORD PTR _iAniID$[ebp]
  006c0	8b cf		 mov	 ecx, edi
  006c2	e8 00 00 00 00	 call	 ?CheckCharColSkipSkillTime@ioBaseChar@@QAEXHMK@Z ; ioBaseChar::CheckCharColSkipSkillTime

; 630  : 
; 631  : 	SetExtraAniJump( pChar, iAniID, fTimeRate );

  006c7	f3 0f 10 85 b4
	7f ff ff	 movss	 xmm0, DWORD PTR _fTimeRate$[ebp]
  006cf	51		 push	 ecx
  006d0	f3 0f 11 04 24	 movss	 DWORD PTR [esp], xmm0
  006d5	ff b5 b8 7f ff
	ff		 push	 DWORD PTR _iAniID$[ebp]
  006db	8b ce		 mov	 ecx, esi
  006dd	57		 push	 edi
  006de	e8 00 00 00 00	 call	 ?SetExtraAniJump@ioSkill@@IAEXPAVioBaseChar@@HM@Z ; ioSkill::SetExtraAniJump

; 632  : 
; 633  : 	//
; 634  : 	DWORD dwTrackingTime = dwCurTime + dwPreDelay;

  006e3	03 9d ac 7f ff
	ff		 add	 ebx, DWORD PTR _dwPreDelay$[ebp]
  006e9	6a 02		 push	 2

; 635  : 	dwTrackingTime += pGrp->GetAnimationEventTime_e( iAniID, "tracking_e" ) * fTimeRate;

  006eb	c7 45 e0 99 9e
	8a 89		 mov	 DWORD PTR _szEncEventType$620348[ebp], -1987404135 ; 898a9e99H
  006f2	c7 45 e4 86 85
	85 8d		 mov	 DWORD PTR _szEncEventType$620348[ebp+4], -1920629370 ; 8d858586H
  006f9	66 c7 45 e8 b2
	89		 mov	 WORD PTR _szEncEventType$620348[ebp+8], 35250 ; 000089b2H
  006ff	8d 45 e0	 lea	 eax, DWORD PTR _szEncEventType$620348[ebp]
  00702	c6 45 ea 00	 mov	 BYTE PTR _szEncEventType$620348[ebp+10], 0
  00706	59		 pop	 ecx
$LL469@SetNextLin:
  00707	81 30 ed ec eb
	ea		 xor	 DWORD PTR [eax], -353637139 ; eaebecedH
  0070d	83 c0 04	 add	 eax, 4
  00710	49		 dec	 ecx
  00711	75 f4		 jne	 SHORT $LL469@SetNextLin
  00713	6a 08		 push	 8
  00715	58		 pop	 eax
$LL466@SetNextLin:
  00716	8b c8		 mov	 ecx, eax
  00718	81 e1 03 00 00
	80		 and	 ecx, -2147483645	; 80000003H
  0071e	79 05		 jns	 SHORT $LN506@SetNextLin
  00720	49		 dec	 ecx
  00721	83 c9 fc	 or	 ecx, -4			; fffffffcH
  00724	41		 inc	 ecx
$LN506@SetNextLin:
  00725	b2 ed		 mov	 dl, -19			; ffffffedH
  00727	2a d1		 sub	 dl, cl
  00729	30 54 05 e0	 xor	 BYTE PTR _szEncEventType$620348[ebp+eax], dl
  0072d	40		 inc	 eax
  0072e	83 f8 0a	 cmp	 eax, 10			; 0000000aH
  00731	7c e3		 jl	 SHORT $LL466@SetNextLin
  00733	8d 45 e0	 lea	 eax, DWORD PTR _szEncEventType$620348[ebp]
  00736	50		 push	 eax
  00737	8d 8d 98 7f ff
	ff		 lea	 ecx, DWORD PTR $T620448[ebp]
  0073d	ff 15 00 00 00
	00		 call	 DWORD PTR __imp_??0ioHashString@@QAE@PBD@Z
  00743	8b 8d c0 7f ff
	ff		 mov	 ecx, DWORD PTR _pGrp$[ebp]
  00749	8d 85 98 7f ff
	ff		 lea	 eax, DWORD PTR $T620448[ebp]
  0074f	50		 push	 eax
  00750	ff b5 b8 7f ff
	ff		 push	 DWORD PTR _iAniID$[ebp]
  00756	c6 45 fc 05	 mov	 BYTE PTR __$EHRec$[ebp+8], 5
  0075a	ff 15 00 00 00
	00		 call	 DWORD PTR __imp_?GetAnimationEventTime@ioEntityGroup@@QAEMHABVioHashString@@@Z
  00760	d9 9d a8 7f ff
	ff		 fstp	 DWORD PTR $T620447[ebp]
  00766	8d 8d 98 7f ff
	ff		 lea	 ecx, DWORD PTR $T620448[ebp]
  0076c	c6 45 fc 00	 mov	 BYTE PTR __$EHRec$[ebp+8], 0
  00770	ff 15 00 00 00
	00		 call	 DWORD PTR __imp_??1ioHashString@@QAE@XZ
  00776	d9 85 a8 7f ff
	ff		 fld	 DWORD PTR $T620447[ebp]
  0077c	d8 8d b4 7f ff
	ff		 fmul	 DWORD PTR _fTimeRate$[ebp]
  00782	89 9d a8 7f ff
	ff		 mov	 DWORD PTR tv4029[ebp], ebx
  00788	db 85 a8 7f ff
	ff		 fild	 DWORD PTR tv4029[ebp]
  0078e	85 db		 test	 ebx, ebx
  00790	79 06		 jns	 SHORT $LN507@SetNextLin
  00792	dc 05 00 00 00
	00		 fadd	 QWORD PTR __real@41f0000000000000
$LN507@SetNextLin:
  00798	de c1		 faddp	 ST(1), ST(0)
  0079a	e8 00 00 00 00	 call	 __ftol2
  0079f	8b d8		 mov	 ebx, eax

; 636  : 
; 637  : 	if( IsUseAutoTargetValue() )

  007a1	8b 06		 mov	 eax, DWORD PTR [esi]
  007a3	8b ce		 mov	 ecx, esi
  007a5	ff 90 e0 00 00
	00		 call	 DWORD PTR [eax+224]
  007ab	84 c0		 test	 al, al
  007ad	74 08		 je	 SHORT $LN7@SetNextLin

; 638  : 	{
; 639  : 		pChar->SetAutoTargetTrackingEndTime( dwTrackingTime );

  007af	53		 push	 ebx
  007b0	8b cf		 mov	 ecx, edi
  007b2	e8 00 00 00 00	 call	 ?SetAutoTargetTrackingEndTime@ioBaseChar@@QAEXK@Z ; ioBaseChar::SetAutoTargetTrackingEndTime
$LN7@SetNextLin:

; 640  : 	}
; 641  : 
; 642  : 	//
; 643  : 	pChar->SetReservedSliding( kAttack.m_vForceInfoList, iAniID, fTimeRate, dwPreDelay );

  007b7	f3 0f 10 05 00
	00 00 00	 movss	 xmm0, DWORD PTR __real@3f800000
  007bf	6a 01		 push	 1
  007c1	51		 push	 ecx
  007c2	f3 0f 11 04 24	 movss	 DWORD PTR [esp], xmm0
  007c7	ff b5 ac 7f ff
	ff		 push	 DWORD PTR _dwPreDelay$[ebp]
  007cd	f3 0f 10 85 b4
	7f ff ff	 movss	 xmm0, DWORD PTR _fTimeRate$[ebp]
  007d5	51		 push	 ecx
  007d6	f3 0f 11 04 24	 movss	 DWORD PTR [esp], xmm0
  007db	ff b5 b8 7f ff
	ff		 push	 DWORD PTR _iAniID$[ebp]
  007e1	8d 85 80 7f ff
	ff		 lea	 eax, DWORD PTR _kAttack$[ebp+56]
  007e7	50		 push	 eax
  007e8	8b cf		 mov	 ecx, edi
  007ea	e8 00 00 00 00	 call	 ?SetReservedSliding@ioBaseChar@@QAEXABV?$vector@UForceInfo@@V?$allocator@UForceInfo@@@std@@@std@@HMKM_N@Z ; ioBaseChar::SetReservedSliding

; 644  : 
; 645  : 	m_bUsedComboList = true;

  007ef	8d 85 c7 7f ff
	ff		 lea	 eax, DWORD PTR _value$620462[ebp]
  007f5	50		 push	 eax
  007f6	8d 8e a4 12 00
	00		 lea	 ecx, DWORD PTR [esi+4772]
  007fc	c6 85 c7 7f ff
	ff 01		 mov	 BYTE PTR _value$620462[ebp], 1
  00803	e8 00 00 00 00	 call	 ?EncryptValueToPool@?$CEncrypt@_N@@AAEXPBD@Z ; CEncrypt<bool>::EncryptValueToPool

; 646  : 
; 647  : 	if( pChar->IsNeedSendNetwork() )

  00808	8b 07		 mov	 eax, DWORD PTR [edi]
  0080a	8b cf		 mov	 ecx, edi
  0080c	ff 90 04 01 00
	00		 call	 DWORD PTR [eax+260]
  00812	84 c0		 test	 al, al
  00814	0f 84 b1 00 00
	00		 je	 $LN6@SetNextLin

; 648  : 	{
; 649  : 		SP2Packet kPacket( CUPK_SKILL_EXTRA_INFO );

  0081a	68 39 41 00 00	 push	 16697			; 00004139H
  0081f	8d 8d c8 7f ff
	ff		 lea	 ecx, DWORD PTR _kPacket$608518[ebp]
  00825	e8 00 00 00 00	 call	 ??0SP2Packet@@QAE@K@Z	; SP2Packet::SP2Packet

; 650  : 		kPacket << pChar->GetCharName();

  0082a	8d 87 d4 02 00
	00		 lea	 eax, DWORD PTR [edi+724]
  00830	50		 push	 eax
  00831	8d 8d c8 7f ff
	ff		 lea	 ecx, DWORD PTR _kPacket$608518[ebp]
  00837	c6 45 fc 06	 mov	 BYTE PTR __$EHRec$[ebp+8], 6
  0083b	e8 00 00 00 00	 call	 ??6SP2Packet@@QAEAAV0@ABVioHashString@@@Z ; SP2Packet::operator<<

; 651  : 		kPacket << GetName();

  00840	8d 46 24	 lea	 eax, DWORD PTR [esi+36]
  00843	50		 push	 eax
  00844	8d 8d c8 7f ff
	ff		 lea	 ecx, DWORD PTR _kPacket$608518[ebp]
  0084a	e8 00 00 00 00	 call	 ??6SP2Packet@@QAEAAV0@ABVioHashString@@@Z ; SP2Packet::operator<<

; 652  : 		kPacket << m_SkillState;

  0084f	ff b6 e4 10 00
	00		 push	 DWORD PTR [esi+4324]
  00855	8d 8d c8 7f ff
	ff		 lea	 ecx, DWORD PTR _kPacket$608518[ebp]
  0085b	e8 00 00 00 00	 call	 ??6SP2Packet@@QAEAAV0@H@Z ; SP2Packet::operator<<

; 653  : 		kPacket << m_iCurLinearCombo;

  00860	ff b6 68 11 00
	00		 push	 DWORD PTR [esi+4456]
  00866	8d 8d c8 7f ff
	ff		 lea	 ecx, DWORD PTR _kPacket$608518[ebp]
  0086c	e8 00 00 00 00	 call	 ??6SP2Packet@@QAEAAV0@H@Z ; SP2Packet::operator<<

; 654  : 		kPacket << (int)m_CurDirKey;

  00871	ff b6 04 13 00
	00		 push	 DWORD PTR [esi+4868]
  00877	8d 8d c8 7f ff
	ff		 lea	 ecx, DWORD PTR _kPacket$608518[ebp]
  0087d	e8 00 00 00 00	 call	 ??6SP2Packet@@QAEAAV0@H@Z ; SP2Packet::operator<<

; 655  : 		kPacket << bOther;

  00882	ff 75 0c	 push	 DWORD PTR _bOther$[ebp]
  00885	8d 8d c8 7f ff
	ff		 lea	 ecx, DWORD PTR _kPacket$608518[ebp]
  0088b	e8 00 00 00 00	 call	 ??6SP2Packet@@QAEAAV0@_N@Z ; SP2Packet::operator<<

; 656  : 
; 657  : 		if( IsUseAutoTargetValue() )

  00890	8b 06		 mov	 eax, DWORD PTR [esi]
  00892	8b ce		 mov	 ecx, esi
  00894	ff 90 e0 00 00
	00		 call	 DWORD PTR [eax+224]
  0089a	84 c0		 test	 al, al
  0089c	74 0e		 je	 SHORT $LN5@SetNextLin

; 658  : 		{
; 659  : 			pChar->FillAutoTargetInfo( kPacket );

  0089e	8d 85 c8 7f ff
	ff		 lea	 eax, DWORD PTR _kPacket$608518[ebp]
  008a4	50		 push	 eax
  008a5	8b cf		 mov	 ecx, edi
  008a7	e8 00 00 00 00	 call	 ?FillAutoTargetInfo@ioBaseChar@@QAEXAAVSP2Packet@@@Z ; ioBaseChar::FillAutoTargetInfo
$LN5@SetNextLin:

; 660  : 		}
; 661  : 		P2PNetwork::SendToAllPlayingUser( kPacket );

  008ac	8d 85 c8 7f ff
	ff		 lea	 eax, DWORD PTR _kPacket$608518[ebp]
  008b2	6a 00		 push	 0
  008b4	50		 push	 eax
  008b5	e8 00 00 00 00	 call	 ?SendToAllPlayingUser@P2PNetwork@@YAXAAVSP2Packet@@PAVioBaseChar@@@Z ; P2PNetwork::SendToAllPlayingUser
  008ba	59		 pop	 ecx
  008bb	59		 pop	 ecx

; 662  : 	}

  008bc	8d 8d c8 7f ff
	ff		 lea	 ecx, DWORD PTR _kPacket$608518[ebp]
  008c2	c6 45 fc 00	 mov	 BYTE PTR __$EHRec$[ebp+8], 0
  008c6	e8 00 00 00 00	 call	 ??1SP2Packet@@UAE@XZ	; SP2Packet::~SP2Packet
$LN6@SetNextLin:

; 663  : 
; 664  : 	if ( !m_bUseEndCombo )

  008cb	80 be e4 13 00
	00 00		 cmp	 BYTE PTR [esi+5092], 0

; 665  : 	{
; 666  : 		m_iCurLinearCombo++;
; 667  : 	}
; 668  : 	else

  008d2	74 0e		 je	 SHORT $LN2@SetNextLin

; 669  : 	{
; 670  : 		//
; 671  : 		if ( bOther )

  008d4	80 7d 0c 00	 cmp	 BYTE PTR _bOther$[ebp], 0
  008d8	74 08		 je	 SHORT $LN2@SetNextLin

; 672  : 			m_nCurEndCombo++;

  008da	ff 86 e8 13 00
	00		 inc	 DWORD PTR [esi+5096]

; 673  : 		else

  008e0	eb 06		 jmp	 SHORT $LN1@SetNextLin
$LN2@SetNextLin:

; 674  : 			m_iCurLinearCombo++;

  008e2	ff 86 68 11 00
	00		 inc	 DWORD PTR [esi+4456]
$LN1@SetNextLin:

; 675  : 	}
; 676  : }

  008e8	83 4d fc ff	 or	 DWORD PTR __$EHRec$[ebp+8], -1
  008ec	8d 8d 48 7f ff
	ff		 lea	 ecx, DWORD PTR _kAttack$[ebp]
  008f2	e8 00 00 00 00	 call	 ??1AttackAttribute@@QAE@XZ
$LN18@SetNextLin:
  008f7	8b 4d f4	 mov	 ecx, DWORD PTR __$EHRec$[ebp]
  008fa	64 89 0d 00 00
	00 00		 mov	 DWORD PTR fs:0, ecx
  00901	59		 pop	 ecx
  00902	5f		 pop	 edi
  00903	5e		 pop	 esi
  00904	5b		 pop	 ebx
  00905	8b 4d f0	 mov	 ecx, DWORD PTR __$ArrayPad$[ebp]
  00908	33 cd		 xor	 ecx, ebp
  0090a	e8 00 00 00 00	 call	 @__security_check_cookie@4
  0090f	c9		 leave
  00910	c2 08 00	 ret	 8
_TEXT	ENDS
;	COMDAT text$x
text$x	SEGMENT
__unwindfunclet$?SetNextLinearCombo@ioLinearComboSkill2@@IAEXPAVioBaseChar@@_N@Z$0:
  00000	8d 8d 48 7f ff
	ff		 lea	 ecx, DWORD PTR _kAttack$[ebp]
  00006	e9 00 00 00 00	 jmp	 ??1AttackAttribute@@QAE@XZ
__unwindfunclet$?SetNextLinearCombo@ioLinearComboSkill2@@IAEXPAVioBaseChar@@_N@Z$1:
  0000b	8d 8d f8 7e ff
	ff		 lea	 ecx, DWORD PTR $T619899[ebp]
  00011	e9 00 00 00 00	 jmp	 ??1AttackAttribute@@QAE@XZ
__unwindfunclet$?SetNextLinearCombo@ioLinearComboSkill2@@IAEXPAVioBaseChar@@_N@Z$3:
  00016	8d 8d 98 7f ff
	ff		 lea	 ecx, DWORD PTR $T620058[ebp]
  0001c	ff 25 00 00 00
	00		 jmp	 DWORD PTR __imp_??1ioHashString@@QAE@XZ
__unwindfunclet$?SetNextLinearCombo@ioLinearComboSkill2@@IAEXPAVioBaseChar@@_N@Z$4:
  00022	8d 8d 98 7f ff
	ff		 lea	 ecx, DWORD PTR $T620183[ebp]
  00028	ff 25 00 00 00
	00		 jmp	 DWORD PTR __imp_??1ioHashString@@QAE@XZ
__unwindfunclet$?SetNextLinearCombo@ioLinearComboSkill2@@IAEXPAVioBaseChar@@_N@Z$5:
  0002e	8d 8d 98 7f ff
	ff		 lea	 ecx, DWORD PTR $T620302[ebp]
  00034	ff 25 00 00 00
	00		 jmp	 DWORD PTR __imp_??1ioHashString@@QAE@XZ
__unwindfunclet$?SetNextLinearCombo@ioLinearComboSkill2@@IAEXPAVioBaseChar@@_N@Z$6:
  0003a	8d 8d 98 7f ff
	ff		 lea	 ecx, DWORD PTR $T620448[ebp]
  00040	ff 25 00 00 00
	00		 jmp	 DWORD PTR __imp_??1ioHashString@@QAE@XZ
__unwindfunclet$?SetNextLinearCombo@ioLinearComboSkill2@@IAEXPAVioBaseChar@@_N@Z$2:
  00046	8d 8d c8 7f ff
	ff		 lea	 ecx, DWORD PTR _kPacket$608518[ebp]
  0004c	e9 00 00 00 00	 jmp	 ??1SP2Packet@@UAE@XZ	; SP2Packet::~SP2Packet
__ehhandler$?SetNextLinearCombo@ioLinearComboSkill2@@IAEXPAVioBaseChar@@_N@Z:
  00051	8b 54 24 08	 mov	 edx, DWORD PTR [esp+8]
  00055	8d 42 0c	 lea	 eax, DWORD PTR [edx+12]
  00058	8b 8a f4 7e ff
	ff		 mov	 ecx, DWORD PTR [edx-33036]
  0005e	33 c8		 xor	 ecx, eax
  00060	e8 00 00 00 00	 call	 @__security_check_cookie@4
  00065	8b 4a fc	 mov	 ecx, DWORD PTR [edx-4]
  00068	33 c8		 xor	 ecx, eax
  0006a	e8 00 00 00 00	 call	 @__security_check_cookie@4
  0006f	b8 00 00 00 00	 mov	 eax, OFFSET __ehfuncinfo$?SetNextLinearCombo@ioLinearComboSkill2@@IAEXPAVioBaseChar@@_N@Z
  00074	e9 00 00 00 00	 jmp	 ___CxxFrameHandler3
text$x	ENDS
?SetNextLinearCombo@ioLinearComboSkill2@@IAEXPAVioBaseChar@@_N@Z ENDP ; ioLinearComboSkill2::SetNextLinearCombo
PUBLIC	?CheckLinearCombo@ioLinearComboSkill2@@IAEXPAVioBaseChar@@@Z ; ioLinearComboSkill2::CheckLinearCombo
EXTRN	?IsDefenseKey@ioBaseChar@@QBE_NXZ:PROC		; ioBaseChar::IsDefenseKey
EXTRN	?GetSkillKeyInput@ioBaseChar@@QAEHXZ:PROC	; ioBaseChar::GetSkillKeyInput
EXTRN	?IsAttackKey@ioBaseChar@@QBE_NXZ:PROC		; ioBaseChar::IsAttackKey
; Function compile flags: /Ogsp
;	COMDAT ?CheckLinearCombo@ioLinearComboSkill2@@IAEXPAVioBaseChar@@@Z
_TEXT	SEGMENT
_dwCurTime$ = 8						; size = 4
_pChar$ = 8						; size = 4
?CheckLinearCombo@ioLinearComboSkill2@@IAEXPAVioBaseChar@@@Z PROC ; ioLinearComboSkill2::CheckLinearCombo, COMDAT
; _this$ = ecx

; 679  : {

  00000	55		 push	 ebp
  00001	8b ec		 mov	 ebp, esp
  00003	56		 push	 esi
  00004	57		 push	 edi

; 680  : 	if( !pChar )

  00005	8b 7d 08	 mov	 edi, DWORD PTR _pChar$[ebp]
  00008	8b f1		 mov	 esi, ecx
  0000a	85 ff		 test	 edi, edi
  0000c	0f 84 be 01 00
	00		 je	 $LN15@CheckLinea

; 681  : 		return;
; 682  : 
; 683  : 	if( m_bUsedEndOtherAttack && !m_bUseEndCombo )

  00012	80 be 81 11 00
	00 00		 cmp	 BYTE PTR [esi+4481], 0
  00019	74 0d		 je	 SHORT $LN23@CheckLinea
  0001b	80 be e4 13 00
	00 00		 cmp	 BYTE PTR [esi+5092], 0
  00022	0f 84 a8 01 00
	00		 je	 $LN15@CheckLinea
$LN23@CheckLinea:

; 684  : 		return;
; 685  : 
; 686  : 	if( m_dwPreDelayStartTime != 0 )

  00028	83 be 20 02 00
	00 00		 cmp	 DWORD PTR [esi+544], 0
  0002f	0f 85 9b 01 00
	00		 jne	 $LN15@CheckLinea

; 687  : 		return;
; 688  : 
; 689  : 	const AttributeList &rkComboList = GetComboList();

  00035	53		 push	 ebx
  00036	e8 00 00 00 00	 call	 ?GetComboList@ioLinearComboSkill2@@IAEABV?$vector@UAttackAttribute@@V?$allocator@UAttackAttribute@@@std@@@std@@XZ ; ioLinearComboSkill2::GetComboList
  0003b	8b d8		 mov	 ebx, eax

; 690  : 	DWORD dwCurTime = FRAMEGETTIME();

  0003d	ff 15 00 00 00
	00		 call	 DWORD PTR __imp_?GetSingleton@ioFrameTimer@@SAAAV1@XZ
  00043	8b c8		 mov	 ecx, eax
  00045	ff 15 00 00 00
	00		 call	 DWORD PTR __imp_?GetLoopSec@ioFrameTimer@@QBEKXZ

; 691  : 
; 692  : 	//      
; 693  : 	if( !COMPARE( m_iCurLinearCombo, 0, (int)rkComboList.size() ) || m_bUseEndCombo && !COMPARE( m_nCurEndCombo, 0, m_nMaxEndCombo ) )

  0004b	8b 8e 68 11 00
	00		 mov	 ecx, DWORD PTR [esi+4456]
  00051	89 45 08	 mov	 DWORD PTR _dwCurTime$[ebp], eax
  00054	85 c9		 test	 ecx, ecx
  00056	0f 88 20 01 00
	00		 js	 $LN30@CheckLinea
  0005c	8b 43 04	 mov	 eax, DWORD PTR [ebx+4]
  0005f	2b 03		 sub	 eax, DWORD PTR [ebx]
  00061	6a 50		 push	 80			; 00000050H
  00063	99		 cdq
  00064	5b		 pop	 ebx
  00065	f7 fb		 idiv	 ebx
  00067	3b c8		 cmp	 ecx, eax
  00069	0f 8d 0d 01 00
	00		 jge	 $LN30@CheckLinea
  0006f	80 be e4 13 00
	00 00		 cmp	 BYTE PTR [esi+5092], 0
  00076	74 1a		 je	 SHORT $LN33@CheckLinea
  00078	8b 86 e8 13 00
	00		 mov	 eax, DWORD PTR [esi+5096]
  0007e	85 c0		 test	 eax, eax
  00080	0f 88 f6 00 00
	00		 js	 $LN30@CheckLinea
  00086	3b 86 ec 13 00
	00		 cmp	 eax, DWORD PTR [esi+5100]
  0008c	0f 8d ea 00 00
	00		 jge	 $LN30@CheckLinea
$LN33@CheckLinea:

; 704  : 			}
; 705  : 		}
; 706  : 
; 707  : 		return;
; 708  : 	}
; 709  : 
; 710  : 	if( m_bAutoComboAction )

  00092	80 be 78 11 00
	00 00		 cmp	 BYTE PTR [esi+4472], 0
  00099	74 68		 je	 SHORT $LN14@CheckLinea

; 711  : 	{
; 712  : 		if( pChar->IsNeedProcess() && pChar->IsAttackKey() && m_bReserveLastAttack == false )

  0009b	8b 07		 mov	 eax, DWORD PTR [edi]
  0009d	8b cf		 mov	 ecx, edi
  0009f	ff 90 00 01 00
	00		 call	 DWORD PTR [eax+256]
  000a5	84 c0		 test	 al, al
  000a7	74 1b		 je	 SHORT $LN13@CheckLinea
  000a9	8b cf		 mov	 ecx, edi
  000ab	e8 00 00 00 00	 call	 ?IsAttackKey@ioBaseChar@@QBE_NXZ ; ioBaseChar::IsAttackKey
  000b0	84 c0		 test	 al, al
  000b2	74 10		 je	 SHORT $LN13@CheckLinea
  000b4	80 be f0 13 00
	00 00		 cmp	 BYTE PTR [esi+5104], 0
  000bb	75 07		 jne	 SHORT $LN13@CheckLinea

; 713  : 			m_bReserveLastAttack = true;

  000bd	c6 86 f0 13 00
	00 01		 mov	 BYTE PTR [esi+5104], 1
$LN13@CheckLinea:

; 714  : 	
; 715  : 		if( m_dwMotionEndTime < dwCurTime )

  000c4	8b 45 08	 mov	 eax, DWORD PTR _dwCurTime$[ebp]
  000c7	39 86 d8 02 00
	00		 cmp	 DWORD PTR [esi+728], eax
  000cd	0f 83 fc 00 00
	00		 jae	 $LN34@CheckLinea

; 716  : 		{
; 717  : 			pChar->SetSkillMoveEnable( false, true );

  000d3	6a 01		 push	 1
  000d5	6a 00		 push	 0
  000d7	8b cf		 mov	 ecx, edi
  000d9	e8 00 00 00 00	 call	 ?SetSkillMoveEnable@ioBaseChar@@QAEX_N0@Z ; ioBaseChar::SetSkillMoveEnable

; 718  : 
; 719  : 			if( pChar->IsNeedProcess() )

  000de	8b 07		 mov	 eax, DWORD PTR [edi]
  000e0	8b cf		 mov	 ecx, edi
  000e2	ff 90 00 01 00
	00		 call	 DWORD PTR [eax+256]
  000e8	84 c0		 test	 al, al
  000ea	0f 84 df 00 00
	00		 je	 $LN34@CheckLinea

; 720  : 			{
; 721  : 				if( m_bReserveLastAttack )

  000f0	80 be f0 13 00
	00 00		 cmp	 BYTE PTR [esi+5104], 0

; 722  : 					SetLastAttack( pChar );

  000f7	8b ce		 mov	 ecx, esi

; 723  : 				else

  000f9	0f 85 ca 00 00
	00		 jne	 $LN35@CheckLinea

; 724  : 					SetNextLinearCombo( pChar, false );

  000ff	6a 00		 push	 0

; 725  : 			}
; 726  : 		}
; 727  : 
; 728  : 		return;

  00101	eb 71		 jmp	 SHORT $LN38@CheckLinea
$LN14@CheckLinea:

; 729  : 	}
; 730  : 
; 731  : 	if( m_dwEnableReserveTime == 0 )

  00103	8b 86 dc 02 00
	00		 mov	 eax, DWORD PTR [esi+732]
  00109	85 c0		 test	 eax, eax
  0010b	0f 84 be 00 00
	00		 je	 $LN34@CheckLinea

; 732  : 		return;
; 733  : 
; 734  : 	if( m_dwEnableReserveTime < dwCurTime )

  00111	3b 45 08	 cmp	 eax, DWORD PTR _dwCurTime$[ebp]
  00114	0f 83 b5 00 00
	00		 jae	 $LN34@CheckLinea

; 735  : 	{
; 736  : 		pChar->SetSkillMoveEnable( false, true );

  0011a	6a 01		 push	 1
  0011c	6a 00		 push	 0
  0011e	8b cf		 mov	 ecx, edi
  00120	e8 00 00 00 00	 call	 ?SetSkillMoveEnable@ioBaseChar@@QAEX_N0@Z ; ioBaseChar::SetSkillMoveEnable

; 737  : 
; 738  : 		if( pChar->IsNeedProcess() )

  00125	8b 07		 mov	 eax, DWORD PTR [edi]
  00127	8b cf		 mov	 ecx, edi
  00129	ff 90 00 01 00
	00		 call	 DWORD PTR [eax+256]
  0012f	84 c0		 test	 al, al
  00131	0f 84 98 00 00
	00		 je	 $LN34@CheckLinea

; 739  : 		{
; 740  : 			bool bReserveSkill = false;
; 741  : 			int iSkillNum = pChar->GetSkillKeyInput();

  00137	8b cf		 mov	 ecx, edi
  00139	e8 00 00 00 00	 call	 ?GetSkillKeyInput@ioBaseChar@@QAEHXZ ; ioBaseChar::GetSkillKeyInput

; 742  : 			if( iSkillNum >= 0 )

  0013e	85 c0		 test	 eax, eax

; 743  : 			{
; 744  : 				bReserveSkill = true;
; 745  : 			}
; 746  : 
; 747  : 			if( !bReserveSkill )

  00140	0f 89 89 00 00
	00		 jns	 $LN34@CheckLinea

; 748  : 			{
; 749  : 				if( pChar->IsAttackKey() )

  00146	8b cf		 mov	 ecx, edi
  00148	e8 00 00 00 00	 call	 ?IsAttackKey@ioBaseChar@@QBE_NXZ ; ioBaseChar::IsAttackKey
  0014d	84 c0		 test	 al, al
  0014f	74 04		 je	 SHORT $LN3@CheckLinea

; 750  : 				{
; 751  : 					SetNextLinearCombo( pChar, false );

  00151	6a 00		 push	 0

; 752  : 					return;

  00153	eb 1d		 jmp	 SHORT $LN36@CheckLinea
$LN3@CheckLinea:

; 753  : 				}
; 754  : 				else if( m_bUseEndOtherAttack && pChar->IsDefenseKey() )

  00155	80 be 80 11 00
	00 00		 cmp	 BYTE PTR [esi+4480], 0
  0015c	74 71		 je	 SHORT $LN34@CheckLinea
  0015e	8b cf		 mov	 ecx, edi
  00160	e8 00 00 00 00	 call	 ?IsDefenseKey@ioBaseChar@@QBE_NXZ ; ioBaseChar::IsDefenseKey
  00165	84 c0		 test	 al, al
  00167	74 66		 je	 SHORT $LN34@CheckLinea

; 755  : 				{				
; 756  : 					m_bUsedEndOtherAttack = true;

  00169	c6 86 81 11 00
	00 01		 mov	 BYTE PTR [esi+4481], 1

; 757  : 					SetNextLinearCombo( pChar, true );

  00170	6a 01		 push	 1
$LN36@CheckLinea:
  00172	8b ce		 mov	 ecx, esi
$LN38@CheckLinea:
  00174	57		 push	 edi
  00175	e8 00 00 00 00	 call	 ?SetNextLinearCombo@ioLinearComboSkill2@@IAEXPAVioBaseChar@@_N@Z ; ioLinearComboSkill2::SetNextLinearCombo

; 758  : 					return;

  0017a	eb 53		 jmp	 SHORT $LN34@CheckLinea
$LN30@CheckLinea:

; 694  : 	{
; 695  : 		if( pChar->IsNeedProcess() && pChar->IsAttackKey() && m_bReserveLastAttack == false )

  0017c	8b 07		 mov	 eax, DWORD PTR [edi]
  0017e	8b cf		 mov	 ecx, edi
  00180	ff 90 00 01 00
	00		 call	 DWORD PTR [eax+256]
  00186	84 c0		 test	 al, al
  00188	74 1b		 je	 SHORT $LN18@CheckLinea
  0018a	8b cf		 mov	 ecx, edi
  0018c	e8 00 00 00 00	 call	 ?IsAttackKey@ioBaseChar@@QBE_NXZ ; ioBaseChar::IsAttackKey
  00191	84 c0		 test	 al, al
  00193	74 10		 je	 SHORT $LN18@CheckLinea
  00195	80 be f0 13 00
	00 00		 cmp	 BYTE PTR [esi+5104], 0
  0019c	75 07		 jne	 SHORT $LN18@CheckLinea

; 696  : 			m_bReserveLastAttack = true;

  0019e	c6 86 f0 13 00
	00 01		 mov	 BYTE PTR [esi+5104], 1
$LN18@CheckLinea:

; 697  : 
; 698  : 		if( m_dwMotionEndTime < dwCurTime )

  001a5	8b 45 08	 mov	 eax, DWORD PTR _dwCurTime$[ebp]
  001a8	39 86 d8 02 00
	00		 cmp	 DWORD PTR [esi+728], eax
  001ae	73 1f		 jae	 SHORT $LN34@CheckLinea

; 699  : 		{
; 700  : 			if( pChar->IsNeedProcess() )

  001b0	8b 07		 mov	 eax, DWORD PTR [edi]
  001b2	8b cf		 mov	 ecx, edi
  001b4	ff 90 00 01 00
	00		 call	 DWORD PTR [eax+256]
  001ba	84 c0		 test	 al, al
  001bc	74 11		 je	 SHORT $LN34@CheckLinea

; 701  : 			{
; 702  : 				if( m_bReserveLastAttack )

  001be	80 be f0 13 00
	00 00		 cmp	 BYTE PTR [esi+5104], 0
  001c5	74 08		 je	 SHORT $LN34@CheckLinea

; 703  : 					SetLastAttack( pChar );

  001c7	8b ce		 mov	 ecx, esi
$LN35@CheckLinea:
  001c9	57		 push	 edi
  001ca	e8 00 00 00 00	 call	 ?SetLastAttack@ioLinearComboSkill2@@IAEXPAVioBaseChar@@@Z ; ioLinearComboSkill2::SetLastAttack
$LN34@CheckLinea:
  001cf	5b		 pop	 ebx
$LN15@CheckLinea:
  001d0	5f		 pop	 edi
  001d1	5e		 pop	 esi

; 759  : 				}
; 760  : 			}
; 761  : 		}
; 762  : 	}
; 763  : }

  001d2	5d		 pop	 ebp
  001d3	c2 04 00	 ret	 4
?CheckLinearCombo@ioLinearComboSkill2@@IAEXPAVioBaseChar@@@Z ENDP ; ioLinearComboSkill2::CheckLinearCombo
_TEXT	ENDS
PUBLIC	?ApplyExtraSkillInfo@ioLinearComboSkill2@@UAEXPAVioBaseChar@@PAVioPlayStage@@AAVSP2Packet@@@Z ; ioLinearComboSkill2::ApplyExtraSkillInfo
EXTRN	?ApplyAutoTargetInfo@ioBaseChar@@QAEXAAVSP2Packet@@@Z:PROC ; ioBaseChar::ApplyAutoTargetInfo
EXTRN	??5SP2Packet@@QAEAAV0@AA_N@Z:PROC		; SP2Packet::operator>>
EXTRN	??5SP2Packet@@QAEAAV0@AAV?$CEncrypt@H@@@Z:PROC	; SP2Packet::operator>>
EXTRN	??5SP2Packet@@QAEAAV0@AAH@Z:PROC		; SP2Packet::operator>>
; Function compile flags: /Ogsp
;	COMDAT ?ApplyExtraSkillInfo@ioLinearComboSkill2@@UAEXPAVioBaseChar@@PAVioPlayStage@@AAVSP2Packet@@@Z
_TEXT	SEGMENT
_bOther$608573 = -4					; size = 1
_iState$ = 8						; size = 4
_pChar$ = 8						; size = 4
_pStage$ = 12						; size = 4
_iCurKey$608579 = 16					; size = 4
_iCurKey$608576 = 16					; size = 4
_iCurKey$608571 = 16					; size = 4
_rkPacket$ = 16						; size = 4
?ApplyExtraSkillInfo@ioLinearComboSkill2@@UAEXPAVioBaseChar@@PAVioPlayStage@@AAVSP2Packet@@@Z PROC ; ioLinearComboSkill2::ApplyExtraSkillInfo, COMDAT
; _this$ = ecx

; 766  : {

  00000	55		 push	 ebp
  00001	8b ec		 mov	 ebp, esp
  00003	51		 push	 ecx
  00004	53		 push	 ebx

; 767  : 	if( !pChar )

  00005	8b 5d 08	 mov	 ebx, DWORD PTR _pChar$[ebp]
  00008	56		 push	 esi
  00009	8b f1		 mov	 esi, ecx
  0000b	85 db		 test	 ebx, ebx
  0000d	0f 84 cd 00 00
	00		 je	 $LN3@ApplyExtra

; 768  : 		return;
; 769  : 
; 770  : 	int iState;
; 771  : 	rkPacket >> iState;

  00013	57		 push	 edi
  00014	8b 7d 10	 mov	 edi, DWORD PTR _rkPacket$[ebp]
  00017	8d 45 08	 lea	 eax, DWORD PTR _iState$[ebp]
  0001a	50		 push	 eax
  0001b	8b cf		 mov	 ecx, edi
  0001d	e8 00 00 00 00	 call	 ??5SP2Packet@@QAEAAV0@AAH@Z ; SP2Packet::operator>>

; 772  : 
; 773  : 	switch( iState )

  00022	8b 45 08	 mov	 eax, DWORD PTR _iState$[ebp]
  00025	48		 dec	 eax
  00026	48		 dec	 eax
  00027	74 67		 je	 SHORT $LN4@ApplyExtra
  00029	48		 dec	 eax
  0002a	74 29		 je	 SHORT $LN2@ApplyExtra
  0002c	48		 dec	 eax
  0002d	0f 85 ac 00 00
	00		 jne	 $LN10@ApplyExtra

; 806  : 	case SS_LAST_ATTACK:
; 807  : 		{
; 808  : 			int iCurKey;
; 809  : 			rkPacket >> iCurKey;

  00033	8d 45 10	 lea	 eax, DWORD PTR _iCurKey$608579[ebp]
  00036	50		 push	 eax
  00037	8b cf		 mov	 ecx, edi
  00039	e8 00 00 00 00	 call	 ??5SP2Packet@@QAEAAV0@AAH@Z ; SP2Packet::operator>>

; 810  : 			pChar->SetTargetRotToDirKey( (ioUserKeyInput::DirKeyInput)iCurKey );

  0003e	ff 75 10	 push	 DWORD PTR _iCurKey$608579[ebp]
  00041	8b cb		 mov	 ecx, ebx
  00043	e8 00 00 00 00	 call	 ?SetTargetRotToDirKey@ioBaseChar@@QAEXW4DirKeyInput@ioUserKeyInput@@@Z ; ioBaseChar::SetTargetRotToDirKey

; 811  : 			SetLastAttack( pChar );

  00048	53		 push	 ebx
  00049	8b ce		 mov	 ecx, esi
  0004b	e8 00 00 00 00	 call	 ?SetLastAttack@ioLinearComboSkill2@@IAEXPAVioBaseChar@@@Z ; ioLinearComboSkill2::SetLastAttack

; 812  : 		}
; 813  : 		break;

  00050	e9 8a 00 00 00	 jmp	 $LN10@ApplyExtra
$LN2@ApplyExtra:

; 791  : 			}
; 792  : 		}
; 793  : 		break;
; 794  : 	case SS_RETREAT:
; 795  : 		{
; 796  : 			rkPacket >> m_iCurLinearCombo;

  00055	8d 86 68 11 00
	00		 lea	 eax, DWORD PTR [esi+4456]
  0005b	50		 push	 eax
  0005c	8b cf		 mov	 ecx, edi
  0005e	e8 00 00 00 00	 call	 ??5SP2Packet@@QAEAAV0@AAH@Z ; SP2Packet::operator>>

; 797  : 			rkPacket >> m_iCurRetreatCnt;

  00063	8d 86 88 13 00
	00		 lea	 eax, DWORD PTR [esi+5000]
  00069	50		 push	 eax
  0006a	8b cf		 mov	 ecx, edi
  0006c	e8 00 00 00 00	 call	 ??5SP2Packet@@QAEAAV0@AAV?$CEncrypt@H@@@Z ; SP2Packet::operator>>

; 798  : 
; 799  : 			int iCurKey;
; 800  : 			rkPacket >> iCurKey;

  00071	8d 45 10	 lea	 eax, DWORD PTR _iCurKey$608576[ebp]
  00074	50		 push	 eax
  00075	8b cf		 mov	 ecx, edi
  00077	e8 00 00 00 00	 call	 ??5SP2Packet@@QAEAAV0@AAH@Z ; SP2Packet::operator>>

; 801  : 			pChar->SetTargetRotToDirKey( (ioUserKeyInput::DirKeyInput)iCurKey );

  0007c	ff 75 10	 push	 DWORD PTR _iCurKey$608576[ebp]
  0007f	8b cb		 mov	 ecx, ebx
  00081	e8 00 00 00 00	 call	 ?SetTargetRotToDirKey@ioBaseChar@@QAEXW4DirKeyInput@ioUserKeyInput@@@Z ; ioBaseChar::SetTargetRotToDirKey

; 802  : 
; 803  : 			SetRetreatState( pChar );

  00086	53		 push	 ebx
  00087	8b ce		 mov	 ecx, esi
  00089	e8 00 00 00 00	 call	 ?SetRetreatState@ioLinearComboSkill2@@IAEXPAVioBaseChar@@@Z ; ioLinearComboSkill2::SetRetreatState

; 804  : 		}
; 805  : 		break;

  0008e	eb 4f		 jmp	 SHORT $LN10@ApplyExtra
$LN4@ApplyExtra:

; 774  : 	{
; 775  : 	case SS_COMBO:
; 776  : 		{
; 777  : 			rkPacket >> m_iCurLinearCombo;

  00090	8d 86 68 11 00
	00		 lea	 eax, DWORD PTR [esi+4456]
  00096	50		 push	 eax
  00097	8b cf		 mov	 ecx, edi
  00099	e8 00 00 00 00	 call	 ??5SP2Packet@@QAEAAV0@AAH@Z ; SP2Packet::operator>>

; 778  : 
; 779  : 			int iCurKey;
; 780  : 			rkPacket >> iCurKey;

  0009e	8d 45 10	 lea	 eax, DWORD PTR _iCurKey$608571[ebp]
  000a1	50		 push	 eax
  000a2	8b cf		 mov	 ecx, edi
  000a4	e8 00 00 00 00	 call	 ??5SP2Packet@@QAEAAV0@AAH@Z ; SP2Packet::operator>>

; 781  : 			pChar->SetTargetRotToDirKey( (ioUserKeyInput::DirKeyInput)iCurKey );

  000a9	ff 75 10	 push	 DWORD PTR _iCurKey$608571[ebp]
  000ac	8b cb		 mov	 ecx, ebx
  000ae	e8 00 00 00 00	 call	 ?SetTargetRotToDirKey@ioBaseChar@@QAEXW4DirKeyInput@ioUserKeyInput@@@Z ; ioBaseChar::SetTargetRotToDirKey

; 782  : 
; 783  : 			bool bOther;
; 784  : 			rkPacket >> bOther;

  000b3	8d 45 fc	 lea	 eax, DWORD PTR _bOther$608573[ebp]
  000b6	50		 push	 eax
  000b7	8b cf		 mov	 ecx, edi
  000b9	e8 00 00 00 00	 call	 ??5SP2Packet@@QAEAAV0@AA_N@Z ; SP2Packet::operator>>

; 785  : 
; 786  : 			SetNextLinearCombo( pChar, bOther );

  000be	ff 75 fc	 push	 DWORD PTR _bOther$608573[ebp]
  000c1	8b ce		 mov	 ecx, esi
  000c3	53		 push	 ebx
  000c4	e8 00 00 00 00	 call	 ?SetNextLinearCombo@ioLinearComboSkill2@@IAEXPAVioBaseChar@@_N@Z ; ioLinearComboSkill2::SetNextLinearCombo

; 787  : 
; 788  : 			if( IsUseAutoTargetValue() )

  000c9	8b 06		 mov	 eax, DWORD PTR [esi]
  000cb	8b ce		 mov	 ecx, esi
  000cd	ff 90 e0 00 00
	00		 call	 DWORD PTR [eax+224]
  000d3	84 c0		 test	 al, al
  000d5	74 08		 je	 SHORT $LN10@ApplyExtra

; 789  : 			{
; 790  : 				pChar->ApplyAutoTargetInfo( rkPacket );

  000d7	57		 push	 edi
  000d8	8b cb		 mov	 ecx, ebx
  000da	e8 00 00 00 00	 call	 ?ApplyAutoTargetInfo@ioBaseChar@@QAEXAAVSP2Packet@@@Z ; ioBaseChar::ApplyAutoTargetInfo
$LN10@ApplyExtra:
  000df	5f		 pop	 edi
$LN3@ApplyExtra:
  000e0	5e		 pop	 esi
  000e1	5b		 pop	 ebx

; 814  : 	}
; 815  : }

  000e2	c9		 leave
  000e3	c2 0c 00	 ret	 12			; 0000000cH
?ApplyExtraSkillInfo@ioLinearComboSkill2@@UAEXPAVioBaseChar@@PAVioPlayStage@@AAVSP2Packet@@@Z ENDP ; ioLinearComboSkill2::ApplyExtraSkillInfo
_TEXT	ENDS
PUBLIC	??$_Cons_val@V?$allocator@UAttackAttribute@@@std@@UAttackAttribute@@ABU3@@std@@YAXAAV?$allocator@UAttackAttribute@@@0@PAUAttackAttribute@@ABU2@@Z ; std::_Cons_val<std::allocator<AttackAttribute>,AttackAttribute,AttackAttribute const &>
; Function compile flags: /Ogsp
; File c:\program files (x86)\microsoft visual studio 10.0\vc\include\xmemory
;	COMDAT ??$_Cons_val@V?$allocator@UAttackAttribute@@@std@@UAttackAttribute@@ABU3@@std@@YAXAAV?$allocator@UAttackAttribute@@@0@PAUAttackAttribute@@ABU2@@Z
_TEXT	SEGMENT
__Alval$ = 8						; size = 4
__Pdest$ = 12						; size = 4
__Src$ = 16						; size = 4
??$_Cons_val@V?$allocator@UAttackAttribute@@@std@@UAttackAttribute@@ABU3@@std@@YAXAAV?$allocator@UAttackAttribute@@@0@PAUAttackAttribute@@ABU2@@Z PROC ; std::_Cons_val<std::allocator<AttackAttribute>,AttackAttribute,AttackAttribute const &>, COMDAT

; 279  : 	{	// construct using allocator

  00000	55		 push	 ebp
  00001	8b ec		 mov	 ebp, esp

; 280  : 	_Alval.construct(_Pdest, _STD forward<_Ty2>(_Src));

  00003	ff 75 10	 push	 DWORD PTR __Src$[ebp]
  00006	ff 75 0c	 push	 DWORD PTR __Pdest$[ebp]
  00009	e8 00 00 00 00	 call	 ??$_Construct@UAttackAttribute@@ABU1@@std@@YAXPAUAttackAttribute@@ABU1@@Z ; std::_Construct<AttackAttribute,AttackAttribute const &>
  0000e	59		 pop	 ecx
  0000f	59		 pop	 ecx

; 281  : 	}

  00010	5d		 pop	 ebp
  00011	c3		 ret	 0
??$_Cons_val@V?$allocator@UAttackAttribute@@@std@@UAttackAttribute@@ABU3@@std@@YAXAAV?$allocator@UAttackAttribute@@@0@PAUAttackAttribute@@ABU2@@Z ENDP ; std::_Cons_val<std::allocator<AttackAttribute>,AttackAttribute,AttackAttribute const &>
_TEXT	ENDS
PUBLIC	??$_Move@PAUAttackAttribute@@PAU1@@std@@YAPAUAttackAttribute@@PAU1@00@Z ; std::_Move<AttackAttribute *,AttackAttribute *>
; Function compile flags: /Ogsp
; File c:\program files (x86)\microsoft visual studio 10.0\vc\include\xutility
;	COMDAT ??$_Move@PAUAttackAttribute@@PAU1@@std@@YAPAUAttackAttribute@@PAU1@00@Z
_TEXT	SEGMENT
__Cat$620538 = -4					; size = 1
__First$ = 8						; size = 4
__Last$ = 12						; size = 4
__Dest$ = 16						; size = 4
??$_Move@PAUAttackAttribute@@PAU1@@std@@YAPAUAttackAttribute@@PAU1@00@Z PROC ; std::_Move<AttackAttribute *,AttackAttribute *>, COMDAT

; 2533 : 	{	// move [_First, _Last) to [_Dest, ...), unchecked

  00000	55		 push	 ebp
  00001	8b ec		 mov	 ebp, esp
  00003	51		 push	 ecx

; 2534 : 	return (_Move(_First, _Last,
; 2535 : 		_Dest, _Ptr_cat(_First, _Dest)));

  00004	ff 75 fc	 push	 DWORD PTR __Cat$620538[ebp]
  00007	ff 75 10	 push	 DWORD PTR __Dest$[ebp]
  0000a	ff 75 0c	 push	 DWORD PTR __Last$[ebp]
  0000d	ff 75 08	 push	 DWORD PTR __First$[ebp]
  00010	e8 00 00 00 00	 call	 ??$_Move@PAUAttackAttribute@@PAU1@@std@@YAPAUAttackAttribute@@PAU1@00U_Nonscalar_ptr_iterator_tag@0@@Z ; std::_Move<AttackAttribute *,AttackAttribute *>
  00015	83 c4 10	 add	 esp, 16			; 00000010H

; 2536 : 	}

  00018	c9		 leave
  00019	c3		 ret	 0
??$_Move@PAUAttackAttribute@@PAU1@@std@@YAPAUAttackAttribute@@PAU1@00@Z ENDP ; std::_Move<AttackAttribute *,AttackAttribute *>
_TEXT	ENDS
PUBLIC	?destroy@?$allocator@UAttackAttribute@@@std@@QAEXPAUAttackAttribute@@@Z ; std::allocator<AttackAttribute>::destroy
; Function compile flags: /Ogsp
; File c:\program files (x86)\microsoft visual studio 10.0\vc\include\xmemory
;	COMDAT ?destroy@?$allocator@UAttackAttribute@@@std@@QAEXPAUAttackAttribute@@@Z
_TEXT	SEGMENT
__Ptr$ = 8						; size = 4
?destroy@?$allocator@UAttackAttribute@@@std@@QAEXPAUAttackAttribute@@@Z PROC ; std::allocator<AttackAttribute>::destroy, COMDAT
; _this$ = ecx

; 212  : 		{	// destroy object at _Ptr

  00000	55		 push	 ebp
  00001	8b ec		 mov	 ebp, esp

; 213  : 		_Destroy(_Ptr);

  00003	8b 4d 08	 mov	 ecx, DWORD PTR __Ptr$[ebp]
  00006	e8 00 00 00 00	 call	 ??1AttackAttribute@@QAE@XZ

; 214  : 		}

  0000b	5d		 pop	 ebp
  0000c	c2 04 00	 ret	 4
?destroy@?$allocator@UAttackAttribute@@@std@@QAEXPAUAttackAttribute@@@Z ENDP ; std::allocator<AttackAttribute>::destroy
_TEXT	ENDS
PUBLIC	?OnProcessState@ioLinearComboSkill2@@UAEXPAVioBaseChar@@PAVioPlayStage@@@Z ; ioLinearComboSkill2::OnProcessState
EXTRN	?CheckExtraAniJump@ioSkill@@IAEXPAVioBaseChar@@@Z:PROC ; ioSkill::CheckExtraAniJump
; Function compile flags: /Ogsp
; File d:\lost saga for developer\youtube\tutorial\source\src\lsclient\iolinearcomboskill2.cpp
;	COMDAT ?OnProcessState@ioLinearComboSkill2@@UAEXPAVioBaseChar@@PAVioPlayStage@@@Z
_TEXT	SEGMENT
_pChar$ = 8						; size = 4
_pStage$ = 12						; size = 4
?OnProcessState@ioLinearComboSkill2@@UAEXPAVioBaseChar@@PAVioPlayStage@@@Z PROC ; ioLinearComboSkill2::OnProcessState, COMDAT
; _this$ = ecx

; 281  : {

  00000	55		 push	 ebp
  00001	8b ec		 mov	 ebp, esp
  00003	56		 push	 esi
  00004	57		 push	 edi
  00005	8b f1		 mov	 esi, ecx

; 282  : 	DWORD dwCurTime = FRAMEGETTIME();

  00007	ff 15 00 00 00
	00		 call	 DWORD PTR __imp_?GetSingleton@ioFrameTimer@@SAAAV1@XZ
  0000d	8b c8		 mov	 ecx, eax
  0000f	ff 15 00 00 00
	00		 call	 DWORD PTR __imp_?GetLoopSec@ioFrameTimer@@QBEKXZ
  00015	8b f8		 mov	 edi, eax

; 283  : 
; 284  : 	switch( m_SkillState )

  00017	8b 86 e4 10 00
	00		 mov	 eax, DWORD PTR [esi+4324]
  0001d	83 e8 00	 sub	 eax, 0
  00020	74 5c		 je	 SHORT $LN8@OnProcessS
  00022	48		 dec	 eax
  00023	74 2d		 je	 SHORT $LN6@OnProcessS
  00025	48		 dec	 eax
  00026	74 2a		 je	 SHORT $LN6@OnProcessS
  00028	48		 dec	 eax
  00029	0f 85 86 00 00
	00		 jne	 $LN7@OnProcessS

; 311  : 	case SS_COMBO:
; 312  : 		{
; 313  : 			CheckExtraAniJump( pChar );
; 314  : 			CheckAniRotate( pChar );
; 315  : 
; 316  : 			if( CheckEnableRetreatState( pChar ) )
; 317  : 			{
; 318  : 				SetRetreatState( pChar );
; 319  : 				return;
; 320  : 			}
; 321  : 			CheckLinearCombo( pChar );
; 322  : 		}
; 323  : 		break;
; 324  : 	case SS_RETREAT:
; 325  : 		{
; 326  : 			CheckExtraAniJump( pChar );

  0002f	ff 75 08	 push	 DWORD PTR _pChar$[ebp]
  00032	8b ce		 mov	 ecx, esi
  00034	e8 00 00 00 00	 call	 ?CheckExtraAniJump@ioSkill@@IAEXPAVioBaseChar@@@Z ; ioSkill::CheckExtraAniJump

; 327  : 			CheckAniRotate( pChar );

  00039	ff 75 08	 push	 DWORD PTR _pChar$[ebp]
  0003c	8b 06		 mov	 eax, DWORD PTR [esi]
  0003e	8b ce		 mov	 ecx, esi
  00040	ff 90 f4 00 00
	00		 call	 DWORD PTR [eax+244]

; 328  : 			CheckLinearCombo( pChar );

  00046	ff 75 08	 push	 DWORD PTR _pChar$[ebp]
  00049	8b ce		 mov	 ecx, esi
$LN5@OnProcessS:

; 307  : 			}
; 308  : 			CheckLinearCombo( pChar );

  0004b	e8 00 00 00 00	 call	 ?CheckLinearCombo@ioLinearComboSkill2@@IAEXPAVioBaseChar@@@Z ; ioLinearComboSkill2::CheckLinearCombo

; 309  : 		}
; 310  : 		break;

  00050	eb 63		 jmp	 SHORT $LN7@OnProcessS
$LN6@OnProcessS:

; 295  : 			}
; 296  : 		}
; 297  : 		break;
; 298  : 	case SS_ACTION:
; 299  : 		{
; 300  : 			CheckExtraAniJump( pChar );

  00052	8b 7d 08	 mov	 edi, DWORD PTR _pChar$[ebp]
  00055	57		 push	 edi
  00056	8b ce		 mov	 ecx, esi
  00058	e8 00 00 00 00	 call	 ?CheckExtraAniJump@ioSkill@@IAEXPAVioBaseChar@@@Z ; ioSkill::CheckExtraAniJump

; 301  : 			CheckAniRotate( pChar );

  0005d	8b 06		 mov	 eax, DWORD PTR [esi]
  0005f	57		 push	 edi
  00060	8b ce		 mov	 ecx, esi
  00062	ff 90 f4 00 00
	00		 call	 DWORD PTR [eax+244]

; 302  : 
; 303  : 			if( CheckEnableRetreatState( pChar ) )

  00068	57		 push	 edi
  00069	8b ce		 mov	 ecx, esi
  0006b	e8 00 00 00 00	 call	 ?CheckEnableRetreatState@ioLinearComboSkill2@@IAE_NPAVioBaseChar@@@Z ; ioLinearComboSkill2::CheckEnableRetreatState

; 304  : 			{
; 305  : 				SetRetreatState( pChar );

  00070	57		 push	 edi
  00071	8b ce		 mov	 ecx, esi
  00073	84 c0		 test	 al, al
  00075	74 d4		 je	 SHORT $LN5@OnProcessS
  00077	e8 00 00 00 00	 call	 ?SetRetreatState@ioLinearComboSkill2@@IAEXPAVioBaseChar@@@Z ; ioLinearComboSkill2::SetRetreatState

; 306  : 				return;

  0007c	eb 37		 jmp	 SHORT $LN7@OnProcessS
$LN8@OnProcessS:

; 285  : 	{
; 286  : 	case SS_NONE:
; 287  : 		{
; 288  : 			DWORD dwPreDelay = GetPreDelayTime();

  0007e	8b 06		 mov	 eax, DWORD PTR [esi]
  00080	8b ce		 mov	 ecx, esi
  00082	ff 90 34 01 00
	00		 call	 DWORD PTR [eax+308]

; 289  : 			if( m_dwPreDelayStartTime + dwPreDelay < dwCurTime )

  00088	8b 96 20 02 00
	00		 mov	 edx, DWORD PTR [esi+544]
  0008e	03 d0		 add	 edx, eax
  00090	3b d7		 cmp	 edx, edi
  00092	73 21		 jae	 SHORT $LN7@OnProcessS

; 290  : 			{
; 291  : 				m_dwPreDelayStartTime = 0;
; 292  : 
; 293  : 				AttackSkillFire( pChar );

  00094	ff 75 08	 push	 DWORD PTR _pChar$[ebp]
  00097	8b 06		 mov	 eax, DWORD PTR [esi]
  00099	83 a6 20 02 00
	00 00		 and	 DWORD PTR [esi+544], 0
  000a0	8b ce		 mov	 ecx, esi
  000a2	ff 90 8c 01 00
	00		 call	 DWORD PTR [eax+396]

; 294  : 				EndPreDelayEffect( pChar );

  000a8	ff 75 08	 push	 DWORD PTR _pChar$[ebp]
  000ab	8b 06		 mov	 eax, DWORD PTR [esi]
  000ad	8b ce		 mov	 ecx, esi
  000af	ff 90 dc 00 00
	00		 call	 DWORD PTR [eax+220]
$LN7@OnProcessS:
  000b5	5f		 pop	 edi
  000b6	5e		 pop	 esi

; 329  : 		}
; 330  : 		break;
; 331  : 	case SS_LAST_ATTACK:
; 332  : 		break;
; 333  : 	}
; 334  : }

  000b7	5d		 pop	 ebp
  000b8	c2 08 00	 ret	 8
?OnProcessState@ioLinearComboSkill2@@UAEXPAVioBaseChar@@PAVioPlayStage@@@Z ENDP ; ioLinearComboSkill2::OnProcessState
_TEXT	ENDS
PUBLIC	??$_Dest_val@V?$allocator@UAttackAttribute@@@std@@UAttackAttribute@@@std@@YAXAAV?$allocator@UAttackAttribute@@@0@PAUAttackAttribute@@@Z ; std::_Dest_val<std::allocator<AttackAttribute>,AttackAttribute>
; Function compile flags: /Ogsp
; File c:\program files (x86)\microsoft visual studio 10.0\vc\include\xmemory
;	COMDAT ??$_Dest_val@V?$allocator@UAttackAttribute@@@std@@UAttackAttribute@@@std@@YAXAAV?$allocator@UAttackAttribute@@@0@PAUAttackAttribute@@@Z
_TEXT	SEGMENT
__Alval$ = 8						; size = 4
__Pdest$ = 12						; size = 4
??$_Dest_val@V?$allocator@UAttackAttribute@@@std@@UAttackAttribute@@@std@@YAXAAV?$allocator@UAttackAttribute@@@0@PAUAttackAttribute@@@Z PROC ; std::_Dest_val<std::allocator<AttackAttribute>,AttackAttribute>, COMDAT

; 286  : 	{	// destroy using allocator

  00000	55		 push	 ebp
  00001	8b ec		 mov	 ebp, esp

; 287  : 	_Alval.destroy(_Pdest);

  00003	8b 4d 0c	 mov	 ecx, DWORD PTR __Pdest$[ebp]

; 288  : 	}

  00006	5d		 pop	 ebp

; 287  : 	_Alval.destroy(_Pdest);

  00007	e9 00 00 00 00	 jmp	 ??1AttackAttribute@@QAE@XZ
??$_Dest_val@V?$allocator@UAttackAttribute@@@std@@UAttackAttribute@@@std@@YAXAAV?$allocator@UAttackAttribute@@@0@PAUAttackAttribute@@@Z ENDP ; std::_Dest_val<std::allocator<AttackAttribute>,AttackAttribute>
_TEXT	ENDS
PUBLIC	??$_Uninit_copy@V?$_Vector_const_iterator@V?$_Vector_val@UAttackAttribute@@V?$allocator@UAttackAttribute@@@std@@@std@@@std@@PAUAttackAttribute@@V?$allocator@UAttackAttribute@@@2@@std@@YAPAUAttackAttribute@@V?$_Vector_const_iterator@V?$_Vector_val@UAttackAttribute@@V?$allocator@UAttackAttribute@@@std@@@std@@@0@0PAU1@AAV?$allocator@UAttackAttribute@@@0@U_Nonscalar_ptr_iterator_tag@0@@Z ; std::_Uninit_copy<std::_Vector_const_iterator<std::_Vector_val<AttackAttribute,std::allocator<AttackAttribute> > >,AttackAttribute *,std::allocator<AttackAttribute> >
;	COMDAT xdata$x
; File c:\program files (x86)\microsoft visual studio 10.0\vc\include\vector
xdata$x	SEGMENT
__catchsym$??$_Uninit_copy@V?$_Vector_const_iterator@V?$_Vector_val@UAttackAttribute@@V?$allocator@UAttackAttribute@@@std@@@std@@@std@@PAUAttackAttribute@@V?$allocator@UAttackAttribute@@@2@@std@@YAPAUAttackAttribute@@V?$_Vector_const_iterator@V?$_Vector_val@UAttackAttribute@@V?$allocator@UAttackAttribute@@@std@@@std@@@0@0PAU1@AAV?$allocator@UAttackAttribute@@@0@U_Nonscalar_ptr_iterator_tag@0@@Z$2 DD 040H
	DD	00H
	DD	00H
	DD	FLAT:__catch$??$_Uninit_copy@V?$_Vector_const_iterator@V?$_Vector_val@UAttackAttribute@@V?$allocator@UAttackAttribute@@@std@@@std@@@std@@PAUAttackAttribute@@V?$allocator@UAttackAttribute@@@2@@std@@YAPAUAttackAttribute@@V?$_Vector_const_iterator@V?$_Vector_val@UAttackAttribute@@V?$allocator@UAttackAttribute@@@std@@@std@@@0@0PAU1@AAV?$allocator@UAttackAttribute@@@0@U_Nonscalar_ptr_iterator_tag@0@@Z$0
__unwindtable$??$_Uninit_copy@V?$_Vector_const_iterator@V?$_Vector_val@UAttackAttribute@@V?$allocator@UAttackAttribute@@@std@@@std@@@std@@PAUAttackAttribute@@V?$allocator@UAttackAttribute@@@2@@std@@YAPAUAttackAttribute@@V?$_Vector_const_iterator@V?$_Vector_val@UAttackAttribute@@V?$allocator@UAttackAttribute@@@std@@@std@@@0@0PAU1@AAV?$allocator@UAttackAttribute@@@0@U_Nonscalar_ptr_iterator_tag@0@@Z DD 0ffffffffH
	DD	00H
	DD	0ffffffffH
	DD	00H
__tryblocktable$??$_Uninit_copy@V?$_Vector_const_iterator@V?$_Vector_val@UAttackAttribute@@V?$allocator@UAttackAttribute@@@std@@@std@@@std@@PAUAttackAttribute@@V?$allocator@UAttackAttribute@@@2@@std@@YAPAUAttackAttribute@@V?$_Vector_const_iterator@V?$_Vector_val@UAttackAttribute@@V?$allocator@UAttackAttribute@@@std@@@std@@@0@0PAU1@AAV?$allocator@UAttackAttribute@@@0@U_Nonscalar_ptr_iterator_tag@0@@Z DD 00H
	DD	00H
	DD	01H
	DD	01H
	DD	FLAT:__catchsym$??$_Uninit_copy@V?$_Vector_const_iterator@V?$_Vector_val@UAttackAttribute@@V?$allocator@UAttackAttribute@@@std@@@std@@@std@@PAUAttackAttribute@@V?$allocator@UAttackAttribute@@@2@@std@@YAPAUAttackAttribute@@V?$_Vector_const_iterator@V?$_Vector_val@UAttackAttribute@@V?$allocator@UAttackAttribute@@@std@@@std@@@0@0PAU1@AAV?$allocator@UAttackAttribute@@@0@U_Nonscalar_ptr_iterator_tag@0@@Z$2
__ehfuncinfo$??$_Uninit_copy@V?$_Vector_const_iterator@V?$_Vector_val@UAttackAttribute@@V?$allocator@UAttackAttribute@@@std@@@std@@@std@@PAUAttackAttribute@@V?$allocator@UAttackAttribute@@@2@@std@@YAPAUAttackAttribute@@V?$_Vector_const_iterator@V?$_Vector_val@UAttackAttribute@@V?$allocator@UAttackAttribute@@@std@@@std@@@0@0PAU1@AAV?$allocator@UAttackAttribute@@@0@U_Nonscalar_ptr_iterator_tag@0@@Z DD 019930522H
	DD	02H
	DD	FLAT:__unwindtable$??$_Uninit_copy@V?$_Vector_const_iterator@V?$_Vector_val@UAttackAttribute@@V?$allocator@UAttackAttribute@@@std@@@std@@@std@@PAUAttackAttribute@@V?$allocator@UAttackAttribute@@@2@@std@@YAPAUAttackAttribute@@V?$_Vector_const_iterator@V?$_Vector_val@UAttackAttribute@@V?$allocator@UAttackAttribute@@@std@@@std@@@0@0PAU1@AAV?$allocator@UAttackAttribute@@@0@U_Nonscalar_ptr_iterator_tag@0@@Z
	DD	01H
	DD	FLAT:__tryblocktable$??$_Uninit_copy@V?$_Vector_const_iterator@V?$_Vector_val@UAttackAttribute@@V?$allocator@UAttackAttribute@@@std@@@std@@@std@@PAUAttackAttribute@@V?$allocator@UAttackAttribute@@@2@@std@@YAPAUAttackAttribute@@V?$_Vector_const_iterator@V?$_Vector_val@UAttackAttribute@@V?$allocator@UAttackAttribute@@@std@@@std@@@0@0PAU1@AAV?$allocator@UAttackAttribute@@@0@U_Nonscalar_ptr_iterator_tag@0@@Z
	DD	2 DUP(00H)
	DD	00H
	DD	01H
; Function compile flags: /Ogsp
; File c:\program files (x86)\microsoft visual studio 10.0\vc\include\memory
xdata$x	ENDS
;	COMDAT ??$_Uninit_copy@V?$_Vector_const_iterator@V?$_Vector_val@UAttackAttribute@@V?$allocator@UAttackAttribute@@@std@@@std@@@std@@PAUAttackAttribute@@V?$allocator@UAttackAttribute@@@2@@std@@YAPAUAttackAttribute@@V?$_Vector_const_iterator@V?$_Vector_val@UAttackAttribute@@V?$allocator@UAttackAttribute@@@std@@@std@@@0@0PAU1@AAV?$allocator@UAttackAttribute@@@0@U_Nonscalar_ptr_iterator_tag@0@@Z
_TEXT	SEGMENT
__Next$ = -20						; size = 4
__$EHRec$ = -16						; size = 16
__First$ = 8						; size = 4
__Last$ = 12						; size = 4
__Dest$ = 16						; size = 4
__Al$ = 20						; size = 4
___formal$ = 24						; size = 1
??$_Uninit_copy@V?$_Vector_const_iterator@V?$_Vector_val@UAttackAttribute@@V?$allocator@UAttackAttribute@@@std@@@std@@@std@@PAUAttackAttribute@@V?$allocator@UAttackAttribute@@@2@@std@@YAPAUAttackAttribute@@V?$_Vector_const_iterator@V?$_Vector_val@UAttackAttribute@@V?$allocator@UAttackAttribute@@@std@@@std@@@0@0PAU1@AAV?$allocator@UAttackAttribute@@@0@U_Nonscalar_ptr_iterator_tag@0@@Z PROC ; std::_Uninit_copy<std::_Vector_const_iterator<std::_Vector_val<AttackAttribute,std::allocator<AttackAttribute> > >,AttackAttribute *,std::allocator<AttackAttribute> >, COMDAT

; 369  : 	{	// copy [_First, _Last) to raw _Dest, using _Al, arbitrary type

  00000	6a 08		 push	 8
  00002	b8 00 00 00 00	 mov	 eax, __ehhandler$??$_Uninit_copy@V?$_Vector_const_iterator@V?$_Vector_val@UAttackAttribute@@V?$allocator@UAttackAttribute@@@std@@@std@@@std@@PAUAttackAttribute@@V?$allocator@UAttackAttribute@@@2@@std@@YAPAUAttackAttribute@@V?$_Vector_const_iterator@V?$_Vector_val@UAttackAttribute@@V?$allocator@UAttackAttribute@@@std@@@std@@@0@0PAU1@AAV?$allocator@UAttackAttribute@@@0@U_Nonscalar_ptr_iterator_tag@0@@Z
  00007	e8 00 00 00 00	 call	 __EH_prolog3_catch

; 370  : 	_DEBUG_RANGE(_First, _Last);
; 371  : 	_DEBUG_POINTER(_Dest);
; 372  : 	_FwdIt _Next = _Dest;

  0000c	8b 45 10	 mov	 eax, DWORD PTR __Dest$[ebp]

; 373  : 
; 374  : 	_TRY_BEGIN

  0000f	83 65 fc 00	 and	 DWORD PTR __$EHRec$[ebp+12], 0
  00013	89 45 ec	 mov	 DWORD PTR __Next$[ebp], eax

; 375  : 	for (; _First != _Last; ++_Dest, ++_First)

$LL14@Uninit_cop@5:
  00016	8b 45 08	 mov	 eax, DWORD PTR __First$[ebp]
  00019	3b 45 0c	 cmp	 eax, DWORD PTR __Last$[ebp]
  0001c	74 32		 je	 SHORT $LN4@Uninit_cop@5

; 376  : 		_Cons_val(_Al, _Dest, *_First);

  0001e	50		 push	 eax
  0001f	ff 75 10	 push	 DWORD PTR __Dest$[ebp]
  00022	e8 00 00 00 00	 call	 ??$_Construct@UAttackAttribute@@ABU1@@std@@YAXPAUAttackAttribute@@ABU1@@Z ; std::_Construct<AttackAttribute,AttackAttribute const &>
  00027	83 45 10 50	 add	 DWORD PTR __Dest$[ebp], 80 ; 00000050H
  0002b	83 45 08 50	 add	 DWORD PTR __First$[ebp], 80 ; 00000050H
  0002f	59		 pop	 ecx
  00030	59		 pop	 ecx
  00031	eb e3		 jmp	 SHORT $LL14@Uninit_cop@5
__catch$??$_Uninit_copy@V?$_Vector_const_iterator@V?$_Vector_val@UAttackAttribute@@V?$allocator@UAttackAttribute@@@std@@@std@@@std@@PAUAttackAttribute@@V?$allocator@UAttackAttribute@@@2@@std@@YAPAUAttackAttribute@@V?$_Vector_const_iterator@V?$_Vector_val@UAttackAttribute@@V?$allocator@UAttackAttribute@@@std@@@std@@@0@0PAU1@AAV?$allocator@UAttackAttribute@@@0@U_Nonscalar_ptr_iterator_tag@0@@Z$0:

; 377  : 	_CATCH_ALL
; 378  : 	for (; _Next != _Dest; ++_Next)

  00033	8b 75 ec	 mov	 esi, DWORD PTR __Next$[ebp]
  00036	eb 0a		 jmp	 SHORT $LN45@Uninit_cop@5
$LL3@Uninit_cop@5:

; 379  : 		_Dest_val(_Al, _Next);

  00038	8b ce		 mov	 ecx, esi
  0003a	e8 00 00 00 00	 call	 ??1AttackAttribute@@QAE@XZ
  0003f	83 c6 50	 add	 esi, 80			; 00000050H
$LN45@Uninit_cop@5:

; 377  : 	_CATCH_ALL
; 378  : 	for (; _Next != _Dest; ++_Next)

  00042	3b 75 10	 cmp	 esi, DWORD PTR __Dest$[ebp]
  00045	75 f1		 jne	 SHORT $LL3@Uninit_cop@5

; 380  : 	_RERAISE;

  00047	6a 00		 push	 0
  00049	6a 00		 push	 0
  0004b	e8 00 00 00 00	 call	 __CxxThrowException@8
$LN46@Uninit_cop@5:
$LN4@Uninit_cop@5:

; 381  : 	_CATCH_END
; 382  : 	return (_Dest);

  00050	8b 45 10	 mov	 eax, DWORD PTR __Dest$[ebp]

; 383  : 	}

  00053	e8 00 00 00 00	 call	 __EH_epilog3
  00058	c3		 ret	 0
$LN44@Uninit_cop@5:
_TEXT	ENDS
;	COMDAT text$x
text$x	SEGMENT
__ehhandler$??$_Uninit_copy@V?$_Vector_const_iterator@V?$_Vector_val@UAttackAttribute@@V?$allocator@UAttackAttribute@@@std@@@std@@@std@@PAUAttackAttribute@@V?$allocator@UAttackAttribute@@@2@@std@@YAPAUAttackAttribute@@V?$_Vector_const_iterator@V?$_Vector_val@UAttackAttribute@@V?$allocator@UAttackAttribute@@@std@@@std@@@0@0PAU1@AAV?$allocator@UAttackAttribute@@@0@U_Nonscalar_ptr_iterator_tag@0@@Z:
  00000	8b 54 24 08	 mov	 edx, DWORD PTR [esp+8]
  00004	8d 42 0c	 lea	 eax, DWORD PTR [edx+12]
  00007	8b 4a e8	 mov	 ecx, DWORD PTR [edx-24]
  0000a	33 c8		 xor	 ecx, eax
  0000c	e8 00 00 00 00	 call	 @__security_check_cookie@4
  00011	b8 00 00 00 00	 mov	 eax, OFFSET __ehfuncinfo$??$_Uninit_copy@V?$_Vector_const_iterator@V?$_Vector_val@UAttackAttribute@@V?$allocator@UAttackAttribute@@@std@@@std@@@std@@PAUAttackAttribute@@V?$allocator@UAttackAttribute@@@2@@std@@YAPAUAttackAttribute@@V?$_Vector_const_iterator@V?$_Vector_val@UAttackAttribute@@V?$allocator@UAttackAttribute@@@std@@@std@@@0@0PAU1@AAV?$allocator@UAttackAttribute@@@0@U_Nonscalar_ptr_iterator_tag@0@@Z
  00016	e9 00 00 00 00	 jmp	 ___CxxFrameHandler3
text$x	ENDS
??$_Uninit_copy@V?$_Vector_const_iterator@V?$_Vector_val@UAttackAttribute@@V?$allocator@UAttackAttribute@@@std@@@std@@@std@@PAUAttackAttribute@@V?$allocator@UAttackAttribute@@@2@@std@@YAPAUAttackAttribute@@V?$_Vector_const_iterator@V?$_Vector_val@UAttackAttribute@@V?$allocator@UAttackAttribute@@@std@@@std@@@0@0PAU1@AAV?$allocator@UAttackAttribute@@@0@U_Nonscalar_ptr_iterator_tag@0@@Z ENDP ; std::_Uninit_copy<std::_Vector_const_iterator<std::_Vector_val<AttackAttribute,std::allocator<AttackAttribute> > >,AttackAttribute *,std::allocator<AttackAttribute> >
PUBLIC	??$_Uninit_move@PAUAttackAttribute@@PAU1@V?$allocator@UAttackAttribute@@@std@@U1@@std@@YAPAUAttackAttribute@@PAU1@00AAV?$allocator@UAttackAttribute@@@0@0U_Nonscalar_ptr_iterator_tag@0@@Z ; std::_Uninit_move<AttackAttribute *,AttackAttribute *,std::allocator<AttackAttribute>,AttackAttribute>
;	COMDAT xdata$x
; File c:\program files (x86)\microsoft visual studio 10.0\vc\include\vector
xdata$x	SEGMENT
__catchsym$??$_Uninit_move@PAUAttackAttribute@@PAU1@V?$allocator@UAttackAttribute@@@std@@U1@@std@@YAPAUAttackAttribute@@PAU1@00AAV?$allocator@UAttackAttribute@@@0@0U_Nonscalar_ptr_iterator_tag@0@@Z$2 DD 040H
	DD	00H
	DD	00H
	DD	FLAT:__catch$??$_Uninit_move@PAUAttackAttribute@@PAU1@V?$allocator@UAttackAttribute@@@std@@U1@@std@@YAPAUAttackAttribute@@PAU1@00AAV?$allocator@UAttackAttribute@@@0@0U_Nonscalar_ptr_iterator_tag@0@@Z$0
__unwindtable$??$_Uninit_move@PAUAttackAttribute@@PAU1@V?$allocator@UAttackAttribute@@@std@@U1@@std@@YAPAUAttackAttribute@@PAU1@00AAV?$allocator@UAttackAttribute@@@0@0U_Nonscalar_ptr_iterator_tag@0@@Z DD 0ffffffffH
	DD	00H
	DD	0ffffffffH
	DD	00H
__tryblocktable$??$_Uninit_move@PAUAttackAttribute@@PAU1@V?$allocator@UAttackAttribute@@@std@@U1@@std@@YAPAUAttackAttribute@@PAU1@00AAV?$allocator@UAttackAttribute@@@0@0U_Nonscalar_ptr_iterator_tag@0@@Z DD 00H
	DD	00H
	DD	01H
	DD	01H
	DD	FLAT:__catchsym$??$_Uninit_move@PAUAttackAttribute@@PAU1@V?$allocator@UAttackAttribute@@@std@@U1@@std@@YAPAUAttackAttribute@@PAU1@00AAV?$allocator@UAttackAttribute@@@0@0U_Nonscalar_ptr_iterator_tag@0@@Z$2
__ehfuncinfo$??$_Uninit_move@PAUAttackAttribute@@PAU1@V?$allocator@UAttackAttribute@@@std@@U1@@std@@YAPAUAttackAttribute@@PAU1@00AAV?$allocator@UAttackAttribute@@@0@0U_Nonscalar_ptr_iterator_tag@0@@Z DD 019930522H
	DD	02H
	DD	FLAT:__unwindtable$??$_Uninit_move@PAUAttackAttribute@@PAU1@V?$allocator@UAttackAttribute@@@std@@U1@@std@@YAPAUAttackAttribute@@PAU1@00AAV?$allocator@UAttackAttribute@@@0@0U_Nonscalar_ptr_iterator_tag@0@@Z
	DD	01H
	DD	FLAT:__tryblocktable$??$_Uninit_move@PAUAttackAttribute@@PAU1@V?$allocator@UAttackAttribute@@@std@@U1@@std@@YAPAUAttackAttribute@@PAU1@00AAV?$allocator@UAttackAttribute@@@0@0U_Nonscalar_ptr_iterator_tag@0@@Z
	DD	2 DUP(00H)
	DD	00H
	DD	01H
; Function compile flags: /Ogsp
; File c:\program files (x86)\microsoft visual studio 10.0\vc\include\memory
xdata$x	ENDS
;	COMDAT ??$_Uninit_move@PAUAttackAttribute@@PAU1@V?$allocator@UAttackAttribute@@@std@@U1@@std@@YAPAUAttackAttribute@@PAU1@00AAV?$allocator@UAttackAttribute@@@0@0U_Nonscalar_ptr_iterator_tag@0@@Z
_TEXT	SEGMENT
__Next$ = -20						; size = 4
__$EHRec$ = -16						; size = 16
__First$ = 8						; size = 4
__Last$ = 12						; size = 4
__Dest$ = 16						; size = 4
__Al$ = 20						; size = 4
___formal$ = 24						; size = 4
___formal$ = 28						; size = 1
??$_Uninit_move@PAUAttackAttribute@@PAU1@V?$allocator@UAttackAttribute@@@std@@U1@@std@@YAPAUAttackAttribute@@PAU1@00AAV?$allocator@UAttackAttribute@@@0@0U_Nonscalar_ptr_iterator_tag@0@@Z PROC ; std::_Uninit_move<AttackAttribute *,AttackAttribute *,std::allocator<AttackAttribute>,AttackAttribute>, COMDAT

; 424  : 	{	// move [_First, _Last) to raw _Dest, using _Al, arbitrary type

  00000	6a 08		 push	 8
  00002	b8 00 00 00 00	 mov	 eax, __ehhandler$??$_Uninit_move@PAUAttackAttribute@@PAU1@V?$allocator@UAttackAttribute@@@std@@U1@@std@@YAPAUAttackAttribute@@PAU1@00AAV?$allocator@UAttackAttribute@@@0@0U_Nonscalar_ptr_iterator_tag@0@@Z
  00007	e8 00 00 00 00	 call	 __EH_prolog3_catch

; 425  : 	_DEBUG_RANGE(_First, _Last);
; 426  : 	_DEBUG_POINTER(_Dest);
; 427  : 	_FwdIt _Next = _Dest;

  0000c	8b 45 10	 mov	 eax, DWORD PTR __Dest$[ebp]

; 428  : 
; 429  : 	_TRY_BEGIN

  0000f	83 65 fc 00	 and	 DWORD PTR __$EHRec$[ebp+12], 0
  00013	8b 75 08	 mov	 esi, DWORD PTR __First$[ebp]
  00016	89 45 ec	 mov	 DWORD PTR __Next$[ebp], eax
$LL6@Uninit_mov:

; 430  : 	for (; _First != _Last; ++_Dest, ++_First)

  00019	3b 75 0c	 cmp	 esi, DWORD PTR __Last$[ebp]
  0001c	74 35		 je	 SHORT $LN4@Uninit_mov

; 431  : 		_Cons_val(_Al, _Dest, (_Valty &&)*_First);

  0001e	56		 push	 esi
  0001f	ff 75 10	 push	 DWORD PTR __Dest$[ebp]
  00022	ff 75 14	 push	 DWORD PTR __Al$[ebp]
  00025	e8 00 00 00 00	 call	 ??$_Cons_val@V?$allocator@UAttackAttribute@@@std@@UAttackAttribute@@U3@@std@@YAXAAV?$allocator@UAttackAttribute@@@0@PAUAttackAttribute@@$$QAU2@@Z ; std::_Cons_val<std::allocator<AttackAttribute>,AttackAttribute,AttackAttribute>
  0002a	83 45 10 50	 add	 DWORD PTR __Dest$[ebp], 80 ; 00000050H
  0002e	83 c4 0c	 add	 esp, 12			; 0000000cH
  00031	83 c6 50	 add	 esi, 80			; 00000050H
  00034	eb e3		 jmp	 SHORT $LL6@Uninit_mov
__catch$??$_Uninit_move@PAUAttackAttribute@@PAU1@V?$allocator@UAttackAttribute@@@std@@U1@@std@@YAPAUAttackAttribute@@PAU1@00AAV?$allocator@UAttackAttribute@@@0@0U_Nonscalar_ptr_iterator_tag@0@@Z$0:

; 432  : 	_CATCH_ALL
; 433  : 	for (; _Next != _Dest; ++_Next)

  00036	8b 75 ec	 mov	 esi, DWORD PTR __Next$[ebp]
  00039	eb 0a		 jmp	 SHORT $LN29@Uninit_mov
$LL3@Uninit_mov:

; 434  : 		_Dest_val(_Al, _Next);

  0003b	8b ce		 mov	 ecx, esi
  0003d	e8 00 00 00 00	 call	 ??1AttackAttribute@@QAE@XZ
  00042	83 c6 50	 add	 esi, 80			; 00000050H
$LN29@Uninit_mov:

; 432  : 	_CATCH_ALL
; 433  : 	for (; _Next != _Dest; ++_Next)

  00045	3b 75 10	 cmp	 esi, DWORD PTR __Dest$[ebp]
  00048	75 f1		 jne	 SHORT $LL3@Uninit_mov

; 435  : 	_RERAISE;

  0004a	6a 00		 push	 0
  0004c	6a 00		 push	 0
  0004e	e8 00 00 00 00	 call	 __CxxThrowException@8
$LN30@Uninit_mov:
$LN4@Uninit_mov:

; 436  : 	_CATCH_END
; 437  : 	return (_Dest);

  00053	8b 45 10	 mov	 eax, DWORD PTR __Dest$[ebp]

; 438  : 	}

  00056	e8 00 00 00 00	 call	 __EH_epilog3
  0005b	c3		 ret	 0
$LN28@Uninit_mov:
_TEXT	ENDS
;	COMDAT text$x
text$x	SEGMENT
__ehhandler$??$_Uninit_move@PAUAttackAttribute@@PAU1@V?$allocator@UAttackAttribute@@@std@@U1@@std@@YAPAUAttackAttribute@@PAU1@00AAV?$allocator@UAttackAttribute@@@0@0U_Nonscalar_ptr_iterator_tag@0@@Z:
  00000	8b 54 24 08	 mov	 edx, DWORD PTR [esp+8]
  00004	8d 42 0c	 lea	 eax, DWORD PTR [edx+12]
  00007	8b 4a e8	 mov	 ecx, DWORD PTR [edx-24]
  0000a	33 c8		 xor	 ecx, eax
  0000c	e8 00 00 00 00	 call	 @__security_check_cookie@4
  00011	b8 00 00 00 00	 mov	 eax, OFFSET __ehfuncinfo$??$_Uninit_move@PAUAttackAttribute@@PAU1@V?$allocator@UAttackAttribute@@@std@@U1@@std@@YAPAUAttackAttribute@@PAU1@00AAV?$allocator@UAttackAttribute@@@0@0U_Nonscalar_ptr_iterator_tag@0@@Z
  00016	e9 00 00 00 00	 jmp	 ___CxxFrameHandler3
text$x	ENDS
??$_Uninit_move@PAUAttackAttribute@@PAU1@V?$allocator@UAttackAttribute@@@std@@U1@@std@@YAPAUAttackAttribute@@PAU1@00AAV?$allocator@UAttackAttribute@@@0@0U_Nonscalar_ptr_iterator_tag@0@@Z ENDP ; std::_Uninit_move<AttackAttribute *,AttackAttribute *,std::allocator<AttackAttribute>,AttackAttribute>
PUBLIC	??$_Destroy_range@V?$allocator@UAttackAttribute@@@std@@@std@@YAXPAUAttackAttribute@@0AAV?$allocator@UAttackAttribute@@@0@U_Nonscalar_ptr_iterator_tag@0@@Z ; std::_Destroy_range<std::allocator<AttackAttribute> >
; Function compile flags: /Ogsp
; File c:\program files (x86)\microsoft visual studio 10.0\vc\include\xmemory
;	COMDAT ??$_Destroy_range@V?$allocator@UAttackAttribute@@@std@@@std@@YAXPAUAttackAttribute@@0AAV?$allocator@UAttackAttribute@@@0@U_Nonscalar_ptr_iterator_tag@0@@Z
_TEXT	SEGMENT
__First$ = 8						; size = 4
__Last$ = 12						; size = 4
__Al$ = 16						; size = 4
___formal$ = 20						; size = 1
??$_Destroy_range@V?$allocator@UAttackAttribute@@@std@@@std@@YAXPAUAttackAttribute@@0AAV?$allocator@UAttackAttribute@@@0@U_Nonscalar_ptr_iterator_tag@0@@Z PROC ; std::_Destroy_range<std::allocator<AttackAttribute> >, COMDAT

; 95   : 	{	// destroy [_First, _Last), arbitrary type

  00000	55		 push	 ebp
  00001	8b ec		 mov	 ebp, esp
  00003	56		 push	 esi

; 96   : 	for (; _First != _Last; ++_First)

  00004	8b 75 08	 mov	 esi, DWORD PTR __First$[ebp]
  00007	eb 0a		 jmp	 SHORT $LN17@Destroy_ra@3
$LL3@Destroy_ra@3:

; 97   : 		_Dest_val(_Al, _First);

  00009	8b ce		 mov	 ecx, esi
  0000b	e8 00 00 00 00	 call	 ??1AttackAttribute@@QAE@XZ
  00010	83 c6 50	 add	 esi, 80			; 00000050H
$LN17@Destroy_ra@3:

; 96   : 	for (; _First != _Last; ++_First)

  00013	3b 75 0c	 cmp	 esi, DWORD PTR __Last$[ebp]
  00016	75 f1		 jne	 SHORT $LL3@Destroy_ra@3
  00018	5e		 pop	 esi

; 98   : 	}

  00019	5d		 pop	 ebp
  0001a	c3		 ret	 0
??$_Destroy_range@V?$allocator@UAttackAttribute@@@std@@@std@@YAXPAUAttackAttribute@@0AAV?$allocator@UAttackAttribute@@@0@U_Nonscalar_ptr_iterator_tag@0@@Z ENDP ; std::_Destroy_range<std::allocator<AttackAttribute> >
_TEXT	ENDS
PUBLIC	??$_Uninitialized_copy@V?$_Vector_const_iterator@V?$_Vector_val@UAttackAttribute@@V?$allocator@UAttackAttribute@@@std@@@std@@@std@@PAUAttackAttribute@@V?$allocator@UAttackAttribute@@@2@@std@@YAPAUAttackAttribute@@V?$_Vector_const_iterator@V?$_Vector_val@UAttackAttribute@@V?$allocator@UAttackAttribute@@@std@@@std@@@0@0PAU1@AAV?$allocator@UAttackAttribute@@@0@@Z ; std::_Uninitialized_copy<std::_Vector_const_iterator<std::_Vector_val<AttackAttribute,std::allocator<AttackAttribute> > >,AttackAttribute *,std::allocator<AttackAttribute> >
; Function compile flags: /Ogsp
; File c:\program files (x86)\microsoft visual studio 10.0\vc\include\memory
;	COMDAT ??$_Uninitialized_copy@V?$_Vector_const_iterator@V?$_Vector_val@UAttackAttribute@@V?$allocator@UAttackAttribute@@@std@@@std@@@std@@PAUAttackAttribute@@V?$allocator@UAttackAttribute@@@2@@std@@YAPAUAttackAttribute@@V?$_Vector_const_iterator@V?$_Vector_val@UAttackAttribute@@V?$allocator@UAttackAttribute@@@std@@@std@@@0@0PAU1@AAV?$allocator@UAttackAttribute@@@0@@Z
_TEXT	SEGMENT
__Cat$620748 = -4					; size = 1
__First$ = 8						; size = 4
__Last$ = 12						; size = 4
__Dest$ = 16						; size = 4
__Al$ = 20						; size = 4
??$_Uninitialized_copy@V?$_Vector_const_iterator@V?$_Vector_val@UAttackAttribute@@V?$allocator@UAttackAttribute@@@std@@@std@@@std@@PAUAttackAttribute@@V?$allocator@UAttackAttribute@@@2@@std@@YAPAUAttackAttribute@@V?$_Vector_const_iterator@V?$_Vector_val@UAttackAttribute@@V?$allocator@UAttackAttribute@@@std@@@std@@@0@0PAU1@AAV?$allocator@UAttackAttribute@@@0@@Z PROC ; std::_Uninitialized_copy<std::_Vector_const_iterator<std::_Vector_val<AttackAttribute,std::allocator<AttackAttribute> > >,AttackAttribute *,std::allocator<AttackAttribute> >, COMDAT

; 412  : 	{	// copy [_First, _Last) to raw _Dest, using _Al

  00000	55		 push	 ebp
  00001	8b ec		 mov	 ebp, esp
  00003	51		 push	 ecx

; 413  : 	return (_Uninit_copy(_First, _Last, _Dest, _Al,
; 414  : 		_Ptr_cat(_First, _Dest)));

  00004	ff 75 fc	 push	 DWORD PTR __Cat$620748[ebp]
  00007	ff 75 14	 push	 DWORD PTR __Al$[ebp]
  0000a	ff 75 10	 push	 DWORD PTR __Dest$[ebp]
  0000d	ff 75 0c	 push	 DWORD PTR __Last$[ebp]
  00010	ff 75 08	 push	 DWORD PTR __First$[ebp]
  00013	e8 00 00 00 00	 call	 ??$_Uninit_copy@V?$_Vector_const_iterator@V?$_Vector_val@UAttackAttribute@@V?$allocator@UAttackAttribute@@@std@@@std@@@std@@PAUAttackAttribute@@V?$allocator@UAttackAttribute@@@2@@std@@YAPAUAttackAttribute@@V?$_Vector_const_iterator@V?$_Vector_val@UAttackAttribute@@V?$allocator@UAttackAttribute@@@std@@@std@@@0@0PAU1@AAV?$allocator@UAttackAttribute@@@0@U_Nonscalar_ptr_iterator_tag@0@@Z ; std::_Uninit_copy<std::_Vector_const_iterator<std::_Vector_val<AttackAttribute,std::allocator<AttackAttribute> > >,AttackAttribute *,std::allocator<AttackAttribute> >
  00018	83 c4 14	 add	 esp, 20			; 00000014H

; 415  : 	}

  0001b	c9		 leave
  0001c	c3		 ret	 0
??$_Uninitialized_copy@V?$_Vector_const_iterator@V?$_Vector_val@UAttackAttribute@@V?$allocator@UAttackAttribute@@@std@@@std@@@std@@PAUAttackAttribute@@V?$allocator@UAttackAttribute@@@2@@std@@YAPAUAttackAttribute@@V?$_Vector_const_iterator@V?$_Vector_val@UAttackAttribute@@V?$allocator@UAttackAttribute@@@std@@@std@@@0@0PAU1@AAV?$allocator@UAttackAttribute@@@0@@Z ENDP ; std::_Uninitialized_copy<std::_Vector_const_iterator<std::_Vector_val<AttackAttribute,std::allocator<AttackAttribute> > >,AttackAttribute *,std::allocator<AttackAttribute> >
_TEXT	ENDS
PUBLIC	??$_Uninitialized_move@PAUAttackAttribute@@PAU1@V?$allocator@UAttackAttribute@@@std@@@std@@YAPAUAttackAttribute@@PAU1@00AAV?$allocator@UAttackAttribute@@@0@@Z ; std::_Uninitialized_move<AttackAttribute *,AttackAttribute *,std::allocator<AttackAttribute> >
; Function compile flags: /Ogsp
;	COMDAT ??$_Uninitialized_move@PAUAttackAttribute@@PAU1@V?$allocator@UAttackAttribute@@@std@@@std@@YAPAUAttackAttribute@@PAU1@00AAV?$allocator@UAttackAttribute@@@0@@Z
_TEXT	SEGMENT
__Cat$620755 = -4					; size = 1
__First$ = 8						; size = 4
__Last$ = 12						; size = 4
__Dest$ = 16						; size = 4
__Al$ = 20						; size = 4
??$_Uninitialized_move@PAUAttackAttribute@@PAU1@V?$allocator@UAttackAttribute@@@std@@@std@@YAPAUAttackAttribute@@PAU1@00AAV?$allocator@UAttackAttribute@@@0@@Z PROC ; std::_Uninitialized_move<AttackAttribute *,AttackAttribute *,std::allocator<AttackAttribute> >, COMDAT

; 469  : 	{	// move [_First, _Last) to raw _Dest, using _Al

  00000	55		 push	 ebp
  00001	8b ec		 mov	 ebp, esp
  00003	51		 push	 ecx

; 470  : 	return (_Uninit_move(_First, _Last, _Dest, _Al,
; 471  : 		_Val_type(_First), _Ptr_cat(_First, _Dest)));

  00004	ff 75 fc	 push	 DWORD PTR __Cat$620755[ebp]
  00007	6a 00		 push	 0
  00009	ff 75 14	 push	 DWORD PTR __Al$[ebp]
  0000c	ff 75 10	 push	 DWORD PTR __Dest$[ebp]
  0000f	ff 75 0c	 push	 DWORD PTR __Last$[ebp]
  00012	ff 75 08	 push	 DWORD PTR __First$[ebp]
  00015	e8 00 00 00 00	 call	 ??$_Uninit_move@PAUAttackAttribute@@PAU1@V?$allocator@UAttackAttribute@@@std@@U1@@std@@YAPAUAttackAttribute@@PAU1@00AAV?$allocator@UAttackAttribute@@@0@0U_Nonscalar_ptr_iterator_tag@0@@Z ; std::_Uninit_move<AttackAttribute *,AttackAttribute *,std::allocator<AttackAttribute>,AttackAttribute>
  0001a	83 c4 18	 add	 esp, 24			; 00000018H

; 472  : 	}

  0001d	c9		 leave
  0001e	c3		 ret	 0
??$_Uninitialized_move@PAUAttackAttribute@@PAU1@V?$allocator@UAttackAttribute@@@std@@@std@@YAPAUAttackAttribute@@PAU1@00AAV?$allocator@UAttackAttribute@@@0@@Z ENDP ; std::_Uninitialized_move<AttackAttribute *,AttackAttribute *,std::allocator<AttackAttribute> >
_TEXT	ENDS
PUBLIC	??$_Destroy_range@V?$allocator@UAttackAttribute@@@std@@@std@@YAXPAUAttackAttribute@@0AAV?$allocator@UAttackAttribute@@@0@@Z ; std::_Destroy_range<std::allocator<AttackAttribute> >
; Function compile flags: /Ogsp
; File c:\program files (x86)\microsoft visual studio 10.0\vc\include\xmemory
;	COMDAT ??$_Destroy_range@V?$allocator@UAttackAttribute@@@std@@@std@@YAXPAUAttackAttribute@@0AAV?$allocator@UAttackAttribute@@@0@@Z
_TEXT	SEGMENT
__First$ = 8						; size = 4
__Last$ = 12						; size = 4
__Al$ = 16						; size = 4
??$_Destroy_range@V?$allocator@UAttackAttribute@@@std@@@std@@YAXPAUAttackAttribute@@0AAV?$allocator@UAttackAttribute@@@0@@Z PROC ; std::_Destroy_range<std::allocator<AttackAttribute> >, COMDAT

; 87   : 	{	// destroy [_First, _Last)

  00000	55		 push	 ebp
  00001	8b ec		 mov	 ebp, esp
  00003	56		 push	 esi

; 88   : 	_Destroy_range(_First, _Last, _Al, _Ptr_cat(_First, _Last));

  00004	8b 75 08	 mov	 esi, DWORD PTR __First$[ebp]
  00007	eb 0a		 jmp	 SHORT $LN21@Destroy_ra@4
$LL7@Destroy_ra@4:
  00009	8b ce		 mov	 ecx, esi
  0000b	e8 00 00 00 00	 call	 ??1AttackAttribute@@QAE@XZ
  00010	83 c6 50	 add	 esi, 80			; 00000050H
$LN21@Destroy_ra@4:
  00013	3b 75 0c	 cmp	 esi, DWORD PTR __Last$[ebp]
  00016	75 f1		 jne	 SHORT $LL7@Destroy_ra@4
  00018	5e		 pop	 esi

; 89   : 	}

  00019	5d		 pop	 ebp
  0001a	c3		 ret	 0
??$_Destroy_range@V?$allocator@UAttackAttribute@@@std@@@std@@YAXPAUAttackAttribute@@0AAV?$allocator@UAttackAttribute@@@0@@Z ENDP ; std::_Destroy_range<std::allocator<AttackAttribute> >
_TEXT	ENDS
PUBLIC	??$_Ucopy@V?$_Vector_const_iterator@V?$_Vector_val@UAttackAttribute@@V?$allocator@UAttackAttribute@@@std@@@std@@@std@@@?$vector@UAttackAttribute@@V?$allocator@UAttackAttribute@@@std@@@std@@IAEPAUAttackAttribute@@V?$_Vector_const_iterator@V?$_Vector_val@UAttackAttribute@@V?$allocator@UAttackAttribute@@@std@@@std@@@1@0PAU2@@Z ; std::vector<AttackAttribute,std::allocator<AttackAttribute> >::_Ucopy<std::_Vector_const_iterator<std::_Vector_val<AttackAttribute,std::allocator<AttackAttribute> > > >
; Function compile flags: /Ogsp
; File c:\program files (x86)\microsoft visual studio 10.0\vc\include\vector
;	COMDAT ??$_Ucopy@V?$_Vector_const_iterator@V?$_Vector_val@UAttackAttribute@@V?$allocator@UAttackAttribute@@@std@@@std@@@std@@@?$vector@UAttackAttribute@@V?$allocator@UAttackAttribute@@@std@@@std@@IAEPAUAttackAttribute@@V?$_Vector_const_iterator@V?$_Vector_val@UAttackAttribute@@V?$allocator@UAttackAttribute@@@std@@@std@@@1@0PAU2@@Z
_TEXT	SEGMENT
__First$ = 8						; size = 4
__Last$ = 12						; size = 4
__Cat$620825 = 16					; size = 1
__Ptr$ = 16						; size = 4
??$_Ucopy@V?$_Vector_const_iterator@V?$_Vector_val@UAttackAttribute@@V?$allocator@UAttackAttribute@@@std@@@std@@@std@@@?$vector@UAttackAttribute@@V?$allocator@UAttackAttribute@@@std@@@std@@IAEPAUAttackAttribute@@V?$_Vector_const_iterator@V?$_Vector_val@UAttackAttribute@@V?$allocator@UAttackAttribute@@@std@@@std@@@1@0PAU2@@Z PROC ; std::vector<AttackAttribute,std::allocator<AttackAttribute> >::_Ucopy<std::_Vector_const_iterator<std::_Vector_val<AttackAttribute,std::allocator<AttackAttribute> > > >, COMDAT
; _this$ = ecx

; 1315 : 		pointer _Ucopy(_Iter _First, _Iter _Last, pointer _Ptr)

  00000	55		 push	 ebp
  00001	8b ec		 mov	 ebp, esp

; 1316 : 		{	// copy initializing [_First, _Last), using allocator
; 1317 : 		return (_Uninitialized_copy(_First, _Last,
; 1318 : 			_Ptr, this->_Alval));

  00003	ff 75 10	 push	 DWORD PTR __Cat$620825[ebp]
  00006	83 c1 0c	 add	 ecx, 12			; 0000000cH
  00009	51		 push	 ecx
  0000a	ff 75 10	 push	 DWORD PTR __Ptr$[ebp]
  0000d	ff 75 0c	 push	 DWORD PTR __Last$[ebp]
  00010	ff 75 08	 push	 DWORD PTR __First$[ebp]
  00013	e8 00 00 00 00	 call	 ??$_Uninit_copy@V?$_Vector_const_iterator@V?$_Vector_val@UAttackAttribute@@V?$allocator@UAttackAttribute@@@std@@@std@@@std@@PAUAttackAttribute@@V?$allocator@UAttackAttribute@@@2@@std@@YAPAUAttackAttribute@@V?$_Vector_const_iterator@V?$_Vector_val@UAttackAttribute@@V?$allocator@UAttackAttribute@@@std@@@std@@@0@0PAU1@AAV?$allocator@UAttackAttribute@@@0@U_Nonscalar_ptr_iterator_tag@0@@Z ; std::_Uninit_copy<std::_Vector_const_iterator<std::_Vector_val<AttackAttribute,std::allocator<AttackAttribute> > >,AttackAttribute *,std::allocator<AttackAttribute> >
  00018	83 c4 14	 add	 esp, 20			; 00000014H

; 1319 : 		}

  0001b	5d		 pop	 ebp
  0001c	c2 0c 00	 ret	 12			; 0000000cH
??$_Ucopy@V?$_Vector_const_iterator@V?$_Vector_val@UAttackAttribute@@V?$allocator@UAttackAttribute@@@std@@@std@@@std@@@?$vector@UAttackAttribute@@V?$allocator@UAttackAttribute@@@std@@@std@@IAEPAUAttackAttribute@@V?$_Vector_const_iterator@V?$_Vector_val@UAttackAttribute@@V?$allocator@UAttackAttribute@@@std@@@std@@@1@0PAU2@@Z ENDP ; std::vector<AttackAttribute,std::allocator<AttackAttribute> >::_Ucopy<std::_Vector_const_iterator<std::_Vector_val<AttackAttribute,std::allocator<AttackAttribute> > > >
_TEXT	ENDS
PUBLIC	??$_Umove@PAUAttackAttribute@@@?$vector@UAttackAttribute@@V?$allocator@UAttackAttribute@@@std@@@std@@IAEPAUAttackAttribute@@PAU2@00@Z ; std::vector<AttackAttribute,std::allocator<AttackAttribute> >::_Umove<AttackAttribute *>
; Function compile flags: /Ogsp
;	COMDAT ??$_Umove@PAUAttackAttribute@@@?$vector@UAttackAttribute@@V?$allocator@UAttackAttribute@@@std@@@std@@IAEPAUAttackAttribute@@PAU2@00@Z
_TEXT	SEGMENT
__First$ = 8						; size = 4
__Last$ = 12						; size = 4
__Ptr$ = 16						; size = 4
??$_Umove@PAUAttackAttribute@@@?$vector@UAttackAttribute@@V?$allocator@UAttackAttribute@@@std@@@std@@IAEPAUAttackAttribute@@PAU2@00@Z PROC ; std::vector<AttackAttribute,std::allocator<AttackAttribute> >::_Umove<AttackAttribute *>, COMDAT
; _this$ = ecx

; 1322 : 		pointer _Umove(_Iter _First, _Iter _Last, pointer _Ptr)

  00000	55		 push	 ebp
  00001	8b ec		 mov	 ebp, esp

; 1323 : 		{	// move initializing [_First, _Last), using allocator
; 1324 : 		return (_Uninitialized_move(_First, _Last,
; 1325 : 			_Ptr, this->_Alval));

  00003	83 c1 0c	 add	 ecx, 12			; 0000000cH
  00006	51		 push	 ecx
  00007	ff 75 10	 push	 DWORD PTR __Ptr$[ebp]
  0000a	ff 75 0c	 push	 DWORD PTR __Last$[ebp]
  0000d	ff 75 08	 push	 DWORD PTR __First$[ebp]
  00010	e8 00 00 00 00	 call	 ??$_Uninitialized_move@PAUAttackAttribute@@PAU1@V?$allocator@UAttackAttribute@@@std@@@std@@YAPAUAttackAttribute@@PAU1@00AAV?$allocator@UAttackAttribute@@@0@@Z ; std::_Uninitialized_move<AttackAttribute *,AttackAttribute *,std::allocator<AttackAttribute> >
  00015	83 c4 10	 add	 esp, 16			; 00000010H

; 1326 : 		}

  00018	5d		 pop	 ebp
  00019	c2 0c 00	 ret	 12			; 0000000cH
??$_Umove@PAUAttackAttribute@@@?$vector@UAttackAttribute@@V?$allocator@UAttackAttribute@@@std@@@std@@IAEPAUAttackAttribute@@PAU2@00@Z ENDP ; std::vector<AttackAttribute,std::allocator<AttackAttribute> >::_Umove<AttackAttribute *>
_TEXT	ENDS
PUBLIC	?_Destroy@?$vector@UAttackAttribute@@V?$allocator@UAttackAttribute@@@std@@@std@@IAEXPAUAttackAttribute@@0@Z ; std::vector<AttackAttribute,std::allocator<AttackAttribute> >::_Destroy
; Function compile flags: /Ogsp
;	COMDAT ?_Destroy@?$vector@UAttackAttribute@@V?$allocator@UAttackAttribute@@@std@@@std@@IAEXPAUAttackAttribute@@0@Z
_TEXT	SEGMENT
__First$ = 8						; size = 4
__Last$ = 12						; size = 4
?_Destroy@?$vector@UAttackAttribute@@V?$allocator@UAttackAttribute@@@std@@@std@@IAEXPAUAttackAttribute@@0@Z PROC ; std::vector<AttackAttribute,std::allocator<AttackAttribute> >::_Destroy, COMDAT
; _this$ = ecx

; 1269 : 		{	// destroy [_First, _Last) using allocator

  00000	55		 push	 ebp
  00001	8b ec		 mov	 ebp, esp
  00003	56		 push	 esi

; 1270 : 		_Destroy_range(_First, _Last, this->_Alval);

  00004	8b 75 08	 mov	 esi, DWORD PTR __First$[ebp]
  00007	eb 0a		 jmp	 SHORT $LN23@Destroy
$LL9@Destroy:
  00009	8b ce		 mov	 ecx, esi
  0000b	e8 00 00 00 00	 call	 ??1AttackAttribute@@QAE@XZ
  00010	83 c6 50	 add	 esi, 80			; 00000050H
$LN23@Destroy:
  00013	3b 75 0c	 cmp	 esi, DWORD PTR __Last$[ebp]
  00016	75 f1		 jne	 SHORT $LL9@Destroy
  00018	5e		 pop	 esi

; 1271 : 		}

  00019	5d		 pop	 ebp
  0001a	c2 08 00	 ret	 8
?_Destroy@?$vector@UAttackAttribute@@V?$allocator@UAttackAttribute@@@std@@@std@@IAEXPAUAttackAttribute@@0@Z ENDP ; std::vector<AttackAttribute,std::allocator<AttackAttribute> >::_Destroy
_TEXT	ENDS
PUBLIC	?reserve@?$vector@UAttackAttribute@@V?$allocator@UAttackAttribute@@@std@@@std@@QAEXI@Z ; std::vector<AttackAttribute,std::allocator<AttackAttribute> >::reserve
;	COMDAT xdata$x
; File c:\program files (x86)\microsoft visual studio 10.0\vc\include\xmemory
xdata$x	SEGMENT
__catchsym$?reserve@?$vector@UAttackAttribute@@V?$allocator@UAttackAttribute@@@std@@@std@@QAEXI@Z$2 DD 040H
	DD	00H
	DD	00H
	DD	FLAT:__catch$?reserve@?$vector@UAttackAttribute@@V?$allocator@UAttackAttribute@@@std@@@std@@QAEXI@Z$0
__unwindtable$?reserve@?$vector@UAttackAttribute@@V?$allocator@UAttackAttribute@@@std@@@std@@QAEXI@Z DD 0ffffffffH
	DD	00H
	DD	0ffffffffH
	DD	00H
__tryblocktable$?reserve@?$vector@UAttackAttribute@@V?$allocator@UAttackAttribute@@@std@@@std@@QAEXI@Z DD 00H
	DD	00H
	DD	01H
	DD	01H
	DD	FLAT:__catchsym$?reserve@?$vector@UAttackAttribute@@V?$allocator@UAttackAttribute@@@std@@@std@@QAEXI@Z$2
__ehfuncinfo$?reserve@?$vector@UAttackAttribute@@V?$allocator@UAttackAttribute@@@std@@@std@@QAEXI@Z DD 019930522H
	DD	02H
	DD	FLAT:__unwindtable$?reserve@?$vector@UAttackAttribute@@V?$allocator@UAttackAttribute@@@std@@@std@@QAEXI@Z
	DD	01H
	DD	FLAT:__tryblocktable$?reserve@?$vector@UAttackAttribute@@V?$allocator@UAttackAttribute@@@std@@@std@@QAEXI@Z
	DD	2 DUP(00H)
	DD	00H
	DD	01H
; Function compile flags: /Ogsp
; File c:\program files (x86)\microsoft visual studio 10.0\vc\include\vector
xdata$x	ENDS
;	COMDAT ?reserve@?$vector@UAttackAttribute@@V?$allocator@UAttackAttribute@@@std@@@std@@QAEXI@Z
_TEXT	SEGMENT
__Ptr$608784 = -24					; size = 4
$T620999 = -20						; size = 4
__$EHRec$ = -16						; size = 16
__Count$ = 8						; size = 4
?reserve@?$vector@UAttackAttribute@@V?$allocator@UAttackAttribute@@@std@@@std@@QAEXI@Z PROC ; std::vector<AttackAttribute,std::allocator<AttackAttribute> >::reserve, COMDAT
; _this$ = ecx

; 746  : 		{	// determine new minimum length of allocated storage

  00000	6a 0c		 push	 12			; 0000000cH
  00002	b8 00 00 00 00	 mov	 eax, __ehhandler$?reserve@?$vector@UAttackAttribute@@V?$allocator@UAttackAttribute@@@std@@@std@@QAEXI@Z
  00007	e8 00 00 00 00	 call	 __EH_prolog3_catch
  0000c	8b f1		 mov	 esi, ecx

; 747  : 		if (max_size() < _Count)

  0000e	81 7d 08 33 33
	33 03		 cmp	 DWORD PTR __Count$[ebp], 53687091 ; 03333333H
  00015	76 0b		 jbe	 SHORT $LN5@reserve

; 748  : 			_Xlen();	// result too long

  00017	68 00 00 00 00	 push	 OFFSET ??_C@_0BD@OLBABOEK@vector?$DMT?$DO?5too?5long?$AA@
  0001c	ff 15 00 00 00
	00		 call	 DWORD PTR __imp_?_Xlength_error@std@@YAXPBD@Z
$LN59@reserve:
$LN5@reserve:

; 749  : 		else if (capacity() < _Count)

  00022	8b 46 08	 mov	 eax, DWORD PTR [esi+8]
  00025	2b 06		 sub	 eax, DWORD PTR [esi]
  00027	6a 50		 push	 80			; 00000050H
  00029	99		 cdq
  0002a	59		 pop	 ecx
  0002b	f7 f9		 idiv	 ecx
  0002d	3b 45 08	 cmp	 eax, DWORD PTR __Count$[ebp]
  00030	0f 83 80 00 00
	00		 jae	 $LN3@reserve

; 750  : 			{	// not enough room, reallocate
; 751  : 			pointer _Ptr = this->_Alval.allocate(_Count);

  00036	6a 00		 push	 0
  00038	ff 75 08	 push	 DWORD PTR __Count$[ebp]
  0003b	e8 00 00 00 00	 call	 ??$_Allocate@UAttackAttribute@@@std@@YAPAUAttackAttribute@@IPAU1@@Z ; std::_Allocate<AttackAttribute>

; 752  : 
; 753  : 			_TRY_BEGIN
; 754  : 			_Umove(this->_Myfirst, this->_Mylast, _Ptr);

  00040	8b 0e		 mov	 ecx, DWORD PTR [esi]
  00042	83 65 fc 00	 and	 DWORD PTR __$EHRec$[ebp+12], 0
  00046	8d 56 0c	 lea	 edx, DWORD PTR [esi+12]
  00049	52		 push	 edx
  0004a	89 45 e8	 mov	 DWORD PTR __Ptr$608784[ebp], eax
  0004d	ff 75 e8	 push	 DWORD PTR __Ptr$608784[ebp]
  00050	8b 46 04	 mov	 eax, DWORD PTR [esi+4]
  00053	50		 push	 eax
  00054	51		 push	 ecx
  00055	e8 00 00 00 00	 call	 ??$_Uninitialized_move@PAUAttackAttribute@@PAU1@V?$allocator@UAttackAttribute@@@std@@@std@@YAPAUAttackAttribute@@PAU1@00AAV?$allocator@UAttackAttribute@@@0@@Z ; std::_Uninitialized_move<AttackAttribute *,AttackAttribute *,std::allocator<AttackAttribute> >

; 758  : 			_CATCH_END
; 759  : 
; 760  : 			size_type _Size = size();

  0005a	8b 5e 04	 mov	 ebx, DWORD PTR [esi+4]
  0005d	8b 0e		 mov	 ecx, DWORD PTR [esi]
  0005f	83 c4 18	 add	 esp, 24			; 00000018H
  00062	8b c3		 mov	 eax, ebx
  00064	2b c1		 sub	 eax, ecx
  00066	6a 50		 push	 80			; 00000050H
  00068	99		 cdq
  00069	5f		 pop	 edi
  0006a	f7 ff		 idiv	 edi
  0006c	83 4d fc ff	 or	 DWORD PTR __$EHRec$[ebp+12], -1
  00070	8b f8		 mov	 edi, eax
  00072	85 c9		 test	 ecx, ecx
  00074	74 20		 je	 SHORT $LN51@reserve

; 761  : 			if (this->_Myfirst != 0)
; 762  : 				{	// destroy and deallocate old array
; 763  : 				_Destroy(this->_Myfirst, this->_Mylast);

  00076	89 4d ec	 mov	 DWORD PTR $T620999[ebp], ecx
  00079	3b cb		 cmp	 ecx, ebx
  0007b	74 11		 je	 SHORT $LN37@reserve
$LN39@reserve:
  0007d	8b 4d ec	 mov	 ecx, DWORD PTR $T620999[ebp]
  00080	e8 00 00 00 00	 call	 ??1AttackAttribute@@QAE@XZ
  00085	83 45 ec 50	 add	 DWORD PTR $T620999[ebp], 80 ; 00000050H
  00089	39 5d ec	 cmp	 DWORD PTR $T620999[ebp], ebx
  0008c	75 ef		 jne	 SHORT $LN39@reserve
$LN37@reserve:

; 764  : 				this->_Alval.deallocate(this->_Myfirst,
; 765  : 					this->_Myend - this->_Myfirst);

  0008e	ff 36		 push	 DWORD PTR [esi]
  00090	e8 00 00 00 00	 call	 ??3@YAXPAX@Z		; operator delete
  00095	59		 pop	 ecx
$LN51@reserve:

; 766  : 				}
; 767  : 
; 768  : 			this->_Orphan_all();

  00096	8b ce		 mov	 ecx, esi
  00098	ff 15 00 00 00
	00		 call	 DWORD PTR __imp_?_Orphan_all@_Container_base0@std@@QAEXXZ

; 769  : 			this->_Myend = _Ptr + _Count;
; 770  : 			this->_Mylast = _Ptr + _Size;

  0009e	6b ff 50	 imul	 edi, 80			; 00000050H
  000a1	8b 45 08	 mov	 eax, DWORD PTR __Count$[ebp]
  000a4	8b 4d e8	 mov	 ecx, DWORD PTR __Ptr$608784[ebp]
  000a7	6b c0 50	 imul	 eax, 80			; 00000050H
  000aa	03 c1		 add	 eax, ecx
  000ac	03 f9		 add	 edi, ecx
  000ae	89 46 08	 mov	 DWORD PTR [esi+8], eax
  000b1	89 7e 04	 mov	 DWORD PTR [esi+4], edi

; 771  : 			this->_Myfirst = _Ptr;

  000b4	89 0e		 mov	 DWORD PTR [esi], ecx
$LN3@reserve:

; 772  : 			}
; 773  : 		}

  000b6	e8 00 00 00 00	 call	 __EH_epilog3
  000bb	c2 04 00	 ret	 4
__catch$?reserve@?$vector@UAttackAttribute@@V?$allocator@UAttackAttribute@@@std@@@std@@QAEXI@Z$0:

; 755  : 			_CATCH_ALL
; 756  : 			this->_Alval.deallocate(_Ptr, _Count);

  000be	ff 75 e8	 push	 DWORD PTR __Ptr$608784[ebp]
  000c1	e8 00 00 00 00	 call	 ??3@YAXPAX@Z		; operator delete
  000c6	59		 pop	 ecx

; 757  : 			_RERAISE;

  000c7	6a 00		 push	 0
  000c9	6a 00		 push	 0
  000cb	e8 00 00 00 00	 call	 __CxxThrowException@8
$LN60@reserve:
$LN58@reserve:
  000d0	cc		 int	 3
_TEXT	ENDS
;	COMDAT text$x
text$x	SEGMENT
__ehhandler$?reserve@?$vector@UAttackAttribute@@V?$allocator@UAttackAttribute@@@std@@@std@@QAEXI@Z:
  00000	8b 54 24 08	 mov	 edx, DWORD PTR [esp+8]
  00004	8d 42 0c	 lea	 eax, DWORD PTR [edx+12]
  00007	8b 4a e4	 mov	 ecx, DWORD PTR [edx-28]
  0000a	33 c8		 xor	 ecx, eax
  0000c	e8 00 00 00 00	 call	 @__security_check_cookie@4
  00011	b8 00 00 00 00	 mov	 eax, OFFSET __ehfuncinfo$?reserve@?$vector@UAttackAttribute@@V?$allocator@UAttackAttribute@@@std@@@std@@QAEXI@Z
  00016	e9 00 00 00 00	 jmp	 ___CxxFrameHandler3
text$x	ENDS
?reserve@?$vector@UAttackAttribute@@V?$allocator@UAttackAttribute@@@std@@@std@@QAEXI@Z ENDP ; std::vector<AttackAttribute,std::allocator<AttackAttribute> >::reserve
PUBLIC	?_Reserve@?$vector@UAttackAttribute@@V?$allocator@UAttackAttribute@@@std@@@std@@IAEXI@Z ; std::vector<AttackAttribute,std::allocator<AttackAttribute> >::_Reserve
; Function compile flags: /Ogsp
;	COMDAT ?_Reserve@?$vector@UAttackAttribute@@V?$allocator@UAttackAttribute@@@std@@@std@@IAEXI@Z
_TEXT	SEGMENT
__Count$ = 8						; size = 4
?_Reserve@?$vector@UAttackAttribute@@V?$allocator@UAttackAttribute@@@std@@@std@@IAEXI@Z PROC ; std::vector<AttackAttribute,std::allocator<AttackAttribute> >::_Reserve, COMDAT
; _this$ = ecx

; 1290 : 		{	// ensure room for _Count new elements, grow exponentially

  00000	55		 push	 ebp
  00001	8b ec		 mov	 ebp, esp
  00003	56		 push	 esi
  00004	8b f1		 mov	 esi, ecx

; 1291 : 		size_type _Size = size();

  00006	8b 0e		 mov	 ecx, DWORD PTR [esi]
  00008	8b 46 04	 mov	 eax, DWORD PTR [esi+4]
  0000b	2b c1		 sub	 eax, ecx
  0000d	57		 push	 edi
  0000e	99		 cdq
  0000f	6a 50		 push	 80			; 00000050H
  00011	5f		 pop	 edi
  00012	f7 ff		 idiv	 edi
  00014	8b f8		 mov	 edi, eax

; 1292 : 		if (max_size() - _Count < _Size)

  00016	b8 33 33 33 03	 mov	 eax, 53687091		; 03333333H
  0001b	2b 45 08	 sub	 eax, DWORD PTR __Count$[ebp]
  0001e	3b c7		 cmp	 eax, edi
  00020	73 0b		 jae	 SHORT $LN4@Reserve

; 1293 : 			_Xlen();

  00022	68 00 00 00 00	 push	 OFFSET ??_C@_0BD@OLBABOEK@vector?$DMT?$DO?5too?5long?$AA@
  00027	ff 15 00 00 00
	00		 call	 DWORD PTR __imp_?_Xlength_error@std@@YAXPBD@Z
$LN21@Reserve:
$LN4@Reserve:

; 1294 : 		else if ((_Size += _Count) <= capacity())

  0002d	8b 46 08	 mov	 eax, DWORD PTR [esi+8]
  00030	2b c1		 sub	 eax, ecx
  00032	6a 50		 push	 80			; 00000050H
  00034	99		 cdq
  00035	59		 pop	 ecx
  00036	f7 f9		 idiv	 ecx
  00038	03 7d 08	 add	 edi, DWORD PTR __Count$[ebp]
  0003b	3b f8		 cmp	 edi, eax
  0003d	76 10		 jbe	 SHORT $LN1@Reserve

; 1295 : 			;
; 1296 : 		else
; 1297 : 			reserve(_Grow_to(_Size));

  0003f	57		 push	 edi
  00040	8b ce		 mov	 ecx, esi
  00042	e8 00 00 00 00	 call	 ?_Grow_to@?$vector@UAttackAttribute@@V?$allocator@UAttackAttribute@@@std@@@std@@IBEII@Z ; std::vector<AttackAttribute,std::allocator<AttackAttribute> >::_Grow_to
  00047	50		 push	 eax
  00048	8b ce		 mov	 ecx, esi
  0004a	e8 00 00 00 00	 call	 ?reserve@?$vector@UAttackAttribute@@V?$allocator@UAttackAttribute@@@std@@@std@@QAEXI@Z ; std::vector<AttackAttribute,std::allocator<AttackAttribute> >::reserve
$LN1@Reserve:
  0004f	5f		 pop	 edi
  00050	5e		 pop	 esi

; 1298 : 		}

  00051	5d		 pop	 ebp
  00052	c2 04 00	 ret	 4
$LN20@Reserve:
?_Reserve@?$vector@UAttackAttribute@@V?$allocator@UAttackAttribute@@@std@@@std@@IAEXI@Z ENDP ; std::vector<AttackAttribute,std::allocator<AttackAttribute> >::_Reserve
_TEXT	ENDS
PUBLIC	?erase@?$vector@UAttackAttribute@@V?$allocator@UAttackAttribute@@@std@@@std@@QAE?AV?$_Vector_iterator@V?$_Vector_val@UAttackAttribute@@V?$allocator@UAttackAttribute@@@std@@@std@@@2@V?$_Vector_const_iterator@V?$_Vector_val@UAttackAttribute@@V?$allocator@UAttackAttribute@@@std@@@std@@@2@0@Z ; std::vector<AttackAttribute,std::allocator<AttackAttribute> >::erase
; Function compile flags: /Ogsp
;	COMDAT ?erase@?$vector@UAttackAttribute@@V?$allocator@UAttackAttribute@@@std@@@std@@QAE?AV?$_Vector_iterator@V?$_Vector_val@UAttackAttribute@@V?$allocator@UAttackAttribute@@@std@@@std@@@2@V?$_Vector_const_iterator@V?$_Vector_val@UAttackAttribute@@V?$allocator@UAttackAttribute@@@std@@@std@@@2@0@Z
_TEXT	SEGMENT
$T621224 = -4						; size = 4
___$ReturnUdt$ = 8					; size = 4
__First_arg$ = 12					; size = 4
__Cat$621169 = 16					; size = 1
__Last_arg$ = 16					; size = 4
?erase@?$vector@UAttackAttribute@@V?$allocator@UAttackAttribute@@@std@@@std@@QAE?AV?$_Vector_iterator@V?$_Vector_val@UAttackAttribute@@V?$allocator@UAttackAttribute@@@std@@@std@@@2@V?$_Vector_const_iterator@V?$_Vector_val@UAttackAttribute@@V?$allocator@UAttackAttribute@@@std@@@std@@@2@0@Z PROC ; std::vector<AttackAttribute,std::allocator<AttackAttribute> >::erase, COMDAT
; _this$ = ecx

; 1190 : 		{	// erase [_First, _Last)

  00000	55		 push	 ebp
  00001	8b ec		 mov	 ebp, esp
  00003	51		 push	 ecx

; 1191 : 		iterator _First = _Make_iter(_First_arg);

  00004	8b 45 08	 mov	 eax, DWORD PTR ___$ReturnUdt$[ebp]
  00007	56		 push	 esi
  00008	8b f1		 mov	 esi, ecx
  0000a	8b 4d 0c	 mov	 ecx, DWORD PTR __First_arg$[ebp]
  0000d	89 08		 mov	 DWORD PTR [eax], ecx

; 1192 : 		iterator _Last = _Make_iter(_Last_arg);
; 1193 : 
; 1194 : 		if (_First != _Last)

  0000f	3b 4d 10	 cmp	 ecx, DWORD PTR __Last_arg$[ebp]
  00012	74 37		 je	 SHORT $LN1@erase@3

; 1195 : 			{	// worth doing, copy down over hole
; 1196 :  #if _ITERATOR_DEBUG_LEVEL == 2
; 1197 : 			if (_Last < _First || _VICONT(_First) != this
; 1198 : 				|| _VIPTR(_First) < this->_Myfirst
; 1199 : 				|| this->_Mylast < _VIPTR(_Last))
; 1200 : 				_DEBUG_ERROR("vector erase iterator outside range");
; 1201 : 			pointer _Ptr = _Move(_VIPTR(_Last), this->_Mylast,
; 1202 : 				_VIPTR(_First));
; 1203 : 			_Orphan_range(_VIPTR(_First), this->_Mylast);
; 1204 : 
; 1205 :  #else /* _ITERATOR_DEBUG_LEVEL == 2 */
; 1206 : 			pointer _Ptr = _Move(_VIPTR(_Last), this->_Mylast,
; 1207 : 				_VIPTR(_First));

  00014	8b 46 04	 mov	 eax, DWORD PTR [esi+4]
  00017	53		 push	 ebx
  00018	57		 push	 edi
  00019	ff 75 10	 push	 DWORD PTR __Cat$621169[ebp]
  0001c	51		 push	 ecx
  0001d	50		 push	 eax
  0001e	ff 75 10	 push	 DWORD PTR __Last_arg$[ebp]
  00021	e8 00 00 00 00	 call	 ??$_Move@PAUAttackAttribute@@PAU1@@std@@YAPAUAttackAttribute@@PAU1@00U_Nonscalar_ptr_iterator_tag@0@@Z ; std::_Move<AttackAttribute *,AttackAttribute *>

; 1208 :  #endif /* _ITERATOR_DEBUG_LEVEL == 2 */
; 1209 : 
; 1210 : 			_Destroy(_Ptr, this->_Mylast);

  00026	8b 7e 04	 mov	 edi, DWORD PTR [esi+4]
  00029	8b d8		 mov	 ebx, eax
  0002b	83 c4 10	 add	 esp, 16			; 00000010H
  0002e	89 5d fc	 mov	 DWORD PTR $T621224[ebp], ebx
  00031	3b df		 cmp	 ebx, edi
  00033	74 11		 je	 SHORT $LN36@erase@3
$LL52@erase@3:
  00035	8b 4d fc	 mov	 ecx, DWORD PTR $T621224[ebp]
  00038	e8 00 00 00 00	 call	 ??1AttackAttribute@@QAE@XZ
  0003d	83 45 fc 50	 add	 DWORD PTR $T621224[ebp], 80 ; 00000050H
  00041	39 7d fc	 cmp	 DWORD PTR $T621224[ebp], edi
  00044	75 ef		 jne	 SHORT $LL52@erase@3
$LN36@erase@3:

; 1211 : 			this->_Mylast = _Ptr;

  00046	5f		 pop	 edi
  00047	89 5e 04	 mov	 DWORD PTR [esi+4], ebx
  0004a	5b		 pop	 ebx
$LN1@erase@3:

; 1212 : 			}
; 1213 : 		return (_First);

  0004b	8b 45 08	 mov	 eax, DWORD PTR ___$ReturnUdt$[ebp]
  0004e	5e		 pop	 esi

; 1214 : 		}

  0004f	c9		 leave
  00050	c2 0c 00	 ret	 12			; 0000000cH
?erase@?$vector@UAttackAttribute@@V?$allocator@UAttackAttribute@@@std@@@std@@QAE?AV?$_Vector_iterator@V?$_Vector_val@UAttackAttribute@@V?$allocator@UAttackAttribute@@@std@@@std@@@2@V?$_Vector_const_iterator@V?$_Vector_val@UAttackAttribute@@V?$allocator@UAttackAttribute@@@std@@@std@@@2@0@Z ENDP ; std::vector<AttackAttribute,std::allocator<AttackAttribute> >::erase
_TEXT	ENDS
PUBLIC	?_Tidy@?$vector@UAttackAttribute@@V?$allocator@UAttackAttribute@@@std@@@std@@IAEXXZ ; std::vector<AttackAttribute,std::allocator<AttackAttribute> >::_Tidy
; Function compile flags: /Ogsp
;	COMDAT ?_Tidy@?$vector@UAttackAttribute@@V?$allocator@UAttackAttribute@@@std@@@std@@IAEXXZ
_TEXT	SEGMENT
?_Tidy@?$vector@UAttackAttribute@@V?$allocator@UAttackAttribute@@@std@@@std@@IAEXXZ PROC ; std::vector<AttackAttribute,std::allocator<AttackAttribute> >::_Tidy, COMDAT
; _this$ = ecx

; 1301 : 		{	// free all storage

  00000	56		 push	 esi
  00001	8b f1		 mov	 esi, ecx

; 1302 : 		if (this->_Myfirst != 0)

  00003	83 3e 00	 cmp	 DWORD PTR [esi], 0
  00006	74 27		 je	 SHORT $LN24@Tidy@3

; 1303 : 			{	// something to free, destroy and deallocate it
; 1304 : 			this->_Orphan_all();

  00008	53		 push	 ebx
  00009	57		 push	 edi
  0000a	ff 15 00 00 00
	00		 call	 DWORD PTR __imp_?_Orphan_all@_Container_base0@std@@QAEXXZ

; 1305 : 			_Destroy(this->_Myfirst, this->_Mylast);

  00010	8b 5e 04	 mov	 ebx, DWORD PTR [esi+4]
  00013	8b 3e		 mov	 edi, DWORD PTR [esi]
  00015	eb 0a		 jmp	 SHORT $LN28@Tidy@3
$LL12@Tidy@3:
  00017	8b cf		 mov	 ecx, edi
  00019	e8 00 00 00 00	 call	 ??1AttackAttribute@@QAE@XZ
  0001e	83 c7 50	 add	 edi, 80			; 00000050H
$LN28@Tidy@3:
  00021	3b fb		 cmp	 edi, ebx
  00023	75 f2		 jne	 SHORT $LL12@Tidy@3

; 1306 : 			this->_Alval.deallocate(this->_Myfirst,
; 1307 : 				this->_Myend - this->_Myfirst);

  00025	ff 36		 push	 DWORD PTR [esi]
  00027	e8 00 00 00 00	 call	 ??3@YAXPAX@Z		; operator delete
  0002c	59		 pop	 ecx
  0002d	5f		 pop	 edi
  0002e	5b		 pop	 ebx
$LN24@Tidy@3:

; 1308 : 			}
; 1309 : 		this->_Myfirst = 0;

  0002f	33 c0		 xor	 eax, eax
  00031	89 06		 mov	 DWORD PTR [esi], eax

; 1310 : 		this->_Mylast = 0;

  00033	89 46 04	 mov	 DWORD PTR [esi+4], eax

; 1311 : 		this->_Myend = 0;

  00036	89 46 08	 mov	 DWORD PTR [esi+8], eax
  00039	5e		 pop	 esi

; 1312 : 		}

  0003a	c3		 ret	 0
?_Tidy@?$vector@UAttackAttribute@@V?$allocator@UAttackAttribute@@@std@@@std@@IAEXXZ ENDP ; std::vector<AttackAttribute,std::allocator<AttackAttribute> >::_Tidy
_TEXT	ENDS
PUBLIC	??0?$vector@UAttackAttribute@@V?$allocator@UAttackAttribute@@@std@@@std@@QAE@ABV01@@Z ; std::vector<AttackAttribute,std::allocator<AttackAttribute> >::vector<AttackAttribute,std::allocator<AttackAttribute> >
;	COMDAT xdata$x
; File c:\program files (x86)\microsoft visual studio 10.0\vc\include\xutility
xdata$x	SEGMENT
__catchsym$??0?$vector@UAttackAttribute@@V?$allocator@UAttackAttribute@@@std@@@std@@QAE@ABV01@@Z$2 DD 040H
	DD	00H
	DD	00H
	DD	FLAT:__catch$??0?$vector@UAttackAttribute@@V?$allocator@UAttackAttribute@@@std@@@std@@QAE@ABV01@@Z$0
__unwindtable$??0?$vector@UAttackAttribute@@V?$allocator@UAttackAttribute@@@std@@@std@@QAE@ABV01@@Z DD 0ffffffffH
	DD	00H
	DD	0ffffffffH
	DD	00H
__tryblocktable$??0?$vector@UAttackAttribute@@V?$allocator@UAttackAttribute@@@std@@@std@@QAE@ABV01@@Z DD 00H
	DD	00H
	DD	01H
	DD	01H
	DD	FLAT:__catchsym$??0?$vector@UAttackAttribute@@V?$allocator@UAttackAttribute@@@std@@@std@@QAE@ABV01@@Z$2
__ehfuncinfo$??0?$vector@UAttackAttribute@@V?$allocator@UAttackAttribute@@@std@@@std@@QAE@ABV01@@Z DD 019930522H
	DD	02H
	DD	FLAT:__unwindtable$??0?$vector@UAttackAttribute@@V?$allocator@UAttackAttribute@@@std@@@std@@QAE@ABV01@@Z
	DD	01H
	DD	FLAT:__tryblocktable$??0?$vector@UAttackAttribute@@V?$allocator@UAttackAttribute@@@std@@@std@@QAE@ABV01@@Z
	DD	2 DUP(00H)
	DD	00H
	DD	01H
; Function compile flags: /Ogsp
; File c:\program files (x86)\microsoft visual studio 10.0\vc\include\vector
xdata$x	ENDS
;	COMDAT ??0?$vector@UAttackAttribute@@V?$allocator@UAttackAttribute@@@std@@@std@@QAE@ABV01@@Z
_TEXT	SEGMENT
_this$ = -20						; size = 4
__$EHRec$ = -16						; size = 16
__Cat$621457 = 8					; size = 1
__Right$ = 8						; size = 4
??0?$vector@UAttackAttribute@@V?$allocator@UAttackAttribute@@@std@@@std@@QAE@ABV01@@Z PROC ; std::vector<AttackAttribute,std::allocator<AttackAttribute> >::vector<AttackAttribute,std::allocator<AttackAttribute> >, COMDAT
; _this$ = ecx

; 535  : 		{	// construct by copying _Right

  00000	6a 08		 push	 8
  00002	b8 00 00 00 00	 mov	 eax, __ehhandler$??0?$vector@UAttackAttribute@@V?$allocator@UAttackAttribute@@@std@@@std@@QAE@ABV01@@Z
  00007	e8 00 00 00 00	 call	 __EH_prolog3_catch
  0000c	8b f1		 mov	 esi, ecx
  0000e	89 75 ec	 mov	 DWORD PTR _this$[ebp], esi

; 536  : 		if (_Buy(_Right.size()))

  00011	8b 7d 08	 mov	 edi, DWORD PTR __Right$[ebp]
  00014	33 db		 xor	 ebx, ebx
  00016	89 1e		 mov	 DWORD PTR [esi], ebx
  00018	89 5e 04	 mov	 DWORD PTR [esi+4], ebx
  0001b	89 5e 08	 mov	 DWORD PTR [esi+8], ebx
  0001e	8b 47 04	 mov	 eax, DWORD PTR [edi+4]
  00021	2b 07		 sub	 eax, DWORD PTR [edi]
  00023	6a 50		 push	 80			; 00000050H
  00025	59		 pop	 ecx
  00026	99		 cdq
  00027	f7 f9		 idiv	 ecx
  00029	8b ce		 mov	 ecx, esi
  0002b	50		 push	 eax
  0002c	e8 00 00 00 00	 call	 ?_Buy@?$vector@UAttackAttribute@@V?$allocator@UAttackAttribute@@@std@@@std@@IAE_NI@Z ; std::vector<AttackAttribute,std::allocator<AttackAttribute> >::_Buy
  00031	84 c0		 test	 al, al
  00033	74 1f		 je	 SHORT $LN7@vector@3

; 537  : 			_TRY_BEGIN
; 538  : 			this->_Mylast = _Ucopy(_Right.begin(), _Right.end(),
; 539  : 				this->_Myfirst);

  00035	ff 75 08	 push	 DWORD PTR __Cat$621457[ebp]
  00038	8b 0e		 mov	 ecx, DWORD PTR [esi]
  0003a	8b 47 04	 mov	 eax, DWORD PTR [edi+4]
  0003d	8b 3f		 mov	 edi, DWORD PTR [edi]
  0003f	8d 56 0c	 lea	 edx, DWORD PTR [esi+12]
  00042	52		 push	 edx
  00043	51		 push	 ecx
  00044	50		 push	 eax
  00045	57		 push	 edi
  00046	89 5d fc	 mov	 DWORD PTR __$EHRec$[ebp+12], ebx
  00049	e8 00 00 00 00	 call	 ??$_Uninit_copy@V?$_Vector_const_iterator@V?$_Vector_val@UAttackAttribute@@V?$allocator@UAttackAttribute@@@std@@@std@@@std@@PAUAttackAttribute@@V?$allocator@UAttackAttribute@@@2@@std@@YAPAUAttackAttribute@@V?$_Vector_const_iterator@V?$_Vector_val@UAttackAttribute@@V?$allocator@UAttackAttribute@@@std@@@std@@@0@0PAU1@AAV?$allocator@UAttackAttribute@@@0@U_Nonscalar_ptr_iterator_tag@0@@Z ; std::_Uninit_copy<std::_Vector_const_iterator<std::_Vector_val<AttackAttribute,std::allocator<AttackAttribute> > >,AttackAttribute *,std::allocator<AttackAttribute> >
  0004e	83 c4 14	 add	 esp, 20			; 00000014H
  00051	89 46 04	 mov	 DWORD PTR [esi+4], eax
$LN7@vector@3:

; 543  : 			_CATCH_END
; 544  : 		}

  00054	8b c6		 mov	 eax, esi
  00056	e8 00 00 00 00	 call	 __EH_epilog3
  0005b	c2 04 00	 ret	 4
__catch$??0?$vector@UAttackAttribute@@V?$allocator@UAttackAttribute@@@std@@@std@@QAE@ABV01@@Z$0:

; 540  : 			_CATCH_ALL
; 541  : 			_Tidy();

  0005e	8b 4d ec	 mov	 ecx, DWORD PTR _this$[ebp]
  00061	e8 00 00 00 00	 call	 ?_Tidy@?$vector@UAttackAttribute@@V?$allocator@UAttackAttribute@@@std@@@std@@IAEXXZ ; std::vector<AttackAttribute,std::allocator<AttackAttribute> >::_Tidy

; 542  : 			_RERAISE;

  00066	33 db		 xor	 ebx, ebx
  00068	53		 push	 ebx
  00069	53		 push	 ebx
  0006a	e8 00 00 00 00	 call	 __CxxThrowException@8
$LN38@vector@3:
$LN37@vector@3:
  0006f	cc		 int	 3
_TEXT	ENDS
;	COMDAT text$x
text$x	SEGMENT
__ehhandler$??0?$vector@UAttackAttribute@@V?$allocator@UAttackAttribute@@@std@@@std@@QAE@ABV01@@Z:
  00000	8b 54 24 08	 mov	 edx, DWORD PTR [esp+8]
  00004	8d 42 0c	 lea	 eax, DWORD PTR [edx+12]
  00007	8b 4a e8	 mov	 ecx, DWORD PTR [edx-24]
  0000a	33 c8		 xor	 ecx, eax
  0000c	e8 00 00 00 00	 call	 @__security_check_cookie@4
  00011	b8 00 00 00 00	 mov	 eax, OFFSET __ehfuncinfo$??0?$vector@UAttackAttribute@@V?$allocator@UAttackAttribute@@@std@@@std@@QAE@ABV01@@Z
  00016	e9 00 00 00 00	 jmp	 ___CxxFrameHandler3
text$x	ENDS
??0?$vector@UAttackAttribute@@V?$allocator@UAttackAttribute@@@std@@@std@@QAE@ABV01@@Z ENDP ; std::vector<AttackAttribute,std::allocator<AttackAttribute> >::vector<AttackAttribute,std::allocator<AttackAttribute> >
PUBLIC	?push_back@?$vector@UAttackAttribute@@V?$allocator@UAttackAttribute@@@std@@@std@@QAEXABUAttackAttribute@@@Z ; std::vector<AttackAttribute,std::allocator<AttackAttribute> >::push_back
; Function compile flags: /Ogsp
;	COMDAT ?push_back@?$vector@UAttackAttribute@@V?$allocator@UAttackAttribute@@@std@@@std@@QAEXABUAttackAttribute@@@Z
_TEXT	SEGMENT
__Val$ = 8						; size = 4
?push_back@?$vector@UAttackAttribute@@V?$allocator@UAttackAttribute@@@std@@@std@@QAEXABUAttackAttribute@@@Z PROC ; std::vector<AttackAttribute,std::allocator<AttackAttribute> >::push_back, COMDAT
; _this$ = ecx

; 976  : 		{	// insert element at end

  00000	55		 push	 ebp
  00001	8b ec		 mov	 ebp, esp
  00003	56		 push	 esi
  00004	8b f1		 mov	 esi, ecx

; 977  : 		if (_Inside(_STD addressof(_Val)))

  00006	8b 4e 04	 mov	 ecx, DWORD PTR [esi+4]
  00009	57		 push	 edi
  0000a	8b 7d 08	 mov	 edi, DWORD PTR __Val$[ebp]
  0000d	3b f9		 cmp	 edi, ecx
  0000f	73 37		 jae	 SHORT $LN4@push_back
  00011	8b 16		 mov	 edx, DWORD PTR [esi]
  00013	3b d7		 cmp	 edx, edi
  00015	77 31		 ja	 SHORT $LN4@push_back

; 978  : 			{	// push back an element
; 979  : 			size_type _Idx = _STD addressof(_Val) - this->_Myfirst;

  00017	8b c7		 mov	 eax, edi
  00019	2b c2		 sub	 eax, edx
  0001b	6a 50		 push	 80			; 00000050H
  0001d	99		 cdq
  0001e	5f		 pop	 edi
  0001f	f7 ff		 idiv	 edi
  00021	8b f8		 mov	 edi, eax

; 980  : 			if (this->_Mylast == this->_Myend)

  00023	3b 4e 08	 cmp	 ecx, DWORD PTR [esi+8]
  00026	75 09		 jne	 SHORT $LN3@push_back

; 981  : 				_Reserve(1);

  00028	6a 01		 push	 1
  0002a	8b ce		 mov	 ecx, esi
  0002c	e8 00 00 00 00	 call	 ?_Reserve@?$vector@UAttackAttribute@@V?$allocator@UAttackAttribute@@@std@@@std@@IAEXI@Z ; std::vector<AttackAttribute,std::allocator<AttackAttribute> >::_Reserve
$LN3@push_back:

; 982  : 			_Orphan_range(this->_Mylast, this->_Mylast);
; 983  : 			_Cons_val(this->_Alval,
; 984  : 				this->_Mylast,
; 985  : 				this->_Myfirst[_Idx]);

  00031	6b ff 50	 imul	 edi, 80			; 00000050H
  00034	03 3e		 add	 edi, DWORD PTR [esi]
  00036	8d 46 0c	 lea	 eax, DWORD PTR [esi+12]
  00039	57		 push	 edi
  0003a	ff 76 04	 push	 DWORD PTR [esi+4]
  0003d	50		 push	 eax
  0003e	e8 00 00 00 00	 call	 ??$_Cons_val@V?$allocator@UAttackAttribute@@@std@@UAttackAttribute@@AAU3@@std@@YAXAAV?$allocator@UAttackAttribute@@@0@PAUAttackAttribute@@AAU2@@Z ; std::_Cons_val<std::allocator<AttackAttribute>,AttackAttribute,AttackAttribute &>
  00043	83 c4 0c	 add	 esp, 12			; 0000000cH

; 986  : 			++this->_Mylast;
; 987  : 			}
; 988  : 		else

  00046	eb 19		 jmp	 SHORT $LN26@push_back
$LN4@push_back:

; 989  : 			{	// push back a non-element
; 990  : 			if (this->_Mylast == this->_Myend)

  00048	3b 4e 08	 cmp	 ecx, DWORD PTR [esi+8]
  0004b	75 09		 jne	 SHORT $LN1@push_back

; 991  : 				_Reserve(1);

  0004d	6a 01		 push	 1
  0004f	8b ce		 mov	 ecx, esi
  00051	e8 00 00 00 00	 call	 ?_Reserve@?$vector@UAttackAttribute@@V?$allocator@UAttackAttribute@@@std@@@std@@IAEXI@Z ; std::vector<AttackAttribute,std::allocator<AttackAttribute> >::_Reserve
$LN1@push_back:

; 992  : 			_Orphan_range(this->_Mylast, this->_Mylast);
; 993  : 			_Cons_val(this->_Alval,
; 994  : 				this->_Mylast,
; 995  : 				_Val);

  00056	57		 push	 edi
  00057	ff 76 04	 push	 DWORD PTR [esi+4]
  0005a	e8 00 00 00 00	 call	 ??$_Construct@UAttackAttribute@@ABU1@@std@@YAXPAUAttackAttribute@@ABU1@@Z ; std::_Construct<AttackAttribute,AttackAttribute const &>
  0005f	59		 pop	 ecx
  00060	59		 pop	 ecx
$LN26@push_back:

; 996  : 			++this->_Mylast;

  00061	83 46 04 50	 add	 DWORD PTR [esi+4], 80	; 00000050H
  00065	5f		 pop	 edi
  00066	5e		 pop	 esi

; 997  : 			}
; 998  : 		}

  00067	5d		 pop	 ebp
  00068	c2 04 00	 ret	 4
?push_back@?$vector@UAttackAttribute@@V?$allocator@UAttackAttribute@@@std@@@std@@QAEXABUAttackAttribute@@@Z ENDP ; std::vector<AttackAttribute,std::allocator<AttackAttribute> >::push_back
_TEXT	ENDS
PUBLIC	??1?$vector@UAttackAttribute@@V?$allocator@UAttackAttribute@@@std@@@std@@QAE@XZ ; std::vector<AttackAttribute,std::allocator<AttackAttribute> >::~vector<AttackAttribute,std::allocator<AttackAttribute> >
; Function compile flags: /Ogsp
;	COMDAT ??1?$vector@UAttackAttribute@@V?$allocator@UAttackAttribute@@@std@@@std@@QAE@XZ
_TEXT	SEGMENT
??1?$vector@UAttackAttribute@@V?$allocator@UAttackAttribute@@@std@@@std@@QAE@XZ PROC ; std::vector<AttackAttribute,std::allocator<AttackAttribute> >::~vector<AttackAttribute,std::allocator<AttackAttribute> >, COMDAT
; _this$ = ecx

; 705  : 		_Tidy();

  00000	e9 00 00 00 00	 jmp	 ?_Tidy@?$vector@UAttackAttribute@@V?$allocator@UAttackAttribute@@@std@@@std@@IAEXXZ ; std::vector<AttackAttribute,std::allocator<AttackAttribute> >::_Tidy
??1?$vector@UAttackAttribute@@V?$allocator@UAttackAttribute@@@std@@@std@@QAE@XZ ENDP ; std::vector<AttackAttribute,std::allocator<AttackAttribute> >::~vector<AttackAttribute,std::allocator<AttackAttribute> >
_TEXT	ENDS
PUBLIC	?clear@?$vector@UAttackAttribute@@V?$allocator@UAttackAttribute@@@std@@@std@@QAEXXZ ; std::vector<AttackAttribute,std::allocator<AttackAttribute> >::clear
; Function compile flags: /Ogsp
;	COMDAT ?clear@?$vector@UAttackAttribute@@V?$allocator@UAttackAttribute@@@std@@@std@@QAEXXZ
_TEXT	SEGMENT
$T621522 = -4						; size = 4
?clear@?$vector@UAttackAttribute@@V?$allocator@UAttackAttribute@@@std@@@std@@QAEXXZ PROC ; std::vector<AttackAttribute,std::allocator<AttackAttribute> >::clear, COMDAT
; _this$ = ecx

; 1217 : 		{	// erase all

  00000	55		 push	 ebp
  00001	8b ec		 mov	 ebp, esp
  00003	51		 push	 ecx

; 1218 : 		erase(begin(), end());

  00004	8b 41 04	 mov	 eax, DWORD PTR [ecx+4]
  00007	8b 11		 mov	 edx, DWORD PTR [ecx]
  00009	50		 push	 eax
  0000a	52		 push	 edx
  0000b	8d 45 fc	 lea	 eax, DWORD PTR $T621522[ebp]
  0000e	50		 push	 eax
  0000f	e8 00 00 00 00	 call	 ?erase@?$vector@UAttackAttribute@@V?$allocator@UAttackAttribute@@@std@@@std@@QAE?AV?$_Vector_iterator@V?$_Vector_val@UAttackAttribute@@V?$allocator@UAttackAttribute@@@std@@@std@@@2@V?$_Vector_const_iterator@V?$_Vector_val@UAttackAttribute@@V?$allocator@UAttackAttribute@@@std@@@std@@@2@0@Z ; std::vector<AttackAttribute,std::allocator<AttackAttribute> >::erase

; 1219 : 		}

  00014	c9		 leave
  00015	c3		 ret	 0
?clear@?$vector@UAttackAttribute@@V?$allocator@UAttackAttribute@@@std@@@std@@QAEXXZ ENDP ; std::vector<AttackAttribute,std::allocator<AttackAttribute> >::clear
_TEXT	ENDS
PUBLIC	??_7ioLinearComboSkill2@@6B@			; ioLinearComboSkill2::`vftable'
PUBLIC	??0ioLinearComboSkill2@@QAE@XZ			; ioLinearComboSkill2::ioLinearComboSkill2
PUBLIC	??_R4ioLinearComboSkill2@@6B@			; ioLinearComboSkill2::`RTTI Complete Object Locator'
PUBLIC	??_R0?AVioLinearComboSkill2@@@8			; ioLinearComboSkill2 `RTTI Type Descriptor'
PUBLIC	??_R3ioLinearComboSkill2@@8			; ioLinearComboSkill2::`RTTI Class Hierarchy Descriptor'
PUBLIC	??_R2ioLinearComboSkill2@@8			; ioLinearComboSkill2::`RTTI Base Class Array'
PUBLIC	??_R1A@?0A@EA@ioLinearComboSkill2@@8		; ioLinearComboSkill2::`RTTI Base Class Descriptor at (0,-1,0,64)'
PUBLIC	??_R1A@?0A@EA@ioAttackSkill@@8			; ioAttackSkill::`RTTI Base Class Descriptor at (0,-1,0,64)'
PUBLIC	??_R0?AVioAttackSkill@@@8			; ioAttackSkill `RTTI Type Descriptor'
PUBLIC	??_R3ioAttackSkill@@8				; ioAttackSkill::`RTTI Class Hierarchy Descriptor'
PUBLIC	??_R2ioAttackSkill@@8				; ioAttackSkill::`RTTI Base Class Array'
PUBLIC	??_R1A@?0A@EA@ioSkill@@8			; ioSkill::`RTTI Base Class Descriptor at (0,-1,0,64)'
PUBLIC	??_R0?AVioSkill@@@8				; ioSkill `RTTI Type Descriptor'
PUBLIC	??_R3ioSkill@@8					; ioSkill::`RTTI Class Hierarchy Descriptor'
PUBLIC	??_R2ioSkill@@8					; ioSkill::`RTTI Base Class Array'
PUBLIC	?LoadProperty@ioLinearComboSkill2@@UAEXAAVioINILoader@@@Z ; ioLinearComboSkill2::LoadProperty
PUBLIC	?Clone@ioLinearComboSkill2@@UAEPAVioSkill@@XZ	; ioLinearComboSkill2::Clone
PUBLIC	?GetDefenseSkillBreakeType@ioSkill@@UBE?AW4DefenseBreakType@@XZ ; ioSkill::GetDefenseSkillBreakeType
PUBLIC	?GetSkillEndNextJumpAmt@ioSkill@@UBEMXZ		; ioSkill::GetSkillEndNextJumpAmt
PUBLIC	?GetSkillEndNextLandRate@ioSkill@@UBEMXZ	; ioSkill::GetSkillEndNextLandRate
PUBLIC	?GetSkillEndNextJumpMustEnable@ioSkill@@UAE?AW4SkillEndJumpType@@XZ ; ioSkill::GetSkillEndNextJumpMustEnable
PUBLIC	?EnableChangeGrapplingTargetPos@ioSkill@@UBE_NXZ ; ioSkill::EnableChangeGrapplingTargetPos
PUBLIC	?IsInvisibleBottomCircle@ioSkill@@UAE_NPAVioBaseChar@@@Z ; ioSkill::IsInvisibleBottomCircle
PUBLIC	?IsCanJumpingSkill@ioSkill@@UBE_NXZ		; ioSkill::IsCanJumpingSkill
PUBLIC	?IsCanJumpingSkillOnBlowWound@ioSkill@@UBE_NXZ	; ioSkill::IsCanJumpingSkillOnBlowWound
PUBLIC	?IsCanDownSkill@ioSkill@@UBE_NXZ		; ioSkill::IsCanDownSkill
PUBLIC	?IsCanBlowWoundSkill@ioSkill@@UBE_NXZ		; ioSkill::IsCanBlowWoundSkill
PUBLIC	?IsCanWoundSkill@ioSkill@@UBE_NXZ		; ioSkill::IsCanWoundSkill
PUBLIC	?IsUseActiveCnt@ioSkill@@UBE_NXZ		; ioSkill::IsUseActiveCnt
PUBLIC	?GetMaxActiveCnt@ioSkill@@UBEHPAVioBaseChar@@@Z	; ioSkill::GetMaxActiveCnt
PUBLIC	?GetCurActiveCnt@ioSkill@@UBEHPAVioBaseChar@@@Z	; ioSkill::GetCurActiveCnt
EXTRN	??1ioAttackSkill@@UAE@XZ:PROC			; ioAttackSkill::~ioAttackSkill
EXTRN	??0ioAttackSkill@@QAE@XZ:PROC			; ioAttackSkill::ioAttackSkill
EXTRN	?GetTypeID@ioAttackSkill@@UBEHXZ:PROC		; ioAttackSkill::GetTypeID
EXTRN	?IsCanSwitchSkill@ioSkill@@UBE_NXZ:PROC		; ioSkill::IsCanSwitchSkill
EXTRN	?IsCanSemiSwitchSkill@ioSkill@@UBE_NXZ:PROC	; ioSkill::IsCanSemiSwitchSkill
EXTRN	?IsCanCancelBySkill@ioSkill@@UBE_NPAVioBaseChar@@AAH@Z:PROC ; ioSkill::IsCanCancelBySkill
EXTRN	?IsCanUseZeroHP@ioSkill@@UBE_NPAVioBaseChar@@@Z:PROC ; ioSkill::IsCanUseZeroHP
EXTRN	?IsCanUseSkillWithCrown@ioSkill@@UAE_NPAVioBaseChar@@@Z:PROC ; ioSkill::IsCanUseSkillWithCrown
EXTRN	?IsCanUseBoss@ioSkill@@UBE_NPAVioBaseChar@@@Z:PROC ; ioSkill::IsCanUseBoss
EXTRN	?IsCanUseFootball@ioSkill@@UBE_NXZ:PROC		; ioSkill::IsCanUseFootball
EXTRN	?IsCanUseGangSiMode@ioSkill@@UBE_NXZ:PROC	; ioSkill::IsCanUseGangSiMode
EXTRN	?IsCanUseByWeaponType@ioSkill@@UBE_NPAVioBaseChar@@@Z:PROC ; ioSkill::IsCanUseByWeaponType
EXTRN	?IsCanUseThunderBirdHold@ioSkill@@UBE_NPAVioBaseChar@@@Z:PROC ; ioSkill::IsCanUseThunderBirdHold
EXTRN	?IsCanUseLimitHP@ioSkill@@UBE_NPAVioBaseChar@@@Z:PROC ; ioSkill::IsCanUseLimitHP
EXTRN	?IsCanUseSkill@ioAttackSkill@@UAE_NPAVioBaseChar@@_N@Z:PROC ; ioAttackSkill::IsCanUseSkill
EXTRN	?IsOnOffEnable@ioSkill@@UAE_NXZ:PROC		; ioSkill::IsOnOffEnable
EXTRN	?IsCanDefenseStateSkill@ioSkill@@UAE_NXZ:PROC	; ioSkill::IsCanDefenseStateSkill
EXTRN	?SetDefenseStateSkill@ioSkill@@UAEXPAVioBaseChar@@@Z:PROC ; ioSkill::SetDefenseStateSkill
EXTRN	?HasBuff@ioSkill@@UBE_NH@Z:PROC			; ioSkill::HasBuff
EXTRN	?GetBuffType@ioSkill@@UAEHH@Z:PROC		; ioSkill::GetBuffType
EXTRN	?IsCharSkipState@ioSkill@@UBE?AW4SkillCharColType@@XZ:PROC ; ioSkill::IsCharSkipState
EXTRN	?IsEntityCollisionSkipState@ioSkill@@UBE_NXZ:PROC ; ioSkill::IsEntityCollisionSkipState
EXTRN	?IsEndState@ioSkill@@UBE_NXZ:PROC		; ioSkill::IsEndState
EXTRN	?IsDownState@ioSkill@@UBE_NXZ:PROC		; ioSkill::IsDownState
EXTRN	?IsSkipState@ioSkill@@UBE_NXZ:PROC		; ioSkill::IsSkipState
EXTRN	?GetSkillMoveRate@ioSkill@@UBEMXZ:PROC		; ioSkill::GetSkillMoveRate
EXTRN	?SetSkillGrapplingState@ioSkill@@UAE_NPAVioBaseChar@@ABVioHashString@@@Z:PROC ; ioSkill::SetSkillGrapplingState
EXTRN	?GetGrapplingTargetPos@ioSkill@@UAE?AUD3DXVECTOR3@@PAVioBaseChar@@0@Z:PROC ; ioSkill::GetGrapplingTargetPos
EXTRN	?GetGrapplingTargetPos@ioSkill@@UAE?AUD3DXVECTOR3@@PAVioBaseChar@@@Z:PROC ; ioSkill::GetGrapplingTargetPos
EXTRN	?GetSkillWoundGrapplingInfo@ioSkill@@UAE?AUGrapplingSkillWoundedInfo@@XZ:PROC ; ioSkill::GetSkillWoundGrapplingInfo
EXTRN	?SetCreateWeaponDependency@ioSkill@@UAEXPAVioBaseChar@@PAVioPlayStage@@@Z:PROC ; ioSkill::SetCreateWeaponDependency
EXTRN	?SetNextSkillState@ioSkill@@UAEXPAVioBaseChar@@PAVioWeapon@@@Z:PROC ; ioSkill::SetNextSkillState
EXTRN	?OnSkillEndByWounded@ioSkill@@UAEXPAVioBaseChar@@@Z:PROC ; ioSkill::OnSkillEndByWounded
EXTRN	?OnProcessNotUseSkill@ioSkill@@UAEXPAVioBaseChar@@PAVioPlayStage@@@Z:PROC ; ioSkill::OnProcessNotUseSkill
EXTRN	?OnSkillItemRelease@ioSkill@@UAEXPAVioBaseChar@@@Z:PROC ; ioSkill::OnSkillItemRelease
EXTRN	?ApplyEquipSlotSkillExtraInfo@ioSkill@@UAEXPAVioBaseChar@@PAVioPlayStage@@AAVSP2Packet@@@Z:PROC ; ioSkill::ApplyEquipSlotSkillExtraInfo
EXTRN	?ApplyExtraPassiveSkillInfo@ioSkill@@UAEXPAVioBaseChar@@PAVioPlayStage@@AAVSP2Packet@@@Z:PROC ; ioSkill::ApplyExtraPassiveSkillInfo
EXTRN	?StartPreDelayEffect@ioAttackSkill@@UAEXPAVioBaseChar@@@Z:PROC ; ioAttackSkill::StartPreDelayEffect
EXTRN	?EndPreDelayEffect@ioAttackSkill@@UAEXPAVioBaseChar@@@Z:PROC ; ioAttackSkill::EndPreDelayEffect
EXTRN	?IsUseAutoTargetValue@ioAttackSkill@@UAE_NXZ:PROC ; ioAttackSkill::IsUseAutoTargetValue
EXTRN	?IsAutoTargetDownState@ioSkill@@UAE_NXZ:PROC	; ioSkill::IsAutoTargetDownState
EXTRN	?CheckUseBuff@ioSkill@@UAE_NPAVioBaseChar@@@Z:PROC ; ioSkill::CheckUseBuff
EXTRN	?CheckUseActiveCount@ioSkill@@UAE_NXZ:PROC	; ioSkill::CheckUseActiveCount
EXTRN	?CheckAniRotate@ioSkill@@UAEXPAVioBaseChar@@@Z:PROC ; ioSkill::CheckAniRotate
EXTRN	?IsEnableMultiActive@ioSkill@@UAE_NPAVioBaseChar@@@Z:PROC ; ioSkill::IsEnableMultiActive
EXTRN	?GetAutoTargetValue@ioSkill@@UAEXAAM00@Z:PROC	; ioSkill::GetAutoTargetValue
EXTRN	?GetSkillGravityRate@ioSkill@@UAEMXZ:PROC	; ioSkill::GetSkillGravityRate
EXTRN	?GetSkillMotionName@ioSkill@@UBEABVioHashString@@XZ:PROC ; ioSkill::GetSkillMotionName
EXTRN	?HasSkillMotion@ioSkill@@UBE_NXZ:PROC		; ioSkill::HasSkillMotion
EXTRN	?GetSkillMotionRate@ioSkill@@UBEMXZ:PROC	; ioSkill::GetSkillMotionRate
EXTRN	?IsPreDelayProtect@ioSkill@@UBE_NXZ:PROC	; ioSkill::IsPreDelayProtect
EXTRN	?GetPreDelayAniName@ioSkill@@UBEABVioHashString@@XZ:PROC ; ioSkill::GetPreDelayAniName
EXTRN	?GetPreDelayTime@ioSkill@@UBEKXZ:PROC		; ioSkill::GetPreDelayTime
EXTRN	?GetPreDelayOwnerEffect@ioSkill@@UBEABVioHashString@@XZ:PROC ; ioSkill::GetPreDelayOwnerEffect
EXTRN	?GetPreDelayOtherEffect@ioSkill@@UBEABVioHashString@@XZ:PROC ; ioSkill::GetPreDelayOtherEffect
EXTRN	?SetCancelSkill@ioSkill@@UAEXPAVioBaseChar@@@Z:PROC ; ioSkill::SetCancelSkill
EXTRN	?ClearAirJump@ioSkill@@MAEXXZ:PROC		; ioSkill::ClearAirJump
EXTRN	?SetAirJump@ioSkill@@MAEXPAVioBaseChar@@HM@Z:PROC ; ioSkill::SetAirJump
EXTRN	?CheckAirJump@ioSkill@@MAEXPAVioBaseChar@@@Z:PROC ; ioSkill::CheckAirJump
EXTRN	?UseActiveCount@ioSkill@@UAE_NPAVioBaseChar@@@Z:PROC ; ioSkill::UseActiveCount
EXTRN	?GetMaxActiveCount@ioSkill@@UAEHPAVioBaseChar@@@Z:PROC ; ioSkill::GetMaxActiveCount
EXTRN	?GetCurActiveCount@ioSkill@@UAEHPAVioBaseChar@@@Z:PROC ; ioSkill::GetCurActiveCount
EXTRN	?HideHPGauge@ioSkill@@UAE_NXZ:PROC		; ioSkill::HideHPGauge
EXTRN	?SetInfoByApplyWeapon@ioSkill@@UAEXPAVioBaseChar@@0K_N@Z:PROC ; ioSkill::SetInfoByApplyWeapon
EXTRN	?SetCollisionByApplySkill@ioSkill@@UAEXXZ:PROC	; ioSkill::SetCollisionByApplySkill
EXTRN	?SetChargingRateForWeapon@ioSkill@@UAEXPAVioWeapon@@@Z:PROC ; ioSkill::SetChargingRateForWeapon
EXTRN	?CheckExceptionCamera@ioSkill@@UAE_NXZ:PROC	; ioSkill::CheckExceptionCamera
EXTRN	?GetExceptionCameraPos@ioSkill@@UAE?AUD3DXVECTOR3@@PAVioBaseChar@@@Z:PROC ; ioSkill::GetExceptionCameraPos
EXTRN	?IsFixedExceptionCamera@ioSkill@@UAE_NXZ:PROC	; ioSkill::IsFixedExceptionCamera
EXTRN	??_EioLinearComboSkill2@@UAEPAXI@Z:PROC		; ioLinearComboSkill2::`vector deleting destructor'
EXTRN	?StartPreDelayAnimation@ioAttackSkill@@MAE_NPAVioBaseChar@@@Z:PROC ; ioAttackSkill::StartPreDelayAnimation
EXTRN	?GetAttackTimeRate@ioAttackSkill@@MBEMXZ:PROC	; ioAttackSkill::GetAttackTimeRate
EXTRN	?GetAttackEndTimeRate@ioAttackSkill@@MBEMXZ:PROC ; ioAttackSkill::GetAttackEndTimeRate
EXTRN	?LoadNormalAttribute@ioAttackSkill@@MAEXAAVioINILoader@@@Z:PROC ; ioAttackSkill::LoadNormalAttribute
EXTRN	?LoadDownAttribute@ioAttackSkill@@MAEXAAVioINILoader@@@Z:PROC ; ioAttackSkill::LoadDownAttribute
EXTRN	?LoadJumpAttribute@ioAttackSkill@@MAEXAAVioINILoader@@@Z:PROC ; ioAttackSkill::LoadJumpAttribute
EXTRN	?GetAttribute@ioAttackSkill@@UAEAAUAttackAttribute@@XZ:PROC ; ioAttackSkill::GetAttribute
EXTRN	?GetAttributeConst@ioAttackSkill@@UBEABUAttackAttribute@@XZ:PROC ; ioAttackSkill::GetAttributeConst
EXTRN	?IsCanStateEscape@ioAttackSkill@@UBE_NXZ:PROC	; ioAttackSkill::IsCanStateEscape
EXTRN	?IsCanStateEscapeOnStand@ioAttackSkill@@UBE_NPAVioBaseChar@@@Z:PROC ; ioAttackSkill::IsCanStateEscapeOnStand
EXTRN	?IsCanStateEscapeOnAir@ioAttackSkill@@UBE_NPAVioBaseChar@@@Z:PROC ; ioAttackSkill::IsCanStateEscapeOnAir
EXTRN	?IsCanStateEscapeOnDown@ioAttackSkill@@UBE_NPAVioBaseChar@@@Z:PROC ; ioAttackSkill::IsCanStateEscapeOnDown
;	COMDAT ??_R2ioSkill@@8
; File d:\lost saga for developer\youtube\tutorial\source\src\lsclient\encryptvalue.h
rdata$r	SEGMENT
??_R2ioSkill@@8 DD FLAT:??_R1A@?0A@EA@ioSkill@@8	; ioSkill::`RTTI Base Class Array'
rdata$r	ENDS
;	COMDAT ??_R3ioSkill@@8
rdata$r	SEGMENT
??_R3ioSkill@@8 DD 00H					; ioSkill::`RTTI Class Hierarchy Descriptor'
	DD	00H
	DD	01H
	DD	FLAT:??_R2ioSkill@@8
rdata$r	ENDS
;	COMDAT ??_R0?AVioSkill@@@8
_DATA	SEGMENT
??_R0?AVioSkill@@@8 DD FLAT:??_7type_info@@6B@		; ioSkill `RTTI Type Descriptor'
	DD	00H
	DB	'.?AVioSkill@@', 00H
_DATA	ENDS
;	COMDAT ??_R1A@?0A@EA@ioSkill@@8
rdata$r	SEGMENT
??_R1A@?0A@EA@ioSkill@@8 DD FLAT:??_R0?AVioSkill@@@8	; ioSkill::`RTTI Base Class Descriptor at (0,-1,0,64)'
	DD	00H
	DD	00H
	DD	0ffffffffH
	DD	00H
	DD	040H
	DD	FLAT:??_R3ioSkill@@8
rdata$r	ENDS
;	COMDAT ??_R2ioAttackSkill@@8
rdata$r	SEGMENT
??_R2ioAttackSkill@@8 DD FLAT:??_R1A@?0A@EA@ioAttackSkill@@8 ; ioAttackSkill::`RTTI Base Class Array'
	DD	FLAT:??_R1A@?0A@EA@ioSkill@@8
rdata$r	ENDS
;	COMDAT ??_R3ioAttackSkill@@8
rdata$r	SEGMENT
??_R3ioAttackSkill@@8 DD 00H				; ioAttackSkill::`RTTI Class Hierarchy Descriptor'
	DD	00H
	DD	02H
	DD	FLAT:??_R2ioAttackSkill@@8
rdata$r	ENDS
;	COMDAT ??_R0?AVioAttackSkill@@@8
_DATA	SEGMENT
??_R0?AVioAttackSkill@@@8 DD FLAT:??_7type_info@@6B@	; ioAttackSkill `RTTI Type Descriptor'
	DD	00H
	DB	'.?AVioAttackSkill@@', 00H
_DATA	ENDS
;	COMDAT ??_R1A@?0A@EA@ioAttackSkill@@8
rdata$r	SEGMENT
??_R1A@?0A@EA@ioAttackSkill@@8 DD FLAT:??_R0?AVioAttackSkill@@@8 ; ioAttackSkill::`RTTI Base Class Descriptor at (0,-1,0,64)'
	DD	01H
	DD	00H
	DD	0ffffffffH
	DD	00H
	DD	040H
	DD	FLAT:??_R3ioAttackSkill@@8
rdata$r	ENDS
;	COMDAT ??_R1A@?0A@EA@ioLinearComboSkill2@@8
rdata$r	SEGMENT
??_R1A@?0A@EA@ioLinearComboSkill2@@8 DD FLAT:??_R0?AVioLinearComboSkill2@@@8 ; ioLinearComboSkill2::`RTTI Base Class Descriptor at (0,-1,0,64)'
	DD	02H
	DD	00H
	DD	0ffffffffH
	DD	00H
	DD	040H
	DD	FLAT:??_R3ioLinearComboSkill2@@8
rdata$r	ENDS
;	COMDAT ??_R2ioLinearComboSkill2@@8
rdata$r	SEGMENT
??_R2ioLinearComboSkill2@@8 DD FLAT:??_R1A@?0A@EA@ioLinearComboSkill2@@8 ; ioLinearComboSkill2::`RTTI Base Class Array'
	DD	FLAT:??_R1A@?0A@EA@ioAttackSkill@@8
	DD	FLAT:??_R1A@?0A@EA@ioSkill@@8
rdata$r	ENDS
;	COMDAT ??_R3ioLinearComboSkill2@@8
rdata$r	SEGMENT
??_R3ioLinearComboSkill2@@8 DD 00H			; ioLinearComboSkill2::`RTTI Class Hierarchy Descriptor'
	DD	00H
	DD	03H
	DD	FLAT:??_R2ioLinearComboSkill2@@8
rdata$r	ENDS
;	COMDAT ??_R0?AVioLinearComboSkill2@@@8
_DATA	SEGMENT
??_R0?AVioLinearComboSkill2@@@8 DD FLAT:??_7type_info@@6B@ ; ioLinearComboSkill2 `RTTI Type Descriptor'
	DD	00H
	DB	'.?AVioLinearComboSkill2@@', 00H
_DATA	ENDS
;	COMDAT ??_R4ioLinearComboSkill2@@6B@
rdata$r	SEGMENT
??_R4ioLinearComboSkill2@@6B@ DD 00H			; ioLinearComboSkill2::`RTTI Complete Object Locator'
	DD	00H
	DD	00H
	DD	FLAT:??_R0?AVioLinearComboSkill2@@@8
	DD	FLAT:??_R3ioLinearComboSkill2@@8
rdata$r	ENDS
;	COMDAT ??_7ioLinearComboSkill2@@6B@
CONST	SEGMENT
??_7ioLinearComboSkill2@@6B@ DD FLAT:??_R4ioLinearComboSkill2@@6B@ ; ioLinearComboSkill2::`vftable'
	DD	FLAT:?LoadProperty@ioLinearComboSkill2@@UAEXAAVioINILoader@@@Z
	DD	FLAT:?Clone@ioLinearComboSkill2@@UAEPAVioSkill@@XZ
	DD	FLAT:?GetTypeID@ioAttackSkill@@UBEHXZ
	DD	FLAT:?IsProtected@ioLinearComboSkill2@@UBE_NH@Z
	DD	FLAT:?IsCanSwitchSkill@ioSkill@@UBE_NXZ
	DD	FLAT:?IsCanSemiSwitchSkill@ioSkill@@UBE_NXZ
	DD	FLAT:?IsCanCancelBySkill@ioSkill@@UBE_NPAVioBaseChar@@AAH@Z
	DD	FLAT:?IsCanUseZeroHP@ioSkill@@UBE_NPAVioBaseChar@@@Z
	DD	FLAT:?IsCanUseSkillWithCrown@ioSkill@@UAE_NPAVioBaseChar@@@Z
	DD	FLAT:?IsCanUseBoss@ioSkill@@UBE_NPAVioBaseChar@@@Z
	DD	FLAT:?IsCanUseFootball@ioSkill@@UBE_NXZ
	DD	FLAT:?IsCanUseGangSiMode@ioSkill@@UBE_NXZ
	DD	FLAT:?IsCanUseByWeaponType@ioSkill@@UBE_NPAVioBaseChar@@@Z
	DD	FLAT:?IsCanUseThunderBirdHold@ioSkill@@UBE_NPAVioBaseChar@@@Z
	DD	FLAT:?IsCanUseLimitHP@ioSkill@@UBE_NPAVioBaseChar@@@Z
	DD	FLAT:?IsCanUseSkill@ioAttackSkill@@UAE_NPAVioBaseChar@@_N@Z
	DD	FLAT:?IsOnOffEnable@ioSkill@@UAE_NXZ
	DD	FLAT:?IsCanDefenseStateSkill@ioSkill@@UAE_NXZ
	DD	FLAT:?SetDefenseStateSkill@ioSkill@@UAEXPAVioBaseChar@@@Z
	DD	FLAT:?GetDefenseSkillBreakeType@ioSkill@@UBE?AW4DefenseBreakType@@XZ
	DD	FLAT:?HasBuff@ioSkill@@UBE_NH@Z
	DD	FLAT:?GetBuffType@ioSkill@@UAEHH@Z
	DD	FLAT:?IsEnableReserve@ioLinearComboSkill2@@UBE_NXZ
	DD	FLAT:?IsSkillMotionEnd@ioLinearComboSkill2@@UBE_NKPAVioBaseChar@@@Z
	DD	FLAT:?IsCharSkipState@ioSkill@@UBE?AW4SkillCharColType@@XZ
	DD	FLAT:?IsEntityCollisionSkipState@ioSkill@@UBE_NXZ
	DD	FLAT:?GetSkillEndNextJumpAmt@ioSkill@@UBEMXZ
	DD	FLAT:?GetSkillEndNextLandRate@ioSkill@@UBEMXZ
	DD	FLAT:?GetSkillEndNextJumpMustEnable@ioSkill@@UAE?AW4SkillEndJumpType@@XZ
	DD	FLAT:?IsEndState@ioSkill@@UBE_NXZ
	DD	FLAT:?IsAttackEndState@ioLinearComboSkill2@@UBE_NXZ
	DD	FLAT:?IsJumpState@ioLinearComboSkill2@@UBE_NXZ
	DD	FLAT:?IsDownState@ioSkill@@UBE_NXZ
	DD	FLAT:?IsNoDropState@ioLinearComboSkill2@@UBE_NXZ
	DD	FLAT:?IsCanSendControl@ioLinearComboSkill2@@UBE_NXZ
	DD	FLAT:?IsSkipState@ioSkill@@UBE_NXZ
	DD	FLAT:?GetSkillMoveRate@ioSkill@@UBEMXZ
	DD	FLAT:?SetSkillGrapplingState@ioSkill@@UAE_NPAVioBaseChar@@ABVioHashString@@@Z
	DD	FLAT:?GetGrapplingTargetPos@ioSkill@@UAE?AUD3DXVECTOR3@@PAVioBaseChar@@0@Z
	DD	FLAT:?GetGrapplingTargetPos@ioSkill@@UAE?AUD3DXVECTOR3@@PAVioBaseChar@@@Z
	DD	FLAT:?EnableChangeGrapplingTargetPos@ioSkill@@UBE_NXZ
	DD	FLAT:?GetSkillWoundGrapplingInfo@ioSkill@@UAE?AUGrapplingSkillWoundedInfo@@XZ
	DD	FLAT:?SetCreateWeaponDependency@ioSkill@@UAEXPAVioBaseChar@@PAVioPlayStage@@@Z
	DD	FLAT:?SetNextSkillState@ioSkill@@UAEXPAVioBaseChar@@PAVioWeapon@@@Z
	DD	FLAT:?OnSkillStart@ioLinearComboSkill2@@UAE_NPAVioBaseChar@@@Z
	DD	FLAT:?OnProcessState@ioLinearComboSkill2@@UAEXPAVioBaseChar@@PAVioPlayStage@@@Z
	DD	FLAT:?OnSkillEndByWounded@ioSkill@@UAEXPAVioBaseChar@@@Z
	DD	FLAT:?OnSkillEnd@ioLinearComboSkill2@@UAEXPAVioBaseChar@@@Z
	DD	FLAT:?OnProcessNotUseSkill@ioSkill@@UAEXPAVioBaseChar@@PAVioPlayStage@@@Z
	DD	FLAT:?OnSkillItemRelease@ioSkill@@UAEXPAVioBaseChar@@@Z
	DD	FLAT:?ApplyAttributeToWeapon@ioLinearComboSkill2@@UAEXPAVioWeapon@@PAVioPlayStage@@@Z
	DD	FLAT:?ApplyExtraSkillInfo@ioLinearComboSkill2@@UAEXPAVioBaseChar@@PAVioPlayStage@@AAVSP2Packet@@@Z
	DD	FLAT:?ApplyEquipSlotSkillExtraInfo@ioSkill@@UAEXPAVioBaseChar@@PAVioPlayStage@@AAVSP2Packet@@@Z
	DD	FLAT:?ApplyExtraPassiveSkillInfo@ioSkill@@UAEXPAVioBaseChar@@PAVioPlayStage@@AAVSP2Packet@@@Z
	DD	FLAT:?StartPreDelayEffect@ioAttackSkill@@UAEXPAVioBaseChar@@@Z
	DD	FLAT:?EndPreDelayEffect@ioAttackSkill@@UAEXPAVioBaseChar@@@Z
	DD	FLAT:?IsUseAutoTargetValue@ioAttackSkill@@UAE_NXZ
	DD	FLAT:?IsAutoTargetDownState@ioSkill@@UAE_NXZ
	DD	FLAT:?CheckUseBuff@ioSkill@@UAE_NPAVioBaseChar@@@Z
	DD	FLAT:?CheckUseItemMesh@ioLinearComboSkill2@@UAE_NXZ
	DD	FLAT:?CheckUseActiveCount@ioSkill@@UAE_NXZ
	DD	FLAT:?CheckAniRotate@ioSkill@@UAEXPAVioBaseChar@@@Z
	DD	FLAT:?IsEnableDashCheck@ioLinearComboSkill2@@UAE_NPAVioBaseChar@@@Z
	DD	FLAT:?IsEnableMultiActive@ioSkill@@UAE_NPAVioBaseChar@@@Z
	DD	FLAT:?IsInvisibleBottomCircle@ioSkill@@UAE_NPAVioBaseChar@@@Z
	DD	FLAT:?GetAutoTargetValue@ioSkill@@UAEXAAM00@Z
	DD	FLAT:?IsCanJumpingSkill@ioSkill@@UBE_NXZ
	DD	FLAT:?IsCanJumpingSkillOnBlowWound@ioSkill@@UBE_NXZ
	DD	FLAT:?IsCanDownSkill@ioSkill@@UBE_NXZ
	DD	FLAT:?IsCanBlowWoundSkill@ioSkill@@UBE_NXZ
	DD	FLAT:?IsCanWoundSkill@ioSkill@@UBE_NXZ
	DD	FLAT:?GetSkillGravityRate@ioSkill@@UAEMXZ
	DD	FLAT:?GetSkillMotionName@ioSkill@@UBEABVioHashString@@XZ
	DD	FLAT:?HasSkillMotion@ioSkill@@UBE_NXZ
	DD	FLAT:?GetSkillMotionRate@ioSkill@@UBEMXZ
	DD	FLAT:?IsPreDelayProtect@ioSkill@@UBE_NXZ
	DD	FLAT:?GetPreDelayAniName@ioSkill@@UBEABVioHashString@@XZ
	DD	FLAT:?GetPreDelayTime@ioSkill@@UBEKXZ
	DD	FLAT:?GetPreDelayOwnerEffect@ioSkill@@UBEABVioHashString@@XZ
	DD	FLAT:?GetPreDelayOtherEffect@ioSkill@@UBEABVioHashString@@XZ
	DD	FLAT:?SetCancelSkill@ioSkill@@UAEXPAVioBaseChar@@@Z
	DD	FLAT:?ClearAirJump@ioSkill@@MAEXXZ
	DD	FLAT:?SetAirJump@ioSkill@@MAEXPAVioBaseChar@@HM@Z
	DD	FLAT:?CheckAirJump@ioSkill@@MAEXPAVioBaseChar@@@Z
	DD	FLAT:?UseActiveCount@ioSkill@@UAE_NPAVioBaseChar@@@Z
	DD	FLAT:?GetMaxActiveCount@ioSkill@@UAEHPAVioBaseChar@@@Z
	DD	FLAT:?GetCurActiveCount@ioSkill@@UAEHPAVioBaseChar@@@Z
	DD	FLAT:?HideHPGauge@ioSkill@@UAE_NXZ
	DD	FLAT:?SetInfoByApplyWeapon@ioSkill@@UAEXPAVioBaseChar@@0K_N@Z
	DD	FLAT:?SetCollisionByApplySkill@ioSkill@@UAEXXZ
	DD	FLAT:?SetChargingRateForWeapon@ioSkill@@UAEXPAVioWeapon@@@Z
	DD	FLAT:?CheckExceptionCamera@ioSkill@@UAE_NXZ
	DD	FLAT:?GetExceptionCameraPos@ioSkill@@UAE?AUD3DXVECTOR3@@PAVioBaseChar@@@Z
	DD	FLAT:?IsFixedExceptionCamera@ioSkill@@UAE_NXZ
	DD	FLAT:?IsUseActiveCnt@ioSkill@@UBE_NXZ
	DD	FLAT:?GetMaxActiveCnt@ioSkill@@UBEHPAVioBaseChar@@@Z
	DD	FLAT:?GetCurActiveCnt@ioSkill@@UBEHPAVioBaseChar@@@Z
	DD	FLAT:??_EioLinearComboSkill2@@UAEPAXI@Z
	DD	FLAT:?StartPreDelayAnimation@ioAttackSkill@@MAE_NPAVioBaseChar@@@Z
	DD	FLAT:?AttackSkillFire@ioLinearComboSkill2@@MAEXPAVioBaseChar@@@Z
	DD	FLAT:?GetAttackTimeRate@ioAttackSkill@@MBEMXZ
	DD	FLAT:?GetAttackEndTimeRate@ioAttackSkill@@MBEMXZ
	DD	FLAT:?LoadNormalAttribute@ioAttackSkill@@MAEXAAVioINILoader@@@Z
	DD	FLAT:?LoadDownAttribute@ioAttackSkill@@MAEXAAVioINILoader@@@Z
	DD	FLAT:?LoadJumpAttribute@ioAttackSkill@@MAEXAAVioINILoader@@@Z
	DD	FLAT:?GetAttribute@ioAttackSkill@@UAEAAUAttackAttribute@@XZ
	DD	FLAT:?GetAttributeConst@ioAttackSkill@@UBEABUAttackAttribute@@XZ
	DD	FLAT:?IsCanStateEscape@ioAttackSkill@@UBE_NXZ
	DD	FLAT:?IsCanStateEscapeOnStand@ioAttackSkill@@UBE_NPAVioBaseChar@@@Z
	DD	FLAT:?IsCanStateEscapeOnAir@ioAttackSkill@@UBE_NPAVioBaseChar@@@Z
	DD	FLAT:?IsCanStateEscapeOnDown@ioAttackSkill@@UBE_NPAVioBaseChar@@@Z
CONST	ENDS
;	COMDAT xdata$x
xdata$x	SEGMENT
__ehfuncinfo$??0ioLinearComboSkill2@@QAE@XZ DD 019930522H
	DD	010H
	DD	FLAT:__unwindtable$??0ioLinearComboSkill2@@QAE@XZ
	DD	2 DUP(00H)
	DD	2 DUP(00H)
	DD	00H
	DD	01H
__unwindtable$??0ioLinearComboSkill2@@QAE@XZ DD 0ffffffffH
	DD	FLAT:__unwindfunclet$??0ioLinearComboSkill2@@QAE@XZ$0
	DD	00H
	DD	FLAT:__unwindfunclet$??0ioLinearComboSkill2@@QAE@XZ$1
	DD	01H
	DD	FLAT:__unwindfunclet$??0ioLinearComboSkill2@@QAE@XZ$2
	DD	02H
	DD	FLAT:__unwindfunclet$??0ioLinearComboSkill2@@QAE@XZ$3
	DD	03H
	DD	FLAT:__unwindfunclet$??0ioLinearComboSkill2@@QAE@XZ$4
	DD	04H
	DD	FLAT:__unwindfunclet$??0ioLinearComboSkill2@@QAE@XZ$5
	DD	05H
	DD	FLAT:__unwindfunclet$??0ioLinearComboSkill2@@QAE@XZ$6
	DD	06H
	DD	FLAT:__unwindfunclet$??0ioLinearComboSkill2@@QAE@XZ$7
	DD	07H
	DD	FLAT:__unwindfunclet$??0ioLinearComboSkill2@@QAE@XZ$8
	DD	08H
	DD	FLAT:__unwindfunclet$??0ioLinearComboSkill2@@QAE@XZ$9
	DD	09H
	DD	FLAT:__unwindfunclet$??0ioLinearComboSkill2@@QAE@XZ$10
	DD	0aH
	DD	FLAT:__unwindfunclet$??0ioLinearComboSkill2@@QAE@XZ$11
	DD	0bH
	DD	FLAT:__unwindfunclet$??0ioLinearComboSkill2@@QAE@XZ$12
	DD	0cH
	DD	FLAT:__unwindfunclet$??0ioLinearComboSkill2@@QAE@XZ$13
	DD	0dH
	DD	FLAT:__unwindfunclet$??0ioLinearComboSkill2@@QAE@XZ$14
	DD	0eH
	DD	FLAT:__unwindfunclet$??0ioLinearComboSkill2@@QAE@XZ$15
; Function compile flags: /Ogsp
; File d:\lost saga for developer\youtube\tutorial\source\src\lsclient\iolinearcomboskill2.cpp
xdata$x	ENDS
;	COMDAT ??0ioLinearComboSkill2@@QAE@XZ
_TEXT	SEGMENT
_this$ = -24						; size = 4
_value$621677 = -20					; size = 4
_value$621673 = -13					; size = 1
_value$621669 = -13					; size = 1
__$EHRec$ = -12						; size = 12
??0ioLinearComboSkill2@@QAE@XZ PROC			; ioLinearComboSkill2::ioLinearComboSkill2, COMDAT
; _this$ = ecx

; 14   : {

  00000	6a 0c		 push	 12			; 0000000cH
  00002	b8 00 00 00 00	 mov	 eax, __ehhandler$??0ioLinearComboSkill2@@QAE@XZ
  00007	e8 00 00 00 00	 call	 __EH_prolog3
  0000c	8b f1		 mov	 esi, ecx
  0000e	89 75 e8	 mov	 DWORD PTR _this$[ebp], esi
  00011	e8 00 00 00 00	 call	 ??0ioAttackSkill@@QAE@XZ ; ioAttackSkill::ioAttackSkill
  00016	33 db		 xor	 ebx, ebx
  00018	c7 06 00 00 00
	00		 mov	 DWORD PTR [esi], OFFSET ??_7ioLinearComboSkill2@@6B@
  0001e	89 5d fc	 mov	 DWORD PTR __$EHRec$[ebp+8], ebx
  00021	89 9e e8 10 00
	00		 mov	 DWORD PTR [esi+4328], ebx
  00027	89 9e ec 10 00
	00		 mov	 DWORD PTR [esi+4332], ebx
  0002d	89 9e f0 10 00
	00		 mov	 DWORD PTR [esi+4336], ebx
  00033	89 9e f8 10 00
	00		 mov	 DWORD PTR [esi+4344], ebx
  00039	89 9e fc 10 00
	00		 mov	 DWORD PTR [esi+4348], ebx
  0003f	89 9e 00 11 00
	00		 mov	 DWORD PTR [esi+4352], ebx
  00045	89 9e 08 11 00
	00		 mov	 DWORD PTR [esi+4360], ebx
  0004b	89 9e 0c 11 00
	00		 mov	 DWORD PTR [esi+4364], ebx
  00051	89 9e 10 11 00
	00		 mov	 DWORD PTR [esi+4368], ebx
  00057	8d 8e 18 11 00
	00		 lea	 ecx, DWORD PTR [esi+4376]
  0005d	c6 45 fc 03	 mov	 BYTE PTR __$EHRec$[ebp+8], 3
  00061	e8 00 00 00 00	 call	 ??0AttackAttribute@@QAE@XZ ; AttackAttribute::AttackAttribute
  00066	8d 8e 84 11 00
	00		 lea	 ecx, DWORD PTR [esi+4484]
  0006c	c6 45 fc 04	 mov	 BYTE PTR __$EHRec$[ebp+8], 4
  00070	e8 00 00 00 00	 call	 ??0AttackAttribute@@QAE@XZ ; AttackAttribute::AttackAttribute
  00075	8d 8e d4 11 00
	00		 lea	 ecx, DWORD PTR [esi+4564]
  0007b	c6 45 fc 05	 mov	 BYTE PTR __$EHRec$[ebp+8], 5
  0007f	e8 00 00 00 00	 call	 ??0AttackAttribute@@QAE@XZ ; AttackAttribute::AttackAttribute
  00084	8d 8e 24 12 00
	00		 lea	 ecx, DWORD PTR [esi+4644]
  0008a	c6 45 fc 06	 mov	 BYTE PTR __$EHRec$[ebp+8], 6
  0008e	e8 00 00 00 00	 call	 ??0AttackAttribute@@QAE@XZ ; AttackAttribute::AttackAttribute
  00093	8d 8e 74 12 00
	00		 lea	 ecx, DWORD PTR [esi+4724]
  00099	c6 45 fc 07	 mov	 BYTE PTR __$EHRec$[ebp+8], 7
  0009d	e8 00 00 00 00	 call	 ??0?$CEncrypt@_N@@QAE@XZ ; CEncrypt<bool>::CEncrypt<bool>
  000a2	8d 8e a4 12 00
	00		 lea	 ecx, DWORD PTR [esi+4772]
  000a8	c6 45 fc 08	 mov	 BYTE PTR __$EHRec$[ebp+8], 8
  000ac	e8 00 00 00 00	 call	 ??0?$CEncrypt@_N@@QAE@XZ ; CEncrypt<bool>::CEncrypt<bool>
  000b1	8d 8e d4 12 00
	00		 lea	 ecx, DWORD PTR [esi+4820]
  000b7	c6 45 fc 09	 mov	 BYTE PTR __$EHRec$[ebp+8], 9
  000bb	e8 00 00 00 00	 call	 ??0?$CEncrypt@_N@@QAE@XZ ; CEncrypt<bool>::CEncrypt<bool>
  000c0	8d 8e 08 13 00
	00		 lea	 ecx, DWORD PTR [esi+4872]
  000c6	c6 45 fc 0a	 mov	 BYTE PTR __$EHRec$[ebp+8], 10 ; 0000000aH
  000ca	e8 00 00 00 00	 call	 ??0AttackAttribute@@QAE@XZ ; AttackAttribute::AttackAttribute
  000cf	8d 8e 58 13 00
	00		 lea	 ecx, DWORD PTR [esi+4952]
  000d5	c6 45 fc 0b	 mov	 BYTE PTR __$EHRec$[ebp+8], 11 ; 0000000bH
  000d9	e8 00 00 00 00	 call	 ??0?$CEncrypt@H@@QAE@XZ	; CEncrypt<int>::CEncrypt<int>
  000de	8d 8e 88 13 00
	00		 lea	 ecx, DWORD PTR [esi+5000]
  000e4	c6 45 fc 0c	 mov	 BYTE PTR __$EHRec$[ebp+8], 12 ; 0000000cH
  000e8	e8 00 00 00 00	 call	 ??0?$CEncrypt@H@@QAE@XZ	; CEncrypt<int>::CEncrypt<int>
  000ed	8b 3d 00 00 00
	00		 mov	 edi, DWORD PTR __imp_??0ioHashString@@QAE@XZ
  000f3	8d 8e b8 13 00
	00		 lea	 ecx, DWORD PTR [esi+5048]
  000f9	c6 45 fc 0d	 mov	 BYTE PTR __$EHRec$[ebp+8], 13 ; 0000000dH
  000fd	ff d7		 call	 edi
  000ff	8d 8e d0 13 00
	00		 lea	 ecx, DWORD PTR [esi+5072]
  00105	c6 45 fc 0e	 mov	 BYTE PTR __$EHRec$[ebp+8], 14 ; 0000000eH
  00109	ff d7		 call	 edi

; 15   : 	m_SkillState = SS_NONE;
; 16   : 	m_bSetHandMesh = false;
; 17   : 	m_bUsedEndOtherAttack = false;
; 18   : 
; 19   : 	m_iCurLinearCombo = 0;
; 20   : 	m_dwNextComboTime = 0;
; 21   : 	m_dwCurSkillProtectTime = 0;
; 22   : 
; 23   : 	m_bUsedComboList = false;

  0010b	8d 45 f3	 lea	 eax, DWORD PTR _value$621669[ebp]
  0010e	50		 push	 eax
  0010f	8d 8e a4 12 00
	00		 lea	 ecx, DWORD PTR [esi+4772]
  00115	c6 45 fc 0f	 mov	 BYTE PTR __$EHRec$[ebp+8], 15 ; 0000000fH
  00119	89 9e e4 10 00
	00		 mov	 DWORD PTR [esi+4324], ebx
  0011f	88 9e 0a 0f 00
	00		 mov	 BYTE PTR [esi+3850], bl
  00125	88 9e 81 11 00
	00		 mov	 BYTE PTR [esi+4481], bl
  0012b	89 9e 68 11 00
	00		 mov	 DWORD PTR [esi+4456], ebx
  00131	89 9e 6c 11 00
	00		 mov	 DWORD PTR [esi+4460], ebx
  00137	89 9e 74 11 00
	00		 mov	 DWORD PTR [esi+4468], ebx
  0013d	88 5d f3	 mov	 BYTE PTR _value$621669[ebp], bl
  00140	e8 00 00 00 00	 call	 ?EncryptValueToPool@?$CEncrypt@_N@@AAEXPBD@Z ; CEncrypt<bool>::EncryptValueToPool

; 24   : 	m_bSetAttackFire = false;

  00145	8d 45 f3	 lea	 eax, DWORD PTR _value$621673[ebp]
  00148	88 5d f3	 mov	 BYTE PTR _value$621673[ebp], bl
  0014b	50		 push	 eax
  0014c	8d 8e d4 12 00
	00		 lea	 ecx, DWORD PTR [esi+4820]
  00152	e8 00 00 00 00	 call	 ?EncryptValueToPool@?$CEncrypt@_N@@AAEXPBD@Z ; CEncrypt<bool>::EncryptValueToPool

; 25   : 
; 26   : 	m_CurDirKey = ioUserKeyInput::DKI_NONE;
; 27   : 	m_iCurRetreatCnt = 0;

  00157	8d 45 ec	 lea	 eax, DWORD PTR _value$621677[ebp]
  0015a	50		 push	 eax
  0015b	8d 8e 88 13 00
	00		 lea	 ecx, DWORD PTR [esi+5000]
  00161	89 9e 04 13 00
	00		 mov	 DWORD PTR [esi+4868], ebx
  00167	89 5d ec	 mov	 DWORD PTR _value$621677[ebp], ebx
  0016a	e8 00 00 00 00	 call	 ?EncryptValueToPool@?$CEncrypt@H@@AAEXPBD@Z ; CEncrypt<int>::EncryptValueToPool

; 28   : 
; 29   : 	m_dwAreMapEffectID = -1;

  0016f	83 8e cc 13 00
	00 ff		 or	 DWORD PTR [esi+5068], -1

; 30   : 
; 31   : 	m_nCurEndCombo = 0;

  00176	89 9e e8 13 00
	00		 mov	 DWORD PTR [esi+5096], ebx

; 32   : 
; 33   : 	m_bReserveLastAttack = false;

  0017c	88 9e f0 13 00
	00		 mov	 BYTE PTR [esi+5104], bl

; 34   : }

  00182	8b c6		 mov	 eax, esi
  00184	e8 00 00 00 00	 call	 __EH_epilog3
  00189	c3		 ret	 0
_TEXT	ENDS
;	COMDAT text$x
text$x	SEGMENT
__unwindfunclet$??0ioLinearComboSkill2@@QAE@XZ$0:
  00000	8b 4d e8	 mov	 ecx, DWORD PTR _this$[ebp]
  00003	e9 00 00 00 00	 jmp	 ??1ioAttackSkill@@UAE@XZ ; ioAttackSkill::~ioAttackSkill
__unwindfunclet$??0ioLinearComboSkill2@@QAE@XZ$1:
  00008	8b 4d e8	 mov	 ecx, DWORD PTR _this$[ebp]
  0000b	81 c1 e8 10 00
	00		 add	 ecx, 4328		; 000010e8H
  00011	e9 00 00 00 00	 jmp	 ??1?$vector@UAttackAttribute@@V?$allocator@UAttackAttribute@@@std@@@std@@QAE@XZ ; std::vector<AttackAttribute,std::allocator<AttackAttribute> >::~vector<AttackAttribute,std::allocator<AttackAttribute> >
__unwindfunclet$??0ioLinearComboSkill2@@QAE@XZ$2:
  00016	8b 4d e8	 mov	 ecx, DWORD PTR _this$[ebp]
  00019	81 c1 f8 10 00
	00		 add	 ecx, 4344		; 000010f8H
  0001f	e9 00 00 00 00	 jmp	 ??1?$vector@UAttackAttribute@@V?$allocator@UAttackAttribute@@@std@@@std@@QAE@XZ ; std::vector<AttackAttribute,std::allocator<AttackAttribute> >::~vector<AttackAttribute,std::allocator<AttackAttribute> >
__unwindfunclet$??0ioLinearComboSkill2@@QAE@XZ$3:
  00024	8b 4d e8	 mov	 ecx, DWORD PTR _this$[ebp]
  00027	81 c1 08 11 00
	00		 add	 ecx, 4360		; 00001108H
  0002d	e9 00 00 00 00	 jmp	 ??1?$vector@UAttackAttribute@@V?$allocator@UAttackAttribute@@@std@@@std@@QAE@XZ ; std::vector<AttackAttribute,std::allocator<AttackAttribute> >::~vector<AttackAttribute,std::allocator<AttackAttribute> >
__unwindfunclet$??0ioLinearComboSkill2@@QAE@XZ$4:
  00032	8b 4d e8	 mov	 ecx, DWORD PTR _this$[ebp]
  00035	81 c1 18 11 00
	00		 add	 ecx, 4376		; 00001118H
  0003b	e9 00 00 00 00	 jmp	 ??1AttackAttribute@@QAE@XZ
__unwindfunclet$??0ioLinearComboSkill2@@QAE@XZ$5:
  00040	8b 4d e8	 mov	 ecx, DWORD PTR _this$[ebp]
  00043	81 c1 84 11 00
	00		 add	 ecx, 4484		; 00001184H
  00049	e9 00 00 00 00	 jmp	 ??1AttackAttribute@@QAE@XZ
__unwindfunclet$??0ioLinearComboSkill2@@QAE@XZ$6:
  0004e	8b 4d e8	 mov	 ecx, DWORD PTR _this$[ebp]
  00051	81 c1 d4 11 00
	00		 add	 ecx, 4564		; 000011d4H
  00057	e9 00 00 00 00	 jmp	 ??1AttackAttribute@@QAE@XZ
__unwindfunclet$??0ioLinearComboSkill2@@QAE@XZ$7:
  0005c	8b 4d e8	 mov	 ecx, DWORD PTR _this$[ebp]
  0005f	81 c1 24 12 00
	00		 add	 ecx, 4644		; 00001224H
  00065	e9 00 00 00 00	 jmp	 ??1AttackAttribute@@QAE@XZ
__unwindfunclet$??0ioLinearComboSkill2@@QAE@XZ$8:
  0006a	8b 4d e8	 mov	 ecx, DWORD PTR _this$[ebp]
  0006d	81 c1 74 12 00
	00		 add	 ecx, 4724		; 00001274H
  00073	e9 00 00 00 00	 jmp	 ??1?$CEncrypt@_N@@UAE@XZ ; CEncrypt<bool>::~CEncrypt<bool>
__unwindfunclet$??0ioLinearComboSkill2@@QAE@XZ$9:
  00078	8b 4d e8	 mov	 ecx, DWORD PTR _this$[ebp]
  0007b	81 c1 a4 12 00
	00		 add	 ecx, 4772		; 000012a4H
  00081	e9 00 00 00 00	 jmp	 ??1?$CEncrypt@_N@@UAE@XZ ; CEncrypt<bool>::~CEncrypt<bool>
__unwindfunclet$??0ioLinearComboSkill2@@QAE@XZ$10:
  00086	8b 4d e8	 mov	 ecx, DWORD PTR _this$[ebp]
  00089	81 c1 d4 12 00
	00		 add	 ecx, 4820		; 000012d4H
  0008f	e9 00 00 00 00	 jmp	 ??1?$CEncrypt@_N@@UAE@XZ ; CEncrypt<bool>::~CEncrypt<bool>
__unwindfunclet$??0ioLinearComboSkill2@@QAE@XZ$11:
  00094	8b 4d e8	 mov	 ecx, DWORD PTR _this$[ebp]
  00097	81 c1 08 13 00
	00		 add	 ecx, 4872		; 00001308H
  0009d	e9 00 00 00 00	 jmp	 ??1AttackAttribute@@QAE@XZ
__unwindfunclet$??0ioLinearComboSkill2@@QAE@XZ$12:
  000a2	8b 4d e8	 mov	 ecx, DWORD PTR _this$[ebp]
  000a5	81 c1 58 13 00
	00		 add	 ecx, 4952		; 00001358H
  000ab	e9 00 00 00 00	 jmp	 ??1?$CEncrypt@H@@UAE@XZ	; CEncrypt<int>::~CEncrypt<int>
__unwindfunclet$??0ioLinearComboSkill2@@QAE@XZ$13:
  000b0	8b 4d e8	 mov	 ecx, DWORD PTR _this$[ebp]
  000b3	81 c1 88 13 00
	00		 add	 ecx, 5000		; 00001388H
  000b9	e9 00 00 00 00	 jmp	 ??1?$CEncrypt@H@@UAE@XZ	; CEncrypt<int>::~CEncrypt<int>
__unwindfunclet$??0ioLinearComboSkill2@@QAE@XZ$14:
  000be	8b 4d e8	 mov	 ecx, DWORD PTR _this$[ebp]
  000c1	81 c1 b8 13 00
	00		 add	 ecx, 5048		; 000013b8H
  000c7	ff 25 00 00 00
	00		 jmp	 DWORD PTR __imp_??1ioHashString@@QAE@XZ
__unwindfunclet$??0ioLinearComboSkill2@@QAE@XZ$15:
  000cd	8b 4d e8	 mov	 ecx, DWORD PTR _this$[ebp]
  000d0	81 c1 d0 13 00
	00		 add	 ecx, 5072		; 000013d0H
  000d6	ff 25 00 00 00
	00		 jmp	 DWORD PTR __imp_??1ioHashString@@QAE@XZ
__ehhandler$??0ioLinearComboSkill2@@QAE@XZ:
  000dc	8b 54 24 08	 mov	 edx, DWORD PTR [esp+8]
  000e0	8d 42 0c	 lea	 eax, DWORD PTR [edx+12]
  000e3	8b 4a e4	 mov	 ecx, DWORD PTR [edx-28]
  000e6	33 c8		 xor	 ecx, eax
  000e8	e8 00 00 00 00	 call	 @__security_check_cookie@4
  000ed	b8 00 00 00 00	 mov	 eax, OFFSET __ehfuncinfo$??0ioLinearComboSkill2@@QAE@XZ
  000f2	e9 00 00 00 00	 jmp	 ___CxxFrameHandler3
text$x	ENDS
??0ioLinearComboSkill2@@QAE@XZ ENDP			; ioLinearComboSkill2::ioLinearComboSkill2
; Function compile flags: /Ogsp
; File d:\lost saga for developer\youtube\tutorial\source\src\lsclient\ioskill.h
;	COMDAT ?GetDefenseSkillBreakeType@ioSkill@@UBE?AW4DefenseBreakType@@XZ
_TEXT	SEGMENT
?GetDefenseSkillBreakeType@ioSkill@@UBE?AW4DefenseBreakType@@XZ PROC ; ioSkill::GetDefenseSkillBreakeType, COMDAT
; _this$ = ecx

; 327  : 	virtual DefenseBreakType GetDefenseSkillBreakeType() const { return m_eDefenseSkillBreakType; }

  00000	8b 81 30 0e 00
	00		 mov	 eax, DWORD PTR [ecx+3632]
  00006	c3		 ret	 0
?GetDefenseSkillBreakeType@ioSkill@@UBE?AW4DefenseBreakType@@XZ ENDP ; ioSkill::GetDefenseSkillBreakeType
; Function compile flags: /Ogsp
_TEXT	ENDS
;	COMDAT ?GetSkillEndNextJumpAmt@ioSkill@@UBEMXZ
_TEXT	SEGMENT
?GetSkillEndNextJumpAmt@ioSkill@@UBEMXZ PROC		; ioSkill::GetSkillEndNextJumpAmt, COMDAT
; _this$ = ecx

; 335  : 	virtual float GetSkillEndNextJumpAmt() const { return m_fSkillEndNextJumpAmt; }

  00000	d9 81 4c 05 00
	00		 fld	 DWORD PTR [ecx+1356]
  00006	c3		 ret	 0
?GetSkillEndNextJumpAmt@ioSkill@@UBEMXZ ENDP		; ioSkill::GetSkillEndNextJumpAmt
; Function compile flags: /Ogsp
_TEXT	ENDS
;	COMDAT ?GetSkillEndNextLandRate@ioSkill@@UBEMXZ
_TEXT	SEGMENT
?GetSkillEndNextLandRate@ioSkill@@UBEMXZ PROC		; ioSkill::GetSkillEndNextLandRate, COMDAT
; _this$ = ecx

; 336  : 	virtual float GetSkillEndNextLandRate() const { return m_fSkillEndNextLandRate; }

  00000	d9 81 50 05 00
	00		 fld	 DWORD PTR [ecx+1360]
  00006	c3		 ret	 0
?GetSkillEndNextLandRate@ioSkill@@UBEMXZ ENDP		; ioSkill::GetSkillEndNextLandRate
; Function compile flags: /Ogsp
_TEXT	ENDS
;	COMDAT ?GetSkillEndNextJumpMustEnable@ioSkill@@UAE?AW4SkillEndJumpType@@XZ
_TEXT	SEGMENT
?GetSkillEndNextJumpMustEnable@ioSkill@@UAE?AW4SkillEndJumpType@@XZ PROC ; ioSkill::GetSkillEndNextJumpMustEnable, COMDAT
; _this$ = ecx

; 337  : 	virtual SkillEndJumpType GetSkillEndNextJumpMustEnable(){ return SEJT_DEFAULT; }

  00000	33 c0		 xor	 eax, eax
  00002	c3		 ret	 0
?GetSkillEndNextJumpMustEnable@ioSkill@@UAE?AW4SkillEndJumpType@@XZ ENDP ; ioSkill::GetSkillEndNextJumpMustEnable
; Function compile flags: /Ogsp
_TEXT	ENDS
;	COMDAT ?EnableChangeGrapplingTargetPos@ioSkill@@UBE_NXZ
_TEXT	SEGMENT
?EnableChangeGrapplingTargetPos@ioSkill@@UBE_NXZ PROC	; ioSkill::EnableChangeGrapplingTargetPos, COMDAT
; _this$ = ecx

; 355  : 	virtual bool EnableChangeGrapplingTargetPos() const { return m_bChangeGrapplingTargetPos; }

  00000	8a 81 40 09 00
	00		 mov	 al, BYTE PTR [ecx+2368]
  00006	c3		 ret	 0
?EnableChangeGrapplingTargetPos@ioSkill@@UBE_NXZ ENDP	; ioSkill::EnableChangeGrapplingTargetPos
; Function compile flags: /Ogsp
_TEXT	ENDS
;	COMDAT ?IsInvisibleBottomCircle@ioSkill@@UAE_NPAVioBaseChar@@@Z
_TEXT	SEGMENT
_pChar$ = 8						; size = 4
?IsInvisibleBottomCircle@ioSkill@@UAE_NPAVioBaseChar@@@Z PROC ; ioSkill::IsInvisibleBottomCircle, COMDAT
; _this$ = ecx

; 393  : 	virtual bool IsInvisibleBottomCircle( ioBaseChar *pChar ) { return false; }

  00000	32 c0		 xor	 al, al
  00002	c2 04 00	 ret	 4
?IsInvisibleBottomCircle@ioSkill@@UAE_NPAVioBaseChar@@@Z ENDP ; ioSkill::IsInvisibleBottomCircle
; Function compile flags: /Ogsp
_TEXT	ENDS
;	COMDAT ?IsUseActiveCnt@ioSkill@@UBE_NXZ
_TEXT	SEGMENT
?IsUseActiveCnt@ioSkill@@UBE_NXZ PROC			; ioSkill::IsUseActiveCnt, COMDAT
; _this$ = ecx

; 544  : 	virtual bool IsUseActiveCnt() const { return false; }

  00000	32 c0		 xor	 al, al
  00002	c3		 ret	 0
?IsUseActiveCnt@ioSkill@@UBE_NXZ ENDP			; ioSkill::IsUseActiveCnt
; Function compile flags: /Ogsp
_TEXT	ENDS
;	COMDAT ?GetMaxActiveCnt@ioSkill@@UBEHPAVioBaseChar@@@Z
_TEXT	SEGMENT
_pChar$ = 8						; size = 4
?GetMaxActiveCnt@ioSkill@@UBEHPAVioBaseChar@@@Z PROC	; ioSkill::GetMaxActiveCnt, COMDAT
; _this$ = ecx

; 545  : 	virtual int GetMaxActiveCnt( ioBaseChar *pChar ) const { return 0; }

  00000	33 c0		 xor	 eax, eax
  00002	c2 04 00	 ret	 4
?GetMaxActiveCnt@ioSkill@@UBEHPAVioBaseChar@@@Z ENDP	; ioSkill::GetMaxActiveCnt
; Function compile flags: /Ogsp
_TEXT	ENDS
;	COMDAT ?GetCurActiveCnt@ioSkill@@UBEHPAVioBaseChar@@@Z
_TEXT	SEGMENT
_pChar$ = 8						; size = 4
?GetCurActiveCnt@ioSkill@@UBEHPAVioBaseChar@@@Z PROC	; ioSkill::GetCurActiveCnt, COMDAT
; _this$ = ecx

; 546  : 	virtual int GetCurActiveCnt( ioBaseChar *pChar ) const { return 0; }

  00000	33 c0		 xor	 eax, eax
  00002	c2 04 00	 ret	 4
?GetCurActiveCnt@ioSkill@@UBEHPAVioBaseChar@@@Z ENDP	; ioSkill::GetCurActiveCnt
; Function compile flags: /Ogsp
_TEXT	ENDS
;	COMDAT ?IsCanJumpingSkill@ioSkill@@UBE_NXZ
_TEXT	SEGMENT
_value$621716 = -1					; size = 1
?IsCanJumpingSkill@ioSkill@@UBE_NXZ PROC		; ioSkill::IsCanJumpingSkill, COMDAT
; _this$ = ecx

; 431  : 	virtual bool IsCanJumpingSkill() const { return m_bEnableJumpingSkill; }

  00000	55		 push	 ebp
  00001	8b ec		 mov	 ebp, esp
  00003	51		 push	 ecx
  00004	8d 45 ff	 lea	 eax, DWORD PTR _value$621716[ebp]
  00007	50		 push	 eax
  00008	81 c1 9c 03 00
	00		 add	 ecx, 924		; 0000039cH
  0000e	e8 00 00 00 00	 call	 ?DecryptValueToPool@?$CEncrypt@_N@@QAEXPA_N@Z ; CEncrypt<bool>::DecryptValueToPool
  00013	8a 45 ff	 mov	 al, BYTE PTR _value$621716[ebp]
  00016	c9		 leave
  00017	c3		 ret	 0
?IsCanJumpingSkill@ioSkill@@UBE_NXZ ENDP		; ioSkill::IsCanJumpingSkill
; Function compile flags: /Ogsp
_TEXT	ENDS
;	COMDAT ?IsCanJumpingSkillOnBlowWound@ioSkill@@UBE_NXZ
_TEXT	SEGMENT
_value$621723 = -1					; size = 1
?IsCanJumpingSkillOnBlowWound@ioSkill@@UBE_NXZ PROC	; ioSkill::IsCanJumpingSkillOnBlowWound, COMDAT
; _this$ = ecx

; 432  : 	virtual bool IsCanJumpingSkillOnBlowWound() const { return m_bEnableJumpingSkillOnBlowWound; }

  00000	55		 push	 ebp
  00001	8b ec		 mov	 ebp, esp
  00003	51		 push	 ecx
  00004	8d 45 ff	 lea	 eax, DWORD PTR _value$621723[ebp]
  00007	50		 push	 eax
  00008	81 c1 cc 03 00
	00		 add	 ecx, 972		; 000003ccH
  0000e	e8 00 00 00 00	 call	 ?DecryptValueToPool@?$CEncrypt@_N@@QAEXPA_N@Z ; CEncrypt<bool>::DecryptValueToPool
  00013	8a 45 ff	 mov	 al, BYTE PTR _value$621723[ebp]
  00016	c9		 leave
  00017	c3		 ret	 0
?IsCanJumpingSkillOnBlowWound@ioSkill@@UBE_NXZ ENDP	; ioSkill::IsCanJumpingSkillOnBlowWound
; Function compile flags: /Ogsp
_TEXT	ENDS
;	COMDAT ?IsCanDownSkill@ioSkill@@UBE_NXZ
_TEXT	SEGMENT
_value$621730 = -1					; size = 1
?IsCanDownSkill@ioSkill@@UBE_NXZ PROC			; ioSkill::IsCanDownSkill, COMDAT
; _this$ = ecx

; 437  : 	virtual bool IsCanDownSkill() const { return m_bEnableDownSkill; }

  00000	55		 push	 ebp
  00001	8b ec		 mov	 ebp, esp
  00003	51		 push	 ecx
  00004	8d 45 ff	 lea	 eax, DWORD PTR _value$621730[ebp]
  00007	50		 push	 eax
  00008	81 c1 5c 04 00
	00		 add	 ecx, 1116		; 0000045cH
  0000e	e8 00 00 00 00	 call	 ?DecryptValueToPool@?$CEncrypt@_N@@QAEXPA_N@Z ; CEncrypt<bool>::DecryptValueToPool
  00013	8a 45 ff	 mov	 al, BYTE PTR _value$621730[ebp]
  00016	c9		 leave
  00017	c3		 ret	 0
?IsCanDownSkill@ioSkill@@UBE_NXZ ENDP			; ioSkill::IsCanDownSkill
; Function compile flags: /Ogsp
_TEXT	ENDS
;	COMDAT ?IsCanBlowWoundSkill@ioSkill@@UBE_NXZ
_TEXT	SEGMENT
_value$621737 = -1					; size = 1
?IsCanBlowWoundSkill@ioSkill@@UBE_NXZ PROC		; ioSkill::IsCanBlowWoundSkill, COMDAT
; _this$ = ecx

; 440  : 	virtual bool IsCanBlowWoundSkill() const { return m_bEnableBlowWoundSkill; }

  00000	55		 push	 ebp
  00001	8b ec		 mov	 ebp, esp
  00003	51		 push	 ecx
  00004	8d 45 ff	 lea	 eax, DWORD PTR _value$621737[ebp]
  00007	50		 push	 eax
  00008	81 c1 8c 04 00
	00		 add	 ecx, 1164		; 0000048cH
  0000e	e8 00 00 00 00	 call	 ?DecryptValueToPool@?$CEncrypt@_N@@QAEXPA_N@Z ; CEncrypt<bool>::DecryptValueToPool
  00013	8a 45 ff	 mov	 al, BYTE PTR _value$621737[ebp]
  00016	c9		 leave
  00017	c3		 ret	 0
?IsCanBlowWoundSkill@ioSkill@@UBE_NXZ ENDP		; ioSkill::IsCanBlowWoundSkill
; Function compile flags: /Ogsp
_TEXT	ENDS
;	COMDAT ?IsCanWoundSkill@ioSkill@@UBE_NXZ
_TEXT	SEGMENT
_value$621744 = -1					; size = 1
?IsCanWoundSkill@ioSkill@@UBE_NXZ PROC			; ioSkill::IsCanWoundSkill, COMDAT
; _this$ = ecx

; 446  : 	virtual bool IsCanWoundSkill() const { return m_bEnableWoundSkill; }

  00000	55		 push	 ebp
  00001	8b ec		 mov	 ebp, esp
  00003	51		 push	 ecx
  00004	8d 45 ff	 lea	 eax, DWORD PTR _value$621744[ebp]
  00007	50		 push	 eax
  00008	81 c1 54 05 00
	00		 add	 ecx, 1364		; 00000554H
  0000e	e8 00 00 00 00	 call	 ?DecryptValueToPool@?$CEncrypt@_N@@QAEXPA_N@Z ; CEncrypt<bool>::DecryptValueToPool
  00013	8a 45 ff	 mov	 al, BYTE PTR _value$621744[ebp]
  00016	c9		 leave
  00017	c3		 ret	 0
?IsCanWoundSkill@ioSkill@@UBE_NXZ ENDP			; ioSkill::IsCanWoundSkill
_TEXT	ENDS
PUBLIC	??0ioLinearComboSkill2@@QAE@ABV0@@Z		; ioLinearComboSkill2::ioLinearComboSkill2
EXTRN	??0ioAttackSkill@@QAE@ABV0@@Z:PROC		; ioAttackSkill::ioAttackSkill
;	COMDAT xdata$x
; File d:\lost saga for developer\youtube\tutorial\source\src\lsclient\encryptvalue.h
xdata$x	SEGMENT
__ehfuncinfo$??0ioLinearComboSkill2@@QAE@ABV0@@Z DD 019930522H
	DD	010H
	DD	FLAT:__unwindtable$??0ioLinearComboSkill2@@QAE@ABV0@@Z
	DD	2 DUP(00H)
	DD	2 DUP(00H)
	DD	00H
	DD	01H
__unwindtable$??0ioLinearComboSkill2@@QAE@ABV0@@Z DD 0ffffffffH
	DD	FLAT:__unwindfunclet$??0ioLinearComboSkill2@@QAE@ABV0@@Z$0
	DD	00H
	DD	FLAT:__unwindfunclet$??0ioLinearComboSkill2@@QAE@ABV0@@Z$1
	DD	01H
	DD	FLAT:__unwindfunclet$??0ioLinearComboSkill2@@QAE@ABV0@@Z$2
	DD	02H
	DD	FLAT:__unwindfunclet$??0ioLinearComboSkill2@@QAE@ABV0@@Z$3
	DD	03H
	DD	FLAT:__unwindfunclet$??0ioLinearComboSkill2@@QAE@ABV0@@Z$4
	DD	04H
	DD	FLAT:__unwindfunclet$??0ioLinearComboSkill2@@QAE@ABV0@@Z$5
	DD	05H
	DD	FLAT:__unwindfunclet$??0ioLinearComboSkill2@@QAE@ABV0@@Z$6
	DD	06H
	DD	FLAT:__unwindfunclet$??0ioLinearComboSkill2@@QAE@ABV0@@Z$7
	DD	07H
	DD	FLAT:__unwindfunclet$??0ioLinearComboSkill2@@QAE@ABV0@@Z$8
	DD	08H
	DD	FLAT:__unwindfunclet$??0ioLinearComboSkill2@@QAE@ABV0@@Z$9
	DD	09H
	DD	FLAT:__unwindfunclet$??0ioLinearComboSkill2@@QAE@ABV0@@Z$10
	DD	0aH
	DD	FLAT:__unwindfunclet$??0ioLinearComboSkill2@@QAE@ABV0@@Z$11
	DD	0bH
	DD	FLAT:__unwindfunclet$??0ioLinearComboSkill2@@QAE@ABV0@@Z$12
	DD	0cH
	DD	FLAT:__unwindfunclet$??0ioLinearComboSkill2@@QAE@ABV0@@Z$13
	DD	0dH
	DD	FLAT:__unwindfunclet$??0ioLinearComboSkill2@@QAE@ABV0@@Z$14
	DD	0eH
	DD	FLAT:__unwindfunclet$??0ioLinearComboSkill2@@QAE@ABV0@@Z$15
; Function compile flags: /Ogsp
; File d:\lost saga for developer\youtube\tutorial\source\src\lsclient\iolinearcomboskill2.cpp
xdata$x	ENDS
;	COMDAT ??0ioLinearComboSkill2@@QAE@ABV0@@Z
_TEXT	SEGMENT
_this$ = -16						; size = 4
__$EHRec$ = -12						; size = 12
_value$621775 = 8					; size = 4
_rhs$ = 8						; size = 4
_value$621771 = 11					; size = 1
_value$621767 = 11					; size = 1
??0ioLinearComboSkill2@@QAE@ABV0@@Z PROC		; ioLinearComboSkill2::ioLinearComboSkill2, COMDAT
; _this$ = ecx

; 59   : {

  00000	6a 04		 push	 4
  00002	b8 00 00 00 00	 mov	 eax, __ehhandler$??0ioLinearComboSkill2@@QAE@ABV0@@Z
  00007	e8 00 00 00 00	 call	 __EH_prolog3
  0000c	8b f1		 mov	 esi, ecx
  0000e	89 75 f0	 mov	 DWORD PTR _this$[ebp], esi
  00011	8b 7d 08	 mov	 edi, DWORD PTR _rhs$[ebp]
  00014	57		 push	 edi
  00015	e8 00 00 00 00	 call	 ??0ioAttackSkill@@QAE@ABV0@@Z ; ioAttackSkill::ioAttackSkill
  0001a	8d 87 e8 10 00
	00		 lea	 eax, DWORD PTR [edi+4328]
  00020	33 db		 xor	 ebx, ebx
  00022	50		 push	 eax
  00023	8d 8e e8 10 00
	00		 lea	 ecx, DWORD PTR [esi+4328]
  00029	89 5d fc	 mov	 DWORD PTR __$EHRec$[ebp+8], ebx
  0002c	c7 06 00 00 00
	00		 mov	 DWORD PTR [esi], OFFSET ??_7ioLinearComboSkill2@@6B@
  00032	e8 00 00 00 00	 call	 ??0?$vector@UAttackAttribute@@V?$allocator@UAttackAttribute@@@std@@@std@@QAE@ABV01@@Z ; std::vector<AttackAttribute,std::allocator<AttackAttribute> >::vector<AttackAttribute,std::allocator<AttackAttribute> >
  00037	8d 87 f8 10 00
	00		 lea	 eax, DWORD PTR [edi+4344]
  0003d	50		 push	 eax
  0003e	8d 8e f8 10 00
	00		 lea	 ecx, DWORD PTR [esi+4344]
  00044	c6 45 fc 01	 mov	 BYTE PTR __$EHRec$[ebp+8], 1
  00048	e8 00 00 00 00	 call	 ??0?$vector@UAttackAttribute@@V?$allocator@UAttackAttribute@@@std@@@std@@QAE@ABV01@@Z ; std::vector<AttackAttribute,std::allocator<AttackAttribute> >::vector<AttackAttribute,std::allocator<AttackAttribute> >
  0004d	8d 87 08 11 00
	00		 lea	 eax, DWORD PTR [edi+4360]
  00053	50		 push	 eax
  00054	8d 8e 08 11 00
	00		 lea	 ecx, DWORD PTR [esi+4360]
  0005a	c6 45 fc 02	 mov	 BYTE PTR __$EHRec$[ebp+8], 2
  0005e	e8 00 00 00 00	 call	 ??0?$vector@UAttackAttribute@@V?$allocator@UAttackAttribute@@@std@@@std@@QAE@ABV01@@Z ; std::vector<AttackAttribute,std::allocator<AttackAttribute> >::vector<AttackAttribute,std::allocator<AttackAttribute> >
  00063	8d 87 18 11 00
	00		 lea	 eax, DWORD PTR [edi+4376]
  00069	50		 push	 eax
  0006a	8d 8e 18 11 00
	00		 lea	 ecx, DWORD PTR [esi+4376]
  00070	c6 45 fc 03	 mov	 BYTE PTR __$EHRec$[ebp+8], 3
  00074	e8 00 00 00 00	 call	 ??0AttackAttribute@@QAE@ABU0@@Z
  00079	8b 87 70 11 00
	00		 mov	 eax, DWORD PTR [edi+4464]
  0007f	89 86 70 11 00
	00		 mov	 DWORD PTR [esi+4464], eax
  00085	8a 87 78 11 00
	00		 mov	 al, BYTE PTR [edi+4472]
  0008b	88 86 78 11 00
	00		 mov	 BYTE PTR [esi+4472], al
  00091	8b 87 7c 11 00
	00		 mov	 eax, DWORD PTR [edi+4476]
  00097	89 86 7c 11 00
	00		 mov	 DWORD PTR [esi+4476], eax
  0009d	8a 87 80 11 00
	00		 mov	 al, BYTE PTR [edi+4480]
  000a3	88 86 80 11 00
	00		 mov	 BYTE PTR [esi+4480], al
  000a9	8d 87 84 11 00
	00		 lea	 eax, DWORD PTR [edi+4484]
  000af	50		 push	 eax
  000b0	8d 8e 84 11 00
	00		 lea	 ecx, DWORD PTR [esi+4484]
  000b6	c6 45 fc 04	 mov	 BYTE PTR __$EHRec$[ebp+8], 4
  000ba	e8 00 00 00 00	 call	 ??0AttackAttribute@@QAE@ABU0@@Z
  000bf	8d 87 d4 11 00
	00		 lea	 eax, DWORD PTR [edi+4564]
  000c5	50		 push	 eax
  000c6	8d 8e d4 11 00
	00		 lea	 ecx, DWORD PTR [esi+4564]
  000cc	c6 45 fc 05	 mov	 BYTE PTR __$EHRec$[ebp+8], 5
  000d0	e8 00 00 00 00	 call	 ??0AttackAttribute@@QAE@ABU0@@Z
  000d5	8d 87 24 12 00
	00		 lea	 eax, DWORD PTR [edi+4644]
  000db	50		 push	 eax
  000dc	8d 8e 24 12 00
	00		 lea	 ecx, DWORD PTR [esi+4644]
  000e2	c6 45 fc 06	 mov	 BYTE PTR __$EHRec$[ebp+8], 6
  000e6	e8 00 00 00 00	 call	 ??0AttackAttribute@@QAE@ABU0@@Z
  000eb	8d 87 74 12 00
	00		 lea	 eax, DWORD PTR [edi+4724]
  000f1	50		 push	 eax
  000f2	8d 8e 74 12 00
	00		 lea	 ecx, DWORD PTR [esi+4724]
  000f8	c6 45 fc 07	 mov	 BYTE PTR __$EHRec$[ebp+8], 7
  000fc	e8 00 00 00 00	 call	 ??0?$CEncrypt@_N@@QAE@ABV0@@Z ; CEncrypt<bool>::CEncrypt<bool>
  00101	8d 8e a4 12 00
	00		 lea	 ecx, DWORD PTR [esi+4772]
  00107	c6 45 fc 08	 mov	 BYTE PTR __$EHRec$[ebp+8], 8
  0010b	e8 00 00 00 00	 call	 ??0?$CEncrypt@_N@@QAE@XZ ; CEncrypt<bool>::CEncrypt<bool>
  00110	8d 8e d4 12 00
	00		 lea	 ecx, DWORD PTR [esi+4820]
  00116	c6 45 fc 09	 mov	 BYTE PTR __$EHRec$[ebp+8], 9
  0011a	e8 00 00 00 00	 call	 ??0?$CEncrypt@_N@@QAE@XZ ; CEncrypt<bool>::CEncrypt<bool>
  0011f	8d 87 08 13 00
	00		 lea	 eax, DWORD PTR [edi+4872]
  00125	50		 push	 eax
  00126	8d 8e 08 13 00
	00		 lea	 ecx, DWORD PTR [esi+4872]
  0012c	c6 45 fc 0a	 mov	 BYTE PTR __$EHRec$[ebp+8], 10 ; 0000000aH
  00130	e8 00 00 00 00	 call	 ??0AttackAttribute@@QAE@ABU0@@Z
  00135	8d 87 58 13 00
	00		 lea	 eax, DWORD PTR [edi+4952]
  0013b	50		 push	 eax
  0013c	8d 8e 58 13 00
	00		 lea	 ecx, DWORD PTR [esi+4952]
  00142	c6 45 fc 0b	 mov	 BYTE PTR __$EHRec$[ebp+8], 11 ; 0000000bH
  00146	e8 00 00 00 00	 call	 ??0?$CEncrypt@H@@QAE@ABV0@@Z ; CEncrypt<int>::CEncrypt<int>
  0014b	8d 8e 88 13 00
	00		 lea	 ecx, DWORD PTR [esi+5000]
  00151	c6 45 fc 0c	 mov	 BYTE PTR __$EHRec$[ebp+8], 12 ; 0000000cH
  00155	e8 00 00 00 00	 call	 ??0?$CEncrypt@H@@QAE@XZ	; CEncrypt<int>::CEncrypt<int>
  0015a	8d 8e b8 13 00
	00		 lea	 ecx, DWORD PTR [esi+5048]
  00160	c6 45 fc 0d	 mov	 BYTE PTR __$EHRec$[ebp+8], 13 ; 0000000dH
  00164	ff 15 00 00 00
	00		 call	 DWORD PTR __imp_??0ioHashString@@QAE@XZ
  0016a	8a 87 c8 13 00
	00		 mov	 al, BYTE PTR [edi+5064]
  00170	88 86 c8 13 00
	00		 mov	 BYTE PTR [esi+5064], al
  00176	8a 87 c9 13 00
	00		 mov	 al, BYTE PTR [edi+5065]
  0017c	88 86 c9 13 00
	00		 mov	 BYTE PTR [esi+5065], al
  00182	8a 87 ca 13 00
	00		 mov	 al, BYTE PTR [edi+5066]
  00188	88 86 ca 13 00
	00		 mov	 BYTE PTR [esi+5066], al
  0018e	8d 87 d0 13 00
	00		 lea	 eax, DWORD PTR [edi+5072]
  00194	50		 push	 eax
  00195	8d 8e d0 13 00
	00		 lea	 ecx, DWORD PTR [esi+5072]
  0019b	c6 45 fc 0e	 mov	 BYTE PTR __$EHRec$[ebp+8], 14 ; 0000000eH
  0019f	ff 15 00 00 00
	00		 call	 DWORD PTR __imp_??0ioHashString@@QAE@ABV0@@Z
  001a5	d9 87 e0 13 00
	00		 fld	 DWORD PTR [edi+5088]
  001ab	d9 9e e0 13 00
	00		 fstp	 DWORD PTR [esi+5088]
  001b1	8a 87 e4 13 00
	00		 mov	 al, BYTE PTR [edi+5092]
  001b7	88 86 e4 13 00
	00		 mov	 BYTE PTR [esi+5092], al
  001bd	8b 87 ec 13 00
	00		 mov	 eax, DWORD PTR [edi+5100]
  001c3	89 86 ec 13 00
	00		 mov	 DWORD PTR [esi+5100], eax

; 60   : 	m_SkillState = SS_NONE;
; 61   : 	m_bSetHandMesh = false;
; 62   : 	m_bUsedEndOtherAttack = false;
; 63   : 
; 64   : 	m_iCurLinearCombo = 0;
; 65   : 	m_dwNextComboTime = 0;
; 66   : 	m_dwCurSkillProtectTime = 0;
; 67   : 
; 68   : 	m_bUsedComboList = false;

  001c9	8d 45 0b	 lea	 eax, DWORD PTR _value$621767[ebp]
  001cc	50		 push	 eax
  001cd	8d 8e a4 12 00
	00		 lea	 ecx, DWORD PTR [esi+4772]
  001d3	c6 45 fc 0f	 mov	 BYTE PTR __$EHRec$[ebp+8], 15 ; 0000000fH
  001d7	89 9e e4 10 00
	00		 mov	 DWORD PTR [esi+4324], ebx
  001dd	88 9e 0a 0f 00
	00		 mov	 BYTE PTR [esi+3850], bl
  001e3	88 9e 81 11 00
	00		 mov	 BYTE PTR [esi+4481], bl
  001e9	89 9e 68 11 00
	00		 mov	 DWORD PTR [esi+4456], ebx
  001ef	89 9e 6c 11 00
	00		 mov	 DWORD PTR [esi+4460], ebx
  001f5	89 9e 74 11 00
	00		 mov	 DWORD PTR [esi+4468], ebx
  001fb	88 5d 0b	 mov	 BYTE PTR _value$621767[ebp], bl
  001fe	e8 00 00 00 00	 call	 ?EncryptValueToPool@?$CEncrypt@_N@@AAEXPBD@Z ; CEncrypt<bool>::EncryptValueToPool

; 69   : 	m_bSetAttackFire = false;

  00203	8d 45 0b	 lea	 eax, DWORD PTR _value$621771[ebp]
  00206	50		 push	 eax
  00207	8d 8e d4 12 00
	00		 lea	 ecx, DWORD PTR [esi+4820]
  0020d	88 5d 0b	 mov	 BYTE PTR _value$621771[ebp], bl
  00210	e8 00 00 00 00	 call	 ?EncryptValueToPool@?$CEncrypt@_N@@AAEXPBD@Z ; CEncrypt<bool>::EncryptValueToPool

; 70   : 
; 71   : 	m_CurDirKey = ioUserKeyInput::DKI_NONE;
; 72   : 	m_iCurRetreatCnt = 0;

  00215	8d 45 08	 lea	 eax, DWORD PTR _value$621775[ebp]
  00218	50		 push	 eax
  00219	8d 8e 88 13 00
	00		 lea	 ecx, DWORD PTR [esi+5000]
  0021f	89 9e 04 13 00
	00		 mov	 DWORD PTR [esi+4868], ebx
  00225	89 5d 08	 mov	 DWORD PTR _value$621775[ebp], ebx
  00228	e8 00 00 00 00	 call	 ?EncryptValueToPool@?$CEncrypt@H@@AAEXPBD@Z ; CEncrypt<int>::EncryptValueToPool

; 73   : 
; 74   : 	m_dwAreMapEffectID = -1;

  0022d	83 8e cc 13 00
	00 ff		 or	 DWORD PTR [esi+5068], -1

; 75   : 
; 76   : 	m_nCurEndCombo = 0;

  00234	89 9e e8 13 00
	00		 mov	 DWORD PTR [esi+5096], ebx

; 77   : }

  0023a	8b c6		 mov	 eax, esi
  0023c	e8 00 00 00 00	 call	 __EH_epilog3
  00241	c2 04 00	 ret	 4
_TEXT	ENDS
;	COMDAT text$x
text$x	SEGMENT
__unwindfunclet$??0ioLinearComboSkill2@@QAE@ABV0@@Z$0:
  00000	8b 4d f0	 mov	 ecx, DWORD PTR _this$[ebp]
  00003	e9 00 00 00 00	 jmp	 ??1ioAttackSkill@@UAE@XZ ; ioAttackSkill::~ioAttackSkill
__unwindfunclet$??0ioLinearComboSkill2@@QAE@ABV0@@Z$1:
  00008	8b 4d f0	 mov	 ecx, DWORD PTR _this$[ebp]
  0000b	81 c1 e8 10 00
	00		 add	 ecx, 4328		; 000010e8H
  00011	e9 00 00 00 00	 jmp	 ??1?$vector@UAttackAttribute@@V?$allocator@UAttackAttribute@@@std@@@std@@QAE@XZ ; std::vector<AttackAttribute,std::allocator<AttackAttribute> >::~vector<AttackAttribute,std::allocator<AttackAttribute> >
__unwindfunclet$??0ioLinearComboSkill2@@QAE@ABV0@@Z$2:
  00016	8b 4d f0	 mov	 ecx, DWORD PTR _this$[ebp]
  00019	81 c1 f8 10 00
	00		 add	 ecx, 4344		; 000010f8H
  0001f	e9 00 00 00 00	 jmp	 ??1?$vector@UAttackAttribute@@V?$allocator@UAttackAttribute@@@std@@@std@@QAE@XZ ; std::vector<AttackAttribute,std::allocator<AttackAttribute> >::~vector<AttackAttribute,std::allocator<AttackAttribute> >
__unwindfunclet$??0ioLinearComboSkill2@@QAE@ABV0@@Z$3:
  00024	8b 4d f0	 mov	 ecx, DWORD PTR _this$[ebp]
  00027	81 c1 08 11 00
	00		 add	 ecx, 4360		; 00001108H
  0002d	e9 00 00 00 00	 jmp	 ??1?$vector@UAttackAttribute@@V?$allocator@UAttackAttribute@@@std@@@std@@QAE@XZ ; std::vector<AttackAttribute,std::allocator<AttackAttribute> >::~vector<AttackAttribute,std::allocator<AttackAttribute> >
__unwindfunclet$??0ioLinearComboSkill2@@QAE@ABV0@@Z$4:
  00032	8b 4d f0	 mov	 ecx, DWORD PTR _this$[ebp]
  00035	81 c1 18 11 00
	00		 add	 ecx, 4376		; 00001118H
  0003b	e9 00 00 00 00	 jmp	 ??1AttackAttribute@@QAE@XZ
__unwindfunclet$??0ioLinearComboSkill2@@QAE@ABV0@@Z$5:
  00040	8b 4d f0	 mov	 ecx, DWORD PTR _this$[ebp]
  00043	81 c1 84 11 00
	00		 add	 ecx, 4484		; 00001184H
  00049	e9 00 00 00 00	 jmp	 ??1AttackAttribute@@QAE@XZ
__unwindfunclet$??0ioLinearComboSkill2@@QAE@ABV0@@Z$6:
  0004e	8b 4d f0	 mov	 ecx, DWORD PTR _this$[ebp]
  00051	81 c1 d4 11 00
	00		 add	 ecx, 4564		; 000011d4H
  00057	e9 00 00 00 00	 jmp	 ??1AttackAttribute@@QAE@XZ
__unwindfunclet$??0ioLinearComboSkill2@@QAE@ABV0@@Z$7:
  0005c	8b 4d f0	 mov	 ecx, DWORD PTR _this$[ebp]
  0005f	81 c1 24 12 00
	00		 add	 ecx, 4644		; 00001224H
  00065	e9 00 00 00 00	 jmp	 ??1AttackAttribute@@QAE@XZ
__unwindfunclet$??0ioLinearComboSkill2@@QAE@ABV0@@Z$8:
  0006a	8b 4d f0	 mov	 ecx, DWORD PTR _this$[ebp]
  0006d	81 c1 74 12 00
	00		 add	 ecx, 4724		; 00001274H
  00073	e9 00 00 00 00	 jmp	 ??1?$CEncrypt@_N@@UAE@XZ ; CEncrypt<bool>::~CEncrypt<bool>
__unwindfunclet$??0ioLinearComboSkill2@@QAE@ABV0@@Z$9:
  00078	8b 4d f0	 mov	 ecx, DWORD PTR _this$[ebp]
  0007b	81 c1 a4 12 00
	00		 add	 ecx, 4772		; 000012a4H
  00081	e9 00 00 00 00	 jmp	 ??1?$CEncrypt@_N@@UAE@XZ ; CEncrypt<bool>::~CEncrypt<bool>
__unwindfunclet$??0ioLinearComboSkill2@@QAE@ABV0@@Z$10:
  00086	8b 4d f0	 mov	 ecx, DWORD PTR _this$[ebp]
  00089	81 c1 d4 12 00
	00		 add	 ecx, 4820		; 000012d4H
  0008f	e9 00 00 00 00	 jmp	 ??1?$CEncrypt@_N@@UAE@XZ ; CEncrypt<bool>::~CEncrypt<bool>
__unwindfunclet$??0ioLinearComboSkill2@@QAE@ABV0@@Z$11:
  00094	8b 4d f0	 mov	 ecx, DWORD PTR _this$[ebp]
  00097	81 c1 08 13 00
	00		 add	 ecx, 4872		; 00001308H
  0009d	e9 00 00 00 00	 jmp	 ??1AttackAttribute@@QAE@XZ
__unwindfunclet$??0ioLinearComboSkill2@@QAE@ABV0@@Z$12:
  000a2	8b 4d f0	 mov	 ecx, DWORD PTR _this$[ebp]
  000a5	81 c1 58 13 00
	00		 add	 ecx, 4952		; 00001358H
  000ab	e9 00 00 00 00	 jmp	 ??1?$CEncrypt@H@@UAE@XZ	; CEncrypt<int>::~CEncrypt<int>
__unwindfunclet$??0ioLinearComboSkill2@@QAE@ABV0@@Z$13:
  000b0	8b 4d f0	 mov	 ecx, DWORD PTR _this$[ebp]
  000b3	81 c1 88 13 00
	00		 add	 ecx, 5000		; 00001388H
  000b9	e9 00 00 00 00	 jmp	 ??1?$CEncrypt@H@@UAE@XZ	; CEncrypt<int>::~CEncrypt<int>
__unwindfunclet$??0ioLinearComboSkill2@@QAE@ABV0@@Z$14:
  000be	8b 4d f0	 mov	 ecx, DWORD PTR _this$[ebp]
  000c1	81 c1 b8 13 00
	00		 add	 ecx, 5048		; 000013b8H
  000c7	ff 25 00 00 00
	00		 jmp	 DWORD PTR __imp_??1ioHashString@@QAE@XZ
__unwindfunclet$??0ioLinearComboSkill2@@QAE@ABV0@@Z$15:
  000cd	8b 4d f0	 mov	 ecx, DWORD PTR _this$[ebp]
  000d0	81 c1 d0 13 00
	00		 add	 ecx, 5072		; 000013d0H
  000d6	ff 25 00 00 00
	00		 jmp	 DWORD PTR __imp_??1ioHashString@@QAE@XZ
__ehhandler$??0ioLinearComboSkill2@@QAE@ABV0@@Z:
  000dc	8b 54 24 08	 mov	 edx, DWORD PTR [esp+8]
  000e0	8d 42 0c	 lea	 eax, DWORD PTR [edx+12]
  000e3	8b 4a ec	 mov	 ecx, DWORD PTR [edx-20]
  000e6	33 c8		 xor	 ecx, eax
  000e8	e8 00 00 00 00	 call	 @__security_check_cookie@4
  000ed	b8 00 00 00 00	 mov	 eax, OFFSET __ehfuncinfo$??0ioLinearComboSkill2@@QAE@ABV0@@Z
  000f2	e9 00 00 00 00	 jmp	 ___CxxFrameHandler3
text$x	ENDS
??0ioLinearComboSkill2@@QAE@ABV0@@Z ENDP		; ioLinearComboSkill2::ioLinearComboSkill2
PUBLIC	??1ioLinearComboSkill2@@UAE@XZ			; ioLinearComboSkill2::~ioLinearComboSkill2
;	COMDAT xdata$x
; File c:\program files (x86)\microsoft visual studio 10.0\vc\include\vector
xdata$x	SEGMENT
__ehfuncinfo$??1ioLinearComboSkill2@@UAE@XZ DD 019930522H
	DD	0fH
	DD	FLAT:__unwindtable$??1ioLinearComboSkill2@@UAE@XZ
	DD	2 DUP(00H)
	DD	2 DUP(00H)
	DD	00H
	DD	01H
__unwindtable$??1ioLinearComboSkill2@@UAE@XZ DD 0ffffffffH
	DD	FLAT:__unwindfunclet$??1ioLinearComboSkill2@@UAE@XZ$0
	DD	00H
	DD	FLAT:__unwindfunclet$??1ioLinearComboSkill2@@UAE@XZ$1
	DD	01H
	DD	FLAT:__unwindfunclet$??1ioLinearComboSkill2@@UAE@XZ$2
	DD	02H
	DD	FLAT:__unwindfunclet$??1ioLinearComboSkill2@@UAE@XZ$3
	DD	03H
	DD	FLAT:__unwindfunclet$??1ioLinearComboSkill2@@UAE@XZ$4
	DD	04H
	DD	FLAT:__unwindfunclet$??1ioLinearComboSkill2@@UAE@XZ$5
	DD	05H
	DD	FLAT:__unwindfunclet$??1ioLinearComboSkill2@@UAE@XZ$6
	DD	06H
	DD	FLAT:__unwindfunclet$??1ioLinearComboSkill2@@UAE@XZ$7
	DD	07H
	DD	FLAT:__unwindfunclet$??1ioLinearComboSkill2@@UAE@XZ$8
	DD	08H
	DD	FLAT:__unwindfunclet$??1ioLinearComboSkill2@@UAE@XZ$9
	DD	09H
	DD	FLAT:__unwindfunclet$??1ioLinearComboSkill2@@UAE@XZ$10
	DD	0aH
	DD	FLAT:__unwindfunclet$??1ioLinearComboSkill2@@UAE@XZ$11
	DD	0bH
	DD	FLAT:__unwindfunclet$??1ioLinearComboSkill2@@UAE@XZ$12
	DD	0cH
	DD	FLAT:__unwindfunclet$??1ioLinearComboSkill2@@UAE@XZ$13
	DD	0dH
	DD	FLAT:__unwindfunclet$??1ioLinearComboSkill2@@UAE@XZ$14
; Function compile flags: /Ogsp
; File d:\lost saga for developer\youtube\tutorial\source\src\lsclient\iolinearcomboskill2.cpp
xdata$x	ENDS
;	COMDAT ??1ioLinearComboSkill2@@UAE@XZ
_TEXT	SEGMENT
_this$ = -16						; size = 4
__$EHRec$ = -12						; size = 12
??1ioLinearComboSkill2@@UAE@XZ PROC			; ioLinearComboSkill2::~ioLinearComboSkill2, COMDAT
; _this$ = ecx

; 80   : {

  00000	6a 04		 push	 4
  00002	b8 00 00 00 00	 mov	 eax, __ehhandler$??1ioLinearComboSkill2@@UAE@XZ
  00007	e8 00 00 00 00	 call	 __EH_prolog3
  0000c	8b f1		 mov	 esi, ecx
  0000e	89 75 f0	 mov	 DWORD PTR _this$[ebp], esi
  00011	c7 06 00 00 00
	00		 mov	 DWORD PTR [esi], OFFSET ??_7ioLinearComboSkill2@@6B@

; 81   : }

  00017	8b 3d 00 00 00
	00		 mov	 edi, DWORD PTR __imp_??1ioHashString@@QAE@XZ
  0001d	8d 8e d0 13 00
	00		 lea	 ecx, DWORD PTR [esi+5072]
  00023	c7 45 fc 0e 00
	00 00		 mov	 DWORD PTR __$EHRec$[ebp+8], 14 ; 0000000eH
  0002a	ff d7		 call	 edi
  0002c	8d 8e b8 13 00
	00		 lea	 ecx, DWORD PTR [esi+5048]
  00032	c6 45 fc 0d	 mov	 BYTE PTR __$EHRec$[ebp+8], 13 ; 0000000dH
  00036	ff d7		 call	 edi
  00038	bf 00 00 00 00	 mov	 edi, OFFSET ??_7?$CEncrypt@H@@6B@
  0003d	8d 8e 94 13 00
	00		 lea	 ecx, DWORD PTR [esi+5012]
  00043	c6 45 fc 0c	 mov	 BYTE PTR __$EHRec$[ebp+8], 12 ; 0000000cH
  00047	89 be 88 13 00
	00		 mov	 DWORD PTR [esi+5000], edi
  0004d	e8 00 00 00 00	 call	 ??1ccddaabb@@UAE@XZ	; ccddaabb::~ccddaabb
  00052	8d 8e 64 13 00
	00		 lea	 ecx, DWORD PTR [esi+4964]
  00058	c6 45 fc 0b	 mov	 BYTE PTR __$EHRec$[ebp+8], 11 ; 0000000bH
  0005c	89 be 58 13 00
	00		 mov	 DWORD PTR [esi+4952], edi
  00062	e8 00 00 00 00	 call	 ??1ccddaabb@@UAE@XZ	; ccddaabb::~ccddaabb
  00067	8d 8e 08 13 00
	00		 lea	 ecx, DWORD PTR [esi+4872]
  0006d	c6 45 fc 0a	 mov	 BYTE PTR __$EHRec$[ebp+8], 10 ; 0000000aH
  00071	e8 00 00 00 00	 call	 ??1AttackAttribute@@QAE@XZ
  00076	bf 00 00 00 00	 mov	 edi, OFFSET ??_7?$CEncrypt@_N@@6B@
  0007b	8d 8e e0 12 00
	00		 lea	 ecx, DWORD PTR [esi+4832]
  00081	c6 45 fc 09	 mov	 BYTE PTR __$EHRec$[ebp+8], 9
  00085	89 be d4 12 00
	00		 mov	 DWORD PTR [esi+4820], edi
  0008b	e8 00 00 00 00	 call	 ??1ccddaabb@@UAE@XZ	; ccddaabb::~ccddaabb
  00090	8d 8e b0 12 00
	00		 lea	 ecx, DWORD PTR [esi+4784]
  00096	c6 45 fc 08	 mov	 BYTE PTR __$EHRec$[ebp+8], 8
  0009a	89 be a4 12 00
	00		 mov	 DWORD PTR [esi+4772], edi
  000a0	e8 00 00 00 00	 call	 ??1ccddaabb@@UAE@XZ	; ccddaabb::~ccddaabb
  000a5	8d 8e 80 12 00
	00		 lea	 ecx, DWORD PTR [esi+4736]
  000ab	c6 45 fc 07	 mov	 BYTE PTR __$EHRec$[ebp+8], 7
  000af	89 be 74 12 00
	00		 mov	 DWORD PTR [esi+4724], edi
  000b5	e8 00 00 00 00	 call	 ??1ccddaabb@@UAE@XZ	; ccddaabb::~ccddaabb
  000ba	8d 8e 24 12 00
	00		 lea	 ecx, DWORD PTR [esi+4644]
  000c0	c6 45 fc 06	 mov	 BYTE PTR __$EHRec$[ebp+8], 6
  000c4	e8 00 00 00 00	 call	 ??1AttackAttribute@@QAE@XZ
  000c9	8d 8e d4 11 00
	00		 lea	 ecx, DWORD PTR [esi+4564]
  000cf	c6 45 fc 05	 mov	 BYTE PTR __$EHRec$[ebp+8], 5
  000d3	e8 00 00 00 00	 call	 ??1AttackAttribute@@QAE@XZ
  000d8	8d 8e 84 11 00
	00		 lea	 ecx, DWORD PTR [esi+4484]
  000de	c6 45 fc 04	 mov	 BYTE PTR __$EHRec$[ebp+8], 4
  000e2	e8 00 00 00 00	 call	 ??1AttackAttribute@@QAE@XZ
  000e7	8d 8e 18 11 00
	00		 lea	 ecx, DWORD PTR [esi+4376]
  000ed	c6 45 fc 03	 mov	 BYTE PTR __$EHRec$[ebp+8], 3
  000f1	e8 00 00 00 00	 call	 ??1AttackAttribute@@QAE@XZ
  000f6	8d 8e 08 11 00
	00		 lea	 ecx, DWORD PTR [esi+4360]
  000fc	c6 45 fc 02	 mov	 BYTE PTR __$EHRec$[ebp+8], 2
  00100	e8 00 00 00 00	 call	 ?_Tidy@?$vector@UAttackAttribute@@V?$allocator@UAttackAttribute@@@std@@@std@@IAEXXZ ; std::vector<AttackAttribute,std::allocator<AttackAttribute> >::_Tidy
  00105	8d 8e f8 10 00
	00		 lea	 ecx, DWORD PTR [esi+4344]
  0010b	c6 45 fc 01	 mov	 BYTE PTR __$EHRec$[ebp+8], 1
  0010f	e8 00 00 00 00	 call	 ?_Tidy@?$vector@UAttackAttribute@@V?$allocator@UAttackAttribute@@@std@@@std@@IAEXXZ ; std::vector<AttackAttribute,std::allocator<AttackAttribute> >::_Tidy
  00114	8d 8e e8 10 00
	00		 lea	 ecx, DWORD PTR [esi+4328]
  0011a	c6 45 fc 00	 mov	 BYTE PTR __$EHRec$[ebp+8], 0
  0011e	e8 00 00 00 00	 call	 ?_Tidy@?$vector@UAttackAttribute@@V?$allocator@UAttackAttribute@@@std@@@std@@IAEXXZ ; std::vector<AttackAttribute,std::allocator<AttackAttribute> >::_Tidy
  00123	83 4d fc ff	 or	 DWORD PTR __$EHRec$[ebp+8], -1
  00127	8b ce		 mov	 ecx, esi
  00129	e8 00 00 00 00	 call	 ??1ioAttackSkill@@UAE@XZ ; ioAttackSkill::~ioAttackSkill
  0012e	e8 00 00 00 00	 call	 __EH_epilog3
  00133	c3		 ret	 0
_TEXT	ENDS
;	COMDAT text$x
text$x	SEGMENT
__unwindfunclet$??1ioLinearComboSkill2@@UAE@XZ$0:
  00000	8b 4d f0	 mov	 ecx, DWORD PTR _this$[ebp]
  00003	e9 00 00 00 00	 jmp	 ??1ioAttackSkill@@UAE@XZ ; ioAttackSkill::~ioAttackSkill
__unwindfunclet$??1ioLinearComboSkill2@@UAE@XZ$1:
  00008	8b 4d f0	 mov	 ecx, DWORD PTR _this$[ebp]
  0000b	81 c1 e8 10 00
	00		 add	 ecx, 4328		; 000010e8H
  00011	e9 00 00 00 00	 jmp	 ??1?$vector@UAttackAttribute@@V?$allocator@UAttackAttribute@@@std@@@std@@QAE@XZ ; std::vector<AttackAttribute,std::allocator<AttackAttribute> >::~vector<AttackAttribute,std::allocator<AttackAttribute> >
__unwindfunclet$??1ioLinearComboSkill2@@UAE@XZ$2:
  00016	8b 4d f0	 mov	 ecx, DWORD PTR _this$[ebp]
  00019	81 c1 f8 10 00
	00		 add	 ecx, 4344		; 000010f8H
  0001f	e9 00 00 00 00	 jmp	 ??1?$vector@UAttackAttribute@@V?$allocator@UAttackAttribute@@@std@@@std@@QAE@XZ ; std::vector<AttackAttribute,std::allocator<AttackAttribute> >::~vector<AttackAttribute,std::allocator<AttackAttribute> >
__unwindfunclet$??1ioLinearComboSkill2@@UAE@XZ$3:
  00024	8b 4d f0	 mov	 ecx, DWORD PTR _this$[ebp]
  00027	81 c1 08 11 00
	00		 add	 ecx, 4360		; 00001108H
  0002d	e9 00 00 00 00	 jmp	 ??1?$vector@UAttackAttribute@@V?$allocator@UAttackAttribute@@@std@@@std@@QAE@XZ ; std::vector<AttackAttribute,std::allocator<AttackAttribute> >::~vector<AttackAttribute,std::allocator<AttackAttribute> >
__unwindfunclet$??1ioLinearComboSkill2@@UAE@XZ$4:
  00032	8b 4d f0	 mov	 ecx, DWORD PTR _this$[ebp]
  00035	81 c1 18 11 00
	00		 add	 ecx, 4376		; 00001118H
  0003b	e9 00 00 00 00	 jmp	 ??1AttackAttribute@@QAE@XZ
__unwindfunclet$??1ioLinearComboSkill2@@UAE@XZ$5:
  00040	8b 4d f0	 mov	 ecx, DWORD PTR _this$[ebp]
  00043	81 c1 84 11 00
	00		 add	 ecx, 4484		; 00001184H
  00049	e9 00 00 00 00	 jmp	 ??1AttackAttribute@@QAE@XZ
__unwindfunclet$??1ioLinearComboSkill2@@UAE@XZ$6:
  0004e	8b 4d f0	 mov	 ecx, DWORD PTR _this$[ebp]
  00051	81 c1 d4 11 00
	00		 add	 ecx, 4564		; 000011d4H
  00057	e9 00 00 00 00	 jmp	 ??1AttackAttribute@@QAE@XZ
__unwindfunclet$??1ioLinearComboSkill2@@UAE@XZ$7:
  0005c	8b 4d f0	 mov	 ecx, DWORD PTR _this$[ebp]
  0005f	81 c1 24 12 00
	00		 add	 ecx, 4644		; 00001224H
  00065	e9 00 00 00 00	 jmp	 ??1AttackAttribute@@QAE@XZ
__unwindfunclet$??1ioLinearComboSkill2@@UAE@XZ$8:
  0006a	8b 4d f0	 mov	 ecx, DWORD PTR _this$[ebp]
  0006d	81 c1 74 12 00
	00		 add	 ecx, 4724		; 00001274H
  00073	e9 00 00 00 00	 jmp	 ??1?$CEncrypt@_N@@UAE@XZ ; CEncrypt<bool>::~CEncrypt<bool>
__unwindfunclet$??1ioLinearComboSkill2@@UAE@XZ$9:
  00078	8b 4d f0	 mov	 ecx, DWORD PTR _this$[ebp]
  0007b	81 c1 a4 12 00
	00		 add	 ecx, 4772		; 000012a4H
  00081	e9 00 00 00 00	 jmp	 ??1?$CEncrypt@_N@@UAE@XZ ; CEncrypt<bool>::~CEncrypt<bool>
__unwindfunclet$??1ioLinearComboSkill2@@UAE@XZ$10:
  00086	8b 4d f0	 mov	 ecx, DWORD PTR _this$[ebp]
  00089	81 c1 d4 12 00
	00		 add	 ecx, 4820		; 000012d4H
  0008f	e9 00 00 00 00	 jmp	 ??1?$CEncrypt@_N@@UAE@XZ ; CEncrypt<bool>::~CEncrypt<bool>
__unwindfunclet$??1ioLinearComboSkill2@@UAE@XZ$11:
  00094	8b 4d f0	 mov	 ecx, DWORD PTR _this$[ebp]
  00097	81 c1 08 13 00
	00		 add	 ecx, 4872		; 00001308H
  0009d	e9 00 00 00 00	 jmp	 ??1AttackAttribute@@QAE@XZ
__unwindfunclet$??1ioLinearComboSkill2@@UAE@XZ$12:
  000a2	8b 4d f0	 mov	 ecx, DWORD PTR _this$[ebp]
  000a5	81 c1 58 13 00
	00		 add	 ecx, 4952		; 00001358H
  000ab	e9 00 00 00 00	 jmp	 ??1?$CEncrypt@H@@UAE@XZ	; CEncrypt<int>::~CEncrypt<int>
__unwindfunclet$??1ioLinearComboSkill2@@UAE@XZ$13:
  000b0	8b 4d f0	 mov	 ecx, DWORD PTR _this$[ebp]
  000b3	81 c1 88 13 00
	00		 add	 ecx, 5000		; 00001388H
  000b9	e9 00 00 00 00	 jmp	 ??1?$CEncrypt@H@@UAE@XZ	; CEncrypt<int>::~CEncrypt<int>
__unwindfunclet$??1ioLinearComboSkill2@@UAE@XZ$14:
  000be	8b 4d f0	 mov	 ecx, DWORD PTR _this$[ebp]
  000c1	81 c1 b8 13 00
	00		 add	 ecx, 5048		; 000013b8H
  000c7	ff 25 00 00 00
	00		 jmp	 DWORD PTR __imp_??1ioHashString@@QAE@XZ
__ehhandler$??1ioLinearComboSkill2@@UAE@XZ:
  000cd	8b 54 24 08	 mov	 edx, DWORD PTR [esp+8]
  000d1	8d 42 0c	 lea	 eax, DWORD PTR [edx+12]
  000d4	8b 4a ec	 mov	 ecx, DWORD PTR [edx-20]
  000d7	33 c8		 xor	 ecx, eax
  000d9	e8 00 00 00 00	 call	 @__security_check_cookie@4
  000de	b8 00 00 00 00	 mov	 eax, OFFSET __ehfuncinfo$??1ioLinearComboSkill2@@UAE@XZ
  000e3	e9 00 00 00 00	 jmp	 ___CxxFrameHandler3
text$x	ENDS
??1ioLinearComboSkill2@@UAE@XZ ENDP			; ioLinearComboSkill2::~ioLinearComboSkill2
PUBLIC	??_C@_00CNPNBAHC@?$AA@				; `string'
PUBLIC	_rkLoader$GSCopy$
EXTRN	__imp_??4ioHashString@@QAEAAV0@PBD@Z:PROC
EXTRN	__imp__wsprintfA:PROC
EXTRN	?LoadProperty@ioAttackSkill@@UAEXAAVioINILoader@@@Z:PROC ; ioAttackSkill::LoadProperty
EXTRN	_memset:PROC
;	COMDAT ??_C@_00CNPNBAHC@?$AA@
; File d:\lost saga for developer\youtube\tutorial\source\src\lsclient\stringprotect.h
CONST	SEGMENT
??_C@_00CNPNBAHC@?$AA@ DB 00H				; `string'
CONST	ENDS
;	COMDAT xdata$x
xdata$x	SEGMENT
__unwindtable$?LoadProperty@ioLinearComboSkill2@@UAEXAAVioINILoader@@@Z DD 0ffffffffH
	DD	FLAT:__unwindfunclet$?LoadProperty@ioLinearComboSkill2@@UAEXAAVioINILoader@@@Z$0
	DD	0ffffffffH
	DD	FLAT:__unwindfunclet$?LoadProperty@ioLinearComboSkill2@@UAEXAAVioINILoader@@@Z$1
	DD	0ffffffffH
	DD	FLAT:__unwindfunclet$?LoadProperty@ioLinearComboSkill2@@UAEXAAVioINILoader@@@Z$2
__ehfuncinfo$?LoadProperty@ioLinearComboSkill2@@UAEXAAVioINILoader@@@Z DD 019930522H
	DD	03H
	DD	FLAT:__unwindtable$?LoadProperty@ioLinearComboSkill2@@UAEXAAVioINILoader@@@Z
	DD	2 DUP(00H)
	DD	2 DUP(00H)
	DD	00H
	DD	01H
; Function compile flags: /Ogsp
; File d:\lost saga for developer\youtube\tutorial\source\src\lsclient\iolinearcomboskill2.cpp
xdata$x	ENDS
;	COMDAT ?LoadProperty@ioLinearComboSkill2@@UAEXAAVioINILoader@@@Z
_TEXT	SEGMENT
_kComboAttack$607805 = -1368				; size = 80
_kComboAttack$607965 = -1288				; size = 80
_kComboAttack$607640 = -1208				; size = 80
_value$623514 = -1125					; size = 1
_iDownComboCnt$ = -1124					; size = 4
_iJumpComboCnt$ = -1124					; size = 4
_iComboCnt$ = -1124					; size = 4
tv17402 = -1120						; size = 4
tv17298 = -1120						; size = 4
tv17192 = -1120						; size = 4
$T622615 = -1120					; size = 4
$T622389 = -1120					; size = 4
$T622172 = -1120					; size = 4
_i$607961 = -1120					; size = 4
_i$607801 = -1120					; size = 4
_i$607636 = -1120					; size = 4
_rkLoader$GSCopy$ = -1116				; size = 4
_szBuf$ = -1112						; size = 260
_szKey$ = -852						; size = 260
__k$622001 = -592					; size = 17
_szEncAttack$623040 = -568				; size = 17
__k$623402 = -544					; size = 17
__k$623795 = -520					; size = 21
__k$622915 = -492					; size = 21
__k$622218 = -464					; size = 22
_szEncAttack$623208 = -436				; size = 22
__k$623670 = -408					; size = 16
__k$622435 = -388					; size = 22
___encStr$607644 = -360					; size = 15
__k$624484 = -340					; size = 14
___encStr$607969 = -320					; size = 20
__k$624170 = -296					; size = 16
___encStr$607809 = -276					; size = 20
_szEncAttack$623532 = -252				; size = 15
__k$624045 = -232					; size = 19
__k$624532 = -208					; size = 14
__k$623920 = -188					; size = 19
___encStr$608201 = -164					; size = 12
__k$624295 = -148					; size = 28
_szEncAttack$623333 = -116				; size = 22
__k$621876 = -88					; size = 19
__k$622790 = -64					; size = 18
__k$622665 = -40					; size = 19
__$EHRec$ = -12						; size = 12
_rkLoader$ = 8						; size = 4
?LoadProperty@ioLinearComboSkill2@@UAEXAAVioINILoader@@@Z PROC ; ioLinearComboSkill2::LoadProperty, COMDAT
; _this$ = ecx

; 84   : {

  00000	68 4c 05 00 00	 push	 1356			; 0000054cH
  00005	b8 00 00 00 00	 mov	 eax, __ehhandler$?LoadProperty@ioLinearComboSkill2@@UAEXAAVioINILoader@@@Z
  0000a	e8 00 00 00 00	 call	 __EH_prolog3_GS
  0000f	8b 45 08	 mov	 eax, DWORD PTR _rkLoader$[ebp]

; 85   : 	ioAttackSkill::LoadProperty( rkLoader );

  00012	50		 push	 eax
  00013	8b f1		 mov	 esi, ecx

; 176  : 
; 177  : 	m_bUseEndCombo = rkLoader.LoadBool_e( "use_end_combo", false );

  00015	89 85 a4 fb ff
	ff		 mov	 DWORD PTR _rkLoader$GSCopy$[ebp], eax
  0001b	e8 00 00 00 00	 call	 ?LoadProperty@ioAttackSkill@@UAEXAAVioINILoader@@@Z ; ioAttackSkill::LoadProperty
  00020	bf 03 01 00 00	 mov	 edi, 259		; 00000103H
  00025	33 db		 xor	 ebx, ebx
  00027	57		 push	 edi
  00028	8d 85 a9 fb ff
	ff		 lea	 eax, DWORD PTR _szBuf$[ebp+1]
  0002e	53		 push	 ebx
  0002f	50		 push	 eax
  00030	88 9d a8 fb ff
	ff		 mov	 BYTE PTR _szBuf$[ebp], bl
  00036	e8 00 00 00 00	 call	 _memset
  0003b	57		 push	 edi
  0003c	8d 85 ad fc ff
	ff		 lea	 eax, DWORD PTR _szKey$[ebp+1]
  00042	53		 push	 ebx
  00043	50		 push	 eax
  00044	88 9d ac fc ff
	ff		 mov	 BYTE PTR _szKey$[ebp], bl
  0004a	e8 00 00 00 00	 call	 _memset
  0004f	83 c4 18	 add	 esp, 24			; 00000018H
  00052	6a 04		 push	 4
  00054	c7 45 a8 9d 9e
	84 9e		 mov	 DWORD PTR __k$621876[ebp], -1635475811 ; 9e849e9dH
  0005b	c7 45 ac 88 8f
	9f b5		 mov	 DWORD PTR __k$621876[ebp+4], -1247834232 ; b59f8f88H
  00062	c7 45 b0 8e 84
	8e 89		 mov	 DWORD PTR __k$621876[ebp+8], -1987148658 ; 898e848eH
  00069	c7 45 b4 86 b3
	9f 93		 mov	 DWORD PTR __k$621876[ebp+12], -1818250362 ; 939fb386H
  00070	66 c7 45 b8 9d
	89		 mov	 WORD PTR __k$621876[ebp+16], 35229 ; 0000899dH
  00076	8d 45 a8	 lea	 eax, DWORD PTR __k$621876[ebp]
  00079	88 5d ba	 mov	 BYTE PTR __k$621876[ebp+18], bl
  0007c	59		 pop	 ecx
$LL517@LoadProper:

; 86   : 
; 87   : 	char szBuf[MAX_PATH] = "";
; 88   : 	char szKey[MAX_PATH] = "";
; 89   : 
; 90   : 	m_ProtectCheckType = (ProtectCheckType)rkLoader.LoadInt_e( "protect_check_type", PCT_TIME );

  0007d	81 30 ed ec eb
	ea		 xor	 DWORD PTR [eax], -353637139 ; eaebecedH
  00083	83 c0 04	 add	 eax, 4
  00086	49		 dec	 ecx
  00087	75 f4		 jne	 SHORT $LL517@LoadProper
  00089	6a 10		 push	 16			; 00000010H
  0008b	5f		 pop	 edi
$LL514@LoadProper:
  0008c	8b c7		 mov	 eax, edi
  0008e	25 03 00 00 80	 and	 eax, -2147483645	; 80000003H
  00093	79 05		 jns	 SHORT $LN2729@LoadProper
  00095	48		 dec	 eax
  00096	83 c8 fc	 or	 eax, -4			; fffffffcH
  00099	40		 inc	 eax
$LN2729@LoadProper:
  0009a	b1 ed		 mov	 cl, -19			; ffffffedH
  0009c	2a c8		 sub	 cl, al
  0009e	30 4c 3d a8	 xor	 BYTE PTR __k$621876[ebp+edi], cl
  000a2	47		 inc	 edi
  000a3	83 ff 12	 cmp	 edi, 18			; 00000012H
  000a6	7c e4		 jl	 SHORT $LL514@LoadProper
  000a8	8b 8d a4 fb ff
	ff		 mov	 ecx, DWORD PTR _rkLoader$GSCopy$[ebp]
  000ae	6a 01		 push	 1
  000b0	8d 45 a8	 lea	 eax, DWORD PTR __k$621876[ebp]
  000b3	50		 push	 eax
  000b4	ff 15 00 00 00
	00		 call	 DWORD PTR __imp_?LoadInt@ioINILoader@@QAEHPBDH@Z
  000ba	89 86 7c 11 00
	00		 mov	 DWORD PTR [esi+4476], eax
  000c0	6a 04		 push	 4

; 91   : 
; 92   : 	//
; 93   : 	int iComboCnt = rkLoader.LoadInt_e( "linear_combo_cnt", 0 );

  000c2	c7 85 b0 fd ff
	ff 81 85 85 8f	 mov	 DWORD PTR __k$622001[ebp], -1887074943 ; 8f858581H
  000cc	c7 85 b4 fd ff
	ff 8c 9e b4 89	 mov	 DWORD PTR __k$622001[ebp+4], -1984651636 ; 89b49e8cH
  000d6	c7 85 b8 fd ff
	ff 82 81 89 85	 mov	 DWORD PTR __k$622001[ebp+8], -2054585982 ; 85898182H
  000e0	c7 85 bc fd ff
	ff b2 8f 85 9e	 mov	 DWORD PTR __k$622001[ebp+12], -1635414094 ; 9e858fb2H
  000ea	8d 85 b0 fd ff
	ff		 lea	 eax, DWORD PTR __k$622001[ebp]
  000f0	88 9d c0 fd ff
	ff		 mov	 BYTE PTR __k$622001[ebp+16], bl
  000f6	59		 pop	 ecx
$LL623@LoadProper:
  000f7	81 30 ed ec eb
	ea		 xor	 DWORD PTR [eax], -353637139 ; eaebecedH
  000fd	83 c0 04	 add	 eax, 4
  00100	49		 dec	 ecx
  00101	75 f4		 jne	 SHORT $LL623@LoadProper
  00103	8b 8d a4 fb ff
	ff		 mov	 ecx, DWORD PTR _rkLoader$GSCopy$[ebp]
  00109	53		 push	 ebx
  0010a	8d 85 b0 fd ff
	ff		 lea	 eax, DWORD PTR __k$622001[ebp]
  00110	50		 push	 eax
  00111	ff 15 00 00 00
	00		 call	 DWORD PTR __imp_?LoadInt@ioINILoader@@QAEHPBDH@Z

; 94   : 	m_vComboList.clear();

  00117	8b 8e e8 10 00
	00		 mov	 ecx, DWORD PTR [esi+4328]
  0011d	89 85 9c fb ff
	ff		 mov	 DWORD PTR _iComboCnt$[ebp], eax
  00123	8b 86 ec 10 00
	00		 mov	 eax, DWORD PTR [esi+4332]
  00129	50		 push	 eax
  0012a	51		 push	 ecx
  0012b	8d 85 a0 fb ff
	ff		 lea	 eax, DWORD PTR $T622172[ebp]
  00131	50		 push	 eax
  00132	8d 8e e8 10 00
	00		 lea	 ecx, DWORD PTR [esi+4328]
  00138	e8 00 00 00 00	 call	 ?erase@?$vector@UAttackAttribute@@V?$allocator@UAttackAttribute@@@std@@@std@@QAE?AV?$_Vector_iterator@V?$_Vector_val@UAttackAttribute@@V?$allocator@UAttackAttribute@@@std@@@std@@@2@V?$_Vector_const_iterator@V?$_Vector_val@UAttackAttribute@@V?$allocator@UAttackAttribute@@@std@@@std@@@2@0@Z ; std::vector<AttackAttribute,std::allocator<AttackAttribute> >::erase

; 95   : 
; 96   : 	if( iComboCnt > 0 )

  0013d	39 9d 9c fb ff
	ff		 cmp	 DWORD PTR _iComboCnt$[ebp], ebx
  00143	0f 8e 0d 01 00
	00		 jle	 $LN405@LoadProper

; 97   : 	{
; 98   : 		m_vComboList.reserve( iComboCnt );

  00149	ff b5 9c fb ff
	ff		 push	 DWORD PTR _iComboCnt$[ebp]
  0014f	8d 8e e8 10 00
	00		 lea	 ecx, DWORD PTR [esi+4328]
  00155	e8 00 00 00 00	 call	 ?reserve@?$vector@UAttackAttribute@@V?$allocator@UAttackAttribute@@@std@@@std@@QAEXI@Z ; std::vector<AttackAttribute,std::allocator<AttackAttribute> >::reserve

; 99   : 
; 100  : 		for( int i=0; i < iComboCnt; ++i )

  0015a	89 9d a0 fb ff
	ff		 mov	 DWORD PTR _i$607636[ebp], ebx
  00160	39 9d 9c fb ff
	ff		 cmp	 DWORD PTR _iComboCnt$[ebp], ebx
  00166	0f 8e ea 00 00
	00		 jle	 $LN405@LoadProper
$LL407@LoadProper:

; 101  : 		{
; 102  : 			AttackAttribute kComboAttack;

  0016c	8d 8d 48 fb ff
	ff		 lea	 ecx, DWORD PTR _kComboAttack$607640[ebp]
  00172	e8 00 00 00 00	 call	 ??0AttackAttribute@@QAE@XZ ; AttackAttribute::AttackAttribute
  00177	6a 03		 push	 3
  00179	89 5d fc	 mov	 DWORD PTR __$EHRec$[ebp+8], ebx

; 103  : 
; 104  : 			wsprintf_e( szKey, "linear_combo%d", i+1 );

  0017c	c7 85 98 fe ff
	ff 81 85 85 8f	 mov	 DWORD PTR ___encStr$607644[ebp], -1887074943 ; 8f858581H
  00186	c7 85 9c fe ff
	ff 8c 9e b4 89	 mov	 DWORD PTR ___encStr$607644[ebp+4], -1984651636 ; 89b49e8cH
  00190	c7 85 a0 fe ff
	ff 82 81 89 85	 mov	 DWORD PTR ___encStr$607644[ebp+8], -2054585982 ; 85898182H
  0019a	66 c7 85 a4 fe
	ff ff c8 88	 mov	 WORD PTR ___encStr$607644[ebp+12], 35016 ; 000088c8H
  001a3	8d 85 98 fe ff
	ff		 lea	 eax, DWORD PTR ___encStr$607644[ebp]
  001a9	88 9d a6 fe ff
	ff		 mov	 BYTE PTR ___encStr$607644[ebp+14], bl
  001af	59		 pop	 ecx
$LL649@LoadProper:
  001b0	81 30 ed ec eb
	ea		 xor	 DWORD PTR [eax], -353637139 ; eaebecedH
  001b6	83 c0 04	 add	 eax, 4
  001b9	49		 dec	 ecx
  001ba	75 f4		 jne	 SHORT $LL649@LoadProper
  001bc	6a 0c		 push	 12			; 0000000cH
  001be	58		 pop	 eax
$LL646@LoadProper:
  001bf	8b c8		 mov	 ecx, eax
  001c1	81 e1 03 00 00
	80		 and	 ecx, -2147483645	; 80000003H
  001c7	79 05		 jns	 SHORT $LN2730@LoadProper
  001c9	49		 dec	 ecx
  001ca	83 c9 fc	 or	 ecx, -4			; fffffffcH
  001cd	41		 inc	 ecx
$LN2730@LoadProper:
  001ce	b2 ed		 mov	 dl, -19			; ffffffedH
  001d0	2a d1		 sub	 dl, cl
  001d2	30 94 05 98 fe
	ff ff		 xor	 BYTE PTR ___encStr$607644[ebp+eax], dl
  001d9	40		 inc	 eax
  001da	83 f8 0e	 cmp	 eax, 14			; 0000000eH
  001dd	7c e0		 jl	 SHORT $LL646@LoadProper
  001df	8b 85 a0 fb ff
	ff		 mov	 eax, DWORD PTR _i$607636[ebp]
  001e5	40		 inc	 eax
  001e6	50		 push	 eax
  001e7	89 85 a0 fb ff
	ff		 mov	 DWORD PTR tv17192[ebp], eax
  001ed	8d 85 98 fe ff
	ff		 lea	 eax, DWORD PTR ___encStr$607644[ebp]
  001f3	50		 push	 eax
  001f4	8d 85 ac fc ff
	ff		 lea	 eax, DWORD PTR _szKey$[ebp]
  001fa	50		 push	 eax
  001fb	ff 15 00 00 00
	00		 call	 DWORD PTR __imp__wsprintfA

; 105  : 			LoadAttackAttribute( szKey, kComboAttack, rkLoader );

  00201	ff b5 a4 fb ff
	ff		 push	 DWORD PTR _rkLoader$GSCopy$[ebp]
  00207	8d 85 48 fb ff
	ff		 lea	 eax, DWORD PTR _kComboAttack$607640[ebp]
  0020d	50		 push	 eax
  0020e	8d 85 ac fc ff
	ff		 lea	 eax, DWORD PTR _szKey$[ebp]
  00214	50		 push	 eax
  00215	e8 00 00 00 00	 call	 ?LoadAttackAttribute@@YAXPBDAAUAttackAttribute@@AAVioINILoader@@@Z ; LoadAttackAttribute
  0021a	83 c4 18	 add	 esp, 24			; 00000018H

; 106  : 
; 107  : 			m_vComboList.push_back( kComboAttack );

  0021d	8d 85 48 fb ff
	ff		 lea	 eax, DWORD PTR _kComboAttack$607640[ebp]
  00223	50		 push	 eax
  00224	8d 8e e8 10 00
	00		 lea	 ecx, DWORD PTR [esi+4328]
  0022a	e8 00 00 00 00	 call	 ?push_back@?$vector@UAttackAttribute@@V?$allocator@UAttackAttribute@@@std@@@std@@QAEXABUAttackAttribute@@@Z ; std::vector<AttackAttribute,std::allocator<AttackAttribute> >::push_back

; 108  : 		}

  0022f	83 4d fc ff	 or	 DWORD PTR __$EHRec$[ebp+8], -1
  00233	8d 8d 48 fb ff
	ff		 lea	 ecx, DWORD PTR _kComboAttack$607640[ebp]
  00239	e8 00 00 00 00	 call	 ??1AttackAttribute@@QAE@XZ
  0023e	8b 85 a0 fb ff
	ff		 mov	 eax, DWORD PTR tv17192[ebp]
  00244	89 85 a0 fb ff
	ff		 mov	 DWORD PTR _i$607636[ebp], eax
  0024a	3b 85 9c fb ff
	ff		 cmp	 eax, DWORD PTR _iComboCnt$[ebp]
  00250	0f 8c 16 ff ff
	ff		 jl	 $LL407@LoadProper
$LN405@LoadProper:

; 109  : 	}
; 110  : 
; 111  : 	int iJumpComboCnt = rkLoader.LoadInt_e( "jump_linear_combo_cnt", 0 );

  00256	6a 05		 push	 5
  00258	c7 85 30 fe ff
	ff 87 99 86 9a	 mov	 DWORD PTR __k$622218[ebp], -1702454905 ; 9a869987H
  00262	c7 85 34 fe ff
	ff b2 80 82 84	 mov	 DWORD PTR __k$622218[ebp+4], -2071822158 ; 848280b2H
  0026c	c7 85 38 fe ff
	ff 88 8d 99 b5	 mov	 DWORD PTR __k$622218[ebp+8], -1248227960 ; b5998d88H
  00276	c7 85 3c fe ff
	ff 8e 83 86 88	 mov	 DWORD PTR __k$622218[ebp+12], -2004450418 ; 8886838eH
  00280	c7 85 40 fe ff
	ff 82 b3 88 84	 mov	 DWORD PTR __k$622218[ebp+16], -2071415934 ; 8488b382H
  0028a	8d 85 30 fe ff
	ff		 lea	 eax, DWORD PTR __k$622218[ebp]
  00290	66 c7 85 44 fe
	ff ff 99 00	 mov	 WORD PTR __k$622218[ebp+20], 153 ; 00000099H
  00299	59		 pop	 ecx
$LL755@LoadProper:
  0029a	81 30 ed ec eb
	ea		 xor	 DWORD PTR [eax], -353637139 ; eaebecedH
  002a0	83 c0 04	 add	 eax, 4
  002a3	49		 dec	 ecx
  002a4	75 f4		 jne	 SHORT $LL755@LoadProper
  002a6	8b 8d a4 fb ff
	ff		 mov	 ecx, DWORD PTR _rkLoader$GSCopy$[ebp]
  002ac	80 b5 44 fe ff
	ff ed		 xor	 BYTE PTR __k$622218[ebp+20], -19 ; ffffffedH
  002b3	53		 push	 ebx
  002b4	8d 85 30 fe ff
	ff		 lea	 eax, DWORD PTR __k$622218[ebp]
  002ba	50		 push	 eax
  002bb	ff 15 00 00 00
	00		 call	 DWORD PTR __imp_?LoadInt@ioINILoader@@QAEHPBDH@Z

; 112  : 	m_vJumpComboList.clear();

  002c1	8b 8e f8 10 00
	00		 mov	 ecx, DWORD PTR [esi+4344]
  002c7	89 85 9c fb ff
	ff		 mov	 DWORD PTR _iJumpComboCnt$[ebp], eax
  002cd	8b 86 fc 10 00
	00		 mov	 eax, DWORD PTR [esi+4348]
  002d3	50		 push	 eax
  002d4	51		 push	 ecx
  002d5	8d 85 a0 fb ff
	ff		 lea	 eax, DWORD PTR $T622389[ebp]
  002db	50		 push	 eax
  002dc	8d 8e f8 10 00
	00		 lea	 ecx, DWORD PTR [esi+4344]
  002e2	e8 00 00 00 00	 call	 ?erase@?$vector@UAttackAttribute@@V?$allocator@UAttackAttribute@@@std@@@std@@QAE?AV?$_Vector_iterator@V?$_Vector_val@UAttackAttribute@@V?$allocator@UAttackAttribute@@@std@@@std@@@2@V?$_Vector_const_iterator@V?$_Vector_val@UAttackAttribute@@V?$allocator@UAttackAttribute@@@std@@@std@@@2@0@Z ; std::vector<AttackAttribute,std::allocator<AttackAttribute> >::erase

; 113  : 
; 114  : 	if( iJumpComboCnt > 0 )

  002e7	39 9d 9c fb ff
	ff		 cmp	 DWORD PTR _iJumpComboCnt$[ebp], ebx
  002ed	0f 8e 16 01 00
	00		 jle	 $LN302@LoadProper

; 115  : 	{
; 116  : 		m_vJumpComboList.reserve( iJumpComboCnt );

  002f3	ff b5 9c fb ff
	ff		 push	 DWORD PTR _iJumpComboCnt$[ebp]
  002f9	8d 8e f8 10 00
	00		 lea	 ecx, DWORD PTR [esi+4344]
  002ff	e8 00 00 00 00	 call	 ?reserve@?$vector@UAttackAttribute@@V?$allocator@UAttackAttribute@@@std@@@std@@QAEXI@Z ; std::vector<AttackAttribute,std::allocator<AttackAttribute> >::reserve

; 117  : 
; 118  : 		for( int i=0; i < iJumpComboCnt; ++i )

  00304	89 9d a0 fb ff
	ff		 mov	 DWORD PTR _i$607801[ebp], ebx
  0030a	39 9d 9c fb ff
	ff		 cmp	 DWORD PTR _iJumpComboCnt$[ebp], ebx
  00310	0f 8e f3 00 00
	00		 jle	 $LN302@LoadProper
$LL304@LoadProper:

; 119  : 		{
; 120  : 			AttackAttribute kComboAttack;

  00316	8d 8d a8 fa ff
	ff		 lea	 ecx, DWORD PTR _kComboAttack$607805[ebp]
  0031c	e8 00 00 00 00	 call	 ??0AttackAttribute@@QAE@XZ ; AttackAttribute::AttackAttribute
  00321	6a 04		 push	 4
  00323	c7 45 fc 01 00
	00 00		 mov	 DWORD PTR __$EHRec$[ebp+8], 1

; 121  : 
; 122  : 			wsprintf_e( szKey, "jump_linear_combo%d", i+1 );

  0032a	c7 85 ec fe ff
	ff 87 99 86 9a	 mov	 DWORD PTR ___encStr$607809[ebp], -1702454905 ; 9a869987H
  00334	c7 85 f0 fe ff
	ff b2 80 82 84	 mov	 DWORD PTR ___encStr$607809[ebp+4], -2071822158 ; 848280b2H
  0033e	c7 85 f4 fe ff
	ff 88 8d 99 b5	 mov	 DWORD PTR ___encStr$607809[ebp+8], -1248227960 ; b5998d88H
  00348	c7 85 f8 fe ff
	ff 8e 83 86 88	 mov	 DWORD PTR ___encStr$607809[ebp+12], -2004450418 ; 8886838eH
  00352	8d 85 ec fe ff
	ff		 lea	 eax, DWORD PTR ___encStr$607809[ebp]
  00358	c7 85 fc fe ff
	ff 82 c9 8f 00	 mov	 DWORD PTR ___encStr$607809[ebp+16], 9423234 ; 008fc982H
  00362	59		 pop	 ecx
$LL781@LoadProper:
  00363	81 30 ed ec eb
	ea		 xor	 DWORD PTR [eax], -353637139 ; eaebecedH
  00369	83 c0 04	 add	 eax, 4
  0036c	49		 dec	 ecx
  0036d	75 f4		 jne	 SHORT $LL781@LoadProper
  0036f	6a 10		 push	 16			; 00000010H
  00371	58		 pop	 eax
$LL778@LoadProper:
  00372	8b c8		 mov	 ecx, eax
  00374	81 e1 03 00 00
	80		 and	 ecx, -2147483645	; 80000003H
  0037a	79 05		 jns	 SHORT $LN2731@LoadProper
  0037c	49		 dec	 ecx
  0037d	83 c9 fc	 or	 ecx, -4			; fffffffcH
  00380	41		 inc	 ecx
$LN2731@LoadProper:
  00381	b2 ed		 mov	 dl, -19			; ffffffedH
  00383	2a d1		 sub	 dl, cl
  00385	30 94 05 ec fe
	ff ff		 xor	 BYTE PTR ___encStr$607809[ebp+eax], dl
  0038c	40		 inc	 eax
  0038d	83 f8 13	 cmp	 eax, 19			; 00000013H
  00390	7c e0		 jl	 SHORT $LL778@LoadProper
  00392	8b 85 a0 fb ff
	ff		 mov	 eax, DWORD PTR _i$607801[ebp]
  00398	40		 inc	 eax
  00399	50		 push	 eax
  0039a	89 85 a0 fb ff
	ff		 mov	 DWORD PTR tv17298[ebp], eax
  003a0	8d 85 ec fe ff
	ff		 lea	 eax, DWORD PTR ___encStr$607809[ebp]
  003a6	50		 push	 eax
  003a7	8d 85 ac fc ff
	ff		 lea	 eax, DWORD PTR _szKey$[ebp]
  003ad	50		 push	 eax
  003ae	ff 15 00 00 00
	00		 call	 DWORD PTR __imp__wsprintfA

; 123  : 			LoadAttackAttribute( szKey, kComboAttack, rkLoader );

  003b4	ff b5 a4 fb ff
	ff		 push	 DWORD PTR _rkLoader$GSCopy$[ebp]
  003ba	8d 85 a8 fa ff
	ff		 lea	 eax, DWORD PTR _kComboAttack$607805[ebp]
  003c0	50		 push	 eax
  003c1	8d 85 ac fc ff
	ff		 lea	 eax, DWORD PTR _szKey$[ebp]
  003c7	50		 push	 eax
  003c8	e8 00 00 00 00	 call	 ?LoadAttackAttribute@@YAXPBDAAUAttackAttribute@@AAVioINILoader@@@Z ; LoadAttackAttribute
  003cd	83 c4 18	 add	 esp, 24			; 00000018H

; 124  : 
; 125  : 			m_vJumpComboList.push_back( kComboAttack );

  003d0	8d 85 a8 fa ff
	ff		 lea	 eax, DWORD PTR _kComboAttack$607805[ebp]
  003d6	50		 push	 eax
  003d7	8d 8e f8 10 00
	00		 lea	 ecx, DWORD PTR [esi+4344]
  003dd	e8 00 00 00 00	 call	 ?push_back@?$vector@UAttackAttribute@@V?$allocator@UAttackAttribute@@@std@@@std@@QAEXABUAttackAttribute@@@Z ; std::vector<AttackAttribute,std::allocator<AttackAttribute> >::push_back

; 126  : 		}

  003e2	83 4d fc ff	 or	 DWORD PTR __$EHRec$[ebp+8], -1
  003e6	8d 8d a8 fa ff
	ff		 lea	 ecx, DWORD PTR _kComboAttack$607805[ebp]
  003ec	e8 00 00 00 00	 call	 ??1AttackAttribute@@QAE@XZ
  003f1	8b 85 a0 fb ff
	ff		 mov	 eax, DWORD PTR tv17298[ebp]
  003f7	89 85 a0 fb ff
	ff		 mov	 DWORD PTR _i$607801[ebp], eax
  003fd	3b 85 9c fb ff
	ff		 cmp	 eax, DWORD PTR _iJumpComboCnt$[ebp]
  00403	0f 8c 0d ff ff
	ff		 jl	 $LL304@LoadProper
$LN302@LoadProper:

; 127  : 	}
; 128  : 
; 129  : 	int iDownComboCnt = rkLoader.LoadInt_e( "down_linear_combo_cnt", 0 );

  00409	6a 05		 push	 5
  0040b	c7 85 7c fe ff
	ff 89 83 9c 84	 mov	 DWORD PTR __k$622435[ebp], -2070117495 ; 849c8389H
  00415	c7 85 80 fe ff
	ff b2 80 82 84	 mov	 DWORD PTR __k$622435[ebp+4], -2071822158 ; 848280b2H
  0041f	c7 85 84 fe ff
	ff 88 8d 99 b5	 mov	 DWORD PTR __k$622435[ebp+8], -1248227960 ; b5998d88H
  00429	c7 85 88 fe ff
	ff 8e 83 86 88	 mov	 DWORD PTR __k$622435[ebp+12], -2004450418 ; 8886838eH
  00433	c7 85 8c fe ff
	ff 82 b3 88 84	 mov	 DWORD PTR __k$622435[ebp+16], -2071415934 ; 8488b382H
  0043d	8d 85 7c fe ff
	ff		 lea	 eax, DWORD PTR __k$622435[ebp]
  00443	66 c7 85 90 fe
	ff ff 99 00	 mov	 WORD PTR __k$622435[ebp+20], 153 ; 00000099H
  0044c	59		 pop	 ecx
$LL887@LoadProper:
  0044d	81 30 ed ec eb
	ea		 xor	 DWORD PTR [eax], -353637139 ; eaebecedH
  00453	83 c0 04	 add	 eax, 4
  00456	49		 dec	 ecx
  00457	75 f4		 jne	 SHORT $LL887@LoadProper
  00459	8b 8d a4 fb ff
	ff		 mov	 ecx, DWORD PTR _rkLoader$GSCopy$[ebp]
  0045f	80 b5 90 fe ff
	ff ed		 xor	 BYTE PTR __k$622435[ebp+20], -19 ; ffffffedH
  00466	53		 push	 ebx
  00467	8d 85 7c fe ff
	ff		 lea	 eax, DWORD PTR __k$622435[ebp]
  0046d	50		 push	 eax
  0046e	ff 15 00 00 00
	00		 call	 DWORD PTR __imp_?LoadInt@ioINILoader@@QAEHPBDH@Z

; 130  : 	m_vDownComboList.clear();

  00474	8b 8e 08 11 00
	00		 mov	 ecx, DWORD PTR [esi+4360]
  0047a	89 85 9c fb ff
	ff		 mov	 DWORD PTR _iDownComboCnt$[ebp], eax
  00480	8b 86 0c 11 00
	00		 mov	 eax, DWORD PTR [esi+4364]
  00486	50		 push	 eax
  00487	51		 push	 ecx
  00488	8d 85 a0 fb ff
	ff		 lea	 eax, DWORD PTR $T622615[ebp]
  0048e	50		 push	 eax
  0048f	8d 8e 08 11 00
	00		 lea	 ecx, DWORD PTR [esi+4360]
  00495	e8 00 00 00 00	 call	 ?erase@?$vector@UAttackAttribute@@V?$allocator@UAttackAttribute@@@std@@@std@@QAE?AV?$_Vector_iterator@V?$_Vector_val@UAttackAttribute@@V?$allocator@UAttackAttribute@@@std@@@std@@@2@V?$_Vector_const_iterator@V?$_Vector_val@UAttackAttribute@@V?$allocator@UAttackAttribute@@@std@@@std@@@2@0@Z ; std::vector<AttackAttribute,std::allocator<AttackAttribute> >::erase

; 131  : 
; 132  : 	if( iDownComboCnt > 0 )

  0049a	39 9d 9c fb ff
	ff		 cmp	 DWORD PTR _iDownComboCnt$[ebp], ebx
  004a0	0f 8e 16 01 00
	00		 jle	 $LN199@LoadProper

; 133  : 	{
; 134  : 		m_vDownComboList.reserve( iDownComboCnt );

  004a6	ff b5 9c fb ff
	ff		 push	 DWORD PTR _iDownComboCnt$[ebp]
  004ac	8d 8e 08 11 00
	00		 lea	 ecx, DWORD PTR [esi+4360]
  004b2	e8 00 00 00 00	 call	 ?reserve@?$vector@UAttackAttribute@@V?$allocator@UAttackAttribute@@@std@@@std@@QAEXI@Z ; std::vector<AttackAttribute,std::allocator<AttackAttribute> >::reserve

; 135  : 
; 136  : 		for( int i=0; i < iDownComboCnt; ++i )

  004b7	89 9d a0 fb ff
	ff		 mov	 DWORD PTR _i$607961[ebp], ebx
  004bd	39 9d 9c fb ff
	ff		 cmp	 DWORD PTR _iDownComboCnt$[ebp], ebx
  004c3	0f 8e f3 00 00
	00		 jle	 $LN199@LoadProper
$LL201@LoadProper:

; 137  : 		{
; 138  : 			AttackAttribute kComboAttack;

  004c9	8d 8d f8 fa ff
	ff		 lea	 ecx, DWORD PTR _kComboAttack$607965[ebp]
  004cf	e8 00 00 00 00	 call	 ??0AttackAttribute@@QAE@XZ ; AttackAttribute::AttackAttribute
  004d4	6a 04		 push	 4
  004d6	c7 45 fc 02 00
	00 00		 mov	 DWORD PTR __$EHRec$[ebp+8], 2

; 139  : 
; 140  : 			wsprintf_e( szKey, "down_linear_combo%d", i+1 );

  004dd	c7 85 c0 fe ff
	ff 89 83 9c 84	 mov	 DWORD PTR ___encStr$607969[ebp], -2070117495 ; 849c8389H
  004e7	c7 85 c4 fe ff
	ff b2 80 82 84	 mov	 DWORD PTR ___encStr$607969[ebp+4], -2071822158 ; 848280b2H
  004f1	c7 85 c8 fe ff
	ff 88 8d 99 b5	 mov	 DWORD PTR ___encStr$607969[ebp+8], -1248227960 ; b5998d88H
  004fb	c7 85 cc fe ff
	ff 8e 83 86 88	 mov	 DWORD PTR ___encStr$607969[ebp+12], -2004450418 ; 8886838eH
  00505	8d 85 c0 fe ff
	ff		 lea	 eax, DWORD PTR ___encStr$607969[ebp]
  0050b	c7 85 d0 fe ff
	ff 82 c9 8f 00	 mov	 DWORD PTR ___encStr$607969[ebp+16], 9423234 ; 008fc982H
  00515	59		 pop	 ecx
$LL913@LoadProper:
  00516	81 30 ed ec eb
	ea		 xor	 DWORD PTR [eax], -353637139 ; eaebecedH
  0051c	83 c0 04	 add	 eax, 4
  0051f	49		 dec	 ecx
  00520	75 f4		 jne	 SHORT $LL913@LoadProper
  00522	6a 10		 push	 16			; 00000010H
  00524	58		 pop	 eax
$LL910@LoadProper:
  00525	8b c8		 mov	 ecx, eax
  00527	81 e1 03 00 00
	80		 and	 ecx, -2147483645	; 80000003H
  0052d	79 05		 jns	 SHORT $LN2732@LoadProper
  0052f	49		 dec	 ecx
  00530	83 c9 fc	 or	 ecx, -4			; fffffffcH
  00533	41		 inc	 ecx
$LN2732@LoadProper:
  00534	b2 ed		 mov	 dl, -19			; ffffffedH
  00536	2a d1		 sub	 dl, cl
  00538	30 94 05 c0 fe
	ff ff		 xor	 BYTE PTR ___encStr$607969[ebp+eax], dl
  0053f	40		 inc	 eax
  00540	83 f8 13	 cmp	 eax, 19			; 00000013H
  00543	7c e0		 jl	 SHORT $LL910@LoadProper
  00545	8b 85 a0 fb ff
	ff		 mov	 eax, DWORD PTR _i$607961[ebp]
  0054b	40		 inc	 eax
  0054c	50		 push	 eax
  0054d	89 85 a0 fb ff
	ff		 mov	 DWORD PTR tv17402[ebp], eax
  00553	8d 85 c0 fe ff
	ff		 lea	 eax, DWORD PTR ___encStr$607969[ebp]
  00559	50		 push	 eax
  0055a	8d 85 ac fc ff
	ff		 lea	 eax, DWORD PTR _szKey$[ebp]
  00560	50		 push	 eax
  00561	ff 15 00 00 00
	00		 call	 DWORD PTR __imp__wsprintfA

; 141  : 			LoadAttackAttribute( szKey, kComboAttack, rkLoader );

  00567	ff b5 a4 fb ff
	ff		 push	 DWORD PTR _rkLoader$GSCopy$[ebp]
  0056d	8d 85 f8 fa ff
	ff		 lea	 eax, DWORD PTR _kComboAttack$607965[ebp]
  00573	50		 push	 eax
  00574	8d 85 ac fc ff
	ff		 lea	 eax, DWORD PTR _szKey$[ebp]
  0057a	50		 push	 eax
  0057b	e8 00 00 00 00	 call	 ?LoadAttackAttribute@@YAXPBDAAUAttackAttribute@@AAVioINILoader@@@Z ; LoadAttackAttribute
  00580	83 c4 18	 add	 esp, 24			; 00000018H

; 142  : 
; 143  : 			m_vDownComboList.push_back( kComboAttack );

  00583	8d 85 f8 fa ff
	ff		 lea	 eax, DWORD PTR _kComboAttack$607965[ebp]
  00589	50		 push	 eax
  0058a	8d 8e 08 11 00
	00		 lea	 ecx, DWORD PTR [esi+4360]
  00590	e8 00 00 00 00	 call	 ?push_back@?$vector@UAttackAttribute@@V?$allocator@UAttackAttribute@@@std@@@std@@QAEXABUAttackAttribute@@@Z ; std::vector<AttackAttribute,std::allocator<AttackAttribute> >::push_back

; 144  : 		}

  00595	83 4d fc ff	 or	 DWORD PTR __$EHRec$[ebp+8], -1
  00599	8d 8d f8 fa ff
	ff		 lea	 ecx, DWORD PTR _kComboAttack$607965[ebp]
  0059f	e8 00 00 00 00	 call	 ??1AttackAttribute@@QAE@XZ
  005a4	8b 85 a0 fb ff
	ff		 mov	 eax, DWORD PTR tv17402[ebp]
  005aa	89 85 a0 fb ff
	ff		 mov	 DWORD PTR _i$607961[ebp], eax
  005b0	3b 85 9c fb ff
	ff		 cmp	 eax, DWORD PTR _iDownComboCnt$[ebp]
  005b6	0f 8c 0d ff ff
	ff		 jl	 $LL201@LoadProper
$LN199@LoadProper:

; 145  : 	}
; 146  : 
; 147  : 	m_dwSkillProtectTime = (DWORD)rkLoader.LoadInt_e( "skill_protect_time", 0 );

  005bc	6a 04		 push	 4
  005be	c7 45 d8 9e 87
	82 86		 mov	 DWORD PTR __k$622665[ebp], -2038265954 ; 8682879eH
  005c5	c7 45 dc 81 b3
	9b 98		 mov	 DWORD PTR __k$622665[ebp+4], -1734626431 ; 989bb381H
  005cc	c7 45 e0 82 98
	8e 89		 mov	 DWORD PTR __k$622665[ebp+8], -1987143550 ; 898e9882H
  005d3	c7 45 e4 99 b3
	9f 83		 mov	 DWORD PTR __k$622665[ebp+12], -2086685799 ; 839fb399H
  005da	66 c7 45 e8 80
	89		 mov	 WORD PTR __k$622665[ebp+16], 35200 ; 00008980H
  005e0	8d 45 d8	 lea	 eax, DWORD PTR __k$622665[ebp]
  005e3	88 5d ea	 mov	 BYTE PTR __k$622665[ebp+18], bl
  005e6	59		 pop	 ecx
$LL1019@LoadProper:
  005e7	81 30 ed ec eb
	ea		 xor	 DWORD PTR [eax], -353637139 ; eaebecedH
  005ed	83 c0 04	 add	 eax, 4
  005f0	49		 dec	 ecx
  005f1	75 f4		 jne	 SHORT $LL1019@LoadProper
  005f3	6a 10		 push	 16			; 00000010H
  005f5	5f		 pop	 edi
$LL1016@LoadProper:
  005f6	8b c7		 mov	 eax, edi
  005f8	25 03 00 00 80	 and	 eax, -2147483645	; 80000003H
  005fd	79 05		 jns	 SHORT $LN2733@LoadProper
  005ff	48		 dec	 eax
  00600	83 c8 fc	 or	 eax, -4			; fffffffcH
  00603	40		 inc	 eax
$LN2733@LoadProper:
  00604	b1 ed		 mov	 cl, -19			; ffffffedH
  00606	2a c8		 sub	 cl, al
  00608	30 4c 3d d8	 xor	 BYTE PTR __k$622665[ebp+edi], cl
  0060c	47		 inc	 edi
  0060d	83 ff 12	 cmp	 edi, 18			; 00000012H
  00610	7c e4		 jl	 SHORT $LL1016@LoadProper
  00612	8b 8d a4 fb ff
	ff		 mov	 ecx, DWORD PTR _rkLoader$GSCopy$[ebp]
  00618	53		 push	 ebx
  00619	8d 45 d8	 lea	 eax, DWORD PTR __k$622665[ebp]
  0061c	50		 push	 eax
  0061d	ff 15 00 00 00
	00		 call	 DWORD PTR __imp_?LoadInt@ioINILoader@@QAEHPBDH@Z
  00623	89 86 70 11 00
	00		 mov	 DWORD PTR [esi+4464], eax
  00629	6a 04		 push	 4

; 148  : 
; 149  : 	m_bAutoComboAction = rkLoader.LoadBool_e( "auto_combo_action", false );

  0062b	c7 45 c0 8c 99
	9f 85		 mov	 DWORD PTR __k$622790[ebp], -2053138036 ; 859f998cH
  00632	c7 45 c4 b2 8f
	84 87		 mov	 DWORD PTR __k$622790[ebp+4], -2021355598 ; 87848fb2H
  00639	c7 45 c8 8f 83
	b4 8b		 mov	 DWORD PTR __k$622790[ebp+8], -1951104113 ; 8bb4838fH
  00640	c7 45 cc 8e 98
	82 85		 mov	 DWORD PTR __k$622790[ebp+12], -2055038834 ; 8582988eH
  00647	8d 45 c0	 lea	 eax, DWORD PTR __k$622790[ebp]
  0064a	66 c7 45 d0 83
	00		 mov	 WORD PTR __k$622790[ebp+16], 131 ; 00000083H
  00650	59		 pop	 ecx
$LL1125@LoadProper:
  00651	81 30 ed ec eb
	ea		 xor	 DWORD PTR [eax], -353637139 ; eaebecedH
  00657	83 c0 04	 add	 eax, 4
  0065a	49		 dec	 ecx
  0065b	75 f4		 jne	 SHORT $LL1125@LoadProper
  0065d	8b 8d a4 fb ff
	ff		 mov	 ecx, DWORD PTR _rkLoader$GSCopy$[ebp]
  00663	8b 3d 00 00 00
	00		 mov	 edi, DWORD PTR __imp_?LoadBool@ioINILoader@@QAE_NPBD_N@Z
  00669	80 75 d0 ed	 xor	 BYTE PTR __k$622790[ebp+16], -19 ; ffffffedH
  0066d	53		 push	 ebx
  0066e	8d 45 c0	 lea	 eax, DWORD PTR __k$622790[ebp]
  00671	50		 push	 eax
  00672	ff d7		 call	 edi
  00674	88 86 78 11 00
	00		 mov	 BYTE PTR [esi+4472], al
  0067a	6a 05		 push	 5

; 150  : 
; 151  : 	//
; 152  : 	m_bUseEndOtherAttack = rkLoader.LoadBool_e( "use_end_other_attack", false );

  0067c	c7 85 14 fe ff
	ff 98 9f 8e b5	 mov	 DWORD PTR __k$622915[ebp], -1248944232 ; b58e9f98H
  00686	c7 85 18 fe ff
	ff 88 82 8f b5	 mov	 DWORD PTR __k$622915[ebp+4], -1248886136 ; b58f8288H
  00690	c7 85 1c fe ff
	ff 82 98 83 8f	 mov	 DWORD PTR __k$622915[ebp+8], -1887201150 ; 8f839882H
  0069a	c7 85 20 fe ff
	ff 9f b3 8a 9e	 mov	 DWORD PTR __k$622915[ebp+12], -1635077217 ; 9e8ab39fH
  006a4	c7 85 24 fe ff
	ff 99 8d 88 81	 mov	 DWORD PTR __k$622915[ebp+16], -2121757287 ; 81888d99H
  006ae	8d 85 14 fe ff
	ff		 lea	 eax, DWORD PTR __k$622915[ebp]
  006b4	88 9d 28 fe ff
	ff		 mov	 BYTE PTR __k$622915[ebp+20], bl
  006ba	59		 pop	 ecx
$LL1231@LoadProper:
  006bb	81 30 ed ec eb
	ea		 xor	 DWORD PTR [eax], -353637139 ; eaebecedH
  006c1	83 c0 04	 add	 eax, 4
  006c4	49		 dec	 ecx
  006c5	75 f4		 jne	 SHORT $LL1231@LoadProper
  006c7	8b 8d a4 fb ff
	ff		 mov	 ecx, DWORD PTR _rkLoader$GSCopy$[ebp]
  006cd	53		 push	 ebx
  006ce	8d 85 14 fe ff
	ff		 lea	 eax, DWORD PTR __k$622915[ebp]
  006d4	50		 push	 eax
  006d5	ff d7		 call	 edi
  006d7	88 86 80 11 00
	00		 mov	 BYTE PTR [esi+4480], al
  006dd	6a 04		 push	 4

; 153  : 
; 154  : 	LoadAttackAttribute_e( "end_other_attack", m_EndOtherAttack, rkLoader );

  006df	c7 85 c8 fd ff
	ff 88 82 8f b5	 mov	 DWORD PTR _szEncAttack$623040[ebp], -1248886136 ; b58f8288H
  006e9	c7 85 cc fd ff
	ff 82 98 83 8f	 mov	 DWORD PTR _szEncAttack$623040[ebp+4], -1887201150 ; 8f839882H
  006f3	c7 85 d0 fd ff
	ff 9f b3 8a 9e	 mov	 DWORD PTR _szEncAttack$623040[ebp+8], -1635077217 ; 9e8ab39fH
  006fd	c7 85 d4 fd ff
	ff 99 8d 88 81	 mov	 DWORD PTR _szEncAttack$623040[ebp+12], -2121757287 ; 81888d99H
  00707	8d 85 c8 fd ff
	ff		 lea	 eax, DWORD PTR _szEncAttack$623040[ebp]
  0070d	88 9d d8 fd ff
	ff		 mov	 BYTE PTR _szEncAttack$623040[ebp+16], bl
  00713	59		 pop	 ecx
$LL1337@LoadProper:
  00714	81 30 ed ec eb
	ea		 xor	 DWORD PTR [eax], -353637139 ; eaebecedH
  0071a	83 c0 04	 add	 eax, 4
  0071d	49		 dec	 ecx
  0071e	75 f4		 jne	 SHORT $LL1337@LoadProper
  00720	ff b5 a4 fb ff
	ff		 push	 DWORD PTR _rkLoader$GSCopy$[ebp]
  00726	8d 86 84 11 00
	00		 lea	 eax, DWORD PTR [esi+4484]
  0072c	50		 push	 eax
  0072d	8d 85 c8 fd ff
	ff		 lea	 eax, DWORD PTR _szEncAttack$623040[ebp]
  00733	50		 push	 eax
  00734	e8 00 00 00 00	 call	 ?LoadAttackAttribute@@YAXPBDAAUAttackAttribute@@AAVioINILoader@@@Z ; LoadAttackAttribute
  00739	83 c4 0c	 add	 esp, 12			; 0000000cH
  0073c	6a 05		 push	 5

; 155  : 
; 156  : 	LoadAttackAttribute_e( "jump_end_other_attack", m_JumpEndOtherAttack, rkLoader );

  0073e	c7 85 4c fe ff
	ff 87 99 86 9a	 mov	 DWORD PTR _szEncAttack$623208[ebp], -1702454905 ; 9a869987H
  00748	c7 85 50 fe ff
	ff b2 89 85 8e	 mov	 DWORD PTR _szEncAttack$623208[ebp+4], -1903851086 ; 8e8589b2H
  00752	c7 85 54 fe ff
	ff b2 83 9f 82	 mov	 DWORD PTR _szEncAttack$623208[ebp+8], -2103475278 ; 829f83b2H
  0075c	c7 85 58 fe ff
	ff 88 9e b4 8b	 mov	 DWORD PTR _szEncAttack$623208[ebp+12], -1951097208 ; 8bb49e88H
  00766	c7 85 5c fe ff
	ff 99 98 8a 89	 mov	 DWORD PTR _szEncAttack$623208[ebp+16], -1987405671 ; 898a9899H
  00770	8d 85 4c fe ff
	ff		 lea	 eax, DWORD PTR _szEncAttack$623208[ebp]
  00776	66 c7 85 60 fe
	ff ff 86 00	 mov	 WORD PTR _szEncAttack$623208[ebp+20], 134 ; 00000086H
  0077f	59		 pop	 ecx
$LL1443@LoadProper:
  00780	81 30 ed ec eb
	ea		 xor	 DWORD PTR [eax], -353637139 ; eaebecedH
  00786	83 c0 04	 add	 eax, 4
  00789	49		 dec	 ecx
  0078a	75 f4		 jne	 SHORT $LL1443@LoadProper
  0078c	ff b5 a4 fb ff
	ff		 push	 DWORD PTR _rkLoader$GSCopy$[ebp]
  00792	80 b5 60 fe ff
	ff ed		 xor	 BYTE PTR _szEncAttack$623208[ebp+20], -19 ; ffffffedH
  00799	8d 86 d4 11 00
	00		 lea	 eax, DWORD PTR [esi+4564]
  0079f	50		 push	 eax
  007a0	8d 85 4c fe ff
	ff		 lea	 eax, DWORD PTR _szEncAttack$623208[ebp]
  007a6	50		 push	 eax
  007a7	e8 00 00 00 00	 call	 ?LoadAttackAttribute@@YAXPBDAAUAttackAttribute@@AAVioINILoader@@@Z ; LoadAttackAttribute
  007ac	83 c4 0c	 add	 esp, 12			; 0000000cH
  007af	6a 05		 push	 5

; 157  : 
; 158  : 	LoadAttackAttribute_e( "down_end_other_attack", m_DownEndOtherAttack, rkLoader );

  007b1	c7 45 8c 89 83
	9c 84		 mov	 DWORD PTR _szEncAttack$623333[ebp], -2070117495 ; 849c8389H
  007b8	c7 45 90 b2 89
	85 8e		 mov	 DWORD PTR _szEncAttack$623333[ebp+4], -1903851086 ; 8e8589b2H
  007bf	c7 45 94 b2 83
	9f 82		 mov	 DWORD PTR _szEncAttack$623333[ebp+8], -2103475278 ; 829f83b2H
  007c6	c7 45 98 88 9e
	b4 8b		 mov	 DWORD PTR _szEncAttack$623333[ebp+12], -1951097208 ; 8bb49e88H
  007cd	c7 45 9c 99 98
	8a 89		 mov	 DWORD PTR _szEncAttack$623333[ebp+16], -1987405671 ; 898a9899H
  007d4	8d 45 8c	 lea	 eax, DWORD PTR _szEncAttack$623333[ebp]
  007d7	66 c7 45 a0 86
	00		 mov	 WORD PTR _szEncAttack$623333[ebp+20], 134 ; 00000086H
  007dd	59		 pop	 ecx
$LL1549@LoadProper:
  007de	81 30 ed ec eb
	ea		 xor	 DWORD PTR [eax], -353637139 ; eaebecedH
  007e4	83 c0 04	 add	 eax, 4
  007e7	49		 dec	 ecx
  007e8	75 f4		 jne	 SHORT $LL1549@LoadProper
  007ea	ff b5 a4 fb ff
	ff		 push	 DWORD PTR _rkLoader$GSCopy$[ebp]
  007f0	80 75 a0 ed	 xor	 BYTE PTR _szEncAttack$623333[ebp+20], -19 ; ffffffedH
  007f4	8d 86 24 12 00
	00		 lea	 eax, DWORD PTR [esi+4644]
  007fa	50		 push	 eax
  007fb	8d 45 8c	 lea	 eax, DWORD PTR _szEncAttack$623333[ebp]
  007fe	50		 push	 eax
  007ff	e8 00 00 00 00	 call	 ?LoadAttackAttribute@@YAXPBDAAUAttackAttribute@@AAVioINILoader@@@Z ; LoadAttackAttribute
  00804	83 c4 0c	 add	 esp, 12			; 0000000cH
  00807	6a 04		 push	 4

; 159  : 
; 160  : 	//
; 161  : 	m_bNoGravityCombo = rkLoader.LoadBool_e( "no_gravity_combo", false );

  00809	c7 85 e0 fd ff
	ff 83 83 b4 8d	 mov	 DWORD PTR __k$623402[ebp], -1917549693 ; 8db48383H
  00813	c7 85 e4 fd ff
	ff 9f 8d 9d 83	 mov	 DWORD PTR __k$623402[ebp+4], -2086826593 ; 839d8d9fH
  0081d	c7 85 e8 fd ff
	ff 99 95 b4 89	 mov	 DWORD PTR __k$623402[ebp+8], -1984653927 ; 89b49599H
  00827	c7 85 ec fd ff
	ff 82 81 89 85	 mov	 DWORD PTR __k$623402[ebp+12], -2054585982 ; 85898182H
  00831	8d 85 e0 fd ff
	ff		 lea	 eax, DWORD PTR __k$623402[ebp]
  00837	88 9d f0 fd ff
	ff		 mov	 BYTE PTR __k$623402[ebp+16], bl
  0083d	59		 pop	 ecx
$LL1655@LoadProper:
  0083e	81 30 ed ec eb
	ea		 xor	 DWORD PTR [eax], -353637139 ; eaebecedH
  00844	83 c0 04	 add	 eax, 4
  00847	49		 dec	 ecx
  00848	75 f4		 jne	 SHORT $LL1655@LoadProper
  0084a	8b 8d a4 fb ff
	ff		 mov	 ecx, DWORD PTR _rkLoader$GSCopy$[ebp]
  00850	53		 push	 ebx
  00851	8d 85 e0 fd ff
	ff		 lea	 eax, DWORD PTR __k$623402[ebp]
  00857	50		 push	 eax
  00858	ff d7		 call	 edi
  0085a	88 85 9b fb ff
	ff		 mov	 BYTE PTR _value$623514[ebp], al
  00860	8d 85 9b fb ff
	ff		 lea	 eax, DWORD PTR _value$623514[ebp]
  00866	50		 push	 eax
  00867	8d 8e 74 12 00
	00		 lea	 ecx, DWORD PTR [esi+4724]
  0086d	e8 00 00 00 00	 call	 ?EncryptValueToPool@?$CEncrypt@_N@@AAEXPBD@Z ; CEncrypt<bool>::EncryptValueToPool
  00872	6a 03		 push	 3

; 162  : 
; 163  : 	// retreat
; 164  : 	LoadAttackAttribute_e( "retreat_attack", m_RetreatAttack, rkLoader );

  00874	c7 85 04 ff ff
	ff 9f 89 9f 98	 mov	 DWORD PTR _szEncAttack$623532[ebp], -1734375009 ; 989f899fH
  0087e	c7 85 08 ff ff
	ff 88 8d 9f b5	 mov	 DWORD PTR _szEncAttack$623532[ebp+4], -1247834744 ; b59f8d88H
  00888	c7 85 0c ff ff
	ff 8c 98 9f 8b	 mov	 DWORD PTR _szEncAttack$623532[ebp+8], -1952474996 ; 8b9f988cH
  00892	66 c7 85 10 ff
	ff ff 8e 87	 mov	 WORD PTR _szEncAttack$623532[ebp+12], 34702 ; 0000878eH
  0089b	8d 85 04 ff ff
	ff		 lea	 eax, DWORD PTR _szEncAttack$623532[ebp]
  008a1	88 9d 12 ff ff
	ff		 mov	 BYTE PTR _szEncAttack$623532[ebp+14], bl
  008a7	59		 pop	 ecx
$LL1763@LoadProper:
  008a8	81 30 ed ec eb
	ea		 xor	 DWORD PTR [eax], -353637139 ; eaebecedH
  008ae	83 c0 04	 add	 eax, 4
  008b1	49		 dec	 ecx
  008b2	75 f4		 jne	 SHORT $LL1763@LoadProper
  008b4	6a 0c		 push	 12			; 0000000cH
  008b6	58		 pop	 eax
$LL1760@LoadProper:
  008b7	8b c8		 mov	 ecx, eax
  008b9	81 e1 03 00 00
	80		 and	 ecx, -2147483645	; 80000003H
  008bf	79 05		 jns	 SHORT $LN2734@LoadProper
  008c1	49		 dec	 ecx
  008c2	83 c9 fc	 or	 ecx, -4			; fffffffcH
  008c5	41		 inc	 ecx
$LN2734@LoadProper:
  008c6	b2 ed		 mov	 dl, -19			; ffffffedH
  008c8	2a d1		 sub	 dl, cl
  008ca	30 94 05 04 ff
	ff ff		 xor	 BYTE PTR _szEncAttack$623532[ebp+eax], dl
  008d1	40		 inc	 eax
  008d2	83 f8 0e	 cmp	 eax, 14			; 0000000eH
  008d5	7c e0		 jl	 SHORT $LL1760@LoadProper
  008d7	ff b5 a4 fb ff
	ff		 push	 DWORD PTR _rkLoader$GSCopy$[ebp]
  008dd	8d 86 08 13 00
	00		 lea	 eax, DWORD PTR [esi+4872]
  008e3	50		 push	 eax
  008e4	8d 85 04 ff ff
	ff		 lea	 eax, DWORD PTR _szEncAttack$623532[ebp]
  008ea	50		 push	 eax
  008eb	e8 00 00 00 00	 call	 ?LoadAttackAttribute@@YAXPBDAAUAttackAttribute@@AAVioINILoader@@@Z ; LoadAttackAttribute
  008f0	83 c4 0c	 add	 esp, 12			; 0000000cH
  008f3	6a 03		 push	 3

; 165  : 
; 166  : 	m_iMaxRetreatCnt = rkLoader.LoadInt_e( "retreat_max_cnt", 0 );

  008f5	c7 85 68 fe ff
	ff 9f 89 9f 98	 mov	 DWORD PTR __k$623670[ebp], -1734375009 ; 989f899fH
  008ff	c7 85 6c fe ff
	ff 88 8d 9f b5	 mov	 DWORD PTR __k$623670[ebp+4], -1247834744 ; b59f8d88H
  00909	c7 85 70 fe ff
	ff 80 8d 93 b5	 mov	 DWORD PTR __k$623670[ebp+8], -1248621184 ; b5938d80H
  00913	8d 85 68 fe ff
	ff		 lea	 eax, DWORD PTR __k$623670[ebp]
  00919	c7 85 74 fe ff
	ff 8e 82 9f 00	 mov	 DWORD PTR __k$623670[ebp+12], 10453646 ; 009f828eH
  00923	59		 pop	 ecx
$LL1869@LoadProper:
  00924	81 30 ed ec eb
	ea		 xor	 DWORD PTR [eax], -353637139 ; eaebecedH
  0092a	83 c0 04	 add	 eax, 4
  0092d	49		 dec	 ecx
  0092e	75 f4		 jne	 SHORT $LL1869@LoadProper
  00930	6a 0c		 push	 12			; 0000000cH
  00932	58		 pop	 eax
$LL1866@LoadProper:
  00933	8b c8		 mov	 ecx, eax
  00935	81 e1 03 00 00
	80		 and	 ecx, -2147483645	; 80000003H
  0093b	79 05		 jns	 SHORT $LN2735@LoadProper
  0093d	49		 dec	 ecx
  0093e	83 c9 fc	 or	 ecx, -4			; fffffffcH
  00941	41		 inc	 ecx
$LN2735@LoadProper:
  00942	b2 ed		 mov	 dl, -19			; ffffffedH
  00944	2a d1		 sub	 dl, cl
  00946	30 94 05 68 fe
	ff ff		 xor	 BYTE PTR __k$623670[ebp+eax], dl
  0094d	40		 inc	 eax
  0094e	83 f8 0f	 cmp	 eax, 15			; 0000000fH
  00951	7c e0		 jl	 SHORT $LL1866@LoadProper
  00953	8b 8d a4 fb ff
	ff		 mov	 ecx, DWORD PTR _rkLoader$GSCopy$[ebp]
  00959	53		 push	 ebx
  0095a	8d 85 68 fe ff
	ff		 lea	 eax, DWORD PTR __k$623670[ebp]
  00960	50		 push	 eax
  00961	ff 15 00 00 00
	00		 call	 DWORD PTR __imp_?LoadInt@ioINILoader@@QAEHPBDH@Z
  00967	50		 push	 eax
  00968	8d 8e 58 13 00
	00		 lea	 ecx, DWORD PTR [esi+4952]
  0096e	e8 00 00 00 00	 call	 ??4?$CEncrypt@H@@QAEHH@Z ; CEncrypt<int>::operator=
  00973	6a 05		 push	 5

; 167  : 
; 168  : 	m_bUseChangeDirection = rkLoader.LoadBool_e( "use_change_direction", true );

  00975	c7 85 f8 fd ff
	ff 98 9f 8e b5	 mov	 DWORD PTR __k$623795[ebp], -1248944232 ; b58e9f98H
  0097f	c7 85 fc fd ff
	ff 8e 84 8a 84	 mov	 DWORD PTR __k$623795[ebp+4], -2071296882 ; 848a848eH
  00989	c7 85 00 fe ff
	ff 8a 89 b4 8e	 mov	 DWORD PTR __k$623795[ebp+8], -1900770934 ; 8eb4898aH
  00993	c7 85 04 fe ff
	ff 84 9e 8e 89	 mov	 DWORD PTR __k$623795[ebp+12], -1987142012 ; 898e9e84H
  0099d	c7 85 08 fe ff
	ff 99 85 84 84	 mov	 DWORD PTR __k$623795[ebp+16], -2071689831 ; 84848599H
  009a7	8d 85 f8 fd ff
	ff		 lea	 eax, DWORD PTR __k$623795[ebp]
  009ad	88 9d 0c fe ff
	ff		 mov	 BYTE PTR __k$623795[ebp+20], bl
  009b3	59		 pop	 ecx
$LL1975@LoadProper:
  009b4	81 30 ed ec eb
	ea		 xor	 DWORD PTR [eax], -353637139 ; eaebecedH
  009ba	83 c0 04	 add	 eax, 4
  009bd	49		 dec	 ecx
  009be	75 f4		 jne	 SHORT $LL1975@LoadProper
  009c0	8b 8d a4 fb ff
	ff		 mov	 ecx, DWORD PTR _rkLoader$GSCopy$[ebp]
  009c6	6a 01		 push	 1
  009c8	8d 85 f8 fd ff
	ff		 lea	 eax, DWORD PTR __k$623795[ebp]
  009ce	50		 push	 eax
  009cf	ff d7		 call	 edi
  009d1	88 86 c8 13 00
	00		 mov	 BYTE PTR [esi+5064], al
  009d7	6a 04		 push	 4

; 169  : 	m_bCheckJumpNoDrop = rkLoader.LoadBool_e( "check_jump_no_drop", false );

  009d9	c7 85 44 ff ff
	ff 8e 84 8e 89	 mov	 DWORD PTR __k$623920[ebp], -1987148658 ; 898e848eH
  009e3	c7 85 48 ff ff
	ff 86 b3 81 9f	 mov	 DWORD PTR __k$623920[ebp+4], -1618889850 ; 9f81b386H
  009ed	c7 85 4c ff ff
	ff 80 9c b4 84	 mov	 DWORD PTR __k$623920[ebp+8], -2068538240 ; 84b49c80H
  009f7	c7 85 50 ff ff
	ff 82 b3 8f 98	 mov	 DWORD PTR __k$623920[ebp+12], -1735412862 ; 988fb382H
  00a01	66 c7 85 54 ff
	ff ff 82 9c	 mov	 WORD PTR __k$623920[ebp+16], 40066 ; 00009c82H
  00a0a	8d 85 44 ff ff
	ff		 lea	 eax, DWORD PTR __k$623920[ebp]
  00a10	88 9d 56 ff ff
	ff		 mov	 BYTE PTR __k$623920[ebp+18], bl
  00a16	59		 pop	 ecx
$LL2081@LoadProper:
  00a17	81 30 ed ec eb
	ea		 xor	 DWORD PTR [eax], -353637139 ; eaebecedH
  00a1d	83 c0 04	 add	 eax, 4
  00a20	49		 dec	 ecx
  00a21	75 f4		 jne	 SHORT $LL2081@LoadProper
  00a23	6a 10		 push	 16			; 00000010H
  00a25	58		 pop	 eax
$LL2078@LoadProper:
  00a26	8b c8		 mov	 ecx, eax
  00a28	81 e1 03 00 00
	80		 and	 ecx, -2147483645	; 80000003H
  00a2e	79 05		 jns	 SHORT $LN2736@LoadProper
  00a30	49		 dec	 ecx
  00a31	83 c9 fc	 or	 ecx, -4			; fffffffcH
  00a34	41		 inc	 ecx
$LN2736@LoadProper:
  00a35	b2 ed		 mov	 dl, -19			; ffffffedH
  00a37	2a d1		 sub	 dl, cl
  00a39	30 94 05 44 ff
	ff ff		 xor	 BYTE PTR __k$623920[ebp+eax], dl
  00a40	40		 inc	 eax
  00a41	83 f8 12	 cmp	 eax, 18			; 00000012H
  00a44	7c e0		 jl	 SHORT $LL2078@LoadProper
  00a46	8b 8d a4 fb ff
	ff		 mov	 ecx, DWORD PTR _rkLoader$GSCopy$[ebp]
  00a4c	53		 push	 ebx
  00a4d	8d 85 44 ff ff
	ff		 lea	 eax, DWORD PTR __k$623920[ebp]
  00a53	50		 push	 eax
  00a54	ff d7		 call	 edi
  00a56	88 86 c9 13 00
	00		 mov	 BYTE PTR [esi+5065], al
  00a5c	6a 04		 push	 4

; 170  : 	m_bUseEndJumpPower = rkLoader.LoadBool_e( "use_end_jump_power", false );

  00a5e	c7 85 18 ff ff
	ff 98 9f 8e b5	 mov	 DWORD PTR __k$624045[ebp], -1248944232 ; b58e9f98H
  00a68	c7 85 1c ff ff
	ff 88 82 8f b5	 mov	 DWORD PTR __k$624045[ebp+4], -1248886136 ; b58f8288H
  00a72	c7 85 20 ff ff
	ff 87 99 86 9a	 mov	 DWORD PTR __k$624045[ebp+8], -1702454905 ; 9a869987H
  00a7c	c7 85 24 ff ff
	ff b2 9c 84 9d	 mov	 DWORD PTR __k$624045[ebp+12], -1652253518 ; 9d849cb2H
  00a86	66 c7 85 28 ff
	ff ff 88 9e	 mov	 WORD PTR __k$624045[ebp+16], 40584 ; 00009e88H
  00a8f	8d 85 18 ff ff
	ff		 lea	 eax, DWORD PTR __k$624045[ebp]
  00a95	88 9d 2a ff ff
	ff		 mov	 BYTE PTR __k$624045[ebp+18], bl
  00a9b	59		 pop	 ecx
$LL2187@LoadProper:
  00a9c	81 30 ed ec eb
	ea		 xor	 DWORD PTR [eax], -353637139 ; eaebecedH
  00aa2	83 c0 04	 add	 eax, 4
  00aa5	49		 dec	 ecx
  00aa6	75 f4		 jne	 SHORT $LL2187@LoadProper
  00aa8	6a 10		 push	 16			; 00000010H
  00aaa	58		 pop	 eax
$LL2184@LoadProper:
  00aab	8b c8		 mov	 ecx, eax
  00aad	81 e1 03 00 00
	80		 and	 ecx, -2147483645	; 80000003H
  00ab3	79 05		 jns	 SHORT $LN2737@LoadProper
  00ab5	49		 dec	 ecx
  00ab6	83 c9 fc	 or	 ecx, -4			; fffffffcH
  00ab9	41		 inc	 ecx
$LN2737@LoadProper:
  00aba	b2 ed		 mov	 dl, -19			; ffffffedH
  00abc	2a d1		 sub	 dl, cl
  00abe	30 94 05 18 ff
	ff ff		 xor	 BYTE PTR __k$624045[ebp+eax], dl
  00ac5	40		 inc	 eax
  00ac6	83 f8 12	 cmp	 eax, 18			; 00000012H
  00ac9	7c e0		 jl	 SHORT $LL2184@LoadProper
  00acb	8b 8d a4 fb ff
	ff		 mov	 ecx, DWORD PTR _rkLoader$GSCopy$[ebp]
  00ad1	53		 push	 ebx
  00ad2	8d 85 18 ff ff
	ff		 lea	 eax, DWORD PTR __k$624045[ebp]
  00ad8	50		 push	 eax
  00ad9	ff d7		 call	 edi
  00adb	88 86 ca 13 00
	00		 mov	 BYTE PTR [esi+5066], al
  00ae1	6a 03		 push	 3

; 171  : 
; 172  : 	//
; 173  : 	rkLoader.LoadString_e( "area_map_effect", "", szBuf, MAX_PATH );

  00ae3	c7 85 d8 fe ff
	ff 8c 9e 8e 8b	 mov	 DWORD PTR __k$624170[ebp], -1953587572 ; 8b8e9e8cH
  00aed	c7 85 dc fe ff
	ff b2 81 8a 9a	 mov	 DWORD PTR __k$624170[ebp+4], -1702198862 ; 9a8a81b2H
  00af7	c7 85 e0 fe ff
	ff b2 89 8d 8c	 mov	 DWORD PTR __k$624170[ebp+8], -1936881230 ; 8c8d89b2H
  00b01	8d 85 d8 fe ff
	ff		 lea	 eax, DWORD PTR __k$624170[ebp]
  00b07	c7 85 e4 fe ff
	ff 88 8f 9f 00	 mov	 DWORD PTR __k$624170[ebp+12], 10456968 ; 009f8f88H
  00b11	59		 pop	 ecx
$LL2293@LoadProper:
  00b12	81 30 ed ec eb
	ea		 xor	 DWORD PTR [eax], -353637139 ; eaebecedH
  00b18	83 c0 04	 add	 eax, 4
  00b1b	49		 dec	 ecx
  00b1c	75 f4		 jne	 SHORT $LL2293@LoadProper
  00b1e	6a 0c		 push	 12			; 0000000cH
  00b20	58		 pop	 eax
$LL2290@LoadProper:
  00b21	8b c8		 mov	 ecx, eax
  00b23	81 e1 03 00 00
	80		 and	 ecx, -2147483645	; 80000003H
  00b29	79 05		 jns	 SHORT $LN2738@LoadProper
  00b2b	49		 dec	 ecx
  00b2c	83 c9 fc	 or	 ecx, -4			; fffffffcH
  00b2f	41		 inc	 ecx
$LN2738@LoadProper:
  00b30	b2 ed		 mov	 dl, -19			; ffffffedH
  00b32	2a d1		 sub	 dl, cl
  00b34	30 94 05 d8 fe
	ff ff		 xor	 BYTE PTR __k$624170[ebp+eax], dl
  00b3b	40		 inc	 eax
  00b3c	83 f8 0f	 cmp	 eax, 15			; 0000000fH
  00b3f	7c e0		 jl	 SHORT $LL2290@LoadProper
  00b41	8b 8d a4 fb ff
	ff		 mov	 ecx, DWORD PTR _rkLoader$GSCopy$[ebp]
  00b47	68 04 01 00 00	 push	 260			; 00000104H
  00b4c	8d 85 a8 fb ff
	ff		 lea	 eax, DWORD PTR _szBuf$[ebp]
  00b52	50		 push	 eax
  00b53	68 00 00 00 00	 push	 OFFSET ??_C@_00CNPNBAHC@?$AA@
  00b58	8d 85 d8 fe ff
	ff		 lea	 eax, DWORD PTR __k$624170[ebp]
  00b5e	50		 push	 eax
  00b5f	ff 15 00 00 00
	00		 call	 DWORD PTR __imp_?LoadStringA@ioINILoader@@QAEXPBD0PADH@Z

; 174  : 	m_stAreaMapEffect = szBuf;

  00b65	8d 85 a8 fb ff
	ff		 lea	 eax, DWORD PTR _szBuf$[ebp]
  00b6b	50		 push	 eax
  00b6c	8d 8e d0 13 00
	00		 lea	 ecx, DWORD PTR [esi+5072]
  00b72	ff 15 00 00 00
	00		 call	 DWORD PTR __imp_??4ioHashString@@QAEAAV0@PBD@Z
  00b78	6a 06		 push	 6

; 175  : 	m_fAreaMapEffectLookOffset = rkLoader.LoadFloat_e( "area_map_effect_look_offset", 0.f );

  00b7a	c7 85 6c ff ff
	ff 8c 9e 8e 8b	 mov	 DWORD PTR __k$624295[ebp], -1953587572 ; 8b8e9e8cH
  00b84	c7 85 70 ff ff
	ff b2 81 8a 9a	 mov	 DWORD PTR __k$624295[ebp+4], -1702198862 ; 9a8a81b2H
  00b8e	c7 85 74 ff ff
	ff b2 89 8d 8c	 mov	 DWORD PTR __k$624295[ebp+8], -1936881230 ; 8c8d89b2H
  00b98	c7 85 78 ff ff
	ff 88 8f 9f b5	 mov	 DWORD PTR __k$624295[ebp+12], -1247834232 ; b59f8f88H
  00ba2	c7 85 7c ff ff
	ff 81 83 84 81	 mov	 DWORD PTR __k$624295[ebp+16], -2122022015 ; 81848381H
  00bac	c7 45 80 b2 83
	8d 8c		 mov	 DWORD PTR __k$624295[ebp+20], -1936882766 ; 8c8d83b2H
  00bb3	8d 85 6c ff ff
	ff		 lea	 eax, DWORD PTR __k$624295[ebp]
  00bb9	c7 45 84 9e 89
	9f 00		 mov	 DWORD PTR __k$624295[ebp+24], 10455454 ; 009f899eH
  00bc0	59		 pop	 ecx
$LL2399@LoadProper:
  00bc1	81 30 ed ec eb
	ea		 xor	 DWORD PTR [eax], -353637139 ; eaebecedH
  00bc7	83 c0 04	 add	 eax, 4
  00bca	49		 dec	 ecx
  00bcb	75 f4		 jne	 SHORT $LL2399@LoadProper
  00bcd	6a 18		 push	 24			; 00000018H
  00bcf	58		 pop	 eax
$LL2396@LoadProper:
  00bd0	8b c8		 mov	 ecx, eax
  00bd2	81 e1 03 00 00
	80		 and	 ecx, -2147483645	; 80000003H
  00bd8	79 05		 jns	 SHORT $LN2739@LoadProper
  00bda	49		 dec	 ecx
  00bdb	83 c9 fc	 or	 ecx, -4			; fffffffcH
  00bde	41		 inc	 ecx
$LN2739@LoadProper:
  00bdf	b2 ed		 mov	 dl, -19			; ffffffedH
  00be1	2a d1		 sub	 dl, cl
  00be3	30 94 05 6c ff
	ff ff		 xor	 BYTE PTR __k$624295[ebp+eax], dl
  00bea	40		 inc	 eax
  00beb	83 f8 1b	 cmp	 eax, 27			; 0000001bH
  00bee	7c e0		 jl	 SHORT $LL2396@LoadProper
  00bf0	0f 57 c0	 xorps	 xmm0, xmm0
  00bf3	51		 push	 ecx
  00bf4	8b 8d a4 fb ff
	ff		 mov	 ecx, DWORD PTR _rkLoader$GSCopy$[ebp]
  00bfa	8d 85 6c ff ff
	ff		 lea	 eax, DWORD PTR __k$624295[ebp]
  00c00	f3 0f 11 04 24	 movss	 DWORD PTR [esp], xmm0
  00c05	50		 push	 eax
  00c06	ff 15 00 00 00
	00		 call	 DWORD PTR __imp_?LoadFloat@ioINILoader@@QAEMPBDM@Z
  00c0c	d9 9e e0 13 00
	00		 fstp	 DWORD PTR [esi+5088]
  00c12	6a 03		 push	 3

; 176  : 
; 177  : 	m_bUseEndCombo = rkLoader.LoadBool_e( "use_end_combo", false );

  00c14	c7 85 ac fe ff
	ff 98 9f 8e b5	 mov	 DWORD PTR __k$624484[ebp], -1248944232 ; b58e9f98H
  00c1e	c7 85 b0 fe ff
	ff 88 82 8f b5	 mov	 DWORD PTR __k$624484[ebp+4], -1248886136 ; b58f8288H
  00c28	c7 85 b4 fe ff
	ff 8e 83 86 88	 mov	 DWORD PTR __k$624484[ebp+8], -2004450418 ; 8886838eH
  00c32	8d 85 ac fe ff
	ff		 lea	 eax, DWORD PTR __k$624484[ebp]
  00c38	66 c7 85 b8 fe
	ff ff 82 00	 mov	 WORD PTR __k$624484[ebp+12], 130 ; 00000082H
  00c41	59		 pop	 ecx
$LL2505@LoadProper:
  00c42	81 30 ed ec eb
	ea		 xor	 DWORD PTR [eax], -353637139 ; eaebecedH
  00c48	83 c0 04	 add	 eax, 4
  00c4b	49		 dec	 ecx
  00c4c	75 f4		 jne	 SHORT $LL2505@LoadProper
  00c4e	8b 8d a4 fb ff
	ff		 mov	 ecx, DWORD PTR _rkLoader$GSCopy$[ebp]
  00c54	80 b5 b8 fe ff
	ff ed		 xor	 BYTE PTR __k$624484[ebp+12], -19 ; ffffffedH
  00c5b	53		 push	 ebx
  00c5c	8d 85 ac fe ff
	ff		 lea	 eax, DWORD PTR __k$624484[ebp]
  00c62	50		 push	 eax
  00c63	ff d7		 call	 edi
  00c65	88 86 e4 13 00
	00		 mov	 BYTE PTR [esi+5092], al
  00c6b	6a 03		 push	 3

; 178  : 	m_nMaxEndCombo = rkLoader.LoadInt_e( "max_end_combo", 0 );

  00c6d	c7 85 30 ff ff
	ff 80 8d 93 b5	 mov	 DWORD PTR __k$624532[ebp], -1248621184 ; b5938d80H
  00c77	c7 85 34 ff ff
	ff 88 82 8f b5	 mov	 DWORD PTR __k$624532[ebp+4], -1248886136 ; b58f8288H
  00c81	c7 85 38 ff ff
	ff 8e 83 86 88	 mov	 DWORD PTR __k$624532[ebp+8], -2004450418 ; 8886838eH
  00c8b	8d 85 30 ff ff
	ff		 lea	 eax, DWORD PTR __k$624532[ebp]
  00c91	66 c7 85 3c ff
	ff ff 82 00	 mov	 WORD PTR __k$624532[ebp+12], 130 ; 00000082H
  00c9a	59		 pop	 ecx
  00c9b	bf ed ec eb ea	 mov	 edi, -353637139		; eaebecedH
$LL2611@LoadProper:
  00ca0	31 38		 xor	 DWORD PTR [eax], edi
  00ca2	83 c0 04	 add	 eax, 4
  00ca5	49		 dec	 ecx
  00ca6	75 f8		 jne	 SHORT $LL2611@LoadProper
  00ca8	8b 8d a4 fb ff
	ff		 mov	 ecx, DWORD PTR _rkLoader$GSCopy$[ebp]
  00cae	80 b5 3c ff ff
	ff ed		 xor	 BYTE PTR __k$624532[ebp+12], -19 ; ffffffedH
  00cb5	53		 push	 ebx
  00cb6	8d 85 30 ff ff
	ff		 lea	 eax, DWORD PTR __k$624532[ebp]
  00cbc	50		 push	 eax
  00cbd	ff 15 00 00 00
	00		 call	 DWORD PTR __imp_?LoadInt@ioINILoader@@QAEHPBDH@Z
  00cc3	89 86 ec 13 00
	00		 mov	 DWORD PTR [esi+5100], eax
  00cc9	6a 02		 push	 2

; 179  : 
; 180  : 	//////////////////////////////////////////////////////////////////////////
; 181  : 	wsprintf_e( szBuf, "last_attack" );

  00ccb	c7 85 5c ff ff
	ff 81 8d 98 9e	 mov	 DWORD PTR ___encStr$608201[ebp], -1634169471 ; 9e988d81H
  00cd5	c7 85 60 ff ff
	ff b2 8d 9f 9e	 mov	 DWORD PTR ___encStr$608201[ebp+4], -1633710670 ; 9e9f8db2H
  00cdf	8d 85 5c ff ff
	ff		 lea	 eax, DWORD PTR ___encStr$608201[ebp]
  00ce5	c7 85 64 ff ff
	ff 8c 8f 80 00	 mov	 DWORD PTR ___encStr$608201[ebp+8], 8425356 ; 00808f8cH
  00cef	59		 pop	 ecx
$LL2619@LoadProper:
  00cf0	31 38		 xor	 DWORD PTR [eax], edi
  00cf2	83 c0 04	 add	 eax, 4
  00cf5	49		 dec	 ecx
  00cf6	75 f8		 jne	 SHORT $LL2619@LoadProper
  00cf8	6a 08		 push	 8
  00cfa	58		 pop	 eax
$LL2616@LoadProper:
  00cfb	8b c8		 mov	 ecx, eax
  00cfd	81 e1 03 00 00
	80		 and	 ecx, -2147483645	; 80000003H
  00d03	79 05		 jns	 SHORT $LN2740@LoadProper
  00d05	49		 dec	 ecx
  00d06	83 c9 fc	 or	 ecx, -4			; fffffffcH
  00d09	41		 inc	 ecx
$LN2740@LoadProper:
  00d0a	b2 ed		 mov	 dl, -19			; ffffffedH
  00d0c	2a d1		 sub	 dl, cl
  00d0e	30 94 05 5c ff
	ff ff		 xor	 BYTE PTR ___encStr$608201[ebp+eax], dl
  00d15	40		 inc	 eax
  00d16	83 f8 0b	 cmp	 eax, 11			; 0000000bH
  00d19	7c e0		 jl	 SHORT $LL2616@LoadProper
  00d1b	8d 85 5c ff ff
	ff		 lea	 eax, DWORD PTR ___encStr$608201[ebp]
  00d21	50		 push	 eax
  00d22	8d 85 a8 fb ff
	ff		 lea	 eax, DWORD PTR _szBuf$[ebp]
  00d28	50		 push	 eax
  00d29	ff 15 00 00 00
	00		 call	 DWORD PTR __imp__wsprintfA

; 182  : 	LoadAttackAttribute( szBuf, m_LastAttack, rkLoader );

  00d2f	ff b5 a4 fb ff
	ff		 push	 DWORD PTR _rkLoader$GSCopy$[ebp]
  00d35	81 c6 18 11 00
	00		 add	 esi, 4376		; 00001118H
  00d3b	8d 85 a8 fb ff
	ff		 lea	 eax, DWORD PTR _szBuf$[ebp]
  00d41	56		 push	 esi
  00d42	50		 push	 eax
  00d43	e8 00 00 00 00	 call	 ?LoadAttackAttribute@@YAXPBDAAUAttackAttribute@@AAVioINILoader@@@Z ; LoadAttackAttribute
  00d48	83 c4 14	 add	 esp, 20			; 00000014H

; 183  : }

  00d4b	e8 00 00 00 00	 call	 __EH_epilog3_GS
  00d50	c2 04 00	 ret	 4
_TEXT	ENDS
;	COMDAT text$x
text$x	SEGMENT
__unwindfunclet$?LoadProperty@ioLinearComboSkill2@@UAEXAAVioINILoader@@@Z$0:
  00000	8d 8d 48 fb ff
	ff		 lea	 ecx, DWORD PTR _kComboAttack$607640[ebp]
  00006	e9 00 00 00 00	 jmp	 ??1AttackAttribute@@QAE@XZ
__unwindfunclet$?LoadProperty@ioLinearComboSkill2@@UAEXAAVioINILoader@@@Z$1:
  0000b	8d 8d a8 fa ff
	ff		 lea	 ecx, DWORD PTR _kComboAttack$607805[ebp]
  00011	e9 00 00 00 00	 jmp	 ??1AttackAttribute@@QAE@XZ
__unwindfunclet$?LoadProperty@ioLinearComboSkill2@@UAEXAAVioINILoader@@@Z$2:
  00016	8d 8d f8 fa ff
	ff		 lea	 ecx, DWORD PTR _kComboAttack$607965[ebp]
  0001c	e9 00 00 00 00	 jmp	 ??1AttackAttribute@@QAE@XZ
__ehhandler$?LoadProperty@ioLinearComboSkill2@@UAEXAAVioINILoader@@@Z:
  00021	8b 54 24 08	 mov	 edx, DWORD PTR [esp+8]
  00025	8d 42 0c	 lea	 eax, DWORD PTR [edx+12]
  00028	8b 8a a4 fa ff
	ff		 mov	 ecx, DWORD PTR [edx-1372]
  0002e	33 c8		 xor	 ecx, eax
  00030	e8 00 00 00 00	 call	 @__security_check_cookie@4
  00035	8b 4a fc	 mov	 ecx, DWORD PTR [edx-4]
  00038	33 c8		 xor	 ecx, eax
  0003a	e8 00 00 00 00	 call	 @__security_check_cookie@4
  0003f	b8 00 00 00 00	 mov	 eax, OFFSET __ehfuncinfo$?LoadProperty@ioLinearComboSkill2@@UAEXAAVioINILoader@@@Z
  00044	e9 00 00 00 00	 jmp	 ___CxxFrameHandler3
text$x	ENDS
?LoadProperty@ioLinearComboSkill2@@UAEXAAVioINILoader@@@Z ENDP ; ioLinearComboSkill2::LoadProperty
;	COMDAT xdata$x
xdata$x	SEGMENT
__unwindtable$?Clone@ioLinearComboSkill2@@UAEPAVioSkill@@XZ DD 0ffffffffH
	DD	FLAT:__unwindfunclet$?Clone@ioLinearComboSkill2@@UAEPAVioSkill@@XZ$0
__ehfuncinfo$?Clone@ioLinearComboSkill2@@UAEPAVioSkill@@XZ DD 019930522H
	DD	01H
	DD	FLAT:__unwindtable$?Clone@ioLinearComboSkill2@@UAEPAVioSkill@@XZ
	DD	2 DUP(00H)
	DD	2 DUP(00H)
	DD	00H
	DD	01H
; Function compile flags: /Ogsp
xdata$x	ENDS
;	COMDAT ?Clone@ioLinearComboSkill2@@UAEPAVioSkill@@XZ
_TEXT	SEGMENT
$T624784 = -16						; size = 4
__$EHRec$ = -12						; size = 12
?Clone@ioLinearComboSkill2@@UAEPAVioSkill@@XZ PROC	; ioLinearComboSkill2::Clone, COMDAT
; _this$ = ecx

; 186  : {

  00000	6a 04		 push	 4
  00002	b8 00 00 00 00	 mov	 eax, __ehhandler$?Clone@ioLinearComboSkill2@@UAEPAVioSkill@@XZ
  00007	e8 00 00 00 00	 call	 __EH_prolog3
  0000c	8b f1		 mov	 esi, ecx

; 187  : 	return new ioLinearComboSkill2( *this );

  0000e	68 f4 13 00 00	 push	 5108			; 000013f4H
  00013	e8 00 00 00 00	 call	 ??2@YAPAXI@Z		; operator new
  00018	59		 pop	 ecx
  00019	8b c8		 mov	 ecx, eax
  0001b	89 4d f0	 mov	 DWORD PTR $T624784[ebp], ecx
  0001e	33 c0		 xor	 eax, eax
  00020	89 45 fc	 mov	 DWORD PTR __$EHRec$[ebp+8], eax
  00023	3b c8		 cmp	 ecx, eax
  00025	74 06		 je	 SHORT $LN3@Clone
  00027	56		 push	 esi
  00028	e8 00 00 00 00	 call	 ??0ioLinearComboSkill2@@QAE@ABV0@@Z ; ioLinearComboSkill2::ioLinearComboSkill2
$LN3@Clone:

; 188  : }

  0002d	e8 00 00 00 00	 call	 __EH_epilog3
  00032	c3		 ret	 0
_TEXT	ENDS
;	COMDAT text$x
text$x	SEGMENT
__unwindfunclet$?Clone@ioLinearComboSkill2@@UAEPAVioSkill@@XZ$0:
  00000	ff 75 f0	 push	 DWORD PTR $T624784[ebp]
  00003	e8 00 00 00 00	 call	 ??3@YAXPAX@Z		; operator delete
  00008	59		 pop	 ecx
  00009	c3		 ret	 0
__ehhandler$?Clone@ioLinearComboSkill2@@UAEPAVioSkill@@XZ:
  0000a	8b 54 24 08	 mov	 edx, DWORD PTR [esp+8]
  0000e	8d 42 0c	 lea	 eax, DWORD PTR [edx+12]
  00011	8b 4a ec	 mov	 ecx, DWORD PTR [edx-20]
  00014	33 c8		 xor	 ecx, eax
  00016	e8 00 00 00 00	 call	 @__security_check_cookie@4
  0001b	b8 00 00 00 00	 mov	 eax, OFFSET __ehfuncinfo$?Clone@ioLinearComboSkill2@@UAEPAVioSkill@@XZ
  00020	e9 00 00 00 00	 jmp	 ___CxxFrameHandler3
text$x	ENDS
?Clone@ioLinearComboSkill2@@UAEPAVioSkill@@XZ ENDP	; ioLinearComboSkill2::Clone
; Function compile flags: /Ogsp
;	COMDAT ??_GioLinearComboSkill2@@UAEPAXI@Z
_TEXT	SEGMENT
___flags$ = 8						; size = 4
??_GioLinearComboSkill2@@UAEPAXI@Z PROC			; ioLinearComboSkill2::`scalar deleting destructor', COMDAT
; _this$ = ecx
  00000	55		 push	 ebp
  00001	8b ec		 mov	 ebp, esp
  00003	56		 push	 esi
  00004	8b f1		 mov	 esi, ecx
  00006	e8 00 00 00 00	 call	 ??1ioLinearComboSkill2@@UAE@XZ ; ioLinearComboSkill2::~ioLinearComboSkill2
  0000b	f6 45 08 01	 test	 BYTE PTR ___flags$[ebp], 1
  0000f	74 07		 je	 SHORT $LN1@scalar@6
  00011	56		 push	 esi
  00012	e8 00 00 00 00	 call	 ??3@YAXPAX@Z		; operator delete
  00017	59		 pop	 ecx
$LN1@scalar@6:
  00018	8b c6		 mov	 eax, esi
  0001a	5e		 pop	 esi
  0001b	5d		 pop	 ebp
  0001c	c2 04 00	 ret	 4
??_GioLinearComboSkill2@@UAEPAXI@Z ENDP			; ioLinearComboSkill2::`scalar deleting destructor'
_TEXT	ENDS
END
