; Listing generated by Microsoft (R) Optimizing Compiler Version 16.00.30319.01 

	TITLE	D:\Lost Saga For Developer\Youtube\Tutorial\Source\src\LSClient\ioLightAttack.cpp
	.686P
	.XMM
	include listing.inc
	.model	flat

INCLUDELIB MSVCRT
INCLUDELIB OLDNAMES

PUBLIC	?_EEM_DS@?$deque@UD3DXVECTOR3@@V?$allocator@UD3DXVECTOR3@@@std@@@std@@2HB ; std::deque<D3DXVECTOR3,std::allocator<D3DXVECTOR3> >::_EEM_DS
;	COMDAT ?_EEM_DS@?$deque@UD3DXVECTOR3@@V?$allocator@UD3DXVECTOR3@@@std@@@std@@2HB
CONST	SEGMENT
?_EEM_DS@?$deque@UD3DXVECTOR3@@V?$allocator@UD3DXVECTOR3@@@std@@@std@@2HB DD 01H ; std::deque<D3DXVECTOR3,std::allocator<D3DXVECTOR3> >::_EEM_DS
CONST	ENDS
PUBLIC	?return1@@YAIXZ					; return1
; Function compile flags: /Ogsp
; File d:\lost saga for developer\youtube\tutorial\source\src\lsclient\stdafx.h
;	COMDAT ?return1@@YAIXZ
_TEXT	SEGMENT
?return1@@YAIXZ PROC					; return1, COMDAT

; 17   : 	__forceinline unsigned int return1() { __asm mov eax, 1 };

  00000	b8 01 00 00 00	 mov	 eax, 1
  00005	c3		 ret	 0
?return1@@YAIXZ ENDP					; return1
_TEXT	ENDS
PUBLIC	?return100@@YAIXZ				; return100
; Function compile flags: /Ogsp
;	COMDAT ?return100@@YAIXZ
_TEXT	SEGMENT
?return100@@YAIXZ PROC					; return100, COMDAT

; 25   : 	__forceinline unsigned int return100() { __asm mov eax, 100 };

  00000	b8 64 00 00 00	 mov	 eax, 100		; 00000064H
  00005	c3		 ret	 0
?return100@@YAIXZ ENDP					; return100
_TEXT	ENDS
PUBLIC	?GetCharName@ioBaseChar@@QBEABVioHashString@@XZ	; ioBaseChar::GetCharName
; Function compile flags: /Ogsp
; File d:\lost saga for developer\youtube\tutorial\source\src\lsclient\iobasechar.h
;	COMDAT ?GetCharName@ioBaseChar@@QBEABVioHashString@@XZ
_TEXT	SEGMENT
?GetCharName@ioBaseChar@@QBEABVioHashString@@XZ PROC	; ioBaseChar::GetCharName, COMDAT
; _this$ = ecx

; 2594 : 	inline const ioHashString& GetCharName() const { return m_Name; }

  00000	8d 81 d4 02 00
	00		 lea	 eax, DWORD PTR [ecx+724]
  00006	c3		 ret	 0
?GetCharName@ioBaseChar@@QBEABVioHashString@@XZ ENDP	; ioBaseChar::GetCharName
_TEXT	ENDS
PUBLIC	?GetTargetRot@ioBaseChar@@QBEABUD3DXQUATERNION@@XZ ; ioBaseChar::GetTargetRot
; Function compile flags: /Ogsp
;	COMDAT ?GetTargetRot@ioBaseChar@@QBEABUD3DXQUATERNION@@XZ
_TEXT	SEGMENT
?GetTargetRot@ioBaseChar@@QBEABUD3DXQUATERNION@@XZ PROC	; ioBaseChar::GetTargetRot, COMDAT
; _this$ = ecx

; 2599 : 	inline const D3DXQUATERNION& GetTargetRot() const { return m_qtTargetRot; }

  00000	8d 81 a4 06 00
	00		 lea	 eax, DWORD PTR [ecx+1700]
  00006	c3		 ret	 0
?GetTargetRot@ioBaseChar@@QBEABUD3DXQUATERNION@@XZ ENDP	; ioBaseChar::GetTargetRot
_TEXT	ENDS
PUBLIC	_fabsf
EXTRN	__fltused:DWORD
; Function compile flags: /Ogsp
; File c:\program files (x86)\microsoft visual studio 10.0\vc\include\math.h
;	COMDAT _fabsf
_TEXT	SEGMENT
tv129 = 8						; size = 4
__X$ = 8						; size = 4
_fabsf	PROC						; COMDAT

; 395  :         {return ((float)fabs((double)_X)); }

  00000	55		 push	 ebp
  00001	8b ec		 mov	 ebp, esp
  00003	d9 45 08	 fld	 DWORD PTR __X$[ebp]
  00006	d9 e1		 fabs
  00008	d9 5d 08	 fstp	 DWORD PTR tv129[ebp]
  0000b	d9 45 08	 fld	 DWORD PTR tv129[ebp]
  0000e	5d		 pop	 ebp
  0000f	c3		 ret	 0
_fabsf	ENDP
_TEXT	ENDS
PUBLIC	?SetCurJumpPowerAmt@ioBaseChar@@QAEXM@Z		; ioBaseChar::SetCurJumpPowerAmt
; Function compile flags: /Ogsp
; File d:\lost saga for developer\youtube\tutorial\source\src\lsclient\iobasechar.h
;	COMDAT ?SetCurJumpPowerAmt@ioBaseChar@@QAEXM@Z
_TEXT	SEGMENT
_fAmt$ = 8						; size = 4
?SetCurJumpPowerAmt@ioBaseChar@@QAEXM@Z PROC		; ioBaseChar::SetCurJumpPowerAmt, COMDAT
; _this$ = ecx

; 2628 : 	inline void SetCurJumpPowerAmt( float fAmt ) { m_fCurJumpPowerAmt = fAmt; }

  00000	55		 push	 ebp
  00001	8b ec		 mov	 ebp, esp
  00003	f3 0f 10 45 08	 movss	 xmm0, DWORD PTR _fAmt$[ebp]
  00008	f3 0f 11 81 90
	0e 00 00	 movss	 DWORD PTR [ecx+3728], xmm0
  00010	5d		 pop	 ebp
  00011	c2 04 00	 ret	 4
?SetCurJumpPowerAmt@ioBaseChar@@QAEXM@Z ENDP		; ioBaseChar::SetCurJumpPowerAmt
_TEXT	ENDS
PUBLIC	?fabs@@YAMM@Z					; fabs
; Function compile flags: /Ogsp
; File c:\program files (x86)\microsoft visual studio 10.0\vc\include\math.h
;	COMDAT ?fabs@@YAMM@Z
_TEXT	SEGMENT
tv131 = 8						; size = 4
__X$ = 8						; size = 4
?fabs@@YAMM@Z PROC					; fabs, COMDAT

; 518  :         {return (fabsf(_X)); }

  00000	55		 push	 ebp
  00001	8b ec		 mov	 ebp, esp
  00003	d9 45 08	 fld	 DWORD PTR __X$[ebp]
  00006	d9 e1		 fabs
  00008	d9 5d 08	 fstp	 DWORD PTR tv131[ebp]
  0000b	d9 45 08	 fld	 DWORD PTR tv131[ebp]
  0000e	5d		 pop	 ebp
  0000f	c3		 ret	 0
?fabs@@YAMM@Z ENDP					; fabs
_TEXT	ENDS
PUBLIC	??_7bad_alloc@std@@6B@				; std::bad_alloc::`vftable'
PUBLIC	??0bad_alloc@std@@QAE@PBD@Z			; std::bad_alloc::bad_alloc
PUBLIC	??_R4bad_alloc@std@@6B@				; std::bad_alloc::`RTTI Complete Object Locator'
PUBLIC	??_R0?AVbad_alloc@std@@@8			; std::bad_alloc `RTTI Type Descriptor'
PUBLIC	??_R3bad_alloc@std@@8				; std::bad_alloc::`RTTI Class Hierarchy Descriptor'
PUBLIC	??_R2bad_alloc@std@@8				; std::bad_alloc::`RTTI Base Class Array'
PUBLIC	??_R1A@?0A@EA@bad_alloc@std@@8			; std::bad_alloc::`RTTI Base Class Descriptor at (0,-1,0,64)'
PUBLIC	??_R1A@?0A@EA@exception@std@@8			; std::exception::`RTTI Base Class Descriptor at (0,-1,0,64)'
PUBLIC	??_R0?AVexception@std@@@8			; std::exception `RTTI Type Descriptor'
PUBLIC	??_R3exception@std@@8				; std::exception::`RTTI Class Hierarchy Descriptor'
PUBLIC	??_R2exception@std@@8				; std::exception::`RTTI Base Class Array'
EXTRN	__imp_??0exception@std@@QAE@ABQBD@Z:PROC
EXTRN	??_7type_info@@6B@:QWORD			; type_info::`vftable'
EXTRN	??_Ebad_alloc@std@@UAEPAXI@Z:PROC		; std::bad_alloc::`vector deleting destructor'
EXTRN	?what@exception@std@@UBEPBDXZ:PROC		; std::exception::what
;	COMDAT ??_R2exception@std@@8
; File c:\program files (x86)\microsoft visual studio 10.0\vc\include\exception
rdata$r	SEGMENT
??_R2exception@std@@8 DD FLAT:??_R1A@?0A@EA@exception@std@@8 ; std::exception::`RTTI Base Class Array'
rdata$r	ENDS
;	COMDAT ??_R3exception@std@@8
rdata$r	SEGMENT
??_R3exception@std@@8 DD 00H				; std::exception::`RTTI Class Hierarchy Descriptor'
	DD	00H
	DD	01H
	DD	FLAT:??_R2exception@std@@8
rdata$r	ENDS
;	COMDAT ??_R0?AVexception@std@@@8
_DATA	SEGMENT
??_R0?AVexception@std@@@8 DD FLAT:??_7type_info@@6B@	; std::exception `RTTI Type Descriptor'
	DD	00H
	DB	'.?AVexception@std@@', 00H
_DATA	ENDS
;	COMDAT ??_R1A@?0A@EA@exception@std@@8
rdata$r	SEGMENT
??_R1A@?0A@EA@exception@std@@8 DD FLAT:??_R0?AVexception@std@@@8 ; std::exception::`RTTI Base Class Descriptor at (0,-1,0,64)'
	DD	00H
	DD	00H
	DD	0ffffffffH
	DD	00H
	DD	040H
	DD	FLAT:??_R3exception@std@@8
rdata$r	ENDS
;	COMDAT ??_R1A@?0A@EA@bad_alloc@std@@8
rdata$r	SEGMENT
??_R1A@?0A@EA@bad_alloc@std@@8 DD FLAT:??_R0?AVbad_alloc@std@@@8 ; std::bad_alloc::`RTTI Base Class Descriptor at (0,-1,0,64)'
	DD	01H
	DD	00H
	DD	0ffffffffH
	DD	00H
	DD	040H
	DD	FLAT:??_R3bad_alloc@std@@8
rdata$r	ENDS
;	COMDAT ??_R2bad_alloc@std@@8
rdata$r	SEGMENT
??_R2bad_alloc@std@@8 DD FLAT:??_R1A@?0A@EA@bad_alloc@std@@8 ; std::bad_alloc::`RTTI Base Class Array'
	DD	FLAT:??_R1A@?0A@EA@exception@std@@8
rdata$r	ENDS
;	COMDAT ??_R3bad_alloc@std@@8
rdata$r	SEGMENT
??_R3bad_alloc@std@@8 DD 00H				; std::bad_alloc::`RTTI Class Hierarchy Descriptor'
	DD	00H
	DD	02H
	DD	FLAT:??_R2bad_alloc@std@@8
rdata$r	ENDS
;	COMDAT ??_R0?AVbad_alloc@std@@@8
_DATA	SEGMENT
??_R0?AVbad_alloc@std@@@8 DD FLAT:??_7type_info@@6B@	; std::bad_alloc `RTTI Type Descriptor'
	DD	00H
	DB	'.?AVbad_alloc@std@@', 00H
_DATA	ENDS
;	COMDAT ??_R4bad_alloc@std@@6B@
rdata$r	SEGMENT
??_R4bad_alloc@std@@6B@ DD 00H				; std::bad_alloc::`RTTI Complete Object Locator'
	DD	00H
	DD	00H
	DD	FLAT:??_R0?AVbad_alloc@std@@@8
	DD	FLAT:??_R3bad_alloc@std@@8
rdata$r	ENDS
;	COMDAT ??_7bad_alloc@std@@6B@
CONST	SEGMENT
??_7bad_alloc@std@@6B@ DD FLAT:??_R4bad_alloc@std@@6B@	; std::bad_alloc::`vftable'
	DD	FLAT:??_Ebad_alloc@std@@UAEPAXI@Z
	DD	FLAT:?what@exception@std@@UBEPBDXZ
; Function compile flags: /Ogsp
CONST	ENDS
;	COMDAT ??0bad_alloc@std@@QAE@PBD@Z
_TEXT	SEGMENT
__Message$ = 8						; size = 4
??0bad_alloc@std@@QAE@PBD@Z PROC			; std::bad_alloc::bad_alloc, COMDAT
; _this$ = ecx

; 345  : 		{	// construct from message string

  00000	55		 push	 ebp
  00001	8b ec		 mov	 ebp, esp
  00003	56		 push	 esi
  00004	8d 45 08	 lea	 eax, DWORD PTR __Message$[ebp]
  00007	50		 push	 eax
  00008	8b f1		 mov	 esi, ecx
  0000a	ff 15 00 00 00
	00		 call	 DWORD PTR __imp_??0exception@std@@QAE@ABQBD@Z
  00010	c7 06 00 00 00
	00		 mov	 DWORD PTR [esi], OFFSET ??_7bad_alloc@std@@6B@

; 346  : 		}

  00016	8b c6		 mov	 eax, esi
  00018	5e		 pop	 esi
  00019	5d		 pop	 ebp
  0001a	c2 04 00	 ret	 4
??0bad_alloc@std@@QAE@PBD@Z ENDP			; std::bad_alloc::bad_alloc
_TEXT	ENDS
PUBLIC	??1bad_alloc@std@@UAE@XZ			; std::bad_alloc::~bad_alloc
EXTRN	__imp_??1exception@std@@UAE@XZ:PROC
; Function compile flags: /Ogsp
;	COMDAT ??1bad_alloc@std@@UAE@XZ
_TEXT	SEGMENT
??1bad_alloc@std@@UAE@XZ PROC				; std::bad_alloc::~bad_alloc, COMDAT
; _this$ = ecx

; 354  : 		{	// destroy the object

  00000	c7 01 00 00 00
	00		 mov	 DWORD PTR [ecx], OFFSET ??_7bad_alloc@std@@6B@

; 355  : 		}

  00006	ff 25 00 00 00
	00		 jmp	 DWORD PTR __imp_??1exception@std@@UAE@XZ
??1bad_alloc@std@@UAE@XZ ENDP				; std::bad_alloc::~bad_alloc
_TEXT	ENDS
EXTRN	??3@YAXPAX@Z:PROC				; operator delete
; Function compile flags: /Ogsp
;	COMDAT ??_Gbad_alloc@std@@UAEPAXI@Z
_TEXT	SEGMENT
___flags$ = 8						; size = 4
??_Gbad_alloc@std@@UAEPAXI@Z PROC			; std::bad_alloc::`scalar deleting destructor', COMDAT
; _this$ = ecx
  00000	55		 push	 ebp
  00001	8b ec		 mov	 ebp, esp
  00003	56		 push	 esi
  00004	8b f1		 mov	 esi, ecx
  00006	c7 06 00 00 00
	00		 mov	 DWORD PTR [esi], OFFSET ??_7bad_alloc@std@@6B@
  0000c	ff 15 00 00 00
	00		 call	 DWORD PTR __imp_??1exception@std@@UAE@XZ
  00012	f6 45 08 01	 test	 BYTE PTR ___flags$[ebp], 1
  00016	74 07		 je	 SHORT $LN1@scalar
  00018	56		 push	 esi
  00019	e8 00 00 00 00	 call	 ??3@YAXPAX@Z		; operator delete
  0001e	59		 pop	 ecx
$LN1@scalar:
  0001f	8b c6		 mov	 eax, esi
  00021	5e		 pop	 esi
  00022	5d		 pop	 ebp
  00023	c2 04 00	 ret	 4
??_Gbad_alloc@std@@UAEPAXI@Z ENDP			; std::bad_alloc::`scalar deleting destructor'
_TEXT	ENDS
PUBLIC	??2@YAPAXIPAX@Z					; operator new
; Function compile flags: /Ogsp
; File c:\program files (x86)\microsoft visual studio 10.0\vc\include\new
;	COMDAT ??2@YAPAXIPAX@Z
_TEXT	SEGMENT
___formal$ = 8						; size = 4
__Where$ = 12						; size = 4
??2@YAPAXIPAX@Z PROC					; operator new, COMDAT

; 56   : 	{	// construct array with placement at _Where

  00000	55		 push	 ebp
  00001	8b ec		 mov	 ebp, esp

; 57   : 	return (_Where);

  00003	8b 45 0c	 mov	 eax, DWORD PTR __Where$[ebp]

; 58   : 	}

  00006	5d		 pop	 ebp
  00007	c3		 ret	 0
??2@YAPAXIPAX@Z ENDP					; operator new
_TEXT	ENDS
PUBLIC	??3@YAXPAX0@Z					; operator delete
; Function compile flags: /Ogsp
;	COMDAT ??3@YAXPAX0@Z
_TEXT	SEGMENT
___formal$ = 8						; size = 4
___formal$ = 12						; size = 4
??3@YAXPAX0@Z PROC					; operator delete, COMDAT

; 62   : 	}

  00000	c3		 ret	 0
??3@YAXPAX0@Z ENDP					; operator delete
_TEXT	ENDS
PUBLIC	?GetCreator@ioBaseChar@@QAEPAVioPlayStage@@XZ	; ioBaseChar::GetCreator
; Function compile flags: /Ogsp
; File d:\lost saga for developer\youtube\tutorial\source\src\lsclient\iobasechar.h
;	COMDAT ?GetCreator@ioBaseChar@@QAEPAVioPlayStage@@XZ
_TEXT	SEGMENT
?GetCreator@ioBaseChar@@QAEPAVioPlayStage@@XZ PROC	; ioBaseChar::GetCreator, COMDAT
; _this$ = ecx

; 4013 : 	inline ioPlayStage* GetCreator() { return m_pCreator; }

  00000	8b 81 44 03 00
	00		 mov	 eax, DWORD PTR [ecx+836]
  00006	c3		 ret	 0
?GetCreator@ioBaseChar@@QAEPAVioPlayStage@@XZ ENDP	; ioBaseChar::GetCreator
_TEXT	ENDS
PUBLIC	?_Adopt@_Iterator_base0@std@@QAEXPBX@Z		; std::_Iterator_base0::_Adopt
; Function compile flags: /Ogsp
; File c:\program files (x86)\microsoft visual studio 10.0\vc\include\xutility
;	COMDAT ?_Adopt@_Iterator_base0@std@@QAEXPBX@Z
_TEXT	SEGMENT
___formal$ = 8						; size = 4
?_Adopt@_Iterator_base0@std@@QAEXPBX@Z PROC		; std::_Iterator_base0::_Adopt, COMDAT
; _this$ = ecx

; 49   : 		}

  00000	c2 04 00	 ret	 4
?_Adopt@_Iterator_base0@std@@QAEXPBX@Z ENDP		; std::_Iterator_base0::_Adopt
_TEXT	ENDS
PUBLIC	__real@4f800000
PUBLIC	?ClearData@ioLightAttack@@QAEXXZ		; ioLightAttack::ClearData
EXTRN	__imp_?Clear@ioHashString@@QAEXXZ:PROC
;	COMDAT __real@4f800000
; File d:\lost saga for developer\youtube\tutorial\source\src\lsclient\stdafx.h
CONST	SEGMENT
__real@4f800000 DD 04f800000r			; 4.29497e+009
; Function compile flags: /Ogsp
; File d:\lost saga for developer\youtube\tutorial\source\src\lsclient\iolightattack.cpp
CONST	ENDS
;	COMDAT ?ClearData@ioLightAttack@@QAEXXZ
_TEXT	SEGMENT
tv143 = -4						; size = 4
?ClearData@ioLightAttack@@QAEXXZ PROC			; ioLightAttack::ClearData, COMDAT
; _this$ = ecx

; 149  : {

  00000	55		 push	 ebp
  00001	8b ec		 mov	 ebp, esp
  00003	51		 push	 ecx
  00004	56		 push	 esi
  00005	8b f1		 mov	 esi, ecx

; 150  : 	m_bSetHandMesh = false;
; 151  : 	m_State = SS_PRE;

  00007	83 a6 e4 10 00
	00 00		 and	 DWORD PTR [esi+4324], 0
  0000e	c6 86 0a 0f 00
	00 00		 mov	 BYTE PTR [esi+3850], 0

; 152  : 
; 153  : 	m_fPreActionAniRate = FLOAT1;

  00015	b8 01 00 00 00	 mov	 eax, 1
  0001a	89 45 fc	 mov	 DWORD PTR tv143[ebp], eax
  0001d	db 45 fc	 fild	 DWORD PTR tv143[ebp]
  00020	85 c0		 test	 eax, eax
  00022	79 06		 jns	 SHORT $LN5@ClearData
  00024	d8 05 00 00 00
	00		 fadd	 DWORD PTR __real@4f800000
$LN5@ClearData:

; 154  : 	m_strPreActionAni.Clear();

  0002a	8d 8e 6c 12 00
	00		 lea	 ecx, DWORD PTR [esi+4716]
  00030	d9 9e 68 12 00
	00		 fstp	 DWORD PTR [esi+4712]
  00036	ff 15 00 00 00
	00		 call	 DWORD PTR __imp_?Clear@ioHashString@@QAEXXZ

; 155  : 	m_dwCurTeleportEndTime = 0;

  0003c	83 a6 0c 13 00
	00 00		 and	 DWORD PTR [esi+4876], 0

; 156  : 	m_bEnd = false;

  00043	c6 86 14 13 00
	00 00		 mov	 BYTE PTR [esi+4884], 0
  0004a	5e		 pop	 esi

; 157  : }

  0004b	c9		 leave
  0004c	c3		 ret	 0
?ClearData@ioLightAttack@@QAEXXZ ENDP			; ioLightAttack::ClearData
_TEXT	ENDS
PUBLIC	?IsNoDropState@ioLightAttack@@UBE_NXZ		; ioLightAttack::IsNoDropState
; Function compile flags: /Ogsp
;	COMDAT ?IsNoDropState@ioLightAttack@@UBE_NXZ
_TEXT	SEGMENT
?IsNoDropState@ioLightAttack@@UBE_NXZ PROC		; ioLightAttack::IsNoDropState, COMDAT
; _this$ = ecx

; 480  : 	if ( m_State == SS_END || m_State == SS_TELEPORT )

  00000	8b 81 e4 10 00
	00		 mov	 eax, DWORD PTR [ecx+4324]
  00006	83 f8 05	 cmp	 eax, 5
  00009	74 08		 je	 SHORT $LN1@IsNoDropSt
  0000b	83 f8 04	 cmp	 eax, 4
  0000e	74 03		 je	 SHORT $LN1@IsNoDropSt

; 482  : 
; 483  : 	return true;	

  00010	b0 01		 mov	 al, 1

; 484  : }

  00012	c3		 ret	 0
$LN1@IsNoDropSt:

; 481  : 		return false;

  00013	32 c0		 xor	 al, al

; 484  : }

  00015	c3		 ret	 0
?IsNoDropState@ioLightAttack@@UBE_NXZ ENDP		; ioLightAttack::IsNoDropState
_TEXT	ENDS
PUBLIC	?IsAttackEndState@ioLightAttack@@UBE_NXZ	; ioLightAttack::IsAttackEndState
; Function compile flags: /Ogsp
;	COMDAT ?IsAttackEndState@ioLightAttack@@UBE_NXZ
_TEXT	SEGMENT
?IsAttackEndState@ioLightAttack@@UBE_NXZ PROC		; ioLightAttack::IsAttackEndState, COMDAT
; _this$ = ecx

; 489  : 	return IsEndState();

  00000	8b 01		 mov	 eax, DWORD PTR [ecx]
  00002	ff 60 74	 jmp	 DWORD PTR [eax+116]
?IsAttackEndState@ioLightAttack@@UBE_NXZ ENDP		; ioLightAttack::IsAttackEndState
_TEXT	ENDS
PUBLIC	?IsEndState@ioLightAttack@@UBE_NXZ		; ioLightAttack::IsEndState
; Function compile flags: /Ogsp
;	COMDAT ?IsEndState@ioLightAttack@@UBE_NXZ
_TEXT	SEGMENT
?IsEndState@ioLightAttack@@UBE_NXZ PROC			; ioLightAttack::IsEndState, COMDAT
; _this$ = ecx

; 494  : 	if( m_State == SS_END && m_bEnd )

  00000	83 b9 e4 10 00
	00 05		 cmp	 DWORD PTR [ecx+4324], 5
  00007	75 0c		 jne	 SHORT $LN1@IsEndState
  00009	80 b9 14 13 00
	00 00		 cmp	 BYTE PTR [ecx+4884], 0
  00010	74 03		 je	 SHORT $LN1@IsEndState

; 495  : 		return true;

  00012	b0 01		 mov	 al, 1

; 498  : }

  00014	c3		 ret	 0
$LN1@IsEndState:

; 496  : 
; 497  : 	return false;

  00015	32 c0		 xor	 al, al

; 498  : }

  00017	c3		 ret	 0
?IsEndState@ioLightAttack@@UBE_NXZ ENDP			; ioLightAttack::IsEndState
_TEXT	ENDS
PUBLIC	?IsSkillMotionEnd@ioLightAttack@@UBE_NKPAVioBaseChar@@@Z ; ioLightAttack::IsSkillMotionEnd
; Function compile flags: /Ogsp
;	COMDAT ?IsSkillMotionEnd@ioLightAttack@@UBE_NKPAVioBaseChar@@@Z
_TEXT	SEGMENT
_dwActionStop$ = 8					; size = 4
_pOwner$ = 12						; size = 4
?IsSkillMotionEnd@ioLightAttack@@UBE_NKPAVioBaseChar@@@Z PROC ; ioLightAttack::IsSkillMotionEnd, COMDAT
; _this$ = ecx

; 502  : 	return IsEndState();

  00000	8b 01		 mov	 eax, DWORD PTR [ecx]
  00002	ff 50 74	 call	 DWORD PTR [eax+116]

; 503  : }

  00005	c2 08 00	 ret	 8
?IsSkillMotionEnd@ioLightAttack@@UBE_NKPAVioBaseChar@@@Z ENDP ; ioLightAttack::IsSkillMotionEnd
_TEXT	ENDS
PUBLIC	?empty@?$vector@UBuffInfoStruct@@V?$allocator@UBuffInfoStruct@@@std@@@std@@QBE_NXZ ; std::vector<BuffInfoStruct,std::allocator<BuffInfoStruct> >::empty
; Function compile flags: /Ogsp
; File c:\program files (x86)\microsoft visual studio 10.0\vc\include\vector
;	COMDAT ?empty@?$vector@UBuffInfoStruct@@V?$allocator@UBuffInfoStruct@@@std@@@std@@QBE_NXZ
_TEXT	SEGMENT
?empty@?$vector@UBuffInfoStruct@@V?$allocator@UBuffInfoStruct@@@std@@@std@@QBE_NXZ PROC ; std::vector<BuffInfoStruct,std::allocator<BuffInfoStruct> >::empty, COMDAT
; _this$ = ecx

; 889  : 		return (this->_Myfirst == this->_Mylast);

  00000	8b 01		 mov	 eax, DWORD PTR [ecx]
  00002	2b 41 04	 sub	 eax, DWORD PTR [ecx+4]
  00005	f7 d8		 neg	 eax
  00007	1b c0		 sbb	 eax, eax
  00009	40		 inc	 eax

; 890  : 		}

  0000a	c3		 ret	 0
?empty@?$vector@UBuffInfoStruct@@V?$allocator@UBuffInfoStruct@@@std@@@std@@QBE_NXZ ENDP ; std::vector<BuffInfoStruct,std::allocator<BuffInfoStruct> >::empty
_TEXT	ENDS
PUBLIC	??A?$vector@UBuffInfoStruct@@V?$allocator@UBuffInfoStruct@@@std@@@std@@QBEABUBuffInfoStruct@@I@Z ; std::vector<BuffInfoStruct,std::allocator<BuffInfoStruct> >::operator[]
; Function compile flags: /Ogsp
;	COMDAT ??A?$vector@UBuffInfoStruct@@V?$allocator@UBuffInfoStruct@@@std@@@std@@QBEABUBuffInfoStruct@@I@Z
_TEXT	SEGMENT
__Pos$ = 8						; size = 4
??A?$vector@UBuffInfoStruct@@V?$allocator@UBuffInfoStruct@@@std@@@std@@QBEABUBuffInfoStruct@@I@Z PROC ; std::vector<BuffInfoStruct,std::allocator<BuffInfoStruct> >::operator[], COMDAT
; _this$ = ecx

; 912  : 		{	// subscript nonmutable sequence

  00000	55		 push	 ebp
  00001	8b ec		 mov	 ebp, esp

; 913  :  #if _ITERATOR_DEBUG_LEVEL == 2
; 914  : 		if (size() <= _Pos)
; 915  : 			{	// report error
; 916  : 			_DEBUG_ERROR("vector subscript out of range");
; 917  : 			_SCL_SECURE_OUT_OF_RANGE;
; 918  : 			}
; 919  : 
; 920  :  #elif _ITERATOR_DEBUG_LEVEL == 1
; 921  : 		_SCL_SECURE_VALIDATE_RANGE(_Pos < size());
; 922  :  #endif /* _ITERATOR_DEBUG_LEVEL */
; 923  : 
; 924  : 		return (*(this->_Myfirst + _Pos));

  00003	8b 45 08	 mov	 eax, DWORD PTR __Pos$[ebp]
  00006	6b c0 14	 imul	 eax, 20			; 00000014H
  00009	03 01		 add	 eax, DWORD PTR [ecx]

; 925  : 		}

  0000b	5d		 pop	 ebp
  0000c	c2 04 00	 ret	 4
??A?$vector@UBuffInfoStruct@@V?$allocator@UBuffInfoStruct@@@std@@@std@@QBEABUBuffInfoStruct@@I@Z ENDP ; std::vector<BuffInfoStruct,std::allocator<BuffInfoStruct> >::operator[]
_TEXT	ENDS
PUBLIC	??A?$vector@UBuffInfoStruct@@V?$allocator@UBuffInfoStruct@@@std@@@std@@QAEAAUBuffInfoStruct@@I@Z ; std::vector<BuffInfoStruct,std::allocator<BuffInfoStruct> >::operator[]
; Function compile flags: /Ogsp
;	COMDAT ??A?$vector@UBuffInfoStruct@@V?$allocator@UBuffInfoStruct@@@std@@@std@@QAEAAUBuffInfoStruct@@I@Z
_TEXT	SEGMENT
__Pos$ = 8						; size = 4
??A?$vector@UBuffInfoStruct@@V?$allocator@UBuffInfoStruct@@@std@@@std@@QAEAAUBuffInfoStruct@@I@Z PROC ; std::vector<BuffInfoStruct,std::allocator<BuffInfoStruct> >::operator[], COMDAT
; _this$ = ecx

; 928  : 		{	// subscript mutable sequence

  00000	55		 push	 ebp
  00001	8b ec		 mov	 ebp, esp

; 929  :  #if _ITERATOR_DEBUG_LEVEL == 2
; 930  : 		if (size() <= _Pos)
; 931  : 			{	// report error
; 932  : 			_DEBUG_ERROR("vector subscript out of range");
; 933  : 			_SCL_SECURE_OUT_OF_RANGE;
; 934  : 			}
; 935  : 
; 936  :  #elif _ITERATOR_DEBUG_LEVEL == 1
; 937  : 		_SCL_SECURE_VALIDATE_RANGE(_Pos < size());
; 938  :  #endif /* _ITERATOR_DEBUG_LEVEL */
; 939  : 
; 940  : 		return (*(this->_Myfirst + _Pos));

  00003	8b 45 08	 mov	 eax, DWORD PTR __Pos$[ebp]
  00006	6b c0 14	 imul	 eax, 20			; 00000014H
  00009	03 01		 add	 eax, DWORD PTR [ecx]

; 941  : 		}

  0000b	5d		 pop	 ebp
  0000c	c2 04 00	 ret	 4
??A?$vector@UBuffInfoStruct@@V?$allocator@UBuffInfoStruct@@@std@@@std@@QAEAAUBuffInfoStruct@@I@Z ENDP ; std::vector<BuffInfoStruct,std::allocator<BuffInfoStruct> >::operator[]
_TEXT	ENDS
PUBLIC	?_Inside@?$vector@UBuffInfoStruct@@V?$allocator@UBuffInfoStruct@@@std@@@std@@IBE_NPBUBuffInfoStruct@@@Z ; std::vector<BuffInfoStruct,std::allocator<BuffInfoStruct> >::_Inside
; Function compile flags: /Ogsp
;	COMDAT ?_Inside@?$vector@UBuffInfoStruct@@V?$allocator@UBuffInfoStruct@@@std@@@std@@IBE_NPBUBuffInfoStruct@@@Z
_TEXT	SEGMENT
__Ptr$ = 8						; size = 4
?_Inside@?$vector@UBuffInfoStruct@@V?$allocator@UBuffInfoStruct@@@std@@@std@@IBE_NPBUBuffInfoStruct@@@Z PROC ; std::vector<BuffInfoStruct,std::allocator<BuffInfoStruct> >::_Inside, COMDAT
; _this$ = ecx

; 1285 : 		{	// test if _Ptr points inside vector

  00000	55		 push	 ebp
  00001	8b ec		 mov	 ebp, esp

; 1286 : 		return (_Ptr < this->_Mylast && this->_Myfirst <= _Ptr);

  00003	8b 45 08	 mov	 eax, DWORD PTR __Ptr$[ebp]
  00006	3b 41 04	 cmp	 eax, DWORD PTR [ecx+4]
  00009	73 09		 jae	 SHORT $LN3@Inside
  0000b	39 01		 cmp	 DWORD PTR [ecx], eax
  0000d	77 05		 ja	 SHORT $LN3@Inside
  0000f	33 c0		 xor	 eax, eax
  00011	40		 inc	 eax
  00012	eb 02		 jmp	 SHORT $LN4@Inside
$LN3@Inside:
  00014	33 c0		 xor	 eax, eax
$LN4@Inside:

; 1287 : 		}

  00016	5d		 pop	 ebp
  00017	c2 04 00	 ret	 4
?_Inside@?$vector@UBuffInfoStruct@@V?$allocator@UBuffInfoStruct@@@std@@@std@@IBE_NPBUBuffInfoStruct@@@Z ENDP ; std::vector<BuffInfoStruct,std::allocator<BuffInfoStruct> >::_Inside
_TEXT	ENDS
PUBLIC	?_Orphan_range@?$vector@UBuffInfoStruct@@V?$allocator@UBuffInfoStruct@@@std@@@std@@IBEXPAUBuffInfoStruct@@0@Z ; std::vector<BuffInfoStruct,std::allocator<BuffInfoStruct> >::_Orphan_range
; Function compile flags: /Ogsp
;	COMDAT ?_Orphan_range@?$vector@UBuffInfoStruct@@V?$allocator@UBuffInfoStruct@@@std@@@std@@IBEXPAUBuffInfoStruct@@0@Z
_TEXT	SEGMENT
___formal$ = 8						; size = 4
___formal$ = 12						; size = 4
?_Orphan_range@?$vector@UBuffInfoStruct@@V?$allocator@UBuffInfoStruct@@@std@@@std@@IBEXPAUBuffInfoStruct@@0@Z PROC ; std::vector<BuffInfoStruct,std::allocator<BuffInfoStruct> >::_Orphan_range, COMDAT
; _this$ = ecx

; 1454 : 		}

  00000	c2 08 00	 ret	 8
?_Orphan_range@?$vector@UBuffInfoStruct@@V?$allocator@UBuffInfoStruct@@@std@@@std@@IBEXPAUBuffInfoStruct@@0@Z ENDP ; std::vector<BuffInfoStruct,std::allocator<BuffInfoStruct> >::_Orphan_range
_TEXT	ENDS
PUBLIC	??0D3DXVECTOR3@@QAE@XZ				; D3DXVECTOR3::D3DXVECTOR3
; Function compile flags: /Ogsp
; File c:\program files (x86)\microsoft directx sdk (june 2010)\include\d3dx9math.h
;	COMDAT ??0D3DXVECTOR3@@QAE@XZ
_TEXT	SEGMENT
??0D3DXVECTOR3@@QAE@XZ PROC				; D3DXVECTOR3::D3DXVECTOR3, COMDAT
; _this$ = ecx

; 165  :     D3DXVECTOR3() {};

  00000	8b c1		 mov	 eax, ecx
  00002	c3		 ret	 0
??0D3DXVECTOR3@@QAE@XZ ENDP				; D3DXVECTOR3::D3DXVECTOR3
_TEXT	ENDS
PUBLIC	??0D3DXQUATERNION@@QAE@XZ			; D3DXQUATERNION::D3DXQUATERNION
; Function compile flags: /Ogsp
;	COMDAT ??0D3DXQUATERNION@@QAE@XZ
_TEXT	SEGMENT
??0D3DXQUATERNION@@QAE@XZ PROC				; D3DXQUATERNION::D3DXQUATERNION, COMDAT
; _this$ = ecx

; 429  :     D3DXQUATERNION() {}

  00000	8b c1		 mov	 eax, ecx
  00002	c3		 ret	 0
??0D3DXQUATERNION@@QAE@XZ ENDP				; D3DXQUATERNION::D3DXQUATERNION
_TEXT	ENDS
PUBLIC	??0D3DXVECTOR3@@QAE@MMM@Z			; D3DXVECTOR3::D3DXVECTOR3
; Function compile flags: /Ogsp
; File c:\program files (x86)\microsoft directx sdk (june 2010)\include\d3dx9math.inl
;	COMDAT ??0D3DXVECTOR3@@QAE@MMM@Z
_TEXT	SEGMENT
_fx$ = 8						; size = 4
_fy$ = 12						; size = 4
_fz$ = 16						; size = 4
??0D3DXVECTOR3@@QAE@MMM@Z PROC				; D3DXVECTOR3::D3DXVECTOR3, COMDAT
; _this$ = ecx

; 303  : {

  00000	55		 push	 ebp
  00001	8b ec		 mov	 ebp, esp

; 304  :     x = fx;

  00003	f3 0f 10 45 08	 movss	 xmm0, DWORD PTR _fx$[ebp]
  00008	8b c1		 mov	 eax, ecx
  0000a	f3 0f 11 00	 movss	 DWORD PTR [eax], xmm0

; 305  :     y = fy;

  0000e	f3 0f 10 45 0c	 movss	 xmm0, DWORD PTR _fy$[ebp]
  00013	f3 0f 11 40 04	 movss	 DWORD PTR [eax+4], xmm0

; 306  :     z = fz;

  00018	f3 0f 10 45 10	 movss	 xmm0, DWORD PTR _fz$[ebp]
  0001d	f3 0f 11 40 08	 movss	 DWORD PTR [eax+8], xmm0

; 307  : }

  00022	5d		 pop	 ebp
  00023	c2 0c 00	 ret	 12			; 0000000cH
??0D3DXVECTOR3@@QAE@MMM@Z ENDP				; D3DXVECTOR3::D3DXVECTOR3
_TEXT	ENDS
PUBLIC	__real@3f91df46a2526c7a
PUBLIC	??$DEGtoRAD@M@@YAMM@Z				; DEGtoRAD<float>
;	COMDAT __real@3f91df46a2526c7a
; File d:\lost saga for developer\youtube\tutorial\source\src\lsclient\veryoftenusedefine.h
CONST	SEGMENT
__real@3f91df46a2526c7a DQ 03f91df46a2526c7ar	; 0.0174533
; Function compile flags: /Ogsp
CONST	ENDS
;	COMDAT ??$DEGtoRAD@M@@YAMM@Z
_TEXT	SEGMENT
tv129 = 8						; size = 4
_val$ = 8						; size = 4
??$DEGtoRAD@M@@YAMM@Z PROC				; DEGtoRAD<float>, COMDAT

; 20   : type  DEGtoRAD (type val) {return (type) (val * 0.0174532925199);}

  00000	55		 push	 ebp
  00001	8b ec		 mov	 ebp, esp
  00003	d9 45 08	 fld	 DWORD PTR _val$[ebp]
  00006	dc 0d 00 00 00
	00		 fmul	 QWORD PTR __real@3f91df46a2526c7a
  0000c	d9 5d 08	 fstp	 DWORD PTR tv129[ebp]
  0000f	d9 45 08	 fld	 DWORD PTR tv129[ebp]
  00012	5d		 pop	 ebp
  00013	c3		 ret	 0
??$DEGtoRAD@M@@YAMM@Z ENDP				; DEGtoRAD<float>
_TEXT	ENDS
PUBLIC	??$addressof@$$CBUBuffInfoStruct@@@std@@YAPBUBuffInfoStruct@@ABU1@@Z ; std::addressof<BuffInfoStruct const >
; Function compile flags: /Ogsp
; File c:\program files (x86)\microsoft visual studio 10.0\vc\include\xmemory
;	COMDAT ??$addressof@$$CBUBuffInfoStruct@@@std@@YAPBUBuffInfoStruct@@ABU1@@Z
_TEXT	SEGMENT
__Val$ = 8						; size = 4
??$addressof@$$CBUBuffInfoStruct@@@std@@YAPBUBuffInfoStruct@@ABU1@@Z PROC ; std::addressof<BuffInfoStruct const >, COMDAT

; 110  : 	{	// return address of _Val

  00000	55		 push	 ebp
  00001	8b ec		 mov	 ebp, esp

; 111  : 	return ((_Ty *) &(char&)_Val);

  00003	8b 45 08	 mov	 eax, DWORD PTR __Val$[ebp]

; 112  : 	}

  00006	5d		 pop	 ebp
  00007	c3		 ret	 0
??$addressof@$$CBUBuffInfoStruct@@@std@@YAPBUBuffInfoStruct@@ABU1@@Z ENDP ; std::addressof<BuffInfoStruct const >
_TEXT	ENDS
PUBLIC	??$forward@ABUBuffInfoStruct@@@std@@YAABUBuffInfoStruct@@ABU1@@Z ; std::forward<BuffInfoStruct const &>
; Function compile flags: /Ogsp
; File c:\program files (x86)\microsoft visual studio 10.0\vc\include\utility
;	COMDAT ??$forward@ABUBuffInfoStruct@@@std@@YAABUBuffInfoStruct@@ABU1@@Z
_TEXT	SEGMENT
__Arg$ = 8						; size = 4
??$forward@ABUBuffInfoStruct@@@std@@YAABUBuffInfoStruct@@ABU1@@Z PROC ; std::forward<BuffInfoStruct const &>, COMDAT

; 78   : 	{	// forward _Arg, given explicitly specified type parameter

  00000	55		 push	 ebp
  00001	8b ec		 mov	 ebp, esp

; 79   : 	return ((_Ty&&)_Arg);

  00003	8b 45 08	 mov	 eax, DWORD PTR __Arg$[ebp]

; 80   : 	}

  00006	5d		 pop	 ebp
  00007	c3		 ret	 0
??$forward@ABUBuffInfoStruct@@@std@@YAABUBuffInfoStruct@@ABU1@@Z ENDP ; std::forward<BuffInfoStruct const &>
_TEXT	ENDS
PUBLIC	??$_Ptr_cat@V?$_Vector_const_iterator@V?$_Vector_val@UBuffInfoStruct@@V?$allocator@UBuffInfoStruct@@@std@@@std@@@std@@PAUBuffInfoStruct@@@std@@YA?AU_Nonscalar_ptr_iterator_tag@0@AAV?$_Vector_const_iterator@V?$_Vector_val@UBuffInfoStruct@@V?$allocator@UBuffInfoStruct@@@std@@@std@@@0@AAPAUBuffInfoStruct@@@Z ; std::_Ptr_cat<std::_Vector_const_iterator<std::_Vector_val<BuffInfoStruct,std::allocator<BuffInfoStruct> > >,BuffInfoStruct *>
; Function compile flags: /Ogsp
; File c:\program files (x86)\microsoft visual studio 10.0\vc\include\xutility
;	COMDAT ??$_Ptr_cat@V?$_Vector_const_iterator@V?$_Vector_val@UBuffInfoStruct@@V?$allocator@UBuffInfoStruct@@@std@@@std@@@std@@PAUBuffInfoStruct@@@std@@YA?AU_Nonscalar_ptr_iterator_tag@0@AAV?$_Vector_const_iterator@V?$_Vector_val@UBuffInfoStruct@@V?$allocator@UBuffInfoStruct@@@std@@@std@@@0@AAPAUBuffInfoStruct@@@Z
_TEXT	SEGMENT
__Cat$ = -1						; size = 1
___formal$ = 8						; size = 4
___formal$ = 12						; size = 4
??$_Ptr_cat@V?$_Vector_const_iterator@V?$_Vector_val@UBuffInfoStruct@@V?$allocator@UBuffInfoStruct@@@std@@@std@@@std@@PAUBuffInfoStruct@@@std@@YA?AU_Nonscalar_ptr_iterator_tag@0@AAV?$_Vector_const_iterator@V?$_Vector_val@UBuffInfoStruct@@V?$allocator@UBuffInfoStruct@@@std@@@std@@@0@AAPAUBuffInfoStruct@@@Z PROC ; std::_Ptr_cat<std::_Vector_const_iterator<std::_Vector_val<BuffInfoStruct,std::allocator<BuffInfoStruct> > >,BuffInfoStruct *>, COMDAT

; 485  : 	{	// return pointer category from arbitrary arguments

  00000	55		 push	 ebp
  00001	8b ec		 mov	 ebp, esp
  00003	51		 push	 ecx

; 486  : 	_Nonscalar_ptr_iterator_tag _Cat;
; 487  : 	return (_Cat);

  00004	8a 45 ff	 mov	 al, BYTE PTR __Cat$[ebp]

; 488  : 	}

  00007	c9		 leave
  00008	c3		 ret	 0
??$_Ptr_cat@V?$_Vector_const_iterator@V?$_Vector_val@UBuffInfoStruct@@V?$allocator@UBuffInfoStruct@@@std@@@std@@@std@@PAUBuffInfoStruct@@@std@@YA?AU_Nonscalar_ptr_iterator_tag@0@AAV?$_Vector_const_iterator@V?$_Vector_val@UBuffInfoStruct@@V?$allocator@UBuffInfoStruct@@@std@@@std@@@0@AAPAUBuffInfoStruct@@@Z ENDP ; std::_Ptr_cat<std::_Vector_const_iterator<std::_Vector_val<BuffInfoStruct,std::allocator<BuffInfoStruct> > >,BuffInfoStruct *>
_TEXT	ENDS
PUBLIC	??$_Val_type@PAUBuffInfoStruct@@@std@@YAPAUBuffInfoStruct@@PAU1@@Z ; std::_Val_type<BuffInfoStruct *>
; Function compile flags: /Ogsp
;	COMDAT ??$_Val_type@PAUBuffInfoStruct@@@std@@YAPAUBuffInfoStruct@@PAU1@@Z
_TEXT	SEGMENT
___formal$ = 8						; size = 4
??$_Val_type@PAUBuffInfoStruct@@@std@@YAPAUBuffInfoStruct@@PAU1@@Z PROC ; std::_Val_type<BuffInfoStruct *>, COMDAT

; 790  : 	return (0);

  00000	33 c0		 xor	 eax, eax

; 791  : 	}

  00002	c3		 ret	 0
??$_Val_type@PAUBuffInfoStruct@@@std@@YAPAUBuffInfoStruct@@PAU1@@Z ENDP ; std::_Val_type<BuffInfoStruct *>
_TEXT	ENDS
PUBLIC	??D?$_Vector_const_iterator@V?$_Vector_val@UBuffInfoStruct@@V?$allocator@UBuffInfoStruct@@@std@@@std@@@std@@QBEABUBuffInfoStruct@@XZ ; std::_Vector_const_iterator<std::_Vector_val<BuffInfoStruct,std::allocator<BuffInfoStruct> > >::operator*
; Function compile flags: /Ogsp
; File c:\program files (x86)\microsoft visual studio 10.0\vc\include\vector
;	COMDAT ??D?$_Vector_const_iterator@V?$_Vector_val@UBuffInfoStruct@@V?$allocator@UBuffInfoStruct@@@std@@@std@@@std@@QBEABUBuffInfoStruct@@XZ
_TEXT	SEGMENT
??D?$_Vector_const_iterator@V?$_Vector_val@UBuffInfoStruct@@V?$allocator@UBuffInfoStruct@@@std@@@std@@@std@@QBEABUBuffInfoStruct@@XZ PROC ; std::_Vector_const_iterator<std::_Vector_val<BuffInfoStruct,std::allocator<BuffInfoStruct> > >::operator*, COMDAT
; _this$ = ecx

; 64   :  #if _ITERATOR_DEBUG_LEVEL == 2
; 65   : 		if (this->_Getcont() == 0
; 66   : 			|| this->_Ptr == 0
; 67   : 			|| this->_Ptr < ((_Myvec *)this->_Getcont())->_Myfirst
; 68   : 			|| ((_Myvec *)this->_Getcont())->_Mylast <= this->_Ptr)
; 69   : 			{	// report error
; 70   : 			_DEBUG_ERROR("vector iterator not dereferencable");
; 71   : 			_SCL_SECURE_OUT_OF_RANGE;
; 72   : 			}
; 73   : 
; 74   :  #elif _ITERATOR_DEBUG_LEVEL == 1
; 75   : 		_SCL_SECURE_VALIDATE(this->_Getcont() != 0);
; 76   : 		_SCL_SECURE_VALIDATE_RANGE(
; 77   : 			this->_Ptr != 0
; 78   : 			&& ((_Myvec *)this->_Getcont())->_Myfirst <= this->_Ptr
; 79   : 			&& this->_Ptr < ((_Myvec *)this->_Getcont())->_Mylast);
; 80   :  #endif /* _ITERATOR_DEBUG_LEVEL */
; 81   : 
; 82   : 		__analysis_assume(this->_Ptr != 0);
; 83   : 
; 84   : 		return (*this->_Ptr);

  00000	8b 01		 mov	 eax, DWORD PTR [ecx]

; 85   : 		}

  00002	c3		 ret	 0
??D?$_Vector_const_iterator@V?$_Vector_val@UBuffInfoStruct@@V?$allocator@UBuffInfoStruct@@@std@@@std@@@std@@QBEABUBuffInfoStruct@@XZ ENDP ; std::_Vector_const_iterator<std::_Vector_val<BuffInfoStruct,std::allocator<BuffInfoStruct> > >::operator*
_TEXT	ENDS
PUBLIC	??E?$_Vector_const_iterator@V?$_Vector_val@UBuffInfoStruct@@V?$allocator@UBuffInfoStruct@@@std@@@std@@@std@@QAEAAV01@XZ ; std::_Vector_const_iterator<std::_Vector_val<BuffInfoStruct,std::allocator<BuffInfoStruct> > >::operator++
; Function compile flags: /Ogsp
;	COMDAT ??E?$_Vector_const_iterator@V?$_Vector_val@UBuffInfoStruct@@V?$allocator@UBuffInfoStruct@@@std@@@std@@@std@@QAEAAV01@XZ
_TEXT	SEGMENT
??E?$_Vector_const_iterator@V?$_Vector_val@UBuffInfoStruct@@V?$allocator@UBuffInfoStruct@@@std@@@std@@@std@@QAEAAV01@XZ PROC ; std::_Vector_const_iterator<std::_Vector_val<BuffInfoStruct,std::allocator<BuffInfoStruct> > >::operator++, COMDAT
; _this$ = ecx

; 93   : 		{	// preincrement

  00000	8b c1		 mov	 eax, ecx

; 94   :  #if _ITERATOR_DEBUG_LEVEL == 2
; 95   : 		if (this->_Getcont() == 0
; 96   : 			|| this->_Ptr == 0
; 97   : 			|| ((_Myvec *)this->_Getcont())->_Mylast <= this->_Ptr)
; 98   : 			{	// report error
; 99   : 			_DEBUG_ERROR("vector iterator not incrementable");
; 100  : 			_SCL_SECURE_OUT_OF_RANGE;
; 101  : 			}
; 102  : 
; 103  :  #elif _ITERATOR_DEBUG_LEVEL == 1
; 104  : 		_SCL_SECURE_VALIDATE(this->_Getcont() != 0);
; 105  : 		_SCL_SECURE_VALIDATE_RANGE(
; 106  : 			this->_Ptr != 0
; 107  : 			&& this->_Ptr < ((_Myvec *)this->_Getcont())->_Mylast);
; 108  :  #endif /* _ITERATOR_DEBUG_LEVEL */
; 109  : 
; 110  : 		++this->_Ptr;

  00002	83 00 14	 add	 DWORD PTR [eax], 20	; 00000014H

; 111  : 		return (*this);
; 112  : 		}

  00005	c3		 ret	 0
??E?$_Vector_const_iterator@V?$_Vector_val@UBuffInfoStruct@@V?$allocator@UBuffInfoStruct@@@std@@@std@@@std@@QAEAAV01@XZ ENDP ; std::_Vector_const_iterator<std::_Vector_val<BuffInfoStruct,std::allocator<BuffInfoStruct> > >::operator++
_TEXT	ENDS
PUBLIC	??$forward@UBuffInfoStruct@@@std@@YA$$QAUBuffInfoStruct@@AAU1@@Z ; std::forward<BuffInfoStruct>
; Function compile flags: /Ogsp
; File c:\program files (x86)\microsoft visual studio 10.0\vc\include\utility
;	COMDAT ??$forward@UBuffInfoStruct@@@std@@YA$$QAUBuffInfoStruct@@AAU1@@Z
_TEXT	SEGMENT
__Arg$ = 8						; size = 4
??$forward@UBuffInfoStruct@@@std@@YA$$QAUBuffInfoStruct@@AAU1@@Z PROC ; std::forward<BuffInfoStruct>, COMDAT

; 78   : 	{	// forward _Arg, given explicitly specified type parameter

  00000	55		 push	 ebp
  00001	8b ec		 mov	 ebp, esp

; 79   : 	return ((_Ty&&)_Arg);

  00003	8b 45 08	 mov	 eax, DWORD PTR __Arg$[ebp]

; 80   : 	}

  00006	5d		 pop	 ebp
  00007	c3		 ret	 0
??$forward@UBuffInfoStruct@@@std@@YA$$QAUBuffInfoStruct@@AAU1@@Z ENDP ; std::forward<BuffInfoStruct>
_TEXT	ENDS
PUBLIC	?D3DXVec3Cross@@YAPAUD3DXVECTOR3@@PAU1@PBU1@1@Z	; D3DXVec3Cross
; Function compile flags: /Ogsp
; File c:\program files (x86)\microsoft directx sdk (june 2010)\include\d3dx9math.inl
;	COMDAT ?D3DXVec3Cross@@YAPAUD3DXVECTOR3@@PAU1@PBU1@1@Z
_TEXT	SEGMENT
_v$ = -12						; size = 12
_pOut$ = 8						; size = 4
_pV1$ = 12						; size = 4
_pV2$ = 16						; size = 4
?D3DXVec3Cross@@YAPAUD3DXVECTOR3@@PAU1@PBU1@1@Z PROC	; D3DXVec3Cross, COMDAT

; 1747 : {

  00000	55		 push	 ebp
  00001	8b ec		 mov	 ebp, esp
  00003	83 ec 0c	 sub	 esp, 12			; 0000000cH

; 1757 :     v.z = pV1->x * pV2->y - pV1->y * pV2->x;
; 1758 : 
; 1759 :     *pOut = v;

  00006	56		 push	 esi
  00007	57		 push	 edi

; 1748 :     D3DXVECTOR3 v;
; 1749 : 
; 1750 : #ifdef D3DX_DEBUG
; 1751 :     if(!pOut || !pV1 || !pV2)
; 1752 :         return NULL;
; 1753 : #endif
; 1754 : 
; 1755 :     v.x = pV1->y * pV2->z - pV1->z * pV2->y;

  00008	8b 45 0c	 mov	 eax, DWORD PTR _pV1$[ebp]
  0000b	f3 0f 10 40 04	 movss	 xmm0, DWORD PTR [eax+4]
  00010	f3 0f 10 50 08	 movss	 xmm2, DWORD PTR [eax+8]
  00015	8b 4d 10	 mov	 ecx, DWORD PTR _pV2$[ebp]
  00018	f3 0f 10 49 08	 movss	 xmm1, DWORD PTR [ecx+8]
  0001d	f3 0f 10 59 04	 movss	 xmm3, DWORD PTR [ecx+4]
  00022	0f 5a e8	 cvtps2pd xmm5, xmm0
  00025	0f 5a e1	 cvtps2pd xmm4, xmm1
  00028	0f 5a f2	 cvtps2pd xmm6, xmm2
  0002b	f2 0f 59 e5	 mulsd	 xmm4, xmm5

; 1756 :     v.y = pV1->z * pV2->x - pV1->x * pV2->z;

  0002f	0f 5a d2	 cvtps2pd xmm2, xmm2
  00032	0f 5a c9	 cvtps2pd xmm1, xmm1
  00035	0f 5a eb	 cvtps2pd xmm5, xmm3
  00038	f2 0f 59 ee	 mulsd	 xmm5, xmm6
  0003c	f2 0f 5c e5	 subsd	 xmm4, xmm5
  00040	f3 0f 10 28	 movss	 xmm5, DWORD PTR [eax]

; 1757 :     v.z = pV1->x * pV2->y - pV1->y * pV2->x;
; 1758 : 
; 1759 :     *pOut = v;

  00044	8b 45 08	 mov	 eax, DWORD PTR _pOut$[ebp]
  00047	66 0f 5a e4	 cvtpd2ps xmm4, xmm4
  0004b	f3 0f 11 65 f4	 movss	 DWORD PTR _v$[ebp], xmm4
  00050	f3 0f 10 21	 movss	 xmm4, DWORD PTR [ecx]
  00054	0f 5a f4	 cvtps2pd xmm6, xmm4
  00057	f2 0f 59 f2	 mulsd	 xmm6, xmm2
  0005b	0f 5a d5	 cvtps2pd xmm2, xmm5
  0005e	f2 0f 59 d1	 mulsd	 xmm2, xmm1
  00062	f2 0f 5c f2	 subsd	 xmm6, xmm2
  00066	66 0f 5a ce	 cvtpd2ps xmm1, xmm6
  0006a	f3 0f 11 4d f8	 movss	 DWORD PTR _v$[ebp+4], xmm1
  0006f	0f 5a c0	 cvtps2pd xmm0, xmm0
  00072	0f 5a d3	 cvtps2pd xmm2, xmm3
  00075	0f 5a cd	 cvtps2pd xmm1, xmm5
  00078	f2 0f 59 ca	 mulsd	 xmm1, xmm2
  0007c	8d 75 f4	 lea	 esi, DWORD PTR _v$[ebp]
  0007f	8b f8		 mov	 edi, eax
  00081	0f 5a d4	 cvtps2pd xmm2, xmm4
  00084	f2 0f 59 d0	 mulsd	 xmm2, xmm0
  00088	f2 0f 5c ca	 subsd	 xmm1, xmm2
  0008c	66 0f 5a c1	 cvtpd2ps xmm0, xmm1
  00090	f3 0f 11 45 fc	 movss	 DWORD PTR _v$[ebp+8], xmm0
  00095	a5		 movsd
  00096	a5		 movsd
  00097	a5		 movsd
  00098	5f		 pop	 edi
  00099	5e		 pop	 esi

; 1760 :     return pOut;
; 1761 : }

  0009a	c9		 leave
  0009b	c3		 ret	 0
?D3DXVec3Cross@@YAPAUD3DXVECTOR3@@PAU1@PBU1@1@Z ENDP	; D3DXVec3Cross
_TEXT	ENDS
PUBLIC	?_DECSTR@@YAXPADH@Z				; _DECSTR
; Function compile flags: /Ogsp
; File d:\lost saga for developer\youtube\tutorial\source\src\lsclient\stringprotect.h
;	COMDAT ?_DECSTR@@YAXPADH@Z
_TEXT	SEGMENT
_s$ = 8							; size = 4
_l$ = 12						; size = 4
?_DECSTR@@YAXPADH@Z PROC				; _DECSTR, COMDAT

; 40   : __forceinline void _DECSTR(char* s, int l){int i=0,l4=(l-1)/4,*p=(int*)s;s[l-1]=0;for(;i<l4;++i)*(p++)^=0xEAEBECED;for(i=l4*4;i<l-1;++i)s[i]^=0xED-i%4;}

  00000	55		 push	 ebp
  00001	8b ec		 mov	 ebp, esp
  00003	8b 4d 0c	 mov	 ecx, DWORD PTR _l$[ebp]
  00006	56		 push	 esi
  00007	8b 75 08	 mov	 esi, DWORD PTR _s$[ebp]
  0000a	57		 push	 edi
  0000b	8d 79 ff	 lea	 edi, DWORD PTR [ecx-1]
  0000e	8b c7		 mov	 eax, edi
  00010	99		 cdq
  00011	83 e2 03	 and	 edx, 3
  00014	03 c2		 add	 eax, edx
  00016	c1 f8 02	 sar	 eax, 2
  00019	8b d6		 mov	 edx, esi
  0001b	c6 44 0e ff 00	 mov	 BYTE PTR [esi+ecx-1], 0
  00020	85 c0		 test	 eax, eax
  00022	7e 0e		 jle	 SHORT $LN4@DECSTR
  00024	8b c8		 mov	 ecx, eax
$LL6@DECSTR:
  00026	81 32 ed ec eb
	ea		 xor	 DWORD PTR [edx], -353637139 ; eaebecedH
  0002c	83 c2 04	 add	 edx, 4
  0002f	49		 dec	 ecx
  00030	75 f4		 jne	 SHORT $LL6@DECSTR
$LN4@DECSTR:
  00032	c1 e0 02	 shl	 eax, 2
  00035	eb 17		 jmp	 SHORT $LN14@DECSTR
$LL3@DECSTR:
  00037	8b c8		 mov	 ecx, eax
  00039	81 e1 03 00 00
	80		 and	 ecx, -2147483645	; 80000003H
  0003f	79 05		 jns	 SHORT $LN13@DECSTR
  00041	49		 dec	 ecx
  00042	83 c9 fc	 or	 ecx, -4			; fffffffcH
  00045	41		 inc	 ecx
$LN13@DECSTR:
  00046	b2 ed		 mov	 dl, -19			; ffffffedH
  00048	2a d1		 sub	 dl, cl
  0004a	30 14 30	 xor	 BYTE PTR [eax+esi], dl
  0004d	40		 inc	 eax
$LN14@DECSTR:
  0004e	3b c7		 cmp	 eax, edi
  00050	7c e5		 jl	 SHORT $LL3@DECSTR
  00052	5f		 pop	 edi
  00053	5e		 pop	 esi
  00054	5d		 pop	 ebp
  00055	c3		 ret	 0
?_DECSTR@@YAXPADH@Z ENDP				; _DECSTR
_TEXT	ENDS
PUBLIC	?GetGroup@ioGameEntity@@QBEPAVioEntityGroup@@XZ	; ioGameEntity::GetGroup
; Function compile flags: /Ogsp
; File d:\lost saga for developer\youtube\tutorial\source\src\lsclient\iogameentity.h
;	COMDAT ?GetGroup@ioGameEntity@@QBEPAVioEntityGroup@@XZ
_TEXT	SEGMENT
?GetGroup@ioGameEntity@@QBEPAVioEntityGroup@@XZ PROC	; ioGameEntity::GetGroup, COMDAT
; _this$ = ecx

; 166  : 	inline ioEntityGroup* GetGroup() const { return m_pGroup; }

  00000	8b 41 04	 mov	 eax, DWORD PTR [ecx+4]
  00003	c3		 ret	 0
?GetGroup@ioGameEntity@@QBEPAVioEntityGroup@@XZ ENDP	; ioGameEntity::GetGroup
_TEXT	ENDS
PUBLIC	??0BuffInfoStruct@@QAE@XZ			; BuffInfoStruct::BuffInfoStruct
EXTRN	__imp_??1ioHashString@@QAE@XZ:PROC
EXTRN	__imp_??0ioHashString@@QAE@XZ:PROC
EXTRN	___CxxFrameHandler3:PROC
EXTRN	@__security_check_cookie@4:PROC
EXTRN	__EH_epilog3:PROC
EXTRN	__EH_prolog3:PROC
;	COMDAT xdata$x
; File d:\lost saga for developer\youtube\tutorial\source\src\lsclient\weaponattribute.h
xdata$x	SEGMENT
__unwindtable$??0BuffInfoStruct@@QAE@XZ DD 0ffffffffH
	DD	FLAT:__unwindfunclet$??0BuffInfoStruct@@QAE@XZ$0
__ehfuncinfo$??0BuffInfoStruct@@QAE@XZ DD 019930522H
	DD	01H
	DD	FLAT:__unwindtable$??0BuffInfoStruct@@QAE@XZ
	DD	2 DUP(00H)
	DD	2 DUP(00H)
	DD	00H
	DD	01H
; Function compile flags: /Ogsp
xdata$x	ENDS
;	COMDAT ??0BuffInfoStruct@@QAE@XZ
_TEXT	SEGMENT
_this$ = -16						; size = 4
__$EHRec$ = -12						; size = 12
??0BuffInfoStruct@@QAE@XZ PROC				; BuffInfoStruct::BuffInfoStruct, COMDAT
; _this$ = ecx

; 278  : 	BuffInfoStruct()

  00000	6a 04		 push	 4
  00002	b8 00 00 00 00	 mov	 eax, __ehhandler$??0BuffInfoStruct@@QAE@XZ
  00007	e8 00 00 00 00	 call	 __EH_prolog3
  0000c	8b f1		 mov	 esi, ecx
  0000e	89 75 f0	 mov	 DWORD PTR _this$[ebp], esi
  00011	ff 15 00 00 00
	00		 call	 DWORD PTR __imp_??0ioHashString@@QAE@XZ
  00017	83 65 fc 00	 and	 DWORD PTR __$EHRec$[ebp+8], 0

; 279  : 	{
; 280  : 		m_BuffName.Clear();

  0001b	8b ce		 mov	 ecx, esi
  0001d	ff 15 00 00 00
	00		 call	 DWORD PTR __imp_?Clear@ioHashString@@QAEXXZ

; 281  : 		m_iBuffType = 0;

  00023	83 66 10 00	 and	 DWORD PTR [esi+16], 0

; 282  : 	}

  00027	8b c6		 mov	 eax, esi
  00029	e8 00 00 00 00	 call	 __EH_epilog3
  0002e	c3		 ret	 0
_TEXT	ENDS
;	COMDAT text$x
text$x	SEGMENT
__unwindfunclet$??0BuffInfoStruct@@QAE@XZ$0:
  00000	8b 4d f0	 mov	 ecx, DWORD PTR _this$[ebp]
  00003	ff 25 00 00 00
	00		 jmp	 DWORD PTR __imp_??1ioHashString@@QAE@XZ
__ehhandler$??0BuffInfoStruct@@QAE@XZ:
  00009	8b 54 24 08	 mov	 edx, DWORD PTR [esp+8]
  0000d	8d 42 0c	 lea	 eax, DWORD PTR [edx+12]
  00010	8b 4a ec	 mov	 ecx, DWORD PTR [edx-20]
  00013	33 c8		 xor	 ecx, eax
  00015	e8 00 00 00 00	 call	 @__security_check_cookie@4
  0001a	b8 00 00 00 00	 mov	 eax, OFFSET __ehfuncinfo$??0BuffInfoStruct@@QAE@XZ
  0001f	e9 00 00 00 00	 jmp	 ___CxxFrameHandler3
text$x	ENDS
??0BuffInfoStruct@@QAE@XZ ENDP				; BuffInfoStruct::BuffInfoStruct
PUBLIC	??1BuffInfoStruct@@QAE@XZ			; BuffInfoStruct::~BuffInfoStruct
; Function compile flags: /Ogsp
;	COMDAT ??1BuffInfoStruct@@QAE@XZ
_TEXT	SEGMENT
??1BuffInfoStruct@@QAE@XZ PROC				; BuffInfoStruct::~BuffInfoStruct, COMDAT
; _this$ = ecx
  00000	ff 25 00 00 00
	00		 jmp	 DWORD PTR __imp_??1ioHashString@@QAE@XZ
??1BuffInfoStruct@@QAE@XZ ENDP				; BuffInfoStruct::~BuffInfoStruct
_TEXT	ENDS
PUBLIC	?GetOwnerItem@ioSkill@@QBEPAVioItem@@XZ		; ioSkill::GetOwnerItem
; Function compile flags: /Ogsp
; File d:\lost saga for developer\youtube\tutorial\source\src\lsclient\ioskill.h
;	COMDAT ?GetOwnerItem@ioSkill@@QBEPAVioItem@@XZ
_TEXT	SEGMENT
?GetOwnerItem@ioSkill@@QBEPAVioItem@@XZ PROC		; ioSkill::GetOwnerItem, COMDAT
; _this$ = ecx

; 397  : 	inline ioItem *GetOwnerItem() const { return m_pOwnerItem; }

  00000	8b 81 a4 02 00
	00		 mov	 eax, DWORD PTR [ecx+676]
  00006	c3		 ret	 0
?GetOwnerItem@ioSkill@@QBEPAVioItem@@XZ ENDP		; ioSkill::GetOwnerItem
_TEXT	ENDS
PUBLIC	?GetName@ioSkill@@QBEABVioHashString@@XZ	; ioSkill::GetName
; Function compile flags: /Ogsp
;	COMDAT ?GetName@ioSkill@@QBEABVioHashString@@XZ
_TEXT	SEGMENT
?GetName@ioSkill@@QBEABVioHashString@@XZ PROC		; ioSkill::GetName, COMDAT
; _this$ = ecx

; 414  : 	inline const ioHashString& GetName() const { return m_Name; }

  00000	8d 41 24	 lea	 eax, DWORD PTR [ecx+36]
  00003	c3		 ret	 0
?GetName@ioSkill@@QBEABVioHashString@@XZ ENDP		; ioSkill::GetName
_TEXT	ENDS
PUBLIC	??_7?$CEncrypt@M@@6B@				; CEncrypt<float>::`vftable'
PUBLIC	??1?$CEncrypt@M@@UAE@XZ				; CEncrypt<float>::~CEncrypt<float>
PUBLIC	??_R4?$CEncrypt@M@@6B@				; CEncrypt<float>::`RTTI Complete Object Locator'
PUBLIC	??_R0?AV?$CEncrypt@M@@@8			; CEncrypt<float> `RTTI Type Descriptor'
PUBLIC	??_R3?$CEncrypt@M@@8				; CEncrypt<float>::`RTTI Class Hierarchy Descriptor'
PUBLIC	??_R2?$CEncrypt@M@@8				; CEncrypt<float>::`RTTI Base Class Array'
PUBLIC	??_R1A@?0A@EA@?$CEncrypt@M@@8			; CEncrypt<float>::`RTTI Base Class Descriptor at (0,-1,0,64)'
EXTRN	??1ccddaabb@@UAE@XZ:PROC			; ccddaabb::~ccddaabb
EXTRN	??_E?$CEncrypt@M@@UAEPAXI@Z:PROC		; CEncrypt<float>::`vector deleting destructor'
;	COMDAT ??_R1A@?0A@EA@?$CEncrypt@M@@8
; File d:\lost saga for developer\youtube\tutorial\source\src\lsclient\encryptvalue.h
rdata$r	SEGMENT
??_R1A@?0A@EA@?$CEncrypt@M@@8 DD FLAT:??_R0?AV?$CEncrypt@M@@@8 ; CEncrypt<float>::`RTTI Base Class Descriptor at (0,-1,0,64)'
	DD	00H
	DD	00H
	DD	0ffffffffH
	DD	00H
	DD	040H
	DD	FLAT:??_R3?$CEncrypt@M@@8
rdata$r	ENDS
;	COMDAT ??_R2?$CEncrypt@M@@8
rdata$r	SEGMENT
??_R2?$CEncrypt@M@@8 DD FLAT:??_R1A@?0A@EA@?$CEncrypt@M@@8 ; CEncrypt<float>::`RTTI Base Class Array'
rdata$r	ENDS
;	COMDAT ??_R3?$CEncrypt@M@@8
rdata$r	SEGMENT
??_R3?$CEncrypt@M@@8 DD 00H				; CEncrypt<float>::`RTTI Class Hierarchy Descriptor'
	DD	00H
	DD	01H
	DD	FLAT:??_R2?$CEncrypt@M@@8
rdata$r	ENDS
;	COMDAT ??_R0?AV?$CEncrypt@M@@@8
_DATA	SEGMENT
??_R0?AV?$CEncrypt@M@@@8 DD FLAT:??_7type_info@@6B@	; CEncrypt<float> `RTTI Type Descriptor'
	DD	00H
	DB	'.?AV?$CEncrypt@M@@', 00H
_DATA	ENDS
;	COMDAT ??_R4?$CEncrypt@M@@6B@
rdata$r	SEGMENT
??_R4?$CEncrypt@M@@6B@ DD 00H				; CEncrypt<float>::`RTTI Complete Object Locator'
	DD	00H
	DD	00H
	DD	FLAT:??_R0?AV?$CEncrypt@M@@@8
	DD	FLAT:??_R3?$CEncrypt@M@@8
rdata$r	ENDS
;	COMDAT ??_7?$CEncrypt@M@@6B@
CONST	SEGMENT
??_7?$CEncrypt@M@@6B@ DD FLAT:??_R4?$CEncrypt@M@@6B@	; CEncrypt<float>::`vftable'
	DD	FLAT:??_E?$CEncrypt@M@@UAEPAXI@Z
; Function compile flags: /Ogsp
CONST	ENDS
;	COMDAT ??1?$CEncrypt@M@@UAE@XZ
_TEXT	SEGMENT
??1?$CEncrypt@M@@UAE@XZ PROC				; CEncrypt<float>::~CEncrypt<float>, COMDAT
; _this$ = ecx

; 127  : 	{

  00000	c7 01 00 00 00
	00		 mov	 DWORD PTR [ecx], OFFSET ??_7?$CEncrypt@M@@6B@

; 128  : 	}

  00006	83 c1 0c	 add	 ecx, 12			; 0000000cH
  00009	e9 00 00 00 00	 jmp	 ??1ccddaabb@@UAE@XZ	; ccddaabb::~ccddaabb
??1?$CEncrypt@M@@UAE@XZ ENDP				; CEncrypt<float>::~CEncrypt<float>
_TEXT	ENDS
PUBLIC	??_7?$CEncrypt@K@@6B@				; CEncrypt<unsigned long>::`vftable'
PUBLIC	??1?$CEncrypt@K@@UAE@XZ				; CEncrypt<unsigned long>::~CEncrypt<unsigned long>
PUBLIC	??_R4?$CEncrypt@K@@6B@				; CEncrypt<unsigned long>::`RTTI Complete Object Locator'
PUBLIC	??_R0?AV?$CEncrypt@K@@@8			; CEncrypt<unsigned long> `RTTI Type Descriptor'
PUBLIC	??_R3?$CEncrypt@K@@8				; CEncrypt<unsigned long>::`RTTI Class Hierarchy Descriptor'
PUBLIC	??_R2?$CEncrypt@K@@8				; CEncrypt<unsigned long>::`RTTI Base Class Array'
PUBLIC	??_R1A@?0A@EA@?$CEncrypt@K@@8			; CEncrypt<unsigned long>::`RTTI Base Class Descriptor at (0,-1,0,64)'
EXTRN	??_E?$CEncrypt@K@@UAEPAXI@Z:PROC		; CEncrypt<unsigned long>::`vector deleting destructor'
;	COMDAT ??_R1A@?0A@EA@?$CEncrypt@K@@8
rdata$r	SEGMENT
??_R1A@?0A@EA@?$CEncrypt@K@@8 DD FLAT:??_R0?AV?$CEncrypt@K@@@8 ; CEncrypt<unsigned long>::`RTTI Base Class Descriptor at (0,-1,0,64)'
	DD	00H
	DD	00H
	DD	0ffffffffH
	DD	00H
	DD	040H
	DD	FLAT:??_R3?$CEncrypt@K@@8
rdata$r	ENDS
;	COMDAT ??_R2?$CEncrypt@K@@8
rdata$r	SEGMENT
??_R2?$CEncrypt@K@@8 DD FLAT:??_R1A@?0A@EA@?$CEncrypt@K@@8 ; CEncrypt<unsigned long>::`RTTI Base Class Array'
rdata$r	ENDS
;	COMDAT ??_R3?$CEncrypt@K@@8
rdata$r	SEGMENT
??_R3?$CEncrypt@K@@8 DD 00H				; CEncrypt<unsigned long>::`RTTI Class Hierarchy Descriptor'
	DD	00H
	DD	01H
	DD	FLAT:??_R2?$CEncrypt@K@@8
rdata$r	ENDS
;	COMDAT ??_R0?AV?$CEncrypt@K@@@8
_DATA	SEGMENT
??_R0?AV?$CEncrypt@K@@@8 DD FLAT:??_7type_info@@6B@	; CEncrypt<unsigned long> `RTTI Type Descriptor'
	DD	00H
	DB	'.?AV?$CEncrypt@K@@', 00H
_DATA	ENDS
;	COMDAT ??_R4?$CEncrypt@K@@6B@
rdata$r	SEGMENT
??_R4?$CEncrypt@K@@6B@ DD 00H				; CEncrypt<unsigned long>::`RTTI Complete Object Locator'
	DD	00H
	DD	00H
	DD	FLAT:??_R0?AV?$CEncrypt@K@@@8
	DD	FLAT:??_R3?$CEncrypt@K@@8
rdata$r	ENDS
;	COMDAT ??_7?$CEncrypt@K@@6B@
CONST	SEGMENT
??_7?$CEncrypt@K@@6B@ DD FLAT:??_R4?$CEncrypt@K@@6B@	; CEncrypt<unsigned long>::`vftable'
	DD	FLAT:??_E?$CEncrypt@K@@UAEPAXI@Z
; Function compile flags: /Ogsp
CONST	ENDS
;	COMDAT ??1?$CEncrypt@K@@UAE@XZ
_TEXT	SEGMENT
??1?$CEncrypt@K@@UAE@XZ PROC				; CEncrypt<unsigned long>::~CEncrypt<unsigned long>, COMDAT
; _this$ = ecx

; 127  : 	{

  00000	c7 01 00 00 00
	00		 mov	 DWORD PTR [ecx], OFFSET ??_7?$CEncrypt@K@@6B@

; 128  : 	}

  00006	83 c1 0c	 add	 ecx, 12			; 0000000cH
  00009	e9 00 00 00 00	 jmp	 ??1ccddaabb@@UAE@XZ	; ccddaabb::~ccddaabb
??1?$CEncrypt@K@@UAE@XZ ENDP				; CEncrypt<unsigned long>::~CEncrypt<unsigned long>
; Function compile flags: /Ogsp
_TEXT	ENDS
;	COMDAT ??_G?$CEncrypt@M@@UAEPAXI@Z
_TEXT	SEGMENT
___flags$ = 8						; size = 4
??_G?$CEncrypt@M@@UAEPAXI@Z PROC			; CEncrypt<float>::`scalar deleting destructor', COMDAT
; _this$ = ecx
  00000	55		 push	 ebp
  00001	8b ec		 mov	 ebp, esp
  00003	56		 push	 esi
  00004	8b f1		 mov	 esi, ecx
  00006	8d 4e 0c	 lea	 ecx, DWORD PTR [esi+12]
  00009	c7 06 00 00 00
	00		 mov	 DWORD PTR [esi], OFFSET ??_7?$CEncrypt@M@@6B@
  0000f	e8 00 00 00 00	 call	 ??1ccddaabb@@UAE@XZ	; ccddaabb::~ccddaabb
  00014	f6 45 08 01	 test	 BYTE PTR ___flags$[ebp], 1
  00018	74 07		 je	 SHORT $LN1@scalar@2
  0001a	56		 push	 esi
  0001b	e8 00 00 00 00	 call	 ??3@YAXPAX@Z		; operator delete
  00020	59		 pop	 ecx
$LN1@scalar@2:
  00021	8b c6		 mov	 eax, esi
  00023	5e		 pop	 esi
  00024	5d		 pop	 ebp
  00025	c2 04 00	 ret	 4
??_G?$CEncrypt@M@@UAEPAXI@Z ENDP			; CEncrypt<float>::`scalar deleting destructor'
; Function compile flags: /Ogsp
_TEXT	ENDS
;	COMDAT ??_G?$CEncrypt@K@@UAEPAXI@Z
_TEXT	SEGMENT
___flags$ = 8						; size = 4
??_G?$CEncrypt@K@@UAEPAXI@Z PROC			; CEncrypt<unsigned long>::`scalar deleting destructor', COMDAT
; _this$ = ecx
  00000	55		 push	 ebp
  00001	8b ec		 mov	 ebp, esp
  00003	56		 push	 esi
  00004	8b f1		 mov	 esi, ecx
  00006	8d 4e 0c	 lea	 ecx, DWORD PTR [esi+12]
  00009	c7 06 00 00 00
	00		 mov	 DWORD PTR [esi], OFFSET ??_7?$CEncrypt@K@@6B@
  0000f	e8 00 00 00 00	 call	 ??1ccddaabb@@UAE@XZ	; ccddaabb::~ccddaabb
  00014	f6 45 08 01	 test	 BYTE PTR ___flags$[ebp], 1
  00018	74 07		 je	 SHORT $LN1@scalar@3
  0001a	56		 push	 esi
  0001b	e8 00 00 00 00	 call	 ??3@YAXPAX@Z		; operator delete
  00020	59		 pop	 ecx
$LN1@scalar@3:
  00021	8b c6		 mov	 eax, esi
  00023	5e		 pop	 esi
  00024	5d		 pop	 ebp
  00025	c2 04 00	 ret	 4
??_G?$CEncrypt@K@@UAEPAXI@Z ENDP			; CEncrypt<unsigned long>::`scalar deleting destructor'
_TEXT	ENDS
PUBLIC	?EncryptValueToPool@?$CEncrypt@M@@AAEXPBD@Z	; CEncrypt<float>::EncryptValueToPool
EXTRN	?EncryptByte@ccddaabb@@QAEXPBDPADH@Z:PROC	; ccddaabb::EncryptByte
; Function compile flags: /Ogsp
;	COMDAT ?EncryptValueToPool@?$CEncrypt@M@@AAEXPBD@Z
_TEXT	SEGMENT
_value$ = 8						; size = 4
?EncryptValueToPool@?$CEncrypt@M@@AAEXPBD@Z PROC	; CEncrypt<float>::EncryptValueToPool, COMDAT
; _this$ = ecx

; 67   : 	{

  00000	55		 push	 ebp
  00001	8b ec		 mov	 ebp, esp

; 68   : 		m_RC5.EncryptByte( value, m_MemPool, max(m_ValueSize, DEFAULT_ENCRYPT) );

  00003	0f b7 41 06	 movzx	 eax, WORD PTR [ecx+6]
  00007	83 f8 04	 cmp	 eax, 4
  0000a	77 03		 ja	 SHORT $LN4@EncryptVal
  0000c	6a 04		 push	 4
  0000e	58		 pop	 eax
$LN4@EncryptVal:
  0000f	50		 push	 eax
  00010	8d 41 1c	 lea	 eax, DWORD PTR [ecx+28]
  00013	50		 push	 eax
  00014	ff 75 08	 push	 DWORD PTR _value$[ebp]
  00017	83 c1 0c	 add	 ecx, 12			; 0000000cH
  0001a	e8 00 00 00 00	 call	 ?EncryptByte@ccddaabb@@QAEXPBDPADH@Z ; ccddaabb::EncryptByte

; 69   : 		
; 70   : 	}

  0001f	5d		 pop	 ebp
  00020	c2 04 00	 ret	 4
?EncryptValueToPool@?$CEncrypt@M@@AAEXPBD@Z ENDP	; CEncrypt<float>::EncryptValueToPool
_TEXT	ENDS
PUBLIC	?Init@?$CEncrypt@M@@AAEXXZ			; CEncrypt<float>::Init
EXTRN	?Setup@ccddaabb@@QAEXPBDHH@Z:PROC		; ccddaabb::Setup
EXTRN	__imp__rand:PROC
EXTRN	__imp__timeGetTime@0:PROC
EXTRN	__imp__GetCurrentProcessId@0:PROC
; Function compile flags: /Ogsp
;	COMDAT ?Init@?$CEncrypt@M@@AAEXXZ
_TEXT	SEGMENT
_pid$ = -8						; size = 4
_tick$ = -4						; size = 4
?Init@?$CEncrypt@M@@AAEXXZ PROC				; CEncrypt<float>::Init, COMDAT
; _this$ = ecx

; 73   : 	{

  00000	55		 push	 ebp
  00001	8b ec		 mov	 ebp, esp
  00003	51		 push	 ecx
  00004	51		 push	 ecx
  00005	53		 push	 ebx
  00006	56		 push	 esi
  00007	57		 push	 edi
  00008	8b f1		 mov	 esi, ecx

; 74   : 		DWORD pid = GetCurrentProcessId();

  0000a	ff 15 00 00 00
	00		 call	 DWORD PTR __imp__GetCurrentProcessId@0
  00010	89 45 f8	 mov	 DWORD PTR _pid$[ebp], eax

; 75   : 		DWORD tick = timeGetTime();

  00013	ff 15 00 00 00
	00		 call	 DWORD PTR __imp__timeGetTime@0

; 76   : 		m_ValueSize    = sizeof(type);
; 77   : 		m_MemPoolPos   = (unsigned short)( rand()+pid+tick )%(MAX_MEM_POOL-m_ValueSize);

  00019	8b 3d 00 00 00
	00		 mov	 edi, DWORD PTR __imp__rand
  0001f	89 45 fc	 mov	 DWORD PTR _tick$[ebp], eax
  00022	6a 04		 push	 4
  00024	58		 pop	 eax
  00025	66 89 46 06	 mov	 WORD PTR [esi+6], ax
  00029	ff d7		 call	 edi
  0002b	03 45 f8	 add	 eax, DWORD PTR _pid$[ebp]
  0002e	0f b7 4e 06	 movzx	 ecx, WORD PTR [esi+6]
  00032	03 45 fc	 add	 eax, DWORD PTR _tick$[ebp]
  00035	6a 0c		 push	 12			; 0000000cH
  00037	0f b7 c0	 movzx	 eax, ax
  0003a	5b		 pop	 ebx
  0003b	99		 cdq
  0003c	2b d9		 sub	 ebx, ecx
  0003e	f7 fb		 idiv	 ebx
  00040	66 89 56 04	 mov	 WORD PTR [esi+4], dx

; 78   : 		m_EncryptSeed  = (char)( rand()+pid+tick )%256;

  00044	ff d7		 call	 edi
  00046	02 45 f8	 add	 al, BYTE PTR _pid$[ebp]
  00049	02 45 fc	 add	 al, BYTE PTR _tick$[ebp]
  0004c	0f be c0	 movsx	 eax, al
  0004f	25 ff 00 00 80	 and	 eax, -2147483393	; 800000ffH
  00054	79 07		 jns	 SHORT $LN8@Init
  00056	48		 dec	 eax
  00057	0d 00 ff ff ff	 or	 eax, -256		; ffffff00H
  0005c	40		 inc	 eax
$LN8@Init:
  0005d	88 46 08	 mov	 BYTE PTR [esi+8], al

; 79   : 
; 80   : 		for (int i = 0; i < MAX_MEM_POOL ; i++)

  00060	33 db		 xor	 ebx, ebx
$LL3@Init:

; 81   : 			m_MemPool[i] = (char)( rand()+pid+tick )%256; // 

  00062	ff d7		 call	 edi
  00064	02 45 f8	 add	 al, BYTE PTR _pid$[ebp]
  00067	02 45 fc	 add	 al, BYTE PTR _tick$[ebp]
  0006a	0f be c0	 movsx	 eax, al
  0006d	25 ff 00 00 80	 and	 eax, -2147483393	; 800000ffH
  00072	79 07		 jns	 SHORT $LN9@Init
  00074	48		 dec	 eax
  00075	0d 00 ff ff ff	 or	 eax, -256		; ffffff00H
  0007a	40		 inc	 eax
$LN9@Init:
  0007b	88 44 1e 1c	 mov	 BYTE PTR [esi+ebx+28], al
  0007f	43		 inc	 ebx
  00080	83 fb 0c	 cmp	 ebx, 12			; 0000000cH
  00083	7c dd		 jl	 SHORT $LL3@Init

; 82   : 
; 83   : 		//UJ 130913, : szKey  
; 84   : 		//char szKey[ccddaabb::KEY_SIZE];//="";
; 85   : 		//for (int i = 0; i < ccddaabb::KEY_SIZE  ; i++)
; 86   : 		//	szKey[i] = (char)( rand()+pid+tick )%256; // 
; 87   : 		m_RC5.Setup( NULL, pid, tick );

  00085	ff 75 fc	 push	 DWORD PTR _tick$[ebp]
  00088	8d 4e 0c	 lea	 ecx, DWORD PTR [esi+12]
  0008b	ff 75 f8	 push	 DWORD PTR _pid$[ebp]
  0008e	6a 00		 push	 0
  00090	e8 00 00 00 00	 call	 ?Setup@ccddaabb@@QAEXPBDHH@Z ; ccddaabb::Setup
  00095	5f		 pop	 edi
  00096	5e		 pop	 esi
  00097	5b		 pop	 ebx

; 88   : 
; 89   : #ifdef _NOTUSE
; 90   : 		m_value        = 0;
; 91   : 		EncryptValueToPool((char*)&m_value);
; 92   : 		Debug();
; 93   : #endif
; 94   : 	}

  00098	c9		 leave
  00099	c3		 ret	 0
?Init@?$CEncrypt@M@@AAEXXZ ENDP				; CEncrypt<float>::Init
_TEXT	ENDS
PUBLIC	?DecryptValueToPool@?$CEncrypt@M@@QAEXPAM@Z	; CEncrypt<float>::DecryptValueToPool
EXTRN	?DecryptByte@ccddaabb@@QBEXPBDPADH@Z:PROC	; ccddaabb::DecryptByte
; Function compile flags: /Ogsp
;	COMDAT ?DecryptValueToPool@?$CEncrypt@M@@QAEXPAM@Z
_TEXT	SEGMENT
_value$ = 8						; size = 4
?DecryptValueToPool@?$CEncrypt@M@@QAEXPAM@Z PROC	; CEncrypt<float>::DecryptValueToPool, COMDAT
; _this$ = ecx

; 1648 : 	{

  00000	55		 push	 ebp
  00001	8b ec		 mov	 ebp, esp
  00003	56		 push	 esi

; 1649 : 		m_RC5.DecryptByte( m_MemPool, m_TempMem, 4 );

  00004	8d 71 28	 lea	 esi, DWORD PTR [ecx+40]
  00007	6a 04		 push	 4
  00009	8d 41 1c	 lea	 eax, DWORD PTR [ecx+28]
  0000c	56		 push	 esi
  0000d	50		 push	 eax
  0000e	83 c1 0c	 add	 ecx, 12			; 0000000cH
  00011	e8 00 00 00 00	 call	 ?DecryptByte@ccddaabb@@QBEXPBDPADH@Z ; ccddaabb::DecryptByte

; 1650 : 		*value = *((float*)m_TempMem);

  00016	d9 06		 fld	 DWORD PTR [esi]
  00018	8b 45 08	 mov	 eax, DWORD PTR _value$[ebp]
  0001b	d9 18		 fstp	 DWORD PTR [eax]
  0001d	5e		 pop	 esi

; 1651 : 	}

  0001e	5d		 pop	 ebp
  0001f	c2 04 00	 ret	 4
?DecryptValueToPool@?$CEncrypt@M@@QAEXPAM@Z ENDP	; CEncrypt<float>::DecryptValueToPool
_TEXT	ENDS
PUBLIC	?EncryptValueToPool@?$CEncrypt@K@@AAEXPBD@Z	; CEncrypt<unsigned long>::EncryptValueToPool
; Function compile flags: /Ogsp
;	COMDAT ?EncryptValueToPool@?$CEncrypt@K@@AAEXPBD@Z
_TEXT	SEGMENT
_value$ = 8						; size = 4
?EncryptValueToPool@?$CEncrypt@K@@AAEXPBD@Z PROC	; CEncrypt<unsigned long>::EncryptValueToPool, COMDAT
; _this$ = ecx

; 67   : 	{

  00000	55		 push	 ebp
  00001	8b ec		 mov	 ebp, esp

; 68   : 		m_RC5.EncryptByte( value, m_MemPool, max(m_ValueSize, DEFAULT_ENCRYPT) );

  00003	0f b7 41 06	 movzx	 eax, WORD PTR [ecx+6]
  00007	83 f8 04	 cmp	 eax, 4
  0000a	77 03		 ja	 SHORT $LN4@EncryptVal@2
  0000c	6a 04		 push	 4
  0000e	58		 pop	 eax
$LN4@EncryptVal@2:
  0000f	50		 push	 eax
  00010	8d 41 1c	 lea	 eax, DWORD PTR [ecx+28]
  00013	50		 push	 eax
  00014	ff 75 08	 push	 DWORD PTR _value$[ebp]
  00017	83 c1 0c	 add	 ecx, 12			; 0000000cH
  0001a	e8 00 00 00 00	 call	 ?EncryptByte@ccddaabb@@QAEXPBDPADH@Z ; ccddaabb::EncryptByte

; 69   : 		
; 70   : 	}

  0001f	5d		 pop	 ebp
  00020	c2 04 00	 ret	 4
?EncryptValueToPool@?$CEncrypt@K@@AAEXPBD@Z ENDP	; CEncrypt<unsigned long>::EncryptValueToPool
_TEXT	ENDS
PUBLIC	?Init@?$CEncrypt@K@@AAEXXZ			; CEncrypt<unsigned long>::Init
; Function compile flags: /Ogsp
;	COMDAT ?Init@?$CEncrypt@K@@AAEXXZ
_TEXT	SEGMENT
_pid$ = -8						; size = 4
_tick$ = -4						; size = 4
?Init@?$CEncrypt@K@@AAEXXZ PROC				; CEncrypt<unsigned long>::Init, COMDAT
; _this$ = ecx

; 73   : 	{

  00000	55		 push	 ebp
  00001	8b ec		 mov	 ebp, esp
  00003	51		 push	 ecx
  00004	51		 push	 ecx
  00005	53		 push	 ebx
  00006	56		 push	 esi
  00007	57		 push	 edi
  00008	8b f1		 mov	 esi, ecx

; 74   : 		DWORD pid = GetCurrentProcessId();

  0000a	ff 15 00 00 00
	00		 call	 DWORD PTR __imp__GetCurrentProcessId@0
  00010	89 45 f8	 mov	 DWORD PTR _pid$[ebp], eax

; 75   : 		DWORD tick = timeGetTime();

  00013	ff 15 00 00 00
	00		 call	 DWORD PTR __imp__timeGetTime@0

; 76   : 		m_ValueSize    = sizeof(type);
; 77   : 		m_MemPoolPos   = (unsigned short)( rand()+pid+tick )%(MAX_MEM_POOL-m_ValueSize);

  00019	8b 3d 00 00 00
	00		 mov	 edi, DWORD PTR __imp__rand
  0001f	89 45 fc	 mov	 DWORD PTR _tick$[ebp], eax
  00022	6a 04		 push	 4
  00024	58		 pop	 eax
  00025	66 89 46 06	 mov	 WORD PTR [esi+6], ax
  00029	ff d7		 call	 edi
  0002b	03 45 f8	 add	 eax, DWORD PTR _pid$[ebp]
  0002e	0f b7 4e 06	 movzx	 ecx, WORD PTR [esi+6]
  00032	03 45 fc	 add	 eax, DWORD PTR _tick$[ebp]
  00035	6a 0c		 push	 12			; 0000000cH
  00037	0f b7 c0	 movzx	 eax, ax
  0003a	5b		 pop	 ebx
  0003b	99		 cdq
  0003c	2b d9		 sub	 ebx, ecx
  0003e	f7 fb		 idiv	 ebx
  00040	66 89 56 04	 mov	 WORD PTR [esi+4], dx

; 78   : 		m_EncryptSeed  = (char)( rand()+pid+tick )%256;

  00044	ff d7		 call	 edi
  00046	02 45 f8	 add	 al, BYTE PTR _pid$[ebp]
  00049	02 45 fc	 add	 al, BYTE PTR _tick$[ebp]
  0004c	0f be c0	 movsx	 eax, al
  0004f	25 ff 00 00 80	 and	 eax, -2147483393	; 800000ffH
  00054	79 07		 jns	 SHORT $LN8@Init@2
  00056	48		 dec	 eax
  00057	0d 00 ff ff ff	 or	 eax, -256		; ffffff00H
  0005c	40		 inc	 eax
$LN8@Init@2:
  0005d	88 46 08	 mov	 BYTE PTR [esi+8], al

; 79   : 
; 80   : 		for (int i = 0; i < MAX_MEM_POOL ; i++)

  00060	33 db		 xor	 ebx, ebx
$LL3@Init@2:

; 81   : 			m_MemPool[i] = (char)( rand()+pid+tick )%256; // 

  00062	ff d7		 call	 edi
  00064	02 45 f8	 add	 al, BYTE PTR _pid$[ebp]
  00067	02 45 fc	 add	 al, BYTE PTR _tick$[ebp]
  0006a	0f be c0	 movsx	 eax, al
  0006d	25 ff 00 00 80	 and	 eax, -2147483393	; 800000ffH
  00072	79 07		 jns	 SHORT $LN9@Init@2
  00074	48		 dec	 eax
  00075	0d 00 ff ff ff	 or	 eax, -256		; ffffff00H
  0007a	40		 inc	 eax
$LN9@Init@2:
  0007b	88 44 1e 1c	 mov	 BYTE PTR [esi+ebx+28], al
  0007f	43		 inc	 ebx
  00080	83 fb 0c	 cmp	 ebx, 12			; 0000000cH
  00083	7c dd		 jl	 SHORT $LL3@Init@2

; 82   : 
; 83   : 		//UJ 130913, : szKey  
; 84   : 		//char szKey[ccddaabb::KEY_SIZE];//="";
; 85   : 		//for (int i = 0; i < ccddaabb::KEY_SIZE  ; i++)
; 86   : 		//	szKey[i] = (char)( rand()+pid+tick )%256; // 
; 87   : 		m_RC5.Setup( NULL, pid, tick );

  00085	ff 75 fc	 push	 DWORD PTR _tick$[ebp]
  00088	8d 4e 0c	 lea	 ecx, DWORD PTR [esi+12]
  0008b	ff 75 f8	 push	 DWORD PTR _pid$[ebp]
  0008e	6a 00		 push	 0
  00090	e8 00 00 00 00	 call	 ?Setup@ccddaabb@@QAEXPBDHH@Z ; ccddaabb::Setup
  00095	5f		 pop	 edi
  00096	5e		 pop	 esi
  00097	5b		 pop	 ebx

; 88   : 
; 89   : #ifdef _NOTUSE
; 90   : 		m_value        = 0;
; 91   : 		EncryptValueToPool((char*)&m_value);
; 92   : 		Debug();
; 93   : #endif
; 94   : 	}

  00098	c9		 leave
  00099	c3		 ret	 0
?Init@?$CEncrypt@K@@AAEXXZ ENDP				; CEncrypt<unsigned long>::Init
_TEXT	ENDS
PUBLIC	?DecryptValueToPool@?$CEncrypt@K@@QAEXPAK@Z	; CEncrypt<unsigned long>::DecryptValueToPool
; Function compile flags: /Ogsp
;	COMDAT ?DecryptValueToPool@?$CEncrypt@K@@QAEXPAK@Z
_TEXT	SEGMENT
_value$ = 8						; size = 4
?DecryptValueToPool@?$CEncrypt@K@@QAEXPAK@Z PROC	; CEncrypt<unsigned long>::DecryptValueToPool, COMDAT
; _this$ = ecx

; 1256 : 	{

  00000	55		 push	 ebp
  00001	8b ec		 mov	 ebp, esp
  00003	56		 push	 esi

; 1257 : 		m_RC5.DecryptByte( m_MemPool, m_TempMem, 4 );

  00004	8d 71 28	 lea	 esi, DWORD PTR [ecx+40]
  00007	6a 04		 push	 4
  00009	8d 41 1c	 lea	 eax, DWORD PTR [ecx+28]
  0000c	56		 push	 esi
  0000d	50		 push	 eax
  0000e	83 c1 0c	 add	 ecx, 12			; 0000000cH
  00011	e8 00 00 00 00	 call	 ?DecryptByte@ccddaabb@@QBEXPBDPADH@Z ; ccddaabb::DecryptByte

; 1258 : 		*value = *((DWORD*)m_TempMem);

  00016	8b 06		 mov	 eax, DWORD PTR [esi]
  00018	8b 4d 08	 mov	 ecx, DWORD PTR _value$[ebp]
  0001b	89 01		 mov	 DWORD PTR [ecx], eax
  0001d	5e		 pop	 esi

; 1259 : 	}

  0001e	5d		 pop	 ebp
  0001f	c2 04 00	 ret	 4
?DecryptValueToPool@?$CEncrypt@K@@QAEXPAK@Z ENDP	; CEncrypt<unsigned long>::DecryptValueToPool
_TEXT	ENDS
PUBLIC	?DecryptValueToPool@?$CEncrypt@W4TeamType@@@@QAEXPAW4TeamType@@@Z ; CEncrypt<enum TeamType>::DecryptValueToPool
; Function compile flags: /Ogsp
;	COMDAT ?DecryptValueToPool@?$CEncrypt@W4TeamType@@@@QAEXPAW4TeamType@@@Z
_TEXT	SEGMENT
_value$ = 8						; size = 4
?DecryptValueToPool@?$CEncrypt@W4TeamType@@@@QAEXPAW4TeamType@@@Z PROC ; CEncrypt<enum TeamType>::DecryptValueToPool, COMDAT
; _this$ = ecx

; 2959 : 	{

  00000	55		 push	 ebp
  00001	8b ec		 mov	 ebp, esp
  00003	56		 push	 esi

; 2960 : 		m_RC5.DecryptByte( m_MemPool, m_TempMem, sizeof(TeamType) );

  00004	8d 71 28	 lea	 esi, DWORD PTR [ecx+40]
  00007	6a 04		 push	 4
  00009	8d 41 1c	 lea	 eax, DWORD PTR [ecx+28]
  0000c	56		 push	 esi
  0000d	50		 push	 eax
  0000e	83 c1 0c	 add	 ecx, 12			; 0000000cH
  00011	e8 00 00 00 00	 call	 ?DecryptByte@ccddaabb@@QBEXPBDPADH@Z ; ccddaabb::DecryptByte

; 2961 : 		*value = *((TeamType*)m_TempMem);

  00016	8b 06		 mov	 eax, DWORD PTR [esi]
  00018	8b 4d 08	 mov	 ecx, DWORD PTR _value$[ebp]
  0001b	89 01		 mov	 DWORD PTR [ecx], eax
  0001d	5e		 pop	 esi

; 2962 : 	}

  0001e	5d		 pop	 ebp
  0001f	c2 04 00	 ret	 4
?DecryptValueToPool@?$CEncrypt@W4TeamType@@@@QAEXPAW4TeamType@@@Z ENDP ; CEncrypt<enum TeamType>::DecryptValueToPool
_TEXT	ENDS
PUBLIC	?capacity@?$vector@UBuffInfoStruct@@V?$allocator@UBuffInfoStruct@@@std@@@std@@QBEIXZ ; std::vector<BuffInfoStruct,std::allocator<BuffInfoStruct> >::capacity
; Function compile flags: /Ogsp
; File c:\program files (x86)\microsoft visual studio 10.0\vc\include\vector
;	COMDAT ?capacity@?$vector@UBuffInfoStruct@@V?$allocator@UBuffInfoStruct@@@std@@@std@@QBEIXZ
_TEXT	SEGMENT
?capacity@?$vector@UBuffInfoStruct@@V?$allocator@UBuffInfoStruct@@@std@@@std@@QBEIXZ PROC ; std::vector<BuffInfoStruct,std::allocator<BuffInfoStruct> >::capacity, COMDAT
; _this$ = ecx

; 777  : 		return (this->_Myend - this->_Myfirst);

  00000	8b 41 08	 mov	 eax, DWORD PTR [ecx+8]
  00003	2b 01		 sub	 eax, DWORD PTR [ecx]
  00005	6a 14		 push	 20			; 00000014H
  00007	99		 cdq
  00008	59		 pop	 ecx
  00009	f7 f9		 idiv	 ecx

; 778  : 		}

  0000b	c3		 ret	 0
?capacity@?$vector@UBuffInfoStruct@@V?$allocator@UBuffInfoStruct@@@std@@@std@@QBEIXZ ENDP ; std::vector<BuffInfoStruct,std::allocator<BuffInfoStruct> >::capacity
_TEXT	ENDS
PUBLIC	?size@?$vector@UBuffInfoStruct@@V?$allocator@UBuffInfoStruct@@@std@@@std@@QBEIXZ ; std::vector<BuffInfoStruct,std::allocator<BuffInfoStruct> >::size
; Function compile flags: /Ogsp
;	COMDAT ?size@?$vector@UBuffInfoStruct@@V?$allocator@UBuffInfoStruct@@@std@@@std@@QBEIXZ
_TEXT	SEGMENT
?size@?$vector@UBuffInfoStruct@@V?$allocator@UBuffInfoStruct@@@std@@@std@@QBEIXZ PROC ; std::vector<BuffInfoStruct,std::allocator<BuffInfoStruct> >::size, COMDAT
; _this$ = ecx

; 879  : 		return (this->_Mylast - this->_Myfirst);

  00000	8b 41 04	 mov	 eax, DWORD PTR [ecx+4]
  00003	2b 01		 sub	 eax, DWORD PTR [ecx]
  00005	6a 14		 push	 20			; 00000014H
  00007	99		 cdq
  00008	59		 pop	 ecx
  00009	f7 f9		 idiv	 ecx

; 880  : 		}

  0000b	c3		 ret	 0
?size@?$vector@UBuffInfoStruct@@V?$allocator@UBuffInfoStruct@@@std@@@std@@QBEIXZ ENDP ; std::vector<BuffInfoStruct,std::allocator<BuffInfoStruct> >::size
_TEXT	ENDS
PUBLIC	??1?$_Vector_val@UBuffInfoStruct@@V?$allocator@UBuffInfoStruct@@@std@@@std@@QAE@XZ ; std::_Vector_val<BuffInfoStruct,std::allocator<BuffInfoStruct> >::~_Vector_val<BuffInfoStruct,std::allocator<BuffInfoStruct> >
; Function compile flags: /Ogsp
;	COMDAT ??1?$_Vector_val@UBuffInfoStruct@@V?$allocator@UBuffInfoStruct@@@std@@@std@@QAE@XZ
_TEXT	SEGMENT
??1?$_Vector_val@UBuffInfoStruct@@V?$allocator@UBuffInfoStruct@@@std@@@std@@QAE@XZ PROC ; std::_Vector_val<BuffInfoStruct,std::allocator<BuffInfoStruct> >::~_Vector_val<BuffInfoStruct,std::allocator<BuffInfoStruct> >, COMDAT
; _this$ = ecx

; 434  : 		}

  00000	c3		 ret	 0
??1?$_Vector_val@UBuffInfoStruct@@V?$allocator@UBuffInfoStruct@@@std@@@std@@QAE@XZ ENDP ; std::_Vector_val<BuffInfoStruct,std::allocator<BuffInfoStruct> >::~_Vector_val<BuffInfoStruct,std::allocator<BuffInfoStruct> >
_TEXT	ENDS
PUBLIC	??0?$allocator@UBuffInfoStruct@@@std@@QAE@XZ	; std::allocator<BuffInfoStruct>::allocator<BuffInfoStruct>
; Function compile flags: /Ogsp
; File c:\program files (x86)\microsoft visual studio 10.0\vc\include\xmemory
;	COMDAT ??0?$allocator@UBuffInfoStruct@@@std@@QAE@XZ
_TEXT	SEGMENT
??0?$allocator@UBuffInfoStruct@@@std@@QAE@XZ PROC	; std::allocator<BuffInfoStruct>::allocator<BuffInfoStruct>, COMDAT
; _this$ = ecx

; 161  : 	_ALLOCATOR() _THROW0()

  00000	8b c1		 mov	 eax, ecx

; 162  : 		{	// construct default allocator (do nothing)
; 163  : 		}

  00002	c3		 ret	 0
??0?$allocator@UBuffInfoStruct@@@std@@QAE@XZ ENDP	; std::allocator<BuffInfoStruct>::allocator<BuffInfoStruct>
_TEXT	ENDS
PUBLIC	?deallocate@?$allocator@UBuffInfoStruct@@@std@@QAEXPAUBuffInfoStruct@@I@Z ; std::allocator<BuffInfoStruct>::deallocate
; Function compile flags: /Ogsp
;	COMDAT ?deallocate@?$allocator@UBuffInfoStruct@@@std@@QAEXPAUBuffInfoStruct@@I@Z
_TEXT	SEGMENT
__Ptr$ = 8						; size = 4
___formal$ = 12						; size = 4
?deallocate@?$allocator@UBuffInfoStruct@@@std@@QAEXPAUBuffInfoStruct@@I@Z PROC ; std::allocator<BuffInfoStruct>::deallocate, COMDAT
; _this$ = ecx

; 181  : 		{	// deallocate object at _Ptr, ignore size

  00000	55		 push	 ebp
  00001	8b ec		 mov	 ebp, esp

; 182  : 		::operator delete(_Ptr);

  00003	ff 75 08	 push	 DWORD PTR __Ptr$[ebp]
  00006	e8 00 00 00 00	 call	 ??3@YAXPAX@Z		; operator delete
  0000b	59		 pop	 ecx

; 183  : 		}

  0000c	5d		 pop	 ebp
  0000d	c2 08 00	 ret	 8
?deallocate@?$allocator@UBuffInfoStruct@@@std@@QAEXPAUBuffInfoStruct@@I@Z ENDP ; std::allocator<BuffInfoStruct>::deallocate
_TEXT	ENDS
PUBLIC	??_C@_0BD@OLBABOEK@vector?$DMT?$DO?5too?5long?$AA@ ; `string'
PUBLIC	?_Xlen@?$vector@UBuffInfoStruct@@V?$allocator@UBuffInfoStruct@@@std@@@std@@IBEXXZ ; std::vector<BuffInfoStruct,std::allocator<BuffInfoStruct> >::_Xlen
EXTRN	__imp_?_Xlength_error@std@@YAXPBD@Z:PROC
;	COMDAT ??_C@_0BD@OLBABOEK@vector?$DMT?$DO?5too?5long?$AA@
; File c:\program files (x86)\microsoft visual studio 10.0\vc\include\vector
CONST	SEGMENT
??_C@_0BD@OLBABOEK@vector?$DMT?$DO?5too?5long?$AA@ DB 'vector<T> too long'
	DB	00H						; `string'
; Function compile flags: /Ogsp
CONST	ENDS
;	COMDAT ?_Xlen@?$vector@UBuffInfoStruct@@V?$allocator@UBuffInfoStruct@@@std@@@std@@IBEXXZ
_TEXT	SEGMENT
?_Xlen@?$vector@UBuffInfoStruct@@V?$allocator@UBuffInfoStruct@@@std@@@std@@IBEXXZ PROC ; std::vector<BuffInfoStruct,std::allocator<BuffInfoStruct> >::_Xlen, COMDAT
; _this$ = ecx

; 1427 : 		_Xlength_error("vector<T> too long");

  00000	68 00 00 00 00	 push	 OFFSET ??_C@_0BD@OLBABOEK@vector?$DMT?$DO?5too?5long?$AA@
  00005	ff 15 00 00 00
	00		 call	 DWORD PTR __imp_?_Xlength_error@std@@YAXPBD@Z
$LN4@Xlen:
$LN3@Xlen:
  0000b	cc		 int	 3
?_Xlen@?$vector@UBuffInfoStruct@@V?$allocator@UBuffInfoStruct@@@std@@@std@@IBEXXZ ENDP ; std::vector<BuffInfoStruct,std::allocator<BuffInfoStruct> >::_Xlen
_TEXT	ENDS
PUBLIC	??0?$allocator@UBuffInfoStruct@@@std@@QAE@ABV01@@Z ; std::allocator<BuffInfoStruct>::allocator<BuffInfoStruct>
; Function compile flags: /Ogsp
; File c:\program files (x86)\microsoft visual studio 10.0\vc\include\xmemory
;	COMDAT ??0?$allocator@UBuffInfoStruct@@@std@@QAE@ABV01@@Z
_TEXT	SEGMENT
___formal$ = 8						; size = 4
??0?$allocator@UBuffInfoStruct@@@std@@QAE@ABV01@@Z PROC	; std::allocator<BuffInfoStruct>::allocator<BuffInfoStruct>, COMDAT
; _this$ = ecx

; 165  : 	_ALLOCATOR(const _ALLOCATOR<_Ty>&) _THROW0()

  00000	8b c1		 mov	 eax, ecx

; 166  : 		{	// construct by copying (do nothing)
; 167  : 		}

  00002	c2 04 00	 ret	 4
??0?$allocator@UBuffInfoStruct@@@std@@QAE@ABV01@@Z ENDP	; std::allocator<BuffInfoStruct>::allocator<BuffInfoStruct>
_TEXT	ENDS
PUBLIC	?max_size@?$allocator@UBuffInfoStruct@@@std@@QBEIXZ ; std::allocator<BuffInfoStruct>::max_size
; Function compile flags: /Ogsp
;	COMDAT ?max_size@?$allocator@UBuffInfoStruct@@@std@@QBEIXZ
_TEXT	SEGMENT
?max_size@?$allocator@UBuffInfoStruct@@@std@@QBEIXZ PROC ; std::allocator<BuffInfoStruct>::max_size, COMDAT
; _this$ = ecx

; 218  : 		_SIZT _Count = (_SIZT)(-1) / sizeof (_Ty);
; 219  : 		return (0 < _Count ? _Count : 1);

  00000	b8 cc cc cc 0c	 mov	 eax, 214748364		; 0cccccccH

; 220  : 		}

  00005	c3		 ret	 0
?max_size@?$allocator@UBuffInfoStruct@@@std@@QBEIXZ ENDP ; std::allocator<BuffInfoStruct>::max_size
_TEXT	ENDS
PUBLIC	??0?$_Vector_const_iterator@V?$_Vector_val@UBuffInfoStruct@@V?$allocator@UBuffInfoStruct@@@std@@@std@@@std@@QAE@PAUBuffInfoStruct@@PBU_Container_base0@1@@Z ; std::_Vector_const_iterator<std::_Vector_val<BuffInfoStruct,std::allocator<BuffInfoStruct> > >::_Vector_const_iterator<std::_Vector_val<BuffInfoStruct,std::allocator<BuffInfoStruct> > >
; Function compile flags: /Ogsp
; File c:\program files (x86)\microsoft visual studio 10.0\vc\include\vector
;	COMDAT ??0?$_Vector_const_iterator@V?$_Vector_val@UBuffInfoStruct@@V?$allocator@UBuffInfoStruct@@@std@@@std@@@std@@QAE@PAUBuffInfoStruct@@PBU_Container_base0@1@@Z
_TEXT	SEGMENT
__Parg$ = 8						; size = 4
__Pvector$ = 12						; size = 4
??0?$_Vector_const_iterator@V?$_Vector_val@UBuffInfoStruct@@V?$allocator@UBuffInfoStruct@@@std@@@std@@@std@@QAE@PAUBuffInfoStruct@@PBU_Container_base0@1@@Z PROC ; std::_Vector_const_iterator<std::_Vector_val<BuffInfoStruct,std::allocator<BuffInfoStruct> > >::_Vector_const_iterator<std::_Vector_val<BuffInfoStruct,std::allocator<BuffInfoStruct> > >, COMDAT
; _this$ = ecx

; 45   : 		{	// construct with pointer _Parg

  00000	55		 push	 ebp
  00001	8b ec		 mov	 ebp, esp
  00003	8b c1		 mov	 eax, ecx
  00005	8b 4d 08	 mov	 ecx, DWORD PTR __Parg$[ebp]
  00008	89 08		 mov	 DWORD PTR [eax], ecx

; 46   : 		this->_Adopt(_Pvector);
; 47   : 		}

  0000a	5d		 pop	 ebp
  0000b	c2 08 00	 ret	 8
??0?$_Vector_const_iterator@V?$_Vector_val@UBuffInfoStruct@@V?$allocator@UBuffInfoStruct@@@std@@@std@@@std@@QAE@PAUBuffInfoStruct@@PBU_Container_base0@1@@Z ENDP ; std::_Vector_const_iterator<std::_Vector_val<BuffInfoStruct,std::allocator<BuffInfoStruct> > >::_Vector_const_iterator<std::_Vector_val<BuffInfoStruct,std::allocator<BuffInfoStruct> > >
_TEXT	ENDS
PUBLIC	?_Compat@?$_Vector_const_iterator@V?$_Vector_val@UBuffInfoStruct@@V?$allocator@UBuffInfoStruct@@@std@@@std@@@std@@QBEXABV12@@Z ; std::_Vector_const_iterator<std::_Vector_val<BuffInfoStruct,std::allocator<BuffInfoStruct> > >::_Compat
; Function compile flags: /Ogsp
;	COMDAT ?_Compat@?$_Vector_const_iterator@V?$_Vector_val@UBuffInfoStruct@@V?$allocator@UBuffInfoStruct@@@std@@@std@@@std@@QBEXABV12@@Z
_TEXT	SEGMENT
___formal$ = 8						; size = 4
?_Compat@?$_Vector_const_iterator@V?$_Vector_val@UBuffInfoStruct@@V?$allocator@UBuffInfoStruct@@@std@@@std@@@std@@QBEXABV12@@Z PROC ; std::_Vector_const_iterator<std::_Vector_val<BuffInfoStruct,std::allocator<BuffInfoStruct> > >::_Compat, COMDAT
; _this$ = ecx

; 253  : 		}

  00000	c2 04 00	 ret	 4
?_Compat@?$_Vector_const_iterator@V?$_Vector_val@UBuffInfoStruct@@V?$allocator@UBuffInfoStruct@@@std@@@std@@@std@@QBEXABV12@@Z ENDP ; std::_Vector_const_iterator<std::_Vector_val<BuffInfoStruct,std::allocator<BuffInfoStruct> > >::_Compat
_TEXT	ENDS
PUBLIC	__TI2?AVbad_alloc@std@@
PUBLIC	??$_Allocate@UBuffInfoStruct@@@std@@YAPAUBuffInfoStruct@@IPAU1@@Z ; std::_Allocate<BuffInfoStruct>
PUBLIC	__CTA2?AVbad_alloc@std@@
PUBLIC	__CT??_R0?AVbad_alloc@std@@@8??0bad_alloc@std@@QAE@ABV01@@Z12
PUBLIC	??0bad_alloc@std@@QAE@ABV01@@Z			; std::bad_alloc::bad_alloc
PUBLIC	__CT??_R0?AVexception@std@@@8??0exception@std@@QAE@ABV01@@Z12
EXTRN	??2@YAPAXI@Z:PROC				; operator new
EXTRN	__CxxThrowException@8:PROC
EXTRN	??0exception@std@@QAE@ABV01@@Z:PROC		; std::exception::exception
;	COMDAT __CT??_R0?AVexception@std@@@8??0exception@std@@QAE@ABV01@@Z12
; File c:\program files (x86)\microsoft visual studio 10.0\vc\include\exception
xdata$x	SEGMENT
__CT??_R0?AVexception@std@@@8??0exception@std@@QAE@ABV01@@Z12 DD 00H
	DD	FLAT:??_R0?AVexception@std@@@8
	DD	00H
	DD	0ffffffffH
	ORG $+4
	DD	0cH
	DD	FLAT:??0exception@std@@QAE@ABV01@@Z
xdata$x	ENDS
;	COMDAT __CT??_R0?AVbad_alloc@std@@@8??0bad_alloc@std@@QAE@ABV01@@Z12
xdata$x	SEGMENT
__CT??_R0?AVbad_alloc@std@@@8??0bad_alloc@std@@QAE@ABV01@@Z12 DD 00H
	DD	FLAT:??_R0?AVbad_alloc@std@@@8
	DD	00H
	DD	0ffffffffH
	ORG $+4
	DD	0cH
	DD	FLAT:??0bad_alloc@std@@QAE@ABV01@@Z
xdata$x	ENDS
;	COMDAT __CTA2?AVbad_alloc@std@@
xdata$x	SEGMENT
__CTA2?AVbad_alloc@std@@ DD 02H
	DD	FLAT:__CT??_R0?AVbad_alloc@std@@@8??0bad_alloc@std@@QAE@ABV01@@Z12
	DD	FLAT:__CT??_R0?AVexception@std@@@8??0exception@std@@QAE@ABV01@@Z12
xdata$x	ENDS
;	COMDAT __TI2?AVbad_alloc@std@@
xdata$x	SEGMENT
__TI2?AVbad_alloc@std@@ DD 00H
	DD	FLAT:??1bad_alloc@std@@UAE@XZ
	DD	00H
	DD	FLAT:__CTA2?AVbad_alloc@std@@
; Function compile flags: /Ogsp
; File c:\program files (x86)\microsoft visual studio 10.0\vc\include\xmemory
xdata$x	ENDS
;	COMDAT ??$_Allocate@UBuffInfoStruct@@@std@@YAPAUBuffInfoStruct@@IPAU1@@Z
_TEXT	SEGMENT
$T553035 = -12						; size = 12
$T553040 = 8						; size = 4
__Count$ = 8						; size = 4
___formal$ = 12						; size = 4
??$_Allocate@UBuffInfoStruct@@@std@@YAPAUBuffInfoStruct@@IPAU1@@Z PROC ; std::_Allocate<BuffInfoStruct>, COMDAT

; 30   : 	{	// allocate storage for _Count elements of type _Ty

  00000	55		 push	 ebp
  00001	8b ec		 mov	 ebp, esp

; 31   : 	void *_Ptr = 0;
; 32   : 
; 33   : 	if (_Count <= 0)

  00003	8b 4d 08	 mov	 ecx, DWORD PTR __Count$[ebp]
  00006	83 ec 0c	 sub	 esp, 12			; 0000000cH
  00009	33 c0		 xor	 eax, eax
  0000b	85 c9		 test	 ecx, ecx

; 34   : 		_Count = 0;
; 35   : 	else if (((_SIZT)(-1) / sizeof (_Ty) < _Count)

  0000d	74 3c		 je	 SHORT $LN5@Allocate

; 36   : 		|| (_Ptr = ::operator new(_Count * sizeof (_Ty))) == 0)

  0000f	81 f9 cc cc cc
	0c		 cmp	 ecx, 214748364		; 0cccccccH
  00015	77 0e		 ja	 SHORT $LN1@Allocate
  00017	6b c9 14	 imul	 ecx, 20			; 00000014H
  0001a	51		 push	 ecx
  0001b	e8 00 00 00 00	 call	 ??2@YAPAXI@Z		; operator new
  00020	59		 pop	 ecx
  00021	85 c0		 test	 eax, eax

; 38   : 
; 39   : 	return ((_Ty _FARQ *)_Ptr);

  00023	75 26		 jne	 SHORT $LN5@Allocate
$LN1@Allocate:

; 37   : 		_THROW_NCEE(bad_alloc, 0);

  00025	83 65 08 00	 and	 DWORD PTR $T553040[ebp], 0
  00029	8d 45 08	 lea	 eax, DWORD PTR $T553040[ebp]
  0002c	50		 push	 eax
  0002d	8d 4d f4	 lea	 ecx, DWORD PTR $T553035[ebp]
  00030	ff 15 00 00 00
	00		 call	 DWORD PTR __imp_??0exception@std@@QAE@ABQBD@Z
  00036	68 00 00 00 00	 push	 OFFSET __TI2?AVbad_alloc@std@@
  0003b	8d 45 f4	 lea	 eax, DWORD PTR $T553035[ebp]
  0003e	50		 push	 eax
  0003f	c7 45 f4 00 00
	00 00		 mov	 DWORD PTR $T553035[ebp], OFFSET ??_7bad_alloc@std@@6B@
  00046	e8 00 00 00 00	 call	 __CxxThrowException@8
$LN10@Allocate:
$LN5@Allocate:

; 40   : 	}

  0004b	c9		 leave
  0004c	c3		 ret	 0
$LN9@Allocate:
??$_Allocate@UBuffInfoStruct@@@std@@YAPAUBuffInfoStruct@@IPAU1@@Z ENDP ; std::_Allocate<BuffInfoStruct>
_TEXT	ENDS
EXTRN	__imp_??0exception@std@@QAE@ABV01@@Z:PROC
; Function compile flags: /Ogsp
;	COMDAT ??0bad_alloc@std@@QAE@ABV01@@Z
_TEXT	SEGMENT
___that$ = 8						; size = 4
??0bad_alloc@std@@QAE@ABV01@@Z PROC			; std::bad_alloc::bad_alloc, COMDAT
; _this$ = ecx
  00000	55		 push	 ebp
  00001	8b ec		 mov	 ebp, esp
  00003	56		 push	 esi
  00004	ff 75 08	 push	 DWORD PTR ___that$[ebp]
  00007	8b f1		 mov	 esi, ecx
  00009	ff 15 00 00 00
	00		 call	 DWORD PTR __imp_??0exception@std@@QAE@ABV01@@Z
  0000f	c7 06 00 00 00
	00		 mov	 DWORD PTR [esi], OFFSET ??_7bad_alloc@std@@6B@
  00015	8b c6		 mov	 eax, esi
  00017	5e		 pop	 esi
  00018	5d		 pop	 ebp
  00019	c2 04 00	 ret	 4
??0bad_alloc@std@@QAE@ABV01@@Z ENDP			; std::bad_alloc::bad_alloc
_TEXT	ENDS
PUBLIC	??$_Ptr_cat@UBuffInfoStruct@@U1@@std@@YA?AU_Nonscalar_ptr_iterator_tag@0@PAUBuffInfoStruct@@0@Z ; std::_Ptr_cat<BuffInfoStruct,BuffInfoStruct>
; Function compile flags: /Ogsp
; File c:\program files (x86)\microsoft visual studio 10.0\vc\include\xutility
;	COMDAT ??$_Ptr_cat@UBuffInfoStruct@@U1@@std@@YA?AU_Nonscalar_ptr_iterator_tag@0@PAUBuffInfoStruct@@0@Z
_TEXT	SEGMENT
__Cat$ = -1						; size = 1
___formal$ = 8						; size = 4
___formal$ = 12						; size = 4
??$_Ptr_cat@UBuffInfoStruct@@U1@@std@@YA?AU_Nonscalar_ptr_iterator_tag@0@PAUBuffInfoStruct@@0@Z PROC ; std::_Ptr_cat<BuffInfoStruct,BuffInfoStruct>, COMDAT

; 516  : 	{	// return pointer category from pointers

  00000	55		 push	 ebp
  00001	8b ec		 mov	 ebp, esp
  00003	51		 push	 ecx

; 517  : 	typename _Ptr_cat_helper<_Elem1, _Elem2>::_Type _Cat;
; 518  : 	return (_Cat);

  00004	8a 45 ff	 mov	 al, BYTE PTR __Cat$[ebp]

; 519  : 	}

  00007	c9		 leave
  00008	c3		 ret	 0
??$_Ptr_cat@UBuffInfoStruct@@U1@@std@@YA?AU_Nonscalar_ptr_iterator_tag@0@PAUBuffInfoStruct@@0@Z ENDP ; std::_Ptr_cat<BuffInfoStruct,BuffInfoStruct>
_TEXT	ENDS
PUBLIC	??4BuffInfoStruct@@QAEAAU0@ABU0@@Z		; BuffInfoStruct::operator=
EXTRN	__imp_??4ioHashString@@QAEAAV0@ABV0@@Z:PROC
; Function compile flags: /Ogsp
;	COMDAT ??4BuffInfoStruct@@QAEAAU0@ABU0@@Z
_TEXT	SEGMENT
___that$ = 8						; size = 4
??4BuffInfoStruct@@QAEAAU0@ABU0@@Z PROC			; BuffInfoStruct::operator=, COMDAT
; _this$ = ecx
  00000	55		 push	 ebp
  00001	8b ec		 mov	 ebp, esp
  00003	56		 push	 esi
  00004	57		 push	 edi
  00005	8b 7d 08	 mov	 edi, DWORD PTR ___that$[ebp]
  00008	57		 push	 edi
  00009	8b f1		 mov	 esi, ecx
  0000b	ff 15 00 00 00
	00		 call	 DWORD PTR __imp_??4ioHashString@@QAEAAV0@ABV0@@Z
  00011	8b 47 10	 mov	 eax, DWORD PTR [edi+16]
  00014	89 46 10	 mov	 DWORD PTR [esi+16], eax
  00017	5f		 pop	 edi
  00018	8b c6		 mov	 eax, esi
  0001a	5e		 pop	 esi
  0001b	5d		 pop	 ebp
  0001c	c2 04 00	 ret	 4
??4BuffInfoStruct@@QAEAAU0@ABU0@@Z ENDP			; BuffInfoStruct::operator=
_TEXT	ENDS
PUBLIC	??$move@AAUBuffInfoStruct@@@std@@YA$$QAUBuffInfoStruct@@AAU1@@Z ; std::move<BuffInfoStruct &>
; Function compile flags: /Ogsp
; File c:\program files (x86)\microsoft visual studio 10.0\vc\include\utility
;	COMDAT ??$move@AAUBuffInfoStruct@@@std@@YA$$QAUBuffInfoStruct@@AAU1@@Z
_TEXT	SEGMENT
__Arg$ = 8						; size = 4
??$move@AAUBuffInfoStruct@@@std@@YA$$QAUBuffInfoStruct@@AAU1@@Z PROC ; std::move<BuffInfoStruct &>, COMDAT

; 86   : 	{	// forward _Arg as movable

  00000	55		 push	 ebp
  00001	8b ec		 mov	 ebp, esp

; 87   : 	return ((typename tr1::_Remove_reference<_Ty>::_Type&&)_Arg);

  00003	8b 45 08	 mov	 eax, DWORD PTR __Arg$[ebp]

; 88   : 	}

  00006	5d		 pop	 ebp
  00007	c3		 ret	 0
??$move@AAUBuffInfoStruct@@@std@@YA$$QAUBuffInfoStruct@@AAU1@@Z ENDP ; std::move<BuffInfoStruct &>
_TEXT	ENDS
PUBLIC	??_GBuffInfoStruct@@QAEPAXI@Z			; BuffInfoStruct::`scalar deleting destructor'
; Function compile flags: /Ogsp
;	COMDAT ??_GBuffInfoStruct@@QAEPAXI@Z
_TEXT	SEGMENT
___flags$ = 8						; size = 4
??_GBuffInfoStruct@@QAEPAXI@Z PROC			; BuffInfoStruct::`scalar deleting destructor', COMDAT
; _this$ = ecx
  00000	55		 push	 ebp
  00001	8b ec		 mov	 ebp, esp
  00003	56		 push	 esi
  00004	8b f1		 mov	 esi, ecx
  00006	ff 15 00 00 00
	00		 call	 DWORD PTR __imp_??1ioHashString@@QAE@XZ
  0000c	f6 45 08 01	 test	 BYTE PTR ___flags$[ebp], 1
  00010	74 07		 je	 SHORT $LN1@scalar@4
  00012	56		 push	 esi
  00013	e8 00 00 00 00	 call	 ??3@YAXPAX@Z		; operator delete
  00018	59		 pop	 ecx
$LN1@scalar@4:
  00019	8b c6		 mov	 eax, esi
  0001b	5e		 pop	 esi
  0001c	5d		 pop	 ebp
  0001d	c2 04 00	 ret	 4
??_GBuffInfoStruct@@QAEPAXI@Z ENDP			; BuffInfoStruct::`scalar deleting destructor'
_TEXT	ENDS
PUBLIC	??$forward@AAUBuffInfoStruct@@@std@@YAAAUBuffInfoStruct@@AAU1@@Z ; std::forward<BuffInfoStruct &>
; Function compile flags: /Ogsp
;	COMDAT ??$forward@AAUBuffInfoStruct@@@std@@YAAAUBuffInfoStruct@@AAU1@@Z
_TEXT	SEGMENT
__Arg$ = 8						; size = 4
??$forward@AAUBuffInfoStruct@@@std@@YAAAUBuffInfoStruct@@AAU1@@Z PROC ; std::forward<BuffInfoStruct &>, COMDAT

; 78   : 	{	// forward _Arg, given explicitly specified type parameter

  00000	55		 push	 ebp
  00001	8b ec		 mov	 ebp, esp

; 79   : 	return ((_Ty&&)_Arg);

  00003	8b 45 08	 mov	 eax, DWORD PTR __Arg$[ebp]

; 80   : 	}

  00006	5d		 pop	 ebp
  00007	c3		 ret	 0
??$forward@AAUBuffInfoStruct@@@std@@YAAAUBuffInfoStruct@@AAU1@@Z ENDP ; std::forward<BuffInfoStruct &>
_TEXT	ENDS
PUBLIC	??0BuffInfoStruct@@QAE@ABU0@@Z			; BuffInfoStruct::BuffInfoStruct
EXTRN	__imp_??0ioHashString@@QAE@ABV0@@Z:PROC
; Function compile flags: /Ogsp
;	COMDAT ??0BuffInfoStruct@@QAE@ABU0@@Z
_TEXT	SEGMENT
___that$ = 8						; size = 4
??0BuffInfoStruct@@QAE@ABU0@@Z PROC			; BuffInfoStruct::BuffInfoStruct, COMDAT
; _this$ = ecx
  00000	55		 push	 ebp
  00001	8b ec		 mov	 ebp, esp
  00003	56		 push	 esi
  00004	57		 push	 edi
  00005	8b 7d 08	 mov	 edi, DWORD PTR ___that$[ebp]
  00008	57		 push	 edi
  00009	8b f1		 mov	 esi, ecx
  0000b	ff 15 00 00 00
	00		 call	 DWORD PTR __imp_??0ioHashString@@QAE@ABV0@@Z
  00011	8b 47 10	 mov	 eax, DWORD PTR [edi+16]
  00014	89 46 10	 mov	 DWORD PTR [esi+16], eax
  00017	5f		 pop	 edi
  00018	8b c6		 mov	 eax, esi
  0001a	5e		 pop	 esi
  0001b	5d		 pop	 ebp
  0001c	c2 04 00	 ret	 4
??0BuffInfoStruct@@QAE@ABU0@@Z ENDP			; BuffInfoStruct::BuffInfoStruct
_TEXT	ENDS
PUBLIC	??_C@_00CNPNBAHC@?$AA@				; `string'
PUBLIC	?AddOwnerBuff@ioLightAttack@@QAEXPAVioBaseChar@@@Z ; ioLightAttack::AddOwnerBuff
EXTRN	?AddNewBuff@ioBaseChar@@QAEPAVioBuff@@ABVioHashString@@00PAVioSkill@@_N@Z:PROC ; ioBaseChar::AddNewBuff
EXTRN	__imp_??0ioHashString@@QAE@PBD@Z:PROC
;	COMDAT ??_C@_00CNPNBAHC@?$AA@
; File c:\program files (x86)\microsoft visual studio 10.0\vc\include\vector
CONST	SEGMENT
??_C@_00CNPNBAHC@?$AA@ DB 00H				; `string'
CONST	ENDS
;	COMDAT xdata$x
xdata$x	SEGMENT
__unwindtable$?AddOwnerBuff@ioLightAttack@@QAEXPAVioBaseChar@@@Z DD 0ffffffffH
	DD	FLAT:__unwindfunclet$?AddOwnerBuff@ioLightAttack@@QAEXPAVioBaseChar@@@Z$0
__ehfuncinfo$?AddOwnerBuff@ioLightAttack@@QAEXPAVioBaseChar@@@Z DD 019930522H
	DD	01H
	DD	FLAT:__unwindtable$?AddOwnerBuff@ioLightAttack@@QAEXPAVioBaseChar@@@Z
	DD	2 DUP(00H)
	DD	2 DUP(00H)
	DD	00H
	DD	01H
; Function compile flags: /Ogsp
; File d:\lost saga for developer\youtube\tutorial\source\src\lsclient\iolightattack.cpp
xdata$x	ENDS
;	COMDAT ?AddOwnerBuff@ioLightAttack@@QAEXPAVioBaseChar@@@Z
_TEXT	SEGMENT
$T553065 = -32						; size = 16
tv153 = -16						; size = 4
__$EHRec$ = -12						; size = 12
_pChar$ = 8						; size = 4
?AddOwnerBuff@ioLightAttack@@QAEXPAVioBaseChar@@@Z PROC	; ioLightAttack::AddOwnerBuff, COMDAT
; _this$ = ecx

; 506  : {

  00000	6a 14		 push	 20			; 00000014H
  00002	b8 00 00 00 00	 mov	 eax, __ehhandler$?AddOwnerBuff@ioLightAttack@@QAEXPAVioBaseChar@@@Z
  00007	e8 00 00 00 00	 call	 __EH_prolog3
  0000c	8b f1		 mov	 esi, ecx

; 507  : 	if( !pChar )	return;

  0000e	8b 7d 08	 mov	 edi, DWORD PTR _pChar$[ebp]
  00011	85 ff		 test	 edi, edi
  00013	74 67		 je	 SHORT $LN1@AddOwnerBu

; 508  : 	if( m_OwnerBuffList.empty() ) return;

  00015	8b 8e e8 10 00
	00		 mov	 ecx, DWORD PTR [esi+4328]
  0001b	8b 86 ec 10 00
	00		 mov	 eax, DWORD PTR [esi+4332]
  00021	3b c8		 cmp	 ecx, eax
  00023	74 57		 je	 SHORT $LN1@AddOwnerBu

; 509  : 
; 510  : 	int iCnt = m_OwnerBuffList.size();

  00025	2b c1		 sub	 eax, ecx
  00027	6a 14		 push	 20			; 00000014H
  00029	99		 cdq
  0002a	59		 pop	 ecx
  0002b	f7 f9		 idiv	 ecx

; 511  : 	for( int i = 0; i < iCnt; ++i )

  0002d	85 c0		 test	 eax, eax
  0002f	7e 4b		 jle	 SHORT $LN1@AddOwnerBu

; 509  : 
; 510  : 	int iCnt = m_OwnerBuffList.size();

  00031	81 c7 d4 02 00
	00		 add	 edi, 724		; 000002d4H
  00037	33 db		 xor	 ebx, ebx
  00039	89 45 f0	 mov	 DWORD PTR tv153[ebp], eax
$LL3@AddOwnerBu:

; 512  : 	{
; 513  : 		pChar->AddNewBuff( m_OwnerBuffList[i].m_BuffName, pChar->GetCharName(), "", this );

  0003c	68 00 00 00 00	 push	 OFFSET ??_C@_00CNPNBAHC@?$AA@
  00041	8d 4d e0	 lea	 ecx, DWORD PTR $T553065[ebp]
  00044	ff 15 00 00 00
	00		 call	 DWORD PTR __imp_??0ioHashString@@QAE@PBD@Z
  0004a	8b 4d 08	 mov	 ecx, DWORD PTR _pChar$[ebp]
  0004d	83 65 fc 00	 and	 DWORD PTR __$EHRec$[ebp+8], 0
  00051	6a 00		 push	 0
  00053	56		 push	 esi
  00054	8d 45 e0	 lea	 eax, DWORD PTR $T553065[ebp]
  00057	50		 push	 eax
  00058	8b 86 e8 10 00
	00		 mov	 eax, DWORD PTR [esi+4328]
  0005e	57		 push	 edi
  0005f	03 c3		 add	 eax, ebx
  00061	50		 push	 eax
  00062	e8 00 00 00 00	 call	 ?AddNewBuff@ioBaseChar@@QAEPAVioBuff@@ABVioHashString@@00PAVioSkill@@_N@Z ; ioBaseChar::AddNewBuff
  00067	83 4d fc ff	 or	 DWORD PTR __$EHRec$[ebp+8], -1
  0006b	8d 4d e0	 lea	 ecx, DWORD PTR $T553065[ebp]
  0006e	ff 15 00 00 00
	00		 call	 DWORD PTR __imp_??1ioHashString@@QAE@XZ
  00074	83 c3 14	 add	 ebx, 20			; 00000014H
  00077	ff 4d f0	 dec	 DWORD PTR tv153[ebp]
  0007a	75 c0		 jne	 SHORT $LL3@AddOwnerBu
$LN1@AddOwnerBu:

; 514  : 	}
; 515  : }

  0007c	e8 00 00 00 00	 call	 __EH_epilog3
  00081	c2 04 00	 ret	 4
_TEXT	ENDS
;	COMDAT text$x
text$x	SEGMENT
__unwindfunclet$?AddOwnerBuff@ioLightAttack@@QAEXPAVioBaseChar@@@Z$0:
  00000	8d 4d e0	 lea	 ecx, DWORD PTR $T553065[ebp]
  00003	ff 25 00 00 00
	00		 jmp	 DWORD PTR __imp_??1ioHashString@@QAE@XZ
__ehhandler$?AddOwnerBuff@ioLightAttack@@QAEXPAVioBaseChar@@@Z:
  00009	8b 54 24 08	 mov	 edx, DWORD PTR [esp+8]
  0000d	8d 42 0c	 lea	 eax, DWORD PTR [edx+12]
  00010	8b 4a dc	 mov	 ecx, DWORD PTR [edx-36]
  00013	33 c8		 xor	 ecx, eax
  00015	e8 00 00 00 00	 call	 @__security_check_cookie@4
  0001a	b8 00 00 00 00	 mov	 eax, OFFSET __ehfuncinfo$?AddOwnerBuff@ioLightAttack@@QAEXPAVioBaseChar@@@Z
  0001f	e9 00 00 00 00	 jmp	 ___CxxFrameHandler3
text$x	ENDS
?AddOwnerBuff@ioLightAttack@@QAEXPAVioBaseChar@@@Z ENDP	; ioLightAttack::AddOwnerBuff
PUBLIC	?AddActionOwnerBuff@ioLightAttack@@QAEXPAVioBaseChar@@@Z ; ioLightAttack::AddActionOwnerBuff
;	COMDAT xdata$x
; File c:\program files (x86)\microsoft visual studio 10.0\vc\include\vector
xdata$x	SEGMENT
__unwindtable$?AddActionOwnerBuff@ioLightAttack@@QAEXPAVioBaseChar@@@Z DD 0ffffffffH
	DD	FLAT:__unwindfunclet$?AddActionOwnerBuff@ioLightAttack@@QAEXPAVioBaseChar@@@Z$0
__ehfuncinfo$?AddActionOwnerBuff@ioLightAttack@@QAEXPAVioBaseChar@@@Z DD 019930522H
	DD	01H
	DD	FLAT:__unwindtable$?AddActionOwnerBuff@ioLightAttack@@QAEXPAVioBaseChar@@@Z
	DD	2 DUP(00H)
	DD	2 DUP(00H)
	DD	00H
	DD	01H
; Function compile flags: /Ogsp
; File d:\lost saga for developer\youtube\tutorial\source\src\lsclient\iolightattack.cpp
xdata$x	ENDS
;	COMDAT ?AddActionOwnerBuff@ioLightAttack@@QAEXPAVioBaseChar@@@Z
_TEXT	SEGMENT
$T553091 = -32						; size = 16
tv153 = -16						; size = 4
__$EHRec$ = -12						; size = 12
_pChar$ = 8						; size = 4
?AddActionOwnerBuff@ioLightAttack@@QAEXPAVioBaseChar@@@Z PROC ; ioLightAttack::AddActionOwnerBuff, COMDAT
; _this$ = ecx

; 518  : {

  00000	6a 14		 push	 20			; 00000014H
  00002	b8 00 00 00 00	 mov	 eax, __ehhandler$?AddActionOwnerBuff@ioLightAttack@@QAEXPAVioBaseChar@@@Z
  00007	e8 00 00 00 00	 call	 __EH_prolog3
  0000c	8b f1		 mov	 esi, ecx

; 519  : 	if( !pChar )	return;

  0000e	8b 7d 08	 mov	 edi, DWORD PTR _pChar$[ebp]
  00011	85 ff		 test	 edi, edi
  00013	74 67		 je	 SHORT $LN1@AddActionO

; 520  : 	if( m_ActionOwnerBuffList.empty() ) return;

  00015	8b 8e f8 10 00
	00		 mov	 ecx, DWORD PTR [esi+4344]
  0001b	8b 86 fc 10 00
	00		 mov	 eax, DWORD PTR [esi+4348]
  00021	3b c8		 cmp	 ecx, eax
  00023	74 57		 je	 SHORT $LN1@AddActionO

; 521  : 
; 522  : 	int iCnt = m_ActionOwnerBuffList.size();

  00025	2b c1		 sub	 eax, ecx
  00027	6a 14		 push	 20			; 00000014H
  00029	99		 cdq
  0002a	59		 pop	 ecx
  0002b	f7 f9		 idiv	 ecx

; 523  : 	for( int i = 0; i < iCnt; ++i )

  0002d	85 c0		 test	 eax, eax
  0002f	7e 4b		 jle	 SHORT $LN1@AddActionO

; 521  : 
; 522  : 	int iCnt = m_ActionOwnerBuffList.size();

  00031	81 c7 d4 02 00
	00		 add	 edi, 724		; 000002d4H
  00037	33 db		 xor	 ebx, ebx
  00039	89 45 f0	 mov	 DWORD PTR tv153[ebp], eax
$LL3@AddActionO:

; 524  : 	{
; 525  : 		pChar->AddNewBuff( m_ActionOwnerBuffList[i].m_BuffName, pChar->GetCharName(), "", this );

  0003c	68 00 00 00 00	 push	 OFFSET ??_C@_00CNPNBAHC@?$AA@
  00041	8d 4d e0	 lea	 ecx, DWORD PTR $T553091[ebp]
  00044	ff 15 00 00 00
	00		 call	 DWORD PTR __imp_??0ioHashString@@QAE@PBD@Z
  0004a	8b 4d 08	 mov	 ecx, DWORD PTR _pChar$[ebp]
  0004d	83 65 fc 00	 and	 DWORD PTR __$EHRec$[ebp+8], 0
  00051	6a 00		 push	 0
  00053	56		 push	 esi
  00054	8d 45 e0	 lea	 eax, DWORD PTR $T553091[ebp]
  00057	50		 push	 eax
  00058	8b 86 f8 10 00
	00		 mov	 eax, DWORD PTR [esi+4344]
  0005e	57		 push	 edi
  0005f	03 c3		 add	 eax, ebx
  00061	50		 push	 eax
  00062	e8 00 00 00 00	 call	 ?AddNewBuff@ioBaseChar@@QAEPAVioBuff@@ABVioHashString@@00PAVioSkill@@_N@Z ; ioBaseChar::AddNewBuff
  00067	83 4d fc ff	 or	 DWORD PTR __$EHRec$[ebp+8], -1
  0006b	8d 4d e0	 lea	 ecx, DWORD PTR $T553091[ebp]
  0006e	ff 15 00 00 00
	00		 call	 DWORD PTR __imp_??1ioHashString@@QAE@XZ
  00074	83 c3 14	 add	 ebx, 20			; 00000014H
  00077	ff 4d f0	 dec	 DWORD PTR tv153[ebp]
  0007a	75 c0		 jne	 SHORT $LL3@AddActionO
$LN1@AddActionO:

; 526  : 	}
; 527  : }

  0007c	e8 00 00 00 00	 call	 __EH_epilog3
  00081	c2 04 00	 ret	 4
_TEXT	ENDS
;	COMDAT text$x
text$x	SEGMENT
__unwindfunclet$?AddActionOwnerBuff@ioLightAttack@@QAEXPAVioBaseChar@@@Z$0:
  00000	8d 4d e0	 lea	 ecx, DWORD PTR $T553091[ebp]
  00003	ff 25 00 00 00
	00		 jmp	 DWORD PTR __imp_??1ioHashString@@QAE@XZ
__ehhandler$?AddActionOwnerBuff@ioLightAttack@@QAEXPAVioBaseChar@@@Z:
  00009	8b 54 24 08	 mov	 edx, DWORD PTR [esp+8]
  0000d	8d 42 0c	 lea	 eax, DWORD PTR [edx+12]
  00010	8b 4a dc	 mov	 ecx, DWORD PTR [edx-36]
  00013	33 c8		 xor	 ecx, eax
  00015	e8 00 00 00 00	 call	 @__security_check_cookie@4
  0001a	b8 00 00 00 00	 mov	 eax, OFFSET __ehfuncinfo$?AddActionOwnerBuff@ioLightAttack@@QAEXPAVioBaseChar@@@Z
  0001f	e9 00 00 00 00	 jmp	 ___CxxFrameHandler3
text$x	ENDS
?AddActionOwnerBuff@ioLightAttack@@QAEXPAVioBaseChar@@@Z ENDP ; ioLightAttack::AddActionOwnerBuff
PUBLIC	?RemoveActionOwnerBuff@ioLightAttack@@QAEXPAVioBaseChar@@@Z ; ioLightAttack::RemoveActionOwnerBuff
EXTRN	?SetReserveEndBuff@ioBuff@@QAEXXZ:PROC		; ioBuff::SetReserveEndBuff
EXTRN	?GetBuff@ioBaseChar@@QAEPAVioBuff@@ABVioHashString@@@Z:PROC ; ioBaseChar::GetBuff
; Function compile flags: /Ogsp
;	COMDAT ?RemoveActionOwnerBuff@ioLightAttack@@QAEXPAVioBaseChar@@@Z
_TEXT	SEGMENT
_pChar$ = 8						; size = 4
?RemoveActionOwnerBuff@ioLightAttack@@QAEXPAVioBaseChar@@@Z PROC ; ioLightAttack::RemoveActionOwnerBuff, COMDAT
; _this$ = ecx

; 530  : {

  00000	55		 push	 ebp
  00001	8b ec		 mov	 ebp, esp
  00003	56		 push	 esi
  00004	57		 push	 edi

; 531  : 	if( !pChar )	return;

  00005	33 ff		 xor	 edi, edi
  00007	8b f1		 mov	 esi, ecx
  00009	39 7d 08	 cmp	 DWORD PTR _pChar$[ebp], edi
  0000c	74 42		 je	 SHORT $LN2@RemoveActi

; 532  : 	if( m_ActionOwnerBuffList.empty() ) return;

  0000e	8b 8e f8 10 00
	00		 mov	 ecx, DWORD PTR [esi+4344]
  00014	8b 86 fc 10 00
	00		 mov	 eax, DWORD PTR [esi+4348]
  0001a	3b c8		 cmp	 ecx, eax
  0001c	74 32		 je	 SHORT $LN2@RemoveActi

; 533  : 	int iCnt = m_ActionOwnerBuffList.size();

  0001e	2b c1		 sub	 eax, ecx
  00020	6a 14		 push	 20			; 00000014H
  00022	99		 cdq
  00023	59		 pop	 ecx
  00024	f7 f9		 idiv	 ecx

; 534  : 
; 535  : 	for( int i=0; i<iCnt; ++i)

  00026	3b c7		 cmp	 eax, edi
  00028	7e 26		 jle	 SHORT $LN2@RemoveActi

; 533  : 	int iCnt = m_ActionOwnerBuffList.size();

  0002a	53		 push	 ebx
  0002b	8b d8		 mov	 ebx, eax
$LL4@RemoveActi:

; 536  : 	{
; 537  : 		ioBuff* pBuff = pChar->GetBuff(m_ActionOwnerBuffList[i].m_BuffName );

  0002d	8b 86 f8 10 00
	00		 mov	 eax, DWORD PTR [esi+4344]
  00033	8b 4d 08	 mov	 ecx, DWORD PTR _pChar$[ebp]
  00036	03 c7		 add	 eax, edi
  00038	50		 push	 eax
  00039	e8 00 00 00 00	 call	 ?GetBuff@ioBaseChar@@QAEPAVioBuff@@ABVioHashString@@@Z ; ioBaseChar::GetBuff

; 538  : 		if( pBuff )

  0003e	85 c0		 test	 eax, eax
  00040	74 07		 je	 SHORT $LN3@RemoveActi

; 539  : 		{
; 540  : 			pBuff->SetReserveEndBuff();

  00042	8b c8		 mov	 ecx, eax
  00044	e8 00 00 00 00	 call	 ?SetReserveEndBuff@ioBuff@@QAEXXZ ; ioBuff::SetReserveEndBuff
$LN3@RemoveActi:

; 534  : 
; 535  : 	for( int i=0; i<iCnt; ++i)

  00049	83 c7 14	 add	 edi, 20			; 00000014H
  0004c	4b		 dec	 ebx
  0004d	75 de		 jne	 SHORT $LL4@RemoveActi
  0004f	5b		 pop	 ebx
$LN2@RemoveActi:
  00050	5f		 pop	 edi
  00051	5e		 pop	 esi

; 541  : 		}
; 542  : 	}
; 543  : }

  00052	5d		 pop	 ebp
  00053	c2 04 00	 ret	 4
?RemoveActionOwnerBuff@ioLightAttack@@QAEXPAVioBaseChar@@@Z ENDP ; ioLightAttack::RemoveActionOwnerBuff
_TEXT	ENDS
PUBLIC	?HasBuff@ioLightAttack@@UBE_NH@Z		; ioLightAttack::HasBuff
; Function compile flags: /Ogsp
;	COMDAT ?HasBuff@ioLightAttack@@UBE_NH@Z
_TEXT	SEGMENT
_iBuffType$ = 8						; size = 4
?HasBuff@ioLightAttack@@UBE_NH@Z PROC			; ioLightAttack::HasBuff, COMDAT
; _this$ = ecx

; 563  : {

  00000	55		 push	 ebp
  00001	8b ec		 mov	 ebp, esp

; 564  : 	int iCnt = m_OwnerBuffList.size();

  00003	8b 81 ec 10 00
	00		 mov	 eax, DWORD PTR [ecx+4332]
  00009	2b 81 e8 10 00
	00		 sub	 eax, DWORD PTR [ecx+4328]
  0000f	56		 push	 esi
  00010	6a 14		 push	 20			; 00000014H
  00012	99		 cdq
  00013	5e		 pop	 esi
  00014	f7 fe		 idiv	 esi

; 565  : 	for( int i=0; i < iCnt; ++i )

  00016	33 d2		 xor	 edx, edx
  00018	85 c0		 test	 eax, eax
  0001a	7e 18		 jle	 SHORT $LN2@HasBuff

; 564  : 	int iCnt = m_OwnerBuffList.size();

  0001c	8b 89 e8 10 00
	00		 mov	 ecx, DWORD PTR [ecx+4328]
  00022	83 c1 10	 add	 ecx, 16			; 00000010H
$LL4@HasBuff:

; 566  : 	{
; 567  : 		if( m_OwnerBuffList[i].m_iBuffType == iBuffType )

  00025	8b 31		 mov	 esi, DWORD PTR [ecx]
  00027	3b 75 08	 cmp	 esi, DWORD PTR _iBuffType$[ebp]
  0002a	74 0f		 je	 SHORT $LN12@HasBuff

; 565  : 	for( int i=0; i < iCnt; ++i )

  0002c	42		 inc	 edx
  0002d	83 c1 14	 add	 ecx, 20			; 00000014H
  00030	3b d0		 cmp	 edx, eax
  00032	7c f1		 jl	 SHORT $LL4@HasBuff
$LN2@HasBuff:

; 569  : 	}
; 570  : 
; 571  : 	return false;

  00034	32 c0		 xor	 al, al
$LN5@HasBuff:
  00036	5e		 pop	 esi

; 572  : }

  00037	5d		 pop	 ebp
  00038	c2 04 00	 ret	 4
$LN12@HasBuff:

; 568  : 			return true;

  0003b	b0 01		 mov	 al, 1
  0003d	eb f7		 jmp	 SHORT $LN5@HasBuff
?HasBuff@ioLightAttack@@UBE_NH@Z ENDP			; ioLightAttack::HasBuff
_TEXT	ENDS
PUBLIC	?CheckUseBuff@ioLightAttack@@MAE_NPAVioBaseChar@@@Z ; ioLightAttack::CheckUseBuff
EXTRN	?HasBuff@ioBaseChar@@QBE_NABVioHashString@@@Z:PROC ; ioBaseChar::HasBuff
; Function compile flags: /Ogsp
;	COMDAT ?CheckUseBuff@ioLightAttack@@MAE_NPAVioBaseChar@@@Z
_TEXT	SEGMENT
_i$548825 = -4						; size = 4
_pChar$ = 8						; size = 4
?CheckUseBuff@ioLightAttack@@MAE_NPAVioBaseChar@@@Z PROC ; ioLightAttack::CheckUseBuff, COMDAT
; _this$ = ecx

; 576  : {

  00000	55		 push	 ebp
  00001	8b ec		 mov	 ebp, esp
  00003	51		 push	 ecx
  00004	53		 push	 ebx
  00005	56		 push	 esi
  00006	8b f1		 mov	 esi, ecx

; 577  : 	int iCnt = m_OwnerBuffList.size();

  00008	8b 86 ec 10 00
	00		 mov	 eax, DWORD PTR [esi+4332]
  0000e	2b 86 e8 10 00
	00		 sub	 eax, DWORD PTR [esi+4328]
  00014	57		 push	 edi
  00015	6a 14		 push	 20			; 00000014H
  00017	99		 cdq
  00018	59		 pop	 ecx
  00019	f7 f9		 idiv	 ecx

; 578  : 	for( int i=0; i < iCnt; ++i )

  0001b	33 ff		 xor	 edi, edi
  0001d	89 7d fc	 mov	 DWORD PTR _i$548825[ebp], edi
  00020	8b d8		 mov	 ebx, eax
  00022	3b df		 cmp	 ebx, edi
  00024	7e 20		 jle	 SHORT $LN2@CheckUseBu
$LL4@CheckUseBu:

; 579  : 	{
; 580  : 		if( pChar->HasBuff( m_OwnerBuffList[i].m_BuffName ) )

  00026	8b 86 e8 10 00
	00		 mov	 eax, DWORD PTR [esi+4328]
  0002c	8b 4d 08	 mov	 ecx, DWORD PTR _pChar$[ebp]
  0002f	03 c7		 add	 eax, edi
  00031	50		 push	 eax
  00032	e8 00 00 00 00	 call	 ?HasBuff@ioBaseChar@@QBE_NABVioHashString@@@Z ; ioBaseChar::HasBuff
  00037	84 c0		 test	 al, al
  00039	75 14		 jne	 SHORT $LN12@CheckUseBu

; 578  : 	for( int i=0; i < iCnt; ++i )

  0003b	ff 45 fc	 inc	 DWORD PTR _i$548825[ebp]
  0003e	83 c7 14	 add	 edi, 20			; 00000014H
  00041	39 5d fc	 cmp	 DWORD PTR _i$548825[ebp], ebx
  00044	7c e0		 jl	 SHORT $LL4@CheckUseBu
$LN2@CheckUseBu:

; 582  : 	}
; 583  : 
; 584  : 	return false;

  00046	32 c0		 xor	 al, al
$LN5@CheckUseBu:
  00048	5f		 pop	 edi
  00049	5e		 pop	 esi
  0004a	5b		 pop	 ebx

; 585  : }

  0004b	c9		 leave
  0004c	c2 04 00	 ret	 4
$LN12@CheckUseBu:

; 581  : 			return true;

  0004f	b0 01		 mov	 al, 1
  00051	eb f5		 jmp	 SHORT $LN5@CheckUseBu
?CheckUseBuff@ioLightAttack@@MAE_NPAVioBaseChar@@@Z ENDP ; ioLightAttack::CheckUseBuff
_TEXT	ENDS
PUBLIC	?begin@?$vector@UBuffInfoStruct@@V?$allocator@UBuffInfoStruct@@@std@@@std@@QBE?AV?$_Vector_const_iterator@V?$_Vector_val@UBuffInfoStruct@@V?$allocator@UBuffInfoStruct@@@std@@@std@@@2@XZ ; std::vector<BuffInfoStruct,std::allocator<BuffInfoStruct> >::begin
; Function compile flags: /Ogsp
; File c:\program files (x86)\microsoft visual studio 10.0\vc\include\vector
;	COMDAT ?begin@?$vector@UBuffInfoStruct@@V?$allocator@UBuffInfoStruct@@@std@@@std@@QBE?AV?$_Vector_const_iterator@V?$_Vector_val@UBuffInfoStruct@@V?$allocator@UBuffInfoStruct@@@std@@@std@@@2@XZ
_TEXT	SEGMENT
___$ReturnUdt$ = 8					; size = 4
?begin@?$vector@UBuffInfoStruct@@V?$allocator@UBuffInfoStruct@@@std@@@std@@QBE?AV?$_Vector_const_iterator@V?$_Vector_val@UBuffInfoStruct@@V?$allocator@UBuffInfoStruct@@@std@@@std@@@2@XZ PROC ; std::vector<BuffInfoStruct,std::allocator<BuffInfoStruct> >::begin, COMDAT
; _this$ = ecx

; 786  : 		{	// return iterator for beginning of nonmutable sequence

  00000	55		 push	 ebp
  00001	8b ec		 mov	 ebp, esp

; 787  : 		return (const_iterator(this->_Myfirst, this));

  00003	8b 09		 mov	 ecx, DWORD PTR [ecx]
  00005	8b 45 08	 mov	 eax, DWORD PTR ___$ReturnUdt$[ebp]
  00008	89 08		 mov	 DWORD PTR [eax], ecx

; 788  : 		}

  0000a	5d		 pop	 ebp
  0000b	c2 04 00	 ret	 4
?begin@?$vector@UBuffInfoStruct@@V?$allocator@UBuffInfoStruct@@@std@@@std@@QBE?AV?$_Vector_const_iterator@V?$_Vector_val@UBuffInfoStruct@@V?$allocator@UBuffInfoStruct@@@std@@@std@@@2@XZ ENDP ; std::vector<BuffInfoStruct,std::allocator<BuffInfoStruct> >::begin
_TEXT	ENDS
PUBLIC	?end@?$vector@UBuffInfoStruct@@V?$allocator@UBuffInfoStruct@@@std@@@std@@QBE?AV?$_Vector_const_iterator@V?$_Vector_val@UBuffInfoStruct@@V?$allocator@UBuffInfoStruct@@@std@@@std@@@2@XZ ; std::vector<BuffInfoStruct,std::allocator<BuffInfoStruct> >::end
; Function compile flags: /Ogsp
;	COMDAT ?end@?$vector@UBuffInfoStruct@@V?$allocator@UBuffInfoStruct@@@std@@@std@@QBE?AV?$_Vector_const_iterator@V?$_Vector_val@UBuffInfoStruct@@V?$allocator@UBuffInfoStruct@@@std@@@std@@@2@XZ
_TEXT	SEGMENT
___$ReturnUdt$ = 8					; size = 4
?end@?$vector@UBuffInfoStruct@@V?$allocator@UBuffInfoStruct@@@std@@@std@@QBE?AV?$_Vector_const_iterator@V?$_Vector_val@UBuffInfoStruct@@V?$allocator@UBuffInfoStruct@@@std@@@std@@@2@XZ PROC ; std::vector<BuffInfoStruct,std::allocator<BuffInfoStruct> >::end, COMDAT
; _this$ = ecx

; 796  : 		{	// return iterator for end of nonmutable sequence

  00000	55		 push	 ebp
  00001	8b ec		 mov	 ebp, esp

; 797  : 		return (const_iterator(this->_Mylast, this));

  00003	8b 49 04	 mov	 ecx, DWORD PTR [ecx+4]
  00006	8b 45 08	 mov	 eax, DWORD PTR ___$ReturnUdt$[ebp]
  00009	89 08		 mov	 DWORD PTR [eax], ecx

; 798  : 		}

  0000b	5d		 pop	 ebp
  0000c	c2 04 00	 ret	 4
?end@?$vector@UBuffInfoStruct@@V?$allocator@UBuffInfoStruct@@@std@@@std@@QBE?AV?$_Vector_const_iterator@V?$_Vector_val@UBuffInfoStruct@@V?$allocator@UBuffInfoStruct@@@std@@@std@@@2@XZ ENDP ; std::vector<BuffInfoStruct,std::allocator<BuffInfoStruct> >::end
_TEXT	ENDS
PUBLIC	_this$GSCopy$
PUBLIC	__$ArrayPad$
PUBLIC	??$LoadString_e@$0BC@@ioINILoader@@QAEXAAY0BC@$$CBDAAY00$$CBDPADH@Z ; ioINILoader::LoadString_e<18>
EXTRN	__imp_?LoadStringA@ioINILoader@@QAEXPBD0PADH@Z:PROC
EXTRN	___security_cookie:DWORD
; Function compile flags: /Ogsp
; File d:\lost saga for developer\youtube\tutorial\source\src\io3dengine\ioiniloader.h
;	COMDAT ??$LoadString_e@$0BC@@ioINILoader@@QAEXAAY0BC@$$CBDAAY00$$CBDPADH@Z
_TEXT	SEGMENT
_this$GSCopy$ = -32					; size = 4
__k$ = -28						; size = 18
__$ArrayPad$ = -4					; size = 4
_k$ = 8							; size = 4
_d$ = 12						; size = 4
_b$ = 16						; size = 4
_i$ = 20						; size = 4
??$LoadString_e@$0BC@@ioINILoader@@QAEXAAY0BC@$$CBDAAY00$$CBDPADH@Z PROC ; ioINILoader::LoadString_e<18>, COMDAT
; _this$ = ecx

; 161  : 	{

  00000	55		 push	 ebp
  00001	8b ec		 mov	 ebp, esp
  00003	83 ec 20	 sub	 esp, 32			; 00000020H
  00006	a1 00 00 00 00	 mov	 eax, DWORD PTR ___security_cookie
  0000b	33 c5		 xor	 eax, ebp
  0000d	89 45 fc	 mov	 DWORD PTR __$ArrayPad$[ebp], eax
  00010	8b 45 08	 mov	 eax, DWORD PTR _k$[ebp]

; 162  : 		_ENCSTR(k, _k);

  00013	8a 10		 mov	 dl, BYTE PTR [eax]
  00015	56		 push	 esi
  00016	8b 75 0c	 mov	 esi, DWORD PTR _d$[ebp]
  00019	57		 push	 edi
  0001a	8b 7d 10	 mov	 edi, DWORD PTR _b$[ebp]
  0001d	89 4d e0	 mov	 DWORD PTR _this$GSCopy$[ebp], ecx
  00020	84 d2		 test	 dl, dl
  00022	0f 84 be 01 00
	00		 je	 $LN96@LoadString
  00028	80 f2 ed	 xor	 dl, -19			; ffffffedH
  0002b	88 55 e4	 mov	 BYTE PTR __k$[ebp], dl
  0002e	8a 50 01	 mov	 dl, BYTE PTR [eax+1]
  00031	84 d2		 test	 dl, dl
  00033	0f 84 a7 01 00
	00		 je	 $LN95@LoadString
  00039	80 f2 ec	 xor	 dl, -20			; ffffffecH
  0003c	88 55 e5	 mov	 BYTE PTR __k$[ebp+1], dl
  0003f	8a 50 02	 mov	 dl, BYTE PTR [eax+2]
  00042	84 d2		 test	 dl, dl
  00044	0f 84 90 01 00
	00		 je	 $LN94@LoadString
  0004a	b1 eb		 mov	 cl, -21			; ffffffebH
  0004c	32 d1		 xor	 dl, cl
  0004e	88 55 e6	 mov	 BYTE PTR __k$[ebp+2], dl
  00051	8a 50 03	 mov	 dl, BYTE PTR [eax+3]
  00054	84 d2		 test	 dl, dl
  00056	0f 84 78 01 00
	00		 je	 $LN93@LoadString
  0005c	80 f2 ea	 xor	 dl, -22			; ffffffeaH
  0005f	88 55 e7	 mov	 BYTE PTR __k$[ebp+3], dl
  00062	8a 50 04	 mov	 dl, BYTE PTR [eax+4]
  00065	84 d2		 test	 dl, dl
  00067	0f 84 61 01 00
	00		 je	 $LN92@LoadString
  0006d	80 f2 ed	 xor	 dl, -19			; ffffffedH
  00070	88 55 e8	 mov	 BYTE PTR __k$[ebp+4], dl
  00073	8a 50 05	 mov	 dl, BYTE PTR [eax+5]
  00076	84 d2		 test	 dl, dl
  00078	0f 84 4a 01 00
	00		 je	 $LN91@LoadString
  0007e	80 f2 ec	 xor	 dl, -20			; ffffffecH
  00081	88 55 e9	 mov	 BYTE PTR __k$[ebp+5], dl
  00084	8a 50 06	 mov	 dl, BYTE PTR [eax+6]
  00087	84 d2		 test	 dl, dl
  00089	0f 84 34 01 00
	00		 je	 $LN90@LoadString
  0008f	32 d1		 xor	 dl, cl
  00091	88 55 ea	 mov	 BYTE PTR __k$[ebp+6], dl
  00094	8a 50 07	 mov	 dl, BYTE PTR [eax+7]
  00097	84 d2		 test	 dl, dl
  00099	0f 84 1e 01 00
	00		 je	 $LN89@LoadString
  0009f	80 f2 ea	 xor	 dl, -22			; ffffffeaH
  000a2	88 55 eb	 mov	 BYTE PTR __k$[ebp+7], dl
  000a5	8a 50 08	 mov	 dl, BYTE PTR [eax+8]
  000a8	84 d2		 test	 dl, dl
  000aa	0f 84 07 01 00
	00		 je	 $LN88@LoadString
  000b0	80 f2 ed	 xor	 dl, -19			; ffffffedH
  000b3	88 55 ec	 mov	 BYTE PTR __k$[ebp+8], dl
  000b6	8a 50 09	 mov	 dl, BYTE PTR [eax+9]
  000b9	84 d2		 test	 dl, dl
  000bb	0f 84 f0 00 00
	00		 je	 $LN87@LoadString
  000c1	80 f2 ec	 xor	 dl, -20			; ffffffecH
  000c4	88 55 ed	 mov	 BYTE PTR __k$[ebp+9], dl
  000c7	8a 50 0a	 mov	 dl, BYTE PTR [eax+10]
  000ca	84 d2		 test	 dl, dl
  000cc	0f 84 da 00 00
	00		 je	 $LN86@LoadString
  000d2	32 d1		 xor	 dl, cl
  000d4	88 55 ee	 mov	 BYTE PTR __k$[ebp+10], dl
  000d7	8a 50 0b	 mov	 dl, BYTE PTR [eax+11]
  000da	84 d2		 test	 dl, dl
  000dc	0f 84 c4 00 00
	00		 je	 $LN85@LoadString
  000e2	80 f2 ea	 xor	 dl, -22			; ffffffeaH
  000e5	88 55 ef	 mov	 BYTE PTR __k$[ebp+11], dl
  000e8	8a 50 0c	 mov	 dl, BYTE PTR [eax+12]
  000eb	84 d2		 test	 dl, dl
  000ed	0f 84 ad 00 00
	00		 je	 $LN84@LoadString
  000f3	80 f2 ed	 xor	 dl, -19			; ffffffedH
  000f6	88 55 f0	 mov	 BYTE PTR __k$[ebp+12], dl
  000f9	8a 50 0d	 mov	 dl, BYTE PTR [eax+13]
  000fc	84 d2		 test	 dl, dl
  000fe	0f 84 96 00 00
	00		 je	 $LN83@LoadString
  00104	80 f2 ec	 xor	 dl, -20			; ffffffecH
  00107	88 55 f1	 mov	 BYTE PTR __k$[ebp+13], dl
  0010a	8a 50 0e	 mov	 dl, BYTE PTR [eax+14]
  0010d	84 d2		 test	 dl, dl
  0010f	0f 84 80 00 00
	00		 je	 $LN82@LoadString
  00115	32 d1		 xor	 dl, cl
  00117	88 55 f2	 mov	 BYTE PTR __k$[ebp+14], dl
  0011a	8a 50 0f	 mov	 dl, BYTE PTR [eax+15]
  0011d	84 d2		 test	 dl, dl
  0011f	74 6e		 je	 SHORT $LN81@LoadString
  00121	80 f2 ea	 xor	 dl, -22			; ffffffeaH
  00124	88 55 f3	 mov	 BYTE PTR __k$[ebp+15], dl
  00127	8a 50 10	 mov	 dl, BYTE PTR [eax+16]
  0012a	84 d2		 test	 dl, dl
  0012c	74 5b		 je	 SHORT $LN80@LoadString
  0012e	80 f2 ed	 xor	 dl, -19			; ffffffedH
  00131	80 78 11 00	 cmp	 BYTE PTR [eax+17], 0
  00135	88 55 f4	 mov	 BYTE PTR __k$[ebp+16], dl
  00138	0f 84 ac 00 00
	00		 je	 $LN111@LoadString
  0013e	8a 50 12	 mov	 dl, BYTE PTR [eax+18]
  00141	84 d2		 test	 dl, dl
  00143	74 3f		 je	 SHORT $LN78@LoadString
  00145	32 d1		 xor	 dl, cl
  00147	88 55 f6	 mov	 BYTE PTR __k$[ebp+18], dl
  0014a	8a 50 13	 mov	 dl, BYTE PTR [eax+19]
  0014d	84 d2		 test	 dl, dl
  0014f	74 2d		 je	 SHORT $LN77@LoadString
  00151	80 f2 ea	 xor	 dl, -22			; ffffffeaH
  00154	88 55 f7	 mov	 BYTE PTR __k$[ebp+19], dl
  00157	8a 50 14	 mov	 dl, BYTE PTR [eax+20]
  0015a	84 d2		 test	 dl, dl
  0015c	74 1a		 je	 SHORT $LN76@LoadString
  0015e	8a 40 15	 mov	 al, BYTE PTR [eax+21]
  00161	80 f2 ed	 xor	 dl, -19			; ffffffedH
  00164	88 55 f8	 mov	 BYTE PTR __k$[ebp+20], dl
  00167	84 c0		 test	 al, al
  00169	74 07		 je	 SHORT $LN75@LoadString
  0016b	34 ec		 xor	 al, -20			; ffffffecH
  0016d	88 45 f9	 mov	 BYTE PTR __k$[ebp+21], al
  00170	eb 78		 jmp	 SHORT $LN111@LoadString
$LN75@LoadString:
  00172	c6 45 f9 ec	 mov	 BYTE PTR __k$[ebp+21], -20 ; ffffffecH
  00176	eb 72		 jmp	 SHORT $LN111@LoadString
$LN76@LoadString:
  00178	c6 45 f8 ed	 mov	 BYTE PTR __k$[ebp+20], -19 ; ffffffedH
  0017c	eb 6c		 jmp	 SHORT $LN111@LoadString
$LN77@LoadString:
  0017e	c6 45 f7 ea	 mov	 BYTE PTR __k$[ebp+19], -22 ; ffffffeaH
  00182	eb 66		 jmp	 SHORT $LN111@LoadString
$LN78@LoadString:
  00184	88 4d f6	 mov	 BYTE PTR __k$[ebp+18], cl
  00187	eb 61		 jmp	 SHORT $LN111@LoadString
$LN80@LoadString:
  00189	c6 45 f4 ed	 mov	 BYTE PTR __k$[ebp+16], -19 ; ffffffedH
  0018d	eb 5b		 jmp	 SHORT $LN111@LoadString
$LN81@LoadString:
  0018f	c6 45 f3 ea	 mov	 BYTE PTR __k$[ebp+15], -22 ; ffffffeaH
  00193	eb 55		 jmp	 SHORT $LN111@LoadString
$LN82@LoadString:
  00195	88 4d f2	 mov	 BYTE PTR __k$[ebp+14], cl
  00198	eb 50		 jmp	 SHORT $LN111@LoadString
$LN83@LoadString:
  0019a	c6 45 f1 ec	 mov	 BYTE PTR __k$[ebp+13], -20 ; ffffffecH
  0019e	eb 4a		 jmp	 SHORT $LN111@LoadString
$LN84@LoadString:
  001a0	c6 45 f0 ed	 mov	 BYTE PTR __k$[ebp+12], -19 ; ffffffedH
  001a4	eb 44		 jmp	 SHORT $LN111@LoadString
$LN85@LoadString:
  001a6	c6 45 ef ea	 mov	 BYTE PTR __k$[ebp+11], -22 ; ffffffeaH
  001aa	eb 3e		 jmp	 SHORT $LN111@LoadString
$LN86@LoadString:
  001ac	88 4d ee	 mov	 BYTE PTR __k$[ebp+10], cl
  001af	eb 39		 jmp	 SHORT $LN111@LoadString
$LN87@LoadString:
  001b1	c6 45 ed ec	 mov	 BYTE PTR __k$[ebp+9], -20 ; ffffffecH
  001b5	eb 33		 jmp	 SHORT $LN111@LoadString
$LN88@LoadString:
  001b7	c6 45 ec ed	 mov	 BYTE PTR __k$[ebp+8], -19 ; ffffffedH
  001bb	eb 2d		 jmp	 SHORT $LN111@LoadString
$LN89@LoadString:
  001bd	c6 45 eb ea	 mov	 BYTE PTR __k$[ebp+7], -22 ; ffffffeaH
  001c1	eb 27		 jmp	 SHORT $LN111@LoadString
$LN90@LoadString:
  001c3	88 4d ea	 mov	 BYTE PTR __k$[ebp+6], cl
  001c6	eb 22		 jmp	 SHORT $LN111@LoadString
$LN91@LoadString:
  001c8	c6 45 e9 ec	 mov	 BYTE PTR __k$[ebp+5], -20 ; ffffffecH
  001cc	eb 1c		 jmp	 SHORT $LN111@LoadString
$LN92@LoadString:
  001ce	c6 45 e8 ed	 mov	 BYTE PTR __k$[ebp+4], -19 ; ffffffedH
  001d2	eb 16		 jmp	 SHORT $LN111@LoadString
$LN93@LoadString:
  001d4	c6 45 e7 ea	 mov	 BYTE PTR __k$[ebp+3], -22 ; ffffffeaH
  001d8	eb 10		 jmp	 SHORT $LN111@LoadString
$LN94@LoadString:
  001da	c6 45 e6 eb	 mov	 BYTE PTR __k$[ebp+2], -21 ; ffffffebH
  001de	eb 0a		 jmp	 SHORT $LN111@LoadString
$LN95@LoadString:
  001e0	c6 45 e5 ec	 mov	 BYTE PTR __k$[ebp+1], -20 ; ffffffecH
  001e4	eb 04		 jmp	 SHORT $LN111@LoadString
$LN96@LoadString:
  001e6	c6 45 e4 ed	 mov	 BYTE PTR __k$[ebp], -19	; ffffffedH
$LN111@LoadString:
  001ea	6a 04		 push	 4
  001ec	8d 45 e4	 lea	 eax, DWORD PTR __k$[ebp]
  001ef	c6 45 f5 00	 mov	 BYTE PTR __k$[ebp+17], 0
  001f3	5a		 pop	 edx
$LL104@LoadString:
  001f4	81 30 ed ec eb
	ea		 xor	 DWORD PTR [eax], -353637139 ; eaebecedH
  001fa	83 c0 04	 add	 eax, 4
  001fd	4a		 dec	 edx
  001fe	75 f4		 jne	 SHORT $LL104@LoadString

; 163  : 		LoadString(_k, d, b, i);

  00200	ff 75 14	 push	 DWORD PTR _i$[ebp]
  00203	8b 4d e0	 mov	 ecx, DWORD PTR _this$GSCopy$[ebp]
  00206	80 75 f4 ed	 xor	 BYTE PTR __k$[ebp+16], -19 ; ffffffedH
  0020a	57		 push	 edi
  0020b	56		 push	 esi
  0020c	8d 45 e4	 lea	 eax, DWORD PTR __k$[ebp]
  0020f	50		 push	 eax
  00210	ff 15 00 00 00
	00		 call	 DWORD PTR __imp_?LoadStringA@ioINILoader@@QAEXPBD0PADH@Z

; 164  : 	}

  00216	8b 4d fc	 mov	 ecx, DWORD PTR __$ArrayPad$[ebp]
  00219	5f		 pop	 edi
  0021a	33 cd		 xor	 ecx, ebp
  0021c	5e		 pop	 esi
  0021d	e8 00 00 00 00	 call	 @__security_check_cookie@4
  00222	c9		 leave
  00223	c2 10 00	 ret	 16			; 00000010H
??$LoadString_e@$0BC@@ioINILoader@@QAEXAAY0BC@$$CBDAAY00$$CBDPADH@Z ENDP ; ioINILoader::LoadString_e<18>
_TEXT	ENDS
PUBLIC	__$ArrayPad$
PUBLIC	??$LoadFloat_e@$0BH@@ioINILoader@@QAEMAAY0BH@$$CBDM@Z ; ioINILoader::LoadFloat_e<23>
EXTRN	__imp_?LoadFloat@ioINILoader@@QAEMPBDM@Z:PROC
; Function compile flags: /Ogsp
;	COMDAT ??$LoadFloat_e@$0BH@@ioINILoader@@QAEMAAY0BH@$$CBDM@Z
_TEXT	SEGMENT
__k$ = -32						; size = 23
__$ArrayPad$ = -4					; size = 4
_k$ = 8							; size = 4
_f$ = 12						; size = 4
??$LoadFloat_e@$0BH@@ioINILoader@@QAEMAAY0BH@$$CBDM@Z PROC ; ioINILoader::LoadFloat_e<23>, COMDAT
; _this$ = ecx

; 135  : 	{

  00000	55		 push	 ebp
  00001	8b ec		 mov	 ebp, esp
  00003	83 ec 20	 sub	 esp, 32			; 00000020H
  00006	a1 00 00 00 00	 mov	 eax, DWORD PTR ___security_cookie
  0000b	33 c5		 xor	 eax, ebp
  0000d	89 45 fc	 mov	 DWORD PTR __$ArrayPad$[ebp], eax
  00010	8b 45 08	 mov	 eax, DWORD PTR _k$[ebp]

; 136  : 		_ENCSTR(k, _k);

  00013	8a 10		 mov	 dl, BYTE PTR [eax]
  00015	53		 push	 ebx
  00016	56		 push	 esi
  00017	8b f1		 mov	 esi, ecx
  00019	84 d2		 test	 dl, dl
  0001b	0f 84 2d 02 00
	00		 je	 $LN96@LoadFloat_
  00021	80 f2 ed	 xor	 dl, -19			; ffffffedH
  00024	88 55 e0	 mov	 BYTE PTR __k$[ebp], dl
  00027	8a 50 01	 mov	 dl, BYTE PTR [eax+1]
  0002a	84 d2		 test	 dl, dl
  0002c	0f 84 16 02 00
	00		 je	 $LN95@LoadFloat_
  00032	b1 ec		 mov	 cl, -20			; ffffffecH
  00034	32 d1		 xor	 dl, cl
  00036	88 55 e1	 mov	 BYTE PTR __k$[ebp+1], dl
  00039	8a 50 02	 mov	 dl, BYTE PTR [eax+2]
  0003c	84 d2		 test	 dl, dl
  0003e	0f 84 fe 01 00
	00		 je	 $LN94@LoadFloat_
  00044	80 f2 eb	 xor	 dl, -21			; ffffffebH
  00047	88 55 e2	 mov	 BYTE PTR __k$[ebp+2], dl
  0004a	8a 50 03	 mov	 dl, BYTE PTR [eax+3]
  0004d	84 d2		 test	 dl, dl
  0004f	0f 84 e7 01 00
	00		 je	 $LN93@LoadFloat_
  00055	b3 ea		 mov	 bl, -22			; ffffffeaH
  00057	32 d3		 xor	 dl, bl
  00059	88 55 e3	 mov	 BYTE PTR __k$[ebp+3], dl
  0005c	8a 50 04	 mov	 dl, BYTE PTR [eax+4]
  0005f	84 d2		 test	 dl, dl
  00061	0f 84 cf 01 00
	00		 je	 $LN92@LoadFloat_
  00067	80 f2 ed	 xor	 dl, -19			; ffffffedH
  0006a	88 55 e4	 mov	 BYTE PTR __k$[ebp+4], dl
  0006d	8a 50 05	 mov	 dl, BYTE PTR [eax+5]
  00070	84 d2		 test	 dl, dl
  00072	0f 84 b9 01 00
	00		 je	 $LN91@LoadFloat_
  00078	32 d1		 xor	 dl, cl
  0007a	88 55 e5	 mov	 BYTE PTR __k$[ebp+5], dl
  0007d	8a 50 06	 mov	 dl, BYTE PTR [eax+6]
  00080	84 d2		 test	 dl, dl
  00082	0f 84 a3 01 00
	00		 je	 $LN90@LoadFloat_
  00088	80 f2 eb	 xor	 dl, -21			; ffffffebH
  0008b	88 55 e6	 mov	 BYTE PTR __k$[ebp+6], dl
  0008e	8a 50 07	 mov	 dl, BYTE PTR [eax+7]
  00091	84 d2		 test	 dl, dl
  00093	0f 84 8d 01 00
	00		 je	 $LN89@LoadFloat_
  00099	32 d3		 xor	 dl, bl
  0009b	88 55 e7	 mov	 BYTE PTR __k$[ebp+7], dl
  0009e	8a 50 08	 mov	 dl, BYTE PTR [eax+8]
  000a1	84 d2		 test	 dl, dl
  000a3	0f 84 77 01 00
	00		 je	 $LN88@LoadFloat_
  000a9	80 f2 ed	 xor	 dl, -19			; ffffffedH
  000ac	88 55 e8	 mov	 BYTE PTR __k$[ebp+8], dl
  000af	8a 50 09	 mov	 dl, BYTE PTR [eax+9]
  000b2	84 d2		 test	 dl, dl
  000b4	0f 84 61 01 00
	00		 je	 $LN87@LoadFloat_
  000ba	32 d1		 xor	 dl, cl
  000bc	88 55 e9	 mov	 BYTE PTR __k$[ebp+9], dl
  000bf	8a 50 0a	 mov	 dl, BYTE PTR [eax+10]
  000c2	84 d2		 test	 dl, dl
  000c4	0f 84 4b 01 00
	00		 je	 $LN86@LoadFloat_
  000ca	80 f2 eb	 xor	 dl, -21			; ffffffebH
  000cd	88 55 ea	 mov	 BYTE PTR __k$[ebp+10], dl
  000d0	8a 50 0b	 mov	 dl, BYTE PTR [eax+11]
  000d3	84 d2		 test	 dl, dl
  000d5	0f 84 35 01 00
	00		 je	 $LN85@LoadFloat_
  000db	32 d3		 xor	 dl, bl
  000dd	88 55 eb	 mov	 BYTE PTR __k$[ebp+11], dl
  000e0	8a 50 0c	 mov	 dl, BYTE PTR [eax+12]
  000e3	84 d2		 test	 dl, dl
  000e5	0f 84 1f 01 00
	00		 je	 $LN84@LoadFloat_
  000eb	80 f2 ed	 xor	 dl, -19			; ffffffedH
  000ee	88 55 ec	 mov	 BYTE PTR __k$[ebp+12], dl
  000f1	8a 50 0d	 mov	 dl, BYTE PTR [eax+13]
  000f4	84 d2		 test	 dl, dl
  000f6	0f 84 09 01 00
	00		 je	 $LN83@LoadFloat_
  000fc	32 d1		 xor	 dl, cl
  000fe	88 55 ed	 mov	 BYTE PTR __k$[ebp+13], dl
  00101	8a 50 0e	 mov	 dl, BYTE PTR [eax+14]
  00104	84 d2		 test	 dl, dl
  00106	0f 84 f3 00 00
	00		 je	 $LN82@LoadFloat_
  0010c	80 f2 eb	 xor	 dl, -21			; ffffffebH
  0010f	88 55 ee	 mov	 BYTE PTR __k$[ebp+14], dl
  00112	8a 50 0f	 mov	 dl, BYTE PTR [eax+15]
  00115	84 d2		 test	 dl, dl
  00117	0f 84 dd 00 00
	00		 je	 $LN81@LoadFloat_
  0011d	32 d3		 xor	 dl, bl
  0011f	88 55 ef	 mov	 BYTE PTR __k$[ebp+15], dl
  00122	8a 50 10	 mov	 dl, BYTE PTR [eax+16]
  00125	84 d2		 test	 dl, dl
  00127	0f 84 c7 00 00
	00		 je	 $LN80@LoadFloat_
  0012d	80 f2 ed	 xor	 dl, -19			; ffffffedH
  00130	88 55 f0	 mov	 BYTE PTR __k$[ebp+16], dl
  00133	8a 50 11	 mov	 dl, BYTE PTR [eax+17]
  00136	84 d2		 test	 dl, dl
  00138	0f 84 b1 00 00
	00		 je	 $LN79@LoadFloat_
  0013e	32 d1		 xor	 dl, cl
  00140	88 55 f1	 mov	 BYTE PTR __k$[ebp+17], dl
  00143	8a 50 12	 mov	 dl, BYTE PTR [eax+18]
  00146	84 d2		 test	 dl, dl
  00148	0f 84 9b 00 00
	00		 je	 $LN78@LoadFloat_
  0014e	80 f2 eb	 xor	 dl, -21			; ffffffebH
  00151	88 55 f2	 mov	 BYTE PTR __k$[ebp+18], dl
  00154	8a 50 13	 mov	 dl, BYTE PTR [eax+19]
  00157	84 d2		 test	 dl, dl
  00159	0f 84 85 00 00
	00		 je	 $LN77@LoadFloat_
  0015f	32 d3		 xor	 dl, bl
  00161	88 55 f3	 mov	 BYTE PTR __k$[ebp+19], dl
  00164	8a 50 14	 mov	 dl, BYTE PTR [eax+20]
  00167	84 d2		 test	 dl, dl
  00169	74 73		 je	 SHORT $LN76@LoadFloat_
  0016b	80 f2 ed	 xor	 dl, -19			; ffffffedH
  0016e	88 55 f4	 mov	 BYTE PTR __k$[ebp+20], dl
  00171	8a 50 15	 mov	 dl, BYTE PTR [eax+21]
  00174	84 d2		 test	 dl, dl
  00176	74 61		 je	 SHORT $LN75@LoadFloat_
  00178	32 d1		 xor	 dl, cl
  0017a	80 78 16 00	 cmp	 BYTE PTR [eax+22], 0
  0017e	88 55 f5	 mov	 BYTE PTR __k$[ebp+21], dl
  00181	0f 84 cb 00 00
	00		 je	 $LN1@LoadFloat_
  00187	8a 50 17	 mov	 dl, BYTE PTR [eax+23]
  0018a	84 d2		 test	 dl, dl
  0018c	74 46		 je	 SHORT $LN73@LoadFloat_
  0018e	32 d3		 xor	 dl, bl
  00190	88 55 f7	 mov	 BYTE PTR __k$[ebp+23], dl
  00193	8a 50 18	 mov	 dl, BYTE PTR [eax+24]
  00196	84 d2		 test	 dl, dl
  00198	74 34		 je	 SHORT $LN72@LoadFloat_
  0019a	80 f2 ed	 xor	 dl, -19			; ffffffedH
  0019d	88 55 f8	 mov	 BYTE PTR __k$[ebp+24], dl
  001a0	8a 50 19	 mov	 dl, BYTE PTR [eax+25]
  001a3	84 d2		 test	 dl, dl
  001a5	74 1f		 je	 SHORT $LN71@LoadFloat_
  001a7	8a 40 1a	 mov	 al, BYTE PTR [eax+26]
  001aa	32 d1		 xor	 dl, cl
  001ac	88 55 f9	 mov	 BYTE PTR __k$[ebp+25], dl
  001af	84 c0		 test	 al, al
  001b1	74 0a		 je	 SHORT $LN70@LoadFloat_
  001b3	34 eb		 xor	 al, -21			; ffffffebH
  001b5	88 45 fa	 mov	 BYTE PTR __k$[ebp+26], al
  001b8	e9 95 00 00 00	 jmp	 $LN1@LoadFloat_
$LN70@LoadFloat_:
  001bd	c6 45 fa eb	 mov	 BYTE PTR __k$[ebp+26], -21 ; ffffffebH
  001c1	e9 8c 00 00 00	 jmp	 $LN1@LoadFloat_
$LN71@LoadFloat_:
  001c6	88 4d f9	 mov	 BYTE PTR __k$[ebp+25], cl
  001c9	e9 84 00 00 00	 jmp	 $LN1@LoadFloat_
$LN72@LoadFloat_:
  001ce	c6 45 f8 ed	 mov	 BYTE PTR __k$[ebp+24], -19 ; ffffffedH
  001d2	eb 7e		 jmp	 SHORT $LN1@LoadFloat_
$LN73@LoadFloat_:
  001d4	88 5d f7	 mov	 BYTE PTR __k$[ebp+23], bl
  001d7	eb 79		 jmp	 SHORT $LN1@LoadFloat_
$LN75@LoadFloat_:
  001d9	88 4d f5	 mov	 BYTE PTR __k$[ebp+21], cl
  001dc	eb 74		 jmp	 SHORT $LN1@LoadFloat_
$LN76@LoadFloat_:
  001de	c6 45 f4 ed	 mov	 BYTE PTR __k$[ebp+20], -19 ; ffffffedH
  001e2	eb 6e		 jmp	 SHORT $LN1@LoadFloat_
$LN77@LoadFloat_:
  001e4	88 5d f3	 mov	 BYTE PTR __k$[ebp+19], bl
  001e7	eb 69		 jmp	 SHORT $LN1@LoadFloat_
$LN78@LoadFloat_:
  001e9	c6 45 f2 eb	 mov	 BYTE PTR __k$[ebp+18], -21 ; ffffffebH
  001ed	eb 63		 jmp	 SHORT $LN1@LoadFloat_
$LN79@LoadFloat_:
  001ef	88 4d f1	 mov	 BYTE PTR __k$[ebp+17], cl
  001f2	eb 5e		 jmp	 SHORT $LN1@LoadFloat_
$LN80@LoadFloat_:
  001f4	c6 45 f0 ed	 mov	 BYTE PTR __k$[ebp+16], -19 ; ffffffedH
  001f8	eb 58		 jmp	 SHORT $LN1@LoadFloat_
$LN81@LoadFloat_:
  001fa	88 5d ef	 mov	 BYTE PTR __k$[ebp+15], bl
  001fd	eb 53		 jmp	 SHORT $LN1@LoadFloat_
$LN82@LoadFloat_:
  001ff	c6 45 ee eb	 mov	 BYTE PTR __k$[ebp+14], -21 ; ffffffebH
  00203	eb 4d		 jmp	 SHORT $LN1@LoadFloat_
$LN83@LoadFloat_:
  00205	88 4d ed	 mov	 BYTE PTR __k$[ebp+13], cl
  00208	eb 48		 jmp	 SHORT $LN1@LoadFloat_
$LN84@LoadFloat_:
  0020a	c6 45 ec ed	 mov	 BYTE PTR __k$[ebp+12], -19 ; ffffffedH
  0020e	eb 42		 jmp	 SHORT $LN1@LoadFloat_
$LN85@LoadFloat_:
  00210	88 5d eb	 mov	 BYTE PTR __k$[ebp+11], bl
  00213	eb 3d		 jmp	 SHORT $LN1@LoadFloat_
$LN86@LoadFloat_:
  00215	c6 45 ea eb	 mov	 BYTE PTR __k$[ebp+10], -21 ; ffffffebH
  00219	eb 37		 jmp	 SHORT $LN1@LoadFloat_
$LN87@LoadFloat_:
  0021b	88 4d e9	 mov	 BYTE PTR __k$[ebp+9], cl
  0021e	eb 32		 jmp	 SHORT $LN1@LoadFloat_
$LN88@LoadFloat_:
  00220	c6 45 e8 ed	 mov	 BYTE PTR __k$[ebp+8], -19 ; ffffffedH
  00224	eb 2c		 jmp	 SHORT $LN1@LoadFloat_
$LN89@LoadFloat_:
  00226	88 5d e7	 mov	 BYTE PTR __k$[ebp+7], bl
  00229	eb 27		 jmp	 SHORT $LN1@LoadFloat_
$LN90@LoadFloat_:
  0022b	c6 45 e6 eb	 mov	 BYTE PTR __k$[ebp+6], -21 ; ffffffebH
  0022f	eb 21		 jmp	 SHORT $LN1@LoadFloat_
$LN91@LoadFloat_:
  00231	88 4d e5	 mov	 BYTE PTR __k$[ebp+5], cl
  00234	eb 1c		 jmp	 SHORT $LN1@LoadFloat_
$LN92@LoadFloat_:
  00236	c6 45 e4 ed	 mov	 BYTE PTR __k$[ebp+4], -19 ; ffffffedH
  0023a	eb 16		 jmp	 SHORT $LN1@LoadFloat_
$LN93@LoadFloat_:
  0023c	c6 45 e3 ea	 mov	 BYTE PTR __k$[ebp+3], -22 ; ffffffeaH
  00240	eb 10		 jmp	 SHORT $LN1@LoadFloat_
$LN94@LoadFloat_:
  00242	c6 45 e2 eb	 mov	 BYTE PTR __k$[ebp+2], -21 ; ffffffebH
  00246	eb 0a		 jmp	 SHORT $LN1@LoadFloat_
$LN95@LoadFloat_:
  00248	c6 45 e1 ec	 mov	 BYTE PTR __k$[ebp+1], -20 ; ffffffecH
  0024c	eb 04		 jmp	 SHORT $LN1@LoadFloat_
$LN96@LoadFloat_:
  0024e	c6 45 e0 ed	 mov	 BYTE PTR __k$[ebp], -19	; ffffffedH
$LN1@LoadFloat_:
  00252	6a 05		 push	 5
  00254	8d 45 e0	 lea	 eax, DWORD PTR __k$[ebp]
  00257	c6 45 f6 00	 mov	 BYTE PTR __k$[ebp+22], 0
  0025b	5a		 pop	 edx
$LL104@LoadFloat_:
  0025c	81 30 ed ec eb
	ea		 xor	 DWORD PTR [eax], -353637139 ; eaebecedH
  00262	83 c0 04	 add	 eax, 4
  00265	4a		 dec	 edx
  00266	75 f4		 jne	 SHORT $LL104@LoadFloat_
  00268	6a 14		 push	 20			; 00000014H
  0026a	58		 pop	 eax
$LL101@LoadFloat_:
  0026b	8b c8		 mov	 ecx, eax
  0026d	81 e1 03 00 00
	80		 and	 ecx, -2147483645	; 80000003H
  00273	79 05		 jns	 SHORT $LN111@LoadFloat_
  00275	49		 dec	 ecx
  00276	83 c9 fc	 or	 ecx, -4			; fffffffcH
  00279	41		 inc	 ecx
$LN111@LoadFloat_:
  0027a	b2 ed		 mov	 dl, -19			; ffffffedH
  0027c	2a d1		 sub	 dl, cl
  0027e	30 54 05 e0	 xor	 BYTE PTR __k$[ebp+eax], dl
  00282	40		 inc	 eax
  00283	83 f8 16	 cmp	 eax, 22			; 00000016H
  00286	7c e3		 jl	 SHORT $LL101@LoadFloat_

; 137  : 		return LoadFloat(_k, f);

  00288	f3 0f 10 45 0c	 movss	 xmm0, DWORD PTR _f$[ebp]
  0028d	51		 push	 ecx
  0028e	8d 45 e0	 lea	 eax, DWORD PTR __k$[ebp]
  00291	f3 0f 11 04 24	 movss	 DWORD PTR [esp], xmm0
  00296	50		 push	 eax
  00297	8b ce		 mov	 ecx, esi
  00299	ff 15 00 00 00
	00		 call	 DWORD PTR __imp_?LoadFloat@ioINILoader@@QAEMPBDM@Z

; 138  : 	}

  0029f	8b 4d fc	 mov	 ecx, DWORD PTR __$ArrayPad$[ebp]
  002a2	5e		 pop	 esi
  002a3	33 cd		 xor	 ecx, ebp
  002a5	5b		 pop	 ebx
  002a6	e8 00 00 00 00	 call	 @__security_check_cookie@4
  002ab	c9		 leave
  002ac	c2 08 00	 ret	 8
??$LoadFloat_e@$0BH@@ioINILoader@@QAEMAAY0BH@$$CBDM@Z ENDP ; ioINILoader::LoadFloat_e<23>
_TEXT	ENDS
PUBLIC	__$ArrayPad$
PUBLIC	??$LoadInt_e@$0BE@@ioINILoader@@QAEHAAY0BE@$$CBDH@Z ; ioINILoader::LoadInt_e<20>
EXTRN	__imp_?LoadInt@ioINILoader@@QAEHPBDH@Z:PROC
; Function compile flags: /Ogsp
;	COMDAT ??$LoadInt_e@$0BE@@ioINILoader@@QAEHAAY0BE@$$CBDH@Z
_TEXT	SEGMENT
__k$ = -28						; size = 20
__$ArrayPad$ = -4					; size = 4
_k$ = 8							; size = 4
_i$ = 12						; size = 4
??$LoadInt_e@$0BE@@ioINILoader@@QAEHAAY0BE@$$CBDH@Z PROC ; ioINILoader::LoadInt_e<20>, COMDAT
; _this$ = ecx

; 118  : 	{

  00000	55		 push	 ebp
  00001	8b ec		 mov	 ebp, esp
  00003	83 ec 1c	 sub	 esp, 28			; 0000001cH
  00006	a1 00 00 00 00	 mov	 eax, DWORD PTR ___security_cookie
  0000b	33 c5		 xor	 eax, ebp
  0000d	89 45 fc	 mov	 DWORD PTR __$ArrayPad$[ebp], eax
  00010	8b 45 08	 mov	 eax, DWORD PTR _k$[ebp]

; 119  : 		_ENCSTR(k, _k);

  00013	8a 10		 mov	 dl, BYTE PTR [eax]
  00015	53		 push	 ebx
  00016	56		 push	 esi
  00017	8b f1		 mov	 esi, ecx
  00019	84 d2		 test	 dl, dl
  0001b	0f 84 dd 01 00
	00		 je	 $LN96@LoadInt_e
  00021	80 f2 ed	 xor	 dl, -19			; ffffffedH
  00024	88 55 e4	 mov	 BYTE PTR __k$[ebp], dl
  00027	8a 50 01	 mov	 dl, BYTE PTR [eax+1]
  0002a	84 d2		 test	 dl, dl
  0002c	0f 84 c6 01 00
	00		 je	 $LN95@LoadInt_e
  00032	b3 ec		 mov	 bl, -20			; ffffffecH
  00034	32 d3		 xor	 dl, bl
  00036	88 55 e5	 mov	 BYTE PTR __k$[ebp+1], dl
  00039	8a 50 02	 mov	 dl, BYTE PTR [eax+2]
  0003c	84 d2		 test	 dl, dl
  0003e	0f 84 ae 01 00
	00		 je	 $LN94@LoadInt_e
  00044	b1 eb		 mov	 cl, -21			; ffffffebH
  00046	32 d1		 xor	 dl, cl
  00048	88 55 e6	 mov	 BYTE PTR __k$[ebp+2], dl
  0004b	8a 50 03	 mov	 dl, BYTE PTR [eax+3]
  0004e	84 d2		 test	 dl, dl
  00050	0f 84 96 01 00
	00		 je	 $LN93@LoadInt_e
  00056	80 f2 ea	 xor	 dl, -22			; ffffffeaH
  00059	88 55 e7	 mov	 BYTE PTR __k$[ebp+3], dl
  0005c	8a 50 04	 mov	 dl, BYTE PTR [eax+4]
  0005f	84 d2		 test	 dl, dl
  00061	0f 84 7f 01 00
	00		 je	 $LN92@LoadInt_e
  00067	80 f2 ed	 xor	 dl, -19			; ffffffedH
  0006a	88 55 e8	 mov	 BYTE PTR __k$[ebp+4], dl
  0006d	8a 50 05	 mov	 dl, BYTE PTR [eax+5]
  00070	84 d2		 test	 dl, dl
  00072	0f 84 69 01 00
	00		 je	 $LN91@LoadInt_e
  00078	32 d3		 xor	 dl, bl
  0007a	88 55 e9	 mov	 BYTE PTR __k$[ebp+5], dl
  0007d	8a 50 06	 mov	 dl, BYTE PTR [eax+6]
  00080	84 d2		 test	 dl, dl
  00082	0f 84 54 01 00
	00		 je	 $LN90@LoadInt_e
  00088	32 d1		 xor	 dl, cl
  0008a	88 55 ea	 mov	 BYTE PTR __k$[ebp+6], dl
  0008d	8a 50 07	 mov	 dl, BYTE PTR [eax+7]
  00090	84 d2		 test	 dl, dl
  00092	0f 84 3e 01 00
	00		 je	 $LN89@LoadInt_e
  00098	80 f2 ea	 xor	 dl, -22			; ffffffeaH
  0009b	88 55 eb	 mov	 BYTE PTR __k$[ebp+7], dl
  0009e	8a 50 08	 mov	 dl, BYTE PTR [eax+8]
  000a1	84 d2		 test	 dl, dl
  000a3	0f 84 27 01 00
	00		 je	 $LN88@LoadInt_e
  000a9	80 f2 ed	 xor	 dl, -19			; ffffffedH
  000ac	88 55 ec	 mov	 BYTE PTR __k$[ebp+8], dl
  000af	8a 50 09	 mov	 dl, BYTE PTR [eax+9]
  000b2	84 d2		 test	 dl, dl
  000b4	0f 84 11 01 00
	00		 je	 $LN87@LoadInt_e
  000ba	32 d3		 xor	 dl, bl
  000bc	88 55 ed	 mov	 BYTE PTR __k$[ebp+9], dl
  000bf	8a 50 0a	 mov	 dl, BYTE PTR [eax+10]
  000c2	84 d2		 test	 dl, dl
  000c4	0f 84 fc 00 00
	00		 je	 $LN86@LoadInt_e
  000ca	32 d1		 xor	 dl, cl
  000cc	88 55 ee	 mov	 BYTE PTR __k$[ebp+10], dl
  000cf	8a 50 0b	 mov	 dl, BYTE PTR [eax+11]
  000d2	84 d2		 test	 dl, dl
  000d4	0f 84 e6 00 00
	00		 je	 $LN85@LoadInt_e
  000da	80 f2 ea	 xor	 dl, -22			; ffffffeaH
  000dd	88 55 ef	 mov	 BYTE PTR __k$[ebp+11], dl
  000e0	8a 50 0c	 mov	 dl, BYTE PTR [eax+12]
  000e3	84 d2		 test	 dl, dl
  000e5	0f 84 cf 00 00
	00		 je	 $LN84@LoadInt_e
  000eb	80 f2 ed	 xor	 dl, -19			; ffffffedH
  000ee	88 55 f0	 mov	 BYTE PTR __k$[ebp+12], dl
  000f1	8a 50 0d	 mov	 dl, BYTE PTR [eax+13]
  000f4	84 d2		 test	 dl, dl
  000f6	0f 84 b9 00 00
	00		 je	 $LN83@LoadInt_e
  000fc	32 d3		 xor	 dl, bl
  000fe	88 55 f1	 mov	 BYTE PTR __k$[ebp+13], dl
  00101	8a 50 0e	 mov	 dl, BYTE PTR [eax+14]
  00104	84 d2		 test	 dl, dl
  00106	0f 84 a4 00 00
	00		 je	 $LN82@LoadInt_e
  0010c	32 d1		 xor	 dl, cl
  0010e	88 55 f2	 mov	 BYTE PTR __k$[ebp+14], dl
  00111	8a 50 0f	 mov	 dl, BYTE PTR [eax+15]
  00114	84 d2		 test	 dl, dl
  00116	0f 84 8e 00 00
	00		 je	 $LN81@LoadInt_e
  0011c	80 f2 ea	 xor	 dl, -22			; ffffffeaH
  0011f	88 55 f3	 mov	 BYTE PTR __k$[ebp+15], dl
  00122	8a 50 10	 mov	 dl, BYTE PTR [eax+16]
  00125	84 d2		 test	 dl, dl
  00127	74 7b		 je	 SHORT $LN80@LoadInt_e
  00129	80 f2 ed	 xor	 dl, -19			; ffffffedH
  0012c	88 55 f4	 mov	 BYTE PTR __k$[ebp+16], dl
  0012f	8a 50 11	 mov	 dl, BYTE PTR [eax+17]
  00132	84 d2		 test	 dl, dl
  00134	74 69		 je	 SHORT $LN79@LoadInt_e
  00136	32 d3		 xor	 dl, bl
  00138	88 55 f5	 mov	 BYTE PTR __k$[ebp+17], dl
  0013b	8a 50 12	 mov	 dl, BYTE PTR [eax+18]
  0013e	84 d2		 test	 dl, dl
  00140	74 58		 je	 SHORT $LN78@LoadInt_e
  00142	32 d1		 xor	 dl, cl
  00144	80 78 13 00	 cmp	 BYTE PTR [eax+19], 0
  00148	88 55 f6	 mov	 BYTE PTR __k$[ebp+18], dl
  0014b	0f 84 b1 00 00
	00		 je	 $LN1@LoadInt_e
  00151	8a 50 14	 mov	 dl, BYTE PTR [eax+20]
  00154	84 d2		 test	 dl, dl
  00156	74 3c		 je	 SHORT $LN76@LoadInt_e
  00158	80 f2 ed	 xor	 dl, -19			; ffffffedH
  0015b	88 55 f8	 mov	 BYTE PTR __k$[ebp+20], dl
  0015e	8a 50 15	 mov	 dl, BYTE PTR [eax+21]
  00161	84 d2		 test	 dl, dl
  00163	74 2a		 je	 SHORT $LN75@LoadInt_e
  00165	32 d3		 xor	 dl, bl
  00167	88 55 f9	 mov	 BYTE PTR __k$[ebp+21], dl
  0016a	8a 50 16	 mov	 dl, BYTE PTR [eax+22]
  0016d	84 d2		 test	 dl, dl
  0016f	74 19		 je	 SHORT $LN74@LoadInt_e
  00171	8a 40 17	 mov	 al, BYTE PTR [eax+23]
  00174	32 d1		 xor	 dl, cl
  00176	88 55 fa	 mov	 BYTE PTR __k$[ebp+22], dl
  00179	84 c0		 test	 al, al
  0017b	74 07		 je	 SHORT $LN73@LoadInt_e
  0017d	34 ea		 xor	 al, -22			; ffffffeaH
  0017f	88 45 fb	 mov	 BYTE PTR __k$[ebp+23], al
  00182	eb 7e		 jmp	 SHORT $LN1@LoadInt_e
$LN73@LoadInt_e:
  00184	c6 45 fb ea	 mov	 BYTE PTR __k$[ebp+23], -22 ; ffffffeaH
  00188	eb 78		 jmp	 SHORT $LN1@LoadInt_e
$LN74@LoadInt_e:
  0018a	88 4d fa	 mov	 BYTE PTR __k$[ebp+22], cl
  0018d	eb 73		 jmp	 SHORT $LN1@LoadInt_e
$LN75@LoadInt_e:
  0018f	88 5d f9	 mov	 BYTE PTR __k$[ebp+21], bl
  00192	eb 6e		 jmp	 SHORT $LN1@LoadInt_e
$LN76@LoadInt_e:
  00194	c6 45 f8 ed	 mov	 BYTE PTR __k$[ebp+20], -19 ; ffffffedH
  00198	eb 68		 jmp	 SHORT $LN1@LoadInt_e
$LN78@LoadInt_e:
  0019a	88 4d f6	 mov	 BYTE PTR __k$[ebp+18], cl
  0019d	eb 63		 jmp	 SHORT $LN1@LoadInt_e
$LN79@LoadInt_e:
  0019f	88 5d f5	 mov	 BYTE PTR __k$[ebp+17], bl
  001a2	eb 5e		 jmp	 SHORT $LN1@LoadInt_e
$LN80@LoadInt_e:
  001a4	c6 45 f4 ed	 mov	 BYTE PTR __k$[ebp+16], -19 ; ffffffedH
  001a8	eb 58		 jmp	 SHORT $LN1@LoadInt_e
$LN81@LoadInt_e:
  001aa	c6 45 f3 ea	 mov	 BYTE PTR __k$[ebp+15], -22 ; ffffffeaH
  001ae	eb 52		 jmp	 SHORT $LN1@LoadInt_e
$LN82@LoadInt_e:
  001b0	88 4d f2	 mov	 BYTE PTR __k$[ebp+14], cl
  001b3	eb 4d		 jmp	 SHORT $LN1@LoadInt_e
$LN83@LoadInt_e:
  001b5	88 5d f1	 mov	 BYTE PTR __k$[ebp+13], bl
  001b8	eb 48		 jmp	 SHORT $LN1@LoadInt_e
$LN84@LoadInt_e:
  001ba	c6 45 f0 ed	 mov	 BYTE PTR __k$[ebp+12], -19 ; ffffffedH
  001be	eb 42		 jmp	 SHORT $LN1@LoadInt_e
$LN85@LoadInt_e:
  001c0	c6 45 ef ea	 mov	 BYTE PTR __k$[ebp+11], -22 ; ffffffeaH
  001c4	eb 3c		 jmp	 SHORT $LN1@LoadInt_e
$LN86@LoadInt_e:
  001c6	88 4d ee	 mov	 BYTE PTR __k$[ebp+10], cl
  001c9	eb 37		 jmp	 SHORT $LN1@LoadInt_e
$LN87@LoadInt_e:
  001cb	88 5d ed	 mov	 BYTE PTR __k$[ebp+9], bl
  001ce	eb 32		 jmp	 SHORT $LN1@LoadInt_e
$LN88@LoadInt_e:
  001d0	c6 45 ec ed	 mov	 BYTE PTR __k$[ebp+8], -19 ; ffffffedH
  001d4	eb 2c		 jmp	 SHORT $LN1@LoadInt_e
$LN89@LoadInt_e:
  001d6	c6 45 eb ea	 mov	 BYTE PTR __k$[ebp+7], -22 ; ffffffeaH
  001da	eb 26		 jmp	 SHORT $LN1@LoadInt_e
$LN90@LoadInt_e:
  001dc	88 4d ea	 mov	 BYTE PTR __k$[ebp+6], cl
  001df	eb 21		 jmp	 SHORT $LN1@LoadInt_e
$LN91@LoadInt_e:
  001e1	88 5d e9	 mov	 BYTE PTR __k$[ebp+5], bl
  001e4	eb 1c		 jmp	 SHORT $LN1@LoadInt_e
$LN92@LoadInt_e:
  001e6	c6 45 e8 ed	 mov	 BYTE PTR __k$[ebp+4], -19 ; ffffffedH
  001ea	eb 16		 jmp	 SHORT $LN1@LoadInt_e
$LN93@LoadInt_e:
  001ec	c6 45 e7 ea	 mov	 BYTE PTR __k$[ebp+3], -22 ; ffffffeaH
  001f0	eb 10		 jmp	 SHORT $LN1@LoadInt_e
$LN94@LoadInt_e:
  001f2	c6 45 e6 eb	 mov	 BYTE PTR __k$[ebp+2], -21 ; ffffffebH
  001f6	eb 0a		 jmp	 SHORT $LN1@LoadInt_e
$LN95@LoadInt_e:
  001f8	c6 45 e5 ec	 mov	 BYTE PTR __k$[ebp+1], -20 ; ffffffecH
  001fc	eb 04		 jmp	 SHORT $LN1@LoadInt_e
$LN96@LoadInt_e:
  001fe	c6 45 e4 ed	 mov	 BYTE PTR __k$[ebp], -19	; ffffffedH
$LN1@LoadInt_e:
  00202	6a 04		 push	 4
  00204	8d 45 e4	 lea	 eax, DWORD PTR __k$[ebp]
  00207	c6 45 f7 00	 mov	 BYTE PTR __k$[ebp+19], 0
  0020b	5a		 pop	 edx
$LL104@LoadInt_e:
  0020c	81 30 ed ec eb
	ea		 xor	 DWORD PTR [eax], -353637139 ; eaebecedH
  00212	83 c0 04	 add	 eax, 4
  00215	4a		 dec	 edx
  00216	75 f4		 jne	 SHORT $LL104@LoadInt_e
  00218	6a 10		 push	 16			; 00000010H
  0021a	58		 pop	 eax
$LL101@LoadInt_e:
  0021b	8b c8		 mov	 ecx, eax
  0021d	81 e1 03 00 00
	80		 and	 ecx, -2147483645	; 80000003H
  00223	79 05		 jns	 SHORT $LN111@LoadInt_e
  00225	49		 dec	 ecx
  00226	83 c9 fc	 or	 ecx, -4			; fffffffcH
  00229	41		 inc	 ecx
$LN111@LoadInt_e:
  0022a	b2 ed		 mov	 dl, -19			; ffffffedH
  0022c	2a d1		 sub	 dl, cl
  0022e	30 54 05 e4	 xor	 BYTE PTR __k$[ebp+eax], dl
  00232	40		 inc	 eax
  00233	83 f8 13	 cmp	 eax, 19			; 00000013H
  00236	7c e3		 jl	 SHORT $LL101@LoadInt_e

; 120  : 		return LoadInt(_k, i);

  00238	ff 75 0c	 push	 DWORD PTR _i$[ebp]
  0023b	8d 45 e4	 lea	 eax, DWORD PTR __k$[ebp]
  0023e	50		 push	 eax
  0023f	8b ce		 mov	 ecx, esi
  00241	ff 15 00 00 00
	00		 call	 DWORD PTR __imp_?LoadInt@ioINILoader@@QAEHPBDH@Z

; 121  : 	}

  00247	8b 4d fc	 mov	 ecx, DWORD PTR __$ArrayPad$[ebp]
  0024a	5e		 pop	 esi
  0024b	33 cd		 xor	 ecx, ebp
  0024d	5b		 pop	 ebx
  0024e	e8 00 00 00 00	 call	 @__security_check_cookie@4
  00253	c9		 leave
  00254	c2 08 00	 ret	 8
??$LoadInt_e@$0BE@@ioINILoader@@QAEHAAY0BE@$$CBDH@Z ENDP ; ioINILoader::LoadInt_e<20>
_TEXT	ENDS
PUBLIC	__$ArrayPad$
PUBLIC	??$LoadFloat_e@$0BD@@ioINILoader@@QAEMAAY0BD@$$CBDM@Z ; ioINILoader::LoadFloat_e<19>
; Function compile flags: /Ogsp
;	COMDAT ??$LoadFloat_e@$0BD@@ioINILoader@@QAEMAAY0BD@$$CBDM@Z
_TEXT	SEGMENT
__k$ = -28						; size = 19
__$ArrayPad$ = -4					; size = 4
_k$ = 8							; size = 4
_f$ = 12						; size = 4
??$LoadFloat_e@$0BD@@ioINILoader@@QAEMAAY0BD@$$CBDM@Z PROC ; ioINILoader::LoadFloat_e<19>, COMDAT
; _this$ = ecx

; 135  : 	{

  00000	55		 push	 ebp
  00001	8b ec		 mov	 ebp, esp
  00003	83 ec 1c	 sub	 esp, 28			; 0000001cH
  00006	a1 00 00 00 00	 mov	 eax, DWORD PTR ___security_cookie
  0000b	33 c5		 xor	 eax, ebp
  0000d	89 45 fc	 mov	 DWORD PTR __$ArrayPad$[ebp], eax
  00010	8b 45 08	 mov	 eax, DWORD PTR _k$[ebp]

; 136  : 		_ENCSTR(k, _k);

  00013	8a 10		 mov	 dl, BYTE PTR [eax]
  00015	56		 push	 esi
  00016	8b f1		 mov	 esi, ecx
  00018	84 d2		 test	 dl, dl
  0001a	0f 84 cf 01 00
	00		 je	 $LN96@LoadFloat_@2
  00020	80 f2 ed	 xor	 dl, -19			; ffffffedH
  00023	88 55 e4	 mov	 BYTE PTR __k$[ebp], dl
  00026	8a 50 01	 mov	 dl, BYTE PTR [eax+1]
  00029	84 d2		 test	 dl, dl
  0002b	0f 84 b8 01 00
	00		 je	 $LN95@LoadFloat_@2
  00031	b1 ec		 mov	 cl, -20			; ffffffecH
  00033	32 d1		 xor	 dl, cl
  00035	88 55 e5	 mov	 BYTE PTR __k$[ebp+1], dl
  00038	8a 50 02	 mov	 dl, BYTE PTR [eax+2]
  0003b	84 d2		 test	 dl, dl
  0003d	0f 84 a0 01 00
	00		 je	 $LN94@LoadFloat_@2
  00043	80 f2 eb	 xor	 dl, -21			; ffffffebH
  00046	88 55 e6	 mov	 BYTE PTR __k$[ebp+2], dl
  00049	8a 50 03	 mov	 dl, BYTE PTR [eax+3]
  0004c	84 d2		 test	 dl, dl
  0004e	0f 84 89 01 00
	00		 je	 $LN93@LoadFloat_@2
  00054	80 f2 ea	 xor	 dl, -22			; ffffffeaH
  00057	88 55 e7	 mov	 BYTE PTR __k$[ebp+3], dl
  0005a	8a 50 04	 mov	 dl, BYTE PTR [eax+4]
  0005d	84 d2		 test	 dl, dl
  0005f	0f 84 72 01 00
	00		 je	 $LN92@LoadFloat_@2
  00065	80 f2 ed	 xor	 dl, -19			; ffffffedH
  00068	88 55 e8	 mov	 BYTE PTR __k$[ebp+4], dl
  0006b	8a 50 05	 mov	 dl, BYTE PTR [eax+5]
  0006e	84 d2		 test	 dl, dl
  00070	0f 84 5c 01 00
	00		 je	 $LN91@LoadFloat_@2
  00076	32 d1		 xor	 dl, cl
  00078	88 55 e9	 mov	 BYTE PTR __k$[ebp+5], dl
  0007b	8a 50 06	 mov	 dl, BYTE PTR [eax+6]
  0007e	84 d2		 test	 dl, dl
  00080	0f 84 46 01 00
	00		 je	 $LN90@LoadFloat_@2
  00086	80 f2 eb	 xor	 dl, -21			; ffffffebH
  00089	88 55 ea	 mov	 BYTE PTR __k$[ebp+6], dl
  0008c	8a 50 07	 mov	 dl, BYTE PTR [eax+7]
  0008f	84 d2		 test	 dl, dl
  00091	0f 84 2f 01 00
	00		 je	 $LN89@LoadFloat_@2
  00097	80 f2 ea	 xor	 dl, -22			; ffffffeaH
  0009a	88 55 eb	 mov	 BYTE PTR __k$[ebp+7], dl
  0009d	8a 50 08	 mov	 dl, BYTE PTR [eax+8]
  000a0	84 d2		 test	 dl, dl
  000a2	0f 84 18 01 00
	00		 je	 $LN88@LoadFloat_@2
  000a8	80 f2 ed	 xor	 dl, -19			; ffffffedH
  000ab	88 55 ec	 mov	 BYTE PTR __k$[ebp+8], dl
  000ae	8a 50 09	 mov	 dl, BYTE PTR [eax+9]
  000b1	84 d2		 test	 dl, dl
  000b3	0f 84 02 01 00
	00		 je	 $LN87@LoadFloat_@2
  000b9	32 d1		 xor	 dl, cl
  000bb	88 55 ed	 mov	 BYTE PTR __k$[ebp+9], dl
  000be	8a 50 0a	 mov	 dl, BYTE PTR [eax+10]
  000c1	84 d2		 test	 dl, dl
  000c3	0f 84 ec 00 00
	00		 je	 $LN86@LoadFloat_@2
  000c9	80 f2 eb	 xor	 dl, -21			; ffffffebH
  000cc	88 55 ee	 mov	 BYTE PTR __k$[ebp+10], dl
  000cf	8a 50 0b	 mov	 dl, BYTE PTR [eax+11]
  000d2	84 d2		 test	 dl, dl
  000d4	0f 84 d5 00 00
	00		 je	 $LN85@LoadFloat_@2
  000da	80 f2 ea	 xor	 dl, -22			; ffffffeaH
  000dd	88 55 ef	 mov	 BYTE PTR __k$[ebp+11], dl
  000e0	8a 50 0c	 mov	 dl, BYTE PTR [eax+12]
  000e3	84 d2		 test	 dl, dl
  000e5	0f 84 be 00 00
	00		 je	 $LN84@LoadFloat_@2
  000eb	80 f2 ed	 xor	 dl, -19			; ffffffedH
  000ee	88 55 f0	 mov	 BYTE PTR __k$[ebp+12], dl
  000f1	8a 50 0d	 mov	 dl, BYTE PTR [eax+13]
  000f4	84 d2		 test	 dl, dl
  000f6	0f 84 a8 00 00
	00		 je	 $LN83@LoadFloat_@2
  000fc	32 d1		 xor	 dl, cl
  000fe	88 55 f1	 mov	 BYTE PTR __k$[ebp+13], dl
  00101	8a 50 0e	 mov	 dl, BYTE PTR [eax+14]
  00104	84 d2		 test	 dl, dl
  00106	0f 84 92 00 00
	00		 je	 $LN82@LoadFloat_@2
  0010c	80 f2 eb	 xor	 dl, -21			; ffffffebH
  0010f	88 55 f2	 mov	 BYTE PTR __k$[ebp+14], dl
  00112	8a 50 0f	 mov	 dl, BYTE PTR [eax+15]
  00115	84 d2		 test	 dl, dl
  00117	74 7f		 je	 SHORT $LN81@LoadFloat_@2
  00119	80 f2 ea	 xor	 dl, -22			; ffffffeaH
  0011c	88 55 f3	 mov	 BYTE PTR __k$[ebp+15], dl
  0011f	8a 50 10	 mov	 dl, BYTE PTR [eax+16]
  00122	84 d2		 test	 dl, dl
  00124	74 6c		 je	 SHORT $LN80@LoadFloat_@2
  00126	80 f2 ed	 xor	 dl, -19			; ffffffedH
  00129	88 55 f4	 mov	 BYTE PTR __k$[ebp+16], dl
  0012c	8a 50 11	 mov	 dl, BYTE PTR [eax+17]
  0012f	84 d2		 test	 dl, dl
  00131	74 5a		 je	 SHORT $LN79@LoadFloat_@2
  00133	32 d1		 xor	 dl, cl
  00135	80 78 12 00	 cmp	 BYTE PTR [eax+18], 0
  00139	88 55 f5	 mov	 BYTE PTR __k$[ebp+17], dl
  0013c	0f 84 b1 00 00
	00		 je	 $LN1@LoadFloat_@2
  00142	8a 50 13	 mov	 dl, BYTE PTR [eax+19]
  00145	84 d2		 test	 dl, dl
  00147	74 3e		 je	 SHORT $LN77@LoadFloat_@2
  00149	80 f2 ea	 xor	 dl, -22			; ffffffeaH
  0014c	88 55 f7	 mov	 BYTE PTR __k$[ebp+19], dl
  0014f	8a 50 14	 mov	 dl, BYTE PTR [eax+20]
  00152	84 d2		 test	 dl, dl
  00154	74 2b		 je	 SHORT $LN76@LoadFloat_@2
  00156	80 f2 ed	 xor	 dl, -19			; ffffffedH
  00159	88 55 f8	 mov	 BYTE PTR __k$[ebp+20], dl
  0015c	8a 50 15	 mov	 dl, BYTE PTR [eax+21]
  0015f	84 d2		 test	 dl, dl
  00161	74 19		 je	 SHORT $LN75@LoadFloat_@2
  00163	8a 40 16	 mov	 al, BYTE PTR [eax+22]
  00166	32 d1		 xor	 dl, cl
  00168	88 55 f9	 mov	 BYTE PTR __k$[ebp+21], dl
  0016b	84 c0		 test	 al, al
  0016d	74 07		 je	 SHORT $LN74@LoadFloat_@2
  0016f	34 eb		 xor	 al, -21			; ffffffebH
  00171	88 45 fa	 mov	 BYTE PTR __k$[ebp+22], al
  00174	eb 7d		 jmp	 SHORT $LN1@LoadFloat_@2
$LN74@LoadFloat_@2:
  00176	c6 45 fa eb	 mov	 BYTE PTR __k$[ebp+22], -21 ; ffffffebH
  0017a	eb 77		 jmp	 SHORT $LN1@LoadFloat_@2
$LN75@LoadFloat_@2:
  0017c	88 4d f9	 mov	 BYTE PTR __k$[ebp+21], cl
  0017f	eb 72		 jmp	 SHORT $LN1@LoadFloat_@2
$LN76@LoadFloat_@2:
  00181	c6 45 f8 ed	 mov	 BYTE PTR __k$[ebp+20], -19 ; ffffffedH
  00185	eb 6c		 jmp	 SHORT $LN1@LoadFloat_@2
$LN77@LoadFloat_@2:
  00187	c6 45 f7 ea	 mov	 BYTE PTR __k$[ebp+19], -22 ; ffffffeaH
  0018b	eb 66		 jmp	 SHORT $LN1@LoadFloat_@2
$LN79@LoadFloat_@2:
  0018d	88 4d f5	 mov	 BYTE PTR __k$[ebp+17], cl
  00190	eb 61		 jmp	 SHORT $LN1@LoadFloat_@2
$LN80@LoadFloat_@2:
  00192	c6 45 f4 ed	 mov	 BYTE PTR __k$[ebp+16], -19 ; ffffffedH
  00196	eb 5b		 jmp	 SHORT $LN1@LoadFloat_@2
$LN81@LoadFloat_@2:
  00198	c6 45 f3 ea	 mov	 BYTE PTR __k$[ebp+15], -22 ; ffffffeaH
  0019c	eb 55		 jmp	 SHORT $LN1@LoadFloat_@2
$LN82@LoadFloat_@2:
  0019e	c6 45 f2 eb	 mov	 BYTE PTR __k$[ebp+14], -21 ; ffffffebH
  001a2	eb 4f		 jmp	 SHORT $LN1@LoadFloat_@2
$LN83@LoadFloat_@2:
  001a4	88 4d f1	 mov	 BYTE PTR __k$[ebp+13], cl
  001a7	eb 4a		 jmp	 SHORT $LN1@LoadFloat_@2
$LN84@LoadFloat_@2:
  001a9	c6 45 f0 ed	 mov	 BYTE PTR __k$[ebp+12], -19 ; ffffffedH
  001ad	eb 44		 jmp	 SHORT $LN1@LoadFloat_@2
$LN85@LoadFloat_@2:
  001af	c6 45 ef ea	 mov	 BYTE PTR __k$[ebp+11], -22 ; ffffffeaH
  001b3	eb 3e		 jmp	 SHORT $LN1@LoadFloat_@2
$LN86@LoadFloat_@2:
  001b5	c6 45 ee eb	 mov	 BYTE PTR __k$[ebp+10], -21 ; ffffffebH
  001b9	eb 38		 jmp	 SHORT $LN1@LoadFloat_@2
$LN87@LoadFloat_@2:
  001bb	88 4d ed	 mov	 BYTE PTR __k$[ebp+9], cl
  001be	eb 33		 jmp	 SHORT $LN1@LoadFloat_@2
$LN88@LoadFloat_@2:
  001c0	c6 45 ec ed	 mov	 BYTE PTR __k$[ebp+8], -19 ; ffffffedH
  001c4	eb 2d		 jmp	 SHORT $LN1@LoadFloat_@2
$LN89@LoadFloat_@2:
  001c6	c6 45 eb ea	 mov	 BYTE PTR __k$[ebp+7], -22 ; ffffffeaH
  001ca	eb 27		 jmp	 SHORT $LN1@LoadFloat_@2
$LN90@LoadFloat_@2:
  001cc	c6 45 ea eb	 mov	 BYTE PTR __k$[ebp+6], -21 ; ffffffebH
  001d0	eb 21		 jmp	 SHORT $LN1@LoadFloat_@2
$LN91@LoadFloat_@2:
  001d2	88 4d e9	 mov	 BYTE PTR __k$[ebp+5], cl
  001d5	eb 1c		 jmp	 SHORT $LN1@LoadFloat_@2
$LN92@LoadFloat_@2:
  001d7	c6 45 e8 ed	 mov	 BYTE PTR __k$[ebp+4], -19 ; ffffffedH
  001db	eb 16		 jmp	 SHORT $LN1@LoadFloat_@2
$LN93@LoadFloat_@2:
  001dd	c6 45 e7 ea	 mov	 BYTE PTR __k$[ebp+3], -22 ; ffffffeaH
  001e1	eb 10		 jmp	 SHORT $LN1@LoadFloat_@2
$LN94@LoadFloat_@2:
  001e3	c6 45 e6 eb	 mov	 BYTE PTR __k$[ebp+2], -21 ; ffffffebH
  001e7	eb 0a		 jmp	 SHORT $LN1@LoadFloat_@2
$LN95@LoadFloat_@2:
  001e9	c6 45 e5 ec	 mov	 BYTE PTR __k$[ebp+1], -20 ; ffffffecH
  001ed	eb 04		 jmp	 SHORT $LN1@LoadFloat_@2
$LN96@LoadFloat_@2:
  001ef	c6 45 e4 ed	 mov	 BYTE PTR __k$[ebp], -19	; ffffffedH
$LN1@LoadFloat_@2:
  001f3	6a 04		 push	 4
  001f5	8d 45 e4	 lea	 eax, DWORD PTR __k$[ebp]
  001f8	c6 45 f6 00	 mov	 BYTE PTR __k$[ebp+18], 0
  001fc	5a		 pop	 edx
$LL104@LoadFloat_@2:
  001fd	81 30 ed ec eb
	ea		 xor	 DWORD PTR [eax], -353637139 ; eaebecedH
  00203	83 c0 04	 add	 eax, 4
  00206	4a		 dec	 edx
  00207	75 f4		 jne	 SHORT $LL104@LoadFloat_@2
  00209	6a 10		 push	 16			; 00000010H
  0020b	58		 pop	 eax
$LL101@LoadFloat_@2:
  0020c	8b c8		 mov	 ecx, eax
  0020e	81 e1 03 00 00
	80		 and	 ecx, -2147483645	; 80000003H
  00214	79 05		 jns	 SHORT $LN111@LoadFloat_@2
  00216	49		 dec	 ecx
  00217	83 c9 fc	 or	 ecx, -4			; fffffffcH
  0021a	41		 inc	 ecx
$LN111@LoadFloat_@2:
  0021b	b2 ed		 mov	 dl, -19			; ffffffedH
  0021d	2a d1		 sub	 dl, cl
  0021f	30 54 05 e4	 xor	 BYTE PTR __k$[ebp+eax], dl
  00223	40		 inc	 eax
  00224	83 f8 12	 cmp	 eax, 18			; 00000012H
  00227	7c e3		 jl	 SHORT $LL101@LoadFloat_@2

; 137  : 		return LoadFloat(_k, f);

  00229	f3 0f 10 45 0c	 movss	 xmm0, DWORD PTR _f$[ebp]
  0022e	51		 push	 ecx
  0022f	8d 45 e4	 lea	 eax, DWORD PTR __k$[ebp]
  00232	f3 0f 11 04 24	 movss	 DWORD PTR [esp], xmm0
  00237	50		 push	 eax
  00238	8b ce		 mov	 ecx, esi
  0023a	ff 15 00 00 00
	00		 call	 DWORD PTR __imp_?LoadFloat@ioINILoader@@QAEMPBDM@Z

; 138  : 	}

  00240	8b 4d fc	 mov	 ecx, DWORD PTR __$ArrayPad$[ebp]
  00243	33 cd		 xor	 ecx, ebp
  00245	5e		 pop	 esi
  00246	e8 00 00 00 00	 call	 @__security_check_cookie@4
  0024b	c9		 leave
  0024c	c2 08 00	 ret	 8
??$LoadFloat_e@$0BD@@ioINILoader@@QAEMAAY0BD@$$CBDM@Z ENDP ; ioINILoader::LoadFloat_e<19>
_TEXT	ENDS
PUBLIC	__$ArrayPad$
PUBLIC	??$LoadFloat_e@$0BI@@ioINILoader@@QAEMAAY0BI@$$CBDM@Z ; ioINILoader::LoadFloat_e<24>
; Function compile flags: /Ogsp
;	COMDAT ??$LoadFloat_e@$0BI@@ioINILoader@@QAEMAAY0BI@$$CBDM@Z
_TEXT	SEGMENT
__k$ = -32						; size = 24
__$ArrayPad$ = -4					; size = 4
_k$ = 8							; size = 4
_f$ = 12						; size = 4
??$LoadFloat_e@$0BI@@ioINILoader@@QAEMAAY0BI@$$CBDM@Z PROC ; ioINILoader::LoadFloat_e<24>, COMDAT
; _this$ = ecx

; 135  : 	{

  00000	55		 push	 ebp
  00001	8b ec		 mov	 ebp, esp
  00003	83 ec 20	 sub	 esp, 32			; 00000020H
  00006	a1 00 00 00 00	 mov	 eax, DWORD PTR ___security_cookie
  0000b	33 c5		 xor	 eax, ebp
  0000d	89 45 fc	 mov	 DWORD PTR __$ArrayPad$[ebp], eax
  00010	8b 45 08	 mov	 eax, DWORD PTR _k$[ebp]

; 136  : 		_ENCSTR(k, _k);

  00013	8a 10		 mov	 dl, BYTE PTR [eax]
  00015	53		 push	 ebx
  00016	56		 push	 esi
  00017	8b f1		 mov	 esi, ecx
  00019	84 d2		 test	 dl, dl
  0001b	0f 84 45 02 00
	00		 je	 $LN96@LoadFloat_@3
  00021	80 f2 ed	 xor	 dl, -19			; ffffffedH
  00024	88 55 e0	 mov	 BYTE PTR __k$[ebp], dl
  00027	8a 50 01	 mov	 dl, BYTE PTR [eax+1]
  0002a	84 d2		 test	 dl, dl
  0002c	0f 84 2e 02 00
	00		 je	 $LN95@LoadFloat_@3
  00032	b3 ec		 mov	 bl, -20			; ffffffecH
  00034	32 d3		 xor	 dl, bl
  00036	88 55 e1	 mov	 BYTE PTR __k$[ebp+1], dl
  00039	8a 50 02	 mov	 dl, BYTE PTR [eax+2]
  0003c	84 d2		 test	 dl, dl
  0003e	0f 84 16 02 00
	00		 je	 $LN94@LoadFloat_@3
  00044	b1 eb		 mov	 cl, -21			; ffffffebH
  00046	32 d1		 xor	 dl, cl
  00048	88 55 e2	 mov	 BYTE PTR __k$[ebp+2], dl
  0004b	8a 50 03	 mov	 dl, BYTE PTR [eax+3]
  0004e	84 d2		 test	 dl, dl
  00050	0f 84 fe 01 00
	00		 je	 $LN93@LoadFloat_@3
  00056	80 f2 ea	 xor	 dl, -22			; ffffffeaH
  00059	88 55 e3	 mov	 BYTE PTR __k$[ebp+3], dl
  0005c	8a 50 04	 mov	 dl, BYTE PTR [eax+4]
  0005f	84 d2		 test	 dl, dl
  00061	0f 84 e7 01 00
	00		 je	 $LN92@LoadFloat_@3
  00067	80 f2 ed	 xor	 dl, -19			; ffffffedH
  0006a	88 55 e4	 mov	 BYTE PTR __k$[ebp+4], dl
  0006d	8a 50 05	 mov	 dl, BYTE PTR [eax+5]
  00070	84 d2		 test	 dl, dl
  00072	0f 84 d1 01 00
	00		 je	 $LN91@LoadFloat_@3
  00078	32 d3		 xor	 dl, bl
  0007a	88 55 e5	 mov	 BYTE PTR __k$[ebp+5], dl
  0007d	8a 50 06	 mov	 dl, BYTE PTR [eax+6]
  00080	84 d2		 test	 dl, dl
  00082	0f 84 bc 01 00
	00		 je	 $LN90@LoadFloat_@3
  00088	32 d1		 xor	 dl, cl
  0008a	88 55 e6	 mov	 BYTE PTR __k$[ebp+6], dl
  0008d	8a 50 07	 mov	 dl, BYTE PTR [eax+7]
  00090	84 d2		 test	 dl, dl
  00092	0f 84 a6 01 00
	00		 je	 $LN89@LoadFloat_@3
  00098	80 f2 ea	 xor	 dl, -22			; ffffffeaH
  0009b	88 55 e7	 mov	 BYTE PTR __k$[ebp+7], dl
  0009e	8a 50 08	 mov	 dl, BYTE PTR [eax+8]
  000a1	84 d2		 test	 dl, dl
  000a3	0f 84 8f 01 00
	00		 je	 $LN88@LoadFloat_@3
  000a9	80 f2 ed	 xor	 dl, -19			; ffffffedH
  000ac	88 55 e8	 mov	 BYTE PTR __k$[ebp+8], dl
  000af	8a 50 09	 mov	 dl, BYTE PTR [eax+9]
  000b2	84 d2		 test	 dl, dl
  000b4	0f 84 79 01 00
	00		 je	 $LN87@LoadFloat_@3
  000ba	32 d3		 xor	 dl, bl
  000bc	88 55 e9	 mov	 BYTE PTR __k$[ebp+9], dl
  000bf	8a 50 0a	 mov	 dl, BYTE PTR [eax+10]
  000c2	84 d2		 test	 dl, dl
  000c4	0f 84 64 01 00
	00		 je	 $LN86@LoadFloat_@3
  000ca	32 d1		 xor	 dl, cl
  000cc	88 55 ea	 mov	 BYTE PTR __k$[ebp+10], dl
  000cf	8a 50 0b	 mov	 dl, BYTE PTR [eax+11]
  000d2	84 d2		 test	 dl, dl
  000d4	0f 84 4e 01 00
	00		 je	 $LN85@LoadFloat_@3
  000da	80 f2 ea	 xor	 dl, -22			; ffffffeaH
  000dd	88 55 eb	 mov	 BYTE PTR __k$[ebp+11], dl
  000e0	8a 50 0c	 mov	 dl, BYTE PTR [eax+12]
  000e3	84 d2		 test	 dl, dl
  000e5	0f 84 37 01 00
	00		 je	 $LN84@LoadFloat_@3
  000eb	80 f2 ed	 xor	 dl, -19			; ffffffedH
  000ee	88 55 ec	 mov	 BYTE PTR __k$[ebp+12], dl
  000f1	8a 50 0d	 mov	 dl, BYTE PTR [eax+13]
  000f4	84 d2		 test	 dl, dl
  000f6	0f 84 21 01 00
	00		 je	 $LN83@LoadFloat_@3
  000fc	32 d3		 xor	 dl, bl
  000fe	88 55 ed	 mov	 BYTE PTR __k$[ebp+13], dl
  00101	8a 50 0e	 mov	 dl, BYTE PTR [eax+14]
  00104	84 d2		 test	 dl, dl
  00106	0f 84 0c 01 00
	00		 je	 $LN82@LoadFloat_@3
  0010c	32 d1		 xor	 dl, cl
  0010e	88 55 ee	 mov	 BYTE PTR __k$[ebp+14], dl
  00111	8a 50 0f	 mov	 dl, BYTE PTR [eax+15]
  00114	84 d2		 test	 dl, dl
  00116	0f 84 f6 00 00
	00		 je	 $LN81@LoadFloat_@3
  0011c	80 f2 ea	 xor	 dl, -22			; ffffffeaH
  0011f	88 55 ef	 mov	 BYTE PTR __k$[ebp+15], dl
  00122	8a 50 10	 mov	 dl, BYTE PTR [eax+16]
  00125	84 d2		 test	 dl, dl
  00127	0f 84 df 00 00
	00		 je	 $LN80@LoadFloat_@3
  0012d	80 f2 ed	 xor	 dl, -19			; ffffffedH
  00130	88 55 f0	 mov	 BYTE PTR __k$[ebp+16], dl
  00133	8a 50 11	 mov	 dl, BYTE PTR [eax+17]
  00136	84 d2		 test	 dl, dl
  00138	0f 84 c9 00 00
	00		 je	 $LN79@LoadFloat_@3
  0013e	32 d3		 xor	 dl, bl
  00140	88 55 f1	 mov	 BYTE PTR __k$[ebp+17], dl
  00143	8a 50 12	 mov	 dl, BYTE PTR [eax+18]
  00146	84 d2		 test	 dl, dl
  00148	0f 84 b4 00 00
	00		 je	 $LN78@LoadFloat_@3
  0014e	32 d1		 xor	 dl, cl
  00150	88 55 f2	 mov	 BYTE PTR __k$[ebp+18], dl
  00153	8a 50 13	 mov	 dl, BYTE PTR [eax+19]
  00156	84 d2		 test	 dl, dl
  00158	0f 84 9e 00 00
	00		 je	 $LN77@LoadFloat_@3
  0015e	80 f2 ea	 xor	 dl, -22			; ffffffeaH
  00161	88 55 f3	 mov	 BYTE PTR __k$[ebp+19], dl
  00164	8a 50 14	 mov	 dl, BYTE PTR [eax+20]
  00167	84 d2		 test	 dl, dl
  00169	0f 84 87 00 00
	00		 je	 $LN76@LoadFloat_@3
  0016f	80 f2 ed	 xor	 dl, -19			; ffffffedH
  00172	88 55 f4	 mov	 BYTE PTR __k$[ebp+20], dl
  00175	8a 50 15	 mov	 dl, BYTE PTR [eax+21]
  00178	84 d2		 test	 dl, dl
  0017a	74 75		 je	 SHORT $LN75@LoadFloat_@3
  0017c	32 d3		 xor	 dl, bl
  0017e	88 55 f5	 mov	 BYTE PTR __k$[ebp+21], dl
  00181	8a 50 16	 mov	 dl, BYTE PTR [eax+22]
  00184	84 d2		 test	 dl, dl
  00186	74 64		 je	 SHORT $LN74@LoadFloat_@3
  00188	32 d1		 xor	 dl, cl
  0018a	80 78 17 00	 cmp	 BYTE PTR [eax+23], 0
  0018e	88 55 f6	 mov	 BYTE PTR __k$[ebp+22], dl
  00191	0f 84 d3 00 00
	00		 je	 $LN1@LoadFloat_@3
  00197	8a 50 18	 mov	 dl, BYTE PTR [eax+24]
  0019a	84 d2		 test	 dl, dl
  0019c	74 48		 je	 SHORT $LN72@LoadFloat_@3
  0019e	80 f2 ed	 xor	 dl, -19			; ffffffedH
  001a1	88 55 f8	 mov	 BYTE PTR __k$[ebp+24], dl
  001a4	8a 50 19	 mov	 dl, BYTE PTR [eax+25]
  001a7	84 d2		 test	 dl, dl
  001a9	74 33		 je	 SHORT $LN71@LoadFloat_@3
  001ab	32 d3		 xor	 dl, bl
  001ad	88 55 f9	 mov	 BYTE PTR __k$[ebp+25], dl
  001b0	8a 50 1a	 mov	 dl, BYTE PTR [eax+26]
  001b3	84 d2		 test	 dl, dl
  001b5	74 1f		 je	 SHORT $LN70@LoadFloat_@3
  001b7	8a 40 1b	 mov	 al, BYTE PTR [eax+27]
  001ba	32 d1		 xor	 dl, cl
  001bc	88 55 fa	 mov	 BYTE PTR __k$[ebp+26], dl
  001bf	84 c0		 test	 al, al
  001c1	74 0a		 je	 SHORT $LN69@LoadFloat_@3
  001c3	34 ea		 xor	 al, -22			; ffffffeaH
  001c5	88 45 fb	 mov	 BYTE PTR __k$[ebp+27], al
  001c8	e9 9d 00 00 00	 jmp	 $LN1@LoadFloat_@3
$LN69@LoadFloat_@3:
  001cd	c6 45 fb ea	 mov	 BYTE PTR __k$[ebp+27], -22 ; ffffffeaH
  001d1	e9 94 00 00 00	 jmp	 $LN1@LoadFloat_@3
$LN70@LoadFloat_@3:
  001d6	88 4d fa	 mov	 BYTE PTR __k$[ebp+26], cl
  001d9	e9 8c 00 00 00	 jmp	 $LN1@LoadFloat_@3
$LN71@LoadFloat_@3:
  001de	88 5d f9	 mov	 BYTE PTR __k$[ebp+25], bl
  001e1	e9 84 00 00 00	 jmp	 $LN1@LoadFloat_@3
$LN72@LoadFloat_@3:
  001e6	c6 45 f8 ed	 mov	 BYTE PTR __k$[ebp+24], -19 ; ffffffedH
  001ea	eb 7e		 jmp	 SHORT $LN1@LoadFloat_@3
$LN74@LoadFloat_@3:
  001ec	88 4d f6	 mov	 BYTE PTR __k$[ebp+22], cl
  001ef	eb 79		 jmp	 SHORT $LN1@LoadFloat_@3
$LN75@LoadFloat_@3:
  001f1	88 5d f5	 mov	 BYTE PTR __k$[ebp+21], bl
  001f4	eb 74		 jmp	 SHORT $LN1@LoadFloat_@3
$LN76@LoadFloat_@3:
  001f6	c6 45 f4 ed	 mov	 BYTE PTR __k$[ebp+20], -19 ; ffffffedH
  001fa	eb 6e		 jmp	 SHORT $LN1@LoadFloat_@3
$LN77@LoadFloat_@3:
  001fc	c6 45 f3 ea	 mov	 BYTE PTR __k$[ebp+19], -22 ; ffffffeaH
  00200	eb 68		 jmp	 SHORT $LN1@LoadFloat_@3
$LN78@LoadFloat_@3:
  00202	88 4d f2	 mov	 BYTE PTR __k$[ebp+18], cl
  00205	eb 63		 jmp	 SHORT $LN1@LoadFloat_@3
$LN79@LoadFloat_@3:
  00207	88 5d f1	 mov	 BYTE PTR __k$[ebp+17], bl
  0020a	eb 5e		 jmp	 SHORT $LN1@LoadFloat_@3
$LN80@LoadFloat_@3:
  0020c	c6 45 f0 ed	 mov	 BYTE PTR __k$[ebp+16], -19 ; ffffffedH
  00210	eb 58		 jmp	 SHORT $LN1@LoadFloat_@3
$LN81@LoadFloat_@3:
  00212	c6 45 ef ea	 mov	 BYTE PTR __k$[ebp+15], -22 ; ffffffeaH
  00216	eb 52		 jmp	 SHORT $LN1@LoadFloat_@3
$LN82@LoadFloat_@3:
  00218	88 4d ee	 mov	 BYTE PTR __k$[ebp+14], cl
  0021b	eb 4d		 jmp	 SHORT $LN1@LoadFloat_@3
$LN83@LoadFloat_@3:
  0021d	88 5d ed	 mov	 BYTE PTR __k$[ebp+13], bl
  00220	eb 48		 jmp	 SHORT $LN1@LoadFloat_@3
$LN84@LoadFloat_@3:
  00222	c6 45 ec ed	 mov	 BYTE PTR __k$[ebp+12], -19 ; ffffffedH
  00226	eb 42		 jmp	 SHORT $LN1@LoadFloat_@3
$LN85@LoadFloat_@3:
  00228	c6 45 eb ea	 mov	 BYTE PTR __k$[ebp+11], -22 ; ffffffeaH
  0022c	eb 3c		 jmp	 SHORT $LN1@LoadFloat_@3
$LN86@LoadFloat_@3:
  0022e	88 4d ea	 mov	 BYTE PTR __k$[ebp+10], cl
  00231	eb 37		 jmp	 SHORT $LN1@LoadFloat_@3
$LN87@LoadFloat_@3:
  00233	88 5d e9	 mov	 BYTE PTR __k$[ebp+9], bl
  00236	eb 32		 jmp	 SHORT $LN1@LoadFloat_@3
$LN88@LoadFloat_@3:
  00238	c6 45 e8 ed	 mov	 BYTE PTR __k$[ebp+8], -19 ; ffffffedH
  0023c	eb 2c		 jmp	 SHORT $LN1@LoadFloat_@3
$LN89@LoadFloat_@3:
  0023e	c6 45 e7 ea	 mov	 BYTE PTR __k$[ebp+7], -22 ; ffffffeaH
  00242	eb 26		 jmp	 SHORT $LN1@LoadFloat_@3
$LN90@LoadFloat_@3:
  00244	88 4d e6	 mov	 BYTE PTR __k$[ebp+6], cl
  00247	eb 21		 jmp	 SHORT $LN1@LoadFloat_@3
$LN91@LoadFloat_@3:
  00249	88 5d e5	 mov	 BYTE PTR __k$[ebp+5], bl
  0024c	eb 1c		 jmp	 SHORT $LN1@LoadFloat_@3
$LN92@LoadFloat_@3:
  0024e	c6 45 e4 ed	 mov	 BYTE PTR __k$[ebp+4], -19 ; ffffffedH
  00252	eb 16		 jmp	 SHORT $LN1@LoadFloat_@3
$LN93@LoadFloat_@3:
  00254	c6 45 e3 ea	 mov	 BYTE PTR __k$[ebp+3], -22 ; ffffffeaH
  00258	eb 10		 jmp	 SHORT $LN1@LoadFloat_@3
$LN94@LoadFloat_@3:
  0025a	c6 45 e2 eb	 mov	 BYTE PTR __k$[ebp+2], -21 ; ffffffebH
  0025e	eb 0a		 jmp	 SHORT $LN1@LoadFloat_@3
$LN95@LoadFloat_@3:
  00260	c6 45 e1 ec	 mov	 BYTE PTR __k$[ebp+1], -20 ; ffffffecH
  00264	eb 04		 jmp	 SHORT $LN1@LoadFloat_@3
$LN96@LoadFloat_@3:
  00266	c6 45 e0 ed	 mov	 BYTE PTR __k$[ebp], -19	; ffffffedH
$LN1@LoadFloat_@3:
  0026a	6a 05		 push	 5
  0026c	8d 45 e0	 lea	 eax, DWORD PTR __k$[ebp]
  0026f	c6 45 f7 00	 mov	 BYTE PTR __k$[ebp+23], 0
  00273	5a		 pop	 edx
$LL104@LoadFloat_@3:
  00274	81 30 ed ec eb
	ea		 xor	 DWORD PTR [eax], -353637139 ; eaebecedH
  0027a	83 c0 04	 add	 eax, 4
  0027d	4a		 dec	 edx
  0027e	75 f4		 jne	 SHORT $LL104@LoadFloat_@3
  00280	6a 14		 push	 20			; 00000014H
  00282	58		 pop	 eax
$LL101@LoadFloat_@3:
  00283	8b c8		 mov	 ecx, eax
  00285	81 e1 03 00 00
	80		 and	 ecx, -2147483645	; 80000003H
  0028b	79 05		 jns	 SHORT $LN111@LoadFloat_@3
  0028d	49		 dec	 ecx
  0028e	83 c9 fc	 or	 ecx, -4			; fffffffcH
  00291	41		 inc	 ecx
$LN111@LoadFloat_@3:
  00292	b2 ed		 mov	 dl, -19			; ffffffedH
  00294	2a d1		 sub	 dl, cl
  00296	30 54 05 e0	 xor	 BYTE PTR __k$[ebp+eax], dl
  0029a	40		 inc	 eax
  0029b	83 f8 17	 cmp	 eax, 23			; 00000017H
  0029e	7c e3		 jl	 SHORT $LL101@LoadFloat_@3

; 137  : 		return LoadFloat(_k, f);

  002a0	f3 0f 10 45 0c	 movss	 xmm0, DWORD PTR _f$[ebp]
  002a5	51		 push	 ecx
  002a6	8d 45 e0	 lea	 eax, DWORD PTR __k$[ebp]
  002a9	f3 0f 11 04 24	 movss	 DWORD PTR [esp], xmm0
  002ae	50		 push	 eax
  002af	8b ce		 mov	 ecx, esi
  002b1	ff 15 00 00 00
	00		 call	 DWORD PTR __imp_?LoadFloat@ioINILoader@@QAEMPBDM@Z

; 138  : 	}

  002b7	8b 4d fc	 mov	 ecx, DWORD PTR __$ArrayPad$[ebp]
  002ba	5e		 pop	 esi
  002bb	33 cd		 xor	 ecx, ebp
  002bd	5b		 pop	 ebx
  002be	e8 00 00 00 00	 call	 @__security_check_cookie@4
  002c3	c9		 leave
  002c4	c2 08 00	 ret	 8
??$LoadFloat_e@$0BI@@ioINILoader@@QAEMAAY0BI@$$CBDM@Z ENDP ; ioINILoader::LoadFloat_e<24>
_TEXT	ENDS
PUBLIC	__$ArrayPad$
PUBLIC	??$LoadFloat_e@$0BE@@ioINILoader@@QAEMAAY0BE@$$CBDM@Z ; ioINILoader::LoadFloat_e<20>
; Function compile flags: /Ogsp
;	COMDAT ??$LoadFloat_e@$0BE@@ioINILoader@@QAEMAAY0BE@$$CBDM@Z
_TEXT	SEGMENT
__k$ = -28						; size = 20
__$ArrayPad$ = -4					; size = 4
_k$ = 8							; size = 4
_f$ = 12						; size = 4
??$LoadFloat_e@$0BE@@ioINILoader@@QAEMAAY0BE@$$CBDM@Z PROC ; ioINILoader::LoadFloat_e<20>, COMDAT
; _this$ = ecx

; 135  : 	{

  00000	55		 push	 ebp
  00001	8b ec		 mov	 ebp, esp
  00003	83 ec 1c	 sub	 esp, 28			; 0000001cH
  00006	a1 00 00 00 00	 mov	 eax, DWORD PTR ___security_cookie
  0000b	33 c5		 xor	 eax, ebp
  0000d	89 45 fc	 mov	 DWORD PTR __$ArrayPad$[ebp], eax
  00010	8b 45 08	 mov	 eax, DWORD PTR _k$[ebp]

; 136  : 		_ENCSTR(k, _k);

  00013	8a 10		 mov	 dl, BYTE PTR [eax]
  00015	53		 push	 ebx
  00016	56		 push	 esi
  00017	8b f1		 mov	 esi, ecx
  00019	84 d2		 test	 dl, dl
  0001b	0f 84 dd 01 00
	00		 je	 $LN96@LoadFloat_@4
  00021	80 f2 ed	 xor	 dl, -19			; ffffffedH
  00024	88 55 e4	 mov	 BYTE PTR __k$[ebp], dl
  00027	8a 50 01	 mov	 dl, BYTE PTR [eax+1]
  0002a	84 d2		 test	 dl, dl
  0002c	0f 84 c6 01 00
	00		 je	 $LN95@LoadFloat_@4
  00032	b3 ec		 mov	 bl, -20			; ffffffecH
  00034	32 d3		 xor	 dl, bl
  00036	88 55 e5	 mov	 BYTE PTR __k$[ebp+1], dl
  00039	8a 50 02	 mov	 dl, BYTE PTR [eax+2]
  0003c	84 d2		 test	 dl, dl
  0003e	0f 84 ae 01 00
	00		 je	 $LN94@LoadFloat_@4
  00044	b1 eb		 mov	 cl, -21			; ffffffebH
  00046	32 d1		 xor	 dl, cl
  00048	88 55 e6	 mov	 BYTE PTR __k$[ebp+2], dl
  0004b	8a 50 03	 mov	 dl, BYTE PTR [eax+3]
  0004e	84 d2		 test	 dl, dl
  00050	0f 84 96 01 00
	00		 je	 $LN93@LoadFloat_@4
  00056	80 f2 ea	 xor	 dl, -22			; ffffffeaH
  00059	88 55 e7	 mov	 BYTE PTR __k$[ebp+3], dl
  0005c	8a 50 04	 mov	 dl, BYTE PTR [eax+4]
  0005f	84 d2		 test	 dl, dl
  00061	0f 84 7f 01 00
	00		 je	 $LN92@LoadFloat_@4
  00067	80 f2 ed	 xor	 dl, -19			; ffffffedH
  0006a	88 55 e8	 mov	 BYTE PTR __k$[ebp+4], dl
  0006d	8a 50 05	 mov	 dl, BYTE PTR [eax+5]
  00070	84 d2		 test	 dl, dl
  00072	0f 84 69 01 00
	00		 je	 $LN91@LoadFloat_@4
  00078	32 d3		 xor	 dl, bl
  0007a	88 55 e9	 mov	 BYTE PTR __k$[ebp+5], dl
  0007d	8a 50 06	 mov	 dl, BYTE PTR [eax+6]
  00080	84 d2		 test	 dl, dl
  00082	0f 84 54 01 00
	00		 je	 $LN90@LoadFloat_@4
  00088	32 d1		 xor	 dl, cl
  0008a	88 55 ea	 mov	 BYTE PTR __k$[ebp+6], dl
  0008d	8a 50 07	 mov	 dl, BYTE PTR [eax+7]
  00090	84 d2		 test	 dl, dl
  00092	0f 84 3e 01 00
	00		 je	 $LN89@LoadFloat_@4
  00098	80 f2 ea	 xor	 dl, -22			; ffffffeaH
  0009b	88 55 eb	 mov	 BYTE PTR __k$[ebp+7], dl
  0009e	8a 50 08	 mov	 dl, BYTE PTR [eax+8]
  000a1	84 d2		 test	 dl, dl
  000a3	0f 84 27 01 00
	00		 je	 $LN88@LoadFloat_@4
  000a9	80 f2 ed	 xor	 dl, -19			; ffffffedH
  000ac	88 55 ec	 mov	 BYTE PTR __k$[ebp+8], dl
  000af	8a 50 09	 mov	 dl, BYTE PTR [eax+9]
  000b2	84 d2		 test	 dl, dl
  000b4	0f 84 11 01 00
	00		 je	 $LN87@LoadFloat_@4
  000ba	32 d3		 xor	 dl, bl
  000bc	88 55 ed	 mov	 BYTE PTR __k$[ebp+9], dl
  000bf	8a 50 0a	 mov	 dl, BYTE PTR [eax+10]
  000c2	84 d2		 test	 dl, dl
  000c4	0f 84 fc 00 00
	00		 je	 $LN86@LoadFloat_@4
  000ca	32 d1		 xor	 dl, cl
  000cc	88 55 ee	 mov	 BYTE PTR __k$[ebp+10], dl
  000cf	8a 50 0b	 mov	 dl, BYTE PTR [eax+11]
  000d2	84 d2		 test	 dl, dl
  000d4	0f 84 e6 00 00
	00		 je	 $LN85@LoadFloat_@4
  000da	80 f2 ea	 xor	 dl, -22			; ffffffeaH
  000dd	88 55 ef	 mov	 BYTE PTR __k$[ebp+11], dl
  000e0	8a 50 0c	 mov	 dl, BYTE PTR [eax+12]
  000e3	84 d2		 test	 dl, dl
  000e5	0f 84 cf 00 00
	00		 je	 $LN84@LoadFloat_@4
  000eb	80 f2 ed	 xor	 dl, -19			; ffffffedH
  000ee	88 55 f0	 mov	 BYTE PTR __k$[ebp+12], dl
  000f1	8a 50 0d	 mov	 dl, BYTE PTR [eax+13]
  000f4	84 d2		 test	 dl, dl
  000f6	0f 84 b9 00 00
	00		 je	 $LN83@LoadFloat_@4
  000fc	32 d3		 xor	 dl, bl
  000fe	88 55 f1	 mov	 BYTE PTR __k$[ebp+13], dl
  00101	8a 50 0e	 mov	 dl, BYTE PTR [eax+14]
  00104	84 d2		 test	 dl, dl
  00106	0f 84 a4 00 00
	00		 je	 $LN82@LoadFloat_@4
  0010c	32 d1		 xor	 dl, cl
  0010e	88 55 f2	 mov	 BYTE PTR __k$[ebp+14], dl
  00111	8a 50 0f	 mov	 dl, BYTE PTR [eax+15]
  00114	84 d2		 test	 dl, dl
  00116	0f 84 8e 00 00
	00		 je	 $LN81@LoadFloat_@4
  0011c	80 f2 ea	 xor	 dl, -22			; ffffffeaH
  0011f	88 55 f3	 mov	 BYTE PTR __k$[ebp+15], dl
  00122	8a 50 10	 mov	 dl, BYTE PTR [eax+16]
  00125	84 d2		 test	 dl, dl
  00127	74 7b		 je	 SHORT $LN80@LoadFloat_@4
  00129	80 f2 ed	 xor	 dl, -19			; ffffffedH
  0012c	88 55 f4	 mov	 BYTE PTR __k$[ebp+16], dl
  0012f	8a 50 11	 mov	 dl, BYTE PTR [eax+17]
  00132	84 d2		 test	 dl, dl
  00134	74 69		 je	 SHORT $LN79@LoadFloat_@4
  00136	32 d3		 xor	 dl, bl
  00138	88 55 f5	 mov	 BYTE PTR __k$[ebp+17], dl
  0013b	8a 50 12	 mov	 dl, BYTE PTR [eax+18]
  0013e	84 d2		 test	 dl, dl
  00140	74 58		 je	 SHORT $LN78@LoadFloat_@4
  00142	32 d1		 xor	 dl, cl
  00144	80 78 13 00	 cmp	 BYTE PTR [eax+19], 0
  00148	88 55 f6	 mov	 BYTE PTR __k$[ebp+18], dl
  0014b	0f 84 b1 00 00
	00		 je	 $LN1@LoadFloat_@4
  00151	8a 50 14	 mov	 dl, BYTE PTR [eax+20]
  00154	84 d2		 test	 dl, dl
  00156	74 3c		 je	 SHORT $LN76@LoadFloat_@4
  00158	80 f2 ed	 xor	 dl, -19			; ffffffedH
  0015b	88 55 f8	 mov	 BYTE PTR __k$[ebp+20], dl
  0015e	8a 50 15	 mov	 dl, BYTE PTR [eax+21]
  00161	84 d2		 test	 dl, dl
  00163	74 2a		 je	 SHORT $LN75@LoadFloat_@4
  00165	32 d3		 xor	 dl, bl
  00167	88 55 f9	 mov	 BYTE PTR __k$[ebp+21], dl
  0016a	8a 50 16	 mov	 dl, BYTE PTR [eax+22]
  0016d	84 d2		 test	 dl, dl
  0016f	74 19		 je	 SHORT $LN74@LoadFloat_@4
  00171	8a 40 17	 mov	 al, BYTE PTR [eax+23]
  00174	32 d1		 xor	 dl, cl
  00176	88 55 fa	 mov	 BYTE PTR __k$[ebp+22], dl
  00179	84 c0		 test	 al, al
  0017b	74 07		 je	 SHORT $LN73@LoadFloat_@4
  0017d	34 ea		 xor	 al, -22			; ffffffeaH
  0017f	88 45 fb	 mov	 BYTE PTR __k$[ebp+23], al
  00182	eb 7e		 jmp	 SHORT $LN1@LoadFloat_@4
$LN73@LoadFloat_@4:
  00184	c6 45 fb ea	 mov	 BYTE PTR __k$[ebp+23], -22 ; ffffffeaH
  00188	eb 78		 jmp	 SHORT $LN1@LoadFloat_@4
$LN74@LoadFloat_@4:
  0018a	88 4d fa	 mov	 BYTE PTR __k$[ebp+22], cl
  0018d	eb 73		 jmp	 SHORT $LN1@LoadFloat_@4
$LN75@LoadFloat_@4:
  0018f	88 5d f9	 mov	 BYTE PTR __k$[ebp+21], bl
  00192	eb 6e		 jmp	 SHORT $LN1@LoadFloat_@4
$LN76@LoadFloat_@4:
  00194	c6 45 f8 ed	 mov	 BYTE PTR __k$[ebp+20], -19 ; ffffffedH
  00198	eb 68		 jmp	 SHORT $LN1@LoadFloat_@4
$LN78@LoadFloat_@4:
  0019a	88 4d f6	 mov	 BYTE PTR __k$[ebp+18], cl
  0019d	eb 63		 jmp	 SHORT $LN1@LoadFloat_@4
$LN79@LoadFloat_@4:
  0019f	88 5d f5	 mov	 BYTE PTR __k$[ebp+17], bl
  001a2	eb 5e		 jmp	 SHORT $LN1@LoadFloat_@4
$LN80@LoadFloat_@4:
  001a4	c6 45 f4 ed	 mov	 BYTE PTR __k$[ebp+16], -19 ; ffffffedH
  001a8	eb 58		 jmp	 SHORT $LN1@LoadFloat_@4
$LN81@LoadFloat_@4:
  001aa	c6 45 f3 ea	 mov	 BYTE PTR __k$[ebp+15], -22 ; ffffffeaH
  001ae	eb 52		 jmp	 SHORT $LN1@LoadFloat_@4
$LN82@LoadFloat_@4:
  001b0	88 4d f2	 mov	 BYTE PTR __k$[ebp+14], cl
  001b3	eb 4d		 jmp	 SHORT $LN1@LoadFloat_@4
$LN83@LoadFloat_@4:
  001b5	88 5d f1	 mov	 BYTE PTR __k$[ebp+13], bl
  001b8	eb 48		 jmp	 SHORT $LN1@LoadFloat_@4
$LN84@LoadFloat_@4:
  001ba	c6 45 f0 ed	 mov	 BYTE PTR __k$[ebp+12], -19 ; ffffffedH
  001be	eb 42		 jmp	 SHORT $LN1@LoadFloat_@4
$LN85@LoadFloat_@4:
  001c0	c6 45 ef ea	 mov	 BYTE PTR __k$[ebp+11], -22 ; ffffffeaH
  001c4	eb 3c		 jmp	 SHORT $LN1@LoadFloat_@4
$LN86@LoadFloat_@4:
  001c6	88 4d ee	 mov	 BYTE PTR __k$[ebp+10], cl
  001c9	eb 37		 jmp	 SHORT $LN1@LoadFloat_@4
$LN87@LoadFloat_@4:
  001cb	88 5d ed	 mov	 BYTE PTR __k$[ebp+9], bl
  001ce	eb 32		 jmp	 SHORT $LN1@LoadFloat_@4
$LN88@LoadFloat_@4:
  001d0	c6 45 ec ed	 mov	 BYTE PTR __k$[ebp+8], -19 ; ffffffedH
  001d4	eb 2c		 jmp	 SHORT $LN1@LoadFloat_@4
$LN89@LoadFloat_@4:
  001d6	c6 45 eb ea	 mov	 BYTE PTR __k$[ebp+7], -22 ; ffffffeaH
  001da	eb 26		 jmp	 SHORT $LN1@LoadFloat_@4
$LN90@LoadFloat_@4:
  001dc	88 4d ea	 mov	 BYTE PTR __k$[ebp+6], cl
  001df	eb 21		 jmp	 SHORT $LN1@LoadFloat_@4
$LN91@LoadFloat_@4:
  001e1	88 5d e9	 mov	 BYTE PTR __k$[ebp+5], bl
  001e4	eb 1c		 jmp	 SHORT $LN1@LoadFloat_@4
$LN92@LoadFloat_@4:
  001e6	c6 45 e8 ed	 mov	 BYTE PTR __k$[ebp+4], -19 ; ffffffedH
  001ea	eb 16		 jmp	 SHORT $LN1@LoadFloat_@4
$LN93@LoadFloat_@4:
  001ec	c6 45 e7 ea	 mov	 BYTE PTR __k$[ebp+3], -22 ; ffffffeaH
  001f0	eb 10		 jmp	 SHORT $LN1@LoadFloat_@4
$LN94@LoadFloat_@4:
  001f2	c6 45 e6 eb	 mov	 BYTE PTR __k$[ebp+2], -21 ; ffffffebH
  001f6	eb 0a		 jmp	 SHORT $LN1@LoadFloat_@4
$LN95@LoadFloat_@4:
  001f8	c6 45 e5 ec	 mov	 BYTE PTR __k$[ebp+1], -20 ; ffffffecH
  001fc	eb 04		 jmp	 SHORT $LN1@LoadFloat_@4
$LN96@LoadFloat_@4:
  001fe	c6 45 e4 ed	 mov	 BYTE PTR __k$[ebp], -19	; ffffffedH
$LN1@LoadFloat_@4:
  00202	6a 04		 push	 4
  00204	8d 45 e4	 lea	 eax, DWORD PTR __k$[ebp]
  00207	c6 45 f7 00	 mov	 BYTE PTR __k$[ebp+19], 0
  0020b	5a		 pop	 edx
$LL104@LoadFloat_@4:
  0020c	81 30 ed ec eb
	ea		 xor	 DWORD PTR [eax], -353637139 ; eaebecedH
  00212	83 c0 04	 add	 eax, 4
  00215	4a		 dec	 edx
  00216	75 f4		 jne	 SHORT $LL104@LoadFloat_@4
  00218	6a 10		 push	 16			; 00000010H
  0021a	58		 pop	 eax
$LL101@LoadFloat_@4:
  0021b	8b c8		 mov	 ecx, eax
  0021d	81 e1 03 00 00
	80		 and	 ecx, -2147483645	; 80000003H
  00223	79 05		 jns	 SHORT $LN111@LoadFloat_@4
  00225	49		 dec	 ecx
  00226	83 c9 fc	 or	 ecx, -4			; fffffffcH
  00229	41		 inc	 ecx
$LN111@LoadFloat_@4:
  0022a	b2 ed		 mov	 dl, -19			; ffffffedH
  0022c	2a d1		 sub	 dl, cl
  0022e	30 54 05 e4	 xor	 BYTE PTR __k$[ebp+eax], dl
  00232	40		 inc	 eax
  00233	83 f8 13	 cmp	 eax, 19			; 00000013H
  00236	7c e3		 jl	 SHORT $LL101@LoadFloat_@4

; 137  : 		return LoadFloat(_k, f);

  00238	f3 0f 10 45 0c	 movss	 xmm0, DWORD PTR _f$[ebp]
  0023d	51		 push	 ecx
  0023e	8d 45 e4	 lea	 eax, DWORD PTR __k$[ebp]
  00241	f3 0f 11 04 24	 movss	 DWORD PTR [esp], xmm0
  00246	50		 push	 eax
  00247	8b ce		 mov	 ecx, esi
  00249	ff 15 00 00 00
	00		 call	 DWORD PTR __imp_?LoadFloat@ioINILoader@@QAEMPBDM@Z

; 138  : 	}

  0024f	8b 4d fc	 mov	 ecx, DWORD PTR __$ArrayPad$[ebp]
  00252	5e		 pop	 esi
  00253	33 cd		 xor	 ecx, ebp
  00255	5b		 pop	 ebx
  00256	e8 00 00 00 00	 call	 @__security_check_cookie@4
  0025b	c9		 leave
  0025c	c2 08 00	 ret	 8
??$LoadFloat_e@$0BE@@ioINILoader@@QAEMAAY0BE@$$CBDM@Z ENDP ; ioINILoader::LoadFloat_e<20>
_TEXT	ENDS
PUBLIC	_this$GSCopy$
PUBLIC	__$ArrayPad$
PUBLIC	??$LoadString_e@$0N@@ioINILoader@@QAEXAAY0N@$$CBDAAY00$$CBDPADH@Z ; ioINILoader::LoadString_e<13>
; Function compile flags: /Ogsp
;	COMDAT ??$LoadString_e@$0N@@ioINILoader@@QAEXAAY0N@$$CBDAAY00$$CBDPADH@Z
_TEXT	SEGMENT
_this$GSCopy$ = -28					; size = 4
__k$ = -24						; size = 13
__$ArrayPad$ = -4					; size = 4
_k$ = 8							; size = 4
_d$ = 12						; size = 4
_b$ = 16						; size = 4
_i$ = 20						; size = 4
??$LoadString_e@$0N@@ioINILoader@@QAEXAAY0N@$$CBDAAY00$$CBDPADH@Z PROC ; ioINILoader::LoadString_e<13>, COMDAT
; _this$ = ecx

; 161  : 	{

  00000	55		 push	 ebp
  00001	8b ec		 mov	 ebp, esp
  00003	83 ec 1c	 sub	 esp, 28			; 0000001cH
  00006	a1 00 00 00 00	 mov	 eax, DWORD PTR ___security_cookie
  0000b	33 c5		 xor	 eax, ebp
  0000d	89 45 fc	 mov	 DWORD PTR __$ArrayPad$[ebp], eax
  00010	8b 45 08	 mov	 eax, DWORD PTR _k$[ebp]

; 162  : 		_ENCSTR(k, _k);

  00013	8a 10		 mov	 dl, BYTE PTR [eax]
  00015	56		 push	 esi
  00016	8b 75 0c	 mov	 esi, DWORD PTR _d$[ebp]
  00019	57		 push	 edi
  0001a	8b 7d 10	 mov	 edi, DWORD PTR _b$[ebp]
  0001d	89 4d e4	 mov	 DWORD PTR _this$GSCopy$[ebp], ecx
  00020	84 d2		 test	 dl, dl
  00022	0f 84 4d 01 00
	00		 je	 $LN96@LoadString@2
  00028	80 f2 ed	 xor	 dl, -19			; ffffffedH
  0002b	88 55 e8	 mov	 BYTE PTR __k$[ebp], dl
  0002e	8a 50 01	 mov	 dl, BYTE PTR [eax+1]
  00031	84 d2		 test	 dl, dl
  00033	0f 84 36 01 00
	00		 je	 $LN95@LoadString@2
  00039	b1 ec		 mov	 cl, -20			; ffffffecH
  0003b	32 d1		 xor	 dl, cl
  0003d	88 55 e9	 mov	 BYTE PTR __k$[ebp+1], dl
  00040	8a 50 02	 mov	 dl, BYTE PTR [eax+2]
  00043	84 d2		 test	 dl, dl
  00045	0f 84 1e 01 00
	00		 je	 $LN94@LoadString@2
  0004b	80 f2 eb	 xor	 dl, -21			; ffffffebH
  0004e	88 55 ea	 mov	 BYTE PTR __k$[ebp+2], dl
  00051	8a 50 03	 mov	 dl, BYTE PTR [eax+3]
  00054	84 d2		 test	 dl, dl
  00056	0f 84 07 01 00
	00		 je	 $LN93@LoadString@2
  0005c	80 f2 ea	 xor	 dl, -22			; ffffffeaH
  0005f	88 55 eb	 mov	 BYTE PTR __k$[ebp+3], dl
  00062	8a 50 04	 mov	 dl, BYTE PTR [eax+4]
  00065	84 d2		 test	 dl, dl
  00067	0f 84 f0 00 00
	00		 je	 $LN92@LoadString@2
  0006d	80 f2 ed	 xor	 dl, -19			; ffffffedH
  00070	88 55 ec	 mov	 BYTE PTR __k$[ebp+4], dl
  00073	8a 50 05	 mov	 dl, BYTE PTR [eax+5]
  00076	84 d2		 test	 dl, dl
  00078	0f 84 da 00 00
	00		 je	 $LN91@LoadString@2
  0007e	32 d1		 xor	 dl, cl
  00080	88 55 ed	 mov	 BYTE PTR __k$[ebp+5], dl
  00083	8a 50 06	 mov	 dl, BYTE PTR [eax+6]
  00086	84 d2		 test	 dl, dl
  00088	0f 84 c4 00 00
	00		 je	 $LN90@LoadString@2
  0008e	80 f2 eb	 xor	 dl, -21			; ffffffebH
  00091	88 55 ee	 mov	 BYTE PTR __k$[ebp+6], dl
  00094	8a 50 07	 mov	 dl, BYTE PTR [eax+7]
  00097	84 d2		 test	 dl, dl
  00099	0f 84 ad 00 00
	00		 je	 $LN89@LoadString@2
  0009f	80 f2 ea	 xor	 dl, -22			; ffffffeaH
  000a2	88 55 ef	 mov	 BYTE PTR __k$[ebp+7], dl
  000a5	8a 50 08	 mov	 dl, BYTE PTR [eax+8]
  000a8	84 d2		 test	 dl, dl
  000aa	0f 84 96 00 00
	00		 je	 $LN88@LoadString@2
  000b0	80 f2 ed	 xor	 dl, -19			; ffffffedH
  000b3	88 55 f0	 mov	 BYTE PTR __k$[ebp+8], dl
  000b6	8a 50 09	 mov	 dl, BYTE PTR [eax+9]
  000b9	84 d2		 test	 dl, dl
  000bb	0f 84 80 00 00
	00		 je	 $LN87@LoadString@2
  000c1	32 d1		 xor	 dl, cl
  000c3	88 55 f1	 mov	 BYTE PTR __k$[ebp+9], dl
  000c6	8a 50 0a	 mov	 dl, BYTE PTR [eax+10]
  000c9	84 d2		 test	 dl, dl
  000cb	74 6e		 je	 SHORT $LN86@LoadString@2
  000cd	80 f2 eb	 xor	 dl, -21			; ffffffebH
  000d0	88 55 f2	 mov	 BYTE PTR __k$[ebp+10], dl
  000d3	8a 50 0b	 mov	 dl, BYTE PTR [eax+11]
  000d6	84 d2		 test	 dl, dl
  000d8	74 5b		 je	 SHORT $LN85@LoadString@2
  000da	80 f2 ea	 xor	 dl, -22			; ffffffeaH
  000dd	80 78 0c 00	 cmp	 BYTE PTR [eax+12], 0
  000e1	88 55 f3	 mov	 BYTE PTR __k$[ebp+11], dl
  000e4	0f 84 8f 00 00
	00		 je	 $LN111@LoadString@2
  000ea	8a 50 0d	 mov	 dl, BYTE PTR [eax+13]
  000ed	84 d2		 test	 dl, dl
  000ef	74 3f		 je	 SHORT $LN83@LoadString@2
  000f1	32 d1		 xor	 dl, cl
  000f3	88 55 f5	 mov	 BYTE PTR __k$[ebp+13], dl
  000f6	8a 50 0e	 mov	 dl, BYTE PTR [eax+14]
  000f9	84 d2		 test	 dl, dl
  000fb	74 2d		 je	 SHORT $LN82@LoadString@2
  000fd	80 f2 eb	 xor	 dl, -21			; ffffffebH
  00100	88 55 f6	 mov	 BYTE PTR __k$[ebp+14], dl
  00103	8a 50 0f	 mov	 dl, BYTE PTR [eax+15]
  00106	84 d2		 test	 dl, dl
  00108	74 1a		 je	 SHORT $LN81@LoadString@2
  0010a	8a 40 10	 mov	 al, BYTE PTR [eax+16]
  0010d	80 f2 ea	 xor	 dl, -22			; ffffffeaH
  00110	88 55 f7	 mov	 BYTE PTR __k$[ebp+15], dl
  00113	84 c0		 test	 al, al
  00115	74 07		 je	 SHORT $LN80@LoadString@2
  00117	34 ed		 xor	 al, -19			; ffffffedH
  00119	88 45 f8	 mov	 BYTE PTR __k$[ebp+16], al
  0011c	eb 5b		 jmp	 SHORT $LN111@LoadString@2
$LN80@LoadString@2:
  0011e	c6 45 f8 ed	 mov	 BYTE PTR __k$[ebp+16], -19 ; ffffffedH
  00122	eb 55		 jmp	 SHORT $LN111@LoadString@2
$LN81@LoadString@2:
  00124	c6 45 f7 ea	 mov	 BYTE PTR __k$[ebp+15], -22 ; ffffffeaH
  00128	eb 4f		 jmp	 SHORT $LN111@LoadString@2
$LN82@LoadString@2:
  0012a	c6 45 f6 eb	 mov	 BYTE PTR __k$[ebp+14], -21 ; ffffffebH
  0012e	eb 49		 jmp	 SHORT $LN111@LoadString@2
$LN83@LoadString@2:
  00130	88 4d f5	 mov	 BYTE PTR __k$[ebp+13], cl
  00133	eb 44		 jmp	 SHORT $LN111@LoadString@2
$LN85@LoadString@2:
  00135	c6 45 f3 ea	 mov	 BYTE PTR __k$[ebp+11], -22 ; ffffffeaH
  00139	eb 3e		 jmp	 SHORT $LN111@LoadString@2
$LN86@LoadString@2:
  0013b	c6 45 f2 eb	 mov	 BYTE PTR __k$[ebp+10], -21 ; ffffffebH
  0013f	eb 38		 jmp	 SHORT $LN111@LoadString@2
$LN87@LoadString@2:
  00141	88 4d f1	 mov	 BYTE PTR __k$[ebp+9], cl
  00144	eb 33		 jmp	 SHORT $LN111@LoadString@2
$LN88@LoadString@2:
  00146	c6 45 f0 ed	 mov	 BYTE PTR __k$[ebp+8], -19 ; ffffffedH
  0014a	eb 2d		 jmp	 SHORT $LN111@LoadString@2
$LN89@LoadString@2:
  0014c	c6 45 ef ea	 mov	 BYTE PTR __k$[ebp+7], -22 ; ffffffeaH
  00150	eb 27		 jmp	 SHORT $LN111@LoadString@2
$LN90@LoadString@2:
  00152	c6 45 ee eb	 mov	 BYTE PTR __k$[ebp+6], -21 ; ffffffebH
  00156	eb 21		 jmp	 SHORT $LN111@LoadString@2
$LN91@LoadString@2:
  00158	88 4d ed	 mov	 BYTE PTR __k$[ebp+5], cl
  0015b	eb 1c		 jmp	 SHORT $LN111@LoadString@2
$LN92@LoadString@2:
  0015d	c6 45 ec ed	 mov	 BYTE PTR __k$[ebp+4], -19 ; ffffffedH
  00161	eb 16		 jmp	 SHORT $LN111@LoadString@2
$LN93@LoadString@2:
  00163	c6 45 eb ea	 mov	 BYTE PTR __k$[ebp+3], -22 ; ffffffeaH
  00167	eb 10		 jmp	 SHORT $LN111@LoadString@2
$LN94@LoadString@2:
  00169	c6 45 ea eb	 mov	 BYTE PTR __k$[ebp+2], -21 ; ffffffebH
  0016d	eb 0a		 jmp	 SHORT $LN111@LoadString@2
$LN95@LoadString@2:
  0016f	c6 45 e9 ec	 mov	 BYTE PTR __k$[ebp+1], -20 ; ffffffecH
  00173	eb 04		 jmp	 SHORT $LN111@LoadString@2
$LN96@LoadString@2:
  00175	c6 45 e8 ed	 mov	 BYTE PTR __k$[ebp], -19	; ffffffedH
$LN111@LoadString@2:
  00179	6a 03		 push	 3
  0017b	8d 45 e8	 lea	 eax, DWORD PTR __k$[ebp]
  0017e	c6 45 f4 00	 mov	 BYTE PTR __k$[ebp+12], 0
  00182	5a		 pop	 edx
$LL104@LoadString@2:
  00183	81 30 ed ec eb
	ea		 xor	 DWORD PTR [eax], -353637139 ; eaebecedH
  00189	83 c0 04	 add	 eax, 4
  0018c	4a		 dec	 edx
  0018d	75 f4		 jne	 SHORT $LL104@LoadString@2

; 163  : 		LoadString(_k, d, b, i);

  0018f	ff 75 14	 push	 DWORD PTR _i$[ebp]
  00192	8b 4d e4	 mov	 ecx, DWORD PTR _this$GSCopy$[ebp]
  00195	57		 push	 edi
  00196	56		 push	 esi
  00197	8d 45 e8	 lea	 eax, DWORD PTR __k$[ebp]
  0019a	50		 push	 eax
  0019b	ff 15 00 00 00
	00		 call	 DWORD PTR __imp_?LoadStringA@ioINILoader@@QAEXPBD0PADH@Z

; 164  : 	}

  001a1	8b 4d fc	 mov	 ecx, DWORD PTR __$ArrayPad$[ebp]
  001a4	5f		 pop	 edi
  001a5	33 cd		 xor	 ecx, ebp
  001a7	5e		 pop	 esi
  001a8	e8 00 00 00 00	 call	 @__security_check_cookie@4
  001ad	c9		 leave
  001ae	c2 10 00	 ret	 16			; 00000010H
??$LoadString_e@$0N@@ioINILoader@@QAEXAAY0N@$$CBDAAY00$$CBDPADH@Z ENDP ; ioINILoader::LoadString_e<13>
_TEXT	ENDS
PUBLIC	_this$GSCopy$
PUBLIC	__$ArrayPad$
PUBLIC	??$LoadString_e@$0BA@@ioINILoader@@QAEXAAY0BA@$$CBDAAY00$$CBDPADH@Z ; ioINILoader::LoadString_e<16>
; Function compile flags: /Ogsp
;	COMDAT ??$LoadString_e@$0BA@@ioINILoader@@QAEXAAY0BA@$$CBDAAY00$$CBDPADH@Z
_TEXT	SEGMENT
_this$GSCopy$ = -28					; size = 4
__k$ = -24						; size = 16
__$ArrayPad$ = -4					; size = 4
_k$ = 8							; size = 4
_d$ = 12						; size = 4
_b$ = 16						; size = 4
_i$ = 20						; size = 4
??$LoadString_e@$0BA@@ioINILoader@@QAEXAAY0BA@$$CBDAAY00$$CBDPADH@Z PROC ; ioINILoader::LoadString_e<16>, COMDAT
; _this$ = ecx

; 161  : 	{

  00000	55		 push	 ebp
  00001	8b ec		 mov	 ebp, esp
  00003	83 ec 1c	 sub	 esp, 28			; 0000001cH
  00006	a1 00 00 00 00	 mov	 eax, DWORD PTR ___security_cookie
  0000b	33 c5		 xor	 eax, ebp
  0000d	89 45 fc	 mov	 DWORD PTR __$ArrayPad$[ebp], eax
  00010	8b 45 08	 mov	 eax, DWORD PTR _k$[ebp]

; 162  : 		_ENCSTR(k, _k);

  00013	8a 10		 mov	 dl, BYTE PTR [eax]
  00015	56		 push	 esi
  00016	8b 75 0c	 mov	 esi, DWORD PTR _d$[ebp]
  00019	57		 push	 edi
  0001a	8b 7d 10	 mov	 edi, DWORD PTR _b$[ebp]
  0001d	89 4d e4	 mov	 DWORD PTR _this$GSCopy$[ebp], ecx
  00020	84 d2		 test	 dl, dl
  00022	0f 84 8c 01 00
	00		 je	 $LN96@LoadString@3
  00028	80 f2 ed	 xor	 dl, -19			; ffffffedH
  0002b	88 55 e8	 mov	 BYTE PTR __k$[ebp], dl
  0002e	8a 50 01	 mov	 dl, BYTE PTR [eax+1]
  00031	84 d2		 test	 dl, dl
  00033	0f 84 75 01 00
	00		 je	 $LN95@LoadString@3
  00039	80 f2 ec	 xor	 dl, -20			; ffffffecH
  0003c	88 55 e9	 mov	 BYTE PTR __k$[ebp+1], dl
  0003f	8a 50 02	 mov	 dl, BYTE PTR [eax+2]
  00042	84 d2		 test	 dl, dl
  00044	0f 84 5e 01 00
	00		 je	 $LN94@LoadString@3
  0004a	b1 eb		 mov	 cl, -21			; ffffffebH
  0004c	32 d1		 xor	 dl, cl
  0004e	88 55 ea	 mov	 BYTE PTR __k$[ebp+2], dl
  00051	8a 50 03	 mov	 dl, BYTE PTR [eax+3]
  00054	84 d2		 test	 dl, dl
  00056	0f 84 46 01 00
	00		 je	 $LN93@LoadString@3
  0005c	80 f2 ea	 xor	 dl, -22			; ffffffeaH
  0005f	88 55 eb	 mov	 BYTE PTR __k$[ebp+3], dl
  00062	8a 50 04	 mov	 dl, BYTE PTR [eax+4]
  00065	84 d2		 test	 dl, dl
  00067	0f 84 2f 01 00
	00		 je	 $LN92@LoadString@3
  0006d	80 f2 ed	 xor	 dl, -19			; ffffffedH
  00070	88 55 ec	 mov	 BYTE PTR __k$[ebp+4], dl
  00073	8a 50 05	 mov	 dl, BYTE PTR [eax+5]
  00076	84 d2		 test	 dl, dl
  00078	0f 84 18 01 00
	00		 je	 $LN91@LoadString@3
  0007e	80 f2 ec	 xor	 dl, -20			; ffffffecH
  00081	88 55 ed	 mov	 BYTE PTR __k$[ebp+5], dl
  00084	8a 50 06	 mov	 dl, BYTE PTR [eax+6]
  00087	84 d2		 test	 dl, dl
  00089	0f 84 02 01 00
	00		 je	 $LN90@LoadString@3
  0008f	32 d1		 xor	 dl, cl
  00091	88 55 ee	 mov	 BYTE PTR __k$[ebp+6], dl
  00094	8a 50 07	 mov	 dl, BYTE PTR [eax+7]
  00097	84 d2		 test	 dl, dl
  00099	0f 84 ec 00 00
	00		 je	 $LN89@LoadString@3
  0009f	80 f2 ea	 xor	 dl, -22			; ffffffeaH
  000a2	88 55 ef	 mov	 BYTE PTR __k$[ebp+7], dl
  000a5	8a 50 08	 mov	 dl, BYTE PTR [eax+8]
  000a8	84 d2		 test	 dl, dl
  000aa	0f 84 d5 00 00
	00		 je	 $LN88@LoadString@3
  000b0	80 f2 ed	 xor	 dl, -19			; ffffffedH
  000b3	88 55 f0	 mov	 BYTE PTR __k$[ebp+8], dl
  000b6	8a 50 09	 mov	 dl, BYTE PTR [eax+9]
  000b9	84 d2		 test	 dl, dl
  000bb	0f 84 be 00 00
	00		 je	 $LN87@LoadString@3
  000c1	80 f2 ec	 xor	 dl, -20			; ffffffecH
  000c4	88 55 f1	 mov	 BYTE PTR __k$[ebp+9], dl
  000c7	8a 50 0a	 mov	 dl, BYTE PTR [eax+10]
  000ca	84 d2		 test	 dl, dl
  000cc	0f 84 a8 00 00
	00		 je	 $LN86@LoadString@3
  000d2	32 d1		 xor	 dl, cl
  000d4	88 55 f2	 mov	 BYTE PTR __k$[ebp+10], dl
  000d7	8a 50 0b	 mov	 dl, BYTE PTR [eax+11]
  000da	84 d2		 test	 dl, dl
  000dc	0f 84 92 00 00
	00		 je	 $LN85@LoadString@3
  000e2	80 f2 ea	 xor	 dl, -22			; ffffffeaH
  000e5	88 55 f3	 mov	 BYTE PTR __k$[ebp+11], dl
  000e8	8a 50 0c	 mov	 dl, BYTE PTR [eax+12]
  000eb	84 d2		 test	 dl, dl
  000ed	74 7f		 je	 SHORT $LN84@LoadString@3
  000ef	80 f2 ed	 xor	 dl, -19			; ffffffedH
  000f2	88 55 f4	 mov	 BYTE PTR __k$[ebp+12], dl
  000f5	8a 50 0d	 mov	 dl, BYTE PTR [eax+13]
  000f8	84 d2		 test	 dl, dl
  000fa	74 6c		 je	 SHORT $LN83@LoadString@3
  000fc	80 f2 ec	 xor	 dl, -20			; ffffffecH
  000ff	88 55 f5	 mov	 BYTE PTR __k$[ebp+13], dl
  00102	8a 50 0e	 mov	 dl, BYTE PTR [eax+14]
  00105	84 d2		 test	 dl, dl
  00107	74 5a		 je	 SHORT $LN82@LoadString@3
  00109	32 d1		 xor	 dl, cl
  0010b	80 78 0f 00	 cmp	 BYTE PTR [eax+15], 0
  0010f	88 55 f6	 mov	 BYTE PTR __k$[ebp+14], dl
  00112	0f 84 a0 00 00
	00		 je	 $LN111@LoadString@3
  00118	8a 50 10	 mov	 dl, BYTE PTR [eax+16]
  0011b	84 d2		 test	 dl, dl
  0011d	74 3e		 je	 SHORT $LN80@LoadString@3
  0011f	80 f2 ed	 xor	 dl, -19			; ffffffedH
  00122	88 55 f8	 mov	 BYTE PTR __k$[ebp+16], dl
  00125	8a 50 11	 mov	 dl, BYTE PTR [eax+17]
  00128	84 d2		 test	 dl, dl
  0012a	74 2b		 je	 SHORT $LN79@LoadString@3
  0012c	80 f2 ec	 xor	 dl, -20			; ffffffecH
  0012f	88 55 f9	 mov	 BYTE PTR __k$[ebp+17], dl
  00132	8a 50 12	 mov	 dl, BYTE PTR [eax+18]
  00135	84 d2		 test	 dl, dl
  00137	74 19		 je	 SHORT $LN78@LoadString@3
  00139	8a 40 13	 mov	 al, BYTE PTR [eax+19]
  0013c	32 d1		 xor	 dl, cl
  0013e	88 55 fa	 mov	 BYTE PTR __k$[ebp+18], dl
  00141	84 c0		 test	 al, al
  00143	74 07		 je	 SHORT $LN77@LoadString@3
  00145	34 ea		 xor	 al, -22			; ffffffeaH
  00147	88 45 fb	 mov	 BYTE PTR __k$[ebp+19], al
  0014a	eb 6c		 jmp	 SHORT $LN111@LoadString@3
$LN77@LoadString@3:
  0014c	c6 45 fb ea	 mov	 BYTE PTR __k$[ebp+19], -22 ; ffffffeaH
  00150	eb 66		 jmp	 SHORT $LN111@LoadString@3
$LN78@LoadString@3:
  00152	88 4d fa	 mov	 BYTE PTR __k$[ebp+18], cl
  00155	eb 61		 jmp	 SHORT $LN111@LoadString@3
$LN79@LoadString@3:
  00157	c6 45 f9 ec	 mov	 BYTE PTR __k$[ebp+17], -20 ; ffffffecH
  0015b	eb 5b		 jmp	 SHORT $LN111@LoadString@3
$LN80@LoadString@3:
  0015d	c6 45 f8 ed	 mov	 BYTE PTR __k$[ebp+16], -19 ; ffffffedH
  00161	eb 55		 jmp	 SHORT $LN111@LoadString@3
$LN82@LoadString@3:
  00163	88 4d f6	 mov	 BYTE PTR __k$[ebp+14], cl
  00166	eb 50		 jmp	 SHORT $LN111@LoadString@3
$LN83@LoadString@3:
  00168	c6 45 f5 ec	 mov	 BYTE PTR __k$[ebp+13], -20 ; ffffffecH
  0016c	eb 4a		 jmp	 SHORT $LN111@LoadString@3
$LN84@LoadString@3:
  0016e	c6 45 f4 ed	 mov	 BYTE PTR __k$[ebp+12], -19 ; ffffffedH
  00172	eb 44		 jmp	 SHORT $LN111@LoadString@3
$LN85@LoadString@3:
  00174	c6 45 f3 ea	 mov	 BYTE PTR __k$[ebp+11], -22 ; ffffffeaH
  00178	eb 3e		 jmp	 SHORT $LN111@LoadString@3
$LN86@LoadString@3:
  0017a	88 4d f2	 mov	 BYTE PTR __k$[ebp+10], cl
  0017d	eb 39		 jmp	 SHORT $LN111@LoadString@3
$LN87@LoadString@3:
  0017f	c6 45 f1 ec	 mov	 BYTE PTR __k$[ebp+9], -20 ; ffffffecH
  00183	eb 33		 jmp	 SHORT $LN111@LoadString@3
$LN88@LoadString@3:
  00185	c6 45 f0 ed	 mov	 BYTE PTR __k$[ebp+8], -19 ; ffffffedH
  00189	eb 2d		 jmp	 SHORT $LN111@LoadString@3
$LN89@LoadString@3:
  0018b	c6 45 ef ea	 mov	 BYTE PTR __k$[ebp+7], -22 ; ffffffeaH
  0018f	eb 27		 jmp	 SHORT $LN111@LoadString@3
$LN90@LoadString@3:
  00191	88 4d ee	 mov	 BYTE PTR __k$[ebp+6], cl
  00194	eb 22		 jmp	 SHORT $LN111@LoadString@3
$LN91@LoadString@3:
  00196	c6 45 ed ec	 mov	 BYTE PTR __k$[ebp+5], -20 ; ffffffecH
  0019a	eb 1c		 jmp	 SHORT $LN111@LoadString@3
$LN92@LoadString@3:
  0019c	c6 45 ec ed	 mov	 BYTE PTR __k$[ebp+4], -19 ; ffffffedH
  001a0	eb 16		 jmp	 SHORT $LN111@LoadString@3
$LN93@LoadString@3:
  001a2	c6 45 eb ea	 mov	 BYTE PTR __k$[ebp+3], -22 ; ffffffeaH
  001a6	eb 10		 jmp	 SHORT $LN111@LoadString@3
$LN94@LoadString@3:
  001a8	c6 45 ea eb	 mov	 BYTE PTR __k$[ebp+2], -21 ; ffffffebH
  001ac	eb 0a		 jmp	 SHORT $LN111@LoadString@3
$LN95@LoadString@3:
  001ae	c6 45 e9 ec	 mov	 BYTE PTR __k$[ebp+1], -20 ; ffffffecH
  001b2	eb 04		 jmp	 SHORT $LN111@LoadString@3
$LN96@LoadString@3:
  001b4	c6 45 e8 ed	 mov	 BYTE PTR __k$[ebp], -19	; ffffffedH
$LN111@LoadString@3:
  001b8	6a 03		 push	 3
  001ba	8d 45 e8	 lea	 eax, DWORD PTR __k$[ebp]
  001bd	c6 45 f7 00	 mov	 BYTE PTR __k$[ebp+15], 0
  001c1	5a		 pop	 edx
$LL104@LoadString@3:
  001c2	81 30 ed ec eb
	ea		 xor	 DWORD PTR [eax], -353637139 ; eaebecedH
  001c8	83 c0 04	 add	 eax, 4
  001cb	4a		 dec	 edx
  001cc	75 f4		 jne	 SHORT $LL104@LoadString@3
  001ce	6a 0c		 push	 12			; 0000000cH
  001d0	58		 pop	 eax
$LL101@LoadString@3:
  001d1	8b c8		 mov	 ecx, eax
  001d3	81 e1 03 00 00
	80		 and	 ecx, -2147483645	; 80000003H
  001d9	79 05		 jns	 SHORT $LN112@LoadString@3
  001db	49		 dec	 ecx
  001dc	83 c9 fc	 or	 ecx, -4			; fffffffcH
  001df	41		 inc	 ecx
$LN112@LoadString@3:
  001e0	b2 ed		 mov	 dl, -19			; ffffffedH
  001e2	2a d1		 sub	 dl, cl
  001e4	30 54 05 e8	 xor	 BYTE PTR __k$[ebp+eax], dl
  001e8	40		 inc	 eax
  001e9	83 f8 0f	 cmp	 eax, 15			; 0000000fH
  001ec	7c e3		 jl	 SHORT $LL101@LoadString@3

; 163  : 		LoadString(_k, d, b, i);

  001ee	ff 75 14	 push	 DWORD PTR _i$[ebp]
  001f1	8b 4d e4	 mov	 ecx, DWORD PTR _this$GSCopy$[ebp]
  001f4	57		 push	 edi
  001f5	56		 push	 esi
  001f6	8d 45 e8	 lea	 eax, DWORD PTR __k$[ebp]
  001f9	50		 push	 eax
  001fa	ff 15 00 00 00
	00		 call	 DWORD PTR __imp_?LoadStringA@ioINILoader@@QAEXPBD0PADH@Z

; 164  : 	}

  00200	8b 4d fc	 mov	 ecx, DWORD PTR __$ArrayPad$[ebp]
  00203	5f		 pop	 edi
  00204	33 cd		 xor	 ecx, ebp
  00206	5e		 pop	 esi
  00207	e8 00 00 00 00	 call	 @__security_check_cookie@4
  0020c	c9		 leave
  0020d	c2 10 00	 ret	 16			; 00000010H
??$LoadString_e@$0BA@@ioINILoader@@QAEXAAY0BA@$$CBDAAY00$$CBDPADH@Z ENDP ; ioINILoader::LoadString_e<16>
_TEXT	ENDS
PUBLIC	_this$GSCopy$
PUBLIC	__$ArrayPad$
PUBLIC	??$LoadString_e@$0P@@ioINILoader@@QAEXAAY0P@$$CBDAAY00$$CBDPADH@Z ; ioINILoader::LoadString_e<15>
; Function compile flags: /Ogsp
;	COMDAT ??$LoadString_e@$0P@@ioINILoader@@QAEXAAY0P@$$CBDAAY00$$CBDPADH@Z
_TEXT	SEGMENT
_this$GSCopy$ = -28					; size = 4
__k$ = -24						; size = 15
__$ArrayPad$ = -4					; size = 4
_k$ = 8							; size = 4
_d$ = 12						; size = 4
_b$ = 16						; size = 4
_i$ = 20						; size = 4
??$LoadString_e@$0P@@ioINILoader@@QAEXAAY0P@$$CBDAAY00$$CBDPADH@Z PROC ; ioINILoader::LoadString_e<15>, COMDAT
; _this$ = ecx

; 161  : 	{

  00000	55		 push	 ebp
  00001	8b ec		 mov	 ebp, esp
  00003	83 ec 1c	 sub	 esp, 28			; 0000001cH
  00006	a1 00 00 00 00	 mov	 eax, DWORD PTR ___security_cookie
  0000b	33 c5		 xor	 eax, ebp
  0000d	89 45 fc	 mov	 DWORD PTR __$ArrayPad$[ebp], eax
  00010	8b 45 08	 mov	 eax, DWORD PTR _k$[ebp]

; 162  : 		_ENCSTR(k, _k);

  00013	8a 10		 mov	 dl, BYTE PTR [eax]
  00015	56		 push	 esi
  00016	8b 75 0c	 mov	 esi, DWORD PTR _d$[ebp]
  00019	57		 push	 edi
  0001a	8b 7d 10	 mov	 edi, DWORD PTR _b$[ebp]
  0001d	89 4d e4	 mov	 DWORD PTR _this$GSCopy$[ebp], ecx
  00020	84 d2		 test	 dl, dl
  00022	0f 84 75 01 00
	00		 je	 $LN96@LoadString@4
  00028	80 f2 ed	 xor	 dl, -19			; ffffffedH
  0002b	88 55 e8	 mov	 BYTE PTR __k$[ebp], dl
  0002e	8a 50 01	 mov	 dl, BYTE PTR [eax+1]
  00031	84 d2		 test	 dl, dl
  00033	0f 84 5e 01 00
	00		 je	 $LN95@LoadString@4
  00039	b1 ec		 mov	 cl, -20			; ffffffecH
  0003b	32 d1		 xor	 dl, cl
  0003d	88 55 e9	 mov	 BYTE PTR __k$[ebp+1], dl
  00040	8a 50 02	 mov	 dl, BYTE PTR [eax+2]
  00043	84 d2		 test	 dl, dl
  00045	0f 84 46 01 00
	00		 je	 $LN94@LoadString@4
  0004b	80 f2 eb	 xor	 dl, -21			; ffffffebH
  0004e	88 55 ea	 mov	 BYTE PTR __k$[ebp+2], dl
  00051	8a 50 03	 mov	 dl, BYTE PTR [eax+3]
  00054	84 d2		 test	 dl, dl
  00056	0f 84 2f 01 00
	00		 je	 $LN93@LoadString@4
  0005c	80 f2 ea	 xor	 dl, -22			; ffffffeaH
  0005f	88 55 eb	 mov	 BYTE PTR __k$[ebp+3], dl
  00062	8a 50 04	 mov	 dl, BYTE PTR [eax+4]
  00065	84 d2		 test	 dl, dl
  00067	0f 84 18 01 00
	00		 je	 $LN92@LoadString@4
  0006d	80 f2 ed	 xor	 dl, -19			; ffffffedH
  00070	88 55 ec	 mov	 BYTE PTR __k$[ebp+4], dl
  00073	8a 50 05	 mov	 dl, BYTE PTR [eax+5]
  00076	84 d2		 test	 dl, dl
  00078	0f 84 02 01 00
	00		 je	 $LN91@LoadString@4
  0007e	32 d1		 xor	 dl, cl
  00080	88 55 ed	 mov	 BYTE PTR __k$[ebp+5], dl
  00083	8a 50 06	 mov	 dl, BYTE PTR [eax+6]
  00086	84 d2		 test	 dl, dl
  00088	0f 84 ec 00 00
	00		 je	 $LN90@LoadString@4
  0008e	80 f2 eb	 xor	 dl, -21			; ffffffebH
  00091	88 55 ee	 mov	 BYTE PTR __k$[ebp+6], dl
  00094	8a 50 07	 mov	 dl, BYTE PTR [eax+7]
  00097	84 d2		 test	 dl, dl
  00099	0f 84 d5 00 00
	00		 je	 $LN89@LoadString@4
  0009f	80 f2 ea	 xor	 dl, -22			; ffffffeaH
  000a2	88 55 ef	 mov	 BYTE PTR __k$[ebp+7], dl
  000a5	8a 50 08	 mov	 dl, BYTE PTR [eax+8]
  000a8	84 d2		 test	 dl, dl
  000aa	0f 84 be 00 00
	00		 je	 $LN88@LoadString@4
  000b0	80 f2 ed	 xor	 dl, -19			; ffffffedH
  000b3	88 55 f0	 mov	 BYTE PTR __k$[ebp+8], dl
  000b6	8a 50 09	 mov	 dl, BYTE PTR [eax+9]
  000b9	84 d2		 test	 dl, dl
  000bb	0f 84 a8 00 00
	00		 je	 $LN87@LoadString@4
  000c1	32 d1		 xor	 dl, cl
  000c3	88 55 f1	 mov	 BYTE PTR __k$[ebp+9], dl
  000c6	8a 50 0a	 mov	 dl, BYTE PTR [eax+10]
  000c9	84 d2		 test	 dl, dl
  000cb	0f 84 92 00 00
	00		 je	 $LN86@LoadString@4
  000d1	80 f2 eb	 xor	 dl, -21			; ffffffebH
  000d4	88 55 f2	 mov	 BYTE PTR __k$[ebp+10], dl
  000d7	8a 50 0b	 mov	 dl, BYTE PTR [eax+11]
  000da	84 d2		 test	 dl, dl
  000dc	74 7f		 je	 SHORT $LN85@LoadString@4
  000de	80 f2 ea	 xor	 dl, -22			; ffffffeaH
  000e1	88 55 f3	 mov	 BYTE PTR __k$[ebp+11], dl
  000e4	8a 50 0c	 mov	 dl, BYTE PTR [eax+12]
  000e7	84 d2		 test	 dl, dl
  000e9	74 6c		 je	 SHORT $LN84@LoadString@4
  000eb	80 f2 ed	 xor	 dl, -19			; ffffffedH
  000ee	88 55 f4	 mov	 BYTE PTR __k$[ebp+12], dl
  000f1	8a 50 0d	 mov	 dl, BYTE PTR [eax+13]
  000f4	84 d2		 test	 dl, dl
  000f6	74 5a		 je	 SHORT $LN83@LoadString@4
  000f8	32 d1		 xor	 dl, cl
  000fa	80 78 0e 00	 cmp	 BYTE PTR [eax+14], 0
  000fe	88 55 f5	 mov	 BYTE PTR __k$[ebp+13], dl
  00101	0f 84 9a 00 00
	00		 je	 $LN111@LoadString@4
  00107	8a 50 0f	 mov	 dl, BYTE PTR [eax+15]
  0010a	84 d2		 test	 dl, dl
  0010c	74 3e		 je	 SHORT $LN81@LoadString@4
  0010e	80 f2 ea	 xor	 dl, -22			; ffffffeaH
  00111	88 55 f7	 mov	 BYTE PTR __k$[ebp+15], dl
  00114	8a 50 10	 mov	 dl, BYTE PTR [eax+16]
  00117	84 d2		 test	 dl, dl
  00119	74 2b		 je	 SHORT $LN80@LoadString@4
  0011b	80 f2 ed	 xor	 dl, -19			; ffffffedH
  0011e	88 55 f8	 mov	 BYTE PTR __k$[ebp+16], dl
  00121	8a 50 11	 mov	 dl, BYTE PTR [eax+17]
  00124	84 d2		 test	 dl, dl
  00126	74 19		 je	 SHORT $LN79@LoadString@4
  00128	8a 40 12	 mov	 al, BYTE PTR [eax+18]
  0012b	32 d1		 xor	 dl, cl
  0012d	88 55 f9	 mov	 BYTE PTR __k$[ebp+17], dl
  00130	84 c0		 test	 al, al
  00132	74 07		 je	 SHORT $LN78@LoadString@4
  00134	34 eb		 xor	 al, -21			; ffffffebH
  00136	88 45 fa	 mov	 BYTE PTR __k$[ebp+18], al
  00139	eb 66		 jmp	 SHORT $LN111@LoadString@4
$LN78@LoadString@4:
  0013b	c6 45 fa eb	 mov	 BYTE PTR __k$[ebp+18], -21 ; ffffffebH
  0013f	eb 60		 jmp	 SHORT $LN111@LoadString@4
$LN79@LoadString@4:
  00141	88 4d f9	 mov	 BYTE PTR __k$[ebp+17], cl
  00144	eb 5b		 jmp	 SHORT $LN111@LoadString@4
$LN80@LoadString@4:
  00146	c6 45 f8 ed	 mov	 BYTE PTR __k$[ebp+16], -19 ; ffffffedH
  0014a	eb 55		 jmp	 SHORT $LN111@LoadString@4
$LN81@LoadString@4:
  0014c	c6 45 f7 ea	 mov	 BYTE PTR __k$[ebp+15], -22 ; ffffffeaH
  00150	eb 4f		 jmp	 SHORT $LN111@LoadString@4
$LN83@LoadString@4:
  00152	88 4d f5	 mov	 BYTE PTR __k$[ebp+13], cl
  00155	eb 4a		 jmp	 SHORT $LN111@LoadString@4
$LN84@LoadString@4:
  00157	c6 45 f4 ed	 mov	 BYTE PTR __k$[ebp+12], -19 ; ffffffedH
  0015b	eb 44		 jmp	 SHORT $LN111@LoadString@4
$LN85@LoadString@4:
  0015d	c6 45 f3 ea	 mov	 BYTE PTR __k$[ebp+11], -22 ; ffffffeaH
  00161	eb 3e		 jmp	 SHORT $LN111@LoadString@4
$LN86@LoadString@4:
  00163	c6 45 f2 eb	 mov	 BYTE PTR __k$[ebp+10], -21 ; ffffffebH
  00167	eb 38		 jmp	 SHORT $LN111@LoadString@4
$LN87@LoadString@4:
  00169	88 4d f1	 mov	 BYTE PTR __k$[ebp+9], cl
  0016c	eb 33		 jmp	 SHORT $LN111@LoadString@4
$LN88@LoadString@4:
  0016e	c6 45 f0 ed	 mov	 BYTE PTR __k$[ebp+8], -19 ; ffffffedH
  00172	eb 2d		 jmp	 SHORT $LN111@LoadString@4
$LN89@LoadString@4:
  00174	c6 45 ef ea	 mov	 BYTE PTR __k$[ebp+7], -22 ; ffffffeaH
  00178	eb 27		 jmp	 SHORT $LN111@LoadString@4
$LN90@LoadString@4:
  0017a	c6 45 ee eb	 mov	 BYTE PTR __k$[ebp+6], -21 ; ffffffebH
  0017e	eb 21		 jmp	 SHORT $LN111@LoadString@4
$LN91@LoadString@4:
  00180	88 4d ed	 mov	 BYTE PTR __k$[ebp+5], cl
  00183	eb 1c		 jmp	 SHORT $LN111@LoadString@4
$LN92@LoadString@4:
  00185	c6 45 ec ed	 mov	 BYTE PTR __k$[ebp+4], -19 ; ffffffedH
  00189	eb 16		 jmp	 SHORT $LN111@LoadString@4
$LN93@LoadString@4:
  0018b	c6 45 eb ea	 mov	 BYTE PTR __k$[ebp+3], -22 ; ffffffeaH
  0018f	eb 10		 jmp	 SHORT $LN111@LoadString@4
$LN94@LoadString@4:
  00191	c6 45 ea eb	 mov	 BYTE PTR __k$[ebp+2], -21 ; ffffffebH
  00195	eb 0a		 jmp	 SHORT $LN111@LoadString@4
$LN95@LoadString@4:
  00197	c6 45 e9 ec	 mov	 BYTE PTR __k$[ebp+1], -20 ; ffffffecH
  0019b	eb 04		 jmp	 SHORT $LN111@LoadString@4
$LN96@LoadString@4:
  0019d	c6 45 e8 ed	 mov	 BYTE PTR __k$[ebp], -19	; ffffffedH
$LN111@LoadString@4:
  001a1	6a 03		 push	 3
  001a3	8d 45 e8	 lea	 eax, DWORD PTR __k$[ebp]
  001a6	c6 45 f6 00	 mov	 BYTE PTR __k$[ebp+14], 0
  001aa	5a		 pop	 edx
$LL104@LoadString@4:
  001ab	81 30 ed ec eb
	ea		 xor	 DWORD PTR [eax], -353637139 ; eaebecedH
  001b1	83 c0 04	 add	 eax, 4
  001b4	4a		 dec	 edx
  001b5	75 f4		 jne	 SHORT $LL104@LoadString@4
  001b7	6a 0c		 push	 12			; 0000000cH
  001b9	58		 pop	 eax
$LL101@LoadString@4:
  001ba	8b c8		 mov	 ecx, eax
  001bc	81 e1 03 00 00
	80		 and	 ecx, -2147483645	; 80000003H
  001c2	79 05		 jns	 SHORT $LN112@LoadString@4
  001c4	49		 dec	 ecx
  001c5	83 c9 fc	 or	 ecx, -4			; fffffffcH
  001c8	41		 inc	 ecx
$LN112@LoadString@4:
  001c9	b2 ed		 mov	 dl, -19			; ffffffedH
  001cb	2a d1		 sub	 dl, cl
  001cd	30 54 05 e8	 xor	 BYTE PTR __k$[ebp+eax], dl
  001d1	40		 inc	 eax
  001d2	83 f8 0e	 cmp	 eax, 14			; 0000000eH
  001d5	7c e3		 jl	 SHORT $LL101@LoadString@4

; 163  : 		LoadString(_k, d, b, i);

  001d7	ff 75 14	 push	 DWORD PTR _i$[ebp]
  001da	8b 4d e4	 mov	 ecx, DWORD PTR _this$GSCopy$[ebp]
  001dd	57		 push	 edi
  001de	56		 push	 esi
  001df	8d 45 e8	 lea	 eax, DWORD PTR __k$[ebp]
  001e2	50		 push	 eax
  001e3	ff 15 00 00 00
	00		 call	 DWORD PTR __imp_?LoadStringA@ioINILoader@@QAEXPBD0PADH@Z

; 164  : 	}

  001e9	8b 4d fc	 mov	 ecx, DWORD PTR __$ArrayPad$[ebp]
  001ec	5f		 pop	 edi
  001ed	33 cd		 xor	 ecx, ebp
  001ef	5e		 pop	 esi
  001f0	e8 00 00 00 00	 call	 @__security_check_cookie@4
  001f5	c9		 leave
  001f6	c2 10 00	 ret	 16			; 00000010H
??$LoadString_e@$0P@@ioINILoader@@QAEXAAY0P@$$CBDAAY00$$CBDPADH@Z ENDP ; ioINILoader::LoadString_e<15>
_TEXT	ENDS
PUBLIC	__$ArrayPad$
PUBLIC	??$LoadFloat_e@$0L@@ioINILoader@@QAEMAAY0L@$$CBDM@Z ; ioINILoader::LoadFloat_e<11>
; Function compile flags: /Ogsp
;	COMDAT ??$LoadFloat_e@$0L@@ioINILoader@@QAEMAAY0L@$$CBDM@Z
_TEXT	SEGMENT
__k$ = -20						; size = 11
__$ArrayPad$ = -4					; size = 4
_k$ = 8							; size = 4
_f$ = 12						; size = 4
??$LoadFloat_e@$0L@@ioINILoader@@QAEMAAY0L@$$CBDM@Z PROC ; ioINILoader::LoadFloat_e<11>, COMDAT
; _this$ = ecx

; 135  : 	{

  00000	55		 push	 ebp
  00001	8b ec		 mov	 ebp, esp
  00003	83 ec 14	 sub	 esp, 20			; 00000014H
  00006	a1 00 00 00 00	 mov	 eax, DWORD PTR ___security_cookie
  0000b	33 c5		 xor	 eax, ebp
  0000d	89 45 fc	 mov	 DWORD PTR __$ArrayPad$[ebp], eax
  00010	8b 45 08	 mov	 eax, DWORD PTR _k$[ebp]

; 136  : 		_ENCSTR(k, _k);

  00013	8a 10		 mov	 dl, BYTE PTR [eax]
  00015	56		 push	 esi
  00016	8b f1		 mov	 esi, ecx
  00018	84 d2		 test	 dl, dl
  0001a	0f 84 24 01 00
	00		 je	 $LN96@LoadFloat_@5
  00020	80 f2 ed	 xor	 dl, -19			; ffffffedH
  00023	88 55 ec	 mov	 BYTE PTR __k$[ebp], dl
  00026	8a 50 01	 mov	 dl, BYTE PTR [eax+1]
  00029	84 d2		 test	 dl, dl
  0002b	0f 84 0d 01 00
	00		 je	 $LN95@LoadFloat_@5
  00031	80 f2 ec	 xor	 dl, -20			; ffffffecH
  00034	88 55 ed	 mov	 BYTE PTR __k$[ebp+1], dl
  00037	8a 50 02	 mov	 dl, BYTE PTR [eax+2]
  0003a	84 d2		 test	 dl, dl
  0003c	0f 84 f6 00 00
	00		 je	 $LN94@LoadFloat_@5
  00042	80 f2 eb	 xor	 dl, -21			; ffffffebH
  00045	88 55 ee	 mov	 BYTE PTR __k$[ebp+2], dl
  00048	8a 50 03	 mov	 dl, BYTE PTR [eax+3]
  0004b	84 d2		 test	 dl, dl
  0004d	0f 84 df 00 00
	00		 je	 $LN93@LoadFloat_@5
  00053	80 f2 ea	 xor	 dl, -22			; ffffffeaH
  00056	88 55 ef	 mov	 BYTE PTR __k$[ebp+3], dl
  00059	8a 50 04	 mov	 dl, BYTE PTR [eax+4]
  0005c	84 d2		 test	 dl, dl
  0005e	0f 84 c8 00 00
	00		 je	 $LN92@LoadFloat_@5
  00064	80 f2 ed	 xor	 dl, -19			; ffffffedH
  00067	88 55 f0	 mov	 BYTE PTR __k$[ebp+4], dl
  0006a	8a 50 05	 mov	 dl, BYTE PTR [eax+5]
  0006d	84 d2		 test	 dl, dl
  0006f	0f 84 b1 00 00
	00		 je	 $LN91@LoadFloat_@5
  00075	80 f2 ec	 xor	 dl, -20			; ffffffecH
  00078	88 55 f1	 mov	 BYTE PTR __k$[ebp+5], dl
  0007b	8a 50 06	 mov	 dl, BYTE PTR [eax+6]
  0007e	84 d2		 test	 dl, dl
  00080	0f 84 9a 00 00
	00		 je	 $LN90@LoadFloat_@5
  00086	80 f2 eb	 xor	 dl, -21			; ffffffebH
  00089	88 55 f2	 mov	 BYTE PTR __k$[ebp+6], dl
  0008c	8a 50 07	 mov	 dl, BYTE PTR [eax+7]
  0008f	84 d2		 test	 dl, dl
  00091	0f 84 83 00 00
	00		 je	 $LN89@LoadFloat_@5
  00097	80 f2 ea	 xor	 dl, -22			; ffffffeaH
  0009a	88 55 f3	 mov	 BYTE PTR __k$[ebp+7], dl
  0009d	8a 50 08	 mov	 dl, BYTE PTR [eax+8]
  000a0	84 d2		 test	 dl, dl
  000a2	74 70		 je	 SHORT $LN88@LoadFloat_@5
  000a4	80 f2 ed	 xor	 dl, -19			; ffffffedH
  000a7	88 55 f4	 mov	 BYTE PTR __k$[ebp+8], dl
  000aa	8a 50 09	 mov	 dl, BYTE PTR [eax+9]
  000ad	84 d2		 test	 dl, dl
  000af	74 5d		 je	 SHORT $LN87@LoadFloat_@5
  000b1	80 f2 ec	 xor	 dl, -20			; ffffffecH
  000b4	80 78 0a 00	 cmp	 BYTE PTR [eax+10], 0
  000b8	88 55 f5	 mov	 BYTE PTR __k$[ebp+9], dl
  000bb	0f 84 87 00 00
	00		 je	 $LN1@LoadFloat_@5
  000c1	8a 50 0b	 mov	 dl, BYTE PTR [eax+11]
  000c4	84 d2		 test	 dl, dl
  000c6	74 40		 je	 SHORT $LN85@LoadFloat_@5
  000c8	80 f2 ea	 xor	 dl, -22			; ffffffeaH
  000cb	88 55 f7	 mov	 BYTE PTR __k$[ebp+11], dl
  000ce	8a 50 0c	 mov	 dl, BYTE PTR [eax+12]
  000d1	84 d2		 test	 dl, dl
  000d3	74 2d		 je	 SHORT $LN84@LoadFloat_@5
  000d5	80 f2 ed	 xor	 dl, -19			; ffffffedH
  000d8	88 55 f8	 mov	 BYTE PTR __k$[ebp+12], dl
  000db	8a 50 0d	 mov	 dl, BYTE PTR [eax+13]
  000de	84 d2		 test	 dl, dl
  000e0	74 1a		 je	 SHORT $LN83@LoadFloat_@5
  000e2	8a 40 0e	 mov	 al, BYTE PTR [eax+14]
  000e5	80 f2 ec	 xor	 dl, -20			; ffffffecH
  000e8	88 55 f9	 mov	 BYTE PTR __k$[ebp+13], dl
  000eb	84 c0		 test	 al, al
  000ed	74 07		 je	 SHORT $LN82@LoadFloat_@5
  000ef	34 eb		 xor	 al, -21			; ffffffebH
  000f1	88 45 fa	 mov	 BYTE PTR __k$[ebp+14], al
  000f4	eb 52		 jmp	 SHORT $LN1@LoadFloat_@5
$LN82@LoadFloat_@5:
  000f6	c6 45 fa eb	 mov	 BYTE PTR __k$[ebp+14], -21 ; ffffffebH
  000fa	eb 4c		 jmp	 SHORT $LN1@LoadFloat_@5
$LN83@LoadFloat_@5:
  000fc	c6 45 f9 ec	 mov	 BYTE PTR __k$[ebp+13], -20 ; ffffffecH
  00100	eb 46		 jmp	 SHORT $LN1@LoadFloat_@5
$LN84@LoadFloat_@5:
  00102	c6 45 f8 ed	 mov	 BYTE PTR __k$[ebp+12], -19 ; ffffffedH
  00106	eb 40		 jmp	 SHORT $LN1@LoadFloat_@5
$LN85@LoadFloat_@5:
  00108	c6 45 f7 ea	 mov	 BYTE PTR __k$[ebp+11], -22 ; ffffffeaH
  0010c	eb 3a		 jmp	 SHORT $LN1@LoadFloat_@5
$LN87@LoadFloat_@5:
  0010e	c6 45 f5 ec	 mov	 BYTE PTR __k$[ebp+9], -20 ; ffffffecH
  00112	eb 34		 jmp	 SHORT $LN1@LoadFloat_@5
$LN88@LoadFloat_@5:
  00114	c6 45 f4 ed	 mov	 BYTE PTR __k$[ebp+8], -19 ; ffffffedH
  00118	eb 2e		 jmp	 SHORT $LN1@LoadFloat_@5
$LN89@LoadFloat_@5:
  0011a	c6 45 f3 ea	 mov	 BYTE PTR __k$[ebp+7], -22 ; ffffffeaH
  0011e	eb 28		 jmp	 SHORT $LN1@LoadFloat_@5
$LN90@LoadFloat_@5:
  00120	c6 45 f2 eb	 mov	 BYTE PTR __k$[ebp+6], -21 ; ffffffebH
  00124	eb 22		 jmp	 SHORT $LN1@LoadFloat_@5
$LN91@LoadFloat_@5:
  00126	c6 45 f1 ec	 mov	 BYTE PTR __k$[ebp+5], -20 ; ffffffecH
  0012a	eb 1c		 jmp	 SHORT $LN1@LoadFloat_@5
$LN92@LoadFloat_@5:
  0012c	c6 45 f0 ed	 mov	 BYTE PTR __k$[ebp+4], -19 ; ffffffedH
  00130	eb 16		 jmp	 SHORT $LN1@LoadFloat_@5
$LN93@LoadFloat_@5:
  00132	c6 45 ef ea	 mov	 BYTE PTR __k$[ebp+3], -22 ; ffffffeaH
  00136	eb 10		 jmp	 SHORT $LN1@LoadFloat_@5
$LN94@LoadFloat_@5:
  00138	c6 45 ee eb	 mov	 BYTE PTR __k$[ebp+2], -21 ; ffffffebH
  0013c	eb 0a		 jmp	 SHORT $LN1@LoadFloat_@5
$LN95@LoadFloat_@5:
  0013e	c6 45 ed ec	 mov	 BYTE PTR __k$[ebp+1], -20 ; ffffffecH
  00142	eb 04		 jmp	 SHORT $LN1@LoadFloat_@5
$LN96@LoadFloat_@5:
  00144	c6 45 ec ed	 mov	 BYTE PTR __k$[ebp], -19	; ffffffedH
$LN1@LoadFloat_@5:
  00148	6a 02		 push	 2
  0014a	8d 45 ec	 lea	 eax, DWORD PTR __k$[ebp]
  0014d	c6 45 f6 00	 mov	 BYTE PTR __k$[ebp+10], 0
  00151	5a		 pop	 edx
$LL104@LoadFloat_@5:
  00152	81 30 ed ec eb
	ea		 xor	 DWORD PTR [eax], -353637139 ; eaebecedH
  00158	83 c0 04	 add	 eax, 4
  0015b	4a		 dec	 edx
  0015c	75 f4		 jne	 SHORT $LL104@LoadFloat_@5
  0015e	6a 08		 push	 8
  00160	58		 pop	 eax
$LL101@LoadFloat_@5:
  00161	8b c8		 mov	 ecx, eax
  00163	81 e1 03 00 00
	80		 and	 ecx, -2147483645	; 80000003H
  00169	79 05		 jns	 SHORT $LN111@LoadFloat_@5
  0016b	49		 dec	 ecx
  0016c	83 c9 fc	 or	 ecx, -4			; fffffffcH
  0016f	41		 inc	 ecx
$LN111@LoadFloat_@5:
  00170	b2 ed		 mov	 dl, -19			; ffffffedH
  00172	2a d1		 sub	 dl, cl
  00174	30 54 05 ec	 xor	 BYTE PTR __k$[ebp+eax], dl
  00178	40		 inc	 eax
  00179	83 f8 0a	 cmp	 eax, 10			; 0000000aH
  0017c	7c e3		 jl	 SHORT $LL101@LoadFloat_@5

; 137  : 		return LoadFloat(_k, f);

  0017e	f3 0f 10 45 0c	 movss	 xmm0, DWORD PTR _f$[ebp]
  00183	51		 push	 ecx
  00184	8d 45 ec	 lea	 eax, DWORD PTR __k$[ebp]
  00187	f3 0f 11 04 24	 movss	 DWORD PTR [esp], xmm0
  0018c	50		 push	 eax
  0018d	8b ce		 mov	 ecx, esi
  0018f	ff 15 00 00 00
	00		 call	 DWORD PTR __imp_?LoadFloat@ioINILoader@@QAEMPBDM@Z

; 138  : 	}

  00195	8b 4d fc	 mov	 ecx, DWORD PTR __$ArrayPad$[ebp]
  00198	33 cd		 xor	 ecx, ebp
  0019a	5e		 pop	 esi
  0019b	e8 00 00 00 00	 call	 @__security_check_cookie@4
  001a0	c9		 leave
  001a1	c2 08 00	 ret	 8
??$LoadFloat_e@$0L@@ioINILoader@@QAEMAAY0L@$$CBDM@Z ENDP ; ioINILoader::LoadFloat_e<11>
_TEXT	ENDS
PUBLIC	__$ArrayPad$
PUBLIC	??$LoadFloat_e@$0BC@@ioINILoader@@QAEMAAY0BC@$$CBDM@Z ; ioINILoader::LoadFloat_e<18>
; Function compile flags: /Ogsp
;	COMDAT ??$LoadFloat_e@$0BC@@ioINILoader@@QAEMAAY0BC@$$CBDM@Z
_TEXT	SEGMENT
__k$ = -28						; size = 18
__$ArrayPad$ = -4					; size = 4
_k$ = 8							; size = 4
_f$ = 12						; size = 4
??$LoadFloat_e@$0BC@@ioINILoader@@QAEMAAY0BC@$$CBDM@Z PROC ; ioINILoader::LoadFloat_e<18>, COMDAT
; _this$ = ecx

; 135  : 	{

  00000	55		 push	 ebp
  00001	8b ec		 mov	 ebp, esp
  00003	83 ec 1c	 sub	 esp, 28			; 0000001cH
  00006	a1 00 00 00 00	 mov	 eax, DWORD PTR ___security_cookie
  0000b	33 c5		 xor	 eax, ebp
  0000d	89 45 fc	 mov	 DWORD PTR __$ArrayPad$[ebp], eax
  00010	8b 45 08	 mov	 eax, DWORD PTR _k$[ebp]

; 136  : 		_ENCSTR(k, _k);

  00013	8a 10		 mov	 dl, BYTE PTR [eax]
  00015	56		 push	 esi
  00016	8b f1		 mov	 esi, ecx
  00018	84 d2		 test	 dl, dl
  0001a	0f 84 be 01 00
	00		 je	 $LN96@LoadFloat_@6
  00020	80 f2 ed	 xor	 dl, -19			; ffffffedH
  00023	88 55 e4	 mov	 BYTE PTR __k$[ebp], dl
  00026	8a 50 01	 mov	 dl, BYTE PTR [eax+1]
  00029	84 d2		 test	 dl, dl
  0002b	0f 84 a7 01 00
	00		 je	 $LN95@LoadFloat_@6
  00031	80 f2 ec	 xor	 dl, -20			; ffffffecH
  00034	88 55 e5	 mov	 BYTE PTR __k$[ebp+1], dl
  00037	8a 50 02	 mov	 dl, BYTE PTR [eax+2]
  0003a	84 d2		 test	 dl, dl
  0003c	0f 84 90 01 00
	00		 je	 $LN94@LoadFloat_@6
  00042	b1 eb		 mov	 cl, -21			; ffffffebH
  00044	32 d1		 xor	 dl, cl
  00046	88 55 e6	 mov	 BYTE PTR __k$[ebp+2], dl
  00049	8a 50 03	 mov	 dl, BYTE PTR [eax+3]
  0004c	84 d2		 test	 dl, dl
  0004e	0f 84 78 01 00
	00		 je	 $LN93@LoadFloat_@6
  00054	80 f2 ea	 xor	 dl, -22			; ffffffeaH
  00057	88 55 e7	 mov	 BYTE PTR __k$[ebp+3], dl
  0005a	8a 50 04	 mov	 dl, BYTE PTR [eax+4]
  0005d	84 d2		 test	 dl, dl
  0005f	0f 84 61 01 00
	00		 je	 $LN92@LoadFloat_@6
  00065	80 f2 ed	 xor	 dl, -19			; ffffffedH
  00068	88 55 e8	 mov	 BYTE PTR __k$[ebp+4], dl
  0006b	8a 50 05	 mov	 dl, BYTE PTR [eax+5]
  0006e	84 d2		 test	 dl, dl
  00070	0f 84 4a 01 00
	00		 je	 $LN91@LoadFloat_@6
  00076	80 f2 ec	 xor	 dl, -20			; ffffffecH
  00079	88 55 e9	 mov	 BYTE PTR __k$[ebp+5], dl
  0007c	8a 50 06	 mov	 dl, BYTE PTR [eax+6]
  0007f	84 d2		 test	 dl, dl
  00081	0f 84 34 01 00
	00		 je	 $LN90@LoadFloat_@6
  00087	32 d1		 xor	 dl, cl
  00089	88 55 ea	 mov	 BYTE PTR __k$[ebp+6], dl
  0008c	8a 50 07	 mov	 dl, BYTE PTR [eax+7]
  0008f	84 d2		 test	 dl, dl
  00091	0f 84 1e 01 00
	00		 je	 $LN89@LoadFloat_@6
  00097	80 f2 ea	 xor	 dl, -22			; ffffffeaH
  0009a	88 55 eb	 mov	 BYTE PTR __k$[ebp+7], dl
  0009d	8a 50 08	 mov	 dl, BYTE PTR [eax+8]
  000a0	84 d2		 test	 dl, dl
  000a2	0f 84 07 01 00
	00		 je	 $LN88@LoadFloat_@6
  000a8	80 f2 ed	 xor	 dl, -19			; ffffffedH
  000ab	88 55 ec	 mov	 BYTE PTR __k$[ebp+8], dl
  000ae	8a 50 09	 mov	 dl, BYTE PTR [eax+9]
  000b1	84 d2		 test	 dl, dl
  000b3	0f 84 f0 00 00
	00		 je	 $LN87@LoadFloat_@6
  000b9	80 f2 ec	 xor	 dl, -20			; ffffffecH
  000bc	88 55 ed	 mov	 BYTE PTR __k$[ebp+9], dl
  000bf	8a 50 0a	 mov	 dl, BYTE PTR [eax+10]
  000c2	84 d2		 test	 dl, dl
  000c4	0f 84 da 00 00
	00		 je	 $LN86@LoadFloat_@6
  000ca	32 d1		 xor	 dl, cl
  000cc	88 55 ee	 mov	 BYTE PTR __k$[ebp+10], dl
  000cf	8a 50 0b	 mov	 dl, BYTE PTR [eax+11]
  000d2	84 d2		 test	 dl, dl
  000d4	0f 84 c4 00 00
	00		 je	 $LN85@LoadFloat_@6
  000da	80 f2 ea	 xor	 dl, -22			; ffffffeaH
  000dd	88 55 ef	 mov	 BYTE PTR __k$[ebp+11], dl
  000e0	8a 50 0c	 mov	 dl, BYTE PTR [eax+12]
  000e3	84 d2		 test	 dl, dl
  000e5	0f 84 ad 00 00
	00		 je	 $LN84@LoadFloat_@6
  000eb	80 f2 ed	 xor	 dl, -19			; ffffffedH
  000ee	88 55 f0	 mov	 BYTE PTR __k$[ebp+12], dl
  000f1	8a 50 0d	 mov	 dl, BYTE PTR [eax+13]
  000f4	84 d2		 test	 dl, dl
  000f6	0f 84 96 00 00
	00		 je	 $LN83@LoadFloat_@6
  000fc	80 f2 ec	 xor	 dl, -20			; ffffffecH
  000ff	88 55 f1	 mov	 BYTE PTR __k$[ebp+13], dl
  00102	8a 50 0e	 mov	 dl, BYTE PTR [eax+14]
  00105	84 d2		 test	 dl, dl
  00107	0f 84 80 00 00
	00		 je	 $LN82@LoadFloat_@6
  0010d	32 d1		 xor	 dl, cl
  0010f	88 55 f2	 mov	 BYTE PTR __k$[ebp+14], dl
  00112	8a 50 0f	 mov	 dl, BYTE PTR [eax+15]
  00115	84 d2		 test	 dl, dl
  00117	74 6e		 je	 SHORT $LN81@LoadFloat_@6
  00119	80 f2 ea	 xor	 dl, -22			; ffffffeaH
  0011c	88 55 f3	 mov	 BYTE PTR __k$[ebp+15], dl
  0011f	8a 50 10	 mov	 dl, BYTE PTR [eax+16]
  00122	84 d2		 test	 dl, dl
  00124	74 5b		 je	 SHORT $LN80@LoadFloat_@6
  00126	80 f2 ed	 xor	 dl, -19			; ffffffedH
  00129	80 78 11 00	 cmp	 BYTE PTR [eax+17], 0
  0012d	88 55 f4	 mov	 BYTE PTR __k$[ebp+16], dl
  00130	0f 84 ac 00 00
	00		 je	 $LN1@LoadFloat_@6
  00136	8a 50 12	 mov	 dl, BYTE PTR [eax+18]
  00139	84 d2		 test	 dl, dl
  0013b	74 3f		 je	 SHORT $LN78@LoadFloat_@6
  0013d	32 d1		 xor	 dl, cl
  0013f	88 55 f6	 mov	 BYTE PTR __k$[ebp+18], dl
  00142	8a 50 13	 mov	 dl, BYTE PTR [eax+19]
  00145	84 d2		 test	 dl, dl
  00147	74 2d		 je	 SHORT $LN77@LoadFloat_@6
  00149	80 f2 ea	 xor	 dl, -22			; ffffffeaH
  0014c	88 55 f7	 mov	 BYTE PTR __k$[ebp+19], dl
  0014f	8a 50 14	 mov	 dl, BYTE PTR [eax+20]
  00152	84 d2		 test	 dl, dl
  00154	74 1a		 je	 SHORT $LN76@LoadFloat_@6
  00156	8a 40 15	 mov	 al, BYTE PTR [eax+21]
  00159	80 f2 ed	 xor	 dl, -19			; ffffffedH
  0015c	88 55 f8	 mov	 BYTE PTR __k$[ebp+20], dl
  0015f	84 c0		 test	 al, al
  00161	74 07		 je	 SHORT $LN75@LoadFloat_@6
  00163	34 ec		 xor	 al, -20			; ffffffecH
  00165	88 45 f9	 mov	 BYTE PTR __k$[ebp+21], al
  00168	eb 78		 jmp	 SHORT $LN1@LoadFloat_@6
$LN75@LoadFloat_@6:
  0016a	c6 45 f9 ec	 mov	 BYTE PTR __k$[ebp+21], -20 ; ffffffecH
  0016e	eb 72		 jmp	 SHORT $LN1@LoadFloat_@6
$LN76@LoadFloat_@6:
  00170	c6 45 f8 ed	 mov	 BYTE PTR __k$[ebp+20], -19 ; ffffffedH
  00174	eb 6c		 jmp	 SHORT $LN1@LoadFloat_@6
$LN77@LoadFloat_@6:
  00176	c6 45 f7 ea	 mov	 BYTE PTR __k$[ebp+19], -22 ; ffffffeaH
  0017a	eb 66		 jmp	 SHORT $LN1@LoadFloat_@6
$LN78@LoadFloat_@6:
  0017c	88 4d f6	 mov	 BYTE PTR __k$[ebp+18], cl
  0017f	eb 61		 jmp	 SHORT $LN1@LoadFloat_@6
$LN80@LoadFloat_@6:
  00181	c6 45 f4 ed	 mov	 BYTE PTR __k$[ebp+16], -19 ; ffffffedH
  00185	eb 5b		 jmp	 SHORT $LN1@LoadFloat_@6
$LN81@LoadFloat_@6:
  00187	c6 45 f3 ea	 mov	 BYTE PTR __k$[ebp+15], -22 ; ffffffeaH
  0018b	eb 55		 jmp	 SHORT $LN1@LoadFloat_@6
$LN82@LoadFloat_@6:
  0018d	88 4d f2	 mov	 BYTE PTR __k$[ebp+14], cl
  00190	eb 50		 jmp	 SHORT $LN1@LoadFloat_@6
$LN83@LoadFloat_@6:
  00192	c6 45 f1 ec	 mov	 BYTE PTR __k$[ebp+13], -20 ; ffffffecH
  00196	eb 4a		 jmp	 SHORT $LN1@LoadFloat_@6
$LN84@LoadFloat_@6:
  00198	c6 45 f0 ed	 mov	 BYTE PTR __k$[ebp+12], -19 ; ffffffedH
  0019c	eb 44		 jmp	 SHORT $LN1@LoadFloat_@6
$LN85@LoadFloat_@6:
  0019e	c6 45 ef ea	 mov	 BYTE PTR __k$[ebp+11], -22 ; ffffffeaH
  001a2	eb 3e		 jmp	 SHORT $LN1@LoadFloat_@6
$LN86@LoadFloat_@6:
  001a4	88 4d ee	 mov	 BYTE PTR __k$[ebp+10], cl
  001a7	eb 39		 jmp	 SHORT $LN1@LoadFloat_@6
$LN87@LoadFloat_@6:
  001a9	c6 45 ed ec	 mov	 BYTE PTR __k$[ebp+9], -20 ; ffffffecH
  001ad	eb 33		 jmp	 SHORT $LN1@LoadFloat_@6
$LN88@LoadFloat_@6:
  001af	c6 45 ec ed	 mov	 BYTE PTR __k$[ebp+8], -19 ; ffffffedH
  001b3	eb 2d		 jmp	 SHORT $LN1@LoadFloat_@6
$LN89@LoadFloat_@6:
  001b5	c6 45 eb ea	 mov	 BYTE PTR __k$[ebp+7], -22 ; ffffffeaH
  001b9	eb 27		 jmp	 SHORT $LN1@LoadFloat_@6
$LN90@LoadFloat_@6:
  001bb	88 4d ea	 mov	 BYTE PTR __k$[ebp+6], cl
  001be	eb 22		 jmp	 SHORT $LN1@LoadFloat_@6
$LN91@LoadFloat_@6:
  001c0	c6 45 e9 ec	 mov	 BYTE PTR __k$[ebp+5], -20 ; ffffffecH
  001c4	eb 1c		 jmp	 SHORT $LN1@LoadFloat_@6
$LN92@LoadFloat_@6:
  001c6	c6 45 e8 ed	 mov	 BYTE PTR __k$[ebp+4], -19 ; ffffffedH
  001ca	eb 16		 jmp	 SHORT $LN1@LoadFloat_@6
$LN93@LoadFloat_@6:
  001cc	c6 45 e7 ea	 mov	 BYTE PTR __k$[ebp+3], -22 ; ffffffeaH
  001d0	eb 10		 jmp	 SHORT $LN1@LoadFloat_@6
$LN94@LoadFloat_@6:
  001d2	c6 45 e6 eb	 mov	 BYTE PTR __k$[ebp+2], -21 ; ffffffebH
  001d6	eb 0a		 jmp	 SHORT $LN1@LoadFloat_@6
$LN95@LoadFloat_@6:
  001d8	c6 45 e5 ec	 mov	 BYTE PTR __k$[ebp+1], -20 ; ffffffecH
  001dc	eb 04		 jmp	 SHORT $LN1@LoadFloat_@6
$LN96@LoadFloat_@6:
  001de	c6 45 e4 ed	 mov	 BYTE PTR __k$[ebp], -19	; ffffffedH
$LN1@LoadFloat_@6:
  001e2	6a 04		 push	 4
  001e4	8d 45 e4	 lea	 eax, DWORD PTR __k$[ebp]
  001e7	c6 45 f5 00	 mov	 BYTE PTR __k$[ebp+17], 0
  001eb	5a		 pop	 edx
$LL104@LoadFloat_@6:
  001ec	81 30 ed ec eb
	ea		 xor	 DWORD PTR [eax], -353637139 ; eaebecedH
  001f2	83 c0 04	 add	 eax, 4
  001f5	4a		 dec	 edx
  001f6	75 f4		 jne	 SHORT $LL104@LoadFloat_@6

; 137  : 		return LoadFloat(_k, f);

  001f8	f3 0f 10 45 0c	 movss	 xmm0, DWORD PTR _f$[ebp]
  001fd	80 75 f4 ed	 xor	 BYTE PTR __k$[ebp+16], -19 ; ffffffedH
  00201	51		 push	 ecx
  00202	8d 45 e4	 lea	 eax, DWORD PTR __k$[ebp]
  00205	f3 0f 11 04 24	 movss	 DWORD PTR [esp], xmm0
  0020a	50		 push	 eax
  0020b	8b ce		 mov	 ecx, esi
  0020d	ff 15 00 00 00
	00		 call	 DWORD PTR __imp_?LoadFloat@ioINILoader@@QAEMPBDM@Z

; 138  : 	}

  00213	8b 4d fc	 mov	 ecx, DWORD PTR __$ArrayPad$[ebp]
  00216	33 cd		 xor	 ecx, ebp
  00218	5e		 pop	 esi
  00219	e8 00 00 00 00	 call	 @__security_check_cookie@4
  0021e	c9		 leave
  0021f	c2 08 00	 ret	 8
??$LoadFloat_e@$0BC@@ioINILoader@@QAEMAAY0BC@$$CBDM@Z ENDP ; ioINILoader::LoadFloat_e<18>
_TEXT	ENDS
PUBLIC	_this$GSCopy$
PUBLIC	__$ArrayPad$
PUBLIC	??$LoadString_e@$0BB@@ioINILoader@@QAEXAAY0BB@$$CBDAAY00$$CBDPADH@Z ; ioINILoader::LoadString_e<17>
; Function compile flags: /Ogsp
;	COMDAT ??$LoadString_e@$0BB@@ioINILoader@@QAEXAAY0BB@$$CBDAAY00$$CBDPADH@Z
_TEXT	SEGMENT
_this$GSCopy$ = -32					; size = 4
__k$ = -28						; size = 17
__$ArrayPad$ = -4					; size = 4
_k$ = 8							; size = 4
_d$ = 12						; size = 4
_b$ = 16						; size = 4
_i$ = 20						; size = 4
??$LoadString_e@$0BB@@ioINILoader@@QAEXAAY0BB@$$CBDAAY00$$CBDPADH@Z PROC ; ioINILoader::LoadString_e<17>, COMDAT
; _this$ = ecx

; 161  : 	{

  00000	55		 push	 ebp
  00001	8b ec		 mov	 ebp, esp
  00003	83 ec 20	 sub	 esp, 32			; 00000020H
  00006	a1 00 00 00 00	 mov	 eax, DWORD PTR ___security_cookie
  0000b	33 c5		 xor	 eax, ebp
  0000d	89 45 fc	 mov	 DWORD PTR __$ArrayPad$[ebp], eax
  00010	8b 45 08	 mov	 eax, DWORD PTR _k$[ebp]

; 162  : 		_ENCSTR(k, _k);

  00013	8a 10		 mov	 dl, BYTE PTR [eax]
  00015	56		 push	 esi
  00016	8b 75 0c	 mov	 esi, DWORD PTR _d$[ebp]
  00019	57		 push	 edi
  0001a	8b 7d 10	 mov	 edi, DWORD PTR _b$[ebp]
  0001d	89 4d e0	 mov	 DWORD PTR _this$GSCopy$[ebp], ecx
  00020	84 d2		 test	 dl, dl
  00022	0f 84 a7 01 00
	00		 je	 $LN96@LoadString@5
  00028	80 f2 ed	 xor	 dl, -19			; ffffffedH
  0002b	88 55 e4	 mov	 BYTE PTR __k$[ebp], dl
  0002e	8a 50 01	 mov	 dl, BYTE PTR [eax+1]
  00031	84 d2		 test	 dl, dl
  00033	0f 84 90 01 00
	00		 je	 $LN95@LoadString@5
  00039	b1 ec		 mov	 cl, -20			; ffffffecH
  0003b	32 d1		 xor	 dl, cl
  0003d	88 55 e5	 mov	 BYTE PTR __k$[ebp+1], dl
  00040	8a 50 02	 mov	 dl, BYTE PTR [eax+2]
  00043	84 d2		 test	 dl, dl
  00045	0f 84 78 01 00
	00		 je	 $LN94@LoadString@5
  0004b	80 f2 eb	 xor	 dl, -21			; ffffffebH
  0004e	88 55 e6	 mov	 BYTE PTR __k$[ebp+2], dl
  00051	8a 50 03	 mov	 dl, BYTE PTR [eax+3]
  00054	84 d2		 test	 dl, dl
  00056	0f 84 61 01 00
	00		 je	 $LN93@LoadString@5
  0005c	80 f2 ea	 xor	 dl, -22			; ffffffeaH
  0005f	88 55 e7	 mov	 BYTE PTR __k$[ebp+3], dl
  00062	8a 50 04	 mov	 dl, BYTE PTR [eax+4]
  00065	84 d2		 test	 dl, dl
  00067	0f 84 4a 01 00
	00		 je	 $LN92@LoadString@5
  0006d	80 f2 ed	 xor	 dl, -19			; ffffffedH
  00070	88 55 e8	 mov	 BYTE PTR __k$[ebp+4], dl
  00073	8a 50 05	 mov	 dl, BYTE PTR [eax+5]
  00076	84 d2		 test	 dl, dl
  00078	0f 84 34 01 00
	00		 je	 $LN91@LoadString@5
  0007e	32 d1		 xor	 dl, cl
  00080	88 55 e9	 mov	 BYTE PTR __k$[ebp+5], dl
  00083	8a 50 06	 mov	 dl, BYTE PTR [eax+6]
  00086	84 d2		 test	 dl, dl
  00088	0f 84 1e 01 00
	00		 je	 $LN90@LoadString@5
  0008e	80 f2 eb	 xor	 dl, -21			; ffffffebH
  00091	88 55 ea	 mov	 BYTE PTR __k$[ebp+6], dl
  00094	8a 50 07	 mov	 dl, BYTE PTR [eax+7]
  00097	84 d2		 test	 dl, dl
  00099	0f 84 07 01 00
	00		 je	 $LN89@LoadString@5
  0009f	80 f2 ea	 xor	 dl, -22			; ffffffeaH
  000a2	88 55 eb	 mov	 BYTE PTR __k$[ebp+7], dl
  000a5	8a 50 08	 mov	 dl, BYTE PTR [eax+8]
  000a8	84 d2		 test	 dl, dl
  000aa	0f 84 f0 00 00
	00		 je	 $LN88@LoadString@5
  000b0	80 f2 ed	 xor	 dl, -19			; ffffffedH
  000b3	88 55 ec	 mov	 BYTE PTR __k$[ebp+8], dl
  000b6	8a 50 09	 mov	 dl, BYTE PTR [eax+9]
  000b9	84 d2		 test	 dl, dl
  000bb	0f 84 da 00 00
	00		 je	 $LN87@LoadString@5
  000c1	32 d1		 xor	 dl, cl
  000c3	88 55 ed	 mov	 BYTE PTR __k$[ebp+9], dl
  000c6	8a 50 0a	 mov	 dl, BYTE PTR [eax+10]
  000c9	84 d2		 test	 dl, dl
  000cb	0f 84 c4 00 00
	00		 je	 $LN86@LoadString@5
  000d1	80 f2 eb	 xor	 dl, -21			; ffffffebH
  000d4	88 55 ee	 mov	 BYTE PTR __k$[ebp+10], dl
  000d7	8a 50 0b	 mov	 dl, BYTE PTR [eax+11]
  000da	84 d2		 test	 dl, dl
  000dc	0f 84 ad 00 00
	00		 je	 $LN85@LoadString@5
  000e2	80 f2 ea	 xor	 dl, -22			; ffffffeaH
  000e5	88 55 ef	 mov	 BYTE PTR __k$[ebp+11], dl
  000e8	8a 50 0c	 mov	 dl, BYTE PTR [eax+12]
  000eb	84 d2		 test	 dl, dl
  000ed	0f 84 96 00 00
	00		 je	 $LN84@LoadString@5
  000f3	80 f2 ed	 xor	 dl, -19			; ffffffedH
  000f6	88 55 f0	 mov	 BYTE PTR __k$[ebp+12], dl
  000f9	8a 50 0d	 mov	 dl, BYTE PTR [eax+13]
  000fc	84 d2		 test	 dl, dl
  000fe	0f 84 80 00 00
	00		 je	 $LN83@LoadString@5
  00104	32 d1		 xor	 dl, cl
  00106	88 55 f1	 mov	 BYTE PTR __k$[ebp+13], dl
  00109	8a 50 0e	 mov	 dl, BYTE PTR [eax+14]
  0010c	84 d2		 test	 dl, dl
  0010e	74 6e		 je	 SHORT $LN82@LoadString@5
  00110	80 f2 eb	 xor	 dl, -21			; ffffffebH
  00113	88 55 f2	 mov	 BYTE PTR __k$[ebp+14], dl
  00116	8a 50 0f	 mov	 dl, BYTE PTR [eax+15]
  00119	84 d2		 test	 dl, dl
  0011b	74 5b		 je	 SHORT $LN81@LoadString@5
  0011d	80 f2 ea	 xor	 dl, -22			; ffffffeaH
  00120	80 78 10 00	 cmp	 BYTE PTR [eax+16], 0
  00124	88 55 f3	 mov	 BYTE PTR __k$[ebp+15], dl
  00127	0f 84 a6 00 00
	00		 je	 $LN111@LoadString@5
  0012d	8a 50 11	 mov	 dl, BYTE PTR [eax+17]
  00130	84 d2		 test	 dl, dl
  00132	74 3f		 je	 SHORT $LN79@LoadString@5
  00134	32 d1		 xor	 dl, cl
  00136	88 55 f5	 mov	 BYTE PTR __k$[ebp+17], dl
  00139	8a 50 12	 mov	 dl, BYTE PTR [eax+18]
  0013c	84 d2		 test	 dl, dl
  0013e	74 2d		 je	 SHORT $LN78@LoadString@5
  00140	80 f2 eb	 xor	 dl, -21			; ffffffebH
  00143	88 55 f6	 mov	 BYTE PTR __k$[ebp+18], dl
  00146	8a 50 13	 mov	 dl, BYTE PTR [eax+19]
  00149	84 d2		 test	 dl, dl
  0014b	74 1a		 je	 SHORT $LN77@LoadString@5
  0014d	8a 40 14	 mov	 al, BYTE PTR [eax+20]
  00150	80 f2 ea	 xor	 dl, -22			; ffffffeaH
  00153	88 55 f7	 mov	 BYTE PTR __k$[ebp+19], dl
  00156	84 c0		 test	 al, al
  00158	74 07		 je	 SHORT $LN76@LoadString@5
  0015a	34 ed		 xor	 al, -19			; ffffffedH
  0015c	88 45 f8	 mov	 BYTE PTR __k$[ebp+20], al
  0015f	eb 72		 jmp	 SHORT $LN111@LoadString@5
$LN76@LoadString@5:
  00161	c6 45 f8 ed	 mov	 BYTE PTR __k$[ebp+20], -19 ; ffffffedH
  00165	eb 6c		 jmp	 SHORT $LN111@LoadString@5
$LN77@LoadString@5:
  00167	c6 45 f7 ea	 mov	 BYTE PTR __k$[ebp+19], -22 ; ffffffeaH
  0016b	eb 66		 jmp	 SHORT $LN111@LoadString@5
$LN78@LoadString@5:
  0016d	c6 45 f6 eb	 mov	 BYTE PTR __k$[ebp+18], -21 ; ffffffebH
  00171	eb 60		 jmp	 SHORT $LN111@LoadString@5
$LN79@LoadString@5:
  00173	88 4d f5	 mov	 BYTE PTR __k$[ebp+17], cl
  00176	eb 5b		 jmp	 SHORT $LN111@LoadString@5
$LN81@LoadString@5:
  00178	c6 45 f3 ea	 mov	 BYTE PTR __k$[ebp+15], -22 ; ffffffeaH
  0017c	eb 55		 jmp	 SHORT $LN111@LoadString@5
$LN82@LoadString@5:
  0017e	c6 45 f2 eb	 mov	 BYTE PTR __k$[ebp+14], -21 ; ffffffebH
  00182	eb 4f		 jmp	 SHORT $LN111@LoadString@5
$LN83@LoadString@5:
  00184	88 4d f1	 mov	 BYTE PTR __k$[ebp+13], cl
  00187	eb 4a		 jmp	 SHORT $LN111@LoadString@5
$LN84@LoadString@5:
  00189	c6 45 f0 ed	 mov	 BYTE PTR __k$[ebp+12], -19 ; ffffffedH
  0018d	eb 44		 jmp	 SHORT $LN111@LoadString@5
$LN85@LoadString@5:
  0018f	c6 45 ef ea	 mov	 BYTE PTR __k$[ebp+11], -22 ; ffffffeaH
  00193	eb 3e		 jmp	 SHORT $LN111@LoadString@5
$LN86@LoadString@5:
  00195	c6 45 ee eb	 mov	 BYTE PTR __k$[ebp+10], -21 ; ffffffebH
  00199	eb 38		 jmp	 SHORT $LN111@LoadString@5
$LN87@LoadString@5:
  0019b	88 4d ed	 mov	 BYTE PTR __k$[ebp+9], cl
  0019e	eb 33		 jmp	 SHORT $LN111@LoadString@5
$LN88@LoadString@5:
  001a0	c6 45 ec ed	 mov	 BYTE PTR __k$[ebp+8], -19 ; ffffffedH
  001a4	eb 2d		 jmp	 SHORT $LN111@LoadString@5
$LN89@LoadString@5:
  001a6	c6 45 eb ea	 mov	 BYTE PTR __k$[ebp+7], -22 ; ffffffeaH
  001aa	eb 27		 jmp	 SHORT $LN111@LoadString@5
$LN90@LoadString@5:
  001ac	c6 45 ea eb	 mov	 BYTE PTR __k$[ebp+6], -21 ; ffffffebH
  001b0	eb 21		 jmp	 SHORT $LN111@LoadString@5
$LN91@LoadString@5:
  001b2	88 4d e9	 mov	 BYTE PTR __k$[ebp+5], cl
  001b5	eb 1c		 jmp	 SHORT $LN111@LoadString@5
$LN92@LoadString@5:
  001b7	c6 45 e8 ed	 mov	 BYTE PTR __k$[ebp+4], -19 ; ffffffedH
  001bb	eb 16		 jmp	 SHORT $LN111@LoadString@5
$LN93@LoadString@5:
  001bd	c6 45 e7 ea	 mov	 BYTE PTR __k$[ebp+3], -22 ; ffffffeaH
  001c1	eb 10		 jmp	 SHORT $LN111@LoadString@5
$LN94@LoadString@5:
  001c3	c6 45 e6 eb	 mov	 BYTE PTR __k$[ebp+2], -21 ; ffffffebH
  001c7	eb 0a		 jmp	 SHORT $LN111@LoadString@5
$LN95@LoadString@5:
  001c9	c6 45 e5 ec	 mov	 BYTE PTR __k$[ebp+1], -20 ; ffffffecH
  001cd	eb 04		 jmp	 SHORT $LN111@LoadString@5
$LN96@LoadString@5:
  001cf	c6 45 e4 ed	 mov	 BYTE PTR __k$[ebp], -19	; ffffffedH
$LN111@LoadString@5:
  001d3	6a 04		 push	 4
  001d5	8d 45 e4	 lea	 eax, DWORD PTR __k$[ebp]
  001d8	c6 45 f4 00	 mov	 BYTE PTR __k$[ebp+16], 0
  001dc	5a		 pop	 edx
$LL104@LoadString@5:
  001dd	81 30 ed ec eb
	ea		 xor	 DWORD PTR [eax], -353637139 ; eaebecedH
  001e3	83 c0 04	 add	 eax, 4
  001e6	4a		 dec	 edx
  001e7	75 f4		 jne	 SHORT $LL104@LoadString@5

; 163  : 		LoadString(_k, d, b, i);

  001e9	ff 75 14	 push	 DWORD PTR _i$[ebp]
  001ec	8b 4d e0	 mov	 ecx, DWORD PTR _this$GSCopy$[ebp]
  001ef	57		 push	 edi
  001f0	56		 push	 esi
  001f1	8d 45 e4	 lea	 eax, DWORD PTR __k$[ebp]
  001f4	50		 push	 eax
  001f5	ff 15 00 00 00
	00		 call	 DWORD PTR __imp_?LoadStringA@ioINILoader@@QAEXPBD0PADH@Z

; 164  : 	}

  001fb	8b 4d fc	 mov	 ecx, DWORD PTR __$ArrayPad$[ebp]
  001fe	5f		 pop	 edi
  001ff	33 cd		 xor	 ecx, ebp
  00201	5e		 pop	 esi
  00202	e8 00 00 00 00	 call	 @__security_check_cookie@4
  00207	c9		 leave
  00208	c2 10 00	 ret	 16			; 00000010H
??$LoadString_e@$0BB@@ioINILoader@@QAEXAAY0BB@$$CBDAAY00$$CBDPADH@Z ENDP ; ioINILoader::LoadString_e<17>
_TEXT	ENDS
PUBLIC	_this$GSCopy$
PUBLIC	__$ArrayPad$
PUBLIC	??$LoadString_e@$0BG@@ioINILoader@@QAEXAAY0BG@$$CBDAAY00$$CBDPADH@Z ; ioINILoader::LoadString_e<22>
; Function compile flags: /Ogsp
;	COMDAT ??$LoadString_e@$0BG@@ioINILoader@@QAEXAAY0BG@$$CBDAAY00$$CBDPADH@Z
_TEXT	SEGMENT
_this$GSCopy$ = -36					; size = 4
__k$ = -32						; size = 22
__$ArrayPad$ = -4					; size = 4
_k$ = 8							; size = 4
_d$ = 12						; size = 4
_b$ = 16						; size = 4
_i$ = 20						; size = 4
??$LoadString_e@$0BG@@ioINILoader@@QAEXAAY0BG@$$CBDAAY00$$CBDPADH@Z PROC ; ioINILoader::LoadString_e<22>, COMDAT
; _this$ = ecx

; 161  : 	{

  00000	55		 push	 ebp
  00001	8b ec		 mov	 ebp, esp
  00003	83 ec 24	 sub	 esp, 36			; 00000024H
  00006	a1 00 00 00 00	 mov	 eax, DWORD PTR ___security_cookie
  0000b	33 c5		 xor	 eax, ebp
  0000d	89 45 fc	 mov	 DWORD PTR __$ArrayPad$[ebp], eax
  00010	8b 45 08	 mov	 eax, DWORD PTR _k$[ebp]

; 162  : 		_ENCSTR(k, _k);

  00013	8a 10		 mov	 dl, BYTE PTR [eax]
  00015	53		 push	 ebx
  00016	56		 push	 esi
  00017	8b 75 0c	 mov	 esi, DWORD PTR _d$[ebp]
  0001a	57		 push	 edi
  0001b	8b 7d 10	 mov	 edi, DWORD PTR _b$[ebp]
  0001e	89 4d dc	 mov	 DWORD PTR _this$GSCopy$[ebp], ecx
  00021	84 d2		 test	 dl, dl
  00023	0f 84 15 02 00
	00		 je	 $LN96@LoadString@6
  00029	80 f2 ed	 xor	 dl, -19			; ffffffedH
  0002c	88 55 e0	 mov	 BYTE PTR __k$[ebp], dl
  0002f	8a 50 01	 mov	 dl, BYTE PTR [eax+1]
  00032	84 d2		 test	 dl, dl
  00034	0f 84 fe 01 00
	00		 je	 $LN95@LoadString@6
  0003a	80 f2 ec	 xor	 dl, -20			; ffffffecH
  0003d	88 55 e1	 mov	 BYTE PTR __k$[ebp+1], dl
  00040	8a 50 02	 mov	 dl, BYTE PTR [eax+2]
  00043	84 d2		 test	 dl, dl
  00045	0f 84 e7 01 00
	00		 je	 $LN94@LoadString@6
  0004b	b1 eb		 mov	 cl, -21			; ffffffebH
  0004d	32 d1		 xor	 dl, cl
  0004f	88 55 e2	 mov	 BYTE PTR __k$[ebp+2], dl
  00052	8a 50 03	 mov	 dl, BYTE PTR [eax+3]
  00055	84 d2		 test	 dl, dl
  00057	0f 84 cf 01 00
	00		 je	 $LN93@LoadString@6
  0005d	b3 ea		 mov	 bl, -22			; ffffffeaH
  0005f	32 d3		 xor	 dl, bl
  00061	88 55 e3	 mov	 BYTE PTR __k$[ebp+3], dl
  00064	8a 50 04	 mov	 dl, BYTE PTR [eax+4]
  00067	84 d2		 test	 dl, dl
  00069	0f 84 b7 01 00
	00		 je	 $LN92@LoadString@6
  0006f	80 f2 ed	 xor	 dl, -19			; ffffffedH
  00072	88 55 e4	 mov	 BYTE PTR __k$[ebp+4], dl
  00075	8a 50 05	 mov	 dl, BYTE PTR [eax+5]
  00078	84 d2		 test	 dl, dl
  0007a	0f 84 a0 01 00
	00		 je	 $LN91@LoadString@6
  00080	80 f2 ec	 xor	 dl, -20			; ffffffecH
  00083	88 55 e5	 mov	 BYTE PTR __k$[ebp+5], dl
  00086	8a 50 06	 mov	 dl, BYTE PTR [eax+6]
  00089	84 d2		 test	 dl, dl
  0008b	0f 84 8a 01 00
	00		 je	 $LN90@LoadString@6
  00091	32 d1		 xor	 dl, cl
  00093	88 55 e6	 mov	 BYTE PTR __k$[ebp+6], dl
  00096	8a 50 07	 mov	 dl, BYTE PTR [eax+7]
  00099	84 d2		 test	 dl, dl
  0009b	0f 84 75 01 00
	00		 je	 $LN89@LoadString@6
  000a1	32 d3		 xor	 dl, bl
  000a3	88 55 e7	 mov	 BYTE PTR __k$[ebp+7], dl
  000a6	8a 50 08	 mov	 dl, BYTE PTR [eax+8]
  000a9	84 d2		 test	 dl, dl
  000ab	0f 84 5f 01 00
	00		 je	 $LN88@LoadString@6
  000b1	80 f2 ed	 xor	 dl, -19			; ffffffedH
  000b4	88 55 e8	 mov	 BYTE PTR __k$[ebp+8], dl
  000b7	8a 50 09	 mov	 dl, BYTE PTR [eax+9]
  000ba	84 d2		 test	 dl, dl
  000bc	0f 84 48 01 00
	00		 je	 $LN87@LoadString@6
  000c2	80 f2 ec	 xor	 dl, -20			; ffffffecH
  000c5	88 55 e9	 mov	 BYTE PTR __k$[ebp+9], dl
  000c8	8a 50 0a	 mov	 dl, BYTE PTR [eax+10]
  000cb	84 d2		 test	 dl, dl
  000cd	0f 84 32 01 00
	00		 je	 $LN86@LoadString@6
  000d3	32 d1		 xor	 dl, cl
  000d5	88 55 ea	 mov	 BYTE PTR __k$[ebp+10], dl
  000d8	8a 50 0b	 mov	 dl, BYTE PTR [eax+11]
  000db	84 d2		 test	 dl, dl
  000dd	0f 84 1d 01 00
	00		 je	 $LN85@LoadString@6
  000e3	32 d3		 xor	 dl, bl
  000e5	88 55 eb	 mov	 BYTE PTR __k$[ebp+11], dl
  000e8	8a 50 0c	 mov	 dl, BYTE PTR [eax+12]
  000eb	84 d2		 test	 dl, dl
  000ed	0f 84 07 01 00
	00		 je	 $LN84@LoadString@6
  000f3	80 f2 ed	 xor	 dl, -19			; ffffffedH
  000f6	88 55 ec	 mov	 BYTE PTR __k$[ebp+12], dl
  000f9	8a 50 0d	 mov	 dl, BYTE PTR [eax+13]
  000fc	84 d2		 test	 dl, dl
  000fe	0f 84 f0 00 00
	00		 je	 $LN83@LoadString@6
  00104	80 f2 ec	 xor	 dl, -20			; ffffffecH
  00107	88 55 ed	 mov	 BYTE PTR __k$[ebp+13], dl
  0010a	8a 50 0e	 mov	 dl, BYTE PTR [eax+14]
  0010d	84 d2		 test	 dl, dl
  0010f	0f 84 da 00 00
	00		 je	 $LN82@LoadString@6
  00115	32 d1		 xor	 dl, cl
  00117	88 55 ee	 mov	 BYTE PTR __k$[ebp+14], dl
  0011a	8a 50 0f	 mov	 dl, BYTE PTR [eax+15]
  0011d	84 d2		 test	 dl, dl
  0011f	0f 84 c5 00 00
	00		 je	 $LN81@LoadString@6
  00125	32 d3		 xor	 dl, bl
  00127	88 55 ef	 mov	 BYTE PTR __k$[ebp+15], dl
  0012a	8a 50 10	 mov	 dl, BYTE PTR [eax+16]
  0012d	84 d2		 test	 dl, dl
  0012f	0f 84 af 00 00
	00		 je	 $LN80@LoadString@6
  00135	80 f2 ed	 xor	 dl, -19			; ffffffedH
  00138	88 55 f0	 mov	 BYTE PTR __k$[ebp+16], dl
  0013b	8a 50 11	 mov	 dl, BYTE PTR [eax+17]
  0013e	84 d2		 test	 dl, dl
  00140	0f 84 98 00 00
	00		 je	 $LN79@LoadString@6
  00146	80 f2 ec	 xor	 dl, -20			; ffffffecH
  00149	88 55 f1	 mov	 BYTE PTR __k$[ebp+17], dl
  0014c	8a 50 12	 mov	 dl, BYTE PTR [eax+18]
  0014f	84 d2		 test	 dl, dl
  00151	0f 84 82 00 00
	00		 je	 $LN78@LoadString@6
  00157	32 d1		 xor	 dl, cl
  00159	88 55 f2	 mov	 BYTE PTR __k$[ebp+18], dl
  0015c	8a 50 13	 mov	 dl, BYTE PTR [eax+19]
  0015f	84 d2		 test	 dl, dl
  00161	74 71		 je	 SHORT $LN77@LoadString@6
  00163	32 d3		 xor	 dl, bl
  00165	88 55 f3	 mov	 BYTE PTR __k$[ebp+19], dl
  00168	8a 50 14	 mov	 dl, BYTE PTR [eax+20]
  0016b	84 d2		 test	 dl, dl
  0016d	74 5f		 je	 SHORT $LN76@LoadString@6
  0016f	80 f2 ed	 xor	 dl, -19			; ffffffedH
  00172	80 78 15 00	 cmp	 BYTE PTR [eax+21], 0
  00176	88 55 f4	 mov	 BYTE PTR __k$[ebp+20], dl
  00179	0f 84 c3 00 00
	00		 je	 $LN111@LoadString@6
  0017f	8a 50 16	 mov	 dl, BYTE PTR [eax+22]
  00182	84 d2		 test	 dl, dl
  00184	74 43		 je	 SHORT $LN74@LoadString@6
  00186	32 d1		 xor	 dl, cl
  00188	88 55 f6	 mov	 BYTE PTR __k$[ebp+22], dl
  0018b	8a 50 17	 mov	 dl, BYTE PTR [eax+23]
  0018e	84 d2		 test	 dl, dl
  00190	74 32		 je	 SHORT $LN73@LoadString@6
  00192	32 d3		 xor	 dl, bl
  00194	88 55 f7	 mov	 BYTE PTR __k$[ebp+23], dl
  00197	8a 50 18	 mov	 dl, BYTE PTR [eax+24]
  0019a	84 d2		 test	 dl, dl
  0019c	74 20		 je	 SHORT $LN72@LoadString@6
  0019e	8a 40 19	 mov	 al, BYTE PTR [eax+25]
  001a1	80 f2 ed	 xor	 dl, -19			; ffffffedH
  001a4	88 55 f8	 mov	 BYTE PTR __k$[ebp+24], dl
  001a7	84 c0		 test	 al, al
  001a9	74 0a		 je	 SHORT $LN71@LoadString@6
  001ab	34 ec		 xor	 al, -20			; ffffffecH
  001ad	88 45 f9	 mov	 BYTE PTR __k$[ebp+25], al
  001b0	e9 8d 00 00 00	 jmp	 $LN111@LoadString@6
$LN71@LoadString@6:
  001b5	c6 45 f9 ec	 mov	 BYTE PTR __k$[ebp+25], -20 ; ffffffecH
  001b9	e9 84 00 00 00	 jmp	 $LN111@LoadString@6
$LN72@LoadString@6:
  001be	c6 45 f8 ed	 mov	 BYTE PTR __k$[ebp+24], -19 ; ffffffedH
  001c2	eb 7e		 jmp	 SHORT $LN111@LoadString@6
$LN73@LoadString@6:
  001c4	88 5d f7	 mov	 BYTE PTR __k$[ebp+23], bl
  001c7	eb 79		 jmp	 SHORT $LN111@LoadString@6
$LN74@LoadString@6:
  001c9	88 4d f6	 mov	 BYTE PTR __k$[ebp+22], cl
  001cc	eb 74		 jmp	 SHORT $LN111@LoadString@6
$LN76@LoadString@6:
  001ce	c6 45 f4 ed	 mov	 BYTE PTR __k$[ebp+20], -19 ; ffffffedH
  001d2	eb 6e		 jmp	 SHORT $LN111@LoadString@6
$LN77@LoadString@6:
  001d4	88 5d f3	 mov	 BYTE PTR __k$[ebp+19], bl
  001d7	eb 69		 jmp	 SHORT $LN111@LoadString@6
$LN78@LoadString@6:
  001d9	88 4d f2	 mov	 BYTE PTR __k$[ebp+18], cl
  001dc	eb 64		 jmp	 SHORT $LN111@LoadString@6
$LN79@LoadString@6:
  001de	c6 45 f1 ec	 mov	 BYTE PTR __k$[ebp+17], -20 ; ffffffecH
  001e2	eb 5e		 jmp	 SHORT $LN111@LoadString@6
$LN80@LoadString@6:
  001e4	c6 45 f0 ed	 mov	 BYTE PTR __k$[ebp+16], -19 ; ffffffedH
  001e8	eb 58		 jmp	 SHORT $LN111@LoadString@6
$LN81@LoadString@6:
  001ea	88 5d ef	 mov	 BYTE PTR __k$[ebp+15], bl
  001ed	eb 53		 jmp	 SHORT $LN111@LoadString@6
$LN82@LoadString@6:
  001ef	88 4d ee	 mov	 BYTE PTR __k$[ebp+14], cl
  001f2	eb 4e		 jmp	 SHORT $LN111@LoadString@6
$LN83@LoadString@6:
  001f4	c6 45 ed ec	 mov	 BYTE PTR __k$[ebp+13], -20 ; ffffffecH
  001f8	eb 48		 jmp	 SHORT $LN111@LoadString@6
$LN84@LoadString@6:
  001fa	c6 45 ec ed	 mov	 BYTE PTR __k$[ebp+12], -19 ; ffffffedH
  001fe	eb 42		 jmp	 SHORT $LN111@LoadString@6
$LN85@LoadString@6:
  00200	88 5d eb	 mov	 BYTE PTR __k$[ebp+11], bl
  00203	eb 3d		 jmp	 SHORT $LN111@LoadString@6
$LN86@LoadString@6:
  00205	88 4d ea	 mov	 BYTE PTR __k$[ebp+10], cl
  00208	eb 38		 jmp	 SHORT $LN111@LoadString@6
$LN87@LoadString@6:
  0020a	c6 45 e9 ec	 mov	 BYTE PTR __k$[ebp+9], -20 ; ffffffecH
  0020e	eb 32		 jmp	 SHORT $LN111@LoadString@6
$LN88@LoadString@6:
  00210	c6 45 e8 ed	 mov	 BYTE PTR __k$[ebp+8], -19 ; ffffffedH
  00214	eb 2c		 jmp	 SHORT $LN111@LoadString@6
$LN89@LoadString@6:
  00216	88 5d e7	 mov	 BYTE PTR __k$[ebp+7], bl
  00219	eb 27		 jmp	 SHORT $LN111@LoadString@6
$LN90@LoadString@6:
  0021b	88 4d e6	 mov	 BYTE PTR __k$[ebp+6], cl
  0021e	eb 22		 jmp	 SHORT $LN111@LoadString@6
$LN91@LoadString@6:
  00220	c6 45 e5 ec	 mov	 BYTE PTR __k$[ebp+5], -20 ; ffffffecH
  00224	eb 1c		 jmp	 SHORT $LN111@LoadString@6
$LN92@LoadString@6:
  00226	c6 45 e4 ed	 mov	 BYTE PTR __k$[ebp+4], -19 ; ffffffedH
  0022a	eb 16		 jmp	 SHORT $LN111@LoadString@6
$LN93@LoadString@6:
  0022c	c6 45 e3 ea	 mov	 BYTE PTR __k$[ebp+3], -22 ; ffffffeaH
  00230	eb 10		 jmp	 SHORT $LN111@LoadString@6
$LN94@LoadString@6:
  00232	c6 45 e2 eb	 mov	 BYTE PTR __k$[ebp+2], -21 ; ffffffebH
  00236	eb 0a		 jmp	 SHORT $LN111@LoadString@6
$LN95@LoadString@6:
  00238	c6 45 e1 ec	 mov	 BYTE PTR __k$[ebp+1], -20 ; ffffffecH
  0023c	eb 04		 jmp	 SHORT $LN111@LoadString@6
$LN96@LoadString@6:
  0023e	c6 45 e0 ed	 mov	 BYTE PTR __k$[ebp], -19	; ffffffedH
$LN111@LoadString@6:
  00242	6a 05		 push	 5
  00244	8d 45 e0	 lea	 eax, DWORD PTR __k$[ebp]
  00247	c6 45 f5 00	 mov	 BYTE PTR __k$[ebp+21], 0
  0024b	5a		 pop	 edx
$LL104@LoadString@6:
  0024c	81 30 ed ec eb
	ea		 xor	 DWORD PTR [eax], -353637139 ; eaebecedH
  00252	83 c0 04	 add	 eax, 4
  00255	4a		 dec	 edx
  00256	75 f4		 jne	 SHORT $LL104@LoadString@6

; 163  : 		LoadString(_k, d, b, i);

  00258	ff 75 14	 push	 DWORD PTR _i$[ebp]
  0025b	8b 4d dc	 mov	 ecx, DWORD PTR _this$GSCopy$[ebp]
  0025e	80 75 f4 ed	 xor	 BYTE PTR __k$[ebp+20], -19 ; ffffffedH
  00262	57		 push	 edi
  00263	56		 push	 esi
  00264	8d 45 e0	 lea	 eax, DWORD PTR __k$[ebp]
  00267	50		 push	 eax
  00268	ff 15 00 00 00
	00		 call	 DWORD PTR __imp_?LoadStringA@ioINILoader@@QAEXPBD0PADH@Z

; 164  : 	}

  0026e	8b 4d fc	 mov	 ecx, DWORD PTR __$ArrayPad$[ebp]
  00271	5f		 pop	 edi
  00272	5e		 pop	 esi
  00273	33 cd		 xor	 ecx, ebp
  00275	5b		 pop	 ebx
  00276	e8 00 00 00 00	 call	 @__security_check_cookie@4
  0027b	c9		 leave
  0027c	c2 10 00	 ret	 16			; 00000010H
??$LoadString_e@$0BG@@ioINILoader@@QAEXAAY0BG@$$CBDAAY00$$CBDPADH@Z ENDP ; ioINILoader::LoadString_e<22>
_TEXT	ENDS
PUBLIC	__$ArrayPad$
PUBLIC	??$LoadFloat_e@$0BN@@ioINILoader@@QAEMAAY0BN@$$CBDM@Z ; ioINILoader::LoadFloat_e<29>
; Function compile flags: /Ogsp
;	COMDAT ??$LoadFloat_e@$0BN@@ioINILoader@@QAEMAAY0BN@$$CBDM@Z
_TEXT	SEGMENT
__k$ = -40						; size = 29
__$ArrayPad$ = -4					; size = 4
_k$ = 8							; size = 4
_f$ = 12						; size = 4
??$LoadFloat_e@$0BN@@ioINILoader@@QAEMAAY0BN@$$CBDM@Z PROC ; ioINILoader::LoadFloat_e<29>, COMDAT
; _this$ = ecx

; 135  : 	{

  00000	55		 push	 ebp
  00001	8b ec		 mov	 ebp, esp
  00003	83 ec 28	 sub	 esp, 40			; 00000028H
  00006	a1 00 00 00 00	 mov	 eax, DWORD PTR ___security_cookie
  0000b	33 c5		 xor	 eax, ebp
  0000d	89 45 fc	 mov	 DWORD PTR __$ArrayPad$[ebp], eax
  00010	8b 45 08	 mov	 eax, DWORD PTR _k$[ebp]

; 136  : 		_ENCSTR(k, _k);

  00013	8a 10		 mov	 dl, BYTE PTR [eax]
  00015	53		 push	 ebx
  00016	56		 push	 esi
  00017	8b f1		 mov	 esi, ecx
  00019	84 d2		 test	 dl, dl
  0001b	0f 84 c3 02 00
	00		 je	 $LN96@LoadFloat_@7
  00021	80 f2 ed	 xor	 dl, -19			; ffffffedH
  00024	88 55 d8	 mov	 BYTE PTR __k$[ebp], dl
  00027	8a 50 01	 mov	 dl, BYTE PTR [eax+1]
  0002a	84 d2		 test	 dl, dl
  0002c	0f 84 ac 02 00
	00		 je	 $LN95@LoadFloat_@7
  00032	b1 ec		 mov	 cl, -20			; ffffffecH
  00034	32 d1		 xor	 dl, cl
  00036	88 55 d9	 mov	 BYTE PTR __k$[ebp+1], dl
  00039	8a 50 02	 mov	 dl, BYTE PTR [eax+2]
  0003c	84 d2		 test	 dl, dl
  0003e	0f 84 94 02 00
	00		 je	 $LN94@LoadFloat_@7
  00044	b3 eb		 mov	 bl, -21			; ffffffebH
  00046	32 d3		 xor	 dl, bl
  00048	88 55 da	 mov	 BYTE PTR __k$[ebp+2], dl
  0004b	8a 50 03	 mov	 dl, BYTE PTR [eax+3]
  0004e	84 d2		 test	 dl, dl
  00050	0f 84 7c 02 00
	00		 je	 $LN93@LoadFloat_@7
  00056	80 f2 ea	 xor	 dl, -22			; ffffffeaH
  00059	88 55 db	 mov	 BYTE PTR __k$[ebp+3], dl
  0005c	8a 50 04	 mov	 dl, BYTE PTR [eax+4]
  0005f	84 d2		 test	 dl, dl
  00061	0f 84 65 02 00
	00		 je	 $LN92@LoadFloat_@7
  00067	80 f2 ed	 xor	 dl, -19			; ffffffedH
  0006a	88 55 dc	 mov	 BYTE PTR __k$[ebp+4], dl
  0006d	8a 50 05	 mov	 dl, BYTE PTR [eax+5]
  00070	84 d2		 test	 dl, dl
  00072	0f 84 4f 02 00
	00		 je	 $LN91@LoadFloat_@7
  00078	32 d1		 xor	 dl, cl
  0007a	88 55 dd	 mov	 BYTE PTR __k$[ebp+5], dl
  0007d	8a 50 06	 mov	 dl, BYTE PTR [eax+6]
  00080	84 d2		 test	 dl, dl
  00082	0f 84 3a 02 00
	00		 je	 $LN90@LoadFloat_@7
  00088	32 d3		 xor	 dl, bl
  0008a	88 55 de	 mov	 BYTE PTR __k$[ebp+6], dl
  0008d	8a 50 07	 mov	 dl, BYTE PTR [eax+7]
  00090	84 d2		 test	 dl, dl
  00092	0f 84 24 02 00
	00		 je	 $LN89@LoadFloat_@7
  00098	80 f2 ea	 xor	 dl, -22			; ffffffeaH
  0009b	88 55 df	 mov	 BYTE PTR __k$[ebp+7], dl
  0009e	8a 50 08	 mov	 dl, BYTE PTR [eax+8]
  000a1	84 d2		 test	 dl, dl
  000a3	0f 84 0d 02 00
	00		 je	 $LN88@LoadFloat_@7
  000a9	80 f2 ed	 xor	 dl, -19			; ffffffedH
  000ac	88 55 e0	 mov	 BYTE PTR __k$[ebp+8], dl
  000af	8a 50 09	 mov	 dl, BYTE PTR [eax+9]
  000b2	84 d2		 test	 dl, dl
  000b4	0f 84 f7 01 00
	00		 je	 $LN87@LoadFloat_@7
  000ba	32 d1		 xor	 dl, cl
  000bc	88 55 e1	 mov	 BYTE PTR __k$[ebp+9], dl
  000bf	8a 50 0a	 mov	 dl, BYTE PTR [eax+10]
  000c2	84 d2		 test	 dl, dl
  000c4	0f 84 e2 01 00
	00		 je	 $LN86@LoadFloat_@7
  000ca	32 d3		 xor	 dl, bl
  000cc	88 55 e2	 mov	 BYTE PTR __k$[ebp+10], dl
  000cf	8a 50 0b	 mov	 dl, BYTE PTR [eax+11]
  000d2	84 d2		 test	 dl, dl
  000d4	0f 84 cc 01 00
	00		 je	 $LN85@LoadFloat_@7
  000da	80 f2 ea	 xor	 dl, -22			; ffffffeaH
  000dd	88 55 e3	 mov	 BYTE PTR __k$[ebp+11], dl
  000e0	8a 50 0c	 mov	 dl, BYTE PTR [eax+12]
  000e3	84 d2		 test	 dl, dl
  000e5	0f 84 b5 01 00
	00		 je	 $LN84@LoadFloat_@7
  000eb	80 f2 ed	 xor	 dl, -19			; ffffffedH
  000ee	88 55 e4	 mov	 BYTE PTR __k$[ebp+12], dl
  000f1	8a 50 0d	 mov	 dl, BYTE PTR [eax+13]
  000f4	84 d2		 test	 dl, dl
  000f6	0f 84 9f 01 00
	00		 je	 $LN83@LoadFloat_@7
  000fc	32 d1		 xor	 dl, cl
  000fe	88 55 e5	 mov	 BYTE PTR __k$[ebp+13], dl
  00101	8a 50 0e	 mov	 dl, BYTE PTR [eax+14]
  00104	84 d2		 test	 dl, dl
  00106	0f 84 8a 01 00
	00		 je	 $LN82@LoadFloat_@7
  0010c	32 d3		 xor	 dl, bl
  0010e	88 55 e6	 mov	 BYTE PTR __k$[ebp+14], dl
  00111	8a 50 0f	 mov	 dl, BYTE PTR [eax+15]
  00114	84 d2		 test	 dl, dl
  00116	0f 84 74 01 00
	00		 je	 $LN81@LoadFloat_@7
  0011c	80 f2 ea	 xor	 dl, -22			; ffffffeaH
  0011f	88 55 e7	 mov	 BYTE PTR __k$[ebp+15], dl
  00122	8a 50 10	 mov	 dl, BYTE PTR [eax+16]
  00125	84 d2		 test	 dl, dl
  00127	0f 84 5d 01 00
	00		 je	 $LN80@LoadFloat_@7
  0012d	80 f2 ed	 xor	 dl, -19			; ffffffedH
  00130	88 55 e8	 mov	 BYTE PTR __k$[ebp+16], dl
  00133	8a 50 11	 mov	 dl, BYTE PTR [eax+17]
  00136	84 d2		 test	 dl, dl
  00138	0f 84 47 01 00
	00		 je	 $LN79@LoadFloat_@7
  0013e	32 d1		 xor	 dl, cl
  00140	88 55 e9	 mov	 BYTE PTR __k$[ebp+17], dl
  00143	8a 50 12	 mov	 dl, BYTE PTR [eax+18]
  00146	84 d2		 test	 dl, dl
  00148	0f 84 32 01 00
	00		 je	 $LN78@LoadFloat_@7
  0014e	32 d3		 xor	 dl, bl
  00150	88 55 ea	 mov	 BYTE PTR __k$[ebp+18], dl
  00153	8a 50 13	 mov	 dl, BYTE PTR [eax+19]
  00156	84 d2		 test	 dl, dl
  00158	0f 84 1c 01 00
	00		 je	 $LN77@LoadFloat_@7
  0015e	80 f2 ea	 xor	 dl, -22			; ffffffeaH
  00161	88 55 eb	 mov	 BYTE PTR __k$[ebp+19], dl
  00164	8a 50 14	 mov	 dl, BYTE PTR [eax+20]
  00167	84 d2		 test	 dl, dl
  00169	0f 84 05 01 00
	00		 je	 $LN76@LoadFloat_@7
  0016f	80 f2 ed	 xor	 dl, -19			; ffffffedH
  00172	88 55 ec	 mov	 BYTE PTR __k$[ebp+20], dl
  00175	8a 50 15	 mov	 dl, BYTE PTR [eax+21]
  00178	84 d2		 test	 dl, dl
  0017a	0f 84 ef 00 00
	00		 je	 $LN75@LoadFloat_@7
  00180	32 d1		 xor	 dl, cl
  00182	88 55 ed	 mov	 BYTE PTR __k$[ebp+21], dl
  00185	8a 50 16	 mov	 dl, BYTE PTR [eax+22]
  00188	84 d2		 test	 dl, dl
  0018a	0f 84 da 00 00
	00		 je	 $LN74@LoadFloat_@7
  00190	32 d3		 xor	 dl, bl
  00192	88 55 ee	 mov	 BYTE PTR __k$[ebp+22], dl
  00195	8a 50 17	 mov	 dl, BYTE PTR [eax+23]
  00198	84 d2		 test	 dl, dl
  0019a	0f 84 c4 00 00
	00		 je	 $LN73@LoadFloat_@7
  001a0	80 f2 ea	 xor	 dl, -22			; ffffffeaH
  001a3	88 55 ef	 mov	 BYTE PTR __k$[ebp+23], dl
  001a6	8a 50 18	 mov	 dl, BYTE PTR [eax+24]
  001a9	84 d2		 test	 dl, dl
  001ab	0f 84 aa 00 00
	00		 je	 $LN72@LoadFloat_@7
  001b1	80 f2 ed	 xor	 dl, -19			; ffffffedH
  001b4	88 55 f0	 mov	 BYTE PTR __k$[ebp+24], dl
  001b7	8a 50 19	 mov	 dl, BYTE PTR [eax+25]
  001ba	84 d2		 test	 dl, dl
  001bc	0f 84 91 00 00
	00		 je	 $LN71@LoadFloat_@7
  001c2	32 d1		 xor	 dl, cl
  001c4	88 55 f1	 mov	 BYTE PTR __k$[ebp+25], dl
  001c7	8a 50 1a	 mov	 dl, BYTE PTR [eax+26]
  001ca	84 d2		 test	 dl, dl
  001cc	74 7d		 je	 SHORT $LN70@LoadFloat_@7
  001ce	32 d3		 xor	 dl, bl
  001d0	88 55 f2	 mov	 BYTE PTR __k$[ebp+26], dl
  001d3	8a 50 1b	 mov	 dl, BYTE PTR [eax+27]
  001d6	84 d2		 test	 dl, dl
  001d8	74 68		 je	 SHORT $LN69@LoadFloat_@7
  001da	80 f2 ea	 xor	 dl, -22			; ffffffeaH
  001dd	80 78 1c 00	 cmp	 BYTE PTR [eax+28], 0
  001e1	88 55 f3	 mov	 BYTE PTR __k$[ebp+27], dl
  001e4	0f 84 fe 00 00
	00		 je	 $LN1@LoadFloat_@7
  001ea	8a 50 1d	 mov	 dl, BYTE PTR [eax+29]
  001ed	84 d2		 test	 dl, dl
  001ef	74 49		 je	 SHORT $LN67@LoadFloat_@7
  001f1	32 d1		 xor	 dl, cl
  001f3	88 55 f5	 mov	 BYTE PTR __k$[ebp+29], dl
  001f6	8a 50 1e	 mov	 dl, BYTE PTR [eax+30]
  001f9	84 d2		 test	 dl, dl
  001fb	74 35		 je	 SHORT $LN66@LoadFloat_@7
  001fd	32 d3		 xor	 dl, bl
  001ff	88 55 f6	 mov	 BYTE PTR __k$[ebp+30], dl
  00202	8a 50 1f	 mov	 dl, BYTE PTR [eax+31]
  00205	84 d2		 test	 dl, dl
  00207	74 20		 je	 SHORT $LN65@LoadFloat_@7
  00209	8a 40 20	 mov	 al, BYTE PTR [eax+32]
  0020c	80 f2 ea	 xor	 dl, -22			; ffffffeaH
  0020f	88 55 f7	 mov	 BYTE PTR __k$[ebp+31], dl
  00212	84 c0		 test	 al, al
  00214	74 0a		 je	 SHORT $LN64@LoadFloat_@7
  00216	34 ed		 xor	 al, -19			; ffffffedH
  00218	88 45 f8	 mov	 BYTE PTR __k$[ebp+32], al
  0021b	e9 c8 00 00 00	 jmp	 $LN1@LoadFloat_@7
$LN64@LoadFloat_@7:
  00220	c6 45 f8 ed	 mov	 BYTE PTR __k$[ebp+32], -19 ; ffffffedH
  00224	e9 bf 00 00 00	 jmp	 $LN1@LoadFloat_@7
$LN65@LoadFloat_@7:
  00229	c6 45 f7 ea	 mov	 BYTE PTR __k$[ebp+31], -22 ; ffffffeaH
  0022d	e9 b6 00 00 00	 jmp	 $LN1@LoadFloat_@7
$LN66@LoadFloat_@7:
  00232	88 5d f6	 mov	 BYTE PTR __k$[ebp+30], bl
  00235	e9 ae 00 00 00	 jmp	 $LN1@LoadFloat_@7
$LN67@LoadFloat_@7:
  0023a	88 4d f5	 mov	 BYTE PTR __k$[ebp+29], cl
  0023d	e9 a6 00 00 00	 jmp	 $LN1@LoadFloat_@7
$LN69@LoadFloat_@7:
  00242	c6 45 f3 ea	 mov	 BYTE PTR __k$[ebp+27], -22 ; ffffffeaH
  00246	e9 9d 00 00 00	 jmp	 $LN1@LoadFloat_@7
$LN70@LoadFloat_@7:
  0024b	88 5d f2	 mov	 BYTE PTR __k$[ebp+26], bl
  0024e	e9 95 00 00 00	 jmp	 $LN1@LoadFloat_@7
$LN71@LoadFloat_@7:
  00253	88 4d f1	 mov	 BYTE PTR __k$[ebp+25], cl
  00256	e9 8d 00 00 00	 jmp	 $LN1@LoadFloat_@7
$LN72@LoadFloat_@7:
  0025b	c6 45 f0 ed	 mov	 BYTE PTR __k$[ebp+24], -19 ; ffffffedH
  0025f	e9 84 00 00 00	 jmp	 $LN1@LoadFloat_@7
$LN73@LoadFloat_@7:
  00264	c6 45 ef ea	 mov	 BYTE PTR __k$[ebp+23], -22 ; ffffffeaH
  00268	eb 7e		 jmp	 SHORT $LN1@LoadFloat_@7
$LN74@LoadFloat_@7:
  0026a	88 5d ee	 mov	 BYTE PTR __k$[ebp+22], bl
  0026d	eb 79		 jmp	 SHORT $LN1@LoadFloat_@7
$LN75@LoadFloat_@7:
  0026f	88 4d ed	 mov	 BYTE PTR __k$[ebp+21], cl
  00272	eb 74		 jmp	 SHORT $LN1@LoadFloat_@7
$LN76@LoadFloat_@7:
  00274	c6 45 ec ed	 mov	 BYTE PTR __k$[ebp+20], -19 ; ffffffedH
  00278	eb 6e		 jmp	 SHORT $LN1@LoadFloat_@7
$LN77@LoadFloat_@7:
  0027a	c6 45 eb ea	 mov	 BYTE PTR __k$[ebp+19], -22 ; ffffffeaH
  0027e	eb 68		 jmp	 SHORT $LN1@LoadFloat_@7
$LN78@LoadFloat_@7:
  00280	88 5d ea	 mov	 BYTE PTR __k$[ebp+18], bl
  00283	eb 63		 jmp	 SHORT $LN1@LoadFloat_@7
$LN79@LoadFloat_@7:
  00285	88 4d e9	 mov	 BYTE PTR __k$[ebp+17], cl
  00288	eb 5e		 jmp	 SHORT $LN1@LoadFloat_@7
$LN80@LoadFloat_@7:
  0028a	c6 45 e8 ed	 mov	 BYTE PTR __k$[ebp+16], -19 ; ffffffedH
  0028e	eb 58		 jmp	 SHORT $LN1@LoadFloat_@7
$LN81@LoadFloat_@7:
  00290	c6 45 e7 ea	 mov	 BYTE PTR __k$[ebp+15], -22 ; ffffffeaH
  00294	eb 52		 jmp	 SHORT $LN1@LoadFloat_@7
$LN82@LoadFloat_@7:
  00296	88 5d e6	 mov	 BYTE PTR __k$[ebp+14], bl
  00299	eb 4d		 jmp	 SHORT $LN1@LoadFloat_@7
$LN83@LoadFloat_@7:
  0029b	88 4d e5	 mov	 BYTE PTR __k$[ebp+13], cl
  0029e	eb 48		 jmp	 SHORT $LN1@LoadFloat_@7
$LN84@LoadFloat_@7:
  002a0	c6 45 e4 ed	 mov	 BYTE PTR __k$[ebp+12], -19 ; ffffffedH
  002a4	eb 42		 jmp	 SHORT $LN1@LoadFloat_@7
$LN85@LoadFloat_@7:
  002a6	c6 45 e3 ea	 mov	 BYTE PTR __k$[ebp+11], -22 ; ffffffeaH
  002aa	eb 3c		 jmp	 SHORT $LN1@LoadFloat_@7
$LN86@LoadFloat_@7:
  002ac	88 5d e2	 mov	 BYTE PTR __k$[ebp+10], bl
  002af	eb 37		 jmp	 SHORT $LN1@LoadFloat_@7
$LN87@LoadFloat_@7:
  002b1	88 4d e1	 mov	 BYTE PTR __k$[ebp+9], cl
  002b4	eb 32		 jmp	 SHORT $LN1@LoadFloat_@7
$LN88@LoadFloat_@7:
  002b6	c6 45 e0 ed	 mov	 BYTE PTR __k$[ebp+8], -19 ; ffffffedH
  002ba	eb 2c		 jmp	 SHORT $LN1@LoadFloat_@7
$LN89@LoadFloat_@7:
  002bc	c6 45 df ea	 mov	 BYTE PTR __k$[ebp+7], -22 ; ffffffeaH
  002c0	eb 26		 jmp	 SHORT $LN1@LoadFloat_@7
$LN90@LoadFloat_@7:
  002c2	88 5d de	 mov	 BYTE PTR __k$[ebp+6], bl
  002c5	eb 21		 jmp	 SHORT $LN1@LoadFloat_@7
$LN91@LoadFloat_@7:
  002c7	88 4d dd	 mov	 BYTE PTR __k$[ebp+5], cl
  002ca	eb 1c		 jmp	 SHORT $LN1@LoadFloat_@7
$LN92@LoadFloat_@7:
  002cc	c6 45 dc ed	 mov	 BYTE PTR __k$[ebp+4], -19 ; ffffffedH
  002d0	eb 16		 jmp	 SHORT $LN1@LoadFloat_@7
$LN93@LoadFloat_@7:
  002d2	c6 45 db ea	 mov	 BYTE PTR __k$[ebp+3], -22 ; ffffffeaH
  002d6	eb 10		 jmp	 SHORT $LN1@LoadFloat_@7
$LN94@LoadFloat_@7:
  002d8	c6 45 da eb	 mov	 BYTE PTR __k$[ebp+2], -21 ; ffffffebH
  002dc	eb 0a		 jmp	 SHORT $LN1@LoadFloat_@7
$LN95@LoadFloat_@7:
  002de	c6 45 d9 ec	 mov	 BYTE PTR __k$[ebp+1], -20 ; ffffffecH
  002e2	eb 04		 jmp	 SHORT $LN1@LoadFloat_@7
$LN96@LoadFloat_@7:
  002e4	c6 45 d8 ed	 mov	 BYTE PTR __k$[ebp], -19	; ffffffedH
$LN1@LoadFloat_@7:
  002e8	6a 07		 push	 7
  002ea	8d 45 d8	 lea	 eax, DWORD PTR __k$[ebp]
  002ed	c6 45 f4 00	 mov	 BYTE PTR __k$[ebp+28], 0
  002f1	5a		 pop	 edx
$LL104@LoadFloat_@7:
  002f2	81 30 ed ec eb
	ea		 xor	 DWORD PTR [eax], -353637139 ; eaebecedH
  002f8	83 c0 04	 add	 eax, 4
  002fb	4a		 dec	 edx
  002fc	75 f4		 jne	 SHORT $LL104@LoadFloat_@7

; 137  : 		return LoadFloat(_k, f);

  002fe	f3 0f 10 45 0c	 movss	 xmm0, DWORD PTR _f$[ebp]
  00303	51		 push	 ecx
  00304	8d 45 d8	 lea	 eax, DWORD PTR __k$[ebp]
  00307	f3 0f 11 04 24	 movss	 DWORD PTR [esp], xmm0
  0030c	50		 push	 eax
  0030d	8b ce		 mov	 ecx, esi
  0030f	ff 15 00 00 00
	00		 call	 DWORD PTR __imp_?LoadFloat@ioINILoader@@QAEMPBDM@Z

; 138  : 	}

  00315	8b 4d fc	 mov	 ecx, DWORD PTR __$ArrayPad$[ebp]
  00318	5e		 pop	 esi
  00319	33 cd		 xor	 ecx, ebp
  0031b	5b		 pop	 ebx
  0031c	e8 00 00 00 00	 call	 @__security_check_cookie@4
  00321	c9		 leave
  00322	c2 08 00	 ret	 8
??$LoadFloat_e@$0BN@@ioINILoader@@QAEMAAY0BN@$$CBDM@Z ENDP ; ioINILoader::LoadFloat_e<29>
_TEXT	ENDS
PUBLIC	__$ArrayPad$
PUBLIC	??$LoadInt_e@$0BF@@ioINILoader@@QAEHAAY0BF@$$CBDH@Z ; ioINILoader::LoadInt_e<21>
; Function compile flags: /Ogsp
;	COMDAT ??$LoadInt_e@$0BF@@ioINILoader@@QAEHAAY0BF@$$CBDH@Z
_TEXT	SEGMENT
__k$ = -32						; size = 21
__$ArrayPad$ = -4					; size = 4
_k$ = 8							; size = 4
_i$ = 12						; size = 4
??$LoadInt_e@$0BF@@ioINILoader@@QAEHAAY0BF@$$CBDH@Z PROC ; ioINILoader::LoadInt_e<21>, COMDAT
; _this$ = ecx

; 118  : 	{

  00000	55		 push	 ebp
  00001	8b ec		 mov	 ebp, esp
  00003	83 ec 20	 sub	 esp, 32			; 00000020H
  00006	a1 00 00 00 00	 mov	 eax, DWORD PTR ___security_cookie
  0000b	33 c5		 xor	 eax, ebp
  0000d	89 45 fc	 mov	 DWORD PTR __$ArrayPad$[ebp], eax
  00010	8b 45 08	 mov	 eax, DWORD PTR _k$[ebp]

; 119  : 		_ENCSTR(k, _k);

  00013	8a 10		 mov	 dl, BYTE PTR [eax]
  00015	53		 push	 ebx
  00016	56		 push	 esi
  00017	8b f1		 mov	 esi, ecx
  00019	84 d2		 test	 dl, dl
  0001b	0f 84 f7 01 00
	00		 je	 $LN96@LoadInt_e@2
  00021	80 f2 ed	 xor	 dl, -19			; ffffffedH
  00024	88 55 e0	 mov	 BYTE PTR __k$[ebp], dl
  00027	8a 50 01	 mov	 dl, BYTE PTR [eax+1]
  0002a	84 d2		 test	 dl, dl
  0002c	0f 84 e0 01 00
	00		 je	 $LN95@LoadInt_e@2
  00032	b1 ec		 mov	 cl, -20			; ffffffecH
  00034	32 d1		 xor	 dl, cl
  00036	88 55 e1	 mov	 BYTE PTR __k$[ebp+1], dl
  00039	8a 50 02	 mov	 dl, BYTE PTR [eax+2]
  0003c	84 d2		 test	 dl, dl
  0003e	0f 84 c8 01 00
	00		 je	 $LN94@LoadInt_e@2
  00044	b3 eb		 mov	 bl, -21			; ffffffebH
  00046	32 d3		 xor	 dl, bl
  00048	88 55 e2	 mov	 BYTE PTR __k$[ebp+2], dl
  0004b	8a 50 03	 mov	 dl, BYTE PTR [eax+3]
  0004e	84 d2		 test	 dl, dl
  00050	0f 84 b0 01 00
	00		 je	 $LN93@LoadInt_e@2
  00056	80 f2 ea	 xor	 dl, -22			; ffffffeaH
  00059	88 55 e3	 mov	 BYTE PTR __k$[ebp+3], dl
  0005c	8a 50 04	 mov	 dl, BYTE PTR [eax+4]
  0005f	84 d2		 test	 dl, dl
  00061	0f 84 99 01 00
	00		 je	 $LN92@LoadInt_e@2
  00067	80 f2 ed	 xor	 dl, -19			; ffffffedH
  0006a	88 55 e4	 mov	 BYTE PTR __k$[ebp+4], dl
  0006d	8a 50 05	 mov	 dl, BYTE PTR [eax+5]
  00070	84 d2		 test	 dl, dl
  00072	0f 84 83 01 00
	00		 je	 $LN91@LoadInt_e@2
  00078	32 d1		 xor	 dl, cl
  0007a	88 55 e5	 mov	 BYTE PTR __k$[ebp+5], dl
  0007d	8a 50 06	 mov	 dl, BYTE PTR [eax+6]
  00080	84 d2		 test	 dl, dl
  00082	0f 84 6e 01 00
	00		 je	 $LN90@LoadInt_e@2
  00088	32 d3		 xor	 dl, bl
  0008a	88 55 e6	 mov	 BYTE PTR __k$[ebp+6], dl
  0008d	8a 50 07	 mov	 dl, BYTE PTR [eax+7]
  00090	84 d2		 test	 dl, dl
  00092	0f 84 58 01 00
	00		 je	 $LN89@LoadInt_e@2
  00098	80 f2 ea	 xor	 dl, -22			; ffffffeaH
  0009b	88 55 e7	 mov	 BYTE PTR __k$[ebp+7], dl
  0009e	8a 50 08	 mov	 dl, BYTE PTR [eax+8]
  000a1	84 d2		 test	 dl, dl
  000a3	0f 84 41 01 00
	00		 je	 $LN88@LoadInt_e@2
  000a9	80 f2 ed	 xor	 dl, -19			; ffffffedH
  000ac	88 55 e8	 mov	 BYTE PTR __k$[ebp+8], dl
  000af	8a 50 09	 mov	 dl, BYTE PTR [eax+9]
  000b2	84 d2		 test	 dl, dl
  000b4	0f 84 2b 01 00
	00		 je	 $LN87@LoadInt_e@2
  000ba	32 d1		 xor	 dl, cl
  000bc	88 55 e9	 mov	 BYTE PTR __k$[ebp+9], dl
  000bf	8a 50 0a	 mov	 dl, BYTE PTR [eax+10]
  000c2	84 d2		 test	 dl, dl
  000c4	0f 84 16 01 00
	00		 je	 $LN86@LoadInt_e@2
  000ca	32 d3		 xor	 dl, bl
  000cc	88 55 ea	 mov	 BYTE PTR __k$[ebp+10], dl
  000cf	8a 50 0b	 mov	 dl, BYTE PTR [eax+11]
  000d2	84 d2		 test	 dl, dl
  000d4	0f 84 00 01 00
	00		 je	 $LN85@LoadInt_e@2
  000da	80 f2 ea	 xor	 dl, -22			; ffffffeaH
  000dd	88 55 eb	 mov	 BYTE PTR __k$[ebp+11], dl
  000e0	8a 50 0c	 mov	 dl, BYTE PTR [eax+12]
  000e3	84 d2		 test	 dl, dl
  000e5	0f 84 e9 00 00
	00		 je	 $LN84@LoadInt_e@2
  000eb	80 f2 ed	 xor	 dl, -19			; ffffffedH
  000ee	88 55 ec	 mov	 BYTE PTR __k$[ebp+12], dl
  000f1	8a 50 0d	 mov	 dl, BYTE PTR [eax+13]
  000f4	84 d2		 test	 dl, dl
  000f6	0f 84 d3 00 00
	00		 je	 $LN83@LoadInt_e@2
  000fc	32 d1		 xor	 dl, cl
  000fe	88 55 ed	 mov	 BYTE PTR __k$[ebp+13], dl
  00101	8a 50 0e	 mov	 dl, BYTE PTR [eax+14]
  00104	84 d2		 test	 dl, dl
  00106	0f 84 be 00 00
	00		 je	 $LN82@LoadInt_e@2
  0010c	32 d3		 xor	 dl, bl
  0010e	88 55 ee	 mov	 BYTE PTR __k$[ebp+14], dl
  00111	8a 50 0f	 mov	 dl, BYTE PTR [eax+15]
  00114	84 d2		 test	 dl, dl
  00116	0f 84 a8 00 00
	00		 je	 $LN81@LoadInt_e@2
  0011c	80 f2 ea	 xor	 dl, -22			; ffffffeaH
  0011f	88 55 ef	 mov	 BYTE PTR __k$[ebp+15], dl
  00122	8a 50 10	 mov	 dl, BYTE PTR [eax+16]
  00125	84 d2		 test	 dl, dl
  00127	0f 84 91 00 00
	00		 je	 $LN80@LoadInt_e@2
  0012d	80 f2 ed	 xor	 dl, -19			; ffffffedH
  00130	88 55 f0	 mov	 BYTE PTR __k$[ebp+16], dl
  00133	8a 50 11	 mov	 dl, BYTE PTR [eax+17]
  00136	84 d2		 test	 dl, dl
  00138	74 7f		 je	 SHORT $LN79@LoadInt_e@2
  0013a	32 d1		 xor	 dl, cl
  0013c	88 55 f1	 mov	 BYTE PTR __k$[ebp+17], dl
  0013f	8a 50 12	 mov	 dl, BYTE PTR [eax+18]
  00142	84 d2		 test	 dl, dl
  00144	74 6e		 je	 SHORT $LN78@LoadInt_e@2
  00146	32 d3		 xor	 dl, bl
  00148	88 55 f2	 mov	 BYTE PTR __k$[ebp+18], dl
  0014b	8a 50 13	 mov	 dl, BYTE PTR [eax+19]
  0014e	84 d2		 test	 dl, dl
  00150	74 5c		 je	 SHORT $LN77@LoadInt_e@2
  00152	80 f2 ea	 xor	 dl, -22			; ffffffeaH
  00155	80 78 14 00	 cmp	 BYTE PTR [eax+20], 0
  00159	88 55 f3	 mov	 BYTE PTR __k$[ebp+19], dl
  0015c	0f 84 ba 00 00
	00		 je	 $LN1@LoadInt_e@2
  00162	8a 50 15	 mov	 dl, BYTE PTR [eax+21]
  00165	84 d2		 test	 dl, dl
  00167	74 40		 je	 SHORT $LN75@LoadInt_e@2
  00169	32 d1		 xor	 dl, cl
  0016b	88 55 f5	 mov	 BYTE PTR __k$[ebp+21], dl
  0016e	8a 50 16	 mov	 dl, BYTE PTR [eax+22]
  00171	84 d2		 test	 dl, dl
  00173	74 2f		 je	 SHORT $LN74@LoadInt_e@2
  00175	32 d3		 xor	 dl, bl
  00177	88 55 f6	 mov	 BYTE PTR __k$[ebp+22], dl
  0017a	8a 50 17	 mov	 dl, BYTE PTR [eax+23]
  0017d	84 d2		 test	 dl, dl
  0017f	74 1d		 je	 SHORT $LN73@LoadInt_e@2
  00181	8a 40 18	 mov	 al, BYTE PTR [eax+24]
  00184	80 f2 ea	 xor	 dl, -22			; ffffffeaH
  00187	88 55 f7	 mov	 BYTE PTR __k$[ebp+23], dl
  0018a	84 c0		 test	 al, al
  0018c	74 0a		 je	 SHORT $LN72@LoadInt_e@2
  0018e	34 ed		 xor	 al, -19			; ffffffedH
  00190	88 45 f8	 mov	 BYTE PTR __k$[ebp+24], al
  00193	e9 84 00 00 00	 jmp	 $LN1@LoadInt_e@2
$LN72@LoadInt_e@2:
  00198	c6 45 f8 ed	 mov	 BYTE PTR __k$[ebp+24], -19 ; ffffffedH
  0019c	eb 7e		 jmp	 SHORT $LN1@LoadInt_e@2
$LN73@LoadInt_e@2:
  0019e	c6 45 f7 ea	 mov	 BYTE PTR __k$[ebp+23], -22 ; ffffffeaH
  001a2	eb 78		 jmp	 SHORT $LN1@LoadInt_e@2
$LN74@LoadInt_e@2:
  001a4	88 5d f6	 mov	 BYTE PTR __k$[ebp+22], bl
  001a7	eb 73		 jmp	 SHORT $LN1@LoadInt_e@2
$LN75@LoadInt_e@2:
  001a9	88 4d f5	 mov	 BYTE PTR __k$[ebp+21], cl
  001ac	eb 6e		 jmp	 SHORT $LN1@LoadInt_e@2
$LN77@LoadInt_e@2:
  001ae	c6 45 f3 ea	 mov	 BYTE PTR __k$[ebp+19], -22 ; ffffffeaH
  001b2	eb 68		 jmp	 SHORT $LN1@LoadInt_e@2
$LN78@LoadInt_e@2:
  001b4	88 5d f2	 mov	 BYTE PTR __k$[ebp+18], bl
  001b7	eb 63		 jmp	 SHORT $LN1@LoadInt_e@2
$LN79@LoadInt_e@2:
  001b9	88 4d f1	 mov	 BYTE PTR __k$[ebp+17], cl
  001bc	eb 5e		 jmp	 SHORT $LN1@LoadInt_e@2
$LN80@LoadInt_e@2:
  001be	c6 45 f0 ed	 mov	 BYTE PTR __k$[ebp+16], -19 ; ffffffedH
  001c2	eb 58		 jmp	 SHORT $LN1@LoadInt_e@2
$LN81@LoadInt_e@2:
  001c4	c6 45 ef ea	 mov	 BYTE PTR __k$[ebp+15], -22 ; ffffffeaH
  001c8	eb 52		 jmp	 SHORT $LN1@LoadInt_e@2
$LN82@LoadInt_e@2:
  001ca	88 5d ee	 mov	 BYTE PTR __k$[ebp+14], bl
  001cd	eb 4d		 jmp	 SHORT $LN1@LoadInt_e@2
$LN83@LoadInt_e@2:
  001cf	88 4d ed	 mov	 BYTE PTR __k$[ebp+13], cl
  001d2	eb 48		 jmp	 SHORT $LN1@LoadInt_e@2
$LN84@LoadInt_e@2:
  001d4	c6 45 ec ed	 mov	 BYTE PTR __k$[ebp+12], -19 ; ffffffedH
  001d8	eb 42		 jmp	 SHORT $LN1@LoadInt_e@2
$LN85@LoadInt_e@2:
  001da	c6 45 eb ea	 mov	 BYTE PTR __k$[ebp+11], -22 ; ffffffeaH
  001de	eb 3c		 jmp	 SHORT $LN1@LoadInt_e@2
$LN86@LoadInt_e@2:
  001e0	88 5d ea	 mov	 BYTE PTR __k$[ebp+10], bl
  001e3	eb 37		 jmp	 SHORT $LN1@LoadInt_e@2
$LN87@LoadInt_e@2:
  001e5	88 4d e9	 mov	 BYTE PTR __k$[ebp+9], cl
  001e8	eb 32		 jmp	 SHORT $LN1@LoadInt_e@2
$LN88@LoadInt_e@2:
  001ea	c6 45 e8 ed	 mov	 BYTE PTR __k$[ebp+8], -19 ; ffffffedH
  001ee	eb 2c		 jmp	 SHORT $LN1@LoadInt_e@2
$LN89@LoadInt_e@2:
  001f0	c6 45 e7 ea	 mov	 BYTE PTR __k$[ebp+7], -22 ; ffffffeaH
  001f4	eb 26		 jmp	 SHORT $LN1@LoadInt_e@2
$LN90@LoadInt_e@2:
  001f6	88 5d e6	 mov	 BYTE PTR __k$[ebp+6], bl
  001f9	eb 21		 jmp	 SHORT $LN1@LoadInt_e@2
$LN91@LoadInt_e@2:
  001fb	88 4d e5	 mov	 BYTE PTR __k$[ebp+5], cl
  001fe	eb 1c		 jmp	 SHORT $LN1@LoadInt_e@2
$LN92@LoadInt_e@2:
  00200	c6 45 e4 ed	 mov	 BYTE PTR __k$[ebp+4], -19 ; ffffffedH
  00204	eb 16		 jmp	 SHORT $LN1@LoadInt_e@2
$LN93@LoadInt_e@2:
  00206	c6 45 e3 ea	 mov	 BYTE PTR __k$[ebp+3], -22 ; ffffffeaH
  0020a	eb 10		 jmp	 SHORT $LN1@LoadInt_e@2
$LN94@LoadInt_e@2:
  0020c	c6 45 e2 eb	 mov	 BYTE PTR __k$[ebp+2], -21 ; ffffffebH
  00210	eb 0a		 jmp	 SHORT $LN1@LoadInt_e@2
$LN95@LoadInt_e@2:
  00212	c6 45 e1 ec	 mov	 BYTE PTR __k$[ebp+1], -20 ; ffffffecH
  00216	eb 04		 jmp	 SHORT $LN1@LoadInt_e@2
$LN96@LoadInt_e@2:
  00218	c6 45 e0 ed	 mov	 BYTE PTR __k$[ebp], -19	; ffffffedH
$LN1@LoadInt_e@2:
  0021c	6a 05		 push	 5
  0021e	8d 45 e0	 lea	 eax, DWORD PTR __k$[ebp]
  00221	c6 45 f4 00	 mov	 BYTE PTR __k$[ebp+20], 0
  00225	5a		 pop	 edx
$LL104@LoadInt_e@2:
  00226	81 30 ed ec eb
	ea		 xor	 DWORD PTR [eax], -353637139 ; eaebecedH
  0022c	83 c0 04	 add	 eax, 4
  0022f	4a		 dec	 edx
  00230	75 f4		 jne	 SHORT $LL104@LoadInt_e@2

; 120  : 		return LoadInt(_k, i);

  00232	ff 75 0c	 push	 DWORD PTR _i$[ebp]
  00235	8d 45 e0	 lea	 eax, DWORD PTR __k$[ebp]
  00238	50		 push	 eax
  00239	8b ce		 mov	 ecx, esi
  0023b	ff 15 00 00 00
	00		 call	 DWORD PTR __imp_?LoadInt@ioINILoader@@QAEHPBDH@Z

; 121  : 	}

  00241	8b 4d fc	 mov	 ecx, DWORD PTR __$ArrayPad$[ebp]
  00244	5e		 pop	 esi
  00245	33 cd		 xor	 ecx, ebp
  00247	5b		 pop	 ebx
  00248	e8 00 00 00 00	 call	 @__security_check_cookie@4
  0024d	c9		 leave
  0024e	c2 08 00	 ret	 8
??$LoadInt_e@$0BF@@ioINILoader@@QAEHAAY0BF@$$CBDH@Z ENDP ; ioINILoader::LoadInt_e<21>
_TEXT	ENDS
PUBLIC	__$ArrayPad$
PUBLIC	??$LoadInt_e@$0BG@@ioINILoader@@QAEHAAY0BG@$$CBDH@Z ; ioINILoader::LoadInt_e<22>
; Function compile flags: /Ogsp
;	COMDAT ??$LoadInt_e@$0BG@@ioINILoader@@QAEHAAY0BG@$$CBDH@Z
_TEXT	SEGMENT
__k$ = -32						; size = 22
__$ArrayPad$ = -4					; size = 4
_k$ = 8							; size = 4
_i$ = 12						; size = 4
??$LoadInt_e@$0BG@@ioINILoader@@QAEHAAY0BG@$$CBDH@Z PROC ; ioINILoader::LoadInt_e<22>, COMDAT
; _this$ = ecx

; 118  : 	{

  00000	55		 push	 ebp
  00001	8b ec		 mov	 ebp, esp
  00003	83 ec 20	 sub	 esp, 32			; 00000020H
  00006	a1 00 00 00 00	 mov	 eax, DWORD PTR ___security_cookie
  0000b	33 c5		 xor	 eax, ebp
  0000d	89 45 fc	 mov	 DWORD PTR __$ArrayPad$[ebp], eax
  00010	8b 45 08	 mov	 eax, DWORD PTR _k$[ebp]

; 119  : 		_ENCSTR(k, _k);

  00013	8a 10		 mov	 dl, BYTE PTR [eax]
  00015	53		 push	 ebx
  00016	56		 push	 esi
  00017	8b f1		 mov	 esi, ecx
  00019	84 d2		 test	 dl, dl
  0001b	0f 84 15 02 00
	00		 je	 $LN96@LoadInt_e@3
  00021	80 f2 ed	 xor	 dl, -19			; ffffffedH
  00024	88 55 e0	 mov	 BYTE PTR __k$[ebp], dl
  00027	8a 50 01	 mov	 dl, BYTE PTR [eax+1]
  0002a	84 d2		 test	 dl, dl
  0002c	0f 84 fe 01 00
	00		 je	 $LN95@LoadInt_e@3
  00032	80 f2 ec	 xor	 dl, -20			; ffffffecH
  00035	88 55 e1	 mov	 BYTE PTR __k$[ebp+1], dl
  00038	8a 50 02	 mov	 dl, BYTE PTR [eax+2]
  0003b	84 d2		 test	 dl, dl
  0003d	0f 84 e7 01 00
	00		 je	 $LN94@LoadInt_e@3
  00043	b1 eb		 mov	 cl, -21			; ffffffebH
  00045	32 d1		 xor	 dl, cl
  00047	88 55 e2	 mov	 BYTE PTR __k$[ebp+2], dl
  0004a	8a 50 03	 mov	 dl, BYTE PTR [eax+3]
  0004d	84 d2		 test	 dl, dl
  0004f	0f 84 cf 01 00
	00		 je	 $LN93@LoadInt_e@3
  00055	b3 ea		 mov	 bl, -22			; ffffffeaH
  00057	32 d3		 xor	 dl, bl
  00059	88 55 e3	 mov	 BYTE PTR __k$[ebp+3], dl
  0005c	8a 50 04	 mov	 dl, BYTE PTR [eax+4]
  0005f	84 d2		 test	 dl, dl
  00061	0f 84 b7 01 00
	00		 je	 $LN92@LoadInt_e@3
  00067	80 f2 ed	 xor	 dl, -19			; ffffffedH
  0006a	88 55 e4	 mov	 BYTE PTR __k$[ebp+4], dl
  0006d	8a 50 05	 mov	 dl, BYTE PTR [eax+5]
  00070	84 d2		 test	 dl, dl
  00072	0f 84 a0 01 00
	00		 je	 $LN91@LoadInt_e@3
  00078	80 f2 ec	 xor	 dl, -20			; ffffffecH
  0007b	88 55 e5	 mov	 BYTE PTR __k$[ebp+5], dl
  0007e	8a 50 06	 mov	 dl, BYTE PTR [eax+6]
  00081	84 d2		 test	 dl, dl
  00083	0f 84 8a 01 00
	00		 je	 $LN90@LoadInt_e@3
  00089	32 d1		 xor	 dl, cl
  0008b	88 55 e6	 mov	 BYTE PTR __k$[ebp+6], dl
  0008e	8a 50 07	 mov	 dl, BYTE PTR [eax+7]
  00091	84 d2		 test	 dl, dl
  00093	0f 84 75 01 00
	00		 je	 $LN89@LoadInt_e@3
  00099	32 d3		 xor	 dl, bl
  0009b	88 55 e7	 mov	 BYTE PTR __k$[ebp+7], dl
  0009e	8a 50 08	 mov	 dl, BYTE PTR [eax+8]
  000a1	84 d2		 test	 dl, dl
  000a3	0f 84 5f 01 00
	00		 je	 $LN88@LoadInt_e@3
  000a9	80 f2 ed	 xor	 dl, -19			; ffffffedH
  000ac	88 55 e8	 mov	 BYTE PTR __k$[ebp+8], dl
  000af	8a 50 09	 mov	 dl, BYTE PTR [eax+9]
  000b2	84 d2		 test	 dl, dl
  000b4	0f 84 48 01 00
	00		 je	 $LN87@LoadInt_e@3
  000ba	80 f2 ec	 xor	 dl, -20			; ffffffecH
  000bd	88 55 e9	 mov	 BYTE PTR __k$[ebp+9], dl
  000c0	8a 50 0a	 mov	 dl, BYTE PTR [eax+10]
  000c3	84 d2		 test	 dl, dl
  000c5	0f 84 32 01 00
	00		 je	 $LN86@LoadInt_e@3
  000cb	32 d1		 xor	 dl, cl
  000cd	88 55 ea	 mov	 BYTE PTR __k$[ebp+10], dl
  000d0	8a 50 0b	 mov	 dl, BYTE PTR [eax+11]
  000d3	84 d2		 test	 dl, dl
  000d5	0f 84 1d 01 00
	00		 je	 $LN85@LoadInt_e@3
  000db	32 d3		 xor	 dl, bl
  000dd	88 55 eb	 mov	 BYTE PTR __k$[ebp+11], dl
  000e0	8a 50 0c	 mov	 dl, BYTE PTR [eax+12]
  000e3	84 d2		 test	 dl, dl
  000e5	0f 84 07 01 00
	00		 je	 $LN84@LoadInt_e@3
  000eb	80 f2 ed	 xor	 dl, -19			; ffffffedH
  000ee	88 55 ec	 mov	 BYTE PTR __k$[ebp+12], dl
  000f1	8a 50 0d	 mov	 dl, BYTE PTR [eax+13]
  000f4	84 d2		 test	 dl, dl
  000f6	0f 84 f0 00 00
	00		 je	 $LN83@LoadInt_e@3
  000fc	80 f2 ec	 xor	 dl, -20			; ffffffecH
  000ff	88 55 ed	 mov	 BYTE PTR __k$[ebp+13], dl
  00102	8a 50 0e	 mov	 dl, BYTE PTR [eax+14]
  00105	84 d2		 test	 dl, dl
  00107	0f 84 da 00 00
	00		 je	 $LN82@LoadInt_e@3
  0010d	32 d1		 xor	 dl, cl
  0010f	88 55 ee	 mov	 BYTE PTR __k$[ebp+14], dl
  00112	8a 50 0f	 mov	 dl, BYTE PTR [eax+15]
  00115	84 d2		 test	 dl, dl
  00117	0f 84 c5 00 00
	00		 je	 $LN81@LoadInt_e@3
  0011d	32 d3		 xor	 dl, bl
  0011f	88 55 ef	 mov	 BYTE PTR __k$[ebp+15], dl
  00122	8a 50 10	 mov	 dl, BYTE PTR [eax+16]
  00125	84 d2		 test	 dl, dl
  00127	0f 84 af 00 00
	00		 je	 $LN80@LoadInt_e@3
  0012d	80 f2 ed	 xor	 dl, -19			; ffffffedH
  00130	88 55 f0	 mov	 BYTE PTR __k$[ebp+16], dl
  00133	8a 50 11	 mov	 dl, BYTE PTR [eax+17]
  00136	84 d2		 test	 dl, dl
  00138	0f 84 98 00 00
	00		 je	 $LN79@LoadInt_e@3
  0013e	80 f2 ec	 xor	 dl, -20			; ffffffecH
  00141	88 55 f1	 mov	 BYTE PTR __k$[ebp+17], dl
  00144	8a 50 12	 mov	 dl, BYTE PTR [eax+18]
  00147	84 d2		 test	 dl, dl
  00149	0f 84 82 00 00
	00		 je	 $LN78@LoadInt_e@3
  0014f	32 d1		 xor	 dl, cl
  00151	88 55 f2	 mov	 BYTE PTR __k$[ebp+18], dl
  00154	8a 50 13	 mov	 dl, BYTE PTR [eax+19]
  00157	84 d2		 test	 dl, dl
  00159	74 71		 je	 SHORT $LN77@LoadInt_e@3
  0015b	32 d3		 xor	 dl, bl
  0015d	88 55 f3	 mov	 BYTE PTR __k$[ebp+19], dl
  00160	8a 50 14	 mov	 dl, BYTE PTR [eax+20]
  00163	84 d2		 test	 dl, dl
  00165	74 5f		 je	 SHORT $LN76@LoadInt_e@3
  00167	80 f2 ed	 xor	 dl, -19			; ffffffedH
  0016a	80 78 15 00	 cmp	 BYTE PTR [eax+21], 0
  0016e	88 55 f4	 mov	 BYTE PTR __k$[ebp+20], dl
  00171	0f 84 c3 00 00
	00		 je	 $LN1@LoadInt_e@3
  00177	8a 50 16	 mov	 dl, BYTE PTR [eax+22]
  0017a	84 d2		 test	 dl, dl
  0017c	74 43		 je	 SHORT $LN74@LoadInt_e@3
  0017e	32 d1		 xor	 dl, cl
  00180	88 55 f6	 mov	 BYTE PTR __k$[ebp+22], dl
  00183	8a 50 17	 mov	 dl, BYTE PTR [eax+23]
  00186	84 d2		 test	 dl, dl
  00188	74 32		 je	 SHORT $LN73@LoadInt_e@3
  0018a	32 d3		 xor	 dl, bl
  0018c	88 55 f7	 mov	 BYTE PTR __k$[ebp+23], dl
  0018f	8a 50 18	 mov	 dl, BYTE PTR [eax+24]
  00192	84 d2		 test	 dl, dl
  00194	74 20		 je	 SHORT $LN72@LoadInt_e@3
  00196	8a 40 19	 mov	 al, BYTE PTR [eax+25]
  00199	80 f2 ed	 xor	 dl, -19			; ffffffedH
  0019c	88 55 f8	 mov	 BYTE PTR __k$[ebp+24], dl
  0019f	84 c0		 test	 al, al
  001a1	74 0a		 je	 SHORT $LN71@LoadInt_e@3
  001a3	34 ec		 xor	 al, -20			; ffffffecH
  001a5	88 45 f9	 mov	 BYTE PTR __k$[ebp+25], al
  001a8	e9 8d 00 00 00	 jmp	 $LN1@LoadInt_e@3
$LN71@LoadInt_e@3:
  001ad	c6 45 f9 ec	 mov	 BYTE PTR __k$[ebp+25], -20 ; ffffffecH
  001b1	e9 84 00 00 00	 jmp	 $LN1@LoadInt_e@3
$LN72@LoadInt_e@3:
  001b6	c6 45 f8 ed	 mov	 BYTE PTR __k$[ebp+24], -19 ; ffffffedH
  001ba	eb 7e		 jmp	 SHORT $LN1@LoadInt_e@3
$LN73@LoadInt_e@3:
  001bc	88 5d f7	 mov	 BYTE PTR __k$[ebp+23], bl
  001bf	eb 79		 jmp	 SHORT $LN1@LoadInt_e@3
$LN74@LoadInt_e@3:
  001c1	88 4d f6	 mov	 BYTE PTR __k$[ebp+22], cl
  001c4	eb 74		 jmp	 SHORT $LN1@LoadInt_e@3
$LN76@LoadInt_e@3:
  001c6	c6 45 f4 ed	 mov	 BYTE PTR __k$[ebp+20], -19 ; ffffffedH
  001ca	eb 6e		 jmp	 SHORT $LN1@LoadInt_e@3
$LN77@LoadInt_e@3:
  001cc	88 5d f3	 mov	 BYTE PTR __k$[ebp+19], bl
  001cf	eb 69		 jmp	 SHORT $LN1@LoadInt_e@3
$LN78@LoadInt_e@3:
  001d1	88 4d f2	 mov	 BYTE PTR __k$[ebp+18], cl
  001d4	eb 64		 jmp	 SHORT $LN1@LoadInt_e@3
$LN79@LoadInt_e@3:
  001d6	c6 45 f1 ec	 mov	 BYTE PTR __k$[ebp+17], -20 ; ffffffecH
  001da	eb 5e		 jmp	 SHORT $LN1@LoadInt_e@3
$LN80@LoadInt_e@3:
  001dc	c6 45 f0 ed	 mov	 BYTE PTR __k$[ebp+16], -19 ; ffffffedH
  001e0	eb 58		 jmp	 SHORT $LN1@LoadInt_e@3
$LN81@LoadInt_e@3:
  001e2	88 5d ef	 mov	 BYTE PTR __k$[ebp+15], bl
  001e5	eb 53		 jmp	 SHORT $LN1@LoadInt_e@3
$LN82@LoadInt_e@3:
  001e7	88 4d ee	 mov	 BYTE PTR __k$[ebp+14], cl
  001ea	eb 4e		 jmp	 SHORT $LN1@LoadInt_e@3
$LN83@LoadInt_e@3:
  001ec	c6 45 ed ec	 mov	 BYTE PTR __k$[ebp+13], -20 ; ffffffecH
  001f0	eb 48		 jmp	 SHORT $LN1@LoadInt_e@3
$LN84@LoadInt_e@3:
  001f2	c6 45 ec ed	 mov	 BYTE PTR __k$[ebp+12], -19 ; ffffffedH
  001f6	eb 42		 jmp	 SHORT $LN1@LoadInt_e@3
$LN85@LoadInt_e@3:
  001f8	88 5d eb	 mov	 BYTE PTR __k$[ebp+11], bl
  001fb	eb 3d		 jmp	 SHORT $LN1@LoadInt_e@3
$LN86@LoadInt_e@3:
  001fd	88 4d ea	 mov	 BYTE PTR __k$[ebp+10], cl
  00200	eb 38		 jmp	 SHORT $LN1@LoadInt_e@3
$LN87@LoadInt_e@3:
  00202	c6 45 e9 ec	 mov	 BYTE PTR __k$[ebp+9], -20 ; ffffffecH
  00206	eb 32		 jmp	 SHORT $LN1@LoadInt_e@3
$LN88@LoadInt_e@3:
  00208	c6 45 e8 ed	 mov	 BYTE PTR __k$[ebp+8], -19 ; ffffffedH
  0020c	eb 2c		 jmp	 SHORT $LN1@LoadInt_e@3
$LN89@LoadInt_e@3:
  0020e	88 5d e7	 mov	 BYTE PTR __k$[ebp+7], bl
  00211	eb 27		 jmp	 SHORT $LN1@LoadInt_e@3
$LN90@LoadInt_e@3:
  00213	88 4d e6	 mov	 BYTE PTR __k$[ebp+6], cl
  00216	eb 22		 jmp	 SHORT $LN1@LoadInt_e@3
$LN91@LoadInt_e@3:
  00218	c6 45 e5 ec	 mov	 BYTE PTR __k$[ebp+5], -20 ; ffffffecH
  0021c	eb 1c		 jmp	 SHORT $LN1@LoadInt_e@3
$LN92@LoadInt_e@3:
  0021e	c6 45 e4 ed	 mov	 BYTE PTR __k$[ebp+4], -19 ; ffffffedH
  00222	eb 16		 jmp	 SHORT $LN1@LoadInt_e@3
$LN93@LoadInt_e@3:
  00224	c6 45 e3 ea	 mov	 BYTE PTR __k$[ebp+3], -22 ; ffffffeaH
  00228	eb 10		 jmp	 SHORT $LN1@LoadInt_e@3
$LN94@LoadInt_e@3:
  0022a	c6 45 e2 eb	 mov	 BYTE PTR __k$[ebp+2], -21 ; ffffffebH
  0022e	eb 0a		 jmp	 SHORT $LN1@LoadInt_e@3
$LN95@LoadInt_e@3:
  00230	c6 45 e1 ec	 mov	 BYTE PTR __k$[ebp+1], -20 ; ffffffecH
  00234	eb 04		 jmp	 SHORT $LN1@LoadInt_e@3
$LN96@LoadInt_e@3:
  00236	c6 45 e0 ed	 mov	 BYTE PTR __k$[ebp], -19	; ffffffedH
$LN1@LoadInt_e@3:
  0023a	6a 05		 push	 5
  0023c	8d 45 e0	 lea	 eax, DWORD PTR __k$[ebp]
  0023f	c6 45 f5 00	 mov	 BYTE PTR __k$[ebp+21], 0
  00243	5a		 pop	 edx
$LL104@LoadInt_e@3:
  00244	81 30 ed ec eb
	ea		 xor	 DWORD PTR [eax], -353637139 ; eaebecedH
  0024a	83 c0 04	 add	 eax, 4
  0024d	4a		 dec	 edx
  0024e	75 f4		 jne	 SHORT $LL104@LoadInt_e@3

; 120  : 		return LoadInt(_k, i);

  00250	ff 75 0c	 push	 DWORD PTR _i$[ebp]
  00253	80 75 f4 ed	 xor	 BYTE PTR __k$[ebp+20], -19 ; ffffffedH
  00257	8d 45 e0	 lea	 eax, DWORD PTR __k$[ebp]
  0025a	50		 push	 eax
  0025b	8b ce		 mov	 ecx, esi
  0025d	ff 15 00 00 00
	00		 call	 DWORD PTR __imp_?LoadInt@ioINILoader@@QAEHPBDH@Z

; 121  : 	}

  00263	8b 4d fc	 mov	 ecx, DWORD PTR __$ArrayPad$[ebp]
  00266	5e		 pop	 esi
  00267	33 cd		 xor	 ecx, ebp
  00269	5b		 pop	 ebx
  0026a	e8 00 00 00 00	 call	 @__security_check_cookie@4
  0026f	c9		 leave
  00270	c2 08 00	 ret	 8
??$LoadInt_e@$0BG@@ioINILoader@@QAEHAAY0BG@$$CBDH@Z ENDP ; ioINILoader::LoadInt_e<22>
_TEXT	ENDS
PUBLIC	__$ArrayPad$
PUBLIC	??$LoadInt_e@$0P@@ioINILoader@@QAEHAAY0P@$$CBDH@Z ; ioINILoader::LoadInt_e<15>
; Function compile flags: /Ogsp
;	COMDAT ??$LoadInt_e@$0P@@ioINILoader@@QAEHAAY0P@$$CBDH@Z
_TEXT	SEGMENT
__k$ = -24						; size = 15
__$ArrayPad$ = -4					; size = 4
_k$ = 8							; size = 4
_i$ = 12						; size = 4
??$LoadInt_e@$0P@@ioINILoader@@QAEHAAY0P@$$CBDH@Z PROC	; ioINILoader::LoadInt_e<15>, COMDAT
; _this$ = ecx

; 118  : 	{

  00000	55		 push	 ebp
  00001	8b ec		 mov	 ebp, esp
  00003	83 ec 18	 sub	 esp, 24			; 00000018H
  00006	a1 00 00 00 00	 mov	 eax, DWORD PTR ___security_cookie
  0000b	33 c5		 xor	 eax, ebp
  0000d	89 45 fc	 mov	 DWORD PTR __$ArrayPad$[ebp], eax
  00010	8b 45 08	 mov	 eax, DWORD PTR _k$[ebp]

; 119  : 		_ENCSTR(k, _k);

  00013	8a 10		 mov	 dl, BYTE PTR [eax]
  00015	56		 push	 esi
  00016	8b f1		 mov	 esi, ecx
  00018	84 d2		 test	 dl, dl
  0001a	0f 84 75 01 00
	00		 je	 $LN96@LoadInt_e@4
  00020	80 f2 ed	 xor	 dl, -19			; ffffffedH
  00023	88 55 e8	 mov	 BYTE PTR __k$[ebp], dl
  00026	8a 50 01	 mov	 dl, BYTE PTR [eax+1]
  00029	84 d2		 test	 dl, dl
  0002b	0f 84 5e 01 00
	00		 je	 $LN95@LoadInt_e@4
  00031	b1 ec		 mov	 cl, -20			; ffffffecH
  00033	32 d1		 xor	 dl, cl
  00035	88 55 e9	 mov	 BYTE PTR __k$[ebp+1], dl
  00038	8a 50 02	 mov	 dl, BYTE PTR [eax+2]
  0003b	84 d2		 test	 dl, dl
  0003d	0f 84 46 01 00
	00		 je	 $LN94@LoadInt_e@4
  00043	80 f2 eb	 xor	 dl, -21			; ffffffebH
  00046	88 55 ea	 mov	 BYTE PTR __k$[ebp+2], dl
  00049	8a 50 03	 mov	 dl, BYTE PTR [eax+3]
  0004c	84 d2		 test	 dl, dl
  0004e	0f 84 2f 01 00
	00		 je	 $LN93@LoadInt_e@4
  00054	80 f2 ea	 xor	 dl, -22			; ffffffeaH
  00057	88 55 eb	 mov	 BYTE PTR __k$[ebp+3], dl
  0005a	8a 50 04	 mov	 dl, BYTE PTR [eax+4]
  0005d	84 d2		 test	 dl, dl
  0005f	0f 84 18 01 00
	00		 je	 $LN92@LoadInt_e@4
  00065	80 f2 ed	 xor	 dl, -19			; ffffffedH
  00068	88 55 ec	 mov	 BYTE PTR __k$[ebp+4], dl
  0006b	8a 50 05	 mov	 dl, BYTE PTR [eax+5]
  0006e	84 d2		 test	 dl, dl
  00070	0f 84 02 01 00
	00		 je	 $LN91@LoadInt_e@4
  00076	32 d1		 xor	 dl, cl
  00078	88 55 ed	 mov	 BYTE PTR __k$[ebp+5], dl
  0007b	8a 50 06	 mov	 dl, BYTE PTR [eax+6]
  0007e	84 d2		 test	 dl, dl
  00080	0f 84 ec 00 00
	00		 je	 $LN90@LoadInt_e@4
  00086	80 f2 eb	 xor	 dl, -21			; ffffffebH
  00089	88 55 ee	 mov	 BYTE PTR __k$[ebp+6], dl
  0008c	8a 50 07	 mov	 dl, BYTE PTR [eax+7]
  0008f	84 d2		 test	 dl, dl
  00091	0f 84 d5 00 00
	00		 je	 $LN89@LoadInt_e@4
  00097	80 f2 ea	 xor	 dl, -22			; ffffffeaH
  0009a	88 55 ef	 mov	 BYTE PTR __k$[ebp+7], dl
  0009d	8a 50 08	 mov	 dl, BYTE PTR [eax+8]
  000a0	84 d2		 test	 dl, dl
  000a2	0f 84 be 00 00
	00		 je	 $LN88@LoadInt_e@4
  000a8	80 f2 ed	 xor	 dl, -19			; ffffffedH
  000ab	88 55 f0	 mov	 BYTE PTR __k$[ebp+8], dl
  000ae	8a 50 09	 mov	 dl, BYTE PTR [eax+9]
  000b1	84 d2		 test	 dl, dl
  000b3	0f 84 a8 00 00
	00		 je	 $LN87@LoadInt_e@4
  000b9	32 d1		 xor	 dl, cl
  000bb	88 55 f1	 mov	 BYTE PTR __k$[ebp+9], dl
  000be	8a 50 0a	 mov	 dl, BYTE PTR [eax+10]
  000c1	84 d2		 test	 dl, dl
  000c3	0f 84 92 00 00
	00		 je	 $LN86@LoadInt_e@4
  000c9	80 f2 eb	 xor	 dl, -21			; ffffffebH
  000cc	88 55 f2	 mov	 BYTE PTR __k$[ebp+10], dl
  000cf	8a 50 0b	 mov	 dl, BYTE PTR [eax+11]
  000d2	84 d2		 test	 dl, dl
  000d4	74 7f		 je	 SHORT $LN85@LoadInt_e@4
  000d6	80 f2 ea	 xor	 dl, -22			; ffffffeaH
  000d9	88 55 f3	 mov	 BYTE PTR __k$[ebp+11], dl
  000dc	8a 50 0c	 mov	 dl, BYTE PTR [eax+12]
  000df	84 d2		 test	 dl, dl
  000e1	74 6c		 je	 SHORT $LN84@LoadInt_e@4
  000e3	80 f2 ed	 xor	 dl, -19			; ffffffedH
  000e6	88 55 f4	 mov	 BYTE PTR __k$[ebp+12], dl
  000e9	8a 50 0d	 mov	 dl, BYTE PTR [eax+13]
  000ec	84 d2		 test	 dl, dl
  000ee	74 5a		 je	 SHORT $LN83@LoadInt_e@4
  000f0	32 d1		 xor	 dl, cl
  000f2	80 78 0e 00	 cmp	 BYTE PTR [eax+14], 0
  000f6	88 55 f5	 mov	 BYTE PTR __k$[ebp+13], dl
  000f9	0f 84 9a 00 00
	00		 je	 $LN1@LoadInt_e@4
  000ff	8a 50 0f	 mov	 dl, BYTE PTR [eax+15]
  00102	84 d2		 test	 dl, dl
  00104	74 3e		 je	 SHORT $LN81@LoadInt_e@4
  00106	80 f2 ea	 xor	 dl, -22			; ffffffeaH
  00109	88 55 f7	 mov	 BYTE PTR __k$[ebp+15], dl
  0010c	8a 50 10	 mov	 dl, BYTE PTR [eax+16]
  0010f	84 d2		 test	 dl, dl
  00111	74 2b		 je	 SHORT $LN80@LoadInt_e@4
  00113	80 f2 ed	 xor	 dl, -19			; ffffffedH
  00116	88 55 f8	 mov	 BYTE PTR __k$[ebp+16], dl
  00119	8a 50 11	 mov	 dl, BYTE PTR [eax+17]
  0011c	84 d2		 test	 dl, dl
  0011e	74 19		 je	 SHORT $LN79@LoadInt_e@4
  00120	8a 40 12	 mov	 al, BYTE PTR [eax+18]
  00123	32 d1		 xor	 dl, cl
  00125	88 55 f9	 mov	 BYTE PTR __k$[ebp+17], dl
  00128	84 c0		 test	 al, al
  0012a	74 07		 je	 SHORT $LN78@LoadInt_e@4
  0012c	34 eb		 xor	 al, -21			; ffffffebH
  0012e	88 45 fa	 mov	 BYTE PTR __k$[ebp+18], al
  00131	eb 66		 jmp	 SHORT $LN1@LoadInt_e@4
$LN78@LoadInt_e@4:
  00133	c6 45 fa eb	 mov	 BYTE PTR __k$[ebp+18], -21 ; ffffffebH
  00137	eb 60		 jmp	 SHORT $LN1@LoadInt_e@4
$LN79@LoadInt_e@4:
  00139	88 4d f9	 mov	 BYTE PTR __k$[ebp+17], cl
  0013c	eb 5b		 jmp	 SHORT $LN1@LoadInt_e@4
$LN80@LoadInt_e@4:
  0013e	c6 45 f8 ed	 mov	 BYTE PTR __k$[ebp+16], -19 ; ffffffedH
  00142	eb 55		 jmp	 SHORT $LN1@LoadInt_e@4
$LN81@LoadInt_e@4:
  00144	c6 45 f7 ea	 mov	 BYTE PTR __k$[ebp+15], -22 ; ffffffeaH
  00148	eb 4f		 jmp	 SHORT $LN1@LoadInt_e@4
$LN83@LoadInt_e@4:
  0014a	88 4d f5	 mov	 BYTE PTR __k$[ebp+13], cl
  0014d	eb 4a		 jmp	 SHORT $LN1@LoadInt_e@4
$LN84@LoadInt_e@4:
  0014f	c6 45 f4 ed	 mov	 BYTE PTR __k$[ebp+12], -19 ; ffffffedH
  00153	eb 44		 jmp	 SHORT $LN1@LoadInt_e@4
$LN85@LoadInt_e@4:
  00155	c6 45 f3 ea	 mov	 BYTE PTR __k$[ebp+11], -22 ; ffffffeaH
  00159	eb 3e		 jmp	 SHORT $LN1@LoadInt_e@4
$LN86@LoadInt_e@4:
  0015b	c6 45 f2 eb	 mov	 BYTE PTR __k$[ebp+10], -21 ; ffffffebH
  0015f	eb 38		 jmp	 SHORT $LN1@LoadInt_e@4
$LN87@LoadInt_e@4:
  00161	88 4d f1	 mov	 BYTE PTR __k$[ebp+9], cl
  00164	eb 33		 jmp	 SHORT $LN1@LoadInt_e@4
$LN88@LoadInt_e@4:
  00166	c6 45 f0 ed	 mov	 BYTE PTR __k$[ebp+8], -19 ; ffffffedH
  0016a	eb 2d		 jmp	 SHORT $LN1@LoadInt_e@4
$LN89@LoadInt_e@4:
  0016c	c6 45 ef ea	 mov	 BYTE PTR __k$[ebp+7], -22 ; ffffffeaH
  00170	eb 27		 jmp	 SHORT $LN1@LoadInt_e@4
$LN90@LoadInt_e@4:
  00172	c6 45 ee eb	 mov	 BYTE PTR __k$[ebp+6], -21 ; ffffffebH
  00176	eb 21		 jmp	 SHORT $LN1@LoadInt_e@4
$LN91@LoadInt_e@4:
  00178	88 4d ed	 mov	 BYTE PTR __k$[ebp+5], cl
  0017b	eb 1c		 jmp	 SHORT $LN1@LoadInt_e@4
$LN92@LoadInt_e@4:
  0017d	c6 45 ec ed	 mov	 BYTE PTR __k$[ebp+4], -19 ; ffffffedH
  00181	eb 16		 jmp	 SHORT $LN1@LoadInt_e@4
$LN93@LoadInt_e@4:
  00183	c6 45 eb ea	 mov	 BYTE PTR __k$[ebp+3], -22 ; ffffffeaH
  00187	eb 10		 jmp	 SHORT $LN1@LoadInt_e@4
$LN94@LoadInt_e@4:
  00189	c6 45 ea eb	 mov	 BYTE PTR __k$[ebp+2], -21 ; ffffffebH
  0018d	eb 0a		 jmp	 SHORT $LN1@LoadInt_e@4
$LN95@LoadInt_e@4:
  0018f	c6 45 e9 ec	 mov	 BYTE PTR __k$[ebp+1], -20 ; ffffffecH
  00193	eb 04		 jmp	 SHORT $LN1@LoadInt_e@4
$LN96@LoadInt_e@4:
  00195	c6 45 e8 ed	 mov	 BYTE PTR __k$[ebp], -19	; ffffffedH
$LN1@LoadInt_e@4:
  00199	6a 03		 push	 3
  0019b	8d 45 e8	 lea	 eax, DWORD PTR __k$[ebp]
  0019e	c6 45 f6 00	 mov	 BYTE PTR __k$[ebp+14], 0
  001a2	5a		 pop	 edx
$LL104@LoadInt_e@4:
  001a3	81 30 ed ec eb
	ea		 xor	 DWORD PTR [eax], -353637139 ; eaebecedH
  001a9	83 c0 04	 add	 eax, 4
  001ac	4a		 dec	 edx
  001ad	75 f4		 jne	 SHORT $LL104@LoadInt_e@4
  001af	6a 0c		 push	 12			; 0000000cH
  001b1	58		 pop	 eax
$LL101@LoadInt_e@4:
  001b2	8b c8		 mov	 ecx, eax
  001b4	81 e1 03 00 00
	80		 and	 ecx, -2147483645	; 80000003H
  001ba	79 05		 jns	 SHORT $LN111@LoadInt_e@4
  001bc	49		 dec	 ecx
  001bd	83 c9 fc	 or	 ecx, -4			; fffffffcH
  001c0	41		 inc	 ecx
$LN111@LoadInt_e@4:
  001c1	b2 ed		 mov	 dl, -19			; ffffffedH
  001c3	2a d1		 sub	 dl, cl
  001c5	30 54 05 e8	 xor	 BYTE PTR __k$[ebp+eax], dl
  001c9	40		 inc	 eax
  001ca	83 f8 0e	 cmp	 eax, 14			; 0000000eH
  001cd	7c e3		 jl	 SHORT $LL101@LoadInt_e@4

; 120  : 		return LoadInt(_k, i);

  001cf	ff 75 0c	 push	 DWORD PTR _i$[ebp]
  001d2	8d 45 e8	 lea	 eax, DWORD PTR __k$[ebp]
  001d5	50		 push	 eax
  001d6	8b ce		 mov	 ecx, esi
  001d8	ff 15 00 00 00
	00		 call	 DWORD PTR __imp_?LoadInt@ioINILoader@@QAEHPBDH@Z

; 121  : 	}

  001de	8b 4d fc	 mov	 ecx, DWORD PTR __$ArrayPad$[ebp]
  001e1	33 cd		 xor	 ecx, ebp
  001e3	5e		 pop	 esi
  001e4	e8 00 00 00 00	 call	 @__security_check_cookie@4
  001e9	c9		 leave
  001ea	c2 08 00	 ret	 8
??$LoadInt_e@$0P@@ioINILoader@@QAEHAAY0P@$$CBDH@Z ENDP	; ioINILoader::LoadInt_e<15>
_TEXT	ENDS
PUBLIC	??$_Construct@UBuffInfoStruct@@ABU1@@std@@YAXPAUBuffInfoStruct@@ABU1@@Z ; std::_Construct<BuffInfoStruct,BuffInfoStruct const &>
;	COMDAT xdata$x
; File c:\program files (x86)\microsoft visual studio 10.0\vc\include\vector
xdata$x	SEGMENT
__unwindtable$??$_Construct@UBuffInfoStruct@@ABU1@@std@@YAXPAUBuffInfoStruct@@ABU1@@Z DD 0ffffffffH
	DD	FLAT:__unwindfunclet$??$_Construct@UBuffInfoStruct@@ABU1@@std@@YAXPAUBuffInfoStruct@@ABU1@@Z$0
__ehfuncinfo$??$_Construct@UBuffInfoStruct@@ABU1@@std@@YAXPAUBuffInfoStruct@@ABU1@@Z DD 019930522H
	DD	01H
	DD	FLAT:__unwindtable$??$_Construct@UBuffInfoStruct@@ABU1@@std@@YAXPAUBuffInfoStruct@@ABU1@@Z
	DD	2 DUP(00H)
	DD	2 DUP(00H)
	DD	00H
	DD	01H
; Function compile flags: /Ogsp
; File c:\program files (x86)\microsoft visual studio 10.0\vc\include\xmemory
xdata$x	ENDS
;	COMDAT ??$_Construct@UBuffInfoStruct@@ABU1@@std@@YAXPAUBuffInfoStruct@@ABU1@@Z
_TEXT	SEGMENT
$T553566 = -16						; size = 4
__$EHRec$ = -12						; size = 12
__Vptr$ = 8						; size = 4
__Ptr$ = 8						; size = 4
__Val$ = 12						; size = 4
??$_Construct@UBuffInfoStruct@@ABU1@@std@@YAXPAUBuffInfoStruct@@ABU1@@Z PROC ; std::_Construct<BuffInfoStruct,BuffInfoStruct const &>, COMDAT

; 46   : 	{	// construct object at _Ptr with value _Val

  00000	6a 04		 push	 4
  00002	b8 00 00 00 00	 mov	 eax, __ehhandler$??$_Construct@UBuffInfoStruct@@ABU1@@std@@YAXPAUBuffInfoStruct@@ABU1@@Z
  00007	e8 00 00 00 00	 call	 __EH_prolog3

; 47   : 	void _FARQ *_Vptr = _Ptr;

  0000c	8b 75 08	 mov	 esi, DWORD PTR __Ptr$[ebp]
  0000f	89 75 08	 mov	 DWORD PTR __Vptr$[ebp], esi

; 48   : 	::new (_Vptr) _Ty1(_STD forward<_Ty2>(_Val));

  00012	89 75 f0	 mov	 DWORD PTR $T553566[ebp], esi
  00015	83 65 fc 00	 and	 DWORD PTR __$EHRec$[ebp+8], 0
  00019	85 f6		 test	 esi, esi
  0001b	74 12		 je	 SHORT $LN3@Construct
  0001d	8b 7d 0c	 mov	 edi, DWORD PTR __Val$[ebp]
  00020	57		 push	 edi
  00021	8b ce		 mov	 ecx, esi
  00023	ff 15 00 00 00
	00		 call	 DWORD PTR __imp_??0ioHashString@@QAE@ABV0@@Z
  00029	8b 47 10	 mov	 eax, DWORD PTR [edi+16]
  0002c	89 46 10	 mov	 DWORD PTR [esi+16], eax
$LN3@Construct:

; 49   : 	}

  0002f	e8 00 00 00 00	 call	 __EH_epilog3
  00034	c3		 ret	 0
_TEXT	ENDS
;	COMDAT text$x
text$x	SEGMENT
__unwindfunclet$??$_Construct@UBuffInfoStruct@@ABU1@@std@@YAXPAUBuffInfoStruct@@ABU1@@Z$0:
  00000	ff 75 08	 push	 DWORD PTR __Vptr$[ebp]
  00003	ff 75 f0	 push	 DWORD PTR $T553566[ebp]
  00006	e8 00 00 00 00	 call	 ??3@YAXPAX0@Z		; operator delete
  0000b	59		 pop	 ecx
  0000c	59		 pop	 ecx
  0000d	c3		 ret	 0
__ehhandler$??$_Construct@UBuffInfoStruct@@ABU1@@std@@YAXPAUBuffInfoStruct@@ABU1@@Z:
  0000e	8b 54 24 08	 mov	 edx, DWORD PTR [esp+8]
  00012	8d 42 0c	 lea	 eax, DWORD PTR [edx+12]
  00015	8b 4a ec	 mov	 ecx, DWORD PTR [edx-20]
  00018	33 c8		 xor	 ecx, eax
  0001a	e8 00 00 00 00	 call	 @__security_check_cookie@4
  0001f	b8 00 00 00 00	 mov	 eax, OFFSET __ehfuncinfo$??$_Construct@UBuffInfoStruct@@ABU1@@std@@YAXPAUBuffInfoStruct@@ABU1@@Z
  00024	e9 00 00 00 00	 jmp	 ___CxxFrameHandler3
text$x	ENDS
??$_Construct@UBuffInfoStruct@@ABU1@@std@@YAXPAUBuffInfoStruct@@ABU1@@Z ENDP ; std::_Construct<BuffInfoStruct,BuffInfoStruct const &>
PUBLIC	?construct@?$allocator@UBuffInfoStruct@@@std@@QAEXPAUBuffInfoStruct@@$$QAU3@@Z ; std::allocator<BuffInfoStruct>::construct
;	COMDAT xdata$x
; File c:\program files (x86)\microsoft visual studio 10.0\vc\include\vector
xdata$x	SEGMENT
__unwindtable$?construct@?$allocator@UBuffInfoStruct@@@std@@QAEXPAUBuffInfoStruct@@$$QAU3@@Z DD 0ffffffffH
	DD	FLAT:__unwindfunclet$?construct@?$allocator@UBuffInfoStruct@@@std@@QAEXPAUBuffInfoStruct@@$$QAU3@@Z$0
__ehfuncinfo$?construct@?$allocator@UBuffInfoStruct@@@std@@QAEXPAUBuffInfoStruct@@$$QAU3@@Z DD 019930522H
	DD	01H
	DD	FLAT:__unwindtable$?construct@?$allocator@UBuffInfoStruct@@@std@@QAEXPAUBuffInfoStruct@@$$QAU3@@Z
	DD	2 DUP(00H)
	DD	2 DUP(00H)
	DD	00H
	DD	01H
; Function compile flags: /Ogsp
; File c:\program files (x86)\microsoft visual studio 10.0\vc\include\xmemory
xdata$x	ENDS
;	COMDAT ?construct@?$allocator@UBuffInfoStruct@@@std@@QAEXPAUBuffInfoStruct@@$$QAU3@@Z
_TEXT	SEGMENT
$T553589 = -16						; size = 4
__$EHRec$ = -12						; size = 12
__Ptr$ = 8						; size = 4
__Val$ = 12						; size = 4
?construct@?$allocator@UBuffInfoStruct@@@std@@QAEXPAUBuffInfoStruct@@$$QAU3@@Z PROC ; std::allocator<BuffInfoStruct>::construct, COMDAT
; _this$ = ecx

; 201  : 		{	// construct object at _Ptr with value _Val

  00000	6a 04		 push	 4
  00002	b8 00 00 00 00	 mov	 eax, __ehhandler$?construct@?$allocator@UBuffInfoStruct@@@std@@QAEXPAUBuffInfoStruct@@$$QAU3@@Z
  00007	e8 00 00 00 00	 call	 __EH_prolog3

; 202  : 		::new ((void _FARQ *)_Ptr) _Ty(_STD forward<_Ty>(_Val));

  0000c	8b 75 08	 mov	 esi, DWORD PTR __Ptr$[ebp]
  0000f	89 75 f0	 mov	 DWORD PTR $T553589[ebp], esi
  00012	83 65 fc 00	 and	 DWORD PTR __$EHRec$[ebp+8], 0
  00016	85 f6		 test	 esi, esi
  00018	74 12		 je	 SHORT $LN3@construct
  0001a	8b 7d 0c	 mov	 edi, DWORD PTR __Val$[ebp]
  0001d	57		 push	 edi
  0001e	8b ce		 mov	 ecx, esi
  00020	ff 15 00 00 00
	00		 call	 DWORD PTR __imp_??0ioHashString@@QAE@ABV0@@Z
  00026	8b 47 10	 mov	 eax, DWORD PTR [edi+16]
  00029	89 46 10	 mov	 DWORD PTR [esi+16], eax
$LN3@construct:

; 203  : 		}

  0002c	e8 00 00 00 00	 call	 __EH_epilog3
  00031	c2 08 00	 ret	 8
_TEXT	ENDS
;	COMDAT text$x
text$x	SEGMENT
__unwindfunclet$?construct@?$allocator@UBuffInfoStruct@@@std@@QAEXPAUBuffInfoStruct@@$$QAU3@@Z$0:
  00000	ff 75 08	 push	 DWORD PTR __Ptr$[ebp]
  00003	ff 75 f0	 push	 DWORD PTR $T553589[ebp]
  00006	e8 00 00 00 00	 call	 ??3@YAXPAX0@Z		; operator delete
  0000b	59		 pop	 ecx
  0000c	59		 pop	 ecx
  0000d	c3		 ret	 0
__ehhandler$?construct@?$allocator@UBuffInfoStruct@@@std@@QAEXPAUBuffInfoStruct@@$$QAU3@@Z:
  0000e	8b 54 24 08	 mov	 edx, DWORD PTR [esp+8]
  00012	8d 42 0c	 lea	 eax, DWORD PTR [edx+12]
  00015	8b 4a ec	 mov	 ecx, DWORD PTR [edx-20]
  00018	33 c8		 xor	 ecx, eax
  0001a	e8 00 00 00 00	 call	 @__security_check_cookie@4
  0001f	b8 00 00 00 00	 mov	 eax, OFFSET __ehfuncinfo$?construct@?$allocator@UBuffInfoStruct@@@std@@QAEXPAUBuffInfoStruct@@$$QAU3@@Z
  00024	e9 00 00 00 00	 jmp	 ___CxxFrameHandler3
text$x	ENDS
?construct@?$allocator@UBuffInfoStruct@@@std@@QAEXPAUBuffInfoStruct@@$$QAU3@@Z ENDP ; std::allocator<BuffInfoStruct>::construct
PUBLIC	??0?$CEncrypt@M@@QAE@XZ				; CEncrypt<float>::CEncrypt<float>
EXTRN	??0ccddaabb@@QAE@XZ:PROC			; ccddaabb::ccddaabb
;	COMDAT xdata$x
; File d:\lost saga for developer\youtube\tutorial\source\src\lsclient\encryptvalue.h
xdata$x	SEGMENT
__unwindtable$??0?$CEncrypt@M@@QAE@XZ DD 0ffffffffH
	DD	FLAT:__unwindfunclet$??0?$CEncrypt@M@@QAE@XZ$0
__ehfuncinfo$??0?$CEncrypt@M@@QAE@XZ DD 019930522H
	DD	01H
	DD	FLAT:__unwindtable$??0?$CEncrypt@M@@QAE@XZ
	DD	2 DUP(00H)
	DD	2 DUP(00H)
	DD	00H
	DD	01H
; Function compile flags: /Ogsp
xdata$x	ENDS
;	COMDAT ??0?$CEncrypt@M@@QAE@XZ
_TEXT	SEGMENT
_this$ = -16						; size = 4
__$EHRec$ = -12						; size = 12
??0?$CEncrypt@M@@QAE@XZ PROC				; CEncrypt<float>::CEncrypt<float>, COMDAT
; _this$ = ecx

; 109  : 	CEncrypt()

  00000	6a 04		 push	 4
  00002	b8 00 00 00 00	 mov	 eax, __ehhandler$??0?$CEncrypt@M@@QAE@XZ
  00007	e8 00 00 00 00	 call	 __EH_prolog3
  0000c	8b f1		 mov	 esi, ecx
  0000e	89 75 f0	 mov	 DWORD PTR _this$[ebp], esi
  00011	8d 4e 0c	 lea	 ecx, DWORD PTR [esi+12]
  00014	c7 06 00 00 00
	00		 mov	 DWORD PTR [esi], OFFSET ??_7?$CEncrypt@M@@6B@
  0001a	e8 00 00 00 00	 call	 ??0ccddaabb@@QAE@XZ	; ccddaabb::ccddaabb
  0001f	83 65 fc 00	 and	 DWORD PTR __$EHRec$[ebp+8], 0

; 110  : 	{
; 111  : 		Init();

  00023	8b ce		 mov	 ecx, esi
  00025	e8 00 00 00 00	 call	 ?Init@?$CEncrypt@M@@AAEXXZ ; CEncrypt<float>::Init

; 112  : 	}

  0002a	8b c6		 mov	 eax, esi
  0002c	e8 00 00 00 00	 call	 __EH_epilog3
  00031	c3		 ret	 0
_TEXT	ENDS
;	COMDAT text$x
text$x	SEGMENT
__unwindfunclet$??0?$CEncrypt@M@@QAE@XZ$0:
  00000	8b 4d f0	 mov	 ecx, DWORD PTR _this$[ebp]
  00003	83 c1 0c	 add	 ecx, 12			; 0000000cH
  00006	e9 00 00 00 00	 jmp	 ??1ccddaabb@@UAE@XZ	; ccddaabb::~ccddaabb
__ehhandler$??0?$CEncrypt@M@@QAE@XZ:
  0000b	8b 54 24 08	 mov	 edx, DWORD PTR [esp+8]
  0000f	8d 42 0c	 lea	 eax, DWORD PTR [edx+12]
  00012	8b 4a ec	 mov	 ecx, DWORD PTR [edx-20]
  00015	33 c8		 xor	 ecx, eax
  00017	e8 00 00 00 00	 call	 @__security_check_cookie@4
  0001c	b8 00 00 00 00	 mov	 eax, OFFSET __ehfuncinfo$??0?$CEncrypt@M@@QAE@XZ
  00021	e9 00 00 00 00	 jmp	 ___CxxFrameHandler3
text$x	ENDS
??0?$CEncrypt@M@@QAE@XZ ENDP				; CEncrypt<float>::CEncrypt<float>
PUBLIC	??B?$CEncrypt@M@@QAEMXZ				; CEncrypt<float>::operator float
; Function compile flags: /Ogsp
;	COMDAT ??B?$CEncrypt@M@@QAEMXZ
_TEXT	SEGMENT
_value$ = -4						; size = 4
??B?$CEncrypt@M@@QAEMXZ PROC				; CEncrypt<float>::operator float, COMDAT
; _this$ = ecx

; 134  : 	{

  00000	55		 push	 ebp
  00001	8b ec		 mov	 ebp, esp
  00003	51		 push	 ecx

; 135  : 		type value;
; 136  : 		DecryptValueToPool(&value);

  00004	8d 45 fc	 lea	 eax, DWORD PTR _value$[ebp]
  00007	50		 push	 eax
  00008	e8 00 00 00 00	 call	 ?DecryptValueToPool@?$CEncrypt@M@@QAEXPAM@Z ; CEncrypt<float>::DecryptValueToPool

; 137  : 
; 138  : #ifdef _NOTUSE
; 139  : 		Debug();
; 140  : #endif
; 141  : 		return value;

  0000d	d9 45 fc	 fld	 DWORD PTR _value$[ebp]

; 142  : 	}

  00010	c9		 leave
  00011	c3		 ret	 0
??B?$CEncrypt@M@@QAEMXZ ENDP				; CEncrypt<float>::operator float
_TEXT	ENDS
PUBLIC	??B?$CEncrypt@M@@QBEMXZ				; CEncrypt<float>::operator float
; Function compile flags: /Ogsp
;	COMDAT ??B?$CEncrypt@M@@QBEMXZ
_TEXT	SEGMENT
_value$ = -4						; size = 4
??B?$CEncrypt@M@@QBEMXZ PROC				; CEncrypt<float>::operator float, COMDAT
; _this$ = ecx

; 145  : 	{

  00000	55		 push	 ebp
  00001	8b ec		 mov	 ebp, esp
  00003	51		 push	 ecx

; 146  : 		//UJ 130829, const    --start
; 147  : 		type value;
; 148  : 		CEncrypt<type>* pThis = const_cast<CEncrypt<type>*>(this);
; 149  : 		pThis->DecryptValueToPool(&value);

  00004	8d 45 fc	 lea	 eax, DWORD PTR _value$[ebp]
  00007	50		 push	 eax
  00008	e8 00 00 00 00	 call	 ?DecryptValueToPool@?$CEncrypt@M@@QAEXPAM@Z ; CEncrypt<float>::DecryptValueToPool

; 150  : 		//// const DecryptValueToPool     .
; 151  :  		//type value;
; 152  : 		//char szTempMem[MAX_ENCRYPT];
; 153  : 		//m_RC5.DecryptByte( m_MemPool, szTempMem, max(m_ValueSize, DEFAULT_ENCRYPT) );
; 154  : 		//memcpy( &value, szTempMem, m_ValueSize );
; 155  : 		//UJ --end
; 156  : 
; 157  : #ifdef _NOTUSE
; 158  : 		Debug();
; 159  : #endif
; 160  : 		return value;

  0000d	d9 45 fc	 fld	 DWORD PTR _value$[ebp]

; 161  : 	}

  00010	c9		 leave
  00011	c3		 ret	 0
??B?$CEncrypt@M@@QBEMXZ ENDP				; CEncrypt<float>::operator float
_TEXT	ENDS
PUBLIC	??4?$CEncrypt@M@@QAEMM@Z			; CEncrypt<float>::operator=
; Function compile flags: /Ogsp
;	COMDAT ??4?$CEncrypt@M@@QAEMM@Z
_TEXT	SEGMENT
_value$ = 8						; size = 4
_inValue$ = 8						; size = 4
??4?$CEncrypt@M@@QAEMM@Z PROC				; CEncrypt<float>::operator=, COMDAT
; _this$ = ecx

; 1654 : 	{	

  00000	55		 push	 ebp
  00001	8b ec		 mov	 ebp, esp

; 1655 : 		type value = inValue;

  00003	d9 45 08	 fld	 DWORD PTR _inValue$[ebp]

; 1656 : 		EncryptValueToPool((char*)&value);

  00006	8d 45 08	 lea	 eax, DWORD PTR _value$[ebp]
  00009	50		 push	 eax
  0000a	d9 5d 08	 fstp	 DWORD PTR _value$[ebp]
  0000d	e8 00 00 00 00	 call	 ?EncryptValueToPool@?$CEncrypt@M@@AAEXPBD@Z ; CEncrypt<float>::EncryptValueToPool

; 1657 : #ifdef _NOTUSE
; 1658 : 		m_value = inValue;
; 1659 : 		Debug();
; 1660 : #endif
; 1661 : 		return value;

  00012	d9 45 08	 fld	 DWORD PTR _value$[ebp]

; 1662 : 	}

  00015	5d		 pop	 ebp
  00016	c2 04 00	 ret	 4
??4?$CEncrypt@M@@QAEMM@Z ENDP				; CEncrypt<float>::operator=
_TEXT	ENDS
PUBLIC	??O?$CEncrypt@M@@QAE_NABM@Z			; CEncrypt<float>::operator>
; Function compile flags: /Ogsp
;	COMDAT ??O?$CEncrypt@M@@QAE_NABM@Z
_TEXT	SEGMENT
_value$ = -4						; size = 4
_inValue$ = 8						; size = 4
??O?$CEncrypt@M@@QAE_NABM@Z PROC			; CEncrypt<float>::operator>, COMDAT
; _this$ = ecx

; 1811 : 	{

  00000	55		 push	 ebp
  00001	8b ec		 mov	 ebp, esp
  00003	51		 push	 ecx

; 1812 : 		type value;
; 1813 : 		DecryptValueToPool(&value);

  00004	8d 45 fc	 lea	 eax, DWORD PTR _value$[ebp]
  00007	50		 push	 eax
  00008	e8 00 00 00 00	 call	 ?DecryptValueToPool@?$CEncrypt@M@@QAEXPAM@Z ; CEncrypt<float>::DecryptValueToPool

; 1814 : #ifdef _NOTUSE
; 1815 : 		Debug();
; 1816 : #endif
; 1817 : 		return (value > inValue);

  0000d	8b 45 08	 mov	 eax, DWORD PTR _inValue$[ebp]
  00010	f3 0f 10 08	 movss	 xmm1, DWORD PTR [eax]
  00014	f3 0f 10 45 fc	 movss	 xmm0, DWORD PTR _value$[ebp]
  00019	0f 5a c0	 cvtps2pd xmm0, xmm0
  0001c	0f 5a c9	 cvtps2pd xmm1, xmm1
  0001f	33 c0		 xor	 eax, eax
  00021	66 0f 2f c1	 comisd	 xmm0, xmm1
  00025	76 01		 jbe	 SHORT $LN4@operator
  00027	40		 inc	 eax
$LN4@operator:

; 1818 : 	}		

  00028	c9		 leave
  00029	c2 04 00	 ret	 4
??O?$CEncrypt@M@@QAE_NABM@Z ENDP			; CEncrypt<float>::operator>
_TEXT	ENDS
PUBLIC	??0?$CEncrypt@K@@QAE@XZ				; CEncrypt<unsigned long>::CEncrypt<unsigned long>
;	COMDAT xdata$x
xdata$x	SEGMENT
__unwindtable$??0?$CEncrypt@K@@QAE@XZ DD 0ffffffffH
	DD	FLAT:__unwindfunclet$??0?$CEncrypt@K@@QAE@XZ$0
__ehfuncinfo$??0?$CEncrypt@K@@QAE@XZ DD 019930522H
	DD	01H
	DD	FLAT:__unwindtable$??0?$CEncrypt@K@@QAE@XZ
	DD	2 DUP(00H)
	DD	2 DUP(00H)
	DD	00H
	DD	01H
; Function compile flags: /Ogsp
xdata$x	ENDS
;	COMDAT ??0?$CEncrypt@K@@QAE@XZ
_TEXT	SEGMENT
_this$ = -16						; size = 4
__$EHRec$ = -12						; size = 12
??0?$CEncrypt@K@@QAE@XZ PROC				; CEncrypt<unsigned long>::CEncrypt<unsigned long>, COMDAT
; _this$ = ecx

; 109  : 	CEncrypt()

  00000	6a 04		 push	 4
  00002	b8 00 00 00 00	 mov	 eax, __ehhandler$??0?$CEncrypt@K@@QAE@XZ
  00007	e8 00 00 00 00	 call	 __EH_prolog3
  0000c	8b f1		 mov	 esi, ecx
  0000e	89 75 f0	 mov	 DWORD PTR _this$[ebp], esi
  00011	8d 4e 0c	 lea	 ecx, DWORD PTR [esi+12]
  00014	c7 06 00 00 00
	00		 mov	 DWORD PTR [esi], OFFSET ??_7?$CEncrypt@K@@6B@
  0001a	e8 00 00 00 00	 call	 ??0ccddaabb@@QAE@XZ	; ccddaabb::ccddaabb
  0001f	83 65 fc 00	 and	 DWORD PTR __$EHRec$[ebp+8], 0

; 110  : 	{
; 111  : 		Init();

  00023	8b ce		 mov	 ecx, esi
  00025	e8 00 00 00 00	 call	 ?Init@?$CEncrypt@K@@AAEXXZ ; CEncrypt<unsigned long>::Init

; 112  : 	}

  0002a	8b c6		 mov	 eax, esi
  0002c	e8 00 00 00 00	 call	 __EH_epilog3
  00031	c3		 ret	 0
_TEXT	ENDS
;	COMDAT text$x
text$x	SEGMENT
__unwindfunclet$??0?$CEncrypt@K@@QAE@XZ$0:
  00000	8b 4d f0	 mov	 ecx, DWORD PTR _this$[ebp]
  00003	83 c1 0c	 add	 ecx, 12			; 0000000cH
  00006	e9 00 00 00 00	 jmp	 ??1ccddaabb@@UAE@XZ	; ccddaabb::~ccddaabb
__ehhandler$??0?$CEncrypt@K@@QAE@XZ:
  0000b	8b 54 24 08	 mov	 edx, DWORD PTR [esp+8]
  0000f	8d 42 0c	 lea	 eax, DWORD PTR [edx+12]
  00012	8b 4a ec	 mov	 ecx, DWORD PTR [edx-20]
  00015	33 c8		 xor	 ecx, eax
  00017	e8 00 00 00 00	 call	 @__security_check_cookie@4
  0001c	b8 00 00 00 00	 mov	 eax, OFFSET __ehfuncinfo$??0?$CEncrypt@K@@QAE@XZ
  00021	e9 00 00 00 00	 jmp	 ___CxxFrameHandler3
text$x	ENDS
??0?$CEncrypt@K@@QAE@XZ ENDP				; CEncrypt<unsigned long>::CEncrypt<unsigned long>
PUBLIC	??B?$CEncrypt@K@@QAEKXZ				; CEncrypt<unsigned long>::operator unsigned long
; Function compile flags: /Ogsp
;	COMDAT ??B?$CEncrypt@K@@QAEKXZ
_TEXT	SEGMENT
_value$ = -4						; size = 4
??B?$CEncrypt@K@@QAEKXZ PROC				; CEncrypt<unsigned long>::operator unsigned long, COMDAT
; _this$ = ecx

; 134  : 	{

  00000	55		 push	 ebp
  00001	8b ec		 mov	 ebp, esp
  00003	51		 push	 ecx

; 135  : 		type value;
; 136  : 		DecryptValueToPool(&value);

  00004	8d 45 fc	 lea	 eax, DWORD PTR _value$[ebp]
  00007	50		 push	 eax
  00008	e8 00 00 00 00	 call	 ?DecryptValueToPool@?$CEncrypt@K@@QAEXPAK@Z ; CEncrypt<unsigned long>::DecryptValueToPool

; 137  : 
; 138  : #ifdef _NOTUSE
; 139  : 		Debug();
; 140  : #endif
; 141  : 		return value;

  0000d	8b 45 fc	 mov	 eax, DWORD PTR _value$[ebp]

; 142  : 	}

  00010	c9		 leave
  00011	c3		 ret	 0
??B?$CEncrypt@K@@QAEKXZ ENDP				; CEncrypt<unsigned long>::operator unsigned long
_TEXT	ENDS
PUBLIC	??B?$CEncrypt@K@@QBEKXZ				; CEncrypt<unsigned long>::operator unsigned long
; Function compile flags: /Ogsp
;	COMDAT ??B?$CEncrypt@K@@QBEKXZ
_TEXT	SEGMENT
_value$ = -4						; size = 4
??B?$CEncrypt@K@@QBEKXZ PROC				; CEncrypt<unsigned long>::operator unsigned long, COMDAT
; _this$ = ecx

; 145  : 	{

  00000	55		 push	 ebp
  00001	8b ec		 mov	 ebp, esp
  00003	51		 push	 ecx

; 146  : 		//UJ 130829, const    --start
; 147  : 		type value;
; 148  : 		CEncrypt<type>* pThis = const_cast<CEncrypt<type>*>(this);
; 149  : 		pThis->DecryptValueToPool(&value);

  00004	8d 45 fc	 lea	 eax, DWORD PTR _value$[ebp]
  00007	50		 push	 eax
  00008	e8 00 00 00 00	 call	 ?DecryptValueToPool@?$CEncrypt@K@@QAEXPAK@Z ; CEncrypt<unsigned long>::DecryptValueToPool

; 150  : 		//// const DecryptValueToPool     .
; 151  :  		//type value;
; 152  : 		//char szTempMem[MAX_ENCRYPT];
; 153  : 		//m_RC5.DecryptByte( m_MemPool, szTempMem, max(m_ValueSize, DEFAULT_ENCRYPT) );
; 154  : 		//memcpy( &value, szTempMem, m_ValueSize );
; 155  : 		//UJ --end
; 156  : 
; 157  : #ifdef _NOTUSE
; 158  : 		Debug();
; 159  : #endif
; 160  : 		return value;

  0000d	8b 45 fc	 mov	 eax, DWORD PTR _value$[ebp]

; 161  : 	}

  00010	c9		 leave
  00011	c3		 ret	 0
??B?$CEncrypt@K@@QBEKXZ ENDP				; CEncrypt<unsigned long>::operator unsigned long
_TEXT	ENDS
PUBLIC	??4?$CEncrypt@K@@QAEKH@Z			; CEncrypt<unsigned long>::operator=
; Function compile flags: /Ogsp
;	COMDAT ??4?$CEncrypt@K@@QAEKH@Z
_TEXT	SEGMENT
_value$ = 8						; size = 4
_inValue$ = 8						; size = 4
??4?$CEncrypt@K@@QAEKH@Z PROC				; CEncrypt<unsigned long>::operator=, COMDAT
; _this$ = ecx

; 843  : 	{

  00000	55		 push	 ebp
  00001	8b ec		 mov	 ebp, esp

; 844  : 		type value = inValue;

  00003	8b 45 08	 mov	 eax, DWORD PTR _inValue$[ebp]
  00006	89 45 08	 mov	 DWORD PTR _value$[ebp], eax

; 845  : 		EncryptValueToPool((char*)&value);

  00009	8d 45 08	 lea	 eax, DWORD PTR _value$[ebp]
  0000c	50		 push	 eax
  0000d	e8 00 00 00 00	 call	 ?EncryptValueToPool@?$CEncrypt@K@@AAEXPBD@Z ; CEncrypt<unsigned long>::EncryptValueToPool

; 846  : #ifdef _NOTUSE
; 847  : 		m_value = inValue;
; 848  : 		Debug();
; 849  : #endif
; 850  : 		return value;

  00012	8b 45 08	 mov	 eax, DWORD PTR _value$[ebp]

; 851  : 	}

  00015	5d		 pop	 ebp
  00016	c2 04 00	 ret	 4
??4?$CEncrypt@K@@QAEKH@Z ENDP				; CEncrypt<unsigned long>::operator=
_TEXT	ENDS
PUBLIC	??4?$CEncrypt@K@@QAEKK@Z			; CEncrypt<unsigned long>::operator=
; Function compile flags: /Ogsp
;	COMDAT ??4?$CEncrypt@K@@QAEKK@Z
_TEXT	SEGMENT
_value$ = 8						; size = 4
_inValue$ = 8						; size = 4
??4?$CEncrypt@K@@QAEKK@Z PROC				; CEncrypt<unsigned long>::operator=, COMDAT
; _this$ = ecx

; 1262 : 	{

  00000	55		 push	 ebp
  00001	8b ec		 mov	 ebp, esp

; 1263 : 		
; 1264 : 		type value = inValue;

  00003	8b 45 08	 mov	 eax, DWORD PTR _inValue$[ebp]
  00006	89 45 08	 mov	 DWORD PTR _value$[ebp], eax

; 1265 : 		EncryptValueToPool((char*)&value);

  00009	8d 45 08	 lea	 eax, DWORD PTR _value$[ebp]
  0000c	50		 push	 eax
  0000d	e8 00 00 00 00	 call	 ?EncryptValueToPool@?$CEncrypt@K@@AAEXPBD@Z ; CEncrypt<unsigned long>::EncryptValueToPool

; 1266 : #ifdef _NOTUSE
; 1267 : 		m_value = inValue;
; 1268 : 		Debug();
; 1269 : #endif
; 1270 : 		return value;

  00012	8b 45 08	 mov	 eax, DWORD PTR _value$[ebp]

; 1271 : 	}

  00015	5d		 pop	 ebp
  00016	c2 04 00	 ret	 4
??4?$CEncrypt@K@@QAEKK@Z ENDP				; CEncrypt<unsigned long>::operator=
_TEXT	ENDS
PUBLIC	??B?$CEncrypt@W4TeamType@@@@QBE?AW4TeamType@@XZ	; CEncrypt<enum TeamType>::operator enum TeamType
; Function compile flags: /Ogsp
;	COMDAT ??B?$CEncrypt@W4TeamType@@@@QBE?AW4TeamType@@XZ
_TEXT	SEGMENT
_value$ = -4						; size = 4
??B?$CEncrypt@W4TeamType@@@@QBE?AW4TeamType@@XZ PROC	; CEncrypt<enum TeamType>::operator enum TeamType, COMDAT
; _this$ = ecx

; 145  : 	{

  00000	55		 push	 ebp
  00001	8b ec		 mov	 ebp, esp
  00003	51		 push	 ecx

; 146  : 		//UJ 130829, const    --start
; 147  : 		type value;
; 148  : 		CEncrypt<type>* pThis = const_cast<CEncrypt<type>*>(this);
; 149  : 		pThis->DecryptValueToPool(&value);

  00004	8d 45 fc	 lea	 eax, DWORD PTR _value$[ebp]
  00007	50		 push	 eax
  00008	e8 00 00 00 00	 call	 ?DecryptValueToPool@?$CEncrypt@W4TeamType@@@@QAEXPAW4TeamType@@@Z ; CEncrypt<enum TeamType>::DecryptValueToPool

; 150  : 		//// const DecryptValueToPool     .
; 151  :  		//type value;
; 152  : 		//char szTempMem[MAX_ENCRYPT];
; 153  : 		//m_RC5.DecryptByte( m_MemPool, szTempMem, max(m_ValueSize, DEFAULT_ENCRYPT) );
; 154  : 		//memcpy( &value, szTempMem, m_ValueSize );
; 155  : 		//UJ --end
; 156  : 
; 157  : #ifdef _NOTUSE
; 158  : 		Debug();
; 159  : #endif
; 160  : 		return value;

  0000d	8b 45 fc	 mov	 eax, DWORD PTR _value$[ebp]

; 161  : 	}

  00010	c9		 leave
  00011	c3		 ret	 0
??B?$CEncrypt@W4TeamType@@@@QBE?AW4TeamType@@XZ ENDP	; CEncrypt<enum TeamType>::operator enum TeamType
_TEXT	ENDS
PUBLIC	??0?$_Vector_val@UBuffInfoStruct@@V?$allocator@UBuffInfoStruct@@@std@@@std@@QAE@V?$allocator@UBuffInfoStruct@@@1@@Z ; std::_Vector_val<BuffInfoStruct,std::allocator<BuffInfoStruct> >::_Vector_val<BuffInfoStruct,std::allocator<BuffInfoStruct> >
; Function compile flags: /Ogsp
; File c:\program files (x86)\microsoft visual studio 10.0\vc\include\vector
;	COMDAT ??0?$_Vector_val@UBuffInfoStruct@@V?$allocator@UBuffInfoStruct@@@std@@@std@@QAE@V?$allocator@UBuffInfoStruct@@@1@@Z
_TEXT	SEGMENT
__Al$ = 8						; size = 1
??0?$_Vector_val@UBuffInfoStruct@@V?$allocator@UBuffInfoStruct@@@std@@@std@@QAE@V?$allocator@UBuffInfoStruct@@@1@@Z PROC ; std::_Vector_val<BuffInfoStruct,std::allocator<BuffInfoStruct> >::_Vector_val<BuffInfoStruct,std::allocator<BuffInfoStruct> >, COMDAT
; _this$ = ecx

; 426  : 		{	// construct allocator from _Al

  00000	8b c1		 mov	 eax, ecx

; 427  : 		_Myfirst = 0;

  00002	33 c9		 xor	 ecx, ecx
  00004	89 08		 mov	 DWORD PTR [eax], ecx

; 428  : 		_Mylast = 0;

  00006	89 48 04	 mov	 DWORD PTR [eax+4], ecx

; 429  : 		_Myend = 0;

  00009	89 48 08	 mov	 DWORD PTR [eax+8], ecx

; 430  : 		}

  0000c	c2 04 00	 ret	 4
??0?$_Vector_val@UBuffInfoStruct@@V?$allocator@UBuffInfoStruct@@@std@@@std@@QAE@V?$allocator@UBuffInfoStruct@@@1@@Z ENDP ; std::_Vector_val<BuffInfoStruct,std::allocator<BuffInfoStruct> >::_Vector_val<BuffInfoStruct,std::allocator<BuffInfoStruct> >
_TEXT	ENDS
PUBLIC	?max_size@?$vector@UBuffInfoStruct@@V?$allocator@UBuffInfoStruct@@@std@@@std@@QBEIXZ ; std::vector<BuffInfoStruct,std::allocator<BuffInfoStruct> >::max_size
; Function compile flags: /Ogsp
;	COMDAT ?max_size@?$vector@UBuffInfoStruct@@V?$allocator@UBuffInfoStruct@@@std@@@std@@QBEIXZ
_TEXT	SEGMENT
?max_size@?$vector@UBuffInfoStruct@@V?$allocator@UBuffInfoStruct@@@std@@@std@@QBEIXZ PROC ; std::vector<BuffInfoStruct,std::allocator<BuffInfoStruct> >::max_size, COMDAT
; _this$ = ecx

; 884  : 		return (this->_Alval.max_size());

  00000	b8 cc cc cc 0c	 mov	 eax, 214748364		; 0cccccccH

; 885  : 		}

  00005	c3		 ret	 0
?max_size@?$vector@UBuffInfoStruct@@V?$allocator@UBuffInfoStruct@@@std@@@std@@QBEIXZ ENDP ; std::vector<BuffInfoStruct,std::allocator<BuffInfoStruct> >::max_size
_TEXT	ENDS
PUBLIC	?allocate@?$allocator@UBuffInfoStruct@@@std@@QAEPAUBuffInfoStruct@@I@Z ; std::allocator<BuffInfoStruct>::allocate
; Function compile flags: /Ogsp
; File c:\program files (x86)\microsoft visual studio 10.0\vc\include\xmemory
;	COMDAT ?allocate@?$allocator@UBuffInfoStruct@@@std@@QAEPAUBuffInfoStruct@@I@Z
_TEXT	SEGMENT
__Count$ = 8						; size = 4
?allocate@?$allocator@UBuffInfoStruct@@@std@@QAEPAUBuffInfoStruct@@I@Z PROC ; std::allocator<BuffInfoStruct>::allocate, COMDAT
; _this$ = ecx

; 186  : 		{	// allocate array of _Count elements

  00000	55		 push	 ebp
  00001	8b ec		 mov	 ebp, esp

; 187  : 		return (_Allocate(_Count, (pointer)0));

  00003	6a 00		 push	 0
  00005	ff 75 08	 push	 DWORD PTR __Count$[ebp]
  00008	e8 00 00 00 00	 call	 ??$_Allocate@UBuffInfoStruct@@@std@@YAPAUBuffInfoStruct@@IPAU1@@Z ; std::_Allocate<BuffInfoStruct>
  0000d	59		 pop	 ecx
  0000e	59		 pop	 ecx

; 188  : 		}

  0000f	5d		 pop	 ebp
  00010	c2 04 00	 ret	 4
?allocate@?$allocator@UBuffInfoStruct@@@std@@QAEPAUBuffInfoStruct@@I@Z ENDP ; std::allocator<BuffInfoStruct>::allocate
_TEXT	ENDS
PUBLIC	??0?$_Vector_iterator@V?$_Vector_val@UBuffInfoStruct@@V?$allocator@UBuffInfoStruct@@@std@@@std@@@std@@QAE@PAUBuffInfoStruct@@PBU_Container_base0@1@@Z ; std::_Vector_iterator<std::_Vector_val<BuffInfoStruct,std::allocator<BuffInfoStruct> > >::_Vector_iterator<std::_Vector_val<BuffInfoStruct,std::allocator<BuffInfoStruct> > >
; Function compile flags: /Ogsp
; File c:\program files (x86)\microsoft visual studio 10.0\vc\include\vector
;	COMDAT ??0?$_Vector_iterator@V?$_Vector_val@UBuffInfoStruct@@V?$allocator@UBuffInfoStruct@@@std@@@std@@@std@@QAE@PAUBuffInfoStruct@@PBU_Container_base0@1@@Z
_TEXT	SEGMENT
__Parg$ = 8						; size = 4
__Pvector$ = 12						; size = 4
??0?$_Vector_iterator@V?$_Vector_val@UBuffInfoStruct@@V?$allocator@UBuffInfoStruct@@@std@@@std@@@std@@QAE@PAUBuffInfoStruct@@PBU_Container_base0@1@@Z PROC ; std::_Vector_iterator<std::_Vector_val<BuffInfoStruct,std::allocator<BuffInfoStruct> > >::_Vector_iterator<std::_Vector_val<BuffInfoStruct,std::allocator<BuffInfoStruct> > >, COMDAT
; _this$ = ecx

; 304  : 		{	// construct with pointer _Parg

  00000	55		 push	 ebp
  00001	8b ec		 mov	 ebp, esp
  00003	8b c1		 mov	 eax, ecx
  00005	8b 4d 08	 mov	 ecx, DWORD PTR __Parg$[ebp]
  00008	89 08		 mov	 DWORD PTR [eax], ecx

; 305  : 		}

  0000a	5d		 pop	 ebp
  0000b	c2 08 00	 ret	 8
??0?$_Vector_iterator@V?$_Vector_val@UBuffInfoStruct@@V?$allocator@UBuffInfoStruct@@@std@@@std@@@std@@QAE@PAUBuffInfoStruct@@PBU_Container_base0@1@@Z ENDP ; std::_Vector_iterator<std::_Vector_val<BuffInfoStruct,std::allocator<BuffInfoStruct> > >::_Vector_iterator<std::_Vector_val<BuffInfoStruct,std::allocator<BuffInfoStruct> > >
_TEXT	ENDS
PUBLIC	??8?$_Vector_const_iterator@V?$_Vector_val@UBuffInfoStruct@@V?$allocator@UBuffInfoStruct@@@std@@@std@@@std@@QBE_NABV01@@Z ; std::_Vector_const_iterator<std::_Vector_val<BuffInfoStruct,std::allocator<BuffInfoStruct> > >::operator==
; Function compile flags: /Ogsp
;	COMDAT ??8?$_Vector_const_iterator@V?$_Vector_val@UBuffInfoStruct@@V?$allocator@UBuffInfoStruct@@@std@@@std@@@std@@QBE_NABV01@@Z
_TEXT	SEGMENT
__Right$ = 8						; size = 4
??8?$_Vector_const_iterator@V?$_Vector_val@UBuffInfoStruct@@V?$allocator@UBuffInfoStruct@@@std@@@std@@@std@@QBE_NABV01@@Z PROC ; std::_Vector_const_iterator<std::_Vector_val<BuffInfoStruct,std::allocator<BuffInfoStruct> > >::operator==, COMDAT
; _this$ = ecx

; 201  : 		{	// test for iterator equality

  00000	55		 push	 ebp
  00001	8b ec		 mov	 ebp, esp

; 202  : 		_Compat(_Right);
; 203  : 		return (this->_Ptr == _Right._Ptr);

  00003	8b 01		 mov	 eax, DWORD PTR [ecx]
  00005	8b 4d 08	 mov	 ecx, DWORD PTR __Right$[ebp]
  00008	2b 01		 sub	 eax, DWORD PTR [ecx]
  0000a	f7 d8		 neg	 eax
  0000c	1b c0		 sbb	 eax, eax
  0000e	40		 inc	 eax

; 204  : 		}

  0000f	5d		 pop	 ebp
  00010	c2 04 00	 ret	 4
??8?$_Vector_const_iterator@V?$_Vector_val@UBuffInfoStruct@@V?$allocator@UBuffInfoStruct@@@std@@@std@@@std@@QBE_NABV01@@Z ENDP ; std::_Vector_const_iterator<std::_Vector_val<BuffInfoStruct,std::allocator<BuffInfoStruct> > >::operator==
_TEXT	ENDS
PUBLIC	??$_Move@PAUBuffInfoStruct@@PAU1@@std@@YAPAUBuffInfoStruct@@PAU1@00U_Nonscalar_ptr_iterator_tag@0@@Z ; std::_Move<BuffInfoStruct *,BuffInfoStruct *>
; Function compile flags: /Ogsp
; File c:\program files (x86)\microsoft visual studio 10.0\vc\include\xutility
;	COMDAT ??$_Move@PAUBuffInfoStruct@@PAU1@@std@@YAPAUBuffInfoStruct@@PAU1@00U_Nonscalar_ptr_iterator_tag@0@@Z
_TEXT	SEGMENT
__First$ = 8						; size = 4
__Last$ = 12						; size = 4
__Dest$ = 16						; size = 4
___formal$ = 20						; size = 1
??$_Move@PAUBuffInfoStruct@@PAU1@@std@@YAPAUBuffInfoStruct@@PAU1@00U_Nonscalar_ptr_iterator_tag@0@@Z PROC ; std::_Move<BuffInfoStruct *,BuffInfoStruct *>, COMDAT

; 2512 : 	{	// move [_First, _Last) to [_Dest, ...), arbitrary iterators

  00000	55		 push	 ebp
  00001	8b ec		 mov	 ebp, esp
  00003	56		 push	 esi

; 2513 : 	for (; _First != _Last; ++_Dest, ++_First)

  00004	8b 75 08	 mov	 esi, DWORD PTR __First$[ebp]
  00007	eb 1a		 jmp	 SHORT $LN13@Move
$LL3@Move:

; 2514 : 		*_Dest = _STD move(*_First);

  00009	8b 4d 10	 mov	 ecx, DWORD PTR __Dest$[ebp]
  0000c	56		 push	 esi
  0000d	ff 15 00 00 00
	00		 call	 DWORD PTR __imp_??4ioHashString@@QAEAAV0@ABV0@@Z
  00013	8b 46 10	 mov	 eax, DWORD PTR [esi+16]
  00016	8b 4d 10	 mov	 ecx, DWORD PTR __Dest$[ebp]
  00019	83 45 10 14	 add	 DWORD PTR __Dest$[ebp], 20 ; 00000014H
  0001d	89 41 10	 mov	 DWORD PTR [ecx+16], eax
  00020	83 c6 14	 add	 esi, 20			; 00000014H
$LN13@Move:

; 2513 : 	for (; _First != _Last; ++_Dest, ++_First)

  00023	3b 75 0c	 cmp	 esi, DWORD PTR __Last$[ebp]
  00026	75 e1		 jne	 SHORT $LL3@Move

; 2515 : 	return (_Dest);

  00028	8b 45 10	 mov	 eax, DWORD PTR __Dest$[ebp]
  0002b	5e		 pop	 esi

; 2516 : 	}

  0002c	5d		 pop	 ebp
  0002d	c3		 ret	 0
??$_Move@PAUBuffInfoStruct@@PAU1@@std@@YAPAUBuffInfoStruct@@PAU1@00U_Nonscalar_ptr_iterator_tag@0@@Z ENDP ; std::_Move<BuffInfoStruct *,BuffInfoStruct *>
_TEXT	ENDS
PUBLIC	??$_Destroy@UBuffInfoStruct@@@std@@YAXPAUBuffInfoStruct@@@Z ; std::_Destroy<BuffInfoStruct>
; Function compile flags: /Ogsp
; File c:\program files (x86)\microsoft visual studio 10.0\vc\include\xmemory
;	COMDAT ??$_Destroy@UBuffInfoStruct@@@std@@YAXPAUBuffInfoStruct@@@Z
_TEXT	SEGMENT
__Ptr$ = 8						; size = 4
??$_Destroy@UBuffInfoStruct@@@std@@YAXPAUBuffInfoStruct@@@Z PROC ; std::_Destroy<BuffInfoStruct>, COMDAT

; 62   : 	{	// destroy object at _Ptr

  00000	55		 push	 ebp
  00001	8b ec		 mov	 ebp, esp

; 63   : 	_Ptr->~_Ty();

  00003	8b 4d 08	 mov	 ecx, DWORD PTR __Ptr$[ebp]

; 64   : 	}

  00006	5d		 pop	 ebp

; 63   : 	_Ptr->~_Ty();

  00007	ff 25 00 00 00
	00		 jmp	 DWORD PTR __imp_??1ioHashString@@QAE@XZ
??$_Destroy@UBuffInfoStruct@@@std@@YAXPAUBuffInfoStruct@@@Z ENDP ; std::_Destroy<BuffInfoStruct>
_TEXT	ENDS
PUBLIC	??$construct@AAUBuffInfoStruct@@@?$allocator@UBuffInfoStruct@@@std@@QAEXPAUBuffInfoStruct@@AAU2@@Z ; std::allocator<BuffInfoStruct>::construct<BuffInfoStruct &>
;	COMDAT xdata$x
; File c:\program files (x86)\microsoft visual studio 10.0\vc\include\vector
xdata$x	SEGMENT
__unwindtable$??$construct@AAUBuffInfoStruct@@@?$allocator@UBuffInfoStruct@@@std@@QAEXPAUBuffInfoStruct@@AAU2@@Z DD 0ffffffffH
	DD	FLAT:__unwindfunclet$??$construct@AAUBuffInfoStruct@@@?$allocator@UBuffInfoStruct@@@std@@QAEXPAUBuffInfoStruct@@AAU2@@Z$0
__ehfuncinfo$??$construct@AAUBuffInfoStruct@@@?$allocator@UBuffInfoStruct@@@std@@QAEXPAUBuffInfoStruct@@AAU2@@Z DD 019930522H
	DD	01H
	DD	FLAT:__unwindtable$??$construct@AAUBuffInfoStruct@@@?$allocator@UBuffInfoStruct@@@std@@QAEXPAUBuffInfoStruct@@AAU2@@Z
	DD	2 DUP(00H)
	DD	2 DUP(00H)
	DD	00H
	DD	01H
; Function compile flags: /Ogsp
; File c:\program files (x86)\microsoft visual studio 10.0\vc\include\xmemory
xdata$x	ENDS
;	COMDAT ??$construct@AAUBuffInfoStruct@@@?$allocator@UBuffInfoStruct@@@std@@QAEXPAUBuffInfoStruct@@AAU2@@Z
_TEXT	SEGMENT
$T553709 = -16						; size = 4
__$EHRec$ = -12						; size = 12
__Ptr$ = 8						; size = 4
__Val$ = 12						; size = 4
??$construct@AAUBuffInfoStruct@@@?$allocator@UBuffInfoStruct@@@std@@QAEXPAUBuffInfoStruct@@AAU2@@Z PROC ; std::allocator<BuffInfoStruct>::construct<BuffInfoStruct &>, COMDAT
; _this$ = ecx

; 206  : 		void construct(pointer _Ptr, _Other&& _Val)

  00000	6a 04		 push	 4
  00002	b8 00 00 00 00	 mov	 eax, __ehhandler$??$construct@AAUBuffInfoStruct@@@?$allocator@UBuffInfoStruct@@@std@@QAEXPAUBuffInfoStruct@@AAU2@@Z
  00007	e8 00 00 00 00	 call	 __EH_prolog3

; 207  : 		{	// construct object at _Ptr with value _Val
; 208  : 		::new ((void _FARQ *)_Ptr) _Ty(_STD forward<_Other>(_Val));

  0000c	8b 75 08	 mov	 esi, DWORD PTR __Ptr$[ebp]
  0000f	89 75 f0	 mov	 DWORD PTR $T553709[ebp], esi
  00012	83 65 fc 00	 and	 DWORD PTR __$EHRec$[ebp+8], 0
  00016	85 f6		 test	 esi, esi
  00018	74 12		 je	 SHORT $LN3@construct@2
  0001a	8b 7d 0c	 mov	 edi, DWORD PTR __Val$[ebp]
  0001d	57		 push	 edi
  0001e	8b ce		 mov	 ecx, esi
  00020	ff 15 00 00 00
	00		 call	 DWORD PTR __imp_??0ioHashString@@QAE@ABV0@@Z
  00026	8b 47 10	 mov	 eax, DWORD PTR [edi+16]
  00029	89 46 10	 mov	 DWORD PTR [esi+16], eax
$LN3@construct@2:

; 209  : 		}

  0002c	e8 00 00 00 00	 call	 __EH_epilog3
  00031	c2 08 00	 ret	 8
_TEXT	ENDS
;	COMDAT text$x
text$x	SEGMENT
__unwindfunclet$??$construct@AAUBuffInfoStruct@@@?$allocator@UBuffInfoStruct@@@std@@QAEXPAUBuffInfoStruct@@AAU2@@Z$0:
  00000	ff 75 08	 push	 DWORD PTR __Ptr$[ebp]
  00003	ff 75 f0	 push	 DWORD PTR $T553709[ebp]
  00006	e8 00 00 00 00	 call	 ??3@YAXPAX0@Z		; operator delete
  0000b	59		 pop	 ecx
  0000c	59		 pop	 ecx
  0000d	c3		 ret	 0
__ehhandler$??$construct@AAUBuffInfoStruct@@@?$allocator@UBuffInfoStruct@@@std@@QAEXPAUBuffInfoStruct@@AAU2@@Z:
  0000e	8b 54 24 08	 mov	 edx, DWORD PTR [esp+8]
  00012	8d 42 0c	 lea	 eax, DWORD PTR [edx+12]
  00015	8b 4a ec	 mov	 ecx, DWORD PTR [edx-20]
  00018	33 c8		 xor	 ecx, eax
  0001a	e8 00 00 00 00	 call	 @__security_check_cookie@4
  0001f	b8 00 00 00 00	 mov	 eax, OFFSET __ehfuncinfo$??$construct@AAUBuffInfoStruct@@@?$allocator@UBuffInfoStruct@@@std@@QAEXPAUBuffInfoStruct@@AAU2@@Z
  00024	e9 00 00 00 00	 jmp	 ___CxxFrameHandler3
text$x	ENDS
??$construct@AAUBuffInfoStruct@@@?$allocator@UBuffInfoStruct@@@std@@QAEXPAUBuffInfoStruct@@AAU2@@Z ENDP ; std::allocator<BuffInfoStruct>::construct<BuffInfoStruct &>
PUBLIC	?SetGravityAmt@ioBaseChar@@QAEXM@Z		; ioBaseChar::SetGravityAmt
; Function compile flags: /Ogsp
; File d:\lost saga for developer\youtube\tutorial\source\src\lsclient\iobasechar.h
;	COMDAT ?SetGravityAmt@ioBaseChar@@QAEXM@Z
_TEXT	SEGMENT
_value$553733 = 8					; size = 4
_fAmt$ = 8						; size = 4
?SetGravityAmt@ioBaseChar@@QAEXM@Z PROC			; ioBaseChar::SetGravityAmt, COMDAT
; _this$ = ecx

; 2631 : 	inline void SetGravityAmt( float fAmt ) { m_fGravityAmt = fAmt; }

  00000	55		 push	 ebp
  00001	8b ec		 mov	 ebp, esp
  00003	f3 0f 10 45 08	 movss	 xmm0, DWORD PTR _fAmt$[ebp]
  00008	8d 45 08	 lea	 eax, DWORD PTR _value$553733[ebp]
  0000b	50		 push	 eax
  0000c	81 c1 e8 0b 00
	00		 add	 ecx, 3048		; 00000be8H
  00012	f3 0f 11 45 08	 movss	 DWORD PTR _value$553733[ebp], xmm0
  00017	e8 00 00 00 00	 call	 ?EncryptValueToPool@?$CEncrypt@M@@AAEXPBD@Z ; CEncrypt<float>::EncryptValueToPool
  0001c	5d		 pop	 ebp
  0001d	c2 04 00	 ret	 4
?SetGravityAmt@ioBaseChar@@QAEXM@Z ENDP			; ioBaseChar::SetGravityAmt
_TEXT	ENDS
PUBLIC	?SetForcePowerAmt@ioBaseChar@@QAEXM@Z		; ioBaseChar::SetForcePowerAmt
; Function compile flags: /Ogsp
;	COMDAT ?SetForcePowerAmt@ioBaseChar@@QAEXM@Z
_TEXT	SEGMENT
_value$553739 = 8					; size = 4
_fAmt$ = 8						; size = 4
?SetForcePowerAmt@ioBaseChar@@QAEXM@Z PROC		; ioBaseChar::SetForcePowerAmt, COMDAT
; _this$ = ecx

; 2641 : 	inline void SetForcePowerAmt( float fAmt ) { m_fForceAmt = fAmt; }

  00000	55		 push	 ebp
  00001	8b ec		 mov	 ebp, esp
  00003	f3 0f 10 45 08	 movss	 xmm0, DWORD PTR _fAmt$[ebp]
  00008	8d 45 08	 lea	 eax, DWORD PTR _value$553739[ebp]
  0000b	50		 push	 eax
  0000c	81 c1 88 0b 00
	00		 add	 ecx, 2952		; 00000b88H
  00012	f3 0f 11 45 08	 movss	 DWORD PTR _value$553739[ebp], xmm0
  00017	e8 00 00 00 00	 call	 ?EncryptValueToPool@?$CEncrypt@M@@AAEXPBD@Z ; CEncrypt<float>::EncryptValueToPool
  0001c	5d		 pop	 ebp
  0001d	c2 04 00	 ret	 4
?SetForcePowerAmt@ioBaseChar@@QAEXM@Z ENDP		; ioBaseChar::SetForcePowerAmt
_TEXT	ENDS
PUBLIC	?OnSkillStart@ioLightAttack@@UAE_NPAVioBaseChar@@@Z ; ioLightAttack::OnSkillStart
EXTRN	?SetSkillProtection@ioBaseChar@@QAEXXZ:PROC	; ioBaseChar::SetSkillProtection
EXTRN	?SetCameraBuff@ioSkill@@IAEXPAVioBaseChar@@@Z:PROC ; ioSkill::SetCameraBuff
EXTRN	?ShowWeaponItemMesh@ioBaseChar@@QAEX_N0@Z:PROC	; ioBaseChar::ShowWeaponItemMesh
EXTRN	?OnSkillStart@ioAttackSkill@@UAE_NPAVioBaseChar@@@Z:PROC ; ioAttackSkill::OnSkillStart
; Function compile flags: /Ogsp
; File d:\lost saga for developer\youtube\tutorial\source\src\lsclient\iolightattack.cpp
;	COMDAT ?OnSkillStart@ioLightAttack@@UAE_NPAVioBaseChar@@@Z
_TEXT	SEGMENT
_value$553754 = 8					; size = 4
_value$553762 = 8					; size = 4
_pChar$ = 8						; size = 4
?OnSkillStart@ioLightAttack@@UAE_NPAVioBaseChar@@@Z PROC ; ioLightAttack::OnSkillStart, COMDAT
; _this$ = ecx

; 165  : {

  00000	55		 push	 ebp
  00001	8b ec		 mov	 ebp, esp
  00003	56		 push	 esi
  00004	57		 push	 edi

; 166  : 	if ( !ioAttackSkill::OnSkillStart( pChar ) )

  00005	8b 7d 08	 mov	 edi, DWORD PTR _pChar$[ebp]
  00008	57		 push	 edi
  00009	8b f1		 mov	 esi, ecx
  0000b	e8 00 00 00 00	 call	 ?OnSkillStart@ioAttackSkill@@UAE_NPAVioBaseChar@@@Z ; ioAttackSkill::OnSkillStart
  00010	84 c0		 test	 al, al
  00012	0f 84 aa 00 00
	00		 je	 $LN6@OnSkillSta
$LN5@OnSkillSta:
  00018	53		 push	 ebx

; 167  : 		return false;
; 168  : 	m_bSetHandMesh = false;

  00019	33 db		 xor	 ebx, ebx
  0001b	88 9e 0a 0f 00
	00		 mov	 BYTE PTR [esi+3850], bl

; 169  : 
; 170  : 	//    
; 171  : 	if ( m_bUseItemMesh )

  00021	38 9e 08 0f 00
	00		 cmp	 BYTE PTR [esi+3848], bl
  00027	74 09		 je	 SHORT $LN4@OnSkillSta

; 172  : 	{
; 173  : 		pChar->ShowWeaponItemMesh( false );

  00029	53		 push	 ebx
  0002a	53		 push	 ebx
  0002b	8b cf		 mov	 ecx, edi
  0002d	e8 00 00 00 00	 call	 ?ShowWeaponItemMesh@ioBaseChar@@QAEX_N0@Z ; ioBaseChar::ShowWeaponItemMesh
$LN4@OnSkillSta:

; 174  : 	}
; 175  : 
; 176  : 	m_bSkillInJump = false;
; 177  : 	if( m_SkillUseType == SUT_JUMP )

  00032	83 7e 74 01	 cmp	 DWORD PTR [esi+116], 1
  00036	88 9e 08 11 00
	00		 mov	 BYTE PTR [esi+4360], bl
  0003c	75 07		 jne	 SHORT $LN3@OnSkillSta

; 178  : 		m_bSkillInJump = true;

  0003e	c6 86 08 11 00
	00 01		 mov	 BYTE PTR [esi+4360], 1
$LN3@OnSkillSta:

; 179  : 
; 180  : 	SetCameraBuff( pChar );

  00045	57		 push	 edi
  00046	8b ce		 mov	 ecx, esi
  00048	e8 00 00 00 00	 call	 ?SetCameraBuff@ioSkill@@IAEXPAVioBaseChar@@@Z ; ioSkill::SetCameraBuff

; 181  : 
; 182  : 	pChar->SetSkillProtection();

  0004d	8b cf		 mov	 ecx, edi
  0004f	e8 00 00 00 00	 call	 ?SetSkillProtection@ioBaseChar@@QAEXXZ ; ioBaseChar::SetSkillProtection

; 183  : 	pChar->SetCurJumpPowerAmt( 0.0f );

  00054	0f 57 c0	 xorps	 xmm0, xmm0

; 184  : 	pChar->SetGravityAmt( 0.0f );

  00057	8d 45 08	 lea	 eax, DWORD PTR _value$553754[ebp]
  0005a	50		 push	 eax
  0005b	8d 8f e8 0b 00
	00		 lea	 ecx, DWORD PTR [edi+3048]
  00061	f3 0f 11 87 90
	0e 00 00	 movss	 DWORD PTR [edi+3728], xmm0
  00069	f3 0f 11 45 08	 movss	 DWORD PTR _value$553754[ebp], xmm0
  0006e	e8 00 00 00 00	 call	 ?EncryptValueToPool@?$CEncrypt@M@@AAEXPBD@Z ; CEncrypt<float>::EncryptValueToPool

; 185  : 
; 186  : 	if( !m_bSkillInJump )

  00073	38 9e 08 11 00
	00		 cmp	 BYTE PTR [esi+4360], bl
  00079	5b		 pop	 ebx

; 187  : 	{
; 188  : 		m_strPreActionAni	= m_strPreActionAni_Normal;

  0007a	8d 8e 6c 12 00
	00		 lea	 ecx, DWORD PTR [esi+4716]
  00080	75 15		 jne	 SHORT $LN2@OnSkillSta
  00082	8d 86 0c 12 00
	00		 lea	 eax, DWORD PTR [esi+4620]
  00088	50		 push	 eax
  00089	ff 15 00 00 00
	00		 call	 DWORD PTR __imp_??4ioHashString@@QAEAAV0@ABV0@@Z

; 189  : 		m_fPreActionAniRate = m_fPreActionAniRate_Normal;

  0008f	8d 8e dc 11 00
	00		 lea	 ecx, DWORD PTR [esi+4572]

; 190  : 	}
; 191  : 	else

  00095	eb 13		 jmp	 SHORT $LN18@OnSkillSta
$LN2@OnSkillSta:

; 192  : 	{
; 193  : 		m_strPreActionAni = m_strPreActionAni_Jump;

  00097	8d 86 4c 12 00
	00		 lea	 eax, DWORD PTR [esi+4684]
  0009d	50		 push	 eax
  0009e	ff 15 00 00 00
	00		 call	 DWORD PTR __imp_??4ioHashString@@QAEAAV0@ABV0@@Z

; 194  : 		m_fPreActionAniRate = m_fPreActionAniRate_Jump;

  000a4	8d 8e 1c 12 00
	00		 lea	 ecx, DWORD PTR [esi+4636]
$LN18@OnSkillSta:
  000aa	8d 45 08	 lea	 eax, DWORD PTR _value$553762[ebp]
  000ad	50		 push	 eax
  000ae	e8 00 00 00 00	 call	 ?DecryptValueToPool@?$CEncrypt@M@@QAEXPAM@Z ; CEncrypt<float>::DecryptValueToPool
  000b3	f3 0f 10 45 08	 movss	 xmm0, DWORD PTR _value$553762[ebp]
  000b8	f3 0f 11 86 68
	12 00 00	 movss	 DWORD PTR [esi+4712], xmm0

; 195  : 	}
; 196  : 
; 197  : 	return true;

  000c0	b0 01		 mov	 al, 1
$LN6@OnSkillSta:
  000c2	5f		 pop	 edi
  000c3	5e		 pop	 esi

; 198  : }

  000c4	5d		 pop	 ebp
  000c5	c2 04 00	 ret	 4
?OnSkillStart@ioLightAttack@@UAE_NPAVioBaseChar@@@Z ENDP ; ioLightAttack::OnSkillStart
_TEXT	ENDS
PUBLIC	__mask@@AbsDouble@
PUBLIC	__real@40a00000
PUBLIC	_pChar$GSCopy$
PUBLIC	__$ArrayPad$
PUBLIC	?SetPreAction@ioLightAttack@@QAEXPAVioBaseChar@@@Z ; ioLightAttack::SetPreAction
EXTRN	??1SP2Packet@@UAE@XZ:PROC			; SP2Packet::~SP2Packet
EXTRN	?SendToAllPlayingUser@P2PNetwork@@YAXAAVSP2Packet@@PAVioBaseChar@@@Z:PROC ; P2PNetwork::SendToAllPlayingUser
EXTRN	??6SP2Packet@@QAEAAV0@H@Z:PROC			; SP2Packet::operator<<
EXTRN	??6SP2Packet@@QAEAAV0@ABVioHashString@@@Z:PROC	; SP2Packet::operator<<
EXTRN	??0SP2Packet@@QAE@K@Z:PROC			; SP2Packet::SP2Packet
EXTRN	__imp_?GetAnimationFullTime@ioEntityGroup@@QAEMH@Z:PROC
EXTRN	__imp_?GetLoopSec@ioFrameTimer@@QBEKXZ:PROC
EXTRN	__imp_?GetSingleton@ioFrameTimer@@SAAAV1@XZ:PROC
EXTRN	?SetForcePower@ioBaseChar@@QAEXABUD3DXVECTOR3@@MM_N@Z:PROC ; ioBaseChar::SetForcePower
EXTRN	__imp_?UNIT_Y@ioMath@@2UD3DXVECTOR3@@A:BYTE
EXTRN	_D3DXQuaternionRotationAxis@12:PROC
EXTRN	__imp_?ArrangeHead@ioMath@@SAMM@Z:PROC
EXTRN	__imp_??D@YA?AUD3DXVECTOR3@@ABUD3DXQUATERNION@@ABU0@@Z:PROC
EXTRN	__imp_?SetActionAni@ioEntityGroup@@QAE_NHMMMMMM_N0@Z:PROC
EXTRN	__imp_?ClearAllActionAni@ioEntityGroup@@QAEXM_N@Z:PROC
EXTRN	__imp_?ClearAllLoopAni@ioEntityGroup@@QAEXM_N@Z:PROC
EXTRN	__imp_?GetAnimationIdx@ioEntityGroup@@QAEHABVioHashString@@@Z:PROC
EXTRN	__chkstk:PROC
EXTRN	__ftol2:PROC
;	COMDAT __mask@@AbsDouble@
; File d:\lost saga for developer\youtube\tutorial\source\src\lsclient\ioskill.h
CONST	SEGMENT
__mask@@AbsDouble@ DB 0ffH, 0ffH, 0ffH, 0ffH, 0ffH, 0ffH, 0ffH, 07fH, 0ffH
	DB	0ffH, 0ffH, 0ffH, 0ffH, 0ffH, 0ffH, 07fH
CONST	ENDS
;	COMDAT __real@40a00000
CONST	SEGMENT
__real@40a00000 DD 040a00000r			; 5
CONST	ENDS
;	COMDAT xdata$x
xdata$x	SEGMENT
__unwindtable$?SetPreAction@ioLightAttack@@QAEXPAVioBaseChar@@@Z DD 0ffffffffH
	DD	FLAT:__unwindfunclet$?SetPreAction@ioLightAttack@@QAEXPAVioBaseChar@@@Z$0
__ehfuncinfo$?SetPreAction@ioLightAttack@@QAEXPAVioBaseChar@@@Z DD 019930522H
	DD	01H
	DD	FLAT:__unwindtable$?SetPreAction@ioLightAttack@@QAEXPAVioBaseChar@@@Z
	DD	2 DUP(00H)
	DD	2 DUP(00H)
	DD	00H
	DD	01H
; Function compile flags: /Ogsp
; File d:\lost saga for developer\youtube\tutorial\source\src\lsclient\iolightattack.cpp
xdata$x	ENDS
;	COMDAT ?SetPreAction@ioLightAttack@@QAEXPAVioBaseChar@@@Z
_TEXT	SEGMENT
_pGrp$ = -32900						; size = 4
_iCurSkillAniID$ = -32896				; size = 4
_fTimeRate$ = -32892					; size = 4
_pChar$GSCopy$ = -32888					; size = 4
tv566 = -32884						; size = 4
tv465 = -32884						; size = 4
tv463 = -32884						; size = 4
tv309 = -32884						; size = 4
_qtRot$ = -32880					; size = 16
tv603 = -32864						; size = 4
tv545 = -32864						; size = 4
_fAngleV$ = -32864					; size = 4
_fJumpAngle$ = -32864					; size = 4
tv618 = -32860						; size = 4
tv613 = -32860						; size = 4
tv606 = -32860						; size = 4
tv601 = -32860						; size = 4
tv599 = -32860						; size = 4
tv582 = -32860						; size = 4
tv526 = -32860						; size = 4
_value$553859 = -32860					; size = 4
_value$553842 = -32860					; size = 4
_fAngleH$ = -32860					; size = 4
_kPacket$548682 = -32856				; size = 32792
$T548675 = -64						; size = 12
$T548674 = -64						; size = 12
$T548668 = -64						; size = 12
_v$553826 = -52						; size = 12
$T548661 = -52						; size = 12
_vAxis$ = -40						; size = 12
_vTargetDir$ = -28					; size = 12
__$ArrayPad$ = -16					; size = 4
__$EHRec$ = -12						; size = 12
_pChar$ = 8						; size = 4
?SetPreAction@ioLightAttack@@QAEXPAVioBaseChar@@@Z PROC	; ioLightAttack::SetPreAction, COMDAT
; _this$ = ecx

; 291  : {

  00000	55		 push	 ebp
  00001	8b ec		 mov	 ebp, esp
  00003	6a ff		 push	 -1
  00005	68 00 00 00 00	 push	 __ehhandler$?SetPreAction@ioLightAttack@@QAEXPAVioBaseChar@@@Z
  0000a	64 a1 00 00 00
	00		 mov	 eax, DWORD PTR fs:0
  00010	50		 push	 eax
  00011	b8 78 80 00 00	 mov	 eax, 32888		; 00008078H
  00016	e8 00 00 00 00	 call	 __chkstk
  0001b	a1 00 00 00 00	 mov	 eax, DWORD PTR ___security_cookie
  00020	33 c5		 xor	 eax, ebp
  00022	89 45 f0	 mov	 DWORD PTR __$ArrayPad$[ebp], eax
  00025	53		 push	 ebx
  00026	56		 push	 esi
  00027	57		 push	 edi
  00028	50		 push	 eax
  00029	8d 45 f4	 lea	 eax, DWORD PTR __$EHRec$[ebp]
  0002c	64 a3 00 00 00
	00		 mov	 DWORD PTR fs:0, eax
  00032	8b 75 08	 mov	 esi, DWORD PTR _pChar$[ebp]
  00035	8b d9		 mov	 ebx, ecx

; 336  : 	{
; 337  : 		SP2Packet kPacket( CUPK_SKILL_EXTRA_INFO );

  00037	89 b5 88 7f ff
	ff		 mov	 DWORD PTR _pChar$GSCopy$[ebp], esi
  0003d	85 f6		 test	 esi, esi
  0003f	0f 84 9c 04 00
	00		 je	 $LN1@SetPreActi

; 292  : 	if ( !pChar ) return;
; 293  : 	ioEntityGroup *pGrp = pChar->GetGroup();
; 294  : 
; 295  : 	int iCurSkillAniID = pGrp->GetAnimationIdx( m_strPreActionAni );

  00045	8b 7e 04	 mov	 edi, DWORD PTR [esi+4]
  00048	8d 83 6c 12 00
	00		 lea	 eax, DWORD PTR [ebx+4716]
  0004e	50		 push	 eax
  0004f	8b cf		 mov	 ecx, edi
  00051	89 bd 7c 7f ff
	ff		 mov	 DWORD PTR _pGrp$[ebp], edi
  00057	ff 15 00 00 00
	00		 call	 DWORD PTR __imp_?GetAnimationIdx@ioEntityGroup@@QAEHABVioHashString@@@Z
  0005d	89 85 80 7f ff
	ff		 mov	 DWORD PTR _iCurSkillAniID$[ebp], eax

; 296  : 	if ( iCurSkillAniID == -1 ) return;

  00063	83 f8 ff	 cmp	 eax, -1
  00066	0f 84 75 04 00
	00		 je	 $LN1@SetPreActi

; 297  : 
; 298  : 	float fTimeRate = m_fPreActionAniRate;

  0006c	d9 83 68 12 00
	00		 fld	 DWORD PTR [ebx+4712]
  00072	d9 9d 84 7f ff
	ff		 fstp	 DWORD PTR _fTimeRate$[ebp]

; 299  : 
; 300  : 	pGrp->ClearAllLoopAni( FLOAT100, true );

  00078	b8 64 00 00 00	 mov	 eax, 100		; 00000064H
  0007d	89 85 a4 7f ff
	ff		 mov	 DWORD PTR tv618[ebp], eax
  00083	db 85 a4 7f ff
	ff		 fild	 DWORD PTR tv618[ebp]
  00089	6a 01		 push	 1
  0008b	85 c0		 test	 eax, eax
  0008d	79 06		 jns	 SHORT $LN66@SetPreActi
  0008f	d8 05 00 00 00
	00		 fadd	 DWORD PTR __real@4f800000
$LN66@SetPreActi:
  00095	51		 push	 ecx
  00096	8b cf		 mov	 ecx, edi
  00098	d9 1c 24	 fstp	 DWORD PTR [esp]
  0009b	ff 15 00 00 00
	00		 call	 DWORD PTR __imp_?ClearAllLoopAni@ioEntityGroup@@QAEXM_N@Z

; 301  : 	pGrp->ClearAllActionAni( FLOAT100, true );

  000a1	b8 64 00 00 00	 mov	 eax, 100		; 00000064H
  000a6	89 85 a4 7f ff
	ff		 mov	 DWORD PTR tv613[ebp], eax
  000ac	db 85 a4 7f ff
	ff		 fild	 DWORD PTR tv613[ebp]
  000b2	6a 01		 push	 1
  000b4	85 c0		 test	 eax, eax
  000b6	79 06		 jns	 SHORT $LN67@SetPreActi
  000b8	d8 05 00 00 00
	00		 fadd	 DWORD PTR __real@4f800000
$LN67@SetPreActi:
  000be	51		 push	 ecx
  000bf	8b cf		 mov	 ecx, edi
  000c1	d9 1c 24	 fstp	 DWORD PTR [esp]
  000c4	ff 15 00 00 00
	00		 call	 DWORD PTR __imp_?ClearAllActionAni@ioEntityGroup@@QAEXM_N@Z

; 302  : 	pGrp->SetActionAni( iCurSkillAniID, FLOAT100, 5.0f, FLOAT1, FLOAT1/fTimeRate, 0.0f, 0.0f, true );

  000ca	b8 01 00 00 00	 mov	 eax, 1
  000cf	8b c8		 mov	 ecx, eax
  000d1	b8 01 00 00 00	 mov	 eax, 1
  000d6	8b d0		 mov	 edx, eax
  000d8	b8 64 00 00 00	 mov	 eax, 100		; 00000064H
  000dd	0f 57 c0	 xorps	 xmm0, xmm0
  000e0	6a 01		 push	 1
  000e2	6a 01		 push	 1
  000e4	83 ec 18	 sub	 esp, 24			; 00000018H
  000e7	f3 0f 11 44 24
	14		 movss	 DWORD PTR [esp+20], xmm0
  000ed	89 8d a4 7f ff
	ff		 mov	 DWORD PTR tv606[ebp], ecx
  000f3	db 85 a4 7f ff
	ff		 fild	 DWORD PTR tv606[ebp]
  000f9	f3 0f 11 44 24
	10		 movss	 DWORD PTR [esp+16], xmm0
  000ff	85 c9		 test	 ecx, ecx
  00101	79 06		 jns	 SHORT $LN68@SetPreActi
  00103	d8 05 00 00 00
	00		 fadd	 DWORD PTR __real@4f800000
$LN68@SetPreActi:
  00109	d8 b5 84 7f ff
	ff		 fdiv	 DWORD PTR _fTimeRate$[ebp]
  0010f	89 95 a4 7f ff
	ff		 mov	 DWORD PTR tv601[ebp], edx
  00115	d9 9d a0 7f ff
	ff		 fstp	 DWORD PTR tv603[ebp]
  0011b	d9 85 a0 7f ff
	ff		 fld	 DWORD PTR tv603[ebp]
  00121	d9 5c 24 0c	 fstp	 DWORD PTR [esp+12]
  00125	db 85 a4 7f ff
	ff		 fild	 DWORD PTR tv601[ebp]
  0012b	85 d2		 test	 edx, edx
  0012d	79 06		 jns	 SHORT $LN69@SetPreActi
  0012f	d8 05 00 00 00
	00		 fadd	 DWORD PTR __real@4f800000
$LN69@SetPreActi:
  00135	f3 0f 10 05 00
	00 00 00	 movss	 xmm0, DWORD PTR __real@40a00000
  0013d	d9 5c 24 08	 fstp	 DWORD PTR [esp+8]
  00141	89 85 a4 7f ff
	ff		 mov	 DWORD PTR tv599[ebp], eax
  00147	db 85 a4 7f ff
	ff		 fild	 DWORD PTR tv599[ebp]
  0014d	f3 0f 11 44 24
	04		 movss	 DWORD PTR [esp+4], xmm0
  00153	85 c0		 test	 eax, eax
  00155	79 06		 jns	 SHORT $LN70@SetPreActi
  00157	d8 05 00 00 00
	00		 fadd	 DWORD PTR __real@4f800000
$LN70@SetPreActi:
  0015d	d9 1c 24	 fstp	 DWORD PTR [esp]
  00160	ff b5 80 7f ff
	ff		 push	 DWORD PTR _iCurSkillAniID$[ebp]
  00166	8b cf		 mov	 ecx, edi
  00168	ff 15 00 00 00
	00		 call	 DWORD PTR __imp_?SetActionAni@ioEntityGroup@@QAE_NHMMMMMM_N0@Z

; 303  : 
; 304  : 	D3DXVECTOR3 vTargetDir = pChar->GetTargetRot() * D3DXVECTOR3( 0.0f, 0.0f, -FLOAT1 );

  0016e	b8 01 00 00 00	 mov	 eax, 1
  00173	0f 57 c0	 xorps	 xmm0, xmm0
  00176	89 85 a4 7f ff
	ff		 mov	 DWORD PTR tv582[ebp], eax
  0017c	db 85 a4 7f ff
	ff		 fild	 DWORD PTR tv582[ebp]
  00182	f3 0f 11 45 cc	 movss	 DWORD PTR $T548661[ebp], xmm0
  00187	f3 0f 11 45 d0	 movss	 DWORD PTR $T548661[ebp+4], xmm0
  0018c	85 c0		 test	 eax, eax
  0018e	79 06		 jns	 SHORT $LN71@SetPreActi
  00190	d8 05 00 00 00
	00		 fadd	 DWORD PTR __real@4f800000
$LN71@SetPreActi:
  00196	8d 45 cc	 lea	 eax, DWORD PTR $T548661[ebp]
  00199	d9 e0		 fchs
  0019b	50		 push	 eax
  0019c	d9 5d d4	 fstp	 DWORD PTR $T548661[ebp+8]
  0019f	81 c6 a4 06 00
	00		 add	 esi, 1700		; 000006a4H
  001a5	8d 45 e4	 lea	 eax, DWORD PTR _vTargetDir$[ebp]
  001a8	56		 push	 esi
  001a9	50		 push	 eax
  001aa	ff 15 00 00 00
	00		 call	 DWORD PTR __imp_??D@YA?AUD3DXVECTOR3@@ABUD3DXQUATERNION@@ABU0@@Z
  001b0	83 c4 0c	 add	 esp, 12			; 0000000cH

; 305  : 	float fJumpAngle = m_bSkillInJump ?	m_fJumpAngleInJump : m_fJumpAngle;

  001b3	80 bb 08 11 00
	00 00		 cmp	 BYTE PTR [ebx+4360], 0
  001ba	74 0a		 je	 SHORT $LN8@SetPreActi
  001bc	f3 0f 10 83 64
	12 00 00	 movss	 xmm0, DWORD PTR [ebx+4708]
  001c4	eb 08		 jmp	 SHORT $LN76@SetPreActi
$LN8@SetPreActi:
  001c6	f3 0f 10 83 60
	12 00 00	 movss	 xmm0, DWORD PTR [ebx+4704]
$LN76@SetPreActi:
  001ce	f3 0f 11 85 a0
	7f ff ff	 movss	 DWORD PTR _fJumpAngle$[ebp], xmm0

; 306  : 
; 307  : 	//////////////////////////////////////////////////////////////////////////
; 308  : 	float fAngleH = ioMath::ArrangeHead( 0 );

  001d6	0f 57 c0	 xorps	 xmm0, xmm0
  001d9	51		 push	 ecx
  001da	f3 0f 11 04 24	 movss	 DWORD PTR [esp], xmm0
  001df	ff 15 00 00 00
	00		 call	 DWORD PTR __imp_?ArrangeHead@ioMath@@SAMM@Z
  001e5	d9 9d a4 7f ff
	ff		 fstp	 DWORD PTR _fAngleH$[ebp]

; 309  : 	float fAngleV = ioMath::ArrangeHead( fJumpAngle );

  001eb	f3 0f 10 85 a0
	7f ff ff	 movss	 xmm0, DWORD PTR _fJumpAngle$[ebp]
  001f3	f3 0f 11 04 24	 movss	 DWORD PTR [esp], xmm0
  001f8	ff 15 00 00 00
	00		 call	 DWORD PTR __imp_?ArrangeHead@ioMath@@SAMM@Z
  001fe	d9 9d a0 7f ff
	ff		 fstp	 DWORD PTR _fAngleV$[ebp]
  00204	59		 pop	 ecx

; 310  : 
; 311  : 	D3DXVECTOR3 vAxis;
; 312  : 	D3DXVec3Cross( &vAxis, &vTargetDir, &D3DXVECTOR3( 0.0f, -FLOAT1, 0.0f ) );

  00205	b8 01 00 00 00	 mov	 eax, 1
  0020a	89 85 8c 7f ff
	ff		 mov	 DWORD PTR tv566[ebp], eax
  00210	db 85 8c 7f ff
	ff		 fild	 DWORD PTR tv566[ebp]
  00216	85 c0		 test	 eax, eax
  00218	79 06		 jns	 SHORT $LN72@SetPreActi
  0021a	d8 05 00 00 00
	00		 fadd	 DWORD PTR __real@4f800000
$LN72@SetPreActi:
  00220	f3 0f 10 45 e8	 movss	 xmm0, DWORD PTR _vTargetDir$[ebp+4]
  00225	d9 e0		 fchs
  00227	f3 0f 10 55 ec	 movss	 xmm2, DWORD PTR _vTargetDir$[ebp+8]
  0022c	d9 5d c4	 fstp	 DWORD PTR $T548668[ebp+4]
  0022f	f3 0f 10 5d c4	 movss	 xmm3, DWORD PTR $T548668[ebp+4]

; 313  : 
; 314  : 	// vertical
; 315  : 	D3DXQUATERNION qtRot;
; 316  : 	D3DXQuaternionRotationAxis( &qtRot, &vAxis, DEGtoRAD(fAngleV) );

  00234	d9 85 a0 7f ff
	ff		 fld	 DWORD PTR _fAngleV$[ebp]
  0023a	dc 0d 00 00 00
	00		 fmul	 QWORD PTR __real@3f91df46a2526c7a
  00240	0f 5a c8	 cvtps2pd xmm1, xmm0
  00243	0f 57 c0	 xorps	 xmm0, xmm0
  00246	0f 5a d2	 cvtps2pd xmm2, xmm2
  00249	f2 0f 59 c8	 mulsd	 xmm1, xmm0
  0024d	d9 9d a0 7f ff
	ff		 fstp	 DWORD PTR tv545[ebp]
  00253	d9 85 a0 7f ff
	ff		 fld	 DWORD PTR tv545[ebp]
  00259	0f 5a db	 cvtps2pd xmm3, xmm3
  0025c	f2 0f 59 d3	 mulsd	 xmm2, xmm3
  00260	66 0f 28 d9	 movapd	 xmm3, xmm1
  00264	f2 0f 5c da	 subsd	 xmm3, xmm2
  00268	0f 57 d2	 xorps	 xmm2, xmm2
  0026b	f2 0f 5a d3	 cvtsd2ss xmm2, xmm3
  0026f	f3 0f 10 5d e4	 movss	 xmm3, DWORD PTR _vTargetDir$[ebp]
  00274	f3 0f 11 55 cc	 movss	 DWORD PTR _v$553826[ebp], xmm2
  00279	f3 0f 10 55 ec	 movss	 xmm2, DWORD PTR _vTargetDir$[ebp+8]
  0027e	0f 5a d2	 cvtps2pd xmm2, xmm2
  00281	f2 0f 59 d0	 mulsd	 xmm2, xmm0
  00285	0f 5a db	 cvtps2pd xmm3, xmm3
  00288	f2 0f 59 d8	 mulsd	 xmm3, xmm0
  0028c	0f 57 c0	 xorps	 xmm0, xmm0
  0028f	f2 0f 5c d3	 subsd	 xmm2, xmm3
  00293	f2 0f 5a c2	 cvtsd2ss xmm0, xmm2
  00297	f3 0f 10 55 e4	 movss	 xmm2, DWORD PTR _vTargetDir$[ebp]
  0029c	f3 0f 11 45 d0	 movss	 DWORD PTR _v$553826[ebp+4], xmm0
  002a1	f3 0f 10 45 c4	 movss	 xmm0, DWORD PTR $T548668[ebp+4]
  002a6	0f 5a c0	 cvtps2pd xmm0, xmm0
  002a9	0f 5a d2	 cvtps2pd xmm2, xmm2
  002ac	f2 0f 59 c2	 mulsd	 xmm0, xmm2
  002b0	f2 0f 5c c1	 subsd	 xmm0, xmm1
  002b4	f2 0f 5a c0	 cvtsd2ss xmm0, xmm0
  002b8	f3 0f 11 45 d4	 movss	 DWORD PTR _v$553826[ebp+8], xmm0
  002bd	8d 75 cc	 lea	 esi, DWORD PTR _v$553826[ebp]
  002c0	8d 7d d8	 lea	 edi, DWORD PTR _vAxis$[ebp]
  002c3	a5		 movsd
  002c4	51		 push	 ecx
  002c5	8d 45 d8	 lea	 eax, DWORD PTR _vAxis$[ebp]
  002c8	a5		 movsd
  002c9	d9 1c 24	 fstp	 DWORD PTR [esp]
  002cc	50		 push	 eax
  002cd	8d 85 90 7f ff
	ff		 lea	 eax, DWORD PTR _qtRot$[ebp]
  002d3	50		 push	 eax
  002d4	a5		 movsd
  002d5	e8 00 00 00 00	 call	 _D3DXQuaternionRotationAxis@12

; 317  : 	vTargetDir = qtRot * vTargetDir;

  002da	8d 45 e4	 lea	 eax, DWORD PTR _vTargetDir$[ebp]
  002dd	50		 push	 eax
  002de	8d 85 90 7f ff
	ff		 lea	 eax, DWORD PTR _qtRot$[ebp]
  002e4	50		 push	 eax
  002e5	8d 45 c0	 lea	 eax, DWORD PTR $T548674[ebp]
  002e8	50		 push	 eax
  002e9	ff 15 00 00 00
	00		 call	 DWORD PTR __imp_??D@YA?AUD3DXVECTOR3@@ABUD3DXQUATERNION@@ABU0@@Z

; 318  : 
; 319  : 	// horizon
; 320  : 	D3DXQuaternionRotationAxis( &qtRot, &ioMath::UNIT_Y, DEGtoRAD(fAngleH) );

  002ef	d9 85 a4 7f ff
	ff		 fld	 DWORD PTR _fAngleH$[ebp]
  002f5	8b f0		 mov	 esi, eax
  002f7	dc 0d 00 00 00
	00		 fmul	 QWORD PTR __real@3f91df46a2526c7a
  002fd	8d 7d e4	 lea	 edi, DWORD PTR _vTargetDir$[ebp]
  00300	a5		 movsd
  00301	83 c4 08	 add	 esp, 8
  00304	d9 9d a4 7f ff
	ff		 fstp	 DWORD PTR tv526[ebp]
  0030a	d9 85 a4 7f ff
	ff		 fld	 DWORD PTR tv526[ebp]
  00310	a5		 movsd
  00311	d9 1c 24	 fstp	 DWORD PTR [esp]
  00314	ff 35 00 00 00
	00		 push	 DWORD PTR __imp_?UNIT_Y@ioMath@@2UD3DXVECTOR3@@A
  0031a	8d 85 90 7f ff
	ff		 lea	 eax, DWORD PTR _qtRot$[ebp]
  00320	50		 push	 eax
  00321	a5		 movsd
  00322	e8 00 00 00 00	 call	 _D3DXQuaternionRotationAxis@12

; 321  : 	vTargetDir = qtRot * vTargetDir;

  00327	8d 45 e4	 lea	 eax, DWORD PTR _vTargetDir$[ebp]
  0032a	50		 push	 eax
  0032b	8d 85 90 7f ff
	ff		 lea	 eax, DWORD PTR _qtRot$[ebp]
  00331	50		 push	 eax
  00332	8d 45 c0	 lea	 eax, DWORD PTR $T548675[ebp]
  00335	50		 push	 eax
  00336	ff 15 00 00 00
	00		 call	 DWORD PTR __imp_??D@YA?AUD3DXVECTOR3@@ABUD3DXQUATERNION@@ABU0@@Z
  0033c	83 c4 0c	 add	 esp, 12			; 0000000cH
  0033f	8b f0		 mov	 esi, eax

; 322  : 	//////////////////////////////////////////////////////////////////////////
; 323  : 
; 324  : 	if( !m_bSkillInJump )

  00341	80 bb 08 11 00
	00 00		 cmp	 BYTE PTR [ebx+4360], 0
  00348	8d 7d e4	 lea	 edi, DWORD PTR _vTargetDir$[ebp]
  0034b	a5		 movsd
  0034c	a5		 movsd
  0034d	a5		 movsd
  0034e	75 66		 jne	 SHORT $LN3@SetPreActi

; 325  : 		pChar->SetForcePower( vTargetDir, fabs(m_fCharJumpPower), FLOAT1, true );

  00350	b8 01 00 00 00	 mov	 eax, 1
  00355	8b f0		 mov	 esi, eax
  00357	8d 85 a4 7f ff
	ff		 lea	 eax, DWORD PTR _value$553842[ebp]
  0035d	50		 push	 eax
  0035e	8d 8b 7c 11 00
	00		 lea	 ecx, DWORD PTR [ebx+4476]
  00364	e8 00 00 00 00	 call	 ?DecryptValueToPool@?$CEncrypt@M@@QAEXPAM@Z ; CEncrypt<float>::DecryptValueToPool
  00369	89 b5 8c 7f ff
	ff		 mov	 DWORD PTR tv463[ebp], esi
  0036f	db 85 8c 7f ff
	ff		 fild	 DWORD PTR tv463[ebp]
  00375	6a 01		 push	 1
  00377	85 f6		 test	 esi, esi
  00379	79 06		 jns	 SHORT $LN73@SetPreActi
  0037b	d8 05 00 00 00
	00		 fadd	 DWORD PTR __real@4f800000
$LN73@SetPreActi:
  00381	f3 0f 10 85 a4
	7f ff ff	 movss	 xmm0, DWORD PTR _value$553842[ebp]
  00389	8b b5 88 7f ff
	ff		 mov	 esi, DWORD PTR _pChar$GSCopy$[ebp]
  0038f	51		 push	 ecx
  00390	51		 push	 ecx
  00391	0f 5a c0	 cvtps2pd xmm0, xmm0
  00394	d9 5c 24 04	 fstp	 DWORD PTR [esp+4]
  00398	66 0f 54 05 00
	00 00 00	 andpd	 xmm0, QWORD PTR __mask@@AbsDouble@
  003a0	f2 0f 5a c0	 cvtsd2ss xmm0, xmm0
  003a4	8d 45 e4	 lea	 eax, DWORD PTR _vTargetDir$[ebp]
  003a7	f3 0f 11 04 24	 movss	 DWORD PTR [esp], xmm0
  003ac	50		 push	 eax
  003ad	8b ce		 mov	 ecx, esi
  003af	e8 00 00 00 00	 call	 ?SetForcePower@ioBaseChar@@QAEXABUD3DXVECTOR3@@MM_N@Z ; ioBaseChar::SetForcePower

; 326  : 	else

  003b4	eb 68		 jmp	 SHORT $LN2@SetPreActi
$LN3@SetPreActi:

; 327  : 		pChar->SetForcePower( vTargetDir, fabs(m_fJumpPowerInJump), FLOAT1, true );

  003b6	b8 01 00 00 00	 mov	 eax, 1
  003bb	8b f0		 mov	 esi, eax
  003bd	8d 85 a4 7f ff
	ff		 lea	 eax, DWORD PTR _value$553859[ebp]
  003c3	50		 push	 eax
  003c4	8d 8b ac 11 00
	00		 lea	 ecx, DWORD PTR [ebx+4524]
  003ca	e8 00 00 00 00	 call	 ?DecryptValueToPool@?$CEncrypt@M@@QAEXPAM@Z ; CEncrypt<float>::DecryptValueToPool
  003cf	89 b5 8c 7f ff
	ff		 mov	 DWORD PTR tv309[ebp], esi
  003d5	db 85 8c 7f ff
	ff		 fild	 DWORD PTR tv309[ebp]
  003db	6a 01		 push	 1
  003dd	85 f6		 test	 esi, esi
  003df	79 06		 jns	 SHORT $LN74@SetPreActi
  003e1	d8 05 00 00 00
	00		 fadd	 DWORD PTR __real@4f800000
$LN74@SetPreActi:
  003e7	f3 0f 10 85 a4
	7f ff ff	 movss	 xmm0, DWORD PTR _value$553859[ebp]
  003ef	51		 push	 ecx
  003f0	51		 push	 ecx
  003f1	8b 8d 88 7f ff
	ff		 mov	 ecx, DWORD PTR _pChar$GSCopy$[ebp]
  003f7	d9 5c 24 04	 fstp	 DWORD PTR [esp+4]
  003fb	0f 5a c0	 cvtps2pd xmm0, xmm0
  003fe	66 0f 54 05 00
	00 00 00	 andpd	 xmm0, QWORD PTR __mask@@AbsDouble@
  00406	f2 0f 5a c0	 cvtsd2ss xmm0, xmm0
  0040a	8d 45 e4	 lea	 eax, DWORD PTR _vTargetDir$[ebp]
  0040d	f3 0f 11 04 24	 movss	 DWORD PTR [esp], xmm0
  00412	50		 push	 eax
  00413	e8 00 00 00 00	 call	 ?SetForcePower@ioBaseChar@@QAEXABUD3DXVECTOR3@@MM_N@Z ; ioBaseChar::SetForcePower
  00418	8b b5 88 7f ff
	ff		 mov	 esi, DWORD PTR _pChar$GSCopy$[ebp]
$LN2@SetPreActi:

; 328  : 
; 329  : 	DWORD dwCurTime = FRAMEGETTIME();

  0041e	ff 15 00 00 00
	00		 call	 DWORD PTR __imp_?GetSingleton@ioFrameTimer@@SAAAV1@XZ
  00424	8b c8		 mov	 ecx, eax
  00426	ff 15 00 00 00
	00		 call	 DWORD PTR __imp_?GetLoopSec@ioFrameTimer@@QBEKXZ

; 330  : 	
; 331  : 	m_dwPreActionEndTime = dwCurTime + pGrp->GetAnimationFullTime( iCurSkillAniID ) * fTimeRate;

  0042c	ff b5 80 7f ff
	ff		 push	 DWORD PTR _iCurSkillAniID$[ebp]
  00432	8b 8d 7c 7f ff
	ff		 mov	 ecx, DWORD PTR _pGrp$[ebp]
  00438	8b f8		 mov	 edi, eax
  0043a	ff 15 00 00 00
	00		 call	 DWORD PTR __imp_?GetAnimationFullTime@ioEntityGroup@@QAEMH@Z
  00440	d8 8d 84 7f ff
	ff		 fmul	 DWORD PTR _fTimeRate$[ebp]
  00446	89 bd 8c 7f ff
	ff		 mov	 DWORD PTR tv465[ebp], edi
  0044c	db 85 8c 7f ff
	ff		 fild	 DWORD PTR tv465[ebp]
  00452	85 ff		 test	 edi, edi
  00454	79 06		 jns	 SHORT $LN75@SetPreActi
  00456	d8 05 00 00 00
	00		 fadd	 DWORD PTR __real@4f800000
$LN75@SetPreActi:
  0045c	de c1		 faddp	 ST(1), ST(0)
  0045e	e8 00 00 00 00	 call	 __ftol2
  00463	89 83 5c 12 00
	00		 mov	 DWORD PTR [ebx+4700], eax

; 332  : 
; 333  : 	m_State = SS_PREACTION;

  00469	c7 83 e4 10 00
	00 01 00 00 00	 mov	 DWORD PTR [ebx+4324], 1

; 334  : 
; 335  : 	if( pChar->IsNeedSendNetwork() )

  00473	8b 06		 mov	 eax, DWORD PTR [esi]
  00475	8b ce		 mov	 ecx, esi
  00477	ff 90 04 01 00
	00		 call	 DWORD PTR [eax+260]
  0047d	84 c0		 test	 al, al
  0047f	74 60		 je	 SHORT $LN1@SetPreActi

; 336  : 	{
; 337  : 		SP2Packet kPacket( CUPK_SKILL_EXTRA_INFO );

  00481	68 39 41 00 00	 push	 16697			; 00004139H
  00486	8d 8d a8 7f ff
	ff		 lea	 ecx, DWORD PTR _kPacket$548682[ebp]
  0048c	e8 00 00 00 00	 call	 ??0SP2Packet@@QAE@K@Z	; SP2Packet::SP2Packet

; 338  : 		kPacket << pChar->GetCharName();

  00491	81 c6 d4 02 00
	00		 add	 esi, 724		; 000002d4H
  00497	33 ff		 xor	 edi, edi
  00499	56		 push	 esi
  0049a	8d 8d a8 7f ff
	ff		 lea	 ecx, DWORD PTR _kPacket$548682[ebp]
  004a0	89 7d fc	 mov	 DWORD PTR __$EHRec$[ebp+8], edi
  004a3	e8 00 00 00 00	 call	 ??6SP2Packet@@QAEAAV0@ABVioHashString@@@Z ; SP2Packet::operator<<

; 339  : 		kPacket << GetName();

  004a8	83 c3 24	 add	 ebx, 36			; 00000024H
  004ab	53		 push	 ebx
  004ac	8d 8d a8 7f ff
	ff		 lea	 ecx, DWORD PTR _kPacket$548682[ebp]
  004b2	e8 00 00 00 00	 call	 ??6SP2Packet@@QAEAAV0@ABVioHashString@@@Z ; SP2Packet::operator<<

; 340  : 		kPacket << SSC_PREACTION;

  004b7	57		 push	 edi
  004b8	8d 8d a8 7f ff
	ff		 lea	 ecx, DWORD PTR _kPacket$548682[ebp]
  004be	e8 00 00 00 00	 call	 ??6SP2Packet@@QAEAAV0@H@Z ; SP2Packet::operator<<

; 341  : 		P2PNetwork::SendToAllPlayingUser( kPacket );

  004c3	8d 85 a8 7f ff
	ff		 lea	 eax, DWORD PTR _kPacket$548682[ebp]
  004c9	57		 push	 edi
  004ca	50		 push	 eax
  004cb	e8 00 00 00 00	 call	 ?SendToAllPlayingUser@P2PNetwork@@YAXAAVSP2Packet@@PAVioBaseChar@@@Z ; P2PNetwork::SendToAllPlayingUser

; 342  : 	}

  004d0	83 4d fc ff	 or	 DWORD PTR __$EHRec$[ebp+8], -1
  004d4	59		 pop	 ecx
  004d5	59		 pop	 ecx
  004d6	8d 8d a8 7f ff
	ff		 lea	 ecx, DWORD PTR _kPacket$548682[ebp]
  004dc	e8 00 00 00 00	 call	 ??1SP2Packet@@UAE@XZ	; SP2Packet::~SP2Packet
$LN1@SetPreActi:

; 343  : 
; 344  : }

  004e1	8b 4d f4	 mov	 ecx, DWORD PTR __$EHRec$[ebp]
  004e4	64 89 0d 00 00
	00 00		 mov	 DWORD PTR fs:0, ecx
  004eb	59		 pop	 ecx
  004ec	5f		 pop	 edi
  004ed	5e		 pop	 esi
  004ee	5b		 pop	 ebx
  004ef	8b 4d f0	 mov	 ecx, DWORD PTR __$ArrayPad$[ebp]
  004f2	33 cd		 xor	 ecx, ebp
  004f4	e8 00 00 00 00	 call	 @__security_check_cookie@4
  004f9	c9		 leave
  004fa	c2 04 00	 ret	 4
_TEXT	ENDS
;	COMDAT text$x
text$x	SEGMENT
__unwindfunclet$?SetPreAction@ioLightAttack@@QAEXPAVioBaseChar@@@Z$0:
  00000	8d 8d a8 7f ff
	ff		 lea	 ecx, DWORD PTR _kPacket$548682[ebp]
  00006	e9 00 00 00 00	 jmp	 ??1SP2Packet@@UAE@XZ	; SP2Packet::~SP2Packet
__ehhandler$?SetPreAction@ioLightAttack@@QAEXPAVioBaseChar@@@Z:
  0000b	8b 54 24 08	 mov	 edx, DWORD PTR [esp+8]
  0000f	8d 42 0c	 lea	 eax, DWORD PTR [edx+12]
  00012	8b 8a 78 7f ff
	ff		 mov	 ecx, DWORD PTR [edx-32904]
  00018	33 c8		 xor	 ecx, eax
  0001a	e8 00 00 00 00	 call	 @__security_check_cookie@4
  0001f	8b 4a fc	 mov	 ecx, DWORD PTR [edx-4]
  00022	33 c8		 xor	 ecx, eax
  00024	e8 00 00 00 00	 call	 @__security_check_cookie@4
  00029	b8 00 00 00 00	 mov	 eax, OFFSET __ehfuncinfo$?SetPreAction@ioLightAttack@@QAEXPAVioBaseChar@@@Z
  0002e	e9 00 00 00 00	 jmp	 ___CxxFrameHandler3
text$x	ENDS
?SetPreAction@ioLightAttack@@QAEXPAVioBaseChar@@@Z ENDP	; ioLightAttack::SetPreAction
PUBLIC	?AttackSkillFire@ioLightAttack@@MAEXPAVioBaseChar@@@Z ; ioLightAttack::AttackSkillFire
EXTRN	?ChangeSkillWeaponMesh@ioBaseChar@@QAE_NPAVioSkill@@ABVioHashString@@_N@Z:PROC ; ioBaseChar::ChangeSkillWeaponMesh
EXTRN	__imp_?IsEmpty@ioHashString@@QBE_NXZ:PROC
EXTRN	?AttackSkillFire@ioAttackSkill@@MAEXPAVioBaseChar@@@Z:PROC ; ioAttackSkill::AttackSkillFire
; Function compile flags: /Ogsp
;	COMDAT ?AttackSkillFire@ioLightAttack@@MAEXPAVioBaseChar@@@Z
_TEXT	SEGMENT
_value$553927 = 8					; size = 4
_value$553917 = 8					; size = 4
_pChar$ = 8						; size = 4
?AttackSkillFire@ioLightAttack@@MAEXPAVioBaseChar@@@Z PROC ; ioLightAttack::AttackSkillFire, COMDAT
; _this$ = ecx

; 347  : {

  00000	55		 push	 ebp
  00001	8b ec		 mov	 ebp, esp
  00003	56		 push	 esi
  00004	57		 push	 edi

; 348  : 	if ( !pChar )

  00005	8b 7d 08	 mov	 edi, DWORD PTR _pChar$[ebp]
  00008	8b f1		 mov	 esi, ecx
  0000a	85 ff		 test	 edi, edi
  0000c	0f 84 84 00 00
	00		 je	 $LN1@AttackSkil

; 349  : 		return;	
; 350  : 	m_State = SS_ACTION;
; 351  : 
; 352  : 	ioAttackSkill::AttackSkillFire( pChar );

  00012	57		 push	 edi
  00013	c7 86 e4 10 00
	00 02 00 00 00	 mov	 DWORD PTR [esi+4324], 2
  0001d	e8 00 00 00 00	 call	 ?AttackSkillFire@ioAttackSkill@@MAEXPAVioBaseChar@@@Z ; ioAttackSkill::AttackSkillFire

; 353  : 
; 354  : 	pChar->SetCurJumpPowerAmt( 0.0f );

  00022	0f 57 c0	 xorps	 xmm0, xmm0

; 355  : 	pChar->SetGravityAmt( 0.0f );

  00025	8d 45 08	 lea	 eax, DWORD PTR _value$553917[ebp]
  00028	50		 push	 eax
  00029	8d 8f e8 0b 00
	00		 lea	 ecx, DWORD PTR [edi+3048]
  0002f	f3 0f 11 87 90
	0e 00 00	 movss	 DWORD PTR [edi+3728], xmm0
  00037	f3 0f 11 45 08	 movss	 DWORD PTR _value$553917[ebp], xmm0
  0003c	e8 00 00 00 00	 call	 ?EncryptValueToPool@?$CEncrypt@M@@AAEXPBD@Z ; CEncrypt<float>::EncryptValueToPool

; 356  : 	pChar->SetForcePowerAmt( 0.0f );

  00041	0f 57 c0	 xorps	 xmm0, xmm0
  00044	8d 45 08	 lea	 eax, DWORD PTR _value$553927[ebp]
  00047	50		 push	 eax
  00048	8d 8f 88 0b 00
	00		 lea	 ecx, DWORD PTR [edi+2952]
  0004e	f3 0f 11 45 08	 movss	 DWORD PTR _value$553927[ebp], xmm0
  00053	e8 00 00 00 00	 call	 ?EncryptValueToPool@?$CEncrypt@M@@AAEXPBD@Z ; CEncrypt<float>::EncryptValueToPool

; 357  : 
; 358  : 	if( !m_bSetHandMesh && m_bUseItemMesh && !m_HandMesh.IsEmpty() )

  00058	80 be 0a 0f 00
	00 00		 cmp	 BYTE PTR [esi+3850], 0
  0005f	75 35		 jne	 SHORT $LN1@AttackSkil
  00061	80 be 08 0f 00
	00 00		 cmp	 BYTE PTR [esi+3848], 0
  00068	74 2c		 je	 SHORT $LN1@AttackSkil
  0006a	53		 push	 ebx
  0006b	8d 9e f8 0e 00
	00		 lea	 ebx, DWORD PTR [esi+3832]
  00071	8b cb		 mov	 ecx, ebx
  00073	ff 15 00 00 00
	00		 call	 DWORD PTR __imp_?IsEmpty@ioHashString@@QBE_NXZ
  00079	84 c0		 test	 al, al
  0007b	75 18		 jne	 SHORT $LN15@AttackSkil

; 359  : 	{
; 360  : 		pChar->ChangeSkillWeaponMesh( this, m_HandMesh, m_bVisibleEquipMesh );

  0007d	0f b6 86 09 0f
	00 00		 movzx	 eax, BYTE PTR [esi+3849]
  00084	50		 push	 eax
  00085	53		 push	 ebx
  00086	56		 push	 esi
  00087	8b cf		 mov	 ecx, edi
  00089	e8 00 00 00 00	 call	 ?ChangeSkillWeaponMesh@ioBaseChar@@QAE_NPAVioSkill@@ABVioHashString@@_N@Z ; ioBaseChar::ChangeSkillWeaponMesh

; 361  : 		m_bSetHandMesh = true;

  0008e	c6 86 0a 0f 00
	00 01		 mov	 BYTE PTR [esi+3850], 1
$LN15@AttackSkil:
  00095	5b		 pop	 ebx
$LN1@AttackSkil:
  00096	5f		 pop	 edi
  00097	5e		 pop	 esi

; 362  : 	}	
; 363  : }

  00098	5d		 pop	 ebp
  00099	c2 04 00	 ret	 4
?AttackSkillFire@ioLightAttack@@MAEXPAVioBaseChar@@@Z ENDP ; ioLightAttack::AttackSkillFire
_TEXT	ENDS
PUBLIC	__real@00000000
PUBLIC	?SetLoopState@ioLightAttack@@QAEXPAVioBaseChar@@PAVioPlayStage@@@Z ; ioLightAttack::SetLoopState
EXTRN	?CheckMagicCircle@ioBaseGUISupport@@QBE_NXZ:PROC ; ioBaseGUISupport::CheckMagicCircle
EXTRN	__imp_?SetLoopAni@ioEntityGroup@@QAE_NHMMMM@Z:PROC
EXTRN	?SetSpecialHide@ioBaseChar@@QAEX_N@Z:PROC	; ioBaseChar::SetSpecialHide
EXTRN	?SetInvisibleState@ioBaseChar@@QAEX_N0@Z:PROC	; ioBaseChar::SetInvisibleState
;	COMDAT __real@00000000
; File d:\lost saga for developer\youtube\tutorial\source\src\lsclient\stdafx.h
CONST	SEGMENT
__real@00000000 DD 000000000r			; 0
CONST	ENDS
;	COMDAT xdata$x
xdata$x	SEGMENT
__unwindtable$?SetLoopState@ioLightAttack@@QAEXPAVioBaseChar@@PAVioPlayStage@@@Z DD 0ffffffffH
	DD	FLAT:__unwindfunclet$?SetLoopState@ioLightAttack@@QAEXPAVioBaseChar@@PAVioPlayStage@@@Z$0
__ehfuncinfo$?SetLoopState@ioLightAttack@@QAEXPAVioBaseChar@@PAVioPlayStage@@@Z DD 019930522H
	DD	01H
	DD	FLAT:__unwindtable$?SetLoopState@ioLightAttack@@QAEXPAVioBaseChar@@PAVioPlayStage@@@Z
	DD	2 DUP(00H)
	DD	2 DUP(00H)
	DD	00H
	DD	01H
; Function compile flags: /Ogsp
; File d:\lost saga for developer\youtube\tutorial\source\src\lsclient\iolightattack.cpp
xdata$x	ENDS
;	COMDAT ?SetLoopState@ioLightAttack@@QAEXPAVioBaseChar@@PAVioPlayStage@@@Z
_TEXT	SEGMENT
_szDummyCircle$548708 = -36				; size = 16
_iAniID$ = -20						; size = 4
tv249 = -16						; size = 4
tv244 = -16						; size = 4
tv236 = -16						; size = 4
_value$553949 = -16					; size = 4
_value$553955 = -16					; size = 4
__$EHRec$ = -12						; size = 12
tv258 = 8						; size = 4
tv233 = 8						; size = 4
tv231 = 8						; size = 4
tv229 = 8						; size = 4
_value$553936 = 8					; size = 4
_fAniRate$ = 8						; size = 4
_dwCurTime$ = 8						; size = 4
_pChar$ = 8						; size = 4
_pStage$ = 12						; size = 4
?SetLoopState@ioLightAttack@@QAEXPAVioBaseChar@@PAVioPlayStage@@@Z PROC ; ioLightAttack::SetLoopState, COMDAT
; _this$ = ecx

; 366  : {

  00000	6a 18		 push	 24			; 00000018H
  00002	b8 00 00 00 00	 mov	 eax, __ehhandler$?SetLoopState@ioLightAttack@@QAEXPAVioBaseChar@@PAVioPlayStage@@@Z
  00007	e8 00 00 00 00	 call	 __EH_prolog3
  0000c	8b f1		 mov	 esi, ecx

; 367  : 	if( !pChar ) return;

  0000e	8b 5d 08	 mov	 ebx, DWORD PTR _pChar$[ebp]
  00011	85 db		 test	 ebx, ebx
  00013	0f 84 b9 01 00
	00		 je	 $LN1@SetLoopSta

; 368  : 	DWORD dwCurTime = FRAMEGETTIME();

  00019	ff 15 00 00 00
	00		 call	 DWORD PTR __imp_?GetSingleton@ioFrameTimer@@SAAAV1@XZ
  0001f	8b c8		 mov	 ecx, eax
  00021	ff 15 00 00 00
	00		 call	 DWORD PTR __imp_?GetLoopSec@ioFrameTimer@@QBEKXZ

; 369  : 	m_State = SS_LOOP;
; 370  : 	
; 371  : 	pChar->SetInvisibleState( true, true );

  00027	6a 01		 push	 1
  00029	6a 01		 push	 1
  0002b	8b cb		 mov	 ecx, ebx
  0002d	89 45 08	 mov	 DWORD PTR _dwCurTime$[ebp], eax
  00030	c7 86 e4 10 00
	00 03 00 00 00	 mov	 DWORD PTR [esi+4324], 3
  0003a	e8 00 00 00 00	 call	 ?SetInvisibleState@ioBaseChar@@QAEX_N0@Z ; ioBaseChar::SetInvisibleState

; 372  : 	pChar->SetSpecialHide( true );

  0003f	6a 01		 push	 1
  00041	8b cb		 mov	 ecx, ebx
  00043	e8 00 00 00 00	 call	 ?SetSpecialHide@ioBaseChar@@QAEX_N@Z ; ioBaseChar::SetSpecialHide

; 373  : 
; 374  : 	m_dwCurTeleportEndTime = dwCurTime;

  00048	8b 45 08	 mov	 eax, DWORD PTR _dwCurTime$[ebp]
  0004b	89 86 0c 13 00
	00		 mov	 DWORD PTR [esi+4876], eax

; 375  : 	m_dwCurTeleportEndTime += m_dwTeleportEndTime;

  00051	8d 45 08	 lea	 eax, DWORD PTR _value$553936[ebp]
  00054	50		 push	 eax
  00055	8d 8e dc 12 00
	00		 lea	 ecx, DWORD PTR [esi+4828]
  0005b	e8 00 00 00 00	 call	 ?DecryptValueToPool@?$CEncrypt@K@@QAEXPAK@Z ; CEncrypt<unsigned long>::DecryptValueToPool
  00060	8b 45 08	 mov	 eax, DWORD PTR _value$553936[ebp]
  00063	01 86 0c 13 00
	00		 add	 DWORD PTR [esi+4876], eax

; 376  : 
; 377  : 	ioEntityGroup *pGrp = pChar->GetGroup();

  00069	8b 7b 04	 mov	 edi, DWORD PTR [ebx+4]

; 378  : 
; 379  : 	int iAniID = pGrp->GetAnimationIdx( m_SkillLoopMotion );

  0006c	8d 86 0c 11 00
	00		 lea	 eax, DWORD PTR [esi+4364]
  00072	50		 push	 eax
  00073	8b cf		 mov	 ecx, edi
  00075	ff 15 00 00 00
	00		 call	 DWORD PTR __imp_?GetAnimationIdx@ioEntityGroup@@QAEHABVioHashString@@@Z
  0007b	89 45 ec	 mov	 DWORD PTR _iAniID$[ebp], eax

; 380  : 	float fAniRate = FLOAT1;

  0007e	b8 01 00 00 00	 mov	 eax, 1
  00083	89 45 08	 mov	 DWORD PTR tv258[ebp], eax
  00086	db 45 08	 fild	 DWORD PTR tv258[ebp]
  00089	85 c0		 test	 eax, eax
  0008b	79 06		 jns	 SHORT $LN31@SetLoopSta
  0008d	d8 05 00 00 00
	00		 fadd	 DWORD PTR __real@4f800000
$LN31@SetLoopSta:

; 381  : 	if( m_fSkillLoopMotionRate > 0.0f )

  00093	8d 45 f0	 lea	 eax, DWORD PTR _value$553949[ebp]
  00096	d9 5d 08	 fstp	 DWORD PTR _fAniRate$[ebp]
  00099	8d 8e 1c 11 00
	00		 lea	 ecx, DWORD PTR [esi+4380]
  0009f	50		 push	 eax
  000a0	e8 00 00 00 00	 call	 ?DecryptValueToPool@?$CEncrypt@M@@QAEXPAM@Z ; CEncrypt<float>::DecryptValueToPool
  000a5	f3 0f 10 45 f0	 movss	 xmm0, DWORD PTR _value$553949[ebp]
  000aa	0f 2f 05 00 00
	00 00		 comiss	 xmm0, DWORD PTR __real@00000000
  000b1	76 19		 jbe	 SHORT $LN2@SetLoopSta

; 382  : 		fAniRate = m_fSkillLoopMotionRate;

  000b3	8d 45 f0	 lea	 eax, DWORD PTR _value$553955[ebp]
  000b6	50		 push	 eax
  000b7	8d 8e 1c 11 00
	00		 lea	 ecx, DWORD PTR [esi+4380]
  000bd	e8 00 00 00 00	 call	 ?DecryptValueToPool@?$CEncrypt@M@@QAEXPAM@Z ; CEncrypt<float>::DecryptValueToPool
  000c2	f3 0f 10 45 f0	 movss	 xmm0, DWORD PTR _value$553955[ebp]
  000c7	f3 0f 11 45 08	 movss	 DWORD PTR _fAniRate$[ebp], xmm0
$LN2@SetLoopSta:

; 383  : 
; 384  : 	pGrp->ClearAllLoopAni( FLOAT100, true );

  000cc	b8 64 00 00 00	 mov	 eax, 100		; 00000064H
  000d1	89 45 f0	 mov	 DWORD PTR tv249[ebp], eax
  000d4	db 45 f0	 fild	 DWORD PTR tv249[ebp]
  000d7	6a 01		 push	 1
  000d9	85 c0		 test	 eax, eax
  000db	79 06		 jns	 SHORT $LN32@SetLoopSta
  000dd	d8 05 00 00 00
	00		 fadd	 DWORD PTR __real@4f800000
$LN32@SetLoopSta:
  000e3	51		 push	 ecx
  000e4	8b cf		 mov	 ecx, edi
  000e6	d9 1c 24	 fstp	 DWORD PTR [esp]
  000e9	ff 15 00 00 00
	00		 call	 DWORD PTR __imp_?ClearAllLoopAni@ioEntityGroup@@QAEXM_N@Z

; 385  : 	pGrp->ClearAllActionAni( FLOAT100, true );

  000ef	b8 64 00 00 00	 mov	 eax, 100		; 00000064H
  000f4	89 45 f0	 mov	 DWORD PTR tv244[ebp], eax
  000f7	db 45 f0	 fild	 DWORD PTR tv244[ebp]
  000fa	6a 01		 push	 1
  000fc	85 c0		 test	 eax, eax
  000fe	79 06		 jns	 SHORT $LN33@SetLoopSta
  00100	d8 05 00 00 00
	00		 fadd	 DWORD PTR __real@4f800000
$LN33@SetLoopSta:
  00106	51		 push	 ecx
  00107	8b cf		 mov	 ecx, edi
  00109	d9 1c 24	 fstp	 DWORD PTR [esp]
  0010c	ff 15 00 00 00
	00		 call	 DWORD PTR __imp_?ClearAllActionAni@ioEntityGroup@@QAEXM_N@Z

; 386  : 	pGrp->SetLoopAni( iAniID, FLOAT100, FLOAT1, FLOAT1/fAniRate );

  00112	b8 01 00 00 00	 mov	 eax, 1
  00117	8b c8		 mov	 ecx, eax
  00119	b8 01 00 00 00	 mov	 eax, 1
  0011e	8b d0		 mov	 edx, eax
  00120	b8 64 00 00 00	 mov	 eax, 100		; 00000064H
  00125	0f 57 c0	 xorps	 xmm0, xmm0
  00128	83 ec 10	 sub	 esp, 16			; 00000010H
  0012b	89 4d f0	 mov	 DWORD PTR tv236[ebp], ecx
  0012e	db 45 f0	 fild	 DWORD PTR tv236[ebp]
  00131	f3 0f 11 44 24
	0c		 movss	 DWORD PTR [esp+12], xmm0
  00137	85 c9		 test	 ecx, ecx
  00139	79 06		 jns	 SHORT $LN34@SetLoopSta
  0013b	d8 05 00 00 00
	00		 fadd	 DWORD PTR __real@4f800000
$LN34@SetLoopSta:
  00141	d8 75 08	 fdiv	 DWORD PTR _fAniRate$[ebp]
  00144	d9 5d 08	 fstp	 DWORD PTR tv233[ebp]
  00147	d9 45 08	 fld	 DWORD PTR tv233[ebp]
  0014a	d9 5c 24 08	 fstp	 DWORD PTR [esp+8]
  0014e	89 55 08	 mov	 DWORD PTR tv231[ebp], edx
  00151	db 45 08	 fild	 DWORD PTR tv231[ebp]
  00154	85 d2		 test	 edx, edx
  00156	79 06		 jns	 SHORT $LN35@SetLoopSta
  00158	d8 05 00 00 00
	00		 fadd	 DWORD PTR __real@4f800000
$LN35@SetLoopSta:
  0015e	d9 5c 24 04	 fstp	 DWORD PTR [esp+4]
  00162	89 45 08	 mov	 DWORD PTR tv229[ebp], eax
  00165	db 45 08	 fild	 DWORD PTR tv229[ebp]
  00168	85 c0		 test	 eax, eax
  0016a	79 06		 jns	 SHORT $LN36@SetLoopSta
  0016c	d8 05 00 00 00
	00		 fadd	 DWORD PTR __real@4f800000
$LN36@SetLoopSta:
  00172	d9 1c 24	 fstp	 DWORD PTR [esp]
  00175	ff 75 ec	 push	 DWORD PTR _iAniID$[ebp]
  00178	8b cf		 mov	 ecx, edi
  0017a	ff 15 00 00 00
	00		 call	 DWORD PTR __imp_?SetLoopAni@ioEntityGroup@@QAE_NHMMMM@Z

; 387  : 
; 388  : 	if( !pChar->CheckMagicCircle() )

  00180	8d 8b cc 01 00
	00		 lea	 ecx, DWORD PTR [ebx+460]
  00186	e8 00 00 00 00	 call	 ?CheckMagicCircle@ioBaseGUISupport@@QBE_NXZ ; ioBaseGUISupport::CheckMagicCircle
  0018b	84 c0		 test	 al, al
  0018d	75 43		 jne	 SHORT $LN1@SetLoopSta

; 389  : 	{
; 390  : 		ioHashString szDummyCircle;

  0018f	8d 4d dc	 lea	 ecx, DWORD PTR _szDummyCircle$548708[ebp]
  00192	ff 15 00 00 00
	00		 call	 DWORD PTR __imp_??0ioHashString@@QAE@XZ

; 391  : 		pChar->CreateMagicCircle( m_Circle, m_Circle, szDummyCircle, m_fCircleOffSet );

  00198	f3 0f 10 86 9c
	12 00 00	 movss	 xmm0, DWORD PTR [esi+4764]
  001a0	8b 93 cc 01 00
	00		 mov	 edx, DWORD PTR [ebx+460]
  001a6	83 65 fc 00	 and	 DWORD PTR __$EHRec$[ebp+8], 0
  001aa	51		 push	 ecx
  001ab	f3 0f 11 04 24	 movss	 DWORD PTR [esp], xmm0
  001b0	8d 4d dc	 lea	 ecx, DWORD PTR _szDummyCircle$548708[ebp]
  001b3	51		 push	 ecx
  001b4	8d 86 ac 12 00
	00		 lea	 eax, DWORD PTR [esi+4780]
  001ba	50		 push	 eax
  001bb	50		 push	 eax
  001bc	8d 8b cc 01 00
	00		 lea	 ecx, DWORD PTR [ebx+460]
  001c2	ff 52 04	 call	 DWORD PTR [edx+4]

; 392  : 	}

  001c5	83 4d fc ff	 or	 DWORD PTR __$EHRec$[ebp+8], -1
  001c9	8d 4d dc	 lea	 ecx, DWORD PTR _szDummyCircle$548708[ebp]
  001cc	ff 15 00 00 00
	00		 call	 DWORD PTR __imp_??1ioHashString@@QAE@XZ
$LN1@SetLoopSta:

; 393  : }

  001d2	e8 00 00 00 00	 call	 __EH_epilog3
  001d7	c2 08 00	 ret	 8
_TEXT	ENDS
;	COMDAT text$x
text$x	SEGMENT
__unwindfunclet$?SetLoopState@ioLightAttack@@QAEXPAVioBaseChar@@PAVioPlayStage@@@Z$0:
  00000	8d 4d dc	 lea	 ecx, DWORD PTR _szDummyCircle$548708[ebp]
  00003	ff 25 00 00 00
	00		 jmp	 DWORD PTR __imp_??1ioHashString@@QAE@XZ
__ehhandler$?SetLoopState@ioLightAttack@@QAEXPAVioBaseChar@@PAVioPlayStage@@@Z:
  00009	8b 54 24 08	 mov	 edx, DWORD PTR [esp+8]
  0000d	8d 42 0c	 lea	 eax, DWORD PTR [edx+12]
  00010	8b 4a d8	 mov	 ecx, DWORD PTR [edx-40]
  00013	33 c8		 xor	 ecx, eax
  00015	e8 00 00 00 00	 call	 @__security_check_cookie@4
  0001a	b8 00 00 00 00	 mov	 eax, OFFSET __ehfuncinfo$?SetLoopState@ioLightAttack@@QAEXPAVioBaseChar@@PAVioPlayStage@@@Z
  0001f	e9 00 00 00 00	 jmp	 ___CxxFrameHandler3
text$x	ENDS
?SetLoopState@ioLightAttack@@QAEXPAVioBaseChar@@PAVioPlayStage@@@Z ENDP ; ioLightAttack::SetLoopState
PUBLIC	?OnSkillEnd@ioLightAttack@@UAEXPAVioBaseChar@@@Z ; ioLightAttack::OnSkillEnd
EXTRN	?DestroyMagicCircle@ioBaseGUISupport@@QAEXXZ:PROC ; ioBaseGUISupport::DestroyMagicCircle
EXTRN	?ClearSkillReserveKey@ioBaseChar@@QAEXXZ:PROC	; ioBaseChar::ClearSkillReserveKey
EXTRN	?EndCameraBuff@ioSkill@@IAEXPAVioBaseChar@@@Z:PROC ; ioSkill::EndCameraBuff
EXTRN	?RestoreSkillWeaponMesh@ioBaseChar@@QAE_NPAVioSkill@@ABVioHashString@@_N2@Z:PROC ; ioBaseChar::RestoreSkillWeaponMesh
EXTRN	?OnSkillEnd@ioAttackSkill@@UAEXPAVioBaseChar@@@Z:PROC ; ioAttackSkill::OnSkillEnd
; Function compile flags: /Ogsp
;	COMDAT ?OnSkillEnd@ioLightAttack@@UAEXPAVioBaseChar@@@Z
_TEXT	SEGMENT
_value$554003 = 8					; size = 4
_pChar$ = 8						; size = 4
?OnSkillEnd@ioLightAttack@@UAEXPAVioBaseChar@@@Z PROC	; ioLightAttack::OnSkillEnd, COMDAT
; _this$ = ecx

; 442  : {

  00000	55		 push	 ebp
  00001	8b ec		 mov	 ebp, esp
  00003	53		 push	 ebx
  00004	56		 push	 esi
  00005	57		 push	 edi

; 443  : 	ioAttackSkill::OnSkillEnd( pChar );

  00006	8b 7d 08	 mov	 edi, DWORD PTR _pChar$[ebp]
  00009	57		 push	 edi
  0000a	8b f1		 mov	 esi, ecx
  0000c	e8 00 00 00 00	 call	 ?OnSkillEnd@ioAttackSkill@@UAEXPAVioBaseChar@@@Z ; ioAttackSkill::OnSkillEnd

; 444  : 	
; 445  : 
; 446  : 	if( GetOwnerItem() )

  00011	8b 8e a4 02 00
	00		 mov	 ecx, DWORD PTR [esi+676]
  00017	33 db		 xor	 ebx, ebx
  00019	3b cb		 cmp	 ecx, ebx
  0001b	74 08		 je	 SHORT $LN3@OnSkillEnd

; 447  : 		GetOwnerItem()->ClearCurChargeRateForSkill();

  0001d	8b 01		 mov	 eax, DWORD PTR [ecx]
  0001f	ff 90 84 00 00
	00		 call	 DWORD PTR [eax+132]
$LN3@OnSkillEnd:

; 448  : 
; 449  : 	//  
; 450  : 	if ( m_bUseItemMesh )

  00025	38 9e 08 0f 00
	00		 cmp	 BYTE PTR [esi+3848], bl
  0002b	74 0a		 je	 SHORT $LN2@OnSkillEnd

; 451  : 	{
; 452  : 		pChar->ShowWeaponItemMesh( true );

  0002d	53		 push	 ebx
  0002e	6a 01		 push	 1
  00030	8b cf		 mov	 ecx, edi
  00032	e8 00 00 00 00	 call	 ?ShowWeaponItemMesh@ioBaseChar@@QAEX_N0@Z ; ioBaseChar::ShowWeaponItemMesh
$LN2@OnSkillEnd:

; 453  : 	}
; 454  : 
; 455  : 	if( !m_HandMesh.IsEmpty() )

  00037	8d 8e f8 0e 00
	00		 lea	 ecx, DWORD PTR [esi+3832]
  0003d	ff 15 00 00 00
	00		 call	 DWORD PTR __imp_?IsEmpty@ioHashString@@QBE_NXZ
  00043	84 c0		 test	 al, al
  00045	75 18		 jne	 SHORT $LN1@OnSkillEnd

; 456  : 	{
; 457  : 		pChar->RestoreSkillWeaponMesh( this, m_HandMesh, m_bVisibleEquipMesh );

  00047	0f b6 86 09 0f
	00 00		 movzx	 eax, BYTE PTR [esi+3849]
  0004e	53		 push	 ebx
  0004f	50		 push	 eax
  00050	8d 86 f8 0e 00
	00		 lea	 eax, DWORD PTR [esi+3832]
  00056	50		 push	 eax
  00057	56		 push	 esi
  00058	8b cf		 mov	 ecx, edi
  0005a	e8 00 00 00 00	 call	 ?RestoreSkillWeaponMesh@ioBaseChar@@QAE_NPAVioSkill@@ABVioHashString@@_N2@Z ; ioBaseChar::RestoreSkillWeaponMesh
$LN1@OnSkillEnd:

; 458  : 	}
; 459  : 
; 460  : 	/*if( m_dwSkillMapEffect != -1 )
; 461  : 	{
; 462  : 		pChar->EndMapEffect( m_dwSkillMapEffect, false );
; 463  : 		m_dwSkillMapEffect = -1;
; 464  : 	}*/
; 465  : 
; 466  : 	EndCameraBuff( pChar );

  0005f	57		 push	 edi
  00060	8b ce		 mov	 ecx, esi
  00062	e8 00 00 00 00	 call	 ?EndCameraBuff@ioSkill@@IAEXPAVioBaseChar@@@Z ; ioSkill::EndCameraBuff

; 467  : 
; 468  : 	pChar->ClearSkillReserveKey();

  00067	8b cf		 mov	 ecx, edi
  00069	e8 00 00 00 00	 call	 ?ClearSkillReserveKey@ioBaseChar@@QAEXXZ ; ioBaseChar::ClearSkillReserveKey

; 469  : 	pChar->SetInvisibleState( false, true );

  0006e	6a 01		 push	 1
  00070	53		 push	 ebx
  00071	8b cf		 mov	 ecx, edi
  00073	e8 00 00 00 00	 call	 ?SetInvisibleState@ioBaseChar@@QAEX_N0@Z ; ioBaseChar::SetInvisibleState

; 470  : 	pChar->SetSpecialHide( false );

  00078	53		 push	 ebx
  00079	8b cf		 mov	 ecx, edi
  0007b	e8 00 00 00 00	 call	 ?SetSpecialHide@ioBaseChar@@QAEX_N@Z ; ioBaseChar::SetSpecialHide

; 471  : 	pChar->DestroyMagicCircle();

  00080	8d 8f cc 01 00
	00		 lea	 ecx, DWORD PTR [edi+460]
  00086	e8 00 00 00 00	 call	 ?DestroyMagicCircle@ioBaseGUISupport@@QAEXXZ ; ioBaseGUISupport::DestroyMagicCircle

; 472  : 	
; 473  : 	m_dwMotionEndTime = 0;
; 474  : 	m_dwMotionStartTime = 0;

  0008b	8d 45 08	 lea	 eax, DWORD PTR _value$554003[ebp]
  0008e	50		 push	 eax
  0008f	8d 8e a8 02 00
	00		 lea	 ecx, DWORD PTR [esi+680]
  00095	89 9e d8 02 00
	00		 mov	 DWORD PTR [esi+728], ebx
  0009b	89 5d 08	 mov	 DWORD PTR _value$554003[ebp], ebx
  0009e	e8 00 00 00 00	 call	 ?EncryptValueToPool@?$CEncrypt@K@@AAEXPBD@Z ; CEncrypt<unsigned long>::EncryptValueToPool

; 475  : 	ClearData();

  000a3	8b ce		 mov	 ecx, esi
  000a5	e8 00 00 00 00	 call	 ?ClearData@ioLightAttack@@QAEXXZ ; ioLightAttack::ClearData
  000aa	5f		 pop	 edi
  000ab	5e		 pop	 esi
  000ac	5b		 pop	 ebx

; 476  : }

  000ad	5d		 pop	 ebp
  000ae	c2 04 00	 ret	 4
?OnSkillEnd@ioLightAttack@@UAEXPAVioBaseChar@@@Z ENDP	; ioLightAttack::OnSkillEnd
_TEXT	ENDS
PUBLIC	??0?$CEncrypt@K@@QAE@ABV0@@Z			; CEncrypt<unsigned long>::CEncrypt<unsigned long>
;	COMDAT xdata$x
; File d:\lost saga for developer\youtube\tutorial\source\src\lsclient\encryptvalue.h
xdata$x	SEGMENT
__unwindtable$??0?$CEncrypt@K@@QAE@ABV0@@Z DD 0ffffffffH
	DD	FLAT:__unwindfunclet$??0?$CEncrypt@K@@QAE@ABV0@@Z$0
__ehfuncinfo$??0?$CEncrypt@K@@QAE@ABV0@@Z DD 019930522H
	DD	01H
	DD	FLAT:__unwindtable$??0?$CEncrypt@K@@QAE@ABV0@@Z
	DD	2 DUP(00H)
	DD	2 DUP(00H)
	DD	00H
	DD	01H
; Function compile flags: /Ogsp
xdata$x	ENDS
;	COMDAT ??0?$CEncrypt@K@@QAE@ABV0@@Z
_TEXT	SEGMENT
_this$ = -16						; size = 4
__$EHRec$ = -12						; size = 12
_value$554015 = 8					; size = 4
_value$554010 = 8					; size = 4
_inValue$ = 8						; size = 4
??0?$CEncrypt@K@@QAE@ABV0@@Z PROC			; CEncrypt<unsigned long>::CEncrypt<unsigned long>, COMDAT
; _this$ = ecx

; 120  : 	CEncrypt( const CEncrypt<type> &inValue )   //     

  00000	6a 04		 push	 4
  00002	b8 00 00 00 00	 mov	 eax, __ehhandler$??0?$CEncrypt@K@@QAE@ABV0@@Z
  00007	e8 00 00 00 00	 call	 __EH_prolog3
  0000c	8b f1		 mov	 esi, ecx
  0000e	89 75 f0	 mov	 DWORD PTR _this$[ebp], esi
  00011	8d 4e 0c	 lea	 ecx, DWORD PTR [esi+12]
  00014	c7 06 00 00 00
	00		 mov	 DWORD PTR [esi], OFFSET ??_7?$CEncrypt@K@@6B@
  0001a	e8 00 00 00 00	 call	 ??0ccddaabb@@QAE@XZ	; ccddaabb::ccddaabb
  0001f	83 65 fc 00	 and	 DWORD PTR __$EHRec$[ebp+8], 0

; 121  : 	{
; 122  : 		Init();

  00023	8b ce		 mov	 ecx, esi
  00025	e8 00 00 00 00	 call	 ?Init@?$CEncrypt@K@@AAEXXZ ; CEncrypt<unsigned long>::Init

; 123  : 		*this = inValue;

  0002a	8b 4d 08	 mov	 ecx, DWORD PTR _inValue$[ebp]
  0002d	8d 45 08	 lea	 eax, DWORD PTR _value$554010[ebp]
  00030	50		 push	 eax
  00031	e8 00 00 00 00	 call	 ?DecryptValueToPool@?$CEncrypt@K@@QAEXPAK@Z ; CEncrypt<unsigned long>::DecryptValueToPool
  00036	8b 45 08	 mov	 eax, DWORD PTR _value$554010[ebp]
  00039	89 45 08	 mov	 DWORD PTR _value$554015[ebp], eax
  0003c	8d 45 08	 lea	 eax, DWORD PTR _value$554015[ebp]
  0003f	50		 push	 eax
  00040	8b ce		 mov	 ecx, esi
  00042	e8 00 00 00 00	 call	 ?EncryptValueToPool@?$CEncrypt@K@@AAEXPBD@Z ; CEncrypt<unsigned long>::EncryptValueToPool

; 124  : 	}

  00047	8b c6		 mov	 eax, esi
  00049	e8 00 00 00 00	 call	 __EH_epilog3
  0004e	c2 04 00	 ret	 4
_TEXT	ENDS
;	COMDAT text$x
text$x	SEGMENT
__unwindfunclet$??0?$CEncrypt@K@@QAE@ABV0@@Z$0:
  00000	8b 4d f0	 mov	 ecx, DWORD PTR _this$[ebp]
  00003	83 c1 0c	 add	 ecx, 12			; 0000000cH
  00006	e9 00 00 00 00	 jmp	 ??1ccddaabb@@UAE@XZ	; ccddaabb::~ccddaabb
__ehhandler$??0?$CEncrypt@K@@QAE@ABV0@@Z:
  0000b	8b 54 24 08	 mov	 edx, DWORD PTR [esp+8]
  0000f	8d 42 0c	 lea	 eax, DWORD PTR [edx+12]
  00012	8b 4a ec	 mov	 ecx, DWORD PTR [edx-20]
  00015	33 c8		 xor	 ecx, eax
  00017	e8 00 00 00 00	 call	 @__security_check_cookie@4
  0001c	b8 00 00 00 00	 mov	 eax, OFFSET __ehfuncinfo$??0?$CEncrypt@K@@QAE@ABV0@@Z
  00021	e9 00 00 00 00	 jmp	 ___CxxFrameHandler3
text$x	ENDS
??0?$CEncrypt@K@@QAE@ABV0@@Z ENDP			; CEncrypt<unsigned long>::CEncrypt<unsigned long>
PUBLIC	?_Grow_to@?$vector@UBuffInfoStruct@@V?$allocator@UBuffInfoStruct@@@std@@@std@@IBEII@Z ; std::vector<BuffInfoStruct,std::allocator<BuffInfoStruct> >::_Grow_to
; Function compile flags: /Ogsp
; File c:\program files (x86)\microsoft visual studio 10.0\vc\include\vector
;	COMDAT ?_Grow_to@?$vector@UBuffInfoStruct@@V?$allocator@UBuffInfoStruct@@@std@@@std@@IBEII@Z
_TEXT	SEGMENT
__Count$ = 8						; size = 4
?_Grow_to@?$vector@UBuffInfoStruct@@V?$allocator@UBuffInfoStruct@@@std@@@std@@IBEII@Z PROC ; std::vector<BuffInfoStruct,std::allocator<BuffInfoStruct> >::_Grow_to, COMDAT
; _this$ = ecx

; 1274 : 		{	// grow by 50% or at least to _Count

  00000	55		 push	 ebp
  00001	8b ec		 mov	 ebp, esp

; 1275 : 		size_type _Capacity = capacity();

  00003	8b 41 08	 mov	 eax, DWORD PTR [ecx+8]
  00006	2b 01		 sub	 eax, DWORD PTR [ecx]
  00008	6a 14		 push	 20			; 00000014H
  0000a	99		 cdq
  0000b	59		 pop	 ecx
  0000c	f7 f9		 idiv	 ecx

; 1276 : 
; 1277 : 		_Capacity = max_size() - _Capacity / 2 < _Capacity
; 1278 : 			? 0 : _Capacity + _Capacity / 2;	// try to grow by 50%

  0000e	ba cc cc cc 0c	 mov	 edx, 214748364		; 0cccccccH
  00013	8b c8		 mov	 ecx, eax
  00015	d1 e9		 shr	 ecx, 1
  00017	2b d1		 sub	 edx, ecx
  00019	3b d0		 cmp	 edx, eax
  0001b	73 04		 jae	 SHORT $LN4@Grow_to
  0001d	33 c0		 xor	 eax, eax
  0001f	eb 02		 jmp	 SHORT $LN5@Grow_to
$LN4@Grow_to:
  00021	03 c1		 add	 eax, ecx
$LN5@Grow_to:

; 1279 : 		if (_Capacity < _Count)

  00023	3b 45 08	 cmp	 eax, DWORD PTR __Count$[ebp]

; 1280 : 			_Capacity = _Count;

  00026	0f 42 45 08	 cmovb	 eax, DWORD PTR __Count$[ebp]

; 1281 : 		return (_Capacity);
; 1282 : 		}

  0002a	5d		 pop	 ebp
  0002b	c2 04 00	 ret	 4
?_Grow_to@?$vector@UBuffInfoStruct@@V?$allocator@UBuffInfoStruct@@@std@@@std@@IBEII@Z ENDP ; std::vector<BuffInfoStruct,std::allocator<BuffInfoStruct> >::_Grow_to
_TEXT	ENDS
PUBLIC	?construct@?$allocator@UBuffInfoStruct@@@std@@QAEXPAUBuffInfoStruct@@ABU3@@Z ; std::allocator<BuffInfoStruct>::construct
; Function compile flags: /Ogsp
; File c:\program files (x86)\microsoft visual studio 10.0\vc\include\xmemory
;	COMDAT ?construct@?$allocator@UBuffInfoStruct@@@std@@QAEXPAUBuffInfoStruct@@ABU3@@Z
_TEXT	SEGMENT
__Ptr$ = 8						; size = 4
__Val$ = 12						; size = 4
?construct@?$allocator@UBuffInfoStruct@@@std@@QAEXPAUBuffInfoStruct@@ABU3@@Z PROC ; std::allocator<BuffInfoStruct>::construct, COMDAT
; _this$ = ecx

; 196  : 		{	// construct object at _Ptr with value _Val

  00000	55		 push	 ebp
  00001	8b ec		 mov	 ebp, esp

; 197  : 		_Construct(_Ptr, _Val);

  00003	ff 75 0c	 push	 DWORD PTR __Val$[ebp]
  00006	ff 75 08	 push	 DWORD PTR __Ptr$[ebp]
  00009	e8 00 00 00 00	 call	 ??$_Construct@UBuffInfoStruct@@ABU1@@std@@YAXPAUBuffInfoStruct@@ABU1@@Z ; std::_Construct<BuffInfoStruct,BuffInfoStruct const &>
  0000e	59		 pop	 ecx
  0000f	59		 pop	 ecx

; 198  : 		}

  00010	5d		 pop	 ebp
  00011	c2 08 00	 ret	 8
?construct@?$allocator@UBuffInfoStruct@@@std@@QAEXPAUBuffInfoStruct@@ABU3@@Z ENDP ; std::allocator<BuffInfoStruct>::construct
_TEXT	ENDS
PUBLIC	??$_Cons_val@V?$allocator@UBuffInfoStruct@@@std@@UBuffInfoStruct@@U3@@std@@YAXAAV?$allocator@UBuffInfoStruct@@@0@PAUBuffInfoStruct@@$$QAU2@@Z ; std::_Cons_val<std::allocator<BuffInfoStruct>,BuffInfoStruct,BuffInfoStruct>
; Function compile flags: /Ogsp
;	COMDAT ??$_Cons_val@V?$allocator@UBuffInfoStruct@@@std@@UBuffInfoStruct@@U3@@std@@YAXAAV?$allocator@UBuffInfoStruct@@@0@PAUBuffInfoStruct@@$$QAU2@@Z
_TEXT	SEGMENT
__Alval$ = 8						; size = 4
__Pdest$ = 12						; size = 4
__Src$ = 16						; size = 4
??$_Cons_val@V?$allocator@UBuffInfoStruct@@@std@@UBuffInfoStruct@@U3@@std@@YAXAAV?$allocator@UBuffInfoStruct@@@0@PAUBuffInfoStruct@@$$QAU2@@Z PROC ; std::_Cons_val<std::allocator<BuffInfoStruct>,BuffInfoStruct,BuffInfoStruct>, COMDAT

; 279  : 	{	// construct using allocator

  00000	55		 push	 ebp
  00001	8b ec		 mov	 ebp, esp

; 280  : 	_Alval.construct(_Pdest, _STD forward<_Ty2>(_Src));

  00003	ff 75 10	 push	 DWORD PTR __Src$[ebp]
  00006	8b 4d 08	 mov	 ecx, DWORD PTR __Alval$[ebp]
  00009	ff 75 0c	 push	 DWORD PTR __Pdest$[ebp]
  0000c	e8 00 00 00 00	 call	 ?construct@?$allocator@UBuffInfoStruct@@@std@@QAEXPAUBuffInfoStruct@@$$QAU3@@Z ; std::allocator<BuffInfoStruct>::construct

; 281  : 	}

  00011	5d		 pop	 ebp
  00012	c3		 ret	 0
??$_Cons_val@V?$allocator@UBuffInfoStruct@@@std@@UBuffInfoStruct@@U3@@std@@YAXAAV?$allocator@UBuffInfoStruct@@@0@PAUBuffInfoStruct@@$$QAU2@@Z ENDP ; std::_Cons_val<std::allocator<BuffInfoStruct>,BuffInfoStruct,BuffInfoStruct>
_TEXT	ENDS
PUBLIC	?GetTeam@ioPlayEntity@@QBE?AW4TeamType@@XZ	; ioPlayEntity::GetTeam
; Function compile flags: /Ogsp
; File d:\lost saga for developer\youtube\tutorial\source\src\lsclient\ioplayentity.h
;	COMDAT ?GetTeam@ioPlayEntity@@QBE?AW4TeamType@@XZ
_TEXT	SEGMENT
_value$554058 = -4					; size = 4
?GetTeam@ioPlayEntity@@QBE?AW4TeamType@@XZ PROC		; ioPlayEntity::GetTeam, COMDAT
; _this$ = ecx

; 107  : 	inline TeamType GetTeam() const { return m_TeamType; }

  00000	55		 push	 ebp
  00001	8b ec		 mov	 ebp, esp
  00003	51		 push	 ecx
  00004	8d 45 fc	 lea	 eax, DWORD PTR _value$554058[ebp]
  00007	50		 push	 eax
  00008	81 c1 90 00 00
	00		 add	 ecx, 144		; 00000090H
  0000e	e8 00 00 00 00	 call	 ?DecryptValueToPool@?$CEncrypt@W4TeamType@@@@QAEXPAW4TeamType@@@Z ; CEncrypt<enum TeamType>::DecryptValueToPool
  00013	8b 45 fc	 mov	 eax, DWORD PTR _value$554058[ebp]
  00016	c9		 leave
  00017	c3		 ret	 0
?GetTeam@ioPlayEntity@@QBE?AW4TeamType@@XZ ENDP		; ioPlayEntity::GetTeam
_TEXT	ENDS
PUBLIC	??0?$CEncrypt@M@@QAE@ABV0@@Z			; CEncrypt<float>::CEncrypt<float>
;	COMDAT xdata$x
; File d:\lost saga for developer\youtube\tutorial\source\src\lsclient\encryptvalue.h
xdata$x	SEGMENT
__unwindtable$??0?$CEncrypt@M@@QAE@ABV0@@Z DD 0ffffffffH
	DD	FLAT:__unwindfunclet$??0?$CEncrypt@M@@QAE@ABV0@@Z$0
__ehfuncinfo$??0?$CEncrypt@M@@QAE@ABV0@@Z DD 019930522H
	DD	01H
	DD	FLAT:__unwindtable$??0?$CEncrypt@M@@QAE@ABV0@@Z
	DD	2 DUP(00H)
	DD	2 DUP(00H)
	DD	00H
	DD	01H
; Function compile flags: /Ogsp
xdata$x	ENDS
;	COMDAT ??0?$CEncrypt@M@@QAE@ABV0@@Z
_TEXT	SEGMENT
_this$ = -16						; size = 4
__$EHRec$ = -12						; size = 12
_value$554071 = 8					; size = 4
_value$554066 = 8					; size = 4
_inValue$ = 8						; size = 4
??0?$CEncrypt@M@@QAE@ABV0@@Z PROC			; CEncrypt<float>::CEncrypt<float>, COMDAT
; _this$ = ecx

; 120  : 	CEncrypt( const CEncrypt<type> &inValue )   //     

  00000	6a 04		 push	 4
  00002	b8 00 00 00 00	 mov	 eax, __ehhandler$??0?$CEncrypt@M@@QAE@ABV0@@Z
  00007	e8 00 00 00 00	 call	 __EH_prolog3
  0000c	8b f1		 mov	 esi, ecx
  0000e	89 75 f0	 mov	 DWORD PTR _this$[ebp], esi
  00011	8d 4e 0c	 lea	 ecx, DWORD PTR [esi+12]
  00014	c7 06 00 00 00
	00		 mov	 DWORD PTR [esi], OFFSET ??_7?$CEncrypt@M@@6B@
  0001a	e8 00 00 00 00	 call	 ??0ccddaabb@@QAE@XZ	; ccddaabb::ccddaabb
  0001f	83 65 fc 00	 and	 DWORD PTR __$EHRec$[ebp+8], 0

; 121  : 	{
; 122  : 		Init();

  00023	8b ce		 mov	 ecx, esi
  00025	e8 00 00 00 00	 call	 ?Init@?$CEncrypt@M@@AAEXXZ ; CEncrypt<float>::Init

; 123  : 		*this = inValue;

  0002a	8b 4d 08	 mov	 ecx, DWORD PTR _inValue$[ebp]
  0002d	8d 45 08	 lea	 eax, DWORD PTR _value$554066[ebp]
  00030	50		 push	 eax
  00031	e8 00 00 00 00	 call	 ?DecryptValueToPool@?$CEncrypt@M@@QAEXPAM@Z ; CEncrypt<float>::DecryptValueToPool
  00036	f3 0f 10 45 08	 movss	 xmm0, DWORD PTR _value$554066[ebp]
  0003b	8d 45 08	 lea	 eax, DWORD PTR _value$554071[ebp]
  0003e	50		 push	 eax
  0003f	8b ce		 mov	 ecx, esi
  00041	f3 0f 11 45 08	 movss	 DWORD PTR _value$554071[ebp], xmm0
  00046	e8 00 00 00 00	 call	 ?EncryptValueToPool@?$CEncrypt@M@@AAEXPBD@Z ; CEncrypt<float>::EncryptValueToPool

; 124  : 	}

  0004b	8b c6		 mov	 eax, esi
  0004d	e8 00 00 00 00	 call	 __EH_epilog3
  00052	c2 04 00	 ret	 4
_TEXT	ENDS
;	COMDAT text$x
text$x	SEGMENT
__unwindfunclet$??0?$CEncrypt@M@@QAE@ABV0@@Z$0:
  00000	8b 4d f0	 mov	 ecx, DWORD PTR _this$[ebp]
  00003	83 c1 0c	 add	 ecx, 12			; 0000000cH
  00006	e9 00 00 00 00	 jmp	 ??1ccddaabb@@UAE@XZ	; ccddaabb::~ccddaabb
__ehhandler$??0?$CEncrypt@M@@QAE@ABV0@@Z:
  0000b	8b 54 24 08	 mov	 edx, DWORD PTR [esp+8]
  0000f	8d 42 0c	 lea	 eax, DWORD PTR [edx+12]
  00012	8b 4a ec	 mov	 ecx, DWORD PTR [edx-20]
  00015	33 c8		 xor	 ecx, eax
  00017	e8 00 00 00 00	 call	 @__security_check_cookie@4
  0001c	b8 00 00 00 00	 mov	 eax, OFFSET __ehfuncinfo$??0?$CEncrypt@M@@QAE@ABV0@@Z
  00021	e9 00 00 00 00	 jmp	 ___CxxFrameHandler3
text$x	ENDS
??0?$CEncrypt@M@@QAE@ABV0@@Z ENDP			; CEncrypt<float>::CEncrypt<float>
PUBLIC	??0?$vector@UBuffInfoStruct@@V?$allocator@UBuffInfoStruct@@@std@@@std@@QAE@XZ ; std::vector<BuffInfoStruct,std::allocator<BuffInfoStruct> >::vector<BuffInfoStruct,std::allocator<BuffInfoStruct> >
; Function compile flags: /Ogsp
; File c:\program files (x86)\microsoft visual studio 10.0\vc\include\vector
;	COMDAT ??0?$vector@UBuffInfoStruct@@V?$allocator@UBuffInfoStruct@@@std@@@std@@QAE@XZ
_TEXT	SEGMENT
??0?$vector@UBuffInfoStruct@@V?$allocator@UBuffInfoStruct@@@std@@@std@@QAE@XZ PROC ; std::vector<BuffInfoStruct,std::allocator<BuffInfoStruct> >::vector<BuffInfoStruct,std::allocator<BuffInfoStruct> >, COMDAT
; _this$ = ecx

; 507  : 		{	// construct empty vector

  00000	8b c1		 mov	 eax, ecx
  00002	33 c9		 xor	 ecx, ecx
  00004	89 08		 mov	 DWORD PTR [eax], ecx
  00006	89 48 04	 mov	 DWORD PTR [eax+4], ecx
  00009	89 48 08	 mov	 DWORD PTR [eax+8], ecx

; 508  : 		}

  0000c	c3		 ret	 0
??0?$vector@UBuffInfoStruct@@V?$allocator@UBuffInfoStruct@@@std@@@std@@QAE@XZ ENDP ; std::vector<BuffInfoStruct,std::allocator<BuffInfoStruct> >::vector<BuffInfoStruct,std::allocator<BuffInfoStruct> >
_TEXT	ENDS
PUBLIC	?begin@?$vector@UBuffInfoStruct@@V?$allocator@UBuffInfoStruct@@@std@@@std@@QAE?AV?$_Vector_iterator@V?$_Vector_val@UBuffInfoStruct@@V?$allocator@UBuffInfoStruct@@@std@@@std@@@2@XZ ; std::vector<BuffInfoStruct,std::allocator<BuffInfoStruct> >::begin
; Function compile flags: /Ogsp
;	COMDAT ?begin@?$vector@UBuffInfoStruct@@V?$allocator@UBuffInfoStruct@@@std@@@std@@QAE?AV?$_Vector_iterator@V?$_Vector_val@UBuffInfoStruct@@V?$allocator@UBuffInfoStruct@@@std@@@std@@@2@XZ
_TEXT	SEGMENT
___$ReturnUdt$ = 8					; size = 4
?begin@?$vector@UBuffInfoStruct@@V?$allocator@UBuffInfoStruct@@@std@@@std@@QAE?AV?$_Vector_iterator@V?$_Vector_val@UBuffInfoStruct@@V?$allocator@UBuffInfoStruct@@@std@@@std@@@2@XZ PROC ; std::vector<BuffInfoStruct,std::allocator<BuffInfoStruct> >::begin, COMDAT
; _this$ = ecx

; 781  : 		{	// return iterator for beginning of mutable sequence

  00000	55		 push	 ebp
  00001	8b ec		 mov	 ebp, esp

; 782  : 		return (iterator(this->_Myfirst, this));

  00003	8b 09		 mov	 ecx, DWORD PTR [ecx]
  00005	8b 45 08	 mov	 eax, DWORD PTR ___$ReturnUdt$[ebp]
  00008	89 08		 mov	 DWORD PTR [eax], ecx

; 783  : 		}

  0000a	5d		 pop	 ebp
  0000b	c2 04 00	 ret	 4
?begin@?$vector@UBuffInfoStruct@@V?$allocator@UBuffInfoStruct@@@std@@@std@@QAE?AV?$_Vector_iterator@V?$_Vector_val@UBuffInfoStruct@@V?$allocator@UBuffInfoStruct@@@std@@@std@@@2@XZ ENDP ; std::vector<BuffInfoStruct,std::allocator<BuffInfoStruct> >::begin
_TEXT	ENDS
PUBLIC	?end@?$vector@UBuffInfoStruct@@V?$allocator@UBuffInfoStruct@@@std@@@std@@QAE?AV?$_Vector_iterator@V?$_Vector_val@UBuffInfoStruct@@V?$allocator@UBuffInfoStruct@@@std@@@std@@@2@XZ ; std::vector<BuffInfoStruct,std::allocator<BuffInfoStruct> >::end
; Function compile flags: /Ogsp
;	COMDAT ?end@?$vector@UBuffInfoStruct@@V?$allocator@UBuffInfoStruct@@@std@@@std@@QAE?AV?$_Vector_iterator@V?$_Vector_val@UBuffInfoStruct@@V?$allocator@UBuffInfoStruct@@@std@@@std@@@2@XZ
_TEXT	SEGMENT
___$ReturnUdt$ = 8					; size = 4
?end@?$vector@UBuffInfoStruct@@V?$allocator@UBuffInfoStruct@@@std@@@std@@QAE?AV?$_Vector_iterator@V?$_Vector_val@UBuffInfoStruct@@V?$allocator@UBuffInfoStruct@@@std@@@std@@@2@XZ PROC ; std::vector<BuffInfoStruct,std::allocator<BuffInfoStruct> >::end, COMDAT
; _this$ = ecx

; 791  : 		{	// return iterator for end of mutable sequence

  00000	55		 push	 ebp
  00001	8b ec		 mov	 ebp, esp

; 792  : 		return (iterator(this->_Mylast, this));

  00003	8b 49 04	 mov	 ecx, DWORD PTR [ecx+4]
  00006	8b 45 08	 mov	 eax, DWORD PTR ___$ReturnUdt$[ebp]
  00009	89 08		 mov	 DWORD PTR [eax], ecx

; 793  : 		}

  0000b	5d		 pop	 ebp
  0000c	c2 04 00	 ret	 4
?end@?$vector@UBuffInfoStruct@@V?$allocator@UBuffInfoStruct@@@std@@@std@@QAE?AV?$_Vector_iterator@V?$_Vector_val@UBuffInfoStruct@@V?$allocator@UBuffInfoStruct@@@std@@@std@@@2@XZ ENDP ; std::vector<BuffInfoStruct,std::allocator<BuffInfoStruct> >::end
_TEXT	ENDS
PUBLIC	?_Buy@?$vector@UBuffInfoStruct@@V?$allocator@UBuffInfoStruct@@@std@@@std@@IAE_NI@Z ; std::vector<BuffInfoStruct,std::allocator<BuffInfoStruct> >::_Buy
; Function compile flags: /Ogsp
;	COMDAT ?_Buy@?$vector@UBuffInfoStruct@@V?$allocator@UBuffInfoStruct@@@std@@@std@@IAE_NI@Z
_TEXT	SEGMENT
__Capacity$ = 8						; size = 4
?_Buy@?$vector@UBuffInfoStruct@@V?$allocator@UBuffInfoStruct@@@std@@@std@@IAE_NI@Z PROC ; std::vector<BuffInfoStruct,std::allocator<BuffInfoStruct> >::_Buy, COMDAT
; _this$ = ecx

; 1250 : 		{	// allocate array with _Capacity elements

  00000	55		 push	 ebp
  00001	8b ec		 mov	 ebp, esp
  00003	56		 push	 esi

; 1251 : 		this->_Myfirst = 0;

  00004	33 c0		 xor	 eax, eax
  00006	57		 push	 edi

; 1252 : 		this->_Mylast = 0;
; 1253 : 		this->_Myend = 0;
; 1254 : 
; 1255 : 		if (_Capacity == 0)

  00007	8b 7d 08	 mov	 edi, DWORD PTR __Capacity$[ebp]
  0000a	8b f1		 mov	 esi, ecx
  0000c	89 06		 mov	 DWORD PTR [esi], eax
  0000e	89 46 04	 mov	 DWORD PTR [esi+4], eax
  00011	89 46 08	 mov	 DWORD PTR [esi+8], eax
  00014	3b f8		 cmp	 edi, eax
  00016	75 04		 jne	 SHORT $LN4@Buy

; 1256 : 			return (false);

  00018	32 c0		 xor	 al, al
  0001a	eb 2b		 jmp	 SHORT $LN5@Buy
$LN4@Buy:

; 1257 : 		else if (max_size() < _Capacity)

  0001c	81 ff cc cc cc
	0c		 cmp	 edi, 214748364		; 0cccccccH
  00022	76 0b		 jbe	 SHORT $LN2@Buy

; 1258 : 			_Xlen();	// result too long

  00024	68 00 00 00 00	 push	 OFFSET ??_C@_0BD@OLBABOEK@vector?$DMT?$DO?5too?5long?$AA@
  00029	ff 15 00 00 00
	00		 call	 DWORD PTR __imp_?_Xlength_error@std@@YAXPBD@Z
$LN19@Buy:
$LN2@Buy:

; 1259 : 		else
; 1260 : 			{	// nonempty array, allocate storage
; 1261 : 			this->_Myfirst = this->_Alval.allocate(_Capacity);

  0002f	50		 push	 eax
  00030	57		 push	 edi
  00031	e8 00 00 00 00	 call	 ??$_Allocate@UBuffInfoStruct@@@std@@YAPAUBuffInfoStruct@@IPAU1@@Z ; std::_Allocate<BuffInfoStruct>

; 1262 : 			this->_Mylast = this->_Myfirst;
; 1263 : 			this->_Myend = this->_Myfirst + _Capacity;

  00036	6b ff 14	 imul	 edi, 20			; 00000014H
  00039	03 f8		 add	 edi, eax
  0003b	59		 pop	 ecx
  0003c	89 06		 mov	 DWORD PTR [esi], eax
  0003e	89 46 04	 mov	 DWORD PTR [esi+4], eax
  00041	59		 pop	 ecx
  00042	89 7e 08	 mov	 DWORD PTR [esi+8], edi

; 1264 : 			}
; 1265 : 		return (true);

  00045	b0 01		 mov	 al, 1
$LN5@Buy:
  00047	5f		 pop	 edi
  00048	5e		 pop	 esi

; 1266 : 		}

  00049	5d		 pop	 ebp
  0004a	c2 04 00	 ret	 4
$LN18@Buy:
?_Buy@?$vector@UBuffInfoStruct@@V?$allocator@UBuffInfoStruct@@@std@@@std@@IAE_NI@Z ENDP ; std::vector<BuffInfoStruct,std::allocator<BuffInfoStruct> >::_Buy
_TEXT	ENDS
PUBLIC	?_Make_iter@?$vector@UBuffInfoStruct@@V?$allocator@UBuffInfoStruct@@@std@@@std@@QBE?AV?$_Vector_iterator@V?$_Vector_val@UBuffInfoStruct@@V?$allocator@UBuffInfoStruct@@@std@@@std@@@2@V?$_Vector_const_iterator@V?$_Vector_val@UBuffInfoStruct@@V?$allocator@UBuffInfoStruct@@@std@@@std@@@2@@Z ; std::vector<BuffInfoStruct,std::allocator<BuffInfoStruct> >::_Make_iter
; Function compile flags: /Ogsp
;	COMDAT ?_Make_iter@?$vector@UBuffInfoStruct@@V?$allocator@UBuffInfoStruct@@@std@@@std@@QBE?AV?$_Vector_iterator@V?$_Vector_val@UBuffInfoStruct@@V?$allocator@UBuffInfoStruct@@@std@@@std@@@2@V?$_Vector_const_iterator@V?$_Vector_val@UBuffInfoStruct@@V?$allocator@UBuffInfoStruct@@@std@@@std@@@2@@Z
_TEXT	SEGMENT
___$ReturnUdt$ = 8					; size = 4
__Where$ = 12						; size = 4
?_Make_iter@?$vector@UBuffInfoStruct@@V?$allocator@UBuffInfoStruct@@@std@@@std@@QBE?AV?$_Vector_iterator@V?$_Vector_val@UBuffInfoStruct@@V?$allocator@UBuffInfoStruct@@@std@@@std@@@2@V?$_Vector_const_iterator@V?$_Vector_val@UBuffInfoStruct@@V?$allocator@UBuffInfoStruct@@@std@@@std@@@2@@Z PROC ; std::vector<BuffInfoStruct,std::allocator<BuffInfoStruct> >::_Make_iter, COMDAT
; _this$ = ecx

; 801  : 		{	// make iterator from const_iterator

  00000	55		 push	 ebp
  00001	8b ec		 mov	 ebp, esp

; 802  : 		return (iterator(_Where._Ptr, this));

  00003	8b 45 08	 mov	 eax, DWORD PTR ___$ReturnUdt$[ebp]
  00006	8b 4d 0c	 mov	 ecx, DWORD PTR __Where$[ebp]
  00009	89 08		 mov	 DWORD PTR [eax], ecx

; 803  : 		}

  0000b	5d		 pop	 ebp
  0000c	c2 08 00	 ret	 8
?_Make_iter@?$vector@UBuffInfoStruct@@V?$allocator@UBuffInfoStruct@@@std@@@std@@QBE?AV?$_Vector_iterator@V?$_Vector_val@UBuffInfoStruct@@V?$allocator@UBuffInfoStruct@@@std@@@std@@@2@V?$_Vector_const_iterator@V?$_Vector_val@UBuffInfoStruct@@V?$allocator@UBuffInfoStruct@@@std@@@std@@@2@@Z ENDP ; std::vector<BuffInfoStruct,std::allocator<BuffInfoStruct> >::_Make_iter
_TEXT	ENDS
PUBLIC	??9?$_Vector_const_iterator@V?$_Vector_val@UBuffInfoStruct@@V?$allocator@UBuffInfoStruct@@@std@@@std@@@std@@QBE_NABV01@@Z ; std::_Vector_const_iterator<std::_Vector_val<BuffInfoStruct,std::allocator<BuffInfoStruct> > >::operator!=
; Function compile flags: /Ogsp
;	COMDAT ??9?$_Vector_const_iterator@V?$_Vector_val@UBuffInfoStruct@@V?$allocator@UBuffInfoStruct@@@std@@@std@@@std@@QBE_NABV01@@Z
_TEXT	SEGMENT
__Right$ = 8						; size = 4
??9?$_Vector_const_iterator@V?$_Vector_val@UBuffInfoStruct@@V?$allocator@UBuffInfoStruct@@@std@@@std@@@std@@QBE_NABV01@@Z PROC ; std::_Vector_const_iterator<std::_Vector_val<BuffInfoStruct,std::allocator<BuffInfoStruct> > >::operator!=, COMDAT
; _this$ = ecx

; 207  : 		{	// test for iterator inequality

  00000	55		 push	 ebp
  00001	8b ec		 mov	 ebp, esp

; 208  : 		return (!(*this == _Right));

  00003	8b 01		 mov	 eax, DWORD PTR [ecx]
  00005	8b 55 08	 mov	 edx, DWORD PTR __Right$[ebp]
  00008	33 c9		 xor	 ecx, ecx
  0000a	3b 02		 cmp	 eax, DWORD PTR [edx]
  0000c	0f 95 c0	 setne	 al

; 209  : 		}

  0000f	5d		 pop	 ebp
  00010	c2 04 00	 ret	 4
??9?$_Vector_const_iterator@V?$_Vector_val@UBuffInfoStruct@@V?$allocator@UBuffInfoStruct@@@std@@@std@@@std@@QBE_NABV01@@Z ENDP ; std::_Vector_const_iterator<std::_Vector_val<BuffInfoStruct,std::allocator<BuffInfoStruct> > >::operator!=
_TEXT	ENDS
PUBLIC	??$_Move@PAUBuffInfoStruct@@PAU1@@std@@YAPAUBuffInfoStruct@@PAU1@00@Z ; std::_Move<BuffInfoStruct *,BuffInfoStruct *>
; Function compile flags: /Ogsp
; File c:\program files (x86)\microsoft visual studio 10.0\vc\include\xutility
;	COMDAT ??$_Move@PAUBuffInfoStruct@@PAU1@@std@@YAPAUBuffInfoStruct@@PAU1@00@Z
_TEXT	SEGMENT
__Cat$554192 = -4					; size = 1
__First$ = 8						; size = 4
__Last$ = 12						; size = 4
__Dest$ = 16						; size = 4
??$_Move@PAUBuffInfoStruct@@PAU1@@std@@YAPAUBuffInfoStruct@@PAU1@00@Z PROC ; std::_Move<BuffInfoStruct *,BuffInfoStruct *>, COMDAT

; 2533 : 	{	// move [_First, _Last) to [_Dest, ...), unchecked

  00000	55		 push	 ebp
  00001	8b ec		 mov	 ebp, esp
  00003	51		 push	 ecx

; 2534 : 	return (_Move(_First, _Last,
; 2535 : 		_Dest, _Ptr_cat(_First, _Dest)));

  00004	ff 75 fc	 push	 DWORD PTR __Cat$554192[ebp]
  00007	ff 75 10	 push	 DWORD PTR __Dest$[ebp]
  0000a	ff 75 0c	 push	 DWORD PTR __Last$[ebp]
  0000d	ff 75 08	 push	 DWORD PTR __First$[ebp]
  00010	e8 00 00 00 00	 call	 ??$_Move@PAUBuffInfoStruct@@PAU1@@std@@YAPAUBuffInfoStruct@@PAU1@00U_Nonscalar_ptr_iterator_tag@0@@Z ; std::_Move<BuffInfoStruct *,BuffInfoStruct *>
  00015	83 c4 10	 add	 esp, 16			; 00000010H

; 2536 : 	}

  00018	c9		 leave
  00019	c3		 ret	 0
??$_Move@PAUBuffInfoStruct@@PAU1@@std@@YAPAUBuffInfoStruct@@PAU1@00@Z ENDP ; std::_Move<BuffInfoStruct *,BuffInfoStruct *>
_TEXT	ENDS
PUBLIC	?destroy@?$allocator@UBuffInfoStruct@@@std@@QAEXPAUBuffInfoStruct@@@Z ; std::allocator<BuffInfoStruct>::destroy
; Function compile flags: /Ogsp
; File c:\program files (x86)\microsoft visual studio 10.0\vc\include\xmemory
;	COMDAT ?destroy@?$allocator@UBuffInfoStruct@@@std@@QAEXPAUBuffInfoStruct@@@Z
_TEXT	SEGMENT
__Ptr$ = 8						; size = 4
?destroy@?$allocator@UBuffInfoStruct@@@std@@QAEXPAUBuffInfoStruct@@@Z PROC ; std::allocator<BuffInfoStruct>::destroy, COMDAT
; _this$ = ecx

; 212  : 		{	// destroy object at _Ptr

  00000	55		 push	 ebp
  00001	8b ec		 mov	 ebp, esp

; 213  : 		_Destroy(_Ptr);

  00003	8b 4d 08	 mov	 ecx, DWORD PTR __Ptr$[ebp]
  00006	ff 15 00 00 00
	00		 call	 DWORD PTR __imp_??1ioHashString@@QAE@XZ

; 214  : 		}

  0000c	5d		 pop	 ebp
  0000d	c2 04 00	 ret	 4
?destroy@?$allocator@UBuffInfoStruct@@@std@@QAEXPAUBuffInfoStruct@@@Z ENDP ; std::allocator<BuffInfoStruct>::destroy
_TEXT	ENDS
PUBLIC	??$_Cons_val@V?$allocator@UBuffInfoStruct@@@std@@UBuffInfoStruct@@AAU3@@std@@YAXAAV?$allocator@UBuffInfoStruct@@@0@PAUBuffInfoStruct@@AAU2@@Z ; std::_Cons_val<std::allocator<BuffInfoStruct>,BuffInfoStruct,BuffInfoStruct &>
; Function compile flags: /Ogsp
;	COMDAT ??$_Cons_val@V?$allocator@UBuffInfoStruct@@@std@@UBuffInfoStruct@@AAU3@@std@@YAXAAV?$allocator@UBuffInfoStruct@@@0@PAUBuffInfoStruct@@AAU2@@Z
_TEXT	SEGMENT
__Alval$ = 8						; size = 4
__Pdest$ = 12						; size = 4
__Src$ = 16						; size = 4
??$_Cons_val@V?$allocator@UBuffInfoStruct@@@std@@UBuffInfoStruct@@AAU3@@std@@YAXAAV?$allocator@UBuffInfoStruct@@@0@PAUBuffInfoStruct@@AAU2@@Z PROC ; std::_Cons_val<std::allocator<BuffInfoStruct>,BuffInfoStruct,BuffInfoStruct &>, COMDAT

; 279  : 	{	// construct using allocator

  00000	55		 push	 ebp
  00001	8b ec		 mov	 ebp, esp

; 280  : 	_Alval.construct(_Pdest, _STD forward<_Ty2>(_Src));

  00003	ff 75 10	 push	 DWORD PTR __Src$[ebp]
  00006	8b 4d 08	 mov	 ecx, DWORD PTR __Alval$[ebp]
  00009	ff 75 0c	 push	 DWORD PTR __Pdest$[ebp]
  0000c	e8 00 00 00 00	 call	 ??$construct@AAUBuffInfoStruct@@@?$allocator@UBuffInfoStruct@@@std@@QAEXPAUBuffInfoStruct@@AAU2@@Z ; std::allocator<BuffInfoStruct>::construct<BuffInfoStruct &>

; 281  : 	}

  00011	5d		 pop	 ebp
  00012	c3		 ret	 0
??$_Cons_val@V?$allocator@UBuffInfoStruct@@@std@@UBuffInfoStruct@@AAU3@@std@@YAXAAV?$allocator@UBuffInfoStruct@@@0@PAUBuffInfoStruct@@AAU2@@Z ENDP ; std::_Cons_val<std::allocator<BuffInfoStruct>,BuffInfoStruct,BuffInfoStruct &>
_TEXT	ENDS
PUBLIC	__$ArrayPad$
PUBLIC	?SetTeleport@ioLightAttack@@QAEXPAVioBaseChar@@_N@Z ; ioLightAttack::SetTeleport
EXTRN	??6SP2Packet@@QAEAAV0@ABUD3DXVECTOR3@@@Z:PROC	; SP2Packet::operator<<
EXTRN	?GetUniqueID@ioMapEffect@@QBEKXZ:PROC		; ioMapEffect::GetUniqueID
EXTRN	?CreateMapEffect@ioPlayStage@@QAEPAVioMapEffect@@ABVioHashString@@ABUD3DXVECTOR3@@1@Z:PROC ; ioPlayStage::CreateMapEffect
;	COMDAT xdata$x
; File d:\lost saga for developer\youtube\tutorial\source\src\lsclient\ioskill.h
xdata$x	SEGMENT
__unwindtable$?SetTeleport@ioLightAttack@@QAEXPAVioBaseChar@@_N@Z DD 0ffffffffH
	DD	FLAT:__unwindfunclet$?SetTeleport@ioLightAttack@@QAEXPAVioBaseChar@@_N@Z$0
__ehfuncinfo$?SetTeleport@ioLightAttack@@QAEXPAVioBaseChar@@_N@Z DD 019930522H
	DD	01H
	DD	FLAT:__unwindtable$?SetTeleport@ioLightAttack@@QAEXPAVioBaseChar@@_N@Z
	DD	2 DUP(00H)
	DD	2 DUP(00H)
	DD	00H
	DD	01H
; Function compile flags: /Ogsp
; File d:\lost saga for developer\youtube\tutorial\source\src\lsclient\iolightattack.cpp
xdata$x	ENDS
;	COMDAT ?SetTeleport@ioLightAttack@@QAEXPAVioBaseChar@@_N@Z
_TEXT	SEGMENT
tv290 = -32828						; size = 4
tv285 = -32828						; size = 4
_pCreator$ = -32828					; size = 4
tv307 = -32824						; size = 4
tv304 = -32824						; size = 4
tv301 = -32824						; size = 4
tv269 = -32824						; size = 4
_value$554261 = -32824					; size = 4
_value$554249 = -32824					; size = 4
_kPacket$548735 = -32820				; size = 32792
_vScale$ = -28						; size = 12
__$ArrayPad$ = -16					; size = 4
__$EHRec$ = -12						; size = 12
_pChar$ = 8						; size = 4
_bSend$ = 12						; size = 1
?SetTeleport@ioLightAttack@@QAEXPAVioBaseChar@@_N@Z PROC ; ioLightAttack::SetTeleport, COMDAT
; _this$ = ecx

; 396  : {

  00000	55		 push	 ebp
  00001	8b ec		 mov	 ebp, esp
  00003	6a ff		 push	 -1
  00005	68 00 00 00 00	 push	 __ehhandler$?SetTeleport@ioLightAttack@@QAEXPAVioBaseChar@@_N@Z
  0000a	64 a1 00 00 00
	00		 mov	 eax, DWORD PTR fs:0
  00010	50		 push	 eax
  00011	b8 30 80 00 00	 mov	 eax, 32816		; 00008030H
  00016	e8 00 00 00 00	 call	 __chkstk
  0001b	a1 00 00 00 00	 mov	 eax, DWORD PTR ___security_cookie
  00020	33 c5		 xor	 eax, ebp
  00022	89 45 f0	 mov	 DWORD PTR __$ArrayPad$[ebp], eax
  00025	53		 push	 ebx
  00026	56		 push	 esi
  00027	57		 push	 edi
  00028	50		 push	 eax
  00029	8d 45 f4	 lea	 eax, DWORD PTR __$EHRec$[ebp]
  0002c	64 a3 00 00 00
	00		 mov	 DWORD PTR fs:0, eax
  00032	8b 75 08	 mov	 esi, DWORD PTR _pChar$[ebp]
  00035	8b f9		 mov	 edi, ecx

; 397  : 	if( !pChar ) return;

  00037	85 f6		 test	 esi, esi
  00039	0f 84 fe 01 00
	00		 je	 $LN1@SetTelepor

; 398  : 	
; 399  : 	auto pCreator = pChar->GetCreator();

  0003f	8b 86 44 03 00
	00		 mov	 eax, DWORD PTR [esi+836]
  00045	89 85 c4 7f ff
	ff		 mov	 DWORD PTR _pCreator$[ebp], eax

; 400  : 	if ( !pCreator ) return;

  0004b	85 c0		 test	 eax, eax
  0004d	0f 84 ea 01 00
	00		 je	 $LN1@SetTelepor

; 401  : 
; 402  : 	D3DXVECTOR3 vScale( FLOAT1, FLOAT1, FLOAT1 );

  00053	b8 01 00 00 00	 mov	 eax, 1
  00058	8b c8		 mov	 ecx, eax
  0005a	b8 01 00 00 00	 mov	 eax, 1
  0005f	8b d0		 mov	 edx, eax
  00061	b8 01 00 00 00	 mov	 eax, 1
  00066	89 85 c8 7f ff
	ff		 mov	 DWORD PTR tv307[ebp], eax
  0006c	db 85 c8 7f ff
	ff		 fild	 DWORD PTR tv307[ebp]
  00072	85 c0		 test	 eax, eax
  00074	79 06		 jns	 SHORT $LN40@SetTelepor
  00076	d8 05 00 00 00
	00		 fadd	 DWORD PTR __real@4f800000
$LN40@SetTelepor:
  0007c	d9 5d e4	 fstp	 DWORD PTR _vScale$[ebp]
  0007f	89 95 c8 7f ff
	ff		 mov	 DWORD PTR tv304[ebp], edx
  00085	db 85 c8 7f ff
	ff		 fild	 DWORD PTR tv304[ebp]
  0008b	85 d2		 test	 edx, edx
  0008d	79 06		 jns	 SHORT $LN41@SetTelepor
  0008f	d8 05 00 00 00
	00		 fadd	 DWORD PTR __real@4f800000
$LN41@SetTelepor:
  00095	d9 5d e8	 fstp	 DWORD PTR _vScale$[ebp+4]
  00098	89 8d c8 7f ff
	ff		 mov	 DWORD PTR tv301[ebp], ecx
  0009e	db 85 c8 7f ff
	ff		 fild	 DWORD PTR tv301[ebp]
  000a4	85 c9		 test	 ecx, ecx
  000a6	79 06		 jns	 SHORT $LN42@SetTelepor
  000a8	d8 05 00 00 00
	00		 fadd	 DWORD PTR __real@4f800000
$LN42@SetTelepor:

; 403  : 	ioMapEffect* pMapEffect = nullptr;
; 404  : 	if( pChar->GetTeam() == TEAM_RED )

  000ae	8d 85 c8 7f ff
	ff		 lea	 eax, DWORD PTR _value$554249[ebp]
  000b4	d9 5d ec	 fstp	 DWORD PTR _vScale$[ebp+8]
  000b7	50		 push	 eax
  000b8	8d 8e 90 00 00
	00		 lea	 ecx, DWORD PTR [esi+144]
  000be	e8 00 00 00 00	 call	 ?DecryptValueToPool@?$CEncrypt@W4TeamType@@@@QAEXPAW4TeamType@@@Z ; CEncrypt<enum TeamType>::DecryptValueToPool
  000c3	83 bd c8 7f ff
	ff 01		 cmp	 DWORD PTR _value$554249[ebp], 1
  000ca	75 13		 jne	 SHORT $LN5@SetTelepor

; 405  : 	{
; 406  : 		pMapEffect = pCreator->CreateMapEffect( m_RedMapEffect, m_vCirclePos, vScale );

  000cc	8d 45 e4	 lea	 eax, DWORD PTR _vScale$[ebp]
  000cf	50		 push	 eax
  000d0	8d 87 a0 12 00
	00		 lea	 eax, DWORD PTR [edi+4768]
  000d6	50		 push	 eax
  000d7	8d 87 bc 12 00
	00		 lea	 eax, DWORD PTR [edi+4796]
  000dd	eb 2c		 jmp	 SHORT $LN45@SetTelepor
$LN5@SetTelepor:

; 407  : 	}
; 408  : 	else if( pChar->GetTeam() == TEAM_BLUE )

  000df	8d 85 c8 7f ff
	ff		 lea	 eax, DWORD PTR _value$554261[ebp]
  000e5	50		 push	 eax
  000e6	8d 8e 90 00 00
	00		 lea	 ecx, DWORD PTR [esi+144]
  000ec	e8 00 00 00 00	 call	 ?DecryptValueToPool@?$CEncrypt@W4TeamType@@@@QAEXPAW4TeamType@@@Z ; CEncrypt<enum TeamType>::DecryptValueToPool
  000f1	83 bd c8 7f ff
	ff 02		 cmp	 DWORD PTR _value$554261[ebp], 2
  000f8	75 2e		 jne	 SHORT $LN2@SetTelepor

; 409  : 	{
; 410  : 		pMapEffect = pCreator->CreateMapEffect( m_BlueMapEffect, m_vCirclePos, vScale );

  000fa	8d 45 e4	 lea	 eax, DWORD PTR _vScale$[ebp]
  000fd	50		 push	 eax
  000fe	8d 87 a0 12 00
	00		 lea	 eax, DWORD PTR [edi+4768]
  00104	50		 push	 eax
  00105	8d 87 cc 12 00
	00		 lea	 eax, DWORD PTR [edi+4812]
$LN45@SetTelepor:
  0010b	8b 8d c4 7f ff
	ff		 mov	 ecx, DWORD PTR _pCreator$[ebp]
  00111	50		 push	 eax
  00112	e8 00 00 00 00	 call	 ?CreateMapEffect@ioPlayStage@@QAEPAVioMapEffect@@ABVioHashString@@ABUD3DXVECTOR3@@1@Z ; ioPlayStage::CreateMapEffect

; 411  : 	}
; 412  : 	
; 413  : 	if( pMapEffect )

  00117	85 c0		 test	 eax, eax
  00119	74 0d		 je	 SHORT $LN2@SetTelepor

; 414  : 	{
; 415  : 		m_dwSkillMapEffect = pMapEffect->GetUniqueID();

  0011b	8b c8		 mov	 ecx, eax
  0011d	e8 00 00 00 00	 call	 ?GetUniqueID@ioMapEffect@@QBEKXZ ; ioMapEffect::GetUniqueID
  00122	89 87 10 13 00
	00		 mov	 DWORD PTR [edi+4880], eax
$LN2@SetTelepor:

; 416  : 	}
; 417  : 
; 418  : 	pChar->SetWorldPosition( m_vCirclePos );

  00128	8b 16		 mov	 edx, DWORD PTR [esi]
  0012a	8d 87 a0 12 00
	00		 lea	 eax, DWORD PTR [edi+4768]
  00130	50		 push	 eax
  00131	8b ce		 mov	 ecx, esi
  00133	89 85 c8 7f ff
	ff		 mov	 DWORD PTR tv269[ebp], eax
  00139	ff 52 44	 call	 DWORD PTR [edx+68]

; 419  : 	m_State = SS_TELEPORT;

  0013c	c7 87 e4 10 00
	00 04 00 00 00	 mov	 DWORD PTR [edi+4324], 4

; 420  : 	
; 421  : 	ioEntityGroup *pGrp = pChar->GetGroup();

  00146	8b 5e 04	 mov	 ebx, DWORD PTR [esi+4]

; 422  : 
; 423  : 	pGrp->ClearAllLoopAni( FLOAT100, true );

  00149	b8 64 00 00 00	 mov	 eax, 100		; 00000064H
  0014e	89 85 c4 7f ff
	ff		 mov	 DWORD PTR tv290[ebp], eax
  00154	db 85 c4 7f ff
	ff		 fild	 DWORD PTR tv290[ebp]
  0015a	6a 01		 push	 1
  0015c	85 c0		 test	 eax, eax
  0015e	79 06		 jns	 SHORT $LN43@SetTelepor
  00160	d8 05 00 00 00
	00		 fadd	 DWORD PTR __real@4f800000
$LN43@SetTelepor:
  00166	51		 push	 ecx
  00167	8b cb		 mov	 ecx, ebx
  00169	d9 1c 24	 fstp	 DWORD PTR [esp]
  0016c	ff 15 00 00 00
	00		 call	 DWORD PTR __imp_?ClearAllLoopAni@ioEntityGroup@@QAEXM_N@Z

; 424  : 	pGrp->ClearAllActionAni( FLOAT100, true );

  00172	b8 64 00 00 00	 mov	 eax, 100		; 00000064H
  00177	89 85 c4 7f ff
	ff		 mov	 DWORD PTR tv285[ebp], eax
  0017d	db 85 c4 7f ff
	ff		 fild	 DWORD PTR tv285[ebp]
  00183	6a 01		 push	 1
  00185	85 c0		 test	 eax, eax
  00187	79 06		 jns	 SHORT $LN44@SetTelepor
  00189	d8 05 00 00 00
	00		 fadd	 DWORD PTR __real@4f800000
$LN44@SetTelepor:
  0018f	51		 push	 ecx
  00190	8b cb		 mov	 ecx, ebx
  00192	d9 1c 24	 fstp	 DWORD PTR [esp]
  00195	ff 15 00 00 00
	00		 call	 DWORD PTR __imp_?ClearAllActionAni@ioEntityGroup@@QAEXM_N@Z

; 425  : 
; 426  : 	pChar->SetInvisibleState( false, true );

  0019b	6a 01		 push	 1
  0019d	33 db		 xor	 ebx, ebx
  0019f	53		 push	 ebx
  001a0	8b ce		 mov	 ecx, esi
  001a2	e8 00 00 00 00	 call	 ?SetInvisibleState@ioBaseChar@@QAEX_N0@Z ; ioBaseChar::SetInvisibleState

; 427  : 	pChar->SetSpecialHide( false );

  001a7	53		 push	 ebx
  001a8	8b ce		 mov	 ecx, esi
  001aa	e8 00 00 00 00	 call	 ?SetSpecialHide@ioBaseChar@@QAEX_N@Z ; ioBaseChar::SetSpecialHide

; 428  : 	pChar->DestroyMagicCircle();

  001af	8d 8e cc 01 00
	00		 lea	 ecx, DWORD PTR [esi+460]
  001b5	e8 00 00 00 00	 call	 ?DestroyMagicCircle@ioBaseGUISupport@@QAEXXZ ; ioBaseGUISupport::DestroyMagicCircle

; 429  : 
; 430  : 	if( pChar->IsNeedSendNetwork() && bSend )

  001ba	8b 06		 mov	 eax, DWORD PTR [esi]
  001bc	8b ce		 mov	 ecx, esi
  001be	ff 90 04 01 00
	00		 call	 DWORD PTR [eax+260]
  001c4	84 c0		 test	 al, al
  001c6	74 75		 je	 SHORT $LN1@SetTelepor
  001c8	38 5d 0c	 cmp	 BYTE PTR _bSend$[ebp], bl
  001cb	74 70		 je	 SHORT $LN1@SetTelepor

; 431  : 	{
; 432  : 		SP2Packet kPacket( CUPK_SKILL_EXTRA_INFO );

  001cd	68 39 41 00 00	 push	 16697			; 00004139H
  001d2	8d 8d cc 7f ff
	ff		 lea	 ecx, DWORD PTR _kPacket$548735[ebp]
  001d8	e8 00 00 00 00	 call	 ??0SP2Packet@@QAE@K@Z	; SP2Packet::SP2Packet

; 433  : 		kPacket << pChar->GetCharName();

  001dd	81 c6 d4 02 00
	00		 add	 esi, 724		; 000002d4H
  001e3	56		 push	 esi
  001e4	8d 8d cc 7f ff
	ff		 lea	 ecx, DWORD PTR _kPacket$548735[ebp]
  001ea	89 5d fc	 mov	 DWORD PTR __$EHRec$[ebp+8], ebx
  001ed	e8 00 00 00 00	 call	 ??6SP2Packet@@QAEAAV0@ABVioHashString@@@Z ; SP2Packet::operator<<

; 434  : 		kPacket << GetName();

  001f2	83 c7 24	 add	 edi, 36			; 00000024H
  001f5	57		 push	 edi
  001f6	8d 8d cc 7f ff
	ff		 lea	 ecx, DWORD PTR _kPacket$548735[ebp]
  001fc	e8 00 00 00 00	 call	 ??6SP2Packet@@QAEAAV0@ABVioHashString@@@Z ; SP2Packet::operator<<

; 435  : 		kPacket << SSC_TELEPORT;

  00201	6a 01		 push	 1
  00203	8d 8d cc 7f ff
	ff		 lea	 ecx, DWORD PTR _kPacket$548735[ebp]
  00209	e8 00 00 00 00	 call	 ??6SP2Packet@@QAEAAV0@H@Z ; SP2Packet::operator<<

; 436  : 		kPacket << m_vCirclePos;

  0020e	ff b5 c8 7f ff
	ff		 push	 DWORD PTR tv269[ebp]
  00214	8d 8d cc 7f ff
	ff		 lea	 ecx, DWORD PTR _kPacket$548735[ebp]
  0021a	e8 00 00 00 00	 call	 ??6SP2Packet@@QAEAAV0@ABUD3DXVECTOR3@@@Z ; SP2Packet::operator<<

; 437  : 		P2PNetwork::SendToAllPlayingUser( kPacket );

  0021f	8d 85 cc 7f ff
	ff		 lea	 eax, DWORD PTR _kPacket$548735[ebp]
  00225	53		 push	 ebx
  00226	50		 push	 eax
  00227	e8 00 00 00 00	 call	 ?SendToAllPlayingUser@P2PNetwork@@YAXAAVSP2Packet@@PAVioBaseChar@@@Z ; P2PNetwork::SendToAllPlayingUser

; 438  : 	}

  0022c	83 4d fc ff	 or	 DWORD PTR __$EHRec$[ebp+8], -1
  00230	59		 pop	 ecx
  00231	59		 pop	 ecx
  00232	8d 8d cc 7f ff
	ff		 lea	 ecx, DWORD PTR _kPacket$548735[ebp]
  00238	e8 00 00 00 00	 call	 ??1SP2Packet@@UAE@XZ	; SP2Packet::~SP2Packet
$LN1@SetTelepor:

; 439  : }

  0023d	8b 4d f4	 mov	 ecx, DWORD PTR __$EHRec$[ebp]
  00240	64 89 0d 00 00
	00 00		 mov	 DWORD PTR fs:0, ecx
  00247	59		 pop	 ecx
  00248	5f		 pop	 edi
  00249	5e		 pop	 esi
  0024a	5b		 pop	 ebx
  0024b	8b 4d f0	 mov	 ecx, DWORD PTR __$ArrayPad$[ebp]
  0024e	33 cd		 xor	 ecx, ebp
  00250	e8 00 00 00 00	 call	 @__security_check_cookie@4
  00255	c9		 leave
  00256	c2 08 00	 ret	 8
_TEXT	ENDS
;	COMDAT text$x
text$x	SEGMENT
__unwindfunclet$?SetTeleport@ioLightAttack@@QAEXPAVioBaseChar@@_N@Z$0:
  00000	8d 8d cc 7f ff
	ff		 lea	 ecx, DWORD PTR _kPacket$548735[ebp]
  00006	e9 00 00 00 00	 jmp	 ??1SP2Packet@@UAE@XZ	; SP2Packet::~SP2Packet
__ehhandler$?SetTeleport@ioLightAttack@@QAEXPAVioBaseChar@@_N@Z:
  0000b	8b 54 24 08	 mov	 edx, DWORD PTR [esp+8]
  0000f	8d 42 0c	 lea	 eax, DWORD PTR [edx+12]
  00012	8b 8a c0 7f ff
	ff		 mov	 ecx, DWORD PTR [edx-32832]
  00018	33 c8		 xor	 ecx, eax
  0001a	e8 00 00 00 00	 call	 @__security_check_cookie@4
  0001f	8b 4a fc	 mov	 ecx, DWORD PTR [edx-4]
  00022	33 c8		 xor	 ecx, eax
  00024	e8 00 00 00 00	 call	 @__security_check_cookie@4
  00029	b8 00 00 00 00	 mov	 eax, OFFSET __ehfuncinfo$?SetTeleport@ioLightAttack@@QAEXPAVioBaseChar@@_N@Z
  0002e	e9 00 00 00 00	 jmp	 ___CxxFrameHandler3
text$x	ENDS
?SetTeleport@ioLightAttack@@QAEXPAVioBaseChar@@_N@Z ENDP ; ioLightAttack::SetTeleport
PUBLIC	?ApplyExtraSkillInfo@ioLightAttack@@UAEXPAVioBaseChar@@PAVioPlayStage@@AAVSP2Packet@@@Z ; ioLightAttack::ApplyExtraSkillInfo
EXTRN	??5SP2Packet@@QAEAAV0@AAUD3DXVECTOR3@@@Z:PROC	; SP2Packet::operator>>
EXTRN	??5SP2Packet@@QAEAAV0@AAH@Z:PROC		; SP2Packet::operator>>
; Function compile flags: /Ogsp
;	COMDAT ?ApplyExtraSkillInfo@ioLightAttack@@UAEXPAVioBaseChar@@PAVioPlayStage@@AAVSP2Packet@@@Z
_TEXT	SEGMENT
_iState$ = -4						; size = 4
_pChar$ = 8						; size = 4
_pStage$ = 12						; size = 4
_rkPacket$ = 16						; size = 4
?ApplyExtraSkillInfo@ioLightAttack@@UAEXPAVioBaseChar@@PAVioPlayStage@@AAVSP2Packet@@@Z PROC ; ioLightAttack::ApplyExtraSkillInfo, COMDAT
; _this$ = ecx

; 546  : {

  00000	55		 push	 ebp
  00001	8b ec		 mov	 ebp, esp
  00003	51		 push	 ecx
  00004	56		 push	 esi

; 547  : 	int iState;
; 548  : 	rkPacket >> iState;

  00005	8d 45 fc	 lea	 eax, DWORD PTR _iState$[ebp]
  00008	8b f1		 mov	 esi, ecx
  0000a	8b 4d 10	 mov	 ecx, DWORD PTR _rkPacket$[ebp]
  0000d	50		 push	 eax
  0000e	e8 00 00 00 00	 call	 ??5SP2Packet@@QAEAAV0@AAH@Z ; SP2Packet::operator>>

; 549  : 
; 550  : 	switch( iState )

  00013	8b 45 fc	 mov	 eax, DWORD PTR _iState$[ebp]
  00016	83 e8 00	 sub	 eax, 0
  00019	74 20		 je	 SHORT $LN2@ApplyExtra
  0001b	48		 dec	 eax
  0001c	75 27		 jne	 SHORT $LN3@ApplyExtra

; 554  : 		break;
; 555  : 	case SSC_TELEPORT:
; 556  : 		rkPacket >> m_vCirclePos;

  0001e	8b 4d 10	 mov	 ecx, DWORD PTR _rkPacket$[ebp]
  00021	8d 86 a0 12 00
	00		 lea	 eax, DWORD PTR [esi+4768]
  00027	50		 push	 eax
  00028	e8 00 00 00 00	 call	 ??5SP2Packet@@QAEAAV0@AAUD3DXVECTOR3@@@Z ; SP2Packet::operator>>

; 557  : 		SetTeleport( pChar , false );

  0002d	6a 00		 push	 0
  0002f	ff 75 08	 push	 DWORD PTR _pChar$[ebp]
  00032	8b ce		 mov	 ecx, esi
  00034	e8 00 00 00 00	 call	 ?SetTeleport@ioLightAttack@@QAEXPAVioBaseChar@@_N@Z ; ioLightAttack::SetTeleport

; 558  : 		break;

  00039	eb 0a		 jmp	 SHORT $LN3@ApplyExtra
$LN2@ApplyExtra:

; 551  : 	{
; 552  : 	case SSC_PREACTION:
; 553  : 		SetPreAction( pChar );

  0003b	ff 75 08	 push	 DWORD PTR _pChar$[ebp]
  0003e	8b ce		 mov	 ecx, esi
  00040	e8 00 00 00 00	 call	 ?SetPreAction@ioLightAttack@@QAEXPAVioBaseChar@@@Z ; ioLightAttack::SetPreAction
$LN3@ApplyExtra:
  00045	5e		 pop	 esi

; 559  : 	}
; 560  : }

  00046	c9		 leave
  00047	c2 0c 00	 ret	 12			; 0000000cH
?ApplyExtraSkillInfo@ioLightAttack@@UAEXPAVioBaseChar@@PAVioPlayStage@@AAVSP2Packet@@@Z ENDP ; ioLightAttack::ApplyExtraSkillInfo
_TEXT	ENDS
PUBLIC	??$_Cons_val@V?$allocator@UBuffInfoStruct@@@std@@UBuffInfoStruct@@ABU3@@std@@YAXAAV?$allocator@UBuffInfoStruct@@@0@PAUBuffInfoStruct@@ABU2@@Z ; std::_Cons_val<std::allocator<BuffInfoStruct>,BuffInfoStruct,BuffInfoStruct const &>
; Function compile flags: /Ogsp
; File c:\program files (x86)\microsoft visual studio 10.0\vc\include\xmemory
;	COMDAT ??$_Cons_val@V?$allocator@UBuffInfoStruct@@@std@@UBuffInfoStruct@@ABU3@@std@@YAXAAV?$allocator@UBuffInfoStruct@@@0@PAUBuffInfoStruct@@ABU2@@Z
_TEXT	SEGMENT
__Alval$ = 8						; size = 4
__Pdest$ = 12						; size = 4
__Src$ = 16						; size = 4
??$_Cons_val@V?$allocator@UBuffInfoStruct@@@std@@UBuffInfoStruct@@ABU3@@std@@YAXAAV?$allocator@UBuffInfoStruct@@@0@PAUBuffInfoStruct@@ABU2@@Z PROC ; std::_Cons_val<std::allocator<BuffInfoStruct>,BuffInfoStruct,BuffInfoStruct const &>, COMDAT

; 279  : 	{	// construct using allocator

  00000	55		 push	 ebp
  00001	8b ec		 mov	 ebp, esp

; 280  : 	_Alval.construct(_Pdest, _STD forward<_Ty2>(_Src));

  00003	ff 75 10	 push	 DWORD PTR __Src$[ebp]
  00006	ff 75 0c	 push	 DWORD PTR __Pdest$[ebp]
  00009	e8 00 00 00 00	 call	 ??$_Construct@UBuffInfoStruct@@ABU1@@std@@YAXPAUBuffInfoStruct@@ABU1@@Z ; std::_Construct<BuffInfoStruct,BuffInfoStruct const &>
  0000e	59		 pop	 ecx
  0000f	59		 pop	 ecx

; 281  : 	}

  00010	5d		 pop	 ebp
  00011	c3		 ret	 0
??$_Cons_val@V?$allocator@UBuffInfoStruct@@@std@@UBuffInfoStruct@@ABU3@@std@@YAXAAV?$allocator@UBuffInfoStruct@@@0@PAUBuffInfoStruct@@ABU2@@Z ENDP ; std::_Cons_val<std::allocator<BuffInfoStruct>,BuffInfoStruct,BuffInfoStruct const &>
_TEXT	ENDS
PUBLIC	??$_Dest_val@V?$allocator@UBuffInfoStruct@@@std@@UBuffInfoStruct@@@std@@YAXAAV?$allocator@UBuffInfoStruct@@@0@PAUBuffInfoStruct@@@Z ; std::_Dest_val<std::allocator<BuffInfoStruct>,BuffInfoStruct>
; Function compile flags: /Ogsp
;	COMDAT ??$_Dest_val@V?$allocator@UBuffInfoStruct@@@std@@UBuffInfoStruct@@@std@@YAXAAV?$allocator@UBuffInfoStruct@@@0@PAUBuffInfoStruct@@@Z
_TEXT	SEGMENT
__Alval$ = 8						; size = 4
__Pdest$ = 12						; size = 4
??$_Dest_val@V?$allocator@UBuffInfoStruct@@@std@@UBuffInfoStruct@@@std@@YAXAAV?$allocator@UBuffInfoStruct@@@0@PAUBuffInfoStruct@@@Z PROC ; std::_Dest_val<std::allocator<BuffInfoStruct>,BuffInfoStruct>, COMDAT

; 286  : 	{	// destroy using allocator

  00000	55		 push	 ebp
  00001	8b ec		 mov	 ebp, esp

; 287  : 	_Alval.destroy(_Pdest);

  00003	8b 4d 0c	 mov	 ecx, DWORD PTR __Pdest$[ebp]

; 288  : 	}

  00006	5d		 pop	 ebp

; 287  : 	_Alval.destroy(_Pdest);

  00007	ff 25 00 00 00
	00		 jmp	 DWORD PTR __imp_??1ioHashString@@QAE@XZ
??$_Dest_val@V?$allocator@UBuffInfoStruct@@@std@@UBuffInfoStruct@@@std@@YAXAAV?$allocator@UBuffInfoStruct@@@0@PAUBuffInfoStruct@@@Z ENDP ; std::_Dest_val<std::allocator<BuffInfoStruct>,BuffInfoStruct>
_TEXT	ENDS
PUBLIC	_pChar$GSCopy$
PUBLIC	__$ArrayPad$
PUBLIC	?OnProcessState@ioLightAttack@@UAEXPAVioBaseChar@@PAVioPlayStage@@@Z ; ioLightAttack::OnProcessState
EXTRN	?IsJumpKey@ioBaseChar@@QBE_NXZ:PROC		; ioBaseChar::IsJumpKey
EXTRN	?IsDefenseKey@ioBaseChar@@QBE_NXZ:PROC		; ioBaseChar::IsDefenseKey
EXTRN	?IsAttackKey@ioBaseChar@@QBE_NXZ:PROC		; ioBaseChar::IsAttackKey
EXTRN	?GetSkillKeyInput@ioBaseChar@@QAEHXZ:PROC	; ioBaseChar::GetSkillKeyInput
EXTRN	?SetTargetRotToTargetPos@ioBaseChar@@QAEXABUD3DXVECTOR3@@_N1@Z:PROC ; ioBaseChar::SetTargetRotToTargetPos
EXTRN	?GetMagicCirclePos@ioBaseGUISupport@@QBE?AUD3DXVECTOR3@@M_N@Z:PROC ; ioBaseGUISupport::GetMagicCirclePos
EXTRN	?UpdateMagicCirclePosAll@ioBaseGUISupport@@QAEXMMM_N@Z:PROC ; ioBaseGUISupport::UpdateMagicCirclePosAll
EXTRN	?CheckChangeDirectionForMagicCircle@ioBaseGUISupport@@QAE_NXZ:PROC ; ioBaseGUISupport::CheckChangeDirectionForMagicCircle
; Function compile flags: /Ogsp
; File d:\lost saga for developer\youtube\tutorial\source\src\lsclient\iolightattack.cpp
;	COMDAT ?OnProcessState@ioLightAttack@@UAEXPAVioBaseChar@@PAVioPlayStage@@@Z
_TEXT	SEGMENT
_pChar$GSCopy$ = -40					; size = 4
_dwPreDelay$548625 = -36				; size = 4
_dwCurTime$ = -36					; size = 4
_bReserveSkill$548637 = -29				; size = 1
$T548636 = -28						; size = 12
$T548634 = -16						; size = 12
__$ArrayPad$ = -4					; size = 4
_pChar$ = 8						; size = 4
_pStage$ = 12						; size = 4
?OnProcessState@ioLightAttack@@UAEXPAVioBaseChar@@PAVioPlayStage@@@Z PROC ; ioLightAttack::OnProcessState, COMDAT
; _this$ = ecx

; 201  : {

  00000	55		 push	 ebp
  00001	8b ec		 mov	 ebp, esp
  00003	83 ec 28	 sub	 esp, 40			; 00000028H
  00006	a1 00 00 00 00	 mov	 eax, DWORD PTR ___security_cookie
  0000b	33 c5		 xor	 eax, ebp
  0000d	89 45 fc	 mov	 DWORD PTR __$ArrayPad$[ebp], eax
  00010	53		 push	 ebx
  00011	56		 push	 esi
  00012	8b 75 08	 mov	 esi, DWORD PTR _pChar$[ebp]
  00015	57		 push	 edi

; 202  : 	DWORD dwCurTime = FRAMEGETTIME();

  00016	8b 3d 00 00 00
	00		 mov	 edi, DWORD PTR __imp_?GetSingleton@ioFrameTimer@@SAAAV1@XZ
  0001c	8b d9		 mov	 ebx, ecx
  0001e	89 75 d8	 mov	 DWORD PTR _pChar$GSCopy$[ebp], esi
  00021	ff d7		 call	 edi
  00023	8b c8		 mov	 ecx, eax
  00025	ff 15 00 00 00
	00		 call	 DWORD PTR __imp_?GetLoopSec@ioFrameTimer@@QBEKXZ

; 203  : 
; 204  : 	switch( m_State )

  0002b	8b 8b e4 10 00
	00		 mov	 ecx, DWORD PTR [ebx+4324]
  00031	83 e9 00	 sub	 ecx, 0
  00034	89 45 dc	 mov	 DWORD PTR _dwCurTime$[ebp], eax
  00037	0f 84 ba 01 00
	00		 je	 $LN16@OnProcessS
  0003d	49		 dec	 ecx
  0003e	0f 84 9e 01 00
	00		 je	 $LN13@OnProcessS
  00044	49		 dec	 ecx
  00045	0f 84 74 01 00
	00		 je	 $LN11@OnProcessS
  0004b	49		 dec	 ecx
  0004c	74 35		 je	 SHORT $LN9@OnProcessS
  0004e	49		 dec	 ecx
  0004f	74 1b		 je	 SHORT $LN2@OnProcessS
  00051	49		 dec	 ecx
  00052	0f 85 eb 01 00
	00		 jne	 $LN15@OnProcessS

; 281  : 	case SS_END:
; 282  : 		{			
; 283  : 			AddOwnerBuff( pChar );

  00058	56		 push	 esi
  00059	8b cb		 mov	 ecx, ebx
  0005b	e8 00 00 00 00	 call	 ?AddOwnerBuff@ioLightAttack@@QAEXPAVioBaseChar@@@Z ; ioLightAttack::AddOwnerBuff

; 284  : 			m_bEnd = true;

  00060	c6 83 14 13 00
	00 01		 mov	 BYTE PTR [ebx+4884], 1

; 285  : 		}
; 286  : 		break;

  00067	e9 d7 01 00 00	 jmp	 $LN15@OnProcessS
$LN2@OnProcessS:

; 275  : 	case SS_TELEPORT:
; 276  : 		{
; 277  : 			m_State = SS_END;
; 278  : 			RemoveActionOwnerBuff( pChar );			

  0006c	56		 push	 esi
  0006d	8b cb		 mov	 ecx, ebx
  0006f	c7 83 e4 10 00
	00 05 00 00 00	 mov	 DWORD PTR [ebx+4324], 5
  00079	e8 00 00 00 00	 call	 ?RemoveActionOwnerBuff@ioLightAttack@@QAEXPAVioBaseChar@@@Z ; ioLightAttack::RemoveActionOwnerBuff

; 279  : 		}
; 280  : 		break;

  0007e	e9 c0 01 00 00	 jmp	 $LN15@OnProcessS
$LN9@OnProcessS:

; 237  : 	case SS_LOOP:
; 238  : 		{
; 239  : 			//   
; 240  : 			pChar->CheckChangeDirectionForMagicCircle();

  00083	8d 8e cc 01 00
	00		 lea	 ecx, DWORD PTR [esi+460]
  00089	e8 00 00 00 00	 call	 ?CheckChangeDirectionForMagicCircle@ioBaseGUISupport@@QAE_NXZ ; ioBaseGUISupport::CheckChangeDirectionForMagicCircle

; 241  : 
; 242  : 			// MagicCircle  
; 243  : 			pChar->UpdateMagicCirclePosAll( m_fCircleMoveSpeed, m_fCircleRange, m_fCircleHeightGap, false );

  0008e	f3 0f 10 83 98
	12 00 00	 movss	 xmm0, DWORD PTR [ebx+4760]
  00096	6a 00		 push	 0
  00098	83 ec 0c	 sub	 esp, 12			; 0000000cH
  0009b	f3 0f 11 44 24
	08		 movss	 DWORD PTR [esp+8], xmm0
  000a1	f3 0f 10 83 90
	12 00 00	 movss	 xmm0, DWORD PTR [ebx+4752]
  000a9	f3 0f 11 44 24
	04		 movss	 DWORD PTR [esp+4], xmm0
  000af	f3 0f 10 83 94
	12 00 00	 movss	 xmm0, DWORD PTR [ebx+4756]
  000b7	8d 8e cc 01 00
	00		 lea	 ecx, DWORD PTR [esi+460]
  000bd	f3 0f 11 04 24	 movss	 DWORD PTR [esp], xmm0
  000c2	e8 00 00 00 00	 call	 ?UpdateMagicCirclePosAll@ioBaseGUISupport@@QAEXMMM_N@Z ; ioBaseGUISupport::UpdateMagicCirclePosAll

; 244  : 
; 245  : 			// MagicCircle   
; 246  : 			if( pChar->CheckMagicCircle() && pChar->IsNeedProcess() )

  000c7	8d 8e cc 01 00
	00		 lea	 ecx, DWORD PTR [esi+460]
  000cd	e8 00 00 00 00	 call	 ?CheckMagicCircle@ioBaseGUISupport@@QBE_NXZ ; ioBaseGUISupport::CheckMagicCircle
  000d2	84 c0		 test	 al, al
  000d4	74 45		 je	 SHORT $LN8@OnProcessS
  000d6	8b 06		 mov	 eax, DWORD PTR [esi]
  000d8	8b ce		 mov	 ecx, esi
  000da	ff 90 00 01 00
	00		 call	 DWORD PTR [eax+256]
  000e0	84 c0		 test	 al, al
  000e2	74 37		 je	 SHORT $LN8@OnProcessS

; 247  : 			{
; 248  : 				m_vCirclePos = pChar->GetMagicCirclePos();

  000e4	0f 57 c0	 xorps	 xmm0, xmm0
  000e7	6a 00		 push	 0
  000e9	51		 push	 ecx
  000ea	8d 45 f0	 lea	 eax, DWORD PTR $T548634[ebp]
  000ed	f3 0f 11 04 24	 movss	 DWORD PTR [esp], xmm0
  000f2	50		 push	 eax
  000f3	8d 8e cc 01 00
	00		 lea	 ecx, DWORD PTR [esi+460]
  000f9	e8 00 00 00 00	 call	 ?GetMagicCirclePos@ioBaseGUISupport@@QBE?AUD3DXVECTOR3@@M_N@Z ; ioBaseGUISupport::GetMagicCirclePos
  000fe	8d 8b a0 12 00
	00		 lea	 ecx, DWORD PTR [ebx+4768]
  00104	8b f9		 mov	 edi, ecx
  00106	8b f0		 mov	 esi, eax
  00108	a5		 movsd

; 249  : 				pChar->SetTargetRotToTargetPos( m_vCirclePos, true, false );

  00109	6a 00		 push	 0
  0010b	a5		 movsd
  0010c	6a 01		 push	 1
  0010e	51		 push	 ecx
  0010f	8b 4d d8	 mov	 ecx, DWORD PTR _pChar$GSCopy$[ebp]
  00112	a5		 movsd
  00113	e8 00 00 00 00	 call	 ?SetTargetRotToTargetPos@ioBaseChar@@QAEXABUD3DXVECTOR3@@_N1@Z ; ioBaseChar::SetTargetRotToTargetPos
  00118	8b 75 d8	 mov	 esi, DWORD PTR _pChar$GSCopy$[ebp]
$LN8@OnProcessS:

; 250  : 			}
; 251  : 
; 252  : 			if( pChar->IsNeedProcess() )

  0011b	8b 06		 mov	 eax, DWORD PTR [esi]
  0011d	8b ce		 mov	 ecx, esi
  0011f	ff 90 00 01 00
	00		 call	 DWORD PTR [eax+256]
  00125	84 c0		 test	 al, al
  00127	0f 84 16 01 00
	00		 je	 $LN15@OnProcessS

; 253  : 			{
; 254  : 				m_vCirclePos = pChar->GetMagicCirclePos();

  0012d	0f 57 c0	 xorps	 xmm0, xmm0
  00130	6a 00		 push	 0
  00132	51		 push	 ecx
  00133	8d 45 e4	 lea	 eax, DWORD PTR $T548636[ebp]
  00136	f3 0f 11 04 24	 movss	 DWORD PTR [esp], xmm0
  0013b	50		 push	 eax
  0013c	8d 8e cc 01 00
	00		 lea	 ecx, DWORD PTR [esi+460]
  00142	e8 00 00 00 00	 call	 ?GetMagicCirclePos@ioBaseGUISupport@@QBE?AUD3DXVECTOR3@@M_N@Z ; ioBaseGUISupport::GetMagicCirclePos
  00147	8b f0		 mov	 esi, eax
  00149	8d bb a0 12 00
	00		 lea	 edi, DWORD PTR [ebx+4768]
  0014f	a5		 movsd
  00150	a5		 movsd
  00151	a5		 movsd

; 255  : 				//  
; 256  : 				bool bReserveSkill = false;
; 257  : 				int iSkillNum = pChar->GetSkillKeyInput();

  00152	8b 75 d8	 mov	 esi, DWORD PTR _pChar$GSCopy$[ebp]
  00155	8b ce		 mov	 ecx, esi
  00157	c6 45 e3 00	 mov	 BYTE PTR _bReserveSkill$548637[ebp], 0
  0015b	e8 00 00 00 00	 call	 ?GetSkillKeyInput@ioBaseChar@@QAEHXZ ; ioBaseChar::GetSkillKeyInput

; 258  : 				if( iSkillNum >= 0 )

  00160	85 c0		 test	 eax, eax
  00162	78 04		 js	 SHORT $LN6@OnProcessS

; 259  : 				{
; 260  : 					bReserveSkill = true;

  00164	c6 45 e3 01	 mov	 BYTE PTR _bReserveSkill$548637[ebp], 1
$LN6@OnProcessS:

; 261  : 				}
; 262  : 
; 263  : 				if( pChar->IsAttackKey() || pChar->IsDefenseKey() || pChar->IsJumpKey() && !bReserveSkill )

  00168	8b ce		 mov	 ecx, esi
  0016a	e8 00 00 00 00	 call	 ?IsAttackKey@ioBaseChar@@QBE_NXZ ; ioBaseChar::IsAttackKey
  0016f	84 c0		 test	 al, al
  00171	75 1c		 jne	 SHORT $LN4@OnProcessS
  00173	8b ce		 mov	 ecx, esi
  00175	e8 00 00 00 00	 call	 ?IsDefenseKey@ioBaseChar@@QBE_NXZ ; ioBaseChar::IsDefenseKey
  0017a	84 c0		 test	 al, al
  0017c	75 11		 jne	 SHORT $LN4@OnProcessS
  0017e	8b ce		 mov	 ecx, esi
  00180	e8 00 00 00 00	 call	 ?IsJumpKey@ioBaseChar@@QBE_NXZ ; ioBaseChar::IsJumpKey
  00185	84 c0		 test	 al, al
  00187	74 10		 je	 SHORT $LN21@OnProcessS
  00189	80 7d e3 00	 cmp	 BYTE PTR _bReserveSkill$548637[ebp], 0
  0018d	75 0a		 jne	 SHORT $LN21@OnProcessS
$LN4@OnProcessS:

; 264  : 				{
; 265  : 					SetTeleport( pChar, true );

  0018f	6a 01		 push	 1
  00191	56		 push	 esi
  00192	8b cb		 mov	 ecx, ebx
  00194	e8 00 00 00 00	 call	 ?SetTeleport@ioLightAttack@@QAEXPAVioBaseChar@@_N@Z ; ioLightAttack::SetTeleport
$LN21@OnProcessS:

; 266  : 				}
; 267  : 
; 268  : 				if( 0 < m_dwCurTeleportEndTime && m_dwCurTeleportEndTime < dwCurTime )

  00199	8b 83 0c 13 00
	00		 mov	 eax, DWORD PTR [ebx+4876]
  0019f	85 c0		 test	 eax, eax
  001a1	0f 84 9c 00 00
	00		 je	 $LN15@OnProcessS
  001a7	3b 45 dc	 cmp	 eax, DWORD PTR _dwCurTime$[ebp]
  001aa	0f 83 93 00 00
	00		 jae	 $LN15@OnProcessS

; 269  : 				{
; 270  : 					SetTeleport( pChar, true );

  001b0	6a 01		 push	 1
  001b2	56		 push	 esi
  001b3	8b cb		 mov	 ecx, ebx
  001b5	e8 00 00 00 00	 call	 ?SetTeleport@ioLightAttack@@QAEXPAVioBaseChar@@_N@Z ; ioLightAttack::SetTeleport

; 271  : 				}
; 272  : 			}
; 273  : 		}
; 274  : 		break;

  001ba	e9 84 00 00 00	 jmp	 $LN15@OnProcessS
$LN11@OnProcessS:

; 228  : 	case SS_ACTION:
; 229  : 		{
; 230  : 			if( 0 < m_dwMotionEndTime && m_dwMotionEndTime < dwCurTime )

  001bf	8b 8b d8 02 00
	00		 mov	 ecx, DWORD PTR [ebx+728]
  001c5	85 c9		 test	 ecx, ecx
  001c7	74 7a		 je	 SHORT $LN15@OnProcessS
  001c9	3b c8		 cmp	 ecx, eax
  001cb	73 76		 jae	 SHORT $LN15@OnProcessS

; 231  : 			{
; 232  : 				SetLoopState( pChar, pStage );

  001cd	ff 75 0c	 push	 DWORD PTR _pStage$[ebp]
  001d0	8b cb		 mov	 ecx, ebx
  001d2	56		 push	 esi
  001d3	e8 00 00 00 00	 call	 ?SetLoopState@ioLightAttack@@QAEXPAVioBaseChar@@PAVioPlayStage@@@Z ; ioLightAttack::SetLoopState

; 233  : 				AddActionOwnerBuff( pChar );

  001d8	56		 push	 esi
  001d9	8b cb		 mov	 ecx, ebx
  001db	e8 00 00 00 00	 call	 ?AddActionOwnerBuff@ioLightAttack@@QAEXPAVioBaseChar@@@Z ; ioLightAttack::AddActionOwnerBuff

; 234  : 			}
; 235  : 		}
; 236  : 		break;

  001e0	eb 61		 jmp	 SHORT $LN15@OnProcessS
$LN13@OnProcessS:

; 217  : 			}
; 218  : 		}
; 219  : 		break;
; 220  : 	case SS_PREACTION:
; 221  : 		{
; 222  : 			if( m_dwPreActionEndTime < dwCurTime )

  001e2	39 83 5c 12 00
	00		 cmp	 DWORD PTR [ebx+4700], eax
  001e8	73 59		 jae	 SHORT $LN15@OnProcessS

; 223  : 			{
; 224  : 				AttackSkillFire( pChar );

  001ea	8b 03		 mov	 eax, DWORD PTR [ebx]
  001ec	56		 push	 esi
  001ed	8b cb		 mov	 ecx, ebx
  001ef	ff 90 8c 01 00
	00		 call	 DWORD PTR [eax+396]

; 225  : 			}
; 226  : 		}
; 227  : 		break;

  001f5	eb 4c		 jmp	 SHORT $LN15@OnProcessS
$LN16@OnProcessS:

; 205  : 	{
; 206  : 	case SS_PRE:
; 207  : 		{
; 208  : 			DWORD dwPreDelay = GetPreDelayTime();

  001f7	8b 03		 mov	 eax, DWORD PTR [ebx]
  001f9	8b cb		 mov	 ecx, ebx
  001fb	ff 90 34 01 00
	00		 call	 DWORD PTR [eax+308]
  00201	89 45 dc	 mov	 DWORD PTR _dwPreDelay$548625[ebp], eax

; 209  : 			if( m_dwPreDelayStartTime + dwPreDelay < FRAMEGETTIME() )

  00204	ff d7		 call	 edi
  00206	8b c8		 mov	 ecx, eax
  00208	ff 15 00 00 00
	00		 call	 DWORD PTR __imp_?GetLoopSec@ioFrameTimer@@QBEKXZ
  0020e	8b 8b 20 02 00
	00		 mov	 ecx, DWORD PTR [ebx+544]
  00214	03 4d dc	 add	 ecx, DWORD PTR _dwPreDelay$548625[ebp]
  00217	3b c8		 cmp	 ecx, eax
  00219	73 28		 jae	 SHORT $LN15@OnProcessS

; 210  : 			{
; 211  : 				m_dwPreDelayStartTime = 0;

  0021b	83 a3 20 02 00
	00 00		 and	 DWORD PTR [ebx+544], 0

; 212  : 				if( pChar->IsNeedProcess() )

  00222	8b 06		 mov	 eax, DWORD PTR [esi]
  00224	8b ce		 mov	 ecx, esi
  00226	ff 90 00 01 00
	00		 call	 DWORD PTR [eax+256]
  0022c	84 c0		 test	 al, al
  0022e	74 08		 je	 SHORT $LN14@OnProcessS

; 213  : 				{
; 214  : 					SetPreAction( pChar );

  00230	56		 push	 esi
  00231	8b cb		 mov	 ecx, ebx
  00233	e8 00 00 00 00	 call	 ?SetPreAction@ioLightAttack@@QAEXPAVioBaseChar@@@Z ; ioLightAttack::SetPreAction
$LN14@OnProcessS:

; 215  : 				}
; 216  : 				EndPreDelayEffect( pChar );

  00238	8b 03		 mov	 eax, DWORD PTR [ebx]
  0023a	56		 push	 esi
  0023b	8b cb		 mov	 ecx, ebx
  0023d	ff 90 dc 00 00
	00		 call	 DWORD PTR [eax+220]
$LN15@OnProcessS:

; 287  : 	}
; 288  : }

  00243	8b 4d fc	 mov	 ecx, DWORD PTR __$ArrayPad$[ebp]
  00246	5f		 pop	 edi
  00247	5e		 pop	 esi
  00248	33 cd		 xor	 ecx, ebp
  0024a	5b		 pop	 ebx
  0024b	e8 00 00 00 00	 call	 @__security_check_cookie@4
  00250	c9		 leave
  00251	c2 08 00	 ret	 8
?OnProcessState@ioLightAttack@@UAEXPAVioBaseChar@@PAVioPlayStage@@@Z ENDP ; ioLightAttack::OnProcessState
_TEXT	ENDS
PUBLIC	??$_Uninit_copy@V?$_Vector_const_iterator@V?$_Vector_val@UBuffInfoStruct@@V?$allocator@UBuffInfoStruct@@@std@@@std@@@std@@PAUBuffInfoStruct@@V?$allocator@UBuffInfoStruct@@@2@@std@@YAPAUBuffInfoStruct@@V?$_Vector_const_iterator@V?$_Vector_val@UBuffInfoStruct@@V?$allocator@UBuffInfoStruct@@@std@@@std@@@0@0PAU1@AAV?$allocator@UBuffInfoStruct@@@0@U_Nonscalar_ptr_iterator_tag@0@@Z ; std::_Uninit_copy<std::_Vector_const_iterator<std::_Vector_val<BuffInfoStruct,std::allocator<BuffInfoStruct> > >,BuffInfoStruct *,std::allocator<BuffInfoStruct> >
EXTRN	__EH_prolog3_catch:PROC
;	COMDAT xdata$x
; File d:\lost saga for developer\youtube\tutorial\source\src\lsclient\weaponattribute.h
xdata$x	SEGMENT
__catchsym$??$_Uninit_copy@V?$_Vector_const_iterator@V?$_Vector_val@UBuffInfoStruct@@V?$allocator@UBuffInfoStruct@@@std@@@std@@@std@@PAUBuffInfoStruct@@V?$allocator@UBuffInfoStruct@@@2@@std@@YAPAUBuffInfoStruct@@V?$_Vector_const_iterator@V?$_Vector_val@UBuffInfoStruct@@V?$allocator@UBuffInfoStruct@@@std@@@std@@@0@0PAU1@AAV?$allocator@UBuffInfoStruct@@@0@U_Nonscalar_ptr_iterator_tag@0@@Z$3 DD 040H
	DD	00H
	DD	00H
	DD	FLAT:__catch$??$_Uninit_copy@V?$_Vector_const_iterator@V?$_Vector_val@UBuffInfoStruct@@V?$allocator@UBuffInfoStruct@@@std@@@std@@@std@@PAUBuffInfoStruct@@V?$allocator@UBuffInfoStruct@@@2@@std@@YAPAUBuffInfoStruct@@V?$_Vector_const_iterator@V?$_Vector_val@UBuffInfoStruct@@V?$allocator@UBuffInfoStruct@@@std@@@std@@@0@0PAU1@AAV?$allocator@UBuffInfoStruct@@@0@U_Nonscalar_ptr_iterator_tag@0@@Z$0
__unwindtable$??$_Uninit_copy@V?$_Vector_const_iterator@V?$_Vector_val@UBuffInfoStruct@@V?$allocator@UBuffInfoStruct@@@std@@@std@@@std@@PAUBuffInfoStruct@@V?$allocator@UBuffInfoStruct@@@2@@std@@YAPAUBuffInfoStruct@@V?$_Vector_const_iterator@V?$_Vector_val@UBuffInfoStruct@@V?$allocator@UBuffInfoStruct@@@std@@@std@@@0@0PAU1@AAV?$allocator@UBuffInfoStruct@@@0@U_Nonscalar_ptr_iterator_tag@0@@Z DD 0ffffffffH
	DD	00H
	DD	0ffffffffH
	DD	00H
__tryblocktable$??$_Uninit_copy@V?$_Vector_const_iterator@V?$_Vector_val@UBuffInfoStruct@@V?$allocator@UBuffInfoStruct@@@std@@@std@@@std@@PAUBuffInfoStruct@@V?$allocator@UBuffInfoStruct@@@2@@std@@YAPAUBuffInfoStruct@@V?$_Vector_const_iterator@V?$_Vector_val@UBuffInfoStruct@@V?$allocator@UBuffInfoStruct@@@std@@@std@@@0@0PAU1@AAV?$allocator@UBuffInfoStruct@@@0@U_Nonscalar_ptr_iterator_tag@0@@Z DD 00H
	DD	00H
	DD	01H
	DD	01H
	DD	FLAT:__catchsym$??$_Uninit_copy@V?$_Vector_const_iterator@V?$_Vector_val@UBuffInfoStruct@@V?$allocator@UBuffInfoStruct@@@std@@@std@@@std@@PAUBuffInfoStruct@@V?$allocator@UBuffInfoStruct@@@2@@std@@YAPAUBuffInfoStruct@@V?$_Vector_const_iterator@V?$_Vector_val@UBuffInfoStruct@@V?$allocator@UBuffInfoStruct@@@std@@@std@@@0@0PAU1@AAV?$allocator@UBuffInfoStruct@@@0@U_Nonscalar_ptr_iterator_tag@0@@Z$3
__ehfuncinfo$??$_Uninit_copy@V?$_Vector_const_iterator@V?$_Vector_val@UBuffInfoStruct@@V?$allocator@UBuffInfoStruct@@@std@@@std@@@std@@PAUBuffInfoStruct@@V?$allocator@UBuffInfoStruct@@@2@@std@@YAPAUBuffInfoStruct@@V?$_Vector_const_iterator@V?$_Vector_val@UBuffInfoStruct@@V?$allocator@UBuffInfoStruct@@@std@@@std@@@0@0PAU1@AAV?$allocator@UBuffInfoStruct@@@0@U_Nonscalar_ptr_iterator_tag@0@@Z DD 019930522H
	DD	02H
	DD	FLAT:__unwindtable$??$_Uninit_copy@V?$_Vector_const_iterator@V?$_Vector_val@UBuffInfoStruct@@V?$allocator@UBuffInfoStruct@@@std@@@std@@@std@@PAUBuffInfoStruct@@V?$allocator@UBuffInfoStruct@@@2@@std@@YAPAUBuffInfoStruct@@V?$_Vector_const_iterator@V?$_Vector_val@UBuffInfoStruct@@V?$allocator@UBuffInfoStruct@@@std@@@std@@@0@0PAU1@AAV?$allocator@UBuffInfoStruct@@@0@U_Nonscalar_ptr_iterator_tag@0@@Z
	DD	01H
	DD	FLAT:__tryblocktable$??$_Uninit_copy@V?$_Vector_const_iterator@V?$_Vector_val@UBuffInfoStruct@@V?$allocator@UBuffInfoStruct@@@std@@@std@@@std@@PAUBuffInfoStruct@@V?$allocator@UBuffInfoStruct@@@2@@std@@YAPAUBuffInfoStruct@@V?$_Vector_const_iterator@V?$_Vector_val@UBuffInfoStruct@@V?$allocator@UBuffInfoStruct@@@std@@@std@@@0@0PAU1@AAV?$allocator@UBuffInfoStruct@@@0@U_Nonscalar_ptr_iterator_tag@0@@Z
	DD	2 DUP(00H)
	DD	00H
	DD	01H
; Function compile flags: /Ogsp
; File c:\program files (x86)\microsoft visual studio 10.0\vc\include\memory
xdata$x	ENDS
;	COMDAT ??$_Uninit_copy@V?$_Vector_const_iterator@V?$_Vector_val@UBuffInfoStruct@@V?$allocator@UBuffInfoStruct@@@std@@@std@@@std@@PAUBuffInfoStruct@@V?$allocator@UBuffInfoStruct@@@2@@std@@YAPAUBuffInfoStruct@@V?$_Vector_const_iterator@V?$_Vector_val@UBuffInfoStruct@@V?$allocator@UBuffInfoStruct@@@std@@@std@@@0@0PAU1@AAV?$allocator@UBuffInfoStruct@@@0@U_Nonscalar_ptr_iterator_tag@0@@Z
_TEXT	SEGMENT
__Next$ = -20						; size = 4
__$EHRec$ = -16						; size = 16
__First$ = 8						; size = 4
__Last$ = 12						; size = 4
__Dest$ = 16						; size = 4
__Al$ = 20						; size = 4
___formal$ = 24						; size = 1
??$_Uninit_copy@V?$_Vector_const_iterator@V?$_Vector_val@UBuffInfoStruct@@V?$allocator@UBuffInfoStruct@@@std@@@std@@@std@@PAUBuffInfoStruct@@V?$allocator@UBuffInfoStruct@@@2@@std@@YAPAUBuffInfoStruct@@V?$_Vector_const_iterator@V?$_Vector_val@UBuffInfoStruct@@V?$allocator@UBuffInfoStruct@@@std@@@std@@@0@0PAU1@AAV?$allocator@UBuffInfoStruct@@@0@U_Nonscalar_ptr_iterator_tag@0@@Z PROC ; std::_Uninit_copy<std::_Vector_const_iterator<std::_Vector_val<BuffInfoStruct,std::allocator<BuffInfoStruct> > >,BuffInfoStruct *,std::allocator<BuffInfoStruct> >, COMDAT

; 369  : 	{	// copy [_First, _Last) to raw _Dest, using _Al, arbitrary type

  00000	6a 08		 push	 8
  00002	b8 00 00 00 00	 mov	 eax, __ehhandler$??$_Uninit_copy@V?$_Vector_const_iterator@V?$_Vector_val@UBuffInfoStruct@@V?$allocator@UBuffInfoStruct@@@std@@@std@@@std@@PAUBuffInfoStruct@@V?$allocator@UBuffInfoStruct@@@2@@std@@YAPAUBuffInfoStruct@@V?$_Vector_const_iterator@V?$_Vector_val@UBuffInfoStruct@@V?$allocator@UBuffInfoStruct@@@std@@@std@@@0@0PAU1@AAV?$allocator@UBuffInfoStruct@@@0@U_Nonscalar_ptr_iterator_tag@0@@Z
  00007	e8 00 00 00 00	 call	 __EH_prolog3_catch

; 370  : 	_DEBUG_RANGE(_First, _Last);
; 371  : 	_DEBUG_POINTER(_Dest);
; 372  : 	_FwdIt _Next = _Dest;

  0000c	8b 45 10	 mov	 eax, DWORD PTR __Dest$[ebp]

; 373  : 
; 374  : 	_TRY_BEGIN

  0000f	83 65 fc 00	 and	 DWORD PTR __$EHRec$[ebp+12], 0
  00013	89 45 ec	 mov	 DWORD PTR __Next$[ebp], eax

; 375  : 	for (; _First != _Last; ++_Dest, ++_First)

$LL14@Uninit_cop:
  00016	8b 45 08	 mov	 eax, DWORD PTR __First$[ebp]
  00019	3b 45 0c	 cmp	 eax, DWORD PTR __Last$[ebp]
  0001c	74 33		 je	 SHORT $LN4@Uninit_cop

; 376  : 		_Cons_val(_Al, _Dest, *_First);

  0001e	50		 push	 eax
  0001f	ff 75 10	 push	 DWORD PTR __Dest$[ebp]
  00022	e8 00 00 00 00	 call	 ??$_Construct@UBuffInfoStruct@@ABU1@@std@@YAXPAUBuffInfoStruct@@ABU1@@Z ; std::_Construct<BuffInfoStruct,BuffInfoStruct const &>
  00027	83 45 10 14	 add	 DWORD PTR __Dest$[ebp], 20 ; 00000014H
  0002b	83 45 08 14	 add	 DWORD PTR __First$[ebp], 20 ; 00000014H
  0002f	59		 pop	 ecx
  00030	59		 pop	 ecx
  00031	eb e3		 jmp	 SHORT $LL14@Uninit_cop
__catch$??$_Uninit_copy@V?$_Vector_const_iterator@V?$_Vector_val@UBuffInfoStruct@@V?$allocator@UBuffInfoStruct@@@std@@@std@@@std@@PAUBuffInfoStruct@@V?$allocator@UBuffInfoStruct@@@2@@std@@YAPAUBuffInfoStruct@@V?$_Vector_const_iterator@V?$_Vector_val@UBuffInfoStruct@@V?$allocator@UBuffInfoStruct@@@std@@@std@@@0@0PAU1@AAV?$allocator@UBuffInfoStruct@@@0@U_Nonscalar_ptr_iterator_tag@0@@Z$0:

; 377  : 	_CATCH_ALL
; 378  : 	for (; _Next != _Dest; ++_Next)

  00033	8b 75 ec	 mov	 esi, DWORD PTR __Next$[ebp]
  00036	eb 0b		 jmp	 SHORT $LN48@Uninit_cop
$LL3@Uninit_cop:

; 379  : 		_Dest_val(_Al, _Next);

  00038	8b ce		 mov	 ecx, esi
  0003a	ff 15 00 00 00
	00		 call	 DWORD PTR __imp_??1ioHashString@@QAE@XZ
  00040	83 c6 14	 add	 esi, 20			; 00000014H
$LN48@Uninit_cop:

; 377  : 	_CATCH_ALL
; 378  : 	for (; _Next != _Dest; ++_Next)

  00043	3b 75 10	 cmp	 esi, DWORD PTR __Dest$[ebp]
  00046	75 f0		 jne	 SHORT $LL3@Uninit_cop

; 380  : 	_RERAISE;

  00048	6a 00		 push	 0
  0004a	6a 00		 push	 0
  0004c	e8 00 00 00 00	 call	 __CxxThrowException@8
$LN49@Uninit_cop:
$LN4@Uninit_cop:

; 381  : 	_CATCH_END
; 382  : 	return (_Dest);

  00051	8b 45 10	 mov	 eax, DWORD PTR __Dest$[ebp]

; 383  : 	}

  00054	e8 00 00 00 00	 call	 __EH_epilog3
  00059	c3		 ret	 0
$LN47@Uninit_cop:
_TEXT	ENDS
;	COMDAT text$x
text$x	SEGMENT
__ehhandler$??$_Uninit_copy@V?$_Vector_const_iterator@V?$_Vector_val@UBuffInfoStruct@@V?$allocator@UBuffInfoStruct@@@std@@@std@@@std@@PAUBuffInfoStruct@@V?$allocator@UBuffInfoStruct@@@2@@std@@YAPAUBuffInfoStruct@@V?$_Vector_const_iterator@V?$_Vector_val@UBuffInfoStruct@@V?$allocator@UBuffInfoStruct@@@std@@@std@@@0@0PAU1@AAV?$allocator@UBuffInfoStruct@@@0@U_Nonscalar_ptr_iterator_tag@0@@Z:
  00000	8b 54 24 08	 mov	 edx, DWORD PTR [esp+8]
  00004	8d 42 0c	 lea	 eax, DWORD PTR [edx+12]
  00007	8b 4a e8	 mov	 ecx, DWORD PTR [edx-24]
  0000a	33 c8		 xor	 ecx, eax
  0000c	e8 00 00 00 00	 call	 @__security_check_cookie@4
  00011	b8 00 00 00 00	 mov	 eax, OFFSET __ehfuncinfo$??$_Uninit_copy@V?$_Vector_const_iterator@V?$_Vector_val@UBuffInfoStruct@@V?$allocator@UBuffInfoStruct@@@std@@@std@@@std@@PAUBuffInfoStruct@@V?$allocator@UBuffInfoStruct@@@2@@std@@YAPAUBuffInfoStruct@@V?$_Vector_const_iterator@V?$_Vector_val@UBuffInfoStruct@@V?$allocator@UBuffInfoStruct@@@std@@@std@@@0@0PAU1@AAV?$allocator@UBuffInfoStruct@@@0@U_Nonscalar_ptr_iterator_tag@0@@Z
  00016	e9 00 00 00 00	 jmp	 ___CxxFrameHandler3
text$x	ENDS
??$_Uninit_copy@V?$_Vector_const_iterator@V?$_Vector_val@UBuffInfoStruct@@V?$allocator@UBuffInfoStruct@@@std@@@std@@@std@@PAUBuffInfoStruct@@V?$allocator@UBuffInfoStruct@@@2@@std@@YAPAUBuffInfoStruct@@V?$_Vector_const_iterator@V?$_Vector_val@UBuffInfoStruct@@V?$allocator@UBuffInfoStruct@@@std@@@std@@@0@0PAU1@AAV?$allocator@UBuffInfoStruct@@@0@U_Nonscalar_ptr_iterator_tag@0@@Z ENDP ; std::_Uninit_copy<std::_Vector_const_iterator<std::_Vector_val<BuffInfoStruct,std::allocator<BuffInfoStruct> > >,BuffInfoStruct *,std::allocator<BuffInfoStruct> >
PUBLIC	??$_Uninit_move@PAUBuffInfoStruct@@PAU1@V?$allocator@UBuffInfoStruct@@@std@@U1@@std@@YAPAUBuffInfoStruct@@PAU1@00AAV?$allocator@UBuffInfoStruct@@@0@0U_Nonscalar_ptr_iterator_tag@0@@Z ; std::_Uninit_move<BuffInfoStruct *,BuffInfoStruct *,std::allocator<BuffInfoStruct>,BuffInfoStruct>
;	COMDAT xdata$x
; File d:\lost saga for developer\youtube\tutorial\source\src\lsclient\weaponattribute.h
xdata$x	SEGMENT
__catchsym$??$_Uninit_move@PAUBuffInfoStruct@@PAU1@V?$allocator@UBuffInfoStruct@@@std@@U1@@std@@YAPAUBuffInfoStruct@@PAU1@00AAV?$allocator@UBuffInfoStruct@@@0@0U_Nonscalar_ptr_iterator_tag@0@@Z$3 DD 040H
	DD	00H
	DD	00H
	DD	FLAT:__catch$??$_Uninit_move@PAUBuffInfoStruct@@PAU1@V?$allocator@UBuffInfoStruct@@@std@@U1@@std@@YAPAUBuffInfoStruct@@PAU1@00AAV?$allocator@UBuffInfoStruct@@@0@0U_Nonscalar_ptr_iterator_tag@0@@Z$0
__unwindtable$??$_Uninit_move@PAUBuffInfoStruct@@PAU1@V?$allocator@UBuffInfoStruct@@@std@@U1@@std@@YAPAUBuffInfoStruct@@PAU1@00AAV?$allocator@UBuffInfoStruct@@@0@0U_Nonscalar_ptr_iterator_tag@0@@Z DD 0ffffffffH
	DD	00H
	DD	0ffffffffH
	DD	00H
__tryblocktable$??$_Uninit_move@PAUBuffInfoStruct@@PAU1@V?$allocator@UBuffInfoStruct@@@std@@U1@@std@@YAPAUBuffInfoStruct@@PAU1@00AAV?$allocator@UBuffInfoStruct@@@0@0U_Nonscalar_ptr_iterator_tag@0@@Z DD 00H
	DD	00H
	DD	01H
	DD	01H
	DD	FLAT:__catchsym$??$_Uninit_move@PAUBuffInfoStruct@@PAU1@V?$allocator@UBuffInfoStruct@@@std@@U1@@std@@YAPAUBuffInfoStruct@@PAU1@00AAV?$allocator@UBuffInfoStruct@@@0@0U_Nonscalar_ptr_iterator_tag@0@@Z$3
__ehfuncinfo$??$_Uninit_move@PAUBuffInfoStruct@@PAU1@V?$allocator@UBuffInfoStruct@@@std@@U1@@std@@YAPAUBuffInfoStruct@@PAU1@00AAV?$allocator@UBuffInfoStruct@@@0@0U_Nonscalar_ptr_iterator_tag@0@@Z DD 019930522H
	DD	02H
	DD	FLAT:__unwindtable$??$_Uninit_move@PAUBuffInfoStruct@@PAU1@V?$allocator@UBuffInfoStruct@@@std@@U1@@std@@YAPAUBuffInfoStruct@@PAU1@00AAV?$allocator@UBuffInfoStruct@@@0@0U_Nonscalar_ptr_iterator_tag@0@@Z
	DD	01H
	DD	FLAT:__tryblocktable$??$_Uninit_move@PAUBuffInfoStruct@@PAU1@V?$allocator@UBuffInfoStruct@@@std@@U1@@std@@YAPAUBuffInfoStruct@@PAU1@00AAV?$allocator@UBuffInfoStruct@@@0@0U_Nonscalar_ptr_iterator_tag@0@@Z
	DD	2 DUP(00H)
	DD	00H
	DD	01H
; Function compile flags: /Ogsp
; File c:\program files (x86)\microsoft visual studio 10.0\vc\include\memory
xdata$x	ENDS
;	COMDAT ??$_Uninit_move@PAUBuffInfoStruct@@PAU1@V?$allocator@UBuffInfoStruct@@@std@@U1@@std@@YAPAUBuffInfoStruct@@PAU1@00AAV?$allocator@UBuffInfoStruct@@@0@0U_Nonscalar_ptr_iterator_tag@0@@Z
_TEXT	SEGMENT
__Next$ = -20						; size = 4
__$EHRec$ = -16						; size = 16
__First$ = 8						; size = 4
__Last$ = 12						; size = 4
__Dest$ = 16						; size = 4
__Al$ = 20						; size = 4
___formal$ = 24						; size = 4
___formal$ = 28						; size = 1
??$_Uninit_move@PAUBuffInfoStruct@@PAU1@V?$allocator@UBuffInfoStruct@@@std@@U1@@std@@YAPAUBuffInfoStruct@@PAU1@00AAV?$allocator@UBuffInfoStruct@@@0@0U_Nonscalar_ptr_iterator_tag@0@@Z PROC ; std::_Uninit_move<BuffInfoStruct *,BuffInfoStruct *,std::allocator<BuffInfoStruct>,BuffInfoStruct>, COMDAT

; 424  : 	{	// move [_First, _Last) to raw _Dest, using _Al, arbitrary type

  00000	6a 08		 push	 8
  00002	b8 00 00 00 00	 mov	 eax, __ehhandler$??$_Uninit_move@PAUBuffInfoStruct@@PAU1@V?$allocator@UBuffInfoStruct@@@std@@U1@@std@@YAPAUBuffInfoStruct@@PAU1@00AAV?$allocator@UBuffInfoStruct@@@0@0U_Nonscalar_ptr_iterator_tag@0@@Z
  00007	e8 00 00 00 00	 call	 __EH_prolog3_catch

; 425  : 	_DEBUG_RANGE(_First, _Last);
; 426  : 	_DEBUG_POINTER(_Dest);
; 427  : 	_FwdIt _Next = _Dest;

  0000c	8b 45 10	 mov	 eax, DWORD PTR __Dest$[ebp]

; 428  : 
; 429  : 	_TRY_BEGIN

  0000f	83 65 fc 00	 and	 DWORD PTR __$EHRec$[ebp+12], 0
  00013	8b 75 08	 mov	 esi, DWORD PTR __First$[ebp]
  00016	89 45 ec	 mov	 DWORD PTR __Next$[ebp], eax
$LL6@Uninit_mov:

; 430  : 	for (; _First != _Last; ++_Dest, ++_First)

  00019	3b 75 0c	 cmp	 esi, DWORD PTR __Last$[ebp]
  0001c	74 33		 je	 SHORT $LN4@Uninit_mov

; 431  : 		_Cons_val(_Al, _Dest, (_Valty &&)*_First);

  0001e	8b 4d 14	 mov	 ecx, DWORD PTR __Al$[ebp]
  00021	56		 push	 esi
  00022	ff 75 10	 push	 DWORD PTR __Dest$[ebp]
  00025	e8 00 00 00 00	 call	 ?construct@?$allocator@UBuffInfoStruct@@@std@@QAEXPAUBuffInfoStruct@@$$QAU3@@Z ; std::allocator<BuffInfoStruct>::construct
  0002a	83 45 10 14	 add	 DWORD PTR __Dest$[ebp], 20 ; 00000014H
  0002e	83 c6 14	 add	 esi, 20			; 00000014H
  00031	eb e6		 jmp	 SHORT $LL6@Uninit_mov
__catch$??$_Uninit_move@PAUBuffInfoStruct@@PAU1@V?$allocator@UBuffInfoStruct@@@std@@U1@@std@@YAPAUBuffInfoStruct@@PAU1@00AAV?$allocator@UBuffInfoStruct@@@0@0U_Nonscalar_ptr_iterator_tag@0@@Z$0:

; 432  : 	_CATCH_ALL
; 433  : 	for (; _Next != _Dest; ++_Next)

  00033	8b 75 ec	 mov	 esi, DWORD PTR __Next$[ebp]
  00036	eb 0b		 jmp	 SHORT $LN36@Uninit_mov
$LL3@Uninit_mov:

; 434  : 		_Dest_val(_Al, _Next);

  00038	8b ce		 mov	 ecx, esi
  0003a	ff 15 00 00 00
	00		 call	 DWORD PTR __imp_??1ioHashString@@QAE@XZ
  00040	83 c6 14	 add	 esi, 20			; 00000014H
$LN36@Uninit_mov:

; 432  : 	_CATCH_ALL
; 433  : 	for (; _Next != _Dest; ++_Next)

  00043	3b 75 10	 cmp	 esi, DWORD PTR __Dest$[ebp]
  00046	75 f0		 jne	 SHORT $LL3@Uninit_mov

; 435  : 	_RERAISE;

  00048	6a 00		 push	 0
  0004a	6a 00		 push	 0
  0004c	e8 00 00 00 00	 call	 __CxxThrowException@8
$LN37@Uninit_mov:
$LN4@Uninit_mov:

; 436  : 	_CATCH_END
; 437  : 	return (_Dest);

  00051	8b 45 10	 mov	 eax, DWORD PTR __Dest$[ebp]

; 438  : 	}

  00054	e8 00 00 00 00	 call	 __EH_epilog3
  00059	c3		 ret	 0
$LN35@Uninit_mov:
_TEXT	ENDS
;	COMDAT text$x
text$x	SEGMENT
__ehhandler$??$_Uninit_move@PAUBuffInfoStruct@@PAU1@V?$allocator@UBuffInfoStruct@@@std@@U1@@std@@YAPAUBuffInfoStruct@@PAU1@00AAV?$allocator@UBuffInfoStruct@@@0@0U_Nonscalar_ptr_iterator_tag@0@@Z:
  00000	8b 54 24 08	 mov	 edx, DWORD PTR [esp+8]
  00004	8d 42 0c	 lea	 eax, DWORD PTR [edx+12]
  00007	8b 4a e8	 mov	 ecx, DWORD PTR [edx-24]
  0000a	33 c8		 xor	 ecx, eax
  0000c	e8 00 00 00 00	 call	 @__security_check_cookie@4
  00011	b8 00 00 00 00	 mov	 eax, OFFSET __ehfuncinfo$??$_Uninit_move@PAUBuffInfoStruct@@PAU1@V?$allocator@UBuffInfoStruct@@@std@@U1@@std@@YAPAUBuffInfoStruct@@PAU1@00AAV?$allocator@UBuffInfoStruct@@@0@0U_Nonscalar_ptr_iterator_tag@0@@Z
  00016	e9 00 00 00 00	 jmp	 ___CxxFrameHandler3
text$x	ENDS
??$_Uninit_move@PAUBuffInfoStruct@@PAU1@V?$allocator@UBuffInfoStruct@@@std@@U1@@std@@YAPAUBuffInfoStruct@@PAU1@00AAV?$allocator@UBuffInfoStruct@@@0@0U_Nonscalar_ptr_iterator_tag@0@@Z ENDP ; std::_Uninit_move<BuffInfoStruct *,BuffInfoStruct *,std::allocator<BuffInfoStruct>,BuffInfoStruct>
PUBLIC	??$_Destroy_range@V?$allocator@UBuffInfoStruct@@@std@@@std@@YAXPAUBuffInfoStruct@@0AAV?$allocator@UBuffInfoStruct@@@0@U_Nonscalar_ptr_iterator_tag@0@@Z ; std::_Destroy_range<std::allocator<BuffInfoStruct> >
; Function compile flags: /Ogsp
; File c:\program files (x86)\microsoft visual studio 10.0\vc\include\xmemory
;	COMDAT ??$_Destroy_range@V?$allocator@UBuffInfoStruct@@@std@@@std@@YAXPAUBuffInfoStruct@@0AAV?$allocator@UBuffInfoStruct@@@0@U_Nonscalar_ptr_iterator_tag@0@@Z
_TEXT	SEGMENT
__First$ = 8						; size = 4
__Last$ = 12						; size = 4
__Al$ = 16						; size = 4
___formal$ = 20						; size = 1
??$_Destroy_range@V?$allocator@UBuffInfoStruct@@@std@@@std@@YAXPAUBuffInfoStruct@@0AAV?$allocator@UBuffInfoStruct@@@0@U_Nonscalar_ptr_iterator_tag@0@@Z PROC ; std::_Destroy_range<std::allocator<BuffInfoStruct> >, COMDAT

; 95   : 	{	// destroy [_First, _Last), arbitrary type

  00000	55		 push	 ebp
  00001	8b ec		 mov	 ebp, esp
  00003	56		 push	 esi

; 96   : 	for (; _First != _Last; ++_First)

  00004	8b 75 08	 mov	 esi, DWORD PTR __First$[ebp]
  00007	eb 0b		 jmp	 SHORT $LN20@Destroy_ra
$LL3@Destroy_ra:

; 97   : 		_Dest_val(_Al, _First);

  00009	8b ce		 mov	 ecx, esi
  0000b	ff 15 00 00 00
	00		 call	 DWORD PTR __imp_??1ioHashString@@QAE@XZ
  00011	83 c6 14	 add	 esi, 20			; 00000014H
$LN20@Destroy_ra:

; 96   : 	for (; _First != _Last; ++_First)

  00014	3b 75 0c	 cmp	 esi, DWORD PTR __Last$[ebp]
  00017	75 f0		 jne	 SHORT $LL3@Destroy_ra
  00019	5e		 pop	 esi

; 98   : 	}

  0001a	5d		 pop	 ebp
  0001b	c3		 ret	 0
??$_Destroy_range@V?$allocator@UBuffInfoStruct@@@std@@@std@@YAXPAUBuffInfoStruct@@0AAV?$allocator@UBuffInfoStruct@@@0@U_Nonscalar_ptr_iterator_tag@0@@Z ENDP ; std::_Destroy_range<std::allocator<BuffInfoStruct> >
_TEXT	ENDS
PUBLIC	??$_Uninitialized_copy@V?$_Vector_const_iterator@V?$_Vector_val@UBuffInfoStruct@@V?$allocator@UBuffInfoStruct@@@std@@@std@@@std@@PAUBuffInfoStruct@@V?$allocator@UBuffInfoStruct@@@2@@std@@YAPAUBuffInfoStruct@@V?$_Vector_const_iterator@V?$_Vector_val@UBuffInfoStruct@@V?$allocator@UBuffInfoStruct@@@std@@@std@@@0@0PAU1@AAV?$allocator@UBuffInfoStruct@@@0@@Z ; std::_Uninitialized_copy<std::_Vector_const_iterator<std::_Vector_val<BuffInfoStruct,std::allocator<BuffInfoStruct> > >,BuffInfoStruct *,std::allocator<BuffInfoStruct> >
; Function compile flags: /Ogsp
; File c:\program files (x86)\microsoft visual studio 10.0\vc\include\memory
;	COMDAT ??$_Uninitialized_copy@V?$_Vector_const_iterator@V?$_Vector_val@UBuffInfoStruct@@V?$allocator@UBuffInfoStruct@@@std@@@std@@@std@@PAUBuffInfoStruct@@V?$allocator@UBuffInfoStruct@@@2@@std@@YAPAUBuffInfoStruct@@V?$_Vector_const_iterator@V?$_Vector_val@UBuffInfoStruct@@V?$allocator@UBuffInfoStruct@@@std@@@std@@@0@0PAU1@AAV?$allocator@UBuffInfoStruct@@@0@@Z
_TEXT	SEGMENT
__Cat$554558 = -4					; size = 1
__First$ = 8						; size = 4
__Last$ = 12						; size = 4
__Dest$ = 16						; size = 4
__Al$ = 20						; size = 4
??$_Uninitialized_copy@V?$_Vector_const_iterator@V?$_Vector_val@UBuffInfoStruct@@V?$allocator@UBuffInfoStruct@@@std@@@std@@@std@@PAUBuffInfoStruct@@V?$allocator@UBuffInfoStruct@@@2@@std@@YAPAUBuffInfoStruct@@V?$_Vector_const_iterator@V?$_Vector_val@UBuffInfoStruct@@V?$allocator@UBuffInfoStruct@@@std@@@std@@@0@0PAU1@AAV?$allocator@UBuffInfoStruct@@@0@@Z PROC ; std::_Uninitialized_copy<std::_Vector_const_iterator<std::_Vector_val<BuffInfoStruct,std::allocator<BuffInfoStruct> > >,BuffInfoStruct *,std::allocator<BuffInfoStruct> >, COMDAT

; 412  : 	{	// copy [_First, _Last) to raw _Dest, using _Al

  00000	55		 push	 ebp
  00001	8b ec		 mov	 ebp, esp
  00003	51		 push	 ecx

; 413  : 	return (_Uninit_copy(_First, _Last, _Dest, _Al,
; 414  : 		_Ptr_cat(_First, _Dest)));

  00004	ff 75 fc	 push	 DWORD PTR __Cat$554558[ebp]
  00007	ff 75 14	 push	 DWORD PTR __Al$[ebp]
  0000a	ff 75 10	 push	 DWORD PTR __Dest$[ebp]
  0000d	ff 75 0c	 push	 DWORD PTR __Last$[ebp]
  00010	ff 75 08	 push	 DWORD PTR __First$[ebp]
  00013	e8 00 00 00 00	 call	 ??$_Uninit_copy@V?$_Vector_const_iterator@V?$_Vector_val@UBuffInfoStruct@@V?$allocator@UBuffInfoStruct@@@std@@@std@@@std@@PAUBuffInfoStruct@@V?$allocator@UBuffInfoStruct@@@2@@std@@YAPAUBuffInfoStruct@@V?$_Vector_const_iterator@V?$_Vector_val@UBuffInfoStruct@@V?$allocator@UBuffInfoStruct@@@std@@@std@@@0@0PAU1@AAV?$allocator@UBuffInfoStruct@@@0@U_Nonscalar_ptr_iterator_tag@0@@Z ; std::_Uninit_copy<std::_Vector_const_iterator<std::_Vector_val<BuffInfoStruct,std::allocator<BuffInfoStruct> > >,BuffInfoStruct *,std::allocator<BuffInfoStruct> >
  00018	83 c4 14	 add	 esp, 20			; 00000014H

; 415  : 	}

  0001b	c9		 leave
  0001c	c3		 ret	 0
??$_Uninitialized_copy@V?$_Vector_const_iterator@V?$_Vector_val@UBuffInfoStruct@@V?$allocator@UBuffInfoStruct@@@std@@@std@@@std@@PAUBuffInfoStruct@@V?$allocator@UBuffInfoStruct@@@2@@std@@YAPAUBuffInfoStruct@@V?$_Vector_const_iterator@V?$_Vector_val@UBuffInfoStruct@@V?$allocator@UBuffInfoStruct@@@std@@@std@@@0@0PAU1@AAV?$allocator@UBuffInfoStruct@@@0@@Z ENDP ; std::_Uninitialized_copy<std::_Vector_const_iterator<std::_Vector_val<BuffInfoStruct,std::allocator<BuffInfoStruct> > >,BuffInfoStruct *,std::allocator<BuffInfoStruct> >
_TEXT	ENDS
PUBLIC	??$_Uninitialized_move@PAUBuffInfoStruct@@PAU1@V?$allocator@UBuffInfoStruct@@@std@@@std@@YAPAUBuffInfoStruct@@PAU1@00AAV?$allocator@UBuffInfoStruct@@@0@@Z ; std::_Uninitialized_move<BuffInfoStruct *,BuffInfoStruct *,std::allocator<BuffInfoStruct> >
; Function compile flags: /Ogsp
;	COMDAT ??$_Uninitialized_move@PAUBuffInfoStruct@@PAU1@V?$allocator@UBuffInfoStruct@@@std@@@std@@YAPAUBuffInfoStruct@@PAU1@00AAV?$allocator@UBuffInfoStruct@@@0@@Z
_TEXT	SEGMENT
__Cat$554565 = -4					; size = 1
__First$ = 8						; size = 4
__Last$ = 12						; size = 4
__Dest$ = 16						; size = 4
__Al$ = 20						; size = 4
??$_Uninitialized_move@PAUBuffInfoStruct@@PAU1@V?$allocator@UBuffInfoStruct@@@std@@@std@@YAPAUBuffInfoStruct@@PAU1@00AAV?$allocator@UBuffInfoStruct@@@0@@Z PROC ; std::_Uninitialized_move<BuffInfoStruct *,BuffInfoStruct *,std::allocator<BuffInfoStruct> >, COMDAT

; 469  : 	{	// move [_First, _Last) to raw _Dest, using _Al

  00000	55		 push	 ebp
  00001	8b ec		 mov	 ebp, esp
  00003	51		 push	 ecx

; 470  : 	return (_Uninit_move(_First, _Last, _Dest, _Al,
; 471  : 		_Val_type(_First), _Ptr_cat(_First, _Dest)));

  00004	ff 75 fc	 push	 DWORD PTR __Cat$554565[ebp]
  00007	6a 00		 push	 0
  00009	ff 75 14	 push	 DWORD PTR __Al$[ebp]
  0000c	ff 75 10	 push	 DWORD PTR __Dest$[ebp]
  0000f	ff 75 0c	 push	 DWORD PTR __Last$[ebp]
  00012	ff 75 08	 push	 DWORD PTR __First$[ebp]
  00015	e8 00 00 00 00	 call	 ??$_Uninit_move@PAUBuffInfoStruct@@PAU1@V?$allocator@UBuffInfoStruct@@@std@@U1@@std@@YAPAUBuffInfoStruct@@PAU1@00AAV?$allocator@UBuffInfoStruct@@@0@0U_Nonscalar_ptr_iterator_tag@0@@Z ; std::_Uninit_move<BuffInfoStruct *,BuffInfoStruct *,std::allocator<BuffInfoStruct>,BuffInfoStruct>
  0001a	83 c4 18	 add	 esp, 24			; 00000018H

; 472  : 	}

  0001d	c9		 leave
  0001e	c3		 ret	 0
??$_Uninitialized_move@PAUBuffInfoStruct@@PAU1@V?$allocator@UBuffInfoStruct@@@std@@@std@@YAPAUBuffInfoStruct@@PAU1@00AAV?$allocator@UBuffInfoStruct@@@0@@Z ENDP ; std::_Uninitialized_move<BuffInfoStruct *,BuffInfoStruct *,std::allocator<BuffInfoStruct> >
_TEXT	ENDS
PUBLIC	??$_Destroy_range@V?$allocator@UBuffInfoStruct@@@std@@@std@@YAXPAUBuffInfoStruct@@0AAV?$allocator@UBuffInfoStruct@@@0@@Z ; std::_Destroy_range<std::allocator<BuffInfoStruct> >
; Function compile flags: /Ogsp
; File c:\program files (x86)\microsoft visual studio 10.0\vc\include\xmemory
;	COMDAT ??$_Destroy_range@V?$allocator@UBuffInfoStruct@@@std@@@std@@YAXPAUBuffInfoStruct@@0AAV?$allocator@UBuffInfoStruct@@@0@@Z
_TEXT	SEGMENT
__First$ = 8						; size = 4
__Last$ = 12						; size = 4
__Al$ = 16						; size = 4
??$_Destroy_range@V?$allocator@UBuffInfoStruct@@@std@@@std@@YAXPAUBuffInfoStruct@@0AAV?$allocator@UBuffInfoStruct@@@0@@Z PROC ; std::_Destroy_range<std::allocator<BuffInfoStruct> >, COMDAT

; 87   : 	{	// destroy [_First, _Last)

  00000	55		 push	 ebp
  00001	8b ec		 mov	 ebp, esp
  00003	56		 push	 esi

; 88   : 	_Destroy_range(_First, _Last, _Al, _Ptr_cat(_First, _Last));

  00004	8b 75 08	 mov	 esi, DWORD PTR __First$[ebp]
  00007	eb 0b		 jmp	 SHORT $LN24@Destroy_ra@2
$LL7@Destroy_ra@2:
  00009	8b ce		 mov	 ecx, esi
  0000b	ff 15 00 00 00
	00		 call	 DWORD PTR __imp_??1ioHashString@@QAE@XZ
  00011	83 c6 14	 add	 esi, 20			; 00000014H
$LN24@Destroy_ra@2:
  00014	3b 75 0c	 cmp	 esi, DWORD PTR __Last$[ebp]
  00017	75 f0		 jne	 SHORT $LL7@Destroy_ra@2
  00019	5e		 pop	 esi

; 89   : 	}

  0001a	5d		 pop	 ebp
  0001b	c3		 ret	 0
??$_Destroy_range@V?$allocator@UBuffInfoStruct@@@std@@@std@@YAXPAUBuffInfoStruct@@0AAV?$allocator@UBuffInfoStruct@@@0@@Z ENDP ; std::_Destroy_range<std::allocator<BuffInfoStruct> >
_TEXT	ENDS
PUBLIC	??$_Ucopy@V?$_Vector_const_iterator@V?$_Vector_val@UBuffInfoStruct@@V?$allocator@UBuffInfoStruct@@@std@@@std@@@std@@@?$vector@UBuffInfoStruct@@V?$allocator@UBuffInfoStruct@@@std@@@std@@IAEPAUBuffInfoStruct@@V?$_Vector_const_iterator@V?$_Vector_val@UBuffInfoStruct@@V?$allocator@UBuffInfoStruct@@@std@@@std@@@1@0PAU2@@Z ; std::vector<BuffInfoStruct,std::allocator<BuffInfoStruct> >::_Ucopy<std::_Vector_const_iterator<std::_Vector_val<BuffInfoStruct,std::allocator<BuffInfoStruct> > > >
; Function compile flags: /Ogsp
; File c:\program files (x86)\microsoft visual studio 10.0\vc\include\vector
;	COMDAT ??$_Ucopy@V?$_Vector_const_iterator@V?$_Vector_val@UBuffInfoStruct@@V?$allocator@UBuffInfoStruct@@@std@@@std@@@std@@@?$vector@UBuffInfoStruct@@V?$allocator@UBuffInfoStruct@@@std@@@std@@IAEPAUBuffInfoStruct@@V?$_Vector_const_iterator@V?$_Vector_val@UBuffInfoStruct@@V?$allocator@UBuffInfoStruct@@@std@@@std@@@1@0PAU2@@Z
_TEXT	SEGMENT
__First$ = 8						; size = 4
__Last$ = 12						; size = 4
__Cat$554650 = 16					; size = 1
__Ptr$ = 16						; size = 4
??$_Ucopy@V?$_Vector_const_iterator@V?$_Vector_val@UBuffInfoStruct@@V?$allocator@UBuffInfoStruct@@@std@@@std@@@std@@@?$vector@UBuffInfoStruct@@V?$allocator@UBuffInfoStruct@@@std@@@std@@IAEPAUBuffInfoStruct@@V?$_Vector_const_iterator@V?$_Vector_val@UBuffInfoStruct@@V?$allocator@UBuffInfoStruct@@@std@@@std@@@1@0PAU2@@Z PROC ; std::vector<BuffInfoStruct,std::allocator<BuffInfoStruct> >::_Ucopy<std::_Vector_const_iterator<std::_Vector_val<BuffInfoStruct,std::allocator<BuffInfoStruct> > > >, COMDAT
; _this$ = ecx

; 1315 : 		pointer _Ucopy(_Iter _First, _Iter _Last, pointer _Ptr)

  00000	55		 push	 ebp
  00001	8b ec		 mov	 ebp, esp

; 1316 : 		{	// copy initializing [_First, _Last), using allocator
; 1317 : 		return (_Uninitialized_copy(_First, _Last,
; 1318 : 			_Ptr, this->_Alval));

  00003	ff 75 10	 push	 DWORD PTR __Cat$554650[ebp]
  00006	83 c1 0c	 add	 ecx, 12			; 0000000cH
  00009	51		 push	 ecx
  0000a	ff 75 10	 push	 DWORD PTR __Ptr$[ebp]
  0000d	ff 75 0c	 push	 DWORD PTR __Last$[ebp]
  00010	ff 75 08	 push	 DWORD PTR __First$[ebp]
  00013	e8 00 00 00 00	 call	 ??$_Uninit_copy@V?$_Vector_const_iterator@V?$_Vector_val@UBuffInfoStruct@@V?$allocator@UBuffInfoStruct@@@std@@@std@@@std@@PAUBuffInfoStruct@@V?$allocator@UBuffInfoStruct@@@2@@std@@YAPAUBuffInfoStruct@@V?$_Vector_const_iterator@V?$_Vector_val@UBuffInfoStruct@@V?$allocator@UBuffInfoStruct@@@std@@@std@@@0@0PAU1@AAV?$allocator@UBuffInfoStruct@@@0@U_Nonscalar_ptr_iterator_tag@0@@Z ; std::_Uninit_copy<std::_Vector_const_iterator<std::_Vector_val<BuffInfoStruct,std::allocator<BuffInfoStruct> > >,BuffInfoStruct *,std::allocator<BuffInfoStruct> >
  00018	83 c4 14	 add	 esp, 20			; 00000014H

; 1319 : 		}

  0001b	5d		 pop	 ebp
  0001c	c2 0c 00	 ret	 12			; 0000000cH
??$_Ucopy@V?$_Vector_const_iterator@V?$_Vector_val@UBuffInfoStruct@@V?$allocator@UBuffInfoStruct@@@std@@@std@@@std@@@?$vector@UBuffInfoStruct@@V?$allocator@UBuffInfoStruct@@@std@@@std@@IAEPAUBuffInfoStruct@@V?$_Vector_const_iterator@V?$_Vector_val@UBuffInfoStruct@@V?$allocator@UBuffInfoStruct@@@std@@@std@@@1@0PAU2@@Z ENDP ; std::vector<BuffInfoStruct,std::allocator<BuffInfoStruct> >::_Ucopy<std::_Vector_const_iterator<std::_Vector_val<BuffInfoStruct,std::allocator<BuffInfoStruct> > > >
_TEXT	ENDS
PUBLIC	??$_Umove@PAUBuffInfoStruct@@@?$vector@UBuffInfoStruct@@V?$allocator@UBuffInfoStruct@@@std@@@std@@IAEPAUBuffInfoStruct@@PAU2@00@Z ; std::vector<BuffInfoStruct,std::allocator<BuffInfoStruct> >::_Umove<BuffInfoStruct *>
; Function compile flags: /Ogsp
;	COMDAT ??$_Umove@PAUBuffInfoStruct@@@?$vector@UBuffInfoStruct@@V?$allocator@UBuffInfoStruct@@@std@@@std@@IAEPAUBuffInfoStruct@@PAU2@00@Z
_TEXT	SEGMENT
__First$ = 8						; size = 4
__Last$ = 12						; size = 4
__Ptr$ = 16						; size = 4
??$_Umove@PAUBuffInfoStruct@@@?$vector@UBuffInfoStruct@@V?$allocator@UBuffInfoStruct@@@std@@@std@@IAEPAUBuffInfoStruct@@PAU2@00@Z PROC ; std::vector<BuffInfoStruct,std::allocator<BuffInfoStruct> >::_Umove<BuffInfoStruct *>, COMDAT
; _this$ = ecx

; 1322 : 		pointer _Umove(_Iter _First, _Iter _Last, pointer _Ptr)

  00000	55		 push	 ebp
  00001	8b ec		 mov	 ebp, esp

; 1323 : 		{	// move initializing [_First, _Last), using allocator
; 1324 : 		return (_Uninitialized_move(_First, _Last,
; 1325 : 			_Ptr, this->_Alval));

  00003	83 c1 0c	 add	 ecx, 12			; 0000000cH
  00006	51		 push	 ecx
  00007	ff 75 10	 push	 DWORD PTR __Ptr$[ebp]
  0000a	ff 75 0c	 push	 DWORD PTR __Last$[ebp]
  0000d	ff 75 08	 push	 DWORD PTR __First$[ebp]
  00010	e8 00 00 00 00	 call	 ??$_Uninitialized_move@PAUBuffInfoStruct@@PAU1@V?$allocator@UBuffInfoStruct@@@std@@@std@@YAPAUBuffInfoStruct@@PAU1@00AAV?$allocator@UBuffInfoStruct@@@0@@Z ; std::_Uninitialized_move<BuffInfoStruct *,BuffInfoStruct *,std::allocator<BuffInfoStruct> >
  00015	83 c4 10	 add	 esp, 16			; 00000010H

; 1326 : 		}

  00018	5d		 pop	 ebp
  00019	c2 0c 00	 ret	 12			; 0000000cH
??$_Umove@PAUBuffInfoStruct@@@?$vector@UBuffInfoStruct@@V?$allocator@UBuffInfoStruct@@@std@@@std@@IAEPAUBuffInfoStruct@@PAU2@00@Z ENDP ; std::vector<BuffInfoStruct,std::allocator<BuffInfoStruct> >::_Umove<BuffInfoStruct *>
_TEXT	ENDS
PUBLIC	?_Destroy@?$vector@UBuffInfoStruct@@V?$allocator@UBuffInfoStruct@@@std@@@std@@IAEXPAUBuffInfoStruct@@0@Z ; std::vector<BuffInfoStruct,std::allocator<BuffInfoStruct> >::_Destroy
; Function compile flags: /Ogsp
;	COMDAT ?_Destroy@?$vector@UBuffInfoStruct@@V?$allocator@UBuffInfoStruct@@@std@@@std@@IAEXPAUBuffInfoStruct@@0@Z
_TEXT	SEGMENT
__First$ = 8						; size = 4
__Last$ = 12						; size = 4
?_Destroy@?$vector@UBuffInfoStruct@@V?$allocator@UBuffInfoStruct@@@std@@@std@@IAEXPAUBuffInfoStruct@@0@Z PROC ; std::vector<BuffInfoStruct,std::allocator<BuffInfoStruct> >::_Destroy, COMDAT
; _this$ = ecx

; 1269 : 		{	// destroy [_First, _Last) using allocator

  00000	55		 push	 ebp
  00001	8b ec		 mov	 ebp, esp
  00003	56		 push	 esi

; 1270 : 		_Destroy_range(_First, _Last, this->_Alval);

  00004	8b 75 08	 mov	 esi, DWORD PTR __First$[ebp]
  00007	eb 0b		 jmp	 SHORT $LN26@Destroy
$LL9@Destroy:
  00009	8b ce		 mov	 ecx, esi
  0000b	ff 15 00 00 00
	00		 call	 DWORD PTR __imp_??1ioHashString@@QAE@XZ
  00011	83 c6 14	 add	 esi, 20			; 00000014H
$LN26@Destroy:
  00014	3b 75 0c	 cmp	 esi, DWORD PTR __Last$[ebp]
  00017	75 f0		 jne	 SHORT $LL9@Destroy
  00019	5e		 pop	 esi

; 1271 : 		}

  0001a	5d		 pop	 ebp
  0001b	c2 08 00	 ret	 8
?_Destroy@?$vector@UBuffInfoStruct@@V?$allocator@UBuffInfoStruct@@@std@@@std@@IAEXPAUBuffInfoStruct@@0@Z ENDP ; std::vector<BuffInfoStruct,std::allocator<BuffInfoStruct> >::_Destroy
_TEXT	ENDS
PUBLIC	?_Tidy@?$vector@UBuffInfoStruct@@V?$allocator@UBuffInfoStruct@@@std@@@std@@IAEXXZ ; std::vector<BuffInfoStruct,std::allocator<BuffInfoStruct> >::_Tidy
EXTRN	__imp_?_Orphan_all@_Container_base0@std@@QAEXXZ:PROC
; Function compile flags: /Ogsp
;	COMDAT ?_Tidy@?$vector@UBuffInfoStruct@@V?$allocator@UBuffInfoStruct@@@std@@@std@@IAEXXZ
_TEXT	SEGMENT
?_Tidy@?$vector@UBuffInfoStruct@@V?$allocator@UBuffInfoStruct@@@std@@@std@@IAEXXZ PROC ; std::vector<BuffInfoStruct,std::allocator<BuffInfoStruct> >::_Tidy, COMDAT
; _this$ = ecx

; 1301 : 		{	// free all storage

  00000	56		 push	 esi
  00001	8b f1		 mov	 esi, ecx

; 1302 : 		if (this->_Myfirst != 0)

  00003	83 3e 00	 cmp	 DWORD PTR [esi], 0
  00006	74 28		 je	 SHORT $LN27@Tidy

; 1303 : 			{	// something to free, destroy and deallocate it
; 1304 : 			this->_Orphan_all();

  00008	53		 push	 ebx
  00009	57		 push	 edi
  0000a	ff 15 00 00 00
	00		 call	 DWORD PTR __imp_?_Orphan_all@_Container_base0@std@@QAEXXZ

; 1305 : 			_Destroy(this->_Myfirst, this->_Mylast);

  00010	8b 5e 04	 mov	 ebx, DWORD PTR [esi+4]
  00013	8b 3e		 mov	 edi, DWORD PTR [esi]
  00015	eb 0b		 jmp	 SHORT $LN31@Tidy
$LL12@Tidy:
  00017	8b cf		 mov	 ecx, edi
  00019	ff 15 00 00 00
	00		 call	 DWORD PTR __imp_??1ioHashString@@QAE@XZ
  0001f	83 c7 14	 add	 edi, 20			; 00000014H
$LN31@Tidy:
  00022	3b fb		 cmp	 edi, ebx
  00024	75 f1		 jne	 SHORT $LL12@Tidy

; 1306 : 			this->_Alval.deallocate(this->_Myfirst,
; 1307 : 				this->_Myend - this->_Myfirst);

  00026	ff 36		 push	 DWORD PTR [esi]
  00028	e8 00 00 00 00	 call	 ??3@YAXPAX@Z		; operator delete
  0002d	59		 pop	 ecx
  0002e	5f		 pop	 edi
  0002f	5b		 pop	 ebx
$LN27@Tidy:

; 1308 : 			}
; 1309 : 		this->_Myfirst = 0;

  00030	33 c0		 xor	 eax, eax
  00032	89 06		 mov	 DWORD PTR [esi], eax

; 1310 : 		this->_Mylast = 0;

  00034	89 46 04	 mov	 DWORD PTR [esi+4], eax

; 1311 : 		this->_Myend = 0;

  00037	89 46 08	 mov	 DWORD PTR [esi+8], eax
  0003a	5e		 pop	 esi

; 1312 : 		}

  0003b	c3		 ret	 0
?_Tidy@?$vector@UBuffInfoStruct@@V?$allocator@UBuffInfoStruct@@@std@@@std@@IAEXXZ ENDP ; std::vector<BuffInfoStruct,std::allocator<BuffInfoStruct> >::_Tidy
_TEXT	ENDS
PUBLIC	??0?$vector@UBuffInfoStruct@@V?$allocator@UBuffInfoStruct@@@std@@@std@@QAE@ABV01@@Z ; std::vector<BuffInfoStruct,std::allocator<BuffInfoStruct> >::vector<BuffInfoStruct,std::allocator<BuffInfoStruct> >
;	COMDAT xdata$x
; File c:\program files (x86)\microsoft visual studio 10.0\vc\include\xutility
xdata$x	SEGMENT
__catchsym$??0?$vector@UBuffInfoStruct@@V?$allocator@UBuffInfoStruct@@@std@@@std@@QAE@ABV01@@Z$2 DD 040H
	DD	00H
	DD	00H
	DD	FLAT:__catch$??0?$vector@UBuffInfoStruct@@V?$allocator@UBuffInfoStruct@@@std@@@std@@QAE@ABV01@@Z$0
__unwindtable$??0?$vector@UBuffInfoStruct@@V?$allocator@UBuffInfoStruct@@@std@@@std@@QAE@ABV01@@Z DD 0ffffffffH
	DD	00H
	DD	0ffffffffH
	DD	00H
__tryblocktable$??0?$vector@UBuffInfoStruct@@V?$allocator@UBuffInfoStruct@@@std@@@std@@QAE@ABV01@@Z DD 00H
	DD	00H
	DD	01H
	DD	01H
	DD	FLAT:__catchsym$??0?$vector@UBuffInfoStruct@@V?$allocator@UBuffInfoStruct@@@std@@@std@@QAE@ABV01@@Z$2
__ehfuncinfo$??0?$vector@UBuffInfoStruct@@V?$allocator@UBuffInfoStruct@@@std@@@std@@QAE@ABV01@@Z DD 019930522H
	DD	02H
	DD	FLAT:__unwindtable$??0?$vector@UBuffInfoStruct@@V?$allocator@UBuffInfoStruct@@@std@@@std@@QAE@ABV01@@Z
	DD	01H
	DD	FLAT:__tryblocktable$??0?$vector@UBuffInfoStruct@@V?$allocator@UBuffInfoStruct@@@std@@@std@@QAE@ABV01@@Z
	DD	2 DUP(00H)
	DD	00H
	DD	01H
; Function compile flags: /Ogsp
; File c:\program files (x86)\microsoft visual studio 10.0\vc\include\vector
xdata$x	ENDS
;	COMDAT ??0?$vector@UBuffInfoStruct@@V?$allocator@UBuffInfoStruct@@@std@@@std@@QAE@ABV01@@Z
_TEXT	SEGMENT
_this$ = -20						; size = 4
__$EHRec$ = -16						; size = 16
__Cat$554950 = 8					; size = 1
__Right$ = 8						; size = 4
??0?$vector@UBuffInfoStruct@@V?$allocator@UBuffInfoStruct@@@std@@@std@@QAE@ABV01@@Z PROC ; std::vector<BuffInfoStruct,std::allocator<BuffInfoStruct> >::vector<BuffInfoStruct,std::allocator<BuffInfoStruct> >, COMDAT
; _this$ = ecx

; 535  : 		{	// construct by copying _Right

  00000	6a 08		 push	 8
  00002	b8 00 00 00 00	 mov	 eax, __ehhandler$??0?$vector@UBuffInfoStruct@@V?$allocator@UBuffInfoStruct@@@std@@@std@@QAE@ABV01@@Z
  00007	e8 00 00 00 00	 call	 __EH_prolog3_catch
  0000c	8b f1		 mov	 esi, ecx
  0000e	89 75 ec	 mov	 DWORD PTR _this$[ebp], esi

; 536  : 		if (_Buy(_Right.size()))

  00011	8b 7d 08	 mov	 edi, DWORD PTR __Right$[ebp]
  00014	33 db		 xor	 ebx, ebx
  00016	89 1e		 mov	 DWORD PTR [esi], ebx
  00018	89 5e 04	 mov	 DWORD PTR [esi+4], ebx
  0001b	89 5e 08	 mov	 DWORD PTR [esi+8], ebx
  0001e	8b 47 04	 mov	 eax, DWORD PTR [edi+4]
  00021	2b 07		 sub	 eax, DWORD PTR [edi]
  00023	6a 14		 push	 20			; 00000014H
  00025	59		 pop	 ecx
  00026	99		 cdq
  00027	f7 f9		 idiv	 ecx
  00029	8b ce		 mov	 ecx, esi
  0002b	50		 push	 eax
  0002c	e8 00 00 00 00	 call	 ?_Buy@?$vector@UBuffInfoStruct@@V?$allocator@UBuffInfoStruct@@@std@@@std@@IAE_NI@Z ; std::vector<BuffInfoStruct,std::allocator<BuffInfoStruct> >::_Buy
  00031	84 c0		 test	 al, al
  00033	74 1f		 je	 SHORT $LN7@vector

; 537  : 			_TRY_BEGIN
; 538  : 			this->_Mylast = _Ucopy(_Right.begin(), _Right.end(),
; 539  : 				this->_Myfirst);

  00035	ff 75 08	 push	 DWORD PTR __Cat$554950[ebp]
  00038	8b 0e		 mov	 ecx, DWORD PTR [esi]
  0003a	8b 47 04	 mov	 eax, DWORD PTR [edi+4]
  0003d	8b 3f		 mov	 edi, DWORD PTR [edi]
  0003f	8d 56 0c	 lea	 edx, DWORD PTR [esi+12]
  00042	52		 push	 edx
  00043	51		 push	 ecx
  00044	50		 push	 eax
  00045	57		 push	 edi
  00046	89 5d fc	 mov	 DWORD PTR __$EHRec$[ebp+12], ebx
  00049	e8 00 00 00 00	 call	 ??$_Uninit_copy@V?$_Vector_const_iterator@V?$_Vector_val@UBuffInfoStruct@@V?$allocator@UBuffInfoStruct@@@std@@@std@@@std@@PAUBuffInfoStruct@@V?$allocator@UBuffInfoStruct@@@2@@std@@YAPAUBuffInfoStruct@@V?$_Vector_const_iterator@V?$_Vector_val@UBuffInfoStruct@@V?$allocator@UBuffInfoStruct@@@std@@@std@@@0@0PAU1@AAV?$allocator@UBuffInfoStruct@@@0@U_Nonscalar_ptr_iterator_tag@0@@Z ; std::_Uninit_copy<std::_Vector_const_iterator<std::_Vector_val<BuffInfoStruct,std::allocator<BuffInfoStruct> > >,BuffInfoStruct *,std::allocator<BuffInfoStruct> >
  0004e	83 c4 14	 add	 esp, 20			; 00000014H
  00051	89 46 04	 mov	 DWORD PTR [esi+4], eax
$LN7@vector:

; 543  : 			_CATCH_END
; 544  : 		}

  00054	8b c6		 mov	 eax, esi
  00056	e8 00 00 00 00	 call	 __EH_epilog3
  0005b	c2 04 00	 ret	 4
__catch$??0?$vector@UBuffInfoStruct@@V?$allocator@UBuffInfoStruct@@@std@@@std@@QAE@ABV01@@Z$0:

; 540  : 			_CATCH_ALL
; 541  : 			_Tidy();

  0005e	8b 4d ec	 mov	 ecx, DWORD PTR _this$[ebp]
  00061	e8 00 00 00 00	 call	 ?_Tidy@?$vector@UBuffInfoStruct@@V?$allocator@UBuffInfoStruct@@@std@@@std@@IAEXXZ ; std::vector<BuffInfoStruct,std::allocator<BuffInfoStruct> >::_Tidy

; 542  : 			_RERAISE;

  00066	33 db		 xor	 ebx, ebx
  00068	53		 push	 ebx
  00069	53		 push	 ebx
  0006a	e8 00 00 00 00	 call	 __CxxThrowException@8
$LN38@vector:
$LN37@vector:
  0006f	cc		 int	 3
_TEXT	ENDS
;	COMDAT text$x
text$x	SEGMENT
__ehhandler$??0?$vector@UBuffInfoStruct@@V?$allocator@UBuffInfoStruct@@@std@@@std@@QAE@ABV01@@Z:
  00000	8b 54 24 08	 mov	 edx, DWORD PTR [esp+8]
  00004	8d 42 0c	 lea	 eax, DWORD PTR [edx+12]
  00007	8b 4a e8	 mov	 ecx, DWORD PTR [edx-24]
  0000a	33 c8		 xor	 ecx, eax
  0000c	e8 00 00 00 00	 call	 @__security_check_cookie@4
  00011	b8 00 00 00 00	 mov	 eax, OFFSET __ehfuncinfo$??0?$vector@UBuffInfoStruct@@V?$allocator@UBuffInfoStruct@@@std@@@std@@QAE@ABV01@@Z
  00016	e9 00 00 00 00	 jmp	 ___CxxFrameHandler3
text$x	ENDS
??0?$vector@UBuffInfoStruct@@V?$allocator@UBuffInfoStruct@@@std@@@std@@QAE@ABV01@@Z ENDP ; std::vector<BuffInfoStruct,std::allocator<BuffInfoStruct> >::vector<BuffInfoStruct,std::allocator<BuffInfoStruct> >
PUBLIC	?reserve@?$vector@UBuffInfoStruct@@V?$allocator@UBuffInfoStruct@@@std@@@std@@QAEXI@Z ; std::vector<BuffInfoStruct,std::allocator<BuffInfoStruct> >::reserve
;	COMDAT xdata$x
; File c:\program files (x86)\microsoft visual studio 10.0\vc\include\xmemory
xdata$x	SEGMENT
__catchsym$?reserve@?$vector@UBuffInfoStruct@@V?$allocator@UBuffInfoStruct@@@std@@@std@@QAEXI@Z$3 DD 040H
	DD	00H
	DD	00H
	DD	FLAT:__catch$?reserve@?$vector@UBuffInfoStruct@@V?$allocator@UBuffInfoStruct@@@std@@@std@@QAEXI@Z$0
__unwindtable$?reserve@?$vector@UBuffInfoStruct@@V?$allocator@UBuffInfoStruct@@@std@@@std@@QAEXI@Z DD 0ffffffffH
	DD	00H
	DD	0ffffffffH
	DD	00H
__tryblocktable$?reserve@?$vector@UBuffInfoStruct@@V?$allocator@UBuffInfoStruct@@@std@@@std@@QAEXI@Z DD 00H
	DD	00H
	DD	01H
	DD	01H
	DD	FLAT:__catchsym$?reserve@?$vector@UBuffInfoStruct@@V?$allocator@UBuffInfoStruct@@@std@@@std@@QAEXI@Z$3
__ehfuncinfo$?reserve@?$vector@UBuffInfoStruct@@V?$allocator@UBuffInfoStruct@@@std@@@std@@QAEXI@Z DD 019930522H
	DD	02H
	DD	FLAT:__unwindtable$?reserve@?$vector@UBuffInfoStruct@@V?$allocator@UBuffInfoStruct@@@std@@@std@@QAEXI@Z
	DD	01H
	DD	FLAT:__tryblocktable$?reserve@?$vector@UBuffInfoStruct@@V?$allocator@UBuffInfoStruct@@@std@@@std@@QAEXI@Z
	DD	2 DUP(00H)
	DD	00H
	DD	01H
; Function compile flags: /Ogsp
; File c:\program files (x86)\microsoft visual studio 10.0\vc\include\vector
xdata$x	ENDS
;	COMDAT ?reserve@?$vector@UBuffInfoStruct@@V?$allocator@UBuffInfoStruct@@@std@@@std@@QAEXI@Z
_TEXT	SEGMENT
__Ptr$548874 = -24					; size = 4
$T555073 = -20						; size = 4
__$EHRec$ = -16						; size = 16
__Count$ = 8						; size = 4
?reserve@?$vector@UBuffInfoStruct@@V?$allocator@UBuffInfoStruct@@@std@@@std@@QAEXI@Z PROC ; std::vector<BuffInfoStruct,std::allocator<BuffInfoStruct> >::reserve, COMDAT
; _this$ = ecx

; 746  : 		{	// determine new minimum length of allocated storage

  00000	6a 0c		 push	 12			; 0000000cH
  00002	b8 00 00 00 00	 mov	 eax, __ehhandler$?reserve@?$vector@UBuffInfoStruct@@V?$allocator@UBuffInfoStruct@@@std@@@std@@QAEXI@Z
  00007	e8 00 00 00 00	 call	 __EH_prolog3_catch
  0000c	8b f1		 mov	 esi, ecx

; 747  : 		if (max_size() < _Count)

  0000e	81 7d 08 cc cc
	cc 0c		 cmp	 DWORD PTR __Count$[ebp], 214748364 ; 0cccccccH
  00015	76 0b		 jbe	 SHORT $LN5@reserve

; 748  : 			_Xlen();	// result too long

  00017	68 00 00 00 00	 push	 OFFSET ??_C@_0BD@OLBABOEK@vector?$DMT?$DO?5too?5long?$AA@
  0001c	ff 15 00 00 00
	00		 call	 DWORD PTR __imp_?_Xlength_error@std@@YAXPBD@Z
$LN62@reserve:
$LN5@reserve:

; 749  : 		else if (capacity() < _Count)

  00022	8b 46 08	 mov	 eax, DWORD PTR [esi+8]
  00025	2b 06		 sub	 eax, DWORD PTR [esi]
  00027	6a 14		 push	 20			; 00000014H
  00029	99		 cdq
  0002a	59		 pop	 ecx
  0002b	f7 f9		 idiv	 ecx
  0002d	3b 45 08	 cmp	 eax, DWORD PTR __Count$[ebp]
  00030	0f 83 81 00 00
	00		 jae	 $LN3@reserve

; 750  : 			{	// not enough room, reallocate
; 751  : 			pointer _Ptr = this->_Alval.allocate(_Count);

  00036	6a 00		 push	 0
  00038	ff 75 08	 push	 DWORD PTR __Count$[ebp]
  0003b	e8 00 00 00 00	 call	 ??$_Allocate@UBuffInfoStruct@@@std@@YAPAUBuffInfoStruct@@IPAU1@@Z ; std::_Allocate<BuffInfoStruct>

; 752  : 
; 753  : 			_TRY_BEGIN
; 754  : 			_Umove(this->_Myfirst, this->_Mylast, _Ptr);

  00040	8b 0e		 mov	 ecx, DWORD PTR [esi]
  00042	83 65 fc 00	 and	 DWORD PTR __$EHRec$[ebp+12], 0
  00046	8d 56 0c	 lea	 edx, DWORD PTR [esi+12]
  00049	52		 push	 edx
  0004a	89 45 e8	 mov	 DWORD PTR __Ptr$548874[ebp], eax
  0004d	ff 75 e8	 push	 DWORD PTR __Ptr$548874[ebp]
  00050	8b 46 04	 mov	 eax, DWORD PTR [esi+4]
  00053	50		 push	 eax
  00054	51		 push	 ecx
  00055	e8 00 00 00 00	 call	 ??$_Uninitialized_move@PAUBuffInfoStruct@@PAU1@V?$allocator@UBuffInfoStruct@@@std@@@std@@YAPAUBuffInfoStruct@@PAU1@00AAV?$allocator@UBuffInfoStruct@@@0@@Z ; std::_Uninitialized_move<BuffInfoStruct *,BuffInfoStruct *,std::allocator<BuffInfoStruct> >

; 758  : 			_CATCH_END
; 759  : 
; 760  : 			size_type _Size = size();

  0005a	8b 5e 04	 mov	 ebx, DWORD PTR [esi+4]
  0005d	8b 0e		 mov	 ecx, DWORD PTR [esi]
  0005f	83 c4 18	 add	 esp, 24			; 00000018H
  00062	8b c3		 mov	 eax, ebx
  00064	2b c1		 sub	 eax, ecx
  00066	6a 14		 push	 20			; 00000014H
  00068	99		 cdq
  00069	5f		 pop	 edi
  0006a	f7 ff		 idiv	 edi
  0006c	83 4d fc ff	 or	 DWORD PTR __$EHRec$[ebp+12], -1
  00070	8b f8		 mov	 edi, eax
  00072	85 c9		 test	 ecx, ecx
  00074	74 21		 je	 SHORT $LN54@reserve

; 761  : 			if (this->_Myfirst != 0)
; 762  : 				{	// destroy and deallocate old array
; 763  : 				_Destroy(this->_Myfirst, this->_Mylast);

  00076	89 4d ec	 mov	 DWORD PTR $T555073[ebp], ecx
  00079	3b cb		 cmp	 ecx, ebx
  0007b	74 12		 je	 SHORT $LN37@reserve
$LN39@reserve:
  0007d	8b 4d ec	 mov	 ecx, DWORD PTR $T555073[ebp]
  00080	ff 15 00 00 00
	00		 call	 DWORD PTR __imp_??1ioHashString@@QAE@XZ
  00086	83 45 ec 14	 add	 DWORD PTR $T555073[ebp], 20 ; 00000014H
  0008a	39 5d ec	 cmp	 DWORD PTR $T555073[ebp], ebx
  0008d	75 ee		 jne	 SHORT $LN39@reserve
$LN37@reserve:

; 764  : 				this->_Alval.deallocate(this->_Myfirst,
; 765  : 					this->_Myend - this->_Myfirst);

  0008f	ff 36		 push	 DWORD PTR [esi]
  00091	e8 00 00 00 00	 call	 ??3@YAXPAX@Z		; operator delete
  00096	59		 pop	 ecx
$LN54@reserve:

; 766  : 				}
; 767  : 
; 768  : 			this->_Orphan_all();

  00097	8b ce		 mov	 ecx, esi
  00099	ff 15 00 00 00
	00		 call	 DWORD PTR __imp_?_Orphan_all@_Container_base0@std@@QAEXXZ

; 769  : 			this->_Myend = _Ptr + _Count;
; 770  : 			this->_Mylast = _Ptr + _Size;

  0009f	6b ff 14	 imul	 edi, 20			; 00000014H
  000a2	8b 45 08	 mov	 eax, DWORD PTR __Count$[ebp]
  000a5	8b 4d e8	 mov	 ecx, DWORD PTR __Ptr$548874[ebp]
  000a8	6b c0 14	 imul	 eax, 20			; 00000014H
  000ab	03 c1		 add	 eax, ecx
  000ad	03 f9		 add	 edi, ecx
  000af	89 46 08	 mov	 DWORD PTR [esi+8], eax
  000b2	89 7e 04	 mov	 DWORD PTR [esi+4], edi

; 771  : 			this->_Myfirst = _Ptr;

  000b5	89 0e		 mov	 DWORD PTR [esi], ecx
$LN3@reserve:

; 772  : 			}
; 773  : 		}

  000b7	e8 00 00 00 00	 call	 __EH_epilog3
  000bc	c2 04 00	 ret	 4
__catch$?reserve@?$vector@UBuffInfoStruct@@V?$allocator@UBuffInfoStruct@@@std@@@std@@QAEXI@Z$0:

; 755  : 			_CATCH_ALL
; 756  : 			this->_Alval.deallocate(_Ptr, _Count);

  000bf	ff 75 e8	 push	 DWORD PTR __Ptr$548874[ebp]
  000c2	e8 00 00 00 00	 call	 ??3@YAXPAX@Z		; operator delete
  000c7	59		 pop	 ecx

; 757  : 			_RERAISE;

  000c8	6a 00		 push	 0
  000ca	6a 00		 push	 0
  000cc	e8 00 00 00 00	 call	 __CxxThrowException@8
$LN63@reserve:
$LN61@reserve:
  000d1	cc		 int	 3
_TEXT	ENDS
;	COMDAT text$x
text$x	SEGMENT
__ehhandler$?reserve@?$vector@UBuffInfoStruct@@V?$allocator@UBuffInfoStruct@@@std@@@std@@QAEXI@Z:
  00000	8b 54 24 08	 mov	 edx, DWORD PTR [esp+8]
  00004	8d 42 0c	 lea	 eax, DWORD PTR [edx+12]
  00007	8b 4a e4	 mov	 ecx, DWORD PTR [edx-28]
  0000a	33 c8		 xor	 ecx, eax
  0000c	e8 00 00 00 00	 call	 @__security_check_cookie@4
  00011	b8 00 00 00 00	 mov	 eax, OFFSET __ehfuncinfo$?reserve@?$vector@UBuffInfoStruct@@V?$allocator@UBuffInfoStruct@@@std@@@std@@QAEXI@Z
  00016	e9 00 00 00 00	 jmp	 ___CxxFrameHandler3
text$x	ENDS
?reserve@?$vector@UBuffInfoStruct@@V?$allocator@UBuffInfoStruct@@@std@@@std@@QAEXI@Z ENDP ; std::vector<BuffInfoStruct,std::allocator<BuffInfoStruct> >::reserve
PUBLIC	?_Reserve@?$vector@UBuffInfoStruct@@V?$allocator@UBuffInfoStruct@@@std@@@std@@IAEXI@Z ; std::vector<BuffInfoStruct,std::allocator<BuffInfoStruct> >::_Reserve
; Function compile flags: /Ogsp
;	COMDAT ?_Reserve@?$vector@UBuffInfoStruct@@V?$allocator@UBuffInfoStruct@@@std@@@std@@IAEXI@Z
_TEXT	SEGMENT
__Count$ = 8						; size = 4
?_Reserve@?$vector@UBuffInfoStruct@@V?$allocator@UBuffInfoStruct@@@std@@@std@@IAEXI@Z PROC ; std::vector<BuffInfoStruct,std::allocator<BuffInfoStruct> >::_Reserve, COMDAT
; _this$ = ecx

; 1290 : 		{	// ensure room for _Count new elements, grow exponentially

  00000	55		 push	 ebp
  00001	8b ec		 mov	 ebp, esp
  00003	56		 push	 esi
  00004	8b f1		 mov	 esi, ecx

; 1291 : 		size_type _Size = size();

  00006	8b 0e		 mov	 ecx, DWORD PTR [esi]
  00008	8b 46 04	 mov	 eax, DWORD PTR [esi+4]
  0000b	2b c1		 sub	 eax, ecx
  0000d	57		 push	 edi
  0000e	99		 cdq
  0000f	6a 14		 push	 20			; 00000014H
  00011	5f		 pop	 edi
  00012	f7 ff		 idiv	 edi
  00014	8b f8		 mov	 edi, eax

; 1292 : 		if (max_size() - _Count < _Size)

  00016	b8 cc cc cc 0c	 mov	 eax, 214748364		; 0cccccccH
  0001b	2b 45 08	 sub	 eax, DWORD PTR __Count$[ebp]
  0001e	3b c7		 cmp	 eax, edi
  00020	73 0b		 jae	 SHORT $LN4@Reserve

; 1293 : 			_Xlen();

  00022	68 00 00 00 00	 push	 OFFSET ??_C@_0BD@OLBABOEK@vector?$DMT?$DO?5too?5long?$AA@
  00027	ff 15 00 00 00
	00		 call	 DWORD PTR __imp_?_Xlength_error@std@@YAXPBD@Z
$LN21@Reserve:
$LN4@Reserve:

; 1294 : 		else if ((_Size += _Count) <= capacity())

  0002d	8b 46 08	 mov	 eax, DWORD PTR [esi+8]
  00030	2b c1		 sub	 eax, ecx
  00032	6a 14		 push	 20			; 00000014H
  00034	99		 cdq
  00035	59		 pop	 ecx
  00036	f7 f9		 idiv	 ecx
  00038	03 7d 08	 add	 edi, DWORD PTR __Count$[ebp]
  0003b	3b f8		 cmp	 edi, eax
  0003d	76 10		 jbe	 SHORT $LN1@Reserve

; 1295 : 			;
; 1296 : 		else
; 1297 : 			reserve(_Grow_to(_Size));

  0003f	57		 push	 edi
  00040	8b ce		 mov	 ecx, esi
  00042	e8 00 00 00 00	 call	 ?_Grow_to@?$vector@UBuffInfoStruct@@V?$allocator@UBuffInfoStruct@@@std@@@std@@IBEII@Z ; std::vector<BuffInfoStruct,std::allocator<BuffInfoStruct> >::_Grow_to
  00047	50		 push	 eax
  00048	8b ce		 mov	 ecx, esi
  0004a	e8 00 00 00 00	 call	 ?reserve@?$vector@UBuffInfoStruct@@V?$allocator@UBuffInfoStruct@@@std@@@std@@QAEXI@Z ; std::vector<BuffInfoStruct,std::allocator<BuffInfoStruct> >::reserve
$LN1@Reserve:
  0004f	5f		 pop	 edi
  00050	5e		 pop	 esi

; 1298 : 		}

  00051	5d		 pop	 ebp
  00052	c2 04 00	 ret	 4
$LN20@Reserve:
?_Reserve@?$vector@UBuffInfoStruct@@V?$allocator@UBuffInfoStruct@@@std@@@std@@IAEXI@Z ENDP ; std::vector<BuffInfoStruct,std::allocator<BuffInfoStruct> >::_Reserve
_TEXT	ENDS
PUBLIC	??1?$vector@UBuffInfoStruct@@V?$allocator@UBuffInfoStruct@@@std@@@std@@QAE@XZ ; std::vector<BuffInfoStruct,std::allocator<BuffInfoStruct> >::~vector<BuffInfoStruct,std::allocator<BuffInfoStruct> >
; Function compile flags: /Ogsp
;	COMDAT ??1?$vector@UBuffInfoStruct@@V?$allocator@UBuffInfoStruct@@@std@@@std@@QAE@XZ
_TEXT	SEGMENT
??1?$vector@UBuffInfoStruct@@V?$allocator@UBuffInfoStruct@@@std@@@std@@QAE@XZ PROC ; std::vector<BuffInfoStruct,std::allocator<BuffInfoStruct> >::~vector<BuffInfoStruct,std::allocator<BuffInfoStruct> >, COMDAT
; _this$ = ecx

; 705  : 		_Tidy();

  00000	e9 00 00 00 00	 jmp	 ?_Tidy@?$vector@UBuffInfoStruct@@V?$allocator@UBuffInfoStruct@@@std@@@std@@IAEXXZ ; std::vector<BuffInfoStruct,std::allocator<BuffInfoStruct> >::_Tidy
??1?$vector@UBuffInfoStruct@@V?$allocator@UBuffInfoStruct@@@std@@@std@@QAE@XZ ENDP ; std::vector<BuffInfoStruct,std::allocator<BuffInfoStruct> >::~vector<BuffInfoStruct,std::allocator<BuffInfoStruct> >
_TEXT	ENDS
PUBLIC	?erase@?$vector@UBuffInfoStruct@@V?$allocator@UBuffInfoStruct@@@std@@@std@@QAE?AV?$_Vector_iterator@V?$_Vector_val@UBuffInfoStruct@@V?$allocator@UBuffInfoStruct@@@std@@@std@@@2@V?$_Vector_const_iterator@V?$_Vector_val@UBuffInfoStruct@@V?$allocator@UBuffInfoStruct@@@std@@@std@@@2@0@Z ; std::vector<BuffInfoStruct,std::allocator<BuffInfoStruct> >::erase
; Function compile flags: /Ogsp
;	COMDAT ?erase@?$vector@UBuffInfoStruct@@V?$allocator@UBuffInfoStruct@@@std@@@std@@QAE?AV?$_Vector_iterator@V?$_Vector_val@UBuffInfoStruct@@V?$allocator@UBuffInfoStruct@@@std@@@std@@@2@V?$_Vector_const_iterator@V?$_Vector_val@UBuffInfoStruct@@V?$allocator@UBuffInfoStruct@@@std@@@std@@@2@0@Z
_TEXT	SEGMENT
$T555323 = -4						; size = 4
___$ReturnUdt$ = 8					; size = 4
__First_arg$ = 12					; size = 4
__Cat$555254 = 16					; size = 1
__Last_arg$ = 16					; size = 4
?erase@?$vector@UBuffInfoStruct@@V?$allocator@UBuffInfoStruct@@@std@@@std@@QAE?AV?$_Vector_iterator@V?$_Vector_val@UBuffInfoStruct@@V?$allocator@UBuffInfoStruct@@@std@@@std@@@2@V?$_Vector_const_iterator@V?$_Vector_val@UBuffInfoStruct@@V?$allocator@UBuffInfoStruct@@@std@@@std@@@2@0@Z PROC ; std::vector<BuffInfoStruct,std::allocator<BuffInfoStruct> >::erase, COMDAT
; _this$ = ecx

; 1190 : 		{	// erase [_First, _Last)

  00000	55		 push	 ebp
  00001	8b ec		 mov	 ebp, esp
  00003	51		 push	 ecx

; 1191 : 		iterator _First = _Make_iter(_First_arg);

  00004	8b 45 08	 mov	 eax, DWORD PTR ___$ReturnUdt$[ebp]
  00007	56		 push	 esi
  00008	8b f1		 mov	 esi, ecx
  0000a	8b 4d 0c	 mov	 ecx, DWORD PTR __First_arg$[ebp]
  0000d	89 08		 mov	 DWORD PTR [eax], ecx

; 1192 : 		iterator _Last = _Make_iter(_Last_arg);
; 1193 : 
; 1194 : 		if (_First != _Last)

  0000f	3b 4d 10	 cmp	 ecx, DWORD PTR __Last_arg$[ebp]
  00012	74 38		 je	 SHORT $LN1@erase

; 1195 : 			{	// worth doing, copy down over hole
; 1196 :  #if _ITERATOR_DEBUG_LEVEL == 2
; 1197 : 			if (_Last < _First || _VICONT(_First) != this
; 1198 : 				|| _VIPTR(_First) < this->_Myfirst
; 1199 : 				|| this->_Mylast < _VIPTR(_Last))
; 1200 : 				_DEBUG_ERROR("vector erase iterator outside range");
; 1201 : 			pointer _Ptr = _Move(_VIPTR(_Last), this->_Mylast,
; 1202 : 				_VIPTR(_First));
; 1203 : 			_Orphan_range(_VIPTR(_First), this->_Mylast);
; 1204 : 
; 1205 :  #else /* _ITERATOR_DEBUG_LEVEL == 2 */
; 1206 : 			pointer _Ptr = _Move(_VIPTR(_Last), this->_Mylast,
; 1207 : 				_VIPTR(_First));

  00014	8b 46 04	 mov	 eax, DWORD PTR [esi+4]
  00017	53		 push	 ebx
  00018	57		 push	 edi
  00019	ff 75 10	 push	 DWORD PTR __Cat$555254[ebp]
  0001c	51		 push	 ecx
  0001d	50		 push	 eax
  0001e	ff 75 10	 push	 DWORD PTR __Last_arg$[ebp]
  00021	e8 00 00 00 00	 call	 ??$_Move@PAUBuffInfoStruct@@PAU1@@std@@YAPAUBuffInfoStruct@@PAU1@00U_Nonscalar_ptr_iterator_tag@0@@Z ; std::_Move<BuffInfoStruct *,BuffInfoStruct *>

; 1208 :  #endif /* _ITERATOR_DEBUG_LEVEL == 2 */
; 1209 : 
; 1210 : 			_Destroy(_Ptr, this->_Mylast);

  00026	8b 7e 04	 mov	 edi, DWORD PTR [esi+4]
  00029	8b d8		 mov	 ebx, eax
  0002b	83 c4 10	 add	 esp, 16			; 00000010H
  0002e	89 5d fc	 mov	 DWORD PTR $T555323[ebp], ebx
  00031	3b df		 cmp	 ebx, edi
  00033	74 12		 je	 SHORT $LN36@erase
$LL55@erase:
  00035	8b 4d fc	 mov	 ecx, DWORD PTR $T555323[ebp]
  00038	ff 15 00 00 00
	00		 call	 DWORD PTR __imp_??1ioHashString@@QAE@XZ
  0003e	83 45 fc 14	 add	 DWORD PTR $T555323[ebp], 20 ; 00000014H
  00042	39 7d fc	 cmp	 DWORD PTR $T555323[ebp], edi
  00045	75 ee		 jne	 SHORT $LL55@erase
$LN36@erase:

; 1211 : 			this->_Mylast = _Ptr;

  00047	5f		 pop	 edi
  00048	89 5e 04	 mov	 DWORD PTR [esi+4], ebx
  0004b	5b		 pop	 ebx
$LN1@erase:

; 1212 : 			}
; 1213 : 		return (_First);

  0004c	8b 45 08	 mov	 eax, DWORD PTR ___$ReturnUdt$[ebp]
  0004f	5e		 pop	 esi

; 1214 : 		}

  00050	c9		 leave
  00051	c2 0c 00	 ret	 12			; 0000000cH
?erase@?$vector@UBuffInfoStruct@@V?$allocator@UBuffInfoStruct@@@std@@@std@@QAE?AV?$_Vector_iterator@V?$_Vector_val@UBuffInfoStruct@@V?$allocator@UBuffInfoStruct@@@std@@@std@@@2@V?$_Vector_const_iterator@V?$_Vector_val@UBuffInfoStruct@@V?$allocator@UBuffInfoStruct@@@std@@@std@@@2@0@Z ENDP ; std::vector<BuffInfoStruct,std::allocator<BuffInfoStruct> >::erase
_TEXT	ENDS
PUBLIC	??_7ioLightAttack@@6B@				; ioLightAttack::`vftable'
PUBLIC	??0ioLightAttack@@QAE@XZ			; ioLightAttack::ioLightAttack
PUBLIC	??_R4ioLightAttack@@6B@				; ioLightAttack::`RTTI Complete Object Locator'
PUBLIC	??_R0?AVioLightAttack@@@8			; ioLightAttack `RTTI Type Descriptor'
PUBLIC	??_R3ioLightAttack@@8				; ioLightAttack::`RTTI Class Hierarchy Descriptor'
PUBLIC	??_R2ioLightAttack@@8				; ioLightAttack::`RTTI Base Class Array'
PUBLIC	??_R1A@?0A@EA@ioLightAttack@@8			; ioLightAttack::`RTTI Base Class Descriptor at (0,-1,0,64)'
PUBLIC	??_R1A@?0A@EA@ioAttackSkill@@8			; ioAttackSkill::`RTTI Base Class Descriptor at (0,-1,0,64)'
PUBLIC	??_R0?AVioAttackSkill@@@8			; ioAttackSkill `RTTI Type Descriptor'
PUBLIC	??_R3ioAttackSkill@@8				; ioAttackSkill::`RTTI Class Hierarchy Descriptor'
PUBLIC	??_R2ioAttackSkill@@8				; ioAttackSkill::`RTTI Base Class Array'
PUBLIC	??_R1A@?0A@EA@ioSkill@@8			; ioSkill::`RTTI Base Class Descriptor at (0,-1,0,64)'
PUBLIC	??_R0?AVioSkill@@@8				; ioSkill `RTTI Type Descriptor'
PUBLIC	??_R3ioSkill@@8					; ioSkill::`RTTI Class Hierarchy Descriptor'
PUBLIC	??_R2ioSkill@@8					; ioSkill::`RTTI Base Class Array'
PUBLIC	?LoadProperty@ioLightAttack@@UAEXAAVioINILoader@@@Z ; ioLightAttack::LoadProperty
PUBLIC	?Clone@ioLightAttack@@UAEPAVioSkill@@XZ		; ioLightAttack::Clone
PUBLIC	?GetDefenseSkillBreakeType@ioSkill@@UBE?AW4DefenseBreakType@@XZ ; ioSkill::GetDefenseSkillBreakeType
PUBLIC	?GetSkillEndNextJumpAmt@ioSkill@@UBEMXZ		; ioSkill::GetSkillEndNextJumpAmt
PUBLIC	?GetSkillEndNextLandRate@ioSkill@@UBEMXZ	; ioSkill::GetSkillEndNextLandRate
PUBLIC	?GetSkillEndNextJumpMustEnable@ioSkill@@UAE?AW4SkillEndJumpType@@XZ ; ioSkill::GetSkillEndNextJumpMustEnable
PUBLIC	?EnableChangeGrapplingTargetPos@ioSkill@@UBE_NXZ ; ioSkill::EnableChangeGrapplingTargetPos
PUBLIC	?IsInvisibleBottomCircle@ioSkill@@UAE_NPAVioBaseChar@@@Z ; ioSkill::IsInvisibleBottomCircle
PUBLIC	?IsCanJumpingSkill@ioSkill@@UBE_NXZ		; ioSkill::IsCanJumpingSkill
PUBLIC	?IsCanJumpingSkillOnBlowWound@ioSkill@@UBE_NXZ	; ioSkill::IsCanJumpingSkillOnBlowWound
PUBLIC	?IsCanDownSkill@ioSkill@@UBE_NXZ		; ioSkill::IsCanDownSkill
PUBLIC	?IsCanBlowWoundSkill@ioSkill@@UBE_NXZ		; ioSkill::IsCanBlowWoundSkill
PUBLIC	?IsCanWoundSkill@ioSkill@@UBE_NXZ		; ioSkill::IsCanWoundSkill
PUBLIC	?IsUseActiveCnt@ioSkill@@UBE_NXZ		; ioSkill::IsUseActiveCnt
PUBLIC	?GetMaxActiveCnt@ioSkill@@UBEHPAVioBaseChar@@@Z	; ioSkill::GetMaxActiveCnt
PUBLIC	?GetCurActiveCnt@ioSkill@@UBEHPAVioBaseChar@@@Z	; ioSkill::GetCurActiveCnt
EXTRN	??1ioAttackSkill@@UAE@XZ:PROC			; ioAttackSkill::~ioAttackSkill
EXTRN	??0ioAttackSkill@@QAE@XZ:PROC			; ioAttackSkill::ioAttackSkill
EXTRN	?GetTypeID@ioAttackSkill@@UBEHXZ:PROC		; ioAttackSkill::GetTypeID
EXTRN	?IsProtected@ioSkill@@UBE_NH@Z:PROC		; ioSkill::IsProtected
EXTRN	?IsCanSwitchSkill@ioSkill@@UBE_NXZ:PROC		; ioSkill::IsCanSwitchSkill
EXTRN	?IsCanSemiSwitchSkill@ioSkill@@UBE_NXZ:PROC	; ioSkill::IsCanSemiSwitchSkill
EXTRN	?IsCanCancelBySkill@ioSkill@@UBE_NPAVioBaseChar@@AAH@Z:PROC ; ioSkill::IsCanCancelBySkill
EXTRN	?IsCanUseZeroHP@ioSkill@@UBE_NPAVioBaseChar@@@Z:PROC ; ioSkill::IsCanUseZeroHP
EXTRN	?IsCanUseSkillWithCrown@ioSkill@@UAE_NPAVioBaseChar@@@Z:PROC ; ioSkill::IsCanUseSkillWithCrown
EXTRN	?IsCanUseBoss@ioSkill@@UBE_NPAVioBaseChar@@@Z:PROC ; ioSkill::IsCanUseBoss
EXTRN	?IsCanUseFootball@ioSkill@@UBE_NXZ:PROC		; ioSkill::IsCanUseFootball
EXTRN	?IsCanUseGangSiMode@ioSkill@@UBE_NXZ:PROC	; ioSkill::IsCanUseGangSiMode
EXTRN	?IsCanUseByWeaponType@ioSkill@@UBE_NPAVioBaseChar@@@Z:PROC ; ioSkill::IsCanUseByWeaponType
EXTRN	?IsCanUseThunderBirdHold@ioSkill@@UBE_NPAVioBaseChar@@@Z:PROC ; ioSkill::IsCanUseThunderBirdHold
EXTRN	?IsCanUseLimitHP@ioSkill@@UBE_NPAVioBaseChar@@@Z:PROC ; ioSkill::IsCanUseLimitHP
EXTRN	?IsCanUseSkill@ioAttackSkill@@UAE_NPAVioBaseChar@@_N@Z:PROC ; ioAttackSkill::IsCanUseSkill
EXTRN	?IsOnOffEnable@ioSkill@@UAE_NXZ:PROC		; ioSkill::IsOnOffEnable
EXTRN	?IsCanDefenseStateSkill@ioSkill@@UAE_NXZ:PROC	; ioSkill::IsCanDefenseStateSkill
EXTRN	?SetDefenseStateSkill@ioSkill@@UAEXPAVioBaseChar@@@Z:PROC ; ioSkill::SetDefenseStateSkill
EXTRN	?GetBuffType@ioSkill@@UAEHH@Z:PROC		; ioSkill::GetBuffType
EXTRN	?IsEnableReserve@ioSkill@@UBE_NXZ:PROC		; ioSkill::IsEnableReserve
EXTRN	?IsCharSkipState@ioSkill@@UBE?AW4SkillCharColType@@XZ:PROC ; ioSkill::IsCharSkipState
EXTRN	?IsEntityCollisionSkipState@ioSkill@@UBE_NXZ:PROC ; ioSkill::IsEntityCollisionSkipState
EXTRN	?IsJumpState@ioSkill@@UBE_NXZ:PROC		; ioSkill::IsJumpState
EXTRN	?IsDownState@ioSkill@@UBE_NXZ:PROC		; ioSkill::IsDownState
EXTRN	?IsCanSendControl@ioSkill@@UBE_NXZ:PROC		; ioSkill::IsCanSendControl
EXTRN	?IsSkipState@ioSkill@@UBE_NXZ:PROC		; ioSkill::IsSkipState
EXTRN	?GetSkillMoveRate@ioSkill@@UBEMXZ:PROC		; ioSkill::GetSkillMoveRate
EXTRN	?SetSkillGrapplingState@ioSkill@@UAE_NPAVioBaseChar@@ABVioHashString@@@Z:PROC ; ioSkill::SetSkillGrapplingState
EXTRN	?GetGrapplingTargetPos@ioSkill@@UAE?AUD3DXVECTOR3@@PAVioBaseChar@@0@Z:PROC ; ioSkill::GetGrapplingTargetPos
EXTRN	?GetGrapplingTargetPos@ioSkill@@UAE?AUD3DXVECTOR3@@PAVioBaseChar@@@Z:PROC ; ioSkill::GetGrapplingTargetPos
EXTRN	?GetSkillWoundGrapplingInfo@ioSkill@@UAE?AUGrapplingSkillWoundedInfo@@XZ:PROC ; ioSkill::GetSkillWoundGrapplingInfo
EXTRN	?SetCreateWeaponDependency@ioSkill@@UAEXPAVioBaseChar@@PAVioPlayStage@@@Z:PROC ; ioSkill::SetCreateWeaponDependency
EXTRN	?SetNextSkillState@ioSkill@@UAEXPAVioBaseChar@@PAVioWeapon@@@Z:PROC ; ioSkill::SetNextSkillState
EXTRN	?OnSkillEndByWounded@ioSkill@@UAEXPAVioBaseChar@@@Z:PROC ; ioSkill::OnSkillEndByWounded
EXTRN	?OnProcessNotUseSkill@ioSkill@@UAEXPAVioBaseChar@@PAVioPlayStage@@@Z:PROC ; ioSkill::OnProcessNotUseSkill
EXTRN	?OnSkillItemRelease@ioSkill@@UAEXPAVioBaseChar@@@Z:PROC ; ioSkill::OnSkillItemRelease
EXTRN	?ApplyAttributeToWeapon@ioSkill@@UAEXPAVioWeapon@@PAVioPlayStage@@@Z:PROC ; ioSkill::ApplyAttributeToWeapon
EXTRN	?ApplyEquipSlotSkillExtraInfo@ioSkill@@UAEXPAVioBaseChar@@PAVioPlayStage@@AAVSP2Packet@@@Z:PROC ; ioSkill::ApplyEquipSlotSkillExtraInfo
EXTRN	?ApplyExtraPassiveSkillInfo@ioSkill@@UAEXPAVioBaseChar@@PAVioPlayStage@@AAVSP2Packet@@@Z:PROC ; ioSkill::ApplyExtraPassiveSkillInfo
EXTRN	?StartPreDelayEffect@ioAttackSkill@@UAEXPAVioBaseChar@@@Z:PROC ; ioAttackSkill::StartPreDelayEffect
EXTRN	?EndPreDelayEffect@ioAttackSkill@@UAEXPAVioBaseChar@@@Z:PROC ; ioAttackSkill::EndPreDelayEffect
EXTRN	?IsUseAutoTargetValue@ioAttackSkill@@UAE_NXZ:PROC ; ioAttackSkill::IsUseAutoTargetValue
EXTRN	?IsAutoTargetDownState@ioSkill@@UAE_NXZ:PROC	; ioSkill::IsAutoTargetDownState
EXTRN	?CheckUseItemMesh@ioSkill@@UAE_NXZ:PROC		; ioSkill::CheckUseItemMesh
EXTRN	?CheckUseActiveCount@ioSkill@@UAE_NXZ:PROC	; ioSkill::CheckUseActiveCount
EXTRN	?CheckAniRotate@ioSkill@@UAEXPAVioBaseChar@@@Z:PROC ; ioSkill::CheckAniRotate
EXTRN	?IsEnableDashCheck@ioSkill@@UAE_NPAVioBaseChar@@@Z:PROC ; ioSkill::IsEnableDashCheck
EXTRN	?IsEnableMultiActive@ioSkill@@UAE_NPAVioBaseChar@@@Z:PROC ; ioSkill::IsEnableMultiActive
EXTRN	?GetAutoTargetValue@ioSkill@@UAEXAAM00@Z:PROC	; ioSkill::GetAutoTargetValue
EXTRN	?GetSkillGravityRate@ioSkill@@UAEMXZ:PROC	; ioSkill::GetSkillGravityRate
EXTRN	?GetSkillMotionName@ioSkill@@UBEABVioHashString@@XZ:PROC ; ioSkill::GetSkillMotionName
EXTRN	?HasSkillMotion@ioSkill@@UBE_NXZ:PROC		; ioSkill::HasSkillMotion
EXTRN	?GetSkillMotionRate@ioSkill@@UBEMXZ:PROC	; ioSkill::GetSkillMotionRate
EXTRN	?IsPreDelayProtect@ioSkill@@UBE_NXZ:PROC	; ioSkill::IsPreDelayProtect
EXTRN	?GetPreDelayAniName@ioSkill@@UBEABVioHashString@@XZ:PROC ; ioSkill::GetPreDelayAniName
EXTRN	?GetPreDelayTime@ioSkill@@UBEKXZ:PROC		; ioSkill::GetPreDelayTime
EXTRN	?GetPreDelayOwnerEffect@ioSkill@@UBEABVioHashString@@XZ:PROC ; ioSkill::GetPreDelayOwnerEffect
EXTRN	?GetPreDelayOtherEffect@ioSkill@@UBEABVioHashString@@XZ:PROC ; ioSkill::GetPreDelayOtherEffect
EXTRN	?SetCancelSkill@ioSkill@@UAEXPAVioBaseChar@@@Z:PROC ; ioSkill::SetCancelSkill
EXTRN	?ClearAirJump@ioSkill@@MAEXXZ:PROC		; ioSkill::ClearAirJump
EXTRN	?SetAirJump@ioSkill@@MAEXPAVioBaseChar@@HM@Z:PROC ; ioSkill::SetAirJump
EXTRN	?CheckAirJump@ioSkill@@MAEXPAVioBaseChar@@@Z:PROC ; ioSkill::CheckAirJump
EXTRN	?UseActiveCount@ioSkill@@UAE_NPAVioBaseChar@@@Z:PROC ; ioSkill::UseActiveCount
EXTRN	?GetMaxActiveCount@ioSkill@@UAEHPAVioBaseChar@@@Z:PROC ; ioSkill::GetMaxActiveCount
EXTRN	?GetCurActiveCount@ioSkill@@UAEHPAVioBaseChar@@@Z:PROC ; ioSkill::GetCurActiveCount
EXTRN	?HideHPGauge@ioSkill@@UAE_NXZ:PROC		; ioSkill::HideHPGauge
EXTRN	?SetInfoByApplyWeapon@ioSkill@@UAEXPAVioBaseChar@@0K_N@Z:PROC ; ioSkill::SetInfoByApplyWeapon
EXTRN	?SetCollisionByApplySkill@ioSkill@@UAEXXZ:PROC	; ioSkill::SetCollisionByApplySkill
EXTRN	?SetChargingRateForWeapon@ioSkill@@UAEXPAVioWeapon@@@Z:PROC ; ioSkill::SetChargingRateForWeapon
EXTRN	?CheckExceptionCamera@ioSkill@@UAE_NXZ:PROC	; ioSkill::CheckExceptionCamera
EXTRN	?GetExceptionCameraPos@ioSkill@@UAE?AUD3DXVECTOR3@@PAVioBaseChar@@@Z:PROC ; ioSkill::GetExceptionCameraPos
EXTRN	?IsFixedExceptionCamera@ioSkill@@UAE_NXZ:PROC	; ioSkill::IsFixedExceptionCamera
EXTRN	??_EioLightAttack@@UAEPAXI@Z:PROC		; ioLightAttack::`vector deleting destructor'
EXTRN	?StartPreDelayAnimation@ioAttackSkill@@MAE_NPAVioBaseChar@@@Z:PROC ; ioAttackSkill::StartPreDelayAnimation
EXTRN	?GetAttackTimeRate@ioAttackSkill@@MBEMXZ:PROC	; ioAttackSkill::GetAttackTimeRate
EXTRN	?GetAttackEndTimeRate@ioAttackSkill@@MBEMXZ:PROC ; ioAttackSkill::GetAttackEndTimeRate
EXTRN	?LoadNormalAttribute@ioAttackSkill@@MAEXAAVioINILoader@@@Z:PROC ; ioAttackSkill::LoadNormalAttribute
EXTRN	?LoadDownAttribute@ioAttackSkill@@MAEXAAVioINILoader@@@Z:PROC ; ioAttackSkill::LoadDownAttribute
EXTRN	?LoadJumpAttribute@ioAttackSkill@@MAEXAAVioINILoader@@@Z:PROC ; ioAttackSkill::LoadJumpAttribute
EXTRN	?GetAttribute@ioAttackSkill@@UAEAAUAttackAttribute@@XZ:PROC ; ioAttackSkill::GetAttribute
EXTRN	?GetAttributeConst@ioAttackSkill@@UBEABUAttackAttribute@@XZ:PROC ; ioAttackSkill::GetAttributeConst
EXTRN	?IsCanStateEscape@ioAttackSkill@@UBE_NXZ:PROC	; ioAttackSkill::IsCanStateEscape
EXTRN	?IsCanStateEscapeOnStand@ioAttackSkill@@UBE_NPAVioBaseChar@@@Z:PROC ; ioAttackSkill::IsCanStateEscapeOnStand
EXTRN	?IsCanStateEscapeOnAir@ioAttackSkill@@UBE_NPAVioBaseChar@@@Z:PROC ; ioAttackSkill::IsCanStateEscapeOnAir
EXTRN	?IsCanStateEscapeOnDown@ioAttackSkill@@UBE_NPAVioBaseChar@@@Z:PROC ; ioAttackSkill::IsCanStateEscapeOnDown
;	COMDAT ??_R2ioSkill@@8
; File c:\program files (x86)\microsoft directx sdk (june 2010)\include\d3dx9math.h
rdata$r	SEGMENT
??_R2ioSkill@@8 DD FLAT:??_R1A@?0A@EA@ioSkill@@8	; ioSkill::`RTTI Base Class Array'
rdata$r	ENDS
;	COMDAT ??_R3ioSkill@@8
rdata$r	SEGMENT
??_R3ioSkill@@8 DD 00H					; ioSkill::`RTTI Class Hierarchy Descriptor'
	DD	00H
	DD	01H
	DD	FLAT:??_R2ioSkill@@8
rdata$r	ENDS
;	COMDAT ??_R0?AVioSkill@@@8
_DATA	SEGMENT
??_R0?AVioSkill@@@8 DD FLAT:??_7type_info@@6B@		; ioSkill `RTTI Type Descriptor'
	DD	00H
	DB	'.?AVioSkill@@', 00H
_DATA	ENDS
;	COMDAT ??_R1A@?0A@EA@ioSkill@@8
rdata$r	SEGMENT
??_R1A@?0A@EA@ioSkill@@8 DD FLAT:??_R0?AVioSkill@@@8	; ioSkill::`RTTI Base Class Descriptor at (0,-1,0,64)'
	DD	00H
	DD	00H
	DD	0ffffffffH
	DD	00H
	DD	040H
	DD	FLAT:??_R3ioSkill@@8
rdata$r	ENDS
;	COMDAT ??_R2ioAttackSkill@@8
rdata$r	SEGMENT
??_R2ioAttackSkill@@8 DD FLAT:??_R1A@?0A@EA@ioAttackSkill@@8 ; ioAttackSkill::`RTTI Base Class Array'
	DD	FLAT:??_R1A@?0A@EA@ioSkill@@8
rdata$r	ENDS
;	COMDAT ??_R3ioAttackSkill@@8
rdata$r	SEGMENT
??_R3ioAttackSkill@@8 DD 00H				; ioAttackSkill::`RTTI Class Hierarchy Descriptor'
	DD	00H
	DD	02H
	DD	FLAT:??_R2ioAttackSkill@@8
rdata$r	ENDS
;	COMDAT ??_R0?AVioAttackSkill@@@8
_DATA	SEGMENT
??_R0?AVioAttackSkill@@@8 DD FLAT:??_7type_info@@6B@	; ioAttackSkill `RTTI Type Descriptor'
	DD	00H
	DB	'.?AVioAttackSkill@@', 00H
_DATA	ENDS
;	COMDAT ??_R1A@?0A@EA@ioAttackSkill@@8
rdata$r	SEGMENT
??_R1A@?0A@EA@ioAttackSkill@@8 DD FLAT:??_R0?AVioAttackSkill@@@8 ; ioAttackSkill::`RTTI Base Class Descriptor at (0,-1,0,64)'
	DD	01H
	DD	00H
	DD	0ffffffffH
	DD	00H
	DD	040H
	DD	FLAT:??_R3ioAttackSkill@@8
rdata$r	ENDS
;	COMDAT ??_R1A@?0A@EA@ioLightAttack@@8
rdata$r	SEGMENT
??_R1A@?0A@EA@ioLightAttack@@8 DD FLAT:??_R0?AVioLightAttack@@@8 ; ioLightAttack::`RTTI Base Class Descriptor at (0,-1,0,64)'
	DD	02H
	DD	00H
	DD	0ffffffffH
	DD	00H
	DD	040H
	DD	FLAT:??_R3ioLightAttack@@8
rdata$r	ENDS
;	COMDAT ??_R2ioLightAttack@@8
rdata$r	SEGMENT
??_R2ioLightAttack@@8 DD FLAT:??_R1A@?0A@EA@ioLightAttack@@8 ; ioLightAttack::`RTTI Base Class Array'
	DD	FLAT:??_R1A@?0A@EA@ioAttackSkill@@8
	DD	FLAT:??_R1A@?0A@EA@ioSkill@@8
rdata$r	ENDS
;	COMDAT ??_R3ioLightAttack@@8
rdata$r	SEGMENT
??_R3ioLightAttack@@8 DD 00H				; ioLightAttack::`RTTI Class Hierarchy Descriptor'
	DD	00H
	DD	03H
	DD	FLAT:??_R2ioLightAttack@@8
rdata$r	ENDS
;	COMDAT ??_R0?AVioLightAttack@@@8
_DATA	SEGMENT
??_R0?AVioLightAttack@@@8 DD FLAT:??_7type_info@@6B@	; ioLightAttack `RTTI Type Descriptor'
	DD	00H
	DB	'.?AVioLightAttack@@', 00H
_DATA	ENDS
;	COMDAT ??_R4ioLightAttack@@6B@
rdata$r	SEGMENT
??_R4ioLightAttack@@6B@ DD 00H				; ioLightAttack::`RTTI Complete Object Locator'
	DD	00H
	DD	00H
	DD	FLAT:??_R0?AVioLightAttack@@@8
	DD	FLAT:??_R3ioLightAttack@@8
rdata$r	ENDS
;	COMDAT ??_7ioLightAttack@@6B@
CONST	SEGMENT
??_7ioLightAttack@@6B@ DD FLAT:??_R4ioLightAttack@@6B@	; ioLightAttack::`vftable'
	DD	FLAT:?LoadProperty@ioLightAttack@@UAEXAAVioINILoader@@@Z
	DD	FLAT:?Clone@ioLightAttack@@UAEPAVioSkill@@XZ
	DD	FLAT:?GetTypeID@ioAttackSkill@@UBEHXZ
	DD	FLAT:?IsProtected@ioSkill@@UBE_NH@Z
	DD	FLAT:?IsCanSwitchSkill@ioSkill@@UBE_NXZ
	DD	FLAT:?IsCanSemiSwitchSkill@ioSkill@@UBE_NXZ
	DD	FLAT:?IsCanCancelBySkill@ioSkill@@UBE_NPAVioBaseChar@@AAH@Z
	DD	FLAT:?IsCanUseZeroHP@ioSkill@@UBE_NPAVioBaseChar@@@Z
	DD	FLAT:?IsCanUseSkillWithCrown@ioSkill@@UAE_NPAVioBaseChar@@@Z
	DD	FLAT:?IsCanUseBoss@ioSkill@@UBE_NPAVioBaseChar@@@Z
	DD	FLAT:?IsCanUseFootball@ioSkill@@UBE_NXZ
	DD	FLAT:?IsCanUseGangSiMode@ioSkill@@UBE_NXZ
	DD	FLAT:?IsCanUseByWeaponType@ioSkill@@UBE_NPAVioBaseChar@@@Z
	DD	FLAT:?IsCanUseThunderBirdHold@ioSkill@@UBE_NPAVioBaseChar@@@Z
	DD	FLAT:?IsCanUseLimitHP@ioSkill@@UBE_NPAVioBaseChar@@@Z
	DD	FLAT:?IsCanUseSkill@ioAttackSkill@@UAE_NPAVioBaseChar@@_N@Z
	DD	FLAT:?IsOnOffEnable@ioSkill@@UAE_NXZ
	DD	FLAT:?IsCanDefenseStateSkill@ioSkill@@UAE_NXZ
	DD	FLAT:?SetDefenseStateSkill@ioSkill@@UAEXPAVioBaseChar@@@Z
	DD	FLAT:?GetDefenseSkillBreakeType@ioSkill@@UBE?AW4DefenseBreakType@@XZ
	DD	FLAT:?HasBuff@ioLightAttack@@UBE_NH@Z
	DD	FLAT:?GetBuffType@ioSkill@@UAEHH@Z
	DD	FLAT:?IsEnableReserve@ioSkill@@UBE_NXZ
	DD	FLAT:?IsSkillMotionEnd@ioLightAttack@@UBE_NKPAVioBaseChar@@@Z
	DD	FLAT:?IsCharSkipState@ioSkill@@UBE?AW4SkillCharColType@@XZ
	DD	FLAT:?IsEntityCollisionSkipState@ioSkill@@UBE_NXZ
	DD	FLAT:?GetSkillEndNextJumpAmt@ioSkill@@UBEMXZ
	DD	FLAT:?GetSkillEndNextLandRate@ioSkill@@UBEMXZ
	DD	FLAT:?GetSkillEndNextJumpMustEnable@ioSkill@@UAE?AW4SkillEndJumpType@@XZ
	DD	FLAT:?IsEndState@ioLightAttack@@UBE_NXZ
	DD	FLAT:?IsAttackEndState@ioLightAttack@@UBE_NXZ
	DD	FLAT:?IsJumpState@ioSkill@@UBE_NXZ
	DD	FLAT:?IsDownState@ioSkill@@UBE_NXZ
	DD	FLAT:?IsNoDropState@ioLightAttack@@UBE_NXZ
	DD	FLAT:?IsCanSendControl@ioSkill@@UBE_NXZ
	DD	FLAT:?IsSkipState@ioSkill@@UBE_NXZ
	DD	FLAT:?GetSkillMoveRate@ioSkill@@UBEMXZ
	DD	FLAT:?SetSkillGrapplingState@ioSkill@@UAE_NPAVioBaseChar@@ABVioHashString@@@Z
	DD	FLAT:?GetGrapplingTargetPos@ioSkill@@UAE?AUD3DXVECTOR3@@PAVioBaseChar@@0@Z
	DD	FLAT:?GetGrapplingTargetPos@ioSkill@@UAE?AUD3DXVECTOR3@@PAVioBaseChar@@@Z
	DD	FLAT:?EnableChangeGrapplingTargetPos@ioSkill@@UBE_NXZ
	DD	FLAT:?GetSkillWoundGrapplingInfo@ioSkill@@UAE?AUGrapplingSkillWoundedInfo@@XZ
	DD	FLAT:?SetCreateWeaponDependency@ioSkill@@UAEXPAVioBaseChar@@PAVioPlayStage@@@Z
	DD	FLAT:?SetNextSkillState@ioSkill@@UAEXPAVioBaseChar@@PAVioWeapon@@@Z
	DD	FLAT:?OnSkillStart@ioLightAttack@@UAE_NPAVioBaseChar@@@Z
	DD	FLAT:?OnProcessState@ioLightAttack@@UAEXPAVioBaseChar@@PAVioPlayStage@@@Z
	DD	FLAT:?OnSkillEndByWounded@ioSkill@@UAEXPAVioBaseChar@@@Z
	DD	FLAT:?OnSkillEnd@ioLightAttack@@UAEXPAVioBaseChar@@@Z
	DD	FLAT:?OnProcessNotUseSkill@ioSkill@@UAEXPAVioBaseChar@@PAVioPlayStage@@@Z
	DD	FLAT:?OnSkillItemRelease@ioSkill@@UAEXPAVioBaseChar@@@Z
	DD	FLAT:?ApplyAttributeToWeapon@ioSkill@@UAEXPAVioWeapon@@PAVioPlayStage@@@Z
	DD	FLAT:?ApplyExtraSkillInfo@ioLightAttack@@UAEXPAVioBaseChar@@PAVioPlayStage@@AAVSP2Packet@@@Z
	DD	FLAT:?ApplyEquipSlotSkillExtraInfo@ioSkill@@UAEXPAVioBaseChar@@PAVioPlayStage@@AAVSP2Packet@@@Z
	DD	FLAT:?ApplyExtraPassiveSkillInfo@ioSkill@@UAEXPAVioBaseChar@@PAVioPlayStage@@AAVSP2Packet@@@Z
	DD	FLAT:?StartPreDelayEffect@ioAttackSkill@@UAEXPAVioBaseChar@@@Z
	DD	FLAT:?EndPreDelayEffect@ioAttackSkill@@UAEXPAVioBaseChar@@@Z
	DD	FLAT:?IsUseAutoTargetValue@ioAttackSkill@@UAE_NXZ
	DD	FLAT:?IsAutoTargetDownState@ioSkill@@UAE_NXZ
	DD	FLAT:?CheckUseBuff@ioLightAttack@@MAE_NPAVioBaseChar@@@Z
	DD	FLAT:?CheckUseItemMesh@ioSkill@@UAE_NXZ
	DD	FLAT:?CheckUseActiveCount@ioSkill@@UAE_NXZ
	DD	FLAT:?CheckAniRotate@ioSkill@@UAEXPAVioBaseChar@@@Z
	DD	FLAT:?IsEnableDashCheck@ioSkill@@UAE_NPAVioBaseChar@@@Z
	DD	FLAT:?IsEnableMultiActive@ioSkill@@UAE_NPAVioBaseChar@@@Z
	DD	FLAT:?IsInvisibleBottomCircle@ioSkill@@UAE_NPAVioBaseChar@@@Z
	DD	FLAT:?GetAutoTargetValue@ioSkill@@UAEXAAM00@Z
	DD	FLAT:?IsCanJumpingSkill@ioSkill@@UBE_NXZ
	DD	FLAT:?IsCanJumpingSkillOnBlowWound@ioSkill@@UBE_NXZ
	DD	FLAT:?IsCanDownSkill@ioSkill@@UBE_NXZ
	DD	FLAT:?IsCanBlowWoundSkill@ioSkill@@UBE_NXZ
	DD	FLAT:?IsCanWoundSkill@ioSkill@@UBE_NXZ
	DD	FLAT:?GetSkillGravityRate@ioSkill@@UAEMXZ
	DD	FLAT:?GetSkillMotionName@ioSkill@@UBEABVioHashString@@XZ
	DD	FLAT:?HasSkillMotion@ioSkill@@UBE_NXZ
	DD	FLAT:?GetSkillMotionRate@ioSkill@@UBEMXZ
	DD	FLAT:?IsPreDelayProtect@ioSkill@@UBE_NXZ
	DD	FLAT:?GetPreDelayAniName@ioSkill@@UBEABVioHashString@@XZ
	DD	FLAT:?GetPreDelayTime@ioSkill@@UBEKXZ
	DD	FLAT:?GetPreDelayOwnerEffect@ioSkill@@UBEABVioHashString@@XZ
	DD	FLAT:?GetPreDelayOtherEffect@ioSkill@@UBEABVioHashString@@XZ
	DD	FLAT:?SetCancelSkill@ioSkill@@UAEXPAVioBaseChar@@@Z
	DD	FLAT:?ClearAirJump@ioSkill@@MAEXXZ
	DD	FLAT:?SetAirJump@ioSkill@@MAEXPAVioBaseChar@@HM@Z
	DD	FLAT:?CheckAirJump@ioSkill@@MAEXPAVioBaseChar@@@Z
	DD	FLAT:?UseActiveCount@ioSkill@@UAE_NPAVioBaseChar@@@Z
	DD	FLAT:?GetMaxActiveCount@ioSkill@@UAEHPAVioBaseChar@@@Z
	DD	FLAT:?GetCurActiveCount@ioSkill@@UAEHPAVioBaseChar@@@Z
	DD	FLAT:?HideHPGauge@ioSkill@@UAE_NXZ
	DD	FLAT:?SetInfoByApplyWeapon@ioSkill@@UAEXPAVioBaseChar@@0K_N@Z
	DD	FLAT:?SetCollisionByApplySkill@ioSkill@@UAEXXZ
	DD	FLAT:?SetChargingRateForWeapon@ioSkill@@UAEXPAVioWeapon@@@Z
	DD	FLAT:?CheckExceptionCamera@ioSkill@@UAE_NXZ
	DD	FLAT:?GetExceptionCameraPos@ioSkill@@UAE?AUD3DXVECTOR3@@PAVioBaseChar@@@Z
	DD	FLAT:?IsFixedExceptionCamera@ioSkill@@UAE_NXZ
	DD	FLAT:?IsUseActiveCnt@ioSkill@@UBE_NXZ
	DD	FLAT:?GetMaxActiveCnt@ioSkill@@UBEHPAVioBaseChar@@@Z
	DD	FLAT:?GetCurActiveCnt@ioSkill@@UBEHPAVioBaseChar@@@Z
	DD	FLAT:??_EioLightAttack@@UAEPAXI@Z
	DD	FLAT:?StartPreDelayAnimation@ioAttackSkill@@MAE_NPAVioBaseChar@@@Z
	DD	FLAT:?AttackSkillFire@ioLightAttack@@MAEXPAVioBaseChar@@@Z
	DD	FLAT:?GetAttackTimeRate@ioAttackSkill@@MBEMXZ
	DD	FLAT:?GetAttackEndTimeRate@ioAttackSkill@@MBEMXZ
	DD	FLAT:?LoadNormalAttribute@ioAttackSkill@@MAEXAAVioINILoader@@@Z
	DD	FLAT:?LoadDownAttribute@ioAttackSkill@@MAEXAAVioINILoader@@@Z
	DD	FLAT:?LoadJumpAttribute@ioAttackSkill@@MAEXAAVioINILoader@@@Z
	DD	FLAT:?GetAttribute@ioAttackSkill@@UAEAAUAttackAttribute@@XZ
	DD	FLAT:?GetAttributeConst@ioAttackSkill@@UBEABUAttackAttribute@@XZ
	DD	FLAT:?IsCanStateEscape@ioAttackSkill@@UBE_NXZ
	DD	FLAT:?IsCanStateEscapeOnStand@ioAttackSkill@@UBE_NPAVioBaseChar@@@Z
	DD	FLAT:?IsCanStateEscapeOnAir@ioAttackSkill@@UBE_NPAVioBaseChar@@@Z
	DD	FLAT:?IsCanStateEscapeOnDown@ioAttackSkill@@UBE_NPAVioBaseChar@@@Z
CONST	ENDS
;	COMDAT xdata$x
xdata$x	SEGMENT
__ehfuncinfo$??0ioLightAttack@@QAE@XZ DD 019930522H
	DD	011H
	DD	FLAT:__unwindtable$??0ioLightAttack@@QAE@XZ
	DD	2 DUP(00H)
	DD	2 DUP(00H)
	DD	00H
	DD	01H
__unwindtable$??0ioLightAttack@@QAE@XZ DD 0ffffffffH
	DD	FLAT:__unwindfunclet$??0ioLightAttack@@QAE@XZ$0
	DD	00H
	DD	FLAT:__unwindfunclet$??0ioLightAttack@@QAE@XZ$1
	DD	01H
	DD	FLAT:__unwindfunclet$??0ioLightAttack@@QAE@XZ$2
	DD	02H
	DD	FLAT:__unwindfunclet$??0ioLightAttack@@QAE@XZ$3
	DD	03H
	DD	FLAT:__unwindfunclet$??0ioLightAttack@@QAE@XZ$4
	DD	04H
	DD	FLAT:__unwindfunclet$??0ioLightAttack@@QAE@XZ$5
	DD	05H
	DD	FLAT:__unwindfunclet$??0ioLightAttack@@QAE@XZ$6
	DD	06H
	DD	FLAT:__unwindfunclet$??0ioLightAttack@@QAE@XZ$7
	DD	07H
	DD	FLAT:__unwindfunclet$??0ioLightAttack@@QAE@XZ$8
	DD	08H
	DD	FLAT:__unwindfunclet$??0ioLightAttack@@QAE@XZ$9
	DD	09H
	DD	FLAT:__unwindfunclet$??0ioLightAttack@@QAE@XZ$10
	DD	0aH
	DD	FLAT:__unwindfunclet$??0ioLightAttack@@QAE@XZ$11
	DD	0bH
	DD	FLAT:__unwindfunclet$??0ioLightAttack@@QAE@XZ$12
	DD	0cH
	DD	FLAT:__unwindfunclet$??0ioLightAttack@@QAE@XZ$13
	DD	0dH
	DD	FLAT:__unwindfunclet$??0ioLightAttack@@QAE@XZ$14
	DD	0eH
	DD	FLAT:__unwindfunclet$??0ioLightAttack@@QAE@XZ$15
	DD	0fH
	DD	FLAT:__unwindfunclet$??0ioLightAttack@@QAE@XZ$16
; Function compile flags: /Ogsp
; File d:\lost saga for developer\youtube\tutorial\source\src\lsclient\iolightattack.cpp
xdata$x	ENDS
;	COMDAT ??0ioLightAttack@@QAE@XZ
_TEXT	SEGMENT
_this$ = -16						; size = 4
__$EHRec$ = -12						; size = 12
??0ioLightAttack@@QAE@XZ PROC				; ioLightAttack::ioLightAttack, COMDAT
; _this$ = ecx

; 10   : {

  00000	6a 04		 push	 4
  00002	b8 00 00 00 00	 mov	 eax, __ehhandler$??0ioLightAttack@@QAE@XZ
  00007	e8 00 00 00 00	 call	 __EH_prolog3
  0000c	8b f1		 mov	 esi, ecx
  0000e	89 75 f0	 mov	 DWORD PTR _this$[ebp], esi
  00011	e8 00 00 00 00	 call	 ??0ioAttackSkill@@QAE@XZ ; ioAttackSkill::ioAttackSkill
  00016	33 c9		 xor	 ecx, ecx
  00018	c7 06 00 00 00
	00		 mov	 DWORD PTR [esi], OFFSET ??_7ioLightAttack@@6B@
  0001e	89 4d fc	 mov	 DWORD PTR __$EHRec$[ebp+8], ecx
  00021	89 8e e8 10 00
	00		 mov	 DWORD PTR [esi+4328], ecx
  00027	89 8e ec 10 00
	00		 mov	 DWORD PTR [esi+4332], ecx
  0002d	89 8e f0 10 00
	00		 mov	 DWORD PTR [esi+4336], ecx
  00033	89 8e f8 10 00
	00		 mov	 DWORD PTR [esi+4344], ecx
  00039	89 8e fc 10 00
	00		 mov	 DWORD PTR [esi+4348], ecx
  0003f	89 8e 00 11 00
	00		 mov	 DWORD PTR [esi+4352], ecx
  00045	8b 3d 00 00 00
	00		 mov	 edi, DWORD PTR __imp_??0ioHashString@@QAE@XZ
  0004b	8d 8e 0c 11 00
	00		 lea	 ecx, DWORD PTR [esi+4364]
  00051	c6 45 fc 02	 mov	 BYTE PTR __$EHRec$[ebp+8], 2
  00055	ff d7		 call	 edi
  00057	8d 8e 1c 11 00
	00		 lea	 ecx, DWORD PTR [esi+4380]
  0005d	c6 45 fc 03	 mov	 BYTE PTR __$EHRec$[ebp+8], 3
  00061	e8 00 00 00 00	 call	 ??0?$CEncrypt@M@@QAE@XZ	; CEncrypt<float>::CEncrypt<float>
  00066	8d 8e 4c 11 00
	00		 lea	 ecx, DWORD PTR [esi+4428]
  0006c	c6 45 fc 04	 mov	 BYTE PTR __$EHRec$[ebp+8], 4
  00070	e8 00 00 00 00	 call	 ??0?$CEncrypt@K@@QAE@XZ	; CEncrypt<unsigned long>::CEncrypt<unsigned long>
  00075	8d 8e 7c 11 00
	00		 lea	 ecx, DWORD PTR [esi+4476]
  0007b	c6 45 fc 05	 mov	 BYTE PTR __$EHRec$[ebp+8], 5
  0007f	e8 00 00 00 00	 call	 ??0?$CEncrypt@M@@QAE@XZ	; CEncrypt<float>::CEncrypt<float>
  00084	8d 8e ac 11 00
	00		 lea	 ecx, DWORD PTR [esi+4524]
  0008a	c6 45 fc 06	 mov	 BYTE PTR __$EHRec$[ebp+8], 6
  0008e	e8 00 00 00 00	 call	 ??0?$CEncrypt@M@@QAE@XZ	; CEncrypt<float>::CEncrypt<float>
  00093	8d 8e dc 11 00
	00		 lea	 ecx, DWORD PTR [esi+4572]
  00099	c6 45 fc 07	 mov	 BYTE PTR __$EHRec$[ebp+8], 7
  0009d	e8 00 00 00 00	 call	 ??0?$CEncrypt@M@@QAE@XZ	; CEncrypt<float>::CEncrypt<float>
  000a2	8d 8e 0c 12 00
	00		 lea	 ecx, DWORD PTR [esi+4620]
  000a8	c6 45 fc 08	 mov	 BYTE PTR __$EHRec$[ebp+8], 8
  000ac	ff d7		 call	 edi
  000ae	8d 8e 1c 12 00
	00		 lea	 ecx, DWORD PTR [esi+4636]
  000b4	c6 45 fc 09	 mov	 BYTE PTR __$EHRec$[ebp+8], 9
  000b8	e8 00 00 00 00	 call	 ??0?$CEncrypt@M@@QAE@XZ	; CEncrypt<float>::CEncrypt<float>
  000bd	8d 8e 4c 12 00
	00		 lea	 ecx, DWORD PTR [esi+4684]
  000c3	c6 45 fc 0a	 mov	 BYTE PTR __$EHRec$[ebp+8], 10 ; 0000000aH
  000c7	ff d7		 call	 edi
  000c9	8d 8e 6c 12 00
	00		 lea	 ecx, DWORD PTR [esi+4716]
  000cf	c6 45 fc 0b	 mov	 BYTE PTR __$EHRec$[ebp+8], 11 ; 0000000bH
  000d3	ff d7		 call	 edi
  000d5	8d 8e 80 12 00
	00		 lea	 ecx, DWORD PTR [esi+4736]
  000db	c6 45 fc 0c	 mov	 BYTE PTR __$EHRec$[ebp+8], 12 ; 0000000cH
  000df	ff d7		 call	 edi
  000e1	8d 8e ac 12 00
	00		 lea	 ecx, DWORD PTR [esi+4780]
  000e7	c6 45 fc 0d	 mov	 BYTE PTR __$EHRec$[ebp+8], 13 ; 0000000dH
  000eb	ff d7		 call	 edi
  000ed	8d 8e bc 12 00
	00		 lea	 ecx, DWORD PTR [esi+4796]
  000f3	c6 45 fc 0e	 mov	 BYTE PTR __$EHRec$[ebp+8], 14 ; 0000000eH
  000f7	ff d7		 call	 edi
  000f9	8d 8e cc 12 00
	00		 lea	 ecx, DWORD PTR [esi+4812]
  000ff	c6 45 fc 0f	 mov	 BYTE PTR __$EHRec$[ebp+8], 15 ; 0000000fH
  00103	ff d7		 call	 edi
  00105	8d 8e dc 12 00
	00		 lea	 ecx, DWORD PTR [esi+4828]
  0010b	c6 45 fc 10	 mov	 BYTE PTR __$EHRec$[ebp+8], 16 ; 00000010H
  0010f	e8 00 00 00 00	 call	 ??0?$CEncrypt@K@@QAE@XZ	; CEncrypt<unsigned long>::CEncrypt<unsigned long>

; 11   : }

  00114	8b c6		 mov	 eax, esi
  00116	e8 00 00 00 00	 call	 __EH_epilog3
  0011b	c3		 ret	 0
_TEXT	ENDS
;	COMDAT text$x
text$x	SEGMENT
__unwindfunclet$??0ioLightAttack@@QAE@XZ$0:
  00000	8b 4d f0	 mov	 ecx, DWORD PTR _this$[ebp]
  00003	e9 00 00 00 00	 jmp	 ??1ioAttackSkill@@UAE@XZ ; ioAttackSkill::~ioAttackSkill
__unwindfunclet$??0ioLightAttack@@QAE@XZ$1:
  00008	8b 4d f0	 mov	 ecx, DWORD PTR _this$[ebp]
  0000b	81 c1 e8 10 00
	00		 add	 ecx, 4328		; 000010e8H
  00011	e9 00 00 00 00	 jmp	 ??1?$vector@UBuffInfoStruct@@V?$allocator@UBuffInfoStruct@@@std@@@std@@QAE@XZ ; std::vector<BuffInfoStruct,std::allocator<BuffInfoStruct> >::~vector<BuffInfoStruct,std::allocator<BuffInfoStruct> >
__unwindfunclet$??0ioLightAttack@@QAE@XZ$2:
  00016	8b 4d f0	 mov	 ecx, DWORD PTR _this$[ebp]
  00019	81 c1 f8 10 00
	00		 add	 ecx, 4344		; 000010f8H
  0001f	e9 00 00 00 00	 jmp	 ??1?$vector@UBuffInfoStruct@@V?$allocator@UBuffInfoStruct@@@std@@@std@@QAE@XZ ; std::vector<BuffInfoStruct,std::allocator<BuffInfoStruct> >::~vector<BuffInfoStruct,std::allocator<BuffInfoStruct> >
__unwindfunclet$??0ioLightAttack@@QAE@XZ$3:
  00024	8b 4d f0	 mov	 ecx, DWORD PTR _this$[ebp]
  00027	81 c1 0c 11 00
	00		 add	 ecx, 4364		; 0000110cH
  0002d	ff 25 00 00 00
	00		 jmp	 DWORD PTR __imp_??1ioHashString@@QAE@XZ
__unwindfunclet$??0ioLightAttack@@QAE@XZ$4:
  00033	8b 4d f0	 mov	 ecx, DWORD PTR _this$[ebp]
  00036	81 c1 1c 11 00
	00		 add	 ecx, 4380		; 0000111cH
  0003c	e9 00 00 00 00	 jmp	 ??1?$CEncrypt@M@@UAE@XZ	; CEncrypt<float>::~CEncrypt<float>
__unwindfunclet$??0ioLightAttack@@QAE@XZ$5:
  00041	8b 4d f0	 mov	 ecx, DWORD PTR _this$[ebp]
  00044	81 c1 4c 11 00
	00		 add	 ecx, 4428		; 0000114cH
  0004a	e9 00 00 00 00	 jmp	 ??1?$CEncrypt@K@@UAE@XZ	; CEncrypt<unsigned long>::~CEncrypt<unsigned long>
__unwindfunclet$??0ioLightAttack@@QAE@XZ$6:
  0004f	8b 4d f0	 mov	 ecx, DWORD PTR _this$[ebp]
  00052	81 c1 7c 11 00
	00		 add	 ecx, 4476		; 0000117cH
  00058	e9 00 00 00 00	 jmp	 ??1?$CEncrypt@M@@UAE@XZ	; CEncrypt<float>::~CEncrypt<float>
__unwindfunclet$??0ioLightAttack@@QAE@XZ$7:
  0005d	8b 4d f0	 mov	 ecx, DWORD PTR _this$[ebp]
  00060	81 c1 ac 11 00
	00		 add	 ecx, 4524		; 000011acH
  00066	e9 00 00 00 00	 jmp	 ??1?$CEncrypt@M@@UAE@XZ	; CEncrypt<float>::~CEncrypt<float>
__unwindfunclet$??0ioLightAttack@@QAE@XZ$8:
  0006b	8b 4d f0	 mov	 ecx, DWORD PTR _this$[ebp]
  0006e	81 c1 dc 11 00
	00		 add	 ecx, 4572		; 000011dcH
  00074	e9 00 00 00 00	 jmp	 ??1?$CEncrypt@M@@UAE@XZ	; CEncrypt<float>::~CEncrypt<float>
__unwindfunclet$??0ioLightAttack@@QAE@XZ$9:
  00079	8b 4d f0	 mov	 ecx, DWORD PTR _this$[ebp]
  0007c	81 c1 0c 12 00
	00		 add	 ecx, 4620		; 0000120cH
  00082	ff 25 00 00 00
	00		 jmp	 DWORD PTR __imp_??1ioHashString@@QAE@XZ
__unwindfunclet$??0ioLightAttack@@QAE@XZ$10:
  00088	8b 4d f0	 mov	 ecx, DWORD PTR _this$[ebp]
  0008b	81 c1 1c 12 00
	00		 add	 ecx, 4636		; 0000121cH
  00091	e9 00 00 00 00	 jmp	 ??1?$CEncrypt@M@@UAE@XZ	; CEncrypt<float>::~CEncrypt<float>
__unwindfunclet$??0ioLightAttack@@QAE@XZ$11:
  00096	8b 4d f0	 mov	 ecx, DWORD PTR _this$[ebp]
  00099	81 c1 4c 12 00
	00		 add	 ecx, 4684		; 0000124cH
  0009f	ff 25 00 00 00
	00		 jmp	 DWORD PTR __imp_??1ioHashString@@QAE@XZ
__unwindfunclet$??0ioLightAttack@@QAE@XZ$12:
  000a5	8b 4d f0	 mov	 ecx, DWORD PTR _this$[ebp]
  000a8	81 c1 6c 12 00
	00		 add	 ecx, 4716		; 0000126cH
  000ae	ff 25 00 00 00
	00		 jmp	 DWORD PTR __imp_??1ioHashString@@QAE@XZ
__unwindfunclet$??0ioLightAttack@@QAE@XZ$13:
  000b4	8b 4d f0	 mov	 ecx, DWORD PTR _this$[ebp]
  000b7	81 c1 80 12 00
	00		 add	 ecx, 4736		; 00001280H
  000bd	ff 25 00 00 00
	00		 jmp	 DWORD PTR __imp_??1ioHashString@@QAE@XZ
__unwindfunclet$??0ioLightAttack@@QAE@XZ$14:
  000c3	8b 4d f0	 mov	 ecx, DWORD PTR _this$[ebp]
  000c6	81 c1 ac 12 00
	00		 add	 ecx, 4780		; 000012acH
  000cc	ff 25 00 00 00
	00		 jmp	 DWORD PTR __imp_??1ioHashString@@QAE@XZ
__unwindfunclet$??0ioLightAttack@@QAE@XZ$15:
  000d2	8b 4d f0	 mov	 ecx, DWORD PTR _this$[ebp]
  000d5	81 c1 bc 12 00
	00		 add	 ecx, 4796		; 000012bcH
  000db	ff 25 00 00 00
	00		 jmp	 DWORD PTR __imp_??1ioHashString@@QAE@XZ
__unwindfunclet$??0ioLightAttack@@QAE@XZ$16:
  000e1	8b 4d f0	 mov	 ecx, DWORD PTR _this$[ebp]
  000e4	81 c1 cc 12 00
	00		 add	 ecx, 4812		; 000012ccH
  000ea	ff 25 00 00 00
	00		 jmp	 DWORD PTR __imp_??1ioHashString@@QAE@XZ
__ehhandler$??0ioLightAttack@@QAE@XZ:
  000f0	8b 54 24 08	 mov	 edx, DWORD PTR [esp+8]
  000f4	8d 42 0c	 lea	 eax, DWORD PTR [edx+12]
  000f7	8b 4a ec	 mov	 ecx, DWORD PTR [edx-20]
  000fa	33 c8		 xor	 ecx, eax
  000fc	e8 00 00 00 00	 call	 @__security_check_cookie@4
  00101	b8 00 00 00 00	 mov	 eax, OFFSET __ehfuncinfo$??0ioLightAttack@@QAE@XZ
  00106	e9 00 00 00 00	 jmp	 ___CxxFrameHandler3
text$x	ENDS
??0ioLightAttack@@QAE@XZ ENDP				; ioLightAttack::ioLightAttack
; Function compile flags: /Ogsp
; File d:\lost saga for developer\youtube\tutorial\source\src\lsclient\ioskill.h
;	COMDAT ?GetDefenseSkillBreakeType@ioSkill@@UBE?AW4DefenseBreakType@@XZ
_TEXT	SEGMENT
?GetDefenseSkillBreakeType@ioSkill@@UBE?AW4DefenseBreakType@@XZ PROC ; ioSkill::GetDefenseSkillBreakeType, COMDAT
; _this$ = ecx

; 327  : 	virtual DefenseBreakType GetDefenseSkillBreakeType() const { return m_eDefenseSkillBreakType; }

  00000	8b 81 30 0e 00
	00		 mov	 eax, DWORD PTR [ecx+3632]
  00006	c3		 ret	 0
?GetDefenseSkillBreakeType@ioSkill@@UBE?AW4DefenseBreakType@@XZ ENDP ; ioSkill::GetDefenseSkillBreakeType
; Function compile flags: /Ogsp
_TEXT	ENDS
;	COMDAT ?GetSkillEndNextJumpAmt@ioSkill@@UBEMXZ
_TEXT	SEGMENT
?GetSkillEndNextJumpAmt@ioSkill@@UBEMXZ PROC		; ioSkill::GetSkillEndNextJumpAmt, COMDAT
; _this$ = ecx

; 335  : 	virtual float GetSkillEndNextJumpAmt() const { return m_fSkillEndNextJumpAmt; }

  00000	d9 81 4c 05 00
	00		 fld	 DWORD PTR [ecx+1356]
  00006	c3		 ret	 0
?GetSkillEndNextJumpAmt@ioSkill@@UBEMXZ ENDP		; ioSkill::GetSkillEndNextJumpAmt
; Function compile flags: /Ogsp
_TEXT	ENDS
;	COMDAT ?GetSkillEndNextLandRate@ioSkill@@UBEMXZ
_TEXT	SEGMENT
?GetSkillEndNextLandRate@ioSkill@@UBEMXZ PROC		; ioSkill::GetSkillEndNextLandRate, COMDAT
; _this$ = ecx

; 336  : 	virtual float GetSkillEndNextLandRate() const { return m_fSkillEndNextLandRate; }

  00000	d9 81 50 05 00
	00		 fld	 DWORD PTR [ecx+1360]
  00006	c3		 ret	 0
?GetSkillEndNextLandRate@ioSkill@@UBEMXZ ENDP		; ioSkill::GetSkillEndNextLandRate
; Function compile flags: /Ogsp
_TEXT	ENDS
;	COMDAT ?GetSkillEndNextJumpMustEnable@ioSkill@@UAE?AW4SkillEndJumpType@@XZ
_TEXT	SEGMENT
?GetSkillEndNextJumpMustEnable@ioSkill@@UAE?AW4SkillEndJumpType@@XZ PROC ; ioSkill::GetSkillEndNextJumpMustEnable, COMDAT
; _this$ = ecx

; 337  : 	virtual SkillEndJumpType GetSkillEndNextJumpMustEnable(){ return SEJT_DEFAULT; }

  00000	33 c0		 xor	 eax, eax
  00002	c3		 ret	 0
?GetSkillEndNextJumpMustEnable@ioSkill@@UAE?AW4SkillEndJumpType@@XZ ENDP ; ioSkill::GetSkillEndNextJumpMustEnable
; Function compile flags: /Ogsp
_TEXT	ENDS
;	COMDAT ?EnableChangeGrapplingTargetPos@ioSkill@@UBE_NXZ
_TEXT	SEGMENT
?EnableChangeGrapplingTargetPos@ioSkill@@UBE_NXZ PROC	; ioSkill::EnableChangeGrapplingTargetPos, COMDAT
; _this$ = ecx

; 355  : 	virtual bool EnableChangeGrapplingTargetPos() const { return m_bChangeGrapplingTargetPos; }

  00000	8a 81 40 09 00
	00		 mov	 al, BYTE PTR [ecx+2368]
  00006	c3		 ret	 0
?EnableChangeGrapplingTargetPos@ioSkill@@UBE_NXZ ENDP	; ioSkill::EnableChangeGrapplingTargetPos
; Function compile flags: /Ogsp
_TEXT	ENDS
;	COMDAT ?IsInvisibleBottomCircle@ioSkill@@UAE_NPAVioBaseChar@@@Z
_TEXT	SEGMENT
_pChar$ = 8						; size = 4
?IsInvisibleBottomCircle@ioSkill@@UAE_NPAVioBaseChar@@@Z PROC ; ioSkill::IsInvisibleBottomCircle, COMDAT
; _this$ = ecx

; 393  : 	virtual bool IsInvisibleBottomCircle( ioBaseChar *pChar ) { return false; }

  00000	32 c0		 xor	 al, al
  00002	c2 04 00	 ret	 4
?IsInvisibleBottomCircle@ioSkill@@UAE_NPAVioBaseChar@@@Z ENDP ; ioSkill::IsInvisibleBottomCircle
; Function compile flags: /Ogsp
_TEXT	ENDS
;	COMDAT ?IsUseActiveCnt@ioSkill@@UBE_NXZ
_TEXT	SEGMENT
?IsUseActiveCnt@ioSkill@@UBE_NXZ PROC			; ioSkill::IsUseActiveCnt, COMDAT
; _this$ = ecx

; 544  : 	virtual bool IsUseActiveCnt() const { return false; }

  00000	32 c0		 xor	 al, al
  00002	c3		 ret	 0
?IsUseActiveCnt@ioSkill@@UBE_NXZ ENDP			; ioSkill::IsUseActiveCnt
; Function compile flags: /Ogsp
_TEXT	ENDS
;	COMDAT ?GetMaxActiveCnt@ioSkill@@UBEHPAVioBaseChar@@@Z
_TEXT	SEGMENT
_pChar$ = 8						; size = 4
?GetMaxActiveCnt@ioSkill@@UBEHPAVioBaseChar@@@Z PROC	; ioSkill::GetMaxActiveCnt, COMDAT
; _this$ = ecx

; 545  : 	virtual int GetMaxActiveCnt( ioBaseChar *pChar ) const { return 0; }

  00000	33 c0		 xor	 eax, eax
  00002	c2 04 00	 ret	 4
?GetMaxActiveCnt@ioSkill@@UBEHPAVioBaseChar@@@Z ENDP	; ioSkill::GetMaxActiveCnt
; Function compile flags: /Ogsp
_TEXT	ENDS
;	COMDAT ?GetCurActiveCnt@ioSkill@@UBEHPAVioBaseChar@@@Z
_TEXT	SEGMENT
_pChar$ = 8						; size = 4
?GetCurActiveCnt@ioSkill@@UBEHPAVioBaseChar@@@Z PROC	; ioSkill::GetCurActiveCnt, COMDAT
; _this$ = ecx

; 546  : 	virtual int GetCurActiveCnt( ioBaseChar *pChar ) const { return 0; }

  00000	33 c0		 xor	 eax, eax
  00002	c2 04 00	 ret	 4
?GetCurActiveCnt@ioSkill@@UBEHPAVioBaseChar@@@Z ENDP	; ioSkill::GetCurActiveCnt
_TEXT	ENDS
PUBLIC	?DecryptValueToPool@?$CEncrypt@_N@@QAEXPA_N@Z	; CEncrypt<bool>::DecryptValueToPool
; Function compile flags: /Ogsp
; File d:\lost saga for developer\youtube\tutorial\source\src\lsclient\encryptvalue.h
;	COMDAT ?DecryptValueToPool@?$CEncrypt@_N@@QAEXPA_N@Z
_TEXT	SEGMENT
_value$ = 8						; size = 4
?DecryptValueToPool@?$CEncrypt@_N@@QAEXPA_N@Z PROC	; CEncrypt<bool>::DecryptValueToPool, COMDAT
; _this$ = ecx

; 219  : 	{

  00000	55		 push	 ebp
  00001	8b ec		 mov	 ebp, esp
  00003	56		 push	 esi

; 220  : 		m_RC5.DecryptByte( m_MemPool, m_TempMem, 4 );

  00004	8d 71 28	 lea	 esi, DWORD PTR [ecx+40]
  00007	6a 04		 push	 4
  00009	8d 41 1c	 lea	 eax, DWORD PTR [ecx+28]
  0000c	56		 push	 esi
  0000d	50		 push	 eax
  0000e	83 c1 0c	 add	 ecx, 12			; 0000000cH
  00011	e8 00 00 00 00	 call	 ?DecryptByte@ccddaabb@@QBEXPBDPADH@Z ; ccddaabb::DecryptByte

; 221  : 		*value = *((bool*)m_TempMem);

  00016	8a 06		 mov	 al, BYTE PTR [esi]
  00018	8b 4d 08	 mov	 ecx, DWORD PTR _value$[ebp]
  0001b	88 01		 mov	 BYTE PTR [ecx], al
  0001d	5e		 pop	 esi

; 222  : 	}

  0001e	5d		 pop	 ebp
  0001f	c2 04 00	 ret	 4
?DecryptValueToPool@?$CEncrypt@_N@@QAEXPA_N@Z ENDP	; CEncrypt<bool>::DecryptValueToPool
_TEXT	ENDS
PUBLIC	??B?$CEncrypt@_N@@QBE_NXZ			; CEncrypt<bool>::operator bool
; Function compile flags: /Ogsp
;	COMDAT ??B?$CEncrypt@_N@@QBE_NXZ
_TEXT	SEGMENT
_value$ = -1						; size = 1
??B?$CEncrypt@_N@@QBE_NXZ PROC				; CEncrypt<bool>::operator bool, COMDAT
; _this$ = ecx

; 145  : 	{

  00000	55		 push	 ebp
  00001	8b ec		 mov	 ebp, esp
  00003	51		 push	 ecx

; 146  : 		//UJ 130829, const    --start
; 147  : 		type value;
; 148  : 		CEncrypt<type>* pThis = const_cast<CEncrypt<type>*>(this);
; 149  : 		pThis->DecryptValueToPool(&value);

  00004	8d 45 ff	 lea	 eax, DWORD PTR _value$[ebp]
  00007	50		 push	 eax
  00008	e8 00 00 00 00	 call	 ?DecryptValueToPool@?$CEncrypt@_N@@QAEXPA_N@Z ; CEncrypt<bool>::DecryptValueToPool

; 150  : 		//// const DecryptValueToPool     .
; 151  :  		//type value;
; 152  : 		//char szTempMem[MAX_ENCRYPT];
; 153  : 		//m_RC5.DecryptByte( m_MemPool, szTempMem, max(m_ValueSize, DEFAULT_ENCRYPT) );
; 154  : 		//memcpy( &value, szTempMem, m_ValueSize );
; 155  : 		//UJ --end
; 156  : 
; 157  : #ifdef _NOTUSE
; 158  : 		Debug();
; 159  : #endif
; 160  : 		return value;

  0000d	8a 45 ff	 mov	 al, BYTE PTR _value$[ebp]

; 161  : 	}

  00010	c9		 leave
  00011	c3		 ret	 0
??B?$CEncrypt@_N@@QBE_NXZ ENDP				; CEncrypt<bool>::operator bool
; Function compile flags: /Ogsp
; File d:\lost saga for developer\youtube\tutorial\source\src\lsclient\ioskill.h
_TEXT	ENDS
;	COMDAT ?IsCanJumpingSkill@ioSkill@@UBE_NXZ
_TEXT	SEGMENT
_value$555489 = -1					; size = 1
?IsCanJumpingSkill@ioSkill@@UBE_NXZ PROC		; ioSkill::IsCanJumpingSkill, COMDAT
; _this$ = ecx

; 431  : 	virtual bool IsCanJumpingSkill() const { return m_bEnableJumpingSkill; }

  00000	55		 push	 ebp
  00001	8b ec		 mov	 ebp, esp
  00003	51		 push	 ecx
  00004	8d 45 ff	 lea	 eax, DWORD PTR _value$555489[ebp]
  00007	50		 push	 eax
  00008	81 c1 9c 03 00
	00		 add	 ecx, 924		; 0000039cH
  0000e	e8 00 00 00 00	 call	 ?DecryptValueToPool@?$CEncrypt@_N@@QAEXPA_N@Z ; CEncrypt<bool>::DecryptValueToPool
  00013	8a 45 ff	 mov	 al, BYTE PTR _value$555489[ebp]
  00016	c9		 leave
  00017	c3		 ret	 0
?IsCanJumpingSkill@ioSkill@@UBE_NXZ ENDP		; ioSkill::IsCanJumpingSkill
; Function compile flags: /Ogsp
_TEXT	ENDS
;	COMDAT ?IsCanJumpingSkillOnBlowWound@ioSkill@@UBE_NXZ
_TEXT	SEGMENT
_value$555496 = -1					; size = 1
?IsCanJumpingSkillOnBlowWound@ioSkill@@UBE_NXZ PROC	; ioSkill::IsCanJumpingSkillOnBlowWound, COMDAT
; _this$ = ecx

; 432  : 	virtual bool IsCanJumpingSkillOnBlowWound() const { return m_bEnableJumpingSkillOnBlowWound; }

  00000	55		 push	 ebp
  00001	8b ec		 mov	 ebp, esp
  00003	51		 push	 ecx
  00004	8d 45 ff	 lea	 eax, DWORD PTR _value$555496[ebp]
  00007	50		 push	 eax
  00008	81 c1 cc 03 00
	00		 add	 ecx, 972		; 000003ccH
  0000e	e8 00 00 00 00	 call	 ?DecryptValueToPool@?$CEncrypt@_N@@QAEXPA_N@Z ; CEncrypt<bool>::DecryptValueToPool
  00013	8a 45 ff	 mov	 al, BYTE PTR _value$555496[ebp]
  00016	c9		 leave
  00017	c3		 ret	 0
?IsCanJumpingSkillOnBlowWound@ioSkill@@UBE_NXZ ENDP	; ioSkill::IsCanJumpingSkillOnBlowWound
; Function compile flags: /Ogsp
_TEXT	ENDS
;	COMDAT ?IsCanDownSkill@ioSkill@@UBE_NXZ
_TEXT	SEGMENT
_value$555503 = -1					; size = 1
?IsCanDownSkill@ioSkill@@UBE_NXZ PROC			; ioSkill::IsCanDownSkill, COMDAT
; _this$ = ecx

; 437  : 	virtual bool IsCanDownSkill() const { return m_bEnableDownSkill; }

  00000	55		 push	 ebp
  00001	8b ec		 mov	 ebp, esp
  00003	51		 push	 ecx
  00004	8d 45 ff	 lea	 eax, DWORD PTR _value$555503[ebp]
  00007	50		 push	 eax
  00008	81 c1 5c 04 00
	00		 add	 ecx, 1116		; 0000045cH
  0000e	e8 00 00 00 00	 call	 ?DecryptValueToPool@?$CEncrypt@_N@@QAEXPA_N@Z ; CEncrypt<bool>::DecryptValueToPool
  00013	8a 45 ff	 mov	 al, BYTE PTR _value$555503[ebp]
  00016	c9		 leave
  00017	c3		 ret	 0
?IsCanDownSkill@ioSkill@@UBE_NXZ ENDP			; ioSkill::IsCanDownSkill
; Function compile flags: /Ogsp
_TEXT	ENDS
;	COMDAT ?IsCanBlowWoundSkill@ioSkill@@UBE_NXZ
_TEXT	SEGMENT
_value$555510 = -1					; size = 1
?IsCanBlowWoundSkill@ioSkill@@UBE_NXZ PROC		; ioSkill::IsCanBlowWoundSkill, COMDAT
; _this$ = ecx

; 440  : 	virtual bool IsCanBlowWoundSkill() const { return m_bEnableBlowWoundSkill; }

  00000	55		 push	 ebp
  00001	8b ec		 mov	 ebp, esp
  00003	51		 push	 ecx
  00004	8d 45 ff	 lea	 eax, DWORD PTR _value$555510[ebp]
  00007	50		 push	 eax
  00008	81 c1 8c 04 00
	00		 add	 ecx, 1164		; 0000048cH
  0000e	e8 00 00 00 00	 call	 ?DecryptValueToPool@?$CEncrypt@_N@@QAEXPA_N@Z ; CEncrypt<bool>::DecryptValueToPool
  00013	8a 45 ff	 mov	 al, BYTE PTR _value$555510[ebp]
  00016	c9		 leave
  00017	c3		 ret	 0
?IsCanBlowWoundSkill@ioSkill@@UBE_NXZ ENDP		; ioSkill::IsCanBlowWoundSkill
; Function compile flags: /Ogsp
_TEXT	ENDS
;	COMDAT ?IsCanWoundSkill@ioSkill@@UBE_NXZ
_TEXT	SEGMENT
_value$555517 = -1					; size = 1
?IsCanWoundSkill@ioSkill@@UBE_NXZ PROC			; ioSkill::IsCanWoundSkill, COMDAT
; _this$ = ecx

; 446  : 	virtual bool IsCanWoundSkill() const { return m_bEnableWoundSkill; }

  00000	55		 push	 ebp
  00001	8b ec		 mov	 ebp, esp
  00003	51		 push	 ecx
  00004	8d 45 ff	 lea	 eax, DWORD PTR _value$555517[ebp]
  00007	50		 push	 eax
  00008	81 c1 54 05 00
	00		 add	 ecx, 1364		; 00000554H
  0000e	e8 00 00 00 00	 call	 ?DecryptValueToPool@?$CEncrypt@_N@@QAEXPA_N@Z ; CEncrypt<bool>::DecryptValueToPool
  00013	8a 45 ff	 mov	 al, BYTE PTR _value$555517[ebp]
  00016	c9		 leave
  00017	c3		 ret	 0
?IsCanWoundSkill@ioSkill@@UBE_NXZ ENDP			; ioSkill::IsCanWoundSkill
_TEXT	ENDS
PUBLIC	??0ioLightAttack@@QAE@ABV0@@Z			; ioLightAttack::ioLightAttack
EXTRN	??0ioAttackSkill@@QAE@ABV0@@Z:PROC		; ioAttackSkill::ioAttackSkill
;	COMDAT xdata$x
; File c:\program files (x86)\microsoft directx sdk (june 2010)\include\d3dx9math.h
xdata$x	SEGMENT
__ehfuncinfo$??0ioLightAttack@@QAE@ABV0@@Z DD 019930522H
	DD	012H
	DD	FLAT:__unwindtable$??0ioLightAttack@@QAE@ABV0@@Z
	DD	2 DUP(00H)
	DD	2 DUP(00H)
	DD	00H
	DD	01H
__unwindtable$??0ioLightAttack@@QAE@ABV0@@Z DD 0ffffffffH
	DD	FLAT:__unwindfunclet$??0ioLightAttack@@QAE@ABV0@@Z$0
	DD	00H
	DD	FLAT:__unwindfunclet$??0ioLightAttack@@QAE@ABV0@@Z$1
	DD	01H
	DD	FLAT:__unwindfunclet$??0ioLightAttack@@QAE@ABV0@@Z$2
	DD	02H
	DD	FLAT:__unwindfunclet$??0ioLightAttack@@QAE@ABV0@@Z$3
	DD	03H
	DD	FLAT:__unwindfunclet$??0ioLightAttack@@QAE@ABV0@@Z$4
	DD	04H
	DD	FLAT:__unwindfunclet$??0ioLightAttack@@QAE@ABV0@@Z$5
	DD	05H
	DD	FLAT:__unwindfunclet$??0ioLightAttack@@QAE@ABV0@@Z$6
	DD	06H
	DD	FLAT:__unwindfunclet$??0ioLightAttack@@QAE@ABV0@@Z$7
	DD	07H
	DD	FLAT:__unwindfunclet$??0ioLightAttack@@QAE@ABV0@@Z$8
	DD	08H
	DD	FLAT:__unwindfunclet$??0ioLightAttack@@QAE@ABV0@@Z$9
	DD	09H
	DD	FLAT:__unwindfunclet$??0ioLightAttack@@QAE@ABV0@@Z$10
	DD	0aH
	DD	FLAT:__unwindfunclet$??0ioLightAttack@@QAE@ABV0@@Z$11
	DD	0bH
	DD	FLAT:__unwindfunclet$??0ioLightAttack@@QAE@ABV0@@Z$12
	DD	0cH
	DD	FLAT:__unwindfunclet$??0ioLightAttack@@QAE@ABV0@@Z$13
	DD	0dH
	DD	FLAT:__unwindfunclet$??0ioLightAttack@@QAE@ABV0@@Z$14
	DD	0eH
	DD	FLAT:__unwindfunclet$??0ioLightAttack@@QAE@ABV0@@Z$15
	DD	0fH
	DD	FLAT:__unwindfunclet$??0ioLightAttack@@QAE@ABV0@@Z$16
	DD	010H
	DD	FLAT:__unwindfunclet$??0ioLightAttack@@QAE@ABV0@@Z$17
; Function compile flags: /Ogsp
; File d:\lost saga for developer\youtube\tutorial\source\src\lsclient\iolightattack.cpp
xdata$x	ENDS
;	COMDAT ??0ioLightAttack@@QAE@ABV0@@Z
_TEXT	SEGMENT
_this$ = -16						; size = 4
__$EHRec$ = -12						; size = 12
_rhs$ = 8						; size = 4
??0ioLightAttack@@QAE@ABV0@@Z PROC			; ioLightAttack::ioLightAttack, COMDAT
; _this$ = ecx

; 36   : {

  00000	6a 04		 push	 4
  00002	b8 00 00 00 00	 mov	 eax, __ehhandler$??0ioLightAttack@@QAE@ABV0@@Z
  00007	e8 00 00 00 00	 call	 __EH_prolog3
  0000c	8b f1		 mov	 esi, ecx
  0000e	89 75 f0	 mov	 DWORD PTR _this$[ebp], esi
  00011	8b 7d 08	 mov	 edi, DWORD PTR _rhs$[ebp]
  00014	57		 push	 edi
  00015	e8 00 00 00 00	 call	 ??0ioAttackSkill@@QAE@ABV0@@Z ; ioAttackSkill::ioAttackSkill
  0001a	83 65 fc 00	 and	 DWORD PTR __$EHRec$[ebp+8], 0
  0001e	8d 87 e8 10 00
	00		 lea	 eax, DWORD PTR [edi+4328]
  00024	50		 push	 eax
  00025	8d 8e e8 10 00
	00		 lea	 ecx, DWORD PTR [esi+4328]
  0002b	c7 06 00 00 00
	00		 mov	 DWORD PTR [esi], OFFSET ??_7ioLightAttack@@6B@
  00031	e8 00 00 00 00	 call	 ??0?$vector@UBuffInfoStruct@@V?$allocator@UBuffInfoStruct@@@std@@@std@@QAE@ABV01@@Z ; std::vector<BuffInfoStruct,std::allocator<BuffInfoStruct> >::vector<BuffInfoStruct,std::allocator<BuffInfoStruct> >
  00036	8d 87 f8 10 00
	00		 lea	 eax, DWORD PTR [edi+4344]
  0003c	50		 push	 eax
  0003d	8d 8e f8 10 00
	00		 lea	 ecx, DWORD PTR [esi+4344]
  00043	c6 45 fc 01	 mov	 BYTE PTR __$EHRec$[ebp+8], 1
  00047	e8 00 00 00 00	 call	 ??0?$vector@UBuffInfoStruct@@V?$allocator@UBuffInfoStruct@@@std@@@std@@QAE@ABV01@@Z ; std::vector<BuffInfoStruct,std::allocator<BuffInfoStruct> >::vector<BuffInfoStruct,std::allocator<BuffInfoStruct> >
  0004c	8b 1d 00 00 00
	00		 mov	 ebx, DWORD PTR __imp_??0ioHashString@@QAE@ABV0@@Z
  00052	8d 87 0c 11 00
	00		 lea	 eax, DWORD PTR [edi+4364]
  00058	50		 push	 eax
  00059	8d 8e 0c 11 00
	00		 lea	 ecx, DWORD PTR [esi+4364]
  0005f	c6 45 fc 02	 mov	 BYTE PTR __$EHRec$[ebp+8], 2
  00063	ff d3		 call	 ebx
  00065	8d 87 1c 11 00
	00		 lea	 eax, DWORD PTR [edi+4380]
  0006b	50		 push	 eax
  0006c	8d 8e 1c 11 00
	00		 lea	 ecx, DWORD PTR [esi+4380]
  00072	c6 45 fc 03	 mov	 BYTE PTR __$EHRec$[ebp+8], 3
  00076	e8 00 00 00 00	 call	 ??0?$CEncrypt@M@@QAE@ABV0@@Z ; CEncrypt<float>::CEncrypt<float>
  0007b	8d 87 4c 11 00
	00		 lea	 eax, DWORD PTR [edi+4428]
  00081	50		 push	 eax
  00082	8d 8e 4c 11 00
	00		 lea	 ecx, DWORD PTR [esi+4428]
  00088	c6 45 fc 04	 mov	 BYTE PTR __$EHRec$[ebp+8], 4
  0008c	e8 00 00 00 00	 call	 ??0?$CEncrypt@K@@QAE@ABV0@@Z ; CEncrypt<unsigned long>::CEncrypt<unsigned long>
  00091	8d 87 7c 11 00
	00		 lea	 eax, DWORD PTR [edi+4476]
  00097	50		 push	 eax
  00098	8d 8e 7c 11 00
	00		 lea	 ecx, DWORD PTR [esi+4476]
  0009e	c6 45 fc 05	 mov	 BYTE PTR __$EHRec$[ebp+8], 5
  000a2	e8 00 00 00 00	 call	 ??0?$CEncrypt@M@@QAE@ABV0@@Z ; CEncrypt<float>::CEncrypt<float>
  000a7	8d 87 ac 11 00
	00		 lea	 eax, DWORD PTR [edi+4524]
  000ad	50		 push	 eax
  000ae	8d 8e ac 11 00
	00		 lea	 ecx, DWORD PTR [esi+4524]
  000b4	c6 45 fc 06	 mov	 BYTE PTR __$EHRec$[ebp+8], 6
  000b8	e8 00 00 00 00	 call	 ??0?$CEncrypt@M@@QAE@ABV0@@Z ; CEncrypt<float>::CEncrypt<float>
  000bd	8d 87 dc 11 00
	00		 lea	 eax, DWORD PTR [edi+4572]
  000c3	50		 push	 eax
  000c4	8d 8e dc 11 00
	00		 lea	 ecx, DWORD PTR [esi+4572]
  000ca	c6 45 fc 07	 mov	 BYTE PTR __$EHRec$[ebp+8], 7
  000ce	e8 00 00 00 00	 call	 ??0?$CEncrypt@M@@QAE@ABV0@@Z ; CEncrypt<float>::CEncrypt<float>
  000d3	8d 87 0c 12 00
	00		 lea	 eax, DWORD PTR [edi+4620]
  000d9	50		 push	 eax
  000da	8d 8e 0c 12 00
	00		 lea	 ecx, DWORD PTR [esi+4620]
  000e0	c6 45 fc 08	 mov	 BYTE PTR __$EHRec$[ebp+8], 8
  000e4	ff d3		 call	 ebx
  000e6	8d 87 1c 12 00
	00		 lea	 eax, DWORD PTR [edi+4636]
  000ec	50		 push	 eax
  000ed	8d 8e 1c 12 00
	00		 lea	 ecx, DWORD PTR [esi+4636]
  000f3	c6 45 fc 09	 mov	 BYTE PTR __$EHRec$[ebp+8], 9
  000f7	e8 00 00 00 00	 call	 ??0?$CEncrypt@M@@QAE@ABV0@@Z ; CEncrypt<float>::CEncrypt<float>
  000fc	8d 87 4c 12 00
	00		 lea	 eax, DWORD PTR [edi+4684]
  00102	50		 push	 eax
  00103	8d 8e 4c 12 00
	00		 lea	 ecx, DWORD PTR [esi+4684]
  00109	c6 45 fc 0a	 mov	 BYTE PTR __$EHRec$[ebp+8], 10 ; 0000000aH
  0010d	ff d3		 call	 ebx
  0010f	d9 87 60 12 00
	00		 fld	 DWORD PTR [edi+4704]
  00115	d9 9e 60 12 00
	00		 fstp	 DWORD PTR [esi+4704]
  0011b	8d 8e 6c 12 00
	00		 lea	 ecx, DWORD PTR [esi+4716]
  00121	d9 87 64 12 00
	00		 fld	 DWORD PTR [edi+4708]
  00127	c6 45 fc 0b	 mov	 BYTE PTR __$EHRec$[ebp+8], 11 ; 0000000bH
  0012b	d9 9e 64 12 00
	00		 fstp	 DWORD PTR [esi+4708]
  00131	ff 15 00 00 00
	00		 call	 DWORD PTR __imp_??0ioHashString@@QAE@XZ
  00137	c6 45 fc 0c	 mov	 BYTE PTR __$EHRec$[ebp+8], 12 ; 0000000cH
  0013b	8d 8e 80 12 00
	00		 lea	 ecx, DWORD PTR [esi+4736]
  00141	ff 15 00 00 00
	00		 call	 DWORD PTR __imp_??0ioHashString@@QAE@XZ
  00147	d9 87 90 12 00
	00		 fld	 DWORD PTR [edi+4752]
  0014d	d9 9e 90 12 00
	00		 fstp	 DWORD PTR [esi+4752]
  00153	8d 87 ac 12 00
	00		 lea	 eax, DWORD PTR [edi+4780]
  00159	d9 87 94 12 00
	00		 fld	 DWORD PTR [edi+4756]
  0015f	50		 push	 eax
  00160	d9 9e 94 12 00
	00		 fstp	 DWORD PTR [esi+4756]
  00166	8d 8e ac 12 00
	00		 lea	 ecx, DWORD PTR [esi+4780]
  0016c	d9 87 98 12 00
	00		 fld	 DWORD PTR [edi+4760]
  00172	c6 45 fc 0d	 mov	 BYTE PTR __$EHRec$[ebp+8], 13 ; 0000000dH
  00176	d9 9e 98 12 00
	00		 fstp	 DWORD PTR [esi+4760]
  0017c	d9 87 9c 12 00
	00		 fld	 DWORD PTR [edi+4764]
  00182	d9 9e 9c 12 00
	00		 fstp	 DWORD PTR [esi+4764]
  00188	ff d3		 call	 ebx
  0018a	8d 87 bc 12 00
	00		 lea	 eax, DWORD PTR [edi+4796]
  00190	50		 push	 eax
  00191	8d 8e bc 12 00
	00		 lea	 ecx, DWORD PTR [esi+4796]
  00197	c6 45 fc 0e	 mov	 BYTE PTR __$EHRec$[ebp+8], 14 ; 0000000eH
  0019b	ff d3		 call	 ebx
  0019d	8d 87 cc 12 00
	00		 lea	 eax, DWORD PTR [edi+4812]
  001a3	50		 push	 eax
  001a4	8d 8e cc 12 00
	00		 lea	 ecx, DWORD PTR [esi+4812]
  001aa	c6 45 fc 0f	 mov	 BYTE PTR __$EHRec$[ebp+8], 15 ; 0000000fH
  001ae	ff d3		 call	 ebx
  001b0	81 c7 dc 12 00
	00		 add	 edi, 4828		; 000012dcH
  001b6	57		 push	 edi
  001b7	8d 8e dc 12 00
	00		 lea	 ecx, DWORD PTR [esi+4828]
  001bd	c6 45 fc 10	 mov	 BYTE PTR __$EHRec$[ebp+8], 16 ; 00000010H
  001c1	e8 00 00 00 00	 call	 ??0?$CEncrypt@K@@QAE@ABV0@@Z ; CEncrypt<unsigned long>::CEncrypt<unsigned long>

; 37   : 	ClearData();

  001c6	8b ce		 mov	 ecx, esi
  001c8	c6 45 fc 11	 mov	 BYTE PTR __$EHRec$[ebp+8], 17 ; 00000011H
  001cc	e8 00 00 00 00	 call	 ?ClearData@ioLightAttack@@QAEXXZ ; ioLightAttack::ClearData

; 38   : }

  001d1	8b c6		 mov	 eax, esi
  001d3	e8 00 00 00 00	 call	 __EH_epilog3
  001d8	c2 04 00	 ret	 4
_TEXT	ENDS
;	COMDAT text$x
text$x	SEGMENT
__unwindfunclet$??0ioLightAttack@@QAE@ABV0@@Z$0:
  00000	8b 4d f0	 mov	 ecx, DWORD PTR _this$[ebp]
  00003	e9 00 00 00 00	 jmp	 ??1ioAttackSkill@@UAE@XZ ; ioAttackSkill::~ioAttackSkill
__unwindfunclet$??0ioLightAttack@@QAE@ABV0@@Z$1:
  00008	8b 4d f0	 mov	 ecx, DWORD PTR _this$[ebp]
  0000b	81 c1 e8 10 00
	00		 add	 ecx, 4328		; 000010e8H
  00011	e9 00 00 00 00	 jmp	 ??1?$vector@UBuffInfoStruct@@V?$allocator@UBuffInfoStruct@@@std@@@std@@QAE@XZ ; std::vector<BuffInfoStruct,std::allocator<BuffInfoStruct> >::~vector<BuffInfoStruct,std::allocator<BuffInfoStruct> >
__unwindfunclet$??0ioLightAttack@@QAE@ABV0@@Z$2:
  00016	8b 4d f0	 mov	 ecx, DWORD PTR _this$[ebp]
  00019	81 c1 f8 10 00
	00		 add	 ecx, 4344		; 000010f8H
  0001f	e9 00 00 00 00	 jmp	 ??1?$vector@UBuffInfoStruct@@V?$allocator@UBuffInfoStruct@@@std@@@std@@QAE@XZ ; std::vector<BuffInfoStruct,std::allocator<BuffInfoStruct> >::~vector<BuffInfoStruct,std::allocator<BuffInfoStruct> >
__unwindfunclet$??0ioLightAttack@@QAE@ABV0@@Z$3:
  00024	8b 4d f0	 mov	 ecx, DWORD PTR _this$[ebp]
  00027	81 c1 0c 11 00
	00		 add	 ecx, 4364		; 0000110cH
  0002d	ff 25 00 00 00
	00		 jmp	 DWORD PTR __imp_??1ioHashString@@QAE@XZ
__unwindfunclet$??0ioLightAttack@@QAE@ABV0@@Z$4:
  00033	8b 4d f0	 mov	 ecx, DWORD PTR _this$[ebp]
  00036	81 c1 1c 11 00
	00		 add	 ecx, 4380		; 0000111cH
  0003c	e9 00 00 00 00	 jmp	 ??1?$CEncrypt@M@@UAE@XZ	; CEncrypt<float>::~CEncrypt<float>
__unwindfunclet$??0ioLightAttack@@QAE@ABV0@@Z$5:
  00041	8b 4d f0	 mov	 ecx, DWORD PTR _this$[ebp]
  00044	81 c1 4c 11 00
	00		 add	 ecx, 4428		; 0000114cH
  0004a	e9 00 00 00 00	 jmp	 ??1?$CEncrypt@K@@UAE@XZ	; CEncrypt<unsigned long>::~CEncrypt<unsigned long>
__unwindfunclet$??0ioLightAttack@@QAE@ABV0@@Z$6:
  0004f	8b 4d f0	 mov	 ecx, DWORD PTR _this$[ebp]
  00052	81 c1 7c 11 00
	00		 add	 ecx, 4476		; 0000117cH
  00058	e9 00 00 00 00	 jmp	 ??1?$CEncrypt@M@@UAE@XZ	; CEncrypt<float>::~CEncrypt<float>
__unwindfunclet$??0ioLightAttack@@QAE@ABV0@@Z$7:
  0005d	8b 4d f0	 mov	 ecx, DWORD PTR _this$[ebp]
  00060	81 c1 ac 11 00
	00		 add	 ecx, 4524		; 000011acH
  00066	e9 00 00 00 00	 jmp	 ??1?$CEncrypt@M@@UAE@XZ	; CEncrypt<float>::~CEncrypt<float>
__unwindfunclet$??0ioLightAttack@@QAE@ABV0@@Z$8:
  0006b	8b 4d f0	 mov	 ecx, DWORD PTR _this$[ebp]
  0006e	81 c1 dc 11 00
	00		 add	 ecx, 4572		; 000011dcH
  00074	e9 00 00 00 00	 jmp	 ??1?$CEncrypt@M@@UAE@XZ	; CEncrypt<float>::~CEncrypt<float>
__unwindfunclet$??0ioLightAttack@@QAE@ABV0@@Z$9:
  00079	8b 4d f0	 mov	 ecx, DWORD PTR _this$[ebp]
  0007c	81 c1 0c 12 00
	00		 add	 ecx, 4620		; 0000120cH
  00082	ff 25 00 00 00
	00		 jmp	 DWORD PTR __imp_??1ioHashString@@QAE@XZ
__unwindfunclet$??0ioLightAttack@@QAE@ABV0@@Z$10:
  00088	8b 4d f0	 mov	 ecx, DWORD PTR _this$[ebp]
  0008b	81 c1 1c 12 00
	00		 add	 ecx, 4636		; 0000121cH
  00091	e9 00 00 00 00	 jmp	 ??1?$CEncrypt@M@@UAE@XZ	; CEncrypt<float>::~CEncrypt<float>
__unwindfunclet$??0ioLightAttack@@QAE@ABV0@@Z$11:
  00096	8b 4d f0	 mov	 ecx, DWORD PTR _this$[ebp]
  00099	81 c1 4c 12 00
	00		 add	 ecx, 4684		; 0000124cH
  0009f	ff 25 00 00 00
	00		 jmp	 DWORD PTR __imp_??1ioHashString@@QAE@XZ
__unwindfunclet$??0ioLightAttack@@QAE@ABV0@@Z$12:
  000a5	8b 4d f0	 mov	 ecx, DWORD PTR _this$[ebp]
  000a8	81 c1 6c 12 00
	00		 add	 ecx, 4716		; 0000126cH
  000ae	ff 25 00 00 00
	00		 jmp	 DWORD PTR __imp_??1ioHashString@@QAE@XZ
__unwindfunclet$??0ioLightAttack@@QAE@ABV0@@Z$13:
  000b4	8b 4d f0	 mov	 ecx, DWORD PTR _this$[ebp]
  000b7	81 c1 80 12 00
	00		 add	 ecx, 4736		; 00001280H
  000bd	ff 25 00 00 00
	00		 jmp	 DWORD PTR __imp_??1ioHashString@@QAE@XZ
__unwindfunclet$??0ioLightAttack@@QAE@ABV0@@Z$14:
  000c3	8b 4d f0	 mov	 ecx, DWORD PTR _this$[ebp]
  000c6	81 c1 ac 12 00
	00		 add	 ecx, 4780		; 000012acH
  000cc	ff 25 00 00 00
	00		 jmp	 DWORD PTR __imp_??1ioHashString@@QAE@XZ
__unwindfunclet$??0ioLightAttack@@QAE@ABV0@@Z$15:
  000d2	8b 4d f0	 mov	 ecx, DWORD PTR _this$[ebp]
  000d5	81 c1 bc 12 00
	00		 add	 ecx, 4796		; 000012bcH
  000db	ff 25 00 00 00
	00		 jmp	 DWORD PTR __imp_??1ioHashString@@QAE@XZ
__unwindfunclet$??0ioLightAttack@@QAE@ABV0@@Z$16:
  000e1	8b 4d f0	 mov	 ecx, DWORD PTR _this$[ebp]
  000e4	81 c1 cc 12 00
	00		 add	 ecx, 4812		; 000012ccH
  000ea	ff 25 00 00 00
	00		 jmp	 DWORD PTR __imp_??1ioHashString@@QAE@XZ
__unwindfunclet$??0ioLightAttack@@QAE@ABV0@@Z$17:
  000f0	8b 4d f0	 mov	 ecx, DWORD PTR _this$[ebp]
  000f3	81 c1 dc 12 00
	00		 add	 ecx, 4828		; 000012dcH
  000f9	e9 00 00 00 00	 jmp	 ??1?$CEncrypt@K@@UAE@XZ	; CEncrypt<unsigned long>::~CEncrypt<unsigned long>
__ehhandler$??0ioLightAttack@@QAE@ABV0@@Z:
  000fe	8b 54 24 08	 mov	 edx, DWORD PTR [esp+8]
  00102	8d 42 0c	 lea	 eax, DWORD PTR [edx+12]
  00105	8b 4a ec	 mov	 ecx, DWORD PTR [edx-20]
  00108	33 c8		 xor	 ecx, eax
  0010a	e8 00 00 00 00	 call	 @__security_check_cookie@4
  0010f	b8 00 00 00 00	 mov	 eax, OFFSET __ehfuncinfo$??0ioLightAttack@@QAE@ABV0@@Z
  00114	e9 00 00 00 00	 jmp	 ___CxxFrameHandler3
text$x	ENDS
??0ioLightAttack@@QAE@ABV0@@Z ENDP			; ioLightAttack::ioLightAttack
PUBLIC	??1ioLightAttack@@UAE@XZ			; ioLightAttack::~ioLightAttack
;	COMDAT xdata$x
; File c:\program files (x86)\microsoft visual studio 10.0\vc\include\vector
xdata$x	SEGMENT
__ehfuncinfo$??1ioLightAttack@@UAE@XZ DD 019930522H
	DD	012H
	DD	FLAT:__unwindtable$??1ioLightAttack@@UAE@XZ
	DD	2 DUP(00H)
	DD	2 DUP(00H)
	DD	00H
	DD	01H
__unwindtable$??1ioLightAttack@@UAE@XZ DD 0ffffffffH
	DD	FLAT:__unwindfunclet$??1ioLightAttack@@UAE@XZ$0
	DD	00H
	DD	FLAT:__unwindfunclet$??1ioLightAttack@@UAE@XZ$1
	DD	01H
	DD	FLAT:__unwindfunclet$??1ioLightAttack@@UAE@XZ$2
	DD	02H
	DD	FLAT:__unwindfunclet$??1ioLightAttack@@UAE@XZ$3
	DD	03H
	DD	FLAT:__unwindfunclet$??1ioLightAttack@@UAE@XZ$4
	DD	04H
	DD	FLAT:__unwindfunclet$??1ioLightAttack@@UAE@XZ$5
	DD	05H
	DD	FLAT:__unwindfunclet$??1ioLightAttack@@UAE@XZ$6
	DD	06H
	DD	FLAT:__unwindfunclet$??1ioLightAttack@@UAE@XZ$7
	DD	07H
	DD	FLAT:__unwindfunclet$??1ioLightAttack@@UAE@XZ$8
	DD	08H
	DD	FLAT:__unwindfunclet$??1ioLightAttack@@UAE@XZ$9
	DD	09H
	DD	FLAT:__unwindfunclet$??1ioLightAttack@@UAE@XZ$10
	DD	0aH
	DD	FLAT:__unwindfunclet$??1ioLightAttack@@UAE@XZ$11
	DD	0bH
	DD	FLAT:__unwindfunclet$??1ioLightAttack@@UAE@XZ$12
	DD	0cH
	DD	FLAT:__unwindfunclet$??1ioLightAttack@@UAE@XZ$13
	DD	0dH
	DD	FLAT:__unwindfunclet$??1ioLightAttack@@UAE@XZ$14
	DD	0eH
	DD	FLAT:__unwindfunclet$??1ioLightAttack@@UAE@XZ$15
	DD	0fH
	DD	FLAT:__unwindfunclet$??1ioLightAttack@@UAE@XZ$16
	DD	010H
	DD	FLAT:__unwindfunclet$??1ioLightAttack@@UAE@XZ$17
; Function compile flags: /Ogsp
; File d:\lost saga for developer\youtube\tutorial\source\src\lsclient\iolightattack.cpp
xdata$x	ENDS
;	COMDAT ??1ioLightAttack@@UAE@XZ
_TEXT	SEGMENT
_this$ = -16						; size = 4
__$EHRec$ = -12						; size = 12
??1ioLightAttack@@UAE@XZ PROC				; ioLightAttack::~ioLightAttack, COMDAT
; _this$ = ecx

; 41   : {

  00000	6a 04		 push	 4
  00002	b8 00 00 00 00	 mov	 eax, __ehhandler$??1ioLightAttack@@UAE@XZ
  00007	e8 00 00 00 00	 call	 __EH_prolog3
  0000c	8b f1		 mov	 esi, ecx
  0000e	89 75 f0	 mov	 DWORD PTR _this$[ebp], esi
  00011	c7 06 00 00 00
	00		 mov	 DWORD PTR [esi], OFFSET ??_7ioLightAttack@@6B@
  00017	c7 45 fc 11 00
	00 00		 mov	 DWORD PTR __$EHRec$[ebp+8], 17 ; 00000011H

; 42   : 	ClearData();

  0001e	e8 00 00 00 00	 call	 ?ClearData@ioLightAttack@@QAEXXZ ; ioLightAttack::ClearData

; 43   : }

  00023	8d 8e e8 12 00
	00		 lea	 ecx, DWORD PTR [esi+4840]
  00029	c6 45 fc 10	 mov	 BYTE PTR __$EHRec$[ebp+8], 16 ; 00000010H
  0002d	c7 86 dc 12 00
	00 00 00 00 00	 mov	 DWORD PTR [esi+4828], OFFSET ??_7?$CEncrypt@K@@6B@
  00037	e8 00 00 00 00	 call	 ??1ccddaabb@@UAE@XZ	; ccddaabb::~ccddaabb
  0003c	8b 3d 00 00 00
	00		 mov	 edi, DWORD PTR __imp_??1ioHashString@@QAE@XZ
  00042	8d 8e cc 12 00
	00		 lea	 ecx, DWORD PTR [esi+4812]
  00048	c6 45 fc 0f	 mov	 BYTE PTR __$EHRec$[ebp+8], 15 ; 0000000fH
  0004c	ff d7		 call	 edi
  0004e	8d 8e bc 12 00
	00		 lea	 ecx, DWORD PTR [esi+4796]
  00054	c6 45 fc 0e	 mov	 BYTE PTR __$EHRec$[ebp+8], 14 ; 0000000eH
  00058	ff d7		 call	 edi
  0005a	8d 8e ac 12 00
	00		 lea	 ecx, DWORD PTR [esi+4780]
  00060	c6 45 fc 0d	 mov	 BYTE PTR __$EHRec$[ebp+8], 13 ; 0000000dH
  00064	ff d7		 call	 edi
  00066	8d 8e 80 12 00
	00		 lea	 ecx, DWORD PTR [esi+4736]
  0006c	c6 45 fc 0c	 mov	 BYTE PTR __$EHRec$[ebp+8], 12 ; 0000000cH
  00070	ff d7		 call	 edi
  00072	8d 8e 6c 12 00
	00		 lea	 ecx, DWORD PTR [esi+4716]
  00078	c6 45 fc 0b	 mov	 BYTE PTR __$EHRec$[ebp+8], 11 ; 0000000bH
  0007c	ff d7		 call	 edi
  0007e	8d 8e 4c 12 00
	00		 lea	 ecx, DWORD PTR [esi+4684]
  00084	c6 45 fc 0a	 mov	 BYTE PTR __$EHRec$[ebp+8], 10 ; 0000000aH
  00088	ff d7		 call	 edi
  0008a	bb 00 00 00 00	 mov	 ebx, OFFSET ??_7?$CEncrypt@M@@6B@
  0008f	8d 8e 28 12 00
	00		 lea	 ecx, DWORD PTR [esi+4648]
  00095	c6 45 fc 09	 mov	 BYTE PTR __$EHRec$[ebp+8], 9
  00099	89 9e 1c 12 00
	00		 mov	 DWORD PTR [esi+4636], ebx
  0009f	e8 00 00 00 00	 call	 ??1ccddaabb@@UAE@XZ	; ccddaabb::~ccddaabb
  000a4	8d 8e 0c 12 00
	00		 lea	 ecx, DWORD PTR [esi+4620]
  000aa	c6 45 fc 08	 mov	 BYTE PTR __$EHRec$[ebp+8], 8
  000ae	ff d7		 call	 edi
  000b0	8d 8e e8 11 00
	00		 lea	 ecx, DWORD PTR [esi+4584]
  000b6	c6 45 fc 07	 mov	 BYTE PTR __$EHRec$[ebp+8], 7
  000ba	89 9e dc 11 00
	00		 mov	 DWORD PTR [esi+4572], ebx
  000c0	e8 00 00 00 00	 call	 ??1ccddaabb@@UAE@XZ	; ccddaabb::~ccddaabb
  000c5	8d 8e b8 11 00
	00		 lea	 ecx, DWORD PTR [esi+4536]
  000cb	c6 45 fc 06	 mov	 BYTE PTR __$EHRec$[ebp+8], 6
  000cf	89 9e ac 11 00
	00		 mov	 DWORD PTR [esi+4524], ebx
  000d5	e8 00 00 00 00	 call	 ??1ccddaabb@@UAE@XZ	; ccddaabb::~ccddaabb
  000da	8d 8e 88 11 00
	00		 lea	 ecx, DWORD PTR [esi+4488]
  000e0	c6 45 fc 05	 mov	 BYTE PTR __$EHRec$[ebp+8], 5
  000e4	89 9e 7c 11 00
	00		 mov	 DWORD PTR [esi+4476], ebx
  000ea	e8 00 00 00 00	 call	 ??1ccddaabb@@UAE@XZ	; ccddaabb::~ccddaabb
  000ef	8d 8e 58 11 00
	00		 lea	 ecx, DWORD PTR [esi+4440]
  000f5	c6 45 fc 04	 mov	 BYTE PTR __$EHRec$[ebp+8], 4
  000f9	c7 86 4c 11 00
	00 00 00 00 00	 mov	 DWORD PTR [esi+4428], OFFSET ??_7?$CEncrypt@K@@6B@
  00103	e8 00 00 00 00	 call	 ??1ccddaabb@@UAE@XZ	; ccddaabb::~ccddaabb
  00108	8d 8e 28 11 00
	00		 lea	 ecx, DWORD PTR [esi+4392]
  0010e	c6 45 fc 03	 mov	 BYTE PTR __$EHRec$[ebp+8], 3
  00112	89 9e 1c 11 00
	00		 mov	 DWORD PTR [esi+4380], ebx
  00118	e8 00 00 00 00	 call	 ??1ccddaabb@@UAE@XZ	; ccddaabb::~ccddaabb
  0011d	8d 8e 0c 11 00
	00		 lea	 ecx, DWORD PTR [esi+4364]
  00123	c6 45 fc 02	 mov	 BYTE PTR __$EHRec$[ebp+8], 2
  00127	ff d7		 call	 edi
  00129	8d 8e f8 10 00
	00		 lea	 ecx, DWORD PTR [esi+4344]
  0012f	c6 45 fc 01	 mov	 BYTE PTR __$EHRec$[ebp+8], 1
  00133	e8 00 00 00 00	 call	 ?_Tidy@?$vector@UBuffInfoStruct@@V?$allocator@UBuffInfoStruct@@@std@@@std@@IAEXXZ ; std::vector<BuffInfoStruct,std::allocator<BuffInfoStruct> >::_Tidy
  00138	8d 8e e8 10 00
	00		 lea	 ecx, DWORD PTR [esi+4328]
  0013e	c6 45 fc 00	 mov	 BYTE PTR __$EHRec$[ebp+8], 0
  00142	e8 00 00 00 00	 call	 ?_Tidy@?$vector@UBuffInfoStruct@@V?$allocator@UBuffInfoStruct@@@std@@@std@@IAEXXZ ; std::vector<BuffInfoStruct,std::allocator<BuffInfoStruct> >::_Tidy
  00147	83 4d fc ff	 or	 DWORD PTR __$EHRec$[ebp+8], -1
  0014b	8b ce		 mov	 ecx, esi
  0014d	e8 00 00 00 00	 call	 ??1ioAttackSkill@@UAE@XZ ; ioAttackSkill::~ioAttackSkill
  00152	e8 00 00 00 00	 call	 __EH_epilog3
  00157	c3		 ret	 0
_TEXT	ENDS
;	COMDAT text$x
text$x	SEGMENT
__unwindfunclet$??1ioLightAttack@@UAE@XZ$0:
  00000	8b 4d f0	 mov	 ecx, DWORD PTR _this$[ebp]
  00003	e9 00 00 00 00	 jmp	 ??1ioAttackSkill@@UAE@XZ ; ioAttackSkill::~ioAttackSkill
__unwindfunclet$??1ioLightAttack@@UAE@XZ$1:
  00008	8b 4d f0	 mov	 ecx, DWORD PTR _this$[ebp]
  0000b	81 c1 e8 10 00
	00		 add	 ecx, 4328		; 000010e8H
  00011	e9 00 00 00 00	 jmp	 ??1?$vector@UBuffInfoStruct@@V?$allocator@UBuffInfoStruct@@@std@@@std@@QAE@XZ ; std::vector<BuffInfoStruct,std::allocator<BuffInfoStruct> >::~vector<BuffInfoStruct,std::allocator<BuffInfoStruct> >
__unwindfunclet$??1ioLightAttack@@UAE@XZ$2:
  00016	8b 4d f0	 mov	 ecx, DWORD PTR _this$[ebp]
  00019	81 c1 f8 10 00
	00		 add	 ecx, 4344		; 000010f8H
  0001f	e9 00 00 00 00	 jmp	 ??1?$vector@UBuffInfoStruct@@V?$allocator@UBuffInfoStruct@@@std@@@std@@QAE@XZ ; std::vector<BuffInfoStruct,std::allocator<BuffInfoStruct> >::~vector<BuffInfoStruct,std::allocator<BuffInfoStruct> >
__unwindfunclet$??1ioLightAttack@@UAE@XZ$3:
  00024	8b 4d f0	 mov	 ecx, DWORD PTR _this$[ebp]
  00027	81 c1 0c 11 00
	00		 add	 ecx, 4364		; 0000110cH
  0002d	ff 25 00 00 00
	00		 jmp	 DWORD PTR __imp_??1ioHashString@@QAE@XZ
__unwindfunclet$??1ioLightAttack@@UAE@XZ$4:
  00033	8b 4d f0	 mov	 ecx, DWORD PTR _this$[ebp]
  00036	81 c1 1c 11 00
	00		 add	 ecx, 4380		; 0000111cH
  0003c	e9 00 00 00 00	 jmp	 ??1?$CEncrypt@M@@UAE@XZ	; CEncrypt<float>::~CEncrypt<float>
__unwindfunclet$??1ioLightAttack@@UAE@XZ$5:
  00041	8b 4d f0	 mov	 ecx, DWORD PTR _this$[ebp]
  00044	81 c1 4c 11 00
	00		 add	 ecx, 4428		; 0000114cH
  0004a	e9 00 00 00 00	 jmp	 ??1?$CEncrypt@K@@UAE@XZ	; CEncrypt<unsigned long>::~CEncrypt<unsigned long>
__unwindfunclet$??1ioLightAttack@@UAE@XZ$6:
  0004f	8b 4d f0	 mov	 ecx, DWORD PTR _this$[ebp]
  00052	81 c1 7c 11 00
	00		 add	 ecx, 4476		; 0000117cH
  00058	e9 00 00 00 00	 jmp	 ??1?$CEncrypt@M@@UAE@XZ	; CEncrypt<float>::~CEncrypt<float>
__unwindfunclet$??1ioLightAttack@@UAE@XZ$7:
  0005d	8b 4d f0	 mov	 ecx, DWORD PTR _this$[ebp]
  00060	81 c1 ac 11 00
	00		 add	 ecx, 4524		; 000011acH
  00066	e9 00 00 00 00	 jmp	 ??1?$CEncrypt@M@@UAE@XZ	; CEncrypt<float>::~CEncrypt<float>
__unwindfunclet$??1ioLightAttack@@UAE@XZ$8:
  0006b	8b 4d f0	 mov	 ecx, DWORD PTR _this$[ebp]
  0006e	81 c1 dc 11 00
	00		 add	 ecx, 4572		; 000011dcH
  00074	e9 00 00 00 00	 jmp	 ??1?$CEncrypt@M@@UAE@XZ	; CEncrypt<float>::~CEncrypt<float>
__unwindfunclet$??1ioLightAttack@@UAE@XZ$9:
  00079	8b 4d f0	 mov	 ecx, DWORD PTR _this$[ebp]
  0007c	81 c1 0c 12 00
	00		 add	 ecx, 4620		; 0000120cH
  00082	ff 25 00 00 00
	00		 jmp	 DWORD PTR __imp_??1ioHashString@@QAE@XZ
__unwindfunclet$??1ioLightAttack@@UAE@XZ$10:
  00088	8b 4d f0	 mov	 ecx, DWORD PTR _this$[ebp]
  0008b	81 c1 1c 12 00
	00		 add	 ecx, 4636		; 0000121cH
  00091	e9 00 00 00 00	 jmp	 ??1?$CEncrypt@M@@UAE@XZ	; CEncrypt<float>::~CEncrypt<float>
__unwindfunclet$??1ioLightAttack@@UAE@XZ$11:
  00096	8b 4d f0	 mov	 ecx, DWORD PTR _this$[ebp]
  00099	81 c1 4c 12 00
	00		 add	 ecx, 4684		; 0000124cH
  0009f	ff 25 00 00 00
	00		 jmp	 DWORD PTR __imp_??1ioHashString@@QAE@XZ
__unwindfunclet$??1ioLightAttack@@UAE@XZ$12:
  000a5	8b 4d f0	 mov	 ecx, DWORD PTR _this$[ebp]
  000a8	81 c1 6c 12 00
	00		 add	 ecx, 4716		; 0000126cH
  000ae	ff 25 00 00 00
	00		 jmp	 DWORD PTR __imp_??1ioHashString@@QAE@XZ
__unwindfunclet$??1ioLightAttack@@UAE@XZ$13:
  000b4	8b 4d f0	 mov	 ecx, DWORD PTR _this$[ebp]
  000b7	81 c1 80 12 00
	00		 add	 ecx, 4736		; 00001280H
  000bd	ff 25 00 00 00
	00		 jmp	 DWORD PTR __imp_??1ioHashString@@QAE@XZ
__unwindfunclet$??1ioLightAttack@@UAE@XZ$14:
  000c3	8b 4d f0	 mov	 ecx, DWORD PTR _this$[ebp]
  000c6	81 c1 ac 12 00
	00		 add	 ecx, 4780		; 000012acH
  000cc	ff 25 00 00 00
	00		 jmp	 DWORD PTR __imp_??1ioHashString@@QAE@XZ
__unwindfunclet$??1ioLightAttack@@UAE@XZ$15:
  000d2	8b 4d f0	 mov	 ecx, DWORD PTR _this$[ebp]
  000d5	81 c1 bc 12 00
	00		 add	 ecx, 4796		; 000012bcH
  000db	ff 25 00 00 00
	00		 jmp	 DWORD PTR __imp_??1ioHashString@@QAE@XZ
__unwindfunclet$??1ioLightAttack@@UAE@XZ$16:
  000e1	8b 4d f0	 mov	 ecx, DWORD PTR _this$[ebp]
  000e4	81 c1 cc 12 00
	00		 add	 ecx, 4812		; 000012ccH
  000ea	ff 25 00 00 00
	00		 jmp	 DWORD PTR __imp_??1ioHashString@@QAE@XZ
__unwindfunclet$??1ioLightAttack@@UAE@XZ$17:
  000f0	8b 4d f0	 mov	 ecx, DWORD PTR _this$[ebp]
  000f3	81 c1 dc 12 00
	00		 add	 ecx, 4828		; 000012dcH
  000f9	e9 00 00 00 00	 jmp	 ??1?$CEncrypt@K@@UAE@XZ	; CEncrypt<unsigned long>::~CEncrypt<unsigned long>
__ehhandler$??1ioLightAttack@@UAE@XZ:
  000fe	8b 54 24 08	 mov	 edx, DWORD PTR [esp+8]
  00102	8d 42 0c	 lea	 eax, DWORD PTR [edx+12]
  00105	8b 4a ec	 mov	 ecx, DWORD PTR [edx-20]
  00108	33 c8		 xor	 ecx, eax
  0010a	e8 00 00 00 00	 call	 @__security_check_cookie@4
  0010f	b8 00 00 00 00	 mov	 eax, OFFSET __ehfuncinfo$??1ioLightAttack@@UAE@XZ
  00114	e9 00 00 00 00	 jmp	 ___CxxFrameHandler3
text$x	ENDS
??1ioLightAttack@@UAE@XZ ENDP				; ioLightAttack::~ioLightAttack
;	COMDAT xdata$x
xdata$x	SEGMENT
__unwindtable$?Clone@ioLightAttack@@UAEPAVioSkill@@XZ DD 0ffffffffH
	DD	FLAT:__unwindfunclet$?Clone@ioLightAttack@@UAEPAVioSkill@@XZ$0
__ehfuncinfo$?Clone@ioLightAttack@@UAEPAVioSkill@@XZ DD 019930522H
	DD	01H
	DD	FLAT:__unwindtable$?Clone@ioLightAttack@@UAEPAVioSkill@@XZ
	DD	2 DUP(00H)
	DD	2 DUP(00H)
	DD	00H
	DD	01H
; Function compile flags: /Ogsp
xdata$x	ENDS
;	COMDAT ?Clone@ioLightAttack@@UAEPAVioSkill@@XZ
_TEXT	SEGMENT
$T555628 = -16						; size = 4
__$EHRec$ = -12						; size = 12
?Clone@ioLightAttack@@UAEPAVioSkill@@XZ PROC		; ioLightAttack::Clone, COMDAT
; _this$ = ecx

; 160  : {

  00000	6a 04		 push	 4
  00002	b8 00 00 00 00	 mov	 eax, __ehhandler$?Clone@ioLightAttack@@UAEPAVioSkill@@XZ
  00007	e8 00 00 00 00	 call	 __EH_prolog3
  0000c	8b f1		 mov	 esi, ecx

; 161  : 	return new ioLightAttack( *this );

  0000e	68 18 13 00 00	 push	 4888			; 00001318H
  00013	e8 00 00 00 00	 call	 ??2@YAPAXI@Z		; operator new
  00018	59		 pop	 ecx
  00019	8b c8		 mov	 ecx, eax
  0001b	89 4d f0	 mov	 DWORD PTR $T555628[ebp], ecx
  0001e	33 c0		 xor	 eax, eax
  00020	89 45 fc	 mov	 DWORD PTR __$EHRec$[ebp+8], eax
  00023	3b c8		 cmp	 ecx, eax
  00025	74 06		 je	 SHORT $LN3@Clone
  00027	56		 push	 esi
  00028	e8 00 00 00 00	 call	 ??0ioLightAttack@@QAE@ABV0@@Z ; ioLightAttack::ioLightAttack
$LN3@Clone:

; 162  : }

  0002d	e8 00 00 00 00	 call	 __EH_epilog3
  00032	c3		 ret	 0
_TEXT	ENDS
;	COMDAT text$x
text$x	SEGMENT
__unwindfunclet$?Clone@ioLightAttack@@UAEPAVioSkill@@XZ$0:
  00000	ff 75 f0	 push	 DWORD PTR $T555628[ebp]
  00003	e8 00 00 00 00	 call	 ??3@YAXPAX@Z		; operator delete
  00008	59		 pop	 ecx
  00009	c3		 ret	 0
__ehhandler$?Clone@ioLightAttack@@UAEPAVioSkill@@XZ:
  0000a	8b 54 24 08	 mov	 edx, DWORD PTR [esp+8]
  0000e	8d 42 0c	 lea	 eax, DWORD PTR [edx+12]
  00011	8b 4a ec	 mov	 ecx, DWORD PTR [edx-20]
  00014	33 c8		 xor	 ecx, eax
  00016	e8 00 00 00 00	 call	 @__security_check_cookie@4
  0001b	b8 00 00 00 00	 mov	 eax, OFFSET __ehfuncinfo$?Clone@ioLightAttack@@UAEPAVioSkill@@XZ
  00020	e9 00 00 00 00	 jmp	 ___CxxFrameHandler3
text$x	ENDS
?Clone@ioLightAttack@@UAEPAVioSkill@@XZ ENDP		; ioLightAttack::Clone
PUBLIC	?push_back@?$vector@UBuffInfoStruct@@V?$allocator@UBuffInfoStruct@@@std@@@std@@QAEXABUBuffInfoStruct@@@Z ; std::vector<BuffInfoStruct,std::allocator<BuffInfoStruct> >::push_back
; Function compile flags: /Ogsp
; File c:\program files (x86)\microsoft visual studio 10.0\vc\include\vector
;	COMDAT ?push_back@?$vector@UBuffInfoStruct@@V?$allocator@UBuffInfoStruct@@@std@@@std@@QAEXABUBuffInfoStruct@@@Z
_TEXT	SEGMENT
__Val$ = 8						; size = 4
?push_back@?$vector@UBuffInfoStruct@@V?$allocator@UBuffInfoStruct@@@std@@@std@@QAEXABUBuffInfoStruct@@@Z PROC ; std::vector<BuffInfoStruct,std::allocator<BuffInfoStruct> >::push_back, COMDAT
; _this$ = ecx

; 976  : 		{	// insert element at end

  00000	55		 push	 ebp
  00001	8b ec		 mov	 ebp, esp
  00003	56		 push	 esi
  00004	8b f1		 mov	 esi, ecx

; 977  : 		if (_Inside(_STD addressof(_Val)))

  00006	8b 4e 04	 mov	 ecx, DWORD PTR [esi+4]
  00009	57		 push	 edi
  0000a	8b 7d 08	 mov	 edi, DWORD PTR __Val$[ebp]
  0000d	3b f9		 cmp	 edi, ecx
  0000f	73 33		 jae	 SHORT $LN4@push_back
  00011	8b 16		 mov	 edx, DWORD PTR [esi]
  00013	3b d7		 cmp	 edx, edi
  00015	77 2d		 ja	 SHORT $LN4@push_back

; 978  : 			{	// push back an element
; 979  : 			size_type _Idx = _STD addressof(_Val) - this->_Myfirst;

  00017	8b c7		 mov	 eax, edi
  00019	2b c2		 sub	 eax, edx
  0001b	6a 14		 push	 20			; 00000014H
  0001d	99		 cdq
  0001e	5f		 pop	 edi
  0001f	f7 ff		 idiv	 edi
  00021	8b f8		 mov	 edi, eax

; 980  : 			if (this->_Mylast == this->_Myend)

  00023	3b 4e 08	 cmp	 ecx, DWORD PTR [esi+8]
  00026	75 09		 jne	 SHORT $LN3@push_back

; 981  : 				_Reserve(1);

  00028	6a 01		 push	 1
  0002a	8b ce		 mov	 ecx, esi
  0002c	e8 00 00 00 00	 call	 ?_Reserve@?$vector@UBuffInfoStruct@@V?$allocator@UBuffInfoStruct@@@std@@@std@@IAEXI@Z ; std::vector<BuffInfoStruct,std::allocator<BuffInfoStruct> >::_Reserve
$LN3@push_back:

; 982  : 			_Orphan_range(this->_Mylast, this->_Mylast);
; 983  : 			_Cons_val(this->_Alval,
; 984  : 				this->_Mylast,
; 985  : 				this->_Myfirst[_Idx]);

  00031	6b ff 14	 imul	 edi, 20			; 00000014H
  00034	03 3e		 add	 edi, DWORD PTR [esi]
  00036	8d 4e 0c	 lea	 ecx, DWORD PTR [esi+12]
  00039	57		 push	 edi
  0003a	ff 76 04	 push	 DWORD PTR [esi+4]
  0003d	e8 00 00 00 00	 call	 ??$construct@AAUBuffInfoStruct@@@?$allocator@UBuffInfoStruct@@@std@@QAEXPAUBuffInfoStruct@@AAU2@@Z ; std::allocator<BuffInfoStruct>::construct<BuffInfoStruct &>

; 986  : 			++this->_Mylast;
; 987  : 			}
; 988  : 		else

  00042	eb 19		 jmp	 SHORT $LN30@push_back
$LN4@push_back:

; 989  : 			{	// push back a non-element
; 990  : 			if (this->_Mylast == this->_Myend)

  00044	3b 4e 08	 cmp	 ecx, DWORD PTR [esi+8]
  00047	75 09		 jne	 SHORT $LN1@push_back

; 991  : 				_Reserve(1);

  00049	6a 01		 push	 1
  0004b	8b ce		 mov	 ecx, esi
  0004d	e8 00 00 00 00	 call	 ?_Reserve@?$vector@UBuffInfoStruct@@V?$allocator@UBuffInfoStruct@@@std@@@std@@IAEXI@Z ; std::vector<BuffInfoStruct,std::allocator<BuffInfoStruct> >::_Reserve
$LN1@push_back:

; 992  : 			_Orphan_range(this->_Mylast, this->_Mylast);
; 993  : 			_Cons_val(this->_Alval,
; 994  : 				this->_Mylast,
; 995  : 				_Val);

  00052	57		 push	 edi
  00053	ff 76 04	 push	 DWORD PTR [esi+4]
  00056	e8 00 00 00 00	 call	 ??$_Construct@UBuffInfoStruct@@ABU1@@std@@YAXPAUBuffInfoStruct@@ABU1@@Z ; std::_Construct<BuffInfoStruct,BuffInfoStruct const &>
  0005b	59		 pop	 ecx
  0005c	59		 pop	 ecx
$LN30@push_back:

; 996  : 			++this->_Mylast;

  0005d	83 46 04 14	 add	 DWORD PTR [esi+4], 20	; 00000014H
  00061	5f		 pop	 edi
  00062	5e		 pop	 esi

; 997  : 			}
; 998  : 		}

  00063	5d		 pop	 ebp
  00064	c2 04 00	 ret	 4
?push_back@?$vector@UBuffInfoStruct@@V?$allocator@UBuffInfoStruct@@@std@@@std@@QAEXABUBuffInfoStruct@@@Z ENDP ; std::vector<BuffInfoStruct,std::allocator<BuffInfoStruct> >::push_back
_TEXT	ENDS
PUBLIC	?clear@?$vector@UBuffInfoStruct@@V?$allocator@UBuffInfoStruct@@@std@@@std@@QAEXXZ ; std::vector<BuffInfoStruct,std::allocator<BuffInfoStruct> >::clear
; Function compile flags: /Ogsp
;	COMDAT ?clear@?$vector@UBuffInfoStruct@@V?$allocator@UBuffInfoStruct@@@std@@@std@@QAEXXZ
_TEXT	SEGMENT
$T555691 = -4						; size = 4
?clear@?$vector@UBuffInfoStruct@@V?$allocator@UBuffInfoStruct@@@std@@@std@@QAEXXZ PROC ; std::vector<BuffInfoStruct,std::allocator<BuffInfoStruct> >::clear, COMDAT
; _this$ = ecx

; 1217 : 		{	// erase all

  00000	55		 push	 ebp
  00001	8b ec		 mov	 ebp, esp
  00003	51		 push	 ecx

; 1218 : 		erase(begin(), end());

  00004	8b 41 04	 mov	 eax, DWORD PTR [ecx+4]
  00007	8b 11		 mov	 edx, DWORD PTR [ecx]
  00009	50		 push	 eax
  0000a	52		 push	 edx
  0000b	8d 45 fc	 lea	 eax, DWORD PTR $T555691[ebp]
  0000e	50		 push	 eax
  0000f	e8 00 00 00 00	 call	 ?erase@?$vector@UBuffInfoStruct@@V?$allocator@UBuffInfoStruct@@@std@@@std@@QAE?AV?$_Vector_iterator@V?$_Vector_val@UBuffInfoStruct@@V?$allocator@UBuffInfoStruct@@@std@@@std@@@2@V?$_Vector_const_iterator@V?$_Vector_val@UBuffInfoStruct@@V?$allocator@UBuffInfoStruct@@@std@@@std@@@2@0@Z ; std::vector<BuffInfoStruct,std::allocator<BuffInfoStruct> >::erase

; 1219 : 		}

  00014	c9		 leave
  00015	c3		 ret	 0
?clear@?$vector@UBuffInfoStruct@@V?$allocator@UBuffInfoStruct@@@std@@@std@@QAEXXZ ENDP ; std::vector<BuffInfoStruct,std::allocator<BuffInfoStruct> >::clear
; Function compile flags: /Ogsp
_TEXT	ENDS
;	COMDAT ??_GioLightAttack@@UAEPAXI@Z
_TEXT	SEGMENT
___flags$ = 8						; size = 4
??_GioLightAttack@@UAEPAXI@Z PROC			; ioLightAttack::`scalar deleting destructor', COMDAT
; _this$ = ecx
  00000	55		 push	 ebp
  00001	8b ec		 mov	 ebp, esp
  00003	56		 push	 esi
  00004	8b f1		 mov	 esi, ecx
  00006	e8 00 00 00 00	 call	 ??1ioLightAttack@@UAE@XZ ; ioLightAttack::~ioLightAttack
  0000b	f6 45 08 01	 test	 BYTE PTR ___flags$[ebp], 1
  0000f	74 07		 je	 SHORT $LN1@scalar@5
  00011	56		 push	 esi
  00012	e8 00 00 00 00	 call	 ??3@YAXPAX@Z		; operator delete
  00017	59		 pop	 ecx
$LN1@scalar@5:
  00018	8b c6		 mov	 eax, esi
  0001a	5e		 pop	 esi
  0001b	5d		 pop	 ebp
  0001c	c2 04 00	 ret	 4
??_GioLightAttack@@UAEPAXI@Z ENDP			; ioLightAttack::`scalar deleting destructor'
_TEXT	ENDS
PUBLIC	_rkLoader$GSCopy$
PUBLIC	?LoadActionOwnerBuffList@ioLightAttack@@QAEXAAVioINILoader@@@Z ; ioLightAttack::LoadActionOwnerBuffList
EXTRN	?GetBuffType@ioBuffMaker@@QBEHABVioHashString@@@Z:PROC ; ioBuffMaker::GetBuffType
EXTRN	?GetSingleton@ioBuffMaker@@SAAAV1@XZ:PROC	; ioBuffMaker::GetSingleton
EXTRN	__imp_??4ioHashString@@QAEAAV0@PBD@Z:PROC
EXTRN	__imp__wsprintfA:PROC
EXTRN	__EH_epilog3_GS:PROC
EXTRN	__EH_prolog3_GS:PROC
;	COMDAT xdata$x
; File d:\lost saga for developer\youtube\tutorial\source\src\lsclient\weaponattribute.h
xdata$x	SEGMENT
__unwindtable$?LoadActionOwnerBuffList@ioLightAttack@@QAEXAAVioINILoader@@@Z DD 0ffffffffH
	DD	FLAT:__unwindfunclet$?LoadActionOwnerBuffList@ioLightAttack@@QAEXAAVioINILoader@@@Z$0
__ehfuncinfo$?LoadActionOwnerBuffList@ioLightAttack@@QAEXAAVioINILoader@@@Z DD 019930522H
	DD	01H
	DD	FLAT:__unwindtable$?LoadActionOwnerBuffList@ioLightAttack@@QAEXAAVioINILoader@@@Z
	DD	2 DUP(00H)
	DD	2 DUP(00H)
	DD	00H
	DD	01H
; Function compile flags: /Ogsp
; File d:\lost saga for developer\youtube\tutorial\source\src\lsclient\iolightattack.cpp
xdata$x	ENDS
;	COMDAT ?LoadActionOwnerBuffList@ioLightAttack@@QAEXAAVioINILoader@@@Z
_TEXT	SEGMENT
$T555935 = -620						; size = 4
_tBuffInfo$548419 = -616				; size = 20
_iCnt$ = -596						; size = 4
_rkLoader$GSCopy$ = -592				; size = 4
_szTitle$ = -588					; size = 260
_szBuf$ = -328						; size = 260
___encStr$548269 = -68					; size = 20
__k$555763 = -44					; size = 22
__$EHRec$ = -12						; size = 12
_rkLoader$ = 8						; size = 4
?LoadActionOwnerBuffList@ioLightAttack@@QAEXAAVioINILoader@@@Z PROC ; ioLightAttack::LoadActionOwnerBuffList, COMDAT
; _this$ = ecx

; 93   : {

  00000	68 60 02 00 00	 push	 608			; 00000260H
  00005	b8 00 00 00 00	 mov	 eax, __ehhandler$?LoadActionOwnerBuffList@ioLightAttack@@QAEXAAVioINILoader@@@Z
  0000a	e8 00 00 00 00	 call	 __EH_prolog3_GS
  0000f	8b f1		 mov	 esi, ecx
  00011	8b 4d 08	 mov	 ecx, DWORD PTR _rkLoader$[ebp]

; 94   : 	int iCnt = rkLoader.LoadInt_e( "action_owner_buff_cnt", 0 );

  00014	6a 05		 push	 5

; 115  : 			}
; 116  : 		}
; 117  : 	}

  00016	89 8d b0 fd ff
	ff		 mov	 DWORD PTR _rkLoader$GSCopy$[ebp], ecx
  0001c	c7 45 d4 8c 8f
	9f 83		 mov	 DWORD PTR __k$555763[ebp], -2086695028 ; 839f8f8cH
  00023	c7 45 d8 82 82
	b4 85		 mov	 DWORD PTR __k$555763[ebp+4], -2051767678 ; 85b48282H
  0002a	c7 45 dc 9a 82
	8e 98		 mov	 DWORD PTR __k$555763[ebp+8], -1735490918 ; 988e829aH
  00031	c7 45 e0 b2 8e
	9e 8c		 mov	 DWORD PTR __k$555763[ebp+12], -1935765838 ; 8c9e8eb2H
  00038	c7 45 e4 8b b3
	88 84		 mov	 DWORD PTR __k$555763[ebp+16], -2071415925 ; 8488b38bH
  0003f	8d 45 d4	 lea	 eax, DWORD PTR __k$555763[ebp]
  00042	66 c7 45 e8 99
	00		 mov	 WORD PTR __k$555763[ebp+20], 153 ; 00000099H
  00048	5a		 pop	 edx
$LL212@LoadAction:

; 94   : 	int iCnt = rkLoader.LoadInt_e( "action_owner_buff_cnt", 0 );

  00049	81 30 ed ec eb
	ea		 xor	 DWORD PTR [eax], -353637139 ; eaebecedH
  0004f	83 c0 04	 add	 eax, 4
  00052	4a		 dec	 edx
  00053	75 f4		 jne	 SHORT $LL212@LoadAction
  00055	80 75 e8 ed	 xor	 BYTE PTR __k$555763[ebp+20], -19 ; ffffffedH
  00059	52		 push	 edx
  0005a	8d 45 d4	 lea	 eax, DWORD PTR __k$555763[ebp]
  0005d	50		 push	 eax
  0005e	ff 15 00 00 00
	00		 call	 DWORD PTR __imp_?LoadInt@ioINILoader@@QAEHPBDH@Z
  00064	8b f8		 mov	 edi, eax

; 95   : 	m_ActionOwnerBuffList.clear();

  00066	8b 86 fc 10 00
	00		 mov	 eax, DWORD PTR [esi+4348]
  0006c	81 c6 f8 10 00
	00		 add	 esi, 4344		; 000010f8H
  00072	8b 0e		 mov	 ecx, DWORD PTR [esi]
  00074	50		 push	 eax
  00075	51		 push	 ecx
  00076	8d 85 94 fd ff
	ff		 lea	 eax, DWORD PTR $T555935[ebp]
  0007c	50		 push	 eax
  0007d	8b ce		 mov	 ecx, esi
  0007f	89 bd ac fd ff
	ff		 mov	 DWORD PTR _iCnt$[ebp], edi
  00085	e8 00 00 00 00	 call	 ?erase@?$vector@UBuffInfoStruct@@V?$allocator@UBuffInfoStruct@@@std@@@std@@QAE?AV?$_Vector_iterator@V?$_Vector_val@UBuffInfoStruct@@V?$allocator@UBuffInfoStruct@@@std@@@std@@@2@V?$_Vector_const_iterator@V?$_Vector_val@UBuffInfoStruct@@V?$allocator@UBuffInfoStruct@@@std@@@std@@@2@0@Z ; std::vector<BuffInfoStruct,std::allocator<BuffInfoStruct> >::erase

; 96   : 
; 97   : 	if( iCnt <= 0 ) return;

  0008a	85 ff		 test	 edi, edi
  0008c	0f 8e 1d 01 00
	00		 jle	 $LN102@LoadAction

; 98   : 	m_ActionOwnerBuffList.reserve( iCnt );

  00092	57		 push	 edi
  00093	8b ce		 mov	 ecx, esi
  00095	e8 00 00 00 00	 call	 ?reserve@?$vector@UBuffInfoStruct@@V?$allocator@UBuffInfoStruct@@@std@@@std@@QAEXI@Z ; std::vector<BuffInfoStruct,std::allocator<BuffInfoStruct> >::reserve

; 99   : 
; 100  : 	char szTitle[MAX_PATH], szBuf[MAX_PATH];
; 101  : 	for( int i=0; i < iCnt; ++i )

  0009a	33 d2		 xor	 edx, edx
  0009c	85 ff		 test	 edi, edi
  0009e	0f 8e 0b 01 00
	00		 jle	 $LN102@LoadAction
$LL104@LoadAction:

; 95   : 	m_ActionOwnerBuffList.clear();

  000a4	6a 04		 push	 4

; 102  : 	{
; 103  : 		wsprintf_e( szTitle, "action_owner_buff%d", i+1 );

  000a6	c7 45 bc 8c 8f
	9f 83		 mov	 DWORD PTR ___encStr$548269[ebp], -2086695028 ; 839f8f8cH
  000ad	c7 45 c0 82 82
	b4 85		 mov	 DWORD PTR ___encStr$548269[ebp+4], -2051767678 ; 85b48282H
  000b4	c7 45 c4 9a 82
	8e 98		 mov	 DWORD PTR ___encStr$548269[ebp+8], -1735490918 ; 988e829aH
  000bb	c7 45 c8 b2 8e
	9e 8c		 mov	 DWORD PTR ___encStr$548269[ebp+12], -1935765838 ; 8c9e8eb2H
  000c2	8d 45 bc	 lea	 eax, DWORD PTR ___encStr$548269[ebp]
  000c5	c7 45 cc 8b c9
	8f 00		 mov	 DWORD PTR ___encStr$548269[ebp+16], 9423243 ; 008fc98bH
  000cc	59		 pop	 ecx
$LL238@LoadAction:
  000cd	81 30 ed ec eb
	ea		 xor	 DWORD PTR [eax], -353637139 ; eaebecedH
  000d3	83 c0 04	 add	 eax, 4
  000d6	49		 dec	 ecx
  000d7	75 f4		 jne	 SHORT $LL238@LoadAction
  000d9	6a 10		 push	 16			; 00000010H
  000db	5f		 pop	 edi
$LL235@LoadAction:
  000dc	8b c7		 mov	 eax, edi
  000de	25 03 00 00 80	 and	 eax, -2147483645	; 80000003H
  000e3	79 05		 jns	 SHORT $LN255@LoadAction
  000e5	48		 dec	 eax
  000e6	83 c8 fc	 or	 eax, -4			; fffffffcH
  000e9	40		 inc	 eax
$LN255@LoadAction:
  000ea	b1 ed		 mov	 cl, -19			; ffffffedH
  000ec	2a c8		 sub	 cl, al
  000ee	30 4c 3d bc	 xor	 BYTE PTR ___encStr$548269[ebp+edi], cl
  000f2	47		 inc	 edi
  000f3	83 ff 13	 cmp	 edi, 19			; 00000013H
  000f6	7c e4		 jl	 SHORT $LL235@LoadAction
  000f8	8d 7a 01	 lea	 edi, DWORD PTR [edx+1]
  000fb	57		 push	 edi
  000fc	8d 45 bc	 lea	 eax, DWORD PTR ___encStr$548269[ebp]
  000ff	50		 push	 eax
  00100	8d 85 b4 fd ff
	ff		 lea	 eax, DWORD PTR _szTitle$[ebp]
  00106	50		 push	 eax
  00107	ff 15 00 00 00
	00		 call	 DWORD PTR __imp__wsprintfA

; 104  : 		rkLoader.LoadString( szTitle, "", szBuf, MAX_PATH );

  0010d	8b 8d b0 fd ff
	ff		 mov	 ecx, DWORD PTR _rkLoader$GSCopy$[ebp]
  00113	83 c4 0c	 add	 esp, 12			; 0000000cH
  00116	68 04 01 00 00	 push	 260			; 00000104H
  0011b	8d 85 b8 fe ff
	ff		 lea	 eax, DWORD PTR _szBuf$[ebp]
  00121	50		 push	 eax
  00122	68 00 00 00 00	 push	 OFFSET ??_C@_00CNPNBAHC@?$AA@
  00127	8d 85 b4 fd ff
	ff		 lea	 eax, DWORD PTR _szTitle$[ebp]
  0012d	50		 push	 eax
  0012e	ff 15 00 00 00
	00		 call	 DWORD PTR __imp_?LoadStringA@ioINILoader@@QAEXPBD0PADH@Z

; 105  : 
; 106  : 		ioBuffInfo tBuffInfo;

  00134	8d 8d 98 fd ff
	ff		 lea	 ecx, DWORD PTR _tBuffInfo$548419[ebp]
  0013a	e8 00 00 00 00	 call	 ??0BuffInfoStruct@@QAE@XZ ; BuffInfoStruct::BuffInfoStruct
  0013f	83 65 fc 00	 and	 DWORD PTR __$EHRec$[ebp+8], 0

; 107  : 		tBuffInfo.m_BuffName = szBuf;

  00143	8d 85 b8 fe ff
	ff		 lea	 eax, DWORD PTR _szBuf$[ebp]
  00149	50		 push	 eax
  0014a	8d 8d 98 fd ff
	ff		 lea	 ecx, DWORD PTR _tBuffInfo$548419[ebp]
  00150	ff 15 00 00 00
	00		 call	 DWORD PTR __imp_??4ioHashString@@QAEAAV0@PBD@Z

; 108  : 
; 109  : 		if( !tBuffInfo.m_BuffName.IsEmpty() )

  00156	8d 8d 98 fd ff
	ff		 lea	 ecx, DWORD PTR _tBuffInfo$548419[ebp]
  0015c	ff 15 00 00 00
	00		 call	 DWORD PTR __imp_?IsEmpty@ioHashString@@QBE_NXZ
  00162	84 c0		 test	 al, al
  00164	75 2b		 jne	 SHORT $LN1@LoadAction

; 110  : 		{
; 111  : 			tBuffInfo.m_iBuffType = g_BuffMaker.GetBuffType( tBuffInfo.m_BuffName );

  00166	8d 85 98 fd ff
	ff		 lea	 eax, DWORD PTR _tBuffInfo$548419[ebp]
  0016c	50		 push	 eax
  0016d	e8 00 00 00 00	 call	 ?GetSingleton@ioBuffMaker@@SAAAV1@XZ ; ioBuffMaker::GetSingleton
  00172	8b c8		 mov	 ecx, eax
  00174	e8 00 00 00 00	 call	 ?GetBuffType@ioBuffMaker@@QBEHABVioHashString@@@Z ; ioBuffMaker::GetBuffType
  00179	89 85 a8 fd ff
	ff		 mov	 DWORD PTR _tBuffInfo$548419[ebp+16], eax

; 112  : 			if( tBuffInfo.m_iBuffType != BT_NONE )

  0017f	85 c0		 test	 eax, eax
  00181	74 0e		 je	 SHORT $LN1@LoadAction

; 113  : 			{
; 114  : 				m_ActionOwnerBuffList.push_back( tBuffInfo );

  00183	8d 85 98 fd ff
	ff		 lea	 eax, DWORD PTR _tBuffInfo$548419[ebp]
  00189	50		 push	 eax
  0018a	8b ce		 mov	 ecx, esi
  0018c	e8 00 00 00 00	 call	 ?push_back@?$vector@UBuffInfoStruct@@V?$allocator@UBuffInfoStruct@@@std@@@std@@QAEXABUBuffInfoStruct@@@Z ; std::vector<BuffInfoStruct,std::allocator<BuffInfoStruct> >::push_back
$LN1@LoadAction:

; 115  : 			}
; 116  : 		}
; 117  : 	}

  00191	83 4d fc ff	 or	 DWORD PTR __$EHRec$[ebp+8], -1
  00195	8d 8d 98 fd ff
	ff		 lea	 ecx, DWORD PTR _tBuffInfo$548419[ebp]
  0019b	ff 15 00 00 00
	00		 call	 DWORD PTR __imp_??1ioHashString@@QAE@XZ
  001a1	8b d7		 mov	 edx, edi
  001a3	3b 95 ac fd ff
	ff		 cmp	 edx, DWORD PTR _iCnt$[ebp]
  001a9	0f 8c f5 fe ff
	ff		 jl	 $LL104@LoadAction
$LN102@LoadAction:

; 118  : }

  001af	e8 00 00 00 00	 call	 __EH_epilog3_GS
  001b4	c2 04 00	 ret	 4
_TEXT	ENDS
;	COMDAT text$x
text$x	SEGMENT
__unwindfunclet$?LoadActionOwnerBuffList@ioLightAttack@@QAEXAAVioINILoader@@@Z$0:
  00000	8d 8d 98 fd ff
	ff		 lea	 ecx, DWORD PTR _tBuffInfo$548419[ebp]
  00006	e9 00 00 00 00	 jmp	 ??1BuffInfoStruct@@QAE@XZ
__ehhandler$?LoadActionOwnerBuffList@ioLightAttack@@QAEXAAVioINILoader@@@Z:
  0000b	8b 54 24 08	 mov	 edx, DWORD PTR [esp+8]
  0000f	8d 42 0c	 lea	 eax, DWORD PTR [edx+12]
  00012	8b 8a 90 fd ff
	ff		 mov	 ecx, DWORD PTR [edx-624]
  00018	33 c8		 xor	 ecx, eax
  0001a	e8 00 00 00 00	 call	 @__security_check_cookie@4
  0001f	8b 4a fc	 mov	 ecx, DWORD PTR [edx-4]
  00022	33 c8		 xor	 ecx, eax
  00024	e8 00 00 00 00	 call	 @__security_check_cookie@4
  00029	b8 00 00 00 00	 mov	 eax, OFFSET __ehfuncinfo$?LoadActionOwnerBuffList@ioLightAttack@@QAEXAAVioINILoader@@@Z
  0002e	e9 00 00 00 00	 jmp	 ___CxxFrameHandler3
text$x	ENDS
?LoadActionOwnerBuffList@ioLightAttack@@QAEXAAVioINILoader@@@Z ENDP ; ioLightAttack::LoadActionOwnerBuffList
PUBLIC	?LoadOwnerBuffList@ioLightAttack@@QAEXAAVioINILoader@@@Z ; ioLightAttack::LoadOwnerBuffList
;	COMDAT xdata$x
; File d:\lost saga for developer\youtube\tutorial\source\src\lsclient\weaponattribute.h
xdata$x	SEGMENT
__unwindtable$?LoadOwnerBuffList@ioLightAttack@@QAEXAAVioINILoader@@@Z DD 0ffffffffH
	DD	FLAT:__unwindfunclet$?LoadOwnerBuffList@ioLightAttack@@QAEXAAVioINILoader@@@Z$0
__ehfuncinfo$?LoadOwnerBuffList@ioLightAttack@@QAEXAAVioINILoader@@@Z DD 019930522H
	DD	01H
	DD	FLAT:__unwindtable$?LoadOwnerBuffList@ioLightAttack@@QAEXAAVioINILoader@@@Z
	DD	2 DUP(00H)
	DD	2 DUP(00H)
	DD	00H
	DD	01H
; Function compile flags: /Ogsp
; File d:\lost saga for developer\youtube\tutorial\source\src\lsclient\iolightattack.cpp
xdata$x	ENDS
;	COMDAT ?LoadOwnerBuffList@ioLightAttack@@QAEXAAVioINILoader@@@Z
_TEXT	SEGMENT
$T556181 = -604						; size = 4
_tBuffInfo$548591 = -600				; size = 20
_iCnt$ = -580						; size = 4
_szTitle$ = -576					; size = 260
_szBuf$ = -316						; size = 260
___encStr$548442 = -56					; size = 13
__k$556009 = -36					; size = 15
__$EHRec$ = -12						; size = 12
_rkLoader$ = 8						; size = 4
?LoadOwnerBuffList@ioLightAttack@@QAEXAAVioINILoader@@@Z PROC ; ioLightAttack::LoadOwnerBuffList, COMDAT
; _this$ = ecx

; 121  : {

  00000	68 50 02 00 00	 push	 592			; 00000250H
  00005	b8 00 00 00 00	 mov	 eax, __ehhandler$?LoadOwnerBuffList@ioLightAttack@@QAEXAAVioINILoader@@@Z
  0000a	e8 00 00 00 00	 call	 __EH_prolog3_GS
  0000f	8b 5d 08	 mov	 ebx, DWORD PTR _rkLoader$[ebp]

; 122  : 	int iCnt = rkLoader.LoadInt_e( "owner_buff_cnt", 0 );

  00012	6a 03		 push	 3
  00014	8b f1		 mov	 esi, ecx
  00016	c7 45 dc 82 9b
	85 8f		 mov	 DWORD PTR __k$556009[ebp], -1887069310 ; 8f859b82H
  0001d	c7 45 e0 9f b3
	89 9f		 mov	 DWORD PTR __k$556009[ebp+4], -1618365537 ; 9f89b39fH
  00024	c7 45 e4 8b 8a
	b4 89		 mov	 DWORD PTR __k$556009[ebp+8], -1984656757 ; 89b48a8bH
  0002b	66 c7 45 e8 83
	98		 mov	 WORD PTR __k$556009[ebp+12], 39043 ; 00009883H
  00031	8d 45 dc	 lea	 eax, DWORD PTR __k$556009[ebp]
  00034	c6 45 ea 00	 mov	 BYTE PTR __k$556009[ebp+14], 0
  00038	59		 pop	 ecx
$LL212@LoadOwnerB:
  00039	81 30 ed ec eb
	ea		 xor	 DWORD PTR [eax], -353637139 ; eaebecedH
  0003f	83 c0 04	 add	 eax, 4
  00042	49		 dec	 ecx
  00043	75 f4		 jne	 SHORT $LL212@LoadOwnerB
  00045	6a 0c		 push	 12			; 0000000cH
  00047	5f		 pop	 edi
$LL209@LoadOwnerB:
  00048	8b c7		 mov	 eax, edi
  0004a	25 03 00 00 80	 and	 eax, -2147483645	; 80000003H
  0004f	79 05		 jns	 SHORT $LN256@LoadOwnerB
  00051	48		 dec	 eax
  00052	83 c8 fc	 or	 eax, -4			; fffffffcH
  00055	40		 inc	 eax
$LN256@LoadOwnerB:
  00056	b1 ed		 mov	 cl, -19			; ffffffedH
  00058	2a c8		 sub	 cl, al
  0005a	30 4c 3d dc	 xor	 BYTE PTR __k$556009[ebp+edi], cl
  0005e	47		 inc	 edi
  0005f	83 ff 0e	 cmp	 edi, 14			; 0000000eH
  00062	7c e4		 jl	 SHORT $LL209@LoadOwnerB
  00064	6a 00		 push	 0
  00066	8d 45 dc	 lea	 eax, DWORD PTR __k$556009[ebp]
  00069	50		 push	 eax
  0006a	8b cb		 mov	 ecx, ebx
  0006c	ff 15 00 00 00
	00		 call	 DWORD PTR __imp_?LoadInt@ioINILoader@@QAEHPBDH@Z
  00072	8b f8		 mov	 edi, eax

; 123  : 	m_OwnerBuffList.clear();

  00074	8b 86 ec 10 00
	00		 mov	 eax, DWORD PTR [esi+4332]
  0007a	81 c6 e8 10 00
	00		 add	 esi, 4328		; 000010e8H
  00080	8b 0e		 mov	 ecx, DWORD PTR [esi]
  00082	50		 push	 eax
  00083	51		 push	 ecx
  00084	8d 85 a4 fd ff
	ff		 lea	 eax, DWORD PTR $T556181[ebp]
  0008a	50		 push	 eax
  0008b	8b ce		 mov	 ecx, esi
  0008d	89 bd bc fd ff
	ff		 mov	 DWORD PTR _iCnt$[ebp], edi
  00093	e8 00 00 00 00	 call	 ?erase@?$vector@UBuffInfoStruct@@V?$allocator@UBuffInfoStruct@@@std@@@std@@QAE?AV?$_Vector_iterator@V?$_Vector_val@UBuffInfoStruct@@V?$allocator@UBuffInfoStruct@@@std@@@std@@@2@V?$_Vector_const_iterator@V?$_Vector_val@UBuffInfoStruct@@V?$allocator@UBuffInfoStruct@@@std@@@std@@@2@0@Z ; std::vector<BuffInfoStruct,std::allocator<BuffInfoStruct> >::erase

; 124  : 
; 125  : 	if( iCnt <= 0 ) return;

  00098	85 ff		 test	 edi, edi
  0009a	0f 8e f0 00 00
	00		 jle	 $LN102@LoadOwnerB

; 126  : 	m_OwnerBuffList.reserve( iCnt );

  000a0	57		 push	 edi
  000a1	8b ce		 mov	 ecx, esi
  000a3	e8 00 00 00 00	 call	 ?reserve@?$vector@UBuffInfoStruct@@V?$allocator@UBuffInfoStruct@@@std@@@std@@QAEXI@Z ; std::vector<BuffInfoStruct,std::allocator<BuffInfoStruct> >::reserve

; 127  : 
; 128  : 	char szTitle[MAX_PATH], szBuf[MAX_PATH];
; 129  : 	for( int i=0; i < iCnt; ++i )

  000a8	33 d2		 xor	 edx, edx
  000aa	85 ff		 test	 edi, edi
  000ac	0f 8e de 00 00
	00		 jle	 $LN102@LoadOwnerB
$LN104@LoadOwnerB:

; 123  : 	m_OwnerBuffList.clear();

  000b2	6a 03		 push	 3

; 130  : 	{
; 131  : 		wsprintf_e( szTitle, "owner_buff%d", i+1 );

  000b4	c7 45 c8 82 9b
	85 8f		 mov	 DWORD PTR ___encStr$548442[ebp], -1887069310 ; 8f859b82H
  000bb	c7 45 cc 9f b3
	89 9f		 mov	 DWORD PTR ___encStr$548442[ebp+4], -1618365537 ; 9f89b39fH
  000c2	c7 45 d0 8b 8a
	ce 8e		 mov	 DWORD PTR ___encStr$548442[ebp+8], -1899066741 ; 8ece8a8bH
  000c9	8d 45 c8	 lea	 eax, DWORD PTR ___encStr$548442[ebp]
  000cc	c6 45 d4 00	 mov	 BYTE PTR ___encStr$548442[ebp+12], 0
  000d0	59		 pop	 ecx
$LL238@LoadOwnerB:
  000d1	81 30 ed ec eb
	ea		 xor	 DWORD PTR [eax], -353637139 ; eaebecedH
  000d7	83 c0 04	 add	 eax, 4
  000da	49		 dec	 ecx
  000db	75 f4		 jne	 SHORT $LL238@LoadOwnerB
  000dd	8d 7a 01	 lea	 edi, DWORD PTR [edx+1]
  000e0	57		 push	 edi
  000e1	8d 45 c8	 lea	 eax, DWORD PTR ___encStr$548442[ebp]
  000e4	50		 push	 eax
  000e5	8d 85 c0 fd ff
	ff		 lea	 eax, DWORD PTR _szTitle$[ebp]
  000eb	50		 push	 eax
  000ec	ff 15 00 00 00
	00		 call	 DWORD PTR __imp__wsprintfA
  000f2	83 c4 0c	 add	 esp, 12			; 0000000cH

; 132  : 		rkLoader.LoadString( szTitle, "", szBuf, MAX_PATH );

  000f5	68 04 01 00 00	 push	 260			; 00000104H
  000fa	8d 85 c4 fe ff
	ff		 lea	 eax, DWORD PTR _szBuf$[ebp]
  00100	50		 push	 eax
  00101	68 00 00 00 00	 push	 OFFSET ??_C@_00CNPNBAHC@?$AA@
  00106	8d 85 c0 fd ff
	ff		 lea	 eax, DWORD PTR _szTitle$[ebp]
  0010c	50		 push	 eax
  0010d	8b cb		 mov	 ecx, ebx
  0010f	ff 15 00 00 00
	00		 call	 DWORD PTR __imp_?LoadStringA@ioINILoader@@QAEXPBD0PADH@Z

; 133  : 
; 134  : 		ioBuffInfo tBuffInfo;

  00115	8d 8d a8 fd ff
	ff		 lea	 ecx, DWORD PTR _tBuffInfo$548591[ebp]
  0011b	e8 00 00 00 00	 call	 ??0BuffInfoStruct@@QAE@XZ ; BuffInfoStruct::BuffInfoStruct
  00120	83 65 fc 00	 and	 DWORD PTR __$EHRec$[ebp+8], 0

; 135  : 		tBuffInfo.m_BuffName = szBuf;

  00124	8d 85 c4 fe ff
	ff		 lea	 eax, DWORD PTR _szBuf$[ebp]
  0012a	50		 push	 eax
  0012b	8d 8d a8 fd ff
	ff		 lea	 ecx, DWORD PTR _tBuffInfo$548591[ebp]
  00131	ff 15 00 00 00
	00		 call	 DWORD PTR __imp_??4ioHashString@@QAEAAV0@PBD@Z

; 136  : 
; 137  : 		if( !tBuffInfo.m_BuffName.IsEmpty() )

  00137	8d 8d a8 fd ff
	ff		 lea	 ecx, DWORD PTR _tBuffInfo$548591[ebp]
  0013d	ff 15 00 00 00
	00		 call	 DWORD PTR __imp_?IsEmpty@ioHashString@@QBE_NXZ
  00143	84 c0		 test	 al, al
  00145	75 2b		 jne	 SHORT $LN1@LoadOwnerB

; 138  : 		{
; 139  : 			tBuffInfo.m_iBuffType = g_BuffMaker.GetBuffType( tBuffInfo.m_BuffName );

  00147	8d 85 a8 fd ff
	ff		 lea	 eax, DWORD PTR _tBuffInfo$548591[ebp]
  0014d	50		 push	 eax
  0014e	e8 00 00 00 00	 call	 ?GetSingleton@ioBuffMaker@@SAAAV1@XZ ; ioBuffMaker::GetSingleton
  00153	8b c8		 mov	 ecx, eax
  00155	e8 00 00 00 00	 call	 ?GetBuffType@ioBuffMaker@@QBEHABVioHashString@@@Z ; ioBuffMaker::GetBuffType
  0015a	89 85 b8 fd ff
	ff		 mov	 DWORD PTR _tBuffInfo$548591[ebp+16], eax

; 140  : 			if( tBuffInfo.m_iBuffType != BT_NONE )

  00160	85 c0		 test	 eax, eax
  00162	74 0e		 je	 SHORT $LN1@LoadOwnerB

; 141  : 			{
; 142  : 				m_OwnerBuffList.push_back( tBuffInfo );

  00164	8d 85 a8 fd ff
	ff		 lea	 eax, DWORD PTR _tBuffInfo$548591[ebp]
  0016a	50		 push	 eax
  0016b	8b ce		 mov	 ecx, esi
  0016d	e8 00 00 00 00	 call	 ?push_back@?$vector@UBuffInfoStruct@@V?$allocator@UBuffInfoStruct@@@std@@@std@@QAEXABUBuffInfoStruct@@@Z ; std::vector<BuffInfoStruct,std::allocator<BuffInfoStruct> >::push_back
$LN1@LoadOwnerB:

; 143  : 			}
; 144  : 		}
; 145  : 	}

  00172	83 4d fc ff	 or	 DWORD PTR __$EHRec$[ebp+8], -1
  00176	8d 8d a8 fd ff
	ff		 lea	 ecx, DWORD PTR _tBuffInfo$548591[ebp]
  0017c	ff 15 00 00 00
	00		 call	 DWORD PTR __imp_??1ioHashString@@QAE@XZ
  00182	8b d7		 mov	 edx, edi
  00184	3b 95 bc fd ff
	ff		 cmp	 edx, DWORD PTR _iCnt$[ebp]
  0018a	0f 8c 22 ff ff
	ff		 jl	 $LN104@LoadOwnerB
$LN102@LoadOwnerB:

; 146  : }

  00190	e8 00 00 00 00	 call	 __EH_epilog3_GS
  00195	c2 04 00	 ret	 4
_TEXT	ENDS
;	COMDAT text$x
text$x	SEGMENT
__unwindfunclet$?LoadOwnerBuffList@ioLightAttack@@QAEXAAVioINILoader@@@Z$0:
  00000	8d 8d a8 fd ff
	ff		 lea	 ecx, DWORD PTR _tBuffInfo$548591[ebp]
  00006	e9 00 00 00 00	 jmp	 ??1BuffInfoStruct@@QAE@XZ
__ehhandler$?LoadOwnerBuffList@ioLightAttack@@QAEXAAVioINILoader@@@Z:
  0000b	8b 54 24 08	 mov	 edx, DWORD PTR [esp+8]
  0000f	8d 42 0c	 lea	 eax, DWORD PTR [edx+12]
  00012	8b 8a a0 fd ff
	ff		 mov	 ecx, DWORD PTR [edx-608]
  00018	33 c8		 xor	 ecx, eax
  0001a	e8 00 00 00 00	 call	 @__security_check_cookie@4
  0001f	8b 4a fc	 mov	 ecx, DWORD PTR [edx-4]
  00022	33 c8		 xor	 ecx, eax
  00024	e8 00 00 00 00	 call	 @__security_check_cookie@4
  00029	b8 00 00 00 00	 mov	 eax, OFFSET __ehfuncinfo$?LoadOwnerBuffList@ioLightAttack@@QAEXAAVioINILoader@@@Z
  0002e	e9 00 00 00 00	 jmp	 ___CxxFrameHandler3
text$x	ENDS
?LoadOwnerBuffList@ioLightAttack@@QAEXAAVioINILoader@@@Z ENDP ; ioLightAttack::LoadOwnerBuffList
PUBLIC	__$ArrayPad$
EXTRN	?LoadProperty@ioAttackSkill@@UAEXAAVioINILoader@@@Z:PROC ; ioAttackSkill::LoadProperty
; Function compile flags: /Ogsp
;	COMDAT ?LoadProperty@ioLightAttack@@UAEXAAVioINILoader@@@Z
_TEXT	SEGMENT
tv17835 = -304						; size = 4
tv17729 = -304						; size = 4
tv17717 = -304						; size = 4
tv17705 = -304						; size = 4
tv17697 = -304						; size = 4
_i$558297 = -304					; size = 4
_i$557927 = -304					; size = 4
_value$558018 = -304					; size = 4
_value$557760 = -304					; size = 4
_value$557630 = -304					; size = 4
_i$556385 = -304					; size = 4
_value$556625 = -304					; size = 4
_value$556495 = -304					; size = 4
_szBuf$ = -300						; size = 260
__k$558178 = -40					; size = 29
__k$558119 = -36					; size = 22
__k$557906 = -36					; size = 24
__k$556892 = -36					; size = 24
__k$556780 = -36					; size = 24
__k$556395 = -36					; size = 23
__k$558548 = -32					; size = 21
__k$558436 = -32					; size = 18
__k$557660 = -32					; size = 18
__k$557063 = -32					; size = 20
__k$556655 = -32					; size = 19
__k$556525 = -32					; size = 20
__k$556265 = -32					; size = 18
__k$557790 = -28					; size = 17
__k$557405 = -28					; size = 15
__k$557280 = -28					; size = 16
__k$558307 = -24					; size = 11
__k$557530 = -24					; size = 11
__k$557155 = -24					; size = 13
__$ArrayPad$ = -4					; size = 4
_rkLoader$ = 8						; size = 4
?LoadProperty@ioLightAttack@@UAEXAAVioINILoader@@@Z PROC ; ioLightAttack::LoadProperty, COMDAT
; _this$ = ecx

; 46   : {

  00000	55		 push	 ebp
  00001	8b ec		 mov	 ebp, esp
  00003	81 ec 30 01 00
	00		 sub	 esp, 304		; 00000130H
  00009	a1 00 00 00 00	 mov	 eax, DWORD PTR ___security_cookie
  0000e	33 c5		 xor	 eax, ebp
  00010	89 45 fc	 mov	 DWORD PTR __$ArrayPad$[ebp], eax
  00013	53		 push	 ebx
  00014	56		 push	 esi
  00015	57		 push	 edi
  00016	8b 7d 08	 mov	 edi, DWORD PTR _rkLoader$[ebp]

; 47   : 	ioAttackSkill::LoadProperty( rkLoader );

  00019	57		 push	 edi
  0001a	8b f1		 mov	 esi, ecx
  0001c	e8 00 00 00 00	 call	 ?LoadProperty@ioAttackSkill@@UAEXAAVioINILoader@@@Z ; ioAttackSkill::LoadProperty

; 48   : 	LoadActionOwnerBuffList( rkLoader );

  00021	57		 push	 edi
  00022	8b ce		 mov	 ecx, esi
  00024	e8 00 00 00 00	 call	 ?LoadActionOwnerBuffList@ioLightAttack@@QAEXAAVioINILoader@@@Z ; ioLightAttack::LoadActionOwnerBuffList

; 49   : 	LoadOwnerBuffList( rkLoader );

  00029	57		 push	 edi
  0002a	8b ce		 mov	 ecx, esi
  0002c	e8 00 00 00 00	 call	 ?LoadOwnerBuffList@ioLightAttack@@QAEXAAVioINILoader@@@Z ; ioLightAttack::LoadOwnerBuffList

; 50   : 
; 51   : 	char szBuf[MAX_PATH];
; 52   : 
; 53   : 	rkLoader.LoadString_e( "skill_loop_motion", "", szBuf, MAX_PATH );

  00031	6a 04		 push	 4
  00033	c7 45 e0 9e 87
	82 86		 mov	 DWORD PTR __k$556265[ebp], -2038265954 ; 8682879eH
  0003a	c7 45 e4 81 b3
	87 85		 mov	 DWORD PTR __k$556265[ebp+4], -2054704255 ; 8587b381H
  00041	c7 45 e8 82 9c
	b4 87		 mov	 DWORD PTR __k$556265[ebp+8], -2018206590 ; 87b49c82H
  00048	c7 45 ec 82 98
	82 85		 mov	 DWORD PTR __k$556265[ebp+12], -2055038846 ; 85829882H
  0004f	8d 45 e0	 lea	 eax, DWORD PTR __k$556265[ebp]
  00052	33 db		 xor	 ebx, ebx
  00054	66 c7 45 f0 83
	00		 mov	 WORD PTR __k$556265[ebp+16], 131 ; 00000083H
  0005a	59		 pop	 ecx
$LL106@LoadProper:
  0005b	81 30 ed ec eb
	ea		 xor	 DWORD PTR [eax], -353637139 ; eaebecedH
  00061	83 c0 04	 add	 eax, 4
  00064	49		 dec	 ecx
  00065	75 f4		 jne	 SHORT $LL106@LoadProper
  00067	80 75 f0 ed	 xor	 BYTE PTR __k$556265[ebp+16], -19 ; ffffffedH
  0006b	68 04 01 00 00	 push	 260			; 00000104H
  00070	8d 85 d4 fe ff
	ff		 lea	 eax, DWORD PTR _szBuf$[ebp]
  00076	50		 push	 eax
  00077	68 00 00 00 00	 push	 OFFSET ??_C@_00CNPNBAHC@?$AA@
  0007c	8d 45 e0	 lea	 eax, DWORD PTR __k$556265[ebp]
  0007f	50		 push	 eax
  00080	8b cf		 mov	 ecx, edi
  00082	ff 15 00 00 00
	00		 call	 DWORD PTR __imp_?LoadStringA@ioINILoader@@QAEXPBD0PADH@Z

; 54   : 	m_SkillLoopMotion = szBuf;	

  00088	8d 85 d4 fe ff
	ff		 lea	 eax, DWORD PTR _szBuf$[ebp]
  0008e	50		 push	 eax
  0008f	8d 8e 0c 11 00
	00		 lea	 ecx, DWORD PTR [esi+4364]
  00095	ff 15 00 00 00
	00		 call	 DWORD PTR __imp_??4ioHashString@@QAEAAV0@PBD@Z

; 55   : 	m_fSkillLoopMotionRate = rkLoader.LoadFloat_e( "skill_loop_motion_rate", FLOAT1 );	

  0009b	b8 01 00 00 00	 mov	 eax, 1
  000a0	6a 05		 push	 5
  000a2	c7 45 dc 9e 87
	82 86		 mov	 DWORD PTR __k$556395[ebp], -2038265954 ; 8682879eH
  000a9	c7 45 e0 81 b3
	87 85		 mov	 DWORD PTR __k$556395[ebp+4], -2054704255 ; 8587b381H
  000b0	c7 45 e4 82 9c
	b4 87		 mov	 DWORD PTR __k$556395[ebp+8], -2018206590 ; 87b49c82H
  000b7	c7 45 e8 82 98
	82 85		 mov	 DWORD PTR __k$556395[ebp+12], -2055038846 ; 85829882H
  000be	c7 45 ec 83 b3
	99 8b		 mov	 DWORD PTR __k$556395[ebp+16], -1952861309 ; 8b99b383H
  000c5	66 c7 45 f0 99
	89		 mov	 WORD PTR __k$556395[ebp+20], 35225 ; 00008999H
  000cb	8d 4d dc	 lea	 ecx, DWORD PTR __k$556395[ebp]
  000ce	88 5d f2	 mov	 BYTE PTR __k$556395[ebp+22], bl
  000d1	5a		 pop	 edx
$LL214@LoadProper:
  000d2	81 31 ed ec eb
	ea		 xor	 DWORD PTR [ecx], -353637139 ; eaebecedH
  000d8	83 c1 04	 add	 ecx, 4
  000db	4a		 dec	 edx
  000dc	75 f4		 jne	 SHORT $LL214@LoadProper
  000de	c7 85 d0 fe ff
	ff 14 00 00 00	 mov	 DWORD PTR _i$556385[ebp], 20 ; 00000014H
$LL211@LoadProper:
  000e8	8b 8d d0 fe ff
	ff		 mov	 ecx, DWORD PTR _i$556385[ebp]
  000ee	81 e1 03 00 00
	80		 and	 ecx, -2147483645	; 80000003H
  000f4	79 05		 jns	 SHORT $LN2113@LoadProper
  000f6	49		 dec	 ecx
  000f7	83 c9 fc	 or	 ecx, -4			; fffffffcH
  000fa	41		 inc	 ecx
$LN2113@LoadProper:
  000fb	b2 ed		 mov	 dl, -19			; ffffffedH
  000fd	2a d1		 sub	 dl, cl
  000ff	8b 8d d0 fe ff
	ff		 mov	 ecx, DWORD PTR _i$556385[ebp]
  00105	30 54 0d dc	 xor	 BYTE PTR __k$556395[ebp+ecx], dl
  00109	ff 85 d0 fe ff
	ff		 inc	 DWORD PTR _i$556385[ebp]
  0010f	83 bd d0 fe ff
	ff 16		 cmp	 DWORD PTR _i$556385[ebp], 22 ; 00000016H
  00116	7c d0		 jl	 SHORT $LL211@LoadProper
  00118	89 85 d0 fe ff
	ff		 mov	 DWORD PTR tv17835[ebp], eax
  0011e	db 85 d0 fe ff
	ff		 fild	 DWORD PTR tv17835[ebp]
  00124	85 c0		 test	 eax, eax
  00126	79 06		 jns	 SHORT $LN2114@LoadProper
  00128	d8 05 00 00 00
	00		 fadd	 DWORD PTR __real@4f800000
$LN2114@LoadProper:
  0012e	51		 push	 ecx
  0012f	8d 45 dc	 lea	 eax, DWORD PTR __k$556395[ebp]
  00132	d9 1c 24	 fstp	 DWORD PTR [esp]
  00135	50		 push	 eax
  00136	8b cf		 mov	 ecx, edi
  00138	ff 15 00 00 00
	00		 call	 DWORD PTR __imp_?LoadFloat@ioINILoader@@QAEMPBDM@Z
  0013e	d9 9d d0 fe ff
	ff		 fstp	 DWORD PTR _value$556495[ebp]
  00144	8d 85 d0 fe ff
	ff		 lea	 eax, DWORD PTR _value$556495[ebp]
  0014a	50		 push	 eax
  0014b	8d 8e 1c 11 00
	00		 lea	 ecx, DWORD PTR [esi+4380]
  00151	e8 00 00 00 00	 call	 ?EncryptValueToPool@?$CEncrypt@M@@AAEXPBD@Z ; CEncrypt<float>::EncryptValueToPool
  00156	6a 04		 push	 4

; 56   : 	m_dwLoopDuration = rkLoader.LoadInt_e( "skill_loop_duration", 0 );

  00158	c7 45 e0 9e 87
	82 86		 mov	 DWORD PTR __k$556525[ebp], -2038265954 ; 8682879eH
  0015f	c7 45 e4 81 b3
	87 85		 mov	 DWORD PTR __k$556525[ebp+4], -2054704255 ; 8587b381H
  00166	c7 45 e8 82 9c
	b4 8e		 mov	 DWORD PTR __k$556525[ebp+8], -1900766078 ; 8eb49c82H
  0016d	c7 45 ec 98 9e
	8a 9e		 mov	 DWORD PTR __k$556525[ebp+12], -1635082600 ; 9e8a9e98H
  00174	8d 45 e0	 lea	 eax, DWORD PTR __k$556525[ebp]
  00177	c7 45 f0 84 83
	85 00		 mov	 DWORD PTR __k$556525[ebp+16], 8749956 ; 00858384H
  0017e	59		 pop	 ecx
$LL322@LoadProper:
  0017f	81 30 ed ec eb
	ea		 xor	 DWORD PTR [eax], -353637139 ; eaebecedH
  00185	83 c0 04	 add	 eax, 4
  00188	49		 dec	 ecx
  00189	75 f4		 jne	 SHORT $LL322@LoadProper
  0018b	6a 10		 push	 16			; 00000010H
  0018d	58		 pop	 eax
$LL319@LoadProper:
  0018e	8b c8		 mov	 ecx, eax
  00190	81 e1 03 00 00
	80		 and	 ecx, -2147483645	; 80000003H
  00196	79 05		 jns	 SHORT $LN2115@LoadProper
  00198	49		 dec	 ecx
  00199	83 c9 fc	 or	 ecx, -4			; fffffffcH
  0019c	41		 inc	 ecx
$LN2115@LoadProper:
  0019d	b2 ed		 mov	 dl, -19			; ffffffedH
  0019f	2a d1		 sub	 dl, cl
  001a1	30 54 05 e0	 xor	 BYTE PTR __k$556525[ebp+eax], dl
  001a5	40		 inc	 eax
  001a6	83 f8 13	 cmp	 eax, 19			; 00000013H
  001a9	7c e3		 jl	 SHORT $LL319@LoadProper
  001ab	53		 push	 ebx
  001ac	8d 45 e0	 lea	 eax, DWORD PTR __k$556525[ebp]
  001af	50		 push	 eax
  001b0	8b cf		 mov	 ecx, edi
  001b2	ff 15 00 00 00
	00		 call	 DWORD PTR __imp_?LoadInt@ioINILoader@@QAEHPBDH@Z
  001b8	89 85 d0 fe ff
	ff		 mov	 DWORD PTR _value$556625[ebp], eax
  001be	8d 85 d0 fe ff
	ff		 lea	 eax, DWORD PTR _value$556625[ebp]
  001c4	50		 push	 eax
  001c5	8d 8e 4c 11 00
	00		 lea	 ecx, DWORD PTR [esi+4428]
  001cb	e8 00 00 00 00	 call	 ?EncryptValueToPool@?$CEncrypt@K@@AAEXPBD@Z ; CEncrypt<unsigned long>::EncryptValueToPool
  001d0	6a 04		 push	 4

; 57   : 
; 58   : 	m_fCircleRange = rkLoader.LoadFloat_e( "magic_circle_range", 0.0f );

  001d2	c7 45 e0 80 8d
	8c 83		 mov	 DWORD PTR __k$556655[ebp], -2087940736 ; 838c8d80H
  001d9	c7 45 e4 8e b3
	88 83		 mov	 DWORD PTR __k$556655[ebp+4], -2088193138 ; 8388b38eH
  001e0	c7 45 e8 9f 8f
	87 8f		 mov	 DWORD PTR __k$556655[ebp+8], -1886941281 ; 8f878f9fH
  001e7	c7 45 ec b2 9e
	8a 84		 mov	 DWORD PTR __k$556655[ebp+12], -2071290190 ; 848a9eb2H
  001ee	66 c7 45 f0 8a
	89		 mov	 WORD PTR __k$556655[ebp+16], 35210 ; 0000898aH
  001f4	8d 45 e0	 lea	 eax, DWORD PTR __k$556655[ebp]
  001f7	88 5d f2	 mov	 BYTE PTR __k$556655[ebp+18], bl
  001fa	59		 pop	 ecx
$LL430@LoadProper:
  001fb	81 30 ed ec eb
	ea		 xor	 DWORD PTR [eax], -353637139 ; eaebecedH
  00201	83 c0 04	 add	 eax, 4
  00204	49		 dec	 ecx
  00205	75 f4		 jne	 SHORT $LL430@LoadProper
  00207	6a 10		 push	 16			; 00000010H
  00209	58		 pop	 eax
$LL427@LoadProper:
  0020a	8b c8		 mov	 ecx, eax
  0020c	81 e1 03 00 00
	80		 and	 ecx, -2147483645	; 80000003H
  00212	79 05		 jns	 SHORT $LN2116@LoadProper
  00214	49		 dec	 ecx
  00215	83 c9 fc	 or	 ecx, -4			; fffffffcH
  00218	41		 inc	 ecx
$LN2116@LoadProper:
  00219	b2 ed		 mov	 dl, -19			; ffffffedH
  0021b	2a d1		 sub	 dl, cl
  0021d	30 54 05 e0	 xor	 BYTE PTR __k$556655[ebp+eax], dl
  00221	40		 inc	 eax
  00222	83 f8 12	 cmp	 eax, 18			; 00000012H
  00225	7c e3		 jl	 SHORT $LL427@LoadProper
  00227	0f 57 c0	 xorps	 xmm0, xmm0
  0022a	51		 push	 ecx
  0022b	8d 45 e0	 lea	 eax, DWORD PTR __k$556655[ebp]
  0022e	f3 0f 11 04 24	 movss	 DWORD PTR [esp], xmm0
  00233	50		 push	 eax
  00234	8b cf		 mov	 ecx, edi
  00236	ff 15 00 00 00
	00		 call	 DWORD PTR __imp_?LoadFloat@ioINILoader@@QAEMPBDM@Z
  0023c	d9 9e 90 12 00
	00		 fstp	 DWORD PTR [esi+4752]
  00242	6a 05		 push	 5

; 59   : 	m_fCircleMoveSpeed = rkLoader.LoadFloat_e( "magic_circle_move_speed", 0.0f );

  00244	c7 45 dc 80 8d
	8c 83		 mov	 DWORD PTR __k$556780[ebp], -2087940736 ; 838c8d80H
  0024b	c7 45 e0 8e b3
	88 83		 mov	 DWORD PTR __k$556780[ebp+4], -2088193138 ; 8388b38eH
  00252	c7 45 e4 9f 8f
	87 8f		 mov	 DWORD PTR __k$556780[ebp+8], -1886941281 ; 8f878f9fH
  00259	c7 45 e8 b2 81
	84 9c		 mov	 DWORD PTR __k$556780[ebp+12], -1669037646 ; 9c8481b2H
  00260	c7 45 ec 88 b3
	98 9a		 mov	 DWORD PTR __k$556780[ebp+16], -1701268600 ; 9a98b388H
  00267	8d 45 dc	 lea	 eax, DWORD PTR __k$556780[ebp]
  0026a	c7 45 f0 88 89
	8f 00		 mov	 DWORD PTR __k$556780[ebp+20], 9406856 ; 008f8988H
  00271	59		 pop	 ecx
$LL536@LoadProper:
  00272	81 30 ed ec eb
	ea		 xor	 DWORD PTR [eax], -353637139 ; eaebecedH
  00278	83 c0 04	 add	 eax, 4
  0027b	49		 dec	 ecx
  0027c	75 f4		 jne	 SHORT $LL536@LoadProper
  0027e	6a 14		 push	 20			; 00000014H
  00280	58		 pop	 eax
$LL533@LoadProper:
  00281	8b c8		 mov	 ecx, eax
  00283	81 e1 03 00 00
	80		 and	 ecx, -2147483645	; 80000003H
  00289	79 05		 jns	 SHORT $LN2117@LoadProper
  0028b	49		 dec	 ecx
  0028c	83 c9 fc	 or	 ecx, -4			; fffffffcH
  0028f	41		 inc	 ecx
$LN2117@LoadProper:
  00290	b2 ed		 mov	 dl, -19			; ffffffedH
  00292	2a d1		 sub	 dl, cl
  00294	30 54 05 dc	 xor	 BYTE PTR __k$556780[ebp+eax], dl
  00298	40		 inc	 eax
  00299	83 f8 17	 cmp	 eax, 23			; 00000017H
  0029c	7c e3		 jl	 SHORT $LL533@LoadProper
  0029e	0f 57 c0	 xorps	 xmm0, xmm0
  002a1	51		 push	 ecx
  002a2	8d 45 dc	 lea	 eax, DWORD PTR __k$556780[ebp]
  002a5	f3 0f 11 04 24	 movss	 DWORD PTR [esp], xmm0
  002aa	50		 push	 eax
  002ab	8b cf		 mov	 ecx, edi
  002ad	ff 15 00 00 00
	00		 call	 DWORD PTR __imp_?LoadFloat@ioINILoader@@QAEMPBDM@Z
  002b3	d9 9e 94 12 00
	00		 fstp	 DWORD PTR [esi+4756]
  002b9	6a 05		 push	 5

; 60   : 	m_fCircleHeightGap = rkLoader.LoadFloat_e( "magic_circle_height_gap", 0.0f );

  002bb	c7 45 dc 80 8d
	8c 83		 mov	 DWORD PTR __k$556892[ebp], -2087940736 ; 838c8d80H
  002c2	c7 45 e0 8e b3
	88 83		 mov	 DWORD PTR __k$556892[ebp+4], -2088193138 ; 8388b38eH
  002c9	c7 45 e4 9f 8f
	87 8f		 mov	 DWORD PTR __k$556892[ebp+8], -1886941281 ; 8f878f9fH
  002d0	c7 45 e8 b2 84
	8e 83		 mov	 DWORD PTR __k$556892[ebp+12], -2087811918 ; 838e84b2H
  002d7	c7 45 ec 8a 84
	9f b5		 mov	 DWORD PTR __k$556892[ebp+16], -1247837046 ; b59f848aH
  002de	8d 45 dc	 lea	 eax, DWORD PTR __k$556892[ebp]
  002e1	c7 45 f0 8a 8d
	9b 00		 mov	 DWORD PTR __k$556892[ebp+20], 10194314 ; 009b8d8aH
  002e8	59		 pop	 ecx
$LL642@LoadProper:
  002e9	81 30 ed ec eb
	ea		 xor	 DWORD PTR [eax], -353637139 ; eaebecedH
  002ef	83 c0 04	 add	 eax, 4
  002f2	49		 dec	 ecx
  002f3	75 f4		 jne	 SHORT $LL642@LoadProper
  002f5	6a 14		 push	 20			; 00000014H
  002f7	58		 pop	 eax
$LL639@LoadProper:
  002f8	8b c8		 mov	 ecx, eax
  002fa	81 e1 03 00 00
	80		 and	 ecx, -2147483645	; 80000003H
  00300	79 05		 jns	 SHORT $LN2118@LoadProper
  00302	49		 dec	 ecx
  00303	83 c9 fc	 or	 ecx, -4			; fffffffcH
  00306	41		 inc	 ecx
$LN2118@LoadProper:
  00307	b2 ed		 mov	 dl, -19			; ffffffedH
  00309	2a d1		 sub	 dl, cl
  0030b	30 54 05 dc	 xor	 BYTE PTR __k$556892[ebp+eax], dl
  0030f	40		 inc	 eax
  00310	83 f8 17	 cmp	 eax, 23			; 00000017H
  00313	7c e3		 jl	 SHORT $LL639@LoadProper
  00315	0f 57 c0	 xorps	 xmm0, xmm0
  00318	51		 push	 ecx
  00319	8d 45 dc	 lea	 eax, DWORD PTR __k$556892[ebp]
  0031c	f3 0f 11 04 24	 movss	 DWORD PTR [esp], xmm0
  00321	50		 push	 eax
  00322	8b cf		 mov	 ecx, edi
  00324	ff 15 00 00 00
	00		 call	 DWORD PTR __imp_?LoadFloat@ioINILoader@@QAEMPBDM@Z
  0032a	d9 9e 98 12 00
	00		 fstp	 DWORD PTR [esi+4760]
  00330	6a 04		 push	 4

; 61   : 	m_fCircleOffSet = rkLoader.LoadFloat_e( "magic_circle_offset", 0.0f );

  00332	c7 45 e0 80 8d
	8c 83		 mov	 DWORD PTR __k$557063[ebp], -2087940736 ; 838c8d80H
  00339	c7 45 e4 8e b3
	88 83		 mov	 DWORD PTR __k$557063[ebp+4], -2088193138 ; 8388b38eH
  00340	c7 45 e8 9f 8f
	87 8f		 mov	 DWORD PTR __k$557063[ebp+8], -1886941281 ; 8f878f9fH
  00347	c7 45 ec b2 83
	8d 8c		 mov	 DWORD PTR __k$557063[ebp+12], -1936882766 ; 8c8d83b2H
  0034e	8d 45 e0	 lea	 eax, DWORD PTR __k$557063[ebp]
  00351	c7 45 f0 9e 89
	9f 00		 mov	 DWORD PTR __k$557063[ebp+16], 10455454 ; 009f899eH
  00358	59		 pop	 ecx
$LL748@LoadProper:
  00359	81 30 ed ec eb
	ea		 xor	 DWORD PTR [eax], -353637139 ; eaebecedH
  0035f	83 c0 04	 add	 eax, 4
  00362	49		 dec	 ecx
  00363	75 f4		 jne	 SHORT $LL748@LoadProper
  00365	6a 10		 push	 16			; 00000010H
  00367	58		 pop	 eax
$LL745@LoadProper:
  00368	8b c8		 mov	 ecx, eax
  0036a	81 e1 03 00 00
	80		 and	 ecx, -2147483645	; 80000003H
  00370	79 05		 jns	 SHORT $LN2119@LoadProper
  00372	49		 dec	 ecx
  00373	83 c9 fc	 or	 ecx, -4			; fffffffcH
  00376	41		 inc	 ecx
$LN2119@LoadProper:
  00377	b2 ed		 mov	 dl, -19			; ffffffedH
  00379	2a d1		 sub	 dl, cl
  0037b	30 54 05 e0	 xor	 BYTE PTR __k$557063[ebp+eax], dl
  0037f	40		 inc	 eax
  00380	83 f8 13	 cmp	 eax, 19			; 00000013H
  00383	7c e3		 jl	 SHORT $LL745@LoadProper
  00385	0f 57 c0	 xorps	 xmm0, xmm0
  00388	51		 push	 ecx
  00389	8d 45 e0	 lea	 eax, DWORD PTR __k$557063[ebp]
  0038c	f3 0f 11 04 24	 movss	 DWORD PTR [esp], xmm0
  00391	50		 push	 eax
  00392	8b cf		 mov	 ecx, edi
  00394	ff 15 00 00 00
	00		 call	 DWORD PTR __imp_?LoadFloat@ioINILoader@@QAEMPBDM@Z
  0039a	d9 9e 9c 12 00
	00		 fstp	 DWORD PTR [esi+4764]
  003a0	6a 03		 push	 3

; 62   : 
; 63   : 	rkLoader.LoadString_e( "magic_circle", "", szBuf, MAX_PATH );

  003a2	c7 45 e8 80 8d
	8c 83		 mov	 DWORD PTR __k$557155[ebp], -2087940736 ; 838c8d80H
  003a9	c7 45 ec 8e b3
	88 83		 mov	 DWORD PTR __k$557155[ebp+4], -2088193138 ; 8388b38eH
  003b0	c7 45 f0 9f 8f
	87 8f		 mov	 DWORD PTR __k$557155[ebp+8], -1886941281 ; 8f878f9fH
  003b7	8d 45 e8	 lea	 eax, DWORD PTR __k$557155[ebp]
  003ba	88 5d f4	 mov	 BYTE PTR __k$557155[ebp+12], bl
  003bd	59		 pop	 ecx
$LL854@LoadProper:
  003be	81 30 ed ec eb
	ea		 xor	 DWORD PTR [eax], -353637139 ; eaebecedH
  003c4	83 c0 04	 add	 eax, 4
  003c7	49		 dec	 ecx
  003c8	75 f4		 jne	 SHORT $LL854@LoadProper
  003ca	68 04 01 00 00	 push	 260			; 00000104H
  003cf	8d 85 d4 fe ff
	ff		 lea	 eax, DWORD PTR _szBuf$[ebp]
  003d5	50		 push	 eax
  003d6	68 00 00 00 00	 push	 OFFSET ??_C@_00CNPNBAHC@?$AA@
  003db	8d 45 e8	 lea	 eax, DWORD PTR __k$557155[ebp]
  003de	50		 push	 eax
  003df	8b cf		 mov	 ecx, edi
  003e1	ff 15 00 00 00
	00		 call	 DWORD PTR __imp_?LoadStringA@ioINILoader@@QAEXPBD0PADH@Z

; 64   : 	m_Circle = szBuf;

  003e7	8d 85 d4 fe ff
	ff		 lea	 eax, DWORD PTR _szBuf$[ebp]
  003ed	50		 push	 eax
  003ee	8d 8e ac 12 00
	00		 lea	 ecx, DWORD PTR [esi+4780]
  003f4	ff 15 00 00 00
	00		 call	 DWORD PTR __imp_??4ioHashString@@QAEAAV0@PBD@Z
  003fa	6a 03		 push	 3

; 65   : 
; 66   : 	rkLoader.LoadString_e( "blue_map_effect", "", szBuf, MAX_PATH );

  003fc	c7 45 e4 8f 80
	9e 8f		 mov	 DWORD PTR __k$557280[ebp], -1885437809 ; 8f9e808fH
  00403	c7 45 e8 b2 81
	8a 9a		 mov	 DWORD PTR __k$557280[ebp+4], -1702198862 ; 9a8a81b2H
  0040a	c7 45 ec b2 89
	8d 8c		 mov	 DWORD PTR __k$557280[ebp+8], -1936881230 ; 8c8d89b2H
  00411	8d 45 e4	 lea	 eax, DWORD PTR __k$557280[ebp]
  00414	c7 45 f0 88 8f
	9f 00		 mov	 DWORD PTR __k$557280[ebp+12], 10456968 ; 009f8f88H
  0041b	59		 pop	 ecx
$LL960@LoadProper:
  0041c	81 30 ed ec eb
	ea		 xor	 DWORD PTR [eax], -353637139 ; eaebecedH
  00422	83 c0 04	 add	 eax, 4
  00425	49		 dec	 ecx
  00426	75 f4		 jne	 SHORT $LL960@LoadProper
  00428	6a 0c		 push	 12			; 0000000cH
  0042a	58		 pop	 eax
$LL957@LoadProper:
  0042b	8b c8		 mov	 ecx, eax
  0042d	81 e1 03 00 00
	80		 and	 ecx, -2147483645	; 80000003H
  00433	79 05		 jns	 SHORT $LN2120@LoadProper
  00435	49		 dec	 ecx
  00436	83 c9 fc	 or	 ecx, -4			; fffffffcH
  00439	41		 inc	 ecx
$LN2120@LoadProper:
  0043a	b2 ed		 mov	 dl, -19			; ffffffedH
  0043c	2a d1		 sub	 dl, cl
  0043e	30 54 05 e4	 xor	 BYTE PTR __k$557280[ebp+eax], dl
  00442	40		 inc	 eax
  00443	83 f8 0f	 cmp	 eax, 15			; 0000000fH
  00446	7c e3		 jl	 SHORT $LL957@LoadProper
  00448	68 04 01 00 00	 push	 260			; 00000104H
  0044d	8d 85 d4 fe ff
	ff		 lea	 eax, DWORD PTR _szBuf$[ebp]
  00453	50		 push	 eax
  00454	68 00 00 00 00	 push	 OFFSET ??_C@_00CNPNBAHC@?$AA@
  00459	8d 45 e4	 lea	 eax, DWORD PTR __k$557280[ebp]
  0045c	50		 push	 eax
  0045d	8b cf		 mov	 ecx, edi
  0045f	ff 15 00 00 00
	00		 call	 DWORD PTR __imp_?LoadStringA@ioINILoader@@QAEXPBD0PADH@Z

; 67   : 	m_BlueMapEffect = szBuf;

  00465	8d 85 d4 fe ff
	ff		 lea	 eax, DWORD PTR _szBuf$[ebp]
  0046b	50		 push	 eax
  0046c	8d 8e cc 12 00
	00		 lea	 ecx, DWORD PTR [esi+4812]
  00472	ff 15 00 00 00
	00		 call	 DWORD PTR __imp_??4ioHashString@@QAEAAV0@PBD@Z
  00478	6a 03		 push	 3

; 68   : 
; 69   : 	rkLoader.LoadString_e( "red_map_effect", "", szBuf, MAX_PATH );

  0047a	c7 45 e4 9f 89
	8f b5		 mov	 DWORD PTR __k$557405[ebp], -1248884321 ; b58f899fH
  00481	c7 45 e8 80 8d
	9b b5		 mov	 DWORD PTR __k$557405[ebp+4], -1248096896 ; b59b8d80H
  00488	c7 45 ec 88 8a
	8d 8f		 mov	 DWORD PTR __k$557405[ebp+8], -1886549368 ; 8f8d8a88H
  0048f	66 c7 45 f0 8e
	98		 mov	 WORD PTR __k$557405[ebp+12], 39054 ; 0000988eH
  00495	8d 45 e4	 lea	 eax, DWORD PTR __k$557405[ebp]
  00498	88 5d f2	 mov	 BYTE PTR __k$557405[ebp+14], bl
  0049b	59		 pop	 ecx
$LL1066@LoadProper:
  0049c	81 30 ed ec eb
	ea		 xor	 DWORD PTR [eax], -353637139 ; eaebecedH
  004a2	83 c0 04	 add	 eax, 4
  004a5	49		 dec	 ecx
  004a6	75 f4		 jne	 SHORT $LL1066@LoadProper
  004a8	6a 0c		 push	 12			; 0000000cH
  004aa	58		 pop	 eax
$LL1063@LoadProper:
  004ab	8b c8		 mov	 ecx, eax
  004ad	81 e1 03 00 00
	80		 and	 ecx, -2147483645	; 80000003H
  004b3	79 05		 jns	 SHORT $LN2121@LoadProper
  004b5	49		 dec	 ecx
  004b6	83 c9 fc	 or	 ecx, -4			; fffffffcH
  004b9	41		 inc	 ecx
$LN2121@LoadProper:
  004ba	b2 ed		 mov	 dl, -19			; ffffffedH
  004bc	2a d1		 sub	 dl, cl
  004be	30 54 05 e4	 xor	 BYTE PTR __k$557405[ebp+eax], dl
  004c2	40		 inc	 eax
  004c3	83 f8 0e	 cmp	 eax, 14			; 0000000eH
  004c6	7c e3		 jl	 SHORT $LL1063@LoadProper
  004c8	68 04 01 00 00	 push	 260			; 00000104H
  004cd	8d 85 d4 fe ff
	ff		 lea	 eax, DWORD PTR _szBuf$[ebp]
  004d3	50		 push	 eax
  004d4	68 00 00 00 00	 push	 OFFSET ??_C@_00CNPNBAHC@?$AA@
  004d9	8d 45 e4	 lea	 eax, DWORD PTR __k$557405[ebp]
  004dc	50		 push	 eax
  004dd	8b cf		 mov	 ecx, edi
  004df	ff 15 00 00 00
	00		 call	 DWORD PTR __imp_?LoadStringA@ioINILoader@@QAEXPBD0PADH@Z

; 70   : 	m_RedMapEffect = szBuf;

  004e5	8d 85 d4 fe ff
	ff		 lea	 eax, DWORD PTR _szBuf$[ebp]
  004eb	50		 push	 eax
  004ec	8d 8e bc 12 00
	00		 lea	 ecx, DWORD PTR [esi+4796]
  004f2	ff 15 00 00 00
	00		 call	 DWORD PTR __imp_??4ioHashString@@QAEAAV0@PBD@Z
  004f8	6a 02		 push	 2

; 71   : 
; 72   : 	// Jump
; 73   : 	m_fCharJumpPower = rkLoader.LoadFloat_e( "jump_power", 0 );

  004fa	c7 45 e8 87 99
	86 9a		 mov	 DWORD PTR __k$557530[ebp], -1702454905 ; 9a869987H
  00501	c7 45 ec b2 9c
	84 9d		 mov	 DWORD PTR __k$557530[ebp+4], -1652253518 ; 9d849cb2H
  00508	66 c7 45 f0 88
	9e		 mov	 WORD PTR __k$557530[ebp+8], 40584 ; 00009e88H
  0050e	8d 45 e8	 lea	 eax, DWORD PTR __k$557530[ebp]
  00511	88 5d f2	 mov	 BYTE PTR __k$557530[ebp+10], bl
  00514	59		 pop	 ecx
$LL1172@LoadProper:
  00515	81 30 ed ec eb
	ea		 xor	 DWORD PTR [eax], -353637139 ; eaebecedH
  0051b	83 c0 04	 add	 eax, 4
  0051e	49		 dec	 ecx
  0051f	75 f4		 jne	 SHORT $LL1172@LoadProper
  00521	6a 08		 push	 8
  00523	58		 pop	 eax
$LL1169@LoadProper:
  00524	8b c8		 mov	 ecx, eax
  00526	81 e1 03 00 00
	80		 and	 ecx, -2147483645	; 80000003H
  0052c	79 05		 jns	 SHORT $LN2122@LoadProper
  0052e	49		 dec	 ecx
  0052f	83 c9 fc	 or	 ecx, -4			; fffffffcH
  00532	41		 inc	 ecx
$LN2122@LoadProper:
  00533	b2 ed		 mov	 dl, -19			; ffffffedH
  00535	2a d1		 sub	 dl, cl
  00537	30 54 05 e8	 xor	 BYTE PTR __k$557530[ebp+eax], dl
  0053b	40		 inc	 eax
  0053c	83 f8 0a	 cmp	 eax, 10			; 0000000aH
  0053f	7c e3		 jl	 SHORT $LL1169@LoadProper
  00541	0f 57 c0	 xorps	 xmm0, xmm0
  00544	51		 push	 ecx
  00545	8d 45 e8	 lea	 eax, DWORD PTR __k$557530[ebp]
  00548	f3 0f 11 04 24	 movss	 DWORD PTR [esp], xmm0
  0054d	50		 push	 eax
  0054e	8b cf		 mov	 ecx, edi
  00550	ff 15 00 00 00
	00		 call	 DWORD PTR __imp_?LoadFloat@ioINILoader@@QAEMPBDM@Z
  00556	d9 9d d0 fe ff
	ff		 fstp	 DWORD PTR _value$557630[ebp]
  0055c	8d 85 d0 fe ff
	ff		 lea	 eax, DWORD PTR _value$557630[ebp]
  00562	50		 push	 eax
  00563	8d 8e 7c 11 00
	00		 lea	 ecx, DWORD PTR [esi+4476]
  00569	e8 00 00 00 00	 call	 ?EncryptValueToPool@?$CEncrypt@M@@AAEXPBD@Z ; CEncrypt<float>::EncryptValueToPool
  0056e	6a 04		 push	 4

; 74   : 	m_fJumpPowerInJump = rkLoader.LoadFloat_e( "jump_power_InJump", 0);

  00570	c7 45 e0 87 99
	86 9a		 mov	 DWORD PTR __k$557660[ebp], -1702454905 ; 9a869987H
  00577	c7 45 e4 b2 9c
	84 9d		 mov	 DWORD PTR __k$557660[ebp+4], -1652253518 ; 9d849cb2H
  0057e	c7 45 e8 88 9e
	b4 a3		 mov	 DWORD PTR __k$557660[ebp+8], -1548444024 ; a3b49e88H
  00585	c7 45 ec 83 a6
	9e 87		 mov	 DWORD PTR __k$557660[ebp+12], -2019645821 ; 879ea683H
  0058c	8d 45 e0	 lea	 eax, DWORD PTR __k$557660[ebp]
  0058f	66 c7 45 f0 9d
	00		 mov	 WORD PTR __k$557660[ebp+16], 157 ; 0000009dH
  00595	59		 pop	 ecx
$LL1280@LoadProper:
  00596	81 30 ed ec eb
	ea		 xor	 DWORD PTR [eax], -353637139 ; eaebecedH
  0059c	83 c0 04	 add	 eax, 4
  0059f	49		 dec	 ecx
  005a0	75 f4		 jne	 SHORT $LL1280@LoadProper
  005a2	0f 57 c0	 xorps	 xmm0, xmm0
  005a5	80 75 f0 ed	 xor	 BYTE PTR __k$557660[ebp+16], -19 ; ffffffedH
  005a9	51		 push	 ecx
  005aa	8d 45 e0	 lea	 eax, DWORD PTR __k$557660[ebp]
  005ad	f3 0f 11 04 24	 movss	 DWORD PTR [esp], xmm0
  005b2	50		 push	 eax
  005b3	8b cf		 mov	 ecx, edi
  005b5	ff 15 00 00 00
	00		 call	 DWORD PTR __imp_?LoadFloat@ioINILoader@@QAEMPBDM@Z
  005bb	d9 9d d0 fe ff
	ff		 fstp	 DWORD PTR _value$557760[ebp]
  005c1	8d 85 d0 fe ff
	ff		 lea	 eax, DWORD PTR _value$557760[ebp]
  005c7	50		 push	 eax
  005c8	8d 8e ac 11 00
	00		 lea	 ecx, DWORD PTR [esi+4524]
  005ce	e8 00 00 00 00	 call	 ?EncryptValueToPool@?$CEncrypt@M@@AAEXPBD@Z ; CEncrypt<float>::EncryptValueToPool
  005d3	6a 04		 push	 4

; 75   : 
; 76   : 	rkLoader.LoadString_e( "pre_skill_motion", "", szBuf, MAX_PATH );

  005d5	c7 45 e4 9d 9e
	8e b5		 mov	 DWORD PTR __k$557790[ebp], -1248944483 ; b58e9e9dH
  005dc	c7 45 e8 9e 87
	82 86		 mov	 DWORD PTR __k$557790[ebp+4], -2038265954 ; 8682879eH
  005e3	c7 45 ec 81 b3
	86 85		 mov	 DWORD PTR __k$557790[ebp+8], -2054769791 ; 8586b381H
  005ea	c7 45 f0 99 85
	84 84		 mov	 DWORD PTR __k$557790[ebp+12], -2071689831 ; 84848599H
  005f1	8d 45 e4	 lea	 eax, DWORD PTR __k$557790[ebp]
  005f4	88 5d f4	 mov	 BYTE PTR __k$557790[ebp+16], bl
  005f7	59		 pop	 ecx
$LL1388@LoadProper:
  005f8	81 30 ed ec eb
	ea		 xor	 DWORD PTR [eax], -353637139 ; eaebecedH
  005fe	83 c0 04	 add	 eax, 4
  00601	49		 dec	 ecx
  00602	75 f4		 jne	 SHORT $LL1388@LoadProper
  00604	68 04 01 00 00	 push	 260			; 00000104H
  00609	8d 85 d4 fe ff
	ff		 lea	 eax, DWORD PTR _szBuf$[ebp]
  0060f	50		 push	 eax
  00610	68 00 00 00 00	 push	 OFFSET ??_C@_00CNPNBAHC@?$AA@
  00615	8d 45 e4	 lea	 eax, DWORD PTR __k$557790[ebp]
  00618	50		 push	 eax
  00619	8b cf		 mov	 ecx, edi
  0061b	ff 15 00 00 00
	00		 call	 DWORD PTR __imp_?LoadStringA@ioINILoader@@QAEXPBD0PADH@Z

; 77   : 	m_strPreActionAni_Normal = szBuf;

  00621	8d 85 d4 fe ff
	ff		 lea	 eax, DWORD PTR _szBuf$[ebp]
  00627	50		 push	 eax
  00628	8d 8e 0c 12 00
	00		 lea	 ecx, DWORD PTR [esi+4620]
  0062e	ff 15 00 00 00
	00		 call	 DWORD PTR __imp_??4ioHashString@@QAEAAV0@PBD@Z

; 78   : 	m_fPreActionAniRate_Normal = rkLoader.LoadFloat_e( "pre_animation_time_rate", FLOAT1 );

  00634	b8 01 00 00 00	 mov	 eax, 1
  00639	6a 05		 push	 5
  0063b	c7 45 dc 9d 9e
	8e b5		 mov	 DWORD PTR __k$557906[ebp], -1248944483 ; b58e9e9dH
  00642	c7 45 e0 8c 82
	82 87		 mov	 DWORD PTR __k$557906[ebp+4], -2021490036 ; 8782828cH
  00649	c7 45 e4 8c 98
	82 85		 mov	 DWORD PTR __k$557906[ebp+8], -2055038836 ; 8582988cH
  00650	c7 45 e8 83 b3
	9f 83		 mov	 DWORD PTR __k$557906[ebp+12], -2086685821 ; 839fb383H
  00657	c7 45 ec 80 89
	b4 98		 mov	 DWORD PTR __k$557906[ebp+16], -1732998784 ; 98b48980H
  0065e	8d 4d dc	 lea	 ecx, DWORD PTR __k$557906[ebp]
  00661	c7 45 f0 8c 98
	8e 00		 mov	 DWORD PTR __k$557906[ebp+20], 9345164 ; 008e988cH
  00668	5a		 pop	 edx
$LL1496@LoadProper:
  00669	81 31 ed ec eb
	ea		 xor	 DWORD PTR [ecx], -353637139 ; eaebecedH
  0066f	83 c1 04	 add	 ecx, 4
  00672	4a		 dec	 edx
  00673	75 f4		 jne	 SHORT $LL1496@LoadProper
  00675	c7 85 d0 fe ff
	ff 14 00 00 00	 mov	 DWORD PTR _i$557927[ebp], 20 ; 00000014H
$LL1493@LoadProper:
  0067f	8b 8d d0 fe ff
	ff		 mov	 ecx, DWORD PTR _i$557927[ebp]
  00685	81 e1 03 00 00
	80		 and	 ecx, -2147483645	; 80000003H
  0068b	79 05		 jns	 SHORT $LN2123@LoadProper
  0068d	49		 dec	 ecx
  0068e	83 c9 fc	 or	 ecx, -4			; fffffffcH
  00691	41		 inc	 ecx
$LN2123@LoadProper:
  00692	b2 ed		 mov	 dl, -19			; ffffffedH
  00694	2a d1		 sub	 dl, cl
  00696	8b 8d d0 fe ff
	ff		 mov	 ecx, DWORD PTR _i$557927[ebp]
  0069c	30 54 0d dc	 xor	 BYTE PTR __k$557906[ebp+ecx], dl
  006a0	ff 85 d0 fe ff
	ff		 inc	 DWORD PTR _i$557927[ebp]
  006a6	83 bd d0 fe ff
	ff 17		 cmp	 DWORD PTR _i$557927[ebp], 23 ; 00000017H
  006ad	7c d0		 jl	 SHORT $LL1493@LoadProper
  006af	89 85 d0 fe ff
	ff		 mov	 DWORD PTR tv17729[ebp], eax
  006b5	db 85 d0 fe ff
	ff		 fild	 DWORD PTR tv17729[ebp]
  006bb	85 c0		 test	 eax, eax
  006bd	79 06		 jns	 SHORT $LN2124@LoadProper
  006bf	d8 05 00 00 00
	00		 fadd	 DWORD PTR __real@4f800000
$LN2124@LoadProper:
  006c5	51		 push	 ecx
  006c6	8d 45 dc	 lea	 eax, DWORD PTR __k$557906[ebp]
  006c9	d9 1c 24	 fstp	 DWORD PTR [esp]
  006cc	50		 push	 eax
  006cd	8b cf		 mov	 ecx, edi
  006cf	ff 15 00 00 00
	00		 call	 DWORD PTR __imp_?LoadFloat@ioINILoader@@QAEMPBDM@Z
  006d5	d9 9d d0 fe ff
	ff		 fstp	 DWORD PTR _value$558018[ebp]
  006db	8d 85 d0 fe ff
	ff		 lea	 eax, DWORD PTR _value$558018[ebp]
  006e1	50		 push	 eax
  006e2	8d 8e dc 11 00
	00		 lea	 ecx, DWORD PTR [esi+4572]
  006e8	e8 00 00 00 00	 call	 ?EncryptValueToPool@?$CEncrypt@M@@AAEXPBD@Z ; CEncrypt<float>::EncryptValueToPool
  006ed	6a 05		 push	 5

; 79   : 	
; 80   : 	// JumpMotion
; 81   : 	rkLoader.LoadString_e( "jump_pre_skill_motion", "", szBuf, MAX_PATH );

  006ef	c7 45 dc 87 99
	86 9a		 mov	 DWORD PTR __k$558119[ebp], -1702454905 ; 9a869987H
  006f6	c7 45 e0 b2 9c
	99 8f		 mov	 DWORD PTR __k$558119[ebp+4], -1885758286 ; 8f999cb2H
  006fd	c7 45 e4 b2 9f
	80 83		 mov	 DWORD PTR __k$558119[ebp+8], -2088722510 ; 83809fb2H
  00704	c7 45 e8 81 80
	b4 87		 mov	 DWORD PTR __k$558119[ebp+12], -2018213759 ; 87b48081H
  0070b	c7 45 ec 82 98
	82 85		 mov	 DWORD PTR __k$558119[ebp+16], -2055038846 ; 85829882H
  00712	8d 45 dc	 lea	 eax, DWORD PTR __k$558119[ebp]
  00715	66 c7 45 f0 83
	00		 mov	 WORD PTR __k$558119[ebp+20], 131 ; 00000083H
  0071b	59		 pop	 ecx
$LL1604@LoadProper:
  0071c	81 30 ed ec eb
	ea		 xor	 DWORD PTR [eax], -353637139 ; eaebecedH
  00722	83 c0 04	 add	 eax, 4
  00725	49		 dec	 ecx
  00726	75 f4		 jne	 SHORT $LL1604@LoadProper
  00728	80 75 f0 ed	 xor	 BYTE PTR __k$558119[ebp+20], -19 ; ffffffedH
  0072c	68 04 01 00 00	 push	 260			; 00000104H
  00731	8d 85 d4 fe ff
	ff		 lea	 eax, DWORD PTR _szBuf$[ebp]
  00737	50		 push	 eax
  00738	68 00 00 00 00	 push	 OFFSET ??_C@_00CNPNBAHC@?$AA@
  0073d	8d 45 dc	 lea	 eax, DWORD PTR __k$558119[ebp]
  00740	50		 push	 eax
  00741	8b cf		 mov	 ecx, edi
  00743	ff 15 00 00 00
	00		 call	 DWORD PTR __imp_?LoadStringA@ioINILoader@@QAEXPBD0PADH@Z

; 82   : 	m_strPreActionAni_Jump = szBuf;

  00749	8d 85 d4 fe ff
	ff		 lea	 eax, DWORD PTR _szBuf$[ebp]
  0074f	50		 push	 eax
  00750	8d 8e 4c 12 00
	00		 lea	 ecx, DWORD PTR [esi+4684]
  00756	ff 15 00 00 00
	00		 call	 DWORD PTR __imp_??4ioHashString@@QAEAAV0@PBD@Z

; 83   : 	m_fPreActionAniRate_Jump = rkLoader.LoadFloat_e( "jump_pre_animation_time_rate", FLOAT1 );

  0075c	b8 01 00 00 00	 mov	 eax, 1
  00761	6a 07		 push	 7
  00763	c7 45 d8 87 99
	86 9a		 mov	 DWORD PTR __k$558178[ebp], -1702454905 ; 9a869987H
  0076a	c7 45 dc b2 9c
	99 8f		 mov	 DWORD PTR __k$558178[ebp+4], -1885758286 ; 8f999cb2H
  00771	c7 45 e0 b2 8d
	85 83		 mov	 DWORD PTR __k$558178[ebp+8], -2088399438 ; 83858db2H
  00778	c7 45 e4 80 8d
	9f 83		 mov	 DWORD PTR __k$558178[ebp+12], -2086695552 ; 839f8d80H
  0077f	c7 45 e8 82 82
	b4 9e		 mov	 DWORD PTR __k$558178[ebp+16], -1632337278 ; 9eb48282H
  00786	c7 45 ec 84 81
	8e b5		 mov	 DWORD PTR __k$558178[ebp+20], -1248951932 ; b58e8184H
  0078d	c7 45 f0 9f 8d
	9f 8f		 mov	 DWORD PTR __k$558178[ebp+24], -1885368929 ; 8f9f8d9fH
  00794	8d 4d d8	 lea	 ecx, DWORD PTR __k$558178[ebp]
  00797	88 5d f4	 mov	 BYTE PTR __k$558178[ebp+28], bl
  0079a	5a		 pop	 edx
$LL1712@LoadProper:
  0079b	81 31 ed ec eb
	ea		 xor	 DWORD PTR [ecx], -353637139 ; eaebecedH
  007a1	83 c1 04	 add	 ecx, 4
  007a4	4a		 dec	 edx
  007a5	75 f4		 jne	 SHORT $LL1712@LoadProper
  007a7	89 85 d0 fe ff
	ff		 mov	 DWORD PTR tv17717[ebp], eax
  007ad	db 85 d0 fe ff
	ff		 fild	 DWORD PTR tv17717[ebp]
  007b3	85 c0		 test	 eax, eax
  007b5	79 06		 jns	 SHORT $LN2125@LoadProper
  007b7	d8 05 00 00 00
	00		 fadd	 DWORD PTR __real@4f800000
$LN2125@LoadProper:
  007bd	51		 push	 ecx
  007be	8d 45 d8	 lea	 eax, DWORD PTR __k$558178[ebp]
  007c1	d9 1c 24	 fstp	 DWORD PTR [esp]
  007c4	50		 push	 eax
  007c5	8b cf		 mov	 ecx, edi
  007c7	ff 15 00 00 00
	00		 call	 DWORD PTR __imp_?LoadFloat@ioINILoader@@QAEMPBDM@Z
  007cd	51		 push	 ecx
  007ce	8d 8e 1c 12 00
	00		 lea	 ecx, DWORD PTR [esi+4636]
  007d4	d9 1c 24	 fstp	 DWORD PTR [esp]
  007d7	e8 00 00 00 00	 call	 ??4?$CEncrypt@M@@QAEMM@Z ; CEncrypt<float>::operator=
  007dc	dd d8		 fstp	 ST(0)

; 84   : 
; 85   : 	m_fJumpAngle = rkLoader.LoadFloat_e( "jump_angle", FLOAT1 );

  007de	b8 01 00 00 00	 mov	 eax, 1
  007e3	6a 02		 push	 2
  007e5	c7 45 e8 87 99
	86 9a		 mov	 DWORD PTR __k$558307[ebp], -1702454905 ; 9a869987H
  007ec	c7 45 ec b2 8d
	85 8d		 mov	 DWORD PTR __k$558307[ebp+4], -1920627278 ; 8d858db2H
  007f3	66 c7 45 f0 81
	89		 mov	 WORD PTR __k$558307[ebp+8], 35201 ; 00008981H
  007f9	8d 4d e8	 lea	 ecx, DWORD PTR __k$558307[ebp]
  007fc	88 5d f2	 mov	 BYTE PTR __k$558307[ebp+10], bl
  007ff	5a		 pop	 edx
$LL1820@LoadProper:
  00800	81 31 ed ec eb
	ea		 xor	 DWORD PTR [ecx], -353637139 ; eaebecedH
  00806	83 c1 04	 add	 ecx, 4
  00809	4a		 dec	 edx
  0080a	75 f4		 jne	 SHORT $LL1820@LoadProper
  0080c	c7 85 d0 fe ff
	ff 08 00 00 00	 mov	 DWORD PTR _i$558297[ebp], 8
$LL1817@LoadProper:
  00816	8b 8d d0 fe ff
	ff		 mov	 ecx, DWORD PTR _i$558297[ebp]
  0081c	81 e1 03 00 00
	80		 and	 ecx, -2147483645	; 80000003H
  00822	79 05		 jns	 SHORT $LN2126@LoadProper
  00824	49		 dec	 ecx
  00825	83 c9 fc	 or	 ecx, -4			; fffffffcH
  00828	41		 inc	 ecx
$LN2126@LoadProper:
  00829	b2 ed		 mov	 dl, -19			; ffffffedH
  0082b	2a d1		 sub	 dl, cl
  0082d	8b 8d d0 fe ff
	ff		 mov	 ecx, DWORD PTR _i$558297[ebp]
  00833	30 54 0d e8	 xor	 BYTE PTR __k$558307[ebp+ecx], dl
  00837	ff 85 d0 fe ff
	ff		 inc	 DWORD PTR _i$558297[ebp]
  0083d	83 bd d0 fe ff
	ff 0a		 cmp	 DWORD PTR _i$558297[ebp], 10 ; 0000000aH
  00844	7c d0		 jl	 SHORT $LL1817@LoadProper
  00846	89 85 d0 fe ff
	ff		 mov	 DWORD PTR tv17705[ebp], eax
  0084c	db 85 d0 fe ff
	ff		 fild	 DWORD PTR tv17705[ebp]
  00852	85 c0		 test	 eax, eax
  00854	79 06		 jns	 SHORT $LN2127@LoadProper
  00856	d8 05 00 00 00
	00		 fadd	 DWORD PTR __real@4f800000
$LN2127@LoadProper:
  0085c	51		 push	 ecx
  0085d	8d 45 e8	 lea	 eax, DWORD PTR __k$558307[ebp]
  00860	d9 1c 24	 fstp	 DWORD PTR [esp]
  00863	50		 push	 eax
  00864	8b cf		 mov	 ecx, edi
  00866	ff 15 00 00 00
	00		 call	 DWORD PTR __imp_?LoadFloat@ioINILoader@@QAEMPBDM@Z
  0086c	d9 9e 60 12 00
	00		 fstp	 DWORD PTR [esi+4704]

; 86   : 	m_fJumpAngleInJump = rkLoader.LoadFloat_e( "jump_angle_InJump", FLOAT1 );

  00872	b8 01 00 00 00	 mov	 eax, 1
  00877	6a 04		 push	 4
  00879	c7 45 e0 87 99
	86 9a		 mov	 DWORD PTR __k$558436[ebp], -1702454905 ; 9a869987H
  00880	c7 45 e4 b2 8d
	85 8d		 mov	 DWORD PTR __k$558436[ebp+4], -1920627278 ; 8d858db2H
  00887	c7 45 e8 81 89
	b4 a3		 mov	 DWORD PTR __k$558436[ebp+8], -1548449407 ; a3b48981H
  0088e	c7 45 ec 83 a6
	9e 87		 mov	 DWORD PTR __k$558436[ebp+12], -2019645821 ; 879ea683H
  00895	8d 4d e0	 lea	 ecx, DWORD PTR __k$558436[ebp]
  00898	66 c7 45 f0 9d
	00		 mov	 WORD PTR __k$558436[ebp+16], 157 ; 0000009dH
  0089e	5a		 pop	 edx
$LL1928@LoadProper:
  0089f	81 31 ed ec eb
	ea		 xor	 DWORD PTR [ecx], -353637139 ; eaebecedH
  008a5	83 c1 04	 add	 ecx, 4
  008a8	4a		 dec	 edx
  008a9	75 f4		 jne	 SHORT $LL1928@LoadProper
  008ab	80 75 f0 ed	 xor	 BYTE PTR __k$558436[ebp+16], -19 ; ffffffedH
  008af	89 85 d0 fe ff
	ff		 mov	 DWORD PTR tv17697[ebp], eax
  008b5	db 85 d0 fe ff
	ff		 fild	 DWORD PTR tv17697[ebp]
  008bb	85 c0		 test	 eax, eax
  008bd	79 06		 jns	 SHORT $LN2128@LoadProper
  008bf	d8 05 00 00 00
	00		 fadd	 DWORD PTR __real@4f800000
$LN2128@LoadProper:
  008c5	51		 push	 ecx
  008c6	8d 45 e0	 lea	 eax, DWORD PTR __k$558436[ebp]
  008c9	d9 1c 24	 fstp	 DWORD PTR [esp]
  008cc	50		 push	 eax
  008cd	8b cf		 mov	 ecx, edi
  008cf	ff 15 00 00 00
	00		 call	 DWORD PTR __imp_?LoadFloat@ioINILoader@@QAEMPBDM@Z
  008d5	d9 9e 64 12 00
	00		 fstp	 DWORD PTR [esi+4708]
  008db	6a 05		 push	 5

; 87   : 
; 88   : 	m_dwTeleportEndTime = rkLoader.LoadInt_e( "teleport_enable_time", 50 );

  008dd	c7 45 e0 99 89
	87 8f		 mov	 DWORD PTR __k$558548[ebp], -1886942823 ; 8f878999H
  008e4	c7 45 e4 9d 83
	99 9e		 mov	 DWORD PTR __k$558548[ebp+4], -1634106467 ; 9e99839dH
  008eb	c7 45 e8 b2 89
	85 8b		 mov	 DWORD PTR __k$558548[ebp+8], -1954182734 ; 8b8589b2H
  008f2	c7 45 ec 8f 80
	8e b5		 mov	 DWORD PTR __k$558548[ebp+12], -1248952177 ; b58e808fH
  008f9	c7 45 f0 99 85
	86 8f		 mov	 DWORD PTR __k$558548[ebp+16], -1887009383 ; 8f868599H
  00900	8d 45 e0	 lea	 eax, DWORD PTR __k$558548[ebp]
  00903	88 5d f4	 mov	 BYTE PTR __k$558548[ebp+20], bl
  00906	59		 pop	 ecx
$LL2034@LoadProper:
  00907	81 30 ed ec eb
	ea		 xor	 DWORD PTR [eax], -353637139 ; eaebecedH
  0090d	83 c0 04	 add	 eax, 4
  00910	49		 dec	 ecx
  00911	75 f4		 jne	 SHORT $LL2034@LoadProper
  00913	6a 32		 push	 50			; 00000032H
  00915	8d 45 e0	 lea	 eax, DWORD PTR __k$558548[ebp]
  00918	50		 push	 eax
  00919	8b cf		 mov	 ecx, edi
  0091b	ff 15 00 00 00
	00		 call	 DWORD PTR __imp_?LoadInt@ioINILoader@@QAEHPBDH@Z
  00921	50		 push	 eax
  00922	8d 8e dc 12 00
	00		 lea	 ecx, DWORD PTR [esi+4828]
  00928	e8 00 00 00 00	 call	 ??4?$CEncrypt@K@@QAEKH@Z ; CEncrypt<unsigned long>::operator=

; 89   : 
; 90   : }

  0092d	8b 4d fc	 mov	 ecx, DWORD PTR __$ArrayPad$[ebp]
  00930	5f		 pop	 edi
  00931	5e		 pop	 esi
  00932	33 cd		 xor	 ecx, ebp
  00934	5b		 pop	 ebx
  00935	e8 00 00 00 00	 call	 @__security_check_cookie@4
  0093a	c9		 leave
  0093b	c2 04 00	 ret	 4
?LoadProperty@ioLightAttack@@UAEXAAVioINILoader@@@Z ENDP ; ioLightAttack::LoadProperty
_TEXT	ENDS
END
