; Listing generated by Microsoft (R) Optimizing Compiler Version 16.00.30319.01 

	TITLE	D:\Lost Saga For Developer\Youtube\Tutorial\Source\src\LSClient\ioLobbyStage.cpp
	.686P
	.XMM
	include listing.inc
	.model	flat

INCLUDELIB MSVCRT
INCLUDELIB OLDNAMES

PUBLIC	??_7ioLobbyStage@@6B@				; ioLobbyStage::`vftable'
PUBLIC	??0ioLobbyStage@@QAE@PAVioGameSceneManager@@@Z	; ioLobbyStage::ioLobbyStage
PUBLIC	??_R4ioLobbyStage@@6B@				; ioLobbyStage::`RTTI Complete Object Locator'
PUBLIC	??_R0?AVioLobbyStage@@@8			; ioLobbyStage `RTTI Type Descriptor'
PUBLIC	??_R3ioLobbyStage@@8				; ioLobbyStage::`RTTI Class Hierarchy Descriptor'
PUBLIC	??_R2ioLobbyStage@@8				; ioLobbyStage::`RTTI Base Class Array'
PUBLIC	??_R1A@?0A@EA@ioLobbyStage@@8			; ioLobbyStage::`RTTI Base Class Descriptor at (0,-1,0,64)'
PUBLIC	??_R1A@?0A@EA@ioGameStage@@8			; ioGameStage::`RTTI Base Class Descriptor at (0,-1,0,64)'
PUBLIC	??_R0?AVioGameStage@@@8				; ioGameStage `RTTI Type Descriptor'
PUBLIC	??_R3ioGameStage@@8				; ioGameStage::`RTTI Class Hierarchy Descriptor'
PUBLIC	??_R2ioGameStage@@8				; ioGameStage::`RTTI Base Class Array'
PUBLIC	?InitStage@ioLobbyStage@@UAE_NXZ		; ioLobbyStage::InitStage
PUBLIC	?Render@ioLobbyStage@@UAEXPAVioRenderSystem@@@Z	; ioLobbyStage::Render
PUBLIC	?ClearStage@ioLobbyStage@@UAEXXZ		; ioLobbyStage::ClearStage
PUBLIC	?UpdatePreLoop@ioLobbyStage@@UAEXPAVioCamera@@@Z ; ioLobbyStage::UpdatePreLoop
PUBLIC	?UpdateLoop@ioLobbyStage@@UAEXPAVioCamera@@@Z	; ioLobbyStage::UpdateLoop
PUBLIC	?UpdateAfterLoop@ioLobbyStage@@UAEXPAVioCamera@@@Z ; ioLobbyStage::UpdateAfterLoop
PUBLIC	?GetTypeID@ioLobbyStage@@UBE?AW4GameStage@ioGameStage@@XZ ; ioLobbyStage::GetTypeID
PUBLIC	?GetTypeText@ioLobbyStage@@UBEPBDXZ		; ioLobbyStage::GetTypeText
PUBLIC	?ProcessUDPPacket@ioLobbyStage@@UAE_NAAVSP2Packet@@@Z ; ioLobbyStage::ProcessUDPPacket
PUBLIC	?ProcessTCPPacket@ioLobbyStage@@UAE_NAAVSP2Packet@@@Z ; ioLobbyStage::ProcessTCPPacket
PUBLIC	?SetShadowMapEnable@ioLobbyStage@@UAEX_N@Z	; ioLobbyStage::SetShadowMapEnable
EXTRN	??1ioGameStage@@UAE@XZ:PROC			; ioGameStage::~ioGameStage
EXTRN	__imp_??0ioHashString@@QAE@XZ:PROC
EXTRN	??0ioGameStage@@QAE@PAVioGameSceneManager@@@Z:PROC ; ioGameStage::ioGameStage
EXTRN	___CxxFrameHandler3:PROC
EXTRN	@__security_check_cookie@4:PROC
EXTRN	__EH_epilog3:PROC
EXTRN	__EH_prolog3:PROC
EXTRN	??_7type_info@@6B@:QWORD			; type_info::`vftable'
EXTRN	??_EioLobbyStage@@UAEPAXI@Z:PROC		; ioLobbyStage::`vector deleting destructor'
;	COMDAT ??_R2ioGameStage@@8
; File d:\lost saga for developer\youtube\tutorial\source\src\lsclient\iolobbystage.cpp
rdata$r	SEGMENT
??_R2ioGameStage@@8 DD FLAT:??_R1A@?0A@EA@ioGameStage@@8 ; ioGameStage::`RTTI Base Class Array'
rdata$r	ENDS
;	COMDAT ??_R3ioGameStage@@8
rdata$r	SEGMENT
??_R3ioGameStage@@8 DD 00H				; ioGameStage::`RTTI Class Hierarchy Descriptor'
	DD	00H
	DD	01H
	DD	FLAT:??_R2ioGameStage@@8
rdata$r	ENDS
;	COMDAT ??_R0?AVioGameStage@@@8
_DATA	SEGMENT
??_R0?AVioGameStage@@@8 DD FLAT:??_7type_info@@6B@	; ioGameStage `RTTI Type Descriptor'
	DD	00H
	DB	'.?AVioGameStage@@', 00H
_DATA	ENDS
;	COMDAT ??_R1A@?0A@EA@ioGameStage@@8
rdata$r	SEGMENT
??_R1A@?0A@EA@ioGameStage@@8 DD FLAT:??_R0?AVioGameStage@@@8 ; ioGameStage::`RTTI Base Class Descriptor at (0,-1,0,64)'
	DD	00H
	DD	00H
	DD	0ffffffffH
	DD	00H
	DD	040H
	DD	FLAT:??_R3ioGameStage@@8
rdata$r	ENDS
;	COMDAT ??_R1A@?0A@EA@ioLobbyStage@@8
rdata$r	SEGMENT
??_R1A@?0A@EA@ioLobbyStage@@8 DD FLAT:??_R0?AVioLobbyStage@@@8 ; ioLobbyStage::`RTTI Base Class Descriptor at (0,-1,0,64)'
	DD	01H
	DD	00H
	DD	0ffffffffH
	DD	00H
	DD	040H
	DD	FLAT:??_R3ioLobbyStage@@8
rdata$r	ENDS
;	COMDAT ??_R2ioLobbyStage@@8
rdata$r	SEGMENT
??_R2ioLobbyStage@@8 DD FLAT:??_R1A@?0A@EA@ioLobbyStage@@8 ; ioLobbyStage::`RTTI Base Class Array'
	DD	FLAT:??_R1A@?0A@EA@ioGameStage@@8
rdata$r	ENDS
;	COMDAT ??_R3ioLobbyStage@@8
rdata$r	SEGMENT
??_R3ioLobbyStage@@8 DD 00H				; ioLobbyStage::`RTTI Class Hierarchy Descriptor'
	DD	00H
	DD	02H
	DD	FLAT:??_R2ioLobbyStage@@8
rdata$r	ENDS
;	COMDAT ??_R0?AVioLobbyStage@@@8
_DATA	SEGMENT
??_R0?AVioLobbyStage@@@8 DD FLAT:??_7type_info@@6B@	; ioLobbyStage `RTTI Type Descriptor'
	DD	00H
	DB	'.?AVioLobbyStage@@', 00H
_DATA	ENDS
;	COMDAT ??_R4ioLobbyStage@@6B@
rdata$r	SEGMENT
??_R4ioLobbyStage@@6B@ DD 00H				; ioLobbyStage::`RTTI Complete Object Locator'
	DD	00H
	DD	00H
	DD	FLAT:??_R0?AVioLobbyStage@@@8
	DD	FLAT:??_R3ioLobbyStage@@8
rdata$r	ENDS
;	COMDAT ??_7ioLobbyStage@@6B@
CONST	SEGMENT
??_7ioLobbyStage@@6B@ DD FLAT:??_R4ioLobbyStage@@6B@	; ioLobbyStage::`vftable'
	DD	FLAT:?InitStage@ioLobbyStage@@UAE_NXZ
	DD	FLAT:?Render@ioLobbyStage@@UAEXPAVioRenderSystem@@@Z
	DD	FLAT:?ClearStage@ioLobbyStage@@UAEXXZ
	DD	FLAT:?UpdatePreLoop@ioLobbyStage@@UAEXPAVioCamera@@@Z
	DD	FLAT:?UpdateLoop@ioLobbyStage@@UAEXPAVioCamera@@@Z
	DD	FLAT:?UpdateAfterLoop@ioLobbyStage@@UAEXPAVioCamera@@@Z
	DD	FLAT:?GetTypeID@ioLobbyStage@@UBE?AW4GameStage@ioGameStage@@XZ
	DD	FLAT:?GetTypeText@ioLobbyStage@@UBEPBDXZ
	DD	FLAT:?ProcessUDPPacket@ioLobbyStage@@UAE_NAAVSP2Packet@@@Z
	DD	FLAT:?ProcessTCPPacket@ioLobbyStage@@UAE_NAAVSP2Packet@@@Z
	DD	FLAT:??_EioLobbyStage@@UAEPAXI@Z
	DD	FLAT:?SetShadowMapEnable@ioLobbyStage@@UAEX_N@Z
CONST	ENDS
;	COMDAT xdata$x
xdata$x	SEGMENT
__unwindtable$??0ioLobbyStage@@QAE@PAVioGameSceneManager@@@Z DD 0ffffffffH
	DD	FLAT:__unwindfunclet$??0ioLobbyStage@@QAE@PAVioGameSceneManager@@@Z$0
__ehfuncinfo$??0ioLobbyStage@@QAE@PAVioGameSceneManager@@@Z DD 019930522H
	DD	01H
	DD	FLAT:__unwindtable$??0ioLobbyStage@@QAE@PAVioGameSceneManager@@@Z
	DD	2 DUP(00H)
	DD	2 DUP(00H)
	DD	00H
	DD	01H
; Function compile flags: /Ogsp
xdata$x	ENDS
;	COMDAT ??0ioLobbyStage@@QAE@PAVioGameSceneManager@@@Z
_TEXT	SEGMENT
_this$ = -16						; size = 4
__$EHRec$ = -12						; size = 12
_pSceneMgr$ = 8						; size = 4
??0ioLobbyStage@@QAE@PAVioGameSceneManager@@@Z PROC	; ioLobbyStage::ioLobbyStage, COMDAT
; _this$ = ecx

; 16   : {

  00000	6a 04		 push	 4
  00002	b8 00 00 00 00	 mov	 eax, __ehhandler$??0ioLobbyStage@@QAE@PAVioGameSceneManager@@@Z
  00007	e8 00 00 00 00	 call	 __EH_prolog3
  0000c	8b f1		 mov	 esi, ecx
  0000e	89 75 f0	 mov	 DWORD PTR _this$[ebp], esi
  00011	ff 75 08	 push	 DWORD PTR _pSceneMgr$[ebp]
  00014	e8 00 00 00 00	 call	 ??0ioGameStage@@QAE@PAVioGameSceneManager@@@Z ; ioGameStage::ioGameStage
  00019	83 65 fc 00	 and	 DWORD PTR __$EHRec$[ebp+8], 0
  0001d	8d 4e 08	 lea	 ecx, DWORD PTR [esi+8]
  00020	c7 06 00 00 00
	00		 mov	 DWORD PTR [esi], OFFSET ??_7ioLobbyStage@@6B@
  00026	ff 15 00 00 00
	00		 call	 DWORD PTR __imp_??0ioHashString@@QAE@XZ

; 17   : }

  0002c	8b c6		 mov	 eax, esi
  0002e	e8 00 00 00 00	 call	 __EH_epilog3
  00033	c2 04 00	 ret	 4
_TEXT	ENDS
;	COMDAT text$x
text$x	SEGMENT
__unwindfunclet$??0ioLobbyStage@@QAE@PAVioGameSceneManager@@@Z$0:
  00000	8b 4d f0	 mov	 ecx, DWORD PTR _this$[ebp]
  00003	e9 00 00 00 00	 jmp	 ??1ioGameStage@@UAE@XZ	; ioGameStage::~ioGameStage
__ehhandler$??0ioLobbyStage@@QAE@PAVioGameSceneManager@@@Z:
  00008	8b 54 24 08	 mov	 edx, DWORD PTR [esp+8]
  0000c	8d 42 0c	 lea	 eax, DWORD PTR [edx+12]
  0000f	8b 4a ec	 mov	 ecx, DWORD PTR [edx-20]
  00012	33 c8		 xor	 ecx, eax
  00014	e8 00 00 00 00	 call	 @__security_check_cookie@4
  00019	b8 00 00 00 00	 mov	 eax, OFFSET __ehfuncinfo$??0ioLobbyStage@@QAE@PAVioGameSceneManager@@@Z
  0001e	e9 00 00 00 00	 jmp	 ___CxxFrameHandler3
text$x	ENDS
??0ioLobbyStage@@QAE@PAVioGameSceneManager@@@Z ENDP	; ioLobbyStage::ioLobbyStage
; Function compile flags: /Ogsp
; File d:\lost saga for developer\youtube\tutorial\source\src\lsclient\iolobbystage.h
;	COMDAT ?SetShadowMapEnable@ioLobbyStage@@UAEX_N@Z
_TEXT	SEGMENT
_bEnable$ = 8						; size = 1
?SetShadowMapEnable@ioLobbyStage@@UAEX_N@Z PROC		; ioLobbyStage::SetShadowMapEnable, COMDAT
; _this$ = ecx

; 24   : 	virtual void SetShadowMapEnable( bool bEnable ){};

  00000	c2 04 00	 ret	 4
?SetShadowMapEnable@ioLobbyStage@@UAEX_N@Z ENDP		; ioLobbyStage::SetShadowMapEnable
_TEXT	ENDS
PUBLIC	??1ioINILoader_e@@QAE@XZ			; ioINILoader_e::~ioINILoader_e
EXTRN	__imp_??1ioINILoader@@QAE@XZ:PROC
; Function compile flags: /Ogsp
;	COMDAT ??1ioINILoader_e@@QAE@XZ
_TEXT	SEGMENT
??1ioINILoader_e@@QAE@XZ PROC				; ioINILoader_e::~ioINILoader_e, COMDAT
; _this$ = ecx
  00000	ff 25 00 00 00
	00		 jmp	 DWORD PTR __imp_??1ioINILoader@@QAE@XZ
??1ioINILoader_e@@QAE@XZ ENDP				; ioINILoader_e::~ioINILoader_e
_TEXT	ENDS
EXTRN	?Process@ioGlobalTimer@@QAEXXZ:PROC		; ioGlobalTimer::Process
EXTRN	?GetSingleton@ioGlobalTimer@@SAAAV1@XZ:PROC	; ioGlobalTimer::GetSingleton
; Function compile flags: /Ogsp
; File d:\lost saga for developer\youtube\tutorial\source\src\lsclient\iolobbystage.cpp
;	COMDAT ?UpdatePreLoop@ioLobbyStage@@UAEXPAVioCamera@@@Z
_TEXT	SEGMENT
_pCamera$ = 8						; size = 4
?UpdatePreLoop@ioLobbyStage@@UAEXPAVioCamera@@@Z PROC	; ioLobbyStage::UpdatePreLoop, COMDAT
; _this$ = ecx

; 83   : 	g_GlobalTimer.Process();

  00000	e8 00 00 00 00	 call	 ?GetSingleton@ioGlobalTimer@@SAAAV1@XZ ; ioGlobalTimer::GetSingleton
  00005	8b c8		 mov	 ecx, eax
  00007	e8 00 00 00 00	 call	 ?Process@ioGlobalTimer@@QAEXXZ ; ioGlobalTimer::Process

; 84   : }

  0000c	c2 04 00	 ret	 4
?UpdatePreLoop@ioLobbyStage@@UAEXPAVioCamera@@@Z ENDP	; ioLobbyStage::UpdatePreLoop
; Function compile flags: /Ogsp
_TEXT	ENDS
;	COMDAT ?UpdateLoop@ioLobbyStage@@UAEXPAVioCamera@@@Z
_TEXT	SEGMENT
_pCamera$ = 8						; size = 4
?UpdateLoop@ioLobbyStage@@UAEXPAVioCamera@@@Z PROC	; ioLobbyStage::UpdateLoop, COMDAT
; _this$ = ecx

; 88   : 	
; 89   : }

  00000	c2 04 00	 ret	 4
?UpdateLoop@ioLobbyStage@@UAEXPAVioCamera@@@Z ENDP	; ioLobbyStage::UpdateLoop
_TEXT	ENDS
EXTRN	?GetSingleton@ioSP2GUIManager@@SAAAV1@XZ:PROC	; ioSP2GUIManager::GetSingleton
EXTRN	__imp_?SetFogEnable@ioRenderSystem@@QAEX_N@Z:PROC
EXTRN	__imp_?ClearBack@ioRenderSystem@@QAEXKKPBU_D3DRECT@@@Z:PROC
; Function compile flags: /Ogsp
;	COMDAT ?Render@ioLobbyStage@@UAEXPAVioRenderSystem@@@Z
_TEXT	SEGMENT
_pSystem$ = 8						; size = 4
?Render@ioLobbyStage@@UAEXPAVioRenderSystem@@@Z PROC	; ioLobbyStage::Render, COMDAT
; _this$ = ecx

; 102  : {

  00000	55		 push	 ebp
  00001	8b ec		 mov	 ebp, esp

; 103  : 	pSystem->ClearBack( D3DCLEAR_ZBUFFER );

  00003	8b 4d 08	 mov	 ecx, DWORD PTR _pSystem$[ebp]
  00006	6a 00		 push	 0
  00008	6a ff		 push	 -1
  0000a	6a 02		 push	 2
  0000c	ff 15 00 00 00
	00		 call	 DWORD PTR __imp_?ClearBack@ioRenderSystem@@QAEXKKPBU_D3DRECT@@@Z

; 104  : 	pSystem->SetFogEnable( false );

  00012	8b 4d 08	 mov	 ecx, DWORD PTR _pSystem$[ebp]
  00015	6a 00		 push	 0
  00017	ff 15 00 00 00
	00		 call	 DWORD PTR __imp_?SetFogEnable@ioRenderSystem@@QAEX_N@Z

; 105  : 
; 106  : 	g_GUIMgr.RenderGUI();

  0001d	e8 00 00 00 00	 call	 ?GetSingleton@ioSP2GUIManager@@SAAAV1@XZ ; ioSP2GUIManager::GetSingleton
  00022	8b 10		 mov	 edx, DWORD PTR [eax]
  00024	8b c8		 mov	 ecx, eax
  00026	ff 52 0c	 call	 DWORD PTR [edx+12]

; 107  : }

  00029	5d		 pop	 ebp
  0002a	c2 04 00	 ret	 4
?Render@ioLobbyStage@@UAEXPAVioRenderSystem@@@Z ENDP	; ioLobbyStage::Render
_TEXT	ENDS
EXTRN	__imp_?StopSound@ioSoundManager@@QAEXABVioHashString@@K@Z:PROC
EXTRN	__imp_?GetSingleton@ioSoundManager@@SAAAV1@XZ:PROC
; Function compile flags: /Ogsp
;	COMDAT ?ClearStage@ioLobbyStage@@UAEXXZ
_TEXT	SEGMENT
?ClearStage@ioLobbyStage@@UAEXXZ PROC			; ioLobbyStage::ClearStage, COMDAT
; _this$ = ecx

; 111  : 	g_SoundMgr.StopSound( m_LobbySound, 0 );

  00000	83 c1 08	 add	 ecx, 8
  00003	6a 00		 push	 0
  00005	51		 push	 ecx
  00006	ff 15 00 00 00
	00		 call	 DWORD PTR __imp_?GetSingleton@ioSoundManager@@SAAAV1@XZ
  0000c	8b c8		 mov	 ecx, eax
  0000e	ff 15 00 00 00
	00		 call	 DWORD PTR __imp_?StopSound@ioSoundManager@@QAEXABVioHashString@@K@Z

; 112  : 	g_GUIMgr.ClearAllGUI();

  00014	e8 00 00 00 00	 call	 ?GetSingleton@ioSP2GUIManager@@SAAAV1@XZ ; ioSP2GUIManager::GetSingleton
  00019	8b 10		 mov	 edx, DWORD PTR [eax]
  0001b	8b c8		 mov	 ecx, eax
  0001d	ff 62 10	 jmp	 DWORD PTR [edx+16]
?ClearStage@ioLobbyStage@@UAEXXZ ENDP			; ioLobbyStage::ClearStage
_TEXT	ENDS
PUBLIC	?ProcessFunctionKey@ioLobbyStage@@IAEXXZ	; ioLobbyStage::ProcessFunctionKey
; Function compile flags: /Ogsp
;	COMDAT ?ProcessFunctionKey@ioLobbyStage@@IAEXXZ
_TEXT	SEGMENT
?ProcessFunctionKey@ioLobbyStage@@IAEXXZ PROC		; ioLobbyStage::ProcessFunctionKey, COMDAT
; _this$ = ecx

; 117  : 	if( ioWnd::m_pTopModalWnd )       //모달 윈도우가 있으면 키입력 불가.
; 118  : 		return;
; 119  : }

  00000	c3		 ret	 0
?ProcessFunctionKey@ioLobbyStage@@IAEXXZ ENDP		; ioLobbyStage::ProcessFunctionKey
; Function compile flags: /Ogsp
_TEXT	ENDS
;	COMDAT ?GetTypeID@ioLobbyStage@@UBE?AW4GameStage@ioGameStage@@XZ
_TEXT	SEGMENT
?GetTypeID@ioLobbyStage@@UBE?AW4GameStage@ioGameStage@@XZ PROC ; ioLobbyStage::GetTypeID, COMDAT
; _this$ = ecx

; 123  : 	return GS_LOBBY;

  00000	6a 02		 push	 2
  00002	58		 pop	 eax

; 124  : }

  00003	c3		 ret	 0
?GetTypeID@ioLobbyStage@@UBE?AW4GameStage@ioGameStage@@XZ ENDP ; ioLobbyStage::GetTypeID
_TEXT	ENDS
PUBLIC	??_C@_08CGHCMCGO@GS_LOBBY?$AA@			; `string'
;	COMDAT ??_C@_08CGHCMCGO@GS_LOBBY?$AA@
CONST	SEGMENT
??_C@_08CGHCMCGO@GS_LOBBY?$AA@ DB 'GS_LOBBY', 00H	; `string'
; Function compile flags: /Ogsp
CONST	ENDS
;	COMDAT ?GetTypeText@ioLobbyStage@@UBEPBDXZ
_TEXT	SEGMENT
?GetTypeText@ioLobbyStage@@UBEPBDXZ PROC		; ioLobbyStage::GetTypeText, COMDAT
; _this$ = ecx

; 128  : 	return "GS_LOBBY";

  00000	b8 00 00 00 00	 mov	 eax, OFFSET ??_C@_08CGHCMCGO@GS_LOBBY?$AA@

; 129  : }

  00005	c3		 ret	 0
?GetTypeText@ioLobbyStage@@UBEPBDXZ ENDP		; ioLobbyStage::GetTypeText
_TEXT	ENDS
PUBLIC	?OnSyncTime@ioLobbyStage@@IAEXAAVSP2Packet@@@Z	; ioLobbyStage::OnSyncTime
EXTRN	?SetGlobalTime@ioGlobalTimer@@QAEHAAVSP2Packet@@@Z:PROC ; ioGlobalTimer::SetGlobalTime
EXTRN	?SetWholeRainbowChatOn@Help@@YAX_N@Z:PROC	; Help::SetWholeRainbowChatOn
EXTRN	?SetWholeChatOn@Help@@YAX_N@Z:PROC		; Help::SetWholeChatOn
EXTRN	??5SP2Packet@@QAEAAV0@AA_N@Z:PROC		; SP2Packet::operator>>
; Function compile flags: /Ogsp
;	COMDAT ?OnSyncTime@ioLobbyStage@@IAEXAAVSP2Packet@@@Z
_TEXT	SEGMENT
_bWholeChatOn$ = -4					; size = 1
_rkPacket$ = 8						; size = 4
?OnSyncTime@ioLobbyStage@@IAEXAAVSP2Packet@@@Z PROC	; ioLobbyStage::OnSyncTime, COMDAT
; _this$ = ecx

; 144  : {

  00000	55		 push	 ebp
  00001	8b ec		 mov	 ebp, esp
  00003	51		 push	 ecx

; 145  : 	// 외침 가능 여부
; 146  : 	bool bWholeChatOn;
; 147  : 	rkPacket >> bWholeChatOn;

  00004	8b 4d 08	 mov	 ecx, DWORD PTR _rkPacket$[ebp]
  00007	8d 45 fc	 lea	 eax, DWORD PTR _bWholeChatOn$[ebp]
  0000a	50		 push	 eax
  0000b	e8 00 00 00 00	 call	 ??5SP2Packet@@QAEAAV0@AA_N@Z ; SP2Packet::operator>>

; 148  : 	Help::SetWholeChatOn( bWholeChatOn );

  00010	ff 75 fc	 push	 DWORD PTR _bWholeChatOn$[ebp]
  00013	e8 00 00 00 00	 call	 ?SetWholeChatOn@Help@@YAX_N@Z ; Help::SetWholeChatOn

; 149  : 	Help::SetWholeRainbowChatOn( bWholeChatOn );

  00018	ff 75 fc	 push	 DWORD PTR _bWholeChatOn$[ebp]
  0001b	e8 00 00 00 00	 call	 ?SetWholeRainbowChatOn@Help@@YAX_N@Z ; Help::SetWholeRainbowChatOn
  00020	59		 pop	 ecx
  00021	59		 pop	 ecx

; 150  : 
; 151  : 	// 핑 시간
; 152  : 	g_GlobalTimer.SetGlobalTime( rkPacket );

  00022	ff 75 08	 push	 DWORD PTR _rkPacket$[ebp]
  00025	e8 00 00 00 00	 call	 ?GetSingleton@ioGlobalTimer@@SAAAV1@XZ ; ioGlobalTimer::GetSingleton
  0002a	8b c8		 mov	 ecx, eax
  0002c	e8 00 00 00 00	 call	 ?SetGlobalTime@ioGlobalTimer@@QAEHAAVSP2Packet@@@Z ; ioGlobalTimer::SetGlobalTime

; 153  : }

  00031	c9		 leave
  00032	c2 04 00	 ret	 4
?OnSyncTime@ioLobbyStage@@IAEXAAVSP2Packet@@@Z ENDP	; ioLobbyStage::OnSyncTime
_TEXT	ENDS
PUBLIC	??_C@_0BL@ONJOIPBO@ioLobbyStage?3?3OnCreateRoom?$AA@ ; `string'
PUBLIC	??_C@_00CNPNBAHC@?$AA@				; `string'
PUBLIC	?OnCreateRoom@ioLobbyStage@@IAEXAAVSP2Packet@@@Z ; ioLobbyStage::OnCreateRoom
EXTRN	?SetMouseBusy@ioApplication@@QAEX_N@Z:PROC	; ioApplication::SetMouseBusy
EXTRN	?GetSingleton@ioApplication@@SAAAV1@XZ:PROC	; ioApplication::GetSingleton
EXTRN	?SetMsgBox@ioSP2GUIManager@@QAAXHPAVioWnd@@PBDZZ:PROC ; ioSP2GUIManager::SetMsgBox
EXTRN	__imp_?GetString@ioStringManager@@QAEPADPBD0HW4FileNamePrefix@1@@Z:PROC
EXTRN	__imp_?GetSingleton@ioStringManager@@SAAAV1@XZ:PROC
EXTRN	??5SP2Packet@@QAEAAV0@AAH@Z:PROC		; SP2Packet::operator>>
;	COMDAT ??_C@_0BL@ONJOIPBO@ioLobbyStage?3?3OnCreateRoom?$AA@
CONST	SEGMENT
??_C@_0BL@ONJOIPBO@ioLobbyStage?3?3OnCreateRoom?$AA@ DB 'ioLobbyStage::On'
	DB	'CreateRoom', 00H				; `string'
CONST	ENDS
;	COMDAT ??_C@_00CNPNBAHC@?$AA@
CONST	SEGMENT
??_C@_00CNPNBAHC@?$AA@ DB 00H				; `string'
; Function compile flags: /Ogsp
CONST	ENDS
;	COMDAT ?OnCreateRoom@ioLobbyStage@@IAEXAAVSP2Packet@@@Z
_TEXT	SEGMENT
_iSubNum$ = -12						; size = 4
_iModeType$ = -8					; size = 4
_iResult$ = -4						; size = 4
_rkPacket$ = 8						; size = 4
?OnCreateRoom@ioLobbyStage@@IAEXAAVSP2Packet@@@Z PROC	; ioLobbyStage::OnCreateRoom, COMDAT
; _this$ = ecx

; 174  : {

  00000	55		 push	 ebp
  00001	8b ec		 mov	 ebp, esp
  00003	83 ec 0c	 sub	 esp, 12			; 0000000cH

; 175  : 	int iResult = 0;
; 176  : 	int iModeType = 0;
; 177  : 	int iSubNum = 0;
; 178  : 
; 179  : 	rkPacket >> iResult;

  00006	8b 4d 08	 mov	 ecx, DWORD PTR _rkPacket$[ebp]
  00009	56		 push	 esi
  0000a	33 f6		 xor	 esi, esi
  0000c	8d 45 fc	 lea	 eax, DWORD PTR _iResult$[ebp]
  0000f	50		 push	 eax
  00010	89 75 fc	 mov	 DWORD PTR _iResult$[ebp], esi
  00013	89 75 f8	 mov	 DWORD PTR _iModeType$[ebp], esi
  00016	89 75 f4	 mov	 DWORD PTR _iSubNum$[ebp], esi
  00019	e8 00 00 00 00	 call	 ??5SP2Packet@@QAEAAV0@AAH@Z ; SP2Packet::operator>>

; 180  : 	rkPacket >> iModeType;

  0001e	8b 4d 08	 mov	 ecx, DWORD PTR _rkPacket$[ebp]
  00021	8d 45 f8	 lea	 eax, DWORD PTR _iModeType$[ebp]
  00024	50		 push	 eax
  00025	e8 00 00 00 00	 call	 ??5SP2Packet@@QAEAAV0@AAH@Z ; SP2Packet::operator>>

; 181  : 	rkPacket >> iSubNum;

  0002a	8b 4d 08	 mov	 ecx, DWORD PTR _rkPacket$[ebp]
  0002d	8d 45 f4	 lea	 eax, DWORD PTR _iSubNum$[ebp]
  00030	50		 push	 eax
  00031	e8 00 00 00 00	 call	 ??5SP2Packet@@QAEAAV0@AAH@Z ; SP2Packet::operator>>

; 182  : 
; 183  : 	switch( iResult )

  00036	8b 45 fc	 mov	 eax, DWORD PTR _iResult$[ebp]
  00039	48		 dec	 eax
  0003a	48		 dec	 eax
  0003b	74 10		 je	 SHORT $LN3@OnCreateRo
  0003d	48		 dec	 eax
  0003e	74 08		 je	 SHORT $LN2@OnCreateRo
  00040	48		 dec	 eax
  00041	75 36		 jne	 SHORT $LN5@OnCreateRo

; 195  : 	case CREATE_ROOM_NOT_SOLDIER:
; 196  : 		g_GUIMgr.SetMsgBox( MB_OK, NULL, STR(3) );

  00043	56		 push	 esi
  00044	6a 03		 push	 3

; 197  : 		break;

  00046	eb 08		 jmp	 SHORT $LN9@OnCreateRo
$LN2@OnCreateRo:

; 191  : 		break;
; 192  : 	case CREATE_ROOM_FULL:
; 193  : 		g_GUIMgr.SetMsgBox( MB_OK, NULL, STR(2) );

  00048	56		 push	 esi
  00049	6a 02		 push	 2

; 194  : 		break;

  0004b	eb 03		 jmp	 SHORT $LN9@OnCreateRo
$LN3@OnCreateRo:

; 184  : 	{
; 185  : 	case CREATE_ROOM_OK:
; 186  : 		{
; 187  : 		}		
; 188  : 		break;
; 189  : 	case CREATE_ROOM_NOT:
; 190  : 		g_GUIMgr.SetMsgBox( MB_OK, NULL, STR(1) );

  0004d	56		 push	 esi
  0004e	6a 01		 push	 1
$LN9@OnCreateRo:
  00050	68 00 00 00 00	 push	 OFFSET ??_C@_00CNPNBAHC@?$AA@
  00055	68 00 00 00 00	 push	 OFFSET ??_C@_0BL@ONJOIPBO@ioLobbyStage?3?3OnCreateRoom?$AA@
  0005a	ff 15 00 00 00
	00		 call	 DWORD PTR __imp_?GetSingleton@ioStringManager@@SAAAV1@XZ
  00060	8b c8		 mov	 ecx, eax
  00062	ff 15 00 00 00
	00		 call	 DWORD PTR __imp_?GetString@ioStringManager@@QAEPADPBD0HW4FileNamePrefix@1@@Z
  00068	50		 push	 eax
  00069	56		 push	 esi
  0006a	56		 push	 esi
  0006b	e8 00 00 00 00	 call	 ?GetSingleton@ioSP2GUIManager@@SAAAV1@XZ ; ioSP2GUIManager::GetSingleton
  00070	50		 push	 eax
  00071	e8 00 00 00 00	 call	 ?SetMsgBox@ioSP2GUIManager@@QAAXHPAVioWnd@@PBDZZ ; ioSP2GUIManager::SetMsgBox
  00076	83 c4 10	 add	 esp, 16			; 00000010H
$LN5@OnCreateRo:

; 198  : 	}
; 199  : 
; 200  : 	g_App.SetMouseBusy( false );

  00079	56		 push	 esi
  0007a	e8 00 00 00 00	 call	 ?GetSingleton@ioApplication@@SAAAV1@XZ ; ioApplication::GetSingleton
  0007f	8b c8		 mov	 ecx, eax
  00081	e8 00 00 00 00	 call	 ?SetMouseBusy@ioApplication@@QAEX_N@Z ; ioApplication::SetMouseBusy
  00086	5e		 pop	 esi

; 201  : }

  00087	c9		 leave
  00088	c2 04 00	 ret	 4
?OnCreateRoom@ioLobbyStage@@IAEXAAVSP2Packet@@@Z ENDP	; ioLobbyStage::OnCreateRoom
_TEXT	ENDS
PUBLIC	??_C@_0BJ@EKFBDEBF@ioLobbyStage?3?3OnJoinRoom?$AA@ ; `string'
PUBLIC	?OnJoinRoom@ioLobbyStage@@IAEXAAVSP2Packet@@@Z	; ioLobbyStage::OnJoinRoom
;	COMDAT ??_C@_0BJ@EKFBDEBF@ioLobbyStage?3?3OnJoinRoom?$AA@
CONST	SEGMENT
??_C@_0BJ@EKFBDEBF@ioLobbyStage?3?3OnJoinRoom?$AA@ DB 'ioLobbyStage::OnJo'
	DB	'inRoom', 00H				; `string'
; Function compile flags: /Ogsp
CONST	ENDS
;	COMDAT ?OnJoinRoom@ioLobbyStage@@IAEXAAVSP2Packet@@@Z
_TEXT	SEGMENT
_iRoomNum$ = -16					; size = 4
_iSubNum$ = -12						; size = 4
_iModeType$ = -8					; size = 4
_iResult$ = -4						; size = 4
_rkPacket$ = 8						; size = 4
?OnJoinRoom@ioLobbyStage@@IAEXAAVSP2Packet@@@Z PROC	; ioLobbyStage::OnJoinRoom, COMDAT
; _this$ = ecx

; 204  : {

  00000	55		 push	 ebp
  00001	8b ec		 mov	 ebp, esp
  00003	83 ec 10	 sub	 esp, 16			; 00000010H

; 205  : 	int iResult = 0;
; 206  : 	int iModeType = 0;
; 207  : 	int iSubNum = 0;
; 208  : 	int iRoomNum = -1;

  00006	83 4d f0 ff	 or	 DWORD PTR _iRoomNum$[ebp], -1
  0000a	56		 push	 esi
  0000b	57		 push	 edi

; 209  : 
; 210  : 	rkPacket >> iResult;

  0000c	8b 7d 08	 mov	 edi, DWORD PTR _rkPacket$[ebp]
  0000f	33 f6		 xor	 esi, esi
  00011	8d 45 fc	 lea	 eax, DWORD PTR _iResult$[ebp]
  00014	50		 push	 eax
  00015	8b cf		 mov	 ecx, edi
  00017	89 75 fc	 mov	 DWORD PTR _iResult$[ebp], esi
  0001a	89 75 f8	 mov	 DWORD PTR _iModeType$[ebp], esi
  0001d	89 75 f4	 mov	 DWORD PTR _iSubNum$[ebp], esi
  00020	e8 00 00 00 00	 call	 ??5SP2Packet@@QAEAAV0@AAH@Z ; SP2Packet::operator>>

; 211  : 	rkPacket >> iModeType;

  00025	8d 45 f8	 lea	 eax, DWORD PTR _iModeType$[ebp]
  00028	50		 push	 eax
  00029	8b cf		 mov	 ecx, edi
  0002b	e8 00 00 00 00	 call	 ??5SP2Packet@@QAEAAV0@AAH@Z ; SP2Packet::operator>>

; 212  : 	rkPacket >> iSubNum;

  00030	8d 45 f4	 lea	 eax, DWORD PTR _iSubNum$[ebp]
  00033	50		 push	 eax
  00034	8b cf		 mov	 ecx, edi
  00036	e8 00 00 00 00	 call	 ??5SP2Packet@@QAEAAV0@AAH@Z ; SP2Packet::operator>>

; 213  : 	rkPacket >> iRoomNum;

  0003b	8d 45 f0	 lea	 eax, DWORD PTR _iRoomNum$[ebp]
  0003e	50		 push	 eax
  0003f	8b cf		 mov	 ecx, edi
  00041	e8 00 00 00 00	 call	 ??5SP2Packet@@QAEAAV0@AAH@Z ; SP2Packet::operator>>

; 214  : 
; 215  : 	switch( iResult )

  00046	8b 45 fc	 mov	 eax, DWORD PTR _iResult$[ebp]
  00049	48		 dec	 eax
  0004a	48		 dec	 eax
  0004b	74 10		 je	 SHORT $LN3@OnJoinRoom
  0004d	48		 dec	 eax
  0004e	74 08		 je	 SHORT $LN2@OnJoinRoom
  00050	48		 dec	 eax
  00051	75 36		 jne	 SHORT $LN5@OnJoinRoom

; 227  : 	case JOIN_ROOM_NOT_SOLDIER:
; 228  : 		g_GUIMgr.SetMsgBox( MB_OK, NULL, STR(3) );		

  00053	56		 push	 esi
  00054	6a 03		 push	 3

; 229  : 		break;

  00056	eb 08		 jmp	 SHORT $LN9@OnJoinRoom
$LN2@OnJoinRoom:

; 223  : 		break;
; 224  : 	case JOIN_ROOM_FULL:
; 225  : 		g_GUIMgr.SetMsgBox( MB_OK, NULL, STR(2) );

  00058	56		 push	 esi
  00059	6a 02		 push	 2

; 226  : 		break;

  0005b	eb 03		 jmp	 SHORT $LN9@OnJoinRoom
$LN3@OnJoinRoom:

; 216  : 	{
; 217  : 	case JOIN_ROOM_OK:
; 218  : 		{
; 219  : 		}	
; 220  : 		break;
; 221  : 	case JOIN_ROOM_NOT:
; 222  : 		g_GUIMgr.SetMsgBox( MB_OK, NULL, STR(1) );

  0005d	56		 push	 esi
  0005e	6a 01		 push	 1
$LN9@OnJoinRoom:
  00060	68 00 00 00 00	 push	 OFFSET ??_C@_00CNPNBAHC@?$AA@
  00065	68 00 00 00 00	 push	 OFFSET ??_C@_0BJ@EKFBDEBF@ioLobbyStage?3?3OnJoinRoom?$AA@
  0006a	ff 15 00 00 00
	00		 call	 DWORD PTR __imp_?GetSingleton@ioStringManager@@SAAAV1@XZ
  00070	8b c8		 mov	 ecx, eax
  00072	ff 15 00 00 00
	00		 call	 DWORD PTR __imp_?GetString@ioStringManager@@QAEPADPBD0HW4FileNamePrefix@1@@Z
  00078	50		 push	 eax
  00079	56		 push	 esi
  0007a	56		 push	 esi
  0007b	e8 00 00 00 00	 call	 ?GetSingleton@ioSP2GUIManager@@SAAAV1@XZ ; ioSP2GUIManager::GetSingleton
  00080	50		 push	 eax
  00081	e8 00 00 00 00	 call	 ?SetMsgBox@ioSP2GUIManager@@QAAXHPAVioWnd@@PBDZZ ; ioSP2GUIManager::SetMsgBox
  00086	83 c4 10	 add	 esp, 16			; 00000010H
$LN5@OnJoinRoom:

; 230  : 	}
; 231  : 
; 232  : 	g_App.SetMouseBusy( false );

  00089	56		 push	 esi
  0008a	e8 00 00 00 00	 call	 ?GetSingleton@ioApplication@@SAAAV1@XZ ; ioApplication::GetSingleton
  0008f	8b c8		 mov	 ecx, eax
  00091	e8 00 00 00 00	 call	 ?SetMouseBusy@ioApplication@@QAEX_N@Z ; ioApplication::SetMouseBusy
  00096	5f		 pop	 edi
  00097	5e		 pop	 esi

; 233  : }

  00098	c9		 leave
  00099	c2 04 00	 ret	 4
?OnJoinRoom@ioLobbyStage@@IAEXAAVSP2Packet@@@Z ENDP	; ioLobbyStage::OnJoinRoom
_TEXT	ENDS
PUBLIC	??_C@_0BB@LLINGMGL@ExitProgram?5?9?512?$AA@	; `string'
PUBLIC	?OnLogOut@ioLobbyStage@@IAEXAAVSP2Packet@@@Z	; ioLobbyStage::OnLogOut
EXTRN	?SetExitProgram@ioApplication@@QAEXXZ:PROC	; ioApplication::SetExitProgram
EXTRN	__imp_?PrintTimeAndLog@CLog@@QAAXHPADZZ:PROC
EXTRN	__imp_?LOG@@3VCLog@@A:BYTE
;	COMDAT ??_C@_0BB@LLINGMGL@ExitProgram?5?9?512?$AA@
CONST	SEGMENT
??_C@_0BB@LLINGMGL@ExitProgram?5?9?512?$AA@ DB 'ExitProgram - 12', 00H ; `string'
; Function compile flags: /Ogsp
CONST	ENDS
;	COMDAT ?OnLogOut@ioLobbyStage@@IAEXAAVSP2Packet@@@Z
_TEXT	SEGMENT
_rkPacket$ = 8						; size = 4
?OnLogOut@ioLobbyStage@@IAEXAAVSP2Packet@@@Z PROC	; ioLobbyStage::OnLogOut, COMDAT
; _this$ = ecx

; 237  : 	LOG.PrintTimeAndLog( 0, "ExitProgram - 12" );

  00000	68 00 00 00 00	 push	 OFFSET ??_C@_0BB@LLINGMGL@ExitProgram?5?9?512?$AA@
  00005	6a 00		 push	 0
  00007	ff 35 00 00 00
	00		 push	 DWORD PTR __imp_?LOG@@3VCLog@@A
  0000d	ff 15 00 00 00
	00		 call	 DWORD PTR __imp_?PrintTimeAndLog@CLog@@QAAXHPADZZ
  00013	83 c4 0c	 add	 esp, 12			; 0000000cH

; 238  : 
; 239  : #if defined( USE_GA )
; 240  : 	if( g_App.GetGAStart() == true )
; 241  : 	{
; 242  : 		char chLabel[32] = {0,};
; 243  : 
; 244  : 		if ( ioLocalManager::GetLocalType() == ioLocalManager::LCT_KOREA )
; 245  : 			sprintf_e( chLabel, "%d", 12 );
; 246  : 		else
; 247  : 			SafeSprintf( chLabel, sizeof(chLabel), "%1", 12 );
; 248  : 
; 249  : 		// GAME_END_ERR_POS
; 250  : 		g_HttpMng.GA_EventTracking( g_MyInfo.GetUserIndex()
; 251  : 			, "Game"
; 252  : 			, "Error"
; 253  : 			, chLabel
; 254  : 			, 1
; 255  : 			, "%2FGAME%2FOVER%2FERR"
; 256  : 			, 1 );
; 257  : 
; 258  : 		g_HttpMng.GA_PageVIewTracking( g_MyInfo.GetUserIndex(), "%2FGAME%2FOVER%2FERR", 6, chLabel );
; 259  : 	}
; 260  : #endif
; 261  : 
; 262  : 	g_App.SetExitProgram();

  00016	e8 00 00 00 00	 call	 ?GetSingleton@ioApplication@@SAAAV1@XZ ; ioApplication::GetSingleton
  0001b	8b c8		 mov	 ecx, eax
  0001d	e8 00 00 00 00	 call	 ?SetExitProgram@ioApplication@@QAEXXZ ; ioApplication::SetExitProgram

; 263  : }

  00022	c2 04 00	 ret	 4
?OnLogOut@ioLobbyStage@@IAEXAAVSP2Packet@@@Z ENDP	; ioLobbyStage::OnLogOut
_TEXT	ENDS
PUBLIC	??0D3DXVECTOR3@@QAE@MMM@Z			; D3DXVECTOR3::D3DXVECTOR3
EXTRN	__fltused:DWORD
; Function compile flags: /Ogsp
; File c:\program files (x86)\microsoft directx sdk (june 2010)\include\d3dx9math.inl
;	COMDAT ??0D3DXVECTOR3@@QAE@MMM@Z
_TEXT	SEGMENT
_fx$ = 8						; size = 4
_fy$ = 12						; size = 4
_fz$ = 16						; size = 4
??0D3DXVECTOR3@@QAE@MMM@Z PROC				; D3DXVECTOR3::D3DXVECTOR3, COMDAT
; _this$ = ecx

; 303  : {

  00000	55		 push	 ebp
  00001	8b ec		 mov	 ebp, esp

; 304  :     x = fx;

  00003	f3 0f 10 45 08	 movss	 xmm0, DWORD PTR _fx$[ebp]
  00008	8b c1		 mov	 eax, ecx
  0000a	f3 0f 11 00	 movss	 DWORD PTR [eax], xmm0

; 305  :     y = fy;

  0000e	f3 0f 10 45 0c	 movss	 xmm0, DWORD PTR _fy$[ebp]
  00013	f3 0f 11 40 04	 movss	 DWORD PTR [eax+4], xmm0

; 306  :     z = fz;

  00018	f3 0f 10 45 10	 movss	 xmm0, DWORD PTR _fz$[ebp]
  0001d	f3 0f 11 40 08	 movss	 DWORD PTR [eax+8], xmm0

; 307  : }

  00022	5d		 pop	 ebp
  00023	c2 0c 00	 ret	 12			; 0000000cH
??0D3DXVECTOR3@@QAE@MMM@Z ENDP				; D3DXVECTOR3::D3DXVECTOR3
_TEXT	ENDS
PUBLIC	?_DECSTR@@YAXPADH@Z				; _DECSTR
; Function compile flags: /Ogsp
; File d:\lost saga for developer\youtube\tutorial\source\src\lsclient\stringprotect.h
;	COMDAT ?_DECSTR@@YAXPADH@Z
_TEXT	SEGMENT
_s$ = 8							; size = 4
_l$ = 12						; size = 4
?_DECSTR@@YAXPADH@Z PROC				; _DECSTR, COMDAT

; 40   : __forceinline void _DECSTR(char* s, int l){int i=0,l4=(l-1)/4,*p=(int*)s;s[l-1]=0;for(;i<l4;++i)*(p++)^=0xEAEBECED;for(i=l4*4;i<l-1;++i)s[i]^=0xED-i%4;}

  00000	55		 push	 ebp
  00001	8b ec		 mov	 ebp, esp
  00003	8b 4d 0c	 mov	 ecx, DWORD PTR _l$[ebp]
  00006	56		 push	 esi
  00007	8b 75 08	 mov	 esi, DWORD PTR _s$[ebp]
  0000a	57		 push	 edi
  0000b	8d 79 ff	 lea	 edi, DWORD PTR [ecx-1]
  0000e	8b c7		 mov	 eax, edi
  00010	99		 cdq
  00011	83 e2 03	 and	 edx, 3
  00014	03 c2		 add	 eax, edx
  00016	c1 f8 02	 sar	 eax, 2
  00019	8b d6		 mov	 edx, esi
  0001b	c6 44 0e ff 00	 mov	 BYTE PTR [esi+ecx-1], 0
  00020	85 c0		 test	 eax, eax
  00022	7e 0e		 jle	 SHORT $LN4@DECSTR
  00024	8b c8		 mov	 ecx, eax
$LL6@DECSTR:
  00026	81 32 ed ec eb
	ea		 xor	 DWORD PTR [edx], -353637139 ; eaebecedH
  0002c	83 c2 04	 add	 edx, 4
  0002f	49		 dec	 ecx
  00030	75 f4		 jne	 SHORT $LL6@DECSTR
$LN4@DECSTR:
  00032	c1 e0 02	 shl	 eax, 2
  00035	eb 17		 jmp	 SHORT $LN14@DECSTR
$LL3@DECSTR:
  00037	8b c8		 mov	 ecx, eax
  00039	81 e1 03 00 00
	80		 and	 ecx, -2147483645	; 80000003H
  0003f	79 05		 jns	 SHORT $LN13@DECSTR
  00041	49		 dec	 ecx
  00042	83 c9 fc	 or	 ecx, -4			; fffffffcH
  00045	41		 inc	 ecx
$LN13@DECSTR:
  00046	b2 ed		 mov	 dl, -19			; ffffffedH
  00048	2a d1		 sub	 dl, cl
  0004a	30 14 30	 xor	 BYTE PTR [eax+esi], dl
  0004d	40		 inc	 eax
$LN14@DECSTR:
  0004e	3b c7		 cmp	 eax, edi
  00050	7c e5		 jl	 SHORT $LL3@DECSTR
  00052	5f		 pop	 edi
  00053	5e		 pop	 esi
  00054	5d		 pop	 ebp
  00055	c3		 ret	 0
?_DECSTR@@YAXPADH@Z ENDP				; _DECSTR
_TEXT	ENDS
PUBLIC	?GetCamera@ioApplication@@QBEPAVioCamera@@XZ	; ioApplication::GetCamera
; Function compile flags: /Ogsp
; File d:\lost saga for developer\youtube\tutorial\source\src\lsclient\ioapplication.h
;	COMDAT ?GetCamera@ioApplication@@QBEPAVioCamera@@XZ
_TEXT	SEGMENT
?GetCamera@ioApplication@@QBEPAVioCamera@@XZ PROC	; ioApplication::GetCamera, COMDAT
; _this$ = ecx

; 794  : 	inline ioCamera* GetCamera() const { return m_pCamera; }

  00000	8b 81 d4 02 00
	00		 mov	 eax, DWORD PTR [ecx+724]
  00006	c3		 ret	 0
?GetCamera@ioApplication@@QBEPAVioCamera@@XZ ENDP	; ioApplication::GetCamera
_TEXT	ENDS
PUBLIC	?GetUserState@ioMyInfo@@QBEHXZ			; ioMyInfo::GetUserState
; Function compile flags: /Ogsp
; File d:\lost saga for developer\youtube\tutorial\source\src\lsclient\iomyinfo.h
;	COMDAT ?GetUserState@ioMyInfo@@QBEHXZ
_TEXT	SEGMENT
?GetUserState@ioMyInfo@@QBEHXZ PROC			; ioMyInfo::GetUserState, COMDAT
; _this$ = ecx

; 561  : 	int GetUserState() const { return m_user_data.m_user_state; }

  00000	8b 41 40	 mov	 eax, DWORD PTR [ecx+64]
  00003	c3		 ret	 0
?GetUserState@ioMyInfo@@QBEHXZ ENDP			; ioMyInfo::GetUserState
_TEXT	ENDS
PUBLIC	??1ioLobbyStage@@UAE@XZ				; ioLobbyStage::~ioLobbyStage
EXTRN	__imp_??1ioHashString@@QAE@XZ:PROC
;	COMDAT xdata$x
; File d:\lost saga for developer\youtube\tutorial\source\src\lsclient\iolobbystage.cpp
xdata$x	SEGMENT
__unwindtable$??1ioLobbyStage@@UAE@XZ DD 0ffffffffH
	DD	FLAT:__unwindfunclet$??1ioLobbyStage@@UAE@XZ$0
	DD	00H
	DD	FLAT:__unwindfunclet$??1ioLobbyStage@@UAE@XZ$1
__ehfuncinfo$??1ioLobbyStage@@UAE@XZ DD 019930522H
	DD	02H
	DD	FLAT:__unwindtable$??1ioLobbyStage@@UAE@XZ
	DD	2 DUP(00H)
	DD	2 DUP(00H)
	DD	00H
	DD	01H
; Function compile flags: /Ogsp
xdata$x	ENDS
;	COMDAT ??1ioLobbyStage@@UAE@XZ
_TEXT	SEGMENT
_this$ = -16						; size = 4
__$EHRec$ = -12						; size = 12
??1ioLobbyStage@@UAE@XZ PROC				; ioLobbyStage::~ioLobbyStage, COMDAT
; _this$ = ecx

; 20   : {

  00000	6a 04		 push	 4
  00002	b8 00 00 00 00	 mov	 eax, __ehhandler$??1ioLobbyStage@@UAE@XZ
  00007	e8 00 00 00 00	 call	 __EH_prolog3
  0000c	8b f1		 mov	 esi, ecx
  0000e	89 75 f0	 mov	 DWORD PTR _this$[ebp], esi
  00011	c7 06 00 00 00
	00		 mov	 DWORD PTR [esi], OFFSET ??_7ioLobbyStage@@6B@
  00017	c7 45 fc 01 00
	00 00		 mov	 DWORD PTR __$EHRec$[ebp+8], 1

; 21   : 	ClearStage();	

  0001e	e8 00 00 00 00	 call	 ?ClearStage@ioLobbyStage@@UAEXXZ ; ioLobbyStage::ClearStage

; 22   : }

  00023	8d 4e 08	 lea	 ecx, DWORD PTR [esi+8]
  00026	c6 45 fc 00	 mov	 BYTE PTR __$EHRec$[ebp+8], 0
  0002a	ff 15 00 00 00
	00		 call	 DWORD PTR __imp_??1ioHashString@@QAE@XZ
  00030	83 4d fc ff	 or	 DWORD PTR __$EHRec$[ebp+8], -1
  00034	8b ce		 mov	 ecx, esi
  00036	e8 00 00 00 00	 call	 ??1ioGameStage@@UAE@XZ	; ioGameStage::~ioGameStage
  0003b	e8 00 00 00 00	 call	 __EH_epilog3
  00040	c3		 ret	 0
_TEXT	ENDS
;	COMDAT text$x
text$x	SEGMENT
__unwindfunclet$??1ioLobbyStage@@UAE@XZ$0:
  00000	8b 4d f0	 mov	 ecx, DWORD PTR _this$[ebp]
  00003	e9 00 00 00 00	 jmp	 ??1ioGameStage@@UAE@XZ	; ioGameStage::~ioGameStage
__unwindfunclet$??1ioLobbyStage@@UAE@XZ$1:
  00008	8b 4d f0	 mov	 ecx, DWORD PTR _this$[ebp]
  0000b	83 c1 08	 add	 ecx, 8
  0000e	ff 25 00 00 00
	00		 jmp	 DWORD PTR __imp_??1ioHashString@@QAE@XZ
__ehhandler$??1ioLobbyStage@@UAE@XZ:
  00014	8b 54 24 08	 mov	 edx, DWORD PTR [esp+8]
  00018	8d 42 0c	 lea	 eax, DWORD PTR [edx+12]
  0001b	8b 4a ec	 mov	 ecx, DWORD PTR [edx-20]
  0001e	33 c8		 xor	 ecx, eax
  00020	e8 00 00 00 00	 call	 @__security_check_cookie@4
  00025	b8 00 00 00 00	 mov	 eax, OFFSET __ehfuncinfo$??1ioLobbyStage@@UAE@XZ
  0002a	e9 00 00 00 00	 jmp	 ___CxxFrameHandler3
text$x	ENDS
??1ioLobbyStage@@UAE@XZ ENDP				; ioLobbyStage::~ioLobbyStage
PUBLIC	??_C@_0BI@GPEJIDBN@XML?1PartyInvitedWnd?4xml?$AA@ ; `string'
PUBLIC	??_C@_0BI@FELHOKLD@XML?1firstsoldierwnd?4xml?$AA@ ; `string'
PUBLIC	??_C@_0BG@OHOIKAHI@XML?1GameOptionWnd?4xml?$AA@	; `string'
PUBLIC	??_C@_0BA@DBPCLFG@XML?1HelpWnd?4xml?$AA@	; `string'
PUBLIC	??_R0?AVioWnd@@@8				; ioWnd `RTTI Type Descriptor'
PUBLIC	??_R0?AVHelpWnd@@@8				; HelpWnd `RTTI Type Descriptor'
PUBLIC	__$ArrayPad$
PUBLIC	?InitGUI@ioLobbyStage@@IAEXXZ			; ioLobbyStage::InitGUI
EXTRN	?SetFirstSolderBonus@ioMyInfo@@QAEXXZ:PROC	; ioMyInfo::SetFirstSolderBonus
EXTRN	?GetSingleton@ioMyInfo@@SAAAV1@XZ:PROC		; ioMyInfo::GetSingleton
EXTRN	?SetPlayStage@HelpWnd@@QAEXPAVioPlayStage@@@Z:PROC ; HelpWnd::SetPlayStage
EXTRN	__imp_?AddWnd@ioGUIManager@@QAEPAVioWnd@@PBD@Z:PROC
EXTRN	?CheckGUIPosSave@ioSP2GUIManager@@QAEXXZ:PROC	; ioSP2GUIManager::CheckGUIPosSave
EXTRN	___security_cookie:DWORD
EXTRN	___RTDynamicCast:PROC
;	COMDAT ??_C@_0BI@GPEJIDBN@XML?1PartyInvitedWnd?4xml?$AA@
; File d:\lost saga for developer\youtube\tutorial\source\src\lsclient\iomyinfo.h
CONST	SEGMENT
??_C@_0BI@GPEJIDBN@XML?1PartyInvitedWnd?4xml?$AA@ DB 'XML/PartyInvitedWnd'
	DB	'.xml', 00H					; `string'
CONST	ENDS
;	COMDAT ??_C@_0BI@FELHOKLD@XML?1firstsoldierwnd?4xml?$AA@
CONST	SEGMENT
??_C@_0BI@FELHOKLD@XML?1firstsoldierwnd?4xml?$AA@ DB 'XML/firstsoldierwnd'
	DB	'.xml', 00H					; `string'
CONST	ENDS
;	COMDAT ??_C@_0BG@OHOIKAHI@XML?1GameOptionWnd?4xml?$AA@
CONST	SEGMENT
??_C@_0BG@OHOIKAHI@XML?1GameOptionWnd?4xml?$AA@ DB 'XML/GameOptionWnd.xml'
	DB	00H						; `string'
CONST	ENDS
;	COMDAT ??_C@_0BA@DBPCLFG@XML?1HelpWnd?4xml?$AA@
CONST	SEGMENT
??_C@_0BA@DBPCLFG@XML?1HelpWnd?4xml?$AA@ DB 'XML/HelpWnd.xml', 00H ; `string'
CONST	ENDS
;	COMDAT ??_R0?AVioWnd@@@8
_DATA	SEGMENT
??_R0?AVioWnd@@@8 DD FLAT:??_7type_info@@6B@		; ioWnd `RTTI Type Descriptor'
	DD	00H
	DB	'.?AVioWnd@@', 00H
_DATA	ENDS
;	COMDAT ??_R0?AVHelpWnd@@@8
_DATA	SEGMENT
??_R0?AVHelpWnd@@@8 DD FLAT:??_7type_info@@6B@		; HelpWnd `RTTI Type Descriptor'
	DD	00H
	DB	'.?AVHelpWnd@@', 00H
; Function compile flags: /Ogsp
; File d:\lost saga for developer\youtube\tutorial\source\src\lsclient\iolobbystage.cpp
_DATA	ENDS
;	COMDAT ?InitGUI@ioLobbyStage@@IAEXXZ
_TEXT	SEGMENT
_szEncDisconnectWnd$ = -32				; size = 22
__$ArrayPad$ = -4					; size = 4
?InitGUI@ioLobbyStage@@IAEXXZ PROC			; ioLobbyStage::InitGUI, COMDAT
; _this$ = ecx

; 48   : {

  00000	55		 push	 ebp
  00001	8b ec		 mov	 ebp, esp
  00003	83 ec 20	 sub	 esp, 32			; 00000020H
  00006	a1 00 00 00 00	 mov	 eax, DWORD PTR ___security_cookie
  0000b	33 c5		 xor	 eax, ebp
  0000d	89 45 fc	 mov	 DWORD PTR __$ArrayPad$[ebp], eax
  00010	53		 push	 ebx
  00011	56		 push	 esi

; 49   : 	g_GUIMgr.CheckGUIPosSave();

  00012	e8 00 00 00 00	 call	 ?GetSingleton@ioSP2GUIManager@@SAAAV1@XZ ; ioSP2GUIManager::GetSingleton
  00017	8b c8		 mov	 ecx, eax
  00019	e8 00 00 00 00	 call	 ?CheckGUIPosSave@ioSP2GUIManager@@QAEXXZ ; ioSP2GUIManager::CheckGUIPosSave

; 50   : 
; 51   : 	HelpWnd *pHelpWnd = dynamic_cast<HelpWnd *>(g_GUIMgr.AddWnd( "XML/HelpWnd.xml" ));

  0001e	33 db		 xor	 ebx, ebx
  00020	53		 push	 ebx
  00021	68 00 00 00 00	 push	 OFFSET ??_R0?AVHelpWnd@@@8
  00026	68 00 00 00 00	 push	 OFFSET ??_R0?AVioWnd@@@8
  0002b	53		 push	 ebx
  0002c	68 00 00 00 00	 push	 OFFSET ??_C@_0BA@DBPCLFG@XML?1HelpWnd?4xml?$AA@
  00031	e8 00 00 00 00	 call	 ?GetSingleton@ioSP2GUIManager@@SAAAV1@XZ ; ioSP2GUIManager::GetSingleton
  00036	8b 35 00 00 00
	00		 mov	 esi, DWORD PTR __imp_?AddWnd@ioGUIManager@@QAEPAVioWnd@@PBD@Z
  0003c	8b c8		 mov	 ecx, eax
  0003e	ff d6		 call	 esi
  00040	50		 push	 eax
  00041	e8 00 00 00 00	 call	 ___RTDynamicCast
  00046	83 c4 14	 add	 esp, 20			; 00000014H

; 52   : 	if( pHelpWnd ) 

  00049	3b c3		 cmp	 eax, ebx
  0004b	74 08		 je	 SHORT $LN98@InitGUI

; 53   : 	{
; 54   : 		pHelpWnd->SetPlayStage( NULL );

  0004d	53		 push	 ebx
  0004e	8b c8		 mov	 ecx, eax
  00050	e8 00 00 00 00	 call	 ?SetPlayStage@HelpWnd@@QAEXPAVioPlayStage@@@Z ; HelpWnd::SetPlayStage
$LN98@InitGUI:

; 55   : 	}
; 56   : 
; 57   : 	g_GUIMgr.AddWnd( "XML/GameOptionWnd.xml" );

  00055	68 00 00 00 00	 push	 OFFSET ??_C@_0BG@OHOIKAHI@XML?1GameOptionWnd?4xml?$AA@
  0005a	e8 00 00 00 00	 call	 ?GetSingleton@ioSP2GUIManager@@SAAAV1@XZ ; ioSP2GUIManager::GetSingleton
  0005f	8b c8		 mov	 ecx, eax
  00061	ff d6		 call	 esi

; 58   : 	g_GUIMgr.AddWnd( "XML/firstsoldierwnd.xml" );

  00063	68 00 00 00 00	 push	 OFFSET ??_C@_0BI@FELHOKLD@XML?1firstsoldierwnd?4xml?$AA@
  00068	e8 00 00 00 00	 call	 ?GetSingleton@ioSP2GUIManager@@SAAAV1@XZ ; ioSP2GUIManager::GetSingleton
  0006d	8b c8		 mov	 ecx, eax
  0006f	ff d6		 call	 esi
  00071	6a 05		 push	 5

; 59   : 
; 60   : 	_ENCSTR( "XML/DisconnectWnd.xml", szEncDisconnectWnd );

  00073	c7 45 e0 b5 a1
	a7 c5		 mov	 DWORD PTR _szEncDisconnectWnd$[ebp], -978869835 ; c5a7a1b5H
  0007a	c7 45 e4 a9 85
	98 89		 mov	 DWORD PTR _szEncDisconnectWnd$[ebp+4], -1986493015 ; 899885a9H
  00081	c7 45 e8 82 82
	85 8f		 mov	 DWORD PTR _szEncDisconnectWnd$[ebp+8], -1887075710 ; 8f858282H
  00088	c7 45 ec 8e 98
	bc 84		 mov	 DWORD PTR _szEncDisconnectWnd$[ebp+12], -2068014962 ; 84bc988eH
  0008f	c7 45 f0 89 c2
	93 87		 mov	 DWORD PTR _szEncDisconnectWnd$[ebp+16], -2020359543 ; 8793c289H
  00096	8d 45 e0	 lea	 eax, DWORD PTR _szEncDisconnectWnd$[ebp]
  00099	66 c7 45 f4 81
	00		 mov	 WORD PTR _szEncDisconnectWnd$[ebp+20], 129 ; 00000081H
  0009f	59		 pop	 ecx
$LL106@InitGUI:
  000a0	81 30 ed ec eb
	ea		 xor	 DWORD PTR [eax], -353637139 ; eaebecedH
  000a6	83 c0 04	 add	 eax, 4
  000a9	49		 dec	 ecx
  000aa	75 f4		 jne	 SHORT $LL106@InitGUI
  000ac	80 75 f4 ed	 xor	 BYTE PTR _szEncDisconnectWnd$[ebp+20], -19 ; ffffffedH

; 61   : 	g_GUIMgr.AddWnd( szEncDisconnectWnd );

  000b0	8d 45 e0	 lea	 eax, DWORD PTR _szEncDisconnectWnd$[ebp]
  000b3	50		 push	 eax
  000b4	e8 00 00 00 00	 call	 ?GetSingleton@ioSP2GUIManager@@SAAAV1@XZ ; ioSP2GUIManager::GetSingleton
  000b9	8b c8		 mov	 ecx, eax
  000bb	ff d6		 call	 esi

; 62   : 
; 63   : 	g_GUIMgr.AddWnd( "XML/PartyInvitedWnd.xml" );

  000bd	68 00 00 00 00	 push	 OFFSET ??_C@_0BI@GPEJIDBN@XML?1PartyInvitedWnd?4xml?$AA@
  000c2	e8 00 00 00 00	 call	 ?GetSingleton@ioSP2GUIManager@@SAAAV1@XZ ; ioSP2GUIManager::GetSingleton
  000c7	8b c8		 mov	 ecx, eax
  000c9	ff d6		 call	 esi

; 64   : 
; 65   : 	if( g_MyInfo.GetUserState() == 0 )

  000cb	e8 00 00 00 00	 call	 ?GetSingleton@ioMyInfo@@SAAAV1@XZ ; ioMyInfo::GetSingleton
  000d0	39 58 40	 cmp	 DWORD PTR [eax+64], ebx
  000d3	5e		 pop	 esi
  000d4	5b		 pop	 ebx
  000d5	75 0c		 jne	 SHORT $LN1@InitGUI

; 66   : 	{
; 67   : 		// 최초 용병 구입.
; 68   : 		g_MyInfo.SetFirstSolderBonus();

  000d7	e8 00 00 00 00	 call	 ?GetSingleton@ioMyInfo@@SAAAV1@XZ ; ioMyInfo::GetSingleton
  000dc	8b c8		 mov	 ecx, eax
  000de	e8 00 00 00 00	 call	 ?SetFirstSolderBonus@ioMyInfo@@QAEXXZ ; ioMyInfo::SetFirstSolderBonus
$LN1@InitGUI:

; 69   : 	}
; 70   : }

  000e3	8b 4d fc	 mov	 ecx, DWORD PTR __$ArrayPad$[ebp]
  000e6	33 cd		 xor	 ecx, ebp
  000e8	e8 00 00 00 00	 call	 @__security_check_cookie@4
  000ed	c9		 leave
  000ee	c3		 ret	 0
?InitGUI@ioLobbyStage@@IAEXXZ ENDP			; ioLobbyStage::InitGUI
_TEXT	ENDS
PUBLIC	__real@43480000
PUBLIC	??_SioLookAtCameraController@@6B@		; ioLookAtCameraController::`local vftable'
PUBLIC	?InitCameraController@ioLobbyStage@@IAEXXZ	; ioLobbyStage::InitCameraController
PUBLIC	??_R4ioLookAtCameraController@@6B@		; ioLookAtCameraController::`RTTI Complete Object Locator'
PUBLIC	??_R0?AVioLookAtCameraController@@@8		; ioLookAtCameraController `RTTI Type Descriptor'
PUBLIC	??_R3ioLookAtCameraController@@8		; ioLookAtCameraController::`RTTI Class Hierarchy Descriptor'
PUBLIC	??_R2ioLookAtCameraController@@8		; ioLookAtCameraController::`RTTI Base Class Array'
PUBLIC	??_R1A@?0A@EA@ioLookAtCameraController@@8	; ioLookAtCameraController::`RTTI Base Class Descriptor at (0,-1,0,64)'
PUBLIC	??_R1A@?0A@EA@ioCameraController@@8		; ioCameraController::`RTTI Base Class Descriptor at (0,-1,0,64)'
PUBLIC	??_R0?AVioCameraController@@@8			; ioCameraController `RTTI Type Descriptor'
PUBLIC	??_R3ioCameraController@@8			; ioCameraController::`RTTI Class Hierarchy Descriptor'
PUBLIC	??_R2ioCameraController@@8			; ioCameraController::`RTTI Base Class Array'
EXTRN	??3@YAXPAX@Z:PROC				; operator delete
EXTRN	__imp_?SetController@ioCamera@@QAEXPAVioCameraController@@@Z:PROC
EXTRN	__imp_?SetSpeed@ioLookAtCameraController@@QAEXMMM@Z:PROC
EXTRN	__imp_?SetLookAt@ioLookAtCameraController@@QAEXABUD3DXVECTOR3@@@Z:PROC
EXTRN	__imp_??0ioLookAtCameraController@@QAE@XZ:PROC
EXTRN	??2@YAPAXI@Z:PROC				; operator new
EXTRN	__EH_epilog3_GS:PROC
EXTRN	__EH_prolog3_GS:PROC
EXTRN	?Update@ioLookAtCameraController@@UAEXPAVioCameraInput@@@Z:PROC ; ioLookAtCameraController::Update
EXTRN	?CreateViewMatrix@ioLookAtCameraController@@UBEXPAUD3DXMATRIX@@@Z:PROC ; ioLookAtCameraController::CreateViewMatrix
EXTRN	?GetCamCtrlType@ioLookAtCameraController@@UBE?AW4CamCtrlType@ioCameraController@@XZ:PROC ; ioLookAtCameraController::GetCamCtrlType
EXTRN	?GetDirection@ioLookAtCameraController@@UBE?AUD3DXVECTOR3@@XZ:PROC ; ioLookAtCameraController::GetDirection
EXTRN	?GetName@ioLookAtCameraController@@UAEPBDXZ:PROC ; ioLookAtCameraController::GetName
EXTRN	?SetRollValue@ioCameraController@@UAEXM@Z:PROC	; ioCameraController::SetRollValue
EXTRN	?SetPosition@ioLookAtCameraController@@UAEXABUD3DXVECTOR3@@@Z:PROC ; ioLookAtCameraController::SetPosition
EXTRN	?SetDirection@ioCameraController@@UAEXMMM@Z:PROC ; ioCameraController::SetDirection
EXTRN	?GetExtraInfoText@ioLookAtCameraController@@UBEXPADH@Z:PROC ; ioLookAtCameraController::GetExtraInfoText
EXTRN	??_EioLookAtCameraController@@UAEPAXI@Z:PROC	; ioLookAtCameraController::`vector deleting destructor'
;	COMDAT ??_R2ioCameraController@@8
; File d:\lost saga for developer\youtube\tutorial\source\src\lsclient\ioapplication.h
rdata$r	SEGMENT
??_R2ioCameraController@@8 DD FLAT:??_R1A@?0A@EA@ioCameraController@@8 ; ioCameraController::`RTTI Base Class Array'
rdata$r	ENDS
;	COMDAT ??_R3ioCameraController@@8
rdata$r	SEGMENT
??_R3ioCameraController@@8 DD 00H			; ioCameraController::`RTTI Class Hierarchy Descriptor'
	DD	00H
	DD	01H
	DD	FLAT:??_R2ioCameraController@@8
rdata$r	ENDS
;	COMDAT ??_R0?AVioCameraController@@@8
_DATA	SEGMENT
??_R0?AVioCameraController@@@8 DD FLAT:??_7type_info@@6B@ ; ioCameraController `RTTI Type Descriptor'
	DD	00H
	DB	'.?AVioCameraController@@', 00H
_DATA	ENDS
;	COMDAT ??_R1A@?0A@EA@ioCameraController@@8
rdata$r	SEGMENT
??_R1A@?0A@EA@ioCameraController@@8 DD FLAT:??_R0?AVioCameraController@@@8 ; ioCameraController::`RTTI Base Class Descriptor at (0,-1,0,64)'
	DD	00H
	DD	00H
	DD	0ffffffffH
	DD	00H
	DD	040H
	DD	FLAT:??_R3ioCameraController@@8
rdata$r	ENDS
;	COMDAT ??_R1A@?0A@EA@ioLookAtCameraController@@8
rdata$r	SEGMENT
??_R1A@?0A@EA@ioLookAtCameraController@@8 DD FLAT:??_R0?AVioLookAtCameraController@@@8 ; ioLookAtCameraController::`RTTI Base Class Descriptor at (0,-1,0,64)'
	DD	01H
	DD	00H
	DD	0ffffffffH
	DD	00H
	DD	040H
	DD	FLAT:??_R3ioLookAtCameraController@@8
rdata$r	ENDS
;	COMDAT ??_R2ioLookAtCameraController@@8
rdata$r	SEGMENT
??_R2ioLookAtCameraController@@8 DD FLAT:??_R1A@?0A@EA@ioLookAtCameraController@@8 ; ioLookAtCameraController::`RTTI Base Class Array'
	DD	FLAT:??_R1A@?0A@EA@ioCameraController@@8
rdata$r	ENDS
;	COMDAT ??_R3ioLookAtCameraController@@8
rdata$r	SEGMENT
??_R3ioLookAtCameraController@@8 DD 00H			; ioLookAtCameraController::`RTTI Class Hierarchy Descriptor'
	DD	00H
	DD	02H
	DD	FLAT:??_R2ioLookAtCameraController@@8
rdata$r	ENDS
;	COMDAT ??_R0?AVioLookAtCameraController@@@8
_DATA	SEGMENT
??_R0?AVioLookAtCameraController@@@8 DD FLAT:??_7type_info@@6B@ ; ioLookAtCameraController `RTTI Type Descriptor'
	DD	00H
	DB	'.?AVioLookAtCameraController@@', 00H
_DATA	ENDS
;	COMDAT ??_R4ioLookAtCameraController@@6B@
rdata$r	SEGMENT
??_R4ioLookAtCameraController@@6B@ DD 00H		; ioLookAtCameraController::`RTTI Complete Object Locator'
	DD	00H
	DD	00H
	DD	FLAT:??_R0?AVioLookAtCameraController@@@8
	DD	FLAT:??_R3ioLookAtCameraController@@8
rdata$r	ENDS
;	COMDAT __real@43480000
CONST	SEGMENT
__real@43480000 DD 043480000r			; 200
CONST	ENDS
;	COMDAT ??_SioLookAtCameraController@@6B@
CONST	SEGMENT
??_SioLookAtCameraController@@6B@ DD FLAT:??_R4ioLookAtCameraController@@6B@ ; ioLookAtCameraController::`local vftable'
	DD	FLAT:?Update@ioLookAtCameraController@@UAEXPAVioCameraInput@@@Z
	DD	FLAT:?CreateViewMatrix@ioLookAtCameraController@@UBEXPAUD3DXMATRIX@@@Z
	DD	FLAT:?GetCamCtrlType@ioLookAtCameraController@@UBE?AW4CamCtrlType@ioCameraController@@XZ
	DD	FLAT:?GetDirection@ioLookAtCameraController@@UBE?AUD3DXVECTOR3@@XZ
	DD	FLAT:?GetName@ioLookAtCameraController@@UAEPBDXZ
	DD	FLAT:?SetRollValue@ioCameraController@@UAEXM@Z
	DD	FLAT:?SetPosition@ioLookAtCameraController@@UAEXABUD3DXVECTOR3@@@Z
	DD	FLAT:?SetDirection@ioCameraController@@UAEXMMM@Z
	DD	FLAT:?GetExtraInfoText@ioLookAtCameraController@@UBEXPADH@Z
	DD	FLAT:??_EioLookAtCameraController@@UAEPAXI@Z
CONST	ENDS
;	COMDAT xdata$x
xdata$x	SEGMENT
__unwindtable$?InitCameraController@ioLobbyStage@@IAEXXZ DD 0ffffffffH
	DD	FLAT:__unwindfunclet$?InitCameraController@ioLobbyStage@@IAEXXZ$0
__ehfuncinfo$?InitCameraController@ioLobbyStage@@IAEXXZ DD 019930522H
	DD	01H
	DD	FLAT:__unwindtable$?InitCameraController@ioLobbyStage@@IAEXXZ
	DD	2 DUP(00H)
	DD	2 DUP(00H)
	DD	00H
	DD	01H
; Function compile flags: /Ogsp
; File d:\lost saga for developer\youtube\tutorial\source\src\lsclient\iolobbystage.cpp
xdata$x	ENDS
;	COMDAT ?InitCameraController@ioLobbyStage@@IAEXXZ
_TEXT	SEGMENT
$T507007 = -44						; size = 4
$T506215 = -40						; size = 12
$T506214 = -28						; size = 12
__$EHRec$ = -12						; size = 12
?InitCameraController@ioLobbyStage@@IAEXXZ PROC		; ioLobbyStage::InitCameraController, COMDAT
; _this$ = ecx

; 73   : {

  00000	6a 20		 push	 32			; 00000020H
  00002	b8 00 00 00 00	 mov	 eax, __ehhandler$?InitCameraController@ioLobbyStage@@IAEXXZ
  00007	e8 00 00 00 00	 call	 __EH_prolog3_GS

; 74   : 	ioLookAtCameraController *pCtrl = new ioLookAtCameraController;

  0000c	6a 38		 push	 56			; 00000038H
  0000e	e8 00 00 00 00	 call	 ??2@YAPAXI@Z		; operator new
  00013	8b f0		 mov	 esi, eax
  00015	59		 pop	 ecx
  00016	89 75 d4	 mov	 DWORD PTR $T507007[ebp], esi
  00019	83 65 fc 00	 and	 DWORD PTR __$EHRec$[ebp+8], 0
  0001d	85 f6		 test	 esi, esi
  0001f	74 10		 je	 SHORT $LN3@InitCamera
  00021	8b ce		 mov	 ecx, esi
  00023	ff 15 00 00 00
	00		 call	 DWORD PTR __imp_??0ioLookAtCameraController@@QAE@XZ
  00029	c7 06 00 00 00
	00		 mov	 DWORD PTR [esi], OFFSET ??_SioLookAtCameraController@@6B@
  0002f	eb 02		 jmp	 SHORT $LN4@InitCamera
$LN3@InitCamera:
  00031	33 f6		 xor	 esi, esi
$LN4@InitCamera:

; 75   : 	pCtrl->SetPosition( D3DXVECTOR3( 0.0f, 0.0f, 0.0f ) );

  00033	0f 57 c0	 xorps	 xmm0, xmm0
  00036	8b 06		 mov	 eax, DWORD PTR [esi]
  00038	83 4d fc ff	 or	 DWORD PTR __$EHRec$[ebp+8], -1
  0003c	8d 4d e4	 lea	 ecx, DWORD PTR $T506214[ebp]
  0003f	51		 push	 ecx
  00040	8b ce		 mov	 ecx, esi
  00042	f3 0f 11 45 e4	 movss	 DWORD PTR $T506214[ebp], xmm0
  00047	f3 0f 11 45 e8	 movss	 DWORD PTR $T506214[ebp+4], xmm0
  0004c	f3 0f 11 45 ec	 movss	 DWORD PTR $T506214[ebp+8], xmm0
  00051	ff 50 18	 call	 DWORD PTR [eax+24]

; 76   : 	pCtrl->SetLookAt( D3DXVECTOR3( 0.0f, 0.0f, 200.0f ) );

  00054	0f 57 c0	 xorps	 xmm0, xmm0
  00057	8d 45 d8	 lea	 eax, DWORD PTR $T506215[ebp]
  0005a	f3 0f 11 45 d8	 movss	 DWORD PTR $T506215[ebp], xmm0
  0005f	f3 0f 11 45 dc	 movss	 DWORD PTR $T506215[ebp+4], xmm0
  00064	f3 0f 10 05 00
	00 00 00	 movss	 xmm0, DWORD PTR __real@43480000
  0006c	50		 push	 eax
  0006d	8b ce		 mov	 ecx, esi
  0006f	f3 0f 11 45 e0	 movss	 DWORD PTR $T506215[ebp+8], xmm0
  00074	ff 15 00 00 00
	00		 call	 DWORD PTR __imp_?SetLookAt@ioLookAtCameraController@@QAEXABUD3DXVECTOR3@@@Z

; 77   : 	pCtrl->SetSpeed( 0.0f, 0.0f, 0.0f );

  0007a	0f 57 c0	 xorps	 xmm0, xmm0
  0007d	83 ec 0c	 sub	 esp, 12			; 0000000cH
  00080	f3 0f 11 44 24
	08		 movss	 DWORD PTR [esp+8], xmm0
  00086	f3 0f 11 44 24
	04		 movss	 DWORD PTR [esp+4], xmm0
  0008c	8b ce		 mov	 ecx, esi
  0008e	f3 0f 11 04 24	 movss	 DWORD PTR [esp], xmm0
  00093	ff 15 00 00 00
	00		 call	 DWORD PTR __imp_?SetSpeed@ioLookAtCameraController@@QAEXMMM@Z

; 78   : 	g_App.GetCamera()->SetController( pCtrl );	

  00099	e8 00 00 00 00	 call	 ?GetSingleton@ioApplication@@SAAAV1@XZ ; ioApplication::GetSingleton
  0009e	8b 88 d4 02 00
	00		 mov	 ecx, DWORD PTR [eax+724]
  000a4	56		 push	 esi
  000a5	ff 15 00 00 00
	00		 call	 DWORD PTR __imp_?SetController@ioCamera@@QAEXPAVioCameraController@@@Z

; 79   : }

  000ab	e8 00 00 00 00	 call	 __EH_epilog3_GS
  000b0	c3		 ret	 0
_TEXT	ENDS
;	COMDAT text$x
text$x	SEGMENT
__unwindfunclet$?InitCameraController@ioLobbyStage@@IAEXXZ$0:
  00000	ff 75 d4	 push	 DWORD PTR $T507007[ebp]
  00003	e8 00 00 00 00	 call	 ??3@YAXPAX@Z		; operator delete
  00008	59		 pop	 ecx
  00009	c3		 ret	 0
__ehhandler$?InitCameraController@ioLobbyStage@@IAEXXZ:
  0000a	8b 54 24 08	 mov	 edx, DWORD PTR [esp+8]
  0000e	8d 42 0c	 lea	 eax, DWORD PTR [edx+12]
  00011	8b 4a d0	 mov	 ecx, DWORD PTR [edx-48]
  00014	33 c8		 xor	 ecx, eax
  00016	e8 00 00 00 00	 call	 @__security_check_cookie@4
  0001b	8b 4a fc	 mov	 ecx, DWORD PTR [edx-4]
  0001e	33 c8		 xor	 ecx, eax
  00020	e8 00 00 00 00	 call	 @__security_check_cookie@4
  00025	b8 00 00 00 00	 mov	 eax, OFFSET __ehfuncinfo$?InitCameraController@ioLobbyStage@@IAEXXZ
  0002a	e9 00 00 00 00	 jmp	 ___CxxFrameHandler3
text$x	ENDS
?InitCameraController@ioLobbyStage@@IAEXXZ ENDP		; ioLobbyStage::InitCameraController
EXTRN	__imp_??1ioLookAtCameraController@@UAE@XZ:PROC
; Function compile flags: /Ogsp
;	COMDAT ??_GioLookAtCameraController@@UAEPAXI@Z
_TEXT	SEGMENT
___flags$ = 8						; size = 4
??_GioLookAtCameraController@@UAEPAXI@Z PROC		; ioLookAtCameraController::`scalar deleting destructor', COMDAT
; _this$ = ecx
  00000	55		 push	 ebp
  00001	8b ec		 mov	 ebp, esp
  00003	56		 push	 esi
  00004	8b f1		 mov	 esi, ecx
  00006	ff 15 00 00 00
	00		 call	 DWORD PTR __imp_??1ioLookAtCameraController@@UAE@XZ
  0000c	f6 45 08 01	 test	 BYTE PTR ___flags$[ebp], 1
  00010	74 07		 je	 SHORT $LN1@scalar
  00012	56		 push	 esi
  00013	e8 00 00 00 00	 call	 ??3@YAXPAX@Z		; operator delete
  00018	59		 pop	 ecx
$LN1@scalar:
  00019	8b c6		 mov	 eax, esi
  0001b	5e		 pop	 esi
  0001c	5d		 pop	 ebp
  0001d	c2 04 00	 ret	 4
??_GioLookAtCameraController@@UAEPAXI@Z ENDP		; ioLookAtCameraController::`scalar deleting destructor'
_TEXT	ENDS
EXTRN	__imp_??1ioLookAtCameraInput@@UAE@XZ:PROC
EXTRN	?ProcessLobbyStage@ioAbuseManager@@QAEXXZ:PROC	; ioAbuseManager::ProcessLobbyStage
EXTRN	?GetSingleton@ioAbuseManager@@SAAAV1@XZ:PROC	; ioAbuseManager::GetSingleton
EXTRN	__imp_?Update@ioCamera@@QAEXPAVioCameraInput@@@Z:PROC
EXTRN	__imp_??0ioLookAtCameraInput@@QAE@XZ:PROC
;	COMDAT xdata$x
xdata$x	SEGMENT
__unwindtable$?UpdateAfterLoop@ioLobbyStage@@UAEXPAVioCamera@@@Z DD 0ffffffffH
	DD	FLAT:__unwindfunclet$?UpdateAfterLoop@ioLobbyStage@@UAEXPAVioCamera@@@Z$0
__ehfuncinfo$?UpdateAfterLoop@ioLobbyStage@@UAEXPAVioCamera@@@Z DD 019930522H
	DD	01H
	DD	FLAT:__unwindtable$?UpdateAfterLoop@ioLobbyStage@@UAEXPAVioCamera@@@Z
	DD	2 DUP(00H)
	DD	2 DUP(00H)
	DD	00H
	DD	01H
; Function compile flags: /Ogsp
xdata$x	ENDS
;	COMDAT ?UpdateAfterLoop@ioLobbyStage@@UAEXPAVioCamera@@@Z
_TEXT	SEGMENT
_kInput$ = -36						; size = 24
__$EHRec$ = -12						; size = 12
_pCamera$ = 8						; size = 4
?UpdateAfterLoop@ioLobbyStage@@UAEXPAVioCamera@@@Z PROC	; ioLobbyStage::UpdateAfterLoop, COMDAT
; _this$ = ecx

; 92   : {

  00000	6a 18		 push	 24			; 00000018H
  00002	b8 00 00 00 00	 mov	 eax, __ehhandler$?UpdateAfterLoop@ioLobbyStage@@UAEXPAVioCamera@@@Z
  00007	e8 00 00 00 00	 call	 __EH_prolog3

; 93   : 	ioLookAtCameraInput kInput;

  0000c	8d 4d dc	 lea	 ecx, DWORD PTR _kInput$[ebp]
  0000f	ff 15 00 00 00
	00		 call	 DWORD PTR __imp_??0ioLookAtCameraInput@@QAE@XZ

; 94   : 	pCamera->Update( &kInput );

  00015	8b 4d 08	 mov	 ecx, DWORD PTR _pCamera$[ebp]
  00018	83 65 fc 00	 and	 DWORD PTR __$EHRec$[ebp+8], 0
  0001c	8d 45 dc	 lea	 eax, DWORD PTR _kInput$[ebp]
  0001f	50		 push	 eax
  00020	ff 15 00 00 00
	00		 call	 DWORD PTR __imp_?Update@ioCamera@@QAEXPAVioCameraInput@@@Z

; 95   : 
; 96   : 	ProcessFunctionKey();
; 97   : 	
; 98   : 	g_AbuseMgr.ProcessLobbyStage();

  00026	e8 00 00 00 00	 call	 ?GetSingleton@ioAbuseManager@@SAAAV1@XZ ; ioAbuseManager::GetSingleton
  0002b	8b c8		 mov	 ecx, eax
  0002d	e8 00 00 00 00	 call	 ?ProcessLobbyStage@ioAbuseManager@@QAEXXZ ; ioAbuseManager::ProcessLobbyStage

; 99   : }

  00032	83 4d fc ff	 or	 DWORD PTR __$EHRec$[ebp+8], -1
  00036	8d 4d dc	 lea	 ecx, DWORD PTR _kInput$[ebp]
  00039	ff 15 00 00 00
	00		 call	 DWORD PTR __imp_??1ioLookAtCameraInput@@UAE@XZ
  0003f	e8 00 00 00 00	 call	 __EH_epilog3
  00044	c2 04 00	 ret	 4
_TEXT	ENDS
;	COMDAT text$x
text$x	SEGMENT
__unwindfunclet$?UpdateAfterLoop@ioLobbyStage@@UAEXPAVioCamera@@@Z$0:
  00000	8d 4d dc	 lea	 ecx, DWORD PTR _kInput$[ebp]
  00003	ff 25 00 00 00
	00		 jmp	 DWORD PTR __imp_??1ioLookAtCameraInput@@UAE@XZ
__ehhandler$?UpdateAfterLoop@ioLobbyStage@@UAEXPAVioCamera@@@Z:
  00009	8b 54 24 08	 mov	 edx, DWORD PTR [esp+8]
  0000d	8d 42 0c	 lea	 eax, DWORD PTR [edx+12]
  00010	8b 4a d8	 mov	 ecx, DWORD PTR [edx-40]
  00013	33 c8		 xor	 ecx, eax
  00015	e8 00 00 00 00	 call	 @__security_check_cookie@4
  0001a	b8 00 00 00 00	 mov	 eax, OFFSET __ehfuncinfo$?UpdateAfterLoop@ioLobbyStage@@UAEXPAVioCamera@@@Z
  0001f	e9 00 00 00 00	 jmp	 ___CxxFrameHandler3
text$x	ENDS
?UpdateAfterLoop@ioLobbyStage@@UAEXPAVioCamera@@@Z ENDP	; ioLobbyStage::UpdateAfterLoop
EXTRN	__imp_?GetPacketID@CPacket@@QBEKXZ:PROC
; Function compile flags: /Ogsp
;	COMDAT ?ProcessUDPPacket@ioLobbyStage@@UAE_NAAVSP2Packet@@@Z
_TEXT	SEGMENT
_rkPacket$ = 8						; size = 4
?ProcessUDPPacket@ioLobbyStage@@UAE_NAAVSP2Packet@@@Z PROC ; ioLobbyStage::ProcessUDPPacket, COMDAT
; _this$ = ecx

; 132  : {

  00000	55		 push	 ebp
  00001	8b ec		 mov	 ebp, esp
  00003	56		 push	 esi
  00004	8b f1		 mov	 esi, ecx

; 133  : 	switch( rkPacket.GetPacketID() )

  00006	8b 4d 08	 mov	 ecx, DWORD PTR _rkPacket$[ebp]
  00009	ff 15 00 00 00
	00		 call	 DWORD PTR __imp_?GetPacketID@CPacket@@QBEKXZ
  0000f	3d 02 60 00 00	 cmp	 eax, 24578		; 00006002H
  00014	74 04		 je	 SHORT $LN1@ProcessUDP

; 138  : 	}
; 139  : 
; 140  : 	return false;

  00016	32 c0		 xor	 al, al
  00018	eb 0c		 jmp	 SHORT $LN4@ProcessUDP
$LN1@ProcessUDP:

; 134  : 	{
; 135  : 	case SUPK_SYNCTIME:
; 136  : 		OnSyncTime( rkPacket );

  0001a	ff 75 08	 push	 DWORD PTR _rkPacket$[ebp]
  0001d	8b ce		 mov	 ecx, esi
  0001f	e8 00 00 00 00	 call	 ?OnSyncTime@ioLobbyStage@@IAEXAAVSP2Packet@@@Z ; ioLobbyStage::OnSyncTime

; 137  : 		return true;

  00024	b0 01		 mov	 al, 1
$LN4@ProcessUDP:
  00026	5e		 pop	 esi

; 141  : }

  00027	5d		 pop	 ebp
  00028	c2 04 00	 ret	 4
?ProcessUDPPacket@ioLobbyStage@@UAE_NAAVSP2Packet@@@Z ENDP ; ioLobbyStage::ProcessUDPPacket
; Function compile flags: /Ogsp
_TEXT	ENDS
;	COMDAT ?ProcessTCPPacket@ioLobbyStage@@UAE_NAAVSP2Packet@@@Z
_TEXT	SEGMENT
_rkPacket$ = 8						; size = 4
?ProcessTCPPacket@ioLobbyStage@@UAE_NAAVSP2Packet@@@Z PROC ; ioLobbyStage::ProcessTCPPacket, COMDAT
; _this$ = ecx

; 156  : {

  00000	55		 push	 ebp
  00001	8b ec		 mov	 ebp, esp
  00003	56		 push	 esi
  00004	57		 push	 edi

; 157  : 	switch( rkPacket.GetPacketID() )

  00005	8b 7d 08	 mov	 edi, DWORD PTR _rkPacket$[ebp]
  00008	8b f1		 mov	 esi, ecx
  0000a	8b cf		 mov	 ecx, edi
  0000c	ff 15 00 00 00
	00		 call	 DWORD PTR __imp_?GetPacketID@CPacket@@QBEKXZ
  00012	2d 04 20 00 00	 sub	 eax, 8196		; 00002004H
  00017	74 1f		 je	 SHORT $LN1@ProcessTCP
  00019	48		 dec	 eax
  0001a	48		 dec	 eax
  0001b	74 11		 je	 SHORT $LN3@ProcessTCP
  0001d	48		 dec	 eax
  0001e	74 04		 je	 SHORT $LN2@ProcessTCP

; 168  : 	}
; 169  : 
; 170  : 	return false;

  00020	32 c0		 xor	 al, al
  00022	eb 1e		 jmp	 SHORT $LN6@ProcessTCP
$LN2@ProcessTCP:

; 162  : 	case STPK_JOIN_ROOM:
; 163  : 		OnJoinRoom( rkPacket );

  00024	57		 push	 edi
  00025	8b ce		 mov	 ecx, esi
  00027	e8 00 00 00 00	 call	 ?OnJoinRoom@ioLobbyStage@@IAEXAAVSP2Packet@@@Z ; ioLobbyStage::OnJoinRoom

; 164  : 		return true;

  0002c	eb 12		 jmp	 SHORT $LN8@ProcessTCP
$LN3@ProcessTCP:

; 158  : 	{
; 159  : 	case STPK_CREATE_ROOM:
; 160  : 		OnCreateRoom( rkPacket );

  0002e	57		 push	 edi
  0002f	8b ce		 mov	 ecx, esi
  00031	e8 00 00 00 00	 call	 ?OnCreateRoom@ioLobbyStage@@IAEXAAVSP2Packet@@@Z ; ioLobbyStage::OnCreateRoom

; 161  : 		return true;

  00036	eb 08		 jmp	 SHORT $LN8@ProcessTCP
$LN1@ProcessTCP:

; 165  : 	case STPK_LOGOUT:
; 166  : 		OnLogOut( rkPacket );

  00038	57		 push	 edi
  00039	8b ce		 mov	 ecx, esi
  0003b	e8 00 00 00 00	 call	 ?OnLogOut@ioLobbyStage@@IAEXAAVSP2Packet@@@Z ; ioLobbyStage::OnLogOut
$LN8@ProcessTCP:

; 167  : 		return true;

  00040	b0 01		 mov	 al, 1
$LN6@ProcessTCP:
  00042	5f		 pop	 edi
  00043	5e		 pop	 esi

; 171  : }

  00044	5d		 pop	 ebp
  00045	c2 04 00	 ret	 4
?ProcessTCPPacket@ioLobbyStage@@UAE_NAAVSP2Packet@@@Z ENDP ; ioLobbyStage::ProcessTCPPacket
_TEXT	ENDS
PUBLIC	__$ArrayPad$
PUBLIC	??$SetTitle_e@$0BA@@ioINILoader@@QAEXAAY0BA@$$CBD@Z ; ioINILoader::SetTitle_e<16>
EXTRN	__imp_?SetTitle@ioINILoader@@QAEXPBD@Z:PROC
; Function compile flags: /Ogsp
; File d:\lost saga for developer\youtube\tutorial\source\src\io3dengine\ioiniloader.h
;	COMDAT ??$SetTitle_e@$0BA@@ioINILoader@@QAEXAAY0BA@$$CBD@Z
_TEXT	SEGMENT
__t$ = -24						; size = 16
__$ArrayPad$ = -4					; size = 4
_t$ = 8							; size = 4
??$SetTitle_e@$0BA@@ioINILoader@@QAEXAAY0BA@$$CBD@Z PROC ; ioINILoader::SetTitle_e<16>, COMDAT
; _this$ = ecx

; 188  : 	{

  00000	55		 push	 ebp
  00001	8b ec		 mov	 ebp, esp
  00003	83 ec 18	 sub	 esp, 24			; 00000018H
  00006	a1 00 00 00 00	 mov	 eax, DWORD PTR ___security_cookie
  0000b	33 c5		 xor	 eax, ebp
  0000d	89 45 fc	 mov	 DWORD PTR __$ArrayPad$[ebp], eax
  00010	8b 45 08	 mov	 eax, DWORD PTR _t$[ebp]

; 189  : 		_ENCSTR(t, _t);

  00013	8a 10		 mov	 dl, BYTE PTR [eax]
  00015	56		 push	 esi
  00016	8b f1		 mov	 esi, ecx
  00018	84 d2		 test	 dl, dl
  0001a	0f 84 8c 01 00
	00		 je	 $LN96@SetTitle_e
  00020	80 f2 ed	 xor	 dl, -19			; ffffffedH
  00023	88 55 e8	 mov	 BYTE PTR __t$[ebp], dl
  00026	8a 50 01	 mov	 dl, BYTE PTR [eax+1]
  00029	84 d2		 test	 dl, dl
  0002b	0f 84 75 01 00
	00		 je	 $LN95@SetTitle_e
  00031	80 f2 ec	 xor	 dl, -20			; ffffffecH
  00034	88 55 e9	 mov	 BYTE PTR __t$[ebp+1], dl
  00037	8a 50 02	 mov	 dl, BYTE PTR [eax+2]
  0003a	84 d2		 test	 dl, dl
  0003c	0f 84 5e 01 00
	00		 je	 $LN94@SetTitle_e
  00042	b1 eb		 mov	 cl, -21			; ffffffebH
  00044	32 d1		 xor	 dl, cl
  00046	88 55 ea	 mov	 BYTE PTR __t$[ebp+2], dl
  00049	8a 50 03	 mov	 dl, BYTE PTR [eax+3]
  0004c	84 d2		 test	 dl, dl
  0004e	0f 84 46 01 00
	00		 je	 $LN93@SetTitle_e
  00054	80 f2 ea	 xor	 dl, -22			; ffffffeaH
  00057	88 55 eb	 mov	 BYTE PTR __t$[ebp+3], dl
  0005a	8a 50 04	 mov	 dl, BYTE PTR [eax+4]
  0005d	84 d2		 test	 dl, dl
  0005f	0f 84 2f 01 00
	00		 je	 $LN92@SetTitle_e
  00065	80 f2 ed	 xor	 dl, -19			; ffffffedH
  00068	88 55 ec	 mov	 BYTE PTR __t$[ebp+4], dl
  0006b	8a 50 05	 mov	 dl, BYTE PTR [eax+5]
  0006e	84 d2		 test	 dl, dl
  00070	0f 84 18 01 00
	00		 je	 $LN91@SetTitle_e
  00076	80 f2 ec	 xor	 dl, -20			; ffffffecH
  00079	88 55 ed	 mov	 BYTE PTR __t$[ebp+5], dl
  0007c	8a 50 06	 mov	 dl, BYTE PTR [eax+6]
  0007f	84 d2		 test	 dl, dl
  00081	0f 84 02 01 00
	00		 je	 $LN90@SetTitle_e
  00087	32 d1		 xor	 dl, cl
  00089	88 55 ee	 mov	 BYTE PTR __t$[ebp+6], dl
  0008c	8a 50 07	 mov	 dl, BYTE PTR [eax+7]
  0008f	84 d2		 test	 dl, dl
  00091	0f 84 ec 00 00
	00		 je	 $LN89@SetTitle_e
  00097	80 f2 ea	 xor	 dl, -22			; ffffffeaH
  0009a	88 55 ef	 mov	 BYTE PTR __t$[ebp+7], dl
  0009d	8a 50 08	 mov	 dl, BYTE PTR [eax+8]
  000a0	84 d2		 test	 dl, dl
  000a2	0f 84 d5 00 00
	00		 je	 $LN88@SetTitle_e
  000a8	80 f2 ed	 xor	 dl, -19			; ffffffedH
  000ab	88 55 f0	 mov	 BYTE PTR __t$[ebp+8], dl
  000ae	8a 50 09	 mov	 dl, BYTE PTR [eax+9]
  000b1	84 d2		 test	 dl, dl
  000b3	0f 84 be 00 00
	00		 je	 $LN87@SetTitle_e
  000b9	80 f2 ec	 xor	 dl, -20			; ffffffecH
  000bc	88 55 f1	 mov	 BYTE PTR __t$[ebp+9], dl
  000bf	8a 50 0a	 mov	 dl, BYTE PTR [eax+10]
  000c2	84 d2		 test	 dl, dl
  000c4	0f 84 a8 00 00
	00		 je	 $LN86@SetTitle_e
  000ca	32 d1		 xor	 dl, cl
  000cc	88 55 f2	 mov	 BYTE PTR __t$[ebp+10], dl
  000cf	8a 50 0b	 mov	 dl, BYTE PTR [eax+11]
  000d2	84 d2		 test	 dl, dl
  000d4	0f 84 92 00 00
	00		 je	 $LN85@SetTitle_e
  000da	80 f2 ea	 xor	 dl, -22			; ffffffeaH
  000dd	88 55 f3	 mov	 BYTE PTR __t$[ebp+11], dl
  000e0	8a 50 0c	 mov	 dl, BYTE PTR [eax+12]
  000e3	84 d2		 test	 dl, dl
  000e5	74 7f		 je	 SHORT $LN84@SetTitle_e
  000e7	80 f2 ed	 xor	 dl, -19			; ffffffedH
  000ea	88 55 f4	 mov	 BYTE PTR __t$[ebp+12], dl
  000ed	8a 50 0d	 mov	 dl, BYTE PTR [eax+13]
  000f0	84 d2		 test	 dl, dl
  000f2	74 6c		 je	 SHORT $LN83@SetTitle_e
  000f4	80 f2 ec	 xor	 dl, -20			; ffffffecH
  000f7	88 55 f5	 mov	 BYTE PTR __t$[ebp+13], dl
  000fa	8a 50 0e	 mov	 dl, BYTE PTR [eax+14]
  000fd	84 d2		 test	 dl, dl
  000ff	74 5a		 je	 SHORT $LN82@SetTitle_e
  00101	32 d1		 xor	 dl, cl
  00103	80 78 0f 00	 cmp	 BYTE PTR [eax+15], 0
  00107	88 55 f6	 mov	 BYTE PTR __t$[ebp+14], dl
  0010a	0f 84 a0 00 00
	00		 je	 $LN1@SetTitle_e
  00110	8a 50 10	 mov	 dl, BYTE PTR [eax+16]
  00113	84 d2		 test	 dl, dl
  00115	74 3e		 je	 SHORT $LN80@SetTitle_e
  00117	80 f2 ed	 xor	 dl, -19			; ffffffedH
  0011a	88 55 f8	 mov	 BYTE PTR __t$[ebp+16], dl
  0011d	8a 50 11	 mov	 dl, BYTE PTR [eax+17]
  00120	84 d2		 test	 dl, dl
  00122	74 2b		 je	 SHORT $LN79@SetTitle_e
  00124	80 f2 ec	 xor	 dl, -20			; ffffffecH
  00127	88 55 f9	 mov	 BYTE PTR __t$[ebp+17], dl
  0012a	8a 50 12	 mov	 dl, BYTE PTR [eax+18]
  0012d	84 d2		 test	 dl, dl
  0012f	74 19		 je	 SHORT $LN78@SetTitle_e
  00131	8a 40 13	 mov	 al, BYTE PTR [eax+19]
  00134	32 d1		 xor	 dl, cl
  00136	88 55 fa	 mov	 BYTE PTR __t$[ebp+18], dl
  00139	84 c0		 test	 al, al
  0013b	74 07		 je	 SHORT $LN77@SetTitle_e
  0013d	34 ea		 xor	 al, -22			; ffffffeaH
  0013f	88 45 fb	 mov	 BYTE PTR __t$[ebp+19], al
  00142	eb 6c		 jmp	 SHORT $LN1@SetTitle_e
$LN77@SetTitle_e:
  00144	c6 45 fb ea	 mov	 BYTE PTR __t$[ebp+19], -22 ; ffffffeaH
  00148	eb 66		 jmp	 SHORT $LN1@SetTitle_e
$LN78@SetTitle_e:
  0014a	88 4d fa	 mov	 BYTE PTR __t$[ebp+18], cl
  0014d	eb 61		 jmp	 SHORT $LN1@SetTitle_e
$LN79@SetTitle_e:
  0014f	c6 45 f9 ec	 mov	 BYTE PTR __t$[ebp+17], -20 ; ffffffecH
  00153	eb 5b		 jmp	 SHORT $LN1@SetTitle_e
$LN80@SetTitle_e:
  00155	c6 45 f8 ed	 mov	 BYTE PTR __t$[ebp+16], -19 ; ffffffedH
  00159	eb 55		 jmp	 SHORT $LN1@SetTitle_e
$LN82@SetTitle_e:
  0015b	88 4d f6	 mov	 BYTE PTR __t$[ebp+14], cl
  0015e	eb 50		 jmp	 SHORT $LN1@SetTitle_e
$LN83@SetTitle_e:
  00160	c6 45 f5 ec	 mov	 BYTE PTR __t$[ebp+13], -20 ; ffffffecH
  00164	eb 4a		 jmp	 SHORT $LN1@SetTitle_e
$LN84@SetTitle_e:
  00166	c6 45 f4 ed	 mov	 BYTE PTR __t$[ebp+12], -19 ; ffffffedH
  0016a	eb 44		 jmp	 SHORT $LN1@SetTitle_e
$LN85@SetTitle_e:
  0016c	c6 45 f3 ea	 mov	 BYTE PTR __t$[ebp+11], -22 ; ffffffeaH
  00170	eb 3e		 jmp	 SHORT $LN1@SetTitle_e
$LN86@SetTitle_e:
  00172	88 4d f2	 mov	 BYTE PTR __t$[ebp+10], cl
  00175	eb 39		 jmp	 SHORT $LN1@SetTitle_e
$LN87@SetTitle_e:
  00177	c6 45 f1 ec	 mov	 BYTE PTR __t$[ebp+9], -20 ; ffffffecH
  0017b	eb 33		 jmp	 SHORT $LN1@SetTitle_e
$LN88@SetTitle_e:
  0017d	c6 45 f0 ed	 mov	 BYTE PTR __t$[ebp+8], -19 ; ffffffedH
  00181	eb 2d		 jmp	 SHORT $LN1@SetTitle_e
$LN89@SetTitle_e:
  00183	c6 45 ef ea	 mov	 BYTE PTR __t$[ebp+7], -22 ; ffffffeaH
  00187	eb 27		 jmp	 SHORT $LN1@SetTitle_e
$LN90@SetTitle_e:
  00189	88 4d ee	 mov	 BYTE PTR __t$[ebp+6], cl
  0018c	eb 22		 jmp	 SHORT $LN1@SetTitle_e
$LN91@SetTitle_e:
  0018e	c6 45 ed ec	 mov	 BYTE PTR __t$[ebp+5], -20 ; ffffffecH
  00192	eb 1c		 jmp	 SHORT $LN1@SetTitle_e
$LN92@SetTitle_e:
  00194	c6 45 ec ed	 mov	 BYTE PTR __t$[ebp+4], -19 ; ffffffedH
  00198	eb 16		 jmp	 SHORT $LN1@SetTitle_e
$LN93@SetTitle_e:
  0019a	c6 45 eb ea	 mov	 BYTE PTR __t$[ebp+3], -22 ; ffffffeaH
  0019e	eb 10		 jmp	 SHORT $LN1@SetTitle_e
$LN94@SetTitle_e:
  001a0	c6 45 ea eb	 mov	 BYTE PTR __t$[ebp+2], -21 ; ffffffebH
  001a4	eb 0a		 jmp	 SHORT $LN1@SetTitle_e
$LN95@SetTitle_e:
  001a6	c6 45 e9 ec	 mov	 BYTE PTR __t$[ebp+1], -20 ; ffffffecH
  001aa	eb 04		 jmp	 SHORT $LN1@SetTitle_e
$LN96@SetTitle_e:
  001ac	c6 45 e8 ed	 mov	 BYTE PTR __t$[ebp], -19	; ffffffedH
$LN1@SetTitle_e:
  001b0	6a 03		 push	 3
  001b2	8d 45 e8	 lea	 eax, DWORD PTR __t$[ebp]
  001b5	c6 45 f7 00	 mov	 BYTE PTR __t$[ebp+15], 0
  001b9	5a		 pop	 edx
$LL104@SetTitle_e:
  001ba	81 30 ed ec eb
	ea		 xor	 DWORD PTR [eax], -353637139 ; eaebecedH
  001c0	83 c0 04	 add	 eax, 4
  001c3	4a		 dec	 edx
  001c4	75 f4		 jne	 SHORT $LL104@SetTitle_e
  001c6	6a 0c		 push	 12			; 0000000cH
  001c8	58		 pop	 eax
$LL101@SetTitle_e:
  001c9	8b c8		 mov	 ecx, eax
  001cb	81 e1 03 00 00
	80		 and	 ecx, -2147483645	; 80000003H
  001d1	79 05		 jns	 SHORT $LN111@SetTitle_e
  001d3	49		 dec	 ecx
  001d4	83 c9 fc	 or	 ecx, -4			; fffffffcH
  001d7	41		 inc	 ecx
$LN111@SetTitle_e:
  001d8	b2 ed		 mov	 dl, -19			; ffffffedH
  001da	2a d1		 sub	 dl, cl
  001dc	30 54 05 e8	 xor	 BYTE PTR __t$[ebp+eax], dl
  001e0	40		 inc	 eax
  001e1	83 f8 0f	 cmp	 eax, 15			; 0000000fH
  001e4	7c e3		 jl	 SHORT $LL101@SetTitle_e

; 190  : 		SetTitle(_t);

  001e6	8d 45 e8	 lea	 eax, DWORD PTR __t$[ebp]
  001e9	50		 push	 eax
  001ea	8b ce		 mov	 ecx, esi
  001ec	ff 15 00 00 00
	00		 call	 DWORD PTR __imp_?SetTitle@ioINILoader@@QAEXPBD@Z

; 191  : 	}

  001f2	8b 4d fc	 mov	 ecx, DWORD PTR __$ArrayPad$[ebp]
  001f5	33 cd		 xor	 ecx, ebp
  001f7	5e		 pop	 esi
  001f8	e8 00 00 00 00	 call	 @__security_check_cookie@4
  001fd	c9		 leave
  001fe	c2 04 00	 ret	 4
??$SetTitle_e@$0BA@@ioINILoader@@QAEXAAY0BA@$$CBD@Z ENDP ; ioINILoader::SetTitle_e<16>
_TEXT	ENDS
PUBLIC	_this$GSCopy$
PUBLIC	__$ArrayPad$
PUBLIC	??$LoadString_e@$0M@@ioINILoader@@QAEXAAY0M@$$CBDAAY00$$CBDPADH@Z ; ioINILoader::LoadString_e<12>
EXTRN	__imp_?LoadStringA@ioINILoader@@QAEXPBD0PADH@Z:PROC
; Function compile flags: /Ogsp
;	COMDAT ??$LoadString_e@$0M@@ioINILoader@@QAEXAAY0M@$$CBDAAY00$$CBDPADH@Z
_TEXT	SEGMENT
_this$GSCopy$ = -24					; size = 4
__k$ = -20						; size = 12
__$ArrayPad$ = -4					; size = 4
_k$ = 8							; size = 4
_d$ = 12						; size = 4
_b$ = 16						; size = 4
_i$ = 20						; size = 4
??$LoadString_e@$0M@@ioINILoader@@QAEXAAY0M@$$CBDAAY00$$CBDPADH@Z PROC ; ioINILoader::LoadString_e<12>, COMDAT
; _this$ = ecx

; 161  : 	{

  00000	55		 push	 ebp
  00001	8b ec		 mov	 ebp, esp
  00003	83 ec 18	 sub	 esp, 24			; 00000018H
  00006	a1 00 00 00 00	 mov	 eax, DWORD PTR ___security_cookie
  0000b	33 c5		 xor	 eax, ebp
  0000d	89 45 fc	 mov	 DWORD PTR __$ArrayPad$[ebp], eax
  00010	8b 45 08	 mov	 eax, DWORD PTR _k$[ebp]

; 162  : 		_ENCSTR(k, _k);

  00013	8a 10		 mov	 dl, BYTE PTR [eax]
  00015	56		 push	 esi
  00016	8b 75 0c	 mov	 esi, DWORD PTR _d$[ebp]
  00019	57		 push	 edi
  0001a	8b 7d 10	 mov	 edi, DWORD PTR _b$[ebp]
  0001d	89 4d e8	 mov	 DWORD PTR _this$GSCopy$[ebp], ecx
  00020	84 d2		 test	 dl, dl
  00022	0f 84 32 01 00
	00		 je	 $LN96@LoadString
  00028	80 f2 ed	 xor	 dl, -19			; ffffffedH
  0002b	88 55 ec	 mov	 BYTE PTR __k$[ebp], dl
  0002e	8a 50 01	 mov	 dl, BYTE PTR [eax+1]
  00031	84 d2		 test	 dl, dl
  00033	0f 84 1b 01 00
	00		 je	 $LN95@LoadString
  00039	80 f2 ec	 xor	 dl, -20			; ffffffecH
  0003c	88 55 ed	 mov	 BYTE PTR __k$[ebp+1], dl
  0003f	8a 50 02	 mov	 dl, BYTE PTR [eax+2]
  00042	84 d2		 test	 dl, dl
  00044	0f 84 04 01 00
	00		 je	 $LN94@LoadString
  0004a	b1 eb		 mov	 cl, -21			; ffffffebH
  0004c	32 d1		 xor	 dl, cl
  0004e	88 55 ee	 mov	 BYTE PTR __k$[ebp+2], dl
  00051	8a 50 03	 mov	 dl, BYTE PTR [eax+3]
  00054	84 d2		 test	 dl, dl
  00056	0f 84 ec 00 00
	00		 je	 $LN93@LoadString
  0005c	80 f2 ea	 xor	 dl, -22			; ffffffeaH
  0005f	88 55 ef	 mov	 BYTE PTR __k$[ebp+3], dl
  00062	8a 50 04	 mov	 dl, BYTE PTR [eax+4]
  00065	84 d2		 test	 dl, dl
  00067	0f 84 d5 00 00
	00		 je	 $LN92@LoadString
  0006d	80 f2 ed	 xor	 dl, -19			; ffffffedH
  00070	88 55 f0	 mov	 BYTE PTR __k$[ebp+4], dl
  00073	8a 50 05	 mov	 dl, BYTE PTR [eax+5]
  00076	84 d2		 test	 dl, dl
  00078	0f 84 be 00 00
	00		 je	 $LN91@LoadString
  0007e	80 f2 ec	 xor	 dl, -20			; ffffffecH
  00081	88 55 f1	 mov	 BYTE PTR __k$[ebp+5], dl
  00084	8a 50 06	 mov	 dl, BYTE PTR [eax+6]
  00087	84 d2		 test	 dl, dl
  00089	0f 84 a8 00 00
	00		 je	 $LN90@LoadString
  0008f	32 d1		 xor	 dl, cl
  00091	88 55 f2	 mov	 BYTE PTR __k$[ebp+6], dl
  00094	8a 50 07	 mov	 dl, BYTE PTR [eax+7]
  00097	84 d2		 test	 dl, dl
  00099	0f 84 92 00 00
	00		 je	 $LN89@LoadString
  0009f	80 f2 ea	 xor	 dl, -22			; ffffffeaH
  000a2	88 55 f3	 mov	 BYTE PTR __k$[ebp+7], dl
  000a5	8a 50 08	 mov	 dl, BYTE PTR [eax+8]
  000a8	84 d2		 test	 dl, dl
  000aa	74 7f		 je	 SHORT $LN88@LoadString
  000ac	80 f2 ed	 xor	 dl, -19			; ffffffedH
  000af	88 55 f4	 mov	 BYTE PTR __k$[ebp+8], dl
  000b2	8a 50 09	 mov	 dl, BYTE PTR [eax+9]
  000b5	84 d2		 test	 dl, dl
  000b7	74 6c		 je	 SHORT $LN87@LoadString
  000b9	80 f2 ec	 xor	 dl, -20			; ffffffecH
  000bc	88 55 f5	 mov	 BYTE PTR __k$[ebp+9], dl
  000bf	8a 50 0a	 mov	 dl, BYTE PTR [eax+10]
  000c2	84 d2		 test	 dl, dl
  000c4	74 5a		 je	 SHORT $LN86@LoadString
  000c6	32 d1		 xor	 dl, cl
  000c8	80 78 0b 00	 cmp	 BYTE PTR [eax+11], 0
  000cc	88 55 f6	 mov	 BYTE PTR __k$[ebp+10], dl
  000cf	0f 84 89 00 00
	00		 je	 $LN111@LoadString
  000d5	8a 50 0c	 mov	 dl, BYTE PTR [eax+12]
  000d8	84 d2		 test	 dl, dl
  000da	74 3e		 je	 SHORT $LN84@LoadString
  000dc	80 f2 ed	 xor	 dl, -19			; ffffffedH
  000df	88 55 f8	 mov	 BYTE PTR __k$[ebp+12], dl
  000e2	8a 50 0d	 mov	 dl, BYTE PTR [eax+13]
  000e5	84 d2		 test	 dl, dl
  000e7	74 2b		 je	 SHORT $LN83@LoadString
  000e9	80 f2 ec	 xor	 dl, -20			; ffffffecH
  000ec	88 55 f9	 mov	 BYTE PTR __k$[ebp+13], dl
  000ef	8a 50 0e	 mov	 dl, BYTE PTR [eax+14]
  000f2	84 d2		 test	 dl, dl
  000f4	74 19		 je	 SHORT $LN82@LoadString
  000f6	8a 40 0f	 mov	 al, BYTE PTR [eax+15]
  000f9	32 d1		 xor	 dl, cl
  000fb	88 55 fa	 mov	 BYTE PTR __k$[ebp+14], dl
  000fe	84 c0		 test	 al, al
  00100	74 07		 je	 SHORT $LN81@LoadString
  00102	34 ea		 xor	 al, -22			; ffffffeaH
  00104	88 45 fb	 mov	 BYTE PTR __k$[ebp+15], al
  00107	eb 55		 jmp	 SHORT $LN111@LoadString
$LN81@LoadString:
  00109	c6 45 fb ea	 mov	 BYTE PTR __k$[ebp+15], -22 ; ffffffeaH
  0010d	eb 4f		 jmp	 SHORT $LN111@LoadString
$LN82@LoadString:
  0010f	88 4d fa	 mov	 BYTE PTR __k$[ebp+14], cl
  00112	eb 4a		 jmp	 SHORT $LN111@LoadString
$LN83@LoadString:
  00114	c6 45 f9 ec	 mov	 BYTE PTR __k$[ebp+13], -20 ; ffffffecH
  00118	eb 44		 jmp	 SHORT $LN111@LoadString
$LN84@LoadString:
  0011a	c6 45 f8 ed	 mov	 BYTE PTR __k$[ebp+12], -19 ; ffffffedH
  0011e	eb 3e		 jmp	 SHORT $LN111@LoadString
$LN86@LoadString:
  00120	88 4d f6	 mov	 BYTE PTR __k$[ebp+10], cl
  00123	eb 39		 jmp	 SHORT $LN111@LoadString
$LN87@LoadString:
  00125	c6 45 f5 ec	 mov	 BYTE PTR __k$[ebp+9], -20 ; ffffffecH
  00129	eb 33		 jmp	 SHORT $LN111@LoadString
$LN88@LoadString:
  0012b	c6 45 f4 ed	 mov	 BYTE PTR __k$[ebp+8], -19 ; ffffffedH
  0012f	eb 2d		 jmp	 SHORT $LN111@LoadString
$LN89@LoadString:
  00131	c6 45 f3 ea	 mov	 BYTE PTR __k$[ebp+7], -22 ; ffffffeaH
  00135	eb 27		 jmp	 SHORT $LN111@LoadString
$LN90@LoadString:
  00137	88 4d f2	 mov	 BYTE PTR __k$[ebp+6], cl
  0013a	eb 22		 jmp	 SHORT $LN111@LoadString
$LN91@LoadString:
  0013c	c6 45 f1 ec	 mov	 BYTE PTR __k$[ebp+5], -20 ; ffffffecH
  00140	eb 1c		 jmp	 SHORT $LN111@LoadString
$LN92@LoadString:
  00142	c6 45 f0 ed	 mov	 BYTE PTR __k$[ebp+4], -19 ; ffffffedH
  00146	eb 16		 jmp	 SHORT $LN111@LoadString
$LN93@LoadString:
  00148	c6 45 ef ea	 mov	 BYTE PTR __k$[ebp+3], -22 ; ffffffeaH
  0014c	eb 10		 jmp	 SHORT $LN111@LoadString
$LN94@LoadString:
  0014e	c6 45 ee eb	 mov	 BYTE PTR __k$[ebp+2], -21 ; ffffffebH
  00152	eb 0a		 jmp	 SHORT $LN111@LoadString
$LN95@LoadString:
  00154	c6 45 ed ec	 mov	 BYTE PTR __k$[ebp+1], -20 ; ffffffecH
  00158	eb 04		 jmp	 SHORT $LN111@LoadString
$LN96@LoadString:
  0015a	c6 45 ec ed	 mov	 BYTE PTR __k$[ebp], -19	; ffffffedH
$LN111@LoadString:
  0015e	6a 02		 push	 2
  00160	8d 45 ec	 lea	 eax, DWORD PTR __k$[ebp]
  00163	c6 45 f7 00	 mov	 BYTE PTR __k$[ebp+11], 0
  00167	5a		 pop	 edx
$LL104@LoadString:
  00168	81 30 ed ec eb
	ea		 xor	 DWORD PTR [eax], -353637139 ; eaebecedH
  0016e	83 c0 04	 add	 eax, 4
  00171	4a		 dec	 edx
  00172	75 f4		 jne	 SHORT $LL104@LoadString
  00174	6a 08		 push	 8
  00176	58		 pop	 eax
$LL101@LoadString:
  00177	8b c8		 mov	 ecx, eax
  00179	81 e1 03 00 00
	80		 and	 ecx, -2147483645	; 80000003H
  0017f	79 05		 jns	 SHORT $LN112@LoadString
  00181	49		 dec	 ecx
  00182	83 c9 fc	 or	 ecx, -4			; fffffffcH
  00185	41		 inc	 ecx
$LN112@LoadString:
  00186	b2 ed		 mov	 dl, -19			; ffffffedH
  00188	2a d1		 sub	 dl, cl
  0018a	30 54 05 ec	 xor	 BYTE PTR __k$[ebp+eax], dl
  0018e	40		 inc	 eax
  0018f	83 f8 0b	 cmp	 eax, 11			; 0000000bH
  00192	7c e3		 jl	 SHORT $LL101@LoadString

; 163  : 		LoadString(_k, d, b, i);

  00194	ff 75 14	 push	 DWORD PTR _i$[ebp]
  00197	8b 4d e8	 mov	 ecx, DWORD PTR _this$GSCopy$[ebp]
  0019a	57		 push	 edi
  0019b	56		 push	 esi
  0019c	8d 45 ec	 lea	 eax, DWORD PTR __k$[ebp]
  0019f	50		 push	 eax
  001a0	ff 15 00 00 00
	00		 call	 DWORD PTR __imp_?LoadStringA@ioINILoader@@QAEXPBD0PADH@Z

; 164  : 	}

  001a6	8b 4d fc	 mov	 ecx, DWORD PTR __$ArrayPad$[ebp]
  001a9	5f		 pop	 edi
  001aa	33 cd		 xor	 ecx, ebp
  001ac	5e		 pop	 esi
  001ad	e8 00 00 00 00	 call	 @__security_check_cookie@4
  001b2	c9		 leave
  001b3	c2 10 00	 ret	 16			; 00000010H
??$LoadString_e@$0M@@ioINILoader@@QAEXAAY0M@$$CBDAAY00$$CBDPADH@Z ENDP ; ioINILoader::LoadString_e<12>
_TEXT	ENDS
PUBLIC	??$encodeString@$0BF@@ioINILoader_e@@AAEPADAAY0BF@$$CBDPAD@Z ; ioINILoader_e::encodeString<21>
; Function compile flags: /Ogsp
;	COMDAT ??$encodeString@$0BF@@ioINILoader_e@@AAEPADAAY0BF@$$CBDPAD@Z
_TEXT	SEGMENT
_s$ = 8							; size = 4
_e$ = 12						; size = 4
??$encodeString@$0BF@@ioINILoader_e@@AAEPADAAY0BF@$$CBDPAD@Z PROC ; ioINILoader_e::encodeString<21>, COMDAT
; _this$ = ecx

; 215  : 	{

  00000	55		 push	 ebp
  00001	8b ec		 mov	 ebp, esp

; 216  : 		__ENCSTR(s, e);

  00003	8b 4d 08	 mov	 ecx, DWORD PTR _s$[ebp]
  00006	8a 11		 mov	 dl, BYTE PTR [ecx]
  00008	8b 45 0c	 mov	 eax, DWORD PTR _e$[ebp]
  0000b	53		 push	 ebx
  0000c	84 d2		 test	 dl, dl
  0000e	0f 84 6a 04 00
	00		 je	 $LN96@encodeStri
  00014	80 f2 ed	 xor	 dl, -19			; ffffffedH
  00017	88 10		 mov	 BYTE PTR [eax], dl
  00019	8a 51 01	 mov	 dl, BYTE PTR [ecx+1]
  0001c	84 d2		 test	 dl, dl
  0001e	0f 84 54 04 00
	00		 je	 $LN95@encodeStri
  00024	80 f2 ec	 xor	 dl, -20			; ffffffecH
  00027	88 50 01	 mov	 BYTE PTR [eax+1], dl
  0002a	8a 51 02	 mov	 dl, BYTE PTR [ecx+2]
  0002d	84 d2		 test	 dl, dl
  0002f	0f 84 3d 04 00
	00		 je	 $LN94@encodeStri
  00035	b3 eb		 mov	 bl, -21			; ffffffebH
  00037	32 d3		 xor	 dl, bl
  00039	88 50 02	 mov	 BYTE PTR [eax+2], dl
  0003c	8a 51 03	 mov	 dl, BYTE PTR [ecx+3]
  0003f	84 d2		 test	 dl, dl
  00041	0f 84 25 04 00
	00		 je	 $LN93@encodeStri
  00047	80 f2 ea	 xor	 dl, -22			; ffffffeaH
  0004a	88 50 03	 mov	 BYTE PTR [eax+3], dl
  0004d	8a 51 04	 mov	 dl, BYTE PTR [ecx+4]
  00050	84 d2		 test	 dl, dl
  00052	0f 84 0e 04 00
	00		 je	 $LN92@encodeStri
  00058	80 f2 ed	 xor	 dl, -19			; ffffffedH
  0005b	88 50 04	 mov	 BYTE PTR [eax+4], dl
  0005e	8a 51 05	 mov	 dl, BYTE PTR [ecx+5]
  00061	84 d2		 test	 dl, dl
  00063	0f 84 f7 03 00
	00		 je	 $LN91@encodeStri
  00069	80 f2 ec	 xor	 dl, -20			; ffffffecH
  0006c	88 50 05	 mov	 BYTE PTR [eax+5], dl
  0006f	8a 51 06	 mov	 dl, BYTE PTR [ecx+6]
  00072	84 d2		 test	 dl, dl
  00074	0f 84 e1 03 00
	00		 je	 $LN90@encodeStri
  0007a	32 d3		 xor	 dl, bl
  0007c	88 50 06	 mov	 BYTE PTR [eax+6], dl
  0007f	8a 51 07	 mov	 dl, BYTE PTR [ecx+7]
  00082	84 d2		 test	 dl, dl
  00084	0f 84 cb 03 00
	00		 je	 $LN89@encodeStri
  0008a	80 f2 ea	 xor	 dl, -22			; ffffffeaH
  0008d	88 50 07	 mov	 BYTE PTR [eax+7], dl
  00090	8a 51 08	 mov	 dl, BYTE PTR [ecx+8]
  00093	84 d2		 test	 dl, dl
  00095	0f 84 b4 03 00
	00		 je	 $LN88@encodeStri
  0009b	80 f2 ed	 xor	 dl, -19			; ffffffedH
  0009e	88 50 08	 mov	 BYTE PTR [eax+8], dl
  000a1	8a 51 09	 mov	 dl, BYTE PTR [ecx+9]
  000a4	84 d2		 test	 dl, dl
  000a6	0f 84 9d 03 00
	00		 je	 $LN87@encodeStri
  000ac	80 f2 ec	 xor	 dl, -20			; ffffffecH
  000af	88 50 09	 mov	 BYTE PTR [eax+9], dl
  000b2	8a 51 0a	 mov	 dl, BYTE PTR [ecx+10]
  000b5	84 d2		 test	 dl, dl
  000b7	0f 84 87 03 00
	00		 je	 $LN86@encodeStri
  000bd	32 d3		 xor	 dl, bl
  000bf	88 50 0a	 mov	 BYTE PTR [eax+10], dl
  000c2	8a 51 0b	 mov	 dl, BYTE PTR [ecx+11]
  000c5	84 d2		 test	 dl, dl
  000c7	0f 84 71 03 00
	00		 je	 $LN85@encodeStri
  000cd	80 f2 ea	 xor	 dl, -22			; ffffffeaH
  000d0	88 50 0b	 mov	 BYTE PTR [eax+11], dl
  000d3	8a 51 0c	 mov	 dl, BYTE PTR [ecx+12]
  000d6	84 d2		 test	 dl, dl
  000d8	0f 84 5a 03 00
	00		 je	 $LN84@encodeStri
  000de	80 f2 ed	 xor	 dl, -19			; ffffffedH
  000e1	88 50 0c	 mov	 BYTE PTR [eax+12], dl
  000e4	8a 51 0d	 mov	 dl, BYTE PTR [ecx+13]
  000e7	84 d2		 test	 dl, dl
  000e9	0f 84 43 03 00
	00		 je	 $LN83@encodeStri
  000ef	80 f2 ec	 xor	 dl, -20			; ffffffecH
  000f2	88 50 0d	 mov	 BYTE PTR [eax+13], dl
  000f5	8a 51 0e	 mov	 dl, BYTE PTR [ecx+14]
  000f8	84 d2		 test	 dl, dl
  000fa	0f 84 2d 03 00
	00		 je	 $LN82@encodeStri
  00100	32 d3		 xor	 dl, bl
  00102	88 50 0e	 mov	 BYTE PTR [eax+14], dl
  00105	8a 51 0f	 mov	 dl, BYTE PTR [ecx+15]
  00108	84 d2		 test	 dl, dl
  0010a	0f 84 17 03 00
	00		 je	 $LN81@encodeStri
  00110	80 f2 ea	 xor	 dl, -22			; ffffffeaH
  00113	88 50 0f	 mov	 BYTE PTR [eax+15], dl
  00116	8a 51 10	 mov	 dl, BYTE PTR [ecx+16]
  00119	84 d2		 test	 dl, dl
  0011b	0f 84 00 03 00
	00		 je	 $LN80@encodeStri
  00121	80 f2 ed	 xor	 dl, -19			; ffffffedH
  00124	88 50 10	 mov	 BYTE PTR [eax+16], dl
  00127	8a 51 11	 mov	 dl, BYTE PTR [ecx+17]
  0012a	84 d2		 test	 dl, dl
  0012c	0f 84 e9 02 00
	00		 je	 $LN79@encodeStri
  00132	80 f2 ec	 xor	 dl, -20			; ffffffecH
  00135	88 50 11	 mov	 BYTE PTR [eax+17], dl
  00138	8a 51 12	 mov	 dl, BYTE PTR [ecx+18]
  0013b	84 d2		 test	 dl, dl
  0013d	0f 84 d3 02 00
	00		 je	 $LN78@encodeStri
  00143	32 d3		 xor	 dl, bl
  00145	88 50 12	 mov	 BYTE PTR [eax+18], dl
  00148	8a 51 13	 mov	 dl, BYTE PTR [ecx+19]
  0014b	84 d2		 test	 dl, dl
  0014d	0f 84 bd 02 00
	00		 je	 $LN77@encodeStri
  00153	80 f2 ea	 xor	 dl, -22			; ffffffeaH
  00156	88 50 13	 mov	 BYTE PTR [eax+19], dl
  00159	8a 51 14	 mov	 dl, BYTE PTR [ecx+20]
  0015c	84 d2		 test	 dl, dl
  0015e	0f 84 a6 02 00
	00		 je	 $LN76@encodeStri
  00164	80 f2 ed	 xor	 dl, -19			; ffffffedH
  00167	88 50 14	 mov	 BYTE PTR [eax+20], dl
  0016a	8a 51 15	 mov	 dl, BYTE PTR [ecx+21]
  0016d	84 d2		 test	 dl, dl
  0016f	0f 84 8f 02 00
	00		 je	 $LN75@encodeStri
  00175	80 f2 ec	 xor	 dl, -20			; ffffffecH
  00178	88 50 15	 mov	 BYTE PTR [eax+21], dl
  0017b	8a 51 16	 mov	 dl, BYTE PTR [ecx+22]
  0017e	84 d2		 test	 dl, dl
  00180	0f 84 79 02 00
	00		 je	 $LN74@encodeStri
  00186	32 d3		 xor	 dl, bl
  00188	88 50 16	 mov	 BYTE PTR [eax+22], dl
  0018b	8a 51 17	 mov	 dl, BYTE PTR [ecx+23]
  0018e	84 d2		 test	 dl, dl
  00190	0f 84 60 02 00
	00		 je	 $LN73@encodeStri
  00196	80 f2 ea	 xor	 dl, -22			; ffffffeaH
  00199	88 50 17	 mov	 BYTE PTR [eax+23], dl
  0019c	8a 51 18	 mov	 dl, BYTE PTR [ecx+24]
  0019f	84 d2		 test	 dl, dl
  001a1	0f 84 46 02 00
	00		 je	 $LN72@encodeStri
  001a7	80 f2 ed	 xor	 dl, -19			; ffffffedH
  001aa	88 50 18	 mov	 BYTE PTR [eax+24], dl
  001ad	8a 51 19	 mov	 dl, BYTE PTR [ecx+25]
  001b0	84 d2		 test	 dl, dl
  001b2	0f 84 2c 02 00
	00		 je	 $LN71@encodeStri
  001b8	80 f2 ec	 xor	 dl, -20			; ffffffecH
  001bb	88 50 19	 mov	 BYTE PTR [eax+25], dl
  001be	8a 51 1a	 mov	 dl, BYTE PTR [ecx+26]
  001c1	84 d2		 test	 dl, dl
  001c3	0f 84 13 02 00
	00		 je	 $LN70@encodeStri
  001c9	32 d3		 xor	 dl, bl
  001cb	88 50 1a	 mov	 BYTE PTR [eax+26], dl
  001ce	8a 51 1b	 mov	 dl, BYTE PTR [ecx+27]
  001d1	84 d2		 test	 dl, dl
  001d3	0f 84 fa 01 00
	00		 je	 $LN69@encodeStri
  001d9	80 f2 ea	 xor	 dl, -22			; ffffffeaH
  001dc	88 50 1b	 mov	 BYTE PTR [eax+27], dl
  001df	8a 51 1c	 mov	 dl, BYTE PTR [ecx+28]
  001e2	84 d2		 test	 dl, dl
  001e4	0f 84 e0 01 00
	00		 je	 $LN68@encodeStri
  001ea	80 f2 ed	 xor	 dl, -19			; ffffffedH
  001ed	88 50 1c	 mov	 BYTE PTR [eax+28], dl
  001f0	8a 51 1d	 mov	 dl, BYTE PTR [ecx+29]
  001f3	84 d2		 test	 dl, dl
  001f5	0f 84 c6 01 00
	00		 je	 $LN67@encodeStri
  001fb	80 f2 ec	 xor	 dl, -20			; ffffffecH
  001fe	88 50 1d	 mov	 BYTE PTR [eax+29], dl
  00201	8a 51 1e	 mov	 dl, BYTE PTR [ecx+30]
  00204	84 d2		 test	 dl, dl
  00206	0f 84 ad 01 00
	00		 je	 $LN66@encodeStri
  0020c	32 d3		 xor	 dl, bl
  0020e	88 50 1e	 mov	 BYTE PTR [eax+30], dl
  00211	8a 51 1f	 mov	 dl, BYTE PTR [ecx+31]
  00214	84 d2		 test	 dl, dl
  00216	0f 84 94 01 00
	00		 je	 $LN65@encodeStri
  0021c	80 f2 ea	 xor	 dl, -22			; ffffffeaH
  0021f	88 50 1f	 mov	 BYTE PTR [eax+31], dl
  00222	8a 51 20	 mov	 dl, BYTE PTR [ecx+32]
  00225	84 d2		 test	 dl, dl
  00227	0f 84 7a 01 00
	00		 je	 $LN64@encodeStri
  0022d	80 f2 ed	 xor	 dl, -19			; ffffffedH
  00230	88 50 20	 mov	 BYTE PTR [eax+32], dl
  00233	8a 51 21	 mov	 dl, BYTE PTR [ecx+33]
  00236	84 d2		 test	 dl, dl
  00238	0f 84 60 01 00
	00		 je	 $LN63@encodeStri
  0023e	80 f2 ec	 xor	 dl, -20			; ffffffecH
  00241	88 50 21	 mov	 BYTE PTR [eax+33], dl
  00244	8a 51 22	 mov	 dl, BYTE PTR [ecx+34]
  00247	84 d2		 test	 dl, dl
  00249	0f 84 47 01 00
	00		 je	 $LN62@encodeStri
  0024f	32 d3		 xor	 dl, bl
  00251	88 50 22	 mov	 BYTE PTR [eax+34], dl
  00254	8a 51 23	 mov	 dl, BYTE PTR [ecx+35]
  00257	84 d2		 test	 dl, dl
  00259	0f 84 2e 01 00
	00		 je	 $LN61@encodeStri
  0025f	80 f2 ea	 xor	 dl, -22			; ffffffeaH
  00262	88 50 23	 mov	 BYTE PTR [eax+35], dl
  00265	8a 51 24	 mov	 dl, BYTE PTR [ecx+36]
  00268	84 d2		 test	 dl, dl
  0026a	0f 84 14 01 00
	00		 je	 $LN60@encodeStri
  00270	80 f2 ed	 xor	 dl, -19			; ffffffedH
  00273	88 50 24	 mov	 BYTE PTR [eax+36], dl
  00276	8a 51 25	 mov	 dl, BYTE PTR [ecx+37]
  00279	84 d2		 test	 dl, dl
  0027b	0f 84 fa 00 00
	00		 je	 $LN59@encodeStri
  00281	80 f2 ec	 xor	 dl, -20			; ffffffecH
  00284	88 50 25	 mov	 BYTE PTR [eax+37], dl
  00287	8a 51 26	 mov	 dl, BYTE PTR [ecx+38]
  0028a	84 d2		 test	 dl, dl
  0028c	0f 84 e1 00 00
	00		 je	 $LN58@encodeStri
  00292	32 d3		 xor	 dl, bl
  00294	88 50 26	 mov	 BYTE PTR [eax+38], dl
  00297	8a 51 27	 mov	 dl, BYTE PTR [ecx+39]
  0029a	84 d2		 test	 dl, dl
  0029c	0f 84 c8 00 00
	00		 je	 $LN57@encodeStri
  002a2	80 f2 ea	 xor	 dl, -22			; ffffffeaH
  002a5	88 50 27	 mov	 BYTE PTR [eax+39], dl
  002a8	8a 51 28	 mov	 dl, BYTE PTR [ecx+40]
  002ab	84 d2		 test	 dl, dl
  002ad	0f 84 ae 00 00
	00		 je	 $LN56@encodeStri
  002b3	80 f2 ed	 xor	 dl, -19			; ffffffedH
  002b6	88 50 28	 mov	 BYTE PTR [eax+40], dl
  002b9	8a 51 29	 mov	 dl, BYTE PTR [ecx+41]
  002bc	84 d2		 test	 dl, dl
  002be	0f 84 94 00 00
	00		 je	 $LN55@encodeStri
  002c4	80 f2 ec	 xor	 dl, -20			; ffffffecH
  002c7	88 50 29	 mov	 BYTE PTR [eax+41], dl
  002ca	8a 51 2a	 mov	 dl, BYTE PTR [ecx+42]
  002cd	84 d2		 test	 dl, dl
  002cf	74 7f		 je	 SHORT $LN54@encodeStri
  002d1	32 d3		 xor	 dl, bl
  002d3	88 50 2a	 mov	 BYTE PTR [eax+42], dl
  002d6	8a 51 2b	 mov	 dl, BYTE PTR [ecx+43]
  002d9	84 d2		 test	 dl, dl
  002db	74 6a		 je	 SHORT $LN53@encodeStri
  002dd	80 f2 ea	 xor	 dl, -22			; ffffffeaH
  002e0	88 50 2b	 mov	 BYTE PTR [eax+43], dl
  002e3	8a 51 2c	 mov	 dl, BYTE PTR [ecx+44]
  002e6	84 d2		 test	 dl, dl
  002e8	74 54		 je	 SHORT $LN52@encodeStri
  002ea	80 f2 ed	 xor	 dl, -19			; ffffffedH
  002ed	88 50 2c	 mov	 BYTE PTR [eax+44], dl
  002f0	8a 51 2d	 mov	 dl, BYTE PTR [ecx+45]
  002f3	84 d2		 test	 dl, dl
  002f5	74 3e		 je	 SHORT $LN51@encodeStri
  002f7	80 f2 ec	 xor	 dl, -20			; ffffffecH
  002fa	88 50 2d	 mov	 BYTE PTR [eax+45], dl
  002fd	8a 51 2e	 mov	 dl, BYTE PTR [ecx+46]
  00300	84 d2		 test	 dl, dl
  00302	74 29		 je	 SHORT $LN50@encodeStri
  00304	32 d3		 xor	 dl, bl
  00306	88 50 2e	 mov	 BYTE PTR [eax+46], dl
  00309	8a 51 2f	 mov	 dl, BYTE PTR [ecx+47]
  0030c	84 d2		 test	 dl, dl
  0030e	74 14		 je	 SHORT $LN49@encodeStri
  00310	80 f2 ea	 xor	 dl, -22			; ffffffeaH
  00313	88 50 2f	 mov	 BYTE PTR [eax+47], dl
  00316	8a 49 30	 mov	 cl, BYTE PTR [ecx+48]
  00319	80 f1 ed	 xor	 cl, -19			; ffffffedH
  0031c	88 48 30	 mov	 BYTE PTR [eax+48], cl
  0031f	e9 5d 01 00 00	 jmp	 $LN1@encodeStri
$LN49@encodeStri:
  00324	c6 40 2f ea	 mov	 BYTE PTR [eax+47], -22	; ffffffeaH
  00328	e9 54 01 00 00	 jmp	 $LN1@encodeStri
$LN50@encodeStri:
  0032d	88 58 2e	 mov	 BYTE PTR [eax+46], bl
  00330	e9 4c 01 00 00	 jmp	 $LN1@encodeStri
$LN51@encodeStri:
  00335	c6 40 2d ec	 mov	 BYTE PTR [eax+45], -20	; ffffffecH
  00339	e9 43 01 00 00	 jmp	 $LN1@encodeStri
$LN52@encodeStri:
  0033e	c6 40 2c ed	 mov	 BYTE PTR [eax+44], -19	; ffffffedH
  00342	e9 3a 01 00 00	 jmp	 $LN1@encodeStri
$LN53@encodeStri:
  00347	c6 40 2b ea	 mov	 BYTE PTR [eax+43], -22	; ffffffeaH
  0034b	e9 31 01 00 00	 jmp	 $LN1@encodeStri
$LN54@encodeStri:
  00350	88 58 2a	 mov	 BYTE PTR [eax+42], bl
  00353	e9 29 01 00 00	 jmp	 $LN1@encodeStri
$LN55@encodeStri:
  00358	c6 40 29 ec	 mov	 BYTE PTR [eax+41], -20	; ffffffecH
  0035c	e9 20 01 00 00	 jmp	 $LN1@encodeStri
$LN56@encodeStri:
  00361	c6 40 28 ed	 mov	 BYTE PTR [eax+40], -19	; ffffffedH
  00365	e9 17 01 00 00	 jmp	 $LN1@encodeStri
$LN57@encodeStri:
  0036a	c6 40 27 ea	 mov	 BYTE PTR [eax+39], -22	; ffffffeaH
  0036e	e9 0e 01 00 00	 jmp	 $LN1@encodeStri
$LN58@encodeStri:
  00373	88 58 26	 mov	 BYTE PTR [eax+38], bl
  00376	e9 06 01 00 00	 jmp	 $LN1@encodeStri
$LN59@encodeStri:
  0037b	c6 40 25 ec	 mov	 BYTE PTR [eax+37], -20	; ffffffecH
  0037f	e9 fd 00 00 00	 jmp	 $LN1@encodeStri
$LN60@encodeStri:
  00384	c6 40 24 ed	 mov	 BYTE PTR [eax+36], -19	; ffffffedH
  00388	e9 f4 00 00 00	 jmp	 $LN1@encodeStri
$LN61@encodeStri:
  0038d	c6 40 23 ea	 mov	 BYTE PTR [eax+35], -22	; ffffffeaH
  00391	e9 eb 00 00 00	 jmp	 $LN1@encodeStri
$LN62@encodeStri:
  00396	88 58 22	 mov	 BYTE PTR [eax+34], bl
  00399	e9 e3 00 00 00	 jmp	 $LN1@encodeStri
$LN63@encodeStri:
  0039e	c6 40 21 ec	 mov	 BYTE PTR [eax+33], -20	; ffffffecH
  003a2	e9 da 00 00 00	 jmp	 $LN1@encodeStri
$LN64@encodeStri:
  003a7	c6 40 20 ed	 mov	 BYTE PTR [eax+32], -19	; ffffffedH
  003ab	e9 d1 00 00 00	 jmp	 $LN1@encodeStri
$LN65@encodeStri:
  003b0	c6 40 1f ea	 mov	 BYTE PTR [eax+31], -22	; ffffffeaH
  003b4	e9 c8 00 00 00	 jmp	 $LN1@encodeStri
$LN66@encodeStri:
  003b9	88 58 1e	 mov	 BYTE PTR [eax+30], bl
  003bc	e9 c0 00 00 00	 jmp	 $LN1@encodeStri
$LN67@encodeStri:
  003c1	c6 40 1d ec	 mov	 BYTE PTR [eax+29], -20	; ffffffecH
  003c5	e9 b7 00 00 00	 jmp	 $LN1@encodeStri
$LN68@encodeStri:
  003ca	c6 40 1c ed	 mov	 BYTE PTR [eax+28], -19	; ffffffedH
  003ce	e9 ae 00 00 00	 jmp	 $LN1@encodeStri
$LN69@encodeStri:
  003d3	c6 40 1b ea	 mov	 BYTE PTR [eax+27], -22	; ffffffeaH
  003d7	e9 a5 00 00 00	 jmp	 $LN1@encodeStri
$LN70@encodeStri:
  003dc	88 58 1a	 mov	 BYTE PTR [eax+26], bl
  003df	e9 9d 00 00 00	 jmp	 $LN1@encodeStri
$LN71@encodeStri:
  003e4	c6 40 19 ec	 mov	 BYTE PTR [eax+25], -20	; ffffffecH
  003e8	e9 94 00 00 00	 jmp	 $LN1@encodeStri
$LN72@encodeStri:
  003ed	c6 40 18 ed	 mov	 BYTE PTR [eax+24], -19	; ffffffedH
  003f1	e9 8b 00 00 00	 jmp	 $LN1@encodeStri
$LN73@encodeStri:
  003f6	c6 40 17 ea	 mov	 BYTE PTR [eax+23], -22	; ffffffeaH
  003fa	e9 82 00 00 00	 jmp	 $LN1@encodeStri
$LN74@encodeStri:
  003ff	88 58 16	 mov	 BYTE PTR [eax+22], bl
  00402	eb 7d		 jmp	 SHORT $LN1@encodeStri
$LN75@encodeStri:
  00404	c6 40 15 ec	 mov	 BYTE PTR [eax+21], -20	; ffffffecH
  00408	eb 77		 jmp	 SHORT $LN1@encodeStri
$LN76@encodeStri:
  0040a	c6 40 14 ed	 mov	 BYTE PTR [eax+20], -19	; ffffffedH
  0040e	eb 71		 jmp	 SHORT $LN1@encodeStri
$LN77@encodeStri:
  00410	c6 40 13 ea	 mov	 BYTE PTR [eax+19], -22	; ffffffeaH
  00414	eb 6b		 jmp	 SHORT $LN1@encodeStri
$LN78@encodeStri:
  00416	88 58 12	 mov	 BYTE PTR [eax+18], bl
  00419	eb 66		 jmp	 SHORT $LN1@encodeStri
$LN79@encodeStri:
  0041b	c6 40 11 ec	 mov	 BYTE PTR [eax+17], -20	; ffffffecH
  0041f	eb 60		 jmp	 SHORT $LN1@encodeStri
$LN80@encodeStri:
  00421	c6 40 10 ed	 mov	 BYTE PTR [eax+16], -19	; ffffffedH
  00425	eb 5a		 jmp	 SHORT $LN1@encodeStri
$LN81@encodeStri:
  00427	c6 40 0f ea	 mov	 BYTE PTR [eax+15], -22	; ffffffeaH
  0042b	eb 54		 jmp	 SHORT $LN1@encodeStri
$LN82@encodeStri:
  0042d	88 58 0e	 mov	 BYTE PTR [eax+14], bl
  00430	eb 4f		 jmp	 SHORT $LN1@encodeStri
$LN83@encodeStri:
  00432	c6 40 0d ec	 mov	 BYTE PTR [eax+13], -20	; ffffffecH
  00436	eb 49		 jmp	 SHORT $LN1@encodeStri
$LN84@encodeStri:
  00438	c6 40 0c ed	 mov	 BYTE PTR [eax+12], -19	; ffffffedH
  0043c	eb 43		 jmp	 SHORT $LN1@encodeStri
$LN85@encodeStri:
  0043e	c6 40 0b ea	 mov	 BYTE PTR [eax+11], -22	; ffffffeaH
  00442	eb 3d		 jmp	 SHORT $LN1@encodeStri
$LN86@encodeStri:
  00444	88 58 0a	 mov	 BYTE PTR [eax+10], bl
  00447	eb 38		 jmp	 SHORT $LN1@encodeStri
$LN87@encodeStri:
  00449	c6 40 09 ec	 mov	 BYTE PTR [eax+9], -20	; ffffffecH
  0044d	eb 32		 jmp	 SHORT $LN1@encodeStri
$LN88@encodeStri:
  0044f	c6 40 08 ed	 mov	 BYTE PTR [eax+8], -19	; ffffffedH
  00453	eb 2c		 jmp	 SHORT $LN1@encodeStri
$LN89@encodeStri:
  00455	c6 40 07 ea	 mov	 BYTE PTR [eax+7], -22	; ffffffeaH
  00459	eb 26		 jmp	 SHORT $LN1@encodeStri
$LN90@encodeStri:
  0045b	88 58 06	 mov	 BYTE PTR [eax+6], bl
  0045e	eb 21		 jmp	 SHORT $LN1@encodeStri
$LN91@encodeStri:
  00460	c6 40 05 ec	 mov	 BYTE PTR [eax+5], -20	; ffffffecH
  00464	eb 1b		 jmp	 SHORT $LN1@encodeStri
$LN92@encodeStri:
  00466	c6 40 04 ed	 mov	 BYTE PTR [eax+4], -19	; ffffffedH
  0046a	eb 15		 jmp	 SHORT $LN1@encodeStri
$LN93@encodeStri:
  0046c	c6 40 03 ea	 mov	 BYTE PTR [eax+3], -22	; ffffffeaH
  00470	eb 0f		 jmp	 SHORT $LN1@encodeStri
$LN94@encodeStri:
  00472	c6 40 02 eb	 mov	 BYTE PTR [eax+2], -21	; ffffffebH
  00476	eb 09		 jmp	 SHORT $LN1@encodeStri
$LN95@encodeStri:
  00478	c6 40 01 ec	 mov	 BYTE PTR [eax+1], -20	; ffffffecH
  0047c	eb 03		 jmp	 SHORT $LN1@encodeStri
$LN96@encodeStri:
  0047e	c6 00 ed	 mov	 BYTE PTR [eax], -19	; ffffffedH
$LN1@encodeStri:
  00481	6a 05		 push	 5
  00483	5a		 pop	 edx
  00484	8b c8		 mov	 ecx, eax
  00486	c6 40 14 00	 mov	 BYTE PTR [eax+20], 0
  0048a	5b		 pop	 ebx
$LL104@encodeStri:
  0048b	81 31 ed ec eb
	ea		 xor	 DWORD PTR [ecx], -353637139 ; eaebecedH
  00491	83 c1 04	 add	 ecx, 4
  00494	4a		 dec	 edx
  00495	75 f4		 jne	 SHORT $LL104@encodeStri

; 217  : 		return e;
; 218  : 	}

  00497	5d		 pop	 ebp
  00498	c2 08 00	 ret	 8
??$encodeString@$0BF@@ioINILoader_e@@AAEPADAAY0BF@$$CBDPAD@Z ENDP ; ioINILoader_e::encodeString<21>
; Function compile flags: /Ogsp
_TEXT	ENDS
;	COMDAT ??_GioLobbyStage@@UAEPAXI@Z
_TEXT	SEGMENT
___flags$ = 8						; size = 4
??_GioLobbyStage@@UAEPAXI@Z PROC			; ioLobbyStage::`scalar deleting destructor', COMDAT
; _this$ = ecx
  00000	55		 push	 ebp
  00001	8b ec		 mov	 ebp, esp
  00003	56		 push	 esi
  00004	8b f1		 mov	 esi, ecx
  00006	e8 00 00 00 00	 call	 ??1ioLobbyStage@@UAE@XZ	; ioLobbyStage::~ioLobbyStage
  0000b	f6 45 08 01	 test	 BYTE PTR ___flags$[ebp], 1
  0000f	74 07		 je	 SHORT $LN1@scalar@2
  00011	56		 push	 esi
  00012	e8 00 00 00 00	 call	 ??3@YAXPAX@Z		; operator delete
  00017	59		 pop	 ecx
$LN1@scalar@2:
  00018	8b c6		 mov	 eax, esi
  0001a	5e		 pop	 esi
  0001b	5d		 pop	 ebp
  0001c	c2 04 00	 ret	 4
??_GioLobbyStage@@UAEPAXI@Z ENDP			; ioLobbyStage::`scalar deleting destructor'
_TEXT	ENDS
PUBLIC	??$?0$0BF@@ioINILoader_e@@QAE@AAY0BF@$$CBD_N@Z	; ioINILoader_e::ioINILoader_e<21>
EXTRN	__imp_??0ioINILoader@@QAE@PBD_N@Z:PROC
; Function compile flags: /Ogsp
;	COMDAT ??$?0$0BF@@ioINILoader_e@@QAE@AAY0BF@$$CBD_N@Z
_TEXT	SEGMENT
_fn$ = 8						; size = 4
_b$ = 12						; size = 1
??$?0$0BF@@ioINILoader_e@@QAE@AAY0BF@$$CBD_N@Z PROC	; ioINILoader_e::ioINILoader_e<21>, COMDAT
; _this$ = ecx

; 224  : 	{

  00000	55		 push	 ebp
  00001	8b ec		 mov	 ebp, esp
  00003	53		 push	 ebx
  00004	56		 push	 esi
  00005	8b f1		 mov	 esi, ecx
  00007	8b 4d 08	 mov	 ecx, DWORD PTR _fn$[ebp]
  0000a	8a 11		 mov	 dl, BYTE PTR [ecx]
  0000c	8d 86 50 03 00
	00		 lea	 eax, DWORD PTR [esi+848]
  00012	84 d2		 test	 dl, dl
  00014	0f 84 6a 04 00
	00		 je	 $LN99@ioINILoade
  0001a	80 f2 ed	 xor	 dl, -19			; ffffffedH
  0001d	88 10		 mov	 BYTE PTR [eax], dl
  0001f	8a 51 01	 mov	 dl, BYTE PTR [ecx+1]
  00022	84 d2		 test	 dl, dl
  00024	0f 84 54 04 00
	00		 je	 $LN98@ioINILoade
  0002a	80 f2 ec	 xor	 dl, -20			; ffffffecH
  0002d	88 50 01	 mov	 BYTE PTR [eax+1], dl
  00030	8a 51 02	 mov	 dl, BYTE PTR [ecx+2]
  00033	84 d2		 test	 dl, dl
  00035	0f 84 3d 04 00
	00		 je	 $LN97@ioINILoade
  0003b	b3 eb		 mov	 bl, -21			; ffffffebH
  0003d	32 d3		 xor	 dl, bl
  0003f	88 50 02	 mov	 BYTE PTR [eax+2], dl
  00042	8a 51 03	 mov	 dl, BYTE PTR [ecx+3]
  00045	84 d2		 test	 dl, dl
  00047	0f 84 25 04 00
	00		 je	 $LN96@ioINILoade
  0004d	80 f2 ea	 xor	 dl, -22			; ffffffeaH
  00050	88 50 03	 mov	 BYTE PTR [eax+3], dl
  00053	8a 51 04	 mov	 dl, BYTE PTR [ecx+4]
  00056	84 d2		 test	 dl, dl
  00058	0f 84 0e 04 00
	00		 je	 $LN95@ioINILoade
  0005e	80 f2 ed	 xor	 dl, -19			; ffffffedH
  00061	88 50 04	 mov	 BYTE PTR [eax+4], dl
  00064	8a 51 05	 mov	 dl, BYTE PTR [ecx+5]
  00067	84 d2		 test	 dl, dl
  00069	0f 84 f7 03 00
	00		 je	 $LN94@ioINILoade
  0006f	80 f2 ec	 xor	 dl, -20			; ffffffecH
  00072	88 50 05	 mov	 BYTE PTR [eax+5], dl
  00075	8a 51 06	 mov	 dl, BYTE PTR [ecx+6]
  00078	84 d2		 test	 dl, dl
  0007a	0f 84 e1 03 00
	00		 je	 $LN93@ioINILoade
  00080	32 d3		 xor	 dl, bl
  00082	88 50 06	 mov	 BYTE PTR [eax+6], dl
  00085	8a 51 07	 mov	 dl, BYTE PTR [ecx+7]
  00088	84 d2		 test	 dl, dl
  0008a	0f 84 cb 03 00
	00		 je	 $LN92@ioINILoade
  00090	80 f2 ea	 xor	 dl, -22			; ffffffeaH
  00093	88 50 07	 mov	 BYTE PTR [eax+7], dl
  00096	8a 51 08	 mov	 dl, BYTE PTR [ecx+8]
  00099	84 d2		 test	 dl, dl
  0009b	0f 84 b4 03 00
	00		 je	 $LN91@ioINILoade
  000a1	80 f2 ed	 xor	 dl, -19			; ffffffedH
  000a4	88 50 08	 mov	 BYTE PTR [eax+8], dl
  000a7	8a 51 09	 mov	 dl, BYTE PTR [ecx+9]
  000aa	84 d2		 test	 dl, dl
  000ac	0f 84 9d 03 00
	00		 je	 $LN90@ioINILoade
  000b2	80 f2 ec	 xor	 dl, -20			; ffffffecH
  000b5	88 50 09	 mov	 BYTE PTR [eax+9], dl
  000b8	8a 51 0a	 mov	 dl, BYTE PTR [ecx+10]
  000bb	84 d2		 test	 dl, dl
  000bd	0f 84 87 03 00
	00		 je	 $LN89@ioINILoade
  000c3	32 d3		 xor	 dl, bl
  000c5	88 50 0a	 mov	 BYTE PTR [eax+10], dl
  000c8	8a 51 0b	 mov	 dl, BYTE PTR [ecx+11]
  000cb	84 d2		 test	 dl, dl
  000cd	0f 84 71 03 00
	00		 je	 $LN88@ioINILoade
  000d3	80 f2 ea	 xor	 dl, -22			; ffffffeaH
  000d6	88 50 0b	 mov	 BYTE PTR [eax+11], dl
  000d9	8a 51 0c	 mov	 dl, BYTE PTR [ecx+12]
  000dc	84 d2		 test	 dl, dl
  000de	0f 84 5a 03 00
	00		 je	 $LN87@ioINILoade
  000e4	80 f2 ed	 xor	 dl, -19			; ffffffedH
  000e7	88 50 0c	 mov	 BYTE PTR [eax+12], dl
  000ea	8a 51 0d	 mov	 dl, BYTE PTR [ecx+13]
  000ed	84 d2		 test	 dl, dl
  000ef	0f 84 43 03 00
	00		 je	 $LN86@ioINILoade
  000f5	80 f2 ec	 xor	 dl, -20			; ffffffecH
  000f8	88 50 0d	 mov	 BYTE PTR [eax+13], dl
  000fb	8a 51 0e	 mov	 dl, BYTE PTR [ecx+14]
  000fe	84 d2		 test	 dl, dl
  00100	0f 84 2d 03 00
	00		 je	 $LN85@ioINILoade
  00106	32 d3		 xor	 dl, bl
  00108	88 50 0e	 mov	 BYTE PTR [eax+14], dl
  0010b	8a 51 0f	 mov	 dl, BYTE PTR [ecx+15]
  0010e	84 d2		 test	 dl, dl
  00110	0f 84 17 03 00
	00		 je	 $LN84@ioINILoade
  00116	80 f2 ea	 xor	 dl, -22			; ffffffeaH
  00119	88 50 0f	 mov	 BYTE PTR [eax+15], dl
  0011c	8a 51 10	 mov	 dl, BYTE PTR [ecx+16]
  0011f	84 d2		 test	 dl, dl
  00121	0f 84 00 03 00
	00		 je	 $LN83@ioINILoade
  00127	80 f2 ed	 xor	 dl, -19			; ffffffedH
  0012a	88 50 10	 mov	 BYTE PTR [eax+16], dl
  0012d	8a 51 11	 mov	 dl, BYTE PTR [ecx+17]
  00130	84 d2		 test	 dl, dl
  00132	0f 84 e9 02 00
	00		 je	 $LN82@ioINILoade
  00138	80 f2 ec	 xor	 dl, -20			; ffffffecH
  0013b	88 50 11	 mov	 BYTE PTR [eax+17], dl
  0013e	8a 51 12	 mov	 dl, BYTE PTR [ecx+18]
  00141	84 d2		 test	 dl, dl
  00143	0f 84 d3 02 00
	00		 je	 $LN81@ioINILoade
  00149	32 d3		 xor	 dl, bl
  0014b	88 50 12	 mov	 BYTE PTR [eax+18], dl
  0014e	8a 51 13	 mov	 dl, BYTE PTR [ecx+19]
  00151	84 d2		 test	 dl, dl
  00153	0f 84 bd 02 00
	00		 je	 $LN80@ioINILoade
  00159	80 f2 ea	 xor	 dl, -22			; ffffffeaH
  0015c	88 50 13	 mov	 BYTE PTR [eax+19], dl
  0015f	8a 51 14	 mov	 dl, BYTE PTR [ecx+20]
  00162	84 d2		 test	 dl, dl
  00164	0f 84 a6 02 00
	00		 je	 $LN79@ioINILoade
  0016a	80 f2 ed	 xor	 dl, -19			; ffffffedH
  0016d	88 50 14	 mov	 BYTE PTR [eax+20], dl
  00170	8a 51 15	 mov	 dl, BYTE PTR [ecx+21]
  00173	84 d2		 test	 dl, dl
  00175	0f 84 8f 02 00
	00		 je	 $LN78@ioINILoade
  0017b	80 f2 ec	 xor	 dl, -20			; ffffffecH
  0017e	88 50 15	 mov	 BYTE PTR [eax+21], dl
  00181	8a 51 16	 mov	 dl, BYTE PTR [ecx+22]
  00184	84 d2		 test	 dl, dl
  00186	0f 84 79 02 00
	00		 je	 $LN77@ioINILoade
  0018c	32 d3		 xor	 dl, bl
  0018e	88 50 16	 mov	 BYTE PTR [eax+22], dl
  00191	8a 51 17	 mov	 dl, BYTE PTR [ecx+23]
  00194	84 d2		 test	 dl, dl
  00196	0f 84 60 02 00
	00		 je	 $LN76@ioINILoade
  0019c	80 f2 ea	 xor	 dl, -22			; ffffffeaH
  0019f	88 50 17	 mov	 BYTE PTR [eax+23], dl
  001a2	8a 51 18	 mov	 dl, BYTE PTR [ecx+24]
  001a5	84 d2		 test	 dl, dl
  001a7	0f 84 46 02 00
	00		 je	 $LN75@ioINILoade
  001ad	80 f2 ed	 xor	 dl, -19			; ffffffedH
  001b0	88 50 18	 mov	 BYTE PTR [eax+24], dl
  001b3	8a 51 19	 mov	 dl, BYTE PTR [ecx+25]
  001b6	84 d2		 test	 dl, dl
  001b8	0f 84 2c 02 00
	00		 je	 $LN74@ioINILoade
  001be	80 f2 ec	 xor	 dl, -20			; ffffffecH
  001c1	88 50 19	 mov	 BYTE PTR [eax+25], dl
  001c4	8a 51 1a	 mov	 dl, BYTE PTR [ecx+26]
  001c7	84 d2		 test	 dl, dl
  001c9	0f 84 13 02 00
	00		 je	 $LN73@ioINILoade
  001cf	32 d3		 xor	 dl, bl
  001d1	88 50 1a	 mov	 BYTE PTR [eax+26], dl
  001d4	8a 51 1b	 mov	 dl, BYTE PTR [ecx+27]
  001d7	84 d2		 test	 dl, dl
  001d9	0f 84 fa 01 00
	00		 je	 $LN72@ioINILoade
  001df	80 f2 ea	 xor	 dl, -22			; ffffffeaH
  001e2	88 50 1b	 mov	 BYTE PTR [eax+27], dl
  001e5	8a 51 1c	 mov	 dl, BYTE PTR [ecx+28]
  001e8	84 d2		 test	 dl, dl
  001ea	0f 84 e0 01 00
	00		 je	 $LN71@ioINILoade
  001f0	80 f2 ed	 xor	 dl, -19			; ffffffedH
  001f3	88 50 1c	 mov	 BYTE PTR [eax+28], dl
  001f6	8a 51 1d	 mov	 dl, BYTE PTR [ecx+29]
  001f9	84 d2		 test	 dl, dl
  001fb	0f 84 c6 01 00
	00		 je	 $LN70@ioINILoade
  00201	80 f2 ec	 xor	 dl, -20			; ffffffecH
  00204	88 50 1d	 mov	 BYTE PTR [eax+29], dl
  00207	8a 51 1e	 mov	 dl, BYTE PTR [ecx+30]
  0020a	84 d2		 test	 dl, dl
  0020c	0f 84 ad 01 00
	00		 je	 $LN69@ioINILoade
  00212	32 d3		 xor	 dl, bl
  00214	88 50 1e	 mov	 BYTE PTR [eax+30], dl
  00217	8a 51 1f	 mov	 dl, BYTE PTR [ecx+31]
  0021a	84 d2		 test	 dl, dl
  0021c	0f 84 94 01 00
	00		 je	 $LN68@ioINILoade
  00222	80 f2 ea	 xor	 dl, -22			; ffffffeaH
  00225	88 50 1f	 mov	 BYTE PTR [eax+31], dl
  00228	8a 51 20	 mov	 dl, BYTE PTR [ecx+32]
  0022b	84 d2		 test	 dl, dl
  0022d	0f 84 7a 01 00
	00		 je	 $LN67@ioINILoade
  00233	80 f2 ed	 xor	 dl, -19			; ffffffedH
  00236	88 50 20	 mov	 BYTE PTR [eax+32], dl
  00239	8a 51 21	 mov	 dl, BYTE PTR [ecx+33]
  0023c	84 d2		 test	 dl, dl
  0023e	0f 84 60 01 00
	00		 je	 $LN66@ioINILoade
  00244	80 f2 ec	 xor	 dl, -20			; ffffffecH
  00247	88 50 21	 mov	 BYTE PTR [eax+33], dl
  0024a	8a 51 22	 mov	 dl, BYTE PTR [ecx+34]
  0024d	84 d2		 test	 dl, dl
  0024f	0f 84 47 01 00
	00		 je	 $LN65@ioINILoade
  00255	32 d3		 xor	 dl, bl
  00257	88 50 22	 mov	 BYTE PTR [eax+34], dl
  0025a	8a 51 23	 mov	 dl, BYTE PTR [ecx+35]
  0025d	84 d2		 test	 dl, dl
  0025f	0f 84 2e 01 00
	00		 je	 $LN64@ioINILoade
  00265	80 f2 ea	 xor	 dl, -22			; ffffffeaH
  00268	88 50 23	 mov	 BYTE PTR [eax+35], dl
  0026b	8a 51 24	 mov	 dl, BYTE PTR [ecx+36]
  0026e	84 d2		 test	 dl, dl
  00270	0f 84 14 01 00
	00		 je	 $LN63@ioINILoade
  00276	80 f2 ed	 xor	 dl, -19			; ffffffedH
  00279	88 50 24	 mov	 BYTE PTR [eax+36], dl
  0027c	8a 51 25	 mov	 dl, BYTE PTR [ecx+37]
  0027f	84 d2		 test	 dl, dl
  00281	0f 84 fa 00 00
	00		 je	 $LN62@ioINILoade
  00287	80 f2 ec	 xor	 dl, -20			; ffffffecH
  0028a	88 50 25	 mov	 BYTE PTR [eax+37], dl
  0028d	8a 51 26	 mov	 dl, BYTE PTR [ecx+38]
  00290	84 d2		 test	 dl, dl
  00292	0f 84 e1 00 00
	00		 je	 $LN61@ioINILoade
  00298	32 d3		 xor	 dl, bl
  0029a	88 50 26	 mov	 BYTE PTR [eax+38], dl
  0029d	8a 51 27	 mov	 dl, BYTE PTR [ecx+39]
  002a0	84 d2		 test	 dl, dl
  002a2	0f 84 c8 00 00
	00		 je	 $LN60@ioINILoade
  002a8	80 f2 ea	 xor	 dl, -22			; ffffffeaH
  002ab	88 50 27	 mov	 BYTE PTR [eax+39], dl
  002ae	8a 51 28	 mov	 dl, BYTE PTR [ecx+40]
  002b1	84 d2		 test	 dl, dl
  002b3	0f 84 ae 00 00
	00		 je	 $LN59@ioINILoade
  002b9	80 f2 ed	 xor	 dl, -19			; ffffffedH
  002bc	88 50 28	 mov	 BYTE PTR [eax+40], dl
  002bf	8a 51 29	 mov	 dl, BYTE PTR [ecx+41]
  002c2	84 d2		 test	 dl, dl
  002c4	0f 84 94 00 00
	00		 je	 $LN58@ioINILoade
  002ca	80 f2 ec	 xor	 dl, -20			; ffffffecH
  002cd	88 50 29	 mov	 BYTE PTR [eax+41], dl
  002d0	8a 51 2a	 mov	 dl, BYTE PTR [ecx+42]
  002d3	84 d2		 test	 dl, dl
  002d5	74 7f		 je	 SHORT $LN57@ioINILoade
  002d7	32 d3		 xor	 dl, bl
  002d9	88 50 2a	 mov	 BYTE PTR [eax+42], dl
  002dc	8a 51 2b	 mov	 dl, BYTE PTR [ecx+43]
  002df	84 d2		 test	 dl, dl
  002e1	74 6a		 je	 SHORT $LN56@ioINILoade
  002e3	80 f2 ea	 xor	 dl, -22			; ffffffeaH
  002e6	88 50 2b	 mov	 BYTE PTR [eax+43], dl
  002e9	8a 51 2c	 mov	 dl, BYTE PTR [ecx+44]
  002ec	84 d2		 test	 dl, dl
  002ee	74 54		 je	 SHORT $LN55@ioINILoade
  002f0	80 f2 ed	 xor	 dl, -19			; ffffffedH
  002f3	88 50 2c	 mov	 BYTE PTR [eax+44], dl
  002f6	8a 51 2d	 mov	 dl, BYTE PTR [ecx+45]
  002f9	84 d2		 test	 dl, dl
  002fb	74 3e		 je	 SHORT $LN54@ioINILoade
  002fd	80 f2 ec	 xor	 dl, -20			; ffffffecH
  00300	88 50 2d	 mov	 BYTE PTR [eax+45], dl
  00303	8a 51 2e	 mov	 dl, BYTE PTR [ecx+46]
  00306	84 d2		 test	 dl, dl
  00308	74 29		 je	 SHORT $LN53@ioINILoade
  0030a	32 d3		 xor	 dl, bl
  0030c	88 50 2e	 mov	 BYTE PTR [eax+46], dl
  0030f	8a 51 2f	 mov	 dl, BYTE PTR [ecx+47]
  00312	84 d2		 test	 dl, dl
  00314	74 14		 je	 SHORT $LN52@ioINILoade
  00316	80 f2 ea	 xor	 dl, -22			; ffffffeaH
  00319	88 50 2f	 mov	 BYTE PTR [eax+47], dl
  0031c	8a 49 30	 mov	 cl, BYTE PTR [ecx+48]
  0031f	80 f1 ed	 xor	 cl, -19			; ffffffedH
  00322	88 48 30	 mov	 BYTE PTR [eax+48], cl
  00325	e9 5d 01 00 00	 jmp	 $LN4@ioINILoade
$LN52@ioINILoade:
  0032a	c6 40 2f ea	 mov	 BYTE PTR [eax+47], -22	; ffffffeaH
  0032e	e9 54 01 00 00	 jmp	 $LN4@ioINILoade
$LN53@ioINILoade:
  00333	88 58 2e	 mov	 BYTE PTR [eax+46], bl
  00336	e9 4c 01 00 00	 jmp	 $LN4@ioINILoade
$LN54@ioINILoade:
  0033b	c6 40 2d ec	 mov	 BYTE PTR [eax+45], -20	; ffffffecH
  0033f	e9 43 01 00 00	 jmp	 $LN4@ioINILoade
$LN55@ioINILoade:
  00344	c6 40 2c ed	 mov	 BYTE PTR [eax+44], -19	; ffffffedH
  00348	e9 3a 01 00 00	 jmp	 $LN4@ioINILoade
$LN56@ioINILoade:
  0034d	c6 40 2b ea	 mov	 BYTE PTR [eax+43], -22	; ffffffeaH
  00351	e9 31 01 00 00	 jmp	 $LN4@ioINILoade
$LN57@ioINILoade:
  00356	88 58 2a	 mov	 BYTE PTR [eax+42], bl
  00359	e9 29 01 00 00	 jmp	 $LN4@ioINILoade
$LN58@ioINILoade:
  0035e	c6 40 29 ec	 mov	 BYTE PTR [eax+41], -20	; ffffffecH
  00362	e9 20 01 00 00	 jmp	 $LN4@ioINILoade
$LN59@ioINILoade:
  00367	c6 40 28 ed	 mov	 BYTE PTR [eax+40], -19	; ffffffedH
  0036b	e9 17 01 00 00	 jmp	 $LN4@ioINILoade
$LN60@ioINILoade:
  00370	c6 40 27 ea	 mov	 BYTE PTR [eax+39], -22	; ffffffeaH
  00374	e9 0e 01 00 00	 jmp	 $LN4@ioINILoade
$LN61@ioINILoade:
  00379	88 58 26	 mov	 BYTE PTR [eax+38], bl
  0037c	e9 06 01 00 00	 jmp	 $LN4@ioINILoade
$LN62@ioINILoade:
  00381	c6 40 25 ec	 mov	 BYTE PTR [eax+37], -20	; ffffffecH
  00385	e9 fd 00 00 00	 jmp	 $LN4@ioINILoade
$LN63@ioINILoade:
  0038a	c6 40 24 ed	 mov	 BYTE PTR [eax+36], -19	; ffffffedH
  0038e	e9 f4 00 00 00	 jmp	 $LN4@ioINILoade
$LN64@ioINILoade:
  00393	c6 40 23 ea	 mov	 BYTE PTR [eax+35], -22	; ffffffeaH
  00397	e9 eb 00 00 00	 jmp	 $LN4@ioINILoade
$LN65@ioINILoade:
  0039c	88 58 22	 mov	 BYTE PTR [eax+34], bl
  0039f	e9 e3 00 00 00	 jmp	 $LN4@ioINILoade
$LN66@ioINILoade:
  003a4	c6 40 21 ec	 mov	 BYTE PTR [eax+33], -20	; ffffffecH
  003a8	e9 da 00 00 00	 jmp	 $LN4@ioINILoade
$LN67@ioINILoade:
  003ad	c6 40 20 ed	 mov	 BYTE PTR [eax+32], -19	; ffffffedH
  003b1	e9 d1 00 00 00	 jmp	 $LN4@ioINILoade
$LN68@ioINILoade:
  003b6	c6 40 1f ea	 mov	 BYTE PTR [eax+31], -22	; ffffffeaH
  003ba	e9 c8 00 00 00	 jmp	 $LN4@ioINILoade
$LN69@ioINILoade:
  003bf	88 58 1e	 mov	 BYTE PTR [eax+30], bl
  003c2	e9 c0 00 00 00	 jmp	 $LN4@ioINILoade
$LN70@ioINILoade:
  003c7	c6 40 1d ec	 mov	 BYTE PTR [eax+29], -20	; ffffffecH
  003cb	e9 b7 00 00 00	 jmp	 $LN4@ioINILoade
$LN71@ioINILoade:
  003d0	c6 40 1c ed	 mov	 BYTE PTR [eax+28], -19	; ffffffedH
  003d4	e9 ae 00 00 00	 jmp	 $LN4@ioINILoade
$LN72@ioINILoade:
  003d9	c6 40 1b ea	 mov	 BYTE PTR [eax+27], -22	; ffffffeaH
  003dd	e9 a5 00 00 00	 jmp	 $LN4@ioINILoade
$LN73@ioINILoade:
  003e2	88 58 1a	 mov	 BYTE PTR [eax+26], bl
  003e5	e9 9d 00 00 00	 jmp	 $LN4@ioINILoade
$LN74@ioINILoade:
  003ea	c6 40 19 ec	 mov	 BYTE PTR [eax+25], -20	; ffffffecH
  003ee	e9 94 00 00 00	 jmp	 $LN4@ioINILoade
$LN75@ioINILoade:
  003f3	c6 40 18 ed	 mov	 BYTE PTR [eax+24], -19	; ffffffedH
  003f7	e9 8b 00 00 00	 jmp	 $LN4@ioINILoade
$LN76@ioINILoade:
  003fc	c6 40 17 ea	 mov	 BYTE PTR [eax+23], -22	; ffffffeaH
  00400	e9 82 00 00 00	 jmp	 $LN4@ioINILoade
$LN77@ioINILoade:
  00405	88 58 16	 mov	 BYTE PTR [eax+22], bl
  00408	eb 7d		 jmp	 SHORT $LN4@ioINILoade
$LN78@ioINILoade:
  0040a	c6 40 15 ec	 mov	 BYTE PTR [eax+21], -20	; ffffffecH
  0040e	eb 77		 jmp	 SHORT $LN4@ioINILoade
$LN79@ioINILoade:
  00410	c6 40 14 ed	 mov	 BYTE PTR [eax+20], -19	; ffffffedH
  00414	eb 71		 jmp	 SHORT $LN4@ioINILoade
$LN80@ioINILoade:
  00416	c6 40 13 ea	 mov	 BYTE PTR [eax+19], -22	; ffffffeaH
  0041a	eb 6b		 jmp	 SHORT $LN4@ioINILoade
$LN81@ioINILoade:
  0041c	88 58 12	 mov	 BYTE PTR [eax+18], bl
  0041f	eb 66		 jmp	 SHORT $LN4@ioINILoade
$LN82@ioINILoade:
  00421	c6 40 11 ec	 mov	 BYTE PTR [eax+17], -20	; ffffffecH
  00425	eb 60		 jmp	 SHORT $LN4@ioINILoade
$LN83@ioINILoade:
  00427	c6 40 10 ed	 mov	 BYTE PTR [eax+16], -19	; ffffffedH
  0042b	eb 5a		 jmp	 SHORT $LN4@ioINILoade
$LN84@ioINILoade:
  0042d	c6 40 0f ea	 mov	 BYTE PTR [eax+15], -22	; ffffffeaH
  00431	eb 54		 jmp	 SHORT $LN4@ioINILoade
$LN85@ioINILoade:
  00433	88 58 0e	 mov	 BYTE PTR [eax+14], bl
  00436	eb 4f		 jmp	 SHORT $LN4@ioINILoade
$LN86@ioINILoade:
  00438	c6 40 0d ec	 mov	 BYTE PTR [eax+13], -20	; ffffffecH
  0043c	eb 49		 jmp	 SHORT $LN4@ioINILoade
$LN87@ioINILoade:
  0043e	c6 40 0c ed	 mov	 BYTE PTR [eax+12], -19	; ffffffedH
  00442	eb 43		 jmp	 SHORT $LN4@ioINILoade
$LN88@ioINILoade:
  00444	c6 40 0b ea	 mov	 BYTE PTR [eax+11], -22	; ffffffeaH
  00448	eb 3d		 jmp	 SHORT $LN4@ioINILoade
$LN89@ioINILoade:
  0044a	88 58 0a	 mov	 BYTE PTR [eax+10], bl
  0044d	eb 38		 jmp	 SHORT $LN4@ioINILoade
$LN90@ioINILoade:
  0044f	c6 40 09 ec	 mov	 BYTE PTR [eax+9], -20	; ffffffecH
  00453	eb 32		 jmp	 SHORT $LN4@ioINILoade
$LN91@ioINILoade:
  00455	c6 40 08 ed	 mov	 BYTE PTR [eax+8], -19	; ffffffedH
  00459	eb 2c		 jmp	 SHORT $LN4@ioINILoade
$LN92@ioINILoade:
  0045b	c6 40 07 ea	 mov	 BYTE PTR [eax+7], -22	; ffffffeaH
  0045f	eb 26		 jmp	 SHORT $LN4@ioINILoade
$LN93@ioINILoade:
  00461	88 58 06	 mov	 BYTE PTR [eax+6], bl
  00464	eb 21		 jmp	 SHORT $LN4@ioINILoade
$LN94@ioINILoade:
  00466	c6 40 05 ec	 mov	 BYTE PTR [eax+5], -20	; ffffffecH
  0046a	eb 1b		 jmp	 SHORT $LN4@ioINILoade
$LN95@ioINILoade:
  0046c	c6 40 04 ed	 mov	 BYTE PTR [eax+4], -19	; ffffffedH
  00470	eb 15		 jmp	 SHORT $LN4@ioINILoade
$LN96@ioINILoade:
  00472	c6 40 03 ea	 mov	 BYTE PTR [eax+3], -22	; ffffffeaH
  00476	eb 0f		 jmp	 SHORT $LN4@ioINILoade
$LN97@ioINILoade:
  00478	c6 40 02 eb	 mov	 BYTE PTR [eax+2], -21	; ffffffebH
  0047c	eb 09		 jmp	 SHORT $LN4@ioINILoade
$LN98@ioINILoade:
  0047e	c6 40 01 ec	 mov	 BYTE PTR [eax+1], -20	; ffffffecH
  00482	eb 03		 jmp	 SHORT $LN4@ioINILoade
$LN99@ioINILoade:
  00484	c6 00 ed	 mov	 BYTE PTR [eax], -19	; ffffffedH
$LN4@ioINILoade:
  00487	6a 05		 push	 5
  00489	8b c8		 mov	 ecx, eax
  0048b	c6 40 14 00	 mov	 BYTE PTR [eax+20], 0
  0048f	5a		 pop	 edx
$LL107@ioINILoade:
  00490	81 31 ed ec eb
	ea		 xor	 DWORD PTR [ecx], -353637139 ; eaebecedH
  00496	83 c1 04	 add	 ecx, 4
  00499	4a		 dec	 edx
  0049a	75 f4		 jne	 SHORT $LL107@ioINILoade
  0049c	ff 75 0c	 push	 DWORD PTR _b$[ebp]
  0049f	8b ce		 mov	 ecx, esi
  004a1	50		 push	 eax
  004a2	ff 15 00 00 00
	00		 call	 DWORD PTR __imp_??0ioINILoader@@QAE@PBD_N@Z

; 225  : 	}

  004a8	8b c6		 mov	 eax, esi
  004aa	5e		 pop	 esi
  004ab	5b		 pop	 ebx
  004ac	5d		 pop	 ebp
  004ad	c2 08 00	 ret	 8
??$?0$0BF@@ioINILoader_e@@QAE@AAY0BF@$$CBD_N@Z ENDP	; ioINILoader_e::ioINILoader_e<21>
_TEXT	ENDS
PUBLIC	??_C@_0BB@CPGJMDHL@Resource?1wave?1?$CFs?$AA@	; `string'
PUBLIC	_this$GSCopy$
EXTRN	__imp_??4ioHashString@@QAEAAV0@PBD@Z:PROC
EXTRN	__imp__wsprintfA:PROC
EXTRN	?Initialize@ioAbuseManager@@QAEXXZ:PROC		; ioAbuseManager::Initialize
EXTRN	?ClearCharJoinedInfo@ioMyInfo@@QAEXXZ:PROC	; ioMyInfo::ClearCharJoinedInfo
EXTRN	?ClearCharDiedPenaltyInfo@ioMyInfo@@QAEXXZ:PROC	; ioMyInfo::ClearCharDiedPenaltyInfo
EXTRN	?ClearCharDiedInfo@ioMyInfo@@QAEXXZ:PROC	; ioMyInfo::ClearCharDiedInfo
;	COMDAT ??_C@_0BB@CPGJMDHL@Resource?1wave?1?$CFs?$AA@
; File d:\lost saga for developer\youtube\tutorial\source\src\lsclient\iolobbystage.cpp
CONST	SEGMENT
??_C@_0BB@CPGJMDHL@Resource?1wave?1?$CFs?$AA@ DB 'Resource/wave/%s', 00H ; `string'
CONST	ENDS
;	COMDAT xdata$x
xdata$x	SEGMENT
__unwindtable$?InitStage@ioLobbyStage@@UAE_NXZ DD 0ffffffffH
	DD	FLAT:__unwindfunclet$?InitStage@ioLobbyStage@@UAE_NXZ$0
__ehfuncinfo$?InitStage@ioLobbyStage@@UAE_NXZ DD 019930522H
	DD	01H
	DD	FLAT:__unwindtable$?InitStage@ioLobbyStage@@UAE_NXZ
	DD	2 DUP(00H)
	DD	2 DUP(00H)
	DD	00H
	DD	01H
; Function compile flags: /Ogsp
xdata$x	ENDS
;	COMDAT ?InitStage@ioLobbyStage@@UAE_NXZ
_TEXT	SEGMENT
_this$GSCopy$ = -1472					; size = 4
_kLoader$ = -1468					; size = 912
_szName$ = -556						; size = 260
_szBuf$ = -296						; size = 260
__t$507507 = -36					; size = 16
__k$507632 = -32					; size = 12
__$EHRec$ = -12						; size = 12
?InitStage@ioLobbyStage@@UAE_NXZ PROC			; ioLobbyStage::InitStage, COMDAT
; _this$ = ecx

; 25   : {	

  00000	68 b4 05 00 00	 push	 1460			; 000005b4H
  00005	b8 00 00 00 00	 mov	 eax, __ehhandler$?InitStage@ioLobbyStage@@UAE_NXZ
  0000a	e8 00 00 00 00	 call	 __EH_prolog3_GS
  0000f	89 8d 40 fa ff
	ff		 mov	 DWORD PTR _this$GSCopy$[ebp], ecx

; 26   : 	InitGUI();

  00015	e8 00 00 00 00	 call	 ?InitGUI@ioLobbyStage@@IAEXXZ ; ioLobbyStage::InitGUI

; 27   : 	InitCameraController();

  0001a	8b 8d 40 fa ff
	ff		 mov	 ecx, DWORD PTR _this$GSCopy$[ebp]
  00020	e8 00 00 00 00	 call	 ?InitCameraController@ioLobbyStage@@IAEXXZ ; ioLobbyStage::InitCameraController

; 28   : 
; 29   : 	g_MyInfo.ClearCharDiedInfo();

  00025	e8 00 00 00 00	 call	 ?GetSingleton@ioMyInfo@@SAAAV1@XZ ; ioMyInfo::GetSingleton
  0002a	8b c8		 mov	 ecx, eax
  0002c	e8 00 00 00 00	 call	 ?ClearCharDiedInfo@ioMyInfo@@QAEXXZ ; ioMyInfo::ClearCharDiedInfo

; 30   : 	g_MyInfo.ClearCharDiedPenaltyInfo();

  00031	e8 00 00 00 00	 call	 ?GetSingleton@ioMyInfo@@SAAAV1@XZ ; ioMyInfo::GetSingleton
  00036	8b c8		 mov	 ecx, eax
  00038	e8 00 00 00 00	 call	 ?ClearCharDiedPenaltyInfo@ioMyInfo@@QAEXXZ ; ioMyInfo::ClearCharDiedPenaltyInfo

; 31   : 	g_MyInfo.ClearCharJoinedInfo();

  0003d	e8 00 00 00 00	 call	 ?GetSingleton@ioMyInfo@@SAAAV1@XZ ; ioMyInfo::GetSingleton
  00042	8b c8		 mov	 ecx, eax
  00044	e8 00 00 00 00	 call	 ?ClearCharJoinedInfo@ioMyInfo@@QAEXXZ ; ioMyInfo::ClearCharJoinedInfo

; 32   : 
; 33   : 	g_AbuseMgr.Initialize();

  00049	e8 00 00 00 00	 call	 ?GetSingleton@ioAbuseManager@@SAAAV1@XZ ; ioAbuseManager::GetSingleton
  0004e	8b c8		 mov	 ecx, eax
  00050	e8 00 00 00 00	 call	 ?Initialize@ioAbuseManager@@QAEXXZ ; ioAbuseManager::Initialize

; 34   : 
; 35   : 	ioINILoader_e kLoader( "config/sp2_sound.ini" );

  00055	6a 05		 push	 5
  00057	c7 85 94 fd ff
	ff 8e 83 85 8c	 mov	 DWORD PTR _kLoader$[ebp+848], -1937407090 ; 8c85838eH
  00061	c7 85 98 fd ff
	ff 84 8b c4 99	 mov	 DWORD PTR _kLoader$[ebp+852], -1715172476 ; 99c48b84H
  0006b	c7 85 9c fd ff
	ff 9d de b4 99	 mov	 DWORD PTR _kLoader$[ebp+856], -1716199779 ; 99b4de9dH
  00075	c7 85 a0 fd ff
	ff 82 99 85 8e	 mov	 DWORD PTR _kLoader$[ebp+860], -1903847038 ; 8e859982H
  0007f	c7 85 a4 fd ff
	ff c3 85 85 83	 mov	 DWORD PTR _kLoader$[ebp+864], -2088401469 ; 838585c3H
  00089	8d 85 94 fd ff
	ff		 lea	 eax, DWORD PTR _kLoader$[ebp+848]
  0008f	c6 85 a8 fd ff
	ff 00		 mov	 BYTE PTR _kLoader$[ebp+868], 0
  00096	59		 pop	 ecx
  00097	be ed ec eb ea	 mov	 esi, -353637139		; eaebecedH
$LL110@InitStage:
  0009c	31 30		 xor	 DWORD PTR [eax], esi
  0009e	83 c0 04	 add	 eax, 4
  000a1	49		 dec	 ecx
  000a2	75 f8		 jne	 SHORT $LL110@InitStage
  000a4	6a 01		 push	 1
  000a6	8d 85 94 fd ff
	ff		 lea	 eax, DWORD PTR _kLoader$[ebp+848]
  000ac	50		 push	 eax
  000ad	8d 8d 44 fa ff
	ff		 lea	 ecx, DWORD PTR _kLoader$[ebp]
  000b3	ff 15 00 00 00
	00		 call	 DWORD PTR __imp_??0ioINILoader@@QAE@PBD_N@Z
  000b9	83 65 fc 00	 and	 DWORD PTR __$EHRec$[ebp+8], 0
  000bd	6a 03		 push	 3

; 36   : 	kLoader.SetTitle_e( "sound_file_name" );

  000bf	c7 45 dc 9e 83
	9e 84		 mov	 DWORD PTR __t$507507[ebp], -2069986402 ; 849e839eH
  000c6	c7 45 e0 89 b3
	8d 83		 mov	 DWORD PTR __t$507507[ebp+4], -2087865463 ; 838db389H
  000cd	c7 45 e4 81 89
	b4 84		 mov	 DWORD PTR __t$507507[ebp+8], -2068543103 ; 84b48981H
  000d4	8d 45 dc	 lea	 eax, DWORD PTR __t$507507[ebp]
  000d7	c7 45 e8 8c 81
	8e 00		 mov	 DWORD PTR __t$507507[ebp+12], 9339276 ; 008e818cH
  000de	59		 pop	 ecx
$LL216@InitStage:
  000df	31 30		 xor	 DWORD PTR [eax], esi
  000e1	83 c0 04	 add	 eax, 4
  000e4	49		 dec	 ecx
  000e5	75 f8		 jne	 SHORT $LL216@InitStage
  000e7	6a 0c		 push	 12			; 0000000cH
  000e9	5f		 pop	 edi
$LL213@InitStage:
  000ea	8b c7		 mov	 eax, edi
  000ec	25 03 00 00 80	 and	 eax, -2147483645	; 80000003H
  000f1	79 05		 jns	 SHORT $LN341@InitStage
  000f3	48		 dec	 eax
  000f4	83 c8 fc	 or	 eax, -4			; fffffffcH
  000f7	40		 inc	 eax
$LN341@InitStage:
  000f8	b1 ed		 mov	 cl, -19			; ffffffedH
  000fa	2a c8		 sub	 cl, al
  000fc	30 4c 3d dc	 xor	 BYTE PTR __t$507507[ebp+edi], cl
  00100	47		 inc	 edi
  00101	83 ff 0f	 cmp	 edi, 15			; 0000000fH
  00104	7c e4		 jl	 SHORT $LL213@InitStage
  00106	8d 45 dc	 lea	 eax, DWORD PTR __t$507507[ebp]
  00109	50		 push	 eax
  0010a	8d 8d 44 fa ff
	ff		 lea	 ecx, DWORD PTR _kLoader$[ebp]
  00110	ff 15 00 00 00
	00		 call	 DWORD PTR __imp_?SetTitle@ioINILoader@@QAEXPBD@Z
  00116	6a 02		 push	 2

; 37   : 
; 38   : 	char szBuf[MAX_PATH], szName[MAX_PATH];
; 39   : 	kLoader.LoadString_e( "lobby_sound", "", szBuf, MAX_PATH );

  00118	c7 45 e0 81 83
	89 88		 mov	 DWORD PTR __k$507632[ebp], -2004253823 ; 88898381H
  0011f	c7 45 e4 94 b3
	98 85		 mov	 DWORD PTR __k$507632[ebp+4], -2053590124 ; 8598b394H
  00126	8d 45 e0	 lea	 eax, DWORD PTR __k$507632[ebp]
  00129	c7 45 e8 98 82
	8f 00		 mov	 DWORD PTR __k$507632[ebp+8], 9405080 ; 008f8298H
  00130	59		 pop	 ecx
$LL322@InitStage:
  00131	31 30		 xor	 DWORD PTR [eax], esi
  00133	83 c0 04	 add	 eax, 4
  00136	49		 dec	 ecx
  00137	75 f8		 jne	 SHORT $LL322@InitStage
  00139	6a 08		 push	 8
  0013b	58		 pop	 eax
$LL319@InitStage:
  0013c	8b c8		 mov	 ecx, eax
  0013e	81 e1 03 00 00
	80		 and	 ecx, -2147483645	; 80000003H
  00144	79 05		 jns	 SHORT $LN342@InitStage
  00146	49		 dec	 ecx
  00147	83 c9 fc	 or	 ecx, -4			; fffffffcH
  0014a	41		 inc	 ecx
$LN342@InitStage:
  0014b	b2 ed		 mov	 dl, -19			; ffffffedH
  0014d	2a d1		 sub	 dl, cl
  0014f	30 54 05 e0	 xor	 BYTE PTR __k$507632[ebp+eax], dl
  00153	40		 inc	 eax
  00154	83 f8 0b	 cmp	 eax, 11			; 0000000bH
  00157	7c e3		 jl	 SHORT $LL319@InitStage
  00159	68 04 01 00 00	 push	 260			; 00000104H
  0015e	8d 85 d8 fe ff
	ff		 lea	 eax, DWORD PTR _szBuf$[ebp]
  00164	50		 push	 eax
  00165	68 00 00 00 00	 push	 OFFSET ??_C@_00CNPNBAHC@?$AA@
  0016a	8d 45 e0	 lea	 eax, DWORD PTR __k$507632[ebp]
  0016d	50		 push	 eax
  0016e	8d 8d 44 fa ff
	ff		 lea	 ecx, DWORD PTR _kLoader$[ebp]
  00174	ff 15 00 00 00
	00		 call	 DWORD PTR __imp_?LoadStringA@ioINILoader@@QAEXPBD0PADH@Z

; 40   : 
; 41   : 	wsprintf( szName, "Resource/wave/%s", szBuf );

  0017a	8d 85 d8 fe ff
	ff		 lea	 eax, DWORD PTR _szBuf$[ebp]
  00180	50		 push	 eax
  00181	8d 85 d4 fd ff
	ff		 lea	 eax, DWORD PTR _szName$[ebp]
  00187	68 00 00 00 00	 push	 OFFSET ??_C@_0BB@CPGJMDHL@Resource?1wave?1?$CFs?$AA@
  0018c	50		 push	 eax
  0018d	ff 15 00 00 00
	00		 call	 DWORD PTR __imp__wsprintfA

; 42   : 	m_LobbySound = szName;

  00193	8b 8d 40 fa ff
	ff		 mov	 ecx, DWORD PTR _this$GSCopy$[ebp]
  00199	83 c4 0c	 add	 esp, 12			; 0000000cH
  0019c	8d 85 d4 fd ff
	ff		 lea	 eax, DWORD PTR _szName$[ebp]
  001a2	50		 push	 eax
  001a3	83 c1 08	 add	 ecx, 8
  001a6	ff 15 00 00 00
	00		 call	 DWORD PTR __imp_??4ioHashString@@QAEAAV0@PBD@Z

; 43   : 
; 44   : 	return true;

  001ac	83 4d fc ff	 or	 DWORD PTR __$EHRec$[ebp+8], -1
  001b0	8d 8d 44 fa ff
	ff		 lea	 ecx, DWORD PTR _kLoader$[ebp]
  001b6	ff 15 00 00 00
	00		 call	 DWORD PTR __imp_??1ioINILoader@@QAE@XZ
  001bc	b0 01		 mov	 al, 1

; 45   : }

  001be	e8 00 00 00 00	 call	 __EH_epilog3_GS
  001c3	c3		 ret	 0
_TEXT	ENDS
;	COMDAT text$x
text$x	SEGMENT
__unwindfunclet$?InitStage@ioLobbyStage@@UAE_NXZ$0:
  00000	8d 8d 44 fa ff
	ff		 lea	 ecx, DWORD PTR _kLoader$[ebp]
  00006	e9 00 00 00 00	 jmp	 ??1ioINILoader_e@@QAE@XZ
__ehhandler$?InitStage@ioLobbyStage@@UAE_NXZ:
  0000b	8b 54 24 08	 mov	 edx, DWORD PTR [esp+8]
  0000f	8d 42 0c	 lea	 eax, DWORD PTR [edx+12]
  00012	8b 8a 3c fa ff
	ff		 mov	 ecx, DWORD PTR [edx-1476]
  00018	33 c8		 xor	 ecx, eax
  0001a	e8 00 00 00 00	 call	 @__security_check_cookie@4
  0001f	8b 4a fc	 mov	 ecx, DWORD PTR [edx-4]
  00022	33 c8		 xor	 ecx, eax
  00024	e8 00 00 00 00	 call	 @__security_check_cookie@4
  00029	b8 00 00 00 00	 mov	 eax, OFFSET __ehfuncinfo$?InitStage@ioLobbyStage@@UAE_NXZ
  0002e	e9 00 00 00 00	 jmp	 ___CxxFrameHandler3
text$x	ENDS
?InitStage@ioLobbyStage@@UAE_NXZ ENDP			; ioLobbyStage::InitStage
END
