; Listing generated by Microsoft (R) Optimizing Compiler Version 16.00.30319.01 

	TITLE	D:\Lost Saga For Developer\Youtube\Tutorial\Source\src\LSClient\ioLobeliaWeapon.cpp
	.686P
	.XMM
	include listing.inc
	.model	flat

INCLUDELIB MSVCRT
INCLUDELIB OLDNAMES

PUBLIC	?_EEM_DS@?$deque@UD3DXVECTOR3@@V?$allocator@UD3DXVECTOR3@@@std@@@std@@2HB ; std::deque<D3DXVECTOR3,std::allocator<D3DXVECTOR3> >::_EEM_DS
PUBLIC	?m_ActionStopType@ioLobeliaWeapon@@2W4ActionStopType@@A ; ioLobeliaWeapon::m_ActionStopType
PUBLIC	?m_DieActionStopType@ioLobeliaWeapon@@2W4ActionStopType@@A ; ioLobeliaWeapon::m_DieActionStopType
_BSS	SEGMENT
?m_ActionStopType@ioLobeliaWeapon@@2W4ActionStopType@@A DD 01H DUP (?) ; ioLobeliaWeapon::m_ActionStopType
?m_DieActionStopType@ioLobeliaWeapon@@2W4ActionStopType@@A DD 01H DUP (?) ; ioLobeliaWeapon::m_DieActionStopType
_BSS	ENDS
;	COMDAT ?_EEM_DS@?$deque@UD3DXVECTOR3@@V?$allocator@UD3DXVECTOR3@@@std@@@std@@2HB
CONST	SEGMENT
?_EEM_DS@?$deque@UD3DXVECTOR3@@V?$allocator@UD3DXVECTOR3@@@std@@@std@@2HB DD 01H ; std::deque<D3DXVECTOR3,std::allocator<D3DXVECTOR3> >::_EEM_DS
CONST	ENDS
PUBLIC	?return1@@YAIXZ					; return1
; Function compile flags: /Ogsp
; File d:\lost saga for developer\youtube\tutorial\source\src\lsclient\stdafx.h
;	COMDAT ?return1@@YAIXZ
_TEXT	SEGMENT
?return1@@YAIXZ PROC					; return1, COMDAT

; 17   : 	__forceinline unsigned int return1() { __asm mov eax, 1 };

  00000	b8 01 00 00 00	 mov	 eax, 1
  00005	c3		 ret	 0
?return1@@YAIXZ ENDP					; return1
_TEXT	ENDS
PUBLIC	?return5@@YAIXZ					; return5
; Function compile flags: /Ogsp
;	COMDAT ?return5@@YAIXZ
_TEXT	SEGMENT
?return5@@YAIXZ PROC					; return5, COMDAT

; 18   : 	__forceinline unsigned int return5() { __asm mov eax, 5 };

  00000	b8 05 00 00 00	 mov	 eax, 5
  00005	c3		 ret	 0
?return5@@YAIXZ ENDP					; return5
_TEXT	ENDS
PUBLIC	?return10@@YAIXZ				; return10
; Function compile flags: /Ogsp
;	COMDAT ?return10@@YAIXZ
_TEXT	SEGMENT
?return10@@YAIXZ PROC					; return10, COMDAT

; 21   : 	__forceinline unsigned int return10() { __asm mov eax, 10 };

  00000	b8 0a 00 00 00	 mov	 eax, 10			; 0000000aH
  00005	c3		 ret	 0
?return10@@YAIXZ ENDP					; return10
_TEXT	ENDS
PUBLIC	?return1000@@YAIXZ				; return1000
; Function compile flags: /Ogsp
;	COMDAT ?return1000@@YAIXZ
_TEXT	SEGMENT
?return1000@@YAIXZ PROC					; return1000, COMDAT

; 29   : 	__forceinline unsigned int return1000() { __asm mov eax, 1000 };

  00000	b8 e8 03 00 00	 mov	 eax, 1000		; 000003e8H
  00005	c3		 ret	 0
?return1000@@YAIXZ ENDP					; return1000
_TEXT	ENDS
PUBLIC	?GetState@ioBaseChar@@QBE?AW4CharState@@XZ	; ioBaseChar::GetState
; Function compile flags: /Ogsp
; File d:\lost saga for developer\youtube\tutorial\source\src\lsclient\iobasechar.h
;	COMDAT ?GetState@ioBaseChar@@QBE?AW4CharState@@XZ
_TEXT	SEGMENT
?GetState@ioBaseChar@@QBE?AW4CharState@@XZ PROC		; ioBaseChar::GetState, COMDAT
; _this$ = ecx

; 2156 : 	inline CharState GetState() const { return m_CharState; }	

  00000	8a 81 10 03 00
	00		 mov	 al, BYTE PTR [ecx+784]
  00006	c3		 ret	 0
?GetState@ioBaseChar@@QBE?AW4CharState@@XZ ENDP		; ioBaseChar::GetState
_TEXT	ENDS
PUBLIC	?GetCharName@ioBaseChar@@QBEABVioHashString@@XZ	; ioBaseChar::GetCharName
; Function compile flags: /Ogsp
;	COMDAT ?GetCharName@ioBaseChar@@QBEABVioHashString@@XZ
_TEXT	SEGMENT
?GetCharName@ioBaseChar@@QBEABVioHashString@@XZ PROC	; ioBaseChar::GetCharName, COMDAT
; _this$ = ecx

; 2594 : 	inline const ioHashString& GetCharName() const { return m_Name; }

  00000	8d 81 d4 02 00
	00		 lea	 eax, DWORD PTR [ecx+724]
  00006	c3		 ret	 0
?GetCharName@ioBaseChar@@QBEABVioHashString@@XZ ENDP	; ioBaseChar::GetCharName
_TEXT	ENDS
PUBLIC	_cosf
EXTRN	__fltused:DWORD
EXTRN	__CIcos:PROC
; Function compile flags: /Ogsp
; File c:\program files (x86)\microsoft visual studio 10.0\vc\include\math.h
;	COMDAT _cosf
_TEXT	SEGMENT
tv69 = 8						; size = 4
__X$ = 8						; size = 4
_cosf	PROC						; COMDAT

; 410  :         {return ((float)cos((double)_X)); }

  00000	55		 push	 ebp
  00001	8b ec		 mov	 ebp, esp
  00003	d9 45 08	 fld	 DWORD PTR __X$[ebp]
  00006	e8 00 00 00 00	 call	 __CIcos
  0000b	d9 5d 08	 fstp	 DWORD PTR tv69[ebp]
  0000e	d9 45 08	 fld	 DWORD PTR tv69[ebp]
  00011	5d		 pop	 ebp
  00012	c3		 ret	 0
_cosf	ENDP
_TEXT	ENDS
PUBLIC	_sqrtf
EXTRN	__CIsqrt:PROC
; Function compile flags: /Ogsp
;	COMDAT _sqrtf
_TEXT	SEGMENT
tv69 = 8						; size = 4
__X$ = 8						; size = 4
_sqrtf	PROC						; COMDAT

; 434  :         {return ((float)sqrt((double)_X)); }

  00000	55		 push	 ebp
  00001	8b ec		 mov	 ebp, esp
  00003	d9 45 08	 fld	 DWORD PTR __X$[ebp]
  00006	e8 00 00 00 00	 call	 __CIsqrt
  0000b	d9 5d 08	 fstp	 DWORD PTR tv69[ebp]
  0000e	d9 45 08	 fld	 DWORD PTR tv69[ebp]
  00011	5d		 pop	 ebp
  00012	c3		 ret	 0
_sqrtf	ENDP
_TEXT	ENDS
PUBLIC	??_7bad_alloc@std@@6B@				; std::bad_alloc::`vftable'
PUBLIC	??0bad_alloc@std@@QAE@PBD@Z			; std::bad_alloc::bad_alloc
PUBLIC	??_R4bad_alloc@std@@6B@				; std::bad_alloc::`RTTI Complete Object Locator'
PUBLIC	??_R0?AVbad_alloc@std@@@8			; std::bad_alloc `RTTI Type Descriptor'
PUBLIC	??_R3bad_alloc@std@@8				; std::bad_alloc::`RTTI Class Hierarchy Descriptor'
PUBLIC	??_R2bad_alloc@std@@8				; std::bad_alloc::`RTTI Base Class Array'
PUBLIC	??_R1A@?0A@EA@bad_alloc@std@@8			; std::bad_alloc::`RTTI Base Class Descriptor at (0,-1,0,64)'
PUBLIC	??_R1A@?0A@EA@exception@std@@8			; std::exception::`RTTI Base Class Descriptor at (0,-1,0,64)'
PUBLIC	??_R0?AVexception@std@@@8			; std::exception `RTTI Type Descriptor'
PUBLIC	??_R3exception@std@@8				; std::exception::`RTTI Class Hierarchy Descriptor'
PUBLIC	??_R2exception@std@@8				; std::exception::`RTTI Base Class Array'
EXTRN	__imp_??0exception@std@@QAE@ABQBD@Z:PROC
EXTRN	??_7type_info@@6B@:QWORD			; type_info::`vftable'
EXTRN	??_Ebad_alloc@std@@UAEPAXI@Z:PROC		; std::bad_alloc::`vector deleting destructor'
EXTRN	?what@exception@std@@UBEPBDXZ:PROC		; std::exception::what
;	COMDAT ??_R2exception@std@@8
; File c:\program files (x86)\microsoft visual studio 10.0\vc\include\exception
rdata$r	SEGMENT
??_R2exception@std@@8 DD FLAT:??_R1A@?0A@EA@exception@std@@8 ; std::exception::`RTTI Base Class Array'
rdata$r	ENDS
;	COMDAT ??_R3exception@std@@8
rdata$r	SEGMENT
??_R3exception@std@@8 DD 00H				; std::exception::`RTTI Class Hierarchy Descriptor'
	DD	00H
	DD	01H
	DD	FLAT:??_R2exception@std@@8
rdata$r	ENDS
;	COMDAT ??_R0?AVexception@std@@@8
_DATA	SEGMENT
??_R0?AVexception@std@@@8 DD FLAT:??_7type_info@@6B@	; std::exception `RTTI Type Descriptor'
	DD	00H
	DB	'.?AVexception@std@@', 00H
_DATA	ENDS
;	COMDAT ??_R1A@?0A@EA@exception@std@@8
rdata$r	SEGMENT
??_R1A@?0A@EA@exception@std@@8 DD FLAT:??_R0?AVexception@std@@@8 ; std::exception::`RTTI Base Class Descriptor at (0,-1,0,64)'
	DD	00H
	DD	00H
	DD	0ffffffffH
	DD	00H
	DD	040H
	DD	FLAT:??_R3exception@std@@8
rdata$r	ENDS
;	COMDAT ??_R1A@?0A@EA@bad_alloc@std@@8
rdata$r	SEGMENT
??_R1A@?0A@EA@bad_alloc@std@@8 DD FLAT:??_R0?AVbad_alloc@std@@@8 ; std::bad_alloc::`RTTI Base Class Descriptor at (0,-1,0,64)'
	DD	01H
	DD	00H
	DD	0ffffffffH
	DD	00H
	DD	040H
	DD	FLAT:??_R3bad_alloc@std@@8
rdata$r	ENDS
;	COMDAT ??_R2bad_alloc@std@@8
rdata$r	SEGMENT
??_R2bad_alloc@std@@8 DD FLAT:??_R1A@?0A@EA@bad_alloc@std@@8 ; std::bad_alloc::`RTTI Base Class Array'
	DD	FLAT:??_R1A@?0A@EA@exception@std@@8
rdata$r	ENDS
;	COMDAT ??_R3bad_alloc@std@@8
rdata$r	SEGMENT
??_R3bad_alloc@std@@8 DD 00H				; std::bad_alloc::`RTTI Class Hierarchy Descriptor'
	DD	00H
	DD	02H
	DD	FLAT:??_R2bad_alloc@std@@8
rdata$r	ENDS
;	COMDAT ??_R0?AVbad_alloc@std@@@8
_DATA	SEGMENT
??_R0?AVbad_alloc@std@@@8 DD FLAT:??_7type_info@@6B@	; std::bad_alloc `RTTI Type Descriptor'
	DD	00H
	DB	'.?AVbad_alloc@std@@', 00H
_DATA	ENDS
;	COMDAT ??_R4bad_alloc@std@@6B@
rdata$r	SEGMENT
??_R4bad_alloc@std@@6B@ DD 00H				; std::bad_alloc::`RTTI Complete Object Locator'
	DD	00H
	DD	00H
	DD	FLAT:??_R0?AVbad_alloc@std@@@8
	DD	FLAT:??_R3bad_alloc@std@@8
rdata$r	ENDS
;	COMDAT ??_7bad_alloc@std@@6B@
CONST	SEGMENT
??_7bad_alloc@std@@6B@ DD FLAT:??_R4bad_alloc@std@@6B@	; std::bad_alloc::`vftable'
	DD	FLAT:??_Ebad_alloc@std@@UAEPAXI@Z
	DD	FLAT:?what@exception@std@@UBEPBDXZ
; Function compile flags: /Ogsp
CONST	ENDS
;	COMDAT ??0bad_alloc@std@@QAE@PBD@Z
_TEXT	SEGMENT
__Message$ = 8						; size = 4
??0bad_alloc@std@@QAE@PBD@Z PROC			; std::bad_alloc::bad_alloc, COMDAT
; _this$ = ecx

; 345  : 		{	// construct from message string

  00000	55		 push	 ebp
  00001	8b ec		 mov	 ebp, esp
  00003	56		 push	 esi
  00004	8d 45 08	 lea	 eax, DWORD PTR __Message$[ebp]
  00007	50		 push	 eax
  00008	8b f1		 mov	 esi, ecx
  0000a	ff 15 00 00 00
	00		 call	 DWORD PTR __imp_??0exception@std@@QAE@ABQBD@Z
  00010	c7 06 00 00 00
	00		 mov	 DWORD PTR [esi], OFFSET ??_7bad_alloc@std@@6B@

; 346  : 		}

  00016	8b c6		 mov	 eax, esi
  00018	5e		 pop	 esi
  00019	5d		 pop	 ebp
  0001a	c2 04 00	 ret	 4
??0bad_alloc@std@@QAE@PBD@Z ENDP			; std::bad_alloc::bad_alloc
_TEXT	ENDS
PUBLIC	??1bad_alloc@std@@UAE@XZ			; std::bad_alloc::~bad_alloc
EXTRN	__imp_??1exception@std@@UAE@XZ:PROC
; Function compile flags: /Ogsp
;	COMDAT ??1bad_alloc@std@@UAE@XZ
_TEXT	SEGMENT
??1bad_alloc@std@@UAE@XZ PROC				; std::bad_alloc::~bad_alloc, COMDAT
; _this$ = ecx

; 354  : 		{	// destroy the object

  00000	c7 01 00 00 00
	00		 mov	 DWORD PTR [ecx], OFFSET ??_7bad_alloc@std@@6B@

; 355  : 		}

  00006	ff 25 00 00 00
	00		 jmp	 DWORD PTR __imp_??1exception@std@@UAE@XZ
??1bad_alloc@std@@UAE@XZ ENDP				; std::bad_alloc::~bad_alloc
_TEXT	ENDS
EXTRN	??3@YAXPAX@Z:PROC				; operator delete
; Function compile flags: /Ogsp
;	COMDAT ??_Gbad_alloc@std@@UAEPAXI@Z
_TEXT	SEGMENT
___flags$ = 8						; size = 4
??_Gbad_alloc@std@@UAEPAXI@Z PROC			; std::bad_alloc::`scalar deleting destructor', COMDAT
; _this$ = ecx
  00000	55		 push	 ebp
  00001	8b ec		 mov	 ebp, esp
  00003	56		 push	 esi
  00004	8b f1		 mov	 esi, ecx
  00006	c7 06 00 00 00
	00		 mov	 DWORD PTR [esi], OFFSET ??_7bad_alloc@std@@6B@
  0000c	ff 15 00 00 00
	00		 call	 DWORD PTR __imp_??1exception@std@@UAE@XZ
  00012	f6 45 08 01	 test	 BYTE PTR ___flags$[ebp], 1
  00016	74 07		 je	 SHORT $LN1@scalar
  00018	56		 push	 esi
  00019	e8 00 00 00 00	 call	 ??3@YAXPAX@Z		; operator delete
  0001e	59		 pop	 ecx
$LN1@scalar:
  0001f	8b c6		 mov	 eax, esi
  00021	5e		 pop	 esi
  00022	5d		 pop	 ebp
  00023	c2 04 00	 ret	 4
??_Gbad_alloc@std@@UAEPAXI@Z ENDP			; std::bad_alloc::`scalar deleting destructor'
_TEXT	ENDS
PUBLIC	??2@YAPAXIPAX@Z					; operator new
; Function compile flags: /Ogsp
; File c:\program files (x86)\microsoft visual studio 10.0\vc\include\new
;	COMDAT ??2@YAPAXIPAX@Z
_TEXT	SEGMENT
___formal$ = 8						; size = 4
__Where$ = 12						; size = 4
??2@YAPAXIPAX@Z PROC					; operator new, COMDAT

; 56   : 	{	// construct array with placement at _Where

  00000	55		 push	 ebp
  00001	8b ec		 mov	 ebp, esp

; 57   : 	return (_Where);

  00003	8b 45 0c	 mov	 eax, DWORD PTR __Where$[ebp]

; 58   : 	}

  00006	5d		 pop	 ebp
  00007	c3		 ret	 0
??2@YAPAXIPAX@Z ENDP					; operator new
_TEXT	ENDS
PUBLIC	??3@YAXPAX0@Z					; operator delete
; Function compile flags: /Ogsp
;	COMDAT ??3@YAXPAX0@Z
_TEXT	SEGMENT
___formal$ = 8						; size = 4
___formal$ = 12						; size = 4
??3@YAXPAX0@Z PROC					; operator delete, COMDAT

; 62   : 	}

  00000	c3		 ret	 0
??3@YAXPAX0@Z ENDP					; operator delete
_TEXT	ENDS
PUBLIC	__real@4f800000
PUBLIC	?OnExplosionState@ioLobeliaWeapon@@IAEXMPAVioPlayStage@@@Z ; ioLobeliaWeapon::OnExplosionState
EXTRN	?GetMapHeight@ioPlayStage@@QAEMMMPBVioGameEntity@@_NM1@Z:PROC ; ioPlayStage::GetMapHeight
EXTRN	?SetWorldPosition@ioMapEffect@@QAEXABUD3DXVECTOR3@@@Z:PROC ; ioMapEffect::SetWorldPosition
EXTRN	?FindMapEffect@ioPlayStage@@QAEPAVioMapEffect@@K@Z:PROC ; ioPlayStage::FindMapEffect
EXTRN	__imp_?GetLoopSec@ioFrameTimer@@QBEKXZ:PROC
EXTRN	__imp_?GetSingleton@ioFrameTimer@@SAAAV1@XZ:PROC
;	COMDAT __real@4f800000
; File d:\lost saga for developer\youtube\tutorial\source\src\lsclient\stdafx.h
CONST	SEGMENT
__real@4f800000 DD 04f800000r			; 4.29497e+009
; Function compile flags: /Ogsp
; File d:\lost saga for developer\youtube\tutorial\source\src\lsclient\iolobeliaweapon.cpp
CONST	ENDS
;	COMDAT ?OnExplosionState@ioLobeliaWeapon@@IAEXMPAVioPlayStage@@@Z
_TEXT	SEGMENT
_vPos$ = -16						; size = 12
tv298 = -4						; size = 4
tv294 = 8						; size = 4
_fTimePerSec$ = 8					; size = 4
tv264 = 12						; size = 4
tv260 = 12						; size = 4
_fMapHeight$ = 12					; size = 4
_pStage$ = 12						; size = 4
?OnExplosionState@ioLobeliaWeapon@@IAEXMPAVioPlayStage@@@Z PROC ; ioLobeliaWeapon::OnExplosionState, COMDAT
; _this$ = ecx

; 326  : {

  00000	55		 push	 ebp
  00001	8b ec		 mov	 ebp, esp
  00003	83 ec 10	 sub	 esp, 16			; 00000010H
  00006	53		 push	 ebx
  00007	8b d9		 mov	 ebx, ecx

; 327  : 	if( m_dwExplosionDuration == 0 )

  00009	83 bb 38 09 00
	00 00		 cmp	 DWORD PTR [ebx+2360], 0

; 328  : 	{
; 329  : 		SetWeaponDead();
; 330  : 		return;

  00010	0f 84 1a 01 00
	00		 je	 $LN16@OnExplosio

; 331  : 	}
; 332  : 
; 333  : 	DWORD dwCurTime = FRAMEGETTIME();

  00016	ff 15 00 00 00
	00		 call	 DWORD PTR __imp_?GetSingleton@ioFrameTimer@@SAAAV1@XZ
  0001c	8b c8		 mov	 ecx, eax
  0001e	ff 15 00 00 00
	00		 call	 DWORD PTR __imp_?GetLoopSec@ioFrameTimer@@QBEKXZ

; 334  : 	if( dwCurTime - m_dwExplosionStart > m_dwExplosionDuration )

  00024	2b 83 34 09 00
	00		 sub	 eax, DWORD PTR [ebx+2356]
  0002a	3b 83 38 09 00
	00		 cmp	 eax, DWORD PTR [ebx+2360]

; 335  : 	{
; 336  : 		SetWeaponDead();
; 337  : 		return;

  00030	0f 87 f8 00 00
	00		 ja	 $LN17@OnExplosio

; 338  : 	}
; 339  : 
; 340  : 	if( m_pFireMesh )

  00036	83 bb 98 08 00
	00 00		 cmp	 DWORD PTR [ebx+2200], 0
  0003d	74 30		 je	 SHORT $LN5@OnExplosio

; 341  : 	{
; 342  : 		m_pFireMesh->Update( fTimePerSec * FLOAT1000 );

  0003f	b8 e8 03 00 00	 mov	 eax, 1000		; 000003e8H
  00044	8b 8b 98 08 00
	00		 mov	 ecx, DWORD PTR [ebx+2200]
  0004a	83 c1 14	 add	 ecx, 20			; 00000014H
  0004d	8b 11		 mov	 edx, DWORD PTR [ecx]
  0004f	89 45 fc	 mov	 DWORD PTR tv298[ebp], eax
  00052	db 45 fc	 fild	 DWORD PTR tv298[ebp]
  00055	85 c0		 test	 eax, eax
  00057	79 06		 jns	 SHORT $LN14@OnExplosio
  00059	d8 05 00 00 00
	00		 fadd	 DWORD PTR __real@4f800000
$LN14@OnExplosio:
  0005f	d8 4d 08	 fmul	 DWORD PTR _fTimePerSec$[ebp]
  00062	51		 push	 ecx
  00063	d9 5d 08	 fstp	 DWORD PTR tv294[ebp]
  00066	d9 45 08	 fld	 DWORD PTR tv294[ebp]
  00069	d9 1c 24	 fstp	 DWORD PTR [esp]
  0006c	ff 52 40	 call	 DWORD PTR [edx+64]
$LN5@OnExplosio:

; 343  : 	}
; 344  : 
; 345  : 	if( m_EffectID != -1 )

  0006f	8b 83 c0 08 00
	00		 mov	 eax, DWORD PTR [ebx+2240]
  00075	56		 push	 esi
  00076	57		 push	 edi
  00077	83 f8 ff	 cmp	 eax, -1
  0007a	74 1e		 je	 SHORT $LN3@OnExplosio

; 346  : 	{
; 347  : 		ioMapEffect *pEffect = pStage->FindMapEffect( m_EffectID );

  0007c	8b 4d 0c	 mov	 ecx, DWORD PTR _pStage$[ebp]
  0007f	50		 push	 eax
  00080	e8 00 00 00 00	 call	 ?FindMapEffect@ioPlayStage@@QAEPAVioMapEffect@@K@Z ; ioPlayStage::FindMapEffect
  00085	8b f0		 mov	 esi, eax

; 348  : 		if( pEffect )

  00087	85 f6		 test	 esi, esi
  00089	74 0f		 je	 SHORT $LN3@OnExplosio

; 349  : 		{
; 350  : 			pEffect->SetWorldPosition( GetPosition() );

  0008b	8b 03		 mov	 eax, DWORD PTR [ebx]
  0008d	8b cb		 mov	 ecx, ebx
  0008f	ff 50 70	 call	 DWORD PTR [eax+112]
  00092	50		 push	 eax
  00093	8b ce		 mov	 ecx, esi
  00095	e8 00 00 00 00	 call	 ?SetWorldPosition@ioMapEffect@@QAEXABUD3DXVECTOR3@@@Z ; ioMapEffect::SetWorldPosition
$LN3@OnExplosio:

; 351  : 		}
; 352  : 	}
; 353  : 
; 354  : 	D3DXVECTOR3 vPos = GetPosition();

  0009a	8b 03		 mov	 eax, DWORD PTR [ebx]
  0009c	8b cb		 mov	 ecx, ebx
  0009e	ff 50 70	 call	 DWORD PTR [eax+112]

; 355  : 
; 356  : 	float fMapHeight = pStage->GetMapHeight( vPos.x, vPos.z, NULL, false, vPos.y+m_fExtentsOffSet );

  000a1	f3 0f 10 83 58
	09 00 00	 movss	 xmm0, DWORD PTR [ebx+2392]
  000a9	8b f0		 mov	 esi, eax
  000ab	8d 7d f0	 lea	 edi, DWORD PTR _vPos$[ebp]
  000ae	a5		 movsd
  000af	a5		 movsd
  000b0	33 c0		 xor	 eax, eax
  000b2	50		 push	 eax
  000b3	a5		 movsd
  000b4	f3 0f 10 4d f4	 movss	 xmm1, DWORD PTR _vPos$[ebp+4]
  000b9	51		 push	 ecx
  000ba	0f 5a c0	 cvtps2pd xmm0, xmm0
  000bd	0f 5a c9	 cvtps2pd xmm1, xmm1
  000c0	f2 0f 58 c1	 addsd	 xmm0, xmm1
  000c4	66 0f 5a c0	 cvtpd2ps xmm0, xmm0
  000c8	f3 0f 11 04 24	 movss	 DWORD PTR [esp], xmm0
  000cd	f3 0f 10 45 f8	 movss	 xmm0, DWORD PTR _vPos$[ebp+8]
  000d2	50		 push	 eax
  000d3	50		 push	 eax
  000d4	51		 push	 ecx
  000d5	51		 push	 ecx
  000d6	8b 4d 0c	 mov	 ecx, DWORD PTR _pStage$[ebp]
  000d9	f3 0f 11 44 24
	04		 movss	 DWORD PTR [esp+4], xmm0
  000df	f3 0f 10 45 f0	 movss	 xmm0, DWORD PTR _vPos$[ebp]
  000e4	f3 0f 11 04 24	 movss	 DWORD PTR [esp], xmm0
  000e9	e8 00 00 00 00	 call	 ?GetMapHeight@ioPlayStage@@QAEMMMPBVioGameEntity@@_NM1@Z ; ioPlayStage::GetMapHeight
  000ee	d9 5d 0c	 fstp	 DWORD PTR _fMapHeight$[ebp]

; 357  : 	if( vPos.y > fMapHeight )

  000f1	d9 45 0c	 fld	 DWORD PTR _fMapHeight$[ebp]
  000f4	5f		 pop	 edi
  000f5	d9 45 f4	 fld	 DWORD PTR _vPos$[ebp+4]
  000f8	5e		 pop	 esi
  000f9	df f1		 fcomip	 ST(1)
  000fb	dd d8		 fstp	 ST(0)
  000fd	76 36		 jbe	 SHORT $LN1@OnExplosio

; 358  : 	{
; 359  : 		float fGap = vPos.y - fMapHeight;
; 360  : 		if( fGap > m_fExtentsOffSet+FLOAT10 )

  000ff	b8 0a 00 00 00	 mov	 eax, 10			; 0000000aH
  00104	d9 45 f4	 fld	 DWORD PTR _vPos$[ebp+4]
  00107	d8 65 0c	 fsub	 DWORD PTR _fMapHeight$[ebp]
  0010a	d9 5d 0c	 fstp	 DWORD PTR tv264[ebp]
  0010d	d9 45 0c	 fld	 DWORD PTR tv264[ebp]
  00110	89 45 0c	 mov	 DWORD PTR tv260[ebp], eax
  00113	db 45 0c	 fild	 DWORD PTR tv260[ebp]
  00116	85 c0		 test	 eax, eax
  00118	79 06		 jns	 SHORT $LN15@OnExplosio
  0011a	d8 05 00 00 00
	00		 fadd	 DWORD PTR __real@4f800000
$LN15@OnExplosio:
  00120	d8 83 58 09 00
	00		 fadd	 DWORD PTR [ebx+2392]
  00126	d9 c9		 fxch	 ST(1)
  00128	df f1		 fcomip	 ST(1)
  0012a	dd d8		 fstp	 ST(0)
  0012c	76 07		 jbe	 SHORT $LN1@OnExplosio
$LN17@OnExplosio:

; 361  : 		{
; 362  : 			SetWeaponDead();

  0012e	8b cb		 mov	 ecx, ebx
$LN16@OnExplosio:
  00130	8b 03		 mov	 eax, DWORD PTR [ebx]
  00132	ff 50 4c	 call	 DWORD PTR [eax+76]
$LN1@OnExplosio:
  00135	5b		 pop	 ebx

; 363  : 			return;
; 364  : 		}
; 365  : 	}
; 366  : }

  00136	c9		 leave
  00137	c2 08 00	 ret	 8
?OnExplosionState@ioLobeliaWeapon@@IAEXMPAVioPlayStage@@@Z ENDP ; ioLobeliaWeapon::OnExplosionState
_TEXT	ENDS
PUBLIC	?GetType@ioLobeliaWeapon@@UBE?AW4WeaponType@ioWeapon@@XZ ; ioLobeliaWeapon::GetType
; Function compile flags: /Ogsp
;	COMDAT ?GetType@ioLobeliaWeapon@@UBE?AW4WeaponType@ioWeapon@@XZ
_TEXT	SEGMENT
?GetType@ioLobeliaWeapon@@UBE?AW4WeaponType@ioWeapon@@XZ PROC ; ioLobeliaWeapon::GetType, COMDAT
; _this$ = ecx

; 402  : 	return WT_LOBELIA;

  00000	6a 36		 push	 54			; 00000036H
  00002	58		 pop	 eax

; 403  : }

  00003	c3		 ret	 0
?GetType@ioLobeliaWeapon@@UBE?AW4WeaponType@ioWeapon@@XZ ENDP ; ioLobeliaWeapon::GetType
_TEXT	ENDS
PUBLIC	?GetActionStopType@ioLobeliaWeapon@@UBE?AW4ActionStopType@@XZ ; ioLobeliaWeapon::GetActionStopType
; Function compile flags: /Ogsp
;	COMDAT ?GetActionStopType@ioLobeliaWeapon@@UBE?AW4ActionStopType@@XZ
_TEXT	SEGMENT
?GetActionStopType@ioLobeliaWeapon@@UBE?AW4ActionStopType@@XZ PROC ; ioLobeliaWeapon::GetActionStopType, COMDAT
; _this$ = ecx

; 407  : 	return m_ActionStopType;

  00000	a1 00 00 00 00	 mov	 eax, DWORD PTR ?m_ActionStopType@ioLobeliaWeapon@@2W4ActionStopType@@A ; ioLobeliaWeapon::m_ActionStopType

; 408  : }

  00005	c3		 ret	 0
?GetActionStopType@ioLobeliaWeapon@@UBE?AW4ActionStopType@@XZ ENDP ; ioLobeliaWeapon::GetActionStopType
_TEXT	ENDS
PUBLIC	?GetDieActionStopType@ioLobeliaWeapon@@UBE?AW4ActionStopType@@XZ ; ioLobeliaWeapon::GetDieActionStopType
; Function compile flags: /Ogsp
;	COMDAT ?GetDieActionStopType@ioLobeliaWeapon@@UBE?AW4ActionStopType@@XZ
_TEXT	SEGMENT
?GetDieActionStopType@ioLobeliaWeapon@@UBE?AW4ActionStopType@@XZ PROC ; ioLobeliaWeapon::GetDieActionStopType, COMDAT
; _this$ = ecx

; 412  : 	return m_DieActionStopType;

  00000	a1 00 00 00 00	 mov	 eax, DWORD PTR ?m_DieActionStopType@ioLobeliaWeapon@@2W4ActionStopType@@A ; ioLobeliaWeapon::m_DieActionStopType

; 413  : }

  00005	c3		 ret	 0
?GetDieActionStopType@ioLobeliaWeapon@@UBE?AW4ActionStopType@@XZ ENDP ; ioLobeliaWeapon::GetDieActionStopType
_TEXT	ENDS
PUBLIC	?GetLocalAttackBox@ioLobeliaWeapon@@UBEABVioOrientBox@@XZ ; ioLobeliaWeapon::GetLocalAttackBox
; Function compile flags: /Ogsp
;	COMDAT ?GetLocalAttackBox@ioLobeliaWeapon@@UBEABVioOrientBox@@XZ
_TEXT	SEGMENT
?GetLocalAttackBox@ioLobeliaWeapon@@UBEABVioOrientBox@@XZ PROC ; ioLobeliaWeapon::GetLocalAttackBox, COMDAT
; _this$ = ecx

; 417  : 	return m_LocalAttackBox;

  00000	8d 81 dc 08 00
	00		 lea	 eax, DWORD PTR [ecx+2268]

; 418  : }

  00006	c3		 ret	 0
?GetLocalAttackBox@ioLobeliaWeapon@@UBEABVioOrientBox@@XZ ENDP ; ioLobeliaWeapon::GetLocalAttackBox
_TEXT	ENDS
PUBLIC	_pStage$GSCopy$
PUBLIC	__$ArrayPad$
PUBLIC	?Explosion@ioLobeliaWeapon@@QAEXPAVioPlayStage@@@Z ; ioLobeliaWeapon::Explosion
EXTRN	?EndEffectForce@ioMapEffect@@QAEXXZ:PROC	; ioMapEffect::EndEffectForce
EXTRN	?PlayExplosionSound@ioWeapon@@UAEXXZ:PROC	; ioWeapon::PlayExplosionSound
EXTRN	?GetUniqueID@ioMapEffect@@QBEKXZ:PROC		; ioMapEffect::GetUniqueID
EXTRN	?CreateMapEffect@ioPlayStage@@QAEPAVioMapEffect@@ABVioHashString@@ABUD3DXVECTOR3@@1@Z:PROC ; ioPlayStage::CreateMapEffect
EXTRN	?GetScale@ioWeapon@@QBEABUD3DXVECTOR3@@XZ:PROC	; ioWeapon::GetScale
EXTRN	__imp_?IsEmpty@ioHashString@@QBE_NXZ:PROC
EXTRN	__imp_?SetExtents@ioOrientBox@@QAEXHM@Z:PROC
EXTRN	___security_cookie:DWORD
EXTRN	@__security_check_cookie@4:PROC
; Function compile flags: /Ogsp
;	COMDAT ?Explosion@ioLobeliaWeapon@@QAEXPAVioPlayStage@@@Z
_TEXT	SEGMENT
_pStage$GSCopy$ = -24					; size = 4
_fMapHeight$531058 = -20				; size = 4
_fHalfRange$ = -20					; size = 4
_vPos$531057 = -16					; size = 12
__$ArrayPad$ = -4					; size = 4
_pStage$ = 8						; size = 4
?Explosion@ioLobeliaWeapon@@QAEXPAVioPlayStage@@@Z PROC	; ioLobeliaWeapon::Explosion, COMDAT
; _this$ = ecx

; 450  : {

  00000	55		 push	 ebp
  00001	8b ec		 mov	 ebp, esp
  00003	83 ec 18	 sub	 esp, 24			; 00000018H
  00006	a1 00 00 00 00	 mov	 eax, DWORD PTR ___security_cookie
  0000b	33 c5		 xor	 eax, ebp
  0000d	89 45 fc	 mov	 DWORD PTR __$ArrayPad$[ebp], eax

; 489  : 		}
; 490  : 	}
; 491  : 
; 492  : 	DestroyResource( pStage );

  00010	8b 45 08	 mov	 eax, DWORD PTR _pStage$[ebp]
  00013	53		 push	 ebx
  00014	8b d9		 mov	 ebx, ecx
  00016	6a 04		 push	 4
  00018	59		 pop	 ecx
  00019	89 45 e8	 mov	 DWORD PTR _pStage$GSCopy$[ebp], eax
  0001c	39 8b 94 08 00
	00		 cmp	 DWORD PTR [ebx+2196], ecx
  00022	0f 84 71 01 00
	00		 je	 $LN7@Explosion

; 451  : 	if( m_State == TS_EXPLOSION )
; 452  : 		return;
; 453  : 
; 454  : 	m_State = TS_EXPLOSION;

  00028	56		 push	 esi
  00029	57		 push	 edi
  0002a	89 8b 94 08 00
	00		 mov	 DWORD PTR [ebx+2196], ecx

; 455  : 	m_dwExplosionStart = FRAMEGETTIME();

  00030	ff 15 00 00 00
	00		 call	 DWORD PTR __imp_?GetSingleton@ioFrameTimer@@SAAAV1@XZ
  00036	8b c8		 mov	 ecx, eax
  00038	ff 15 00 00 00
	00		 call	 DWORD PTR __imp_?GetLoopSec@ioFrameTimer@@QBEKXZ

; 456  : 
; 457  : 	float fHalfRange = m_fExplosionRange;

  0003e	f3 0f 10 83 3c
	09 00 00	 movss	 xmm0, DWORD PTR [ebx+2364]

; 458  : 	m_LocalAttackBox.SetExtents( 0, fHalfRange );

  00046	8b 35 00 00 00
	00		 mov	 esi, DWORD PTR __imp_?SetExtents@ioOrientBox@@QAEXHM@Z
  0004c	51		 push	 ecx
  0004d	f3 0f 11 04 24	 movss	 DWORD PTR [esp], xmm0
  00052	6a 00		 push	 0
  00054	8d 8b dc 08 00
	00		 lea	 ecx, DWORD PTR [ebx+2268]
  0005a	89 83 34 09 00
	00		 mov	 DWORD PTR [ebx+2356], eax
  00060	f3 0f 11 45 ec	 movss	 DWORD PTR _fHalfRange$[ebp], xmm0
  00065	ff d6		 call	 esi

; 459  : 	m_LocalAttackBox.SetExtents( 1, fHalfRange );

  00067	f3 0f 10 45 ec	 movss	 xmm0, DWORD PTR _fHalfRange$[ebp]
  0006c	51		 push	 ecx
  0006d	f3 0f 11 04 24	 movss	 DWORD PTR [esp], xmm0
  00072	6a 01		 push	 1
  00074	8d 8b dc 08 00
	00		 lea	 ecx, DWORD PTR [ebx+2268]
  0007a	ff d6		 call	 esi

; 460  : 	m_LocalAttackBox.SetExtents( 2, fHalfRange );

  0007c	f3 0f 10 45 ec	 movss	 xmm0, DWORD PTR _fHalfRange$[ebp]
  00081	51		 push	 ecx
  00082	f3 0f 11 04 24	 movss	 DWORD PTR [esp], xmm0
  00087	6a 02		 push	 2
  00089	8d 8b dc 08 00
	00		 lea	 ecx, DWORD PTR [ebx+2268]
  0008f	ff d6		 call	 esi

; 461  : 	UpdateWorldAttackBox( 0.0f, false );

  00091	0f 57 c0	 xorps	 xmm0, xmm0
  00094	8b 03		 mov	 eax, DWORD PTR [ebx]
  00096	6a 00		 push	 0
  00098	51		 push	 ecx
  00099	8b cb		 mov	 ecx, ebx
  0009b	f3 0f 11 04 24	 movss	 DWORD PTR [esp], xmm0
  000a0	ff 90 38 01 00
	00		 call	 DWORD PTR [eax+312]

; 462  : 
; 463  : 	if( !m_BoomEffect.IsEmpty() && pStage )

  000a6	8d 8b ac 08 00
	00		 lea	 ecx, DWORD PTR [ebx+2220]
  000ac	ff 15 00 00 00
	00		 call	 DWORD PTR __imp_?IsEmpty@ioHashString@@QBE_NXZ
  000b2	84 c0		 test	 al, al
  000b4	0f 85 aa 00 00
	00		 jne	 $LN9@Explosion
  000ba	83 7d e8 00	 cmp	 DWORD PTR _pStage$GSCopy$[ebp], 0
  000be	0f 84 a0 00 00
	00		 je	 $LN9@Explosion

; 464  : 	{
; 465  : 		D3DXVECTOR3 vPos = GetPosition();

  000c4	8b 03		 mov	 eax, DWORD PTR [ebx]
  000c6	8b cb		 mov	 ecx, ebx
  000c8	ff 50 70	 call	 DWORD PTR [eax+112]

; 466  : 
; 467  : 		float fMapHeight = pStage->GetMapHeight( vPos.x, vPos.z, NULL, false, vPos.y+m_fExtentsOffSet );

  000cb	f3 0f 10 83 58
	09 00 00	 movss	 xmm0, DWORD PTR [ebx+2392]
  000d3	8b f0		 mov	 esi, eax
  000d5	8d 7d f0	 lea	 edi, DWORD PTR _vPos$531057[ebp]
  000d8	a5		 movsd
  000d9	a5		 movsd
  000da	a5		 movsd
  000db	f3 0f 10 4d f4	 movss	 xmm1, DWORD PTR _vPos$531057[ebp+4]
  000e0	33 f6		 xor	 esi, esi
  000e2	56		 push	 esi
  000e3	51		 push	 ecx
  000e4	0f 5a c0	 cvtps2pd xmm0, xmm0
  000e7	0f 5a c9	 cvtps2pd xmm1, xmm1
  000ea	f2 0f 58 c1	 addsd	 xmm0, xmm1
  000ee	66 0f 5a c0	 cvtpd2ps xmm0, xmm0
  000f2	f3 0f 11 04 24	 movss	 DWORD PTR [esp], xmm0
  000f7	f3 0f 10 45 f8	 movss	 xmm0, DWORD PTR _vPos$531057[ebp+8]
  000fc	56		 push	 esi
  000fd	56		 push	 esi
  000fe	51		 push	 ecx
  000ff	51		 push	 ecx
  00100	8b 4d e8	 mov	 ecx, DWORD PTR _pStage$GSCopy$[ebp]
  00103	f3 0f 11 44 24
	04		 movss	 DWORD PTR [esp+4], xmm0
  00109	f3 0f 10 45 f0	 movss	 xmm0, DWORD PTR _vPos$531057[ebp]
  0010e	f3 0f 11 04 24	 movss	 DWORD PTR [esp], xmm0
  00113	e8 00 00 00 00	 call	 ?GetMapHeight@ioPlayStage@@QAEMMMPBVioGameEntity@@_NM1@Z ; ioPlayStage::GetMapHeight
  00118	d9 5d ec	 fstp	 DWORD PTR _fMapHeight$531058[ebp]

; 468  : 		if( vPos.y < fMapHeight )

  0011b	d9 45 f4	 fld	 DWORD PTR _vPos$531057[ebp+4]
  0011e	d9 45 ec	 fld	 DWORD PTR _fMapHeight$531058[ebp]
  00121	df f1		 fcomip	 ST(1)
  00123	dd d8		 fstp	 ST(0)
  00125	76 0a		 jbe	 SHORT $LN4@Explosion

; 469  : 		{
; 470  : 			vPos.y = fMapHeight;

  00127	f3 0f 10 45 ec	 movss	 xmm0, DWORD PTR _fMapHeight$531058[ebp]
  0012c	f3 0f 11 45 f4	 movss	 DWORD PTR _vPos$531057[ebp+4], xmm0
$LN4@Explosion:

; 471  : 		}
; 472  : 
; 473  : 		ioMapEffect *pEffect = pStage->CreateMapEffect( m_BoomEffect, vPos, GetScale() );

  00131	8b cb		 mov	 ecx, ebx
  00133	e8 00 00 00 00	 call	 ?GetScale@ioWeapon@@QBEABUD3DXVECTOR3@@XZ ; ioWeapon::GetScale
  00138	8b 4d e8	 mov	 ecx, DWORD PTR _pStage$GSCopy$[ebp]
  0013b	50		 push	 eax
  0013c	8d 45 f0	 lea	 eax, DWORD PTR _vPos$531057[ebp]
  0013f	50		 push	 eax
  00140	8d 83 ac 08 00
	00		 lea	 eax, DWORD PTR [ebx+2220]
  00146	50		 push	 eax
  00147	e8 00 00 00 00	 call	 ?CreateMapEffect@ioPlayStage@@QAEPAVioMapEffect@@ABVioHashString@@ABUD3DXVECTOR3@@1@Z ; ioPlayStage::CreateMapEffect

; 474  : 		if( pEffect )

  0014c	3b c6		 cmp	 eax, esi
  0014e	74 0d		 je	 SHORT $LN3@Explosion

; 475  : 		{
; 476  : 			m_EffectID = pEffect->GetUniqueID();

  00150	8b c8		 mov	 ecx, eax
  00152	e8 00 00 00 00	 call	 ?GetUniqueID@ioMapEffect@@QBEKXZ ; ioMapEffect::GetUniqueID
  00157	89 83 c0 08 00
	00		 mov	 DWORD PTR [ebx+2240], eax
$LN3@Explosion:

; 477  : 		}
; 478  : 
; 479  : 		ioWeapon::PlayExplosionSound();

  0015d	8b cb		 mov	 ecx, ebx
  0015f	e8 00 00 00 00	 call	 ?PlayExplosionSound@ioWeapon@@UAEXXZ ; ioWeapon::PlayExplosionSound
$LN9@Explosion:

; 480  : 	}
; 481  : 
; 482  : 	if( m_GroundID != -1 )

  00164	8b 83 bc 08 00
	00		 mov	 eax, DWORD PTR [ebx+2236]
  0016a	5f		 pop	 edi
  0016b	5e		 pop	 esi
  0016c	83 f8 ff	 cmp	 eax, -1
  0016f	74 1b		 je	 SHORT $LN10@Explosion

; 483  : 	{
; 484  : 		ioMapEffect *pEffect = pStage->FindMapEffect( m_GroundID );

  00171	8b 4d e8	 mov	 ecx, DWORD PTR _pStage$GSCopy$[ebp]
  00174	50		 push	 eax
  00175	e8 00 00 00 00	 call	 ?FindMapEffect@ioPlayStage@@QAEPAVioMapEffect@@K@Z ; ioPlayStage::FindMapEffect

; 485  : 		if( pEffect )

  0017a	85 c0		 test	 eax, eax
  0017c	74 0e		 je	 SHORT $LN10@Explosion

; 486  : 		{
; 487  : 			pEffect->EndEffectForce();

  0017e	8b c8		 mov	 ecx, eax
  00180	e8 00 00 00 00	 call	 ?EndEffectForce@ioMapEffect@@QAEXXZ ; ioMapEffect::EndEffectForce

; 488  : 			m_GroundID = -1;

  00185	83 8b bc 08 00
	00 ff		 or	 DWORD PTR [ebx+2236], -1
$LN10@Explosion:

; 489  : 		}
; 490  : 	}
; 491  : 
; 492  : 	DestroyResource( pStage );

  0018c	ff 75 e8	 push	 DWORD PTR _pStage$GSCopy$[ebp]
  0018f	8b 03		 mov	 eax, DWORD PTR [ebx]
  00191	8b cb		 mov	 ecx, ebx
  00193	ff 90 9c 00 00
	00		 call	 DWORD PTR [eax+156]
$LN7@Explosion:

; 493  : }

  00199	8b 4d fc	 mov	 ecx, DWORD PTR __$ArrayPad$[ebp]
  0019c	33 cd		 xor	 ecx, ebp
  0019e	5b		 pop	 ebx
  0019f	e8 00 00 00 00	 call	 @__security_check_cookie@4
  001a4	c9		 leave
  001a5	c2 04 00	 ret	 4
?Explosion@ioLobeliaWeapon@@QAEXPAVioPlayStage@@@Z ENDP	; ioLobeliaWeapon::Explosion
_TEXT	ENDS
PUBLIC	?SetBombDrop@ioLobeliaWeapon@@QAEXXZ		; ioLobeliaWeapon::SetBombDrop
; Function compile flags: /Ogsp
;	COMDAT ?SetBombDrop@ioLobeliaWeapon@@QAEXXZ
_TEXT	SEGMENT
?SetBombDrop@ioLobeliaWeapon@@QAEXXZ PROC		; ioLobeliaWeapon::SetBombDrop, COMDAT
; _this$ = ecx

; 568  : {

  00000	56		 push	 esi
  00001	8b f1		 mov	 esi, ecx

; 569  : 	DWORD dwCurTime = FRAMEGETTIME();

  00003	ff 15 00 00 00
	00		 call	 DWORD PTR __imp_?GetSingleton@ioFrameTimer@@SAAAV1@XZ
  00009	8b c8		 mov	 ecx, eax
  0000b	ff 15 00 00 00
	00		 call	 DWORD PTR __imp_?GetLoopSec@ioFrameTimer@@QBEKXZ

; 570  : 	m_dwDuration = dwCurTime + m_dwDropDuration;
; 571  : 
; 572  : 	m_fMoveSpeed = m_fDropMoveSpeed;

  00011	d9 86 50 09 00
	00		 fld	 DWORD PTR [esi+2384]
  00017	8b 8e 28 09 00
	00		 mov	 ecx, DWORD PTR [esi+2344]
  0001d	d9 9e 4c 09 00
	00		 fstp	 DWORD PTR [esi+2380]

; 573  : 	m_fFloatingPower = m_fDropFloatingPower;

  00023	d9 86 48 09 00
	00		 fld	 DWORD PTR [esi+2376]
  00029	03 c8		 add	 ecx, eax
  0002b	d9 9e 44 09 00
	00		 fstp	 DWORD PTR [esi+2372]
  00031	89 8e 20 09 00
	00		 mov	 DWORD PTR [esi+2336], ecx

; 574  : 
; 575  : 	m_bDropState = true;

  00037	c6 86 5e 09 00
	00 01		 mov	 BYTE PTR [esi+2398], 1
  0003e	5e		 pop	 esi

; 576  : }

  0003f	c3		 ret	 0
?SetBombDrop@ioLobeliaWeapon@@QAEXXZ ENDP		; ioLobeliaWeapon::SetBombDrop
_TEXT	ENDS
PUBLIC	?SetBoomEffect@ioLobeliaWeapon@@QAEXABVioHashString@@@Z ; ioLobeliaWeapon::SetBoomEffect
EXTRN	__imp_??4ioHashString@@QAEAAV0@ABV0@@Z:PROC
; Function compile flags: /Ogsp
;	COMDAT ?SetBoomEffect@ioLobeliaWeapon@@QAEXABVioHashString@@@Z
_TEXT	SEGMENT
_rkName$ = 8						; size = 4
?SetBoomEffect@ioLobeliaWeapon@@QAEXABVioHashString@@@Z PROC ; ioLobeliaWeapon::SetBoomEffect, COMDAT
; _this$ = ecx

; 599  : {

  00000	55		 push	 ebp
  00001	8b ec		 mov	 ebp, esp

; 600  : 	m_BoomEffect = rkName;

  00003	81 c1 ac 08 00
	00		 add	 ecx, 2220		; 000008acH

; 601  : }

  00009	5d		 pop	 ebp

; 600  : 	m_BoomEffect = rkName;

  0000a	ff 25 00 00 00
	00		 jmp	 DWORD PTR __imp_??4ioHashString@@QAEAAV0@ABV0@@Z
?SetBoomEffect@ioLobeliaWeapon@@QAEXABVioHashString@@@Z ENDP ; ioLobeliaWeapon::SetBoomEffect
_TEXT	ENDS
PUBLIC	?IsExplosion@ioLobeliaWeapon@@QBE_NXZ		; ioLobeliaWeapon::IsExplosion
; Function compile flags: /Ogsp
;	COMDAT ?IsExplosion@ioLobeliaWeapon@@QBE_NXZ
_TEXT	SEGMENT
?IsExplosion@ioLobeliaWeapon@@QBE_NXZ PROC		; ioLobeliaWeapon::IsExplosion, COMDAT
; _this$ = ecx

; 605  : 	if( m_State == TS_EXPLOSION )

  00000	83 b9 94 08 00
	00 04		 cmp	 DWORD PTR [ecx+2196], 4
  00007	0f 94 c0	 sete	 al

; 606  : 		return true;
; 607  : 
; 608  : 	return false;
; 609  : }

  0000a	c3		 ret	 0
?IsExplosion@ioLobeliaWeapon@@QBE_NXZ ENDP		; ioLobeliaWeapon::IsExplosion
_TEXT	ENDS
PUBLIC	?IsCanMineExplosion@ioLobeliaWeapon@@UAE_NXZ	; ioLobeliaWeapon::IsCanMineExplosion
EXTRN	?IsCanMineExplosion@ioWeapon@@UAE_NXZ:PROC	; ioWeapon::IsCanMineExplosion
; Function compile flags: /Ogsp
;	COMDAT ?IsCanMineExplosion@ioLobeliaWeapon@@UAE_NXZ
_TEXT	SEGMENT
?IsCanMineExplosion@ioLobeliaWeapon@@UAE_NXZ PROC	; ioLobeliaWeapon::IsCanMineExplosion, COMDAT
; _this$ = ecx

; 612  : {

  00000	56		 push	 esi
  00001	8b f1		 mov	 esi, ecx

; 613  : 	if( !ioWeapon::IsCanMineExplosion() )

  00003	e8 00 00 00 00	 call	 ?IsCanMineExplosion@ioWeapon@@UAE_NXZ ; ioWeapon::IsCanMineExplosion
  00008	84 c0		 test	 al, al
  0000a	75 02		 jne	 SHORT $LN2@IsCanMineE
  0000c	5e		 pop	 esi

; 617  : 		return false;
; 618  : 
; 619  : 	return true;
; 620  : }

  0000d	c3		 ret	 0
$LN2@IsCanMineE:

; 614  : 		return false;
; 615  : 
; 616  : 	if( !IsExplosion() )

  0000e	83 be 94 08 00
	00 04		 cmp	 DWORD PTR [esi+2196], 4
  00015	5e		 pop	 esi
  00016	0f 94 c0	 sete	 al

; 617  : 		return false;
; 618  : 
; 619  : 	return true;
; 620  : }

  00019	c3		 ret	 0
?IsCanMineExplosion@ioLobeliaWeapon@@UAE_NXZ ENDP	; ioLobeliaWeapon::IsCanMineExplosion
_TEXT	ENDS
PUBLIC	?GetCollisionEnableTime@ioLobeliaWeapon@@UBEKXZ	; ioLobeliaWeapon::GetCollisionEnableTime
; Function compile flags: /Ogsp
;	COMDAT ?GetCollisionEnableTime@ioLobeliaWeapon@@UBEKXZ
_TEXT	SEGMENT
?GetCollisionEnableTime@ioLobeliaWeapon@@UBEKXZ PROC	; ioLobeliaWeapon::GetCollisionEnableTime, COMDAT
; _this$ = ecx

; 674  : {

  00000	56		 push	 esi
  00001	8b f1		 mov	 esi, ecx

; 675  : 	if( m_State == TS_EXPLOSION )

  00003	83 be 94 08 00
	00 04		 cmp	 DWORD PTR [esi+2196], 4
  0000a	75 08		 jne	 SHORT $LN1@GetCollisi

; 676  : 		return m_dwCreatedTime;

  0000c	8b 86 d4 04 00
	00		 mov	 eax, DWORD PTR [esi+1236]
  00012	5e		 pop	 esi

; 679  : }

  00013	c3		 ret	 0
$LN1@GetCollisi:

; 677  : 
; 678  : 	return m_dwCreatedTime + GetAttribute()->m_dwCollisionDelay;

  00014	8b 06		 mov	 eax, DWORD PTR [esi]
  00016	ff 90 3c 01 00
	00		 call	 DWORD PTR [eax+316]
  0001c	8b 80 c4 01 00
	00		 mov	 eax, DWORD PTR [eax+452]
  00022	03 86 d4 04 00
	00		 add	 eax, DWORD PTR [esi+1236]
  00028	5e		 pop	 esi

; 679  : }

  00029	c3		 ret	 0
?GetCollisionEnableTime@ioLobeliaWeapon@@UBEKXZ ENDP	; ioLobeliaWeapon::GetCollisionEnableTime
_TEXT	ENDS
PUBLIC	_pStage$GSCopy$
PUBLIC	__$ArrayPad$
PUBLIC	?SetGroundState@ioLobeliaWeapon@@QAEXPAVioPlayStage@@@Z ; ioLobeliaWeapon::SetGroundState
; Function compile flags: /Ogsp
;	COMDAT ?SetGroundState@ioLobeliaWeapon@@QAEXPAVioPlayStage@@@Z
_TEXT	SEGMENT
_pStage$GSCopy$ = -20					; size = 4
_vPos$531183 = -16					; size = 12
__$ArrayPad$ = -4					; size = 4
_pStage$ = 8						; size = 4
?SetGroundState@ioLobeliaWeapon@@QAEXPAVioPlayStage@@@Z PROC ; ioLobeliaWeapon::SetGroundState, COMDAT
; _this$ = ecx

; 690  : {

  00000	55		 push	 ebp
  00001	8b ec		 mov	 ebp, esp
  00003	83 ec 14	 sub	 esp, 20			; 00000014H
  00006	a1 00 00 00 00	 mov	 eax, DWORD PTR ___security_cookie
  0000b	33 c5		 xor	 eax, ebp
  0000d	89 45 fc	 mov	 DWORD PTR __$ArrayPad$[ebp], eax

; 719  : 	}
; 720  : 
; 721  : 	DestroyResource( pStage );

  00010	8b 45 08	 mov	 eax, DWORD PTR _pStage$[ebp]
  00013	53		 push	 ebx
  00014	8b d9		 mov	 ebx, ecx
  00016	8b 8b 94 08 00
	00		 mov	 ecx, DWORD PTR [ebx+2196]
  0001c	6a 03		 push	 3
  0001e	5a		 pop	 edx
  0001f	89 45 ec	 mov	 DWORD PTR _pStage$GSCopy$[ebp], eax
  00022	3b ca		 cmp	 ecx, edx
  00024	7c 09		 jl	 SHORT $LN5@SetGroundS

; 691  : 	switch( m_State )

  00026	83 f9 04	 cmp	 ecx, 4
  00029	0f 8e d3 00 00
	00		 jle	 $LN7@SetGroundS
$LN5@SetGroundS:

; 692  : 	{
; 693  : 	case TS_MOVE:
; 694  : 	case TS_PINGPONG:
; 695  : 		break;
; 696  : 	case TS_GROUND:
; 697  : 	case TS_EXPLOSION:
; 698  : 		return;
; 699  : 	}
; 700  : 
; 701  : 	m_State = TS_GROUND;

  0002f	89 93 94 08 00
	00		 mov	 DWORD PTR [ebx+2196], edx

; 702  : 	m_dwGroundStart = FRAMEGETTIME();

  00035	ff 15 00 00 00
	00		 call	 DWORD PTR __imp_?GetSingleton@ioFrameTimer@@SAAAV1@XZ
  0003b	8b c8		 mov	 ecx, eax
  0003d	ff 15 00 00 00
	00		 call	 DWORD PTR __imp_?GetLoopSec@ioFrameTimer@@QBEKXZ
  00043	89 83 2c 09 00
	00		 mov	 DWORD PTR [ebx+2348], eax

; 703  : 	ClearCollisionList();

  00049	8b 03		 mov	 eax, DWORD PTR [ebx]
  0004b	8b cb		 mov	 ecx, ebx
  0004d	ff 90 4c 01 00
	00		 call	 DWORD PTR [eax+332]

; 704  : 
; 705  : 	if( !m_GroundEffect.IsEmpty() )

  00053	8d 8b 9c 08 00
	00		 lea	 ecx, DWORD PTR [ebx+2204]
  00059	ff 15 00 00 00
	00		 call	 DWORD PTR __imp_?IsEmpty@ioHashString@@QBE_NXZ
  0005f	84 c0		 test	 al, al
  00061	0f 85 8e 00 00
	00		 jne	 $LN2@SetGroundS

; 706  : 	{
; 707  : 		D3DXVECTOR3 vPos = GetPosition();

  00067	8b 03		 mov	 eax, DWORD PTR [ebx]
  00069	56		 push	 esi
  0006a	57		 push	 edi
  0006b	8b cb		 mov	 ecx, ebx
  0006d	ff 50 70	 call	 DWORD PTR [eax+112]

; 708  : 
; 709  : 		float fMapHeight = pStage->GetMapHeight( vPos.x, vPos.z, NULL, false, vPos.y+m_fExtentsOffSet );
; 710  : 		vPos.y = fMapHeight;

  00070	f3 0f 10 83 58
	09 00 00	 movss	 xmm0, DWORD PTR [ebx+2392]
  00078	8b f0		 mov	 esi, eax
  0007a	8d 7d f0	 lea	 edi, DWORD PTR _vPos$531183[ebp]
  0007d	a5		 movsd
  0007e	a5		 movsd
  0007f	a5		 movsd
  00080	f3 0f 10 4d f4	 movss	 xmm1, DWORD PTR _vPos$531183[ebp+4]
  00085	33 f6		 xor	 esi, esi
  00087	56		 push	 esi
  00088	51		 push	 ecx
  00089	0f 5a c0	 cvtps2pd xmm0, xmm0
  0008c	0f 5a c9	 cvtps2pd xmm1, xmm1
  0008f	f2 0f 58 c1	 addsd	 xmm0, xmm1
  00093	66 0f 5a c0	 cvtpd2ps xmm0, xmm0
  00097	f3 0f 11 04 24	 movss	 DWORD PTR [esp], xmm0
  0009c	f3 0f 10 45 f8	 movss	 xmm0, DWORD PTR _vPos$531183[ebp+8]
  000a1	56		 push	 esi
  000a2	56		 push	 esi
  000a3	51		 push	 ecx
  000a4	51		 push	 ecx
  000a5	8b 4d ec	 mov	 ecx, DWORD PTR _pStage$GSCopy$[ebp]
  000a8	f3 0f 11 44 24
	04		 movss	 DWORD PTR [esp+4], xmm0
  000ae	f3 0f 10 45 f0	 movss	 xmm0, DWORD PTR _vPos$531183[ebp]
  000b3	f3 0f 11 04 24	 movss	 DWORD PTR [esp], xmm0
  000b8	e8 00 00 00 00	 call	 ?GetMapHeight@ioPlayStage@@QAEMMMPBVioGameEntity@@_NM1@Z ; ioPlayStage::GetMapHeight
  000bd	d9 5d f4	 fstp	 DWORD PTR _vPos$531183[ebp+4]

; 711  : 
; 712  : 		ioMapEffect *pEffect = pStage->CreateMapEffect( m_GroundEffect, vPos, GetScale() );

  000c0	8b cb		 mov	 ecx, ebx
  000c2	e8 00 00 00 00	 call	 ?GetScale@ioWeapon@@QBEABUD3DXVECTOR3@@XZ ; ioWeapon::GetScale
  000c7	8b 4d ec	 mov	 ecx, DWORD PTR _pStage$GSCopy$[ebp]
  000ca	50		 push	 eax
  000cb	8d 45 f0	 lea	 eax, DWORD PTR _vPos$531183[ebp]
  000ce	50		 push	 eax
  000cf	8d 83 9c 08 00
	00		 lea	 eax, DWORD PTR [ebx+2204]
  000d5	50		 push	 eax
  000d6	e8 00 00 00 00	 call	 ?CreateMapEffect@ioPlayStage@@QAEPAVioMapEffect@@ABVioHashString@@ABUD3DXVECTOR3@@1@Z ; ioPlayStage::CreateMapEffect
  000db	5f		 pop	 edi

; 713  : 		if( pEffect )

  000dc	3b c6		 cmp	 eax, esi
  000de	5e		 pop	 esi
  000df	74 0d		 je	 SHORT $LN1@SetGroundS

; 714  : 		{
; 715  : 			m_GroundID = pEffect->GetUniqueID();

  000e1	8b c8		 mov	 ecx, eax
  000e3	e8 00 00 00 00	 call	 ?GetUniqueID@ioMapEffect@@QBEKXZ ; ioMapEffect::GetUniqueID
  000e8	89 83 bc 08 00
	00		 mov	 DWORD PTR [ebx+2236], eax
$LN1@SetGroundS:

; 716  : 		}
; 717  : 
; 718  : 		ioWeapon::PlayExplosionSound();

  000ee	8b cb		 mov	 ecx, ebx
  000f0	e8 00 00 00 00	 call	 ?PlayExplosionSound@ioWeapon@@UAEXXZ ; ioWeapon::PlayExplosionSound
$LN2@SetGroundS:

; 719  : 	}
; 720  : 
; 721  : 	DestroyResource( pStage );

  000f5	ff 75 ec	 push	 DWORD PTR _pStage$GSCopy$[ebp]
  000f8	8b 03		 mov	 eax, DWORD PTR [ebx]
  000fa	8b cb		 mov	 ecx, ebx
  000fc	ff 90 9c 00 00
	00		 call	 DWORD PTR [eax+156]
$LN7@SetGroundS:

; 722  : }

  00102	8b 4d fc	 mov	 ecx, DWORD PTR __$ArrayPad$[ebp]
  00105	33 cd		 xor	 ecx, ebp
  00107	5b		 pop	 ebx
  00108	e8 00 00 00 00	 call	 @__security_check_cookie@4
  0010d	c9		 leave
  0010e	c2 04 00	 ret	 4
?SetGroundState@ioLobeliaWeapon@@QAEXPAVioPlayStage@@@Z ENDP ; ioLobeliaWeapon::SetGroundState
_TEXT	ENDS
PUBLIC	?OnGroundState@ioLobeliaWeapon@@IAEXMPAVioPlayStage@@@Z ; ioLobeliaWeapon::OnGroundState
; Function compile flags: /Ogsp
;	COMDAT ?OnGroundState@ioLobeliaWeapon@@IAEXMPAVioPlayStage@@@Z
_TEXT	SEGMENT
_vPos$ = -12						; size = 12
_fTimePerSec$ = 8					; size = 4
tv225 = 12						; size = 4
tv168 = 12						; size = 4
_fMapHeight$ = 12					; size = 4
_pStage$ = 12						; size = 4
?OnGroundState@ioLobeliaWeapon@@IAEXMPAVioPlayStage@@@Z PROC ; ioLobeliaWeapon::OnGroundState, COMDAT
; _this$ = ecx

; 725  : {

  00000	55		 push	 ebp
  00001	8b ec		 mov	 ebp, esp
  00003	83 ec 0c	 sub	 esp, 12			; 0000000cH
  00006	53		 push	 ebx
  00007	8b d9		 mov	 ebx, ecx

; 726  : 	if( m_dwGroundDuration == 0 )

  00009	83 bb 30 09 00
	00 00		 cmp	 DWORD PTR [ebx+2352], 0

; 727  : 	{
; 728  : 		SetWeaponDead();
; 729  : 		return;

  00010	0f 84 b8 00 00
	00		 je	 $LN10@OnGroundSt

; 730  : 	}
; 731  : 
; 732  : 	DWORD dwCurTime = FRAMEGETTIME();

  00016	ff 15 00 00 00
	00		 call	 DWORD PTR __imp_?GetSingleton@ioFrameTimer@@SAAAV1@XZ
  0001c	8b c8		 mov	 ecx, eax
  0001e	ff 15 00 00 00
	00		 call	 DWORD PTR __imp_?GetLoopSec@ioFrameTimer@@QBEKXZ

; 733  : 	if( dwCurTime - m_dwGroundStart > m_dwGroundDuration )

  00024	2b 83 2c 09 00
	00		 sub	 eax, DWORD PTR [ebx+2348]

; 734  : 	{
; 735  : 		//Explosion( pStage );
; 736  : 		SetWeaponDead();

  0002a	8b cb		 mov	 ecx, ebx
  0002c	3b 83 30 09 00
	00		 cmp	 eax, DWORD PTR [ebx+2352]
  00032	8b 03		 mov	 eax, DWORD PTR [ebx]

; 737  : 		return;

  00034	0f 87 96 00 00
	00		 ja	 $LN11@OnGroundSt

; 738  : 	}
; 739  : 
; 740  : 	D3DXVECTOR3 vPos = GetPosition();

  0003a	56		 push	 esi
  0003b	57		 push	 edi
  0003c	ff 50 70	 call	 DWORD PTR [eax+112]

; 741  : 	float fMapHeight = pStage->GetMapHeight( vPos.x, vPos.z, NULL, false, vPos.y+m_fExtentsOffSet );

  0003f	f3 0f 10 83 58
	09 00 00	 movss	 xmm0, DWORD PTR [ebx+2392]
  00047	8b f0		 mov	 esi, eax
  00049	8d 7d f4	 lea	 edi, DWORD PTR _vPos$[ebp]
  0004c	a5		 movsd
  0004d	a5		 movsd
  0004e	33 c0		 xor	 eax, eax
  00050	50		 push	 eax
  00051	a5		 movsd
  00052	f3 0f 10 4d f8	 movss	 xmm1, DWORD PTR _vPos$[ebp+4]
  00057	51		 push	 ecx
  00058	0f 5a c0	 cvtps2pd xmm0, xmm0
  0005b	0f 5a c9	 cvtps2pd xmm1, xmm1
  0005e	f2 0f 58 c1	 addsd	 xmm0, xmm1
  00062	66 0f 5a c0	 cvtpd2ps xmm0, xmm0
  00066	f3 0f 11 04 24	 movss	 DWORD PTR [esp], xmm0
  0006b	f3 0f 10 45 fc	 movss	 xmm0, DWORD PTR _vPos$[ebp+8]
  00070	50		 push	 eax
  00071	50		 push	 eax
  00072	51		 push	 ecx
  00073	51		 push	 ecx
  00074	8b 4d 0c	 mov	 ecx, DWORD PTR _pStage$[ebp]
  00077	f3 0f 11 44 24
	04		 movss	 DWORD PTR [esp+4], xmm0
  0007d	f3 0f 10 45 f4	 movss	 xmm0, DWORD PTR _vPos$[ebp]
  00082	f3 0f 11 04 24	 movss	 DWORD PTR [esp], xmm0
  00087	e8 00 00 00 00	 call	 ?GetMapHeight@ioPlayStage@@QAEMMMPBVioGameEntity@@_NM1@Z ; ioPlayStage::GetMapHeight
  0008c	d9 5d 0c	 fstp	 DWORD PTR _fMapHeight$[ebp]

; 742  : 	if( vPos.y > fMapHeight )

  0008f	d9 45 0c	 fld	 DWORD PTR _fMapHeight$[ebp]
  00092	5f		 pop	 edi
  00093	d9 45 f8	 fld	 DWORD PTR _vPos$[ebp+4]
  00096	5e		 pop	 esi
  00097	df f1		 fcomip	 ST(1)
  00099	dd d8		 fstp	 ST(0)
  0009b	76 36		 jbe	 SHORT $LN1@OnGroundSt

; 743  : 	{
; 744  : 		float fGap = vPos.y - fMapHeight;
; 745  : 		if( fGap > m_fExtentsOffSet+FLOAT10 )

  0009d	b8 0a 00 00 00	 mov	 eax, 10			; 0000000aH
  000a2	d9 45 f8	 fld	 DWORD PTR _vPos$[ebp+4]
  000a5	d8 65 0c	 fsub	 DWORD PTR _fMapHeight$[ebp]
  000a8	d9 5d 0c	 fstp	 DWORD PTR tv225[ebp]
  000ab	d9 45 0c	 fld	 DWORD PTR tv225[ebp]
  000ae	89 45 0c	 mov	 DWORD PTR tv168[ebp], eax
  000b1	db 45 0c	 fild	 DWORD PTR tv168[ebp]
  000b4	85 c0		 test	 eax, eax
  000b6	79 06		 jns	 SHORT $LN9@OnGroundSt
  000b8	d8 05 00 00 00
	00		 fadd	 DWORD PTR __real@4f800000
$LN9@OnGroundSt:
  000be	d8 83 58 09 00
	00		 fadd	 DWORD PTR [ebx+2392]
  000c4	d9 c9		 fxch	 ST(1)
  000c6	df f1		 fcomip	 ST(1)
  000c8	dd d8		 fstp	 ST(0)
  000ca	76 07		 jbe	 SHORT $LN1@OnGroundSt

; 746  : 		{
; 747  : 			SetWeaponDead();

  000cc	8b cb		 mov	 ecx, ebx
$LN10@OnGroundSt:
  000ce	8b 03		 mov	 eax, DWORD PTR [ebx]
$LN11@OnGroundSt:
  000d0	ff 50 4c	 call	 DWORD PTR [eax+76]
$LN1@OnGroundSt:
  000d3	5b		 pop	 ebx

; 748  : 			return;
; 749  : 		}
; 750  : 	}
; 751  : }

  000d4	c9		 leave
  000d5	c2 08 00	 ret	 8
?OnGroundState@ioLobeliaWeapon@@IAEXMPAVioPlayStage@@@Z ENDP ; ioLobeliaWeapon::OnGroundState
_TEXT	ENDS
PUBLIC	?IsGroundState@ioLobeliaWeapon@@QBE_NXZ		; ioLobeliaWeapon::IsGroundState
; Function compile flags: /Ogsp
;	COMDAT ?IsGroundState@ioLobeliaWeapon@@QBE_NXZ
_TEXT	SEGMENT
?IsGroundState@ioLobeliaWeapon@@QBE_NXZ PROC		; ioLobeliaWeapon::IsGroundState, COMDAT
; _this$ = ecx

; 755  : 	if( m_State == TS_GROUND )

  00000	83 b9 94 08 00
	00 03		 cmp	 DWORD PTR [ecx+2196], 3
  00007	0f 94 c0	 sete	 al

; 756  : 		return true;
; 757  : 
; 758  : 	return false;
; 759  : }

  0000a	c3		 ret	 0
?IsGroundState@ioLobeliaWeapon@@QBE_NXZ ENDP		; ioLobeliaWeapon::IsGroundState
_TEXT	ENDS
PUBLIC	?GetTargetAirBuffList@ioLobeliaWeapon@@UBEABV?$vector@UBuffInfoStruct@@V?$allocator@UBuffInfoStruct@@@std@@@std@@XZ ; ioLobeliaWeapon::GetTargetAirBuffList
; Function compile flags: /Ogsp
;	COMDAT ?GetTargetAirBuffList@ioLobeliaWeapon@@UBEABV?$vector@UBuffInfoStruct@@V?$allocator@UBuffInfoStruct@@@std@@@std@@XZ
_TEXT	SEGMENT
?GetTargetAirBuffList@ioLobeliaWeapon@@UBEABV?$vector@UBuffInfoStruct@@V?$allocator@UBuffInfoStruct@@@std@@@std@@XZ PROC ; ioLobeliaWeapon::GetTargetAirBuffList, COMDAT
; _this$ = ecx

; 981  : 	if( m_State != TS_EXPLOSION )

  00000	83 b9 94 08 00
	00 04		 cmp	 DWORD PTR [ecx+2196], 4
  00007	74 0e		 je	 SHORT $LN1@GetTargetA

; 982  : 		return GetAttribute()->m_TargetAirBuffList;

  00009	8b 01		 mov	 eax, DWORD PTR [ecx]
  0000b	ff 90 3c 01 00
	00		 call	 DWORD PTR [eax+316]
  00011	05 d4 01 00 00	 add	 eax, 468		; 000001d4H

; 985  : }

  00016	c3		 ret	 0
$LN1@GetTargetA:

; 983  : 
; 984  : 	return m_LobeliaBuffList;

  00017	8d 81 18 0b 00
	00		 lea	 eax, DWORD PTR [ecx+2840]

; 985  : }

  0001d	c3		 ret	 0
?GetTargetAirBuffList@ioLobeliaWeapon@@UBEABV?$vector@UBuffInfoStruct@@V?$allocator@UBuffInfoStruct@@@std@@@std@@XZ ENDP ; ioLobeliaWeapon::GetTargetAirBuffList
_TEXT	ENDS
PUBLIC	?GetTargetBuffList@ioLobeliaWeapon@@UBEABV?$vector@UBuffInfoStruct@@V?$allocator@UBuffInfoStruct@@@std@@@std@@XZ ; ioLobeliaWeapon::GetTargetBuffList
; Function compile flags: /Ogsp
;	COMDAT ?GetTargetBuffList@ioLobeliaWeapon@@UBEABV?$vector@UBuffInfoStruct@@V?$allocator@UBuffInfoStruct@@@std@@@std@@XZ
_TEXT	SEGMENT
?GetTargetBuffList@ioLobeliaWeapon@@UBEABV?$vector@UBuffInfoStruct@@V?$allocator@UBuffInfoStruct@@@std@@@std@@XZ PROC ; ioLobeliaWeapon::GetTargetBuffList, COMDAT
; _this$ = ecx

; 989  : 	if( m_State != TS_EXPLOSION )

  00000	83 b9 94 08 00
	00 04		 cmp	 DWORD PTR [ecx+2196], 4
  00007	74 0e		 je	 SHORT $LN1@GetTargetB

; 990  : 		return GetAttribute()->m_TargetBuffList;

  00009	8b 01		 mov	 eax, DWORD PTR [ecx]
  0000b	ff 90 3c 01 00
	00		 call	 DWORD PTR [eax+316]
  00011	05 e4 01 00 00	 add	 eax, 484		; 000001e4H

; 993  : }

  00016	c3		 ret	 0
$LN1@GetTargetB:

; 991  : 
; 992  : 	return m_LobeliaBuffList;

  00017	8d 81 18 0b 00
	00		 lea	 eax, DWORD PTR [ecx+2840]

; 993  : }

  0001d	c3		 ret	 0
?GetTargetBuffList@ioLobeliaWeapon@@UBEABV?$vector@UBuffInfoStruct@@V?$allocator@UBuffInfoStruct@@@std@@@std@@XZ ENDP ; ioLobeliaWeapon::GetTargetBuffList
_TEXT	ENDS
PUBLIC	?GetTargetDownBuffList@ioLobeliaWeapon@@UBEABV?$vector@UBuffInfoStruct@@V?$allocator@UBuffInfoStruct@@@std@@@std@@XZ ; ioLobeliaWeapon::GetTargetDownBuffList
; Function compile flags: /Ogsp
;	COMDAT ?GetTargetDownBuffList@ioLobeliaWeapon@@UBEABV?$vector@UBuffInfoStruct@@V?$allocator@UBuffInfoStruct@@@std@@@std@@XZ
_TEXT	SEGMENT
?GetTargetDownBuffList@ioLobeliaWeapon@@UBEABV?$vector@UBuffInfoStruct@@V?$allocator@UBuffInfoStruct@@@std@@@std@@XZ PROC ; ioLobeliaWeapon::GetTargetDownBuffList, COMDAT
; _this$ = ecx

; 997  : 	if( m_State != TS_EXPLOSION )

  00000	83 b9 94 08 00
	00 04		 cmp	 DWORD PTR [ecx+2196], 4
  00007	74 0e		 je	 SHORT $LN1@GetTargetD

; 998  : 		return GetAttribute()->m_TargetDownBuffList;

  00009	8b 01		 mov	 eax, DWORD PTR [ecx]
  0000b	ff 90 3c 01 00
	00		 call	 DWORD PTR [eax+316]
  00011	05 f4 01 00 00	 add	 eax, 500		; 000001f4H

; 1001 : }

  00016	c3		 ret	 0
$LN1@GetTargetD:

; 999  : 
; 1000 : 	return m_LobeliaBuffList;

  00017	8d 81 18 0b 00
	00		 lea	 eax, DWORD PTR [ecx+2840]

; 1001 : }

  0001d	c3		 ret	 0
?GetTargetDownBuffList@ioLobeliaWeapon@@UBEABV?$vector@UBuffInfoStruct@@V?$allocator@UBuffInfoStruct@@@std@@@std@@XZ ENDP ; ioLobeliaWeapon::GetTargetDownBuffList
_TEXT	ENDS
PUBLIC	?_Inside@?$vector@UBuffInfoStruct@@V?$allocator@UBuffInfoStruct@@@std@@@std@@IBE_NPBUBuffInfoStruct@@@Z ; std::vector<BuffInfoStruct,std::allocator<BuffInfoStruct> >::_Inside
; Function compile flags: /Ogsp
; File c:\program files (x86)\microsoft visual studio 10.0\vc\include\vector
;	COMDAT ?_Inside@?$vector@UBuffInfoStruct@@V?$allocator@UBuffInfoStruct@@@std@@@std@@IBE_NPBUBuffInfoStruct@@@Z
_TEXT	SEGMENT
__Ptr$ = 8						; size = 4
?_Inside@?$vector@UBuffInfoStruct@@V?$allocator@UBuffInfoStruct@@@std@@@std@@IBE_NPBUBuffInfoStruct@@@Z PROC ; std::vector<BuffInfoStruct,std::allocator<BuffInfoStruct> >::_Inside, COMDAT
; _this$ = ecx

; 1285 : 		{	// test if _Ptr points inside vector

  00000	55		 push	 ebp
  00001	8b ec		 mov	 ebp, esp

; 1286 : 		return (_Ptr < this->_Mylast && this->_Myfirst <= _Ptr);

  00003	8b 45 08	 mov	 eax, DWORD PTR __Ptr$[ebp]
  00006	3b 41 04	 cmp	 eax, DWORD PTR [ecx+4]
  00009	73 09		 jae	 SHORT $LN3@Inside
  0000b	39 01		 cmp	 DWORD PTR [ecx], eax
  0000d	77 05		 ja	 SHORT $LN3@Inside
  0000f	33 c0		 xor	 eax, eax
  00011	40		 inc	 eax
  00012	eb 02		 jmp	 SHORT $LN4@Inside
$LN3@Inside:
  00014	33 c0		 xor	 eax, eax
$LN4@Inside:

; 1287 : 		}

  00016	5d		 pop	 ebp
  00017	c2 04 00	 ret	 4
?_Inside@?$vector@UBuffInfoStruct@@V?$allocator@UBuffInfoStruct@@@std@@@std@@IBE_NPBUBuffInfoStruct@@@Z ENDP ; std::vector<BuffInfoStruct,std::allocator<BuffInfoStruct> >::_Inside
_TEXT	ENDS
PUBLIC	?_Orphan_range@?$vector@UBuffInfoStruct@@V?$allocator@UBuffInfoStruct@@@std@@@std@@IBEXPAUBuffInfoStruct@@0@Z ; std::vector<BuffInfoStruct,std::allocator<BuffInfoStruct> >::_Orphan_range
; Function compile flags: /Ogsp
;	COMDAT ?_Orphan_range@?$vector@UBuffInfoStruct@@V?$allocator@UBuffInfoStruct@@@std@@@std@@IBEXPAUBuffInfoStruct@@0@Z
_TEXT	SEGMENT
___formal$ = 8						; size = 4
___formal$ = 12						; size = 4
?_Orphan_range@?$vector@UBuffInfoStruct@@V?$allocator@UBuffInfoStruct@@@std@@@std@@IBEXPAUBuffInfoStruct@@0@Z PROC ; std::vector<BuffInfoStruct,std::allocator<BuffInfoStruct> >::_Orphan_range, COMDAT
; _this$ = ecx

; 1454 : 		}

  00000	c2 08 00	 ret	 8
?_Orphan_range@?$vector@UBuffInfoStruct@@V?$allocator@UBuffInfoStruct@@@std@@@std@@IBEXPAUBuffInfoStruct@@0@Z ENDP ; std::vector<BuffInfoStruct,std::allocator<BuffInfoStruct> >::_Orphan_range
_TEXT	ENDS
PUBLIC	??0D3DXVECTOR3@@QAE@XZ				; D3DXVECTOR3::D3DXVECTOR3
; Function compile flags: /Ogsp
; File c:\program files (x86)\microsoft directx sdk (june 2010)\include\d3dx9math.h
;	COMDAT ??0D3DXVECTOR3@@QAE@XZ
_TEXT	SEGMENT
??0D3DXVECTOR3@@QAE@XZ PROC				; D3DXVECTOR3::D3DXVECTOR3, COMDAT
; _this$ = ecx

; 165  :     D3DXVECTOR3() {};

  00000	8b c1		 mov	 eax, ecx
  00002	c3		 ret	 0
??0D3DXVECTOR3@@QAE@XZ ENDP				; D3DXVECTOR3::D3DXVECTOR3
_TEXT	ENDS
PUBLIC	??0D3DXQUATERNION@@QAE@XZ			; D3DXQUATERNION::D3DXQUATERNION
; Function compile flags: /Ogsp
;	COMDAT ??0D3DXQUATERNION@@QAE@XZ
_TEXT	SEGMENT
??0D3DXQUATERNION@@QAE@XZ PROC				; D3DXQUATERNION::D3DXQUATERNION, COMDAT
; _this$ = ecx

; 429  :     D3DXQUATERNION() {}

  00000	8b c1		 mov	 eax, ecx
  00002	c3		 ret	 0
??0D3DXQUATERNION@@QAE@XZ ENDP				; D3DXQUATERNION::D3DXQUATERNION
_TEXT	ENDS
PUBLIC	__real@3f91df46a2526c7a
PUBLIC	??$DEGtoRAD@M@@YAMM@Z				; DEGtoRAD<float>
;	COMDAT __real@3f91df46a2526c7a
; File d:\lost saga for developer\youtube\tutorial\source\src\lsclient\veryoftenusedefine.h
CONST	SEGMENT
__real@3f91df46a2526c7a DQ 03f91df46a2526c7ar	; 0.0174533
; Function compile flags: /Ogsp
CONST	ENDS
;	COMDAT ??$DEGtoRAD@M@@YAMM@Z
_TEXT	SEGMENT
tv129 = 8						; size = 4
_val$ = 8						; size = 4
??$DEGtoRAD@M@@YAMM@Z PROC				; DEGtoRAD<float>, COMDAT

; 20   : type  DEGtoRAD (type val) {return (type) (val * 0.0174532925199);}

  00000	55		 push	 ebp
  00001	8b ec		 mov	 ebp, esp
  00003	d9 45 08	 fld	 DWORD PTR _val$[ebp]
  00006	dc 0d 00 00 00
	00		 fmul	 QWORD PTR __real@3f91df46a2526c7a
  0000c	d9 5d 08	 fstp	 DWORD PTR tv129[ebp]
  0000f	d9 45 08	 fld	 DWORD PTR tv129[ebp]
  00012	5d		 pop	 ebp
  00013	c3		 ret	 0
??$DEGtoRAD@M@@YAMM@Z ENDP				; DEGtoRAD<float>
_TEXT	ENDS
PUBLIC	??$addressof@$$CBUBuffInfoStruct@@@std@@YAPBUBuffInfoStruct@@ABU1@@Z ; std::addressof<BuffInfoStruct const >
; Function compile flags: /Ogsp
; File c:\program files (x86)\microsoft visual studio 10.0\vc\include\xmemory
;	COMDAT ??$addressof@$$CBUBuffInfoStruct@@@std@@YAPBUBuffInfoStruct@@ABU1@@Z
_TEXT	SEGMENT
__Val$ = 8						; size = 4
??$addressof@$$CBUBuffInfoStruct@@@std@@YAPBUBuffInfoStruct@@ABU1@@Z PROC ; std::addressof<BuffInfoStruct const >, COMDAT

; 110  : 	{	// return address of _Val

  00000	55		 push	 ebp
  00001	8b ec		 mov	 ebp, esp

; 111  : 	return ((_Ty *) &(char&)_Val);

  00003	8b 45 08	 mov	 eax, DWORD PTR __Val$[ebp]

; 112  : 	}

  00006	5d		 pop	 ebp
  00007	c3		 ret	 0
??$addressof@$$CBUBuffInfoStruct@@@std@@YAPBUBuffInfoStruct@@ABU1@@Z ENDP ; std::addressof<BuffInfoStruct const >
_TEXT	ENDS
PUBLIC	??$forward@ABUBuffInfoStruct@@@std@@YAABUBuffInfoStruct@@ABU1@@Z ; std::forward<BuffInfoStruct const &>
; Function compile flags: /Ogsp
; File c:\program files (x86)\microsoft visual studio 10.0\vc\include\utility
;	COMDAT ??$forward@ABUBuffInfoStruct@@@std@@YAABUBuffInfoStruct@@ABU1@@Z
_TEXT	SEGMENT
__Arg$ = 8						; size = 4
??$forward@ABUBuffInfoStruct@@@std@@YAABUBuffInfoStruct@@ABU1@@Z PROC ; std::forward<BuffInfoStruct const &>, COMDAT

; 78   : 	{	// forward _Arg, given explicitly specified type parameter

  00000	55		 push	 ebp
  00001	8b ec		 mov	 ebp, esp

; 79   : 	return ((_Ty&&)_Arg);

  00003	8b 45 08	 mov	 eax, DWORD PTR __Arg$[ebp]

; 80   : 	}

  00006	5d		 pop	 ebp
  00007	c3		 ret	 0
??$forward@ABUBuffInfoStruct@@@std@@YAABUBuffInfoStruct@@ABU1@@Z ENDP ; std::forward<BuffInfoStruct const &>
_TEXT	ENDS
PUBLIC	??$_Val_type@PAUBuffInfoStruct@@@std@@YAPAUBuffInfoStruct@@PAU1@@Z ; std::_Val_type<BuffInfoStruct *>
; Function compile flags: /Ogsp
; File c:\program files (x86)\microsoft visual studio 10.0\vc\include\xutility
;	COMDAT ??$_Val_type@PAUBuffInfoStruct@@@std@@YAPAUBuffInfoStruct@@PAU1@@Z
_TEXT	SEGMENT
___formal$ = 8						; size = 4
??$_Val_type@PAUBuffInfoStruct@@@std@@YAPAUBuffInfoStruct@@PAU1@@Z PROC ; std::_Val_type<BuffInfoStruct *>, COMDAT

; 790  : 	return (0);

  00000	33 c0		 xor	 eax, eax

; 791  : 	}

  00002	c3		 ret	 0
??$_Val_type@PAUBuffInfoStruct@@@std@@YAPAUBuffInfoStruct@@PAU1@@Z ENDP ; std::_Val_type<BuffInfoStruct *>
_TEXT	ENDS
PUBLIC	??0D3DXVECTOR3@@QAE@MMM@Z			; D3DXVECTOR3::D3DXVECTOR3
; Function compile flags: /Ogsp
; File c:\program files (x86)\microsoft directx sdk (june 2010)\include\d3dx9math.inl
;	COMDAT ??0D3DXVECTOR3@@QAE@MMM@Z
_TEXT	SEGMENT
_fx$ = 8						; size = 4
_fy$ = 12						; size = 4
_fz$ = 16						; size = 4
??0D3DXVECTOR3@@QAE@MMM@Z PROC				; D3DXVECTOR3::D3DXVECTOR3, COMDAT
; _this$ = ecx

; 303  : {

  00000	55		 push	 ebp
  00001	8b ec		 mov	 ebp, esp

; 304  :     x = fx;

  00003	f3 0f 10 45 08	 movss	 xmm0, DWORD PTR _fx$[ebp]
  00008	8b c1		 mov	 eax, ecx
  0000a	f3 0f 11 00	 movss	 DWORD PTR [eax], xmm0

; 305  :     y = fy;

  0000e	f3 0f 10 45 0c	 movss	 xmm0, DWORD PTR _fy$[ebp]
  00013	f3 0f 11 40 04	 movss	 DWORD PTR [eax+4], xmm0

; 306  :     z = fz;

  00018	f3 0f 10 45 10	 movss	 xmm0, DWORD PTR _fz$[ebp]
  0001d	f3 0f 11 40 08	 movss	 DWORD PTR [eax+8], xmm0

; 307  : }

  00022	5d		 pop	 ebp
  00023	c2 0c 00	 ret	 12			; 0000000cH
??0D3DXVECTOR3@@QAE@MMM@Z ENDP				; D3DXVECTOR3::D3DXVECTOR3
_TEXT	ENDS
PUBLIC	??YD3DXVECTOR3@@QAEAAU0@ABU0@@Z			; D3DXVECTOR3::operator+=
; Function compile flags: /Ogsp
;	COMDAT ??YD3DXVECTOR3@@QAEAAU0@ABU0@@Z
_TEXT	SEGMENT
_v$ = 8							; size = 4
??YD3DXVECTOR3@@QAEAAU0@ABU0@@Z PROC			; D3DXVECTOR3::operator+=, COMDAT
; _this$ = ecx

; 327  : {

  00000	55		 push	 ebp
  00001	8b ec		 mov	 ebp, esp
  00003	8b c1		 mov	 eax, ecx

; 328  :     x += v.x;

  00005	8b 4d 08	 mov	 ecx, DWORD PTR _v$[ebp]
  00008	f3 0f 10 01	 movss	 xmm0, DWORD PTR [ecx]
  0000c	f3 0f 10 08	 movss	 xmm1, DWORD PTR [eax]
  00010	0f 5a c0	 cvtps2pd xmm0, xmm0
  00013	0f 5a c9	 cvtps2pd xmm1, xmm1
  00016	f2 0f 58 c1	 addsd	 xmm0, xmm1

; 329  :     y += v.y;

  0001a	f3 0f 10 48 04	 movss	 xmm1, DWORD PTR [eax+4]
  0001f	66 0f 5a c0	 cvtpd2ps xmm0, xmm0
  00023	f3 0f 11 00	 movss	 DWORD PTR [eax], xmm0
  00027	f3 0f 10 41 04	 movss	 xmm0, DWORD PTR [ecx+4]
  0002c	0f 5a c0	 cvtps2pd xmm0, xmm0
  0002f	0f 5a c9	 cvtps2pd xmm1, xmm1
  00032	f2 0f 58 c1	 addsd	 xmm0, xmm1

; 330  :     z += v.z;

  00036	f3 0f 10 48 08	 movss	 xmm1, DWORD PTR [eax+8]
  0003b	66 0f 5a c0	 cvtpd2ps xmm0, xmm0
  0003f	f3 0f 11 40 04	 movss	 DWORD PTR [eax+4], xmm0
  00044	f3 0f 10 41 08	 movss	 xmm0, DWORD PTR [ecx+8]
  00049	0f 5a c0	 cvtps2pd xmm0, xmm0
  0004c	0f 5a c9	 cvtps2pd xmm1, xmm1
  0004f	f2 0f 58 c1	 addsd	 xmm0, xmm1
  00053	66 0f 5a c0	 cvtpd2ps xmm0, xmm0
  00057	f3 0f 11 40 08	 movss	 DWORD PTR [eax+8], xmm0

; 331  :     return *this;
; 332  : }

  0005c	5d		 pop	 ebp
  0005d	c2 04 00	 ret	 4
??YD3DXVECTOR3@@QAEAAU0@ABU0@@Z ENDP			; D3DXVECTOR3::operator+=
_TEXT	ENDS
PUBLIC	??$forward@UBuffInfoStruct@@@std@@YA$$QAUBuffInfoStruct@@AAU1@@Z ; std::forward<BuffInfoStruct>
; Function compile flags: /Ogsp
; File c:\program files (x86)\microsoft visual studio 10.0\vc\include\utility
;	COMDAT ??$forward@UBuffInfoStruct@@@std@@YA$$QAUBuffInfoStruct@@AAU1@@Z
_TEXT	SEGMENT
__Arg$ = 8						; size = 4
??$forward@UBuffInfoStruct@@@std@@YA$$QAUBuffInfoStruct@@AAU1@@Z PROC ; std::forward<BuffInfoStruct>, COMDAT

; 78   : 	{	// forward _Arg, given explicitly specified type parameter

  00000	55		 push	 ebp
  00001	8b ec		 mov	 ebp, esp

; 79   : 	return ((_Ty&&)_Arg);

  00003	8b 45 08	 mov	 eax, DWORD PTR __Arg$[ebp]

; 80   : 	}

  00006	5d		 pop	 ebp
  00007	c3		 ret	 0
??$forward@UBuffInfoStruct@@@std@@YA$$QAUBuffInfoStruct@@AAU1@@Z ENDP ; std::forward<BuffInfoStruct>
_TEXT	ENDS
PUBLIC	??ZD3DXVECTOR3@@QAEAAU0@ABU0@@Z			; D3DXVECTOR3::operator-=
; Function compile flags: /Ogsp
; File c:\program files (x86)\microsoft directx sdk (june 2010)\include\d3dx9math.inl
;	COMDAT ??ZD3DXVECTOR3@@QAEAAU0@ABU0@@Z
_TEXT	SEGMENT
_v$ = 8							; size = 4
??ZD3DXVECTOR3@@QAEAAU0@ABU0@@Z PROC			; D3DXVECTOR3::operator-=, COMDAT
; _this$ = ecx

; 336  : {

  00000	55		 push	 ebp
  00001	8b ec		 mov	 ebp, esp
  00003	8b c1		 mov	 eax, ecx

; 337  :     x -= v.x;

  00005	8b 4d 08	 mov	 ecx, DWORD PTR _v$[ebp]
  00008	f3 0f 10 09	 movss	 xmm1, DWORD PTR [ecx]
  0000c	f3 0f 10 00	 movss	 xmm0, DWORD PTR [eax]
  00010	0f 5a c0	 cvtps2pd xmm0, xmm0
  00013	0f 5a c9	 cvtps2pd xmm1, xmm1
  00016	f2 0f 5c c1	 subsd	 xmm0, xmm1
  0001a	66 0f 5a c0	 cvtpd2ps xmm0, xmm0
  0001e	f3 0f 11 00	 movss	 DWORD PTR [eax], xmm0

; 338  :     y -= v.y;

  00022	f3 0f 10 49 04	 movss	 xmm1, DWORD PTR [ecx+4]
  00027	f3 0f 10 40 04	 movss	 xmm0, DWORD PTR [eax+4]
  0002c	0f 5a c0	 cvtps2pd xmm0, xmm0
  0002f	0f 5a c9	 cvtps2pd xmm1, xmm1
  00032	f2 0f 5c c1	 subsd	 xmm0, xmm1
  00036	66 0f 5a c0	 cvtpd2ps xmm0, xmm0
  0003a	f3 0f 11 40 04	 movss	 DWORD PTR [eax+4], xmm0

; 339  :     z -= v.z;

  0003f	f3 0f 10 40 08	 movss	 xmm0, DWORD PTR [eax+8]
  00044	f3 0f 10 49 08	 movss	 xmm1, DWORD PTR [ecx+8]
  00049	0f 5a c0	 cvtps2pd xmm0, xmm0
  0004c	0f 5a c9	 cvtps2pd xmm1, xmm1
  0004f	f2 0f 5c c1	 subsd	 xmm0, xmm1
  00053	66 0f 5a c0	 cvtpd2ps xmm0, xmm0
  00057	f3 0f 11 40 08	 movss	 DWORD PTR [eax+8], xmm0

; 340  :     return *this;
; 341  : }

  0005c	5d		 pop	 ebp
  0005d	c2 04 00	 ret	 4
??ZD3DXVECTOR3@@QAEAAU0@ABU0@@Z ENDP			; D3DXVECTOR3::operator-=
_TEXT	ENDS
PUBLIC	??XD3DXVECTOR3@@QAEAAU0@M@Z			; D3DXVECTOR3::operator*=
; Function compile flags: /Ogsp
;	COMDAT ??XD3DXVECTOR3@@QAEAAU0@M@Z
_TEXT	SEGMENT
_f$ = 8							; size = 4
??XD3DXVECTOR3@@QAEAAU0@M@Z PROC			; D3DXVECTOR3::operator*=, COMDAT
; _this$ = ecx

; 345  : {

  00000	55		 push	 ebp
  00001	8b ec		 mov	 ebp, esp

; 346  :     x *= f;

  00003	f3 0f 10 4d 08	 movss	 xmm1, DWORD PTR _f$[ebp]
  00008	8b c1		 mov	 eax, ecx
  0000a	f3 0f 10 00	 movss	 xmm0, DWORD PTR [eax]
  0000e	0f 5a c0	 cvtps2pd xmm0, xmm0
  00011	0f 5a c9	 cvtps2pd xmm1, xmm1
  00014	f2 0f 59 c1	 mulsd	 xmm0, xmm1

; 347  :     y *= f;

  00018	f3 0f 10 4d 08	 movss	 xmm1, DWORD PTR _f$[ebp]
  0001d	66 0f 5a c0	 cvtpd2ps xmm0, xmm0
  00021	f3 0f 11 00	 movss	 DWORD PTR [eax], xmm0
  00025	f3 0f 10 40 04	 movss	 xmm0, DWORD PTR [eax+4]
  0002a	0f 5a c0	 cvtps2pd xmm0, xmm0
  0002d	0f 5a c9	 cvtps2pd xmm1, xmm1
  00030	f2 0f 59 c1	 mulsd	 xmm0, xmm1

; 348  :     z *= f;

  00034	f3 0f 10 48 08	 movss	 xmm1, DWORD PTR [eax+8]
  00039	66 0f 5a c0	 cvtpd2ps xmm0, xmm0
  0003d	f3 0f 11 40 04	 movss	 DWORD PTR [eax+4], xmm0
  00042	f3 0f 10 45 08	 movss	 xmm0, DWORD PTR _f$[ebp]
  00047	0f 5a c0	 cvtps2pd xmm0, xmm0
  0004a	0f 5a c9	 cvtps2pd xmm1, xmm1
  0004d	f2 0f 59 c1	 mulsd	 xmm0, xmm1
  00051	f2 0f 5a c0	 cvtsd2ss xmm0, xmm0
  00055	f3 0f 11 40 08	 movss	 DWORD PTR [eax+8], xmm0

; 349  :     return *this;
; 350  : }

  0005a	5d		 pop	 ebp
  0005b	c2 04 00	 ret	 4
??XD3DXVECTOR3@@QAEAAU0@M@Z ENDP			; D3DXVECTOR3::operator*=
_TEXT	ENDS
PUBLIC	__mask@@NegFloat@
PUBLIC	??GD3DXVECTOR3@@QBE?AU0@XZ			; D3DXVECTOR3::operator-
;	COMDAT __mask@@NegFloat@
CONST	SEGMENT
__mask@@NegFloat@ DB 00H, 00H, 00H, 080H, 00H, 00H, 00H, 080H, 00H, 00H, 00H
	DB	080H, 00H, 00H, 00H, 080H
; Function compile flags: /Ogsp
CONST	ENDS
;	COMDAT ??GD3DXVECTOR3@@QBE?AU0@XZ
_TEXT	SEGMENT
___$ReturnUdt$ = 8					; size = 4
??GD3DXVECTOR3@@QBE?AU0@XZ PROC				; D3DXVECTOR3::operator-, COMDAT
; _this$ = ecx

; 372  : {

  00000	55		 push	 ebp
  00001	8b ec		 mov	 ebp, esp

; 373  :     return D3DXVECTOR3(-x, -y, -z);

  00003	f3 0f 10 05 00
	00 00 00	 movss	 xmm0, DWORD PTR __mask@@NegFloat@
  0000b	8b 45 08	 mov	 eax, DWORD PTR ___$ReturnUdt$[ebp]
  0000e	f3 0f 10 09	 movss	 xmm1, DWORD PTR [ecx]
  00012	0f 57 c8	 xorps	 xmm1, xmm0
  00015	f3 0f 11 08	 movss	 DWORD PTR [eax], xmm1
  00019	f3 0f 10 49 04	 movss	 xmm1, DWORD PTR [ecx+4]
  0001e	0f 57 c8	 xorps	 xmm1, xmm0
  00021	f3 0f 11 48 04	 movss	 DWORD PTR [eax+4], xmm1
  00026	f3 0f 10 49 08	 movss	 xmm1, DWORD PTR [ecx+8]
  0002b	0f 57 c8	 xorps	 xmm1, xmm0
  0002e	f3 0f 11 48 08	 movss	 DWORD PTR [eax+8], xmm1

; 374  : }

  00033	5d		 pop	 ebp
  00034	c2 04 00	 ret	 4
??GD3DXVECTOR3@@QBE?AU0@XZ ENDP				; D3DXVECTOR3::operator-
_TEXT	ENDS
PUBLIC	??HD3DXVECTOR3@@QBE?AU0@ABU0@@Z			; D3DXVECTOR3::operator+
; Function compile flags: /Ogsp
;	COMDAT ??HD3DXVECTOR3@@QBE?AU0@ABU0@@Z
_TEXT	SEGMENT
___$ReturnUdt$ = 8					; size = 4
_v$ = 12						; size = 4
??HD3DXVECTOR3@@QBE?AU0@ABU0@@Z PROC			; D3DXVECTOR3::operator+, COMDAT
; _this$ = ecx

; 380  : {

  00000	55		 push	 ebp
  00001	8b ec		 mov	 ebp, esp

; 381  :     return D3DXVECTOR3(x + v.x, y + v.y, z + v.z);

  00003	8b 55 0c	 mov	 edx, DWORD PTR _v$[ebp]
  00006	f3 0f 10 02	 movss	 xmm0, DWORD PTR [edx]
  0000a	f3 0f 10 09	 movss	 xmm1, DWORD PTR [ecx]
  0000e	8b 45 08	 mov	 eax, DWORD PTR ___$ReturnUdt$[ebp]
  00011	0f 5a c0	 cvtps2pd xmm0, xmm0
  00014	0f 5a c9	 cvtps2pd xmm1, xmm1
  00017	f2 0f 58 c1	 addsd	 xmm0, xmm1
  0001b	f3 0f 10 49 04	 movss	 xmm1, DWORD PTR [ecx+4]
  00020	66 0f 5a c0	 cvtpd2ps xmm0, xmm0
  00024	f3 0f 11 00	 movss	 DWORD PTR [eax], xmm0
  00028	f3 0f 10 42 04	 movss	 xmm0, DWORD PTR [edx+4]
  0002d	0f 5a c0	 cvtps2pd xmm0, xmm0
  00030	0f 5a c9	 cvtps2pd xmm1, xmm1
  00033	f2 0f 58 c1	 addsd	 xmm0, xmm1
  00037	f3 0f 10 49 08	 movss	 xmm1, DWORD PTR [ecx+8]
  0003c	66 0f 5a c0	 cvtpd2ps xmm0, xmm0
  00040	f3 0f 11 40 04	 movss	 DWORD PTR [eax+4], xmm0
  00045	f3 0f 10 42 08	 movss	 xmm0, DWORD PTR [edx+8]
  0004a	0f 5a c0	 cvtps2pd xmm0, xmm0
  0004d	0f 5a c9	 cvtps2pd xmm1, xmm1
  00050	f2 0f 58 c1	 addsd	 xmm0, xmm1
  00054	66 0f 5a c0	 cvtpd2ps xmm0, xmm0
  00058	f3 0f 11 40 08	 movss	 DWORD PTR [eax+8], xmm0

; 382  : }

  0005d	5d		 pop	 ebp
  0005e	c2 08 00	 ret	 8
??HD3DXVECTOR3@@QBE?AU0@ABU0@@Z ENDP			; D3DXVECTOR3::operator+
_TEXT	ENDS
PUBLIC	??GD3DXVECTOR3@@QBE?AU0@ABU0@@Z			; D3DXVECTOR3::operator-
; Function compile flags: /Ogsp
;	COMDAT ??GD3DXVECTOR3@@QBE?AU0@ABU0@@Z
_TEXT	SEGMENT
___$ReturnUdt$ = 8					; size = 4
_v$ = 12						; size = 4
??GD3DXVECTOR3@@QBE?AU0@ABU0@@Z PROC			; D3DXVECTOR3::operator-, COMDAT
; _this$ = ecx

; 386  : {

  00000	55		 push	 ebp
  00001	8b ec		 mov	 ebp, esp

; 387  :     return D3DXVECTOR3(x - v.x, y - v.y, z - v.z);

  00003	8b 55 0c	 mov	 edx, DWORD PTR _v$[ebp]
  00006	f3 0f 10 01	 movss	 xmm0, DWORD PTR [ecx]
  0000a	f3 0f 10 0a	 movss	 xmm1, DWORD PTR [edx]
  0000e	8b 45 08	 mov	 eax, DWORD PTR ___$ReturnUdt$[ebp]
  00011	0f 5a c0	 cvtps2pd xmm0, xmm0
  00014	0f 5a c9	 cvtps2pd xmm1, xmm1
  00017	f2 0f 5c c1	 subsd	 xmm0, xmm1
  0001b	f3 0f 10 4a 04	 movss	 xmm1, DWORD PTR [edx+4]
  00020	66 0f 5a c0	 cvtpd2ps xmm0, xmm0
  00024	f3 0f 11 00	 movss	 DWORD PTR [eax], xmm0
  00028	f3 0f 10 41 04	 movss	 xmm0, DWORD PTR [ecx+4]
  0002d	0f 5a c0	 cvtps2pd xmm0, xmm0
  00030	0f 5a c9	 cvtps2pd xmm1, xmm1
  00033	f2 0f 5c c1	 subsd	 xmm0, xmm1
  00037	f3 0f 10 4a 08	 movss	 xmm1, DWORD PTR [edx+8]
  0003c	66 0f 5a c0	 cvtpd2ps xmm0, xmm0
  00040	f3 0f 11 40 04	 movss	 DWORD PTR [eax+4], xmm0
  00045	f3 0f 10 41 08	 movss	 xmm0, DWORD PTR [ecx+8]
  0004a	0f 5a c0	 cvtps2pd xmm0, xmm0
  0004d	0f 5a c9	 cvtps2pd xmm1, xmm1
  00050	f2 0f 5c c1	 subsd	 xmm0, xmm1
  00054	66 0f 5a c0	 cvtpd2ps xmm0, xmm0
  00058	f3 0f 11 40 08	 movss	 DWORD PTR [eax+8], xmm0

; 388  : }

  0005d	5d		 pop	 ebp
  0005e	c2 08 00	 ret	 8
??GD3DXVECTOR3@@QBE?AU0@ABU0@@Z ENDP			; D3DXVECTOR3::operator-
_TEXT	ENDS
PUBLIC	??DD3DXVECTOR3@@QBE?AU0@M@Z			; D3DXVECTOR3::operator*
; Function compile flags: /Ogsp
;	COMDAT ??DD3DXVECTOR3@@QBE?AU0@M@Z
_TEXT	SEGMENT
___$ReturnUdt$ = 8					; size = 4
_f$ = 12						; size = 4
??DD3DXVECTOR3@@QBE?AU0@M@Z PROC			; D3DXVECTOR3::operator*, COMDAT
; _this$ = ecx

; 392  : {

  00000	55		 push	 ebp
  00001	8b ec		 mov	 ebp, esp

; 393  :     return D3DXVECTOR3(x * f, y * f, z * f);

  00003	f3 0f 10 4d 0c	 movss	 xmm1, DWORD PTR _f$[ebp]
  00008	f3 0f 10 01	 movss	 xmm0, DWORD PTR [ecx]
  0000c	8b 45 08	 mov	 eax, DWORD PTR ___$ReturnUdt$[ebp]
  0000f	0f 5a c0	 cvtps2pd xmm0, xmm0
  00012	0f 5a c9	 cvtps2pd xmm1, xmm1
  00015	f2 0f 59 c1	 mulsd	 xmm0, xmm1
  00019	f3 0f 10 4d 0c	 movss	 xmm1, DWORD PTR _f$[ebp]
  0001e	66 0f 5a c0	 cvtpd2ps xmm0, xmm0
  00022	f3 0f 11 00	 movss	 DWORD PTR [eax], xmm0
  00026	f3 0f 10 41 04	 movss	 xmm0, DWORD PTR [ecx+4]
  0002b	0f 5a c0	 cvtps2pd xmm0, xmm0
  0002e	0f 5a c9	 cvtps2pd xmm1, xmm1
  00031	f2 0f 59 c1	 mulsd	 xmm0, xmm1
  00035	f3 0f 10 4d 0c	 movss	 xmm1, DWORD PTR _f$[ebp]
  0003a	66 0f 5a c0	 cvtpd2ps xmm0, xmm0
  0003e	f3 0f 11 40 04	 movss	 DWORD PTR [eax+4], xmm0
  00043	f3 0f 10 41 08	 movss	 xmm0, DWORD PTR [ecx+8]
  00048	0f 5a c0	 cvtps2pd xmm0, xmm0
  0004b	0f 5a c9	 cvtps2pd xmm1, xmm1
  0004e	f2 0f 59 c1	 mulsd	 xmm0, xmm1
  00052	66 0f 5a c0	 cvtpd2ps xmm0, xmm0
  00056	f3 0f 11 40 08	 movss	 DWORD PTR [eax+8], xmm0

; 394  : }

  0005b	5d		 pop	 ebp
  0005c	c2 08 00	 ret	 8
??DD3DXVECTOR3@@QBE?AU0@M@Z ENDP			; D3DXVECTOR3::operator*
_TEXT	ENDS
PUBLIC	??D@YA?AUD3DXVECTOR3@@MABU0@@Z			; operator*
; Function compile flags: /Ogsp
;	COMDAT ??D@YA?AUD3DXVECTOR3@@MABU0@@Z
_TEXT	SEGMENT
___$ReturnUdt$ = 8					; size = 4
_f$ = 12						; size = 4
_v$ = 16						; size = 4
??D@YA?AUD3DXVECTOR3@@MABU0@@Z PROC			; operator*, COMDAT

; 406  : {

  00000	55		 push	 ebp
  00001	8b ec		 mov	 ebp, esp

; 407  :     return D3DXVECTOR3(f * v.x, f * v.y, f * v.z);

  00003	8b 4d 10	 mov	 ecx, DWORD PTR _v$[ebp]
  00006	f3 0f 10 4d 0c	 movss	 xmm1, DWORD PTR _f$[ebp]
  0000b	f3 0f 10 01	 movss	 xmm0, DWORD PTR [ecx]
  0000f	8b 45 08	 mov	 eax, DWORD PTR ___$ReturnUdt$[ebp]
  00012	0f 5a c0	 cvtps2pd xmm0, xmm0
  00015	0f 5a c9	 cvtps2pd xmm1, xmm1
  00018	f2 0f 59 c1	 mulsd	 xmm0, xmm1
  0001c	f3 0f 10 4d 0c	 movss	 xmm1, DWORD PTR _f$[ebp]
  00021	66 0f 5a c0	 cvtpd2ps xmm0, xmm0
  00025	f3 0f 11 00	 movss	 DWORD PTR [eax], xmm0
  00029	f3 0f 10 41 04	 movss	 xmm0, DWORD PTR [ecx+4]
  0002e	0f 5a c0	 cvtps2pd xmm0, xmm0
  00031	0f 5a c9	 cvtps2pd xmm1, xmm1
  00034	f2 0f 59 c1	 mulsd	 xmm0, xmm1
  00038	f3 0f 10 4d 0c	 movss	 xmm1, DWORD PTR _f$[ebp]
  0003d	66 0f 5a c0	 cvtpd2ps xmm0, xmm0
  00041	f3 0f 11 40 04	 movss	 DWORD PTR [eax+4], xmm0
  00046	f3 0f 10 41 08	 movss	 xmm0, DWORD PTR [ecx+8]
  0004b	0f 5a c0	 cvtps2pd xmm0, xmm0
  0004e	0f 5a c9	 cvtps2pd xmm1, xmm1
  00051	f2 0f 59 c1	 mulsd	 xmm0, xmm1
  00055	66 0f 5a c0	 cvtpd2ps xmm0, xmm0
  00059	f3 0f 11 40 08	 movss	 DWORD PTR [eax+8], xmm0

; 408  : }

  0005e	5d		 pop	 ebp
  0005f	c3		 ret	 0
??D@YA?AUD3DXVECTOR3@@MABU0@@Z ENDP			; operator*
_TEXT	ENDS
PUBLIC	??0D3DXQUATERNION@@QAE@MMMM@Z			; D3DXQUATERNION::D3DXQUATERNION
; Function compile flags: /Ogsp
;	COMDAT ??0D3DXQUATERNION@@QAE@MMMM@Z
_TEXT	SEGMENT
_fx$ = 8						; size = 4
_fy$ = 12						; size = 4
_fz$ = 16						; size = 4
_fw$ = 20						; size = 4
??0D3DXQUATERNION@@QAE@MMMM@Z PROC			; D3DXQUATERNION::D3DXQUATERNION, COMDAT
; _this$ = ecx

; 1080 : {

  00000	55		 push	 ebp
  00001	8b ec		 mov	 ebp, esp

; 1081 :     x = fx;

  00003	f3 0f 10 45 08	 movss	 xmm0, DWORD PTR _fx$[ebp]
  00008	8b c1		 mov	 eax, ecx
  0000a	f3 0f 11 00	 movss	 DWORD PTR [eax], xmm0

; 1082 :     y = fy;

  0000e	f3 0f 10 45 0c	 movss	 xmm0, DWORD PTR _fy$[ebp]
  00013	f3 0f 11 40 04	 movss	 DWORD PTR [eax+4], xmm0

; 1083 :     z = fz;

  00018	f3 0f 10 45 10	 movss	 xmm0, DWORD PTR _fz$[ebp]
  0001d	f3 0f 11 40 08	 movss	 DWORD PTR [eax+8], xmm0

; 1084 :     w = fw;

  00022	f3 0f 10 45 14	 movss	 xmm0, DWORD PTR _fw$[ebp]
  00027	f3 0f 11 40 0c	 movss	 DWORD PTR [eax+12], xmm0

; 1085 : }

  0002c	5d		 pop	 ebp
  0002d	c2 10 00	 ret	 16			; 00000010H
??0D3DXQUATERNION@@QAE@MMMM@Z ENDP			; D3DXQUATERNION::D3DXQUATERNION
_TEXT	ENDS
PUBLIC	?D3DXVec3Length@@YAMPBUD3DXVECTOR3@@@Z		; D3DXVec3Length
; Function compile flags: /Ogsp
;	COMDAT ?D3DXVec3Length@@YAMPBUD3DXVECTOR3@@@Z
_TEXT	SEGMENT
tv169 = 8						; size = 4
tv160 = 8						; size = 4
_pV$ = 8						; size = 4
?D3DXVec3Length@@YAMPBUD3DXVECTOR3@@@Z PROC		; D3DXVec3Length, COMDAT

; 1710 : {

  00000	55		 push	 ebp
  00001	8b ec		 mov	 ebp, esp

; 1711 : #ifdef D3DX_DEBUG
; 1712 :     if(!pV)
; 1713 :         return 0.0f;
; 1714 : #endif
; 1715 : 
; 1716 : #ifdef __cplusplus
; 1717 :     return sqrtf(pV->x * pV->x + pV->y * pV->y + pV->z * pV->z);

  00003	8b 45 08	 mov	 eax, DWORD PTR _pV$[ebp]
  00006	d9 40 04	 fld	 DWORD PTR [eax+4]
  00009	d9 00		 fld	 DWORD PTR [eax]
  0000b	d9 40 08	 fld	 DWORD PTR [eax+8]
  0000e	d9 c1		 fld	 ST(1)
  00010	de ca		 fmulp	 ST(2), ST(0)
  00012	d9 c2		 fld	 ST(2)
  00014	de cb		 fmulp	 ST(3), ST(0)
  00016	d9 c9		 fxch	 ST(1)
  00018	de c2		 faddp	 ST(2), ST(0)
  0001a	d9 c0		 fld	 ST(0)
  0001c	de c9		 fmulp	 ST(1), ST(0)
  0001e	de c1		 faddp	 ST(1), ST(0)
  00020	d9 5d 08	 fstp	 DWORD PTR tv169[ebp]
  00023	d9 45 08	 fld	 DWORD PTR tv169[ebp]
  00026	e8 00 00 00 00	 call	 __CIsqrt
  0002b	d9 5d 08	 fstp	 DWORD PTR tv160[ebp]
  0002e	d9 45 08	 fld	 DWORD PTR tv160[ebp]

; 1718 : #else
; 1719 :     return (FLOAT) sqrt(pV->x * pV->x + pV->y * pV->y + pV->z * pV->z);
; 1720 : #endif
; 1721 : }

  00031	5d		 pop	 ebp
  00032	c3		 ret	 0
?D3DXVec3Length@@YAMPBUD3DXVECTOR3@@@Z ENDP		; D3DXVec3Length
_TEXT	ENDS
PUBLIC	?D3DXVec3LengthSq@@YAMPBUD3DXVECTOR3@@@Z	; D3DXVec3LengthSq
; Function compile flags: /Ogsp
;	COMDAT ?D3DXVec3LengthSq@@YAMPBUD3DXVECTOR3@@@Z
_TEXT	SEGMENT
tv165 = 8						; size = 4
_pV$ = 8						; size = 4
?D3DXVec3LengthSq@@YAMPBUD3DXVECTOR3@@@Z PROC		; D3DXVec3LengthSq, COMDAT

; 1725 : {

  00000	55		 push	 ebp
  00001	8b ec		 mov	 ebp, esp

; 1726 : #ifdef D3DX_DEBUG
; 1727 :     if(!pV)
; 1728 :         return 0.0f;
; 1729 : #endif
; 1730 : 
; 1731 :     return pV->x * pV->x + pV->y * pV->y + pV->z * pV->z;

  00003	8b 45 08	 mov	 eax, DWORD PTR _pV$[ebp]
  00006	d9 40 04	 fld	 DWORD PTR [eax+4]
  00009	d9 00		 fld	 DWORD PTR [eax]
  0000b	d9 40 08	 fld	 DWORD PTR [eax+8]
  0000e	d9 c1		 fld	 ST(1)
  00010	de ca		 fmulp	 ST(2), ST(0)
  00012	d9 c2		 fld	 ST(2)
  00014	de cb		 fmulp	 ST(3), ST(0)
  00016	d9 c9		 fxch	 ST(1)
  00018	de c2		 faddp	 ST(2), ST(0)
  0001a	d9 c0		 fld	 ST(0)
  0001c	de c9		 fmulp	 ST(1), ST(0)
  0001e	de c1		 faddp	 ST(1), ST(0)
  00020	d9 5d 08	 fstp	 DWORD PTR tv165[ebp]
  00023	d9 45 08	 fld	 DWORD PTR tv165[ebp]

; 1732 : }

  00026	5d		 pop	 ebp
  00027	c3		 ret	 0
?D3DXVec3LengthSq@@YAMPBUD3DXVECTOR3@@@Z ENDP		; D3DXVec3LengthSq
_TEXT	ENDS
PUBLIC	?D3DXVec3Dot@@YAMPBUD3DXVECTOR3@@0@Z		; D3DXVec3Dot
; Function compile flags: /Ogsp
;	COMDAT ?D3DXVec3Dot@@YAMPBUD3DXVECTOR3@@0@Z
_TEXT	SEGMENT
tv188 = 8						; size = 4
_pV1$ = 8						; size = 4
_pV2$ = 12						; size = 4
?D3DXVec3Dot@@YAMPBUD3DXVECTOR3@@0@Z PROC		; D3DXVec3Dot, COMDAT

; 1736 : {

  00000	55		 push	 ebp
  00001	8b ec		 mov	 ebp, esp

; 1737 : #ifdef D3DX_DEBUG
; 1738 :     if(!pV1 || !pV2)
; 1739 :         return 0.0f;
; 1740 : #endif
; 1741 : 
; 1742 :     return pV1->x * pV2->x + pV1->y * pV2->y + pV1->z * pV2->z;

  00003	8b 45 08	 mov	 eax, DWORD PTR _pV1$[ebp]
  00006	8b 4d 0c	 mov	 ecx, DWORD PTR _pV2$[ebp]
  00009	d9 40 04	 fld	 DWORD PTR [eax+4]
  0000c	d8 49 04	 fmul	 DWORD PTR [ecx+4]
  0000f	d9 00		 fld	 DWORD PTR [eax]
  00011	d8 09		 fmul	 DWORD PTR [ecx]
  00013	de c1		 faddp	 ST(1), ST(0)
  00015	d9 40 08	 fld	 DWORD PTR [eax+8]
  00018	d8 49 08	 fmul	 DWORD PTR [ecx+8]
  0001b	de c1		 faddp	 ST(1), ST(0)
  0001d	d9 5d 08	 fstp	 DWORD PTR tv188[ebp]
  00020	d9 45 08	 fld	 DWORD PTR tv188[ebp]

; 1743 : }

  00023	5d		 pop	 ebp
  00024	c3		 ret	 0
?D3DXVec3Dot@@YAMPBUD3DXVECTOR3@@0@Z ENDP		; D3DXVec3Dot
_TEXT	ENDS
PUBLIC	?D3DXVec3Cross@@YAPAUD3DXVECTOR3@@PAU1@PBU1@1@Z	; D3DXVec3Cross
; Function compile flags: /Ogsp
;	COMDAT ?D3DXVec3Cross@@YAPAUD3DXVECTOR3@@PAU1@PBU1@1@Z
_TEXT	SEGMENT
_v$ = -12						; size = 12
_pOut$ = 8						; size = 4
_pV1$ = 12						; size = 4
_pV2$ = 16						; size = 4
?D3DXVec3Cross@@YAPAUD3DXVECTOR3@@PAU1@PBU1@1@Z PROC	; D3DXVec3Cross, COMDAT

; 1747 : {

  00000	55		 push	 ebp
  00001	8b ec		 mov	 ebp, esp
  00003	83 ec 0c	 sub	 esp, 12			; 0000000cH

; 1757 :     v.z = pV1->x * pV2->y - pV1->y * pV2->x;
; 1758 : 
; 1759 :     *pOut = v;

  00006	56		 push	 esi
  00007	57		 push	 edi

; 1748 :     D3DXVECTOR3 v;
; 1749 : 
; 1750 : #ifdef D3DX_DEBUG
; 1751 :     if(!pOut || !pV1 || !pV2)
; 1752 :         return NULL;
; 1753 : #endif
; 1754 : 
; 1755 :     v.x = pV1->y * pV2->z - pV1->z * pV2->y;

  00008	8b 45 0c	 mov	 eax, DWORD PTR _pV1$[ebp]
  0000b	f3 0f 10 40 04	 movss	 xmm0, DWORD PTR [eax+4]
  00010	f3 0f 10 50 08	 movss	 xmm2, DWORD PTR [eax+8]
  00015	8b 4d 10	 mov	 ecx, DWORD PTR _pV2$[ebp]
  00018	f3 0f 10 49 08	 movss	 xmm1, DWORD PTR [ecx+8]
  0001d	f3 0f 10 59 04	 movss	 xmm3, DWORD PTR [ecx+4]
  00022	0f 5a e8	 cvtps2pd xmm5, xmm0
  00025	0f 5a e1	 cvtps2pd xmm4, xmm1
  00028	0f 5a f2	 cvtps2pd xmm6, xmm2
  0002b	f2 0f 59 e5	 mulsd	 xmm4, xmm5

; 1756 :     v.y = pV1->z * pV2->x - pV1->x * pV2->z;

  0002f	0f 5a d2	 cvtps2pd xmm2, xmm2
  00032	0f 5a c9	 cvtps2pd xmm1, xmm1
  00035	0f 5a eb	 cvtps2pd xmm5, xmm3
  00038	f2 0f 59 ee	 mulsd	 xmm5, xmm6
  0003c	f2 0f 5c e5	 subsd	 xmm4, xmm5
  00040	f3 0f 10 28	 movss	 xmm5, DWORD PTR [eax]

; 1757 :     v.z = pV1->x * pV2->y - pV1->y * pV2->x;
; 1758 : 
; 1759 :     *pOut = v;

  00044	8b 45 08	 mov	 eax, DWORD PTR _pOut$[ebp]
  00047	66 0f 5a e4	 cvtpd2ps xmm4, xmm4
  0004b	f3 0f 11 65 f4	 movss	 DWORD PTR _v$[ebp], xmm4
  00050	f3 0f 10 21	 movss	 xmm4, DWORD PTR [ecx]
  00054	0f 5a f4	 cvtps2pd xmm6, xmm4
  00057	f2 0f 59 f2	 mulsd	 xmm6, xmm2
  0005b	0f 5a d5	 cvtps2pd xmm2, xmm5
  0005e	f2 0f 59 d1	 mulsd	 xmm2, xmm1
  00062	f2 0f 5c f2	 subsd	 xmm6, xmm2
  00066	66 0f 5a ce	 cvtpd2ps xmm1, xmm6
  0006a	f3 0f 11 4d f8	 movss	 DWORD PTR _v$[ebp+4], xmm1
  0006f	0f 5a c0	 cvtps2pd xmm0, xmm0
  00072	0f 5a d3	 cvtps2pd xmm2, xmm3
  00075	0f 5a cd	 cvtps2pd xmm1, xmm5
  00078	f2 0f 59 ca	 mulsd	 xmm1, xmm2
  0007c	8d 75 f4	 lea	 esi, DWORD PTR _v$[ebp]
  0007f	8b f8		 mov	 edi, eax
  00081	0f 5a d4	 cvtps2pd xmm2, xmm4
  00084	f2 0f 59 d0	 mulsd	 xmm2, xmm0
  00088	f2 0f 5c ca	 subsd	 xmm1, xmm2
  0008c	66 0f 5a c1	 cvtpd2ps xmm0, xmm1
  00090	f3 0f 11 45 fc	 movss	 DWORD PTR _v$[ebp+8], xmm0
  00095	a5		 movsd
  00096	a5		 movsd
  00097	a5		 movsd
  00098	5f		 pop	 edi
  00099	5e		 pop	 esi

; 1760 :     return pOut;
; 1761 : }

  0009a	c9		 leave
  0009b	c3		 ret	 0
?D3DXVec3Cross@@YAPAUD3DXVECTOR3@@PAU1@PBU1@1@Z ENDP	; D3DXVec3Cross
_TEXT	ENDS
PUBLIC	?_DECSTR@@YAXPADH@Z				; _DECSTR
; Function compile flags: /Ogsp
; File d:\lost saga for developer\youtube\tutorial\source\src\lsclient\stringprotect.h
;	COMDAT ?_DECSTR@@YAXPADH@Z
_TEXT	SEGMENT
_s$ = 8							; size = 4
_l$ = 12						; size = 4
?_DECSTR@@YAXPADH@Z PROC				; _DECSTR, COMDAT

; 40   : __forceinline void _DECSTR(char* s, int l){int i=0,l4=(l-1)/4,*p=(int*)s;s[l-1]=0;for(;i<l4;++i)*(p++)^=0xEAEBECED;for(i=l4*4;i<l-1;++i)s[i]^=0xED-i%4;}

  00000	55		 push	 ebp
  00001	8b ec		 mov	 ebp, esp
  00003	8b 4d 0c	 mov	 ecx, DWORD PTR _l$[ebp]
  00006	56		 push	 esi
  00007	8b 75 08	 mov	 esi, DWORD PTR _s$[ebp]
  0000a	57		 push	 edi
  0000b	8d 79 ff	 lea	 edi, DWORD PTR [ecx-1]
  0000e	8b c7		 mov	 eax, edi
  00010	99		 cdq
  00011	83 e2 03	 and	 edx, 3
  00014	03 c2		 add	 eax, edx
  00016	c1 f8 02	 sar	 eax, 2
  00019	8b d6		 mov	 edx, esi
  0001b	c6 44 0e ff 00	 mov	 BYTE PTR [esi+ecx-1], 0
  00020	85 c0		 test	 eax, eax
  00022	7e 0e		 jle	 SHORT $LN4@DECSTR
  00024	8b c8		 mov	 ecx, eax
$LL6@DECSTR:
  00026	81 32 ed ec eb
	ea		 xor	 DWORD PTR [edx], -353637139 ; eaebecedH
  0002c	83 c2 04	 add	 edx, 4
  0002f	49		 dec	 ecx
  00030	75 f4		 jne	 SHORT $LL6@DECSTR
$LN4@DECSTR:
  00032	c1 e0 02	 shl	 eax, 2
  00035	eb 17		 jmp	 SHORT $LN14@DECSTR
$LL3@DECSTR:
  00037	8b c8		 mov	 ecx, eax
  00039	81 e1 03 00 00
	80		 and	 ecx, -2147483645	; 80000003H
  0003f	79 05		 jns	 SHORT $LN13@DECSTR
  00041	49		 dec	 ecx
  00042	83 c9 fc	 or	 ecx, -4			; fffffffcH
  00045	41		 inc	 ecx
$LN13@DECSTR:
  00046	b2 ed		 mov	 dl, -19			; ffffffedH
  00048	2a d1		 sub	 dl, cl
  0004a	30 14 30	 xor	 BYTE PTR [eax+esi], dl
  0004d	40		 inc	 eax
$LN14@DECSTR:
  0004e	3b c7		 cmp	 eax, edi
  00050	7c e5		 jl	 SHORT $LL3@DECSTR
  00052	5f		 pop	 edi
  00053	5e		 pop	 esi
  00054	5d		 pop	 ebp
  00055	c3		 ret	 0
?_DECSTR@@YAXPADH@Z ENDP				; _DECSTR
_TEXT	ENDS
PUBLIC	?GetGroup@ioGameEntity@@QBEPAVioEntityGroup@@XZ	; ioGameEntity::GetGroup
; Function compile flags: /Ogsp
; File d:\lost saga for developer\youtube\tutorial\source\src\lsclient\iogameentity.h
;	COMDAT ?GetGroup@ioGameEntity@@QBEPAVioEntityGroup@@XZ
_TEXT	SEGMENT
?GetGroup@ioGameEntity@@QBEPAVioEntityGroup@@XZ PROC	; ioGameEntity::GetGroup, COMDAT
; _this$ = ecx

; 166  : 	inline ioEntityGroup* GetGroup() const { return m_pGroup; }

  00000	8b 41 04	 mov	 eax, DWORD PTR [ecx+4]
  00003	c3		 ret	 0
?GetGroup@ioGameEntity@@QBEPAVioEntityGroup@@XZ ENDP	; ioGameEntity::GetGroup
_TEXT	ENDS
PUBLIC	??_R0?AVioGameEntity@@@8			; ioGameEntity `RTTI Type Descriptor'
PUBLIC	??_R0?AVioPlayEntity@@@8			; ioPlayEntity `RTTI Type Descriptor'
PUBLIC	?ToPlayEntity@@YAPAVioPlayEntity@@PAVioGameEntity@@@Z ; ToPlayEntity
EXTRN	___RTDynamicCast:PROC
;	COMDAT ??_R0?AVioGameEntity@@@8
; File d:\lost saga for developer\youtube\tutorial\source\src\lsclient\ioplayentity.h
_DATA	SEGMENT
??_R0?AVioGameEntity@@@8 DD FLAT:??_7type_info@@6B@	; ioGameEntity `RTTI Type Descriptor'
	DD	00H
	DB	'.?AVioGameEntity@@', 00H
_DATA	ENDS
;	COMDAT ??_R0?AVioPlayEntity@@@8
_DATA	SEGMENT
??_R0?AVioPlayEntity@@@8 DD FLAT:??_7type_info@@6B@	; ioPlayEntity `RTTI Type Descriptor'
	DD	00H
	DB	'.?AVioPlayEntity@@', 00H
; Function compile flags: /Ogsp
_DATA	ENDS
;	COMDAT ?ToPlayEntity@@YAPAVioPlayEntity@@PAVioGameEntity@@@Z
_TEXT	SEGMENT
_pObj$ = 8						; size = 4
?ToPlayEntity@@YAPAVioPlayEntity@@PAVioGameEntity@@@Z PROC ; ToPlayEntity, COMDAT

; 121  : {

  00000	55		 push	 ebp
  00001	8b ec		 mov	 ebp, esp
  00003	56		 push	 esi

; 122  : 	if( !pObj || pObj->GetTypeID() != ioGameEntity::GET_PLAY_ENTITY )

  00004	8b 75 08	 mov	 esi, DWORD PTR _pObj$[ebp]
  00007	85 f6		 test	 esi, esi
  00009	74 25		 je	 SHORT $LN1@ToPlayEnti
  0000b	8b 06		 mov	 eax, DWORD PTR [esi]
  0000d	8b ce		 mov	 ecx, esi
  0000f	ff 50 10	 call	 DWORD PTR [eax+16]
  00012	83 f8 01	 cmp	 eax, 1
  00015	75 19		 jne	 SHORT $LN1@ToPlayEnti

; 124  : 
; 125  : 	return dynamic_cast< ioPlayEntity* >( pObj );

  00017	6a 00		 push	 0
  00019	68 00 00 00 00	 push	 OFFSET ??_R0?AVioPlayEntity@@@8
  0001e	68 00 00 00 00	 push	 OFFSET ??_R0?AVioGameEntity@@@8
  00023	6a 00		 push	 0
  00025	56		 push	 esi
  00026	e8 00 00 00 00	 call	 ___RTDynamicCast
  0002b	83 c4 14	 add	 esp, 20			; 00000014H
  0002e	eb 02		 jmp	 SHORT $LN3@ToPlayEnti
$LN1@ToPlayEnti:

; 123  : 		return NULL;

  00030	33 c0		 xor	 eax, eax
$LN3@ToPlayEnti:
  00032	5e		 pop	 esi

; 126  : }

  00033	5d		 pop	 ebp
  00034	c3		 ret	 0
?ToPlayEntity@@YAPAVioPlayEntity@@PAVioGameEntity@@@Z ENDP ; ToPlayEntity
_TEXT	ENDS
PUBLIC	??_R0?AVioDummyChar@@@8				; ioDummyChar `RTTI Type Descriptor'
PUBLIC	?ToDummyChar@@YAPAVioDummyChar@@PAVioGameEntity@@@Z ; ToDummyChar
;	COMDAT ??_R0?AVioDummyChar@@@8
; File d:\lost saga for developer\youtube\tutorial\source\src\lsclient\iodummychar.h
_DATA	SEGMENT
??_R0?AVioDummyChar@@@8 DD FLAT:??_7type_info@@6B@	; ioDummyChar `RTTI Type Descriptor'
	DD	00H
	DB	'.?AVioDummyChar@@', 00H
; Function compile flags: /Ogsp
_DATA	ENDS
;	COMDAT ?ToDummyChar@@YAPAVioDummyChar@@PAVioGameEntity@@@Z
_TEXT	SEGMENT
_pObj$ = 8						; size = 4
?ToDummyChar@@YAPAVioDummyChar@@PAVioGameEntity@@@Z PROC ; ToDummyChar, COMDAT

; 758  : {

  00000	55		 push	 ebp
  00001	8b ec		 mov	 ebp, esp
  00003	56		 push	 esi

; 759  : 	ioPlayEntity *pPlay = ToPlayEntity( pObj );

  00004	ff 75 08	 push	 DWORD PTR _pObj$[ebp]
  00007	e8 00 00 00 00	 call	 ?ToPlayEntity@@YAPAVioPlayEntity@@PAVioGameEntity@@@Z ; ToPlayEntity
  0000c	8b f0		 mov	 esi, eax
  0000e	59		 pop	 ecx

; 760  : 	if( !pPlay || pPlay->GetSubType() != ioPlayEntity::PST_DUMMY_CHAR )

  0000f	85 f6		 test	 esi, esi
  00011	74 28		 je	 SHORT $LN1@ToDummyCha
  00013	8b 06		 mov	 eax, DWORD PTR [esi]
  00015	8b ce		 mov	 ecx, esi
  00017	ff 90 a4 00 00
	00		 call	 DWORD PTR [eax+164]
  0001d	83 f8 0a	 cmp	 eax, 10			; 0000000aH
  00020	75 19		 jne	 SHORT $LN1@ToDummyCha

; 762  : 
; 763  : 	return dynamic_cast< ioDummyChar* >( pPlay );

  00022	6a 00		 push	 0
  00024	68 00 00 00 00	 push	 OFFSET ??_R0?AVioDummyChar@@@8
  00029	68 00 00 00 00	 push	 OFFSET ??_R0?AVioPlayEntity@@@8
  0002e	6a 00		 push	 0
  00030	56		 push	 esi
  00031	e8 00 00 00 00	 call	 ___RTDynamicCast
  00036	83 c4 14	 add	 esp, 20			; 00000014H
  00039	eb 02		 jmp	 SHORT $LN3@ToDummyCha
$LN1@ToDummyCha:

; 761  : 		return NULL;

  0003b	33 c0		 xor	 eax, eax
$LN3@ToDummyCha:
  0003d	5e		 pop	 esi

; 764  : }

  0003e	5d		 pop	 ebp
  0003f	c3		 ret	 0
?ToDummyChar@@YAPAVioDummyChar@@PAVioGameEntity@@@Z ENDP ; ToDummyChar
_TEXT	ENDS
PUBLIC	??0BuffInfoStruct@@QAE@XZ			; BuffInfoStruct::BuffInfoStruct
EXTRN	__imp_??1ioHashString@@QAE@XZ:PROC
EXTRN	__imp_?Clear@ioHashString@@QAEXXZ:PROC
EXTRN	__imp_??0ioHashString@@QAE@XZ:PROC
EXTRN	___CxxFrameHandler3:PROC
EXTRN	__EH_epilog3:PROC
EXTRN	__EH_prolog3:PROC
;	COMDAT xdata$x
; File d:\lost saga for developer\youtube\tutorial\source\src\lsclient\weaponattribute.h
xdata$x	SEGMENT
__unwindtable$??0BuffInfoStruct@@QAE@XZ DD 0ffffffffH
	DD	FLAT:__unwindfunclet$??0BuffInfoStruct@@QAE@XZ$0
__ehfuncinfo$??0BuffInfoStruct@@QAE@XZ DD 019930522H
	DD	01H
	DD	FLAT:__unwindtable$??0BuffInfoStruct@@QAE@XZ
	DD	2 DUP(00H)
	DD	2 DUP(00H)
	DD	00H
	DD	01H
; Function compile flags: /Ogsp
xdata$x	ENDS
;	COMDAT ??0BuffInfoStruct@@QAE@XZ
_TEXT	SEGMENT
_this$ = -16						; size = 4
__$EHRec$ = -12						; size = 12
??0BuffInfoStruct@@QAE@XZ PROC				; BuffInfoStruct::BuffInfoStruct, COMDAT
; _this$ = ecx

; 278  : 	BuffInfoStruct()

  00000	6a 04		 push	 4
  00002	b8 00 00 00 00	 mov	 eax, __ehhandler$??0BuffInfoStruct@@QAE@XZ
  00007	e8 00 00 00 00	 call	 __EH_prolog3
  0000c	8b f1		 mov	 esi, ecx
  0000e	89 75 f0	 mov	 DWORD PTR _this$[ebp], esi
  00011	ff 15 00 00 00
	00		 call	 DWORD PTR __imp_??0ioHashString@@QAE@XZ
  00017	83 65 fc 00	 and	 DWORD PTR __$EHRec$[ebp+8], 0

; 279  : 	{
; 280  : 		m_BuffName.Clear();

  0001b	8b ce		 mov	 ecx, esi
  0001d	ff 15 00 00 00
	00		 call	 DWORD PTR __imp_?Clear@ioHashString@@QAEXXZ

; 281  : 		m_iBuffType = 0;

  00023	83 66 10 00	 and	 DWORD PTR [esi+16], 0

; 282  : 	}

  00027	8b c6		 mov	 eax, esi
  00029	e8 00 00 00 00	 call	 __EH_epilog3
  0002e	c3		 ret	 0
_TEXT	ENDS
;	COMDAT text$x
text$x	SEGMENT
__unwindfunclet$??0BuffInfoStruct@@QAE@XZ$0:
  00000	8b 4d f0	 mov	 ecx, DWORD PTR _this$[ebp]
  00003	ff 25 00 00 00
	00		 jmp	 DWORD PTR __imp_??1ioHashString@@QAE@XZ
__ehhandler$??0BuffInfoStruct@@QAE@XZ:
  00009	8b 54 24 08	 mov	 edx, DWORD PTR [esp+8]
  0000d	8d 42 0c	 lea	 eax, DWORD PTR [edx+12]
  00010	8b 4a ec	 mov	 ecx, DWORD PTR [edx-20]
  00013	33 c8		 xor	 ecx, eax
  00015	e8 00 00 00 00	 call	 @__security_check_cookie@4
  0001a	b8 00 00 00 00	 mov	 eax, OFFSET __ehfuncinfo$??0BuffInfoStruct@@QAE@XZ
  0001f	e9 00 00 00 00	 jmp	 ___CxxFrameHandler3
text$x	ENDS
??0BuffInfoStruct@@QAE@XZ ENDP				; BuffInfoStruct::BuffInfoStruct
PUBLIC	??1BuffInfoStruct@@QAE@XZ			; BuffInfoStruct::~BuffInfoStruct
; Function compile flags: /Ogsp
;	COMDAT ??1BuffInfoStruct@@QAE@XZ
_TEXT	SEGMENT
??1BuffInfoStruct@@QAE@XZ PROC				; BuffInfoStruct::~BuffInfoStruct, COMDAT
; _this$ = ecx
  00000	ff 25 00 00 00
	00		 jmp	 DWORD PTR __imp_??1ioHashString@@QAE@XZ
??1BuffInfoStruct@@QAE@XZ ENDP				; BuffInfoStruct::~BuffInfoStruct
_TEXT	ENDS
PUBLIC	?IsLive@ioWeapon@@QBE_NXZ			; ioWeapon::IsLive
; Function compile flags: /Ogsp
; File d:\lost saga for developer\youtube\tutorial\source\src\lsclient\ioweapon.h
;	COMDAT ?IsLive@ioWeapon@@QBE_NXZ
_TEXT	SEGMENT
?IsLive@ioWeapon@@QBE_NXZ PROC				; ioWeapon::IsLive, COMDAT
; _this$ = ecx

; 533  : 	inline bool IsLive() const { return m_bLive; }

  00000	8a 81 82 05 00
	00		 mov	 al, BYTE PTR [ecx+1410]
  00006	c3		 ret	 0
?IsLive@ioWeapon@@QBE_NXZ ENDP				; ioWeapon::IsLive
_TEXT	ENDS
PUBLIC	?GetOwnerName@ioWeapon@@QBEABVioHashString@@XZ	; ioWeapon::GetOwnerName
; Function compile flags: /Ogsp
;	COMDAT ?GetOwnerName@ioWeapon@@QBEABVioHashString@@XZ
_TEXT	SEGMENT
?GetOwnerName@ioWeapon@@QBEABVioHashString@@XZ PROC	; ioWeapon::GetOwnerName, COMDAT
; _this$ = ecx

; 636  : 	inline const ioHashString& GetOwnerName() const { return m_OwnerName; }

  00000	8d 41 10	 lea	 eax, DWORD PTR [ecx+16]
  00003	c3		 ret	 0
?GetOwnerName@ioWeapon@@QBEABVioHashString@@XZ ENDP	; ioWeapon::GetOwnerName
_TEXT	ENDS
PUBLIC	?GetParentSceneNode@ioWeapon@@QBEPAVioSceneNode@@XZ ; ioWeapon::GetParentSceneNode
; Function compile flags: /Ogsp
;	COMDAT ?GetParentSceneNode@ioWeapon@@QBEPAVioSceneNode@@XZ
_TEXT	SEGMENT
?GetParentSceneNode@ioWeapon@@QBEPAVioSceneNode@@XZ PROC ; ioWeapon::GetParentSceneNode, COMDAT
; _this$ = ecx

; 797  : 	ioSceneNode* GetParentSceneNode() const { return m_pSceneNode; }

  00000	8b 41 04	 mov	 eax, DWORD PTR [ecx+4]
  00003	c3		 ret	 0
?GetParentSceneNode@ioWeapon@@QBEPAVioSceneNode@@XZ ENDP ; ioWeapon::GetParentSceneNode
_TEXT	ENDS
PUBLIC	??_R0?AVioWallZone@@@8				; ioWallZone `RTTI Type Descriptor'
PUBLIC	?ToWallZone@@YAPAVioWallZone@@PAVioGameEntity@@@Z ; ToWallZone
;	COMDAT ??_R0?AVioWallZone@@@8
; File d:\lost saga for developer\youtube\tutorial\source\src\lsclient\iowallzone.h
_DATA	SEGMENT
??_R0?AVioWallZone@@@8 DD FLAT:??_7type_info@@6B@	; ioWallZone `RTTI Type Descriptor'
	DD	00H
	DB	'.?AVioWallZone@@', 00H
; Function compile flags: /Ogsp
_DATA	ENDS
;	COMDAT ?ToWallZone@@YAPAVioWallZone@@PAVioGameEntity@@@Z
_TEXT	SEGMENT
_pObj$ = 8						; size = 4
?ToWallZone@@YAPAVioWallZone@@PAVioGameEntity@@@Z PROC	; ToWallZone, COMDAT

; 50   : {

  00000	55		 push	 ebp
  00001	8b ec		 mov	 ebp, esp
  00003	56		 push	 esi

; 51   : 	ioPlayEntity *pPlay = ToPlayEntity( pObj );

  00004	ff 75 08	 push	 DWORD PTR _pObj$[ebp]
  00007	e8 00 00 00 00	 call	 ?ToPlayEntity@@YAPAVioPlayEntity@@PAVioGameEntity@@@Z ; ToPlayEntity
  0000c	8b f0		 mov	 esi, eax
  0000e	59		 pop	 ecx

; 52   : 	if( !pPlay || pPlay->GetSubType() != ioPlayEntity::PST_WALL_ZONE )

  0000f	85 f6		 test	 esi, esi
  00011	74 28		 je	 SHORT $LN1@ToWallZone
  00013	8b 06		 mov	 eax, DWORD PTR [esi]
  00015	8b ce		 mov	 ecx, esi
  00017	ff 90 a4 00 00
	00		 call	 DWORD PTR [eax+164]
  0001d	83 f8 0b	 cmp	 eax, 11			; 0000000bH
  00020	75 19		 jne	 SHORT $LN1@ToWallZone

; 54   : 
; 55   : 	return dynamic_cast< ioWallZone* >( pPlay );

  00022	6a 00		 push	 0
  00024	68 00 00 00 00	 push	 OFFSET ??_R0?AVioWallZone@@@8
  00029	68 00 00 00 00	 push	 OFFSET ??_R0?AVioPlayEntity@@@8
  0002e	6a 00		 push	 0
  00030	56		 push	 esi
  00031	e8 00 00 00 00	 call	 ___RTDynamicCast
  00036	83 c4 14	 add	 esp, 20			; 00000014H
  00039	eb 02		 jmp	 SHORT $LN3@ToWallZone
$LN1@ToWallZone:

; 53   : 		return NULL;

  0003b	33 c0		 xor	 eax, eax
$LN3@ToWallZone:
  0003d	5e		 pop	 esi

; 56   : }

  0003e	5d		 pop	 ebp
  0003f	c3		 ret	 0
?ToWallZone@@YAPAVioWallZone@@PAVioGameEntity@@@Z ENDP	; ToWallZone
_TEXT	ENDS
PUBLIC	??_R0?AVioSymbolStruct@@@8			; ioSymbolStruct `RTTI Type Descriptor'
PUBLIC	?ToSymbolStruct@@YAPAVioSymbolStruct@@PAVioGameEntity@@@Z ; ToSymbolStruct
;	COMDAT ??_R0?AVioSymbolStruct@@@8
; File d:\lost saga for developer\youtube\tutorial\source\src\lsclient\iosymbolstruct.h
_DATA	SEGMENT
??_R0?AVioSymbolStruct@@@8 DD FLAT:??_7type_info@@6B@	; ioSymbolStruct `RTTI Type Descriptor'
	DD	00H
	DB	'.?AVioSymbolStruct@@', 00H
; Function compile flags: /Ogsp
_DATA	ENDS
;	COMDAT ?ToSymbolStruct@@YAPAVioSymbolStruct@@PAVioGameEntity@@@Z
_TEXT	SEGMENT
_pObj$ = 8						; size = 4
?ToSymbolStruct@@YAPAVioSymbolStruct@@PAVioGameEntity@@@Z PROC ; ToSymbolStruct, COMDAT

; 171  : {

  00000	55		 push	 ebp
  00001	8b ec		 mov	 ebp, esp
  00003	56		 push	 esi

; 172  : 	ioPlayEntity *pPlay = ToPlayEntity( pObj );

  00004	ff 75 08	 push	 DWORD PTR _pObj$[ebp]
  00007	e8 00 00 00 00	 call	 ?ToPlayEntity@@YAPAVioPlayEntity@@PAVioGameEntity@@@Z ; ToPlayEntity
  0000c	8b f0		 mov	 esi, eax
  0000e	59		 pop	 ecx

; 173  : 	if( !pPlay || pPlay->GetSubType() != ioPlayEntity::PST_SYMBOL )

  0000f	85 f6		 test	 esi, esi
  00011	74 28		 je	 SHORT $LN1@ToSymbolSt
  00013	8b 06		 mov	 eax, DWORD PTR [esi]
  00015	8b ce		 mov	 ecx, esi
  00017	ff 90 a4 00 00
	00		 call	 DWORD PTR [eax+164]
  0001d	83 f8 01	 cmp	 eax, 1
  00020	75 19		 jne	 SHORT $LN1@ToSymbolSt

; 175  : 
; 176  : 	return dynamic_cast< ioSymbolStruct* >( pPlay );

  00022	6a 00		 push	 0
  00024	68 00 00 00 00	 push	 OFFSET ??_R0?AVioSymbolStruct@@@8
  00029	68 00 00 00 00	 push	 OFFSET ??_R0?AVioPlayEntity@@@8
  0002e	6a 00		 push	 0
  00030	56		 push	 esi
  00031	e8 00 00 00 00	 call	 ___RTDynamicCast
  00036	83 c4 14	 add	 esp, 20			; 00000014H
  00039	eb 02		 jmp	 SHORT $LN3@ToSymbolSt
$LN1@ToSymbolSt:

; 174  : 		return NULL;

  0003b	33 c0		 xor	 eax, eax
$LN3@ToSymbolSt:
  0003d	5e		 pop	 esi

; 177  : }

  0003e	5d		 pop	 ebp
  0003f	c3		 ret	 0
?ToSymbolStruct@@YAPAVioSymbolStruct@@PAVioGameEntity@@@Z ENDP ; ToSymbolStruct
_TEXT	ENDS
PUBLIC	??_R0?AVioBall@@@8				; ioBall `RTTI Type Descriptor'
PUBLIC	?ToBallStruct@@YAPAVioBall@@PAVioGameEntity@@@Z	; ToBallStruct
;	COMDAT ??_R0?AVioBall@@@8
; File d:\lost saga for developer\youtube\tutorial\source\src\lsclient\ioball.h
_DATA	SEGMENT
??_R0?AVioBall@@@8 DD FLAT:??_7type_info@@6B@		; ioBall `RTTI Type Descriptor'
	DD	00H
	DB	'.?AVioBall@@', 00H
; Function compile flags: /Ogsp
_DATA	ENDS
;	COMDAT ?ToBallStruct@@YAPAVioBall@@PAVioGameEntity@@@Z
_TEXT	SEGMENT
_pObj$ = 8						; size = 4
?ToBallStruct@@YAPAVioBall@@PAVioGameEntity@@@Z PROC	; ToBallStruct, COMDAT

; 252  : {

  00000	55		 push	 ebp
  00001	8b ec		 mov	 ebp, esp
  00003	56		 push	 esi

; 253  : 	ioPlayEntity *pPlay = ToPlayEntity( pObj );

  00004	ff 75 08	 push	 DWORD PTR _pObj$[ebp]
  00007	e8 00 00 00 00	 call	 ?ToPlayEntity@@YAPAVioPlayEntity@@PAVioGameEntity@@@Z ; ToPlayEntity
  0000c	8b f0		 mov	 esi, eax
  0000e	59		 pop	 ecx

; 254  : 	if( !pPlay || pPlay->GetSubType() != ioPlayEntity::PST_BALL )

  0000f	85 f6		 test	 esi, esi
  00011	74 28		 je	 SHORT $LN1@ToBallStru
  00013	8b 06		 mov	 eax, DWORD PTR [esi]
  00015	8b ce		 mov	 ecx, esi
  00017	ff 90 a4 00 00
	00		 call	 DWORD PTR [eax+164]
  0001d	83 f8 08	 cmp	 eax, 8
  00020	75 19		 jne	 SHORT $LN1@ToBallStru

; 256  : 
; 257  : 	return dynamic_cast< ioBall* >( pPlay );

  00022	6a 00		 push	 0
  00024	68 00 00 00 00	 push	 OFFSET ??_R0?AVioBall@@@8
  00029	68 00 00 00 00	 push	 OFFSET ??_R0?AVioPlayEntity@@@8
  0002e	6a 00		 push	 0
  00030	56		 push	 esi
  00031	e8 00 00 00 00	 call	 ___RTDynamicCast
  00036	83 c4 14	 add	 esp, 20			; 00000014H
  00039	eb 02		 jmp	 SHORT $LN3@ToBallStru
$LN1@ToBallStru:

; 255  : 		return NULL;

  0003b	33 c0		 xor	 eax, eax
$LN3@ToBallStru:
  0003d	5e		 pop	 esi

; 258  : }

  0003e	5d		 pop	 ebp
  0003f	c3		 ret	 0
?ToBallStruct@@YAPAVioBall@@PAVioGameEntity@@@Z ENDP	; ToBallStruct
_TEXT	ENDS
PUBLIC	??_R0?AVioPushStruct@@@8			; ioPushStruct `RTTI Type Descriptor'
PUBLIC	?ToPushStruct@@YAPAVioPushStruct@@PAVioGameEntity@@@Z ; ToPushStruct
;	COMDAT ??_R0?AVioPushStruct@@@8
; File d:\lost saga for developer\youtube\tutorial\source\src\lsclient\iopushstruct.h
_DATA	SEGMENT
??_R0?AVioPushStruct@@@8 DD FLAT:??_7type_info@@6B@	; ioPushStruct `RTTI Type Descriptor'
	DD	00H
	DB	'.?AVioPushStruct@@', 00H
; Function compile flags: /Ogsp
_DATA	ENDS
;	COMDAT ?ToPushStruct@@YAPAVioPushStruct@@PAVioGameEntity@@@Z
_TEXT	SEGMENT
_pObj$ = 8						; size = 4
?ToPushStruct@@YAPAVioPushStruct@@PAVioGameEntity@@@Z PROC ; ToPushStruct, COMDAT

; 440  : {

  00000	55		 push	 ebp
  00001	8b ec		 mov	 ebp, esp
  00003	56		 push	 esi

; 441  : 	ioPlayEntity *pPlay = ToPlayEntity( pObj );

  00004	ff 75 08	 push	 DWORD PTR _pObj$[ebp]
  00007	e8 00 00 00 00	 call	 ?ToPlayEntity@@YAPAVioPlayEntity@@PAVioGameEntity@@@Z ; ToPlayEntity
  0000c	8b f0		 mov	 esi, eax
  0000e	59		 pop	 ecx

; 442  : 	if( !pPlay || pPlay->GetSubType() != ioPlayEntity::PST_PUSHSTRUCT )

  0000f	85 f6		 test	 esi, esi
  00011	74 28		 je	 SHORT $LN1@ToPushStru
  00013	8b 06		 mov	 eax, DWORD PTR [esi]
  00015	8b ce		 mov	 ecx, esi
  00017	ff 90 a4 00 00
	00		 call	 DWORD PTR [eax+164]
  0001d	83 f8 02	 cmp	 eax, 2
  00020	75 19		 jne	 SHORT $LN1@ToPushStru

; 444  : 
; 445  : 	return dynamic_cast< ioPushStruct* >( pPlay );

  00022	6a 00		 push	 0
  00024	68 00 00 00 00	 push	 OFFSET ??_R0?AVioPushStruct@@@8
  00029	68 00 00 00 00	 push	 OFFSET ??_R0?AVioPlayEntity@@@8
  0002e	6a 00		 push	 0
  00030	56		 push	 esi
  00031	e8 00 00 00 00	 call	 ___RTDynamicCast
  00036	83 c4 14	 add	 esp, 20			; 00000014H
  00039	eb 02		 jmp	 SHORT $LN3@ToPushStru
$LN1@ToPushStru:

; 443  : 		return NULL;

  0003b	33 c0		 xor	 eax, eax
$LN3@ToPushStru:
  0003d	5e		 pop	 esi

; 446  : }

  0003e	5d		 pop	 ebp
  0003f	c3		 ret	 0
?ToPushStruct@@YAPAVioPushStruct@@PAVioGameEntity@@@Z ENDP ; ToPushStruct
_TEXT	ENDS
PUBLIC	??_7?$CEncrypt@M@@6B@				; CEncrypt<float>::`vftable'
PUBLIC	??1?$CEncrypt@M@@UAE@XZ				; CEncrypt<float>::~CEncrypt<float>
PUBLIC	??_R4?$CEncrypt@M@@6B@				; CEncrypt<float>::`RTTI Complete Object Locator'
PUBLIC	??_R0?AV?$CEncrypt@M@@@8			; CEncrypt<float> `RTTI Type Descriptor'
PUBLIC	??_R3?$CEncrypt@M@@8				; CEncrypt<float>::`RTTI Class Hierarchy Descriptor'
PUBLIC	??_R2?$CEncrypt@M@@8				; CEncrypt<float>::`RTTI Base Class Array'
PUBLIC	??_R1A@?0A@EA@?$CEncrypt@M@@8			; CEncrypt<float>::`RTTI Base Class Descriptor at (0,-1,0,64)'
EXTRN	??1ccddaabb@@UAE@XZ:PROC			; ccddaabb::~ccddaabb
EXTRN	??_E?$CEncrypt@M@@UAEPAXI@Z:PROC		; CEncrypt<float>::`vector deleting destructor'
;	COMDAT ??_R1A@?0A@EA@?$CEncrypt@M@@8
; File d:\lost saga for developer\youtube\tutorial\source\src\lsclient\encryptvalue.h
rdata$r	SEGMENT
??_R1A@?0A@EA@?$CEncrypt@M@@8 DD FLAT:??_R0?AV?$CEncrypt@M@@@8 ; CEncrypt<float>::`RTTI Base Class Descriptor at (0,-1,0,64)'
	DD	00H
	DD	00H
	DD	0ffffffffH
	DD	00H
	DD	040H
	DD	FLAT:??_R3?$CEncrypt@M@@8
rdata$r	ENDS
;	COMDAT ??_R2?$CEncrypt@M@@8
rdata$r	SEGMENT
??_R2?$CEncrypt@M@@8 DD FLAT:??_R1A@?0A@EA@?$CEncrypt@M@@8 ; CEncrypt<float>::`RTTI Base Class Array'
rdata$r	ENDS
;	COMDAT ??_R3?$CEncrypt@M@@8
rdata$r	SEGMENT
??_R3?$CEncrypt@M@@8 DD 00H				; CEncrypt<float>::`RTTI Class Hierarchy Descriptor'
	DD	00H
	DD	01H
	DD	FLAT:??_R2?$CEncrypt@M@@8
rdata$r	ENDS
;	COMDAT ??_R0?AV?$CEncrypt@M@@@8
_DATA	SEGMENT
??_R0?AV?$CEncrypt@M@@@8 DD FLAT:??_7type_info@@6B@	; CEncrypt<float> `RTTI Type Descriptor'
	DD	00H
	DB	'.?AV?$CEncrypt@M@@', 00H
_DATA	ENDS
;	COMDAT ??_R4?$CEncrypt@M@@6B@
rdata$r	SEGMENT
??_R4?$CEncrypt@M@@6B@ DD 00H				; CEncrypt<float>::`RTTI Complete Object Locator'
	DD	00H
	DD	00H
	DD	FLAT:??_R0?AV?$CEncrypt@M@@@8
	DD	FLAT:??_R3?$CEncrypt@M@@8
rdata$r	ENDS
;	COMDAT ??_7?$CEncrypt@M@@6B@
CONST	SEGMENT
??_7?$CEncrypt@M@@6B@ DD FLAT:??_R4?$CEncrypt@M@@6B@	; CEncrypt<float>::`vftable'
	DD	FLAT:??_E?$CEncrypt@M@@UAEPAXI@Z
; Function compile flags: /Ogsp
CONST	ENDS
;	COMDAT ??1?$CEncrypt@M@@UAE@XZ
_TEXT	SEGMENT
??1?$CEncrypt@M@@UAE@XZ PROC				; CEncrypt<float>::~CEncrypt<float>, COMDAT
; _this$ = ecx

; 127  : 	{

  00000	c7 01 00 00 00
	00		 mov	 DWORD PTR [ecx], OFFSET ??_7?$CEncrypt@M@@6B@

; 128  : 	}

  00006	83 c1 0c	 add	 ecx, 12			; 0000000cH
  00009	e9 00 00 00 00	 jmp	 ??1ccddaabb@@UAE@XZ	; ccddaabb::~ccddaabb
??1?$CEncrypt@M@@UAE@XZ ENDP				; CEncrypt<float>::~CEncrypt<float>
; Function compile flags: /Ogsp
_TEXT	ENDS
;	COMDAT ??_G?$CEncrypt@M@@UAEPAXI@Z
_TEXT	SEGMENT
___flags$ = 8						; size = 4
??_G?$CEncrypt@M@@UAEPAXI@Z PROC			; CEncrypt<float>::`scalar deleting destructor', COMDAT
; _this$ = ecx
  00000	55		 push	 ebp
  00001	8b ec		 mov	 ebp, esp
  00003	56		 push	 esi
  00004	8b f1		 mov	 esi, ecx
  00006	8d 4e 0c	 lea	 ecx, DWORD PTR [esi+12]
  00009	c7 06 00 00 00
	00		 mov	 DWORD PTR [esi], OFFSET ??_7?$CEncrypt@M@@6B@
  0000f	e8 00 00 00 00	 call	 ??1ccddaabb@@UAE@XZ	; ccddaabb::~ccddaabb
  00014	f6 45 08 01	 test	 BYTE PTR ___flags$[ebp], 1
  00018	74 07		 je	 SHORT $LN1@scalar@2
  0001a	56		 push	 esi
  0001b	e8 00 00 00 00	 call	 ??3@YAXPAX@Z		; operator delete
  00020	59		 pop	 ecx
$LN1@scalar@2:
  00021	8b c6		 mov	 eax, esi
  00023	5e		 pop	 esi
  00024	5d		 pop	 ebp
  00025	c2 04 00	 ret	 4
??_G?$CEncrypt@M@@UAEPAXI@Z ENDP			; CEncrypt<float>::`scalar deleting destructor'
_TEXT	ENDS
PUBLIC	?EncryptValueToPool@?$CEncrypt@M@@AAEXPBD@Z	; CEncrypt<float>::EncryptValueToPool
EXTRN	?EncryptByte@ccddaabb@@QAEXPBDPADH@Z:PROC	; ccddaabb::EncryptByte
; Function compile flags: /Ogsp
;	COMDAT ?EncryptValueToPool@?$CEncrypt@M@@AAEXPBD@Z
_TEXT	SEGMENT
_value$ = 8						; size = 4
?EncryptValueToPool@?$CEncrypt@M@@AAEXPBD@Z PROC	; CEncrypt<float>::EncryptValueToPool, COMDAT
; _this$ = ecx

; 67   : 	{

  00000	55		 push	 ebp
  00001	8b ec		 mov	 ebp, esp

; 68   : 		m_RC5.EncryptByte( value, m_MemPool, max(m_ValueSize, DEFAULT_ENCRYPT) );

  00003	0f b7 41 06	 movzx	 eax, WORD PTR [ecx+6]
  00007	83 f8 04	 cmp	 eax, 4
  0000a	77 03		 ja	 SHORT $LN4@EncryptVal
  0000c	6a 04		 push	 4
  0000e	58		 pop	 eax
$LN4@EncryptVal:
  0000f	50		 push	 eax
  00010	8d 41 1c	 lea	 eax, DWORD PTR [ecx+28]
  00013	50		 push	 eax
  00014	ff 75 08	 push	 DWORD PTR _value$[ebp]
  00017	83 c1 0c	 add	 ecx, 12			; 0000000cH
  0001a	e8 00 00 00 00	 call	 ?EncryptByte@ccddaabb@@QAEXPBDPADH@Z ; ccddaabb::EncryptByte

; 69   : 		
; 70   : 	}

  0001f	5d		 pop	 ebp
  00020	c2 04 00	 ret	 4
?EncryptValueToPool@?$CEncrypt@M@@AAEXPBD@Z ENDP	; CEncrypt<float>::EncryptValueToPool
_TEXT	ENDS
PUBLIC	?Init@?$CEncrypt@M@@AAEXXZ			; CEncrypt<float>::Init
EXTRN	?Setup@ccddaabb@@QAEXPBDHH@Z:PROC		; ccddaabb::Setup
EXTRN	__imp__rand:PROC
EXTRN	__imp__timeGetTime@0:PROC
EXTRN	__imp__GetCurrentProcessId@0:PROC
; Function compile flags: /Ogsp
;	COMDAT ?Init@?$CEncrypt@M@@AAEXXZ
_TEXT	SEGMENT
_pid$ = -8						; size = 4
_tick$ = -4						; size = 4
?Init@?$CEncrypt@M@@AAEXXZ PROC				; CEncrypt<float>::Init, COMDAT
; _this$ = ecx

; 73   : 	{

  00000	55		 push	 ebp
  00001	8b ec		 mov	 ebp, esp
  00003	51		 push	 ecx
  00004	51		 push	 ecx
  00005	53		 push	 ebx
  00006	56		 push	 esi
  00007	57		 push	 edi
  00008	8b f1		 mov	 esi, ecx

; 74   : 		DWORD pid = GetCurrentProcessId();

  0000a	ff 15 00 00 00
	00		 call	 DWORD PTR __imp__GetCurrentProcessId@0
  00010	89 45 f8	 mov	 DWORD PTR _pid$[ebp], eax

; 75   : 		DWORD tick = timeGetTime();

  00013	ff 15 00 00 00
	00		 call	 DWORD PTR __imp__timeGetTime@0

; 76   : 		m_ValueSize    = sizeof(type);
; 77   : 		m_MemPoolPos   = (unsigned short)( rand()+pid+tick )%(MAX_MEM_POOL-m_ValueSize);

  00019	8b 3d 00 00 00
	00		 mov	 edi, DWORD PTR __imp__rand
  0001f	89 45 fc	 mov	 DWORD PTR _tick$[ebp], eax
  00022	6a 04		 push	 4
  00024	58		 pop	 eax
  00025	66 89 46 06	 mov	 WORD PTR [esi+6], ax
  00029	ff d7		 call	 edi
  0002b	03 45 f8	 add	 eax, DWORD PTR _pid$[ebp]
  0002e	0f b7 4e 06	 movzx	 ecx, WORD PTR [esi+6]
  00032	03 45 fc	 add	 eax, DWORD PTR _tick$[ebp]
  00035	6a 0c		 push	 12			; 0000000cH
  00037	0f b7 c0	 movzx	 eax, ax
  0003a	5b		 pop	 ebx
  0003b	99		 cdq
  0003c	2b d9		 sub	 ebx, ecx
  0003e	f7 fb		 idiv	 ebx
  00040	66 89 56 04	 mov	 WORD PTR [esi+4], dx

; 78   : 		m_EncryptSeed  = (char)( rand()+pid+tick )%256;

  00044	ff d7		 call	 edi
  00046	02 45 f8	 add	 al, BYTE PTR _pid$[ebp]
  00049	02 45 fc	 add	 al, BYTE PTR _tick$[ebp]
  0004c	0f be c0	 movsx	 eax, al
  0004f	25 ff 00 00 80	 and	 eax, -2147483393	; 800000ffH
  00054	79 07		 jns	 SHORT $LN8@Init
  00056	48		 dec	 eax
  00057	0d 00 ff ff ff	 or	 eax, -256		; ffffff00H
  0005c	40		 inc	 eax
$LN8@Init:
  0005d	88 46 08	 mov	 BYTE PTR [esi+8], al

; 79   : 
; 80   : 		for (int i = 0; i < MAX_MEM_POOL ; i++)

  00060	33 db		 xor	 ebx, ebx
$LL3@Init:

; 81   : 			m_MemPool[i] = (char)( rand()+pid+tick )%256; // 

  00062	ff d7		 call	 edi
  00064	02 45 f8	 add	 al, BYTE PTR _pid$[ebp]
  00067	02 45 fc	 add	 al, BYTE PTR _tick$[ebp]
  0006a	0f be c0	 movsx	 eax, al
  0006d	25 ff 00 00 80	 and	 eax, -2147483393	; 800000ffH
  00072	79 07		 jns	 SHORT $LN9@Init
  00074	48		 dec	 eax
  00075	0d 00 ff ff ff	 or	 eax, -256		; ffffff00H
  0007a	40		 inc	 eax
$LN9@Init:
  0007b	88 44 1e 1c	 mov	 BYTE PTR [esi+ebx+28], al
  0007f	43		 inc	 ebx
  00080	83 fb 0c	 cmp	 ebx, 12			; 0000000cH
  00083	7c dd		 jl	 SHORT $LL3@Init

; 82   : 
; 83   : 		//UJ 130913, : szKey  
; 84   : 		//char szKey[ccddaabb::KEY_SIZE];//="";
; 85   : 		//for (int i = 0; i < ccddaabb::KEY_SIZE  ; i++)
; 86   : 		//	szKey[i] = (char)( rand()+pid+tick )%256; // 
; 87   : 		m_RC5.Setup( NULL, pid, tick );

  00085	ff 75 fc	 push	 DWORD PTR _tick$[ebp]
  00088	8d 4e 0c	 lea	 ecx, DWORD PTR [esi+12]
  0008b	ff 75 f8	 push	 DWORD PTR _pid$[ebp]
  0008e	6a 00		 push	 0
  00090	e8 00 00 00 00	 call	 ?Setup@ccddaabb@@QAEXPBDHH@Z ; ccddaabb::Setup
  00095	5f		 pop	 edi
  00096	5e		 pop	 esi
  00097	5b		 pop	 ebx

; 88   : 
; 89   : #ifdef _NOTUSE
; 90   : 		m_value        = 0;
; 91   : 		EncryptValueToPool((char*)&m_value);
; 92   : 		Debug();
; 93   : #endif
; 94   : 	}

  00098	c9		 leave
  00099	c3		 ret	 0
?Init@?$CEncrypt@M@@AAEXXZ ENDP				; CEncrypt<float>::Init
_TEXT	ENDS
PUBLIC	?DecryptValueToPool@?$CEncrypt@M@@QAEXPAM@Z	; CEncrypt<float>::DecryptValueToPool
EXTRN	?DecryptByte@ccddaabb@@QBEXPBDPADH@Z:PROC	; ccddaabb::DecryptByte
; Function compile flags: /Ogsp
;	COMDAT ?DecryptValueToPool@?$CEncrypt@M@@QAEXPAM@Z
_TEXT	SEGMENT
_value$ = 8						; size = 4
?DecryptValueToPool@?$CEncrypt@M@@QAEXPAM@Z PROC	; CEncrypt<float>::DecryptValueToPool, COMDAT
; _this$ = ecx

; 1648 : 	{

  00000	55		 push	 ebp
  00001	8b ec		 mov	 ebp, esp
  00003	56		 push	 esi

; 1649 : 		m_RC5.DecryptByte( m_MemPool, m_TempMem, 4 );

  00004	8d 71 28	 lea	 esi, DWORD PTR [ecx+40]
  00007	6a 04		 push	 4
  00009	8d 41 1c	 lea	 eax, DWORD PTR [ecx+28]
  0000c	56		 push	 esi
  0000d	50		 push	 eax
  0000e	83 c1 0c	 add	 ecx, 12			; 0000000cH
  00011	e8 00 00 00 00	 call	 ?DecryptByte@ccddaabb@@QBEXPBDPADH@Z ; ccddaabb::DecryptByte

; 1650 : 		*value = *((float*)m_TempMem);

  00016	d9 06		 fld	 DWORD PTR [esi]
  00018	8b 45 08	 mov	 eax, DWORD PTR _value$[ebp]
  0001b	d9 18		 fstp	 DWORD PTR [eax]
  0001d	5e		 pop	 esi

; 1651 : 	}

  0001e	5d		 pop	 ebp
  0001f	c2 04 00	 ret	 4
?DecryptValueToPool@?$CEncrypt@M@@QAEXPAM@Z ENDP	; CEncrypt<float>::DecryptValueToPool
_TEXT	ENDS
PUBLIC	?DecryptValueToPool@?$CEncrypt@W4TeamType@@@@QAEXPAW4TeamType@@@Z ; CEncrypt<enum TeamType>::DecryptValueToPool
; Function compile flags: /Ogsp
;	COMDAT ?DecryptValueToPool@?$CEncrypt@W4TeamType@@@@QAEXPAW4TeamType@@@Z
_TEXT	SEGMENT
_value$ = 8						; size = 4
?DecryptValueToPool@?$CEncrypt@W4TeamType@@@@QAEXPAW4TeamType@@@Z PROC ; CEncrypt<enum TeamType>::DecryptValueToPool, COMDAT
; _this$ = ecx

; 2959 : 	{

  00000	55		 push	 ebp
  00001	8b ec		 mov	 ebp, esp
  00003	56		 push	 esi

; 2960 : 		m_RC5.DecryptByte( m_MemPool, m_TempMem, sizeof(TeamType) );

  00004	8d 71 28	 lea	 esi, DWORD PTR [ecx+40]
  00007	6a 04		 push	 4
  00009	8d 41 1c	 lea	 eax, DWORD PTR [ecx+28]
  0000c	56		 push	 esi
  0000d	50		 push	 eax
  0000e	83 c1 0c	 add	 ecx, 12			; 0000000cH
  00011	e8 00 00 00 00	 call	 ?DecryptByte@ccddaabb@@QBEXPBDPADH@Z ; ccddaabb::DecryptByte

; 2961 : 		*value = *((TeamType*)m_TempMem);

  00016	8b 06		 mov	 eax, DWORD PTR [esi]
  00018	8b 4d 08	 mov	 ecx, DWORD PTR _value$[ebp]
  0001b	89 01		 mov	 DWORD PTR [ecx], eax
  0001d	5e		 pop	 esi

; 2962 : 	}

  0001e	5d		 pop	 ebp
  0001f	c2 04 00	 ret	 4
?DecryptValueToPool@?$CEncrypt@W4TeamType@@@@QAEXPAW4TeamType@@@Z ENDP ; CEncrypt<enum TeamType>::DecryptValueToPool
_TEXT	ENDS
PUBLIC	?capacity@?$vector@UBuffInfoStruct@@V?$allocator@UBuffInfoStruct@@@std@@@std@@QBEIXZ ; std::vector<BuffInfoStruct,std::allocator<BuffInfoStruct> >::capacity
; Function compile flags: /Ogsp
; File c:\program files (x86)\microsoft visual studio 10.0\vc\include\vector
;	COMDAT ?capacity@?$vector@UBuffInfoStruct@@V?$allocator@UBuffInfoStruct@@@std@@@std@@QBEIXZ
_TEXT	SEGMENT
?capacity@?$vector@UBuffInfoStruct@@V?$allocator@UBuffInfoStruct@@@std@@@std@@QBEIXZ PROC ; std::vector<BuffInfoStruct,std::allocator<BuffInfoStruct> >::capacity, COMDAT
; _this$ = ecx

; 777  : 		return (this->_Myend - this->_Myfirst);

  00000	8b 41 08	 mov	 eax, DWORD PTR [ecx+8]
  00003	2b 01		 sub	 eax, DWORD PTR [ecx]
  00005	6a 14		 push	 20			; 00000014H
  00007	99		 cdq
  00008	59		 pop	 ecx
  00009	f7 f9		 idiv	 ecx

; 778  : 		}

  0000b	c3		 ret	 0
?capacity@?$vector@UBuffInfoStruct@@V?$allocator@UBuffInfoStruct@@@std@@@std@@QBEIXZ ENDP ; std::vector<BuffInfoStruct,std::allocator<BuffInfoStruct> >::capacity
_TEXT	ENDS
PUBLIC	?size@?$vector@UBuffInfoStruct@@V?$allocator@UBuffInfoStruct@@@std@@@std@@QBEIXZ ; std::vector<BuffInfoStruct,std::allocator<BuffInfoStruct> >::size
; Function compile flags: /Ogsp
;	COMDAT ?size@?$vector@UBuffInfoStruct@@V?$allocator@UBuffInfoStruct@@@std@@@std@@QBEIXZ
_TEXT	SEGMENT
?size@?$vector@UBuffInfoStruct@@V?$allocator@UBuffInfoStruct@@@std@@@std@@QBEIXZ PROC ; std::vector<BuffInfoStruct,std::allocator<BuffInfoStruct> >::size, COMDAT
; _this$ = ecx

; 879  : 		return (this->_Mylast - this->_Myfirst);

  00000	8b 41 04	 mov	 eax, DWORD PTR [ecx+4]
  00003	2b 01		 sub	 eax, DWORD PTR [ecx]
  00005	6a 14		 push	 20			; 00000014H
  00007	99		 cdq
  00008	59		 pop	 ecx
  00009	f7 f9		 idiv	 ecx

; 880  : 		}

  0000b	c3		 ret	 0
?size@?$vector@UBuffInfoStruct@@V?$allocator@UBuffInfoStruct@@@std@@@std@@QBEIXZ ENDP ; std::vector<BuffInfoStruct,std::allocator<BuffInfoStruct> >::size
_TEXT	ENDS
PUBLIC	??1?$_Vector_val@UBuffInfoStruct@@V?$allocator@UBuffInfoStruct@@@std@@@std@@QAE@XZ ; std::_Vector_val<BuffInfoStruct,std::allocator<BuffInfoStruct> >::~_Vector_val<BuffInfoStruct,std::allocator<BuffInfoStruct> >
; Function compile flags: /Ogsp
;	COMDAT ??1?$_Vector_val@UBuffInfoStruct@@V?$allocator@UBuffInfoStruct@@@std@@@std@@QAE@XZ
_TEXT	SEGMENT
??1?$_Vector_val@UBuffInfoStruct@@V?$allocator@UBuffInfoStruct@@@std@@@std@@QAE@XZ PROC ; std::_Vector_val<BuffInfoStruct,std::allocator<BuffInfoStruct> >::~_Vector_val<BuffInfoStruct,std::allocator<BuffInfoStruct> >, COMDAT
; _this$ = ecx

; 434  : 		}

  00000	c3		 ret	 0
??1?$_Vector_val@UBuffInfoStruct@@V?$allocator@UBuffInfoStruct@@@std@@@std@@QAE@XZ ENDP ; std::_Vector_val<BuffInfoStruct,std::allocator<BuffInfoStruct> >::~_Vector_val<BuffInfoStruct,std::allocator<BuffInfoStruct> >
_TEXT	ENDS
PUBLIC	??0?$allocator@UBuffInfoStruct@@@std@@QAE@XZ	; std::allocator<BuffInfoStruct>::allocator<BuffInfoStruct>
; Function compile flags: /Ogsp
; File c:\program files (x86)\microsoft visual studio 10.0\vc\include\xmemory
;	COMDAT ??0?$allocator@UBuffInfoStruct@@@std@@QAE@XZ
_TEXT	SEGMENT
??0?$allocator@UBuffInfoStruct@@@std@@QAE@XZ PROC	; std::allocator<BuffInfoStruct>::allocator<BuffInfoStruct>, COMDAT
; _this$ = ecx

; 161  : 	_ALLOCATOR() _THROW0()

  00000	8b c1		 mov	 eax, ecx

; 162  : 		{	// construct default allocator (do nothing)
; 163  : 		}

  00002	c3		 ret	 0
??0?$allocator@UBuffInfoStruct@@@std@@QAE@XZ ENDP	; std::allocator<BuffInfoStruct>::allocator<BuffInfoStruct>
_TEXT	ENDS
PUBLIC	?deallocate@?$allocator@UBuffInfoStruct@@@std@@QAEXPAUBuffInfoStruct@@I@Z ; std::allocator<BuffInfoStruct>::deallocate
; Function compile flags: /Ogsp
;	COMDAT ?deallocate@?$allocator@UBuffInfoStruct@@@std@@QAEXPAUBuffInfoStruct@@I@Z
_TEXT	SEGMENT
__Ptr$ = 8						; size = 4
___formal$ = 12						; size = 4
?deallocate@?$allocator@UBuffInfoStruct@@@std@@QAEXPAUBuffInfoStruct@@I@Z PROC ; std::allocator<BuffInfoStruct>::deallocate, COMDAT
; _this$ = ecx

; 181  : 		{	// deallocate object at _Ptr, ignore size

  00000	55		 push	 ebp
  00001	8b ec		 mov	 ebp, esp

; 182  : 		::operator delete(_Ptr);

  00003	ff 75 08	 push	 DWORD PTR __Ptr$[ebp]
  00006	e8 00 00 00 00	 call	 ??3@YAXPAX@Z		; operator delete
  0000b	59		 pop	 ecx

; 183  : 		}

  0000c	5d		 pop	 ebp
  0000d	c2 08 00	 ret	 8
?deallocate@?$allocator@UBuffInfoStruct@@@std@@QAEXPAUBuffInfoStruct@@I@Z ENDP ; std::allocator<BuffInfoStruct>::deallocate
_TEXT	ENDS
PUBLIC	??_C@_0BD@OLBABOEK@vector?$DMT?$DO?5too?5long?$AA@ ; `string'
PUBLIC	?_Xlen@?$vector@UBuffInfoStruct@@V?$allocator@UBuffInfoStruct@@@std@@@std@@IBEXXZ ; std::vector<BuffInfoStruct,std::allocator<BuffInfoStruct> >::_Xlen
EXTRN	__imp_?_Xlength_error@std@@YAXPBD@Z:PROC
;	COMDAT ??_C@_0BD@OLBABOEK@vector?$DMT?$DO?5too?5long?$AA@
; File c:\program files (x86)\microsoft visual studio 10.0\vc\include\vector
CONST	SEGMENT
??_C@_0BD@OLBABOEK@vector?$DMT?$DO?5too?5long?$AA@ DB 'vector<T> too long'
	DB	00H						; `string'
; Function compile flags: /Ogsp
CONST	ENDS
;	COMDAT ?_Xlen@?$vector@UBuffInfoStruct@@V?$allocator@UBuffInfoStruct@@@std@@@std@@IBEXXZ
_TEXT	SEGMENT
?_Xlen@?$vector@UBuffInfoStruct@@V?$allocator@UBuffInfoStruct@@@std@@@std@@IBEXXZ PROC ; std::vector<BuffInfoStruct,std::allocator<BuffInfoStruct> >::_Xlen, COMDAT
; _this$ = ecx

; 1427 : 		_Xlength_error("vector<T> too long");

  00000	68 00 00 00 00	 push	 OFFSET ??_C@_0BD@OLBABOEK@vector?$DMT?$DO?5too?5long?$AA@
  00005	ff 15 00 00 00
	00		 call	 DWORD PTR __imp_?_Xlength_error@std@@YAXPBD@Z
$LN4@Xlen:
$LN3@Xlen:
  0000b	cc		 int	 3
?_Xlen@?$vector@UBuffInfoStruct@@V?$allocator@UBuffInfoStruct@@@std@@@std@@IBEXXZ ENDP ; std::vector<BuffInfoStruct,std::allocator<BuffInfoStruct> >::_Xlen
_TEXT	ENDS
PUBLIC	??0?$allocator@UBuffInfoStruct@@@std@@QAE@ABV01@@Z ; std::allocator<BuffInfoStruct>::allocator<BuffInfoStruct>
; Function compile flags: /Ogsp
; File c:\program files (x86)\microsoft visual studio 10.0\vc\include\xmemory
;	COMDAT ??0?$allocator@UBuffInfoStruct@@@std@@QAE@ABV01@@Z
_TEXT	SEGMENT
___formal$ = 8						; size = 4
??0?$allocator@UBuffInfoStruct@@@std@@QAE@ABV01@@Z PROC	; std::allocator<BuffInfoStruct>::allocator<BuffInfoStruct>, COMDAT
; _this$ = ecx

; 165  : 	_ALLOCATOR(const _ALLOCATOR<_Ty>&) _THROW0()

  00000	8b c1		 mov	 eax, ecx

; 166  : 		{	// construct by copying (do nothing)
; 167  : 		}

  00002	c2 04 00	 ret	 4
??0?$allocator@UBuffInfoStruct@@@std@@QAE@ABV01@@Z ENDP	; std::allocator<BuffInfoStruct>::allocator<BuffInfoStruct>
_TEXT	ENDS
PUBLIC	?max_size@?$allocator@UBuffInfoStruct@@@std@@QBEIXZ ; std::allocator<BuffInfoStruct>::max_size
; Function compile flags: /Ogsp
;	COMDAT ?max_size@?$allocator@UBuffInfoStruct@@@std@@QBEIXZ
_TEXT	SEGMENT
?max_size@?$allocator@UBuffInfoStruct@@@std@@QBEIXZ PROC ; std::allocator<BuffInfoStruct>::max_size, COMDAT
; _this$ = ecx

; 218  : 		_SIZT _Count = (_SIZT)(-1) / sizeof (_Ty);
; 219  : 		return (0 < _Count ? _Count : 1);

  00000	b8 cc cc cc 0c	 mov	 eax, 214748364		; 0cccccccH

; 220  : 		}

  00005	c3		 ret	 0
?max_size@?$allocator@UBuffInfoStruct@@@std@@QBEIXZ ENDP ; std::allocator<BuffInfoStruct>::max_size
_TEXT	ENDS
PUBLIC	__TI2?AVbad_alloc@std@@
PUBLIC	??$_Allocate@UBuffInfoStruct@@@std@@YAPAUBuffInfoStruct@@IPAU1@@Z ; std::_Allocate<BuffInfoStruct>
PUBLIC	__CTA2?AVbad_alloc@std@@
PUBLIC	__CT??_R0?AVbad_alloc@std@@@8??0bad_alloc@std@@QAE@ABV01@@Z12
PUBLIC	??0bad_alloc@std@@QAE@ABV01@@Z			; std::bad_alloc::bad_alloc
PUBLIC	__CT??_R0?AVexception@std@@@8??0exception@std@@QAE@ABV01@@Z12
EXTRN	??2@YAPAXI@Z:PROC				; operator new
EXTRN	__CxxThrowException@8:PROC
EXTRN	??0exception@std@@QAE@ABV01@@Z:PROC		; std::exception::exception
;	COMDAT __CT??_R0?AVexception@std@@@8??0exception@std@@QAE@ABV01@@Z12
; File c:\program files (x86)\microsoft visual studio 10.0\vc\include\exception
xdata$x	SEGMENT
__CT??_R0?AVexception@std@@@8??0exception@std@@QAE@ABV01@@Z12 DD 00H
	DD	FLAT:??_R0?AVexception@std@@@8
	DD	00H
	DD	0ffffffffH
	ORG $+4
	DD	0cH
	DD	FLAT:??0exception@std@@QAE@ABV01@@Z
xdata$x	ENDS
;	COMDAT __CT??_R0?AVbad_alloc@std@@@8??0bad_alloc@std@@QAE@ABV01@@Z12
xdata$x	SEGMENT
__CT??_R0?AVbad_alloc@std@@@8??0bad_alloc@std@@QAE@ABV01@@Z12 DD 00H
	DD	FLAT:??_R0?AVbad_alloc@std@@@8
	DD	00H
	DD	0ffffffffH
	ORG $+4
	DD	0cH
	DD	FLAT:??0bad_alloc@std@@QAE@ABV01@@Z
xdata$x	ENDS
;	COMDAT __CTA2?AVbad_alloc@std@@
xdata$x	SEGMENT
__CTA2?AVbad_alloc@std@@ DD 02H
	DD	FLAT:__CT??_R0?AVbad_alloc@std@@@8??0bad_alloc@std@@QAE@ABV01@@Z12
	DD	FLAT:__CT??_R0?AVexception@std@@@8??0exception@std@@QAE@ABV01@@Z12
xdata$x	ENDS
;	COMDAT __TI2?AVbad_alloc@std@@
xdata$x	SEGMENT
__TI2?AVbad_alloc@std@@ DD 00H
	DD	FLAT:??1bad_alloc@std@@UAE@XZ
	DD	00H
	DD	FLAT:__CTA2?AVbad_alloc@std@@
; Function compile flags: /Ogsp
; File c:\program files (x86)\microsoft visual studio 10.0\vc\include\xmemory
xdata$x	ENDS
;	COMDAT ??$_Allocate@UBuffInfoStruct@@@std@@YAPAUBuffInfoStruct@@IPAU1@@Z
_TEXT	SEGMENT
$T534735 = -12						; size = 12
$T534740 = 8						; size = 4
__Count$ = 8						; size = 4
___formal$ = 12						; size = 4
??$_Allocate@UBuffInfoStruct@@@std@@YAPAUBuffInfoStruct@@IPAU1@@Z PROC ; std::_Allocate<BuffInfoStruct>, COMDAT

; 30   : 	{	// allocate storage for _Count elements of type _Ty

  00000	55		 push	 ebp
  00001	8b ec		 mov	 ebp, esp

; 31   : 	void *_Ptr = 0;
; 32   : 
; 33   : 	if (_Count <= 0)

  00003	8b 4d 08	 mov	 ecx, DWORD PTR __Count$[ebp]
  00006	83 ec 0c	 sub	 esp, 12			; 0000000cH
  00009	33 c0		 xor	 eax, eax
  0000b	85 c9		 test	 ecx, ecx

; 34   : 		_Count = 0;
; 35   : 	else if (((_SIZT)(-1) / sizeof (_Ty) < _Count)

  0000d	74 3c		 je	 SHORT $LN5@Allocate

; 36   : 		|| (_Ptr = ::operator new(_Count * sizeof (_Ty))) == 0)

  0000f	81 f9 cc cc cc
	0c		 cmp	 ecx, 214748364		; 0cccccccH
  00015	77 0e		 ja	 SHORT $LN1@Allocate
  00017	6b c9 14	 imul	 ecx, 20			; 00000014H
  0001a	51		 push	 ecx
  0001b	e8 00 00 00 00	 call	 ??2@YAPAXI@Z		; operator new
  00020	59		 pop	 ecx
  00021	85 c0		 test	 eax, eax

; 38   : 
; 39   : 	return ((_Ty _FARQ *)_Ptr);

  00023	75 26		 jne	 SHORT $LN5@Allocate
$LN1@Allocate:

; 37   : 		_THROW_NCEE(bad_alloc, 0);

  00025	83 65 08 00	 and	 DWORD PTR $T534740[ebp], 0
  00029	8d 45 08	 lea	 eax, DWORD PTR $T534740[ebp]
  0002c	50		 push	 eax
  0002d	8d 4d f4	 lea	 ecx, DWORD PTR $T534735[ebp]
  00030	ff 15 00 00 00
	00		 call	 DWORD PTR __imp_??0exception@std@@QAE@ABQBD@Z
  00036	68 00 00 00 00	 push	 OFFSET __TI2?AVbad_alloc@std@@
  0003b	8d 45 f4	 lea	 eax, DWORD PTR $T534735[ebp]
  0003e	50		 push	 eax
  0003f	c7 45 f4 00 00
	00 00		 mov	 DWORD PTR $T534735[ebp], OFFSET ??_7bad_alloc@std@@6B@
  00046	e8 00 00 00 00	 call	 __CxxThrowException@8
$LN10@Allocate:
$LN5@Allocate:

; 40   : 	}

  0004b	c9		 leave
  0004c	c3		 ret	 0
$LN9@Allocate:
??$_Allocate@UBuffInfoStruct@@@std@@YAPAUBuffInfoStruct@@IPAU1@@Z ENDP ; std::_Allocate<BuffInfoStruct>
_TEXT	ENDS
EXTRN	__imp_??0exception@std@@QAE@ABV01@@Z:PROC
; Function compile flags: /Ogsp
;	COMDAT ??0bad_alloc@std@@QAE@ABV01@@Z
_TEXT	SEGMENT
___that$ = 8						; size = 4
??0bad_alloc@std@@QAE@ABV01@@Z PROC			; std::bad_alloc::bad_alloc, COMDAT
; _this$ = ecx
  00000	55		 push	 ebp
  00001	8b ec		 mov	 ebp, esp
  00003	56		 push	 esi
  00004	ff 75 08	 push	 DWORD PTR ___that$[ebp]
  00007	8b f1		 mov	 esi, ecx
  00009	ff 15 00 00 00
	00		 call	 DWORD PTR __imp_??0exception@std@@QAE@ABV01@@Z
  0000f	c7 06 00 00 00
	00		 mov	 DWORD PTR [esi], OFFSET ??_7bad_alloc@std@@6B@
  00015	8b c6		 mov	 eax, esi
  00017	5e		 pop	 esi
  00018	5d		 pop	 ebp
  00019	c2 04 00	 ret	 4
??0bad_alloc@std@@QAE@ABV01@@Z ENDP			; std::bad_alloc::bad_alloc
_TEXT	ENDS
PUBLIC	??$_Ptr_cat@UBuffInfoStruct@@U1@@std@@YA?AU_Nonscalar_ptr_iterator_tag@0@PAUBuffInfoStruct@@0@Z ; std::_Ptr_cat<BuffInfoStruct,BuffInfoStruct>
; Function compile flags: /Ogsp
; File c:\program files (x86)\microsoft visual studio 10.0\vc\include\xutility
;	COMDAT ??$_Ptr_cat@UBuffInfoStruct@@U1@@std@@YA?AU_Nonscalar_ptr_iterator_tag@0@PAUBuffInfoStruct@@0@Z
_TEXT	SEGMENT
__Cat$ = -1						; size = 1
___formal$ = 8						; size = 4
___formal$ = 12						; size = 4
??$_Ptr_cat@UBuffInfoStruct@@U1@@std@@YA?AU_Nonscalar_ptr_iterator_tag@0@PAUBuffInfoStruct@@0@Z PROC ; std::_Ptr_cat<BuffInfoStruct,BuffInfoStruct>, COMDAT

; 516  : 	{	// return pointer category from pointers

  00000	55		 push	 ebp
  00001	8b ec		 mov	 ebp, esp
  00003	51		 push	 ecx

; 517  : 	typename _Ptr_cat_helper<_Elem1, _Elem2>::_Type _Cat;
; 518  : 	return (_Cat);

  00004	8a 45 ff	 mov	 al, BYTE PTR __Cat$[ebp]

; 519  : 	}

  00007	c9		 leave
  00008	c3		 ret	 0
??$_Ptr_cat@UBuffInfoStruct@@U1@@std@@YA?AU_Nonscalar_ptr_iterator_tag@0@PAUBuffInfoStruct@@0@Z ENDP ; std::_Ptr_cat<BuffInfoStruct,BuffInfoStruct>
_TEXT	ENDS
PUBLIC	??_GBuffInfoStruct@@QAEPAXI@Z			; BuffInfoStruct::`scalar deleting destructor'
; Function compile flags: /Ogsp
;	COMDAT ??_GBuffInfoStruct@@QAEPAXI@Z
_TEXT	SEGMENT
___flags$ = 8						; size = 4
??_GBuffInfoStruct@@QAEPAXI@Z PROC			; BuffInfoStruct::`scalar deleting destructor', COMDAT
; _this$ = ecx
  00000	55		 push	 ebp
  00001	8b ec		 mov	 ebp, esp
  00003	56		 push	 esi
  00004	8b f1		 mov	 esi, ecx
  00006	ff 15 00 00 00
	00		 call	 DWORD PTR __imp_??1ioHashString@@QAE@XZ
  0000c	f6 45 08 01	 test	 BYTE PTR ___flags$[ebp], 1
  00010	74 07		 je	 SHORT $LN1@scalar@3
  00012	56		 push	 esi
  00013	e8 00 00 00 00	 call	 ??3@YAXPAX@Z		; operator delete
  00018	59		 pop	 ecx
$LN1@scalar@3:
  00019	8b c6		 mov	 eax, esi
  0001b	5e		 pop	 esi
  0001c	5d		 pop	 ebp
  0001d	c2 04 00	 ret	 4
??_GBuffInfoStruct@@QAEPAXI@Z ENDP			; BuffInfoStruct::`scalar deleting destructor'
_TEXT	ENDS
PUBLIC	??$forward@AAUBuffInfoStruct@@@std@@YAAAUBuffInfoStruct@@AAU1@@Z ; std::forward<BuffInfoStruct &>
; Function compile flags: /Ogsp
; File c:\program files (x86)\microsoft visual studio 10.0\vc\include\utility
;	COMDAT ??$forward@AAUBuffInfoStruct@@@std@@YAAAUBuffInfoStruct@@AAU1@@Z
_TEXT	SEGMENT
__Arg$ = 8						; size = 4
??$forward@AAUBuffInfoStruct@@@std@@YAAAUBuffInfoStruct@@AAU1@@Z PROC ; std::forward<BuffInfoStruct &>, COMDAT

; 78   : 	{	// forward _Arg, given explicitly specified type parameter

  00000	55		 push	 ebp
  00001	8b ec		 mov	 ebp, esp

; 79   : 	return ((_Ty&&)_Arg);

  00003	8b 45 08	 mov	 eax, DWORD PTR __Arg$[ebp]

; 80   : 	}

  00006	5d		 pop	 ebp
  00007	c3		 ret	 0
??$forward@AAUBuffInfoStruct@@@std@@YAAAUBuffInfoStruct@@AAU1@@Z ENDP ; std::forward<BuffInfoStruct &>
_TEXT	ENDS
PUBLIC	??0BuffInfoStruct@@QAE@ABU0@@Z			; BuffInfoStruct::BuffInfoStruct
EXTRN	__imp_??0ioHashString@@QAE@ABV0@@Z:PROC
; Function compile flags: /Ogsp
;	COMDAT ??0BuffInfoStruct@@QAE@ABU0@@Z
_TEXT	SEGMENT
___that$ = 8						; size = 4
??0BuffInfoStruct@@QAE@ABU0@@Z PROC			; BuffInfoStruct::BuffInfoStruct, COMDAT
; _this$ = ecx
  00000	55		 push	 ebp
  00001	8b ec		 mov	 ebp, esp
  00003	56		 push	 esi
  00004	57		 push	 edi
  00005	8b 7d 08	 mov	 edi, DWORD PTR ___that$[ebp]
  00008	57		 push	 edi
  00009	8b f1		 mov	 esi, ecx
  0000b	ff 15 00 00 00
	00		 call	 DWORD PTR __imp_??0ioHashString@@QAE@ABV0@@Z
  00011	8b 47 10	 mov	 eax, DWORD PTR [edi+16]
  00014	89 46 10	 mov	 DWORD PTR [esi+16], eax
  00017	5f		 pop	 edi
  00018	8b c6		 mov	 eax, esi
  0001a	5e		 pop	 esi
  0001b	5d		 pop	 ebp
  0001c	c2 04 00	 ret	 4
??0BuffInfoStruct@@QAE@ABU0@@Z ENDP			; BuffInfoStruct::BuffInfoStruct
_TEXT	ENDS
PUBLIC	??_R0?AVioBaseChar@@@8				; ioBaseChar `RTTI Type Descriptor'
PUBLIC	?ToBaseChar@@YAPAVioBaseChar@@PAVioGameEntity@@@Z ; ToBaseChar
;	COMDAT ??_R0?AVioBaseChar@@@8
; File d:\lost saga for developer\youtube\tutorial\source\src\lsclient\iobasechar.h
_DATA	SEGMENT
??_R0?AVioBaseChar@@@8 DD FLAT:??_7type_info@@6B@	; ioBaseChar `RTTI Type Descriptor'
	DD	00H
	DB	'.?AVioBaseChar@@', 00H
; Function compile flags: /Ogsp
_DATA	ENDS
;	COMDAT ?ToBaseChar@@YAPAVioBaseChar@@PAVioGameEntity@@@Z
_TEXT	SEGMENT
_pObj$ = 8						; size = 4
?ToBaseChar@@YAPAVioBaseChar@@PAVioGameEntity@@@Z PROC	; ToBaseChar, COMDAT

; 4326 : {

  00000	55		 push	 ebp
  00001	8b ec		 mov	 ebp, esp
  00003	56		 push	 esi

; 4327 : 	ioPlayEntity *pPlay = ToPlayEntity( pObj );

  00004	ff 75 08	 push	 DWORD PTR _pObj$[ebp]
  00007	e8 00 00 00 00	 call	 ?ToPlayEntity@@YAPAVioPlayEntity@@PAVioGameEntity@@@Z ; ToPlayEntity
  0000c	8b f0		 mov	 esi, eax
  0000e	59		 pop	 ecx

; 4328 : 	if( !pPlay || pPlay->GetSubType() != ioPlayEntity::PST_CHAR )

  0000f	85 f6		 test	 esi, esi
  00011	74 25		 je	 SHORT $LN1@ToBaseChar
  00013	8b 06		 mov	 eax, DWORD PTR [esi]
  00015	8b ce		 mov	 ecx, esi
  00017	ff 90 a4 00 00
	00		 call	 DWORD PTR [eax+164]
  0001d	85 c0		 test	 eax, eax
  0001f	75 17		 jne	 SHORT $LN1@ToBaseChar

; 4330 : 
; 4331 : 	return dynamic_cast< ioBaseChar* >( pPlay );

  00021	50		 push	 eax
  00022	68 00 00 00 00	 push	 OFFSET ??_R0?AVioBaseChar@@@8
  00027	68 00 00 00 00	 push	 OFFSET ??_R0?AVioPlayEntity@@@8
  0002c	50		 push	 eax
  0002d	56		 push	 esi
  0002e	e8 00 00 00 00	 call	 ___RTDynamicCast
  00033	83 c4 14	 add	 esp, 20			; 00000014H
  00036	eb 02		 jmp	 SHORT $LN3@ToBaseChar
$LN1@ToBaseChar:

; 4329 : 		return NULL;

  00038	33 c0		 xor	 eax, eax
$LN3@ToBaseChar:
  0003a	5e		 pop	 esi

; 4332 : }

  0003b	5d		 pop	 ebp
  0003c	c3		 ret	 0
?ToBaseChar@@YAPAVioBaseChar@@PAVioGameEntity@@@Z ENDP	; ToBaseChar
_TEXT	ENDS
PUBLIC	?SetMoveDir@ioLobeliaWeapon@@UAEXABUD3DXVECTOR3@@@Z ; ioLobeliaWeapon::SetMoveDir
; Function compile flags: /Ogsp
; File d:\lost saga for developer\youtube\tutorial\source\src\lsclient\iolobeliaweapon.cpp
;	COMDAT ?SetMoveDir@ioLobeliaWeapon@@UAEXABUD3DXVECTOR3@@@Z
_TEXT	SEGMENT
$T530900 = -24						; size = 12
_v$534781 = -12						; size = 12
tv328 = 8						; size = 4
_vDir$ = 8						; size = 4
?SetMoveDir@ioLobeliaWeapon@@UAEXABUD3DXVECTOR3@@@Z PROC ; ioLobeliaWeapon::SetMoveDir, COMDAT
; _this$ = ecx

; 131  : {

  00000	55		 push	 ebp
  00001	8b ec		 mov	 ebp, esp
  00003	83 ec 18	 sub	 esp, 24			; 00000018H
  00006	56		 push	 esi

; 132  : 	m_vMoveDir = vDir;

  00007	8b 75 08	 mov	 esi, DWORD PTR _vDir$[ebp]
  0000a	57		 push	 edi
  0000b	8d b9 c4 08 00
	00		 lea	 edi, DWORD PTR [ecx+2244]
  00011	a5		 movsd
  00012	a5		 movsd
  00013	a5		 movsd

; 133  : 
; 134  : 	D3DXVec3Cross( &m_vRollAxis,
; 135  : 				   &D3DXVECTOR3( 0.0f, FLOAT1, 0.0f ),
; 136  : 				   &m_vMoveDir );

  00014	b8 01 00 00 00	 mov	 eax, 1
  00019	89 45 08	 mov	 DWORD PTR tv328[ebp], eax
  0001c	db 45 08	 fild	 DWORD PTR tv328[ebp]
  0001f	85 c0		 test	 eax, eax
  00021	79 06		 jns	 SHORT $LN11@SetMoveDir
  00023	d8 05 00 00 00
	00		 fadd	 DWORD PTR __real@4f800000
$LN11@SetMoveDir:
  00029	f3 0f 10 91 cc
	08 00 00	 movss	 xmm2, DWORD PTR [ecx+2252]
  00031	d9 5d ec	 fstp	 DWORD PTR $T530900[ebp+4]
  00034	f3 0f 10 81 c8
	08 00 00	 movss	 xmm0, DWORD PTR [ecx+2248]
  0003c	0f 57 c9	 xorps	 xmm1, xmm1
  0003f	f3 0f 10 65 ec	 movss	 xmm4, DWORD PTR $T530900[ebp+4]
  00044	0f 5a da	 cvtps2pd xmm3, xmm2
  00047	0f 5a e4	 cvtps2pd xmm4, xmm4
  0004a	f2 0f 59 dc	 mulsd	 xmm3, xmm4
  0004e	0f 5a c0	 cvtps2pd xmm0, xmm0
  00051	f2 0f 59 c1	 mulsd	 xmm0, xmm1
  00055	f2 0f 5c d8	 subsd	 xmm3, xmm0
  00059	66 0f 5a db	 cvtpd2ps xmm3, xmm3
  0005d	f3 0f 11 5d f4	 movss	 DWORD PTR _v$534781[ebp], xmm3
  00062	f3 0f 10 99 c4
	08 00 00	 movss	 xmm3, DWORD PTR [ecx+2244]
  0006a	0f 5a d2	 cvtps2pd xmm2, xmm2
  0006d	f2 0f 59 d1	 mulsd	 xmm2, xmm1
  00071	0f 5a e3	 cvtps2pd xmm4, xmm3
  00074	f2 0f 59 e1	 mulsd	 xmm4, xmm1
  00078	f2 0f 5c e2	 subsd	 xmm4, xmm2
  0007c	f3 0f 10 55 ec	 movss	 xmm2, DWORD PTR $T530900[ebp+4]
  00081	66 0f 5a cc	 cvtpd2ps xmm1, xmm4
  00085	f3 0f 11 4d f8	 movss	 DWORD PTR _v$534781[ebp+4], xmm1
  0008a	0f 5a d2	 cvtps2pd xmm2, xmm2
  0008d	8d b9 d0 08 00
	00		 lea	 edi, DWORD PTR [ecx+2256]
  00093	8d 75 f4	 lea	 esi, DWORD PTR _v$534781[ebp]
  00096	0f 5a cb	 cvtps2pd xmm1, xmm3
  00099	f2 0f 59 ca	 mulsd	 xmm1, xmm2
  0009d	f2 0f 5c c1	 subsd	 xmm0, xmm1
  000a1	66 0f 5a c0	 cvtpd2ps xmm0, xmm0
  000a5	f3 0f 11 45 fc	 movss	 DWORD PTR _v$534781[ebp+8], xmm0
  000aa	a5		 movsd
  000ab	a5		 movsd
  000ac	a5		 movsd
  000ad	5f		 pop	 edi
  000ae	5e		 pop	 esi

; 137  : }

  000af	c9		 leave
  000b0	c2 04 00	 ret	 4
?SetMoveDir@ioLobeliaWeapon@@UAEXABUD3DXVECTOR3@@@Z ENDP ; ioLobeliaWeapon::SetMoveDir
_TEXT	ENDS
PUBLIC	?SetFireMesh@ioLobeliaWeapon@@IAE_NABVioHashString@@@Z ; ioLobeliaWeapon::SetFireMesh
EXTRN	__imp_?GetExtents@ioOrientBox@@QBEMH@Z:PROC
EXTRN	__imp_?GetCollisionBox@ioEffect@@QBEABVioOrientBox@@XZ:PROC
EXTRN	?SetPosition@ioWeapon@@QAEXABUD3DXVECTOR3@@@Z:PROC ; ioWeapon::SetPosition
EXTRN	__imp_??D@YA?AUD3DXVECTOR3@@ABU0@0@Z:PROC
EXTRN	__imp_??D@YA?AUD3DXVECTOR3@@ABUD3DXQUATERNION@@ABU0@@Z:PROC
EXTRN	__imp_?GetBiped@ioEntityGroup@@QAEPAVioBiped@@ABVioHashString@@@Z:PROC
EXTRN	__imp_?GetFirstLinkOffset@ioEffect@@QAE_NAAVioHashString@@AAUD3DXVECTOR3@@AAUD3DXQUATERNION@@@Z:PROC
EXTRN	__imp_?GetSkeletonName@ioEffect@@QBE?AVioHashString@@XZ:PROC
EXTRN	__imp_?CreateEffect@ioEffectFactory@@QAEPAVioEffect@@ABVioHashString@@@Z:PROC
EXTRN	__imp_?GetSingleton@ioEffectFactory@@SAAAV1@XZ:PROC
EXTRN	?GetOwner@ioWeapon@@QBEPAVioBaseChar@@XZ:PROC	; ioWeapon::GetOwner
EXTRN	__EH_epilog3_GS:PROC
EXTRN	__EH_prolog3_GS:PROC
;	COMDAT xdata$x
; File c:\program files (x86)\microsoft directx sdk (june 2010)\include\d3dx9math.inl
xdata$x	SEGMENT
__unwindtable$?SetFireMesh@ioLobeliaWeapon@@IAE_NABVioHashString@@@Z DD 0ffffffffH
	DD	FLAT:__unwindfunclet$?SetFireMesh@ioLobeliaWeapon@@IAE_NABVioHashString@@@Z$0
	DD	00H
	DD	FLAT:__unwindfunclet$?SetFireMesh@ioLobeliaWeapon@@IAE_NABVioHashString@@@Z$1
__ehfuncinfo$?SetFireMesh@ioLobeliaWeapon@@IAE_NABVioHashString@@@Z DD 019930522H
	DD	02H
	DD	FLAT:__unwindtable$?SetFireMesh@ioLobeliaWeapon@@IAE_NABVioHashString@@@Z
	DD	2 DUP(00H)
	DD	2 DUP(00H)
	DD	00H
	DD	01H
; Function compile flags: /Ogsp
; File d:\lost saga for developer\youtube\tutorial\source\src\lsclient\iolobeliaweapon.cpp
xdata$x	ENDS
;	COMDAT ?SetFireMesh@ioLobeliaWeapon@@IAE_NABVioHashString@@@Z
_TEXT	SEGMENT
_qtLinkRotOffset$ = -100				; size = 16
_szLinkBiped$ = -84					; size = 16
_pOwner$ = -68						; size = 4
tv646 = -64						; size = 4
tv644 = -64						; size = 4
tv642 = -64						; size = 4
$T534798 = -64						; size = 4
$T534792 = -57						; size = 1
$T534793 = -56						; size = 16
$T530922 = -52						; size = 12
$T530923 = -40						; size = 12
$T530921 = -40						; size = 12
$T530920 = -40						; size = 12
$T530919 = -40						; size = 12
_vLinkPosOffset$ = -28					; size = 12
__$EHRec$ = -12						; size = 12
_szFileName$ = 8					; size = 4
?SetFireMesh@ioLobeliaWeapon@@IAE_NABVioHashString@@@Z PROC ; ioLobeliaWeapon::SetFireMesh, COMDAT
; _this$ = ecx

; 140  : {

  00000	6a 58		 push	 88			; 00000058H
  00002	b8 00 00 00 00	 mov	 eax, __ehhandler$?SetFireMesh@ioLobeliaWeapon@@IAE_NABVioHashString@@@Z
  00007	e8 00 00 00 00	 call	 __EH_prolog3_GS
  0000c	8b 75 08	 mov	 esi, DWORD PTR _szFileName$[ebp]
  0000f	83 65 c0 00	 and	 DWORD PTR $T534798[ebp], 0
  00013	8b d9		 mov	 ebx, ecx

; 141  : 	ioBaseChar *pOwner = GetOwner();

  00015	e8 00 00 00 00	 call	 ?GetOwner@ioWeapon@@QBEPAVioBaseChar@@XZ ; ioWeapon::GetOwner
  0001a	89 45 bc	 mov	 DWORD PTR _pOwner$[ebp], eax

; 142  : 	if( !pOwner )	return false;

  0001d	85 c0		 test	 eax, eax
  0001f	75 07		 jne	 SHORT $LN4@SetFireMes
$LN43@SetFireMes:
  00021	32 c0		 xor	 al, al
  00023	e9 96 02 00 00	 jmp	 $LN5@SetFireMes
$LN4@SetFireMes:

; 143  : 
; 144  : 	m_pFireMesh = g_EffectFactory.CreateEffect( szFileName );

  00028	56		 push	 esi
  00029	ff 15 00 00 00
	00		 call	 DWORD PTR __imp_?GetSingleton@ioEffectFactory@@SAAAV1@XZ
  0002f	8b c8		 mov	 ecx, eax
  00031	ff 15 00 00 00
	00		 call	 DWORD PTR __imp_?CreateEffect@ioEffectFactory@@QAEPAVioEffect@@ABVioHashString@@@Z
  00037	89 83 98 08 00
	00		 mov	 DWORD PTR [ebx+2200], eax

; 145  : 	if( !m_pFireMesh )	return false;

  0003d	85 c0		 test	 eax, eax
  0003f	74 e0		 je	 SHORT $LN43@SetFireMes

; 146  : 
; 147  : 	GetParentSceneNode()->AttachObject( m_pFireMesh );

  00041	8b 4b 04	 mov	 ecx, DWORD PTR [ebx+4]
  00044	8b 11		 mov	 edx, DWORD PTR [ecx]
  00046	83 c0 14	 add	 eax, 20			; 00000014H
  00049	50		 push	 eax
  0004a	ff 92 ac 00 00
	00		 call	 DWORD PTR [edx+172]

; 148  : 	GetParentSceneNode()->SetScale( FLOAT1, FLOAT1, FLOAT1 );

  00050	8b 4b 04	 mov	 ecx, DWORD PTR [ebx+4]
  00053	b8 01 00 00 00	 mov	 eax, 1
  00058	8b d0		 mov	 edx, eax
  0005a	b8 01 00 00 00	 mov	 eax, 1
  0005f	8b f8		 mov	 edi, eax
  00061	b8 01 00 00 00	 mov	 eax, 1
  00066	8b 31		 mov	 esi, DWORD PTR [ecx]
  00068	89 55 c0	 mov	 DWORD PTR tv646[ebp], edx
  0006b	db 45 c0	 fild	 DWORD PTR tv646[ebp]
  0006e	85 d2		 test	 edx, edx
  00070	79 06		 jns	 SHORT $LN40@SetFireMes
  00072	d8 05 00 00 00
	00		 fadd	 DWORD PTR __real@4f800000
$LN40@SetFireMes:
  00078	83 ec 0c	 sub	 esp, 12			; 0000000cH
  0007b	d9 5c 24 08	 fstp	 DWORD PTR [esp+8]
  0007f	89 7d c0	 mov	 DWORD PTR tv644[ebp], edi
  00082	db 45 c0	 fild	 DWORD PTR tv644[ebp]
  00085	85 ff		 test	 edi, edi
  00087	79 06		 jns	 SHORT $LN41@SetFireMes
  00089	d8 05 00 00 00
	00		 fadd	 DWORD PTR __real@4f800000
$LN41@SetFireMes:
  0008f	d9 5c 24 04	 fstp	 DWORD PTR [esp+4]
  00093	89 45 c0	 mov	 DWORD PTR tv642[ebp], eax
  00096	db 45 c0	 fild	 DWORD PTR tv642[ebp]
  00099	85 c0		 test	 eax, eax
  0009b	79 06		 jns	 SHORT $LN42@SetFireMes
  0009d	d8 05 00 00 00
	00		 fadd	 DWORD PTR __real@4f800000
$LN42@SetFireMes:
  000a3	d9 1c 24	 fstp	 DWORD PTR [esp]
  000a6	ff 56 1c	 call	 DWORD PTR [esi+28]

; 149  : 
; 150  : 	ioHashString szLinkBiped;

  000a9	8d 4d ac	 lea	 ecx, DWORD PTR _szLinkBiped$[ebp]
  000ac	ff 15 00 00 00
	00		 call	 DWORD PTR __imp_??0ioHashString@@QAE@XZ

; 151  : 	D3DXVECTOR3 vLinkPosOffset;
; 152  : 	D3DXQUATERNION qtLinkRotOffset;
; 153  : 
; 154  : 	if( m_pFireMesh->GetSkeletonName().IsEmpty() && m_pFireMesh->GetFirstLinkOffset(szLinkBiped, vLinkPosOffset, qtLinkRotOffset ) )

  000b2	8b 8b 98 08 00
	00		 mov	 ecx, DWORD PTR [ebx+2200]
  000b8	83 65 fc 00	 and	 DWORD PTR __$EHRec$[ebp+8], 0
  000bc	8d 45 c8	 lea	 eax, DWORD PTR $T534793[ebp]
  000bf	50		 push	 eax
  000c0	ff 15 00 00 00
	00		 call	 DWORD PTR __imp_?GetSkeletonName@ioEffect@@QBE?AVioHashString@@XZ
  000c6	8b c8		 mov	 ecx, eax
  000c8	c6 45 fc 01	 mov	 BYTE PTR __$EHRec$[ebp+8], 1
  000cc	c7 45 c0 01 00
	00 00		 mov	 DWORD PTR $T534798[ebp], 1
  000d3	ff 15 00 00 00
	00		 call	 DWORD PTR __imp_?IsEmpty@ioHashString@@QBE_NXZ
  000d9	84 c0		 test	 al, al
  000db	74 20		 je	 SHORT $LN9@SetFireMes
  000dd	8b 8b 98 08 00
	00		 mov	 ecx, DWORD PTR [ebx+2200]
  000e3	8d 45 9c	 lea	 eax, DWORD PTR _qtLinkRotOffset$[ebp]
  000e6	50		 push	 eax
  000e7	8d 45 e4	 lea	 eax, DWORD PTR _vLinkPosOffset$[ebp]
  000ea	50		 push	 eax
  000eb	8d 45 ac	 lea	 eax, DWORD PTR _szLinkBiped$[ebp]
  000ee	50		 push	 eax
  000ef	ff 15 00 00 00
	00		 call	 DWORD PTR __imp_?GetFirstLinkOffset@ioEffect@@QAE_NAAVioHashString@@AAUD3DXVECTOR3@@AAUD3DXQUATERNION@@@Z
  000f5	c6 45 c7 01	 mov	 BYTE PTR $T534792[ebp], 1
  000f9	84 c0		 test	 al, al
  000fb	75 04		 jne	 SHORT $LN10@SetFireMes
$LN9@SetFireMes:
  000fd	c6 45 c7 00	 mov	 BYTE PTR $T534792[ebp], 0
$LN10@SetFireMes:
  00101	83 65 fc 00	 and	 DWORD PTR __$EHRec$[ebp+8], 0
  00105	8d 4d c8	 lea	 ecx, DWORD PTR $T534793[ebp]
  00108	ff 15 00 00 00
	00		 call	 DWORD PTR __imp_??1ioHashString@@QAE@XZ
  0010e	80 7d c7 00	 cmp	 BYTE PTR $T534792[ebp], 0
  00112	0f 84 4a 01 00
	00		 je	 $LN1@SetFireMes

; 155  : 	{
; 156  : 		ioBiped *pLinked = pOwner->GetGroup()->GetBiped( szLinkBiped );

  00118	8b 45 bc	 mov	 eax, DWORD PTR _pOwner$[ebp]
  0011b	8b 48 04	 mov	 ecx, DWORD PTR [eax+4]
  0011e	8d 45 ac	 lea	 eax, DWORD PTR _szLinkBiped$[ebp]
  00121	50		 push	 eax
  00122	ff 15 00 00 00
	00		 call	 DWORD PTR __imp_?GetBiped@ioEntityGroup@@QAEPAVioBiped@@ABVioHashString@@@Z
  00128	8b f8		 mov	 edi, eax

; 157  : 		if( pLinked )

  0012a	85 ff		 test	 edi, edi
  0012c	0f 84 30 01 00
	00		 je	 $LN1@SetFireMes

; 158  : 		{
; 159  : 			vLinkPosOffset = pLinked->GetDerivedOrientation() * vLinkPosOffset + pLinked->GetDerivedPosition();

  00132	8b 07		 mov	 eax, DWORD PTR [edi]
  00134	8b cf		 mov	 ecx, edi
  00136	ff 50 7c	 call	 DWORD PTR [eax+124]
  00139	8b f0		 mov	 esi, eax
  0013b	8d 45 e4	 lea	 eax, DWORD PTR _vLinkPosOffset$[ebp]
  0013e	50		 push	 eax
  0013f	8b 07		 mov	 eax, DWORD PTR [edi]
  00141	8b cf		 mov	 ecx, edi
  00143	ff 50 78	 call	 DWORD PTR [eax+120]
  00146	50		 push	 eax
  00147	8d 45 d8	 lea	 eax, DWORD PTR $T530919[ebp]
  0014a	50		 push	 eax
  0014b	ff 15 00 00 00
	00		 call	 DWORD PTR __imp_??D@YA?AUD3DXVECTOR3@@ABUD3DXQUATERNION@@ABU0@@Z
  00151	f3 0f 10 06	 movss	 xmm0, DWORD PTR [esi]
  00155	f3 0f 10 08	 movss	 xmm1, DWORD PTR [eax]
  00159	f3 0f 10 50 04	 movss	 xmm2, DWORD PTR [eax+4]
  0015e	f3 0f 10 58 08	 movss	 xmm3, DWORD PTR [eax+8]

; 160  : 			vLinkPosOffset = vLinkPosOffset * pOwner->GetWorldScale();

  00163	8b 4d bc	 mov	 ecx, DWORD PTR _pOwner$[ebp]
  00166	0f 5a c9	 cvtps2pd xmm1, xmm1
  00169	0f 5a c0	 cvtps2pd xmm0, xmm0
  0016c	f2 0f 58 c1	 addsd	 xmm0, xmm1
  00170	f3 0f 10 4e 04	 movss	 xmm1, DWORD PTR [esi+4]
  00175	0f 5a d2	 cvtps2pd xmm2, xmm2
  00178	0f 5a c9	 cvtps2pd xmm1, xmm1
  0017b	f2 0f 58 ca	 addsd	 xmm1, xmm2
  0017f	f3 0f 10 56 08	 movss	 xmm2, DWORD PTR [esi+8]
  00184	0f 5a d2	 cvtps2pd xmm2, xmm2
  00187	0f 5a db	 cvtps2pd xmm3, xmm3
  0018a	f2 0f 58 d3	 addsd	 xmm2, xmm3
  0018e	66 0f 5a c0	 cvtpd2ps xmm0, xmm0
  00192	f3 0f 11 45 d8	 movss	 DWORD PTR $T530920[ebp], xmm0
  00197	66 0f 5a c9	 cvtpd2ps xmm1, xmm1
  0019b	f3 0f 11 4d dc	 movss	 DWORD PTR $T530920[ebp+4], xmm1
  001a0	66 0f 5a d2	 cvtpd2ps xmm2, xmm2
  001a4	f3 0f 11 55 e0	 movss	 DWORD PTR $T530920[ebp+8], xmm2
  001a9	8d 75 d8	 lea	 esi, DWORD PTR $T530920[ebp]
  001ac	8d 7d e4	 lea	 edi, DWORD PTR _vLinkPosOffset$[ebp]
  001af	a5		 movsd
  001b0	a5		 movsd
  001b1	a5		 movsd
  001b2	8b 01		 mov	 eax, DWORD PTR [ecx]
  001b4	83 c4 0c	 add	 esp, 12			; 0000000cH
  001b7	ff 50 78	 call	 DWORD PTR [eax+120]
  001ba	50		 push	 eax
  001bb	8d 45 e4	 lea	 eax, DWORD PTR _vLinkPosOffset$[ebp]
  001be	50		 push	 eax
  001bf	8d 45 d8	 lea	 eax, DWORD PTR $T530921[ebp]
  001c2	50		 push	 eax
  001c3	ff 15 00 00 00
	00		 call	 DWORD PTR __imp_??D@YA?AUD3DXVECTOR3@@ABU0@0@Z
  001c9	8b f0		 mov	 esi, eax
  001cb	8d 7d e4	 lea	 edi, DWORD PTR _vLinkPosOffset$[ebp]
  001ce	a5		 movsd
  001cf	a5		 movsd
  001d0	a5		 movsd

; 161  : 			vLinkPosOffset = pOwner->GetWorldOrientation() * vLinkPosOffset + pOwner->GetWorldPosition();

  001d1	8b 7d bc	 mov	 edi, DWORD PTR _pOwner$[ebp]
  001d4	8b 07		 mov	 eax, DWORD PTR [edi]
  001d6	83 c4 0c	 add	 esp, 12			; 0000000cH
  001d9	8b cf		 mov	 ecx, edi
  001db	ff 50 70	 call	 DWORD PTR [eax+112]
  001de	8b f0		 mov	 esi, eax
  001e0	8d 45 e4	 lea	 eax, DWORD PTR _vLinkPosOffset$[ebp]
  001e3	50		 push	 eax
  001e4	8b 07		 mov	 eax, DWORD PTR [edi]
  001e6	8b cf		 mov	 ecx, edi
  001e8	ff 50 74	 call	 DWORD PTR [eax+116]
  001eb	50		 push	 eax
  001ec	8d 45 cc	 lea	 eax, DWORD PTR $T530922[ebp]
  001ef	50		 push	 eax
  001f0	ff 15 00 00 00
	00		 call	 DWORD PTR __imp_??D@YA?AUD3DXVECTOR3@@ABUD3DXQUATERNION@@ABU0@@Z
  001f6	f3 0f 10 06	 movss	 xmm0, DWORD PTR [esi]
  001fa	f3 0f 10 08	 movss	 xmm1, DWORD PTR [eax]
  001fe	f3 0f 10 50 04	 movss	 xmm2, DWORD PTR [eax+4]
  00203	0f 5a c9	 cvtps2pd xmm1, xmm1
  00206	0f 5a c0	 cvtps2pd xmm0, xmm0
  00209	f2 0f 58 c1	 addsd	 xmm0, xmm1
  0020d	f3 0f 10 4e 04	 movss	 xmm1, DWORD PTR [esi+4]
  00212	0f 5a c9	 cvtps2pd xmm1, xmm1
  00215	0f 5a d2	 cvtps2pd xmm2, xmm2
  00218	83 c4 0c	 add	 esp, 12			; 0000000cH
  0021b	66 0f 5a c0	 cvtpd2ps xmm0, xmm0
  0021f	f2 0f 58 ca	 addsd	 xmm1, xmm2
  00223	f3 0f 10 56 08	 movss	 xmm2, DWORD PTR [esi+8]
  00228	f3 0f 10 58 08	 movss	 xmm3, DWORD PTR [eax+8]
  0022d	0f 5a d2	 cvtps2pd xmm2, xmm2
  00230	0f 5a db	 cvtps2pd xmm3, xmm3
  00233	f2 0f 58 d3	 addsd	 xmm2, xmm3
  00237	f3 0f 11 45 d8	 movss	 DWORD PTR $T530923[ebp], xmm0
  0023c	66 0f 5a c9	 cvtpd2ps xmm1, xmm1
  00240	f3 0f 11 4d dc	 movss	 DWORD PTR $T530923[ebp+4], xmm1
  00245	66 0f 5a d2	 cvtpd2ps xmm2, xmm2
  00249	f3 0f 11 55 e0	 movss	 DWORD PTR $T530923[ebp+8], xmm2
  0024e	8d 75 d8	 lea	 esi, DWORD PTR $T530923[ebp]
  00251	8d 7d e4	 lea	 edi, DWORD PTR _vLinkPosOffset$[ebp]
  00254	a5		 movsd
  00255	a5		 movsd

; 162  : 			SetPosition( vLinkPosOffset );

  00256	8d 45 e4	 lea	 eax, DWORD PTR _vLinkPosOffset$[ebp]
  00259	50		 push	 eax
  0025a	8b cb		 mov	 ecx, ebx
  0025c	a5		 movsd
  0025d	e8 00 00 00 00	 call	 ?SetPosition@ioWeapon@@QAEXABUD3DXVECTOR3@@@Z ; ioWeapon::SetPosition
$LN1@SetFireMes:

; 163  : 		}
; 164  : 	}
; 165  : 
; 166  : 	m_pFireMesh->UpdateBounds( true );

  00262	8b 8b 98 08 00
	00		 mov	 ecx, DWORD PTR [ebx+2200]
  00268	83 c1 14	 add	 ecx, 20			; 00000014H
  0026b	8b 01		 mov	 eax, DWORD PTR [ecx]
  0026d	6a 01		 push	 1
  0026f	ff 50 44	 call	 DWORD PTR [eax+68]

; 167  : 	m_LocalAttackBox = m_pFireMesh->GetCollisionBox();

  00272	8b 8b 98 08 00
	00		 mov	 ecx, DWORD PTR [ebx+2200]
  00278	ff 15 00 00 00
	00		 call	 DWORD PTR __imp_?GetCollisionBox@ioEffect@@QBEABVioOrientBox@@XZ
  0027e	6a 11		 push	 17			; 00000011H
  00280	59		 pop	 ecx
  00281	8b f0		 mov	 esi, eax
  00283	8d bb dc 08 00
	00		 lea	 edi, DWORD PTR [ebx+2268]
  00289	f3 a5		 rep movsd

; 168  : 
; 169  : 	m_fExtentsOffSet = m_LocalAttackBox.GetExtents( 1 );

  0028b	6a 01		 push	 1
  0028d	8d 8b dc 08 00
	00		 lea	 ecx, DWORD PTR [ebx+2268]
  00293	ff 15 00 00 00
	00		 call	 DWORD PTR __imp_?GetExtents@ioOrientBox@@QBEMH@Z

; 170  : 
; 171  : 	AddEffectEvent( m_pFireMesh );

  00299	ff b3 98 08 00
	00		 push	 DWORD PTR [ebx+2200]
  0029f	8b 03		 mov	 eax, DWORD PTR [ebx]
  002a1	d9 9b 58 09 00
	00		 fstp	 DWORD PTR [ebx+2392]
  002a7	8b cb		 mov	 ecx, ebx
  002a9	ff 90 68 01 00
	00		 call	 DWORD PTR [eax+360]

; 172  : 	return true;

  002af	83 4d fc ff	 or	 DWORD PTR __$EHRec$[ebp+8], -1
  002b3	8d 4d ac	 lea	 ecx, DWORD PTR _szLinkBiped$[ebp]
  002b6	ff 15 00 00 00
	00		 call	 DWORD PTR __imp_??1ioHashString@@QAE@XZ
  002bc	b0 01		 mov	 al, 1
$LN5@SetFireMes:

; 173  : }

  002be	e8 00 00 00 00	 call	 __EH_epilog3_GS
  002c3	c2 04 00	 ret	 4
_TEXT	ENDS
;	COMDAT text$x
text$x	SEGMENT
__unwindfunclet$?SetFireMesh@ioLobeliaWeapon@@IAE_NABVioHashString@@@Z$0:
  00000	8d 4d ac	 lea	 ecx, DWORD PTR _szLinkBiped$[ebp]
  00003	ff 25 00 00 00
	00		 jmp	 DWORD PTR __imp_??1ioHashString@@QAE@XZ
__unwindfunclet$?SetFireMesh@ioLobeliaWeapon@@IAE_NABVioHashString@@@Z$1:
  00009	8b 45 c0	 mov	 eax, DWORD PTR $T534798[ebp]
  0000c	83 e0 01	 and	 eax, 1
  0000f	0f 84 0d 00 00
	00		 je	 $LN13@SetFireMes
  00015	83 65 c0 fe	 and	 DWORD PTR $T534798[ebp], -2 ; fffffffeH
  00019	8d 4d c8	 lea	 ecx, DWORD PTR $T534793[ebp]
  0001c	ff 25 00 00 00
	00		 jmp	 DWORD PTR __imp_??1ioHashString@@QAE@XZ
$LN13@SetFireMes:
  00022	c3		 ret	 0
__ehhandler$?SetFireMesh@ioLobeliaWeapon@@IAE_NABVioHashString@@@Z:
  00023	8b 54 24 08	 mov	 edx, DWORD PTR [esp+8]
  00027	8d 42 0c	 lea	 eax, DWORD PTR [edx+12]
  0002a	8b 4a 98	 mov	 ecx, DWORD PTR [edx-104]
  0002d	33 c8		 xor	 ecx, eax
  0002f	e8 00 00 00 00	 call	 @__security_check_cookie@4
  00034	8b 4a fc	 mov	 ecx, DWORD PTR [edx-4]
  00037	33 c8		 xor	 ecx, eax
  00039	e8 00 00 00 00	 call	 @__security_check_cookie@4
  0003e	b8 00 00 00 00	 mov	 eax, OFFSET __ehfuncinfo$?SetFireMesh@ioLobeliaWeapon@@IAE_NABVioHashString@@@Z
  00043	e9 00 00 00 00	 jmp	 ___CxxFrameHandler3
text$x	ENDS
?SetFireMesh@ioLobeliaWeapon@@IAE_NABVioHashString@@@Z ENDP ; ioLobeliaWeapon::SetFireMesh
PUBLIC	__real@4000000000000000
PUBLIC	__$ArrayPad$
PUBLIC	?SetWallCollision@ioLobeliaWeapon@@QAEXABUD3DXVECTOR3@@@Z ; ioLobeliaWeapon::SetWallCollision
EXTRN	_D3DXVec3Normalize@8:PROC
;	COMDAT __real@4000000000000000
; File c:\program files (x86)\microsoft directx sdk (june 2010)\include\d3dx9math.inl
CONST	SEGMENT
__real@4000000000000000 DQ 04000000000000000r	; 2
; Function compile flags: /Ogsp
; File d:\lost saga for developer\youtube\tutorial\source\src\lsclient\iolobeliaweapon.cpp
CONST	ENDS
;	COMDAT ?SetWallCollision@ioLobeliaWeapon@@QAEXABUD3DXVECTOR3@@@Z
_TEXT	SEGMENT
_vReflect$ = -16					; size = 12
__$ArrayPad$ = -4					; size = 4
_vFaceNrm$ = 8						; size = 4
?SetWallCollision@ioLobeliaWeapon@@QAEXABUD3DXVECTOR3@@@Z PROC ; ioLobeliaWeapon::SetWallCollision, COMDAT
; _this$ = ecx

; 176  : {

  00000	55		 push	 ebp
  00001	8b ec		 mov	 ebp, esp
  00003	83 ec 10	 sub	 esp, 16			; 00000010H
  00006	a1 00 00 00 00	 mov	 eax, DWORD PTR ___security_cookie
  0000b	33 c5		 xor	 eax, ebp
  0000d	89 45 fc	 mov	 DWORD PTR __$ArrayPad$[ebp], eax
  00010	56		 push	 esi
  00011	8b f1		 mov	 esi, ecx

; 177  : 	if( m_State != TS_MOVE && m_State != TS_PINGPONG ) return;

  00013	8b 86 94 08 00
	00		 mov	 eax, DWORD PTR [esi+2196]
  00019	8b 4d 08	 mov	 ecx, DWORD PTR _vFaceNrm$[ebp]
  0001c	83 f8 01	 cmp	 eax, 1
  0001f	74 09		 je	 SHORT $LN1@SetWallCol
  00021	83 f8 02	 cmp	 eax, 2
  00024	0f 85 ec 00 00
	00		 jne	 $LN2@SetWallCol
$LN1@SetWallCol:

; 178  : 
; 179  : 	D3DXVECTOR3 vReflect = m_vMoveDir - 2.0f * D3DXVec3Dot( &m_vMoveDir, &vFaceNrm ) * vFaceNrm;

  0002a	f3 0f 10 21	 movss	 xmm4, DWORD PTR [ecx]
  0002e	f3 0f 10 49 04	 movss	 xmm1, DWORD PTR [ecx+4]
  00033	f3 0f 10 69 08	 movss	 xmm5, DWORD PTR [ecx+8]
  00038	0f 5a c4	 cvtps2pd xmm0, xmm4
  0003b	0f 5a f9	 cvtps2pd xmm7, xmm1
  0003e	8d 86 c4 08 00
	00		 lea	 eax, DWORD PTR [esi+2244]
  00044	f3 0f 10 18	 movss	 xmm3, DWORD PTR [eax]
  00048	f3 0f 10 50 04	 movss	 xmm2, DWORD PTR [eax+4]
  0004d	0f 5a f3	 cvtps2pd xmm6, xmm3
  00050	f2 0f 59 f0	 mulsd	 xmm6, xmm0
  00054	0f 5a c2	 cvtps2pd xmm0, xmm2
  00057	f2 0f 59 c7	 mulsd	 xmm0, xmm7
  0005b	f2 0f 58 f0	 addsd	 xmm6, xmm0
  0005f	f3 0f 10 40 08	 movss	 xmm0, DWORD PTR [eax+8]
  00064	0f 5a c0	 cvtps2pd xmm0, xmm0
  00067	0f 5a fd	 cvtps2pd xmm7, xmm5
  0006a	f2 0f 59 c7	 mulsd	 xmm0, xmm7
  0006e	f2 0f 58 f0	 addsd	 xmm6, xmm0
  00072	0f 57 c0	 xorps	 xmm0, xmm0
  00075	66 0f 5a c6	 cvtpd2ps xmm0, xmm6
  00079	0f 5a c0	 cvtps2pd xmm0, xmm0
  0007c	f2 0f 59 05 00
	00 00 00	 mulsd	 xmm0, QWORD PTR __real@4000000000000000
  00084	66 0f 5a c0	 cvtpd2ps xmm0, xmm0
  00088	0f 57 f6	 xorps	 xmm6, xmm6
  0008b	f3 0f 5a f0	 cvtss2sd xmm6, xmm0
  0008f	0f 5a e4	 cvtps2pd xmm4, xmm4
  00092	f2 0f 59 e6	 mulsd	 xmm4, xmm6
  00096	0f 57 f6	 xorps	 xmm6, xmm6
  00099	f3 0f 5a f0	 cvtss2sd xmm6, xmm0
  0009d	f3 0f 5a c0	 cvtss2sd xmm0, xmm0
  000a1	0f 5a ed	 cvtps2pd xmm5, xmm5
  000a4	f2 0f 59 e8	 mulsd	 xmm5, xmm0
  000a8	66 0f 5a e4	 cvtpd2ps xmm4, xmm4
  000ac	0f 5a c9	 cvtps2pd xmm1, xmm1
  000af	f2 0f 59 ce	 mulsd	 xmm1, xmm6
  000b3	0f 5a c3	 cvtps2pd xmm0, xmm3
  000b6	0f 57 db	 xorps	 xmm3, xmm3
  000b9	f3 0f 5a dc	 cvtss2sd xmm3, xmm4
  000bd	f2 0f 5c c3	 subsd	 xmm0, xmm3
  000c1	66 0f 5a c0	 cvtpd2ps xmm0, xmm0
  000c5	f3 0f 11 45 f0	 movss	 DWORD PTR _vReflect$[ebp], xmm0
  000ca	66 0f 5a c9	 cvtpd2ps xmm1, xmm1
  000ce	f3 0f 5a c9	 cvtss2sd xmm1, xmm1

; 180  : 	D3DXVec3Normalize( &m_vMoveDir, &vReflect );

  000d2	8d 4d f0	 lea	 ecx, DWORD PTR _vReflect$[ebp]
  000d5	66 0f 5a ed	 cvtpd2ps xmm5, xmm5
  000d9	0f 5a c2	 cvtps2pd xmm0, xmm2
  000dc	f2 0f 5c c1	 subsd	 xmm0, xmm1
  000e0	66 0f 5a c0	 cvtpd2ps xmm0, xmm0
  000e4	f3 0f 11 45 f4	 movss	 DWORD PTR _vReflect$[ebp+4], xmm0
  000e9	f3 0f 10 40 08	 movss	 xmm0, DWORD PTR [eax+8]
  000ee	0f 5a c0	 cvtps2pd xmm0, xmm0
  000f1	0f 57 c9	 xorps	 xmm1, xmm1
  000f4	f3 0f 5a cd	 cvtss2sd xmm1, xmm5
  000f8	51		 push	 ecx
  000f9	f2 0f 5c c1	 subsd	 xmm0, xmm1
  000fd	66 0f 5a c0	 cvtpd2ps xmm0, xmm0
  00101	50		 push	 eax
  00102	f3 0f 11 45 f8	 movss	 DWORD PTR _vReflect$[ebp+8], xmm0
  00107	e8 00 00 00 00	 call	 _D3DXVec3Normalize@8

; 181  : 
; 182  : 	m_State = TS_PINGPONG;

  0010c	c7 86 94 08 00
	00 02 00 00 00	 mov	 DWORD PTR [esi+2196], 2
$LN2@SetWallCol:

; 183  : }

  00116	8b 4d fc	 mov	 ecx, DWORD PTR __$ArrayPad$[ebp]
  00119	33 cd		 xor	 ecx, ebp
  0011b	5e		 pop	 esi
  0011c	e8 00 00 00 00	 call	 @__security_check_cookie@4
  00121	c9		 leave
  00122	c2 04 00	 ret	 4
?SetWallCollision@ioLobeliaWeapon@@QAEXABUD3DXVECTOR3@@@Z ENDP ; ioLobeliaWeapon::SetWallCollision
_TEXT	ENDS
PUBLIC	_pShapeWorldMat$GSCopy$
PUBLIC	__$ArrayPad$
PUBLIC	?TestMapCollision@ioLobeliaWeapon@@UAE_NPAVioOpcodeShape@@PAVioPlayStage@@PBUD3DXMATRIX@@@Z ; ioLobeliaWeapon::TestMapCollision
EXTRN	?GetWorldAttackBox@ioWeapon@@QBEABVioOrientBox@@_N@Z:PROC ; ioWeapon::GetWorldAttackBox
; Function compile flags: /Ogsp
;	COMDAT ?TestMapCollision@ioLobeliaWeapon@@UAE_NPAVioOpcodeShape@@PAVioPlayStage@@PBUD3DXMATRIX@@@Z
_TEXT	SEGMENT
_pShapeWorldMat$GSCopy$ = -24				; size = 4
_iFaceIndex$ = -20					; size = 4
_vNormal$ = -16						; size = 12
__$ArrayPad$ = -4					; size = 4
_pShape$ = 8						; size = 4
_pStage$ = 12						; size = 4
_pShapeWorldMat$ = 16					; size = 4
?TestMapCollision@ioLobeliaWeapon@@UAE_NPAVioOpcodeShape@@PAVioPlayStage@@PBUD3DXMATRIX@@@Z PROC ; ioLobeliaWeapon::TestMapCollision, COMDAT
; _this$ = ecx

; 210  : {

  00000	55		 push	 ebp
  00001	8b ec		 mov	 ebp, esp
  00003	83 ec 18	 sub	 esp, 24			; 00000018H
  00006	a1 00 00 00 00	 mov	 eax, DWORD PTR ___security_cookie
  0000b	33 c5		 xor	 eax, ebp
  0000d	89 45 fc	 mov	 DWORD PTR __$ArrayPad$[ebp], eax
  00010	8b 45 10	 mov	 eax, DWORD PTR _pShapeWorldMat$[ebp]
  00013	56		 push	 esi
  00014	8b 75 08	 mov	 esi, DWORD PTR _pShape$[ebp]
  00017	57		 push	 edi
  00018	8b f9		 mov	 edi, ecx

; 216  : 
; 217  : 	int iFaceIndex = 0;

  0001a	89 45 e8	 mov	 DWORD PTR _pShapeWorldMat$GSCopy$[ebp], eax
  0001d	8b 87 94 08 00
	00		 mov	 eax, DWORD PTR [edi+2196]
  00023	83 f8 01	 cmp	 eax, 1
  00026	74 05		 je	 SHORT $LN2@TestMapCol

; 211  : 	//pShape        TRUE
; 212  : 	//     1   N   TestMapCollision()   
; 213  : 
; 214  : 	if( m_State != TS_MOVE && m_State != TS_PINGPONG )

  00028	83 f8 02	 cmp	 eax, 2

; 215  : 		return true;

  0002b	75 39		 jne	 SHORT $LN7@TestMapCol
$LN2@TestMapCol:

; 216  : 
; 217  : 	int iFaceIndex = 0;

  0002d	83 65 ec 00	 and	 DWORD PTR _iFaceIndex$[ebp], 0
  00031	53		 push	 ebx

; 218  : 	if( !pShape->FindIntersection( pShapeWorldMat, GetWorldAttackBox(true), &iFaceIndex ) )

  00032	8b 1e		 mov	 ebx, DWORD PTR [esi]
  00034	8d 45 ec	 lea	 eax, DWORD PTR _iFaceIndex$[ebp]
  00037	50		 push	 eax
  00038	6a 01		 push	 1
  0003a	e8 00 00 00 00	 call	 ?GetWorldAttackBox@ioWeapon@@QBEABVioOrientBox@@_N@Z ; ioWeapon::GetWorldAttackBox
  0003f	50		 push	 eax
  00040	ff 75 e8	 push	 DWORD PTR _pShapeWorldMat$GSCopy$[ebp]
  00043	8b ce		 mov	 ecx, esi
  00045	ff 53 30	 call	 DWORD PTR [ebx+48]
  00048	5b		 pop	 ebx
  00049	84 c0		 test	 al, al
  0004b	74 1b		 je	 SHORT $LN3@TestMapCol
$LN1@TestMapCol:

; 219  : 		return false;
; 220  : 
; 221  : 	D3DXVECTOR3 vNormal;
; 222  : 	pShape->GetTriNormalInModelSpace( iFaceIndex, vNormal );

  0004d	8b 06		 mov	 eax, DWORD PTR [esi]
  0004f	8d 4d f0	 lea	 ecx, DWORD PTR _vNormal$[ebp]
  00052	51		 push	 ecx
  00053	ff 75 ec	 push	 DWORD PTR _iFaceIndex$[ebp]
  00056	8b ce		 mov	 ecx, esi
  00058	ff 50 38	 call	 DWORD PTR [eax+56]

; 223  : 
; 224  : 	SetWallCollision( vNormal );

  0005b	8d 45 f0	 lea	 eax, DWORD PTR _vNormal$[ebp]
  0005e	50		 push	 eax
  0005f	8b cf		 mov	 ecx, edi
  00061	e8 00 00 00 00	 call	 ?SetWallCollision@ioLobeliaWeapon@@QAEXABUD3DXVECTOR3@@@Z ; ioLobeliaWeapon::SetWallCollision
$LN7@TestMapCol:

; 225  : 	return true;

  00066	b0 01		 mov	 al, 1
$LN3@TestMapCol:

; 226  : }

  00068	8b 4d fc	 mov	 ecx, DWORD PTR __$ArrayPad$[ebp]
  0006b	5f		 pop	 edi
  0006c	33 cd		 xor	 ecx, ebp
  0006e	5e		 pop	 esi
  0006f	e8 00 00 00 00	 call	 @__security_check_cookie@4
  00074	c9		 leave
  00075	c2 0c 00	 ret	 12			; 0000000cH
?TestMapCollision@ioLobeliaWeapon@@UAE_NPAVioOpcodeShape@@PAVioPlayStage@@PBUD3DXMATRIX@@@Z ENDP ; ioLobeliaWeapon::TestMapCollision
_TEXT	ENDS
PUBLIC	?OnNoneState@ioLobeliaWeapon@@IAEXMPAVioPlayStage@@@Z ; ioLobeliaWeapon::OnNoneState
; Function compile flags: /Ogsp
;	COMDAT ?OnNoneState@ioLobeliaWeapon@@IAEXMPAVioPlayStage@@@Z
_TEXT	SEGMENT
_fTimePerSec$ = 8					; size = 4
tv175 = 12						; size = 4
tv172 = 12						; size = 4
_pStage$ = 12						; size = 4
?OnNoneState@ioLobeliaWeapon@@IAEXMPAVioPlayStage@@@Z PROC ; ioLobeliaWeapon::OnNoneState, COMDAT
; _this$ = ecx

; 229  : {

  00000	55		 push	 ebp
  00001	8b ec		 mov	 ebp, esp
  00003	56		 push	 esi
  00004	8b f1		 mov	 esi, ecx

; 230  : 	if( m_dwDuration > 0 && m_dwDuration < FRAMEGETTIME() )

  00006	83 be 20 09 00
	00 00		 cmp	 DWORD PTR [esi+2336], 0
  0000d	57		 push	 edi
  0000e	76 22		 jbe	 SHORT $LN2@OnNoneStat
  00010	ff 15 00 00 00
	00		 call	 DWORD PTR __imp_?GetSingleton@ioFrameTimer@@SAAAV1@XZ
  00016	8b c8		 mov	 ecx, eax
  00018	ff 15 00 00 00
	00		 call	 DWORD PTR __imp_?GetLoopSec@ioFrameTimer@@QBEKXZ
  0001e	39 86 20 09 00
	00		 cmp	 DWORD PTR [esi+2336], eax
  00024	73 0c		 jae	 SHORT $LN2@OnNoneStat

; 231  : 	{
; 232  : 		Explosion( pStage );

  00026	ff 75 0c	 push	 DWORD PTR _pStage$[ebp]
  00029	8b ce		 mov	 ecx, esi
  0002b	e8 00 00 00 00	 call	 ?Explosion@ioLobeliaWeapon@@QAEXPAVioPlayStage@@@Z ; ioLobeliaWeapon::Explosion

; 233  : 		return;

  00030	eb 39		 jmp	 SHORT $LN1@OnNoneStat
$LN2@OnNoneStat:

; 234  : 	}
; 235  : 
; 236  : 	if( m_pFireMesh )

  00032	83 be 98 08 00
	00 00		 cmp	 DWORD PTR [esi+2200], 0
  00039	74 30		 je	 SHORT $LN1@OnNoneStat

; 237  : 	{
; 238  : 		m_pFireMesh->Update( fTimePerSec * FLOAT1000 );

  0003b	b8 e8 03 00 00	 mov	 eax, 1000		; 000003e8H
  00040	8b 8e 98 08 00
	00		 mov	 ecx, DWORD PTR [esi+2200]
  00046	83 c1 14	 add	 ecx, 20			; 00000014H
  00049	8b 11		 mov	 edx, DWORD PTR [ecx]
  0004b	89 45 0c	 mov	 DWORD PTR tv175[ebp], eax
  0004e	db 45 0c	 fild	 DWORD PTR tv175[ebp]
  00051	85 c0		 test	 eax, eax
  00053	79 06		 jns	 SHORT $LN7@OnNoneStat
  00055	d8 05 00 00 00
	00		 fadd	 DWORD PTR __real@4f800000
$LN7@OnNoneStat:
  0005b	d8 4d 08	 fmul	 DWORD PTR _fTimePerSec$[ebp]
  0005e	51		 push	 ecx
  0005f	d9 5d 0c	 fstp	 DWORD PTR tv172[ebp]
  00062	d9 45 0c	 fld	 DWORD PTR tv172[ebp]
  00065	d9 1c 24	 fstp	 DWORD PTR [esp]
  00068	ff 52 40	 call	 DWORD PTR [edx+64]
$LN1@OnNoneStat:
  0006b	5f		 pop	 edi
  0006c	5e		 pop	 esi

; 239  : 	}
; 240  : }

  0006d	5d		 pop	 ebp
  0006e	c2 08 00	 ret	 8
?OnNoneState@ioLobeliaWeapon@@IAEXMPAVioPlayStage@@@Z ENDP ; ioLobeliaWeapon::OnNoneState
_TEXT	ENDS
PUBLIC	__real@408c200000000000
PUBLIC	_pStage$GSCopy$
PUBLIC	__$ArrayPad$
PUBLIC	?OnMoveState@ioLobeliaWeapon@@IAEXMPAVioPlayStage@@@Z ; ioLobeliaWeapon::OnMoveState
EXTRN	__imp_?GetExtents@ioAxisAlignBox@@QBEMH@Z:PROC
EXTRN	?GetRoomGravity@ioPlayStage@@QAEMXZ:PROC	; ioPlayStage::GetRoomGravity
;	COMDAT __real@408c200000000000
; File d:\lost saga for developer\youtube\tutorial\source\src\lsclient\stdafx.h
CONST	SEGMENT
__real@408c200000000000 DQ 0408c200000000000r	; 900
; Function compile flags: /Ogsp
; File d:\lost saga for developer\youtube\tutorial\source\src\lsclient\iolobeliaweapon.cpp
CONST	ENDS
;	COMDAT ?OnMoveState@ioLobeliaWeapon@@IAEXMPAVioPlayStage@@@Z
_TEXT	SEGMENT
tv499 = -48						; size = 4
tv496 = -48						; size = 4
_pStage$GSCopy$ = -48					; size = 4
tv569 = -44						; size = 4
tv517 = -44						; size = 4
_fMapHeight$ = -44					; size = 4
_fCurGravity$ = -44					; size = 4
_vMove$ = -40						; size = 12
_vPos$ = -28						; size = 12
_vCurMove$ = -16					; size = 12
__$ArrayPad$ = -4					; size = 4
_fTimePerSec$ = 8					; size = 4
_pStage$ = 12						; size = 4
?OnMoveState@ioLobeliaWeapon@@IAEXMPAVioPlayStage@@@Z PROC ; ioLobeliaWeapon::OnMoveState, COMDAT
; _this$ = ecx

; 243  : {

  00000	55		 push	 ebp
  00001	8b ec		 mov	 ebp, esp
  00003	83 ec 30	 sub	 esp, 48			; 00000030H
  00006	a1 00 00 00 00	 mov	 eax, DWORD PTR ___security_cookie
  0000b	33 c5		 xor	 eax, ebp
  0000d	89 45 fc	 mov	 DWORD PTR __$ArrayPad$[ebp], eax
  00010	53		 push	 ebx
  00011	56		 push	 esi
  00012	57		 push	 edi
  00013	8b 7d 0c	 mov	 edi, DWORD PTR _pStage$[ebp]
  00016	8b d9		 mov	 ebx, ecx

; 244  : 	if( m_dwDuration > 0 && m_dwDuration < FRAMEGETTIME() )

  00018	83 bb 20 09 00
	00 00		 cmp	 DWORD PTR [ebx+2336], 0

; 281  : 	{
; 282  : 		m_pFireMesh->Update( fTimePerSec * FLOAT1000 );

  0001f	89 7d d0	 mov	 DWORD PTR _pStage$GSCopy$[ebp], edi
  00022	76 23		 jbe	 SHORT $LN3@OnMoveStat

; 244  : 	if( m_dwDuration > 0 && m_dwDuration < FRAMEGETTIME() )

  00024	ff 15 00 00 00
	00		 call	 DWORD PTR __imp_?GetSingleton@ioFrameTimer@@SAAAV1@XZ
  0002a	8b c8		 mov	 ecx, eax
  0002c	ff 15 00 00 00
	00		 call	 DWORD PTR __imp_?GetLoopSec@ioFrameTimer@@QBEKXZ
  00032	39 83 20 09 00
	00		 cmp	 DWORD PTR [ebx+2336], eax
  00038	73 0d		 jae	 SHORT $LN3@OnMoveStat

; 245  : 	{
; 246  : 		Explosion( pStage );

  0003a	57		 push	 edi
  0003b	8b cb		 mov	 ecx, ebx
  0003d	e8 00 00 00 00	 call	 ?Explosion@ioLobeliaWeapon@@QAEXPAVioPlayStage@@@Z ; ioLobeliaWeapon::Explosion

; 247  : 		return;

  00042	e9 a7 02 00 00	 jmp	 $LN1@OnMoveStat
$LN3@OnMoveStat:

; 248  : 	}
; 249  : 
; 250  : 	float fRotateAngle = 900.0f * fTimePerSec;
; 251  : 	GetParentSceneNode()->Rotate( m_vRollAxis, fRotateAngle );

  00047	8b 4b 04	 mov	 ecx, DWORD PTR [ebx+4]
  0004a	f3 0f 10 45 08	 movss	 xmm0, DWORD PTR _fTimePerSec$[ebp]
  0004f	8b 01		 mov	 eax, DWORD PTR [ecx]
  00051	6a 01		 push	 1
  00053	0f 5a c0	 cvtps2pd xmm0, xmm0
  00056	f2 0f 59 05 00
	00 00 00	 mulsd	 xmm0, QWORD PTR __real@408c200000000000
  0005e	51		 push	 ecx
  0005f	f2 0f 5a c0	 cvtsd2ss xmm0, xmm0
  00063	8d 93 d0 08 00
	00		 lea	 edx, DWORD PTR [ebx+2256]
  00069	f3 0f 11 04 24	 movss	 DWORD PTR [esp], xmm0
  0006e	52		 push	 edx
  0006f	ff 50 50	 call	 DWORD PTR [eax+80]

; 252  : 
; 253  : 	D3DXVECTOR3 vCurMove( 0.0, -FLOAT1, 0.0f );

  00072	b8 01 00 00 00	 mov	 eax, 1
  00077	0f 57 c0	 xorps	 xmm0, xmm0
  0007a	89 45 d4	 mov	 DWORD PTR tv569[ebp], eax
  0007d	db 45 d4	 fild	 DWORD PTR tv569[ebp]
  00080	f3 0f 11 45 f0	 movss	 DWORD PTR _vCurMove$[ebp], xmm0
  00085	85 c0		 test	 eax, eax
  00087	79 06		 jns	 SHORT $LN24@OnMoveStat
  00089	d8 05 00 00 00
	00		 fadd	 DWORD PTR __real@4f800000
$LN24@OnMoveStat:
  0008f	d9 e0		 fchs

; 254  : 	float fCurGravity = pStage->GetRoomGravity() * fTimePerSec;

  00091	8b cf		 mov	 ecx, edi
  00093	d9 5d f4	 fstp	 DWORD PTR _vCurMove$[ebp+4]
  00096	f3 0f 11 45 f8	 movss	 DWORD PTR _vCurMove$[ebp+8], xmm0
  0009b	e8 00 00 00 00	 call	 ?GetRoomGravity@ioPlayStage@@QAEMXZ ; ioPlayStage::GetRoomGravity
  000a0	d8 4d 08	 fmul	 DWORD PTR _fTimePerSec$[ebp]

; 255  : 
; 256  : 	D3DXVECTOR3 vMove = m_vMoveDir * ( m_fMoveSpeed * fTimePerSec );

  000a3	f3 0f 10 83 4c
	09 00 00	 movss	 xmm0, DWORD PTR [ebx+2380]
  000ab	f3 0f 10 4d 08	 movss	 xmm1, DWORD PTR _fTimePerSec$[ebp]
  000b0	0f 5a c9	 cvtps2pd xmm1, xmm1
  000b3	d9 5d d4	 fstp	 DWORD PTR _fCurGravity$[ebp]

; 257  : 
; 258  : 	vCurMove *= fCurGravity;

  000b6	f3 0f 10 65 d4	 movss	 xmm4, DWORD PTR _fCurGravity$[ebp]
  000bb	f3 0f 10 6d d4	 movss	 xmm5, DWORD PTR _fCurGravity$[ebp]
  000c0	f3 0f 10 75 d4	 movss	 xmm6, DWORD PTR _fCurGravity$[ebp]
  000c5	0f 5a c0	 cvtps2pd xmm0, xmm0
  000c8	f2 0f 59 c1	 mulsd	 xmm0, xmm1
  000cc	f3 0f 10 8b c4
	08 00 00	 movss	 xmm1, DWORD PTR [ebx+2244]
  000d4	0f 5a c9	 cvtps2pd xmm1, xmm1
  000d7	66 0f 5a c0	 cvtpd2ps xmm0, xmm0
  000db	0f 57 d2	 xorps	 xmm2, xmm2
  000de	f3 0f 5a d0	 cvtss2sd xmm2, xmm0
  000e2	f2 0f 59 ca	 mulsd	 xmm1, xmm2
  000e6	f3 0f 10 93 c8
	08 00 00	 movss	 xmm2, DWORD PTR [ebx+2248]
  000ee	0f 57 db	 xorps	 xmm3, xmm3
  000f1	f3 0f 5a d8	 cvtss2sd xmm3, xmm0
  000f5	0f 5a d2	 cvtps2pd xmm2, xmm2
  000f8	f2 0f 59 d3	 mulsd	 xmm2, xmm3
  000fc	f3 0f 10 9b cc
	08 00 00	 movss	 xmm3, DWORD PTR [ebx+2252]
  00104	0f 5a db	 cvtps2pd xmm3, xmm3
  00107	f3 0f 5a c0	 cvtss2sd xmm0, xmm0
  0010b	f2 0f 59 d8	 mulsd	 xmm3, xmm0
  0010f	66 0f 5a c9	 cvtpd2ps xmm1, xmm1
  00113	f3 0f 11 4d d8	 movss	 DWORD PTR _vMove$[ebp], xmm1
  00118	0f 57 c0	 xorps	 xmm0, xmm0
  0011b	66 0f 5a c3	 cvtpd2ps xmm0, xmm3
  0011f	f3 0f 10 5d f0	 movss	 xmm3, DWORD PTR _vCurMove$[ebp]
  00124	0f 5a e4	 cvtps2pd xmm4, xmm4

; 259  : 	vCurMove += vMove;

  00127	f3 0f 5a c9	 cvtss2sd xmm1, xmm1
  0012b	0f 5a db	 cvtps2pd xmm3, xmm3
  0012e	f2 0f 59 dc	 mulsd	 xmm3, xmm4
  00132	f3 0f 10 65 f4	 movss	 xmm4, DWORD PTR _vCurMove$[ebp+4]
  00137	0f 5a ed	 cvtps2pd xmm5, xmm5
  0013a	66 0f 5a db	 cvtpd2ps xmm3, xmm3
  0013e	f3 0f 5a db	 cvtss2sd xmm3, xmm3
  00142	f2 0f 58 cb	 addsd	 xmm1, xmm3
  00146	66 0f 5a c9	 cvtpd2ps xmm1, xmm1
  0014a	f3 0f 11 4d f0	 movss	 DWORD PTR _vCurMove$[ebp], xmm1
  0014f	0f 57 c9	 xorps	 xmm1, xmm1
  00152	0f 5a e4	 cvtps2pd xmm4, xmm4
  00155	f2 0f 59 e5	 mulsd	 xmm4, xmm5
  00159	f3 0f 10 6d f8	 movss	 xmm5, DWORD PTR _vCurMove$[ebp+8]
  0015e	66 0f 5a d2	 cvtpd2ps xmm2, xmm2
  00162	f3 0f 11 55 dc	 movss	 DWORD PTR _vMove$[ebp+4], xmm2
  00167	66 0f 5a e4	 cvtpd2ps xmm4, xmm4
  0016b	f3 0f 5a cc	 cvtss2sd xmm1, xmm4
  0016f	f3 0f 5a d2	 cvtss2sd xmm2, xmm2
  00173	f2 0f 58 ca	 addsd	 xmm1, xmm2
  00177	66 0f 5a c9	 cvtpd2ps xmm1, xmm1
  0017b	0f 5a ed	 cvtps2pd xmm5, xmm5
  0017e	f3 0f 11 45 e0	 movss	 DWORD PTR _vMove$[ebp+8], xmm0
  00183	0f 5a f6	 cvtps2pd xmm6, xmm6
  00186	f3 0f 11 4d f4	 movss	 DWORD PTR _vCurMove$[ebp+4], xmm1

; 260  : 	D3DXVec3Normalize( &vCurMove, &vCurMove );

  0018b	8d 45 f0	 lea	 eax, DWORD PTR _vCurMove$[ebp]
  0018e	f2 0f 59 ee	 mulsd	 xmm5, xmm6
  00192	66 0f 5a ed	 cvtpd2ps xmm5, xmm5
  00196	0f 5a c0	 cvtps2pd xmm0, xmm0
  00199	0f 57 c9	 xorps	 xmm1, xmm1
  0019c	f3 0f 5a cd	 cvtss2sd xmm1, xmm5
  001a0	50		 push	 eax
  001a1	f2 0f 58 c1	 addsd	 xmm0, xmm1
  001a5	66 0f 5a c0	 cvtpd2ps xmm0, xmm0
  001a9	50		 push	 eax
  001aa	f3 0f 11 45 f8	 movss	 DWORD PTR _vCurMove$[ebp+8], xmm0
  001af	e8 00 00 00 00	 call	 _D3DXVec3Normalize@8

; 261  : 
; 262  : 
; 263  : 	vMove.y += m_fFloatingPower * fTimePerSec;

  001b4	f3 0f 10 83 44
	09 00 00	 movss	 xmm0, DWORD PTR [ebx+2372]
  001bc	f3 0f 10 55 08	 movss	 xmm2, DWORD PTR _fTimePerSec$[ebp]
  001c1	0f 5a d2	 cvtps2pd xmm2, xmm2
  001c4	0f 5a c8	 cvtps2pd xmm1, xmm0
  001c7	f2 0f 59 ca	 mulsd	 xmm1, xmm2
  001cb	f3 0f 10 55 dc	 movss	 xmm2, DWORD PTR _vMove$[ebp+4]
  001d0	0f 5a d2	 cvtps2pd xmm2, xmm2
  001d3	f2 0f 58 ca	 addsd	 xmm1, xmm2

; 264  : 	m_fFloatingPower -= fCurGravity;
; 265  : 	GetParentSceneNode()->Translate( vMove );

  001d7	8b 4b 04	 mov	 ecx, DWORD PTR [ebx+4]
  001da	66 0f 5a c9	 cvtpd2ps xmm1, xmm1
  001de	f3 0f 11 4d dc	 movss	 DWORD PTR _vMove$[ebp+4], xmm1
  001e3	f3 0f 10 4d d4	 movss	 xmm1, DWORD PTR _fCurGravity$[ebp]
  001e8	0f 5a c0	 cvtps2pd xmm0, xmm0
  001eb	0f 5a c9	 cvtps2pd xmm1, xmm1
  001ee	f2 0f 5c c1	 subsd	 xmm0, xmm1
  001f2	66 0f 5a c0	 cvtpd2ps xmm0, xmm0
  001f6	6a 01		 push	 1
  001f8	8d 55 d8	 lea	 edx, DWORD PTR _vMove$[ebp]
  001fb	f3 0f 11 83 44
	09 00 00	 movss	 DWORD PTR [ebx+2372], xmm0
  00203	8b 01		 mov	 eax, DWORD PTR [ecx]
  00205	52		 push	 edx
  00206	ff 50 3c	 call	 DWORD PTR [eax+60]

; 266  : 
; 267  : 	D3DXVECTOR3 vPos = GetPosition();

  00209	8b 03		 mov	 eax, DWORD PTR [ebx]
  0020b	8b cb		 mov	 ecx, ebx
  0020d	ff 50 70	 call	 DWORD PTR [eax+112]

; 268  : 
; 269  : 	float fMapHeight = pStage->GetMapHeight( vPos.x, vPos.z, NULL, false, vPos.y+m_pFireMesh->GetBoundBox().GetExtents(1) );

  00210	8b 8b 98 08 00
	00		 mov	 ecx, DWORD PTR [ebx+2200]
  00216	8b f0		 mov	 esi, eax
  00218	8d 7d e4	 lea	 edi, DWORD PTR _vPos$[ebp]
  0021b	a5		 movsd
  0021c	a5		 movsd
  0021d	a5		 movsd
  0021e	33 f6		 xor	 esi, esi
  00220	83 c1 14	 add	 ecx, 20			; 00000014H
  00223	8b 01		 mov	 eax, DWORD PTR [ecx]
  00225	56		 push	 esi
  00226	6a 01		 push	 1
  00228	ff 50 54	 call	 DWORD PTR [eax+84]
  0022b	8b c8		 mov	 ecx, eax
  0022d	ff 15 00 00 00
	00		 call	 DWORD PTR __imp_?GetExtents@ioAxisAlignBox@@QBEMH@Z
  00233	d8 45 e8	 fadd	 DWORD PTR _vPos$[ebp+4]
  00236	f3 0f 10 45 ec	 movss	 xmm0, DWORD PTR _vPos$[ebp+8]
  0023b	51		 push	 ecx
  0023c	d9 5d d4	 fstp	 DWORD PTR tv517[ebp]
  0023f	d9 45 d4	 fld	 DWORD PTR tv517[ebp]
  00242	d9 1c 24	 fstp	 DWORD PTR [esp]
  00245	56		 push	 esi
  00246	56		 push	 esi
  00247	51		 push	 ecx
  00248	51		 push	 ecx
  00249	8b 4d d0	 mov	 ecx, DWORD PTR _pStage$GSCopy$[ebp]
  0024c	f3 0f 11 44 24
	04		 movss	 DWORD PTR [esp+4], xmm0
  00252	f3 0f 10 45 e4	 movss	 xmm0, DWORD PTR _vPos$[ebp]
  00257	f3 0f 11 04 24	 movss	 DWORD PTR [esp], xmm0
  0025c	e8 00 00 00 00	 call	 ?GetMapHeight@ioPlayStage@@QAEMMMPBVioGameEntity@@_NM1@Z ; ioPlayStage::GetMapHeight
  00261	d9 5d d4	 fstp	 DWORD PTR _fMapHeight$[ebp]

; 270  : 	if( vPos.y < fMapHeight+m_fExtentsOffSet )

  00264	f3 0f 10 83 58
	09 00 00	 movss	 xmm0, DWORD PTR [ebx+2392]
  0026c	f3 0f 10 5d d4	 movss	 xmm3, DWORD PTR _fMapHeight$[ebp]
  00271	f3 0f 10 4d e8	 movss	 xmm1, DWORD PTR _vPos$[ebp+4]
  00276	0f 5a d0	 cvtps2pd xmm2, xmm0
  00279	0f 5a db	 cvtps2pd xmm3, xmm3
  0027c	0f 5a c9	 cvtps2pd xmm1, xmm1
  0027f	f2 0f 58 d3	 addsd	 xmm2, xmm3
  00283	66 0f 2f d1	 comisd	 xmm2, xmm1
  00287	76 2d		 jbe	 SHORT $LN2@OnMoveStat

; 271  : 	{
; 272  : 		vPos.y = fMapHeight;
; 273  : 		vPos.y += m_fExtentsOffSet;

  00289	f3 0f 10 4d d4	 movss	 xmm1, DWORD PTR _fMapHeight$[ebp]
  0028e	0f 5a c0	 cvtps2pd xmm0, xmm0
  00291	0f 5a c9	 cvtps2pd xmm1, xmm1

; 274  : 
; 275  : 		SetPosition( vPos );

  00294	8d 45 e4	 lea	 eax, DWORD PTR _vPos$[ebp]
  00297	f2 0f 58 c1	 addsd	 xmm0, xmm1
  0029b	66 0f 5a c0	 cvtpd2ps xmm0, xmm0
  0029f	50		 push	 eax
  002a0	8b cb		 mov	 ecx, ebx
  002a2	f3 0f 11 45 e8	 movss	 DWORD PTR _vPos$[ebp+4], xmm0
  002a7	e8 00 00 00 00	 call	 ?SetPosition@ioWeapon@@QAEXABUD3DXVECTOR3@@@Z ; ioWeapon::SetPosition

; 276  : 		
; 277  : 		SetGroundState( pStage );

  002ac	ff 75 d0	 push	 DWORD PTR _pStage$GSCopy$[ebp]
  002af	8b cb		 mov	 ecx, ebx
  002b1	e8 00 00 00 00	 call	 ?SetGroundState@ioLobeliaWeapon@@QAEXPAVioPlayStage@@@Z ; ioLobeliaWeapon::SetGroundState
$LN2@OnMoveStat:

; 278  : 	}
; 279  : 
; 280  : 	if( m_pFireMesh )

  002b6	39 b3 98 08 00
	00		 cmp	 DWORD PTR [ebx+2200], esi
  002bc	74 30		 je	 SHORT $LN1@OnMoveStat

; 281  : 	{
; 282  : 		m_pFireMesh->Update( fTimePerSec * FLOAT1000 );

  002be	b8 e8 03 00 00	 mov	 eax, 1000		; 000003e8H
  002c3	8b 8b 98 08 00
	00		 mov	 ecx, DWORD PTR [ebx+2200]
  002c9	83 c1 14	 add	 ecx, 20			; 00000014H
  002cc	8b 11		 mov	 edx, DWORD PTR [ecx]
  002ce	89 45 d0	 mov	 DWORD PTR tv499[ebp], eax
  002d1	db 45 d0	 fild	 DWORD PTR tv499[ebp]
  002d4	85 c0		 test	 eax, eax
  002d6	79 06		 jns	 SHORT $LN25@OnMoveStat
  002d8	d8 05 00 00 00
	00		 fadd	 DWORD PTR __real@4f800000
$LN25@OnMoveStat:
  002de	d8 4d 08	 fmul	 DWORD PTR _fTimePerSec$[ebp]
  002e1	51		 push	 ecx
  002e2	d9 5d d0	 fstp	 DWORD PTR tv496[ebp]
  002e5	d9 45 d0	 fld	 DWORD PTR tv496[ebp]
  002e8	d9 1c 24	 fstp	 DWORD PTR [esp]
  002eb	ff 52 40	 call	 DWORD PTR [edx+64]
$LN1@OnMoveStat:

; 283  : 	}
; 284  : }

  002ee	8b 4d fc	 mov	 ecx, DWORD PTR __$ArrayPad$[ebp]
  002f1	5f		 pop	 edi
  002f2	5e		 pop	 esi
  002f3	33 cd		 xor	 ecx, ebp
  002f5	5b		 pop	 ebx
  002f6	e8 00 00 00 00	 call	 @__security_check_cookie@4
  002fb	c9		 leave
  002fc	c2 08 00	 ret	 8
?OnMoveState@ioLobeliaWeapon@@IAEXMPAVioPlayStage@@@Z ENDP ; ioLobeliaWeapon::OnMoveState
_TEXT	ENDS
PUBLIC	__real@3fd3333340000000
PUBLIC	_pStage$GSCopy$
PUBLIC	_fTimePerSec$GSCopy$
PUBLIC	__$ArrayPad$
PUBLIC	?OnPingPongState@ioLobeliaWeapon@@IAEXMPAVioPlayStage@@@Z ; ioLobeliaWeapon::OnPingPongState
EXTRN	?SetOrientation@ioWeapon@@QAEXABUD3DXQUATERNION@@@Z:PROC ; ioWeapon::SetOrientation
;	COMDAT __real@3fd3333340000000
; File d:\lost saga for developer\youtube\tutorial\source\src\lsclient\stdafx.h
CONST	SEGMENT
__real@3fd3333340000000 DQ 03fd3333340000000r	; 0.3
; Function compile flags: /Ogsp
; File d:\lost saga for developer\youtube\tutorial\source\src\lsclient\iolobeliaweapon.cpp
CONST	ENDS
;	COMDAT ?OnPingPongState@ioLobeliaWeapon@@IAEXMPAVioPlayStage@@@Z
_TEXT	SEGMENT
$T534975 = -48						; size = 16
_pStage$GSCopy$ = -32					; size = 4
_fTimePerSec$GSCopy$ = -28				; size = 4
tv422 = -24						; size = 8
tv479 = -20						; size = 4
tv460 = -20						; size = 4
tv439 = -20						; size = 4
tv432 = -20						; size = 4
tv429 = -20						; size = 4
_fMapHeight$ = -20					; size = 4
_vPos$ = -16						; size = 12
__$ArrayPad$ = -4					; size = 4
_fTimePerSec$ = 8					; size = 4
_pStage$ = 12						; size = 4
?OnPingPongState@ioLobeliaWeapon@@IAEXMPAVioPlayStage@@@Z PROC ; ioLobeliaWeapon::OnPingPongState, COMDAT
; _this$ = ecx

; 287  : {

  00000	55		 push	 ebp
  00001	8b ec		 mov	 ebp, esp
  00003	83 ec 30	 sub	 esp, 48			; 00000030H
  00006	a1 00 00 00 00	 mov	 eax, DWORD PTR ___security_cookie
  0000b	33 c5		 xor	 eax, ebp
  0000d	89 45 fc	 mov	 DWORD PTR __$ArrayPad$[ebp], eax

; 303  : 	if( vPos.y < fMapHeight+m_fExtentsOffSet )

  00010	f3 0f 10 45 08	 movss	 xmm0, DWORD PTR _fTimePerSec$[ebp]
  00015	53		 push	 ebx
  00016	56		 push	 esi
  00017	57		 push	 edi
  00018	8b 7d 0c	 mov	 edi, DWORD PTR _pStage$[ebp]
  0001b	8b d9		 mov	 ebx, ecx
  0001d	83 bb 20 09 00
	00 00		 cmp	 DWORD PTR [ebx+2336], 0
  00024	f3 0f 11 45 e4	 movss	 DWORD PTR _fTimePerSec$GSCopy$[ebp], xmm0

; 320  : 	{
; 321  : 		m_pFireMesh->Update( fTimePerSec * FLOAT1000 );

  00029	89 7d e0	 mov	 DWORD PTR _pStage$GSCopy$[ebp], edi
  0002c	76 23		 jbe	 SHORT $LN21@OnPingPong

; 288  : 	if( m_dwDuration > 0 && m_dwDuration < FRAMEGETTIME() )

  0002e	ff 15 00 00 00
	00		 call	 DWORD PTR __imp_?GetSingleton@ioFrameTimer@@SAAAV1@XZ
  00034	8b c8		 mov	 ecx, eax
  00036	ff 15 00 00 00
	00		 call	 DWORD PTR __imp_?GetLoopSec@ioFrameTimer@@QBEKXZ
  0003c	39 83 20 09 00
	00		 cmp	 DWORD PTR [ebx+2336], eax
  00042	73 0d		 jae	 SHORT $LN21@OnPingPong

; 289  : 	{
; 290  : 		Explosion( pStage );

  00044	57		 push	 edi
  00045	8b cb		 mov	 ecx, ebx
  00047	e8 00 00 00 00	 call	 ?Explosion@ioLobeliaWeapon@@QAEXPAVioPlayStage@@@Z ; ioLobeliaWeapon::Explosion

; 291  : 		return;

  0004c	e9 50 02 00 00	 jmp	 $LN1@OnPingPong
$LN21@OnPingPong:

; 292  : 	}
; 293  : 	
; 294  : 	float fRotateAngle = 900.0f * fTimePerSec;
; 295  : 	GetParentSceneNode()->PitchX( fRotateAngle, ioNode::TS_LOCAL );

  00051	8b 4b 04	 mov	 ecx, DWORD PTR [ebx+4]
  00054	f3 0f 10 45 e4	 movss	 xmm0, DWORD PTR _fTimePerSec$GSCopy$[ebp]
  00059	8b 01		 mov	 eax, DWORD PTR [ecx]
  0005b	6a 00		 push	 0
  0005d	0f 5a c0	 cvtps2pd xmm0, xmm0
  00060	f2 0f 59 05 00
	00 00 00	 mulsd	 xmm0, QWORD PTR __real@408c200000000000
  00068	51		 push	 ecx
  00069	f2 0f 5a c0	 cvtsd2ss xmm0, xmm0
  0006d	f3 0f 11 04 24	 movss	 DWORD PTR [esp], xmm0
  00072	ff 50 44	 call	 DWORD PTR [eax+68]

; 296  : 
; 297  : 	D3DXVECTOR3 vPos = GetPosition();

  00075	8b 03		 mov	 eax, DWORD PTR [ebx]
  00077	8b cb		 mov	 ecx, ebx
  00079	ff 50 70	 call	 DWORD PTR [eax+112]

; 298  : 	vPos += m_vMoveDir * ( m_fMoveSpeed * fTimePerSec * 0.3f );

  0007c	f3 0f 10 83 4c
	09 00 00	 movss	 xmm0, DWORD PTR [ebx+2380]
  00084	f3 0f 10 4d e4	 movss	 xmm1, DWORD PTR _fTimePerSec$GSCopy$[ebp]
  00089	0f 5a c0	 cvtps2pd xmm0, xmm0
  0008c	0f 5a c9	 cvtps2pd xmm1, xmm1
  0008f	f2 0f 59 c1	 mulsd	 xmm0, xmm1
  00093	f2 0f 59 05 00
	00 00 00	 mulsd	 xmm0, QWORD PTR __real@3fd3333340000000
  0009b	f3 0f 10 8b c4
	08 00 00	 movss	 xmm1, DWORD PTR [ebx+2244]
  000a3	66 0f 5a c0	 cvtpd2ps xmm0, xmm0
  000a7	0f 57 d2	 xorps	 xmm2, xmm2
  000aa	f3 0f 5a d0	 cvtss2sd xmm2, xmm0
  000ae	0f 5a c9	 cvtps2pd xmm1, xmm1
  000b1	f2 0f 59 ca	 mulsd	 xmm1, xmm2
  000b5	f3 0f 10 93 c8
	08 00 00	 movss	 xmm2, DWORD PTR [ebx+2248]
  000bd	0f 5a d2	 cvtps2pd xmm2, xmm2
  000c0	8b f0		 mov	 esi, eax
  000c2	0f 57 db	 xorps	 xmm3, xmm3
  000c5	f3 0f 5a d8	 cvtss2sd xmm3, xmm0
  000c9	f2 0f 59 d3	 mulsd	 xmm2, xmm3
  000cd	f3 0f 10 9b cc
	08 00 00	 movss	 xmm3, DWORD PTR [ebx+2252]
  000d5	f3 0f 5a c0	 cvtss2sd xmm0, xmm0
  000d9	8d 7d f0	 lea	 edi, DWORD PTR _vPos$[ebp]
  000dc	a5		 movsd
  000dd	a5		 movsd

; 299  : 	vPos.y += m_fPingPongPower * fTimePerSec;
; 300  : 	m_fPingPongPower -= pStage->GetRoomGravity() * fTimePerSec;

  000de	8b 4d e0	 mov	 ecx, DWORD PTR _pStage$GSCopy$[ebp]
  000e1	66 0f 5a c9	 cvtpd2ps xmm1, xmm1
  000e5	a5		 movsd
  000e6	0f 5a db	 cvtps2pd xmm3, xmm3
  000e9	f2 0f 59 d8	 mulsd	 xmm3, xmm0
  000ed	0f 57 c0	 xorps	 xmm0, xmm0
  000f0	66 0f 5a c3	 cvtpd2ps xmm0, xmm3
  000f4	f3 0f 10 5d f0	 movss	 xmm3, DWORD PTR _vPos$[ebp]
  000f9	f3 0f 5a c9	 cvtss2sd xmm1, xmm1
  000fd	66 0f 5a d2	 cvtpd2ps xmm2, xmm2
  00101	0f 5a db	 cvtps2pd xmm3, xmm3
  00104	f2 0f 58 cb	 addsd	 xmm1, xmm3
  00108	66 0f 5a c9	 cvtpd2ps xmm1, xmm1
  0010c	f3 0f 11 4d f0	 movss	 DWORD PTR _vPos$[ebp], xmm1
  00111	0f 57 c9	 xorps	 xmm1, xmm1
  00114	f3 0f 5a ca	 cvtss2sd xmm1, xmm2
  00118	f3 0f 10 55 f4	 movss	 xmm2, DWORD PTR _vPos$[ebp+4]
  0011d	0f 5a d2	 cvtps2pd xmm2, xmm2
  00120	f2 0f 58 ca	 addsd	 xmm1, xmm2
  00124	f3 0f 10 55 f8	 movss	 xmm2, DWORD PTR _vPos$[ebp+8]
  00129	0f 5a c0	 cvtps2pd xmm0, xmm0
  0012c	0f 5a d2	 cvtps2pd xmm2, xmm2
  0012f	f2 0f 58 c2	 addsd	 xmm0, xmm2
  00133	f3 0f 10 55 e4	 movss	 xmm2, DWORD PTR _fTimePerSec$GSCopy$[ebp]
  00138	66 0f 5a c0	 cvtpd2ps xmm0, xmm0
  0013c	f3 0f 11 45 f8	 movss	 DWORD PTR _vPos$[ebp+8], xmm0
  00141	f3 0f 10 83 54
	09 00 00	 movss	 xmm0, DWORD PTR [ebx+2388]
  00149	f3 0f 11 45 ec	 movss	 DWORD PTR tv479[ebp], xmm0
  0014e	d9 45 ec	 fld	 DWORD PTR tv479[ebp]
  00151	0f 5a c0	 cvtps2pd xmm0, xmm0
  00154	66 0f 5a c9	 cvtpd2ps xmm1, xmm1
  00158	dd 5d e8	 fstp	 QWORD PTR tv422[ebp]
  0015b	0f 5a d2	 cvtps2pd xmm2, xmm2
  0015e	f2 0f 59 c2	 mulsd	 xmm0, xmm2
  00162	f3 0f 5a c9	 cvtss2sd xmm1, xmm1
  00166	f2 0f 58 c1	 addsd	 xmm0, xmm1
  0016a	66 0f 5a c0	 cvtpd2ps xmm0, xmm0
  0016e	f3 0f 11 45 f4	 movss	 DWORD PTR _vPos$[ebp+4], xmm0
  00173	e8 00 00 00 00	 call	 ?GetRoomGravity@ioPlayStage@@QAEMXZ ; ioPlayStage::GetRoomGravity
  00178	d8 4d e4	 fmul	 DWORD PTR _fTimePerSec$GSCopy$[ebp]

; 301  : 
; 302  : 	float fMapHeight = pStage->GetMapHeight( vPos.x, vPos.z, NULL, false, vPos.y+m_pFireMesh->GetBoundBox().GetExtents(1) );

  0017b	8b 8b 98 08 00
	00		 mov	 ecx, DWORD PTR [ebx+2200]
  00181	83 c1 14	 add	 ecx, 20			; 00000014H
  00184	dc 6d e8	 fsubr	 QWORD PTR tv422[ebp]
  00187	33 f6		 xor	 esi, esi
  00189	d9 9b 54 09 00
	00		 fstp	 DWORD PTR [ebx+2388]
  0018f	8b 01		 mov	 eax, DWORD PTR [ecx]
  00191	56		 push	 esi
  00192	6a 01		 push	 1
  00194	ff 50 54	 call	 DWORD PTR [eax+84]
  00197	8b c8		 mov	 ecx, eax
  00199	ff 15 00 00 00
	00		 call	 DWORD PTR __imp_?GetExtents@ioAxisAlignBox@@QBEMH@Z
  0019f	d8 45 f4	 fadd	 DWORD PTR _vPos$[ebp+4]
  001a2	f3 0f 10 45 f8	 movss	 xmm0, DWORD PTR _vPos$[ebp+8]
  001a7	51		 push	 ecx
  001a8	d9 5d ec	 fstp	 DWORD PTR tv460[ebp]
  001ab	d9 45 ec	 fld	 DWORD PTR tv460[ebp]
  001ae	d9 1c 24	 fstp	 DWORD PTR [esp]
  001b1	56		 push	 esi
  001b2	56		 push	 esi
  001b3	51		 push	 ecx
  001b4	51		 push	 ecx
  001b5	8b 4d e0	 mov	 ecx, DWORD PTR _pStage$GSCopy$[ebp]
  001b8	f3 0f 11 44 24
	04		 movss	 DWORD PTR [esp+4], xmm0
  001be	f3 0f 10 45 f0	 movss	 xmm0, DWORD PTR _vPos$[ebp]
  001c3	f3 0f 11 04 24	 movss	 DWORD PTR [esp], xmm0
  001c8	e8 00 00 00 00	 call	 ?GetMapHeight@ioPlayStage@@QAEMMMPBVioGameEntity@@_NM1@Z ; ioPlayStage::GetMapHeight
  001cd	d9 5d ec	 fstp	 DWORD PTR _fMapHeight$[ebp]

; 303  : 	if( vPos.y < fMapHeight+m_fExtentsOffSet )

  001d0	f3 0f 10 83 58
	09 00 00	 movss	 xmm0, DWORD PTR [ebx+2392]
  001d8	f3 0f 10 5d ec	 movss	 xmm3, DWORD PTR _fMapHeight$[ebp]
  001dd	f3 0f 10 4d f4	 movss	 xmm1, DWORD PTR _vPos$[ebp+4]
  001e2	0f 5a d0	 cvtps2pd xmm2, xmm0
  001e5	0f 5a db	 cvtps2pd xmm3, xmm3
  001e8	0f 5a c9	 cvtps2pd xmm1, xmm1
  001eb	f2 0f 58 d3	 addsd	 xmm2, xmm3
  001ef	66 0f 2f d1	 comisd	 xmm2, xmm1

; 307  : 
; 308  : 		SetPosition( vPos );

  001f3	8d 45 f0	 lea	 eax, DWORD PTR _vPos$[ebp]
  001f6	8b cb		 mov	 ecx, ebx
  001f8	50		 push	 eax
  001f9	76 69		 jbe	 SHORT $LN3@OnPingPong

; 304  : 	{
; 305  : 		vPos.y = fMapHeight;
; 306  : 		vPos.y += m_fExtentsOffSet;

  001fb	f3 0f 10 4d ec	 movss	 xmm1, DWORD PTR _fMapHeight$[ebp]
  00200	0f 5a c0	 cvtps2pd xmm0, xmm0
  00203	0f 5a c9	 cvtps2pd xmm1, xmm1
  00206	f2 0f 58 c1	 addsd	 xmm0, xmm1
  0020a	66 0f 5a c0	 cvtpd2ps xmm0, xmm0
  0020e	f3 0f 11 45 f4	 movss	 DWORD PTR _vPos$[ebp+4], xmm0

; 307  : 
; 308  : 		SetPosition( vPos );

  00213	e8 00 00 00 00	 call	 ?SetPosition@ioWeapon@@QAEXABUD3DXVECTOR3@@@Z ; ioWeapon::SetPosition

; 309  : 		SetOrientation( D3DXQUATERNION( 0.0f, 0.0f, 0.0f, FLOAT1 ) );

  00218	b8 01 00 00 00	 mov	 eax, 1
  0021d	0f 57 c0	 xorps	 xmm0, xmm0
  00220	89 45 ec	 mov	 DWORD PTR tv439[ebp], eax
  00223	db 45 ec	 fild	 DWORD PTR tv439[ebp]
  00226	f3 0f 11 45 d0	 movss	 DWORD PTR $T534975[ebp], xmm0
  0022b	f3 0f 11 45 d4	 movss	 DWORD PTR $T534975[ebp+4], xmm0
  00230	f3 0f 11 45 d8	 movss	 DWORD PTR $T534975[ebp+8], xmm0
  00235	85 c0		 test	 eax, eax
  00237	79 06		 jns	 SHORT $LN22@OnPingPong
  00239	d8 05 00 00 00
	00		 fadd	 DWORD PTR __real@4f800000
$LN22@OnPingPong:
  0023f	8d 45 d0	 lea	 eax, DWORD PTR $T534975[ebp]
  00242	d9 5d dc	 fstp	 DWORD PTR $T534975[ebp+12]
  00245	50		 push	 eax
  00246	8b cb		 mov	 ecx, ebx
  00248	e8 00 00 00 00	 call	 ?SetOrientation@ioWeapon@@QAEXABUD3DXQUATERNION@@@Z ; ioWeapon::SetOrientation

; 310  : 		m_fFloatingPower = 0.0f;

  0024d	0f 57 c0	 xorps	 xmm0, xmm0

; 311  : 
; 312  : 		SetGroundState( pStage );

  00250	ff 75 e0	 push	 DWORD PTR _pStage$GSCopy$[ebp]
  00253	8b cb		 mov	 ecx, ebx
  00255	f3 0f 11 83 44
	09 00 00	 movss	 DWORD PTR [ebx+2372], xmm0
  0025d	e8 00 00 00 00	 call	 ?SetGroundState@ioLobeliaWeapon@@QAEXPAVioPlayStage@@@Z ; ioLobeliaWeapon::SetGroundState

; 313  : 	}
; 314  : 	else

  00262	eb 05		 jmp	 SHORT $LN2@OnPingPong
$LN3@OnPingPong:

; 315  : 	{
; 316  : 		SetPosition( vPos );

  00264	e8 00 00 00 00	 call	 ?SetPosition@ioWeapon@@QAEXABUD3DXVECTOR3@@@Z ; ioWeapon::SetPosition
$LN2@OnPingPong:

; 317  : 	}
; 318  : 
; 319  : 	if( m_pFireMesh )

  00269	39 b3 98 08 00
	00		 cmp	 DWORD PTR [ebx+2200], esi
  0026f	74 30		 je	 SHORT $LN1@OnPingPong

; 320  : 	{
; 321  : 		m_pFireMesh->Update( fTimePerSec * FLOAT1000 );

  00271	b8 e8 03 00 00	 mov	 eax, 1000		; 000003e8H
  00276	8b 8b 98 08 00
	00		 mov	 ecx, DWORD PTR [ebx+2200]
  0027c	83 c1 14	 add	 ecx, 20			; 00000014H
  0027f	8b 11		 mov	 edx, DWORD PTR [ecx]
  00281	89 45 ec	 mov	 DWORD PTR tv432[ebp], eax
  00284	db 45 ec	 fild	 DWORD PTR tv432[ebp]
  00287	85 c0		 test	 eax, eax
  00289	79 06		 jns	 SHORT $LN23@OnPingPong
  0028b	d8 05 00 00 00
	00		 fadd	 DWORD PTR __real@4f800000
$LN23@OnPingPong:
  00291	d8 4d e4	 fmul	 DWORD PTR _fTimePerSec$GSCopy$[ebp]
  00294	51		 push	 ecx
  00295	d9 5d ec	 fstp	 DWORD PTR tv429[ebp]
  00298	d9 45 ec	 fld	 DWORD PTR tv429[ebp]
  0029b	d9 1c 24	 fstp	 DWORD PTR [esp]
  0029e	ff 52 40	 call	 DWORD PTR [edx+64]
$LN1@OnPingPong:

; 322  : 	}
; 323  : }

  002a1	8b 4d fc	 mov	 ecx, DWORD PTR __$ArrayPad$[ebp]
  002a4	5f		 pop	 edi
  002a5	5e		 pop	 esi
  002a6	33 cd		 xor	 ecx, ebp
  002a8	5b		 pop	 ebx
  002a9	e8 00 00 00 00	 call	 @__security_check_cookie@4
  002ae	c9		 leave
  002af	c2 08 00	 ret	 8
?OnPingPongState@ioLobeliaWeapon@@IAEXMPAVioPlayStage@@@Z ENDP ; ioLobeliaWeapon::OnPingPongState
_TEXT	ENDS
PUBLIC	?DestroyResource@ioLobeliaWeapon@@UAEXPAVioPlayStage@@@Z ; ioLobeliaWeapon::DestroyResource
EXTRN	__imp_?DestroyEffect@ioEffectFactory@@QAEXPAVioEffect@@@Z:PROC
; Function compile flags: /Ogsp
;	COMDAT ?DestroyResource@ioLobeliaWeapon@@UAEXPAVioPlayStage@@@Z
_TEXT	SEGMENT
_pStage$ = 8						; size = 4
?DestroyResource@ioLobeliaWeapon@@UAEXPAVioPlayStage@@@Z PROC ; ioLobeliaWeapon::DestroyResource, COMDAT
; _this$ = ecx

; 369  : {

  00000	55		 push	 ebp
  00001	8b ec		 mov	 ebp, esp
  00003	56		 push	 esi
  00004	8b f1		 mov	 esi, ecx

; 370  : 	if( m_pFireMesh )

  00006	8b 86 98 08 00
	00		 mov	 eax, DWORD PTR [esi+2200]
  0000c	57		 push	 edi
  0000d	85 c0		 test	 eax, eax
  0000f	74 16		 je	 SHORT $LN6@DestroyRes

; 371  : 	{
; 372  : 		g_EffectFactory.DestroyEffect( m_pFireMesh );

  00011	50		 push	 eax
  00012	ff 15 00 00 00
	00		 call	 DWORD PTR __imp_?GetSingleton@ioEffectFactory@@SAAAV1@XZ
  00018	8b c8		 mov	 ecx, eax
  0001a	ff 15 00 00 00
	00		 call	 DWORD PTR __imp_?DestroyEffect@ioEffectFactory@@QAEXPAVioEffect@@@Z

; 373  : 		m_pFireMesh = NULL;

  00020	83 a6 98 08 00
	00 00		 and	 DWORD PTR [esi+2200], 0
$LN6@DestroyRes:

; 374  : 	}
; 375  : 
; 376  : 	if( !IsLive() )

  00027	80 be 82 05 00
	00 00		 cmp	 BYTE PTR [esi+1410], 0
  0002e	75 4b		 jne	 SHORT $LN1@DestroyRes

; 377  : 	{
; 378  : 		if( m_EffectID != -1 )

  00030	8b 86 c0 08 00
	00		 mov	 eax, DWORD PTR [esi+2240]
  00036	83 cf ff	 or	 edi, -1
  00039	3b c7		 cmp	 eax, edi
  0003b	74 1a		 je	 SHORT $LN3@DestroyRes

; 379  : 		{
; 380  : 			ioMapEffect *pEffect = pStage->FindMapEffect( m_EffectID );

  0003d	8b 4d 08	 mov	 ecx, DWORD PTR _pStage$[ebp]
  00040	50		 push	 eax
  00041	e8 00 00 00 00	 call	 ?FindMapEffect@ioPlayStage@@QAEPAVioMapEffect@@K@Z ; ioPlayStage::FindMapEffect

; 381  : 			if( pEffect )

  00046	85 c0		 test	 eax, eax
  00048	74 0d		 je	 SHORT $LN3@DestroyRes

; 382  : 			{
; 383  : 				pEffect->EndEffectForce();

  0004a	8b c8		 mov	 ecx, eax
  0004c	e8 00 00 00 00	 call	 ?EndEffectForce@ioMapEffect@@QAEXXZ ; ioMapEffect::EndEffectForce

; 384  : 				m_EffectID = -1;

  00051	89 be c0 08 00
	00		 mov	 DWORD PTR [esi+2240], edi
$LN3@DestroyRes:

; 385  : 			}
; 386  : 		}
; 387  : 
; 388  : 		if( m_GroundID != -1 )

  00057	8b 86 bc 08 00
	00		 mov	 eax, DWORD PTR [esi+2236]
  0005d	3b c7		 cmp	 eax, edi
  0005f	74 1a		 je	 SHORT $LN1@DestroyRes

; 389  : 		{
; 390  : 			ioMapEffect *pEffect = pStage->FindMapEffect( m_GroundID );

  00061	8b 4d 08	 mov	 ecx, DWORD PTR _pStage$[ebp]
  00064	50		 push	 eax
  00065	e8 00 00 00 00	 call	 ?FindMapEffect@ioPlayStage@@QAEPAVioMapEffect@@K@Z ; ioPlayStage::FindMapEffect

; 391  : 			if( pEffect )

  0006a	85 c0		 test	 eax, eax
  0006c	74 0d		 je	 SHORT $LN1@DestroyRes

; 392  : 			{
; 393  : 				pEffect->EndEffectForce();

  0006e	8b c8		 mov	 ecx, eax
  00070	e8 00 00 00 00	 call	 ?EndEffectForce@ioMapEffect@@QAEXXZ ; ioMapEffect::EndEffectForce

; 394  : 				m_GroundID = -1;

  00075	89 be bc 08 00
	00		 mov	 DWORD PTR [esi+2236], edi
$LN1@DestroyRes:
  0007b	5f		 pop	 edi
  0007c	5e		 pop	 esi

; 395  : 			}
; 396  : 		}
; 397  : 	}
; 398  : }

  0007d	5d		 pop	 ebp
  0007e	c2 04 00	 ret	 4
?DestroyResource@ioLobeliaWeapon@@UAEXPAVioPlayStage@@@Z ENDP ; ioLobeliaWeapon::DestroyResource
_TEXT	ENDS
PUBLIC	?UpdateWorldAttackBox@ioLobeliaWeapon@@MAEXM_N@Z ; ioLobeliaWeapon::UpdateWorldAttackBox
EXTRN	__imp_?SetNull@ioOrientBox@@QAEXXZ:PROC
EXTRN	__imp_?Transform@ioOrientBox@@QAEXABUD3DXVECTOR3@@0ABUD3DXQUATERNION@@@Z:PROC
EXTRN	__imp_?UNIT_ALL@ioMath@@2UD3DXVECTOR3@@A:BYTE
EXTRN	__imp_?IsNull@ioOrientBox@@QBE_NXZ:PROC
; Function compile flags: /Ogsp
;	COMDAT ?UpdateWorldAttackBox@ioLobeliaWeapon@@MAEXM_N@Z
_TEXT	SEGMENT
tv360 = -8						; size = 4
tv366 = -4						; size = 4
tv335 = -4						; size = 4
_fTimePerSec$ = 8					; size = 4
tv352 = 12						; size = 4
_fMapCollisionRate$ = 12				; size = 4
_bSetNull$ = 12						; size = 1
?UpdateWorldAttackBox@ioLobeliaWeapon@@MAEXM_N@Z PROC	; ioLobeliaWeapon::UpdateWorldAttackBox, COMDAT
; _this$ = ecx

; 421  : {

  00000	55		 push	 ebp
  00001	8b ec		 mov	 ebp, esp
  00003	51		 push	 ecx
  00004	51		 push	 ecx
  00005	53		 push	 ebx
  00006	8b d9		 mov	 ebx, ecx

; 422  : 	if( !IsLive() || bSetNull )

  00008	80 bb 82 05 00
	00 00		 cmp	 BYTE PTR [ebx+1410], 0
  0000f	56		 push	 esi
  00010	57		 push	 edi
  00011	0f 84 04 01 00
	00		 je	 $LN2@UpdateWorl
  00017	80 7d 0c 00	 cmp	 BYTE PTR _bSetNull$[ebp], 0
  0001b	0f 85 fa 00 00
	00		 jne	 $LN2@UpdateWorl

; 426  : 		return;
; 427  : 	}
; 428  : 
; 429  : 	m_WorldAttackBox = GetLocalAttackBox();

  00021	8b 03		 mov	 eax, DWORD PTR [ebx]
  00023	ff 90 00 01 00
	00		 call	 DWORD PTR [eax+256]
  00029	6a 11		 push	 17			; 00000011H
  0002b	59		 pop	 ecx
  0002c	8b f0		 mov	 esi, eax
  0002e	8d bb e8 04 00
	00		 lea	 edi, DWORD PTR [ebx+1256]
  00034	f3 a5		 rep movsd

; 430  : 	m_WorldAttackBoxForMap = m_WorldAttackBox;

  00036	6a 11		 push	 17			; 00000011H
  00038	8b f0		 mov	 esi, eax

; 431  : 
; 432  : 	float fMapCollisionRate = GetAttribute()->m_fMapCollisionBoxRate;

  0003a	8b 03		 mov	 eax, DWORD PTR [ebx]
  0003c	59		 pop	 ecx
  0003d	8d bb 2c 05 00
	00		 lea	 edi, DWORD PTR [ebx+1324]
  00043	f3 a5		 rep movsd
  00045	8b cb		 mov	 ecx, ebx
  00047	ff 90 3c 01 00
	00		 call	 DWORD PTR [eax+316]

; 433  : 	m_WorldAttackBoxForMap.SetExtents( 0, m_WorldAttackBox.GetExtents(0)*fMapCollisionRate );

  0004d	6a 00		 push	 0
  0004f	d9 80 a8 01 00
	00		 fld	 DWORD PTR [eax+424]
  00055	8d 8b e8 04 00
	00		 lea	 ecx, DWORD PTR [ebx+1256]
  0005b	d9 5d 0c	 fstp	 DWORD PTR _fMapCollisionRate$[ebp]
  0005e	ff 15 00 00 00
	00		 call	 DWORD PTR __imp_?GetExtents@ioOrientBox@@QBEMH@Z
  00064	d8 4d 0c	 fmul	 DWORD PTR _fMapCollisionRate$[ebp]
  00067	8b 35 00 00 00
	00		 mov	 esi, DWORD PTR __imp_?SetExtents@ioOrientBox@@QAEXHM@Z
  0006d	51		 push	 ecx
  0006e	8d 8b 2c 05 00
	00		 lea	 ecx, DWORD PTR [ebx+1324]
  00074	d9 5d fc	 fstp	 DWORD PTR tv366[ebp]
  00077	d9 45 fc	 fld	 DWORD PTR tv366[ebp]
  0007a	89 4d fc	 mov	 DWORD PTR tv335[ebp], ecx
  0007d	d9 1c 24	 fstp	 DWORD PTR [esp]
  00080	6a 00		 push	 0
  00082	ff d6		 call	 esi

; 434  : 	m_WorldAttackBoxForMap.SetExtents( 1, m_WorldAttackBox.GetExtents(1)*fMapCollisionRate );

  00084	6a 01		 push	 1
  00086	8d 8b e8 04 00
	00		 lea	 ecx, DWORD PTR [ebx+1256]
  0008c	ff 15 00 00 00
	00		 call	 DWORD PTR __imp_?GetExtents@ioOrientBox@@QBEMH@Z
  00092	d8 4d 0c	 fmul	 DWORD PTR _fMapCollisionRate$[ebp]
  00095	51		 push	 ecx
  00096	8b 4d fc	 mov	 ecx, DWORD PTR tv335[ebp]
  00099	d9 5d f8	 fstp	 DWORD PTR tv360[ebp]
  0009c	d9 45 f8	 fld	 DWORD PTR tv360[ebp]
  0009f	d9 1c 24	 fstp	 DWORD PTR [esp]
  000a2	6a 01		 push	 1
  000a4	ff d6		 call	 esi

; 435  : 	m_WorldAttackBoxForMap.SetExtents( 2, m_WorldAttackBox.GetExtents(2)*fMapCollisionRate );

  000a6	6a 02		 push	 2
  000a8	8d 8b e8 04 00
	00		 lea	 ecx, DWORD PTR [ebx+1256]
  000ae	ff 15 00 00 00
	00		 call	 DWORD PTR __imp_?GetExtents@ioOrientBox@@QBEMH@Z
  000b4	d8 4d 0c	 fmul	 DWORD PTR _fMapCollisionRate$[ebp]
  000b7	51		 push	 ecx
  000b8	8b 4d fc	 mov	 ecx, DWORD PTR tv335[ebp]
  000bb	d9 5d 0c	 fstp	 DWORD PTR tv352[ebp]
  000be	d9 45 0c	 fld	 DWORD PTR tv352[ebp]
  000c1	d9 1c 24	 fstp	 DWORD PTR [esp]
  000c4	6a 02		 push	 2
  000c6	ff d6		 call	 esi

; 436  : 
; 437  : 	if( !m_WorldAttackBox.IsNull() )

  000c8	8d 8b e8 04 00
	00		 lea	 ecx, DWORD PTR [ebx+1256]
  000ce	ff 15 00 00 00
	00		 call	 DWORD PTR __imp_?IsNull@ioOrientBox@@QBE_NXZ
  000d4	84 c0		 test	 al, al
  000d6	75 59		 jne	 SHORT $LN1@UpdateWorl

; 438  : 	{
; 439  : 		m_WorldAttackBox.Transform( GetPosition(),
; 440  : 									ioMath::UNIT_ALL,
; 441  : 									GetParentSceneNode()->GetDerivedOrientation() );

  000d8	8b 4b 04	 mov	 ecx, DWORD PTR [ebx+4]
  000db	8b 01		 mov	 eax, DWORD PTR [ecx]
  000dd	ff 50 78	 call	 DWORD PTR [eax+120]
  000e0	50		 push	 eax
  000e1	ff 35 00 00 00
	00		 push	 DWORD PTR __imp_?UNIT_ALL@ioMath@@2UD3DXVECTOR3@@A
  000e7	8b 03		 mov	 eax, DWORD PTR [ebx]
  000e9	8b cb		 mov	 ecx, ebx
  000eb	ff 50 70	 call	 DWORD PTR [eax+112]
  000ee	8b 35 00 00 00
	00		 mov	 esi, DWORD PTR __imp_?Transform@ioOrientBox@@QAEXABUD3DXVECTOR3@@0ABUD3DXQUATERNION@@@Z
  000f4	50		 push	 eax
  000f5	8d 8b e8 04 00
	00		 lea	 ecx, DWORD PTR [ebx+1256]
  000fb	ff d6		 call	 esi

; 442  : 
; 443  : 		m_WorldAttackBoxForMap.Transform( GetPosition(),
; 444  : 										  ioMath::UNIT_ALL,
; 445  : 										  GetParentSceneNode()->GetDerivedOrientation() );

  000fd	8b 4b 04	 mov	 ecx, DWORD PTR [ebx+4]
  00100	8b 01		 mov	 eax, DWORD PTR [ecx]
  00102	ff 50 78	 call	 DWORD PTR [eax+120]
  00105	50		 push	 eax
  00106	ff 35 00 00 00
	00		 push	 DWORD PTR __imp_?UNIT_ALL@ioMath@@2UD3DXVECTOR3@@A
  0010c	8b 03		 mov	 eax, DWORD PTR [ebx]
  0010e	8b cb		 mov	 ecx, ebx
  00110	ff 50 70	 call	 DWORD PTR [eax+112]
  00113	8b 4d fc	 mov	 ecx, DWORD PTR tv335[ebp]
  00116	50		 push	 eax
  00117	ff d6		 call	 esi
  00119	eb 16		 jmp	 SHORT $LN1@UpdateWorl
$LN2@UpdateWorl:

; 423  : 	{
; 424  : 		m_WorldAttackBox.SetNull();

  0011b	8b 35 00 00 00
	00		 mov	 esi, DWORD PTR __imp_?SetNull@ioOrientBox@@QAEXXZ
  00121	8d 8b e8 04 00
	00		 lea	 ecx, DWORD PTR [ebx+1256]
  00127	ff d6		 call	 esi

; 425  : 		m_WorldAttackBoxForMap.SetNull();

  00129	8d 8b 2c 05 00
	00		 lea	 ecx, DWORD PTR [ebx+1324]
  0012f	ff d6		 call	 esi
$LN1@UpdateWorl:
  00131	5f		 pop	 edi
  00132	5e		 pop	 esi
  00133	5b		 pop	 ebx

; 446  : 	}
; 447  : }

  00134	c9		 leave
  00135	c2 08 00	 ret	 8
?UpdateWorldAttackBox@ioLobeliaWeapon@@MAEXM_N@Z ENDP	; ioLobeliaWeapon::UpdateWorldAttackBox
_TEXT	ENDS
PUBLIC	__$ArrayPad$
PUBLIC	?SetJumpThrow@ioLobeliaWeapon@@QAEXXZ		; ioLobeliaWeapon::SetJumpThrow
EXTRN	_D3DXQuaternionRotationAxis@12:PROC
; Function compile flags: /Ogsp
;	COMDAT ?SetJumpThrow@ioLobeliaWeapon@@QAEXXZ
_TEXT	SEGMENT
_qtRot$ = -60						; size = 16
tv340 = -44						; size = 4
_v$535058 = -40						; size = 12
$T531116 = -28						; size = 12
$T531110 = -28						; size = 12
_vAxis$ = -16						; size = 12
__$ArrayPad$ = -4					; size = 4
?SetJumpThrow@ioLobeliaWeapon@@QAEXXZ PROC		; ioLobeliaWeapon::SetJumpThrow, COMDAT
; _this$ = ecx

; 579  : {

  00000	55		 push	 ebp
  00001	8b ec		 mov	 ebp, esp
  00003	83 ec 3c	 sub	 esp, 60			; 0000003cH
  00006	a1 00 00 00 00	 mov	 eax, DWORD PTR ___security_cookie
  0000b	33 c5		 xor	 eax, ebp
  0000d	89 45 fc	 mov	 DWORD PTR __$ArrayPad$[ebp], eax
  00010	53		 push	 ebx
  00011	56		 push	 esi
  00012	57		 push	 edi

; 580  : 	D3DXVECTOR3 vAxis;
; 581  : 	D3DXVec3Cross( &vAxis, &m_vMoveDir, &D3DXVECTOR3( 0.0f, -FLOAT1, 0.0f ) );

  00013	b8 01 00 00 00	 mov	 eax, 1
  00018	89 45 d4	 mov	 DWORD PTR tv340[ebp], eax
  0001b	db 45 d4	 fild	 DWORD PTR tv340[ebp]
  0001e	85 c0		 test	 eax, eax
  00020	79 06		 jns	 SHORT $LN17@SetJumpThr
  00022	d8 05 00 00 00
	00		 fadd	 DWORD PTR __real@4f800000
$LN17@SetJumpThr:
  00028	8d 99 c4 08 00
	00		 lea	 ebx, DWORD PTR [ecx+2244]
  0002e	d9 e0		 fchs
  00030	f3 0f 10 43 04	 movss	 xmm0, DWORD PTR [ebx+4]
  00035	d9 5d e8	 fstp	 DWORD PTR $T531110[ebp+4]
  00038	f3 0f 10 53 08	 movss	 xmm2, DWORD PTR [ebx+8]
  0003d	f3 0f 10 65 e8	 movss	 xmm4, DWORD PTR $T531110[ebp+4]
  00042	0f 5a c8	 cvtps2pd xmm1, xmm0
  00045	0f 57 c0	 xorps	 xmm0, xmm0
  00048	f2 0f 59 c8	 mulsd	 xmm1, xmm0
  0004c	0f 5a da	 cvtps2pd xmm3, xmm2
  0004f	0f 5a e4	 cvtps2pd xmm4, xmm4
  00052	f2 0f 59 dc	 mulsd	 xmm3, xmm4
  00056	66 0f 28 e1	 movapd	 xmm4, xmm1
  0005a	f2 0f 5c e3	 subsd	 xmm4, xmm3
  0005e	0f 57 db	 xorps	 xmm3, xmm3
  00061	f2 0f 5a dc	 cvtsd2ss xmm3, xmm4
  00065	f3 0f 11 5d d8	 movss	 DWORD PTR _v$535058[ebp], xmm3
  0006a	f3 0f 10 1b	 movss	 xmm3, DWORD PTR [ebx]
  0006e	0f 5a d2	 cvtps2pd xmm2, xmm2
  00071	f2 0f 59 d0	 mulsd	 xmm2, xmm0
  00075	0f 5a e3	 cvtps2pd xmm4, xmm3
  00078	f2 0f 59 e0	 mulsd	 xmm4, xmm0
  0007c	f2 0f 5c d4	 subsd	 xmm2, xmm4
  00080	66 0f 5a c2	 cvtpd2ps xmm0, xmm2
  00084	f3 0f 10 55 e8	 movss	 xmm2, DWORD PTR $T531110[ebp+4]
  00089	f3 0f 11 45 dc	 movss	 DWORD PTR _v$535058[ebp+4], xmm0
  0008e	0f 5a d2	 cvtps2pd xmm2, xmm2
  00091	8d 75 d8	 lea	 esi, DWORD PTR _v$535058[ebp]
  00094	8d 7d f0	 lea	 edi, DWORD PTR _vAxis$[ebp]
  00097	0f 5a c3	 cvtps2pd xmm0, xmm3
  0009a	f2 0f 59 c2	 mulsd	 xmm0, xmm2
  0009e	f2 0f 5c c1	 subsd	 xmm0, xmm1
  000a2	66 0f 5a c0	 cvtpd2ps xmm0, xmm0
  000a6	f3 0f 11 45 e0	 movss	 DWORD PTR _v$535058[ebp+8], xmm0

; 582  : 
; 583  : 	D3DXQUATERNION qtRot;
; 584  : 	D3DXQuaternionRotationAxis( &qtRot, &vAxis, DEGtoRAD(m_fJumpFloatingAngle) );

  000ab	f3 0f 10 81 40
	09 00 00	 movss	 xmm0, DWORD PTR [ecx+2368]
  000b3	a5		 movsd
  000b4	0f 5a c0	 cvtps2pd xmm0, xmm0
  000b7	f2 0f 59 05 00
	00 00 00	 mulsd	 xmm0, QWORD PTR __real@3f91df46a2526c7a
  000bf	51		 push	 ecx
  000c0	66 0f 5a c0	 cvtpd2ps xmm0, xmm0
  000c4	f3 0f 11 04 24	 movss	 DWORD PTR [esp], xmm0
  000c9	8d 45 f0	 lea	 eax, DWORD PTR _vAxis$[ebp]
  000cc	a5		 movsd
  000cd	50		 push	 eax
  000ce	8d 45 c4	 lea	 eax, DWORD PTR _qtRot$[ebp]
  000d1	50		 push	 eax
  000d2	a5		 movsd
  000d3	e8 00 00 00 00	 call	 _D3DXQuaternionRotationAxis@12

; 585  : 	m_vMoveDir = qtRot * m_vMoveDir;

  000d8	53		 push	 ebx
  000d9	8d 45 c4	 lea	 eax, DWORD PTR _qtRot$[ebp]
  000dc	50		 push	 eax
  000dd	8d 45 e4	 lea	 eax, DWORD PTR $T531116[ebp]
  000e0	50		 push	 eax
  000e1	ff 15 00 00 00
	00		 call	 DWORD PTR __imp_??D@YA?AUD3DXVECTOR3@@ABUD3DXQUATERNION@@ABU0@@Z

; 586  : }

  000e7	8b 4d fc	 mov	 ecx, DWORD PTR __$ArrayPad$[ebp]
  000ea	8b fb		 mov	 edi, ebx
  000ec	8b f0		 mov	 esi, eax
  000ee	a5		 movsd
  000ef	a5		 movsd
  000f0	83 c4 0c	 add	 esp, 12			; 0000000cH
  000f3	a5		 movsd
  000f4	5f		 pop	 edi
  000f5	5e		 pop	 esi
  000f6	33 cd		 xor	 ecx, ebp
  000f8	5b		 pop	 ebx
  000f9	e8 00 00 00 00	 call	 @__security_check_cookie@4
  000fe	c9		 leave
  000ff	c3		 ret	 0
?SetJumpThrow@ioLobeliaWeapon@@QAEXXZ ENDP		; ioLobeliaWeapon::SetJumpThrow
_TEXT	ENDS
PUBLIC	__$ArrayPad$
PUBLIC	?RotateMoveDir@ioLobeliaWeapon@@QAEXM@Z		; ioLobeliaWeapon::RotateMoveDir
; Function compile flags: /Ogsp
;	COMDAT ?RotateMoveDir@ioLobeliaWeapon@@QAEXM@Z
_TEXT	SEGMENT
_qtRot$ = -60						; size = 16
tv337 = -44						; size = 4
_v$535091 = -40						; size = 12
$T531125 = -28						; size = 12
$T531123 = -28						; size = 12
_vAxis$ = -16						; size = 12
__$ArrayPad$ = -4					; size = 4
_fAngle$ = 8						; size = 4
?RotateMoveDir@ioLobeliaWeapon@@QAEXM@Z PROC		; ioLobeliaWeapon::RotateMoveDir, COMDAT
; _this$ = ecx

; 589  : {

  00000	55		 push	 ebp
  00001	8b ec		 mov	 ebp, esp
  00003	83 ec 3c	 sub	 esp, 60			; 0000003cH
  00006	a1 00 00 00 00	 mov	 eax, DWORD PTR ___security_cookie
  0000b	33 c5		 xor	 eax, ebp
  0000d	89 45 fc	 mov	 DWORD PTR __$ArrayPad$[ebp], eax
  00010	53		 push	 ebx
  00011	56		 push	 esi
  00012	57		 push	 edi

; 590  : 	D3DXVECTOR3 vAxis;
; 591  : 	D3DXVec3Cross( &vAxis, &m_vMoveDir, &D3DXVECTOR3( 0.0f, -FLOAT1, 0.0f ) );

  00013	b8 01 00 00 00	 mov	 eax, 1
  00018	89 45 d4	 mov	 DWORD PTR tv337[ebp], eax
  0001b	db 45 d4	 fild	 DWORD PTR tv337[ebp]
  0001e	85 c0		 test	 eax, eax
  00020	79 06		 jns	 SHORT $LN17@RotateMove
  00022	d8 05 00 00 00
	00		 fadd	 DWORD PTR __real@4f800000
$LN17@RotateMove:
  00028	8d 99 c4 08 00
	00		 lea	 ebx, DWORD PTR [ecx+2244]
  0002e	d9 e0		 fchs
  00030	f3 0f 10 43 04	 movss	 xmm0, DWORD PTR [ebx+4]
  00035	d9 5d e8	 fstp	 DWORD PTR $T531123[ebp+4]
  00038	f3 0f 10 53 08	 movss	 xmm2, DWORD PTR [ebx+8]
  0003d	f3 0f 10 65 e8	 movss	 xmm4, DWORD PTR $T531123[ebp+4]
  00042	0f 5a c8	 cvtps2pd xmm1, xmm0
  00045	0f 57 c0	 xorps	 xmm0, xmm0
  00048	f2 0f 59 c8	 mulsd	 xmm1, xmm0
  0004c	0f 5a da	 cvtps2pd xmm3, xmm2
  0004f	0f 5a e4	 cvtps2pd xmm4, xmm4
  00052	f2 0f 59 dc	 mulsd	 xmm3, xmm4
  00056	66 0f 28 e1	 movapd	 xmm4, xmm1
  0005a	f2 0f 5c e3	 subsd	 xmm4, xmm3
  0005e	0f 57 db	 xorps	 xmm3, xmm3
  00061	f2 0f 5a dc	 cvtsd2ss xmm3, xmm4
  00065	f3 0f 11 5d d8	 movss	 DWORD PTR _v$535091[ebp], xmm3
  0006a	f3 0f 10 1b	 movss	 xmm3, DWORD PTR [ebx]
  0006e	0f 5a d2	 cvtps2pd xmm2, xmm2
  00071	f2 0f 59 d0	 mulsd	 xmm2, xmm0
  00075	0f 5a e3	 cvtps2pd xmm4, xmm3
  00078	f2 0f 59 e0	 mulsd	 xmm4, xmm0
  0007c	f2 0f 5c d4	 subsd	 xmm2, xmm4
  00080	66 0f 5a c2	 cvtpd2ps xmm0, xmm2
  00084	f3 0f 10 55 e8	 movss	 xmm2, DWORD PTR $T531123[ebp+4]
  00089	f3 0f 11 45 dc	 movss	 DWORD PTR _v$535091[ebp+4], xmm0
  0008e	0f 5a d2	 cvtps2pd xmm2, xmm2
  00091	8d 75 d8	 lea	 esi, DWORD PTR _v$535091[ebp]
  00094	8d 7d f0	 lea	 edi, DWORD PTR _vAxis$[ebp]
  00097	0f 5a c3	 cvtps2pd xmm0, xmm3
  0009a	f2 0f 59 c2	 mulsd	 xmm0, xmm2
  0009e	f2 0f 5c c1	 subsd	 xmm0, xmm1
  000a2	66 0f 5a c0	 cvtpd2ps xmm0, xmm0
  000a6	f3 0f 11 45 e0	 movss	 DWORD PTR _v$535091[ebp+8], xmm0

; 592  : 
; 593  : 	D3DXQUATERNION qtRot;
; 594  : 	D3DXQuaternionRotationAxis( &qtRot, &vAxis, DEGtoRAD(fAngle) );

  000ab	f3 0f 10 45 08	 movss	 xmm0, DWORD PTR _fAngle$[ebp]
  000b0	a5		 movsd
  000b1	0f 5a c0	 cvtps2pd xmm0, xmm0
  000b4	f2 0f 59 05 00
	00 00 00	 mulsd	 xmm0, QWORD PTR __real@3f91df46a2526c7a
  000bc	51		 push	 ecx
  000bd	66 0f 5a c0	 cvtpd2ps xmm0, xmm0
  000c1	f3 0f 11 04 24	 movss	 DWORD PTR [esp], xmm0
  000c6	8d 45 f0	 lea	 eax, DWORD PTR _vAxis$[ebp]
  000c9	a5		 movsd
  000ca	50		 push	 eax
  000cb	8d 45 c4	 lea	 eax, DWORD PTR _qtRot$[ebp]
  000ce	50		 push	 eax
  000cf	a5		 movsd
  000d0	e8 00 00 00 00	 call	 _D3DXQuaternionRotationAxis@12

; 595  : 	m_vMoveDir = qtRot * m_vMoveDir;

  000d5	53		 push	 ebx
  000d6	8d 45 c4	 lea	 eax, DWORD PTR _qtRot$[ebp]
  000d9	50		 push	 eax
  000da	8d 45 e4	 lea	 eax, DWORD PTR $T531125[ebp]
  000dd	50		 push	 eax
  000de	ff 15 00 00 00
	00		 call	 DWORD PTR __imp_??D@YA?AUD3DXVECTOR3@@ABUD3DXQUATERNION@@ABU0@@Z

; 596  : }

  000e4	8b 4d fc	 mov	 ecx, DWORD PTR __$ArrayPad$[ebp]
  000e7	8b fb		 mov	 edi, ebx
  000e9	8b f0		 mov	 esi, eax
  000eb	a5		 movsd
  000ec	a5		 movsd
  000ed	83 c4 0c	 add	 esp, 12			; 0000000cH
  000f0	a5		 movsd
  000f1	5f		 pop	 edi
  000f2	5e		 pop	 esi
  000f3	33 cd		 xor	 ecx, ebp
  000f5	5b		 pop	 ebx
  000f6	e8 00 00 00 00	 call	 @__security_check_cookie@4
  000fb	c9		 leave
  000fc	c2 04 00	 ret	 4
?RotateMoveDir@ioLobeliaWeapon@@QAEXM@Z ENDP		; ioLobeliaWeapon::RotateMoveDir
_TEXT	ENDS
PUBLIC	__$ArrayPad$
PUBLIC	?TranslateByConveyer@ioLobeliaWeapon@@QAEXABUD3DXVECTOR3@@@Z ; ioLobeliaWeapon::TranslateByConveyer
; Function compile flags: /Ogsp
;	COMDAT ?TranslateByConveyer@ioLobeliaWeapon@@QAEXABUD3DXVECTOR3@@@Z
_TEXT	SEGMENT
$T531171 = -16						; size = 12
__$ArrayPad$ = -4					; size = 4
_vMoveAmt$ = 8						; size = 4
?TranslateByConveyer@ioLobeliaWeapon@@QAEXABUD3DXVECTOR3@@@Z PROC ; ioLobeliaWeapon::TranslateByConveyer, COMDAT
; _this$ = ecx

; 682  : {

  00000	55		 push	 ebp
  00001	8b ec		 mov	 ebp, esp
  00003	83 ec 10	 sub	 esp, 16			; 00000010H
  00006	a1 00 00 00 00	 mov	 eax, DWORD PTR ___security_cookie
  0000b	33 c5		 xor	 eax, ebp
  0000d	89 45 fc	 mov	 DWORD PTR __$ArrayPad$[ebp], eax
  00010	56		 push	 esi
  00011	8b 75 08	 mov	 esi, DWORD PTR _vMoveAmt$[ebp]
  00014	57		 push	 edi
  00015	8b f9		 mov	 edi, ecx

; 683  : 	if( m_State == TS_EXPLOSION )

  00017	83 bf 94 08 00
	00 04		 cmp	 DWORD PTR [edi+2196], 4
  0001e	75 65		 jne	 SHORT $LN1@TranslateB

; 684  : 	{
; 685  : 		SetPosition( GetPosition() + vMoveAmt );

  00020	8b 07		 mov	 eax, DWORD PTR [edi]
  00022	ff 50 70	 call	 DWORD PTR [eax+112]
  00025	f3 0f 10 48 04	 movss	 xmm1, DWORD PTR [eax+4]
  0002a	f3 0f 10 50 08	 movss	 xmm2, DWORD PTR [eax+8]
  0002f	f3 0f 10 46 04	 movss	 xmm0, DWORD PTR [esi+4]
  00034	f3 0f 10 18	 movss	 xmm3, DWORD PTR [eax]
  00038	0f 5a c9	 cvtps2pd xmm1, xmm1
  0003b	0f 5a c0	 cvtps2pd xmm0, xmm0
  0003e	f2 0f 58 c1	 addsd	 xmm0, xmm1
  00042	f3 0f 10 4e 08	 movss	 xmm1, DWORD PTR [esi+8]
  00047	0f 5a d2	 cvtps2pd xmm2, xmm2
  0004a	0f 5a c9	 cvtps2pd xmm1, xmm1
  0004d	f2 0f 58 ca	 addsd	 xmm1, xmm2
  00051	f3 0f 10 16	 movss	 xmm2, DWORD PTR [esi]
  00055	0f 5a d2	 cvtps2pd xmm2, xmm2
  00058	0f 5a db	 cvtps2pd xmm3, xmm3
  0005b	8d 45 f0	 lea	 eax, DWORD PTR $T531171[ebp]
  0005e	f2 0f 58 d3	 addsd	 xmm2, xmm3
  00062	66 0f 5a c0	 cvtpd2ps xmm0, xmm0
  00066	66 0f 5a c9	 cvtpd2ps xmm1, xmm1
  0006a	66 0f 5a d2	 cvtpd2ps xmm2, xmm2
  0006e	50		 push	 eax
  0006f	8b cf		 mov	 ecx, edi
  00071	f3 0f 11 55 f0	 movss	 DWORD PTR $T531171[ebp], xmm2
  00076	f3 0f 11 45 f4	 movss	 DWORD PTR $T531171[ebp+4], xmm0
  0007b	f3 0f 11 4d f8	 movss	 DWORD PTR $T531171[ebp+8], xmm1
  00080	e8 00 00 00 00	 call	 ?SetPosition@ioWeapon@@QAEXABUD3DXVECTOR3@@@Z ; ioWeapon::SetPosition
$LN1@TranslateB:

; 686  : 	}
; 687  : }

  00085	8b 4d fc	 mov	 ecx, DWORD PTR __$ArrayPad$[ebp]
  00088	5f		 pop	 edi
  00089	33 cd		 xor	 ecx, ebp
  0008b	5e		 pop	 esi
  0008c	e8 00 00 00 00	 call	 @__security_check_cookie@4
  00091	c9		 leave
  00092	c2 04 00	 ret	 4
?TranslateByConveyer@ioLobeliaWeapon@@QAEXABUD3DXVECTOR3@@@Z ENDP ; ioLobeliaWeapon::TranslateByConveyer
_TEXT	ENDS
PUBLIC	??G?$CEncrypt@M@@QAEMABM@Z			; CEncrypt<float>::operator-
; Function compile flags: /Ogsp
; File d:\lost saga for developer\youtube\tutorial\source\src\lsclient\encryptvalue.h
;	COMDAT ??G?$CEncrypt@M@@QAEMABM@Z
_TEXT	SEGMENT
_value$ = -4						; size = 4
tv130 = 8						; size = 4
_inValue$ = 8						; size = 4
??G?$CEncrypt@M@@QAEMABM@Z PROC				; CEncrypt<float>::operator-, COMDAT
; _this$ = ecx

; 1665 : 	{	

  00000	55		 push	 ebp
  00001	8b ec		 mov	 ebp, esp
  00003	51		 push	 ecx

; 1666 : 		type value;
; 1667 : 		DecryptValueToPool(&value);

  00004	8d 45 fc	 lea	 eax, DWORD PTR _value$[ebp]
  00007	50		 push	 eax
  00008	e8 00 00 00 00	 call	 ?DecryptValueToPool@?$CEncrypt@M@@QAEXPAM@Z ; CEncrypt<float>::DecryptValueToPool

; 1668 : #ifdef _NOTUSE
; 1669 : 		Debug();
; 1670 : #endif
; 1671 : 		return value - inValue;

  0000d	d9 45 fc	 fld	 DWORD PTR _value$[ebp]
  00010	8b 45 08	 mov	 eax, DWORD PTR _inValue$[ebp]
  00013	d8 20		 fsub	 DWORD PTR [eax]
  00015	d9 5d 08	 fstp	 DWORD PTR tv130[ebp]
  00018	d9 45 08	 fld	 DWORD PTR tv130[ebp]

; 1672 : 	}

  0001b	c9		 leave
  0001c	c2 04 00	 ret	 4
??G?$CEncrypt@M@@QAEMABM@Z ENDP				; CEncrypt<float>::operator-
_TEXT	ENDS
PUBLIC	??H?$CEncrypt@M@@QAEMABM@Z			; CEncrypt<float>::operator+
; Function compile flags: /Ogsp
;	COMDAT ??H?$CEncrypt@M@@QAEMABM@Z
_TEXT	SEGMENT
_value$ = -4						; size = 4
tv130 = 8						; size = 4
_inValue$ = 8						; size = 4
??H?$CEncrypt@M@@QAEMABM@Z PROC				; CEncrypt<float>::operator+, COMDAT
; _this$ = ecx

; 1675 : 	{	

  00000	55		 push	 ebp
  00001	8b ec		 mov	 ebp, esp
  00003	51		 push	 ecx

; 1676 : 		type value;
; 1677 : 		DecryptValueToPool(&value);

  00004	8d 45 fc	 lea	 eax, DWORD PTR _value$[ebp]
  00007	50		 push	 eax
  00008	e8 00 00 00 00	 call	 ?DecryptValueToPool@?$CEncrypt@M@@QAEXPAM@Z ; CEncrypt<float>::DecryptValueToPool

; 1678 : #ifdef _NOTUSE
; 1679 : 		Debug();
; 1680 : #endif
; 1681 : 		return value + inValue;

  0000d	8b 45 08	 mov	 eax, DWORD PTR _inValue$[ebp]
  00010	d9 00		 fld	 DWORD PTR [eax]
  00012	d8 45 fc	 fadd	 DWORD PTR _value$[ebp]
  00015	d9 5d 08	 fstp	 DWORD PTR tv130[ebp]
  00018	d9 45 08	 fld	 DWORD PTR tv130[ebp]

; 1682 : 	}

  0001b	c9		 leave
  0001c	c2 04 00	 ret	 4
??H?$CEncrypt@M@@QAEMABM@Z ENDP				; CEncrypt<float>::operator+
_TEXT	ENDS
PUBLIC	??D?$CEncrypt@M@@QAEMABM@Z			; CEncrypt<float>::operator*
; Function compile flags: /Ogsp
;	COMDAT ??D?$CEncrypt@M@@QAEMABM@Z
_TEXT	SEGMENT
_value$ = -4						; size = 4
tv130 = 8						; size = 4
_inValue$ = 8						; size = 4
??D?$CEncrypt@M@@QAEMABM@Z PROC				; CEncrypt<float>::operator*, COMDAT
; _this$ = ecx

; 1685 : 	{	

  00000	55		 push	 ebp
  00001	8b ec		 mov	 ebp, esp
  00003	51		 push	 ecx

; 1686 : 		type value;
; 1687 : 		DecryptValueToPool(&value);

  00004	8d 45 fc	 lea	 eax, DWORD PTR _value$[ebp]
  00007	50		 push	 eax
  00008	e8 00 00 00 00	 call	 ?DecryptValueToPool@?$CEncrypt@M@@QAEXPAM@Z ; CEncrypt<float>::DecryptValueToPool

; 1688 : #ifdef _NOTUSE
; 1689 : 		Debug();
; 1690 : #endif
; 1691 : 		return value * inValue;

  0000d	8b 45 08	 mov	 eax, DWORD PTR _inValue$[ebp]
  00010	d9 00		 fld	 DWORD PTR [eax]
  00012	d8 4d fc	 fmul	 DWORD PTR _value$[ebp]
  00015	d9 5d 08	 fstp	 DWORD PTR tv130[ebp]
  00018	d9 45 08	 fld	 DWORD PTR tv130[ebp]

; 1692 : 	}

  0001b	c9		 leave
  0001c	c2 04 00	 ret	 4
??D?$CEncrypt@M@@QAEMABM@Z ENDP				; CEncrypt<float>::operator*
_TEXT	ENDS
PUBLIC	??8?$CEncrypt@M@@QAE_NABM@Z			; CEncrypt<float>::operator==
; Function compile flags: /Ogsp
;	COMDAT ??8?$CEncrypt@M@@QAE_NABM@Z
_TEXT	SEGMENT
_value$ = -4						; size = 4
_inValue$ = 8						; size = 4
??8?$CEncrypt@M@@QAE_NABM@Z PROC			; CEncrypt<float>::operator==, COMDAT
; _this$ = ecx

; 1781 : 	{

  00000	55		 push	 ebp
  00001	8b ec		 mov	 ebp, esp
  00003	51		 push	 ecx

; 1782 : 		type value;
; 1783 : 		DecryptValueToPool(&value);

  00004	8d 45 fc	 lea	 eax, DWORD PTR _value$[ebp]
  00007	50		 push	 eax
  00008	e8 00 00 00 00	 call	 ?DecryptValueToPool@?$CEncrypt@M@@QAEXPAM@Z ; CEncrypt<float>::DecryptValueToPool

; 1784 : #ifdef _NOTUSE
; 1785 : 		Debug();
; 1786 : #endif
; 1787 : 		return (value == inValue);

  0000d	8b 45 08	 mov	 eax, DWORD PTR _inValue$[ebp]
  00010	f3 0f 10 08	 movss	 xmm1, DWORD PTR [eax]
  00014	f3 0f 10 45 fc	 movss	 xmm0, DWORD PTR _value$[ebp]
  00019	0f 5a c0	 cvtps2pd xmm0, xmm0
  0001c	0f 5a c9	 cvtps2pd xmm1, xmm1
  0001f	66 0f 2e c1	 ucomisd xmm0, xmm1
  00023	9f		 lahf
  00024	f6 c4 44	 test	 ah, 68			; 00000044H
  00027	7a 05		 jp	 SHORT $LN3@operator
  00029	33 c0		 xor	 eax, eax
  0002b	40		 inc	 eax
  0002c	eb 02		 jmp	 SHORT $LN4@operator
$LN3@operator:
  0002e	33 c0		 xor	 eax, eax
$LN4@operator:

; 1788 : 	} 

  00030	c9		 leave
  00031	c2 04 00	 ret	 4
??8?$CEncrypt@M@@QAE_NABM@Z ENDP			; CEncrypt<float>::operator==
_TEXT	ENDS
PUBLIC	_this$GSCopy$
PUBLIC	__$ArrayPad$
PUBLIC	??$LoadString_e@$0M@@ioINILoader@@QAEXAAY0M@$$CBDAAY00$$CBDPADH@Z ; ioINILoader::LoadString_e<12>
EXTRN	__imp_?LoadStringA@ioINILoader@@QAEXPBD0PADH@Z:PROC
; Function compile flags: /Ogsp
; File d:\lost saga for developer\youtube\tutorial\source\src\io3dengine\ioiniloader.h
;	COMDAT ??$LoadString_e@$0M@@ioINILoader@@QAEXAAY0M@$$CBDAAY00$$CBDPADH@Z
_TEXT	SEGMENT
_this$GSCopy$ = -24					; size = 4
__k$ = -20						; size = 12
__$ArrayPad$ = -4					; size = 4
_k$ = 8							; size = 4
_d$ = 12						; size = 4
_b$ = 16						; size = 4
_i$ = 20						; size = 4
??$LoadString_e@$0M@@ioINILoader@@QAEXAAY0M@$$CBDAAY00$$CBDPADH@Z PROC ; ioINILoader::LoadString_e<12>, COMDAT
; _this$ = ecx

; 161  : 	{

  00000	55		 push	 ebp
  00001	8b ec		 mov	 ebp, esp
  00003	83 ec 18	 sub	 esp, 24			; 00000018H
  00006	a1 00 00 00 00	 mov	 eax, DWORD PTR ___security_cookie
  0000b	33 c5		 xor	 eax, ebp
  0000d	89 45 fc	 mov	 DWORD PTR __$ArrayPad$[ebp], eax
  00010	8b 45 08	 mov	 eax, DWORD PTR _k$[ebp]

; 162  : 		_ENCSTR(k, _k);

  00013	8a 10		 mov	 dl, BYTE PTR [eax]
  00015	56		 push	 esi
  00016	8b 75 0c	 mov	 esi, DWORD PTR _d$[ebp]
  00019	57		 push	 edi
  0001a	8b 7d 10	 mov	 edi, DWORD PTR _b$[ebp]
  0001d	89 4d e8	 mov	 DWORD PTR _this$GSCopy$[ebp], ecx
  00020	84 d2		 test	 dl, dl
  00022	0f 84 32 01 00
	00		 je	 $LN96@LoadString
  00028	80 f2 ed	 xor	 dl, -19			; ffffffedH
  0002b	88 55 ec	 mov	 BYTE PTR __k$[ebp], dl
  0002e	8a 50 01	 mov	 dl, BYTE PTR [eax+1]
  00031	84 d2		 test	 dl, dl
  00033	0f 84 1b 01 00
	00		 je	 $LN95@LoadString
  00039	80 f2 ec	 xor	 dl, -20			; ffffffecH
  0003c	88 55 ed	 mov	 BYTE PTR __k$[ebp+1], dl
  0003f	8a 50 02	 mov	 dl, BYTE PTR [eax+2]
  00042	84 d2		 test	 dl, dl
  00044	0f 84 04 01 00
	00		 je	 $LN94@LoadString
  0004a	b1 eb		 mov	 cl, -21			; ffffffebH
  0004c	32 d1		 xor	 dl, cl
  0004e	88 55 ee	 mov	 BYTE PTR __k$[ebp+2], dl
  00051	8a 50 03	 mov	 dl, BYTE PTR [eax+3]
  00054	84 d2		 test	 dl, dl
  00056	0f 84 ec 00 00
	00		 je	 $LN93@LoadString
  0005c	80 f2 ea	 xor	 dl, -22			; ffffffeaH
  0005f	88 55 ef	 mov	 BYTE PTR __k$[ebp+3], dl
  00062	8a 50 04	 mov	 dl, BYTE PTR [eax+4]
  00065	84 d2		 test	 dl, dl
  00067	0f 84 d5 00 00
	00		 je	 $LN92@LoadString
  0006d	80 f2 ed	 xor	 dl, -19			; ffffffedH
  00070	88 55 f0	 mov	 BYTE PTR __k$[ebp+4], dl
  00073	8a 50 05	 mov	 dl, BYTE PTR [eax+5]
  00076	84 d2		 test	 dl, dl
  00078	0f 84 be 00 00
	00		 je	 $LN91@LoadString
  0007e	80 f2 ec	 xor	 dl, -20			; ffffffecH
  00081	88 55 f1	 mov	 BYTE PTR __k$[ebp+5], dl
  00084	8a 50 06	 mov	 dl, BYTE PTR [eax+6]
  00087	84 d2		 test	 dl, dl
  00089	0f 84 a8 00 00
	00		 je	 $LN90@LoadString
  0008f	32 d1		 xor	 dl, cl
  00091	88 55 f2	 mov	 BYTE PTR __k$[ebp+6], dl
  00094	8a 50 07	 mov	 dl, BYTE PTR [eax+7]
  00097	84 d2		 test	 dl, dl
  00099	0f 84 92 00 00
	00		 je	 $LN89@LoadString
  0009f	80 f2 ea	 xor	 dl, -22			; ffffffeaH
  000a2	88 55 f3	 mov	 BYTE PTR __k$[ebp+7], dl
  000a5	8a 50 08	 mov	 dl, BYTE PTR [eax+8]
  000a8	84 d2		 test	 dl, dl
  000aa	74 7f		 je	 SHORT $LN88@LoadString
  000ac	80 f2 ed	 xor	 dl, -19			; ffffffedH
  000af	88 55 f4	 mov	 BYTE PTR __k$[ebp+8], dl
  000b2	8a 50 09	 mov	 dl, BYTE PTR [eax+9]
  000b5	84 d2		 test	 dl, dl
  000b7	74 6c		 je	 SHORT $LN87@LoadString
  000b9	80 f2 ec	 xor	 dl, -20			; ffffffecH
  000bc	88 55 f5	 mov	 BYTE PTR __k$[ebp+9], dl
  000bf	8a 50 0a	 mov	 dl, BYTE PTR [eax+10]
  000c2	84 d2		 test	 dl, dl
  000c4	74 5a		 je	 SHORT $LN86@LoadString
  000c6	32 d1		 xor	 dl, cl
  000c8	80 78 0b 00	 cmp	 BYTE PTR [eax+11], 0
  000cc	88 55 f6	 mov	 BYTE PTR __k$[ebp+10], dl
  000cf	0f 84 89 00 00
	00		 je	 $LN111@LoadString
  000d5	8a 50 0c	 mov	 dl, BYTE PTR [eax+12]
  000d8	84 d2		 test	 dl, dl
  000da	74 3e		 je	 SHORT $LN84@LoadString
  000dc	80 f2 ed	 xor	 dl, -19			; ffffffedH
  000df	88 55 f8	 mov	 BYTE PTR __k$[ebp+12], dl
  000e2	8a 50 0d	 mov	 dl, BYTE PTR [eax+13]
  000e5	84 d2		 test	 dl, dl
  000e7	74 2b		 je	 SHORT $LN83@LoadString
  000e9	80 f2 ec	 xor	 dl, -20			; ffffffecH
  000ec	88 55 f9	 mov	 BYTE PTR __k$[ebp+13], dl
  000ef	8a 50 0e	 mov	 dl, BYTE PTR [eax+14]
  000f2	84 d2		 test	 dl, dl
  000f4	74 19		 je	 SHORT $LN82@LoadString
  000f6	8a 40 0f	 mov	 al, BYTE PTR [eax+15]
  000f9	32 d1		 xor	 dl, cl
  000fb	88 55 fa	 mov	 BYTE PTR __k$[ebp+14], dl
  000fe	84 c0		 test	 al, al
  00100	74 07		 je	 SHORT $LN81@LoadString
  00102	34 ea		 xor	 al, -22			; ffffffeaH
  00104	88 45 fb	 mov	 BYTE PTR __k$[ebp+15], al
  00107	eb 55		 jmp	 SHORT $LN111@LoadString
$LN81@LoadString:
  00109	c6 45 fb ea	 mov	 BYTE PTR __k$[ebp+15], -22 ; ffffffeaH
  0010d	eb 4f		 jmp	 SHORT $LN111@LoadString
$LN82@LoadString:
  0010f	88 4d fa	 mov	 BYTE PTR __k$[ebp+14], cl
  00112	eb 4a		 jmp	 SHORT $LN111@LoadString
$LN83@LoadString:
  00114	c6 45 f9 ec	 mov	 BYTE PTR __k$[ebp+13], -20 ; ffffffecH
  00118	eb 44		 jmp	 SHORT $LN111@LoadString
$LN84@LoadString:
  0011a	c6 45 f8 ed	 mov	 BYTE PTR __k$[ebp+12], -19 ; ffffffedH
  0011e	eb 3e		 jmp	 SHORT $LN111@LoadString
$LN86@LoadString:
  00120	88 4d f6	 mov	 BYTE PTR __k$[ebp+10], cl
  00123	eb 39		 jmp	 SHORT $LN111@LoadString
$LN87@LoadString:
  00125	c6 45 f5 ec	 mov	 BYTE PTR __k$[ebp+9], -20 ; ffffffecH
  00129	eb 33		 jmp	 SHORT $LN111@LoadString
$LN88@LoadString:
  0012b	c6 45 f4 ed	 mov	 BYTE PTR __k$[ebp+8], -19 ; ffffffedH
  0012f	eb 2d		 jmp	 SHORT $LN111@LoadString
$LN89@LoadString:
  00131	c6 45 f3 ea	 mov	 BYTE PTR __k$[ebp+7], -22 ; ffffffeaH
  00135	eb 27		 jmp	 SHORT $LN111@LoadString
$LN90@LoadString:
  00137	88 4d f2	 mov	 BYTE PTR __k$[ebp+6], cl
  0013a	eb 22		 jmp	 SHORT $LN111@LoadString
$LN91@LoadString:
  0013c	c6 45 f1 ec	 mov	 BYTE PTR __k$[ebp+5], -20 ; ffffffecH
  00140	eb 1c		 jmp	 SHORT $LN111@LoadString
$LN92@LoadString:
  00142	c6 45 f0 ed	 mov	 BYTE PTR __k$[ebp+4], -19 ; ffffffedH
  00146	eb 16		 jmp	 SHORT $LN111@LoadString
$LN93@LoadString:
  00148	c6 45 ef ea	 mov	 BYTE PTR __k$[ebp+3], -22 ; ffffffeaH
  0014c	eb 10		 jmp	 SHORT $LN111@LoadString
$LN94@LoadString:
  0014e	c6 45 ee eb	 mov	 BYTE PTR __k$[ebp+2], -21 ; ffffffebH
  00152	eb 0a		 jmp	 SHORT $LN111@LoadString
$LN95@LoadString:
  00154	c6 45 ed ec	 mov	 BYTE PTR __k$[ebp+1], -20 ; ffffffecH
  00158	eb 04		 jmp	 SHORT $LN111@LoadString
$LN96@LoadString:
  0015a	c6 45 ec ed	 mov	 BYTE PTR __k$[ebp], -19	; ffffffedH
$LN111@LoadString:
  0015e	6a 02		 push	 2
  00160	8d 45 ec	 lea	 eax, DWORD PTR __k$[ebp]
  00163	c6 45 f7 00	 mov	 BYTE PTR __k$[ebp+11], 0
  00167	5a		 pop	 edx
$LL104@LoadString:
  00168	81 30 ed ec eb
	ea		 xor	 DWORD PTR [eax], -353637139 ; eaebecedH
  0016e	83 c0 04	 add	 eax, 4
  00171	4a		 dec	 edx
  00172	75 f4		 jne	 SHORT $LL104@LoadString
  00174	6a 08		 push	 8
  00176	58		 pop	 eax
$LL101@LoadString:
  00177	8b c8		 mov	 ecx, eax
  00179	81 e1 03 00 00
	80		 and	 ecx, -2147483645	; 80000003H
  0017f	79 05		 jns	 SHORT $LN112@LoadString
  00181	49		 dec	 ecx
  00182	83 c9 fc	 or	 ecx, -4			; fffffffcH
  00185	41		 inc	 ecx
$LN112@LoadString:
  00186	b2 ed		 mov	 dl, -19			; ffffffedH
  00188	2a d1		 sub	 dl, cl
  0018a	30 54 05 ec	 xor	 BYTE PTR __k$[ebp+eax], dl
  0018e	40		 inc	 eax
  0018f	83 f8 0b	 cmp	 eax, 11			; 0000000bH
  00192	7c e3		 jl	 SHORT $LL101@LoadString

; 163  : 		LoadString(_k, d, b, i);

  00194	ff 75 14	 push	 DWORD PTR _i$[ebp]
  00197	8b 4d e8	 mov	 ecx, DWORD PTR _this$GSCopy$[ebp]
  0019a	57		 push	 edi
  0019b	56		 push	 esi
  0019c	8d 45 ec	 lea	 eax, DWORD PTR __k$[ebp]
  0019f	50		 push	 eax
  001a0	ff 15 00 00 00
	00		 call	 DWORD PTR __imp_?LoadStringA@ioINILoader@@QAEXPBD0PADH@Z

; 164  : 	}

  001a6	8b 4d fc	 mov	 ecx, DWORD PTR __$ArrayPad$[ebp]
  001a9	5f		 pop	 edi
  001aa	33 cd		 xor	 ecx, ebp
  001ac	5e		 pop	 esi
  001ad	e8 00 00 00 00	 call	 @__security_check_cookie@4
  001b2	c9		 leave
  001b3	c2 10 00	 ret	 16			; 00000010H
??$LoadString_e@$0M@@ioINILoader@@QAEXAAY0M@$$CBDAAY00$$CBDPADH@Z ENDP ; ioINILoader::LoadString_e<12>
_TEXT	ENDS
PUBLIC	_this$GSCopy$
PUBLIC	__$ArrayPad$
PUBLIC	??$LoadString_e@$0O@@ioINILoader@@QAEXAAY0O@$$CBDAAY00$$CBDPADH@Z ; ioINILoader::LoadString_e<14>
; Function compile flags: /Ogsp
;	COMDAT ??$LoadString_e@$0O@@ioINILoader@@QAEXAAY0O@$$CBDAAY00$$CBDPADH@Z
_TEXT	SEGMENT
_this$GSCopy$ = -28					; size = 4
__k$ = -24						; size = 14
__$ArrayPad$ = -4					; size = 4
_k$ = 8							; size = 4
_d$ = 12						; size = 4
_b$ = 16						; size = 4
_i$ = 20						; size = 4
??$LoadString_e@$0O@@ioINILoader@@QAEXAAY0O@$$CBDAAY00$$CBDPADH@Z PROC ; ioINILoader::LoadString_e<14>, COMDAT
; _this$ = ecx

; 161  : 	{

  00000	55		 push	 ebp
  00001	8b ec		 mov	 ebp, esp
  00003	83 ec 1c	 sub	 esp, 28			; 0000001cH
  00006	a1 00 00 00 00	 mov	 eax, DWORD PTR ___security_cookie
  0000b	33 c5		 xor	 eax, ebp
  0000d	89 45 fc	 mov	 DWORD PTR __$ArrayPad$[ebp], eax
  00010	8b 45 08	 mov	 eax, DWORD PTR _k$[ebp]

; 162  : 		_ENCSTR(k, _k);

  00013	8a 10		 mov	 dl, BYTE PTR [eax]
  00015	56		 push	 esi
  00016	8b 75 0c	 mov	 esi, DWORD PTR _d$[ebp]
  00019	57		 push	 edi
  0001a	8b 7d 10	 mov	 edi, DWORD PTR _b$[ebp]
  0001d	89 4d e4	 mov	 DWORD PTR _this$GSCopy$[ebp], ecx
  00020	84 d2		 test	 dl, dl
  00022	0f 84 64 01 00
	00		 je	 $LN96@LoadString@2
  00028	80 f2 ed	 xor	 dl, -19			; ffffffedH
  0002b	88 55 e8	 mov	 BYTE PTR __k$[ebp], dl
  0002e	8a 50 01	 mov	 dl, BYTE PTR [eax+1]
  00031	84 d2		 test	 dl, dl
  00033	0f 84 4d 01 00
	00		 je	 $LN95@LoadString@2
  00039	80 f2 ec	 xor	 dl, -20			; ffffffecH
  0003c	88 55 e9	 mov	 BYTE PTR __k$[ebp+1], dl
  0003f	8a 50 02	 mov	 dl, BYTE PTR [eax+2]
  00042	84 d2		 test	 dl, dl
  00044	0f 84 36 01 00
	00		 je	 $LN94@LoadString@2
  0004a	b1 eb		 mov	 cl, -21			; ffffffebH
  0004c	32 d1		 xor	 dl, cl
  0004e	88 55 ea	 mov	 BYTE PTR __k$[ebp+2], dl
  00051	8a 50 03	 mov	 dl, BYTE PTR [eax+3]
  00054	84 d2		 test	 dl, dl
  00056	0f 84 1e 01 00
	00		 je	 $LN93@LoadString@2
  0005c	80 f2 ea	 xor	 dl, -22			; ffffffeaH
  0005f	88 55 eb	 mov	 BYTE PTR __k$[ebp+3], dl
  00062	8a 50 04	 mov	 dl, BYTE PTR [eax+4]
  00065	84 d2		 test	 dl, dl
  00067	0f 84 07 01 00
	00		 je	 $LN92@LoadString@2
  0006d	80 f2 ed	 xor	 dl, -19			; ffffffedH
  00070	88 55 ec	 mov	 BYTE PTR __k$[ebp+4], dl
  00073	8a 50 05	 mov	 dl, BYTE PTR [eax+5]
  00076	84 d2		 test	 dl, dl
  00078	0f 84 f0 00 00
	00		 je	 $LN91@LoadString@2
  0007e	80 f2 ec	 xor	 dl, -20			; ffffffecH
  00081	88 55 ed	 mov	 BYTE PTR __k$[ebp+5], dl
  00084	8a 50 06	 mov	 dl, BYTE PTR [eax+6]
  00087	84 d2		 test	 dl, dl
  00089	0f 84 da 00 00
	00		 je	 $LN90@LoadString@2
  0008f	32 d1		 xor	 dl, cl
  00091	88 55 ee	 mov	 BYTE PTR __k$[ebp+6], dl
  00094	8a 50 07	 mov	 dl, BYTE PTR [eax+7]
  00097	84 d2		 test	 dl, dl
  00099	0f 84 c4 00 00
	00		 je	 $LN89@LoadString@2
  0009f	80 f2 ea	 xor	 dl, -22			; ffffffeaH
  000a2	88 55 ef	 mov	 BYTE PTR __k$[ebp+7], dl
  000a5	8a 50 08	 mov	 dl, BYTE PTR [eax+8]
  000a8	84 d2		 test	 dl, dl
  000aa	0f 84 ad 00 00
	00		 je	 $LN88@LoadString@2
  000b0	80 f2 ed	 xor	 dl, -19			; ffffffedH
  000b3	88 55 f0	 mov	 BYTE PTR __k$[ebp+8], dl
  000b6	8a 50 09	 mov	 dl, BYTE PTR [eax+9]
  000b9	84 d2		 test	 dl, dl
  000bb	0f 84 96 00 00
	00		 je	 $LN87@LoadString@2
  000c1	80 f2 ec	 xor	 dl, -20			; ffffffecH
  000c4	88 55 f1	 mov	 BYTE PTR __k$[ebp+9], dl
  000c7	8a 50 0a	 mov	 dl, BYTE PTR [eax+10]
  000ca	84 d2		 test	 dl, dl
  000cc	0f 84 80 00 00
	00		 je	 $LN86@LoadString@2
  000d2	32 d1		 xor	 dl, cl
  000d4	88 55 f2	 mov	 BYTE PTR __k$[ebp+10], dl
  000d7	8a 50 0b	 mov	 dl, BYTE PTR [eax+11]
  000da	84 d2		 test	 dl, dl
  000dc	74 6e		 je	 SHORT $LN85@LoadString@2
  000de	80 f2 ea	 xor	 dl, -22			; ffffffeaH
  000e1	88 55 f3	 mov	 BYTE PTR __k$[ebp+11], dl
  000e4	8a 50 0c	 mov	 dl, BYTE PTR [eax+12]
  000e7	84 d2		 test	 dl, dl
  000e9	74 5b		 je	 SHORT $LN84@LoadString@2
  000eb	80 f2 ed	 xor	 dl, -19			; ffffffedH
  000ee	80 78 0d 00	 cmp	 BYTE PTR [eax+13], 0
  000f2	88 55 f4	 mov	 BYTE PTR __k$[ebp+12], dl
  000f5	0f 84 95 00 00
	00		 je	 $LN111@LoadString@2
  000fb	8a 50 0e	 mov	 dl, BYTE PTR [eax+14]
  000fe	84 d2		 test	 dl, dl
  00100	74 3f		 je	 SHORT $LN82@LoadString@2
  00102	32 d1		 xor	 dl, cl
  00104	88 55 f6	 mov	 BYTE PTR __k$[ebp+14], dl
  00107	8a 50 0f	 mov	 dl, BYTE PTR [eax+15]
  0010a	84 d2		 test	 dl, dl
  0010c	74 2d		 je	 SHORT $LN81@LoadString@2
  0010e	80 f2 ea	 xor	 dl, -22			; ffffffeaH
  00111	88 55 f7	 mov	 BYTE PTR __k$[ebp+15], dl
  00114	8a 50 10	 mov	 dl, BYTE PTR [eax+16]
  00117	84 d2		 test	 dl, dl
  00119	74 1a		 je	 SHORT $LN80@LoadString@2
  0011b	8a 40 11	 mov	 al, BYTE PTR [eax+17]
  0011e	80 f2 ed	 xor	 dl, -19			; ffffffedH
  00121	88 55 f8	 mov	 BYTE PTR __k$[ebp+16], dl
  00124	84 c0		 test	 al, al
  00126	74 07		 je	 SHORT $LN79@LoadString@2
  00128	34 ec		 xor	 al, -20			; ffffffecH
  0012a	88 45 f9	 mov	 BYTE PTR __k$[ebp+17], al
  0012d	eb 61		 jmp	 SHORT $LN111@LoadString@2
$LN79@LoadString@2:
  0012f	c6 45 f9 ec	 mov	 BYTE PTR __k$[ebp+17], -20 ; ffffffecH
  00133	eb 5b		 jmp	 SHORT $LN111@LoadString@2
$LN80@LoadString@2:
  00135	c6 45 f8 ed	 mov	 BYTE PTR __k$[ebp+16], -19 ; ffffffedH
  00139	eb 55		 jmp	 SHORT $LN111@LoadString@2
$LN81@LoadString@2:
  0013b	c6 45 f7 ea	 mov	 BYTE PTR __k$[ebp+15], -22 ; ffffffeaH
  0013f	eb 4f		 jmp	 SHORT $LN111@LoadString@2
$LN82@LoadString@2:
  00141	88 4d f6	 mov	 BYTE PTR __k$[ebp+14], cl
  00144	eb 4a		 jmp	 SHORT $LN111@LoadString@2
$LN84@LoadString@2:
  00146	c6 45 f4 ed	 mov	 BYTE PTR __k$[ebp+12], -19 ; ffffffedH
  0014a	eb 44		 jmp	 SHORT $LN111@LoadString@2
$LN85@LoadString@2:
  0014c	c6 45 f3 ea	 mov	 BYTE PTR __k$[ebp+11], -22 ; ffffffeaH
  00150	eb 3e		 jmp	 SHORT $LN111@LoadString@2
$LN86@LoadString@2:
  00152	88 4d f2	 mov	 BYTE PTR __k$[ebp+10], cl
  00155	eb 39		 jmp	 SHORT $LN111@LoadString@2
$LN87@LoadString@2:
  00157	c6 45 f1 ec	 mov	 BYTE PTR __k$[ebp+9], -20 ; ffffffecH
  0015b	eb 33		 jmp	 SHORT $LN111@LoadString@2
$LN88@LoadString@2:
  0015d	c6 45 f0 ed	 mov	 BYTE PTR __k$[ebp+8], -19 ; ffffffedH
  00161	eb 2d		 jmp	 SHORT $LN111@LoadString@2
$LN89@LoadString@2:
  00163	c6 45 ef ea	 mov	 BYTE PTR __k$[ebp+7], -22 ; ffffffeaH
  00167	eb 27		 jmp	 SHORT $LN111@LoadString@2
$LN90@LoadString@2:
  00169	88 4d ee	 mov	 BYTE PTR __k$[ebp+6], cl
  0016c	eb 22		 jmp	 SHORT $LN111@LoadString@2
$LN91@LoadString@2:
  0016e	c6 45 ed ec	 mov	 BYTE PTR __k$[ebp+5], -20 ; ffffffecH
  00172	eb 1c		 jmp	 SHORT $LN111@LoadString@2
$LN92@LoadString@2:
  00174	c6 45 ec ed	 mov	 BYTE PTR __k$[ebp+4], -19 ; ffffffedH
  00178	eb 16		 jmp	 SHORT $LN111@LoadString@2
$LN93@LoadString@2:
  0017a	c6 45 eb ea	 mov	 BYTE PTR __k$[ebp+3], -22 ; ffffffeaH
  0017e	eb 10		 jmp	 SHORT $LN111@LoadString@2
$LN94@LoadString@2:
  00180	c6 45 ea eb	 mov	 BYTE PTR __k$[ebp+2], -21 ; ffffffebH
  00184	eb 0a		 jmp	 SHORT $LN111@LoadString@2
$LN95@LoadString@2:
  00186	c6 45 e9 ec	 mov	 BYTE PTR __k$[ebp+1], -20 ; ffffffecH
  0018a	eb 04		 jmp	 SHORT $LN111@LoadString@2
$LN96@LoadString@2:
  0018c	c6 45 e8 ed	 mov	 BYTE PTR __k$[ebp], -19	; ffffffedH
$LN111@LoadString@2:
  00190	6a 03		 push	 3
  00192	8d 45 e8	 lea	 eax, DWORD PTR __k$[ebp]
  00195	c6 45 f5 00	 mov	 BYTE PTR __k$[ebp+13], 0
  00199	5a		 pop	 edx
$LL104@LoadString@2:
  0019a	81 30 ed ec eb
	ea		 xor	 DWORD PTR [eax], -353637139 ; eaebecedH
  001a0	83 c0 04	 add	 eax, 4
  001a3	4a		 dec	 edx
  001a4	75 f4		 jne	 SHORT $LL104@LoadString@2

; 163  : 		LoadString(_k, d, b, i);

  001a6	ff 75 14	 push	 DWORD PTR _i$[ebp]
  001a9	8b 4d e4	 mov	 ecx, DWORD PTR _this$GSCopy$[ebp]
  001ac	80 75 f4 ed	 xor	 BYTE PTR __k$[ebp+12], -19 ; ffffffedH
  001b0	57		 push	 edi
  001b1	56		 push	 esi
  001b2	8d 45 e8	 lea	 eax, DWORD PTR __k$[ebp]
  001b5	50		 push	 eax
  001b6	ff 15 00 00 00
	00		 call	 DWORD PTR __imp_?LoadStringA@ioINILoader@@QAEXPBD0PADH@Z

; 164  : 	}

  001bc	8b 4d fc	 mov	 ecx, DWORD PTR __$ArrayPad$[ebp]
  001bf	5f		 pop	 edi
  001c0	33 cd		 xor	 ecx, ebp
  001c2	5e		 pop	 esi
  001c3	e8 00 00 00 00	 call	 @__security_check_cookie@4
  001c8	c9		 leave
  001c9	c2 10 00	 ret	 16			; 00000010H
??$LoadString_e@$0O@@ioINILoader@@QAEXAAY0O@$$CBDAAY00$$CBDPADH@Z ENDP ; ioINILoader::LoadString_e<14>
_TEXT	ENDS
PUBLIC	__$ArrayPad$
PUBLIC	??$LoadBool_e@$0O@@ioINILoader@@QAE_NAAY0O@$$CBD_N@Z ; ioINILoader::LoadBool_e<14>
EXTRN	__imp_?LoadBool@ioINILoader@@QAE_NPBD_N@Z:PROC
; Function compile flags: /Ogsp
;	COMDAT ??$LoadBool_e@$0O@@ioINILoader@@QAE_NAAY0O@$$CBD_N@Z
_TEXT	SEGMENT
__k$ = -24						; size = 14
__$ArrayPad$ = -4					; size = 4
_k$ = 8							; size = 4
_b$ = 12						; size = 1
??$LoadBool_e@$0O@@ioINILoader@@QAE_NAAY0O@$$CBD_N@Z PROC ; ioINILoader::LoadBool_e<14>, COMDAT
; _this$ = ecx

; 101  : 	{

  00000	55		 push	 ebp
  00001	8b ec		 mov	 ebp, esp
  00003	83 ec 18	 sub	 esp, 24			; 00000018H
  00006	a1 00 00 00 00	 mov	 eax, DWORD PTR ___security_cookie
  0000b	33 c5		 xor	 eax, ebp
  0000d	89 45 fc	 mov	 DWORD PTR __$ArrayPad$[ebp], eax
  00010	8b 45 08	 mov	 eax, DWORD PTR _k$[ebp]

; 102  : 		_ENCSTR(k, _k);

  00013	8a 10		 mov	 dl, BYTE PTR [eax]
  00015	56		 push	 esi
  00016	8b f1		 mov	 esi, ecx
  00018	84 d2		 test	 dl, dl
  0001a	0f 84 64 01 00
	00		 je	 $LN96@LoadBool_e
  00020	80 f2 ed	 xor	 dl, -19			; ffffffedH
  00023	88 55 e8	 mov	 BYTE PTR __k$[ebp], dl
  00026	8a 50 01	 mov	 dl, BYTE PTR [eax+1]
  00029	84 d2		 test	 dl, dl
  0002b	0f 84 4d 01 00
	00		 je	 $LN95@LoadBool_e
  00031	80 f2 ec	 xor	 dl, -20			; ffffffecH
  00034	88 55 e9	 mov	 BYTE PTR __k$[ebp+1], dl
  00037	8a 50 02	 mov	 dl, BYTE PTR [eax+2]
  0003a	84 d2		 test	 dl, dl
  0003c	0f 84 36 01 00
	00		 je	 $LN94@LoadBool_e
  00042	b1 eb		 mov	 cl, -21			; ffffffebH
  00044	32 d1		 xor	 dl, cl
  00046	88 55 ea	 mov	 BYTE PTR __k$[ebp+2], dl
  00049	8a 50 03	 mov	 dl, BYTE PTR [eax+3]
  0004c	84 d2		 test	 dl, dl
  0004e	0f 84 1e 01 00
	00		 je	 $LN93@LoadBool_e
  00054	80 f2 ea	 xor	 dl, -22			; ffffffeaH
  00057	88 55 eb	 mov	 BYTE PTR __k$[ebp+3], dl
  0005a	8a 50 04	 mov	 dl, BYTE PTR [eax+4]
  0005d	84 d2		 test	 dl, dl
  0005f	0f 84 07 01 00
	00		 je	 $LN92@LoadBool_e
  00065	80 f2 ed	 xor	 dl, -19			; ffffffedH
  00068	88 55 ec	 mov	 BYTE PTR __k$[ebp+4], dl
  0006b	8a 50 05	 mov	 dl, BYTE PTR [eax+5]
  0006e	84 d2		 test	 dl, dl
  00070	0f 84 f0 00 00
	00		 je	 $LN91@LoadBool_e
  00076	80 f2 ec	 xor	 dl, -20			; ffffffecH
  00079	88 55 ed	 mov	 BYTE PTR __k$[ebp+5], dl
  0007c	8a 50 06	 mov	 dl, BYTE PTR [eax+6]
  0007f	84 d2		 test	 dl, dl
  00081	0f 84 da 00 00
	00		 je	 $LN90@LoadBool_e
  00087	32 d1		 xor	 dl, cl
  00089	88 55 ee	 mov	 BYTE PTR __k$[ebp+6], dl
  0008c	8a 50 07	 mov	 dl, BYTE PTR [eax+7]
  0008f	84 d2		 test	 dl, dl
  00091	0f 84 c4 00 00
	00		 je	 $LN89@LoadBool_e
  00097	80 f2 ea	 xor	 dl, -22			; ffffffeaH
  0009a	88 55 ef	 mov	 BYTE PTR __k$[ebp+7], dl
  0009d	8a 50 08	 mov	 dl, BYTE PTR [eax+8]
  000a0	84 d2		 test	 dl, dl
  000a2	0f 84 ad 00 00
	00		 je	 $LN88@LoadBool_e
  000a8	80 f2 ed	 xor	 dl, -19			; ffffffedH
  000ab	88 55 f0	 mov	 BYTE PTR __k$[ebp+8], dl
  000ae	8a 50 09	 mov	 dl, BYTE PTR [eax+9]
  000b1	84 d2		 test	 dl, dl
  000b3	0f 84 96 00 00
	00		 je	 $LN87@LoadBool_e
  000b9	80 f2 ec	 xor	 dl, -20			; ffffffecH
  000bc	88 55 f1	 mov	 BYTE PTR __k$[ebp+9], dl
  000bf	8a 50 0a	 mov	 dl, BYTE PTR [eax+10]
  000c2	84 d2		 test	 dl, dl
  000c4	0f 84 80 00 00
	00		 je	 $LN86@LoadBool_e
  000ca	32 d1		 xor	 dl, cl
  000cc	88 55 f2	 mov	 BYTE PTR __k$[ebp+10], dl
  000cf	8a 50 0b	 mov	 dl, BYTE PTR [eax+11]
  000d2	84 d2		 test	 dl, dl
  000d4	74 6e		 je	 SHORT $LN85@LoadBool_e
  000d6	80 f2 ea	 xor	 dl, -22			; ffffffeaH
  000d9	88 55 f3	 mov	 BYTE PTR __k$[ebp+11], dl
  000dc	8a 50 0c	 mov	 dl, BYTE PTR [eax+12]
  000df	84 d2		 test	 dl, dl
  000e1	74 5b		 je	 SHORT $LN84@LoadBool_e
  000e3	80 f2 ed	 xor	 dl, -19			; ffffffedH
  000e6	80 78 0d 00	 cmp	 BYTE PTR [eax+13], 0
  000ea	88 55 f4	 mov	 BYTE PTR __k$[ebp+12], dl
  000ed	0f 84 95 00 00
	00		 je	 $LN1@LoadBool_e
  000f3	8a 50 0e	 mov	 dl, BYTE PTR [eax+14]
  000f6	84 d2		 test	 dl, dl
  000f8	74 3f		 je	 SHORT $LN82@LoadBool_e
  000fa	32 d1		 xor	 dl, cl
  000fc	88 55 f6	 mov	 BYTE PTR __k$[ebp+14], dl
  000ff	8a 50 0f	 mov	 dl, BYTE PTR [eax+15]
  00102	84 d2		 test	 dl, dl
  00104	74 2d		 je	 SHORT $LN81@LoadBool_e
  00106	80 f2 ea	 xor	 dl, -22			; ffffffeaH
  00109	88 55 f7	 mov	 BYTE PTR __k$[ebp+15], dl
  0010c	8a 50 10	 mov	 dl, BYTE PTR [eax+16]
  0010f	84 d2		 test	 dl, dl
  00111	74 1a		 je	 SHORT $LN80@LoadBool_e
  00113	8a 40 11	 mov	 al, BYTE PTR [eax+17]
  00116	80 f2 ed	 xor	 dl, -19			; ffffffedH
  00119	88 55 f8	 mov	 BYTE PTR __k$[ebp+16], dl
  0011c	84 c0		 test	 al, al
  0011e	74 07		 je	 SHORT $LN79@LoadBool_e
  00120	34 ec		 xor	 al, -20			; ffffffecH
  00122	88 45 f9	 mov	 BYTE PTR __k$[ebp+17], al
  00125	eb 61		 jmp	 SHORT $LN1@LoadBool_e
$LN79@LoadBool_e:
  00127	c6 45 f9 ec	 mov	 BYTE PTR __k$[ebp+17], -20 ; ffffffecH
  0012b	eb 5b		 jmp	 SHORT $LN1@LoadBool_e
$LN80@LoadBool_e:
  0012d	c6 45 f8 ed	 mov	 BYTE PTR __k$[ebp+16], -19 ; ffffffedH
  00131	eb 55		 jmp	 SHORT $LN1@LoadBool_e
$LN81@LoadBool_e:
  00133	c6 45 f7 ea	 mov	 BYTE PTR __k$[ebp+15], -22 ; ffffffeaH
  00137	eb 4f		 jmp	 SHORT $LN1@LoadBool_e
$LN82@LoadBool_e:
  00139	88 4d f6	 mov	 BYTE PTR __k$[ebp+14], cl
  0013c	eb 4a		 jmp	 SHORT $LN1@LoadBool_e
$LN84@LoadBool_e:
  0013e	c6 45 f4 ed	 mov	 BYTE PTR __k$[ebp+12], -19 ; ffffffedH
  00142	eb 44		 jmp	 SHORT $LN1@LoadBool_e
$LN85@LoadBool_e:
  00144	c6 45 f3 ea	 mov	 BYTE PTR __k$[ebp+11], -22 ; ffffffeaH
  00148	eb 3e		 jmp	 SHORT $LN1@LoadBool_e
$LN86@LoadBool_e:
  0014a	88 4d f2	 mov	 BYTE PTR __k$[ebp+10], cl
  0014d	eb 39		 jmp	 SHORT $LN1@LoadBool_e
$LN87@LoadBool_e:
  0014f	c6 45 f1 ec	 mov	 BYTE PTR __k$[ebp+9], -20 ; ffffffecH
  00153	eb 33		 jmp	 SHORT $LN1@LoadBool_e
$LN88@LoadBool_e:
  00155	c6 45 f0 ed	 mov	 BYTE PTR __k$[ebp+8], -19 ; ffffffedH
  00159	eb 2d		 jmp	 SHORT $LN1@LoadBool_e
$LN89@LoadBool_e:
  0015b	c6 45 ef ea	 mov	 BYTE PTR __k$[ebp+7], -22 ; ffffffeaH
  0015f	eb 27		 jmp	 SHORT $LN1@LoadBool_e
$LN90@LoadBool_e:
  00161	88 4d ee	 mov	 BYTE PTR __k$[ebp+6], cl
  00164	eb 22		 jmp	 SHORT $LN1@LoadBool_e
$LN91@LoadBool_e:
  00166	c6 45 ed ec	 mov	 BYTE PTR __k$[ebp+5], -20 ; ffffffecH
  0016a	eb 1c		 jmp	 SHORT $LN1@LoadBool_e
$LN92@LoadBool_e:
  0016c	c6 45 ec ed	 mov	 BYTE PTR __k$[ebp+4], -19 ; ffffffedH
  00170	eb 16		 jmp	 SHORT $LN1@LoadBool_e
$LN93@LoadBool_e:
  00172	c6 45 eb ea	 mov	 BYTE PTR __k$[ebp+3], -22 ; ffffffeaH
  00176	eb 10		 jmp	 SHORT $LN1@LoadBool_e
$LN94@LoadBool_e:
  00178	c6 45 ea eb	 mov	 BYTE PTR __k$[ebp+2], -21 ; ffffffebH
  0017c	eb 0a		 jmp	 SHORT $LN1@LoadBool_e
$LN95@LoadBool_e:
  0017e	c6 45 e9 ec	 mov	 BYTE PTR __k$[ebp+1], -20 ; ffffffecH
  00182	eb 04		 jmp	 SHORT $LN1@LoadBool_e
$LN96@LoadBool_e:
  00184	c6 45 e8 ed	 mov	 BYTE PTR __k$[ebp], -19	; ffffffedH
$LN1@LoadBool_e:
  00188	6a 03		 push	 3
  0018a	8d 45 e8	 lea	 eax, DWORD PTR __k$[ebp]
  0018d	c6 45 f5 00	 mov	 BYTE PTR __k$[ebp+13], 0
  00191	5a		 pop	 edx
$LL104@LoadBool_e:
  00192	81 30 ed ec eb
	ea		 xor	 DWORD PTR [eax], -353637139 ; eaebecedH
  00198	83 c0 04	 add	 eax, 4
  0019b	4a		 dec	 edx
  0019c	75 f4		 jne	 SHORT $LL104@LoadBool_e

; 103  : 		return LoadBool(_k, b);

  0019e	ff 75 0c	 push	 DWORD PTR _b$[ebp]
  001a1	80 75 f4 ed	 xor	 BYTE PTR __k$[ebp+12], -19 ; ffffffedH
  001a5	8d 45 e8	 lea	 eax, DWORD PTR __k$[ebp]
  001a8	50		 push	 eax
  001a9	8b ce		 mov	 ecx, esi
  001ab	ff 15 00 00 00
	00		 call	 DWORD PTR __imp_?LoadBool@ioINILoader@@QAE_NPBD_N@Z

; 104  : 	}

  001b1	8b 4d fc	 mov	 ecx, DWORD PTR __$ArrayPad$[ebp]
  001b4	33 cd		 xor	 ecx, ebp
  001b6	5e		 pop	 esi
  001b7	e8 00 00 00 00	 call	 @__security_check_cookie@4
  001bc	c9		 leave
  001bd	c2 08 00	 ret	 8
??$LoadBool_e@$0O@@ioINILoader@@QAE_NAAY0O@$$CBD_N@Z ENDP ; ioINILoader::LoadBool_e<14>
_TEXT	ENDS
PUBLIC	__$ArrayPad$
PUBLIC	??$LoadFloat_e@$0BA@@ioINILoader@@QAEMAAY0BA@$$CBDM@Z ; ioINILoader::LoadFloat_e<16>
EXTRN	__imp_?LoadFloat@ioINILoader@@QAEMPBDM@Z:PROC
; Function compile flags: /Ogsp
;	COMDAT ??$LoadFloat_e@$0BA@@ioINILoader@@QAEMAAY0BA@$$CBDM@Z
_TEXT	SEGMENT
__k$ = -24						; size = 16
__$ArrayPad$ = -4					; size = 4
_k$ = 8							; size = 4
_f$ = 12						; size = 4
??$LoadFloat_e@$0BA@@ioINILoader@@QAEMAAY0BA@$$CBDM@Z PROC ; ioINILoader::LoadFloat_e<16>, COMDAT
; _this$ = ecx

; 135  : 	{

  00000	55		 push	 ebp
  00001	8b ec		 mov	 ebp, esp
  00003	83 ec 18	 sub	 esp, 24			; 00000018H
  00006	a1 00 00 00 00	 mov	 eax, DWORD PTR ___security_cookie
  0000b	33 c5		 xor	 eax, ebp
  0000d	89 45 fc	 mov	 DWORD PTR __$ArrayPad$[ebp], eax
  00010	8b 45 08	 mov	 eax, DWORD PTR _k$[ebp]

; 136  : 		_ENCSTR(k, _k);

  00013	8a 10		 mov	 dl, BYTE PTR [eax]
  00015	56		 push	 esi
  00016	8b f1		 mov	 esi, ecx
  00018	84 d2		 test	 dl, dl
  0001a	0f 84 8c 01 00
	00		 je	 $LN96@LoadFloat_
  00020	80 f2 ed	 xor	 dl, -19			; ffffffedH
  00023	88 55 e8	 mov	 BYTE PTR __k$[ebp], dl
  00026	8a 50 01	 mov	 dl, BYTE PTR [eax+1]
  00029	84 d2		 test	 dl, dl
  0002b	0f 84 75 01 00
	00		 je	 $LN95@LoadFloat_
  00031	80 f2 ec	 xor	 dl, -20			; ffffffecH
  00034	88 55 e9	 mov	 BYTE PTR __k$[ebp+1], dl
  00037	8a 50 02	 mov	 dl, BYTE PTR [eax+2]
  0003a	84 d2		 test	 dl, dl
  0003c	0f 84 5e 01 00
	00		 je	 $LN94@LoadFloat_
  00042	b1 eb		 mov	 cl, -21			; ffffffebH
  00044	32 d1		 xor	 dl, cl
  00046	88 55 ea	 mov	 BYTE PTR __k$[ebp+2], dl
  00049	8a 50 03	 mov	 dl, BYTE PTR [eax+3]
  0004c	84 d2		 test	 dl, dl
  0004e	0f 84 46 01 00
	00		 je	 $LN93@LoadFloat_
  00054	80 f2 ea	 xor	 dl, -22			; ffffffeaH
  00057	88 55 eb	 mov	 BYTE PTR __k$[ebp+3], dl
  0005a	8a 50 04	 mov	 dl, BYTE PTR [eax+4]
  0005d	84 d2		 test	 dl, dl
  0005f	0f 84 2f 01 00
	00		 je	 $LN92@LoadFloat_
  00065	80 f2 ed	 xor	 dl, -19			; ffffffedH
  00068	88 55 ec	 mov	 BYTE PTR __k$[ebp+4], dl
  0006b	8a 50 05	 mov	 dl, BYTE PTR [eax+5]
  0006e	84 d2		 test	 dl, dl
  00070	0f 84 18 01 00
	00		 je	 $LN91@LoadFloat_
  00076	80 f2 ec	 xor	 dl, -20			; ffffffecH
  00079	88 55 ed	 mov	 BYTE PTR __k$[ebp+5], dl
  0007c	8a 50 06	 mov	 dl, BYTE PTR [eax+6]
  0007f	84 d2		 test	 dl, dl
  00081	0f 84 02 01 00
	00		 je	 $LN90@LoadFloat_
  00087	32 d1		 xor	 dl, cl
  00089	88 55 ee	 mov	 BYTE PTR __k$[ebp+6], dl
  0008c	8a 50 07	 mov	 dl, BYTE PTR [eax+7]
  0008f	84 d2		 test	 dl, dl
  00091	0f 84 ec 00 00
	00		 je	 $LN89@LoadFloat_
  00097	80 f2 ea	 xor	 dl, -22			; ffffffeaH
  0009a	88 55 ef	 mov	 BYTE PTR __k$[ebp+7], dl
  0009d	8a 50 08	 mov	 dl, BYTE PTR [eax+8]
  000a0	84 d2		 test	 dl, dl
  000a2	0f 84 d5 00 00
	00		 je	 $LN88@LoadFloat_
  000a8	80 f2 ed	 xor	 dl, -19			; ffffffedH
  000ab	88 55 f0	 mov	 BYTE PTR __k$[ebp+8], dl
  000ae	8a 50 09	 mov	 dl, BYTE PTR [eax+9]
  000b1	84 d2		 test	 dl, dl
  000b3	0f 84 be 00 00
	00		 je	 $LN87@LoadFloat_
  000b9	80 f2 ec	 xor	 dl, -20			; ffffffecH
  000bc	88 55 f1	 mov	 BYTE PTR __k$[ebp+9], dl
  000bf	8a 50 0a	 mov	 dl, BYTE PTR [eax+10]
  000c2	84 d2		 test	 dl, dl
  000c4	0f 84 a8 00 00
	00		 je	 $LN86@LoadFloat_
  000ca	32 d1		 xor	 dl, cl
  000cc	88 55 f2	 mov	 BYTE PTR __k$[ebp+10], dl
  000cf	8a 50 0b	 mov	 dl, BYTE PTR [eax+11]
  000d2	84 d2		 test	 dl, dl
  000d4	0f 84 92 00 00
	00		 je	 $LN85@LoadFloat_
  000da	80 f2 ea	 xor	 dl, -22			; ffffffeaH
  000dd	88 55 f3	 mov	 BYTE PTR __k$[ebp+11], dl
  000e0	8a 50 0c	 mov	 dl, BYTE PTR [eax+12]
  000e3	84 d2		 test	 dl, dl
  000e5	74 7f		 je	 SHORT $LN84@LoadFloat_
  000e7	80 f2 ed	 xor	 dl, -19			; ffffffedH
  000ea	88 55 f4	 mov	 BYTE PTR __k$[ebp+12], dl
  000ed	8a 50 0d	 mov	 dl, BYTE PTR [eax+13]
  000f0	84 d2		 test	 dl, dl
  000f2	74 6c		 je	 SHORT $LN83@LoadFloat_
  000f4	80 f2 ec	 xor	 dl, -20			; ffffffecH
  000f7	88 55 f5	 mov	 BYTE PTR __k$[ebp+13], dl
  000fa	8a 50 0e	 mov	 dl, BYTE PTR [eax+14]
  000fd	84 d2		 test	 dl, dl
  000ff	74 5a		 je	 SHORT $LN82@LoadFloat_
  00101	32 d1		 xor	 dl, cl
  00103	80 78 0f 00	 cmp	 BYTE PTR [eax+15], 0
  00107	88 55 f6	 mov	 BYTE PTR __k$[ebp+14], dl
  0010a	0f 84 a0 00 00
	00		 je	 $LN1@LoadFloat_
  00110	8a 50 10	 mov	 dl, BYTE PTR [eax+16]
  00113	84 d2		 test	 dl, dl
  00115	74 3e		 je	 SHORT $LN80@LoadFloat_
  00117	80 f2 ed	 xor	 dl, -19			; ffffffedH
  0011a	88 55 f8	 mov	 BYTE PTR __k$[ebp+16], dl
  0011d	8a 50 11	 mov	 dl, BYTE PTR [eax+17]
  00120	84 d2		 test	 dl, dl
  00122	74 2b		 je	 SHORT $LN79@LoadFloat_
  00124	80 f2 ec	 xor	 dl, -20			; ffffffecH
  00127	88 55 f9	 mov	 BYTE PTR __k$[ebp+17], dl
  0012a	8a 50 12	 mov	 dl, BYTE PTR [eax+18]
  0012d	84 d2		 test	 dl, dl
  0012f	74 19		 je	 SHORT $LN78@LoadFloat_
  00131	8a 40 13	 mov	 al, BYTE PTR [eax+19]
  00134	32 d1		 xor	 dl, cl
  00136	88 55 fa	 mov	 BYTE PTR __k$[ebp+18], dl
  00139	84 c0		 test	 al, al
  0013b	74 07		 je	 SHORT $LN77@LoadFloat_
  0013d	34 ea		 xor	 al, -22			; ffffffeaH
  0013f	88 45 fb	 mov	 BYTE PTR __k$[ebp+19], al
  00142	eb 6c		 jmp	 SHORT $LN1@LoadFloat_
$LN77@LoadFloat_:
  00144	c6 45 fb ea	 mov	 BYTE PTR __k$[ebp+19], -22 ; ffffffeaH
  00148	eb 66		 jmp	 SHORT $LN1@LoadFloat_
$LN78@LoadFloat_:
  0014a	88 4d fa	 mov	 BYTE PTR __k$[ebp+18], cl
  0014d	eb 61		 jmp	 SHORT $LN1@LoadFloat_
$LN79@LoadFloat_:
  0014f	c6 45 f9 ec	 mov	 BYTE PTR __k$[ebp+17], -20 ; ffffffecH
  00153	eb 5b		 jmp	 SHORT $LN1@LoadFloat_
$LN80@LoadFloat_:
  00155	c6 45 f8 ed	 mov	 BYTE PTR __k$[ebp+16], -19 ; ffffffedH
  00159	eb 55		 jmp	 SHORT $LN1@LoadFloat_
$LN82@LoadFloat_:
  0015b	88 4d f6	 mov	 BYTE PTR __k$[ebp+14], cl
  0015e	eb 50		 jmp	 SHORT $LN1@LoadFloat_
$LN83@LoadFloat_:
  00160	c6 45 f5 ec	 mov	 BYTE PTR __k$[ebp+13], -20 ; ffffffecH
  00164	eb 4a		 jmp	 SHORT $LN1@LoadFloat_
$LN84@LoadFloat_:
  00166	c6 45 f4 ed	 mov	 BYTE PTR __k$[ebp+12], -19 ; ffffffedH
  0016a	eb 44		 jmp	 SHORT $LN1@LoadFloat_
$LN85@LoadFloat_:
  0016c	c6 45 f3 ea	 mov	 BYTE PTR __k$[ebp+11], -22 ; ffffffeaH
  00170	eb 3e		 jmp	 SHORT $LN1@LoadFloat_
$LN86@LoadFloat_:
  00172	88 4d f2	 mov	 BYTE PTR __k$[ebp+10], cl
  00175	eb 39		 jmp	 SHORT $LN1@LoadFloat_
$LN87@LoadFloat_:
  00177	c6 45 f1 ec	 mov	 BYTE PTR __k$[ebp+9], -20 ; ffffffecH
  0017b	eb 33		 jmp	 SHORT $LN1@LoadFloat_
$LN88@LoadFloat_:
  0017d	c6 45 f0 ed	 mov	 BYTE PTR __k$[ebp+8], -19 ; ffffffedH
  00181	eb 2d		 jmp	 SHORT $LN1@LoadFloat_
$LN89@LoadFloat_:
  00183	c6 45 ef ea	 mov	 BYTE PTR __k$[ebp+7], -22 ; ffffffeaH
  00187	eb 27		 jmp	 SHORT $LN1@LoadFloat_
$LN90@LoadFloat_:
  00189	88 4d ee	 mov	 BYTE PTR __k$[ebp+6], cl
  0018c	eb 22		 jmp	 SHORT $LN1@LoadFloat_
$LN91@LoadFloat_:
  0018e	c6 45 ed ec	 mov	 BYTE PTR __k$[ebp+5], -20 ; ffffffecH
  00192	eb 1c		 jmp	 SHORT $LN1@LoadFloat_
$LN92@LoadFloat_:
  00194	c6 45 ec ed	 mov	 BYTE PTR __k$[ebp+4], -19 ; ffffffedH
  00198	eb 16		 jmp	 SHORT $LN1@LoadFloat_
$LN93@LoadFloat_:
  0019a	c6 45 eb ea	 mov	 BYTE PTR __k$[ebp+3], -22 ; ffffffeaH
  0019e	eb 10		 jmp	 SHORT $LN1@LoadFloat_
$LN94@LoadFloat_:
  001a0	c6 45 ea eb	 mov	 BYTE PTR __k$[ebp+2], -21 ; ffffffebH
  001a4	eb 0a		 jmp	 SHORT $LN1@LoadFloat_
$LN95@LoadFloat_:
  001a6	c6 45 e9 ec	 mov	 BYTE PTR __k$[ebp+1], -20 ; ffffffecH
  001aa	eb 04		 jmp	 SHORT $LN1@LoadFloat_
$LN96@LoadFloat_:
  001ac	c6 45 e8 ed	 mov	 BYTE PTR __k$[ebp], -19	; ffffffedH
$LN1@LoadFloat_:
  001b0	6a 03		 push	 3
  001b2	8d 45 e8	 lea	 eax, DWORD PTR __k$[ebp]
  001b5	c6 45 f7 00	 mov	 BYTE PTR __k$[ebp+15], 0
  001b9	5a		 pop	 edx
$LL104@LoadFloat_:
  001ba	81 30 ed ec eb
	ea		 xor	 DWORD PTR [eax], -353637139 ; eaebecedH
  001c0	83 c0 04	 add	 eax, 4
  001c3	4a		 dec	 edx
  001c4	75 f4		 jne	 SHORT $LL104@LoadFloat_
  001c6	6a 0c		 push	 12			; 0000000cH
  001c8	58		 pop	 eax
$LL101@LoadFloat_:
  001c9	8b c8		 mov	 ecx, eax
  001cb	81 e1 03 00 00
	80		 and	 ecx, -2147483645	; 80000003H
  001d1	79 05		 jns	 SHORT $LN111@LoadFloat_
  001d3	49		 dec	 ecx
  001d4	83 c9 fc	 or	 ecx, -4			; fffffffcH
  001d7	41		 inc	 ecx
$LN111@LoadFloat_:
  001d8	b2 ed		 mov	 dl, -19			; ffffffedH
  001da	2a d1		 sub	 dl, cl
  001dc	30 54 05 e8	 xor	 BYTE PTR __k$[ebp+eax], dl
  001e0	40		 inc	 eax
  001e1	83 f8 0f	 cmp	 eax, 15			; 0000000fH
  001e4	7c e3		 jl	 SHORT $LL101@LoadFloat_

; 137  : 		return LoadFloat(_k, f);

  001e6	f3 0f 10 45 0c	 movss	 xmm0, DWORD PTR _f$[ebp]
  001eb	51		 push	 ecx
  001ec	8d 45 e8	 lea	 eax, DWORD PTR __k$[ebp]
  001ef	f3 0f 11 04 24	 movss	 DWORD PTR [esp], xmm0
  001f4	50		 push	 eax
  001f5	8b ce		 mov	 ecx, esi
  001f7	ff 15 00 00 00
	00		 call	 DWORD PTR __imp_?LoadFloat@ioINILoader@@QAEMPBDM@Z

; 138  : 	}

  001fd	8b 4d fc	 mov	 ecx, DWORD PTR __$ArrayPad$[ebp]
  00200	33 cd		 xor	 ecx, ebp
  00202	5e		 pop	 esi
  00203	e8 00 00 00 00	 call	 @__security_check_cookie@4
  00208	c9		 leave
  00209	c2 08 00	 ret	 8
??$LoadFloat_e@$0BA@@ioINILoader@@QAEMAAY0BA@$$CBDM@Z ENDP ; ioINILoader::LoadFloat_e<16>
_TEXT	ENDS
PUBLIC	__$ArrayPad$
PUBLIC	??$LoadInt_e@$0BJ@@ioINILoader@@QAEHAAY0BJ@$$CBDH@Z ; ioINILoader::LoadInt_e<25>
EXTRN	__imp_?LoadInt@ioINILoader@@QAEHPBDH@Z:PROC
; Function compile flags: /Ogsp
;	COMDAT ??$LoadInt_e@$0BJ@@ioINILoader@@QAEHAAY0BJ@$$CBDH@Z
_TEXT	SEGMENT
__k$ = -36						; size = 25
__$ArrayPad$ = -4					; size = 4
_k$ = 8							; size = 4
_i$ = 12						; size = 4
??$LoadInt_e@$0BJ@@ioINILoader@@QAEHAAY0BJ@$$CBDH@Z PROC ; ioINILoader::LoadInt_e<25>, COMDAT
; _this$ = ecx

; 118  : 	{

  00000	55		 push	 ebp
  00001	8b ec		 mov	 ebp, esp
  00003	83 ec 24	 sub	 esp, 36			; 00000024H
  00006	a1 00 00 00 00	 mov	 eax, DWORD PTR ___security_cookie
  0000b	33 c5		 xor	 eax, ebp
  0000d	89 45 fc	 mov	 DWORD PTR __$ArrayPad$[ebp], eax
  00010	8b 45 08	 mov	 eax, DWORD PTR _k$[ebp]

; 119  : 		_ENCSTR(k, _k);

  00013	8a 10		 mov	 dl, BYTE PTR [eax]
  00015	53		 push	 ebx
  00016	56		 push	 esi
  00017	8b f1		 mov	 esi, ecx
  00019	84 d2		 test	 dl, dl
  0001b	0f 84 5f 02 00
	00		 je	 $LN96@LoadInt_e
  00021	80 f2 ed	 xor	 dl, -19			; ffffffedH
  00024	88 55 dc	 mov	 BYTE PTR __k$[ebp], dl
  00027	8a 50 01	 mov	 dl, BYTE PTR [eax+1]
  0002a	84 d2		 test	 dl, dl
  0002c	0f 84 48 02 00
	00		 je	 $LN95@LoadInt_e
  00032	b1 ec		 mov	 cl, -20			; ffffffecH
  00034	32 d1		 xor	 dl, cl
  00036	88 55 dd	 mov	 BYTE PTR __k$[ebp+1], dl
  00039	8a 50 02	 mov	 dl, BYTE PTR [eax+2]
  0003c	84 d2		 test	 dl, dl
  0003e	0f 84 30 02 00
	00		 je	 $LN94@LoadInt_e
  00044	b3 eb		 mov	 bl, -21			; ffffffebH
  00046	32 d3		 xor	 dl, bl
  00048	88 55 de	 mov	 BYTE PTR __k$[ebp+2], dl
  0004b	8a 50 03	 mov	 dl, BYTE PTR [eax+3]
  0004e	84 d2		 test	 dl, dl
  00050	0f 84 18 02 00
	00		 je	 $LN93@LoadInt_e
  00056	80 f2 ea	 xor	 dl, -22			; ffffffeaH
  00059	88 55 df	 mov	 BYTE PTR __k$[ebp+3], dl
  0005c	8a 50 04	 mov	 dl, BYTE PTR [eax+4]
  0005f	84 d2		 test	 dl, dl
  00061	0f 84 01 02 00
	00		 je	 $LN92@LoadInt_e
  00067	80 f2 ed	 xor	 dl, -19			; ffffffedH
  0006a	88 55 e0	 mov	 BYTE PTR __k$[ebp+4], dl
  0006d	8a 50 05	 mov	 dl, BYTE PTR [eax+5]
  00070	84 d2		 test	 dl, dl
  00072	0f 84 eb 01 00
	00		 je	 $LN91@LoadInt_e
  00078	32 d1		 xor	 dl, cl
  0007a	88 55 e1	 mov	 BYTE PTR __k$[ebp+5], dl
  0007d	8a 50 06	 mov	 dl, BYTE PTR [eax+6]
  00080	84 d2		 test	 dl, dl
  00082	0f 84 d6 01 00
	00		 je	 $LN90@LoadInt_e
  00088	32 d3		 xor	 dl, bl
  0008a	88 55 e2	 mov	 BYTE PTR __k$[ebp+6], dl
  0008d	8a 50 07	 mov	 dl, BYTE PTR [eax+7]
  00090	84 d2		 test	 dl, dl
  00092	0f 84 c0 01 00
	00		 je	 $LN89@LoadInt_e
  00098	80 f2 ea	 xor	 dl, -22			; ffffffeaH
  0009b	88 55 e3	 mov	 BYTE PTR __k$[ebp+7], dl
  0009e	8a 50 08	 mov	 dl, BYTE PTR [eax+8]
  000a1	84 d2		 test	 dl, dl
  000a3	0f 84 a9 01 00
	00		 je	 $LN88@LoadInt_e
  000a9	80 f2 ed	 xor	 dl, -19			; ffffffedH
  000ac	88 55 e4	 mov	 BYTE PTR __k$[ebp+8], dl
  000af	8a 50 09	 mov	 dl, BYTE PTR [eax+9]
  000b2	84 d2		 test	 dl, dl
  000b4	0f 84 93 01 00
	00		 je	 $LN87@LoadInt_e
  000ba	32 d1		 xor	 dl, cl
  000bc	88 55 e5	 mov	 BYTE PTR __k$[ebp+9], dl
  000bf	8a 50 0a	 mov	 dl, BYTE PTR [eax+10]
  000c2	84 d2		 test	 dl, dl
  000c4	0f 84 7e 01 00
	00		 je	 $LN86@LoadInt_e
  000ca	32 d3		 xor	 dl, bl
  000cc	88 55 e6	 mov	 BYTE PTR __k$[ebp+10], dl
  000cf	8a 50 0b	 mov	 dl, BYTE PTR [eax+11]
  000d2	84 d2		 test	 dl, dl
  000d4	0f 84 68 01 00
	00		 je	 $LN85@LoadInt_e
  000da	80 f2 ea	 xor	 dl, -22			; ffffffeaH
  000dd	88 55 e7	 mov	 BYTE PTR __k$[ebp+11], dl
  000e0	8a 50 0c	 mov	 dl, BYTE PTR [eax+12]
  000e3	84 d2		 test	 dl, dl
  000e5	0f 84 51 01 00
	00		 je	 $LN84@LoadInt_e
  000eb	80 f2 ed	 xor	 dl, -19			; ffffffedH
  000ee	88 55 e8	 mov	 BYTE PTR __k$[ebp+12], dl
  000f1	8a 50 0d	 mov	 dl, BYTE PTR [eax+13]
  000f4	84 d2		 test	 dl, dl
  000f6	0f 84 3b 01 00
	00		 je	 $LN83@LoadInt_e
  000fc	32 d1		 xor	 dl, cl
  000fe	88 55 e9	 mov	 BYTE PTR __k$[ebp+13], dl
  00101	8a 50 0e	 mov	 dl, BYTE PTR [eax+14]
  00104	84 d2		 test	 dl, dl
  00106	0f 84 26 01 00
	00		 je	 $LN82@LoadInt_e
  0010c	32 d3		 xor	 dl, bl
  0010e	88 55 ea	 mov	 BYTE PTR __k$[ebp+14], dl
  00111	8a 50 0f	 mov	 dl, BYTE PTR [eax+15]
  00114	84 d2		 test	 dl, dl
  00116	0f 84 10 01 00
	00		 je	 $LN81@LoadInt_e
  0011c	80 f2 ea	 xor	 dl, -22			; ffffffeaH
  0011f	88 55 eb	 mov	 BYTE PTR __k$[ebp+15], dl
  00122	8a 50 10	 mov	 dl, BYTE PTR [eax+16]
  00125	84 d2		 test	 dl, dl
  00127	0f 84 f9 00 00
	00		 je	 $LN80@LoadInt_e
  0012d	80 f2 ed	 xor	 dl, -19			; ffffffedH
  00130	88 55 ec	 mov	 BYTE PTR __k$[ebp+16], dl
  00133	8a 50 11	 mov	 dl, BYTE PTR [eax+17]
  00136	84 d2		 test	 dl, dl
  00138	0f 84 e3 00 00
	00		 je	 $LN79@LoadInt_e
  0013e	32 d1		 xor	 dl, cl
  00140	88 55 ed	 mov	 BYTE PTR __k$[ebp+17], dl
  00143	8a 50 12	 mov	 dl, BYTE PTR [eax+18]
  00146	84 d2		 test	 dl, dl
  00148	0f 84 ce 00 00
	00		 je	 $LN78@LoadInt_e
  0014e	32 d3		 xor	 dl, bl
  00150	88 55 ee	 mov	 BYTE PTR __k$[ebp+18], dl
  00153	8a 50 13	 mov	 dl, BYTE PTR [eax+19]
  00156	84 d2		 test	 dl, dl
  00158	0f 84 b8 00 00
	00		 je	 $LN77@LoadInt_e
  0015e	80 f2 ea	 xor	 dl, -22			; ffffffeaH
  00161	88 55 ef	 mov	 BYTE PTR __k$[ebp+19], dl
  00164	8a 50 14	 mov	 dl, BYTE PTR [eax+20]
  00167	84 d2		 test	 dl, dl
  00169	0f 84 a1 00 00
	00		 je	 $LN76@LoadInt_e
  0016f	80 f2 ed	 xor	 dl, -19			; ffffffedH
  00172	88 55 f0	 mov	 BYTE PTR __k$[ebp+20], dl
  00175	8a 50 15	 mov	 dl, BYTE PTR [eax+21]
  00178	84 d2		 test	 dl, dl
  0017a	0f 84 8b 00 00
	00		 je	 $LN75@LoadInt_e
  00180	32 d1		 xor	 dl, cl
  00182	88 55 f1	 mov	 BYTE PTR __k$[ebp+21], dl
  00185	8a 50 16	 mov	 dl, BYTE PTR [eax+22]
  00188	84 d2		 test	 dl, dl
  0018a	74 7a		 je	 SHORT $LN74@LoadInt_e
  0018c	32 d3		 xor	 dl, bl
  0018e	88 55 f2	 mov	 BYTE PTR __k$[ebp+22], dl
  00191	8a 50 17	 mov	 dl, BYTE PTR [eax+23]
  00194	84 d2		 test	 dl, dl
  00196	74 68		 je	 SHORT $LN73@LoadInt_e
  00198	80 f2 ea	 xor	 dl, -22			; ffffffeaH
  0019b	80 78 18 00	 cmp	 BYTE PTR [eax+24], 0
  0019f	88 55 f3	 mov	 BYTE PTR __k$[ebp+23], dl
  001a2	0f 84 dc 00 00
	00		 je	 $LN1@LoadInt_e
  001a8	8a 50 19	 mov	 dl, BYTE PTR [eax+25]
  001ab	84 d2		 test	 dl, dl
  001ad	74 49		 je	 SHORT $LN71@LoadInt_e
  001af	32 d1		 xor	 dl, cl
  001b1	88 55 f5	 mov	 BYTE PTR __k$[ebp+25], dl
  001b4	8a 50 1a	 mov	 dl, BYTE PTR [eax+26]
  001b7	84 d2		 test	 dl, dl
  001b9	74 35		 je	 SHORT $LN70@LoadInt_e
  001bb	32 d3		 xor	 dl, bl
  001bd	88 55 f6	 mov	 BYTE PTR __k$[ebp+26], dl
  001c0	8a 50 1b	 mov	 dl, BYTE PTR [eax+27]
  001c3	84 d2		 test	 dl, dl
  001c5	74 20		 je	 SHORT $LN69@LoadInt_e
  001c7	8a 40 1c	 mov	 al, BYTE PTR [eax+28]
  001ca	80 f2 ea	 xor	 dl, -22			; ffffffeaH
  001cd	88 55 f7	 mov	 BYTE PTR __k$[ebp+27], dl
  001d0	84 c0		 test	 al, al
  001d2	74 0a		 je	 SHORT $LN68@LoadInt_e
  001d4	34 ed		 xor	 al, -19			; ffffffedH
  001d6	88 45 f8	 mov	 BYTE PTR __k$[ebp+28], al
  001d9	e9 a6 00 00 00	 jmp	 $LN1@LoadInt_e
$LN68@LoadInt_e:
  001de	c6 45 f8 ed	 mov	 BYTE PTR __k$[ebp+28], -19 ; ffffffedH
  001e2	e9 9d 00 00 00	 jmp	 $LN1@LoadInt_e
$LN69@LoadInt_e:
  001e7	c6 45 f7 ea	 mov	 BYTE PTR __k$[ebp+27], -22 ; ffffffeaH
  001eb	e9 94 00 00 00	 jmp	 $LN1@LoadInt_e
$LN70@LoadInt_e:
  001f0	88 5d f6	 mov	 BYTE PTR __k$[ebp+26], bl
  001f3	e9 8c 00 00 00	 jmp	 $LN1@LoadInt_e
$LN71@LoadInt_e:
  001f8	88 4d f5	 mov	 BYTE PTR __k$[ebp+25], cl
  001fb	e9 84 00 00 00	 jmp	 $LN1@LoadInt_e
$LN73@LoadInt_e:
  00200	c6 45 f3 ea	 mov	 BYTE PTR __k$[ebp+23], -22 ; ffffffeaH
  00204	eb 7e		 jmp	 SHORT $LN1@LoadInt_e
$LN74@LoadInt_e:
  00206	88 5d f2	 mov	 BYTE PTR __k$[ebp+22], bl
  00209	eb 79		 jmp	 SHORT $LN1@LoadInt_e
$LN75@LoadInt_e:
  0020b	88 4d f1	 mov	 BYTE PTR __k$[ebp+21], cl
  0020e	eb 74		 jmp	 SHORT $LN1@LoadInt_e
$LN76@LoadInt_e:
  00210	c6 45 f0 ed	 mov	 BYTE PTR __k$[ebp+20], -19 ; ffffffedH
  00214	eb 6e		 jmp	 SHORT $LN1@LoadInt_e
$LN77@LoadInt_e:
  00216	c6 45 ef ea	 mov	 BYTE PTR __k$[ebp+19], -22 ; ffffffeaH
  0021a	eb 68		 jmp	 SHORT $LN1@LoadInt_e
$LN78@LoadInt_e:
  0021c	88 5d ee	 mov	 BYTE PTR __k$[ebp+18], bl
  0021f	eb 63		 jmp	 SHORT $LN1@LoadInt_e
$LN79@LoadInt_e:
  00221	88 4d ed	 mov	 BYTE PTR __k$[ebp+17], cl
  00224	eb 5e		 jmp	 SHORT $LN1@LoadInt_e
$LN80@LoadInt_e:
  00226	c6 45 ec ed	 mov	 BYTE PTR __k$[ebp+16], -19 ; ffffffedH
  0022a	eb 58		 jmp	 SHORT $LN1@LoadInt_e
$LN81@LoadInt_e:
  0022c	c6 45 eb ea	 mov	 BYTE PTR __k$[ebp+15], -22 ; ffffffeaH
  00230	eb 52		 jmp	 SHORT $LN1@LoadInt_e
$LN82@LoadInt_e:
  00232	88 5d ea	 mov	 BYTE PTR __k$[ebp+14], bl
  00235	eb 4d		 jmp	 SHORT $LN1@LoadInt_e
$LN83@LoadInt_e:
  00237	88 4d e9	 mov	 BYTE PTR __k$[ebp+13], cl
  0023a	eb 48		 jmp	 SHORT $LN1@LoadInt_e
$LN84@LoadInt_e:
  0023c	c6 45 e8 ed	 mov	 BYTE PTR __k$[ebp+12], -19 ; ffffffedH
  00240	eb 42		 jmp	 SHORT $LN1@LoadInt_e
$LN85@LoadInt_e:
  00242	c6 45 e7 ea	 mov	 BYTE PTR __k$[ebp+11], -22 ; ffffffeaH
  00246	eb 3c		 jmp	 SHORT $LN1@LoadInt_e
$LN86@LoadInt_e:
  00248	88 5d e6	 mov	 BYTE PTR __k$[ebp+10], bl
  0024b	eb 37		 jmp	 SHORT $LN1@LoadInt_e
$LN87@LoadInt_e:
  0024d	88 4d e5	 mov	 BYTE PTR __k$[ebp+9], cl
  00250	eb 32		 jmp	 SHORT $LN1@LoadInt_e
$LN88@LoadInt_e:
  00252	c6 45 e4 ed	 mov	 BYTE PTR __k$[ebp+8], -19 ; ffffffedH
  00256	eb 2c		 jmp	 SHORT $LN1@LoadInt_e
$LN89@LoadInt_e:
  00258	c6 45 e3 ea	 mov	 BYTE PTR __k$[ebp+7], -22 ; ffffffeaH
  0025c	eb 26		 jmp	 SHORT $LN1@LoadInt_e
$LN90@LoadInt_e:
  0025e	88 5d e2	 mov	 BYTE PTR __k$[ebp+6], bl
  00261	eb 21		 jmp	 SHORT $LN1@LoadInt_e
$LN91@LoadInt_e:
  00263	88 4d e1	 mov	 BYTE PTR __k$[ebp+5], cl
  00266	eb 1c		 jmp	 SHORT $LN1@LoadInt_e
$LN92@LoadInt_e:
  00268	c6 45 e0 ed	 mov	 BYTE PTR __k$[ebp+4], -19 ; ffffffedH
  0026c	eb 16		 jmp	 SHORT $LN1@LoadInt_e
$LN93@LoadInt_e:
  0026e	c6 45 df ea	 mov	 BYTE PTR __k$[ebp+3], -22 ; ffffffeaH
  00272	eb 10		 jmp	 SHORT $LN1@LoadInt_e
$LN94@LoadInt_e:
  00274	c6 45 de eb	 mov	 BYTE PTR __k$[ebp+2], -21 ; ffffffebH
  00278	eb 0a		 jmp	 SHORT $LN1@LoadInt_e
$LN95@LoadInt_e:
  0027a	c6 45 dd ec	 mov	 BYTE PTR __k$[ebp+1], -20 ; ffffffecH
  0027e	eb 04		 jmp	 SHORT $LN1@LoadInt_e
$LN96@LoadInt_e:
  00280	c6 45 dc ed	 mov	 BYTE PTR __k$[ebp], -19	; ffffffedH
$LN1@LoadInt_e:
  00284	6a 06		 push	 6
  00286	8d 45 dc	 lea	 eax, DWORD PTR __k$[ebp]
  00289	c6 45 f4 00	 mov	 BYTE PTR __k$[ebp+24], 0
  0028d	5a		 pop	 edx
$LL104@LoadInt_e:
  0028e	81 30 ed ec eb
	ea		 xor	 DWORD PTR [eax], -353637139 ; eaebecedH
  00294	83 c0 04	 add	 eax, 4
  00297	4a		 dec	 edx
  00298	75 f4		 jne	 SHORT $LL104@LoadInt_e

; 120  : 		return LoadInt(_k, i);

  0029a	ff 75 0c	 push	 DWORD PTR _i$[ebp]
  0029d	8d 45 dc	 lea	 eax, DWORD PTR __k$[ebp]
  002a0	50		 push	 eax
  002a1	8b ce		 mov	 ecx, esi
  002a3	ff 15 00 00 00
	00		 call	 DWORD PTR __imp_?LoadInt@ioINILoader@@QAEHPBDH@Z

; 121  : 	}

  002a9	8b 4d fc	 mov	 ecx, DWORD PTR __$ArrayPad$[ebp]
  002ac	5e		 pop	 esi
  002ad	33 cd		 xor	 ecx, ebp
  002af	5b		 pop	 ebx
  002b0	e8 00 00 00 00	 call	 @__security_check_cookie@4
  002b5	c9		 leave
  002b6	c2 08 00	 ret	 8
??$LoadInt_e@$0BJ@@ioINILoader@@QAEHAAY0BJ@$$CBDH@Z ENDP ; ioINILoader::LoadInt_e<25>
_TEXT	ENDS
PUBLIC	__$ArrayPad$
PUBLIC	??$LoadInt_e@$0BI@@ioINILoader@@QAEHAAY0BI@$$CBDH@Z ; ioINILoader::LoadInt_e<24>
; Function compile flags: /Ogsp
;	COMDAT ??$LoadInt_e@$0BI@@ioINILoader@@QAEHAAY0BI@$$CBDH@Z
_TEXT	SEGMENT
__k$ = -32						; size = 24
__$ArrayPad$ = -4					; size = 4
_k$ = 8							; size = 4
_i$ = 12						; size = 4
??$LoadInt_e@$0BI@@ioINILoader@@QAEHAAY0BI@$$CBDH@Z PROC ; ioINILoader::LoadInt_e<24>, COMDAT
; _this$ = ecx

; 118  : 	{

  00000	55		 push	 ebp
  00001	8b ec		 mov	 ebp, esp
  00003	83 ec 20	 sub	 esp, 32			; 00000020H
  00006	a1 00 00 00 00	 mov	 eax, DWORD PTR ___security_cookie
  0000b	33 c5		 xor	 eax, ebp
  0000d	89 45 fc	 mov	 DWORD PTR __$ArrayPad$[ebp], eax
  00010	8b 45 08	 mov	 eax, DWORD PTR _k$[ebp]

; 119  : 		_ENCSTR(k, _k);

  00013	8a 10		 mov	 dl, BYTE PTR [eax]
  00015	53		 push	 ebx
  00016	56		 push	 esi
  00017	8b f1		 mov	 esi, ecx
  00019	84 d2		 test	 dl, dl
  0001b	0f 84 45 02 00
	00		 je	 $LN96@LoadInt_e@2
  00021	80 f2 ed	 xor	 dl, -19			; ffffffedH
  00024	88 55 e0	 mov	 BYTE PTR __k$[ebp], dl
  00027	8a 50 01	 mov	 dl, BYTE PTR [eax+1]
  0002a	84 d2		 test	 dl, dl
  0002c	0f 84 2e 02 00
	00		 je	 $LN95@LoadInt_e@2
  00032	b3 ec		 mov	 bl, -20			; ffffffecH
  00034	32 d3		 xor	 dl, bl
  00036	88 55 e1	 mov	 BYTE PTR __k$[ebp+1], dl
  00039	8a 50 02	 mov	 dl, BYTE PTR [eax+2]
  0003c	84 d2		 test	 dl, dl
  0003e	0f 84 16 02 00
	00		 je	 $LN94@LoadInt_e@2
  00044	b1 eb		 mov	 cl, -21			; ffffffebH
  00046	32 d1		 xor	 dl, cl
  00048	88 55 e2	 mov	 BYTE PTR __k$[ebp+2], dl
  0004b	8a 50 03	 mov	 dl, BYTE PTR [eax+3]
  0004e	84 d2		 test	 dl, dl
  00050	0f 84 fe 01 00
	00		 je	 $LN93@LoadInt_e@2
  00056	80 f2 ea	 xor	 dl, -22			; ffffffeaH
  00059	88 55 e3	 mov	 BYTE PTR __k$[ebp+3], dl
  0005c	8a 50 04	 mov	 dl, BYTE PTR [eax+4]
  0005f	84 d2		 test	 dl, dl
  00061	0f 84 e7 01 00
	00		 je	 $LN92@LoadInt_e@2
  00067	80 f2 ed	 xor	 dl, -19			; ffffffedH
  0006a	88 55 e4	 mov	 BYTE PTR __k$[ebp+4], dl
  0006d	8a 50 05	 mov	 dl, BYTE PTR [eax+5]
  00070	84 d2		 test	 dl, dl
  00072	0f 84 d1 01 00
	00		 je	 $LN91@LoadInt_e@2
  00078	32 d3		 xor	 dl, bl
  0007a	88 55 e5	 mov	 BYTE PTR __k$[ebp+5], dl
  0007d	8a 50 06	 mov	 dl, BYTE PTR [eax+6]
  00080	84 d2		 test	 dl, dl
  00082	0f 84 bc 01 00
	00		 je	 $LN90@LoadInt_e@2
  00088	32 d1		 xor	 dl, cl
  0008a	88 55 e6	 mov	 BYTE PTR __k$[ebp+6], dl
  0008d	8a 50 07	 mov	 dl, BYTE PTR [eax+7]
  00090	84 d2		 test	 dl, dl
  00092	0f 84 a6 01 00
	00		 je	 $LN89@LoadInt_e@2
  00098	80 f2 ea	 xor	 dl, -22			; ffffffeaH
  0009b	88 55 e7	 mov	 BYTE PTR __k$[ebp+7], dl
  0009e	8a 50 08	 mov	 dl, BYTE PTR [eax+8]
  000a1	84 d2		 test	 dl, dl
  000a3	0f 84 8f 01 00
	00		 je	 $LN88@LoadInt_e@2
  000a9	80 f2 ed	 xor	 dl, -19			; ffffffedH
  000ac	88 55 e8	 mov	 BYTE PTR __k$[ebp+8], dl
  000af	8a 50 09	 mov	 dl, BYTE PTR [eax+9]
  000b2	84 d2		 test	 dl, dl
  000b4	0f 84 79 01 00
	00		 je	 $LN87@LoadInt_e@2
  000ba	32 d3		 xor	 dl, bl
  000bc	88 55 e9	 mov	 BYTE PTR __k$[ebp+9], dl
  000bf	8a 50 0a	 mov	 dl, BYTE PTR [eax+10]
  000c2	84 d2		 test	 dl, dl
  000c4	0f 84 64 01 00
	00		 je	 $LN86@LoadInt_e@2
  000ca	32 d1		 xor	 dl, cl
  000cc	88 55 ea	 mov	 BYTE PTR __k$[ebp+10], dl
  000cf	8a 50 0b	 mov	 dl, BYTE PTR [eax+11]
  000d2	84 d2		 test	 dl, dl
  000d4	0f 84 4e 01 00
	00		 je	 $LN85@LoadInt_e@2
  000da	80 f2 ea	 xor	 dl, -22			; ffffffeaH
  000dd	88 55 eb	 mov	 BYTE PTR __k$[ebp+11], dl
  000e0	8a 50 0c	 mov	 dl, BYTE PTR [eax+12]
  000e3	84 d2		 test	 dl, dl
  000e5	0f 84 37 01 00
	00		 je	 $LN84@LoadInt_e@2
  000eb	80 f2 ed	 xor	 dl, -19			; ffffffedH
  000ee	88 55 ec	 mov	 BYTE PTR __k$[ebp+12], dl
  000f1	8a 50 0d	 mov	 dl, BYTE PTR [eax+13]
  000f4	84 d2		 test	 dl, dl
  000f6	0f 84 21 01 00
	00		 je	 $LN83@LoadInt_e@2
  000fc	32 d3		 xor	 dl, bl
  000fe	88 55 ed	 mov	 BYTE PTR __k$[ebp+13], dl
  00101	8a 50 0e	 mov	 dl, BYTE PTR [eax+14]
  00104	84 d2		 test	 dl, dl
  00106	0f 84 0c 01 00
	00		 je	 $LN82@LoadInt_e@2
  0010c	32 d1		 xor	 dl, cl
  0010e	88 55 ee	 mov	 BYTE PTR __k$[ebp+14], dl
  00111	8a 50 0f	 mov	 dl, BYTE PTR [eax+15]
  00114	84 d2		 test	 dl, dl
  00116	0f 84 f6 00 00
	00		 je	 $LN81@LoadInt_e@2
  0011c	80 f2 ea	 xor	 dl, -22			; ffffffeaH
  0011f	88 55 ef	 mov	 BYTE PTR __k$[ebp+15], dl
  00122	8a 50 10	 mov	 dl, BYTE PTR [eax+16]
  00125	84 d2		 test	 dl, dl
  00127	0f 84 df 00 00
	00		 je	 $LN80@LoadInt_e@2
  0012d	80 f2 ed	 xor	 dl, -19			; ffffffedH
  00130	88 55 f0	 mov	 BYTE PTR __k$[ebp+16], dl
  00133	8a 50 11	 mov	 dl, BYTE PTR [eax+17]
  00136	84 d2		 test	 dl, dl
  00138	0f 84 c9 00 00
	00		 je	 $LN79@LoadInt_e@2
  0013e	32 d3		 xor	 dl, bl
  00140	88 55 f1	 mov	 BYTE PTR __k$[ebp+17], dl
  00143	8a 50 12	 mov	 dl, BYTE PTR [eax+18]
  00146	84 d2		 test	 dl, dl
  00148	0f 84 b4 00 00
	00		 je	 $LN78@LoadInt_e@2
  0014e	32 d1		 xor	 dl, cl
  00150	88 55 f2	 mov	 BYTE PTR __k$[ebp+18], dl
  00153	8a 50 13	 mov	 dl, BYTE PTR [eax+19]
  00156	84 d2		 test	 dl, dl
  00158	0f 84 9e 00 00
	00		 je	 $LN77@LoadInt_e@2
  0015e	80 f2 ea	 xor	 dl, -22			; ffffffeaH
  00161	88 55 f3	 mov	 BYTE PTR __k$[ebp+19], dl
  00164	8a 50 14	 mov	 dl, BYTE PTR [eax+20]
  00167	84 d2		 test	 dl, dl
  00169	0f 84 87 00 00
	00		 je	 $LN76@LoadInt_e@2
  0016f	80 f2 ed	 xor	 dl, -19			; ffffffedH
  00172	88 55 f4	 mov	 BYTE PTR __k$[ebp+20], dl
  00175	8a 50 15	 mov	 dl, BYTE PTR [eax+21]
  00178	84 d2		 test	 dl, dl
  0017a	74 75		 je	 SHORT $LN75@LoadInt_e@2
  0017c	32 d3		 xor	 dl, bl
  0017e	88 55 f5	 mov	 BYTE PTR __k$[ebp+21], dl
  00181	8a 50 16	 mov	 dl, BYTE PTR [eax+22]
  00184	84 d2		 test	 dl, dl
  00186	74 64		 je	 SHORT $LN74@LoadInt_e@2
  00188	32 d1		 xor	 dl, cl
  0018a	80 78 17 00	 cmp	 BYTE PTR [eax+23], 0
  0018e	88 55 f6	 mov	 BYTE PTR __k$[ebp+22], dl
  00191	0f 84 d3 00 00
	00		 je	 $LN1@LoadInt_e@2
  00197	8a 50 18	 mov	 dl, BYTE PTR [eax+24]
  0019a	84 d2		 test	 dl, dl
  0019c	74 48		 je	 SHORT $LN72@LoadInt_e@2
  0019e	80 f2 ed	 xor	 dl, -19			; ffffffedH
  001a1	88 55 f8	 mov	 BYTE PTR __k$[ebp+24], dl
  001a4	8a 50 19	 mov	 dl, BYTE PTR [eax+25]
  001a7	84 d2		 test	 dl, dl
  001a9	74 33		 je	 SHORT $LN71@LoadInt_e@2
  001ab	32 d3		 xor	 dl, bl
  001ad	88 55 f9	 mov	 BYTE PTR __k$[ebp+25], dl
  001b0	8a 50 1a	 mov	 dl, BYTE PTR [eax+26]
  001b3	84 d2		 test	 dl, dl
  001b5	74 1f		 je	 SHORT $LN70@LoadInt_e@2
  001b7	8a 40 1b	 mov	 al, BYTE PTR [eax+27]
  001ba	32 d1		 xor	 dl, cl
  001bc	88 55 fa	 mov	 BYTE PTR __k$[ebp+26], dl
  001bf	84 c0		 test	 al, al
  001c1	74 0a		 je	 SHORT $LN69@LoadInt_e@2
  001c3	34 ea		 xor	 al, -22			; ffffffeaH
  001c5	88 45 fb	 mov	 BYTE PTR __k$[ebp+27], al
  001c8	e9 9d 00 00 00	 jmp	 $LN1@LoadInt_e@2
$LN69@LoadInt_e@2:
  001cd	c6 45 fb ea	 mov	 BYTE PTR __k$[ebp+27], -22 ; ffffffeaH
  001d1	e9 94 00 00 00	 jmp	 $LN1@LoadInt_e@2
$LN70@LoadInt_e@2:
  001d6	88 4d fa	 mov	 BYTE PTR __k$[ebp+26], cl
  001d9	e9 8c 00 00 00	 jmp	 $LN1@LoadInt_e@2
$LN71@LoadInt_e@2:
  001de	88 5d f9	 mov	 BYTE PTR __k$[ebp+25], bl
  001e1	e9 84 00 00 00	 jmp	 $LN1@LoadInt_e@2
$LN72@LoadInt_e@2:
  001e6	c6 45 f8 ed	 mov	 BYTE PTR __k$[ebp+24], -19 ; ffffffedH
  001ea	eb 7e		 jmp	 SHORT $LN1@LoadInt_e@2
$LN74@LoadInt_e@2:
  001ec	88 4d f6	 mov	 BYTE PTR __k$[ebp+22], cl
  001ef	eb 79		 jmp	 SHORT $LN1@LoadInt_e@2
$LN75@LoadInt_e@2:
  001f1	88 5d f5	 mov	 BYTE PTR __k$[ebp+21], bl
  001f4	eb 74		 jmp	 SHORT $LN1@LoadInt_e@2
$LN76@LoadInt_e@2:
  001f6	c6 45 f4 ed	 mov	 BYTE PTR __k$[ebp+20], -19 ; ffffffedH
  001fa	eb 6e		 jmp	 SHORT $LN1@LoadInt_e@2
$LN77@LoadInt_e@2:
  001fc	c6 45 f3 ea	 mov	 BYTE PTR __k$[ebp+19], -22 ; ffffffeaH
  00200	eb 68		 jmp	 SHORT $LN1@LoadInt_e@2
$LN78@LoadInt_e@2:
  00202	88 4d f2	 mov	 BYTE PTR __k$[ebp+18], cl
  00205	eb 63		 jmp	 SHORT $LN1@LoadInt_e@2
$LN79@LoadInt_e@2:
  00207	88 5d f1	 mov	 BYTE PTR __k$[ebp+17], bl
  0020a	eb 5e		 jmp	 SHORT $LN1@LoadInt_e@2
$LN80@LoadInt_e@2:
  0020c	c6 45 f0 ed	 mov	 BYTE PTR __k$[ebp+16], -19 ; ffffffedH
  00210	eb 58		 jmp	 SHORT $LN1@LoadInt_e@2
$LN81@LoadInt_e@2:
  00212	c6 45 ef ea	 mov	 BYTE PTR __k$[ebp+15], -22 ; ffffffeaH
  00216	eb 52		 jmp	 SHORT $LN1@LoadInt_e@2
$LN82@LoadInt_e@2:
  00218	88 4d ee	 mov	 BYTE PTR __k$[ebp+14], cl
  0021b	eb 4d		 jmp	 SHORT $LN1@LoadInt_e@2
$LN83@LoadInt_e@2:
  0021d	88 5d ed	 mov	 BYTE PTR __k$[ebp+13], bl
  00220	eb 48		 jmp	 SHORT $LN1@LoadInt_e@2
$LN84@LoadInt_e@2:
  00222	c6 45 ec ed	 mov	 BYTE PTR __k$[ebp+12], -19 ; ffffffedH
  00226	eb 42		 jmp	 SHORT $LN1@LoadInt_e@2
$LN85@LoadInt_e@2:
  00228	c6 45 eb ea	 mov	 BYTE PTR __k$[ebp+11], -22 ; ffffffeaH
  0022c	eb 3c		 jmp	 SHORT $LN1@LoadInt_e@2
$LN86@LoadInt_e@2:
  0022e	88 4d ea	 mov	 BYTE PTR __k$[ebp+10], cl
  00231	eb 37		 jmp	 SHORT $LN1@LoadInt_e@2
$LN87@LoadInt_e@2:
  00233	88 5d e9	 mov	 BYTE PTR __k$[ebp+9], bl
  00236	eb 32		 jmp	 SHORT $LN1@LoadInt_e@2
$LN88@LoadInt_e@2:
  00238	c6 45 e8 ed	 mov	 BYTE PTR __k$[ebp+8], -19 ; ffffffedH
  0023c	eb 2c		 jmp	 SHORT $LN1@LoadInt_e@2
$LN89@LoadInt_e@2:
  0023e	c6 45 e7 ea	 mov	 BYTE PTR __k$[ebp+7], -22 ; ffffffeaH
  00242	eb 26		 jmp	 SHORT $LN1@LoadInt_e@2
$LN90@LoadInt_e@2:
  00244	88 4d e6	 mov	 BYTE PTR __k$[ebp+6], cl
  00247	eb 21		 jmp	 SHORT $LN1@LoadInt_e@2
$LN91@LoadInt_e@2:
  00249	88 5d e5	 mov	 BYTE PTR __k$[ebp+5], bl
  0024c	eb 1c		 jmp	 SHORT $LN1@LoadInt_e@2
$LN92@LoadInt_e@2:
  0024e	c6 45 e4 ed	 mov	 BYTE PTR __k$[ebp+4], -19 ; ffffffedH
  00252	eb 16		 jmp	 SHORT $LN1@LoadInt_e@2
$LN93@LoadInt_e@2:
  00254	c6 45 e3 ea	 mov	 BYTE PTR __k$[ebp+3], -22 ; ffffffeaH
  00258	eb 10		 jmp	 SHORT $LN1@LoadInt_e@2
$LN94@LoadInt_e@2:
  0025a	c6 45 e2 eb	 mov	 BYTE PTR __k$[ebp+2], -21 ; ffffffebH
  0025e	eb 0a		 jmp	 SHORT $LN1@LoadInt_e@2
$LN95@LoadInt_e@2:
  00260	c6 45 e1 ec	 mov	 BYTE PTR __k$[ebp+1], -20 ; ffffffecH
  00264	eb 04		 jmp	 SHORT $LN1@LoadInt_e@2
$LN96@LoadInt_e@2:
  00266	c6 45 e0 ed	 mov	 BYTE PTR __k$[ebp], -19	; ffffffedH
$LN1@LoadInt_e@2:
  0026a	6a 05		 push	 5
  0026c	8d 45 e0	 lea	 eax, DWORD PTR __k$[ebp]
  0026f	c6 45 f7 00	 mov	 BYTE PTR __k$[ebp+23], 0
  00273	5a		 pop	 edx
$LL104@LoadInt_e@2:
  00274	81 30 ed ec eb
	ea		 xor	 DWORD PTR [eax], -353637139 ; eaebecedH
  0027a	83 c0 04	 add	 eax, 4
  0027d	4a		 dec	 edx
  0027e	75 f4		 jne	 SHORT $LL104@LoadInt_e@2
  00280	6a 14		 push	 20			; 00000014H
  00282	58		 pop	 eax
$LL101@LoadInt_e@2:
  00283	8b c8		 mov	 ecx, eax
  00285	81 e1 03 00 00
	80		 and	 ecx, -2147483645	; 80000003H
  0028b	79 05		 jns	 SHORT $LN111@LoadInt_e@2
  0028d	49		 dec	 ecx
  0028e	83 c9 fc	 or	 ecx, -4			; fffffffcH
  00291	41		 inc	 ecx
$LN111@LoadInt_e@2:
  00292	b2 ed		 mov	 dl, -19			; ffffffedH
  00294	2a d1		 sub	 dl, cl
  00296	30 54 05 e0	 xor	 BYTE PTR __k$[ebp+eax], dl
  0029a	40		 inc	 eax
  0029b	83 f8 17	 cmp	 eax, 23			; 00000017H
  0029e	7c e3		 jl	 SHORT $LL101@LoadInt_e@2

; 120  : 		return LoadInt(_k, i);

  002a0	ff 75 0c	 push	 DWORD PTR _i$[ebp]
  002a3	8d 45 e0	 lea	 eax, DWORD PTR __k$[ebp]
  002a6	50		 push	 eax
  002a7	8b ce		 mov	 ecx, esi
  002a9	ff 15 00 00 00
	00		 call	 DWORD PTR __imp_?LoadInt@ioINILoader@@QAEHPBDH@Z

; 121  : 	}

  002af	8b 4d fc	 mov	 ecx, DWORD PTR __$ArrayPad$[ebp]
  002b2	5e		 pop	 esi
  002b3	33 cd		 xor	 ecx, ebp
  002b5	5b		 pop	 ebx
  002b6	e8 00 00 00 00	 call	 @__security_check_cookie@4
  002bb	c9		 leave
  002bc	c2 08 00	 ret	 8
??$LoadInt_e@$0BI@@ioINILoader@@QAEHAAY0BI@$$CBDH@Z ENDP ; ioINILoader::LoadInt_e<24>
_TEXT	ENDS
PUBLIC	__$ArrayPad$
PUBLIC	??$LoadInt_e@$0BD@@ioINILoader@@QAEHAAY0BD@$$CBDH@Z ; ioINILoader::LoadInt_e<19>
; Function compile flags: /Ogsp
;	COMDAT ??$LoadInt_e@$0BD@@ioINILoader@@QAEHAAY0BD@$$CBDH@Z
_TEXT	SEGMENT
__k$ = -28						; size = 19
__$ArrayPad$ = -4					; size = 4
_k$ = 8							; size = 4
_i$ = 12						; size = 4
??$LoadInt_e@$0BD@@ioINILoader@@QAEHAAY0BD@$$CBDH@Z PROC ; ioINILoader::LoadInt_e<19>, COMDAT
; _this$ = ecx

; 118  : 	{

  00000	55		 push	 ebp
  00001	8b ec		 mov	 ebp, esp
  00003	83 ec 1c	 sub	 esp, 28			; 0000001cH
  00006	a1 00 00 00 00	 mov	 eax, DWORD PTR ___security_cookie
  0000b	33 c5		 xor	 eax, ebp
  0000d	89 45 fc	 mov	 DWORD PTR __$ArrayPad$[ebp], eax
  00010	8b 45 08	 mov	 eax, DWORD PTR _k$[ebp]

; 119  : 		_ENCSTR(k, _k);

  00013	8a 10		 mov	 dl, BYTE PTR [eax]
  00015	56		 push	 esi
  00016	8b f1		 mov	 esi, ecx
  00018	84 d2		 test	 dl, dl
  0001a	0f 84 cf 01 00
	00		 je	 $LN96@LoadInt_e@3
  00020	80 f2 ed	 xor	 dl, -19			; ffffffedH
  00023	88 55 e4	 mov	 BYTE PTR __k$[ebp], dl
  00026	8a 50 01	 mov	 dl, BYTE PTR [eax+1]
  00029	84 d2		 test	 dl, dl
  0002b	0f 84 b8 01 00
	00		 je	 $LN95@LoadInt_e@3
  00031	b1 ec		 mov	 cl, -20			; ffffffecH
  00033	32 d1		 xor	 dl, cl
  00035	88 55 e5	 mov	 BYTE PTR __k$[ebp+1], dl
  00038	8a 50 02	 mov	 dl, BYTE PTR [eax+2]
  0003b	84 d2		 test	 dl, dl
  0003d	0f 84 a0 01 00
	00		 je	 $LN94@LoadInt_e@3
  00043	80 f2 eb	 xor	 dl, -21			; ffffffebH
  00046	88 55 e6	 mov	 BYTE PTR __k$[ebp+2], dl
  00049	8a 50 03	 mov	 dl, BYTE PTR [eax+3]
  0004c	84 d2		 test	 dl, dl
  0004e	0f 84 89 01 00
	00		 je	 $LN93@LoadInt_e@3
  00054	80 f2 ea	 xor	 dl, -22			; ffffffeaH
  00057	88 55 e7	 mov	 BYTE PTR __k$[ebp+3], dl
  0005a	8a 50 04	 mov	 dl, BYTE PTR [eax+4]
  0005d	84 d2		 test	 dl, dl
  0005f	0f 84 72 01 00
	00		 je	 $LN92@LoadInt_e@3
  00065	80 f2 ed	 xor	 dl, -19			; ffffffedH
  00068	88 55 e8	 mov	 BYTE PTR __k$[ebp+4], dl
  0006b	8a 50 05	 mov	 dl, BYTE PTR [eax+5]
  0006e	84 d2		 test	 dl, dl
  00070	0f 84 5c 01 00
	00		 je	 $LN91@LoadInt_e@3
  00076	32 d1		 xor	 dl, cl
  00078	88 55 e9	 mov	 BYTE PTR __k$[ebp+5], dl
  0007b	8a 50 06	 mov	 dl, BYTE PTR [eax+6]
  0007e	84 d2		 test	 dl, dl
  00080	0f 84 46 01 00
	00		 je	 $LN90@LoadInt_e@3
  00086	80 f2 eb	 xor	 dl, -21			; ffffffebH
  00089	88 55 ea	 mov	 BYTE PTR __k$[ebp+6], dl
  0008c	8a 50 07	 mov	 dl, BYTE PTR [eax+7]
  0008f	84 d2		 test	 dl, dl
  00091	0f 84 2f 01 00
	00		 je	 $LN89@LoadInt_e@3
  00097	80 f2 ea	 xor	 dl, -22			; ffffffeaH
  0009a	88 55 eb	 mov	 BYTE PTR __k$[ebp+7], dl
  0009d	8a 50 08	 mov	 dl, BYTE PTR [eax+8]
  000a0	84 d2		 test	 dl, dl
  000a2	0f 84 18 01 00
	00		 je	 $LN88@LoadInt_e@3
  000a8	80 f2 ed	 xor	 dl, -19			; ffffffedH
  000ab	88 55 ec	 mov	 BYTE PTR __k$[ebp+8], dl
  000ae	8a 50 09	 mov	 dl, BYTE PTR [eax+9]
  000b1	84 d2		 test	 dl, dl
  000b3	0f 84 02 01 00
	00		 je	 $LN87@LoadInt_e@3
  000b9	32 d1		 xor	 dl, cl
  000bb	88 55 ed	 mov	 BYTE PTR __k$[ebp+9], dl
  000be	8a 50 0a	 mov	 dl, BYTE PTR [eax+10]
  000c1	84 d2		 test	 dl, dl
  000c3	0f 84 ec 00 00
	00		 je	 $LN86@LoadInt_e@3
  000c9	80 f2 eb	 xor	 dl, -21			; ffffffebH
  000cc	88 55 ee	 mov	 BYTE PTR __k$[ebp+10], dl
  000cf	8a 50 0b	 mov	 dl, BYTE PTR [eax+11]
  000d2	84 d2		 test	 dl, dl
  000d4	0f 84 d5 00 00
	00		 je	 $LN85@LoadInt_e@3
  000da	80 f2 ea	 xor	 dl, -22			; ffffffeaH
  000dd	88 55 ef	 mov	 BYTE PTR __k$[ebp+11], dl
  000e0	8a 50 0c	 mov	 dl, BYTE PTR [eax+12]
  000e3	84 d2		 test	 dl, dl
  000e5	0f 84 be 00 00
	00		 je	 $LN84@LoadInt_e@3
  000eb	80 f2 ed	 xor	 dl, -19			; ffffffedH
  000ee	88 55 f0	 mov	 BYTE PTR __k$[ebp+12], dl
  000f1	8a 50 0d	 mov	 dl, BYTE PTR [eax+13]
  000f4	84 d2		 test	 dl, dl
  000f6	0f 84 a8 00 00
	00		 je	 $LN83@LoadInt_e@3
  000fc	32 d1		 xor	 dl, cl
  000fe	88 55 f1	 mov	 BYTE PTR __k$[ebp+13], dl
  00101	8a 50 0e	 mov	 dl, BYTE PTR [eax+14]
  00104	84 d2		 test	 dl, dl
  00106	0f 84 92 00 00
	00		 je	 $LN82@LoadInt_e@3
  0010c	80 f2 eb	 xor	 dl, -21			; ffffffebH
  0010f	88 55 f2	 mov	 BYTE PTR __k$[ebp+14], dl
  00112	8a 50 0f	 mov	 dl, BYTE PTR [eax+15]
  00115	84 d2		 test	 dl, dl
  00117	74 7f		 je	 SHORT $LN81@LoadInt_e@3
  00119	80 f2 ea	 xor	 dl, -22			; ffffffeaH
  0011c	88 55 f3	 mov	 BYTE PTR __k$[ebp+15], dl
  0011f	8a 50 10	 mov	 dl, BYTE PTR [eax+16]
  00122	84 d2		 test	 dl, dl
  00124	74 6c		 je	 SHORT $LN80@LoadInt_e@3
  00126	80 f2 ed	 xor	 dl, -19			; ffffffedH
  00129	88 55 f4	 mov	 BYTE PTR __k$[ebp+16], dl
  0012c	8a 50 11	 mov	 dl, BYTE PTR [eax+17]
  0012f	84 d2		 test	 dl, dl
  00131	74 5a		 je	 SHORT $LN79@LoadInt_e@3
  00133	32 d1		 xor	 dl, cl
  00135	80 78 12 00	 cmp	 BYTE PTR [eax+18], 0
  00139	88 55 f5	 mov	 BYTE PTR __k$[ebp+17], dl
  0013c	0f 84 b1 00 00
	00		 je	 $LN1@LoadInt_e@3
  00142	8a 50 13	 mov	 dl, BYTE PTR [eax+19]
  00145	84 d2		 test	 dl, dl
  00147	74 3e		 je	 SHORT $LN77@LoadInt_e@3
  00149	80 f2 ea	 xor	 dl, -22			; ffffffeaH
  0014c	88 55 f7	 mov	 BYTE PTR __k$[ebp+19], dl
  0014f	8a 50 14	 mov	 dl, BYTE PTR [eax+20]
  00152	84 d2		 test	 dl, dl
  00154	74 2b		 je	 SHORT $LN76@LoadInt_e@3
  00156	80 f2 ed	 xor	 dl, -19			; ffffffedH
  00159	88 55 f8	 mov	 BYTE PTR __k$[ebp+20], dl
  0015c	8a 50 15	 mov	 dl, BYTE PTR [eax+21]
  0015f	84 d2		 test	 dl, dl
  00161	74 19		 je	 SHORT $LN75@LoadInt_e@3
  00163	8a 40 16	 mov	 al, BYTE PTR [eax+22]
  00166	32 d1		 xor	 dl, cl
  00168	88 55 f9	 mov	 BYTE PTR __k$[ebp+21], dl
  0016b	84 c0		 test	 al, al
  0016d	74 07		 je	 SHORT $LN74@LoadInt_e@3
  0016f	34 eb		 xor	 al, -21			; ffffffebH
  00171	88 45 fa	 mov	 BYTE PTR __k$[ebp+22], al
  00174	eb 7d		 jmp	 SHORT $LN1@LoadInt_e@3
$LN74@LoadInt_e@3:
  00176	c6 45 fa eb	 mov	 BYTE PTR __k$[ebp+22], -21 ; ffffffebH
  0017a	eb 77		 jmp	 SHORT $LN1@LoadInt_e@3
$LN75@LoadInt_e@3:
  0017c	88 4d f9	 mov	 BYTE PTR __k$[ebp+21], cl
  0017f	eb 72		 jmp	 SHORT $LN1@LoadInt_e@3
$LN76@LoadInt_e@3:
  00181	c6 45 f8 ed	 mov	 BYTE PTR __k$[ebp+20], -19 ; ffffffedH
  00185	eb 6c		 jmp	 SHORT $LN1@LoadInt_e@3
$LN77@LoadInt_e@3:
  00187	c6 45 f7 ea	 mov	 BYTE PTR __k$[ebp+19], -22 ; ffffffeaH
  0018b	eb 66		 jmp	 SHORT $LN1@LoadInt_e@3
$LN79@LoadInt_e@3:
  0018d	88 4d f5	 mov	 BYTE PTR __k$[ebp+17], cl
  00190	eb 61		 jmp	 SHORT $LN1@LoadInt_e@3
$LN80@LoadInt_e@3:
  00192	c6 45 f4 ed	 mov	 BYTE PTR __k$[ebp+16], -19 ; ffffffedH
  00196	eb 5b		 jmp	 SHORT $LN1@LoadInt_e@3
$LN81@LoadInt_e@3:
  00198	c6 45 f3 ea	 mov	 BYTE PTR __k$[ebp+15], -22 ; ffffffeaH
  0019c	eb 55		 jmp	 SHORT $LN1@LoadInt_e@3
$LN82@LoadInt_e@3:
  0019e	c6 45 f2 eb	 mov	 BYTE PTR __k$[ebp+14], -21 ; ffffffebH
  001a2	eb 4f		 jmp	 SHORT $LN1@LoadInt_e@3
$LN83@LoadInt_e@3:
  001a4	88 4d f1	 mov	 BYTE PTR __k$[ebp+13], cl
  001a7	eb 4a		 jmp	 SHORT $LN1@LoadInt_e@3
$LN84@LoadInt_e@3:
  001a9	c6 45 f0 ed	 mov	 BYTE PTR __k$[ebp+12], -19 ; ffffffedH
  001ad	eb 44		 jmp	 SHORT $LN1@LoadInt_e@3
$LN85@LoadInt_e@3:
  001af	c6 45 ef ea	 mov	 BYTE PTR __k$[ebp+11], -22 ; ffffffeaH
  001b3	eb 3e		 jmp	 SHORT $LN1@LoadInt_e@3
$LN86@LoadInt_e@3:
  001b5	c6 45 ee eb	 mov	 BYTE PTR __k$[ebp+10], -21 ; ffffffebH
  001b9	eb 38		 jmp	 SHORT $LN1@LoadInt_e@3
$LN87@LoadInt_e@3:
  001bb	88 4d ed	 mov	 BYTE PTR __k$[ebp+9], cl
  001be	eb 33		 jmp	 SHORT $LN1@LoadInt_e@3
$LN88@LoadInt_e@3:
  001c0	c6 45 ec ed	 mov	 BYTE PTR __k$[ebp+8], -19 ; ffffffedH
  001c4	eb 2d		 jmp	 SHORT $LN1@LoadInt_e@3
$LN89@LoadInt_e@3:
  001c6	c6 45 eb ea	 mov	 BYTE PTR __k$[ebp+7], -22 ; ffffffeaH
  001ca	eb 27		 jmp	 SHORT $LN1@LoadInt_e@3
$LN90@LoadInt_e@3:
  001cc	c6 45 ea eb	 mov	 BYTE PTR __k$[ebp+6], -21 ; ffffffebH
  001d0	eb 21		 jmp	 SHORT $LN1@LoadInt_e@3
$LN91@LoadInt_e@3:
  001d2	88 4d e9	 mov	 BYTE PTR __k$[ebp+5], cl
  001d5	eb 1c		 jmp	 SHORT $LN1@LoadInt_e@3
$LN92@LoadInt_e@3:
  001d7	c6 45 e8 ed	 mov	 BYTE PTR __k$[ebp+4], -19 ; ffffffedH
  001db	eb 16		 jmp	 SHORT $LN1@LoadInt_e@3
$LN93@LoadInt_e@3:
  001dd	c6 45 e7 ea	 mov	 BYTE PTR __k$[ebp+3], -22 ; ffffffeaH
  001e1	eb 10		 jmp	 SHORT $LN1@LoadInt_e@3
$LN94@LoadInt_e@3:
  001e3	c6 45 e6 eb	 mov	 BYTE PTR __k$[ebp+2], -21 ; ffffffebH
  001e7	eb 0a		 jmp	 SHORT $LN1@LoadInt_e@3
$LN95@LoadInt_e@3:
  001e9	c6 45 e5 ec	 mov	 BYTE PTR __k$[ebp+1], -20 ; ffffffecH
  001ed	eb 04		 jmp	 SHORT $LN1@LoadInt_e@3
$LN96@LoadInt_e@3:
  001ef	c6 45 e4 ed	 mov	 BYTE PTR __k$[ebp], -19	; ffffffedH
$LN1@LoadInt_e@3:
  001f3	6a 04		 push	 4
  001f5	8d 45 e4	 lea	 eax, DWORD PTR __k$[ebp]
  001f8	c6 45 f6 00	 mov	 BYTE PTR __k$[ebp+18], 0
  001fc	5a		 pop	 edx
$LL104@LoadInt_e@3:
  001fd	81 30 ed ec eb
	ea		 xor	 DWORD PTR [eax], -353637139 ; eaebecedH
  00203	83 c0 04	 add	 eax, 4
  00206	4a		 dec	 edx
  00207	75 f4		 jne	 SHORT $LL104@LoadInt_e@3
  00209	6a 10		 push	 16			; 00000010H
  0020b	58		 pop	 eax
$LL101@LoadInt_e@3:
  0020c	8b c8		 mov	 ecx, eax
  0020e	81 e1 03 00 00
	80		 and	 ecx, -2147483645	; 80000003H
  00214	79 05		 jns	 SHORT $LN111@LoadInt_e@3
  00216	49		 dec	 ecx
  00217	83 c9 fc	 or	 ecx, -4			; fffffffcH
  0021a	41		 inc	 ecx
$LN111@LoadInt_e@3:
  0021b	b2 ed		 mov	 dl, -19			; ffffffedH
  0021d	2a d1		 sub	 dl, cl
  0021f	30 54 05 e4	 xor	 BYTE PTR __k$[ebp+eax], dl
  00223	40		 inc	 eax
  00224	83 f8 12	 cmp	 eax, 18			; 00000012H
  00227	7c e3		 jl	 SHORT $LL101@LoadInt_e@3

; 120  : 		return LoadInt(_k, i);

  00229	ff 75 0c	 push	 DWORD PTR _i$[ebp]
  0022c	8d 45 e4	 lea	 eax, DWORD PTR __k$[ebp]
  0022f	50		 push	 eax
  00230	8b ce		 mov	 ecx, esi
  00232	ff 15 00 00 00
	00		 call	 DWORD PTR __imp_?LoadInt@ioINILoader@@QAEHPBDH@Z

; 121  : 	}

  00238	8b 4d fc	 mov	 ecx, DWORD PTR __$ArrayPad$[ebp]
  0023b	33 cd		 xor	 ecx, ebp
  0023d	5e		 pop	 esi
  0023e	e8 00 00 00 00	 call	 @__security_check_cookie@4
  00243	c9		 leave
  00244	c2 08 00	 ret	 8
??$LoadInt_e@$0BD@@ioINILoader@@QAEHAAY0BD@$$CBDH@Z ENDP ; ioINILoader::LoadInt_e<19>
_TEXT	ENDS
PUBLIC	__$ArrayPad$
PUBLIC	??$LoadInt_e@$0BA@@ioINILoader@@QAEHAAY0BA@$$CBDH@Z ; ioINILoader::LoadInt_e<16>
; Function compile flags: /Ogsp
;	COMDAT ??$LoadInt_e@$0BA@@ioINILoader@@QAEHAAY0BA@$$CBDH@Z
_TEXT	SEGMENT
__k$ = -24						; size = 16
__$ArrayPad$ = -4					; size = 4
_k$ = 8							; size = 4
_i$ = 12						; size = 4
??$LoadInt_e@$0BA@@ioINILoader@@QAEHAAY0BA@$$CBDH@Z PROC ; ioINILoader::LoadInt_e<16>, COMDAT
; _this$ = ecx

; 118  : 	{

  00000	55		 push	 ebp
  00001	8b ec		 mov	 ebp, esp
  00003	83 ec 18	 sub	 esp, 24			; 00000018H
  00006	a1 00 00 00 00	 mov	 eax, DWORD PTR ___security_cookie
  0000b	33 c5		 xor	 eax, ebp
  0000d	89 45 fc	 mov	 DWORD PTR __$ArrayPad$[ebp], eax
  00010	8b 45 08	 mov	 eax, DWORD PTR _k$[ebp]

; 119  : 		_ENCSTR(k, _k);

  00013	8a 10		 mov	 dl, BYTE PTR [eax]
  00015	56		 push	 esi
  00016	8b f1		 mov	 esi, ecx
  00018	84 d2		 test	 dl, dl
  0001a	0f 84 8c 01 00
	00		 je	 $LN96@LoadInt_e@4
  00020	80 f2 ed	 xor	 dl, -19			; ffffffedH
  00023	88 55 e8	 mov	 BYTE PTR __k$[ebp], dl
  00026	8a 50 01	 mov	 dl, BYTE PTR [eax+1]
  00029	84 d2		 test	 dl, dl
  0002b	0f 84 75 01 00
	00		 je	 $LN95@LoadInt_e@4
  00031	80 f2 ec	 xor	 dl, -20			; ffffffecH
  00034	88 55 e9	 mov	 BYTE PTR __k$[ebp+1], dl
  00037	8a 50 02	 mov	 dl, BYTE PTR [eax+2]
  0003a	84 d2		 test	 dl, dl
  0003c	0f 84 5e 01 00
	00		 je	 $LN94@LoadInt_e@4
  00042	b1 eb		 mov	 cl, -21			; ffffffebH
  00044	32 d1		 xor	 dl, cl
  00046	88 55 ea	 mov	 BYTE PTR __k$[ebp+2], dl
  00049	8a 50 03	 mov	 dl, BYTE PTR [eax+3]
  0004c	84 d2		 test	 dl, dl
  0004e	0f 84 46 01 00
	00		 je	 $LN93@LoadInt_e@4
  00054	80 f2 ea	 xor	 dl, -22			; ffffffeaH
  00057	88 55 eb	 mov	 BYTE PTR __k$[ebp+3], dl
  0005a	8a 50 04	 mov	 dl, BYTE PTR [eax+4]
  0005d	84 d2		 test	 dl, dl
  0005f	0f 84 2f 01 00
	00		 je	 $LN92@LoadInt_e@4
  00065	80 f2 ed	 xor	 dl, -19			; ffffffedH
  00068	88 55 ec	 mov	 BYTE PTR __k$[ebp+4], dl
  0006b	8a 50 05	 mov	 dl, BYTE PTR [eax+5]
  0006e	84 d2		 test	 dl, dl
  00070	0f 84 18 01 00
	00		 je	 $LN91@LoadInt_e@4
  00076	80 f2 ec	 xor	 dl, -20			; ffffffecH
  00079	88 55 ed	 mov	 BYTE PTR __k$[ebp+5], dl
  0007c	8a 50 06	 mov	 dl, BYTE PTR [eax+6]
  0007f	84 d2		 test	 dl, dl
  00081	0f 84 02 01 00
	00		 je	 $LN90@LoadInt_e@4
  00087	32 d1		 xor	 dl, cl
  00089	88 55 ee	 mov	 BYTE PTR __k$[ebp+6], dl
  0008c	8a 50 07	 mov	 dl, BYTE PTR [eax+7]
  0008f	84 d2		 test	 dl, dl
  00091	0f 84 ec 00 00
	00		 je	 $LN89@LoadInt_e@4
  00097	80 f2 ea	 xor	 dl, -22			; ffffffeaH
  0009a	88 55 ef	 mov	 BYTE PTR __k$[ebp+7], dl
  0009d	8a 50 08	 mov	 dl, BYTE PTR [eax+8]
  000a0	84 d2		 test	 dl, dl
  000a2	0f 84 d5 00 00
	00		 je	 $LN88@LoadInt_e@4
  000a8	80 f2 ed	 xor	 dl, -19			; ffffffedH
  000ab	88 55 f0	 mov	 BYTE PTR __k$[ebp+8], dl
  000ae	8a 50 09	 mov	 dl, BYTE PTR [eax+9]
  000b1	84 d2		 test	 dl, dl
  000b3	0f 84 be 00 00
	00		 je	 $LN87@LoadInt_e@4
  000b9	80 f2 ec	 xor	 dl, -20			; ffffffecH
  000bc	88 55 f1	 mov	 BYTE PTR __k$[ebp+9], dl
  000bf	8a 50 0a	 mov	 dl, BYTE PTR [eax+10]
  000c2	84 d2		 test	 dl, dl
  000c4	0f 84 a8 00 00
	00		 je	 $LN86@LoadInt_e@4
  000ca	32 d1		 xor	 dl, cl
  000cc	88 55 f2	 mov	 BYTE PTR __k$[ebp+10], dl
  000cf	8a 50 0b	 mov	 dl, BYTE PTR [eax+11]
  000d2	84 d2		 test	 dl, dl
  000d4	0f 84 92 00 00
	00		 je	 $LN85@LoadInt_e@4
  000da	80 f2 ea	 xor	 dl, -22			; ffffffeaH
  000dd	88 55 f3	 mov	 BYTE PTR __k$[ebp+11], dl
  000e0	8a 50 0c	 mov	 dl, BYTE PTR [eax+12]
  000e3	84 d2		 test	 dl, dl
  000e5	74 7f		 je	 SHORT $LN84@LoadInt_e@4
  000e7	80 f2 ed	 xor	 dl, -19			; ffffffedH
  000ea	88 55 f4	 mov	 BYTE PTR __k$[ebp+12], dl
  000ed	8a 50 0d	 mov	 dl, BYTE PTR [eax+13]
  000f0	84 d2		 test	 dl, dl
  000f2	74 6c		 je	 SHORT $LN83@LoadInt_e@4
  000f4	80 f2 ec	 xor	 dl, -20			; ffffffecH
  000f7	88 55 f5	 mov	 BYTE PTR __k$[ebp+13], dl
  000fa	8a 50 0e	 mov	 dl, BYTE PTR [eax+14]
  000fd	84 d2		 test	 dl, dl
  000ff	74 5a		 je	 SHORT $LN82@LoadInt_e@4
  00101	32 d1		 xor	 dl, cl
  00103	80 78 0f 00	 cmp	 BYTE PTR [eax+15], 0
  00107	88 55 f6	 mov	 BYTE PTR __k$[ebp+14], dl
  0010a	0f 84 a0 00 00
	00		 je	 $LN1@LoadInt_e@4
  00110	8a 50 10	 mov	 dl, BYTE PTR [eax+16]
  00113	84 d2		 test	 dl, dl
  00115	74 3e		 je	 SHORT $LN80@LoadInt_e@4
  00117	80 f2 ed	 xor	 dl, -19			; ffffffedH
  0011a	88 55 f8	 mov	 BYTE PTR __k$[ebp+16], dl
  0011d	8a 50 11	 mov	 dl, BYTE PTR [eax+17]
  00120	84 d2		 test	 dl, dl
  00122	74 2b		 je	 SHORT $LN79@LoadInt_e@4
  00124	80 f2 ec	 xor	 dl, -20			; ffffffecH
  00127	88 55 f9	 mov	 BYTE PTR __k$[ebp+17], dl
  0012a	8a 50 12	 mov	 dl, BYTE PTR [eax+18]
  0012d	84 d2		 test	 dl, dl
  0012f	74 19		 je	 SHORT $LN78@LoadInt_e@4
  00131	8a 40 13	 mov	 al, BYTE PTR [eax+19]
  00134	32 d1		 xor	 dl, cl
  00136	88 55 fa	 mov	 BYTE PTR __k$[ebp+18], dl
  00139	84 c0		 test	 al, al
  0013b	74 07		 je	 SHORT $LN77@LoadInt_e@4
  0013d	34 ea		 xor	 al, -22			; ffffffeaH
  0013f	88 45 fb	 mov	 BYTE PTR __k$[ebp+19], al
  00142	eb 6c		 jmp	 SHORT $LN1@LoadInt_e@4
$LN77@LoadInt_e@4:
  00144	c6 45 fb ea	 mov	 BYTE PTR __k$[ebp+19], -22 ; ffffffeaH
  00148	eb 66		 jmp	 SHORT $LN1@LoadInt_e@4
$LN78@LoadInt_e@4:
  0014a	88 4d fa	 mov	 BYTE PTR __k$[ebp+18], cl
  0014d	eb 61		 jmp	 SHORT $LN1@LoadInt_e@4
$LN79@LoadInt_e@4:
  0014f	c6 45 f9 ec	 mov	 BYTE PTR __k$[ebp+17], -20 ; ffffffecH
  00153	eb 5b		 jmp	 SHORT $LN1@LoadInt_e@4
$LN80@LoadInt_e@4:
  00155	c6 45 f8 ed	 mov	 BYTE PTR __k$[ebp+16], -19 ; ffffffedH
  00159	eb 55		 jmp	 SHORT $LN1@LoadInt_e@4
$LN82@LoadInt_e@4:
  0015b	88 4d f6	 mov	 BYTE PTR __k$[ebp+14], cl
  0015e	eb 50		 jmp	 SHORT $LN1@LoadInt_e@4
$LN83@LoadInt_e@4:
  00160	c6 45 f5 ec	 mov	 BYTE PTR __k$[ebp+13], -20 ; ffffffecH
  00164	eb 4a		 jmp	 SHORT $LN1@LoadInt_e@4
$LN84@LoadInt_e@4:
  00166	c6 45 f4 ed	 mov	 BYTE PTR __k$[ebp+12], -19 ; ffffffedH
  0016a	eb 44		 jmp	 SHORT $LN1@LoadInt_e@4
$LN85@LoadInt_e@4:
  0016c	c6 45 f3 ea	 mov	 BYTE PTR __k$[ebp+11], -22 ; ffffffeaH
  00170	eb 3e		 jmp	 SHORT $LN1@LoadInt_e@4
$LN86@LoadInt_e@4:
  00172	88 4d f2	 mov	 BYTE PTR __k$[ebp+10], cl
  00175	eb 39		 jmp	 SHORT $LN1@LoadInt_e@4
$LN87@LoadInt_e@4:
  00177	c6 45 f1 ec	 mov	 BYTE PTR __k$[ebp+9], -20 ; ffffffecH
  0017b	eb 33		 jmp	 SHORT $LN1@LoadInt_e@4
$LN88@LoadInt_e@4:
  0017d	c6 45 f0 ed	 mov	 BYTE PTR __k$[ebp+8], -19 ; ffffffedH
  00181	eb 2d		 jmp	 SHORT $LN1@LoadInt_e@4
$LN89@LoadInt_e@4:
  00183	c6 45 ef ea	 mov	 BYTE PTR __k$[ebp+7], -22 ; ffffffeaH
  00187	eb 27		 jmp	 SHORT $LN1@LoadInt_e@4
$LN90@LoadInt_e@4:
  00189	88 4d ee	 mov	 BYTE PTR __k$[ebp+6], cl
  0018c	eb 22		 jmp	 SHORT $LN1@LoadInt_e@4
$LN91@LoadInt_e@4:
  0018e	c6 45 ed ec	 mov	 BYTE PTR __k$[ebp+5], -20 ; ffffffecH
  00192	eb 1c		 jmp	 SHORT $LN1@LoadInt_e@4
$LN92@LoadInt_e@4:
  00194	c6 45 ec ed	 mov	 BYTE PTR __k$[ebp+4], -19 ; ffffffedH
  00198	eb 16		 jmp	 SHORT $LN1@LoadInt_e@4
$LN93@LoadInt_e@4:
  0019a	c6 45 eb ea	 mov	 BYTE PTR __k$[ebp+3], -22 ; ffffffeaH
  0019e	eb 10		 jmp	 SHORT $LN1@LoadInt_e@4
$LN94@LoadInt_e@4:
  001a0	c6 45 ea eb	 mov	 BYTE PTR __k$[ebp+2], -21 ; ffffffebH
  001a4	eb 0a		 jmp	 SHORT $LN1@LoadInt_e@4
$LN95@LoadInt_e@4:
  001a6	c6 45 e9 ec	 mov	 BYTE PTR __k$[ebp+1], -20 ; ffffffecH
  001aa	eb 04		 jmp	 SHORT $LN1@LoadInt_e@4
$LN96@LoadInt_e@4:
  001ac	c6 45 e8 ed	 mov	 BYTE PTR __k$[ebp], -19	; ffffffedH
$LN1@LoadInt_e@4:
  001b0	6a 03		 push	 3
  001b2	8d 45 e8	 lea	 eax, DWORD PTR __k$[ebp]
  001b5	c6 45 f7 00	 mov	 BYTE PTR __k$[ebp+15], 0
  001b9	5a		 pop	 edx
$LL104@LoadInt_e@4:
  001ba	81 30 ed ec eb
	ea		 xor	 DWORD PTR [eax], -353637139 ; eaebecedH
  001c0	83 c0 04	 add	 eax, 4
  001c3	4a		 dec	 edx
  001c4	75 f4		 jne	 SHORT $LL104@LoadInt_e@4
  001c6	6a 0c		 push	 12			; 0000000cH
  001c8	58		 pop	 eax
$LL101@LoadInt_e@4:
  001c9	8b c8		 mov	 ecx, eax
  001cb	81 e1 03 00 00
	80		 and	 ecx, -2147483645	; 80000003H
  001d1	79 05		 jns	 SHORT $LN111@LoadInt_e@4
  001d3	49		 dec	 ecx
  001d4	83 c9 fc	 or	 ecx, -4			; fffffffcH
  001d7	41		 inc	 ecx
$LN111@LoadInt_e@4:
  001d8	b2 ed		 mov	 dl, -19			; ffffffedH
  001da	2a d1		 sub	 dl, cl
  001dc	30 54 05 e8	 xor	 BYTE PTR __k$[ebp+eax], dl
  001e0	40		 inc	 eax
  001e1	83 f8 0f	 cmp	 eax, 15			; 0000000fH
  001e4	7c e3		 jl	 SHORT $LL101@LoadInt_e@4

; 120  : 		return LoadInt(_k, i);

  001e6	ff 75 0c	 push	 DWORD PTR _i$[ebp]
  001e9	8d 45 e8	 lea	 eax, DWORD PTR __k$[ebp]
  001ec	50		 push	 eax
  001ed	8b ce		 mov	 ecx, esi
  001ef	ff 15 00 00 00
	00		 call	 DWORD PTR __imp_?LoadInt@ioINILoader@@QAEHPBDH@Z

; 121  : 	}

  001f5	8b 4d fc	 mov	 ecx, DWORD PTR __$ArrayPad$[ebp]
  001f8	33 cd		 xor	 ecx, ebp
  001fa	5e		 pop	 esi
  001fb	e8 00 00 00 00	 call	 @__security_check_cookie@4
  00200	c9		 leave
  00201	c2 08 00	 ret	 8
??$LoadInt_e@$0BA@@ioINILoader@@QAEHAAY0BA@$$CBDH@Z ENDP ; ioINILoader::LoadInt_e<16>
_TEXT	ENDS
PUBLIC	__$ArrayPad$
PUBLIC	??$LoadFloat_e@$0BE@@ioINILoader@@QAEMAAY0BE@$$CBDM@Z ; ioINILoader::LoadFloat_e<20>
; Function compile flags: /Ogsp
;	COMDAT ??$LoadFloat_e@$0BE@@ioINILoader@@QAEMAAY0BE@$$CBDM@Z
_TEXT	SEGMENT
__k$ = -28						; size = 20
__$ArrayPad$ = -4					; size = 4
_k$ = 8							; size = 4
_f$ = 12						; size = 4
??$LoadFloat_e@$0BE@@ioINILoader@@QAEMAAY0BE@$$CBDM@Z PROC ; ioINILoader::LoadFloat_e<20>, COMDAT
; _this$ = ecx

; 135  : 	{

  00000	55		 push	 ebp
  00001	8b ec		 mov	 ebp, esp
  00003	83 ec 1c	 sub	 esp, 28			; 0000001cH
  00006	a1 00 00 00 00	 mov	 eax, DWORD PTR ___security_cookie
  0000b	33 c5		 xor	 eax, ebp
  0000d	89 45 fc	 mov	 DWORD PTR __$ArrayPad$[ebp], eax
  00010	8b 45 08	 mov	 eax, DWORD PTR _k$[ebp]

; 136  : 		_ENCSTR(k, _k);

  00013	8a 10		 mov	 dl, BYTE PTR [eax]
  00015	53		 push	 ebx
  00016	56		 push	 esi
  00017	8b f1		 mov	 esi, ecx
  00019	84 d2		 test	 dl, dl
  0001b	0f 84 dd 01 00
	00		 je	 $LN96@LoadFloat_@2
  00021	80 f2 ed	 xor	 dl, -19			; ffffffedH
  00024	88 55 e4	 mov	 BYTE PTR __k$[ebp], dl
  00027	8a 50 01	 mov	 dl, BYTE PTR [eax+1]
  0002a	84 d2		 test	 dl, dl
  0002c	0f 84 c6 01 00
	00		 je	 $LN95@LoadFloat_@2
  00032	b3 ec		 mov	 bl, -20			; ffffffecH
  00034	32 d3		 xor	 dl, bl
  00036	88 55 e5	 mov	 BYTE PTR __k$[ebp+1], dl
  00039	8a 50 02	 mov	 dl, BYTE PTR [eax+2]
  0003c	84 d2		 test	 dl, dl
  0003e	0f 84 ae 01 00
	00		 je	 $LN94@LoadFloat_@2
  00044	b1 eb		 mov	 cl, -21			; ffffffebH
  00046	32 d1		 xor	 dl, cl
  00048	88 55 e6	 mov	 BYTE PTR __k$[ebp+2], dl
  0004b	8a 50 03	 mov	 dl, BYTE PTR [eax+3]
  0004e	84 d2		 test	 dl, dl
  00050	0f 84 96 01 00
	00		 je	 $LN93@LoadFloat_@2
  00056	80 f2 ea	 xor	 dl, -22			; ffffffeaH
  00059	88 55 e7	 mov	 BYTE PTR __k$[ebp+3], dl
  0005c	8a 50 04	 mov	 dl, BYTE PTR [eax+4]
  0005f	84 d2		 test	 dl, dl
  00061	0f 84 7f 01 00
	00		 je	 $LN92@LoadFloat_@2
  00067	80 f2 ed	 xor	 dl, -19			; ffffffedH
  0006a	88 55 e8	 mov	 BYTE PTR __k$[ebp+4], dl
  0006d	8a 50 05	 mov	 dl, BYTE PTR [eax+5]
  00070	84 d2		 test	 dl, dl
  00072	0f 84 69 01 00
	00		 je	 $LN91@LoadFloat_@2
  00078	32 d3		 xor	 dl, bl
  0007a	88 55 e9	 mov	 BYTE PTR __k$[ebp+5], dl
  0007d	8a 50 06	 mov	 dl, BYTE PTR [eax+6]
  00080	84 d2		 test	 dl, dl
  00082	0f 84 54 01 00
	00		 je	 $LN90@LoadFloat_@2
  00088	32 d1		 xor	 dl, cl
  0008a	88 55 ea	 mov	 BYTE PTR __k$[ebp+6], dl
  0008d	8a 50 07	 mov	 dl, BYTE PTR [eax+7]
  00090	84 d2		 test	 dl, dl
  00092	0f 84 3e 01 00
	00		 je	 $LN89@LoadFloat_@2
  00098	80 f2 ea	 xor	 dl, -22			; ffffffeaH
  0009b	88 55 eb	 mov	 BYTE PTR __k$[ebp+7], dl
  0009e	8a 50 08	 mov	 dl, BYTE PTR [eax+8]
  000a1	84 d2		 test	 dl, dl
  000a3	0f 84 27 01 00
	00		 je	 $LN88@LoadFloat_@2
  000a9	80 f2 ed	 xor	 dl, -19			; ffffffedH
  000ac	88 55 ec	 mov	 BYTE PTR __k$[ebp+8], dl
  000af	8a 50 09	 mov	 dl, BYTE PTR [eax+9]
  000b2	84 d2		 test	 dl, dl
  000b4	0f 84 11 01 00
	00		 je	 $LN87@LoadFloat_@2
  000ba	32 d3		 xor	 dl, bl
  000bc	88 55 ed	 mov	 BYTE PTR __k$[ebp+9], dl
  000bf	8a 50 0a	 mov	 dl, BYTE PTR [eax+10]
  000c2	84 d2		 test	 dl, dl
  000c4	0f 84 fc 00 00
	00		 je	 $LN86@LoadFloat_@2
  000ca	32 d1		 xor	 dl, cl
  000cc	88 55 ee	 mov	 BYTE PTR __k$[ebp+10], dl
  000cf	8a 50 0b	 mov	 dl, BYTE PTR [eax+11]
  000d2	84 d2		 test	 dl, dl
  000d4	0f 84 e6 00 00
	00		 je	 $LN85@LoadFloat_@2
  000da	80 f2 ea	 xor	 dl, -22			; ffffffeaH
  000dd	88 55 ef	 mov	 BYTE PTR __k$[ebp+11], dl
  000e0	8a 50 0c	 mov	 dl, BYTE PTR [eax+12]
  000e3	84 d2		 test	 dl, dl
  000e5	0f 84 cf 00 00
	00		 je	 $LN84@LoadFloat_@2
  000eb	80 f2 ed	 xor	 dl, -19			; ffffffedH
  000ee	88 55 f0	 mov	 BYTE PTR __k$[ebp+12], dl
  000f1	8a 50 0d	 mov	 dl, BYTE PTR [eax+13]
  000f4	84 d2		 test	 dl, dl
  000f6	0f 84 b9 00 00
	00		 je	 $LN83@LoadFloat_@2
  000fc	32 d3		 xor	 dl, bl
  000fe	88 55 f1	 mov	 BYTE PTR __k$[ebp+13], dl
  00101	8a 50 0e	 mov	 dl, BYTE PTR [eax+14]
  00104	84 d2		 test	 dl, dl
  00106	0f 84 a4 00 00
	00		 je	 $LN82@LoadFloat_@2
  0010c	32 d1		 xor	 dl, cl
  0010e	88 55 f2	 mov	 BYTE PTR __k$[ebp+14], dl
  00111	8a 50 0f	 mov	 dl, BYTE PTR [eax+15]
  00114	84 d2		 test	 dl, dl
  00116	0f 84 8e 00 00
	00		 je	 $LN81@LoadFloat_@2
  0011c	80 f2 ea	 xor	 dl, -22			; ffffffeaH
  0011f	88 55 f3	 mov	 BYTE PTR __k$[ebp+15], dl
  00122	8a 50 10	 mov	 dl, BYTE PTR [eax+16]
  00125	84 d2		 test	 dl, dl
  00127	74 7b		 je	 SHORT $LN80@LoadFloat_@2
  00129	80 f2 ed	 xor	 dl, -19			; ffffffedH
  0012c	88 55 f4	 mov	 BYTE PTR __k$[ebp+16], dl
  0012f	8a 50 11	 mov	 dl, BYTE PTR [eax+17]
  00132	84 d2		 test	 dl, dl
  00134	74 69		 je	 SHORT $LN79@LoadFloat_@2
  00136	32 d3		 xor	 dl, bl
  00138	88 55 f5	 mov	 BYTE PTR __k$[ebp+17], dl
  0013b	8a 50 12	 mov	 dl, BYTE PTR [eax+18]
  0013e	84 d2		 test	 dl, dl
  00140	74 58		 je	 SHORT $LN78@LoadFloat_@2
  00142	32 d1		 xor	 dl, cl
  00144	80 78 13 00	 cmp	 BYTE PTR [eax+19], 0
  00148	88 55 f6	 mov	 BYTE PTR __k$[ebp+18], dl
  0014b	0f 84 b1 00 00
	00		 je	 $LN1@LoadFloat_@2
  00151	8a 50 14	 mov	 dl, BYTE PTR [eax+20]
  00154	84 d2		 test	 dl, dl
  00156	74 3c		 je	 SHORT $LN76@LoadFloat_@2
  00158	80 f2 ed	 xor	 dl, -19			; ffffffedH
  0015b	88 55 f8	 mov	 BYTE PTR __k$[ebp+20], dl
  0015e	8a 50 15	 mov	 dl, BYTE PTR [eax+21]
  00161	84 d2		 test	 dl, dl
  00163	74 2a		 je	 SHORT $LN75@LoadFloat_@2
  00165	32 d3		 xor	 dl, bl
  00167	88 55 f9	 mov	 BYTE PTR __k$[ebp+21], dl
  0016a	8a 50 16	 mov	 dl, BYTE PTR [eax+22]
  0016d	84 d2		 test	 dl, dl
  0016f	74 19		 je	 SHORT $LN74@LoadFloat_@2
  00171	8a 40 17	 mov	 al, BYTE PTR [eax+23]
  00174	32 d1		 xor	 dl, cl
  00176	88 55 fa	 mov	 BYTE PTR __k$[ebp+22], dl
  00179	84 c0		 test	 al, al
  0017b	74 07		 je	 SHORT $LN73@LoadFloat_@2
  0017d	34 ea		 xor	 al, -22			; ffffffeaH
  0017f	88 45 fb	 mov	 BYTE PTR __k$[ebp+23], al
  00182	eb 7e		 jmp	 SHORT $LN1@LoadFloat_@2
$LN73@LoadFloat_@2:
  00184	c6 45 fb ea	 mov	 BYTE PTR __k$[ebp+23], -22 ; ffffffeaH
  00188	eb 78		 jmp	 SHORT $LN1@LoadFloat_@2
$LN74@LoadFloat_@2:
  0018a	88 4d fa	 mov	 BYTE PTR __k$[ebp+22], cl
  0018d	eb 73		 jmp	 SHORT $LN1@LoadFloat_@2
$LN75@LoadFloat_@2:
  0018f	88 5d f9	 mov	 BYTE PTR __k$[ebp+21], bl
  00192	eb 6e		 jmp	 SHORT $LN1@LoadFloat_@2
$LN76@LoadFloat_@2:
  00194	c6 45 f8 ed	 mov	 BYTE PTR __k$[ebp+20], -19 ; ffffffedH
  00198	eb 68		 jmp	 SHORT $LN1@LoadFloat_@2
$LN78@LoadFloat_@2:
  0019a	88 4d f6	 mov	 BYTE PTR __k$[ebp+18], cl
  0019d	eb 63		 jmp	 SHORT $LN1@LoadFloat_@2
$LN79@LoadFloat_@2:
  0019f	88 5d f5	 mov	 BYTE PTR __k$[ebp+17], bl
  001a2	eb 5e		 jmp	 SHORT $LN1@LoadFloat_@2
$LN80@LoadFloat_@2:
  001a4	c6 45 f4 ed	 mov	 BYTE PTR __k$[ebp+16], -19 ; ffffffedH
  001a8	eb 58		 jmp	 SHORT $LN1@LoadFloat_@2
$LN81@LoadFloat_@2:
  001aa	c6 45 f3 ea	 mov	 BYTE PTR __k$[ebp+15], -22 ; ffffffeaH
  001ae	eb 52		 jmp	 SHORT $LN1@LoadFloat_@2
$LN82@LoadFloat_@2:
  001b0	88 4d f2	 mov	 BYTE PTR __k$[ebp+14], cl
  001b3	eb 4d		 jmp	 SHORT $LN1@LoadFloat_@2
$LN83@LoadFloat_@2:
  001b5	88 5d f1	 mov	 BYTE PTR __k$[ebp+13], bl
  001b8	eb 48		 jmp	 SHORT $LN1@LoadFloat_@2
$LN84@LoadFloat_@2:
  001ba	c6 45 f0 ed	 mov	 BYTE PTR __k$[ebp+12], -19 ; ffffffedH
  001be	eb 42		 jmp	 SHORT $LN1@LoadFloat_@2
$LN85@LoadFloat_@2:
  001c0	c6 45 ef ea	 mov	 BYTE PTR __k$[ebp+11], -22 ; ffffffeaH
  001c4	eb 3c		 jmp	 SHORT $LN1@LoadFloat_@2
$LN86@LoadFloat_@2:
  001c6	88 4d ee	 mov	 BYTE PTR __k$[ebp+10], cl
  001c9	eb 37		 jmp	 SHORT $LN1@LoadFloat_@2
$LN87@LoadFloat_@2:
  001cb	88 5d ed	 mov	 BYTE PTR __k$[ebp+9], bl
  001ce	eb 32		 jmp	 SHORT $LN1@LoadFloat_@2
$LN88@LoadFloat_@2:
  001d0	c6 45 ec ed	 mov	 BYTE PTR __k$[ebp+8], -19 ; ffffffedH
  001d4	eb 2c		 jmp	 SHORT $LN1@LoadFloat_@2
$LN89@LoadFloat_@2:
  001d6	c6 45 eb ea	 mov	 BYTE PTR __k$[ebp+7], -22 ; ffffffeaH
  001da	eb 26		 jmp	 SHORT $LN1@LoadFloat_@2
$LN90@LoadFloat_@2:
  001dc	88 4d ea	 mov	 BYTE PTR __k$[ebp+6], cl
  001df	eb 21		 jmp	 SHORT $LN1@LoadFloat_@2
$LN91@LoadFloat_@2:
  001e1	88 5d e9	 mov	 BYTE PTR __k$[ebp+5], bl
  001e4	eb 1c		 jmp	 SHORT $LN1@LoadFloat_@2
$LN92@LoadFloat_@2:
  001e6	c6 45 e8 ed	 mov	 BYTE PTR __k$[ebp+4], -19 ; ffffffedH
  001ea	eb 16		 jmp	 SHORT $LN1@LoadFloat_@2
$LN93@LoadFloat_@2:
  001ec	c6 45 e7 ea	 mov	 BYTE PTR __k$[ebp+3], -22 ; ffffffeaH
  001f0	eb 10		 jmp	 SHORT $LN1@LoadFloat_@2
$LN94@LoadFloat_@2:
  001f2	c6 45 e6 eb	 mov	 BYTE PTR __k$[ebp+2], -21 ; ffffffebH
  001f6	eb 0a		 jmp	 SHORT $LN1@LoadFloat_@2
$LN95@LoadFloat_@2:
  001f8	c6 45 e5 ec	 mov	 BYTE PTR __k$[ebp+1], -20 ; ffffffecH
  001fc	eb 04		 jmp	 SHORT $LN1@LoadFloat_@2
$LN96@LoadFloat_@2:
  001fe	c6 45 e4 ed	 mov	 BYTE PTR __k$[ebp], -19	; ffffffedH
$LN1@LoadFloat_@2:
  00202	6a 04		 push	 4
  00204	8d 45 e4	 lea	 eax, DWORD PTR __k$[ebp]
  00207	c6 45 f7 00	 mov	 BYTE PTR __k$[ebp+19], 0
  0020b	5a		 pop	 edx
$LL104@LoadFloat_@2:
  0020c	81 30 ed ec eb
	ea		 xor	 DWORD PTR [eax], -353637139 ; eaebecedH
  00212	83 c0 04	 add	 eax, 4
  00215	4a		 dec	 edx
  00216	75 f4		 jne	 SHORT $LL104@LoadFloat_@2
  00218	6a 10		 push	 16			; 00000010H
  0021a	58		 pop	 eax
$LL101@LoadFloat_@2:
  0021b	8b c8		 mov	 ecx, eax
  0021d	81 e1 03 00 00
	80		 and	 ecx, -2147483645	; 80000003H
  00223	79 05		 jns	 SHORT $LN111@LoadFloat_@2
  00225	49		 dec	 ecx
  00226	83 c9 fc	 or	 ecx, -4			; fffffffcH
  00229	41		 inc	 ecx
$LN111@LoadFloat_@2:
  0022a	b2 ed		 mov	 dl, -19			; ffffffedH
  0022c	2a d1		 sub	 dl, cl
  0022e	30 54 05 e4	 xor	 BYTE PTR __k$[ebp+eax], dl
  00232	40		 inc	 eax
  00233	83 f8 13	 cmp	 eax, 19			; 00000013H
  00236	7c e3		 jl	 SHORT $LL101@LoadFloat_@2

; 137  : 		return LoadFloat(_k, f);

  00238	f3 0f 10 45 0c	 movss	 xmm0, DWORD PTR _f$[ebp]
  0023d	51		 push	 ecx
  0023e	8d 45 e4	 lea	 eax, DWORD PTR __k$[ebp]
  00241	f3 0f 11 04 24	 movss	 DWORD PTR [esp], xmm0
  00246	50		 push	 eax
  00247	8b ce		 mov	 ecx, esi
  00249	ff 15 00 00 00
	00		 call	 DWORD PTR __imp_?LoadFloat@ioINILoader@@QAEMPBDM@Z

; 138  : 	}

  0024f	8b 4d fc	 mov	 ecx, DWORD PTR __$ArrayPad$[ebp]
  00252	5e		 pop	 esi
  00253	33 cd		 xor	 ecx, ebp
  00255	5b		 pop	 ebx
  00256	e8 00 00 00 00	 call	 @__security_check_cookie@4
  0025b	c9		 leave
  0025c	c2 08 00	 ret	 8
??$LoadFloat_e@$0BE@@ioINILoader@@QAEMAAY0BE@$$CBDM@Z ENDP ; ioINILoader::LoadFloat_e<20>
_TEXT	ENDS
PUBLIC	__$ArrayPad$
PUBLIC	??$LoadInt_e@$0P@@ioINILoader@@QAEHAAY0P@$$CBDH@Z ; ioINILoader::LoadInt_e<15>
; Function compile flags: /Ogsp
;	COMDAT ??$LoadInt_e@$0P@@ioINILoader@@QAEHAAY0P@$$CBDH@Z
_TEXT	SEGMENT
__k$ = -24						; size = 15
__$ArrayPad$ = -4					; size = 4
_k$ = 8							; size = 4
_i$ = 12						; size = 4
??$LoadInt_e@$0P@@ioINILoader@@QAEHAAY0P@$$CBDH@Z PROC	; ioINILoader::LoadInt_e<15>, COMDAT
; _this$ = ecx

; 118  : 	{

  00000	55		 push	 ebp
  00001	8b ec		 mov	 ebp, esp
  00003	83 ec 18	 sub	 esp, 24			; 00000018H
  00006	a1 00 00 00 00	 mov	 eax, DWORD PTR ___security_cookie
  0000b	33 c5		 xor	 eax, ebp
  0000d	89 45 fc	 mov	 DWORD PTR __$ArrayPad$[ebp], eax
  00010	8b 45 08	 mov	 eax, DWORD PTR _k$[ebp]

; 119  : 		_ENCSTR(k, _k);

  00013	8a 10		 mov	 dl, BYTE PTR [eax]
  00015	56		 push	 esi
  00016	8b f1		 mov	 esi, ecx
  00018	84 d2		 test	 dl, dl
  0001a	0f 84 75 01 00
	00		 je	 $LN96@LoadInt_e@5
  00020	80 f2 ed	 xor	 dl, -19			; ffffffedH
  00023	88 55 e8	 mov	 BYTE PTR __k$[ebp], dl
  00026	8a 50 01	 mov	 dl, BYTE PTR [eax+1]
  00029	84 d2		 test	 dl, dl
  0002b	0f 84 5e 01 00
	00		 je	 $LN95@LoadInt_e@5
  00031	b1 ec		 mov	 cl, -20			; ffffffecH
  00033	32 d1		 xor	 dl, cl
  00035	88 55 e9	 mov	 BYTE PTR __k$[ebp+1], dl
  00038	8a 50 02	 mov	 dl, BYTE PTR [eax+2]
  0003b	84 d2		 test	 dl, dl
  0003d	0f 84 46 01 00
	00		 je	 $LN94@LoadInt_e@5
  00043	80 f2 eb	 xor	 dl, -21			; ffffffebH
  00046	88 55 ea	 mov	 BYTE PTR __k$[ebp+2], dl
  00049	8a 50 03	 mov	 dl, BYTE PTR [eax+3]
  0004c	84 d2		 test	 dl, dl
  0004e	0f 84 2f 01 00
	00		 je	 $LN93@LoadInt_e@5
  00054	80 f2 ea	 xor	 dl, -22			; ffffffeaH
  00057	88 55 eb	 mov	 BYTE PTR __k$[ebp+3], dl
  0005a	8a 50 04	 mov	 dl, BYTE PTR [eax+4]
  0005d	84 d2		 test	 dl, dl
  0005f	0f 84 18 01 00
	00		 je	 $LN92@LoadInt_e@5
  00065	80 f2 ed	 xor	 dl, -19			; ffffffedH
  00068	88 55 ec	 mov	 BYTE PTR __k$[ebp+4], dl
  0006b	8a 50 05	 mov	 dl, BYTE PTR [eax+5]
  0006e	84 d2		 test	 dl, dl
  00070	0f 84 02 01 00
	00		 je	 $LN91@LoadInt_e@5
  00076	32 d1		 xor	 dl, cl
  00078	88 55 ed	 mov	 BYTE PTR __k$[ebp+5], dl
  0007b	8a 50 06	 mov	 dl, BYTE PTR [eax+6]
  0007e	84 d2		 test	 dl, dl
  00080	0f 84 ec 00 00
	00		 je	 $LN90@LoadInt_e@5
  00086	80 f2 eb	 xor	 dl, -21			; ffffffebH
  00089	88 55 ee	 mov	 BYTE PTR __k$[ebp+6], dl
  0008c	8a 50 07	 mov	 dl, BYTE PTR [eax+7]
  0008f	84 d2		 test	 dl, dl
  00091	0f 84 d5 00 00
	00		 je	 $LN89@LoadInt_e@5
  00097	80 f2 ea	 xor	 dl, -22			; ffffffeaH
  0009a	88 55 ef	 mov	 BYTE PTR __k$[ebp+7], dl
  0009d	8a 50 08	 mov	 dl, BYTE PTR [eax+8]
  000a0	84 d2		 test	 dl, dl
  000a2	0f 84 be 00 00
	00		 je	 $LN88@LoadInt_e@5
  000a8	80 f2 ed	 xor	 dl, -19			; ffffffedH
  000ab	88 55 f0	 mov	 BYTE PTR __k$[ebp+8], dl
  000ae	8a 50 09	 mov	 dl, BYTE PTR [eax+9]
  000b1	84 d2		 test	 dl, dl
  000b3	0f 84 a8 00 00
	00		 je	 $LN87@LoadInt_e@5
  000b9	32 d1		 xor	 dl, cl
  000bb	88 55 f1	 mov	 BYTE PTR __k$[ebp+9], dl
  000be	8a 50 0a	 mov	 dl, BYTE PTR [eax+10]
  000c1	84 d2		 test	 dl, dl
  000c3	0f 84 92 00 00
	00		 je	 $LN86@LoadInt_e@5
  000c9	80 f2 eb	 xor	 dl, -21			; ffffffebH
  000cc	88 55 f2	 mov	 BYTE PTR __k$[ebp+10], dl
  000cf	8a 50 0b	 mov	 dl, BYTE PTR [eax+11]
  000d2	84 d2		 test	 dl, dl
  000d4	74 7f		 je	 SHORT $LN85@LoadInt_e@5
  000d6	80 f2 ea	 xor	 dl, -22			; ffffffeaH
  000d9	88 55 f3	 mov	 BYTE PTR __k$[ebp+11], dl
  000dc	8a 50 0c	 mov	 dl, BYTE PTR [eax+12]
  000df	84 d2		 test	 dl, dl
  000e1	74 6c		 je	 SHORT $LN84@LoadInt_e@5
  000e3	80 f2 ed	 xor	 dl, -19			; ffffffedH
  000e6	88 55 f4	 mov	 BYTE PTR __k$[ebp+12], dl
  000e9	8a 50 0d	 mov	 dl, BYTE PTR [eax+13]
  000ec	84 d2		 test	 dl, dl
  000ee	74 5a		 je	 SHORT $LN83@LoadInt_e@5
  000f0	32 d1		 xor	 dl, cl
  000f2	80 78 0e 00	 cmp	 BYTE PTR [eax+14], 0
  000f6	88 55 f5	 mov	 BYTE PTR __k$[ebp+13], dl
  000f9	0f 84 9a 00 00
	00		 je	 $LN1@LoadInt_e@5
  000ff	8a 50 0f	 mov	 dl, BYTE PTR [eax+15]
  00102	84 d2		 test	 dl, dl
  00104	74 3e		 je	 SHORT $LN81@LoadInt_e@5
  00106	80 f2 ea	 xor	 dl, -22			; ffffffeaH
  00109	88 55 f7	 mov	 BYTE PTR __k$[ebp+15], dl
  0010c	8a 50 10	 mov	 dl, BYTE PTR [eax+16]
  0010f	84 d2		 test	 dl, dl
  00111	74 2b		 je	 SHORT $LN80@LoadInt_e@5
  00113	80 f2 ed	 xor	 dl, -19			; ffffffedH
  00116	88 55 f8	 mov	 BYTE PTR __k$[ebp+16], dl
  00119	8a 50 11	 mov	 dl, BYTE PTR [eax+17]
  0011c	84 d2		 test	 dl, dl
  0011e	74 19		 je	 SHORT $LN79@LoadInt_e@5
  00120	8a 40 12	 mov	 al, BYTE PTR [eax+18]
  00123	32 d1		 xor	 dl, cl
  00125	88 55 f9	 mov	 BYTE PTR __k$[ebp+17], dl
  00128	84 c0		 test	 al, al
  0012a	74 07		 je	 SHORT $LN78@LoadInt_e@5
  0012c	34 eb		 xor	 al, -21			; ffffffebH
  0012e	88 45 fa	 mov	 BYTE PTR __k$[ebp+18], al
  00131	eb 66		 jmp	 SHORT $LN1@LoadInt_e@5
$LN78@LoadInt_e@5:
  00133	c6 45 fa eb	 mov	 BYTE PTR __k$[ebp+18], -21 ; ffffffebH
  00137	eb 60		 jmp	 SHORT $LN1@LoadInt_e@5
$LN79@LoadInt_e@5:
  00139	88 4d f9	 mov	 BYTE PTR __k$[ebp+17], cl
  0013c	eb 5b		 jmp	 SHORT $LN1@LoadInt_e@5
$LN80@LoadInt_e@5:
  0013e	c6 45 f8 ed	 mov	 BYTE PTR __k$[ebp+16], -19 ; ffffffedH
  00142	eb 55		 jmp	 SHORT $LN1@LoadInt_e@5
$LN81@LoadInt_e@5:
  00144	c6 45 f7 ea	 mov	 BYTE PTR __k$[ebp+15], -22 ; ffffffeaH
  00148	eb 4f		 jmp	 SHORT $LN1@LoadInt_e@5
$LN83@LoadInt_e@5:
  0014a	88 4d f5	 mov	 BYTE PTR __k$[ebp+13], cl
  0014d	eb 4a		 jmp	 SHORT $LN1@LoadInt_e@5
$LN84@LoadInt_e@5:
  0014f	c6 45 f4 ed	 mov	 BYTE PTR __k$[ebp+12], -19 ; ffffffedH
  00153	eb 44		 jmp	 SHORT $LN1@LoadInt_e@5
$LN85@LoadInt_e@5:
  00155	c6 45 f3 ea	 mov	 BYTE PTR __k$[ebp+11], -22 ; ffffffeaH
  00159	eb 3e		 jmp	 SHORT $LN1@LoadInt_e@5
$LN86@LoadInt_e@5:
  0015b	c6 45 f2 eb	 mov	 BYTE PTR __k$[ebp+10], -21 ; ffffffebH
  0015f	eb 38		 jmp	 SHORT $LN1@LoadInt_e@5
$LN87@LoadInt_e@5:
  00161	88 4d f1	 mov	 BYTE PTR __k$[ebp+9], cl
  00164	eb 33		 jmp	 SHORT $LN1@LoadInt_e@5
$LN88@LoadInt_e@5:
  00166	c6 45 f0 ed	 mov	 BYTE PTR __k$[ebp+8], -19 ; ffffffedH
  0016a	eb 2d		 jmp	 SHORT $LN1@LoadInt_e@5
$LN89@LoadInt_e@5:
  0016c	c6 45 ef ea	 mov	 BYTE PTR __k$[ebp+7], -22 ; ffffffeaH
  00170	eb 27		 jmp	 SHORT $LN1@LoadInt_e@5
$LN90@LoadInt_e@5:
  00172	c6 45 ee eb	 mov	 BYTE PTR __k$[ebp+6], -21 ; ffffffebH
  00176	eb 21		 jmp	 SHORT $LN1@LoadInt_e@5
$LN91@LoadInt_e@5:
  00178	88 4d ed	 mov	 BYTE PTR __k$[ebp+5], cl
  0017b	eb 1c		 jmp	 SHORT $LN1@LoadInt_e@5
$LN92@LoadInt_e@5:
  0017d	c6 45 ec ed	 mov	 BYTE PTR __k$[ebp+4], -19 ; ffffffedH
  00181	eb 16		 jmp	 SHORT $LN1@LoadInt_e@5
$LN93@LoadInt_e@5:
  00183	c6 45 eb ea	 mov	 BYTE PTR __k$[ebp+3], -22 ; ffffffeaH
  00187	eb 10		 jmp	 SHORT $LN1@LoadInt_e@5
$LN94@LoadInt_e@5:
  00189	c6 45 ea eb	 mov	 BYTE PTR __k$[ebp+2], -21 ; ffffffebH
  0018d	eb 0a		 jmp	 SHORT $LN1@LoadInt_e@5
$LN95@LoadInt_e@5:
  0018f	c6 45 e9 ec	 mov	 BYTE PTR __k$[ebp+1], -20 ; ffffffecH
  00193	eb 04		 jmp	 SHORT $LN1@LoadInt_e@5
$LN96@LoadInt_e@5:
  00195	c6 45 e8 ed	 mov	 BYTE PTR __k$[ebp], -19	; ffffffedH
$LN1@LoadInt_e@5:
  00199	6a 03		 push	 3
  0019b	8d 45 e8	 lea	 eax, DWORD PTR __k$[ebp]
  0019e	c6 45 f6 00	 mov	 BYTE PTR __k$[ebp+14], 0
  001a2	5a		 pop	 edx
$LL104@LoadInt_e@5:
  001a3	81 30 ed ec eb
	ea		 xor	 DWORD PTR [eax], -353637139 ; eaebecedH
  001a9	83 c0 04	 add	 eax, 4
  001ac	4a		 dec	 edx
  001ad	75 f4		 jne	 SHORT $LL104@LoadInt_e@5
  001af	6a 0c		 push	 12			; 0000000cH
  001b1	58		 pop	 eax
$LL101@LoadInt_e@5:
  001b2	8b c8		 mov	 ecx, eax
  001b4	81 e1 03 00 00
	80		 and	 ecx, -2147483645	; 80000003H
  001ba	79 05		 jns	 SHORT $LN111@LoadInt_e@5
  001bc	49		 dec	 ecx
  001bd	83 c9 fc	 or	 ecx, -4			; fffffffcH
  001c0	41		 inc	 ecx
$LN111@LoadInt_e@5:
  001c1	b2 ed		 mov	 dl, -19			; ffffffedH
  001c3	2a d1		 sub	 dl, cl
  001c5	30 54 05 e8	 xor	 BYTE PTR __k$[ebp+eax], dl
  001c9	40		 inc	 eax
  001ca	83 f8 0e	 cmp	 eax, 14			; 0000000eH
  001cd	7c e3		 jl	 SHORT $LL101@LoadInt_e@5

; 120  : 		return LoadInt(_k, i);

  001cf	ff 75 0c	 push	 DWORD PTR _i$[ebp]
  001d2	8d 45 e8	 lea	 eax, DWORD PTR __k$[ebp]
  001d5	50		 push	 eax
  001d6	8b ce		 mov	 ecx, esi
  001d8	ff 15 00 00 00
	00		 call	 DWORD PTR __imp_?LoadInt@ioINILoader@@QAEHPBDH@Z

; 121  : 	}

  001de	8b 4d fc	 mov	 ecx, DWORD PTR __$ArrayPad$[ebp]
  001e1	33 cd		 xor	 ecx, ebp
  001e3	5e		 pop	 esi
  001e4	e8 00 00 00 00	 call	 @__security_check_cookie@4
  001e9	c9		 leave
  001ea	c2 08 00	 ret	 8
??$LoadInt_e@$0P@@ioINILoader@@QAEHAAY0P@$$CBDH@Z ENDP	; ioINILoader::LoadInt_e<15>
_TEXT	ENDS
PUBLIC	__$ArrayPad$
PUBLIC	??$LoadInt_e@$0L@@ioINILoader@@QAEHAAY0L@$$CBDH@Z ; ioINILoader::LoadInt_e<11>
; Function compile flags: /Ogsp
;	COMDAT ??$LoadInt_e@$0L@@ioINILoader@@QAEHAAY0L@$$CBDH@Z
_TEXT	SEGMENT
__k$ = -20						; size = 11
__$ArrayPad$ = -4					; size = 4
_k$ = 8							; size = 4
_i$ = 12						; size = 4
??$LoadInt_e@$0L@@ioINILoader@@QAEHAAY0L@$$CBDH@Z PROC	; ioINILoader::LoadInt_e<11>, COMDAT
; _this$ = ecx

; 118  : 	{

  00000	55		 push	 ebp
  00001	8b ec		 mov	 ebp, esp
  00003	83 ec 14	 sub	 esp, 20			; 00000014H
  00006	a1 00 00 00 00	 mov	 eax, DWORD PTR ___security_cookie
  0000b	33 c5		 xor	 eax, ebp
  0000d	89 45 fc	 mov	 DWORD PTR __$ArrayPad$[ebp], eax
  00010	8b 45 08	 mov	 eax, DWORD PTR _k$[ebp]

; 119  : 		_ENCSTR(k, _k);

  00013	8a 10		 mov	 dl, BYTE PTR [eax]
  00015	56		 push	 esi
  00016	8b f1		 mov	 esi, ecx
  00018	84 d2		 test	 dl, dl
  0001a	0f 84 24 01 00
	00		 je	 $LN96@LoadInt_e@6
  00020	80 f2 ed	 xor	 dl, -19			; ffffffedH
  00023	88 55 ec	 mov	 BYTE PTR __k$[ebp], dl
  00026	8a 50 01	 mov	 dl, BYTE PTR [eax+1]
  00029	84 d2		 test	 dl, dl
  0002b	0f 84 0d 01 00
	00		 je	 $LN95@LoadInt_e@6
  00031	80 f2 ec	 xor	 dl, -20			; ffffffecH
  00034	88 55 ed	 mov	 BYTE PTR __k$[ebp+1], dl
  00037	8a 50 02	 mov	 dl, BYTE PTR [eax+2]
  0003a	84 d2		 test	 dl, dl
  0003c	0f 84 f6 00 00
	00		 je	 $LN94@LoadInt_e@6
  00042	80 f2 eb	 xor	 dl, -21			; ffffffebH
  00045	88 55 ee	 mov	 BYTE PTR __k$[ebp+2], dl
  00048	8a 50 03	 mov	 dl, BYTE PTR [eax+3]
  0004b	84 d2		 test	 dl, dl
  0004d	0f 84 df 00 00
	00		 je	 $LN93@LoadInt_e@6
  00053	80 f2 ea	 xor	 dl, -22			; ffffffeaH
  00056	88 55 ef	 mov	 BYTE PTR __k$[ebp+3], dl
  00059	8a 50 04	 mov	 dl, BYTE PTR [eax+4]
  0005c	84 d2		 test	 dl, dl
  0005e	0f 84 c8 00 00
	00		 je	 $LN92@LoadInt_e@6
  00064	80 f2 ed	 xor	 dl, -19			; ffffffedH
  00067	88 55 f0	 mov	 BYTE PTR __k$[ebp+4], dl
  0006a	8a 50 05	 mov	 dl, BYTE PTR [eax+5]
  0006d	84 d2		 test	 dl, dl
  0006f	0f 84 b1 00 00
	00		 je	 $LN91@LoadInt_e@6
  00075	80 f2 ec	 xor	 dl, -20			; ffffffecH
  00078	88 55 f1	 mov	 BYTE PTR __k$[ebp+5], dl
  0007b	8a 50 06	 mov	 dl, BYTE PTR [eax+6]
  0007e	84 d2		 test	 dl, dl
  00080	0f 84 9a 00 00
	00		 je	 $LN90@LoadInt_e@6
  00086	80 f2 eb	 xor	 dl, -21			; ffffffebH
  00089	88 55 f2	 mov	 BYTE PTR __k$[ebp+6], dl
  0008c	8a 50 07	 mov	 dl, BYTE PTR [eax+7]
  0008f	84 d2		 test	 dl, dl
  00091	0f 84 83 00 00
	00		 je	 $LN89@LoadInt_e@6
  00097	80 f2 ea	 xor	 dl, -22			; ffffffeaH
  0009a	88 55 f3	 mov	 BYTE PTR __k$[ebp+7], dl
  0009d	8a 50 08	 mov	 dl, BYTE PTR [eax+8]
  000a0	84 d2		 test	 dl, dl
  000a2	74 70		 je	 SHORT $LN88@LoadInt_e@6
  000a4	80 f2 ed	 xor	 dl, -19			; ffffffedH
  000a7	88 55 f4	 mov	 BYTE PTR __k$[ebp+8], dl
  000aa	8a 50 09	 mov	 dl, BYTE PTR [eax+9]
  000ad	84 d2		 test	 dl, dl
  000af	74 5d		 je	 SHORT $LN87@LoadInt_e@6
  000b1	80 f2 ec	 xor	 dl, -20			; ffffffecH
  000b4	80 78 0a 00	 cmp	 BYTE PTR [eax+10], 0
  000b8	88 55 f5	 mov	 BYTE PTR __k$[ebp+9], dl
  000bb	0f 84 87 00 00
	00		 je	 $LN1@LoadInt_e@6
  000c1	8a 50 0b	 mov	 dl, BYTE PTR [eax+11]
  000c4	84 d2		 test	 dl, dl
  000c6	74 40		 je	 SHORT $LN85@LoadInt_e@6
  000c8	80 f2 ea	 xor	 dl, -22			; ffffffeaH
  000cb	88 55 f7	 mov	 BYTE PTR __k$[ebp+11], dl
  000ce	8a 50 0c	 mov	 dl, BYTE PTR [eax+12]
  000d1	84 d2		 test	 dl, dl
  000d3	74 2d		 je	 SHORT $LN84@LoadInt_e@6
  000d5	80 f2 ed	 xor	 dl, -19			; ffffffedH
  000d8	88 55 f8	 mov	 BYTE PTR __k$[ebp+12], dl
  000db	8a 50 0d	 mov	 dl, BYTE PTR [eax+13]
  000de	84 d2		 test	 dl, dl
  000e0	74 1a		 je	 SHORT $LN83@LoadInt_e@6
  000e2	8a 40 0e	 mov	 al, BYTE PTR [eax+14]
  000e5	80 f2 ec	 xor	 dl, -20			; ffffffecH
  000e8	88 55 f9	 mov	 BYTE PTR __k$[ebp+13], dl
  000eb	84 c0		 test	 al, al
  000ed	74 07		 je	 SHORT $LN82@LoadInt_e@6
  000ef	34 eb		 xor	 al, -21			; ffffffebH
  000f1	88 45 fa	 mov	 BYTE PTR __k$[ebp+14], al
  000f4	eb 52		 jmp	 SHORT $LN1@LoadInt_e@6
$LN82@LoadInt_e@6:
  000f6	c6 45 fa eb	 mov	 BYTE PTR __k$[ebp+14], -21 ; ffffffebH
  000fa	eb 4c		 jmp	 SHORT $LN1@LoadInt_e@6
$LN83@LoadInt_e@6:
  000fc	c6 45 f9 ec	 mov	 BYTE PTR __k$[ebp+13], -20 ; ffffffecH
  00100	eb 46		 jmp	 SHORT $LN1@LoadInt_e@6
$LN84@LoadInt_e@6:
  00102	c6 45 f8 ed	 mov	 BYTE PTR __k$[ebp+12], -19 ; ffffffedH
  00106	eb 40		 jmp	 SHORT $LN1@LoadInt_e@6
$LN85@LoadInt_e@6:
  00108	c6 45 f7 ea	 mov	 BYTE PTR __k$[ebp+11], -22 ; ffffffeaH
  0010c	eb 3a		 jmp	 SHORT $LN1@LoadInt_e@6
$LN87@LoadInt_e@6:
  0010e	c6 45 f5 ec	 mov	 BYTE PTR __k$[ebp+9], -20 ; ffffffecH
  00112	eb 34		 jmp	 SHORT $LN1@LoadInt_e@6
$LN88@LoadInt_e@6:
  00114	c6 45 f4 ed	 mov	 BYTE PTR __k$[ebp+8], -19 ; ffffffedH
  00118	eb 2e		 jmp	 SHORT $LN1@LoadInt_e@6
$LN89@LoadInt_e@6:
  0011a	c6 45 f3 ea	 mov	 BYTE PTR __k$[ebp+7], -22 ; ffffffeaH
  0011e	eb 28		 jmp	 SHORT $LN1@LoadInt_e@6
$LN90@LoadInt_e@6:
  00120	c6 45 f2 eb	 mov	 BYTE PTR __k$[ebp+6], -21 ; ffffffebH
  00124	eb 22		 jmp	 SHORT $LN1@LoadInt_e@6
$LN91@LoadInt_e@6:
  00126	c6 45 f1 ec	 mov	 BYTE PTR __k$[ebp+5], -20 ; ffffffecH
  0012a	eb 1c		 jmp	 SHORT $LN1@LoadInt_e@6
$LN92@LoadInt_e@6:
  0012c	c6 45 f0 ed	 mov	 BYTE PTR __k$[ebp+4], -19 ; ffffffedH
  00130	eb 16		 jmp	 SHORT $LN1@LoadInt_e@6
$LN93@LoadInt_e@6:
  00132	c6 45 ef ea	 mov	 BYTE PTR __k$[ebp+3], -22 ; ffffffeaH
  00136	eb 10		 jmp	 SHORT $LN1@LoadInt_e@6
$LN94@LoadInt_e@6:
  00138	c6 45 ee eb	 mov	 BYTE PTR __k$[ebp+2], -21 ; ffffffebH
  0013c	eb 0a		 jmp	 SHORT $LN1@LoadInt_e@6
$LN95@LoadInt_e@6:
  0013e	c6 45 ed ec	 mov	 BYTE PTR __k$[ebp+1], -20 ; ffffffecH
  00142	eb 04		 jmp	 SHORT $LN1@LoadInt_e@6
$LN96@LoadInt_e@6:
  00144	c6 45 ec ed	 mov	 BYTE PTR __k$[ebp], -19	; ffffffedH
$LN1@LoadInt_e@6:
  00148	6a 02		 push	 2
  0014a	8d 45 ec	 lea	 eax, DWORD PTR __k$[ebp]
  0014d	c6 45 f6 00	 mov	 BYTE PTR __k$[ebp+10], 0
  00151	5a		 pop	 edx
$LL104@LoadInt_e@6:
  00152	81 30 ed ec eb
	ea		 xor	 DWORD PTR [eax], -353637139 ; eaebecedH
  00158	83 c0 04	 add	 eax, 4
  0015b	4a		 dec	 edx
  0015c	75 f4		 jne	 SHORT $LL104@LoadInt_e@6
  0015e	6a 08		 push	 8
  00160	58		 pop	 eax
$LL101@LoadInt_e@6:
  00161	8b c8		 mov	 ecx, eax
  00163	81 e1 03 00 00
	80		 and	 ecx, -2147483645	; 80000003H
  00169	79 05		 jns	 SHORT $LN111@LoadInt_e@6
  0016b	49		 dec	 ecx
  0016c	83 c9 fc	 or	 ecx, -4			; fffffffcH
  0016f	41		 inc	 ecx
$LN111@LoadInt_e@6:
  00170	b2 ed		 mov	 dl, -19			; ffffffedH
  00172	2a d1		 sub	 dl, cl
  00174	30 54 05 ec	 xor	 BYTE PTR __k$[ebp+eax], dl
  00178	40		 inc	 eax
  00179	83 f8 0a	 cmp	 eax, 10			; 0000000aH
  0017c	7c e3		 jl	 SHORT $LL101@LoadInt_e@6

; 120  : 		return LoadInt(_k, i);

  0017e	ff 75 0c	 push	 DWORD PTR _i$[ebp]
  00181	8d 45 ec	 lea	 eax, DWORD PTR __k$[ebp]
  00184	50		 push	 eax
  00185	8b ce		 mov	 ecx, esi
  00187	ff 15 00 00 00
	00		 call	 DWORD PTR __imp_?LoadInt@ioINILoader@@QAEHPBDH@Z

; 121  : 	}

  0018d	8b 4d fc	 mov	 ecx, DWORD PTR __$ArrayPad$[ebp]
  00190	33 cd		 xor	 ecx, ebp
  00192	5e		 pop	 esi
  00193	e8 00 00 00 00	 call	 @__security_check_cookie@4
  00198	c9		 leave
  00199	c2 08 00	 ret	 8
??$LoadInt_e@$0L@@ioINILoader@@QAEHAAY0L@$$CBDH@Z ENDP	; ioINILoader::LoadInt_e<11>
_TEXT	ENDS
PUBLIC	__$ArrayPad$
PUBLIC	??$LoadFloat_e@$0BG@@ioINILoader@@QAEMAAY0BG@$$CBDM@Z ; ioINILoader::LoadFloat_e<22>
; Function compile flags: /Ogsp
;	COMDAT ??$LoadFloat_e@$0BG@@ioINILoader@@QAEMAAY0BG@$$CBDM@Z
_TEXT	SEGMENT
__k$ = -32						; size = 22
__$ArrayPad$ = -4					; size = 4
_k$ = 8							; size = 4
_f$ = 12						; size = 4
??$LoadFloat_e@$0BG@@ioINILoader@@QAEMAAY0BG@$$CBDM@Z PROC ; ioINILoader::LoadFloat_e<22>, COMDAT
; _this$ = ecx

; 135  : 	{

  00000	55		 push	 ebp
  00001	8b ec		 mov	 ebp, esp
  00003	83 ec 20	 sub	 esp, 32			; 00000020H
  00006	a1 00 00 00 00	 mov	 eax, DWORD PTR ___security_cookie
  0000b	33 c5		 xor	 eax, ebp
  0000d	89 45 fc	 mov	 DWORD PTR __$ArrayPad$[ebp], eax
  00010	8b 45 08	 mov	 eax, DWORD PTR _k$[ebp]

; 136  : 		_ENCSTR(k, _k);

  00013	8a 10		 mov	 dl, BYTE PTR [eax]
  00015	53		 push	 ebx
  00016	56		 push	 esi
  00017	8b f1		 mov	 esi, ecx
  00019	84 d2		 test	 dl, dl
  0001b	0f 84 15 02 00
	00		 je	 $LN96@LoadFloat_@3
  00021	80 f2 ed	 xor	 dl, -19			; ffffffedH
  00024	88 55 e0	 mov	 BYTE PTR __k$[ebp], dl
  00027	8a 50 01	 mov	 dl, BYTE PTR [eax+1]
  0002a	84 d2		 test	 dl, dl
  0002c	0f 84 fe 01 00
	00		 je	 $LN95@LoadFloat_@3
  00032	80 f2 ec	 xor	 dl, -20			; ffffffecH
  00035	88 55 e1	 mov	 BYTE PTR __k$[ebp+1], dl
  00038	8a 50 02	 mov	 dl, BYTE PTR [eax+2]
  0003b	84 d2		 test	 dl, dl
  0003d	0f 84 e7 01 00
	00		 je	 $LN94@LoadFloat_@3
  00043	b1 eb		 mov	 cl, -21			; ffffffebH
  00045	32 d1		 xor	 dl, cl
  00047	88 55 e2	 mov	 BYTE PTR __k$[ebp+2], dl
  0004a	8a 50 03	 mov	 dl, BYTE PTR [eax+3]
  0004d	84 d2		 test	 dl, dl
  0004f	0f 84 cf 01 00
	00		 je	 $LN93@LoadFloat_@3
  00055	b3 ea		 mov	 bl, -22			; ffffffeaH
  00057	32 d3		 xor	 dl, bl
  00059	88 55 e3	 mov	 BYTE PTR __k$[ebp+3], dl
  0005c	8a 50 04	 mov	 dl, BYTE PTR [eax+4]
  0005f	84 d2		 test	 dl, dl
  00061	0f 84 b7 01 00
	00		 je	 $LN92@LoadFloat_@3
  00067	80 f2 ed	 xor	 dl, -19			; ffffffedH
  0006a	88 55 e4	 mov	 BYTE PTR __k$[ebp+4], dl
  0006d	8a 50 05	 mov	 dl, BYTE PTR [eax+5]
  00070	84 d2		 test	 dl, dl
  00072	0f 84 a0 01 00
	00		 je	 $LN91@LoadFloat_@3
  00078	80 f2 ec	 xor	 dl, -20			; ffffffecH
  0007b	88 55 e5	 mov	 BYTE PTR __k$[ebp+5], dl
  0007e	8a 50 06	 mov	 dl, BYTE PTR [eax+6]
  00081	84 d2		 test	 dl, dl
  00083	0f 84 8a 01 00
	00		 je	 $LN90@LoadFloat_@3
  00089	32 d1		 xor	 dl, cl
  0008b	88 55 e6	 mov	 BYTE PTR __k$[ebp+6], dl
  0008e	8a 50 07	 mov	 dl, BYTE PTR [eax+7]
  00091	84 d2		 test	 dl, dl
  00093	0f 84 75 01 00
	00		 je	 $LN89@LoadFloat_@3
  00099	32 d3		 xor	 dl, bl
  0009b	88 55 e7	 mov	 BYTE PTR __k$[ebp+7], dl
  0009e	8a 50 08	 mov	 dl, BYTE PTR [eax+8]
  000a1	84 d2		 test	 dl, dl
  000a3	0f 84 5f 01 00
	00		 je	 $LN88@LoadFloat_@3
  000a9	80 f2 ed	 xor	 dl, -19			; ffffffedH
  000ac	88 55 e8	 mov	 BYTE PTR __k$[ebp+8], dl
  000af	8a 50 09	 mov	 dl, BYTE PTR [eax+9]
  000b2	84 d2		 test	 dl, dl
  000b4	0f 84 48 01 00
	00		 je	 $LN87@LoadFloat_@3
  000ba	80 f2 ec	 xor	 dl, -20			; ffffffecH
  000bd	88 55 e9	 mov	 BYTE PTR __k$[ebp+9], dl
  000c0	8a 50 0a	 mov	 dl, BYTE PTR [eax+10]
  000c3	84 d2		 test	 dl, dl
  000c5	0f 84 32 01 00
	00		 je	 $LN86@LoadFloat_@3
  000cb	32 d1		 xor	 dl, cl
  000cd	88 55 ea	 mov	 BYTE PTR __k$[ebp+10], dl
  000d0	8a 50 0b	 mov	 dl, BYTE PTR [eax+11]
  000d3	84 d2		 test	 dl, dl
  000d5	0f 84 1d 01 00
	00		 je	 $LN85@LoadFloat_@3
  000db	32 d3		 xor	 dl, bl
  000dd	88 55 eb	 mov	 BYTE PTR __k$[ebp+11], dl
  000e0	8a 50 0c	 mov	 dl, BYTE PTR [eax+12]
  000e3	84 d2		 test	 dl, dl
  000e5	0f 84 07 01 00
	00		 je	 $LN84@LoadFloat_@3
  000eb	80 f2 ed	 xor	 dl, -19			; ffffffedH
  000ee	88 55 ec	 mov	 BYTE PTR __k$[ebp+12], dl
  000f1	8a 50 0d	 mov	 dl, BYTE PTR [eax+13]
  000f4	84 d2		 test	 dl, dl
  000f6	0f 84 f0 00 00
	00		 je	 $LN83@LoadFloat_@3
  000fc	80 f2 ec	 xor	 dl, -20			; ffffffecH
  000ff	88 55 ed	 mov	 BYTE PTR __k$[ebp+13], dl
  00102	8a 50 0e	 mov	 dl, BYTE PTR [eax+14]
  00105	84 d2		 test	 dl, dl
  00107	0f 84 da 00 00
	00		 je	 $LN82@LoadFloat_@3
  0010d	32 d1		 xor	 dl, cl
  0010f	88 55 ee	 mov	 BYTE PTR __k$[ebp+14], dl
  00112	8a 50 0f	 mov	 dl, BYTE PTR [eax+15]
  00115	84 d2		 test	 dl, dl
  00117	0f 84 c5 00 00
	00		 je	 $LN81@LoadFloat_@3
  0011d	32 d3		 xor	 dl, bl
  0011f	88 55 ef	 mov	 BYTE PTR __k$[ebp+15], dl
  00122	8a 50 10	 mov	 dl, BYTE PTR [eax+16]
  00125	84 d2		 test	 dl, dl
  00127	0f 84 af 00 00
	00		 je	 $LN80@LoadFloat_@3
  0012d	80 f2 ed	 xor	 dl, -19			; ffffffedH
  00130	88 55 f0	 mov	 BYTE PTR __k$[ebp+16], dl
  00133	8a 50 11	 mov	 dl, BYTE PTR [eax+17]
  00136	84 d2		 test	 dl, dl
  00138	0f 84 98 00 00
	00		 je	 $LN79@LoadFloat_@3
  0013e	80 f2 ec	 xor	 dl, -20			; ffffffecH
  00141	88 55 f1	 mov	 BYTE PTR __k$[ebp+17], dl
  00144	8a 50 12	 mov	 dl, BYTE PTR [eax+18]
  00147	84 d2		 test	 dl, dl
  00149	0f 84 82 00 00
	00		 je	 $LN78@LoadFloat_@3
  0014f	32 d1		 xor	 dl, cl
  00151	88 55 f2	 mov	 BYTE PTR __k$[ebp+18], dl
  00154	8a 50 13	 mov	 dl, BYTE PTR [eax+19]
  00157	84 d2		 test	 dl, dl
  00159	74 71		 je	 SHORT $LN77@LoadFloat_@3
  0015b	32 d3		 xor	 dl, bl
  0015d	88 55 f3	 mov	 BYTE PTR __k$[ebp+19], dl
  00160	8a 50 14	 mov	 dl, BYTE PTR [eax+20]
  00163	84 d2		 test	 dl, dl
  00165	74 5f		 je	 SHORT $LN76@LoadFloat_@3
  00167	80 f2 ed	 xor	 dl, -19			; ffffffedH
  0016a	80 78 15 00	 cmp	 BYTE PTR [eax+21], 0
  0016e	88 55 f4	 mov	 BYTE PTR __k$[ebp+20], dl
  00171	0f 84 c3 00 00
	00		 je	 $LN1@LoadFloat_@3
  00177	8a 50 16	 mov	 dl, BYTE PTR [eax+22]
  0017a	84 d2		 test	 dl, dl
  0017c	74 43		 je	 SHORT $LN74@LoadFloat_@3
  0017e	32 d1		 xor	 dl, cl
  00180	88 55 f6	 mov	 BYTE PTR __k$[ebp+22], dl
  00183	8a 50 17	 mov	 dl, BYTE PTR [eax+23]
  00186	84 d2		 test	 dl, dl
  00188	74 32		 je	 SHORT $LN73@LoadFloat_@3
  0018a	32 d3		 xor	 dl, bl
  0018c	88 55 f7	 mov	 BYTE PTR __k$[ebp+23], dl
  0018f	8a 50 18	 mov	 dl, BYTE PTR [eax+24]
  00192	84 d2		 test	 dl, dl
  00194	74 20		 je	 SHORT $LN72@LoadFloat_@3
  00196	8a 40 19	 mov	 al, BYTE PTR [eax+25]
  00199	80 f2 ed	 xor	 dl, -19			; ffffffedH
  0019c	88 55 f8	 mov	 BYTE PTR __k$[ebp+24], dl
  0019f	84 c0		 test	 al, al
  001a1	74 0a		 je	 SHORT $LN71@LoadFloat_@3
  001a3	34 ec		 xor	 al, -20			; ffffffecH
  001a5	88 45 f9	 mov	 BYTE PTR __k$[ebp+25], al
  001a8	e9 8d 00 00 00	 jmp	 $LN1@LoadFloat_@3
$LN71@LoadFloat_@3:
  001ad	c6 45 f9 ec	 mov	 BYTE PTR __k$[ebp+25], -20 ; ffffffecH
  001b1	e9 84 00 00 00	 jmp	 $LN1@LoadFloat_@3
$LN72@LoadFloat_@3:
  001b6	c6 45 f8 ed	 mov	 BYTE PTR __k$[ebp+24], -19 ; ffffffedH
  001ba	eb 7e		 jmp	 SHORT $LN1@LoadFloat_@3
$LN73@LoadFloat_@3:
  001bc	88 5d f7	 mov	 BYTE PTR __k$[ebp+23], bl
  001bf	eb 79		 jmp	 SHORT $LN1@LoadFloat_@3
$LN74@LoadFloat_@3:
  001c1	88 4d f6	 mov	 BYTE PTR __k$[ebp+22], cl
  001c4	eb 74		 jmp	 SHORT $LN1@LoadFloat_@3
$LN76@LoadFloat_@3:
  001c6	c6 45 f4 ed	 mov	 BYTE PTR __k$[ebp+20], -19 ; ffffffedH
  001ca	eb 6e		 jmp	 SHORT $LN1@LoadFloat_@3
$LN77@LoadFloat_@3:
  001cc	88 5d f3	 mov	 BYTE PTR __k$[ebp+19], bl
  001cf	eb 69		 jmp	 SHORT $LN1@LoadFloat_@3
$LN78@LoadFloat_@3:
  001d1	88 4d f2	 mov	 BYTE PTR __k$[ebp+18], cl
  001d4	eb 64		 jmp	 SHORT $LN1@LoadFloat_@3
$LN79@LoadFloat_@3:
  001d6	c6 45 f1 ec	 mov	 BYTE PTR __k$[ebp+17], -20 ; ffffffecH
  001da	eb 5e		 jmp	 SHORT $LN1@LoadFloat_@3
$LN80@LoadFloat_@3:
  001dc	c6 45 f0 ed	 mov	 BYTE PTR __k$[ebp+16], -19 ; ffffffedH
  001e0	eb 58		 jmp	 SHORT $LN1@LoadFloat_@3
$LN81@LoadFloat_@3:
  001e2	88 5d ef	 mov	 BYTE PTR __k$[ebp+15], bl
  001e5	eb 53		 jmp	 SHORT $LN1@LoadFloat_@3
$LN82@LoadFloat_@3:
  001e7	88 4d ee	 mov	 BYTE PTR __k$[ebp+14], cl
  001ea	eb 4e		 jmp	 SHORT $LN1@LoadFloat_@3
$LN83@LoadFloat_@3:
  001ec	c6 45 ed ec	 mov	 BYTE PTR __k$[ebp+13], -20 ; ffffffecH
  001f0	eb 48		 jmp	 SHORT $LN1@LoadFloat_@3
$LN84@LoadFloat_@3:
  001f2	c6 45 ec ed	 mov	 BYTE PTR __k$[ebp+12], -19 ; ffffffedH
  001f6	eb 42		 jmp	 SHORT $LN1@LoadFloat_@3
$LN85@LoadFloat_@3:
  001f8	88 5d eb	 mov	 BYTE PTR __k$[ebp+11], bl
  001fb	eb 3d		 jmp	 SHORT $LN1@LoadFloat_@3
$LN86@LoadFloat_@3:
  001fd	88 4d ea	 mov	 BYTE PTR __k$[ebp+10], cl
  00200	eb 38		 jmp	 SHORT $LN1@LoadFloat_@3
$LN87@LoadFloat_@3:
  00202	c6 45 e9 ec	 mov	 BYTE PTR __k$[ebp+9], -20 ; ffffffecH
  00206	eb 32		 jmp	 SHORT $LN1@LoadFloat_@3
$LN88@LoadFloat_@3:
  00208	c6 45 e8 ed	 mov	 BYTE PTR __k$[ebp+8], -19 ; ffffffedH
  0020c	eb 2c		 jmp	 SHORT $LN1@LoadFloat_@3
$LN89@LoadFloat_@3:
  0020e	88 5d e7	 mov	 BYTE PTR __k$[ebp+7], bl
  00211	eb 27		 jmp	 SHORT $LN1@LoadFloat_@3
$LN90@LoadFloat_@3:
  00213	88 4d e6	 mov	 BYTE PTR __k$[ebp+6], cl
  00216	eb 22		 jmp	 SHORT $LN1@LoadFloat_@3
$LN91@LoadFloat_@3:
  00218	c6 45 e5 ec	 mov	 BYTE PTR __k$[ebp+5], -20 ; ffffffecH
  0021c	eb 1c		 jmp	 SHORT $LN1@LoadFloat_@3
$LN92@LoadFloat_@3:
  0021e	c6 45 e4 ed	 mov	 BYTE PTR __k$[ebp+4], -19 ; ffffffedH
  00222	eb 16		 jmp	 SHORT $LN1@LoadFloat_@3
$LN93@LoadFloat_@3:
  00224	c6 45 e3 ea	 mov	 BYTE PTR __k$[ebp+3], -22 ; ffffffeaH
  00228	eb 10		 jmp	 SHORT $LN1@LoadFloat_@3
$LN94@LoadFloat_@3:
  0022a	c6 45 e2 eb	 mov	 BYTE PTR __k$[ebp+2], -21 ; ffffffebH
  0022e	eb 0a		 jmp	 SHORT $LN1@LoadFloat_@3
$LN95@LoadFloat_@3:
  00230	c6 45 e1 ec	 mov	 BYTE PTR __k$[ebp+1], -20 ; ffffffecH
  00234	eb 04		 jmp	 SHORT $LN1@LoadFloat_@3
$LN96@LoadFloat_@3:
  00236	c6 45 e0 ed	 mov	 BYTE PTR __k$[ebp], -19	; ffffffedH
$LN1@LoadFloat_@3:
  0023a	6a 05		 push	 5
  0023c	8d 45 e0	 lea	 eax, DWORD PTR __k$[ebp]
  0023f	c6 45 f5 00	 mov	 BYTE PTR __k$[ebp+21], 0
  00243	5a		 pop	 edx
$LL104@LoadFloat_@3:
  00244	81 30 ed ec eb
	ea		 xor	 DWORD PTR [eax], -353637139 ; eaebecedH
  0024a	83 c0 04	 add	 eax, 4
  0024d	4a		 dec	 edx
  0024e	75 f4		 jne	 SHORT $LL104@LoadFloat_@3

; 137  : 		return LoadFloat(_k, f);

  00250	f3 0f 10 45 0c	 movss	 xmm0, DWORD PTR _f$[ebp]
  00255	80 75 f4 ed	 xor	 BYTE PTR __k$[ebp+20], -19 ; ffffffedH
  00259	51		 push	 ecx
  0025a	8d 45 e0	 lea	 eax, DWORD PTR __k$[ebp]
  0025d	f3 0f 11 04 24	 movss	 DWORD PTR [esp], xmm0
  00262	50		 push	 eax
  00263	8b ce		 mov	 ecx, esi
  00265	ff 15 00 00 00
	00		 call	 DWORD PTR __imp_?LoadFloat@ioINILoader@@QAEMPBDM@Z

; 138  : 	}

  0026b	8b 4d fc	 mov	 ecx, DWORD PTR __$ArrayPad$[ebp]
  0026e	5e		 pop	 esi
  0026f	33 cd		 xor	 ecx, ebp
  00271	5b		 pop	 ebx
  00272	e8 00 00 00 00	 call	 @__security_check_cookie@4
  00277	c9		 leave
  00278	c2 08 00	 ret	 8
??$LoadFloat_e@$0BG@@ioINILoader@@QAEMAAY0BG@$$CBDM@Z ENDP ; ioINILoader::LoadFloat_e<22>
_TEXT	ENDS
PUBLIC	__$ArrayPad$
PUBLIC	??$LoadFloat_e@$0BH@@ioINILoader@@QAEMAAY0BH@$$CBDM@Z ; ioINILoader::LoadFloat_e<23>
; Function compile flags: /Ogsp
;	COMDAT ??$LoadFloat_e@$0BH@@ioINILoader@@QAEMAAY0BH@$$CBDM@Z
_TEXT	SEGMENT
__k$ = -32						; size = 23
__$ArrayPad$ = -4					; size = 4
_k$ = 8							; size = 4
_f$ = 12						; size = 4
??$LoadFloat_e@$0BH@@ioINILoader@@QAEMAAY0BH@$$CBDM@Z PROC ; ioINILoader::LoadFloat_e<23>, COMDAT
; _this$ = ecx

; 135  : 	{

  00000	55		 push	 ebp
  00001	8b ec		 mov	 ebp, esp
  00003	83 ec 20	 sub	 esp, 32			; 00000020H
  00006	a1 00 00 00 00	 mov	 eax, DWORD PTR ___security_cookie
  0000b	33 c5		 xor	 eax, ebp
  0000d	89 45 fc	 mov	 DWORD PTR __$ArrayPad$[ebp], eax
  00010	8b 45 08	 mov	 eax, DWORD PTR _k$[ebp]

; 136  : 		_ENCSTR(k, _k);

  00013	8a 10		 mov	 dl, BYTE PTR [eax]
  00015	53		 push	 ebx
  00016	56		 push	 esi
  00017	8b f1		 mov	 esi, ecx
  00019	84 d2		 test	 dl, dl
  0001b	0f 84 2d 02 00
	00		 je	 $LN96@LoadFloat_@4
  00021	80 f2 ed	 xor	 dl, -19			; ffffffedH
  00024	88 55 e0	 mov	 BYTE PTR __k$[ebp], dl
  00027	8a 50 01	 mov	 dl, BYTE PTR [eax+1]
  0002a	84 d2		 test	 dl, dl
  0002c	0f 84 16 02 00
	00		 je	 $LN95@LoadFloat_@4
  00032	b1 ec		 mov	 cl, -20			; ffffffecH
  00034	32 d1		 xor	 dl, cl
  00036	88 55 e1	 mov	 BYTE PTR __k$[ebp+1], dl
  00039	8a 50 02	 mov	 dl, BYTE PTR [eax+2]
  0003c	84 d2		 test	 dl, dl
  0003e	0f 84 fe 01 00
	00		 je	 $LN94@LoadFloat_@4
  00044	80 f2 eb	 xor	 dl, -21			; ffffffebH
  00047	88 55 e2	 mov	 BYTE PTR __k$[ebp+2], dl
  0004a	8a 50 03	 mov	 dl, BYTE PTR [eax+3]
  0004d	84 d2		 test	 dl, dl
  0004f	0f 84 e7 01 00
	00		 je	 $LN93@LoadFloat_@4
  00055	b3 ea		 mov	 bl, -22			; ffffffeaH
  00057	32 d3		 xor	 dl, bl
  00059	88 55 e3	 mov	 BYTE PTR __k$[ebp+3], dl
  0005c	8a 50 04	 mov	 dl, BYTE PTR [eax+4]
  0005f	84 d2		 test	 dl, dl
  00061	0f 84 cf 01 00
	00		 je	 $LN92@LoadFloat_@4
  00067	80 f2 ed	 xor	 dl, -19			; ffffffedH
  0006a	88 55 e4	 mov	 BYTE PTR __k$[ebp+4], dl
  0006d	8a 50 05	 mov	 dl, BYTE PTR [eax+5]
  00070	84 d2		 test	 dl, dl
  00072	0f 84 b9 01 00
	00		 je	 $LN91@LoadFloat_@4
  00078	32 d1		 xor	 dl, cl
  0007a	88 55 e5	 mov	 BYTE PTR __k$[ebp+5], dl
  0007d	8a 50 06	 mov	 dl, BYTE PTR [eax+6]
  00080	84 d2		 test	 dl, dl
  00082	0f 84 a3 01 00
	00		 je	 $LN90@LoadFloat_@4
  00088	80 f2 eb	 xor	 dl, -21			; ffffffebH
  0008b	88 55 e6	 mov	 BYTE PTR __k$[ebp+6], dl
  0008e	8a 50 07	 mov	 dl, BYTE PTR [eax+7]
  00091	84 d2		 test	 dl, dl
  00093	0f 84 8d 01 00
	00		 je	 $LN89@LoadFloat_@4
  00099	32 d3		 xor	 dl, bl
  0009b	88 55 e7	 mov	 BYTE PTR __k$[ebp+7], dl
  0009e	8a 50 08	 mov	 dl, BYTE PTR [eax+8]
  000a1	84 d2		 test	 dl, dl
  000a3	0f 84 77 01 00
	00		 je	 $LN88@LoadFloat_@4
  000a9	80 f2 ed	 xor	 dl, -19			; ffffffedH
  000ac	88 55 e8	 mov	 BYTE PTR __k$[ebp+8], dl
  000af	8a 50 09	 mov	 dl, BYTE PTR [eax+9]
  000b2	84 d2		 test	 dl, dl
  000b4	0f 84 61 01 00
	00		 je	 $LN87@LoadFloat_@4
  000ba	32 d1		 xor	 dl, cl
  000bc	88 55 e9	 mov	 BYTE PTR __k$[ebp+9], dl
  000bf	8a 50 0a	 mov	 dl, BYTE PTR [eax+10]
  000c2	84 d2		 test	 dl, dl
  000c4	0f 84 4b 01 00
	00		 je	 $LN86@LoadFloat_@4
  000ca	80 f2 eb	 xor	 dl, -21			; ffffffebH
  000cd	88 55 ea	 mov	 BYTE PTR __k$[ebp+10], dl
  000d0	8a 50 0b	 mov	 dl, BYTE PTR [eax+11]
  000d3	84 d2		 test	 dl, dl
  000d5	0f 84 35 01 00
	00		 je	 $LN85@LoadFloat_@4
  000db	32 d3		 xor	 dl, bl
  000dd	88 55 eb	 mov	 BYTE PTR __k$[ebp+11], dl
  000e0	8a 50 0c	 mov	 dl, BYTE PTR [eax+12]
  000e3	84 d2		 test	 dl, dl
  000e5	0f 84 1f 01 00
	00		 je	 $LN84@LoadFloat_@4
  000eb	80 f2 ed	 xor	 dl, -19			; ffffffedH
  000ee	88 55 ec	 mov	 BYTE PTR __k$[ebp+12], dl
  000f1	8a 50 0d	 mov	 dl, BYTE PTR [eax+13]
  000f4	84 d2		 test	 dl, dl
  000f6	0f 84 09 01 00
	00		 je	 $LN83@LoadFloat_@4
  000fc	32 d1		 xor	 dl, cl
  000fe	88 55 ed	 mov	 BYTE PTR __k$[ebp+13], dl
  00101	8a 50 0e	 mov	 dl, BYTE PTR [eax+14]
  00104	84 d2		 test	 dl, dl
  00106	0f 84 f3 00 00
	00		 je	 $LN82@LoadFloat_@4
  0010c	80 f2 eb	 xor	 dl, -21			; ffffffebH
  0010f	88 55 ee	 mov	 BYTE PTR __k$[ebp+14], dl
  00112	8a 50 0f	 mov	 dl, BYTE PTR [eax+15]
  00115	84 d2		 test	 dl, dl
  00117	0f 84 dd 00 00
	00		 je	 $LN81@LoadFloat_@4
  0011d	32 d3		 xor	 dl, bl
  0011f	88 55 ef	 mov	 BYTE PTR __k$[ebp+15], dl
  00122	8a 50 10	 mov	 dl, BYTE PTR [eax+16]
  00125	84 d2		 test	 dl, dl
  00127	0f 84 c7 00 00
	00		 je	 $LN80@LoadFloat_@4
  0012d	80 f2 ed	 xor	 dl, -19			; ffffffedH
  00130	88 55 f0	 mov	 BYTE PTR __k$[ebp+16], dl
  00133	8a 50 11	 mov	 dl, BYTE PTR [eax+17]
  00136	84 d2		 test	 dl, dl
  00138	0f 84 b1 00 00
	00		 je	 $LN79@LoadFloat_@4
  0013e	32 d1		 xor	 dl, cl
  00140	88 55 f1	 mov	 BYTE PTR __k$[ebp+17], dl
  00143	8a 50 12	 mov	 dl, BYTE PTR [eax+18]
  00146	84 d2		 test	 dl, dl
  00148	0f 84 9b 00 00
	00		 je	 $LN78@LoadFloat_@4
  0014e	80 f2 eb	 xor	 dl, -21			; ffffffebH
  00151	88 55 f2	 mov	 BYTE PTR __k$[ebp+18], dl
  00154	8a 50 13	 mov	 dl, BYTE PTR [eax+19]
  00157	84 d2		 test	 dl, dl
  00159	0f 84 85 00 00
	00		 je	 $LN77@LoadFloat_@4
  0015f	32 d3		 xor	 dl, bl
  00161	88 55 f3	 mov	 BYTE PTR __k$[ebp+19], dl
  00164	8a 50 14	 mov	 dl, BYTE PTR [eax+20]
  00167	84 d2		 test	 dl, dl
  00169	74 73		 je	 SHORT $LN76@LoadFloat_@4
  0016b	80 f2 ed	 xor	 dl, -19			; ffffffedH
  0016e	88 55 f4	 mov	 BYTE PTR __k$[ebp+20], dl
  00171	8a 50 15	 mov	 dl, BYTE PTR [eax+21]
  00174	84 d2		 test	 dl, dl
  00176	74 61		 je	 SHORT $LN75@LoadFloat_@4
  00178	32 d1		 xor	 dl, cl
  0017a	80 78 16 00	 cmp	 BYTE PTR [eax+22], 0
  0017e	88 55 f5	 mov	 BYTE PTR __k$[ebp+21], dl
  00181	0f 84 cb 00 00
	00		 je	 $LN1@LoadFloat_@4
  00187	8a 50 17	 mov	 dl, BYTE PTR [eax+23]
  0018a	84 d2		 test	 dl, dl
  0018c	74 46		 je	 SHORT $LN73@LoadFloat_@4
  0018e	32 d3		 xor	 dl, bl
  00190	88 55 f7	 mov	 BYTE PTR __k$[ebp+23], dl
  00193	8a 50 18	 mov	 dl, BYTE PTR [eax+24]
  00196	84 d2		 test	 dl, dl
  00198	74 34		 je	 SHORT $LN72@LoadFloat_@4
  0019a	80 f2 ed	 xor	 dl, -19			; ffffffedH
  0019d	88 55 f8	 mov	 BYTE PTR __k$[ebp+24], dl
  001a0	8a 50 19	 mov	 dl, BYTE PTR [eax+25]
  001a3	84 d2		 test	 dl, dl
  001a5	74 1f		 je	 SHORT $LN71@LoadFloat_@4
  001a7	8a 40 1a	 mov	 al, BYTE PTR [eax+26]
  001aa	32 d1		 xor	 dl, cl
  001ac	88 55 f9	 mov	 BYTE PTR __k$[ebp+25], dl
  001af	84 c0		 test	 al, al
  001b1	74 0a		 je	 SHORT $LN70@LoadFloat_@4
  001b3	34 eb		 xor	 al, -21			; ffffffebH
  001b5	88 45 fa	 mov	 BYTE PTR __k$[ebp+26], al
  001b8	e9 95 00 00 00	 jmp	 $LN1@LoadFloat_@4
$LN70@LoadFloat_@4:
  001bd	c6 45 fa eb	 mov	 BYTE PTR __k$[ebp+26], -21 ; ffffffebH
  001c1	e9 8c 00 00 00	 jmp	 $LN1@LoadFloat_@4
$LN71@LoadFloat_@4:
  001c6	88 4d f9	 mov	 BYTE PTR __k$[ebp+25], cl
  001c9	e9 84 00 00 00	 jmp	 $LN1@LoadFloat_@4
$LN72@LoadFloat_@4:
  001ce	c6 45 f8 ed	 mov	 BYTE PTR __k$[ebp+24], -19 ; ffffffedH
  001d2	eb 7e		 jmp	 SHORT $LN1@LoadFloat_@4
$LN73@LoadFloat_@4:
  001d4	88 5d f7	 mov	 BYTE PTR __k$[ebp+23], bl
  001d7	eb 79		 jmp	 SHORT $LN1@LoadFloat_@4
$LN75@LoadFloat_@4:
  001d9	88 4d f5	 mov	 BYTE PTR __k$[ebp+21], cl
  001dc	eb 74		 jmp	 SHORT $LN1@LoadFloat_@4
$LN76@LoadFloat_@4:
  001de	c6 45 f4 ed	 mov	 BYTE PTR __k$[ebp+20], -19 ; ffffffedH
  001e2	eb 6e		 jmp	 SHORT $LN1@LoadFloat_@4
$LN77@LoadFloat_@4:
  001e4	88 5d f3	 mov	 BYTE PTR __k$[ebp+19], bl
  001e7	eb 69		 jmp	 SHORT $LN1@LoadFloat_@4
$LN78@LoadFloat_@4:
  001e9	c6 45 f2 eb	 mov	 BYTE PTR __k$[ebp+18], -21 ; ffffffebH
  001ed	eb 63		 jmp	 SHORT $LN1@LoadFloat_@4
$LN79@LoadFloat_@4:
  001ef	88 4d f1	 mov	 BYTE PTR __k$[ebp+17], cl
  001f2	eb 5e		 jmp	 SHORT $LN1@LoadFloat_@4
$LN80@LoadFloat_@4:
  001f4	c6 45 f0 ed	 mov	 BYTE PTR __k$[ebp+16], -19 ; ffffffedH
  001f8	eb 58		 jmp	 SHORT $LN1@LoadFloat_@4
$LN81@LoadFloat_@4:
  001fa	88 5d ef	 mov	 BYTE PTR __k$[ebp+15], bl
  001fd	eb 53		 jmp	 SHORT $LN1@LoadFloat_@4
$LN82@LoadFloat_@4:
  001ff	c6 45 ee eb	 mov	 BYTE PTR __k$[ebp+14], -21 ; ffffffebH
  00203	eb 4d		 jmp	 SHORT $LN1@LoadFloat_@4
$LN83@LoadFloat_@4:
  00205	88 4d ed	 mov	 BYTE PTR __k$[ebp+13], cl
  00208	eb 48		 jmp	 SHORT $LN1@LoadFloat_@4
$LN84@LoadFloat_@4:
  0020a	c6 45 ec ed	 mov	 BYTE PTR __k$[ebp+12], -19 ; ffffffedH
  0020e	eb 42		 jmp	 SHORT $LN1@LoadFloat_@4
$LN85@LoadFloat_@4:
  00210	88 5d eb	 mov	 BYTE PTR __k$[ebp+11], bl
  00213	eb 3d		 jmp	 SHORT $LN1@LoadFloat_@4
$LN86@LoadFloat_@4:
  00215	c6 45 ea eb	 mov	 BYTE PTR __k$[ebp+10], -21 ; ffffffebH
  00219	eb 37		 jmp	 SHORT $LN1@LoadFloat_@4
$LN87@LoadFloat_@4:
  0021b	88 4d e9	 mov	 BYTE PTR __k$[ebp+9], cl
  0021e	eb 32		 jmp	 SHORT $LN1@LoadFloat_@4
$LN88@LoadFloat_@4:
  00220	c6 45 e8 ed	 mov	 BYTE PTR __k$[ebp+8], -19 ; ffffffedH
  00224	eb 2c		 jmp	 SHORT $LN1@LoadFloat_@4
$LN89@LoadFloat_@4:
  00226	88 5d e7	 mov	 BYTE PTR __k$[ebp+7], bl
  00229	eb 27		 jmp	 SHORT $LN1@LoadFloat_@4
$LN90@LoadFloat_@4:
  0022b	c6 45 e6 eb	 mov	 BYTE PTR __k$[ebp+6], -21 ; ffffffebH
  0022f	eb 21		 jmp	 SHORT $LN1@LoadFloat_@4
$LN91@LoadFloat_@4:
  00231	88 4d e5	 mov	 BYTE PTR __k$[ebp+5], cl
  00234	eb 1c		 jmp	 SHORT $LN1@LoadFloat_@4
$LN92@LoadFloat_@4:
  00236	c6 45 e4 ed	 mov	 BYTE PTR __k$[ebp+4], -19 ; ffffffedH
  0023a	eb 16		 jmp	 SHORT $LN1@LoadFloat_@4
$LN93@LoadFloat_@4:
  0023c	c6 45 e3 ea	 mov	 BYTE PTR __k$[ebp+3], -22 ; ffffffeaH
  00240	eb 10		 jmp	 SHORT $LN1@LoadFloat_@4
$LN94@LoadFloat_@4:
  00242	c6 45 e2 eb	 mov	 BYTE PTR __k$[ebp+2], -21 ; ffffffebH
  00246	eb 0a		 jmp	 SHORT $LN1@LoadFloat_@4
$LN95@LoadFloat_@4:
  00248	c6 45 e1 ec	 mov	 BYTE PTR __k$[ebp+1], -20 ; ffffffecH
  0024c	eb 04		 jmp	 SHORT $LN1@LoadFloat_@4
$LN96@LoadFloat_@4:
  0024e	c6 45 e0 ed	 mov	 BYTE PTR __k$[ebp], -19	; ffffffedH
$LN1@LoadFloat_@4:
  00252	6a 05		 push	 5
  00254	8d 45 e0	 lea	 eax, DWORD PTR __k$[ebp]
  00257	c6 45 f6 00	 mov	 BYTE PTR __k$[ebp+22], 0
  0025b	5a		 pop	 edx
$LL104@LoadFloat_@4:
  0025c	81 30 ed ec eb
	ea		 xor	 DWORD PTR [eax], -353637139 ; eaebecedH
  00262	83 c0 04	 add	 eax, 4
  00265	4a		 dec	 edx
  00266	75 f4		 jne	 SHORT $LL104@LoadFloat_@4
  00268	6a 14		 push	 20			; 00000014H
  0026a	58		 pop	 eax
$LL101@LoadFloat_@4:
  0026b	8b c8		 mov	 ecx, eax
  0026d	81 e1 03 00 00
	80		 and	 ecx, -2147483645	; 80000003H
  00273	79 05		 jns	 SHORT $LN111@LoadFloat_@4
  00275	49		 dec	 ecx
  00276	83 c9 fc	 or	 ecx, -4			; fffffffcH
  00279	41		 inc	 ecx
$LN111@LoadFloat_@4:
  0027a	b2 ed		 mov	 dl, -19			; ffffffedH
  0027c	2a d1		 sub	 dl, cl
  0027e	30 54 05 e0	 xor	 BYTE PTR __k$[ebp+eax], dl
  00282	40		 inc	 eax
  00283	83 f8 16	 cmp	 eax, 22			; 00000016H
  00286	7c e3		 jl	 SHORT $LL101@LoadFloat_@4

; 137  : 		return LoadFloat(_k, f);

  00288	f3 0f 10 45 0c	 movss	 xmm0, DWORD PTR _f$[ebp]
  0028d	51		 push	 ecx
  0028e	8d 45 e0	 lea	 eax, DWORD PTR __k$[ebp]
  00291	f3 0f 11 04 24	 movss	 DWORD PTR [esp], xmm0
  00296	50		 push	 eax
  00297	8b ce		 mov	 ecx, esi
  00299	ff 15 00 00 00
	00		 call	 DWORD PTR __imp_?LoadFloat@ioINILoader@@QAEMPBDM@Z

; 138  : 	}

  0029f	8b 4d fc	 mov	 ecx, DWORD PTR __$ArrayPad$[ebp]
  002a2	5e		 pop	 esi
  002a3	33 cd		 xor	 ecx, ebp
  002a5	5b		 pop	 ebx
  002a6	e8 00 00 00 00	 call	 @__security_check_cookie@4
  002ab	c9		 leave
  002ac	c2 08 00	 ret	 8
??$LoadFloat_e@$0BH@@ioINILoader@@QAEMAAY0BH@$$CBDM@Z ENDP ; ioINILoader::LoadFloat_e<23>
_TEXT	ENDS
PUBLIC	__$ArrayPad$
PUBLIC	??$LoadFloat_e@$0BB@@ioINILoader@@QAEMAAY0BB@$$CBDM@Z ; ioINILoader::LoadFloat_e<17>
; Function compile flags: /Ogsp
;	COMDAT ??$LoadFloat_e@$0BB@@ioINILoader@@QAEMAAY0BB@$$CBDM@Z
_TEXT	SEGMENT
__k$ = -28						; size = 17
__$ArrayPad$ = -4					; size = 4
_k$ = 8							; size = 4
_f$ = 12						; size = 4
??$LoadFloat_e@$0BB@@ioINILoader@@QAEMAAY0BB@$$CBDM@Z PROC ; ioINILoader::LoadFloat_e<17>, COMDAT
; _this$ = ecx

; 135  : 	{

  00000	55		 push	 ebp
  00001	8b ec		 mov	 ebp, esp
  00003	83 ec 1c	 sub	 esp, 28			; 0000001cH
  00006	a1 00 00 00 00	 mov	 eax, DWORD PTR ___security_cookie
  0000b	33 c5		 xor	 eax, ebp
  0000d	89 45 fc	 mov	 DWORD PTR __$ArrayPad$[ebp], eax
  00010	8b 45 08	 mov	 eax, DWORD PTR _k$[ebp]

; 136  : 		_ENCSTR(k, _k);

  00013	8a 10		 mov	 dl, BYTE PTR [eax]
  00015	56		 push	 esi
  00016	8b f1		 mov	 esi, ecx
  00018	84 d2		 test	 dl, dl
  0001a	0f 84 a7 01 00
	00		 je	 $LN96@LoadFloat_@5
  00020	80 f2 ed	 xor	 dl, -19			; ffffffedH
  00023	88 55 e4	 mov	 BYTE PTR __k$[ebp], dl
  00026	8a 50 01	 mov	 dl, BYTE PTR [eax+1]
  00029	84 d2		 test	 dl, dl
  0002b	0f 84 90 01 00
	00		 je	 $LN95@LoadFloat_@5
  00031	b1 ec		 mov	 cl, -20			; ffffffecH
  00033	32 d1		 xor	 dl, cl
  00035	88 55 e5	 mov	 BYTE PTR __k$[ebp+1], dl
  00038	8a 50 02	 mov	 dl, BYTE PTR [eax+2]
  0003b	84 d2		 test	 dl, dl
  0003d	0f 84 78 01 00
	00		 je	 $LN94@LoadFloat_@5
  00043	80 f2 eb	 xor	 dl, -21			; ffffffebH
  00046	88 55 e6	 mov	 BYTE PTR __k$[ebp+2], dl
  00049	8a 50 03	 mov	 dl, BYTE PTR [eax+3]
  0004c	84 d2		 test	 dl, dl
  0004e	0f 84 61 01 00
	00		 je	 $LN93@LoadFloat_@5
  00054	80 f2 ea	 xor	 dl, -22			; ffffffeaH
  00057	88 55 e7	 mov	 BYTE PTR __k$[ebp+3], dl
  0005a	8a 50 04	 mov	 dl, BYTE PTR [eax+4]
  0005d	84 d2		 test	 dl, dl
  0005f	0f 84 4a 01 00
	00		 je	 $LN92@LoadFloat_@5
  00065	80 f2 ed	 xor	 dl, -19			; ffffffedH
  00068	88 55 e8	 mov	 BYTE PTR __k$[ebp+4], dl
  0006b	8a 50 05	 mov	 dl, BYTE PTR [eax+5]
  0006e	84 d2		 test	 dl, dl
  00070	0f 84 34 01 00
	00		 je	 $LN91@LoadFloat_@5
  00076	32 d1		 xor	 dl, cl
  00078	88 55 e9	 mov	 BYTE PTR __k$[ebp+5], dl
  0007b	8a 50 06	 mov	 dl, BYTE PTR [eax+6]
  0007e	84 d2		 test	 dl, dl
  00080	0f 84 1e 01 00
	00		 je	 $LN90@LoadFloat_@5
  00086	80 f2 eb	 xor	 dl, -21			; ffffffebH
  00089	88 55 ea	 mov	 BYTE PTR __k$[ebp+6], dl
  0008c	8a 50 07	 mov	 dl, BYTE PTR [eax+7]
  0008f	84 d2		 test	 dl, dl
  00091	0f 84 07 01 00
	00		 je	 $LN89@LoadFloat_@5
  00097	80 f2 ea	 xor	 dl, -22			; ffffffeaH
  0009a	88 55 eb	 mov	 BYTE PTR __k$[ebp+7], dl
  0009d	8a 50 08	 mov	 dl, BYTE PTR [eax+8]
  000a0	84 d2		 test	 dl, dl
  000a2	0f 84 f0 00 00
	00		 je	 $LN88@LoadFloat_@5
  000a8	80 f2 ed	 xor	 dl, -19			; ffffffedH
  000ab	88 55 ec	 mov	 BYTE PTR __k$[ebp+8], dl
  000ae	8a 50 09	 mov	 dl, BYTE PTR [eax+9]
  000b1	84 d2		 test	 dl, dl
  000b3	0f 84 da 00 00
	00		 je	 $LN87@LoadFloat_@5
  000b9	32 d1		 xor	 dl, cl
  000bb	88 55 ed	 mov	 BYTE PTR __k$[ebp+9], dl
  000be	8a 50 0a	 mov	 dl, BYTE PTR [eax+10]
  000c1	84 d2		 test	 dl, dl
  000c3	0f 84 c4 00 00
	00		 je	 $LN86@LoadFloat_@5
  000c9	80 f2 eb	 xor	 dl, -21			; ffffffebH
  000cc	88 55 ee	 mov	 BYTE PTR __k$[ebp+10], dl
  000cf	8a 50 0b	 mov	 dl, BYTE PTR [eax+11]
  000d2	84 d2		 test	 dl, dl
  000d4	0f 84 ad 00 00
	00		 je	 $LN85@LoadFloat_@5
  000da	80 f2 ea	 xor	 dl, -22			; ffffffeaH
  000dd	88 55 ef	 mov	 BYTE PTR __k$[ebp+11], dl
  000e0	8a 50 0c	 mov	 dl, BYTE PTR [eax+12]
  000e3	84 d2		 test	 dl, dl
  000e5	0f 84 96 00 00
	00		 je	 $LN84@LoadFloat_@5
  000eb	80 f2 ed	 xor	 dl, -19			; ffffffedH
  000ee	88 55 f0	 mov	 BYTE PTR __k$[ebp+12], dl
  000f1	8a 50 0d	 mov	 dl, BYTE PTR [eax+13]
  000f4	84 d2		 test	 dl, dl
  000f6	0f 84 80 00 00
	00		 je	 $LN83@LoadFloat_@5
  000fc	32 d1		 xor	 dl, cl
  000fe	88 55 f1	 mov	 BYTE PTR __k$[ebp+13], dl
  00101	8a 50 0e	 mov	 dl, BYTE PTR [eax+14]
  00104	84 d2		 test	 dl, dl
  00106	74 6e		 je	 SHORT $LN82@LoadFloat_@5
  00108	80 f2 eb	 xor	 dl, -21			; ffffffebH
  0010b	88 55 f2	 mov	 BYTE PTR __k$[ebp+14], dl
  0010e	8a 50 0f	 mov	 dl, BYTE PTR [eax+15]
  00111	84 d2		 test	 dl, dl
  00113	74 5b		 je	 SHORT $LN81@LoadFloat_@5
  00115	80 f2 ea	 xor	 dl, -22			; ffffffeaH
  00118	80 78 10 00	 cmp	 BYTE PTR [eax+16], 0
  0011c	88 55 f3	 mov	 BYTE PTR __k$[ebp+15], dl
  0011f	0f 84 a6 00 00
	00		 je	 $LN1@LoadFloat_@5
  00125	8a 50 11	 mov	 dl, BYTE PTR [eax+17]
  00128	84 d2		 test	 dl, dl
  0012a	74 3f		 je	 SHORT $LN79@LoadFloat_@5
  0012c	32 d1		 xor	 dl, cl
  0012e	88 55 f5	 mov	 BYTE PTR __k$[ebp+17], dl
  00131	8a 50 12	 mov	 dl, BYTE PTR [eax+18]
  00134	84 d2		 test	 dl, dl
  00136	74 2d		 je	 SHORT $LN78@LoadFloat_@5
  00138	80 f2 eb	 xor	 dl, -21			; ffffffebH
  0013b	88 55 f6	 mov	 BYTE PTR __k$[ebp+18], dl
  0013e	8a 50 13	 mov	 dl, BYTE PTR [eax+19]
  00141	84 d2		 test	 dl, dl
  00143	74 1a		 je	 SHORT $LN77@LoadFloat_@5
  00145	8a 40 14	 mov	 al, BYTE PTR [eax+20]
  00148	80 f2 ea	 xor	 dl, -22			; ffffffeaH
  0014b	88 55 f7	 mov	 BYTE PTR __k$[ebp+19], dl
  0014e	84 c0		 test	 al, al
  00150	74 07		 je	 SHORT $LN76@LoadFloat_@5
  00152	34 ed		 xor	 al, -19			; ffffffedH
  00154	88 45 f8	 mov	 BYTE PTR __k$[ebp+20], al
  00157	eb 72		 jmp	 SHORT $LN1@LoadFloat_@5
$LN76@LoadFloat_@5:
  00159	c6 45 f8 ed	 mov	 BYTE PTR __k$[ebp+20], -19 ; ffffffedH
  0015d	eb 6c		 jmp	 SHORT $LN1@LoadFloat_@5
$LN77@LoadFloat_@5:
  0015f	c6 45 f7 ea	 mov	 BYTE PTR __k$[ebp+19], -22 ; ffffffeaH
  00163	eb 66		 jmp	 SHORT $LN1@LoadFloat_@5
$LN78@LoadFloat_@5:
  00165	c6 45 f6 eb	 mov	 BYTE PTR __k$[ebp+18], -21 ; ffffffebH
  00169	eb 60		 jmp	 SHORT $LN1@LoadFloat_@5
$LN79@LoadFloat_@5:
  0016b	88 4d f5	 mov	 BYTE PTR __k$[ebp+17], cl
  0016e	eb 5b		 jmp	 SHORT $LN1@LoadFloat_@5
$LN81@LoadFloat_@5:
  00170	c6 45 f3 ea	 mov	 BYTE PTR __k$[ebp+15], -22 ; ffffffeaH
  00174	eb 55		 jmp	 SHORT $LN1@LoadFloat_@5
$LN82@LoadFloat_@5:
  00176	c6 45 f2 eb	 mov	 BYTE PTR __k$[ebp+14], -21 ; ffffffebH
  0017a	eb 4f		 jmp	 SHORT $LN1@LoadFloat_@5
$LN83@LoadFloat_@5:
  0017c	88 4d f1	 mov	 BYTE PTR __k$[ebp+13], cl
  0017f	eb 4a		 jmp	 SHORT $LN1@LoadFloat_@5
$LN84@LoadFloat_@5:
  00181	c6 45 f0 ed	 mov	 BYTE PTR __k$[ebp+12], -19 ; ffffffedH
  00185	eb 44		 jmp	 SHORT $LN1@LoadFloat_@5
$LN85@LoadFloat_@5:
  00187	c6 45 ef ea	 mov	 BYTE PTR __k$[ebp+11], -22 ; ffffffeaH
  0018b	eb 3e		 jmp	 SHORT $LN1@LoadFloat_@5
$LN86@LoadFloat_@5:
  0018d	c6 45 ee eb	 mov	 BYTE PTR __k$[ebp+10], -21 ; ffffffebH
  00191	eb 38		 jmp	 SHORT $LN1@LoadFloat_@5
$LN87@LoadFloat_@5:
  00193	88 4d ed	 mov	 BYTE PTR __k$[ebp+9], cl
  00196	eb 33		 jmp	 SHORT $LN1@LoadFloat_@5
$LN88@LoadFloat_@5:
  00198	c6 45 ec ed	 mov	 BYTE PTR __k$[ebp+8], -19 ; ffffffedH
  0019c	eb 2d		 jmp	 SHORT $LN1@LoadFloat_@5
$LN89@LoadFloat_@5:
  0019e	c6 45 eb ea	 mov	 BYTE PTR __k$[ebp+7], -22 ; ffffffeaH
  001a2	eb 27		 jmp	 SHORT $LN1@LoadFloat_@5
$LN90@LoadFloat_@5:
  001a4	c6 45 ea eb	 mov	 BYTE PTR __k$[ebp+6], -21 ; ffffffebH
  001a8	eb 21		 jmp	 SHORT $LN1@LoadFloat_@5
$LN91@LoadFloat_@5:
  001aa	88 4d e9	 mov	 BYTE PTR __k$[ebp+5], cl
  001ad	eb 1c		 jmp	 SHORT $LN1@LoadFloat_@5
$LN92@LoadFloat_@5:
  001af	c6 45 e8 ed	 mov	 BYTE PTR __k$[ebp+4], -19 ; ffffffedH
  001b3	eb 16		 jmp	 SHORT $LN1@LoadFloat_@5
$LN93@LoadFloat_@5:
  001b5	c6 45 e7 ea	 mov	 BYTE PTR __k$[ebp+3], -22 ; ffffffeaH
  001b9	eb 10		 jmp	 SHORT $LN1@LoadFloat_@5
$LN94@LoadFloat_@5:
  001bb	c6 45 e6 eb	 mov	 BYTE PTR __k$[ebp+2], -21 ; ffffffebH
  001bf	eb 0a		 jmp	 SHORT $LN1@LoadFloat_@5
$LN95@LoadFloat_@5:
  001c1	c6 45 e5 ec	 mov	 BYTE PTR __k$[ebp+1], -20 ; ffffffecH
  001c5	eb 04		 jmp	 SHORT $LN1@LoadFloat_@5
$LN96@LoadFloat_@5:
  001c7	c6 45 e4 ed	 mov	 BYTE PTR __k$[ebp], -19	; ffffffedH
$LN1@LoadFloat_@5:
  001cb	6a 04		 push	 4
  001cd	8d 45 e4	 lea	 eax, DWORD PTR __k$[ebp]
  001d0	c6 45 f4 00	 mov	 BYTE PTR __k$[ebp+16], 0
  001d4	5a		 pop	 edx
$LL104@LoadFloat_@5:
  001d5	81 30 ed ec eb
	ea		 xor	 DWORD PTR [eax], -353637139 ; eaebecedH
  001db	83 c0 04	 add	 eax, 4
  001de	4a		 dec	 edx
  001df	75 f4		 jne	 SHORT $LL104@LoadFloat_@5

; 137  : 		return LoadFloat(_k, f);

  001e1	f3 0f 10 45 0c	 movss	 xmm0, DWORD PTR _f$[ebp]
  001e6	51		 push	 ecx
  001e7	8d 45 e4	 lea	 eax, DWORD PTR __k$[ebp]
  001ea	f3 0f 11 04 24	 movss	 DWORD PTR [esp], xmm0
  001ef	50		 push	 eax
  001f0	8b ce		 mov	 ecx, esi
  001f2	ff 15 00 00 00
	00		 call	 DWORD PTR __imp_?LoadFloat@ioINILoader@@QAEMPBDM@Z

; 138  : 	}

  001f8	8b 4d fc	 mov	 ecx, DWORD PTR __$ArrayPad$[ebp]
  001fb	33 cd		 xor	 ecx, ebp
  001fd	5e		 pop	 esi
  001fe	e8 00 00 00 00	 call	 @__security_check_cookie@4
  00203	c9		 leave
  00204	c2 08 00	 ret	 8
??$LoadFloat_e@$0BB@@ioINILoader@@QAEMAAY0BB@$$CBDM@Z ENDP ; ioINILoader::LoadFloat_e<17>
_TEXT	ENDS
PUBLIC	__$ArrayPad$
PUBLIC	??$LoadInt_e@$0BB@@ioINILoader@@QAEHAAY0BB@$$CBDH@Z ; ioINILoader::LoadInt_e<17>
; Function compile flags: /Ogsp
;	COMDAT ??$LoadInt_e@$0BB@@ioINILoader@@QAEHAAY0BB@$$CBDH@Z
_TEXT	SEGMENT
__k$ = -28						; size = 17
__$ArrayPad$ = -4					; size = 4
_k$ = 8							; size = 4
_i$ = 12						; size = 4
??$LoadInt_e@$0BB@@ioINILoader@@QAEHAAY0BB@$$CBDH@Z PROC ; ioINILoader::LoadInt_e<17>, COMDAT
; _this$ = ecx

; 118  : 	{

  00000	55		 push	 ebp
  00001	8b ec		 mov	 ebp, esp
  00003	83 ec 1c	 sub	 esp, 28			; 0000001cH
  00006	a1 00 00 00 00	 mov	 eax, DWORD PTR ___security_cookie
  0000b	33 c5		 xor	 eax, ebp
  0000d	89 45 fc	 mov	 DWORD PTR __$ArrayPad$[ebp], eax
  00010	8b 45 08	 mov	 eax, DWORD PTR _k$[ebp]

; 119  : 		_ENCSTR(k, _k);

  00013	8a 10		 mov	 dl, BYTE PTR [eax]
  00015	56		 push	 esi
  00016	8b f1		 mov	 esi, ecx
  00018	84 d2		 test	 dl, dl
  0001a	0f 84 a7 01 00
	00		 je	 $LN96@LoadInt_e@7
  00020	80 f2 ed	 xor	 dl, -19			; ffffffedH
  00023	88 55 e4	 mov	 BYTE PTR __k$[ebp], dl
  00026	8a 50 01	 mov	 dl, BYTE PTR [eax+1]
  00029	84 d2		 test	 dl, dl
  0002b	0f 84 90 01 00
	00		 je	 $LN95@LoadInt_e@7
  00031	b1 ec		 mov	 cl, -20			; ffffffecH
  00033	32 d1		 xor	 dl, cl
  00035	88 55 e5	 mov	 BYTE PTR __k$[ebp+1], dl
  00038	8a 50 02	 mov	 dl, BYTE PTR [eax+2]
  0003b	84 d2		 test	 dl, dl
  0003d	0f 84 78 01 00
	00		 je	 $LN94@LoadInt_e@7
  00043	80 f2 eb	 xor	 dl, -21			; ffffffebH
  00046	88 55 e6	 mov	 BYTE PTR __k$[ebp+2], dl
  00049	8a 50 03	 mov	 dl, BYTE PTR [eax+3]
  0004c	84 d2		 test	 dl, dl
  0004e	0f 84 61 01 00
	00		 je	 $LN93@LoadInt_e@7
  00054	80 f2 ea	 xor	 dl, -22			; ffffffeaH
  00057	88 55 e7	 mov	 BYTE PTR __k$[ebp+3], dl
  0005a	8a 50 04	 mov	 dl, BYTE PTR [eax+4]
  0005d	84 d2		 test	 dl, dl
  0005f	0f 84 4a 01 00
	00		 je	 $LN92@LoadInt_e@7
  00065	80 f2 ed	 xor	 dl, -19			; ffffffedH
  00068	88 55 e8	 mov	 BYTE PTR __k$[ebp+4], dl
  0006b	8a 50 05	 mov	 dl, BYTE PTR [eax+5]
  0006e	84 d2		 test	 dl, dl
  00070	0f 84 34 01 00
	00		 je	 $LN91@LoadInt_e@7
  00076	32 d1		 xor	 dl, cl
  00078	88 55 e9	 mov	 BYTE PTR __k$[ebp+5], dl
  0007b	8a 50 06	 mov	 dl, BYTE PTR [eax+6]
  0007e	84 d2		 test	 dl, dl
  00080	0f 84 1e 01 00
	00		 je	 $LN90@LoadInt_e@7
  00086	80 f2 eb	 xor	 dl, -21			; ffffffebH
  00089	88 55 ea	 mov	 BYTE PTR __k$[ebp+6], dl
  0008c	8a 50 07	 mov	 dl, BYTE PTR [eax+7]
  0008f	84 d2		 test	 dl, dl
  00091	0f 84 07 01 00
	00		 je	 $LN89@LoadInt_e@7
  00097	80 f2 ea	 xor	 dl, -22			; ffffffeaH
  0009a	88 55 eb	 mov	 BYTE PTR __k$[ebp+7], dl
  0009d	8a 50 08	 mov	 dl, BYTE PTR [eax+8]
  000a0	84 d2		 test	 dl, dl
  000a2	0f 84 f0 00 00
	00		 je	 $LN88@LoadInt_e@7
  000a8	80 f2 ed	 xor	 dl, -19			; ffffffedH
  000ab	88 55 ec	 mov	 BYTE PTR __k$[ebp+8], dl
  000ae	8a 50 09	 mov	 dl, BYTE PTR [eax+9]
  000b1	84 d2		 test	 dl, dl
  000b3	0f 84 da 00 00
	00		 je	 $LN87@LoadInt_e@7
  000b9	32 d1		 xor	 dl, cl
  000bb	88 55 ed	 mov	 BYTE PTR __k$[ebp+9], dl
  000be	8a 50 0a	 mov	 dl, BYTE PTR [eax+10]
  000c1	84 d2		 test	 dl, dl
  000c3	0f 84 c4 00 00
	00		 je	 $LN86@LoadInt_e@7
  000c9	80 f2 eb	 xor	 dl, -21			; ffffffebH
  000cc	88 55 ee	 mov	 BYTE PTR __k$[ebp+10], dl
  000cf	8a 50 0b	 mov	 dl, BYTE PTR [eax+11]
  000d2	84 d2		 test	 dl, dl
  000d4	0f 84 ad 00 00
	00		 je	 $LN85@LoadInt_e@7
  000da	80 f2 ea	 xor	 dl, -22			; ffffffeaH
  000dd	88 55 ef	 mov	 BYTE PTR __k$[ebp+11], dl
  000e0	8a 50 0c	 mov	 dl, BYTE PTR [eax+12]
  000e3	84 d2		 test	 dl, dl
  000e5	0f 84 96 00 00
	00		 je	 $LN84@LoadInt_e@7
  000eb	80 f2 ed	 xor	 dl, -19			; ffffffedH
  000ee	88 55 f0	 mov	 BYTE PTR __k$[ebp+12], dl
  000f1	8a 50 0d	 mov	 dl, BYTE PTR [eax+13]
  000f4	84 d2		 test	 dl, dl
  000f6	0f 84 80 00 00
	00		 je	 $LN83@LoadInt_e@7
  000fc	32 d1		 xor	 dl, cl
  000fe	88 55 f1	 mov	 BYTE PTR __k$[ebp+13], dl
  00101	8a 50 0e	 mov	 dl, BYTE PTR [eax+14]
  00104	84 d2		 test	 dl, dl
  00106	74 6e		 je	 SHORT $LN82@LoadInt_e@7
  00108	80 f2 eb	 xor	 dl, -21			; ffffffebH
  0010b	88 55 f2	 mov	 BYTE PTR __k$[ebp+14], dl
  0010e	8a 50 0f	 mov	 dl, BYTE PTR [eax+15]
  00111	84 d2		 test	 dl, dl
  00113	74 5b		 je	 SHORT $LN81@LoadInt_e@7
  00115	80 f2 ea	 xor	 dl, -22			; ffffffeaH
  00118	80 78 10 00	 cmp	 BYTE PTR [eax+16], 0
  0011c	88 55 f3	 mov	 BYTE PTR __k$[ebp+15], dl
  0011f	0f 84 a6 00 00
	00		 je	 $LN1@LoadInt_e@7
  00125	8a 50 11	 mov	 dl, BYTE PTR [eax+17]
  00128	84 d2		 test	 dl, dl
  0012a	74 3f		 je	 SHORT $LN79@LoadInt_e@7
  0012c	32 d1		 xor	 dl, cl
  0012e	88 55 f5	 mov	 BYTE PTR __k$[ebp+17], dl
  00131	8a 50 12	 mov	 dl, BYTE PTR [eax+18]
  00134	84 d2		 test	 dl, dl
  00136	74 2d		 je	 SHORT $LN78@LoadInt_e@7
  00138	80 f2 eb	 xor	 dl, -21			; ffffffebH
  0013b	88 55 f6	 mov	 BYTE PTR __k$[ebp+18], dl
  0013e	8a 50 13	 mov	 dl, BYTE PTR [eax+19]
  00141	84 d2		 test	 dl, dl
  00143	74 1a		 je	 SHORT $LN77@LoadInt_e@7
  00145	8a 40 14	 mov	 al, BYTE PTR [eax+20]
  00148	80 f2 ea	 xor	 dl, -22			; ffffffeaH
  0014b	88 55 f7	 mov	 BYTE PTR __k$[ebp+19], dl
  0014e	84 c0		 test	 al, al
  00150	74 07		 je	 SHORT $LN76@LoadInt_e@7
  00152	34 ed		 xor	 al, -19			; ffffffedH
  00154	88 45 f8	 mov	 BYTE PTR __k$[ebp+20], al
  00157	eb 72		 jmp	 SHORT $LN1@LoadInt_e@7
$LN76@LoadInt_e@7:
  00159	c6 45 f8 ed	 mov	 BYTE PTR __k$[ebp+20], -19 ; ffffffedH
  0015d	eb 6c		 jmp	 SHORT $LN1@LoadInt_e@7
$LN77@LoadInt_e@7:
  0015f	c6 45 f7 ea	 mov	 BYTE PTR __k$[ebp+19], -22 ; ffffffeaH
  00163	eb 66		 jmp	 SHORT $LN1@LoadInt_e@7
$LN78@LoadInt_e@7:
  00165	c6 45 f6 eb	 mov	 BYTE PTR __k$[ebp+18], -21 ; ffffffebH
  00169	eb 60		 jmp	 SHORT $LN1@LoadInt_e@7
$LN79@LoadInt_e@7:
  0016b	88 4d f5	 mov	 BYTE PTR __k$[ebp+17], cl
  0016e	eb 5b		 jmp	 SHORT $LN1@LoadInt_e@7
$LN81@LoadInt_e@7:
  00170	c6 45 f3 ea	 mov	 BYTE PTR __k$[ebp+15], -22 ; ffffffeaH
  00174	eb 55		 jmp	 SHORT $LN1@LoadInt_e@7
$LN82@LoadInt_e@7:
  00176	c6 45 f2 eb	 mov	 BYTE PTR __k$[ebp+14], -21 ; ffffffebH
  0017a	eb 4f		 jmp	 SHORT $LN1@LoadInt_e@7
$LN83@LoadInt_e@7:
  0017c	88 4d f1	 mov	 BYTE PTR __k$[ebp+13], cl
  0017f	eb 4a		 jmp	 SHORT $LN1@LoadInt_e@7
$LN84@LoadInt_e@7:
  00181	c6 45 f0 ed	 mov	 BYTE PTR __k$[ebp+12], -19 ; ffffffedH
  00185	eb 44		 jmp	 SHORT $LN1@LoadInt_e@7
$LN85@LoadInt_e@7:
  00187	c6 45 ef ea	 mov	 BYTE PTR __k$[ebp+11], -22 ; ffffffeaH
  0018b	eb 3e		 jmp	 SHORT $LN1@LoadInt_e@7
$LN86@LoadInt_e@7:
  0018d	c6 45 ee eb	 mov	 BYTE PTR __k$[ebp+10], -21 ; ffffffebH
  00191	eb 38		 jmp	 SHORT $LN1@LoadInt_e@7
$LN87@LoadInt_e@7:
  00193	88 4d ed	 mov	 BYTE PTR __k$[ebp+9], cl
  00196	eb 33		 jmp	 SHORT $LN1@LoadInt_e@7
$LN88@LoadInt_e@7:
  00198	c6 45 ec ed	 mov	 BYTE PTR __k$[ebp+8], -19 ; ffffffedH
  0019c	eb 2d		 jmp	 SHORT $LN1@LoadInt_e@7
$LN89@LoadInt_e@7:
  0019e	c6 45 eb ea	 mov	 BYTE PTR __k$[ebp+7], -22 ; ffffffeaH
  001a2	eb 27		 jmp	 SHORT $LN1@LoadInt_e@7
$LN90@LoadInt_e@7:
  001a4	c6 45 ea eb	 mov	 BYTE PTR __k$[ebp+6], -21 ; ffffffebH
  001a8	eb 21		 jmp	 SHORT $LN1@LoadInt_e@7
$LN91@LoadInt_e@7:
  001aa	88 4d e9	 mov	 BYTE PTR __k$[ebp+5], cl
  001ad	eb 1c		 jmp	 SHORT $LN1@LoadInt_e@7
$LN92@LoadInt_e@7:
  001af	c6 45 e8 ed	 mov	 BYTE PTR __k$[ebp+4], -19 ; ffffffedH
  001b3	eb 16		 jmp	 SHORT $LN1@LoadInt_e@7
$LN93@LoadInt_e@7:
  001b5	c6 45 e7 ea	 mov	 BYTE PTR __k$[ebp+3], -22 ; ffffffeaH
  001b9	eb 10		 jmp	 SHORT $LN1@LoadInt_e@7
$LN94@LoadInt_e@7:
  001bb	c6 45 e6 eb	 mov	 BYTE PTR __k$[ebp+2], -21 ; ffffffebH
  001bf	eb 0a		 jmp	 SHORT $LN1@LoadInt_e@7
$LN95@LoadInt_e@7:
  001c1	c6 45 e5 ec	 mov	 BYTE PTR __k$[ebp+1], -20 ; ffffffecH
  001c5	eb 04		 jmp	 SHORT $LN1@LoadInt_e@7
$LN96@LoadInt_e@7:
  001c7	c6 45 e4 ed	 mov	 BYTE PTR __k$[ebp], -19	; ffffffedH
$LN1@LoadInt_e@7:
  001cb	6a 04		 push	 4
  001cd	8d 45 e4	 lea	 eax, DWORD PTR __k$[ebp]
  001d0	c6 45 f4 00	 mov	 BYTE PTR __k$[ebp+16], 0
  001d4	5a		 pop	 edx
$LL104@LoadInt_e@7:
  001d5	81 30 ed ec eb
	ea		 xor	 DWORD PTR [eax], -353637139 ; eaebecedH
  001db	83 c0 04	 add	 eax, 4
  001de	4a		 dec	 edx
  001df	75 f4		 jne	 SHORT $LL104@LoadInt_e@7

; 120  : 		return LoadInt(_k, i);

  001e1	ff 75 0c	 push	 DWORD PTR _i$[ebp]
  001e4	8d 45 e4	 lea	 eax, DWORD PTR __k$[ebp]
  001e7	50		 push	 eax
  001e8	8b ce		 mov	 ecx, esi
  001ea	ff 15 00 00 00
	00		 call	 DWORD PTR __imp_?LoadInt@ioINILoader@@QAEHPBDH@Z

; 121  : 	}

  001f0	8b 4d fc	 mov	 ecx, DWORD PTR __$ArrayPad$[ebp]
  001f3	33 cd		 xor	 ecx, ebp
  001f5	5e		 pop	 esi
  001f6	e8 00 00 00 00	 call	 @__security_check_cookie@4
  001fb	c9		 leave
  001fc	c2 08 00	 ret	 8
??$LoadInt_e@$0BB@@ioINILoader@@QAEHAAY0BB@$$CBDH@Z ENDP ; ioINILoader::LoadInt_e<17>
_TEXT	ENDS
PUBLIC	??$_Construct@UBuffInfoStruct@@ABU1@@std@@YAXPAUBuffInfoStruct@@ABU1@@Z ; std::_Construct<BuffInfoStruct,BuffInfoStruct const &>
;	COMDAT xdata$x
; File c:\program files (x86)\microsoft visual studio 10.0\vc\include\vector
xdata$x	SEGMENT
__unwindtable$??$_Construct@UBuffInfoStruct@@ABU1@@std@@YAXPAUBuffInfoStruct@@ABU1@@Z DD 0ffffffffH
	DD	FLAT:__unwindfunclet$??$_Construct@UBuffInfoStruct@@ABU1@@std@@YAXPAUBuffInfoStruct@@ABU1@@Z$0
__ehfuncinfo$??$_Construct@UBuffInfoStruct@@ABU1@@std@@YAXPAUBuffInfoStruct@@ABU1@@Z DD 019930522H
	DD	01H
	DD	FLAT:__unwindtable$??$_Construct@UBuffInfoStruct@@ABU1@@std@@YAXPAUBuffInfoStruct@@ABU1@@Z
	DD	2 DUP(00H)
	DD	2 DUP(00H)
	DD	00H
	DD	01H
; Function compile flags: /Ogsp
; File c:\program files (x86)\microsoft visual studio 10.0\vc\include\xmemory
xdata$x	ENDS
;	COMDAT ??$_Construct@UBuffInfoStruct@@ABU1@@std@@YAXPAUBuffInfoStruct@@ABU1@@Z
_TEXT	SEGMENT
$T535461 = -16						; size = 4
__$EHRec$ = -12						; size = 12
__Vptr$ = 8						; size = 4
__Ptr$ = 8						; size = 4
__Val$ = 12						; size = 4
??$_Construct@UBuffInfoStruct@@ABU1@@std@@YAXPAUBuffInfoStruct@@ABU1@@Z PROC ; std::_Construct<BuffInfoStruct,BuffInfoStruct const &>, COMDAT

; 46   : 	{	// construct object at _Ptr with value _Val

  00000	6a 04		 push	 4
  00002	b8 00 00 00 00	 mov	 eax, __ehhandler$??$_Construct@UBuffInfoStruct@@ABU1@@std@@YAXPAUBuffInfoStruct@@ABU1@@Z
  00007	e8 00 00 00 00	 call	 __EH_prolog3

; 47   : 	void _FARQ *_Vptr = _Ptr;

  0000c	8b 75 08	 mov	 esi, DWORD PTR __Ptr$[ebp]
  0000f	89 75 08	 mov	 DWORD PTR __Vptr$[ebp], esi

; 48   : 	::new (_Vptr) _Ty1(_STD forward<_Ty2>(_Val));

  00012	89 75 f0	 mov	 DWORD PTR $T535461[ebp], esi
  00015	83 65 fc 00	 and	 DWORD PTR __$EHRec$[ebp+8], 0
  00019	85 f6		 test	 esi, esi
  0001b	74 12		 je	 SHORT $LN3@Construct
  0001d	8b 7d 0c	 mov	 edi, DWORD PTR __Val$[ebp]
  00020	57		 push	 edi
  00021	8b ce		 mov	 ecx, esi
  00023	ff 15 00 00 00
	00		 call	 DWORD PTR __imp_??0ioHashString@@QAE@ABV0@@Z
  00029	8b 47 10	 mov	 eax, DWORD PTR [edi+16]
  0002c	89 46 10	 mov	 DWORD PTR [esi+16], eax
$LN3@Construct:

; 49   : 	}

  0002f	e8 00 00 00 00	 call	 __EH_epilog3
  00034	c3		 ret	 0
_TEXT	ENDS
;	COMDAT text$x
text$x	SEGMENT
__unwindfunclet$??$_Construct@UBuffInfoStruct@@ABU1@@std@@YAXPAUBuffInfoStruct@@ABU1@@Z$0:
  00000	ff 75 08	 push	 DWORD PTR __Vptr$[ebp]
  00003	ff 75 f0	 push	 DWORD PTR $T535461[ebp]
  00006	e8 00 00 00 00	 call	 ??3@YAXPAX0@Z		; operator delete
  0000b	59		 pop	 ecx
  0000c	59		 pop	 ecx
  0000d	c3		 ret	 0
__ehhandler$??$_Construct@UBuffInfoStruct@@ABU1@@std@@YAXPAUBuffInfoStruct@@ABU1@@Z:
  0000e	8b 54 24 08	 mov	 edx, DWORD PTR [esp+8]
  00012	8d 42 0c	 lea	 eax, DWORD PTR [edx+12]
  00015	8b 4a ec	 mov	 ecx, DWORD PTR [edx-20]
  00018	33 c8		 xor	 ecx, eax
  0001a	e8 00 00 00 00	 call	 @__security_check_cookie@4
  0001f	b8 00 00 00 00	 mov	 eax, OFFSET __ehfuncinfo$??$_Construct@UBuffInfoStruct@@ABU1@@std@@YAXPAUBuffInfoStruct@@ABU1@@Z
  00024	e9 00 00 00 00	 jmp	 ___CxxFrameHandler3
text$x	ENDS
??$_Construct@UBuffInfoStruct@@ABU1@@std@@YAXPAUBuffInfoStruct@@ABU1@@Z ENDP ; std::_Construct<BuffInfoStruct,BuffInfoStruct const &>
PUBLIC	?construct@?$allocator@UBuffInfoStruct@@@std@@QAEXPAUBuffInfoStruct@@$$QAU3@@Z ; std::allocator<BuffInfoStruct>::construct
;	COMDAT xdata$x
; File c:\program files (x86)\microsoft visual studio 10.0\vc\include\vector
xdata$x	SEGMENT
__unwindtable$?construct@?$allocator@UBuffInfoStruct@@@std@@QAEXPAUBuffInfoStruct@@$$QAU3@@Z DD 0ffffffffH
	DD	FLAT:__unwindfunclet$?construct@?$allocator@UBuffInfoStruct@@@std@@QAEXPAUBuffInfoStruct@@$$QAU3@@Z$0
__ehfuncinfo$?construct@?$allocator@UBuffInfoStruct@@@std@@QAEXPAUBuffInfoStruct@@$$QAU3@@Z DD 019930522H
	DD	01H
	DD	FLAT:__unwindtable$?construct@?$allocator@UBuffInfoStruct@@@std@@QAEXPAUBuffInfoStruct@@$$QAU3@@Z
	DD	2 DUP(00H)
	DD	2 DUP(00H)
	DD	00H
	DD	01H
; Function compile flags: /Ogsp
; File c:\program files (x86)\microsoft visual studio 10.0\vc\include\xmemory
xdata$x	ENDS
;	COMDAT ?construct@?$allocator@UBuffInfoStruct@@@std@@QAEXPAUBuffInfoStruct@@$$QAU3@@Z
_TEXT	SEGMENT
$T535484 = -16						; size = 4
__$EHRec$ = -12						; size = 12
__Ptr$ = 8						; size = 4
__Val$ = 12						; size = 4
?construct@?$allocator@UBuffInfoStruct@@@std@@QAEXPAUBuffInfoStruct@@$$QAU3@@Z PROC ; std::allocator<BuffInfoStruct>::construct, COMDAT
; _this$ = ecx

; 201  : 		{	// construct object at _Ptr with value _Val

  00000	6a 04		 push	 4
  00002	b8 00 00 00 00	 mov	 eax, __ehhandler$?construct@?$allocator@UBuffInfoStruct@@@std@@QAEXPAUBuffInfoStruct@@$$QAU3@@Z
  00007	e8 00 00 00 00	 call	 __EH_prolog3

; 202  : 		::new ((void _FARQ *)_Ptr) _Ty(_STD forward<_Ty>(_Val));

  0000c	8b 75 08	 mov	 esi, DWORD PTR __Ptr$[ebp]
  0000f	89 75 f0	 mov	 DWORD PTR $T535484[ebp], esi
  00012	83 65 fc 00	 and	 DWORD PTR __$EHRec$[ebp+8], 0
  00016	85 f6		 test	 esi, esi
  00018	74 12		 je	 SHORT $LN3@construct
  0001a	8b 7d 0c	 mov	 edi, DWORD PTR __Val$[ebp]
  0001d	57		 push	 edi
  0001e	8b ce		 mov	 ecx, esi
  00020	ff 15 00 00 00
	00		 call	 DWORD PTR __imp_??0ioHashString@@QAE@ABV0@@Z
  00026	8b 47 10	 mov	 eax, DWORD PTR [edi+16]
  00029	89 46 10	 mov	 DWORD PTR [esi+16], eax
$LN3@construct:

; 203  : 		}

  0002c	e8 00 00 00 00	 call	 __EH_epilog3
  00031	c2 08 00	 ret	 8
_TEXT	ENDS
;	COMDAT text$x
text$x	SEGMENT
__unwindfunclet$?construct@?$allocator@UBuffInfoStruct@@@std@@QAEXPAUBuffInfoStruct@@$$QAU3@@Z$0:
  00000	ff 75 08	 push	 DWORD PTR __Ptr$[ebp]
  00003	ff 75 f0	 push	 DWORD PTR $T535484[ebp]
  00006	e8 00 00 00 00	 call	 ??3@YAXPAX0@Z		; operator delete
  0000b	59		 pop	 ecx
  0000c	59		 pop	 ecx
  0000d	c3		 ret	 0
__ehhandler$?construct@?$allocator@UBuffInfoStruct@@@std@@QAEXPAUBuffInfoStruct@@$$QAU3@@Z:
  0000e	8b 54 24 08	 mov	 edx, DWORD PTR [esp+8]
  00012	8d 42 0c	 lea	 eax, DWORD PTR [edx+12]
  00015	8b 4a ec	 mov	 ecx, DWORD PTR [edx-20]
  00018	33 c8		 xor	 ecx, eax
  0001a	e8 00 00 00 00	 call	 @__security_check_cookie@4
  0001f	b8 00 00 00 00	 mov	 eax, OFFSET __ehfuncinfo$?construct@?$allocator@UBuffInfoStruct@@@std@@QAEXPAUBuffInfoStruct@@$$QAU3@@Z
  00024	e9 00 00 00 00	 jmp	 ___CxxFrameHandler3
text$x	ENDS
?construct@?$allocator@UBuffInfoStruct@@@std@@QAEXPAUBuffInfoStruct@@$$QAU3@@Z ENDP ; std::allocator<BuffInfoStruct>::construct
PUBLIC	??0?$CEncrypt@M@@QAE@XZ				; CEncrypt<float>::CEncrypt<float>
EXTRN	??0ccddaabb@@QAE@XZ:PROC			; ccddaabb::ccddaabb
;	COMDAT xdata$x
; File d:\lost saga for developer\youtube\tutorial\source\src\lsclient\encryptvalue.h
xdata$x	SEGMENT
__unwindtable$??0?$CEncrypt@M@@QAE@XZ DD 0ffffffffH
	DD	FLAT:__unwindfunclet$??0?$CEncrypt@M@@QAE@XZ$0
__ehfuncinfo$??0?$CEncrypt@M@@QAE@XZ DD 019930522H
	DD	01H
	DD	FLAT:__unwindtable$??0?$CEncrypt@M@@QAE@XZ
	DD	2 DUP(00H)
	DD	2 DUP(00H)
	DD	00H
	DD	01H
; Function compile flags: /Ogsp
xdata$x	ENDS
;	COMDAT ??0?$CEncrypt@M@@QAE@XZ
_TEXT	SEGMENT
_this$ = -16						; size = 4
__$EHRec$ = -12						; size = 12
??0?$CEncrypt@M@@QAE@XZ PROC				; CEncrypt<float>::CEncrypt<float>, COMDAT
; _this$ = ecx

; 109  : 	CEncrypt()

  00000	6a 04		 push	 4
  00002	b8 00 00 00 00	 mov	 eax, __ehhandler$??0?$CEncrypt@M@@QAE@XZ
  00007	e8 00 00 00 00	 call	 __EH_prolog3
  0000c	8b f1		 mov	 esi, ecx
  0000e	89 75 f0	 mov	 DWORD PTR _this$[ebp], esi
  00011	8d 4e 0c	 lea	 ecx, DWORD PTR [esi+12]
  00014	c7 06 00 00 00
	00		 mov	 DWORD PTR [esi], OFFSET ??_7?$CEncrypt@M@@6B@
  0001a	e8 00 00 00 00	 call	 ??0ccddaabb@@QAE@XZ	; ccddaabb::ccddaabb
  0001f	83 65 fc 00	 and	 DWORD PTR __$EHRec$[ebp+8], 0

; 110  : 	{
; 111  : 		Init();

  00023	8b ce		 mov	 ecx, esi
  00025	e8 00 00 00 00	 call	 ?Init@?$CEncrypt@M@@AAEXXZ ; CEncrypt<float>::Init

; 112  : 	}

  0002a	8b c6		 mov	 eax, esi
  0002c	e8 00 00 00 00	 call	 __EH_epilog3
  00031	c3		 ret	 0
_TEXT	ENDS
;	COMDAT text$x
text$x	SEGMENT
__unwindfunclet$??0?$CEncrypt@M@@QAE@XZ$0:
  00000	8b 4d f0	 mov	 ecx, DWORD PTR _this$[ebp]
  00003	83 c1 0c	 add	 ecx, 12			; 0000000cH
  00006	e9 00 00 00 00	 jmp	 ??1ccddaabb@@UAE@XZ	; ccddaabb::~ccddaabb
__ehhandler$??0?$CEncrypt@M@@QAE@XZ:
  0000b	8b 54 24 08	 mov	 edx, DWORD PTR [esp+8]
  0000f	8d 42 0c	 lea	 eax, DWORD PTR [edx+12]
  00012	8b 4a ec	 mov	 ecx, DWORD PTR [edx-20]
  00015	33 c8		 xor	 ecx, eax
  00017	e8 00 00 00 00	 call	 @__security_check_cookie@4
  0001c	b8 00 00 00 00	 mov	 eax, OFFSET __ehfuncinfo$??0?$CEncrypt@M@@QAE@XZ
  00021	e9 00 00 00 00	 jmp	 ___CxxFrameHandler3
text$x	ENDS
??0?$CEncrypt@M@@QAE@XZ ENDP				; CEncrypt<float>::CEncrypt<float>
PUBLIC	??B?$CEncrypt@M@@QAEMXZ				; CEncrypt<float>::operator float
; Function compile flags: /Ogsp
;	COMDAT ??B?$CEncrypt@M@@QAEMXZ
_TEXT	SEGMENT
_value$ = -4						; size = 4
??B?$CEncrypt@M@@QAEMXZ PROC				; CEncrypt<float>::operator float, COMDAT
; _this$ = ecx

; 134  : 	{

  00000	55		 push	 ebp
  00001	8b ec		 mov	 ebp, esp
  00003	51		 push	 ecx

; 135  : 		type value;
; 136  : 		DecryptValueToPool(&value);

  00004	8d 45 fc	 lea	 eax, DWORD PTR _value$[ebp]
  00007	50		 push	 eax
  00008	e8 00 00 00 00	 call	 ?DecryptValueToPool@?$CEncrypt@M@@QAEXPAM@Z ; CEncrypt<float>::DecryptValueToPool

; 137  : 
; 138  : #ifdef _NOTUSE
; 139  : 		Debug();
; 140  : #endif
; 141  : 		return value;

  0000d	d9 45 fc	 fld	 DWORD PTR _value$[ebp]

; 142  : 	}

  00010	c9		 leave
  00011	c3		 ret	 0
??B?$CEncrypt@M@@QAEMXZ ENDP				; CEncrypt<float>::operator float
_TEXT	ENDS
PUBLIC	??4?$CEncrypt@M@@QAEMM@Z			; CEncrypt<float>::operator=
; Function compile flags: /Ogsp
;	COMDAT ??4?$CEncrypt@M@@QAEMM@Z
_TEXT	SEGMENT
_value$ = 8						; size = 4
_inValue$ = 8						; size = 4
??4?$CEncrypt@M@@QAEMM@Z PROC				; CEncrypt<float>::operator=, COMDAT
; _this$ = ecx

; 1654 : 	{	

  00000	55		 push	 ebp
  00001	8b ec		 mov	 ebp, esp

; 1655 : 		type value = inValue;

  00003	d9 45 08	 fld	 DWORD PTR _inValue$[ebp]

; 1656 : 		EncryptValueToPool((char*)&value);

  00006	8d 45 08	 lea	 eax, DWORD PTR _value$[ebp]
  00009	50		 push	 eax
  0000a	d9 5d 08	 fstp	 DWORD PTR _value$[ebp]
  0000d	e8 00 00 00 00	 call	 ?EncryptValueToPool@?$CEncrypt@M@@AAEXPBD@Z ; CEncrypt<float>::EncryptValueToPool

; 1657 : #ifdef _NOTUSE
; 1658 : 		m_value = inValue;
; 1659 : 		Debug();
; 1660 : #endif
; 1661 : 		return value;

  00012	d9 45 08	 fld	 DWORD PTR _value$[ebp]

; 1662 : 	}

  00015	5d		 pop	 ebp
  00016	c2 04 00	 ret	 4
??4?$CEncrypt@M@@QAEMM@Z ENDP				; CEncrypt<float>::operator=
_TEXT	ENDS
PUBLIC	??B?$CEncrypt@W4TeamType@@@@QBE?AW4TeamType@@XZ	; CEncrypt<enum TeamType>::operator enum TeamType
; Function compile flags: /Ogsp
;	COMDAT ??B?$CEncrypt@W4TeamType@@@@QBE?AW4TeamType@@XZ
_TEXT	SEGMENT
_value$ = -4						; size = 4
??B?$CEncrypt@W4TeamType@@@@QBE?AW4TeamType@@XZ PROC	; CEncrypt<enum TeamType>::operator enum TeamType, COMDAT
; _this$ = ecx

; 145  : 	{

  00000	55		 push	 ebp
  00001	8b ec		 mov	 ebp, esp
  00003	51		 push	 ecx

; 146  : 		//UJ 130829, const    --start
; 147  : 		type value;
; 148  : 		CEncrypt<type>* pThis = const_cast<CEncrypt<type>*>(this);
; 149  : 		pThis->DecryptValueToPool(&value);

  00004	8d 45 fc	 lea	 eax, DWORD PTR _value$[ebp]
  00007	50		 push	 eax
  00008	e8 00 00 00 00	 call	 ?DecryptValueToPool@?$CEncrypt@W4TeamType@@@@QAEXPAW4TeamType@@@Z ; CEncrypt<enum TeamType>::DecryptValueToPool

; 150  : 		//// const DecryptValueToPool     .
; 151  :  		//type value;
; 152  : 		//char szTempMem[MAX_ENCRYPT];
; 153  : 		//m_RC5.DecryptByte( m_MemPool, szTempMem, max(m_ValueSize, DEFAULT_ENCRYPT) );
; 154  : 		//memcpy( &value, szTempMem, m_ValueSize );
; 155  : 		//UJ --end
; 156  : 
; 157  : #ifdef _NOTUSE
; 158  : 		Debug();
; 159  : #endif
; 160  : 		return value;

  0000d	8b 45 fc	 mov	 eax, DWORD PTR _value$[ebp]

; 161  : 	}

  00010	c9		 leave
  00011	c3		 ret	 0
??B?$CEncrypt@W4TeamType@@@@QBE?AW4TeamType@@XZ ENDP	; CEncrypt<enum TeamType>::operator enum TeamType
_TEXT	ENDS
PUBLIC	??0?$_Vector_val@UBuffInfoStruct@@V?$allocator@UBuffInfoStruct@@@std@@@std@@QAE@V?$allocator@UBuffInfoStruct@@@1@@Z ; std::_Vector_val<BuffInfoStruct,std::allocator<BuffInfoStruct> >::_Vector_val<BuffInfoStruct,std::allocator<BuffInfoStruct> >
; Function compile flags: /Ogsp
; File c:\program files (x86)\microsoft visual studio 10.0\vc\include\vector
;	COMDAT ??0?$_Vector_val@UBuffInfoStruct@@V?$allocator@UBuffInfoStruct@@@std@@@std@@QAE@V?$allocator@UBuffInfoStruct@@@1@@Z
_TEXT	SEGMENT
__Al$ = 8						; size = 1
??0?$_Vector_val@UBuffInfoStruct@@V?$allocator@UBuffInfoStruct@@@std@@@std@@QAE@V?$allocator@UBuffInfoStruct@@@1@@Z PROC ; std::_Vector_val<BuffInfoStruct,std::allocator<BuffInfoStruct> >::_Vector_val<BuffInfoStruct,std::allocator<BuffInfoStruct> >, COMDAT
; _this$ = ecx

; 426  : 		{	// construct allocator from _Al

  00000	8b c1		 mov	 eax, ecx

; 427  : 		_Myfirst = 0;

  00002	33 c9		 xor	 ecx, ecx
  00004	89 08		 mov	 DWORD PTR [eax], ecx

; 428  : 		_Mylast = 0;

  00006	89 48 04	 mov	 DWORD PTR [eax+4], ecx

; 429  : 		_Myend = 0;

  00009	89 48 08	 mov	 DWORD PTR [eax+8], ecx

; 430  : 		}

  0000c	c2 04 00	 ret	 4
??0?$_Vector_val@UBuffInfoStruct@@V?$allocator@UBuffInfoStruct@@@std@@@std@@QAE@V?$allocator@UBuffInfoStruct@@@1@@Z ENDP ; std::_Vector_val<BuffInfoStruct,std::allocator<BuffInfoStruct> >::_Vector_val<BuffInfoStruct,std::allocator<BuffInfoStruct> >
_TEXT	ENDS
PUBLIC	?max_size@?$vector@UBuffInfoStruct@@V?$allocator@UBuffInfoStruct@@@std@@@std@@QBEIXZ ; std::vector<BuffInfoStruct,std::allocator<BuffInfoStruct> >::max_size
; Function compile flags: /Ogsp
;	COMDAT ?max_size@?$vector@UBuffInfoStruct@@V?$allocator@UBuffInfoStruct@@@std@@@std@@QBEIXZ
_TEXT	SEGMENT
?max_size@?$vector@UBuffInfoStruct@@V?$allocator@UBuffInfoStruct@@@std@@@std@@QBEIXZ PROC ; std::vector<BuffInfoStruct,std::allocator<BuffInfoStruct> >::max_size, COMDAT
; _this$ = ecx

; 884  : 		return (this->_Alval.max_size());

  00000	b8 cc cc cc 0c	 mov	 eax, 214748364		; 0cccccccH

; 885  : 		}

  00005	c3		 ret	 0
?max_size@?$vector@UBuffInfoStruct@@V?$allocator@UBuffInfoStruct@@@std@@@std@@QBEIXZ ENDP ; std::vector<BuffInfoStruct,std::allocator<BuffInfoStruct> >::max_size
_TEXT	ENDS
PUBLIC	?allocate@?$allocator@UBuffInfoStruct@@@std@@QAEPAUBuffInfoStruct@@I@Z ; std::allocator<BuffInfoStruct>::allocate
; Function compile flags: /Ogsp
; File c:\program files (x86)\microsoft visual studio 10.0\vc\include\xmemory
;	COMDAT ?allocate@?$allocator@UBuffInfoStruct@@@std@@QAEPAUBuffInfoStruct@@I@Z
_TEXT	SEGMENT
__Count$ = 8						; size = 4
?allocate@?$allocator@UBuffInfoStruct@@@std@@QAEPAUBuffInfoStruct@@I@Z PROC ; std::allocator<BuffInfoStruct>::allocate, COMDAT
; _this$ = ecx

; 186  : 		{	// allocate array of _Count elements

  00000	55		 push	 ebp
  00001	8b ec		 mov	 ebp, esp

; 187  : 		return (_Allocate(_Count, (pointer)0));

  00003	6a 00		 push	 0
  00005	ff 75 08	 push	 DWORD PTR __Count$[ebp]
  00008	e8 00 00 00 00	 call	 ??$_Allocate@UBuffInfoStruct@@@std@@YAPAUBuffInfoStruct@@IPAU1@@Z ; std::_Allocate<BuffInfoStruct>
  0000d	59		 pop	 ecx
  0000e	59		 pop	 ecx

; 188  : 		}

  0000f	5d		 pop	 ebp
  00010	c2 04 00	 ret	 4
?allocate@?$allocator@UBuffInfoStruct@@@std@@QAEPAUBuffInfoStruct@@I@Z ENDP ; std::allocator<BuffInfoStruct>::allocate
_TEXT	ENDS
PUBLIC	??$_Destroy@UBuffInfoStruct@@@std@@YAXPAUBuffInfoStruct@@@Z ; std::_Destroy<BuffInfoStruct>
; Function compile flags: /Ogsp
;	COMDAT ??$_Destroy@UBuffInfoStruct@@@std@@YAXPAUBuffInfoStruct@@@Z
_TEXT	SEGMENT
__Ptr$ = 8						; size = 4
??$_Destroy@UBuffInfoStruct@@@std@@YAXPAUBuffInfoStruct@@@Z PROC ; std::_Destroy<BuffInfoStruct>, COMDAT

; 62   : 	{	// destroy object at _Ptr

  00000	55		 push	 ebp
  00001	8b ec		 mov	 ebp, esp

; 63   : 	_Ptr->~_Ty();

  00003	8b 4d 08	 mov	 ecx, DWORD PTR __Ptr$[ebp]

; 64   : 	}

  00006	5d		 pop	 ebp

; 63   : 	_Ptr->~_Ty();

  00007	ff 25 00 00 00
	00		 jmp	 DWORD PTR __imp_??1ioHashString@@QAE@XZ
??$_Destroy@UBuffInfoStruct@@@std@@YAXPAUBuffInfoStruct@@@Z ENDP ; std::_Destroy<BuffInfoStruct>
_TEXT	ENDS
PUBLIC	??$construct@AAUBuffInfoStruct@@@?$allocator@UBuffInfoStruct@@@std@@QAEXPAUBuffInfoStruct@@AAU2@@Z ; std::allocator<BuffInfoStruct>::construct<BuffInfoStruct &>
;	COMDAT xdata$x
; File c:\program files (x86)\microsoft visual studio 10.0\vc\include\vector
xdata$x	SEGMENT
__unwindtable$??$construct@AAUBuffInfoStruct@@@?$allocator@UBuffInfoStruct@@@std@@QAEXPAUBuffInfoStruct@@AAU2@@Z DD 0ffffffffH
	DD	FLAT:__unwindfunclet$??$construct@AAUBuffInfoStruct@@@?$allocator@UBuffInfoStruct@@@std@@QAEXPAUBuffInfoStruct@@AAU2@@Z$0
__ehfuncinfo$??$construct@AAUBuffInfoStruct@@@?$allocator@UBuffInfoStruct@@@std@@QAEXPAUBuffInfoStruct@@AAU2@@Z DD 019930522H
	DD	01H
	DD	FLAT:__unwindtable$??$construct@AAUBuffInfoStruct@@@?$allocator@UBuffInfoStruct@@@std@@QAEXPAUBuffInfoStruct@@AAU2@@Z
	DD	2 DUP(00H)
	DD	2 DUP(00H)
	DD	00H
	DD	01H
; Function compile flags: /Ogsp
; File c:\program files (x86)\microsoft visual studio 10.0\vc\include\xmemory
xdata$x	ENDS
;	COMDAT ??$construct@AAUBuffInfoStruct@@@?$allocator@UBuffInfoStruct@@@std@@QAEXPAUBuffInfoStruct@@AAU2@@Z
_TEXT	SEGMENT
$T535554 = -16						; size = 4
__$EHRec$ = -12						; size = 12
__Ptr$ = 8						; size = 4
__Val$ = 12						; size = 4
??$construct@AAUBuffInfoStruct@@@?$allocator@UBuffInfoStruct@@@std@@QAEXPAUBuffInfoStruct@@AAU2@@Z PROC ; std::allocator<BuffInfoStruct>::construct<BuffInfoStruct &>, COMDAT
; _this$ = ecx

; 206  : 		void construct(pointer _Ptr, _Other&& _Val)

  00000	6a 04		 push	 4
  00002	b8 00 00 00 00	 mov	 eax, __ehhandler$??$construct@AAUBuffInfoStruct@@@?$allocator@UBuffInfoStruct@@@std@@QAEXPAUBuffInfoStruct@@AAU2@@Z
  00007	e8 00 00 00 00	 call	 __EH_prolog3

; 207  : 		{	// construct object at _Ptr with value _Val
; 208  : 		::new ((void _FARQ *)_Ptr) _Ty(_STD forward<_Other>(_Val));

  0000c	8b 75 08	 mov	 esi, DWORD PTR __Ptr$[ebp]
  0000f	89 75 f0	 mov	 DWORD PTR $T535554[ebp], esi
  00012	83 65 fc 00	 and	 DWORD PTR __$EHRec$[ebp+8], 0
  00016	85 f6		 test	 esi, esi
  00018	74 12		 je	 SHORT $LN3@construct@2
  0001a	8b 7d 0c	 mov	 edi, DWORD PTR __Val$[ebp]
  0001d	57		 push	 edi
  0001e	8b ce		 mov	 ecx, esi
  00020	ff 15 00 00 00
	00		 call	 DWORD PTR __imp_??0ioHashString@@QAE@ABV0@@Z
  00026	8b 47 10	 mov	 eax, DWORD PTR [edi+16]
  00029	89 46 10	 mov	 DWORD PTR [esi+16], eax
$LN3@construct@2:

; 209  : 		}

  0002c	e8 00 00 00 00	 call	 __EH_epilog3
  00031	c2 08 00	 ret	 8
_TEXT	ENDS
;	COMDAT text$x
text$x	SEGMENT
__unwindfunclet$??$construct@AAUBuffInfoStruct@@@?$allocator@UBuffInfoStruct@@@std@@QAEXPAUBuffInfoStruct@@AAU2@@Z$0:
  00000	ff 75 08	 push	 DWORD PTR __Ptr$[ebp]
  00003	ff 75 f0	 push	 DWORD PTR $T535554[ebp]
  00006	e8 00 00 00 00	 call	 ??3@YAXPAX0@Z		; operator delete
  0000b	59		 pop	 ecx
  0000c	59		 pop	 ecx
  0000d	c3		 ret	 0
__ehhandler$??$construct@AAUBuffInfoStruct@@@?$allocator@UBuffInfoStruct@@@std@@QAEXPAUBuffInfoStruct@@AAU2@@Z:
  0000e	8b 54 24 08	 mov	 edx, DWORD PTR [esp+8]
  00012	8d 42 0c	 lea	 eax, DWORD PTR [edx+12]
  00015	8b 4a ec	 mov	 ecx, DWORD PTR [edx-20]
  00018	33 c8		 xor	 ecx, eax
  0001a	e8 00 00 00 00	 call	 @__security_check_cookie@4
  0001f	b8 00 00 00 00	 mov	 eax, OFFSET __ehfuncinfo$??$construct@AAUBuffInfoStruct@@@?$allocator@UBuffInfoStruct@@@std@@QAEXPAUBuffInfoStruct@@AAU2@@Z
  00024	e9 00 00 00 00	 jmp	 ___CxxFrameHandler3
text$x	ENDS
??$construct@AAUBuffInfoStruct@@@?$allocator@UBuffInfoStruct@@@std@@QAEXPAUBuffInfoStruct@@AAU2@@Z ENDP ; std::allocator<BuffInfoStruct>::construct<BuffInfoStruct &>
PUBLIC	?InitResource@ioLobeliaWeapon@@UAE_NXZ		; ioLobeliaWeapon::InitResource
EXTRN	?InitResource@ioWeapon@@UAE_NXZ:PROC		; ioWeapon::InitResource
; Function compile flags: /Ogsp
; File d:\lost saga for developer\youtube\tutorial\source\src\lsclient\iolobeliaweapon.cpp
;	COMDAT ?InitResource@ioLobeliaWeapon@@UAE_NXZ
_TEXT	SEGMENT
?InitResource@ioLobeliaWeapon@@UAE_NXZ PROC		; ioLobeliaWeapon::InitResource, COMDAT
; _this$ = ecx

; 47   : {

  00000	56		 push	 esi
  00001	8b f1		 mov	 esi, ecx

; 48   : 	if( ioWeapon::InitResource() )

  00003	e8 00 00 00 00	 call	 ?InitResource@ioWeapon@@UAE_NXZ ; ioWeapon::InitResource
  00008	84 c0		 test	 al, al
  0000a	74 25		 je	 SHORT $LN1@InitResour

; 49   : 	{
; 50   : 		DestroyResource();

  0000c	8b 06		 mov	 eax, DWORD PTR [esi]
  0000e	6a 00		 push	 0
  00010	8b ce		 mov	 ecx, esi
  00012	ff 90 9c 00 00
	00		 call	 DWORD PTR [eax+156]

; 51   : 
; 52   : 		return SetFireMesh( GetAttribute()->m_WeaponEffect );

  00018	8b 06		 mov	 eax, DWORD PTR [esi]
  0001a	8b ce		 mov	 ecx, esi
  0001c	ff 90 3c 01 00
	00		 call	 DWORD PTR [eax+316]
  00022	05 34 01 00 00	 add	 eax, 308		; 00000134H
  00027	50		 push	 eax
  00028	8b ce		 mov	 ecx, esi
  0002a	e8 00 00 00 00	 call	 ?SetFireMesh@ioLobeliaWeapon@@IAE_NABVioHashString@@@Z ; ioLobeliaWeapon::SetFireMesh
  0002f	5e		 pop	 esi

; 56   : }

  00030	c3		 ret	 0
$LN1@InitResour:

; 53   : 	}
; 54   : 
; 55   : 	return false;

  00031	32 c0		 xor	 al, al
  00033	5e		 pop	 esi

; 56   : }

  00034	c3		 ret	 0
?InitResource@ioLobeliaWeapon@@UAE_NXZ ENDP		; ioLobeliaWeapon::InitResource
_TEXT	ENDS
PUBLIC	?Process@ioLobeliaWeapon@@UAEXMPAVioPlayStage@@@Z ; ioLobeliaWeapon::Process
; Function compile flags: /Ogsp
;	COMDAT ?Process@ioLobeliaWeapon@@UAEXMPAVioPlayStage@@@Z
_TEXT	SEGMENT
_fTimePerSec$ = 8					; size = 4
_pStage$ = 12						; size = 4
?Process@ioLobeliaWeapon@@UAEXMPAVioPlayStage@@@Z PROC	; ioLobeliaWeapon::Process, COMDAT
; _this$ = ecx

; 186  : {

  00000	55		 push	 ebp
  00001	8b ec		 mov	 ebp, esp

; 187  : 	switch( m_State )

  00003	f3 0f 10 45 08	 movss	 xmm0, DWORD PTR _fTimePerSec$[ebp]
  00008	56		 push	 esi
  00009	8b f1		 mov	 esi, ecx
  0000b	8b 86 94 08 00
	00		 mov	 eax, DWORD PTR [esi+2196]
  00011	83 e8 00	 sub	 eax, 0
  00014	74 4c		 je	 SHORT $LN5@Process
  00016	48		 dec	 eax
  00017	74 39		 je	 SHORT $LN4@Process
  00019	48		 dec	 eax
  0001a	74 26		 je	 SHORT $LN3@Process
  0001c	48		 dec	 eax
  0001d	74 13		 je	 SHORT $LN2@Process
  0001f	48		 dec	 eax
  00020	75 4e		 jne	 SHORT $LN6@Process

; 201  : 	case TS_EXPLOSION:
; 202  : 		OnExplosionState( fTimePerSec, pStage );

  00022	ff 75 0c	 push	 DWORD PTR _pStage$[ebp]
  00025	51		 push	 ecx
  00026	f3 0f 11 04 24	 movss	 DWORD PTR [esp], xmm0
  0002b	e8 00 00 00 00	 call	 ?OnExplosionState@ioLobeliaWeapon@@IAEXMPAVioPlayStage@@@Z ; ioLobeliaWeapon::OnExplosionState

; 203  : 		break;

  00030	eb 3e		 jmp	 SHORT $LN6@Process
$LN2@Process:

; 198  : 	case TS_GROUND:
; 199  : 		OnGroundState( fTimePerSec, pStage );

  00032	ff 75 0c	 push	 DWORD PTR _pStage$[ebp]
  00035	51		 push	 ecx
  00036	f3 0f 11 04 24	 movss	 DWORD PTR [esp], xmm0
  0003b	e8 00 00 00 00	 call	 ?OnGroundState@ioLobeliaWeapon@@IAEXMPAVioPlayStage@@@Z ; ioLobeliaWeapon::OnGroundState

; 200  : 		break;

  00040	eb 2e		 jmp	 SHORT $LN6@Process
$LN3@Process:

; 195  : 	case TS_PINGPONG:
; 196  : 		OnPingPongState( fTimePerSec, pStage );

  00042	ff 75 0c	 push	 DWORD PTR _pStage$[ebp]
  00045	51		 push	 ecx
  00046	f3 0f 11 04 24	 movss	 DWORD PTR [esp], xmm0
  0004b	e8 00 00 00 00	 call	 ?OnPingPongState@ioLobeliaWeapon@@IAEXMPAVioPlayStage@@@Z ; ioLobeliaWeapon::OnPingPongState

; 197  : 		break;

  00050	eb 1e		 jmp	 SHORT $LN6@Process
$LN4@Process:

; 191  : 		break;
; 192  : 	case TS_MOVE:
; 193  : 		OnMoveState( fTimePerSec, pStage );

  00052	ff 75 0c	 push	 DWORD PTR _pStage$[ebp]
  00055	51		 push	 ecx
  00056	f3 0f 11 04 24	 movss	 DWORD PTR [esp], xmm0
  0005b	e8 00 00 00 00	 call	 ?OnMoveState@ioLobeliaWeapon@@IAEXMPAVioPlayStage@@@Z ; ioLobeliaWeapon::OnMoveState

; 194  : 		break;

  00060	eb 0e		 jmp	 SHORT $LN6@Process
$LN5@Process:

; 188  : 	{
; 189  : 	case TS_NONE:
; 190  : 		OnNoneState( fTimePerSec, pStage );

  00062	ff 75 0c	 push	 DWORD PTR _pStage$[ebp]
  00065	51		 push	 ecx
  00066	f3 0f 11 04 24	 movss	 DWORD PTR [esp], xmm0
  0006b	e8 00 00 00 00	 call	 ?OnNoneState@ioLobeliaWeapon@@IAEXMPAVioPlayStage@@@Z ; ioLobeliaWeapon::OnNoneState
$LN6@Process:

; 204  : 	}
; 205  : 
; 206  : 	UpdateWorldAttackBox( fTimePerSec, false );

  00070	f3 0f 10 45 08	 movss	 xmm0, DWORD PTR _fTimePerSec$[ebp]
  00075	8b 06		 mov	 eax, DWORD PTR [esi]
  00077	6a 00		 push	 0
  00079	51		 push	 ecx
  0007a	8b ce		 mov	 ecx, esi
  0007c	f3 0f 11 04 24	 movss	 DWORD PTR [esp], xmm0
  00081	ff 90 38 01 00
	00		 call	 DWORD PTR [eax+312]
  00087	5e		 pop	 esi

; 207  : }

  00088	5d		 pop	 ebp
  00089	c2 08 00	 ret	 8
?Process@ioLobeliaWeapon@@UAEXMPAVioPlayStage@@@Z ENDP	; ioLobeliaWeapon::Process
_TEXT	ENDS
PUBLIC	_pEntity$GSCopy$
PUBLIC	__$ArrayPad$
PUBLIC	?CheckCollisionSphere@ioLobeliaWeapon@@IAE_NPAVioPlayEntity@@@Z ; ioLobeliaWeapon::CheckCollisionSphere
EXTRN	__imp_?VEC3_ZERO@ioMath@@2UD3DXVECTOR3@@A:BYTE
EXTRN	?GetMidPositionByRate@ioGameEntity@@QBE?AUD3DXVECTOR3@@M@Z:PROC ; ioGameEntity::GetMidPositionByRate
EXTRN	__imp_?GetCenter@ioOrientBox@@QBEABUD3DXVECTOR3@@XZ:PROC
; Function compile flags: /Ogsp
;	COMDAT ?CheckCollisionSphere@ioLobeliaWeapon@@IAE_NPAVioPlayEntity@@@Z
_TEXT	SEGMENT
_vDiff$ = -84						; size = 12
tv447 = -72						; size = 8
_value$535638 = -68					; size = 4
_value$535590 = -68					; size = 4
_pEntity$GSCopy$ = -64					; size = 4
tv578 = -60						; size = 4
tv574 = -60						; size = 4
tv570 = -60						; size = 4
_value$535623 = -60					; size = 4
tv518 = -56						; size = 4
tv515 = -56						; size = 4
tv478 = -56						; size = 4
tv474 = -56						; size = 4
tv470 = -56						; size = 4
tv468 = -56						; size = 4
tv462 = -56						; size = 4
_value$535586 = -56					; size = 4
$T531213 = -52						; size = 12
_vPoint$ = -40						; size = 12
_vDir$ = -28						; size = 12
_vPos$ = -16						; size = 12
__$ArrayPad$ = -4					; size = 4
_pEntity$ = 8						; size = 4
?CheckCollisionSphere@ioLobeliaWeapon@@IAE_NPAVioPlayEntity@@@Z PROC ; ioLobeliaWeapon::CheckCollisionSphere, COMDAT
; _this$ = ecx

; 762  : {

  00000	55		 push	 ebp
  00001	8b ec		 mov	 ebp, esp
  00003	83 ec 54	 sub	 esp, 84			; 00000054H
  00006	a1 00 00 00 00	 mov	 eax, DWORD PTR ___security_cookie
  0000b	33 c5		 xor	 eax, ebp
  0000d	89 45 fc	 mov	 DWORD PTR __$ArrayPad$[ebp], eax
  00010	8b 45 08	 mov	 eax, DWORD PTR _pEntity$[ebp]
  00013	53		 push	 ebx
  00014	56		 push	 esi
  00015	57		 push	 edi

; 763  : 	D3DXVECTOR3 vPos = GetWorldAttackBox().GetCenter();

  00016	6a 00		 push	 0
  00018	8b d9		 mov	 ebx, ecx

; 774  : 
; 775  : 	D3DXVECTOR3 vDir = vPoint - vPos;

  0001a	89 45 c0	 mov	 DWORD PTR _pEntity$GSCopy$[ebp], eax
  0001d	e8 00 00 00 00	 call	 ?GetWorldAttackBox@ioWeapon@@QBEABVioOrientBox@@_N@Z ; ioWeapon::GetWorldAttackBox
  00022	8b c8		 mov	 ecx, eax
  00024	ff 15 00 00 00
	00		 call	 DWORD PTR __imp_?GetCenter@ioOrientBox@@QBEABUD3DXVECTOR3@@XZ
  0002a	8b f0		 mov	 esi, eax
  0002c	8d 7d f0	 lea	 edi, DWORD PTR _vPos$[ebp]
  0002f	a5		 movsd
  00030	a5		 movsd
  00031	8d 45 c8	 lea	 eax, DWORD PTR _value$535586[ebp]
  00034	50		 push	 eax
  00035	8d 8b f0 00 00
	00		 lea	 ecx, DWORD PTR [ebx+240]
  0003b	a5		 movsd
  0003c	e8 00 00 00 00	 call	 ?DecryptValueToPool@?$CEncrypt@M@@QAEXPAM@Z ; CEncrypt<float>::DecryptValueToPool
  00041	8d 45 bc	 lea	 eax, DWORD PTR _value$535590[ebp]
  00044	50		 push	 eax
  00045	8d 8b 68 09 00
	00		 lea	 ecx, DWORD PTR [ebx+2408]
  0004b	e8 00 00 00 00	 call	 ?DecryptValueToPool@?$CEncrypt@M@@QAEXPAM@Z ; CEncrypt<float>::DecryptValueToPool

; 764  : 	float fZoneRange = m_fZoneRange * m_fOwnerChargeRangeRate;
; 765  : 
; 766  : 	D3DXVECTOR3 vDiff = vPos - pEntity->GetMidPositionByRate();

  00050	b8 05 00 00 00	 mov	 eax, 5

; 774  : 
; 775  : 	D3DXVECTOR3 vDir = vPoint - vPos;

  00055	8b c8		 mov	 ecx, eax

; 764  : 	float fZoneRange = m_fZoneRange * m_fOwnerChargeRangeRate;
; 765  : 
; 766  : 	D3DXVECTOR3 vDiff = vPos - pEntity->GetMidPositionByRate();

  00057	b8 0a 00 00 00	 mov	 eax, 10			; 0000000aH

; 774  : 
; 775  : 	D3DXVECTOR3 vDir = vPoint - vPos;

  0005c	89 4d c4	 mov	 DWORD PTR tv578[ebp], ecx
  0005f	db 45 c4	 fild	 DWORD PTR tv578[ebp]
  00062	85 c9		 test	 ecx, ecx
  00064	79 06		 jns	 SHORT $LN40@CheckColli

; 764  : 	float fZoneRange = m_fZoneRange * m_fOwnerChargeRangeRate;
; 765  : 
; 766  : 	D3DXVECTOR3 vDiff = vPos - pEntity->GetMidPositionByRate();

  00066	d8 05 00 00 00
	00		 fadd	 DWORD PTR __real@4f800000
$LN40@CheckColli:
  0006c	89 45 c4	 mov	 DWORD PTR tv574[ebp], eax
  0006f	db 45 c4	 fild	 DWORD PTR tv574[ebp]
  00072	85 c0		 test	 eax, eax
  00074	79 06		 jns	 SHORT $LN41@CheckColli
  00076	d8 05 00 00 00
	00		 fadd	 DWORD PTR __real@4f800000
$LN41@CheckColli:
  0007c	de f9		 fdivp	 ST(1), ST(0)
  0007e	51		 push	 ecx
  0007f	8b 4d c0	 mov	 ecx, DWORD PTR _pEntity$GSCopy$[ebp]
  00082	8d 45 cc	 lea	 eax, DWORD PTR $T531213[ebp]
  00085	d9 5d c4	 fstp	 DWORD PTR tv570[ebp]
  00088	d9 45 c4	 fld	 DWORD PTR tv570[ebp]
  0008b	d9 1c 24	 fstp	 DWORD PTR [esp]
  0008e	50		 push	 eax
  0008f	e8 00 00 00 00	 call	 ?GetMidPositionByRate@ioGameEntity@@QBE?AUD3DXVECTOR3@@M@Z ; ioGameEntity::GetMidPositionByRate
  00094	f3 0f 10 08	 movss	 xmm1, DWORD PTR [eax]
  00098	f3 0f 10 45 f0	 movss	 xmm0, DWORD PTR _vPos$[ebp]
  0009d	0f 5a c0	 cvtps2pd xmm0, xmm0
  000a0	0f 5a c9	 cvtps2pd xmm1, xmm1
  000a3	f2 0f 5c c1	 subsd	 xmm0, xmm1
  000a7	f3 0f 10 48 04	 movss	 xmm1, DWORD PTR [eax+4]
  000ac	66 0f 5a c0	 cvtpd2ps xmm0, xmm0
  000b0	f3 0f 11 45 ac	 movss	 DWORD PTR _vDiff$[ebp], xmm0
  000b5	f3 0f 10 45 f4	 movss	 xmm0, DWORD PTR _vPos$[ebp+4]
  000ba	0f 5a c0	 cvtps2pd xmm0, xmm0
  000bd	0f 5a c9	 cvtps2pd xmm1, xmm1
  000c0	f2 0f 5c c1	 subsd	 xmm0, xmm1
  000c4	f3 0f 10 48 08	 movss	 xmm1, DWORD PTR [eax+8]
  000c9	66 0f 5a c0	 cvtpd2ps xmm0, xmm0
  000cd	f3 0f 11 45 b0	 movss	 DWORD PTR _vDiff$[ebp+4], xmm0
  000d2	f3 0f 10 45 f8	 movss	 xmm0, DWORD PTR _vPos$[ebp+8]
  000d7	0f 5a c0	 cvtps2pd xmm0, xmm0
  000da	0f 5a c9	 cvtps2pd xmm1, xmm1

; 767  : 	float fLength = D3DXVec3Length( &vDiff );
; 768  : 	if( fLength <= m_fZoneMinRange )

  000dd	8d 45 c4	 lea	 eax, DWORD PTR _value$535623[ebp]
  000e0	f2 0f 5c c1	 subsd	 xmm0, xmm1
  000e4	66 0f 5a c0	 cvtpd2ps xmm0, xmm0
  000e8	50		 push	 eax
  000e9	8d 8b 98 09 00
	00		 lea	 ecx, DWORD PTR [ebx+2456]
  000ef	f3 0f 11 45 b4	 movss	 DWORD PTR _vDiff$[ebp+8], xmm0
  000f4	e8 00 00 00 00	 call	 ?DecryptValueToPool@?$CEncrypt@M@@QAEXPAM@Z ; CEncrypt<float>::DecryptValueToPool
  000f9	f3 0f 10 45 b0	 movss	 xmm0, DWORD PTR _vDiff$[ebp+4]
  000fe	f3 0f 10 4d ac	 movss	 xmm1, DWORD PTR _vDiff$[ebp]
  00103	f3 0f 10 55 b4	 movss	 xmm2, DWORD PTR _vDiff$[ebp+8]
  00108	0f 5a c0	 cvtps2pd xmm0, xmm0
  0010b	f2 0f 59 c0	 mulsd	 xmm0, xmm0
  0010f	0f 5a c9	 cvtps2pd xmm1, xmm1
  00112	f2 0f 59 c9	 mulsd	 xmm1, xmm1
  00116	f2 0f 58 c8	 addsd	 xmm1, xmm0
  0011a	0f 57 c0	 xorps	 xmm0, xmm0
  0011d	0f 5a d2	 cvtps2pd xmm2, xmm2
  00120	f2 0f 59 d2	 mulsd	 xmm2, xmm2
  00124	f2 0f 58 ca	 addsd	 xmm1, xmm2
  00128	f2 0f 5a c1	 cvtsd2ss xmm0, xmm1
  0012c	f3 0f 10 4d c4	 movss	 xmm1, DWORD PTR _value$535623[ebp]
  00131	0f 5a c0	 cvtps2pd xmm0, xmm0
  00134	f2 0f 51 c0	 sqrtsd	 xmm0, xmm0
  00138	66 0f 5a c0	 cvtpd2ps xmm0, xmm0
  0013c	f3 0f 5a c0	 cvtss2sd xmm0, xmm0
  00140	0f 5a c9	 cvtps2pd xmm1, xmm1
  00143	66 0f 2f c8	 comisd	 xmm1, xmm0

; 769  : 		return false;

  00147	0f 83 04 01 00
	00		 jae	 $LN1@CheckColli

; 770  : 
; 771  : 	D3DXVECTOR3 vPoint = ioMath::VEC3_ZERO;

  0014d	8b 35 00 00 00
	00		 mov	 esi, DWORD PTR __imp_?VEC3_ZERO@ioMath@@2UD3DXVECTOR3@@A

; 772  : 	if( !pEntity->CheckSpherePoint( vPos, fZoneRange, vPoint ) )

  00153	8b 4d c0	 mov	 ecx, DWORD PTR _pEntity$GSCopy$[ebp]
  00156	f3 0f 10 45 bc	 movss	 xmm0, DWORD PTR _value$535590[ebp]
  0015b	f3 0f 10 4d c8	 movss	 xmm1, DWORD PTR _value$535586[ebp]
  00160	8b 01		 mov	 eax, DWORD PTR [ecx]
  00162	8d 7d d8	 lea	 edi, DWORD PTR _vPoint$[ebp]
  00165	a5		 movsd
  00166	8d 55 d8	 lea	 edx, DWORD PTR _vPoint$[ebp]
  00169	52		 push	 edx
  0016a	0f 5a c0	 cvtps2pd xmm0, xmm0
  0016d	a5		 movsd
  0016e	0f 5a c9	 cvtps2pd xmm1, xmm1
  00171	51		 push	 ecx
  00172	f2 0f 59 c1	 mulsd	 xmm0, xmm1
  00176	66 0f 5a c0	 cvtpd2ps xmm0, xmm0
  0017a	8d 55 f0	 lea	 edx, DWORD PTR _vPos$[ebp]
  0017d	f3 0f 11 04 24	 movss	 DWORD PTR [esp], xmm0
  00182	52		 push	 edx
  00183	a5		 movsd
  00184	ff 90 9c 00 00
	00		 call	 DWORD PTR [eax+156]
  0018a	84 c0		 test	 al, al

; 773  : 		return false;

  0018c	0f 84 bf 00 00
	00		 je	 $LN1@CheckColli

; 774  : 
; 775  : 	D3DXVECTOR3 vDir = vPoint - vPos;

  00192	d9 45 d8	 fld	 DWORD PTR _vPoint$[ebp]

; 776  : 	D3DXVec3Normalize( &vDir, &vDir );

  00195	8d 45 e4	 lea	 eax, DWORD PTR _vDir$[ebp]
  00198	d8 65 f0	 fsub	 DWORD PTR _vPos$[ebp]
  0019b	50		 push	 eax
  0019c	50		 push	 eax
  0019d	d9 5d e4	 fstp	 DWORD PTR _vDir$[ebp]
  001a0	d9 45 dc	 fld	 DWORD PTR _vPoint$[ebp+4]
  001a3	d8 65 f4	 fsub	 DWORD PTR _vPos$[ebp+4]
  001a6	d9 5d e8	 fstp	 DWORD PTR _vDir$[ebp+4]
  001a9	d9 45 e0	 fld	 DWORD PTR _vPoint$[ebp+8]
  001ac	d8 65 f8	 fsub	 DWORD PTR _vPos$[ebp+8]
  001af	d9 5d ec	 fstp	 DWORD PTR _vDir$[ebp+8]
  001b2	e8 00 00 00 00	 call	 _D3DXVec3Normalize@8

; 777  : 
; 778  : 	float fCurCheckAngle = m_fZoneAngle;

  001b7	8d 45 bc	 lea	 eax, DWORD PTR _value$535638[ebp]
  001ba	50		 push	 eax
  001bb	8d 8b 28 0a 00
	00		 lea	 ecx, DWORD PTR [ebx+2600]
  001c1	e8 00 00 00 00	 call	 ?DecryptValueToPool@?$CEncrypt@M@@QAEXPAM@Z ; CEncrypt<float>::DecryptValueToPool

; 779  : 	float fHalfCosine = cosf( DEGtoRAD( fCurCheckAngle ) * FLOAT05 );

  001c6	b8 05 00 00 00	 mov	 eax, 5
  001cb	8b d0		 mov	 edx, eax
  001cd	b8 0a 00 00 00	 mov	 eax, 10			; 0000000aH

; 780  : 	if( D3DXVec3Dot( &m_vMoveDir, &vDir ) >= fHalfCosine )

  001d2	d9 83 c8 08 00
	00		 fld	 DWORD PTR [ebx+2248]
  001d8	d8 4d e8	 fmul	 DWORD PTR _vDir$[ebp+4]
  001db	d9 83 c4 08 00
	00		 fld	 DWORD PTR [ebx+2244]
  001e1	d8 4d e4	 fmul	 DWORD PTR _vDir$[ebp]
  001e4	de c1		 faddp	 ST(1), ST(0)
  001e6	d9 83 cc 08 00
	00		 fld	 DWORD PTR [ebx+2252]
  001ec	d8 4d ec	 fmul	 DWORD PTR _vDir$[ebp+8]
  001ef	de c1		 faddp	 ST(1), ST(0)
  001f1	d9 5d c8	 fstp	 DWORD PTR tv518[ebp]
  001f4	d9 45 c8	 fld	 DWORD PTR tv518[ebp]
  001f7	89 55 c8	 mov	 DWORD PTR tv515[ebp], edx
  001fa	db 45 c8	 fild	 DWORD PTR tv515[ebp]
  001fd	85 d2		 test	 edx, edx
  001ff	79 06		 jns	 SHORT $LN42@CheckColli
  00201	d8 05 00 00 00
	00		 fadd	 DWORD PTR __real@4f800000
$LN42@CheckColli:
  00207	89 45 c8	 mov	 DWORD PTR tv478[ebp], eax
  0020a	db 45 c8	 fild	 DWORD PTR tv478[ebp]
  0020d	85 c0		 test	 eax, eax
  0020f	79 06		 jns	 SHORT $LN43@CheckColli
  00211	d8 05 00 00 00
	00		 fadd	 DWORD PTR __real@4f800000
$LN43@CheckColli:

; 779  : 	float fHalfCosine = cosf( DEGtoRAD( fCurCheckAngle ) * FLOAT05 );

  00217	de f9		 fdivp	 ST(1), ST(0)

; 780  : 	if( D3DXVec3Dot( &m_vMoveDir, &vDir ) >= fHalfCosine )

  00219	d9 5d c8	 fstp	 DWORD PTR tv474[ebp]
  0021c	d9 45 c8	 fld	 DWORD PTR tv474[ebp]
  0021f	d9 45 bc	 fld	 DWORD PTR _value$535638[ebp]
  00222	dc 0d 00 00 00
	00		 fmul	 QWORD PTR __real@3f91df46a2526c7a
  00228	d9 5d c8	 fstp	 DWORD PTR tv470[ebp]
  0022b	d8 4d c8	 fmul	 DWORD PTR tv470[ebp]
  0022e	d9 5d c8	 fstp	 DWORD PTR tv468[ebp]
  00231	d9 45 c8	 fld	 DWORD PTR tv468[ebp]
  00234	d9 c9		 fxch	 ST(1)
  00236	dd 5d b8	 fstp	 QWORD PTR tv447[ebp]
  00239	e8 00 00 00 00	 call	 __CIcos
  0023e	d9 5d c8	 fstp	 DWORD PTR tv462[ebp]
  00241	d9 45 c8	 fld	 DWORD PTR tv462[ebp]
  00244	dd 45 b8	 fld	 QWORD PTR tv447[ebp]
  00247	df f1		 fcomip	 ST(1)
  00249	dd d8		 fstp	 ST(0)
  0024b	72 04		 jb	 SHORT $LN1@CheckColli

; 781  : 		return true;

  0024d	b0 01		 mov	 al, 1
  0024f	eb 02		 jmp	 SHORT $LN4@CheckColli
$LN1@CheckColli:

; 782  : 
; 783  : 	return false;

  00251	32 c0		 xor	 al, al
$LN4@CheckColli:

; 784  : }

  00253	8b 4d fc	 mov	 ecx, DWORD PTR __$ArrayPad$[ebp]
  00256	5f		 pop	 edi
  00257	5e		 pop	 esi
  00258	33 cd		 xor	 ecx, ebp
  0025a	5b		 pop	 ebx
  0025b	e8 00 00 00 00	 call	 @__security_check_cookie@4
  00260	c9		 leave
  00261	c2 04 00	 ret	 4
?CheckCollisionSphere@ioLobeliaWeapon@@IAE_NPAVioPlayEntity@@@Z ENDP ; ioLobeliaWeapon::CheckCollisionSphere
_TEXT	ENDS
PUBLIC	_pEntity$GSCopy$
PUBLIC	?CheckCollisionCylinder@ioLobeliaWeapon@@IAE_NPAVioPlayEntity@@@Z ; ioLobeliaWeapon::CheckCollisionCylinder
EXTRN	__imp_??1ioCylinder@@QAE@XZ:PROC
EXTRN	__imp_??1ioOrientBox@@QAE@XZ:PROC
EXTRN	__imp_?SetBoxByMinMax@ioOrientBox@@QAEXABUD3DXVECTOR3@@0@Z:PROC
EXTRN	__imp_??0ioOrientBox@@QAE@XZ:PROC
EXTRN	__imp_?GetCenter@ioCylinder@@QBEABUD3DXVECTOR3@@XZ:PROC
EXTRN	__imp_??0ioCylinder@@QAE@ABUD3DXVECTOR3@@0M@Z:PROC
;	COMDAT xdata$x
; File c:\program files (x86)\microsoft directx sdk (june 2010)\include\d3dx9math.inl
xdata$x	SEGMENT
__unwindtable$?CheckCollisionCylinder@ioLobeliaWeapon@@IAE_NPAVioPlayEntity@@@Z DD 0ffffffffH
	DD	FLAT:__unwindfunclet$?CheckCollisionCylinder@ioLobeliaWeapon@@IAE_NPAVioPlayEntity@@@Z$0
	DD	00H
	DD	FLAT:__unwindfunclet$?CheckCollisionCylinder@ioLobeliaWeapon@@IAE_NPAVioPlayEntity@@@Z$1
__ehfuncinfo$?CheckCollisionCylinder@ioLobeliaWeapon@@IAE_NPAVioPlayEntity@@@Z DD 019930522H
	DD	02H
	DD	FLAT:__unwindtable$?CheckCollisionCylinder@ioLobeliaWeapon@@IAE_NPAVioPlayEntity@@@Z
	DD	2 DUP(00H)
	DD	2 DUP(00H)
	DD	00H
	DD	01H
; Function compile flags: /Ogsp
; File d:\lost saga for developer\youtube\tutorial\source\src\lsclient\iolobeliaweapon.cpp
xdata$x	ENDS
;	COMDAT ?CheckCollisionCylinder@ioLobeliaWeapon@@IAE_NPAVioPlayEntity@@@Z
_TEXT	SEGMENT
tv70 = -216						; size = 8
tv560 = -212						; size = 4
tv556 = -212						; size = 4
tv552 = -212						; size = 4
tv548 = -212						; size = 4
tv546 = -212						; size = 4
tv383 = -212						; size = 4
_pEntity$GSCopy$ = -212					; size = 4
tv165 = -212						; size = 4
_fTargetDist$ = -212					; size = 4
_value$535730 = -208					; size = 4
_value$535734 = -208					; size = 4
_value$535699 = -208					; size = 4
_value$535681 = -208					; size = 4
_value$535695 = -208					; size = 4
_fHalfCosine$ = -208					; size = 4
_value$535726 = -204					; size = 4
_value$535685 = -204					; size = 4
_fZoneRange$ = -204					; size = 4
$T535667 = -204						; size = 4
$T535666 = -204						; size = 4
_kBuffBox$ = -200					; size = 68
_kCylinder$ = -132					; size = 32
_vCollisionPoint$ = -100				; size = 12
_vMax$ = -88						; size = 12
_vMin$ = -76						; size = 12
_vCenter$ = -64						; size = 12
_vTop$ = -52						; size = 12
_vBottom$ = -40						; size = 12
_vDiff1$ = -28						; size = 12
__$EHRec$ = -12						; size = 12
_pEntity$ = 8						; size = 4
?CheckCollisionCylinder@ioLobeliaWeapon@@IAE_NPAVioPlayEntity@@@Z PROC ; ioLobeliaWeapon::CheckCollisionCylinder, COMDAT
; _this$ = ecx

; 787  : {

  00000	68 cc 00 00 00	 push	 204			; 000000ccH
  00005	b8 00 00 00 00	 mov	 eax, __ehhandler$?CheckCollisionCylinder@ioLobeliaWeapon@@IAE_NPAVioPlayEntity@@@Z
  0000a	e8 00 00 00 00	 call	 __EH_prolog3_GS
  0000f	8b 45 08	 mov	 eax, DWORD PTR _pEntity$[ebp]

; 788  : 	if( m_fUpHeight == 0.0f && m_fUnderHeight == 0.0f )

  00012	0f 57 c0	 xorps	 xmm0, xmm0

; 837  : 
; 838  : 	//   
; 839  : 	float fCurCheckAngle = m_fZoneAngle;

  00015	89 85 2c ff ff
	ff		 mov	 DWORD PTR _pEntity$GSCopy$[ebp], eax
  0001b	8b d9		 mov	 ebx, ecx
  0001d	8d 85 34 ff ff
	ff		 lea	 eax, DWORD PTR $T535666[ebp]
  00023	8d 8b 58 0a 00
	00		 lea	 ecx, DWORD PTR [ebx+2648]
  00029	50		 push	 eax
  0002a	f3 0f 11 85 34
	ff ff ff	 movss	 DWORD PTR $T535666[ebp], xmm0
  00032	e8 00 00 00 00	 call	 ??8?$CEncrypt@M@@QAE_NABM@Z ; CEncrypt<float>::operator==
  00037	84 c0		 test	 al, al
  00039	74 2b		 je	 SHORT $LN6@CheckColli@2

; 788  : 	if( m_fUpHeight == 0.0f && m_fUnderHeight == 0.0f )

  0003b	0f 57 c0	 xorps	 xmm0, xmm0
  0003e	8d 85 34 ff ff
	ff		 lea	 eax, DWORD PTR $T535667[ebp]
  00044	50		 push	 eax
  00045	8d 8b 88 0a 00
	00		 lea	 ecx, DWORD PTR [ebx+2696]
  0004b	f3 0f 11 85 34
	ff ff ff	 movss	 DWORD PTR $T535667[ebp], xmm0
  00053	e8 00 00 00 00	 call	 ??8?$CEncrypt@M@@QAE_NABM@Z ; CEncrypt<float>::operator==
  00058	84 c0		 test	 al, al
  0005a	74 0a		 je	 SHORT $LN6@CheckColli@2
$LN56@CheckColli@2:

; 789  : 		return false;

  0005c	32 c0		 xor	 al, al
$LN7@CheckColli@2:

; 848  : 		return true;
; 849  : 
; 850  : 	return false;
; 851  : }

  0005e	e8 00 00 00 00	 call	 __EH_epilog3_GS
  00063	c2 04 00	 ret	 4
$LN6@CheckColli@2:

; 790  : 
; 791  : 	float fZoneRange = m_fZoneRange * m_fOwnerChargeRangeRate;

  00066	8d 85 30 ff ff
	ff		 lea	 eax, DWORD PTR _value$535681[ebp]
  0006c	50		 push	 eax
  0006d	8d 8b f0 00 00
	00		 lea	 ecx, DWORD PTR [ebx+240]
  00073	e8 00 00 00 00	 call	 ?DecryptValueToPool@?$CEncrypt@M@@QAEXPAM@Z ; CEncrypt<float>::DecryptValueToPool
  00078	8d 85 34 ff ff
	ff		 lea	 eax, DWORD PTR _value$535685[ebp]
  0007e	50		 push	 eax
  0007f	8d 8b 68 09 00
	00		 lea	 ecx, DWORD PTR [ebx+2408]
  00085	e8 00 00 00 00	 call	 ?DecryptValueToPool@?$CEncrypt@M@@QAEXPAM@Z ; CEncrypt<float>::DecryptValueToPool
  0008a	f3 0f 10 85 34
	ff ff ff	 movss	 xmm0, DWORD PTR _value$535685[ebp]
  00092	f3 0f 10 8d 30
	ff ff ff	 movss	 xmm1, DWORD PTR _value$535681[ebp]
  0009a	0f 5a c0	 cvtps2pd xmm0, xmm0
  0009d	0f 5a c9	 cvtps2pd xmm1, xmm1
  000a0	f2 0f 59 c1	 mulsd	 xmm0, xmm1
  000a4	66 0f 5a c0	 cvtpd2ps xmm0, xmm0

; 792  : 
; 793  : 	D3DXVECTOR3 vCenter = GetWorldAttackBox().GetCenter();

  000a8	6a 00		 push	 0
  000aa	8b cb		 mov	 ecx, ebx
  000ac	f3 0f 11 85 34
	ff ff ff	 movss	 DWORD PTR _fZoneRange$[ebp], xmm0
  000b4	e8 00 00 00 00	 call	 ?GetWorldAttackBox@ioWeapon@@QBEABVioOrientBox@@_N@Z ; ioWeapon::GetWorldAttackBox
  000b9	8b c8		 mov	 ecx, eax
  000bb	ff 15 00 00 00
	00		 call	 DWORD PTR __imp_?GetCenter@ioOrientBox@@QBEABUD3DXVECTOR3@@XZ
  000c1	8b f0		 mov	 esi, eax
  000c3	8d 7d c0	 lea	 edi, DWORD PTR _vCenter$[ebp]
  000c6	a5		 movsd
  000c7	a5		 movsd
  000c8	a5		 movsd

; 794  : 
; 795  : 	D3DXVECTOR3 vTop, vBottom;
; 796  : 	vTop = vBottom = vCenter;

  000c9	8d 75 c0	 lea	 esi, DWORD PTR _vCenter$[ebp]
  000cc	8d 7d d8	 lea	 edi, DWORD PTR _vBottom$[ebp]
  000cf	a5		 movsd
  000d0	a5		 movsd
  000d1	a5		 movsd
  000d2	8d 75 c0	 lea	 esi, DWORD PTR _vCenter$[ebp]
  000d5	8d 7d cc	 lea	 edi, DWORD PTR _vTop$[ebp]
  000d8	a5		 movsd
  000d9	a5		 movsd

; 797  : 	vTop.y += m_fUpHeight;

  000da	8d 85 30 ff ff
	ff		 lea	 eax, DWORD PTR _value$535695[ebp]
  000e0	50		 push	 eax
  000e1	8d 8b 58 0a 00
	00		 lea	 ecx, DWORD PTR [ebx+2648]
  000e7	a5		 movsd
  000e8	e8 00 00 00 00	 call	 ?DecryptValueToPool@?$CEncrypt@M@@QAEXPAM@Z ; CEncrypt<float>::DecryptValueToPool
  000ed	f3 0f 10 4d d0	 movss	 xmm1, DWORD PTR _vTop$[ebp+4]
  000f2	f3 0f 10 85 30
	ff ff ff	 movss	 xmm0, DWORD PTR _value$535695[ebp]
  000fa	0f 5a c0	 cvtps2pd xmm0, xmm0
  000fd	0f 5a c9	 cvtps2pd xmm1, xmm1

; 798  : 	vBottom.y -= m_fUnderHeight;

  00100	8d 85 30 ff ff
	ff		 lea	 eax, DWORD PTR _value$535699[ebp]
  00106	f2 0f 58 c1	 addsd	 xmm0, xmm1
  0010a	66 0f 5a c0	 cvtpd2ps xmm0, xmm0
  0010e	50		 push	 eax
  0010f	8d 8b 88 0a 00
	00		 lea	 ecx, DWORD PTR [ebx+2696]
  00115	f3 0f 11 45 d0	 movss	 DWORD PTR _vTop$[ebp+4], xmm0
  0011a	e8 00 00 00 00	 call	 ?DecryptValueToPool@?$CEncrypt@M@@QAEXPAM@Z ; CEncrypt<float>::DecryptValueToPool
  0011f	f3 0f 10 45 dc	 movss	 xmm0, DWORD PTR _vBottom$[ebp+4]
  00124	f3 0f 10 8d 30
	ff ff ff	 movss	 xmm1, DWORD PTR _value$535699[ebp]
  0012c	0f 5a c0	 cvtps2pd xmm0, xmm0
  0012f	0f 5a c9	 cvtps2pd xmm1, xmm1
  00132	f2 0f 5c c1	 subsd	 xmm0, xmm1

; 799  : 	ioCylinder kCylinder( vTop, vBottom, fZoneRange );

  00136	51		 push	 ecx
  00137	66 0f 5a c0	 cvtpd2ps xmm0, xmm0
  0013b	f3 0f 11 45 dc	 movss	 DWORD PTR _vBottom$[ebp+4], xmm0
  00140	f3 0f 10 85 34
	ff ff ff	 movss	 xmm0, DWORD PTR _fZoneRange$[ebp]
  00148	f3 0f 11 04 24	 movss	 DWORD PTR [esp], xmm0
  0014d	8d 45 d8	 lea	 eax, DWORD PTR _vBottom$[ebp]
  00150	50		 push	 eax
  00151	8d 45 cc	 lea	 eax, DWORD PTR _vTop$[ebp]
  00154	50		 push	 eax
  00155	8d 8d 7c ff ff
	ff		 lea	 ecx, DWORD PTR _kCylinder$[ebp]
  0015b	ff 15 00 00 00
	00		 call	 DWORD PTR __imp_??0ioCylinder@@QAE@ABUD3DXVECTOR3@@0M@Z
  00161	83 65 fc 00	 and	 DWORD PTR __$EHRec$[ebp+8], 0

; 800  : 	vCenter = kCylinder.GetCenter();

  00165	8d 8d 7c ff ff
	ff		 lea	 ecx, DWORD PTR _kCylinder$[ebp]
  0016b	ff 15 00 00 00
	00		 call	 DWORD PTR __imp_?GetCenter@ioCylinder@@QBEABUD3DXVECTOR3@@XZ
  00171	8b f0		 mov	 esi, eax
  00173	8d 7d c0	 lea	 edi, DWORD PTR _vCenter$[ebp]
  00176	a5		 movsd
  00177	a5		 movsd
  00178	a5		 movsd

; 801  : 
; 802  : 
; 803  : 	//   2  .    2
; 804  : 	D3DXVECTOR3 vMin, vMax;
; 805  : 	vMax = vTop;

  00179	8d 75 cc	 lea	 esi, DWORD PTR _vTop$[ebp]
  0017c	8d 7d a8	 lea	 edi, DWORD PTR _vMax$[ebp]
  0017f	a5		 movsd
  00180	a5		 movsd
  00181	a5		 movsd

; 806  : 	vMin = vBottom;

  00182	8d 75 d8	 lea	 esi, DWORD PTR _vBottom$[ebp]

; 807  : 
; 808  : 	vMax.x += fZoneRange;

  00185	f3 0f 10 45 cc	 movss	 xmm0, DWORD PTR _vTop$[ebp]
  0018a	0f 5a c8	 cvtps2pd xmm1, xmm0
  0018d	f3 0f 10 85 34
	ff ff ff	 movss	 xmm0, DWORD PTR _fZoneRange$[ebp]
  00195	0f 5a d0	 cvtps2pd xmm2, xmm0
  00198	f2 0f 58 ca	 addsd	 xmm1, xmm2
  0019c	66 0f 5a c9	 cvtpd2ps xmm1, xmm1
  001a0	f3 0f 11 4d a8	 movss	 DWORD PTR _vMax$[ebp], xmm1

; 809  : 	vMax.z -= fZoneRange;

  001a5	f3 0f 10 4d b0	 movss	 xmm1, DWORD PTR _vMax$[ebp+8]
  001aa	0f 5a c9	 cvtps2pd xmm1, xmm1
  001ad	0f 5a d0	 cvtps2pd xmm2, xmm0
  001b0	f2 0f 5c ca	 subsd	 xmm1, xmm2
  001b4	66 0f 5a c9	 cvtpd2ps xmm1, xmm1
  001b8	8d 7d b4	 lea	 edi, DWORD PTR _vMin$[ebp]
  001bb	a5		 movsd
  001bc	f3 0f 11 4d b0	 movss	 DWORD PTR _vMax$[ebp+8], xmm1

; 810  : 
; 811  : 	vMin.x -= fZoneRange;

  001c1	f3 0f 10 4d d8	 movss	 xmm1, DWORD PTR _vBottom$[ebp]
  001c6	a5		 movsd
  001c7	0f 5a c9	 cvtps2pd xmm1, xmm1
  001ca	0f 57 d2	 xorps	 xmm2, xmm2
  001cd	0f 5a d0	 cvtps2pd xmm2, xmm0
  001d0	f2 0f 5c ca	 subsd	 xmm1, xmm2
  001d4	66 0f 5a c9	 cvtpd2ps xmm1, xmm1
  001d8	a5		 movsd
  001d9	f3 0f 11 4d b4	 movss	 DWORD PTR _vMin$[ebp], xmm1

; 812  : 	vMin.z += fZoneRange;

  001de	f3 0f 10 4d bc	 movss	 xmm1, DWORD PTR _vMin$[ebp+8]
  001e3	0f 5a c0	 cvtps2pd xmm0, xmm0
  001e6	0f 5a c9	 cvtps2pd xmm1, xmm1
  001e9	f2 0f 58 c8	 addsd	 xmm1, xmm0
  001ed	0f 57 c0	 xorps	 xmm0, xmm0
  001f0	66 0f 5a c1	 cvtpd2ps xmm0, xmm1

; 813  : 
; 814  : 	//  
; 815  : 	ioOrientBox kBuffBox;

  001f4	8d 8d 38 ff ff
	ff		 lea	 ecx, DWORD PTR _kBuffBox$[ebp]
  001fa	f3 0f 11 45 bc	 movss	 DWORD PTR _vMin$[ebp+8], xmm0
  001ff	ff 15 00 00 00
	00		 call	 DWORD PTR __imp_??0ioOrientBox@@QAE@XZ

; 816  : 	kBuffBox.SetBoxByMinMax( vMin, vMax );

  00205	8d 45 a8	 lea	 eax, DWORD PTR _vMax$[ebp]
  00208	50		 push	 eax
  00209	8d 45 b4	 lea	 eax, DWORD PTR _vMin$[ebp]
  0020c	50		 push	 eax
  0020d	8d 8d 38 ff ff
	ff		 lea	 ecx, DWORD PTR _kBuffBox$[ebp]
  00213	c6 45 fc 01	 mov	 BYTE PTR __$EHRec$[ebp+8], 1
  00217	ff 15 00 00 00
	00		 call	 DWORD PTR __imp_?SetBoxByMinMax@ioOrientBox@@QAEXABUD3DXVECTOR3@@0@Z

; 817  : 
; 818  : #ifndef SHIPPING
; 819  : 	kBuffBox.GetVertices( ioBaseChar::m_vRangeBoxArrayForTest );
; 820  : #endif
; 821  : 
; 822  : 
; 823  : 	D3DXVECTOR3 vCollisionPoint;
; 824  : 	if( !pEntity->CheckCylinderPoint( kCylinder, vCenter, vCollisionPoint ) )

  0021d	8b 8d 2c ff ff
	ff		 mov	 ecx, DWORD PTR _pEntity$GSCopy$[ebp]
  00223	8b 01		 mov	 eax, DWORD PTR [ecx]
  00225	8d 55 9c	 lea	 edx, DWORD PTR _vCollisionPoint$[ebp]
  00228	52		 push	 edx
  00229	8d 55 c0	 lea	 edx, DWORD PTR _vCenter$[ebp]
  0022c	52		 push	 edx
  0022d	8d 95 7c ff ff
	ff		 lea	 edx, DWORD PTR _kCylinder$[ebp]
  00233	52		 push	 edx
  00234	ff 90 a0 00 00
	00		 call	 DWORD PTR [eax+160]
  0023a	84 c0		 test	 al, al
  0023c	75 25		 jne	 SHORT $LN5@CheckColli@2
$LN57@CheckColli@2:

; 825  : 		return false;

  0023e	8d 8d 38 ff ff
	ff		 lea	 ecx, DWORD PTR _kBuffBox$[ebp]
  00244	c6 45 fc 00	 mov	 BYTE PTR __$EHRec$[ebp+8], 0
  00248	ff 15 00 00 00
	00		 call	 DWORD PTR __imp_??1ioOrientBox@@QAE@XZ
  0024e	83 4d fc ff	 or	 DWORD PTR __$EHRec$[ebp+8], -1
  00252	8d 8d 7c ff ff
	ff		 lea	 ecx, DWORD PTR _kCylinder$[ebp]
  00258	ff 15 00 00 00
	00		 call	 DWORD PTR __imp_??1ioCylinder@@QAE@XZ
  0025e	e9 f9 fd ff ff	 jmp	 $LN56@CheckColli@2
$LN5@CheckColli@2:

; 826  : 
; 827  : 	//   
; 828  : 	D3DXVECTOR3 vDiff1 = vCollisionPoint - vCenter;

  00263	f3 0f 10 45 9c	 movss	 xmm0, DWORD PTR _vCollisionPoint$[ebp]
  00268	f3 0f 10 4d c0	 movss	 xmm1, DWORD PTR _vCenter$[ebp]
  0026d	f3 0f 10 55 c8	 movss	 xmm2, DWORD PTR _vCenter$[ebp+8]
  00272	0f 5a c9	 cvtps2pd xmm1, xmm1
  00275	0f 5a c0	 cvtps2pd xmm0, xmm0
  00278	f2 0f 5c c1	 subsd	 xmm0, xmm1
  0027c	f3 0f 10 4d a4	 movss	 xmm1, DWORD PTR _vCollisionPoint$[ebp+8]
  00281	66 0f 5a c0	 cvtpd2ps xmm0, xmm0
  00285	f3 0f 11 45 e4	 movss	 DWORD PTR _vDiff1$[ebp], xmm0
  0028a	0f 5a c9	 cvtps2pd xmm1, xmm1

; 829  : 	vDiff1.y = 0.0f;
; 830  : 
; 831  : 	float fTargetDist = D3DXVec3LengthSq( &vDiff1 );

  0028d	f3 0f 5a c0	 cvtss2sd xmm0, xmm0
  00291	0f 5a d2	 cvtps2pd xmm2, xmm2
  00294	f2 0f 5c ca	 subsd	 xmm1, xmm2
  00298	0f 57 d2	 xorps	 xmm2, xmm2
  0029b	f2 0f 59 c0	 mulsd	 xmm0, xmm0
  0029f	f2 0f 11 85 28
	ff ff ff	 movsd	 QWORD PTR tv70[ebp], xmm0
  002a7	0f 57 c0	 xorps	 xmm0, xmm0
  002aa	66 0f 5a c9	 cvtpd2ps xmm1, xmm1
  002ae	f3 0f 11 4d ec	 movss	 DWORD PTR _vDiff1$[ebp+8], xmm1
  002b3	f3 0f 11 55 e8	 movss	 DWORD PTR _vDiff1$[ebp+4], xmm2
  002b8	f2 0f 10 95 28
	ff ff ff	 movsd	 xmm2, QWORD PTR tv70[ebp]
  002c0	f3 0f 5a c9	 cvtss2sd xmm1, xmm1
  002c4	f2 0f 59 c0	 mulsd	 xmm0, xmm0
  002c8	f2 0f 58 d0	 addsd	 xmm2, xmm0

; 832  : 	if( fTargetDist > fZoneRange * fZoneRange )

  002cc	f3 0f 10 85 34
	ff ff ff	 movss	 xmm0, DWORD PTR _fZoneRange$[ebp]
  002d4	f2 0f 59 c9	 mulsd	 xmm1, xmm1
  002d8	f2 0f 58 d1	 addsd	 xmm2, xmm1
  002dc	0f 57 c9	 xorps	 xmm1, xmm1
  002df	66 0f 5a ca	 cvtpd2ps xmm1, xmm2
  002e3	f3 0f 11 8d 2c
	ff ff ff	 movss	 DWORD PTR _fTargetDist$[ebp], xmm1
  002eb	0f 5a c0	 cvtps2pd xmm0, xmm0
  002ee	0f 5a c9	 cvtps2pd xmm1, xmm1
  002f1	f2 0f 59 c0	 mulsd	 xmm0, xmm0
  002f5	66 0f 2f c8	 comisd	 xmm1, xmm0

; 833  : 		return false;

  002f9	0f 87 3f ff ff
	ff		 ja	 $LN57@CheckColli@2

; 834  : 
; 835  : 	if( fTargetDist < m_fZoneMinRange * m_fZoneMinRange )

  002ff	8d 85 34 ff ff
	ff		 lea	 eax, DWORD PTR _value$535726[ebp]
  00305	50		 push	 eax
  00306	8d 8b 98 09 00
	00		 lea	 ecx, DWORD PTR [ebx+2456]
  0030c	e8 00 00 00 00	 call	 ?DecryptValueToPool@?$CEncrypt@M@@QAEXPAM@Z ; CEncrypt<float>::DecryptValueToPool
  00311	8d 85 30 ff ff
	ff		 lea	 eax, DWORD PTR _value$535730[ebp]
  00317	50		 push	 eax
  00318	8d 8b 98 09 00
	00		 lea	 ecx, DWORD PTR [ebx+2456]
  0031e	e8 00 00 00 00	 call	 ?DecryptValueToPool@?$CEncrypt@M@@QAEXPAM@Z ; CEncrypt<float>::DecryptValueToPool
  00323	f3 0f 10 8d 30
	ff ff ff	 movss	 xmm1, DWORD PTR _value$535730[ebp]
  0032b	f3 0f 10 95 34
	ff ff ff	 movss	 xmm2, DWORD PTR _value$535726[ebp]
  00333	f3 0f 10 85 2c
	ff ff ff	 movss	 xmm0, DWORD PTR _fTargetDist$[ebp]
  0033b	0f 5a c9	 cvtps2pd xmm1, xmm1
  0033e	0f 5a d2	 cvtps2pd xmm2, xmm2
  00341	f2 0f 59 ca	 mulsd	 xmm1, xmm2
  00345	66 0f 5a c9	 cvtpd2ps xmm1, xmm1
  00349	0f 5a c0	 cvtps2pd xmm0, xmm0
  0034c	f3 0f 5a c9	 cvtss2sd xmm1, xmm1
  00350	66 0f 2f c8	 comisd	 xmm1, xmm0

; 836  : 		return false;

  00354	0f 87 e4 fe ff
	ff		 ja	 $LN57@CheckColli@2

; 837  : 
; 838  : 	//   
; 839  : 	float fCurCheckAngle = m_fZoneAngle;

  0035a	8d 85 30 ff ff
	ff		 lea	 eax, DWORD PTR _value$535734[ebp]
  00360	50		 push	 eax
  00361	8d 8b 28 0a 00
	00		 lea	 ecx, DWORD PTR [ebx+2600]
  00367	e8 00 00 00 00	 call	 ?DecryptValueToPool@?$CEncrypt@M@@QAEXPAM@Z ; CEncrypt<float>::DecryptValueToPool

; 840  : 	float fHalfCosine = cosf( DEGtoRAD( fCurCheckAngle ) * FLOAT05 );

  0036c	b8 05 00 00 00	 mov	 eax, 5
  00371	8b c8		 mov	 ecx, eax
  00373	b8 0a 00 00 00	 mov	 eax, 10			; 0000000aH
  00378	89 8d 2c ff ff
	ff		 mov	 DWORD PTR tv560[ebp], ecx
  0037e	db 85 2c ff ff
	ff		 fild	 DWORD PTR tv560[ebp]
  00384	85 c9		 test	 ecx, ecx
  00386	79 06		 jns	 SHORT $LN54@CheckColli@2
  00388	d8 05 00 00 00
	00		 fadd	 DWORD PTR __real@4f800000
$LN54@CheckColli@2:
  0038e	89 85 2c ff ff
	ff		 mov	 DWORD PTR tv556[ebp], eax
  00394	db 85 2c ff ff
	ff		 fild	 DWORD PTR tv556[ebp]
  0039a	85 c0		 test	 eax, eax
  0039c	79 06		 jns	 SHORT $LN55@CheckColli@2
  0039e	d8 05 00 00 00
	00		 fadd	 DWORD PTR __real@4f800000
$LN55@CheckColli@2:
  003a4	de f9		 fdivp	 ST(1), ST(0)
  003a6	d9 9d 2c ff ff
	ff		 fstp	 DWORD PTR tv552[ebp]
  003ac	d9 85 2c ff ff
	ff		 fld	 DWORD PTR tv552[ebp]
  003b2	d9 85 30 ff ff
	ff		 fld	 DWORD PTR _value$535734[ebp]
  003b8	dc 0d 00 00 00
	00		 fmul	 QWORD PTR __real@3f91df46a2526c7a
  003be	d9 9d 2c ff ff
	ff		 fstp	 DWORD PTR tv548[ebp]
  003c4	d8 8d 2c ff ff
	ff		 fmul	 DWORD PTR tv548[ebp]
  003ca	d9 9d 2c ff ff
	ff		 fstp	 DWORD PTR tv546[ebp]
  003d0	d9 85 2c ff ff
	ff		 fld	 DWORD PTR tv546[ebp]
  003d6	e8 00 00 00 00	 call	 __CIcos
  003db	d9 9d 2c ff ff
	ff		 fstp	 DWORD PTR tv383[ebp]
  003e1	d9 85 2c ff ff
	ff		 fld	 DWORD PTR tv383[ebp]

; 841  : 	D3DXVec3Normalize( &vDiff1, &vDiff1 );

  003e7	8d 45 e4	 lea	 eax, DWORD PTR _vDiff1$[ebp]
  003ea	50		 push	 eax
  003eb	d9 9d 30 ff ff
	ff		 fstp	 DWORD PTR _fHalfCosine$[ebp]
  003f1	50		 push	 eax
  003f2	e8 00 00 00 00	 call	 _D3DXVec3Normalize@8

; 842  : 
; 843  : 	if( D3DXVec3Dot( &m_vMoveDir, &vDiff1 ) < fHalfCosine )

  003f7	d9 83 c8 08 00
	00		 fld	 DWORD PTR [ebx+2248]
  003fd	d8 4d e8	 fmul	 DWORD PTR _vDiff1$[ebp+4]
  00400	d9 83 c4 08 00
	00		 fld	 DWORD PTR [ebx+2244]
  00406	d8 4d e4	 fmul	 DWORD PTR _vDiff1$[ebp]
  00409	de c1		 faddp	 ST(1), ST(0)
  0040b	d9 83 cc 08 00
	00		 fld	 DWORD PTR [ebx+2252]
  00411	d8 4d ec	 fmul	 DWORD PTR _vDiff1$[ebp+8]
  00414	de c1		 faddp	 ST(1), ST(0)
  00416	d9 9d 2c ff ff
	ff		 fstp	 DWORD PTR tv165[ebp]
  0041c	d9 85 2c ff ff
	ff		 fld	 DWORD PTR tv165[ebp]
  00422	d9 85 30 ff ff
	ff		 fld	 DWORD PTR _fHalfCosine$[ebp]
  00428	df f1		 fcomip	 ST(1)
  0042a	dd d8		 fstp	 ST(0)
  0042c	76 29		 jbe	 SHORT $LN2@CheckColli@2
$LN1@CheckColli@2:
  0042e	32 db		 xor	 bl, bl
$LN51@CheckColli@2:

; 844  : 		return false;

  00430	8d 8d 38 ff ff
	ff		 lea	 ecx, DWORD PTR _kBuffBox$[ebp]
  00436	c6 45 fc 00	 mov	 BYTE PTR __$EHRec$[ebp+8], 0
  0043a	ff 15 00 00 00
	00		 call	 DWORD PTR __imp_??1ioOrientBox@@QAE@XZ
  00440	83 4d fc ff	 or	 DWORD PTR __$EHRec$[ebp+8], -1
  00444	8d 8d 7c ff ff
	ff		 lea	 ecx, DWORD PTR _kCylinder$[ebp]
  0044a	ff 15 00 00 00
	00		 call	 DWORD PTR __imp_??1ioCylinder@@QAE@XZ
  00450	8a c3		 mov	 al, bl
  00452	e9 07 fc ff ff	 jmp	 $LN7@CheckColli@2
$LN2@CheckColli@2:

; 845  : 
; 846  : 	//  
; 847  : 	if( vCollisionPoint.y >= vBottom.y && vCollisionPoint.y <= vTop.y )

  00457	f3 0f 10 45 a0	 movss	 xmm0, DWORD PTR _vCollisionPoint$[ebp+4]
  0045c	f3 0f 10 4d dc	 movss	 xmm1, DWORD PTR _vBottom$[ebp+4]
  00461	0f 5a c0	 cvtps2pd xmm0, xmm0
  00464	0f 5a c9	 cvtps2pd xmm1, xmm1
  00467	66 0f 2f c1	 comisd	 xmm0, xmm1
  0046b	72 c1		 jb	 SHORT $LN1@CheckColli@2
  0046d	f3 0f 10 45 a0	 movss	 xmm0, DWORD PTR _vCollisionPoint$[ebp+4]
  00472	f3 0f 10 4d d0	 movss	 xmm1, DWORD PTR _vTop$[ebp+4]
  00477	0f 5a c0	 cvtps2pd xmm0, xmm0
  0047a	0f 5a c9	 cvtps2pd xmm1, xmm1
  0047d	66 0f 2f c8	 comisd	 xmm1, xmm0
  00481	72 ab		 jb	 SHORT $LN1@CheckColli@2
  00483	b3 01		 mov	 bl, 1
  00485	eb a9		 jmp	 SHORT $LN51@CheckColli@2
_TEXT	ENDS
;	COMDAT text$x
text$x	SEGMENT
__unwindfunclet$?CheckCollisionCylinder@ioLobeliaWeapon@@IAE_NPAVioPlayEntity@@@Z$0:
  00000	8d 8d 7c ff ff
	ff		 lea	 ecx, DWORD PTR _kCylinder$[ebp]
  00006	ff 25 00 00 00
	00		 jmp	 DWORD PTR __imp_??1ioCylinder@@QAE@XZ
__unwindfunclet$?CheckCollisionCylinder@ioLobeliaWeapon@@IAE_NPAVioPlayEntity@@@Z$1:
  0000c	8d 8d 38 ff ff
	ff		 lea	 ecx, DWORD PTR _kBuffBox$[ebp]
  00012	ff 25 00 00 00
	00		 jmp	 DWORD PTR __imp_??1ioOrientBox@@QAE@XZ
__ehhandler$?CheckCollisionCylinder@ioLobeliaWeapon@@IAE_NPAVioPlayEntity@@@Z:
  00018	8b 54 24 08	 mov	 edx, DWORD PTR [esp+8]
  0001c	8d 42 0c	 lea	 eax, DWORD PTR [edx+12]
  0001f	8b 8a 24 ff ff
	ff		 mov	 ecx, DWORD PTR [edx-220]
  00025	33 c8		 xor	 ecx, eax
  00027	e8 00 00 00 00	 call	 @__security_check_cookie@4
  0002c	8b 4a fc	 mov	 ecx, DWORD PTR [edx-4]
  0002f	33 c8		 xor	 ecx, eax
  00031	e8 00 00 00 00	 call	 @__security_check_cookie@4
  00036	b8 00 00 00 00	 mov	 eax, OFFSET __ehfuncinfo$?CheckCollisionCylinder@ioLobeliaWeapon@@IAE_NPAVioPlayEntity@@@Z
  0003b	e9 00 00 00 00	 jmp	 ___CxxFrameHandler3
text$x	ENDS
?CheckCollisionCylinder@ioLobeliaWeapon@@IAE_NPAVioPlayEntity@@@Z ENDP ; ioLobeliaWeapon::CheckCollisionCylinder
PUBLIC	__real@0000000000000000
PUBLIC	_pEntity$GSCopy$
PUBLIC	?CheckCollisionBox@ioLobeliaWeapon@@IAE_NPAVioPlayEntity@@@Z ; ioLobeliaWeapon::CheckCollisionBox
EXTRN	__imp_?SetCenter@ioOrientBox@@QAEXABUD3DXVECTOR3@@@Z:PROC
;	COMDAT __real@0000000000000000
; File d:\lost saga for developer\youtube\tutorial\source\src\lsclient\encryptvalue.h
CONST	SEGMENT
__real@0000000000000000 DQ 00000000000000000r	; 0
CONST	ENDS
;	COMDAT xdata$x
xdata$x	SEGMENT
__unwindtable$?CheckCollisionBox@ioLobeliaWeapon@@IAE_NPAVioPlayEntity@@@Z DD 0ffffffffH
	DD	FLAT:__unwindfunclet$?CheckCollisionBox@ioLobeliaWeapon@@IAE_NPAVioPlayEntity@@@Z$0
__ehfuncinfo$?CheckCollisionBox@ioLobeliaWeapon@@IAE_NPAVioPlayEntity@@@Z DD 019930522H
	DD	01H
	DD	FLAT:__unwindtable$?CheckCollisionBox@ioLobeliaWeapon@@IAE_NPAVioPlayEntity@@@Z
	DD	2 DUP(00H)
	DD	2 DUP(00H)
	DD	00H
	DD	01H
; Function compile flags: /Ogsp
; File d:\lost saga for developer\youtube\tutorial\source\src\lsclient\iolobeliaweapon.cpp
xdata$x	ENDS
;	COMDAT ?CheckCollisionBox@ioLobeliaWeapon@@IAE_NPAVioPlayEntity@@@Z
_TEXT	SEGMENT
_pOwnerChar$ = -152					; size = 4
_pEntity$GSCopy$ = -148					; size = 4
tv672 = -144						; size = 4
tv680 = -140						; size = 4
_value$535889 = -140					; size = 4
tv676 = -136						; size = 4
$T535771 = -136						; size = 4
$T535770 = -136						; size = 4
tv806 = -132						; size = 4
tv802 = -132						; size = 4
tv798 = -132						; size = 4
_value$535823 = -132					; size = 4
$T535775 = -132						; size = 4
$T535774 = -132						; size = 4
tv827 = -128						; size = 4
_value$535827 = -128					; size = 4
$T535828 = -128						; size = 4
$T535816 = -128						; size = 4
_value$535791 = -128					; size = 4
$T535772 = -128						; size = 4
tv835 = -124						; size = 4
tv831 = -124						; size = 4
tv772 = -124						; size = 4
tv768 = -124						; size = 4
tv764 = -124						; size = 4
tv761 = -124						; size = 4
tv751 = -124						; size = 4
tv747 = -124						; size = 4
tv743 = -124						; size = 4
tv740 = -124						; size = 4
_value$535881 = -124					; size = 4
_value$535885 = -124					; size = 4
_value$535865 = -124					; size = 4
$T535844 = -124						; size = 4
_value$535869 = -124					; size = 4
_value$535840 = -124					; size = 4
_kBuffBox$ = -120					; size = 68
_vMin$ = -52						; size = 12
_vMax$ = -40						; size = 12
_vCenter$ = -28						; size = 12
__$EHRec$ = -12						; size = 12
_pEntity$ = 8						; size = 4
?CheckCollisionBox@ioLobeliaWeapon@@IAE_NPAVioPlayEntity@@@Z PROC ; ioLobeliaWeapon::CheckCollisionBox, COMDAT
; _this$ = ecx

; 854  : {

  00000	68 8c 00 00 00	 push	 140			; 0000008cH
  00005	b8 00 00 00 00	 mov	 eax, __ehhandler$?CheckCollisionBox@ioLobeliaWeapon@@IAE_NPAVioPlayEntity@@@Z
  0000a	e8 00 00 00 00	 call	 __EH_prolog3_GS
  0000f	8b 45 08	 mov	 eax, DWORD PTR _pEntity$[ebp]

; 855  : 	if( m_fUpHeight == 0.0f && m_fUnderHeight == 0.0f )

  00012	0f 57 c0	 xorps	 xmm0, xmm0
  00015	8b d9		 mov	 ebx, ecx
  00017	89 85 6c ff ff
	ff		 mov	 DWORD PTR _pEntity$GSCopy$[ebp], eax
  0001d	8d 85 78 ff ff
	ff		 lea	 eax, DWORD PTR $T535770[ebp]
  00023	8d 8b 58 0a 00
	00		 lea	 ecx, DWORD PTR [ebx+2648]
  00029	50		 push	 eax
  0002a	f3 0f 11 85 78
	ff ff ff	 movss	 DWORD PTR $T535770[ebp], xmm0
  00032	89 8d 70 ff ff
	ff		 mov	 DWORD PTR tv672[ebp], ecx
  00038	e8 00 00 00 00	 call	 ??8?$CEncrypt@M@@QAE_NABM@Z ; CEncrypt<float>::operator==
  0003d	84 c0		 test	 al, al
  0003f	74 2b		 je	 SHORT $LN5@CheckColli@3
  00041	0f 57 c0	 xorps	 xmm0, xmm0
  00044	8d 85 78 ff ff
	ff		 lea	 eax, DWORD PTR $T535771[ebp]
  0004a	50		 push	 eax
  0004b	8d 8b 88 0a 00
	00		 lea	 ecx, DWORD PTR [ebx+2696]
  00051	f3 0f 11 85 78
	ff ff ff	 movss	 DWORD PTR $T535771[ebp], xmm0
  00059	e8 00 00 00 00	 call	 ??8?$CEncrypt@M@@QAE_NABM@Z ; CEncrypt<float>::operator==
  0005e	84 c0		 test	 al, al
  00060	74 0a		 je	 SHORT $LN5@CheckColli@3
$LN71@CheckColli@3:

; 856  : 		return false;

  00062	32 c0		 xor	 al, al
$LN6@CheckColli@3:

; 901  : 
; 902  : 	return true;
; 903  : }

  00064	e8 00 00 00 00	 call	 __EH_epilog3_GS
  00069	c2 04 00	 ret	 4
$LN5@CheckColli@3:

; 857  : 
; 858  : 	if( m_fWidth == 0.0f )

  0006c	0f 57 c0	 xorps	 xmm0, xmm0
  0006f	8d 45 80	 lea	 eax, DWORD PTR $T535772[ebp]
  00072	8d 8b b8 0a 00
	00		 lea	 ecx, DWORD PTR [ebx+2744]
  00078	50		 push	 eax
  00079	f3 0f 11 45 80	 movss	 DWORD PTR $T535772[ebp], xmm0
  0007e	89 8d 78 ff ff
	ff		 mov	 DWORD PTR tv676[ebp], ecx
  00084	e8 00 00 00 00	 call	 ??8?$CEncrypt@M@@QAE_NABM@Z ; CEncrypt<float>::operator==
  00089	84 c0		 test	 al, al

; 859  : 		return false;

  0008b	75 d5		 jne	 SHORT $LN71@CheckColli@3

; 860  : 
; 861  : 	ioBaseChar *pOwnerChar = GetOwner();

  0008d	8b cb		 mov	 ecx, ebx
  0008f	e8 00 00 00 00	 call	 ?GetOwner@ioWeapon@@QBEPAVioBaseChar@@XZ ; ioWeapon::GetOwner
  00094	89 85 68 ff ff
	ff		 mov	 DWORD PTR _pOwnerChar$[ebp], eax

; 862  : 	if( !pOwnerChar )

  0009a	85 c0		 test	 eax, eax

; 863  : 		return false;

  0009c	74 c4		 je	 SHORT $LN71@CheckColli@3

; 864  : 
; 865  : 	D3DXVECTOR3 vCenter = GetWorldAttackBox().GetCenter();

  0009e	6a 00		 push	 0
  000a0	8b cb		 mov	 ecx, ebx
  000a2	e8 00 00 00 00	 call	 ?GetWorldAttackBox@ioWeapon@@QBEABVioOrientBox@@_N@Z ; ioWeapon::GetWorldAttackBox
  000a7	8b c8		 mov	 ecx, eax
  000a9	ff 15 00 00 00
	00		 call	 DWORD PTR __imp_?GetCenter@ioOrientBox@@QBEABUD3DXVECTOR3@@XZ
  000af	8b f0		 mov	 esi, eax
  000b1	8d 7d e4	 lea	 edi, DWORD PTR _vCenter$[ebp]
  000b4	a5		 movsd
  000b5	a5		 movsd
  000b6	a5		 movsd

; 866  : 
; 867  : 	//  center vPos       .
; 868  : 	// /2.0f  * FLOAT05 
; 869  : 	vCenter += m_vMoveDir * m_fZoneRange * FLOAT05; 

  000b7	b8 05 00 00 00	 mov	 eax, 5
  000bc	8b f0		 mov	 esi, eax
  000be	b8 0a 00 00 00	 mov	 eax, 10			; 0000000aH
  000c3	8b f8		 mov	 edi, eax
  000c5	8d 45 80	 lea	 eax, DWORD PTR _value$535791[ebp]
  000c8	8d 8b 68 09 00
	00		 lea	 ecx, DWORD PTR [ebx+2408]
  000ce	50		 push	 eax
  000cf	89 8d 74 ff ff
	ff		 mov	 DWORD PTR tv680[ebp], ecx
  000d5	e8 00 00 00 00	 call	 ?DecryptValueToPool@?$CEncrypt@M@@QAEXPAM@Z ; CEncrypt<float>::DecryptValueToPool
  000da	f3 0f 10 83 c4
	08 00 00	 movss	 xmm0, DWORD PTR [ebx+2244]
  000e2	f3 0f 10 4d 80	 movss	 xmm1, DWORD PTR _value$535791[ebp]
  000e7	f3 0f 10 55 80	 movss	 xmm2, DWORD PTR _value$535791[ebp]
  000ec	f3 0f 10 5d 80	 movss	 xmm3, DWORD PTR _value$535791[ebp]
  000f1	0f 5a c9	 cvtps2pd xmm1, xmm1
  000f4	0f 5a c0	 cvtps2pd xmm0, xmm0
  000f7	f2 0f 59 c1	 mulsd	 xmm0, xmm1
  000fb	f3 0f 10 8b c8
	08 00 00	 movss	 xmm1, DWORD PTR [ebx+2248]
  00103	0f 5a d2	 cvtps2pd xmm2, xmm2
  00106	0f 5a c9	 cvtps2pd xmm1, xmm1
  00109	f2 0f 59 ca	 mulsd	 xmm1, xmm2
  0010d	f3 0f 10 93 cc
	08 00 00	 movss	 xmm2, DWORD PTR [ebx+2252]
  00115	0f 5a d2	 cvtps2pd xmm2, xmm2
  00118	0f 5a db	 cvtps2pd xmm3, xmm3
  0011b	f2 0f 59 d3	 mulsd	 xmm2, xmm3
  0011f	89 75 84	 mov	 DWORD PTR tv835[ebp], esi
  00122	db 45 84	 fild	 DWORD PTR tv835[ebp]
  00125	66 0f 5a c0	 cvtpd2ps xmm0, xmm0
  00129	66 0f 5a c9	 cvtpd2ps xmm1, xmm1
  0012d	66 0f 5a d2	 cvtpd2ps xmm2, xmm2
  00131	85 f6		 test	 esi, esi
  00133	79 06		 jns	 SHORT $LN63@CheckColli@3
  00135	d8 05 00 00 00
	00		 fadd	 DWORD PTR __real@4f800000
$LN63@CheckColli@3:
  0013b	89 7d 84	 mov	 DWORD PTR tv831[ebp], edi
  0013e	db 45 84	 fild	 DWORD PTR tv831[ebp]
  00141	85 ff		 test	 edi, edi
  00143	79 06		 jns	 SHORT $LN64@CheckColli@3
  00145	d8 05 00 00 00
	00		 fadd	 DWORD PTR __real@4f800000
$LN64@CheckColli@3:
  0014b	de f9		 fdivp	 ST(1), ST(0)
  0014d	f3 0f 5a c0	 cvtss2sd xmm0, xmm0
  00151	f3 0f 5a c9	 cvtss2sd xmm1, xmm1
  00155	f3 0f 5a d2	 cvtss2sd xmm2, xmm2

; 870  : 	// /2.0f  * FLOAT05 
; 871  : 	D3DXVECTOR3 vOffset( 0.0f, ( ( m_fUpHeight + m_fUnderHeight ) * FLOAT05 ) - m_fUpHeight, 0.0f );

  00159	8d 85 7c ff ff
	ff		 lea	 eax, DWORD PTR _value$535823[ebp]
  0015f	81 c3 88 0a 00
	00		 add	 ebx, 2696		; 00000a88H
  00165	50		 push	 eax
  00166	8b cb		 mov	 ecx, ebx
  00168	d9 5d 80	 fstp	 DWORD PTR tv827[ebp]
  0016b	d9 45 80	 fld	 DWORD PTR tv827[ebp]
  0016e	d9 5d 80	 fstp	 DWORD PTR $T535816[ebp]
  00171	f3 0f 10 5d 80	 movss	 xmm3, DWORD PTR $T535816[ebp]
  00176	0f 5a db	 cvtps2pd xmm3, xmm3
  00179	f2 0f 59 c3	 mulsd	 xmm0, xmm3
  0017d	f3 0f 10 5d 80	 movss	 xmm3, DWORD PTR $T535816[ebp]
  00182	66 0f 5a c0	 cvtpd2ps xmm0, xmm0
  00186	0f 5a db	 cvtps2pd xmm3, xmm3
  00189	f2 0f 59 cb	 mulsd	 xmm1, xmm3
  0018d	f3 0f 10 5d 80	 movss	 xmm3, DWORD PTR $T535816[ebp]
  00192	f3 0f 5a c0	 cvtss2sd xmm0, xmm0
  00196	0f 5a db	 cvtps2pd xmm3, xmm3
  00199	f2 0f 59 d3	 mulsd	 xmm2, xmm3
  0019d	f3 0f 10 5d e4	 movss	 xmm3, DWORD PTR _vCenter$[ebp]
  001a2	0f 5a db	 cvtps2pd xmm3, xmm3
  001a5	f2 0f 58 c3	 addsd	 xmm0, xmm3
  001a9	66 0f 5a c0	 cvtpd2ps xmm0, xmm0
  001ad	f3 0f 11 45 e4	 movss	 DWORD PTR _vCenter$[ebp], xmm0
  001b2	f3 0f 10 45 e8	 movss	 xmm0, DWORD PTR _vCenter$[ebp+4]
  001b7	0f 5a c0	 cvtps2pd xmm0, xmm0
  001ba	66 0f 5a c9	 cvtpd2ps xmm1, xmm1
  001be	f3 0f 5a c9	 cvtss2sd xmm1, xmm1
  001c2	f2 0f 58 c1	 addsd	 xmm0, xmm1
  001c6	66 0f 5a c0	 cvtpd2ps xmm0, xmm0
  001ca	f3 0f 11 45 e8	 movss	 DWORD PTR _vCenter$[ebp+4], xmm0
  001cf	f3 0f 10 45 ec	 movss	 xmm0, DWORD PTR _vCenter$[ebp+8]
  001d4	66 0f 5a d2	 cvtpd2ps xmm2, xmm2
  001d8	0f 5a c0	 cvtps2pd xmm0, xmm0
  001db	0f 57 c9	 xorps	 xmm1, xmm1
  001de	f3 0f 5a ca	 cvtss2sd xmm1, xmm2
  001e2	f2 0f 58 c1	 addsd	 xmm0, xmm1
  001e6	66 0f 5a c0	 cvtpd2ps xmm0, xmm0
  001ea	f3 0f 11 45 ec	 movss	 DWORD PTR _vCenter$[ebp+8], xmm0
  001ef	e8 00 00 00 00	 call	 ?DecryptValueToPool@?$CEncrypt@M@@QAEXPAM@Z ; CEncrypt<float>::DecryptValueToPool
  001f4	8b 8d 70 ff ff
	ff		 mov	 ecx, DWORD PTR tv672[ebp]
  001fa	8d 45 80	 lea	 eax, DWORD PTR _value$535827[ebp]
  001fd	50		 push	 eax
  001fe	e8 00 00 00 00	 call	 ?DecryptValueToPool@?$CEncrypt@M@@QAEXPAM@Z ; CEncrypt<float>::DecryptValueToPool
  00203	d9 45 80	 fld	 DWORD PTR _value$535827[ebp]
  00206	d8 85 7c ff ff
	ff		 fadd	 DWORD PTR _value$535823[ebp]
  0020c	d9 5d 80	 fstp	 DWORD PTR $T535828[ebp]
  0020f	b8 05 00 00 00	 mov	 eax, 5
  00214	8b f0		 mov	 esi, eax
  00216	b8 0a 00 00 00	 mov	 eax, 10			; 0000000aH
  0021b	8b 8d 70 ff ff
	ff		 mov	 ecx, DWORD PTR tv672[ebp]
  00221	8b f8		 mov	 edi, eax
  00223	8d 45 84	 lea	 eax, DWORD PTR _value$535840[ebp]
  00226	50		 push	 eax
  00227	e8 00 00 00 00	 call	 ?DecryptValueToPool@?$CEncrypt@M@@QAEXPAM@Z ; CEncrypt<float>::DecryptValueToPool
  0022c	89 b5 7c ff ff
	ff		 mov	 DWORD PTR tv806[ebp], esi
  00232	db 85 7c ff ff
	ff		 fild	 DWORD PTR tv806[ebp]
  00238	85 f6		 test	 esi, esi
  0023a	79 06		 jns	 SHORT $LN65@CheckColli@3
  0023c	d8 05 00 00 00
	00		 fadd	 DWORD PTR __real@4f800000
$LN65@CheckColli@3:
  00242	89 bd 7c ff ff
	ff		 mov	 DWORD PTR tv802[ebp], edi
  00248	db 85 7c ff ff
	ff		 fild	 DWORD PTR tv802[ebp]
  0024e	85 ff		 test	 edi, edi
  00250	79 06		 jns	 SHORT $LN66@CheckColli@3
  00252	d8 05 00 00 00
	00		 fadd	 DWORD PTR __real@4f800000
$LN66@CheckColli@3:
  00258	de f9		 fdivp	 ST(1), ST(0)

; 872  : 	vCenter -= vOffset;

  0025a	f3 0f 10 45 e4	 movss	 xmm0, DWORD PTR _vCenter$[ebp]
  0025f	0f 5a c8	 cvtps2pd xmm1, xmm0
  00262	f2 0f 5c 0d 00
	00 00 00	 subsd	 xmm1, QWORD PTR __real@0000000000000000
  0026a	66 0f 5a c9	 cvtpd2ps xmm1, xmm1
  0026e	f3 0f 11 4d e4	 movss	 DWORD PTR _vCenter$[ebp], xmm1
  00273	f3 0f 10 4d e8	 movss	 xmm1, DWORD PTR _vCenter$[ebp+4]
  00278	0f 5a c9	 cvtps2pd xmm1, xmm1
  0027b	0f 57 c0	 xorps	 xmm0, xmm0

; 873  : 
; 874  : 	//   2  .    2
; 875  : 	D3DXVECTOR3 vMin, vMax;
; 876  : 	vMin = vMax = vCenter;

  0027e	8d 75 e4	 lea	 esi, DWORD PTR _vCenter$[ebp]
  00281	8d 7d d8	 lea	 edi, DWORD PTR _vMax$[ebp]
  00284	d9 9d 7c ff ff
	ff		 fstp	 DWORD PTR tv798[ebp]
  0028a	d9 85 7c ff ff
	ff		 fld	 DWORD PTR tv798[ebp]
  00290	d8 4d 80	 fmul	 DWORD PTR $T535828[ebp]
  00293	d8 65 84	 fsub	 DWORD PTR _value$535840[ebp]
  00296	d9 5d 84	 fstp	 DWORD PTR $T535844[ebp]
  00299	f3 0f 10 55 84	 movss	 xmm2, DWORD PTR $T535844[ebp]
  0029e	0f 5a d2	 cvtps2pd xmm2, xmm2
  002a1	f2 0f 5c ca	 subsd	 xmm1, xmm2
  002a5	66 0f 5a c9	 cvtpd2ps xmm1, xmm1
  002a9	f3 0f 11 4d e8	 movss	 DWORD PTR _vCenter$[ebp+4], xmm1
  002ae	f3 0f 10 4d ec	 movss	 xmm1, DWORD PTR _vCenter$[ebp+8]
  002b3	0f 5a c9	 cvtps2pd xmm1, xmm1
  002b6	f2 0f 5c 0d 00
	00 00 00	 subsd	 xmm1, QWORD PTR __real@0000000000000000
  002be	66 0f 5a c1	 cvtpd2ps xmm0, xmm1
  002c2	f3 0f 11 45 ec	 movss	 DWORD PTR _vCenter$[ebp+8], xmm0
  002c7	a5		 movsd
  002c8	a5		 movsd
  002c9	a5		 movsd
  002ca	8d 75 e4	 lea	 esi, DWORD PTR _vCenter$[ebp]
  002cd	8d 7d cc	 lea	 edi, DWORD PTR _vMin$[ebp]
  002d0	a5		 movsd
  002d1	a5		 movsd
  002d2	a5		 movsd

; 877  : 	// /2.0f  * FLOAT05 
; 878  : 	vMin.x -= ( m_fWidth * FLOAT05 );

  002d3	b8 05 00 00 00	 mov	 eax, 5
  002d8	8b c8		 mov	 ecx, eax
  002da	b8 0a 00 00 00	 mov	 eax, 10			; 0000000aH
  002df	89 4d 84	 mov	 DWORD PTR tv772[ebp], ecx
  002e2	db 45 84	 fild	 DWORD PTR tv772[ebp]
  002e5	85 c9		 test	 ecx, ecx
  002e7	79 06		 jns	 SHORT $LN67@CheckColli@3
  002e9	d8 05 00 00 00
	00		 fadd	 DWORD PTR __real@4f800000
$LN67@CheckColli@3:
  002ef	89 45 84	 mov	 DWORD PTR tv768[ebp], eax
  002f2	db 45 84	 fild	 DWORD PTR tv768[ebp]
  002f5	85 c0		 test	 eax, eax
  002f7	79 06		 jns	 SHORT $LN68@CheckColli@3
  002f9	d8 05 00 00 00
	00		 fadd	 DWORD PTR __real@4f800000
$LN68@CheckColli@3:
  002ff	de f9		 fdivp	 ST(1), ST(0)
  00301	8b 8d 78 ff ff
	ff		 mov	 ecx, DWORD PTR tv676[ebp]
  00307	8d 45 84	 lea	 eax, DWORD PTR _value$535865[ebp]
  0030a	50		 push	 eax
  0030b	d9 5d 84	 fstp	 DWORD PTR tv764[ebp]
  0030e	d9 45 84	 fld	 DWORD PTR tv764[ebp]
  00311	d9 9d 7c ff ff
	ff		 fstp	 DWORD PTR $T535774[ebp]
  00317	e8 00 00 00 00	 call	 ?DecryptValueToPool@?$CEncrypt@M@@QAEXPAM@Z ; CEncrypt<float>::DecryptValueToPool
  0031c	d9 45 cc	 fld	 DWORD PTR _vMin$[ebp]
  0031f	d9 45 84	 fld	 DWORD PTR _value$535865[ebp]

; 879  : 	vMin.y -= m_fUnderHeight;

  00322	8d 45 84	 lea	 eax, DWORD PTR _value$535869[ebp]
  00325	d8 8d 7c ff ff
	ff		 fmul	 DWORD PTR $T535774[ebp]
  0032b	50		 push	 eax
  0032c	8b cb		 mov	 ecx, ebx
  0032e	d9 5d 84	 fstp	 DWORD PTR tv761[ebp]
  00331	d8 65 84	 fsub	 DWORD PTR tv761[ebp]
  00334	d9 5d cc	 fstp	 DWORD PTR _vMin$[ebp]
  00337	e8 00 00 00 00	 call	 ?DecryptValueToPool@?$CEncrypt@M@@QAEXPAM@Z ; CEncrypt<float>::DecryptValueToPool
  0033c	f3 0f 10 45 d0	 movss	 xmm0, DWORD PTR _vMin$[ebp+4]
  00341	f3 0f 10 4d 84	 movss	 xmm1, DWORD PTR _value$535869[ebp]
  00346	0f 5a c0	 cvtps2pd xmm0, xmm0
  00349	0f 5a c9	 cvtps2pd xmm1, xmm1
  0034c	f2 0f 5c c1	 subsd	 xmm0, xmm1
  00350	66 0f 5a c0	 cvtpd2ps xmm0, xmm0
  00354	f3 0f 11 45 d0	 movss	 DWORD PTR _vMin$[ebp+4], xmm0

; 880  : 	// /2.0f  * FLOAT05 
; 881  : 	vMax.x += ( m_fWidth * FLOAT05 );

  00359	b8 05 00 00 00	 mov	 eax, 5
  0035e	8b c8		 mov	 ecx, eax
  00360	b8 0a 00 00 00	 mov	 eax, 10			; 0000000aH
  00365	89 4d 84	 mov	 DWORD PTR tv751[ebp], ecx
  00368	db 45 84	 fild	 DWORD PTR tv751[ebp]
  0036b	85 c9		 test	 ecx, ecx
  0036d	79 06		 jns	 SHORT $LN69@CheckColli@3
  0036f	d8 05 00 00 00
	00		 fadd	 DWORD PTR __real@4f800000
$LN69@CheckColli@3:
  00375	89 45 84	 mov	 DWORD PTR tv747[ebp], eax
  00378	db 45 84	 fild	 DWORD PTR tv747[ebp]
  0037b	85 c0		 test	 eax, eax
  0037d	79 06		 jns	 SHORT $LN70@CheckColli@3
  0037f	d8 05 00 00 00
	00		 fadd	 DWORD PTR __real@4f800000
$LN70@CheckColli@3:
  00385	de f9		 fdivp	 ST(1), ST(0)
  00387	8b 8d 78 ff ff
	ff		 mov	 ecx, DWORD PTR tv676[ebp]
  0038d	8d 45 84	 lea	 eax, DWORD PTR _value$535881[ebp]
  00390	50		 push	 eax
  00391	d9 5d 84	 fstp	 DWORD PTR tv743[ebp]
  00394	d9 45 84	 fld	 DWORD PTR tv743[ebp]
  00397	d9 9d 7c ff ff
	ff		 fstp	 DWORD PTR $T535775[ebp]
  0039d	e8 00 00 00 00	 call	 ?DecryptValueToPool@?$CEncrypt@M@@QAEXPAM@Z ; CEncrypt<float>::DecryptValueToPool
  003a2	d9 45 84	 fld	 DWORD PTR _value$535881[ebp]
  003a5	d8 8d 7c ff ff
	ff		 fmul	 DWORD PTR $T535775[ebp]

; 882  : 	vMax.y += m_fUpHeight;

  003ab	8b 8d 70 ff ff
	ff		 mov	 ecx, DWORD PTR tv672[ebp]
  003b1	8d 45 84	 lea	 eax, DWORD PTR _value$535885[ebp]
  003b4	50		 push	 eax
  003b5	d9 5d 84	 fstp	 DWORD PTR tv740[ebp]
  003b8	d9 45 84	 fld	 DWORD PTR tv740[ebp]
  003bb	d8 45 d8	 fadd	 DWORD PTR _vMax$[ebp]
  003be	d9 5d d8	 fstp	 DWORD PTR _vMax$[ebp]
  003c1	e8 00 00 00 00	 call	 ?DecryptValueToPool@?$CEncrypt@M@@QAEXPAM@Z ; CEncrypt<float>::DecryptValueToPool
  003c6	f3 0f 10 4d dc	 movss	 xmm1, DWORD PTR _vMax$[ebp+4]
  003cb	f3 0f 10 45 84	 movss	 xmm0, DWORD PTR _value$535885[ebp]

; 883  : 	vMax.z += m_fZoneRange;

  003d0	8b 8d 74 ff ff
	ff		 mov	 ecx, DWORD PTR tv680[ebp]
  003d6	0f 5a c0	 cvtps2pd xmm0, xmm0
  003d9	0f 5a c9	 cvtps2pd xmm1, xmm1
  003dc	8d 85 74 ff ff
	ff		 lea	 eax, DWORD PTR _value$535889[ebp]
  003e2	f2 0f 58 c1	 addsd	 xmm0, xmm1
  003e6	66 0f 5a c0	 cvtpd2ps xmm0, xmm0
  003ea	50		 push	 eax
  003eb	f3 0f 11 45 dc	 movss	 DWORD PTR _vMax$[ebp+4], xmm0
  003f0	e8 00 00 00 00	 call	 ?DecryptValueToPool@?$CEncrypt@M@@QAEXPAM@Z ; CEncrypt<float>::DecryptValueToPool
  003f5	f3 0f 10 4d e0	 movss	 xmm1, DWORD PTR _vMax$[ebp+8]
  003fa	f3 0f 10 85 74
	ff ff ff	 movss	 xmm0, DWORD PTR _value$535889[ebp]
  00402	0f 5a c0	 cvtps2pd xmm0, xmm0
  00405	0f 5a c9	 cvtps2pd xmm1, xmm1
  00408	f2 0f 58 c1	 addsd	 xmm0, xmm1
  0040c	66 0f 5a c0	 cvtpd2ps xmm0, xmm0

; 884  : 
; 885  : 	//  
; 886  : 	ioOrientBox kBuffBox;

  00410	8d 4d 88	 lea	 ecx, DWORD PTR _kBuffBox$[ebp]
  00413	f3 0f 11 45 e0	 movss	 DWORD PTR _vMax$[ebp+8], xmm0
  00418	ff 15 00 00 00
	00		 call	 DWORD PTR __imp_??0ioOrientBox@@QAE@XZ
  0041e	83 65 fc 00	 and	 DWORD PTR __$EHRec$[ebp+8], 0

; 887  : 	kBuffBox.SetBoxByMinMax( vMin, vMax );

  00422	8d 45 d8	 lea	 eax, DWORD PTR _vMax$[ebp]
  00425	50		 push	 eax
  00426	8d 45 cc	 lea	 eax, DWORD PTR _vMin$[ebp]
  00429	50		 push	 eax
  0042a	8d 4d 88	 lea	 ecx, DWORD PTR _kBuffBox$[ebp]
  0042d	ff 15 00 00 00
	00		 call	 DWORD PTR __imp_?SetBoxByMinMax@ioOrientBox@@QAEXABUD3DXVECTOR3@@0@Z

; 888  : 	//    
; 889  : 	kBuffBox.Transform( vCenter, ioMath::UNIT_ALL, pOwnerChar->GetWorldOrientation() );

  00433	8b 8d 68 ff ff
	ff		 mov	 ecx, DWORD PTR _pOwnerChar$[ebp]
  00439	8b 01		 mov	 eax, DWORD PTR [ecx]
  0043b	ff 50 74	 call	 DWORD PTR [eax+116]
  0043e	50		 push	 eax
  0043f	ff 35 00 00 00
	00		 push	 DWORD PTR __imp_?UNIT_ALL@ioMath@@2UD3DXVECTOR3@@A
  00445	8d 45 e4	 lea	 eax, DWORD PTR _vCenter$[ebp]
  00448	50		 push	 eax
  00449	8d 4d 88	 lea	 ecx, DWORD PTR _kBuffBox$[ebp]
  0044c	ff 15 00 00 00
	00		 call	 DWORD PTR __imp_?Transform@ioOrientBox@@QAEXABUD3DXVECTOR3@@0ABUD3DXQUATERNION@@@Z

; 890  : 	//      pos 
; 891  : 	kBuffBox.SetCenter( vCenter );

  00452	8d 45 e4	 lea	 eax, DWORD PTR _vCenter$[ebp]
  00455	50		 push	 eax
  00456	8d 4d 88	 lea	 ecx, DWORD PTR _kBuffBox$[ebp]
  00459	ff 15 00 00 00
	00		 call	 DWORD PTR __imp_?SetCenter@ioOrientBox@@QAEXABUD3DXVECTOR3@@@Z

; 892  : #ifndef SHIPPING
; 893  : 	kBuffBox.GetVertices( ioBaseChar::m_vRangeBoxArrayForTest );
; 894  : #endif
; 895  : 
; 896  : 	if( !pEntity )

  0045f	8b 8d 6c ff ff
	ff		 mov	 ecx, DWORD PTR _pEntity$GSCopy$[ebp]
  00465	85 c9		 test	 ecx, ecx
  00467	75 12		 jne	 SHORT $LN2@CheckColli@3

; 897  : 		return false;

  00469	83 4d fc ff	 or	 DWORD PTR __$EHRec$[ebp+8], -1
  0046d	8d 4d 88	 lea	 ecx, DWORD PTR _kBuffBox$[ebp]
  00470	ff 15 00 00 00
	00		 call	 DWORD PTR __imp_??1ioOrientBox@@QAE@XZ
  00476	e9 e7 fb ff ff	 jmp	 $LN71@CheckColli@3
$LN2@CheckColli@3:

; 898  : 
; 899  : 	if( !pEntity->IsWoundedCollision( kBuffBox ) )

  0047b	8b 01		 mov	 eax, DWORD PTR [ecx]
  0047d	6a 00		 push	 0
  0047f	8d 55 88	 lea	 edx, DWORD PTR _kBuffBox$[ebp]
  00482	52		 push	 edx
  00483	ff 90 90 00 00
	00		 call	 DWORD PTR [eax+144]
  00489	84 c0		 test	 al, al
  0048b	75 16		 jne	 SHORT $LN1@CheckColli@3
  0048d	32 db		 xor	 bl, bl
$LN61@CheckColli@3:

; 900  : 		return false;

  0048f	83 4d fc ff	 or	 DWORD PTR __$EHRec$[ebp+8], -1
  00493	8d 4d 88	 lea	 ecx, DWORD PTR _kBuffBox$[ebp]
  00496	ff 15 00 00 00
	00		 call	 DWORD PTR __imp_??1ioOrientBox@@QAE@XZ
  0049c	8a c3		 mov	 al, bl
  0049e	e9 c1 fb ff ff	 jmp	 $LN6@CheckColli@3
$LN1@CheckColli@3:
  004a3	b3 01		 mov	 bl, 1
  004a5	eb e8		 jmp	 SHORT $LN61@CheckColli@3
_TEXT	ENDS
;	COMDAT text$x
text$x	SEGMENT
__unwindfunclet$?CheckCollisionBox@ioLobeliaWeapon@@IAE_NPAVioPlayEntity@@@Z$0:
  00000	8d 4d 88	 lea	 ecx, DWORD PTR _kBuffBox$[ebp]
  00003	ff 25 00 00 00
	00		 jmp	 DWORD PTR __imp_??1ioOrientBox@@QAE@XZ
__ehhandler$?CheckCollisionBox@ioLobeliaWeapon@@IAE_NPAVioPlayEntity@@@Z:
  00009	8b 54 24 08	 mov	 edx, DWORD PTR [esp+8]
  0000d	8d 42 0c	 lea	 eax, DWORD PTR [edx+12]
  00010	8b 8a 64 ff ff
	ff		 mov	 ecx, DWORD PTR [edx-156]
  00016	33 c8		 xor	 ecx, eax
  00018	e8 00 00 00 00	 call	 @__security_check_cookie@4
  0001d	8b 4a fc	 mov	 ecx, DWORD PTR [edx-4]
  00020	33 c8		 xor	 ecx, eax
  00022	e8 00 00 00 00	 call	 @__security_check_cookie@4
  00027	b8 00 00 00 00	 mov	 eax, OFFSET __ehfuncinfo$?CheckCollisionBox@ioLobeliaWeapon@@IAE_NPAVioPlayEntity@@@Z
  0002c	e9 00 00 00 00	 jmp	 ___CxxFrameHandler3
text$x	ENDS
?CheckCollisionBox@ioLobeliaWeapon@@IAE_NPAVioPlayEntity@@@Z ENDP ; ioLobeliaWeapon::CheckCollisionBox
PUBLIC	_pEntity$GSCopy$
PUBLIC	?CheckCollisionDonut@ioLobeliaWeapon@@IAE_NPAVioPlayEntity@@@Z ; ioLobeliaWeapon::CheckCollisionDonut
;	COMDAT xdata$x
; File c:\program files (x86)\microsoft directx sdk (june 2010)\include\d3dx9math.inl
xdata$x	SEGMENT
__unwindtable$?CheckCollisionDonut@ioLobeliaWeapon@@IAE_NPAVioPlayEntity@@@Z DD 0ffffffffH
	DD	FLAT:__unwindfunclet$?CheckCollisionDonut@ioLobeliaWeapon@@IAE_NPAVioPlayEntity@@@Z$0
	DD	00H
	DD	FLAT:__unwindfunclet$?CheckCollisionDonut@ioLobeliaWeapon@@IAE_NPAVioPlayEntity@@@Z$1
__ehfuncinfo$?CheckCollisionDonut@ioLobeliaWeapon@@IAE_NPAVioPlayEntity@@@Z DD 019930522H
	DD	02H
	DD	FLAT:__unwindtable$?CheckCollisionDonut@ioLobeliaWeapon@@IAE_NPAVioPlayEntity@@@Z
	DD	2 DUP(00H)
	DD	2 DUP(00H)
	DD	00H
	DD	01H
; Function compile flags: /Ogsp
; File d:\lost saga for developer\youtube\tutorial\source\src\lsclient\iolobeliaweapon.cpp
xdata$x	ENDS
;	COMDAT ?CheckCollisionDonut@ioLobeliaWeapon@@IAE_NPAVioPlayEntity@@@Z
_TEXT	SEGMENT
tv585 = -216						; size = 8
tv619 = -212						; size = 4
tv595 = -212						; size = 4
tv431 = -212						; size = 4
tv396 = -212						; size = 4
_value$535998 = -212					; size = 4
_value$535986 = -212					; size = 4
tv157 = -212						; size = 4
tv148 = -212						; size = 4
tv142 = -212						; size = 4
_pEntity$GSCopy$ = -208					; size = 4
_value$535990 = -208					; size = 4
_value$535994 = -208					; size = 4
_value$536002 = -208					; size = 4
_fHalfCosine$ = -208					; size = 4
_value$535965 = -204					; size = 4
_value$535961 = -204					; size = 4
_value$535957 = -204					; size = 4
_value$535953 = -204					; size = 4
_value$535942 = -204					; size = 4
_value$535938 = -204					; size = 4
_value$535934 = -204					; size = 4
_fTargetDist$ = -204					; size = 4
$T535912 = -204						; size = 4
$T535911 = -204						; size = 4
_kBuffBox$ = -200					; size = 68
_kCylinder$ = -132					; size = 32
_vCollisionPoint$ = -100				; size = 12
_vTop$ = -88						; size = 12
_vMax$ = -76						; size = 12
_vBottom$ = -64						; size = 12
_vMin$ = -52						; size = 12
_vCenter$ = -40						; size = 12
_vDiff1$ = -28						; size = 12
__$EHRec$ = -12						; size = 12
_pEntity$ = 8						; size = 4
?CheckCollisionDonut@ioLobeliaWeapon@@IAE_NPAVioPlayEntity@@@Z PROC ; ioLobeliaWeapon::CheckCollisionDonut, COMDAT
; _this$ = ecx

; 906  : {

  00000	68 cc 00 00 00	 push	 204			; 000000ccH
  00005	b8 00 00 00 00	 mov	 eax, __ehhandler$?CheckCollisionDonut@ioLobeliaWeapon@@IAE_NPAVioPlayEntity@@@Z
  0000a	e8 00 00 00 00	 call	 __EH_prolog3_GS
  0000f	8b 45 08	 mov	 eax, DWORD PTR _pEntity$[ebp]

; 907  : 	if( m_fUpHeight == 0.0f && m_fUnderHeight == 0.0f )

  00012	0f 57 c0	 xorps	 xmm0, xmm0

; 960  : 	}
; 961  : 
; 962  : 	//   
; 963  : 	float fCurCheckAngle = m_fZoneAngle;

  00015	89 85 30 ff ff
	ff		 mov	 DWORD PTR _pEntity$GSCopy$[ebp], eax
  0001b	8b d9		 mov	 ebx, ecx
  0001d	8d 85 34 ff ff
	ff		 lea	 eax, DWORD PTR $T535911[ebp]
  00023	8d 8b 58 0a 00
	00		 lea	 ecx, DWORD PTR [ebx+2648]
  00029	50		 push	 eax
  0002a	f3 0f 11 85 34
	ff ff ff	 movss	 DWORD PTR $T535911[ebp], xmm0
  00032	e8 00 00 00 00	 call	 ??8?$CEncrypt@M@@QAE_NABM@Z ; CEncrypt<float>::operator==
  00037	84 c0		 test	 al, al
  00039	74 2b		 je	 SHORT $LN6@CheckColli@4

; 907  : 	if( m_fUpHeight == 0.0f && m_fUnderHeight == 0.0f )

  0003b	0f 57 c0	 xorps	 xmm0, xmm0
  0003e	8d 85 34 ff ff
	ff		 lea	 eax, DWORD PTR $T535912[ebp]
  00044	50		 push	 eax
  00045	8d 8b 88 0a 00
	00		 lea	 ecx, DWORD PTR [ebx+2696]
  0004b	f3 0f 11 85 34
	ff ff ff	 movss	 DWORD PTR $T535912[ebp], xmm0
  00053	e8 00 00 00 00	 call	 ??8?$CEncrypt@M@@QAE_NABM@Z ; CEncrypt<float>::operator==
  00058	84 c0		 test	 al, al
  0005a	74 0a		 je	 SHORT $LN6@CheckColli@4
$LN68@CheckColli@4:

; 908  : 		return false;

  0005c	32 c0		 xor	 al, al
$LN7@CheckColli@4:

; 972  : 	{
; 973  : 		return true;
; 974  : 	}
; 975  : 
; 976  : 	return false;
; 977  : }

  0005e	e8 00 00 00 00	 call	 __EH_epilog3_GS
  00063	c2 04 00	 ret	 4
$LN6@CheckColli@4:

; 909  : 
; 910  : 	D3DXVECTOR3 vCenter = GetWorldAttackBox().GetCenter();

  00066	6a 00		 push	 0
  00068	8b cb		 mov	 ecx, ebx
  0006a	e8 00 00 00 00	 call	 ?GetWorldAttackBox@ioWeapon@@QBEABVioOrientBox@@_N@Z ; ioWeapon::GetWorldAttackBox
  0006f	8b c8		 mov	 ecx, eax
  00071	ff 15 00 00 00
	00		 call	 DWORD PTR __imp_?GetCenter@ioOrientBox@@QBEABUD3DXVECTOR3@@XZ
  00077	8b f0		 mov	 esi, eax
  00079	8d 7d d8	 lea	 edi, DWORD PTR _vCenter$[ebp]
  0007c	a5		 movsd
  0007d	a5		 movsd
  0007e	a5		 movsd

; 911  : 
; 912  : 	D3DXVECTOR3 vTop, vBottom;
; 913  : 	vTop = vBottom = vCenter;

  0007f	8d 75 d8	 lea	 esi, DWORD PTR _vCenter$[ebp]
  00082	8d 7d c0	 lea	 edi, DWORD PTR _vBottom$[ebp]
  00085	a5		 movsd
  00086	a5		 movsd
  00087	a5		 movsd
  00088	8d 75 d8	 lea	 esi, DWORD PTR _vCenter$[ebp]
  0008b	8d 7d a8	 lea	 edi, DWORD PTR _vTop$[ebp]
  0008e	a5		 movsd
  0008f	a5		 movsd

; 914  : 	vTop.y += m_fUpHeight;

  00090	8d 85 34 ff ff
	ff		 lea	 eax, DWORD PTR _value$535934[ebp]
  00096	50		 push	 eax
  00097	8d 8b 58 0a 00
	00		 lea	 ecx, DWORD PTR [ebx+2648]
  0009d	a5		 movsd
  0009e	e8 00 00 00 00	 call	 ?DecryptValueToPool@?$CEncrypt@M@@QAEXPAM@Z ; CEncrypt<float>::DecryptValueToPool
  000a3	f3 0f 10 4d ac	 movss	 xmm1, DWORD PTR _vTop$[ebp+4]
  000a8	f3 0f 10 85 34
	ff ff ff	 movss	 xmm0, DWORD PTR _value$535934[ebp]
  000b0	0f 5a c0	 cvtps2pd xmm0, xmm0
  000b3	0f 5a c9	 cvtps2pd xmm1, xmm1

; 915  : 	vBottom.y -= m_fUnderHeight;

  000b6	8d 85 34 ff ff
	ff		 lea	 eax, DWORD PTR _value$535938[ebp]
  000bc	f2 0f 58 c1	 addsd	 xmm0, xmm1
  000c0	66 0f 5a c0	 cvtpd2ps xmm0, xmm0
  000c4	50		 push	 eax
  000c5	8d 8b 88 0a 00
	00		 lea	 ecx, DWORD PTR [ebx+2696]
  000cb	f3 0f 11 45 ac	 movss	 DWORD PTR _vTop$[ebp+4], xmm0
  000d0	e8 00 00 00 00	 call	 ?DecryptValueToPool@?$CEncrypt@M@@QAEXPAM@Z ; CEncrypt<float>::DecryptValueToPool
  000d5	f3 0f 10 45 c4	 movss	 xmm0, DWORD PTR _vBottom$[ebp+4]
  000da	f3 0f 10 8d 34
	ff ff ff	 movss	 xmm1, DWORD PTR _value$535938[ebp]
  000e2	0f 5a c0	 cvtps2pd xmm0, xmm0
  000e5	0f 5a c9	 cvtps2pd xmm1, xmm1

; 916  : 	ioCylinder kCylinder( vTop, vBottom, m_fZoneRange );

  000e8	8d 85 34 ff ff
	ff		 lea	 eax, DWORD PTR _value$535942[ebp]
  000ee	f2 0f 5c c1	 subsd	 xmm0, xmm1
  000f2	66 0f 5a c0	 cvtpd2ps xmm0, xmm0
  000f6	8d 8b 68 09 00
	00		 lea	 ecx, DWORD PTR [ebx+2408]
  000fc	50		 push	 eax
  000fd	f3 0f 11 45 c4	 movss	 DWORD PTR _vBottom$[ebp+4], xmm0
  00102	e8 00 00 00 00	 call	 ?DecryptValueToPool@?$CEncrypt@M@@QAEXPAM@Z ; CEncrypt<float>::DecryptValueToPool
  00107	f3 0f 10 85 34
	ff ff ff	 movss	 xmm0, DWORD PTR _value$535942[ebp]
  0010f	51		 push	 ecx
  00110	f3 0f 11 04 24	 movss	 DWORD PTR [esp], xmm0
  00115	8d 45 c0	 lea	 eax, DWORD PTR _vBottom$[ebp]
  00118	50		 push	 eax
  00119	8d 45 a8	 lea	 eax, DWORD PTR _vTop$[ebp]
  0011c	50		 push	 eax
  0011d	8d 8d 7c ff ff
	ff		 lea	 ecx, DWORD PTR _kCylinder$[ebp]
  00123	ff 15 00 00 00
	00		 call	 DWORD PTR __imp_??0ioCylinder@@QAE@ABUD3DXVECTOR3@@0M@Z
  00129	83 65 fc 00	 and	 DWORD PTR __$EHRec$[ebp+8], 0

; 917  : 	vCenter = kCylinder.GetCenter();

  0012d	8d 8d 7c ff ff
	ff		 lea	 ecx, DWORD PTR _kCylinder$[ebp]
  00133	ff 15 00 00 00
	00		 call	 DWORD PTR __imp_?GetCenter@ioCylinder@@QBEABUD3DXVECTOR3@@XZ
  00139	8b f0		 mov	 esi, eax
  0013b	8d 7d d8	 lea	 edi, DWORD PTR _vCenter$[ebp]
  0013e	a5		 movsd
  0013f	a5		 movsd
  00140	a5		 movsd

; 918  : 
; 919  : 
; 920  : 	//   2  .    2
; 921  : 	D3DXVECTOR3 vMin, vMax;
; 922  : 	vMax = vTop;

  00141	8d 75 a8	 lea	 esi, DWORD PTR _vTop$[ebp]
  00144	8d 7d b4	 lea	 edi, DWORD PTR _vMax$[ebp]
  00147	a5		 movsd
  00148	a5		 movsd
  00149	a5		 movsd

; 923  : 	vMin = vBottom;

  0014a	8d 75 c0	 lea	 esi, DWORD PTR _vBottom$[ebp]
  0014d	8d 7d cc	 lea	 edi, DWORD PTR _vMin$[ebp]
  00150	a5		 movsd
  00151	a5		 movsd

; 924  : 
; 925  : 	vMax.x += m_fZoneRange;

  00152	8d 85 34 ff ff
	ff		 lea	 eax, DWORD PTR _value$535953[ebp]
  00158	50		 push	 eax
  00159	8d 8b 68 09 00
	00		 lea	 ecx, DWORD PTR [ebx+2408]
  0015f	a5		 movsd
  00160	e8 00 00 00 00	 call	 ?DecryptValueToPool@?$CEncrypt@M@@QAEXPAM@Z ; CEncrypt<float>::DecryptValueToPool
  00165	f3 0f 10 85 34
	ff ff ff	 movss	 xmm0, DWORD PTR _value$535953[ebp]
  0016d	f3 0f 10 4d b4	 movss	 xmm1, DWORD PTR _vMax$[ebp]
  00172	0f 5a c0	 cvtps2pd xmm0, xmm0
  00175	0f 5a c9	 cvtps2pd xmm1, xmm1

; 926  : 	vMax.z -= m_fZoneRange;

  00178	8d 85 34 ff ff
	ff		 lea	 eax, DWORD PTR _value$535957[ebp]
  0017e	f2 0f 58 c1	 addsd	 xmm0, xmm1
  00182	66 0f 5a c0	 cvtpd2ps xmm0, xmm0
  00186	50		 push	 eax
  00187	8d 8b 68 09 00
	00		 lea	 ecx, DWORD PTR [ebx+2408]
  0018d	f3 0f 11 45 b4	 movss	 DWORD PTR _vMax$[ebp], xmm0
  00192	e8 00 00 00 00	 call	 ?DecryptValueToPool@?$CEncrypt@M@@QAEXPAM@Z ; CEncrypt<float>::DecryptValueToPool
  00197	f3 0f 10 45 bc	 movss	 xmm0, DWORD PTR _vMax$[ebp+8]
  0019c	f3 0f 10 8d 34
	ff ff ff	 movss	 xmm1, DWORD PTR _value$535957[ebp]
  001a4	0f 5a c0	 cvtps2pd xmm0, xmm0
  001a7	0f 5a c9	 cvtps2pd xmm1, xmm1

; 927  : 
; 928  : 	vMin.x -= m_fZoneRange;

  001aa	8d 85 34 ff ff
	ff		 lea	 eax, DWORD PTR _value$535961[ebp]
  001b0	f2 0f 5c c1	 subsd	 xmm0, xmm1
  001b4	66 0f 5a c0	 cvtpd2ps xmm0, xmm0
  001b8	50		 push	 eax
  001b9	8d 8b 68 09 00
	00		 lea	 ecx, DWORD PTR [ebx+2408]
  001bf	f3 0f 11 45 bc	 movss	 DWORD PTR _vMax$[ebp+8], xmm0
  001c4	e8 00 00 00 00	 call	 ?DecryptValueToPool@?$CEncrypt@M@@QAEXPAM@Z ; CEncrypt<float>::DecryptValueToPool
  001c9	f3 0f 10 45 cc	 movss	 xmm0, DWORD PTR _vMin$[ebp]
  001ce	f3 0f 10 8d 34
	ff ff ff	 movss	 xmm1, DWORD PTR _value$535961[ebp]
  001d6	0f 5a c0	 cvtps2pd xmm0, xmm0
  001d9	0f 5a c9	 cvtps2pd xmm1, xmm1

; 929  : 	vMin.z += m_fZoneRange;

  001dc	8d 85 34 ff ff
	ff		 lea	 eax, DWORD PTR _value$535965[ebp]
  001e2	f2 0f 5c c1	 subsd	 xmm0, xmm1
  001e6	66 0f 5a c0	 cvtpd2ps xmm0, xmm0
  001ea	50		 push	 eax
  001eb	8d 8b 68 09 00
	00		 lea	 ecx, DWORD PTR [ebx+2408]
  001f1	f3 0f 11 45 cc	 movss	 DWORD PTR _vMin$[ebp], xmm0
  001f6	e8 00 00 00 00	 call	 ?DecryptValueToPool@?$CEncrypt@M@@QAEXPAM@Z ; CEncrypt<float>::DecryptValueToPool
  001fb	f3 0f 10 4d d4	 movss	 xmm1, DWORD PTR _vMin$[ebp+8]
  00200	f3 0f 10 85 34
	ff ff ff	 movss	 xmm0, DWORD PTR _value$535965[ebp]
  00208	0f 5a c0	 cvtps2pd xmm0, xmm0
  0020b	0f 5a c9	 cvtps2pd xmm1, xmm1
  0020e	f2 0f 58 c1	 addsd	 xmm0, xmm1
  00212	66 0f 5a c0	 cvtpd2ps xmm0, xmm0

; 930  : 
; 931  : 	//  
; 932  : 	ioOrientBox kBuffBox;

  00216	8d 8d 38 ff ff
	ff		 lea	 ecx, DWORD PTR _kBuffBox$[ebp]
  0021c	f3 0f 11 45 d4	 movss	 DWORD PTR _vMin$[ebp+8], xmm0
  00221	ff 15 00 00 00
	00		 call	 DWORD PTR __imp_??0ioOrientBox@@QAE@XZ

; 933  : 	kBuffBox.SetBoxByMinMax( vMin, vMax );

  00227	8d 45 b4	 lea	 eax, DWORD PTR _vMax$[ebp]
  0022a	50		 push	 eax
  0022b	8d 45 cc	 lea	 eax, DWORD PTR _vMin$[ebp]
  0022e	50		 push	 eax
  0022f	8d 8d 38 ff ff
	ff		 lea	 ecx, DWORD PTR _kBuffBox$[ebp]
  00235	c6 45 fc 01	 mov	 BYTE PTR __$EHRec$[ebp+8], 1
  00239	ff 15 00 00 00
	00		 call	 DWORD PTR __imp_?SetBoxByMinMax@ioOrientBox@@QAEXABUD3DXVECTOR3@@0@Z

; 934  : 
; 935  : #ifndef SHIPPING
; 936  : 	kBuffBox.GetVertices( ioBaseChar::m_vRangeBoxArrayForTest );
; 937  : #endif
; 938  : 
; 939  : 
; 940  : 	D3DXVECTOR3 vCollisionPoint;
; 941  : 	if( !pEntity->CheckCylinderPoint( kCylinder, vCenter, vCollisionPoint ) )

  0023f	8b 8d 30 ff ff
	ff		 mov	 ecx, DWORD PTR _pEntity$GSCopy$[ebp]
  00245	8b 01		 mov	 eax, DWORD PTR [ecx]
  00247	8d 55 9c	 lea	 edx, DWORD PTR _vCollisionPoint$[ebp]
  0024a	52		 push	 edx
  0024b	8d 55 d8	 lea	 edx, DWORD PTR _vCenter$[ebp]
  0024e	52		 push	 edx
  0024f	8d 95 7c ff ff
	ff		 lea	 edx, DWORD PTR _kCylinder$[ebp]
  00255	52		 push	 edx
  00256	ff 90 a0 00 00
	00		 call	 DWORD PTR [eax+160]
  0025c	84 c0		 test	 al, al
  0025e	75 25		 jne	 SHORT $LN5@CheckColli@4
$LN69@CheckColli@4:

; 942  : 		return false;

  00260	8d 8d 38 ff ff
	ff		 lea	 ecx, DWORD PTR _kBuffBox$[ebp]
  00266	c6 45 fc 00	 mov	 BYTE PTR __$EHRec$[ebp+8], 0
  0026a	ff 15 00 00 00
	00		 call	 DWORD PTR __imp_??1ioOrientBox@@QAE@XZ
  00270	83 4d fc ff	 or	 DWORD PTR __$EHRec$[ebp+8], -1
  00274	8d 8d 7c ff ff
	ff		 lea	 ecx, DWORD PTR _kCylinder$[ebp]
  0027a	ff 15 00 00 00
	00		 call	 DWORD PTR __imp_??1ioCylinder@@QAE@XZ
  00280	e9 d7 fd ff ff	 jmp	 $LN68@CheckColli@4
$LN5@CheckColli@4:

; 943  : 
; 944  : 	//   
; 945  : 	D3DXVECTOR3 vDiff1 = vCollisionPoint - vCenter;

  00285	f3 0f 10 45 9c	 movss	 xmm0, DWORD PTR _vCollisionPoint$[ebp]
  0028a	f3 0f 10 4d d8	 movss	 xmm1, DWORD PTR _vCenter$[ebp]
  0028f	f3 0f 10 55 e0	 movss	 xmm2, DWORD PTR _vCenter$[ebp+8]
  00294	0f 5a c0	 cvtps2pd xmm0, xmm0
  00297	0f 5a c9	 cvtps2pd xmm1, xmm1
  0029a	f2 0f 5c c1	 subsd	 xmm0, xmm1
  0029e	f3 0f 10 4d a4	 movss	 xmm1, DWORD PTR _vCollisionPoint$[ebp+8]
  002a3	66 0f 5a c0	 cvtpd2ps xmm0, xmm0
  002a7	f3 0f 11 45 e4	 movss	 DWORD PTR _vDiff1$[ebp], xmm0

; 946  : 	vDiff1.y = 0.0f;
; 947  : 
; 948  : 	float fTargetDist = D3DXVec3LengthSq( &vDiff1 );

  002ac	f3 0f 5a c0	 cvtss2sd xmm0, xmm0
  002b0	f2 0f 59 c0	 mulsd	 xmm0, xmm0
  002b4	f2 0f 11 85 28
	ff ff ff	 movsd	 QWORD PTR tv585[ebp], xmm0
  002bc	0f 57 c0	 xorps	 xmm0, xmm0
  002bf	0f 5a d2	 cvtps2pd xmm2, xmm2
  002c2	0f 5a c9	 cvtps2pd xmm1, xmm1
  002c5	f2 0f 5c ca	 subsd	 xmm1, xmm2
  002c9	0f 57 d2	 xorps	 xmm2, xmm2
  002cc	f2 0f 59 c0	 mulsd	 xmm0, xmm0
  002d0	66 0f 5a c9	 cvtpd2ps xmm1, xmm1
  002d4	f3 0f 11 55 e8	 movss	 DWORD PTR _vDiff1$[ebp+4], xmm2
  002d9	f2 0f 10 95 28
	ff ff ff	 movsd	 xmm2, QWORD PTR tv585[ebp]
  002e1	f3 0f 11 4d ec	 movss	 DWORD PTR _vDiff1$[ebp+8], xmm1
  002e6	f3 0f 5a c9	 cvtss2sd xmm1, xmm1
  002ea	f2 0f 58 d0	 addsd	 xmm2, xmm0
  002ee	f2 0f 59 c9	 mulsd	 xmm1, xmm1

; 949  : 	if( fTargetDist > m_fZoneRange * m_fZoneRange )

  002f2	8d 85 2c ff ff
	ff		 lea	 eax, DWORD PTR _value$535986[ebp]
  002f8	f2 0f 58 d1	 addsd	 xmm2, xmm1
  002fc	66 0f 5a c2	 cvtpd2ps xmm0, xmm2
  00300	50		 push	 eax
  00301	8d 8b 68 09 00
	00		 lea	 ecx, DWORD PTR [ebx+2408]
  00307	f3 0f 11 85 34
	ff ff ff	 movss	 DWORD PTR _fTargetDist$[ebp], xmm0
  0030f	e8 00 00 00 00	 call	 ?DecryptValueToPool@?$CEncrypt@M@@QAEXPAM@Z ; CEncrypt<float>::DecryptValueToPool
  00314	8d 85 30 ff ff
	ff		 lea	 eax, DWORD PTR _value$535990[ebp]
  0031a	50		 push	 eax
  0031b	8d 8b 68 09 00
	00		 lea	 ecx, DWORD PTR [ebx+2408]
  00321	e8 00 00 00 00	 call	 ?DecryptValueToPool@?$CEncrypt@M@@QAEXPAM@Z ; CEncrypt<float>::DecryptValueToPool
  00326	f3 0f 10 8d 30
	ff ff ff	 movss	 xmm1, DWORD PTR _value$535990[ebp]
  0032e	f3 0f 10 95 2c
	ff ff ff	 movss	 xmm2, DWORD PTR _value$535986[ebp]
  00336	f3 0f 10 85 34
	ff ff ff	 movss	 xmm0, DWORD PTR _fTargetDist$[ebp]
  0033e	0f 5a c9	 cvtps2pd xmm1, xmm1
  00341	0f 5a d2	 cvtps2pd xmm2, xmm2
  00344	f2 0f 59 ca	 mulsd	 xmm1, xmm2
  00348	66 0f 5a c9	 cvtpd2ps xmm1, xmm1
  0034c	0f 5a c0	 cvtps2pd xmm0, xmm0
  0034f	f3 0f 5a c9	 cvtss2sd xmm1, xmm1
  00353	66 0f 2f c1	 comisd	 xmm0, xmm1

; 950  : 	{
; 951  : 		return false;

  00357	0f 87 03 ff ff
	ff		 ja	 $LN69@CheckColli@4

; 952  : 	}
; 953  : 
; 954  : 	float fInnerRange = m_fZoneRange - m_fZoneInnerRange;

  0035d	8d 85 30 ff ff
	ff		 lea	 eax, DWORD PTR _value$535994[ebp]
  00363	50		 push	 eax
  00364	8d 8b f8 09 00
	00		 lea	 ecx, DWORD PTR [ebx+2552]
  0036a	e8 00 00 00 00	 call	 ?DecryptValueToPool@?$CEncrypt@M@@QAEXPAM@Z ; CEncrypt<float>::DecryptValueToPool
  0036f	8d 85 2c ff ff
	ff		 lea	 eax, DWORD PTR _value$535998[ebp]
  00375	50		 push	 eax
  00376	8d 8b 68 09 00
	00		 lea	 ecx, DWORD PTR [ebx+2408]
  0037c	e8 00 00 00 00	 call	 ?DecryptValueToPool@?$CEncrypt@M@@QAEXPAM@Z ; CEncrypt<float>::DecryptValueToPool
  00381	f3 0f 10 8d 30
	ff ff ff	 movss	 xmm1, DWORD PTR _value$535994[ebp]
  00389	f3 0f 10 85 2c
	ff ff ff	 movss	 xmm0, DWORD PTR _value$535998[ebp]

; 955  : 	fInnerRange = max( 0, fInnerRange );

  00391	0f 57 d2	 xorps	 xmm2, xmm2
  00394	0f 5a c9	 cvtps2pd xmm1, xmm1
  00397	0f 5a c0	 cvtps2pd xmm0, xmm0
  0039a	f2 0f 5c c1	 subsd	 xmm0, xmm1
  0039e	66 0f 5a c0	 cvtpd2ps xmm0, xmm0
  003a2	0f 57 c9	 xorps	 xmm1, xmm1
  003a5	f3 0f 5a c8	 cvtss2sd xmm1, xmm0
  003a9	66 0f 2f d1	 comisd	 xmm2, xmm1
  003ad	76 03		 jbe	 SHORT $LN9@CheckColli@4
  003af	0f 57 c0	 xorps	 xmm0, xmm0
$LN9@CheckColli@4:

; 956  : 
; 957  : 	if( fTargetDist < fInnerRange * fInnerRange )

  003b2	f3 0f 10 8d 34
	ff ff ff	 movss	 xmm1, DWORD PTR _fTargetDist$[ebp]
  003ba	f3 0f 5a c0	 cvtss2sd xmm0, xmm0
  003be	0f 5a c9	 cvtps2pd xmm1, xmm1
  003c1	f2 0f 59 c0	 mulsd	 xmm0, xmm0
  003c5	66 0f 2f c1	 comisd	 xmm0, xmm1

; 958  : 	{
; 959  : 		return false;

  003c9	0f 87 91 fe ff
	ff		 ja	 $LN69@CheckColli@4

; 960  : 	}
; 961  : 
; 962  : 	//   
; 963  : 	float fCurCheckAngle = m_fZoneAngle;

  003cf	8d 85 30 ff ff
	ff		 lea	 eax, DWORD PTR _value$536002[ebp]
  003d5	50		 push	 eax
  003d6	8d 8b 28 0a 00
	00		 lea	 ecx, DWORD PTR [ebx+2600]
  003dc	e8 00 00 00 00	 call	 ?DecryptValueToPool@?$CEncrypt@M@@QAEXPAM@Z ; CEncrypt<float>::DecryptValueToPool

; 964  : 	float fHalfCosine = cosf( DEGtoRAD( fCurCheckAngle ) * FLOAT05 );

  003e1	b8 05 00 00 00	 mov	 eax, 5
  003e6	8b c8		 mov	 ecx, eax
  003e8	b8 0a 00 00 00	 mov	 eax, 10			; 0000000aH
  003ed	89 8d 2c ff ff
	ff		 mov	 DWORD PTR tv595[ebp], ecx
  003f3	db 85 2c ff ff
	ff		 fild	 DWORD PTR tv595[ebp]
  003f9	85 c9		 test	 ecx, ecx
  003fb	79 06		 jns	 SHORT $LN66@CheckColli@4
  003fd	d8 05 00 00 00
	00		 fadd	 DWORD PTR __real@4f800000
$LN66@CheckColli@4:
  00403	89 85 2c ff ff
	ff		 mov	 DWORD PTR tv396[ebp], eax
  00409	db 85 2c ff ff
	ff		 fild	 DWORD PTR tv396[ebp]
  0040f	85 c0		 test	 eax, eax
  00411	79 06		 jns	 SHORT $LN67@CheckColli@4
  00413	d8 05 00 00 00
	00		 fadd	 DWORD PTR __real@4f800000
$LN67@CheckColli@4:
  00419	de f9		 fdivp	 ST(1), ST(0)
  0041b	d9 9d 2c ff ff
	ff		 fstp	 DWORD PTR tv157[ebp]
  00421	d9 85 2c ff ff
	ff		 fld	 DWORD PTR tv157[ebp]
  00427	d9 85 30 ff ff
	ff		 fld	 DWORD PTR _value$536002[ebp]
  0042d	dc 0d 00 00 00
	00		 fmul	 QWORD PTR __real@3f91df46a2526c7a
  00433	d9 9d 2c ff ff
	ff		 fstp	 DWORD PTR tv619[ebp]
  00439	d8 8d 2c ff ff
	ff		 fmul	 DWORD PTR tv619[ebp]
  0043f	d9 9d 2c ff ff
	ff		 fstp	 DWORD PTR tv431[ebp]
  00445	d9 85 2c ff ff
	ff		 fld	 DWORD PTR tv431[ebp]
  0044b	e8 00 00 00 00	 call	 __CIcos
  00450	d9 9d 2c ff ff
	ff		 fstp	 DWORD PTR tv148[ebp]
  00456	d9 85 2c ff ff
	ff		 fld	 DWORD PTR tv148[ebp]

; 965  : 	D3DXVec3Normalize( &vDiff1, &vDiff1 );

  0045c	8d 45 e4	 lea	 eax, DWORD PTR _vDiff1$[ebp]
  0045f	50		 push	 eax
  00460	d9 9d 30 ff ff
	ff		 fstp	 DWORD PTR _fHalfCosine$[ebp]
  00466	50		 push	 eax
  00467	e8 00 00 00 00	 call	 _D3DXVec3Normalize@8

; 966  : 
; 967  : 	if( D3DXVec3Dot( &m_vMoveDir, &vDiff1 ) < fHalfCosine )

  0046c	d9 83 c8 08 00
	00		 fld	 DWORD PTR [ebx+2248]
  00472	d8 4d e8	 fmul	 DWORD PTR _vDiff1$[ebp+4]
  00475	d9 45 e4	 fld	 DWORD PTR _vDiff1$[ebp]
  00478	d8 8b c4 08 00
	00		 fmul	 DWORD PTR [ebx+2244]
  0047e	de c1		 faddp	 ST(1), ST(0)
  00480	d9 83 cc 08 00
	00		 fld	 DWORD PTR [ebx+2252]
  00486	d8 4d ec	 fmul	 DWORD PTR _vDiff1$[ebp+8]
  00489	de c1		 faddp	 ST(1), ST(0)
  0048b	d9 9d 2c ff ff
	ff		 fstp	 DWORD PTR tv142[ebp]
  00491	d9 85 2c ff ff
	ff		 fld	 DWORD PTR tv142[ebp]
  00497	d9 85 30 ff ff
	ff		 fld	 DWORD PTR _fHalfCosine$[ebp]
  0049d	df f1		 fcomip	 ST(1)
  0049f	dd d8		 fstp	 ST(0)
  004a1	76 29		 jbe	 SHORT $LN2@CheckColli@4
$LN1@CheckColli@4:
  004a3	32 db		 xor	 bl, bl
$LN63@CheckColli@4:

; 968  : 		return false;

  004a5	8d 8d 38 ff ff
	ff		 lea	 ecx, DWORD PTR _kBuffBox$[ebp]
  004ab	c6 45 fc 00	 mov	 BYTE PTR __$EHRec$[ebp+8], 0
  004af	ff 15 00 00 00
	00		 call	 DWORD PTR __imp_??1ioOrientBox@@QAE@XZ
  004b5	83 4d fc ff	 or	 DWORD PTR __$EHRec$[ebp+8], -1
  004b9	8d 8d 7c ff ff
	ff		 lea	 ecx, DWORD PTR _kCylinder$[ebp]
  004bf	ff 15 00 00 00
	00		 call	 DWORD PTR __imp_??1ioCylinder@@QAE@XZ
  004c5	8a c3		 mov	 al, bl
  004c7	e9 92 fb ff ff	 jmp	 $LN7@CheckColli@4
$LN2@CheckColli@4:

; 969  : 
; 970  : 	//  
; 971  : 	if( vCollisionPoint.y >= vBottom.y && vCollisionPoint.y <= vTop.y )

  004cc	f3 0f 10 45 a0	 movss	 xmm0, DWORD PTR _vCollisionPoint$[ebp+4]
  004d1	f3 0f 10 4d c4	 movss	 xmm1, DWORD PTR _vBottom$[ebp+4]
  004d6	0f 5a c0	 cvtps2pd xmm0, xmm0
  004d9	0f 5a c9	 cvtps2pd xmm1, xmm1
  004dc	66 0f 2f c1	 comisd	 xmm0, xmm1
  004e0	72 c1		 jb	 SHORT $LN1@CheckColli@4
  004e2	f3 0f 10 45 a0	 movss	 xmm0, DWORD PTR _vCollisionPoint$[ebp+4]
  004e7	f3 0f 10 4d ac	 movss	 xmm1, DWORD PTR _vTop$[ebp+4]
  004ec	0f 5a c0	 cvtps2pd xmm0, xmm0
  004ef	0f 5a c9	 cvtps2pd xmm1, xmm1
  004f2	66 0f 2f c8	 comisd	 xmm1, xmm0
  004f6	72 ab		 jb	 SHORT $LN1@CheckColli@4
  004f8	b3 01		 mov	 bl, 1
  004fa	eb a9		 jmp	 SHORT $LN63@CheckColli@4
_TEXT	ENDS
;	COMDAT text$x
text$x	SEGMENT
__unwindfunclet$?CheckCollisionDonut@ioLobeliaWeapon@@IAE_NPAVioPlayEntity@@@Z$0:
  00000	8d 8d 7c ff ff
	ff		 lea	 ecx, DWORD PTR _kCylinder$[ebp]
  00006	ff 25 00 00 00
	00		 jmp	 DWORD PTR __imp_??1ioCylinder@@QAE@XZ
__unwindfunclet$?CheckCollisionDonut@ioLobeliaWeapon@@IAE_NPAVioPlayEntity@@@Z$1:
  0000c	8d 8d 38 ff ff
	ff		 lea	 ecx, DWORD PTR _kBuffBox$[ebp]
  00012	ff 25 00 00 00
	00		 jmp	 DWORD PTR __imp_??1ioOrientBox@@QAE@XZ
__ehhandler$?CheckCollisionDonut@ioLobeliaWeapon@@IAE_NPAVioPlayEntity@@@Z:
  00018	8b 54 24 08	 mov	 edx, DWORD PTR [esp+8]
  0001c	8d 42 0c	 lea	 eax, DWORD PTR [edx+12]
  0001f	8b 8a 24 ff ff
	ff		 mov	 ecx, DWORD PTR [edx-220]
  00025	33 c8		 xor	 ecx, eax
  00027	e8 00 00 00 00	 call	 @__security_check_cookie@4
  0002c	8b 4a fc	 mov	 ecx, DWORD PTR [edx-4]
  0002f	33 c8		 xor	 ecx, eax
  00031	e8 00 00 00 00	 call	 @__security_check_cookie@4
  00036	b8 00 00 00 00	 mov	 eax, OFFSET __ehfuncinfo$?CheckCollisionDonut@ioLobeliaWeapon@@IAE_NPAVioPlayEntity@@@Z
  0003b	e9 00 00 00 00	 jmp	 ___CxxFrameHandler3
text$x	ENDS
?CheckCollisionDonut@ioLobeliaWeapon@@IAE_NPAVioPlayEntity@@@Z ENDP ; ioLobeliaWeapon::CheckCollisionDonut
PUBLIC	?_Grow_to@?$vector@UBuffInfoStruct@@V?$allocator@UBuffInfoStruct@@@std@@@std@@IBEII@Z ; std::vector<BuffInfoStruct,std::allocator<BuffInfoStruct> >::_Grow_to
; Function compile flags: /Ogsp
; File c:\program files (x86)\microsoft visual studio 10.0\vc\include\vector
;	COMDAT ?_Grow_to@?$vector@UBuffInfoStruct@@V?$allocator@UBuffInfoStruct@@@std@@@std@@IBEII@Z
_TEXT	SEGMENT
__Count$ = 8						; size = 4
?_Grow_to@?$vector@UBuffInfoStruct@@V?$allocator@UBuffInfoStruct@@@std@@@std@@IBEII@Z PROC ; std::vector<BuffInfoStruct,std::allocator<BuffInfoStruct> >::_Grow_to, COMDAT
; _this$ = ecx

; 1274 : 		{	// grow by 50% or at least to _Count

  00000	55		 push	 ebp
  00001	8b ec		 mov	 ebp, esp

; 1275 : 		size_type _Capacity = capacity();

  00003	8b 41 08	 mov	 eax, DWORD PTR [ecx+8]
  00006	2b 01		 sub	 eax, DWORD PTR [ecx]
  00008	6a 14		 push	 20			; 00000014H
  0000a	99		 cdq
  0000b	59		 pop	 ecx
  0000c	f7 f9		 idiv	 ecx

; 1276 : 
; 1277 : 		_Capacity = max_size() - _Capacity / 2 < _Capacity
; 1278 : 			? 0 : _Capacity + _Capacity / 2;	// try to grow by 50%

  0000e	ba cc cc cc 0c	 mov	 edx, 214748364		; 0cccccccH
  00013	8b c8		 mov	 ecx, eax
  00015	d1 e9		 shr	 ecx, 1
  00017	2b d1		 sub	 edx, ecx
  00019	3b d0		 cmp	 edx, eax
  0001b	73 04		 jae	 SHORT $LN4@Grow_to
  0001d	33 c0		 xor	 eax, eax
  0001f	eb 02		 jmp	 SHORT $LN5@Grow_to
$LN4@Grow_to:
  00021	03 c1		 add	 eax, ecx
$LN5@Grow_to:

; 1279 : 		if (_Capacity < _Count)

  00023	3b 45 08	 cmp	 eax, DWORD PTR __Count$[ebp]

; 1280 : 			_Capacity = _Count;

  00026	0f 42 45 08	 cmovb	 eax, DWORD PTR __Count$[ebp]

; 1281 : 		return (_Capacity);
; 1282 : 		}

  0002a	5d		 pop	 ebp
  0002b	c2 04 00	 ret	 4
?_Grow_to@?$vector@UBuffInfoStruct@@V?$allocator@UBuffInfoStruct@@@std@@@std@@IBEII@Z ENDP ; std::vector<BuffInfoStruct,std::allocator<BuffInfoStruct> >::_Grow_to
_TEXT	ENDS
PUBLIC	?construct@?$allocator@UBuffInfoStruct@@@std@@QAEXPAUBuffInfoStruct@@ABU3@@Z ; std::allocator<BuffInfoStruct>::construct
; Function compile flags: /Ogsp
; File c:\program files (x86)\microsoft visual studio 10.0\vc\include\xmemory
;	COMDAT ?construct@?$allocator@UBuffInfoStruct@@@std@@QAEXPAUBuffInfoStruct@@ABU3@@Z
_TEXT	SEGMENT
__Ptr$ = 8						; size = 4
__Val$ = 12						; size = 4
?construct@?$allocator@UBuffInfoStruct@@@std@@QAEXPAUBuffInfoStruct@@ABU3@@Z PROC ; std::allocator<BuffInfoStruct>::construct, COMDAT
; _this$ = ecx

; 196  : 		{	// construct object at _Ptr with value _Val

  00000	55		 push	 ebp
  00001	8b ec		 mov	 ebp, esp

; 197  : 		_Construct(_Ptr, _Val);

  00003	ff 75 0c	 push	 DWORD PTR __Val$[ebp]
  00006	ff 75 08	 push	 DWORD PTR __Ptr$[ebp]
  00009	e8 00 00 00 00	 call	 ??$_Construct@UBuffInfoStruct@@ABU1@@std@@YAXPAUBuffInfoStruct@@ABU1@@Z ; std::_Construct<BuffInfoStruct,BuffInfoStruct const &>
  0000e	59		 pop	 ecx
  0000f	59		 pop	 ecx

; 198  : 		}

  00010	5d		 pop	 ebp
  00011	c2 08 00	 ret	 8
?construct@?$allocator@UBuffInfoStruct@@@std@@QAEXPAUBuffInfoStruct@@ABU3@@Z ENDP ; std::allocator<BuffInfoStruct>::construct
_TEXT	ENDS
PUBLIC	??$_Cons_val@V?$allocator@UBuffInfoStruct@@@std@@UBuffInfoStruct@@U3@@std@@YAXAAV?$allocator@UBuffInfoStruct@@@0@PAUBuffInfoStruct@@$$QAU2@@Z ; std::_Cons_val<std::allocator<BuffInfoStruct>,BuffInfoStruct,BuffInfoStruct>
; Function compile flags: /Ogsp
;	COMDAT ??$_Cons_val@V?$allocator@UBuffInfoStruct@@@std@@UBuffInfoStruct@@U3@@std@@YAXAAV?$allocator@UBuffInfoStruct@@@0@PAUBuffInfoStruct@@$$QAU2@@Z
_TEXT	SEGMENT
__Alval$ = 8						; size = 4
__Pdest$ = 12						; size = 4
__Src$ = 16						; size = 4
??$_Cons_val@V?$allocator@UBuffInfoStruct@@@std@@UBuffInfoStruct@@U3@@std@@YAXAAV?$allocator@UBuffInfoStruct@@@0@PAUBuffInfoStruct@@$$QAU2@@Z PROC ; std::_Cons_val<std::allocator<BuffInfoStruct>,BuffInfoStruct,BuffInfoStruct>, COMDAT

; 279  : 	{	// construct using allocator

  00000	55		 push	 ebp
  00001	8b ec		 mov	 ebp, esp

; 280  : 	_Alval.construct(_Pdest, _STD forward<_Ty2>(_Src));

  00003	ff 75 10	 push	 DWORD PTR __Src$[ebp]
  00006	8b 4d 08	 mov	 ecx, DWORD PTR __Alval$[ebp]
  00009	ff 75 0c	 push	 DWORD PTR __Pdest$[ebp]
  0000c	e8 00 00 00 00	 call	 ?construct@?$allocator@UBuffInfoStruct@@@std@@QAEXPAUBuffInfoStruct@@$$QAU3@@Z ; std::allocator<BuffInfoStruct>::construct

; 281  : 	}

  00011	5d		 pop	 ebp
  00012	c3		 ret	 0
??$_Cons_val@V?$allocator@UBuffInfoStruct@@@std@@UBuffInfoStruct@@U3@@std@@YAXAAV?$allocator@UBuffInfoStruct@@@0@PAUBuffInfoStruct@@$$QAU2@@Z ENDP ; std::_Cons_val<std::allocator<BuffInfoStruct>,BuffInfoStruct,BuffInfoStruct>
_TEXT	ENDS
PUBLIC	?GetTeam@ioPlayEntity@@QBE?AW4TeamType@@XZ	; ioPlayEntity::GetTeam
; Function compile flags: /Ogsp
; File d:\lost saga for developer\youtube\tutorial\source\src\lsclient\ioplayentity.h
;	COMDAT ?GetTeam@ioPlayEntity@@QBE?AW4TeamType@@XZ
_TEXT	SEGMENT
_value$536070 = -4					; size = 4
?GetTeam@ioPlayEntity@@QBE?AW4TeamType@@XZ PROC		; ioPlayEntity::GetTeam, COMDAT
; _this$ = ecx

; 107  : 	inline TeamType GetTeam() const { return m_TeamType; }

  00000	55		 push	 ebp
  00001	8b ec		 mov	 ebp, esp
  00003	51		 push	 ecx
  00004	8d 45 fc	 lea	 eax, DWORD PTR _value$536070[ebp]
  00007	50		 push	 eax
  00008	81 c1 90 00 00
	00		 add	 ecx, 144		; 00000090H
  0000e	e8 00 00 00 00	 call	 ?DecryptValueToPool@?$CEncrypt@W4TeamType@@@@QAEXPAW4TeamType@@@Z ; CEncrypt<enum TeamType>::DecryptValueToPool
  00013	8b 45 fc	 mov	 eax, DWORD PTR _value$536070[ebp]
  00016	c9		 leave
  00017	c3		 ret	 0
?GetTeam@ioPlayEntity@@QBE?AW4TeamType@@XZ ENDP		; ioPlayEntity::GetTeam
_TEXT	ENDS
PUBLIC	?GetTeam@ioWeapon@@QBE?AW4TeamType@@XZ		; ioWeapon::GetTeam
; Function compile flags: /Ogsp
; File d:\lost saga for developer\youtube\tutorial\source\src\lsclient\ioweapon.h
;	COMDAT ?GetTeam@ioWeapon@@QBE?AW4TeamType@@XZ
_TEXT	SEGMENT
_value$536077 = -4					; size = 4
?GetTeam@ioWeapon@@QBE?AW4TeamType@@XZ PROC		; ioWeapon::GetTeam, COMDAT
; _this$ = ecx

; 534  : 	inline TeamType GetTeam() const { return m_TeamType; }

  00000	55		 push	 ebp
  00001	8b ec		 mov	 ebp, esp
  00003	51		 push	 ecx
  00004	8d 45 fc	 lea	 eax, DWORD PTR _value$536077[ebp]
  00007	50		 push	 eax
  00008	83 c1 30	 add	 ecx, 48			; 00000030H
  0000b	e8 00 00 00 00	 call	 ?DecryptValueToPool@?$CEncrypt@W4TeamType@@@@QAEXPAW4TeamType@@@Z ; CEncrypt<enum TeamType>::DecryptValueToPool
  00010	8b 45 fc	 mov	 eax, DWORD PTR _value$536077[ebp]
  00013	c9		 leave
  00014	c3		 ret	 0
?GetTeam@ioWeapon@@QBE?AW4TeamType@@XZ ENDP		; ioWeapon::GetTeam
_TEXT	ENDS
PUBLIC	??0?$vector@UBuffInfoStruct@@V?$allocator@UBuffInfoStruct@@@std@@@std@@QAE@XZ ; std::vector<BuffInfoStruct,std::allocator<BuffInfoStruct> >::vector<BuffInfoStruct,std::allocator<BuffInfoStruct> >
; Function compile flags: /Ogsp
; File c:\program files (x86)\microsoft visual studio 10.0\vc\include\vector
;	COMDAT ??0?$vector@UBuffInfoStruct@@V?$allocator@UBuffInfoStruct@@@std@@@std@@QAE@XZ
_TEXT	SEGMENT
??0?$vector@UBuffInfoStruct@@V?$allocator@UBuffInfoStruct@@@std@@@std@@QAE@XZ PROC ; std::vector<BuffInfoStruct,std::allocator<BuffInfoStruct> >::vector<BuffInfoStruct,std::allocator<BuffInfoStruct> >, COMDAT
; _this$ = ecx

; 507  : 		{	// construct empty vector

  00000	8b c1		 mov	 eax, ecx
  00002	33 c9		 xor	 ecx, ecx
  00004	89 08		 mov	 DWORD PTR [eax], ecx
  00006	89 48 04	 mov	 DWORD PTR [eax+4], ecx
  00009	89 48 08	 mov	 DWORD PTR [eax+8], ecx

; 508  : 		}

  0000c	c3		 ret	 0
??0?$vector@UBuffInfoStruct@@V?$allocator@UBuffInfoStruct@@@std@@@std@@QAE@XZ ENDP ; std::vector<BuffInfoStruct,std::allocator<BuffInfoStruct> >::vector<BuffInfoStruct,std::allocator<BuffInfoStruct> >
_TEXT	ENDS
PUBLIC	?destroy@?$allocator@UBuffInfoStruct@@@std@@QAEXPAUBuffInfoStruct@@@Z ; std::allocator<BuffInfoStruct>::destroy
; Function compile flags: /Ogsp
; File c:\program files (x86)\microsoft visual studio 10.0\vc\include\xmemory
;	COMDAT ?destroy@?$allocator@UBuffInfoStruct@@@std@@QAEXPAUBuffInfoStruct@@@Z
_TEXT	SEGMENT
__Ptr$ = 8						; size = 4
?destroy@?$allocator@UBuffInfoStruct@@@std@@QAEXPAUBuffInfoStruct@@@Z PROC ; std::allocator<BuffInfoStruct>::destroy, COMDAT
; _this$ = ecx

; 212  : 		{	// destroy object at _Ptr

  00000	55		 push	 ebp
  00001	8b ec		 mov	 ebp, esp

; 213  : 		_Destroy(_Ptr);

  00003	8b 4d 08	 mov	 ecx, DWORD PTR __Ptr$[ebp]
  00006	ff 15 00 00 00
	00		 call	 DWORD PTR __imp_??1ioHashString@@QAE@XZ

; 214  : 		}

  0000c	5d		 pop	 ebp
  0000d	c2 04 00	 ret	 4
?destroy@?$allocator@UBuffInfoStruct@@@std@@QAEXPAUBuffInfoStruct@@@Z ENDP ; std::allocator<BuffInfoStruct>::destroy
_TEXT	ENDS
PUBLIC	??$_Cons_val@V?$allocator@UBuffInfoStruct@@@std@@UBuffInfoStruct@@AAU3@@std@@YAXAAV?$allocator@UBuffInfoStruct@@@0@PAUBuffInfoStruct@@AAU2@@Z ; std::_Cons_val<std::allocator<BuffInfoStruct>,BuffInfoStruct,BuffInfoStruct &>
; Function compile flags: /Ogsp
;	COMDAT ??$_Cons_val@V?$allocator@UBuffInfoStruct@@@std@@UBuffInfoStruct@@AAU3@@std@@YAXAAV?$allocator@UBuffInfoStruct@@@0@PAUBuffInfoStruct@@AAU2@@Z
_TEXT	SEGMENT
__Alval$ = 8						; size = 4
__Pdest$ = 12						; size = 4
__Src$ = 16						; size = 4
??$_Cons_val@V?$allocator@UBuffInfoStruct@@@std@@UBuffInfoStruct@@AAU3@@std@@YAXAAV?$allocator@UBuffInfoStruct@@@0@PAUBuffInfoStruct@@AAU2@@Z PROC ; std::_Cons_val<std::allocator<BuffInfoStruct>,BuffInfoStruct,BuffInfoStruct &>, COMDAT

; 279  : 	{	// construct using allocator

  00000	55		 push	 ebp
  00001	8b ec		 mov	 ebp, esp

; 280  : 	_Alval.construct(_Pdest, _STD forward<_Ty2>(_Src));

  00003	ff 75 10	 push	 DWORD PTR __Src$[ebp]
  00006	8b 4d 08	 mov	 ecx, DWORD PTR __Alval$[ebp]
  00009	ff 75 0c	 push	 DWORD PTR __Pdest$[ebp]
  0000c	e8 00 00 00 00	 call	 ??$construct@AAUBuffInfoStruct@@@?$allocator@UBuffInfoStruct@@@std@@QAEXPAUBuffInfoStruct@@AAU2@@Z ; std::allocator<BuffInfoStruct>::construct<BuffInfoStruct &>

; 281  : 	}

  00011	5d		 pop	 ebp
  00012	c3		 ret	 0
??$_Cons_val@V?$allocator@UBuffInfoStruct@@@std@@UBuffInfoStruct@@AAU3@@std@@YAXAAV?$allocator@UBuffInfoStruct@@@0@PAUBuffInfoStruct@@AAU2@@Z ENDP ; std::_Cons_val<std::allocator<BuffInfoStruct>,BuffInfoStruct,BuffInfoStruct &>
_TEXT	ENDS
PUBLIC	_pEntity$GSCopy$
PUBLIC	?IsCollision@ioLobeliaWeapon@@UAE_NPAVioPlayEntity@@_N@Z ; ioLobeliaWeapon::IsCollision
EXTRN	?IsFloating@ioBaseChar@@QAE_NXZ:PROC		; ioBaseChar::IsFloating
EXTRN	?IsApplyDownState@ioBaseChar@@QAE_N_N@Z:PROC	; ioBaseChar::IsApplyDownState
;	COMDAT xdata$x
; File d:\lost saga for developer\youtube\tutorial\source\src\lsclient\iobasechar.h
xdata$x	SEGMENT
__ehfuncinfo$?IsCollision@ioLobeliaWeapon@@UAE_NPAVioPlayEntity@@_N@Z DD 019930522H
	DD	05H
	DD	FLAT:__unwindtable$?IsCollision@ioLobeliaWeapon@@UAE_NPAVioPlayEntity@@_N@Z
	DD	2 DUP(00H)
	DD	2 DUP(00H)
	DD	00H
	DD	01H
__unwindtable$?IsCollision@ioLobeliaWeapon@@UAE_NPAVioPlayEntity@@_N@Z DD 0ffffffffH
	DD	FLAT:__unwindfunclet$?IsCollision@ioLobeliaWeapon@@UAE_NPAVioPlayEntity@@_N@Z$0
	DD	00H
	DD	FLAT:__unwindfunclet$?IsCollision@ioLobeliaWeapon@@UAE_NPAVioPlayEntity@@_N@Z$1
	DD	0ffffffffH
	DD	FLAT:__unwindfunclet$?IsCollision@ioLobeliaWeapon@@UAE_NPAVioPlayEntity@@_N@Z$2
	DD	0ffffffffH
	DD	FLAT:__unwindfunclet$?IsCollision@ioLobeliaWeapon@@UAE_NPAVioPlayEntity@@_N@Z$3
	DD	03H
	DD	FLAT:__unwindfunclet$?IsCollision@ioLobeliaWeapon@@UAE_NPAVioPlayEntity@@_N@Z$4
; Function compile flags: /Ogsp
; File d:\lost saga for developer\youtube\tutorial\source\src\lsclient\iolobeliaweapon.cpp
xdata$x	ENDS
;	COMDAT ?IsCollision@ioLobeliaWeapon@@UAE_NPAVioPlayEntity@@_N@Z
_TEXT	SEGMENT
_pEntity$GSCopy$ = -416					; size = 4
tv1848 = -412						; size = 8
tv1846 = -412						; size = 8
tv2118 = -408						; size = 4
tv2114 = -408						; size = 4
tv2083 = -408						; size = 4
tv2079 = -408						; size = 4
tv2062 = -408						; size = 4
tv2058 = -408						; size = 4
tv1915 = -408						; size = 4
tv1911 = -408						; size = 4
$T536351 = -404						; size = 4
_value$536442 = -404					; size = 4
$T536420 = -404						; size = 4
$T536419 = -404						; size = 4
_value$536260 = -404					; size = 4
_value$536239 = -404					; size = 4
_value$536226 = -404					; size = 4
_value$536236 = -404					; size = 4
_fHalfCosine$536288 = -404				; size = 4
_fTargetDist$536284 = -404				; size = 4
_fTargetDist$536646 = -400				; size = 4
_value$536452 = -400					; size = 4
$T536339 = -400						; size = 4
_value$536429 = -400					; size = 4
_value$536257 = -400					; size = 4
_value$536229 = -400					; size = 4
_fZoneRange$536273 = -400				; size = 4
$T536215 = -400						; size = 4
$T536214 = -400						; size = 4
tv2212 = -396						; size = 4
tv2208 = -396						; size = 4
tv1907 = -396						; size = 4
tv1903 = -396						; size = 4
tv1901 = -396						; size = 4
tv1895 = -396						; size = 4
tv1891 = -396						; size = 4
_value$536620 = -396					; size = 4
_value$536614 = -396					; size = 4
_value$536695 = -396					; size = 4
_value$536692 = -396					; size = 4
_value$536689 = -396					; size = 4
_value$536686 = -396					; size = 4
_value$536679 = -396					; size = 4
_value$536676 = -396					; size = 4
_value$536673 = -396					; size = 4
$T536657 = -396						; size = 4
$T536656 = -396						; size = 4
_pOwnerChar$536475 = -396				; size = 4
tv2204 = -392						; size = 4
tv2200 = -392						; size = 4
tv2198 = -392						; size = 4
tv2192 = -392						; size = 4
tv2188 = -392						; size = 4
tv2147 = -392						; size = 4
tv2143 = -392						; size = 4
tv2139 = -392						; size = 4
tv2110 = -392						; size = 4
tv2075 = -392						; size = 4
tv2072 = -392						; size = 4
tv2054 = -392						; size = 4
tv2051 = -392						; size = 4
_value$536706 = -392					; size = 4
_value$536617 = -392					; size = 4
_value$536623 = -392					; size = 4
_fHalfCosine$536651 = -392				; size = 4
_value$536494 = -392					; size = 4
_value$536486 = -392					; size = 4
_value$536490 = -392					; size = 4
_value$536469 = -392					; size = 4
$T536367 = -392						; size = 4
_value$536472 = -392					; size = 4
$T536359 = -392						; size = 4
_value$536446 = -392					; size = 4
$T536417 = -392						; size = 4
$T536416 = -392						; size = 4
$T536415 = -392						; size = 4
_value$536254 = -392					; size = 4
_bCollision$ = -385					; size = 1
_kBuffBox$536642 = -384					; size = 68
_kCylinder$536639 = -316				; size = 32
_kCylinder$536277 = -284				; size = 32
_kBuffBox$536496 = -252					; size = 68
_kBuffBox$536280 = -252					; size = 68
_vCollisionPoint$536643 = -184				; size = 12
_vCollisionPoint$536281 = -172				; size = 12
_vMax$536279 = -160					; size = 12
_vMin$536278 = -148					; size = 12
_vMin$536640 = -136					; size = 12
_vTop$536637 = -124					; size = 12
_vBottom$536638 = -112					; size = 12
_vMax$536641 = -100					; size = 12
_vTop$536275 = -88					; size = 12
_vCenter$536636 = -76					; size = 12
_vDiff1$536645 = -64					; size = 12
_vMin$536489 = -52					; size = 12
_vDiff1$536283 = -52					; size = 12
_vMax$536491 = -40					; size = 12
_vCenter$536274 = -40					; size = 12
_vCenter$536479 = -28					; size = 12
_vBottom$536276 = -28					; size = 12
__$EHRec$ = -12						; size = 12
_pEntity$ = 8						; size = 4
_bMapCollision$ = 12					; size = 1
?IsCollision@ioLobeliaWeapon@@UAE_NPAVioPlayEntity@@_N@Z PROC ; ioLobeliaWeapon::IsCollision, COMDAT
; _this$ = ecx

; 496  : {

  00000	68 94 01 00 00	 push	 404			; 00000194H
  00005	b8 00 00 00 00	 mov	 eax, __ehhandler$?IsCollision@ioLobeliaWeapon@@UAE_NPAVioPlayEntity@@_N@Z
  0000a	e8 00 00 00 00	 call	 __EH_prolog3_GS
  0000f	8b d9		 mov	 ebx, ecx

; 497  : 	if( m_State != TS_EXPLOSION ) 

  00011	83 bb 94 08 00
	00 04		 cmp	 DWORD PTR [ebx+2196], 4
  00018	8b 4d 08	 mov	 ecx, DWORD PTR _pEntity$[ebp]

; 523  : 
; 524  : 		//   
; 525  : 		if( m_TargetWoundType == TWT_AIR_WOUND_EXCEPT ) //   

  0001b	89 8d 60 fe ff
	ff		 mov	 DWORD PTR _pEntity$GSCopy$[ebp], ecx
  00021	74 07		 je	 SHORT $LN29@IsCollisio
$LN237@IsCollisio:

; 498  : 		return false;

  00023	32 c0		 xor	 al, al
  00025	e9 40 0f 00 00	 jmp	 $LN30@IsCollisio
$LN29@IsCollisio:

; 499  : 
; 500  : 	bool bCollision = false;
; 501  : 
; 502  : 	if( m_TargetColType == TCT_SPHERE )

  0002a	8b 83 60 09 00
	00		 mov	 eax, DWORD PTR [ebx+2400]
  00030	c6 85 7f fe ff
	ff 00		 mov	 BYTE PTR _bCollision$[ebp], 0
  00037	83 f8 01	 cmp	 eax, 1
  0003a	75 13		 jne	 SHORT $LN28@IsCollisio

; 503  : 	{
; 504  : 		bCollision = CheckCollisionSphere( pEntity );

  0003c	51		 push	 ecx
  0003d	8b cb		 mov	 ecx, ebx
  0003f	e8 00 00 00 00	 call	 ?CheckCollisionSphere@ioLobeliaWeapon@@IAE_NPAVioPlayEntity@@@Z ; ioLobeliaWeapon::CheckCollisionSphere
  00044	88 85 7f fe ff
	ff		 mov	 BYTE PTR _bCollision$[ebp], al
  0004a	e9 be 0e 00 00	 jmp	 $LN148@IsCollisio
$LN28@IsCollisio:

; 505  : 	}
; 506  : 	else if( m_TargetColType == TCT_CYLINDER )

  0004f	83 f8 02	 cmp	 eax, 2
  00052	0f 85 84 04 00
	00		 jne	 $LN26@IsCollisio

; 507  : 	{
; 508  : 		bCollision = CheckCollisionCylinder( pEntity );

  00058	0f 57 c0	 xorps	 xmm0, xmm0
  0005b	8d 85 70 fe ff
	ff		 lea	 eax, DWORD PTR $T536214[ebp]
  00061	8d 8b 58 0a 00
	00		 lea	 ecx, DWORD PTR [ebx+2648]
  00067	50		 push	 eax
  00068	f3 0f 11 85 70
	fe ff ff	 movss	 DWORD PTR $T536214[ebp], xmm0
  00070	e8 00 00 00 00	 call	 ??8?$CEncrypt@M@@QAE_NABM@Z ; CEncrypt<float>::operator==
  00075	84 c0		 test	 al, al
  00077	74 25		 je	 SHORT $LN37@IsCollisio
  00079	0f 57 c0	 xorps	 xmm0, xmm0
  0007c	8d 85 70 fe ff
	ff		 lea	 eax, DWORD PTR $T536215[ebp]
  00082	50		 push	 eax
  00083	8d 8b 88 0a 00
	00		 lea	 ecx, DWORD PTR [ebx+2696]
  00089	f3 0f 11 85 70
	fe ff ff	 movss	 DWORD PTR $T536215[ebp], xmm0
  00091	e8 00 00 00 00	 call	 ??8?$CEncrypt@M@@QAE_NABM@Z ; CEncrypt<float>::operator==
  00096	84 c0		 test	 al, al
  00098	0f 85 68 0e 00
	00		 jne	 $LN231@IsCollisio
$LN37@IsCollisio:
  0009e	8d 85 6c fe ff
	ff		 lea	 eax, DWORD PTR _value$536226[ebp]
  000a4	50		 push	 eax
  000a5	8d 8b f0 00 00
	00		 lea	 ecx, DWORD PTR [ebx+240]
  000ab	e8 00 00 00 00	 call	 ?DecryptValueToPool@?$CEncrypt@M@@QAEXPAM@Z ; CEncrypt<float>::DecryptValueToPool
  000b0	8d 85 70 fe ff
	ff		 lea	 eax, DWORD PTR _value$536229[ebp]
  000b6	50		 push	 eax
  000b7	8d 8b 68 09 00
	00		 lea	 ecx, DWORD PTR [ebx+2408]
  000bd	e8 00 00 00 00	 call	 ?DecryptValueToPool@?$CEncrypt@M@@QAEXPAM@Z ; CEncrypt<float>::DecryptValueToPool
  000c2	f3 0f 10 85 70
	fe ff ff	 movss	 xmm0, DWORD PTR _value$536229[ebp]
  000ca	f3 0f 10 8d 6c
	fe ff ff	 movss	 xmm1, DWORD PTR _value$536226[ebp]
  000d2	0f 5a c0	 cvtps2pd xmm0, xmm0
  000d5	0f 5a c9	 cvtps2pd xmm1, xmm1
  000d8	f2 0f 59 c1	 mulsd	 xmm0, xmm1
  000dc	66 0f 5a c0	 cvtpd2ps xmm0, xmm0
  000e0	6a 00		 push	 0
  000e2	8b cb		 mov	 ecx, ebx
  000e4	f3 0f 11 85 70
	fe ff ff	 movss	 DWORD PTR _fZoneRange$536273[ebp], xmm0
  000ec	e8 00 00 00 00	 call	 ?GetWorldAttackBox@ioWeapon@@QBEABVioOrientBox@@_N@Z ; ioWeapon::GetWorldAttackBox
  000f1	8b c8		 mov	 ecx, eax
  000f3	ff 15 00 00 00
	00		 call	 DWORD PTR __imp_?GetCenter@ioOrientBox@@QBEABUD3DXVECTOR3@@XZ
  000f9	8b f0		 mov	 esi, eax
  000fb	8d 7d d8	 lea	 edi, DWORD PTR _vCenter$536274[ebp]
  000fe	a5		 movsd
  000ff	a5		 movsd
  00100	a5		 movsd
  00101	8d 75 d8	 lea	 esi, DWORD PTR _vCenter$536274[ebp]
  00104	8d 7d e4	 lea	 edi, DWORD PTR _vBottom$536276[ebp]
  00107	a5		 movsd
  00108	a5		 movsd
  00109	a5		 movsd
  0010a	8d 75 d8	 lea	 esi, DWORD PTR _vCenter$536274[ebp]
  0010d	8d 7d a8	 lea	 edi, DWORD PTR _vTop$536275[ebp]
  00110	a5		 movsd
  00111	a5		 movsd
  00112	8d 85 6c fe ff
	ff		 lea	 eax, DWORD PTR _value$536236[ebp]
  00118	50		 push	 eax
  00119	8d 8b 58 0a 00
	00		 lea	 ecx, DWORD PTR [ebx+2648]
  0011f	a5		 movsd
  00120	e8 00 00 00 00	 call	 ?DecryptValueToPool@?$CEncrypt@M@@QAEXPAM@Z ; CEncrypt<float>::DecryptValueToPool
  00125	f3 0f 10 4d ac	 movss	 xmm1, DWORD PTR _vTop$536275[ebp+4]
  0012a	f3 0f 10 85 6c
	fe ff ff	 movss	 xmm0, DWORD PTR _value$536236[ebp]
  00132	0f 5a c0	 cvtps2pd xmm0, xmm0
  00135	0f 5a c9	 cvtps2pd xmm1, xmm1
  00138	8d 85 6c fe ff
	ff		 lea	 eax, DWORD PTR _value$536239[ebp]
  0013e	f2 0f 58 c1	 addsd	 xmm0, xmm1
  00142	66 0f 5a c0	 cvtpd2ps xmm0, xmm0
  00146	50		 push	 eax
  00147	8d 8b 88 0a 00
	00		 lea	 ecx, DWORD PTR [ebx+2696]
  0014d	f3 0f 11 45 ac	 movss	 DWORD PTR _vTop$536275[ebp+4], xmm0
  00152	e8 00 00 00 00	 call	 ?DecryptValueToPool@?$CEncrypt@M@@QAEXPAM@Z ; CEncrypt<float>::DecryptValueToPool
  00157	f3 0f 10 45 e8	 movss	 xmm0, DWORD PTR _vBottom$536276[ebp+4]
  0015c	f3 0f 10 8d 6c
	fe ff ff	 movss	 xmm1, DWORD PTR _value$536239[ebp]
  00164	0f 5a c0	 cvtps2pd xmm0, xmm0
  00167	0f 5a c9	 cvtps2pd xmm1, xmm1
  0016a	f2 0f 5c c1	 subsd	 xmm0, xmm1
  0016e	51		 push	 ecx
  0016f	66 0f 5a c0	 cvtpd2ps xmm0, xmm0
  00173	f3 0f 11 45 e8	 movss	 DWORD PTR _vBottom$536276[ebp+4], xmm0
  00178	f3 0f 10 85 70
	fe ff ff	 movss	 xmm0, DWORD PTR _fZoneRange$536273[ebp]
  00180	f3 0f 11 04 24	 movss	 DWORD PTR [esp], xmm0
  00185	8d 45 e4	 lea	 eax, DWORD PTR _vBottom$536276[ebp]
  00188	50		 push	 eax
  00189	8d 45 a8	 lea	 eax, DWORD PTR _vTop$536275[ebp]
  0018c	50		 push	 eax
  0018d	8d 8d e4 fe ff
	ff		 lea	 ecx, DWORD PTR _kCylinder$536277[ebp]
  00193	ff 15 00 00 00
	00		 call	 DWORD PTR __imp_??0ioCylinder@@QAE@ABUD3DXVECTOR3@@0M@Z
  00199	83 65 fc 00	 and	 DWORD PTR __$EHRec$[ebp+8], 0
  0019d	8d 8d e4 fe ff
	ff		 lea	 ecx, DWORD PTR _kCylinder$536277[ebp]
  001a3	ff 15 00 00 00
	00		 call	 DWORD PTR __imp_?GetCenter@ioCylinder@@QBEABUD3DXVECTOR3@@XZ
  001a9	8b f0		 mov	 esi, eax
  001ab	8d 7d d8	 lea	 edi, DWORD PTR _vCenter$536274[ebp]
  001ae	a5		 movsd
  001af	a5		 movsd
  001b0	a5		 movsd
  001b1	8d 75 a8	 lea	 esi, DWORD PTR _vTop$536275[ebp]
  001b4	8d bd 60 ff ff
	ff		 lea	 edi, DWORD PTR _vMax$536279[ebp]
  001ba	a5		 movsd
  001bb	a5		 movsd
  001bc	a5		 movsd
  001bd	8d 75 e4	 lea	 esi, DWORD PTR _vBottom$536276[ebp]
  001c0	f3 0f 10 45 a8	 movss	 xmm0, DWORD PTR _vTop$536275[ebp]
  001c5	0f 5a c8	 cvtps2pd xmm1, xmm0
  001c8	f3 0f 10 85 70
	fe ff ff	 movss	 xmm0, DWORD PTR _fZoneRange$536273[ebp]
  001d0	0f 5a d0	 cvtps2pd xmm2, xmm0
  001d3	f2 0f 58 ca	 addsd	 xmm1, xmm2
  001d7	66 0f 5a c9	 cvtpd2ps xmm1, xmm1
  001db	f3 0f 11 8d 60
	ff ff ff	 movss	 DWORD PTR _vMax$536279[ebp], xmm1
  001e3	f3 0f 10 8d 68
	ff ff ff	 movss	 xmm1, DWORD PTR _vMax$536279[ebp+8]
  001eb	0f 5a c9	 cvtps2pd xmm1, xmm1
  001ee	0f 5a d0	 cvtps2pd xmm2, xmm0
  001f1	f2 0f 5c ca	 subsd	 xmm1, xmm2
  001f5	66 0f 5a c9	 cvtpd2ps xmm1, xmm1
  001f9	8d bd 6c ff ff
	ff		 lea	 edi, DWORD PTR _vMin$536278[ebp]
  001ff	a5		 movsd
  00200	f3 0f 11 8d 68
	ff ff ff	 movss	 DWORD PTR _vMax$536279[ebp+8], xmm1
  00208	f3 0f 10 4d e4	 movss	 xmm1, DWORD PTR _vBottom$536276[ebp]
  0020d	a5		 movsd
  0020e	0f 5a c9	 cvtps2pd xmm1, xmm1
  00211	0f 57 d2	 xorps	 xmm2, xmm2
  00214	0f 5a d0	 cvtps2pd xmm2, xmm0
  00217	f2 0f 5c ca	 subsd	 xmm1, xmm2
  0021b	66 0f 5a c9	 cvtpd2ps xmm1, xmm1
  0021f	a5		 movsd
  00220	f3 0f 11 8d 6c
	ff ff ff	 movss	 DWORD PTR _vMin$536278[ebp], xmm1
  00228	f3 0f 10 8d 74
	ff ff ff	 movss	 xmm1, DWORD PTR _vMin$536278[ebp+8]
  00230	0f 5a c0	 cvtps2pd xmm0, xmm0
  00233	0f 5a c9	 cvtps2pd xmm1, xmm1
  00236	f2 0f 58 c8	 addsd	 xmm1, xmm0
  0023a	0f 57 c0	 xorps	 xmm0, xmm0
  0023d	66 0f 5a c1	 cvtpd2ps xmm0, xmm1
  00241	8d 8d 04 ff ff
	ff		 lea	 ecx, DWORD PTR _kBuffBox$536280[ebp]
  00247	f3 0f 11 85 74
	ff ff ff	 movss	 DWORD PTR _vMin$536278[ebp+8], xmm0
  0024f	ff 15 00 00 00
	00		 call	 DWORD PTR __imp_??0ioOrientBox@@QAE@XZ
  00255	8d 85 60 ff ff
	ff		 lea	 eax, DWORD PTR _vMax$536279[ebp]
  0025b	50		 push	 eax
  0025c	8d 85 6c ff ff
	ff		 lea	 eax, DWORD PTR _vMin$536278[ebp]
  00262	50		 push	 eax
  00263	8d 8d 04 ff ff
	ff		 lea	 ecx, DWORD PTR _kBuffBox$536280[ebp]
  00269	c6 45 fc 01	 mov	 BYTE PTR __$EHRec$[ebp+8], 1
  0026d	ff 15 00 00 00
	00		 call	 DWORD PTR __imp_?SetBoxByMinMax@ioOrientBox@@QAEXABUD3DXVECTOR3@@0@Z
  00273	8b 8d 60 fe ff
	ff		 mov	 ecx, DWORD PTR _pEntity$GSCopy$[ebp]
  00279	8b 01		 mov	 eax, DWORD PTR [ecx]
  0027b	8d 95 54 ff ff
	ff		 lea	 edx, DWORD PTR _vCollisionPoint$536281[ebp]
  00281	52		 push	 edx
  00282	8d 55 d8	 lea	 edx, DWORD PTR _vCenter$536274[ebp]
  00285	52		 push	 edx
  00286	8d 95 e4 fe ff
	ff		 lea	 edx, DWORD PTR _kCylinder$536277[ebp]
  0028c	52		 push	 edx
  0028d	ff 90 a0 00 00
	00		 call	 DWORD PTR [eax+160]
  00293	84 c0		 test	 al, al
  00295	75 1b		 jne	 SHORT $LN36@IsCollisio
$LN233@IsCollisio:
  00297	8d 8d 04 ff ff
	ff		 lea	 ecx, DWORD PTR _kBuffBox$536280[ebp]
  0029d	c6 45 fc 00	 mov	 BYTE PTR __$EHRec$[ebp+8], 0
  002a1	ff 15 00 00 00
	00		 call	 DWORD PTR __imp_??1ioOrientBox@@QAE@XZ
  002a7	8d 8d e4 fe ff
	ff		 lea	 ecx, DWORD PTR _kCylinder$536277[ebp]
  002ad	e9 4a 0c 00 00	 jmp	 $LN232@IsCollisio
$LN36@IsCollisio:
  002b2	f3 0f 10 85 54
	ff ff ff	 movss	 xmm0, DWORD PTR _vCollisionPoint$536281[ebp]
  002ba	f3 0f 10 4d d8	 movss	 xmm1, DWORD PTR _vCenter$536274[ebp]
  002bf	f3 0f 10 55 e0	 movss	 xmm2, DWORD PTR _vCenter$536274[ebp+8]
  002c4	0f 5a c9	 cvtps2pd xmm1, xmm1
  002c7	0f 5a c0	 cvtps2pd xmm0, xmm0
  002ca	f2 0f 5c c1	 subsd	 xmm0, xmm1
  002ce	f3 0f 10 8d 5c
	ff ff ff	 movss	 xmm1, DWORD PTR _vCollisionPoint$536281[ebp+8]
  002d6	66 0f 5a c0	 cvtpd2ps xmm0, xmm0
  002da	f3 0f 11 45 cc	 movss	 DWORD PTR _vDiff1$536283[ebp], xmm0
  002df	0f 5a c9	 cvtps2pd xmm1, xmm1
  002e2	f3 0f 5a c0	 cvtss2sd xmm0, xmm0
  002e6	0f 5a d2	 cvtps2pd xmm2, xmm2
  002e9	f2 0f 5c ca	 subsd	 xmm1, xmm2
  002ed	0f 57 d2	 xorps	 xmm2, xmm2
  002f0	f2 0f 59 c0	 mulsd	 xmm0, xmm0
  002f4	66 0f 5a c9	 cvtpd2ps xmm1, xmm1
  002f8	f2 0f 11 85 64
	fe ff ff	 movsd	 QWORD PTR tv1848[ebp], xmm0
  00300	0f 57 c0	 xorps	 xmm0, xmm0
  00303	f3 0f 11 4d d4	 movss	 DWORD PTR _vDiff1$536283[ebp+8], xmm1
  00308	f3 0f 11 55 d0	 movss	 DWORD PTR _vDiff1$536283[ebp+4], xmm2
  0030d	f2 0f 10 95 64
	fe ff ff	 movsd	 xmm2, QWORD PTR tv1848[ebp]
  00315	f3 0f 5a c9	 cvtss2sd xmm1, xmm1
  00319	f2 0f 59 c0	 mulsd	 xmm0, xmm0
  0031d	f2 0f 58 d0	 addsd	 xmm2, xmm0
  00321	f3 0f 10 85 70
	fe ff ff	 movss	 xmm0, DWORD PTR _fZoneRange$536273[ebp]
  00329	f2 0f 59 c9	 mulsd	 xmm1, xmm1
  0032d	f2 0f 58 d1	 addsd	 xmm2, xmm1
  00331	0f 57 c9	 xorps	 xmm1, xmm1
  00334	66 0f 5a ca	 cvtpd2ps xmm1, xmm2
  00338	f3 0f 11 8d 6c
	fe ff ff	 movss	 DWORD PTR _fTargetDist$536284[ebp], xmm1
  00340	0f 5a c0	 cvtps2pd xmm0, xmm0
  00343	0f 5a c9	 cvtps2pd xmm1, xmm1
  00346	f2 0f 59 c0	 mulsd	 xmm0, xmm0
  0034a	66 0f 2f c8	 comisd	 xmm1, xmm0
  0034e	0f 87 43 ff ff
	ff		 ja	 $LN233@IsCollisio
  00354	8d 85 78 fe ff
	ff		 lea	 eax, DWORD PTR _value$536254[ebp]
  0035a	50		 push	 eax
  0035b	8d 8b 98 09 00
	00		 lea	 ecx, DWORD PTR [ebx+2456]
  00361	e8 00 00 00 00	 call	 ?DecryptValueToPool@?$CEncrypt@M@@QAEXPAM@Z ; CEncrypt<float>::DecryptValueToPool
  00366	8d 85 70 fe ff
	ff		 lea	 eax, DWORD PTR _value$536257[ebp]
  0036c	50		 push	 eax
  0036d	8d 8b 98 09 00
	00		 lea	 ecx, DWORD PTR [ebx+2456]
  00373	e8 00 00 00 00	 call	 ?DecryptValueToPool@?$CEncrypt@M@@QAEXPAM@Z ; CEncrypt<float>::DecryptValueToPool
  00378	f3 0f 10 8d 70
	fe ff ff	 movss	 xmm1, DWORD PTR _value$536257[ebp]
  00380	f3 0f 10 95 78
	fe ff ff	 movss	 xmm2, DWORD PTR _value$536254[ebp]
  00388	f3 0f 10 85 6c
	fe ff ff	 movss	 xmm0, DWORD PTR _fTargetDist$536284[ebp]
  00390	0f 5a c9	 cvtps2pd xmm1, xmm1
  00393	0f 5a d2	 cvtps2pd xmm2, xmm2
  00396	f2 0f 59 ca	 mulsd	 xmm1, xmm2
  0039a	66 0f 5a c9	 cvtpd2ps xmm1, xmm1
  0039e	0f 5a c0	 cvtps2pd xmm0, xmm0
  003a1	f3 0f 5a c9	 cvtss2sd xmm1, xmm1
  003a5	66 0f 2f c8	 comisd	 xmm1, xmm0
  003a9	0f 87 e8 fe ff
	ff		 ja	 $LN233@IsCollisio
  003af	8d 85 6c fe ff
	ff		 lea	 eax, DWORD PTR _value$536260[ebp]
  003b5	50		 push	 eax
  003b6	8d 8b 28 0a 00
	00		 lea	 ecx, DWORD PTR [ebx+2600]
  003bc	e8 00 00 00 00	 call	 ?DecryptValueToPool@?$CEncrypt@M@@QAEXPAM@Z ; CEncrypt<float>::DecryptValueToPool
  003c1	b8 05 00 00 00	 mov	 eax, 5
  003c6	8b c8		 mov	 ecx, eax
  003c8	b8 0a 00 00 00	 mov	 eax, 10			; 0000000aH
  003cd	89 8d 74 fe ff
	ff		 mov	 DWORD PTR tv2212[ebp], ecx
  003d3	db 85 74 fe ff
	ff		 fild	 DWORD PTR tv2212[ebp]
  003d9	85 c9		 test	 ecx, ecx
  003db	79 06		 jns	 SHORT $LN219@IsCollisio
  003dd	d8 05 00 00 00
	00		 fadd	 DWORD PTR __real@4f800000
$LN219@IsCollisio:
  003e3	89 85 74 fe ff
	ff		 mov	 DWORD PTR tv2208[ebp], eax
  003e9	db 85 74 fe ff
	ff		 fild	 DWORD PTR tv2208[ebp]
  003ef	85 c0		 test	 eax, eax
  003f1	79 06		 jns	 SHORT $LN220@IsCollisio
  003f3	d8 05 00 00 00
	00		 fadd	 DWORD PTR __real@4f800000
$LN220@IsCollisio:
  003f9	de f9		 fdivp	 ST(1), ST(0)
  003fb	d9 9d 78 fe ff
	ff		 fstp	 DWORD PTR tv2204[ebp]
  00401	d9 85 78 fe ff
	ff		 fld	 DWORD PTR tv2204[ebp]
  00407	d9 85 6c fe ff
	ff		 fld	 DWORD PTR _value$536260[ebp]
  0040d	dc 0d 00 00 00
	00		 fmul	 QWORD PTR __real@3f91df46a2526c7a
  00413	d9 9d 78 fe ff
	ff		 fstp	 DWORD PTR tv2200[ebp]
  00419	d8 8d 78 fe ff
	ff		 fmul	 DWORD PTR tv2200[ebp]
  0041f	d9 9d 78 fe ff
	ff		 fstp	 DWORD PTR tv2198[ebp]
  00425	d9 85 78 fe ff
	ff		 fld	 DWORD PTR tv2198[ebp]
  0042b	e8 00 00 00 00	 call	 __CIcos
  00430	d9 9d 78 fe ff
	ff		 fstp	 DWORD PTR tv2192[ebp]
  00436	d9 85 78 fe ff
	ff		 fld	 DWORD PTR tv2192[ebp]
  0043c	8d 45 cc	 lea	 eax, DWORD PTR _vDiff1$536283[ebp]
  0043f	50		 push	 eax
  00440	d9 9d 6c fe ff
	ff		 fstp	 DWORD PTR _fHalfCosine$536288[ebp]
  00446	50		 push	 eax
  00447	e8 00 00 00 00	 call	 _D3DXVec3Normalize@8
  0044c	d9 83 c8 08 00
	00		 fld	 DWORD PTR [ebx+2248]
  00452	d8 4d d0	 fmul	 DWORD PTR _vDiff1$536283[ebp+4]
  00455	d9 83 c4 08 00
	00		 fld	 DWORD PTR [ebx+2244]
  0045b	d8 4d cc	 fmul	 DWORD PTR _vDiff1$536283[ebp]
  0045e	de c1		 faddp	 ST(1), ST(0)
  00460	d9 83 cc 08 00
	00		 fld	 DWORD PTR [ebx+2252]
  00466	d8 4d d4	 fmul	 DWORD PTR _vDiff1$536283[ebp+8]
  00469	de c1		 faddp	 ST(1), ST(0)
  0046b	d9 9d 78 fe ff
	ff		 fstp	 DWORD PTR tv2188[ebp]
  00471	d9 85 78 fe ff
	ff		 fld	 DWORD PTR tv2188[ebp]
  00477	d9 85 6c fe ff
	ff		 fld	 DWORD PTR _fHalfCosine$536288[ebp]
  0047d	df f1		 fcomip	 ST(1)
  0047f	dd d8		 fstp	 ST(0)
  00481	0f 87 10 fe ff
	ff		 ja	 $LN233@IsCollisio
  00487	f3 0f 10 85 58
	ff ff ff	 movss	 xmm0, DWORD PTR _vCollisionPoint$536281[ebp+4]
  0048f	f3 0f 10 4d e8	 movss	 xmm1, DWORD PTR _vBottom$536276[ebp+4]
  00494	0f 5a c0	 cvtps2pd xmm0, xmm0
  00497	0f 5a c9	 cvtps2pd xmm1, xmm1
  0049a	66 0f 2f c1	 comisd	 xmm0, xmm1
  0049e	0f 82 f3 fd ff
	ff		 jb	 $LN233@IsCollisio
  004a4	f3 0f 10 85 58
	ff ff ff	 movss	 xmm0, DWORD PTR _vCollisionPoint$536281[ebp+4]
  004ac	f3 0f 10 4d ac	 movss	 xmm1, DWORD PTR _vTop$536275[ebp+4]
  004b1	0f 5a c0	 cvtps2pd xmm0, xmm0
  004b4	0f 5a c9	 cvtps2pd xmm1, xmm1
  004b7	66 0f 2f c8	 comisd	 xmm1, xmm0
  004bb	0f 82 d6 fd ff
	ff		 jb	 $LN233@IsCollisio
  004c1	8d 8d 04 ff ff
	ff		 lea	 ecx, DWORD PTR _kBuffBox$536280[ebp]
  004c7	c6 45 fc 00	 mov	 BYTE PTR __$EHRec$[ebp+8], 0
  004cb	ff 15 00 00 00
	00		 call	 DWORD PTR __imp_??1ioOrientBox@@QAE@XZ
  004d1	8d 8d e4 fe ff
	ff		 lea	 ecx, DWORD PTR _kCylinder$536277[ebp]
  004d7	e9 f7 09 00 00	 jmp	 $LN240@IsCollisio
$LN26@IsCollisio:

; 509  : 	}
; 510  : 	else if( m_TargetColType == TCT_BOX )

  004dc	83 f8 03	 cmp	 eax, 3
  004df	0f 85 23 05 00
	00		 jne	 $LN24@IsCollisio

; 511  : 	{
; 512  : 		bCollision = CheckCollisionBox( pEntity );

  004e5	0f 57 c0	 xorps	 xmm0, xmm0
  004e8	8d 85 78 fe ff
	ff		 lea	 eax, DWORD PTR $T536415[ebp]
  004ee	8d 8b 58 0a 00
	00		 lea	 ecx, DWORD PTR [ebx+2648]
  004f4	50		 push	 eax
  004f5	f3 0f 11 85 78
	fe ff ff	 movss	 DWORD PTR $T536415[ebp], xmm0
  004fd	e8 00 00 00 00	 call	 ??8?$CEncrypt@M@@QAE_NABM@Z ; CEncrypt<float>::operator==
  00502	84 c0		 test	 al, al
  00504	74 25		 je	 SHORT $LN86@IsCollisio
  00506	0f 57 c0	 xorps	 xmm0, xmm0
  00509	8d 85 78 fe ff
	ff		 lea	 eax, DWORD PTR $T536416[ebp]
  0050f	50		 push	 eax
  00510	8d 8b 88 0a 00
	00		 lea	 ecx, DWORD PTR [ebx+2696]
  00516	f3 0f 11 85 78
	fe ff ff	 movss	 DWORD PTR $T536416[ebp], xmm0
  0051e	e8 00 00 00 00	 call	 ??8?$CEncrypt@M@@QAE_NABM@Z ; CEncrypt<float>::operator==
  00523	84 c0		 test	 al, al
  00525	0f 85 db 09 00
	00		 jne	 $LN231@IsCollisio
$LN86@IsCollisio:
  0052b	0f 57 c0	 xorps	 xmm0, xmm0
  0052e	8d 85 78 fe ff
	ff		 lea	 eax, DWORD PTR $T536417[ebp]
  00534	8d 8b b8 0a 00
	00		 lea	 ecx, DWORD PTR [ebx+2744]
  0053a	50		 push	 eax
  0053b	f3 0f 11 85 78
	fe ff ff	 movss	 DWORD PTR $T536417[ebp], xmm0
  00543	e8 00 00 00 00	 call	 ??8?$CEncrypt@M@@QAE_NABM@Z ; CEncrypt<float>::operator==
  00548	84 c0		 test	 al, al
  0054a	0f 85 b6 09 00
	00		 jne	 $LN231@IsCollisio
  00550	8b cb		 mov	 ecx, ebx
  00552	e8 00 00 00 00	 call	 ?GetOwner@ioWeapon@@QBEPAVioBaseChar@@XZ ; ioWeapon::GetOwner
  00557	89 85 74 fe ff
	ff		 mov	 DWORD PTR _pOwnerChar$536475[ebp], eax
  0055d	85 c0		 test	 eax, eax
  0055f	0f 84 a1 09 00
	00		 je	 $LN231@IsCollisio
  00565	6a 00		 push	 0
  00567	8b cb		 mov	 ecx, ebx
  00569	e8 00 00 00 00	 call	 ?GetWorldAttackBox@ioWeapon@@QBEABVioOrientBox@@_N@Z ; ioWeapon::GetWorldAttackBox
  0056e	8b c8		 mov	 ecx, eax
  00570	ff 15 00 00 00
	00		 call	 DWORD PTR __imp_?GetCenter@ioOrientBox@@QBEABUD3DXVECTOR3@@XZ
  00576	8b f0		 mov	 esi, eax
  00578	8d 7d e4	 lea	 edi, DWORD PTR _vCenter$536479[ebp]
  0057b	a5		 movsd
  0057c	a5		 movsd
  0057d	a5		 movsd
  0057e	b8 05 00 00 00	 mov	 eax, 5
  00583	8b f0		 mov	 esi, eax
  00585	b8 0a 00 00 00	 mov	 eax, 10			; 0000000aH
  0058a	8b f8		 mov	 edi, eax
  0058c	8d 85 70 fe ff
	ff		 lea	 eax, DWORD PTR _value$536429[ebp]
  00592	8d 8b 68 09 00
	00		 lea	 ecx, DWORD PTR [ebx+2408]
  00598	50		 push	 eax
  00599	e8 00 00 00 00	 call	 ?DecryptValueToPool@?$CEncrypt@M@@QAEXPAM@Z ; CEncrypt<float>::DecryptValueToPool
  0059e	f3 0f 10 85 70
	fe ff ff	 movss	 xmm0, DWORD PTR _value$536429[ebp]
  005a6	f3 0f 10 8b c4
	08 00 00	 movss	 xmm1, DWORD PTR [ebx+2244]
  005ae	f3 0f 10 95 70
	fe ff ff	 movss	 xmm2, DWORD PTR _value$536429[ebp]
  005b6	f3 0f 10 9d 70
	fe ff ff	 movss	 xmm3, DWORD PTR _value$536429[ebp]
  005be	0f 5a c9	 cvtps2pd xmm1, xmm1
  005c1	0f 5a c0	 cvtps2pd xmm0, xmm0
  005c4	f2 0f 59 c1	 mulsd	 xmm0, xmm1
  005c8	f3 0f 10 8b c8
	08 00 00	 movss	 xmm1, DWORD PTR [ebx+2248]
  005d0	0f 5a d2	 cvtps2pd xmm2, xmm2
  005d3	0f 5a c9	 cvtps2pd xmm1, xmm1
  005d6	f2 0f 59 ca	 mulsd	 xmm1, xmm2
  005da	f3 0f 10 93 cc
	08 00 00	 movss	 xmm2, DWORD PTR [ebx+2252]
  005e2	0f 5a d2	 cvtps2pd xmm2, xmm2
  005e5	0f 5a db	 cvtps2pd xmm3, xmm3
  005e8	f2 0f 59 d3	 mulsd	 xmm2, xmm3
  005ec	89 b5 78 fe ff
	ff		 mov	 DWORD PTR tv2147[ebp], esi
  005f2	db 85 78 fe ff
	ff		 fild	 DWORD PTR tv2147[ebp]
  005f8	f2 0f 5a c0	 cvtsd2ss xmm0, xmm0
  005fc	66 0f 5a c9	 cvtpd2ps xmm1, xmm1
  00600	66 0f 5a d2	 cvtpd2ps xmm2, xmm2
  00604	85 f6		 test	 esi, esi
  00606	79 06		 jns	 SHORT $LN221@IsCollisio
  00608	d8 05 00 00 00
	00		 fadd	 DWORD PTR __real@4f800000
$LN221@IsCollisio:
  0060e	89 bd 78 fe ff
	ff		 mov	 DWORD PTR tv2143[ebp], edi
  00614	db 85 78 fe ff
	ff		 fild	 DWORD PTR tv2143[ebp]
  0061a	85 ff		 test	 edi, edi
  0061c	79 06		 jns	 SHORT $LN222@IsCollisio
  0061e	d8 05 00 00 00
	00		 fadd	 DWORD PTR __real@4f800000
$LN222@IsCollisio:
  00624	de f9		 fdivp	 ST(1), ST(0)
  00626	f3 0f 5a c0	 cvtss2sd xmm0, xmm0
  0062a	f3 0f 5a c9	 cvtss2sd xmm1, xmm1
  0062e	f3 0f 5a d2	 cvtss2sd xmm2, xmm2
  00632	8d 85 6c fe ff
	ff		 lea	 eax, DWORD PTR _value$536442[ebp]
  00638	8d 8b 88 0a 00
	00		 lea	 ecx, DWORD PTR [ebx+2696]
  0063e	50		 push	 eax
  0063f	d9 9d 78 fe ff
	ff		 fstp	 DWORD PTR tv2139[ebp]
  00645	d9 85 78 fe ff
	ff		 fld	 DWORD PTR tv2139[ebp]
  0064b	d9 9d 70 fe ff
	ff		 fstp	 DWORD PTR $T536339[ebp]
  00651	f3 0f 10 9d 70
	fe ff ff	 movss	 xmm3, DWORD PTR $T536339[ebp]
  00659	0f 5a db	 cvtps2pd xmm3, xmm3
  0065c	f2 0f 59 c3	 mulsd	 xmm0, xmm3
  00660	f3 0f 10 9d 70
	fe ff ff	 movss	 xmm3, DWORD PTR $T536339[ebp]
  00668	f2 0f 5a c0	 cvtsd2ss xmm0, xmm0
  0066c	0f 5a db	 cvtps2pd xmm3, xmm3
  0066f	f2 0f 59 cb	 mulsd	 xmm1, xmm3
  00673	f3 0f 10 9d 70
	fe ff ff	 movss	 xmm3, DWORD PTR $T536339[ebp]
  0067b	f3 0f 5a c0	 cvtss2sd xmm0, xmm0
  0067f	0f 5a db	 cvtps2pd xmm3, xmm3
  00682	f2 0f 59 d3	 mulsd	 xmm2, xmm3
  00686	f3 0f 10 5d e4	 movss	 xmm3, DWORD PTR _vCenter$536479[ebp]
  0068b	0f 5a db	 cvtps2pd xmm3, xmm3
  0068e	f2 0f 58 c3	 addsd	 xmm0, xmm3
  00692	f2 0f 5a c0	 cvtsd2ss xmm0, xmm0
  00696	f3 0f 11 45 e4	 movss	 DWORD PTR _vCenter$536479[ebp], xmm0
  0069b	f3 0f 10 45 e8	 movss	 xmm0, DWORD PTR _vCenter$536479[ebp+4]
  006a0	0f 5a c0	 cvtps2pd xmm0, xmm0
  006a3	66 0f 5a c9	 cvtpd2ps xmm1, xmm1
  006a7	f3 0f 5a c9	 cvtss2sd xmm1, xmm1
  006ab	f2 0f 58 c1	 addsd	 xmm0, xmm1
  006af	66 0f 5a c0	 cvtpd2ps xmm0, xmm0
  006b3	f3 0f 11 45 e8	 movss	 DWORD PTR _vCenter$536479[ebp+4], xmm0
  006b8	f3 0f 10 45 ec	 movss	 xmm0, DWORD PTR _vCenter$536479[ebp+8]
  006bd	66 0f 5a d2	 cvtpd2ps xmm2, xmm2
  006c1	0f 5a c0	 cvtps2pd xmm0, xmm0
  006c4	0f 57 c9	 xorps	 xmm1, xmm1
  006c7	f3 0f 5a ca	 cvtss2sd xmm1, xmm2
  006cb	f2 0f 58 c1	 addsd	 xmm0, xmm1
  006cf	66 0f 5a c0	 cvtpd2ps xmm0, xmm0
  006d3	f3 0f 11 45 ec	 movss	 DWORD PTR _vCenter$536479[ebp+8], xmm0
  006d8	e8 00 00 00 00	 call	 ?DecryptValueToPool@?$CEncrypt@M@@QAEXPAM@Z ; CEncrypt<float>::DecryptValueToPool
  006dd	8d 85 78 fe ff
	ff		 lea	 eax, DWORD PTR _value$536446[ebp]
  006e3	50		 push	 eax
  006e4	8d 8b 58 0a 00
	00		 lea	 ecx, DWORD PTR [ebx+2648]
  006ea	e8 00 00 00 00	 call	 ?DecryptValueToPool@?$CEncrypt@M@@QAEXPAM@Z ; CEncrypt<float>::DecryptValueToPool
  006ef	d9 85 78 fe ff
	ff		 fld	 DWORD PTR _value$536446[ebp]
  006f5	d8 85 6c fe ff
	ff		 fadd	 DWORD PTR _value$536442[ebp]
  006fb	d9 9d 6c fe ff
	ff		 fstp	 DWORD PTR $T536351[ebp]
  00701	b8 05 00 00 00	 mov	 eax, 5
  00706	8b f8		 mov	 edi, eax
  00708	b8 0a 00 00 00	 mov	 eax, 10			; 0000000aH
  0070d	89 85 78 fe ff
	ff		 mov	 DWORD PTR $T536359[ebp], eax
  00713	8d 85 70 fe ff
	ff		 lea	 eax, DWORD PTR _value$536452[ebp]
  00719	50		 push	 eax
  0071a	8d 8b 58 0a 00
	00		 lea	 ecx, DWORD PTR [ebx+2648]
  00720	e8 00 00 00 00	 call	 ?DecryptValueToPool@?$CEncrypt@M@@QAEXPAM@Z ; CEncrypt<float>::DecryptValueToPool
  00725	89 bd 68 fe ff
	ff		 mov	 DWORD PTR tv2118[ebp], edi
  0072b	db 85 68 fe ff
	ff		 fild	 DWORD PTR tv2118[ebp]
  00731	85 ff		 test	 edi, edi
  00733	79 06		 jns	 SHORT $LN223@IsCollisio
  00735	d8 05 00 00 00
	00		 fadd	 DWORD PTR __real@4f800000
$LN223@IsCollisio:
  0073b	8b 85 78 fe ff
	ff		 mov	 eax, DWORD PTR $T536359[ebp]
  00741	db 85 78 fe ff
	ff		 fild	 DWORD PTR $T536359[ebp]
  00747	85 c0		 test	 eax, eax
  00749	79 06		 jns	 SHORT $LN224@IsCollisio
  0074b	d8 05 00 00 00
	00		 fadd	 DWORD PTR __real@4f800000
$LN224@IsCollisio:
  00751	de f9		 fdivp	 ST(1), ST(0)
  00753	f3 0f 10 45 e4	 movss	 xmm0, DWORD PTR _vCenter$536479[ebp]
  00758	0f 5a c8	 cvtps2pd xmm1, xmm0
  0075b	f2 0f 5c 0d 00
	00 00 00	 subsd	 xmm1, QWORD PTR __real@0000000000000000
  00763	66 0f 5a c9	 cvtpd2ps xmm1, xmm1
  00767	f3 0f 11 4d e4	 movss	 DWORD PTR _vCenter$536479[ebp], xmm1
  0076c	f3 0f 10 4d e8	 movss	 xmm1, DWORD PTR _vCenter$536479[ebp+4]
  00771	0f 5a c9	 cvtps2pd xmm1, xmm1
  00774	0f 57 c0	 xorps	 xmm0, xmm0
  00777	8d 75 e4	 lea	 esi, DWORD PTR _vCenter$536479[ebp]
  0077a	8d 7d d8	 lea	 edi, DWORD PTR _vMax$536491[ebp]
  0077d	d9 9d 78 fe ff
	ff		 fstp	 DWORD PTR tv2110[ebp]
  00783	d9 85 78 fe ff
	ff		 fld	 DWORD PTR tv2110[ebp]
  00789	d8 8d 6c fe ff
	ff		 fmul	 DWORD PTR $T536351[ebp]
  0078f	d8 a5 70 fe ff
	ff		 fsub	 DWORD PTR _value$536452[ebp]
  00795	d9 9d 78 fe ff
	ff		 fstp	 DWORD PTR $T536367[ebp]
  0079b	f3 0f 10 95 78
	fe ff ff	 movss	 xmm2, DWORD PTR $T536367[ebp]
  007a3	0f 5a d2	 cvtps2pd xmm2, xmm2
  007a6	f2 0f 5c ca	 subsd	 xmm1, xmm2
  007aa	66 0f 5a c9	 cvtpd2ps xmm1, xmm1
  007ae	f3 0f 11 4d e8	 movss	 DWORD PTR _vCenter$536479[ebp+4], xmm1
  007b3	f3 0f 10 4d ec	 movss	 xmm1, DWORD PTR _vCenter$536479[ebp+8]
  007b8	0f 5a c9	 cvtps2pd xmm1, xmm1
  007bb	f2 0f 5c 0d 00
	00 00 00	 subsd	 xmm1, QWORD PTR __real@0000000000000000
  007c3	66 0f 5a c1	 cvtpd2ps xmm0, xmm1
  007c7	f3 0f 11 45 ec	 movss	 DWORD PTR _vCenter$536479[ebp+8], xmm0
  007cc	a5		 movsd
  007cd	a5		 movsd
  007ce	a5		 movsd
  007cf	8d 75 e4	 lea	 esi, DWORD PTR _vCenter$536479[ebp]
  007d2	8d 7d cc	 lea	 edi, DWORD PTR _vMin$536489[ebp]
  007d5	a5		 movsd
  007d6	a5		 movsd
  007d7	a5		 movsd
  007d8	b8 05 00 00 00	 mov	 eax, 5
  007dd	8b c8		 mov	 ecx, eax
  007df	b8 0a 00 00 00	 mov	 eax, 10			; 0000000aH
  007e4	89 8d 68 fe ff
	ff		 mov	 DWORD PTR tv2083[ebp], ecx
  007ea	db 85 68 fe ff
	ff		 fild	 DWORD PTR tv2083[ebp]
  007f0	85 c9		 test	 ecx, ecx
  007f2	79 06		 jns	 SHORT $LN225@IsCollisio
  007f4	d8 05 00 00 00
	00		 fadd	 DWORD PTR __real@4f800000
$LN225@IsCollisio:
  007fa	89 85 68 fe ff
	ff		 mov	 DWORD PTR tv2079[ebp], eax
  00800	db 85 68 fe ff
	ff		 fild	 DWORD PTR tv2079[ebp]
  00806	85 c0		 test	 eax, eax
  00808	79 06		 jns	 SHORT $LN226@IsCollisio
  0080a	d8 05 00 00 00
	00		 fadd	 DWORD PTR __real@4f800000
$LN226@IsCollisio:
  00810	de f9		 fdivp	 ST(1), ST(0)
  00812	8d 85 78 fe ff
	ff		 lea	 eax, DWORD PTR _value$536469[ebp]
  00818	50		 push	 eax
  00819	8d 8b b8 0a 00
	00		 lea	 ecx, DWORD PTR [ebx+2744]
  0081f	d9 9d 78 fe ff
	ff		 fstp	 DWORD PTR tv2075[ebp]
  00825	d9 85 78 fe ff
	ff		 fld	 DWORD PTR tv2075[ebp]
  0082b	d9 9d 6c fe ff
	ff		 fstp	 DWORD PTR $T536419[ebp]
  00831	e8 00 00 00 00	 call	 ?DecryptValueToPool@?$CEncrypt@M@@QAEXPAM@Z ; CEncrypt<float>::DecryptValueToPool
  00836	d9 45 cc	 fld	 DWORD PTR _vMin$536489[ebp]
  00839	d9 85 78 fe ff
	ff		 fld	 DWORD PTR _value$536469[ebp]
  0083f	8d 85 78 fe ff
	ff		 lea	 eax, DWORD PTR _value$536472[ebp]
  00845	d8 8d 6c fe ff
	ff		 fmul	 DWORD PTR $T536419[ebp]
  0084b	50		 push	 eax
  0084c	8d 8b 88 0a 00
	00		 lea	 ecx, DWORD PTR [ebx+2696]
  00852	d9 9d 78 fe ff
	ff		 fstp	 DWORD PTR tv2072[ebp]
  00858	d8 a5 78 fe ff
	ff		 fsub	 DWORD PTR tv2072[ebp]
  0085e	d9 5d cc	 fstp	 DWORD PTR _vMin$536489[ebp]
  00861	e8 00 00 00 00	 call	 ?DecryptValueToPool@?$CEncrypt@M@@QAEXPAM@Z ; CEncrypt<float>::DecryptValueToPool
  00866	f3 0f 10 45 d0	 movss	 xmm0, DWORD PTR _vMin$536489[ebp+4]
  0086b	f3 0f 10 8d 78
	fe ff ff	 movss	 xmm1, DWORD PTR _value$536472[ebp]
  00873	0f 5a c0	 cvtps2pd xmm0, xmm0
  00876	0f 5a c9	 cvtps2pd xmm1, xmm1
  00879	f2 0f 5c c1	 subsd	 xmm0, xmm1
  0087d	66 0f 5a c0	 cvtpd2ps xmm0, xmm0
  00881	f3 0f 11 45 d0	 movss	 DWORD PTR _vMin$536489[ebp+4], xmm0
  00886	b8 05 00 00 00	 mov	 eax, 5
  0088b	8b c8		 mov	 ecx, eax
  0088d	b8 0a 00 00 00	 mov	 eax, 10			; 0000000aH
  00892	89 8d 68 fe ff
	ff		 mov	 DWORD PTR tv2062[ebp], ecx
  00898	db 85 68 fe ff
	ff		 fild	 DWORD PTR tv2062[ebp]
  0089e	85 c9		 test	 ecx, ecx
  008a0	79 06		 jns	 SHORT $LN227@IsCollisio
  008a2	d8 05 00 00 00
	00		 fadd	 DWORD PTR __real@4f800000
$LN227@IsCollisio:
  008a8	89 85 68 fe ff
	ff		 mov	 DWORD PTR tv2058[ebp], eax
  008ae	db 85 68 fe ff
	ff		 fild	 DWORD PTR tv2058[ebp]
  008b4	85 c0		 test	 eax, eax
  008b6	79 06		 jns	 SHORT $LN228@IsCollisio
  008b8	d8 05 00 00 00
	00		 fadd	 DWORD PTR __real@4f800000
$LN228@IsCollisio:
  008be	de f9		 fdivp	 ST(1), ST(0)
  008c0	8d 85 78 fe ff
	ff		 lea	 eax, DWORD PTR _value$536486[ebp]
  008c6	50		 push	 eax
  008c7	8d 8b b8 0a 00
	00		 lea	 ecx, DWORD PTR [ebx+2744]
  008cd	d9 9d 78 fe ff
	ff		 fstp	 DWORD PTR tv2054[ebp]
  008d3	d9 85 78 fe ff
	ff		 fld	 DWORD PTR tv2054[ebp]
  008d9	d9 9d 6c fe ff
	ff		 fstp	 DWORD PTR $T536420[ebp]
  008df	e8 00 00 00 00	 call	 ?DecryptValueToPool@?$CEncrypt@M@@QAEXPAM@Z ; CEncrypt<float>::DecryptValueToPool
  008e4	d9 85 78 fe ff
	ff		 fld	 DWORD PTR _value$536486[ebp]
  008ea	d8 8d 6c fe ff
	ff		 fmul	 DWORD PTR $T536420[ebp]
  008f0	8d 85 78 fe ff
	ff		 lea	 eax, DWORD PTR _value$536490[ebp]
  008f6	50		 push	 eax
  008f7	8d 8b 58 0a 00
	00		 lea	 ecx, DWORD PTR [ebx+2648]
  008fd	d9 9d 78 fe ff
	ff		 fstp	 DWORD PTR tv2051[ebp]
  00903	d9 85 78 fe ff
	ff		 fld	 DWORD PTR tv2051[ebp]
  00909	d8 45 d8	 fadd	 DWORD PTR _vMax$536491[ebp]
  0090c	d9 5d d8	 fstp	 DWORD PTR _vMax$536491[ebp]
  0090f	e8 00 00 00 00	 call	 ?DecryptValueToPool@?$CEncrypt@M@@QAEXPAM@Z ; CEncrypt<float>::DecryptValueToPool
  00914	f3 0f 10 4d dc	 movss	 xmm1, DWORD PTR _vMax$536491[ebp+4]
  00919	f3 0f 10 85 78
	fe ff ff	 movss	 xmm0, DWORD PTR _value$536490[ebp]
  00921	0f 5a c0	 cvtps2pd xmm0, xmm0
  00924	0f 5a c9	 cvtps2pd xmm1, xmm1
  00927	8d 85 78 fe ff
	ff		 lea	 eax, DWORD PTR _value$536494[ebp]
  0092d	f2 0f 58 c1	 addsd	 xmm0, xmm1
  00931	66 0f 5a c0	 cvtpd2ps xmm0, xmm0
  00935	50		 push	 eax
  00936	8d 8b 68 09 00
	00		 lea	 ecx, DWORD PTR [ebx+2408]
  0093c	f3 0f 11 45 dc	 movss	 DWORD PTR _vMax$536491[ebp+4], xmm0
  00941	e8 00 00 00 00	 call	 ?DecryptValueToPool@?$CEncrypt@M@@QAEXPAM@Z ; CEncrypt<float>::DecryptValueToPool
  00946	f3 0f 10 4d e0	 movss	 xmm1, DWORD PTR _vMax$536491[ebp+8]
  0094b	f3 0f 10 85 78
	fe ff ff	 movss	 xmm0, DWORD PTR _value$536494[ebp]
  00953	0f 5a c0	 cvtps2pd xmm0, xmm0
  00956	0f 5a c9	 cvtps2pd xmm1, xmm1
  00959	f2 0f 58 c1	 addsd	 xmm0, xmm1
  0095d	66 0f 5a c0	 cvtpd2ps xmm0, xmm0
  00961	8d 8d 04 ff ff
	ff		 lea	 ecx, DWORD PTR _kBuffBox$536496[ebp]
  00967	f3 0f 11 45 e0	 movss	 DWORD PTR _vMax$536491[ebp+8], xmm0
  0096c	ff 15 00 00 00
	00		 call	 DWORD PTR __imp_??0ioOrientBox@@QAE@XZ
  00972	8d 45 d8	 lea	 eax, DWORD PTR _vMax$536491[ebp]
  00975	50		 push	 eax
  00976	8d 45 cc	 lea	 eax, DWORD PTR _vMin$536489[ebp]
  00979	50		 push	 eax
  0097a	8d 8d 04 ff ff
	ff		 lea	 ecx, DWORD PTR _kBuffBox$536496[ebp]
  00980	c7 45 fc 02 00
	00 00		 mov	 DWORD PTR __$EHRec$[ebp+8], 2
  00987	ff 15 00 00 00
	00		 call	 DWORD PTR __imp_?SetBoxByMinMax@ioOrientBox@@QAEXABUD3DXVECTOR3@@0@Z
  0098d	8b 8d 74 fe ff
	ff		 mov	 ecx, DWORD PTR _pOwnerChar$536475[ebp]
  00993	8b 01		 mov	 eax, DWORD PTR [ecx]
  00995	ff 50 74	 call	 DWORD PTR [eax+116]
  00998	50		 push	 eax
  00999	ff 35 00 00 00
	00		 push	 DWORD PTR __imp_?UNIT_ALL@ioMath@@2UD3DXVECTOR3@@A
  0099f	8d 45 e4	 lea	 eax, DWORD PTR _vCenter$536479[ebp]
  009a2	50		 push	 eax
  009a3	8d 8d 04 ff ff
	ff		 lea	 ecx, DWORD PTR _kBuffBox$536496[ebp]
  009a9	ff 15 00 00 00
	00		 call	 DWORD PTR __imp_?Transform@ioOrientBox@@QAEXABUD3DXVECTOR3@@0ABUD3DXQUATERNION@@@Z
  009af	8d 45 e4	 lea	 eax, DWORD PTR _vCenter$536479[ebp]
  009b2	50		 push	 eax
  009b3	8d 8d 04 ff ff
	ff		 lea	 ecx, DWORD PTR _kBuffBox$536496[ebp]
  009b9	ff 15 00 00 00
	00		 call	 DWORD PTR __imp_?SetCenter@ioOrientBox@@QAEXABUD3DXVECTOR3@@@Z
  009bf	8b 8d 60 fe ff
	ff		 mov	 ecx, DWORD PTR _pEntity$GSCopy$[ebp]
  009c5	85 c9		 test	 ecx, ecx
  009c7	75 15		 jne	 SHORT $LN83@IsCollisio
  009c9	83 4d fc ff	 or	 DWORD PTR __$EHRec$[ebp+8], -1
  009cd	8d 8d 04 ff ff
	ff		 lea	 ecx, DWORD PTR _kBuffBox$536496[ebp]
$LN234@IsCollisio:
  009d3	ff 15 00 00 00
	00		 call	 DWORD PTR __imp_??1ioOrientBox@@QAE@XZ
  009d9	e9 28 05 00 00	 jmp	 $LN231@IsCollisio
$LN83@IsCollisio:
  009de	8b 01		 mov	 eax, DWORD PTR [ecx]
  009e0	6a 00		 push	 0
  009e2	8d 95 04 ff ff
	ff		 lea	 edx, DWORD PTR _kBuffBox$536496[ebp]
  009e8	52		 push	 edx
  009e9	ff 90 90 00 00
	00		 call	 DWORD PTR [eax+144]
  009ef	83 4d fc ff	 or	 DWORD PTR __$EHRec$[ebp+8], -1
  009f3	8d 8d 04 ff ff
	ff		 lea	 ecx, DWORD PTR _kBuffBox$536496[ebp]
  009f9	84 c0		 test	 al, al
  009fb	74 d6		 je	 SHORT $LN234@IsCollisio
  009fd	ff 15 00 00 00
	00		 call	 DWORD PTR __imp_??1ioOrientBox@@QAE@XZ
  00a03	e9 d5 04 00 00	 jmp	 $LN235@IsCollisio
$LN24@IsCollisio:

; 513  : 	}
; 514  : 	else if( m_TargetColType == TCT_DONUT )

  00a08	83 f8 04	 cmp	 eax, 4
  00a0b	0f 85 fc 04 00
	00		 jne	 $LN148@IsCollisio

; 515  : 	{
; 516  : 		bCollision = CheckCollisionDonut( pEntity );

  00a11	0f 57 c0	 xorps	 xmm0, xmm0
  00a14	8d 85 74 fe ff
	ff		 lea	 eax, DWORD PTR $T536656[ebp]
  00a1a	8d 8b 58 0a 00
	00		 lea	 ecx, DWORD PTR [ebx+2648]
  00a20	50		 push	 eax
  00a21	f3 0f 11 85 74
	fe ff ff	 movss	 DWORD PTR $T536656[ebp], xmm0
  00a29	e8 00 00 00 00	 call	 ??8?$CEncrypt@M@@QAE_NABM@Z ; CEncrypt<float>::operator==
  00a2e	84 c0		 test	 al, al
  00a30	74 25		 je	 SHORT $LN147@IsCollisio
  00a32	0f 57 c0	 xorps	 xmm0, xmm0
  00a35	8d 85 74 fe ff
	ff		 lea	 eax, DWORD PTR $T536657[ebp]
  00a3b	50		 push	 eax
  00a3c	8d 8b 88 0a 00
	00		 lea	 ecx, DWORD PTR [ebx+2696]
  00a42	f3 0f 11 85 74
	fe ff ff	 movss	 DWORD PTR $T536657[ebp], xmm0
  00a4a	e8 00 00 00 00	 call	 ??8?$CEncrypt@M@@QAE_NABM@Z ; CEncrypt<float>::operator==
  00a4f	84 c0		 test	 al, al
  00a51	0f 85 af 04 00
	00		 jne	 $LN231@IsCollisio
$LN147@IsCollisio:
  00a57	6a 00		 push	 0
  00a59	8b cb		 mov	 ecx, ebx
  00a5b	e8 00 00 00 00	 call	 ?GetWorldAttackBox@ioWeapon@@QBEABVioOrientBox@@_N@Z ; ioWeapon::GetWorldAttackBox
  00a60	8b c8		 mov	 ecx, eax
  00a62	ff 15 00 00 00
	00		 call	 DWORD PTR __imp_?GetCenter@ioOrientBox@@QBEABUD3DXVECTOR3@@XZ
  00a68	8b f0		 mov	 esi, eax
  00a6a	8d 7d b4	 lea	 edi, DWORD PTR _vCenter$536636[ebp]
  00a6d	a5		 movsd
  00a6e	a5		 movsd
  00a6f	a5		 movsd
  00a70	8d 75 b4	 lea	 esi, DWORD PTR _vCenter$536636[ebp]
  00a73	8d 7d 90	 lea	 edi, DWORD PTR _vBottom$536638[ebp]
  00a76	a5		 movsd
  00a77	a5		 movsd
  00a78	a5		 movsd
  00a79	8d 75 b4	 lea	 esi, DWORD PTR _vCenter$536636[ebp]
  00a7c	8d 7d 84	 lea	 edi, DWORD PTR _vTop$536637[ebp]
  00a7f	a5		 movsd
  00a80	a5		 movsd
  00a81	8d 85 74 fe ff
	ff		 lea	 eax, DWORD PTR _value$536673[ebp]
  00a87	50		 push	 eax
  00a88	8d 8b 58 0a 00
	00		 lea	 ecx, DWORD PTR [ebx+2648]
  00a8e	a5		 movsd
  00a8f	e8 00 00 00 00	 call	 ?DecryptValueToPool@?$CEncrypt@M@@QAEXPAM@Z ; CEncrypt<float>::DecryptValueToPool
  00a94	f3 0f 10 4d 88	 movss	 xmm1, DWORD PTR _vTop$536637[ebp+4]
  00a99	f3 0f 10 85 74
	fe ff ff	 movss	 xmm0, DWORD PTR _value$536673[ebp]
  00aa1	0f 5a c0	 cvtps2pd xmm0, xmm0
  00aa4	0f 5a c9	 cvtps2pd xmm1, xmm1
  00aa7	8d 85 74 fe ff
	ff		 lea	 eax, DWORD PTR _value$536676[ebp]
  00aad	f2 0f 58 c1	 addsd	 xmm0, xmm1
  00ab1	66 0f 5a c0	 cvtpd2ps xmm0, xmm0
  00ab5	50		 push	 eax
  00ab6	8d 8b 88 0a 00
	00		 lea	 ecx, DWORD PTR [ebx+2696]
  00abc	f3 0f 11 45 88	 movss	 DWORD PTR _vTop$536637[ebp+4], xmm0
  00ac1	e8 00 00 00 00	 call	 ?DecryptValueToPool@?$CEncrypt@M@@QAEXPAM@Z ; CEncrypt<float>::DecryptValueToPool
  00ac6	f3 0f 10 45 94	 movss	 xmm0, DWORD PTR _vBottom$536638[ebp+4]
  00acb	f3 0f 10 8d 74
	fe ff ff	 movss	 xmm1, DWORD PTR _value$536676[ebp]
  00ad3	0f 5a c0	 cvtps2pd xmm0, xmm0
  00ad6	0f 5a c9	 cvtps2pd xmm1, xmm1
  00ad9	8d 85 74 fe ff
	ff		 lea	 eax, DWORD PTR _value$536679[ebp]
  00adf	f2 0f 5c c1	 subsd	 xmm0, xmm1
  00ae3	66 0f 5a c0	 cvtpd2ps xmm0, xmm0
  00ae7	8d 8b 68 09 00
	00		 lea	 ecx, DWORD PTR [ebx+2408]
  00aed	50		 push	 eax
  00aee	f3 0f 11 45 94	 movss	 DWORD PTR _vBottom$536638[ebp+4], xmm0
  00af3	e8 00 00 00 00	 call	 ?DecryptValueToPool@?$CEncrypt@M@@QAEXPAM@Z ; CEncrypt<float>::DecryptValueToPool
  00af8	f3 0f 10 85 74
	fe ff ff	 movss	 xmm0, DWORD PTR _value$536679[ebp]
  00b00	51		 push	 ecx
  00b01	f3 0f 11 04 24	 movss	 DWORD PTR [esp], xmm0
  00b06	8d 45 90	 lea	 eax, DWORD PTR _vBottom$536638[ebp]
  00b09	50		 push	 eax
  00b0a	8d 45 84	 lea	 eax, DWORD PTR _vTop$536637[ebp]
  00b0d	50		 push	 eax
  00b0e	8d 8d c4 fe ff
	ff		 lea	 ecx, DWORD PTR _kCylinder$536639[ebp]
  00b14	ff 15 00 00 00
	00		 call	 DWORD PTR __imp_??0ioCylinder@@QAE@ABUD3DXVECTOR3@@0M@Z
  00b1a	8d 8d c4 fe ff
	ff		 lea	 ecx, DWORD PTR _kCylinder$536639[ebp]
  00b20	c7 45 fc 03 00
	00 00		 mov	 DWORD PTR __$EHRec$[ebp+8], 3
  00b27	ff 15 00 00 00
	00		 call	 DWORD PTR __imp_?GetCenter@ioCylinder@@QBEABUD3DXVECTOR3@@XZ
  00b2d	8b f0		 mov	 esi, eax
  00b2f	8d 7d b4	 lea	 edi, DWORD PTR _vCenter$536636[ebp]
  00b32	a5		 movsd
  00b33	a5		 movsd
  00b34	a5		 movsd
  00b35	8d 75 84	 lea	 esi, DWORD PTR _vTop$536637[ebp]
  00b38	8d 7d 9c	 lea	 edi, DWORD PTR _vMax$536641[ebp]
  00b3b	a5		 movsd
  00b3c	a5		 movsd
  00b3d	a5		 movsd
  00b3e	8d 75 90	 lea	 esi, DWORD PTR _vBottom$536638[ebp]
  00b41	8d bd 78 ff ff
	ff		 lea	 edi, DWORD PTR _vMin$536640[ebp]
  00b47	a5		 movsd
  00b48	a5		 movsd
  00b49	8d 85 74 fe ff
	ff		 lea	 eax, DWORD PTR _value$536686[ebp]
  00b4f	50		 push	 eax
  00b50	8d 8b 68 09 00
	00		 lea	 ecx, DWORD PTR [ebx+2408]
  00b56	a5		 movsd
  00b57	e8 00 00 00 00	 call	 ?DecryptValueToPool@?$CEncrypt@M@@QAEXPAM@Z ; CEncrypt<float>::DecryptValueToPool
  00b5c	f3 0f 10 85 74
	fe ff ff	 movss	 xmm0, DWORD PTR _value$536686[ebp]
  00b64	f3 0f 10 4d 9c	 movss	 xmm1, DWORD PTR _vMax$536641[ebp]
  00b69	0f 5a c0	 cvtps2pd xmm0, xmm0
  00b6c	0f 5a c9	 cvtps2pd xmm1, xmm1
  00b6f	8d 85 74 fe ff
	ff		 lea	 eax, DWORD PTR _value$536689[ebp]
  00b75	f2 0f 58 c1	 addsd	 xmm0, xmm1
  00b79	66 0f 5a c0	 cvtpd2ps xmm0, xmm0
  00b7d	50		 push	 eax
  00b7e	8d 8b 68 09 00
	00		 lea	 ecx, DWORD PTR [ebx+2408]
  00b84	f3 0f 11 45 9c	 movss	 DWORD PTR _vMax$536641[ebp], xmm0
  00b89	e8 00 00 00 00	 call	 ?DecryptValueToPool@?$CEncrypt@M@@QAEXPAM@Z ; CEncrypt<float>::DecryptValueToPool
  00b8e	f3 0f 10 45 a4	 movss	 xmm0, DWORD PTR _vMax$536641[ebp+8]
  00b93	f3 0f 10 8d 74
	fe ff ff	 movss	 xmm1, DWORD PTR _value$536689[ebp]
  00b9b	0f 5a c0	 cvtps2pd xmm0, xmm0
  00b9e	0f 5a c9	 cvtps2pd xmm1, xmm1
  00ba1	8d 85 74 fe ff
	ff		 lea	 eax, DWORD PTR _value$536692[ebp]
  00ba7	f2 0f 5c c1	 subsd	 xmm0, xmm1
  00bab	66 0f 5a c0	 cvtpd2ps xmm0, xmm0
  00baf	50		 push	 eax
  00bb0	8d 8b 68 09 00
	00		 lea	 ecx, DWORD PTR [ebx+2408]
  00bb6	f3 0f 11 45 a4	 movss	 DWORD PTR _vMax$536641[ebp+8], xmm0
  00bbb	e8 00 00 00 00	 call	 ?DecryptValueToPool@?$CEncrypt@M@@QAEXPAM@Z ; CEncrypt<float>::DecryptValueToPool
  00bc0	f3 0f 10 85 78
	ff ff ff	 movss	 xmm0, DWORD PTR _vMin$536640[ebp]
  00bc8	f3 0f 10 8d 74
	fe ff ff	 movss	 xmm1, DWORD PTR _value$536692[ebp]
  00bd0	0f 5a c0	 cvtps2pd xmm0, xmm0
  00bd3	0f 5a c9	 cvtps2pd xmm1, xmm1
  00bd6	8d 85 74 fe ff
	ff		 lea	 eax, DWORD PTR _value$536695[ebp]
  00bdc	f2 0f 5c c1	 subsd	 xmm0, xmm1
  00be0	66 0f 5a c0	 cvtpd2ps xmm0, xmm0
  00be4	50		 push	 eax
  00be5	8d 8b 68 09 00
	00		 lea	 ecx, DWORD PTR [ebx+2408]
  00beb	f3 0f 11 85 78
	ff ff ff	 movss	 DWORD PTR _vMin$536640[ebp], xmm0
  00bf3	e8 00 00 00 00	 call	 ?DecryptValueToPool@?$CEncrypt@M@@QAEXPAM@Z ; CEncrypt<float>::DecryptValueToPool
  00bf8	f3 0f 10 4d 80	 movss	 xmm1, DWORD PTR _vMin$536640[ebp+8]
  00bfd	f3 0f 10 85 74
	fe ff ff	 movss	 xmm0, DWORD PTR _value$536695[ebp]
  00c05	0f 5a c0	 cvtps2pd xmm0, xmm0
  00c08	0f 5a c9	 cvtps2pd xmm1, xmm1
  00c0b	f2 0f 58 c1	 addsd	 xmm0, xmm1
  00c0f	66 0f 5a c0	 cvtpd2ps xmm0, xmm0
  00c13	8d 8d 80 fe ff
	ff		 lea	 ecx, DWORD PTR _kBuffBox$536642[ebp]
  00c19	f3 0f 11 45 80	 movss	 DWORD PTR _vMin$536640[ebp+8], xmm0
  00c1e	ff 15 00 00 00
	00		 call	 DWORD PTR __imp_??0ioOrientBox@@QAE@XZ
  00c24	8d 45 9c	 lea	 eax, DWORD PTR _vMax$536641[ebp]
  00c27	50		 push	 eax
  00c28	8d 85 78 ff ff
	ff		 lea	 eax, DWORD PTR _vMin$536640[ebp]
  00c2e	50		 push	 eax
  00c2f	8d 8d 80 fe ff
	ff		 lea	 ecx, DWORD PTR _kBuffBox$536642[ebp]
  00c35	c6 45 fc 04	 mov	 BYTE PTR __$EHRec$[ebp+8], 4
  00c39	ff 15 00 00 00
	00		 call	 DWORD PTR __imp_?SetBoxByMinMax@ioOrientBox@@QAEXABUD3DXVECTOR3@@0@Z
  00c3f	8b 8d 60 fe ff
	ff		 mov	 ecx, DWORD PTR _pEntity$GSCopy$[ebp]
  00c45	8b 01		 mov	 eax, DWORD PTR [ecx]
  00c47	8d 95 48 ff ff
	ff		 lea	 edx, DWORD PTR _vCollisionPoint$536643[ebp]
  00c4d	52		 push	 edx
  00c4e	8d 55 b4	 lea	 edx, DWORD PTR _vCenter$536636[ebp]
  00c51	52		 push	 edx
  00c52	8d 95 c4 fe ff
	ff		 lea	 edx, DWORD PTR _kCylinder$536639[ebp]
  00c58	52		 push	 edx
  00c59	ff 90 a0 00 00
	00		 call	 DWORD PTR [eax+160]
  00c5f	84 c0		 test	 al, al
  00c61	0f 84 7f 02 00
	00		 je	 $LN142@IsCollisio
  00c67	f3 0f 10 85 48
	ff ff ff	 movss	 xmm0, DWORD PTR _vCollisionPoint$536643[ebp]
  00c6f	f3 0f 10 4d b4	 movss	 xmm1, DWORD PTR _vCenter$536636[ebp]
  00c74	f3 0f 10 55 bc	 movss	 xmm2, DWORD PTR _vCenter$536636[ebp+8]
  00c79	0f 5a c0	 cvtps2pd xmm0, xmm0
  00c7c	0f 5a c9	 cvtps2pd xmm1, xmm1
  00c7f	f2 0f 5c c1	 subsd	 xmm0, xmm1
  00c83	f3 0f 10 8d 50
	ff ff ff	 movss	 xmm1, DWORD PTR _vCollisionPoint$536643[ebp+8]
  00c8b	66 0f 5a c0	 cvtpd2ps xmm0, xmm0
  00c8f	f3 0f 11 45 c0	 movss	 DWORD PTR _vDiff1$536645[ebp], xmm0
  00c94	f3 0f 5a c0	 cvtss2sd xmm0, xmm0
  00c98	f2 0f 59 c0	 mulsd	 xmm0, xmm0
  00c9c	f2 0f 11 85 64
	fe ff ff	 movsd	 QWORD PTR tv1846[ebp], xmm0
  00ca4	0f 57 c0	 xorps	 xmm0, xmm0
  00ca7	0f 5a d2	 cvtps2pd xmm2, xmm2
  00caa	0f 5a c9	 cvtps2pd xmm1, xmm1
  00cad	f2 0f 5c ca	 subsd	 xmm1, xmm2
  00cb1	0f 57 d2	 xorps	 xmm2, xmm2
  00cb4	f2 0f 59 c0	 mulsd	 xmm0, xmm0
  00cb8	66 0f 5a c9	 cvtpd2ps xmm1, xmm1
  00cbc	f3 0f 11 55 c4	 movss	 DWORD PTR _vDiff1$536645[ebp+4], xmm2
  00cc1	f2 0f 10 95 64
	fe ff ff	 movsd	 xmm2, QWORD PTR tv1846[ebp]
  00cc9	f3 0f 11 4d c8	 movss	 DWORD PTR _vDiff1$536645[ebp+8], xmm1
  00cce	f3 0f 5a c9	 cvtss2sd xmm1, xmm1
  00cd2	f2 0f 58 d0	 addsd	 xmm2, xmm0
  00cd6	f2 0f 59 c9	 mulsd	 xmm1, xmm1
  00cda	8d 85 78 fe ff
	ff		 lea	 eax, DWORD PTR _value$536706[ebp]
  00ce0	f2 0f 58 d1	 addsd	 xmm2, xmm1
  00ce4	66 0f 5a c2	 cvtpd2ps xmm0, xmm2
  00ce8	50		 push	 eax
  00ce9	8d 8b 68 09 00
	00		 lea	 ecx, DWORD PTR [ebx+2408]
  00cef	f3 0f 11 85 70
	fe ff ff	 movss	 DWORD PTR _fTargetDist$536646[ebp], xmm0
  00cf7	e8 00 00 00 00	 call	 ?DecryptValueToPool@?$CEncrypt@M@@QAEXPAM@Z ; CEncrypt<float>::DecryptValueToPool
  00cfc	8d 85 74 fe ff
	ff		 lea	 eax, DWORD PTR _value$536614[ebp]
  00d02	50		 push	 eax
  00d03	8d 8b 68 09 00
	00		 lea	 ecx, DWORD PTR [ebx+2408]
  00d09	e8 00 00 00 00	 call	 ?DecryptValueToPool@?$CEncrypt@M@@QAEXPAM@Z ; CEncrypt<float>::DecryptValueToPool
  00d0e	f3 0f 10 8d 74
	fe ff ff	 movss	 xmm1, DWORD PTR _value$536614[ebp]
  00d16	f3 0f 10 95 78
	fe ff ff	 movss	 xmm2, DWORD PTR _value$536706[ebp]
  00d1e	f3 0f 10 85 70
	fe ff ff	 movss	 xmm0, DWORD PTR _fTargetDist$536646[ebp]
  00d26	0f 5a c9	 cvtps2pd xmm1, xmm1
  00d29	0f 5a d2	 cvtps2pd xmm2, xmm2
  00d2c	f2 0f 59 ca	 mulsd	 xmm1, xmm2
  00d30	66 0f 5a c9	 cvtpd2ps xmm1, xmm1
  00d34	0f 5a c0	 cvtps2pd xmm0, xmm0
  00d37	f3 0f 5a c9	 cvtss2sd xmm1, xmm1
  00d3b	66 0f 2f c1	 comisd	 xmm0, xmm1
  00d3f	0f 87 a1 01 00
	00		 ja	 $LN142@IsCollisio
  00d45	8d 85 78 fe ff
	ff		 lea	 eax, DWORD PTR _value$536617[ebp]
  00d4b	50		 push	 eax
  00d4c	8d 8b f8 09 00
	00		 lea	 ecx, DWORD PTR [ebx+2552]
  00d52	e8 00 00 00 00	 call	 ?DecryptValueToPool@?$CEncrypt@M@@QAEXPAM@Z ; CEncrypt<float>::DecryptValueToPool
  00d57	8d 85 74 fe ff
	ff		 lea	 eax, DWORD PTR _value$536620[ebp]
  00d5d	50		 push	 eax
  00d5e	8d 8b 68 09 00
	00		 lea	 ecx, DWORD PTR [ebx+2408]
  00d64	e8 00 00 00 00	 call	 ?DecryptValueToPool@?$CEncrypt@M@@QAEXPAM@Z ; CEncrypt<float>::DecryptValueToPool
  00d69	f3 0f 10 8d 78
	fe ff ff	 movss	 xmm1, DWORD PTR _value$536617[ebp]
  00d71	f3 0f 10 85 74
	fe ff ff	 movss	 xmm0, DWORD PTR _value$536620[ebp]
  00d79	0f 57 d2	 xorps	 xmm2, xmm2
  00d7c	0f 5a c9	 cvtps2pd xmm1, xmm1
  00d7f	0f 5a c0	 cvtps2pd xmm0, xmm0
  00d82	f2 0f 5c c1	 subsd	 xmm0, xmm1
  00d86	66 0f 5a c0	 cvtpd2ps xmm0, xmm0
  00d8a	0f 57 c9	 xorps	 xmm1, xmm1
  00d8d	f3 0f 5a c8	 cvtss2sd xmm1, xmm0
  00d91	66 0f 2f d1	 comisd	 xmm2, xmm1
  00d95	76 03		 jbe	 SHORT $LN150@IsCollisio
  00d97	0f 57 c0	 xorps	 xmm0, xmm0
$LN150@IsCollisio:
  00d9a	f3 0f 10 8d 70
	fe ff ff	 movss	 xmm1, DWORD PTR _fTargetDist$536646[ebp]
  00da2	f3 0f 5a c0	 cvtss2sd xmm0, xmm0
  00da6	0f 5a c9	 cvtps2pd xmm1, xmm1
  00da9	f2 0f 59 c0	 mulsd	 xmm0, xmm0
  00dad	66 0f 2f c1	 comisd	 xmm0, xmm1
  00db1	0f 87 2f 01 00
	00		 ja	 $LN142@IsCollisio
  00db7	8d 85 78 fe ff
	ff		 lea	 eax, DWORD PTR _value$536623[ebp]
  00dbd	50		 push	 eax
  00dbe	8d 8b 28 0a 00
	00		 lea	 ecx, DWORD PTR [ebx+2600]
  00dc4	e8 00 00 00 00	 call	 ?DecryptValueToPool@?$CEncrypt@M@@QAEXPAM@Z ; CEncrypt<float>::DecryptValueToPool
  00dc9	b8 05 00 00 00	 mov	 eax, 5
  00dce	8b c8		 mov	 ecx, eax
  00dd0	b8 0a 00 00 00	 mov	 eax, 10			; 0000000aH
  00dd5	89 8d 68 fe ff
	ff		 mov	 DWORD PTR tv1915[ebp], ecx
  00ddb	db 85 68 fe ff
	ff		 fild	 DWORD PTR tv1915[ebp]
  00de1	85 c9		 test	 ecx, ecx
  00de3	79 06		 jns	 SHORT $LN229@IsCollisio
  00de5	d8 05 00 00 00
	00		 fadd	 DWORD PTR __real@4f800000
$LN229@IsCollisio:
  00deb	89 85 68 fe ff
	ff		 mov	 DWORD PTR tv1911[ebp], eax
  00df1	db 85 68 fe ff
	ff		 fild	 DWORD PTR tv1911[ebp]
  00df7	85 c0		 test	 eax, eax
  00df9	79 06		 jns	 SHORT $LN230@IsCollisio
  00dfb	d8 05 00 00 00
	00		 fadd	 DWORD PTR __real@4f800000
$LN230@IsCollisio:
  00e01	de f9		 fdivp	 ST(1), ST(0)
  00e03	d9 9d 74 fe ff
	ff		 fstp	 DWORD PTR tv1907[ebp]
  00e09	d9 85 74 fe ff
	ff		 fld	 DWORD PTR tv1907[ebp]
  00e0f	d9 85 78 fe ff
	ff		 fld	 DWORD PTR _value$536623[ebp]
  00e15	dc 0d 00 00 00
	00		 fmul	 QWORD PTR __real@3f91df46a2526c7a
  00e1b	d9 9d 74 fe ff
	ff		 fstp	 DWORD PTR tv1903[ebp]
  00e21	d8 8d 74 fe ff
	ff		 fmul	 DWORD PTR tv1903[ebp]
  00e27	d9 9d 74 fe ff
	ff		 fstp	 DWORD PTR tv1901[ebp]
  00e2d	d9 85 74 fe ff
	ff		 fld	 DWORD PTR tv1901[ebp]
  00e33	e8 00 00 00 00	 call	 __CIcos
  00e38	d9 9d 74 fe ff
	ff		 fstp	 DWORD PTR tv1895[ebp]
  00e3e	d9 85 74 fe ff
	ff		 fld	 DWORD PTR tv1895[ebp]
  00e44	8d 45 c0	 lea	 eax, DWORD PTR _vDiff1$536645[ebp]
  00e47	50		 push	 eax
  00e48	d9 9d 78 fe ff
	ff		 fstp	 DWORD PTR _fHalfCosine$536651[ebp]
  00e4e	50		 push	 eax
  00e4f	e8 00 00 00 00	 call	 _D3DXVec3Normalize@8
  00e54	d9 83 c8 08 00
	00		 fld	 DWORD PTR [ebx+2248]
  00e5a	d8 4d c4	 fmul	 DWORD PTR _vDiff1$536645[ebp+4]
  00e5d	d9 45 c0	 fld	 DWORD PTR _vDiff1$536645[ebp]
  00e60	d8 8b c4 08 00
	00		 fmul	 DWORD PTR [ebx+2244]
  00e66	de c1		 faddp	 ST(1), ST(0)
  00e68	d9 83 cc 08 00
	00		 fld	 DWORD PTR [ebx+2252]
  00e6e	d8 4d c8	 fmul	 DWORD PTR _vDiff1$536645[ebp+8]
  00e71	de c1		 faddp	 ST(1), ST(0)
  00e73	d9 9d 74 fe ff
	ff		 fstp	 DWORD PTR tv1891[ebp]
  00e79	d9 85 74 fe ff
	ff		 fld	 DWORD PTR tv1891[ebp]
  00e7f	d9 85 78 fe ff
	ff		 fld	 DWORD PTR _fHalfCosine$536651[ebp]
  00e85	df f1		 fcomip	 ST(1)
  00e87	dd d8		 fstp	 ST(0)
  00e89	77 5b		 ja	 SHORT $LN142@IsCollisio
  00e8b	f3 0f 10 85 4c
	ff ff ff	 movss	 xmm0, DWORD PTR _vCollisionPoint$536643[ebp+4]
  00e93	f3 0f 10 4d 94	 movss	 xmm1, DWORD PTR _vBottom$536638[ebp+4]
  00e98	0f 5a c0	 cvtps2pd xmm0, xmm0
  00e9b	0f 5a c9	 cvtps2pd xmm1, xmm1
  00e9e	66 0f 2f c1	 comisd	 xmm0, xmm1
  00ea2	72 42		 jb	 SHORT $LN142@IsCollisio
  00ea4	f3 0f 10 85 4c
	ff ff ff	 movss	 xmm0, DWORD PTR _vCollisionPoint$536643[ebp+4]
  00eac	f3 0f 10 4d 88	 movss	 xmm1, DWORD PTR _vTop$536637[ebp+4]
  00eb1	0f 5a c0	 cvtps2pd xmm0, xmm0
  00eb4	0f 5a c9	 cvtps2pd xmm1, xmm1
  00eb7	66 0f 2f c8	 comisd	 xmm1, xmm0
  00ebb	72 29		 jb	 SHORT $LN142@IsCollisio
  00ebd	8d 8d 80 fe ff
	ff		 lea	 ecx, DWORD PTR _kBuffBox$536642[ebp]
  00ec3	c6 45 fc 03	 mov	 BYTE PTR __$EHRec$[ebp+8], 3
  00ec7	ff 15 00 00 00
	00		 call	 DWORD PTR __imp_??1ioOrientBox@@QAE@XZ
  00ecd	8d 8d c4 fe ff
	ff		 lea	 ecx, DWORD PTR _kCylinder$536639[ebp]
$LN240@IsCollisio:
  00ed3	83 4d fc ff	 or	 DWORD PTR __$EHRec$[ebp+8], -1
  00ed7	ff 15 00 00 00
	00		 call	 DWORD PTR __imp_??1ioCylinder@@QAE@XZ
$LN235@IsCollisio:
  00edd	c6 85 7f fe ff
	ff 01		 mov	 BYTE PTR _bCollision$[ebp], 1
  00ee4	eb 27		 jmp	 SHORT $LN148@IsCollisio
$LN142@IsCollisio:
  00ee6	8d 8d 80 fe ff
	ff		 lea	 ecx, DWORD PTR _kBuffBox$536642[ebp]
  00eec	c6 45 fc 03	 mov	 BYTE PTR __$EHRec$[ebp+8], 3
  00ef0	ff 15 00 00 00
	00		 call	 DWORD PTR __imp_??1ioOrientBox@@QAE@XZ
  00ef6	8d 8d c4 fe ff
	ff		 lea	 ecx, DWORD PTR _kCylinder$536639[ebp]
$LN232@IsCollisio:
  00efc	83 4d fc ff	 or	 DWORD PTR __$EHRec$[ebp+8], -1
  00f00	ff 15 00 00 00
	00		 call	 DWORD PTR __imp_??1ioCylinder@@QAE@XZ
$LN231@IsCollisio:
  00f06	c6 85 7f fe ff
	ff 00		 mov	 BYTE PTR _bCollision$[ebp], 0
$LN148@IsCollisio:

; 517  : 	}
; 518  : 
; 519  : 	ioBaseChar *pChar = ToBaseChar(pEntity);

  00f0d	8b bd 60 fe ff
	ff		 mov	 edi, DWORD PTR _pEntity$GSCopy$[ebp]
  00f13	57		 push	 edi
  00f14	e8 00 00 00 00	 call	 ?ToBaseChar@@YAPAVioBaseChar@@PAVioGameEntity@@@Z ; ToBaseChar

; 520  : 	if( bCollision && pEntity->GetSubType() == ioPlayEntity::PST_CHAR )

  00f19	80 bd 7f fe ff
	ff 00		 cmp	 BYTE PTR _bCollision$[ebp], 0
  00f20	59		 pop	 ecx
  00f21	8b f0		 mov	 esi, eax
  00f23	74 3f		 je	 SHORT $LN2@IsCollisio
  00f25	8b 07		 mov	 eax, DWORD PTR [edi]
  00f27	8b cf		 mov	 ecx, edi
  00f29	ff 90 a4 00 00
	00		 call	 DWORD PTR [eax+164]
  00f2f	85 c0		 test	 eax, eax
  00f31	75 31		 jne	 SHORT $LN2@IsCollisio

; 521  : 	{
; 522  : 		if( !pChar ) return false;

  00f33	85 f6		 test	 esi, esi
  00f35	0f 84 e8 f0 ff
	ff		 je	 $LN237@IsCollisio

; 523  : 
; 524  : 		//   
; 525  : 		if( m_TargetWoundType == TWT_AIR_WOUND_EXCEPT ) //   

  00f3b	8b 9b 64 09 00
	00		 mov	 ebx, DWORD PTR [ebx+2404]
  00f41	83 fb 02	 cmp	 ebx, 2
  00f44	75 2c		 jne	 SHORT $LN19@IsCollisio

; 526  : 		{
; 527  : 			if( pChar->IsApplyDownState() && !pChar->IsApplyDownState(false) )

  00f46	6a 01		 push	 1
  00f48	8b ce		 mov	 ecx, esi
  00f4a	e8 00 00 00 00	 call	 ?IsApplyDownState@ioBaseChar@@QAE_N_N@Z ; ioBaseChar::IsApplyDownState
  00f4f	84 c0		 test	 al, al
  00f51	74 11		 je	 SHORT $LN2@IsCollisio
  00f53	6a 00		 push	 0
  00f55	8b ce		 mov	 ecx, esi
  00f57	e8 00 00 00 00	 call	 ?IsApplyDownState@ioBaseChar@@QAE_N_N@Z ; ioBaseChar::IsApplyDownState
$LN238@IsCollisio:
  00f5c	84 c0		 test	 al, al
  00f5e	0f 84 bf f0 ff
	ff		 je	 $LN237@IsCollisio
$LN2@IsCollisio:

; 561  : 		}
; 562  : 	}
; 563  : 
; 564  : 	return bCollision;

  00f64	8a 85 7f fe ff
	ff		 mov	 al, BYTE PTR _bCollision$[ebp]
$LN30@IsCollisio:

; 565  : }

  00f6a	e8 00 00 00 00	 call	 __EH_epilog3_GS
  00f6f	c2 08 00	 ret	 8
$LN19@IsCollisio:

; 528  : 				return false;
; 529  : 		}
; 530  : 		else if( m_TargetWoundType == TWT_DOWN_WOUND_EXCEPT ) //   

  00f72	83 fb 03	 cmp	 ebx, 3
  00f75	75 12		 jne	 SHORT $LN16@IsCollisio

; 531  : 		{
; 532  : 			if( pChar->IsApplyDownState(false) )

  00f77	6a 00		 push	 0
$LN239@IsCollisio:
  00f79	8b ce		 mov	 ecx, esi
  00f7b	e8 00 00 00 00	 call	 ?IsApplyDownState@ioBaseChar@@QAE_N_N@Z ; ioBaseChar::IsApplyDownState
  00f80	84 c0		 test	 al, al
  00f82	74 e0		 je	 SHORT $LN2@IsCollisio

; 533  : 				return false;

  00f84	e9 9a f0 ff ff	 jmp	 $LN237@IsCollisio
$LN16@IsCollisio:

; 534  : 		}
; 535  : 		else if( m_TargetWoundType == TWT_ALL_WOUND_EXCEPT )

  00f89	83 fb 04	 cmp	 ebx, 4
  00f8c	75 4b		 jne	 SHORT $LN13@IsCollisio

; 536  : 		{
; 537  : 			if( pChar->IsApplyDownState() ||
; 538  : 				( pChar->GetState() == CS_GRAPPLING_WOUNDED ||
; 539  : 				pChar->GetState() == CS_GRAPPLING_PUSHED ||
; 540  : 				pChar->GetState() == CS_GRAPPLING_WOUNDED_SKILL ||
; 541  : 				pChar->GetState() == CS_GRAPPLING_WOUNDED_SWING ||
; 542  : 				pChar->GetState() == CS_GRAPPLING_WOUNDED_ITEM ||
; 543  : 				pChar->GetState() == CS_GRAPPLING_WOUNDED_BUFF ) )

  00f8e	6a 01		 push	 1
  00f90	8b ce		 mov	 ecx, esi
  00f92	e8 00 00 00 00	 call	 ?IsApplyDownState@ioBaseChar@@QAE_N_N@Z ; ioBaseChar::IsApplyDownState
  00f97	84 c0		 test	 al, al
  00f99	0f 85 84 f0 ff
	ff		 jne	 $LN237@IsCollisio
  00f9f	8a 86 10 03 00
	00		 mov	 al, BYTE PTR [esi+784]
  00fa5	3c 41		 cmp	 al, 65			; 00000041H
  00fa7	0f 84 76 f0 ff
	ff		 je	 $LN237@IsCollisio
  00fad	3c 42		 cmp	 al, 66			; 00000042H
  00faf	0f 84 6e f0 ff
	ff		 je	 $LN237@IsCollisio
  00fb5	3c 43		 cmp	 al, 67			; 00000043H
  00fb7	0f 84 66 f0 ff
	ff		 je	 $LN237@IsCollisio
  00fbd	3c 44		 cmp	 al, 68			; 00000044H
  00fbf	0f 84 5e f0 ff
	ff		 je	 $LN237@IsCollisio
  00fc5	3c 57		 cmp	 al, 87			; 00000057H
  00fc7	0f 84 56 f0 ff
	ff		 je	 $LN237@IsCollisio
  00fcd	3c 8b		 cmp	 al, 139			; 0000008bH
  00fcf	0f 84 4e f0 ff
	ff		 je	 $LN237@IsCollisio

; 544  : 			{
; 545  : 				return false;
; 546  : 			}
; 547  : 			else if( pChar->IsApplyDownState() )

  00fd5	6a 01		 push	 1

; 548  : 			{
; 549  : 				return false;

  00fd7	eb a0		 jmp	 SHORT $LN239@IsCollisio
$LN13@IsCollisio:

; 550  : 			}
; 551  : 		}
; 552  : 		else if( m_TargetWoundType == TWT_FLOATING_STATE )	//     

  00fd9	83 fb 06	 cmp	 ebx, 6
  00fdc	75 0c		 jne	 SHORT $LN6@IsCollisio
$LN241@IsCollisio:

; 553  : 		{
; 554  : 			if( !pChar->IsFloating() )

  00fde	8b ce		 mov	 ecx, esi
  00fe0	e8 00 00 00 00	 call	 ?IsFloating@ioBaseChar@@QAE_NXZ ; ioBaseChar::IsFloating

; 555  : 				return false;

  00fe5	e9 72 ff ff ff	 jmp	 $LN238@IsCollisio
$LN6@IsCollisio:

; 556  : 		}
; 557  : 		else if( m_TargetWoundType == TWT_DOWN_WOUNDED ) //       

  00fea	83 fb 08	 cmp	 ebx, 8
  00fed	0f 85 71 ff ff
	ff		 jne	 $LN2@IsCollisio

; 558  : 		{
; 559  : 			if( pChar->IsApplyDownState() || !pChar->IsFloating() )

  00ff3	6a 01		 push	 1
  00ff5	8b ce		 mov	 ecx, esi
  00ff7	e8 00 00 00 00	 call	 ?IsApplyDownState@ioBaseChar@@QAE_N_N@Z ; ioBaseChar::IsApplyDownState
  00ffc	84 c0		 test	 al, al
  00ffe	0f 85 1f f0 ff
	ff		 jne	 $LN237@IsCollisio

; 560  : 				return false;

  01004	eb d8		 jmp	 SHORT $LN241@IsCollisio
_TEXT	ENDS
;	COMDAT text$x
text$x	SEGMENT
__unwindfunclet$?IsCollision@ioLobeliaWeapon@@UAE_NPAVioPlayEntity@@_N@Z$0:
  00000	8d 8d e4 fe ff
	ff		 lea	 ecx, DWORD PTR _kCylinder$536277[ebp]
  00006	ff 25 00 00 00
	00		 jmp	 DWORD PTR __imp_??1ioCylinder@@QAE@XZ
__unwindfunclet$?IsCollision@ioLobeliaWeapon@@UAE_NPAVioPlayEntity@@_N@Z$1:
  0000c	8d 8d 04 ff ff
	ff		 lea	 ecx, DWORD PTR _kBuffBox$536280[ebp]
  00012	ff 25 00 00 00
	00		 jmp	 DWORD PTR __imp_??1ioOrientBox@@QAE@XZ
__unwindfunclet$?IsCollision@ioLobeliaWeapon@@UAE_NPAVioPlayEntity@@_N@Z$2:
  00018	8d 8d 04 ff ff
	ff		 lea	 ecx, DWORD PTR _kBuffBox$536496[ebp]
  0001e	ff 25 00 00 00
	00		 jmp	 DWORD PTR __imp_??1ioOrientBox@@QAE@XZ
__unwindfunclet$?IsCollision@ioLobeliaWeapon@@UAE_NPAVioPlayEntity@@_N@Z$3:
  00024	8d 8d c4 fe ff
	ff		 lea	 ecx, DWORD PTR _kCylinder$536639[ebp]
  0002a	ff 25 00 00 00
	00		 jmp	 DWORD PTR __imp_??1ioCylinder@@QAE@XZ
__unwindfunclet$?IsCollision@ioLobeliaWeapon@@UAE_NPAVioPlayEntity@@_N@Z$4:
  00030	8d 8d 80 fe ff
	ff		 lea	 ecx, DWORD PTR _kBuffBox$536642[ebp]
  00036	ff 25 00 00 00
	00		 jmp	 DWORD PTR __imp_??1ioOrientBox@@QAE@XZ
__ehhandler$?IsCollision@ioLobeliaWeapon@@UAE_NPAVioPlayEntity@@_N@Z:
  0003c	8b 54 24 08	 mov	 edx, DWORD PTR [esp+8]
  00040	8d 42 0c	 lea	 eax, DWORD PTR [edx+12]
  00043	8b 8a 5c fe ff
	ff		 mov	 ecx, DWORD PTR [edx-420]
  00049	33 c8		 xor	 ecx, eax
  0004b	e8 00 00 00 00	 call	 @__security_check_cookie@4
  00050	8b 4a fc	 mov	 ecx, DWORD PTR [edx-4]
  00053	33 c8		 xor	 ecx, eax
  00055	e8 00 00 00 00	 call	 @__security_check_cookie@4
  0005a	b8 00 00 00 00	 mov	 eax, OFFSET __ehfuncinfo$?IsCollision@ioLobeliaWeapon@@UAE_NPAVioPlayEntity@@_N@Z
  0005f	e9 00 00 00 00	 jmp	 ___CxxFrameHandler3
text$x	ENDS
?IsCollision@ioLobeliaWeapon@@UAE_NPAVioPlayEntity@@_N@Z ENDP ; ioLobeliaWeapon::IsCollision
PUBLIC	_pStage$GSCopy$
PUBLIC	__$ArrayPad$
PUBLIC	?CheckPreCollision@ioLobeliaWeapon@@UAEXPAVioPlayEntity@@PAVioPlayStage@@@Z ; ioLobeliaWeapon::CheckPreCollision
EXTRN	?AddWeaponExplosionEffect@ioPlayStage@@QAEXPAVioPlayEntity@@PAVioWeapon@@W4ApplyWeaponExp@@@Z:PROC ; ioPlayStage::AddWeaponExplosionEffect
EXTRN	?IsEnableTeamAttack@ioBaseChar@@QAE_NXZ:PROC	; ioBaseChar::IsEnableTeamAttack
EXTRN	?GetPiercingType@ioWeapon@@QBE?AW4CharPiercingType@@XZ:PROC ; ioWeapon::GetPiercingType
EXTRN	?GetWorldCollisionBox@ioGameEntity@@QBEABVioOrientBox@@XZ:PROC ; ioGameEntity::GetWorldCollisionBox
EXTRN	__imp_??8ioHashString@@QBE_NABV0@@Z:PROC
; Function compile flags: /Ogsp
;	COMDAT ?CheckPreCollision@ioLobeliaWeapon@@UAEXPAVioPlayEntity@@PAVioPlayStage@@@Z
_TEXT	SEGMENT
$T531156 = -44						; size = 12
_pStage$GSCopy$ = -32					; size = 4
_value$536819 = -28					; size = 4
_pChar$ = -24						; size = 4
_value$536806 = -20					; size = 4
_kBombBox$ = -20					; size = 4
_vDiff$531154 = -16					; size = 12
__$ArrayPad$ = -4					; size = 4
_pTarget$ = 8						; size = 4
_pStage$ = 12						; size = 4
?CheckPreCollision@ioLobeliaWeapon@@UAEXPAVioPlayEntity@@PAVioPlayStage@@@Z PROC ; ioLobeliaWeapon::CheckPreCollision, COMDAT
; _this$ = ecx

; 623  : {

  00000	55		 push	 ebp
  00001	8b ec		 mov	 ebp, esp
  00003	83 ec 2c	 sub	 esp, 44			; 0000002cH
  00006	a1 00 00 00 00	 mov	 eax, DWORD PTR ___security_cookie
  0000b	33 c5		 xor	 eax, ebp
  0000d	89 45 fc	 mov	 DWORD PTR __$ArrayPad$[ebp], eax

; 669  : 
; 670  : 	AddCollisionEntity( pTarget );

  00010	8b 45 0c	 mov	 eax, DWORD PTR _pStage$[ebp]
  00013	56		 push	 esi
  00014	8b f1		 mov	 esi, ecx
  00016	89 45 e0	 mov	 DWORD PTR _pStage$GSCopy$[ebp], eax
  00019	8b 86 94 08 00
	00		 mov	 eax, DWORD PTR [esi+2196]
  0001f	57		 push	 edi
  00020	8b 7d 08	 mov	 edi, DWORD PTR _pTarget$[ebp]
  00023	83 f8 01	 cmp	 eax, 1
  00026	74 09		 je	 SHORT $LN11@CheckPreCo

; 624  : 	if( m_State != TS_MOVE && m_State != TS_PINGPONG )

  00028	83 f8 02	 cmp	 eax, 2
  0002b	0f 85 c0 01 00
	00		 jne	 $LN12@CheckPreCo
$LN11@CheckPreCo:
  00031	53		 push	 ebx

; 625  : 		return;
; 626  : 
; 627  : 	ioBaseChar *pChar = ToBaseChar( pTarget );

  00032	57		 push	 edi
  00033	e8 00 00 00 00	 call	 ?ToBaseChar@@YAPAVioBaseChar@@PAVioGameEntity@@@Z ; ToBaseChar
  00038	8b d8		 mov	 ebx, eax
  0003a	59		 pop	 ecx
  0003b	89 5d e8	 mov	 DWORD PTR _pChar$[ebp], ebx

; 628  : 	if( pChar && pChar->GetCharName() == GetOwnerName() )

  0003e	85 db		 test	 ebx, ebx
  00040	74 29		 je	 SHORT $LN9@CheckPreCo
  00042	8d 46 10	 lea	 eax, DWORD PTR [esi+16]
  00045	50		 push	 eax
  00046	8d 8b d4 02 00
	00		 lea	 ecx, DWORD PTR [ebx+724]
  0004c	ff 15 00 00 00
	00		 call	 DWORD PTR __imp_??8ioHashString@@QBE_NABV0@@Z
  00052	84 c0		 test	 al, al
  00054	0f 85 96 01 00
	00		 jne	 $LN34@CheckPreCo

; 629  : 		return;
; 630  : 
; 631  : 	if( pChar && pChar->IsApplyDownState( false ) )

  0005a	6a 00		 push	 0
  0005c	8b cb		 mov	 ecx, ebx
  0005e	e8 00 00 00 00	 call	 ?IsApplyDownState@ioBaseChar@@QAE_N_N@Z ; ioBaseChar::IsApplyDownState
  00063	84 c0		 test	 al, al
  00065	0f 85 85 01 00
	00		 jne	 $LN34@CheckPreCo
$LN9@CheckPreCo:

; 632  : 		return;
; 633  : 
; 634  : 	if( m_State == TS_PINGPONG && m_bObjectCollision )

  0006b	83 be 94 08 00
	00 02		 cmp	 DWORD PTR [esi+2196], 2
  00072	75 0d		 jne	 SHORT $LN8@CheckPreCo
  00074	80 be 5c 09 00
	00 00		 cmp	 BYTE PTR [esi+2396], 0
  0007b	0f 85 6f 01 00
	00		 jne	 $LN34@CheckPreCo
$LN8@CheckPreCo:

; 635  : 		return;
; 636  : 
; 637  : 	const ioOrientBox &kBombBox = GetWorldAttackBox();

  00081	6a 00		 push	 0
  00083	8b ce		 mov	 ecx, esi
  00085	e8 00 00 00 00	 call	 ?GetWorldAttackBox@ioWeapon@@QBEABVioOrientBox@@_N@Z ; ioWeapon::GetWorldAttackBox

; 638  : 	const ioOrientBox &kWoundedBox = pTarget->GetWorldCollisionBox();

  0008a	8b cf		 mov	 ecx, edi
  0008c	89 45 ec	 mov	 DWORD PTR _kBombBox$[ebp], eax
  0008f	e8 00 00 00 00	 call	 ?GetWorldCollisionBox@ioGameEntity@@QBEABVioOrientBox@@XZ ; ioGameEntity::GetWorldCollisionBox

; 639  : 
; 640  : 	if( !pTarget->IsWoundedCollision( kBombBox ) )

  00094	6a 00		 push	 0
  00096	ff 75 ec	 push	 DWORD PTR _kBombBox$[ebp]
  00099	8b d8		 mov	 ebx, eax
  0009b	8b 07		 mov	 eax, DWORD PTR [edi]
  0009d	8b cf		 mov	 ecx, edi
  0009f	ff 90 90 00 00
	00		 call	 DWORD PTR [eax+144]
  000a5	84 c0		 test	 al, al
  000a7	0f 84 43 01 00
	00		 je	 $LN34@CheckPreCo

; 641  : 		return;
; 642  : 
; 643  : 	if( ToSymbolStruct(pTarget) || ToPushStruct(pTarget) || ToBallStruct(pTarget) ||
; 644  : 		ToDummyChar(pTarget) || ToWallZone(pTarget) ||
; 645  : 		GetPiercingType() == CPT_NONE )

  000ad	57		 push	 edi
  000ae	e8 00 00 00 00	 call	 ?ToSymbolStruct@@YAPAVioSymbolStruct@@PAVioGameEntity@@@Z ; ToSymbolStruct
  000b3	59		 pop	 ecx
  000b4	85 c0		 test	 eax, eax
  000b6	75 3b		 jne	 SHORT $LN5@CheckPreCo
  000b8	57		 push	 edi
  000b9	e8 00 00 00 00	 call	 ?ToPushStruct@@YAPAVioPushStruct@@PAVioGameEntity@@@Z ; ToPushStruct
  000be	59		 pop	 ecx
  000bf	85 c0		 test	 eax, eax
  000c1	75 30		 jne	 SHORT $LN5@CheckPreCo
  000c3	57		 push	 edi
  000c4	e8 00 00 00 00	 call	 ?ToBallStruct@@YAPAVioBall@@PAVioGameEntity@@@Z ; ToBallStruct
  000c9	59		 pop	 ecx
  000ca	85 c0		 test	 eax, eax
  000cc	75 25		 jne	 SHORT $LN5@CheckPreCo
  000ce	57		 push	 edi
  000cf	e8 00 00 00 00	 call	 ?ToDummyChar@@YAPAVioDummyChar@@PAVioGameEntity@@@Z ; ToDummyChar
  000d4	59		 pop	 ecx
  000d5	85 c0		 test	 eax, eax
  000d7	75 1a		 jne	 SHORT $LN5@CheckPreCo
  000d9	57		 push	 edi
  000da	e8 00 00 00 00	 call	 ?ToWallZone@@YAPAVioWallZone@@PAVioGameEntity@@@Z ; ToWallZone
  000df	59		 pop	 ecx
  000e0	85 c0		 test	 eax, eax
  000e2	75 0f		 jne	 SHORT $LN5@CheckPreCo
  000e4	8b ce		 mov	 ecx, esi
  000e6	e8 00 00 00 00	 call	 ?GetPiercingType@ioWeapon@@QBE?AW4CharPiercingType@@XZ ; ioWeapon::GetPiercingType
  000eb	85 c0		 test	 eax, eax
  000ed	0f 85 a4 00 00
	00		 jne	 $LN4@CheckPreCo
$LN5@CheckPreCo:

; 646  : 	{
; 647  : 		m_bObjectCollision = true;
; 648  : 
; 649  : 		D3DXVECTOR3 vDiff = kBombBox.GetCenter() - kWoundedBox.GetCenter();

  000f3	8b cb		 mov	 ecx, ebx
  000f5	c6 86 5c 09 00
	00 01		 mov	 BYTE PTR [esi+2396], 1
  000fc	ff 15 00 00 00
	00		 call	 DWORD PTR __imp_?GetCenter@ioOrientBox@@QBEABUD3DXVECTOR3@@XZ
  00102	8b 4d ec	 mov	 ecx, DWORD PTR _kBombBox$[ebp]
  00105	8b d8		 mov	 ebx, eax
  00107	ff 15 00 00 00
	00		 call	 DWORD PTR __imp_?GetCenter@ioOrientBox@@QBEABUD3DXVECTOR3@@XZ
  0010d	f3 0f 10 40 08	 movss	 xmm0, DWORD PTR [eax+8]
  00112	f3 0f 10 4b 08	 movss	 xmm1, DWORD PTR [ebx+8]
  00117	f3 0f 10 13	 movss	 xmm2, DWORD PTR [ebx]
  0011b	0f 5a c9	 cvtps2pd xmm1, xmm1
  0011e	0f 5a c0	 cvtps2pd xmm0, xmm0
  00121	f2 0f 5c c1	 subsd	 xmm0, xmm1
  00125	f3 0f 10 08	 movss	 xmm1, DWORD PTR [eax]

; 650  : 		vDiff.y = 0.0f;
; 651  : 		D3DXVec3Normalize( &vDiff, &vDiff );

  00129	8d 45 f0	 lea	 eax, DWORD PTR _vDiff$531154[ebp]
  0012c	66 0f 5a c0	 cvtpd2ps xmm0, xmm0
  00130	0f 5a c9	 cvtps2pd xmm1, xmm1
  00133	0f 5a d2	 cvtps2pd xmm2, xmm2
  00136	50		 push	 eax
  00137	f2 0f 5c ca	 subsd	 xmm1, xmm2
  0013b	f3 0f 11 45 f8	 movss	 DWORD PTR _vDiff$531154[ebp+8], xmm0
  00140	0f 57 c0	 xorps	 xmm0, xmm0
  00143	66 0f 5a c9	 cvtpd2ps xmm1, xmm1
  00147	50		 push	 eax
  00148	f3 0f 11 4d f0	 movss	 DWORD PTR _vDiff$531154[ebp], xmm1
  0014d	f3 0f 11 45 f4	 movss	 DWORD PTR _vDiff$531154[ebp+4], xmm0
  00152	e8 00 00 00 00	 call	 _D3DXVec3Normalize@8

; 652  : 
; 653  : 		SetWallCollision( -vDiff );

  00157	f3 0f 10 05 00
	00 00 00	 movss	 xmm0, DWORD PTR __mask@@NegFloat@
  0015f	f3 0f 10 4d f0	 movss	 xmm1, DWORD PTR _vDiff$531154[ebp]
  00164	0f 57 c8	 xorps	 xmm1, xmm0
  00167	f3 0f 11 4d d4	 movss	 DWORD PTR $T531156[ebp], xmm1
  0016c	f3 0f 10 4d f4	 movss	 xmm1, DWORD PTR _vDiff$531154[ebp+4]
  00171	0f 57 c8	 xorps	 xmm1, xmm0
  00174	f3 0f 11 4d d8	 movss	 DWORD PTR $T531156[ebp+4], xmm1
  00179	f3 0f 10 4d f8	 movss	 xmm1, DWORD PTR _vDiff$531154[ebp+8]
  0017e	8d 45 d4	 lea	 eax, DWORD PTR $T531156[ebp]
  00181	0f 57 c8	 xorps	 xmm1, xmm0
  00184	50		 push	 eax
  00185	8b ce		 mov	 ecx, esi
  00187	f3 0f 11 4d dc	 movss	 DWORD PTR $T531156[ebp+8], xmm1
  0018c	e8 00 00 00 00	 call	 ?SetWallCollision@ioLobeliaWeapon@@QAEXABUD3DXVECTOR3@@@Z ; ioLobeliaWeapon::SetWallCollision

; 654  : 
; 655  : 		if( !pChar )

  00191	83 7d e8 00	 cmp	 DWORD PTR _pChar$[ebp], 0
  00195	74 59		 je	 SHORT $LN34@CheckPreCo
$LN4@CheckPreCo:

; 656  : 			return;
; 657  : 	}
; 658  : 
; 659  : 	if( pTarget->GetTeam() == GetTeam() )

  00197	8d 45 ec	 lea	 eax, DWORD PTR _value$536806[ebp]
  0019a	50		 push	 eax
  0019b	8d 8f 90 00 00
	00		 lea	 ecx, DWORD PTR [edi+144]
  001a1	e8 00 00 00 00	 call	 ?DecryptValueToPool@?$CEncrypt@W4TeamType@@@@QAEXPAW4TeamType@@@Z ; CEncrypt<enum TeamType>::DecryptValueToPool
  001a6	8d 45 e4	 lea	 eax, DWORD PTR _value$536819[ebp]
  001a9	50		 push	 eax
  001aa	8d 4e 30	 lea	 ecx, DWORD PTR [esi+48]
  001ad	e8 00 00 00 00	 call	 ?DecryptValueToPool@?$CEncrypt@W4TeamType@@@@QAEXPAW4TeamType@@@Z ; CEncrypt<enum TeamType>::DecryptValueToPool
  001b2	8b 45 ec	 mov	 eax, DWORD PTR _value$536806[ebp]
  001b5	3b 45 e4	 cmp	 eax, DWORD PTR _value$536819[ebp]
  001b8	75 10		 jne	 SHORT $LN2@CheckPreCo

; 660  : 	{
; 661  : 		if( !pChar || !pChar->IsEnableTeamAttack() )

  001ba	8b 4d e8	 mov	 ecx, DWORD PTR _pChar$[ebp]
  001bd	85 c9		 test	 ecx, ecx
  001bf	74 2f		 je	 SHORT $LN34@CheckPreCo
  001c1	e8 00 00 00 00	 call	 ?IsEnableTeamAttack@ioBaseChar@@QAE_NXZ ; ioBaseChar::IsEnableTeamAttack
  001c6	84 c0		 test	 al, al

; 662  : 			return;

  001c8	74 26		 je	 SHORT $LN34@CheckPreCo
$LN2@CheckPreCo:

; 663  : 	}
; 664  : 
; 665  : 	CheckCurAttribute( pTarget );

  001ca	8b 06		 mov	 eax, DWORD PTR [esi]
  001cc	57		 push	 edi
  001cd	8b ce		 mov	 ecx, esi
  001cf	ff 90 f0 00 00
	00		 call	 DWORD PTR [eax+240]

; 666  : 
; 667  : 	ApplyWeaponExp eExplosionType = pTarget->ApplyWeapon( this );

  001d5	8b 07		 mov	 eax, DWORD PTR [edi]
  001d7	56		 push	 esi
  001d8	8b cf		 mov	 ecx, edi
  001da	ff 50 7c	 call	 DWORD PTR [eax+124]

; 668  : 	pStage->AddWeaponExplosionEffect( pTarget, this, eExplosionType );

  001dd	8b 4d e0	 mov	 ecx, DWORD PTR _pStage$GSCopy$[ebp]
  001e0	50		 push	 eax
  001e1	56		 push	 esi
  001e2	57		 push	 edi
  001e3	e8 00 00 00 00	 call	 ?AddWeaponExplosionEffect@ioPlayStage@@QAEXPAVioPlayEntity@@PAVioWeapon@@W4ApplyWeaponExp@@@Z ; ioPlayStage::AddWeaponExplosionEffect

; 669  : 
; 670  : 	AddCollisionEntity( pTarget );

  001e8	8b 06		 mov	 eax, DWORD PTR [esi]
  001ea	57		 push	 edi
  001eb	8b ce		 mov	 ecx, esi
  001ed	ff 50 04	 call	 DWORD PTR [eax+4]
$LN34@CheckPreCo:
  001f0	5b		 pop	 ebx
$LN12@CheckPreCo:

; 671  : }

  001f1	8b 4d fc	 mov	 ecx, DWORD PTR __$ArrayPad$[ebp]
  001f4	5f		 pop	 edi
  001f5	33 cd		 xor	 ecx, ebp
  001f7	5e		 pop	 esi
  001f8	e8 00 00 00 00	 call	 @__security_check_cookie@4
  001fd	c9		 leave
  001fe	c2 08 00	 ret	 8
?CheckPreCollision@ioLobeliaWeapon@@UAEXPAVioPlayEntity@@PAVioPlayStage@@@Z ENDP ; ioLobeliaWeapon::CheckPreCollision
_TEXT	ENDS
PUBLIC	??$_Cons_val@V?$allocator@UBuffInfoStruct@@@std@@UBuffInfoStruct@@ABU3@@std@@YAXAAV?$allocator@UBuffInfoStruct@@@0@PAUBuffInfoStruct@@ABU2@@Z ; std::_Cons_val<std::allocator<BuffInfoStruct>,BuffInfoStruct,BuffInfoStruct const &>
; Function compile flags: /Ogsp
; File c:\program files (x86)\microsoft visual studio 10.0\vc\include\xmemory
;	COMDAT ??$_Cons_val@V?$allocator@UBuffInfoStruct@@@std@@UBuffInfoStruct@@ABU3@@std@@YAXAAV?$allocator@UBuffInfoStruct@@@0@PAUBuffInfoStruct@@ABU2@@Z
_TEXT	SEGMENT
__Alval$ = 8						; size = 4
__Pdest$ = 12						; size = 4
__Src$ = 16						; size = 4
??$_Cons_val@V?$allocator@UBuffInfoStruct@@@std@@UBuffInfoStruct@@ABU3@@std@@YAXAAV?$allocator@UBuffInfoStruct@@@0@PAUBuffInfoStruct@@ABU2@@Z PROC ; std::_Cons_val<std::allocator<BuffInfoStruct>,BuffInfoStruct,BuffInfoStruct const &>, COMDAT

; 279  : 	{	// construct using allocator

  00000	55		 push	 ebp
  00001	8b ec		 mov	 ebp, esp

; 280  : 	_Alval.construct(_Pdest, _STD forward<_Ty2>(_Src));

  00003	ff 75 10	 push	 DWORD PTR __Src$[ebp]
  00006	ff 75 0c	 push	 DWORD PTR __Pdest$[ebp]
  00009	e8 00 00 00 00	 call	 ??$_Construct@UBuffInfoStruct@@ABU1@@std@@YAXPAUBuffInfoStruct@@ABU1@@Z ; std::_Construct<BuffInfoStruct,BuffInfoStruct const &>
  0000e	59		 pop	 ecx
  0000f	59		 pop	 ecx

; 281  : 	}

  00010	5d		 pop	 ebp
  00011	c3		 ret	 0
??$_Cons_val@V?$allocator@UBuffInfoStruct@@@std@@UBuffInfoStruct@@ABU3@@std@@YAXAAV?$allocator@UBuffInfoStruct@@@0@PAUBuffInfoStruct@@ABU2@@Z ENDP ; std::_Cons_val<std::allocator<BuffInfoStruct>,BuffInfoStruct,BuffInfoStruct const &>
_TEXT	ENDS
PUBLIC	??$_Dest_val@V?$allocator@UBuffInfoStruct@@@std@@UBuffInfoStruct@@@std@@YAXAAV?$allocator@UBuffInfoStruct@@@0@PAUBuffInfoStruct@@@Z ; std::_Dest_val<std::allocator<BuffInfoStruct>,BuffInfoStruct>
; Function compile flags: /Ogsp
;	COMDAT ??$_Dest_val@V?$allocator@UBuffInfoStruct@@@std@@UBuffInfoStruct@@@std@@YAXAAV?$allocator@UBuffInfoStruct@@@0@PAUBuffInfoStruct@@@Z
_TEXT	SEGMENT
__Alval$ = 8						; size = 4
__Pdest$ = 12						; size = 4
??$_Dest_val@V?$allocator@UBuffInfoStruct@@@std@@UBuffInfoStruct@@@std@@YAXAAV?$allocator@UBuffInfoStruct@@@0@PAUBuffInfoStruct@@@Z PROC ; std::_Dest_val<std::allocator<BuffInfoStruct>,BuffInfoStruct>, COMDAT

; 286  : 	{	// destroy using allocator

  00000	55		 push	 ebp
  00001	8b ec		 mov	 ebp, esp

; 287  : 	_Alval.destroy(_Pdest);

  00003	8b 4d 0c	 mov	 ecx, DWORD PTR __Pdest$[ebp]

; 288  : 	}

  00006	5d		 pop	 ebp

; 287  : 	_Alval.destroy(_Pdest);

  00007	ff 25 00 00 00
	00		 jmp	 DWORD PTR __imp_??1ioHashString@@QAE@XZ
??$_Dest_val@V?$allocator@UBuffInfoStruct@@@std@@UBuffInfoStruct@@@std@@YAXAAV?$allocator@UBuffInfoStruct@@@0@PAUBuffInfoStruct@@@Z ENDP ; std::_Dest_val<std::allocator<BuffInfoStruct>,BuffInfoStruct>
_TEXT	ENDS
PUBLIC	??$_Uninit_move@PAUBuffInfoStruct@@PAU1@V?$allocator@UBuffInfoStruct@@@std@@U1@@std@@YAPAUBuffInfoStruct@@PAU1@00AAV?$allocator@UBuffInfoStruct@@@0@0U_Nonscalar_ptr_iterator_tag@0@@Z ; std::_Uninit_move<BuffInfoStruct *,BuffInfoStruct *,std::allocator<BuffInfoStruct>,BuffInfoStruct>
EXTRN	__EH_prolog3_catch:PROC
;	COMDAT xdata$x
; File d:\lost saga for developer\youtube\tutorial\source\src\lsclient\weaponattribute.h
xdata$x	SEGMENT
__catchsym$??$_Uninit_move@PAUBuffInfoStruct@@PAU1@V?$allocator@UBuffInfoStruct@@@std@@U1@@std@@YAPAUBuffInfoStruct@@PAU1@00AAV?$allocator@UBuffInfoStruct@@@0@0U_Nonscalar_ptr_iterator_tag@0@@Z$3 DD 040H
	DD	00H
	DD	00H
	DD	FLAT:__catch$??$_Uninit_move@PAUBuffInfoStruct@@PAU1@V?$allocator@UBuffInfoStruct@@@std@@U1@@std@@YAPAUBuffInfoStruct@@PAU1@00AAV?$allocator@UBuffInfoStruct@@@0@0U_Nonscalar_ptr_iterator_tag@0@@Z$0
__unwindtable$??$_Uninit_move@PAUBuffInfoStruct@@PAU1@V?$allocator@UBuffInfoStruct@@@std@@U1@@std@@YAPAUBuffInfoStruct@@PAU1@00AAV?$allocator@UBuffInfoStruct@@@0@0U_Nonscalar_ptr_iterator_tag@0@@Z DD 0ffffffffH
	DD	00H
	DD	0ffffffffH
	DD	00H
__tryblocktable$??$_Uninit_move@PAUBuffInfoStruct@@PAU1@V?$allocator@UBuffInfoStruct@@@std@@U1@@std@@YAPAUBuffInfoStruct@@PAU1@00AAV?$allocator@UBuffInfoStruct@@@0@0U_Nonscalar_ptr_iterator_tag@0@@Z DD 00H
	DD	00H
	DD	01H
	DD	01H
	DD	FLAT:__catchsym$??$_Uninit_move@PAUBuffInfoStruct@@PAU1@V?$allocator@UBuffInfoStruct@@@std@@U1@@std@@YAPAUBuffInfoStruct@@PAU1@00AAV?$allocator@UBuffInfoStruct@@@0@0U_Nonscalar_ptr_iterator_tag@0@@Z$3
__ehfuncinfo$??$_Uninit_move@PAUBuffInfoStruct@@PAU1@V?$allocator@UBuffInfoStruct@@@std@@U1@@std@@YAPAUBuffInfoStruct@@PAU1@00AAV?$allocator@UBuffInfoStruct@@@0@0U_Nonscalar_ptr_iterator_tag@0@@Z DD 019930522H
	DD	02H
	DD	FLAT:__unwindtable$??$_Uninit_move@PAUBuffInfoStruct@@PAU1@V?$allocator@UBuffInfoStruct@@@std@@U1@@std@@YAPAUBuffInfoStruct@@PAU1@00AAV?$allocator@UBuffInfoStruct@@@0@0U_Nonscalar_ptr_iterator_tag@0@@Z
	DD	01H
	DD	FLAT:__tryblocktable$??$_Uninit_move@PAUBuffInfoStruct@@PAU1@V?$allocator@UBuffInfoStruct@@@std@@U1@@std@@YAPAUBuffInfoStruct@@PAU1@00AAV?$allocator@UBuffInfoStruct@@@0@0U_Nonscalar_ptr_iterator_tag@0@@Z
	DD	2 DUP(00H)
	DD	00H
	DD	01H
; Function compile flags: /Ogsp
; File c:\program files (x86)\microsoft visual studio 10.0\vc\include\memory
xdata$x	ENDS
;	COMDAT ??$_Uninit_move@PAUBuffInfoStruct@@PAU1@V?$allocator@UBuffInfoStruct@@@std@@U1@@std@@YAPAUBuffInfoStruct@@PAU1@00AAV?$allocator@UBuffInfoStruct@@@0@0U_Nonscalar_ptr_iterator_tag@0@@Z
_TEXT	SEGMENT
__Next$ = -20						; size = 4
__$EHRec$ = -16						; size = 16
__First$ = 8						; size = 4
__Last$ = 12						; size = 4
__Dest$ = 16						; size = 4
__Al$ = 20						; size = 4
___formal$ = 24						; size = 4
___formal$ = 28						; size = 1
??$_Uninit_move@PAUBuffInfoStruct@@PAU1@V?$allocator@UBuffInfoStruct@@@std@@U1@@std@@YAPAUBuffInfoStruct@@PAU1@00AAV?$allocator@UBuffInfoStruct@@@0@0U_Nonscalar_ptr_iterator_tag@0@@Z PROC ; std::_Uninit_move<BuffInfoStruct *,BuffInfoStruct *,std::allocator<BuffInfoStruct>,BuffInfoStruct>, COMDAT

; 424  : 	{	// move [_First, _Last) to raw _Dest, using _Al, arbitrary type

  00000	6a 08		 push	 8
  00002	b8 00 00 00 00	 mov	 eax, __ehhandler$??$_Uninit_move@PAUBuffInfoStruct@@PAU1@V?$allocator@UBuffInfoStruct@@@std@@U1@@std@@YAPAUBuffInfoStruct@@PAU1@00AAV?$allocator@UBuffInfoStruct@@@0@0U_Nonscalar_ptr_iterator_tag@0@@Z
  00007	e8 00 00 00 00	 call	 __EH_prolog3_catch

; 425  : 	_DEBUG_RANGE(_First, _Last);
; 426  : 	_DEBUG_POINTER(_Dest);
; 427  : 	_FwdIt _Next = _Dest;

  0000c	8b 45 10	 mov	 eax, DWORD PTR __Dest$[ebp]

; 428  : 
; 429  : 	_TRY_BEGIN

  0000f	83 65 fc 00	 and	 DWORD PTR __$EHRec$[ebp+12], 0
  00013	8b 75 08	 mov	 esi, DWORD PTR __First$[ebp]
  00016	89 45 ec	 mov	 DWORD PTR __Next$[ebp], eax
$LL6@Uninit_mov:

; 430  : 	for (; _First != _Last; ++_Dest, ++_First)

  00019	3b 75 0c	 cmp	 esi, DWORD PTR __Last$[ebp]
  0001c	74 33		 je	 SHORT $LN4@Uninit_mov

; 431  : 		_Cons_val(_Al, _Dest, (_Valty &&)*_First);

  0001e	8b 4d 14	 mov	 ecx, DWORD PTR __Al$[ebp]
  00021	56		 push	 esi
  00022	ff 75 10	 push	 DWORD PTR __Dest$[ebp]
  00025	e8 00 00 00 00	 call	 ?construct@?$allocator@UBuffInfoStruct@@@std@@QAEXPAUBuffInfoStruct@@$$QAU3@@Z ; std::allocator<BuffInfoStruct>::construct
  0002a	83 45 10 14	 add	 DWORD PTR __Dest$[ebp], 20 ; 00000014H
  0002e	83 c6 14	 add	 esi, 20			; 00000014H
  00031	eb e6		 jmp	 SHORT $LL6@Uninit_mov
__catch$??$_Uninit_move@PAUBuffInfoStruct@@PAU1@V?$allocator@UBuffInfoStruct@@@std@@U1@@std@@YAPAUBuffInfoStruct@@PAU1@00AAV?$allocator@UBuffInfoStruct@@@0@0U_Nonscalar_ptr_iterator_tag@0@@Z$0:

; 432  : 	_CATCH_ALL
; 433  : 	for (; _Next != _Dest; ++_Next)

  00033	8b 75 ec	 mov	 esi, DWORD PTR __Next$[ebp]
  00036	eb 0b		 jmp	 SHORT $LN36@Uninit_mov
$LL3@Uninit_mov:

; 434  : 		_Dest_val(_Al, _Next);

  00038	8b ce		 mov	 ecx, esi
  0003a	ff 15 00 00 00
	00		 call	 DWORD PTR __imp_??1ioHashString@@QAE@XZ
  00040	83 c6 14	 add	 esi, 20			; 00000014H
$LN36@Uninit_mov:

; 432  : 	_CATCH_ALL
; 433  : 	for (; _Next != _Dest; ++_Next)

  00043	3b 75 10	 cmp	 esi, DWORD PTR __Dest$[ebp]
  00046	75 f0		 jne	 SHORT $LL3@Uninit_mov

; 435  : 	_RERAISE;

  00048	6a 00		 push	 0
  0004a	6a 00		 push	 0
  0004c	e8 00 00 00 00	 call	 __CxxThrowException@8
$LN37@Uninit_mov:
$LN4@Uninit_mov:

; 436  : 	_CATCH_END
; 437  : 	return (_Dest);

  00051	8b 45 10	 mov	 eax, DWORD PTR __Dest$[ebp]

; 438  : 	}

  00054	e8 00 00 00 00	 call	 __EH_epilog3
  00059	c3		 ret	 0
$LN35@Uninit_mov:
_TEXT	ENDS
;	COMDAT text$x
text$x	SEGMENT
__ehhandler$??$_Uninit_move@PAUBuffInfoStruct@@PAU1@V?$allocator@UBuffInfoStruct@@@std@@U1@@std@@YAPAUBuffInfoStruct@@PAU1@00AAV?$allocator@UBuffInfoStruct@@@0@0U_Nonscalar_ptr_iterator_tag@0@@Z:
  00000	8b 54 24 08	 mov	 edx, DWORD PTR [esp+8]
  00004	8d 42 0c	 lea	 eax, DWORD PTR [edx+12]
  00007	8b 4a e8	 mov	 ecx, DWORD PTR [edx-24]
  0000a	33 c8		 xor	 ecx, eax
  0000c	e8 00 00 00 00	 call	 @__security_check_cookie@4
  00011	b8 00 00 00 00	 mov	 eax, OFFSET __ehfuncinfo$??$_Uninit_move@PAUBuffInfoStruct@@PAU1@V?$allocator@UBuffInfoStruct@@@std@@U1@@std@@YAPAUBuffInfoStruct@@PAU1@00AAV?$allocator@UBuffInfoStruct@@@0@0U_Nonscalar_ptr_iterator_tag@0@@Z
  00016	e9 00 00 00 00	 jmp	 ___CxxFrameHandler3
text$x	ENDS
??$_Uninit_move@PAUBuffInfoStruct@@PAU1@V?$allocator@UBuffInfoStruct@@@std@@U1@@std@@YAPAUBuffInfoStruct@@PAU1@00AAV?$allocator@UBuffInfoStruct@@@0@0U_Nonscalar_ptr_iterator_tag@0@@Z ENDP ; std::_Uninit_move<BuffInfoStruct *,BuffInfoStruct *,std::allocator<BuffInfoStruct>,BuffInfoStruct>
PUBLIC	??$_Destroy_range@V?$allocator@UBuffInfoStruct@@@std@@@std@@YAXPAUBuffInfoStruct@@0AAV?$allocator@UBuffInfoStruct@@@0@U_Nonscalar_ptr_iterator_tag@0@@Z ; std::_Destroy_range<std::allocator<BuffInfoStruct> >
; Function compile flags: /Ogsp
; File c:\program files (x86)\microsoft visual studio 10.0\vc\include\xmemory
;	COMDAT ??$_Destroy_range@V?$allocator@UBuffInfoStruct@@@std@@@std@@YAXPAUBuffInfoStruct@@0AAV?$allocator@UBuffInfoStruct@@@0@U_Nonscalar_ptr_iterator_tag@0@@Z
_TEXT	SEGMENT
__First$ = 8						; size = 4
__Last$ = 12						; size = 4
__Al$ = 16						; size = 4
___formal$ = 20						; size = 1
??$_Destroy_range@V?$allocator@UBuffInfoStruct@@@std@@@std@@YAXPAUBuffInfoStruct@@0AAV?$allocator@UBuffInfoStruct@@@0@U_Nonscalar_ptr_iterator_tag@0@@Z PROC ; std::_Destroy_range<std::allocator<BuffInfoStruct> >, COMDAT

; 95   : 	{	// destroy [_First, _Last), arbitrary type

  00000	55		 push	 ebp
  00001	8b ec		 mov	 ebp, esp
  00003	56		 push	 esi

; 96   : 	for (; _First != _Last; ++_First)

  00004	8b 75 08	 mov	 esi, DWORD PTR __First$[ebp]
  00007	eb 0b		 jmp	 SHORT $LN20@Destroy_ra
$LL3@Destroy_ra:

; 97   : 		_Dest_val(_Al, _First);

  00009	8b ce		 mov	 ecx, esi
  0000b	ff 15 00 00 00
	00		 call	 DWORD PTR __imp_??1ioHashString@@QAE@XZ
  00011	83 c6 14	 add	 esi, 20			; 00000014H
$LN20@Destroy_ra:

; 96   : 	for (; _First != _Last; ++_First)

  00014	3b 75 0c	 cmp	 esi, DWORD PTR __Last$[ebp]
  00017	75 f0		 jne	 SHORT $LL3@Destroy_ra
  00019	5e		 pop	 esi

; 98   : 	}

  0001a	5d		 pop	 ebp
  0001b	c3		 ret	 0
??$_Destroy_range@V?$allocator@UBuffInfoStruct@@@std@@@std@@YAXPAUBuffInfoStruct@@0AAV?$allocator@UBuffInfoStruct@@@0@U_Nonscalar_ptr_iterator_tag@0@@Z ENDP ; std::_Destroy_range<std::allocator<BuffInfoStruct> >
_TEXT	ENDS
PUBLIC	??$_Uninitialized_move@PAUBuffInfoStruct@@PAU1@V?$allocator@UBuffInfoStruct@@@std@@@std@@YAPAUBuffInfoStruct@@PAU1@00AAV?$allocator@UBuffInfoStruct@@@0@@Z ; std::_Uninitialized_move<BuffInfoStruct *,BuffInfoStruct *,std::allocator<BuffInfoStruct> >
; Function compile flags: /Ogsp
; File c:\program files (x86)\microsoft visual studio 10.0\vc\include\memory
;	COMDAT ??$_Uninitialized_move@PAUBuffInfoStruct@@PAU1@V?$allocator@UBuffInfoStruct@@@std@@@std@@YAPAUBuffInfoStruct@@PAU1@00AAV?$allocator@UBuffInfoStruct@@@0@@Z
_TEXT	SEGMENT
__Cat$536985 = -4					; size = 1
__First$ = 8						; size = 4
__Last$ = 12						; size = 4
__Dest$ = 16						; size = 4
__Al$ = 20						; size = 4
??$_Uninitialized_move@PAUBuffInfoStruct@@PAU1@V?$allocator@UBuffInfoStruct@@@std@@@std@@YAPAUBuffInfoStruct@@PAU1@00AAV?$allocator@UBuffInfoStruct@@@0@@Z PROC ; std::_Uninitialized_move<BuffInfoStruct *,BuffInfoStruct *,std::allocator<BuffInfoStruct> >, COMDAT

; 469  : 	{	// move [_First, _Last) to raw _Dest, using _Al

  00000	55		 push	 ebp
  00001	8b ec		 mov	 ebp, esp
  00003	51		 push	 ecx

; 470  : 	return (_Uninit_move(_First, _Last, _Dest, _Al,
; 471  : 		_Val_type(_First), _Ptr_cat(_First, _Dest)));

  00004	ff 75 fc	 push	 DWORD PTR __Cat$536985[ebp]
  00007	6a 00		 push	 0
  00009	ff 75 14	 push	 DWORD PTR __Al$[ebp]
  0000c	ff 75 10	 push	 DWORD PTR __Dest$[ebp]
  0000f	ff 75 0c	 push	 DWORD PTR __Last$[ebp]
  00012	ff 75 08	 push	 DWORD PTR __First$[ebp]
  00015	e8 00 00 00 00	 call	 ??$_Uninit_move@PAUBuffInfoStruct@@PAU1@V?$allocator@UBuffInfoStruct@@@std@@U1@@std@@YAPAUBuffInfoStruct@@PAU1@00AAV?$allocator@UBuffInfoStruct@@@0@0U_Nonscalar_ptr_iterator_tag@0@@Z ; std::_Uninit_move<BuffInfoStruct *,BuffInfoStruct *,std::allocator<BuffInfoStruct>,BuffInfoStruct>
  0001a	83 c4 18	 add	 esp, 24			; 00000018H

; 472  : 	}

  0001d	c9		 leave
  0001e	c3		 ret	 0
??$_Uninitialized_move@PAUBuffInfoStruct@@PAU1@V?$allocator@UBuffInfoStruct@@@std@@@std@@YAPAUBuffInfoStruct@@PAU1@00AAV?$allocator@UBuffInfoStruct@@@0@@Z ENDP ; std::_Uninitialized_move<BuffInfoStruct *,BuffInfoStruct *,std::allocator<BuffInfoStruct> >
_TEXT	ENDS
PUBLIC	??$_Destroy_range@V?$allocator@UBuffInfoStruct@@@std@@@std@@YAXPAUBuffInfoStruct@@0AAV?$allocator@UBuffInfoStruct@@@0@@Z ; std::_Destroy_range<std::allocator<BuffInfoStruct> >
; Function compile flags: /Ogsp
; File c:\program files (x86)\microsoft visual studio 10.0\vc\include\xmemory
;	COMDAT ??$_Destroy_range@V?$allocator@UBuffInfoStruct@@@std@@@std@@YAXPAUBuffInfoStruct@@0AAV?$allocator@UBuffInfoStruct@@@0@@Z
_TEXT	SEGMENT
__First$ = 8						; size = 4
__Last$ = 12						; size = 4
__Al$ = 16						; size = 4
??$_Destroy_range@V?$allocator@UBuffInfoStruct@@@std@@@std@@YAXPAUBuffInfoStruct@@0AAV?$allocator@UBuffInfoStruct@@@0@@Z PROC ; std::_Destroy_range<std::allocator<BuffInfoStruct> >, COMDAT

; 87   : 	{	// destroy [_First, _Last)

  00000	55		 push	 ebp
  00001	8b ec		 mov	 ebp, esp
  00003	56		 push	 esi

; 88   : 	_Destroy_range(_First, _Last, _Al, _Ptr_cat(_First, _Last));

  00004	8b 75 08	 mov	 esi, DWORD PTR __First$[ebp]
  00007	eb 0b		 jmp	 SHORT $LN24@Destroy_ra@2
$LL7@Destroy_ra@2:
  00009	8b ce		 mov	 ecx, esi
  0000b	ff 15 00 00 00
	00		 call	 DWORD PTR __imp_??1ioHashString@@QAE@XZ
  00011	83 c6 14	 add	 esi, 20			; 00000014H
$LN24@Destroy_ra@2:
  00014	3b 75 0c	 cmp	 esi, DWORD PTR __Last$[ebp]
  00017	75 f0		 jne	 SHORT $LL7@Destroy_ra@2
  00019	5e		 pop	 esi

; 89   : 	}

  0001a	5d		 pop	 ebp
  0001b	c3		 ret	 0
??$_Destroy_range@V?$allocator@UBuffInfoStruct@@@std@@@std@@YAXPAUBuffInfoStruct@@0AAV?$allocator@UBuffInfoStruct@@@0@@Z ENDP ; std::_Destroy_range<std::allocator<BuffInfoStruct> >
_TEXT	ENDS
PUBLIC	??$_Umove@PAUBuffInfoStruct@@@?$vector@UBuffInfoStruct@@V?$allocator@UBuffInfoStruct@@@std@@@std@@IAEPAUBuffInfoStruct@@PAU2@00@Z ; std::vector<BuffInfoStruct,std::allocator<BuffInfoStruct> >::_Umove<BuffInfoStruct *>
; Function compile flags: /Ogsp
; File c:\program files (x86)\microsoft visual studio 10.0\vc\include\vector
;	COMDAT ??$_Umove@PAUBuffInfoStruct@@@?$vector@UBuffInfoStruct@@V?$allocator@UBuffInfoStruct@@@std@@@std@@IAEPAUBuffInfoStruct@@PAU2@00@Z
_TEXT	SEGMENT
__First$ = 8						; size = 4
__Last$ = 12						; size = 4
__Ptr$ = 16						; size = 4
??$_Umove@PAUBuffInfoStruct@@@?$vector@UBuffInfoStruct@@V?$allocator@UBuffInfoStruct@@@std@@@std@@IAEPAUBuffInfoStruct@@PAU2@00@Z PROC ; std::vector<BuffInfoStruct,std::allocator<BuffInfoStruct> >::_Umove<BuffInfoStruct *>, COMDAT
; _this$ = ecx

; 1322 : 		pointer _Umove(_Iter _First, _Iter _Last, pointer _Ptr)

  00000	55		 push	 ebp
  00001	8b ec		 mov	 ebp, esp

; 1323 : 		{	// move initializing [_First, _Last), using allocator
; 1324 : 		return (_Uninitialized_move(_First, _Last,
; 1325 : 			_Ptr, this->_Alval));

  00003	83 c1 0c	 add	 ecx, 12			; 0000000cH
  00006	51		 push	 ecx
  00007	ff 75 10	 push	 DWORD PTR __Ptr$[ebp]
  0000a	ff 75 0c	 push	 DWORD PTR __Last$[ebp]
  0000d	ff 75 08	 push	 DWORD PTR __First$[ebp]
  00010	e8 00 00 00 00	 call	 ??$_Uninitialized_move@PAUBuffInfoStruct@@PAU1@V?$allocator@UBuffInfoStruct@@@std@@@std@@YAPAUBuffInfoStruct@@PAU1@00AAV?$allocator@UBuffInfoStruct@@@0@@Z ; std::_Uninitialized_move<BuffInfoStruct *,BuffInfoStruct *,std::allocator<BuffInfoStruct> >
  00015	83 c4 10	 add	 esp, 16			; 00000010H

; 1326 : 		}

  00018	5d		 pop	 ebp
  00019	c2 0c 00	 ret	 12			; 0000000cH
??$_Umove@PAUBuffInfoStruct@@@?$vector@UBuffInfoStruct@@V?$allocator@UBuffInfoStruct@@@std@@@std@@IAEPAUBuffInfoStruct@@PAU2@00@Z ENDP ; std::vector<BuffInfoStruct,std::allocator<BuffInfoStruct> >::_Umove<BuffInfoStruct *>
_TEXT	ENDS
PUBLIC	?_Destroy@?$vector@UBuffInfoStruct@@V?$allocator@UBuffInfoStruct@@@std@@@std@@IAEXPAUBuffInfoStruct@@0@Z ; std::vector<BuffInfoStruct,std::allocator<BuffInfoStruct> >::_Destroy
; Function compile flags: /Ogsp
;	COMDAT ?_Destroy@?$vector@UBuffInfoStruct@@V?$allocator@UBuffInfoStruct@@@std@@@std@@IAEXPAUBuffInfoStruct@@0@Z
_TEXT	SEGMENT
__First$ = 8						; size = 4
__Last$ = 12						; size = 4
?_Destroy@?$vector@UBuffInfoStruct@@V?$allocator@UBuffInfoStruct@@@std@@@std@@IAEXPAUBuffInfoStruct@@0@Z PROC ; std::vector<BuffInfoStruct,std::allocator<BuffInfoStruct> >::_Destroy, COMDAT
; _this$ = ecx

; 1269 : 		{	// destroy [_First, _Last) using allocator

  00000	55		 push	 ebp
  00001	8b ec		 mov	 ebp, esp
  00003	56		 push	 esi

; 1270 : 		_Destroy_range(_First, _Last, this->_Alval);

  00004	8b 75 08	 mov	 esi, DWORD PTR __First$[ebp]
  00007	eb 0b		 jmp	 SHORT $LN26@Destroy
$LL9@Destroy:
  00009	8b ce		 mov	 ecx, esi
  0000b	ff 15 00 00 00
	00		 call	 DWORD PTR __imp_??1ioHashString@@QAE@XZ
  00011	83 c6 14	 add	 esi, 20			; 00000014H
$LN26@Destroy:
  00014	3b 75 0c	 cmp	 esi, DWORD PTR __Last$[ebp]
  00017	75 f0		 jne	 SHORT $LL9@Destroy
  00019	5e		 pop	 esi

; 1271 : 		}

  0001a	5d		 pop	 ebp
  0001b	c2 08 00	 ret	 8
?_Destroy@?$vector@UBuffInfoStruct@@V?$allocator@UBuffInfoStruct@@@std@@@std@@IAEXPAUBuffInfoStruct@@0@Z ENDP ; std::vector<BuffInfoStruct,std::allocator<BuffInfoStruct> >::_Destroy
_TEXT	ENDS
PUBLIC	?_Tidy@?$vector@UBuffInfoStruct@@V?$allocator@UBuffInfoStruct@@@std@@@std@@IAEXXZ ; std::vector<BuffInfoStruct,std::allocator<BuffInfoStruct> >::_Tidy
EXTRN	__imp_?_Orphan_all@_Container_base0@std@@QAEXXZ:PROC
; Function compile flags: /Ogsp
;	COMDAT ?_Tidy@?$vector@UBuffInfoStruct@@V?$allocator@UBuffInfoStruct@@@std@@@std@@IAEXXZ
_TEXT	SEGMENT
?_Tidy@?$vector@UBuffInfoStruct@@V?$allocator@UBuffInfoStruct@@@std@@@std@@IAEXXZ PROC ; std::vector<BuffInfoStruct,std::allocator<BuffInfoStruct> >::_Tidy, COMDAT
; _this$ = ecx

; 1301 : 		{	// free all storage

  00000	56		 push	 esi
  00001	8b f1		 mov	 esi, ecx

; 1302 : 		if (this->_Myfirst != 0)

  00003	83 3e 00	 cmp	 DWORD PTR [esi], 0
  00006	74 28		 je	 SHORT $LN27@Tidy

; 1303 : 			{	// something to free, destroy and deallocate it
; 1304 : 			this->_Orphan_all();

  00008	53		 push	 ebx
  00009	57		 push	 edi
  0000a	ff 15 00 00 00
	00		 call	 DWORD PTR __imp_?_Orphan_all@_Container_base0@std@@QAEXXZ

; 1305 : 			_Destroy(this->_Myfirst, this->_Mylast);

  00010	8b 5e 04	 mov	 ebx, DWORD PTR [esi+4]
  00013	8b 3e		 mov	 edi, DWORD PTR [esi]
  00015	eb 0b		 jmp	 SHORT $LN31@Tidy
$LL12@Tidy:
  00017	8b cf		 mov	 ecx, edi
  00019	ff 15 00 00 00
	00		 call	 DWORD PTR __imp_??1ioHashString@@QAE@XZ
  0001f	83 c7 14	 add	 edi, 20			; 00000014H
$LN31@Tidy:
  00022	3b fb		 cmp	 edi, ebx
  00024	75 f1		 jne	 SHORT $LL12@Tidy

; 1306 : 			this->_Alval.deallocate(this->_Myfirst,
; 1307 : 				this->_Myend - this->_Myfirst);

  00026	ff 36		 push	 DWORD PTR [esi]
  00028	e8 00 00 00 00	 call	 ??3@YAXPAX@Z		; operator delete
  0002d	59		 pop	 ecx
  0002e	5f		 pop	 edi
  0002f	5b		 pop	 ebx
$LN27@Tidy:

; 1308 : 			}
; 1309 : 		this->_Myfirst = 0;

  00030	33 c0		 xor	 eax, eax
  00032	89 06		 mov	 DWORD PTR [esi], eax

; 1310 : 		this->_Mylast = 0;

  00034	89 46 04	 mov	 DWORD PTR [esi+4], eax

; 1311 : 		this->_Myend = 0;

  00037	89 46 08	 mov	 DWORD PTR [esi+8], eax
  0003a	5e		 pop	 esi

; 1312 : 		}

  0003b	c3		 ret	 0
?_Tidy@?$vector@UBuffInfoStruct@@V?$allocator@UBuffInfoStruct@@@std@@@std@@IAEXXZ ENDP ; std::vector<BuffInfoStruct,std::allocator<BuffInfoStruct> >::_Tidy
_TEXT	ENDS
PUBLIC	?reserve@?$vector@UBuffInfoStruct@@V?$allocator@UBuffInfoStruct@@@std@@@std@@QAEXI@Z ; std::vector<BuffInfoStruct,std::allocator<BuffInfoStruct> >::reserve
;	COMDAT xdata$x
; File c:\program files (x86)\microsoft visual studio 10.0\vc\include\xmemory
xdata$x	SEGMENT
__catchsym$?reserve@?$vector@UBuffInfoStruct@@V?$allocator@UBuffInfoStruct@@@std@@@std@@QAEXI@Z$3 DD 040H
	DD	00H
	DD	00H
	DD	FLAT:__catch$?reserve@?$vector@UBuffInfoStruct@@V?$allocator@UBuffInfoStruct@@@std@@@std@@QAEXI@Z$0
__unwindtable$?reserve@?$vector@UBuffInfoStruct@@V?$allocator@UBuffInfoStruct@@@std@@@std@@QAEXI@Z DD 0ffffffffH
	DD	00H
	DD	0ffffffffH
	DD	00H
__tryblocktable$?reserve@?$vector@UBuffInfoStruct@@V?$allocator@UBuffInfoStruct@@@std@@@std@@QAEXI@Z DD 00H
	DD	00H
	DD	01H
	DD	01H
	DD	FLAT:__catchsym$?reserve@?$vector@UBuffInfoStruct@@V?$allocator@UBuffInfoStruct@@@std@@@std@@QAEXI@Z$3
__ehfuncinfo$?reserve@?$vector@UBuffInfoStruct@@V?$allocator@UBuffInfoStruct@@@std@@@std@@QAEXI@Z DD 019930522H
	DD	02H
	DD	FLAT:__unwindtable$?reserve@?$vector@UBuffInfoStruct@@V?$allocator@UBuffInfoStruct@@@std@@@std@@QAEXI@Z
	DD	01H
	DD	FLAT:__tryblocktable$?reserve@?$vector@UBuffInfoStruct@@V?$allocator@UBuffInfoStruct@@@std@@@std@@QAEXI@Z
	DD	2 DUP(00H)
	DD	00H
	DD	01H
; Function compile flags: /Ogsp
; File c:\program files (x86)\microsoft visual studio 10.0\vc\include\vector
xdata$x	ENDS
;	COMDAT ?reserve@?$vector@UBuffInfoStruct@@V?$allocator@UBuffInfoStruct@@@std@@@std@@QAEXI@Z
_TEXT	SEGMENT
__Ptr$531368 = -24					; size = 4
$T537382 = -20						; size = 4
__$EHRec$ = -16						; size = 16
__Count$ = 8						; size = 4
?reserve@?$vector@UBuffInfoStruct@@V?$allocator@UBuffInfoStruct@@@std@@@std@@QAEXI@Z PROC ; std::vector<BuffInfoStruct,std::allocator<BuffInfoStruct> >::reserve, COMDAT
; _this$ = ecx

; 746  : 		{	// determine new minimum length of allocated storage

  00000	6a 0c		 push	 12			; 0000000cH
  00002	b8 00 00 00 00	 mov	 eax, __ehhandler$?reserve@?$vector@UBuffInfoStruct@@V?$allocator@UBuffInfoStruct@@@std@@@std@@QAEXI@Z
  00007	e8 00 00 00 00	 call	 __EH_prolog3_catch
  0000c	8b f1		 mov	 esi, ecx

; 747  : 		if (max_size() < _Count)

  0000e	81 7d 08 cc cc
	cc 0c		 cmp	 DWORD PTR __Count$[ebp], 214748364 ; 0cccccccH
  00015	76 0b		 jbe	 SHORT $LN5@reserve

; 748  : 			_Xlen();	// result too long

  00017	68 00 00 00 00	 push	 OFFSET ??_C@_0BD@OLBABOEK@vector?$DMT?$DO?5too?5long?$AA@
  0001c	ff 15 00 00 00
	00		 call	 DWORD PTR __imp_?_Xlength_error@std@@YAXPBD@Z
$LN62@reserve:
$LN5@reserve:

; 749  : 		else if (capacity() < _Count)

  00022	8b 46 08	 mov	 eax, DWORD PTR [esi+8]
  00025	2b 06		 sub	 eax, DWORD PTR [esi]
  00027	6a 14		 push	 20			; 00000014H
  00029	99		 cdq
  0002a	59		 pop	 ecx
  0002b	f7 f9		 idiv	 ecx
  0002d	3b 45 08	 cmp	 eax, DWORD PTR __Count$[ebp]
  00030	0f 83 81 00 00
	00		 jae	 $LN3@reserve

; 750  : 			{	// not enough room, reallocate
; 751  : 			pointer _Ptr = this->_Alval.allocate(_Count);

  00036	6a 00		 push	 0
  00038	ff 75 08	 push	 DWORD PTR __Count$[ebp]
  0003b	e8 00 00 00 00	 call	 ??$_Allocate@UBuffInfoStruct@@@std@@YAPAUBuffInfoStruct@@IPAU1@@Z ; std::_Allocate<BuffInfoStruct>

; 752  : 
; 753  : 			_TRY_BEGIN
; 754  : 			_Umove(this->_Myfirst, this->_Mylast, _Ptr);

  00040	8b 0e		 mov	 ecx, DWORD PTR [esi]
  00042	83 65 fc 00	 and	 DWORD PTR __$EHRec$[ebp+12], 0
  00046	8d 56 0c	 lea	 edx, DWORD PTR [esi+12]
  00049	52		 push	 edx
  0004a	89 45 e8	 mov	 DWORD PTR __Ptr$531368[ebp], eax
  0004d	ff 75 e8	 push	 DWORD PTR __Ptr$531368[ebp]
  00050	8b 46 04	 mov	 eax, DWORD PTR [esi+4]
  00053	50		 push	 eax
  00054	51		 push	 ecx
  00055	e8 00 00 00 00	 call	 ??$_Uninitialized_move@PAUBuffInfoStruct@@PAU1@V?$allocator@UBuffInfoStruct@@@std@@@std@@YAPAUBuffInfoStruct@@PAU1@00AAV?$allocator@UBuffInfoStruct@@@0@@Z ; std::_Uninitialized_move<BuffInfoStruct *,BuffInfoStruct *,std::allocator<BuffInfoStruct> >

; 758  : 			_CATCH_END
; 759  : 
; 760  : 			size_type _Size = size();

  0005a	8b 5e 04	 mov	 ebx, DWORD PTR [esi+4]
  0005d	8b 0e		 mov	 ecx, DWORD PTR [esi]
  0005f	83 c4 18	 add	 esp, 24			; 00000018H
  00062	8b c3		 mov	 eax, ebx
  00064	2b c1		 sub	 eax, ecx
  00066	6a 14		 push	 20			; 00000014H
  00068	99		 cdq
  00069	5f		 pop	 edi
  0006a	f7 ff		 idiv	 edi
  0006c	83 4d fc ff	 or	 DWORD PTR __$EHRec$[ebp+12], -1
  00070	8b f8		 mov	 edi, eax
  00072	85 c9		 test	 ecx, ecx
  00074	74 21		 je	 SHORT $LN54@reserve

; 761  : 			if (this->_Myfirst != 0)
; 762  : 				{	// destroy and deallocate old array
; 763  : 				_Destroy(this->_Myfirst, this->_Mylast);

  00076	89 4d ec	 mov	 DWORD PTR $T537382[ebp], ecx
  00079	3b cb		 cmp	 ecx, ebx
  0007b	74 12		 je	 SHORT $LN37@reserve
$LN39@reserve:
  0007d	8b 4d ec	 mov	 ecx, DWORD PTR $T537382[ebp]
  00080	ff 15 00 00 00
	00		 call	 DWORD PTR __imp_??1ioHashString@@QAE@XZ
  00086	83 45 ec 14	 add	 DWORD PTR $T537382[ebp], 20 ; 00000014H
  0008a	39 5d ec	 cmp	 DWORD PTR $T537382[ebp], ebx
  0008d	75 ee		 jne	 SHORT $LN39@reserve
$LN37@reserve:

; 764  : 				this->_Alval.deallocate(this->_Myfirst,
; 765  : 					this->_Myend - this->_Myfirst);

  0008f	ff 36		 push	 DWORD PTR [esi]
  00091	e8 00 00 00 00	 call	 ??3@YAXPAX@Z		; operator delete
  00096	59		 pop	 ecx
$LN54@reserve:

; 766  : 				}
; 767  : 
; 768  : 			this->_Orphan_all();

  00097	8b ce		 mov	 ecx, esi
  00099	ff 15 00 00 00
	00		 call	 DWORD PTR __imp_?_Orphan_all@_Container_base0@std@@QAEXXZ

; 769  : 			this->_Myend = _Ptr + _Count;
; 770  : 			this->_Mylast = _Ptr + _Size;

  0009f	6b ff 14	 imul	 edi, 20			; 00000014H
  000a2	8b 45 08	 mov	 eax, DWORD PTR __Count$[ebp]
  000a5	8b 4d e8	 mov	 ecx, DWORD PTR __Ptr$531368[ebp]
  000a8	6b c0 14	 imul	 eax, 20			; 00000014H
  000ab	03 c1		 add	 eax, ecx
  000ad	03 f9		 add	 edi, ecx
  000af	89 46 08	 mov	 DWORD PTR [esi+8], eax
  000b2	89 7e 04	 mov	 DWORD PTR [esi+4], edi

; 771  : 			this->_Myfirst = _Ptr;

  000b5	89 0e		 mov	 DWORD PTR [esi], ecx
$LN3@reserve:

; 772  : 			}
; 773  : 		}

  000b7	e8 00 00 00 00	 call	 __EH_epilog3
  000bc	c2 04 00	 ret	 4
__catch$?reserve@?$vector@UBuffInfoStruct@@V?$allocator@UBuffInfoStruct@@@std@@@std@@QAEXI@Z$0:

; 755  : 			_CATCH_ALL
; 756  : 			this->_Alval.deallocate(_Ptr, _Count);

  000bf	ff 75 e8	 push	 DWORD PTR __Ptr$531368[ebp]
  000c2	e8 00 00 00 00	 call	 ??3@YAXPAX@Z		; operator delete
  000c7	59		 pop	 ecx

; 757  : 			_RERAISE;

  000c8	6a 00		 push	 0
  000ca	6a 00		 push	 0
  000cc	e8 00 00 00 00	 call	 __CxxThrowException@8
$LN63@reserve:
$LN61@reserve:
  000d1	cc		 int	 3
_TEXT	ENDS
;	COMDAT text$x
text$x	SEGMENT
__ehhandler$?reserve@?$vector@UBuffInfoStruct@@V?$allocator@UBuffInfoStruct@@@std@@@std@@QAEXI@Z:
  00000	8b 54 24 08	 mov	 edx, DWORD PTR [esp+8]
  00004	8d 42 0c	 lea	 eax, DWORD PTR [edx+12]
  00007	8b 4a e4	 mov	 ecx, DWORD PTR [edx-28]
  0000a	33 c8		 xor	 ecx, eax
  0000c	e8 00 00 00 00	 call	 @__security_check_cookie@4
  00011	b8 00 00 00 00	 mov	 eax, OFFSET __ehfuncinfo$?reserve@?$vector@UBuffInfoStruct@@V?$allocator@UBuffInfoStruct@@@std@@@std@@QAEXI@Z
  00016	e9 00 00 00 00	 jmp	 ___CxxFrameHandler3
text$x	ENDS
?reserve@?$vector@UBuffInfoStruct@@V?$allocator@UBuffInfoStruct@@@std@@@std@@QAEXI@Z ENDP ; std::vector<BuffInfoStruct,std::allocator<BuffInfoStruct> >::reserve
PUBLIC	?_Reserve@?$vector@UBuffInfoStruct@@V?$allocator@UBuffInfoStruct@@@std@@@std@@IAEXI@Z ; std::vector<BuffInfoStruct,std::allocator<BuffInfoStruct> >::_Reserve
; Function compile flags: /Ogsp
;	COMDAT ?_Reserve@?$vector@UBuffInfoStruct@@V?$allocator@UBuffInfoStruct@@@std@@@std@@IAEXI@Z
_TEXT	SEGMENT
__Count$ = 8						; size = 4
?_Reserve@?$vector@UBuffInfoStruct@@V?$allocator@UBuffInfoStruct@@@std@@@std@@IAEXI@Z PROC ; std::vector<BuffInfoStruct,std::allocator<BuffInfoStruct> >::_Reserve, COMDAT
; _this$ = ecx

; 1290 : 		{	// ensure room for _Count new elements, grow exponentially

  00000	55		 push	 ebp
  00001	8b ec		 mov	 ebp, esp
  00003	56		 push	 esi
  00004	8b f1		 mov	 esi, ecx

; 1291 : 		size_type _Size = size();

  00006	8b 0e		 mov	 ecx, DWORD PTR [esi]
  00008	8b 46 04	 mov	 eax, DWORD PTR [esi+4]
  0000b	2b c1		 sub	 eax, ecx
  0000d	57		 push	 edi
  0000e	99		 cdq
  0000f	6a 14		 push	 20			; 00000014H
  00011	5f		 pop	 edi
  00012	f7 ff		 idiv	 edi
  00014	8b f8		 mov	 edi, eax

; 1292 : 		if (max_size() - _Count < _Size)

  00016	b8 cc cc cc 0c	 mov	 eax, 214748364		; 0cccccccH
  0001b	2b 45 08	 sub	 eax, DWORD PTR __Count$[ebp]
  0001e	3b c7		 cmp	 eax, edi
  00020	73 0b		 jae	 SHORT $LN4@Reserve

; 1293 : 			_Xlen();

  00022	68 00 00 00 00	 push	 OFFSET ??_C@_0BD@OLBABOEK@vector?$DMT?$DO?5too?5long?$AA@
  00027	ff 15 00 00 00
	00		 call	 DWORD PTR __imp_?_Xlength_error@std@@YAXPBD@Z
$LN21@Reserve:
$LN4@Reserve:

; 1294 : 		else if ((_Size += _Count) <= capacity())

  0002d	8b 46 08	 mov	 eax, DWORD PTR [esi+8]
  00030	2b c1		 sub	 eax, ecx
  00032	6a 14		 push	 20			; 00000014H
  00034	99		 cdq
  00035	59		 pop	 ecx
  00036	f7 f9		 idiv	 ecx
  00038	03 7d 08	 add	 edi, DWORD PTR __Count$[ebp]
  0003b	3b f8		 cmp	 edi, eax
  0003d	76 10		 jbe	 SHORT $LN1@Reserve

; 1295 : 			;
; 1296 : 		else
; 1297 : 			reserve(_Grow_to(_Size));

  0003f	57		 push	 edi
  00040	8b ce		 mov	 ecx, esi
  00042	e8 00 00 00 00	 call	 ?_Grow_to@?$vector@UBuffInfoStruct@@V?$allocator@UBuffInfoStruct@@@std@@@std@@IBEII@Z ; std::vector<BuffInfoStruct,std::allocator<BuffInfoStruct> >::_Grow_to
  00047	50		 push	 eax
  00048	8b ce		 mov	 ecx, esi
  0004a	e8 00 00 00 00	 call	 ?reserve@?$vector@UBuffInfoStruct@@V?$allocator@UBuffInfoStruct@@@std@@@std@@QAEXI@Z ; std::vector<BuffInfoStruct,std::allocator<BuffInfoStruct> >::reserve
$LN1@Reserve:
  0004f	5f		 pop	 edi
  00050	5e		 pop	 esi

; 1298 : 		}

  00051	5d		 pop	 ebp
  00052	c2 04 00	 ret	 4
$LN20@Reserve:
?_Reserve@?$vector@UBuffInfoStruct@@V?$allocator@UBuffInfoStruct@@@std@@@std@@IAEXI@Z ENDP ; std::vector<BuffInfoStruct,std::allocator<BuffInfoStruct> >::_Reserve
_TEXT	ENDS
PUBLIC	??1?$vector@UBuffInfoStruct@@V?$allocator@UBuffInfoStruct@@@std@@@std@@QAE@XZ ; std::vector<BuffInfoStruct,std::allocator<BuffInfoStruct> >::~vector<BuffInfoStruct,std::allocator<BuffInfoStruct> >
; Function compile flags: /Ogsp
;	COMDAT ??1?$vector@UBuffInfoStruct@@V?$allocator@UBuffInfoStruct@@@std@@@std@@QAE@XZ
_TEXT	SEGMENT
??1?$vector@UBuffInfoStruct@@V?$allocator@UBuffInfoStruct@@@std@@@std@@QAE@XZ PROC ; std::vector<BuffInfoStruct,std::allocator<BuffInfoStruct> >::~vector<BuffInfoStruct,std::allocator<BuffInfoStruct> >, COMDAT
; _this$ = ecx

; 705  : 		_Tidy();

  00000	e9 00 00 00 00	 jmp	 ?_Tidy@?$vector@UBuffInfoStruct@@V?$allocator@UBuffInfoStruct@@@std@@@std@@IAEXXZ ; std::vector<BuffInfoStruct,std::allocator<BuffInfoStruct> >::_Tidy
??1?$vector@UBuffInfoStruct@@V?$allocator@UBuffInfoStruct@@@std@@@std@@QAE@XZ ENDP ; std::vector<BuffInfoStruct,std::allocator<BuffInfoStruct> >::~vector<BuffInfoStruct,std::allocator<BuffInfoStruct> >
_TEXT	ENDS
PUBLIC	__real@43c80000
PUBLIC	??_7ioLobeliaWeapon@@6B@			; ioLobeliaWeapon::`vftable'
PUBLIC	??0ioLobeliaWeapon@@QAE@PAVioBaseChar@@PBUWeaponAttribute@@@Z ; ioLobeliaWeapon::ioLobeliaWeapon
PUBLIC	??_R4ioLobeliaWeapon@@6B@			; ioLobeliaWeapon::`RTTI Complete Object Locator'
PUBLIC	??_R0?AVioLobeliaWeapon@@@8			; ioLobeliaWeapon `RTTI Type Descriptor'
PUBLIC	??_R3ioLobeliaWeapon@@8				; ioLobeliaWeapon::`RTTI Class Hierarchy Descriptor'
PUBLIC	??_R2ioLobeliaWeapon@@8				; ioLobeliaWeapon::`RTTI Base Class Array'
PUBLIC	??_R1A@?0A@EA@ioLobeliaWeapon@@8		; ioLobeliaWeapon::`RTTI Base Class Descriptor at (0,-1,0,64)'
PUBLIC	??_R1A@?0A@EA@ioWeapon@@8			; ioWeapon::`RTTI Base Class Descriptor at (0,-1,0,64)'
PUBLIC	??_R0?AVioWeapon@@@8				; ioWeapon `RTTI Type Descriptor'
PUBLIC	??_R3ioWeapon@@8				; ioWeapon::`RTTI Class Hierarchy Descriptor'
PUBLIC	??_R2ioWeapon@@8				; ioWeapon::`RTTI Base Class Array'
PUBLIC	?LoadProperty@ioLobeliaWeapon@@UAEXAAVioINILoader@@@Z ; ioLobeliaWeapon::LoadProperty
EXTRN	??1ioWeapon@@UAE@XZ:PROC			; ioWeapon::~ioWeapon
EXTRN	?SetPeculiarity@ioWeapon@@QAEXK@Z:PROC		; ioWeapon::SetPeculiarity
EXTRN	??0ioWeapon@@QAE@PAVioBaseChar@@PBUWeaponAttribute@@@Z:PROC ; ioWeapon::ioWeapon
EXTRN	?IsAlreadyCollisioned@ioWeapon@@UAE_NPAVioPlayEntity@@@Z:PROC ; ioWeapon::IsAlreadyCollisioned
EXTRN	?AddCollisionEntity@ioWeapon@@UAEXPAVioPlayEntity@@@Z:PROC ; ioWeapon::AddCollisionEntity
EXTRN	?SetOwnerDamageRate@ioWeapon@@UAEXM@Z:PROC	; ioWeapon::SetOwnerDamageRate
EXTRN	?SetOwnerChargeDamageRate@ioWeapon@@UAEXM@Z:PROC ; ioWeapon::SetOwnerChargeDamageRate
EXTRN	?SetOwnerChargeForceRate@ioWeapon@@UAEXM@Z:PROC	; ioWeapon::SetOwnerChargeForceRate
EXTRN	?SetOwnerChargeRangeRate@ioWeapon@@UAEXM@Z:PROC	; ioWeapon::SetOwnerChargeRangeRate
EXTRN	?SetOwnerChargeSpeedRate@ioWeapon@@UAEXM@Z:PROC	; ioWeapon::SetOwnerChargeSpeedRate
EXTRN	?SetOwnerChargeBlowRate@ioWeapon@@UAEXM@Z:PROC	; ioWeapon::SetOwnerChargeBlowRate
EXTRN	?SetOwnerChargeFloatRate@ioWeapon@@UAEXM@Z:PROC	; ioWeapon::SetOwnerChargeFloatRate
EXTRN	?SetOwnerChargeScaleRate@ioWeapon@@UAEXM@Z:PROC	; ioWeapon::SetOwnerChargeScaleRate
EXTRN	?SetOwnerChargeExplosionRate@ioWeapon@@UAEXM@Z:PROC ; ioWeapon::SetOwnerChargeExplosionRate
EXTRN	?SetOwnerChargeWoundedTimeRate@ioWeapon@@UAEXM@Z:PROC ; ioWeapon::SetOwnerChargeWoundedTimeRate
EXTRN	?SetOwnerChargeLiveTimeRate@ioWeapon@@UAEXM@Z:PROC ; ioWeapon::SetOwnerChargeLiveTimeRate
EXTRN	?SetOwnerChargeBuffLiveTimeRate@ioWeapon@@UAEXM@Z:PROC ; ioWeapon::SetOwnerChargeBuffLiveTimeRate
EXTRN	?SetWeaponIndex@ioWeapon@@UAEXK@Z:PROC		; ioWeapon::SetWeaponIndex
EXTRN	?SetGrapplingTargetName@ioWeapon@@UAEXABVioHashString@@@Z:PROC ; ioWeapon::SetGrapplingTargetName
EXTRN	?SetCreateItem@ioWeapon@@UAEXABVioHashString@@@Z:PROC ; ioWeapon::SetCreateItem
EXTRN	?SetTeam@ioWeapon@@UAEXPAVioPlayStage@@W4TeamType@@@Z:PROC ; ioWeapon::SetTeam
EXTRN	?CallReserveAreaWeapon@ioWeapon@@UAEXXZ:PROC	; ioWeapon::CallReserveAreaWeapon
EXTRN	?SetWeaponDead@ioWeapon@@UAEXXZ:PROC		; ioWeapon::SetWeaponDead
EXTRN	?PlayWoundedSound@ioWeapon@@UAEXPAVioPlayEntity@@@Z:PROC ; ioWeapon::PlayWoundedSound
EXTRN	?PlayDefensedSound@ioWeapon@@UAEXPAVioPlayEntity@@@Z:PROC ; ioWeapon::PlayDefensedSound
EXTRN	?PlayLoopSound@ioWeapon@@UAEXXZ:PROC		; ioWeapon::PlayLoopSound
EXTRN	?StopLoopSound@ioWeapon@@UAEXXZ:PROC		; ioWeapon::StopLoopSound
EXTRN	?GetPosition@ioWeapon@@UBEABUD3DXVECTOR3@@XZ:PROC ; ioWeapon::GetPosition
EXTRN	?GetBlowType@ioWeapon@@UBE?AW4BlowTargetType@@XZ:PROC ; ioWeapon::GetBlowType
EXTRN	?GetPushPower@ioWeapon@@UBEMM@Z:PROC		; ioWeapon::GetPushPower
EXTRN	?GetBlowPower@ioWeapon@@UBEMM@Z:PROC		; ioWeapon::GetBlowPower
EXTRN	?GetAirPushPower@ioWeapon@@UBEMM@Z:PROC		; ioWeapon::GetAirPushPower
EXTRN	?GetAirBlowPower@ioWeapon@@UBEMM@Z:PROC		; ioWeapon::GetAirBlowPower
EXTRN	?GetDefensePushPower@ioWeapon@@UBEMM@Z:PROC	; ioWeapon::GetDefensePushPower
EXTRN	?SetSylphid@ioWeapon@@UAEHXZ:PROC		; ioWeapon::SetSylphid
EXTRN	?ApplyExtraReserveWeaponByWeaponInfo@ioWeapon@@UAEXPAV1@@Z:PROC ; ioWeapon::ApplyExtraReserveWeaponByWeaponInfo
EXTRN	?SetResistanceAttr@ioWeapon@@UAEXH@Z:PROC	; ioWeapon::SetResistanceAttr
EXTRN	?SetStartCollisionBox@ioWeapon@@UAEXXZ:PROC	; ioWeapon::SetStartCollisionBox
EXTRN	?SetLiveTime@ioWeapon@@UAEXK@Z:PROC		; ioWeapon::SetLiveTime
EXTRN	?SetMoveSpeed@ioWeapon@@UAEXM@Z:PROC		; ioWeapon::SetMoveSpeed
EXTRN	?SetFloatPower@ioWeapon@@UAEXM@Z:PROC		; ioWeapon::SetFloatPower
EXTRN	?SetStartPosition@ioWeapon@@UAEXABUD3DXVECTOR3@@PAVioPlayStage@@@Z:PROC ; ioWeapon::SetStartPosition
EXTRN	?CheckStructAndDummy@ioWeapon@@UAEXPAVioPlayEntity@@PAVioPlayStage@@@Z:PROC ; ioWeapon::CheckStructAndDummy
EXTRN	?GetDamage@ioWeapon@@UAEMPAVioPlayEntity@@@Z:PROC ; ioWeapon::GetDamage
EXTRN	?GetBaseDamage@ioWeapon@@UAEMPAVioPlayEntity@@@Z:PROC ; ioWeapon::GetBaseDamage
EXTRN	?GetPushAngle@ioWeapon@@UBEMXZ:PROC		; ioWeapon::GetPushAngle
EXTRN	?IsResistanceMagic@ioWeapon@@UAEHPAVioBaseChar@@@Z:PROC ; ioWeapon::IsResistanceMagic
EXTRN	?IsResistanceBomb@ioWeapon@@UAEHPAVioBaseChar@@@Z:PROC ; ioWeapon::IsResistanceBomb
EXTRN	?CheckGrapplingState@ioWeapon@@UAE?AW4GrapplingType@@XZ:PROC ; ioWeapon::CheckGrapplingState
EXTRN	?CheckCurAttribute@ioWeapon@@UAEXPBVioPlayEntity@@@Z:PROC ; ioWeapon::CheckCurAttribute
EXTRN	?CheckItemNotDrop@ioWeapon@@UAE_NPAVioBaseChar@@@Z:PROC ; ioWeapon::CheckItemNotDrop
EXTRN	?GetWorldAttackBoxList@ioWeapon@@UAEXAAV?$vector@VioOrientBox@@V?$allocator@VioOrientBox@@@std@@@std@@@Z:PROC ; ioWeapon::GetWorldAttackBoxList
EXTRN	?GetAttackDir@ioWeapon@@UBE?AUD3DXVECTOR3@@PBVioPlayEntity@@@Z:PROC ; ioWeapon::GetAttackDir
EXTRN	?GetLiveTime@ioWeapon@@UAEKXZ:PROC		; ioWeapon::GetLiveTime
EXTRN	?GetMoveDir@ioWeapon@@UAE?AUD3DXVECTOR3@@XZ:PROC ; ioWeapon::GetMoveDir
EXTRN	?CheckWeaponCollision@ioWeapon@@UAEXXZ:PROC	; ioWeapon::CheckWeaponCollision
EXTRN	?GetRefreshDuration@ioWeapon@@UAEKXZ:PROC	; ioWeapon::GetRefreshDuration
EXTRN	?GetIgnoreDuration@ioWeapon@@UAEKXZ:PROC	; ioWeapon::GetIgnoreDuration
EXTRN	?GetIgnoreTimeTypeDuration@ioWeapon@@UAEKXZ:PROC ; ioWeapon::GetIgnoreTimeTypeDuration
EXTRN	?GetIgnoreTimeType@ioWeapon@@UAEKXZ:PROC	; ioWeapon::GetIgnoreTimeType
EXTRN	?ApplyWeaponSync@ioWeapon@@UAEXAAVSP2Packet@@PAVioPlayStage@@@Z:PROC ; ioWeapon::ApplyWeaponSync
EXTRN	?IsSkillDependency@ioWeapon@@UAE_NABVioHashString@@@Z:PROC ; ioWeapon::IsSkillDependency
EXTRN	?SetSkillDependencyAction@ioWeapon@@UAEXXZ:PROC	; ioWeapon::SetSkillDependencyAction
EXTRN	?GetAttribute@ioWeapon@@MBEPBUWeaponAttribute@@XZ:PROC ; ioWeapon::GetAttribute
EXTRN	?CalcFinalDamage@ioWeapon@@MAEMXZ:PROC		; ioWeapon::CalcFinalDamage
EXTRN	?CalcFinalBoundDamage@ioWeapon@@MAEMXZ:PROC	; ioWeapon::CalcFinalBoundDamage
EXTRN	?CheckPiercing@ioWeapon@@MAE_N_N@Z:PROC		; ioWeapon::CheckPiercing
EXTRN	?ClearCollisionList@ioWeapon@@MAEXXZ:PROC	; ioWeapon::ClearCollisionList
EXTRN	?CheckCreateWeaponList@ioWeapon@@MAEXXZ:PROC	; ioWeapon::CheckCreateWeaponList
EXTRN	?CreateCollisionAreaWeapon@ioWeapon@@MAEXXZ:PROC ; ioWeapon::CreateCollisionAreaWeapon
EXTRN	?SetMapCollision@ioWeapon@@UAEXXZ:PROC		; ioWeapon::SetMapCollision
EXTRN	?IsIgnoreMapCollision@ioWeapon@@UBE_NXZ:PROC	; ioWeapon::IsIgnoreMapCollision
EXTRN	?IsIgnoreTestMapCollision@ioWeapon@@UBE_NXZ:PROC ; ioWeapon::IsIgnoreTestMapCollision
EXTRN	?IsIgnoreMapCollisionEffect@ioWeapon@@UBE_NXZ:PROC ; ioWeapon::IsIgnoreMapCollisionEffect
EXTRN	?AddEffectEvent@ioWeapon@@MAEXPAVioEffect@@@Z:PROC ; ioWeapon::AddEffectEvent
EXTRN	??_EioLobeliaWeapon@@UAEPAXI@Z:PROC		; ioLobeliaWeapon::`vector deleting destructor'
;	COMDAT ??_R2ioWeapon@@8
; File c:\program files (x86)\microsoft visual studio 10.0\vc\include\xmemory
rdata$r	SEGMENT
??_R2ioWeapon@@8 DD FLAT:??_R1A@?0A@EA@ioWeapon@@8	; ioWeapon::`RTTI Base Class Array'
rdata$r	ENDS
;	COMDAT ??_R3ioWeapon@@8
rdata$r	SEGMENT
??_R3ioWeapon@@8 DD 00H					; ioWeapon::`RTTI Class Hierarchy Descriptor'
	DD	00H
	DD	01H
	DD	FLAT:??_R2ioWeapon@@8
rdata$r	ENDS
;	COMDAT ??_R0?AVioWeapon@@@8
_DATA	SEGMENT
??_R0?AVioWeapon@@@8 DD FLAT:??_7type_info@@6B@		; ioWeapon `RTTI Type Descriptor'
	DD	00H
	DB	'.?AVioWeapon@@', 00H
_DATA	ENDS
;	COMDAT ??_R1A@?0A@EA@ioWeapon@@8
rdata$r	SEGMENT
??_R1A@?0A@EA@ioWeapon@@8 DD FLAT:??_R0?AVioWeapon@@@8	; ioWeapon::`RTTI Base Class Descriptor at (0,-1,0,64)'
	DD	00H
	DD	00H
	DD	0ffffffffH
	DD	00H
	DD	040H
	DD	FLAT:??_R3ioWeapon@@8
rdata$r	ENDS
;	COMDAT ??_R1A@?0A@EA@ioLobeliaWeapon@@8
rdata$r	SEGMENT
??_R1A@?0A@EA@ioLobeliaWeapon@@8 DD FLAT:??_R0?AVioLobeliaWeapon@@@8 ; ioLobeliaWeapon::`RTTI Base Class Descriptor at (0,-1,0,64)'
	DD	01H
	DD	00H
	DD	0ffffffffH
	DD	00H
	DD	040H
	DD	FLAT:??_R3ioLobeliaWeapon@@8
rdata$r	ENDS
;	COMDAT ??_R2ioLobeliaWeapon@@8
rdata$r	SEGMENT
??_R2ioLobeliaWeapon@@8 DD FLAT:??_R1A@?0A@EA@ioLobeliaWeapon@@8 ; ioLobeliaWeapon::`RTTI Base Class Array'
	DD	FLAT:??_R1A@?0A@EA@ioWeapon@@8
rdata$r	ENDS
;	COMDAT ??_R3ioLobeliaWeapon@@8
rdata$r	SEGMENT
??_R3ioLobeliaWeapon@@8 DD 00H				; ioLobeliaWeapon::`RTTI Class Hierarchy Descriptor'
	DD	00H
	DD	02H
	DD	FLAT:??_R2ioLobeliaWeapon@@8
rdata$r	ENDS
;	COMDAT ??_R0?AVioLobeliaWeapon@@@8
_DATA	SEGMENT
??_R0?AVioLobeliaWeapon@@@8 DD FLAT:??_7type_info@@6B@	; ioLobeliaWeapon `RTTI Type Descriptor'
	DD	00H
	DB	'.?AVioLobeliaWeapon@@', 00H
_DATA	ENDS
;	COMDAT ??_R4ioLobeliaWeapon@@6B@
rdata$r	SEGMENT
??_R4ioLobeliaWeapon@@6B@ DD 00H			; ioLobeliaWeapon::`RTTI Complete Object Locator'
	DD	00H
	DD	00H
	DD	FLAT:??_R0?AVioLobeliaWeapon@@@8
	DD	FLAT:??_R3ioLobeliaWeapon@@8
rdata$r	ENDS
;	COMDAT __real@43c80000
CONST	SEGMENT
__real@43c80000 DD 043c80000r			; 400
CONST	ENDS
;	COMDAT ??_7ioLobeliaWeapon@@6B@
CONST	SEGMENT
??_7ioLobeliaWeapon@@6B@ DD FLAT:??_R4ioLobeliaWeapon@@6B@ ; ioLobeliaWeapon::`vftable'
	DD	FLAT:?IsAlreadyCollisioned@ioWeapon@@UAE_NPAVioPlayEntity@@@Z
	DD	FLAT:?AddCollisionEntity@ioWeapon@@UAEXPAVioPlayEntity@@@Z
	DD	FLAT:?SetOwnerDamageRate@ioWeapon@@UAEXM@Z
	DD	FLAT:?SetOwnerChargeDamageRate@ioWeapon@@UAEXM@Z
	DD	FLAT:?SetOwnerChargeForceRate@ioWeapon@@UAEXM@Z
	DD	FLAT:?SetOwnerChargeRangeRate@ioWeapon@@UAEXM@Z
	DD	FLAT:?SetOwnerChargeSpeedRate@ioWeapon@@UAEXM@Z
	DD	FLAT:?SetOwnerChargeBlowRate@ioWeapon@@UAEXM@Z
	DD	FLAT:?SetOwnerChargeFloatRate@ioWeapon@@UAEXM@Z
	DD	FLAT:?SetOwnerChargeScaleRate@ioWeapon@@UAEXM@Z
	DD	FLAT:?SetOwnerChargeExplosionRate@ioWeapon@@UAEXM@Z
	DD	FLAT:?SetOwnerChargeWoundedTimeRate@ioWeapon@@UAEXM@Z
	DD	FLAT:?SetOwnerChargeLiveTimeRate@ioWeapon@@UAEXM@Z
	DD	FLAT:?SetOwnerChargeBuffLiveTimeRate@ioWeapon@@UAEXM@Z
	DD	FLAT:?SetWeaponIndex@ioWeapon@@UAEXK@Z
	DD	FLAT:?SetGrapplingTargetName@ioWeapon@@UAEXABVioHashString@@@Z
	DD	FLAT:?SetCreateItem@ioWeapon@@UAEXABVioHashString@@@Z
	DD	FLAT:?SetTeam@ioWeapon@@UAEXPAVioPlayStage@@W4TeamType@@@Z
	DD	FLAT:?CallReserveAreaWeapon@ioWeapon@@UAEXXZ
	DD	FLAT:?SetWeaponDead@ioWeapon@@UAEXXZ
	DD	FLAT:?PlayExplosionSound@ioWeapon@@UAEXXZ
	DD	FLAT:?PlayWoundedSound@ioWeapon@@UAEXPAVioPlayEntity@@@Z
	DD	FLAT:?PlayDefensedSound@ioWeapon@@UAEXPAVioPlayEntity@@@Z
	DD	FLAT:?PlayLoopSound@ioWeapon@@UAEXXZ
	DD	FLAT:?StopLoopSound@ioWeapon@@UAEXXZ
	DD	FLAT:?GetTargetAirBuffList@ioLobeliaWeapon@@UBEABV?$vector@UBuffInfoStruct@@V?$allocator@UBuffInfoStruct@@@std@@@std@@XZ
	DD	FLAT:?GetTargetBuffList@ioLobeliaWeapon@@UBEABV?$vector@UBuffInfoStruct@@V?$allocator@UBuffInfoStruct@@@std@@@std@@XZ
	DD	FLAT:?GetTargetDownBuffList@ioLobeliaWeapon@@UBEABV?$vector@UBuffInfoStruct@@V?$allocator@UBuffInfoStruct@@@std@@@std@@XZ
	DD	FLAT:?GetPosition@ioWeapon@@UBEABUD3DXVECTOR3@@XZ
	DD	FLAT:?GetBlowType@ioWeapon@@UBE?AW4BlowTargetType@@XZ
	DD	FLAT:?GetPushPower@ioWeapon@@UBEMM@Z
	DD	FLAT:?GetBlowPower@ioWeapon@@UBEMM@Z
	DD	FLAT:?GetAirPushPower@ioWeapon@@UBEMM@Z
	DD	FLAT:?GetAirBlowPower@ioWeapon@@UBEMM@Z
	DD	FLAT:?GetDefensePushPower@ioWeapon@@UBEMM@Z
	DD	FLAT:?GetCollisionEnableTime@ioLobeliaWeapon@@UBEKXZ
	DD	FLAT:?SetSylphid@ioWeapon@@UAEHXZ
	DD	FLAT:?ApplyExtraReserveWeaponByWeaponInfo@ioWeapon@@UAEXPAV1@@Z
	DD	FLAT:?InitResource@ioLobeliaWeapon@@UAE_NXZ
	DD	FLAT:?DestroyResource@ioLobeliaWeapon@@UAEXPAVioPlayStage@@@Z
	DD	FLAT:?LoadProperty@ioLobeliaWeapon@@UAEXAAVioINILoader@@@Z
	DD	FLAT:?SetResistanceAttr@ioWeapon@@UAEXH@Z
	DD	FLAT:?SetStartCollisionBox@ioWeapon@@UAEXXZ
	DD	FLAT:?SetLiveTime@ioWeapon@@UAEXK@Z
	DD	FLAT:?SetMoveDir@ioLobeliaWeapon@@UAEXABUD3DXVECTOR3@@@Z
	DD	FLAT:?SetMoveSpeed@ioWeapon@@UAEXM@Z
	DD	FLAT:?SetFloatPower@ioWeapon@@UAEXM@Z
	DD	FLAT:?SetStartPosition@ioWeapon@@UAEXABUD3DXVECTOR3@@PAVioPlayStage@@@Z
	DD	FLAT:?Process@ioLobeliaWeapon@@UAEXMPAVioPlayStage@@@Z
	DD	FLAT:?IsCollision@ioLobeliaWeapon@@UAE_NPAVioPlayEntity@@_N@Z
	DD	FLAT:?TestMapCollision@ioLobeliaWeapon@@UAE_NPAVioOpcodeShape@@PAVioPlayStage@@PBUD3DXMATRIX@@@Z
	DD	FLAT:?CheckPreCollision@ioLobeliaWeapon@@UAEXPAVioPlayEntity@@PAVioPlayStage@@@Z
	DD	FLAT:?CheckStructAndDummy@ioWeapon@@UAEXPAVioPlayEntity@@PAVioPlayStage@@@Z
	DD	FLAT:?GetDamage@ioWeapon@@UAEMPAVioPlayEntity@@@Z
	DD	FLAT:?GetBaseDamage@ioWeapon@@UAEMPAVioPlayEntity@@@Z
	DD	FLAT:?GetPushAngle@ioWeapon@@UBEMXZ
	DD	FLAT:?IsResistanceMagic@ioWeapon@@UAEHPAVioBaseChar@@@Z
	DD	FLAT:?IsResistanceBomb@ioWeapon@@UAEHPAVioBaseChar@@@Z
	DD	FLAT:?IsCanMineExplosion@ioLobeliaWeapon@@UAE_NXZ
	DD	FLAT:?CheckGrapplingState@ioWeapon@@UAE?AW4GrapplingType@@XZ
	DD	FLAT:?CheckCurAttribute@ioWeapon@@UAEXPBVioPlayEntity@@@Z
	DD	FLAT:?CheckItemNotDrop@ioWeapon@@UAE_NPAVioBaseChar@@@Z
	DD	FLAT:?GetWorldAttackBoxList@ioWeapon@@UAEXAAV?$vector@VioOrientBox@@V?$allocator@VioOrientBox@@@std@@@std@@@Z
	DD	FLAT:?GetAttackDir@ioWeapon@@UBE?AUD3DXVECTOR3@@PBVioPlayEntity@@@Z
	DD	FLAT:?GetLocalAttackBox@ioLobeliaWeapon@@UBEABVioOrientBox@@XZ
	DD	FLAT:?GetLiveTime@ioWeapon@@UAEKXZ
	DD	FLAT:?GetMoveDir@ioWeapon@@UAE?AUD3DXVECTOR3@@XZ
	DD	FLAT:?CheckWeaponCollision@ioWeapon@@UAEXXZ
	DD	FLAT:?GetType@ioLobeliaWeapon@@UBE?AW4WeaponType@ioWeapon@@XZ
	DD	FLAT:?GetActionStopType@ioLobeliaWeapon@@UBE?AW4ActionStopType@@XZ
	DD	FLAT:?GetDieActionStopType@ioLobeliaWeapon@@UBE?AW4ActionStopType@@XZ
	DD	FLAT:?GetRefreshDuration@ioWeapon@@UAEKXZ
	DD	FLAT:?GetIgnoreDuration@ioWeapon@@UAEKXZ
	DD	FLAT:?GetIgnoreTimeTypeDuration@ioWeapon@@UAEKXZ
	DD	FLAT:?GetIgnoreTimeType@ioWeapon@@UAEKXZ
	DD	FLAT:?ApplyWeaponSync@ioWeapon@@UAEXAAVSP2Packet@@PAVioPlayStage@@@Z
	DD	FLAT:?IsSkillDependency@ioWeapon@@UAE_NABVioHashString@@@Z
	DD	FLAT:?SetSkillDependencyAction@ioWeapon@@UAEXXZ
	DD	FLAT:?UpdateWorldAttackBox@ioLobeliaWeapon@@MAEXM_N@Z
	DD	FLAT:?GetAttribute@ioWeapon@@MBEPBUWeaponAttribute@@XZ
	DD	FLAT:?CalcFinalDamage@ioWeapon@@MAEMXZ
	DD	FLAT:?CalcFinalBoundDamage@ioWeapon@@MAEMXZ
	DD	FLAT:?CheckPiercing@ioWeapon@@MAE_N_N@Z
	DD	FLAT:?ClearCollisionList@ioWeapon@@MAEXXZ
	DD	FLAT:?CheckCreateWeaponList@ioWeapon@@MAEXXZ
	DD	FLAT:?CreateCollisionAreaWeapon@ioWeapon@@MAEXXZ
	DD	FLAT:?SetMapCollision@ioWeapon@@UAEXXZ
	DD	FLAT:?IsIgnoreMapCollision@ioWeapon@@UBE_NXZ
	DD	FLAT:?IsIgnoreTestMapCollision@ioWeapon@@UBE_NXZ
	DD	FLAT:?IsIgnoreMapCollisionEffect@ioWeapon@@UBE_NXZ
	DD	FLAT:?AddEffectEvent@ioWeapon@@MAEXPAVioEffect@@@Z
	DD	FLAT:??_EioLobeliaWeapon@@UAEPAXI@Z
CONST	ENDS
;	COMDAT xdata$x
xdata$x	SEGMENT
__ehfuncinfo$??0ioLobeliaWeapon@@QAE@PAVioBaseChar@@PBUWeaponAttribute@@@Z DD 019930522H
	DD	0eH
	DD	FLAT:__unwindtable$??0ioLobeliaWeapon@@QAE@PAVioBaseChar@@PBUWeaponAttribute@@@Z
	DD	2 DUP(00H)
	DD	2 DUP(00H)
	DD	00H
	DD	01H
__unwindtable$??0ioLobeliaWeapon@@QAE@PAVioBaseChar@@PBUWeaponAttribute@@@Z DD 0ffffffffH
	DD	FLAT:__unwindfunclet$??0ioLobeliaWeapon@@QAE@PAVioBaseChar@@PBUWeaponAttribute@@@Z$0
	DD	00H
	DD	FLAT:__unwindfunclet$??0ioLobeliaWeapon@@QAE@PAVioBaseChar@@PBUWeaponAttribute@@@Z$1
	DD	01H
	DD	FLAT:__unwindfunclet$??0ioLobeliaWeapon@@QAE@PAVioBaseChar@@PBUWeaponAttribute@@@Z$2
	DD	02H
	DD	FLAT:__unwindfunclet$??0ioLobeliaWeapon@@QAE@PAVioBaseChar@@PBUWeaponAttribute@@@Z$3
	DD	03H
	DD	FLAT:__unwindfunclet$??0ioLobeliaWeapon@@QAE@PAVioBaseChar@@PBUWeaponAttribute@@@Z$4
	DD	04H
	DD	FLAT:__unwindfunclet$??0ioLobeliaWeapon@@QAE@PAVioBaseChar@@PBUWeaponAttribute@@@Z$5
	DD	05H
	DD	FLAT:__unwindfunclet$??0ioLobeliaWeapon@@QAE@PAVioBaseChar@@PBUWeaponAttribute@@@Z$6
	DD	06H
	DD	FLAT:__unwindfunclet$??0ioLobeliaWeapon@@QAE@PAVioBaseChar@@PBUWeaponAttribute@@@Z$7
	DD	07H
	DD	FLAT:__unwindfunclet$??0ioLobeliaWeapon@@QAE@PAVioBaseChar@@PBUWeaponAttribute@@@Z$8
	DD	08H
	DD	FLAT:__unwindfunclet$??0ioLobeliaWeapon@@QAE@PAVioBaseChar@@PBUWeaponAttribute@@@Z$9
	DD	09H
	DD	FLAT:__unwindfunclet$??0ioLobeliaWeapon@@QAE@PAVioBaseChar@@PBUWeaponAttribute@@@Z$10
	DD	0aH
	DD	FLAT:__unwindfunclet$??0ioLobeliaWeapon@@QAE@PAVioBaseChar@@PBUWeaponAttribute@@@Z$11
	DD	0bH
	DD	FLAT:__unwindfunclet$??0ioLobeliaWeapon@@QAE@PAVioBaseChar@@PBUWeaponAttribute@@@Z$12
	DD	0cH
	DD	FLAT:__unwindfunclet$??0ioLobeliaWeapon@@QAE@PAVioBaseChar@@PBUWeaponAttribute@@@Z$13
; Function compile flags: /Ogsp
; File d:\lost saga for developer\youtube\tutorial\source\src\lsclient\iolobeliaweapon.cpp
xdata$x	ENDS
;	COMDAT ??0ioLobeliaWeapon@@QAE@PAVioBaseChar@@PBUWeaponAttribute@@@Z
_TEXT	SEGMENT
_this$ = -16						; size = 4
__$EHRec$ = -12						; size = 12
_pOwner$ = 8						; size = 4
_pAttr$ = 12						; size = 4
??0ioLobeliaWeapon@@QAE@PAVioBaseChar@@PBUWeaponAttribute@@@Z PROC ; ioLobeliaWeapon::ioLobeliaWeapon, COMDAT
; _this$ = ecx

; 15   : {

  00000	6a 04		 push	 4
  00002	b8 00 00 00 00	 mov	 eax, __ehhandler$??0ioLobeliaWeapon@@QAE@PAVioBaseChar@@PBUWeaponAttribute@@@Z
  00007	e8 00 00 00 00	 call	 __EH_prolog3
  0000c	8b f1		 mov	 esi, ecx
  0000e	89 75 f0	 mov	 DWORD PTR _this$[ebp], esi
  00011	ff 75 0c	 push	 DWORD PTR _pAttr$[ebp]
  00014	ff 75 08	 push	 DWORD PTR _pOwner$[ebp]
  00017	e8 00 00 00 00	 call	 ??0ioWeapon@@QAE@PAVioBaseChar@@PBUWeaponAttribute@@@Z ; ioWeapon::ioWeapon
  0001c	8b 3d 00 00 00
	00		 mov	 edi, DWORD PTR __imp_??0ioHashString@@QAE@XZ
  00022	33 db		 xor	 ebx, ebx
  00024	8d 8e 9c 08 00
	00		 lea	 ecx, DWORD PTR [esi+2204]
  0002a	89 5d fc	 mov	 DWORD PTR __$EHRec$[ebp+8], ebx
  0002d	c7 06 00 00 00
	00		 mov	 DWORD PTR [esi], OFFSET ??_7ioLobeliaWeapon@@6B@
  00033	ff d7		 call	 edi
  00035	8d 8e ac 08 00
	00		 lea	 ecx, DWORD PTR [esi+2220]
  0003b	c6 45 fc 01	 mov	 BYTE PTR __$EHRec$[ebp+8], 1
  0003f	ff d7		 call	 edi
  00041	8d 8e dc 08 00
	00		 lea	 ecx, DWORD PTR [esi+2268]
  00047	c6 45 fc 02	 mov	 BYTE PTR __$EHRec$[ebp+8], 2
  0004b	ff 15 00 00 00
	00		 call	 DWORD PTR __imp_??0ioOrientBox@@QAE@XZ
  00051	8d 8e 68 09 00
	00		 lea	 ecx, DWORD PTR [esi+2408]
  00057	c6 45 fc 03	 mov	 BYTE PTR __$EHRec$[ebp+8], 3
  0005b	e8 00 00 00 00	 call	 ??0?$CEncrypt@M@@QAE@XZ	; CEncrypt<float>::CEncrypt<float>
  00060	8d 8e 98 09 00
	00		 lea	 ecx, DWORD PTR [esi+2456]
  00066	c6 45 fc 04	 mov	 BYTE PTR __$EHRec$[ebp+8], 4
  0006a	e8 00 00 00 00	 call	 ??0?$CEncrypt@M@@QAE@XZ	; CEncrypt<float>::CEncrypt<float>
  0006f	8d 8e c8 09 00
	00		 lea	 ecx, DWORD PTR [esi+2504]
  00075	c6 45 fc 05	 mov	 BYTE PTR __$EHRec$[ebp+8], 5
  00079	e8 00 00 00 00	 call	 ??0?$CEncrypt@M@@QAE@XZ	; CEncrypt<float>::CEncrypt<float>
  0007e	8d 8e f8 09 00
	00		 lea	 ecx, DWORD PTR [esi+2552]
  00084	c6 45 fc 06	 mov	 BYTE PTR __$EHRec$[ebp+8], 6
  00088	e8 00 00 00 00	 call	 ??0?$CEncrypt@M@@QAE@XZ	; CEncrypt<float>::CEncrypt<float>
  0008d	8d 8e 28 0a 00
	00		 lea	 ecx, DWORD PTR [esi+2600]
  00093	c6 45 fc 07	 mov	 BYTE PTR __$EHRec$[ebp+8], 7
  00097	e8 00 00 00 00	 call	 ??0?$CEncrypt@M@@QAE@XZ	; CEncrypt<float>::CEncrypt<float>
  0009c	8d 8e 58 0a 00
	00		 lea	 ecx, DWORD PTR [esi+2648]
  000a2	c6 45 fc 08	 mov	 BYTE PTR __$EHRec$[ebp+8], 8
  000a6	e8 00 00 00 00	 call	 ??0?$CEncrypt@M@@QAE@XZ	; CEncrypt<float>::CEncrypt<float>
  000ab	8d 8e 88 0a 00
	00		 lea	 ecx, DWORD PTR [esi+2696]
  000b1	c6 45 fc 09	 mov	 BYTE PTR __$EHRec$[ebp+8], 9
  000b5	e8 00 00 00 00	 call	 ??0?$CEncrypt@M@@QAE@XZ	; CEncrypt<float>::CEncrypt<float>
  000ba	8d 8e b8 0a 00
	00		 lea	 ecx, DWORD PTR [esi+2744]
  000c0	c6 45 fc 0a	 mov	 BYTE PTR __$EHRec$[ebp+8], 10 ; 0000000aH
  000c4	e8 00 00 00 00	 call	 ??0?$CEncrypt@M@@QAE@XZ	; CEncrypt<float>::CEncrypt<float>
  000c9	8d 8e e8 0a 00
	00		 lea	 ecx, DWORD PTR [esi+2792]
  000cf	c6 45 fc 0b	 mov	 BYTE PTR __$EHRec$[ebp+8], 11 ; 0000000bH
  000d3	e8 00 00 00 00	 call	 ??0?$CEncrypt@M@@QAE@XZ	; CEncrypt<float>::CEncrypt<float>
  000d8	89 9e 18 0b 00
	00		 mov	 DWORD PTR [esi+2840], ebx
  000de	89 9e 1c 0b 00
	00		 mov	 DWORD PTR [esi+2844], ebx
  000e4	89 9e 20 0b 00
	00		 mov	 DWORD PTR [esi+2848], ebx

; 16   : 	SetPeculiarity( WP_MINE_EXPLOSION |
; 17   : 					WP_WOUND_NO_SOUND |
; 18   : 					WP_DEF_NO_SOUND );

  000ea	68 d0 00 00 00	 push	 208			; 000000d0H
  000ef	8b ce		 mov	 ecx, esi
  000f1	c6 45 fc 0d	 mov	 BYTE PTR __$EHRec$[ebp+8], 13 ; 0000000dH
  000f5	e8 00 00 00 00	 call	 ?SetPeculiarity@ioWeapon@@QAEXK@Z ; ioWeapon::SetPeculiarity

; 19   : 
; 20   : 	m_pFireMesh = NULL;
; 21   : 
; 22   : 	m_EffectID = -1;
; 23   : 	m_GroundID = -1;
; 24   : 
; 25   : 	m_dwDuration = 0;
; 26   : 	m_dwExplosionStart = 0;
; 27   : 	m_fMoveSpeed = 0.0f;

  000fa	0f 57 c0	 xorps	 xmm0, xmm0
  000fd	83 8e c0 08 00
	00 ff		 or	 DWORD PTR [esi+2240], -1
  00104	83 8e bc 08 00
	00 ff		 or	 DWORD PTR [esi+2236], -1
  0010b	f3 0f 11 86 4c
	09 00 00	 movss	 DWORD PTR [esi+2380], xmm0

; 28   : 	m_fPingPongPower = 400.0f;

  00113	f3 0f 10 05 00
	00 00 00	 movss	 xmm0, DWORD PTR __real@43c80000
  0011b	89 9e 98 08 00
	00		 mov	 DWORD PTR [esi+2200], ebx
  00121	89 9e 20 09 00
	00		 mov	 DWORD PTR [esi+2336], ebx
  00127	89 9e 34 09 00
	00		 mov	 DWORD PTR [esi+2356], ebx
  0012d	f3 0f 11 86 54
	09 00 00	 movss	 DWORD PTR [esi+2388], xmm0

; 29   : 
; 30   : 	m_dwGroundStart = 0;

  00135	89 9e 2c 09 00
	00		 mov	 DWORD PTR [esi+2348], ebx

; 31   : 
; 32   : 	m_State = TS_MOVE;

  0013b	c7 86 94 08 00
	00 01 00 00 00	 mov	 DWORD PTR [esi+2196], 1

; 33   : 	m_bObjectCollision = false;

  00145	88 9e 5c 09 00
	00		 mov	 BYTE PTR [esi+2396], bl

; 34   : 	m_bResistance = false;

  0014b	88 9e 3c 06 00
	00		 mov	 BYTE PTR [esi+1596], bl

; 35   : 	m_bDropState = false;

  00151	88 9e 5e 09 00
	00		 mov	 BYTE PTR [esi+2398], bl

; 36   : }

  00157	8b c6		 mov	 eax, esi
  00159	e8 00 00 00 00	 call	 __EH_epilog3
  0015e	c2 08 00	 ret	 8
_TEXT	ENDS
;	COMDAT text$x
text$x	SEGMENT
__unwindfunclet$??0ioLobeliaWeapon@@QAE@PAVioBaseChar@@PBUWeaponAttribute@@@Z$0:
  00000	8b 4d f0	 mov	 ecx, DWORD PTR _this$[ebp]
  00003	e9 00 00 00 00	 jmp	 ??1ioWeapon@@UAE@XZ	; ioWeapon::~ioWeapon
__unwindfunclet$??0ioLobeliaWeapon@@QAE@PAVioBaseChar@@PBUWeaponAttribute@@@Z$1:
  00008	8b 4d f0	 mov	 ecx, DWORD PTR _this$[ebp]
  0000b	81 c1 9c 08 00
	00		 add	 ecx, 2204		; 0000089cH
  00011	ff 25 00 00 00
	00		 jmp	 DWORD PTR __imp_??1ioHashString@@QAE@XZ
__unwindfunclet$??0ioLobeliaWeapon@@QAE@PAVioBaseChar@@PBUWeaponAttribute@@@Z$2:
  00017	8b 4d f0	 mov	 ecx, DWORD PTR _this$[ebp]
  0001a	81 c1 ac 08 00
	00		 add	 ecx, 2220		; 000008acH
  00020	ff 25 00 00 00
	00		 jmp	 DWORD PTR __imp_??1ioHashString@@QAE@XZ
__unwindfunclet$??0ioLobeliaWeapon@@QAE@PAVioBaseChar@@PBUWeaponAttribute@@@Z$3:
  00026	8b 4d f0	 mov	 ecx, DWORD PTR _this$[ebp]
  00029	81 c1 dc 08 00
	00		 add	 ecx, 2268		; 000008dcH
  0002f	ff 25 00 00 00
	00		 jmp	 DWORD PTR __imp_??1ioOrientBox@@QAE@XZ
__unwindfunclet$??0ioLobeliaWeapon@@QAE@PAVioBaseChar@@PBUWeaponAttribute@@@Z$4:
  00035	8b 4d f0	 mov	 ecx, DWORD PTR _this$[ebp]
  00038	81 c1 68 09 00
	00		 add	 ecx, 2408		; 00000968H
  0003e	e9 00 00 00 00	 jmp	 ??1?$CEncrypt@M@@UAE@XZ	; CEncrypt<float>::~CEncrypt<float>
__unwindfunclet$??0ioLobeliaWeapon@@QAE@PAVioBaseChar@@PBUWeaponAttribute@@@Z$5:
  00043	8b 4d f0	 mov	 ecx, DWORD PTR _this$[ebp]
  00046	81 c1 98 09 00
	00		 add	 ecx, 2456		; 00000998H
  0004c	e9 00 00 00 00	 jmp	 ??1?$CEncrypt@M@@UAE@XZ	; CEncrypt<float>::~CEncrypt<float>
__unwindfunclet$??0ioLobeliaWeapon@@QAE@PAVioBaseChar@@PBUWeaponAttribute@@@Z$6:
  00051	8b 4d f0	 mov	 ecx, DWORD PTR _this$[ebp]
  00054	81 c1 c8 09 00
	00		 add	 ecx, 2504		; 000009c8H
  0005a	e9 00 00 00 00	 jmp	 ??1?$CEncrypt@M@@UAE@XZ	; CEncrypt<float>::~CEncrypt<float>
__unwindfunclet$??0ioLobeliaWeapon@@QAE@PAVioBaseChar@@PBUWeaponAttribute@@@Z$7:
  0005f	8b 4d f0	 mov	 ecx, DWORD PTR _this$[ebp]
  00062	81 c1 f8 09 00
	00		 add	 ecx, 2552		; 000009f8H
  00068	e9 00 00 00 00	 jmp	 ??1?$CEncrypt@M@@UAE@XZ	; CEncrypt<float>::~CEncrypt<float>
__unwindfunclet$??0ioLobeliaWeapon@@QAE@PAVioBaseChar@@PBUWeaponAttribute@@@Z$8:
  0006d	8b 4d f0	 mov	 ecx, DWORD PTR _this$[ebp]
  00070	81 c1 28 0a 00
	00		 add	 ecx, 2600		; 00000a28H
  00076	e9 00 00 00 00	 jmp	 ??1?$CEncrypt@M@@UAE@XZ	; CEncrypt<float>::~CEncrypt<float>
__unwindfunclet$??0ioLobeliaWeapon@@QAE@PAVioBaseChar@@PBUWeaponAttribute@@@Z$9:
  0007b	8b 4d f0	 mov	 ecx, DWORD PTR _this$[ebp]
  0007e	81 c1 58 0a 00
	00		 add	 ecx, 2648		; 00000a58H
  00084	e9 00 00 00 00	 jmp	 ??1?$CEncrypt@M@@UAE@XZ	; CEncrypt<float>::~CEncrypt<float>
__unwindfunclet$??0ioLobeliaWeapon@@QAE@PAVioBaseChar@@PBUWeaponAttribute@@@Z$10:
  00089	8b 4d f0	 mov	 ecx, DWORD PTR _this$[ebp]
  0008c	81 c1 88 0a 00
	00		 add	 ecx, 2696		; 00000a88H
  00092	e9 00 00 00 00	 jmp	 ??1?$CEncrypt@M@@UAE@XZ	; CEncrypt<float>::~CEncrypt<float>
__unwindfunclet$??0ioLobeliaWeapon@@QAE@PAVioBaseChar@@PBUWeaponAttribute@@@Z$11:
  00097	8b 4d f0	 mov	 ecx, DWORD PTR _this$[ebp]
  0009a	81 c1 b8 0a 00
	00		 add	 ecx, 2744		; 00000ab8H
  000a0	e9 00 00 00 00	 jmp	 ??1?$CEncrypt@M@@UAE@XZ	; CEncrypt<float>::~CEncrypt<float>
__unwindfunclet$??0ioLobeliaWeapon@@QAE@PAVioBaseChar@@PBUWeaponAttribute@@@Z$12:
  000a5	8b 4d f0	 mov	 ecx, DWORD PTR _this$[ebp]
  000a8	81 c1 e8 0a 00
	00		 add	 ecx, 2792		; 00000ae8H
  000ae	e9 00 00 00 00	 jmp	 ??1?$CEncrypt@M@@UAE@XZ	; CEncrypt<float>::~CEncrypt<float>
__unwindfunclet$??0ioLobeliaWeapon@@QAE@PAVioBaseChar@@PBUWeaponAttribute@@@Z$13:
  000b3	8b 4d f0	 mov	 ecx, DWORD PTR _this$[ebp]
  000b6	81 c1 18 0b 00
	00		 add	 ecx, 2840		; 00000b18H
  000bc	e9 00 00 00 00	 jmp	 ??1?$vector@UBuffInfoStruct@@V?$allocator@UBuffInfoStruct@@@std@@@std@@QAE@XZ ; std::vector<BuffInfoStruct,std::allocator<BuffInfoStruct> >::~vector<BuffInfoStruct,std::allocator<BuffInfoStruct> >
__ehhandler$??0ioLobeliaWeapon@@QAE@PAVioBaseChar@@PBUWeaponAttribute@@@Z:
  000c1	8b 54 24 08	 mov	 edx, DWORD PTR [esp+8]
  000c5	8d 42 0c	 lea	 eax, DWORD PTR [edx+12]
  000c8	8b 4a ec	 mov	 ecx, DWORD PTR [edx-20]
  000cb	33 c8		 xor	 ecx, eax
  000cd	e8 00 00 00 00	 call	 @__security_check_cookie@4
  000d2	b8 00 00 00 00	 mov	 eax, OFFSET __ehfuncinfo$??0ioLobeliaWeapon@@QAE@PAVioBaseChar@@PBUWeaponAttribute@@@Z
  000d7	e9 00 00 00 00	 jmp	 ___CxxFrameHandler3
text$x	ENDS
??0ioLobeliaWeapon@@QAE@PAVioBaseChar@@PBUWeaponAttribute@@@Z ENDP ; ioLobeliaWeapon::ioLobeliaWeapon
PUBLIC	??_C@_0DI@KOICDOEJ@ioLobeliaWeapon?3?3?$HOioLobeliaWeapo@ ; `string'
PUBLIC	??1ioLobeliaWeapon@@UAE@XZ			; ioLobeliaWeapon::~ioLobeliaWeapon
EXTRN	__imp_?PrintTimeAndLog@CLog@@QAAXHPADZZ:PROC
EXTRN	__imp_?LOG@@3VCLog@@A:BYTE
;	COMDAT ??_C@_0DI@KOICDOEJ@ioLobeliaWeapon?3?3?$HOioLobeliaWeapo@
; File d:\lost saga for developer\youtube\tutorial\source\src\lsclient\encryptvalue.h
CONST	SEGMENT
??_C@_0DI@KOICDOEJ@ioLobeliaWeapon?3?3?$HOioLobeliaWeapo@ DB 'ioLobeliaWe'
	DB	'apon::~ioLobeliaWeapon - UnReleased Resource', 00H ; `string'
CONST	ENDS
;	COMDAT xdata$x
xdata$x	SEGMENT
__ehfuncinfo$??1ioLobeliaWeapon@@UAE@XZ DD 019930522H
	DD	0eH
	DD	FLAT:__unwindtable$??1ioLobeliaWeapon@@UAE@XZ
	DD	2 DUP(00H)
	DD	2 DUP(00H)
	DD	00H
	DD	01H
__unwindtable$??1ioLobeliaWeapon@@UAE@XZ DD 0ffffffffH
	DD	FLAT:__unwindfunclet$??1ioLobeliaWeapon@@UAE@XZ$0
	DD	00H
	DD	FLAT:__unwindfunclet$??1ioLobeliaWeapon@@UAE@XZ$1
	DD	01H
	DD	FLAT:__unwindfunclet$??1ioLobeliaWeapon@@UAE@XZ$2
	DD	02H
	DD	FLAT:__unwindfunclet$??1ioLobeliaWeapon@@UAE@XZ$3
	DD	03H
	DD	FLAT:__unwindfunclet$??1ioLobeliaWeapon@@UAE@XZ$4
	DD	04H
	DD	FLAT:__unwindfunclet$??1ioLobeliaWeapon@@UAE@XZ$5
	DD	05H
	DD	FLAT:__unwindfunclet$??1ioLobeliaWeapon@@UAE@XZ$6
	DD	06H
	DD	FLAT:__unwindfunclet$??1ioLobeliaWeapon@@UAE@XZ$7
	DD	07H
	DD	FLAT:__unwindfunclet$??1ioLobeliaWeapon@@UAE@XZ$8
	DD	08H
	DD	FLAT:__unwindfunclet$??1ioLobeliaWeapon@@UAE@XZ$9
	DD	09H
	DD	FLAT:__unwindfunclet$??1ioLobeliaWeapon@@UAE@XZ$10
	DD	0aH
	DD	FLAT:__unwindfunclet$??1ioLobeliaWeapon@@UAE@XZ$11
	DD	0bH
	DD	FLAT:__unwindfunclet$??1ioLobeliaWeapon@@UAE@XZ$12
	DD	0cH
	DD	FLAT:__unwindfunclet$??1ioLobeliaWeapon@@UAE@XZ$13
; Function compile flags: /Ogsp
; File d:\lost saga for developer\youtube\tutorial\source\src\lsclient\iolobeliaweapon.cpp
xdata$x	ENDS
;	COMDAT ??1ioLobeliaWeapon@@UAE@XZ
_TEXT	SEGMENT
_this$ = -16						; size = 4
__$EHRec$ = -12						; size = 12
??1ioLobeliaWeapon@@UAE@XZ PROC				; ioLobeliaWeapon::~ioLobeliaWeapon, COMDAT
; _this$ = ecx

; 39   : {

  00000	6a 04		 push	 4
  00002	b8 00 00 00 00	 mov	 eax, __ehhandler$??1ioLobeliaWeapon@@UAE@XZ
  00007	e8 00 00 00 00	 call	 __EH_prolog3
  0000c	8b f1		 mov	 esi, ecx
  0000e	89 75 f0	 mov	 DWORD PTR _this$[ebp], esi
  00011	c7 06 00 00 00
	00		 mov	 DWORD PTR [esi], OFFSET ??_7ioLobeliaWeapon@@6B@

; 40   : 	if( m_pFireMesh )

  00017	83 be 98 08 00
	00 00		 cmp	 DWORD PTR [esi+2200], 0
  0001e	c7 45 fc 0d 00
	00 00		 mov	 DWORD PTR __$EHRec$[ebp+8], 13 ; 0000000dH
  00025	74 16		 je	 SHORT $LN1@ioLobeliaW

; 41   : 	{
; 42   : 		LOG.PrintTimeAndLog( 0, "ioLobeliaWeapon::~ioLobeliaWeapon - UnReleased Resource" );

  00027	68 00 00 00 00	 push	 OFFSET ??_C@_0DI@KOICDOEJ@ioLobeliaWeapon?3?3?$HOioLobeliaWeapo@
  0002c	6a 00		 push	 0
  0002e	ff 35 00 00 00
	00		 push	 DWORD PTR __imp_?LOG@@3VCLog@@A
  00034	ff 15 00 00 00
	00		 call	 DWORD PTR __imp_?PrintTimeAndLog@CLog@@QAAXHPADZZ
  0003a	83 c4 0c	 add	 esp, 12			; 0000000cH
$LN1@ioLobeliaW:

; 43   : 	}
; 44   : }

  0003d	8d 8e 18 0b 00
	00		 lea	 ecx, DWORD PTR [esi+2840]
  00043	c6 45 fc 0c	 mov	 BYTE PTR __$EHRec$[ebp+8], 12 ; 0000000cH
  00047	e8 00 00 00 00	 call	 ?_Tidy@?$vector@UBuffInfoStruct@@V?$allocator@UBuffInfoStruct@@@std@@@std@@IAEXXZ ; std::vector<BuffInfoStruct,std::allocator<BuffInfoStruct> >::_Tidy
  0004c	bf 00 00 00 00	 mov	 edi, OFFSET ??_7?$CEncrypt@M@@6B@
  00051	8d 8e f4 0a 00
	00		 lea	 ecx, DWORD PTR [esi+2804]
  00057	c6 45 fc 0b	 mov	 BYTE PTR __$EHRec$[ebp+8], 11 ; 0000000bH
  0005b	89 be e8 0a 00
	00		 mov	 DWORD PTR [esi+2792], edi
  00061	e8 00 00 00 00	 call	 ??1ccddaabb@@UAE@XZ	; ccddaabb::~ccddaabb
  00066	8d 8e c4 0a 00
	00		 lea	 ecx, DWORD PTR [esi+2756]
  0006c	c6 45 fc 0a	 mov	 BYTE PTR __$EHRec$[ebp+8], 10 ; 0000000aH
  00070	89 be b8 0a 00
	00		 mov	 DWORD PTR [esi+2744], edi
  00076	e8 00 00 00 00	 call	 ??1ccddaabb@@UAE@XZ	; ccddaabb::~ccddaabb
  0007b	8d 8e 94 0a 00
	00		 lea	 ecx, DWORD PTR [esi+2708]
  00081	c6 45 fc 09	 mov	 BYTE PTR __$EHRec$[ebp+8], 9
  00085	89 be 88 0a 00
	00		 mov	 DWORD PTR [esi+2696], edi
  0008b	e8 00 00 00 00	 call	 ??1ccddaabb@@UAE@XZ	; ccddaabb::~ccddaabb
  00090	8d 8e 64 0a 00
	00		 lea	 ecx, DWORD PTR [esi+2660]
  00096	c6 45 fc 08	 mov	 BYTE PTR __$EHRec$[ebp+8], 8
  0009a	89 be 58 0a 00
	00		 mov	 DWORD PTR [esi+2648], edi
  000a0	e8 00 00 00 00	 call	 ??1ccddaabb@@UAE@XZ	; ccddaabb::~ccddaabb
  000a5	8d 8e 34 0a 00
	00		 lea	 ecx, DWORD PTR [esi+2612]
  000ab	c6 45 fc 07	 mov	 BYTE PTR __$EHRec$[ebp+8], 7
  000af	89 be 28 0a 00
	00		 mov	 DWORD PTR [esi+2600], edi
  000b5	e8 00 00 00 00	 call	 ??1ccddaabb@@UAE@XZ	; ccddaabb::~ccddaabb
  000ba	8d 8e 04 0a 00
	00		 lea	 ecx, DWORD PTR [esi+2564]
  000c0	c6 45 fc 06	 mov	 BYTE PTR __$EHRec$[ebp+8], 6
  000c4	89 be f8 09 00
	00		 mov	 DWORD PTR [esi+2552], edi
  000ca	e8 00 00 00 00	 call	 ??1ccddaabb@@UAE@XZ	; ccddaabb::~ccddaabb
  000cf	8d 8e d4 09 00
	00		 lea	 ecx, DWORD PTR [esi+2516]
  000d5	c6 45 fc 05	 mov	 BYTE PTR __$EHRec$[ebp+8], 5
  000d9	89 be c8 09 00
	00		 mov	 DWORD PTR [esi+2504], edi
  000df	e8 00 00 00 00	 call	 ??1ccddaabb@@UAE@XZ	; ccddaabb::~ccddaabb
  000e4	8d 8e a4 09 00
	00		 lea	 ecx, DWORD PTR [esi+2468]
  000ea	c6 45 fc 04	 mov	 BYTE PTR __$EHRec$[ebp+8], 4
  000ee	89 be 98 09 00
	00		 mov	 DWORD PTR [esi+2456], edi
  000f4	e8 00 00 00 00	 call	 ??1ccddaabb@@UAE@XZ	; ccddaabb::~ccddaabb
  000f9	8d 8e 74 09 00
	00		 lea	 ecx, DWORD PTR [esi+2420]
  000ff	c6 45 fc 03	 mov	 BYTE PTR __$EHRec$[ebp+8], 3
  00103	89 be 68 09 00
	00		 mov	 DWORD PTR [esi+2408], edi
  00109	e8 00 00 00 00	 call	 ??1ccddaabb@@UAE@XZ	; ccddaabb::~ccddaabb
  0010e	8d 8e dc 08 00
	00		 lea	 ecx, DWORD PTR [esi+2268]
  00114	c6 45 fc 02	 mov	 BYTE PTR __$EHRec$[ebp+8], 2
  00118	ff 15 00 00 00
	00		 call	 DWORD PTR __imp_??1ioOrientBox@@QAE@XZ
  0011e	8b 3d 00 00 00
	00		 mov	 edi, DWORD PTR __imp_??1ioHashString@@QAE@XZ
  00124	8d 8e ac 08 00
	00		 lea	 ecx, DWORD PTR [esi+2220]
  0012a	c6 45 fc 01	 mov	 BYTE PTR __$EHRec$[ebp+8], 1
  0012e	ff d7		 call	 edi
  00130	8d 8e 9c 08 00
	00		 lea	 ecx, DWORD PTR [esi+2204]
  00136	c6 45 fc 00	 mov	 BYTE PTR __$EHRec$[ebp+8], 0
  0013a	ff d7		 call	 edi
  0013c	83 4d fc ff	 or	 DWORD PTR __$EHRec$[ebp+8], -1
  00140	8b ce		 mov	 ecx, esi
  00142	e8 00 00 00 00	 call	 ??1ioWeapon@@UAE@XZ	; ioWeapon::~ioWeapon
  00147	e8 00 00 00 00	 call	 __EH_epilog3
  0014c	c3		 ret	 0
_TEXT	ENDS
;	COMDAT text$x
text$x	SEGMENT
__unwindfunclet$??1ioLobeliaWeapon@@UAE@XZ$0:
  00000	8b 4d f0	 mov	 ecx, DWORD PTR _this$[ebp]
  00003	e9 00 00 00 00	 jmp	 ??1ioWeapon@@UAE@XZ	; ioWeapon::~ioWeapon
__unwindfunclet$??1ioLobeliaWeapon@@UAE@XZ$1:
  00008	8b 4d f0	 mov	 ecx, DWORD PTR _this$[ebp]
  0000b	81 c1 9c 08 00
	00		 add	 ecx, 2204		; 0000089cH
  00011	ff 25 00 00 00
	00		 jmp	 DWORD PTR __imp_??1ioHashString@@QAE@XZ
__unwindfunclet$??1ioLobeliaWeapon@@UAE@XZ$2:
  00017	8b 4d f0	 mov	 ecx, DWORD PTR _this$[ebp]
  0001a	81 c1 ac 08 00
	00		 add	 ecx, 2220		; 000008acH
  00020	ff 25 00 00 00
	00		 jmp	 DWORD PTR __imp_??1ioHashString@@QAE@XZ
__unwindfunclet$??1ioLobeliaWeapon@@UAE@XZ$3:
  00026	8b 4d f0	 mov	 ecx, DWORD PTR _this$[ebp]
  00029	81 c1 dc 08 00
	00		 add	 ecx, 2268		; 000008dcH
  0002f	ff 25 00 00 00
	00		 jmp	 DWORD PTR __imp_??1ioOrientBox@@QAE@XZ
__unwindfunclet$??1ioLobeliaWeapon@@UAE@XZ$4:
  00035	8b 4d f0	 mov	 ecx, DWORD PTR _this$[ebp]
  00038	81 c1 68 09 00
	00		 add	 ecx, 2408		; 00000968H
  0003e	e9 00 00 00 00	 jmp	 ??1?$CEncrypt@M@@UAE@XZ	; CEncrypt<float>::~CEncrypt<float>
__unwindfunclet$??1ioLobeliaWeapon@@UAE@XZ$5:
  00043	8b 4d f0	 mov	 ecx, DWORD PTR _this$[ebp]
  00046	81 c1 98 09 00
	00		 add	 ecx, 2456		; 00000998H
  0004c	e9 00 00 00 00	 jmp	 ??1?$CEncrypt@M@@UAE@XZ	; CEncrypt<float>::~CEncrypt<float>
__unwindfunclet$??1ioLobeliaWeapon@@UAE@XZ$6:
  00051	8b 4d f0	 mov	 ecx, DWORD PTR _this$[ebp]
  00054	81 c1 c8 09 00
	00		 add	 ecx, 2504		; 000009c8H
  0005a	e9 00 00 00 00	 jmp	 ??1?$CEncrypt@M@@UAE@XZ	; CEncrypt<float>::~CEncrypt<float>
__unwindfunclet$??1ioLobeliaWeapon@@UAE@XZ$7:
  0005f	8b 4d f0	 mov	 ecx, DWORD PTR _this$[ebp]
  00062	81 c1 f8 09 00
	00		 add	 ecx, 2552		; 000009f8H
  00068	e9 00 00 00 00	 jmp	 ??1?$CEncrypt@M@@UAE@XZ	; CEncrypt<float>::~CEncrypt<float>
__unwindfunclet$??1ioLobeliaWeapon@@UAE@XZ$8:
  0006d	8b 4d f0	 mov	 ecx, DWORD PTR _this$[ebp]
  00070	81 c1 28 0a 00
	00		 add	 ecx, 2600		; 00000a28H
  00076	e9 00 00 00 00	 jmp	 ??1?$CEncrypt@M@@UAE@XZ	; CEncrypt<float>::~CEncrypt<float>
__unwindfunclet$??1ioLobeliaWeapon@@UAE@XZ$9:
  0007b	8b 4d f0	 mov	 ecx, DWORD PTR _this$[ebp]
  0007e	81 c1 58 0a 00
	00		 add	 ecx, 2648		; 00000a58H
  00084	e9 00 00 00 00	 jmp	 ??1?$CEncrypt@M@@UAE@XZ	; CEncrypt<float>::~CEncrypt<float>
__unwindfunclet$??1ioLobeliaWeapon@@UAE@XZ$10:
  00089	8b 4d f0	 mov	 ecx, DWORD PTR _this$[ebp]
  0008c	81 c1 88 0a 00
	00		 add	 ecx, 2696		; 00000a88H
  00092	e9 00 00 00 00	 jmp	 ??1?$CEncrypt@M@@UAE@XZ	; CEncrypt<float>::~CEncrypt<float>
__unwindfunclet$??1ioLobeliaWeapon@@UAE@XZ$11:
  00097	8b 4d f0	 mov	 ecx, DWORD PTR _this$[ebp]
  0009a	81 c1 b8 0a 00
	00		 add	 ecx, 2744		; 00000ab8H
  000a0	e9 00 00 00 00	 jmp	 ??1?$CEncrypt@M@@UAE@XZ	; CEncrypt<float>::~CEncrypt<float>
__unwindfunclet$??1ioLobeliaWeapon@@UAE@XZ$12:
  000a5	8b 4d f0	 mov	 ecx, DWORD PTR _this$[ebp]
  000a8	81 c1 e8 0a 00
	00		 add	 ecx, 2792		; 00000ae8H
  000ae	e9 00 00 00 00	 jmp	 ??1?$CEncrypt@M@@UAE@XZ	; CEncrypt<float>::~CEncrypt<float>
__unwindfunclet$??1ioLobeliaWeapon@@UAE@XZ$13:
  000b3	8b 4d f0	 mov	 ecx, DWORD PTR _this$[ebp]
  000b6	81 c1 18 0b 00
	00		 add	 ecx, 2840		; 00000b18H
  000bc	e9 00 00 00 00	 jmp	 ??1?$vector@UBuffInfoStruct@@V?$allocator@UBuffInfoStruct@@@std@@@std@@QAE@XZ ; std::vector<BuffInfoStruct,std::allocator<BuffInfoStruct> >::~vector<BuffInfoStruct,std::allocator<BuffInfoStruct> >
__ehhandler$??1ioLobeliaWeapon@@UAE@XZ:
  000c1	8b 54 24 08	 mov	 edx, DWORD PTR [esp+8]
  000c5	8d 42 0c	 lea	 eax, DWORD PTR [edx+12]
  000c8	8b 4a ec	 mov	 ecx, DWORD PTR [edx-20]
  000cb	33 c8		 xor	 ecx, eax
  000cd	e8 00 00 00 00	 call	 @__security_check_cookie@4
  000d2	b8 00 00 00 00	 mov	 eax, OFFSET __ehfuncinfo$??1ioLobeliaWeapon@@UAE@XZ
  000d7	e9 00 00 00 00	 jmp	 ___CxxFrameHandler3
text$x	ENDS
??1ioLobeliaWeapon@@UAE@XZ ENDP				; ioLobeliaWeapon::~ioLobeliaWeapon
PUBLIC	?push_back@?$vector@UBuffInfoStruct@@V?$allocator@UBuffInfoStruct@@@std@@@std@@QAEXABUBuffInfoStruct@@@Z ; std::vector<BuffInfoStruct,std::allocator<BuffInfoStruct> >::push_back
; Function compile flags: /Ogsp
; File c:\program files (x86)\microsoft visual studio 10.0\vc\include\vector
;	COMDAT ?push_back@?$vector@UBuffInfoStruct@@V?$allocator@UBuffInfoStruct@@@std@@@std@@QAEXABUBuffInfoStruct@@@Z
_TEXT	SEGMENT
__Val$ = 8						; size = 4
?push_back@?$vector@UBuffInfoStruct@@V?$allocator@UBuffInfoStruct@@@std@@@std@@QAEXABUBuffInfoStruct@@@Z PROC ; std::vector<BuffInfoStruct,std::allocator<BuffInfoStruct> >::push_back, COMDAT
; _this$ = ecx

; 976  : 		{	// insert element at end

  00000	55		 push	 ebp
  00001	8b ec		 mov	 ebp, esp
  00003	56		 push	 esi
  00004	8b f1		 mov	 esi, ecx

; 977  : 		if (_Inside(_STD addressof(_Val)))

  00006	8b 4e 04	 mov	 ecx, DWORD PTR [esi+4]
  00009	57		 push	 edi
  0000a	8b 7d 08	 mov	 edi, DWORD PTR __Val$[ebp]
  0000d	3b f9		 cmp	 edi, ecx
  0000f	73 33		 jae	 SHORT $LN4@push_back
  00011	8b 16		 mov	 edx, DWORD PTR [esi]
  00013	3b d7		 cmp	 edx, edi
  00015	77 2d		 ja	 SHORT $LN4@push_back

; 978  : 			{	// push back an element
; 979  : 			size_type _Idx = _STD addressof(_Val) - this->_Myfirst;

  00017	8b c7		 mov	 eax, edi
  00019	2b c2		 sub	 eax, edx
  0001b	6a 14		 push	 20			; 00000014H
  0001d	99		 cdq
  0001e	5f		 pop	 edi
  0001f	f7 ff		 idiv	 edi
  00021	8b f8		 mov	 edi, eax

; 980  : 			if (this->_Mylast == this->_Myend)

  00023	3b 4e 08	 cmp	 ecx, DWORD PTR [esi+8]
  00026	75 09		 jne	 SHORT $LN3@push_back

; 981  : 				_Reserve(1);

  00028	6a 01		 push	 1
  0002a	8b ce		 mov	 ecx, esi
  0002c	e8 00 00 00 00	 call	 ?_Reserve@?$vector@UBuffInfoStruct@@V?$allocator@UBuffInfoStruct@@@std@@@std@@IAEXI@Z ; std::vector<BuffInfoStruct,std::allocator<BuffInfoStruct> >::_Reserve
$LN3@push_back:

; 982  : 			_Orphan_range(this->_Mylast, this->_Mylast);
; 983  : 			_Cons_val(this->_Alval,
; 984  : 				this->_Mylast,
; 985  : 				this->_Myfirst[_Idx]);

  00031	6b ff 14	 imul	 edi, 20			; 00000014H
  00034	03 3e		 add	 edi, DWORD PTR [esi]
  00036	8d 4e 0c	 lea	 ecx, DWORD PTR [esi+12]
  00039	57		 push	 edi
  0003a	ff 76 04	 push	 DWORD PTR [esi+4]
  0003d	e8 00 00 00 00	 call	 ??$construct@AAUBuffInfoStruct@@@?$allocator@UBuffInfoStruct@@@std@@QAEXPAUBuffInfoStruct@@AAU2@@Z ; std::allocator<BuffInfoStruct>::construct<BuffInfoStruct &>

; 986  : 			++this->_Mylast;
; 987  : 			}
; 988  : 		else

  00042	eb 19		 jmp	 SHORT $LN30@push_back
$LN4@push_back:

; 989  : 			{	// push back a non-element
; 990  : 			if (this->_Mylast == this->_Myend)

  00044	3b 4e 08	 cmp	 ecx, DWORD PTR [esi+8]
  00047	75 09		 jne	 SHORT $LN1@push_back

; 991  : 				_Reserve(1);

  00049	6a 01		 push	 1
  0004b	8b ce		 mov	 ecx, esi
  0004d	e8 00 00 00 00	 call	 ?_Reserve@?$vector@UBuffInfoStruct@@V?$allocator@UBuffInfoStruct@@@std@@@std@@IAEXI@Z ; std::vector<BuffInfoStruct,std::allocator<BuffInfoStruct> >::_Reserve
$LN1@push_back:

; 992  : 			_Orphan_range(this->_Mylast, this->_Mylast);
; 993  : 			_Cons_val(this->_Alval,
; 994  : 				this->_Mylast,
; 995  : 				_Val);

  00052	57		 push	 edi
  00053	ff 76 04	 push	 DWORD PTR [esi+4]
  00056	e8 00 00 00 00	 call	 ??$_Construct@UBuffInfoStruct@@ABU1@@std@@YAXPAUBuffInfoStruct@@ABU1@@Z ; std::_Construct<BuffInfoStruct,BuffInfoStruct const &>
  0005b	59		 pop	 ecx
  0005c	59		 pop	 ecx
$LN30@push_back:

; 996  : 			++this->_Mylast;

  0005d	83 46 04 14	 add	 DWORD PTR [esi+4], 20	; 00000014H
  00061	5f		 pop	 edi
  00062	5e		 pop	 esi

; 997  : 			}
; 998  : 		}

  00063	5d		 pop	 ebp
  00064	c2 04 00	 ret	 4
?push_back@?$vector@UBuffInfoStruct@@V?$allocator@UBuffInfoStruct@@@std@@@std@@QAEXABUBuffInfoStruct@@@Z ENDP ; std::vector<BuffInfoStruct,std::allocator<BuffInfoStruct> >::push_back
; Function compile flags: /Ogsp
_TEXT	ENDS
;	COMDAT ??_GioLobeliaWeapon@@UAEPAXI@Z
_TEXT	SEGMENT
___flags$ = 8						; size = 4
??_GioLobeliaWeapon@@UAEPAXI@Z PROC			; ioLobeliaWeapon::`scalar deleting destructor', COMDAT
; _this$ = ecx
  00000	55		 push	 ebp
  00001	8b ec		 mov	 ebp, esp
  00003	56		 push	 esi
  00004	8b f1		 mov	 esi, ecx
  00006	e8 00 00 00 00	 call	 ??1ioLobeliaWeapon@@UAE@XZ ; ioLobeliaWeapon::~ioLobeliaWeapon
  0000b	f6 45 08 01	 test	 BYTE PTR ___flags$[ebp], 1
  0000f	74 07		 je	 SHORT $LN1@scalar@4
  00011	56		 push	 esi
  00012	e8 00 00 00 00	 call	 ??3@YAXPAX@Z		; operator delete
  00017	59		 pop	 ecx
$LN1@scalar@4:
  00018	8b c6		 mov	 eax, esi
  0001a	5e		 pop	 esi
  0001b	5d		 pop	 ebp
  0001c	c2 04 00	 ret	 4
??_GioLobeliaWeapon@@UAEPAXI@Z ENDP			; ioLobeliaWeapon::`scalar deleting destructor'
_TEXT	ENDS
PUBLIC	__real@41a00000
PUBLIC	??_C@_00CNPNBAHC@?$AA@				; `string'
EXTRN	?GetBuffType@ioBuffMaker@@QBEHABVioHashString@@@Z:PROC ; ioBuffMaker::GetBuffType
EXTRN	?GetSingleton@ioBuffMaker@@SAAAV1@XZ:PROC	; ioBuffMaker::GetSingleton
EXTRN	__imp__wsprintfA:PROC
EXTRN	__imp_??4ioHashString@@QAEAAV0@PBD@Z:PROC
EXTRN	?LoadProperty@ioWeapon@@UAEXAAVioINILoader@@@Z:PROC ; ioWeapon::LoadProperty
EXTRN	_memset:PROC
;	COMDAT __real@41a00000
; File d:\lost saga for developer\youtube\tutorial\source\src\lsclient\weaponattribute.h
CONST	SEGMENT
__real@41a00000 DD 041a00000r			; 20
CONST	ENDS
;	COMDAT ??_C@_00CNPNBAHC@?$AA@
CONST	SEGMENT
??_C@_00CNPNBAHC@?$AA@ DB 00H				; `string'
CONST	ENDS
;	COMDAT xdata$x
xdata$x	SEGMENT
__unwindtable$?LoadProperty@ioLobeliaWeapon@@UAEXAAVioINILoader@@@Z DD 0ffffffffH
	DD	FLAT:__unwindfunclet$?LoadProperty@ioLobeliaWeapon@@UAEXAAVioINILoader@@@Z$0
__ehfuncinfo$?LoadProperty@ioLobeliaWeapon@@UAEXAAVioINILoader@@@Z DD 019930522H
	DD	01H
	DD	FLAT:__unwindtable$?LoadProperty@ioLobeliaWeapon@@UAEXAAVioINILoader@@@Z
	DD	2 DUP(00H)
	DD	2 DUP(00H)
	DD	00H
	DD	01H
; Function compile flags: /Ogsp
; File d:\lost saga for developer\youtube\tutorial\source\src\lsclient\iolobeliaweapon.cpp
xdata$x	ENDS
;	COMDAT ?LoadProperty@ioLobeliaWeapon@@UAEXAAVioINILoader@@@Z
_TEXT	SEGMENT
_tBuffInfo$530892 = -1108				; size = 20
tv18583 = -1088						; size = 4
_value$539423 = -1084					; size = 4
_iCount$ = -1080					; size = 4
_dwCurTime$ = -1080					; size = 4
_szKey$ = -1076						; size = 260
_szBuf$ = -816						; size = 260
__k$540441 = -556					; size = 17
__k$540402 = -532					; size = 17
__k$538199 = -508					; size = 25
__k$539704 = -476					; size = 22
__k$537687 = -448					; size = 12
__k$539941 = -432					; size = 20
___encStr$530742 = -408					; size = 15
__k$539566 = -388					; size = 20
__k$538561 = -364					; size = 16
__k$539441 = -344					; size = 20
__k$537949 = -320					; size = 14
__k$538936 = -300					; size = 20
__k$538824 = -276					; size = 16
__k$538699 = -256					; size = 20
__k$538074 = -232					; size = 16
__k$538496 = -212					; size = 19
__k$539061 = -188					; size = 15
__k$539187 = -168					; size = 11
__k$537824 = -152					; size = 14
__k$538324 = -132					; size = 24
__k$540079 = -104					; size = 23
__k$539311 = -76					; size = 16
__k$539829 = -56					; size = 16
__k$540191 = -36					; size = 16
__$EHRec$ = -12						; size = 12
_rkLoader$ = 8						; size = 4
?LoadProperty@ioLobeliaWeapon@@UAEXAAVioINILoader@@@Z PROC ; ioLobeliaWeapon::LoadProperty, COMDAT
; _this$ = ecx

; 59   : {

  00000	68 48 04 00 00	 push	 1096			; 00000448H
  00005	b8 00 00 00 00	 mov	 eax, __ehhandler$?LoadProperty@ioLobeliaWeapon@@UAEXAAVioINILoader@@@Z
  0000a	e8 00 00 00 00	 call	 __EH_prolog3_GS
  0000f	8b 7d 08	 mov	 edi, DWORD PTR _rkLoader$[ebp]

; 60   : 	ioWeapon::LoadProperty( rkLoader );

  00012	57		 push	 edi
  00013	8b f1		 mov	 esi, ecx
  00015	e8 00 00 00 00	 call	 ?LoadProperty@ioWeapon@@UAEXAAVioINILoader@@@Z ; ioWeapon::LoadProperty

; 61   : 
; 62   : 	DWORD dwCurTime = FRAMEGETTIME();

  0001a	ff 15 00 00 00
	00		 call	 DWORD PTR __imp_?GetSingleton@ioFrameTimer@@SAAAV1@XZ
  00020	8b c8		 mov	 ecx, eax
  00022	ff 15 00 00 00
	00		 call	 DWORD PTR __imp_?GetLoopSec@ioFrameTimer@@QBEKXZ

; 63   : 
; 64   : 	char szBuf[MAX_PATH] = "";

  00028	33 db		 xor	 ebx, ebx
  0002a	68 03 01 00 00	 push	 259			; 00000103H
  0002f	89 85 c8 fb ff
	ff		 mov	 DWORD PTR _dwCurTime$[ebp], eax
  00035	8d 85 d1 fc ff
	ff		 lea	 eax, DWORD PTR _szBuf$[ebp+1]
  0003b	53		 push	 ebx
  0003c	50		 push	 eax
  0003d	88 9d d0 fc ff
	ff		 mov	 BYTE PTR _szBuf$[ebp], bl
  00043	e8 00 00 00 00	 call	 _memset

; 65   : 	char szKey[MAX_PATH] = "";

  00048	68 03 01 00 00	 push	 259			; 00000103H
  0004d	8d 85 cd fb ff
	ff		 lea	 eax, DWORD PTR _szKey$[ebp+1]
  00053	53		 push	 ebx
  00054	50		 push	 eax
  00055	88 9d cc fb ff
	ff		 mov	 BYTE PTR _szKey$[ebp], bl
  0005b	e8 00 00 00 00	 call	 _memset
  00060	83 c4 18	 add	 esp, 24			; 00000018H

; 66   : 
; 67   : 	rkLoader.LoadString_e( "boom_effect", "", szBuf, MAX_PATH );

  00063	6a 02		 push	 2
  00065	c7 85 40 fe ff
	ff 8f 83 84 87	 mov	 DWORD PTR __k$537687[ebp], -2021358705 ; 8784838fH
  0006f	c7 85 44 fe ff
	ff b2 89 8d 8c	 mov	 DWORD PTR __k$537687[ebp+4], -1936881230 ; 8c8d89b2H
  00079	8d 85 40 fe ff
	ff		 lea	 eax, DWORD PTR __k$537687[ebp]
  0007f	c7 85 48 fe ff
	ff 88 8f 9f 00	 mov	 DWORD PTR __k$537687[ebp+8], 10456968 ; 009f8f88H
  00089	59		 pop	 ecx
$LL211@LoadProper:
  0008a	81 30 ed ec eb
	ea		 xor	 DWORD PTR [eax], -353637139 ; eaebecedH
  00090	83 c0 04	 add	 eax, 4
  00093	49		 dec	 ecx
  00094	75 f4		 jne	 SHORT $LL211@LoadProper
  00096	6a 08		 push	 8
  00098	58		 pop	 eax
$LL208@LoadProper:
  00099	8b c8		 mov	 ecx, eax
  0009b	81 e1 03 00 00
	80		 and	 ecx, -2147483645	; 80000003H
  000a1	79 05		 jns	 SHORT $LN2658@LoadProper
  000a3	49		 dec	 ecx
  000a4	83 c9 fc	 or	 ecx, -4			; fffffffcH
  000a7	41		 inc	 ecx
$LN2658@LoadProper:
  000a8	b2 ed		 mov	 dl, -19			; ffffffedH
  000aa	2a d1		 sub	 dl, cl
  000ac	30 94 05 40 fe
	ff ff		 xor	 BYTE PTR __k$537687[ebp+eax], dl
  000b3	40		 inc	 eax
  000b4	83 f8 0b	 cmp	 eax, 11			; 0000000bH
  000b7	7c e0		 jl	 SHORT $LL208@LoadProper
  000b9	68 04 01 00 00	 push	 260			; 00000104H
  000be	8d 85 d0 fc ff
	ff		 lea	 eax, DWORD PTR _szBuf$[ebp]
  000c4	50		 push	 eax
  000c5	68 00 00 00 00	 push	 OFFSET ??_C@_00CNPNBAHC@?$AA@
  000ca	8d 85 40 fe ff
	ff		 lea	 eax, DWORD PTR __k$537687[ebp]
  000d0	50		 push	 eax
  000d1	8b cf		 mov	 ecx, edi
  000d3	ff 15 00 00 00
	00		 call	 DWORD PTR __imp_?LoadStringA@ioINILoader@@QAEXPBD0PADH@Z

; 68   : 	m_BoomEffect = szBuf;

  000d9	8d 85 d0 fc ff
	ff		 lea	 eax, DWORD PTR _szBuf$[ebp]
  000df	50		 push	 eax
  000e0	8d 8e ac 08 00
	00		 lea	 ecx, DWORD PTR [esi+2220]
  000e6	ff 15 00 00 00
	00		 call	 DWORD PTR __imp_??4ioHashString@@QAEAAV0@PBD@Z
  000ec	6a 03		 push	 3

; 69   : 
; 70   : 	rkLoader.LoadString_e( "ground_effect", "", szBuf, MAX_PATH );

  000ee	c7 85 68 ff ff
	ff 8a 9e 84 9f	 mov	 DWORD PTR __k$537824[ebp], -1618698614 ; 9f849e8aH
  000f8	c7 85 6c ff ff
	ff 83 88 b4 8f	 mov	 DWORD PTR __k$537824[ebp+4], -1883993981 ; 8fb48883H
  00102	c7 85 70 ff ff
	ff 8b 8a 8e 89	 mov	 DWORD PTR __k$537824[ebp+8], -1987147125 ; 898e8a8bH
  0010c	8d 85 68 ff ff
	ff		 lea	 eax, DWORD PTR __k$537824[ebp]
  00112	66 c7 85 74 ff
	ff ff 99 00	 mov	 WORD PTR __k$537824[ebp+12], 153 ; 00000099H
  0011b	59		 pop	 ecx
$LL317@LoadProper:
  0011c	81 30 ed ec eb
	ea		 xor	 DWORD PTR [eax], -353637139 ; eaebecedH
  00122	83 c0 04	 add	 eax, 4
  00125	49		 dec	 ecx
  00126	75 f4		 jne	 SHORT $LL317@LoadProper
  00128	80 b5 74 ff ff
	ff ed		 xor	 BYTE PTR __k$537824[ebp+12], -19 ; ffffffedH
  0012f	68 04 01 00 00	 push	 260			; 00000104H
  00134	8d 85 d0 fc ff
	ff		 lea	 eax, DWORD PTR _szBuf$[ebp]
  0013a	50		 push	 eax
  0013b	68 00 00 00 00	 push	 OFFSET ??_C@_00CNPNBAHC@?$AA@
  00140	8d 85 68 ff ff
	ff		 lea	 eax, DWORD PTR __k$537824[ebp]
  00146	50		 push	 eax
  00147	8b cf		 mov	 ecx, edi
  00149	ff 15 00 00 00
	00		 call	 DWORD PTR __imp_?LoadStringA@ioINILoader@@QAEXPBD0PADH@Z

; 71   : 	m_GroundEffect = szBuf;

  0014f	8d 85 d0 fc ff
	ff		 lea	 eax, DWORD PTR _szBuf$[ebp]
  00155	50		 push	 eax
  00156	8d 8e 9c 08 00
	00		 lea	 ecx, DWORD PTR [esi+2204]
  0015c	ff 15 00 00 00
	00		 call	 DWORD PTR __imp_??4ioHashString@@QAEAAV0@PBD@Z
  00162	6a 03		 push	 3

; 72   : 
; 73   : 	m_bDirectlyBoom = rkLoader.LoadBool_e( "directly_boom", false );

  00164	c7 85 c0 fe ff
	ff 89 85 99 8f	 mov	 DWORD PTR __k$537949[ebp], -1885764215 ; 8f998589H
  0016e	c7 85 c4 fe ff
	ff 8e 98 87 93	 mov	 DWORD PTR __k$537949[ebp+4], -1819830130 ; 9387988eH
  00178	c7 85 c8 fe ff
	ff b2 8e 84 85	 mov	 DWORD PTR __k$537949[ebp+8], -2054910286 ; 85848eb2H
  00182	8d 85 c0 fe ff
	ff		 lea	 eax, DWORD PTR __k$537949[ebp]
  00188	66 c7 85 cc fe
	ff ff 80 00	 mov	 WORD PTR __k$537949[ebp+12], 128 ; 00000080H
  00191	59		 pop	 ecx
$LL423@LoadProper:
  00192	81 30 ed ec eb
	ea		 xor	 DWORD PTR [eax], -353637139 ; eaebecedH
  00198	83 c0 04	 add	 eax, 4
  0019b	49		 dec	 ecx
  0019c	75 f4		 jne	 SHORT $LL423@LoadProper
  0019e	80 b5 cc fe ff
	ff ed		 xor	 BYTE PTR __k$537949[ebp+12], -19 ; ffffffedH
  001a5	53		 push	 ebx
  001a6	8d 85 c0 fe ff
	ff		 lea	 eax, DWORD PTR __k$537949[ebp]
  001ac	50		 push	 eax
  001ad	8b cf		 mov	 ecx, edi
  001af	ff 15 00 00 00
	00		 call	 DWORD PTR __imp_?LoadBool@ioINILoader@@QAE_NPBD_N@Z
  001b5	88 86 5d 09 00
	00		 mov	 BYTE PTR [esi+2397], al
  001bb	6a 03		 push	 3

; 74   : 
; 75   : 	m_fExplosionRange = rkLoader.LoadFloat_e( "explosion_range", 0.0f );

  001bd	c7 85 18 ff ff
	ff 88 94 9b 86	 mov	 DWORD PTR __k$538074[ebp], -2036624248 ; 869b9488H
  001c7	c7 85 1c ff ff
	ff 82 9f 82 85	 mov	 DWORD PTR __k$538074[ebp+4], -2055037054 ; 85829f82H
  001d1	c7 85 20 ff ff
	ff 83 b3 99 8b	 mov	 DWORD PTR __k$538074[ebp+8], -1952861309 ; 8b99b383H
  001db	8d 85 18 ff ff
	ff		 lea	 eax, DWORD PTR __k$538074[ebp]
  001e1	c7 85 24 ff ff
	ff 83 8b 8e 00	 mov	 DWORD PTR __k$538074[ebp+12], 9341827 ; 008e8b83H
  001eb	59		 pop	 ecx
$LL529@LoadProper:
  001ec	81 30 ed ec eb
	ea		 xor	 DWORD PTR [eax], -353637139 ; eaebecedH
  001f2	83 c0 04	 add	 eax, 4
  001f5	49		 dec	 ecx
  001f6	75 f4		 jne	 SHORT $LL529@LoadProper
  001f8	6a 0c		 push	 12			; 0000000cH
  001fa	58		 pop	 eax
$LL526@LoadProper:
  001fb	8b c8		 mov	 ecx, eax
  001fd	81 e1 03 00 00
	80		 and	 ecx, -2147483645	; 80000003H
  00203	79 05		 jns	 SHORT $LN2659@LoadProper
  00205	49		 dec	 ecx
  00206	83 c9 fc	 or	 ecx, -4			; fffffffcH
  00209	41		 inc	 ecx
$LN2659@LoadProper:
  0020a	b2 ed		 mov	 dl, -19			; ffffffedH
  0020c	2a d1		 sub	 dl, cl
  0020e	30 94 05 18 ff
	ff ff		 xor	 BYTE PTR __k$538074[ebp+eax], dl
  00215	40		 inc	 eax
  00216	83 f8 0f	 cmp	 eax, 15			; 0000000fH
  00219	7c e0		 jl	 SHORT $LL526@LoadProper
  0021b	0f 57 c0	 xorps	 xmm0, xmm0
  0021e	51		 push	 ecx
  0021f	8d 85 18 ff ff
	ff		 lea	 eax, DWORD PTR __k$538074[ebp]
  00225	f3 0f 11 04 24	 movss	 DWORD PTR [esp], xmm0
  0022a	50		 push	 eax
  0022b	8b cf		 mov	 ecx, edi
  0022d	ff 15 00 00 00
	00		 call	 DWORD PTR __imp_?LoadFloat@ioINILoader@@QAEMPBDM@Z
  00233	d9 9e 3c 09 00
	00		 fstp	 DWORD PTR [esi+2364]
  00239	6a 06		 push	 6

; 76   : 
; 77   : 	m_dwThrowDuration = (DWORD)rkLoader.LoadInt_e( "throw_explosion_duration", 5000 );

  0023b	c7 85 04 fe ff
	ff 99 84 99 85	 mov	 DWORD PTR __k$538199[ebp], -2053536615 ; 85998499H
  00245	c7 85 08 fe ff
	ff 9a b3 8e 92	 mov	 DWORD PTR __k$538199[ebp+4], -1836141670 ; 928eb39aH
  0024f	c7 85 0c fe ff
	ff 9d 80 84 99	 mov	 DWORD PTR __k$538199[ebp+8], -1719369571 ; 9984809dH
  00259	c7 85 10 fe ff
	ff 84 83 85 b5	 mov	 DWORD PTR __k$538199[ebp+12], -1249541244 ; b5858384H
  00263	c7 85 14 fe ff
	ff 89 99 99 8b	 mov	 DWORD PTR __k$538199[ebp+16], -1952867959 ; 8b999989H
  0026d	c7 85 18 fe ff
	ff 99 85 84 84	 mov	 DWORD PTR __k$538199[ebp+20], -2071689831 ; 84848599H
  00277	8d 85 04 fe ff
	ff		 lea	 eax, DWORD PTR __k$538199[ebp]
  0027d	88 9d 1c fe ff
	ff		 mov	 BYTE PTR __k$538199[ebp+24], bl
  00283	59		 pop	 ecx
$LL635@LoadProper:
  00284	81 30 ed ec eb
	ea		 xor	 DWORD PTR [eax], -353637139 ; eaebecedH
  0028a	83 c0 04	 add	 eax, 4
  0028d	49		 dec	 ecx
  0028e	75 f4		 jne	 SHORT $LL635@LoadProper
  00290	68 88 13 00 00	 push	 5000			; 00001388H
  00295	8d 85 04 fe ff
	ff		 lea	 eax, DWORD PTR __k$538199[ebp]
  0029b	50		 push	 eax
  0029c	8b cf		 mov	 ecx, edi
  0029e	ff 15 00 00 00
	00		 call	 DWORD PTR __imp_?LoadInt@ioINILoader@@QAEHPBDH@Z
  002a4	89 86 24 09 00
	00		 mov	 DWORD PTR [esi+2340], eax
  002aa	6a 05		 push	 5

; 78   : 	m_dwDropDuration = (DWORD)rkLoader.LoadInt_e( "drop_explosion_duration", 5000 );

  002ac	c7 85 7c ff ff
	ff 89 9e 84 9a	 mov	 DWORD PTR __k$538324[ebp], -1702584695 ; 9a849e89H
  002b6	c7 45 80 b2 89
	93 9a		 mov	 DWORD PTR __k$538324[ebp+4], -1701606990 ; 9a9389b2H
  002bd	c7 45 84 81 83
	98 83		 mov	 DWORD PTR __k$538324[ebp+8], -2087156863 ; 83988381H
  002c4	c7 45 88 82 82
	b4 8e		 mov	 DWORD PTR __k$538324[ebp+12], -1900772734 ; 8eb48282H
  002cb	c7 45 8c 98 9e
	8a 9e		 mov	 DWORD PTR __k$538324[ebp+16], -1635082600 ; 9e8a9e98H
  002d2	8d 85 7c ff ff
	ff		 lea	 eax, DWORD PTR __k$538324[ebp]
  002d8	c7 45 90 84 83
	85 00		 mov	 DWORD PTR __k$538324[ebp+20], 8749956 ; 00858384H
  002df	59		 pop	 ecx
$LL741@LoadProper:
  002e0	81 30 ed ec eb
	ea		 xor	 DWORD PTR [eax], -353637139 ; eaebecedH
  002e6	83 c0 04	 add	 eax, 4
  002e9	49		 dec	 ecx
  002ea	75 f4		 jne	 SHORT $LL741@LoadProper
  002ec	6a 14		 push	 20			; 00000014H
  002ee	58		 pop	 eax
$LL738@LoadProper:
  002ef	8b c8		 mov	 ecx, eax
  002f1	81 e1 03 00 00
	80		 and	 ecx, -2147483645	; 80000003H
  002f7	79 05		 jns	 SHORT $LN2660@LoadProper
  002f9	49		 dec	 ecx
  002fa	83 c9 fc	 or	 ecx, -4			; fffffffcH
  002fd	41		 inc	 ecx
$LN2660@LoadProper:
  002fe	b2 ed		 mov	 dl, -19			; ffffffedH
  00300	2a d1		 sub	 dl, cl
  00302	30 94 05 7c ff
	ff ff		 xor	 BYTE PTR __k$538324[ebp+eax], dl
  00309	40		 inc	 eax
  0030a	83 f8 17	 cmp	 eax, 23			; 00000017H
  0030d	7c e0		 jl	 SHORT $LL738@LoadProper
  0030f	68 88 13 00 00	 push	 5000			; 00001388H
  00314	8d 85 7c ff ff
	ff		 lea	 eax, DWORD PTR __k$538324[ebp]
  0031a	50		 push	 eax
  0031b	8b cf		 mov	 ecx, edi
  0031d	ff 15 00 00 00
	00		 call	 DWORD PTR __imp_?LoadInt@ioINILoader@@QAEHPBDH@Z
  00323	89 86 28 09 00
	00		 mov	 DWORD PTR [esi+2344], eax
  00329	6a 04		 push	 4

; 79   : 	m_dwExplosionDuration = (DWORD)rkLoader.LoadInt_e( "explosion_duration", 0 );

  0032b	c7 85 2c ff ff
	ff 88 94 9b 86	 mov	 DWORD PTR __k$538496[ebp], -2036624248 ; 869b9488H
  00335	c7 85 30 ff ff
	ff 82 9f 82 85	 mov	 DWORD PTR __k$538496[ebp+4], -2055037054 ; 85829f82H
  0033f	c7 85 34 ff ff
	ff 83 b3 8f 9f	 mov	 DWORD PTR __k$538496[ebp+8], -1617972349 ; 9f8fb383H
  00349	c7 85 38 ff ff
	ff 9f 8d 9f 83	 mov	 DWORD PTR __k$538496[ebp+12], -2086695521 ; 839f8d9fH
  00353	66 c7 85 3c ff
	ff ff 82 82	 mov	 WORD PTR __k$538496[ebp+16], 33410 ; 00008282H
  0035c	8d 85 2c ff ff
	ff		 lea	 eax, DWORD PTR __k$538496[ebp]
  00362	88 9d 3e ff ff
	ff		 mov	 BYTE PTR __k$538496[ebp+18], bl
  00368	59		 pop	 ecx
$LL847@LoadProper:
  00369	81 30 ed ec eb
	ea		 xor	 DWORD PTR [eax], -353637139 ; eaebecedH
  0036f	83 c0 04	 add	 eax, 4
  00372	49		 dec	 ecx
  00373	75 f4		 jne	 SHORT $LL847@LoadProper
  00375	6a 10		 push	 16			; 00000010H
  00377	58		 pop	 eax
$LL844@LoadProper:
  00378	8b c8		 mov	 ecx, eax
  0037a	81 e1 03 00 00
	80		 and	 ecx, -2147483645	; 80000003H
  00380	79 05		 jns	 SHORT $LN2661@LoadProper
  00382	49		 dec	 ecx
  00383	83 c9 fc	 or	 ecx, -4			; fffffffcH
  00386	41		 inc	 ecx
$LN2661@LoadProper:
  00387	b2 ed		 mov	 dl, -19			; ffffffedH
  00389	2a d1		 sub	 dl, cl
  0038b	30 94 05 2c ff
	ff ff		 xor	 BYTE PTR __k$538496[ebp+eax], dl
  00392	40		 inc	 eax
  00393	83 f8 12	 cmp	 eax, 18			; 00000012H
  00396	7c e0		 jl	 SHORT $LL844@LoadProper
  00398	53		 push	 ebx
  00399	8d 85 2c ff ff
	ff		 lea	 eax, DWORD PTR __k$538496[ebp]
  0039f	50		 push	 eax
  003a0	8b cf		 mov	 ecx, edi
  003a2	ff 15 00 00 00
	00		 call	 DWORD PTR __imp_?LoadInt@ioINILoader@@QAEHPBDH@Z
  003a8	89 86 38 09 00
	00		 mov	 DWORD PTR [esi+2360], eax
  003ae	6a 03		 push	 3

; 80   : 	m_dwGroundDuration = (DWORD)rkLoader.LoadInt_e( "ground_duration", 0 );

  003b0	c7 85 94 fe ff
	ff 8a 9e 84 9f	 mov	 DWORD PTR __k$538561[ebp], -1618698614 ; 9f849e8aH
  003ba	c7 85 98 fe ff
	ff 83 88 b4 8e	 mov	 DWORD PTR __k$538561[ebp+4], -1900771197 ; 8eb48883H
  003c4	c7 85 9c fe ff
	ff 98 9e 8a 9e	 mov	 DWORD PTR __k$538561[ebp+8], -1635082600 ; 9e8a9e98H
  003ce	8d 85 94 fe ff
	ff		 lea	 eax, DWORD PTR __k$538561[ebp]
  003d4	c7 85 a0 fe ff
	ff 84 83 85 00	 mov	 DWORD PTR __k$538561[ebp+12], 8749956 ; 00858384H
  003de	59		 pop	 ecx
$LL953@LoadProper:
  003df	81 30 ed ec eb
	ea		 xor	 DWORD PTR [eax], -353637139 ; eaebecedH
  003e5	83 c0 04	 add	 eax, 4
  003e8	49		 dec	 ecx
  003e9	75 f4		 jne	 SHORT $LL953@LoadProper
  003eb	6a 0c		 push	 12			; 0000000cH
  003ed	58		 pop	 eax
$LL950@LoadProper:
  003ee	8b c8		 mov	 ecx, eax
  003f0	81 e1 03 00 00
	80		 and	 ecx, -2147483645	; 80000003H
  003f6	79 05		 jns	 SHORT $LN2662@LoadProper
  003f8	49		 dec	 ecx
  003f9	83 c9 fc	 or	 ecx, -4			; fffffffcH
  003fc	41		 inc	 ecx
$LN2662@LoadProper:
  003fd	b2 ed		 mov	 dl, -19			; ffffffedH
  003ff	2a d1		 sub	 dl, cl
  00401	30 94 05 94 fe
	ff ff		 xor	 BYTE PTR __k$538561[ebp+eax], dl
  00408	40		 inc	 eax
  00409	83 f8 0f	 cmp	 eax, 15			; 0000000fH
  0040c	7c e0		 jl	 SHORT $LL950@LoadProper
  0040e	53		 push	 ebx
  0040f	8d 85 94 fe ff
	ff		 lea	 eax, DWORD PTR __k$538561[ebp]
  00415	50		 push	 eax
  00416	8b cf		 mov	 ecx, edi
  00418	ff 15 00 00 00
	00		 call	 DWORD PTR __imp_?LoadInt@ioINILoader@@QAEHPBDH@Z
  0041e	89 86 30 09 00
	00		 mov	 DWORD PTR [esi+2352], eax

; 81   : 
; 82   : 	m_dwDuration = dwCurTime + m_dwThrowDuration;

  00424	8b 86 24 09 00
	00		 mov	 eax, DWORD PTR [esi+2340]
  0042a	03 85 c8 fb ff
	ff		 add	 eax, DWORD PTR _dwCurTime$[ebp]
  00430	6a 04		 push	 4
  00432	89 86 20 09 00
	00		 mov	 DWORD PTR [esi+2336], eax

; 83   : 
; 84   : 	m_fJumpFloatingAngle = rkLoader.LoadFloat_e( "jump_floating_angle", 20.0f );

  00438	c7 85 00 ff ff
	ff 87 99 86 9a	 mov	 DWORD PTR __k$538699[ebp], -1702454905 ; 9a869987H
  00442	c7 85 04 ff ff
	ff b2 8a 87 85	 mov	 DWORD PTR __k$538699[ebp+4], -2054714702 ; 85878ab2H
  0044c	c7 85 08 ff ff
	ff 8c 98 82 84	 mov	 DWORD PTR __k$538699[ebp+8], -2071816052 ; 8482988cH
  00456	c7 85 0c ff ff
	ff 8a b3 8a 84	 mov	 DWORD PTR __k$538699[ebp+12], -2071284854 ; 848ab38aH
  00460	8d 85 00 ff ff
	ff		 lea	 eax, DWORD PTR __k$538699[ebp]
  00466	c7 85 10 ff ff
	ff 8a 80 8e 00	 mov	 DWORD PTR __k$538699[ebp+16], 9339018 ; 008e808aH
  00470	59		 pop	 ecx
$LL1059@LoadProper:
  00471	81 30 ed ec eb
	ea		 xor	 DWORD PTR [eax], -353637139 ; eaebecedH
  00477	83 c0 04	 add	 eax, 4
  0047a	49		 dec	 ecx
  0047b	75 f4		 jne	 SHORT $LL1059@LoadProper
  0047d	6a 10		 push	 16			; 00000010H
  0047f	58		 pop	 eax
$LL1056@LoadProper:
  00480	8b c8		 mov	 ecx, eax
  00482	81 e1 03 00 00
	80		 and	 ecx, -2147483645	; 80000003H
  00488	79 05		 jns	 SHORT $LN2663@LoadProper
  0048a	49		 dec	 ecx
  0048b	83 c9 fc	 or	 ecx, -4			; fffffffcH
  0048e	41		 inc	 ecx
$LN2663@LoadProper:
  0048f	b2 ed		 mov	 dl, -19			; ffffffedH
  00491	2a d1		 sub	 dl, cl
  00493	30 94 05 00 ff
	ff ff		 xor	 BYTE PTR __k$538699[ebp+eax], dl
  0049a	40		 inc	 eax
  0049b	83 f8 13	 cmp	 eax, 19			; 00000013H
  0049e	7c e0		 jl	 SHORT $LL1056@LoadProper
  004a0	f3 0f 10 05 00
	00 00 00	 movss	 xmm0, DWORD PTR __real@41a00000
  004a8	51		 push	 ecx
  004a9	8d 85 00 ff ff
	ff		 lea	 eax, DWORD PTR __k$538699[ebp]
  004af	f3 0f 11 04 24	 movss	 DWORD PTR [esp], xmm0
  004b4	50		 push	 eax
  004b5	8b cf		 mov	 ecx, edi
  004b7	ff 15 00 00 00
	00		 call	 DWORD PTR __imp_?LoadFloat@ioINILoader@@QAEMPBDM@Z
  004bd	d9 9e 40 09 00
	00		 fstp	 DWORD PTR [esi+2368]

; 85   : 	
; 86   : 	m_fMoveSpeed = GetAttribute()->m_fMoveSpeed;

  004c3	8b 06		 mov	 eax, DWORD PTR [esi]
  004c5	8b ce		 mov	 ecx, esi
  004c7	ff 90 3c 01 00
	00		 call	 DWORD PTR [eax+316]
  004cd	d9 80 98 01 00
	00		 fld	 DWORD PTR [eax+408]
  004d3	d9 9e 4c 09 00
	00		 fstp	 DWORD PTR [esi+2380]
  004d9	6a 03		 push	 3

; 87   : 	m_fDropMoveSpeed = rkLoader.LoadFloat_e( "drop_move_speed", 0.0f );

  004db	c7 85 ec fe ff
	ff 89 9e 84 9a	 mov	 DWORD PTR __k$538824[ebp], -1702584695 ; 9a849e89H
  004e5	c7 85 f0 fe ff
	ff b2 81 84 9c	 mov	 DWORD PTR __k$538824[ebp+4], -1669037646 ; 9c8481b2H
  004ef	c7 85 f4 fe ff
	ff 88 b3 98 9a	 mov	 DWORD PTR __k$538824[ebp+8], -1701268600 ; 9a98b388H
  004f9	8d 85 ec fe ff
	ff		 lea	 eax, DWORD PTR __k$538824[ebp]
  004ff	c7 85 f8 fe ff
	ff 88 89 8f 00	 mov	 DWORD PTR __k$538824[ebp+12], 9406856 ; 008f8988H
  00509	59		 pop	 ecx
$LL1165@LoadProper:
  0050a	81 30 ed ec eb
	ea		 xor	 DWORD PTR [eax], -353637139 ; eaebecedH
  00510	83 c0 04	 add	 eax, 4
  00513	49		 dec	 ecx
  00514	75 f4		 jne	 SHORT $LL1165@LoadProper
  00516	6a 0c		 push	 12			; 0000000cH
  00518	58		 pop	 eax
$LL1162@LoadProper:
  00519	8b c8		 mov	 ecx, eax
  0051b	81 e1 03 00 00
	80		 and	 ecx, -2147483645	; 80000003H
  00521	79 05		 jns	 SHORT $LN2664@LoadProper
  00523	49		 dec	 ecx
  00524	83 c9 fc	 or	 ecx, -4			; fffffffcH
  00527	41		 inc	 ecx
$LN2664@LoadProper:
  00528	b2 ed		 mov	 dl, -19			; ffffffedH
  0052a	2a d1		 sub	 dl, cl
  0052c	30 94 05 ec fe
	ff ff		 xor	 BYTE PTR __k$538824[ebp+eax], dl
  00533	40		 inc	 eax
  00534	83 f8 0f	 cmp	 eax, 15			; 0000000fH
  00537	7c e0		 jl	 SHORT $LL1162@LoadProper
  00539	0f 57 c0	 xorps	 xmm0, xmm0
  0053c	51		 push	 ecx
  0053d	8d 85 ec fe ff
	ff		 lea	 eax, DWORD PTR __k$538824[ebp]
  00543	f3 0f 11 04 24	 movss	 DWORD PTR [esp], xmm0
  00548	50		 push	 eax
  00549	8b cf		 mov	 ecx, edi
  0054b	ff 15 00 00 00
	00		 call	 DWORD PTR __imp_?LoadFloat@ioINILoader@@QAEMPBDM@Z
  00551	d9 9e 50 09 00
	00		 fstp	 DWORD PTR [esi+2384]

; 88   : 
; 89   : 	m_fFloatingPower = GetAttribute()->m_fFloatPower;

  00557	8b 06		 mov	 eax, DWORD PTR [esi]
  00559	8b ce		 mov	 ecx, esi
  0055b	ff 90 3c 01 00
	00		 call	 DWORD PTR [eax+316]
  00561	d9 80 a0 01 00
	00		 fld	 DWORD PTR [eax+416]
  00567	d9 9e 44 09 00
	00		 fstp	 DWORD PTR [esi+2372]
  0056d	6a 04		 push	 4

; 90   : 	m_fDropFloatingPower = rkLoader.LoadFloat_e( "drop_floating_power", 0.0f );

  0056f	c7 85 d4 fe ff
	ff 89 9e 84 9a	 mov	 DWORD PTR __k$538936[ebp], -1702584695 ; 9a849e89H
  00579	c7 85 d8 fe ff
	ff b2 8a 87 85	 mov	 DWORD PTR __k$538936[ebp+4], -2054714702 ; 85878ab2H
  00583	c7 85 dc fe ff
	ff 8c 98 82 84	 mov	 DWORD PTR __k$538936[ebp+8], -2071816052 ; 8482988cH
  0058d	c7 85 e0 fe ff
	ff 8a b3 9b 85	 mov	 DWORD PTR __k$538936[ebp+12], -2053393526 ; 859bb38aH
  00597	8d 85 d4 fe ff
	ff		 lea	 eax, DWORD PTR __k$538936[ebp]
  0059d	c7 85 e4 fe ff
	ff 9a 89 99 00	 mov	 DWORD PTR __k$538936[ebp+16], 10062234 ; 0099899aH
  005a7	59		 pop	 ecx
$LL1271@LoadProper:
  005a8	81 30 ed ec eb
	ea		 xor	 DWORD PTR [eax], -353637139 ; eaebecedH
  005ae	83 c0 04	 add	 eax, 4
  005b1	49		 dec	 ecx
  005b2	75 f4		 jne	 SHORT $LL1271@LoadProper
  005b4	6a 10		 push	 16			; 00000010H
  005b6	58		 pop	 eax
$LL1268@LoadProper:
  005b7	8b c8		 mov	 ecx, eax
  005b9	81 e1 03 00 00
	80		 and	 ecx, -2147483645	; 80000003H
  005bf	79 05		 jns	 SHORT $LN2665@LoadProper
  005c1	49		 dec	 ecx
  005c2	83 c9 fc	 or	 ecx, -4			; fffffffcH
  005c5	41		 inc	 ecx
$LN2665@LoadProper:
  005c6	b2 ed		 mov	 dl, -19			; ffffffedH
  005c8	2a d1		 sub	 dl, cl
  005ca	30 94 05 d4 fe
	ff ff		 xor	 BYTE PTR __k$538936[ebp+eax], dl
  005d1	40		 inc	 eax
  005d2	83 f8 13	 cmp	 eax, 19			; 00000013H
  005d5	7c e0		 jl	 SHORT $LL1268@LoadProper
  005d7	0f 57 c0	 xorps	 xmm0, xmm0
  005da	51		 push	 ecx
  005db	8d 85 d4 fe ff
	ff		 lea	 eax, DWORD PTR __k$538936[ebp]
  005e1	f3 0f 11 04 24	 movss	 DWORD PTR [esp], xmm0
  005e6	50		 push	 eax
  005e7	8b cf		 mov	 ecx, edi
  005e9	ff 15 00 00 00
	00		 call	 DWORD PTR __imp_?LoadFloat@ioINILoader@@QAEMPBDM@Z
  005ef	d9 9e 48 09 00
	00		 fstp	 DWORD PTR [esi+2376]
  005f5	6a 03		 push	 3

; 91   : 
; 92   : 
; 93   : 	m_TargetColType		= (TargetColType)rkLoader.LoadInt_e( "collision_type", 0 );

  005f7	c7 85 44 ff ff
	ff 8e 83 87 86	 mov	 DWORD PTR __k$539061[ebp], -2037939314 ; 8687838eH
  00601	c7 85 48 ff ff
	ff 84 9f 82 85	 mov	 DWORD PTR __k$539061[ebp+4], -2055037052 ; 85829f84H
  0060b	c7 85 4c ff ff
	ff 83 b3 9f 93	 mov	 DWORD PTR __k$539061[ebp+8], -1818250365 ; 939fb383H
  00615	66 c7 85 50 ff
	ff ff 9d 89	 mov	 WORD PTR __k$539061[ebp+12], 35229 ; 0000899dH
  0061e	8d 85 44 ff ff
	ff		 lea	 eax, DWORD PTR __k$539061[ebp]
  00624	88 9d 52 ff ff
	ff		 mov	 BYTE PTR __k$539061[ebp+14], bl
  0062a	59		 pop	 ecx
$LL1377@LoadProper:
  0062b	81 30 ed ec eb
	ea		 xor	 DWORD PTR [eax], -353637139 ; eaebecedH
  00631	83 c0 04	 add	 eax, 4
  00634	49		 dec	 ecx
  00635	75 f4		 jne	 SHORT $LL1377@LoadProper
  00637	6a 0c		 push	 12			; 0000000cH
  00639	58		 pop	 eax
$LL1374@LoadProper:
  0063a	8b c8		 mov	 ecx, eax
  0063c	81 e1 03 00 00
	80		 and	 ecx, -2147483645	; 80000003H
  00642	79 05		 jns	 SHORT $LN2666@LoadProper
  00644	49		 dec	 ecx
  00645	83 c9 fc	 or	 ecx, -4			; fffffffcH
  00648	41		 inc	 ecx
$LN2666@LoadProper:
  00649	b2 ed		 mov	 dl, -19			; ffffffedH
  0064b	2a d1		 sub	 dl, cl
  0064d	30 94 05 44 ff
	ff ff		 xor	 BYTE PTR __k$539061[ebp+eax], dl
  00654	40		 inc	 eax
  00655	83 f8 0e	 cmp	 eax, 14			; 0000000eH
  00658	7c e0		 jl	 SHORT $LL1374@LoadProper
  0065a	53		 push	 ebx
  0065b	8d 85 44 ff ff
	ff		 lea	 eax, DWORD PTR __k$539061[ebp]
  00661	50		 push	 eax
  00662	8b cf		 mov	 ecx, edi
  00664	ff 15 00 00 00
	00		 call	 DWORD PTR __imp_?LoadInt@ioINILoader@@QAEHPBDH@Z
  0066a	89 86 60 09 00
	00		 mov	 DWORD PTR [esi+2400], eax
  00670	6a 02		 push	 2

; 94   : 	m_TargetWoundType	= (TargetWoundType)rkLoader.LoadInt_e( "wound_type", 0 );

  00672	c7 85 58 ff ff
	ff 9a 83 9e 84	 mov	 DWORD PTR __k$539187[ebp], -2069986406 ; 849e839aH
  0067c	c7 85 5c ff ff
	ff 89 b3 9f 93	 mov	 DWORD PTR __k$539187[ebp+4], -1818250359 ; 939fb389H
  00686	66 c7 85 60 ff
	ff ff 9d 89	 mov	 WORD PTR __k$539187[ebp+8], 35229 ; 0000899dH
  0068f	8d 85 58 ff ff
	ff		 lea	 eax, DWORD PTR __k$539187[ebp]
  00695	88 9d 62 ff ff
	ff		 mov	 BYTE PTR __k$539187[ebp+10], bl
  0069b	59		 pop	 ecx
$LL1483@LoadProper:
  0069c	81 30 ed ec eb
	ea		 xor	 DWORD PTR [eax], -353637139 ; eaebecedH
  006a2	83 c0 04	 add	 eax, 4
  006a5	49		 dec	 ecx
  006a6	75 f4		 jne	 SHORT $LL1483@LoadProper
  006a8	6a 08		 push	 8
  006aa	58		 pop	 eax
$LL1480@LoadProper:
  006ab	8b c8		 mov	 ecx, eax
  006ad	81 e1 03 00 00
	80		 and	 ecx, -2147483645	; 80000003H
  006b3	79 05		 jns	 SHORT $LN2667@LoadProper
  006b5	49		 dec	 ecx
  006b6	83 c9 fc	 or	 ecx, -4			; fffffffcH
  006b9	41		 inc	 ecx
$LN2667@LoadProper:
  006ba	b2 ed		 mov	 dl, -19			; ffffffedH
  006bc	2a d1		 sub	 dl, cl
  006be	30 94 05 58 ff
	ff ff		 xor	 BYTE PTR __k$539187[ebp+eax], dl
  006c5	40		 inc	 eax
  006c6	83 f8 0a	 cmp	 eax, 10			; 0000000aH
  006c9	7c e0		 jl	 SHORT $LL1480@LoadProper
  006cb	53		 push	 ebx
  006cc	8d 85 58 ff ff
	ff		 lea	 eax, DWORD PTR __k$539187[ebp]
  006d2	50		 push	 eax
  006d3	8b cf		 mov	 ecx, edi
  006d5	ff 15 00 00 00
	00		 call	 DWORD PTR __imp_?LoadInt@ioINILoader@@QAEHPBDH@Z
  006db	89 86 64 09 00
	00		 mov	 DWORD PTR [esi+2404], eax
  006e1	6a 03		 push	 3

; 95   : 
; 96   : 	m_fZoneRange		= rkLoader.LoadFloat_e( "collision_range", 0.0f );

  006e3	c7 45 b4 8e 83
	87 86		 mov	 DWORD PTR __k$539311[ebp], -2037939314 ; 8687838eH
  006ea	c7 45 b8 84 9f
	82 85		 mov	 DWORD PTR __k$539311[ebp+4], -2055037052 ; 85829f84H
  006f1	c7 45 bc 83 b3
	99 8b		 mov	 DWORD PTR __k$539311[ebp+8], -1952861309 ; 8b99b383H
  006f8	8d 45 b4	 lea	 eax, DWORD PTR __k$539311[ebp]
  006fb	c7 45 c0 83 8b
	8e 00		 mov	 DWORD PTR __k$539311[ebp+12], 9341827 ; 008e8b83H
  00702	59		 pop	 ecx
$LL1589@LoadProper:
  00703	81 30 ed ec eb
	ea		 xor	 DWORD PTR [eax], -353637139 ; eaebecedH
  00709	83 c0 04	 add	 eax, 4
  0070c	49		 dec	 ecx
  0070d	75 f4		 jne	 SHORT $LL1589@LoadProper
  0070f	6a 0c		 push	 12			; 0000000cH
  00711	58		 pop	 eax
$LL1586@LoadProper:
  00712	8b c8		 mov	 ecx, eax
  00714	81 e1 03 00 00
	80		 and	 ecx, -2147483645	; 80000003H
  0071a	79 05		 jns	 SHORT $LN2668@LoadProper
  0071c	49		 dec	 ecx
  0071d	83 c9 fc	 or	 ecx, -4			; fffffffcH
  00720	41		 inc	 ecx
$LN2668@LoadProper:
  00721	b2 ed		 mov	 dl, -19			; ffffffedH
  00723	2a d1		 sub	 dl, cl
  00725	30 54 05 b4	 xor	 BYTE PTR __k$539311[ebp+eax], dl
  00729	40		 inc	 eax
  0072a	83 f8 0f	 cmp	 eax, 15			; 0000000fH
  0072d	7c e3		 jl	 SHORT $LL1586@LoadProper
  0072f	0f 57 c0	 xorps	 xmm0, xmm0
  00732	51		 push	 ecx
  00733	8d 45 b4	 lea	 eax, DWORD PTR __k$539311[ebp]
  00736	f3 0f 11 04 24	 movss	 DWORD PTR [esp], xmm0
  0073b	50		 push	 eax
  0073c	8b cf		 mov	 ecx, edi
  0073e	ff 15 00 00 00
	00		 call	 DWORD PTR __imp_?LoadFloat@ioINILoader@@QAEMPBDM@Z
  00744	d9 9d c4 fb ff
	ff		 fstp	 DWORD PTR _value$539423[ebp]
  0074a	8d 85 c4 fb ff
	ff		 lea	 eax, DWORD PTR _value$539423[ebp]
  00750	50		 push	 eax
  00751	8d 8e 68 09 00
	00		 lea	 ecx, DWORD PTR [esi+2408]
  00757	e8 00 00 00 00	 call	 ?EncryptValueToPool@?$CEncrypt@M@@AAEXPBD@Z ; CEncrypt<float>::EncryptValueToPool
  0075c	6a 04		 push	 4

; 97   : 	m_fZoneMinRange		= rkLoader.LoadFloat_e( "collision_min_range", 0.0f );

  0075e	c7 85 a8 fe ff
	ff 8e 83 87 86	 mov	 DWORD PTR __k$539441[ebp], -2037939314 ; 8687838eH
  00768	c7 85 ac fe ff
	ff 84 9f 82 85	 mov	 DWORD PTR __k$539441[ebp+4], -2055037052 ; 85829f84H
  00772	c7 85 b0 fe ff
	ff 83 b3 86 83	 mov	 DWORD PTR __k$539441[ebp+8], -2088324221 ; 8386b383H
  0077c	c7 85 b4 fe ff
	ff 83 b3 99 8b	 mov	 DWORD PTR __k$539441[ebp+12], -1952861309 ; 8b99b383H
  00786	8d 85 a8 fe ff
	ff		 lea	 eax, DWORD PTR __k$539441[ebp]
  0078c	c7 85 b8 fe ff
	ff 83 8b 8e 00	 mov	 DWORD PTR __k$539441[ebp+16], 9341827 ; 008e8b83H
  00796	59		 pop	 ecx
$LL1697@LoadProper:
  00797	81 30 ed ec eb
	ea		 xor	 DWORD PTR [eax], -353637139 ; eaebecedH
  0079d	83 c0 04	 add	 eax, 4
  007a0	49		 dec	 ecx
  007a1	75 f4		 jne	 SHORT $LL1697@LoadProper
  007a3	6a 10		 push	 16			; 00000010H
  007a5	58		 pop	 eax
$LL1694@LoadProper:
  007a6	8b c8		 mov	 ecx, eax
  007a8	81 e1 03 00 00
	80		 and	 ecx, -2147483645	; 80000003H
  007ae	79 05		 jns	 SHORT $LN2669@LoadProper
  007b0	49		 dec	 ecx
  007b1	83 c9 fc	 or	 ecx, -4			; fffffffcH
  007b4	41		 inc	 ecx
$LN2669@LoadProper:
  007b5	b2 ed		 mov	 dl, -19			; ffffffedH
  007b7	2a d1		 sub	 dl, cl
  007b9	30 94 05 a8 fe
	ff ff		 xor	 BYTE PTR __k$539441[ebp+eax], dl
  007c0	40		 inc	 eax
  007c1	83 f8 13	 cmp	 eax, 19			; 00000013H
  007c4	7c e0		 jl	 SHORT $LL1694@LoadProper
  007c6	0f 57 c0	 xorps	 xmm0, xmm0
  007c9	51		 push	 ecx
  007ca	8d 85 a8 fe ff
	ff		 lea	 eax, DWORD PTR __k$539441[ebp]
  007d0	f3 0f 11 04 24	 movss	 DWORD PTR [esp], xmm0
  007d5	50		 push	 eax
  007d6	8b cf		 mov	 ecx, edi
  007d8	ff 15 00 00 00
	00		 call	 DWORD PTR __imp_?LoadFloat@ioINILoader@@QAEMPBDM@Z
  007de	51		 push	 ecx
  007df	8d 8e 98 09 00
	00		 lea	 ecx, DWORD PTR [esi+2456]
  007e5	d9 1c 24	 fstp	 DWORD PTR [esp]
  007e8	e8 00 00 00 00	 call	 ??4?$CEncrypt@M@@QAEMM@Z ; CEncrypt<float>::operator=
  007ed	dd d8		 fstp	 ST(0)
  007ef	6a 04		 push	 4

; 98   : 	m_fZoneMaxRange		= rkLoader.LoadFloat_e( "collision_max_range", 0.0f );

  007f1	c7 85 7c fe ff
	ff 8e 83 87 86	 mov	 DWORD PTR __k$539566[ebp], -2037939314 ; 8687838eH
  007fb	c7 85 80 fe ff
	ff 84 9f 82 85	 mov	 DWORD PTR __k$539566[ebp+4], -2055037052 ; 85829f84H
  00805	c7 85 84 fe ff
	ff 83 b3 86 8b	 mov	 DWORD PTR __k$539566[ebp+8], -1954106493 ; 8b86b383H
  0080f	c7 85 88 fe ff
	ff 95 b3 99 8b	 mov	 DWORD PTR __k$539566[ebp+12], -1952861291 ; 8b99b395H
  00819	8d 85 7c fe ff
	ff		 lea	 eax, DWORD PTR __k$539566[ebp]
  0081f	c7 85 8c fe ff
	ff 83 8b 8e 00	 mov	 DWORD PTR __k$539566[ebp+16], 9341827 ; 008e8b83H
  00829	59		 pop	 ecx
$LL1803@LoadProper:
  0082a	81 30 ed ec eb
	ea		 xor	 DWORD PTR [eax], -353637139 ; eaebecedH
  00830	83 c0 04	 add	 eax, 4
  00833	49		 dec	 ecx
  00834	75 f4		 jne	 SHORT $LL1803@LoadProper
  00836	6a 10		 push	 16			; 00000010H
  00838	58		 pop	 eax
$LL1800@LoadProper:
  00839	8b c8		 mov	 ecx, eax
  0083b	81 e1 03 00 00
	80		 and	 ecx, -2147483645	; 80000003H
  00841	79 05		 jns	 SHORT $LN2670@LoadProper
  00843	49		 dec	 ecx
  00844	83 c9 fc	 or	 ecx, -4			; fffffffcH
  00847	41		 inc	 ecx
$LN2670@LoadProper:
  00848	b2 ed		 mov	 dl, -19			; ffffffedH
  0084a	2a d1		 sub	 dl, cl
  0084c	30 94 05 7c fe
	ff ff		 xor	 BYTE PTR __k$539566[ebp+eax], dl
  00853	40		 inc	 eax
  00854	83 f8 13	 cmp	 eax, 19			; 00000013H
  00857	7c e0		 jl	 SHORT $LL1800@LoadProper
  00859	0f 57 c0	 xorps	 xmm0, xmm0
  0085c	51		 push	 ecx
  0085d	8d 85 7c fe ff
	ff		 lea	 eax, DWORD PTR __k$539566[ebp]
  00863	f3 0f 11 04 24	 movss	 DWORD PTR [esp], xmm0
  00868	50		 push	 eax
  00869	8b cf		 mov	 ecx, edi
  0086b	ff 15 00 00 00
	00		 call	 DWORD PTR __imp_?LoadFloat@ioINILoader@@QAEMPBDM@Z
  00871	51		 push	 ecx
  00872	8d 8e c8 09 00
	00		 lea	 ecx, DWORD PTR [esi+2504]
  00878	d9 1c 24	 fstp	 DWORD PTR [esp]
  0087b	e8 00 00 00 00	 call	 ??4?$CEncrypt@M@@QAEMM@Z ; CEncrypt<float>::operator=
  00880	dd d8		 fstp	 ST(0)
  00882	6a 05		 push	 5

; 99   : 	m_fZoneInnerRange	= rkLoader.LoadFloat_e( "collision_inner_range", 0.0f );

  00884	c7 85 24 fe ff
	ff 8e 83 87 86	 mov	 DWORD PTR __k$539704[ebp], -2037939314 ; 8687838eH
  0088e	c7 85 28 fe ff
	ff 84 9f 82 85	 mov	 DWORD PTR __k$539704[ebp+4], -2055037052 ; 85829f84H
  00898	c7 85 2c fe ff
	ff 83 b3 82 84	 mov	 DWORD PTR __k$539704[ebp+8], -2071809149 ; 8482b383H
  008a2	c7 85 30 fe ff
	ff 83 89 99 b5	 mov	 DWORD PTR __k$539704[ebp+12], -1248228989 ; b5998983H
  008ac	c7 85 34 fe ff
	ff 9f 8d 85 8d	 mov	 DWORD PTR __k$539704[ebp+16], -1920627297 ; 8d858d9fH
  008b6	8d 85 24 fe ff
	ff		 lea	 eax, DWORD PTR __k$539704[ebp]
  008bc	66 c7 85 38 fe
	ff ff 88 00	 mov	 WORD PTR __k$539704[ebp+20], 136 ; 00000088H
  008c5	59		 pop	 ecx
$LL1909@LoadProper:
  008c6	81 30 ed ec eb
	ea		 xor	 DWORD PTR [eax], -353637139 ; eaebecedH
  008cc	83 c0 04	 add	 eax, 4
  008cf	49		 dec	 ecx
  008d0	75 f4		 jne	 SHORT $LL1909@LoadProper
  008d2	0f 57 c0	 xorps	 xmm0, xmm0
  008d5	80 b5 38 fe ff
	ff ed		 xor	 BYTE PTR __k$539704[ebp+20], -19 ; ffffffedH
  008dc	51		 push	 ecx
  008dd	8d 85 24 fe ff
	ff		 lea	 eax, DWORD PTR __k$539704[ebp]
  008e3	f3 0f 11 04 24	 movss	 DWORD PTR [esp], xmm0
  008e8	50		 push	 eax
  008e9	8b cf		 mov	 ecx, edi
  008eb	ff 15 00 00 00
	00		 call	 DWORD PTR __imp_?LoadFloat@ioINILoader@@QAEMPBDM@Z
  008f1	51		 push	 ecx
  008f2	8d 8e f8 09 00
	00		 lea	 ecx, DWORD PTR [esi+2552]
  008f8	d9 1c 24	 fstp	 DWORD PTR [esp]
  008fb	e8 00 00 00 00	 call	 ??4?$CEncrypt@M@@QAEMM@Z ; CEncrypt<float>::operator=
  00900	dd d8		 fstp	 ST(0)
  00902	6a 03		 push	 3

; 100  : 	m_fZoneAngle		= rkLoader.LoadFloat_e( "collision_angle", 0.0f );

  00904	c7 45 c8 8e 83
	87 86		 mov	 DWORD PTR __k$539829[ebp], -2037939314 ; 8687838eH
  0090b	c7 45 cc 84 9f
	82 85		 mov	 DWORD PTR __k$539829[ebp+4], -2055037052 ; 85829f84H
  00912	c7 45 d0 83 b3
	8a 84		 mov	 DWORD PTR __k$539829[ebp+8], -2071284861 ; 848ab383H
  00919	8d 45 c8	 lea	 eax, DWORD PTR __k$539829[ebp]
  0091c	c7 45 d4 8a 80
	8e 00		 mov	 DWORD PTR __k$539829[ebp+12], 9339018 ; 008e808aH
  00923	59		 pop	 ecx
$LL2015@LoadProper:
  00924	81 30 ed ec eb
	ea		 xor	 DWORD PTR [eax], -353637139 ; eaebecedH
  0092a	83 c0 04	 add	 eax, 4
  0092d	49		 dec	 ecx
  0092e	75 f4		 jne	 SHORT $LL2015@LoadProper
  00930	6a 0c		 push	 12			; 0000000cH
  00932	58		 pop	 eax
$LL2012@LoadProper:
  00933	8b c8		 mov	 ecx, eax
  00935	81 e1 03 00 00
	80		 and	 ecx, -2147483645	; 80000003H
  0093b	79 05		 jns	 SHORT $LN2671@LoadProper
  0093d	49		 dec	 ecx
  0093e	83 c9 fc	 or	 ecx, -4			; fffffffcH
  00941	41		 inc	 ecx
$LN2671@LoadProper:
  00942	b2 ed		 mov	 dl, -19			; ffffffedH
  00944	2a d1		 sub	 dl, cl
  00946	30 54 05 c8	 xor	 BYTE PTR __k$539829[ebp+eax], dl
  0094a	40		 inc	 eax
  0094b	83 f8 0f	 cmp	 eax, 15			; 0000000fH
  0094e	7c e3		 jl	 SHORT $LL2012@LoadProper
  00950	0f 57 c0	 xorps	 xmm0, xmm0
  00953	51		 push	 ecx
  00954	8d 45 c8	 lea	 eax, DWORD PTR __k$539829[ebp]
  00957	f3 0f 11 04 24	 movss	 DWORD PTR [esp], xmm0
  0095c	50		 push	 eax
  0095d	8b cf		 mov	 ecx, edi
  0095f	ff 15 00 00 00
	00		 call	 DWORD PTR __imp_?LoadFloat@ioINILoader@@QAEMPBDM@Z
  00965	51		 push	 ecx
  00966	8d 8e 28 0a 00
	00		 lea	 ecx, DWORD PTR [esi+2600]
  0096c	d9 1c 24	 fstp	 DWORD PTR [esp]
  0096f	e8 00 00 00 00	 call	 ??4?$CEncrypt@M@@QAEMM@Z ; CEncrypt<float>::operator=
  00974	dd d8		 fstp	 ST(0)
  00976	6a 04		 push	 4

; 101  : 
; 102  : 	m_fUpHeight		= rkLoader.LoadFloat_e( "collision_up_height", 0.0f );

  00978	c7 85 50 fe ff
	ff 8e 83 87 86	 mov	 DWORD PTR __k$539941[ebp], -2037939314 ; 8687838eH
  00982	c7 85 54 fe ff
	ff 84 9f 82 85	 mov	 DWORD PTR __k$539941[ebp+4], -2055037052 ; 85829f84H
  0098c	c7 85 58 fe ff
	ff 83 b3 9e 9a	 mov	 DWORD PTR __k$539941[ebp+8], -1700875389 ; 9a9eb383H
  00996	c7 85 5c fe ff
	ff b2 84 8e 83	 mov	 DWORD PTR __k$539941[ebp+12], -2087811918 ; 838e84b2H
  009a0	8d 85 50 fe ff
	ff		 lea	 eax, DWORD PTR __k$539941[ebp]
  009a6	c7 85 60 fe ff
	ff 8a 84 9f 00	 mov	 DWORD PTR __k$539941[ebp+16], 10454154 ; 009f848aH
  009b0	59		 pop	 ecx
$LL2121@LoadProper:
  009b1	81 30 ed ec eb
	ea		 xor	 DWORD PTR [eax], -353637139 ; eaebecedH
  009b7	83 c0 04	 add	 eax, 4
  009ba	49		 dec	 ecx
  009bb	75 f4		 jne	 SHORT $LL2121@LoadProper
  009bd	6a 10		 push	 16			; 00000010H
  009bf	58		 pop	 eax
$LL2118@LoadProper:
  009c0	8b c8		 mov	 ecx, eax
  009c2	81 e1 03 00 00
	80		 and	 ecx, -2147483645	; 80000003H
  009c8	79 05		 jns	 SHORT $LN2672@LoadProper
  009ca	49		 dec	 ecx
  009cb	83 c9 fc	 or	 ecx, -4			; fffffffcH
  009ce	41		 inc	 ecx
$LN2672@LoadProper:
  009cf	b2 ed		 mov	 dl, -19			; ffffffedH
  009d1	2a d1		 sub	 dl, cl
  009d3	30 94 05 50 fe
	ff ff		 xor	 BYTE PTR __k$539941[ebp+eax], dl
  009da	40		 inc	 eax
  009db	83 f8 13	 cmp	 eax, 19			; 00000013H
  009de	7c e0		 jl	 SHORT $LL2118@LoadProper
  009e0	0f 57 c0	 xorps	 xmm0, xmm0
  009e3	51		 push	 ecx
  009e4	8d 85 50 fe ff
	ff		 lea	 eax, DWORD PTR __k$539941[ebp]
  009ea	f3 0f 11 04 24	 movss	 DWORD PTR [esp], xmm0
  009ef	50		 push	 eax
  009f0	8b cf		 mov	 ecx, edi
  009f2	ff 15 00 00 00
	00		 call	 DWORD PTR __imp_?LoadFloat@ioINILoader@@QAEMPBDM@Z
  009f8	51		 push	 ecx
  009f9	8d 8e 58 0a 00
	00		 lea	 ecx, DWORD PTR [esi+2648]
  009ff	d9 1c 24	 fstp	 DWORD PTR [esp]
  00a02	e8 00 00 00 00	 call	 ??4?$CEncrypt@M@@QAEMM@Z ; CEncrypt<float>::operator=
  00a07	dd d8		 fstp	 ST(0)
  00a09	6a 05		 push	 5

; 103  : 	m_fUnderHeight	= rkLoader.LoadFloat_e( "collision_under_height", 0.0f );

  00a0b	c7 45 98 8e 83
	87 86		 mov	 DWORD PTR __k$540079[ebp], -2037939314 ; 8687838eH
  00a12	c7 45 9c 84 9f
	82 85		 mov	 DWORD PTR __k$540079[ebp+4], -2055037052 ; 85829f84H
  00a19	c7 45 a0 83 b3
	9e 84		 mov	 DWORD PTR __k$540079[ebp+8], -2069974141 ; 849eb383H
  00a20	c7 45 a4 89 89
	99 b5		 mov	 DWORD PTR __k$540079[ebp+12], -1248228983 ; b5998989H
  00a27	c7 45 a8 85 89
	82 8d		 mov	 DWORD PTR __k$540079[ebp+16], -1920824955 ; 8d828985H
  00a2e	66 c7 45 ac 85
	98		 mov	 WORD PTR __k$540079[ebp+20], 39045 ; 00009885H
  00a34	8d 45 98	 lea	 eax, DWORD PTR __k$540079[ebp]
  00a37	88 5d ae	 mov	 BYTE PTR __k$540079[ebp+22], bl
  00a3a	59		 pop	 ecx
$LL2227@LoadProper:
  00a3b	81 30 ed ec eb
	ea		 xor	 DWORD PTR [eax], -353637139 ; eaebecedH
  00a41	83 c0 04	 add	 eax, 4
  00a44	49		 dec	 ecx
  00a45	75 f4		 jne	 SHORT $LL2227@LoadProper
  00a47	6a 14		 push	 20			; 00000014H
  00a49	58		 pop	 eax
$LL2224@LoadProper:
  00a4a	8b c8		 mov	 ecx, eax
  00a4c	81 e1 03 00 00
	80		 and	 ecx, -2147483645	; 80000003H
  00a52	79 05		 jns	 SHORT $LN2673@LoadProper
  00a54	49		 dec	 ecx
  00a55	83 c9 fc	 or	 ecx, -4			; fffffffcH
  00a58	41		 inc	 ecx
$LN2673@LoadProper:
  00a59	b2 ed		 mov	 dl, -19			; ffffffedH
  00a5b	2a d1		 sub	 dl, cl
  00a5d	30 54 05 98	 xor	 BYTE PTR __k$540079[ebp+eax], dl
  00a61	40		 inc	 eax
  00a62	83 f8 16	 cmp	 eax, 22			; 00000016H
  00a65	7c e3		 jl	 SHORT $LL2224@LoadProper
  00a67	0f 57 c0	 xorps	 xmm0, xmm0
  00a6a	51		 push	 ecx
  00a6b	8d 45 98	 lea	 eax, DWORD PTR __k$540079[ebp]
  00a6e	f3 0f 11 04 24	 movss	 DWORD PTR [esp], xmm0
  00a73	50		 push	 eax
  00a74	8b cf		 mov	 ecx, edi
  00a76	ff 15 00 00 00
	00		 call	 DWORD PTR __imp_?LoadFloat@ioINILoader@@QAEMPBDM@Z
  00a7c	51		 push	 ecx
  00a7d	8d 8e 88 0a 00
	00		 lea	 ecx, DWORD PTR [esi+2696]
  00a83	d9 1c 24	 fstp	 DWORD PTR [esp]
  00a86	e8 00 00 00 00	 call	 ??4?$CEncrypt@M@@QAEMM@Z ; CEncrypt<float>::operator=
  00a8b	dd d8		 fstp	 ST(0)
  00a8d	6a 03		 push	 3

; 104  : 	m_fWidth		= rkLoader.LoadFloat_e( "collision_width", 0.0f );

  00a8f	c7 45 dc 8e 83
	87 86		 mov	 DWORD PTR __k$540191[ebp], -2037939314 ; 8687838eH
  00a96	c7 45 e0 84 9f
	82 85		 mov	 DWORD PTR __k$540191[ebp+4], -2055037052 ; 85829f84H
  00a9d	c7 45 e4 83 b3
	9c 83		 mov	 DWORD PTR __k$540191[ebp+8], -2086882429 ; 839cb383H
  00aa4	8d 45 dc	 lea	 eax, DWORD PTR __k$540191[ebp]
  00aa7	c7 45 e8 89 98
	83 00		 mov	 DWORD PTR __k$540191[ebp+12], 8624265 ; 00839889H
  00aae	59		 pop	 ecx
$LL2333@LoadProper:
  00aaf	81 30 ed ec eb
	ea		 xor	 DWORD PTR [eax], -353637139 ; eaebecedH
  00ab5	83 c0 04	 add	 eax, 4
  00ab8	49		 dec	 ecx
  00ab9	75 f4		 jne	 SHORT $LL2333@LoadProper
  00abb	6a 0c		 push	 12			; 0000000cH
  00abd	58		 pop	 eax
$LL2330@LoadProper:
  00abe	8b c8		 mov	 ecx, eax
  00ac0	81 e1 03 00 00
	80		 and	 ecx, -2147483645	; 80000003H
  00ac6	79 05		 jns	 SHORT $LN2674@LoadProper
  00ac8	49		 dec	 ecx
  00ac9	83 c9 fc	 or	 ecx, -4			; fffffffcH
  00acc	41		 inc	 ecx
$LN2674@LoadProper:
  00acd	b2 ed		 mov	 dl, -19			; ffffffedH
  00acf	2a d1		 sub	 dl, cl
  00ad1	30 54 05 dc	 xor	 BYTE PTR __k$540191[ebp+eax], dl
  00ad5	40		 inc	 eax
  00ad6	83 f8 0f	 cmp	 eax, 15			; 0000000fH
  00ad9	7c e3		 jl	 SHORT $LL2330@LoadProper
  00adb	0f 57 c0	 xorps	 xmm0, xmm0
  00ade	51		 push	 ecx
  00adf	8d 45 dc	 lea	 eax, DWORD PTR __k$540191[ebp]
  00ae2	f3 0f 11 04 24	 movss	 DWORD PTR [esp], xmm0
  00ae7	50		 push	 eax
  00ae8	8b cf		 mov	 ecx, edi
  00aea	ff 15 00 00 00
	00		 call	 DWORD PTR __imp_?LoadFloat@ioINILoader@@QAEMPBDM@Z
  00af0	51		 push	 ecx
  00af1	8d 8e b8 0a 00
	00		 lea	 ecx, DWORD PTR [esi+2744]
  00af7	d9 1c 24	 fstp	 DWORD PTR [esp]
  00afa	e8 00 00 00 00	 call	 ??4?$CEncrypt@M@@QAEMM@Z ; CEncrypt<float>::operator=
  00aff	dd d8		 fstp	 ST(0)
  00b01	6a 04		 push	 4

; 105  : 	m_fOffSet		= rkLoader.LoadFloat_e( "collision_offset", 0.0f );

  00b03	c7 85 ec fd ff
	ff 8e 83 87 86	 mov	 DWORD PTR __k$540402[ebp], -2037939314 ; 8687838eH
  00b0d	c7 85 f0 fd ff
	ff 84 9f 82 85	 mov	 DWORD PTR __k$540402[ebp+4], -2055037052 ; 85829f84H
  00b17	c7 85 f4 fd ff
	ff 83 b3 84 8c	 mov	 DWORD PTR __k$540402[ebp+8], -1937460349 ; 8c84b383H
  00b21	c7 85 f8 fd ff
	ff 8b 9f 8e 9e	 mov	 DWORD PTR __k$540402[ebp+12], -1634820213 ; 9e8e9f8bH
  00b2b	8d 85 ec fd ff
	ff		 lea	 eax, DWORD PTR __k$540402[ebp]
  00b31	88 9d fc fd ff
	ff		 mov	 BYTE PTR __k$540402[ebp+16], bl
  00b37	59		 pop	 ecx
$LL2439@LoadProper:
  00b38	81 30 ed ec eb
	ea		 xor	 DWORD PTR [eax], -353637139 ; eaebecedH
  00b3e	83 c0 04	 add	 eax, 4
  00b41	49		 dec	 ecx
  00b42	75 f4		 jne	 SHORT $LL2439@LoadProper
  00b44	0f 57 c0	 xorps	 xmm0, xmm0
  00b47	51		 push	 ecx
  00b48	8d 85 ec fd ff
	ff		 lea	 eax, DWORD PTR __k$540402[ebp]
  00b4e	f3 0f 11 04 24	 movss	 DWORD PTR [esp], xmm0
  00b53	50		 push	 eax
  00b54	8b cf		 mov	 ecx, edi
  00b56	ff 15 00 00 00
	00		 call	 DWORD PTR __imp_?LoadFloat@ioINILoader@@QAEMPBDM@Z
  00b5c	51		 push	 ecx
  00b5d	8d 8e e8 0a 00
	00		 lea	 ecx, DWORD PTR [esi+2792]
  00b63	d9 1c 24	 fstp	 DWORD PTR [esp]
  00b66	e8 00 00 00 00	 call	 ??4?$CEncrypt@M@@QAEMM@Z ; CEncrypt<float>::operator=
  00b6b	dd d8		 fstp	 ST(0)
  00b6d	6a 04		 push	 4

; 106  : 
; 107  : 	//
; 108  : 	int iCount = rkLoader.LoadInt_e( "lobelia_buff_cnt", 0 );

  00b6f	c7 85 d4 fd ff
	ff 81 83 89 8f	 mov	 DWORD PTR __k$540441[ebp], -1886813311 ; 8f898381H
  00b79	c7 85 d8 fd ff
	ff 81 85 8a b5	 mov	 DWORD PTR __k$540441[ebp+4], -1249213055 ; b58a8581H
  00b83	c7 85 dc fd ff
	ff 8f 99 8d 8c	 mov	 DWORD PTR __k$540441[ebp+8], -1936877169 ; 8c8d998fH
  00b8d	c7 85 e0 fd ff
	ff b2 8f 85 9e	 mov	 DWORD PTR __k$540441[ebp+12], -1635414094 ; 9e858fb2H
  00b97	8d 85 d4 fd ff
	ff		 lea	 eax, DWORD PTR __k$540441[ebp]
  00b9d	88 9d e4 fd ff
	ff		 mov	 BYTE PTR __k$540441[ebp+16], bl
  00ba3	59		 pop	 ecx
$LL2545@LoadProper:
  00ba4	81 30 ed ec eb
	ea		 xor	 DWORD PTR [eax], -353637139 ; eaebecedH
  00baa	83 c0 04	 add	 eax, 4
  00bad	49		 dec	 ecx
  00bae	75 f4		 jne	 SHORT $LL2545@LoadProper
  00bb0	53		 push	 ebx
  00bb1	8d 85 d4 fd ff
	ff		 lea	 eax, DWORD PTR __k$540441[ebp]
  00bb7	50		 push	 eax
  00bb8	8b cf		 mov	 ecx, edi
  00bba	ff 15 00 00 00
	00		 call	 DWORD PTR __imp_?LoadInt@ioINILoader@@QAEHPBDH@Z

; 109  : 	m_LobeliaBuffList.reserve( iCount );

  00bc0	8d 8e 18 0b 00
	00		 lea	 ecx, DWORD PTR [esi+2840]
  00bc6	50		 push	 eax
  00bc7	89 85 c8 fb ff
	ff		 mov	 DWORD PTR _iCount$[ebp], eax
  00bcd	89 8d c0 fb ff
	ff		 mov	 DWORD PTR tv18583[ebp], ecx
  00bd3	e8 00 00 00 00	 call	 ?reserve@?$vector@UBuffInfoStruct@@V?$allocator@UBuffInfoStruct@@@std@@@std@@QAEXI@Z ; std::vector<BuffInfoStruct,std::allocator<BuffInfoStruct> >::reserve

; 110  : 
; 111  : 	for( int i=0; i<iCount; i++ )

  00bd8	33 d2		 xor	 edx, edx
  00bda	39 9d c8 fb ff
	ff		 cmp	 DWORD PTR _iCount$[ebp], ebx
  00be0	0f 8e 1d 01 00
	00		 jle	 $LN102@LoadProper
$LL104@LoadProper:

; 112  : 	{
; 113  : 		wsprintf_e( szKey, "lobelia_buff%d", i+1 );

  00be6	6a 03		 push	 3
  00be8	c7 85 68 fe ff
	ff 81 83 89 8f	 mov	 DWORD PTR ___encStr$530742[ebp], -1886813311 ; 8f898381H
  00bf2	c7 85 6c fe ff
	ff 81 85 8a b5	 mov	 DWORD PTR ___encStr$530742[ebp+4], -1249213055 ; b58a8581H
  00bfc	c7 85 70 fe ff
	ff 8f 99 8d 8c	 mov	 DWORD PTR ___encStr$530742[ebp+8], -1936877169 ; 8c8d998fH
  00c06	66 c7 85 74 fe
	ff ff c8 88	 mov	 WORD PTR ___encStr$530742[ebp+12], 35016 ; 000088c8H
  00c0f	8d 85 68 fe ff
	ff		 lea	 eax, DWORD PTR ___encStr$530742[ebp]
  00c15	88 9d 76 fe ff
	ff		 mov	 BYTE PTR ___encStr$530742[ebp+14], bl
  00c1b	59		 pop	 ecx
$LL2553@LoadProper:
  00c1c	81 30 ed ec eb
	ea		 xor	 DWORD PTR [eax], -353637139 ; eaebecedH
  00c22	83 c0 04	 add	 eax, 4
  00c25	49		 dec	 ecx
  00c26	75 f4		 jne	 SHORT $LL2553@LoadProper
  00c28	6a 0c		 push	 12			; 0000000cH
  00c2a	5e		 pop	 esi
$LL2550@LoadProper:
  00c2b	8b c6		 mov	 eax, esi
  00c2d	25 03 00 00 80	 and	 eax, -2147483645	; 80000003H
  00c32	79 05		 jns	 SHORT $LN2675@LoadProper
  00c34	48		 dec	 eax
  00c35	83 c8 fc	 or	 eax, -4			; fffffffcH
  00c38	40		 inc	 eax
$LN2675@LoadProper:
  00c39	b1 ed		 mov	 cl, -19			; ffffffedH
  00c3b	2a c8		 sub	 cl, al
  00c3d	30 8c 35 68 fe
	ff ff		 xor	 BYTE PTR ___encStr$530742[ebp+esi], cl
  00c44	46		 inc	 esi
  00c45	83 fe 0e	 cmp	 esi, 14			; 0000000eH
  00c48	7c e1		 jl	 SHORT $LL2550@LoadProper
  00c4a	8d 72 01	 lea	 esi, DWORD PTR [edx+1]
  00c4d	56		 push	 esi
  00c4e	8d 85 68 fe ff
	ff		 lea	 eax, DWORD PTR ___encStr$530742[ebp]
  00c54	50		 push	 eax
  00c55	8d 85 cc fb ff
	ff		 lea	 eax, DWORD PTR _szKey$[ebp]
  00c5b	50		 push	 eax
  00c5c	ff 15 00 00 00
	00		 call	 DWORD PTR __imp__wsprintfA
  00c62	83 c4 0c	 add	 esp, 12			; 0000000cH

; 114  : 		rkLoader.LoadString( szKey, "", szBuf, MAX_PATH );

  00c65	68 04 01 00 00	 push	 260			; 00000104H
  00c6a	8d 85 d0 fc ff
	ff		 lea	 eax, DWORD PTR _szBuf$[ebp]
  00c70	50		 push	 eax
  00c71	68 00 00 00 00	 push	 OFFSET ??_C@_00CNPNBAHC@?$AA@
  00c76	8d 85 cc fb ff
	ff		 lea	 eax, DWORD PTR _szKey$[ebp]
  00c7c	50		 push	 eax
  00c7d	8b cf		 mov	 ecx, edi
  00c7f	ff 15 00 00 00
	00		 call	 DWORD PTR __imp_?LoadStringA@ioINILoader@@QAEXPBD0PADH@Z

; 115  : 
; 116  : 		ioBuffInfo tBuffInfo;

  00c85	8d 8d ac fb ff
	ff		 lea	 ecx, DWORD PTR _tBuffInfo$530892[ebp]
  00c8b	e8 00 00 00 00	 call	 ??0BuffInfoStruct@@QAE@XZ ; BuffInfoStruct::BuffInfoStruct

; 117  : 		tBuffInfo.m_BuffName = szBuf;

  00c90	8d 85 d0 fc ff
	ff		 lea	 eax, DWORD PTR _szBuf$[ebp]
  00c96	50		 push	 eax
  00c97	8d 8d ac fb ff
	ff		 lea	 ecx, DWORD PTR _tBuffInfo$530892[ebp]
  00c9d	89 5d fc	 mov	 DWORD PTR __$EHRec$[ebp+8], ebx
  00ca0	ff 15 00 00 00
	00		 call	 DWORD PTR __imp_??4ioHashString@@QAEAAV0@PBD@Z

; 118  : 
; 119  : 		if( !tBuffInfo.m_BuffName.IsEmpty() )

  00ca6	8d 8d ac fb ff
	ff		 lea	 ecx, DWORD PTR _tBuffInfo$530892[ebp]
  00cac	ff 15 00 00 00
	00		 call	 DWORD PTR __imp_?IsEmpty@ioHashString@@QBE_NXZ
  00cb2	84 c0		 test	 al, al
  00cb4	75 2f		 jne	 SHORT $LN1@LoadProper

; 120  : 		{
; 121  : 			tBuffInfo.m_iBuffType = g_BuffMaker.GetBuffType( tBuffInfo.m_BuffName );

  00cb6	8d 85 ac fb ff
	ff		 lea	 eax, DWORD PTR _tBuffInfo$530892[ebp]
  00cbc	50		 push	 eax
  00cbd	e8 00 00 00 00	 call	 ?GetSingleton@ioBuffMaker@@SAAAV1@XZ ; ioBuffMaker::GetSingleton
  00cc2	8b c8		 mov	 ecx, eax
  00cc4	e8 00 00 00 00	 call	 ?GetBuffType@ioBuffMaker@@QBEHABVioHashString@@@Z ; ioBuffMaker::GetBuffType
  00cc9	89 85 bc fb ff
	ff		 mov	 DWORD PTR _tBuffInfo$530892[ebp+16], eax

; 122  : 			if( tBuffInfo.m_iBuffType != BT_NONE )

  00ccf	3b c3		 cmp	 eax, ebx
  00cd1	74 12		 je	 SHORT $LN1@LoadProper

; 123  : 			{
; 124  : 				m_LobeliaBuffList.push_back( tBuffInfo );

  00cd3	8b 8d c0 fb ff
	ff		 mov	 ecx, DWORD PTR tv18583[ebp]
  00cd9	8d 85 ac fb ff
	ff		 lea	 eax, DWORD PTR _tBuffInfo$530892[ebp]
  00cdf	50		 push	 eax
  00ce0	e8 00 00 00 00	 call	 ?push_back@?$vector@UBuffInfoStruct@@V?$allocator@UBuffInfoStruct@@@std@@@std@@QAEXABUBuffInfoStruct@@@Z ; std::vector<BuffInfoStruct,std::allocator<BuffInfoStruct> >::push_back
$LN1@LoadProper:

; 125  : 			}
; 126  : 		}
; 127  : 	}

  00ce5	83 4d fc ff	 or	 DWORD PTR __$EHRec$[ebp+8], -1
  00ce9	8d 8d ac fb ff
	ff		 lea	 ecx, DWORD PTR _tBuffInfo$530892[ebp]
  00cef	ff 15 00 00 00
	00		 call	 DWORD PTR __imp_??1ioHashString@@QAE@XZ
  00cf5	8b d6		 mov	 edx, esi
  00cf7	3b 95 c8 fb ff
	ff		 cmp	 edx, DWORD PTR _iCount$[ebp]
  00cfd	0f 8c e3 fe ff
	ff		 jl	 $LL104@LoadProper
$LN102@LoadProper:

; 128  : }

  00d03	e8 00 00 00 00	 call	 __EH_epilog3_GS
  00d08	c2 04 00	 ret	 4
_TEXT	ENDS
;	COMDAT text$x
text$x	SEGMENT
__unwindfunclet$?LoadProperty@ioLobeliaWeapon@@UAEXAAVioINILoader@@@Z$0:
  00000	8d 8d ac fb ff
	ff		 lea	 ecx, DWORD PTR _tBuffInfo$530892[ebp]
  00006	e9 00 00 00 00	 jmp	 ??1BuffInfoStruct@@QAE@XZ
__ehhandler$?LoadProperty@ioLobeliaWeapon@@UAEXAAVioINILoader@@@Z:
  0000b	8b 54 24 08	 mov	 edx, DWORD PTR [esp+8]
  0000f	8d 42 0c	 lea	 eax, DWORD PTR [edx+12]
  00012	8b 8a a8 fb ff
	ff		 mov	 ecx, DWORD PTR [edx-1112]
  00018	33 c8		 xor	 ecx, eax
  0001a	e8 00 00 00 00	 call	 @__security_check_cookie@4
  0001f	8b 4a fc	 mov	 ecx, DWORD PTR [edx-4]
  00022	33 c8		 xor	 ecx, eax
  00024	e8 00 00 00 00	 call	 @__security_check_cookie@4
  00029	b8 00 00 00 00	 mov	 eax, OFFSET __ehfuncinfo$?LoadProperty@ioLobeliaWeapon@@UAEXAAVioINILoader@@@Z
  0002e	e9 00 00 00 00	 jmp	 ___CxxFrameHandler3
text$x	ENDS
?LoadProperty@ioLobeliaWeapon@@UAEXAAVioINILoader@@@Z ENDP ; ioLobeliaWeapon::LoadProperty
END
