; Listing generated by Microsoft (R) Optimizing Compiler Version 16.00.30319.01 

	TITLE	D:\Lost Saga For Developer\Youtube\Tutorial\Source\src\LSClient\Local\ioLocalSingapore.cpp
	.686P
	.XMM
	include listing.inc
	.model	flat

INCLUDELIB MSVCRT
INCLUDELIB OLDNAMES

PUBLIC	??_7ioLocalSingapore@@6B@			; ioLocalSingapore::`vftable'
PUBLIC	??0ioLocalSingapore@@QAE@XZ			; ioLocalSingapore::ioLocalSingapore
PUBLIC	??_R4ioLocalSingapore@@6B@			; ioLocalSingapore::`RTTI Complete Object Locator'
PUBLIC	??_R0?AVioLocalSingapore@@@8			; ioLocalSingapore `RTTI Type Descriptor'
PUBLIC	??_R3ioLocalSingapore@@8			; ioLocalSingapore::`RTTI Class Hierarchy Descriptor'
PUBLIC	??_R2ioLocalSingapore@@8			; ioLocalSingapore::`RTTI Base Class Array'
PUBLIC	??_R1A@?0A@EA@ioLocalSingapore@@8		; ioLocalSingapore::`RTTI Base Class Descriptor at (0,-1,0,64)'
PUBLIC	??_R1A@?0A@EA@ioLocalParent@@8			; ioLocalParent::`RTTI Base Class Descriptor at (0,-1,0,64)'
PUBLIC	??_R0?AVioLocalParent@@@8			; ioLocalParent `RTTI Type Descriptor'
PUBLIC	??_R3ioLocalParent@@8				; ioLocalParent::`RTTI Class Hierarchy Descriptor'
PUBLIC	??_R2ioLocalParent@@8				; ioLocalParent::`RTTI Base Class Array'
PUBLIC	?GetType@ioLocalSingapore@@UAE?AW4LocalType@ioLocalManagerParent@@XZ ; ioLocalSingapore::GetType
PUBLIC	?GetTextListFileName@ioLocalSingapore@@UAEPBDXZ	; ioLocalSingapore::GetTextListFileName
PUBLIC	?GetMemTextList@ioLocalSingapore@@UAEPBDXZ	; ioLocalSingapore::GetMemTextList
PUBLIC	?GetSubType@ioLocalParent@@UAEHXZ		; ioLocalParent::GetSubType
PUBLIC	?SetSubType@ioLocalParent@@UAEXH@Z		; ioLocalParent::SetSubType
PUBLIC	?GetResourceIDTitleCashBmp@ioLocalSingapore@@UAEKXZ ; ioLocalSingapore::GetResourceIDTitleCashBmp
PUBLIC	?GetResourceIDTitleEntryBmp@ioLocalSingapore@@UAEKXZ ; ioLocalSingapore::GetResourceIDTitleEntryBmp
PUBLIC	?GetResourceIDTitleGuildBmp@ioLocalSingapore@@UAEKXZ ; ioLocalSingapore::GetResourceIDTitleGuildBmp
PUBLIC	?GetResourceIDTitleGuildMarkBmp@ioLocalSingapore@@UAEKXZ ; ioLocalSingapore::GetResourceIDTitleGuildMarkBmp
PUBLIC	?GetResourceIDTitleHomeBmp@ioLocalSingapore@@UAEKXZ ; ioLocalSingapore::GetResourceIDTitleHomeBmp
PUBLIC	?GetResourceIDTitleBmp@ioLocalSingapore@@UAEKXZ	; ioLocalSingapore::GetResourceIDTitleBmp
PUBLIC	?GetResourceIDTitleWebShop@ioLocalParent@@UAEKXZ ; ioLocalParent::GetResourceIDTitleWebShop
PUBLIC	?GetResourceIDErrorBack@ioLocalSingapore@@UAEKXZ ; ioLocalSingapore::GetResourceIDErrorBack
PUBLIC	?GetResourceIDErrorExitC@ioLocalSingapore@@UAEKXZ ; ioLocalSingapore::GetResourceIDErrorExitC
PUBLIC	?GetResourceIDErrorExitN@ioLocalSingapore@@UAEKXZ ; ioLocalSingapore::GetResourceIDErrorExitN
PUBLIC	?GetResourceIDErrorExitO@ioLocalSingapore@@UAEKXZ ; ioLocalSingapore::GetResourceIDErrorExitO
PUBLIC	?GetResourceIDErrorSolutionC@ioLocalSingapore@@UAEKXZ ; ioLocalSingapore::GetResourceIDErrorSolutionC
PUBLIC	?GetResourceIDErrorSolutionN@ioLocalSingapore@@UAEKXZ ; ioLocalSingapore::GetResourceIDErrorSolutionN
PUBLIC	?GetResourceIDErrorSolutionO@ioLocalSingapore@@UAEKXZ ; ioLocalSingapore::GetResourceIDErrorSolutionO
PUBLIC	?SetLoginData@ioLocalSingapore@@UAEXABVioHashString@@@Z ; ioLocalSingapore::SetLoginData
PUBLIC	?SetWarnetInfo@ioLocalSingapore@@UAEXABVioHashString@@K@Z ; ioLocalSingapore::SetWarnetInfo
PUBLIC	?FillLoginData@ioLocalSingapore@@UAEXAAVSP2Packet@@@Z ; ioLocalSingapore::FillLoginData
PUBLIC	?GetClassTypeForTutorialDropItem@ioLocalSingapore@@UAEXAAH@Z ; ioLocalSingapore::GetClassTypeForTutorialDropItem
PUBLIC	?GetGuildMasterPostion@ioLocalSingapore@@UAEPBDXZ ; ioLocalSingapore::GetGuildMasterPostion
PUBLIC	?GetGuildSecondMasterPosition@ioLocalSingapore@@UAEPBDXZ ; ioLocalSingapore::GetGuildSecondMasterPosition
PUBLIC	?GetGuildGeneralPosition@ioLocalSingapore@@UAEPBDXZ ; ioLocalSingapore::GetGuildGeneralPosition
PUBLIC	?GetGuildAdminPosition@ioLocalSingapore@@UAEPBDXZ ; ioLocalSingapore::GetGuildAdminPosition
PUBLIC	?GetErrorSolutionURL@ioLocalSingapore@@UAEPBDXZ	; ioLocalSingapore::GetErrorSolutionURL
PUBLIC	?GetBillingErrorMent@ioLocalSingapore@@UAEPBDAAVioHashString@@@Z ; ioLocalSingapore::GetBillingErrorMent
PUBLIC	?GetFirstIDMaxSize@ioLocalSingapore@@UAEHXZ	; ioLocalSingapore::GetFirstIDMaxSize
PUBLIC	?IsShowFirstIDWnd@ioLocalSingapore@@UAE_NXZ	; ioLocalSingapore::IsShowFirstIDWnd
PUBLIC	?OpenFillCashPage@ioLocalSingapore@@UAEXXZ	; ioLocalSingapore::OpenFillCashPage
PUBLIC	?IsRightNewID@ioLocalSingapore@@UAE_NPBD@Z	; ioLocalSingapore::IsRightNewID
PUBLIC	?IsSendGashaponList@ioLocalSingapore@@UAE_NXZ	; ioLocalSingapore::IsSendGashaponList
PUBLIC	?GetChangedString@ioLocalSingapore@@UAEXPAD@Z	; ioLocalSingapore::GetChangedString
PUBLIC	?IsExecuteLuncher@ioLocalSingapore@@UAE_NXZ	; ioLocalSingapore::IsExecuteLuncher
PUBLIC	?IsKoreaGameLimit@ioLocalSingapore@@UAE_NXZ	; ioLocalSingapore::IsKoreaGameLimit
PUBLIC	?IsCheckKorean@ioLocalSingapore@@UAE_NXZ	; ioLocalSingapore::IsCheckKorean
PUBLIC	?IsFirstIDCheckPass@ioLocalParent@@UAE_NXZ	; ioLocalParent::IsFirstIDCheckPass
PUBLIC	?IsMyHomePage@ioLocalSingapore@@UAE_NXZ		; ioLocalSingapore::IsMyHomePage
PUBLIC	?IsShowExtraGoodsList@ioLocalSingapore@@UAE_NXZ	; ioLocalSingapore::IsShowExtraGoodsList
PUBLIC	?IsShowRegulation@ioLocalSingapore@@UAE_NXZ	; ioLocalSingapore::IsShowRegulation
PUBLIC	?IsStartFullScreen@ioLocalSingapore@@UAE_NXZ	; ioLocalSingapore::IsStartFullScreen
PUBLIC	?IsTooltipAutoLine@ioLocalSingapore@@UAE_NXZ	; ioLocalSingapore::IsTooltipAutoLine
PUBLIC	?IsMileage@ioLocalParent@@UAE_NXZ		; ioLocalParent::IsMileage
PUBLIC	?IsGatotkacaPremium@ioLocalSingapore@@UAE_NH@Z	; ioLocalSingapore::IsGatotkacaPremium
PUBLIC	?IsPointBlankPremium@ioLocalSingapore@@UAE_NH@Z	; ioLocalSingapore::IsPointBlankPremium
PUBLIC	?SetPresentRecvDisableMsg@ioLocalSingapore@@UAE_NH@Z ; ioLocalSingapore::SetPresentRecvDisableMsg
PUBLIC	?GetLimitGradeLevel@ioLocalSingapore@@UAEHXZ	; ioLocalSingapore::GetLimitGradeLevel
PUBLIC	?IsEndFishingByMove@ioLocalParent@@UAE_NXZ	; ioLocalParent::IsEndFishingByMove
PUBLIC	?GetLicenseDate@ioLocalSingapore@@UAEHXZ	; ioLocalSingapore::GetLicenseDate
PUBLIC	?IsShowFirstSoldierSelectWnd@ioLocalParent@@UAE_NXZ ; ioLocalParent::IsShowFirstSoldierSelectWnd
PUBLIC	?ExitAction@ioLocalParent@@UAEXXZ		; ioLocalParent::ExitAction
PUBLIC	?ShowHackShieldErrorDlg@ioLocalSingapore@@UAEXABVioHashString@@@Z ; ioLocalSingapore::ShowHackShieldErrorDlg
PUBLIC	?GetCashSendTime@ioLocalSingapore@@UAEKXZ	; ioLocalSingapore::GetCashSendTime
PUBLIC	?IsHeadquarterWebPage@ioLocalParent@@UAE_NXZ	; ioLocalParent::IsHeadquarterWebPage
PUBLIC	?IsFirstIDControlAltCtrl@ioLocalParent@@UAE_NXZ	; ioLocalParent::IsFirstIDControlAltCtrl
PUBLIC	?IsPCRoomBonusSoldier@ioLocalSingapore@@UAE_NXZ	; ioLocalSingapore::IsPCRoomBonusSoldier
PUBLIC	?IsCheckValueServer@ioLocalSingapore@@UAE_NXZ	; ioLocalSingapore::IsCheckValueServer
PUBLIC	?IsChangeServerHelp@ioLocalSingapore@@UAE_NXZ	; ioLocalSingapore::IsChangeServerHelp
PUBLIC	?IsSendCollisionPos@ioLocalSingapore@@UAE_NXZ	; ioLocalSingapore::IsSendCollisionPos
PUBLIC	?IsLimitStartCancel@ioLocalSingapore@@UAE_NXZ	; ioLocalSingapore::IsLimitStartCancel
PUBLIC	?IsCreateMiniDump@ioLocalSingapore@@UAE_NXZ	; ioLocalSingapore::IsCreateMiniDump
PUBLIC	?IsTickCheck@ioLocalSingapore@@UAE_NXZ		; ioLocalSingapore::IsTickCheck
PUBLIC	?IsAnnounceShutDown@ioLocalParent@@UAE_NXZ	; ioLocalParent::IsAnnounceShutDown
PUBLIC	?IsUseMedalLevelOpen@ioLocalParent@@UAE_NXZ	; ioLocalParent::IsUseMedalLevelOpen
PUBLIC	?IsUsePresentMacroInShipping@ioLocalParent@@UAE_NXZ ; ioLocalParent::IsUsePresentMacroInShipping
PUBLIC	?IsSendChatLog@ioLocalParent@@UAE_NXZ		; ioLocalParent::IsSendChatLog
PUBLIC	?IsUseVoiceChat@ioLocalParent@@UAE_NXZ		; ioLocalParent::IsUseVoiceChat
PUBLIC	?IsMemoryLoadMapPac@ioLocalParent@@UAE_NXZ	; ioLocalParent::IsMemoryLoadMapPac
PUBLIC	?GetCashPageWidth@ioLocalSingapore@@UAEHXZ	; ioLocalSingapore::GetCashPageWidth
PUBLIC	?GetCashPageHeight@ioLocalSingapore@@UAEHXZ	; ioLocalSingapore::GetCashPageHeight
PUBLIC	?OnCashPageHide@ioLocalSingapore@@UAEXXZ	; ioLocalSingapore::OnCashPageHide
PUBLIC	?GetProgramExitWaitSec@ioLocalParent@@UAEHXZ	; ioLocalParent::GetProgramExitWaitSec
PUBLIC	?GetFillCashURL@ioLocalParent@@UAEXAAVioHashString@@ABV2@@Z ; ioLocalParent::GetFillCashURL
PUBLIC	?SetWebLoginKey@ioLocalParent@@UAEXABVioHashString@@@Z ; ioLocalParent::SetWebLoginKey
PUBLIC	?GetHighSpecWidth@ioLocalSingapore@@UAEHXZ	; ioLocalSingapore::GetHighSpecWidth
PUBLIC	?GetHighSpecHeight@ioLocalSingapore@@UAEHXZ	; ioLocalSingapore::GetHighSpecHeight
PUBLIC	?SetGoldChargeBtn@ioLocalParent@@UAEX_N@Z	; ioLocalParent::SetGoldChargeBtn
PUBLIC	?GetGoldChargeBtn@ioLocalParent@@UAE_NXZ	; ioLocalParent::GetGoldChargeBtn
PUBLIC	?SetCashReqTime@ioLocalParent@@UAEXK@Z		; ioLocalParent::SetCashReqTime
PUBLIC	?GetCashReqTime@ioLocalParent@@UAEKXZ		; ioLocalParent::GetCashReqTime
PUBLIC	?GetWebShopUrl@ioLocalParent@@UAE?AVioHashString@@XZ ; ioLocalParent::GetWebShopUrl
PUBLIC	?OpenWebPage@ioLocalParent@@UAEXH@Z		; ioLocalParent::OpenWebPage
EXTRN	__imp_??1ioHashString@@QAE@XZ:PROC
EXTRN	??1ioLocalParent@@UAE@XZ:PROC			; ioLocalParent::~ioLocalParent
EXTRN	__imp_?Clear@ioHashString@@QAEXXZ:PROC
EXTRN	__imp_??0ioHashString@@QAE@XZ:PROC
EXTRN	??0ioLocalParent@@QAE@XZ:PROC			; ioLocalParent::ioLocalParent
EXTRN	___CxxFrameHandler3:PROC
EXTRN	@__security_check_cookie@4:PROC
EXTRN	__EH_epilog3:PROC
EXTRN	__EH_prolog3:PROC
EXTRN	??_7type_info@@6B@:QWORD			; type_info::`vftable'
EXTRN	?SetTimeZone@ioLocalParent@@UAEXXZ:PROC		; ioLocalParent::SetTimeZone
EXTRN	?IsRightLicense@ioLocalParent@@UAE_NXZ:PROC	; ioLocalParent::IsRightLicense
EXTRN	?LoadINI@ioLocalParent@@UAEXXZ:PROC		; ioLocalParent::LoadINI
EXTRN	?GetLocalGMT@ioLocalParent@@UAEPBDXZ:PROC	; ioLocalParent::GetLocalGMT
EXTRN	?ProcessGetCash@ioLocalParent@@UAEXXZ:PROC	; ioLocalParent::ProcessGetCash
EXTRN	??_EioLocalSingapore@@UAEPAXI@Z:PROC		; ioLocalSingapore::`vector deleting destructor'
;	COMDAT ??_R2ioLocalParent@@8
; File d:\lost saga for developer\youtube\tutorial\source\src\lsclient\local\iolocalsingapore.cpp
rdata$r	SEGMENT
??_R2ioLocalParent@@8 DD FLAT:??_R1A@?0A@EA@ioLocalParent@@8 ; ioLocalParent::`RTTI Base Class Array'
rdata$r	ENDS
;	COMDAT ??_R3ioLocalParent@@8
rdata$r	SEGMENT
??_R3ioLocalParent@@8 DD 00H				; ioLocalParent::`RTTI Class Hierarchy Descriptor'
	DD	00H
	DD	01H
	DD	FLAT:??_R2ioLocalParent@@8
rdata$r	ENDS
;	COMDAT ??_R0?AVioLocalParent@@@8
_DATA	SEGMENT
??_R0?AVioLocalParent@@@8 DD FLAT:??_7type_info@@6B@	; ioLocalParent `RTTI Type Descriptor'
	DD	00H
	DB	'.?AVioLocalParent@@', 00H
_DATA	ENDS
;	COMDAT ??_R1A@?0A@EA@ioLocalParent@@8
rdata$r	SEGMENT
??_R1A@?0A@EA@ioLocalParent@@8 DD FLAT:??_R0?AVioLocalParent@@@8 ; ioLocalParent::`RTTI Base Class Descriptor at (0,-1,0,64)'
	DD	00H
	DD	00H
	DD	0ffffffffH
	DD	00H
	DD	040H
	DD	FLAT:??_R3ioLocalParent@@8
rdata$r	ENDS
;	COMDAT ??_R1A@?0A@EA@ioLocalSingapore@@8
rdata$r	SEGMENT
??_R1A@?0A@EA@ioLocalSingapore@@8 DD FLAT:??_R0?AVioLocalSingapore@@@8 ; ioLocalSingapore::`RTTI Base Class Descriptor at (0,-1,0,64)'
	DD	01H
	DD	00H
	DD	0ffffffffH
	DD	00H
	DD	040H
	DD	FLAT:??_R3ioLocalSingapore@@8
rdata$r	ENDS
;	COMDAT ??_R2ioLocalSingapore@@8
rdata$r	SEGMENT
??_R2ioLocalSingapore@@8 DD FLAT:??_R1A@?0A@EA@ioLocalSingapore@@8 ; ioLocalSingapore::`RTTI Base Class Array'
	DD	FLAT:??_R1A@?0A@EA@ioLocalParent@@8
rdata$r	ENDS
;	COMDAT ??_R3ioLocalSingapore@@8
rdata$r	SEGMENT
??_R3ioLocalSingapore@@8 DD 00H				; ioLocalSingapore::`RTTI Class Hierarchy Descriptor'
	DD	00H
	DD	02H
	DD	FLAT:??_R2ioLocalSingapore@@8
rdata$r	ENDS
;	COMDAT ??_R0?AVioLocalSingapore@@@8
_DATA	SEGMENT
??_R0?AVioLocalSingapore@@@8 DD FLAT:??_7type_info@@6B@	; ioLocalSingapore `RTTI Type Descriptor'
	DD	00H
	DB	'.?AVioLocalSingapore@@', 00H
_DATA	ENDS
;	COMDAT ??_R4ioLocalSingapore@@6B@
rdata$r	SEGMENT
??_R4ioLocalSingapore@@6B@ DD 00H			; ioLocalSingapore::`RTTI Complete Object Locator'
	DD	00H
	DD	00H
	DD	FLAT:??_R0?AVioLocalSingapore@@@8
	DD	FLAT:??_R3ioLocalSingapore@@8
rdata$r	ENDS
;	COMDAT ??_7ioLocalSingapore@@6B@
CONST	SEGMENT
??_7ioLocalSingapore@@6B@ DD FLAT:??_R4ioLocalSingapore@@6B@ ; ioLocalSingapore::`vftable'
	DD	FLAT:?GetType@ioLocalSingapore@@UAE?AW4LocalType@ioLocalManagerParent@@XZ
	DD	FLAT:?GetTextListFileName@ioLocalSingapore@@UAEPBDXZ
	DD	FLAT:?GetMemTextList@ioLocalSingapore@@UAEPBDXZ
	DD	FLAT:?GetSubType@ioLocalParent@@UAEHXZ
	DD	FLAT:?SetSubType@ioLocalParent@@UAEXH@Z
	DD	FLAT:?GetResourceIDTitleCashBmp@ioLocalSingapore@@UAEKXZ
	DD	FLAT:?GetResourceIDTitleEntryBmp@ioLocalSingapore@@UAEKXZ
	DD	FLAT:?GetResourceIDTitleGuildBmp@ioLocalSingapore@@UAEKXZ
	DD	FLAT:?GetResourceIDTitleGuildMarkBmp@ioLocalSingapore@@UAEKXZ
	DD	FLAT:?GetResourceIDTitleHomeBmp@ioLocalSingapore@@UAEKXZ
	DD	FLAT:?GetResourceIDTitleBmp@ioLocalSingapore@@UAEKXZ
	DD	FLAT:?GetResourceIDTitleWebShop@ioLocalParent@@UAEKXZ
	DD	FLAT:?GetResourceIDErrorBack@ioLocalSingapore@@UAEKXZ
	DD	FLAT:?GetResourceIDErrorExitC@ioLocalSingapore@@UAEKXZ
	DD	FLAT:?GetResourceIDErrorExitN@ioLocalSingapore@@UAEKXZ
	DD	FLAT:?GetResourceIDErrorExitO@ioLocalSingapore@@UAEKXZ
	DD	FLAT:?GetResourceIDErrorSolutionC@ioLocalSingapore@@UAEKXZ
	DD	FLAT:?GetResourceIDErrorSolutionN@ioLocalSingapore@@UAEKXZ
	DD	FLAT:?GetResourceIDErrorSolutionO@ioLocalSingapore@@UAEKXZ
	DD	FLAT:?SetLoginData@ioLocalSingapore@@UAEXABVioHashString@@@Z
	DD	FLAT:?SetWarnetInfo@ioLocalSingapore@@UAEXABVioHashString@@K@Z
	DD	FLAT:?FillLoginData@ioLocalSingapore@@UAEXAAVSP2Packet@@@Z
	DD	FLAT:?GetClassTypeForTutorialDropItem@ioLocalSingapore@@UAEXAAH@Z
	DD	FLAT:?GetGuildMasterPostion@ioLocalSingapore@@UAEPBDXZ
	DD	FLAT:?GetGuildSecondMasterPosition@ioLocalSingapore@@UAEPBDXZ
	DD	FLAT:?GetGuildGeneralPosition@ioLocalSingapore@@UAEPBDXZ
	DD	FLAT:?GetGuildAdminPosition@ioLocalSingapore@@UAEPBDXZ
	DD	FLAT:?GetErrorSolutionURL@ioLocalSingapore@@UAEPBDXZ
	DD	FLAT:?GetBillingErrorMent@ioLocalSingapore@@UAEPBDAAVioHashString@@@Z
	DD	FLAT:?GetFirstIDMaxSize@ioLocalSingapore@@UAEHXZ
	DD	FLAT:?IsShowFirstIDWnd@ioLocalSingapore@@UAE_NXZ
	DD	FLAT:?OpenFillCashPage@ioLocalSingapore@@UAEXXZ
	DD	FLAT:?IsRightNewID@ioLocalSingapore@@UAE_NPBD@Z
	DD	FLAT:?SetTimeZone@ioLocalParent@@UAEXXZ
	DD	FLAT:?IsSendGashaponList@ioLocalSingapore@@UAE_NXZ
	DD	FLAT:?GetChangedString@ioLocalSingapore@@UAEXPAD@Z
	DD	FLAT:?IsExecuteLuncher@ioLocalSingapore@@UAE_NXZ
	DD	FLAT:?IsKoreaGameLimit@ioLocalSingapore@@UAE_NXZ
	DD	FLAT:?IsCheckKorean@ioLocalSingapore@@UAE_NXZ
	DD	FLAT:?IsFirstIDCheckPass@ioLocalParent@@UAE_NXZ
	DD	FLAT:?IsMyHomePage@ioLocalSingapore@@UAE_NXZ
	DD	FLAT:?IsShowExtraGoodsList@ioLocalSingapore@@UAE_NXZ
	DD	FLAT:?IsShowRegulation@ioLocalSingapore@@UAE_NXZ
	DD	FLAT:?IsStartFullScreen@ioLocalSingapore@@UAE_NXZ
	DD	FLAT:?IsTooltipAutoLine@ioLocalSingapore@@UAE_NXZ
	DD	FLAT:?IsMileage@ioLocalParent@@UAE_NXZ
	DD	FLAT:?IsGatotkacaPremium@ioLocalSingapore@@UAE_NH@Z
	DD	FLAT:?IsPointBlankPremium@ioLocalSingapore@@UAE_NH@Z
	DD	FLAT:?SetPresentRecvDisableMsg@ioLocalSingapore@@UAE_NH@Z
	DD	FLAT:?GetLimitGradeLevel@ioLocalSingapore@@UAEHXZ
	DD	FLAT:?IsEndFishingByMove@ioLocalParent@@UAE_NXZ
	DD	FLAT:?IsRightLicense@ioLocalParent@@UAE_NXZ
	DD	FLAT:?GetLicenseDate@ioLocalSingapore@@UAEHXZ
	DD	FLAT:?IsShowFirstSoldierSelectWnd@ioLocalParent@@UAE_NXZ
	DD	FLAT:?ExitAction@ioLocalParent@@UAEXXZ
	DD	FLAT:?ShowHackShieldErrorDlg@ioLocalSingapore@@UAEXABVioHashString@@@Z
	DD	FLAT:?GetCashSendTime@ioLocalSingapore@@UAEKXZ
	DD	FLAT:?IsHeadquarterWebPage@ioLocalParent@@UAE_NXZ
	DD	FLAT:?IsFirstIDControlAltCtrl@ioLocalParent@@UAE_NXZ
	DD	FLAT:?IsPCRoomBonusSoldier@ioLocalSingapore@@UAE_NXZ
	DD	FLAT:?IsCheckValueServer@ioLocalSingapore@@UAE_NXZ
	DD	FLAT:?IsChangeServerHelp@ioLocalSingapore@@UAE_NXZ
	DD	FLAT:?IsSendCollisionPos@ioLocalSingapore@@UAE_NXZ
	DD	FLAT:?IsLimitStartCancel@ioLocalSingapore@@UAE_NXZ
	DD	FLAT:?IsCreateMiniDump@ioLocalSingapore@@UAE_NXZ
	DD	FLAT:?IsTickCheck@ioLocalSingapore@@UAE_NXZ
	DD	FLAT:?IsAnnounceShutDown@ioLocalParent@@UAE_NXZ
	DD	FLAT:?IsUseMedalLevelOpen@ioLocalParent@@UAE_NXZ
	DD	FLAT:?IsUsePresentMacroInShipping@ioLocalParent@@UAE_NXZ
	DD	FLAT:?IsSendChatLog@ioLocalParent@@UAE_NXZ
	DD	FLAT:?IsUseVoiceChat@ioLocalParent@@UAE_NXZ
	DD	FLAT:?IsMemoryLoadMapPac@ioLocalParent@@UAE_NXZ
	DD	FLAT:?GetCashPageWidth@ioLocalSingapore@@UAEHXZ
	DD	FLAT:?GetCashPageHeight@ioLocalSingapore@@UAEHXZ
	DD	FLAT:?OnCashPageHide@ioLocalSingapore@@UAEXXZ
	DD	FLAT:?GetProgramExitWaitSec@ioLocalParent@@UAEHXZ
	DD	FLAT:?GetFillCashURL@ioLocalParent@@UAEXAAVioHashString@@ABV2@@Z
	DD	FLAT:?LoadINI@ioLocalParent@@UAEXXZ
	DD	FLAT:?SetWebLoginKey@ioLocalParent@@UAEXABVioHashString@@@Z
	DD	FLAT:?GetHighSpecWidth@ioLocalSingapore@@UAEHXZ
	DD	FLAT:?GetHighSpecHeight@ioLocalSingapore@@UAEHXZ
	DD	FLAT:?GetLocalGMT@ioLocalParent@@UAEPBDXZ
	DD	FLAT:?SetGoldChargeBtn@ioLocalParent@@UAEX_N@Z
	DD	FLAT:?GetGoldChargeBtn@ioLocalParent@@UAE_NXZ
	DD	FLAT:?ProcessGetCash@ioLocalParent@@UAEXXZ
	DD	FLAT:?SetCashReqTime@ioLocalParent@@UAEXK@Z
	DD	FLAT:?GetCashReqTime@ioLocalParent@@UAEKXZ
	DD	FLAT:?GetWebShopUrl@ioLocalParent@@UAE?AVioHashString@@XZ
	DD	FLAT:?OpenWebPage@ioLocalParent@@UAEXH@Z
	DD	FLAT:??_EioLocalSingapore@@UAEPAXI@Z
CONST	ENDS
;	COMDAT xdata$x
xdata$x	SEGMENT
__unwindtable$??0ioLocalSingapore@@QAE@XZ DD 0ffffffffH
	DD	FLAT:__unwindfunclet$??0ioLocalSingapore@@QAE@XZ$0
	DD	00H
	DD	FLAT:__unwindfunclet$??0ioLocalSingapore@@QAE@XZ$1
	DD	01H
	DD	FLAT:__unwindfunclet$??0ioLocalSingapore@@QAE@XZ$2
__ehfuncinfo$??0ioLocalSingapore@@QAE@XZ DD 019930522H
	DD	03H
	DD	FLAT:__unwindtable$??0ioLocalSingapore@@QAE@XZ
	DD	2 DUP(00H)
	DD	2 DUP(00H)
	DD	00H
	DD	01H
; Function compile flags: /Ogsp
xdata$x	ENDS
;	COMDAT ??0ioLocalSingapore@@QAE@XZ
_TEXT	SEGMENT
_this$ = -16						; size = 4
__$EHRec$ = -12						; size = 12
??0ioLocalSingapore@@QAE@XZ PROC			; ioLocalSingapore::ioLocalSingapore, COMDAT
; _this$ = ecx

; 14   : {

  00000	6a 04		 push	 4
  00002	b8 00 00 00 00	 mov	 eax, __ehhandler$??0ioLocalSingapore@@QAE@XZ
  00007	e8 00 00 00 00	 call	 __EH_prolog3
  0000c	8b f1		 mov	 esi, ecx
  0000e	89 75 f0	 mov	 DWORD PTR _this$[ebp], esi
  00011	e8 00 00 00 00	 call	 ??0ioLocalParent@@QAE@XZ ; ioLocalParent::ioLocalParent
  00016	8b 3d 00 00 00
	00		 mov	 edi, DWORD PTR __imp_??0ioHashString@@QAE@XZ
  0001c	83 65 fc 00	 and	 DWORD PTR __$EHRec$[ebp+8], 0
  00020	8d 4e 70	 lea	 ecx, DWORD PTR [esi+112]
  00023	c7 06 00 00 00
	00		 mov	 DWORD PTR [esi], OFFSET ??_7ioLocalSingapore@@6B@
  00029	ff d7		 call	 edi
  0002b	8d 8e 80 00 00
	00		 lea	 ecx, DWORD PTR [esi+128]
  00031	c6 45 fc 01	 mov	 BYTE PTR __$EHRec$[ebp+8], 1
  00035	ff d7		 call	 edi

; 15   : 	m_sAuthPC.Clear();

  00037	8d 8e 80 00 00
	00		 lea	 ecx, DWORD PTR [esi+128]
  0003d	c6 45 fc 02	 mov	 BYTE PTR __$EHRec$[ebp+8], 2
  00041	ff 15 00 00 00
	00		 call	 DWORD PTR __imp_?Clear@ioHashString@@QAEXXZ

; 16   : 	m_dwSessionID = 0;

  00047	83 a6 90 00 00
	00 00		 and	 DWORD PTR [esi+144], 0

; 17   : 	m_nSubType = SUB_TYPE_EN;

  0004e	83 66 44 00	 and	 DWORD PTR [esi+68], 0

; 18   : }

  00052	8b c6		 mov	 eax, esi
  00054	e8 00 00 00 00	 call	 __EH_epilog3
  00059	c3		 ret	 0
_TEXT	ENDS
;	COMDAT text$x
text$x	SEGMENT
__unwindfunclet$??0ioLocalSingapore@@QAE@XZ$0:
  00000	8b 4d f0	 mov	 ecx, DWORD PTR _this$[ebp]
  00003	e9 00 00 00 00	 jmp	 ??1ioLocalParent@@UAE@XZ ; ioLocalParent::~ioLocalParent
__unwindfunclet$??0ioLocalSingapore@@QAE@XZ$1:
  00008	8b 4d f0	 mov	 ecx, DWORD PTR _this$[ebp]
  0000b	83 c1 70	 add	 ecx, 112		; 00000070H
  0000e	ff 25 00 00 00
	00		 jmp	 DWORD PTR __imp_??1ioHashString@@QAE@XZ
__unwindfunclet$??0ioLocalSingapore@@QAE@XZ$2:
  00014	8b 4d f0	 mov	 ecx, DWORD PTR _this$[ebp]
  00017	81 c1 80 00 00
	00		 add	 ecx, 128		; 00000080H
  0001d	ff 25 00 00 00
	00		 jmp	 DWORD PTR __imp_??1ioHashString@@QAE@XZ
__ehhandler$??0ioLocalSingapore@@QAE@XZ:
  00023	8b 54 24 08	 mov	 edx, DWORD PTR [esp+8]
  00027	8d 42 0c	 lea	 eax, DWORD PTR [edx+12]
  0002a	8b 4a ec	 mov	 ecx, DWORD PTR [edx-20]
  0002d	33 c8		 xor	 ecx, eax
  0002f	e8 00 00 00 00	 call	 @__security_check_cookie@4
  00034	b8 00 00 00 00	 mov	 eax, OFFSET __ehfuncinfo$??0ioLocalSingapore@@QAE@XZ
  00039	e9 00 00 00 00	 jmp	 ___CxxFrameHandler3
text$x	ENDS
??0ioLocalSingapore@@QAE@XZ ENDP			; ioLocalSingapore::ioLocalSingapore
; Function compile flags: /Ogsp
; File d:\lost saga for developer\youtube\tutorial\source\src\lsclient\local\iolocalsingapore.h
;	COMDAT ?IsStartFullScreen@ioLocalSingapore@@UAE_NXZ
_TEXT	SEGMENT
?IsStartFullScreen@ioLocalSingapore@@UAE_NXZ PROC	; ioLocalSingapore::IsStartFullScreen, COMDAT
; _this$ = ecx

; 71   : 	virtual bool IsStartFullScreen(){ return true; }

  00000	b0 01		 mov	 al, 1
  00002	c3		 ret	 0
?IsStartFullScreen@ioLocalSingapore@@UAE_NXZ ENDP	; ioLocalSingapore::IsStartFullScreen
; Function compile flags: /Ogsp
_TEXT	ENDS
;	COMDAT ?IsTooltipAutoLine@ioLocalSingapore@@UAE_NXZ
_TEXT	SEGMENT
?IsTooltipAutoLine@ioLocalSingapore@@UAE_NXZ PROC	; ioLocalSingapore::IsTooltipAutoLine, COMDAT
; _this$ = ecx

; 72   : 	virtual bool IsTooltipAutoLine(){ return true; }

  00000	b0 01		 mov	 al, 1
  00002	c3		 ret	 0
?IsTooltipAutoLine@ioLocalSingapore@@UAE_NXZ ENDP	; ioLocalSingapore::IsTooltipAutoLine
; Function compile flags: /Ogsp
_TEXT	ENDS
;	COMDAT ?GetCashSendTime@ioLocalSingapore@@UAEKXZ
_TEXT	SEGMENT
?GetCashSendTime@ioLocalSingapore@@UAEKXZ PROC		; ioLocalSingapore::GetCashSendTime, COMDAT
; _this$ = ecx

; 80   : 	virtual DWORD GetCashSendTime() { return 3600000; } // ms

  00000	b8 80 ee 36 00	 mov	 eax, 3600000		; 0036ee80H
  00005	c3		 ret	 0
?GetCashSendTime@ioLocalSingapore@@UAEKXZ ENDP		; ioLocalSingapore::GetCashSendTime
; Function compile flags: /Ogsp
_TEXT	ENDS
;	COMDAT ?IsCheckValueServer@ioLocalSingapore@@UAE_NXZ
_TEXT	SEGMENT
?IsCheckValueServer@ioLocalSingapore@@UAE_NXZ PROC	; ioLocalSingapore::IsCheckValueServer, COMDAT
; _this$ = ecx

; 81   : 	virtual bool IsCheckValueServer() { return true; }

  00000	b0 01		 mov	 al, 1
  00002	c3		 ret	 0
?IsCheckValueServer@ioLocalSingapore@@UAE_NXZ ENDP	; ioLocalSingapore::IsCheckValueServer
; Function compile flags: /Ogsp
_TEXT	ENDS
;	COMDAT ?IsChangeServerHelp@ioLocalSingapore@@UAE_NXZ
_TEXT	SEGMENT
?IsChangeServerHelp@ioLocalSingapore@@UAE_NXZ PROC	; ioLocalSingapore::IsChangeServerHelp, COMDAT
; _this$ = ecx

; 82   : 	virtual bool IsChangeServerHelp() { return true; }

  00000	b0 01		 mov	 al, 1
  00002	c3		 ret	 0
?IsChangeServerHelp@ioLocalSingapore@@UAE_NXZ ENDP	; ioLocalSingapore::IsChangeServerHelp
; Function compile flags: /Ogsp
_TEXT	ENDS
;	COMDAT ?IsSendCollisionPos@ioLocalSingapore@@UAE_NXZ
_TEXT	SEGMENT
?IsSendCollisionPos@ioLocalSingapore@@UAE_NXZ PROC	; ioLocalSingapore::IsSendCollisionPos, COMDAT
; _this$ = ecx

; 83   : 	virtual bool IsSendCollisionPos() { return false; }

  00000	32 c0		 xor	 al, al
  00002	c3		 ret	 0
?IsSendCollisionPos@ioLocalSingapore@@UAE_NXZ ENDP	; ioLocalSingapore::IsSendCollisionPos
; Function compile flags: /Ogsp
_TEXT	ENDS
;	COMDAT ?IsLimitStartCancel@ioLocalSingapore@@UAE_NXZ
_TEXT	SEGMENT
?IsLimitStartCancel@ioLocalSingapore@@UAE_NXZ PROC	; ioLocalSingapore::IsLimitStartCancel, COMDAT
; _this$ = ecx

; 84   : 	virtual bool IsLimitStartCancel() { return true; }

  00000	b0 01		 mov	 al, 1
  00002	c3		 ret	 0
?IsLimitStartCancel@ioLocalSingapore@@UAE_NXZ ENDP	; ioLocalSingapore::IsLimitStartCancel
; Function compile flags: /Ogsp
_TEXT	ENDS
;	COMDAT ?IsCreateMiniDump@ioLocalSingapore@@UAE_NXZ
_TEXT	SEGMENT
?IsCreateMiniDump@ioLocalSingapore@@UAE_NXZ PROC	; ioLocalSingapore::IsCreateMiniDump, COMDAT
; _this$ = ecx

; 85   : 	virtual bool IsCreateMiniDump() { return false; }

  00000	32 c0		 xor	 al, al
  00002	c3		 ret	 0
?IsCreateMiniDump@ioLocalSingapore@@UAE_NXZ ENDP	; ioLocalSingapore::IsCreateMiniDump
; Function compile flags: /Ogsp
_TEXT	ENDS
;	COMDAT ?IsTickCheck@ioLocalSingapore@@UAE_NXZ
_TEXT	SEGMENT
?IsTickCheck@ioLocalSingapore@@UAE_NXZ PROC		; ioLocalSingapore::IsTickCheck, COMDAT
; _this$ = ecx

; 86   : 	virtual bool IsTickCheck() { return true; }

  00000	b0 01		 mov	 al, 1
  00002	c3		 ret	 0
?IsTickCheck@ioLocalSingapore@@UAE_NXZ ENDP		; ioLocalSingapore::IsTickCheck
; Function compile flags: /Ogsp
_TEXT	ENDS
;	COMDAT ?GetHighSpecWidth@ioLocalSingapore@@UAEHXZ
_TEXT	SEGMENT
?GetHighSpecWidth@ioLocalSingapore@@UAEHXZ PROC		; ioLocalSingapore::GetHighSpecWidth, COMDAT
; _this$ = ecx

; 92   : 	virtual int GetHighSpecWidth() { return 800; }

  00000	b8 20 03 00 00	 mov	 eax, 800		; 00000320H
  00005	c3		 ret	 0
?GetHighSpecWidth@ioLocalSingapore@@UAEHXZ ENDP		; ioLocalSingapore::GetHighSpecWidth
; Function compile flags: /Ogsp
_TEXT	ENDS
;	COMDAT ?GetHighSpecHeight@ioLocalSingapore@@UAEHXZ
_TEXT	SEGMENT
?GetHighSpecHeight@ioLocalSingapore@@UAEHXZ PROC	; ioLocalSingapore::GetHighSpecHeight, COMDAT
; _this$ = ecx

; 93   : 	virtual int GetHighSpecHeight() { return 600; }

  00000	b8 58 02 00 00	 mov	 eax, 600		; 00000258H
  00005	c3		 ret	 0
?GetHighSpecHeight@ioLocalSingapore@@UAEHXZ ENDP	; ioLocalSingapore::GetHighSpecHeight
; Function compile flags: /Ogsp
_TEXT	ENDS
;	COMDAT ?IsPCRoomBonusSoldier@ioLocalSingapore@@UAE_NXZ
_TEXT	SEGMENT
?IsPCRoomBonusSoldier@ioLocalSingapore@@UAE_NXZ PROC	; ioLocalSingapore::IsPCRoomBonusSoldier, COMDAT
; _this$ = ecx

; 100  : 	virtual bool IsPCRoomBonusSoldier() { return true; }

  00000	b0 01		 mov	 al, 1
  00002	c3		 ret	 0
?IsPCRoomBonusSoldier@ioLocalSingapore@@UAE_NXZ ENDP	; ioLocalSingapore::IsPCRoomBonusSoldier
_TEXT	ENDS
PUBLIC	??1ioLocalSingapore@@UAE@XZ			; ioLocalSingapore::~ioLocalSingapore
;	COMDAT xdata$x
; File d:\lost saga for developer\youtube\tutorial\source\src\lsclient\local\iolocalsingapore.cpp
xdata$x	SEGMENT
__unwindtable$??1ioLocalSingapore@@UAE@XZ DD 0ffffffffH
	DD	FLAT:__unwindfunclet$??1ioLocalSingapore@@UAE@XZ$0
	DD	00H
	DD	FLAT:__unwindfunclet$??1ioLocalSingapore@@UAE@XZ$1
__ehfuncinfo$??1ioLocalSingapore@@UAE@XZ DD 019930522H
	DD	02H
	DD	FLAT:__unwindtable$??1ioLocalSingapore@@UAE@XZ
	DD	2 DUP(00H)
	DD	2 DUP(00H)
	DD	00H
	DD	01H
; Function compile flags: /Ogsp
xdata$x	ENDS
;	COMDAT ??1ioLocalSingapore@@UAE@XZ
_TEXT	SEGMENT
_this$ = -16						; size = 4
__$EHRec$ = -12						; size = 12
??1ioLocalSingapore@@UAE@XZ PROC			; ioLocalSingapore::~ioLocalSingapore, COMDAT
; _this$ = ecx

; 21   : {

  00000	6a 04		 push	 4
  00002	b8 00 00 00 00	 mov	 eax, __ehhandler$??1ioLocalSingapore@@UAE@XZ
  00007	e8 00 00 00 00	 call	 __EH_prolog3
  0000c	8b f1		 mov	 esi, ecx
  0000e	89 75 f0	 mov	 DWORD PTR _this$[ebp], esi
  00011	c7 06 00 00 00
	00		 mov	 DWORD PTR [esi], OFFSET ??_7ioLocalSingapore@@6B@

; 22   : }

  00017	8b 3d 00 00 00
	00		 mov	 edi, DWORD PTR __imp_??1ioHashString@@QAE@XZ
  0001d	8d 8e 80 00 00
	00		 lea	 ecx, DWORD PTR [esi+128]
  00023	c7 45 fc 01 00
	00 00		 mov	 DWORD PTR __$EHRec$[ebp+8], 1
  0002a	ff d7		 call	 edi
  0002c	8d 4e 70	 lea	 ecx, DWORD PTR [esi+112]
  0002f	c6 45 fc 00	 mov	 BYTE PTR __$EHRec$[ebp+8], 0
  00033	ff d7		 call	 edi
  00035	83 4d fc ff	 or	 DWORD PTR __$EHRec$[ebp+8], -1
  00039	8b ce		 mov	 ecx, esi
  0003b	e8 00 00 00 00	 call	 ??1ioLocalParent@@UAE@XZ ; ioLocalParent::~ioLocalParent
  00040	e8 00 00 00 00	 call	 __EH_epilog3
  00045	c3		 ret	 0
_TEXT	ENDS
;	COMDAT text$x
text$x	SEGMENT
__unwindfunclet$??1ioLocalSingapore@@UAE@XZ$0:
  00000	8b 4d f0	 mov	 ecx, DWORD PTR _this$[ebp]
  00003	e9 00 00 00 00	 jmp	 ??1ioLocalParent@@UAE@XZ ; ioLocalParent::~ioLocalParent
__unwindfunclet$??1ioLocalSingapore@@UAE@XZ$1:
  00008	8b 4d f0	 mov	 ecx, DWORD PTR _this$[ebp]
  0000b	83 c1 70	 add	 ecx, 112		; 00000070H
  0000e	ff 25 00 00 00
	00		 jmp	 DWORD PTR __imp_??1ioHashString@@QAE@XZ
__ehhandler$??1ioLocalSingapore@@UAE@XZ:
  00014	8b 54 24 08	 mov	 edx, DWORD PTR [esp+8]
  00018	8d 42 0c	 lea	 eax, DWORD PTR [edx+12]
  0001b	8b 4a ec	 mov	 ecx, DWORD PTR [edx-20]
  0001e	33 c8		 xor	 ecx, eax
  00020	e8 00 00 00 00	 call	 @__security_check_cookie@4
  00025	b8 00 00 00 00	 mov	 eax, OFFSET __ehfuncinfo$??1ioLocalSingapore@@UAE@XZ
  0002a	e9 00 00 00 00	 jmp	 ___CxxFrameHandler3
text$x	ENDS
??1ioLocalSingapore@@UAE@XZ ENDP			; ioLocalSingapore::~ioLocalSingapore
; Function compile flags: /Ogsp
;	COMDAT ?GetType@ioLocalSingapore@@UAE?AW4LocalType@ioLocalManagerParent@@XZ
_TEXT	SEGMENT
?GetType@ioLocalSingapore@@UAE?AW4LocalType@ioLocalManagerParent@@XZ PROC ; ioLocalSingapore::GetType, COMDAT
; _this$ = ecx

; 26   : 	return ioLocalManager::LCT_SINGAPORE;

  00000	b8 0f fc c3 13	 mov	 eax, 331611151		; 13c3fc0fH

; 27   : }

  00005	c3		 ret	 0
?GetType@ioLocalSingapore@@UAE?AW4LocalType@ioLocalManagerParent@@XZ ENDP ; ioLocalSingapore::GetType
_TEXT	ENDS
PUBLIC	??_C@_0M@LGDFNCG@text_my?4txt?$AA@		; `string'
PUBLIC	??_C@_0M@FFONJFO@text_sg?4txt?$AA@		; `string'
;	COMDAT ??_C@_0M@LGDFNCG@text_my?4txt?$AA@
CONST	SEGMENT
??_C@_0M@LGDFNCG@text_my?4txt?$AA@ DB 'text_my.txt', 00H ; `string'
CONST	ENDS
;	COMDAT ??_C@_0M@FFONJFO@text_sg?4txt?$AA@
CONST	SEGMENT
??_C@_0M@FFONJFO@text_sg?4txt?$AA@ DB 'text_sg.txt', 00H ; `string'
; Function compile flags: /Ogsp
CONST	ENDS
;	COMDAT ?GetTextListFileName@ioLocalSingapore@@UAEPBDXZ
_TEXT	SEGMENT
?GetTextListFileName@ioLocalSingapore@@UAEPBDXZ PROC	; ioLocalSingapore::GetTextListFileName, COMDAT
; _this$ = ecx

; 31   : 	switch(m_nSubType)

  00000	8b 41 44	 mov	 eax, DWORD PTR [ecx+68]
  00003	48		 dec	 eax

; 35   : 	default:
; 36   : 		return "text_sg.txt";

  00004	b8 00 00 00 00	 mov	 eax, OFFSET ??_C@_0M@FFONJFO@text_sg?4txt?$AA@
  00009	75 05		 jne	 SHORT $LN3@GetTextLis

; 32   : 	{
; 33   : 	case SUB_TYPE_MY:
; 34   : 		return "text_my.txt";

  0000b	b8 00 00 00 00	 mov	 eax, OFFSET ??_C@_0M@LGDFNCG@text_my?4txt?$AA@
$LN3@GetTextLis:

; 37   : 	}
; 38   : 
; 39   : }

  00010	c3		 ret	 0
?GetTextListFileName@ioLocalSingapore@@UAEPBDXZ ENDP	; ioLocalSingapore::GetTextListFileName
_TEXT	ENDS
EXTRN	?LoadTextInResource@Help@@YAXHAAKAAPBD@Z:PROC	; Help::LoadTextInResource
; Function compile flags: /Ogsp
;	COMDAT ?GetMemTextList@ioLocalSingapore@@UAEPBDXZ
_TEXT	SEGMENT
_size$ = -8						; size = 4
_pChar$ = -4						; size = 4
?GetMemTextList@ioLocalSingapore@@UAEPBDXZ PROC		; ioLocalSingapore::GetMemTextList, COMDAT
; _this$ = ecx

; 42   : {

  00000	55		 push	 ebp
  00001	8b ec		 mov	 ebp, esp
  00003	51		 push	 ecx
  00004	51		 push	 ecx

; 43   : 
; 44   : 	DWORD size = 0;

  00005	83 65 f8 00	 and	 DWORD PTR _size$[ebp], 0

; 45   : 	const char * pChar = NULL;

  00009	83 65 fc 00	 and	 DWORD PTR _pChar$[ebp], 0

; 46   : 	Help::LoadTextInResource(IDR_ERROR, size, pChar);

  0000d	8d 45 fc	 lea	 eax, DWORD PTR _pChar$[ebp]
  00010	50		 push	 eax
  00011	8d 45 f8	 lea	 eax, DWORD PTR _size$[ebp]
  00014	50		 push	 eax
  00015	68 c9 00 00 00	 push	 201			; 000000c9H
  0001a	e8 00 00 00 00	 call	 ?LoadTextInResource@Help@@YAXHAAKAAPBD@Z ; Help::LoadTextInResource

; 47   : 	return pChar;

  0001f	8b 45 fc	 mov	 eax, DWORD PTR _pChar$[ebp]
  00022	83 c4 0c	 add	 esp, 12			; 0000000cH

; 48   : 
; 49   : 	//return "|EXE_WinMain_1|Terjadi Error di Security Program.|" //Except Extracting Hangeul
; 50   : 	//	   "|EXE_WinMain_2|Lost Saga sudah berjalan.|" //Except Extracting Hangeul
; 51   : 	//	   "|EXE_WinMain_3|    Tidak dapat menemukan DirectX\r\nSilahkan install DirectX yang terbaru.\r\n(Error Code:301)|" //Except Extracting Hangeul
; 52   : 	//	   "|EXE_WinMain_4|Versi DirectX yang install terlalu rendah(%1)\nSilahkan install  DirectX yang terbaru\nDan silahkan cek juga versi Driver Graphic Card.\n(Error Code:302)|" //Except Extracting Hangeul
; 53   : 	//	   "|EXE_WinMain_5|Game Guard Error : %1|"  //Except Extracting Hangeul
; 54   : 	//	   "|EXE_ErrorDlgProc_1|--- Spesifikasi System ---\r\n%1\r\n\r\n--- Info Error ---\r\n%2|" //Except Extracting Hangeul
; 55   : 	//	   "|EXE_ioNProtect::GetStartErrorMsg_1|Game Guard sedang berjalan. Silahkan coba beberapa saat lagi atau setelah reboot.|" //Except Extracting Hangeul
; 56   : 	//	   "|EXE_ioNProtect::GetStartErrorMsg_2|Game sudah berjalan atau Game Guard sedang berjalan. Silahkan coba lagi seteleh keluar dari game.|" //Except Extracting Hangeul
; 57   : 	//	   "|EXE_ioNProtect::GetStartErrorMsg_3|Terjadi error saat mereset Game guard. SIlahkan coba lagi seteleh reboot atau seteleh menutup program-program yang kemungkinan berpengaruh ke game.|" //Except Extracting Hangeul
; 58   : 	//	   "|EXE_ioNProtect::GetStartErrorMsg_4|Tidak ada file Game Guard atau telah dimodifikasi.Silahkan setup Game Guard file.|" //Except Extracting Hangeul
; 59   : 	//	   "|EXE_ioNProtect::GetStartErrorMsg_5|Ada beberapa system file Windows yang rusak. Silahkan install ulang Internet Explorer.|" //Except Extracting Hangeul
; 60   : 	//	   "|EXE_ioNProtect::GetStartErrorMsg_6|Gagal menjalankan Game Guard. Silahkan install ulang Game Guard Setup File.|" //Except Extracting Hangeul
; 61   : 	//	   "|EXE_ioNProtect::GetStartErrorMsg_7|Terdeteksi program illegal. Silahkan coba lagi setelah menutup program illegal.|" //Except Extracting Hangeul
; 62   : 	//	   "|EXE_ioNProtect::GetStartErrorMsg_8|Telah membatalkan update Game Guard. Jika tidak bisa connect silakan cek Jaringan Internet atau setting Firewall.|" //Except Extracting Hangeul
; 63   : 	//	   "|EXE_ioNProtect::GetStartErrorMsg_9|Gagal connect ke Game Guard update server. Silahkan coba beberapa saat lagi atau silahkan cek kondisi jaringan.|" //Except Extracting Hangeul
; 64   : 	//	   "|EXE_ioNProtect::GetStartErrorMsg_10|Error reset Game Guard atau versi file Game Guard yang lama. Silahkan jalankan kembali setelah setup ulang Game Guard.|" //Except Extracting Hangeul
; 65   : 	//	   "|EXE_ioNProtect::GetStartErrorMsg_11|Tidak ada file ini atau telah dimodifikasi. Silahkan coba install Game Guard setup file.|" //Except Extracting Hangeul
; 66   : 	//	   "|EXE_ioNProtect::GetStartErrorMsg_12|Error mereset file npgmup.des.Silahkan jalankan game kembali setelah menghapus folder Game Guard.|" //Except Extracting Hangeul
; 67   : 	//	   "|EXE_ioNProtect::GetStartErrorMsg_13|Gagal connect ke Game Guard Update Server. Silahkan coba beberapa saat lagi atau silahkan cek setting Firewall.|" //Except Extracting Hangeul
; 68   : 	//	   "|EXE_ioNProtect::GetStartErrorMsg_14|Tidak dapat menyelesaikan Game Guard Update. SIlahkan coba lagi setelah menon-aktifkan anti-virus untuk sementara waktu.|" //Except Extracting Hangeul
; 69   : 	//	   "|EXE_ioNProtect::GetStartErrorMsg_15|Gagal loading Module untuk mengecek virus atau hacking tool. Kekurangan Memory atau telah terkena virus.|" //Except Extracting Hangeul
; 70   : 	//	   "|EXE_ioNProtect::GetStartErrorMsg_16|Ada program yang mempengaruhi jalannya Game Guard.|" //Except Extracting Hangeul
; 71   : 	//	   "|EXE_ioNProtect::GetStartErrorMsg_17|Telah terjadi error saat menjalankan Game Guard. Silahkan mengirim email ke Game2@inca.co.kr sertakan file *erl yang ada di dalam folder Game Guard di Folder Game.|"; //Except Extracting Hangeul
; 72   : }

  00025	c9		 leave
  00026	c3		 ret	 0
?GetMemTextList@ioLocalSingapore@@UAEPBDXZ ENDP		; ioLocalSingapore::GetMemTextList
; Function compile flags: /Ogsp
_TEXT	ENDS
;	COMDAT ?GetResourceIDTitleCashBmp@ioLocalSingapore@@UAEKXZ
_TEXT	SEGMENT
?GetResourceIDTitleCashBmp@ioLocalSingapore@@UAEKXZ PROC ; ioLocalSingapore::GetResourceIDTitleCashBmp, COMDAT
; _this$ = ecx

; 76   : 	return IDB_WEB_TITLE_CASH;

  00000	6a 78		 push	 120			; 00000078H
  00002	58		 pop	 eax

; 77   : }

  00003	c3		 ret	 0
?GetResourceIDTitleCashBmp@ioLocalSingapore@@UAEKXZ ENDP ; ioLocalSingapore::GetResourceIDTitleCashBmp
; Function compile flags: /Ogsp
_TEXT	ENDS
;	COMDAT ?GetResourceIDTitleEntryBmp@ioLocalSingapore@@UAEKXZ
_TEXT	SEGMENT
?GetResourceIDTitleEntryBmp@ioLocalSingapore@@UAEKXZ PROC ; ioLocalSingapore::GetResourceIDTitleEntryBmp, COMDAT
; _this$ = ecx

; 81   : 	return IDB_WEB_TITLE_ENTRY;

  00000	6a 73		 push	 115			; 00000073H
  00002	58		 pop	 eax

; 82   : }

  00003	c3		 ret	 0
?GetResourceIDTitleEntryBmp@ioLocalSingapore@@UAEKXZ ENDP ; ioLocalSingapore::GetResourceIDTitleEntryBmp
; Function compile flags: /Ogsp
_TEXT	ENDS
;	COMDAT ?GetResourceIDTitleGuildBmp@ioLocalSingapore@@UAEKXZ
_TEXT	SEGMENT
?GetResourceIDTitleGuildBmp@ioLocalSingapore@@UAEKXZ PROC ; ioLocalSingapore::GetResourceIDTitleGuildBmp, COMDAT
; _this$ = ecx

; 86   : 	return IDB_WEB_TITLE_GUILD;

  00000	6a 74		 push	 116			; 00000074H
  00002	58		 pop	 eax

; 87   : }

  00003	c3		 ret	 0
?GetResourceIDTitleGuildBmp@ioLocalSingapore@@UAEKXZ ENDP ; ioLocalSingapore::GetResourceIDTitleGuildBmp
; Function compile flags: /Ogsp
_TEXT	ENDS
;	COMDAT ?GetResourceIDTitleGuildMarkBmp@ioLocalSingapore@@UAEKXZ
_TEXT	SEGMENT
?GetResourceIDTitleGuildMarkBmp@ioLocalSingapore@@UAEKXZ PROC ; ioLocalSingapore::GetResourceIDTitleGuildMarkBmp, COMDAT
; _this$ = ecx

; 91   : 	return IDB_WEB_TITLE_GUILD_MARK;

  00000	6a 76		 push	 118			; 00000076H
  00002	58		 pop	 eax

; 92   : }

  00003	c3		 ret	 0
?GetResourceIDTitleGuildMarkBmp@ioLocalSingapore@@UAEKXZ ENDP ; ioLocalSingapore::GetResourceIDTitleGuildMarkBmp
; Function compile flags: /Ogsp
_TEXT	ENDS
;	COMDAT ?GetResourceIDTitleHomeBmp@ioLocalSingapore@@UAEKXZ
_TEXT	SEGMENT
?GetResourceIDTitleHomeBmp@ioLocalSingapore@@UAEKXZ PROC ; ioLocalSingapore::GetResourceIDTitleHomeBmp, COMDAT
; _this$ = ecx

; 96   : 	return IDB_WEB_TITLE_HOME;

  00000	6a 72		 push	 114			; 00000072H
  00002	58		 pop	 eax

; 97   : }

  00003	c3		 ret	 0
?GetResourceIDTitleHomeBmp@ioLocalSingapore@@UAEKXZ ENDP ; ioLocalSingapore::GetResourceIDTitleHomeBmp
; Function compile flags: /Ogsp
_TEXT	ENDS
;	COMDAT ?GetResourceIDTitleBmp@ioLocalSingapore@@UAEKXZ
_TEXT	SEGMENT
?GetResourceIDTitleBmp@ioLocalSingapore@@UAEKXZ PROC	; ioLocalSingapore::GetResourceIDTitleBmp, COMDAT
; _this$ = ecx

; 101  : 	return IDB_WINDOW_TITLE_LOSA;

  00000	6a 77		 push	 119			; 00000077H
  00002	58		 pop	 eax

; 102  : }

  00003	c3		 ret	 0
?GetResourceIDTitleBmp@ioLocalSingapore@@UAEKXZ ENDP	; ioLocalSingapore::GetResourceIDTitleBmp
_TEXT	ENDS
EXTRN	__imp_??4ioHashString@@QAEAAV0@ABV0@@Z:PROC
; Function compile flags: /Ogsp
;	COMDAT ?SetLoginData@ioLocalSingapore@@UAEXABVioHashString@@@Z
_TEXT	SEGMENT
_szBillingUserKey$ = 8					; size = 4
?SetLoginData@ioLocalSingapore@@UAEXABVioHashString@@@Z PROC ; ioLocalSingapore::SetLoginData, COMDAT
; _this$ = ecx

; 105  : {

  00000	55		 push	 ebp
  00001	8b ec		 mov	 ebp, esp

; 106  : 	m_sLoginEncodePW = szBillingUserKey;

  00003	83 c1 70	 add	 ecx, 112		; 00000070H

; 107  : }

  00006	5d		 pop	 ebp

; 106  : 	m_sLoginEncodePW = szBillingUserKey;

  00007	ff 25 00 00 00
	00		 jmp	 DWORD PTR __imp_??4ioHashString@@QAEAAV0@ABV0@@Z
?SetLoginData@ioLocalSingapore@@UAEXABVioHashString@@@Z ENDP ; ioLocalSingapore::SetLoginData
; Function compile flags: /Ogsp
_TEXT	ENDS
;	COMDAT ?SetWarnetInfo@ioLocalSingapore@@UAEXABVioHashString@@K@Z
_TEXT	SEGMENT
_szAuthInfo$ = 8					; size = 4
_dwSessionID$ = 12					; size = 4
?SetWarnetInfo@ioLocalSingapore@@UAEXABVioHashString@@K@Z PROC ; ioLocalSingapore::SetWarnetInfo, COMDAT
; _this$ = ecx

; 110  : {

  00000	55		 push	 ebp
  00001	8b ec		 mov	 ebp, esp
  00003	56		 push	 esi

; 111  : 	m_sAuthPC = szAuthInfo;

  00004	ff 75 08	 push	 DWORD PTR _szAuthInfo$[ebp]
  00007	8b f1		 mov	 esi, ecx
  00009	8d 8e 80 00 00
	00		 lea	 ecx, DWORD PTR [esi+128]
  0000f	ff 15 00 00 00
	00		 call	 DWORD PTR __imp_??4ioHashString@@QAEAAV0@ABV0@@Z

; 112  : 	m_dwSessionID = dwSessionID;

  00015	8b 45 0c	 mov	 eax, DWORD PTR _dwSessionID$[ebp]
  00018	89 86 90 00 00
	00		 mov	 DWORD PTR [esi+144], eax
  0001e	5e		 pop	 esi

; 113  : }

  0001f	5d		 pop	 ebp
  00020	c2 08 00	 ret	 8
?SetWarnetInfo@ioLocalSingapore@@UAEXABVioHashString@@K@Z ENDP ; ioLocalSingapore::SetWarnetInfo
; Function compile flags: /Ogsp
_TEXT	ENDS
;	COMDAT ?GetClassTypeForTutorialDropItem@ioLocalSingapore@@UAEXAAH@Z
_TEXT	SEGMENT
_riClassType$ = 8					; size = 4
?GetClassTypeForTutorialDropItem@ioLocalSingapore@@UAEXAAH@Z PROC ; ioLocalSingapore::GetClassTypeForTutorialDropItem, COMDAT
; _this$ = ecx

; 135  : 
; 136  : }

  00000	c2 04 00	 ret	 4
?GetClassTypeForTutorialDropItem@ioLocalSingapore@@UAEXAAH@Z ENDP ; ioLocalSingapore::GetClassTypeForTutorialDropItem
; Function compile flags: /Ogsp
_TEXT	ENDS
;	COMDAT ?GetFirstIDMaxSize@ioLocalSingapore@@UAEHXZ
_TEXT	SEGMENT
?GetFirstIDMaxSize@ioLocalSingapore@@UAEHXZ PROC	; ioLocalSingapore::GetFirstIDMaxSize, COMDAT
; _this$ = ecx

; 140  : 	return 12;

  00000	6a 0c		 push	 12			; 0000000cH
  00002	58		 pop	 eax

; 141  : }

  00003	c3		 ret	 0
?GetFirstIDMaxSize@ioLocalSingapore@@UAEHXZ ENDP	; ioLocalSingapore::GetFirstIDMaxSize
; Function compile flags: /Ogsp
_TEXT	ENDS
;	COMDAT ?IsShowFirstIDWnd@ioLocalSingapore@@UAE_NXZ
_TEXT	SEGMENT
?IsShowFirstIDWnd@ioLocalSingapore@@UAE_NXZ PROC	; ioLocalSingapore::IsShowFirstIDWnd, COMDAT
; _this$ = ecx

; 145  : 	return true;

  00000	b0 01		 mov	 al, 1

; 146  : }

  00002	c3		 ret	 0
?IsShowFirstIDWnd@ioLocalSingapore@@UAE_NXZ ENDP	; ioLocalSingapore::IsShowFirstIDWnd
_TEXT	ENDS
EXTRN	?OpenCashEntryPage@ioApplication@@QAEXXZ:PROC	; ioApplication::OpenCashEntryPage
EXTRN	?OpenFillCashPage@ioApplication@@QAEXXZ:PROC	; ioApplication::OpenFillCashPage
EXTRN	?GetSingleton@ioApplication@@SAAAV1@XZ:PROC	; ioApplication::GetSingleton
EXTRN	?IsEntryFormality@ioMyInfo@@QBE_NXZ:PROC	; ioMyInfo::IsEntryFormality
EXTRN	?GetSingleton@ioMyInfo@@SAAAV1@XZ:PROC		; ioMyInfo::GetSingleton
; Function compile flags: /Ogsp
;	COMDAT ?OpenFillCashPage@ioLocalSingapore@@UAEXXZ
_TEXT	SEGMENT
?OpenFillCashPage@ioLocalSingapore@@UAEXXZ PROC		; ioLocalSingapore::OpenFillCashPage, COMDAT
; _this$ = ecx

; 150  : 	if( g_MyInfo.IsEntryFormality() )

  00000	e8 00 00 00 00	 call	 ?GetSingleton@ioMyInfo@@SAAAV1@XZ ; ioMyInfo::GetSingleton
  00005	8b c8		 mov	 ecx, eax
  00007	e8 00 00 00 00	 call	 ?IsEntryFormality@ioMyInfo@@QBE_NXZ ; ioMyInfo::IsEntryFormality
  0000c	84 c0		 test	 al, al
  0000e	74 0c		 je	 SHORT $LN2@OpenFillCa

; 151  : 		g_App.OpenFillCashPage();

  00010	e8 00 00 00 00	 call	 ?GetSingleton@ioApplication@@SAAAV1@XZ ; ioApplication::GetSingleton
  00015	8b c8		 mov	 ecx, eax
  00017	e9 00 00 00 00	 jmp	 ?OpenFillCashPage@ioApplication@@QAEXXZ ; ioApplication::OpenFillCashPage
$LN2@OpenFillCa:

; 152  : 	else
; 153  : 		g_App.OpenCashEntryPage();

  0001c	e8 00 00 00 00	 call	 ?GetSingleton@ioApplication@@SAAAV1@XZ ; ioApplication::GetSingleton
  00021	8b c8		 mov	 ecx, eax
  00023	e9 00 00 00 00	 jmp	 ?OpenCashEntryPage@ioApplication@@QAEXXZ ; ioApplication::OpenCashEntryPage
?OpenFillCashPage@ioLocalSingapore@@UAEXXZ ENDP		; ioLocalSingapore::OpenFillCashPage
_TEXT	ENDS
PUBLIC	??_C@_06PKACINHD@Leader?$AA@			; `string'
;	COMDAT ??_C@_06PKACINHD@Leader?$AA@
CONST	SEGMENT
??_C@_06PKACINHD@Leader?$AA@ DB 'Leader', 00H		; `string'
; Function compile flags: /Ogsp
CONST	ENDS
;	COMDAT ?GetGuildMasterPostion@ioLocalSingapore@@UAEPBDXZ
_TEXT	SEGMENT
?GetGuildMasterPostion@ioLocalSingapore@@UAEPBDXZ PROC	; ioLocalSingapore::GetGuildMasterPostion, COMDAT
; _this$ = ecx

; 158  : 	return "Leader"; //Except Extracting Hangeul

  00000	b8 00 00 00 00	 mov	 eax, OFFSET ??_C@_06PKACINHD@Leader?$AA@

; 159  : }

  00005	c3		 ret	 0
?GetGuildMasterPostion@ioLocalSingapore@@UAEPBDXZ ENDP	; ioLocalSingapore::GetGuildMasterPostion
_TEXT	ENDS
PUBLIC	??_C@_07LCAPDKCB@Officer?$AA@			; `string'
;	COMDAT ??_C@_07LCAPDKCB@Officer?$AA@
CONST	SEGMENT
??_C@_07LCAPDKCB@Officer?$AA@ DB 'Officer', 00H		; `string'
; Function compile flags: /Ogsp
CONST	ENDS
;	COMDAT ?GetGuildSecondMasterPosition@ioLocalSingapore@@UAEPBDXZ
_TEXT	SEGMENT
?GetGuildSecondMasterPosition@ioLocalSingapore@@UAEPBDXZ PROC ; ioLocalSingapore::GetGuildSecondMasterPosition, COMDAT
; _this$ = ecx

; 163  : 	return "Officer"; //Except Extracting Hangeul

  00000	b8 00 00 00 00	 mov	 eax, OFFSET ??_C@_07LCAPDKCB@Officer?$AA@

; 164  : }

  00005	c3		 ret	 0
?GetGuildSecondMasterPosition@ioLocalSingapore@@UAEPBDXZ ENDP ; ioLocalSingapore::GetGuildSecondMasterPosition
_TEXT	ENDS
PUBLIC	??_C@_06LMOODEBK@Member?$AA@			; `string'
;	COMDAT ??_C@_06LMOODEBK@Member?$AA@
CONST	SEGMENT
??_C@_06LMOODEBK@Member?$AA@ DB 'Member', 00H		; `string'
; Function compile flags: /Ogsp
CONST	ENDS
;	COMDAT ?GetGuildGeneralPosition@ioLocalSingapore@@UAEPBDXZ
_TEXT	SEGMENT
?GetGuildGeneralPosition@ioLocalSingapore@@UAEPBDXZ PROC ; ioLocalSingapore::GetGuildGeneralPosition, COMDAT
; _this$ = ecx

; 168  : 	return "Member"; //Except Extracting Hangeul

  00000	b8 00 00 00 00	 mov	 eax, OFFSET ??_C@_06LMOODEBK@Member?$AA@

; 169  : }

  00005	c3		 ret	 0
?GetGuildGeneralPosition@ioLocalSingapore@@UAEPBDXZ ENDP ; ioLocalSingapore::GetGuildGeneralPosition
_TEXT	ENDS
PUBLIC	??_C@_05JDLPMPEA@Admin?$AA@			; `string'
;	COMDAT ??_C@_05JDLPMPEA@Admin?$AA@
CONST	SEGMENT
??_C@_05JDLPMPEA@Admin?$AA@ DB 'Admin', 00H		; `string'
; Function compile flags: /Ogsp
CONST	ENDS
;	COMDAT ?GetGuildAdminPosition@ioLocalSingapore@@UAEPBDXZ
_TEXT	SEGMENT
?GetGuildAdminPosition@ioLocalSingapore@@UAEPBDXZ PROC	; ioLocalSingapore::GetGuildAdminPosition, COMDAT
; _this$ = ecx

; 173  : 	return "Admin"; //Except Extracting Hangeul

  00000	b8 00 00 00 00	 mov	 eax, OFFSET ??_C@_05JDLPMPEA@Admin?$AA@

; 174  : }

  00005	c3		 ret	 0
?GetGuildAdminPosition@ioLocalSingapore@@UAEPBDXZ ENDP	; ioLocalSingapore::GetGuildAdminPosition
; Function compile flags: /Ogsp
_TEXT	ENDS
;	COMDAT ?IsRightNewID@ioLocalSingapore@@UAE_NPBD@Z
_TEXT	SEGMENT
_szID$ = 8						; size = 4
?IsRightNewID@ioLocalSingapore@@UAE_NPBD@Z PROC		; ioLocalSingapore::IsRightNewID, COMDAT
; _this$ = ecx

; 177  : {

  00000	55		 push	 ebp
  00001	8b ec		 mov	 ebp, esp
  00003	56		 push	 esi

; 178  : 	int size = strlen(szID);

  00004	8b 75 08	 mov	 esi, DWORD PTR _szID$[ebp]
  00007	8b c6		 mov	 eax, esi
  00009	8d 50 01	 lea	 edx, DWORD PTR [eax+1]
$LL13@IsRightNew:
  0000c	8a 08		 mov	 cl, BYTE PTR [eax]
  0000e	40		 inc	 eax
  0000f	84 c9		 test	 cl, cl
  00011	75 f9		 jne	 SHORT $LL13@IsRightNew
  00013	2b c2		 sub	 eax, edx

; 179  : 	for (int i=0; i<size; i++)

  00015	33 d2		 xor	 edx, edx
  00017	85 c0		 test	 eax, eax
  00019	7e 26		 jle	 SHORT $LN5@IsRightNew
$LL7@IsRightNew:

; 180  : 	{
; 181  : 		if ((!COMPARE(szID[i], 'A', 'Z'+1)) &&
; 182  : 			(!COMPARE(szID[i], 'a', 'z'+1)) &&
; 183  : 			(!COMPARE(szID[i], '0', '9'+1)) )

  0001b	8a 0c 32	 mov	 cl, BYTE PTR [edx+esi]
  0001e	80 f9 41	 cmp	 cl, 65			; 00000041H
  00021	7c 05		 jl	 SHORT $LN3@IsRightNew
  00023	80 f9 5b	 cmp	 cl, 91			; 0000005bH
  00026	7c 14		 jl	 SHORT $LN6@IsRightNew
$LN3@IsRightNew:
  00028	80 f9 61	 cmp	 cl, 97			; 00000061H
  0002b	7c 05		 jl	 SHORT $LN2@IsRightNew
  0002d	80 f9 7b	 cmp	 cl, 123			; 0000007bH
  00030	7c 0a		 jl	 SHORT $LN6@IsRightNew
$LN2@IsRightNew:
  00032	80 f9 30	 cmp	 cl, 48			; 00000030H
  00035	7c 11		 jl	 SHORT $LN11@IsRightNew
  00037	80 f9 3a	 cmp	 cl, 58			; 0000003aH
  0003a	7d 0c		 jge	 SHORT $LN11@IsRightNew
$LN6@IsRightNew:

; 179  : 	for (int i=0; i<size; i++)

  0003c	42		 inc	 edx
  0003d	3b d0		 cmp	 edx, eax
  0003f	7c da		 jl	 SHORT $LL7@IsRightNew
$LN5@IsRightNew:

; 186  : 		}
; 187  : 	}
; 188  : 	return true;

  00041	b0 01		 mov	 al, 1
$LN8@IsRightNew:
  00043	5e		 pop	 esi

; 189  : }

  00044	5d		 pop	 ebp
  00045	c2 04 00	 ret	 4
$LN11@IsRightNew:

; 184  : 		{
; 185  : 			return false;

  00048	32 c0		 xor	 al, al
  0004a	eb f7		 jmp	 SHORT $LN8@IsRightNew
?IsRightNewID@ioLocalSingapore@@UAE_NPBD@Z ENDP		; ioLocalSingapore::IsRightNewID
; Function compile flags: /Ogsp
_TEXT	ENDS
;	COMDAT ?IsSendGashaponList@ioLocalSingapore@@UAE_NXZ
_TEXT	SEGMENT
?IsSendGashaponList@ioLocalSingapore@@UAE_NXZ PROC	; ioLocalSingapore::IsSendGashaponList, COMDAT
; _this$ = ecx

; 193  : 	return true;

  00000	b0 01		 mov	 al, 1

; 194  : }

  00002	c3		 ret	 0
?IsSendGashaponList@ioLocalSingapore@@UAE_NXZ ENDP	; ioLocalSingapore::IsSendGashaponList
_TEXT	ENDS
EXTRN	__imp__strlwr:PROC
; Function compile flags: /Ogsp
;	COMDAT ?GetChangedString@ioLocalSingapore@@UAEXPAD@Z
_TEXT	SEGMENT
_szCheckString$ = 8					; size = 4
?GetChangedString@ioLocalSingapore@@UAEXPAD@Z PROC	; ioLocalSingapore::GetChangedString, COMDAT
; _this$ = ecx

; 197  : {

  00000	55		 push	 ebp
  00001	8b ec		 mov	 ebp, esp

; 198  : 		strlwr( szCheckString );

  00003	ff 75 08	 push	 DWORD PTR _szCheckString$[ebp]
  00006	ff 15 00 00 00
	00		 call	 DWORD PTR __imp__strlwr
  0000c	59		 pop	 ecx

; 199  : }

  0000d	5d		 pop	 ebp
  0000e	c2 04 00	 ret	 4
?GetChangedString@ioLocalSingapore@@UAEXPAD@Z ENDP	; ioLocalSingapore::GetChangedString
; Function compile flags: /Ogsp
_TEXT	ENDS
;	COMDAT ?IsExecuteLuncher@ioLocalSingapore@@UAE_NXZ
_TEXT	SEGMENT
?IsExecuteLuncher@ioLocalSingapore@@UAE_NXZ PROC	; ioLocalSingapore::IsExecuteLuncher, COMDAT
; _this$ = ecx

; 203  : 	return false;

  00000	32 c0		 xor	 al, al

; 204  : }

  00002	c3		 ret	 0
?IsExecuteLuncher@ioLocalSingapore@@UAE_NXZ ENDP	; ioLocalSingapore::IsExecuteLuncher
; Function compile flags: /Ogsp
_TEXT	ENDS
;	COMDAT ?IsKoreaGameLimit@ioLocalSingapore@@UAE_NXZ
_TEXT	SEGMENT
?IsKoreaGameLimit@ioLocalSingapore@@UAE_NXZ PROC	; ioLocalSingapore::IsKoreaGameLimit, COMDAT
; _this$ = ecx

; 208  : 	return false;

  00000	32 c0		 xor	 al, al

; 209  : }

  00002	c3		 ret	 0
?IsKoreaGameLimit@ioLocalSingapore@@UAE_NXZ ENDP	; ioLocalSingapore::IsKoreaGameLimit
; Function compile flags: /Ogsp
_TEXT	ENDS
;	COMDAT ?IsCheckKorean@ioLocalSingapore@@UAE_NXZ
_TEXT	SEGMENT
?IsCheckKorean@ioLocalSingapore@@UAE_NXZ PROC		; ioLocalSingapore::IsCheckKorean, COMDAT
; _this$ = ecx

; 213  : 	return false;

  00000	32 c0		 xor	 al, al

; 214  : }

  00002	c3		 ret	 0
?IsCheckKorean@ioLocalSingapore@@UAE_NXZ ENDP		; ioLocalSingapore::IsCheckKorean
; Function compile flags: /Ogsp
_TEXT	ENDS
;	COMDAT ?IsMyHomePage@ioLocalSingapore@@UAE_NXZ
_TEXT	SEGMENT
?IsMyHomePage@ioLocalSingapore@@UAE_NXZ PROC		; ioLocalSingapore::IsMyHomePage, COMDAT
; _this$ = ecx

; 218  : 	return false;

  00000	32 c0		 xor	 al, al

; 219  : }

  00002	c3		 ret	 0
?IsMyHomePage@ioLocalSingapore@@UAE_NXZ ENDP		; ioLocalSingapore::IsMyHomePage
; Function compile flags: /Ogsp
_TEXT	ENDS
;	COMDAT ?IsShowExtraGoodsList@ioLocalSingapore@@UAE_NXZ
_TEXT	SEGMENT
?IsShowExtraGoodsList@ioLocalSingapore@@UAE_NXZ PROC	; ioLocalSingapore::IsShowExtraGoodsList, COMDAT
; _this$ = ecx

; 223  : 	return false;

  00000	32 c0		 xor	 al, al

; 224  : }

  00002	c3		 ret	 0
?IsShowExtraGoodsList@ioLocalSingapore@@UAE_NXZ ENDP	; ioLocalSingapore::IsShowExtraGoodsList
; Function compile flags: /Ogsp
_TEXT	ENDS
;	COMDAT ?IsShowRegulation@ioLocalSingapore@@UAE_NXZ
_TEXT	SEGMENT
?IsShowRegulation@ioLocalSingapore@@UAE_NXZ PROC	; ioLocalSingapore::IsShowRegulation, COMDAT
; _this$ = ecx

; 228  : 	return false;

  00000	32 c0		 xor	 al, al

; 229  : }

  00002	c3		 ret	 0
?IsShowRegulation@ioLocalSingapore@@UAE_NXZ ENDP	; ioLocalSingapore::IsShowRegulation
; Function compile flags: /Ogsp
_TEXT	ENDS
;	COMDAT ?GetResourceIDErrorBack@ioLocalSingapore@@UAEKXZ
_TEXT	SEGMENT
?GetResourceIDErrorBack@ioLocalSingapore@@UAEKXZ PROC	; ioLocalSingapore::GetResourceIDErrorBack, COMDAT
; _this$ = ecx

; 233  : 	return IDB_BACK_ERROR_ID;

  00000	b8 9e 00 00 00	 mov	 eax, 158		; 0000009eH

; 234  : }

  00005	c3		 ret	 0
?GetResourceIDErrorBack@ioLocalSingapore@@UAEKXZ ENDP	; ioLocalSingapore::GetResourceIDErrorBack
; Function compile flags: /Ogsp
_TEXT	ENDS
;	COMDAT ?GetResourceIDErrorExitC@ioLocalSingapore@@UAEKXZ
_TEXT	SEGMENT
?GetResourceIDErrorExitC@ioLocalSingapore@@UAEKXZ PROC	; ioLocalSingapore::GetResourceIDErrorExitC, COMDAT
; _this$ = ecx

; 238  : 	return IDB_EXIT_C_ID;

  00000	b8 9f 00 00 00	 mov	 eax, 159		; 0000009fH

; 239  : }

  00005	c3		 ret	 0
?GetResourceIDErrorExitC@ioLocalSingapore@@UAEKXZ ENDP	; ioLocalSingapore::GetResourceIDErrorExitC
; Function compile flags: /Ogsp
_TEXT	ENDS
;	COMDAT ?GetResourceIDErrorExitN@ioLocalSingapore@@UAEKXZ
_TEXT	SEGMENT
?GetResourceIDErrorExitN@ioLocalSingapore@@UAEKXZ PROC	; ioLocalSingapore::GetResourceIDErrorExitN, COMDAT
; _this$ = ecx

; 243  : 	return IDB_EXIT_N_ID;

  00000	b8 a0 00 00 00	 mov	 eax, 160		; 000000a0H

; 244  : }

  00005	c3		 ret	 0
?GetResourceIDErrorExitN@ioLocalSingapore@@UAEKXZ ENDP	; ioLocalSingapore::GetResourceIDErrorExitN
; Function compile flags: /Ogsp
_TEXT	ENDS
;	COMDAT ?GetResourceIDErrorExitO@ioLocalSingapore@@UAEKXZ
_TEXT	SEGMENT
?GetResourceIDErrorExitO@ioLocalSingapore@@UAEKXZ PROC	; ioLocalSingapore::GetResourceIDErrorExitO, COMDAT
; _this$ = ecx

; 248  : 	return IDB_EXIT_O_ID;

  00000	b8 a1 00 00 00	 mov	 eax, 161		; 000000a1H

; 249  : }

  00005	c3		 ret	 0
?GetResourceIDErrorExitO@ioLocalSingapore@@UAEKXZ ENDP	; ioLocalSingapore::GetResourceIDErrorExitO
; Function compile flags: /Ogsp
_TEXT	ENDS
;	COMDAT ?GetResourceIDErrorSolutionC@ioLocalSingapore@@UAEKXZ
_TEXT	SEGMENT
?GetResourceIDErrorSolutionC@ioLocalSingapore@@UAEKXZ PROC ; ioLocalSingapore::GetResourceIDErrorSolutionC, COMDAT
; _this$ = ecx

; 253  : 	return IDB_SOLUTION_C_ID;

  00000	b8 a2 00 00 00	 mov	 eax, 162		; 000000a2H

; 254  : }

  00005	c3		 ret	 0
?GetResourceIDErrorSolutionC@ioLocalSingapore@@UAEKXZ ENDP ; ioLocalSingapore::GetResourceIDErrorSolutionC
; Function compile flags: /Ogsp
_TEXT	ENDS
;	COMDAT ?GetResourceIDErrorSolutionN@ioLocalSingapore@@UAEKXZ
_TEXT	SEGMENT
?GetResourceIDErrorSolutionN@ioLocalSingapore@@UAEKXZ PROC ; ioLocalSingapore::GetResourceIDErrorSolutionN, COMDAT
; _this$ = ecx

; 258  : 	return IDB_SOLUTION_N_ID;

  00000	b8 a3 00 00 00	 mov	 eax, 163		; 000000a3H

; 259  : }

  00005	c3		 ret	 0
?GetResourceIDErrorSolutionN@ioLocalSingapore@@UAEKXZ ENDP ; ioLocalSingapore::GetResourceIDErrorSolutionN
; Function compile flags: /Ogsp
_TEXT	ENDS
;	COMDAT ?GetResourceIDErrorSolutionO@ioLocalSingapore@@UAEKXZ
_TEXT	SEGMENT
?GetResourceIDErrorSolutionO@ioLocalSingapore@@UAEKXZ PROC ; ioLocalSingapore::GetResourceIDErrorSolutionO, COMDAT
; _this$ = ecx

; 263  : 	return IDB_SOLUTION_O_ID;

  00000	b8 a4 00 00 00	 mov	 eax, 164		; 000000a4H

; 264  : }

  00005	c3		 ret	 0
?GetResourceIDErrorSolutionO@ioLocalSingapore@@UAEKXZ ENDP ; ioLocalSingapore::GetResourceIDErrorSolutionO
_TEXT	ENDS
PUBLIC	??_C@_0CJ@IEKBPLGB@http?3?1?1forum?4gemscool?4com?1forum?9@ ; `string'
;	COMDAT ??_C@_0CJ@IEKBPLGB@http?3?1?1forum?4gemscool?4com?1forum?9@
CONST	SEGMENT
??_C@_0CJ@IEKBPLGB@http?3?1?1forum?4gemscool?4com?1forum?9@ DB 'http://fo'
	DB	'rum.gemscool.com/forum-143.html', 00H	; `string'
; Function compile flags: /Ogsp
CONST	ENDS
;	COMDAT ?GetErrorSolutionURL@ioLocalSingapore@@UAEPBDXZ
_TEXT	SEGMENT
?GetErrorSolutionURL@ioLocalSingapore@@UAEPBDXZ PROC	; ioLocalSingapore::GetErrorSolutionURL, COMDAT
; _this$ = ecx

; 268  : 	return "http://forum.gemscool.com/forum-143.html";

  00000	b8 00 00 00 00	 mov	 eax, OFFSET ??_C@_0CJ@IEKBPLGB@http?3?1?1forum?4gemscool?4com?1forum?9@

; 269  : }

  00005	c3		 ret	 0
?GetErrorSolutionURL@ioLocalSingapore@@UAEPBDXZ ENDP	; ioLocalSingapore::GetErrorSolutionURL
; Function compile flags: /Ogsp
_TEXT	ENDS
;	COMDAT ?SetPresentRecvDisableMsg@ioLocalSingapore@@UAE_NH@Z
_TEXT	SEGMENT
_iPresentType$ = 8					; size = 4
?SetPresentRecvDisableMsg@ioLocalSingapore@@UAE_NH@Z PROC ; ioLocalSingapore::SetPresentRecvDisableMsg, COMDAT
; _this$ = ecx

; 273  : 	return false;

  00000	32 c0		 xor	 al, al

; 274  : }

  00002	c2 04 00	 ret	 4
?SetPresentRecvDisableMsg@ioLocalSingapore@@UAE_NH@Z ENDP ; ioLocalSingapore::SetPresentRecvDisableMsg
; Function compile flags: /Ogsp
_TEXT	ENDS
;	COMDAT ?GetLimitGradeLevel@ioLocalSingapore@@UAEHXZ
_TEXT	SEGMENT
?GetLimitGradeLevel@ioLocalSingapore@@UAEHXZ PROC	; ioLocalSingapore::GetLimitGradeLevel, COMDAT
; _this$ = ecx

; 278  : 	return -1;

  00000	83 c8 ff	 or	 eax, -1

; 279  : }

  00003	c3		 ret	 0
?GetLimitGradeLevel@ioLocalSingapore@@UAEHXZ ENDP	; ioLocalSingapore::GetLimitGradeLevel
_TEXT	ENDS
PUBLIC	??_C@_0BB@ODHJJBLN@Billing?5Error?5?3?5?$AA@	; `string'
;	COMDAT ??_C@_0BB@ODHJJBLN@Billing?5Error?5?3?5?$AA@
CONST	SEGMENT
??_C@_0BB@ODHJJBLN@Billing?5Error?5?3?5?$AA@ DB 'Billing Error : ', 00H ; `string'
; Function compile flags: /Ogsp
CONST	ENDS
;	COMDAT ?GetBillingErrorMent@ioLocalSingapore@@UAEPBDAAVioHashString@@@Z
_TEXT	SEGMENT
_sServerError$ = 8					; size = 4
?GetBillingErrorMent@ioLocalSingapore@@UAEPBDAAVioHashString@@@Z PROC ; ioLocalSingapore::GetBillingErrorMent, COMDAT
; _this$ = ecx

; 283  : 	return "Billing Error : ";

  00000	b8 00 00 00 00	 mov	 eax, OFFSET ??_C@_0BB@ODHJJBLN@Billing?5Error?5?3?5?$AA@

; 284  : }

  00005	c2 04 00	 ret	 4
?GetBillingErrorMent@ioLocalSingapore@@UAEPBDAAVioHashString@@@Z ENDP ; ioLocalSingapore::GetBillingErrorMent
; Function compile flags: /Ogsp
_TEXT	ENDS
;	COMDAT ?GetLicenseDate@ioLocalSingapore@@UAEHXZ
_TEXT	SEGMENT
?GetLicenseDate@ioLocalSingapore@@UAEHXZ PROC		; ioLocalSingapore::GetLicenseDate, COMDAT
; _this$ = ecx

; 288  : 	return 20161206;

  00000	b8 b6 a2 33 01	 mov	 eax, 20161206		; 0133a2b6H

; 289  : }

  00005	c3		 ret	 0
?GetLicenseDate@ioLocalSingapore@@UAEHXZ ENDP		; ioLocalSingapore::GetLicenseDate
; Function compile flags: /Ogsp
_TEXT	ENDS
;	COMDAT ?GetCashPageWidth@ioLocalSingapore@@UAEHXZ
_TEXT	SEGMENT
?GetCashPageWidth@ioLocalSingapore@@UAEHXZ PROC		; ioLocalSingapore::GetCashPageWidth, COMDAT
; _this$ = ecx

; 293  : 	return 356;

  00000	b8 64 01 00 00	 mov	 eax, 356		; 00000164H

; 294  : }

  00005	c3		 ret	 0
?GetCashPageWidth@ioLocalSingapore@@UAEHXZ ENDP		; ioLocalSingapore::GetCashPageWidth
; Function compile flags: /Ogsp
_TEXT	ENDS
;	COMDAT ?GetCashPageHeight@ioLocalSingapore@@UAEHXZ
_TEXT	SEGMENT
?GetCashPageHeight@ioLocalSingapore@@UAEHXZ PROC	; ioLocalSingapore::GetCashPageHeight, COMDAT
; _this$ = ecx

; 298  : 	return 459;

  00000	b8 cb 01 00 00	 mov	 eax, 459		; 000001cbH

; 299  : }

  00005	c3		 ret	 0
?GetCashPageHeight@ioLocalSingapore@@UAEHXZ ENDP	; ioLocalSingapore::GetCashPageHeight
_TEXT	ENDS
PUBLIC	__$ArrayPad$
EXTRN	??1SP2Packet@@UAE@XZ:PROC			; SP2Packet::~SP2Packet
EXTRN	?MouseBusy@TCPNetwork@@YAX_N@Z:PROC		; TCPNetwork::MouseBusy
EXTRN	?SendToServer@TCPNetwork@@YAXAAVSP2Packet@@@Z:PROC ; TCPNetwork::SendToServer
EXTRN	??0SP2Packet@@QAE@K@Z:PROC			; SP2Packet::SP2Packet
EXTRN	___security_cookie:DWORD
EXTRN	__chkstk:PROC
;	COMDAT xdata$x
xdata$x	SEGMENT
__unwindtable$?OnCashPageHide@ioLocalSingapore@@UAEXXZ DD 0ffffffffH
	DD	FLAT:__unwindfunclet$?OnCashPageHide@ioLocalSingapore@@UAEXXZ$0
__ehfuncinfo$?OnCashPageHide@ioLocalSingapore@@UAEXXZ DD 019930522H
	DD	01H
	DD	FLAT:__unwindtable$?OnCashPageHide@ioLocalSingapore@@UAEXXZ
	DD	2 DUP(00H)
	DD	2 DUP(00H)
	DD	00H
	DD	01H
; Function compile flags: /Ogsp
xdata$x	ENDS
;	COMDAT ?OnCashPageHide@ioLocalSingapore@@UAEXXZ
_TEXT	SEGMENT
_kPacket$ = -32808					; size = 32792
__$ArrayPad$ = -16					; size = 4
__$EHRec$ = -12						; size = 12
?OnCashPageHide@ioLocalSingapore@@UAEXXZ PROC		; ioLocalSingapore::OnCashPageHide, COMDAT
; _this$ = ecx

; 302  : {

  00000	55		 push	 ebp
  00001	8b ec		 mov	 ebp, esp
  00003	6a ff		 push	 -1
  00005	68 00 00 00 00	 push	 __ehhandler$?OnCashPageHide@ioLocalSingapore@@UAEXXZ
  0000a	64 a1 00 00 00
	00		 mov	 eax, DWORD PTR fs:0
  00010	50		 push	 eax
  00011	b8 1c 80 00 00	 mov	 eax, 32796		; 0000801cH
  00016	e8 00 00 00 00	 call	 __chkstk
  0001b	a1 00 00 00 00	 mov	 eax, DWORD PTR ___security_cookie
  00020	33 c5		 xor	 eax, ebp
  00022	89 45 f0	 mov	 DWORD PTR __$ArrayPad$[ebp], eax
  00025	50		 push	 eax
  00026	8d 45 f4	 lea	 eax, DWORD PTR __$EHRec$[ebp]
  00029	64 a3 00 00 00
	00		 mov	 DWORD PTR fs:0, eax

; 303  : 	SP2Packet kPacket( CTPK_GET_CASH );

  0002f	68 64 01 00 00	 push	 356			; 00000164H
  00034	8d 8d d8 7f ff
	ff		 lea	 ecx, DWORD PTR _kPacket$[ebp]
  0003a	e8 00 00 00 00	 call	 ??0SP2Packet@@QAE@K@Z	; SP2Packet::SP2Packet
  0003f	83 65 fc 00	 and	 DWORD PTR __$EHRec$[ebp+8], 0

; 304  : 	TCPNetwork::SendToServer( kPacket );

  00043	8d 85 d8 7f ff
	ff		 lea	 eax, DWORD PTR _kPacket$[ebp]
  00049	50		 push	 eax
  0004a	e8 00 00 00 00	 call	 ?SendToServer@TCPNetwork@@YAXAAVSP2Packet@@@Z ; TCPNetwork::SendToServer

; 305  : 	TCPNetwork::MouseBusy( true );

  0004f	6a 01		 push	 1
  00051	e8 00 00 00 00	 call	 ?MouseBusy@TCPNetwork@@YAX_N@Z ; TCPNetwork::MouseBusy

; 306  : }

  00056	83 4d fc ff	 or	 DWORD PTR __$EHRec$[ebp+8], -1
  0005a	59		 pop	 ecx
  0005b	59		 pop	 ecx
  0005c	8d 8d d8 7f ff
	ff		 lea	 ecx, DWORD PTR _kPacket$[ebp]
  00062	e8 00 00 00 00	 call	 ??1SP2Packet@@UAE@XZ	; SP2Packet::~SP2Packet
  00067	8b 4d f4	 mov	 ecx, DWORD PTR __$EHRec$[ebp]
  0006a	64 89 0d 00 00
	00 00		 mov	 DWORD PTR fs:0, ecx
  00071	59		 pop	 ecx
  00072	8b 4d f0	 mov	 ecx, DWORD PTR __$ArrayPad$[ebp]
  00075	33 cd		 xor	 ecx, ebp
  00077	e8 00 00 00 00	 call	 @__security_check_cookie@4
  0007c	c9		 leave
  0007d	c3		 ret	 0
_TEXT	ENDS
;	COMDAT text$x
text$x	SEGMENT
__unwindfunclet$?OnCashPageHide@ioLocalSingapore@@UAEXXZ$0:
  00000	8d 8d d8 7f ff
	ff		 lea	 ecx, DWORD PTR _kPacket$[ebp]
  00006	e9 00 00 00 00	 jmp	 ??1SP2Packet@@UAE@XZ	; SP2Packet::~SP2Packet
__ehhandler$?OnCashPageHide@ioLocalSingapore@@UAEXXZ:
  0000b	8b 54 24 08	 mov	 edx, DWORD PTR [esp+8]
  0000f	8d 42 0c	 lea	 eax, DWORD PTR [edx+12]
  00012	8b 8a e0 7f ff
	ff		 mov	 ecx, DWORD PTR [edx-32800]
  00018	33 c8		 xor	 ecx, eax
  0001a	e8 00 00 00 00	 call	 @__security_check_cookie@4
  0001f	8b 4a fc	 mov	 ecx, DWORD PTR [edx-4]
  00022	33 c8		 xor	 ecx, eax
  00024	e8 00 00 00 00	 call	 @__security_check_cookie@4
  00029	b8 00 00 00 00	 mov	 eax, OFFSET __ehfuncinfo$?OnCashPageHide@ioLocalSingapore@@UAEXXZ
  0002e	e9 00 00 00 00	 jmp	 ___CxxFrameHandler3
text$x	ENDS
?OnCashPageHide@ioLocalSingapore@@UAEXXZ ENDP		; ioLocalSingapore::OnCashPageHide
; Function compile flags: /Ogsp
;	COMDAT ?IsGatotkacaPremium@ioLocalSingapore@@UAE_NH@Z
_TEXT	SEGMENT
_iClassType$ = 8					; size = 4
?IsGatotkacaPremium@ioLocalSingapore@@UAE_NH@Z PROC	; ioLocalSingapore::IsGatotkacaPremium, COMDAT
; _this$ = ecx

; 309  : {

  00000	55		 push	 ebp
  00001	8b ec		 mov	 ebp, esp

; 310  : 	if( iClassType == 61 )

  00003	83 7d 08 3d	 cmp	 DWORD PTR _iClassType$[ebp], 61 ; 0000003dH
  00007	0f 94 c0	 sete	 al

; 311  : 		return true;
; 312  : 
; 313  : 	return false;
; 314  : }

  0000a	5d		 pop	 ebp
  0000b	c2 04 00	 ret	 4
?IsGatotkacaPremium@ioLocalSingapore@@UAE_NH@Z ENDP	; ioLocalSingapore::IsGatotkacaPremium
; Function compile flags: /Ogsp
_TEXT	ENDS
;	COMDAT ?IsPointBlankPremium@ioLocalSingapore@@UAE_NH@Z
_TEXT	SEGMENT
_iClassType$ = 8					; size = 4
?IsPointBlankPremium@ioLocalSingapore@@UAE_NH@Z PROC	; ioLocalSingapore::IsPointBlankPremium, COMDAT
; _this$ = ecx

; 317  : {

  00000	55		 push	 ebp
  00001	8b ec		 mov	 ebp, esp

; 318  : 	if( iClassType == 110 )

  00003	83 7d 08 6e	 cmp	 DWORD PTR _iClassType$[ebp], 110 ; 0000006eH
  00007	0f 94 c0	 sete	 al

; 319  : 		return true;
; 320  : 
; 321  : 	return false;
; 322  : }

  0000a	5d		 pop	 ebp
  0000b	c2 04 00	 ret	 4
?IsPointBlankPremium@ioLocalSingapore@@UAE_NH@Z ENDP	; ioLocalSingapore::IsPointBlankPremium
; Function compile flags: /Ogsp
_TEXT	ENDS
;	COMDAT ?ShowHackShieldErrorDlg@ioLocalSingapore@@UAEXABVioHashString@@@Z
_TEXT	SEGMENT
_rsPrivateID$ = 8					; size = 4
?ShowHackShieldErrorDlg@ioLocalSingapore@@UAEXABVioHashString@@@Z PROC ; ioLocalSingapore::ShowHackShieldErrorDlg, COMDAT
; _this$ = ecx

; 327  : #ifdef HACKSHIELD
; 328  : 	g_ioHackShield.ShowErrorDlg( rsPrivateID );
; 329  : #endif
; 330  : }

  00000	c2 04 00	 ret	 4
?ShowHackShieldErrorDlg@ioLocalSingapore@@UAEXABVioHashString@@@Z ENDP ; ioLocalSingapore::ShowHackShieldErrorDlg
; Function compile flags: /Ogsp
; File c:\program files (x86)\microsoft sdks\windows\v7.0a\include\strsafe.h
_TEXT	ENDS
;	COMDAT ?StringValidateDestA@@YGJPBDII@Z
_TEXT	SEGMENT
_cchMax$ = 8						; size = 4
?StringValidateDestA@@YGJPBDII@Z PROC			; StringValidateDestA, COMDAT
; _cchDest$ = ecx

; 8721 : {

  00000	55		 push	 ebp
  00001	8b ec		 mov	 ebp, esp

; 8722 :     HRESULT hr = S_OK;

  00003	33 c0		 xor	 eax, eax

; 8723 : 
; 8724 :     if ((cchDest == 0) || (cchDest > cchMax))

  00005	85 c9		 test	 ecx, ecx
  00007	74 05		 je	 SHORT $LN1@StringVali
  00009	3b 4d 08	 cmp	 ecx, DWORD PTR _cchMax$[ebp]
  0000c	76 05		 jbe	 SHORT $LN2@StringVali
$LN1@StringVali:

; 8725 :     {
; 8726 :         hr = STRSAFE_E_INVALID_PARAMETER;

  0000e	b8 57 00 07 80	 mov	 eax, -2147024809	; 80070057H
$LN2@StringVali:

; 8727 :     }
; 8728 : 
; 8729 :     return hr;
; 8730 : }

  00013	5d		 pop	 ebp
  00014	c2 04 00	 ret	 4
?StringValidateDestA@@YGJPBDII@Z ENDP			; StringValidateDestA
; Function compile flags: /Ogsp
_TEXT	ENDS
;	COMDAT ?StringCopyWorkerA@@YGJPADIPAIPBDI@Z
_TEXT	SEGMENT
_hr$ = -4						; size = 4
_pcchNewDestLength$ = 8					; size = 4
_pszSrc$ = 12						; size = 4
_cchToCopy$ = 16					; size = 4
?StringCopyWorkerA@@YGJPADIPAIPBDI@Z PROC		; StringCopyWorkerA, COMDAT
; _pszDest$ = ecx
; _cchDest$ = eax

; 8947 : {

  00000	55		 push	 ebp
  00001	8b ec		 mov	 ebp, esp
  00003	51		 push	 ecx

; 8948 :     HRESULT hr = S_OK;

  00004	83 65 fc 00	 and	 DWORD PTR _hr$[ebp], 0
  00008	57		 push	 edi
  00009	8b f8		 mov	 edi, eax

; 8949 :     size_t cchNewDestLength = 0;

  0000b	33 c0		 xor	 eax, eax

; 8950 :     
; 8951 :     // ASSERT(cchDest != 0);
; 8952 : 
; 8953 :     while (cchDest && cchToCopy && (*pszSrc != '\0'))

  0000d	85 ff		 test	 edi, edi
  0000f	74 23		 je	 SHORT $LN9@StringCopy

; 8948 :     HRESULT hr = S_OK;

  00011	53		 push	 ebx
  00012	8b 5d 10	 mov	 ebx, DWORD PTR _cchToCopy$[ebp]
  00015	56		 push	 esi

; 8950 :     
; 8951 :     // ASSERT(cchDest != 0);
; 8952 : 
; 8953 :     while (cchDest && cchToCopy && (*pszSrc != '\0'))

  00016	8b 75 0c	 mov	 esi, DWORD PTR _pszSrc$[ebp]
  00019	2b f1		 sub	 esi, ecx
$LL4@StringCopy:
  0001b	85 db		 test	 ebx, ebx
  0001d	74 0f		 je	 SHORT $LN11@StringCopy
  0001f	8a 14 0e	 mov	 dl, BYTE PTR [esi+ecx]
  00022	84 d2		 test	 dl, dl
  00024	74 08		 je	 SHORT $LN11@StringCopy

; 8954 :     {
; 8955 :         *pszDest++ = *pszSrc++;

  00026	88 11		 mov	 BYTE PTR [ecx], dl
  00028	41		 inc	 ecx

; 8956 :         cchDest--;

  00029	4b		 dec	 ebx

; 8957 :         cchToCopy--;
; 8958 : 
; 8959 :         cchNewDestLength++;

  0002a	40		 inc	 eax
  0002b	4f		 dec	 edi
  0002c	75 ed		 jne	 SHORT $LL4@StringCopy
$LN11@StringCopy:
  0002e	5e		 pop	 esi
  0002f	5b		 pop	 ebx

; 8960 :     }
; 8961 : 
; 8962 :     if (cchDest == 0)

  00030	85 ff		 test	 edi, edi
  00032	75 09		 jne	 SHORT $LN2@StringCopy
$LN9@StringCopy:

; 8963 :     {
; 8964 :         // we are going to truncate pszDest
; 8965 :         pszDest--;

  00034	49		 dec	 ecx

; 8966 :         cchNewDestLength--;

  00035	48		 dec	 eax

; 8967 : 
; 8968 :         hr = STRSAFE_E_INSUFFICIENT_BUFFER;

  00036	c7 45 fc 7a 00
	07 80		 mov	 DWORD PTR _hr$[ebp], -2147024774 ; 8007007aH
$LN2@StringCopy:

; 8969 :     }
; 8970 : 
; 8971 :     *pszDest = '\0';

  0003d	c6 01 00	 mov	 BYTE PTR [ecx], 0

; 8972 : 
; 8973 :     if (pcchNewDestLength)

  00040	8b 4d 08	 mov	 ecx, DWORD PTR _pcchNewDestLength$[ebp]
  00043	5f		 pop	 edi
  00044	85 c9		 test	 ecx, ecx
  00046	74 02		 je	 SHORT $LN1@StringCopy

; 8974 :     {
; 8975 :         *pcchNewDestLength = cchNewDestLength;

  00048	89 01		 mov	 DWORD PTR [ecx], eax
$LN1@StringCopy:

; 8976 :     }
; 8977 : 
; 8978 :     return hr;

  0004a	8b 45 fc	 mov	 eax, DWORD PTR _hr$[ebp]

; 8979 : }

  0004d	c9		 leave
  0004e	c2 0c 00	 ret	 12			; 0000000cH
?StringCopyWorkerA@@YGJPADIPAIPBDI@Z ENDP		; StringCopyWorkerA
_TEXT	ENDS
EXTRN	__imp___vsnprintf:PROC
; Function compile flags: /Ogsp
;	COMDAT ?StringVPrintfWorkerA@@YGJPADIPAIPBD0@Z
_TEXT	SEGMENT
_pcchNewDestLength$ = 8					; size = 4
_pszFormat$ = 12					; size = 4
_argList$ = 16						; size = 4
?StringVPrintfWorkerA@@YGJPADIPAIPBD0@Z PROC		; StringVPrintfWorkerA, COMDAT
; _pszDest$ = edi
; _cchDest$ = eax

; 9029 : {

  00000	55		 push	 ebp
  00001	8b ec		 mov	 ebp, esp
  00003	53		 push	 ebx
  00004	56		 push	 esi

; 9030 :     HRESULT hr = S_OK;
; 9031 :     int iRet;
; 9032 :     size_t cchMax;
; 9033 :     size_t cchNewDestLength = 0;
; 9034 : 
; 9035 :     // leave the last space for the null terminator
; 9036 :     cchMax = cchDest - 1;
; 9037 : 
; 9038 : #if (STRSAFE_USE_SECURE_CRT == 1) && !defined(STRSAFE_LIB_IMPL)
; 9039 :     iRet = _vsnprintf_s(pszDest, cchDest, cchMax, pszFormat, argList);
; 9040 : #else
; 9041 :     #pragma warning(push)
; 9042 :     #pragma warning(disable: __WARNING_BANNED_API_USAGE)// "STRSAFE not included"
; 9043 :     iRet = _vsnprintf(pszDest, cchMax, pszFormat, argList);

  00005	ff 75 10	 push	 DWORD PTR _argList$[ebp]
  00008	8d 70 ff	 lea	 esi, DWORD PTR [eax-1]
  0000b	ff 75 0c	 push	 DWORD PTR _pszFormat$[ebp]
  0000e	33 db		 xor	 ebx, ebx
  00010	56		 push	 esi
  00011	57		 push	 edi
  00012	ff 15 00 00 00
	00		 call	 DWORD PTR __imp___vsnprintf
  00018	83 c4 10	 add	 esp, 16			; 00000010H

; 9044 :     #pragma warning(pop)
; 9045 : #endif
; 9046 :     // ASSERT((iRet < 0) || (((size_t)iRet) <= cchMax));
; 9047 : 
; 9048 :     if ((iRet < 0) || (((size_t)iRet) > cchMax))

  0001b	85 c0		 test	 eax, eax
  0001d	78 0b		 js	 SHORT $LN5@StringVPri
  0001f	3b c6		 cmp	 eax, esi
  00021	77 07		 ja	 SHORT $LN5@StringVPri

; 9058 :     }
; 9059 :     else if (((size_t)iRet) == cchMax)

  00023	75 0f		 jne	 SHORT $LN2@StringVPri

; 9060 :     {
; 9061 :         // need to null terminate the string
; 9062 :         pszDest += cchMax;
; 9063 :         *pszDest = '\0';

  00025	88 1c 3e	 mov	 BYTE PTR [esi+edi], bl

; 9064 : 
; 9065 :         cchNewDestLength = cchMax;
; 9066 :     }
; 9067 :     else

  00028	eb 08		 jmp	 SHORT $LN9@StringVPri
$LN5@StringVPri:

; 9049 :     {
; 9050 :         // need to null terminate the string
; 9051 :         pszDest += cchMax;
; 9052 :         *pszDest = '\0';

  0002a	88 1c 3e	 mov	 BYTE PTR [esi+edi], bl

; 9055 : 
; 9056 :         // we have truncated pszDest
; 9057 :         hr = STRSAFE_E_INSUFFICIENT_BUFFER;

  0002d	bb 7a 00 07 80	 mov	 ebx, -2147024774	; 8007007aH
$LN9@StringVPri:

; 9053 : 
; 9054 :         cchNewDestLength = cchMax;

  00032	8b c6		 mov	 eax, esi
$LN2@StringVPri:

; 9068 :     {
; 9069 :         cchNewDestLength = (size_t)iRet;
; 9070 :     }
; 9071 : 
; 9072 :     if (pcchNewDestLength)

  00034	8b 4d 08	 mov	 ecx, DWORD PTR _pcchNewDestLength$[ebp]
  00037	85 c9		 test	 ecx, ecx
  00039	74 02		 je	 SHORT $LN1@StringVPri

; 9073 :     {
; 9074 :         *pcchNewDestLength = cchNewDestLength;

  0003b	89 01		 mov	 DWORD PTR [ecx], eax
$LN1@StringVPri:
  0003d	5e		 pop	 esi

; 9075 :     }
; 9076 : 
; 9077 :     return hr;

  0003e	8b c3		 mov	 eax, ebx
  00040	5b		 pop	 ebx

; 9078 : }

  00041	5d		 pop	 ebp
  00042	c2 0c 00	 ret	 12			; 0000000cH
?StringVPrintfWorkerA@@YGJPADIPAIPBD0@Z ENDP		; StringVPrintfWorkerA
; Function compile flags: /Ogsp
; File d:\lost saga for developer\youtube\tutorial\source\src\lsclient\local\iolocalparent.h
_TEXT	ENDS
;	COMDAT ?GetSubType@ioLocalParent@@UAEHXZ
_TEXT	SEGMENT
?GetSubType@ioLocalParent@@UAEHXZ PROC			; ioLocalParent::GetSubType, COMDAT
; _this$ = ecx

; 50   : 	virtual int GetSubType() {return m_nSubType;}

  00000	8b 41 44	 mov	 eax, DWORD PTR [ecx+68]
  00003	c3		 ret	 0
?GetSubType@ioLocalParent@@UAEHXZ ENDP			; ioLocalParent::GetSubType
; Function compile flags: /Ogsp
_TEXT	ENDS
;	COMDAT ?SetSubType@ioLocalParent@@UAEXH@Z
_TEXT	SEGMENT
_nSubType$ = 8						; size = 4
?SetSubType@ioLocalParent@@UAEXH@Z PROC			; ioLocalParent::SetSubType, COMDAT
; _this$ = ecx

; 51   : 	virtual void SetSubType(int nSubType) {m_nSubType = nSubType;}

  00000	55		 push	 ebp
  00001	8b ec		 mov	 ebp, esp
  00003	8b 45 08	 mov	 eax, DWORD PTR _nSubType$[ebp]
  00006	89 41 44	 mov	 DWORD PTR [ecx+68], eax
  00009	5d		 pop	 ebp
  0000a	c2 04 00	 ret	 4
?SetSubType@ioLocalParent@@UAEXH@Z ENDP			; ioLocalParent::SetSubType
; Function compile flags: /Ogsp
_TEXT	ENDS
;	COMDAT ?GetResourceIDTitleWebShop@ioLocalParent@@UAEKXZ
_TEXT	SEGMENT
?GetResourceIDTitleWebShop@ioLocalParent@@UAEKXZ PROC	; ioLocalParent::GetResourceIDTitleWebShop, COMDAT
; _this$ = ecx

; 60   : 	virtual DWORD GetResourceIDTitleWebShop() { return 0; };

  00000	33 c0		 xor	 eax, eax
  00002	c3		 ret	 0
?GetResourceIDTitleWebShop@ioLocalParent@@UAEKXZ ENDP	; ioLocalParent::GetResourceIDTitleWebShop
; Function compile flags: /Ogsp
_TEXT	ENDS
;	COMDAT ?IsFirstIDCheckPass@ioLocalParent@@UAE_NXZ
_TEXT	SEGMENT
?IsFirstIDCheckPass@ioLocalParent@@UAE_NXZ PROC		; ioLocalParent::IsFirstIDCheckPass, COMDAT
; _this$ = ecx

; 97   : 	virtual bool IsFirstIDCheckPass() { return false; }

  00000	32 c0		 xor	 al, al
  00002	c3		 ret	 0
?IsFirstIDCheckPass@ioLocalParent@@UAE_NXZ ENDP		; ioLocalParent::IsFirstIDCheckPass
; Function compile flags: /Ogsp
_TEXT	ENDS
;	COMDAT ?IsMileage@ioLocalParent@@UAE_NXZ
_TEXT	SEGMENT
?IsMileage@ioLocalParent@@UAE_NXZ PROC			; ioLocalParent::IsMileage, COMDAT
; _this$ = ecx

; 103  : 	virtual bool IsMileage() { return false; }

  00000	32 c0		 xor	 al, al
  00002	c3		 ret	 0
?IsMileage@ioLocalParent@@UAE_NXZ ENDP			; ioLocalParent::IsMileage
; Function compile flags: /Ogsp
_TEXT	ENDS
;	COMDAT ?IsEndFishingByMove@ioLocalParent@@UAE_NXZ
_TEXT	SEGMENT
?IsEndFishingByMove@ioLocalParent@@UAE_NXZ PROC		; ioLocalParent::IsEndFishingByMove, COMDAT
; _this$ = ecx

; 111  : 	virtual bool IsEndFishingByMove() { return true; }

  00000	b0 01		 mov	 al, 1
  00002	c3		 ret	 0
?IsEndFishingByMove@ioLocalParent@@UAE_NXZ ENDP		; ioLocalParent::IsEndFishingByMove
; Function compile flags: /Ogsp
_TEXT	ENDS
;	COMDAT ?IsShowFirstSoldierSelectWnd@ioLocalParent@@UAE_NXZ
_TEXT	SEGMENT
?IsShowFirstSoldierSelectWnd@ioLocalParent@@UAE_NXZ PROC ; ioLocalParent::IsShowFirstSoldierSelectWnd, COMDAT
; _this$ = ecx

; 115  : 	virtual bool IsShowFirstSoldierSelectWnd() { return false; }

  00000	32 c0		 xor	 al, al
  00002	c3		 ret	 0
?IsShowFirstSoldierSelectWnd@ioLocalParent@@UAE_NXZ ENDP ; ioLocalParent::IsShowFirstSoldierSelectWnd
; Function compile flags: /Ogsp
_TEXT	ENDS
;	COMDAT ?ExitAction@ioLocalParent@@UAEXXZ
_TEXT	SEGMENT
?ExitAction@ioLocalParent@@UAEXXZ PROC			; ioLocalParent::ExitAction, COMDAT
; _this$ = ecx

; 117  : 	virtual void ExitAction(){}

  00000	c3		 ret	 0
?ExitAction@ioLocalParent@@UAEXXZ ENDP			; ioLocalParent::ExitAction
; Function compile flags: /Ogsp
_TEXT	ENDS
;	COMDAT ?IsHeadquarterWebPage@ioLocalParent@@UAE_NXZ
_TEXT	SEGMENT
?IsHeadquarterWebPage@ioLocalParent@@UAE_NXZ PROC	; ioLocalParent::IsHeadquarterWebPage, COMDAT
; _this$ = ecx

; 122  : 	virtual bool IsHeadquarterWebPage() { return false; }

  00000	32 c0		 xor	 al, al
  00002	c3		 ret	 0
?IsHeadquarterWebPage@ioLocalParent@@UAE_NXZ ENDP	; ioLocalParent::IsHeadquarterWebPage
; Function compile flags: /Ogsp
_TEXT	ENDS
;	COMDAT ?IsFirstIDControlAltCtrl@ioLocalParent@@UAE_NXZ
_TEXT	SEGMENT
?IsFirstIDControlAltCtrl@ioLocalParent@@UAE_NXZ PROC	; ioLocalParent::IsFirstIDControlAltCtrl, COMDAT
; _this$ = ecx

; 123  : 	virtual bool IsFirstIDControlAltCtrl() { return true; }

  00000	b0 01		 mov	 al, 1
  00002	c3		 ret	 0
?IsFirstIDControlAltCtrl@ioLocalParent@@UAE_NXZ ENDP	; ioLocalParent::IsFirstIDControlAltCtrl
; Function compile flags: /Ogsp
_TEXT	ENDS
;	COMDAT ?IsAnnounceShutDown@ioLocalParent@@UAE_NXZ
_TEXT	SEGMENT
?IsAnnounceShutDown@ioLocalParent@@UAE_NXZ PROC		; ioLocalParent::IsAnnounceShutDown, COMDAT
; _this$ = ecx

; 132  : 	virtual bool IsAnnounceShutDown() { return false; }

  00000	32 c0		 xor	 al, al
  00002	c3		 ret	 0
?IsAnnounceShutDown@ioLocalParent@@UAE_NXZ ENDP		; ioLocalParent::IsAnnounceShutDown
; Function compile flags: /Ogsp
_TEXT	ENDS
;	COMDAT ?IsUseMedalLevelOpen@ioLocalParent@@UAE_NXZ
_TEXT	SEGMENT
?IsUseMedalLevelOpen@ioLocalParent@@UAE_NXZ PROC	; ioLocalParent::IsUseMedalLevelOpen, COMDAT
; _this$ = ecx

; 133  : 	virtual bool IsUseMedalLevelOpen() { return true; }

  00000	b0 01		 mov	 al, 1
  00002	c3		 ret	 0
?IsUseMedalLevelOpen@ioLocalParent@@UAE_NXZ ENDP	; ioLocalParent::IsUseMedalLevelOpen
; Function compile flags: /Ogsp
_TEXT	ENDS
;	COMDAT ?IsUsePresentMacroInShipping@ioLocalParent@@UAE_NXZ
_TEXT	SEGMENT
?IsUsePresentMacroInShipping@ioLocalParent@@UAE_NXZ PROC ; ioLocalParent::IsUsePresentMacroInShipping, COMDAT
; _this$ = ecx

; 134  : 	virtual bool IsUsePresentMacroInShipping() { return true; }

  00000	b0 01		 mov	 al, 1
  00002	c3		 ret	 0
?IsUsePresentMacroInShipping@ioLocalParent@@UAE_NXZ ENDP ; ioLocalParent::IsUsePresentMacroInShipping
; Function compile flags: /Ogsp
_TEXT	ENDS
;	COMDAT ?IsSendChatLog@ioLocalParent@@UAE_NXZ
_TEXT	SEGMENT
?IsSendChatLog@ioLocalParent@@UAE_NXZ PROC		; ioLocalParent::IsSendChatLog, COMDAT
; _this$ = ecx

; 135  : 	virtual bool IsSendChatLog() { return true; }

  00000	b0 01		 mov	 al, 1
  00002	c3		 ret	 0
?IsSendChatLog@ioLocalParent@@UAE_NXZ ENDP		; ioLocalParent::IsSendChatLog
; Function compile flags: /Ogsp
_TEXT	ENDS
;	COMDAT ?IsUseVoiceChat@ioLocalParent@@UAE_NXZ
_TEXT	SEGMENT
?IsUseVoiceChat@ioLocalParent@@UAE_NXZ PROC		; ioLocalParent::IsUseVoiceChat, COMDAT
; _this$ = ecx

; 136  : 	virtual bool IsUseVoiceChat() { return true; }

  00000	b0 01		 mov	 al, 1
  00002	c3		 ret	 0
?IsUseVoiceChat@ioLocalParent@@UAE_NXZ ENDP		; ioLocalParent::IsUseVoiceChat
; Function compile flags: /Ogsp
_TEXT	ENDS
;	COMDAT ?IsMemoryLoadMapPac@ioLocalParent@@UAE_NXZ
_TEXT	SEGMENT
?IsMemoryLoadMapPac@ioLocalParent@@UAE_NXZ PROC		; ioLocalParent::IsMemoryLoadMapPac, COMDAT
; _this$ = ecx

; 137  : 	virtual bool IsMemoryLoadMapPac() { return false; }

  00000	32 c0		 xor	 al, al
  00002	c3		 ret	 0
?IsMemoryLoadMapPac@ioLocalParent@@UAE_NXZ ENDP		; ioLocalParent::IsMemoryLoadMapPac
; Function compile flags: /Ogsp
_TEXT	ENDS
;	COMDAT ?GetProgramExitWaitSec@ioLocalParent@@UAEHXZ
_TEXT	SEGMENT
?GetProgramExitWaitSec@ioLocalParent@@UAEHXZ PROC	; ioLocalParent::GetProgramExitWaitSec, COMDAT
; _this$ = ecx

; 142  : 	virtual int GetProgramExitWaitSec() { return 60; } // 1

  00000	6a 3c		 push	 60			; 0000003cH
  00002	58		 pop	 eax
  00003	c3		 ret	 0
?GetProgramExitWaitSec@ioLocalParent@@UAEHXZ ENDP	; ioLocalParent::GetProgramExitWaitSec
; Function compile flags: /Ogsp
_TEXT	ENDS
;	COMDAT ?GetFillCashURL@ioLocalParent@@UAEXAAVioHashString@@ABV2@@Z
_TEXT	SEGMENT
_rsFullURL$ = 8						; size = 4
_rsShortURL$ = 12					; size = 4
?GetFillCashURL@ioLocalParent@@UAEXAAVioHashString@@ABV2@@Z PROC ; ioLocalParent::GetFillCashURL, COMDAT
; _this$ = ecx

; 143  : 	virtual void GetFillCashURL( OUT ioHashString &rsFullURL , IN const ioHashString &rsShortURL ){}

  00000	c2 08 00	 ret	 8
?GetFillCashURL@ioLocalParent@@UAEXAAVioHashString@@ABV2@@Z ENDP ; ioLocalParent::GetFillCashURL
; Function compile flags: /Ogsp
_TEXT	ENDS
;	COMDAT ?SetWebLoginKey@ioLocalParent@@UAEXABVioHashString@@@Z
_TEXT	SEGMENT
_rsWebLoginKey$ = 8					; size = 4
?SetWebLoginKey@ioLocalParent@@UAEXABVioHashString@@@Z PROC ; ioLocalParent::SetWebLoginKey, COMDAT
; _this$ = ecx

; 147  : 	virtual void SetWebLoginKey( const ioHashString &rsWebLoginKey ) {}

  00000	c2 04 00	 ret	 4
?SetWebLoginKey@ioLocalParent@@UAEXABVioHashString@@@Z ENDP ; ioLocalParent::SetWebLoginKey
; Function compile flags: /Ogsp
_TEXT	ENDS
;	COMDAT ?SetGoldChargeBtn@ioLocalParent@@UAEX_N@Z
_TEXT	SEGMENT
_bBtnOn$ = 8						; size = 1
?SetGoldChargeBtn@ioLocalParent@@UAEX_N@Z PROC		; ioLocalParent::SetGoldChargeBtn, COMDAT
; _this$ = ecx

; 156  : 	virtual void SetGoldChargeBtn( bool bBtnOn ){ m_bGoldChargeBtn = bBtnOn; }

  00000	55		 push	 ebp
  00001	8b ec		 mov	 ebp, esp
  00003	8a 45 08	 mov	 al, BYTE PTR _bBtnOn$[ebp]
  00006	88 41 58	 mov	 BYTE PTR [ecx+88], al
  00009	5d		 pop	 ebp
  0000a	c2 04 00	 ret	 4
?SetGoldChargeBtn@ioLocalParent@@UAEX_N@Z ENDP		; ioLocalParent::SetGoldChargeBtn
; Function compile flags: /Ogsp
_TEXT	ENDS
;	COMDAT ?GetGoldChargeBtn@ioLocalParent@@UAE_NXZ
_TEXT	SEGMENT
?GetGoldChargeBtn@ioLocalParent@@UAE_NXZ PROC		; ioLocalParent::GetGoldChargeBtn, COMDAT
; _this$ = ecx

; 157  : 	virtual bool GetGoldChargeBtn(){ return m_bGoldChargeBtn; }

  00000	8a 41 58	 mov	 al, BYTE PTR [ecx+88]
  00003	c3		 ret	 0
?GetGoldChargeBtn@ioLocalParent@@UAE_NXZ ENDP		; ioLocalParent::GetGoldChargeBtn
; Function compile flags: /Ogsp
_TEXT	ENDS
;	COMDAT ?SetCashReqTime@ioLocalParent@@UAEXK@Z
_TEXT	SEGMENT
_dwTime$ = 8						; size = 4
?SetCashReqTime@ioLocalParent@@UAEXK@Z PROC		; ioLocalParent::SetCashReqTime, COMDAT
; _this$ = ecx

; 163  : 	virtual void SetCashReqTime( DWORD dwTime ){ m_dwCashReqTime = dwTime; }

  00000	55		 push	 ebp
  00001	8b ec		 mov	 ebp, esp
  00003	8b 45 08	 mov	 eax, DWORD PTR _dwTime$[ebp]
  00006	89 41 5c	 mov	 DWORD PTR [ecx+92], eax
  00009	5d		 pop	 ebp
  0000a	c2 04 00	 ret	 4
?SetCashReqTime@ioLocalParent@@UAEXK@Z ENDP		; ioLocalParent::SetCashReqTime
; Function compile flags: /Ogsp
_TEXT	ENDS
;	COMDAT ?GetCashReqTime@ioLocalParent@@UAEKXZ
_TEXT	SEGMENT
?GetCashReqTime@ioLocalParent@@UAEKXZ PROC		; ioLocalParent::GetCashReqTime, COMDAT
; _this$ = ecx

; 164  : 	virtual DWORD GetCashReqTime(){ return m_dwCashReqTime; }

  00000	8b 41 5c	 mov	 eax, DWORD PTR [ecx+92]
  00003	c3		 ret	 0
?GetCashReqTime@ioLocalParent@@UAEKXZ ENDP		; ioLocalParent::GetCashReqTime
_TEXT	ENDS
EXTRN	__imp_??0ioHashString@@QAE@ABV0@@Z:PROC
; Function compile flags: /Ogsp
;	COMDAT ?GetWebShopUrl@ioLocalParent@@UAE?AVioHashString@@XZ
_TEXT	SEGMENT
$T517658 = -4						; size = 4
___$ReturnUdt$ = 8					; size = 4
?GetWebShopUrl@ioLocalParent@@UAE?AVioHashString@@XZ PROC ; ioLocalParent::GetWebShopUrl, COMDAT
; _this$ = ecx

; 166  : 	virtual ioHashString GetWebShopUrl(){ return m_sWeb_shop_url; }

  00000	55		 push	 ebp
  00001	8b ec		 mov	 ebp, esp
  00003	51		 push	 ecx
  00004	83 65 fc 00	 and	 DWORD PTR $T517658[ebp], 0
  00008	83 c1 60	 add	 ecx, 96			; 00000060H
  0000b	51		 push	 ecx
  0000c	8b 4d 08	 mov	 ecx, DWORD PTR ___$ReturnUdt$[ebp]
  0000f	ff 15 00 00 00
	00		 call	 DWORD PTR __imp_??0ioHashString@@QAE@ABV0@@Z
  00015	8b 45 08	 mov	 eax, DWORD PTR ___$ReturnUdt$[ebp]
  00018	c9		 leave
  00019	c2 04 00	 ret	 4
?GetWebShopUrl@ioLocalParent@@UAE?AVioHashString@@XZ ENDP ; ioLocalParent::GetWebShopUrl
; Function compile flags: /Ogsp
_TEXT	ENDS
;	COMDAT ?OpenWebPage@ioLocalParent@@UAEXH@Z
_TEXT	SEGMENT
_iType$ = 8						; size = 4
?OpenWebPage@ioLocalParent@@UAEXH@Z PROC		; ioLocalParent::OpenWebPage, COMDAT
; _this$ = ecx

; 169  : 	virtual void OpenWebPage( int iType ) {};

  00000	c2 04 00	 ret	 4
?OpenWebPage@ioLocalParent@@UAEXH@Z ENDP		; ioLocalParent::OpenWebPage
_TEXT	ENDS
EXTRN	??3@YAXPAX@Z:PROC				; operator delete
; Function compile flags: /Ogsp
;	COMDAT ??_GioLocalSingapore@@UAEPAXI@Z
_TEXT	SEGMENT
___flags$ = 8						; size = 4
??_GioLocalSingapore@@UAEPAXI@Z PROC			; ioLocalSingapore::`scalar deleting destructor', COMDAT
; _this$ = ecx
  00000	55		 push	 ebp
  00001	8b ec		 mov	 ebp, esp
  00003	56		 push	 esi
  00004	8b f1		 mov	 esi, ecx
  00006	e8 00 00 00 00	 call	 ??1ioLocalSingapore@@UAE@XZ ; ioLocalSingapore::~ioLocalSingapore
  0000b	f6 45 08 01	 test	 BYTE PTR ___flags$[ebp], 1
  0000f	74 07		 je	 SHORT $LN1@scalar
  00011	56		 push	 esi
  00012	e8 00 00 00 00	 call	 ??3@YAXPAX@Z		; operator delete
  00017	59		 pop	 ecx
$LN1@scalar:
  00018	8b c6		 mov	 eax, esi
  0001a	5e		 pop	 esi
  0001b	5d		 pop	 ebp
  0001c	c2 04 00	 ret	 4
??_GioLocalSingapore@@UAEPAXI@Z ENDP			; ioLocalSingapore::`scalar deleting destructor'
_TEXT	ENDS
PUBLIC	?StringCbCopyA@@YGJPADIPBD@Z			; StringCbCopyA
; Function compile flags: /Ogsp
; File c:\program files (x86)\microsoft sdks\windows\v7.0a\include\strsafe.h
;	COMDAT ?StringCbCopyA@@YGJPADIPBD@Z
_TEXT	SEGMENT
_pszDest$ = 8						; size = 4
_cbDest$ = 12						; size = 4
_pszSrc$ = 16						; size = 4
?StringCbCopyA@@YGJPADIPBD@Z PROC			; StringCbCopyA, COMDAT

; 582  : {

  00000	55		 push	 ebp
  00001	8b ec		 mov	 ebp, esp

; 583  :     HRESULT hr;
; 584  :     size_t cchDest = cbDest / sizeof(char);
; 585  : 
; 586  :     hr = StringValidateDestA(pszDest, cchDest, STRSAFE_MAX_CCH);

  00003	8b 4d 0c	 mov	 ecx, DWORD PTR _cbDest$[ebp]
  00006	33 c0		 xor	 eax, eax
  00008	85 c9		 test	 ecx, ecx
  0000a	74 08		 je	 SHORT $LN4@StringCbCo
  0000c	81 f9 ff ff ff
	7f		 cmp	 ecx, 2147483647		; 7fffffffH
  00012	76 05		 jbe	 SHORT $LN5@StringCbCo
$LN4@StringCbCo:
  00014	b8 57 00 07 80	 mov	 eax, -2147024809	; 80070057H
$LN5@StringCbCo:

; 587  : 
; 588  :     if (SUCCEEDED(hr))

  00019	85 c0		 test	 eax, eax
  0001b	78 40		 js	 SHORT $LN1@StringCbCo

; 589  :     {
; 590  :         hr = StringCopyWorkerA(pszDest,
; 591  :                                cchDest,
; 592  :                                NULL,
; 593  :                                pszSrc,
; 594  :                                STRSAFE_MAX_LENGTH);

  0001d	8b 45 08	 mov	 eax, DWORD PTR _pszDest$[ebp]
  00020	53		 push	 ebx
  00021	33 db		 xor	 ebx, ebx
  00023	56		 push	 esi
  00024	8b f1		 mov	 esi, ecx
  00026	85 c9		 test	 ecx, ecx
  00028	74 26		 je	 SHORT $LN16@StringCbCo
  0002a	8b 55 10	 mov	 edx, DWORD PTR _pszSrc$[ebp]
  0002d	57		 push	 edi
  0002e	bf fe ff ff 7f	 mov	 edi, 2147483646		; 7ffffffeH
  00033	2b f9		 sub	 edi, ecx
  00035	2b d0		 sub	 edx, eax
$LL11@StringCbCo:
  00037	8d 0c 37	 lea	 ecx, DWORD PTR [edi+esi]
  0003a	85 c9		 test	 ecx, ecx
  0003c	74 0d		 je	 SHORT $LN10@StringCbCo
  0003e	8a 0c 02	 mov	 cl, BYTE PTR [edx+eax]
  00041	84 c9		 test	 cl, cl
  00043	74 06		 je	 SHORT $LN10@StringCbCo
  00045	88 08		 mov	 BYTE PTR [eax], cl
  00047	40		 inc	 eax
  00048	4e		 dec	 esi
  00049	75 ec		 jne	 SHORT $LL11@StringCbCo
$LN10@StringCbCo:
  0004b	5f		 pop	 edi
  0004c	85 f6		 test	 esi, esi
  0004e	75 06		 jne	 SHORT $LN9@StringCbCo
$LN16@StringCbCo:
  00050	48		 dec	 eax
  00051	bb 7a 00 07 80	 mov	 ebx, -2147024774	; 8007007aH
$LN9@StringCbCo:
  00056	c6 00 00	 mov	 BYTE PTR [eax], 0
  00059	5e		 pop	 esi
  0005a	8b c3		 mov	 eax, ebx
  0005c	5b		 pop	 ebx
$LN1@StringCbCo:

; 595  :     }
; 596  : 
; 597  :     return hr;
; 598  : }

  0005d	5d		 pop	 ebp
  0005e	c2 0c 00	 ret	 12			; 0000000cH
?StringCbCopyA@@YGJPADIPBD@Z ENDP			; StringCbCopyA
_TEXT	ENDS
PUBLIC	?StringCbPrintfA@@YAJPADIPBDZZ			; StringCbPrintfA
; Function compile flags: /Ogsp
;	COMDAT ?StringCbPrintfA@@YAJPADIPBDZZ
_TEXT	SEGMENT
_pszDest$ = 8						; size = 4
_cbDest$ = 12						; size = 4
_pszFormat$ = 16					; size = 4
?StringCbPrintfA@@YAJPADIPBDZZ PROC			; StringCbPrintfA, COMDAT

; 4767 : {

  00000	55		 push	 ebp
  00001	8b ec		 mov	 ebp, esp

; 4768 :     HRESULT hr;
; 4769 :     size_t cchDest = cbDest / sizeof(char);
; 4770 : 
; 4771 :     hr = StringValidateDestA(pszDest, cchDest, STRSAFE_MAX_CCH);

  00003	8b 4d 0c	 mov	 ecx, DWORD PTR _cbDest$[ebp]
  00006	33 c0		 xor	 eax, eax
  00008	85 c9		 test	 ecx, ecx
  0000a	74 08		 je	 SHORT $LN4@StringCbPr
  0000c	81 f9 ff ff ff
	7f		 cmp	 ecx, 2147483647		; 7fffffffH
  00012	76 05		 jbe	 SHORT $LN5@StringCbPr
$LN4@StringCbPr:
  00014	b8 57 00 07 80	 mov	 eax, -2147024809	; 80070057H
$LN5@StringCbPr:

; 4772 :     
; 4773 :     if (SUCCEEDED(hr))

  00019	85 c0		 test	 eax, eax
  0001b	78 39		 js	 SHORT $LN1@StringCbPr

; 4774 :     {
; 4775 :         va_list argList;
; 4776 : 
; 4777 :         va_start(argList, pszFormat);
; 4778 : 
; 4779 :         hr = StringVPrintfWorkerA(pszDest,
; 4780 :                                   cchDest,
; 4781 :                                   NULL,
; 4782 :                                   pszFormat,
; 4783 :                                   argList);

  0001d	53		 push	 ebx
  0001e	56		 push	 esi
  0001f	57		 push	 edi
  00020	8b 7d 08	 mov	 edi, DWORD PTR _pszDest$[ebp]
  00023	8d 45 14	 lea	 eax, DWORD PTR _pszFormat$[ebp+4]
  00026	50		 push	 eax
  00027	ff 75 10	 push	 DWORD PTR _pszFormat$[ebp]
  0002a	8d 71 ff	 lea	 esi, DWORD PTR [ecx-1]
  0002d	56		 push	 esi
  0002e	57		 push	 edi
  0002f	33 db		 xor	 ebx, ebx
  00031	ff 15 00 00 00
	00		 call	 DWORD PTR __imp___vsnprintf
  00037	83 c4 10	 add	 esp, 16			; 00000010H
  0003a	85 c0		 test	 eax, eax
  0003c	78 0b		 js	 SHORT $LN12@StringCbPr
  0003e	3b c6		 cmp	 eax, esi
  00040	77 07		 ja	 SHORT $LN12@StringCbPr
  00042	75 0d		 jne	 SHORT $LN9@StringCbPr
  00044	88 1c 3e	 mov	 BYTE PTR [esi+edi], bl
  00047	eb 08		 jmp	 SHORT $LN9@StringCbPr
$LN12@StringCbPr:
  00049	88 1c 3e	 mov	 BYTE PTR [esi+edi], bl
  0004c	bb 7a 00 07 80	 mov	 ebx, -2147024774	; 8007007aH
$LN9@StringCbPr:
  00051	5f		 pop	 edi
  00052	5e		 pop	 esi
  00053	8b c3		 mov	 eax, ebx
  00055	5b		 pop	 ebx
$LN1@StringCbPr:

; 4784 : 
; 4785 :         va_end(argList);
; 4786 :     }
; 4787 : 
; 4788 :     return hr;
; 4789 : }

  00056	5d		 pop	 ebp
  00057	c3		 ret	 0
?StringCbPrintfA@@YAJPADIPBDZZ ENDP			; StringCbPrintfA
_TEXT	ENDS
PUBLIC	??_C@_0CE@DOCJLLKL@?$CF0?42X?9?$CF0?42X?9?$CF0?42X?9?$CF0?42X?9?$CF0?42X?9?$CF0@ ; `string'
PUBLIC	??_C@_07OHKHACFK@0?40?40?40?$AA@		; `string'
PUBLIC	??_C@_0CI@CPGKLDKO@Microsoft?5Virtual?5WiFi?5Miniport?5@ ; `string'
PUBLIC	??_C@_0BC@NAPNKNPH@00?900?900?900?900?900?$AA@	; `string'
PUBLIC	_szMacAddress$GSCopy$
PUBLIC	__$ArrayPad$
PUBLIC	?GetMacAddress@ioLocalSingapore@@IAEXPADH@Z	; ioLocalSingapore::GetMacAddress
EXTRN	__imp__strncmp:PROC
EXTRN	__imp__HeapFree@12:PROC
EXTRN	_GetAdaptersInfo@8:PROC
EXTRN	__imp__HeapAlloc@12:PROC
EXTRN	__imp__GetProcessHeap@0:PROC
EXTRN	_memset:PROC
;	COMDAT ??_C@_0CE@DOCJLLKL@?$CF0?42X?9?$CF0?42X?9?$CF0?42X?9?$CF0?42X?9?$CF0?42X?9?$CF0@
; File d:\lost saga for developer\youtube\tutorial\source\src\lsclient\local\iolocalsingapore.cpp
CONST	SEGMENT
??_C@_0CE@DOCJLLKL@?$CF0?42X?9?$CF0?42X?9?$CF0?42X?9?$CF0?42X?9?$CF0?42X?9?$CF0@ DB '%'
	DB	'0.2X-%0.2X-%0.2X-%0.2X-%0.2X-%0.2X', 00H	; `string'
CONST	ENDS
;	COMDAT ??_C@_07OHKHACFK@0?40?40?40?$AA@
CONST	SEGMENT
??_C@_07OHKHACFK@0?40?40?40?$AA@ DB '0.0.0.0', 00H	; `string'
CONST	ENDS
;	COMDAT ??_C@_0CI@CPGKLDKO@Microsoft?5Virtual?5WiFi?5Miniport?5@
CONST	SEGMENT
??_C@_0CI@CPGKLDKO@Microsoft?5Virtual?5WiFi?5Miniport?5@ DB 'Microsoft Vi'
	DB	'rtual WiFi Miniport Adapter', 00H		; `string'
CONST	ENDS
;	COMDAT ??_C@_0BC@NAPNKNPH@00?900?900?900?900?900?$AA@
CONST	SEGMENT
??_C@_0BC@NAPNKNPH@00?900?900?900?900?900?$AA@ DB '00-00-00-00-00-00', 00H ; `string'
; Function compile flags: /Ogsp
CONST	ENDS
;	COMDAT ?GetMacAddress@ioLocalSingapore@@IAEXPADH@Z
_TEXT	SEGMENT
_i$517212 = -280					; size = 4
_ulOutBufLen$ = -276					; size = 4
_pAdapterInfo$ = -272					; size = 4
_szMacAddress$GSCopy$ = -268				; size = 4
_szPassDes$ = -264					; size = 260
__$ArrayPad$ = -4					; size = 4
_szMacAddress$ = 8					; size = 4
_iSize$ = 12						; size = 4
?GetMacAddress@ioLocalSingapore@@IAEXPADH@Z PROC	; ioLocalSingapore::GetMacAddress, COMDAT
; _this$ = ecx

; 339  : {

  00000	55		 push	 ebp
  00001	8b ec		 mov	 ebp, esp
  00003	81 ec 18 01 00
	00		 sub	 esp, 280		; 00000118H
  00009	a1 00 00 00 00	 mov	 eax, DWORD PTR ___security_cookie
  0000e	33 c5		 xor	 eax, ebp
  00010	89 45 fc	 mov	 DWORD PTR __$ArrayPad$[ebp], eax

; 370  : 	pAdapter = pAdapterInfo;
; 371  : 	enum { MAX_LOOP = 100 };
; 372  : 	for (int i = 0; i < MAX_LOOP ; i++)

  00013	8b 45 08	 mov	 eax, DWORD PTR _szMacAddress$[ebp]
  00016	53		 push	 ebx
  00017	56		 push	 esi
  00018	8b 35 00 00 00
	00		 mov	 esi, DWORD PTR __imp__GetProcessHeap@0
  0001e	57		 push	 edi
  0001f	89 85 f4 fe ff
	ff		 mov	 DWORD PTR _szMacAddress$GSCopy$[ebp], eax
  00025	b8 88 02 00 00	 mov	 eax, 648		; 00000288H
  0002a	50		 push	 eax
  0002b	6a 00		 push	 0
  0002d	89 85 ec fe ff
	ff		 mov	 DWORD PTR _ulOutBufLen$[ebp], eax
  00033	ff d6		 call	 esi
  00035	8b 3d 00 00 00
	00		 mov	 edi, DWORD PTR __imp__HeapAlloc@12
  0003b	50		 push	 eax
  0003c	ff d7		 call	 edi
  0003e	8b d8		 mov	 ebx, eax
  00040	89 9d f0 fe ff
	ff		 mov	 DWORD PTR _pAdapterInfo$[ebp], ebx
  00046	85 db		 test	 ebx, ebx
  00048	75 18		 jne	 SHORT $LN12@GetMacAddr
$LN24@GetMacAddr:

; 340  : 	PIP_ADAPTER_INFO pAdapterInfo=NULL;
; 341  : 	PIP_ADAPTER_INFO pAdapter = NULL;
; 342  : 
; 343  : 	ULONG ulOutBufLen = sizeof(IP_ADAPTER_INFO);
; 344  : 	pAdapterInfo = (IP_ADAPTER_INFO *) HeapAlloc(GetProcessHeap(), 0, (sizeof(IP_ADAPTER_INFO)));
; 345  : 	if (pAdapterInfo == NULL) 
; 346  : 	{
; 347  : 		StringCbCopy( szMacAddress, iSize,  "00-00-00-00-00-00" );

  0004a	68 00 00 00 00	 push	 OFFSET ??_C@_0BC@NAPNKNPH@00?900?900?900?900?900?$AA@
  0004f	ff 75 0c	 push	 DWORD PTR _iSize$[ebp]
  00052	ff b5 f4 fe ff
	ff		 push	 DWORD PTR _szMacAddress$GSCopy$[ebp]
  00058	e8 00 00 00 00	 call	 ?StringCbCopyA@@YGJPADIPBD@Z ; StringCbCopyA

; 348  : 		return;

  0005d	e9 5e 01 00 00	 jmp	 $LN1@GetMacAddr
$LN12@GetMacAddr:

; 349  : 	}
; 350  : 
; 351  : 	if ( GetAdaptersInfo(pAdapterInfo, &ulOutBufLen) == ERROR_BUFFER_OVERFLOW )  

  00062	8d 85 ec fe ff
	ff		 lea	 eax, DWORD PTR _ulOutBufLen$[ebp]
  00068	50		 push	 eax
  00069	53		 push	 ebx
  0006a	e8 00 00 00 00	 call	 _GetAdaptersInfo@8
  0006f	83 f8 6f	 cmp	 eax, 111		; 0000006fH
  00072	75 25		 jne	 SHORT $LN21@GetMacAddr

; 352  : 	{
; 353  : 		HeapFree(GetProcessHeap(), 0, (pAdapterInfo));

  00074	53		 push	 ebx
  00075	6a 00		 push	 0
  00077	ff d6		 call	 esi
  00079	50		 push	 eax
  0007a	ff 15 00 00 00
	00		 call	 DWORD PTR __imp__HeapFree@12

; 354  : 		pAdapterInfo = (IP_ADAPTER_INFO *) HeapAlloc(GetProcessHeap(), 0, (ulOutBufLen));

  00080	ff b5 ec fe ff
	ff		 push	 DWORD PTR _ulOutBufLen$[ebp]
  00086	6a 00		 push	 0
  00088	ff d6		 call	 esi
  0008a	50		 push	 eax
  0008b	ff d7		 call	 edi
  0008d	89 85 f0 fe ff
	ff		 mov	 DWORD PTR _pAdapterInfo$[ebp], eax

; 355  : 		if (pAdapterInfo == NULL) 

  00093	85 c0		 test	 eax, eax

; 356  : 		{
; 357  : 			StringCbCopy( szMacAddress, iSize,  "00-00-00-00-00-00" );
; 358  : 			return;

  00095	74 b3		 je	 SHORT $LN24@GetMacAddr
  00097	8b d8		 mov	 ebx, eax
$LN21@GetMacAddr:

; 359  : 		}
; 360  : 	}
; 361  : 
; 362  : 	if( GetAdaptersInfo(pAdapterInfo, &ulOutBufLen) != NO_ERROR )  //   MAC address 

  00099	8d 85 ec fe ff
	ff		 lea	 eax, DWORD PTR _ulOutBufLen$[ebp]
  0009f	50		 push	 eax
  000a0	53		 push	 ebx
  000a1	e8 00 00 00 00	 call	 _GetAdaptersInfo@8
  000a6	85 c0		 test	 eax, eax
  000a8	74 0e		 je	 SHORT $LN9@GetMacAddr

; 363  : 	{
; 364  : 		HeapFree(GetProcessHeap(), 0, (pAdapterInfo));

  000aa	53		 push	 ebx
  000ab	6a 00		 push	 0
  000ad	ff d6		 call	 esi
  000af	50		 push	 eax
  000b0	ff 15 00 00 00
	00		 call	 DWORD PTR __imp__HeapFree@12

; 365  : 		StringCbCopy( szMacAddress, iSize,  "00-00-00-00-00-00" );
; 366  : 		return;

  000b6	eb 92		 jmp	 SHORT $LN24@GetMacAddr
$LN9@GetMacAddr:

; 367  : 	}
; 368  : 
; 369  : 	char szPassDes[MAX_PATH]="Microsoft Virtual WiFi Miniport Adapter";

  000b8	6a 0a		 push	 10			; 0000000aH
  000ba	59		 pop	 ecx
  000bb	68 dc 00 00 00	 push	 220			; 000000dcH
  000c0	8d 85 20 ff ff
	ff		 lea	 eax, DWORD PTR _szPassDes$[ebp+40]
  000c6	6a 00		 push	 0
  000c8	be 00 00 00 00	 mov	 esi, OFFSET ??_C@_0CI@CPGKLDKO@Microsoft?5Virtual?5WiFi?5Miniport?5@
  000cd	8d bd f8 fe ff
	ff		 lea	 edi, DWORD PTR _szPassDes$[ebp]
  000d3	50		 push	 eax
  000d4	f3 a5		 rep movsd
  000d6	e8 00 00 00 00	 call	 _memset
  000db	83 c4 0c	 add	 esp, 12			; 0000000cH

; 370  : 	pAdapter = pAdapterInfo;
; 371  : 	enum { MAX_LOOP = 100 };
; 372  : 	for (int i = 0; i < MAX_LOOP ; i++)

  000de	83 a5 e8 fe ff
	ff 00		 and	 DWORD PTR _i$517212[ebp], 0
$LL22@GetMacAddr:

; 373  : 	{
; 374  : 		if( !pAdapter )

  000e5	85 db		 test	 ebx, ebx
  000e7	74 5e		 je	 SHORT $LN16@GetMacAddr

; 378  : 		}
; 379  : 		if( pAdapter->Type != MIB_IF_TYPE_ETHERNET )

  000e9	83 bb a0 01 00
	00 06		 cmp	 DWORD PTR [ebx+416], 6

; 380  : 		{
; 381  : 			pAdapter = pAdapter->Next;
; 382  : 			continue;

  000f0	75 42		 jne	 SHORT $LN23@GetMacAddr

; 383  : 		}
; 384  : 		if( strncmp( pAdapter->Description, szPassDes, strlen( szPassDes ) )  == 0 ) //   

  000f2	8d 85 f8 fe ff
	ff		 lea	 eax, DWORD PTR _szPassDes$[ebp]
  000f8	8d 50 01	 lea	 edx, DWORD PTR [eax+1]
$LL18@GetMacAddr:
  000fb	8a 08		 mov	 cl, BYTE PTR [eax]
  000fd	40		 inc	 eax
  000fe	84 c9		 test	 cl, cl
  00100	75 f9		 jne	 SHORT $LL18@GetMacAddr
  00102	2b c2		 sub	 eax, edx
  00104	50		 push	 eax
  00105	8d 85 f8 fe ff
	ff		 lea	 eax, DWORD PTR _szPassDes$[ebp]
  0010b	50		 push	 eax
  0010c	8d 83 0c 01 00
	00		 lea	 eax, DWORD PTR [ebx+268]
  00112	50		 push	 eax
  00113	ff 15 00 00 00
	00		 call	 DWORD PTR __imp__strncmp
  00119	83 c4 0c	 add	 esp, 12			; 0000000cH
  0011c	85 c0		 test	 eax, eax

; 385  : 		{
; 386  : 			pAdapter = pAdapter->Next;
; 387  : 			continue;

  0011e	74 14		 je	 SHORT $LN23@GetMacAddr

; 388  : 		}
; 389  : 		if( strcmp( pAdapter->IpAddressList.IpAddress.String, "0.0.0.0" ) == 0 )	 //  

  00120	6a 08		 push	 8
  00122	bf 00 00 00 00	 mov	 edi, OFFSET ??_C@_07OHKHACFK@0?40?40?40?$AA@
  00127	8d b3 b0 01 00
	00		 lea	 esi, DWORD PTR [ebx+432]
  0012d	59		 pop	 ecx
  0012e	33 c0		 xor	 eax, eax
  00130	f3 a6		 repe cmpsb
  00132	75 28		 jne	 SHORT $LN2@GetMacAddr
$LN23@GetMacAddr:

; 370  : 	pAdapter = pAdapterInfo;
; 371  : 	enum { MAX_LOOP = 100 };
; 372  : 	for (int i = 0; i < MAX_LOOP ; i++)

  00134	ff 85 e8 fe ff
	ff		 inc	 DWORD PTR _i$517212[ebp]
  0013a	83 bd e8 fe ff
	ff 64		 cmp	 DWORD PTR _i$517212[ebp], 100 ; 00000064H

; 390  : 		{
; 391  : 			pAdapter = pAdapter->Next;

  00141	8b 1b		 mov	 ebx, DWORD PTR [ebx]
  00143	7c a0		 jl	 SHORT $LL22@GetMacAddr

; 373  : 	{
; 374  : 		if( !pAdapter )

  00145	eb 5b		 jmp	 SHORT $LN6@GetMacAddr
$LN16@GetMacAddr:

; 375  : 		{
; 376  : 			StringCbCopy( szMacAddress, iSize,  "00-00-00-00-00-00" );

  00147	68 00 00 00 00	 push	 OFFSET ??_C@_0BC@NAPNKNPH@00?900?900?900?900?900?$AA@
  0014c	ff 75 0c	 push	 DWORD PTR _iSize$[ebp]
  0014f	ff b5 f4 fe ff
	ff		 push	 DWORD PTR _szMacAddress$GSCopy$[ebp]
  00155	e8 00 00 00 00	 call	 ?StringCbCopyA@@YGJPADIPBD@Z ; StringCbCopyA

; 377  : 			break;

  0015a	eb 46		 jmp	 SHORT $LN6@GetMacAddr
$LN2@GetMacAddr:

; 392  : 			continue;
; 393  : 		}
; 394  : 
; 395  : 		StringCbPrintf( szMacAddress, iSize,  "%0.2X-%0.2X-%0.2X-%0.2X-%0.2X-%0.2X", pAdapter->Address[0], pAdapter->Address[1], pAdapter->Address[2], pAdapter->Address[3], pAdapter->Address[4], pAdapter->Address[5] );

  0015c	0f b6 83 99 01
	00 00		 movzx	 eax, BYTE PTR [ebx+409]
  00163	50		 push	 eax
  00164	0f b6 83 98 01
	00 00		 movzx	 eax, BYTE PTR [ebx+408]
  0016b	50		 push	 eax
  0016c	0f b6 83 97 01
	00 00		 movzx	 eax, BYTE PTR [ebx+407]
  00173	50		 push	 eax
  00174	0f b6 83 96 01
	00 00		 movzx	 eax, BYTE PTR [ebx+406]
  0017b	50		 push	 eax
  0017c	0f b6 83 95 01
	00 00		 movzx	 eax, BYTE PTR [ebx+405]
  00183	50		 push	 eax
  00184	0f b6 83 94 01
	00 00		 movzx	 eax, BYTE PTR [ebx+404]
  0018b	50		 push	 eax
  0018c	68 00 00 00 00	 push	 OFFSET ??_C@_0CE@DOCJLLKL@?$CF0?42X?9?$CF0?42X?9?$CF0?42X?9?$CF0?42X?9?$CF0?42X?9?$CF0@
  00191	ff 75 0c	 push	 DWORD PTR _iSize$[ebp]
  00194	ff b5 f4 fe ff
	ff		 push	 DWORD PTR _szMacAddress$GSCopy$[ebp]
  0019a	e8 00 00 00 00	 call	 ?StringCbPrintfA@@YAJPADIPBDZZ ; StringCbPrintfA
  0019f	83 c4 24	 add	 esp, 36			; 00000024H
$LN6@GetMacAddr:

; 396  : 		break;
; 397  : 	}
; 398  : 
; 399  : 	if (pAdapterInfo)

  001a2	83 bd f0 fe ff
	ff 00		 cmp	 DWORD PTR _pAdapterInfo$[ebp], 0
  001a9	74 15		 je	 SHORT $LN1@GetMacAddr

; 400  : 		HeapFree(GetProcessHeap(), 0, (pAdapterInfo));

  001ab	ff b5 f0 fe ff
	ff		 push	 DWORD PTR _pAdapterInfo$[ebp]
  001b1	6a 00		 push	 0
  001b3	ff 15 00 00 00
	00		 call	 DWORD PTR __imp__GetProcessHeap@0
  001b9	50		 push	 eax
  001ba	ff 15 00 00 00
	00		 call	 DWORD PTR __imp__HeapFree@12
$LN1@GetMacAddr:

; 401  : }

  001c0	8b 4d fc	 mov	 ecx, DWORD PTR __$ArrayPad$[ebp]
  001c3	5f		 pop	 edi
  001c4	5e		 pop	 esi
  001c5	33 cd		 xor	 ecx, ebp
  001c7	5b		 pop	 ebx
  001c8	e8 00 00 00 00	 call	 @__security_check_cookie@4
  001cd	c9		 leave
  001ce	c2 08 00	 ret	 8
?GetMacAddress@ioLocalSingapore@@IAEXPADH@Z ENDP	; ioLocalSingapore::GetMacAddress
_TEXT	ENDS
PUBLIC	??_C@_0BK@DONAKDKJ@SOFTWARE?2Gemscool?2Premium?$AA@ ; `string'
PUBLIC	??_C@_03CCEPDEKL@Key?$AA@			; `string'
PUBLIC	??_C@_00CNPNBAHC@?$AA@				; `string'
PUBLIC	__$ArrayPad$
EXTRN	??6SP2Packet@@QAEAAV0@K@Z:PROC			; SP2Packet::operator<<
EXTRN	??6SP2Packet@@QAEAAV0@PAD@Z:PROC		; SP2Packet::operator<<
EXTRN	??6SP2Packet@@QAEAAV0@ABVioHashString@@@Z:PROC	; SP2Packet::operator<<
EXTRN	?RegReadString@Help@@YA_NPAUHKEY__@@PBD11PADK@Z:PROC ; Help::RegReadString
;	COMDAT ??_C@_0BK@DONAKDKJ@SOFTWARE?2Gemscool?2Premium?$AA@
CONST	SEGMENT
??_C@_0BK@DONAKDKJ@SOFTWARE?2Gemscool?2Premium?$AA@ DB 'SOFTWARE\Gemscool'
	DB	'\Premium', 00H				; `string'
CONST	ENDS
;	COMDAT ??_C@_03CCEPDEKL@Key?$AA@
CONST	SEGMENT
??_C@_03CCEPDEKL@Key?$AA@ DB 'Key', 00H			; `string'
CONST	ENDS
;	COMDAT ??_C@_00CNPNBAHC@?$AA@
CONST	SEGMENT
??_C@_00CNPNBAHC@?$AA@ DB 00H				; `string'
; Function compile flags: /Ogsp
CONST	ENDS
;	COMDAT ?FillLoginData@ioLocalSingapore@@UAEXAAVSP2Packet@@@Z
_TEXT	SEGMENT
_szKey$ = -524						; size = 260
_szMacAddress$ = -264					; size = 260
__$ArrayPad$ = -4					; size = 4
_rkPacket$ = 8						; size = 4
?FillLoginData@ioLocalSingapore@@UAEXAAVSP2Packet@@@Z PROC ; ioLocalSingapore::FillLoginData, COMDAT
; _this$ = ecx

; 116  : {

  00000	55		 push	 ebp
  00001	8b ec		 mov	 ebp, esp
  00003	81 ec 0c 02 00
	00		 sub	 esp, 524		; 0000020cH
  00009	a1 00 00 00 00	 mov	 eax, DWORD PTR ___security_cookie
  0000e	33 c5		 xor	 eax, ebp
  00010	89 45 fc	 mov	 DWORD PTR __$ArrayPad$[ebp], eax
  00013	53		 push	 ebx
  00014	8b 5d 08	 mov	 ebx, DWORD PTR _rkPacket$[ebp]
  00017	56		 push	 esi
  00018	57		 push	 edi

; 117  : 	char szMacAddress[MAX_PATH]="";

  00019	bf 03 01 00 00	 mov	 edi, 259		; 00000103H
  0001e	57		 push	 edi
  0001f	8d 85 f9 fe ff
	ff		 lea	 eax, DWORD PTR _szMacAddress$[ebp+1]
  00025	6a 00		 push	 0
  00027	50		 push	 eax
  00028	8b f1		 mov	 esi, ecx
  0002a	c6 85 f8 fe ff
	ff 00		 mov	 BYTE PTR _szMacAddress$[ebp], 0
  00031	e8 00 00 00 00	 call	 _memset

; 118  : 	char szKey[MAX_PATH]=""; 

  00036	57		 push	 edi
  00037	8d 85 f5 fd ff
	ff		 lea	 eax, DWORD PTR _szKey$[ebp+1]
  0003d	6a 00		 push	 0
  0003f	50		 push	 eax
  00040	c6 85 f4 fd ff
	ff 00		 mov	 BYTE PTR _szKey$[ebp], 0
  00047	e8 00 00 00 00	 call	 _memset
  0004c	83 c4 18	 add	 esp, 24			; 00000018H

; 119  : 
; 120  : 	GetMacAddress( szMacAddress, sizeof( szMacAddress ) );

  0004f	47		 inc	 edi
  00050	57		 push	 edi
  00051	8d 85 f8 fe ff
	ff		 lea	 eax, DWORD PTR _szMacAddress$[ebp]
  00057	50		 push	 eax
  00058	8b ce		 mov	 ecx, esi
  0005a	e8 00 00 00 00	 call	 ?GetMacAddress@ioLocalSingapore@@IAEXPADH@Z ; ioLocalSingapore::GetMacAddress

; 121  : 	Help::RegReadString( REG_SHCU, "SOFTWARE\\Gemscool\\Premium","Key","",szKey,sizeof(szKey));

  0005f	57		 push	 edi
  00060	8d 85 f4 fd ff
	ff		 lea	 eax, DWORD PTR _szKey$[ebp]
  00066	50		 push	 eax
  00067	68 00 00 00 00	 push	 OFFSET ??_C@_00CNPNBAHC@?$AA@
  0006c	68 00 00 00 00	 push	 OFFSET ??_C@_03CCEPDEKL@Key?$AA@
  00071	68 00 00 00 00	 push	 OFFSET ??_C@_0BK@DONAKDKJ@SOFTWARE?2Gemscool?2Premium?$AA@
  00076	68 01 00 00 80	 push	 -2147483647		; 80000001H
  0007b	e8 00 00 00 00	 call	 ?RegReadString@Help@@YA_NPAUHKEY__@@PBD11PADK@Z ; Help::RegReadString
  00080	83 c4 18	 add	 esp, 24			; 00000018H

; 122  : 
; 123  : 	rkPacket << m_sLoginEncodePW;

  00083	8d 7e 70	 lea	 edi, DWORD PTR [esi+112]
  00086	57		 push	 edi
  00087	8b cb		 mov	 ecx, ebx
  00089	e8 00 00 00 00	 call	 ??6SP2Packet@@QAEAAV0@ABVioHashString@@@Z ; SP2Packet::operator<<

; 124  : 
; 125  : 	rkPacket << szMacAddress;

  0008e	8d 85 f8 fe ff
	ff		 lea	 eax, DWORD PTR _szMacAddress$[ebp]
  00094	50		 push	 eax
  00095	8b cb		 mov	 ecx, ebx
  00097	e8 00 00 00 00	 call	 ??6SP2Packet@@QAEAAV0@PAD@Z ; SP2Packet::operator<<

; 126  : 	rkPacket << szKey;

  0009c	8d 85 f4 fd ff
	ff		 lea	 eax, DWORD PTR _szKey$[ebp]
  000a2	50		 push	 eax
  000a3	8b cb		 mov	 ecx, ebx
  000a5	e8 00 00 00 00	 call	 ??6SP2Packet@@QAEAAV0@PAD@Z ; SP2Packet::operator<<

; 127  : 	rkPacket << m_sAuthPC << m_dwSessionID;

  000aa	ff b6 90 00 00
	00		 push	 DWORD PTR [esi+144]
  000b0	83 ee 80	 sub	 esi, -128		; ffffff80H
  000b3	56		 push	 esi
  000b4	8b cb		 mov	 ecx, ebx
  000b6	e8 00 00 00 00	 call	 ??6SP2Packet@@QAEAAV0@ABVioHashString@@@Z ; SP2Packet::operator<<
  000bb	8b c8		 mov	 ecx, eax
  000bd	e8 00 00 00 00	 call	 ??6SP2Packet@@QAEAAV0@K@Z ; SP2Packet::operator<<

; 128  : 
; 129  : 	//    
; 130  : 	m_sLoginEncodePW.Clear();

  000c2	8b cf		 mov	 ecx, edi
  000c4	ff 15 00 00 00
	00		 call	 DWORD PTR __imp_?Clear@ioHashString@@QAEXXZ

; 131  : }

  000ca	8b 4d fc	 mov	 ecx, DWORD PTR __$ArrayPad$[ebp]
  000cd	5f		 pop	 edi
  000ce	5e		 pop	 esi
  000cf	33 cd		 xor	 ecx, ebp
  000d1	5b		 pop	 ebx
  000d2	e8 00 00 00 00	 call	 @__security_check_cookie@4
  000d7	c9		 leave
  000d8	c2 04 00	 ret	 4
?FillLoginData@ioLocalSingapore@@UAEXAAVSP2Packet@@@Z ENDP ; ioLocalSingapore::FillLoginData
_TEXT	ENDS
END
