; Listing generated by Microsoft (R) Optimizing Compiler Version 16.00.30319.01 

	TITLE	D:\Lost Saga For Developer\Youtube\Tutorial\Source\src\LSClient\Local\ioLocalJapan.cpp
	.686P
	.XMM
	include listing.inc
	.model	flat

INCLUDELIB MSVCRT
INCLUDELIB OLDNAMES

PUBLIC	?GetCashURL@ioBrowserManager@@QBEABVioHashString@@XZ ; ioBrowserManager::GetCashURL
; Function compile flags: /Ogsp
; File d:\lost saga for developer\youtube\tutorial\source\src\lsclient\iobrowsermanager.h
;	COMDAT ?GetCashURL@ioBrowserManager@@QBEABVioHashString@@XZ
_TEXT	SEGMENT
?GetCashURL@ioBrowserManager@@QBEABVioHashString@@XZ PROC ; ioBrowserManager::GetCashURL, COMDAT
; _this$ = ecx

; 106  : 	inline const ioHashString& GetCashURL() const { return m_CashURL; }

  00000	8d 81 8c 00 00
	00		 lea	 eax, DWORD PTR [ecx+140]
  00006	c3		 ret	 0
?GetCashURL@ioBrowserManager@@QBEABVioHashString@@XZ ENDP ; ioBrowserManager::GetCashURL
_TEXT	ENDS
PUBLIC	??_7ioLocalJapan@@6B@				; ioLocalJapan::`vftable'
PUBLIC	??0ioLocalJapan@@QAE@XZ				; ioLocalJapan::ioLocalJapan
PUBLIC	??_R4ioLocalJapan@@6B@				; ioLocalJapan::`RTTI Complete Object Locator'
PUBLIC	??_R0?AVioLocalJapan@@@8			; ioLocalJapan `RTTI Type Descriptor'
PUBLIC	??_R3ioLocalJapan@@8				; ioLocalJapan::`RTTI Class Hierarchy Descriptor'
PUBLIC	??_R2ioLocalJapan@@8				; ioLocalJapan::`RTTI Base Class Array'
PUBLIC	??_R1A@?0A@EA@ioLocalJapan@@8			; ioLocalJapan::`RTTI Base Class Descriptor at (0,-1,0,64)'
PUBLIC	??_R1A@?0A@EA@ioLocalParent@@8			; ioLocalParent::`RTTI Base Class Descriptor at (0,-1,0,64)'
PUBLIC	??_R0?AVioLocalParent@@@8			; ioLocalParent `RTTI Type Descriptor'
PUBLIC	??_R3ioLocalParent@@8				; ioLocalParent::`RTTI Class Hierarchy Descriptor'
PUBLIC	??_R2ioLocalParent@@8				; ioLocalParent::`RTTI Base Class Array'
PUBLIC	?GetType@ioLocalJapan@@UAE?AW4LocalType@ioLocalManagerParent@@XZ ; ioLocalJapan::GetType
PUBLIC	?GetTextListFileName@ioLocalJapan@@UAEPBDXZ	; ioLocalJapan::GetTextListFileName
PUBLIC	?GetMemTextList@ioLocalJapan@@UAEPBDXZ		; ioLocalJapan::GetMemTextList
PUBLIC	?GetSubType@ioLocalParent@@UAEHXZ		; ioLocalParent::GetSubType
PUBLIC	?SetSubType@ioLocalParent@@UAEXH@Z		; ioLocalParent::SetSubType
PUBLIC	?GetResourceIDTitleCashBmp@ioLocalJapan@@UAEKXZ	; ioLocalJapan::GetResourceIDTitleCashBmp
PUBLIC	?GetResourceIDTitleEntryBmp@ioLocalJapan@@UAEKXZ ; ioLocalJapan::GetResourceIDTitleEntryBmp
PUBLIC	?GetResourceIDTitleGuildBmp@ioLocalJapan@@UAEKXZ ; ioLocalJapan::GetResourceIDTitleGuildBmp
PUBLIC	?GetResourceIDTitleGuildMarkBmp@ioLocalJapan@@UAEKXZ ; ioLocalJapan::GetResourceIDTitleGuildMarkBmp
PUBLIC	?GetResourceIDTitleHomeBmp@ioLocalJapan@@UAEKXZ	; ioLocalJapan::GetResourceIDTitleHomeBmp
PUBLIC	?GetResourceIDTitleBmp@ioLocalJapan@@UAEKXZ	; ioLocalJapan::GetResourceIDTitleBmp
PUBLIC	?GetResourceIDTitleWebShop@ioLocalParent@@UAEKXZ ; ioLocalParent::GetResourceIDTitleWebShop
PUBLIC	?GetResourceIDErrorBack@ioLocalJapan@@UAEKXZ	; ioLocalJapan::GetResourceIDErrorBack
PUBLIC	?GetResourceIDErrorExitC@ioLocalJapan@@UAEKXZ	; ioLocalJapan::GetResourceIDErrorExitC
PUBLIC	?GetResourceIDErrorExitN@ioLocalJapan@@UAEKXZ	; ioLocalJapan::GetResourceIDErrorExitN
PUBLIC	?GetResourceIDErrorExitO@ioLocalJapan@@UAEKXZ	; ioLocalJapan::GetResourceIDErrorExitO
PUBLIC	?GetResourceIDErrorSolutionC@ioLocalJapan@@UAEKXZ ; ioLocalJapan::GetResourceIDErrorSolutionC
PUBLIC	?GetResourceIDErrorSolutionN@ioLocalJapan@@UAEKXZ ; ioLocalJapan::GetResourceIDErrorSolutionN
PUBLIC	?GetResourceIDErrorSolutionO@ioLocalJapan@@UAEKXZ ; ioLocalJapan::GetResourceIDErrorSolutionO
PUBLIC	?SetLoginData@ioLocalJapan@@UAEXABVioHashString@@@Z ; ioLocalJapan::SetLoginData
PUBLIC	?SetWarnetInfo@ioLocalParent@@UAEXABVioHashString@@K@Z ; ioLocalParent::SetWarnetInfo
PUBLIC	?FillLoginData@ioLocalJapan@@UAEXAAVSP2Packet@@@Z ; ioLocalJapan::FillLoginData
PUBLIC	?GetClassTypeForTutorialDropItem@ioLocalJapan@@UAEXAAH@Z ; ioLocalJapan::GetClassTypeForTutorialDropItem
PUBLIC	?GetGuildMasterPostion@ioLocalJapan@@UAEPBDXZ	; ioLocalJapan::GetGuildMasterPostion
PUBLIC	?GetGuildSecondMasterPosition@ioLocalJapan@@UAEPBDXZ ; ioLocalJapan::GetGuildSecondMasterPosition
PUBLIC	?GetGuildGeneralPosition@ioLocalJapan@@UAEPBDXZ	; ioLocalJapan::GetGuildGeneralPosition
PUBLIC	?GetGuildAdminPosition@ioLocalJapan@@UAEPBDXZ	; ioLocalJapan::GetGuildAdminPosition
PUBLIC	?GetErrorSolutionURL@ioLocalJapan@@UAEPBDXZ	; ioLocalJapan::GetErrorSolutionURL
PUBLIC	?GetBillingErrorMent@ioLocalJapan@@UAEPBDAAVioHashString@@@Z ; ioLocalJapan::GetBillingErrorMent
PUBLIC	?GetFirstIDMaxSize@ioLocalJapan@@UAEHXZ		; ioLocalJapan::GetFirstIDMaxSize
PUBLIC	?IsShowFirstIDWnd@ioLocalJapan@@UAE_NXZ		; ioLocalJapan::IsShowFirstIDWnd
PUBLIC	?OpenFillCashPage@ioLocalJapan@@UAEXXZ		; ioLocalJapan::OpenFillCashPage
PUBLIC	?IsRightNewID@ioLocalJapan@@UAE_NPBD@Z		; ioLocalJapan::IsRightNewID
PUBLIC	?IsSendGashaponList@ioLocalJapan@@UAE_NXZ	; ioLocalJapan::IsSendGashaponList
PUBLIC	?GetChangedString@ioLocalJapan@@UAEXPAD@Z	; ioLocalJapan::GetChangedString
PUBLIC	?IsExecuteLuncher@ioLocalJapan@@UAE_NXZ		; ioLocalJapan::IsExecuteLuncher
PUBLIC	?IsKoreaGameLimit@ioLocalJapan@@UAE_NXZ		; ioLocalJapan::IsKoreaGameLimit
PUBLIC	?IsCheckKorean@ioLocalJapan@@UAE_NXZ		; ioLocalJapan::IsCheckKorean
PUBLIC	?IsFirstIDCheckPass@ioLocalParent@@UAE_NXZ	; ioLocalParent::IsFirstIDCheckPass
PUBLIC	?IsMyHomePage@ioLocalJapan@@UAE_NXZ		; ioLocalJapan::IsMyHomePage
PUBLIC	?IsShowExtraGoodsList@ioLocalJapan@@UAE_NXZ	; ioLocalJapan::IsShowExtraGoodsList
PUBLIC	?IsShowRegulation@ioLocalJapan@@UAE_NXZ		; ioLocalJapan::IsShowRegulation
PUBLIC	?IsStartFullScreen@ioLocalParent@@UAE_NXZ	; ioLocalParent::IsStartFullScreen
PUBLIC	?IsTooltipAutoLine@ioLocalParent@@UAE_NXZ	; ioLocalParent::IsTooltipAutoLine
PUBLIC	?IsMileage@ioLocalJapan@@UAE_NXZ		; ioLocalJapan::IsMileage
PUBLIC	?IsGatotkacaPremium@ioLocalParent@@UAE_NH@Z	; ioLocalParent::IsGatotkacaPremium
PUBLIC	?IsPointBlankPremium@ioLocalParent@@UAE_NH@Z	; ioLocalParent::IsPointBlankPremium
PUBLIC	?SetPresentRecvDisableMsg@ioLocalJapan@@UAE_NH@Z ; ioLocalJapan::SetPresentRecvDisableMsg
PUBLIC	?GetLimitGradeLevel@ioLocalJapan@@UAEHXZ	; ioLocalJapan::GetLimitGradeLevel
PUBLIC	?IsEndFishingByMove@ioLocalParent@@UAE_NXZ	; ioLocalParent::IsEndFishingByMove
PUBLIC	?GetLicenseDate@ioLocalJapan@@UAEHXZ		; ioLocalJapan::GetLicenseDate
PUBLIC	?IsShowFirstSoldierSelectWnd@ioLocalJapan@@UAE_NXZ ; ioLocalJapan::IsShowFirstSoldierSelectWnd
PUBLIC	?ExitAction@ioLocalParent@@UAEXXZ		; ioLocalParent::ExitAction
PUBLIC	?ShowHackShieldErrorDlg@ioLocalParent@@UAEXABVioHashString@@@Z ; ioLocalParent::ShowHackShieldErrorDlg
PUBLIC	?GetCashSendTime@ioLocalParent@@UAEKXZ		; ioLocalParent::GetCashSendTime
PUBLIC	?IsHeadquarterWebPage@ioLocalJapan@@UAE_NXZ	; ioLocalJapan::IsHeadquarterWebPage
PUBLIC	?IsFirstIDControlAltCtrl@ioLocalParent@@UAE_NXZ	; ioLocalParent::IsFirstIDControlAltCtrl
PUBLIC	?IsPCRoomBonusSoldier@ioLocalParent@@UAE_NXZ	; ioLocalParent::IsPCRoomBonusSoldier
PUBLIC	?IsCheckValueServer@ioLocalParent@@UAE_NXZ	; ioLocalParent::IsCheckValueServer
PUBLIC	?IsChangeServerHelp@ioLocalParent@@UAE_NXZ	; ioLocalParent::IsChangeServerHelp
PUBLIC	?IsSendCollisionPos@ioLocalParent@@UAE_NXZ	; ioLocalParent::IsSendCollisionPos
PUBLIC	?IsLimitStartCancel@ioLocalParent@@UAE_NXZ	; ioLocalParent::IsLimitStartCancel
PUBLIC	?IsCreateMiniDump@ioLocalParent@@UAE_NXZ	; ioLocalParent::IsCreateMiniDump
PUBLIC	?IsTickCheck@ioLocalParent@@UAE_NXZ		; ioLocalParent::IsTickCheck
PUBLIC	?IsAnnounceShutDown@ioLocalParent@@UAE_NXZ	; ioLocalParent::IsAnnounceShutDown
PUBLIC	?IsUseMedalLevelOpen@ioLocalParent@@UAE_NXZ	; ioLocalParent::IsUseMedalLevelOpen
PUBLIC	?IsUsePresentMacroInShipping@ioLocalParent@@UAE_NXZ ; ioLocalParent::IsUsePresentMacroInShipping
PUBLIC	?IsSendChatLog@ioLocalParent@@UAE_NXZ		; ioLocalParent::IsSendChatLog
PUBLIC	?IsUseVoiceChat@ioLocalParent@@UAE_NXZ		; ioLocalParent::IsUseVoiceChat
PUBLIC	?IsMemoryLoadMapPac@ioLocalParent@@UAE_NXZ	; ioLocalParent::IsMemoryLoadMapPac
PUBLIC	?GetCashPageWidth@ioLocalParent@@UAEHXZ		; ioLocalParent::GetCashPageWidth
PUBLIC	?GetCashPageHeight@ioLocalParent@@UAEHXZ	; ioLocalParent::GetCashPageHeight
PUBLIC	?OnCashPageHide@ioLocalParent@@UAEXXZ		; ioLocalParent::OnCashPageHide
PUBLIC	?GetProgramExitWaitSec@ioLocalParent@@UAEHXZ	; ioLocalParent::GetProgramExitWaitSec
PUBLIC	?GetFillCashURL@ioLocalParent@@UAEXAAVioHashString@@ABV2@@Z ; ioLocalParent::GetFillCashURL
PUBLIC	?SetWebLoginKey@ioLocalParent@@UAEXABVioHashString@@@Z ; ioLocalParent::SetWebLoginKey
PUBLIC	?GetHighSpecWidth@ioLocalParent@@UAEHXZ		; ioLocalParent::GetHighSpecWidth
PUBLIC	?GetHighSpecHeight@ioLocalParent@@UAEHXZ	; ioLocalParent::GetHighSpecHeight
PUBLIC	?SetGoldChargeBtn@ioLocalParent@@UAEX_N@Z	; ioLocalParent::SetGoldChargeBtn
PUBLIC	?GetGoldChargeBtn@ioLocalParent@@UAE_NXZ	; ioLocalParent::GetGoldChargeBtn
PUBLIC	?SetCashReqTime@ioLocalParent@@UAEXK@Z		; ioLocalParent::SetCashReqTime
PUBLIC	?GetCashReqTime@ioLocalParent@@UAEKXZ		; ioLocalParent::GetCashReqTime
PUBLIC	?GetWebShopUrl@ioLocalParent@@UAE?AVioHashString@@XZ ; ioLocalParent::GetWebShopUrl
PUBLIC	?OpenWebPage@ioLocalParent@@UAEXH@Z		; ioLocalParent::OpenWebPage
EXTRN	??0ioLocalParent@@QAE@XZ:PROC			; ioLocalParent::ioLocalParent
EXTRN	??_7type_info@@6B@:QWORD			; type_info::`vftable'
EXTRN	?SetTimeZone@ioLocalParent@@UAEXXZ:PROC		; ioLocalParent::SetTimeZone
EXTRN	?IsRightLicense@ioLocalParent@@UAE_NXZ:PROC	; ioLocalParent::IsRightLicense
EXTRN	?LoadINI@ioLocalParent@@UAEXXZ:PROC		; ioLocalParent::LoadINI
EXTRN	?GetLocalGMT@ioLocalParent@@UAEPBDXZ:PROC	; ioLocalParent::GetLocalGMT
EXTRN	?ProcessGetCash@ioLocalParent@@UAEXXZ:PROC	; ioLocalParent::ProcessGetCash
EXTRN	??_EioLocalJapan@@UAEPAXI@Z:PROC		; ioLocalJapan::`vector deleting destructor'
;	COMDAT ??_R2ioLocalParent@@8
; File d:\lost saga for developer\youtube\tutorial\source\src\lsclient\local\iolocaljapan.cpp
rdata$r	SEGMENT
??_R2ioLocalParent@@8 DD FLAT:??_R1A@?0A@EA@ioLocalParent@@8 ; ioLocalParent::`RTTI Base Class Array'
rdata$r	ENDS
;	COMDAT ??_R3ioLocalParent@@8
rdata$r	SEGMENT
??_R3ioLocalParent@@8 DD 00H				; ioLocalParent::`RTTI Class Hierarchy Descriptor'
	DD	00H
	DD	01H
	DD	FLAT:??_R2ioLocalParent@@8
rdata$r	ENDS
;	COMDAT ??_R0?AVioLocalParent@@@8
_DATA	SEGMENT
??_R0?AVioLocalParent@@@8 DD FLAT:??_7type_info@@6B@	; ioLocalParent `RTTI Type Descriptor'
	DD	00H
	DB	'.?AVioLocalParent@@', 00H
_DATA	ENDS
;	COMDAT ??_R1A@?0A@EA@ioLocalParent@@8
rdata$r	SEGMENT
??_R1A@?0A@EA@ioLocalParent@@8 DD FLAT:??_R0?AVioLocalParent@@@8 ; ioLocalParent::`RTTI Base Class Descriptor at (0,-1,0,64)'
	DD	00H
	DD	00H
	DD	0ffffffffH
	DD	00H
	DD	040H
	DD	FLAT:??_R3ioLocalParent@@8
rdata$r	ENDS
;	COMDAT ??_R1A@?0A@EA@ioLocalJapan@@8
rdata$r	SEGMENT
??_R1A@?0A@EA@ioLocalJapan@@8 DD FLAT:??_R0?AVioLocalJapan@@@8 ; ioLocalJapan::`RTTI Base Class Descriptor at (0,-1,0,64)'
	DD	01H
	DD	00H
	DD	0ffffffffH
	DD	00H
	DD	040H
	DD	FLAT:??_R3ioLocalJapan@@8
rdata$r	ENDS
;	COMDAT ??_R2ioLocalJapan@@8
rdata$r	SEGMENT
??_R2ioLocalJapan@@8 DD FLAT:??_R1A@?0A@EA@ioLocalJapan@@8 ; ioLocalJapan::`RTTI Base Class Array'
	DD	FLAT:??_R1A@?0A@EA@ioLocalParent@@8
rdata$r	ENDS
;	COMDAT ??_R3ioLocalJapan@@8
rdata$r	SEGMENT
??_R3ioLocalJapan@@8 DD 00H				; ioLocalJapan::`RTTI Class Hierarchy Descriptor'
	DD	00H
	DD	02H
	DD	FLAT:??_R2ioLocalJapan@@8
rdata$r	ENDS
;	COMDAT ??_R0?AVioLocalJapan@@@8
_DATA	SEGMENT
??_R0?AVioLocalJapan@@@8 DD FLAT:??_7type_info@@6B@	; ioLocalJapan `RTTI Type Descriptor'
	DD	00H
	DB	'.?AVioLocalJapan@@', 00H
_DATA	ENDS
;	COMDAT ??_R4ioLocalJapan@@6B@
rdata$r	SEGMENT
??_R4ioLocalJapan@@6B@ DD 00H				; ioLocalJapan::`RTTI Complete Object Locator'
	DD	00H
	DD	00H
	DD	FLAT:??_R0?AVioLocalJapan@@@8
	DD	FLAT:??_R3ioLocalJapan@@8
rdata$r	ENDS
;	COMDAT ??_7ioLocalJapan@@6B@
CONST	SEGMENT
??_7ioLocalJapan@@6B@ DD FLAT:??_R4ioLocalJapan@@6B@	; ioLocalJapan::`vftable'
	DD	FLAT:?GetType@ioLocalJapan@@UAE?AW4LocalType@ioLocalManagerParent@@XZ
	DD	FLAT:?GetTextListFileName@ioLocalJapan@@UAEPBDXZ
	DD	FLAT:?GetMemTextList@ioLocalJapan@@UAEPBDXZ
	DD	FLAT:?GetSubType@ioLocalParent@@UAEHXZ
	DD	FLAT:?SetSubType@ioLocalParent@@UAEXH@Z
	DD	FLAT:?GetResourceIDTitleCashBmp@ioLocalJapan@@UAEKXZ
	DD	FLAT:?GetResourceIDTitleEntryBmp@ioLocalJapan@@UAEKXZ
	DD	FLAT:?GetResourceIDTitleGuildBmp@ioLocalJapan@@UAEKXZ
	DD	FLAT:?GetResourceIDTitleGuildMarkBmp@ioLocalJapan@@UAEKXZ
	DD	FLAT:?GetResourceIDTitleHomeBmp@ioLocalJapan@@UAEKXZ
	DD	FLAT:?GetResourceIDTitleBmp@ioLocalJapan@@UAEKXZ
	DD	FLAT:?GetResourceIDTitleWebShop@ioLocalParent@@UAEKXZ
	DD	FLAT:?GetResourceIDErrorBack@ioLocalJapan@@UAEKXZ
	DD	FLAT:?GetResourceIDErrorExitC@ioLocalJapan@@UAEKXZ
	DD	FLAT:?GetResourceIDErrorExitN@ioLocalJapan@@UAEKXZ
	DD	FLAT:?GetResourceIDErrorExitO@ioLocalJapan@@UAEKXZ
	DD	FLAT:?GetResourceIDErrorSolutionC@ioLocalJapan@@UAEKXZ
	DD	FLAT:?GetResourceIDErrorSolutionN@ioLocalJapan@@UAEKXZ
	DD	FLAT:?GetResourceIDErrorSolutionO@ioLocalJapan@@UAEKXZ
	DD	FLAT:?SetLoginData@ioLocalJapan@@UAEXABVioHashString@@@Z
	DD	FLAT:?SetWarnetInfo@ioLocalParent@@UAEXABVioHashString@@K@Z
	DD	FLAT:?FillLoginData@ioLocalJapan@@UAEXAAVSP2Packet@@@Z
	DD	FLAT:?GetClassTypeForTutorialDropItem@ioLocalJapan@@UAEXAAH@Z
	DD	FLAT:?GetGuildMasterPostion@ioLocalJapan@@UAEPBDXZ
	DD	FLAT:?GetGuildSecondMasterPosition@ioLocalJapan@@UAEPBDXZ
	DD	FLAT:?GetGuildGeneralPosition@ioLocalJapan@@UAEPBDXZ
	DD	FLAT:?GetGuildAdminPosition@ioLocalJapan@@UAEPBDXZ
	DD	FLAT:?GetErrorSolutionURL@ioLocalJapan@@UAEPBDXZ
	DD	FLAT:?GetBillingErrorMent@ioLocalJapan@@UAEPBDAAVioHashString@@@Z
	DD	FLAT:?GetFirstIDMaxSize@ioLocalJapan@@UAEHXZ
	DD	FLAT:?IsShowFirstIDWnd@ioLocalJapan@@UAE_NXZ
	DD	FLAT:?OpenFillCashPage@ioLocalJapan@@UAEXXZ
	DD	FLAT:?IsRightNewID@ioLocalJapan@@UAE_NPBD@Z
	DD	FLAT:?SetTimeZone@ioLocalParent@@UAEXXZ
	DD	FLAT:?IsSendGashaponList@ioLocalJapan@@UAE_NXZ
	DD	FLAT:?GetChangedString@ioLocalJapan@@UAEXPAD@Z
	DD	FLAT:?IsExecuteLuncher@ioLocalJapan@@UAE_NXZ
	DD	FLAT:?IsKoreaGameLimit@ioLocalJapan@@UAE_NXZ
	DD	FLAT:?IsCheckKorean@ioLocalJapan@@UAE_NXZ
	DD	FLAT:?IsFirstIDCheckPass@ioLocalParent@@UAE_NXZ
	DD	FLAT:?IsMyHomePage@ioLocalJapan@@UAE_NXZ
	DD	FLAT:?IsShowExtraGoodsList@ioLocalJapan@@UAE_NXZ
	DD	FLAT:?IsShowRegulation@ioLocalJapan@@UAE_NXZ
	DD	FLAT:?IsStartFullScreen@ioLocalParent@@UAE_NXZ
	DD	FLAT:?IsTooltipAutoLine@ioLocalParent@@UAE_NXZ
	DD	FLAT:?IsMileage@ioLocalJapan@@UAE_NXZ
	DD	FLAT:?IsGatotkacaPremium@ioLocalParent@@UAE_NH@Z
	DD	FLAT:?IsPointBlankPremium@ioLocalParent@@UAE_NH@Z
	DD	FLAT:?SetPresentRecvDisableMsg@ioLocalJapan@@UAE_NH@Z
	DD	FLAT:?GetLimitGradeLevel@ioLocalJapan@@UAEHXZ
	DD	FLAT:?IsEndFishingByMove@ioLocalParent@@UAE_NXZ
	DD	FLAT:?IsRightLicense@ioLocalParent@@UAE_NXZ
	DD	FLAT:?GetLicenseDate@ioLocalJapan@@UAEHXZ
	DD	FLAT:?IsShowFirstSoldierSelectWnd@ioLocalJapan@@UAE_NXZ
	DD	FLAT:?ExitAction@ioLocalParent@@UAEXXZ
	DD	FLAT:?ShowHackShieldErrorDlg@ioLocalParent@@UAEXABVioHashString@@@Z
	DD	FLAT:?GetCashSendTime@ioLocalParent@@UAEKXZ
	DD	FLAT:?IsHeadquarterWebPage@ioLocalJapan@@UAE_NXZ
	DD	FLAT:?IsFirstIDControlAltCtrl@ioLocalParent@@UAE_NXZ
	DD	FLAT:?IsPCRoomBonusSoldier@ioLocalParent@@UAE_NXZ
	DD	FLAT:?IsCheckValueServer@ioLocalParent@@UAE_NXZ
	DD	FLAT:?IsChangeServerHelp@ioLocalParent@@UAE_NXZ
	DD	FLAT:?IsSendCollisionPos@ioLocalParent@@UAE_NXZ
	DD	FLAT:?IsLimitStartCancel@ioLocalParent@@UAE_NXZ
	DD	FLAT:?IsCreateMiniDump@ioLocalParent@@UAE_NXZ
	DD	FLAT:?IsTickCheck@ioLocalParent@@UAE_NXZ
	DD	FLAT:?IsAnnounceShutDown@ioLocalParent@@UAE_NXZ
	DD	FLAT:?IsUseMedalLevelOpen@ioLocalParent@@UAE_NXZ
	DD	FLAT:?IsUsePresentMacroInShipping@ioLocalParent@@UAE_NXZ
	DD	FLAT:?IsSendChatLog@ioLocalParent@@UAE_NXZ
	DD	FLAT:?IsUseVoiceChat@ioLocalParent@@UAE_NXZ
	DD	FLAT:?IsMemoryLoadMapPac@ioLocalParent@@UAE_NXZ
	DD	FLAT:?GetCashPageWidth@ioLocalParent@@UAEHXZ
	DD	FLAT:?GetCashPageHeight@ioLocalParent@@UAEHXZ
	DD	FLAT:?OnCashPageHide@ioLocalParent@@UAEXXZ
	DD	FLAT:?GetProgramExitWaitSec@ioLocalParent@@UAEHXZ
	DD	FLAT:?GetFillCashURL@ioLocalParent@@UAEXAAVioHashString@@ABV2@@Z
	DD	FLAT:?LoadINI@ioLocalParent@@UAEXXZ
	DD	FLAT:?SetWebLoginKey@ioLocalParent@@UAEXABVioHashString@@@Z
	DD	FLAT:?GetHighSpecWidth@ioLocalParent@@UAEHXZ
	DD	FLAT:?GetHighSpecHeight@ioLocalParent@@UAEHXZ
	DD	FLAT:?GetLocalGMT@ioLocalParent@@UAEPBDXZ
	DD	FLAT:?SetGoldChargeBtn@ioLocalParent@@UAEX_N@Z
	DD	FLAT:?GetGoldChargeBtn@ioLocalParent@@UAE_NXZ
	DD	FLAT:?ProcessGetCash@ioLocalParent@@UAEXXZ
	DD	FLAT:?SetCashReqTime@ioLocalParent@@UAEXK@Z
	DD	FLAT:?GetCashReqTime@ioLocalParent@@UAEKXZ
	DD	FLAT:?GetWebShopUrl@ioLocalParent@@UAE?AVioHashString@@XZ
	DD	FLAT:?OpenWebPage@ioLocalParent@@UAEXH@Z
	DD	FLAT:??_EioLocalJapan@@UAEPAXI@Z
; Function compile flags: /Ogsp
CONST	ENDS
;	COMDAT ??0ioLocalJapan@@QAE@XZ
_TEXT	SEGMENT
??0ioLocalJapan@@QAE@XZ PROC				; ioLocalJapan::ioLocalJapan, COMDAT
; _this$ = ecx

; 12   : {

  00000	56		 push	 esi
  00001	8b f1		 mov	 esi, ecx
  00003	e8 00 00 00 00	 call	 ??0ioLocalParent@@QAE@XZ ; ioLocalParent::ioLocalParent
  00008	c7 06 00 00 00
	00		 mov	 DWORD PTR [esi], OFFSET ??_7ioLocalJapan@@6B@

; 13   : }

  0000e	8b c6		 mov	 eax, esi
  00010	5e		 pop	 esi
  00011	c3		 ret	 0
??0ioLocalJapan@@QAE@XZ ENDP				; ioLocalJapan::ioLocalJapan
; Function compile flags: /Ogsp
; File d:\lost saga for developer\youtube\tutorial\source\src\lsclient\local\iolocaljapan.h
_TEXT	ENDS
;	COMDAT ?IsMileage@ioLocalJapan@@UAE_NXZ
_TEXT	SEGMENT
?IsMileage@ioLocalJapan@@UAE_NXZ PROC			; ioLocalJapan::IsMileage, COMDAT
; _this$ = ecx

; 55   : 	virtual bool IsMileage() { return true; }

  00000	b0 01		 mov	 al, 1
  00002	c3		 ret	 0
?IsMileage@ioLocalJapan@@UAE_NXZ ENDP			; ioLocalJapan::IsMileage
; Function compile flags: /Ogsp
_TEXT	ENDS
;	COMDAT ?IsShowFirstSoldierSelectWnd@ioLocalJapan@@UAE_NXZ
_TEXT	SEGMENT
?IsShowFirstSoldierSelectWnd@ioLocalJapan@@UAE_NXZ PROC	; ioLocalJapan::IsShowFirstSoldierSelectWnd, COMDAT
; _this$ = ecx

; 63   : 	virtual bool IsShowFirstSoldierSelectWnd() { return true; }

  00000	b0 01		 mov	 al, 1
  00002	c3		 ret	 0
?IsShowFirstSoldierSelectWnd@ioLocalJapan@@UAE_NXZ ENDP	; ioLocalJapan::IsShowFirstSoldierSelectWnd
; Function compile flags: /Ogsp
_TEXT	ENDS
;	COMDAT ?IsHeadquarterWebPage@ioLocalJapan@@UAE_NXZ
_TEXT	SEGMENT
?IsHeadquarterWebPage@ioLocalJapan@@UAE_NXZ PROC	; ioLocalJapan::IsHeadquarterWebPage, COMDAT
; _this$ = ecx

; 64   : 	virtual bool IsHeadquarterWebPage() { return true; }

  00000	b0 01		 mov	 al, 1
  00002	c3		 ret	 0
?IsHeadquarterWebPage@ioLocalJapan@@UAE_NXZ ENDP	; ioLocalJapan::IsHeadquarterWebPage
_TEXT	ENDS
PUBLIC	??1ioLocalJapan@@UAE@XZ				; ioLocalJapan::~ioLocalJapan
EXTRN	??1ioLocalParent@@UAE@XZ:PROC			; ioLocalParent::~ioLocalParent
; Function compile flags: /Ogsp
; File d:\lost saga for developer\youtube\tutorial\source\src\lsclient\local\iolocaljapan.cpp
;	COMDAT ??1ioLocalJapan@@UAE@XZ
_TEXT	SEGMENT
??1ioLocalJapan@@UAE@XZ PROC				; ioLocalJapan::~ioLocalJapan, COMDAT
; _this$ = ecx

; 16   : {

  00000	c7 01 00 00 00
	00		 mov	 DWORD PTR [ecx], OFFSET ??_7ioLocalJapan@@6B@

; 17   : }

  00006	e9 00 00 00 00	 jmp	 ??1ioLocalParent@@UAE@XZ ; ioLocalParent::~ioLocalParent
??1ioLocalJapan@@UAE@XZ ENDP				; ioLocalJapan::~ioLocalJapan
; Function compile flags: /Ogsp
_TEXT	ENDS
;	COMDAT ?GetType@ioLocalJapan@@UAE?AW4LocalType@ioLocalManagerParent@@XZ
_TEXT	SEGMENT
?GetType@ioLocalJapan@@UAE?AW4LocalType@ioLocalManagerParent@@XZ PROC ; ioLocalJapan::GetType, COMDAT
; _this$ = ecx

; 21   : 	return ioLocalManager::LCT_JAPAN;

  00000	b8 8e 2a ba 0c	 mov	 eax, 213527182		; 0cba2a8eH

; 22   : }

  00005	c3		 ret	 0
?GetType@ioLocalJapan@@UAE?AW4LocalType@ioLocalManagerParent@@XZ ENDP ; ioLocalJapan::GetType
_TEXT	ENDS
PUBLIC	??_C@_08OIJLCFHI@text?4txt?$AA@			; `string'
;	COMDAT ??_C@_08OIJLCFHI@text?4txt?$AA@
CONST	SEGMENT
??_C@_08OIJLCFHI@text?4txt?$AA@ DB 'text.txt', 00H	; `string'
; Function compile flags: /Ogsp
CONST	ENDS
;	COMDAT ?GetTextListFileName@ioLocalJapan@@UAEPBDXZ
_TEXT	SEGMENT
?GetTextListFileName@ioLocalJapan@@UAEPBDXZ PROC	; ioLocalJapan::GetTextListFileName, COMDAT
; _this$ = ecx

; 26   : 	return "text.txt";

  00000	b8 00 00 00 00	 mov	 eax, OFFSET ??_C@_08OIJLCFHI@text?4txt?$AA@

; 27   : }

  00005	c3		 ret	 0
?GetTextListFileName@ioLocalJapan@@UAEPBDXZ ENDP	; ioLocalJapan::GetTextListFileName
_TEXT	ENDS
EXTRN	?GetMemTextList@JapanLanguage@@YAPBDXZ:PROC	; JapanLanguage::GetMemTextList
; Function compile flags: /Ogsp
;	COMDAT ?GetMemTextList@ioLocalJapan@@UAEPBDXZ
_TEXT	SEGMENT
?GetMemTextList@ioLocalJapan@@UAEPBDXZ PROC		; ioLocalJapan::GetMemTextList, COMDAT
; _this$ = ecx

; 31   : 	return JapanLanguage::GetMemTextList(); 

  00000	e9 00 00 00 00	 jmp	 ?GetMemTextList@JapanLanguage@@YAPBDXZ ; JapanLanguage::GetMemTextList
?GetMemTextList@ioLocalJapan@@UAEPBDXZ ENDP		; ioLocalJapan::GetMemTextList
; Function compile flags: /Ogsp
_TEXT	ENDS
;	COMDAT ?GetResourceIDTitleCashBmp@ioLocalJapan@@UAEKXZ
_TEXT	SEGMENT
?GetResourceIDTitleCashBmp@ioLocalJapan@@UAEKXZ PROC	; ioLocalJapan::GetResourceIDTitleCashBmp, COMDAT
; _this$ = ecx

; 36   : 	return IDB_WEB_TITLE_CASH_JP;

  00000	b8 ae 00 00 00	 mov	 eax, 174		; 000000aeH

; 37   : }

  00005	c3		 ret	 0
?GetResourceIDTitleCashBmp@ioLocalJapan@@UAEKXZ ENDP	; ioLocalJapan::GetResourceIDTitleCashBmp
; Function compile flags: /Ogsp
_TEXT	ENDS
;	COMDAT ?GetResourceIDTitleEntryBmp@ioLocalJapan@@UAEKXZ
_TEXT	SEGMENT
?GetResourceIDTitleEntryBmp@ioLocalJapan@@UAEKXZ PROC	; ioLocalJapan::GetResourceIDTitleEntryBmp, COMDAT
; _this$ = ecx

; 41   : 	return IDB_WEB_TITLE_ENTRY_JP;

  00000	b8 af 00 00 00	 mov	 eax, 175		; 000000afH

; 42   : }

  00005	c3		 ret	 0
?GetResourceIDTitleEntryBmp@ioLocalJapan@@UAEKXZ ENDP	; ioLocalJapan::GetResourceIDTitleEntryBmp
; Function compile flags: /Ogsp
_TEXT	ENDS
;	COMDAT ?GetResourceIDTitleGuildBmp@ioLocalJapan@@UAEKXZ
_TEXT	SEGMENT
?GetResourceIDTitleGuildBmp@ioLocalJapan@@UAEKXZ PROC	; ioLocalJapan::GetResourceIDTitleGuildBmp, COMDAT
; _this$ = ecx

; 46   : 	return IDB_WEB_TITLE_GUILD;

  00000	6a 74		 push	 116			; 00000074H
  00002	58		 pop	 eax

; 47   : }

  00003	c3		 ret	 0
?GetResourceIDTitleGuildBmp@ioLocalJapan@@UAEKXZ ENDP	; ioLocalJapan::GetResourceIDTitleGuildBmp
; Function compile flags: /Ogsp
_TEXT	ENDS
;	COMDAT ?GetResourceIDTitleGuildMarkBmp@ioLocalJapan@@UAEKXZ
_TEXT	SEGMENT
?GetResourceIDTitleGuildMarkBmp@ioLocalJapan@@UAEKXZ PROC ; ioLocalJapan::GetResourceIDTitleGuildMarkBmp, COMDAT
; _this$ = ecx

; 51   : 	return IDB_WEB_TITLE_GUILD_MARK;

  00000	6a 76		 push	 118			; 00000076H
  00002	58		 pop	 eax

; 52   : }

  00003	c3		 ret	 0
?GetResourceIDTitleGuildMarkBmp@ioLocalJapan@@UAEKXZ ENDP ; ioLocalJapan::GetResourceIDTitleGuildMarkBmp
; Function compile flags: /Ogsp
_TEXT	ENDS
;	COMDAT ?GetResourceIDTitleHomeBmp@ioLocalJapan@@UAEKXZ
_TEXT	SEGMENT
?GetResourceIDTitleHomeBmp@ioLocalJapan@@UAEKXZ PROC	; ioLocalJapan::GetResourceIDTitleHomeBmp, COMDAT
; _this$ = ecx

; 56   : 	return IDB_WEB_TITLE_HOME_JP;

  00000	b8 b0 00 00 00	 mov	 eax, 176		; 000000b0H

; 57   : }

  00005	c3		 ret	 0
?GetResourceIDTitleHomeBmp@ioLocalJapan@@UAEKXZ ENDP	; ioLocalJapan::GetResourceIDTitleHomeBmp
; Function compile flags: /Ogsp
_TEXT	ENDS
;	COMDAT ?GetResourceIDTitleBmp@ioLocalJapan@@UAEKXZ
_TEXT	SEGMENT
?GetResourceIDTitleBmp@ioLocalJapan@@UAEKXZ PROC	; ioLocalJapan::GetResourceIDTitleBmp, COMDAT
; _this$ = ecx

; 61   : 	return IDB_WINDOW_TITLE_LOSA_JP;

  00000	b8 b1 00 00 00	 mov	 eax, 177		; 000000b1H

; 62   : }

  00005	c3		 ret	 0
?GetResourceIDTitleBmp@ioLocalJapan@@UAEKXZ ENDP	; ioLocalJapan::GetResourceIDTitleBmp
; Function compile flags: /Ogsp
_TEXT	ENDS
;	COMDAT ?SetLoginData@ioLocalJapan@@UAEXABVioHashString@@@Z
_TEXT	SEGMENT
_szBillingUserKey$ = 8					; size = 4
?SetLoginData@ioLocalJapan@@UAEXABVioHashString@@@Z PROC ; ioLocalJapan::SetLoginData, COMDAT
; _this$ = ecx

; 66   : 
; 67   : }

  00000	c2 04 00	 ret	 4
?SetLoginData@ioLocalJapan@@UAEXABVioHashString@@@Z ENDP ; ioLocalJapan::SetLoginData
; Function compile flags: /Ogsp
_TEXT	ENDS
;	COMDAT ?FillLoginData@ioLocalJapan@@UAEXAAVSP2Packet@@@Z
_TEXT	SEGMENT
_rkPacket$ = 8						; size = 4
?FillLoginData@ioLocalJapan@@UAEXAAVSP2Packet@@@Z PROC	; ioLocalJapan::FillLoginData, COMDAT
; _this$ = ecx

; 71   : 
; 72   : }

  00000	c2 04 00	 ret	 4
?FillLoginData@ioLocalJapan@@UAEXAAVSP2Packet@@@Z ENDP	; ioLocalJapan::FillLoginData
; Function compile flags: /Ogsp
_TEXT	ENDS
;	COMDAT ?GetClassTypeForTutorialDropItem@ioLocalJapan@@UAEXAAH@Z
_TEXT	SEGMENT
_riClassType$ = 8					; size = 4
?GetClassTypeForTutorialDropItem@ioLocalJapan@@UAEXAAH@Z PROC ; ioLocalJapan::GetClassTypeForTutorialDropItem, COMDAT
; _this$ = ecx

; 76   : 
; 77   : }

  00000	c2 04 00	 ret	 4
?GetClassTypeForTutorialDropItem@ioLocalJapan@@UAEXAAH@Z ENDP ; ioLocalJapan::GetClassTypeForTutorialDropItem
; Function compile flags: /Ogsp
_TEXT	ENDS
;	COMDAT ?GetFirstIDMaxSize@ioLocalJapan@@UAEHXZ
_TEXT	SEGMENT
?GetFirstIDMaxSize@ioLocalJapan@@UAEHXZ PROC		; ioLocalJapan::GetFirstIDMaxSize, COMDAT
; _this$ = ecx

; 82   : 	return 12;

  00000	6a 0c		 push	 12			; 0000000cH
  00002	58		 pop	 eax

; 83   : }

  00003	c3		 ret	 0
?GetFirstIDMaxSize@ioLocalJapan@@UAEHXZ ENDP		; ioLocalJapan::GetFirstIDMaxSize
; Function compile flags: /Ogsp
_TEXT	ENDS
;	COMDAT ?IsShowFirstIDWnd@ioLocalJapan@@UAE_NXZ
_TEXT	SEGMENT
?IsShowFirstIDWnd@ioLocalJapan@@UAE_NXZ PROC		; ioLocalJapan::IsShowFirstIDWnd, COMDAT
; _this$ = ecx

; 87   : 	return false;

  00000	32 c0		 xor	 al, al

; 88   : }

  00002	c3		 ret	 0
?IsShowFirstIDWnd@ioLocalJapan@@UAE_NXZ ENDP		; ioLocalJapan::IsShowFirstIDWnd
_TEXT	ENDS
PUBLIC	??_C@_0M@HIEKKMKF@?$IDM?$ID?$IL?$IDh?$DP?$IDX?$DP?$DP?$AA@ ; `string'
;	COMDAT ??_C@_0M@HIEKKMKF@?$IDM?$ID?$IL?$IDh?$DP?$IDX?$DP?$DP?$AA@
CONST	SEGMENT
??_C@_0M@HIEKKMKF@?$IDM?$ID?$IL?$IDh?$DP?$IDX?$DP?$DP?$AA@ DB 083H, 'M', 083H
	DB	08bH, 083H, 'h?', 083H, 'X??', 00H		; `string'
; Function compile flags: /Ogsp
CONST	ENDS
;	COMDAT ?GetGuildMasterPostion@ioLocalJapan@@UAEPBDXZ
_TEXT	SEGMENT
?GetGuildMasterPostion@ioLocalJapan@@UAEPBDXZ PROC	; ioLocalJapan::GetGuildMasterPostion, COMDAT
; _this$ = ecx

; 103  : 	return GUILD_MASTER_POSTION_JP;

  00000	b8 00 00 00 00	 mov	 eax, OFFSET ??_C@_0M@HIEKKMKF@?$IDM?$ID?$IL?$IDh?$DP?$IDX?$DP?$DP?$AA@

; 104  : }

  00005	c3		 ret	 0
?GetGuildMasterPostion@ioLocalJapan@@UAEPBDXZ ENDP	; ioLocalJapan::GetGuildMasterPostion
_TEXT	ENDS
PUBLIC	??_C@_09CHCHJIKC@?$IDT?$IDu?$DP?$IDX?$DP?$DP?$AA@ ; `string'
;	COMDAT ??_C@_09CHCHJIKC@?$IDT?$IDu?$DP?$IDX?$DP?$DP?$AA@
CONST	SEGMENT
??_C@_09CHCHJIKC@?$IDT?$IDu?$DP?$IDX?$DP?$DP?$AA@ DB 083H, 'T', 083H, 'u?'
	DB	083H, 'X??', 00H				; `string'
; Function compile flags: /Ogsp
CONST	ENDS
;	COMDAT ?GetGuildSecondMasterPosition@ioLocalJapan@@UAEPBDXZ
_TEXT	SEGMENT
?GetGuildSecondMasterPosition@ioLocalJapan@@UAEPBDXZ PROC ; ioLocalJapan::GetGuildSecondMasterPosition, COMDAT
; _this$ = ecx

; 108  : 	return GUILD_SECOND_MASTER_POSTION_JP;

  00000	b8 00 00 00 00	 mov	 eax, OFFSET ??_C@_09CHCHJIKC@?$IDT?$IDu?$DP?$IDX?$DP?$DP?$AA@

; 109  : }

  00005	c3		 ret	 0
?GetGuildSecondMasterPosition@ioLocalJapan@@UAEPBDXZ ENDP ; ioLocalJapan::GetGuildSecondMasterPosition
_TEXT	ENDS
PUBLIC	??_C@_0O@JLAJMEJM@?$IDM?$ID?$IL?$IDh?$ID?$IB?$ID?$JD?$IDo?$DP?$AA@ ; `string'
;	COMDAT ??_C@_0O@JLAJMEJM@?$IDM?$ID?$IL?$IDh?$ID?$IB?$ID?$JD?$IDo?$DP?$AA@
CONST	SEGMENT
??_C@_0O@JLAJMEJM@?$IDM?$ID?$IL?$IDh?$ID?$IB?$ID?$JD?$IDo?$DP?$AA@ DB 083H
	DB	'M', 083H, 08bH, 083H, 'h', 083H, 081H, 083H, 093H, 083H, 'o?', 00H ; `string'
; Function compile flags: /Ogsp
CONST	ENDS
;	COMDAT ?GetGuildGeneralPosition@ioLocalJapan@@UAEPBDXZ
_TEXT	SEGMENT
?GetGuildGeneralPosition@ioLocalJapan@@UAEPBDXZ PROC	; ioLocalJapan::GetGuildGeneralPosition, COMDAT
; _this$ = ecx

; 113  : 	return GUILD_GENERAL_POSTION_JP;

  00000	b8 00 00 00 00	 mov	 eax, OFFSET ??_C@_0O@JLAJMEJM@?$IDM?$ID?$IL?$IDh?$ID?$IB?$ID?$JD?$IDo?$DP?$AA@

; 114  : }

  00005	c3		 ret	 0
?GetGuildGeneralPosition@ioLocalJapan@@UAEPBDXZ ENDP	; ioLocalJapan::GetGuildGeneralPosition
; Function compile flags: /Ogsp
_TEXT	ENDS
;	COMDAT ?GetGuildAdminPosition@ioLocalJapan@@UAEPBDXZ
_TEXT	SEGMENT
?GetGuildAdminPosition@ioLocalJapan@@UAEPBDXZ PROC	; ioLocalJapan::GetGuildAdminPosition, COMDAT
; _this$ = ecx

; 118  : 	return GUILD_GENERAL_POSTION_JP;

  00000	b8 00 00 00 00	 mov	 eax, OFFSET ??_C@_0O@JLAJMEJM@?$IDM?$ID?$IL?$IDh?$ID?$IB?$ID?$JD?$IDo?$DP?$AA@

; 119  : }

  00005	c3		 ret	 0
?GetGuildAdminPosition@ioLocalJapan@@UAEPBDXZ ENDP	; ioLocalJapan::GetGuildAdminPosition
; Function compile flags: /Ogsp
_TEXT	ENDS
;	COMDAT ?IsRightNewID@ioLocalJapan@@UAE_NPBD@Z
_TEXT	SEGMENT
_szID$ = 8						; size = 4
?IsRightNewID@ioLocalJapan@@UAE_NPBD@Z PROC		; ioLocalJapan::IsRightNewID, COMDAT
; _this$ = ecx

; 123  : 	return true;

  00000	b0 01		 mov	 al, 1

; 124  : }

  00002	c2 04 00	 ret	 4
?IsRightNewID@ioLocalJapan@@UAE_NPBD@Z ENDP		; ioLocalJapan::IsRightNewID
; Function compile flags: /Ogsp
_TEXT	ENDS
;	COMDAT ?IsSendGashaponList@ioLocalJapan@@UAE_NXZ
_TEXT	SEGMENT
?IsSendGashaponList@ioLocalJapan@@UAE_NXZ PROC		; ioLocalJapan::IsSendGashaponList, COMDAT
; _this$ = ecx

; 128  : 	return false;

  00000	32 c0		 xor	 al, al

; 129  : }

  00002	c3		 ret	 0
?IsSendGashaponList@ioLocalJapan@@UAE_NXZ ENDP		; ioLocalJapan::IsSendGashaponList
; Function compile flags: /Ogsp
_TEXT	ENDS
;	COMDAT ?GetChangedString@ioLocalJapan@@UAEXPAD@Z
_TEXT	SEGMENT
_szCheckString$ = 8					; size = 4
?GetChangedString@ioLocalJapan@@UAEXPAD@Z PROC		; ioLocalJapan::GetChangedString, COMDAT
; _this$ = ecx

; 133  : 	// 아무일도 하지 않음
; 134  : }

  00000	c2 04 00	 ret	 4
?GetChangedString@ioLocalJapan@@UAEXPAD@Z ENDP		; ioLocalJapan::GetChangedString
; Function compile flags: /Ogsp
_TEXT	ENDS
;	COMDAT ?IsExecuteLuncher@ioLocalJapan@@UAE_NXZ
_TEXT	SEGMENT
?IsExecuteLuncher@ioLocalJapan@@UAE_NXZ PROC		; ioLocalJapan::IsExecuteLuncher, COMDAT
; _this$ = ecx

; 138  : 	return false;

  00000	32 c0		 xor	 al, al

; 139  : }

  00002	c3		 ret	 0
?IsExecuteLuncher@ioLocalJapan@@UAE_NXZ ENDP		; ioLocalJapan::IsExecuteLuncher
; Function compile flags: /Ogsp
_TEXT	ENDS
;	COMDAT ?IsKoreaGameLimit@ioLocalJapan@@UAE_NXZ
_TEXT	SEGMENT
?IsKoreaGameLimit@ioLocalJapan@@UAE_NXZ PROC		; ioLocalJapan::IsKoreaGameLimit, COMDAT
; _this$ = ecx

; 143  : 	return false;

  00000	32 c0		 xor	 al, al

; 144  : }

  00002	c3		 ret	 0
?IsKoreaGameLimit@ioLocalJapan@@UAE_NXZ ENDP		; ioLocalJapan::IsKoreaGameLimit
; Function compile flags: /Ogsp
_TEXT	ENDS
;	COMDAT ?IsCheckKorean@ioLocalJapan@@UAE_NXZ
_TEXT	SEGMENT
?IsCheckKorean@ioLocalJapan@@UAE_NXZ PROC		; ioLocalJapan::IsCheckKorean, COMDAT
; _this$ = ecx

; 148  : 	return true;

  00000	b0 01		 mov	 al, 1

; 149  : }

  00002	c3		 ret	 0
?IsCheckKorean@ioLocalJapan@@UAE_NXZ ENDP		; ioLocalJapan::IsCheckKorean
; Function compile flags: /Ogsp
_TEXT	ENDS
;	COMDAT ?IsMyHomePage@ioLocalJapan@@UAE_NXZ
_TEXT	SEGMENT
?IsMyHomePage@ioLocalJapan@@UAE_NXZ PROC		; ioLocalJapan::IsMyHomePage, COMDAT
; _this$ = ecx

; 153  : 	return true;

  00000	b0 01		 mov	 al, 1

; 154  : }

  00002	c3		 ret	 0
?IsMyHomePage@ioLocalJapan@@UAE_NXZ ENDP		; ioLocalJapan::IsMyHomePage
; Function compile flags: /Ogsp
_TEXT	ENDS
;	COMDAT ?IsShowExtraGoodsList@ioLocalJapan@@UAE_NXZ
_TEXT	SEGMENT
?IsShowExtraGoodsList@ioLocalJapan@@UAE_NXZ PROC	; ioLocalJapan::IsShowExtraGoodsList, COMDAT
; _this$ = ecx

; 158  : 	return false;

  00000	32 c0		 xor	 al, al

; 159  : }

  00002	c3		 ret	 0
?IsShowExtraGoodsList@ioLocalJapan@@UAE_NXZ ENDP	; ioLocalJapan::IsShowExtraGoodsList
; Function compile flags: /Ogsp
_TEXT	ENDS
;	COMDAT ?IsShowRegulation@ioLocalJapan@@UAE_NXZ
_TEXT	SEGMENT
?IsShowRegulation@ioLocalJapan@@UAE_NXZ PROC		; ioLocalJapan::IsShowRegulation, COMDAT
; _this$ = ecx

; 163  : 	return true;

  00000	b0 01		 mov	 al, 1

; 164  : }

  00002	c3		 ret	 0
?IsShowRegulation@ioLocalJapan@@UAE_NXZ ENDP		; ioLocalJapan::IsShowRegulation
; Function compile flags: /Ogsp
_TEXT	ENDS
;	COMDAT ?GetResourceIDErrorBack@ioLocalJapan@@UAEKXZ
_TEXT	SEGMENT
?GetResourceIDErrorBack@ioLocalJapan@@UAEKXZ PROC	; ioLocalJapan::GetResourceIDErrorBack, COMDAT
; _this$ = ecx

; 168  : 	return IDB_BACK_ERROR_JP;

  00000	b8 a5 00 00 00	 mov	 eax, 165		; 000000a5H

; 169  : }

  00005	c3		 ret	 0
?GetResourceIDErrorBack@ioLocalJapan@@UAEKXZ ENDP	; ioLocalJapan::GetResourceIDErrorBack
; Function compile flags: /Ogsp
_TEXT	ENDS
;	COMDAT ?GetResourceIDErrorExitC@ioLocalJapan@@UAEKXZ
_TEXT	SEGMENT
?GetResourceIDErrorExitC@ioLocalJapan@@UAEKXZ PROC	; ioLocalJapan::GetResourceIDErrorExitC, COMDAT
; _this$ = ecx

; 173  : 	return IDB_EXIT_C_JP;

  00000	b8 a6 00 00 00	 mov	 eax, 166		; 000000a6H

; 174  : }

  00005	c3		 ret	 0
?GetResourceIDErrorExitC@ioLocalJapan@@UAEKXZ ENDP	; ioLocalJapan::GetResourceIDErrorExitC
; Function compile flags: /Ogsp
_TEXT	ENDS
;	COMDAT ?GetResourceIDErrorExitN@ioLocalJapan@@UAEKXZ
_TEXT	SEGMENT
?GetResourceIDErrorExitN@ioLocalJapan@@UAEKXZ PROC	; ioLocalJapan::GetResourceIDErrorExitN, COMDAT
; _this$ = ecx

; 178  : 	return IDB_EXIT_N_JP;

  00000	b8 a7 00 00 00	 mov	 eax, 167		; 000000a7H

; 179  : }

  00005	c3		 ret	 0
?GetResourceIDErrorExitN@ioLocalJapan@@UAEKXZ ENDP	; ioLocalJapan::GetResourceIDErrorExitN
; Function compile flags: /Ogsp
_TEXT	ENDS
;	COMDAT ?GetResourceIDErrorExitO@ioLocalJapan@@UAEKXZ
_TEXT	SEGMENT
?GetResourceIDErrorExitO@ioLocalJapan@@UAEKXZ PROC	; ioLocalJapan::GetResourceIDErrorExitO, COMDAT
; _this$ = ecx

; 183  : 	return IDB_EXIT_O_JP;

  00000	b8 a8 00 00 00	 mov	 eax, 168		; 000000a8H

; 184  : }

  00005	c3		 ret	 0
?GetResourceIDErrorExitO@ioLocalJapan@@UAEKXZ ENDP	; ioLocalJapan::GetResourceIDErrorExitO
; Function compile flags: /Ogsp
_TEXT	ENDS
;	COMDAT ?GetResourceIDErrorSolutionC@ioLocalJapan@@UAEKXZ
_TEXT	SEGMENT
?GetResourceIDErrorSolutionC@ioLocalJapan@@UAEKXZ PROC	; ioLocalJapan::GetResourceIDErrorSolutionC, COMDAT
; _this$ = ecx

; 188  : 	return IDB_SOLUTION_C_JP;

  00000	b8 a9 00 00 00	 mov	 eax, 169		; 000000a9H

; 189  : }

  00005	c3		 ret	 0
?GetResourceIDErrorSolutionC@ioLocalJapan@@UAEKXZ ENDP	; ioLocalJapan::GetResourceIDErrorSolutionC
; Function compile flags: /Ogsp
_TEXT	ENDS
;	COMDAT ?GetResourceIDErrorSolutionN@ioLocalJapan@@UAEKXZ
_TEXT	SEGMENT
?GetResourceIDErrorSolutionN@ioLocalJapan@@UAEKXZ PROC	; ioLocalJapan::GetResourceIDErrorSolutionN, COMDAT
; _this$ = ecx

; 193  : 	return IDB_SOLUTION_N_JP;

  00000	b8 ab 00 00 00	 mov	 eax, 171		; 000000abH

; 194  : }

  00005	c3		 ret	 0
?GetResourceIDErrorSolutionN@ioLocalJapan@@UAEKXZ ENDP	; ioLocalJapan::GetResourceIDErrorSolutionN
; Function compile flags: /Ogsp
_TEXT	ENDS
;	COMDAT ?GetResourceIDErrorSolutionO@ioLocalJapan@@UAEKXZ
_TEXT	SEGMENT
?GetResourceIDErrorSolutionO@ioLocalJapan@@UAEKXZ PROC	; ioLocalJapan::GetResourceIDErrorSolutionO, COMDAT
; _this$ = ecx

; 198  : 	return IDB_SOLUTION_O_JP;

  00000	b8 ad 00 00 00	 mov	 eax, 173		; 000000adH

; 199  : }

  00005	c3		 ret	 0
?GetResourceIDErrorSolutionO@ioLocalJapan@@UAEKXZ ENDP	; ioLocalJapan::GetResourceIDErrorSolutionO
_TEXT	ENDS
PUBLIC	??_C@_0BH@HAOBPLDE@http?3?1?1www?4lostsaga?4jp?$AA@ ; `string'
;	COMDAT ??_C@_0BH@HAOBPLDE@http?3?1?1www?4lostsaga?4jp?$AA@
CONST	SEGMENT
??_C@_0BH@HAOBPLDE@http?3?1?1www?4lostsaga?4jp?$AA@ DB 'http://www.lostsa'
	DB	'ga.jp', 00H					; `string'
; Function compile flags: /Ogsp
CONST	ENDS
;	COMDAT ?GetErrorSolutionURL@ioLocalJapan@@UAEPBDXZ
_TEXT	SEGMENT
?GetErrorSolutionURL@ioLocalJapan@@UAEPBDXZ PROC	; ioLocalJapan::GetErrorSolutionURL, COMDAT
; _this$ = ecx

; 203  : 	return "http://www.lostsaga.jp";

  00000	b8 00 00 00 00	 mov	 eax, OFFSET ??_C@_0BH@HAOBPLDE@http?3?1?1www?4lostsaga?4jp?$AA@

; 204  : }

  00005	c3		 ret	 0
?GetErrorSolutionURL@ioLocalJapan@@UAEPBDXZ ENDP	; ioLocalJapan::GetErrorSolutionURL
; Function compile flags: /Ogsp
_TEXT	ENDS
;	COMDAT ?SetPresentRecvDisableMsg@ioLocalJapan@@UAE_NH@Z
_TEXT	SEGMENT
_iPresentType$ = 8					; size = 4
?SetPresentRecvDisableMsg@ioLocalJapan@@UAE_NH@Z PROC	; ioLocalJapan::SetPresentRecvDisableMsg, COMDAT
; _this$ = ecx

; 208  : 	return false;

  00000	32 c0		 xor	 al, al

; 209  : }

  00002	c2 04 00	 ret	 4
?SetPresentRecvDisableMsg@ioLocalJapan@@UAE_NH@Z ENDP	; ioLocalJapan::SetPresentRecvDisableMsg
; Function compile flags: /Ogsp
_TEXT	ENDS
;	COMDAT ?GetLimitGradeLevel@ioLocalJapan@@UAEHXZ
_TEXT	SEGMENT
?GetLimitGradeLevel@ioLocalJapan@@UAEHXZ PROC		; ioLocalJapan::GetLimitGradeLevel, COMDAT
; _this$ = ecx

; 213  : 	return -1;

  00000	83 c8 ff	 or	 eax, -1

; 214  : }

  00003	c3		 ret	 0
?GetLimitGradeLevel@ioLocalJapan@@UAEHXZ ENDP		; ioLocalJapan::GetLimitGradeLevel
_TEXT	ENDS
PUBLIC	??_C@_0BG@OEEBBIBD@CJIJ?5Billing?5Error?5?3?5?$AA@ ; `string'
;	COMDAT ??_C@_0BG@OEEBBIBD@CJIJ?5Billing?5Error?5?3?5?$AA@
CONST	SEGMENT
??_C@_0BG@OEEBBIBD@CJIJ?5Billing?5Error?5?3?5?$AA@ DB 'CJIJ Billing Error'
	DB	' : ', 00H					; `string'
; Function compile flags: /Ogsp
CONST	ENDS
;	COMDAT ?GetBillingErrorMent@ioLocalJapan@@UAEPBDAAVioHashString@@@Z
_TEXT	SEGMENT
_sServerError$ = 8					; size = 4
?GetBillingErrorMent@ioLocalJapan@@UAEPBDAAVioHashString@@@Z PROC ; ioLocalJapan::GetBillingErrorMent, COMDAT
; _this$ = ecx

; 218  : 	return "CJIJ Billing Error : ";

  00000	b8 00 00 00 00	 mov	 eax, OFFSET ??_C@_0BG@OEEBBIBD@CJIJ?5Billing?5Error?5?3?5?$AA@

; 219  : }

  00005	c2 04 00	 ret	 4
?GetBillingErrorMent@ioLocalJapan@@UAEPBDAAVioHashString@@@Z ENDP ; ioLocalJapan::GetBillingErrorMent
; Function compile flags: /Ogsp
_TEXT	ENDS
;	COMDAT ?GetLicenseDate@ioLocalJapan@@UAEHXZ
_TEXT	SEGMENT
?GetLicenseDate@ioLocalJapan@@UAEHXZ PROC		; ioLocalJapan::GetLicenseDate, COMDAT
; _this$ = ecx

; 223  : 	return 20150806;

  00000	b8 16 7a 33 01	 mov	 eax, 20150806		; 01337a16H

; 224  : }

  00005	c3		 ret	 0
?GetLicenseDate@ioLocalJapan@@UAEHXZ ENDP		; ioLocalJapan::GetLicenseDate
; Function compile flags: /Ogsp
; File d:\lost saga for developer\youtube\tutorial\source\src\lsclient\local\iolocalparent.h
_TEXT	ENDS
;	COMDAT ?GetSubType@ioLocalParent@@UAEHXZ
_TEXT	SEGMENT
?GetSubType@ioLocalParent@@UAEHXZ PROC			; ioLocalParent::GetSubType, COMDAT
; _this$ = ecx

; 50   : 	virtual int GetSubType() {return m_nSubType;}

  00000	8b 41 44	 mov	 eax, DWORD PTR [ecx+68]
  00003	c3		 ret	 0
?GetSubType@ioLocalParent@@UAEHXZ ENDP			; ioLocalParent::GetSubType
; Function compile flags: /Ogsp
_TEXT	ENDS
;	COMDAT ?SetSubType@ioLocalParent@@UAEXH@Z
_TEXT	SEGMENT
_nSubType$ = 8						; size = 4
?SetSubType@ioLocalParent@@UAEXH@Z PROC			; ioLocalParent::SetSubType, COMDAT
; _this$ = ecx

; 51   : 	virtual void SetSubType(int nSubType) {m_nSubType = nSubType;}

  00000	55		 push	 ebp
  00001	8b ec		 mov	 ebp, esp
  00003	8b 45 08	 mov	 eax, DWORD PTR _nSubType$[ebp]
  00006	89 41 44	 mov	 DWORD PTR [ecx+68], eax
  00009	5d		 pop	 ebp
  0000a	c2 04 00	 ret	 4
?SetSubType@ioLocalParent@@UAEXH@Z ENDP			; ioLocalParent::SetSubType
; Function compile flags: /Ogsp
_TEXT	ENDS
;	COMDAT ?GetResourceIDTitleWebShop@ioLocalParent@@UAEKXZ
_TEXT	SEGMENT
?GetResourceIDTitleWebShop@ioLocalParent@@UAEKXZ PROC	; ioLocalParent::GetResourceIDTitleWebShop, COMDAT
; _this$ = ecx

; 60   : 	virtual DWORD GetResourceIDTitleWebShop() { return 0; };

  00000	33 c0		 xor	 eax, eax
  00002	c3		 ret	 0
?GetResourceIDTitleWebShop@ioLocalParent@@UAEKXZ ENDP	; ioLocalParent::GetResourceIDTitleWebShop
; Function compile flags: /Ogsp
_TEXT	ENDS
;	COMDAT ?SetWarnetInfo@ioLocalParent@@UAEXABVioHashString@@K@Z
_TEXT	SEGMENT
_szAuthInfo$ = 8					; size = 4
_dwSessionID$ = 12					; size = 4
?SetWarnetInfo@ioLocalParent@@UAEXABVioHashString@@K@Z PROC ; ioLocalParent::SetWarnetInfo, COMDAT
; _this$ = ecx

; 71   : 	virtual void SetWarnetInfo(const ioHashString &szAuthInfo, const DWORD dwSessionID){};

  00000	c2 08 00	 ret	 8
?SetWarnetInfo@ioLocalParent@@UAEXABVioHashString@@K@Z ENDP ; ioLocalParent::SetWarnetInfo
; Function compile flags: /Ogsp
_TEXT	ENDS
;	COMDAT ?IsFirstIDCheckPass@ioLocalParent@@UAE_NXZ
_TEXT	SEGMENT
?IsFirstIDCheckPass@ioLocalParent@@UAE_NXZ PROC		; ioLocalParent::IsFirstIDCheckPass, COMDAT
; _this$ = ecx

; 97   : 	virtual bool IsFirstIDCheckPass() { return false; }

  00000	32 c0		 xor	 al, al
  00002	c3		 ret	 0
?IsFirstIDCheckPass@ioLocalParent@@UAE_NXZ ENDP		; ioLocalParent::IsFirstIDCheckPass
; Function compile flags: /Ogsp
_TEXT	ENDS
;	COMDAT ?IsStartFullScreen@ioLocalParent@@UAE_NXZ
_TEXT	SEGMENT
?IsStartFullScreen@ioLocalParent@@UAE_NXZ PROC		; ioLocalParent::IsStartFullScreen, COMDAT
; _this$ = ecx

; 101  : 	virtual bool IsStartFullScreen(){ return false; }

  00000	32 c0		 xor	 al, al
  00002	c3		 ret	 0
?IsStartFullScreen@ioLocalParent@@UAE_NXZ ENDP		; ioLocalParent::IsStartFullScreen
; Function compile flags: /Ogsp
_TEXT	ENDS
;	COMDAT ?IsTooltipAutoLine@ioLocalParent@@UAE_NXZ
_TEXT	SEGMENT
?IsTooltipAutoLine@ioLocalParent@@UAE_NXZ PROC		; ioLocalParent::IsTooltipAutoLine, COMDAT
; _this$ = ecx

; 102  : 	virtual bool IsTooltipAutoLine(){ return false; }

  00000	32 c0		 xor	 al, al
  00002	c3		 ret	 0
?IsTooltipAutoLine@ioLocalParent@@UAE_NXZ ENDP		; ioLocalParent::IsTooltipAutoLine
; Function compile flags: /Ogsp
_TEXT	ENDS
;	COMDAT ?IsGatotkacaPremium@ioLocalParent@@UAE_NH@Z
_TEXT	SEGMENT
_iClassType$ = 8					; size = 4
?IsGatotkacaPremium@ioLocalParent@@UAE_NH@Z PROC	; ioLocalParent::IsGatotkacaPremium, COMDAT
; _this$ = ecx

; 104  : 	virtual bool IsGatotkacaPremium( int iClassType ) { return false; }

  00000	32 c0		 xor	 al, al
  00002	c2 04 00	 ret	 4
?IsGatotkacaPremium@ioLocalParent@@UAE_NH@Z ENDP	; ioLocalParent::IsGatotkacaPremium
; Function compile flags: /Ogsp
_TEXT	ENDS
;	COMDAT ?IsPointBlankPremium@ioLocalParent@@UAE_NH@Z
_TEXT	SEGMENT
_iClassType$ = 8					; size = 4
?IsPointBlankPremium@ioLocalParent@@UAE_NH@Z PROC	; ioLocalParent::IsPointBlankPremium, COMDAT
; _this$ = ecx

; 105  : 	virtual bool IsPointBlankPremium( int iClassType ) { return false; }

  00000	32 c0		 xor	 al, al
  00002	c2 04 00	 ret	 4
?IsPointBlankPremium@ioLocalParent@@UAE_NH@Z ENDP	; ioLocalParent::IsPointBlankPremium
; Function compile flags: /Ogsp
_TEXT	ENDS
;	COMDAT ?IsEndFishingByMove@ioLocalParent@@UAE_NXZ
_TEXT	SEGMENT
?IsEndFishingByMove@ioLocalParent@@UAE_NXZ PROC		; ioLocalParent::IsEndFishingByMove, COMDAT
; _this$ = ecx

; 111  : 	virtual bool IsEndFishingByMove() { return true; }

  00000	b0 01		 mov	 al, 1
  00002	c3		 ret	 0
?IsEndFishingByMove@ioLocalParent@@UAE_NXZ ENDP		; ioLocalParent::IsEndFishingByMove
; Function compile flags: /Ogsp
_TEXT	ENDS
;	COMDAT ?ExitAction@ioLocalParent@@UAEXXZ
_TEXT	SEGMENT
?ExitAction@ioLocalParent@@UAEXXZ PROC			; ioLocalParent::ExitAction, COMDAT
; _this$ = ecx

; 117  : 	virtual void ExitAction(){}

  00000	c3		 ret	 0
?ExitAction@ioLocalParent@@UAEXXZ ENDP			; ioLocalParent::ExitAction
; Function compile flags: /Ogsp
_TEXT	ENDS
;	COMDAT ?ShowHackShieldErrorDlg@ioLocalParent@@UAEXABVioHashString@@@Z
_TEXT	SEGMENT
_rsPrivateID$ = 8					; size = 4
?ShowHackShieldErrorDlg@ioLocalParent@@UAEXABVioHashString@@@Z PROC ; ioLocalParent::ShowHackShieldErrorDlg, COMDAT
; _this$ = ecx

; 118  : 	virtual void ShowHackShieldErrorDlg( const ioHashString &rsPrivateID ){}

  00000	c2 04 00	 ret	 4
?ShowHackShieldErrorDlg@ioLocalParent@@UAEXABVioHashString@@@Z ENDP ; ioLocalParent::ShowHackShieldErrorDlg
; Function compile flags: /Ogsp
_TEXT	ENDS
;	COMDAT ?GetCashSendTime@ioLocalParent@@UAEKXZ
_TEXT	SEGMENT
?GetCashSendTime@ioLocalParent@@UAEKXZ PROC		; ioLocalParent::GetCashSendTime, COMDAT
; _this$ = ecx

; 121  : 	virtual DWORD GetCashSendTime() { return 15000; } // ms

  00000	b8 98 3a 00 00	 mov	 eax, 15000		; 00003a98H
  00005	c3		 ret	 0
?GetCashSendTime@ioLocalParent@@UAEKXZ ENDP		; ioLocalParent::GetCashSendTime
; Function compile flags: /Ogsp
_TEXT	ENDS
;	COMDAT ?IsFirstIDControlAltCtrl@ioLocalParent@@UAE_NXZ
_TEXT	SEGMENT
?IsFirstIDControlAltCtrl@ioLocalParent@@UAE_NXZ PROC	; ioLocalParent::IsFirstIDControlAltCtrl, COMDAT
; _this$ = ecx

; 123  : 	virtual bool IsFirstIDControlAltCtrl() { return true; }

  00000	b0 01		 mov	 al, 1
  00002	c3		 ret	 0
?IsFirstIDControlAltCtrl@ioLocalParent@@UAE_NXZ ENDP	; ioLocalParent::IsFirstIDControlAltCtrl
; Function compile flags: /Ogsp
_TEXT	ENDS
;	COMDAT ?IsPCRoomBonusSoldier@ioLocalParent@@UAE_NXZ
_TEXT	SEGMENT
?IsPCRoomBonusSoldier@ioLocalParent@@UAE_NXZ PROC	; ioLocalParent::IsPCRoomBonusSoldier, COMDAT
; _this$ = ecx

; 124  : 	virtual bool IsPCRoomBonusSoldier() { return false; }

  00000	32 c0		 xor	 al, al
  00002	c3		 ret	 0
?IsPCRoomBonusSoldier@ioLocalParent@@UAE_NXZ ENDP	; ioLocalParent::IsPCRoomBonusSoldier
; Function compile flags: /Ogsp
_TEXT	ENDS
;	COMDAT ?IsCheckValueServer@ioLocalParent@@UAE_NXZ
_TEXT	SEGMENT
?IsCheckValueServer@ioLocalParent@@UAE_NXZ PROC		; ioLocalParent::IsCheckValueServer, COMDAT
; _this$ = ecx

; 126  : 	virtual bool IsCheckValueServer() { return false; }

  00000	32 c0		 xor	 al, al
  00002	c3		 ret	 0
?IsCheckValueServer@ioLocalParent@@UAE_NXZ ENDP		; ioLocalParent::IsCheckValueServer
; Function compile flags: /Ogsp
_TEXT	ENDS
;	COMDAT ?IsChangeServerHelp@ioLocalParent@@UAE_NXZ
_TEXT	SEGMENT
?IsChangeServerHelp@ioLocalParent@@UAE_NXZ PROC		; ioLocalParent::IsChangeServerHelp, COMDAT
; _this$ = ecx

; 127  : 	virtual bool IsChangeServerHelp() { return false; }

  00000	32 c0		 xor	 al, al
  00002	c3		 ret	 0
?IsChangeServerHelp@ioLocalParent@@UAE_NXZ ENDP		; ioLocalParent::IsChangeServerHelp
; Function compile flags: /Ogsp
_TEXT	ENDS
;	COMDAT ?IsSendCollisionPos@ioLocalParent@@UAE_NXZ
_TEXT	SEGMENT
?IsSendCollisionPos@ioLocalParent@@UAE_NXZ PROC		; ioLocalParent::IsSendCollisionPos, COMDAT
; _this$ = ecx

; 128  : 	virtual bool IsSendCollisionPos() { return true; }

  00000	b0 01		 mov	 al, 1
  00002	c3		 ret	 0
?IsSendCollisionPos@ioLocalParent@@UAE_NXZ ENDP		; ioLocalParent::IsSendCollisionPos
; Function compile flags: /Ogsp
_TEXT	ENDS
;	COMDAT ?IsLimitStartCancel@ioLocalParent@@UAE_NXZ
_TEXT	SEGMENT
?IsLimitStartCancel@ioLocalParent@@UAE_NXZ PROC		; ioLocalParent::IsLimitStartCancel, COMDAT
; _this$ = ecx

; 129  : 	virtual bool IsLimitStartCancel() { return false; }

  00000	32 c0		 xor	 al, al
  00002	c3		 ret	 0
?IsLimitStartCancel@ioLocalParent@@UAE_NXZ ENDP		; ioLocalParent::IsLimitStartCancel
; Function compile flags: /Ogsp
_TEXT	ENDS
;	COMDAT ?IsCreateMiniDump@ioLocalParent@@UAE_NXZ
_TEXT	SEGMENT
?IsCreateMiniDump@ioLocalParent@@UAE_NXZ PROC		; ioLocalParent::IsCreateMiniDump, COMDAT
; _this$ = ecx

; 130  : 	virtual bool IsCreateMiniDump() { return false; }

  00000	32 c0		 xor	 al, al
  00002	c3		 ret	 0
?IsCreateMiniDump@ioLocalParent@@UAE_NXZ ENDP		; ioLocalParent::IsCreateMiniDump
; Function compile flags: /Ogsp
_TEXT	ENDS
;	COMDAT ?IsTickCheck@ioLocalParent@@UAE_NXZ
_TEXT	SEGMENT
?IsTickCheck@ioLocalParent@@UAE_NXZ PROC		; ioLocalParent::IsTickCheck, COMDAT
; _this$ = ecx

; 131  : 	virtual bool IsTickCheck() { return true; }

  00000	b0 01		 mov	 al, 1
  00002	c3		 ret	 0
?IsTickCheck@ioLocalParent@@UAE_NXZ ENDP		; ioLocalParent::IsTickCheck
; Function compile flags: /Ogsp
_TEXT	ENDS
;	COMDAT ?IsAnnounceShutDown@ioLocalParent@@UAE_NXZ
_TEXT	SEGMENT
?IsAnnounceShutDown@ioLocalParent@@UAE_NXZ PROC		; ioLocalParent::IsAnnounceShutDown, COMDAT
; _this$ = ecx

; 132  : 	virtual bool IsAnnounceShutDown() { return false; }

  00000	32 c0		 xor	 al, al
  00002	c3		 ret	 0
?IsAnnounceShutDown@ioLocalParent@@UAE_NXZ ENDP		; ioLocalParent::IsAnnounceShutDown
; Function compile flags: /Ogsp
_TEXT	ENDS
;	COMDAT ?IsUseMedalLevelOpen@ioLocalParent@@UAE_NXZ
_TEXT	SEGMENT
?IsUseMedalLevelOpen@ioLocalParent@@UAE_NXZ PROC	; ioLocalParent::IsUseMedalLevelOpen, COMDAT
; _this$ = ecx

; 133  : 	virtual bool IsUseMedalLevelOpen() { return true; }

  00000	b0 01		 mov	 al, 1
  00002	c3		 ret	 0
?IsUseMedalLevelOpen@ioLocalParent@@UAE_NXZ ENDP	; ioLocalParent::IsUseMedalLevelOpen
; Function compile flags: /Ogsp
_TEXT	ENDS
;	COMDAT ?IsUsePresentMacroInShipping@ioLocalParent@@UAE_NXZ
_TEXT	SEGMENT
?IsUsePresentMacroInShipping@ioLocalParent@@UAE_NXZ PROC ; ioLocalParent::IsUsePresentMacroInShipping, COMDAT
; _this$ = ecx

; 134  : 	virtual bool IsUsePresentMacroInShipping() { return true; }

  00000	b0 01		 mov	 al, 1
  00002	c3		 ret	 0
?IsUsePresentMacroInShipping@ioLocalParent@@UAE_NXZ ENDP ; ioLocalParent::IsUsePresentMacroInShipping
; Function compile flags: /Ogsp
_TEXT	ENDS
;	COMDAT ?IsSendChatLog@ioLocalParent@@UAE_NXZ
_TEXT	SEGMENT
?IsSendChatLog@ioLocalParent@@UAE_NXZ PROC		; ioLocalParent::IsSendChatLog, COMDAT
; _this$ = ecx

; 135  : 	virtual bool IsSendChatLog() { return true; }

  00000	b0 01		 mov	 al, 1
  00002	c3		 ret	 0
?IsSendChatLog@ioLocalParent@@UAE_NXZ ENDP		; ioLocalParent::IsSendChatLog
; Function compile flags: /Ogsp
_TEXT	ENDS
;	COMDAT ?IsUseVoiceChat@ioLocalParent@@UAE_NXZ
_TEXT	SEGMENT
?IsUseVoiceChat@ioLocalParent@@UAE_NXZ PROC		; ioLocalParent::IsUseVoiceChat, COMDAT
; _this$ = ecx

; 136  : 	virtual bool IsUseVoiceChat() { return true; }

  00000	b0 01		 mov	 al, 1
  00002	c3		 ret	 0
?IsUseVoiceChat@ioLocalParent@@UAE_NXZ ENDP		; ioLocalParent::IsUseVoiceChat
; Function compile flags: /Ogsp
_TEXT	ENDS
;	COMDAT ?IsMemoryLoadMapPac@ioLocalParent@@UAE_NXZ
_TEXT	SEGMENT
?IsMemoryLoadMapPac@ioLocalParent@@UAE_NXZ PROC		; ioLocalParent::IsMemoryLoadMapPac, COMDAT
; _this$ = ecx

; 137  : 	virtual bool IsMemoryLoadMapPac() { return false; }

  00000	32 c0		 xor	 al, al
  00002	c3		 ret	 0
?IsMemoryLoadMapPac@ioLocalParent@@UAE_NXZ ENDP		; ioLocalParent::IsMemoryLoadMapPac
; Function compile flags: /Ogsp
_TEXT	ENDS
;	COMDAT ?GetCashPageWidth@ioLocalParent@@UAEHXZ
_TEXT	SEGMENT
?GetCashPageWidth@ioLocalParent@@UAEHXZ PROC		; ioLocalParent::GetCashPageWidth, COMDAT
; _this$ = ecx

; 139  : 	virtual int GetCashPageWidth() { return 0; }

  00000	33 c0		 xor	 eax, eax
  00002	c3		 ret	 0
?GetCashPageWidth@ioLocalParent@@UAEHXZ ENDP		; ioLocalParent::GetCashPageWidth
; Function compile flags: /Ogsp
_TEXT	ENDS
;	COMDAT ?GetCashPageHeight@ioLocalParent@@UAEHXZ
_TEXT	SEGMENT
?GetCashPageHeight@ioLocalParent@@UAEHXZ PROC		; ioLocalParent::GetCashPageHeight, COMDAT
; _this$ = ecx

; 140  : 	virtual int GetCashPageHeight() { return 0; }

  00000	33 c0		 xor	 eax, eax
  00002	c3		 ret	 0
?GetCashPageHeight@ioLocalParent@@UAEHXZ ENDP		; ioLocalParent::GetCashPageHeight
; Function compile flags: /Ogsp
_TEXT	ENDS
;	COMDAT ?OnCashPageHide@ioLocalParent@@UAEXXZ
_TEXT	SEGMENT
?OnCashPageHide@ioLocalParent@@UAEXXZ PROC		; ioLocalParent::OnCashPageHide, COMDAT
; _this$ = ecx

; 141  : 	virtual void OnCashPageHide(){}

  00000	c3		 ret	 0
?OnCashPageHide@ioLocalParent@@UAEXXZ ENDP		; ioLocalParent::OnCashPageHide
; Function compile flags: /Ogsp
_TEXT	ENDS
;	COMDAT ?GetProgramExitWaitSec@ioLocalParent@@UAEHXZ
_TEXT	SEGMENT
?GetProgramExitWaitSec@ioLocalParent@@UAEHXZ PROC	; ioLocalParent::GetProgramExitWaitSec, COMDAT
; _this$ = ecx

; 142  : 	virtual int GetProgramExitWaitSec() { return 60; } // 1분

  00000	6a 3c		 push	 60			; 0000003cH
  00002	58		 pop	 eax
  00003	c3		 ret	 0
?GetProgramExitWaitSec@ioLocalParent@@UAEHXZ ENDP	; ioLocalParent::GetProgramExitWaitSec
; Function compile flags: /Ogsp
_TEXT	ENDS
;	COMDAT ?GetFillCashURL@ioLocalParent@@UAEXAAVioHashString@@ABV2@@Z
_TEXT	SEGMENT
_rsFullURL$ = 8						; size = 4
_rsShortURL$ = 12					; size = 4
?GetFillCashURL@ioLocalParent@@UAEXAAVioHashString@@ABV2@@Z PROC ; ioLocalParent::GetFillCashURL, COMDAT
; _this$ = ecx

; 143  : 	virtual void GetFillCashURL( OUT ioHashString &rsFullURL , IN const ioHashString &rsShortURL ){}

  00000	c2 08 00	 ret	 8
?GetFillCashURL@ioLocalParent@@UAEXAAVioHashString@@ABV2@@Z ENDP ; ioLocalParent::GetFillCashURL
; Function compile flags: /Ogsp
_TEXT	ENDS
;	COMDAT ?SetWebLoginKey@ioLocalParent@@UAEXABVioHashString@@@Z
_TEXT	SEGMENT
_rsWebLoginKey$ = 8					; size = 4
?SetWebLoginKey@ioLocalParent@@UAEXABVioHashString@@@Z PROC ; ioLocalParent::SetWebLoginKey, COMDAT
; _this$ = ecx

; 147  : 	virtual void SetWebLoginKey( const ioHashString &rsWebLoginKey ) {}

  00000	c2 04 00	 ret	 4
?SetWebLoginKey@ioLocalParent@@UAEXABVioHashString@@@Z ENDP ; ioLocalParent::SetWebLoginKey
; Function compile flags: /Ogsp
_TEXT	ENDS
;	COMDAT ?GetHighSpecWidth@ioLocalParent@@UAEHXZ
_TEXT	SEGMENT
?GetHighSpecWidth@ioLocalParent@@UAEHXZ PROC		; ioLocalParent::GetHighSpecWidth, COMDAT
; _this$ = ecx

; 149  : 	virtual int GetHighSpecWidth() { return 1024; }

  00000	b8 00 04 00 00	 mov	 eax, 1024		; 00000400H
  00005	c3		 ret	 0
?GetHighSpecWidth@ioLocalParent@@UAEHXZ ENDP		; ioLocalParent::GetHighSpecWidth
; Function compile flags: /Ogsp
_TEXT	ENDS
;	COMDAT ?GetHighSpecHeight@ioLocalParent@@UAEHXZ
_TEXT	SEGMENT
?GetHighSpecHeight@ioLocalParent@@UAEHXZ PROC		; ioLocalParent::GetHighSpecHeight, COMDAT
; _this$ = ecx

; 150  : 	virtual int GetHighSpecHeight() { return 768; }

  00000	b8 00 03 00 00	 mov	 eax, 768		; 00000300H
  00005	c3		 ret	 0
?GetHighSpecHeight@ioLocalParent@@UAEHXZ ENDP		; ioLocalParent::GetHighSpecHeight
; Function compile flags: /Ogsp
_TEXT	ENDS
;	COMDAT ?SetGoldChargeBtn@ioLocalParent@@UAEX_N@Z
_TEXT	SEGMENT
_bBtnOn$ = 8						; size = 1
?SetGoldChargeBtn@ioLocalParent@@UAEX_N@Z PROC		; ioLocalParent::SetGoldChargeBtn, COMDAT
; _this$ = ecx

; 156  : 	virtual void SetGoldChargeBtn( bool bBtnOn ){ m_bGoldChargeBtn = bBtnOn; }

  00000	55		 push	 ebp
  00001	8b ec		 mov	 ebp, esp
  00003	8a 45 08	 mov	 al, BYTE PTR _bBtnOn$[ebp]
  00006	88 41 58	 mov	 BYTE PTR [ecx+88], al
  00009	5d		 pop	 ebp
  0000a	c2 04 00	 ret	 4
?SetGoldChargeBtn@ioLocalParent@@UAEX_N@Z ENDP		; ioLocalParent::SetGoldChargeBtn
; Function compile flags: /Ogsp
_TEXT	ENDS
;	COMDAT ?GetGoldChargeBtn@ioLocalParent@@UAE_NXZ
_TEXT	SEGMENT
?GetGoldChargeBtn@ioLocalParent@@UAE_NXZ PROC		; ioLocalParent::GetGoldChargeBtn, COMDAT
; _this$ = ecx

; 157  : 	virtual bool GetGoldChargeBtn(){ return m_bGoldChargeBtn; }

  00000	8a 41 58	 mov	 al, BYTE PTR [ecx+88]
  00003	c3		 ret	 0
?GetGoldChargeBtn@ioLocalParent@@UAE_NXZ ENDP		; ioLocalParent::GetGoldChargeBtn
; Function compile flags: /Ogsp
_TEXT	ENDS
;	COMDAT ?SetCashReqTime@ioLocalParent@@UAEXK@Z
_TEXT	SEGMENT
_dwTime$ = 8						; size = 4
?SetCashReqTime@ioLocalParent@@UAEXK@Z PROC		; ioLocalParent::SetCashReqTime, COMDAT
; _this$ = ecx

; 163  : 	virtual void SetCashReqTime( DWORD dwTime ){ m_dwCashReqTime = dwTime; }

  00000	55		 push	 ebp
  00001	8b ec		 mov	 ebp, esp
  00003	8b 45 08	 mov	 eax, DWORD PTR _dwTime$[ebp]
  00006	89 41 5c	 mov	 DWORD PTR [ecx+92], eax
  00009	5d		 pop	 ebp
  0000a	c2 04 00	 ret	 4
?SetCashReqTime@ioLocalParent@@UAEXK@Z ENDP		; ioLocalParent::SetCashReqTime
; Function compile flags: /Ogsp
_TEXT	ENDS
;	COMDAT ?GetCashReqTime@ioLocalParent@@UAEKXZ
_TEXT	SEGMENT
?GetCashReqTime@ioLocalParent@@UAEKXZ PROC		; ioLocalParent::GetCashReqTime, COMDAT
; _this$ = ecx

; 164  : 	virtual DWORD GetCashReqTime(){ return m_dwCashReqTime; }

  00000	8b 41 5c	 mov	 eax, DWORD PTR [ecx+92]
  00003	c3		 ret	 0
?GetCashReqTime@ioLocalParent@@UAEKXZ ENDP		; ioLocalParent::GetCashReqTime
_TEXT	ENDS
EXTRN	__imp_??0ioHashString@@QAE@ABV0@@Z:PROC
; Function compile flags: /Ogsp
;	COMDAT ?GetWebShopUrl@ioLocalParent@@UAE?AVioHashString@@XZ
_TEXT	SEGMENT
$T506425 = -4						; size = 4
___$ReturnUdt$ = 8					; size = 4
?GetWebShopUrl@ioLocalParent@@UAE?AVioHashString@@XZ PROC ; ioLocalParent::GetWebShopUrl, COMDAT
; _this$ = ecx

; 166  : 	virtual ioHashString GetWebShopUrl(){ return m_sWeb_shop_url; }

  00000	55		 push	 ebp
  00001	8b ec		 mov	 ebp, esp
  00003	51		 push	 ecx
  00004	83 65 fc 00	 and	 DWORD PTR $T506425[ebp], 0
  00008	83 c1 60	 add	 ecx, 96			; 00000060H
  0000b	51		 push	 ecx
  0000c	8b 4d 08	 mov	 ecx, DWORD PTR ___$ReturnUdt$[ebp]
  0000f	ff 15 00 00 00
	00		 call	 DWORD PTR __imp_??0ioHashString@@QAE@ABV0@@Z
  00015	8b 45 08	 mov	 eax, DWORD PTR ___$ReturnUdt$[ebp]
  00018	c9		 leave
  00019	c2 04 00	 ret	 4
?GetWebShopUrl@ioLocalParent@@UAE?AVioHashString@@XZ ENDP ; ioLocalParent::GetWebShopUrl
; Function compile flags: /Ogsp
_TEXT	ENDS
;	COMDAT ?OpenWebPage@ioLocalParent@@UAEXH@Z
_TEXT	SEGMENT
_iType$ = 8						; size = 4
?OpenWebPage@ioLocalParent@@UAEXH@Z PROC		; ioLocalParent::OpenWebPage, COMDAT
; _this$ = ecx

; 169  : 	virtual void OpenWebPage( int iType ) {};

  00000	c2 04 00	 ret	 4
?OpenWebPage@ioLocalParent@@UAEXH@Z ENDP		; ioLocalParent::OpenWebPage
_TEXT	ENDS
PUBLIC	?FullScreen@Setting@@SA_NXZ			; Setting::FullScreen
EXTRN	?m_Option@Setting@@1USettingOption@@A:BYTE	; Setting::m_Option
; Function compile flags: /Ogsp
; File d:\lost saga for developer\youtube\tutorial\source\src\lsclient\setting.h
;	COMDAT ?FullScreen@Setting@@SA_NXZ
_TEXT	SEGMENT
?FullScreen@Setting@@SA_NXZ PROC			; Setting::FullScreen, COMDAT

; 408  : 	static bool FullScreen() { return m_Option.m_bFullScreen; }

  00000	a0 00 00 00 00	 mov	 al, BYTE PTR ?m_Option@Setting@@1USettingOption@@A
  00005	c3		 ret	 0
?FullScreen@Setting@@SA_NXZ ENDP			; Setting::FullScreen
_TEXT	ENDS
PUBLIC	?GetHWnd@ioApplication@@QBEPAUHWND__@@XZ	; ioApplication::GetHWnd
; Function compile flags: /Ogsp
; File d:\lost saga for developer\youtube\tutorial\source\src\lsclient\ioapplication.h
;	COMDAT ?GetHWnd@ioApplication@@QBEPAUHWND__@@XZ
_TEXT	SEGMENT
?GetHWnd@ioApplication@@QBEPAUHWND__@@XZ PROC		; ioApplication::GetHWnd, COMDAT
; _this$ = ecx

; 686  : 	HWND GetHWnd() const { return m_hWnd; }

  00000	8b 41 08	 mov	 eax, DWORD PTR [ecx+8]
  00003	c3		 ret	 0
?GetHWnd@ioApplication@@QBEPAUHWND__@@XZ ENDP		; ioApplication::GetHWnd
_TEXT	ENDS
EXTRN	??3@YAXPAX@Z:PROC				; operator delete
; Function compile flags: /Ogsp
;	COMDAT ??_GioLocalJapan@@UAEPAXI@Z
_TEXT	SEGMENT
___flags$ = 8						; size = 4
??_GioLocalJapan@@UAEPAXI@Z PROC			; ioLocalJapan::`scalar deleting destructor', COMDAT
; _this$ = ecx
  00000	55		 push	 ebp
  00001	8b ec		 mov	 ebp, esp
  00003	56		 push	 esi
  00004	8b f1		 mov	 esi, ecx
  00006	c7 06 00 00 00
	00		 mov	 DWORD PTR [esi], OFFSET ??_7ioLocalJapan@@6B@
  0000c	e8 00 00 00 00	 call	 ??1ioLocalParent@@UAE@XZ ; ioLocalParent::~ioLocalParent
  00011	f6 45 08 01	 test	 BYTE PTR ___flags$[ebp], 1
  00015	74 07		 je	 SHORT $LN1@scalar
  00017	56		 push	 esi
  00018	e8 00 00 00 00	 call	 ??3@YAXPAX@Z		; operator delete
  0001d	59		 pop	 ecx
$LN1@scalar:
  0001e	8b c6		 mov	 eax, esi
  00020	5e		 pop	 esi
  00021	5d		 pop	 ebp
  00022	c2 04 00	 ret	 4
??_GioLocalJapan@@UAEPAXI@Z ENDP			; ioLocalJapan::`scalar deleting destructor'
_TEXT	ENDS
EXTRN	?ExcuteWeb@Help@@YAXPBD@Z:PROC			; Help::ExcuteWeb
EXTRN	__imp_?c_str@ioHashString@@QBEPBDXZ:PROC
EXTRN	__imp__ShowWindow@8:PROC
EXTRN	?GetSingleton@ioApplication@@SAAAV1@XZ:PROC	; ioApplication::GetSingleton
EXTRN	__imp_?IsEmpty@ioHashString@@QBE_NXZ:PROC
EXTRN	?GetSingleton@ioBrowserManager@@SAAAV1@XZ:PROC	; ioBrowserManager::GetSingleton
; Function compile flags: /Ogsp
; File d:\lost saga for developer\youtube\tutorial\source\src\lsclient\local\iolocaljapan.cpp
;	COMDAT ?OpenFillCashPage@ioLocalJapan@@UAEXXZ
_TEXT	SEGMENT
?OpenFillCashPage@ioLocalJapan@@UAEXXZ PROC		; ioLocalJapan::OpenFillCashPage, COMDAT
; _this$ = ecx

; 92   : 	if( g_BrowserMgr.GetCashURL().IsEmpty() )

  00000	e8 00 00 00 00	 call	 ?GetSingleton@ioBrowserManager@@SAAAV1@XZ ; ioBrowserManager::GetSingleton
  00005	8d 88 8c 00 00
	00		 lea	 ecx, DWORD PTR [eax+140]
  0000b	ff 15 00 00 00
	00		 call	 DWORD PTR __imp_?IsEmpty@ioHashString@@QBE_NXZ
  00011	84 c0		 test	 al, al
  00013	75 30		 jne	 SHORT $LN3@OpenFillCa

; 93   : 		return;
; 94   : 
; 95   : 	if( Setting::FullScreen() )

  00015	38 05 00 00 00
	00		 cmp	 BYTE PTR ?m_Option@Setting@@1USettingOption@@A, al
  0001b	74 10		 je	 SHORT $LN1@OpenFillCa

; 96   : 		ShowWindow( g_App.GetHWnd(), SW_MINIMIZE );

  0001d	e8 00 00 00 00	 call	 ?GetSingleton@ioApplication@@SAAAV1@XZ ; ioApplication::GetSingleton
  00022	6a 06		 push	 6
  00024	ff 70 08	 push	 DWORD PTR [eax+8]
  00027	ff 15 00 00 00
	00		 call	 DWORD PTR __imp__ShowWindow@8
$LN1@OpenFillCa:

; 97   : 
; 98   : 	Help::ExcuteWeb( g_BrowserMgr.GetCashURL().c_str() );

  0002d	e8 00 00 00 00	 call	 ?GetSingleton@ioBrowserManager@@SAAAV1@XZ ; ioBrowserManager::GetSingleton
  00032	8d 88 8c 00 00
	00		 lea	 ecx, DWORD PTR [eax+140]
  00038	ff 15 00 00 00
	00		 call	 DWORD PTR __imp_?c_str@ioHashString@@QBEPBDXZ
  0003e	50		 push	 eax
  0003f	e8 00 00 00 00	 call	 ?ExcuteWeb@Help@@YAXPBD@Z ; Help::ExcuteWeb
  00044	59		 pop	 ecx
$LN3@OpenFillCa:

; 99   : }

  00045	c3		 ret	 0
?OpenFillCashPage@ioLocalJapan@@UAEXXZ ENDP		; ioLocalJapan::OpenFillCashPage
_TEXT	ENDS
END
