; Listing generated by Microsoft (R) Optimizing Compiler Version 16.00.30319.01 

	TITLE	D:\Lost Saga For Developer\Youtube\Tutorial\Source\src\LSClient\Local\ioLocalEU.cpp
	.686P
	.XMM
	include listing.inc
	.model	flat

INCLUDELIB MSVCRT
INCLUDELIB OLDNAMES

PUBLIC	?GetCashURL@ioBrowserManager@@QBEABVioHashString@@XZ ; ioBrowserManager::GetCashURL
; Function compile flags: /Ogsp
; File d:\lost saga for developer\youtube\tutorial\source\src\lsclient\iobrowsermanager.h
;	COMDAT ?GetCashURL@ioBrowserManager@@QBEABVioHashString@@XZ
_TEXT	SEGMENT
?GetCashURL@ioBrowserManager@@QBEABVioHashString@@XZ PROC ; ioBrowserManager::GetCashURL, COMDAT
; _this$ = ecx

; 106  : 	inline const ioHashString& GetCashURL() const { return m_CashURL; }

  00000	8d 81 8c 00 00
	00		 lea	 eax, DWORD PTR [ecx+140]
  00006	c3		 ret	 0
?GetCashURL@ioBrowserManager@@QBEABVioHashString@@XZ ENDP ; ioBrowserManager::GetCashURL
_TEXT	ENDS
PUBLIC	??_7ioLocalEU@@6B@				; ioLocalEU::`vftable'
PUBLIC	??0ioLocalEU@@QAE@XZ				; ioLocalEU::ioLocalEU
PUBLIC	??_R4ioLocalEU@@6B@				; ioLocalEU::`RTTI Complete Object Locator'
PUBLIC	??_R0?AVioLocalEU@@@8				; ioLocalEU `RTTI Type Descriptor'
PUBLIC	??_R3ioLocalEU@@8				; ioLocalEU::`RTTI Class Hierarchy Descriptor'
PUBLIC	??_R2ioLocalEU@@8				; ioLocalEU::`RTTI Base Class Array'
PUBLIC	??_R1A@?0A@EA@ioLocalEU@@8			; ioLocalEU::`RTTI Base Class Descriptor at (0,-1,0,64)'
PUBLIC	??_R1A@?0A@EA@ioLocalParent@@8			; ioLocalParent::`RTTI Base Class Descriptor at (0,-1,0,64)'
PUBLIC	??_R0?AVioLocalParent@@@8			; ioLocalParent `RTTI Type Descriptor'
PUBLIC	??_R3ioLocalParent@@8				; ioLocalParent::`RTTI Class Hierarchy Descriptor'
PUBLIC	??_R2ioLocalParent@@8				; ioLocalParent::`RTTI Base Class Array'
PUBLIC	?GetType@ioLocalEU@@UAE?AW4LocalType@ioLocalManagerParent@@XZ ; ioLocalEU::GetType
PUBLIC	?GetTextListFileName@ioLocalEU@@UAEPBDXZ	; ioLocalEU::GetTextListFileName
PUBLIC	?GetMemTextList@ioLocalEU@@UAEPBDXZ		; ioLocalEU::GetMemTextList
PUBLIC	?GetSubType@ioLocalParent@@UAEHXZ		; ioLocalParent::GetSubType
PUBLIC	?SetSubType@ioLocalParent@@UAEXH@Z		; ioLocalParent::SetSubType
PUBLIC	?GetResourceIDTitleCashBmp@ioLocalEU@@UAEKXZ	; ioLocalEU::GetResourceIDTitleCashBmp
PUBLIC	?GetResourceIDTitleEntryBmp@ioLocalEU@@UAEKXZ	; ioLocalEU::GetResourceIDTitleEntryBmp
PUBLIC	?GetResourceIDTitleGuildBmp@ioLocalEU@@UAEKXZ	; ioLocalEU::GetResourceIDTitleGuildBmp
PUBLIC	?GetResourceIDTitleGuildMarkBmp@ioLocalEU@@UAEKXZ ; ioLocalEU::GetResourceIDTitleGuildMarkBmp
PUBLIC	?GetResourceIDTitleHomeBmp@ioLocalEU@@UAEKXZ	; ioLocalEU::GetResourceIDTitleHomeBmp
PUBLIC	?GetResourceIDTitleBmp@ioLocalEU@@UAEKXZ	; ioLocalEU::GetResourceIDTitleBmp
PUBLIC	?GetResourceIDTitleWebShop@ioLocalParent@@UAEKXZ ; ioLocalParent::GetResourceIDTitleWebShop
PUBLIC	?GetResourceIDErrorBack@ioLocalEU@@UAEKXZ	; ioLocalEU::GetResourceIDErrorBack
PUBLIC	?GetResourceIDErrorExitC@ioLocalEU@@UAEKXZ	; ioLocalEU::GetResourceIDErrorExitC
PUBLIC	?GetResourceIDErrorExitN@ioLocalEU@@UAEKXZ	; ioLocalEU::GetResourceIDErrorExitN
PUBLIC	?GetResourceIDErrorExitO@ioLocalEU@@UAEKXZ	; ioLocalEU::GetResourceIDErrorExitO
PUBLIC	?GetResourceIDErrorSolutionC@ioLocalEU@@UAEKXZ	; ioLocalEU::GetResourceIDErrorSolutionC
PUBLIC	?GetResourceIDErrorSolutionN@ioLocalEU@@UAEKXZ	; ioLocalEU::GetResourceIDErrorSolutionN
PUBLIC	?GetResourceIDErrorSolutionO@ioLocalEU@@UAEKXZ	; ioLocalEU::GetResourceIDErrorSolutionO
PUBLIC	?SetLoginData@ioLocalEU@@UAEXABVioHashString@@@Z ; ioLocalEU::SetLoginData
PUBLIC	?SetWarnetInfo@ioLocalParent@@UAEXABVioHashString@@K@Z ; ioLocalParent::SetWarnetInfo
PUBLIC	?FillLoginData@ioLocalEU@@UAEXAAVSP2Packet@@@Z	; ioLocalEU::FillLoginData
PUBLIC	?GetClassTypeForTutorialDropItem@ioLocalEU@@UAEXAAH@Z ; ioLocalEU::GetClassTypeForTutorialDropItem
PUBLIC	?GetGuildMasterPostion@ioLocalEU@@UAEPBDXZ	; ioLocalEU::GetGuildMasterPostion
PUBLIC	?GetGuildSecondMasterPosition@ioLocalEU@@UAEPBDXZ ; ioLocalEU::GetGuildSecondMasterPosition
PUBLIC	?GetGuildGeneralPosition@ioLocalEU@@UAEPBDXZ	; ioLocalEU::GetGuildGeneralPosition
PUBLIC	?GetGuildAdminPosition@ioLocalEU@@UAEPBDXZ	; ioLocalEU::GetGuildAdminPosition
PUBLIC	?GetErrorSolutionURL@ioLocalEU@@UAEPBDXZ	; ioLocalEU::GetErrorSolutionURL
PUBLIC	?GetBillingErrorMent@ioLocalEU@@UAEPBDAAVioHashString@@@Z ; ioLocalEU::GetBillingErrorMent
PUBLIC	?GetFirstIDMaxSize@ioLocalEU@@UAEHXZ		; ioLocalEU::GetFirstIDMaxSize
PUBLIC	?IsShowFirstIDWnd@ioLocalEU@@UAE_NXZ		; ioLocalEU::IsShowFirstIDWnd
PUBLIC	?OpenFillCashPage@ioLocalEU@@UAEXXZ		; ioLocalEU::OpenFillCashPage
PUBLIC	?IsRightNewID@ioLocalEU@@UAE_NPBD@Z		; ioLocalEU::IsRightNewID
PUBLIC	?IsSendGashaponList@ioLocalEU@@UAE_NXZ		; ioLocalEU::IsSendGashaponList
PUBLIC	?GetChangedString@ioLocalEU@@UAEXPAD@Z		; ioLocalEU::GetChangedString
PUBLIC	?IsExecuteLuncher@ioLocalEU@@UAE_NXZ		; ioLocalEU::IsExecuteLuncher
PUBLIC	?IsKoreaGameLimit@ioLocalEU@@UAE_NXZ		; ioLocalEU::IsKoreaGameLimit
PUBLIC	?IsCheckKorean@ioLocalEU@@UAE_NXZ		; ioLocalEU::IsCheckKorean
PUBLIC	?IsFirstIDCheckPass@ioLocalParent@@UAE_NXZ	; ioLocalParent::IsFirstIDCheckPass
PUBLIC	?IsMyHomePage@ioLocalEU@@UAE_NXZ		; ioLocalEU::IsMyHomePage
PUBLIC	?IsShowExtraGoodsList@ioLocalEU@@UAE_NXZ	; ioLocalEU::IsShowExtraGoodsList
PUBLIC	?IsShowRegulation@ioLocalEU@@UAE_NXZ		; ioLocalEU::IsShowRegulation
PUBLIC	?IsStartFullScreen@ioLocalParent@@UAE_NXZ	; ioLocalParent::IsStartFullScreen
PUBLIC	?IsTooltipAutoLine@ioLocalParent@@UAE_NXZ	; ioLocalParent::IsTooltipAutoLine
PUBLIC	?IsMileage@ioLocalParent@@UAE_NXZ		; ioLocalParent::IsMileage
PUBLIC	?IsGatotkacaPremium@ioLocalParent@@UAE_NH@Z	; ioLocalParent::IsGatotkacaPremium
PUBLIC	?IsPointBlankPremium@ioLocalParent@@UAE_NH@Z	; ioLocalParent::IsPointBlankPremium
PUBLIC	?SetPresentRecvDisableMsg@ioLocalEU@@UAE_NH@Z	; ioLocalEU::SetPresentRecvDisableMsg
PUBLIC	?GetLimitGradeLevel@ioLocalEU@@UAEHXZ		; ioLocalEU::GetLimitGradeLevel
PUBLIC	?IsEndFishingByMove@ioLocalParent@@UAE_NXZ	; ioLocalParent::IsEndFishingByMove
PUBLIC	?GetLicenseDate@ioLocalEU@@UAEHXZ		; ioLocalEU::GetLicenseDate
PUBLIC	?IsShowFirstSoldierSelectWnd@ioLocalParent@@UAE_NXZ ; ioLocalParent::IsShowFirstSoldierSelectWnd
PUBLIC	?ExitAction@ioLocalParent@@UAEXXZ		; ioLocalParent::ExitAction
PUBLIC	?ShowHackShieldErrorDlg@ioLocalParent@@UAEXABVioHashString@@@Z ; ioLocalParent::ShowHackShieldErrorDlg
PUBLIC	?GetCashSendTime@ioLocalParent@@UAEKXZ		; ioLocalParent::GetCashSendTime
PUBLIC	?IsHeadquarterWebPage@ioLocalParent@@UAE_NXZ	; ioLocalParent::IsHeadquarterWebPage
PUBLIC	?IsFirstIDControlAltCtrl@ioLocalParent@@UAE_NXZ	; ioLocalParent::IsFirstIDControlAltCtrl
PUBLIC	?IsPCRoomBonusSoldier@ioLocalParent@@UAE_NXZ	; ioLocalParent::IsPCRoomBonusSoldier
PUBLIC	?IsCheckValueServer@ioLocalEU@@UAE_NXZ		; ioLocalEU::IsCheckValueServer
PUBLIC	?IsChangeServerHelp@ioLocalParent@@UAE_NXZ	; ioLocalParent::IsChangeServerHelp
PUBLIC	?IsSendCollisionPos@ioLocalParent@@UAE_NXZ	; ioLocalParent::IsSendCollisionPos
PUBLIC	?IsLimitStartCancel@ioLocalParent@@UAE_NXZ	; ioLocalParent::IsLimitStartCancel
PUBLIC	?IsCreateMiniDump@ioLocalParent@@UAE_NXZ	; ioLocalParent::IsCreateMiniDump
PUBLIC	?IsTickCheck@ioLocalParent@@UAE_NXZ		; ioLocalParent::IsTickCheck
PUBLIC	?IsAnnounceShutDown@ioLocalParent@@UAE_NXZ	; ioLocalParent::IsAnnounceShutDown
PUBLIC	?IsUseMedalLevelOpen@ioLocalParent@@UAE_NXZ	; ioLocalParent::IsUseMedalLevelOpen
PUBLIC	?IsUsePresentMacroInShipping@ioLocalParent@@UAE_NXZ ; ioLocalParent::IsUsePresentMacroInShipping
PUBLIC	?IsSendChatLog@ioLocalParent@@UAE_NXZ		; ioLocalParent::IsSendChatLog
PUBLIC	?IsUseVoiceChat@ioLocalParent@@UAE_NXZ		; ioLocalParent::IsUseVoiceChat
PUBLIC	?IsMemoryLoadMapPac@ioLocalParent@@UAE_NXZ	; ioLocalParent::IsMemoryLoadMapPac
PUBLIC	?GetCashPageWidth@ioLocalParent@@UAEHXZ		; ioLocalParent::GetCashPageWidth
PUBLIC	?GetCashPageHeight@ioLocalParent@@UAEHXZ	; ioLocalParent::GetCashPageHeight
PUBLIC	?OnCashPageHide@ioLocalParent@@UAEXXZ		; ioLocalParent::OnCashPageHide
PUBLIC	?GetProgramExitWaitSec@ioLocalParent@@UAEHXZ	; ioLocalParent::GetProgramExitWaitSec
PUBLIC	?GetFillCashURL@ioLocalParent@@UAEXAAVioHashString@@ABV2@@Z ; ioLocalParent::GetFillCashURL
PUBLIC	?SetWebLoginKey@ioLocalEU@@UAEXABVioHashString@@@Z ; ioLocalEU::SetWebLoginKey
PUBLIC	?GetHighSpecWidth@ioLocalParent@@UAEHXZ		; ioLocalParent::GetHighSpecWidth
PUBLIC	?GetHighSpecHeight@ioLocalParent@@UAEHXZ	; ioLocalParent::GetHighSpecHeight
PUBLIC	?SetGoldChargeBtn@ioLocalParent@@UAEX_N@Z	; ioLocalParent::SetGoldChargeBtn
PUBLIC	?GetGoldChargeBtn@ioLocalParent@@UAE_NXZ	; ioLocalParent::GetGoldChargeBtn
PUBLIC	?SetCashReqTime@ioLocalParent@@UAEXK@Z		; ioLocalParent::SetCashReqTime
PUBLIC	?GetCashReqTime@ioLocalParent@@UAEKXZ		; ioLocalParent::GetCashReqTime
PUBLIC	?GetWebShopUrl@ioLocalParent@@UAE?AVioHashString@@XZ ; ioLocalParent::GetWebShopUrl
PUBLIC	?OpenWebPage@ioLocalParent@@UAEXH@Z		; ioLocalParent::OpenWebPage
EXTRN	__imp_??1ioHashString@@QAE@XZ:PROC
EXTRN	??1ioLocalParent@@UAE@XZ:PROC			; ioLocalParent::~ioLocalParent
EXTRN	__imp_??0ioHashString@@QAE@XZ:PROC
EXTRN	??0ioLocalParent@@QAE@XZ:PROC			; ioLocalParent::ioLocalParent
EXTRN	___CxxFrameHandler3:PROC
EXTRN	@__security_check_cookie@4:PROC
EXTRN	__EH_epilog3:PROC
EXTRN	__EH_prolog3:PROC
EXTRN	??_7type_info@@6B@:QWORD			; type_info::`vftable'
EXTRN	?SetTimeZone@ioLocalParent@@UAEXXZ:PROC		; ioLocalParent::SetTimeZone
EXTRN	?IsRightLicense@ioLocalParent@@UAE_NXZ:PROC	; ioLocalParent::IsRightLicense
EXTRN	?LoadINI@ioLocalParent@@UAEXXZ:PROC		; ioLocalParent::LoadINI
EXTRN	?GetLocalGMT@ioLocalParent@@UAEPBDXZ:PROC	; ioLocalParent::GetLocalGMT
EXTRN	?ProcessGetCash@ioLocalParent@@UAEXXZ:PROC	; ioLocalParent::ProcessGetCash
EXTRN	??_EioLocalEU@@UAEPAXI@Z:PROC			; ioLocalEU::`vector deleting destructor'
;	COMDAT ??_R2ioLocalParent@@8
; File d:\lost saga for developer\youtube\tutorial\source\src\lsclient\local\iolocaleu.cpp
rdata$r	SEGMENT
??_R2ioLocalParent@@8 DD FLAT:??_R1A@?0A@EA@ioLocalParent@@8 ; ioLocalParent::`RTTI Base Class Array'
rdata$r	ENDS
;	COMDAT ??_R3ioLocalParent@@8
rdata$r	SEGMENT
??_R3ioLocalParent@@8 DD 00H				; ioLocalParent::`RTTI Class Hierarchy Descriptor'
	DD	00H
	DD	01H
	DD	FLAT:??_R2ioLocalParent@@8
rdata$r	ENDS
;	COMDAT ??_R0?AVioLocalParent@@@8
_DATA	SEGMENT
??_R0?AVioLocalParent@@@8 DD FLAT:??_7type_info@@6B@	; ioLocalParent `RTTI Type Descriptor'
	DD	00H
	DB	'.?AVioLocalParent@@', 00H
_DATA	ENDS
;	COMDAT ??_R1A@?0A@EA@ioLocalParent@@8
rdata$r	SEGMENT
??_R1A@?0A@EA@ioLocalParent@@8 DD FLAT:??_R0?AVioLocalParent@@@8 ; ioLocalParent::`RTTI Base Class Descriptor at (0,-1,0,64)'
	DD	00H
	DD	00H
	DD	0ffffffffH
	DD	00H
	DD	040H
	DD	FLAT:??_R3ioLocalParent@@8
rdata$r	ENDS
;	COMDAT ??_R1A@?0A@EA@ioLocalEU@@8
rdata$r	SEGMENT
??_R1A@?0A@EA@ioLocalEU@@8 DD FLAT:??_R0?AVioLocalEU@@@8 ; ioLocalEU::`RTTI Base Class Descriptor at (0,-1,0,64)'
	DD	01H
	DD	00H
	DD	0ffffffffH
	DD	00H
	DD	040H
	DD	FLAT:??_R3ioLocalEU@@8
rdata$r	ENDS
;	COMDAT ??_R2ioLocalEU@@8
rdata$r	SEGMENT
??_R2ioLocalEU@@8 DD FLAT:??_R1A@?0A@EA@ioLocalEU@@8	; ioLocalEU::`RTTI Base Class Array'
	DD	FLAT:??_R1A@?0A@EA@ioLocalParent@@8
rdata$r	ENDS
;	COMDAT ??_R3ioLocalEU@@8
rdata$r	SEGMENT
??_R3ioLocalEU@@8 DD 00H				; ioLocalEU::`RTTI Class Hierarchy Descriptor'
	DD	00H
	DD	02H
	DD	FLAT:??_R2ioLocalEU@@8
rdata$r	ENDS
;	COMDAT ??_R0?AVioLocalEU@@@8
_DATA	SEGMENT
??_R0?AVioLocalEU@@@8 DD FLAT:??_7type_info@@6B@	; ioLocalEU `RTTI Type Descriptor'
	DD	00H
	DB	'.?AVioLocalEU@@', 00H
_DATA	ENDS
;	COMDAT ??_R4ioLocalEU@@6B@
rdata$r	SEGMENT
??_R4ioLocalEU@@6B@ DD 00H				; ioLocalEU::`RTTI Complete Object Locator'
	DD	00H
	DD	00H
	DD	FLAT:??_R0?AVioLocalEU@@@8
	DD	FLAT:??_R3ioLocalEU@@8
rdata$r	ENDS
;	COMDAT ??_7ioLocalEU@@6B@
CONST	SEGMENT
??_7ioLocalEU@@6B@ DD FLAT:??_R4ioLocalEU@@6B@		; ioLocalEU::`vftable'
	DD	FLAT:?GetType@ioLocalEU@@UAE?AW4LocalType@ioLocalManagerParent@@XZ
	DD	FLAT:?GetTextListFileName@ioLocalEU@@UAEPBDXZ
	DD	FLAT:?GetMemTextList@ioLocalEU@@UAEPBDXZ
	DD	FLAT:?GetSubType@ioLocalParent@@UAEHXZ
	DD	FLAT:?SetSubType@ioLocalParent@@UAEXH@Z
	DD	FLAT:?GetResourceIDTitleCashBmp@ioLocalEU@@UAEKXZ
	DD	FLAT:?GetResourceIDTitleEntryBmp@ioLocalEU@@UAEKXZ
	DD	FLAT:?GetResourceIDTitleGuildBmp@ioLocalEU@@UAEKXZ
	DD	FLAT:?GetResourceIDTitleGuildMarkBmp@ioLocalEU@@UAEKXZ
	DD	FLAT:?GetResourceIDTitleHomeBmp@ioLocalEU@@UAEKXZ
	DD	FLAT:?GetResourceIDTitleBmp@ioLocalEU@@UAEKXZ
	DD	FLAT:?GetResourceIDTitleWebShop@ioLocalParent@@UAEKXZ
	DD	FLAT:?GetResourceIDErrorBack@ioLocalEU@@UAEKXZ
	DD	FLAT:?GetResourceIDErrorExitC@ioLocalEU@@UAEKXZ
	DD	FLAT:?GetResourceIDErrorExitN@ioLocalEU@@UAEKXZ
	DD	FLAT:?GetResourceIDErrorExitO@ioLocalEU@@UAEKXZ
	DD	FLAT:?GetResourceIDErrorSolutionC@ioLocalEU@@UAEKXZ
	DD	FLAT:?GetResourceIDErrorSolutionN@ioLocalEU@@UAEKXZ
	DD	FLAT:?GetResourceIDErrorSolutionO@ioLocalEU@@UAEKXZ
	DD	FLAT:?SetLoginData@ioLocalEU@@UAEXABVioHashString@@@Z
	DD	FLAT:?SetWarnetInfo@ioLocalParent@@UAEXABVioHashString@@K@Z
	DD	FLAT:?FillLoginData@ioLocalEU@@UAEXAAVSP2Packet@@@Z
	DD	FLAT:?GetClassTypeForTutorialDropItem@ioLocalEU@@UAEXAAH@Z
	DD	FLAT:?GetGuildMasterPostion@ioLocalEU@@UAEPBDXZ
	DD	FLAT:?GetGuildSecondMasterPosition@ioLocalEU@@UAEPBDXZ
	DD	FLAT:?GetGuildGeneralPosition@ioLocalEU@@UAEPBDXZ
	DD	FLAT:?GetGuildAdminPosition@ioLocalEU@@UAEPBDXZ
	DD	FLAT:?GetErrorSolutionURL@ioLocalEU@@UAEPBDXZ
	DD	FLAT:?GetBillingErrorMent@ioLocalEU@@UAEPBDAAVioHashString@@@Z
	DD	FLAT:?GetFirstIDMaxSize@ioLocalEU@@UAEHXZ
	DD	FLAT:?IsShowFirstIDWnd@ioLocalEU@@UAE_NXZ
	DD	FLAT:?OpenFillCashPage@ioLocalEU@@UAEXXZ
	DD	FLAT:?IsRightNewID@ioLocalEU@@UAE_NPBD@Z
	DD	FLAT:?SetTimeZone@ioLocalParent@@UAEXXZ
	DD	FLAT:?IsSendGashaponList@ioLocalEU@@UAE_NXZ
	DD	FLAT:?GetChangedString@ioLocalEU@@UAEXPAD@Z
	DD	FLAT:?IsExecuteLuncher@ioLocalEU@@UAE_NXZ
	DD	FLAT:?IsKoreaGameLimit@ioLocalEU@@UAE_NXZ
	DD	FLAT:?IsCheckKorean@ioLocalEU@@UAE_NXZ
	DD	FLAT:?IsFirstIDCheckPass@ioLocalParent@@UAE_NXZ
	DD	FLAT:?IsMyHomePage@ioLocalEU@@UAE_NXZ
	DD	FLAT:?IsShowExtraGoodsList@ioLocalEU@@UAE_NXZ
	DD	FLAT:?IsShowRegulation@ioLocalEU@@UAE_NXZ
	DD	FLAT:?IsStartFullScreen@ioLocalParent@@UAE_NXZ
	DD	FLAT:?IsTooltipAutoLine@ioLocalParent@@UAE_NXZ
	DD	FLAT:?IsMileage@ioLocalParent@@UAE_NXZ
	DD	FLAT:?IsGatotkacaPremium@ioLocalParent@@UAE_NH@Z
	DD	FLAT:?IsPointBlankPremium@ioLocalParent@@UAE_NH@Z
	DD	FLAT:?SetPresentRecvDisableMsg@ioLocalEU@@UAE_NH@Z
	DD	FLAT:?GetLimitGradeLevel@ioLocalEU@@UAEHXZ
	DD	FLAT:?IsEndFishingByMove@ioLocalParent@@UAE_NXZ
	DD	FLAT:?IsRightLicense@ioLocalParent@@UAE_NXZ
	DD	FLAT:?GetLicenseDate@ioLocalEU@@UAEHXZ
	DD	FLAT:?IsShowFirstSoldierSelectWnd@ioLocalParent@@UAE_NXZ
	DD	FLAT:?ExitAction@ioLocalParent@@UAEXXZ
	DD	FLAT:?ShowHackShieldErrorDlg@ioLocalParent@@UAEXABVioHashString@@@Z
	DD	FLAT:?GetCashSendTime@ioLocalParent@@UAEKXZ
	DD	FLAT:?IsHeadquarterWebPage@ioLocalParent@@UAE_NXZ
	DD	FLAT:?IsFirstIDControlAltCtrl@ioLocalParent@@UAE_NXZ
	DD	FLAT:?IsPCRoomBonusSoldier@ioLocalParent@@UAE_NXZ
	DD	FLAT:?IsCheckValueServer@ioLocalEU@@UAE_NXZ
	DD	FLAT:?IsChangeServerHelp@ioLocalParent@@UAE_NXZ
	DD	FLAT:?IsSendCollisionPos@ioLocalParent@@UAE_NXZ
	DD	FLAT:?IsLimitStartCancel@ioLocalParent@@UAE_NXZ
	DD	FLAT:?IsCreateMiniDump@ioLocalParent@@UAE_NXZ
	DD	FLAT:?IsTickCheck@ioLocalParent@@UAE_NXZ
	DD	FLAT:?IsAnnounceShutDown@ioLocalParent@@UAE_NXZ
	DD	FLAT:?IsUseMedalLevelOpen@ioLocalParent@@UAE_NXZ
	DD	FLAT:?IsUsePresentMacroInShipping@ioLocalParent@@UAE_NXZ
	DD	FLAT:?IsSendChatLog@ioLocalParent@@UAE_NXZ
	DD	FLAT:?IsUseVoiceChat@ioLocalParent@@UAE_NXZ
	DD	FLAT:?IsMemoryLoadMapPac@ioLocalParent@@UAE_NXZ
	DD	FLAT:?GetCashPageWidth@ioLocalParent@@UAEHXZ
	DD	FLAT:?GetCashPageHeight@ioLocalParent@@UAEHXZ
	DD	FLAT:?OnCashPageHide@ioLocalParent@@UAEXXZ
	DD	FLAT:?GetProgramExitWaitSec@ioLocalParent@@UAEHXZ
	DD	FLAT:?GetFillCashURL@ioLocalParent@@UAEXAAVioHashString@@ABV2@@Z
	DD	FLAT:?LoadINI@ioLocalParent@@UAEXXZ
	DD	FLAT:?SetWebLoginKey@ioLocalEU@@UAEXABVioHashString@@@Z
	DD	FLAT:?GetHighSpecWidth@ioLocalParent@@UAEHXZ
	DD	FLAT:?GetHighSpecHeight@ioLocalParent@@UAEHXZ
	DD	FLAT:?GetLocalGMT@ioLocalParent@@UAEPBDXZ
	DD	FLAT:?SetGoldChargeBtn@ioLocalParent@@UAEX_N@Z
	DD	FLAT:?GetGoldChargeBtn@ioLocalParent@@UAE_NXZ
	DD	FLAT:?ProcessGetCash@ioLocalParent@@UAEXXZ
	DD	FLAT:?SetCashReqTime@ioLocalParent@@UAEXK@Z
	DD	FLAT:?GetCashReqTime@ioLocalParent@@UAEKXZ
	DD	FLAT:?GetWebShopUrl@ioLocalParent@@UAE?AVioHashString@@XZ
	DD	FLAT:?OpenWebPage@ioLocalParent@@UAEXH@Z
	DD	FLAT:??_EioLocalEU@@UAEPAXI@Z
CONST	ENDS
;	COMDAT xdata$x
xdata$x	SEGMENT
__unwindtable$??0ioLocalEU@@QAE@XZ DD 0ffffffffH
	DD	FLAT:__unwindfunclet$??0ioLocalEU@@QAE@XZ$0
	DD	00H
	DD	FLAT:__unwindfunclet$??0ioLocalEU@@QAE@XZ$1
__ehfuncinfo$??0ioLocalEU@@QAE@XZ DD 019930522H
	DD	02H
	DD	FLAT:__unwindtable$??0ioLocalEU@@QAE@XZ
	DD	2 DUP(00H)
	DD	2 DUP(00H)
	DD	00H
	DD	01H
; Function compile flags: /Ogsp
xdata$x	ENDS
;	COMDAT ??0ioLocalEU@@QAE@XZ
_TEXT	SEGMENT
_this$ = -16						; size = 4
__$EHRec$ = -12						; size = 12
??0ioLocalEU@@QAE@XZ PROC				; ioLocalEU::ioLocalEU, COMDAT
; _this$ = ecx

; 12   : {

  00000	6a 04		 push	 4
  00002	b8 00 00 00 00	 mov	 eax, __ehhandler$??0ioLocalEU@@QAE@XZ
  00007	e8 00 00 00 00	 call	 __EH_prolog3
  0000c	8b f1		 mov	 esi, ecx
  0000e	89 75 f0	 mov	 DWORD PTR _this$[ebp], esi
  00011	e8 00 00 00 00	 call	 ??0ioLocalParent@@QAE@XZ ; ioLocalParent::ioLocalParent
  00016	8b 3d 00 00 00
	00		 mov	 edi, DWORD PTR __imp_??0ioHashString@@QAE@XZ
  0001c	83 65 fc 00	 and	 DWORD PTR __$EHRec$[ebp+8], 0
  00020	8d 4e 70	 lea	 ecx, DWORD PTR [esi+112]
  00023	c7 06 00 00 00
	00		 mov	 DWORD PTR [esi], OFFSET ??_7ioLocalEU@@6B@
  00029	ff d7		 call	 edi
  0002b	8d 8e 80 00 00
	00		 lea	 ecx, DWORD PTR [esi+128]
  00031	c6 45 fc 01	 mov	 BYTE PTR __$EHRec$[ebp+8], 1
  00035	ff d7		 call	 edi

; 13   : 	m_nSubType = SUB_TYPE_EN;

  00037	83 66 44 00	 and	 DWORD PTR [esi+68], 0

; 14   : }

  0003b	8b c6		 mov	 eax, esi
  0003d	e8 00 00 00 00	 call	 __EH_epilog3
  00042	c3		 ret	 0
_TEXT	ENDS
;	COMDAT text$x
text$x	SEGMENT
__unwindfunclet$??0ioLocalEU@@QAE@XZ$0:
  00000	8b 4d f0	 mov	 ecx, DWORD PTR _this$[ebp]
  00003	e9 00 00 00 00	 jmp	 ??1ioLocalParent@@UAE@XZ ; ioLocalParent::~ioLocalParent
__unwindfunclet$??0ioLocalEU@@QAE@XZ$1:
  00008	8b 4d f0	 mov	 ecx, DWORD PTR _this$[ebp]
  0000b	83 c1 70	 add	 ecx, 112		; 00000070H
  0000e	ff 25 00 00 00
	00		 jmp	 DWORD PTR __imp_??1ioHashString@@QAE@XZ
__ehhandler$??0ioLocalEU@@QAE@XZ:
  00014	8b 54 24 08	 mov	 edx, DWORD PTR [esp+8]
  00018	8d 42 0c	 lea	 eax, DWORD PTR [edx+12]
  0001b	8b 4a ec	 mov	 ecx, DWORD PTR [edx-20]
  0001e	33 c8		 xor	 ecx, eax
  00020	e8 00 00 00 00	 call	 @__security_check_cookie@4
  00025	b8 00 00 00 00	 mov	 eax, OFFSET __ehfuncinfo$??0ioLocalEU@@QAE@XZ
  0002a	e9 00 00 00 00	 jmp	 ___CxxFrameHandler3
text$x	ENDS
??0ioLocalEU@@QAE@XZ ENDP				; ioLocalEU::ioLocalEU
; Function compile flags: /Ogsp
; File d:\lost saga for developer\youtube\tutorial\source\src\lsclient\local\iolocaleu.h
;	COMDAT ?IsCheckValueServer@ioLocalEU@@UAE_NXZ
_TEXT	SEGMENT
?IsCheckValueServer@ioLocalEU@@UAE_NXZ PROC		; ioLocalEU::IsCheckValueServer, COMDAT
; _this$ = ecx

; 67   : 	virtual bool IsCheckValueServer() { return true; }

  00000	b0 01		 mov	 al, 1
  00002	c3		 ret	 0
?IsCheckValueServer@ioLocalEU@@UAE_NXZ ENDP		; ioLocalEU::IsCheckValueServer
_TEXT	ENDS
PUBLIC	??1ioLocalEU@@UAE@XZ				; ioLocalEU::~ioLocalEU
;	COMDAT xdata$x
; File d:\lost saga for developer\youtube\tutorial\source\src\lsclient\local\iolocaleu.cpp
xdata$x	SEGMENT
__unwindtable$??1ioLocalEU@@UAE@XZ DD 0ffffffffH
	DD	FLAT:__unwindfunclet$??1ioLocalEU@@UAE@XZ$0
	DD	00H
	DD	FLAT:__unwindfunclet$??1ioLocalEU@@UAE@XZ$1
__ehfuncinfo$??1ioLocalEU@@UAE@XZ DD 019930522H
	DD	02H
	DD	FLAT:__unwindtable$??1ioLocalEU@@UAE@XZ
	DD	2 DUP(00H)
	DD	2 DUP(00H)
	DD	00H
	DD	01H
; Function compile flags: /Ogsp
xdata$x	ENDS
;	COMDAT ??1ioLocalEU@@UAE@XZ
_TEXT	SEGMENT
_this$ = -16						; size = 4
__$EHRec$ = -12						; size = 12
??1ioLocalEU@@UAE@XZ PROC				; ioLocalEU::~ioLocalEU, COMDAT
; _this$ = ecx

; 17   : {

  00000	6a 04		 push	 4
  00002	b8 00 00 00 00	 mov	 eax, __ehhandler$??1ioLocalEU@@UAE@XZ
  00007	e8 00 00 00 00	 call	 __EH_prolog3
  0000c	8b f1		 mov	 esi, ecx
  0000e	89 75 f0	 mov	 DWORD PTR _this$[ebp], esi
  00011	c7 06 00 00 00
	00		 mov	 DWORD PTR [esi], OFFSET ??_7ioLocalEU@@6B@

; 18   : 
; 19   : }

  00017	8b 3d 00 00 00
	00		 mov	 edi, DWORD PTR __imp_??1ioHashString@@QAE@XZ
  0001d	8d 8e 80 00 00
	00		 lea	 ecx, DWORD PTR [esi+128]
  00023	c7 45 fc 01 00
	00 00		 mov	 DWORD PTR __$EHRec$[ebp+8], 1
  0002a	ff d7		 call	 edi
  0002c	8d 4e 70	 lea	 ecx, DWORD PTR [esi+112]
  0002f	c6 45 fc 00	 mov	 BYTE PTR __$EHRec$[ebp+8], 0
  00033	ff d7		 call	 edi
  00035	83 4d fc ff	 or	 DWORD PTR __$EHRec$[ebp+8], -1
  00039	8b ce		 mov	 ecx, esi
  0003b	e8 00 00 00 00	 call	 ??1ioLocalParent@@UAE@XZ ; ioLocalParent::~ioLocalParent
  00040	e8 00 00 00 00	 call	 __EH_epilog3
  00045	c3		 ret	 0
_TEXT	ENDS
;	COMDAT text$x
text$x	SEGMENT
__unwindfunclet$??1ioLocalEU@@UAE@XZ$0:
  00000	8b 4d f0	 mov	 ecx, DWORD PTR _this$[ebp]
  00003	e9 00 00 00 00	 jmp	 ??1ioLocalParent@@UAE@XZ ; ioLocalParent::~ioLocalParent
__unwindfunclet$??1ioLocalEU@@UAE@XZ$1:
  00008	8b 4d f0	 mov	 ecx, DWORD PTR _this$[ebp]
  0000b	83 c1 70	 add	 ecx, 112		; 00000070H
  0000e	ff 25 00 00 00
	00		 jmp	 DWORD PTR __imp_??1ioHashString@@QAE@XZ
__ehhandler$??1ioLocalEU@@UAE@XZ:
  00014	8b 54 24 08	 mov	 edx, DWORD PTR [esp+8]
  00018	8d 42 0c	 lea	 eax, DWORD PTR [edx+12]
  0001b	8b 4a ec	 mov	 ecx, DWORD PTR [edx-20]
  0001e	33 c8		 xor	 ecx, eax
  00020	e8 00 00 00 00	 call	 @__security_check_cookie@4
  00025	b8 00 00 00 00	 mov	 eax, OFFSET __ehfuncinfo$??1ioLocalEU@@UAE@XZ
  0002a	e9 00 00 00 00	 jmp	 ___CxxFrameHandler3
text$x	ENDS
??1ioLocalEU@@UAE@XZ ENDP				; ioLocalEU::~ioLocalEU
; Function compile flags: /Ogsp
;	COMDAT ?GetType@ioLocalEU@@UAE?AW4LocalType@ioLocalManagerParent@@XZ
_TEXT	SEGMENT
?GetType@ioLocalEU@@UAE?AW4LocalType@ioLocalManagerParent@@XZ PROC ; ioLocalEU::GetType, COMDAT
; _this$ = ecx

; 23   : 	return ioLocalManager::LCT_EU;

  00000	b8 94 e0 94 26	 mov	 eax, 647291028		; 2694e094H

; 24   : }

  00005	c3		 ret	 0
?GetType@ioLocalEU@@UAE?AW4LocalType@ioLocalManagerParent@@XZ ENDP ; ioLocalEU::GetType
_TEXT	ENDS
PUBLIC	??_C@_0M@OKOPNKBF@text_de?4txt?$AA@		; `string'
PUBLIC	??_C@_0M@GDKDPJBP@text_fr?4txt?$AA@		; `string'
PUBLIC	??_C@_0M@EDLCGKOL@text_it?4txt?$AA@		; `string'
PUBLIC	??_C@_0M@FOHBDDAA@text_pl?4txt?$AA@		; `string'
PUBLIC	??_C@_0M@JDOCHEPI@text_tr?4txt?$AA@		; `string'
PUBLIC	??_C@_0M@CGFPCBGC@text_en?4txt?$AA@		; `string'
;	COMDAT ??_C@_0M@OKOPNKBF@text_de?4txt?$AA@
CONST	SEGMENT
??_C@_0M@OKOPNKBF@text_de?4txt?$AA@ DB 'text_de.txt', 00H ; `string'
CONST	ENDS
;	COMDAT ??_C@_0M@GDKDPJBP@text_fr?4txt?$AA@
CONST	SEGMENT
??_C@_0M@GDKDPJBP@text_fr?4txt?$AA@ DB 'text_fr.txt', 00H ; `string'
CONST	ENDS
;	COMDAT ??_C@_0M@EDLCGKOL@text_it?4txt?$AA@
CONST	SEGMENT
??_C@_0M@EDLCGKOL@text_it?4txt?$AA@ DB 'text_it.txt', 00H ; `string'
CONST	ENDS
;	COMDAT ??_C@_0M@FOHBDDAA@text_pl?4txt?$AA@
CONST	SEGMENT
??_C@_0M@FOHBDDAA@text_pl?4txt?$AA@ DB 'text_pl.txt', 00H ; `string'
CONST	ENDS
;	COMDAT ??_C@_0M@JDOCHEPI@text_tr?4txt?$AA@
CONST	SEGMENT
??_C@_0M@JDOCHEPI@text_tr?4txt?$AA@ DB 'text_tr.txt', 00H ; `string'
CONST	ENDS
;	COMDAT ??_C@_0M@CGFPCBGC@text_en?4txt?$AA@
CONST	SEGMENT
??_C@_0M@CGFPCBGC@text_en?4txt?$AA@ DB 'text_en.txt', 00H ; `string'
; Function compile flags: /Ogsp
CONST	ENDS
;	COMDAT ?GetTextListFileName@ioLocalEU@@UAEPBDXZ
_TEXT	SEGMENT
?GetTextListFileName@ioLocalEU@@UAEPBDXZ PROC		; ioLocalEU::GetTextListFileName, COMDAT
; _this$ = ecx

; 28   : 	switch(m_nSubType)

  00000	8b 41 44	 mov	 eax, DWORD PTR [ecx+68]
  00003	48		 dec	 eax
  00004	74 2a		 je	 SHORT $LN6@GetTextLis
  00006	48		 dec	 eax
  00007	74 21		 je	 SHORT $LN5@GetTextLis
  00009	48		 dec	 eax
  0000a	74 18		 je	 SHORT $LN4@GetTextLis
  0000c	48		 dec	 eax
  0000d	74 0f		 je	 SHORT $LN3@GetTextLis
  0000f	48		 dec	 eax
  00010	74 06		 je	 SHORT $LN2@GetTextLis

; 40   : 	default:
; 41   : 		return "text_en.txt";

  00012	b8 00 00 00 00	 mov	 eax, OFFSET ??_C@_0M@CGFPCBGC@text_en?4txt?$AA@

; 42   : 	}
; 43   : }

  00017	c3		 ret	 0
$LN2@GetTextLis:

; 38   : 	case SUB_TYPE_TR:
; 39   : 		return "text_tr.txt";

  00018	b8 00 00 00 00	 mov	 eax, OFFSET ??_C@_0M@JDOCHEPI@text_tr?4txt?$AA@

; 42   : 	}
; 43   : }

  0001d	c3		 ret	 0
$LN3@GetTextLis:

; 36   : 	case SUB_TYPE_PL:
; 37   : 		return "text_pl.txt";

  0001e	b8 00 00 00 00	 mov	 eax, OFFSET ??_C@_0M@FOHBDDAA@text_pl?4txt?$AA@

; 42   : 	}
; 43   : }

  00023	c3		 ret	 0
$LN4@GetTextLis:

; 34   : 	case SUB_TYPE_IT:
; 35   : 		return "text_it.txt";

  00024	b8 00 00 00 00	 mov	 eax, OFFSET ??_C@_0M@EDLCGKOL@text_it?4txt?$AA@

; 42   : 	}
; 43   : }

  00029	c3		 ret	 0
$LN5@GetTextLis:

; 32   : 	case SUB_TYPE_FR:
; 33   : 		return "text_fr.txt";

  0002a	b8 00 00 00 00	 mov	 eax, OFFSET ??_C@_0M@GDKDPJBP@text_fr?4txt?$AA@

; 42   : 	}
; 43   : }

  0002f	c3		 ret	 0
$LN6@GetTextLis:

; 29   : 	{
; 30   : 	case SUB_TYPE_DE:
; 31   : 		return "text_de.txt";

  00030	b8 00 00 00 00	 mov	 eax, OFFSET ??_C@_0M@OKOPNKBF@text_de?4txt?$AA@

; 42   : 	}
; 43   : }

  00035	c3		 ret	 0
?GetTextListFileName@ioLocalEU@@UAEPBDXZ ENDP		; ioLocalEU::GetTextListFileName
_TEXT	ENDS
EXTRN	?LoadTextInResource@Help@@YAXHAAKAAPBD@Z:PROC	; Help::LoadTextInResource
; Function compile flags: /Ogsp
;	COMDAT ?GetMemTextList@ioLocalEU@@UAEPBDXZ
_TEXT	SEGMENT
_size$ = -8						; size = 4
_pChar$ = -4						; size = 4
?GetMemTextList@ioLocalEU@@UAEPBDXZ PROC		; ioLocalEU::GetMemTextList, COMDAT
; _this$ = ecx

; 46   : {

  00000	55		 push	 ebp
  00001	8b ec		 mov	 ebp, esp
  00003	51		 push	 ecx
  00004	51		 push	 ecx

; 47   : 	DWORD size = 0;

  00005	83 65 f8 00	 and	 DWORD PTR _size$[ebp], 0

; 48   : 	const char * pChar = NULL;

  00009	83 65 fc 00	 and	 DWORD PTR _pChar$[ebp], 0

; 49   : 	Help::LoadTextInResource(IDR_ERROR, size, pChar);

  0000d	8d 45 fc	 lea	 eax, DWORD PTR _pChar$[ebp]
  00010	50		 push	 eax
  00011	8d 45 f8	 lea	 eax, DWORD PTR _size$[ebp]
  00014	50		 push	 eax
  00015	68 c9 00 00 00	 push	 201			; 000000c9H
  0001a	e8 00 00 00 00	 call	 ?LoadTextInResource@Help@@YAXHAAKAAPBD@Z ; Help::LoadTextInResource

; 50   : 	return pChar;

  0001f	8b 45 fc	 mov	 eax, DWORD PTR _pChar$[ebp]
  00022	83 c4 0c	 add	 esp, 12			; 0000000cH

; 51   : 
; 52   : 	//return "|EXE_WinMain_1|An error occurred from the security program.|"//Except Extracting Hangeul
; 53   : 	//	   "|EXE_WinMain_2|Lost Saga is already running.|"//Except Extracting Hangeul
; 54   : 	//	   "|EXE_WinMain_3|    Cannot detect DirectX\r\nPlease install the latest version of DirectX.\r\n(error code: 301)|"//Except Extracting Hangeul
; 55   : 	//	   "|EXE_WinMain_4|The installed DirectX is not up-to-date (%s).\nPlease install the latest version of DirectX.\nMake sure that you have the latest version of the graphics card driver installed.\n(error code: 302)|"//Except Extracting Hangeul
; 56   : 	//	   "|EXE_ErrorDlgProc_1|--- System Requirements ---\r\n%s\r\n\r\n--- Error Information ---\r\n%s|"//Except Extracting Hangeul
; 57   : 	//       "|EXE_ioNProtect::GetStartErrorMsg_1|게임가드가 실행 중 입니다. 잠시 후나 재부팅 후에 다시 실행해보시기 바랍니다.|" //Except Extracting Hangeul
; 58   : 	//	   "|EXE_ioNProtect::GetStartErrorMsg_2|게임이 중복 실행되었거나 게임가드가 이미 실행 중 입니다. 게임 종료 후 다시 실행해보시기 바랍니다.|" //Except Extracting Hangeul
; 59   : 	//	   "|EXE_ioNProtect::GetStartErrorMsg_3|게임가드 초기화 에러입니다. 재부팅 후 다시 실행해보거나 충돌할 수 있는 다른 프로그램들을 종료한 후 실행해 보시기 바랍니다.|" //Except Extracting Hangeul
; 60   : 	//	   "|EXE_ioNProtect::GetStartErrorMsg_4|게임가드 파일이 없거나 변조되었습니다. 게임가드 셋업 파일을 설치해보시기 바랍니다.|" //Except Extracting Hangeul
; 61   : 	//	   "|EXE_ioNProtect::GetStartErrorMsg_5|윈도우의 일부 시스템 파일이 손상되었습니다. 인터넷 익스플로러(IE)를 다시 설치해보시기 바랍니다.|" //Except Extracting Hangeul
; 62   : 	//	   "|EXE_ioNProtect::GetStartErrorMsg_6|게임가드 실행에 실패했습니다. 게임가드 셋업 파일을 다시 설치해보시기 바랍니다.|" //Except Extracting Hangeul
; 63   : 	//	   "|EXE_ioNProtect::GetStartErrorMsg_7|불법 프로그램이 발견되었습니다. 불필요한 프로그램을 종료한 후 다시 실행해보시기 바랍니다.|" //Except Extracting Hangeul
; 64   : 	//	   "|EXE_ioNProtect::GetStartErrorMsg_8|게임가드 업데이트를 취소하셨습니다. 접속이 계속 되지 않을 경우 인터넷 및 개인 방화벽 설정을 조정해 보시기 바랍니다.|" //Except Extracting Hangeul
; 65   : 	//	   "|EXE_ioNProtect::GetStartErrorMsg_9|게임가드 업데이트 서버 접속에 실패하였습니다. 잠시 후 다시 접속하거나, 네트웍 상태를 점검해봅니다.|" //Except Extracting Hangeul
; 66   : 	//	   "|EXE_ioNProtect::GetStartErrorMsg_10|게임가드 초기화 에러 또는 구버젼의 게임가드 파일입니다. 게임가드 셋업파일을 다시 설치하고 게임을 실행해봅니다.|" //Except Extracting Hangeul
; 67   : 	//	   "|EXE_ioNProtect::GetStartErrorMsg_11|ini 파일이 없거나 변조되었습니다. 게임가드 셋업 파일을 설치하면 해결할 수 있습니다.|" //Except Extracting Hangeul
; 68   : 	//	   "|EXE_ioNProtect::GetStartErrorMsg_12|npgmup.des 초기화 에러입니다. 게임가드폴더를 삭제후 다시 게임실행을 해봅니다.|" //Except Extracting Hangeul
; 69   : 	//	   "|EXE_ioNProtect::GetStartErrorMsg_13|게임가드 업데이트 서버 접속에 실패하였습니다. 잠시 후 재시도 해보거나, 개인 방화벽이 있다면 설정을 조정해 보시기 바랍니다.|" //Except Extracting Hangeul
; 70   : 	//	   "|EXE_ioNProtect::GetStartErrorMsg_14|게임가드 업데이트를 완료하지 못 했습니다. 바이러스 백신을 일시 중시 시킨 후 재시도 해보시거나, PC 관리 프로그램을 사용하시면 설정을 조정해 보시기 바랍니다.|" //Except Extracting Hangeul
; 71   : 	//	   "|EXE_ioNProtect::GetStartErrorMsg_15|바이러스 및 해킹툴 검사 모듈 로딩에 실패 했습니다. 메모리 부족이거나 바이러스에 의한 감염일 수 있습니다.|" //Except Extracting Hangeul
; 72   : 	//	   "|EXE_ioNProtect::GetStartErrorMsg_16|게임가드와 충돌 프로그램이 발견되었습니다.|" //Except Extracting Hangeul
; 73   : 	//	   "|EXE_ioNProtect::GetStartErrorMsg_17|게임가드 실행 중 에러가 발생하였습니다. 게임 폴더 안의 GameGuard 폴더에 있는 *.erl 파일들을 Game1@inca.co.kr로 첨부하여 메일 보내주시기 바랍니다.|"; //Except Extracting Hangeul  
; 74   : }

  00025	c9		 leave
  00026	c3		 ret	 0
?GetMemTextList@ioLocalEU@@UAEPBDXZ ENDP		; ioLocalEU::GetMemTextList
; Function compile flags: /Ogsp
_TEXT	ENDS
;	COMDAT ?GetResourceIDTitleCashBmp@ioLocalEU@@UAEKXZ
_TEXT	SEGMENT
?GetResourceIDTitleCashBmp@ioLocalEU@@UAEKXZ PROC	; ioLocalEU::GetResourceIDTitleCashBmp, COMDAT
; _this$ = ecx

; 78   : 	return IDB_WEB_TITLE_CASH_US;

  00000	6a 79		 push	 121			; 00000079H
  00002	58		 pop	 eax

; 79   : }

  00003	c3		 ret	 0
?GetResourceIDTitleCashBmp@ioLocalEU@@UAEKXZ ENDP	; ioLocalEU::GetResourceIDTitleCashBmp
; Function compile flags: /Ogsp
_TEXT	ENDS
;	COMDAT ?GetResourceIDTitleEntryBmp@ioLocalEU@@UAEKXZ
_TEXT	SEGMENT
?GetResourceIDTitleEntryBmp@ioLocalEU@@UAEKXZ PROC	; ioLocalEU::GetResourceIDTitleEntryBmp, COMDAT
; _this$ = ecx

; 83   : 	return IDB_WEB_TITLE_ENTRY_US;

  00000	6a 7a		 push	 122			; 0000007aH
  00002	58		 pop	 eax

; 84   : }

  00003	c3		 ret	 0
?GetResourceIDTitleEntryBmp@ioLocalEU@@UAEKXZ ENDP	; ioLocalEU::GetResourceIDTitleEntryBmp
; Function compile flags: /Ogsp
_TEXT	ENDS
;	COMDAT ?GetResourceIDTitleGuildBmp@ioLocalEU@@UAEKXZ
_TEXT	SEGMENT
?GetResourceIDTitleGuildBmp@ioLocalEU@@UAEKXZ PROC	; ioLocalEU::GetResourceIDTitleGuildBmp, COMDAT
; _this$ = ecx

; 88   : 	return IDB_WEB_TITLE_GUILD_US;

  00000	6a 7b		 push	 123			; 0000007bH
  00002	58		 pop	 eax

; 89   : }

  00003	c3		 ret	 0
?GetResourceIDTitleGuildBmp@ioLocalEU@@UAEKXZ ENDP	; ioLocalEU::GetResourceIDTitleGuildBmp
; Function compile flags: /Ogsp
_TEXT	ENDS
;	COMDAT ?GetResourceIDTitleGuildMarkBmp@ioLocalEU@@UAEKXZ
_TEXT	SEGMENT
?GetResourceIDTitleGuildMarkBmp@ioLocalEU@@UAEKXZ PROC	; ioLocalEU::GetResourceIDTitleGuildMarkBmp, COMDAT
; _this$ = ecx

; 93   : 	return IDB_WEB_TITLE_GUILD_MARK_US;

  00000	6a 7c		 push	 124			; 0000007cH
  00002	58		 pop	 eax

; 94   : }

  00003	c3		 ret	 0
?GetResourceIDTitleGuildMarkBmp@ioLocalEU@@UAEKXZ ENDP	; ioLocalEU::GetResourceIDTitleGuildMarkBmp
; Function compile flags: /Ogsp
_TEXT	ENDS
;	COMDAT ?GetResourceIDTitleHomeBmp@ioLocalEU@@UAEKXZ
_TEXT	SEGMENT
?GetResourceIDTitleHomeBmp@ioLocalEU@@UAEKXZ PROC	; ioLocalEU::GetResourceIDTitleHomeBmp, COMDAT
; _this$ = ecx

; 98   : 	return IDB_WEB_TITLE_HOME_US;

  00000	6a 7d		 push	 125			; 0000007dH
  00002	58		 pop	 eax

; 99   : }

  00003	c3		 ret	 0
?GetResourceIDTitleHomeBmp@ioLocalEU@@UAEKXZ ENDP	; ioLocalEU::GetResourceIDTitleHomeBmp
; Function compile flags: /Ogsp
_TEXT	ENDS
;	COMDAT ?GetResourceIDTitleBmp@ioLocalEU@@UAEKXZ
_TEXT	SEGMENT
?GetResourceIDTitleBmp@ioLocalEU@@UAEKXZ PROC		; ioLocalEU::GetResourceIDTitleBmp, COMDAT
; _this$ = ecx

; 103  : 	return IDB_WINDOW_TITLE_LOSA;

  00000	6a 77		 push	 119			; 00000077H
  00002	58		 pop	 eax

; 104  : }

  00003	c3		 ret	 0
?GetResourceIDTitleBmp@ioLocalEU@@UAEKXZ ENDP		; ioLocalEU::GetResourceIDTitleBmp
_TEXT	ENDS
EXTRN	__imp_?Clear@ioHashString@@QAEXXZ:PROC
EXTRN	??6SP2Packet@@QAEAAV0@ABVioHashString@@@Z:PROC	; SP2Packet::operator<<
; Function compile flags: /Ogsp
;	COMDAT ?FillLoginData@ioLocalEU@@UAEXAAVSP2Packet@@@Z
_TEXT	SEGMENT
_rkPacket$ = 8						; size = 4
?FillLoginData@ioLocalEU@@UAEXAAVSP2Packet@@@Z PROC	; ioLocalEU::FillLoginData, COMDAT
; _this$ = ecx

; 113  : {

  00000	55		 push	 ebp
  00001	8b ec		 mov	 ebp, esp
  00003	56		 push	 esi

; 114  : 	rkPacket << m_sLoginEncodePW;

  00004	8d 71 70	 lea	 esi, DWORD PTR [ecx+112]
  00007	8b 4d 08	 mov	 ecx, DWORD PTR _rkPacket$[ebp]
  0000a	56		 push	 esi
  0000b	e8 00 00 00 00	 call	 ??6SP2Packet@@QAEAAV0@ABVioHashString@@@Z ; SP2Packet::operator<<

; 115  : 
; 116  : 	// 더이상 필요가 없으므로 삭제
; 117  : 	m_sLoginEncodePW.Clear();

  00010	8b ce		 mov	 ecx, esi
  00012	ff 15 00 00 00
	00		 call	 DWORD PTR __imp_?Clear@ioHashString@@QAEXXZ
  00018	5e		 pop	 esi

; 118  : }

  00019	5d		 pop	 ebp
  0001a	c2 04 00	 ret	 4
?FillLoginData@ioLocalEU@@UAEXAAVSP2Packet@@@Z ENDP	; ioLocalEU::FillLoginData
; Function compile flags: /Ogsp
_TEXT	ENDS
;	COMDAT ?GetClassTypeForTutorialDropItem@ioLocalEU@@UAEXAAH@Z
_TEXT	SEGMENT
_riClassType$ = 8					; size = 4
?GetClassTypeForTutorialDropItem@ioLocalEU@@UAEXAAH@Z PROC ; ioLocalEU::GetClassTypeForTutorialDropItem, COMDAT
; _this$ = ecx

; 122  : {

  00000	55		 push	 ebp
  00001	8b ec		 mov	 ebp, esp

; 123  : 	enum { CLASS_TYPE_SHADOW = 12, };
; 124  : 	riClassType = CLASS_TYPE_SHADOW;

  00003	8b 45 08	 mov	 eax, DWORD PTR _riClassType$[ebp]
  00006	c7 00 0c 00 00
	00		 mov	 DWORD PTR [eax], 12	; 0000000cH

; 125  : }

  0000c	5d		 pop	 ebp
  0000d	c2 04 00	 ret	 4
?GetClassTypeForTutorialDropItem@ioLocalEU@@UAEXAAH@Z ENDP ; ioLocalEU::GetClassTypeForTutorialDropItem
; Function compile flags: /Ogsp
_TEXT	ENDS
;	COMDAT ?GetFirstIDMaxSize@ioLocalEU@@UAEHXZ
_TEXT	SEGMENT
?GetFirstIDMaxSize@ioLocalEU@@UAEHXZ PROC		; ioLocalEU::GetFirstIDMaxSize, COMDAT
; _this$ = ecx

; 130  : 	return 12;

  00000	6a 0c		 push	 12			; 0000000cH
  00002	58		 pop	 eax

; 131  : }

  00003	c3		 ret	 0
?GetFirstIDMaxSize@ioLocalEU@@UAEHXZ ENDP		; ioLocalEU::GetFirstIDMaxSize
; Function compile flags: /Ogsp
_TEXT	ENDS
;	COMDAT ?IsShowFirstIDWnd@ioLocalEU@@UAE_NXZ
_TEXT	SEGMENT
?IsShowFirstIDWnd@ioLocalEU@@UAE_NXZ PROC		; ioLocalEU::IsShowFirstIDWnd, COMDAT
; _this$ = ecx

; 135  : 	return true;

  00000	b0 01		 mov	 al, 1

; 136  : }

  00002	c3		 ret	 0
?IsShowFirstIDWnd@ioLocalEU@@UAE_NXZ ENDP		; ioLocalEU::IsShowFirstIDWnd
_TEXT	ENDS
PUBLIC	??_C@_06PKACINHD@Leader?$AA@			; `string'
;	COMDAT ??_C@_06PKACINHD@Leader?$AA@
CONST	SEGMENT
??_C@_06PKACINHD@Leader?$AA@ DB 'Leader', 00H		; `string'
; Function compile flags: /Ogsp
CONST	ENDS
;	COMDAT ?GetGuildMasterPostion@ioLocalEU@@UAEPBDXZ
_TEXT	SEGMENT
?GetGuildMasterPostion@ioLocalEU@@UAEPBDXZ PROC		; ioLocalEU::GetGuildMasterPostion, COMDAT
; _this$ = ecx

; 151  : 	return "Leader"; //Except Extracting Hangeul

  00000	b8 00 00 00 00	 mov	 eax, OFFSET ??_C@_06PKACINHD@Leader?$AA@

; 152  : }

  00005	c3		 ret	 0
?GetGuildMasterPostion@ioLocalEU@@UAEPBDXZ ENDP		; ioLocalEU::GetGuildMasterPostion
_TEXT	ENDS
PUBLIC	??_C@_07LCAPDKCB@Officer?$AA@			; `string'
;	COMDAT ??_C@_07LCAPDKCB@Officer?$AA@
CONST	SEGMENT
??_C@_07LCAPDKCB@Officer?$AA@ DB 'Officer', 00H		; `string'
; Function compile flags: /Ogsp
CONST	ENDS
;	COMDAT ?GetGuildSecondMasterPosition@ioLocalEU@@UAEPBDXZ
_TEXT	SEGMENT
?GetGuildSecondMasterPosition@ioLocalEU@@UAEPBDXZ PROC	; ioLocalEU::GetGuildSecondMasterPosition, COMDAT
; _this$ = ecx

; 156  : 	return "Officer"; //Except Extracting Hangeul

  00000	b8 00 00 00 00	 mov	 eax, OFFSET ??_C@_07LCAPDKCB@Officer?$AA@

; 157  : }

  00005	c3		 ret	 0
?GetGuildSecondMasterPosition@ioLocalEU@@UAEPBDXZ ENDP	; ioLocalEU::GetGuildSecondMasterPosition
_TEXT	ENDS
PUBLIC	??_C@_06LMOODEBK@Member?$AA@			; `string'
;	COMDAT ??_C@_06LMOODEBK@Member?$AA@
CONST	SEGMENT
??_C@_06LMOODEBK@Member?$AA@ DB 'Member', 00H		; `string'
; Function compile flags: /Ogsp
CONST	ENDS
;	COMDAT ?GetGuildGeneralPosition@ioLocalEU@@UAEPBDXZ
_TEXT	SEGMENT
?GetGuildGeneralPosition@ioLocalEU@@UAEPBDXZ PROC	; ioLocalEU::GetGuildGeneralPosition, COMDAT
; _this$ = ecx

; 161  : 	return "Member"; //Except Extracting Hangeul

  00000	b8 00 00 00 00	 mov	 eax, OFFSET ??_C@_06LMOODEBK@Member?$AA@

; 162  : }

  00005	c3		 ret	 0
?GetGuildGeneralPosition@ioLocalEU@@UAEPBDXZ ENDP	; ioLocalEU::GetGuildGeneralPosition
; Function compile flags: /Ogsp
_TEXT	ENDS
;	COMDAT ?GetGuildAdminPosition@ioLocalEU@@UAEPBDXZ
_TEXT	SEGMENT
?GetGuildAdminPosition@ioLocalEU@@UAEPBDXZ PROC		; ioLocalEU::GetGuildAdminPosition, COMDAT
; _this$ = ecx

; 166  : 	return "Member"; //Except Extracting Hangeul

  00000	b8 00 00 00 00	 mov	 eax, OFFSET ??_C@_06LMOODEBK@Member?$AA@

; 167  : }

  00005	c3		 ret	 0
?GetGuildAdminPosition@ioLocalEU@@UAEPBDXZ ENDP		; ioLocalEU::GetGuildAdminPosition
; Function compile flags: /Ogsp
_TEXT	ENDS
;	COMDAT ?IsRightNewID@ioLocalEU@@UAE_NPBD@Z
_TEXT	SEGMENT
_szID$ = 8						; size = 4
?IsRightNewID@ioLocalEU@@UAE_NPBD@Z PROC		; ioLocalEU::IsRightNewID, COMDAT
; _this$ = ecx

; 170  : {

  00000	55		 push	 ebp
  00001	8b ec		 mov	 ebp, esp
  00003	56		 push	 esi

; 171  : 	int size = strlen(szID);

  00004	8b 75 08	 mov	 esi, DWORD PTR _szID$[ebp]
  00007	8b c6		 mov	 eax, esi
  00009	8d 50 01	 lea	 edx, DWORD PTR [eax+1]
$LL13@IsRightNew:
  0000c	8a 08		 mov	 cl, BYTE PTR [eax]
  0000e	40		 inc	 eax
  0000f	84 c9		 test	 cl, cl
  00011	75 f9		 jne	 SHORT $LL13@IsRightNew
  00013	2b c2		 sub	 eax, edx

; 172  : 	for (int i=0; i<size; i++)

  00015	33 d2		 xor	 edx, edx
  00017	85 c0		 test	 eax, eax
  00019	0f 8e 93 00 00
	00		 jle	 $LN5@IsRightNew
$LL7@IsRightNew:

; 173  : 	{
; 174  : 		if ((!COMPARE(szID[i], 'A', 'Z'+1)) &&
; 175  : 			(!COMPARE(szID[i], 'a', 'z'+1)) &&
; 176  : 			(!COMPARE(szID[i], '0', '9'+1)) &&
; 177  : 					  szID[i] != '!' &&
; 178  : 			          szID[i] != '$' &&
; 179  : 					  szID[i] != '^' &&
; 180  : 					  szID[i] != '*' &&
; 181  : 					  szID[i] != '(' &&
; 182  : 					  szID[i] != ')' &&
; 183  : 					  szID[i] != '_' &&
; 184  : 					  szID[i] != '-' &&
; 185  : 					  szID[i] != '=' &&
; 186  : 					  szID[i] != '+' &&
; 187  : 					  szID[i] != '|' &&
; 188  : 					  szID[i] != '[' &&
; 189  : 					  szID[i] != ']' &&
; 190  : 					  szID[i] != '{' &&
; 191  : 					  szID[i] != '}' &&
; 192  : 					  szID[i] != '<' &&
; 193  : 					  szID[i] != '>' &&
; 194  : 					  szID[i] != '?' &&
; 195  : 					  szID[i] != '~' &&
; 196  : 					  szID[i] != '.' &&
; 197  : 					  szID[i] != ',' )

  0001f	8a 0c 32	 mov	 cl, BYTE PTR [edx+esi]
  00022	80 f9 41	 cmp	 cl, 65			; 00000041H
  00025	7c 05		 jl	 SHORT $LN3@IsRightNew
  00027	80 f9 5b	 cmp	 cl, 91			; 0000005bH
  0002a	7c 7d		 jl	 SHORT $LN6@IsRightNew
$LN3@IsRightNew:
  0002c	80 f9 61	 cmp	 cl, 97			; 00000061H
  0002f	7c 05		 jl	 SHORT $LN2@IsRightNew
  00031	80 f9 7b	 cmp	 cl, 123			; 0000007bH
  00034	7c 73		 jl	 SHORT $LN6@IsRightNew
$LN2@IsRightNew:
  00036	80 f9 30	 cmp	 cl, 48			; 00000030H
  00039	7c 05		 jl	 SHORT $LN1@IsRightNew
  0003b	80 f9 3a	 cmp	 cl, 58			; 0000003aH
  0003e	7c 69		 jl	 SHORT $LN6@IsRightNew
$LN1@IsRightNew:
  00040	80 f9 21	 cmp	 cl, 33			; 00000021H
  00043	74 64		 je	 SHORT $LN6@IsRightNew
  00045	80 f9 24	 cmp	 cl, 36			; 00000024H
  00048	74 5f		 je	 SHORT $LN6@IsRightNew
  0004a	80 f9 5e	 cmp	 cl, 94			; 0000005eH
  0004d	74 5a		 je	 SHORT $LN6@IsRightNew
  0004f	80 f9 2a	 cmp	 cl, 42			; 0000002aH
  00052	74 55		 je	 SHORT $LN6@IsRightNew
  00054	80 f9 28	 cmp	 cl, 40			; 00000028H
  00057	74 50		 je	 SHORT $LN6@IsRightNew
  00059	80 f9 29	 cmp	 cl, 41			; 00000029H
  0005c	74 4b		 je	 SHORT $LN6@IsRightNew
  0005e	80 f9 5f	 cmp	 cl, 95			; 0000005fH
  00061	74 46		 je	 SHORT $LN6@IsRightNew
  00063	80 f9 2d	 cmp	 cl, 45			; 0000002dH
  00066	74 41		 je	 SHORT $LN6@IsRightNew
  00068	80 f9 3d	 cmp	 cl, 61			; 0000003dH
  0006b	74 3c		 je	 SHORT $LN6@IsRightNew
  0006d	80 f9 2b	 cmp	 cl, 43			; 0000002bH
  00070	74 37		 je	 SHORT $LN6@IsRightNew
  00072	80 f9 7c	 cmp	 cl, 124			; 0000007cH
  00075	74 32		 je	 SHORT $LN6@IsRightNew
  00077	80 f9 5b	 cmp	 cl, 91			; 0000005bH
  0007a	74 2d		 je	 SHORT $LN6@IsRightNew
  0007c	80 f9 5d	 cmp	 cl, 93			; 0000005dH
  0007f	74 28		 je	 SHORT $LN6@IsRightNew
  00081	80 f9 7b	 cmp	 cl, 123			; 0000007bH
  00084	74 23		 je	 SHORT $LN6@IsRightNew
  00086	80 f9 7d	 cmp	 cl, 125			; 0000007dH
  00089	74 1e		 je	 SHORT $LN6@IsRightNew
  0008b	80 f9 3c	 cmp	 cl, 60			; 0000003cH
  0008e	74 19		 je	 SHORT $LN6@IsRightNew
  00090	80 f9 3e	 cmp	 cl, 62			; 0000003eH
  00093	74 14		 je	 SHORT $LN6@IsRightNew
  00095	80 f9 3f	 cmp	 cl, 63			; 0000003fH
  00098	74 0f		 je	 SHORT $LN6@IsRightNew
  0009a	80 f9 7e	 cmp	 cl, 126			; 0000007eH
  0009d	74 0a		 je	 SHORT $LN6@IsRightNew
  0009f	80 f9 2e	 cmp	 cl, 46			; 0000002eH
  000a2	74 05		 je	 SHORT $LN6@IsRightNew
  000a4	80 f9 2c	 cmp	 cl, 44			; 0000002cH
  000a7	75 10		 jne	 SHORT $LN11@IsRightNew
$LN6@IsRightNew:

; 172  : 	for (int i=0; i<size; i++)

  000a9	42		 inc	 edx
  000aa	3b d0		 cmp	 edx, eax
  000ac	0f 8c 6d ff ff
	ff		 jl	 $LL7@IsRightNew
$LN5@IsRightNew:

; 200  : 		}
; 201  : 	}
; 202  : 	return true;

  000b2	b0 01		 mov	 al, 1
$LN8@IsRightNew:
  000b4	5e		 pop	 esi

; 203  : }

  000b5	5d		 pop	 ebp
  000b6	c2 04 00	 ret	 4
$LN11@IsRightNew:

; 198  : 		{
; 199  : 			return false;

  000b9	32 c0		 xor	 al, al
  000bb	eb f7		 jmp	 SHORT $LN8@IsRightNew
?IsRightNewID@ioLocalEU@@UAE_NPBD@Z ENDP		; ioLocalEU::IsRightNewID
; Function compile flags: /Ogsp
_TEXT	ENDS
;	COMDAT ?IsSendGashaponList@ioLocalEU@@UAE_NXZ
_TEXT	SEGMENT
?IsSendGashaponList@ioLocalEU@@UAE_NXZ PROC		; ioLocalEU::IsSendGashaponList, COMDAT
; _this$ = ecx

; 207  : 	return true;

  00000	b0 01		 mov	 al, 1

; 208  : }

  00002	c3		 ret	 0
?IsSendGashaponList@ioLocalEU@@UAE_NXZ ENDP		; ioLocalEU::IsSendGashaponList
_TEXT	ENDS
EXTRN	__imp__strlwr:PROC
; Function compile flags: /Ogsp
;	COMDAT ?GetChangedString@ioLocalEU@@UAEXPAD@Z
_TEXT	SEGMENT
_szCheckString$ = 8					; size = 4
?GetChangedString@ioLocalEU@@UAEXPAD@Z PROC		; ioLocalEU::GetChangedString, COMDAT
; _this$ = ecx

; 211  : {

  00000	55		 push	 ebp
  00001	8b ec		 mov	 ebp, esp

; 212  : 	strlwr( szCheckString );

  00003	ff 75 08	 push	 DWORD PTR _szCheckString$[ebp]
  00006	ff 15 00 00 00
	00		 call	 DWORD PTR __imp__strlwr
  0000c	59		 pop	 ecx

; 213  : }

  0000d	5d		 pop	 ebp
  0000e	c2 04 00	 ret	 4
?GetChangedString@ioLocalEU@@UAEXPAD@Z ENDP		; ioLocalEU::GetChangedString
; Function compile flags: /Ogsp
_TEXT	ENDS
;	COMDAT ?IsExecuteLuncher@ioLocalEU@@UAE_NXZ
_TEXT	SEGMENT
?IsExecuteLuncher@ioLocalEU@@UAE_NXZ PROC		; ioLocalEU::IsExecuteLuncher, COMDAT
; _this$ = ecx

; 217  : 	return false;

  00000	32 c0		 xor	 al, al

; 218  : }

  00002	c3		 ret	 0
?IsExecuteLuncher@ioLocalEU@@UAE_NXZ ENDP		; ioLocalEU::IsExecuteLuncher
; Function compile flags: /Ogsp
_TEXT	ENDS
;	COMDAT ?IsKoreaGameLimit@ioLocalEU@@UAE_NXZ
_TEXT	SEGMENT
?IsKoreaGameLimit@ioLocalEU@@UAE_NXZ PROC		; ioLocalEU::IsKoreaGameLimit, COMDAT
; _this$ = ecx

; 222  : 	return false;

  00000	32 c0		 xor	 al, al

; 223  : }

  00002	c3		 ret	 0
?IsKoreaGameLimit@ioLocalEU@@UAE_NXZ ENDP		; ioLocalEU::IsKoreaGameLimit
; Function compile flags: /Ogsp
_TEXT	ENDS
;	COMDAT ?IsCheckKorean@ioLocalEU@@UAE_NXZ
_TEXT	SEGMENT
?IsCheckKorean@ioLocalEU@@UAE_NXZ PROC			; ioLocalEU::IsCheckKorean, COMDAT
; _this$ = ecx

; 227  : 	return false;

  00000	32 c0		 xor	 al, al

; 228  : }

  00002	c3		 ret	 0
?IsCheckKorean@ioLocalEU@@UAE_NXZ ENDP			; ioLocalEU::IsCheckKorean
; Function compile flags: /Ogsp
_TEXT	ENDS
;	COMDAT ?IsMyHomePage@ioLocalEU@@UAE_NXZ
_TEXT	SEGMENT
?IsMyHomePage@ioLocalEU@@UAE_NXZ PROC			; ioLocalEU::IsMyHomePage, COMDAT
; _this$ = ecx

; 232  : 	return false;

  00000	32 c0		 xor	 al, al

; 233  : }

  00002	c3		 ret	 0
?IsMyHomePage@ioLocalEU@@UAE_NXZ ENDP			; ioLocalEU::IsMyHomePage
; Function compile flags: /Ogsp
_TEXT	ENDS
;	COMDAT ?IsShowExtraGoodsList@ioLocalEU@@UAE_NXZ
_TEXT	SEGMENT
?IsShowExtraGoodsList@ioLocalEU@@UAE_NXZ PROC		; ioLocalEU::IsShowExtraGoodsList, COMDAT
; _this$ = ecx

; 237  : 	return true;

  00000	b0 01		 mov	 al, 1

; 238  : }

  00002	c3		 ret	 0
?IsShowExtraGoodsList@ioLocalEU@@UAE_NXZ ENDP		; ioLocalEU::IsShowExtraGoodsList
; Function compile flags: /Ogsp
_TEXT	ENDS
;	COMDAT ?IsShowRegulation@ioLocalEU@@UAE_NXZ
_TEXT	SEGMENT
?IsShowRegulation@ioLocalEU@@UAE_NXZ PROC		; ioLocalEU::IsShowRegulation, COMDAT
; _this$ = ecx

; 242  : 	return false;

  00000	32 c0		 xor	 al, al

; 243  : }

  00002	c3		 ret	 0
?IsShowRegulation@ioLocalEU@@UAE_NXZ ENDP		; ioLocalEU::IsShowRegulation
; Function compile flags: /Ogsp
_TEXT	ENDS
;	COMDAT ?GetResourceIDErrorBack@ioLocalEU@@UAEKXZ
_TEXT	SEGMENT
?GetResourceIDErrorBack@ioLocalEU@@UAEKXZ PROC		; ioLocalEU::GetResourceIDErrorBack, COMDAT
; _this$ = ecx

; 247  : 	return IDB_BACK_ERROR_US;

  00000	b8 c1 00 00 00	 mov	 eax, 193		; 000000c1H

; 248  : }

  00005	c3		 ret	 0
?GetResourceIDErrorBack@ioLocalEU@@UAEKXZ ENDP		; ioLocalEU::GetResourceIDErrorBack
; Function compile flags: /Ogsp
_TEXT	ENDS
;	COMDAT ?GetResourceIDErrorExitC@ioLocalEU@@UAEKXZ
_TEXT	SEGMENT
?GetResourceIDErrorExitC@ioLocalEU@@UAEKXZ PROC		; ioLocalEU::GetResourceIDErrorExitC, COMDAT
; _this$ = ecx

; 252  : 	return IDB_EXIT_C_US;

  00000	b8 c3 00 00 00	 mov	 eax, 195		; 000000c3H

; 253  : }

  00005	c3		 ret	 0
?GetResourceIDErrorExitC@ioLocalEU@@UAEKXZ ENDP		; ioLocalEU::GetResourceIDErrorExitC
; Function compile flags: /Ogsp
_TEXT	ENDS
;	COMDAT ?GetResourceIDErrorExitN@ioLocalEU@@UAEKXZ
_TEXT	SEGMENT
?GetResourceIDErrorExitN@ioLocalEU@@UAEKXZ PROC		; ioLocalEU::GetResourceIDErrorExitN, COMDAT
; _this$ = ecx

; 257  : 	return IDB_EXIT_N_US;

  00000	b8 c4 00 00 00	 mov	 eax, 196		; 000000c4H

; 258  : }

  00005	c3		 ret	 0
?GetResourceIDErrorExitN@ioLocalEU@@UAEKXZ ENDP		; ioLocalEU::GetResourceIDErrorExitN
; Function compile flags: /Ogsp
_TEXT	ENDS
;	COMDAT ?GetResourceIDErrorExitO@ioLocalEU@@UAEKXZ
_TEXT	SEGMENT
?GetResourceIDErrorExitO@ioLocalEU@@UAEKXZ PROC		; ioLocalEU::GetResourceIDErrorExitO, COMDAT
; _this$ = ecx

; 262  : 	return IDB_EXIT_O_US;

  00000	b8 c5 00 00 00	 mov	 eax, 197		; 000000c5H

; 263  : }

  00005	c3		 ret	 0
?GetResourceIDErrorExitO@ioLocalEU@@UAEKXZ ENDP		; ioLocalEU::GetResourceIDErrorExitO
; Function compile flags: /Ogsp
_TEXT	ENDS
;	COMDAT ?GetResourceIDErrorSolutionC@ioLocalEU@@UAEKXZ
_TEXT	SEGMENT
?GetResourceIDErrorSolutionC@ioLocalEU@@UAEKXZ PROC	; ioLocalEU::GetResourceIDErrorSolutionC, COMDAT
; _this$ = ecx

; 267  : 	return IDB_SOLUTION_C_US;

  00000	b8 c6 00 00 00	 mov	 eax, 198		; 000000c6H

; 268  : }

  00005	c3		 ret	 0
?GetResourceIDErrorSolutionC@ioLocalEU@@UAEKXZ ENDP	; ioLocalEU::GetResourceIDErrorSolutionC
; Function compile flags: /Ogsp
_TEXT	ENDS
;	COMDAT ?GetResourceIDErrorSolutionN@ioLocalEU@@UAEKXZ
_TEXT	SEGMENT
?GetResourceIDErrorSolutionN@ioLocalEU@@UAEKXZ PROC	; ioLocalEU::GetResourceIDErrorSolutionN, COMDAT
; _this$ = ecx

; 272  : 	return IDB_SOLUTION_N_US;

  00000	b8 c7 00 00 00	 mov	 eax, 199		; 000000c7H

; 273  : }

  00005	c3		 ret	 0
?GetResourceIDErrorSolutionN@ioLocalEU@@UAEKXZ ENDP	; ioLocalEU::GetResourceIDErrorSolutionN
; Function compile flags: /Ogsp
_TEXT	ENDS
;	COMDAT ?GetResourceIDErrorSolutionO@ioLocalEU@@UAEKXZ
_TEXT	SEGMENT
?GetResourceIDErrorSolutionO@ioLocalEU@@UAEKXZ PROC	; ioLocalEU::GetResourceIDErrorSolutionO, COMDAT
; _this$ = ecx

; 277  : 	return IDB_SOLUTION_O_US;

  00000	b8 c8 00 00 00	 mov	 eax, 200		; 000000c8H

; 278  : }

  00005	c3		 ret	 0
?GetResourceIDErrorSolutionO@ioLocalEU@@UAEKXZ ENDP	; ioLocalEU::GetResourceIDErrorSolutionO
_TEXT	ENDS
PUBLIC	??_C@_0CF@HOLGFKMK@http?3?1?1support?4z8games?4com?1losts@ ; `string'
;	COMDAT ??_C@_0CF@HOLGFKMK@http?3?1?1support?4z8games?4com?1losts@
CONST	SEGMENT
??_C@_0CF@HOLGFKMK@http?3?1?1support?4z8games?4com?1losts@ DB 'http://sup'
	DB	'port.z8games.com/lostsaga/', 00H		; `string'
; Function compile flags: /Ogsp
CONST	ENDS
;	COMDAT ?GetErrorSolutionURL@ioLocalEU@@UAEPBDXZ
_TEXT	SEGMENT
?GetErrorSolutionURL@ioLocalEU@@UAEPBDXZ PROC		; ioLocalEU::GetErrorSolutionURL, COMDAT
; _this$ = ecx

; 282  : 	return "http://support.z8games.com/lostsaga/";

  00000	b8 00 00 00 00	 mov	 eax, OFFSET ??_C@_0CF@HOLGFKMK@http?3?1?1support?4z8games?4com?1losts@

; 283  : }

  00005	c3		 ret	 0
?GetErrorSolutionURL@ioLocalEU@@UAEPBDXZ ENDP		; ioLocalEU::GetErrorSolutionURL
; Function compile flags: /Ogsp
_TEXT	ENDS
;	COMDAT ?SetPresentRecvDisableMsg@ioLocalEU@@UAE_NH@Z
_TEXT	SEGMENT
_iPresentType$ = 8					; size = 4
?SetPresentRecvDisableMsg@ioLocalEU@@UAE_NH@Z PROC	; ioLocalEU::SetPresentRecvDisableMsg, COMDAT
; _this$ = ecx

; 287  : 	return false;

  00000	32 c0		 xor	 al, al

; 288  : }

  00002	c2 04 00	 ret	 4
?SetPresentRecvDisableMsg@ioLocalEU@@UAE_NH@Z ENDP	; ioLocalEU::SetPresentRecvDisableMsg
; Function compile flags: /Ogsp
_TEXT	ENDS
;	COMDAT ?GetLimitGradeLevel@ioLocalEU@@UAEHXZ
_TEXT	SEGMENT
?GetLimitGradeLevel@ioLocalEU@@UAEHXZ PROC		; ioLocalEU::GetLimitGradeLevel, COMDAT
; _this$ = ecx

; 292  : 	return -1;

  00000	83 c8 ff	 or	 eax, -1

; 293  : }

  00003	c3		 ret	 0
?GetLimitGradeLevel@ioLocalEU@@UAEHXZ ENDP		; ioLocalEU::GetLimitGradeLevel
_TEXT	ENDS
PUBLIC	??_C@_0O@JPJAHCBI@Billing?5Error?$AA@		; `string'
;	COMDAT ??_C@_0O@JPJAHCBI@Billing?5Error?$AA@
CONST	SEGMENT
??_C@_0O@JPJAHCBI@Billing?5Error?$AA@ DB 'Billing Error', 00H ; `string'
; Function compile flags: /Ogsp
CONST	ENDS
;	COMDAT ?GetBillingErrorMent@ioLocalEU@@UAEPBDAAVioHashString@@@Z
_TEXT	SEGMENT
_sServerError$ = 8					; size = 4
?GetBillingErrorMent@ioLocalEU@@UAEPBDAAVioHashString@@@Z PROC ; ioLocalEU::GetBillingErrorMent, COMDAT
; _this$ = ecx

; 297  : 	return "Billing Error";

  00000	b8 00 00 00 00	 mov	 eax, OFFSET ??_C@_0O@JPJAHCBI@Billing?5Error?$AA@

; 298  : }

  00005	c2 04 00	 ret	 4
?GetBillingErrorMent@ioLocalEU@@UAEPBDAAVioHashString@@@Z ENDP ; ioLocalEU::GetBillingErrorMent
; Function compile flags: /Ogsp
_TEXT	ENDS
;	COMDAT ?GetLicenseDate@ioLocalEU@@UAEHXZ
_TEXT	SEGMENT
?GetLicenseDate@ioLocalEU@@UAEHXZ PROC			; ioLocalEU::GetLicenseDate, COMDAT
; _this$ = ecx

; 302  : 	return 20150806;

  00000	b8 16 7a 33 01	 mov	 eax, 20150806		; 01337a16H

; 303  : }

  00005	c3		 ret	 0
?GetLicenseDate@ioLocalEU@@UAEHXZ ENDP			; ioLocalEU::GetLicenseDate
_TEXT	ENDS
EXTRN	__imp_??4ioHashString@@QAEAAV0@ABV0@@Z:PROC
; Function compile flags: /Ogsp
;	COMDAT ?SetWebLoginKey@ioLocalEU@@UAEXABVioHashString@@@Z
_TEXT	SEGMENT
_rsWebLoginKey$ = 8					; size = 4
?SetWebLoginKey@ioLocalEU@@UAEXABVioHashString@@@Z PROC	; ioLocalEU::SetWebLoginKey, COMDAT
; _this$ = ecx

; 306  : {

  00000	55		 push	 ebp
  00001	8b ec		 mov	 ebp, esp

; 307  : 	m_sWebLoginKey = rsWebLoginKey;

  00003	83 e9 80	 sub	 ecx, -128		; ffffff80H

; 308  : }

  00006	5d		 pop	 ebp

; 307  : 	m_sWebLoginKey = rsWebLoginKey;

  00007	ff 25 00 00 00
	00		 jmp	 DWORD PTR __imp_??4ioHashString@@QAEAAV0@ABV0@@Z
?SetWebLoginKey@ioLocalEU@@UAEXABVioHashString@@@Z ENDP	; ioLocalEU::SetWebLoginKey
; Function compile flags: /Ogsp
; File c:\program files (x86)\microsoft sdks\windows\v7.0a\include\strsafe.h
_TEXT	ENDS
;	COMDAT ?StringValidateDestA@@YGJPBDII@Z
_TEXT	SEGMENT
_cchMax$ = 8						; size = 4
?StringValidateDestA@@YGJPBDII@Z PROC			; StringValidateDestA, COMDAT
; _cchDest$ = ecx

; 8721 : {

  00000	55		 push	 ebp
  00001	8b ec		 mov	 ebp, esp

; 8722 :     HRESULT hr = S_OK;

  00003	33 c0		 xor	 eax, eax

; 8723 : 
; 8724 :     if ((cchDest == 0) || (cchDest > cchMax))

  00005	85 c9		 test	 ecx, ecx
  00007	74 05		 je	 SHORT $LN1@StringVali
  00009	3b 4d 08	 cmp	 ecx, DWORD PTR _cchMax$[ebp]
  0000c	76 05		 jbe	 SHORT $LN2@StringVali
$LN1@StringVali:

; 8725 :     {
; 8726 :         hr = STRSAFE_E_INVALID_PARAMETER;

  0000e	b8 57 00 07 80	 mov	 eax, -2147024809	; 80070057H
$LN2@StringVali:

; 8727 :     }
; 8728 : 
; 8729 :     return hr;
; 8730 : }

  00013	5d		 pop	 ebp
  00014	c2 04 00	 ret	 4
?StringValidateDestA@@YGJPBDII@Z ENDP			; StringValidateDestA
; Function compile flags: /Ogsp
_TEXT	ENDS
;	COMDAT ?StringCopyWorkerA@@YGJPADIPAIPBDI@Z
_TEXT	SEGMENT
_hr$ = -4						; size = 4
_pcchNewDestLength$ = 8					; size = 4
_pszSrc$ = 12						; size = 4
_cchToCopy$ = 16					; size = 4
?StringCopyWorkerA@@YGJPADIPAIPBDI@Z PROC		; StringCopyWorkerA, COMDAT
; _pszDest$ = ecx
; _cchDest$ = eax

; 8947 : {

  00000	55		 push	 ebp
  00001	8b ec		 mov	 ebp, esp
  00003	51		 push	 ecx

; 8948 :     HRESULT hr = S_OK;

  00004	83 65 fc 00	 and	 DWORD PTR _hr$[ebp], 0
  00008	57		 push	 edi
  00009	8b f8		 mov	 edi, eax

; 8949 :     size_t cchNewDestLength = 0;

  0000b	33 c0		 xor	 eax, eax

; 8950 :     
; 8951 :     // ASSERT(cchDest != 0);
; 8952 : 
; 8953 :     while (cchDest && cchToCopy && (*pszSrc != '\0'))

  0000d	85 ff		 test	 edi, edi
  0000f	74 23		 je	 SHORT $LN9@StringCopy

; 8948 :     HRESULT hr = S_OK;

  00011	53		 push	 ebx
  00012	8b 5d 10	 mov	 ebx, DWORD PTR _cchToCopy$[ebp]
  00015	56		 push	 esi

; 8950 :     
; 8951 :     // ASSERT(cchDest != 0);
; 8952 : 
; 8953 :     while (cchDest && cchToCopy && (*pszSrc != '\0'))

  00016	8b 75 0c	 mov	 esi, DWORD PTR _pszSrc$[ebp]
  00019	2b f1		 sub	 esi, ecx
$LL4@StringCopy:
  0001b	85 db		 test	 ebx, ebx
  0001d	74 0f		 je	 SHORT $LN11@StringCopy
  0001f	8a 14 0e	 mov	 dl, BYTE PTR [esi+ecx]
  00022	84 d2		 test	 dl, dl
  00024	74 08		 je	 SHORT $LN11@StringCopy

; 8954 :     {
; 8955 :         *pszDest++ = *pszSrc++;

  00026	88 11		 mov	 BYTE PTR [ecx], dl
  00028	41		 inc	 ecx

; 8956 :         cchDest--;

  00029	4b		 dec	 ebx

; 8957 :         cchToCopy--;
; 8958 : 
; 8959 :         cchNewDestLength++;

  0002a	40		 inc	 eax
  0002b	4f		 dec	 edi
  0002c	75 ed		 jne	 SHORT $LL4@StringCopy
$LN11@StringCopy:
  0002e	5e		 pop	 esi
  0002f	5b		 pop	 ebx

; 8960 :     }
; 8961 : 
; 8962 :     if (cchDest == 0)

  00030	85 ff		 test	 edi, edi
  00032	75 09		 jne	 SHORT $LN2@StringCopy
$LN9@StringCopy:

; 8963 :     {
; 8964 :         // we are going to truncate pszDest
; 8965 :         pszDest--;

  00034	49		 dec	 ecx

; 8966 :         cchNewDestLength--;

  00035	48		 dec	 eax

; 8967 : 
; 8968 :         hr = STRSAFE_E_INSUFFICIENT_BUFFER;

  00036	c7 45 fc 7a 00
	07 80		 mov	 DWORD PTR _hr$[ebp], -2147024774 ; 8007007aH
$LN2@StringCopy:

; 8969 :     }
; 8970 : 
; 8971 :     *pszDest = '\0';

  0003d	c6 01 00	 mov	 BYTE PTR [ecx], 0

; 8972 : 
; 8973 :     if (pcchNewDestLength)

  00040	8b 4d 08	 mov	 ecx, DWORD PTR _pcchNewDestLength$[ebp]
  00043	5f		 pop	 edi
  00044	85 c9		 test	 ecx, ecx
  00046	74 02		 je	 SHORT $LN1@StringCopy

; 8974 :     {
; 8975 :         *pcchNewDestLength = cchNewDestLength;

  00048	89 01		 mov	 DWORD PTR [ecx], eax
$LN1@StringCopy:

; 8976 :     }
; 8977 : 
; 8978 :     return hr;

  0004a	8b 45 fc	 mov	 eax, DWORD PTR _hr$[ebp]

; 8979 : }

  0004d	c9		 leave
  0004e	c2 0c 00	 ret	 12			; 0000000cH
?StringCopyWorkerA@@YGJPADIPAIPBDI@Z ENDP		; StringCopyWorkerA
; Function compile flags: /Ogsp
; File d:\lost saga for developer\youtube\tutorial\source\src\lsclient\local\iolocalparent.h
_TEXT	ENDS
;	COMDAT ?GetSubType@ioLocalParent@@UAEHXZ
_TEXT	SEGMENT
?GetSubType@ioLocalParent@@UAEHXZ PROC			; ioLocalParent::GetSubType, COMDAT
; _this$ = ecx

; 50   : 	virtual int GetSubType() {return m_nSubType;}

  00000	8b 41 44	 mov	 eax, DWORD PTR [ecx+68]
  00003	c3		 ret	 0
?GetSubType@ioLocalParent@@UAEHXZ ENDP			; ioLocalParent::GetSubType
; Function compile flags: /Ogsp
_TEXT	ENDS
;	COMDAT ?SetSubType@ioLocalParent@@UAEXH@Z
_TEXT	SEGMENT
_nSubType$ = 8						; size = 4
?SetSubType@ioLocalParent@@UAEXH@Z PROC			; ioLocalParent::SetSubType, COMDAT
; _this$ = ecx

; 51   : 	virtual void SetSubType(int nSubType) {m_nSubType = nSubType;}

  00000	55		 push	 ebp
  00001	8b ec		 mov	 ebp, esp
  00003	8b 45 08	 mov	 eax, DWORD PTR _nSubType$[ebp]
  00006	89 41 44	 mov	 DWORD PTR [ecx+68], eax
  00009	5d		 pop	 ebp
  0000a	c2 04 00	 ret	 4
?SetSubType@ioLocalParent@@UAEXH@Z ENDP			; ioLocalParent::SetSubType
; Function compile flags: /Ogsp
_TEXT	ENDS
;	COMDAT ?GetResourceIDTitleWebShop@ioLocalParent@@UAEKXZ
_TEXT	SEGMENT
?GetResourceIDTitleWebShop@ioLocalParent@@UAEKXZ PROC	; ioLocalParent::GetResourceIDTitleWebShop, COMDAT
; _this$ = ecx

; 60   : 	virtual DWORD GetResourceIDTitleWebShop() { return 0; };

  00000	33 c0		 xor	 eax, eax
  00002	c3		 ret	 0
?GetResourceIDTitleWebShop@ioLocalParent@@UAEKXZ ENDP	; ioLocalParent::GetResourceIDTitleWebShop
; Function compile flags: /Ogsp
_TEXT	ENDS
;	COMDAT ?SetWarnetInfo@ioLocalParent@@UAEXABVioHashString@@K@Z
_TEXT	SEGMENT
_szAuthInfo$ = 8					; size = 4
_dwSessionID$ = 12					; size = 4
?SetWarnetInfo@ioLocalParent@@UAEXABVioHashString@@K@Z PROC ; ioLocalParent::SetWarnetInfo, COMDAT
; _this$ = ecx

; 71   : 	virtual void SetWarnetInfo(const ioHashString &szAuthInfo, const DWORD dwSessionID){};

  00000	c2 08 00	 ret	 8
?SetWarnetInfo@ioLocalParent@@UAEXABVioHashString@@K@Z ENDP ; ioLocalParent::SetWarnetInfo
; Function compile flags: /Ogsp
_TEXT	ENDS
;	COMDAT ?IsFirstIDCheckPass@ioLocalParent@@UAE_NXZ
_TEXT	SEGMENT
?IsFirstIDCheckPass@ioLocalParent@@UAE_NXZ PROC		; ioLocalParent::IsFirstIDCheckPass, COMDAT
; _this$ = ecx

; 97   : 	virtual bool IsFirstIDCheckPass() { return false; }

  00000	32 c0		 xor	 al, al
  00002	c3		 ret	 0
?IsFirstIDCheckPass@ioLocalParent@@UAE_NXZ ENDP		; ioLocalParent::IsFirstIDCheckPass
; Function compile flags: /Ogsp
_TEXT	ENDS
;	COMDAT ?IsStartFullScreen@ioLocalParent@@UAE_NXZ
_TEXT	SEGMENT
?IsStartFullScreen@ioLocalParent@@UAE_NXZ PROC		; ioLocalParent::IsStartFullScreen, COMDAT
; _this$ = ecx

; 101  : 	virtual bool IsStartFullScreen(){ return false; }

  00000	32 c0		 xor	 al, al
  00002	c3		 ret	 0
?IsStartFullScreen@ioLocalParent@@UAE_NXZ ENDP		; ioLocalParent::IsStartFullScreen
; Function compile flags: /Ogsp
_TEXT	ENDS
;	COMDAT ?IsTooltipAutoLine@ioLocalParent@@UAE_NXZ
_TEXT	SEGMENT
?IsTooltipAutoLine@ioLocalParent@@UAE_NXZ PROC		; ioLocalParent::IsTooltipAutoLine, COMDAT
; _this$ = ecx

; 102  : 	virtual bool IsTooltipAutoLine(){ return false; }

  00000	32 c0		 xor	 al, al
  00002	c3		 ret	 0
?IsTooltipAutoLine@ioLocalParent@@UAE_NXZ ENDP		; ioLocalParent::IsTooltipAutoLine
; Function compile flags: /Ogsp
_TEXT	ENDS
;	COMDAT ?IsMileage@ioLocalParent@@UAE_NXZ
_TEXT	SEGMENT
?IsMileage@ioLocalParent@@UAE_NXZ PROC			; ioLocalParent::IsMileage, COMDAT
; _this$ = ecx

; 103  : 	virtual bool IsMileage() { return false; }

  00000	32 c0		 xor	 al, al
  00002	c3		 ret	 0
?IsMileage@ioLocalParent@@UAE_NXZ ENDP			; ioLocalParent::IsMileage
; Function compile flags: /Ogsp
_TEXT	ENDS
;	COMDAT ?IsGatotkacaPremium@ioLocalParent@@UAE_NH@Z
_TEXT	SEGMENT
_iClassType$ = 8					; size = 4
?IsGatotkacaPremium@ioLocalParent@@UAE_NH@Z PROC	; ioLocalParent::IsGatotkacaPremium, COMDAT
; _this$ = ecx

; 104  : 	virtual bool IsGatotkacaPremium( int iClassType ) { return false; }

  00000	32 c0		 xor	 al, al
  00002	c2 04 00	 ret	 4
?IsGatotkacaPremium@ioLocalParent@@UAE_NH@Z ENDP	; ioLocalParent::IsGatotkacaPremium
; Function compile flags: /Ogsp
_TEXT	ENDS
;	COMDAT ?IsPointBlankPremium@ioLocalParent@@UAE_NH@Z
_TEXT	SEGMENT
_iClassType$ = 8					; size = 4
?IsPointBlankPremium@ioLocalParent@@UAE_NH@Z PROC	; ioLocalParent::IsPointBlankPremium, COMDAT
; _this$ = ecx

; 105  : 	virtual bool IsPointBlankPremium( int iClassType ) { return false; }

  00000	32 c0		 xor	 al, al
  00002	c2 04 00	 ret	 4
?IsPointBlankPremium@ioLocalParent@@UAE_NH@Z ENDP	; ioLocalParent::IsPointBlankPremium
; Function compile flags: /Ogsp
_TEXT	ENDS
;	COMDAT ?IsEndFishingByMove@ioLocalParent@@UAE_NXZ
_TEXT	SEGMENT
?IsEndFishingByMove@ioLocalParent@@UAE_NXZ PROC		; ioLocalParent::IsEndFishingByMove, COMDAT
; _this$ = ecx

; 111  : 	virtual bool IsEndFishingByMove() { return true; }

  00000	b0 01		 mov	 al, 1
  00002	c3		 ret	 0
?IsEndFishingByMove@ioLocalParent@@UAE_NXZ ENDP		; ioLocalParent::IsEndFishingByMove
; Function compile flags: /Ogsp
_TEXT	ENDS
;	COMDAT ?IsShowFirstSoldierSelectWnd@ioLocalParent@@UAE_NXZ
_TEXT	SEGMENT
?IsShowFirstSoldierSelectWnd@ioLocalParent@@UAE_NXZ PROC ; ioLocalParent::IsShowFirstSoldierSelectWnd, COMDAT
; _this$ = ecx

; 115  : 	virtual bool IsShowFirstSoldierSelectWnd() { return false; }

  00000	32 c0		 xor	 al, al
  00002	c3		 ret	 0
?IsShowFirstSoldierSelectWnd@ioLocalParent@@UAE_NXZ ENDP ; ioLocalParent::IsShowFirstSoldierSelectWnd
; Function compile flags: /Ogsp
_TEXT	ENDS
;	COMDAT ?ExitAction@ioLocalParent@@UAEXXZ
_TEXT	SEGMENT
?ExitAction@ioLocalParent@@UAEXXZ PROC			; ioLocalParent::ExitAction, COMDAT
; _this$ = ecx

; 117  : 	virtual void ExitAction(){}

  00000	c3		 ret	 0
?ExitAction@ioLocalParent@@UAEXXZ ENDP			; ioLocalParent::ExitAction
; Function compile flags: /Ogsp
_TEXT	ENDS
;	COMDAT ?ShowHackShieldErrorDlg@ioLocalParent@@UAEXABVioHashString@@@Z
_TEXT	SEGMENT
_rsPrivateID$ = 8					; size = 4
?ShowHackShieldErrorDlg@ioLocalParent@@UAEXABVioHashString@@@Z PROC ; ioLocalParent::ShowHackShieldErrorDlg, COMDAT
; _this$ = ecx

; 118  : 	virtual void ShowHackShieldErrorDlg( const ioHashString &rsPrivateID ){}

  00000	c2 04 00	 ret	 4
?ShowHackShieldErrorDlg@ioLocalParent@@UAEXABVioHashString@@@Z ENDP ; ioLocalParent::ShowHackShieldErrorDlg
; Function compile flags: /Ogsp
_TEXT	ENDS
;	COMDAT ?GetCashSendTime@ioLocalParent@@UAEKXZ
_TEXT	SEGMENT
?GetCashSendTime@ioLocalParent@@UAEKXZ PROC		; ioLocalParent::GetCashSendTime, COMDAT
; _this$ = ecx

; 121  : 	virtual DWORD GetCashSendTime() { return 15000; } // ms

  00000	b8 98 3a 00 00	 mov	 eax, 15000		; 00003a98H
  00005	c3		 ret	 0
?GetCashSendTime@ioLocalParent@@UAEKXZ ENDP		; ioLocalParent::GetCashSendTime
; Function compile flags: /Ogsp
_TEXT	ENDS
;	COMDAT ?IsHeadquarterWebPage@ioLocalParent@@UAE_NXZ
_TEXT	SEGMENT
?IsHeadquarterWebPage@ioLocalParent@@UAE_NXZ PROC	; ioLocalParent::IsHeadquarterWebPage, COMDAT
; _this$ = ecx

; 122  : 	virtual bool IsHeadquarterWebPage() { return false; }

  00000	32 c0		 xor	 al, al
  00002	c3		 ret	 0
?IsHeadquarterWebPage@ioLocalParent@@UAE_NXZ ENDP	; ioLocalParent::IsHeadquarterWebPage
; Function compile flags: /Ogsp
_TEXT	ENDS
;	COMDAT ?IsFirstIDControlAltCtrl@ioLocalParent@@UAE_NXZ
_TEXT	SEGMENT
?IsFirstIDControlAltCtrl@ioLocalParent@@UAE_NXZ PROC	; ioLocalParent::IsFirstIDControlAltCtrl, COMDAT
; _this$ = ecx

; 123  : 	virtual bool IsFirstIDControlAltCtrl() { return true; }

  00000	b0 01		 mov	 al, 1
  00002	c3		 ret	 0
?IsFirstIDControlAltCtrl@ioLocalParent@@UAE_NXZ ENDP	; ioLocalParent::IsFirstIDControlAltCtrl
; Function compile flags: /Ogsp
_TEXT	ENDS
;	COMDAT ?IsPCRoomBonusSoldier@ioLocalParent@@UAE_NXZ
_TEXT	SEGMENT
?IsPCRoomBonusSoldier@ioLocalParent@@UAE_NXZ PROC	; ioLocalParent::IsPCRoomBonusSoldier, COMDAT
; _this$ = ecx

; 124  : 	virtual bool IsPCRoomBonusSoldier() { return false; }

  00000	32 c0		 xor	 al, al
  00002	c3		 ret	 0
?IsPCRoomBonusSoldier@ioLocalParent@@UAE_NXZ ENDP	; ioLocalParent::IsPCRoomBonusSoldier
; Function compile flags: /Ogsp
_TEXT	ENDS
;	COMDAT ?IsChangeServerHelp@ioLocalParent@@UAE_NXZ
_TEXT	SEGMENT
?IsChangeServerHelp@ioLocalParent@@UAE_NXZ PROC		; ioLocalParent::IsChangeServerHelp, COMDAT
; _this$ = ecx

; 127  : 	virtual bool IsChangeServerHelp() { return false; }

  00000	32 c0		 xor	 al, al
  00002	c3		 ret	 0
?IsChangeServerHelp@ioLocalParent@@UAE_NXZ ENDP		; ioLocalParent::IsChangeServerHelp
; Function compile flags: /Ogsp
_TEXT	ENDS
;	COMDAT ?IsSendCollisionPos@ioLocalParent@@UAE_NXZ
_TEXT	SEGMENT
?IsSendCollisionPos@ioLocalParent@@UAE_NXZ PROC		; ioLocalParent::IsSendCollisionPos, COMDAT
; _this$ = ecx

; 128  : 	virtual bool IsSendCollisionPos() { return true; }

  00000	b0 01		 mov	 al, 1
  00002	c3		 ret	 0
?IsSendCollisionPos@ioLocalParent@@UAE_NXZ ENDP		; ioLocalParent::IsSendCollisionPos
; Function compile flags: /Ogsp
_TEXT	ENDS
;	COMDAT ?IsLimitStartCancel@ioLocalParent@@UAE_NXZ
_TEXT	SEGMENT
?IsLimitStartCancel@ioLocalParent@@UAE_NXZ PROC		; ioLocalParent::IsLimitStartCancel, COMDAT
; _this$ = ecx

; 129  : 	virtual bool IsLimitStartCancel() { return false; }

  00000	32 c0		 xor	 al, al
  00002	c3		 ret	 0
?IsLimitStartCancel@ioLocalParent@@UAE_NXZ ENDP		; ioLocalParent::IsLimitStartCancel
; Function compile flags: /Ogsp
_TEXT	ENDS
;	COMDAT ?IsCreateMiniDump@ioLocalParent@@UAE_NXZ
_TEXT	SEGMENT
?IsCreateMiniDump@ioLocalParent@@UAE_NXZ PROC		; ioLocalParent::IsCreateMiniDump, COMDAT
; _this$ = ecx

; 130  : 	virtual bool IsCreateMiniDump() { return false; }

  00000	32 c0		 xor	 al, al
  00002	c3		 ret	 0
?IsCreateMiniDump@ioLocalParent@@UAE_NXZ ENDP		; ioLocalParent::IsCreateMiniDump
; Function compile flags: /Ogsp
_TEXT	ENDS
;	COMDAT ?IsTickCheck@ioLocalParent@@UAE_NXZ
_TEXT	SEGMENT
?IsTickCheck@ioLocalParent@@UAE_NXZ PROC		; ioLocalParent::IsTickCheck, COMDAT
; _this$ = ecx

; 131  : 	virtual bool IsTickCheck() { return true; }

  00000	b0 01		 mov	 al, 1
  00002	c3		 ret	 0
?IsTickCheck@ioLocalParent@@UAE_NXZ ENDP		; ioLocalParent::IsTickCheck
; Function compile flags: /Ogsp
_TEXT	ENDS
;	COMDAT ?IsAnnounceShutDown@ioLocalParent@@UAE_NXZ
_TEXT	SEGMENT
?IsAnnounceShutDown@ioLocalParent@@UAE_NXZ PROC		; ioLocalParent::IsAnnounceShutDown, COMDAT
; _this$ = ecx

; 132  : 	virtual bool IsAnnounceShutDown() { return false; }

  00000	32 c0		 xor	 al, al
  00002	c3		 ret	 0
?IsAnnounceShutDown@ioLocalParent@@UAE_NXZ ENDP		; ioLocalParent::IsAnnounceShutDown
; Function compile flags: /Ogsp
_TEXT	ENDS
;	COMDAT ?IsUseMedalLevelOpen@ioLocalParent@@UAE_NXZ
_TEXT	SEGMENT
?IsUseMedalLevelOpen@ioLocalParent@@UAE_NXZ PROC	; ioLocalParent::IsUseMedalLevelOpen, COMDAT
; _this$ = ecx

; 133  : 	virtual bool IsUseMedalLevelOpen() { return true; }

  00000	b0 01		 mov	 al, 1
  00002	c3		 ret	 0
?IsUseMedalLevelOpen@ioLocalParent@@UAE_NXZ ENDP	; ioLocalParent::IsUseMedalLevelOpen
; Function compile flags: /Ogsp
_TEXT	ENDS
;	COMDAT ?IsUsePresentMacroInShipping@ioLocalParent@@UAE_NXZ
_TEXT	SEGMENT
?IsUsePresentMacroInShipping@ioLocalParent@@UAE_NXZ PROC ; ioLocalParent::IsUsePresentMacroInShipping, COMDAT
; _this$ = ecx

; 134  : 	virtual bool IsUsePresentMacroInShipping() { return true; }

  00000	b0 01		 mov	 al, 1
  00002	c3		 ret	 0
?IsUsePresentMacroInShipping@ioLocalParent@@UAE_NXZ ENDP ; ioLocalParent::IsUsePresentMacroInShipping
; Function compile flags: /Ogsp
_TEXT	ENDS
;	COMDAT ?IsSendChatLog@ioLocalParent@@UAE_NXZ
_TEXT	SEGMENT
?IsSendChatLog@ioLocalParent@@UAE_NXZ PROC		; ioLocalParent::IsSendChatLog, COMDAT
; _this$ = ecx

; 135  : 	virtual bool IsSendChatLog() { return true; }

  00000	b0 01		 mov	 al, 1
  00002	c3		 ret	 0
?IsSendChatLog@ioLocalParent@@UAE_NXZ ENDP		; ioLocalParent::IsSendChatLog
; Function compile flags: /Ogsp
_TEXT	ENDS
;	COMDAT ?IsUseVoiceChat@ioLocalParent@@UAE_NXZ
_TEXT	SEGMENT
?IsUseVoiceChat@ioLocalParent@@UAE_NXZ PROC		; ioLocalParent::IsUseVoiceChat, COMDAT
; _this$ = ecx

; 136  : 	virtual bool IsUseVoiceChat() { return true; }

  00000	b0 01		 mov	 al, 1
  00002	c3		 ret	 0
?IsUseVoiceChat@ioLocalParent@@UAE_NXZ ENDP		; ioLocalParent::IsUseVoiceChat
; Function compile flags: /Ogsp
_TEXT	ENDS
;	COMDAT ?IsMemoryLoadMapPac@ioLocalParent@@UAE_NXZ
_TEXT	SEGMENT
?IsMemoryLoadMapPac@ioLocalParent@@UAE_NXZ PROC		; ioLocalParent::IsMemoryLoadMapPac, COMDAT
; _this$ = ecx

; 137  : 	virtual bool IsMemoryLoadMapPac() { return false; }

  00000	32 c0		 xor	 al, al
  00002	c3		 ret	 0
?IsMemoryLoadMapPac@ioLocalParent@@UAE_NXZ ENDP		; ioLocalParent::IsMemoryLoadMapPac
; Function compile flags: /Ogsp
_TEXT	ENDS
;	COMDAT ?GetCashPageWidth@ioLocalParent@@UAEHXZ
_TEXT	SEGMENT
?GetCashPageWidth@ioLocalParent@@UAEHXZ PROC		; ioLocalParent::GetCashPageWidth, COMDAT
; _this$ = ecx

; 139  : 	virtual int GetCashPageWidth() { return 0; }

  00000	33 c0		 xor	 eax, eax
  00002	c3		 ret	 0
?GetCashPageWidth@ioLocalParent@@UAEHXZ ENDP		; ioLocalParent::GetCashPageWidth
; Function compile flags: /Ogsp
_TEXT	ENDS
;	COMDAT ?GetCashPageHeight@ioLocalParent@@UAEHXZ
_TEXT	SEGMENT
?GetCashPageHeight@ioLocalParent@@UAEHXZ PROC		; ioLocalParent::GetCashPageHeight, COMDAT
; _this$ = ecx

; 140  : 	virtual int GetCashPageHeight() { return 0; }

  00000	33 c0		 xor	 eax, eax
  00002	c3		 ret	 0
?GetCashPageHeight@ioLocalParent@@UAEHXZ ENDP		; ioLocalParent::GetCashPageHeight
; Function compile flags: /Ogsp
_TEXT	ENDS
;	COMDAT ?OnCashPageHide@ioLocalParent@@UAEXXZ
_TEXT	SEGMENT
?OnCashPageHide@ioLocalParent@@UAEXXZ PROC		; ioLocalParent::OnCashPageHide, COMDAT
; _this$ = ecx

; 141  : 	virtual void OnCashPageHide(){}

  00000	c3		 ret	 0
?OnCashPageHide@ioLocalParent@@UAEXXZ ENDP		; ioLocalParent::OnCashPageHide
; Function compile flags: /Ogsp
_TEXT	ENDS
;	COMDAT ?GetProgramExitWaitSec@ioLocalParent@@UAEHXZ
_TEXT	SEGMENT
?GetProgramExitWaitSec@ioLocalParent@@UAEHXZ PROC	; ioLocalParent::GetProgramExitWaitSec, COMDAT
; _this$ = ecx

; 142  : 	virtual int GetProgramExitWaitSec() { return 60; } // 1분

  00000	6a 3c		 push	 60			; 0000003cH
  00002	58		 pop	 eax
  00003	c3		 ret	 0
?GetProgramExitWaitSec@ioLocalParent@@UAEHXZ ENDP	; ioLocalParent::GetProgramExitWaitSec
; Function compile flags: /Ogsp
_TEXT	ENDS
;	COMDAT ?GetFillCashURL@ioLocalParent@@UAEXAAVioHashString@@ABV2@@Z
_TEXT	SEGMENT
_rsFullURL$ = 8						; size = 4
_rsShortURL$ = 12					; size = 4
?GetFillCashURL@ioLocalParent@@UAEXAAVioHashString@@ABV2@@Z PROC ; ioLocalParent::GetFillCashURL, COMDAT
; _this$ = ecx

; 143  : 	virtual void GetFillCashURL( OUT ioHashString &rsFullURL , IN const ioHashString &rsShortURL ){}

  00000	c2 08 00	 ret	 8
?GetFillCashURL@ioLocalParent@@UAEXAAVioHashString@@ABV2@@Z ENDP ; ioLocalParent::GetFillCashURL
; Function compile flags: /Ogsp
_TEXT	ENDS
;	COMDAT ?GetHighSpecWidth@ioLocalParent@@UAEHXZ
_TEXT	SEGMENT
?GetHighSpecWidth@ioLocalParent@@UAEHXZ PROC		; ioLocalParent::GetHighSpecWidth, COMDAT
; _this$ = ecx

; 149  : 	virtual int GetHighSpecWidth() { return 1024; }

  00000	b8 00 04 00 00	 mov	 eax, 1024		; 00000400H
  00005	c3		 ret	 0
?GetHighSpecWidth@ioLocalParent@@UAEHXZ ENDP		; ioLocalParent::GetHighSpecWidth
; Function compile flags: /Ogsp
_TEXT	ENDS
;	COMDAT ?GetHighSpecHeight@ioLocalParent@@UAEHXZ
_TEXT	SEGMENT
?GetHighSpecHeight@ioLocalParent@@UAEHXZ PROC		; ioLocalParent::GetHighSpecHeight, COMDAT
; _this$ = ecx

; 150  : 	virtual int GetHighSpecHeight() { return 768; }

  00000	b8 00 03 00 00	 mov	 eax, 768		; 00000300H
  00005	c3		 ret	 0
?GetHighSpecHeight@ioLocalParent@@UAEHXZ ENDP		; ioLocalParent::GetHighSpecHeight
; Function compile flags: /Ogsp
_TEXT	ENDS
;	COMDAT ?SetGoldChargeBtn@ioLocalParent@@UAEX_N@Z
_TEXT	SEGMENT
_bBtnOn$ = 8						; size = 1
?SetGoldChargeBtn@ioLocalParent@@UAEX_N@Z PROC		; ioLocalParent::SetGoldChargeBtn, COMDAT
; _this$ = ecx

; 156  : 	virtual void SetGoldChargeBtn( bool bBtnOn ){ m_bGoldChargeBtn = bBtnOn; }

  00000	55		 push	 ebp
  00001	8b ec		 mov	 ebp, esp
  00003	8a 45 08	 mov	 al, BYTE PTR _bBtnOn$[ebp]
  00006	88 41 58	 mov	 BYTE PTR [ecx+88], al
  00009	5d		 pop	 ebp
  0000a	c2 04 00	 ret	 4
?SetGoldChargeBtn@ioLocalParent@@UAEX_N@Z ENDP		; ioLocalParent::SetGoldChargeBtn
; Function compile flags: /Ogsp
_TEXT	ENDS
;	COMDAT ?GetGoldChargeBtn@ioLocalParent@@UAE_NXZ
_TEXT	SEGMENT
?GetGoldChargeBtn@ioLocalParent@@UAE_NXZ PROC		; ioLocalParent::GetGoldChargeBtn, COMDAT
; _this$ = ecx

; 157  : 	virtual bool GetGoldChargeBtn(){ return m_bGoldChargeBtn; }

  00000	8a 41 58	 mov	 al, BYTE PTR [ecx+88]
  00003	c3		 ret	 0
?GetGoldChargeBtn@ioLocalParent@@UAE_NXZ ENDP		; ioLocalParent::GetGoldChargeBtn
; Function compile flags: /Ogsp
_TEXT	ENDS
;	COMDAT ?SetCashReqTime@ioLocalParent@@UAEXK@Z
_TEXT	SEGMENT
_dwTime$ = 8						; size = 4
?SetCashReqTime@ioLocalParent@@UAEXK@Z PROC		; ioLocalParent::SetCashReqTime, COMDAT
; _this$ = ecx

; 163  : 	virtual void SetCashReqTime( DWORD dwTime ){ m_dwCashReqTime = dwTime; }

  00000	55		 push	 ebp
  00001	8b ec		 mov	 ebp, esp
  00003	8b 45 08	 mov	 eax, DWORD PTR _dwTime$[ebp]
  00006	89 41 5c	 mov	 DWORD PTR [ecx+92], eax
  00009	5d		 pop	 ebp
  0000a	c2 04 00	 ret	 4
?SetCashReqTime@ioLocalParent@@UAEXK@Z ENDP		; ioLocalParent::SetCashReqTime
; Function compile flags: /Ogsp
_TEXT	ENDS
;	COMDAT ?GetCashReqTime@ioLocalParent@@UAEKXZ
_TEXT	SEGMENT
?GetCashReqTime@ioLocalParent@@UAEKXZ PROC		; ioLocalParent::GetCashReqTime, COMDAT
; _this$ = ecx

; 164  : 	virtual DWORD GetCashReqTime(){ return m_dwCashReqTime; }

  00000	8b 41 5c	 mov	 eax, DWORD PTR [ecx+92]
  00003	c3		 ret	 0
?GetCashReqTime@ioLocalParent@@UAEKXZ ENDP		; ioLocalParent::GetCashReqTime
_TEXT	ENDS
EXTRN	__imp_??0ioHashString@@QAE@ABV0@@Z:PROC
; Function compile flags: /Ogsp
;	COMDAT ?GetWebShopUrl@ioLocalParent@@UAE?AVioHashString@@XZ
_TEXT	SEGMENT
$T506487 = -4						; size = 4
___$ReturnUdt$ = 8					; size = 4
?GetWebShopUrl@ioLocalParent@@UAE?AVioHashString@@XZ PROC ; ioLocalParent::GetWebShopUrl, COMDAT
; _this$ = ecx

; 166  : 	virtual ioHashString GetWebShopUrl(){ return m_sWeb_shop_url; }

  00000	55		 push	 ebp
  00001	8b ec		 mov	 ebp, esp
  00003	51		 push	 ecx
  00004	83 65 fc 00	 and	 DWORD PTR $T506487[ebp], 0
  00008	83 c1 60	 add	 ecx, 96			; 00000060H
  0000b	51		 push	 ecx
  0000c	8b 4d 08	 mov	 ecx, DWORD PTR ___$ReturnUdt$[ebp]
  0000f	ff 15 00 00 00
	00		 call	 DWORD PTR __imp_??0ioHashString@@QAE@ABV0@@Z
  00015	8b 45 08	 mov	 eax, DWORD PTR ___$ReturnUdt$[ebp]
  00018	c9		 leave
  00019	c2 04 00	 ret	 4
?GetWebShopUrl@ioLocalParent@@UAE?AVioHashString@@XZ ENDP ; ioLocalParent::GetWebShopUrl
; Function compile flags: /Ogsp
_TEXT	ENDS
;	COMDAT ?OpenWebPage@ioLocalParent@@UAEXH@Z
_TEXT	SEGMENT
_iType$ = 8						; size = 4
?OpenWebPage@ioLocalParent@@UAEXH@Z PROC		; ioLocalParent::OpenWebPage, COMDAT
; _this$ = ecx

; 169  : 	virtual void OpenWebPage( int iType ) {};

  00000	c2 04 00	 ret	 4
?OpenWebPage@ioLocalParent@@UAEXH@Z ENDP		; ioLocalParent::OpenWebPage
_TEXT	ENDS
PUBLIC	?FullScreen@Setting@@SA_NXZ			; Setting::FullScreen
EXTRN	?m_Option@Setting@@1USettingOption@@A:BYTE	; Setting::m_Option
; Function compile flags: /Ogsp
; File d:\lost saga for developer\youtube\tutorial\source\src\lsclient\setting.h
;	COMDAT ?FullScreen@Setting@@SA_NXZ
_TEXT	SEGMENT
?FullScreen@Setting@@SA_NXZ PROC			; Setting::FullScreen, COMDAT

; 408  : 	static bool FullScreen() { return m_Option.m_bFullScreen; }

  00000	a0 00 00 00 00	 mov	 al, BYTE PTR ?m_Option@Setting@@1USettingOption@@A
  00005	c3		 ret	 0
?FullScreen@Setting@@SA_NXZ ENDP			; Setting::FullScreen
_TEXT	ENDS
PUBLIC	?GetHWnd@ioApplication@@QBEPAUHWND__@@XZ	; ioApplication::GetHWnd
; Function compile flags: /Ogsp
; File d:\lost saga for developer\youtube\tutorial\source\src\lsclient\ioapplication.h
;	COMDAT ?GetHWnd@ioApplication@@QBEPAUHWND__@@XZ
_TEXT	SEGMENT
?GetHWnd@ioApplication@@QBEPAUHWND__@@XZ PROC		; ioApplication::GetHWnd, COMDAT
; _this$ = ecx

; 686  : 	HWND GetHWnd() const { return m_hWnd; }

  00000	8b 41 08	 mov	 eax, DWORD PTR [ecx+8]
  00003	c3		 ret	 0
?GetHWnd@ioApplication@@QBEPAUHWND__@@XZ ENDP		; ioApplication::GetHWnd
_TEXT	ENDS
EXTRN	??3@YAXPAX@Z:PROC				; operator delete
; Function compile flags: /Ogsp
;	COMDAT ??_GioLocalEU@@UAEPAXI@Z
_TEXT	SEGMENT
___flags$ = 8						; size = 4
??_GioLocalEU@@UAEPAXI@Z PROC				; ioLocalEU::`scalar deleting destructor', COMDAT
; _this$ = ecx
  00000	55		 push	 ebp
  00001	8b ec		 mov	 ebp, esp
  00003	56		 push	 esi
  00004	8b f1		 mov	 esi, ecx
  00006	e8 00 00 00 00	 call	 ??1ioLocalEU@@UAE@XZ	; ioLocalEU::~ioLocalEU
  0000b	f6 45 08 01	 test	 BYTE PTR ___flags$[ebp], 1
  0000f	74 07		 je	 SHORT $LN1@scalar
  00011	56		 push	 esi
  00012	e8 00 00 00 00	 call	 ??3@YAXPAX@Z		; operator delete
  00017	59		 pop	 ecx
$LN1@scalar:
  00018	8b c6		 mov	 eax, esi
  0001a	5e		 pop	 esi
  0001b	5d		 pop	 ebp
  0001c	c2 04 00	 ret	 4
??_GioLocalEU@@UAEPAXI@Z ENDP				; ioLocalEU::`scalar deleting destructor'
_TEXT	ENDS
EXTRN	?ExcuteWeb@Help@@YAXPBD@Z:PROC			; Help::ExcuteWeb
EXTRN	__imp_?c_str@ioHashString@@QBEPBDXZ:PROC
EXTRN	__imp__ShowWindow@8:PROC
EXTRN	?GetSingleton@ioApplication@@SAAAV1@XZ:PROC	; ioApplication::GetSingleton
EXTRN	__imp_?IsEmpty@ioHashString@@QBE_NXZ:PROC
EXTRN	?GetSingleton@ioBrowserManager@@SAAAV1@XZ:PROC	; ioBrowserManager::GetSingleton
; Function compile flags: /Ogsp
; File d:\lost saga for developer\youtube\tutorial\source\src\lsclient\local\iolocaleu.cpp
;	COMDAT ?OpenFillCashPage@ioLocalEU@@UAEXXZ
_TEXT	SEGMENT
?OpenFillCashPage@ioLocalEU@@UAEXXZ PROC		; ioLocalEU::OpenFillCashPage, COMDAT
; _this$ = ecx

; 140  : 	if( g_BrowserMgr.GetCashURL().IsEmpty() )

  00000	e8 00 00 00 00	 call	 ?GetSingleton@ioBrowserManager@@SAAAV1@XZ ; ioBrowserManager::GetSingleton
  00005	8d 88 8c 00 00
	00		 lea	 ecx, DWORD PTR [eax+140]
  0000b	ff 15 00 00 00
	00		 call	 DWORD PTR __imp_?IsEmpty@ioHashString@@QBE_NXZ
  00011	84 c0		 test	 al, al
  00013	75 30		 jne	 SHORT $LN3@OpenFillCa

; 141  : 		return;
; 142  : 
; 143  : 	if( Setting::FullScreen() )

  00015	38 05 00 00 00
	00		 cmp	 BYTE PTR ?m_Option@Setting@@1USettingOption@@A, al
  0001b	74 10		 je	 SHORT $LN1@OpenFillCa

; 144  : 		ShowWindow( g_App.GetHWnd(), SW_MINIMIZE );

  0001d	e8 00 00 00 00	 call	 ?GetSingleton@ioApplication@@SAAAV1@XZ ; ioApplication::GetSingleton
  00022	6a 06		 push	 6
  00024	ff 70 08	 push	 DWORD PTR [eax+8]
  00027	ff 15 00 00 00
	00		 call	 DWORD PTR __imp__ShowWindow@8
$LN1@OpenFillCa:

; 145  : 
; 146  : 	Help::ExcuteWeb( g_BrowserMgr.GetCashURL().c_str() );

  0002d	e8 00 00 00 00	 call	 ?GetSingleton@ioBrowserManager@@SAAAV1@XZ ; ioBrowserManager::GetSingleton
  00032	8d 88 8c 00 00
	00		 lea	 ecx, DWORD PTR [eax+140]
  00038	ff 15 00 00 00
	00		 call	 DWORD PTR __imp_?c_str@ioHashString@@QBEPBDXZ
  0003e	50		 push	 eax
  0003f	e8 00 00 00 00	 call	 ?ExcuteWeb@Help@@YAXPBD@Z ; Help::ExcuteWeb
  00044	59		 pop	 ecx
$LN3@OpenFillCa:

; 147  : }

  00045	c3		 ret	 0
?OpenFillCashPage@ioLocalEU@@UAEXXZ ENDP		; ioLocalEU::OpenFillCashPage
_TEXT	ENDS
PUBLIC	?StringCbCopyA@@YGJPADIPBD@Z			; StringCbCopyA
; Function compile flags: /Ogsp
; File c:\program files (x86)\microsoft sdks\windows\v7.0a\include\strsafe.h
;	COMDAT ?StringCbCopyA@@YGJPADIPBD@Z
_TEXT	SEGMENT
_pszDest$ = 8						; size = 4
_cbDest$ = 12						; size = 4
_pszSrc$ = 16						; size = 4
?StringCbCopyA@@YGJPADIPBD@Z PROC			; StringCbCopyA, COMDAT

; 582  : {

  00000	55		 push	 ebp
  00001	8b ec		 mov	 ebp, esp

; 583  :     HRESULT hr;
; 584  :     size_t cchDest = cbDest / sizeof(char);
; 585  : 
; 586  :     hr = StringValidateDestA(pszDest, cchDest, STRSAFE_MAX_CCH);

  00003	8b 4d 0c	 mov	 ecx, DWORD PTR _cbDest$[ebp]
  00006	33 c0		 xor	 eax, eax
  00008	85 c9		 test	 ecx, ecx
  0000a	74 08		 je	 SHORT $LN4@StringCbCo
  0000c	81 f9 ff ff ff
	7f		 cmp	 ecx, 2147483647		; 7fffffffH
  00012	76 05		 jbe	 SHORT $LN5@StringCbCo
$LN4@StringCbCo:
  00014	b8 57 00 07 80	 mov	 eax, -2147024809	; 80070057H
$LN5@StringCbCo:

; 587  : 
; 588  :     if (SUCCEEDED(hr))

  00019	85 c0		 test	 eax, eax
  0001b	78 40		 js	 SHORT $LN1@StringCbCo

; 589  :     {
; 590  :         hr = StringCopyWorkerA(pszDest,
; 591  :                                cchDest,
; 592  :                                NULL,
; 593  :                                pszSrc,
; 594  :                                STRSAFE_MAX_LENGTH);

  0001d	8b 45 08	 mov	 eax, DWORD PTR _pszDest$[ebp]
  00020	53		 push	 ebx
  00021	33 db		 xor	 ebx, ebx
  00023	56		 push	 esi
  00024	8b f1		 mov	 esi, ecx
  00026	85 c9		 test	 ecx, ecx
  00028	74 26		 je	 SHORT $LN16@StringCbCo
  0002a	8b 55 10	 mov	 edx, DWORD PTR _pszSrc$[ebp]
  0002d	57		 push	 edi
  0002e	bf fe ff ff 7f	 mov	 edi, 2147483646		; 7ffffffeH
  00033	2b f9		 sub	 edi, ecx
  00035	2b d0		 sub	 edx, eax
$LL11@StringCbCo:
  00037	8d 0c 37	 lea	 ecx, DWORD PTR [edi+esi]
  0003a	85 c9		 test	 ecx, ecx
  0003c	74 0d		 je	 SHORT $LN10@StringCbCo
  0003e	8a 0c 02	 mov	 cl, BYTE PTR [edx+eax]
  00041	84 c9		 test	 cl, cl
  00043	74 06		 je	 SHORT $LN10@StringCbCo
  00045	88 08		 mov	 BYTE PTR [eax], cl
  00047	40		 inc	 eax
  00048	4e		 dec	 esi
  00049	75 ec		 jne	 SHORT $LL11@StringCbCo
$LN10@StringCbCo:
  0004b	5f		 pop	 edi
  0004c	85 f6		 test	 esi, esi
  0004e	75 06		 jne	 SHORT $LN9@StringCbCo
$LN16@StringCbCo:
  00050	48		 dec	 eax
  00051	bb 7a 00 07 80	 mov	 ebx, -2147024774	; 8007007aH
$LN9@StringCbCo:
  00056	c6 00 00	 mov	 BYTE PTR [eax], 0
  00059	5e		 pop	 esi
  0005a	8b c3		 mov	 eax, ebx
  0005c	5b		 pop	 ebx
$LN1@StringCbCo:

; 595  :     }
; 596  : 
; 597  :     return hr;
; 598  : }

  0005d	5d		 pop	 ebp
  0005e	c2 0c 00	 ret	 12			; 0000000cH
?StringCbCopyA@@YGJPADIPBD@Z ENDP			; StringCbCopyA
_TEXT	ENDS
EXTRN	?GetSingleton@ioLocalManager@@SAAAV1@XZ:PROC	; ioLocalManager::GetSingleton
; Function compile flags: /Ogsp
; File d:\lost saga for developer\youtube\tutorial\source\src\lsclient\local\iolocaleu.cpp
;	COMDAT ?SetLoginData@ioLocalEU@@UAEXABVioHashString@@@Z
_TEXT	SEGMENT
_szBillingUserKey$ = 8					; size = 4
?SetLoginData@ioLocalEU@@UAEXABVioHashString@@@Z PROC	; ioLocalEU::SetLoginData, COMDAT
; _this$ = ecx

; 107  : {

  00000	55		 push	 ebp
  00001	8b ec		 mov	 ebp, esp
  00003	56		 push	 esi

; 108  : 	m_sLoginEncodePW = szBillingUserKey;

  00004	ff 75 08	 push	 DWORD PTR _szBillingUserKey$[ebp]
  00007	8d 71 70	 lea	 esi, DWORD PTR [ecx+112]
  0000a	8b ce		 mov	 ecx, esi
  0000c	ff 15 00 00 00
	00		 call	 DWORD PTR __imp_??4ioHashString@@QAEAAV0@ABV0@@Z

; 109  : 	StringCbCopy(g_LocalMgr.m_szNexonPassport, sizeof(g_LocalMgr.m_szNexonPassport), m_sLoginEncodePW.c_str());

  00012	8b ce		 mov	 ecx, esi
  00014	ff 15 00 00 00
	00		 call	 DWORD PTR __imp_?c_str@ioHashString@@QBEPBDXZ
  0001a	50		 push	 eax
  0001b	68 00 04 00 00	 push	 1024			; 00000400H
  00020	e8 00 00 00 00	 call	 ?GetSingleton@ioLocalManager@@SAAAV1@XZ ; ioLocalManager::GetSingleton
  00025	83 c0 14	 add	 eax, 20			; 00000014H
  00028	50		 push	 eax
  00029	e8 00 00 00 00	 call	 ?StringCbCopyA@@YGJPADIPBD@Z ; StringCbCopyA
  0002e	5e		 pop	 esi

; 110  : }

  0002f	5d		 pop	 ebp
  00030	c2 04 00	 ret	 4
?SetLoginData@ioLocalEU@@UAEXABVioHashString@@@Z ENDP	; ioLocalEU::SetLoginData
_TEXT	ENDS
END
