; Listing generated by Microsoft (R) Optimizing Compiler Version 16.00.30319.01 

	TITLE	D:\Lost Saga For Developer\Youtube\Tutorial\Source\src\LSClient\ioLobeliaWeapon.cpp
	.686P
	.XMM
	include listing.inc
	.model	flat

INCLUDELIB MSVCRT
INCLUDELIB OLDNAMES

PUBLIC	?_EEM_DS@?$deque@UD3DXVECTOR3@@V?$allocator@UD3DXVECTOR3@@@std@@@std@@2HB ; std::deque<D3DXVECTOR3,std::allocator<D3DXVECTOR3> >::_EEM_DS
PUBLIC	?m_ActionStopType@ioLobeliaWeapon@@2W4ActionStopType@@A ; ioLobeliaWeapon::m_ActionStopType
PUBLIC	?m_DieActionStopType@ioLobeliaWeapon@@2W4ActionStopType@@A ; ioLobeliaWeapon::m_DieActionStopType
_BSS	SEGMENT
?m_ActionStopType@ioLobeliaWeapon@@2W4ActionStopType@@A DD 01H DUP (?) ; ioLobeliaWeapon::m_ActionStopType
?m_DieActionStopType@ioLobeliaWeapon@@2W4ActionStopType@@A DD 01H DUP (?) ; ioLobeliaWeapon::m_DieActionStopType
_BSS	ENDS
;	COMDAT ?_EEM_DS@?$deque@UD3DXVECTOR3@@V?$allocator@UD3DXVECTOR3@@@std@@@std@@2HB
CONST	SEGMENT
?_EEM_DS@?$deque@UD3DXVECTOR3@@V?$allocator@UD3DXVECTOR3@@@std@@@std@@2HB DD 01H ; std::deque<D3DXVECTOR3,std::allocator<D3DXVECTOR3> >::_EEM_DS
CONST	ENDS
PUBLIC	?return1@@YAIXZ					; return1
; Function compile flags: /Ogsp
; File d:\lost saga for developer\youtube\tutorial\source\src\lsclient\stdafx.h
;	COMDAT ?return1@@YAIXZ
_TEXT	SEGMENT
?return1@@YAIXZ PROC					; return1, COMDAT

; 17   : 	__forceinline unsigned int return1() { __asm mov eax, 1 };

  00000	b8 01 00 00 00	 mov	 eax, 1
  00005	c3		 ret	 0
?return1@@YAIXZ ENDP					; return1
_TEXT	ENDS
PUBLIC	?return5@@YAIXZ					; return5
; Function compile flags: /Ogsp
;	COMDAT ?return5@@YAIXZ
_TEXT	SEGMENT
?return5@@YAIXZ PROC					; return5, COMDAT

; 18   : 	__forceinline unsigned int return5() { __asm mov eax, 5 };

  00000	b8 05 00 00 00	 mov	 eax, 5
  00005	c3		 ret	 0
?return5@@YAIXZ ENDP					; return5
_TEXT	ENDS
PUBLIC	?return10@@YAIXZ				; return10
; Function compile flags: /Ogsp
;	COMDAT ?return10@@YAIXZ
_TEXT	SEGMENT
?return10@@YAIXZ PROC					; return10, COMDAT

; 21   : 	__forceinline unsigned int return10() { __asm mov eax, 10 };

  00000	b8 0a 00 00 00	 mov	 eax, 10			; 0000000aH
  00005	c3		 ret	 0
?return10@@YAIXZ ENDP					; return10
_TEXT	ENDS
PUBLIC	?return1000@@YAIXZ				; return1000
; Function compile flags: /Ogsp
;	COMDAT ?return1000@@YAIXZ
_TEXT	SEGMENT
?return1000@@YAIXZ PROC					; return1000, COMDAT

; 29   : 	__forceinline unsigned int return1000() { __asm mov eax, 1000 };

  00000	b8 e8 03 00 00	 mov	 eax, 1000		; 000003e8H
  00005	c3		 ret	 0
?return1000@@YAIXZ ENDP					; return1000
_TEXT	ENDS
PUBLIC	?GetState@ioBaseChar@@QBE?AW4CharState@@XZ	; ioBaseChar::GetState
; Function compile flags: /Ogsp
; File d:\lost saga for developer\youtube\tutorial\source\src\lsclient\iobasechar.h
;	COMDAT ?GetState@ioBaseChar@@QBE?AW4CharState@@XZ
_TEXT	SEGMENT
?GetState@ioBaseChar@@QBE?AW4CharState@@XZ PROC		; ioBaseChar::GetState, COMDAT
; _this$ = ecx

; 2156 : 	inline CharState GetState() const { return m_CharState; }	

  00000	8a 81 10 03 00
	00		 mov	 al, BYTE PTR [ecx+784]
  00006	c3		 ret	 0
?GetState@ioBaseChar@@QBE?AW4CharState@@XZ ENDP		; ioBaseChar::GetState
_TEXT	ENDS
PUBLIC	?GetCharName@ioBaseChar@@QBEABVioHashString@@XZ	; ioBaseChar::GetCharName
; Function compile flags: /Ogsp
;	COMDAT ?GetCharName@ioBaseChar@@QBEABVioHashString@@XZ
_TEXT	SEGMENT
?GetCharName@ioBaseChar@@QBEABVioHashString@@XZ PROC	; ioBaseChar::GetCharName, COMDAT
; _this$ = ecx

; 2594 : 	inline const ioHashString& GetCharName() const { return m_Name; }

  00000	8d 81 d4 02 00
	00		 lea	 eax, DWORD PTR [ecx+724]
  00006	c3		 ret	 0
?GetCharName@ioBaseChar@@QBEABVioHashString@@XZ ENDP	; ioBaseChar::GetCharName
_TEXT	ENDS
PUBLIC	_cosf
EXTRN	__fltused:DWORD
EXTRN	__CIcos:PROC
; Function compile flags: /Ogsp
; File c:\program files (x86)\microsoft visual studio 10.0\vc\include\math.h
;	COMDAT _cosf
_TEXT	SEGMENT
tv69 = 8						; size = 4
__X$ = 8						; size = 4
_cosf	PROC						; COMDAT

; 410  :         {return ((float)cos((double)_X)); }

  00000	55		 push	 ebp
  00001	8b ec		 mov	 ebp, esp
  00003	d9 45 08	 fld	 DWORD PTR __X$[ebp]
  00006	e8 00 00 00 00	 call	 __CIcos
  0000b	d9 5d 08	 fstp	 DWORD PTR tv69[ebp]
  0000e	d9 45 08	 fld	 DWORD PTR tv69[ebp]
  00011	5d		 pop	 ebp
  00012	c3		 ret	 0
_cosf	ENDP
_TEXT	ENDS
PUBLIC	_sqrtf
EXTRN	__CIsqrt:PROC
; Function compile flags: /Ogsp
;	COMDAT _sqrtf
_TEXT	SEGMENT
tv69 = 8						; size = 4
__X$ = 8						; size = 4
_sqrtf	PROC						; COMDAT

; 434  :         {return ((float)sqrt((double)_X)); }

  00000	55		 push	 ebp
  00001	8b ec		 mov	 ebp, esp
  00003	d9 45 08	 fld	 DWORD PTR __X$[ebp]
  00006	e8 00 00 00 00	 call	 __CIsqrt
  0000b	d9 5d 08	 fstp	 DWORD PTR tv69[ebp]
  0000e	d9 45 08	 fld	 DWORD PTR tv69[ebp]
  00011	5d		 pop	 ebp
  00012	c3		 ret	 0
_sqrtf	ENDP
_TEXT	ENDS
PUBLIC	??_7bad_alloc@std@@6B@				; std::bad_alloc::`vftable'
PUBLIC	??0bad_alloc@std@@QAE@PBD@Z			; std::bad_alloc::bad_alloc
PUBLIC	??_R4bad_alloc@std@@6B@				; std::bad_alloc::`RTTI Complete Object Locator'
PUBLIC	??_R0?AVbad_alloc@std@@@8			; std::bad_alloc `RTTI Type Descriptor'
PUBLIC	??_R3bad_alloc@std@@8				; std::bad_alloc::`RTTI Class Hierarchy Descriptor'
PUBLIC	??_R2bad_alloc@std@@8				; std::bad_alloc::`RTTI Base Class Array'
PUBLIC	??_R1A@?0A@EA@bad_alloc@std@@8			; std::bad_alloc::`RTTI Base Class Descriptor at (0,-1,0,64)'
PUBLIC	??_R1A@?0A@EA@exception@std@@8			; std::exception::`RTTI Base Class Descriptor at (0,-1,0,64)'
PUBLIC	??_R0?AVexception@std@@@8			; std::exception `RTTI Type Descriptor'
PUBLIC	??_R3exception@std@@8				; std::exception::`RTTI Class Hierarchy Descriptor'
PUBLIC	??_R2exception@std@@8				; std::exception::`RTTI Base Class Array'
EXTRN	__imp_??0exception@std@@QAE@ABQBD@Z:PROC
EXTRN	??_7type_info@@6B@:QWORD			; type_info::`vftable'
EXTRN	??_Ebad_alloc@std@@UAEPAXI@Z:PROC		; std::bad_alloc::`vector deleting destructor'
EXTRN	?what@exception@std@@UBEPBDXZ:PROC		; std::exception::what
;	COMDAT ??_R2exception@std@@8
; File c:\program files (x86)\microsoft visual studio 10.0\vc\include\exception
rdata$r	SEGMENT
??_R2exception@std@@8 DD FLAT:??_R1A@?0A@EA@exception@std@@8 ; std::exception::`RTTI Base Class Array'
rdata$r	ENDS
;	COMDAT ??_R3exception@std@@8
rdata$r	SEGMENT
??_R3exception@std@@8 DD 00H				; std::exception::`RTTI Class Hierarchy Descriptor'
	DD	00H
	DD	01H
	DD	FLAT:??_R2exception@std@@8
rdata$r	ENDS
;	COMDAT ??_R0?AVexception@std@@@8
_DATA	SEGMENT
??_R0?AVexception@std@@@8 DD FLAT:??_7type_info@@6B@	; std::exception `RTTI Type Descriptor'
	DD	00H
	DB	'.?AVexception@std@@', 00H
_DATA	ENDS
;	COMDAT ??_R1A@?0A@EA@exception@std@@8
rdata$r	SEGMENT
??_R1A@?0A@EA@exception@std@@8 DD FLAT:??_R0?AVexception@std@@@8 ; std::exception::`RTTI Base Class Descriptor at (0,-1,0,64)'
	DD	00H
	DD	00H
	DD	0ffffffffH
	DD	00H
	DD	040H
	DD	FLAT:??_R3exception@std@@8
rdata$r	ENDS
;	COMDAT ??_R1A@?0A@EA@bad_alloc@std@@8
rdata$r	SEGMENT
??_R1A@?0A@EA@bad_alloc@std@@8 DD FLAT:??_R0?AVbad_alloc@std@@@8 ; std::bad_alloc::`RTTI Base Class Descriptor at (0,-1,0,64)'
	DD	01H
	DD	00H
	DD	0ffffffffH
	DD	00H
	DD	040H
	DD	FLAT:??_R3bad_alloc@std@@8
rdata$r	ENDS
;	COMDAT ??_R2bad_alloc@std@@8
rdata$r	SEGMENT
??_R2bad_alloc@std@@8 DD FLAT:??_R1A@?0A@EA@bad_alloc@std@@8 ; std::bad_alloc::`RTTI Base Class Array'
	DD	FLAT:??_R1A@?0A@EA@exception@std@@8
rdata$r	ENDS
;	COMDAT ??_R3bad_alloc@std@@8
rdata$r	SEGMENT
??_R3bad_alloc@std@@8 DD 00H				; std::bad_alloc::`RTTI Class Hierarchy Descriptor'
	DD	00H
	DD	02H
	DD	FLAT:??_R2bad_alloc@std@@8
rdata$r	ENDS
;	COMDAT ??_R0?AVbad_alloc@std@@@8
_DATA	SEGMENT
??_R0?AVbad_alloc@std@@@8 DD FLAT:??_7type_info@@6B@	; std::bad_alloc `RTTI Type Descriptor'
	DD	00H
	DB	'.?AVbad_alloc@std@@', 00H
_DATA	ENDS
;	COMDAT ??_R4bad_alloc@std@@6B@
rdata$r	SEGMENT
??_R4bad_alloc@std@@6B@ DD 00H				; std::bad_alloc::`RTTI Complete Object Locator'
	DD	00H
	DD	00H
	DD	FLAT:??_R0?AVbad_alloc@std@@@8
	DD	FLAT:??_R3bad_alloc@std@@8
rdata$r	ENDS
;	COMDAT ??_7bad_alloc@std@@6B@
CONST	SEGMENT
??_7bad_alloc@std@@6B@ DD FLAT:??_R4bad_alloc@std@@6B@	; std::bad_alloc::`vftable'
	DD	FLAT:??_Ebad_alloc@std@@UAEPAXI@Z
	DD	FLAT:?what@exception@std@@UBEPBDXZ
; Function compile flags: /Ogsp
CONST	ENDS
;	COMDAT ??0bad_alloc@std@@QAE@PBD@Z
_TEXT	SEGMENT
__Message$ = 8						; size = 4
??0bad_alloc@std@@QAE@PBD@Z PROC			; std::bad_alloc::bad_alloc, COMDAT
; _this$ = ecx

; 345  : 		{	// construct from message string

  00000	55		 push	 ebp
  00001	8b ec		 mov	 ebp, esp
  00003	56		 push	 esi
  00004	8d 45 08	 lea	 eax, DWORD PTR __Message$[ebp]
  00007	50		 push	 eax
  00008	8b f1		 mov	 esi, ecx
  0000a	ff 15 00 00 00
	00		 call	 DWORD PTR __imp_??0exception@std@@QAE@ABQBD@Z
  00010	c7 06 00 00 00
	00		 mov	 DWORD PTR [esi], OFFSET ??_7bad_alloc@std@@6B@

; 346  : 		}

  00016	8b c6		 mov	 eax, esi
  00018	5e		 pop	 esi
  00019	5d		 pop	 ebp
  0001a	c2 04 00	 ret	 4
??0bad_alloc@std@@QAE@PBD@Z ENDP			; std::bad_alloc::bad_alloc
_TEXT	ENDS
PUBLIC	??1bad_alloc@std@@UAE@XZ			; std::bad_alloc::~bad_alloc
EXTRN	__imp_??1exception@std@@UAE@XZ:PROC
; Function compile flags: /Ogsp
;	COMDAT ??1bad_alloc@std@@UAE@XZ
_TEXT	SEGMENT
??1bad_alloc@std@@UAE@XZ PROC				; std::bad_alloc::~bad_alloc, COMDAT
; _this$ = ecx

; 354  : 		{	// destroy the object

  00000	c7 01 00 00 00
	00		 mov	 DWORD PTR [ecx], OFFSET ??_7bad_alloc@std@@6B@

; 355  : 		}

  00006	ff 25 00 00 00
	00		 jmp	 DWORD PTR __imp_??1exception@std@@UAE@XZ
??1bad_alloc@std@@UAE@XZ ENDP				; std::bad_alloc::~bad_alloc
_TEXT	ENDS
EXTRN	??3@YAXPAX@Z:PROC				; operator delete
; Function compile flags: /Ogsp
;	COMDAT ??_Gbad_alloc@std@@UAEPAXI@Z
_TEXT	SEGMENT
___flags$ = 8						; size = 4
??_Gbad_alloc@std@@UAEPAXI@Z PROC			; std::bad_alloc::`scalar deleting destructor', COMDAT
; _this$ = ecx
  00000	55		 push	 ebp
  00001	8b ec		 mov	 ebp, esp
  00003	56		 push	 esi
  00004	8b f1		 mov	 esi, ecx
  00006	c7 06 00 00 00
	00		 mov	 DWORD PTR [esi], OFFSET ??_7bad_alloc@std@@6B@
  0000c	ff 15 00 00 00
	00		 call	 DWORD PTR __imp_??1exception@std@@UAE@XZ
  00012	f6 45 08 01	 test	 BYTE PTR ___flags$[ebp], 1
  00016	74 07		 je	 SHORT $LN1@scalar
  00018	56		 push	 esi
  00019	e8 00 00 00 00	 call	 ??3@YAXPAX@Z		; operator delete
  0001e	59		 pop	 ecx
$LN1@scalar:
  0001f	8b c6		 mov	 eax, esi
  00021	5e		 pop	 esi
  00022	5d		 pop	 ebp
  00023	c2 04 00	 ret	 4
??_Gbad_alloc@std@@UAEPAXI@Z ENDP			; std::bad_alloc::`scalar deleting destructor'
_TEXT	ENDS
PUBLIC	??2@YAPAXIPAX@Z					; operator new
; Function compile flags: /Ogsp
; File c:\program files (x86)\microsoft visual studio 10.0\vc\include\new
;	COMDAT ??2@YAPAXIPAX@Z
_TEXT	SEGMENT
___formal$ = 8						; size = 4
__Where$ = 12						; size = 4
??2@YAPAXIPAX@Z PROC					; operator new, COMDAT

; 56   : 	{	// construct array with placement at _Where

  00000	55		 push	 ebp
  00001	8b ec		 mov	 ebp, esp

; 57   : 	return (_Where);

  00003	8b 45 0c	 mov	 eax, DWORD PTR __Where$[ebp]

; 58   : 	}

  00006	5d		 pop	 ebp
  00007	c3		 ret	 0
??2@YAPAXIPAX@Z ENDP					; operator new
_TEXT	ENDS
PUBLIC	??3@YAXPAX0@Z					; operator delete
; Function compile flags: /Ogsp
;	COMDAT ??3@YAXPAX0@Z
_TEXT	SEGMENT
___formal$ = 8						; size = 4
___formal$ = 12						; size = 4
??3@YAXPAX0@Z PROC					; operator delete, COMDAT

; 62   : 	}

  00000	c3		 ret	 0
??3@YAXPAX0@Z ENDP					; operator delete
_TEXT	ENDS
PUBLIC	__real@4f800000
PUBLIC	?OnExplosionState@ioLobeliaWeapon@@IAEXMPAVioPlayStage@@@Z ; ioLobeliaWeapon::OnExplosionState
EXTRN	?GetMapHeight@ioPlayStage@@QAEMMMPBVioGameEntity@@_NM1@Z:PROC ; ioPlayStage::GetMapHeight
EXTRN	?SetWorldPosition@ioMapEffect@@QAEXABUD3DXVECTOR3@@@Z:PROC ; ioMapEffect::SetWorldPosition
EXTRN	?FindMapEffect@ioPlayStage@@QAEPAVioMapEffect@@K@Z:PROC ; ioPlayStage::FindMapEffect
EXTRN	__imp_?GetLoopSec@ioFrameTimer@@QBEKXZ:PROC
EXTRN	__imp_?GetSingleton@ioFrameTimer@@SAAAV1@XZ:PROC
;	COMDAT __real@4f800000
; File d:\lost saga for developer\youtube\tutorial\source\src\lsclient\stdafx.h
CONST	SEGMENT
__real@4f800000 DD 04f800000r			; 4.29497e+009
; Function compile flags: /Ogsp
; File d:\lost saga for developer\youtube\tutorial\source\src\lsclient\iolobeliaweapon.cpp
CONST	ENDS
;	COMDAT ?OnExplosionState@ioLobeliaWeapon@@IAEXMPAVioPlayStage@@@Z
_TEXT	SEGMENT
_vPos$ = -16						; size = 12
tv298 = -4						; size = 4
tv294 = 8						; size = 4
_fTimePerSec$ = 8					; size = 4
tv264 = 12						; size = 4
tv260 = 12						; size = 4
_fMapHeight$ = 12					; size = 4
_pStage$ = 12						; size = 4
?OnExplosionState@ioLobeliaWeapon@@IAEXMPAVioPlayStage@@@Z PROC ; ioLobeliaWeapon::OnExplosionState, COMDAT
; _this$ = ecx

; 326  : {

  00000	55		 push	 ebp
  00001	8b ec		 mov	 ebp, esp
  00003	83 ec 10	 sub	 esp, 16			; 00000010H
  00006	53		 push	 ebx
  00007	8b d9		 mov	 ebx, ecx

; 327  : 	if( m_dwExplosionDuration == 0 )

  00009	83 bb 38 09 00
	00 00		 cmp	 DWORD PTR [ebx+2360], 0

; 328  : 	{
; 329  : 		SetWeaponDead();
; 330  : 		return;

  00010	0f 84 1a 01 00
	00		 je	 $LN16@OnExplosio

; 331  : 	}
; 332  : 
; 333  : 	DWORD dwCurTime = FRAMEGETTIME();

  00016	ff 15 00 00 00
	00		 call	 DWORD PTR __imp_?GetSingleton@ioFrameTimer@@SAAAV1@XZ
  0001c	8b c8		 mov	 ecx, eax
  0001e	ff 15 00 00 00
	00		 call	 DWORD PTR __imp_?GetLoopSec@ioFrameTimer@@QBEKXZ

; 334  : 	if( dwCurTime - m_dwExplosionStart > m_dwExplosionDuration )

  00024	2b 83 34 09 00
	00		 sub	 eax, DWORD PTR [ebx+2356]
  0002a	3b 83 38 09 00
	00		 cmp	 eax, DWORD PTR [ebx+2360]

; 335  : 	{
; 336  : 		SetWeaponDead();
; 337  : 		return;

  00030	0f 87 f8 00 00
	00		 ja	 $LN17@OnExplosio

; 338  : 	}
; 339  : 
; 340  : 	if( m_pFireMesh )

  00036	83 bb 98 08 00
	00 00		 cmp	 DWORD PTR [ebx+2200], 0
  0003d	74 30		 je	 SHORT $LN5@OnExplosio

; 341  : 	{
; 342  : 		m_pFireMesh->Update( fTimePerSec * FLOAT1000 );

  0003f	b8 e8 03 00 00	 mov	 eax, 1000		; 000003e8H
  00044	8b 8b 98 08 00
	00		 mov	 ecx, DWORD PTR [ebx+2200]
  0004a	83 c1 14	 add	 ecx, 20			; 00000014H
  0004d	8b 11		 mov	 edx, DWORD PTR [ecx]
  0004f	89 45 fc	 mov	 DWORD PTR tv298[ebp], eax
  00052	db 45 fc	 fild	 DWORD PTR tv298[ebp]
  00055	85 c0		 test	 eax, eax
  00057	79 06		 jns	 SHORT $LN14@OnExplosio
  00059	d8 05 00 00 00
	00		 fadd	 DWORD PTR __real@4f800000
$LN14@OnExplosio:
  0005f	d8 4d 08	 fmul	 DWORD PTR _fTimePerSec$[ebp]
  00062	51		 push	 ecx
  00063	d9 5d 08	 fstp	 DWORD PTR tv294[ebp]
  00066	d9 45 08	 fld	 DWORD PTR tv294[ebp]
  00069	d9 1c 24	 fstp	 DWORD PTR [esp]
  0006c	ff 52 40	 call	 DWORD PTR [edx+64]
$LN5@OnExplosio:

; 343  : 	}
; 344  : 
; 345  : 	if( m_EffectID != -1 )

  0006f	8b 83 c0 08 00
	00		 mov	 eax, DWORD PTR [ebx+2240]
  00075	56		 push	 esi
  00076	57		 push	 edi
  00077	83 f8 ff	 cmp	 eax, -1
  0007a	74 1e		 je	 SHORT $LN3@OnExplosio

; 346  : 	{
; 347  : 		ioMapEffect *pEffect = pStage->FindMapEffect( m_EffectID );

  0007c	8b 4d 0c	 mov	 ecx, DWORD PTR _pStage$[ebp]
  0007f	50		 push	 eax
  00080	e8 00 00 00 00	 call	 ?FindMapEffect@ioPlayStage@@QAEPAVioMapEffect@@K@Z ; ioPlayStage::FindMapEffect
  00085	8b f0		 mov	 esi, eax

; 348  : 		if( pEffect )

  00087	85 f6		 test	 esi, esi
  00089	74 0f		 je	 SHORT $LN3@OnExplosio

; 349  : 		{
; 350  : 			pEffect->SetWorldPosition( GetPosition() );

  0008b	8b 03		 mov	 eax, DWORD PTR [ebx]
  0008d	8b cb		 mov	 ecx, ebx
  0008f	ff 50 70	 call	 DWORD PTR [eax+112]
  00092	50		 push	 eax
  00093	8b ce		 mov	 ecx, esi
  00095	e8 00 00 00 00	 call	 ?SetWorldPosition@ioMapEffect@@QAEXABUD3DXVECTOR3@@@Z ; ioMapEffect::SetWorldPosition
$LN3@OnExplosio:

; 351  : 		}
; 352  : 	}
; 353  : 
; 354  : 	D3DXVECTOR3 vPos = GetPosition();

  0009a	8b 03		 mov	 eax, DWORD PTR [ebx]
  0009c	8b cb		 mov	 ecx, ebx
  0009e	ff 50 70	 call	 DWORD PTR [eax+112]

; 355  : 
; 356  : 	float fMapHeight = pStage->GetMapHeight( vPos.x, vPos.z, NULL, false, vPos.y+m_fExtentsOffSet );

  000a1	f3 0f 10 83 58
	09 00 00	 movss	 xmm0, DWORD PTR [ebx+2392]
  000a9	8b f0		 mov	 esi, eax
  000ab	8d 7d f0	 lea	 edi, DWORD PTR _vPos$[ebp]
  000ae	a5		 movsd
  000af	a5		 movsd
  000b0	33 c0		 xor	 eax, eax
  000b2	50		 push	 eax
  000b3	a5		 movsd
  000b4	f3 0f 10 4d f4	 movss	 xmm1, DWORD PTR _vPos$[ebp+4]
  000b9	51		 push	 ecx
  000ba	0f 5a c0	 cvtps2pd xmm0, xmm0
  000bd	0f 5a c9	 cvtps2pd xmm1, xmm1
  000c0	f2 0f 58 c1	 addsd	 xmm0, xmm1
  000c4	66 0f 5a c0	 cvtpd2ps xmm0, xmm0
  000c8	f3 0f 11 04 24	 movss	 DWORD PTR [esp], xmm0
  000cd	f3 0f 10 45 f8	 movss	 xmm0, DWORD PTR _vPos$[ebp+8]
  000d2	50		 push	 eax
  000d3	50		 push	 eax
  000d4	51		 push	 ecx
  000d5	51		 push	 ecx
  000d6	8b 4d 0c	 mov	 ecx, DWORD PTR _pStage$[ebp]
  000d9	f3 0f 11 44 24
	04		 movss	 DWORD PTR [esp+4], xmm0
  000df	f3 0f 10 45 f0	 movss	 xmm0, DWORD PTR _vPos$[ebp]
  000e4	f3 0f 11 04 24	 movss	 DWORD PTR [esp], xmm0
  000e9	e8 00 00 00 00	 call	 ?GetMapHeight@ioPlayStage@@QAEMMMPBVioGameEntity@@_NM1@Z ; ioPlayStage::GetMapHeight
  000ee	d9 5d 0c	 fstp	 DWORD PTR _fMapHeight$[ebp]

; 357  : 	if( vPos.y > fMapHeight )

  000f1	d9 45 0c	 fld	 DWORD PTR _fMapHeight$[ebp]
  000f4	5f		 pop	 edi
  000f5	d9 45 f4	 fld	 DWORD PTR _vPos$[ebp+4]
  000f8	5e		 pop	 esi
  000f9	df f1		 fcomip	 ST(1)
  000fb	dd d8		 fstp	 ST(0)
  000fd	76 36		 jbe	 SHORT $LN1@OnExplosio

; 358  : 	{
; 359  : 		float fGap = vPos.y - fMapHeight;
; 360  : 		if( fGap > m_fExtentsOffSet+FLOAT10 )

  000ff	b8 0a 00 00 00	 mov	 eax, 10			; 0000000aH
  00104	d9 45 f4	 fld	 DWORD PTR _vPos$[ebp+4]
  00107	d8 65 0c	 fsub	 DWORD PTR _fMapHeight$[ebp]
  0010a	d9 5d 0c	 fstp	 DWORD PTR tv264[ebp]
  0010d	d9 45 0c	 fld	 DWORD PTR tv264[ebp]
  00110	89 45 0c	 mov	 DWORD PTR tv260[ebp], eax
  00113	db 45 0c	 fild	 DWORD PTR tv260[ebp]
  00116	85 c0		 test	 eax, eax
  00118	79 06		 jns	 SHORT $LN15@OnExplosio
  0011a	d8 05 00 00 00
	00		 fadd	 DWORD PTR __real@4f800000
$LN15@OnExplosio:
  00120	d8 83 58 09 00
	00		 fadd	 DWORD PTR [ebx+2392]
  00126	d9 c9		 fxch	 ST(1)
  00128	df f1		 fcomip	 ST(1)
  0012a	dd d8		 fstp	 ST(0)
  0012c	76 07		 jbe	 SHORT $LN1@OnExplosio
$LN17@OnExplosio:

; 361  : 		{
; 362  : 			SetWeaponDead();

  0012e	8b cb		 mov	 ecx, ebx
$LN16@OnExplosio:
  00130	8b 03		 mov	 eax, DWORD PTR [ebx]
  00132	ff 50 4c	 call	 DWORD PTR [eax+76]
$LN1@OnExplosio:
  00135	5b		 pop	 ebx

; 363  : 			return;
; 364  : 		}
; 365  : 	}
; 366  : }

  00136	c9		 leave
  00137	c2 08 00	 ret	 8
?OnExplosionState@ioLobeliaWeapon@@IAEXMPAVioPlayStage@@@Z ENDP ; ioLobeliaWeapon::OnExplosionState
_TEXT	ENDS
PUBLIC	?GetType@ioLobeliaWeapon@@UBE?AW4WeaponType@ioWeapon@@XZ ; ioLobeliaWeapon::GetType
; Function compile flags: /Ogsp
;	COMDAT ?GetType@ioLobeliaWeapon@@UBE?AW4WeaponType@ioWeapon@@XZ
_TEXT	SEGMENT
?GetType@ioLobeliaWeapon@@UBE?AW4WeaponType@ioWeapon@@XZ PROC ; ioLobeliaWeapon::GetType, COMDAT
; _this$ = ecx

; 402  : 	return WT_LOBELIA;

  00000	6a 36		 push	 54			; 00000036H
  00002	58		 pop	 eax

; 403  : }

  00003	c3		 ret	 0
?GetType@ioLobeliaWeapon@@UBE?AW4WeaponType@ioWeapon@@XZ ENDP ; ioLobeliaWeapon::GetType
_TEXT	ENDS
PUBLIC	?GetActionStopType@ioLobeliaWeapon@@UBE?AW4ActionStopType@@XZ ; ioLobeliaWeapon::GetActionStopType
; Function compile flags: /Ogsp
;	COMDAT ?GetActionStopType@ioLobeliaWeapon@@UBE?AW4ActionStopType@@XZ
_TEXT	SEGMENT
?GetActionStopType@ioLobeliaWeapon@@UBE?AW4ActionStopType@@XZ PROC ; ioLobeliaWeapon::GetActionStopType, COMDAT
; _this$ = ecx

; 407  : 	return m_ActionStopType;

  00000	a1 00 00 00 00	 mov	 eax, DWORD PTR ?m_ActionStopType@ioLobeliaWeapon@@2W4ActionStopType@@A ; ioLobeliaWeapon::m_ActionStopType

; 408  : }

  00005	c3		 ret	 0
?GetActionStopType@ioLobeliaWeapon@@UBE?AW4ActionStopType@@XZ ENDP ; ioLobeliaWeapon::GetActionStopType
_TEXT	ENDS
PUBLIC	?GetDieActionStopType@ioLobeliaWeapon@@UBE?AW4ActionStopType@@XZ ; ioLobeliaWeapon::GetDieActionStopType
; Function compile flags: /Ogsp
;	COMDAT ?GetDieActionStopType@ioLobeliaWeapon@@UBE?AW4ActionStopType@@XZ
_TEXT	SEGMENT
?GetDieActionStopType@ioLobeliaWeapon@@UBE?AW4ActionStopType@@XZ PROC ; ioLobeliaWeapon::GetDieActionStopType, COMDAT
; _this$ = ecx

; 412  : 	return m_DieActionStopType;

  00000	a1 00 00 00 00	 mov	 eax, DWORD PTR ?m_DieActionStopType@ioLobeliaWeapon@@2W4ActionStopType@@A ; ioLobeliaWeapon::m_DieActionStopType

; 413  : }

  00005	c3		 ret	 0
?GetDieActionStopType@ioLobeliaWeapon@@UBE?AW4ActionStopType@@XZ ENDP ; ioLobeliaWeapon::GetDieActionStopType
_TEXT	ENDS
PUBLIC	?GetLocalAttackBox@ioLobeliaWeapon@@UBEABVioOrientBox@@XZ ; ioLobeliaWeapon::GetLocalAttackBox
; Function compile flags: /Ogsp
;	COMDAT ?GetLocalAttackBox@ioLobeliaWeapon@@UBEABVioOrientBox@@XZ
_TEXT	SEGMENT
?GetLocalAttackBox@ioLobeliaWeapon@@UBEABVioOrientBox@@XZ PROC ; ioLobeliaWeapon::GetLocalAttackBox, COMDAT
; _this$ = ecx

; 417  : 	return m_LocalAttackBox;

  00000	8d 81 dc 08 00
	00		 lea	 eax, DWORD PTR [ecx+2268]

; 418  : }

  00006	c3		 ret	 0
?GetLocalAttackBox@ioLobeliaWeapon@@UBEABVioOrientBox@@XZ ENDP ; ioLobeliaWeapon::GetLocalAttackBox
_TEXT	ENDS
PUBLIC	_pStage$GSCopy$
PUBLIC	__$ArrayPad$
PUBLIC	?Explosion@ioLobeliaWeapon@@QAEXPAVioPlayStage@@@Z ; ioLobeliaWeapon::Explosion
EXTRN	?EndEffectForce@ioMapEffect@@QAEXXZ:PROC	; ioMapEffect::EndEffectForce
EXTRN	?PlayExplosionSound@ioWeapon@@UAEXXZ:PROC	; ioWeapon::PlayExplosionSound
EXTRN	?GetUniqueID@ioMapEffect@@QBEKXZ:PROC		; ioMapEffect::GetUniqueID
EXTRN	?CreateMapEffect@ioPlayStage@@QAEPAVioMapEffect@@ABVioHashString@@ABUD3DXVECTOR3@@1@Z:PROC ; ioPlayStage::CreateMapEffect
EXTRN	?GetScale@ioWeapon@@QBEABUD3DXVECTOR3@@XZ:PROC	; ioWeapon::GetScale
EXTRN	__imp_?IsEmpty@ioHashString@@QBE_NXZ:PROC
EXTRN	__imp_?SetExtents@ioOrientBox@@QAEXHM@Z:PROC
EXTRN	___security_cookie:DWORD
EXTRN	@__security_check_cookie@4:PROC
; Function compile flags: /Ogsp
;	COMDAT ?Explosion@ioLobeliaWeapon@@QAEXPAVioPlayStage@@@Z
_TEXT	SEGMENT
_pStage$GSCopy$ = -24					; size = 4
_fMapHeight$531058 = -20				; size = 4
_fHalfRange$ = -20					; size = 4
_vPos$531057 = -16					; size = 12
__$ArrayPad$ = -4					; size = 4
_pStage$ = 8						; size = 4
?Explosion@ioLobeliaWeapon@@QAEXPAVioPlayStage@@@Z PROC	; ioLobeliaWeapon::Explosion, COMDAT
; _this$ = ecx

; 450  : {

  00000	55		 push	 ebp
  00001	8b ec		 mov	 ebp, esp
  00003	83 ec 18	 sub	 esp, 24			; 00000018H
  00006	a1 00 00 00 00	 mov	 eax, DWORD PTR ___security_cookie
  0000b	33 c5		 xor	 eax, ebp
  0000d	89 45 fc	 mov	 DWORD PTR __$ArrayPad$[ebp], eax

; 489  : 		}
; 490  : 	}
; 491  : 
; 492  : 	DestroyResource( pStage );

  00010	8b 45 08	 mov	 eax, DWORD PTR _pStage$[ebp]
  00013	53		 push	 ebx
  00014	8b d9		 mov	 ebx, ecx
  00016	6a 04		 push	 4
  00018	59		 pop	 ecx
  00019	89 45 e8	 mov	 DWORD PTR _pStage$GSCopy$[ebp], eax
  0001c	39 8b 94 08 00
	00		 cmp	 DWORD PTR [ebx+2196], ecx
  00022	0f 84 71 01 00
	00		 je	 $LN7@Explosion

; 451  : 	if( m_State == TS_EXPLOSION )
; 452  : 		return;
; 453  : 
; 454  : 	m_State = TS_EXPLOSION;

  00028	56		 push	 esi
  00029	57		 push	 edi
  0002a	89 8b 94 08 00
	00		 mov	 DWORD PTR [ebx+2196], ecx

; 455  : 	m_dwExplosionStart = FRAMEGETTIME();

  00030	ff 15 00 00 00
	00		 call	 DWORD PTR __imp_?GetSingleton@ioFrameTimer@@SAAAV1@XZ
  00036	8b c8		 mov	 ecx, eax
  00038	ff 15 00 00 00
	00		 call	 DWORD PTR __imp_?GetLoopSec@ioFrameTimer@@QBEKXZ

; 456  : 
; 457  : 	float fHalfRange = m_fExplosionRange;

  0003e	f3 0f 10 83 3c
	09 00 00	 movss	 xmm0, DWORD PTR [ebx+2364]

; 458  : 	m_LocalAttackBox.SetExtents( 0, fHalfRange );

  00046	8b 35 00 00 00
	00		 mov	 esi, DWORD PTR __imp_?SetExtents@ioOrientBox@@QAEXHM@Z
  0004c	51		 push	 ecx
  0004d	f3 0f 11 04 24	 movss	 DWORD PTR [esp], xmm0
  00052	6a 00		 push	 0
  00054	8d 8b dc 08 00
	00		 lea	 ecx, DWORD PTR [ebx+2268]
  0005a	89 83 34 09 00
	00		 mov	 DWORD PTR [ebx+2356], eax
  00060	f3 0f 11 45 ec	 movss	 DWORD PTR _fHalfRange$[ebp], xmm0
  00065	ff d6		 call	 esi

; 459  : 	m_LocalAttackBox.SetExtents( 1, fHalfRange );

  00067	f3 0f 10 45 ec	 movss	 xmm0, DWORD PTR _fHalfRange$[ebp]
  0006c	51		 push	 ecx
  0006d	f3 0f 11 04 24	 movss	 DWORD PTR [esp], xmm0
  00072	6a 01		 push	 1
  00074	8d 8b dc 08 00
	00		 lea	 ecx, DWORD PTR [ebx+2268]
  0007a	ff d6		 call	 esi

; 460  : 	m_LocalAttackBox.SetExtents( 2, fHalfRange );

  0007c	f3 0f 10 45 ec	 movss	 xmm0, DWORD PTR _fHalfRange$[ebp]
  00081	51		 push	 ecx
  00082	f3 0f 11 04 24	 movss	 DWORD PTR [esp], xmm0
  00087	6a 02		 push	 2
  00089	8d 8b dc 08 00
	00		 lea	 ecx, DWORD PTR [ebx+2268]
  0008f	ff d6		 call	 esi

; 461  : 	UpdateWorldAttackBox( 0.0f, false );

  00091	0f 57 c0	 xorps	 xmm0, xmm0
  00094	8b 03		 mov	 eax, DWORD PTR [ebx]
  00096	6a 00		 push	 0
  00098	51		 push	 ecx
  00099	8b cb		 mov	 ecx, ebx
  0009b	f3 0f 11 04 24	 movss	 DWORD PTR [esp], xmm0
  000a0	ff 90 38 01 00
	00		 call	 DWORD PTR [eax+312]

; 462  : 
; 463  : 	if( !m_BoomEffect.IsEmpty() && pStage )

  000a6	8d 8b ac 08 00
	00		 lea	 ecx, DWORD PTR [ebx+2220]
  000ac	ff 15 00 00 00
	00		 call	 DWORD PTR __imp_?IsEmpty@ioHashString@@QBE_NXZ
  000b2	84 c0		 test	 al, al
  000b4	0f 85 aa 00 00
	00		 jne	 $LN9@Explosion
  000ba	83 7d e8 00	 cmp	 DWORD PTR _pStage$GSCopy$[ebp], 0
  000be	0f 84 a0 00 00
	00		 je	 $LN9@Explosion

; 464  : 	{
; 465  : 		D3DXVECTOR3 vPos = GetPosition();

  000c4	8b 03		 mov	 eax, DWORD PTR [ebx]
  000c6	8b cb		 mov	 ecx, ebx
  000c8	ff 50 70	 call	 DWORD PTR [eax+112]

; 466  : 
; 467  : 		float fMapHeight = pStage->GetMapHeight( vPos.x, vPos.z, NULL, false, vPos.y+m_fExtentsOffSet );

  000cb	f3 0f 10 83 58
	09 00 00	 movss	 xmm0, DWORD PTR [ebx+2392]
  000d3	8b f0		 mov	 esi, eax
  000d5	8d 7d f0	 lea	 edi, DWORD PTR _vPos$531057[ebp]
  000d8	a5		 movsd
  000d9	a5		 movsd
  000da	a5		 movsd
  000db	f3 0f 10 4d f4	 movss	 xmm1, DWORD PTR _vPos$531057[ebp+4]
  000e0	33 f6		 xor	 esi, esi
  000e2	56		 push	 esi
  000e3	51		 push	 ecx
  000e4	0f 5a c0	 cvtps2pd xmm0, xmm0
  000e7	0f 5a c9	 cvtps2pd xmm1, xmm1
  000ea	f2 0f 58 c1	 addsd	 xmm0, xmm1
  000ee	66 0f 5a c0	 cvtpd2ps xmm0, xmm0
  000f2	f3 0f 11 04 24	 movss	 DWORD PTR [esp], xmm0
  000f7	f3 0f 10 45 f8	 movss	 xmm0, DWORD PTR _vPos$531057[ebp+8]
  000fc	56		 push	 esi
  000fd	56		 push	 esi
  000fe	51		 push	 ecx
  000ff	51		 push	 ecx
  00100	8b 4d e8	 mov	 ecx, DWORD PTR _pStage$GSCopy$[ebp]
  00103	f3 0f 11 44 24
	04		 movss	 DWORD PTR [esp+4], xmm0
  00109	f3 0f 10 45 f0	 movss	 xmm0, DWORD PTR _vPos$531057[ebp]
  0010e	f3 0f 11 04 24	 movss	 DWORD PTR [esp], xmm0
  00113	e8 00 00 00 00	 call	 ?GetMapHeight@ioPlayStage@@QAEMMMPBVioGameEntity@@_NM1@Z ; ioPlayStage::GetMapHeight
  00118	d9 5d ec	 fstp	 DWORD PTR _fMapHeight$531058[ebp]

; 468  : 		if( vPos.y < fMapHeight )

  0011b	d9 45 f4	 fld	 DWORD PTR _vPos$531057[ebp+4]
  0011e	d9 45 ec	 fld	 DWORD PTR _fMapHeight$531058[ebp]
  00121	df f1		 fcomip	 ST(1)
  00123	dd d8		 fstp	 ST(0)
  00125	76 0a		 jbe	 SHORT $LN4@Explosion

; 469  : 		{
; 470  : 			vPos.y = fMapHeight;

  00127	f3 0f 10 45 ec	 movss	 xmm0, DWORD PTR _fMapHeight$531058[ebp]
  0012c	f3 0f 11 45 f4	 movss	 DWORD PTR _vPos$531057[ebp+4], xmm0
$LN4@Explosion:

; 471  : 		}
; 472  : 
; 473  : 		ioMapEffect *pEffect = pStage->CreateMapEffect( m_BoomEffect, vPos, GetScale() );

  00131	8b cb		 mov	 ecx, ebx
  00133	e8 00 00 00 00	 call	 ?GetScale@ioWeapon@@QBEABUD3DXVECTOR3@@XZ ; ioWeapon::GetScale
  00138	8b 4d e8	 mov	 ecx, DWORD PTR _pStage$GSCopy$[ebp]
  0013b	50		 push	 eax
  0013c	8d 45 f0	 lea	 eax, DWORD PTR _vPos$531057[ebp]
  0013f	50		 push	 eax
  00140	8d 83 ac 08 00
	00		 lea	 eax, DWORD PTR [ebx+2220]
  00146	50		 push	 eax
  00147	e8 00 00 00 00	 call	 ?CreateMapEffect@ioPlayStage@@QAEPAVioMapEffect@@ABVioHashString@@ABUD3DXVECTOR3@@1@Z ; ioPlayStage::CreateMapEffect

; 474  : 		if( pEffect )

  0014c	3b c6		 cmp	 eax, esi
  0014e	74 0d		 je	 SHORT $LN3@Explosion

; 475  : 		{
; 476  : 			m_EffectID = pEffect->GetUniqueID();

  00150	8b c8		 mov	 ecx, eax
  00152	e8 00 00 00 00	 call	 ?GetUniqueID@ioMapEffect@@QBEKXZ ; ioMapEffect::GetUniqueID
  00157	89 83 c0 08 00
	00		 mov	 DWORD PTR [ebx+2240], eax
$LN3@Explosion:

; 477  : 		}
; 478  : 
; 479  : 		ioWeapon::PlayExplosionSound();

  0015d	8b cb		 mov	 ecx, ebx
  0015f	e8 00 00 00 00	 call	 ?PlayExplosionSound@ioWeapon@@UAEXXZ ; ioWeapon::PlayExplosionSound
$LN9@Explosion:

; 480  : 	}
; 481  : 
; 482  : 	if( m_GroundID != -1 )

  00164	8b 83 bc 08 00
	00		 mov	 eax, DWORD PTR [ebx+2236]
  0016a	5f		 pop	 edi
  0016b	5e		 pop	 esi
  0016c	83 f8 ff	 cmp	 eax, -1
  0016f	74 1b		 je	 SHORT $LN10@Explosion

; 483  : 	{
; 484  : 		ioMapEffect *pEffect = pStage->FindMapEffect( m_GroundID );

  00171	8b 4d e8	 mov	 ecx, DWORD PTR _pStage$GSCopy$[ebp]
  00174	50		 push	 eax
  00175	e8 00 00 00 00	 call	 ?FindMapEffect@ioPlayStage@@QAEPAVioMapEffect@@K@Z ; ioPlayStage::FindMapEffect

; 485  : 		if( pEffect )

  0017a	85 c0		 test	 eax, eax
  0017c	74 0e		 je	 SHORT $LN10@Explosion

; 486  : 		{
; 487  : 			pEffect->EndEffectForce();

  0017e	8b c8		 mov	 ecx, eax
  00180	e8 00 00 00 00	 call	 ?EndEffectForce@ioMapEffect@@QAEXXZ ; ioMapEffect::EndEffectForce

; 488  : 			m_GroundID = -1;

  00185	83 8b bc 08 00
	00 ff		 or	 DWORD PTR [ebx+2236], -1
$LN10@Explosion:

; 489  : 		}
; 490  : 	}
; 491  : 
; 492  : 	DestroyResource( pStage );

  0018c	ff 75 e8	 push	 DWORD PTR _pStage$GSCopy$[ebp]
  0018f	8b 03		 mov	 eax, DWORD PTR [ebx]
  00191	8b cb		 mov	 ecx, ebx
  00193	ff 90 9c 00 00
	00		 call	 DWORD PTR [eax+156]
$LN7@Explosion:

; 493  : }

  00199	8b 4d fc	 mov	 ecx, DWORD PTR __$ArrayPad$[ebp]
  0019c	33 cd		 xor	 ecx, ebp
  0019e	5b		 pop	 ebx
  0019f	e8 00 00 00 00	 call	 @__security_check_cookie@4
  001a4	c9		 leave
  001a5	c2 04 00	 ret	 4
?Explosion@ioLobeliaWeapon@@QAEXPAVioPlayStage@@@Z ENDP	; ioLobeliaWeapon::Explosion
_TEXT	ENDS
PUBLIC	?SetBombDrop@ioLobeliaWeapon@@QAEXXZ		; ioLobeliaWeapon::SetBombDrop
; Function compile flags: /Ogsp
;	COMDAT ?SetBombDrop@ioLobeliaWeapon@@QAEXXZ
_TEXT	SEGMENT
?SetBombDrop@ioLobeliaWeapon@@QAEXXZ PROC		; ioLobeliaWeapon::SetBombDrop, COMDAT
; _this$ = ecx

; 568  : {

  00000	56		 push	 esi
  00001	8b f1		 mov	 esi, ecx

; 569  : 	DWORD dwCurTime = FRAMEGETTIME();

  00003	ff 15 00 00 00
	00		 call	 DWORD PTR __imp_?GetSingleton@ioFrameTimer@@SAAAV1@XZ
  00009	8b c8		 mov	 ecx, eax
  0000b	ff 15 00 00 00
	00		 call	 DWORD PTR __imp_?GetLoopSec@ioFrameTimer@@QBEKXZ

; 570  : 	m_dwDuration = dwCurTime + m_dwDropDuration;
; 571  : 
; 572  : 	m_fMoveSpeed = m_fDropMoveSpeed;

  00011	d9 86 50 09 00
	00		 fld	 DWORD PTR [esi+2384]
  00017	8b 8e 28 09 00
	00		 mov	 ecx, DWORD PTR [esi+2344]
  0001d	d9 9e 4c 09 00
	00		 fstp	 DWORD PTR [esi+2380]

; 573  : 	m_fFloatingPower = m_fDropFloatingPower;

  00023	d9 86 48 09 00
	00		 fld	 DWORD PTR [esi+2376]
  00029	03 c8		 add	 ecx, eax
  0002b	d9 9e 44 09 00
	00		 fstp	 DWORD PTR [esi+2372]
  00031	89 8e 20 09 00
	00		 mov	 DWORD PTR [esi+2336], ecx

; 574  : 
; 575  : 	m_bDropState = true;

  00037	c6 86 5e 09 00
	00 01		 mov	 BYTE PTR [esi+2398], 1
  0003e	5e		 pop	 esi

; 576  : }

  0003f	c3		 ret	 0
?SetBombDrop@ioLobeliaWeapon@@QAEXXZ ENDP		; ioLobeliaWeapon::SetBombDrop
_TEXT	ENDS
PUBLIC	?SetBoomEffect@ioLobeliaWeapon@@QAEXABVioHashString@@@Z ; ioLobeliaWeapon::SetBoomEffect
EXTRN	__imp_??4ioHashString@@QAEAAV0@ABV0@@Z:PROC
; Function compile flags: /Ogsp
;	COMDAT ?SetBoomEffect@ioLobeliaWeapon@@QAEXABVioHashString@@@Z
_TEXT	SEGMENT
_rkName$ = 8						; size = 4
?SetBoomEffect@ioLobeliaWeapon@@QAEXABVioHashString@@@Z PROC ; ioLobeliaWeapon::SetBoomEffect, COMDAT
; _this$ = ecx

; 599  : {

  00000	55		 push	 ebp
  00001	8b ec		 mov	 ebp, esp

; 600  : 	m_BoomEffect = rkName;

  00003	81 c1 ac 08 00
	00		 add	 ecx, 2220		; 000008acH

; 601  : }

  00009	5d		 pop	 ebp

; 600  : 	m_BoomEffect = rkName;

  0000a	ff 25 00 00 00
	00		 jmp	 DWORD PTR __imp_??4ioHashString@@QAEAAV0@ABV0@@Z
?SetBoomEffect@ioLobeliaWeapon@@QAEXABVioHashString@@@Z ENDP ; ioLobeliaWeapon::SetBoomEffect
_TEXT	ENDS
PUBLIC	?IsExplosion@ioLobeliaWeapon@@QBE_NXZ		; ioLobeliaWeapon::IsExplosion
; Function compile flags: /Ogsp
;	COMDAT ?IsExplosion@ioLobeliaWeapon@@QBE_NXZ
_TEXT	SEGMENT
?IsExplosion@ioLobeliaWeapon@@QBE_NXZ PROC		; ioLobeliaWeapon::IsExplosion, COMDAT
; _this$ = ecx

; 605  : 	if( m_State == TS_EXPLOSION )

  00000	83 b9 94 08 00
	00 04		 cmp	 DWORD PTR [ecx+2196], 4
  00007	0f 94 c0	 sete	 al

; 606  : 		return true;
; 607  : 
; 608  : 	return false;
; 609  : }

  0000a	c3		 ret	 0
?IsExplosion@ioLobeliaWeapon@@QBE_NXZ ENDP		; ioLobeliaWeapon::IsExplosion
_TEXT	ENDS
PUBLIC	?IsCanMineExplosion@ioLobeliaWeapon@@UAE_NXZ	; ioLobeliaWeapon::IsCanMineExplosion
EXTRN	?IsCanMineExplosion@ioWeapon@@UAE_NXZ:PROC	; ioWeapon::IsCanMineExplosion
; Function compile flags: /Ogsp
;	COMDAT ?IsCanMineExplosion@ioLobeliaWeapon@@UAE_NXZ
_TEXT	SEGMENT
?IsCanMineExplosion@ioLobeliaWeapon@@UAE_NXZ PROC	; ioLobeliaWeapon::IsCanMineExplosion, COMDAT
; _this$ = ecx

; 612  : {

  00000	56		 push	 esi
  00001	8b f1		 mov	 esi, ecx

; 613  : 	if( !ioWeapon::IsCanMineExplosion() )

  00003	e8 00 00 00 00	 call	 ?IsCanMineExplosion@ioWeapon@@UAE_NXZ ; ioWeapon::IsCanMineExplosion
  00008	84 c0		 test	 al, al
  0000a	75 02		 jne	 SHORT $LN2@IsCanMineE
  0000c	5e		 pop	 esi

; 617  : 		return false;
; 618  : 
; 619  : 	return true;
; 620  : }

  0000d	c3		 ret	 0
$LN2@IsCanMineE:

; 614  : 		return false;
; 615  : 
; 616  : 	if( !IsExplosion() )

  0000e	83 be 94 08 00
	00 04		 cmp	 DWORD PTR [esi+2196], 4
  00015	5e		 pop	 esi
  00016	0f 94 c0	 sete	 al

; 617  : 		return false;
; 618  : 
; 619  : 	return true;
; 620  : }

  00019	c3		 ret	 0
?IsCanMineExplosion@ioLobeliaWeapon@@UAE_NXZ ENDP	; ioLobeliaWeapon::IsCanMineExplosion
_TEXT	ENDS
PUBLIC	?GetCollisionEnableTime@ioLobeliaWeapon@@UBEKXZ	; ioLobeliaWeapon::GetCollisionEnableTime
; Function compile flags: /Ogsp
;	COMDAT ?GetCollisionEnableTime@ioLobeliaWeapon@@UBEKXZ
_TEXT	SEGMENT
?GetCollisionEnableTime@ioLobeliaWeapon@@UBEKXZ PROC	; ioLobeliaWeapon::GetCollisionEnableTime, COMDAT
; _this$ = ecx

; 674  : {

  00000	56		 push	 esi
  00001	8b f1		 mov	 esi, ecx

; 675  : 	if( m_State == TS_EXPLOSION )

  00003	83 be 94 08 00
	00 04		 cmp	 DWORD PTR [esi+2196], 4
  0000a	75 08		 jne	 SHORT $LN1@GetCollisi

; 676  : 		return m_dwCreatedTime;

  0000c	8b 86 d4 04 00
	00		 mov	 eax, DWORD PTR [esi+1236]
  00012	5e		 pop	 esi

; 679  : }

  00013	c3		 ret	 0
$LN1@GetCollisi:

; 677  : 
; 678  : 	return m_dwCreatedTime + GetAttribute()->m_dwCollisionDelay;

  00014	8b 06		 mov	 eax, DWORD PTR [esi]
  00016	ff 90 3c 01 00
	00		 call	 DWORD PTR [eax+316]
  0001c	8b 80 c4 01 00
	00		 mov	 eax, DWORD PTR [eax+452]
  00022	03 86 d4 04 00
	00		 add	 eax, DWORD PTR [esi+1236]
  00028	5e		 pop	 esi

; 679  : }

  00029	c3		 ret	 0
?GetCollisionEnableTime@ioLobeliaWeapon@@UBEKXZ ENDP	; ioLobeliaWeapon::GetCollisionEnableTime
_TEXT	ENDS
PUBLIC	_pStage$GSCopy$
PUBLIC	__$ArrayPad$
PUBLIC	?SetGroundState@ioLobeliaWeapon@@QAEXPAVioPlayStage@@@Z ; ioLobeliaWeapon::SetGroundState
; Function compile flags: /Ogsp
;	COMDAT ?SetGroundState@ioLobeliaWeapon@@QAEXPAVioPlayStage@@@Z
_TEXT	SEGMENT
_pStage$GSCopy$ = -20					; size = 4
_vPos$531183 = -16					; size = 12
__$ArrayPad$ = -4					; size = 4
_pStage$ = 8						; size = 4
?SetGroundState@ioLobeliaWeapon@@QAEXPAVioPlayStage@@@Z PROC ; ioLobeliaWeapon::SetGroundState, COMDAT
; _this$ = ecx

; 690  : {

  00000	55		 push	 ebp
  00001	8b ec		 mov	 ebp, esp
  00003	83 ec 14	 sub	 esp, 20			; 00000014H
  00006	a1 00 00 00 00	 mov	 eax, DWORD PTR ___security_cookie
  0000b	33 c5		 xor	 eax, ebp
  0000d	89 45 fc	 mov	 DWORD PTR __$ArrayPad$[ebp], eax

; 719  : 	}
; 720  : 
; 721  : 	DestroyResource( pStage );

  00010	8b 45 08	 mov	 eax, DWORD PTR _pStage$[ebp]
  00013	53		 push	 ebx
  00014	8b d9		 mov	 ebx, ecx
  00016	8b 8b 94 08 00
	00		 mov	 ecx, DWORD PTR [ebx+2196]
  0001c	6a 03		 push	 3
  0001e	5a		 pop	 edx
  0001f	89 45 ec	 mov	 DWORD PTR _pStage$GSCopy$[ebp], eax
  00022	3b ca		 cmp	 ecx, edx
  00024	7c 09		 jl	 SHORT $LN5@SetGroundS

; 691  : 	switch( m_State )

  00026	83 f9 04	 cmp	 ecx, 4
  00029	0f 8e d3 00 00
	00		 jle	 $LN7@SetGroundS
$LN5@SetGroundS:

; 692  : 	{
; 693  : 	case TS_MOVE:
; 694  : 	case TS_PINGPONG:
; 695  : 		break;
; 696  : 	case TS_GROUND:
; 697  : 	case TS_EXPLOSION:
; 698  : 		return;
; 699  : 	}
; 700  : 
; 701  : 	m_State = TS_GROUND;

  0002f	89 93 94 08 00
	00		 mov	 DWORD PTR [ebx+2196], edx

; 702  : 	m_dwGroundStart = FRAMEGETTIME();

  00035	ff 15 00 00 00
	00		 call	 DWORD PTR __imp_?GetSingleton@ioFrameTimer@@SAAAV1@XZ
  0003b	8b c8		 mov	 ecx, eax
  0003d	ff 15 00 00 00
	00		 call	 DWORD PTR __imp_?GetLoopSec@ioFrameTimer@@QBEKXZ
  00043	89 83 2c 09 00
	00		 mov	 DWORD PTR [ebx+2348], eax

; 703  : 	ClearCollisionList();

  00049	8b 03		 mov	 eax, DWORD PTR [ebx]
  0004b	8b cb		 mov	 ecx, ebx
  0004d	ff 90 4c 01 00
	00		 call	 DWORD PTR [eax+332]

; 704  : 
; 705  : 	if( !m_GroundEffect.IsEmpty() )

  00053	8d 8b 9c 08 00
	00		 lea	 ecx, DWORD PTR [ebx+2204]
  00059	ff 15 00 00 00
	00		 call	 DWORD PTR __imp_?IsEmpty@ioHashString@@QBE_NXZ
  0005f	84 c0		 test	 al, al
  00061	0f 85 8e 00 00
	00		 jne	 $LN2@SetGroundS

; 706  : 	{
; 707  : 		D3DXVECTOR3 vPos = GetPosition();

  00067	8b 03		 mov	 eax, DWORD PTR [ebx]
  00069	56		 push	 esi
  0006a	57		 push	 edi
  0006b	8b cb		 mov	 ecx, ebx
  0006d	ff 50 70	 call	 DWORD PTR [eax+112]

; 708  : 
; 709  : 		float fMapHeight = pStage->GetMapHeight( vPos.x, vPos.z, NULL, false, vPos.y+m_fExtentsOffSet );
; 710  : 		vPos.y = fMapHeight;

  00070	f3 0f 10 83 58
	09 00 00	 movss	 xmm0, DWORD PTR [ebx+2392]
  00078	8b f0		 mov	 esi, eax
  0007a	8d 7d f0	 lea	 edi, DWORD PTR _vPos$531183[ebp]
  0007d	a5		 movsd
  0007e	a5		 movsd
  0007f	a5		 movsd
  00080	f3 0f 10 4d f4	 movss	 xmm1, DWORD PTR _vPos$531183[ebp+4]
  00085	33 f6		 xor	 esi, esi
  00087	56		 push	 esi
  00088	51		 push	 ecx
  00089	0f 5a c0	 cvtps2pd xmm0, xmm0
  0008c	0f 5a c9	 cvtps2pd xmm1, xmm1
  0008f	f2 0f 58 c1	 addsd	 xmm0, xmm1
  00093	66 0f 5a c0	 cvtpd2ps xmm0, xmm0
  00097	f3 0f 11 04 24	 movss	 DWORD PTR [esp], xmm0
  0009c	f3 0f 10 45 f8	 movss	 xmm0, DWORD PTR _vPos$531183[ebp+8]
  000a1	56		 push	 esi
  000a2	56		 push	 esi
  000a3	51		 push	 ecx
  000a4	51		 push	 ecx
  000a5	8b 4d ec	 mov	 ecx, DWORD PTR _pStage$GSCopy$[ebp]
  000a8	f3 0f 11 44 24
	04		 movss	 DWORD PTR [esp+4], xmm0
  000ae	f3 0f 10 45 f0	 movss	 xmm0, DWORD PTR _vPos$531183[ebp]
  000b3	f3 0f 11 04 24	 movss	 DWORD PTR [esp], xmm0
  000b8	e8 00 00 00 00	 call	 ?GetMapHeight@ioPlayStage@@QAEMMMPBVioGameEntity@@_NM1@Z ; ioPlayStage::GetMapHeight
  000bd	d9 5d f4	 fstp	 DWORD PTR _vPos$531183[ebp+4]

; 711  : 
; 712  : 		ioMapEffect *pEffect = pStage->CreateMapEffect( m_GroundEffect, vPos, GetScale() );

  000c0	8b cb		 mov	 ecx, ebx
  000c2	e8 00 00 00 00	 call	 ?GetScale@ioWeapon@@QBEABUD3DXVECTOR3@@XZ ; ioWeapon::GetScale
  000c7	8b 4d ec	 mov	 ecx, DWORD PTR _pStage$GSCopy$[ebp]
  000ca	50		 push	 eax
  000cb	8d 45 f0	 lea	 eax, DWORD PTR _vPos$531183[ebp]
  000ce	50		 push	 eax
  000cf	8d 83 9c 08 00
	00		 lea	 eax, DWORD PTR [ebx+2204]
  000d5	50		 push	 eax
  000d6	e8 00 00 00 00	 call	 ?CreateMapEffect@ioPlayStage@@QAEPAVioMapEffect@@ABVioHashString@@ABUD3DXVECTOR3@@1@Z ; ioPlayStage::CreateMapEffect
  000db	5f		 pop	 edi

; 713  : 		if( pEffect )

  000dc	3b c6		 cmp	 eax, esi
  000de	5e		 pop	 esi
  000df	74 0d		 je	 SHORT $LN1@SetGroundS

; 714  : 		{
; 715  : 			m_GroundID = pEffect->GetUniqueID();

  000e1	8b c8		 mov	 ecx, eax
  000e3	e8 00 00 00 00	 call	 ?GetUniqueID@ioMapEffect@@QBEKXZ ; ioMapEffect::GetUniqueID
  000e8	89 83 bc 08 00
	00		 mov	 DWORD PTR [ebx+2236], eax
$LN1@SetGroundS:

; 716  : 		}
; 717  : 
; 718  : 		ioWeapon::PlayExplosionSound();

  000ee	8b cb		 mov	 ecx, ebx
  000f0	e8 00 00 00 00	 call	 ?PlayExplosionSound@ioWeapon@@UAEXXZ ; ioWeapon::PlayExplosionSound
$LN2@SetGroundS:

; 719  : 	}
; 720  : 
; 721  : 	DestroyResource( pStage );

  000f5	ff 75 ec	 push	 DWORD PTR _pStage$GSCopy$[ebp]
  000f8	8b 03		 mov	 eax, DWORD PTR [ebx]
  000fa	8b cb		 mov	 ecx, ebx
  000fc	ff 90 9c 00 00
	00		 call	 DWORD PTR [eax+156]
$LN7@SetGroundS:

; 722  : }

  00102	8b 4d fc	 mov	 ecx, DWORD PTR __$ArrayPad$[ebp]
  00105	33 cd		 xor	 ecx, ebp
  00107	5b		 pop	 ebx
  00108	e8 00 00 00 00	 call	 @__security_check_cookie@4
  0010d	c9		 leave
  0010e	c2 04 00	 ret	 4
?SetGroundState@ioLobeliaWeapon@@QAEXPAVioPlayStage@@@Z ENDP ; ioLobeliaWeapon::SetGroundState
_TEXT	ENDS
PUBLIC	?OnGroundState@ioLobeliaWeapon@@IAEXMPAVioPlayStage@@@Z ; ioLobeliaWeapon::OnGroundState
; Function compile flags: /Ogsp
;	COMDAT ?OnGroundState@ioLobeliaWeapon@@IAEXMPAVioPlayStage@@@Z
_TEXT	SEGMENT
_vPos$ = -12						; size = 12
_fTimePerSec$ = 8					; size = 4
tv225 = 12						; size = 4
tv168 = 12						; size = 4
_fMapHeight$ = 12					; size = 4
_pStage$ = 12						; size = 4
?OnGroundState@ioLobeliaWeapon@@IAEXMPAVioPlayStage@@@Z PROC ; ioLobeliaWeapon::OnGroundState, COMDAT
; _this$ = ecx

; 725  : {

  00000	55		 push	 ebp
  00001	8b ec		 mov	 ebp, esp
  00003	83 ec 0c	 sub	 esp, 12			; 0000000cH
  00006	53		 push	 ebx
  00007	8b d9		 mov	 ebx, ecx

; 726  : 	if( m_dwGroundDuration == 0 )

  00009	83 bb 30 09 00
	00 00		 cmp	 DWORD PTR [ebx+2352], 0

; 727  : 	{
; 728  : 		SetWeaponDead();
; 729  : 		return;

  00010	0f 84 b8 00 00
	00		 je	 $LN10@OnGroundSt

; 730  : 	}
; 731  : 
; 732  : 	DWORD dwCurTime = FRAMEGETTIME();

  00016	ff 15 00 00 00
	00		 call	 DWORD PTR __imp_?GetSingleton@ioFrameTimer@@SAAAV1@XZ
  0001c	8b c8		 mov	 ecx, eax
  0001e	ff 15 00 00 00
	00		 call	 DWORD PTR __imp_?GetLoopSec@ioFrameTimer@@QBEKXZ

; 733  : 	if( dwCurTime - m_dwGroundStart > m_dwGroundDuration )

  00024	2b 83 2c 09 00
	00		 sub	 eax, DWORD PTR [ebx+2348]

; 734  : 	{
; 735  : 		//Explosion( pStage );
; 736  : 		SetWeaponDead();

  0002a	8b cb		 mov	 ecx, ebx
  0002c	3b 83 30 09 00
	00		 cmp	 eax, DWORD PTR [ebx+2352]
  00032	8b 03		 mov	 eax, DWORD PTR [ebx]

; 737  : 		return;

  00034	0f 87 96 00 00
	00		 ja	 $LN11@OnGroundSt

; 738  : 	}
; 739  : 
; 740  : 	D3DXVECTOR3 vPos = GetPosition();

  0003a	56		 push	 esi
  0003b	57		 push	 edi
  0003c	ff 50 70	 call	 DWORD PTR [eax+112]

; 741  : 	float fMapHeight = pStage->GetMapHeight( vPos.x, vPos.z, NULL, false, vPos.y+m_fExtentsOffSet );

  0003f	f3 0f 10 83 58
	09 00 00	 movss	 xmm0, DWORD PTR [ebx+2392]
  00047	8b f0		 mov	 esi, eax
  00049	8d 7d f4	 lea	 edi, DWORD PTR _vPos$[ebp]
  0004c	a5		 movsd
  0004d	a5		 movsd
  0004e	33 c0		 xor	 eax, eax
  00050	50		 push	 eax
  00051	a5		 movsd
  00052	f3 0f 10 4d f8	 movss	 xmm1, DWORD PTR _vPos$[ebp+4]
  00057	51		 push	 ecx
  00058	0f 5a c0	 cvtps2pd xmm0, xmm0
  0005b	0f 5a c9	 cvtps2pd xmm1, xmm1
  0005e	f2 0f 58 c1	 addsd	 xmm0, xmm1
  00062	66 0f 5a c0	 cvtpd2ps xmm0, xmm0
  00066	f3 0f 11 04 24	 movss	 DWORD PTR [esp], xmm0
  0006b	f3 0f 10 45 fc	 movss	 xmm0, DWORD PTR _vPos$[ebp+8]
  00070	50		 push	 eax
  00071	50		 push	 eax
  00072	51		 push	 ecx
  00073	51		 push	 ecx
  00074	8b 4d 0c	 mov	 ecx, DWORD PTR _pStage$[ebp]
  00077	f3 0f 11 44 24
	04		 movss	 DWORD PTR [esp+4], xmm0
  0007d	f3 0f 10 45 f4	 movss	 xmm0, DWORD PTR _vPos$[ebp]
  00082	f3 0f 11 04 24	 movss	 DWORD PTR [esp], xmm0
  00087	e8 00 00 00 00	 call	 ?GetMapHeight@ioPlayStage@@QAEMMMPBVioGameEntity@@_NM1@Z ; ioPlayStage::GetMapHeight
  0008c	d9 5d 0c	 fstp	 DWORD PTR _fMapHeight$[ebp]

; 742  : 	if( vPos.y > fMapHeight )

  0008f	d9 45 0c	 fld	 DWORD PTR _fMapHeight$[ebp]
  00092	5f		 pop	 edi
  00093	d9 45 f8	 fld	 DWORD PTR _vPos$[ebp+4]
  00096	5e		 pop	 esi
  00097	df f1		 fcomip	 ST(1)
  00099	dd d8		 fstp	 ST(0)
  0009b	76 36		 jbe	 SHORT $LN1@OnGroundSt

; 743  : 	{
; 744  : 		float fGap = vPos.y - fMapHeight;
; 745  : 		if( fGap > m_fExtentsOffSet+FLOAT10 )

  0009d	b8 0a 00 00 00	 mov	 eax, 10			; 0000000aH
  000a2	d9 45 f8	 fld	 DWORD PTR _vPos$[ebp+4]
  000a5	d8 65 0c	 fsub	 DWORD PTR _fMapHeight$[ebp]
  000a8	d9 5d 0c	 fstp	 DWORD PTR tv225[ebp]
  000ab	d9 45 0c	 fld	 DWORD PTR tv225[ebp]
  000ae	89 45 0c	 mov	 DWORD PTR tv168[ebp], eax
  000b1	db 45 0c	 fild	 DWORD PTR tv168[ebp]
  000b4	85 c0		 test	 eax, eax
  000b6	79 06		 jns	 SHORT $LN9@OnGroundSt
  000b8	d8 05 00 00 00
	00		 fadd	 DWORD PTR __real@4f800000
$LN9@OnGroundSt:
  000be	d8 83 58 09 00
	00		 fadd	 DWORD PTR [ebx+2392]
  000c4	d9 c9		 fxch	 ST(1)
  000c6	df f1		 fcomip	 ST(1)
  000c8	dd d8		 fstp	 ST(0)
  000ca	76 07		 jbe	 SHORT $LN1@OnGroundSt

; 746  : 		{
; 747  : 			SetWeaponDead();

  000cc	8b cb		 mov	 ecx, ebx
$LN10@OnGroundSt:
  000ce	8b 03		 mov	 eax, DWORD PTR [ebx]
$LN11@OnGroundSt:
  000d0	ff 50 4c	 call	 DWORD PTR [eax+76]
$LN1@OnGroundSt:
  000d3	5b		 pop	 ebx

; 748  : 			return;
; 749  : 		}
; 750  : 	}
; 751  : }

  000d4	c9		 leave
  000d5	c2 08 00	 ret	 8
?OnGroundState@ioLobeliaWeapon@@IAEXMPAVioPlayStage@@@Z ENDP ; ioLobeliaWeapon::OnGroundState
_TEXT	ENDS
PUBLIC	?IsGroundState@ioLobeliaWeapon@@QBE_NXZ		; ioLobeliaWeapon::IsGroundState
; Function compile flags: /Ogsp
;	COMDAT ?IsGroundState@ioLobeliaWeapon@@QBE_NXZ
_TEXT	SEGMENT
?IsGroundState@ioLobeliaWeapon@@QBE_NXZ PROC		; ioLobeliaWeapon::IsGroundState, COMDAT
; _this$ = ecx

; 755  : 	if( m_State == TS_GROUND )

  00000	83 b9 94 08 00
	00 03		 cmp	 DWORD PTR [ecx+2196], 3
  00007	0f 94 c0	 sete	 al

; 756  : 		return true;
; 757  : 
; 758  : 	return false;
; 759  : }

  0000a	c3		 ret	 0
?IsGroundState@ioLobeliaWeapon@@QBE_NXZ ENDP		; ioLobeliaWeapon::IsGroundState
_TEXT	ENDS
PUBLIC	?GetTargetAirBuffList@ioLobeliaWeapon@@UBEABV?$vector@UBuffInfoStruct@@V?$allocator@UBuffInfoStruct@@@std@@@std@@XZ ; ioLobeliaWeapon::GetTargetAirBuffList
; Function compile flags: /Ogsp
;	COMDAT ?GetTargetAirBuffList@ioLobeliaWeapon@@UBEABV?$vector@UBuffInfoStruct@@V?$allocator@UBuffInfoStruct@@@std@@@std@@XZ
_TEXT	SEGMENT
?GetTargetAirBuffList@ioLobeliaWeapon@@UBEABV?$vector@UBuffInfoStruct@@V?$allocator@UBuffInfoStruct@@@std@@@std@@XZ PROC ; ioLobeliaWeapon::GetTargetAirBuffList, COMDAT
; _this$ = ecx

; 981  : 	if( m_State != TS_EXPLOSION )

  00000	83 b9 94 08 00
	00 04		 cmp	 DWORD PTR [ecx+2196], 4
  00007	74 0e		 je	 SHORT $LN1@GetTargetA

; 982  : 		return GetAttribute()->m_TargetAirBuffList;

  00009	8b 01		 mov	 eax, DWORD PTR [ecx]
  0000b	ff 90 3c 01 00
	00		 call	 DWORD PTR [eax+316]
  00011	05 d4 01 00 00	 add	 eax, 468		; 000001d4H

; 985  : }

  00016	c3		 ret	 0
$LN1@GetTargetA:

; 983  : 
; 984  : 	return m_LobeliaBuffList;

  00017	8d 81 18 0b 00
	00		 lea	 eax, DWORD PTR [ecx+2840]

; 985  : }

  0001d	c3		 ret	 0
?GetTargetAirBuffList@ioLobeliaWeapon@@UBEABV?$vector@UBuffInfoStruct@@V?$allocator@UBuffInfoStruct@@@std@@@std@@XZ ENDP ; ioLobeliaWeapon::GetTargetAirBuffList
_TEXT	ENDS
PUBLIC	?GetTargetBuffList@ioLobeliaWeapon@@UBEABV?$vector@UBuffInfoStruct@@V?$allocator@UBuffInfoStruct@@@std@@@std@@XZ ; ioLobeliaWeapon::GetTargetBuffList
; Function compile flags: /Ogsp
;	COMDAT ?GetTargetBuffList@ioLobeliaWeapon@@UBEABV?$vector@UBuffInfoStruct@@V?$allocator@UBuffInfoStruct@@@std@@@std@@XZ
_TEXT	SEGMENT
?GetTargetBuffList@ioLobeliaWeapon@@UBEABV?$vector@UBuffInfoStruct@@V?$allocator@UBuffInfoStruct@@@std@@@std@@XZ PROC ; ioLobeliaWeapon::GetTargetBuffList, COMDAT
; _this$ = ecx

; 989  : 	if( m_State != TS_EXPLOSION )

  00000	83 b9 94 08 00
	00 04		 cmp	 DWORD PTR [ecx+2196], 4
  00007	74 0e		 je	 SHORT $LN1@GetTargetB

; 990  : 		return GetAttribute()->m_TargetBuffList;

  00009	8b 01		 mov	 eax, DWORD PTR [ecx]
  0000b	ff 90 3c 01 00
	00		 call	 DWORD PTR [eax+316]
  00011	05 e4 01 00 00	 add	 eax, 484		; 000001e4H

; 993  : }

  00016	c3		 ret	 0
$LN1@GetTargetB:

; 991  : 
; 992  : 	return m_LobeliaBuffList;

  00017	8d 81 18 0b 00
	00		 lea	 eax, DWORD PTR [ecx+2840]

; 993  : }

  0001d	c3		 ret	 0
?GetTargetBuffList@ioLobeliaWeapon@@UBEABV?$vector@UBuffInfoStruct@@V?$allocator@UBuffInfoStruct@@@std@@@std@@XZ ENDP ; ioLobeliaWeapon::GetTargetBuffList
_TEXT	ENDS
PUBLIC	?GetTargetDownBuffList@ioLobeliaWeapon@@UBEABV?$vector@UBuffInfoStruct@@V?$allocator@UBuffInfoStruct@@@std@@@std@@XZ ; ioLobeliaWeapon::GetTargetDownBuffList
; Function compile flags: /Ogsp
;	COMDAT ?GetTargetDownBuffList@ioLobeliaWeapon@@UBEABV?$vector@UBuffInfoStruct@@V?$allocator@UBuffInfoStruct@@@std@@@std@@XZ
_TEXT	SEGMENT
?GetTargetDownBuffList@ioLobeliaWeapon@@UBEABV?$vector@UBuffInfoStruct@@V?$allocator@UBuffInfoStruct@@@std@@@std@@XZ PROC ; ioLobeliaWeapon::GetTargetDownBuffList, COMDAT
; _this$ = ecx

; 997  : 	if( m_State != TS_EXPLOSION )

  00000	83 b9 94 08 00
	00 04		 cmp	 DWORD PTR [ecx+2196], 4
  00007	74 0e		 je	 SHORT $LN1@GetTargetD

; 998  : 		return GetAttribute()->m_TargetDownBuffList;

  00009	8b 01		 mov	 eax, DWORD PTR [ecx]
  0000b	ff 90 3c 01 00
	00		 call	 DWORD PTR [eax+316]
  00011	05 f4 01 00 00	 add	 eax, 500		; 000001f4H

; 1001 : }

  00016	c3		 ret	 0
$LN1@GetTargetD:

; 999  : 
; 1000 : 	return m_LobeliaBuffList;

  00017	8d 81 18 0b 00
	00		 lea	 eax, DWORD PTR [ecx+2840]

; 1001 : }

  0001d	c3		 ret	 0
?GetTargetDownBuffList@ioLobeliaWeapon@@UBEABV?$vector@UBuffInfoStruct@@V?$allocator@UBuffInfoStruct@@@std@@@std@@XZ ENDP ; ioLobeliaWeapon::GetTargetDownBuffList
_TEXT	ENDS
PUBLIC	?_Inside@?$vector@UBuffInfoStruct@@V?$allocator@UBuffInfoStruct@@@std@@@std@@IBE_NPBUBuffInfoStruct@@@Z ; std::vector<BuffInfoStruct,std::allocator<BuffInfoStruct> >::_Inside
; Function compile flags: /Ogsp
; File c:\program files (x86)\microsoft visual studio 10.0\vc\include\vector
;	COMDAT ?_Inside@?$vector@UBuffInfoStruct@@V?$allocator@UBuffInfoStruct@@@std@@@std@@IBE_NPBUBuffInfoStruct@@@Z
_TEXT	SEGMENT
__Ptr$ = 8						; size = 4
?_Inside@?$vector@UBuffInfoStruct@@V?$allocator@UBuffInfoStruct@@@std@@@std@@IBE_NPBUBuffInfoStruct@@@Z PROC ; std::vector<BuffInfoStruct,std::allocator<BuffInfoStruct> >::_Inside, COMDAT
; _this$ = ecx

; 1285 : 		{	// test if _Ptr points inside vector

  00000	55		 push	 ebp
  00001	8b ec		 mov	 ebp, esp

; 1286 : 		return (_Ptr < this->_Mylast && this->_Myfirst <= _Ptr);

  00003	8b 45 08	 mov	 eax, DWORD PTR __Ptr$[ebp]
  00006	3b 41 04	 cmp	 eax, DWORD PTR [ecx+4]
  00009	73 09		 jae	 SHORT $LN3@Inside
  0000b	39 01		 cmp	 DWORD PTR [ecx], eax
  0000d	77 05		 ja	 SHORT $LN3@Inside
  0000f	33 c0		 xor	 eax, eax
  00011	40		 inc	 eax
  00012	eb 02		 jmp	 SHORT $LN4@Inside
$LN3@Inside:
  00014	33 c0		 xor	 eax, eax
$LN4@Inside:

; 1287 : 		}

  00016	5d		 pop	 ebp
  00017	c2 04 00	 ret	 4
?_Inside@?$vector@UBuffInfoStruct@@V?$allocator@UBuffInfoStruct@@@std@@@std@@IBE_NPBUBuffInfoStruct@@@Z ENDP ; std::vector<BuffInfoStruct,std::allocator<BuffInfoStruct> >::_Inside
_TEXT	ENDS
PUBLIC	?_Orphan_range@?$vector@UBuffInfoStruct@@V?$allocator@UBuffInfoStruct@@@std@@@std@@IBEXPAUBuffInfoStruct@@0@Z ; std::vector<BuffInfoStruct,std::allocator<BuffInfoStruct> >::_Orphan_range
; Function compile flags: /Ogsp
;	COMDAT ?_Orphan_range@?$vector@UBuffInfoStruct@@V?$allocator@UBuffInfoStruct@@@std@@@std@@IBEXPAUBuffInfoStruct@@0@Z
_TEXT	SEGMENT
___formal$ = 8						; size = 4
___formal$ = 12						; size = 4
?_Orphan_range@?$vector@UBuffInfoStruct@@V?$allocator@UBuffInfoStruct@@@std@@@std@@IBEXPAUBuffInfoStruct@@0@Z PROC ; std::vector<BuffInfoStruct,std::allocator<BuffInfoStruct> >::_Orphan_range, COMDAT
; _this$ = ecx

; 1454 : 		}

  00000	c2 08 00	 ret	 8
?_Orphan_range@?$vector@UBuffInfoStruct@@V?$allocator@UBuffInfoStruct@@@std@@@std@@IBEXPAUBuffInfoStruct@@0@Z ENDP ; std::vector<BuffInfoStruct,std::allocator<BuffInfoStruct> >::_Orphan_range
_TEXT	ENDS
PUBLIC	??0D3DXVECTOR3@@QAE@XZ				; D3DXVECTOR3::D3DXVECTOR3
; Function compile flags: /Ogsp
; File c:\program files (x86)\microsoft directx sdk (june 2010)\include\d3dx9math.h
;	COMDAT ??0D3DXVECTOR3@@QAE@XZ
_TEXT	SEGMENT
??0D3DXVECTOR3@@QAE@XZ PROC				; D3DXVECTOR3::D3DXVECTOR3, COMDAT
; _this$ = ecx

; 165  :     D3DXVECTOR3() {};

  00000	8b c1		 mov	 eax, ecx
  00002	c3		 ret	 0
??0D3DXVECTOR3@@QAE@XZ ENDP				; D3DXVECTOR3::D3DXVECTOR3
_TEXT	ENDS
PUBLIC	??0D3DXQUATERNION@@QAE@XZ			; D3DXQUATERNION::D3DXQUATERNION
; Function compile flags: /Ogsp
;	COMDAT ??0D3DXQUATERNION@@QAE@XZ
_TEXT	SEGMENT
??0D3DXQUATERNION@@QAE@XZ PROC				; D3DXQUATERNION::D3DXQUATERNION, COMDAT
; _this$ = ecx

; 429  :     D3DXQUATERNION() {}

  00000	8b c1		 mov	 eax, ecx
  00002	c3		 ret	 0
??0D3DXQUATERNION@@QAE@XZ ENDP				; D3DXQUATERNION::D3DXQUATERNION
_TEXT	ENDS
PUBLIC	__real@3f91df46a2526c7a
PUBLIC	??$DEGtoRAD@M@@YAMM@Z				; DEGtoRAD<float>
;	COMDAT __real@3f91df46a2526c7a
; File d:\lost saga for developer\youtube\tutorial\source\src\lsclient\veryoftenusedefine.h
CONST	SEGMENT
__real@3f91df46a2526c7a DQ 03f91df46a2526c7ar	; 0.0174533
; Function compile flags: /Ogsp
CONST	ENDS
;	COMDAT ??$DEGtoRAD@M@@YAMM@Z
_TEXT	SEGMENT
tv129 = 8						; size = 4
_val$ = 8						; size = 4
??$DEGtoRAD@M@@YAMM@Z PROC				; DEGtoRAD<float>, COMDAT

; 20   : type  DEGtoRAD (type val) {return (type) (val * 0.0174532925199);}

  00000	55		 push	 ebp
  00001	8b ec		 mov	 ebp, esp
  00003	d9 45 08	 fld	 DWORD PTR _val$[ebp]
  00006	dc 0d 00 00 00
	00		 fmul	 QWORD PTR __real@3f91df46a2526c7a
  0000c	d9 5d 08	 fstp	 DWORD PTR tv129[ebp]
  0000f	d9 45 08	 fld	 DWORD PTR tv129[ebp]
  00012	5d		 pop	 ebp
  00013	c3		 ret	 0
??$DEGtoRAD@M@@YAMM@Z ENDP				; DEGtoRAD<float>
_TEXT	ENDS
PUBLIC	??$addressof@$$CBUBuffInfoStruct@@@std@@YAPBUBuffInfoStruct@@ABU1@@Z ; std::addressof<BuffInfoStruct const >
; Function compile flags: /Ogsp
; File c:\program files (x86)\microsoft visual studio 10.0\vc\include\xmemory
;	COMDAT ??$addressof@$$CBUBuffInfoStruct@@@std@@YAPBUBuffInfoStruct@@ABU1@@Z
_TEXT	SEGMENT
__Val$ = 8						; size = 4
??$addressof@$$CBUBuffInfoStruct@@@std@@YAPBUBuffInfoStruct@@ABU1@@Z PROC ; std::addressof<BuffInfoStruct const >, COMDAT

; 110  : 	{	// return address of _Val

  00000	55		 push	 ebp
  00001	8b ec		 mov	 ebp, esp

; 111  : 	return ((_Ty *) &(char&)_Val);

  00003	8b 45 08	 mov	 eax, DWORD PTR __Val$[ebp]

; 112  : 	}

  00006	5d		 pop	 ebp
  00007	c3		 ret	 0
??$addressof@$$CBUBuffInfoStruct@@@std@@YAPBUBuffInfoStruct@@ABU1@@Z ENDP ; std::addressof<BuffInfoStruct const >
_TEXT	ENDS
PUBLIC	??$forward@ABUBuffInfoStruct@@@std@@YAABUBuffInfoStruct@@ABU1@@Z ; std::forward<BuffInfoStruct const &>
; Function compile flags: /Ogsp
; File c:\program files (x86)\microsoft visual studio 10.0\vc\include\utility
;	COMDAT ??$forward@ABUBuffInfoStruct@@@std@@YAABUBuffInfoStruct@@ABU1@@Z
_TEXT	SEGMENT
__Arg$ = 8						; size = 4
??$forward@ABUBuffInfoStruct@@@std@@YAABUBuffInfoStruct@@ABU1@@Z PROC ; std::forward<BuffInfoStruct const &>, COMDAT

; 78   : 	{	// forward _Arg, given explicitly specified type parameter

  00000	55		 push	 ebp
  00001	8b ec		 mov	 ebp, esp

; 79   : 	return ((_Ty&&)_Arg);

  00003	8b 45 08	 mov	 eax, DWORD PTR __Arg$[ebp]

; 80   : 	}

  00006	5d		 pop	 ebp
  00007	c3		 ret	 0
??$forward@ABUBuffInfoStruct@@@std@@YAABUBuffInfoStruct@@ABU1@@Z ENDP ; std::forward<BuffInfoStruct const &>
_TEXT	ENDS
PUBLIC	??$_Val_type@PAUBuffInfoStruct@@@std@@YAPAUBuffInfoStruct@@PAU1@@Z ; std::_Val_type<BuffInfoStruct *>
; Function compile flags: /Ogsp
; File c:\program files (x86)\microsoft visual studio 10.0\vc\include\xutility
;	COMDAT ??$_Val_type@PAUBuffInfoStruct@@@std@@YAPAUBuffInfoStruct@@PAU1@@Z
_TEXT	SEGMENT
___formal$ = 8						; size = 4
??$_Val_type@PAUBuffInfoStruct@@@std@@YAPAUBuffInfoStruct@@PAU1@@Z PROC ; std::_Val_type<BuffInfoStruct *>, COMDAT

; 790  : 	return (0);

  00000	33 c0		 xor	 eax, eax

; 791  : 	}

  00002	c3		 ret	 0
??$_Val_type@PAUBuffInfoStruct@@@std@@YAPAUBuffInfoStruct@@PAU1@@Z ENDP ; std::_Val_type<BuffInfoStruct *>
_TEXT	ENDS
PUBLIC	??0D3DXVECTOR3@@QAE@MMM@Z			; D3DXVECTOR3::D3DXVECTOR3
; Function compile flags: /Ogsp
; File c:\program files (x86)\microsoft directx sdk (june 2010)\include\d3dx9math.inl
;	COMDAT ??0D3DXVECTOR3@@QAE@MMM@Z
_TEXT	SEGMENT
_fx$ = 8						; size = 4
_fy$ = 12						; size = 4
_fz$ = 16						; size = 4
??0D3DXVECTOR3@@QAE@MMM@Z PROC				; D3DXVECTOR3::D3DXVECTOR3, COMDAT
; _this$ = ecx

; 303  : {

  00000	55		 push	 ebp
  00001	8b ec		 mov	 ebp, esp

; 304  :     x = fx;

  00003	f3 0f 10 45 08	 movss	 xmm0, DWORD PTR _fx$[ebp]
  00008	8b c1		 mov	 eax, ecx
  0000a	f3 0f 11 00	 movss	 DWORD PTR [eax], xmm0

; 305  :     y = fy;

  0000e	f3 0f 10 45 0c	 movss	 xmm0, DWORD PTR _fy$[ebp]
  00013	f3 0f 11 40 04	 movss	 DWORD PTR [eax+4], xmm0

; 306  :     z = fz;

  00018	f3 0f 10 45 10	 movss	 xmm0, DWORD PTR _fz$[ebp]
  0001d	f3 0f 11 40 08	 movss	 DWORD PTR [eax+8], xmm0

; 307  : }

  00022	5d		 pop	 ebp
  00023	c2 0c 00	 ret	 12			; 0000000cH
??0D3DXVECTOR3@@QAE@MMM@Z ENDP				; D3DXVECTOR3::D3DXVECTOR3
_TEXT	ENDS
PUBLIC	??YD3DXVECTOR3@@QAEAAU0@ABU0@@Z			; D3DXVECTOR3::operator+=
; Function compile flags: /Ogsp
;	COMDAT ??YD3DXVECTOR3@@QAEAAU0@ABU0@@Z
_TEXT	SEGMENT
_v$ = 8							; size = 4
??YD3DXVECTOR3@@QAEAAU0@ABU0@@Z PROC			; D3DXVECTOR3::operator+=, COMDAT
; _this$ = ecx

; 327  : {

  00000	55		 push	 ebp
  00001	8b ec		 mov	 ebp, esp
  00003	8b c1		 mov	 eax, ecx

; 328  :     x += v.x;

  00005	8b 4d 08	 mov	 ecx, DWORD PTR _v$[ebp]
  00008	f3 0f 10 01	 movss	 xmm0, DWORD PTR [ecx]
  0000c	f3 0f 10 08	 movss	 xmm1, DWORD PTR [eax]
  00010	0f 5a c0	 cvtps2pd xmm0, xmm0
  00013	0f 5a c9	 cvtps2pd xmm1, xmm1
  00016	f2 0f 58 c1	 addsd	 xmm0, xmm1

; 329  :     y += v.y;

  0001a	f3 0f 10 48 04	 movss	 xmm1, DWORD PTR [eax+4]
  0001f	66 0f 5a c0	 cvtpd2ps xmm0, xmm0
  00023	f3 0f 11 00	 movss	 DWORD PTR [eax], xmm0
  00027	f3 0f 10 41 04	 movss	 xmm0, DWORD PTR [ecx+4]
  0002c	0f 5a c0	 cvtps2pd xmm0, xmm0
  0002f	0f 5a c9	 cvtps2pd xmm1, xmm1
  00032	f2 0f 58 c1	 addsd	 xmm0, xmm1

; 330  :     z += v.z;

  00036	f3 0f 10 48 08	 movss	 xmm1, DWORD PTR [eax+8]
  0003b	66 0f 5a c0	 cvtpd2ps xmm0, xmm0
  0003f	f3 0f 11 40 04	 movss	 DWORD PTR [eax+4], xmm0
  00044	f3 0f 10 41 08	 movss	 xmm0, DWORD PTR [ecx+8]
  00049	0f 5a c0	 cvtps2pd xmm0, xmm0
  0004c	0f 5a c9	 cvtps2pd xmm1, xmm1
  0004f	f2 0f 58 c1	 addsd	 xmm0, xmm1
  00053	66 0f 5a c0	 cvtpd2ps xmm0, xmm0
  00057	f3 0f 11 40 08	 movss	 DWORD PTR [eax+8], xmm0

; 331  :     return *this;
; 332  : }

  0005c	5d		 pop	 ebp
  0005d	c2 04 00	 ret	 4
??YD3DXVECTOR3@@QAEAAU0@ABU0@@Z ENDP			; D3DXVECTOR3::operator+=
_TEXT	ENDS
PUBLIC	??$forward@UBuffInfoStruct@@@std@@YA$$QAUBuffInfoStruct@@AAU1@@Z ; std::forward<BuffInfoStruct>
; Function compile flags: /Ogsp
; File c:\program files (x86)\microsoft visual studio 10.0\vc\include\utility
;	COMDAT ??$forward@UBuffInfoStruct@@@std@@YA$$QAUBuffInfoStruct@@AAU1@@Z
_TEXT	SEGMENT
__Arg$ = 8						; size = 4
??$forward@UBuffInfoStruct@@@std@@YA$$QAUBuffInfoStruct@@AAU1@@Z PROC ; std::forward<BuffInfoStruct>, COMDAT

; 78   : 	{	// forward _Arg, given explicitly specified type parameter

  00000	55		 push	 ebp
  00001	8b ec		 mov	 ebp, esp

; 79   : 	return ((_Ty&&)_Arg);

  00003	8b 45 08	 mov	 eax, DWORD PTR __Arg$[ebp]

; 80   : 	}

  00006	5d		 pop	 ebp
  00007	c3		 ret	 0
??$forward@UBuffInfoStruct@@@std@@YA$$QAUBuffInfoStruct@@AAU1@@Z ENDP ; std::forward<BuffInfoStruct>
_TEXT	ENDS
PUBLIC	??ZD3DXVECTOR3@@QAEAAU0@ABU0@@Z			; D3DXVECTOR3::operator-=
; Function compile flags: /Ogsp
; File c:\program files (x86)\microsoft directx sdk (june 2010)\include\d3dx9math.inl
;	COMDAT ??ZD3DXVECTOR3@@QAEAAU0@ABU0@@Z
_TEXT	SEGMENT
_v$ = 8							; size = 4
??ZD3DXVECTOR3@@QAEAAU0@ABU0@@Z PROC			; D3DXVECTOR3::operator-=, COMDAT
; _this$ = ecx

; 336  : {

  00000	55		 push	 ebp
  00001	8b ec		 mov	 ebp, esp
  00003	8b c1		 mov	 eax, ecx

; 337  :     x -= v.x;

  00005	8b 4d 08	 mov	 ecx, DWORD PTR _v$[ebp]
  00008	f3 0f 10 09	 movss	 xmm1, DWORD PTR [ecx]
  0000c	f3 0f 10 00	 movss	 xmm0, DWORD PTR [eax]
  00010	0f 5a c0	 cvtps2pd xmm0, xmm0
  00013	0f 5a c9	 cvtps2pd xmm1, xmm1
  00016	f2 0f 5c c1	 subsd	 xmm0, xmm1
  0001a	66 0f 5a c0	 cvtpd2ps xmm0, xmm0
  0001e	f3 0f 11 00	 movss	 DWORD PTR [eax], xmm0

; 338  :     y -= v.y;

  00022	f3 0f 10 49 04	 movss	 xmm1, DWORD PTR [ecx+4]
  00027	f3 0f 10 40 04	 movss	 xmm0, DWORD PTR [eax+4]
  0002c	0f 5a c0	 cvtps2pd xmm0, xmm0
  0002f	0f 5a c9	 cvtps2pd xmm1, xmm1
  00032	f2 0f 5c c1	 subsd	 xmm0, xmm1
  00036	66 0f 5a c0	 cvtpd2ps xmm0, xmm0
  0003a	f3 0f 11 40 04	 movss	 DWORD PTR [eax+4], xmm0

; 339  :     z -= v.z;

  0003f	f3 0f 10 40 08	 movss	 xmm0, DWORD PTR [eax+8]
  00044	f3 0f 10 49 08	 movss	 xmm1, DWORD PTR [ecx+8]
  00049	0f 5a c0	 cvtps2pd xmm0, xmm0
  0004c	0f 5a c9	 cvtps2pd xmm1, xmm1
  0004f	f2 0f 5c c1	 subsd	 xmm0, xmm1
  00053	66 0f 5a c0	 cvtpd2ps xmm0, xmm0
  00057	f3 0f 11 40 08	 movss	 DWORD PTR [eax+8], xmm0

; 340  :     return *this;
; 341  : }

  0005c	5d		 pop	 ebp
  0005d	c2 04 00	 ret	 4
??ZD3DXVECTOR3@@QAEAAU0@ABU0@@Z ENDP			; D3DXVECTOR3::operator-=
_TEXT	ENDS
PUBLIC	??XD3DXVECTOR3@@QAEAAU0@M@Z			; D3DXVECTOR3::operator*=
; Function compile flags: /Ogsp
;	COMDAT ??XD3DXVECTOR3@@QAEAAU0@M@Z
_TEXT	SEGMENT
_f$ = 8							; size = 4
??XD3DXVECTOR3@@QAEAAU0@M@Z PROC			; D3DXVECTOR3::operator*=, COMDAT
; _this$ = ecx

; 345  : {

  00000	55		 push	 ebp
  00001	8b ec		 mov	 ebp, esp

; 346  :     x *= f;

  00003	f3 0f 10 4d 08	 movss	 xmm1, DWORD PTR _f$[ebp]
  00008	8b c1		 mov	 eax, ecx
  0000a	f3 0f 10 00	 movss	 xmm0, DWORD PTR [eax]
  0000e	0f 5a c0	 cvtps2pd xmm0, xmm0
  00011	0f 5a c9	 cvtps2pd xmm1, xmm1
  00014	f2 0f 59 c1	 mulsd	 xmm0, xmm1

; 347  :     y *= f;

  00018	f3 0f 10 4d 08	 movss	 xmm1, DWORD PTR _f$[ebp]
  0001d	66 0f 5a c0	 cvtpd2ps xmm0, xmm0
  00021	f3 0f 11 00	 movss	 DWORD PTR [eax], xmm0
  00025	f3 0f 10 40 04	 movss	 xmm0, DWORD PTR [eax+4]
  0002a	0f 5a c0	 cvtps2pd xmm0, xmm0
  0002d	0f 5a c9	 cvtps2pd xmm1, xmm1
  00030	f2 0f 59 c1	 mulsd	 xmm0, xmm1

; 348  :     z *= f;

  00034	f3 0f 10 48 08	 movss	 xmm1, DWORD PTR [eax+8]
  00039	66 0f 5a c0	 cvtpd2ps xmm0, xmm0
  0003d	f3 0f 11 40 04	 movss	 DWORD PTR [eax+4], xmm0
  00042	f3 0f 10 45 08	 movss	 xmm0, DWORD PTR _f$[ebp]
  00047	0f 5a c0	 cvtps2pd xmm0, xmm0
  0004a	0f 5a c9	 cvtps2pd xmm1, xmm1
  0004d	f2 0f 59 c1	 mulsd	 xmm0, xmm1
  00051	f2 0f 5a c0	 cvtsd2ss xmm0, xmm0
  00055	f3 0f 11 40 08	 movss	 DWORD PTR [eax+8], xmm0

; 349  :     return *this;
; 350  : }

  0005a	5d		 pop	 ebp
  0005b	c2 04 00	 ret	 4
??XD3DXVECTOR3@@QAEAAU0@M@Z ENDP			; D3DXVECTOR3::operator*=
_TEXT	ENDS
PUBLIC	__mask@@NegFloat@
PUBLIC	??GD3DXVECTOR3@@QBE?AU0@XZ			; D3DXVECTOR3::operator-
;	COMDAT __mask@@NegFloat@
CONST	SEGMENT
__mask@@NegFloat@ DB 00H, 00H, 00H, 080H, 00H, 00H, 00H, 080H, 00H, 00H, 00H
	DB	080H, 00H, 00H, 00H, 080H
; Function compile flags: /Ogsp
CONST	ENDS
;	COMDAT ??GD3DXVECTOR3@@QBE?AU0@XZ
_TEXT	SEGMENT
___$ReturnUdt$ = 8					; size = 4
??GD3DXVECTOR3@@QBE?AU0@XZ PROC				; D3DXVECTOR3::operator-, COMDAT
; _this$ = ecx

; 372  : {

  00000	55		 push	 ebp
  00001	8b ec		 mov	 ebp, esp

; 373  :     return D3DXVECTOR3(-x, -y, -z);

  00003	f3 0f 10 05 00
	00 00 00	 movss	 xmm0, DWORD PTR __mask@@NegFloat@
  0000b	8b 45 08	 mov	 eax, DWORD PTR ___$ReturnUdt$[ebp]
  0000e	f3 0f 10 09	 movss	 xmm1, DWORD PTR [ecx]
  00012	0f 57 c8	 xorps	 xmm1, xmm0
  00015	f3 0f 11 08	 movss	 DWORD PTR [eax], xmm1
  00019	f3 0f 10 49 04	 movss	 xmm1, DWORD PTR [ecx+4]
  0001e	0f 57 c8	 xorps	 xmm1, xmm0
  00021	f3 0f 11 48 04	 movss	 DWORD PTR [eax+4], xmm1
  00026	f3 0f 10 49 08	 movss	 xmm1, DWORD PTR [ecx+8]
  0002b	0f 57 c8	 xorps	 xmm1, xmm0
  0002e	f3 0f 11 48 08	 movss	 DWORD PTR [eax+8], xmm1

; 374  : }

  00033	5d		 pop	 ebp
  00034	c2 04 00	 ret	 4
??GD3DXVECTOR3@@QBE?AU0@XZ ENDP				; D3DXVECTOR3::operator-
_TEXT	ENDS
PUBLIC	??HD3DXVECTOR3@@QBE?AU0@ABU0@@Z			; D3DXVECTOR3::operator+
; Function compile flags: /Ogsp
;	COMDAT ??HD3DXVECTOR3@@QBE?AU0@ABU0@@Z
_TEXT	SEGMENT
___$ReturnUdt$ = 8					; size = 4
_v$ = 12						; size = 4
??HD3DXVECTOR3@@QBE?AU0@ABU0@@Z PROC			; D3DXVECTOR3::operator+, COMDAT
; _this$ = ecx

; 380  : {

  00000	55		 push	 ebp
  00001	8b ec		 mov	 ebp, esp

; 381  :     return D3DXVECTOR3(x + v.x, y + v.y, z + v.z);

  00003	8b 55 0c	 mov	 edx, DWORD PTR _v$[ebp]
  00006	f3 0f 10 02	 movss	 xmm0, DWORD PTR [edx]
  0000a	f3 0f 10 09	 movss	 xmm1, DWORD PTR [ecx]
  0000e	8b 45 08	 mov	 eax, DWORD PTR ___$ReturnUdt$[ebp]
  00011	0f 5a c0	 cvtps2pd xmm0, xmm0
  00014	0f 5a c9	 cvtps2pd xmm1, xmm1
  00017	f2 0f 58 c1	 addsd	 xmm0, xmm1
  0001b	f3 0f 10 49 04	 movss	 xmm1, DWORD PTR [ecx+4]
  00020	66 0f 5a c0	 cvtpd2ps xmm0, xmm0
  00024	f3 0f 11 00	 movss	 DWORD PTR [eax], xmm0
  00028	f3 0f 10 42 04	 movss	 xmm0, DWORD PTR [edx+4]
  0002d	0f 5a c0	 cvtps2pd xmm0, xmm0
  00030	0f 5a c9	 cvtps2pd xmm1, xmm1
  00033	f2 0f 58 c1	 addsd	 xmm0, xmm1
  00037	f3 0f 10 49 08	 movss	 xmm1, DWORD PTR [ecx+8]
  0003c	66 0f 5a c0	 cvtpd2ps xmm0, xmm0
  00040	f3 0f 11 40 04	 movss	 DWORD PTR [eax+4], xmm0
  00045	f3 0f 10 42 08	 movss	 xmm0, DWORD PTR [edx+8]
  0004a	0f 5a c0	 cvtps2pd xmm0, xmm0
  0004d	0f 5a c9	 cvtps2pd xmm1, xmm1
  00050	f2 0f 58 c1	 addsd	 xmm0, xmm1
  00054	66 0f 5a c0	 cvtpd2ps xmm0, xmm0
  00058	f3 0f 11 40 08	 movss	 DWORD PTR [eax+8], xmm0

; 382  : }

  0005d	5d		 pop	 ebp
  0005e	c2 08 00	 ret	 8
??HD3DXVECTOR3@@QBE?AU0@ABU0@@Z ENDP			; D3DXVECTOR3::operator+
_TEXT	ENDS
PUBLIC	??GD3DXVECTOR3@@QBE?AU0@ABU0@@Z			; D3DXVECTOR3::operator-
; Function compile flags: /Ogsp
;	COMDAT ??GD3DXVECTOR3@@QBE?AU0@ABU0@@Z
_TEXT	SEGMENT
___$ReturnUdt$ = 8					; size = 4
_v$ = 12						; size = 4
??GD3DXVECTOR3@@QBE?AU0@ABU0@@Z PROC			; D3DXVECTOR3::operator-, COMDAT
; _this$ = ecx

; 386  : {

  00000	55		 push	 ebp
  00001	8b ec		 mov	 ebp, esp

; 387  :     return D3DXVECTOR3(x - v.x, y - v.y, z - v.z);

  00003	8b 55 0c	 mov	 edx, DWORD PTR _v$[ebp]
  00006	f3 0f 10 01	 movss	 xmm0, DWORD PTR [ecx]
  0000a	f3 0f 10 0a	 movss	 xmm1, DWORD PTR [edx]
  0000e	8b 45 08	 mov	 eax, DWORD PTR ___$ReturnUdt$[ebp]
  00011	0f 5a c0	 cvtps2pd xmm0, xmm0
  00014	0f 5a c9	 cvtps2pd xmm1, xmm1
  00017	f2 0f 5c c1	 subsd	 xmm0, xmm1
  0001b	f3 0f 10 4a 04	 movss	 xmm1, DWORD PTR [edx+4]
  00020	66 0f 5a c0	 cvtpd2ps xmm0, xmm0
  00024	f3 0f 11 00	 movss	 DWORD PTR [eax], xmm0
  00028	f3 0f 10 41 04	 movss	 xmm0, DWORD PTR [ecx+4]
  0002d	0f 5a c0	 cvtps2pd xmm0, xmm0
  00030	0f 5a c9	 cvtps2pd xmm1, xmm1
  00033	f2 0f 5c c1	 subsd	 xmm0, xmm1
  00037	f3 0f 10 4a 08	 movss	 xmm1, DWORD PTR [edx+8]
  0003c	66 0f 5a c0	 cvtpd2ps xmm0, xmm0
  00040	f3 0f 11 40 04	 movss	 DWORD PTR [eax+4], xmm0
  00045	f3 0f 10 41 08	 movss	 xmm0, DWORD PTR [ecx+8]
  0004a	0f 5a c0	 cvtps2pd xmm0, xmm0
  0004d	0f 5a c9	 cvtps2pd xmm1, xmm1
  00050	f2 0f 5c c1	 subsd	 xmm0, xmm1
  00054	66 0f 5a c0	 cvtpd2ps xmm0, xmm0
  00058	f3 0f 11 40 08	 movss	 DWORD PTR [eax+8], xmm0

; 388  : }

  0005d	5d		 pop	 ebp
  0005e	c2 08 00	 ret	 8
??GD3DXVECTOR3@@QBE?AU0@ABU0@@Z ENDP			; D3DXVECTOR3::operator-
_TEXT	ENDS
PUBLIC	??DD3DXVECTOR3@@QBE?AU0@M@Z			; D3DXVECTOR3::operator*
; Function compile flags: /Ogsp
;	COMDAT ??DD3DXVECTOR3@@QBE?AU0@M@Z
_TEXT	SEGMENT
___$ReturnUdt$ = 8					; size = 4
_f$ = 12						; size = 4
??DD3DXVECTOR3@@QBE?AU0@M@Z PROC			; D3DXVECTOR3::operator*, COMDAT
; _this$ = ecx

; 392  : {

  00000	55		 push	 ebp
  00001	8b ec		 mov	 ebp, esp

; 393  :     return D3DXVECTOR3(x * f, y * f, z * f);

  00003	f3 0f 10 4d 0c	 movss	 xmm1, DWORD PTR _f$[ebp]
  00008	f3 0f 10 01	 movss	 xmm0, DWORD PTR [ecx]
  0000c	8b 45 08	 mov	 eax, DWORD PTR ___$ReturnUdt$[ebp]
  0000f	0f 5a c0	 cvtps2pd xmm0, xmm0
  00012	0f 5a c9	 cvtps2pd xmm1, xmm1
  00015	f2 0f 59 c1	 mulsd	 xmm0, xmm1
  00019	f3 0f 10 4d 0c	 movss	 xmm1, DWORD PTR _f$[ebp]
  0001e	66 0f 5a c0	 cvtpd2ps xmm0, xmm0
  00022	f3 0f 11 00	 movss	 DWORD PTR [eax], xmm0
  00026	f3 0f 10 41 04	 movss	 xmm0, DWORD PTR [ecx+4]
  0002b	0f 5a c0	 cvtps2pd xmm0, xmm0
  0002e	0f 5a c9	 cvtps2pd xmm1, xmm1
  00031	f2 0f 59 c1	 mulsd	 xmm0, xmm1
  00035	f3 0f 10 4d 0c	 movss	 xmm1, DWORD PTR _f$[ebp]
  0003a	66 0f 5a c0	 cvtpd2ps xmm0, xmm0
  0003e	f3 0f 11 40 04	 movss	 DWORD PTR [eax+4], xmm0
  00043	f3 0f 10 41 08	 movss	 xmm0, DWORD PTR [ecx+8]
  00048	0f 5a c0	 cvtps2pd xmm0, xmm0
  0004b	0f 5a c9	 cvtps2pd xmm1, xmm1
  0004e	f2 0f 59 c1	 mulsd	 xmm0, xmm1
  00052	66 0f 5a c0	 cvtpd2ps xmm0, xmm0
  00056	f3 0f 11 40 08	 movss	 DWORD PTR [eax+8], xmm0

; 394  : }

  0005b	5d		 pop	 ebp
  0005c	c2 08 00	 ret	 8
??DD3DXVECTOR3@@QBE?AU0@M@Z ENDP			; D3DXVECTOR3::operator*
_TEXT	ENDS
PUBLIC	??D@YA?AUD3DXVECTOR3@@MABU0@@Z			; operator*
; Function compile flags: /Ogsp
;	COMDAT ??D@YA?AUD3DXVECTOR3@@MABU0@@Z
_TEXT	SEGMENT
___$ReturnUdt$ = 8					; size = 4
_f$ = 12						; size = 4
_v$ = 16						; size = 4
??D@YA?AUD3DXVECTOR3@@MABU0@@Z PROC			; operator*, COMDAT

; 406  : {

  00000	55		 push	 ebp
  00001	8b ec		 mov	 ebp, esp

; 407  :     return D3DXVECTOR3(f * v.x, f * v.y, f * v.z);

  00003	8b 4d 10	 mov	 ecx, DWORD PTR _v$[ebp]
  00006	f3 0f 10 4d 0c	 movss	 xmm1, DWORD PTR _f$[ebp]
  0000b	f3 0f 10 01	 movss	 xmm0, DWORD PTR [ecx]
  0000f	8b 45 08	 mov	 eax, DWORD PTR ___$ReturnUdt$[ebp]
  00012	0f 5a c0	 cvtps2pd xmm0, xmm0
  00015	0f 5a c9	 cvtps2pd xmm1, xmm1
  00018	f2 0f 59 c1	 mulsd	 xmm0, xmm1
  0001c	f3 0f 10 4d 0c	 movss	 xmm1, DWORD PTR _f$[ebp]
  00021	66 0f 5a c0	 cvtpd2ps xmm0, xmm0
  00025	f3 0f 11 00	 movss	 DWORD PTR [eax], xmm0
  00029	f3 0f 10 41 04	 movss	 xmm0, DWORD PTR [ecx+4]
  0002e	0f 5a c0	 cvtps2pd xmm0, xmm0
  00031	0f 5a c9	 cvtps2pd xmm1, xmm1
  00034	f2 0f 59 c1	 mulsd	 xmm0, xmm1
  00038	f3 0f 10 4d 0c	 movss	 xmm1, DWORD PTR _f$[ebp]
  0003d	66 0f 5a c0	 cvtpd2ps xmm0, xmm0
  00041	f3 0f 11 40 04	 movss	 DWORD PTR [eax+4], xmm0
  00046	f3 0f 10 41 08	 movss	 xmm0, DWORD PTR [ecx+8]
  0004b	0f 5a c0	 cvtps2pd xmm0, xmm0
  0004e	0f 5a c9	 cvtps2pd xmm1, xmm1
  00051	f2 0f 59 c1	 mulsd	 xmm0, xmm1
  00055	66 0f 5a c0	 cvtpd2ps xmm0, xmm0
  00059	f3 0f 11 40 08	 movss	 DWORD PTR [eax+8], xmm0

; 408  : }

  0005e	5d		 pop	 ebp
  0005f	c3		 ret	 0
??D@YA?AUD3DXVECTOR3@@MABU0@@Z ENDP			; operator*
_TEXT	ENDS
PUBLIC	??0D3DXQUATERNION@@QAE@MMMM@Z			; D3DXQUATERNION::D3DXQUATERNION
; Function compile flags: /Ogsp
;	COMDAT ??0D3DXQUATERNION@@QAE@MMMM@Z
_TEXT	SEGMENT
_fx$ = 8						; size = 4
_fy$ = 12						; size = 4
_fz$ = 16						; size = 4
_fw$ = 20						; size = 4
??0D3DXQUATERNION@@QAE@MMMM@Z PROC			; D3DXQUATERNION::D3DXQUATERNION, COMDAT
; _this$ = ecx

; 1080 : {

  00000	55		 push	 ebp
  00001	8b ec		 mov	 ebp, esp

; 1081 :     x = fx;

  00003	f3 0f 10 45 08	 movss	 xmm0, DWORD PTR _fx$[ebp]
  00008	8b c1		 mov	 eax, ecx
  0000a	f3 0f 11 00	 movss	 DWORD PTR [eax], xmm0

; 1082 :     y = fy;

  0000e	f3 0f 10 45 0c	 movss	 xmm0, DWORD PTR _fy$[ebp]
  00013	f3 0f 11 40 04	 movss	 DWORD PTR [eax+4], xmm0

; 1083 :     z = fz;

  00018	f3 0f 10 45 10	 movss	 xmm0, DWORD PTR _fz$[ebp]
  0001d	f3 0f 11 40 08	 movss	 DWORD PTR [eax+8], xmm0

; 1084 :     w = fw;

  00022	f3 0f 10 45 14	 movss	 xmm0, DWORD PTR _fw$[ebp]
  00027	f3 0f 11 40 0c	 movss	 DWORD PTR [eax+12], xmm0

; 1085 : }

  0002c	5d		 pop	 ebp
  0002d	c2 10 00	 ret	 16			; 00000010H
??0D3DXQUATERNION@@QAE@MMMM@Z ENDP			; D3DXQUATERNION::D3DXQUATERNION
_TEXT	ENDS
PUBLIC	?D3DXVec3Length@@YAMPBUD3DXVECTOR3@@@Z		; D3DXVec3Length
; Function compile flags: /Ogsp
;	COMDAT ?D3DXVec3Length@@YAMPBUD3DXVECTOR3@@@Z
_TEXT	SEGMENT
tv169 = 8						; size = 4
tv160 = 8						; size = 4
_pV$ = 8						; size = 4
?D3DXVec3Length@@YAMPBUD3DXVECTOR3@@@Z PROC		; D3DXVec3Length, COMDAT

; 1710 : {

  00000	55		 push	 ebp
  00001	8b ec		 mov	 ebp, esp

; 1711 : #ifdef D3DX_DEBUG
; 1712 :     if(!pV)
; 1713 :         return 0.0f;
; 1714 : #endif
; 1715 : 
; 1716 : #ifdef __cplusplus
; 1717 :     return sqrtf(pV->x * pV->x + pV->y * pV->y + pV->z * pV->z);

  00003	8b 45 08	 mov	 eax, DWORD PTR _pV$[ebp]
  00006	d9 40 04	 fld	 DWORD PTR [eax+4]
  00009	d9 00		 fld	 DWORD PTR [eax]
  0000b	d9 40 08	 fld	 DWORD PTR [eax+8]
  0000e	d9 c1		 fld	 ST(1)
  00010	de ca		 fmulp	 ST(2), ST(0)
  00012	d9 c2		 fld	 ST(2)
  00014	de cb		 fmulp	 ST(3), ST(0)
  00016	d9 c9		 fxch	 ST(1)
  00018	de c2		 faddp	 ST(2), ST(0)
  0001a	d9 c0		 fld	 ST(0)
  0001c	de c9		 fmulp	 ST(1), ST(0)
  0001e	de c1		 faddp	 ST(1), ST(0)
  00020	d9 5d 08	 fstp	 DWORD PTR tv169[ebp]
  00023	d9 45 08	 fld	 DWORD PTR tv169[ebp]
  00026	e8 00 00 00 00	 call	 __CIsqrt
  0002b	d9 5d 08	 fstp	 DWORD PTR tv160[ebp]
  0002e	d9 45 08	 fld	 DWORD PTR tv160[ebp]

; 1718 : #else
; 1719 :     return (FLOAT) sqrt(pV->x * pV->x + pV->y * pV->y + pV->z * pV->z);
; 1720 : #endif
; 1721 : }

  00031	5d		 pop	 ebp
  00032	c3		 ret	 0
?D3DXVec3Length@@YAMPBUD3DXVECTOR3@@@Z ENDP		; D3DXVec3Length
_TEXT	ENDS
PUBLIC	?D3DXVec3LengthSq@@YAMPBUD3DXVECTOR3@@@Z	; D3DXVec3LengthSq
; Function compile flags: /Ogsp
;	COMDAT ?D3DXVec3LengthSq@@YAMPBUD3DXVECTOR3@@@Z
_TEXT	SEGMENT
tv165 = 8						; size = 4
_pV$ = 8						; size = 4
?D3DXVec3LengthSq@@YAMPBUD3DXVECTOR3@@@Z PROC		; D3DXVec3LengthSq, COMDAT

; 1725 : {

  00000	55		 push	 ebp
  00001	8b ec		 mov	 ebp, esp

; 1726 : #ifdef D3DX_DEBUG
; 1727 :     if(!pV)
; 1728 :         return 0.0f;
; 1729 : #endif
; 1730 : 
; 1731 :     return pV->x * pV->x + pV->y * pV->y + pV->z * pV->z;

  00003	8b 45 08	 mov	 eax, DWORD PTR _pV$[ebp]
  00006	d9 40 04	 fld	 DWORD PTR [eax+4]
  00009	d9 00		 fld	 DWORD PTR [eax]
  0000b	d9 40 08	 fld	 DWORD PTR [eax+8]
  0000e	d9 c1		 fld	 ST(1)
  00010	de ca		 fmulp	 ST(2), ST(0)
  00012	d9 c2		 fld	 ST(2)
  00014	de cb		 fmulp	 ST(3), ST(0)
  00016	d9 c9		 fxch	 ST(1)
  00018	de c2		 faddp	 ST(2), ST(0)
  0001a	d9 c0		 fld	 ST(0)
  0001c	de c9		 fmulp	 ST(1), ST(0)
  0001e	de c1		 faddp	 ST(1), ST(0)
  00020	d9 5d 08	 fstp	 DWORD PTR tv165[ebp]
  00023	d9 45 08	 fld	 DWORD PTR tv165[ebp]

; 1732 : }

  00026	5d		 pop	 ebp
  00027	c3		 ret	 0
?D3DXVec3LengthSq@@YAMPBUD3DXVECTOR3@@@Z ENDP		; D3DXVec3LengthSq
_TEXT	ENDS
PUBLIC	?D3DXVec3Dot@@YAMPBUD3DXVECTOR3@@0@Z		; D3DXVec3Dot
; Function compile flags: /Ogsp
;	COMDAT ?D3DXVec3Dot@@YAMPBUD3DXVECTOR3@@0@Z
_TEXT	SEGMENT
tv188 = 8						; size = 4
_pV1$ = 8						; size = 4
_pV2$ = 12						; size = 4
?D3DXVec3Dot@@YAMPBUD3DXVECTOR3@@0@Z PROC		; D3DXVec3Dot, COMDAT

; 1736 : {

  00000	55		 push	 ebp
  00001	8b ec		 mov	 ebp, esp

; 1737 : #ifdef D3DX_DEBUG
; 1738 :     if(!pV1 || !pV2)
; 1739 :         return 0.0f;
; 1740 : #endif
; 1741 : 
; 1742 :     return pV1->x * pV2->x + pV1->y * pV2->y + pV1->z * pV2->z;

  00003	8b 45 08	 mov	 eax, DWORD PTR _pV1$[ebp]
  00006	8b 4d 0c	 mov	 ecx, DWORD PTR _pV2$[ebp]
  00009	d9 40 04	 fld	 DWORD PTR [eax+4]
  0000c	d8 49 04	 fmul	 DWORD PTR [ecx+4]
  0000f	d9 00		 fld	 DWORD PTR [eax]
  00011	d8 09		 fmul	 DWORD PTR [ecx]
  00013	de c1		 faddp	 ST(1), ST(0)
  00015	d9 40 08	 fld	 DWORD PTR [eax+8]
  00018	d8 49 08	 fmul	 DWORD PTR [ecx+8]
  0001b	de c1		 faddp	 ST(1), ST(0)
  0001d	d9 5d 08	 fstp	 DWORD PTR tv188[ebp]
  00020	d9 45 08	 fld	 DWORD PTR tv188[ebp]

; 1743 : }

  00023	5d		 pop	 ebp
  00024	c3		 ret	 0
?D3DXVec3Dot@@YAMPBUD3DXVECTOR3@@0@Z ENDP		; D3DXVec3Dot
_TEXT	ENDS
PUBLIC	?D3DXVec3Cross@@YAPAUD3DXVECTOR3@@PAU1@PBU1@1@Z	; D3DXVec3Cross
; Function compile flags: /Ogsp
;	COMDAT ?D3DXVec3Cross@@YAPAUD3DXVECTOR3@@PAU1@PBU1@1@Z
_TEXT	SEGMENT
_v$ = -12						; size = 12
_pOut$ = 8						; size = 4
_pV1$ = 12						; size = 4
_pV2$ = 16						; size = 4
?D3DXVec3Cross@@YAPAUD3DXVECTOR3@@PAU1@PBU1@1@Z PROC	; D3DXVec3Cross, COMDAT

; 1747 : {

  00000	55		 push	 ebp
  00001	8b ec		 mov	 ebp, esp
  00003	83 ec 0c	 sub	 esp, 12			; 0000000cH

; 1757 :     v.z = pV1->x * pV2->y - pV1->y * pV2->x;
; 1758 : 
; 1759 :     *pOut = v;

  00006	56		 push	 esi
  00007	57		 push	 edi

; 1748 :     D3DXVECTOR3 v;
; 1749 : 
; 1750 : #ifdef D3DX_DEBUG
; 1751 :     if(!pOut || !pV1 || !pV2)
; 1752 :         return NULL;
; 1753 : #endif
; 1754 : 
; 1755 :     v.x = pV1->y * pV2->z - pV1->z * pV2->y;

  00008	8b 45 0c	 mov	 eax, DWORD PTR _pV1$[ebp]
  0000b	f3 0f 10 40 04	 movss	 xmm0, DWORD PTR [eax+4]
  00010	f3 0f 10 50 08	 movss	 xmm2, DWORD PTR [eax+8]
  00015	8b 4d 10	 mov	 ecx, DWORD PTR _pV2$[ebp]
  00018	f3 0f 10 49 08	 movss	 xmm1, DWORD PTR [ecx+8]
  0001d	f3 0f 10 59 04	 movss	 xmm3, DWORD PTR [ecx+4]
  00022	0f 5a e8	 cvtps2pd xmm5, xmm0
  00025	0f 5a e1	 cvtps2pd xmm4, xmm1
  00028	0f 5a f2	 cvtps2pd xmm6, xmm2
  0002b	f2 0f 59 e5	 mulsd	 xmm4, xmm5

; 1756 :     v.y = pV1->z * pV2->x - pV1->x * pV2->z;

  0002f	0f 5a d2	 cvtps2pd xmm2, xmm2
  00032	0f 5a c9	 cvtps2pd xmm1, xmm1
  00035	0f 5a eb	 cvtps2pd xmm5, xmm3
  00038	f2 0f 59 ee	 mulsd	 xmm5, xmm6
  0003c	f2 0f 5c e5	 subsd	 xmm4, xmm5
  00040	f3 0f 10 28	 movss	 xmm5, DWORD PTR [eax]

; 1757 :     v.z = pV1->x * pV2->y - pV1->y * pV2->x;
; 1758 : 
; 1759 :     *pOut = v;

  00044	8b 45 08	 mov	 eax, DWORD PTR _pOut$[ebp]
  00047	66 0f 5a e4	 cvtpd2ps xmm4, xmm4
  0004b	f3 0f 11 65 f4	 movss	 DWORD PTR _v$[ebp], xmm4
  00050	f3 0f 10 21	 movss	 xmm4, DWORD PTR [ecx]
  00054	0f 5a f4	 cvtps2pd xmm6, xmm4
  00057	f2 0f 59 f2	 mulsd	 xmm6, xmm2
  0005b	0f 5a d5	 cvtps2pd xmm2, xmm5
  0005e	f2 0f 59 d1	 mulsd	 xmm2, xmm1
  00062	f2 0f 5c f2	 subsd	 xmm6, xmm2
  00066	66 0f 5a ce	 cvtpd2ps xmm1, xmm6
  0006a	f3 0f 11 4d f8	 movss	 DWORD PTR _v$[ebp+4], xmm1
  0006f	0f 5a c0	 cvtps2pd xmm0, xmm0
  00072	0f 5a d3	 cvtps2pd xmm2, xmm3
  00075	0f 5a cd	 cvtps2pd xmm1, xmm5
  00078	f2 0f 59 ca	 mulsd	 xmm1, xmm2
  0007c	8d 75 f4	 lea	 esi, DWORD PTR _v$[ebp]
  0007f	8b f8		 mov	 edi, eax
  00081	0f 5a d4	 cvtps2pd xmm2, xmm4
  00084	f2 0f 59 d0	 mulsd	 xmm2, xmm0
  00088	f2 0f 5c ca	 subsd	 xmm1, xmm2
  0008c	66 0f 5a c1	 cvtpd2ps xmm0, xmm1
  00090	f3 0f 11 45 fc	 movss	 DWORD PTR _v$[ebp+8], xmm0
  00095	a5		 movsd
  00096	a5		 movsd
  00097	a5		 movsd
  00098	5f		 pop	 edi
  00099	5e		 pop	 esi

; 1760 :     return pOut;
; 1761 : }

  0009a	c9		 leave
  0009b	c3		 ret	 0
?D3DXVec3Cross@@YAPAUD3DXVECTOR3@@PAU1@PBU1@1@Z ENDP	; D3DXVec3Cross
_TEXT	ENDS
PUBLIC	?_DECSTR@@YAXPADH@Z				; _DECSTR
; Function compile flags: /Ogsp
; File d:\lost saga for developer\youtube\tutorial\source\src\lsclient\stringprotect.h
;	COMDAT ?_DECSTR@@YAXPADH@Z
_TEXT	SEGMENT
_s$ = 8							; size = 4
_l$ = 12						; size = 4
?_DECSTR@@YAXPADH@Z PROC				; _DECSTR, COMDAT

; 40   : __forceinline void _DECSTR(char* s, int l){int i=0,l4=(l-1)/4,*p=(int*)s;s[l-1]=0;for(;i<l4;++i)*(p++)^=0xEAEBECED;for(i=l4*4;i<l-1;++i)s[i]^=0xED-i%4;}

  00000	55		 push	 ebp
  00001	8b ec		 mov	 ebp, esp
  00003	8b 4d 0c	 mov	 ecx, DWORD PTR _l$[ebp]
  00006	56		 push	 esi
  00007	8b 75 08	 mov	 esi, DWORD PTR _s$[ebp]
  0000a	57		 push	 edi
  0000b	8d 79 ff	 lea	 edi, DWORD PTR [ecx-1]
  0000e	8b c7		 mov	 eax, edi
  00010	99		 cdq
  00011	83 e2 03	 and	 edx, 3
  00014	03 c2		 add	 eax, edx
  00016	c1 f8 02	 sar	 eax, 2
  00019	8b d6		 mov	 edx, esi
  0001b	c6 44 0e ff 00	 mov	 BYTE PTR [esi+ecx-1], 0
  00020	85 c0		 test	 eax, eax
  00022	7e 0e		 jle	 SHORT $LN4@DECSTR
  00024	8b c8		 mov	 ecx, eax
$LL6@DECSTR:
  00026	81 32 ed ec eb
	ea		 xor	 DWORD PTR [edx], -353637139 ; eaebecedH
  0002c	83 c2 04	 add	 edx, 4
  0002f	49		 dec	 ecx
  00030	75 f4		 jne	 SHORT $LL6@DECSTR
$LN4@DECSTR:
  00032	c1 e0 02	 shl	 eax, 2
  00035	eb 17		 jmp	 SHORT $LN14@DECSTR
$LL3@DECSTR:
  00037	8b c8		 mov	 ecx, eax
  00039	81 e1 03 00 00
	80		 and	 ecx, -2147483645	; 80000003H
  0003f	79 05		 jns	 SHORT $LN13@DECSTR
  00041	49		 dec	 ecx
  00042	83 c9 fc	 or	 ecx, -4			; fffffffcH
  00045	41		 inc	 ecx
$LN13@DECSTR:
  00046	b2 ed		 mov	 dl, -19			; ffffffedH
  00048	2a d1		 sub	 dl, cl
  0004a	30 14 30	 xor	 BYTE PTR [eax+esi], dl
  0004d	40		 inc	 eax
$LN14@DECSTR:
  0004e	3b c7		 cmp	 eax, edi
  00050	7c e5		 jl	 SHORT $LL3@DECSTR
  00052	5f		 pop	 edi
  00053	5e		 pop	 esi
  00054	5d		 pop	 ebp
  00055	c3		 ret	 0
?_DECSTR@@YAXPADH@Z ENDP				; _DECSTR
_TEXT	ENDS
PUBLIC	?GetGroup@ioGameEntity@@QBEPAVioEntityGroup@@XZ	; ioGameEntity::GetGroup
; Function compile flags: /Ogsp
; File d:\lost saga for developer\youtube\tutorial\source\src\lsclient\iogameentity.h
;	COMDAT ?GetGroup@ioGameEntity@@QBEPAVioEntityGroup@@XZ
_TEXT	SEGMENT
?GetGroup@ioGameEntity@@QBEPAVioEntityGroup@@XZ PROC	; ioGameEntity::GetGroup, COMDAT
; _this$ = ecx

; 166  : 	inline ioEntityGroup* GetGroup() const { return m_pGroup; }

  00000	8b 41 04	 mov	 eax, DWORD PTR [ecx+4]
  00003	c3		 ret	 0
?GetGroup@ioGameEntity@@QBEPAVioEntityGroup@@XZ ENDP	; ioGameEntity::GetGroup
_TEXT	ENDS
PUBLIC	??_R0?AVioGameEntity@@@8			; ioGameEntity `RTTI Type Descriptor'
PUBLIC	??_R0?AVioPlayEntity@@@8			; ioPlayEntity `RTTI Type Descriptor'
PUBLIC	?ToPlayEntity@@YAPAVioPlayEntity@@PAVioGameEntity@@@Z ; ToPlayEntity
EXTRN	___RTDynamicCast:PROC
;	COMDAT ??_R0?AVioGameEntity@@@8
; File d:\lost saga for developer\youtube\tutorial\source\src\lsclient\ioplayentity.h
_DATA	SEGMENT
??_R0?AVioGameEntity@@@8 DD FLAT:??_7type_info@@6B@	; ioGameEntity `RTTI Type Descriptor'
	DD	00H
	DB	'.?AVioGameEntity@@', 00H
_DATA	ENDS
;	COMDAT ??_R0?AVioPlayEntity@@@8
_DATA	SEGMENT
??_R0?AVioPlayEntity@@@8 DD FLAT:??_7type_info@@6B@	; ioPlayEntity `RTTI Type Descriptor'
	DD	00H
	DB	'.?AVioPlayEntity@@', 00H
; Function compile flags: /Ogsp
_DATA	ENDS
;	COMDAT ?ToPlayEntity@@YAPAVioPlayEntity@@PAVioGameEntity@@@Z
_TEXT	SEGMENT
_pObj$ = 8						; size = 4
?ToPlayEntity@@YAPAVioPlayEntity@@PAVioGameEntity@@@Z PROC ; ToPlayEntity, COMDAT

; 121  : {

  00000	55		 push	 ebp
  00001	8b ec		 mov	 ebp, esp
  00003	56		 push	 esi

; 122  : 	if( !pObj || pObj->GetTypeID() != ioGameEntity::GET_PLAY_ENTITY )

  00004	8b 75 08	 mov	 esi, DWORD PTR _pObj$[ebp]
  00007	85 f6		 test	 esi, esi
  00009	74 25		 je	 SHORT $LN1@ToPlayEnti
  0000b	8b 06		 mov	 eax, DWORD PTR [esi]
  0000d	8b ce		 mov	 ecx, esi
  0000f	ff 50 10	 call	 DWORD PTR [eax+16]
  00012	83 f8 01	 cmp	 eax, 1
  00015	75 19		 jne	 SHORT $LN1@ToPlayEnti

; 124  : 
; 125  : 	return dynamic_cast< ioPlayEntity* >( pObj );

  00017	6a 00		 push	 0
  00019	68 00 00 00 00	 push	 OFFSET ??_R0?AVioPlayEntity@@@8
  0001e	68 00 00 00 00	 push	 OFFSET ??_R0?AVioGameEntity@@@8
  00023	6a 00		 push	 0
  00025	56		 push	 esi
  00026	e8 00 00 00 00	 call	 ___RTDynamicCast
  0002b	83 c4 14	 add	 esp, 20			; 00000014H
  0002e	eb 02		 jmp	 SHORT $LN3@ToPlayEnti
$LN1@ToPlayEnti:

; 123  : 		return NULL;

  00030	33 c0		 xor	 eax, eax
$LN3@ToPlayEnti:
  00032	5e		 pop	 esi

; 126  : }

  00033	5d		 pop	 ebp
  00034	c3		 ret	 0
?ToPlayEntity@@YAPAVioPlayEntity@@PAVioGameEntity@@@Z ENDP ; ToPlayEntity
_TEXT	ENDS
PUBLIC	??_R0?AVioDummyChar@@@8				; ioDummyChar `RTTI Type Descriptor'
PUBLIC	?ToDummyChar@@YAPAVioDummyChar@@PAVioGameEntity@@@Z ; ToDummyChar
;	COMDAT ??_R0?AVioDummyChar@@@8
; File d:\lost saga for developer\youtube\tutorial\source\src\lsclient\iodummychar.h
_DATA	SEGMENT
??_R0?AVioDummyChar@@@8 DD FLAT:??_7type_info@@6B@	; ioDummyChar `RTTI Type Descriptor'
	DD	00H
	DB	'.?AVioDummyChar@@', 00H
; Function compile flags: /Ogsp
_DATA	ENDS
;	COMDAT ?ToDummyChar@@YAPAVioDummyChar@@PAVioGameEntity@@@Z
_TEXT	SEGMENT
_pObj$ = 8						; size = 4
?ToDummyChar@@YAPAVioDummyChar@@PAVioGameEntity@@@Z PROC ; ToDummyChar, COMDAT

; 758  : {

  00000	55		 push	 ebp
  00001	8b ec		 mov	 ebp, esp
  00003	56		 push	 esi

; 759  : 	ioPlayEntity *pPlay = ToPlayEntity( pObj );

  00004	ff 75 08	 push	 DWORD PTR _pObj$[ebp]
  00007	e8 00 00 00 00	 call	 ?ToPlayEntity@@YAPAVioPlayEntity@@PAVioGameEntity@@@Z ; ToPlayEntity
  0000c	8b f0		 mov	 esi, eax
  0000e	59		 pop	 ecx

; 760  : 	if( !pPlay || pPlay->GetSubType() != ioPlayEntity::PST_DUMMY_CHAR )

  0000f	85 f6		 test	 esi, esi
  00011	74 28		 je	 SHORT $LN1@ToDummyCha
  00013	8b 06		 mov	 eax, DWORD PTR [esi]
  00015	8b ce		 mov	 ecx, esi
  00017	ff 90 a4 00 00
	00		 call	 DWORD PTR [eax+164]
  0001d	83 f8 0a	 cmp	 eax, 10			; 0000000aH
  00020	75 19		 jne	 SHORT $LN1@ToDummyCha

; 762  : 
; 763  : 	return dynamic_cast< ioDummyChar* >( pPlay );

  00022	6a 00		 push	 0
  00024	68 00 00 00 00	 push	 OFFSET ??_R0?AVioDummyChar@@@8
  00029	68 00 00 00 00	 push	 OFFSET ??_R0?AVioPlayEntity@@@8
  0002e	6a 00		 push	 0
  00030	56		 push	 esi
  00031	e8 00 00 00 00	 call	 ___RTDynamicCast
  00036	83 c4 14	 add	 esp, 20			; 00000014H
  00039	eb 02		 jmp	 SHORT $LN3@ToDummyCha
$LN1@ToDummyCha:

; 761  : 		return NULL;

  0003b	33 c0		 xor	 eax, eax
$LN3@ToDummyCha:
  0003d	5e		 pop	 esi

; 764  : }

  0003e	5d		 pop	 ebp
  0003f	c3		 ret	 0
?ToDummyChar@@YAPAVioDummyChar@@PAVioGameEntity@@@Z ENDP ; ToDummyChar
_TEXT	ENDS
PUBLIC	??0BuffInfoStruct@@QAE@XZ			; BuffInfoStruct::BuffInfoStruct
EXTRN	__imp_??1ioHashString@@QAE@XZ:PROC
EXTRN	__imp_?Clear@ioHashString@@QAEXXZ:PROC
EXTRN	__imp_??0ioHashString@@QAE@XZ:PROC
EXTRN	___CxxFrameHandler3:PROC
EXTRN	__EH_epilog3:PROC
EXTRN	__EH_prolog3:PROC
;	COMDAT xdata$x
; File d:\lost saga for developer\youtube\tutorial\source\src\lsclient\weaponattribute.h
xdata$x	SEGMENT
__unwindtable$??0BuffInfoStruct@@QAE@XZ DD 0ffffffffH
	DD	FLAT:__unwindfunclet$??0BuffInfoStruct@@QAE@XZ$0
__ehfuncinfo$??0BuffInfoStruct@@QAE@XZ DD 019930522H
	DD	01H
	DD	FLAT:__unwindtable$??0BuffInfoStruct@@QAE@XZ
	DD	2 DUP(00H)
	DD	2 DUP(00H)
	DD	00H
	DD	01H
; Function compile flags: /Ogsp
xdata$x	ENDS
;	COMDAT ??0BuffInfoStruct@@QAE@XZ
_TEXT	SEGMENT
_this$ = -16						; size = 4
__$EHRec$ = -12						; size = 12
??0BuffInfoStruct@@QAE@XZ PROC				; BuffInfoStruct::BuffInfoStruct, COMDAT
; _this$ = ecx

; 278  : 	BuffInfoStruct()

  00000	6a 04		 push	 4
  00002	b8 00 00 00 00	 mov	 eax, __ehhandler$??0BuffInfoStruct@@QAE@XZ
  00007	e8 00 00 00 00	 call	 __EH_prolog3
  0000c	8b f1		 mov	 esi, ecx
  0000e	89 75 f0	 mov	 DWORD PTR _this$[ebp], esi
  00011	ff 15 00 00 00
	00		 call	 DWORD PTR __imp_??0ioHashString@@QAE@XZ
  00017	83 65 fc 00	 and	 DWORD PTR __$EHRec$[ebp+8], 0

; 279  : 	{
; 280  : 		m_BuffName.Clear();

  0001b	8b ce		 mov	 ecx, esi
  0001d	ff 15 00 00 00
	00		 call	 DWORD PTR __imp_?Clear@ioHashString@@QAEXXZ

; 281  : 		m_iBuffType = 0;

  00023	83 66 10 00	 and	 DWORD PTR [esi+16], 0

; 282  : 	}

  00027	8b c6		 mov	 eax, esi
  00029	e8 00 00 00 00	 call	 __EH_epilog3
  0002e	c3		 ret	 0
_TEXT	ENDS
;	COMDAT text$x
text$x	SEGMENT
__unwindfunclet$??0BuffInfoStruct@@QAE@XZ$0:
  00000	8b 4d f0	 mov	 ecx, DWORD PTR _this$[ebp]
  00003	ff 25 00 00 00
	00		 jmp	 DWORD PTR __imp_??1ioHashString@@QAE@XZ
__ehhandler$??0BuffInfoStruct@@QAE@XZ:
  00009	8b 54 24 08	 mov	 edx, DWORD PTR [esp+8]
  0000d	8d 42 0c	 lea	 eax, DWORD PTR [edx+12]
  00010	8b 4a ec	 mov	 ecx, DWORD PTR [edx-20]
  00013	33 c8		 xor	 ecx, eax
  00015	e8 00 00 00 00	 call	 @__security_check_cookie@4
  0001a	b8 00 00 00 00	 mov	 eax, OFFSET __ehfuncinfo$??0BuffInfoStruct@@QAE@XZ
  0001f	e9 00 00 00 00	 jmp	 ___CxxFrameHandler3
text$x	ENDS
??0BuffInfoStruct@@QAE@XZ ENDP				; BuffInfoStruct::BuffInfoStruct
PUBLIC	??1BuffInfoStruct@@QAE@XZ			; BuffInfoStruct::~BuffInfoStruct
; Function compile flags: /Ogsp
;	COMDAT ??1BuffInfoStruct@@QAE@XZ
_TEXT	SEGMENT
??1BuffInfoStruct@@QAE@XZ PROC				; BuffInfoStruct::~BuffInfoStruct, COMDAT
; _this$ = ecx
  00000	ff 25 00 00 00
	00		 jmp	 DWORD PTR __imp_??1ioHashString@@QAE@XZ
??1BuffInfoStruct@@QAE@XZ ENDP				; BuffInfoStruct::~BuffInfoStruct
_TEXT	ENDS
PUBLIC	?IsLive@ioWeapon@@QBE_NXZ			; ioWeapon::IsLive
; Function compile flags: /Ogsp
; File d:\lost saga for developer\youtube\tutorial\source\src\lsclient\ioweapon.h
;	COMDAT ?IsLive@ioWeapon@@QBE_NXZ
_TEXT	SEGMENT
?IsLive@ioWeapon@@QBE_NXZ PROC				; ioWeapon::IsLive, COMDAT
; _this$ = ecx

; 533  : 	inline bool IsLive() const { return m_bLive; }

  00000	8a 81 82 05 00
	00		 mov	 al, BYTE PTR [ecx+1410]
  00006	c3		 ret	 0
?IsLive@ioWeapon@@QBE_NXZ ENDP				; ioWeapon::IsLive
_TEXT	ENDS
PUBLIC	?GetOwnerName@ioWeapon@@QBEABVioHashString@@XZ	; ioWeapon::GetOwnerName
; Function compile flags: /Ogsp
;	COMDAT ?GetOwnerName@ioWeapon@@QBEABVioHashString@@XZ
_TEXT	SEGMENT
?GetOwnerName@ioWeapon@@QBEABVioHashString@@XZ PROC	; ioWeapon::GetOwnerName, COMDAT
; _this$ = ecx

; 636  : 	inline const ioHashString& GetOwnerName() const { return m_OwnerName; }

  00000	8d 41 10	 lea	 eax, DWORD PTR [ecx+16]
  00003	c3		 ret	 0
?GetOwnerName@ioWeapon@@QBEABVioHashString@@XZ ENDP	; ioWeapon::GetOwnerName
_TEXT	ENDS
PUBLIC	?GetParentSceneNode@ioWeapon@@QBEPAVioSceneNode@@XZ ; ioWeapon::GetParentSceneNode
; Function compile flags: /Ogsp
;	COMDAT ?GetParentSceneNode@ioWeapon@@QBEPAVioSceneNode@@XZ
_TEXT	SEGMENT
?GetParentSceneNode@ioWeapon@@QBEPAVioSceneNode@@XZ PROC ; ioWeapon::GetParentSceneNode, COMDAT
; _this$ = ecx

; 797  : 	ioSceneNode* GetParentSceneNode() const { return m_pSceneNode; }

  00000	8b 41 04	 mov	 eax, DWORD PTR [ecx+4]
  00003	c3		 ret	 0
?GetParentSceneNode@ioWeapon@@QBEPAVioSceneNode@@XZ ENDP ; ioWeapon::GetParentSceneNode
_TEXT	ENDS
PUBLIC	??_R0?AVioWallZone@@@8				; ioWallZone `RTTI Type Descriptor'
PUBLIC	?ToWallZone@@YAPAVioWallZone@@PAVioGameEntity@@@Z ; ToWallZone
;	COMDAT ??_R0?AVioWallZone@@@8
; File d:\lost saga for developer\youtube\tutorial\source\src\lsclient\iowallzone.h
_DATA	SEGMENT
??_R0?AVioWallZone@@@8 DD FLAT:??_7type_info@@6B@	; ioWallZone `RTTI Type Descriptor'
	DD	00H
	DB	'.?AVioWallZone@@', 00H
; Function compile flags: /Ogsp
_DATA	ENDS
;	COMDAT ?ToWallZone@@YAPAVioWallZone@@PAVioGameEntity@@@Z
_TEXT	SEGMENT
_pObj$ = 8						; size = 4
?ToWallZone@@YAPAVioWallZone@@PAVioGameEntity@@@Z PROC	; ToWallZone, COMDAT

; 50   : {

  00000	55		 push	 ebp
  00001	8b ec		 mov	 ebp, esp
  00003	56		 push	 esi

; 51   : 	ioPlayEntity *pPlay = ToPlayEntity( pObj );

  00004	ff 75 08	 push	 DWORD PTR _pObj$[ebp]
  00007	e8 00 00 00 00	 call	 ?ToPlayEntity@@YAPAVioPlayEntity@@PAVioGameEntity@@@Z ; ToPlayEntity
  0000c	8b f0		 mov	 esi, eax
  0000e	59		 pop	 ecx

; 52   : 	if( !pPlay || pPlay->GetSubType() != ioPlayEntity::PST_WALL_ZONE )

  0000f	85 f6		 test	 esi, esi
  00011	74 28		 je	 SHORT $LN1@ToWallZone
  00013	8b 06		 mov	 eax, DWORD PTR [esi]
  00015	8b ce		 mov	 ecx, esi
  00017	ff 90 a4 00 00
	00		 call	 DWORD PTR [eax+164]
  0001d	83 f8 0b	 cmp	 eax, 11			; 0000000bH
  00020	75 19		 jne	 SHORT $LN1@ToWallZone

; 54   : 
; 55   : 	return dynamic_cast< ioWallZone* >( pPlay );

  00022	6a 00		 push	 0
  00024	68 00 00 00 00	 push	 OFFSET ??_R0?AVioWallZone@@@8
  00029	68 00 00 00 00	 push	 OFFSET ??_R0?AVioPlayEntity@@@8
  0002e	6a 00		 push	 0
  00030	56		 push	 esi
  00031	e8 00 00 00 00	 call	 ___RTDynamicCast
  00036	83 c4 14	 add	 esp, 20			; 00000014H
  00039	eb 02		 jmp	 SHORT $LN3@ToWallZone
$LN1@ToWallZone:

; 53   : 		return NULL;

  0003b	33 c0		 xor	 eax, eax
$LN3@ToWallZone:
  0003d	5e		 pop	 esi

; 56   : }

  0003e	5d		 pop	 ebp
  0003f	c3		 ret	 0
?ToWallZone@@YAPAVioWallZone@@PAVioGameEntity@@@Z ENDP	; ToWallZone
_TEXT	ENDS
PUBLIC	??_R0?AVioSymbolStruct@@@8			; ioSymbolStruct `RTTI Type Descriptor'
PUBLIC	?ToSymbolStruct@@YAPAVioSymbolStruct@@PAVioGameEntity@@@Z ; ToSymbolStruct
;	COMDAT ??_R0?AVioSymbolStruct@@@8
; File d:\lost saga for developer\youtube\tutorial\source\src\lsclient\iosymbolstruct.h
_DATA	SEGMENT
??_R0?AVioSymbolStruct@@@8 DD FLAT:??_7type_info@@6B@	; ioSymbolStruct `RTTI Type Descriptor'
	DD	00H
	DB	'.?AVioSymbolStruct@@', 00H
; Function compile flags: /Ogsp
_DATA	ENDS
;	COMDAT ?ToSymbolStruct@@YAPAVioSymbolStruct@@PAVioGameEntity@@@Z
_TEXT	SEGMENT
_pObj$ = 8						; size = 4
?ToSymbolStruct@@YAPAVioSymbolStruct@@PAVioGameEntity@@@Z PROC ; ToSymbolStruct, COMDAT

; 171  : {

  00000	55		 push	 ebp
  00001	8b ec		 mov	 ebp, esp
  00003	56		 push	 esi

; 172  : 	ioPlayEntity *pPlay = ToPlayEntity( pObj );

  00004	ff 75 08	 push	 DWORD PTR _pObj$[ebp]
  00007	e8 00 00 00 00	 call	 ?ToPlayEntity@@YAPAVioPlayEntity@@PAVioGameEntity@@@Z ; ToPlayEntity
  0000c	8b f0		 mov	 esi, eax
  0000e	59		 pop	 ecx

; 173  : 	if( !pPlay || pPlay->GetSubType() != ioPlayEntity::PST_SYMBOL )

  0000f	85 f6		 test	 esi, esi
  00011	74 28		 je	 SHORT $LN1@ToSymbolSt
  00013	8b 06		 mov	 eax, DWORD PTR [esi]
  00015	8b ce		 mov	 ecx, esi
  00017	ff 90 a4 00 00
	00		 call	 DWORD PTR [eax+164]
  0001d	83 f8 01	 cmp	 eax, 1
  00020	75 19		 jne	 SHORT $LN1@ToSymbolSt

; 175  : 
; 176  : 	return dynamic_cast< ioSymbolStruct* >( pPlay );

  00022	6a 00		 push	 0
  00024	68 00 00 00 00	 push	 OFFSET ??_R0?AVioSymbolStruct@@@8
  00029	68 00 00 00 00	 push	 OFFSET ??_R0?AVioPlayEntity@@@8
  0002e	6a 00		 push	 0
  00030	56		 push	 esi
  00031	e8 00 00 00 00	 call	 ___RTDynamicCast
  00036	83 c4 14	 add	 esp, 20			; 00000014H
  00039	eb 02		 jmp	 SHORT $LN3@ToSymbolSt
$LN1@ToSymbolSt:

; 174  : 		return NULL;

  0003b	33 c0		 xor	 eax, eax
$LN3@ToSymbolSt:
  0003d	5e		 pop	 esi

; 177  : }

  0003e	5d		 pop	 ebp
  0003f	c3		 ret	 0
?ToSymbolStruct@@YAPAVioSymbolStruct@@PAVioGameEntity@@@Z ENDP ; ToSymbolStruct
_TEXT	ENDS
PUBLIC	??_R0?AVioBall@@@8				; ioBall `RTTI Type Descriptor'
PUBLIC	?ToBallStruct@@YAPAVioBall@@PAVioGameEntity@@@Z	; ToBallStruct
;	COMDAT ??_R0?AVioBall@@@8
; File d:\lost saga for developer\youtube\tutorial\source\src\lsclient\ioball.h
_DATA	SEGMENT
??_R0?AVioBall@@@8 DD FLAT:??_7type_info@@6B@		; ioBall `RTTI Type Descriptor'
	DD	00H
	DB	'.?AVioBall@@', 00H
; Function compile flags: /Ogsp
_DATA	ENDS
;	COMDAT ?ToBallStruct@@YAPAVioBall@@PAVioGameEntity@@@Z
_TEXT	SEGMENT
_pObj$ = 8						; size = 4
?ToBallStruct@@YAPAVioBall@@PAVioGameEntity@@@Z PROC	; ToBallStruct, COMDAT

; 252  : {

  00000	55		 push	 ebp
  00001	8b ec		 mov	 ebp, esp
  00003	56		 push	 esi

; 253  : 	ioPlayEntity *pPlay = ToPlayEntity( pObj );

  00004	ff 75 08	 push	 DWORD PTR _pObj$[ebp]
  00007	e8 00 00 00 00	 call	 ?ToPlayEntity@@YAPAVioPlayEntity@@PAVioGameEntity@@@Z ; ToPlayEntity
  0000c	8b f0		 mov	 esi, eax
  0000e	59		 pop	 ecx

; 254  : 	if( !pPlay || pPlay->GetSubType() != ioPlayEntity::PST_BALL )

  0000f	85 f6		 test	 esi, esi
  00011	74 28		 je	 SHORT $LN1@ToBallStru
  00013	8b 06		 mov	 eax, DWORD PTR [esi]
  00015	8b ce		 mov	 ecx, esi
  00017	ff 90 a4 00 00
	00		 call	 DWORD PTR [eax+164]
  0001d	83 f8 08	 cmp	 eax, 8
  00020	75 19		 jne	 SHORT $LN1@ToBallStru

; 256  : 
; 257  : 	return dynamic_cast< ioBall* >( pPlay );

  00022	6a 00		 push	 0
  00024	68 00 00 00 00	 push	 OFFSET ??_R0?AVioBall@@@8
  00029	68 00 00 00 00	 push	 OFFSET ??_R0?AVioPlayEntity@@@8
  0002e	6a 00		 push	 0
  00030	56		 push	 esi
  00031	e8 00 00 00 00	 call	 ___RTDynamicCast
  00036	83 c4 14	 add	 esp, 20			; 00000014H
  00039	eb 02		 jmp	 SHORT $LN3@ToBallStru
$LN1@ToBallStru:

; 255  : 		return NULL;

  0003b	33 c0		 xor	 eax, eax
$LN3@ToBallStru:
  0003d	5e		 pop	 esi

; 258  : }

  0003e	5d		 pop	 ebp
  0003f	c3		 ret	 0
?ToBallStruct@@YAPAVioBall@@PAVioGameEntity@@@Z ENDP	; ToBallStruct
_TEXT	ENDS
PUBLIC	??_R0?AVioPushStruct@@@8			; ioPushStruct `RTTI Type Descriptor'
PUBLIC	?ToPushStruct@@YAPAVioPushStruct@@PAVioGameEntity@@@Z ; ToPushStruct
;	COMDAT ??_R0?AVioPushStruct@@@8
; File d:\lost saga for developer\youtube\tutorial\source\src\lsclient\iopushstruct.h
_DATA	SEGMENT
??_R0?AVioPushStruct@@@8 DD FLAT:??_7type_info@@6B@	; ioPushStruct `RTTI Type Descriptor'
	DD	00H
	DB	'.?AVioPushStruct@@', 00H
; Function compile flags: /Ogsp
_DATA	ENDS
;	COMDAT ?ToPushStruct@@YAPAVioPushStruct@@PAVioGameEntity@@@Z
_TEXT	SEGMENT
_pObj$ = 8						; size = 4
?ToPushStruct@@YAPAVioPushStruct@@PAVioGameEntity@@@Z PROC ; ToPushStruct, COMDAT

; 440  : {

  00000	55		 push	 ebp
  00001	8b ec		 mov	 ebp, esp
  00003	56		 push	 esi

; 441  : 	ioPlayEntity *pPlay = ToPlayEntity( pObj );

  00004	ff 75 08	 push	 DWORD PTR _pObj$[ebp]
  00007	e8 00 00 00 00	 call	 ?ToPlayEntity@@YAPAVioPlayEntity@@PAVioGameEntity@@@Z ; ToPlayEntity
  0000c	8b f0		 mov	 esi, eax
  0000e	59		 pop	 ecx

; 442  : 	if( !pPlay || pPlay->GetSubType() != ioPlayEntity::PST_PUSHSTRUCT )

  0000f	85 f6		 test	 esi, esi
  00011	74 28		 je	 SHORT $LN1@ToPushStru
  00013	8b 06		 mov	 eax, DWORD PTR [esi]
  00015	8b ce		 mov	 ecx, esi
  00017	ff 90 a4 00 00
	00		 call	 DWORD PTR [eax+164]
  0001d	83 f8 02	 cmp	 eax, 2
  00020	75 19		 jne	 SHORT $LN1@ToPushStru

; 444  : 
; 445  : 	return dynamic_cast< ioPushStruct* >( pPlay );

  00022	6a 00		 push	 0
  00024	68 00 00 00 00	 push	 OFFSET ??_R0?AVioPushStruct@@@8
  00029	68 00 00 00 00	 push	 OFFSET ??_R0?AVioPlayEntity@@@8
  0002e	6a 00		 push	 0
  00030	56		 push	 esi
  00031	e8 00 00 00 00	 call	 ___RTDynamicCast
  00036	83 c4 14	 add	 esp, 20			; 00000014H
  00039	eb 02		 jmp	 SHORT $LN3@ToPushStru
$LN1@ToPushStru:

; 443  : 		return NULL;

  0003b	33 c0		 xor	 eax, eax
$LN3@ToPushStru:
  0003d	5e		 pop	 esi

; 446  : }

  0003e	5d		 pop	 ebp
  0003f	c3		 ret	 0
?ToPushStruct@@YAPAVioPushStruct@@PAVioGameEntity@@@Z ENDP ; ToPushStruct
_TEXT	ENDS
PUBLIC	??_7?$CEncrypt@M@@6B@				; CEncrypt<float>::`vftable'
PUBLIC	??1?$CEncrypt@M@@UAE@XZ				; CEncrypt<float>::~CEncrypt<float>
PUBLIC	??_R4?$CEncrypt@M@@6B@				; CEncrypt<float>::`RTTI Complete Object Locator'
PUBLIC	??_R0?AV?$CEncrypt@M@@@8			; CEncrypt<float> `RTTI Type Descriptor'
PUBLIC	??_R3?$CEncrypt@M@@8				; CEncrypt<float>::`RTTI Class Hierarchy Descriptor'
PUBLIC	??_R2?$CEncrypt@M@@8				; CEncrypt<float>::`RTTI Base Class Array'
PUBLIC	??_R1A@?0A@EA@?$CEncrypt@M@@8			; CEncrypt<float>::`RTTI Base Class Descriptor at (0,-1,0,64)'
EXTRN	??1ccddaabb@@UAE@XZ:PROC			; ccddaabb::~ccddaabb
EXTRN	??_E?$CEncrypt@M@@UAEPAXI@Z:PROC		; CEncrypt<float>::`vector deleting destructor'
;	COMDAT ??_R1A@?0A@EA@?$CEncrypt@M@@8
; File d:\lost saga for developer\youtube\tutorial\source\src\lsclient\encryptvalue.h
rdata$r	SEGMENT
??_R1A@?0A@EA@?$CEncrypt@M@@8 DD FLAT:??_R0?AV?$CEncrypt@M@@@8 ; CEncrypt<float>::`RTTI Base Class Descriptor at (0,-1,0,64)'
	DD	00H
	DD	00H
	DD	0ffffffffH
	DD	00H
	DD	040H
	DD	FLAT:??_R3?$CEncrypt@M@@8
rdata$r	ENDS
;	COMDAT ??_R2?$CEncrypt@M@@8
rdata$r	SEGMENT
??_R2?$CEncrypt@M@@8 DD FLAT:??_R1A@?0A@EA@?$CEncrypt@M@@8 ; CEncrypt<float>::`RTTI Base Class Array'
rdata$r	ENDS
;	COMDAT ??_R3?$CEncrypt@M@@8
rdata$r	SEGMENT
??_R3?$CEncrypt@M@@8 DD 00H				; CEncrypt<float>::`RTTI Class Hierarchy Descriptor'
	DD	00H
	DD	01H
	DD	FLAT:??_R2?$CEncrypt@M@@8
rdata$r	ENDS
;	COMDAT ??_R0?AV?$CEncrypt@M@@@8
_DATA	SEGMENT
??_R0?AV?$CEncrypt@M@@@8 DD FLAT:??_7type_info@@6B@	; CEncrypt<float> `RTTI Type Descriptor'
	DD	00H
	DB	'.?AV?$CEncrypt@M@@', 00H
_DATA	ENDS
;	COMDAT ??_R4?$CEncrypt@M@@6B@
rdata$r	SEGMENT
??_R4?$CEncrypt@M@@6B@ DD 00H				; CEncrypt<float>::`RTTI Complete Object Locator'
	DD	00H
	DD	00H
	DD	FLAT:??_R0?AV?$CEncrypt@M@@@8
	DD	FLAT:??_R3?$CEncrypt@M@@8
rdata$r	ENDS
;	COMDAT ??_7?$CEncrypt@M@@6B@
CONST	SEGMENT
??_7?$CEncrypt@M@@6B@ DD FLAT:??_R4?$CEncrypt@M@@6B@	; CEncrypt<float>::`vftable'
	DD	FLAT:??_E?$CEncrypt@M@@UAEPAXI@Z
; Function compile flags: /Ogsp
CONST	ENDS
;	COMDAT ??1?$CEncrypt@M@@UAE@XZ
_TEXT	SEGMENT
??1?$CEncrypt@M@@UAE@XZ PROC				; CEncrypt<float>::~CEncrypt<float>, COMDAT
; _this$ = ecx

; 127  : 	{

  00000	c7 01 00 00 00
	00		 mov	 DWORD PTR [ecx], OFFSET ??_7?$CEncrypt@M@@6B@

; 128  : 	}

  00006	83 c1 0c	 add	 ecx, 12			; 0000000cH
  00009	e9 00 00 00 00	 jmp	 ??1ccddaabb@@UAE@XZ	; ccddaabb::~ccddaabb
??1?$CEncrypt@M@@UAE@XZ ENDP				; CEncrypt<float>::~CEncrypt<float>
; Function compile flags: /Ogsp
_TEXT	ENDS
;	COMDAT ??_G?$CEncrypt@M@@UAEPAXI@Z
_TEXT	SEGMENT
___flags$ = 8						; size = 4
??_G?$CEncrypt@M@@UAEPAXI@Z PROC			; CEncrypt<float>::`scalar deleting destructor', COMDAT
; _this$ = ecx
  00000	55		 push	 ebp
  00001	8b ec		 mov	 ebp, esp
  00003	56		 push	 esi
  00004	8b f1		 mov	 esi, ecx
  00006	8d 4e 0c	 lea	 ecx, DWORD PTR [esi+12]
  00009	c7 06 00 00 00
	00		 mov	 DWORD PTR [esi], OFFSET ??_7?$CEncrypt@M@@6B@
  0000f	e8 00 00 00 00	 call	 ??1ccddaabb@@UAE@XZ	; ccddaabb::~ccddaabb
  00014	f6 45 08 01	 test	 BYTE PTR ___flags$[ebp], 1
  00018	74 07		 je	 SHORT $LN1@scalar@2
  0001a	56		 push	 esi
  0001b	e8 00 00 00 00	 call	 ??3@YAXPAX@Z		; operator delete
  00020	59		 pop	 ecx
$LN1@scalar@2:
  00021	8b c6		 mov	 eax, esi
  00023	5e		 pop	 esi
  00024	5d		 pop	 ebp
  00025	c2 04 00	 ret	 4
??_G?$CEncrypt@M@@UAEPAXI@Z ENDP			; CEncrypt<float>::`scalar deleting destructor'
_TEXT	ENDS
PUBLIC	?EncryptValueToPool@?$CEncrypt@M@@AAEXPBD@Z	; CEncrypt<float>::EncryptValueToPool
EXTRN	?EncryptByte@ccddaabb@@QAEXPBDPADH@Z:PROC	; ccddaabb::EncryptByte
; Function compile flags: /Ogsp
;	COMDAT ?EncryptValueToPool@?$CEncrypt@M@@AAEXPBD@Z
_TEXT	SEGMENT
_value$ = 8						; size = 4
?EncryptValueToPool@?$CEncrypt@M@@AAEXPBD@Z PROC	; CEncrypt<float>::EncryptValueToPool, COMDAT
; _this$ = ecx

; 67   : 	{

  00000	55		 push	 ebp
  00001	8b ec		 mov	 ebp, esp

; 68   : 		m_RC5.EncryptByte( value, m_MemPool, max(m_ValueSize, DEFAULT_ENCRYPT) );

  00003	0f b7 41 06	 movzx	 eax, WORD PTR [ecx+6]
  00007	83 f8 04	 cmp	 eax, 4
  0000a	77 03		 ja	 SHORT $LN4@EncryptVal
  0000c	6a 04		 push	 4
  0000e	58		 pop	 eax
$LN4@EncryptVal:
  0000f	50		 push	 eax
  00010	8d 41 1c	 lea	 eax, DWORD PTR [ecx+28]
  00013	50		 push	 eax
  00014	ff 75 08	 push	 DWORD PTR _value$[ebp]
  00017	83 c1 0c	 add	 ecx, 12			; 0000000cH
  0001a	e8 00 00 00 00	 call	 ?EncryptByte@ccddaabb@@QAEXPBDPADH@Z ; ccddaabb::EncryptByte

; 69   : 		
; 70   : 	}

  0001f	5d		 pop	 ebp
  00020	c2 04 00	 ret	 4
?EncryptValueToPool@?$CEncrypt@M@@AAEXPBD@Z ENDP	; CEncrypt<float>::EncryptValueToPool
_TEXT	ENDS
PUBLIC	?Init@?$CEncrypt@M@@AAEXXZ			; CEncrypt<float>::Init
EXTRN	?Setup@ccddaabb@@QAEXPBDHH@Z:PROC		; ccddaabb::Setup
EXTRN	__imp__rand:PROC
EXTRN	__imp__timeGetTime@0:PROC
EXTRN	__imp__GetCurrentProcessId@0:PROC
; Function compile flags: /Ogsp
;	COMDAT ?Init@?$CEncrypt@M@@AAEXXZ
_TEXT	SEGMENT
_pid$ = -8						; size = 4
_tick$ = -4						; size = 4
?Init@?$CEncrypt@M@@AAEXXZ PROC				; CEncrypt<float>::Init, COMDAT
; _this$ = ecx

; 73   : 	{

  00000	55		 push	 ebp
  00001	8b ec		 mov	 ebp, esp
  00003	51		 push	 ecx
  00004	51		 push	 ecx
  00005	53		 push	 ebx
  00006	56		 push	 esi
  00007	57		 push	 edi
  00008	8b f1		 mov	 esi, ecx

; 74   : 		DWORD pid = GetCurrentProcessId();

  0000a	ff 15 00 00 00
	00		 call	 DWORD PTR __imp__GetCurrentProcessId@0
  00010	89 45 f8	 mov	 DWORD PTR _pid$[ebp], eax

; 75   : 		DWORD tick = timeGetTime();

  00013	ff 15 00 00 00
	00		 call	 DWORD PTR __imp__timeGetTime@0

; 76   : 		m_ValueSize    = sizeof(type);
; 77   : 		m_MemPoolPos   = (unsigned short)( rand()+pid+tick )%(MAX_MEM_POOL-m_ValueSize);

  00019	8b 3d 00 00 00
	00		 mov	 edi, DWORD PTR __imp__rand
  0001f	89 45 fc	 mov	 DWORD PTR _tick$[ebp], eax
  00022	6a 04		 push	 4
  00024	58		 pop	 eax
  00025	66 89 46 06	 mov	 WORD PTR [esi+6], ax
  00029	ff d7		 call	 edi
  0002b	03 45 f8	 add	 eax, DWORD PTR _pid$[ebp]
  0002e	0f b7 4e 06	 movzx	 ecx, WORD PTR [esi+6]
  00032	03 45 fc	 add	 eax, DWORD PTR _tick$[ebp]
  00035	6a 0c		 push	 12			; 0000000cH
  00037	0f b7 c0	 movzx	 eax, ax
  0003a	5b		 pop	 ebx
  0003b	99		 cdq
  0003c	2b d9		 sub	 ebx, ecx
  0003e	f7 fb		 idiv	 ebx
  00040	66 89 56 04	 mov	 WORD PTR [esi+4], dx

; 78   : 		m_EncryptSeed  = (char)( rand()+pid+tick )%256;

  00044	ff d7		 call	 edi
  00046	02 45 f8	 add	 al, BYTE PTR _pid$[ebp]
  00049	02 45 fc	 add	 al, BYTE PTR _tick$[ebp]
  0004c	0f be c0	 movsx	 eax, al
  0004f	25 ff 00 00 80	 and	 eax, -2147483393	; 800000ffH
  00054	79 07		 jns	 SHORT $LN8@Init
  00056	48		 dec	 eax
  00057	0d 00 ff ff ff	 or	 eax, -256		; ffffff00H
  0005c	40		 inc	 eax
$LN8@Init:
  0005d	88 46 08	 mov	 BYTE PTR [esi+8], al

; 79   : 
; 80   : 		for (int i = 0; i < MAX_MEM_POOL ; i++)

  00060	33 db		 xor	 ebx, ebx
$LL3@Init:

; 81   : 			m_MemPool[i] = (char)( rand()+pid+tick )%256; // 

  00062	ff d7		 call	 edi
  00064	02 45 f8	 add	 al, BYTE PTR _pid$[ebp]
  00067	02 45 fc	 add	 al, BYTE PTR _tick$[ebp]
  0006a	0f be c0	 movsx	 eax, al
  0006d	25 ff 00 00 80	 and	 eax, -2147483393	; 800000ffH
  00072	79 07		 jns	 SHORT $LN9@Init
  00074	48		 dec	 eax
  00075	0d 00 ff ff ff	 or	 eax, -256		; ffffff00H
  0007a	40		 inc	 eax
$LN9@Init:
  0007b	88 44 1e 1c	 mov	 BYTE PTR [esi+ebx+28], al
  0007f	43		 inc	 ebx
  00080	83 fb 0c	 cmp	 ebx, 12			; 0000000cH
  00083	7c dd		 jl	 SHORT $LL3@Init

; 82   : 
; 83   : 		//UJ 130913, : szKey  
; 84   : 		//char szKey[ccddaabb::KEY_SIZE];//="";
; 85   : 		//for (int i = 0; i < ccddaabb::KEY_SIZE  ; i++)
; 86   : 		//	szKey[i] = (char)( rand()+pid+tick )%256; // 
; 87   : 		m_RC5.Setup( NULL, pid, tick );

  00085	ff 75 fc	 push	 DWORD PTR _tick$[ebp]
  00088	8d 4e 0c	 lea	 ecx, DWORD PTR [esi+12]
  0008b	ff 75 f8	 push	 DWORD PTR _pid$[ebp]
  0008e	6a 00		 push	 0
  00090	e8 00 00 00 00	 call	 ?Setup@ccddaabb@@QAEXPBDHH@Z ; ccddaabb::Setup
  00095	5f		 pop	 edi
  00096	5e		 pop	 esi
  00097	5b		 pop	 ebx

; 88   : 
; 89   : #ifdef _NOTUSE
; 90   : 		m_value        = 0;
; 91   : 		EncryptValueToPool((char*)&m_value);
; 92   : 		Debug();
; 93   : #endif
; 94   : 	}

  00098	c9		 leave
  00099	c3		 ret	 0
?Init@?$CEncrypt@M@@AAEXXZ ENDP				; CEncrypt<float>::Init
_TEXT	ENDS
PUBLIC	?DecryptValueToPool@?$CEncrypt@M@@QAEXPAM@Z	; CEncrypt<float>::DecryptValueToPool
EXTRN	?DecryptByte@ccddaabb@@QBEXPBDPADH@Z:PROC	; ccddaabb::DecryptByte
; Function compile flags: /Ogsp
;	COMDAT ?DecryptValueToPool@?$CEncrypt@M@@QAEXPAM@Z
_TEXT	SEGMENT
_value$ = 8						; size = 4
?DecryptValueToPool@?$CEncrypt@M@@QAEXPAM@Z PROC	; CEncrypt<float>::DecryptValueToPool, COMDAT
; _this$ = ecx

; 1648 : 	{

  00000	55		 push	 ebp
  00001	8b ec		 mov	 ebp, esp
  00003	56		 push	 esi

; 1649 : 		m_RC5.DecryptByte( m_MemPool, m_TempMem, 4 );

  00004	8d 71 28	 lea	 esi, DWORD PTR [ecx+40]
  00007	6a 04		 push	 4
  00009	8d 41 1c	 lea	 eax, DWORD PTR [ecx+28]
  0000c	56		 push	 esi
  0000d	50		 push	 eax
  0000e	83 c1 0c	 add	 ecx, 12			; 0000000cH
  00011	e8 00 00 00 00	 call	 ?DecryptByte@ccddaabb@@QBEXPBDPADH@Z ; ccddaabb::DecryptByte

; 1650 : 		*value = *((float*)m_TempMem);

  00016	d9 06		 fld	 DWORD PTR [esi]
  00018	8b 45 08	 mov	 eax, DWORD PTR _value$[ebp]
  0001b	d9 18		 fstp	 DWORD PTR [eax]
  0001d	5e		 pop	 esi

; 1651 : 	}

  0001e	5d		 pop	 ebp
  0001f	c2 04 00	 ret	 4
?DecryptValueToPool@?$CEncrypt@M@@QAEXPAM@Z ENDP	; CEncrypt<float>::DecryptValueToPool
_TEXT	ENDS
PUBLIC	?DecryptValueToPool@?$CEncrypt@W4TeamType@@@@QAEXPAW4TeamType@@@Z ; CEncrypt<enum TeamType>::DecryptValueToPool
; Function compile flags: /Ogsp
;	COMDAT ?DecryptValueToPool@?$CEncrypt@W4TeamType@@@@QAEXPAW4TeamType@@@Z
_TEXT	SEGMENT
_value$ = 8						; size = 4
?DecryptValueToPool@?$CEncrypt@W4TeamType@@@@QAEXPAW4TeamType@@@Z PROC ; CEncrypt<enum TeamType>::DecryptValueToPool, COMDAT
; _this$ = ecx

; 2959 : 	{

  00000	55		 push	 ebp
  00001	8b ec		 mov	 ebp, esp
  00003	56		 push	 esi

; 2960 : 		m_RC5.DecryptByte( m_MemPool, m_TempMem, sizeof(TeamType) );

  00004	8d 71 28	 lea	 esi, DWORD PTR [ecx+40]
  00007	6a 04		 push	 4
  00009	8d 41 1c	 lea	 eax, DWORD PTR [ecx+28]
  0000c	56		 push	 esi
  0000d	50		 push	 eax
  0000e	83 c1 0c	 add	 ecx, 12			; 0000000cH
  00011	e8 00 00 00 00	 call	 ?DecryptByte@ccddaabb@@QBEXPBDPADH@Z ; ccddaabb::DecryptByte

; 2961 : 		*value = *((TeamType*)m_TempMem);

  00016	8b 06		 mov	 eax, DWORD PTR [esi]
  00018	8b 4d 08	 mov	 ecx, DWORD PTR _value$[ebp]
  0001b	89 01		 mov	 DWORD PTR [ecx], eax
  0001d	5e		 pop	 esi

; 2962 : 	}

  0001e	5d		 pop	 ebp
  0001f	c2 04 00	 ret	 4
?DecryptValueToPool@?$CEncrypt@W4TeamType@@@@QAEXPAW4TeamType@@@Z ENDP ; CEncrypt<enum TeamType>::DecryptValueToPool
_TEXT	ENDS
PUBLIC	?capacity@?$vector@UBuffInfoStruct@@V?$allocator@UBuffInfoStruct@@@std@@@std@@QBEIXZ ; std::vector<BuffInfoStruct,std::allocator<BuffInfoStruct> >::capacity
; Function compile flags: /Ogsp
; File c:\program files (x86)\microsoft visual studio 10.0\vc\include\vector
;	COMDAT ?capacity@?$vector@UBuffInfoStruct@@V?$allocator@UBuffInfoStruct@@@std@@@std@@QBEIXZ
_TEXT	SEGMENT
?capacity@?$vector@UBuffInfoStruct@@V?$allocator@UBuffInfoStruct@@@std@@@std@@QBEIXZ PROC ; std::vector<BuffInfoStruct,std::allocator<BuffInfoStruct> >::capacity, COMDAT
; _this$ = ecx

; 777  : 		return (this->_Myend - this->_Myfirst);

  00000	8b 41 08	 mov	 eax, DWORD PTR [ecx+8]
  00003	2b 01		 sub	 eax, DWORD PTR [ecx]
  00005	6a 14		 push	 20			; 00000014H
  00007	99		 cdq
  00008	59		 pop	 ecx
  00009	f7 f9		 idiv	 ecx

; 778  : 		}

  0000b	c3		 ret	 0
?capacity@?$vector@UBuffInfoStruct@@V?$allocator@UBuffInfoStruct@@@std@@@std@@QBEIXZ ENDP ; std::vector<BuffInfoStruct,std::allocator<BuffInfoStruct> >::capacity
_TEXT	ENDS
PUBLIC	?size@?$vector@UBuffInfoStruct@@V?$allocator@UBuffInfoStruct@@@std@@@std@@QBEIXZ ; std::vector<BuffInfoStruct,std::allocator<BuffInfoStruct> >::size
; Function compile flags: /Ogsp
;	COMDAT ?size@?$vector@UBuffInfoStruct@@V?$allocator@UBuffInfoStruct@@@std@@@std@@QBEIXZ
_TEXT	SEGMENT
?size@?$vector@UBuffInfoStruct@@V?$allocator@UBuffInfoStruct@@@std@@@std@@QBEIXZ PROC ; std::vector<BuffInfoStruct,std::allocator<BuffInfoStruct> >::size, COMDAT
; _this$ = ecx

; 879  : 		return (this->_Mylast - this->_Myfirst);

  00000	8b 41 04	 mov	 eax, DWORD PTR [ecx+4]
  00003	2b 01		 sub	 eax, DWORD PTR [ecx]
  00005	6a 14		 push	 20			; 00000014H
  00007	99		 cdq
  00008	59		 pop	 ecx
  00009	f7 f9		 idiv	 ecx

; 880  : 		}

  0000b	c3		 ret	 0
?size@?$vector@UBuffInfoStruct@@V?$allocator@UBuffInfoStruct@@@std@@@std@@QBEIXZ ENDP ; std::vector<BuffInfoStruct,std::allocator<BuffInfoStruct> >::size
_TEXT	ENDS
PUBLIC	??1?$_Vector_val@UBuffInfoStruct@@V?$allocator@UBuffInfoStruct@@@std@@@std@@QAE@XZ ; std::_Vector_val<BuffInfoStruct,std::allocator<BuffInfoStruct> >::~_Vector_val<BuffInfoStruct,std::allocator<BuffInfoStruct> >
; Function compile flags: /Ogsp
;	COMDAT ??1?$_Vector_val@UBuffInfoStruct@@V?$allocator@UBuffInfoStruct@@@std@@@std@@QAE@XZ
_TEXT	SEGMENT
??1?$_Vector_val@UBuffInfoStruct@@V?$allocator@UBuffInfoStruct@@@std@@@std@@QAE@XZ PROC ; std::_Vector_val<BuffInfoStruct,std::allocator<BuffInfoStruct> >::~_Vector_val<BuffInfoStruct,std::allocator<BuffInfoStruct> >, COMDAT
; _this$ = ecx

; 434  : 		}

  00000	c3		 ret	 0
??1?$_Vector_val@UBuffInfoStruct@@V?$allocator@UBuffInfoStruct@@@std@@@std@@QAE@XZ ENDP ; std::_Vector_val<BuffInfoStruct,std::allocator<BuffInfoStruct> >::~_Vector_val<BuffInfoStruct,std::allocator<BuffInfoStruct> >
_TEXT	ENDS
PUBLIC	??0?$allocator@UBuffInfoStruct@@@std@@QAE@XZ	; std::allocator<BuffInfoStruct>::allocator<BuffInfoStruct>
; Function compile flags: /Ogsp
; File c:\program files (x86)\microsoft visual studio 10.0\vc\include\xmemory
;	COMDAT ??0?$allocator@UBuffInfoStruct@@@std@@QAE@XZ
_TEXT	SEGMENT
??0?$allocator@UBuffInfoStruct@@@std@@QAE@XZ PROC	; std::allocator<BuffInfoStruct>::allocator<BuffInfoStruct>, COMDAT
; _this$ = ecx

; 161  : 	_ALLOCATOR() _THROW0()

  00000	8b c1		 mov	 eax, ecx

; 162  : 		{	// construct default allocator (do nothing)
; 163  : 		}

  00002	c3		 ret	 0
??0?$allocator@UBuffInfoStruct@@@std@@QAE@XZ ENDP	; std::allocator<BuffInfoStruct>::allocator<BuffInfoStruct>
_TEXT	ENDS
PUBLIC	?deallocate@?$allocator@UBuffInfoStruct@@@std@@QAEXPAUBuffInfoStruct@@I@Z ; std::allocator<BuffInfoStruct>::deallocate
; Function compile flags: /Ogsp
;	COMDAT ?deallocate@?$allocator@UBuffInfoStruct@@@std@@QAEXPAUBuffInfoStruct@@I@Z
_TEXT	SEGMENT
__Ptr$ = 8						; size = 4
___formal$ = 12						; size = 4
?deallocate@?$allocator@UBuffInfoStruct@@@std@@QAEXPAUBuffInfoStruct@@I@Z PROC ; std::allocator<BuffInfoStruct>::deallocate, COMDAT
; _this$ = ecx

; 181  : 		{	// deallocate object at _Ptr, ignore size

  00000	55		 push	 ebp
  00001	8b ec		 mov	 ebp, esp

; 182  : 		::operator delete(_Ptr);

  00003	ff 75 08	 push	 DWORD PTR __Ptr$[ebp]
  00006	e8 00 00 00 00	 call	 ??3@YAXPAX@Z		; operator delete
  0000b	59		 pop	 ecx

; 183  : 		}

  0000c	5d		 pop	 ebp
  0000d	c2 08 00	 ret	 8
?deallocate@?$allocator@UBuffInfoStruct@@@std@@QAEXPAUBuffInfoStruct@@I@Z ENDP ; std::allocator<BuffInfoStruct>::deallocate
_TEXT	ENDS
PUBLIC	??_C@_0BD@OLBABOEK@vector?$DMT?$DO?5too?5long?$AA@ ; `string'
PUBLIC	?_Xlen@?$vector@UBuffInfoStruct@@V?$allocator@UBuffInfoStruct@@@std@@@std@@IBEXXZ ; std::vector<BuffInfoStruct,std::allocator<BuffInfoStruct> >::_Xlen
EXTRN	__imp_?_Xlength_error@std@@YAXPBD@Z:PROC
;	COMDAT ??_C@_0BD@OLBABOEK@vector?$DMT?$DO?5too?5long?$AA@
; File c:\program files (x86)\microsoft visual studio 10.0\vc\include\vector
CONST	SEGMENT
??_C@_0BD@OLBABOEK@vector?$DMT?$DO?5too?5long?$AA@ DB 'vector<T> too long'
	DB	00H						; `string'
; Function compile flags: /Ogsp
CONST	ENDS
;	COMDAT ?_Xlen@?$vector@UBuffInfoStruct@@V?$allocator@UBuffInfoStruct@@@std@@@std@@IBEXXZ
_TEXT	SEGMENT
?_Xlen@?$vector@UBuffInfoStruct@@V?$allocator@UBuffInfoStruct@@@std@@@std@@IBEXXZ PROC ; std::vector<BuffInfoStruct,std::allocator<BuffInfoStruct> >::_Xlen, COMDAT
; _this$ = ecx

; 1427 : 		_Xlength_error("vector<T> too long");

  00000	68 00 00 00 00	 push	 OFFSET ??_C@_0BD@OLBABOEK@vector?$DMT?$DO?5too?5long?$AA@
  00005	ff 15 00 00 00
	00		 call	 DWORD PTR __imp_?_Xlength_error@std@@YAXPBD@Z
$LN4@Xlen:
$LN3@Xlen:
  0000b	cc		 int	 3
?_Xlen@?$vector@UBuffInfoStruct@@V?$allocator@UBuffInfoStruct@@@std@@@std@@IBEXXZ ENDP ; std::vector<BuffInfoStruct,std::allocator<BuffInfoStruct> >::_Xlen
_TEXT	ENDS
PUBLIC	??0?$allocator@UBuffInfoStruct@@@std@@QAE@ABV01@@Z ; std::allocator<BuffInfoStruct>::allocator<BuffInfoStruct>
; Function compile flags: /Ogsp
; File c:\program files (x86)\microsoft visual studio 10.0\vc\include\xmemory
;	COMDAT ??0?$allocator@UBuffInfoStruct@@@std@@QAE@ABV01@@Z
_TEXT	SEGMENT
___formal$ = 8						; size = 4
??0?$allocator@UBuffInfoStruct@@@std@@QAE@ABV01@@Z PROC	; std::allocator<BuffInfoStruct>::allocator<BuffInfoStruct>, COMDAT
; _this$ = ecx

; 165  : 	_ALLOCATOR(const _ALLOCATOR<_Ty>&) _THROW0()

  00000	8b c1		 mov	 eax, ecx

; 166  : 		{	// construct by copying (do nothing)
; 167  : 		}

  00002	c2 04 00	 ret	 4
??0?$allocator@UBuffInfoStruct@@@std@@QAE@ABV01@@Z ENDP	; std::allocator<BuffInfoStruct>::allocator<BuffInfoStruct>
_TEXT	ENDS
PUBLIC	?max_size@?$allocator@UBuffInfoStruct@@@std@@QBEIXZ ; std::allocator<BuffInfoStruct>::max_size
; Function compile flags: /Ogsp
;	COMDAT ?max_size@?$allocator@UBuffInfoStruct@@@std@@QBEIXZ
_TEXT	SEGMENT
?max_size@?$allocator@UBuffInfoStruct@@@std@@QBEIXZ PROC ; std::allocator<BuffInfoStruct>::max_size, COMDAT
; _this$ = ecx

; 218  : 		_SIZT _Count = (_SIZT)(-1) / sizeof (_Ty);
; 219  : 		return (0 < _Count ? _Count : 1);

  00000	b8 cc cc cc 0c	 mov	 eax, 214748364		; 0cccccccH

; 220  : 		}

  00005	c3		 ret	 0
?max_size@?$allocator@UBuffInfoStruct@@@std@@QBEIXZ ENDP ; std::allocator<BuffInfoStruct>::max_size
_TEXT	ENDS
PUBLIC	__TI2?AVbad_alloc@std@@
PUBLIC	??$_Allocate@UBuffInfoStruct@@@std@@YAPAUBuffInfoStruct@@IPAU1@@Z ; std::_Allocate<BuffInfoStruct>
PUBLIC	__CTA2?AVbad_alloc@std@@
PUBLIC	__CT??_R0?AVbad_alloc@std@@@8??0bad_alloc@std@@QAE@ABV01@@Z12
PUBLIC	??0bad_alloc@std@@QAE@ABV01@@Z			; std::bad_alloc::bad_alloc
PUBLIC	__CT??_R0?AVexception@std@@@8??0exception@std@@QAE@ABV01@@Z12
EXTRN	??2@YAPAXI@Z:PROC				; operator new
EXTRN	__CxxThrowException@8:PROC
EXTRN	??0exception@std@@QAE@ABV01@@Z:PROC		; std::exception::exception
;	COMDAT __CT??_R0?AVexception@std@@@8??0exception@std@@QAE@ABV01@@Z12
; File c:\program files (x86)\microsoft visual studio 10.0\vc\include\exception
xdata$x	SEGMENT
__CT??_R0?AVexception@std@@@8??0exception@std@@QAE@ABV01@@Z12 DD 00H
	DD	FLAT:??_R0?AVexception@std@@@8
	DD	00H
	DD	0ffffffffH
	ORG $+4
	DD	0cH
	DD	FLAT:??0exception@std@@QAE@ABV01@@Z
xdata$x	ENDS
;	COMDAT __CT??_R0?AVbad_alloc@std@@@8??0bad_alloc@std@@QAE@ABV01@@Z12
xdata$x	SEGMENT
__CT??_R0?AVbad_alloc@std@@@8??0bad_alloc@std@@QAE@ABV01@@Z12 DD 00H
	DD	FLAT:??_R0?AVbad_alloc@std@@@8
	DD	00H
	DD	0ffffffffH
	ORG $+4
	DD	0cH
	DD	FLAT:??0bad_alloc@std@@QAE@ABV01@@Z
xdata$x	ENDS
;	COMDAT __CTA2?AVbad_alloc@std@@
xdata$x	SEGMENT
__CTA2?AVbad_alloc@std@@ DD 02H
	DD	FLAT:__CT??_R0?AVbad_alloc@std@@@8??0bad_alloc@std@@QAE@ABV01@@Z12
	DD	FLAT:__CT??_R0?AVexception@std@@@8??0exception@std@@QAE@ABV01@@Z12
xdata$x	ENDS
;	COMDAT __TI2?AVbad_alloc@std@@
xdata$x	SEGMENT
__TI2?AVbad_alloc@std@@ DD 00H
	DD	FLAT:??1bad_alloc@std@@UAE@XZ
	DD	00H
	DD	FLAT:__CTA2?AVbad_alloc@std@@
; Function compile flags: /Ogsp
; File c:\program files (x86)\microsoft visual studio 10.0\vc\include\xmemory
xdata$x	ENDS
;	COMDAT ??$_Allocate@UBuffInfoStruct@@@std@@YAPAUBuffInfoStruct@@IPAU1@@Z
_TEXT	SEGMENT
$T534735 = -12						; size = 12
$T534740 = 8						; size = 4
__Count$ = 8						; size = 4
___formal$ = 12						; size = 4
??$_Allocate@UBuffInfoStruct@@@std@@YAPAUBuffInfoStruct@@IPAU1@@Z PROC ; std::_Allocate<BuffInfoStruct>, COMDAT

; 30   : 	{	// allocate storage for _Count elements of type _Ty

  00000	55		 push	 ebp
  00001	8b ec		 mov	 ebp, esp

; 31   : 	void *_Ptr = 0;
; 32   : 
; 33   : 	if (_Count <= 0)

  00003	8b 4d 08	 mov	 ecx, DWORD PTR __Count$[ebp]
  00006	83 ec 0c	 sub	 esp, 12			; 0000000cH
  00009	33 c0		 xor	 eax, eax
  0000b	85 c9		 test	 ecx, ecx

; 34   : 		_Count = 0;
; 35   : 	else if (((_SIZT)(-1) / sizeof (_Ty) < _Count)

  0000d	74 3c		 je	 SHORT $LN5@Allocate

; 36   : 		|| (_Ptr = ::operator new(_Count * sizeof (_Ty))) == 0)

  0000f	81 f9 cc cc cc
	0c		 cmp	 ecx, 214748364		; 0cccccccH
  00015	77 0e		 ja	 SHORT $LN1@Allocate
  00017	6b c9 14	 imul	 ecx, 20			; 00000014H
  0001a	51		 push	 ecx
  0001b	e8 00 00 00 00	 call	 ??2@YAPAXI@Z		; operator new
  00020	59		 pop	 ecx
  00021	85 c0		 test	 eax, eax

; 38   : 
; 39   : 	return ((_Ty _FARQ *)_Ptr);

  00023	75 26		 jne	 SHORT $LN5@Allocate
$LN1@Allocate:

; 37   : 		_THROW_NCEE(bad_alloc, 0);

  00025	83 65 08 00	 and	 DWORD PTR $T534740[ebp], 0
  00029	8d 45 08	 lea	 eax, DWORD PTR $T534740[ebp]
  0002c	50		 push	 eax
  0002d	8d 4d f4	 lea	 ecx, DWORD PTR $T534735[ebp]
  00030	ff 15 00 00 00
	00		 call	 DWORD PTR __imp_??0exception@std@@QAE@ABQBD@Z
  00036	68 00 00 00 00	 push	 OFFSET __TI2?AVbad_alloc@std@@
  0003b	8d 45 f4	 lea	 eax, DWORD PTR $T534735[ebp]
  0003e	50		 push	 eax
  0003f	c7 45 f4 00 00
	00 00		 mov	 DWORD PTR $T534735[ebp], OFFSET ??_7bad_alloc@std@@6B@
  00046	e8 00 00 00 00	 call	 __CxxThrowException@8
$LN10@Allocate:
$LN5@Allocate:

; 40   : 	}

  0004b	c9		 leave
  0004c	c3		 ret	 0
$LN9@Allocate:
??$_Allocate@UBuffInfoStruct@@@std@@YAPAUBuffInfoStruct@@IPAU1@@Z ENDP ; std::_Allocate<BuffInfoStruct>
_TEXT	ENDS
EXTRN	__imp_??0exception@std@@QAE@ABV01@@Z:PROC
; Function compile flags: /Ogsp
;	COMDAT ??0bad_alloc@std@@QAE@ABV01@@Z
_TEXT	SEGMENT
___that$ = 8						; size = 4
??0bad_alloc@std@@QAE@ABV01@@Z PROC			; std::bad_alloc::bad_alloc, COMDAT
; _this$ = ecx
  00000	55		 push	 ebp
  00001	8b ec		 mov	 ebp, esp
  00003	56		 push	 esi
  00004	ff 75 08	 push	 DWORD PTR ___that$[ebp]
  00007	8b f1		 mov	 esi, ecx
  00009	ff 15 00 00 00
	00		 call	 DWORD PTR __imp_??0exception@std@@QAE@ABV01@@Z
  0000f	c7 06 00 00 00
	00		 mov	 DWORD PTR [esi], OFFSET ??_7bad_alloc@std@@6B@
  00015	8b c6		 mov	 eax, esi
  00017	5e		 pop	 esi
  00018	5d		 pop	 ebp
  00019	c2 04 00	 ret	 4
??0bad_alloc@std@@QAE@ABV01@@Z ENDP			; std::bad_alloc::bad_alloc
_TEXT	ENDS
PUBLIC	??$_Ptr_cat@UBuffInfoStruct@@U1@@std@@YA?AU_Nonscalar_ptr_iterator_tag@0@PAUBuffInfoStruct@@0@Z ; std::_Ptr_cat<BuffInfoStruct,BuffInfoStruct>
; Function compile flags: /Ogsp
; File c:\program files (x86)\microsoft visual studio 10.0\vc\include\xutility
;	COMDAT ??$_Ptr_cat@UBuffInfoStruct@@U1@@std@@YA?AU_Nonscalar_ptr_iterator_tag@0@PAUBuffInfoStruct@@0@Z
_TEXT	SEGMENT
__Cat$ = -1						; size = 1
___formal$ = 8						; size = 4
___formal$ = 12						; size = 4
??$_Ptr_cat@UBuffInfoStruct@@U1@@std@@YA?AU_Nonscalar_ptr_iterator_tag@0@PAUBuffInfoStruct@@0@Z PROC ; std::_Ptr_cat<BuffInfoStruct,BuffInfoStruct>, COMDAT

; 516  : 	{	// return pointer category from pointers

  00000	55		 push	 ebp
  00001	8b ec		 mov	 ebp, esp
  00003	51		 push	 ecx

; 517  : 	typename _Ptr_cat_helper<_Elem1, _Elem2>::_Type _Cat;
; 518  : 	return (_Cat);

  00004	8a 45 ff	 mov	 al, BYTE PTR __Cat$[ebp]

; 519  : 	}

  00007	c9		 leave
  00008	c3		 ret	 0
??$_Ptr_cat@UBuffInfoStruct@@U1@@std@@YA?AU_Nonscalar_ptr_iterator_tag@0@PAUBuffInfoStruct@@0@Z ENDP ; std::_Ptr_cat<BuffInfoStruct,BuffInfoStruct>
_TEXT	ENDS
PUBLIC	??_GBuffInfoStruct@@QAEPAXI@Z			; BuffInfoStruct::`scalar deleting destructor'
; Function compile flags: /Ogsp
;	COMDAT ??_GBuffInfoStruct@@QAEPAXI@Z
_TEXT	SEGMENT
___flags$ = 8						; size = 4
??_GBuffInfoStruct@@QAEPAXI@Z PROC			; BuffInfoStruct::`scalar deleting destructor', COMDAT
; _this$ = ecx
  00000	55		 push	 ebp
  00001	8b ec		 mov	 ebp, esp
  00003	56		 push	 esi
  00004	8b f1		 mov	 esi, ecx
  00006	ff 15 00 00 00
	00		 call	 DWORD PTR __imp_??1ioHashString@@QAE@XZ
  0000c	f6 45 08 01	 test	 BYTE PTR ___flags$[ebp], 1
  00010	74 07		 je	 SHORT $LN1@scalar@3
  00012	56		 push	 esi
  00013	e8 00 00 00 00	 call	 ??3@YAXPAX@Z		; operator delete
  00018	59		 pop	 ecx
$LN1@scalar@3:
  00019	8b c6		 mov	 eax, esi
  0001b	5e		 pop	 esi
  0001c	5d		 pop	 ebp
  0001d	c2 04 00	 ret	 4
??_GBuffInfoStruct@@QAEPAXI@Z ENDP			; BuffInfoStruct::`scalar deleting destructor'
_TEXT	ENDS
PUBLIC	??$forward@AAUBuffInfoStruct@@@std@@YAAAUBuffInfoStruct@@AAU1@@Z ; std::forward<BuffInfoStruct &>
; Function compile flags: /Ogsp
; File c:\program files (x86)\microsoft visual studio 10.0\vc\include\utility
;	COMDAT ??$forward@AAUBuffInfoStruct@@@std@@YAAAUBuffInfoStruct@@AAU1@@Z
_TEXT	SEGMENT
__Arg$ = 8						; size = 4
??$forward@AAUBuffInfoStruct@@@std@@YAAAUBuffInfoStruct@@AAU1@@Z PROC ; std::forward<BuffInfoStruct &>, COMDAT

; 78   : 	{	// forward _Arg, given explicitly specified type parameter

  00000	55		 push	 ebp
  00001	8b ec		 mov	 ebp, esp

; 79   : 	return ((_Ty&&)_Arg);

  00003	8b 45 08	 mov	 eax, DWORD PTR __Arg$[ebp]

; 80   : 	}

  00006	5d		 pop	 ebp
  00007	c3		 ret	 0
??$forward@AAUBuffInfoStruct@@@std@@YAAAUBuffInfoStruct@@AAU1@@Z ENDP ; std::forward<BuffInfoStruct &>
_TEXT	ENDS
PUBLIC	??0BuffInfoStruct@@QAE@ABU0@@Z			; BuffInfoStruct::BuffInfoStruct
EXTRN	__imp_??0ioHashString@@QAE@ABV0@@Z:PROC
; Function compile flags: /Ogsp
;	COMDAT ??0BuffInfoStruct@@QAE@ABU0@@Z
_TEXT	SEGMENT
___that$ = 8						; size = 4
??0BuffInfoStruct@@QAE@ABU0@@Z PROC			; BuffInfoStruct::BuffInfoStruct, COMDAT
; _this$ = ecx
  00000	55		 push	 ebp
  00001	8b ec		 mov	 ebp, esp
  00003	56		 push	 esi
  00004	57		 push	 edi
  00005	8b 7d 08	 mov	 edi, DWORD PTR ___that$[ebp]
  00008	57		 push	 edi
  00009	8b f1		 mov	 esi, ecx
  0000b	ff 15 00 00 00
	00		 call	 DWORD PTR __imp_??0ioHashString@@QAE@ABV0@@Z
  00011	8b 47 10	 mov	 eax, DWORD PTR [edi+16]
  00014	89 46 10	 mov	 DWORD PTR [esi+16], eax
  00017	5f		 pop	 edi
  00018	8b c6		 mov	 eax, esi
  0001a	5e		 pop	 esi
  0001b	5d		 pop	 ebp
  0001c	c2 04 00	 ret	 4
??0BuffInfoStruct@@QAE@ABU0@@Z ENDP			; BuffInfoStruct::BuffInfoStruct
_TEXT	ENDS
PUBLIC	??_R0?AVioBaseChar@@@8				; ioBaseChar `RTTI Type Descriptor'
PUBLIC	?ToBaseChar@@YAPAVioBaseChar@@PAVioGameEntity@@@Z ; ToBaseChar
;	COMDAT ??_R0?AVioBaseChar@@@8
; File d:\lost saga for developer\youtube\tutorial\source\src\lsclient\iobasechar.h
_DATA	SEGMENT
??_R0?AVioBaseChar@@@8 DD FLAT:??_7type_info@@6B@	; ioBaseChar `RTTI Type Descriptor'
	DD	00H
	DB	'.?AVioBaseChar@@', 00H
; Function compile flags: /Ogsp
_DATA	ENDS
;	COMDAT ?ToBaseChar@@YAPAVioBaseChar@@PAVioGameEntity@@@Z
_TEXT	SEGMENT
_pObj$ = 8						; size = 4
?ToBaseChar@@YAPAVioBaseChar@@PAVioGameEntity@@@Z PROC	; ToBaseChar, COMDAT

; 4326 : {

  00000	55		 push	 ebp
  00001	8b ec		 mov	 ebp, esp
  00003	56		 push	 esi

; 4327 : 	ioPlayEntity *pPlay = ToPlayEntity( pObj );

  00004	ff 75 08	 push	 DWORD PTR _pObj$[ebp]
  00007	e8 00 00 00 00	 call	 ?ToPlayEntity@@YAPAVioPlayEntity@@PAVioGameEntity@@@Z ; ToPlayEntity
  0000c	8b f0		 mov	 esi, eax
  0000e	59		 pop	 ecx

; 4328 : 	if( !pPlay || pPlay->GetSubType() != ioPlayEntity::PST_CHAR )

  0000f	85 f6		 test	 esi, esi
  00011	74 25		 je	 SHORT $LN1@ToBaseChar
  00013	8b 06		 mov	 eax, DWORD PTR [esi]
  00015	8b ce		 mov	 ecx, esi
  00017	ff 90 a4 00 00
	00		 call	 DWORD PTR [eax+164]
  0001d	85 c0		 test	 eax, eax
  0001f	75 17		 jne	 SHORT $LN1@ToBaseChar

; 4330 : 
; 4331 : 	return dynamic_cast< ioBaseChar* >( pPlay );

  00021	50		 push	 eax
  00022	68 00 00 00 00	 push	 OFFSET ??_R0?AVioBaseChar@@@8
  00027	68 00 00 00 00	 push	 OFFSET ??_R0?AVioPlayEntity@@@8
  0002c	50		 push	 eax
  0002d	56		 push	 esi
  0002e	e8 00 00 00 00	 call	 ___RTDynamicCast
  00033	83 c4 14	 add	 esp, 20			; 00000014H
  00036	eb 02		 jmp	 SHORT $LN3@ToBaseChar
$LN1@ToBaseChar:

; 4329 : 		return NULL;

  00038	33 c0		 xor	 eax, eax
$LN3@ToBaseChar:
  0003a	5e		 pop	 esi

; 4332 : }

  0003b	5d		 pop	 ebp
  0003c	c3		 ret	 0
?ToBaseChar@@YAPAVioBaseChar@@PAVioGameEntity@@@Z ENDP	; ToBaseChar
_TEXT	ENDS
PUBLIC	?SetMoveDir@ioLobeliaWeapon@@UAEXABUD3DXVECTOR3@@@Z ; ioLobeliaWeapon::SetMoveDir
; Function compile flags: /Ogsp
; File d:\lost saga for developer\youtube\tutorial\source\src\lsclient\iolobeliaweapon.cpp
;	COMDAT ?SetMoveDir@ioLobeliaWeapon@@UAEXABUD3DXVECTOR3@@@Z
_TEXT	SEGMENT
$T530900 = -24						; size = 12
_v$534781 = -12						; size = 12
tv328 = 8						; size = 4
_vDir$ = 8						; size = 4
?SetMoveDir@ioLobeliaWeapon@@UAEXABUD3DXVECTOR3@@@Z PROC ; ioLobeliaWeapon::SetMoveDir, COMDAT
; _this$ = ecx

; 131  : {

  00000	55		 push	 ebp
  00001	8b ec		 mov	 ebp, esp
  00003	83 ec 18	 sub	 esp, 24			; 00000018H
  00006	56		 push	 esi

; 132  : 	m_vMoveDir = vDir;

  00007	8b 75 08	 mov	 esi, DWORD PTR _vDir$[ebp]
  0000a	57		 push	 edi
  0000b	8d b9 c4 08 00
	00		 lea	 edi, DWORD PTR [ecx+2244]
  00011	a5		 movsd
  00012	a5		 movsd
  00013	a5		 movsd

; 133  : 
; 134  : 	D3DXVec3Cross( &m_vRollAxis,
; 135  : 				   &D3DXVECTOR3( 0.0f, FLOAT1, 0.0f ),
; 136  : 				   &m_vMoveDir );

  00014	b8 01 00 00 00	 mov	 eax, 1
  00019	89 45 08	 mov	 DWORD PTR tv328[ebp], eax
  0001c	db 45 08	 fild	 DWORD PTR tv328[ebp]
  0001f	85 c0		 test	 eax, eax
  00021	79 06		 jns	 SHORT $LN11@SetMoveDir
  00023	d8 05 00 00 00
	00		 fadd	 DWORD PTR __real@4f800000
$LN11@SetMoveDir:
  00029	f3 0f 10 91 cc
	08 00 00	 movss	 xmm2, DWORD PTR [ecx+2252]
  00031	d9 5d ec	 fstp	 DWORD PTR $T530900[ebp+4]
  00034	f3 0f 10 81 c8
	08 00 00	 movss	 xmm0, DWORD PTR [ecx+2248]
  0003c	0f 57 c9	 xorps	 xmm1, xmm1
  0003f	f3 0f 10 65 ec	 movss	 xmm4, DWORD PTR $T530900[ebp+4]
  00044	0f 5a da	 cvtps2pd xmm3, xmm2
  00047	0f 5a e4	 cvtps2pd xmm4, xmm4
  0004a	f2 0f 59 dc	 mulsd	 xmm3, xmm4
  0004e	0f 5a c0	 cvtps2pd xmm0, xmm0
  00051	f2 0f 59 c1	 mulsd	 xmm0, xmm1
  00055	f2 0f 5c d8	 subsd	 xmm3, xmm0
  00059	66 0f 5a db	 cvtpd2ps xmm3, xmm3
  0005d	f3 0f 11 5d f4	 movss	 DWORD PTR _v$534781[ebp], xmm3
  00062	f3 0f 10 99 c4
	08 00 00	 movss	 xmm3, DWORD PTR [ecx+2244]
  0006a	0f 5a d2	 cvtps2pd xmm2, xmm2
  0006d	f2 0f 59 d1	 mulsd	 xmm2, xmm1
  00071	0f 5a e3	 cvtps2pd xmm4, xmm3
  00074	f2 0f 59 e1	 mulsd	 xmm4, xmm1
  00078	f2 0f 5c e2	 subsd	 xmm4, xmm2
  0007c	f3 0f 10 55 ec	 movss	 xmm2, DWORD PTR $T530900[ebp+4]
  00081	66 0f 5a cc	 cvtpd2ps xmm1, xmm4
  00085	f3 0f 11 4d f8	 movss	 DWORD PTR _v$534781[ebp+4], xmm1
  0008a	0f 5a d2	 cvtps2pd xmm2, xmm2
  0008d	8d b9 d0 08 00
	00		 lea	 edi, DWORD PTR [ecx+2256]
  00093	8d 75 f4	 lea	 esi, DWORD PTR _v$534781[ebp]
  00096	0f 5a cb	 cvtps2pd xmm1, xmm3
  00099	f2 0f 59 ca	 mulsd	 xmm1, xmm2
  0009d	f2 0f 5c c1	 subsd	 xmm0, xmm1
  000a1	66 0f 5a c0	 cvtpd2ps xmm0, xmm0
  000a5	f3 0f 11 45 fc	 movss	 DWORD PTR _v$534781[ebp+8], xmm0
  000aa	a5		 movsd
  000ab	a5		 movsd
  000ac	a5		 movsd
  000ad	5f		 pop	 edi
  000ae	5e		 pop	 esi

; 137  : }

  000af	c9		 leave
  000b0	c2 04 00	 ret	 4
?SetMoveDir@ioLobeliaWeapon@@UAEXABUD3DXVECTOR3@@@Z ENDP ; ioLobeliaWeapon::SetMoveDir
_TEXT	ENDS
PUBLIC	?SetFireMesh@ioLobeliaWeapon@@IAE_NABVioHashString@@@Z ; ioLobeliaWeapon::SetFireMesh
EXTRN	__imp_?GetExtents@ioOrientBox@@QBEMH@Z:PROC
EXTRN	__imp_?GetCollisionBox@ioEffect@@QBEABVioOrientBox@@XZ:PROC
EXTRN	?SetPosition@ioWeapon@@QAEXABUD3DXVECTOR3@@@Z:PROC ; ioWeapon::SetPosition
EXTRN	__imp_??D@YA?AUD3DXVECTOR3@@ABU0@0@Z:PROC
EXTRN	__imp_??D@YA?AUD3DXVECTOR3@@ABUD3DXQUATERNION@@ABU0@@Z:PROC
EXTRN	__imp_?GetBiped@ioEntityGroup@@QAEPAVioBiped@@ABVioHashString@@@Z:PROC
EXTRN	__imp_?GetFirstLinkOffset@ioEffect@@QAE_NAAVioHashString@@AAUD3DXVECTOR3@@AAUD3DXQUATERNION@@@Z:PROC
EXTRN	__imp_?GetSkeletonName@ioEffect@@QBE?AVioHashString@@XZ:PROC
EXTRN	__imp_?CreateEffect@ioEffectFactory@@QAEPAVioEffect@@ABVioHashString@@@Z:PROC
EXTRN	__imp_?GetSingleton@ioEffectFactory@@SAAAV1@XZ:PROC
EXTRN	?GetOwner@ioWeapon@@QBEPAVioBaseChar@@XZ:PROC	; ioWeapon::GetOwner
EXTRN	__EH_epilog3_GS:PROC
EXTRN	__EH_prolog3_GS:PROC
;	COMDAT xdata$x
; File c:\program files (x86)\microsoft directx sdk (june 2010)\include\d3dx9math.inl
xdata$x	SEGMENT
__unwindtable$?SetFireMesh@ioLobeliaWeapon@@IAE_NABVioHashString@@@Z DD 0ffffffffH
	DD	FLAT:__unwindfunclet$?SetFireMesh@ioLobeliaWeapon@@IAE_NABVioHashString@@@Z$0
	DD	00H
	DD	FLAT:__unwindfunclet$?SetFireMesh@ioLobeliaWeapon@@IAE_NABVioHashString@@@Z$1
__ehfuncinfo$?SetFireMesh@ioLobeliaWeapon@@IAE_NABVioHashString@@@Z DD 019930522H
	DD	02H
	DD	FLAT:__unwindtable$?SetFireMesh@ioLobeliaWeapon@@IAE_NABVioHashString@@@Z
	DD	2 DUP(00H)
	DD	2 DUP(00H)
	DD	00H
	DD	01H
; Function compile flags: /Ogsp
; File d:\lost saga for developer\youtube\tutorial\source\src\lsclient\iolobeliaweapon.cpp
xdata$x	ENDS
;	COMDAT ?SetFireMesh@ioLobeliaWeapon@@IAE_NABVioHashString@@@Z
_TEXT	SEGMENT
_qtLinkRotOffset$ = -100				; size = 16
_szLinkBiped$ = -84					; size = 16
_pOwner$ = -68						; size = 4
tv646 = -64						; size = 4
tv644 = -64						; size = 4
tv642 = -64						; size = 4
$T534798 = -64						; size = 4
$T534792 = -57						; size = 1
$T534793 = -56						; size = 16
$T530922 = -52						; size = 12
$T530923 = -40						; size = 12
$T530921 = -40						; size = 12
$T530920 = -40						; size = 12
$T530919 = -40						; size = 12
_vLinkPosOffset$ = -28					; size = 12
__$EHRec$ = -12						; size = 12
_szFileName$ = 8					; size = 4
?SetFireMesh@ioLobeliaWeapon@@IAE_NABVioHashString@@@Z PROC ; ioLobeliaWeapon::SetFireMesh, COMDAT
; _this$ = ecx

; 140  : {

  00000	6a 58		 push	 88			; 00000058H
  00002	b8 00 00 00 00	 mov	 eax, __ehhandler$?SetFireMesh@ioLobeliaWeapon@@IAE_NABVioHashString@@@Z
  00007	e8 00 00 00 00	 call	 __EH_prolog3_GS
  0000c	8b 75 08	 mov	 esi, DWORD PTR _szFileName$[ebp]
  0000f	83 65 c0 00	 and	 DWORD PTR $T534798[ebp], 0
  00013	8b d9		 mov	 ebx, ecx

; 141  : 	ioBaseChar *pOwner = GetOwner();

  00015	e8 00 00 00 00	 call	 ?GetOwner@ioWeapon@@QBEPAVioBaseChar@@XZ ; ioWeapon::GetOwner
  0001a	89 45 bc	 mov	 DWORD PTR _pOwner$[ebp], eax

; 142  : 	if( !pOwner )	return false;

  0001d	85 c0		 test	 eax, eax
  0001f	75 07		 jne	 SHORT $LN4@SetFireMes
$LN43@SetFireMes:
  00021	32 c0		 xor	 al, al
  00023	e9 96 02 00 00	 jmp	 $LN5@SetFireMes
$LN4@SetFireMes:

; 143  : 
; 144  : 	m_pFireMesh = g_EffectFactory.CreateEffect( szFileName );

  00028	56		 push	 esi
  00029	ff 15 00 00 00
	00		 call	 DWORD PTR __imp_?GetSingleton@ioEffectFactory@@SAAAV1@XZ
  0002f	8b c8		 mov	 ecx, eax
  00031	ff 15 00 00 00
	00		 call	 DWORD PTR __imp_?CreateEffect@ioEffectFactory@@QAEPAVioEffect@@ABVioHashString@@@Z
  00037	89 83 98 08 00
	00		 mov	 DWORD PTR [ebx+2200], eax

; 145  : 	if( !m_pFireMesh )	return false;

  0003d	85 c0		 test	 eax, eax
  0003f	74 e0		 je	 SHORT $LN43@SetFireMes

; 146  : 
; 147  : 	GetParentSceneNode()->AttachObject( m_pFireMesh );

  00041	8b 4b 04	 mov	 ecx, DWORD PTR [ebx+4]
  00044	8b 11		 mov	 edx, DWORD PTR [ecx]
  00046	83 c0 14	 add	 eax, 20			; 00000014H
  00049	50		 push	 eax
  0004a	ff 92 ac 00 00
	00		 call	 DWORD PTR [edx+172]

; 148  : 	GetParentSceneNode()->SetScale( FLOAT1, FLOAT1, FLOAT1 );

  00050	8b 4b 04	 mov	 ecx, DWORD PTR [ebx+4]
  00053	b8 01 00 00 00	 mov	 eax, 1
  00058	8b d0		 mov	 edx, eax
  0005a	b8 01 00 00 00	 mov	 eax, 1
  0005f	8b f8		 mov	 edi, eax
  00061	b8 01 00 00 00	 mov	 eax, 1
  00066	8b 31		 mov	 esi, DWORD PTR [ecx]
  00068	89 55 c0	 mov	 DWORD PTR tv646[ebp], edx
  0006b	db 45 c0	 fild	 DWORD PTR tv646[ebp]
  0006e	85 d2		 test	 edx, edx
  00070	79 06		 jns	 SHORT $LN40@SetFireMes
  00072	d8 05 00 00 00
	00		 fadd	 DWORD PTR __real@4f800000
$LN40@SetFireMes:
  00078	83 ec 0c	 sub	 esp, 12			; 0000000cH
  0007b	d9 5c 24 08	 fstp	 DWORD PTR [esp+8]
  0007f	89 7d c0	 mov	 DWORD PTR tv644[ebp], edi
  00082	db 45 c0	 fild	 DWORD PTR tv644[ebp]
  00085	85 ff		 test	 edi, edi
  00087	79 06		 jns	 SHORT $LN41@SetFireMes
  00089	d8 05 00 00 00
	00		 fadd	 DWORD PTR __real@4f800000
$LN41@SetFireMes:
  0008f	d9 5c 24 04	 fstp	 DWORD PTR [esp+4]
  00093	89 45 c0	 mov	 DWORD PTR tv642[ebp], eax
  00096	db 45 c0	 fild	 DWORD PTR tv642[ebp]
  00099	85 c0		 test	 eax, eax
  0009b	79 06		 jns	 SHORT $LN42@SetFireMes
  0009d	d8 05 00 00 00
	00		 fadd	 DWORD PTR __real@4f800000
$LN42@SetFireMes:
  000a3	d9 1c 24	 fstp	 DWORD PTR [esp]
  000a6	ff 56 1c	 call	 DWORD PTR [esi+28]

; 149  : 
; 150  : 	ioHashString szLinkBiped;

  000a9	8d 4d ac	 lea	 ecx, DWORD PTR _szLinkBiped$[ebp]
  000ac	ff 15 00 00 00
	00		 call	 DWORD PTR __imp_??0ioHashString@@QAE@XZ

; 151  : 	D3DXVECTOR3 vLinkPosOffset;
; 152  : 	D3DXQUATERNION qtLinkRotOffset;
; 153  : 
; 154  : 	if( m_pFireMesh->GetSkeletonName().IsEmpty() && m_pFireMesh->GetFirstLinkOffset(szLinkBiped, vLinkPosOffset, qtLinkRotOffset ) )

  000b2	8b 8b 98 08 00
	00		 mov	 ecx, DWORD PTR [ebx+2200]
  000b8	83 65 fc 00	 and	 DWORD PTR __$EHRec$[ebp+8], 0
  000bc	8d 45 c8	 lea	 eax, DWORD PTR $T534793[ebp]
  000bf	50		 push	 eax
  000c0	ff 15 00 00 00
	00		 call	 DWORD PTR __imp_?GetSkeletonName@ioEffect@@QBE?AVioHashString@@XZ
  000c6	8b c8		 mov	 ecx, eax
  000c8	c6 45 fc 01	 mov	 BYTE PTR __$EHRec$[ebp+8], 1
  000cc	c7 45 c0 01 00
	00 00		 mov	 DWORD PTR $T534798[ebp], 1
  000d3	ff 15 00 00 00
	00		 call	 DWORD PTR __imp_?IsEmpty@ioHashString@@QBE_NXZ
  000d9	84 c0		 test	 al, al
  000db	74 20		 je	 SHORT $LN9@SetFireMes
  000dd	8b 8b 98 08 00
	00		 mov	 ecx, DWORD PTR [ebx+2200]
  000e3	8d 45 9c	 lea	 eax, DWORD PTR _qtLinkRotOffset$[ebp]
  000e6	50		 push	 eax
  000e7	8d 45 e4	 lea	 eax, DWORD PTR _vLinkPosOffset$[ebp]
  000ea	50		 push	 eax
  000eb	8d 45 ac	 lea	 eax, DWORD PTR _szLinkBiped$[ebp]
  000ee	50		 push	 eax
  000ef	ff 15 00 00 00
	00		 call	 DWORD PTR __imp_?GetFirstLinkOffset@ioEffect@@QAE_NAAVioHashString@@AAUD3DXVECTOR3@@AAUD3DXQUATERNION@@@Z
  000f5	c6 45 c7 01	 mov	 BYTE PTR $T534792[ebp], 1
  000f9	84 c0		 test	 al, al
  000fb	75 04		 jne	 SHORT $LN10@SetFireMes
$LN9@SetFireMes:
  000fd	c6 45 c7 00	 mov	 BYTE PTR $T534792[ebp], 0
$LN10@SetFireMes:
  00101	83 65 fc 00	 and	 DWORD PTR __$EHRec$[ebp+8], 0
  00105	8d 4d c8	 lea	 ecx, DWORD PTR $T534793[ebp]
  00108	ff 15 00 00 00
	00		 call	 DWORD PTR __imp_??1ioHashString@@QAE@XZ
  0010e	80 7d c7 00	 cmp	 BYTE PTR $T534792[ebp], 0
  00112	0f 84 4a 01 00
	00		 je	 $LN1@SetFireMes

; 155  : 	{
; 156  : 		ioBiped *pLinked = pOwner->GetGroup()->GetBiped( szLinkBiped );

  00118	8b 45 bc	 mov	 eax, DWORD PTR _pOwner$[ebp]
  0011b	8b 48 04	 mov	 ecx, DWORD PTR [eax+4]
  0011e	8d 45 ac	 lea	 eax, DWORD PTR _szLinkBiped$[ebp]
  00121	50		 push	 eax
  00122	ff 15 00 00 00
	00		 call	 DWORD PTR __imp_?GetBiped@ioEntityGroup@@QAEPAVioBiped@@ABVioHashString@@@Z
  00128	8b f8		 mov	 edi, eax

; 157  : 		if( pLinked )

  0012a	85 ff		 test	 edi, edi
  0012c	0f 84 30 01 00
	00		 je	 $LN1@SetFireMes

; 158  : 		{
; 159  : 			vLinkPosOffset = pLinked->GetDerivedOrientation() * vLinkPosOffset + pLinked->GetDerivedPosition();

  00132	8b 07		 mov	 eax, DWORD PTR [edi]
  00134	8b cf		 mov	 ecx, edi
  00136	ff 50 7c	 call	 DWORD PTR [eax+124]
  00139	8b f0		 mov	 esi, eax
  0013b	8d 45 e4	 lea	 eax, DWORD PTR _vLinkPosOffset$[ebp]
  0013e	50		 push	 eax
  0013f	8b 07		 mov	 eax, DWORD PTR [edi]
  00141	8b cf		 mov	 ecx, edi
  00143	ff 50 78	 call	 DWORD PTR [eax+120]
  00146	50		 push	 eax
  00147	8d 45 d8	 lea	 eax, DWORD PTR $T530919[ebp]
  0014a	50		 push	 eax
  0014b	ff 15 00 00 00
	00		 call	 DWORD PTR __imp_??D@YA?AUD3DXVECTOR3@@ABUD3DXQUATERNION@@ABU0@@Z
  00151	f3 0f 10 06	 movss	 xmm0, DWORD PTR [esi]
  00155	f3 0f 10 08	 movss	 xmm1, DWORD PTR [eax]
  00159	f3 0f 10 50 04	 movss	 xmm2, DWORD PTR [eax+4]
  0015e	f3 0f 10 58 08	 movss	 xmm3, DWORD PTR [eax+8]

; 160  : 			vLinkPosOffset = vLinkPosOffset * pOwner->GetWorldScale();

  00163	8b 4d bc	 mov	 ecx, DWORD PTR _pOwner$[ebp]
  00166	0f 5a c9	 cvtps2pd xmm1, xmm1
  00169	0f 5a c0	 cvtps2pd xmm0, xmm0
  0016c	f2 0f 58 c1	 addsd	 xmm0, xmm1
  00170	f3 0f 10 4e 04	 movss	 xmm1, DWORD PTR [esi+4]
  00175	0f 5a d2	 cvtps2pd xmm2, xmm2
  00178	0f 5a c9	 cvtps2pd xmm1, xmm1
  0017b	f2 0f 58 ca	 addsd	 xmm1, xmm2
  0017f	f3 0f 10 56 08	 movss	 xmm2, DWORD PTR [esi+8]
  00184	0f 5a d2	 cvtps2pd xmm2, xmm2
  00187	0f 5a db	 cvtps2pd xmm3, xmm3
  0018a	f2 0f 58 d3	 addsd	 xmm2, xmm3
  0018e	66 0f 5a c0	 cvtpd2ps xmm0, xmm0
  00192	f3 0f 11 45 d8	 movss	 DWORD PTR $T530920[ebp], xmm0
  00197	66 0f 5a c9	 cvtpd2ps xmm1, xmm1
  0019b	f3 0f 11 4d dc	 movss	 DWORD PTR $T530920[ebp+4], xmm1
  001a0	66 0f 5a d2	 cvtpd2ps xmm2, xmm2
  001a4	f3 0f 11 55 e0	 movss	 DWORD PTR $T530920[ebp+8], xmm2
  001a9	8d 75 d8	 lea	 esi, DWORD PTR $T530920[ebp]
  001ac	8d 7d e4	 lea	 edi, DWORD PTR _vLinkPosOffset$[ebp]
  001af	a5		 movsd
  001b0	a5		 movsd
  001b1	a5		 movsd
  001b2	8b 01		 mov	 eax, DWORD PTR [ecx]
  001b4	83 c4 0c	 add	 esp, 12			; 0000000cH
  001b7	ff 50 78	 call	 DWORD PTR [eax+120]
  001ba	50		 push	 eax
  001bb	8d 45 e4	 lea	 eax, DWORD PTR _vLinkPosOffset$[ebp]
  001be	50		 push	 eax
  001bf	8d 45 d8	 lea	 eax, DWORD PTR $T530921[ebp]
  001c2	50		 push	 eax
  001c3	ff 15 00 00 00
	00		 call	 DWORD PTR __imp_??D@YA?AUD3DXVECTOR3@@ABU0@0@Z
  001c9	8b f0		 mov	 esi, eax
  001cb	8d 7d e4	 lea	 edi, DWORD PTR _vLinkPosOffset$[ebp]
  001ce	a5		 movsd
  001cf	a5		 movsd
  001d0	a5		 movsd

; 161  : 			vLinkPosOffset = pOwner->GetWorldOrientation() * vLinkPosOffset + pOwner->GetWorldPosition();

  001d1	8b 7d bc	 mov	 edi, DWORD PTR _pOwner$[ebp]
  001d4	8b 07		 mov	 eax, DWORD PTR [edi]
  001d6	83 c4 0c	 add	 esp, 12			; 0000000cH
  001d9	8b cf		 mov	 ecx, edi
  001db	ff 50 70	 call	 DWORD PTR [eax+112]
  001de	8b f0		 mov	 esi, eax
  001e0	8d 45 e4	 lea	 eax, DWORD PTR _vLinkPosOffset$[ebp]
  001e3	50		 push	 eax
  001e4	8b 07		 mov	 eax, DWORD PTR [edi]
  001e6	8b cf		 mov	 ecx, edi
  001e8	ff 50 74	 call	 DWORD PTR [eax+116]
  001eb	50		 push	 eax
  001ec	8d 45 cc	 lea	 eax, DWORD PTR $T530922[ebp]
  001ef	50		 push	 eax
  001f0	ff 15 00 00 00
	00		 call	 DWORD PTR __imp_??D@YA?AUD3DXVECTOR3@@ABUD3DXQUATERNION@@ABU0@@Z
  001f6	f3 0f 10 06	 movss	 xmm0, DWORD PTR [esi]
  001fa	f3 0f 10 08	 movss	 xmm1, DWORD PTR [eax]
  001fe	f3 0f 10 50 04	 movss	 xmm2, DWORD PTR [eax+4]
  00203	0f 5a c9	 cvtps2pd xmm1, xmm1
  00206	0f 5a c0	 cvtps2pd xmm0, xmm0
  00209	f2 0f 58 c1	 addsd	 xmm0, xmm1
  0020d	f3 0f 10 4e 04	 movss	 xmm1, DWORD PTR [esi+4]
  00212	0f 5a c9	 cvtps2pd xmm1, xmm1
  00215	0f 5a d2	 cvtps2pd xmm2, xmm2
  00218	83 c4 0c	 add	 esp, 12			; 0000000cH
  0021b	66 0f 5a c0	 cvtpd2ps xmm0, xmm0
  0021f	f2 0f 58 ca	 addsd	 xmm1, xmm2
  00223	f3 0f 10 56 08	 movss	 xmm2, DWORD PTR [esi+8]
  00228	f3 0f 10 58 08	 movss	 xmm3, DWORD PTR [eax+8]
  0022d	0f 5a d2	 cvtps2pd xmm2, xmm2
  00230	0f 5a db	 cvtps2pd xmm3, xmm3
  00233	f2 0f 58 d3	 addsd	 xmm2, xmm3
  00237	f3 0f 11 45 d8	 movss	 DWORD PTR $T530923[ebp], xmm0
  0023c	66 0f 5a c9	 cvtpd2ps xmm1, xmm1
  00240	f3 0f 11 4d dc	 movss	 DWORD PTR $T530923[ebp+4], xmm1
  00245	66 0f 5a d2	 cvtpd2ps xmm2, xmm2
  00249	f3 0f 11 55 e0	 movss	 DWORD PTR $T530923[ebp+8], xmm2
  0024e	8d 75 d8	 lea	 esi, DWORD PTR $T530923[ebp]
  00251	8d 7d e4	 lea	 edi, DWORD PTR _vLinkPosOffset$[ebp]
  00254	a5		 movsd
  00255	a5		 movsd

; 162  : 			SetPosition( vLinkPosOffset );

  00256	8d 45 e4	 lea	 eax, DWORD PTR _vLinkPosOffset$[ebp]
  00259	50		 push	 eax
  0025a	8b cb		 mov	 ecx, ebx
  0025c	a5		 movsd
  0025d	e8 00 00 00 00	 call	 ?SetPosition@ioWeapon@@QAEXABUD3DXVECTOR3@@@Z ; ioWeapon::SetPosition
$LN1@SetFireMes:

; 163  : 		}
; 164  : 	}
; 165  : 
; 166  : 	m_pFireMesh->UpdateBounds( true );

  00262	8b 8b 98 08 00
	00		 mov	 ecx, DWORD PTR [ebx+2200]
  00268	83 c1 14	 add	 ecx, 20			; 00000014H
  0026b	8b 01		 mov	 eax, DWORD PTR [ecx]
  0026d	6a 01		 push	 1
  0026f	ff 50 44	 call	 DWORD PTR [eax+68]

; 167  : 	m_LocalAttackBox = m_pFireMesh->GetCollisionBox();

  00272	8b 8b 98 08 00
	00		 mov	 ecx, DWORD PTR [ebx+2200]
  00278	ff 15 00 00 00
	00		 call	 DWORD PTR __imp_?GetCollisionBox@ioEffect@@QBEABVioOrientBox@@XZ
  0027e	6a 11		 push	 17			; 00000011H
  00280	59		 pop	 ecx
  00281	8b f0		 mov	 esi, eax
  00283	8d bb dc 08 00
	00		 lea	 edi, DWORD PTR [ebx+2268]
  00289	f3 a5		 rep movsd

; 168  : 
; 169  : 	m_fExtentsOffSet = m_LocalAttackBox.GetExtents( 1 );

  0028b	6a 01		 push	 1
  0028d	8d 8b dc 08 00
	00		 lea	 ecx, DWORD PTR [ebx+2268]
  00293	ff 15 00 00 00
	00		 call	 DWORD PTR __imp_?GetExtents@ioOrientBox@@QBEMH@Z

; 170  : 
; 171  : 	AddEffectEvent( m_pFireMesh );

  00299	ff b3 98 08 00
	00		 push	 DWORD PTR [ebx+2200]
  0029f	8b 03		 mov	 eax, DWORD PTR [ebx]
  002a1	d9 9b 58 09 00
	00		 fstp	 DWORD PTR [ebx+2392]
  002a7	8b cb		 mov	 ecx, ebx
  002a9	ff 90 68 01 00
	00		 call	 DWORD PTR [eax+360]

; 172  : 	return true;

  002af	83 4d fc ff	 or	 DWORD PTR __$EHRec$[ebp+8], -1
  002b3	8d 4d ac	 lea	 ecx, DWORD PTR _szLinkBiped$[ebp]
  002b6	ff 15 00 00 00
	00		 call	 DWORD PTR __imp_??1ioHashString@@QAE@XZ
  002bc	b0 01		 mov	 al, 1
$LN5@SetFireMes:

; 173  : }

  002be	e8 00 00 00 00	 call	 __EH_epilog3_GS
  002c3	c2 04 00	 ret	 4
_TEXT	ENDS
;	COMDAT text$x
text$x	SEGMENT
__unwindfunclet$?SetFireMesh@ioLobeliaWeapon@@IAE_NABVioHashString@@@Z$0:
  00000	8d 4d ac	 lea	 ecx, DWORD PTR _szLinkBiped$[ebp]
  00003	ff 25 00 00 00
	00		 jmp	 DWORD PTR __imp_??1ioHashString@@QAE@XZ
__unwindfunclet$?SetFireMesh@ioLobeliaWeapon@@IAE_NABVioHashString@@@Z$1:
  00009	8b 45 c0	 mov	 eax, DWORD PTR $T534798[ebp]
  0000c	83 e0 01	 and	 eax, 1
  0000f	0f 84 0d 00 00
	00		 je	 $LN13@SetFireMes
  00015	83 65 c0 fe	 and	 DWORD PTR $T534798[ebp], -2 ; fffffffeH
  00019	8d 4d c8	 lea	 ecx, DWORD PTR $T534793[ebp]
  0001c	ff 25 00 00 00
	00		 jmp	 DWORD PTR __imp_??1ioHashString@@QAE@XZ
$LN13@SetFireMes:
  00022	c3		 ret	 0
__ehhandler$?SetFireMesh@ioLobeliaWeapon@@IAE_NABVioHashString@@@Z:
  00023	8b 54 24 08	 mov	 edx, DWORD PTR [esp+8]
  00027	8d 42 0c	 lea	 eax, DWORD PTR [edx+12]
  0002a	8b 4a 98	 mov	 ecx, DWORD PTR [edx-104]
  0002d	33 c8		 xor	 ecx, eax
  0002f	e8 00 00 00 00	 call	 @__security_check_cookie@4
  00034	8b 4a fc	 mov	 ecx, DWORD PTR [edx-4]
  00037	33 c8		 xor	 ecx, eax
  00039	e8 00 00 00 00	 call	 @__security_check_cookie@4
  0003e	b8 00 00 00 00	 mov	 eax, OFFSET __ehfuncinfo$?SetFireMesh@ioLobeliaWeapon@@IAE_NABVioHashString@@@Z
  00043	e9 00 00 00 00	 jmp	 ___CxxFrameHandler3
text$x	ENDS
?SetFireMesh@ioLobeliaWeapon@@IAE_NABVioHashString@@@Z ENDP ; ioLobeliaWeapon::SetFireMesh
PUBLIC	__real@4000000000000000
PUBLIC	__$ArrayPad$
PUBLIC	?SetWallCollision@ioLobeliaWeapon@@QAEXABUD3DXVECTOR3@@@Z ; ioLobeliaWeapon::SetWallCollision
EXTRN	_D3DXVec3Normalize@8:PROC
;	COMDAT __real@4000000000000000
; File c:\program files (x86)\microsoft directx sdk (june 2010)\include\d3dx9math.inl
CONST	SEGMENT
__real@4000000000000000 DQ 04000000000000000r	; 2
; Function compile flags: /Ogsp
; File d:\lost saga for developer\youtube\tutorial\source\src\lsclient\iolobeliaweapon.cpp
CONST	ENDS
;	COMDAT ?SetWallCollision@ioLobeliaWeapon@@QAEXABUD3DXVECTOR3@@@Z
_TEXT	SEGMENT
_vReflect$ = -16					; size = 12
__$ArrayPad$ = -4					; size = 4
_vFaceNrm$ = 8						; size = 4
?SetWallCollision@ioLobeliaWeapon@@QAEXABUD3DXVECTOR3@@@Z PROC ; ioLobeliaWeapon::SetWallCollision, COMDAT
; _this$ = ecx

; 176  : {

  00000	55		 push	 ebp
  00001	8b ec		 mov	 ebp, esp
  00003	83 ec 10	 sub	 esp, 16			; 00000010H
  00006	a1 00 00 00 00	 mov	 eax, DWORD PTR ___security_cookie
  0000b	33 c5		 xor	 eax, ebp
  0000d	89 45 fc	 mov	 DWORD PTR __$ArrayPad$[ebp], eax
  00010	56		 push	 esi
  00011	8b f1		 mov	 esi, ecx

; 177  : 	if( m_State != TS_MOVE && m_State != TS_PINGPONG ) return;

  00013	8b 86 94 08 00
	00		 mov	 eax, DWORD PTR [esi+2196]
  00019	8b 4d 08	 mov	 ecx, DWORD PTR _vFaceNrm$[ebp]
  0001c	83 f8 01	 cmp	 eax, 1
  0001f	74 09		 je	 SHORT $LN1@SetWallCol
  00021	83 f8 02	 cmp	 eax, 2
  00024	0f 85 ec 00 00
	00		 jne	 $LN2@SetWallCol
$LN1@SetWallCol:

; 178  : 
; 179  : 	D3DXVECTOR3 vReflect = m_vMoveDir - 2.0f * D3DXVec3Dot( &m_vMoveDir, &vFaceNrm ) * vFaceNrm;

  0002a	f3 0f 10 21	 movss	 xmm4, DWORD PTR [ecx]
  0002e	f3 0f 10 49 04	 movss	 xmm1, DWORD PTR [ecx+4]
  00033	f3 0f 10 69 08	 movss	 xmm5, DWORD PTR [ecx+8]
  00038	0f 5a c4	 cvtps2pd xmm0, xmm4
  0003b	0f 5a f9	 cvtps2pd xmm7, xmm1
  0003e	8d 86 c4 08 00
	00		 lea	 eax, DWORD PTR [esi+2244]
  00044	f3 0f 10 18	 movss	 xmm3, DWORD PTR [eax]
  00048	f3 0f 10 50 04	 movss	 xmm2, DWORD PTR [eax+4]
  0004d	0f 5a f3	 cvtps2pd xmm6, xmm3
  00050	f2 0f 59 f0	 mulsd	 xmm6, xmm0
  00054	0f 5a c2	 cvtps2pd xmm0, xmm2
  00057	f2 0f 59 c7	 mulsd	 xmm0, xmm7
  0005b	f2 0f 58 f0	 addsd	 xmm6, xmm0
  0005f	f3 0f 10 40 08	 movss	 xmm0, DWORD PTR [eax+8]
  00064	0f 5a c0	 cvtps2pd xmm0, xmm0
  00067	0f 5a fd	 cvtps2pd xmm7, xmm5
  0006a	f2 0f 59 c7	 mulsd	 xmm0, xmm7
  0006e	f2 0f 58 f0	 addsd	 xmm6, xmm0
  00072	0f 57 c0	 xorps	 xmm0, xmm0
  00075	66 0f 5a c6	 cvtpd2ps xmm0, xmm6
  00079	0f 5a c0	 cvtps2pd xmm0, xmm0
  0007c	f2 0f 59 05 00
	00 00 00	 mulsd	 xmm0, QWORD PTR __real@4000000000000000
  00084	66 0f 5a c0	 cvtpd2ps xmm0, xmm0
  00088	0f 57 f6	 xorps	 xmm6, xmm6
  0008b	f3 0f 5a f0	 cvtss2sd xmm6, xmm0
  0008f	0f 5a e4	 cvtps2pd xmm4, xmm4
  00092	f2 0f 59 e6	 mulsd	 xmm4, xmm6
  00096	0f 57 f6	 xorps	 xmm6, xmm6
  00099	f3 0f 5a f0	 cvtss2sd xmm6, xmm0
  0009d	f3 0f 5a c0	 cvtss2sd xmm0, xmm0
  000a1	0f 5a ed	 cvtps2pd xmm5, xmm5
  000a4	f2 0f 59 e8	 mulsd	 xmm5, xmm0
  000a8	66 0f 5a e4	 cvtpd2ps xmm4, xmm4
  000ac	0f 5a c9	 cvtps2pd xmm1, xmm1
  000af	f2 0f 59 ce	 mulsd	 xmm1, xmm6
  000b3	0f 5a c3	 cvtps2pd xmm0, xmm3
  000b6	0f 57 db	 xorps	 xmm3, xmm3
  000b9	f3 0f 5a dc	 cvtss2sd xmm3, xmm4
  000bd	f2 0f 5c c3	 subsd	 xmm0, xmm3
  000c1	66 0f 5a c0	 cvtpd2ps xmm0, xmm0
  000c5	f3 0f 11 45 f0	 movss	 DWORD PTR _vReflect$[ebp], xmm0
  000ca	66 0f 5a c9	 cvtpd2ps xmm1, xmm1
  000ce	f3 0f 5a c9	 cvtss2sd xmm1, xmm1

; 180  : 	D3DXVec3Normalize( &m_vMoveDir, &vReflect );

  000d2	8d 4d f0	 lea	 ecx, DWORD PTR _vReflect$[ebp]
  000d5	66 0f 5a ed	 cvtpd2ps xmm5, xmm5
  000d9	0f 5a c2	 cvtps2pd xmm0, xmm2
  000dc	f2 0f 5c c1	 subsd	 xmm0, xmm1
  000e0	66 0f 5a c0	 cvtpd2ps xmm0, xmm0
  000e4	f3 0f 11 45 f4	 movss	 DWORD PTR _vReflect$[ebp+4], xmm0
  000e9	f3 0f 10 40 08	 movss	 xmm0, DWORD PTR [eax+8]
  000ee	0f 5a c0	 cvtps2pd xmm0, xmm0
  000f1	0f 57 c9	 xorps	 xmm1, xmm1
  000f4	f3 0f 5a cd	 cvtss2sd xmm1, xmm5
  000f8	51		 push	 ecx
  000f9	f2 0f 5c c1	 subsd	 xmm0, xmm1
  000fd	66 0f 5a c0	 cvtpd2ps xmm0, xmm0
  00101	50		 push	 eax
  00102	f3 0f 11 45 f8	 movss	 DWORD PTR _vReflect$[ebp+8], xmm0
  00107	e8 00 00 00 00	 call	 _D3DXVec3Normalize@8

; 181  : 
; 182  : 	m_State = TS_PINGPONG;

  0010c	c7 86 94 08 00
	00 02 00 00 00	 mov	 DWORD PTR [esi+2196], 2
$LN2@SetWallCol:

; 183  : }

  00116	8b 4d fc	 mov	 ecx, DWORD PTR __$ArrayPad$[ebp]
  00119	33 cd		 xor	 ecx, ebp
  0011b	5e		 pop	 esi
  0011c	e8 00 00 00 00	 call	 @__security_check_cookie@4
  00121	c9		 leave
  00122	c2 04 00	 ret	 4
?SetWallCollision@ioLobeliaWeapon@@QAEXABUD3DXVECTOR3@@@Z ENDP ; ioLobeliaWeapon::SetWallCollision
_TEXT	ENDS
PUBLIC	_pShapeWorldMat$GSCopy$
PUBLIC	__$ArrayPad$
PUBLIC	?TestMapCollision@ioLobeliaWeapon@@UAE_NPAVioOpcodeShape@@PAVioPlayStage@@PBUD3DXMATRIX@@@Z ; ioLobeliaWeapon::TestMapCollision
EXTRN	?GetWorldAttackBox@ioWeapon@@QBEABVioOrientBox@@_N@Z:PROC ; ioWeapon::GetWorldAttackBox
; Function compile flags: /Ogsp
;	COMDAT ?TestMapCollision@ioLobeliaWeapon@@UAE_NPAVioOpcodeShape@@PAVioPlayStage@@PBUD3DXMATRIX@@@Z
_TEXT	SEGMENT
_pShapeWorldMat$GSCopy$ = -24				; size = 4
_iFaceIndex$ = -20					; size = 4
_vNormal$ = -16						; size = 12
__$ArrayPad$ = -4					; size = 4
_pShape$ = 8						; size = 4
_pStage$ = 12						; size = 4
_pShapeWorldMat$ = 16					; size = 4
?TestMapCollision@ioLobeliaWeapon@@UAE_NPAVioOpcodeShape@@PAVioPlayStage@@PBUD3DXMATRIX@@@Z PROC ; ioLobeliaWeapon::TestMapCollision, COMDAT
; _this$ = ecx

; 210  : {

  00000	55		 push	 ebp
  00001	8b ec		 mov	 ebp, esp
  00003	83 ec 18	 sub	 esp, 24			; 00000018H
  00006	a1 00 00 00 00	 mov	 eax, DWORD PTR ___security_cookie
  0000b	33 c5		 xor	 eax, ebp
  0000d	89 45 fc	 mov	 DWORD PTR __$ArrayPad$[ebp], eax
  00010	8b 45 10	 mov	 eax, DWORD PTR _pShapeWorldMat$[ebp]
  00013	56		 push	 esi
  00014	8b 75 08	 mov	 esi, DWORD PTR _pShape$[ebp]
  00017	57		 push	 edi
  00018	8b f9		 mov	 edi, ecx

; 216  : 
; 217  : 	int iFaceIndex = 0;

  0001a	89 45 e8	 mov	 DWORD PTR _pShapeWorldMat$GSCopy$[ebp], eax
  0001d	8b 87 94 08 00
	00		 mov	 eax, DWORD PTR [edi+2196]
  00023	83 f8 01	 cmp	 eax, 1
  00026	74 05		 je	 SHORT $LN2@TestMapCol

; 211  : 	//pShape        TRUE
; 212  : 	//     1   N   TestMapCollision()   
; 213  : 
; 214  : 	if( m_State != TS_MOVE && m_State != TS_PINGPONG )

  00028	83 f8 02	 cmp	 eax, 2

; 215  : 		return true;

  0002b	75 39		 jne	 SHORT $LN7@TestMapCol
$LN2@TestMapCol:

; 216  : 
; 217  : 	int iFaceIndex = 0;

  0002d	83 65 ec 00	 and	 DWORD PTR _iFaceIndex$[ebp], 0
  00031	53		 push	 ebx

; 218  : 	if( !pShape->FindIntersection( pShapeWorldMat, GetWorldAttackBox(true), &iFaceIndex ) )

  00032	8b 1e		 mov	 ebx, DWORD PTR [esi]
  00034	8d 45 ec	 lea	 eax, DWORD PTR _iFaceIndex$[ebp]
  00037	50		 push	 eax
  00038	6a 01		 push	 1
  0003a	e8 00 00 00 00	 call	 ?GetWorldAttackBox@ioWeapon@@QBEABVioOrientBox@@_N@Z ; ioWeapon::GetWorldAttackBox
  0003f	50		 push	 eax
  00040	ff 75 e8	 push	 DWORD PTR _pShapeWorldMat$GSCopy$[ebp]
  00043	8b ce		 mov	 ecx, esi
  00045	ff 53 30	 call	 DWORD PTR [ebx+48]
  00048	5b		 pop	 ebx
  00049	84 c0		 test	 al, al
  0004b	74 1b		 je	 SHORT $LN3@TestMapCol
$LN1@TestMapCol:

; 219  : 		return false;
; 220  : 
; 221  : 	D3DXVECTOR3 vNormal;
; 222  : 	pShape->GetTriNormalInModelSpace( iFaceIndex, vNormal );

  0004d	8b 06		 mov	 eax, DWORD PTR [esi]
  0004f	8d 4d f0	 lea	 ecx, DWORD PTR _vNormal$[ebp]
  00052	51		 push	 ecx
  00053	ff 75 ec	 push	 DWORD PTR _iFaceIndex$[ebp]
  00056	8b ce		 mov	 ecx, esi
  00058	ff 50 38	 call	 DWORD PTR [eax+56]

; 223  : 
; 224  : 	SetWallCollision( vNormal );

  0005b	8d 45 f0	 lea	 eax, DWORD PTR _vNormal$[ebp]
  0005e	50		 push	 eax
  0005f	8b cf		 mov	 ecx, edi
  00061	e8 00 00 00 00	 call	 ?SetWallCollision@ioLobeliaWeapon@@QAEXABUD3DXVECTOR3@@@Z ; ioLobeliaWeapon::SetWallCollision
$LN7@TestMapCol:

; 225  : 	return true;

  00066	b0 01		 mov	 al, 1
$LN3@TestMapCol:

; 226  : }

  00068	8b 4d fc	 mov	 ecx, DWORD PTR __$ArrayPad$[ebp]
  0006b	5f		 pop	 edi
  0006c	33 cd		 xor	 ecx, ebp
  0006e	5e		 pop	 esi
  0006f	e8 00 00 00 00	 call	 @__security_check_cookie@4
  00074	c9		 leave
  00075	c2 0c 00	 ret	 12			; 0000000cH
?TestMapCollision@ioLobeliaWeapon@@UAE_NPAVioOpcodeShape@@PAVioPlayStage@@PBUD3DXMATRIX@@@Z ENDP ; ioLobeliaWeapon::TestMapCollision
_TEXT	ENDS
PUBLIC	?OnNoneState@ioLobeliaWeapon@@IAEXMPAVioPlayStage@@@Z ; ioLobeliaWeapon::OnNoneState
; Function compile flags: /Ogsp
;	COMDAT ?OnNoneState@ioLobeliaWeapon@@IAEXMPAVioPlayStage@@@Z
_TEXT	SEGMENT
_fTimePerSec$ = 8					; size = 4
tv175 = 12						; size = 4
tv172 = 12						; size = 4
_pStage$ = 12						; size = 4
?OnNoneState@ioLobeliaWeapon@@IAEXMPAVioPlayStage@@@Z PROC ; ioLobeliaWeapon::OnNoneState, COMDAT
; _this$ = ecx

; 229  : {

  00000	55		 push	 ebp
  00001	8b ec		 mov	 ebp, esp
  00003	56		 push	 esi
  00004	8b f1		 mov	 esi, ecx

; 230  : 	if( m_dwDuration > 0 && m_dwDuration < FRAMEGETTIME() )

  00006	83 be 20 09 00
	00 00		 cmp	 DWORD PTR [esi+2336], 0
  0000d	57		 push	 edi
  0000e	76 22		 jbe	 SHORT $LN2@OnNoneStat
  00010	ff 15 00 00 00
	00		 call	 DWORD PTR __imp_?GetSingleton@ioFrameTimer@@SAAAV1@XZ
  00016	8b c8		 mov	 ecx, eax
  00018	ff 15 00 00 00
	00		 call	 DWORD PTR __imp_?GetLoopSec@ioFrameTimer@@QBEKXZ
  0001e	39 86 20 09 00
	00		 cmp	 DWORD PTR [esi+2336], eax
  00024	73 0c		 jae	 SHORT $LN2@OnNoneStat

; 231  : 	{
; 232  : 		Explosion( pStage );

  00026	ff 75 0c	 push	 DWORD PTR _pStage$[ebp]
  00029	8b ce		 mov	 ecx, esi
  0002b	e8 00 00 00 00	 call	 ?Explosion@ioLobeliaWeapon@@QAEXPAVioPlayStage@@@Z ; ioLobeliaWeapon::Explosion

; 233  : 		return;

  00030	eb 39		 jmp	 SHORT $LN1@OnNoneStat
$LN2@OnNoneStat:

; 234  : 	}
; 235  : 
; 236  : 	if( m_pFireMesh )

  00032	83 be 98 08 00
	00 00		 cmp	 DWORD PTR [esi+2200], 0
  00039	74 30		 je	 SHORT $LN1@OnNoneStat

; 237  : 	{
; 238  : 		m_pFireMesh->Update( fTimePerSec * FLOAT1000 );

  0003b	b8 e8 03 00 00	 mov	 eax, 1000		; 000003e8H
  00040	8b 8e 98 08 00
	00		 mov	 ecx, DWORD PTR [esi+2200]
  00046	83 c1 14	 add	 ecx, 20			; 00000014H
  00049	8b 11		 mov	 edx, DWORD PTR [ecx]
  0004b	89 45 0c	 mov	 DWORD PTR tv175[ebp], eax
  0004e	db 45 0c	 fild	 DWORD PTR tv175[ebp]
  00051	85 c0		 test	 eax, eax
  00053	79 06		 jns	 SHORT $LN7@OnNoneStat
  00055	d8 05 00 00 00
	00		 fadd	 DWORD PTR __real@4f800000
$LN7@OnNoneStat:
  0005b	d8 4d 08	 fmul	 DWORD PTR _fTimePerSec$[ebp]
  0005e	51		 push	 ecx
  0005f	d9 5d 0c	 fstp	 DWORD PTR tv172[ebp]
  00062	d9 45 0c	 fld	 DWORD PTR tv172[ebp]
  00065	d9 1c 24	 fstp	 DWORD PTR [esp]
  00068	ff 52 40	 call	 DWORD PTR [edx+64]
$LN1@OnNoneStat:
  0006b	5f		 pop	 edi
  0006c	5e		 pop	 esi

; 239  : 	}
; 240  : }

  0006d	5d		 pop	 ebp
  0006e	c2 08 00	 ret	 8
?OnNoneState@ioLobeliaWeapon@@IAEXMPAVioPlayStage@@@Z ENDP ; ioLobeliaWeapon::OnNoneState
_TEXT	ENDS
PUBLIC	__real@408c200000000000
PUBLIC	_pStage$GSCopy$
PUBLIC	__$ArrayPad$
PUBLIC	?OnMoveState@ioLobeliaWeapon@@IAEXMPAVioPlayStage@@@Z ; ioLobeliaWeapon::OnMoveState
EXTRN	__imp_?GetExtents@ioAxisAlignBox@@QBEMH@Z:PROC
EXTRN	?GetRoomGravity@ioPlayStage@@QAEMXZ:PROC	; ioPlayStage::GetRoomGravity
;	COMDAT __real@408c200000000000
; File d:\lost saga for developer\youtube\tutorial\source\src\lsclient\stdafx.h
CONST	SEGMENT
__real@408c200000000000 DQ 0408c200000000000r	; 900
; Function compile flags: /Ogsp
; File d:\lost saga for developer\youtube\tutorial\source\src\lsclient\iolobeliaweapon.cpp
CONST	ENDS
;	COMDAT ?OnMoveState@ioLobeliaWeapon@@IAEXMPAVioPlayStage@@@Z
_TEXT	SEGMENT
tv499 = -48						; size = 4
tv496 = -48						; size = 4
_pStage$GSCopy$ = -48					; size = 4
tv569 = -44						; size = 4
tv517 = -44						; size = 4
_fMapHeight$ = -44					; size = 4
_fCurGravity$ = -44					; size = 4
_vMove$ = -40						; size = 12
_vPos$ = -28						; size = 12
_vCurMove$ = -16					; size = 12
__$ArrayPad$ = -4					; size = 4
_fTimePerSec$ = 8					; size = 4
_pStage$ = 12						; size = 4
?OnMoveState@ioLobeliaWeapon@@IAEXMPAVioPlayStage@@@Z PROC ; ioLobeliaWeapon::OnMoveState, COMDAT
; _this$ = ecx

; 243  : {

  00000	55		 push	 ebp
  00001	8b ec		 mov	 ebp, esp
  00003	83 ec 30	 sub	 esp, 48			; 00000030H
  00006	a1 00 00 00 00	 mov	 eax, DWORD PTR ___security_cookie
  0000b	33 c5		 xor	 eax, ebp
  0000d	89 45 fc	 mov	 DWORD PTR __$ArrayPad$[ebp], eax
  00010	53		 push	 ebx
  00011	56		 push	 esi
  00012	57		 push	 edi
  00013	8b 7d 0c	 mov	 edi, DWORD PTR _pStage$[ebp]
  00016	8b d9		 mov	 ebx, ecx

; 244  : 	if( m_dwDuration > 0 && m_dwDuration < FRAMEGETTIME() )

  00018	83 bb 20 09 00
	00 00		 cmp	 DWORD PTR [ebx+2336], 0

; 281  : 	{
; 282  : 		m_pFireMesh->Update( fTimePerSec * FLOAT1000 );

  0001f	89 7d d0	 mov	 DWORD PTR _pStage$GSCopy$[ebp], edi
  00022	76 23		 jbe	 SHORT $LN3@OnMoveStat

; 244  : 	if( m_dwDuration > 0 && m_dwDuration < FRAMEGETTIME() )

  00024	ff 15 00 00 00
	00		 call	 DWORD PTR __imp_?GetSingleton@ioFrameTimer@@SAAAV1@XZ
  0002a	8b c8		 mov	 ecx, eax
  0002c	ff 15 00 00 00
	00		 call	 DWORD PTR __imp_?GetLoopSec@ioFrameTimer@@QBEKXZ
  00032	39 83 20 09 00
	00		 cmp	 DWORD PTR [ebx+2336], eax
  00038	73 0d		 jae	 SHORT $LN3@OnMoveStat

; 245  : 	{
; 246  : 		Explosion( pStage );

  0003a	57		 push	 edi
  0003b	8b cb		 mov	 ecx, ebx
  0003d	e8 00 00 00 00	 call	 ?Explosion@ioLobeliaWeapon@@QAEXPAVioPlayStage@@@Z ; ioLobeliaWeapon::Explosion

; 247  : 		return;

  00042	e9 a7 02 00 00	 jmp	 $LN1@OnMoveStat
$LN3@OnMoveStat:

; 248  : 	}
; 249  : 
; 250  : 	float fRotateAngle = 900.0f * fTimePerSec;
; 251  : 	GetParentSceneNode()->Rotate( m_vRollAxis, fRotateAngle );

  00047	8b 4b 04	 mov	 ecx, DWORD PTR [ebx+4]
  0004a	f3 0f 10 45 08	 movss	 xmm0, DWORD PTR _fTimePerSec$[ebp]
  0004f	8b 01		 mov	 eax, DWORD PTR [ecx]
  00051	6a 01		 push	 1
  00053	0f 5a c0	 cvtps2pd xmm0, xmm0
  00056	f2 0f 59 05 00
	00 00 00	 mulsd	 xmm0, QWORD PTR __real@408c200000000000
  0005e	51		 push	 ecx
  0005f	f2 0f 5a c0	 cvtsd2ss xmm0, xmm0
  00063	8d 93 d0 08 00
	00		 lea	 edx, DWORD PTR [ebx+2256]
  00069	f3 0f 11 04 24	 movss	 DWORD PTR [esp], xmm0
  0006e	52		 push	 edx
  0006f	ff 50 50	 call	 DWORD PTR [eax+80]

; 252  : 
; 253  : 	D3DXVECTOR3 vCurMove( 0.0, -FLOAT1, 0.0f );

  00072	b8 01 00 00 00	 mov	 eax, 1
  00077	0f 57 c0	 xorps	 xmm0, xmm0
  0007a	89 45 d4	 mov	 DWORD PTR tv569[ebp], eax
  0007d	db 45 d4	 fild	 DWORD PTR tv569[ebp]
  00080	f3 0f 11 45 f0	 movss	 DWORD PTR _vCurMove$[ebp], xmm0
  00085	85 c0		 test	 eax, eax
  00087	79 06		 jns	 SHORT $LN24@OnMoveStat
  00089	d8 05 00 00 00
	00		 fadd	 DWORD PTR __real@4f800000
$LN24@OnMoveStat:
  0008f	d9 e0		 fchs

; 254  : 	float fCurGravity = pStage->GetRoomGravity() * fTimePerSec;

  00091	8b cf		 mov	 ecx, edi
  00093	d9 5d f4	 fstp	 DWORD PTR _vCurMove$[ebp+4]
  00096	f3 0f 11 45 f8	 movss	 DWORD PTR _vCurMove$[ebp+8], xmm0
  0009b	e8 00 00 00 00	 call	 ?GetRoomGravity@ioPlayStage@@QAEMXZ ; ioPlayStage::GetRoomGravity
  000a0	d8 4d 08	 fmul	 DWORD PTR _fTimePerSec$[ebp]

; 255  : 
; 256  : 	D3DXVECTOR3 vMove = m_vMoveDir * ( m_fMoveSpeed * fTimePerSec );

  000a3	f3 0f 10 83 4c
	09 00 00	 movss	 xmm0, DWORD PTR [ebx+2380]
  000ab	f3 0f 10 4d 08	 movss	 xmm1, DWORD PTR _fTimePerSec$[ebp]
  000b0	0f 5a c9	 cvtps2pd xmm1, xmm1
  000b3	d9 5d d4	 fstp	 DWORD PTR _fCurGravity$[ebp]

; 257  : 
; 258  : 	vCurMove *= fCurGravity;

  000b6	f3 0f 10 65 d4	 movss	 xmm4, DWORD PTR _fCurGravity$[ebp]
  000bb	f3 0f 10 6d d4	 movss	 xmm5, DWORD PTR _fCurGravity$[ebp]
  000c0	f3 0f 10 75 d4	 movss	 xmm6, DWORD PTR _fCurGravity$[ebp]
  000c5	0f 5a c0	 cvtps2pd xmm0, xmm0
  000c8	f2 0f 59 c1	 mulsd	 xmm0, xmm1
  000cc	f3 0f 10 8b c4
	08 00 00	 movss	 xmm1, DWORD PTR [ebx+2244]
  000d4	0f 5a c9	 cvtps2pd xmm1, xmm1
  000d7	66 0f 5a c0	 cvtpd2ps xmm0, xmm0
  000db	0f 57 d2	 xorps	 xmm2, xmm2
  000de	f3 0f 5a d0	 cvtss2sd xmm2, xmm0
  000e2	f2 0f 59 ca	 mulsd	 xmm1, xmm2
  000e6	f3 0f 10 93 c8
	08 00 00	 movss	 xmm2, DWORD PTR [ebx+2248]
  000ee	0f 57 db	 xorps	 xmm3, xmm3
  000f1	f3 0f 5a d8	 cvtss2sd xmm3, xmm0
  000f5	0f 5a d2	 cvtps2pd xmm2, xmm2
  000f8	f2 0f 59 d3	 mulsd	 xmm2, xmm3
  000fc	f3 0f 10 9b cc
	08 00 00	 movss	 xmm3, DWORD PTR [ebx+2252]
  00104	0f 5a db	 cvtps2pd xmm3, xmm3
  00107	f3 0f 5a c0	 cvtss2sd xmm0, xmm0
  0010b	f2 0f 59 d8	 mulsd	 xmm3, xmm0
  0010f	66 0f 5a c9	 cvtpd2ps xmm1, xmm1
  00113	f3 0f 11 4d d8	 movss	 DWORD PTR _vMove$[ebp], xmm1
  00118	0f 57 c0	 xorps	 xmm0, xmm0
  0011b	66 0f 5a c3	 cvtpd2ps xmm0, xmm3
  0011f	f3 0f 10 5d f0	 movss	 xmm3, DWORD PTR _vCurMove$[ebp]
  00124	0f 5a e4	 cvtps2pd xmm4, xmm4

; 259  : 	vCurMove += vMove;

  00127	f3 0f 5a c9	 cvtss2sd xmm1, xmm1
  0012b	0f 5a db	 cvtps2pd xmm3, xmm3
  0012e	f2 0f 59 dc	 mulsd	 xmm3, xmm4
  00132	f3 0f 10 65 f4	 movss	 xmm4, DWORD PTR _vCurMove$[ebp+4]
  00137	0f 5a ed	 cvtps2pd xmm5, xmm5
  0013a	66 0f 5a db	 cvtpd2ps xmm3, xmm3
  0013e	f3 0f 5a db	 cvtss2sd xmm3, xmm3
  00142	f2 0f 58 cb	 addsd	 xmm1, xmm3
  00146	66 0f 5a c9	 cvtpd2ps xmm1, xmm1
  0014a	f3 0f 11 4d f0	 movss	 DWORD PTR _vCurMove$[ebp], xmm1
  0014f	0f 57 c9	 xorps	 xmm1, xmm1
  00152	0f 5a e4	 cvtps2pd xmm4, xmm4
  00155	f2 0f 59 e5	 mulsd	 xmm4, xmm5
  00159	f3 0f 10 6d f8	 movss	 xmm5, DWORD PTR _vCurMove$[ebp+8]
  0015e	66 0f 5a d2	 cvtpd2ps xmm2, xmm2
  00162	f3 0f 11 55 dc	 movss	 DWORD PTR _vMove$[ebp+4], xmm2
  00167	66 0f 5a e4	 cvtpd2ps xmm4, xmm4
  0016b	f3 0f 5a cc	 cvtss2sd xmm1, xmm4
  0016f	f3 0f 5a d2	 cvtss2sd xmm2, xmm2
  00173	f2 0f 58 ca	 addsd	 xmm1, xmm2
  00177	66 0f 5a c9	 cvtpd2ps xmm1, xmm1
  0017b	0f 5a ed	 cvtps2pd xmm5, xmm5
  0017e	f3 0f 11 45 e0	 movss	 DWORD PTR _vMove$[ebp+8], xmm0
  00183	0f 5a f6	 cvtps2pd xmm6, xmm6
  00186	f3 0f 11 4d f4	 movss	 DWORD PTR _vCurMove$[ebp+4], xmm1

; 260  : 	D3DXVec3Normalize( &vCurMove, &vCurMove );

  0018b	8d 45 f0	 lea	 eax, DWORD PTR _vCurMove$[ebp]
  0018e	f2 0f 59 ee	 mulsd	 xmm5, xmm6
  00192	66 0f 5a ed	 cvtpd2ps xmm5, xmm5
  00196	0f 5a c0	 cvtps2pd xmm0, xmm0
  00199	0f 57 c9	 xorps	 xmm1, xmm1
  0019c	f3 0f 5a cd	 cvtss2sd xmm1, xmm5
  001a0	50		 push	 eax
  001a1	f2 0f 58 c1	 addsd	 xmm0, xmm1
  001a5	66 0f 5a c0	 cvtpd2ps xmm0, xmm0
  001a9	50		 push	 eax
  001aa	f3 0f 11 45 f8	 movss	 DWORD PTR _vCurMove$[ebp+8], xmm0
  001af	e8 00 00 00 00	 call	 _D3DXVec3Normalize@8

; 261  : 
; 262  : 
; 263  : 	vMove.y += m_fFloatingPower * fTimePerSec;

  001b4	f3 0f 10 83 44
	09 00 00	 movss	 xmm0, DWORD PTR [ebx+2372]
  001bc	f3 0f 10 55 08	 movss	 xmm2, DWORD PTR _fTimePerSec$[ebp]
  001c1	0f 5a d2	 cvtps2pd xmm2, xmm2
  001c4	0f 5a c8	 cvtps2pd xmm1, xmm0
  001c7	f2 0f 59 ca	 mulsd	 xmm1, xmm2
  001cb	f3 0f 10 55 dc	 movss	 xmm2, DWORD PTR _vMove$[ebp+4]
  001d0	0f 5a d2	 cvtps2pd xmm2, xmm2
  001d3	f2 0f 58 ca	 addsd	 xmm1, xmm2

; 264  : 	m_fFloatingPower -= fCurGravity;
; 265  : 	GetParentSceneNode()->Translate( vMove );

  001d7	8b 4b 04	 mov	 ecx, DWORD PTR [ebx+4]
  001da	66 0f 5a c9	 cvtpd2ps xmm1, xmm1
  001de	f3 0f 11 4d dc	 movss	 DWORD PTR _vMove$[ebp+4], xmm1
  001e3	f3 0f 10 4d d4	 movss	 xmm1, DWORD PTR _fCurGravity$[ebp]
  001e8	0f 5a c0	 cvtps2pd xmm0, xmm0
  001eb	0f 5a c9	 cvtps2pd xmm1, xmm1
  001ee	f2 0f 5c c1	 subsd	 xmm0, xmm1
  001f2	66 0f 5a c0	 cvtpd2ps xmm0, xmm0
  001f6	6a 01		 push	 1
  001f8	8d 55 d8	 lea	 edx, DWORD PTR _vMove$[ebp]
  001fb	f3 0f 11 83 44
	09 00 00	 movss	 DWORD PTR [ebx+2372], xmm0
  00203	8b 01		 mov	 eax, DWORD PTR [ecx]
  00205	52		 push	 edx
  00206	ff 50 3c	 call	 DWORD PTR [eax+60]

; 266  : 
; 267  : 	D3DXVECTOR3 vPos = GetPosition();

  00209	8b 03		 mov	 eax, DWORD PTR [ebx]
  0020b	8b cb		 mov	 ecx, ebx
  0020d	ff 50 70	 call	 DWORD PTR [eax+112]

; 268  : 
; 269  : 	float fMapHeight = pStage->GetMapHeight( vPos.x, vPos.z, NULL, false, vPos.y+m_pFireMesh->GetBoundBox().GetExtents(1) );

  00210	8b 8b 98 08 00
	00		 mov	 ecx, DWORD PTR [ebx+2200]
  00216	8b f0		 mov	 esi, eax
  00218	8d 7d e4	 lea	 edi, DWORD PTR _vPos$[ebp]
  0021b	a5		 movsd
  0021c	a5		 movsd
  0021d	a5		 movsd
  0021e	33 f6		 xor	 esi, esi
  00220	83 c1 14	 add	 ecx, 20			; 00000014H
  00223	8b 01		 mov	 eax, DWORD PTR [ecx]
  00225	56		 push	 esi
  00226	6a 01		 push	 1
  00228	ff 50 54	 call	 DWORD PTR [eax+84]
  0022b	8b c8		 mov	 ecx, eax
  0022d	ff 15 00 00 00
	00		 call	 DWORD PTR __imp_?GetExtents@ioAxisAlignBox@@QBEMH@Z
  00233	d8 45 e8	 fadd	 DWORD PTR _vPos$[ebp+4]
  00236	f3 0f 10 45 ec	 movss	 xmm0, DWORD PTR _vPos$[ebp+8]
  0023b	51		 push	 ecx
  0023c	d9 5d d4	 fstp	 DWORD PTR tv517[ebp]
  0023f	d9 45 d4	 fld	 DWORD PTR tv517[ebp]
  00242	d9 1c 24	 fstp	 DWORD PTR [esp]
  00245	56		 push	 esi
  00246	56		 push	 esi
  00247	51		 push	 ecx
  00248	51		 push	 ecx
  00249	8b 4d d0	 mov	 ecx, DWORD PTR _pStage$GSCopy$[ebp]
  0024c	f3 0f 11 44 24
	04		 movss	 DWORD PTR [esp+4], xmm0
  00252	f3 0f 10 45 e4	 movss	 xmm0, DWORD PTR _vPos$[ebp]
  00257	f3 0f 11 04 24	 movss	 DWORD PTR [esp], xmm0
  0025c	e8 00 00 00 00	 call	 ?GetMapHeight@ioPlayStage@@QAEMMMPBVioGameEntity@@_NM1@Z ; ioPlayStage::GetMapHeight
  00261	d9 5d d4	 fstp	 DWORD PTR _fMapHeight$[ebp]

; 270  : 	if( vPos.y < fMapHeight+m_fExtentsOffSet )

  00264	f3 0f 10 83 58
	09 00 00	 movss	 xmm0, DWORD PTR [ebx+2392]
  0026c	f3 0f 10 5d d4	 movss	 xmm3, DWORD PTR _fMapHeight$[ebp]
  00271	f3 0f 10 4d e8	 movss	 xmm1, DWORD PTR _vPos$[ebp+4]
  00276	0f 5a d0	 cvtps2pd xmm2, xmm0
  00279	0f 5a db	 cvtps2pd xmm3, xmm3
  0027c	0f 5a c9	 cvtps2pd xmm1, xmm1
  0027f	f2 0f 58 d3	 addsd	 xmm2, xmm3
  00283	66 0f 2f d1	 comisd	 xmm2, xmm1
  00287	76 2d		 jbe	 SHORT $LN2@OnMoveStat

; 271  : 	{
; 272  : 		vPos.y = fMapHeight;
; 273  : 		vPos.y += m_fExtentsOffSet;

  00289	f3 0f 10 4d d4	 movss	 xmm1, DWORD PTR _fMapHeight$[ebp]
  0028e	0f 5a c0	 cvtps2pd xmm0, xmm0
  00291	0f 5a c9	 cvtps2pd xmm1, xmm1

; 274  : 
; 275  : 		SetPosition( vPos );

  00294	8d 45 e4	 lea	 eax, DWORD PTR _vPos$[ebp]
  00297	f2 0f 58 c1	 addsd	 xmm0, xmm1
  0029b	66 0f 5a c0	 cvtpd2ps xmm0, xmm0
  0029f	50		 push	 eax
  002a0	8b cb		 mov	 ecx, ebx
  002a2	f3 0f 11 45 e8	 movss	 DWORD PTR _vPos$[ebp+4], xmm0
  002a7	e8 00 00 00 00	 call	 ?SetPosition@ioWeapon@@QAEXABUD3DXVECTOR3@@@Z ; ioWeapon::SetPosition

; 276  : 		
; 277  : 		SetGroundState( pStage );

  002ac	ff 75 d0	 push	 DWORD PTR _pStage$GSCopy$[ebp]
  002af	8b cb		 mov	 ecx, ebx
  002b1	e8 00 00 00 00	 call	 ?SetGroundState@ioLobeliaWeapon@@QAEXPAVioPlayStage@@@Z ; ioLobeliaWeapon::SetGroundState
$LN2@OnMoveStat:

; 278  : 	}
; 279  : 
; 280  : 	if( m_pFireMesh )

  002b6	39 b3 98 08 00
	00		 cmp	 DWORD PTR [ebx+2200], esi
  002bc	74 30		 je	 SHORT $LN1@OnMoveStat

; 281  : 	{
; 282  : 		m_pFireMesh->Update( fTimePerSec * FLOAT1000 );

  002be	b8 e8 03 00 00	 mov	 eax, 1000		; 000003e8H
  002c3	8b 8b 98 08 00
	00		 mov	 ecx, DWORD PTR [ebx+2200]
  002c9	83 c1 14	 add	 ecx, 20			; 00000014H
  002cc	8b 11		 mov	 edx, DWORD PTR [ecx]
  002ce	89 45 d0	 mov	 DWORD PTR tv499[ebp], eax
  002d1	db 45 d0	 fild	 DWORD PTR tv499[ebp]
  002d4	85 c0		 test	 eax, eax
  002d6	79 06		 jns	 SHORT $LN25@OnMoveStat
  002d8	d8 05 00 00 00
	00		 fadd	 DWORD PTR __real@4f800000
$LN25@OnMoveStat:
  002de	d8 4d 08	 fmul	 DWORD PTR _fTimePerSec$[ebp]
  002e1	51		 push	 ecx
  002e2	d9 5d d0	 fstp	 DWORD PTR tv496[ebp]
  002e5	d9 45 d0	 fld	 DWORD PTR tv496[ebp]
  002e8	d9 1c 24	 fstp	 DWORD PTR [esp]
  002eb	ff 52 40	 call	 DWORD PTR [edx+64]
$LN1@OnMoveStat:

; 283  : 	}
; 284  : }

  002ee	8b 4d fc	 mov	 ecx, DWORD PTR __$ArrayPad$[ebp]
  002f1	5f		 pop	 edi
  002f2	5e		 pop	 esi
  002f3	33 cd		 xor	 ecx, ebp
  002f5	5b		 pop	 ebx
  002f6	e8 00 00 00 00	 call	 @__security_check_cookie@4
  002fb	c9		 leave
  002fc	c2 08 00	 ret	 8
?OnMoveState@ioLobeliaWeapon@@IAEXMPAVioPlayStage@@@Z ENDP ; ioLobeliaWeapon::OnMoveState
_TEXT	ENDS
PUBLIC	__real@3fd3333340000000
PUBLIC	_pStage$GSCopy$
PUBLIC	_fTimePerSec$GSCopy$
PUBLIC	__$ArrayPad$
PUBLIC	?OnPingPongState@ioLobeliaWeapon@@IAEXMPAVioPlayStage@@@Z ; ioLobeliaWeapon::OnPingPongState
EXTRN	?SetOrientation@ioWeapon@@QAEXABUD3DXQUATERNION@@@Z:PROC ; ioWeapon::SetOrientation
;	COMDAT __real@3fd3333340000000
; File d:\lost saga for developer\youtube\tutorial\source\src\lsclient\stdafx.h
CONST	SEGMENT
__real@3fd3333340000000 DQ 03fd3333340000000r	; 0.3
; Function compile flags: /Ogsp
; File d:\lost saga for developer\youtube\tutorial\source\src\lsclient\iolobeliaweapon.cpp
CONST	ENDS
;	COMDAT ?OnPingPongState@ioLobeliaWeapon@@IAEXMPAVioPlayStage@@@Z
_TEXT	SEGMENT
$T534975 = -48						; size = 16
_pStage$GSCopy$ = -32					; size = 4
_fTimePerSec$GSCopy$ = -28				; size = 4
tv422 = -24						; size = 8
tv479 = -20						; size = 4
tv460 = -20						; size = 4
tv439 = -20						; size = 4
tv432 = -20						; size = 4
tv429 = -20						; size = 4
_fMapHeight$ = -20					; size = 4
_vPos$ = -16						; size = 12
__$ArrayPad$ = -4					; size = 4
_fTimePerSec$ = 8					; size = 4
_pStage$ = 12						; size = 4
?OnPingPongState@ioLobeliaWeapon@@IAEXMPAVioPlayStage@@@Z PROC ; ioLobeliaWeapon::OnPingPongState, COMDAT
; _this$ = ecx

; 287  : {

  00000	55		 push	 ebp
  00001	8b ec		 mov	 ebp, esp
  00003	83 ec 30	 sub	 esp, 48			; 00000030H
  00006	a1 00 00 00 00	 mov	 eax, DWORD PTR ___security_cookie
  0000b	33 c5		 xor	 eax, ebp
  0000d	89 45 fc	 mov	 DWORD PTR __$ArrayPad$[ebp], eax

; 303  : 	if( vPos.y < fMapHeight+m_fExtentsOffSet )

  00010	f3 0f 10 45 08	 movss	 xmm0, DWORD PTR _fTimePerSec$[ebp]
  00015	53		 push	 ebx
  00016	56		 push	 esi
  00017	57		 push	 edi
  00018	8b 7d 0c	 mov	 edi, DWORD PTR _pStage$[ebp]
  0001b	8b d9		 mov	 ebx, ecx
  0001d	83 bb 20 09 00
	00 00		 cmp	 DWORD PTR [ebx+2336], 0
  00024	f3 0f 11 45 e4	 movss	 DWORD PTR _fTimePerSec$GSCopy$[ebp], xmm0

; 320  : 	{
; 321  : 		m_pFireMesh->Update( fTimePerSec * FLOAT1000 );

  00029	89 7d e0	 mov	 DWORD PTR _pStage$GSCopy$[ebp], edi
  0002c	76 23		 jbe	 SHORT $LN21@OnPingPong

; 288  : 	if( m_dwDuration > 0 && m_dwDuration < FRAMEGETTIME() )

  0002e	ff 15 00 00 00
	00		 call	 DWORD PTR __imp_?GetSingleton@ioFrameTimer@@SAAAV1@XZ
  00034	8b c8		 mov	 ecx, eax
  00036	ff 15 00 00 00
	00		 call	 DWORD PTR __imp_?GetLoopSec@ioFrameTimer@@QBEKXZ
  0003c	39 83 20 09 00
	00		 cmp	 DWORD PTR [ebx+2336], eax
  00042	73 0d		 jae	 SHORT $LN21@OnPingPong

; 289  : 	{
; 290  : 		Explosion( pStage );

  00044	57		 push	 edi
  00045	8b cb		 mov	 ecx, ebx
  00047	e8 00 00 00 00	 call	 ?Explosion@ioLobeliaWeapon@@QAEXPAVioPlayStage@@@Z ; ioLobeliaWeapon::Explosion

; 291  : 		return;

  0004c	e9 50 02 00 00	 jmp	 $LN1@OnPingPong
$LN21@OnPingPong:

; 292  : 	}
; 293  : 	
; 294  : 	float fRotateAngle = 900.0f * fTimePerSec;
; 295  : 	GetParentSceneNode()->PitchX( fRotateAngle, ioNode::TS_LOCAL );

  00051	8b 4b 04	 mov	 ecx, DWORD PTR [ebx+4]
  00054	f3 0f 10 45 e4	 movss	 xmm0, DWORD PTR _fTimePerSec$GSCopy$[ebp]
  00059	8b 01		 mov	 eax, DWORD PTR [ecx]
  0005b	6a 00		 push	 0
  0005d	0f 5a c0	 cvtps2pd xmm0, xmm0
  00060	f2 0f 59 05 00
	00 00 00	 mulsd	 xmm0, QWORD PTR __real@408c200000000000
  00068	51		 push	 ecx
  00069	f2 0f 5a c0	 cvtsd2ss xmm0, xmm0
  0006d	f3 0f 11 04 24	 movss	 DWORD PTR [esp], xmm0
  00072	ff 50 44	 call	 DWORD PTR [eax+68]

; 296  : 
; 297  : 	D3DXVECTOR3 vPos = GetPosition();

  00075	8b 03		 mov	 eax, DWORD PTR [ebx]
  00077	8b cb		 mov	 ecx, ebx
  00079	ff 50 70	 call	 DWORD PTR [eax+112]

; 298  : 	vPos += m_vMoveDir * ( m_fMoveSpeed * fTimePerSec * 0.3f );

  0007c	f3 0f 10 83 4c
	09 00 00	 movss	 xmm0, DWORD PTR [ebx+2380]
  00084	f3 0f 10 4d e4	 movss	 xmm1, DWORD PTR _fTimePerSec$GSCopy$[ebp]
  00089	0f 5a c0	 cvtps2pd xmm0, xmm0
  0008c	0f 5a c9	 cvtps2pd xmm1, xmm1
  0008f	f2 0f 59 c1	 mulsd	 xmm0, xmm1
  00093	f2 0f 59 05 00
	00 00 00	 mulsd	 xmm0, QWORD PTR __real@3fd3333340000000
  0009b	f3 0f 10 8b c4
	08 00 00	 movss	 xmm1, DWORD PTR [ebx+2244]
  000a3	66 0f 5a c0	 cvtpd2ps xmm0, xmm0
  000a7	0f 57 d2	 xorps	 xmm2, xmm2
  000aa	f3 0f 5a d0	 cvtss2sd xmm2, xmm0
  000ae	0f 5a c9	 cvtps2pd xmm1, xmm1
  000b1	f2 0f 59 ca	 mulsd	 xmm1, xmm2
  000b5	f3 0f 10 93 c8
	08 00 00	 movss	 xmm2, DWORD PTR [ebx+2248]
  000bd	0f 5a d2	 cvtps2pd xmm2, xmm2
  000c0	8b f0		 mov	 esi, eax
  000c2	0f 57 db	 xorps	 xmm3, xmm3
  000c5	f3 0f 5a d8	 cvtss2sd xmm3, xmm0
  000c9	f2 0f 59 d3	 mulsd	 xmm2, xmm3
  000cd	f3 0f 10 9b cc
	08 00 00	 movss	 xmm3, DWORD PTR [ebx+2252]
  000d5	f3 0f 5a c0	 cvtss2sd xmm0, xmm0
  000d9	8d 7d f0	 lea	 edi, DWORD PTR _vPos$[ebp]
  000dc	a5		 movsd
  000dd	a5		 movsd

; 299  : 	vPos.y += m_fPingPongPower * fTimePerSec;
; 300  : 	m_fPingPongPower -= pStage->GetRoomGravity() * fTimePerSec;

  000de	8b 4d e0	 mov	 ecx, DWORD PTR _pStage$GSCopy$[ebp]
  000e1	66 0f 5a c9	 cvtpd2ps xmm1, xmm1
  000e5	a5		 movsd
  000e6	0f 5a db	 cvtps2pd xmm3, xmm3
  000e9	f2 0f 59 d8	 mulsd	 xmm3, xmm0
  000ed	0f 57 c0	 xorps	 xmm0, xmm0
  000f0	66 0f 5a c3	 cvtpd2ps xmm0, xmm3
  000f4	f3 0f 10 5d f0	 movss	 xmm3, DWORD PTR _vPos$[ebp]
  000f9	f3 0f 5a c9	 cvtss2sd xmm1, xmm1
  000fd	66 0f 5a d2	 cvtpd2ps xmm2, xmm2
  00101	0f 5a db	 cvtps2pd xmm3, xmm3
  00104	f2 0f 58 cb	 addsd	 xmm1, xmm3
  00108	66 0f 5a c9	 cvtpd2ps xmm1, xmm1
  0010c	f3 0f 11 4d f0	 movss	 DWORD PTR _vPos$[ebp], xmm1
  00111	0f 57 c9	 xorps	 xmm1, xmm1
  00114	f3 0f 5a ca	 cvtss2sd xmm1, xmm2
  00118	f3 0f 10 55 f4	 movss	 xmm2, DWORD PTR _vPos$[ebp+4]
  0011d	0f 5a d2	 cvtps2pd xmm2, xmm2
  00120	f2 0f 58 ca	 addsd	 xmm1, xmm2
  00124	f3 0f 10 55 f8	 movss	 xmm2, DWORD PTR _vPos$[ebp+8]
  00129	0f 5a c0	 cvtps2pd xmm0, xmm0
  0012c	0f 5a d2	 cvtps2pd xmm2, xmm2
  0012f	f2 0f 58 c2	 addsd	 xmm0, xmm2
  00133	f3 0f 10 55 e4	 movss	 xmm2, DWORD PTR _fTimePerSec$GSCopy$[ebp]
  00138	66 0f 5a c0	 cvtpd2ps xmm0, xmm0
  0013c	f3 0f 11 45 f8	 movss	 DWORD PTR _vPos$[ebp+8], xmm0
  00141	f3 0f 10 83 54
	09 00 00	 movss	 xmm0, DWORD PTR [ebx+2388]
  00149	f3 0f 11 45 ec	 movss	 DWORD PTR tv479[ebp], xmm0
  0014e	d9 45 ec	 fld	 DWORD PTR tv479[ebp]
  00151	0f 5a c0	 cvtps2pd xmm0, xmm0
  00154	66 0f 5a c9	 cvtpd2ps xmm1, xmm1
  00158	dd 5d e8	 fstp	 QWORD PTR tv422[ebp]
  0015b	0f 5a d2	 cvtps2pd xmm2, xmm2
  0015e	f2 0f 59 c2	 mulsd	 xmm0, xmm2
  00162	f3 0f 5a c9	 cvtss2sd xmm1, xmm1
  00166	f2 0f 58 c1	 addsd	 xmm0, xmm1
  0016a	66 0f 5a c0	 cvtpd2ps xmm0, xmm0
  0016e	f3 0f 11 45 f4	 movss	 DWORD PTR _vPos$[ebp+4], xmm0
  00173	e8 00 00 00 00	 call	 ?GetRoomGravity@ioPlayStage@@QAEMXZ ; ioPlayStage::GetRoomGravity
  00178	d8 4d e4	 fmul	 DWORD PTR _fTimePerSec$GSCopy$[ebp]

; 301  : 
; 302  : 	float fMapHeight = pStage->GetMapHeight( vPos.x, vPos.z, NULL, false, vPos.y+m_pFireMesh->GetBoundBox().GetExtents(1) );

  0017b	8b 8b 98 08 00
	00		 mov	 ecx, DWORD PTR [ebx+2200]
  00181	83 c1 14	 add	 ecx, 20			; 00000014H
  00184	dc 6d e8	 fsubr	 QWORD PTR tv422[ebp]
  00187	33 f6		 xor	 esi, esi
  00189	d9 9b 54 09 00
	00		 fstp	 DWORD PTR [ebx+2388]
  0018f	8b 01		 mov	 eax, DWORD PTR [ecx]
  00191	56		 push	 esi
  00192	6a 01		 push	 1
  00194	ff 50 54	 call	 DWORD PTR [eax+84]
  00197	8b c8		 mov	 ecx, eax
  00199	ff 15 00 00 00
	00		 call	 DWORD PTR __imp_?GetExtents@ioAxisAlignBox@@QBEMH@Z
  0019f	d8 45 f4	 fadd	 DWORD PTR _vPos$[ebp+4]
  001a2	f3 0f 10 45 f8	 movss	 xmm0, DWORD PTR _vPos$[ebp+8]
  001a7	51		 push	 ecx
  001a8	d9 5d ec	 fstp	 DWORD PTR tv460[ebp]
  001ab	d9 45 ec	 fld	 DWORD PTR tv460[ebp]
  001ae	d9 1c 24	 fstp	 DWORD PTR [esp]
  001b1	56		 push	 esi
  001b2	56		 push	 esi
  001b3	51		 push	 ecx
  001b4	51		 push	 ecx
  001b5	8b 4d e0	 mov	 ecx, DWORD PTR _pStage$GSCopy$[ebp]
  001b8	f3 0f 11 44 24
	04		 movss	 DWORD PTR [esp+4], xmm0
  001be	f3 0f 10 45 f0	 movss	 xmm0, DWORD PTR _vPos$[ebp]
  001c3	f3 0f 11 04 24	 movss	 DWORD PTR [esp], xmm0
  001c8	e8 00 00 00 00	 call	 ?GetMapHeight@ioPlayStage@@QAEMMMPBVioGameEntity@@_NM1@Z ; ioPlayStage::GetMapHeight
  001cd	d9 5d ec	 fstp	 DWORD PTR _fMapHeight$[ebp]

; 303  : 	if( vPos.y < fMapHeight+m_fExtentsOffSet )

  001d0	f3 0f 10 83 58
	09 00 00	 movss	 xmm0, DWORD PTR [ebx+2392]
  001d8	f3 0f 10 5d ec	 movss	 xmm3, DWORD PTR _fMapHeight$[ebp]
  001dd	f3 0f 10 4d f4	 movss	 xmm1, DWORD PTR _vPos$[ebp+4]
  001e2	0f 5a d0	 cvtps2pd xmm2, xmm0
  001e5	0f 5a db	 cvtps2pd xmm3, xmm3
  001e8	0f 5a c9	 cvtps2pd xmm1, xmm1
  001eb	f2 0f 58 d3	 addsd	 xmm2, xmm3
  001ef	66 0f 2f d1	 comisd	 xmm2, xmm1

; 307  : 
; 308  : 		SetPosition( vPos );

  001f3	8d 45 f0	 lea	 eax, DWORD PTR _vPos$[ebp]
  001f6	8b cb		 mov	 ecx, ebx
  001f8	50		 push	 eax
  001f9	76 69		 jbe	 SHORT $LN3@OnPingPong

; 304  : 	{
; 305  : 		vPos.y = fMapHeight;
; 306  : 		vPos.y += m_fExtentsOffSet;

  001fb	f3 0f 10 4d ec	 movss	 xmm1, DWORD PTR _fMapHeight$[ebp]
  00200	0f 5a c0	 cvtps2pd xmm0, xmm0
  00203	0f 5a c9	 cvtps2pd xmm1, xmm1
  00206	f2 0f 58 c1	 addsd	 xmm0, xmm1
  0020a	66 0f 5a c0	 cvtpd2ps xmm0, xmm0
  0020e	f3 0f 11 45 f4	 movss	 DWORD PTR _vPos$[ebp+4], xmm0

; 307  : 
; 308  : 		SetPosition( vPos );

  00213	e8 00 00 00 00	 call	 ?SetPosition@ioWeapon@@QAEXABUD3DXVECTOR3@@@Z ; ioWeapon::SetPosition

; 309  : 		SetOrientation( D3DXQUATERNION( 0.0f, 0.0f, 0.0f, FLOAT1 ) );

  00218	b8 01 00 00 00	 mov	 eax, 1
  0021d	0f 57 c0	 xorps	 xmm0, xmm0
  00220	89 45 ec	 mov	 DWORD PTR tv439[ebp], eax
  00223	db 45 ec	 fild	 DWORD PTR tv439[ebp]
  00226	f3 0f 11 45 d0	 movss	 DWORD PTR $T534975[ebp], xmm0
  0022b	f3 0f 11 45 d4	 movss	 DWORD PTR $T534975[ebp+4], xmm0
  00230	f3 0f 11 45 d8	 movss	 DWORD PTR $T534975[ebp+8], xmm0
  00235	85 c0		 test	 eax, eax
  00237	79 06		 jns	 SHORT $LN22@OnPingPong
  00239	d8 05 00 00 00
	00		 fadd	 DWORD PTR __real@4f800000
$LN22@OnPingPong:
  0023f	8d 45 d0	 lea	 eax, DWORD PTR $T534975[ebp]
  00242	d9 5d dc	 fstp	 DWORD PTR $T534975[ebp+12]
  00245	50		 push	 eax
  00246	8b cb		 mov	 ecx, ebx
  00248	e8 00 00 00 00	 call	 ?SetOrientation@ioWeapon@@QAEXABUD3DXQUATERNION@@@Z ; ioWeapon::SetOrientation

; 310  : 		m_fFloatingPower = 0.0f;

  0024d	0f 57 c0	 xorps	 xmm0, xmm0

; 311  : 
; 312  : 		SetGroundState( pStage );

  00250	ff 75 e0	 push	 DWORD PTR _pStage$GSCopy$[ebp]
  00253	8b cb		 mov	 ecx, ebx
  00255	f3 0f 11 83 44
	09 00 00	 movss	 DWORD PTR [ebx+2372], xmm0
  0025d	e8 00 00 00 00	 call	 ?SetGroundState@ioLobeliaWeapon@@QAEXPAVioPlayStage@@@Z ; ioLobeliaWeapon::SetGroundState

; 313  : 	}
; 314  : 	else

  00262	eb 05		 jmp	 SHORT $LN2@OnPingPong
$LN3@OnPingPong:

; 315  : 	{
; 316  : 		SetPosition( vPos );

  00264	e8 00 00 00 00	 call	 ?SetPosition@ioWeapon@@QAEXABUD3DXVECTOR3@@@Z ; ioWeapon::SetPosition
$LN2@OnPingPong:

; 317  : 	}
; 318  : 
; 319  : 	if( m_pFireMesh )

  00269	39 b3 98 08 00
	00		 cmp	 DWORD PTR [ebx+2200], esi
  0026f	74 30		 je	 SHORT $LN1@OnPingPong

; 320  : 	{
; 321  : 		m_pFireMesh->Update( fTimePerSec * FLOAT1000 );

  00271	b8 e8 03 00 00	 mov	 eax, 1000		; 000003e8H
  00276	8b 8b 98 08 00
	00		 mov	 ecx, DWORD PTR [ebx+2200]
  0027c	83 c1 14	 add	 ecx, 20			; 00000014H
  0027f	8b 11		 mov	 edx, DWORD PTR [ecx]
  00281	89 45 ec	 mov	 DWORD PTR tv432[ebp], eax
  00284	db 45 ec	 fild	 DWORD PTR tv432[ebp]
  00287	85 c0		 test	 eax, eax
  00289	79 06		 jns	 SHORT $LN23@OnPingPong
  0028b	d8 05 00 00 00
	00		 fadd	 DWORD PTR __real@4f800000
$LN23@OnPingPong:
  00291	d8 4d e4	 fmul	 DWORD PTR _fTimePerSec$GSCopy$[ebp]
  00294	51		 push	 ecx
  00295	d9 5d ec	 fstp	 DWORD PTR tv429[ebp]
  00298	d9 45 ec	 fld	 DWORD PTR tv429[ebp]
  0029b	d9 1c 24	 fstp	 DWORD PTR [esp]
  0029e	ff 52 40	 call	 DWORD PTR [edx+64]
$LN1@OnPingPong:

; 322  : 	}
; 323  : }

  002a1	8b 4d fc	 mov	 ecx, DWORD PTR __$ArrayPad$[ebp]
  002a4	5f		 pop	 edi
  002a5	5e		 pop	 esi
  002a6	33 cd		 xor	 ecx, ebp
  002a8	5b		 pop	 ebx
  002a9	e8 00 00 00 00	 call	 @__security_check_cookie@4
  002ae	c9		 leave
  002af	c2 08 00	 ret	 8
?OnPingPongState@ioLobeliaWeapon@@IAEXMPAVioPlayStage@@@Z ENDP ; ioLobeliaWeapon::OnPingPongState
_TEXT	ENDS
PUBLIC	?DestroyResource@ioLobeliaWeapon@@UAEXPAVioPlayStage@@@Z ; ioLobeliaWeapon::DestroyResource
EXTRN	__imp_?DestroyEffect@ioEffectFactory@@QAEXPAVioEffect@@@Z:PROC
; Function compile flags: /Ogsp
;	COMDAT ?DestroyResource@ioLobeliaWeapon@@UAEXPAVioPlayStage@@@Z
_TEXT	SEGMENT
_pStage$ = 8						; size = 4
?DestroyResource@ioLobeliaWeapon@@UAEXPAVioPlayStage@@@Z PROC ; ioLobeliaWeapon::DestroyResource, COMDAT
; _this$ = ecx

; 369  : {

  00000	55		 push	 ebp
  00001	8b ec		 mov	 ebp, esp
  00003	56		 push	 esi
  00004	8b f1		 mov	 esi, ecx

; 370  : 	if( m_pFireMesh )

  00006	8b 86 98 08 00
	00		 mov	 eax, DWORD PTR [esi+2200]
  0000c	57		 push	 edi
  0000d	85 c0		 test	 eax, eax
  0000f	74 16		 je	 SHORT $LN6@DestroyRes

; 371  : 	{
; 372  : 		g_EffectFactory.DestroyEffect( m_pFireMesh );

  00011	50		 push	 eax
  00012	ff 15 00 00 00
	00		 call	 DWORD PTR __imp_?GetSingleton@ioEffectFactory@@SAAAV1@XZ
  00018	8b c8		 mov	 ecx, eax
  0001a	ff 15 00 00 00
	00		 call	 DWORD PTR __imp_?DestroyEffect@ioEffectFactory@@QAEXPAVioEffect@@@Z

; 373  : 		m_pFireMesh = NULL;

  00020	83 a6 98 08 00
	00 00		 and	 DWORD PTR [esi+2200], 0
$LN6@DestroyRes:

; 374  : 	}
; 375  : 
; 376  : 	if( !IsLive() )

  00027	80 be 82 05 00
	00 00		 cmp	 BYTE PTR [esi+1410], 0
  0002e	75 4b		 jne	 SHORT $LN1@DestroyRes

; 377  : 	{
; 378  : 		if( m_EffectID != -1 )

  00030	8b 86 c0 08 00
	00		 mov	 eax, DWORD PTR [esi+2240]
  00036	83 cf ff	 or	 edi, -1
  00039	3b c7		 cmp	 eax, edi
  0003b	74 1a		 je	 SHORT $LN3@DestroyRes

; 379  : 		{
; 380  : 			ioMapEffect *pEffect = pStage->FindMapEffect( m_EffectID );

  0003d	8b 4d 08	 mov	 ecx, DWORD PTR _pStage$[ebp]
  00040	50		 push	 eax
  00041	e8 00 00 00 00	 call	 ?FindMapEffect@ioPlayStage@@QAEPAVioMapEffect@@K@Z ; ioPlayStage::FindMapEffect

; 381  : 			if( pEffect )

  00046	85 c0		 test	 eax, eax
  00048	74 0d		 je	 SHORT $LN3@DestroyRes

; 382  : 			{
; 383  : 				pEffect->EndEffectForce();

  0004a	8b c8		 mov	 ecx, eax
  0004c	e8 00 00 00 00	 call	 ?EndEffectForce@ioMapEffect@@QAEXXZ ; ioMapEffect::EndEffectForce

; 384  : 				m_EffectID = -1;

  00051	89 be c0 08 00
	00		 mov	 DWORD PTR [esi+2240], edi
$LN3@DestroyRes:

; 385  : 			}
; 386  : 		}
; 387  : 
; 388  : 		if( m_GroundID != -1 )

  00057	8b 86 bc 08 00
	00		 mov	 eax, DWORD PTR [esi+2236]
  0005d	3b c7		 cmp	 eax, edi
  0005f	74 1a		 je	 SHORT $LN1@DestroyRes

; 389  : 		{
; 390  : 			ioMapEffect *pEffect = pStage->FindMapEffect( m_GroundID );

  00061	8b 4d 08	 mov	 ecx, DWORD PTR _pStage$[ebp]
  00064	50		 push	 eax
  00065	e8 00 00 00 00	 call	 ?FindMapEffect@ioPlayStage@@QAEPAVioMapEffect@@K@Z ; ioPlayStage::FindMapEffect

; 391  : 			if( pEffect )

  0006a	85 c0		 test	 eax, eax
  0006c	74 0d		 je	 SHORT $LN1@DestroyRes

; 392  : 			{
; 393  : 				pEffect->EndEffectForce();

  0006e	8b c8		 mov	 ecx, eax
  00070	e8 00 00 00 00	 call	 ?EndEffectForce@ioMapEffect@@QAEXXZ ; ioMapEffect::EndEffectForce

; 394  : 				m_GroundID = -1;

  00075	89 be bc 08 00
	00		 mov	 DWORD PTR [esi+2236], edi
$LN1@DestroyRes:
  0007b	5f		 pop	 edi
  0007c	5e		 pop	 esi

; 395  : 			}
; 396  : 		}
; 397  : 	}
; 398  : }

  0007d	5d		 pop	 ebp
  0007e	c2 04 00	 ret	 4
?DestroyResource@ioLobeliaWeapon@@UAEXPAVioPlayStage@@@Z ENDP ; ioLobeliaWeapon::DestroyResource
_TEXT	ENDS
PUBLIC	?UpdateWorldAttackBox@ioLobeliaWeapon@@MAEXM_N@Z ; ioLobeliaWeapon::UpdateWorldAttackBox
EXTRN	__imp_?SetNull@ioOrientBox@@QAEXXZ:PROC
EXTRN	__imp_?Transform@ioOrientBox@@QAEXABUD3DXVECTOR3@@0ABUD3DXQUATERNION@@@Z:PROC
EXTRN	__imp_?UNIT_ALL@ioMath@@2UD3DXVECTOR3@@A:BYTE
EXTRN	__imp_?IsNull@ioOrientBox@@QBE_NXZ:PROC
; Function compile flags: /Ogsp
;	COMDAT ?UpdateWorldAttackBox@ioLobeliaWeapon@@MAEXM_N@Z
_TEXT	SEGMENT
tv360 = -8						; size = 4
tv366 = -4						; size = 4
tv335 = -4						; size = 4
_fTimePerSec$ = 8					; size = 4
tv352 = 12						; size = 4
_fMapCollisionRate$ = 12				; size = 4
_bSetNull$ = 12						; size = 1
?UpdateWorldAttackBox@ioLobeliaWeapon@@MAEXM_N@Z PROC	; ioLobeliaWeapon::UpdateWorldAttackBox, COMDAT
; _this$ = ecx

; 421  : {

  00000	55		 push	 ebp
  00001	8b ec		 mov	 ebp, esp
  00003	51		 push	 ecx
  00004	51		 push	 ecx
  00005	53		 push	 ebx
  00006	8b d9		 mov	 ebx, ecx

; 422  : 	if( !IsLive() || bSetNull )

  00008	80 bb 82 05 00
	00 00		 cmp	 BYTE PTR [ebx+1410], 0
  0000f	56		 push	 esi
  00010	57		 push	 edi
  00011	0f 84 04 01 00
	00		 je	 $LN2@UpdateWorl
  00017	80 7d 0c 00	 cmp	 BYTE PTR _bSetNull$[ebp], 0
  0001b	0f 85 fa 00 00
	00		 jne	 $LN2@UpdateWorl

; 426  : 		return;
; 427  : 	}
; 428  : 
; 429  : 	m_WorldAttackBox = GetLocalAttackBox();

  00021	8b 03		 mov	 eax, DWORD PTR [ebx]
  00023	ff 90 00 01 00
	00		 call	 DWORD PTR [eax+256]
  00029	6a 11		 push	 17			; 00000011H
  0002b	59		 pop	 ecx
  0002c	8b f0		 mov	 esi, eax
  0002e	8d bb e8 04 00
	00		 lea	 edi, DWORD PTR [ebx+1256]
  00034	f3 a5		 rep movsd

; 430  : 	m_WorldAttackBoxForMap = m_WorldAttackBox;

  00036	6a 11		 push	 17			; 00000011H
  00038	8b f0		 mov	 esi, eax

; 431  : 
; 432  : 	float fMapCollisionRate = GetAttribute()->m_fMapCollisionBoxRate;

  0003a	8b 03		 mov	 eax, DWORD PTR [ebx]
  0003c	59		 pop	 ecx
  0003d	8d bb 2c 05 00
	00		 lea	 edi, DWORD PTR [ebx+1324]
  00043	f3 a5		 rep movsd
  00045	8b cb		 mov	 ecx, ebx
  00047	ff 90 3c 01 00
	00		 call	 DWORD PTR [eax+316]

; 433  : 	m_WorldAttackBoxForMap.SetExtents( 0, m_WorldAttackBox.GetExtents(0)*fMapCollisionRate );

  0004d	6a 00		 push	 0
  0004f	d9 80 a8 01 00
	00		 fld	 DWORD PTR [eax+424]
  00055	8d 8b e8 04 00
	00		 lea	 ecx, DWORD PTR [ebx+1256]
  0005b	d9 5d 0c	 fstp	 DWORD PTR _fMapCollisionRate$[ebp]
  0005e	ff 15 00 00 00
	00		 call	 DWORD PTR __imp_?GetExtents@ioOrientBox@@QBEMH@Z
  00064	d8 4d 0c	 fmul	 DWORD PTR _fMapCollisionRate$[ebp]
  00067	8b 35 00 00 00
	00		 mov	 esi, DWORD PTR __imp_?SetExtents@ioOrientBox@@QAEXHM@Z
  0006d	51		 push	 ecx
  0006e	8d 8b 2c 05 00
	00		 lea	 ecx, DWORD PTR [ebx+1324]
  00074	d9 5d fc	 fstp	 DWORD PTR tv366[ebp]
  00077	d9 45 fc	 fld	 DWORD PTR tv366[ebp]
  0007a	89 4d fc	 mov	 DWORD PTR tv335[ebp], ecx
  0007d	d9 1c 24	 fstp	 DWORD PTR [esp]
  00080	6a 00		 push	 0
  00082	ff d6		 call	 esi

; 434  : 	m_WorldAttackBoxForMap.SetExtents( 1, m_WorldAttackBox.GetExtents(1)*fMapCollisionRate );

  00084	6a 01		 push	 1
  00086	8d 8b e8 04 00
	00		 lea	 ecx, DWORD PTR [ebx+1256]
  0008c	ff 15 00 00 00
	00		 call	 DWORD PTR __imp_?GetExtents@ioOrientBox@@QBEMH@Z
  00092	d8 4d 0c	 fmul	 DWORD PTR _fMapCollisionRate$[ebp]
  00095	51		 push	 ecx
  00096	8b 4d fc	 mov	 ecx, DWORD PTR tv335[ebp]
  00099	d9 5d f8	 fstp	 DWORD PTR tv360[ebp]
  0009c	d9 45 f8	 fld	 DWORD PTR tv360[ebp]
  0009f	d9 1c 24	 fstp	 DWORD PTR [esp]
  000a2	6a 01		 push	 1
  000a4	ff d6		 call	 esi

; 435  : 	m_WorldAttackBoxForMap.SetExtents( 2, m_WorldAttackBox.GetExtents(2)*fMapCollisionRate );

  000a6	6a 02		 push	 2
  000a8	8d 8b e8 04 00
	00		 lea	 ecx, DWORD PTR [ebx+1256]
  000ae	ff 15 00 00 00
	00		 call	 DWORD PTR __imp_?GetExtents@ioOrientBox@@QBEMH@Z
  000b4	d8 4d 0c	 fmul	 DWORD PTR _fMapCollisionRate$[ebp]
  000b7	51		 push	 ecx
  000b8	8b 4d fc	 mov	 ecx, DWORD PTR tv335[ebp]
  000bb	d9 5d 0c	 fstp	 DWORD PTR tv352[ebp]
  000be	d9 45 0c	 fld	 DWORD PTR tv352[ebp]
  000c1	d9 1c 24	 fstp	 DWORD PTR [esp]
  000c4	6a 02		 push	 2
  000c6	ff d6		 call	 esi

; 436  : 
; 437  : 	if( !m_WorldAttackBox.IsNull() )

  000c8	8d 8b e8 04 00
	00		 lea	 ecx, DWORD PTR [ebx+1256]
  000ce	ff 15 00 00 00
	00		 call	 DWORD PTR __imp_?IsNull@ioOrientBox@@QBE_NXZ
  000d4	84 c0		 test	 al, al
  000d6	75 59		 jne	 SHORT $LN1@UpdateWorl

; 438  : 	{
; 439  : 		m_WorldAttackBox.Transform( GetPosition(),
; 440  : 									ioMath::UNIT_ALL,
; 441  : 									GetParentSceneNode()->GetDerivedOrientation() );

  000d8	8b 4b 04	 mov	 ecx, DWORD PTR [ebx+4]
  000db	8b 01		 mov	 eax, DWORD PTR [ecx]
  000dd	ff 50 78	 call	 DWORD PTR [eax+120]
  000e0	50		 push	 eax
  000e1	ff 35 00 00 00
	00		 push	 DWORD PTR __imp_?UNIT_ALL@ioMath@@2UD3DXVECTOR3@@A
  000e7	8b 03		 mov	 eax, DWORD PTR [ebx]
  000e9	8b cb		 mov	 ecx, ebx
  000eb	ff 50 70	 call	 DWORD PTR [eax+112]
  000ee	8b 35 00 00 00
	00		 mov	 esi, DWORD PTR __imp_?Transform@ioOrientBox@@QAEXABUD3DXVECTOR3@@0ABUD3DXQUATERNION@@@Z
  000f4	50		 push	 eax
  000f5	8d 8b e8 04 00
	00		 lea	 ecx, DWORD PTR [ebx+1256]
  000fb	ff d6		 call	 esi

; 442  : 
; 443  : 		m_WorldAttackBoxForMap.Transform( GetPosition(),
; 444  : 										  ioMath::UNIT_ALL,
; 445  : 										  GetParentSceneNode()->GetDerivedOrientation() );

  000fd	8b 4b 04	 mov	 ecx, DWORD PTR [ebx+4]
  00100	8b 01		 mov	 eax, DWORD PTR [ecx]
  00102	ff 50 78	 call	 DWORD PTR [eax+120]
  00105	50		 push	 eax
  00106	ff 35 00 00 00
	00		 push	 DWORD PTR __imp_?UNIT_ALL@ioMath@@2UD3DXVECTOR3@@A
  0010c	8b 03		 mov	 eax, DWORD PTR [ebx]
  0010e	8b cb		 mov	 ecx, ebx
  00110	ff 50 70	 call	 DWORD PTR [eax+112]
  00113	8b 4d fc	 mov	 ecx, DWORD PTR tv335[ebp]
  00116	50		 push	 eax
  00117	ff d6		 call	 esi
  00119	eb 16		 jmp	 SHORT $LN1@UpdateWorl
$LN2@UpdateWorl:

; 423  : 	{
; 424  : 		m_WorldAttackBox.SetNull();

  0011b	8b 35 00 00 00
	00		 mov	 esi, DWORD PTR __imp_?SetNull@ioOrientBox@@QAEXXZ
  00121	8d 8b e8 04 00
	00		 lea	 ecx, DWORD PTR [ebx+1256]
  00127	ff d6		 call	 esi

; 425  : 		m_WorldAttackBoxForMap.SetNull();

  00129	8d 8b 2c 05 00
	00		 lea	 ecx, DWORD PTR [ebx+1324]
  0012f	ff d6		 call	 esi
$LN1@UpdateWorl:
  00131	5f		 pop	 edi
  00132	5e		 pop	 esi
  00133	5b		 pop	 ebx

; 446  : 	}
; 447  : }

  00134	c9		 leave
  00135	c2 08 00	 ret	 8
?UpdateWorldAttackBox@ioLobeliaWeapon@@MAEXM_N@Z ENDP	; ioLobeliaWeapon::UpdateWorldAttackBox
_TEXT	ENDS
PUBLIC	__$ArrayPad$
PUBLIC	?SetJumpThrow@ioLobeliaWeapon@@QAEXXZ		; ioLobeliaWeapon::SetJumpThrow
EXTRN	_D3DXQuaternionRotationAxis@12:PROC
; Function compile flags: /Ogsp
;	COMDAT ?SetJumpThrow@ioLobeliaWeapon@@QAEXXZ
_TEXT	SEGMENT
_qtRot$ = -60						; size = 16
tv340 = -44						; size = 4
_v$535058 = -40						; size = 12
$T531116 = -28						; size = 12
$T531110 = -28						; size = 12
_vAxis$ = -16						; size = 12
__$ArrayPad$ = -4					; size = 4
?SetJumpThrow@ioLobeliaWeapon@@QAEXXZ PROC		; ioLobeliaWeapon::SetJumpThrow, COMDAT
; _this$ = ecx

; 579  : {

  00000	55		 push	 ebp
  00001	8b ec		 mov	 ebp, esp
  00003	83 ec 3c	 sub	 esp, 60			; 0000003cH
  00006	a1 00 00 00 00	 mov	 eax, DWORD PTR ___security_cookie
  0000b	33 c5		 xor	 eax, ebp
  0000d	89 45 fc	 mov	 DWORD PTR __$ArrayPad$[ebp], eax
  00010	53		 push	 ebx
  00011	56		 push	 esi
  00012	57		 push	 edi

; 580  : 	D3DXVECTOR3 vAxis;
; 581  : 	D3DXVec3Cross( &vAxis, &m_vMoveDir, &D3DXVECTOR3( 0.0f, -FLOAT1, 0.0f ) );

  00013	b8 01 00 00 00	 mov	 eax, 1
  00018	89 45 d4	 mov	 DWORD PTR tv340[ebp], eax
  0001b	db 45 d4	 fild	 DWORD PTR tv340[ebp]
  0001e	85 c0		 test	 eax, eax
  00020	79 06		 jns	 SHORT $LN17@SetJumpThr
  00022	d8 05 00 00 00
	00		 fadd	 DWORD PTR __real@4f800000
$LN17@SetJumpThr:
  00028	8d 99 c4 08 00
	00		 lea	 ebx, DWORD PTR [ecx+2244]
  0002e	d9 e0		 fchs
  00030	f3 0f 10 43 04	 movss	 xmm0, DWORD PTR [ebx+4]
  00035	d9 5d e8	 fstp	 DWORD PTR $T531110[ebp+4]
  00038	f3 0f 10 53 08	 movss	 xmm2, DWORD PTR [ebx+8]
  0003d	f3 0f 10 65 e8	 movss	 xmm4, DWORD PTR $T531110[ebp+4]
  00042	0f 5a c8	 cvtps2pd xmm1, xmm0
  00045	0f 57 c0	 xorps	 xmm0, xmm0
  00048	f2 0f 59 c8	 mulsd	 xmm1, xmm0
  0004c	0f 5a da	 cvtps2pd xmm3, xmm2
  0004f	0f 5a e4	 cvtps2pd xmm4, xmm4
  00052	f2 0f 59 dc	 mulsd	 xmm3, xmm4
  00056	66 0f 28 e1	 movapd	 xmm4, xmm1
  0005a	f2 0f 5c e3	 subsd	 xmm4, xmm3
  0005e	0f 57 db	 xorps	 xmm3, xmm3
  00061	f2 0f 5a dc	 cvtsd2ss xmm3, xmm4
  00065	f3 0f 11 5d d8	 movss	 DWORD PTR _v$535058[ebp], xmm3
  0006a	f3 0f 10 1b	 movss	 xmm3, DWORD PTR [ebx]
  0006e	0f 5a d2	 cvtps2pd xmm2, xmm2
  00071	f2 0f 59 d0	 mulsd	 xmm2, xmm0
  00075	0f 5a e3	 cvtps2pd xmm4, xmm3
  00078	f2 0f 59 e0	 mulsd	 xmm4, xmm0
  0007c	f2 0f 5c d4	 subsd	 xmm2, xmm4
  00080	66 0f 5a c2	 cvtpd2ps xmm0, xmm2
  00084	f3 0f 10 55 e8	 movss	 xmm2, DWORD PTR $T531110[ebp+4]
  00089	f3 0f 11 45 dc	 movss	 DWORD PTR _v$535058[ebp+4], xmm0
  0008e	0f 5a d2	 cvtps2pd xmm2, xmm2
  00091	8d 75 d8	 lea	 esi, DWORD PTR _v$535058[ebp]
  00094	8d 7d f0	 lea	 edi, DWORD PTR _vAxis$[ebp]
  00097	0f 5a c3	 cvtps2pd xmm0, xmm3
  0009a	f2 0f 59 c2	 mulsd	 xmm0, xmm2
  0009e	f2 0f 5c c1	 subsd	 xmm0, xmm1
  000a2	66 0f 5a c0	 cvtpd2ps xmm0, xmm0
  000a6	f3 0f 11 45 e0	 movss	 DWORD PTR _v$535058[ebp+8], xmm0

; 582  : 
; 583  : 	D3DXQUATERNION qtRot;
; 584  : 	D3DXQuaternionRotationAxis( &qtRot, &vAxis, DEGtoRAD(m_fJumpFloatingAngle) );

  000ab	f3 0f 10 81 40
	09 00 00	 movss	 xmm0, DWORD PTR [ecx+2368]
  000b3	a5		 movsd
  000b4	0f 5a c0	 cvtps2pd xmm0, xmm0
  000b7	f2 0f 59 05 00
	00 00 00	 mulsd	 xmm0, QWORD PTR __real@3f91df46a2526c7a
  000bf	51		 push	 ecx
  000c0	66 0f 5a c0	 cvtpd2ps xmm0, xmm0
  000c4	f3 0f 11 04 24	 movss	 DWORD PTR [esp], xmm0
  000c9	8d 45 f0	 lea	 eax, DWORD PTR _vAxis$[ebp]
  000cc	a5		 movsd
  000cd	50		 push	 eax
  000ce	8d 45 c4	 lea	 eax, DWORD PTR _qtRot$[ebp]
  000d1	50		 push	 eax
  000d2	a5		 movsd
  000d3	e8 00 00 00 00	 call	 _D3DXQuaternionRotationAxis@12

; 585  : 	m_vMoveDir = qtRot * m_vMoveDir;

  000d8	53		 push	 ebx
  000d9	8d 45 c4	 lea	 eax, DWORD PTR _qtRot$[ebp]
  000dc	50		 push	 eax
  000dd	8d 45 e4	 lea	 eax, DWORD PTR $T531116[ebp]
  000e0	50		 push	 eax
  000e1	ff 15 00 00 00
	00		 call	 DWORD PTR __imp_??D@YA?AUD3DXVECTOR3@@ABUD3DXQUATERNION@@ABU0@@Z

; 586  : }

  000e7	8b 4d fc	 mov	 ecx, DWORD PTR __$ArrayPad$[ebp]
  000ea	8b fb		 mov	 edi, ebx
  000ec	8b f0		 mov	 esi, eax
  000ee	a5		 movsd
  000ef	a5		 movsd
  000f0	83 c4 0c	 add	 esp, 12			; 0000000cH
  000f3	a5		 movsd
  000f4	5f		 pop	 edi
  000f5	5e		 pop	 esi
  000f6	33 cd		 xor	 ecx, ebp
  000f8	5b		 pop	 ebx
  000f9	e8 00 00 00 00	 call	 @__security_check_cookie@4
  000fe	c9		 leave
  000ff	c3		 ret	 0
?SetJumpThrow@ioLobeliaWeapon@@QAEXXZ ENDP		; ioLobeliaWeapon::SetJumpThrow
_TEXT	ENDS
PUBLIC	__$ArrayPad$
PUBLIC	?RotateMoveDir@ioLobeliaWeapon@@QAEXM@Z		; ioLobeliaWeapon::RotateMoveDir
; Function compile flags: /Ogsp
;	COMDAT ?RotateMoveDir@ioLobeliaWeapon@@QAEXM@Z
_TEXT	SEGMENT
_qtRot$ = -60						; size = 16
tv337 = -44						; size = 4
_v$535091 = -40						; size = 12
$T531125 = -28						; size = 12
$T531123 = -28						; size = 12
_vAxis$ = -16						; size = 12
__$ArrayPad$ = -4					; size = 4
_fAngle$ = 8						; size = 4
?RotateMoveDir@ioLobeliaWeapon@@QAEXM@Z PROC		; ioLobeliaWeapon::RotateMoveDir, COMDAT
; _this$ = ecx

; 589  : {

  00000	55		 push	 ebp
  00001	8b ec		 mov	 ebp, esp
  00003	83 ec 3c	 sub	 esp, 60			; 0000003cH
  00006	a1 00 00 00 00	 mov	 eax, DWORD PTR ___security_cookie
  0000b	33 c5		 xor	 eax, ebp
  0000d	89 45 fc	 mov	 DWORD PTR __$ArrayPad$[ebp], eax
  00010	53		 push	 ebx
  00011	56		 push	 esi
  00012	57		 push	 edi

; 590  : 	D3DXVECTOR3 vAxis;
; 591  : 	D3DXVec3Cross( &vAxis, &m_vMoveDir, &D3DXVECTOR3( 0.0f, -FLOAT1, 0.0f ) );

  00013	b8 01 00 00 00	 mov	 eax, 1
  00018	89 45 d4	 mov	 DWORD PTR tv337[ebp], eax
  0001b	db 45 d4	 fild	 DWORD PTR tv337[ebp]
  0001e	85 c0		 test	 eax, eax
  00020	79 06		 jns	 SHORT $LN17@RotateMove
  00022	d8 05 00 00 00
	00		 fadd	 DWORD PTR __real@4f800000
$LN17@RotateMove:
  00028	8d 99 c4 08 00
	00		 lea	 ebx, DWORD PTR [ecx+2244]
  0002e	d9 e0		 fchs
  00030	f3 0f 10 43 04	 movss	 xmm0, DWORD PTR [ebx+4]
  00035	d9 5d e8	 fstp	 DWORD PTR $T531123[ebp+4]
  00038	f3 0f 10 53 08	 movss	 xmm2, DWORD PTR [ebx+8]
  0003d	f3 0f 10 65 e8	 movss	 xmm4, DWORD PTR $T531123[ebp+4]
  00042	0f 5a c8	 cvtps2pd xmm1, xmm0
  00045	0f 57 c0	 xorps	 xmm0, xmm0
  00048	f2 0f 59 c8	 mulsd	 xmm1, xmm0
  0004c	0f 5a da	 cvtps2pd xmm3, xmm2
  0004f	0f 5a e4	 cvtps2pd xmm4, xmm4
  00052	f2 0f 59 dc	 mulsd	 xmm3, xmm4
  00056	66 0f 28 e1	 movapd	 xmm4, xmm1
  0005a	f2 0f 5c e3	 subsd	 xmm4, xmm3
  0005e	0f 57 db	 xorps	 xmm3, xmm3
  00061	f2 0f 5a dc	 cvtsd2ss xmm3, xmm4
  00065	f3 0f 11 5d d8	 movss	 DWORD PTR _v$535091[ebp], xmm3
  0006a	f3 0f 10 1b	 movss	 xmm3, DWORD PTR [ebx]
  0006e	0f 5a d2	 cvtps2pd xmm2, xmm2
  00071	f2 0f 59 d0	 mulsd	 xmm2, xmm0
  00075	0f 5a e3	 cvtps2pd xmm4, xmm3
  00078	f2 0f 59 e0	 mulsd	 xmm4, xmm0
  0007c	f2 0f 5c d4	 subsd	 xmm2, xmm4
  00080	66 0f 5a c2	 cvtpd2ps xmm0, xmm2
  00084	f3 0f 10 55 e8	 movss	 xmm2, DWORD PTR $T531123[ebp+4]
  00089	f3 0f 11 45 dc	 movss	 DWORD PTR _v$535091[ebp+4], xmm0
  0008e	0f 5a d2	 cvtps2pd xmm2, xmm2
  00091	8d 75 d8	 lea	 esi, DWORD PTR _v$535091[ebp]
  00094	8d 7d f0	 lea	 edi, DWORD PTR _vAxis$[ebp]
  00097	0f 5a c3	 cvtps2pd xmm0, xmm3
  0009a	f2 0f 59 c2	 mulsd	 xmm0, xmm2
  0009e	f2 0f 5c c1	 subsd	 xmm0, xmm1
  000a2	66 0f 5a c0	 cvtpd2ps xmm0, xmm0
  000a6	f3 0f 11 45 e0	 movss	 DWORD PTR _v$535091[ebp+8], xmm0

; 592  : 
; 593  : 	D3DXQUATERNION qtRot;
; 594  : 	D3DXQuaternionRotationAxis( &qtRot, &vAxis, DEGtoRAD(fAngle) );

  000ab	f3 0f 10 45 08	 movss	 xmm0, DWORD PTR _fAngle$[ebp]
  000b0	a5		 movsd
  000b1	0f 5a c0	 cvtps2pd xmm0, xmm0
  000b4	f2 0f 59 05 00
	00 00 00	 mulsd	 xmm0, QWORD PTR __real@3f91df46a2526c7a
  000bc	51		 push	 ecx
  000bd	66 0f 5a c0	 cvtpd2ps xmm0, xmm0
  000c1	f3 0f 11 04 24	 movss	 DWORD PTR [esp], xmm0
  000c6	8d 45 f0	 lea	 eax, DWORD PTR _vAxis$[ebp]
  000c9	a5		 movsd
  000ca	50		 push	 eax
  000cb	8d 45 c4	 lea	 eax, DWORD PTR _qtRot$[ebp]
  000ce	50		 push	 eax
  000cf	a5		 movsd
  000d0	e8 00 00 00 00	 call	 _D3DXQuaternionRotationAxis@12

; 595  : 	m_vMoveDir = qtRot * m_vMoveDir;

  000d5	53		 push	 ebx
  000d6	8d 45 c4	 lea	 eax, DWORD PTR _qtRot$[ebp]
  000d9	50		 push	 eax
  000da	8d 45 e4	 lea	 eax, DWORD PTR $T531125[ebp]
  000dd	50		 push	 eax
  000de	ff 15 00 00 00
	00		 call	 DWORD PTR __imp_??D@YA?AUD3DXVECTOR3@@ABUD3DXQUATERNION@@ABU0@@Z

; 596  : }

  000e4	8b 4d fc	 mov	 ecx, DWORD PTR __$ArrayPad$[ebp]
  000e7	8b fb		 mov	 edi, ebx
  000e9	8b f0		 mov	 esi, eax
  000eb	a5		 movsd
  000ec	a5		 movsd
  000ed	83 c4 0c	 add	 esp, 12			; 0000000cH
  000f0	a5		 movsd
  000f1	5f		 pop	 edi
  000f2	5e		 pop	 esi
  000f3	33 cd		 xor	 ecx, ebp
  000f5	5b		 pop	 ebx
  000f6	e8 00 00 00 00	 call	 @__security_check_cookie@4
  000fb	c9		 leave
  000fc	c2 04 00	 ret	 4
?RotateMoveDir@ioLobeliaWeapon@@QAEXM@Z ENDP		; ioLobeliaWeapon::RotateMoveDir
_TEXT	ENDS
PUBLIC	__$ArrayPad$
PUBLIC	?TranslateByConveyer@ioLobeliaWeapon@@QAEXABUD3DXVECTOR3@@@Z ; ioLobeliaWeapon::TranslateByConveyer
; Function compile flags: /Ogsp
;	COMDAT ?TranslateByConveyer@ioLobeliaWeapon@@QAEXABUD3DXVECTOR3@@@Z
_TEXT	SEGMENT
$T531171 = -16						; size = 12
__$ArrayPad$ = -4					; size = 4
_vMoveAmt$ = 8						; size = 4
?TranslateByConveyer@ioLobeliaWeapon@@QAEXABUD3DXVECTOR3@@@Z PROC ; ioLobeliaWeapon::TranslateByConveyer, COMDAT
; _this$ = ecx

; 682  : {

  00000	55		 push	 ebp
  00001	8b ec		 mov	 ebp, esp
  00003	83 ec 10	 sub	 esp, 16			; 00000010H
  00006	a1 00 00 00 00	 mov	 eax, DWORD PTR ___security_cookie
  0000b	33 c5		 xor	 eax, ebp
  0000d	89 45 fc	 mov	 DWORD PTR __$ArrayPad$[ebp], eax
  00010	56		 push	 esi
  00011	8b 75 08	 mov	 esi, DWORD PTR _vMoveAmt$[ebp]
  00014	57		 push	 edi
  00015	8b f9		 mov	 edi, ecx

; 683  : 	if( m_State == TS_EXPLOSION )

  00017	83 bf 94 08 00
	00 04		 cmp	 DWORD PTR [edi+2196], 4
  0001e	75 65		 jne	 SHORT $LN1@TranslateB

; 684  : 	{
; 685  : 		SetPosition( GetPosition() + vMoveAmt );

  00020	8b 07		 mov	 eax, DWORD PTR [edi]
  00022	ff 50 70	 call	 DWORD PTR [eax+112]
  00025	f3 0f 10 48 04	 movss	 xmm1, DWORD PTR [eax+4]
  0002a	f3 0f 10 50 08	 movss	 xmm2, DWORD PTR [eax+8]
  0002f	f3 0f 10 46 04	 movss	 xmm0, DWORD PTR [esi+4]
  00034	f3 0f 10 18	 movss	 xmm3, DWORD PTR [eax]
  00038	0f 5a c9	 cvtps2pd xmm1, xmm1
  0003b	0f 5a c0	 cvtps2pd xmm0, xmm0
  0003e	f2 0f 58 c1	 addsd	 xmm0, xmm1
  00042	f3 0f 10 4e 08	 movss	 xmm1, DWORD PTR [esi+8]
  00047	0f 5a d2	 cvtps2pd xmm2, xmm2
  0004a	0f 5a c9	 cvtps2pd xmm1, xmm1
  0004d	f2 0f 58 ca	 addsd	 xmm1, xmm2
  00051	f3 0f 10 16	 movss	 xmm2, DWORD PTR [esi]
  00055	0f 5a d2	 cvtps2pd xmm2, xmm2
  00058	0f 5a db	 cvtps2pd xmm3, xmm3
  0005b	8d 45 f0	 lea	 eax, DWORD PTR $T531171[ebp]
  0005e	f2 0f 58 d3	 addsd	 xmm2, xmm3
  00062	66 0f 5a c0	 cvtpd2ps xmm0, xmm0
  00066	66 0f 5a c9	 cvtpd2ps xmm1, xmm1
  0006a	66 0f 5a d2	 cvtpd2ps xmm2, xmm2
  0006e	50		 push	 eax
  0006f	8b cf		 mov	 ecx, edi
  00071	f3 0f 11 55 f0	 movss	 DWORD PTR $T531171[ebp], xmm2
  00076	f3 0f 11 45 f4	 movss	 DWORD PTR $T531171[ebp+4], xmm0
  0007b	f3 0f 11 4d f8	 movss	 DWORD PTR $T531171[ebp+8], xmm1
  00080	e8 00 00 00 00	 call	 ?SetPosition@ioWeapon@@QAEXABUD3DXVECTOR3@@@Z ; ioWeapon::SetPosition
$LN1@TranslateB:

; 686  : 	}
; 687  : }

  00085	8b 4d fc	 mov	 ecx, DWORD PTR __$ArrayPad$[ebp]
  00088	5f		 pop	 edi
  00089	33 cd		 xor	 ecx, ebp
  0008b	5e		 pop	 esi
  0008c	e8 00 00 00 00	 call	 @__security_check_cookie@4
  00091	c9		 leave
  00092	c2 04 00	 ret	 4
?TranslateByConveyer@ioLobeliaWeapon@@QAEXABUD3DXVECTOR3@@@Z ENDP ; ioLobeliaWeapon::TranslateByConveyer
_TEXT	ENDS
PUBLIC	??G?$CEncrypt@M@@QAEMABM@Z			; CEncrypt<float>::operator-
; Function compile flags: /Ogsp
; File d:\lost saga for developer\youtube\tutorial\source\src\lsclient\encryptvalue.h
;	COMDAT ??G?$CEncrypt@M@@QAEMABM@Z
_TEXT	SEGMENT
_value$ = -4						; size = 4
tv130 = 8						; size = 4
_inValue$ = 8						; size = 4
??G?$CEncrypt@M@@QAEMABM@Z PROC				; CEncrypt<float>::operator-, COMDAT
; _this$ = ecx

; 1665 : 	{	

  00000	55		 push	 ebp
  00001	8b ec		 mov	 ebp, esp
  00003	51		 push	 ecx

; 1666 : 		type value;
; 1667 : 		DecryptValueToPool(&value);

  00004	8d 45 fc	 lea	 eax, DWORD PTR _value$[ebp]
  00007	50		 push	 eax
  00008	e8 00 00 00 00	 call	 ?DecryptValueToPool@?$CEncrypt@M@@QAEXPAM@Z ; CEncrypt<float>::DecryptValueToPool

; 1668 : #ifdef _NOTUSE
; 1669 : 		Debug();
; 1670 : #endif
; 1671 : 		return value - inValue;

  0000d	d9 45 fc	 fld	 DWORD PTR _value$[ebp]
  00010	8b 45 08	 mov	 eax, DWORD PTR _inValue$[ebp]
  00013	d8 20		 fsub	 DWORD PTR [eax]
  00015	d9 5d 08	 fstp	 DWORD PTR tv130[ebp]
  00018	d9 45 08	 fld	 DWORD PTR tv130[ebp]

; 1672 : 	}

  0001b	c9		 leave
  0001c	c2 04 00	 ret	 4
??G?$CEncrypt@M@@QAEMABM@Z ENDP				; CEncrypt<float>::operator-
_TEXT	ENDS
PUBLIC	??H?$CEncrypt@M@@QAEMABM@Z			; CEncrypt<float>::operator+
; Function compile flags: /Ogsp
;	COMDAT ??H?$CEncrypt@M@@QAEMABM@Z
_TEXT	SEGMENT
_value$ = -4						; size = 4
tv130 = 8						; size = 4
_inValue$ = 8						; size = 4
??H?$CEncrypt@M@@QAEMABM@Z PROC				; CEncrypt<float>::operator+, COMDAT
; _this$ = ecx

; 1675 : 	{	

  00000	55		 push	 ebp
  00001	8b ec		 mov	 ebp, esp
  00003	51		 push	 ecx

; 1676 : 		type value;
; 1677 : 		DecryptValueToPool(&value);

  00004	8d 45 fc	 lea	 eax, DWORD PTR _value$[ebp]
  00007	50		 push	 eax
  00008	e8 00 00 00 00	 call	 ?DecryptValueToPool@?$CEncrypt@M@@QAEXPAM@Z ; CEncrypt<float>::DecryptValueToPool

; 1678 : #ifdef _NOTUSE
; 1679 : 		Debug();
; 1680 : #endif
; 1681 : 		return value + inValue;

  0000d	8b 45 08	 mov	 eax, DWORD PTR _inValue$[ebp]
  00010	d9 00		 fld	 DWORD PTR [eax]
  00012	d8 45 fc	 fadd	 DWORD PTR _value$[ebp]
  00015	d9 5d 08	 fstp	 DWORD PTR tv130[ebp]
  00018	d9 45 08	 fld	 DWORD PTR tv130[ebp]

; 1682 : 	}

  0001b	c9		 leave
  0001c	c2 04 00	 ret	 4
??H?$CEncrypt@M@@QAEMABM@Z ENDP				; CEncrypt<float>::operator+
_TEXT	ENDS
PUBLIC	??D?$CEncrypt@M@@QAEMABM@Z			; CEncrypt<float>::operator*
; Function compile flags: /Ogsp
;	COMDAT ??D?$CEncrypt@M@@QAEMABM@Z
_TEXT	SEGMENT
_value$ = -4						; size = 4
tv130 = 8						; size = 4
_inValue$ = 8						; size = 4
??D?$CEncrypt@M@@QAEMABM@Z PROC				; CEncrypt<float>::operator*, COMDAT
; _this$ = ecx

; 1685 : 	{	

  00000	55		 push	 ebp
  00001	8b ec		 mov	 ebp, esp
  00003	51		 push	 ecx

; 1686 : 		type value;
; 1687 : 		DecryptValueToPool(&value);

  00004	8d 45 fc	 lea	 eax, DWORD PTR _value$[ebp]
  00007	50		 push	 eax
  00008	e8 00 00 00 00	 call	 ?DecryptValueToPool@?$CEncrypt@M@@QAEXPAM@Z ; CEncrypt<float>::DecryptValueToPool

; 1688 : #ifdef _NOTUSE
; 1689 : 		Debug();
; 1690 : #endif
; 1691 : 		return value * inValue;

  0000d	8b 45 08	 mov	 eax, DWORD PTR _inValue$[ebp]
  00010	d9 00		 fld	 DWORD PTR [eax]
  00012	d8 4d fc	 fmul	 DWORD PTR _value$[ebp]
  00015	d9 5d 08	 fstp	 DWORD PTR tv130[ebp]
  00018	d9 45 08	 fld	 DWORD PTR tv130[ebp]

; 1692 : 	}

  0001b	c9		 leave
  0001c	c2 04 00	 ret	 4
??D?$CEncrypt@M@@QAEMABM@Z ENDP				; CEncrypt<float>::operator*
_TEXT	ENDS
PUBLIC	??8?$CEncrypt@M@@QAE_NABM@Z			; CEncrypt<float>::operator==
; Function compile flags: /Ogsp
;	COMDAT ??8?$CEncrypt@M@@QAE_NABM@Z
_TEXT	SEGMENT
_value$ = -4						; size = 4
_inValue$ = 8						; size = 4
??8?$CEncrypt@M@@QAE_NABM@Z PROC			; CEncrypt<float>::operator==, COMDAT
; _this$ = ecx

; 1781 : 	{

  00000	55		 push	 ebp
  00001	8b ec		 mov	 ebp, esp
  00003	51		 push	 ecx

; 1782 : 		type value;
; 1783 : 		DecryptValueToPool(&value);

  00004	8d 45 fc	 lea	 eax, DWORD PTR _value$[ebp]
  00007	50		 push	 eax
  00008	e8 00 00 00 00	 call	 ?DecryptValueToPool@?$CEncrypt@M@@QAEXPAM@Z ; CEncrypt<float>::DecryptValueToPool

; 1784 : #ifdef _NOTUSE
; 1785 : 		Debug();
; 1786 : #endif
; 1787 : 		return (value == inValue);

  0000d	8b 45 08	 mov	 eax, DWORD PTR _inValue$[ebp]
  00010	f3 0f 10 08	 movss	 xmm1, DWORD PTR [eax]
  00014	f3 0f 10 45 fc	 movss	 xmm0, DWORD PTR _value$[ebp]
  00019	0f 5a c0	 cvtps2pd xmm0, xmm0
  0001c	0f 5a c9	 cvtps2pd xmm1, xmm1
  0001f	66 0f 2e c1	 ucomisd xmm0, xmm1
  00023	9f		 lahf
  00024	f6 c4 44	 test	 ah, 68			; 00000044H
  00027	7a 05		 jp	 SHORT $LN3@operator
  00029	33 c0		 xor	 eax, eax
  0002b	40		 inc	 eax
  0002c	eb 02		 jmp	 SHORT $LN4@operator
$LN3@operator:
  0002e	33 c0		 xor	 eax, eax
$LN4@operator:

; 1788 : 	} 

  00030	c9		 leave
  00031	c2 04 00	 ret	 4
??8?$CEncrypt@M@@QAE_NABM@Z ENDP			; CEncrypt<float>::operator==
_TEXT	ENDS
PUBLIC	_this$GSCopy$
PUBLIC	__$ArrayPad$
PUBLIC	??$LoadString_e@$0M@@ioINILoader@@QAEXAAY0M@$$CBDAAY00$$CBDPADH@Z ; ioINILoader::LoadString_e<12>
EXTRN	__imp_?LoadStringA@ioINILoader@@QAEXPBD0PADH@Z:PROC
; Function compile flags: /Ogsp
; File d:\lost saga for developer\youtube\tutorial\source\src\io3dengine\ioiniloader.h
;	COMDAT ??$LoadString_e@$0M@@ioINILoader@@QAEXAAY0M@$$CBDAAY00$$CBDPADH@Z
_TEXT	SEGMENT
_this$GSCopy$ = -24					; size = 4
__k$ = -20						; size = 12
__$ArrayPad$ = -4					; size = 4
_k$ = 8							; size = 4
_d$ = 12						; size = 4
_b$ = 16						; size = 4
_i$ = 20						; size = 4
??$LoadString_e@$0M@@ioINILoader@@QAEXAAY0M@$$CBDAAY00$$CBDPADH@Z PROC ; ioINILoader::LoadString_e<12>, COMDAT
; _this$ = ecx

; 161  : 	{

  00000	55		 push	 ebp
  00001	8b ec		 mov	 ebp, esp
  00003	83 ec 18	 sub	 esp, 24			; 00000018H
  00006	a1 00 00 00 00	 mov	 eax, DWORD PTR ___security_cookie
  0000b	33 c5		 xor	 eax, ebp
  0000d	89 45 fc	 mov	 DWORD PTR __$ArrayPad$[ebp], eax
  00010	8b 45 08	 mov	 eax, DWORD PTR _k$[ebp]

; 162  : 		_ENCSTR(k, _k);

  00013	8a 10		 mov	 dl, BYTE PTR [eax]
  00015	56		 push	 esi
  00016	8b 75 0c	 mov	 esi, DWORD PTR _d$[ebp]
  00019	57		 push	 edi
  0001a	8b 7d 10	 mov	 edi, DWORD PTR _b$[ebp]
  0001d	89 4d e8	 mov	 DWORD PTR _this$GSCopy$[ebp], ecx
  00020	84 d2		 test	 dl, dl
  00022	0f 84 32 01 00
	00		 je	 $LN96@LoadString
  00028	80 f2 ed	 xor	 dl, -19			; ffffffedH
  0002b	88 55 ec	 mov	 BYTE PTR __k$[ebp], dl
  0002e	8a 50 01	 mov	 dl, BYTE PTR [eax+1]
  00031	84 d2		 test	 dl, dl
  00033	0f 84 1b 01 00
	00		 je	 $LN95@LoadString
  00039	80 f2 ec	 xor	 dl, -20			; ffffffecH
  0003c	88 55 ed	 mov	 BYTE PTR __k$[ebp+1], dl
  0003f	8a 50 02	 mov	 dl, BYTE PTR [eax+2]
  00042	84 d2		 test	 dl, dl
  00044	0f 84 04 01 00
	00		 je	 $LN94@LoadString
  0004a	b1 eb		 mov	 cl, -21			; ffffffebH
  0004c	32 d1		 xor	 dl, cl
  0004e	88 55 ee	 mov	 BYTE PTR __k$[ebp+2], dl
  00051	8a 50 03	 mov	 dl, BYTE PTR [eax+3]
  00054	84 d2		 test	 dl, dl
  00056	0f 84 ec 00 00
	00		 je	 $LN93@LoadString
  0005c	80 f2 ea	 xor	 dl, -22			; ffffffeaH
  0005f	88 55 ef	 mov	 BYTE PTR __k$[ebp+3], dl
  00062	8a 50 04	 mov	 dl, BYTE PTR [eax+4]
  00065	84 d2		 test	 dl, dl
  00067	0f 84 d5 00 00
	00		 je	 $LN92@LoadString
  0006d	80 f2 ed	 xor	 dl, -19			; ffffffedH
  00070	88 55 f0	 mov	 BYTE PTR __k$[ebp+4], dl
  00073	8a 50 05	 mov	 dl, BYTE PTR [eax+5]
  00076	84 d2		 test	 dl, dl
  00078	0f 84 be 00 00
	00		 je	 $LN91@LoadString
  0007e	80 f2 ec	 xor	 dl, -20			; ffffffecH
  00081	88 55 f1	 mov	 BYTE PTR __k$[ebp+5], dl
  00084	8a 50 06	 mov	 dl, BYTE PTR [eax+6]
  00087	84 d2		 test	 dl, dl
  00089	0f 84 a8 00 00
	00		 je	 $LN90@LoadString
  0008f	32 d1		 xor	 dl, cl
  00091	88 55 f2	 mov	 BYTE PTR __k$[ebp+6], dl
  00094	8a 50 07	 mov	 dl, BYTE PTR [eax+7]
  00097	84 d2		 test	 dl, dl
  00099	0f 84 92 00 00
	00		 je	 $LN89@LoadString
  0009f	80 f2 ea	 xor	 dl, -22			; ffffffeaH
  000a2	88 55 f3	 mov	 BYTE PTR __k$[ebp+7], dl
  000a5	8a 50 08	 mov	 dl, BYTE PTR [eax+8]
  000a8	84 d2		 test	 dl, dl
  000aa	74 7f		 je	 SHORT $LN88@LoadString
  000ac	80 f2 ed	 xor	 dl, -19			; ffffffedH
  000af	88 55 f4	 mov	 BYTE PTR __k$[ebp+8], dl
  000b2	8a 50 09	 mov	 dl, BYTE PTR [eax+9]
  000b5	84 d2		 test	 dl, dl
  000b7	74 6c		 je	 SHORT $LN87@LoadString
  000b9	80 f2 ec	 xor	 dl, -20			; ffffffecH
  000bc	88 55 f5	 mov	 BYTE PTR __k$[ebp+9], dl
  000bf	8a 50 0a	 mov	 dl, BYTE PTR [eax+10]
  000c2	84 d2		 test	 dl, dl
  000c4	74 5a		 je	 SHORT $LN86@LoadString
  000c6	32 d1		 xor	 dl, cl
  000c8	80 78 0b 00	 cmp	 BYTE PTR [eax+11], 0
  000cc	88 55 f6	 mov	 BYTE PTR __k$[ebp+10], dl
  000cf	0f 84 89 00 00
	00		 je	 $LN111@LoadString
  000d5	8a 50 0c	 mov	 dl, BYTE PTR [eax+12]
  000d8	84 d2		 test	 dl, dl
  000da	74 3e		 je	 SHORT $LN84@LoadString
  000dc	80 f2 ed	 xor	 dl, -19			; ffffffedH
  000df	88 55 f8	 mov	 BYTE PTR __k$[ebp+12], dl
  000e2	8a 50 0d	 mov	 dl, BYTE PTR [eax+13]
  000e5	84 d2		 test	 dl, dl
  000e7	74 2b		 je	 SHORT $LN83@LoadString
  000e9	80 f2 ec	 xor	 dl, -20			; ffffffecH
  000ec	88 55 f9	 mov	 BYTE PTR __k$[ebp+13], dl
  000ef	8a 50 0e	 mov	 dl, BYTE PTR [eax+14]
  000f2	84 d2		 test	 dl, dl
  000f4	74 19		 je	 SHORT $LN82@LoadString
  000f6	8a 40 0f	 mov	 al, BYTE PTR [eax+15]
  000f9	32 d1		 xor	 dl, cl
  000fb	88 55 fa	 mov	 BYTE PTR __k$[ebp+14], dl
  000fe	84 c0		 test	 al, al
  00100	74 07		 je	 SHORT $LN81@LoadString
  00102	34 ea		 xor	 al, -22			; ffffffeaH
  00104	88 45 fb	 mov	 BYTE PTR __k$[ebp+15], al
  00107	eb 55		 jmp	 SHORT $LN111@LoadString
$LN81@LoadString:
  00109	c6 45 fb ea	 mov	 BYTE PTR __k$[ebp+15], -22 ; ffffffeaH
  0010d	eb 4f		 jmp	 SHORT $LN111@LoadString
$LN82@LoadString:
  0010f	88 4d fa	 mov	 BYTE PTR __k$[ebp+14], cl
  00112	eb 4a		 jmp	 SHORT $LN111@LoadString
$LN83@LoadString:
  00114	c6 45 f9 ec	 mov	 BYTE PTR __k$[ebp+13], -20 ; ffffffecH
  00118	eb 44		 jmp	 SHORT $LN111@LoadString
$LN84@LoadString:
  0011a	c6 45 f8 ed	 mov	 BYTE PTR __k$[ebp+12], -19 ; ffffffedH
  0011e	eb 3e		 jmp	 SHORT $LN111@LoadString
$LN86@LoadString:
  00120	88 4d f6	 mov	 BYTE PTR __k$[ebp+10], cl
  00123	eb 39		 jmp	 SHORT $LN111@LoadString
$LN87@LoadString:
  00125	c6 45 f5 ec	 mov	 BYTE PTR __k$[ebp+9], -20 ; ffffffecH
  00129	eb 33		 jmp	 SHORT $LN111@LoadString
$LN88@LoadString:
  0012b	c6 45 f4 ed	 mov	 BYTE PTR __k$[ebp+8], -19 ; ffffffedH
  0012f	eb 2d		 jmp	 SHORT $LN111@LoadString
$LN89@LoadString:
  00131	c6 45 f3 ea	 mov	 BYTE PTR __k$[ebp+7], -22 ; ffffffeaH
  00135	eb 27		 jmp	 SHORT $LN111@LoadString
$LN90@LoadString:
  00137	88 4d f2	 mov	 BYTE PTR __k$[ebp+6], cl
  0013a	eb 22		 jmp	 SHORT $LN111@LoadString
$LN91@LoadString:
  0013c	c6 45 f1 ec	 mov	 BYTE PTR __k$[ebp+5], -20 ; ffffffecH
  00140	eb 1c		 jmp	 SHORT $LN111@LoadString
$LN92@LoadString:
  00142	c6 45 f0 ed	 mov	 BYTE PTR __k$[ebp+4], -19 ; ffffffedH
  00146	eb 16		 jmp	 SHORT $LN111@LoadString
$LN93@LoadString:
  00148	c6 45 ef ea	 mov	 BYTE PTR __k$[ebp+3], -22 ; ffffffeaH
  0014c	eb 10		 jmp	 SHORT $LN111@LoadString
$LN94@LoadString:
  0014e	c6 45 ee eb	 mov	 BYTE PTR __k$[ebp+2], -21 ; ffffffebH
  00152	eb 0a		 jmp	 SHORT $LN111@LoadString
$LN95@LoadString:
  00154	c6 45 ed ec	 mov	 BYTE PTR __k$[ebp+1], -20 ; ffffffecH
  00158	eb 04		 jmp	 SHORT $LN111@LoadString
$LN96@LoadString:
  0015a	c6 45 ec ed	 mov	 BYTE PTR __k$[ebp], -19	; ffffffedH
$LN111@LoadString:
  0015e	6a 02		 push	 2
  00160	8d 45 ec	 lea	 eax, DWORD PTR __k$[ebp]
  00163	c6 45 f7 00	 mov	 BYTE PTR __k$[ebp+11], 0
  00167	5a		 pop	 edx
$LL104@LoadString:
  00168	81 30 ed ec eb
	ea		 xor	 DWORD PTR [eax], -353637139 ; eaebecedH
  0016e	83 c0 04	 add	 eax, 4
  00171	4a		 dec	 edx
  00172	75 f4		 jne	 SHORT $LL104@LoadString
  00174	6a 08		 push	 8
  00176	58		 pop	 eax
$LL101@LoadString:
  00177	8b c8		 mov	 ecx, eax
  00179	81 e1 03 00 00
	80		 and	 ecx, -2147483645	; 80000003H
  0017f	79 05		 jns	 SHORT $LN112@LoadString
  00181	49		 dec	 ecx
  00182	83 c9 fc	 or	 ecx, -4			; fffffffcH
  00185	41		 inc	 ecx
$LN112@LoadString:
  00186	b2 ed		 mov	 dl, -19			; ffffffedH
  00188	2a d1		 sub	 dl, cl
  0018a	30 54 05 ec	 xor	 BYTE PTR __k$[ebp+eax], dl
  0018e	40		 inc	 eax
  0018f	83 f8 0b	 cmp	 eax, 11			; 0000000bH
  00192	7c e3		 jl	 SHORT $LL101@LoadString

; 163  : 		LoadString(_k, d, b, i);

  00194	ff 75 14	 push	 DWORD PTR _i$[ebp]
  00197	8b 4d e8	 mov	 ecx, DWORD PTR _this$GSCopy$[ebp]
  0019a	57		 push	 edi
  0019b	56		 push	 esi
  0019c	8d 45 ec	 lea	 eax, DWORD PTR __k$[ebp]
  0019f	50		 push	 eax
  001a0	ff 15 00 00 00
	00		 call	 DWORD PTR __imp_?LoadStringA@ioINILoader@@QAEXPBD0PADH@Z

; 164  : 	}

  001a6	8b 4d fc	 mov	 ecx, DWORD PTR __$ArrayPad$[ebp]
  001a9	5f		 pop	 edi
  001aa	33 cd		 xor	 ecx, ebp
  001ac	5e		 pop	 esi
  001ad	e8 00 00 00 00	 call	 @__security_check_cookie@4
  001b2	c9		 leave
  001b3	c2 10 00	 ret	 16			; 00000010H
??$LoadString_e@$0M@@ioINILoader@@QAEXAAY0M@$$CBDAAY00$$CBDPADH@Z ENDP ; ioINILoader::LoadString_e<12>
_TEXT	ENDS
PUBLIC	_this$GSCopy$
PUBLIC	__$ArrayPad$
PUBLIC	??$LoadString_e@$0O@@ioINILoader@@QAEXAAY0O@$$CBDAAY00$$CBDPADH@Z ; ioINILoader::LoadString_e<14>
; Function compile flags: /Ogsp
;	COMDAT ??$LoadString_e@$0O@@ioINILoader@@QAEXAAY0O@$$CBDAAY00$$CBDPADH@Z
_TEXT	SEGMENT
_this$GSCopy$ = -28					; size = 4
__k$ = -24						; size = 14
__$ArrayPad$ = -4					; size = 4
_k$ = 8							; size = 4
_d$ = 12						; size = 4
_b$ = 16						; size = 4
_i$ = 20						; size = 4
??$LoadString_e@$0O@@ioINILoader@@QAEXAAY0O@$$CBDAAY00$$CBDPADH@Z PROC ; ioINILoader::LoadString_e<14>, COMDAT
; _this$ = ecx

; 161  : 	{

  00000	55		 push	 ebp
  00001	8b ec		 mov	 ebp, esp
  00003	83 ec 1c	 sub	 esp, 28			; 0000001cH
  00006	a1 00 00 00 00	 mov	 eax, DWORD PTR ___security_cookie
  0000b	33 c5		 xor	 eax, ebp
  0000d	89 45 fc	 mov	 DWORD PTR __$ArrayPad$[ebp], eax
  00010	8b 45 08	 mov	 eax, DWORD PTR _k$[ebp]

; 162  : 		_ENCSTR(k, _k);

  00013	8a 10		 mov	 dl, BYTE PTR [eax]
  00015	56		 push	 esi
  00016	8b 75 0c	 mov	 esi, DWORD PTR _d$[ebp]
  00019	57		 push	 edi
  0001a	8b 7d 10	 mov	 edi, DWORD PTR _b$[ebp]
  0001d	89 4d e4	 mov	 DWORD PTR _this$GSCopy$[ebp], ecx
  00020	84 d2		 test	 dl, dl
  00022	0f 84 64 01 00
	00		 je	 $LN96@LoadString@2
  00028	80 f2 ed	 xor	 dl, -19			; ffffffedH
  0002b	88 55 e8	 mov	 BYTE PTR __k$[ebp], dl
  0002e	8a 50 01	 mov	 dl, BYTE PTR [eax+1]
  00031	84 d2		 test	 dl, dl
  00033	0f 84 4d 01 00
	00		 je	 $LN95@LoadString@2
  00039	80 f2 ec	 xor	 dl, -20			; ffffffecH
  0003c	88 55 e9	 mov	 BYTE PTR __k$[ebp+1], dl
  0003f	8a 50 02	 mov	 dl, BYTE PTR [eax+2]
  00042	84 d2		 test	 dl, dl
  00044	0f 84 36 01 00
	00		 je	 $LN94@LoadString@2
  0004a	b1 eb		 mov	 cl, -21			; ffffffebH
  0004c	32 d1		 xor	 dl, cl
  0004e	88 55 ea	 mov	 BYTE PTR __k$[ebp+2], dl
  00051	8a 50 03	 mov	 dl, BYTE PTR [eax+3]
  00054	84 d2		 test	 dl, dl
  00056	0f 84 1e 01 00
	00		 je	 $LN93@LoadString@2
  0005c	80 f2 ea	 xor	 dl, -22			; ffffffeaH
  0005f	88 55 eb	 mov	 BYTE PTR __k$[ebp+3], dl
  00062	8a 50 04	 mov	 dl, BYTE PTR [eax+4]
  00065	84 d2		 test	 dl, dl
  00067	0f 84 07 01 00
	00		 je	 $LN92@LoadString@2
  0006d	80 f2 ed	 xor	 dl, -19			; ffffffedH
  00070	88 55 ec	 mov	 BYTE PTR __k$[ebp+4], dl
  00073	8a 50 05	 mov	 dl, BYTE PTR [eax+5]
  00076	84 d2		 test	 dl, dl
  00078	0f 84 f0 00 00
	00		 je	 $LN91@LoadString@2
  0007e	80 f2 ec	 xor	 dl, -20			; ffffffecH
  00081	88 55 ed	 mov	 BYTE PTR __k$[ebp+5], dl
  00084	8a 50 06	 mov	 dl, BYTE PTR [eax+6]
  00087	84 d2		 test	 dl, dl
  00089	0f 84 da 00 00
	00		 je	 $LN90@LoadString@2
  0008f	32 d1		 xor	 dl, cl
  00091	88 55 ee	 mov	 BYTE PTR __k$[ebp+6], dl
  00094	8a 50 07	 mov	 dl, BYTE PTR [eax+7]
  00097	84 d2		 test	 dl, dl
  00099	0f 84 c4 00 00
	00		 je	 $LN89@LoadString@2
  0009f	80 f2 ea	 xor	 dl, -22			; ffffffeaH
  000a2	88 55 ef	 mov	 BYTE PTR __k$[ebp+7], dl
  000a5	8a 50 08	 mov	 dl, BYTE PTR [eax+8]
  000a8	84 d2		 test	 dl, dl
  000aa	0f 84 ad 00 00
	00		 je	 $LN88@LoadString@2
  000b0	80 f2 ed	 xor	 dl, -19			; ffffffedH
  000b3	88 55 f0	 mov	 BYTE PTR __k$[ebp+8], dl
  000b6	8a 50 09	 mov	 dl, BYTE PTR [eax+9]
  000b9	84 d2		 test	 dl, dl
  000bb	0f 84 96 00 00
	00		 je	 $LN87@LoadString@2
  000c1	80 f2 ec	 xor	 dl, -20			; ffffffecH
  000c4	88 55 f1	 mov	 BYTE PTR __k$[ebp+9], dl
  000c7	8a 50 0a	 mov	 dl, BYTE PTR [eax+10]
  000ca	84 d2		 test	 dl, dl
  000cc	0f 84 80 00 00
	00		 je	 $LN86@LoadString@2
  000d2	32 d1		 xor	 dl, cl
  000d4	88 55 f2	 mov	 BYTE PTR __k$[ebp+10], dl
  000d7	8a 50 0b	 mov	 dl, BYTE PTR [eax+11]
  000da	84 d2		 test	 dl, dl
  000dc	74 6e		 je	 SHORT $LN85@LoadString@2
  000de	80 f2 ea	 xor	 dl, -22			; ffffffeaH
  000e1	88 55 f3	 mov	 BYTE PTR __k$[ebp+11], dl
  000e4	8a 50 0c	 mov	 dl, BYTE PTR [eax+12]
  000e7	84 d2		 test	 dl, dl
  000e9	74 5b		 je	 SHORT $LN84@LoadString@2
  000eb	80 f2 ed	 xor	 dl, -19			; ffffffedH
  000ee	80 78 0d 00	 cmp	 BYTE PTR [eax+13], 0
  000f2	88 55 f4	 mov	 BYTE PTR __k$[ebp+12], dl
  000f5	0f 84 95 00 00
	00		 je	 $LN111@LoadString@2
  000fb	8a 50 0e	 mov	 dl, BYTE PTR [eax+14]
  000fe	84 d2		 test	 dl, dl
  00100	74 3f		 je	 SHORT $LN82@LoadString@2
  00102	32 d1		 xor	 dl, cl
  00104	88 55 f6	 mov	 BYTE PTR __k$[ebp+14], dl
  00107	8a 50 0f	 mov	 dl, BYTE PTR [eax+15]
  0010a	84 d2		 test	 dl, dl
  0010c	74 2d		 je	 SHORT $LN81@LoadString@2
  0010e	80 f2 ea	 xor	 dl, -22			; ffffffeaH
  00111	88 55 f7	 mov	 BYTE PTR __k$[ebp+15], dl
  00114	8a 50 10	 mov	 dl, BYTE PTR [eax+16]
  00117	84 d2		 test	 dl, dl
  00119	74 1a		 je	 SHORT $LN80@LoadString@2
  0011b	8a 40 11	 mov	 al, BYTE PTR [eax+17]
  0011e	80 f2 ed	 xor	 dl, -19			; ffffffedH
  00121	88 55 f8	 mov	 BYTE PTR __k$[ebp+16], dl
  00124	84 c0		 test	 al, al
  00126	74 07		 je	 SHORT $LN79@LoadString@2
  00128	34 ec		 xor	 al, -20			; ffffffecH
  0012a	88 45 f9	 mov	 BYTE PTR __k$[ebp+17], al
  0012d	eb 61		 jmp	 SHORT $LN111@LoadString@2
$LN79@LoadString@2:
  0012f	c6 45 f9 ec	 mov	 BYTE PTR __k$[ebp+17], -20 ; ffffffecH
  00133	eb 5b		 jmp	 SHORT $LN111@LoadString@2
$LN80@LoadString@2:
  00135	c6 45 f8 ed	 mov	 BYTE PTR __k$[ebp+16], -19 ; ffffffedH
  00139	eb 55		 jmp	 SHORT $LN111@LoadString@2
$LN81@LoadString@2:
  0013b	c6 45 f7 ea	 mov	 BYTE PTR __k$[ebp+15], -22 ; ffffffeaH
  0013f	eb 4f		 jmp	 SHORT $LN111@LoadString@2
$LN82@LoadString@2:
  00141	88 4d f6	 mov	 BYTE PTR __k$[ebp+14], cl
  00144	eb 4a		 jmp	 SHORT $LN111@LoadString@2
$LN84@LoadString@2:
  00146	c6 45 f4 ed	 mov	 BYTE PTR __k$[ebp+12], -19 ; ffffffedH
  0014a	eb 44		 jmp	 SHORT $LN111@LoadString@2
$LN85@LoadString@2:
  0014c	c6 45 f3 ea	 mov	 BYTE PTR __k$[ebp+11], -22 ; ffffffeaH
  00150	eb 3e		 jmp	 SHORT $LN111@LoadString@2
$LN86@LoadString@2:
  00152	88 4d f2	 mov	 BYTE PTR __k$[ebp+10], cl
  00155	eb 39		 jmp	 SHORT $LN111@LoadString@2
$LN87@LoadString@2:
  00157	c6 45 f1 ec	 mov	 BYTE PTR __k$[ebp+9], -20 ; ffffffecH
  0015b	eb 33		 jmp	 SHORT $LN111@LoadString@2
$LN88@LoadString@2:
  0015d	c6 45 f0 ed	 mov	 BYTE PTR __k$[ebp+8], -19 ; ffffffedH
  00161	eb 2d		 jmp	 SHORT $LN111@LoadString@2
$LN89@LoadString@2:
  00163	c6 45 ef ea	 mov	 BYTE PTR __k$[ebp+7], -22 ; ffffffeaH
  00167	eb 27		 jmp	 SHORT $LN111@LoadString@2
$LN90@LoadString@2:
  00169	88 4d ee	 mov	 BYTE PTR __k$[ebp+6], cl
  0016c	eb 22		 jmp	 SHORT $LN111@LoadString@2
$LN91@LoadString@2:
  0016e	c6 45 ed ec	 mov	 BYTE PTR __k$[ebp+5], -20 ; ffffffecH
  00172	eb 1c		 jmp	 SHORT $LN111@LoadString@2
$LN92@LoadString@2:
  00174	c6 45 ec ed	 mov	 BYTE PTR __k$[ebp+4], -19 ; ffffffedH
  00178	eb 16		 jmp	 SHORT $LN111@LoadString@2
$LN93@LoadString@2:
  0017a	c6 45 eb ea	 mov	 BYTE PTR __k$[ebp+3], -22 ; ffffffeaH
  0017e	eb 10		 jmp	 SHORT $LN111@LoadString@2
$LN94@LoadString@2:
  00180	c6 45 ea eb	 mov	 BYTE PTR __k$[ebp+2], -21 ; ffffffebH
  00184	eb 0a		 jmp	 SHORT $LN111@LoadString@2
$LN95@LoadString@2:
  00186	c6 45 e9 ec	 mov	 BYTE PTR __k$[ebp+1], -20 ; ffffffecH
  0018a	eb 04		 jmp	 SHORT $LN111@LoadString@2
$LN96@LoadString@2:
  0018c	c6 45 e8 ed	 mov	 BYTE PTR __k$[ebp], -19	; ffffffedH
$LN111@LoadString@2:
  00190	6a 03		 push	 3
  00192	8d 45 e8	 lea	 eax, DWORD PTR __k$[ebp]
  00195	c6 45 f5 00	 mov	 BYTE PTR __k$[ebp+13], 0
  00199	5a		 pop	 edx
$LL104@LoadString@2:
  0019a	81 30 ed ec eb
	ea		 xor	 DWORD PTR [eax], -353637139 ; eaebecedH
  001a0	83 c0 04	 add	 eax, 4
  001a3	4a		 dec	 edx
  001a4	75 f4		 jne	 SHORT $LL104@LoadString@2

; 163  : 		LoadString(_k, d, b, i);

  001a6	ff 75 14	 push	 DWORD PTR _i$[ebp]
  001a9	8b 4d e4	 mov	 ecx, DWORD PTR _this$GSCopy$[ebp]
  001ac	80 75 f4 ed	 xor	 BYTE PTR __k$[ebp+12], -19 ; ffffffedH
  001b0	57		 push	 edi
  001b1	56		 push	 esi
  001b2	8d 45 e8	 lea	 eax, DWORD PTR __k$[ebp]
  001b5	50		 push	 eax
  001b6	ff 15 00 00 00
	00		 call	 DWORD PTR __imp_?LoadStringA@ioINILoader@@QAEXPBD0PADH@Z

; 164  : 	}

  001bc	8b 4d fc	 mov	 ecx, DWORD PTR __$ArrayPad$[ebp]
  001bf	5f		 pop	 edi
  001c0	33 cd		 xor	 ecx, ebp
  001c2	5e		 pop	 esi
  001c3	e8 00 00 00 00	 call	 @__security_check_cookie@4
  001c8	c9		 leave
  001c9	c2 10 00	 ret	 16			; 00000010H
??$LoadString_e@$0O@@ioINILoader@@QAEXAAY0O@$$CBDAAY00$$CBDPADH@Z ENDP ; ioINILoader::LoadString_e<14>
_TEXT	ENDS
PUBLIC	__$ArrayPad$
PUBLIC	??$LoadBool_e@$0O@@ioINILoader@@QAE_NAAY0O@$$CBD_N@Z ; ioINILoader::LoadBool_e<14>
EXTRN	__imp_?LoadBool@ioINILoader@@QAE_NPBD_N@Z:PROC
; Function compile flags: /Ogsp
;	COMDAT ??$LoadBool_e@$0O@@ioINILoader@@QAE_NAAY0O@$$CBD_N@Z
_TEXT	SEGMENT
__k$ = -24						; size = 14
__$ArrayPad$ = -4					; size = 4
_k$ = 8							; size = 4
_b$ = 12						; size = 1
??$LoadBool_e@$0O@@ioINILoader@@QAE_NAAY0O@$$CBD_N@Z PROC ; ioINILoader::LoadBool_e<14>, COMDAT
; _this$ = ecx

; 101  : 	{

  00000	55		 push	 ebp
  00001	8b ec		 mov	 ebp, esp
  00003	83 ec 18	 sub	 esp, 24			; 00000018H
  00006	a1 00 00 00 00	 mov	 eax, DWORD PTR ___security_cookie
  0000b	33 c5		 xor	 eax, ebp
  0000d	89 45 fc	 mov	 DWORD PTR __$ArrayPad$[ebp], eax
  00010	8b 45 08	 mov	 eax, DWORD PTR _k$[ebp]

; 102  : 		_ENCSTR(k, _k);

  00013	8a 10		 mov	 dl, BYTE PTR [eax]
  00015	56		 push	 esi
  00016	8b f1		 mov	 esi, ecx
  00018	84 d2		 test	 dl, dl
  0001a	0f 84 64 01 00
	00		 je	 $LN96@LoadBool_e
  00020	80 f2 ed	 xor	 dl, -19			; ffffffedH
  00023	88 55 e8	 mov	 BYTE PTR __k$[ebp], dl
  00026	8a 50 01	 mov	 dl, BYTE PTR [eax+1]
  00029	84 d2		 test	 dl, dl
  0002b	0f 84 4d 01 00
	00		 je	 $LN95@LoadBool_e
  00031	80 f2 ec	 xor	 dl, -20			; ffffffecH
  00034	88 55 e9	 mov	 BYTE PTR __k$[ebp+1], dl
  00037	8a 50 02	 mov	 dl, BYTE PTR [eax+2]
  0003a	84 d2		 test	 dl, dl
  0003c	0f 84 36 01 00
	00		 je	 $LN94@LoadBool_e
  00042	b1 eb		 mov	 cl, -21			; ffffffebH
  00044	32 d1		 xor	 dl, cl
  00046	88 55 ea	 mov	 BYTE PTR __k$[ebp+2], dl
  00049	8a 50 03	 mov	 dl, BYTE PTR [eax+3]
  0004c	84 d2		 test	 dl, dl
  0004e	0f 84 1e 01 00
	00		 je	 $LN93@LoadBool_e
  00054	80 f2 ea	 xor	 dl, -22			; ffffffeaH
  00057	88 55 eb	 mov	 BYTE PTR __k$[ebp+3], dl
  0005a	8a 50 04	 mov	 dl, BYTE PTR [eax+4]
  0005d	84 d2		 test	 dl, dl
  0005f	0f 84 07 01 00
	00		 je	 $LN92@LoadBool_e
  00065	80 f2 ed	 xor	 dl, -19			; ffffffedH
  00068	88 55 ec	 mov	 BYTE PTR __k$[ebp+4], dl
  0006b	8a 50 05	 mov	 dl, BYTE PTR [eax+5]
  0006e	84 d2		 test	 dl, dl
  00070	0f 84 f0 00 00
	00		 je	 $LN91@LoadBool_e
  00076	80 f2 ec	 xor	 dl, -20			; ffffffecH
  00079	88 55 ed	 mov	 BYTE PTR __k$[ebp+5], dl
  0007c	8a 50 06	 mov	 dl, BYTE PTR [eax+6]
  0007f	84 d2		 test	 dl, dl
  00081	0f 84 da 00 00
	00		 je	 $LN90@LoadBool_e
  00087	32 d1		 xor	 dl, cl
  00089	88 55 ee	 mov	 BYTE PTR __k$[ebp+6], dl
  0008c	8a 50 07	 mov	 dl, BYTE PTR [eax+7]
  0008f	84 d2		 test	 dl, dl
  00091	0f 84 c4 00 00
	00		 je	 $LN89@LoadBool_e
  00097	80 f2 ea	 xor	 dl, -22			; ffffffeaH
  0009a	88 55 ef	 mov	 BYTE PTR __k$[ebp+7], dl
  0009d	8a 50 08	 mov	 dl, BYTE PTR [eax+8]
  000a0	84 d2		 test	 dl, dl
  000a2	0f 84 ad 00 00
	00		 je	 $LN88@LoadBool_e
  000a8	80 f2 ed	 xor	 dl, -19			; ffffffedH
  000ab	88 55 f0	 mov	 BYTE PTR __k$[ebp+8], dl
  000ae	8a 50 09	 mov	 dl, BYTE PTR [eax+9]
  000b1	84 d2		 test	 dl, dl
  000b3	0f 84 96 00 00
	00		 je	 $LN87@LoadBool_e
  000b9	80 f2 ec	 xor	 dl, -20			; ffffffecH
  000bc	88 55 f1	 mov	 BYTE PTR __k$[ebp+9], dl
  000bf	8a 50 0a	 mov	 dl, BYTE PTR [eax+10]
  000c2	84 d2		 test	 dl, dl
  000c4	0f 84 80 00 00
	00		 je	 $LN86@LoadBool_e
  000ca	32 d1		 xor	 dl, cl
  000cc	88 55 f2	 mov	 BYTE PTR __k$[ebp+10], dl
  000cf	8a 50 0b	 mov	 dl, BYTE PTR [eax+11]
  000d2	84 d2		 test	 dl, dl
  000d4	74 6e		 je	 SHORT $LN85@LoadBool_e
  000d6	80 f2 ea	 xor	 dl, -22			; ffffffeaH
  000d9	88 55 f3	 mov	 BYTE PTR __k$[ebp+11], dl
  000dc	8a 50 0c	 mov	 dl, BYTE PTR [eax+12]
  000df	84 d2		 test	 dl, dl
  000e1	74 5b		 je	 SHORT $LN84@LoadBool_e
  000e3	80 f2 ed	 xor	 dl, -19			; ffffffedH
  000e6	80 78 0d 00	 cmp	 BYTE PTR [eax+13], 0
  000ea	88 55 f4	 mov	 BYTE PTR __k$[ebp+12], dl
  000ed	0f 84 95 00 00
	00		 je	 $LN1@LoadBool_e
  000f3	8a 50 0e	 mov	 dl, BYTE PTR [eax+14]
  000f6	84 d2		 test	 dl, dl
  000f8	74 3f		 je	 SHORT $LN82@LoadBool_e
  000fa	32 d1		 xor	 dl, cl
  000fc	88 55 f6	 mov	 BYTE PTR __k$[ebp+14], dl
  000ff	8a 50 0f	 mov	 dl, BYTE PTR [eax+15]
  00102	84 d2		 test	 dl, dl
  00104	74 2d		 je	 SHORT $LN81@LoadBool_e
  00106	80 f2 ea	 xor	 dl, -22			; ffffffeaH
  00109	88 55 f7	 mov	 BYTE PTR __k$[ebp+15], dl
  0010c	8a 50 10	 mov	 dl, BYTE PTR [eax+16]
  0010f	84 d2		 test	 dl, dl
  00111	74 1a		 je	 SHORT $LN80@LoadBool_e
  00113	8a 40 11	 mov	 al, BYTE PTR [eax+17]
  00116	80 f2 ed	 xor	 dl, -19			; ffffffedH
  00119	88 55 f8	 mov	 BYTE PTR __k$[ebp+16], dl
  0011c	84 c0		 test	 al, al
  0011e	74 07		 je	 SHORT $LN79@LoadBool_e
  00120	34 ec		 xor	 al, -20			; ffffffecH
  00122	88 45 f9	 mov	 BYTE PTR __k$[ebp+17], al
  00125	eb 61		 jmp	 SHORT $LN1@LoadBool_e
$LN79@LoadBool_e:
  00127	c6 45 f9 ec	 mov	 BYTE PTR __k$[ebp+17], -20 ; ffffffecH
  0012b	eb 5b		 jmp	 SHORT $LN1@LoadBool_e
$LN80@LoadBool_e:
  0012d	c6 45 f8 ed	 mov	 BYTE PTR __k$[ebp+16], -19 ; ffffffedH
  00131	eb 55		 jmp	 SHORT $LN1@LoadBool_e
$LN81@LoadBool_e:
  00133	c6 45 f7 ea	 mov	 BYTE PTR __k$[ebp+15], -22 ; ffffffeaH
  00137	eb 4f		 jmp	 SHORT $LN1@LoadBool_e
$LN82@LoadBool_e:
  00139	88 4d f6	 mov	 BYTE PTR __k$[ebp+14], cl
  0013c	eb 4a		 jmp	 SHORT $LN1@LoadBool_e
$LN84@LoadBool_e:
  0013e	c6 45 f4 ed	 mov	 BYTE PTR __k$[ebp+12], -19 ; ffffffedH
  00142	eb 44		 jmp	 SHORT $LN1@LoadBool_e
$LN85@LoadBool_e:
  00144	c6 45 f3 ea	 mov	 BYTE PTR __k$[ebp+11], -22 ; ffffffeaH
  00148	eb 3e		 jmp	 SHORT $LN1@LoadBool_e
$LN86@LoadBool_e:
  0014a	88 4d f2	 mov	 BYTE PTR __k$[ebp+10], cl
  0014d	eb 39		 jmp	 SHORT $LN1@LoadBool_e
$LN87@LoadBool_e:
  0014f	c6 45 f1 ec	 mov	 BYTE PTR __k$[ebp+9], -20 ; ffffffecH
  00153	eb 33		 jmp	 SHORT $LN1@LoadBool_e
$LN88@LoadBool_e:
  00155	c6 45 f0 ed	 mov	 BYTE PTR __k$[ebp+8], -19 ; ffffffedH
  00159	eb 2d		 jmp	 SHORT $LN1@LoadBool_e
$LN89@LoadBool_e:
  0015b	c6 45 ef ea	 mov	 BYTE PTR __k$[ebp+7], -22 ; ffffffeaH
  0015f	eb 27		 jmp	 SHORT $LN1@LoadBool_e
$LN90@LoadBool_e:
  00161	88 4d ee	 mov	 BYTE PTR __k$[ebp+6], cl
  00164	eb 22		 jmp	 SHORT $LN1@LoadBool_e
$LN91@LoadBool_e:
  00166	c6 45 ed ec	 mov	 BYTE PTR __k$[ebp+5], -20 ; ffffffecH
  0016a	eb 1c		 jmp	 SHORT $LN1@LoadBool_e
$LN92@LoadBool_e:
  0016c	c6 45 ec ed	 mov	 BYTE PTR __k$[ebp+4], -19 ; ffffffedH
  00170	eb 16		 jmp	 SHORT $LN1@LoadBool_e
$LN93@LoadBool_e:
  00172	c6 45 eb ea	 mov	 BYTE PTR __k$[ebp+3], -22 ; ffffffeaH
  00176	eb 10		 jmp	 SHORT $LN1@LoadBool_e
$LN94@LoadBool_e:
  00178	c6 45 ea eb	 mov	 BYTE PTR __k$[ebp+2], -21 ; ffffffebH
  0017c	eb 0a		 jmp	 SHORT $LN1@LoadBool_e
$LN95@LoadBool_e:
  0017e	c6 45 e9 ec	 mov	 BYTE PTR __k$[ebp+1], -20 ; ffffffecH
  00182	eb 04		 jmp	 SHORT $LN1@LoadBool_e
$LN96@LoadBool_e:
  00184	c6 45 e8 ed	 mov	 BYTE PTR __k$[ebp], -19	; ffffffedH
$LN1@LoadBool_e:
  00188	6a 03		 push	 3
  0018a	8d 45 e8	 lea	 eax, DWORD PTR __k$[ebp]
  0018d	c6 45 f5 00	 mov	 BYTE PTR __k$[ebp+13], 0
  00191	5a		 pop	 edx
$LL104@LoadBool_e:
  00192	81 30 ed ec eb
	ea		 xor	 DWORD PTR [eax], -353637139 ; eaebecedH
  00198	83 c0 04	 add	 eax, 4
  0019b	4a		 dec	 edx
  0019c	75 f4		 jne	 SHORT $LL104@LoadBool_e

; 103  : 		return LoadBool(_k, b);

  0019e	ff 75 0c	 push	 DWORD PTR _b$[ebp]
  001a1	80 75 f4 ed	 xor	 BYTE PTR __k$[ebp+12], -19 ; ffffffedH
  001a5	8d 45 e8	 lea	 eax, DWORD PTR __k$[ebp]
  001a8	50		 push	 eax
  001a9	8b ce		 mov	 ecx, esi
  001ab	ff 15 00 00 00
	00		 call	 DWORD PTR __imp_?LoadBool@ioINILoader@@QAE_NPBD_N@Z

; 104  : 	}

  001b1	8b 4d fc	 mov	 ecx, DWORD PTR __$ArrayPad$[ebp]
  001b4	33 cd		 xor	 ecx, ebp
  001b6	5e		 pop	 esi
  001b7	e8 00 00 00 00	 call	 @__security_check_cookie@4
  001bc	c9		 leave
  001bd	c2 08 00	 ret	 8
??$LoadBool_e@$0O@@ioINILoader@@QAE_NAAY0O@$$CBD_N@Z ENDP ; ioINILoader::LoadBool_e<14>
_TEXT	ENDS
PUBLIC	__$ArrayPad$
PUBLIC	??$LoadFloat_e@$0BA@@ioINILoader@@QAEMAAY0BA@$$CBDM@Z ; ioINILoader::LoadFloat_e<16>
EXTRN	__imp_?LoadFloat@ioINILoader@@QAEMPBDM@Z:PROC
; Function compile flags: /Ogsp
;	COMDAT ??$LoadFloat_e@$0BA@@ioINILoader@@QAEMAAY0BA@$$CBDM@Z
_TEXT	SEGMENT
__k$ = -24						; size = 16
__$ArrayPad$ = -4					; size = 4
_k$ = 8							; size = 4
_f$ = 12						; size = 4
??$LoadFloat_e@$0BA@@ioINILoader@@QAEMAAY0BA@$$CBDM@Z PROC ; ioINILoader::LoadFloat_e<16>, COMDAT
; _this$ = ecx

; 135  : 	{

  00000	55		 push	 ebp
  00001	8b ec		 mov	 ebp, esp
  00003	83 ec 18	 sub	 esp, 24			; 00000018H
  00006	a1 00 00 00 00	 mov	 eax, DWORD PTR ___security_cookie
  0000b	33 c5		 xor	 eax, ebp
  0000d	89 45 fc	 mov	 DWORD PTR __$ArrayPad$[ebp], eax
  00010	8b 45 08	 mov	 eax, DWORD PTR _k$[ebp]

; 136  : 		_ENCSTR(k, _k);

  00013	8a 10		 mov	 dl, BYTE PTR [eax]
  00015	56		 push	 esi
  00016	8b f1		 mov	 esi, ecx
  00018	84 d2		 test	 dl, dl
  0001a	0f 84 8c 01 00
	00		 je	 $LN96@LoadFloat_
  00020	80 f2 ed	 xor	 dl, -19			; ffffffedH
  00023	88 55 e8	 mov	 BYTE PTR __k$[ebp], dl
  00026	8a 50 01	 mov	 dl, BYTE PTR [eax+1]
  00029	84 d2		 test	 dl, dl
  0002b	0f 84 75 01 00
	00		 je	 $LN95@LoadFloat_
  00031	80 f2 ec	 xor	 dl, -20			; ffffffecH
  00034	88 55 e9	 mov	 BYTE PTR __k$[ebp+1], dl
  00037	8a 50 02	 mov	 dl, BYTE PTR [eax+2]
  0003a	84 d2		 test	 dl, dl
  0003c	0f 84 5e 01 00
	00		 je	 $LN94@LoadFloat_
  00042	b1 eb		 mov	 cl, -21			; ffffffebH
  00044	32 d1		 xor	 dl, cl
  00046	88 55 ea	 mov	 BYTE PTR __k$[ebp+2], dl
  00049	8a 50 03	 mov	 dl, BYTE PTR [eax+3]
  0004c	84 d2		 test	 dl, dl
  0004e	0f 84 46 01 00
	00		 je	 $LN93@LoadFloat_
  00054	80 f2 ea	 xor	 dl, -22			; ffffffeaH
  00057	88 55 eb	 mov	 BYTE PTR __k$[ebp+3], dl
  0005a	8a 50 04	 mov	 dl, BYTE PTR [eax+4]
  0005d	84 d2		 test	 dl, dl
  0005f	0f 84 2f 01 00
	00		 je	 $LN92@LoadFloat_
  00065	80 f2 ed	 xor	 dl, -19			; ffffffedH
  00068	88 55 ec	 mov	 BYTE PTR __k$[ebp+4], dl
  0006b	8a 50 05	 mov	 dl, BYTE PTR [eax+5]
  0006e	84 d2		 test	 dl, dl
  00070	0f 84 18 01 00
	00		 je	 $LN91@LoadFloat_
  00076	80 f2 ec	 xor	 dl, -20			; ffffffecH
  00079	88 55 ed	 mov	 BYTE PTR __k$[ebp+5], dl
  0007c	8a 50 06	 mov	 dl, BYTE PTR [eax+6]
  0007f	84 d2		 test	 dl, dl
  00081	0f 84 02 01 00
	00		 je	 $LN90@LoadFloat_
  00087	32 d1		 xor	 dl, cl
  00089	88 55 ee	 mov	 BYTE PTR __k$[ebp+6], dl
  0008c	8a 50 07	 mov	 dl, BYTE PTR [eax+7]
  0008f	84 d2		 test	 dl, dl
  00091	0f 84 ec 00 00
	00		 je	 $LN89@LoadFloat_
  00097	80 f2 ea	 xor	 dl, -22			; ffffffeaH
  0009a	88 55 ef	 mov	 BYTE PTR __k$[ebp+7], dl
  0009d	8a 50 08	 mov	 dl, BYTE PTR [eax+8]
  000a0	84 d2		 test	 dl, dl
  000a2	0f 84 d5 00 00
	00		 je	 $LN88@LoadFloat_
  000a8	80 f2 ed	 xor	 dl, -19			; ffffffedH
  000ab	88 55 f0	 mov	 BYTE PTR __k$[ebp+8], dl
  000ae	8a 50 09	 mov	 dl, BYTE PTR [eax+9]
  000b1	84 d2		 test	 dl, dl
  000b3	0f 84 be 00 00
	00		 je	 $LN87@LoadFloat_
  000b9	80 f2 ec	 xor	 dl, -20			; ffffffecH
  000bc	88 55 f1	 mov	 BYTE PTR __k$[ebp+9], dl
  000bf	8a 50 0a	 mov	 dl, BYTE PTR [eax+10]
  000c2	84 d2		 test	 dl, dl
  000c4	0f 84 a8 00 00
	00		 je	 $LN86@LoadFloat_
  000ca	32 d1		 xor	 dl, cl
  000cc	88 55 f2	 mov	 BYTE PTR __k$[ebp+10], dl
  000cf	8a 50 0b	 mov	 dl, BYTE PTR [eax+11]
  000d2	84 d2		 test	 dl, dl
  000d4	0f 84 92 00 00
	00		 je	 $LN85@LoadFloat_
  000da	80 f2 ea	 xor	 dl, -22			; ffffffeaH
  000dd	88 55 f3	 mov	 BYTE PTR __k$[ebp+11], dl
  000e0	8a 50 0c	 mov	 dl, BYTE PTR [eax+12]
  000e3	84 d2		 test	 dl, dl
  000e5	74 7f		 je	 SHORT $LN84@LoadFloat_
  000e7	80 f2 ed	 xor	 dl, -19			; ffffffedH
  000ea	88 55 f4	 mov	 BYTE PTR __k$[ebp+12], dl
  000ed	8a 50 0d	 mov	 dl, BYTE PTR [eax+13]
  000f0	84 d2		 test	 dl, dl
  000f2	74 6c		 je	 SHORT $LN83@LoadFloat_
  000f4	80 f2 ec	 xor	 dl, -20			; ffffffecH
  000f7	88 55 f5	 mov	 BYTE PTR __k$[ebp+13], dl
  000fa	8a 50 0e	 mov	 dl, BYTE PTR [eax+14]
  000fd	84 d2		 test	 dl, dl
  000ff	74 5a		 je	 SHORT $LN82@LoadFloat_
  00101	32 d1		 xor	 dl, cl
  00103	80 78 0f 00	 cmp	 BYTE PTR [eax+15], 0
  00107	88 55 f6	 mov	 BYTE PTR __k$[ebp+14], dl
  0010a	0f 84 a0 00 00
	00		 je	 $LN1@LoadFloat_
  00110	8a 50 10	 mov	 dl, BYTE PTR [eax+16]
  00113	84 d2		 test	 dl, dl
  00115	74 3e		 je	 SHORT $LN80@LoadFloat_
  00117	80 f2 ed	 xor	 dl, -19			; ffffffedH
  0011a	88 55 f8	 mov	 BYTE PTR __k$[ebp+16], dl
  0011d	8a 50 11	 mov	 dl, BYTE PTR [eax+17]
  00120	84 d2		 test	 dl, dl
  00122	74 2b		 je	 SHORT $LN79@LoadFloat_
  00124	80 f2 ec	 xor	 dl, -20			; ffffffecH
  00127	88 55 f9	 mov	 BYTE PTR __k$[ebp+17], dl
  0012a	8a 50 12	 mov	 dl, BYTE PTR [eax+18]
  0012d	84 d2		 test	 dl, dl
  0012f	74 19		 je	 SHORT $LN78@LoadFloat_
  00131	8a 40 13	 mov	 al, BYTE PTR [eax+19]
  00134	32 d1		 xor	 dl, cl
  00136	88 55 fa	 mov	 BYTE PTR __k$[ebp+18], dl
  00139	84 c0		 test	 al, al
  0013b	74 07		 je	 SHORT $LN77@LoadFloat_
  0013d	34 ea		 xor	 al, -22			; ffffffeaH
  0013f	88 45 fb	 mov	 BYTE PTR __k$[ebp+19], al
  00142	eb 6c		 jmp	 SHORT $LN1@LoadFloat_
$LN77@LoadFloat_:
  00144	c6 45 fb ea	 mov	 BYTE PTR __k$[ebp+19], -22 ; ffffffeaH
  00148	eb 66		 jmp	 SHORT $LN1@LoadFloat_
$LN78@LoadFloat_:
  0014a	88 4d fa	 mov	 BYTE PTR __k$[ebp+18], cl
  0014d	eb 61		 jmp	 SHORT $LN1@LoadFloat_
$LN79@LoadFloat_:
  0014f	c6 45 f9 ec	 mov	 BYTE PTR __k$[ebp+17], -20 ; ffffffecH
  00153	eb 5b		 jmp	 SHORT $LN1@LoadFloat_
$LN80@LoadFloat_:
  00155	c6 45 f8 ed	 mov	 BYTE PTR __k$[ebp+16], -19 ; ffffffedH
  00159	eb 55		 jmp	 SHORT $LN1@LoadFloat_
$LN82@LoadFloat_:
  0015b	88 4d f6	 mov	 BYTE PTR __k$[ebp+14], cl
  0015e	eb 50		 jmp	 SHORT $LN1@LoadFloat_
$LN83@LoadFloat_:
  00160	c6 45 f5 ec	 mov	 BYTE PTR __k$[ebp+13], -20 ; ffffffecH
  00164	eb 4a		 jmp	 SHORT $LN1@LoadFloat_
$LN84@LoadFloat_:
  00166	c6 45 f4 ed	 mov	 BYTE PTR __k$[ebp+12], -19 ; ffffffedH
  0016a	eb 44		 jmp	 SHORT $LN1@LoadFloat_
$LN85@LoadFloat_:
  0016c	c6 45 f3 ea	 mov	 BYTE PTR __k$[ebp+11], -22 ; ffffffeaH
  00170	eb 3e		 jmp	 SHORT $LN1@LoadFloat_
$LN86@LoadFloat_:
  00172	88 4d f2	 mov	 BYTE PTR __k$[ebp+10], cl
  00175	eb 39		 jmp	 SHORT $LN1@LoadFloat_
$LN87@LoadFloat_:
  00177	c6 45 f1 ec	 mov	 BYTE PTR __k$[ebp+9], -20 ; ffffffecH
  0017b	eb 33		 jmp	 SHORT $LN1@LoadFloat_
$LN88@LoadFloat_:
  0017d	c6 45 f0 ed	 mov	 BYTE PTR __k$[ebp+8], -19 ; ffffffedH
  00181	eb 2d		 jmp	 SHORT $LN1@LoadFloat_
$LN89@LoadFloat_:
  00183	c6 45 ef ea	 mov	 BYTE PTR __k$[ebp+7], -22 ; ffffffeaH
  00187	eb 27		 jmp	 SHORT $LN1@LoadFloat_
$LN90@LoadFloat_:
  00189	88 4d ee	 mov	 BYTE PTR __k$[ebp+6], cl
  0018c	eb 22		 jmp	 SHORT $LN1@LoadFloat_
$LN91@LoadFloat_:
  0018e	c6 45 ed ec	 mov	 BYTE PTR __k$[ebp+5], -20 ; ffffffecH
  00192	eb 1c		 jmp	 SHORT $LN1@LoadFloat_
$LN92@LoadFloat_:
  00194	c6 45 ec ed	 mov	 BYTE PTR __k$[ebp+4], -19 ; ffffffedH
  00198	eb 16		 jmp	 SHORT $LN1@LoadFloat_
$LN93@LoadFloat_:
  0019a	c6 45 eb ea	 mov	 BYTE PTR __k$[ebp+3], -22 ; ffffffeaH
  0019e	eb 10		 jmp	 SHORT $LN1@LoadFloat_
$LN94@LoadFloat_:
  001a0	c6 45 ea eb	 mov	 BYTE PTR __k$[ebp+2], -21 ; ffffffebH
  001a4	eb 0a		 jmp	 SHORT $LN1@LoadFloat_
$LN95@LoadFloat_:
  001a6	c6 45 e9 ec	 mov	 BYTE PTR __k$[ebp+1], -20 ; ffffffecH
  001aa	eb 04		 jmp	 SHORT $LN1@LoadFloat_
$LN96@LoadFloat_:
  001ac	c6 45 e8 ed	 mov	 BYTE PTR __k$[ebp], -19	; ffffffedH
$LN1@LoadFloat_:
  001b0	6a 03		 push	 3
  001b2	8d 45 e8	 lea	 eax, DWORD PTR __k$[ebp]
  001b5	c6 45 f7 00	 mov	 BYTE PTR __k$[ebp+15], 0
  001b9	5a		 pop	 edx
$LL104@LoadFloat_:
  001ba	81 30 ed ec eb
	ea		 xor	 DWORD PTR [eax], -353637139 ; eaebecedH
  001c0	83 c0 04	 add	 eax, 4
  001c3	4a		 dec	 edx
  001c4	75 f4		 jne	 SHORT $LL104@LoadFloat_
  001c6	6a 0c		 push	 12			; 0000000cH
  001c8	58		 pop	 eax
$LL101@LoadFloat_:
  001c9	8b c8		 mov	 ecx, eax
  001cb	81 e1 03 00 00
	80		 and	 ecx, -2147483645	; 80000003H
  001d1	79 05		 jns	 SHORT $LN111@LoadFloat_
  001d3	49		 dec	 ecx
  001d4	83 c9 fc	 or	 ecx, -4			; fffffffcH
  001d7	41		 inc	 ecx
$LN111@LoadFloat_:
  001d8	b2 ed		 mov	 dl, -19			; ffffffedH
  001da	2a d1		 sub	 dl, cl
  001dc	30 54 05 e8	 xor	 BYTE PTR __k$[ebp+eax], dl
  001e0	40		 inc	 eax
  001e1	83 f8 0f	 cmp	 eax, 15			; 0000000fH
  001e4	7c e3		 jl	 SHORT $LL101@LoadFloat_

; 137  : 		return LoadFloat(_k, f);

  001e6	f3 0f 10 45 0c	 movss	 xmm0, DWORD PTR _f$[ebp]
  001eb	51		 push	 ecx
  001ec	8d 45 e8	 lea	 eax, DWORD PTR __k$[ebp]
  001ef	f3 0f 11 04 24	 movss	 DWORD PTR [esp], xmm0
  001f4	50		 push	 eax
  001f5	8b ce		 mov	 ecx, esi
  001f7	ff 15 00 00 00
	00		 call	 DWORD PTR __imp_?LoadFloat@ioINILoader@@QAEMPBDM@Z

; 138  : 	}

  001fd	8b 4d fc	 mov	 ecx, DWORD PTR __$ArrayPad$[ebp]
  00200	33 cd		 xor	 ecx, ebp
  00202	5e		 pop	 esi
  00203	e8 00 00 00 00	 call	 @__security_check_cookie@4
  00208	c9		 leave
  00209	c2 08 00	 ret	 8
??$LoadFloat_e@$0BA@@ioINILoader@@QAEMAAY0BA@$$CBDM@Z ENDP ; ioINILoader::LoadFloat_e<16>
_TEXT	ENDS
PUBLIC	__$ArrayPad$
PUBLIC	??$LoadInt_e@$0BJ@@ioINILoader@@QAEHAAY0BJ@$$CBDH@Z ; ioINILoader::LoadInt_e<25>
EXTRN	__imp_?LoadInt@ioINILoader@@QAEHPBDH@Z:PROC
; Function compile flags: /Ogsp
;	COMDAT ??$LoadInt_e@$0BJ@@ioINILoader@@QAEHAAY0BJ@$$CBDH@Z
_TEXT	SEGMENT
__k$ = -36						; size = 25
__$ArrayPad$ = -4					; size = 4
_k$ = 8							; size = 4
_i$ = 12						; size = 4
??$LoadInt_e@$0BJ@@ioINILoader@@QAEHAAY0BJ@$$CBDH@Z PROC ; ioINILoader::LoadInt_e<25>, COMDAT
; _this$ = ecx

; 118  : 	{

  00000	55		 push	 ebp
  00001	8b ec		 mov	 ebp, esp
  00003	83 ec 24	 sub	 esp, 36			; 00000024H
  00006	a1 00 00 00 00	 mov	 eax, DWORD PTR ___security_cookie
  0000b	33 c5		 xor	 eax, ebp
  0000d	89 45 fc	 mov	 DWORD PTR __$ArrayPad$[ebp], eax
  00010	8b 45 08	 mov	 eax, DWORD PTR _k$[ebp]

; 119  : 		_ENCSTR(k, _k);

  00013	8a 10		 mov	 dl, BYTE PTR [eax]
  00015	53		 push	 ebx
  00016	56		 push	 esi
  00017	8b f1		 mov	 esi, ecx
  00019	84 d2		 test	 dl, dl
  0001b	0f 84 5f 02 00
	00		 je	 $LN96@LoadInt_e
  00021	80 f2 ed	 xor	 dl, -19			; ffffffedH
  00024	88 55 dc	 mov	 BYTE PTR __k$[ebp], dl
  00027	8a 50 01	 mov	 dl, BYTE PTR [eax+1]
  0002a	84 d2		 test	 dl, dl
  0002c	0f 84 48 02 00
	00		 je	 $LN95@LoadInt_e
  00032	b1 ec		 mov	 cl, -20			; ffffffecH
  00034	32 d1		 xor	 dl, cl
  00036	88 55 dd	 mov	 BYTE PTR __k$[ebp+1], dl
  00039	8a 50 02	 mov	 dl, BYTE PTR [eax+2]
  0003c	84 d2		 test	 dl, dl
  0003e	0f 84 30 02 00
	00		 je	 $LN94@LoadInt_e
  00044	b3 eb		 mov	 bl, -21			; ffffffebH
  00046	32 d3		 xor	 dl, bl
  00048	88 55 de	 mov	 BYTE PTR __k$[ebp+2], dl
  0004b	8a 50 03	 mov	 dl, BYTE PTR [eax+3]
  0004e	84 d2		 test	 dl, dl
  00050	0f 84 18 02 00
	00		 je	 $LN93@LoadInt_e
  00056	80 f2 ea	 xor	 dl, -22			; ffffffeaH
  00059	88 55 df	 mov	 BYTE PTR __k$[ebp+3], dl
  0005c	8a 50 04	 mov	 dl, BYTE PTR [eax+4]
  0005f	84 d2		 test	 dl, dl
  00061	0f 84 01 02 00
	00		 je	 $LN92@LoadInt_e
  00067	80 f2 ed	 xor	 dl, -19			; ffffffedH
  0006a	88 55 e0	 mov	 BYTE PTR __k$[ebp+4], dl
  0006d	8a 50 05	 mov	 dl, BYTE PTR [eax+5]
  00070	84 d2		 test	 dl, dl
  00072	0f 84 eb 01 00
	00		 je	 $LN91@LoadInt_e
  00078	32 d1		 xor	 dl, cl
  0007a	88 55 e1	 mov	 BYTE PTR __k$[ebp+5], dl
  0007d	8a 50 06	 mov	 dl, BYTE PTR [eax+6]
  00080	84 d2		 test	 dl, dl
  00082	0f 84 d6 01 00
	00		 je	 $LN90@LoadInt_e
  00088	32 d3		 xor	 dl, bl
  0008a	88 55 e2	 mov	 BYTE PTR __k$[ebp+6], dl
  0008d	8a 50 07	 mov	 dl, BYTE PTR [eax+7]
  00090	84 d2		 test	 dl, dl
  00092	0f 84 c0 01 00
	00		 je	 $LN89@LoadInt_e
  00098	80 f2 ea	 xor	 dl, -22			; ffffffeaH
  0009b	88 55 e3	 mov	 BYTE PTR __k$[ebp+7], dl
  0009e	8a 50 08	 mov	 dl, BYTE PTR [eax+8]
  000a1	84 d2		 test	 dl, dl
  000a3	0f 84 a9 01 00
	00		 je	 $LN88@LoadInt_e
  000a9	80 f2 ed	 xor	 dl, -19			; ffffffedH
  000ac	88 55 e4	 mov	 BYTE PTR __k$[ebp+8], dl
  000af	8a 50 09	 mov	 dl, BYTE PTR [eax+9]
  000b2	84 d2		 test	 dl, dl
  000b4	0f 84 93 01 00
	00		 je	 $LN87@LoadInt_e
  000ba	32 d1		 xor	 dl, cl
  000bc	88 55 e5	 mov	 BYTE PTR __k$[ebp+9], dl
  000bf	8a 50 0a	 mov	 dl, BYTE PTR [eax+10]
  000c2	84 d2		 test	 dl, dl
  000c4	0f 84 7e 01 00
	00		 je	 $LN86@LoadInt_e
  000ca	32 d3		 xor	 dl, bl
  000cc	88 55 e6	 mov	 BYTE PTR __k$[ebp+10], dl
  000cf	8a 50 0b	 mov	 dl, BYTE PTR [eax+11]
  000d2	84 d2		 test	 dl, dl
  000d4	0f 84 68 01 00
	00		 je	 $LN85@LoadInt_e
  000da	80 f2 ea	 xor	 dl, -22			; ffffffeaH
  000dd	88 55 e7	 mov	 BYTE PTR __k$[ebp+11], dl
  000e0	8a 50 0c	 mov	 dl, BYTE PTR [eax+12]
  000e3	84 d2		 test	 dl, dl
  000e5	0f 84 51 01 00
	00		 je	 $LN84@LoadInt_e
  000eb	80 f2 ed	 xor	 dl, -19			; ffffffedH
  000ee	88 55 e8	 mov	 BYTE PTR __k$[ebp+12], dl
  000f1	8a 50 0d	 mov	 dl, BYTE PTR [eax+13]
  000f4	84 d2		 test	 dl, dl
  000f6	0f 84 3b 01 00
	00		 je	 $LN83@LoadInt_e
  000fc	32 d1		 xor	 dl, cl
  000fe	88 55 e9	 mov	 BYTE PTR __k$[ebp+13], dl
  00101	8a 50 0e	 mov	 dl, BYTE PTR [eax+14]
  00104	84 d2		 test	 dl, dl
  00106	0f 84 26 01 00
	00		 je	 $LN82@LoadInt_e
  0010c	32 d3		 xor	 dl, bl
  0010e	88 55 ea	 mov	 BYTE PTR __k$[ebp+14], dl
  00111	8a 50 0f	 mov	 dl, BYTE PTR [eax+15]
  00114	84 d2		 test	 dl, dl
  00116	0f 84 10 01 00
	00		 je	 $LN81@LoadInt_e
  0011c	80 f2 ea	 xor	 dl, -22			; ffffffeaH
  0011f	88 55 eb	 mov	 BYTE PTR __k$[ebp+15], dl
  00122	8a 50 10	 mov	 dl, BYTE PTR [eax+16]
  00125	84 d2		 test	 dl, dl
  00127	0f 84 f9 00 00
	00		 je	 $LN80@LoadInt_e
  0012d	80 f2 ed	 xor	 dl, -19			; ffffffedH
  00130	88 55 ec	 mov	 BYTE PTR __k$[ebp+16], dl
  00133	8a 50 11	 mov	 dl, BYTE PTR [eax+17]
  00136	84 d2		 test	 dl, dl
  00138	0f 84 e3 00 00
	00		 je	 $LN79@LoadInt_e
  0013e	32 d1		 xor	 dl, cl
  00140	88 55 ed	 mov	 BYTE PTR __k$[ebp+17], dl
  00143	8a 50 12	 mov	 dl, BYTE PTR [eax+18]
  00146	84 d2		 test	 dl, dl
  00148	0f 84 ce 00 00
	00		 je	 $LN78@LoadInt_e
  0014e	32 d3		 xor	 dl, bl
  00150	88 55 ee	 mov	 BYTE PTR __k$[ebp+18], dl
  00153	8a 50 13	 mov	 dl, BYTE PTR [eax+19]
  00156	84 d2		 test	 dl, dl
  00158	0f 84 b8 00 00
	00		 je	 $LN77@LoadInt_e
  0015e	80 f2 ea	 xor	 dl, -22			; ffffffeaH
  00161	88 55 ef	 mov	 BYTE PTR __k$[ebp+19], dl
  00164	8a 50 14	 mov	 dl, BYTE PTR [eax+20]
  00167	84 d2		 test	 dl, dl
  00169	0f 84 a1 00 00
	00		 je	 $LN76@LoadInt_e
  0016f	80 f2 ed	 xor	 dl, -19			; ffffffedH
  00172	88 55 f0	 mov	 BYTE PTR __k$[ebp+20], dl
  00175	8a 50 15	 mov	 dl, BYTE PTR [eax+21]
  00178	84 d2		 test	 dl, dl
  0017a	0f 84 8b 00 00
	00		 je	 $LN75@LoadInt_e
  00180	32 d1		 xor	 dl, cl
  00182	88 55 f1	 mov	 BYTE PTR __k$[ebp+21], dl
  00185	8a 50 16	 mov	 dl, BYTE PTR [eax+22]
  00188	84 d2		 test	 dl, dl
  0018a	74 7a		 je	 SHORT $LN74@LoadInt_e
  0018c	32 d3		 xor	 dl, bl
  0018e	88 55 f2	 mov	 BYTE PTR __k$[ebp+22], dl
  00191	8a 50 17	 mov	 dl, BYTE PTR [eax+23]
  00194	84 d2		 test	 dl, dl
  00196	74 68		 je	 SHORT $LN73@LoadInt_e
  00198	80 f2 ea	 xor	 dl, -22			; ffffffeaH
  0019b	80 78 18 00	 cmp	 BYTE PTR [eax+24], 0
  0019f	88 55 f3	 mov	 BYTE PTR __k$[ebp+23], dl
  001a2	0f 84 dc 00 00
	00		 je	 $LN1@LoadInt_e
  001a8	8a 50 19	 mov	 dl, BYTE PTR [eax+25]
  001ab	84 d2		 test	 dl, dl
  001ad	74 49		 je	 SHORT $LN71@LoadInt_e
  001af	32 d1		 xor	 dl, cl
  001b1	88 55 f5	 mov	 BYTE PTR __k$[ebp+25], dl
  001b4	8a 50 1a	 mov	 dl, BYTE PTR [eax+26]
  001b7	84 d2		 test	 dl, dl
  001b9	74 35		 je	 SHORT $LN70@LoadInt_e
  001bb	32 d3		 xor	 dl, bl
  001bd	88 55 f6	 mov	 BYTE PTR __k$[ebp+26], dl
  001c0	8a 50 1b	 mov	 dl, BYTE PTR [eax+27]
  001c3	84 d2		 test	 dl, dl
  001c5	74 20		 je	 SHORT $LN69@LoadInt_e
  001c7	8a 40 1c	 mov	 al, BYTE PTR [eax+28]
  001ca	80 f2 ea	 xor	 dl, -22			; ffffffeaH
  001cd	88 55 f7	 mov	 BYTE PTR __k$[ebp+27], dl
  001d0	84 c0		 test	 al, al
  001d2	74 0a		 je	 SHORT $LN68@LoadInt_e
  001d4	34 ed		 xor	 al, -19			; ffffffedH
  001d6	88 45 f8	 mov	 BYTE PTR __k$[ebp+28], al
  001d9	e9 a6 00 00 00	 jmp	 $LN1@LoadInt_e
$LN68@LoadInt_e:
  001de	c6 45 f8 ed	 mov	 BYTE PTR __k$[ebp+28], -19 ; ffffffedH
  001e2	e9 9d 00 00 00	 jmp	 $LN1@LoadInt_e
$LN69@LoadInt_e:
  001e7	c6 45 f7 ea	 mov	 BYTE PTR __k$[ebp+27], -22 ; ffffffeaH
  001eb	e9 94 00 00 00	 jmp	 $LN1@LoadInt_e
$LN70@LoadInt_e:
  001f0	88 5d f6	 mov	 BYTE PTR __k$[ebp+26], bl
  001f3	e9 8c 00 00 00	 jmp	 $LN1@LoadInt_e
$LN71@LoadInt_e:
  001f8	88 4d f5	 mov	 BYTE PTR __k$[ebp+25], cl
  001fb	e9 84 00 00 00	 jmp	 $LN1@LoadInt_e
$LN73@LoadInt_e:
  00200	c6 45 f3 ea	 mov	 BYTE PTR __k$[ebp+23], -22 ; ffffffeaH
  00204	eb 7e		 jmp	 SHORT $LN1@LoadInt_e
$LN74@LoadInt_e:
  00206	88 5d f2	 mov	 BYTE PTR __k$[ebp+22], bl
  00209	eb 79		 jmp	 SHORT $LN1@LoadInt_e
$LN75@LoadInt_e:
  0020b	88 4d f1	 mov	 BYTE PTR __k$[ebp+21], cl
  0020e	eb 74		 jmp	 SHORT $LN1@LoadInt_e
$LN76@LoadInt_e:
  00210	c6 45 f0 ed	 mov	 BYTE PTR __k$[ebp+20], -19 ; ffffffedH
  00214	eb 6e		 jmp	 SHORT $LN1@LoadInt_e
$LN77@LoadInt_e:
  00216	c6 45 ef ea	 mov	 BYTE PTR __k$[ebp+19], -22 ; ffffffeaH
  0021a	eb 68		 jmp	 SHORT $LN1@LoadInt_e
$LN78@LoadInt_e:
  0021c	88 5d ee	 mov	 BYTE PTR __k$[ebp+18], bl
  0021f	eb 63		 jmp	 SHORT $LN1@LoadInt_e
$LN79@LoadInt_e:
  00221	88 4d ed	 mov	 BYTE PTR __k$[ebp+17], cl
  00224	eb 5e		 jmp	 SHORT $LN1@LoadInt_e
$LN80@LoadInt_e:
  00226	c6 45 ec ed	 mov	 BYTE PTR __k$[ebp+16], -19 ; ffffffedH
  0022a	eb 58		 jmp	 SHORT $LN1@LoadInt_e
$LN81@LoadInt_e:
  0022c	c6 45 eb ea	 mov	 BYTE PTR __k$[ebp+15], -22 ; ffffffeaH
  00230	eb 52		 jmp	 SHORT $LN1@LoadInt_e
$LN82@LoadInt_e:
  00232	88 5d ea	 mov	 BYTE PTR __k$[ebp+14], bl
  00235	eb 4d		 jmp	 SHORT $LN1@LoadInt_e
$LN83@LoadInt_e:
  00237	88 4d e9	 mov	 BYTE PTR __k$[ebp+13], cl
  0023a	eb 48		 jmp	 SHORT $LN1@LoadInt_e
$LN84@LoadInt_e:
  0023c	c6 45 e8 ed	 mov	 BYTE PTR __k$[ebp+12], -19 ; ffffffedH
  00240	eb 42		 jmp	 SHORT $LN1@LoadInt_e
$LN85@LoadInt_e:
  00242	c6 45 e7 ea	 mov	 BYTE PTR __k$[ebp+11], -22 ; ffffffeaH
  00246	eb 3c		 jmp	 SHORT $LN1@LoadInt_e
$LN86@LoadInt_e:
  00248	88 5d e6	 mov	 BYTE PTR __k$[ebp+10], bl
  0024b	eb 37		 jmp	 SHORT $LN1@LoadInt_e
$LN87@LoadInt_e:
  0024d	88 4d e5	 mov	 BYTE PTR __k$[ebp+9], cl
  00250	eb 32		 jmp	 SHORT $LN1@LoadInt_e
$LN88@LoadInt_e:
  00252	c6 45 e4 ed	 mov	 BYTE PTR __k$[ebp+8], -19 ; ffffffedH
  00256	eb 2c		 jmp	 SHORT $LN1@LoadInt_e
$LN89@LoadInt_e:
  00258	c6 45 e3 ea	 mov	 BYTE PTR __k$[ebp+7], -22 ; ffffffeaH
  0025c	eb 26		 jmp	 SHORT $LN1@LoadInt_e
$LN90@LoadInt_e:
  0025e	88 5d e2	 mov	 BYTE PTR __k$[ebp+6], bl
  00261	eb 21		 jmp	 SHORT $LN1@LoadInt_e
$LN91@LoadInt_e:
  00263	88 4d e1	 mov	 BYTE PTR __k$[ebp+5], cl
  00266	eb 1c		 jmp	 SHORT $LN1@LoadInt_e
$LN92@LoadInt_e:
  00268	c6 45 e0 ed	 mov	 BYTE PTR __k$[ebp+4], -19 ; ffffffedH
  0026c	eb 16		 jmp	 SHORT $LN1@LoadInt_e
$LN93@LoadInt_e:
  0026e	c6 45 df ea	 mov	 BYTE PTR __k$[ebp+3], -22 ; ffffffeaH
  00272	eb 10		 jmp	 SHORT $LN1@LoadInt_e
$LN94@LoadInt_e:
  00274	c6 45 de eb	 mov	 BYTE PTR __k$[ebp+2], -21 ; ffffffebH
  00278	eb 0a		 jmp	 SHORT $LN1@LoadInt_e
$LN95@LoadInt_e:
  0027a	c6 45 dd ec	 mov	 BYTE PTR __k$[ebp+1], -20 ; ffffffecH
  0027e	eb 04		 jmp	 SHORT $LN1@LoadInt_e
$LN96@LoadInt_e:
  00280	c6 45 dc ed	 mov	 BYTE PTR __k$[ebp], -19	; ffffffedH
$LN1@LoadInt_e:
  00284	6a 06		 push	 6
  00286	8d 45 dc	 lea	 eax, DWORD PTR __k$[ebp]
  00289	c6 45 f4 00	 mov	 BYTE PTR __k$[ebp+24], 0
  0028d	5a		 pop	 edx
$LL104@LoadInt_e:
  0028e	81 30 ed ec eb
	ea		 xor	 DWORD PTR [eax], -353637139 ; eaebecedH
  00294	83 c0 04	 add	 eax, 4
  00297	4a		 dec	 edx
  00298	75 f4		 jne	 SHORT $LL104@LoadInt_e

; 120  : 		return LoadInt(_k, i);

  0029a	ff 75 0c	 push	 DWORD PTR _i$[ebp]
  0029d	8d 45 dc	 lea	 eax, DWORD PTR __k$[ebp]
  002a0	50		 push	 eax
  002a1	8b ce		 mov	 ecx, esi
  002a3	ff 15 00 00 00
	00		 call	 DWORD PTR __imp_?LoadInt@ioINILoader@@QAEHPBDH@Z

; 121  : 	}

  002a9	8b 4d fc	 mov	 ecx, DWORD PTR __$ArrayPad$[ebp]
  002ac	5e		 pop	 esi
  002ad	33 cd		 xor	 ecx, ebp
  002af	5b		 pop	 ebx
  002b0	e8 00 00 00 00	 call	 @__security_check_cookie@4
  002b5	c9		 leave
  002b6	c2 08 00	 ret	 8
??$LoadInt_e@$0BJ@@ioINILoader@@QAEHAAY0BJ@$$CBDH@Z ENDP ; ioINILoader::LoadInt_e<25>
_TEXT	ENDS
PUBLIC	__$ArrayPad$
PUBLIC	??$LoadInt_e@$0BI@@ioINILoader@@QAEHAAY0BI@$$CBDH@Z ; ioINILoader::LoadInt_e<24>
; Function compile flags: /Ogsp
;	COMDAT ??$LoadInt_e@$0BI@@ioINILoader@@QAEHAAY0BI@$$CBDH@Z
_TEXT	SEGMENT
__k$ = -32						; size = 24
__$ArrayPad$ = -4					; size = 4
_k$ = 8							; size = 4
_i$ = 12						; size = 4
??$LoadInt_e@$0BI@@ioINILoader@@QAEHAAY0BI@$$CBDH@Z PROC ; ioINILoader::LoadInt_e<24>, COMDAT
; _this$ = ecx

; 118  : 	{

  00000	55		 push	 ebp
  00001	8b ec		 mov	 ebp, esp
  00003	83 ec 20	 sub	 esp, 32			; 00000020H
  00006	a1 00 00 00 00	 mov	 eax, DWORD PTR ___security_cookie
  0000b	33 c5		 xor	 eax, ebp
  0000d	89 45 fc	 mov	 DWORD PTR __$ArrayPad$[ebp], eax
  00010	8b 45 08	 mov	 eax, DWORD PTR _k$[ebp]

; 119  : 		_ENCSTR(k, _k);

  00013	8a 10		 mov	 dl, BYTE PTR [eax]
  00015	53		 push	 ebx
  00016	56		 push	 esi
  00017	8b f1		 mov	 esi, ecx
  00019	84 d2		 test	 dl, dl
  0001b	0f 84 45 02 00
	00		 je	 $LN96@LoadInt_e@2
  00021	80 f2 ed	 xor	 dl, -19			; ffffffedH
  00024	88 55 e0	 mov	 BYTE PTR __k$[ebp], dl
  00027	8a 50 01	 mov	 dl, BYTE PTR [eax+1]
  0002a	84 d2		 test	 dl, dl
  0002c	0f 84 2e 02 00
	00		 je	 $LN95@LoadInt_e@2
  00032	b3 ec		 mov	 bl, -20			; ffffffecH
  00034	32 d3		 xor	 dl, bl
  00036	88 55 e1	 mov	 BYTE PTR __k$[ebp+1], dl
  00039	8a 50 02	 mov	 dl, BYTE PTR [eax+2]
  0003c	84 d2		 test	 dl, dl
  0003e	0f 84 16 02 00
	00		 je	 $LN94@LoadInt_e@2
  00044	b1 eb		 mov	 cl, -21			; ffffffebH
  00046	32 d1		 xor	 dl, cl
  00048	88 55 e2	 mov	 BYTE PTR __k$[ebp+2], dl
  0004b	8a 50 03	 mov	 dl, BYTE PTR [eax+3]
  0004e	84 d2		 test	 dl, dl
  00050	0f 84 fe 01 00
	00		 je	 $LN93@LoadInt_e@2
  00056	80 f2 ea	 xor	 dl, -22			; ffffffeaH
  00059	88 55 e3	 mov	 BYTE PTR __k$[ebp+3], dl
  0005c	8a 50 04	 mov	 dl, BYTE PTR [eax+4]
  0005f	84 d2		 test	 dl, dl
  00061	0f 84 e7 01 00
	00		 je	 $LN92@LoadInt_e@2
  00067	80 f2 ed	 xor	 dl, -19			; ffffffedH
  0006a	88 55 e4	 mov	 BYTE PTR __k$[ebp+4], dl
  0006d	8a 50 05	 mov	 dl, BYTE PTR [eax+5]
