; Listing generated by Microsoft (R) Optimizing Compiler Version 16.00.30319.01 

	TITLE	D:\Lost Saga For Developer\Youtube\Tutorial\Source\src\LSClient\ioLuciferAirGrapWeapon.cpp
	.686P
	.XMM
	include listing.inc
	.model	flat

INCLUDELIB MSVCRT
INCLUDELIB OLDNAMES

PUBLIC	?_EEM_DS@?$deque@MV?$allocator@M@std@@@std@@2HB	; std::deque<float,std::allocator<float> >::_EEM_DS
PUBLIC	?_VBITS@?$vector@_NV?$allocator@_N@std@@@std@@2HB ; std::vector<bool,std::allocator<bool> >::_VBITS
PUBLIC	?_EEM_DS@?$deque@UD3DXVECTOR3@@V?$allocator@UD3DXVECTOR3@@@std@@@std@@2HB ; std::deque<D3DXVECTOR3,std::allocator<D3DXVECTOR3> >::_EEM_DS
PUBLIC	?m_ActionStopType@ioLuciferAirGrapWeapon@@2W4ActionStopType@@A ; ioLuciferAirGrapWeapon::m_ActionStopType
PUBLIC	?m_DieActionStopType@ioLuciferAirGrapWeapon@@2W4ActionStopType@@A ; ioLuciferAirGrapWeapon::m_DieActionStopType
_BSS	SEGMENT
?m_ActionStopType@ioLuciferAirGrapWeapon@@2W4ActionStopType@@A DD 01H DUP (?) ; ioLuciferAirGrapWeapon::m_ActionStopType
?m_DieActionStopType@ioLuciferAirGrapWeapon@@2W4ActionStopType@@A DD 01H DUP (?) ; ioLuciferAirGrapWeapon::m_DieActionStopType
_BSS	ENDS
;	COMDAT ?_EEM_DS@?$deque@UD3DXVECTOR3@@V?$allocator@UD3DXVECTOR3@@@std@@@std@@2HB
CONST	SEGMENT
?_EEM_DS@?$deque@UD3DXVECTOR3@@V?$allocator@UD3DXVECTOR3@@@std@@@std@@2HB DD 01H ; std::deque<D3DXVECTOR3,std::allocator<D3DXVECTOR3> >::_EEM_DS
CONST	ENDS
;	COMDAT ?_VBITS@?$vector@_NV?$allocator@_N@std@@@std@@2HB
CONST	SEGMENT
?_VBITS@?$vector@_NV?$allocator@_N@std@@@std@@2HB DD 020H ; std::vector<bool,std::allocator<bool> >::_VBITS
CONST	ENDS
;	COMDAT ?_EEM_DS@?$deque@MV?$allocator@M@std@@@std@@2HB
CONST	SEGMENT
?_EEM_DS@?$deque@MV?$allocator@M@std@@@std@@2HB DD 04H	; std::deque<float,std::allocator<float> >::_EEM_DS
CONST	ENDS
PUBLIC	?return1@@YAIXZ					; return1
; Function compile flags: /Ogsp
; File d:\lost saga for developer\youtube\tutorial\source\src\lsclient\stdafx.h
;	COMDAT ?return1@@YAIXZ
_TEXT	SEGMENT
?return1@@YAIXZ PROC					; return1, COMDAT

; 17   : 	__forceinline unsigned int return1() { __asm mov eax, 1 };

  00000	b8 01 00 00 00	 mov	 eax, 1
  00005	c3		 ret	 0
?return1@@YAIXZ ENDP					; return1
_TEXT	ENDS
PUBLIC	?return5@@YAIXZ					; return5
; Function compile flags: /Ogsp
;	COMDAT ?return5@@YAIXZ
_TEXT	SEGMENT
?return5@@YAIXZ PROC					; return5, COMDAT

; 18   : 	__forceinline unsigned int return5() { __asm mov eax, 5 };

  00000	b8 05 00 00 00	 mov	 eax, 5
  00005	c3		 ret	 0
?return5@@YAIXZ ENDP					; return5
_TEXT	ENDS
PUBLIC	?return10@@YAIXZ				; return10
; Function compile flags: /Ogsp
;	COMDAT ?return10@@YAIXZ
_TEXT	SEGMENT
?return10@@YAIXZ PROC					; return10, COMDAT

; 21   : 	__forceinline unsigned int return10() { __asm mov eax, 10 };

  00000	b8 0a 00 00 00	 mov	 eax, 10			; 0000000aH
  00005	c3		 ret	 0
?return10@@YAIXZ ENDP					; return10
_TEXT	ENDS
PUBLIC	?return1000@@YAIXZ				; return1000
; Function compile flags: /Ogsp
;	COMDAT ?return1000@@YAIXZ
_TEXT	SEGMENT
?return1000@@YAIXZ PROC					; return1000, COMDAT

; 29   : 	__forceinline unsigned int return1000() { __asm mov eax, 1000 };

  00000	b8 e8 03 00 00	 mov	 eax, 1000		; 000003e8H
  00005	c3		 ret	 0
?return1000@@YAIXZ ENDP					; return1000
_TEXT	ENDS
PUBLIC	?GetState@ioBaseChar@@QBE?AW4CharState@@XZ	; ioBaseChar::GetState
; Function compile flags: /Ogsp
; File d:\lost saga for developer\youtube\tutorial\source\src\lsclient\iobasechar.h
;	COMDAT ?GetState@ioBaseChar@@QBE?AW4CharState@@XZ
_TEXT	SEGMENT
?GetState@ioBaseChar@@QBE?AW4CharState@@XZ PROC		; ioBaseChar::GetState, COMDAT
; _this$ = ecx

; 2156 : 	inline CharState GetState() const { return m_CharState; }	

  00000	8a 81 10 03 00
	00		 mov	 al, BYTE PTR [ecx+784]
  00006	c3		 ret	 0
?GetState@ioBaseChar@@QBE?AW4CharState@@XZ ENDP		; ioBaseChar::GetState
_TEXT	ENDS
PUBLIC	?GetActionStopCurAdd@ioBaseChar@@QBEKXZ		; ioBaseChar::GetActionStopCurAdd
; Function compile flags: /Ogsp
;	COMDAT ?GetActionStopCurAdd@ioBaseChar@@QBEKXZ
_TEXT	SEGMENT
?GetActionStopCurAdd@ioBaseChar@@QBEKXZ PROC		; ioBaseChar::GetActionStopCurAdd, COMDAT
; _this$ = ecx

; 2398 : 	DWORD GetActionStopCurAdd() const { return m_dwActionStopCurAdd; }

  00000	8b 81 b0 15 00
	00		 mov	 eax, DWORD PTR [ecx+5552]
  00006	c3		 ret	 0
?GetActionStopCurAdd@ioBaseChar@@QBEKXZ ENDP		; ioBaseChar::GetActionStopCurAdd
_TEXT	ENDS
PUBLIC	??_7bad_alloc@std@@6B@				; std::bad_alloc::`vftable'
PUBLIC	??0bad_alloc@std@@QAE@PBD@Z			; std::bad_alloc::bad_alloc
PUBLIC	??_R4bad_alloc@std@@6B@				; std::bad_alloc::`RTTI Complete Object Locator'
PUBLIC	??_R0?AVbad_alloc@std@@@8			; std::bad_alloc `RTTI Type Descriptor'
PUBLIC	??_R3bad_alloc@std@@8				; std::bad_alloc::`RTTI Class Hierarchy Descriptor'
PUBLIC	??_R2bad_alloc@std@@8				; std::bad_alloc::`RTTI Base Class Array'
PUBLIC	??_R1A@?0A@EA@bad_alloc@std@@8			; std::bad_alloc::`RTTI Base Class Descriptor at (0,-1,0,64)'
PUBLIC	??_R1A@?0A@EA@exception@std@@8			; std::exception::`RTTI Base Class Descriptor at (0,-1,0,64)'
PUBLIC	??_R0?AVexception@std@@@8			; std::exception `RTTI Type Descriptor'
PUBLIC	??_R3exception@std@@8				; std::exception::`RTTI Class Hierarchy Descriptor'
PUBLIC	??_R2exception@std@@8				; std::exception::`RTTI Base Class Array'
EXTRN	__imp_??0exception@std@@QAE@ABQBD@Z:PROC
EXTRN	??_7type_info@@6B@:QWORD			; type_info::`vftable'
EXTRN	??_Ebad_alloc@std@@UAEPAXI@Z:PROC		; std::bad_alloc::`vector deleting destructor'
EXTRN	?what@exception@std@@UBEPBDXZ:PROC		; std::exception::what
;	COMDAT ??_R2exception@std@@8
; File c:\program files (x86)\microsoft visual studio 10.0\vc\include\exception
rdata$r	SEGMENT
??_R2exception@std@@8 DD FLAT:??_R1A@?0A@EA@exception@std@@8 ; std::exception::`RTTI Base Class Array'
rdata$r	ENDS
;	COMDAT ??_R3exception@std@@8
rdata$r	SEGMENT
??_R3exception@std@@8 DD 00H				; std::exception::`RTTI Class Hierarchy Descriptor'
	DD	00H
	DD	01H
	DD	FLAT:??_R2exception@std@@8
rdata$r	ENDS
;	COMDAT ??_R0?AVexception@std@@@8
_DATA	SEGMENT
??_R0?AVexception@std@@@8 DD FLAT:??_7type_info@@6B@	; std::exception `RTTI Type Descriptor'
	DD	00H
	DB	'.?AVexception@std@@', 00H
_DATA	ENDS
;	COMDAT ??_R1A@?0A@EA@exception@std@@8
rdata$r	SEGMENT
??_R1A@?0A@EA@exception@std@@8 DD FLAT:??_R0?AVexception@std@@@8 ; std::exception::`RTTI Base Class Descriptor at (0,-1,0,64)'
	DD	00H
	DD	00H
	DD	0ffffffffH
	DD	00H
	DD	040H
	DD	FLAT:??_R3exception@std@@8
rdata$r	ENDS
;	COMDAT ??_R1A@?0A@EA@bad_alloc@std@@8
rdata$r	SEGMENT
??_R1A@?0A@EA@bad_alloc@std@@8 DD FLAT:??_R0?AVbad_alloc@std@@@8 ; std::bad_alloc::`RTTI Base Class Descriptor at (0,-1,0,64)'
	DD	01H
	DD	00H
	DD	0ffffffffH
	DD	00H
	DD	040H
	DD	FLAT:??_R3bad_alloc@std@@8
rdata$r	ENDS
;	COMDAT ??_R2bad_alloc@std@@8
rdata$r	SEGMENT
??_R2bad_alloc@std@@8 DD FLAT:??_R1A@?0A@EA@bad_alloc@std@@8 ; std::bad_alloc::`RTTI Base Class Array'
	DD	FLAT:??_R1A@?0A@EA@exception@std@@8
rdata$r	ENDS
;	COMDAT ??_R3bad_alloc@std@@8
rdata$r	SEGMENT
??_R3bad_alloc@std@@8 DD 00H				; std::bad_alloc::`RTTI Class Hierarchy Descriptor'
	DD	00H
	DD	02H
	DD	FLAT:??_R2bad_alloc@std@@8
rdata$r	ENDS
;	COMDAT ??_R0?AVbad_alloc@std@@@8
_DATA	SEGMENT
??_R0?AVbad_alloc@std@@@8 DD FLAT:??_7type_info@@6B@	; std::bad_alloc `RTTI Type Descriptor'
	DD	00H
	DB	'.?AVbad_alloc@std@@', 00H
_DATA	ENDS
;	COMDAT ??_R4bad_alloc@std@@6B@
rdata$r	SEGMENT
??_R4bad_alloc@std@@6B@ DD 00H				; std::bad_alloc::`RTTI Complete Object Locator'
	DD	00H
	DD	00H
	DD	FLAT:??_R0?AVbad_alloc@std@@@8
	DD	FLAT:??_R3bad_alloc@std@@8
rdata$r	ENDS
;	COMDAT ??_7bad_alloc@std@@6B@
CONST	SEGMENT
??_7bad_alloc@std@@6B@ DD FLAT:??_R4bad_alloc@std@@6B@	; std::bad_alloc::`vftable'
	DD	FLAT:??_Ebad_alloc@std@@UAEPAXI@Z
	DD	FLAT:?what@exception@std@@UBEPBDXZ
; Function compile flags: /Ogsp
CONST	ENDS
;	COMDAT ??0bad_alloc@std@@QAE@PBD@Z
_TEXT	SEGMENT
__Message$ = 8						; size = 4
??0bad_alloc@std@@QAE@PBD@Z PROC			; std::bad_alloc::bad_alloc, COMDAT
; _this$ = ecx

; 345  : 		{	// construct from message string

  00000	55		 push	 ebp
  00001	8b ec		 mov	 ebp, esp
  00003	56		 push	 esi
  00004	8d 45 08	 lea	 eax, DWORD PTR __Message$[ebp]
  00007	50		 push	 eax
  00008	8b f1		 mov	 esi, ecx
  0000a	ff 15 00 00 00
	00		 call	 DWORD PTR __imp_??0exception@std@@QAE@ABQBD@Z
  00010	c7 06 00 00 00
	00		 mov	 DWORD PTR [esi], OFFSET ??_7bad_alloc@std@@6B@

; 346  : 		}

  00016	8b c6		 mov	 eax, esi
  00018	5e		 pop	 esi
  00019	5d		 pop	 ebp
  0001a	c2 04 00	 ret	 4
??0bad_alloc@std@@QAE@PBD@Z ENDP			; std::bad_alloc::bad_alloc
_TEXT	ENDS
PUBLIC	??1bad_alloc@std@@UAE@XZ			; std::bad_alloc::~bad_alloc
EXTRN	__imp_??1exception@std@@UAE@XZ:PROC
; Function compile flags: /Ogsp
;	COMDAT ??1bad_alloc@std@@UAE@XZ
_TEXT	SEGMENT
??1bad_alloc@std@@UAE@XZ PROC				; std::bad_alloc::~bad_alloc, COMDAT
; _this$ = ecx

; 354  : 		{	// destroy the object

  00000	c7 01 00 00 00
	00		 mov	 DWORD PTR [ecx], OFFSET ??_7bad_alloc@std@@6B@

; 355  : 		}

  00006	ff 25 00 00 00
	00		 jmp	 DWORD PTR __imp_??1exception@std@@UAE@XZ
??1bad_alloc@std@@UAE@XZ ENDP				; std::bad_alloc::~bad_alloc
_TEXT	ENDS
EXTRN	??3@YAXPAX@Z:PROC				; operator delete
; Function compile flags: /Ogsp
;	COMDAT ??_Gbad_alloc@std@@UAEPAXI@Z
_TEXT	SEGMENT
___flags$ = 8						; size = 4
??_Gbad_alloc@std@@UAEPAXI@Z PROC			; std::bad_alloc::`scalar deleting destructor', COMDAT
; _this$ = ecx
  00000	55		 push	 ebp
  00001	8b ec		 mov	 ebp, esp
  00003	56		 push	 esi
  00004	8b f1		 mov	 esi, ecx
  00006	c7 06 00 00 00
	00		 mov	 DWORD PTR [esi], OFFSET ??_7bad_alloc@std@@6B@
  0000c	ff 15 00 00 00
	00		 call	 DWORD PTR __imp_??1exception@std@@UAE@XZ
  00012	f6 45 08 01	 test	 BYTE PTR ___flags$[ebp], 1
  00016	74 07		 je	 SHORT $LN1@scalar
  00018	56		 push	 esi
  00019	e8 00 00 00 00	 call	 ??3@YAXPAX@Z		; operator delete
  0001e	59		 pop	 ecx
$LN1@scalar:
  0001f	8b c6		 mov	 eax, esi
  00021	5e		 pop	 esi
  00022	5d		 pop	 ebp
  00023	c2 04 00	 ret	 4
??_Gbad_alloc@std@@UAEPAXI@Z ENDP			; std::bad_alloc::`scalar deleting destructor'
_TEXT	ENDS
PUBLIC	??2@YAPAXIPAX@Z					; operator new
; Function compile flags: /Ogsp
; File c:\program files (x86)\microsoft visual studio 10.0\vc\include\new
;	COMDAT ??2@YAPAXIPAX@Z
_TEXT	SEGMENT
___formal$ = 8						; size = 4
__Where$ = 12						; size = 4
??2@YAPAXIPAX@Z PROC					; operator new, COMDAT

; 56   : 	{	// construct array with placement at _Where

  00000	55		 push	 ebp
  00001	8b ec		 mov	 ebp, esp

; 57   : 	return (_Where);

  00003	8b 45 0c	 mov	 eax, DWORD PTR __Where$[ebp]

; 58   : 	}

  00006	5d		 pop	 ebp
  00007	c3		 ret	 0
??2@YAPAXIPAX@Z ENDP					; operator new
_TEXT	ENDS
PUBLIC	??3@YAXPAX0@Z					; operator delete
; Function compile flags: /Ogsp
;	COMDAT ??3@YAXPAX0@Z
_TEXT	SEGMENT
___formal$ = 8						; size = 4
___formal$ = 12						; size = 4
??3@YAXPAX0@Z PROC					; operator delete, COMDAT

; 62   : 	}

  00000	c3		 ret	 0
??3@YAXPAX0@Z ENDP					; operator delete
_TEXT	ENDS
PUBLIC	??_7ioLuciferAirGrapWeapon@@6B@			; ioLuciferAirGrapWeapon::`vftable'
PUBLIC	??0ioLuciferAirGrapWeapon@@QAE@PAVioBaseChar@@PBUWeaponAttribute@@@Z ; ioLuciferAirGrapWeapon::ioLuciferAirGrapWeapon
PUBLIC	??_R4ioLuciferAirGrapWeapon@@6B@		; ioLuciferAirGrapWeapon::`RTTI Complete Object Locator'
PUBLIC	??_R0?AVioLuciferAirGrapWeapon@@@8		; ioLuciferAirGrapWeapon `RTTI Type Descriptor'
PUBLIC	??_R3ioLuciferAirGrapWeapon@@8			; ioLuciferAirGrapWeapon::`RTTI Class Hierarchy Descriptor'
PUBLIC	??_R2ioLuciferAirGrapWeapon@@8			; ioLuciferAirGrapWeapon::`RTTI Base Class Array'
PUBLIC	??_R1A@?0A@EA@ioLuciferAirGrapWeapon@@8		; ioLuciferAirGrapWeapon::`RTTI Base Class Descriptor at (0,-1,0,64)'
PUBLIC	??_R1A@?0A@EA@ioWeapon@@8			; ioWeapon::`RTTI Base Class Descriptor at (0,-1,0,64)'
PUBLIC	??_R0?AVioWeapon@@@8				; ioWeapon `RTTI Type Descriptor'
PUBLIC	??_R3ioWeapon@@8				; ioWeapon::`RTTI Class Hierarchy Descriptor'
PUBLIC	??_R2ioWeapon@@8				; ioWeapon::`RTTI Base Class Array'
PUBLIC	?LoadProperty@ioLuciferAirGrapWeapon@@UAEXAAVioINILoader@@@Z ; ioLuciferAirGrapWeapon::LoadProperty
PUBLIC	?SetStartCollisionBox@ioLuciferAirGrapWeapon@@UAEXXZ ; ioLuciferAirGrapWeapon::SetStartCollisionBox
PUBLIC	?SetLiveTime@ioLuciferAirGrapWeapon@@UAEXK@Z	; ioLuciferAirGrapWeapon::SetLiveTime
PUBLIC	?Process@ioLuciferAirGrapWeapon@@UAEXMPAVioPlayStage@@@Z ; ioLuciferAirGrapWeapon::Process
PUBLIC	?IsCollision@ioLuciferAirGrapWeapon@@UAE_NPAVioPlayEntity@@_N@Z ; ioLuciferAirGrapWeapon::IsCollision
PUBLIC	?GetWorldAttackBoxList@ioLuciferAirGrapWeapon@@UAEXAAV?$vector@VioOrientBox@@V?$allocator@VioOrientBox@@@std@@@std@@@Z ; ioLuciferAirGrapWeapon::GetWorldAttackBoxList
PUBLIC	?GetType@ioLuciferAirGrapWeapon@@UBE?AW4WeaponType@ioWeapon@@XZ ; ioLuciferAirGrapWeapon::GetType
PUBLIC	?GetActionStopType@ioLuciferAirGrapWeapon@@UBE?AW4ActionStopType@@XZ ; ioLuciferAirGrapWeapon::GetActionStopType
PUBLIC	?GetDieActionStopType@ioLuciferAirGrapWeapon@@UBE?AW4ActionStopType@@XZ ; ioLuciferAirGrapWeapon::GetDieActionStopType
PUBLIC	?UpdateWorldAttackBox@ioLuciferAirGrapWeapon@@MAEXM_N@Z ; ioLuciferAirGrapWeapon::UpdateWorldAttackBox
EXTRN	__imp_??1ioOrientBox@@QAE@XZ:PROC
EXTRN	??1ioWeapon@@UAE@XZ:PROC			; ioWeapon::~ioWeapon
EXTRN	?SetPeculiarity@ioWeapon@@QAEXK@Z:PROC		; ioWeapon::SetPeculiarity
EXTRN	__imp_??0ioOrientBox@@QAE@XZ:PROC
EXTRN	??0ioWeapon@@QAE@PAVioBaseChar@@PBUWeaponAttribute@@@Z:PROC ; ioWeapon::ioWeapon
EXTRN	___CxxFrameHandler3:PROC
EXTRN	@__security_check_cookie@4:PROC
EXTRN	__EH_epilog3:PROC
EXTRN	__EH_prolog3:PROC
EXTRN	?IsAlreadyCollisioned@ioWeapon@@UAE_NPAVioPlayEntity@@@Z:PROC ; ioWeapon::IsAlreadyCollisioned
EXTRN	?AddCollisionEntity@ioWeapon@@UAEXPAVioPlayEntity@@@Z:PROC ; ioWeapon::AddCollisionEntity
EXTRN	?SetOwnerDamageRate@ioWeapon@@UAEXM@Z:PROC	; ioWeapon::SetOwnerDamageRate
EXTRN	?SetOwnerChargeDamageRate@ioWeapon@@UAEXM@Z:PROC ; ioWeapon::SetOwnerChargeDamageRate
EXTRN	?SetOwnerChargeForceRate@ioWeapon@@UAEXM@Z:PROC	; ioWeapon::SetOwnerChargeForceRate
EXTRN	?SetOwnerChargeRangeRate@ioWeapon@@UAEXM@Z:PROC	; ioWeapon::SetOwnerChargeRangeRate
EXTRN	?SetOwnerChargeSpeedRate@ioWeapon@@UAEXM@Z:PROC	; ioWeapon::SetOwnerChargeSpeedRate
EXTRN	?SetOwnerChargeBlowRate@ioWeapon@@UAEXM@Z:PROC	; ioWeapon::SetOwnerChargeBlowRate
EXTRN	?SetOwnerChargeFloatRate@ioWeapon@@UAEXM@Z:PROC	; ioWeapon::SetOwnerChargeFloatRate
EXTRN	?SetOwnerChargeScaleRate@ioWeapon@@UAEXM@Z:PROC	; ioWeapon::SetOwnerChargeScaleRate
EXTRN	?SetOwnerChargeExplosionRate@ioWeapon@@UAEXM@Z:PROC ; ioWeapon::SetOwnerChargeExplosionRate
EXTRN	?SetOwnerChargeWoundedTimeRate@ioWeapon@@UAEXM@Z:PROC ; ioWeapon::SetOwnerChargeWoundedTimeRate
EXTRN	?SetOwnerChargeLiveTimeRate@ioWeapon@@UAEXM@Z:PROC ; ioWeapon::SetOwnerChargeLiveTimeRate
EXTRN	?SetOwnerChargeBuffLiveTimeRate@ioWeapon@@UAEXM@Z:PROC ; ioWeapon::SetOwnerChargeBuffLiveTimeRate
EXTRN	?SetWeaponIndex@ioWeapon@@UAEXK@Z:PROC		; ioWeapon::SetWeaponIndex
EXTRN	?SetGrapplingTargetName@ioWeapon@@UAEXABVioHashString@@@Z:PROC ; ioWeapon::SetGrapplingTargetName
EXTRN	?SetCreateItem@ioWeapon@@UAEXABVioHashString@@@Z:PROC ; ioWeapon::SetCreateItem
EXTRN	?SetTeam@ioWeapon@@UAEXPAVioPlayStage@@W4TeamType@@@Z:PROC ; ioWeapon::SetTeam
EXTRN	?CallReserveAreaWeapon@ioWeapon@@UAEXXZ:PROC	; ioWeapon::CallReserveAreaWeapon
EXTRN	?SetWeaponDead@ioWeapon@@UAEXXZ:PROC		; ioWeapon::SetWeaponDead
EXTRN	?PlayExplosionSound@ioWeapon@@UAEXXZ:PROC	; ioWeapon::PlayExplosionSound
EXTRN	?PlayWoundedSound@ioWeapon@@UAEXPAVioPlayEntity@@@Z:PROC ; ioWeapon::PlayWoundedSound
EXTRN	?PlayDefensedSound@ioWeapon@@UAEXPAVioPlayEntity@@@Z:PROC ; ioWeapon::PlayDefensedSound
EXTRN	?PlayLoopSound@ioWeapon@@UAEXXZ:PROC		; ioWeapon::PlayLoopSound
EXTRN	?StopLoopSound@ioWeapon@@UAEXXZ:PROC		; ioWeapon::StopLoopSound
EXTRN	?GetTargetAirBuffList@ioWeapon@@UBEABV?$vector@UBuffInfoStruct@@V?$allocator@UBuffInfoStruct@@@std@@@std@@XZ:PROC ; ioWeapon::GetTargetAirBuffList
EXTRN	?GetTargetBuffList@ioWeapon@@UBEABV?$vector@UBuffInfoStruct@@V?$allocator@UBuffInfoStruct@@@std@@@std@@XZ:PROC ; ioWeapon::GetTargetBuffList
EXTRN	?GetTargetDownBuffList@ioWeapon@@UBEABV?$vector@UBuffInfoStruct@@V?$allocator@UBuffInfoStruct@@@std@@@std@@XZ:PROC ; ioWeapon::GetTargetDownBuffList
EXTRN	?GetPosition@ioWeapon@@UBEABUD3DXVECTOR3@@XZ:PROC ; ioWeapon::GetPosition
EXTRN	?GetBlowType@ioWeapon@@UBE?AW4BlowTargetType@@XZ:PROC ; ioWeapon::GetBlowType
EXTRN	?GetPushPower@ioWeapon@@UBEMM@Z:PROC		; ioWeapon::GetPushPower
EXTRN	?GetBlowPower@ioWeapon@@UBEMM@Z:PROC		; ioWeapon::GetBlowPower
EXTRN	?GetAirPushPower@ioWeapon@@UBEMM@Z:PROC		; ioWeapon::GetAirPushPower
EXTRN	?GetAirBlowPower@ioWeapon@@UBEMM@Z:PROC		; ioWeapon::GetAirBlowPower
EXTRN	?GetDefensePushPower@ioWeapon@@UBEMM@Z:PROC	; ioWeapon::GetDefensePushPower
EXTRN	?GetCollisionEnableTime@ioWeapon@@UBEKXZ:PROC	; ioWeapon::GetCollisionEnableTime
EXTRN	?SetSylphid@ioWeapon@@UAEHXZ:PROC		; ioWeapon::SetSylphid
EXTRN	?ApplyExtraReserveWeaponByWeaponInfo@ioWeapon@@UAEXPAV1@@Z:PROC ; ioWeapon::ApplyExtraReserveWeaponByWeaponInfo
EXTRN	?InitResource@ioWeapon@@UAE_NXZ:PROC		; ioWeapon::InitResource
EXTRN	?DestroyResource@ioWeapon@@UAEXPAVioPlayStage@@@Z:PROC ; ioWeapon::DestroyResource
EXTRN	?SetResistanceAttr@ioWeapon@@UAEXH@Z:PROC	; ioWeapon::SetResistanceAttr
EXTRN	?SetMoveDir@ioWeapon@@UAEXABUD3DXVECTOR3@@@Z:PROC ; ioWeapon::SetMoveDir
EXTRN	?SetMoveSpeed@ioWeapon@@UAEXM@Z:PROC		; ioWeapon::SetMoveSpeed
EXTRN	?SetFloatPower@ioWeapon@@UAEXM@Z:PROC		; ioWeapon::SetFloatPower
EXTRN	?SetStartPosition@ioWeapon@@UAEXABUD3DXVECTOR3@@PAVioPlayStage@@@Z:PROC ; ioWeapon::SetStartPosition
EXTRN	?TestMapCollision@ioWeapon@@UAE_NPAVioOpcodeShape@@PAVioPlayStage@@PBUD3DXMATRIX@@@Z:PROC ; ioWeapon::TestMapCollision
EXTRN	?CheckPreCollision@ioWeapon@@UAEXPAVioPlayEntity@@PAVioPlayStage@@@Z:PROC ; ioWeapon::CheckPreCollision
EXTRN	?CheckStructAndDummy@ioWeapon@@UAEXPAVioPlayEntity@@PAVioPlayStage@@@Z:PROC ; ioWeapon::CheckStructAndDummy
EXTRN	?GetDamage@ioWeapon@@UAEMPAVioPlayEntity@@@Z:PROC ; ioWeapon::GetDamage
EXTRN	?GetBaseDamage@ioWeapon@@UAEMPAVioPlayEntity@@@Z:PROC ; ioWeapon::GetBaseDamage
EXTRN	?GetPushAngle@ioWeapon@@UBEMXZ:PROC		; ioWeapon::GetPushAngle
EXTRN	?IsResistanceMagic@ioWeapon@@UAEHPAVioBaseChar@@@Z:PROC ; ioWeapon::IsResistanceMagic
EXTRN	?IsResistanceBomb@ioWeapon@@UAEHPAVioBaseChar@@@Z:PROC ; ioWeapon::IsResistanceBomb
EXTRN	?IsCanMineExplosion@ioWeapon@@UAE_NXZ:PROC	; ioWeapon::IsCanMineExplosion
EXTRN	?CheckGrapplingState@ioWeapon@@UAE?AW4GrapplingType@@XZ:PROC ; ioWeapon::CheckGrapplingState
EXTRN	?CheckCurAttribute@ioWeapon@@UAEXPBVioPlayEntity@@@Z:PROC ; ioWeapon::CheckCurAttribute
EXTRN	?CheckItemNotDrop@ioWeapon@@UAE_NPAVioBaseChar@@@Z:PROC ; ioWeapon::CheckItemNotDrop
EXTRN	?GetAttackDir@ioWeapon@@UBE?AUD3DXVECTOR3@@PBVioPlayEntity@@@Z:PROC ; ioWeapon::GetAttackDir
EXTRN	?GetLocalAttackBox@ioWeapon@@UBEABVioOrientBox@@XZ:PROC ; ioWeapon::GetLocalAttackBox
EXTRN	?GetLiveTime@ioWeapon@@UAEKXZ:PROC		; ioWeapon::GetLiveTime
EXTRN	?GetMoveDir@ioWeapon@@UAE?AUD3DXVECTOR3@@XZ:PROC ; ioWeapon::GetMoveDir
EXTRN	?CheckWeaponCollision@ioWeapon@@UAEXXZ:PROC	; ioWeapon::CheckWeaponCollision
EXTRN	?GetRefreshDuration@ioWeapon@@UAEKXZ:PROC	; ioWeapon::GetRefreshDuration
EXTRN	?GetIgnoreDuration@ioWeapon@@UAEKXZ:PROC	; ioWeapon::GetIgnoreDuration
EXTRN	?GetIgnoreTimeTypeDuration@ioWeapon@@UAEKXZ:PROC ; ioWeapon::GetIgnoreTimeTypeDuration
EXTRN	?GetIgnoreTimeType@ioWeapon@@UAEKXZ:PROC	; ioWeapon::GetIgnoreTimeType
EXTRN	?ApplyWeaponSync@ioWeapon@@UAEXAAVSP2Packet@@PAVioPlayStage@@@Z:PROC ; ioWeapon::ApplyWeaponSync
EXTRN	?IsSkillDependency@ioWeapon@@UAE_NABVioHashString@@@Z:PROC ; ioWeapon::IsSkillDependency
EXTRN	?SetSkillDependencyAction@ioWeapon@@UAEXXZ:PROC	; ioWeapon::SetSkillDependencyAction
EXTRN	?GetAttribute@ioWeapon@@MBEPBUWeaponAttribute@@XZ:PROC ; ioWeapon::GetAttribute
EXTRN	?CalcFinalDamage@ioWeapon@@MAEMXZ:PROC		; ioWeapon::CalcFinalDamage
EXTRN	?CalcFinalBoundDamage@ioWeapon@@MAEMXZ:PROC	; ioWeapon::CalcFinalBoundDamage
EXTRN	?CheckPiercing@ioWeapon@@MAE_N_N@Z:PROC		; ioWeapon::CheckPiercing
EXTRN	?ClearCollisionList@ioWeapon@@MAEXXZ:PROC	; ioWeapon::ClearCollisionList
EXTRN	?CheckCreateWeaponList@ioWeapon@@MAEXXZ:PROC	; ioWeapon::CheckCreateWeaponList
EXTRN	?CreateCollisionAreaWeapon@ioWeapon@@MAEXXZ:PROC ; ioWeapon::CreateCollisionAreaWeapon
EXTRN	?SetMapCollision@ioWeapon@@UAEXXZ:PROC		; ioWeapon::SetMapCollision
EXTRN	?IsIgnoreMapCollision@ioWeapon@@UBE_NXZ:PROC	; ioWeapon::IsIgnoreMapCollision
EXTRN	?IsIgnoreTestMapCollision@ioWeapon@@UBE_NXZ:PROC ; ioWeapon::IsIgnoreTestMapCollision
EXTRN	?IsIgnoreMapCollisionEffect@ioWeapon@@UBE_NXZ:PROC ; ioWeapon::IsIgnoreMapCollisionEffect
EXTRN	?AddEffectEvent@ioWeapon@@MAEXPAVioEffect@@@Z:PROC ; ioWeapon::AddEffectEvent
EXTRN	??_EioLuciferAirGrapWeapon@@UAEPAXI@Z:PROC	; ioLuciferAirGrapWeapon::`vector deleting destructor'
;	COMDAT ??_R2ioWeapon@@8
; File d:\lost saga for developer\youtube\tutorial\source\src\lsclient\ioluciferairgrapweapon.cpp
rdata$r	SEGMENT
??_R2ioWeapon@@8 DD FLAT:??_R1A@?0A@EA@ioWeapon@@8	; ioWeapon::`RTTI Base Class Array'
rdata$r	ENDS
;	COMDAT ??_R3ioWeapon@@8
rdata$r	SEGMENT
??_R3ioWeapon@@8 DD 00H					; ioWeapon::`RTTI Class Hierarchy Descriptor'
	DD	00H
	DD	01H
	DD	FLAT:??_R2ioWeapon@@8
rdata$r	ENDS
;	COMDAT ??_R0?AVioWeapon@@@8
_DATA	SEGMENT
??_R0?AVioWeapon@@@8 DD FLAT:??_7type_info@@6B@		; ioWeapon `RTTI Type Descriptor'
	DD	00H
	DB	'.?AVioWeapon@@', 00H
_DATA	ENDS
;	COMDAT ??_R1A@?0A@EA@ioWeapon@@8
rdata$r	SEGMENT
??_R1A@?0A@EA@ioWeapon@@8 DD FLAT:??_R0?AVioWeapon@@@8	; ioWeapon::`RTTI Base Class Descriptor at (0,-1,0,64)'
	DD	00H
	DD	00H
	DD	0ffffffffH
	DD	00H
	DD	040H
	DD	FLAT:??_R3ioWeapon@@8
rdata$r	ENDS
;	COMDAT ??_R1A@?0A@EA@ioLuciferAirGrapWeapon@@8
rdata$r	SEGMENT
??_R1A@?0A@EA@ioLuciferAirGrapWeapon@@8 DD FLAT:??_R0?AVioLuciferAirGrapWeapon@@@8 ; ioLuciferAirGrapWeapon::`RTTI Base Class Descriptor at (0,-1,0,64)'
	DD	01H
	DD	00H
	DD	0ffffffffH
	DD	00H
	DD	040H
	DD	FLAT:??_R3ioLuciferAirGrapWeapon@@8
rdata$r	ENDS
;	COMDAT ??_R2ioLuciferAirGrapWeapon@@8
rdata$r	SEGMENT
??_R2ioLuciferAirGrapWeapon@@8 DD FLAT:??_R1A@?0A@EA@ioLuciferAirGrapWeapon@@8 ; ioLuciferAirGrapWeapon::`RTTI Base Class Array'
	DD	FLAT:??_R1A@?0A@EA@ioWeapon@@8
rdata$r	ENDS
;	COMDAT ??_R3ioLuciferAirGrapWeapon@@8
rdata$r	SEGMENT
??_R3ioLuciferAirGrapWeapon@@8 DD 00H			; ioLuciferAirGrapWeapon::`RTTI Class Hierarchy Descriptor'
	DD	00H
	DD	02H
	DD	FLAT:??_R2ioLuciferAirGrapWeapon@@8
rdata$r	ENDS
;	COMDAT ??_R0?AVioLuciferAirGrapWeapon@@@8
_DATA	SEGMENT
??_R0?AVioLuciferAirGrapWeapon@@@8 DD FLAT:??_7type_info@@6B@ ; ioLuciferAirGrapWeapon `RTTI Type Descriptor'
	DD	00H
	DB	'.?AVioLuciferAirGrapWeapon@@', 00H
_DATA	ENDS
;	COMDAT ??_R4ioLuciferAirGrapWeapon@@6B@
rdata$r	SEGMENT
??_R4ioLuciferAirGrapWeapon@@6B@ DD 00H			; ioLuciferAirGrapWeapon::`RTTI Complete Object Locator'
	DD	00H
	DD	00H
	DD	FLAT:??_R0?AVioLuciferAirGrapWeapon@@@8
	DD	FLAT:??_R3ioLuciferAirGrapWeapon@@8
rdata$r	ENDS
;	COMDAT ??_7ioLuciferAirGrapWeapon@@6B@
CONST	SEGMENT
??_7ioLuciferAirGrapWeapon@@6B@ DD FLAT:??_R4ioLuciferAirGrapWeapon@@6B@ ; ioLuciferAirGrapWeapon::`vftable'
	DD	FLAT:?IsAlreadyCollisioned@ioWeapon@@UAE_NPAVioPlayEntity@@@Z
	DD	FLAT:?AddCollisionEntity@ioWeapon@@UAEXPAVioPlayEntity@@@Z
	DD	FLAT:?SetOwnerDamageRate@ioWeapon@@UAEXM@Z
	DD	FLAT:?SetOwnerChargeDamageRate@ioWeapon@@UAEXM@Z
	DD	FLAT:?SetOwnerChargeForceRate@ioWeapon@@UAEXM@Z
	DD	FLAT:?SetOwnerChargeRangeRate@ioWeapon@@UAEXM@Z
	DD	FLAT:?SetOwnerChargeSpeedRate@ioWeapon@@UAEXM@Z
	DD	FLAT:?SetOwnerChargeBlowRate@ioWeapon@@UAEXM@Z
	DD	FLAT:?SetOwnerChargeFloatRate@ioWeapon@@UAEXM@Z
	DD	FLAT:?SetOwnerChargeScaleRate@ioWeapon@@UAEXM@Z
	DD	FLAT:?SetOwnerChargeExplosionRate@ioWeapon@@UAEXM@Z
	DD	FLAT:?SetOwnerChargeWoundedTimeRate@ioWeapon@@UAEXM@Z
	DD	FLAT:?SetOwnerChargeLiveTimeRate@ioWeapon@@UAEXM@Z
	DD	FLAT:?SetOwnerChargeBuffLiveTimeRate@ioWeapon@@UAEXM@Z
	DD	FLAT:?SetWeaponIndex@ioWeapon@@UAEXK@Z
	DD	FLAT:?SetGrapplingTargetName@ioWeapon@@UAEXABVioHashString@@@Z
	DD	FLAT:?SetCreateItem@ioWeapon@@UAEXABVioHashString@@@Z
	DD	FLAT:?SetTeam@ioWeapon@@UAEXPAVioPlayStage@@W4TeamType@@@Z
	DD	FLAT:?CallReserveAreaWeapon@ioWeapon@@UAEXXZ
	DD	FLAT:?SetWeaponDead@ioWeapon@@UAEXXZ
	DD	FLAT:?PlayExplosionSound@ioWeapon@@UAEXXZ
	DD	FLAT:?PlayWoundedSound@ioWeapon@@UAEXPAVioPlayEntity@@@Z
	DD	FLAT:?PlayDefensedSound@ioWeapon@@UAEXPAVioPlayEntity@@@Z
	DD	FLAT:?PlayLoopSound@ioWeapon@@UAEXXZ
	DD	FLAT:?StopLoopSound@ioWeapon@@UAEXXZ
	DD	FLAT:?GetTargetAirBuffList@ioWeapon@@UBEABV?$vector@UBuffInfoStruct@@V?$allocator@UBuffInfoStruct@@@std@@@std@@XZ
	DD	FLAT:?GetTargetBuffList@ioWeapon@@UBEABV?$vector@UBuffInfoStruct@@V?$allocator@UBuffInfoStruct@@@std@@@std@@XZ
	DD	FLAT:?GetTargetDownBuffList@ioWeapon@@UBEABV?$vector@UBuffInfoStruct@@V?$allocator@UBuffInfoStruct@@@std@@@std@@XZ
	DD	FLAT:?GetPosition@ioWeapon@@UBEABUD3DXVECTOR3@@XZ
	DD	FLAT:?GetBlowType@ioWeapon@@UBE?AW4BlowTargetType@@XZ
	DD	FLAT:?GetPushPower@ioWeapon@@UBEMM@Z
	DD	FLAT:?GetBlowPower@ioWeapon@@UBEMM@Z
	DD	FLAT:?GetAirPushPower@ioWeapon@@UBEMM@Z
	DD	FLAT:?GetAirBlowPower@ioWeapon@@UBEMM@Z
	DD	FLAT:?GetDefensePushPower@ioWeapon@@UBEMM@Z
	DD	FLAT:?GetCollisionEnableTime@ioWeapon@@UBEKXZ
	DD	FLAT:?SetSylphid@ioWeapon@@UAEHXZ
	DD	FLAT:?ApplyExtraReserveWeaponByWeaponInfo@ioWeapon@@UAEXPAV1@@Z
	DD	FLAT:?InitResource@ioWeapon@@UAE_NXZ
	DD	FLAT:?DestroyResource@ioWeapon@@UAEXPAVioPlayStage@@@Z
	DD	FLAT:?LoadProperty@ioLuciferAirGrapWeapon@@UAEXAAVioINILoader@@@Z
	DD	FLAT:?SetResistanceAttr@ioWeapon@@UAEXH@Z
	DD	FLAT:?SetStartCollisionBox@ioLuciferAirGrapWeapon@@UAEXXZ
	DD	FLAT:?SetLiveTime@ioLuciferAirGrapWeapon@@UAEXK@Z
	DD	FLAT:?SetMoveDir@ioWeapon@@UAEXABUD3DXVECTOR3@@@Z
	DD	FLAT:?SetMoveSpeed@ioWeapon@@UAEXM@Z
	DD	FLAT:?SetFloatPower@ioWeapon@@UAEXM@Z
	DD	FLAT:?SetStartPosition@ioWeapon@@UAEXABUD3DXVECTOR3@@PAVioPlayStage@@@Z
	DD	FLAT:?Process@ioLuciferAirGrapWeapon@@UAEXMPAVioPlayStage@@@Z
	DD	FLAT:?IsCollision@ioLuciferAirGrapWeapon@@UAE_NPAVioPlayEntity@@_N@Z
	DD	FLAT:?TestMapCollision@ioWeapon@@UAE_NPAVioOpcodeShape@@PAVioPlayStage@@PBUD3DXMATRIX@@@Z
	DD	FLAT:?CheckPreCollision@ioWeapon@@UAEXPAVioPlayEntity@@PAVioPlayStage@@@Z
	DD	FLAT:?CheckStructAndDummy@ioWeapon@@UAEXPAVioPlayEntity@@PAVioPlayStage@@@Z
	DD	FLAT:?GetDamage@ioWeapon@@UAEMPAVioPlayEntity@@@Z
	DD	FLAT:?GetBaseDamage@ioWeapon@@UAEMPAVioPlayEntity@@@Z
	DD	FLAT:?GetPushAngle@ioWeapon@@UBEMXZ
	DD	FLAT:?IsResistanceMagic@ioWeapon@@UAEHPAVioBaseChar@@@Z
	DD	FLAT:?IsResistanceBomb@ioWeapon@@UAEHPAVioBaseChar@@@Z
	DD	FLAT:?IsCanMineExplosion@ioWeapon@@UAE_NXZ
	DD	FLAT:?CheckGrapplingState@ioWeapon@@UAE?AW4GrapplingType@@XZ
	DD	FLAT:?CheckCurAttribute@ioWeapon@@UAEXPBVioPlayEntity@@@Z
	DD	FLAT:?CheckItemNotDrop@ioWeapon@@UAE_NPAVioBaseChar@@@Z
	DD	FLAT:?GetWorldAttackBoxList@ioLuciferAirGrapWeapon@@UAEXAAV?$vector@VioOrientBox@@V?$allocator@VioOrientBox@@@std@@@std@@@Z
	DD	FLAT:?GetAttackDir@ioWeapon@@UBE?AUD3DXVECTOR3@@PBVioPlayEntity@@@Z
	DD	FLAT:?GetLocalAttackBox@ioWeapon@@UBEABVioOrientBox@@XZ
	DD	FLAT:?GetLiveTime@ioWeapon@@UAEKXZ
	DD	FLAT:?GetMoveDir@ioWeapon@@UAE?AUD3DXVECTOR3@@XZ
	DD	FLAT:?CheckWeaponCollision@ioWeapon@@UAEXXZ
	DD	FLAT:?GetType@ioLuciferAirGrapWeapon@@UBE?AW4WeaponType@ioWeapon@@XZ
	DD	FLAT:?GetActionStopType@ioLuciferAirGrapWeapon@@UBE?AW4ActionStopType@@XZ
	DD	FLAT:?GetDieActionStopType@ioLuciferAirGrapWeapon@@UBE?AW4ActionStopType@@XZ
	DD	FLAT:?GetRefreshDuration@ioWeapon@@UAEKXZ
	DD	FLAT:?GetIgnoreDuration@ioWeapon@@UAEKXZ
	DD	FLAT:?GetIgnoreTimeTypeDuration@ioWeapon@@UAEKXZ
	DD	FLAT:?GetIgnoreTimeType@ioWeapon@@UAEKXZ
	DD	FLAT:?ApplyWeaponSync@ioWeapon@@UAEXAAVSP2Packet@@PAVioPlayStage@@@Z
	DD	FLAT:?IsSkillDependency@ioWeapon@@UAE_NABVioHashString@@@Z
	DD	FLAT:?SetSkillDependencyAction@ioWeapon@@UAEXXZ
	DD	FLAT:?UpdateWorldAttackBox@ioLuciferAirGrapWeapon@@MAEXM_N@Z
	DD	FLAT:?GetAttribute@ioWeapon@@MBEPBUWeaponAttribute@@XZ
	DD	FLAT:?CalcFinalDamage@ioWeapon@@MAEMXZ
	DD	FLAT:?CalcFinalBoundDamage@ioWeapon@@MAEMXZ
	DD	FLAT:?CheckPiercing@ioWeapon@@MAE_N_N@Z
	DD	FLAT:?ClearCollisionList@ioWeapon@@MAEXXZ
	DD	FLAT:?CheckCreateWeaponList@ioWeapon@@MAEXXZ
	DD	FLAT:?CreateCollisionAreaWeapon@ioWeapon@@MAEXXZ
	DD	FLAT:?SetMapCollision@ioWeapon@@UAEXXZ
	DD	FLAT:?IsIgnoreMapCollision@ioWeapon@@UBE_NXZ
	DD	FLAT:?IsIgnoreTestMapCollision@ioWeapon@@UBE_NXZ
	DD	FLAT:?IsIgnoreMapCollisionEffect@ioWeapon@@UBE_NXZ
	DD	FLAT:?AddEffectEvent@ioWeapon@@MAEXPAVioEffect@@@Z
	DD	FLAT:??_EioLuciferAirGrapWeapon@@UAEPAXI@Z
CONST	ENDS
;	COMDAT xdata$x
xdata$x	SEGMENT
__unwindtable$??0ioLuciferAirGrapWeapon@@QAE@PAVioBaseChar@@PBUWeaponAttribute@@@Z DD 0ffffffffH
	DD	FLAT:__unwindfunclet$??0ioLuciferAirGrapWeapon@@QAE@PAVioBaseChar@@PBUWeaponAttribute@@@Z$0
	DD	00H
	DD	FLAT:__unwindfunclet$??0ioLuciferAirGrapWeapon@@QAE@PAVioBaseChar@@PBUWeaponAttribute@@@Z$1
	DD	01H
	DD	FLAT:__unwindfunclet$??0ioLuciferAirGrapWeapon@@QAE@PAVioBaseChar@@PBUWeaponAttribute@@@Z$2
__ehfuncinfo$??0ioLuciferAirGrapWeapon@@QAE@PAVioBaseChar@@PBUWeaponAttribute@@@Z DD 019930522H
	DD	03H
	DD	FLAT:__unwindtable$??0ioLuciferAirGrapWeapon@@QAE@PAVioBaseChar@@PBUWeaponAttribute@@@Z
	DD	2 DUP(00H)
	DD	2 DUP(00H)
	DD	00H
	DD	01H
; Function compile flags: /Ogsp
xdata$x	ENDS
;	COMDAT ??0ioLuciferAirGrapWeapon@@QAE@PAVioBaseChar@@PBUWeaponAttribute@@@Z
_TEXT	SEGMENT
_this$ = -16						; size = 4
__$EHRec$ = -12						; size = 12
_pOwner$ = 8						; size = 4
_pAttr$ = 12						; size = 4
??0ioLuciferAirGrapWeapon@@QAE@PAVioBaseChar@@PBUWeaponAttribute@@@Z PROC ; ioLuciferAirGrapWeapon::ioLuciferAirGrapWeapon, COMDAT
; _this$ = ecx

; 16   : {

  00000	6a 04		 push	 4
  00002	b8 00 00 00 00	 mov	 eax, __ehhandler$??0ioLuciferAirGrapWeapon@@QAE@PAVioBaseChar@@PBUWeaponAttribute@@@Z
  00007	e8 00 00 00 00	 call	 __EH_prolog3
  0000c	8b f1		 mov	 esi, ecx
  0000e	89 75 f0	 mov	 DWORD PTR _this$[ebp], esi
  00011	ff 75 0c	 push	 DWORD PTR _pAttr$[ebp]
  00014	ff 75 08	 push	 DWORD PTR _pOwner$[ebp]
  00017	e8 00 00 00 00	 call	 ??0ioWeapon@@QAE@PAVioBaseChar@@PBUWeaponAttribute@@@Z ; ioWeapon::ioWeapon
  0001c	8b 3d 00 00 00
	00		 mov	 edi, DWORD PTR __imp_??0ioOrientBox@@QAE@XZ
  00022	83 65 fc 00	 and	 DWORD PTR __$EHRec$[ebp+8], 0
  00026	8d 8e 94 08 00
	00		 lea	 ecx, DWORD PTR [esi+2196]
  0002c	c7 06 00 00 00
	00		 mov	 DWORD PTR [esi], OFFSET ??_7ioLuciferAirGrapWeapon@@6B@
  00032	ff d7		 call	 edi
  00034	8d 8e d8 08 00
	00		 lea	 ecx, DWORD PTR [esi+2264]
  0003a	c6 45 fc 01	 mov	 BYTE PTR __$EHRec$[ebp+8], 1
  0003e	ff d7		 call	 edi

; 17   : 	SetPeculiarity( WP_DIVIDE_ACTION );

  00040	68 00 01 00 00	 push	 256			; 00000100H
  00045	8b ce		 mov	 ecx, esi
  00047	c6 45 fc 02	 mov	 BYTE PTR __$EHRec$[ebp+8], 2
  0004b	e8 00 00 00 00	 call	 ?SetPeculiarity@ioWeapon@@QAEXK@Z ; ioWeapon::SetPeculiarity

; 18   : 	m_UpdateState = CONTACT_CREATED;

  00050	83 a6 20 09 00
	00 00		 and	 DWORD PTR [esi+2336], 0

; 19   : 	m_bFirstCheck = true;

  00057	66 c7 86 1c 09
	00 00 01 00	 mov	 WORD PTR [esi+2332], 1

; 20   : 	m_bDeadWait = false;
; 21   : }

  00060	8b c6		 mov	 eax, esi
  00062	e8 00 00 00 00	 call	 __EH_epilog3
  00067	c2 08 00	 ret	 8
_TEXT	ENDS
;	COMDAT text$x
text$x	SEGMENT
__unwindfunclet$??0ioLuciferAirGrapWeapon@@QAE@PAVioBaseChar@@PBUWeaponAttribute@@@Z$0:
  00000	8b 4d f0	 mov	 ecx, DWORD PTR _this$[ebp]
  00003	e9 00 00 00 00	 jmp	 ??1ioWeapon@@UAE@XZ	; ioWeapon::~ioWeapon
__unwindfunclet$??0ioLuciferAirGrapWeapon@@QAE@PAVioBaseChar@@PBUWeaponAttribute@@@Z$1:
  00008	8b 4d f0	 mov	 ecx, DWORD PTR _this$[ebp]
  0000b	81 c1 94 08 00
	00		 add	 ecx, 2196		; 00000894H
  00011	ff 25 00 00 00
	00		 jmp	 DWORD PTR __imp_??1ioOrientBox@@QAE@XZ
__unwindfunclet$??0ioLuciferAirGrapWeapon@@QAE@PAVioBaseChar@@PBUWeaponAttribute@@@Z$2:
  00017	8b 4d f0	 mov	 ecx, DWORD PTR _this$[ebp]
  0001a	81 c1 d8 08 00
	00		 add	 ecx, 2264		; 000008d8H
  00020	ff 25 00 00 00
	00		 jmp	 DWORD PTR __imp_??1ioOrientBox@@QAE@XZ
__ehhandler$??0ioLuciferAirGrapWeapon@@QAE@PAVioBaseChar@@PBUWeaponAttribute@@@Z:
  00026	8b 54 24 08	 mov	 edx, DWORD PTR [esp+8]
  0002a	8d 42 0c	 lea	 eax, DWORD PTR [edx+12]
  0002d	8b 4a ec	 mov	 ecx, DWORD PTR [edx-20]
  00030	33 c8		 xor	 ecx, eax
  00032	e8 00 00 00 00	 call	 @__security_check_cookie@4
  00037	b8 00 00 00 00	 mov	 eax, OFFSET __ehfuncinfo$??0ioLuciferAirGrapWeapon@@QAE@PAVioBaseChar@@PBUWeaponAttribute@@@Z
  0003c	e9 00 00 00 00	 jmp	 ___CxxFrameHandler3
text$x	ENDS
??0ioLuciferAirGrapWeapon@@QAE@PAVioBaseChar@@PBUWeaponAttribute@@@Z ENDP ; ioLuciferAirGrapWeapon::ioLuciferAirGrapWeapon
PUBLIC	??1ioLuciferAirGrapWeapon@@UAE@XZ		; ioLuciferAirGrapWeapon::~ioLuciferAirGrapWeapon
;	COMDAT xdata$x
xdata$x	SEGMENT
__unwindtable$??1ioLuciferAirGrapWeapon@@UAE@XZ DD 0ffffffffH
	DD	FLAT:__unwindfunclet$??1ioLuciferAirGrapWeapon@@UAE@XZ$0
	DD	00H
	DD	FLAT:__unwindfunclet$??1ioLuciferAirGrapWeapon@@UAE@XZ$1
__ehfuncinfo$??1ioLuciferAirGrapWeapon@@UAE@XZ DD 019930522H
	DD	02H
	DD	FLAT:__unwindtable$??1ioLuciferAirGrapWeapon@@UAE@XZ
	DD	2 DUP(00H)
	DD	2 DUP(00H)
	DD	00H
	DD	01H
; Function compile flags: /Ogsp
xdata$x	ENDS
;	COMDAT ??1ioLuciferAirGrapWeapon@@UAE@XZ
_TEXT	SEGMENT
_this$ = -16						; size = 4
__$EHRec$ = -12						; size = 12
??1ioLuciferAirGrapWeapon@@UAE@XZ PROC			; ioLuciferAirGrapWeapon::~ioLuciferAirGrapWeapon, COMDAT
; _this$ = ecx

; 24   : {

  00000	6a 04		 push	 4
  00002	b8 00 00 00 00	 mov	 eax, __ehhandler$??1ioLuciferAirGrapWeapon@@UAE@XZ
  00007	e8 00 00 00 00	 call	 __EH_prolog3
  0000c	8b f1		 mov	 esi, ecx
  0000e	89 75 f0	 mov	 DWORD PTR _this$[ebp], esi
  00011	c7 06 00 00 00
	00		 mov	 DWORD PTR [esi], OFFSET ??_7ioLuciferAirGrapWeapon@@6B@

; 25   : }

  00017	8b 3d 00 00 00
	00		 mov	 edi, DWORD PTR __imp_??1ioOrientBox@@QAE@XZ
  0001d	8d 8e d8 08 00
	00		 lea	 ecx, DWORD PTR [esi+2264]
  00023	c7 45 fc 01 00
	00 00		 mov	 DWORD PTR __$EHRec$[ebp+8], 1
  0002a	ff d7		 call	 edi
  0002c	8d 8e 94 08 00
	00		 lea	 ecx, DWORD PTR [esi+2196]
  00032	c6 45 fc 00	 mov	 BYTE PTR __$EHRec$[ebp+8], 0
  00036	ff d7		 call	 edi
  00038	83 4d fc ff	 or	 DWORD PTR __$EHRec$[ebp+8], -1
  0003c	8b ce		 mov	 ecx, esi
  0003e	e8 00 00 00 00	 call	 ??1ioWeapon@@UAE@XZ	; ioWeapon::~ioWeapon
  00043	e8 00 00 00 00	 call	 __EH_epilog3
  00048	c3		 ret	 0
_TEXT	ENDS
;	COMDAT text$x
text$x	SEGMENT
__unwindfunclet$??1ioLuciferAirGrapWeapon@@UAE@XZ$0:
  00000	8b 4d f0	 mov	 ecx, DWORD PTR _this$[ebp]
  00003	e9 00 00 00 00	 jmp	 ??1ioWeapon@@UAE@XZ	; ioWeapon::~ioWeapon
__unwindfunclet$??1ioLuciferAirGrapWeapon@@UAE@XZ$1:
  00008	8b 4d f0	 mov	 ecx, DWORD PTR _this$[ebp]
  0000b	81 c1 94 08 00
	00		 add	 ecx, 2196		; 00000894H
  00011	ff 25 00 00 00
	00		 jmp	 DWORD PTR __imp_??1ioOrientBox@@QAE@XZ
__ehhandler$??1ioLuciferAirGrapWeapon@@UAE@XZ:
  00017	8b 54 24 08	 mov	 edx, DWORD PTR [esp+8]
  0001b	8d 42 0c	 lea	 eax, DWORD PTR [edx+12]
  0001e	8b 4a ec	 mov	 ecx, DWORD PTR [edx-20]
  00021	33 c8		 xor	 ecx, eax
  00023	e8 00 00 00 00	 call	 @__security_check_cookie@4
  00028	b8 00 00 00 00	 mov	 eax, OFFSET __ehfuncinfo$??1ioLuciferAirGrapWeapon@@UAE@XZ
  0002d	e9 00 00 00 00	 jmp	 ___CxxFrameHandler3
text$x	ENDS
??1ioLuciferAirGrapWeapon@@UAE@XZ ENDP			; ioLuciferAirGrapWeapon::~ioLuciferAirGrapWeapon
PUBLIC	??_C@_0CG@OCJNGLHJ@ioLuciferAirGrapWeapon?5?9?5?$CFs?5Not?5@ ; `string'
PUBLIC	__real@3f800000
PUBLIC	__$ArrayPad$
PUBLIC	?StartCollisionBoxByOwner@ioLuciferAirGrapWeapon@@IAEXXZ ; ioLuciferAirGrapWeapon::StartCollisionBoxByOwner
EXTRN	__imp_?PrintTimeAndLog@CLog@@QAAXHPADZZ:PROC
EXTRN	__imp_?LOG@@3VCLog@@A:BYTE
EXTRN	__imp_?c_str@ioHashString@@QBEPBDXZ:PROC
EXTRN	__imp_?SetNull@ioOrientBox@@QAEXXZ:PROC
EXTRN	?GetOwner@ioWeapon@@QBEPAVioBaseChar@@XZ:PROC	; ioWeapon::GetOwner
EXTRN	___security_cookie:DWORD
EXTRN	__fltused:DWORD
;	COMDAT ??_C@_0CG@OCJNGLHJ@ioLuciferAirGrapWeapon?5?9?5?$CFs?5Not?5@
CONST	SEGMENT
??_C@_0CG@OCJNGLHJ@ioLuciferAirGrapWeapon?5?9?5?$CFs?5Not?5@ DB 'ioLucife'
	DB	'rAirGrapWeapon - %s Not Exist', 00H		; `string'
CONST	ENDS
;	COMDAT __real@3f800000
CONST	SEGMENT
__real@3f800000 DD 03f800000r			; 1
; Function compile flags: /Ogsp
CONST	ENDS
;	COMDAT ?StartCollisionBoxByOwner@ioLuciferAirGrapWeapon@@IAEXXZ
_TEXT	SEGMENT
$T582938 = -72						; size = 68
__$ArrayPad$ = -4					; size = 4
?StartCollisionBoxByOwner@ioLuciferAirGrapWeapon@@IAEXXZ PROC ; ioLuciferAirGrapWeapon::StartCollisionBoxByOwner, COMDAT
; _this$ = ecx

; 67   : {

  00000	55		 push	 ebp
  00001	8b ec		 mov	 ebp, esp
  00003	83 ec 48	 sub	 esp, 72			; 00000048H
  00006	a1 00 00 00 00	 mov	 eax, DWORD PTR ___security_cookie
  0000b	33 c5		 xor	 eax, ebp
  0000d	89 45 fc	 mov	 DWORD PTR __$ArrayPad$[ebp], eax
  00010	53		 push	 ebx
  00011	8b d9		 mov	 ebx, ecx

; 68   : 	ioBaseChar *pOwner = GetOwner();

  00013	e8 00 00 00 00	 call	 ?GetOwner@ioWeapon@@QBEPAVioBaseChar@@XZ ; ioWeapon::GetOwner

; 69   : 	if( pOwner )

  00018	85 c0		 test	 eax, eax
  0001a	74 46		 je	 SHORT $LN2@StartColli

; 70   : 	{
; 71   : 		m_WorldAttackBox = pOwner->GetAttackCollisionBox( m_CollisionType, m_bDisableOwnerScale );

  0001c	f3 0f 10 05 00
	00 00 00	 movss	 xmm0, DWORD PTR __real@3f800000
  00024	8b 10		 mov	 edx, DWORD PTR [eax]
  00026	56		 push	 esi
  00027	57		 push	 edi
  00028	51		 push	 ecx
  00029	0f b6 8b 1e 09
	00 00		 movzx	 ecx, BYTE PTR [ebx+2334]
  00030	f3 0f 11 04 24	 movss	 DWORD PTR [esp], xmm0
  00035	51		 push	 ecx
  00036	ff b3 b0 04 00
	00		 push	 DWORD PTR [ebx+1200]
  0003c	8d 4d b8	 lea	 ecx, DWORD PTR $T582938[ebp]
  0003f	51		 push	 ecx
  00040	8b c8		 mov	 ecx, eax
  00042	ff 92 e0 00 00
	00		 call	 DWORD PTR [edx+224]
  00048	6a 11		 push	 17			; 00000011H
  0004a	59		 pop	 ecx
  0004b	8b f0		 mov	 esi, eax
  0004d	8d bb e8 04 00
	00		 lea	 edi, DWORD PTR [ebx+1256]
  00053	f3 a5		 rep movsd
  00055	8d 4d b8	 lea	 ecx, DWORD PTR $T582938[ebp]
  00058	ff 15 00 00 00
	00		 call	 DWORD PTR __imp_??1ioOrientBox@@QAE@XZ
  0005e	5f		 pop	 edi
  0005f	5e		 pop	 esi

; 72   : 	}
; 73   : 	else

  00060	eb 2c		 jmp	 SHORT $LN1@StartColli
$LN2@StartColli:

; 74   : 	{
; 75   : 		m_WorldAttackBox.SetNull();

  00062	8d 8b e8 04 00
	00		 lea	 ecx, DWORD PTR [ebx+1256]
  00068	ff 15 00 00 00
	00		 call	 DWORD PTR __imp_?SetNull@ioOrientBox@@QAEXXZ

; 76   : 		LOG.PrintTimeAndLog( 0, "ioLuciferAirGrapWeapon - %s Not Exist", m_OwnerName.c_str() );

  0006e	8d 4b 10	 lea	 ecx, DWORD PTR [ebx+16]
  00071	ff 15 00 00 00
	00		 call	 DWORD PTR __imp_?c_str@ioHashString@@QBEPBDXZ
  00077	50		 push	 eax
  00078	68 00 00 00 00	 push	 OFFSET ??_C@_0CG@OCJNGLHJ@ioLuciferAirGrapWeapon?5?9?5?$CFs?5Not?5@
  0007d	6a 00		 push	 0
  0007f	ff 35 00 00 00
	00		 push	 DWORD PTR __imp_?LOG@@3VCLog@@A
  00085	ff 15 00 00 00
	00		 call	 DWORD PTR __imp_?PrintTimeAndLog@CLog@@QAAXHPADZZ
  0008b	83 c4 10	 add	 esp, 16			; 00000010H
$LN1@StartColli:

; 77   : 	}
; 78   : 
; 79   : 	m_UpdateState = CONTACT_CREATED;
; 80   : }

  0008e	8b 4d fc	 mov	 ecx, DWORD PTR __$ArrayPad$[ebp]
  00091	83 a3 20 09 00
	00 00		 and	 DWORD PTR [ebx+2336], 0
  00098	33 cd		 xor	 ecx, ebp
  0009a	5b		 pop	 ebx
  0009b	e8 00 00 00 00	 call	 @__security_check_cookie@4
  000a0	c9		 leave
  000a1	c3		 ret	 0
?StartCollisionBoxByOwner@ioLuciferAirGrapWeapon@@IAEXXZ ENDP ; ioLuciferAirGrapWeapon::StartCollisionBoxByOwner
_TEXT	ENDS
PUBLIC	??_C@_0CK@CGOAAADA@ioLuciferAirGrapWeapon?5?9?5Struct?5@ ; `string'
PUBLIC	__$ArrayPad$
PUBLIC	?StartCollisionBoxByStruct@ioLuciferAirGrapWeapon@@IAEXXZ ; ioLuciferAirGrapWeapon::StartCollisionBoxByStruct
EXTRN	?FindPushStruct@ioPushStructListManager@@QAEPAVioPushStruct@@H@Z:PROC ; ioPushStructListManager::FindPushStruct
EXTRN	?GetSingleton@ioPushStructListManager@@SAAAV1@XZ:PROC ; ioPushStructListManager::GetSingleton
;	COMDAT ??_C@_0CK@CGOAAADA@ioLuciferAirGrapWeapon?5?9?5Struct?5@
CONST	SEGMENT
??_C@_0CK@CGOAAADA@ioLuciferAirGrapWeapon?5?9?5Struct?5@ DB 'ioLuciferAir'
	DB	'GrapWeapon - Struct Not Exist', 00H		; `string'
; Function compile flags: /Ogsp
CONST	ENDS
;	COMDAT ?StartCollisionBoxByStruct@ioLuciferAirGrapWeapon@@IAEXXZ
_TEXT	SEGMENT
$T582946 = -72						; size = 68
__$ArrayPad$ = -4					; size = 4
?StartCollisionBoxByStruct@ioLuciferAirGrapWeapon@@IAEXXZ PROC ; ioLuciferAirGrapWeapon::StartCollisionBoxByStruct, COMDAT
; _this$ = ecx

; 83   : {

  00000	55		 push	 ebp
  00001	8b ec		 mov	 ebp, esp
  00003	83 ec 48	 sub	 esp, 72			; 00000048H
  00006	a1 00 00 00 00	 mov	 eax, DWORD PTR ___security_cookie
  0000b	33 c5		 xor	 eax, ebp
  0000d	89 45 fc	 mov	 DWORD PTR __$ArrayPad$[ebp], eax
  00010	53		 push	 ebx
  00011	8b d9		 mov	 ebx, ecx

; 84   : 	ioPushStruct *pPush = g_PushStructListMgr.FindPushStruct( m_iStructIndex );

  00013	ff b3 88 05 00
	00		 push	 DWORD PTR [ebx+1416]
  00019	e8 00 00 00 00	 call	 ?GetSingleton@ioPushStructListManager@@SAAAV1@XZ ; ioPushStructListManager::GetSingleton
  0001e	8b c8		 mov	 ecx, eax
  00020	e8 00 00 00 00	 call	 ?FindPushStruct@ioPushStructListManager@@QAEPAVioPushStruct@@H@Z ; ioPushStructListManager::FindPushStruct

; 85   : 	if( pPush )

  00025	85 c0		 test	 eax, eax
  00027	74 32		 je	 SHORT $LN2@StartColli@2

; 86   : 	{
; 87   : 		m_WorldAttackBox = pPush->GetAttackCollisionBox( m_CollisionType );

  00029	8b 10		 mov	 edx, DWORD PTR [eax]
  0002b	56		 push	 esi
  0002c	57		 push	 edi
  0002d	6a 00		 push	 0
  0002f	ff b3 b0 04 00
	00		 push	 DWORD PTR [ebx+1200]
  00035	8d 4d b8	 lea	 ecx, DWORD PTR $T582946[ebp]
  00038	51		 push	 ecx
  00039	8b c8		 mov	 ecx, eax
  0003b	ff 92 94 00 00
	00		 call	 DWORD PTR [edx+148]
  00041	6a 11		 push	 17			; 00000011H
  00043	59		 pop	 ecx
  00044	8b f0		 mov	 esi, eax
  00046	8d bb e8 04 00
	00		 lea	 edi, DWORD PTR [ebx+1256]
  0004c	f3 a5		 rep movsd
  0004e	8d 4d b8	 lea	 ecx, DWORD PTR $T582946[ebp]
  00051	ff 15 00 00 00
	00		 call	 DWORD PTR __imp_??1ioOrientBox@@QAE@XZ
  00057	5f		 pop	 edi
  00058	5e		 pop	 esi

; 88   : 	}
; 89   : 	else

  00059	eb 22		 jmp	 SHORT $LN1@StartColli@2
$LN2@StartColli@2:

; 90   : 	{
; 91   : 		m_WorldAttackBox.SetNull();

  0005b	8d 8b e8 04 00
	00		 lea	 ecx, DWORD PTR [ebx+1256]
  00061	ff 15 00 00 00
	00		 call	 DWORD PTR __imp_?SetNull@ioOrientBox@@QAEXXZ

; 92   : 		LOG.PrintTimeAndLog( 0, "ioLuciferAirGrapWeapon - Struct Not Exist" );

  00067	68 00 00 00 00	 push	 OFFSET ??_C@_0CK@CGOAAADA@ioLuciferAirGrapWeapon?5?9?5Struct?5@
  0006c	6a 00		 push	 0
  0006e	ff 35 00 00 00
	00		 push	 DWORD PTR __imp_?LOG@@3VCLog@@A
  00074	ff 15 00 00 00
	00		 call	 DWORD PTR __imp_?PrintTimeAndLog@CLog@@QAAXHPADZZ
  0007a	83 c4 0c	 add	 esp, 12			; 0000000cH
$LN1@StartColli@2:

; 93   : 	}
; 94   : 
; 95   : 	m_UpdateState = CONTACT_CREATED;
; 96   : }

  0007d	8b 4d fc	 mov	 ecx, DWORD PTR __$ArrayPad$[ebp]
  00080	83 a3 20 09 00
	00 00		 and	 DWORD PTR [ebx+2336], 0
  00087	33 cd		 xor	 ecx, ebp
  00089	5b		 pop	 ebx
  0008a	e8 00 00 00 00	 call	 @__security_check_cookie@4
  0008f	c9		 leave
  00090	c3		 ret	 0
?StartCollisionBoxByStruct@ioLuciferAirGrapWeapon@@IAEXXZ ENDP ; ioLuciferAirGrapWeapon::StartCollisionBoxByStruct
_TEXT	ENDS
PUBLIC	??_C@_0CN@JAEEHJKB@ioLuciferAirGrapWeapon?5?9?5DummyCh@ ; `string'
PUBLIC	__$ArrayPad$
PUBLIC	?StartCollisionBoxByDummyChar@ioLuciferAirGrapWeapon@@IAEXXZ ; ioLuciferAirGrapWeapon::StartCollisionBoxByDummyChar
EXTRN	?FindDummyChar@ioDummyCharManager@@QAEPAVioDummyChar@@PAVioBaseChar@@H@Z:PROC ; ioDummyCharManager::FindDummyChar
EXTRN	?GetSingleton@ioDummyCharManager@@SAAAV1@XZ:PROC ; ioDummyCharManager::GetSingleton
;	COMDAT ??_C@_0CN@JAEEHJKB@ioLuciferAirGrapWeapon?5?9?5DummyCh@
CONST	SEGMENT
??_C@_0CN@JAEEHJKB@ioLuciferAirGrapWeapon?5?9?5DummyCh@ DB 'ioLuciferAirG'
	DB	'rapWeapon - DummyChar Not Exist', 00H	; `string'
; Function compile flags: /Ogsp
CONST	ENDS
;	COMDAT ?StartCollisionBoxByDummyChar@ioLuciferAirGrapWeapon@@IAEXXZ
_TEXT	SEGMENT
$T582954 = -72						; size = 68
__$ArrayPad$ = -4					; size = 4
?StartCollisionBoxByDummyChar@ioLuciferAirGrapWeapon@@IAEXXZ PROC ; ioLuciferAirGrapWeapon::StartCollisionBoxByDummyChar, COMDAT
; _this$ = ecx

; 99   : {

  00000	55		 push	 ebp
  00001	8b ec		 mov	 ebp, esp
  00003	83 ec 48	 sub	 esp, 72			; 00000048H
  00006	a1 00 00 00 00	 mov	 eax, DWORD PTR ___security_cookie
  0000b	33 c5		 xor	 eax, ebp
  0000d	89 45 fc	 mov	 DWORD PTR __$ArrayPad$[ebp], eax
  00010	53		 push	 ebx
  00011	8b d9		 mov	 ebx, ecx

; 100  : 	ioDummyChar *pDummy = g_DummyCharMgr.FindDummyChar( GetOwner(), m_iDummyIndex );

  00013	ff b3 98 05 00
	00		 push	 DWORD PTR [ebx+1432]
  00019	e8 00 00 00 00	 call	 ?GetOwner@ioWeapon@@QBEPAVioBaseChar@@XZ ; ioWeapon::GetOwner
  0001e	50		 push	 eax
  0001f	e8 00 00 00 00	 call	 ?GetSingleton@ioDummyCharManager@@SAAAV1@XZ ; ioDummyCharManager::GetSingleton
  00024	8b c8		 mov	 ecx, eax
  00026	e8 00 00 00 00	 call	 ?FindDummyChar@ioDummyCharManager@@QAEPAVioDummyChar@@PAVioBaseChar@@H@Z ; ioDummyCharManager::FindDummyChar

; 101  : 	if( pDummy )

  0002b	85 c0		 test	 eax, eax
  0002d	74 32		 je	 SHORT $LN2@StartColli@3

; 102  : 	{
; 103  : 		m_WorldAttackBox = pDummy->GetAttackCollisionBox( m_CollisionType );

  0002f	8b 10		 mov	 edx, DWORD PTR [eax]
  00031	56		 push	 esi
  00032	57		 push	 edi
  00033	6a 00		 push	 0
  00035	ff b3 b0 04 00
	00		 push	 DWORD PTR [ebx+1200]
  0003b	8d 4d b8	 lea	 ecx, DWORD PTR $T582954[ebp]
  0003e	51		 push	 ecx
  0003f	8b c8		 mov	 ecx, eax
  00041	ff 92 94 00 00
	00		 call	 DWORD PTR [edx+148]
  00047	6a 11		 push	 17			; 00000011H
  00049	59		 pop	 ecx
  0004a	8b f0		 mov	 esi, eax
  0004c	8d bb e8 04 00
	00		 lea	 edi, DWORD PTR [ebx+1256]
  00052	f3 a5		 rep movsd
  00054	8d 4d b8	 lea	 ecx, DWORD PTR $T582954[ebp]
  00057	ff 15 00 00 00
	00		 call	 DWORD PTR __imp_??1ioOrientBox@@QAE@XZ
  0005d	5f		 pop	 edi
  0005e	5e		 pop	 esi

; 104  : 	}
; 105  : 	else

  0005f	eb 22		 jmp	 SHORT $LN1@StartColli@3
$LN2@StartColli@3:

; 106  : 	{
; 107  : 		m_WorldAttackBox.SetNull();

  00061	8d 8b e8 04 00
	00		 lea	 ecx, DWORD PTR [ebx+1256]
  00067	ff 15 00 00 00
	00		 call	 DWORD PTR __imp_?SetNull@ioOrientBox@@QAEXXZ

; 108  : 		LOG.PrintTimeAndLog( 0, "ioLuciferAirGrapWeapon - DummyChar Not Exist" );

  0006d	68 00 00 00 00	 push	 OFFSET ??_C@_0CN@JAEEHJKB@ioLuciferAirGrapWeapon?5?9?5DummyCh@
  00072	6a 00		 push	 0
  00074	ff 35 00 00 00
	00		 push	 DWORD PTR __imp_?LOG@@3VCLog@@A
  0007a	ff 15 00 00 00
	00		 call	 DWORD PTR __imp_?PrintTimeAndLog@CLog@@QAAXHPADZZ
  00080	83 c4 0c	 add	 esp, 12			; 0000000cH
$LN1@StartColli@3:

; 109  : 	}
; 110  : 
; 111  : 	m_UpdateState = CONTACT_CREATED;
; 112  : }

  00083	8b 4d fc	 mov	 ecx, DWORD PTR __$ArrayPad$[ebp]
  00086	83 a3 20 09 00
	00 00		 and	 DWORD PTR [ebx+2336], 0
  0008d	33 cd		 xor	 ecx, ebp
  0008f	5b		 pop	 ebx
  00090	e8 00 00 00 00	 call	 @__security_check_cookie@4
  00095	c9		 leave
  00096	c3		 ret	 0
?StartCollisionBoxByDummyChar@ioLuciferAirGrapWeapon@@IAEXXZ ENDP ; ioLuciferAirGrapWeapon::StartCollisionBoxByDummyChar
; Function compile flags: /Ogsp
_TEXT	ENDS
;	COMDAT ?GetType@ioLuciferAirGrapWeapon@@UBE?AW4WeaponType@ioWeapon@@XZ
_TEXT	SEGMENT
?GetType@ioLuciferAirGrapWeapon@@UBE?AW4WeaponType@ioWeapon@@XZ PROC ; ioLuciferAirGrapWeapon::GetType, COMDAT
; _this$ = ecx

; 173  : 	return WT_LUCIFER_AIR_GRAP;

  00000	6a 4e		 push	 78			; 0000004eH
  00002	58		 pop	 eax

; 174  : }

  00003	c3		 ret	 0
?GetType@ioLuciferAirGrapWeapon@@UBE?AW4WeaponType@ioWeapon@@XZ ENDP ; ioLuciferAirGrapWeapon::GetType
; Function compile flags: /Ogsp
_TEXT	ENDS
;	COMDAT ?GetActionStopType@ioLuciferAirGrapWeapon@@UBE?AW4ActionStopType@@XZ
_TEXT	SEGMENT
?GetActionStopType@ioLuciferAirGrapWeapon@@UBE?AW4ActionStopType@@XZ PROC ; ioLuciferAirGrapWeapon::GetActionStopType, COMDAT
; _this$ = ecx

; 178  : 	return m_ActionStopType;

  00000	a1 00 00 00 00	 mov	 eax, DWORD PTR ?m_ActionStopType@ioLuciferAirGrapWeapon@@2W4ActionStopType@@A ; ioLuciferAirGrapWeapon::m_ActionStopType

; 179  : }

  00005	c3		 ret	 0
?GetActionStopType@ioLuciferAirGrapWeapon@@UBE?AW4ActionStopType@@XZ ENDP ; ioLuciferAirGrapWeapon::GetActionStopType
; Function compile flags: /Ogsp
_TEXT	ENDS
;	COMDAT ?GetDieActionStopType@ioLuciferAirGrapWeapon@@UBE?AW4ActionStopType@@XZ
_TEXT	SEGMENT
?GetDieActionStopType@ioLuciferAirGrapWeapon@@UBE?AW4ActionStopType@@XZ PROC ; ioLuciferAirGrapWeapon::GetDieActionStopType, COMDAT
; _this$ = ecx

; 183  : 	return m_DieActionStopType;

  00000	a1 00 00 00 00	 mov	 eax, DWORD PTR ?m_DieActionStopType@ioLuciferAirGrapWeapon@@2W4ActionStopType@@A ; ioLuciferAirGrapWeapon::m_DieActionStopType

; 184  : }

  00005	c3		 ret	 0
?GetDieActionStopType@ioLuciferAirGrapWeapon@@UBE?AW4ActionStopType@@XZ ENDP ; ioLuciferAirGrapWeapon::GetDieActionStopType
_TEXT	ENDS
PUBLIC	??_C@_0DL@FBBAJKHC@ioLuciferAirGrapWeapon?3?3Process?5@ ; `string'
EXTRN	__imp_?GetLoopSec@ioFrameTimer@@QBEKXZ:PROC
EXTRN	__imp_?GetSingleton@ioFrameTimer@@SAAAV1@XZ:PROC
;	COMDAT ??_C@_0DL@FBBAJKHC@ioLuciferAirGrapWeapon?3?3Process?5@
; File d:\lost saga for developer\youtube\tutorial\source\src\lsclient\iobasechar.h
CONST	SEGMENT
??_C@_0DL@FBBAJKHC@ioLuciferAirGrapWeapon?3?3Process?5@ DB 'ioLuciferAirG'
	DB	'rapWeapon::Process - Create Time Error(%d/%d)', 00H ; `string'
; Function compile flags: /Ogsp
; File d:\lost saga for developer\youtube\tutorial\source\src\lsclient\ioluciferairgrapweapon.cpp
CONST	ENDS
;	COMDAT ?Process@ioLuciferAirGrapWeapon@@UAEXMPAVioPlayStage@@@Z
_TEXT	SEGMENT
_fTimePerSec$ = 8					; size = 4
_pStage$ = 12						; size = 4
?Process@ioLuciferAirGrapWeapon@@UAEXMPAVioPlayStage@@@Z PROC ; ioLuciferAirGrapWeapon::Process, COMDAT
; _this$ = ecx

; 455  : {

  00000	55		 push	 ebp
  00001	8b ec		 mov	 ebp, esp
  00003	53		 push	 ebx
  00004	56		 push	 esi
  00005	8b f1		 mov	 esi, ecx

; 456  : 	DWORD dwCurTime = FRAMEGETTIME();

  00007	ff 15 00 00 00
	00		 call	 DWORD PTR __imp_?GetSingleton@ioFrameTimer@@SAAAV1@XZ
  0000d	8b c8		 mov	 ecx, eax
  0000f	ff 15 00 00 00
	00		 call	 DWORD PTR __imp_?GetLoopSec@ioFrameTimer@@QBEKXZ
  00015	8b d8		 mov	 ebx, eax

; 457  : 	if( m_dwCreatedTime > dwCurTime )

  00017	8b 86 d4 04 00
	00		 mov	 eax, DWORD PTR [esi+1236]
  0001d	3b c3		 cmp	 eax, ebx
  0001f	76 21		 jbe	 SHORT $LN5@Process

; 458  : 	{
; 459  : 		LOG.PrintTimeAndLog( 0, "ioLuciferAirGrapWeapon::Process - Create Time Error(%d/%d)", m_dwCreatedTime, dwCurTime );

  00021	53		 push	 ebx
  00022	50		 push	 eax
  00023	68 00 00 00 00	 push	 OFFSET ??_C@_0DL@FBBAJKHC@ioLuciferAirGrapWeapon?3?3Process?5@
  00028	6a 00		 push	 0
  0002a	ff 35 00 00 00
	00		 push	 DWORD PTR __imp_?LOG@@3VCLog@@A
  00030	ff 15 00 00 00
	00		 call	 DWORD PTR __imp_?PrintTimeAndLog@CLog@@QAAXHPADZZ

; 460  : 		SetWeaponDead();

  00036	8b 06		 mov	 eax, DWORD PTR [esi]
  00038	83 c4 14	 add	 esp, 20			; 00000014H
  0003b	8b ce		 mov	 ecx, esi
$LN11@Process:
  0003d	ff 50 4c	 call	 DWORD PTR [eax+76]

; 461  : 		return;

  00040	eb 64		 jmp	 SHORT $LN6@Process
$LN5@Process:

; 462  : 	}
; 463  : 
; 464  : 	if( m_bDeadWait )

  00042	80 be 1d 09 00
	00 00		 cmp	 BYTE PTR [esi+2333], 0

; 465  : 	{
; 466  : 		SetWeaponDead();

  00049	8b 06		 mov	 eax, DWORD PTR [esi]
  0004b	8b ce		 mov	 ecx, esi

; 467  : 		return;

  0004d	75 ee		 jne	 SHORT $LN11@Process

; 468  : 	}
; 469  : 
; 470  : 	if( !CheckPiercing() )

  0004f	57		 push	 edi
  00050	33 ff		 xor	 edi, edi
  00052	57		 push	 edi
  00053	ff 90 48 01 00
	00		 call	 DWORD PTR [eax+328]
  00059	84 c0		 test	 al, al
  0005b	74 48		 je	 SHORT $LN10@Process

; 471  : 		return;
; 472  : 
; 473  : 	DWORD dwLooseTime = 0;
; 474  : 	if( GetOwner() )

  0005d	8b ce		 mov	 ecx, esi
  0005f	e8 00 00 00 00	 call	 ?GetOwner@ioWeapon@@QBEPAVioBaseChar@@XZ ; ioWeapon::GetOwner
  00064	85 c0		 test	 eax, eax
  00066	74 0d		 je	 SHORT $LN8@Process

; 475  : 	{
; 476  : 		dwLooseTime = GetOwner()->GetActionStopCurAdd();

  00068	8b ce		 mov	 ecx, esi
  0006a	e8 00 00 00 00	 call	 ?GetOwner@ioWeapon@@QBEPAVioBaseChar@@XZ ; ioWeapon::GetOwner
  0006f	8b b8 b0 15 00
	00		 mov	 edi, DWORD PTR [eax+5552]
$LN8@Process:

; 477  : 	}
; 478  : 
; 479  : 	if( m_dwCreatedTime + m_dwLiveTime + dwLooseTime < dwCurTime )

  00075	8b 86 d8 04 00
	00		 mov	 eax, DWORD PTR [esi+1240]
  0007b	03 c7		 add	 eax, edi
  0007d	03 86 d4 04 00
	00		 add	 eax, DWORD PTR [esi+1236]
  00083	3b c3		 cmp	 eax, ebx
  00085	73 07		 jae	 SHORT $LN1@Process

; 480  : 	{
; 481  : 		m_bDeadWait = true;

  00087	c6 86 1d 09 00
	00 01		 mov	 BYTE PTR [esi+2333], 1
$LN1@Process:

; 482  : 	}
; 483  : 
; 484  : 	UpdateWorldAttackBox( fTimePerSec, false );

  0008e	f3 0f 10 45 08	 movss	 xmm0, DWORD PTR _fTimePerSec$[ebp]
  00093	8b 06		 mov	 eax, DWORD PTR [esi]
  00095	6a 00		 push	 0
  00097	51		 push	 ecx
  00098	8b ce		 mov	 ecx, esi
  0009a	f3 0f 11 04 24	 movss	 DWORD PTR [esp], xmm0
  0009f	ff 90 38 01 00
	00		 call	 DWORD PTR [eax+312]
$LN10@Process:
  000a5	5f		 pop	 edi
$LN6@Process:
  000a6	5e		 pop	 esi
  000a7	5b		 pop	 ebx

; 485  : }

  000a8	5d		 pop	 ebp
  000a9	c2 08 00	 ret	 8
?Process@ioLuciferAirGrapWeapon@@UAEXMPAVioPlayStage@@@Z ENDP ; ioLuciferAirGrapWeapon::Process
; Function compile flags: /Ogsp
_TEXT	ENDS
;	COMDAT ?SetLiveTime@ioLuciferAirGrapWeapon@@UAEXK@Z
_TEXT	SEGMENT
_dwTime$ = 8						; size = 4
?SetLiveTime@ioLuciferAirGrapWeapon@@UAEXK@Z PROC	; ioLuciferAirGrapWeapon::SetLiveTime, COMDAT
; _this$ = ecx

; 488  : {

  00000	55		 push	 ebp
  00001	8b ec		 mov	 ebp, esp

; 489  : 	if( m_dwLiveTime == 0 )

  00003	8d 81 d8 04 00
	00		 lea	 eax, DWORD PTR [ecx+1240]
  00009	83 38 00	 cmp	 DWORD PTR [eax], 0
  0000c	75 05		 jne	 SHORT $LN1@SetLiveTim

; 490  : 	{
; 491  : 		m_dwLiveTime = dwTime;

  0000e	8b 4d 08	 mov	 ecx, DWORD PTR _dwTime$[ebp]
  00011	89 08		 mov	 DWORD PTR [eax], ecx
$LN1@SetLiveTim:

; 492  : 	}
; 493  : }

  00013	5d		 pop	 ebp
  00014	c2 04 00	 ret	 4
?SetLiveTime@ioLuciferAirGrapWeapon@@UAEXK@Z ENDP	; ioLuciferAirGrapWeapon::SetLiveTime
_TEXT	ENDS
PUBLIC	??_C@_0CL@OGJEFDMI@ioLuciferAirGrapWeapon?5?9?5Machine@ ; `string'
PUBLIC	__$ArrayPad$
PUBLIC	?StartCollisionBoxByMachine@ioLuciferAirGrapWeapon@@IAEXXZ ; ioLuciferAirGrapWeapon::StartCollisionBoxByMachine
EXTRN	?FindMachineStruct@ioMachineStructMgr@@QAEPAVioMachineStruct@@H@Z:PROC ; ioMachineStructMgr::FindMachineStruct
EXTRN	?GetSingleton@ioMachineStructMgr@@SAAAV1@XZ:PROC ; ioMachineStructMgr::GetSingleton
;	COMDAT ??_C@_0CL@OGJEFDMI@ioLuciferAirGrapWeapon?5?9?5Machine@
CONST	SEGMENT
??_C@_0CL@OGJEFDMI@ioLuciferAirGrapWeapon?5?9?5Machine@ DB 'ioLuciferAirG'
	DB	'rapWeapon - Machine Not Exist', 00H		; `string'
; Function compile flags: /Ogsp
CONST	ENDS
;	COMDAT ?StartCollisionBoxByMachine@ioLuciferAirGrapWeapon@@IAEXXZ
_TEXT	SEGMENT
$T583508 = -72						; size = 68
__$ArrayPad$ = -4					; size = 4
?StartCollisionBoxByMachine@ioLuciferAirGrapWeapon@@IAEXXZ PROC ; ioLuciferAirGrapWeapon::StartCollisionBoxByMachine, COMDAT
; _this$ = ecx

; 496  : {

  00000	55		 push	 ebp
  00001	8b ec		 mov	 ebp, esp
  00003	83 ec 48	 sub	 esp, 72			; 00000048H
  00006	a1 00 00 00 00	 mov	 eax, DWORD PTR ___security_cookie
  0000b	33 c5		 xor	 eax, ebp
  0000d	89 45 fc	 mov	 DWORD PTR __$ArrayPad$[ebp], eax
  00010	53		 push	 ebx
  00011	8b d9		 mov	 ebx, ecx

; 497  : 	ioMachineStruct *pMachine = g_MachineStructMgr.FindMachineStruct( m_iMachineIndex );

  00013	ff b3 90 05 00
	00		 push	 DWORD PTR [ebx+1424]
  00019	e8 00 00 00 00	 call	 ?GetSingleton@ioMachineStructMgr@@SAAAV1@XZ ; ioMachineStructMgr::GetSingleton
  0001e	8b c8		 mov	 ecx, eax
  00020	e8 00 00 00 00	 call	 ?FindMachineStruct@ioMachineStructMgr@@QAEPAVioMachineStruct@@H@Z ; ioMachineStructMgr::FindMachineStruct

; 498  : 	if( pMachine )

  00025	85 c0		 test	 eax, eax
  00027	74 32		 je	 SHORT $LN2@StartColli@4

; 499  : 	{
; 500  : 		m_WorldAttackBox = pMachine->GetAttackCollisionBox( m_CollisionType );

  00029	8b 10		 mov	 edx, DWORD PTR [eax]
  0002b	56		 push	 esi
  0002c	57		 push	 edi
  0002d	6a 00		 push	 0
  0002f	ff b3 b0 04 00
	00		 push	 DWORD PTR [ebx+1200]
  00035	8d 4d b8	 lea	 ecx, DWORD PTR $T583508[ebp]
  00038	51		 push	 ecx
  00039	8b c8		 mov	 ecx, eax
  0003b	ff 92 94 00 00
	00		 call	 DWORD PTR [edx+148]
  00041	6a 11		 push	 17			; 00000011H
  00043	59		 pop	 ecx
  00044	8b f0		 mov	 esi, eax
  00046	8d bb e8 04 00
	00		 lea	 edi, DWORD PTR [ebx+1256]
  0004c	f3 a5		 rep movsd
  0004e	8d 4d b8	 lea	 ecx, DWORD PTR $T583508[ebp]
  00051	ff 15 00 00 00
	00		 call	 DWORD PTR __imp_??1ioOrientBox@@QAE@XZ
  00057	5f		 pop	 edi
  00058	5e		 pop	 esi

; 501  : 	}
; 502  : 	else

  00059	eb 22		 jmp	 SHORT $LN1@StartColli@4
$LN2@StartColli@4:

; 503  : 	{
; 504  : 		m_WorldAttackBox.SetNull();

  0005b	8d 8b e8 04 00
	00		 lea	 ecx, DWORD PTR [ebx+1256]
  00061	ff 15 00 00 00
	00		 call	 DWORD PTR __imp_?SetNull@ioOrientBox@@QAEXXZ

; 505  : 		LOG.PrintTimeAndLog( 0, "ioLuciferAirGrapWeapon - Machine Not Exist" );

  00067	68 00 00 00 00	 push	 OFFSET ??_C@_0CL@OGJEFDMI@ioLuciferAirGrapWeapon?5?9?5Machine@
  0006c	6a 00		 push	 0
  0006e	ff 35 00 00 00
	00		 push	 DWORD PTR __imp_?LOG@@3VCLog@@A
  00074	ff 15 00 00 00
	00		 call	 DWORD PTR __imp_?PrintTimeAndLog@CLog@@QAAXHPADZZ
  0007a	83 c4 0c	 add	 esp, 12			; 0000000cH
$LN1@StartColli@4:

; 506  : 	}
; 507  : 
; 508  : 	m_UpdateState = CONTACT_CREATED;
; 509  : }

  0007d	8b 4d fc	 mov	 ecx, DWORD PTR __$ArrayPad$[ebp]
  00080	83 a3 20 09 00
	00 00		 and	 DWORD PTR [ebx+2336], 0
  00087	33 cd		 xor	 ecx, ebp
  00089	5b		 pop	 ebx
  0008a	e8 00 00 00 00	 call	 @__security_check_cookie@4
  0008f	c9		 leave
  00090	c3		 ret	 0
?StartCollisionBoxByMachine@ioLuciferAirGrapWeapon@@IAEXXZ ENDP ; ioLuciferAirGrapWeapon::StartCollisionBoxByMachine
_TEXT	ENDS
PUBLIC	??0D3DXVECTOR3@@QAE@XZ				; D3DXVECTOR3::D3DXVECTOR3
; Function compile flags: /Ogsp
; File c:\program files (x86)\microsoft directx sdk (june 2010)\include\d3dx9math.h
;	COMDAT ??0D3DXVECTOR3@@QAE@XZ
_TEXT	SEGMENT
??0D3DXVECTOR3@@QAE@XZ PROC				; D3DXVECTOR3::D3DXVECTOR3, COMDAT
; _this$ = ecx

; 165  :     D3DXVECTOR3() {};

  00000	8b c1		 mov	 eax, ecx
  00002	c3		 ret	 0
??0D3DXVECTOR3@@QAE@XZ ENDP				; D3DXVECTOR3::D3DXVECTOR3
_TEXT	ENDS
PUBLIC	??0D3DXVECTOR3@@QAE@MMM@Z			; D3DXVECTOR3::D3DXVECTOR3
; Function compile flags: /Ogsp
; File c:\program files (x86)\microsoft directx sdk (june 2010)\include\d3dx9math.inl
;	COMDAT ??0D3DXVECTOR3@@QAE@MMM@Z
_TEXT	SEGMENT
_fx$ = 8						; size = 4
_fy$ = 12						; size = 4
_fz$ = 16						; size = 4
??0D3DXVECTOR3@@QAE@MMM@Z PROC				; D3DXVECTOR3::D3DXVECTOR3, COMDAT
; _this$ = ecx

; 303  : {

  00000	55		 push	 ebp
  00001	8b ec		 mov	 ebp, esp

; 304  :     x = fx;

  00003	f3 0f 10 45 08	 movss	 xmm0, DWORD PTR _fx$[ebp]
  00008	8b c1		 mov	 eax, ecx
  0000a	f3 0f 11 00	 movss	 DWORD PTR [eax], xmm0

; 305  :     y = fy;

  0000e	f3 0f 10 45 0c	 movss	 xmm0, DWORD PTR _fy$[ebp]
  00013	f3 0f 11 40 04	 movss	 DWORD PTR [eax+4], xmm0

; 306  :     z = fz;

  00018	f3 0f 10 45 10	 movss	 xmm0, DWORD PTR _fz$[ebp]
  0001d	f3 0f 11 40 08	 movss	 DWORD PTR [eax+8], xmm0

; 307  : }

  00022	5d		 pop	 ebp
  00023	c2 0c 00	 ret	 12			; 0000000cH
??0D3DXVECTOR3@@QAE@MMM@Z ENDP				; D3DXVECTOR3::D3DXVECTOR3
_TEXT	ENDS
PUBLIC	?capacity@?$vector@VioOrientBox@@V?$allocator@VioOrientBox@@@std@@@std@@QBEIXZ ; std::vector<ioOrientBox,std::allocator<ioOrientBox> >::capacity
; Function compile flags: /Ogsp
; File c:\program files (x86)\microsoft visual studio 10.0\vc\include\vector
;	COMDAT ?capacity@?$vector@VioOrientBox@@V?$allocator@VioOrientBox@@@std@@@std@@QBEIXZ
_TEXT	SEGMENT
?capacity@?$vector@VioOrientBox@@V?$allocator@VioOrientBox@@@std@@@std@@QBEIXZ PROC ; std::vector<ioOrientBox,std::allocator<ioOrientBox> >::capacity, COMDAT
; _this$ = ecx

; 777  : 		return (this->_Myend - this->_Myfirst);

  00000	8b 41 08	 mov	 eax, DWORD PTR [ecx+8]
  00003	2b 01		 sub	 eax, DWORD PTR [ecx]
  00005	6a 44		 push	 68			; 00000044H
  00007	99		 cdq
  00008	59		 pop	 ecx
  00009	f7 f9		 idiv	 ecx

; 778  : 		}

  0000b	c3		 ret	 0
?capacity@?$vector@VioOrientBox@@V?$allocator@VioOrientBox@@@std@@@std@@QBEIXZ ENDP ; std::vector<ioOrientBox,std::allocator<ioOrientBox> >::capacity
_TEXT	ENDS
PUBLIC	?size@?$vector@VioOrientBox@@V?$allocator@VioOrientBox@@@std@@@std@@QBEIXZ ; std::vector<ioOrientBox,std::allocator<ioOrientBox> >::size
; Function compile flags: /Ogsp
;	COMDAT ?size@?$vector@VioOrientBox@@V?$allocator@VioOrientBox@@@std@@@std@@QBEIXZ
_TEXT	SEGMENT
?size@?$vector@VioOrientBox@@V?$allocator@VioOrientBox@@@std@@@std@@QBEIXZ PROC ; std::vector<ioOrientBox,std::allocator<ioOrientBox> >::size, COMDAT
; _this$ = ecx

; 879  : 		return (this->_Mylast - this->_Myfirst);

  00000	8b 41 04	 mov	 eax, DWORD PTR [ecx+4]
  00003	2b 01		 sub	 eax, DWORD PTR [ecx]
  00005	6a 44		 push	 68			; 00000044H
  00007	99		 cdq
  00008	59		 pop	 ecx
  00009	f7 f9		 idiv	 ecx

; 880  : 		}

  0000b	c3		 ret	 0
?size@?$vector@VioOrientBox@@V?$allocator@VioOrientBox@@@std@@@std@@QBEIXZ ENDP ; std::vector<ioOrientBox,std::allocator<ioOrientBox> >::size
_TEXT	ENDS
PUBLIC	?_Inside@?$vector@VioOrientBox@@V?$allocator@VioOrientBox@@@std@@@std@@IBE_NPBVioOrientBox@@@Z ; std::vector<ioOrientBox,std::allocator<ioOrientBox> >::_Inside
; Function compile flags: /Ogsp
;	COMDAT ?_Inside@?$vector@VioOrientBox@@V?$allocator@VioOrientBox@@@std@@@std@@IBE_NPBVioOrientBox@@@Z
_TEXT	SEGMENT
__Ptr$ = 8						; size = 4
?_Inside@?$vector@VioOrientBox@@V?$allocator@VioOrientBox@@@std@@@std@@IBE_NPBVioOrientBox@@@Z PROC ; std::vector<ioOrientBox,std::allocator<ioOrientBox> >::_Inside, COMDAT
; _this$ = ecx

; 1285 : 		{	// test if _Ptr points inside vector

  00000	55		 push	 ebp
  00001	8b ec		 mov	 ebp, esp

; 1286 : 		return (_Ptr < this->_Mylast && this->_Myfirst <= _Ptr);

  00003	8b 45 08	 mov	 eax, DWORD PTR __Ptr$[ebp]
  00006	3b 41 04	 cmp	 eax, DWORD PTR [ecx+4]
  00009	73 09		 jae	 SHORT $LN3@Inside
  0000b	39 01		 cmp	 DWORD PTR [ecx], eax
  0000d	77 05		 ja	 SHORT $LN3@Inside
  0000f	33 c0		 xor	 eax, eax
  00011	40		 inc	 eax
  00012	eb 02		 jmp	 SHORT $LN4@Inside
$LN3@Inside:
  00014	33 c0		 xor	 eax, eax
$LN4@Inside:

; 1287 : 		}

  00016	5d		 pop	 ebp
  00017	c2 04 00	 ret	 4
?_Inside@?$vector@VioOrientBox@@V?$allocator@VioOrientBox@@@std@@@std@@IBE_NPBVioOrientBox@@@Z ENDP ; std::vector<ioOrientBox,std::allocator<ioOrientBox> >::_Inside
_TEXT	ENDS
PUBLIC	??_C@_0BD@OLBABOEK@vector?$DMT?$DO?5too?5long?$AA@ ; `string'
PUBLIC	?_Xlen@?$vector@VioOrientBox@@V?$allocator@VioOrientBox@@@std@@@std@@IBEXXZ ; std::vector<ioOrientBox,std::allocator<ioOrientBox> >::_Xlen
EXTRN	__imp_?_Xlength_error@std@@YAXPBD@Z:PROC
;	COMDAT ??_C@_0BD@OLBABOEK@vector?$DMT?$DO?5too?5long?$AA@
CONST	SEGMENT
??_C@_0BD@OLBABOEK@vector?$DMT?$DO?5too?5long?$AA@ DB 'vector<T> too long'
	DB	00H						; `string'
; Function compile flags: /Ogsp
CONST	ENDS
;	COMDAT ?_Xlen@?$vector@VioOrientBox@@V?$allocator@VioOrientBox@@@std@@@std@@IBEXXZ
_TEXT	SEGMENT
?_Xlen@?$vector@VioOrientBox@@V?$allocator@VioOrientBox@@@std@@@std@@IBEXXZ PROC ; std::vector<ioOrientBox,std::allocator<ioOrientBox> >::_Xlen, COMDAT
; _this$ = ecx

; 1427 : 		_Xlength_error("vector<T> too long");

  00000	68 00 00 00 00	 push	 OFFSET ??_C@_0BD@OLBABOEK@vector?$DMT?$DO?5too?5long?$AA@
  00005	ff 15 00 00 00
	00		 call	 DWORD PTR __imp_?_Xlength_error@std@@YAXPBD@Z
$LN4@Xlen:
$LN3@Xlen:
  0000b	cc		 int	 3
?_Xlen@?$vector@VioOrientBox@@V?$allocator@VioOrientBox@@@std@@@std@@IBEXXZ ENDP ; std::vector<ioOrientBox,std::allocator<ioOrientBox> >::_Xlen
_TEXT	ENDS
PUBLIC	?_Orphan_range@?$vector@VioOrientBox@@V?$allocator@VioOrientBox@@@std@@@std@@IBEXPAVioOrientBox@@0@Z ; std::vector<ioOrientBox,std::allocator<ioOrientBox> >::_Orphan_range
; Function compile flags: /Ogsp
;	COMDAT ?_Orphan_range@?$vector@VioOrientBox@@V?$allocator@VioOrientBox@@@std@@@std@@IBEXPAVioOrientBox@@0@Z
_TEXT	SEGMENT
___formal$ = 8						; size = 4
___formal$ = 12						; size = 4
?_Orphan_range@?$vector@VioOrientBox@@V?$allocator@VioOrientBox@@@std@@@std@@IBEXPAVioOrientBox@@0@Z PROC ; std::vector<ioOrientBox,std::allocator<ioOrientBox> >::_Orphan_range, COMDAT
; _this$ = ecx

; 1454 : 		}

  00000	c2 08 00	 ret	 8
?_Orphan_range@?$vector@VioOrientBox@@V?$allocator@VioOrientBox@@@std@@@std@@IBEXPAVioOrientBox@@0@Z ENDP ; std::vector<ioOrientBox,std::allocator<ioOrientBox> >::_Orphan_range
_TEXT	ENDS
PUBLIC	?deallocate@?$allocator@VioOrientBox@@@std@@QAEXPAVioOrientBox@@I@Z ; std::allocator<ioOrientBox>::deallocate
; Function compile flags: /Ogsp
; File c:\program files (x86)\microsoft visual studio 10.0\vc\include\xmemory
;	COMDAT ?deallocate@?$allocator@VioOrientBox@@@std@@QAEXPAVioOrientBox@@I@Z
_TEXT	SEGMENT
__Ptr$ = 8						; size = 4
___formal$ = 12						; size = 4
?deallocate@?$allocator@VioOrientBox@@@std@@QAEXPAVioOrientBox@@I@Z PROC ; std::allocator<ioOrientBox>::deallocate, COMDAT
; _this$ = ecx

; 181  : 		{	// deallocate object at _Ptr, ignore size

  00000	55		 push	 ebp
  00001	8b ec		 mov	 ebp, esp

; 182  : 		::operator delete(_Ptr);

  00003	ff 75 08	 push	 DWORD PTR __Ptr$[ebp]
  00006	e8 00 00 00 00	 call	 ??3@YAXPAX@Z		; operator delete
  0000b	59		 pop	 ecx

; 183  : 		}

  0000c	5d		 pop	 ebp
  0000d	c2 08 00	 ret	 8
?deallocate@?$allocator@VioOrientBox@@@std@@QAEXPAVioOrientBox@@I@Z ENDP ; std::allocator<ioOrientBox>::deallocate
_TEXT	ENDS
PUBLIC	?max_size@?$allocator@VioOrientBox@@@std@@QBEIXZ ; std::allocator<ioOrientBox>::max_size
; Function compile flags: /Ogsp
;	COMDAT ?max_size@?$allocator@VioOrientBox@@@std@@QBEIXZ
_TEXT	SEGMENT
?max_size@?$allocator@VioOrientBox@@@std@@QBEIXZ PROC	; std::allocator<ioOrientBox>::max_size, COMDAT
; _this$ = ecx

; 218  : 		_SIZT _Count = (_SIZT)(-1) / sizeof (_Ty);
; 219  : 		return (0 < _Count ? _Count : 1);

  00000	b8 c3 c3 c3 03	 mov	 eax, 63161283		; 03c3c3c3H

; 220  : 		}

  00005	c3		 ret	 0
?max_size@?$allocator@VioOrientBox@@@std@@QBEIXZ ENDP	; std::allocator<ioOrientBox>::max_size
_TEXT	ENDS
PUBLIC	??$addressof@$$CBVioOrientBox@@@std@@YAPBVioOrientBox@@ABV1@@Z ; std::addressof<ioOrientBox const >
; Function compile flags: /Ogsp
;	COMDAT ??$addressof@$$CBVioOrientBox@@@std@@YAPBVioOrientBox@@ABV1@@Z
_TEXT	SEGMENT
__Val$ = 8						; size = 4
??$addressof@$$CBVioOrientBox@@@std@@YAPBVioOrientBox@@ABV1@@Z PROC ; std::addressof<ioOrientBox const >, COMDAT

; 110  : 	{	// return address of _Val

  00000	55		 push	 ebp
  00001	8b ec		 mov	 ebp, esp

; 111  : 	return ((_Ty *) &(char&)_Val);

  00003	8b 45 08	 mov	 eax, DWORD PTR __Val$[ebp]

; 112  : 	}

  00006	5d		 pop	 ebp
  00007	c3		 ret	 0
??$addressof@$$CBVioOrientBox@@@std@@YAPBVioOrientBox@@ABV1@@Z ENDP ; std::addressof<ioOrientBox const >
_TEXT	ENDS
PUBLIC	__TI2?AVbad_alloc@std@@
PUBLIC	??$_Allocate@VioOrientBox@@@std@@YAPAVioOrientBox@@IPAV1@@Z ; std::_Allocate<ioOrientBox>
PUBLIC	__CTA2?AVbad_alloc@std@@
PUBLIC	__CT??_R0?AVbad_alloc@std@@@8??0bad_alloc@std@@QAE@ABV01@@Z12
PUBLIC	??0bad_alloc@std@@QAE@ABV01@@Z			; std::bad_alloc::bad_alloc
PUBLIC	__CT??_R0?AVexception@std@@@8??0exception@std@@QAE@ABV01@@Z12
EXTRN	??2@YAPAXI@Z:PROC				; operator new
EXTRN	__CxxThrowException@8:PROC
EXTRN	??0exception@std@@QAE@ABV01@@Z:PROC		; std::exception::exception
;	COMDAT __CT??_R0?AVexception@std@@@8??0exception@std@@QAE@ABV01@@Z12
; File c:\program files (x86)\microsoft visual studio 10.0\vc\include\exception
xdata$x	SEGMENT
__CT??_R0?AVexception@std@@@8??0exception@std@@QAE@ABV01@@Z12 DD 00H
	DD	FLAT:??_R0?AVexception@std@@@8
	DD	00H
	DD	0ffffffffH
	ORG $+4
	DD	0cH
	DD	FLAT:??0exception@std@@QAE@ABV01@@Z
xdata$x	ENDS
;	COMDAT __CT??_R0?AVbad_alloc@std@@@8??0bad_alloc@std@@QAE@ABV01@@Z12
xdata$x	SEGMENT
__CT??_R0?AVbad_alloc@std@@@8??0bad_alloc@std@@QAE@ABV01@@Z12 DD 00H
	DD	FLAT:??_R0?AVbad_alloc@std@@@8
	DD	00H
	DD	0ffffffffH
	ORG $+4
	DD	0cH
	DD	FLAT:??0bad_alloc@std@@QAE@ABV01@@Z
xdata$x	ENDS
;	COMDAT __CTA2?AVbad_alloc@std@@
xdata$x	SEGMENT
__CTA2?AVbad_alloc@std@@ DD 02H
	DD	FLAT:__CT??_R0?AVbad_alloc@std@@@8??0bad_alloc@std@@QAE@ABV01@@Z12
	DD	FLAT:__CT??_R0?AVexception@std@@@8??0exception@std@@QAE@ABV01@@Z12
xdata$x	ENDS
;	COMDAT __TI2?AVbad_alloc@std@@
xdata$x	SEGMENT
__TI2?AVbad_alloc@std@@ DD 00H
	DD	FLAT:??1bad_alloc@std@@UAE@XZ
	DD	00H
	DD	FLAT:__CTA2?AVbad_alloc@std@@
; Function compile flags: /Ogsp
; File c:\program files (x86)\microsoft visual studio 10.0\vc\include\xmemory
xdata$x	ENDS
;	COMDAT ??$_Allocate@VioOrientBox@@@std@@YAPAVioOrientBox@@IPAV1@@Z
_TEXT	SEGMENT
$T585447 = -12						; size = 12
$T585452 = 8						; size = 4
__Count$ = 8						; size = 4
___formal$ = 12						; size = 4
??$_Allocate@VioOrientBox@@@std@@YAPAVioOrientBox@@IPAV1@@Z PROC ; std::_Allocate<ioOrientBox>, COMDAT

; 30   : 	{	// allocate storage for _Count elements of type _Ty

  00000	55		 push	 ebp
  00001	8b ec		 mov	 ebp, esp

; 31   : 	void *_Ptr = 0;
; 32   : 
; 33   : 	if (_Count <= 0)

  00003	8b 4d 08	 mov	 ecx, DWORD PTR __Count$[ebp]
  00006	83 ec 0c	 sub	 esp, 12			; 0000000cH
  00009	33 c0		 xor	 eax, eax
  0000b	85 c9		 test	 ecx, ecx

; 34   : 		_Count = 0;
; 35   : 	else if (((_SIZT)(-1) / sizeof (_Ty) < _Count)

  0000d	74 3c		 je	 SHORT $LN5@Allocate

; 36   : 		|| (_Ptr = ::operator new(_Count * sizeof (_Ty))) == 0)

  0000f	81 f9 c3 c3 c3
	03		 cmp	 ecx, 63161283		; 03c3c3c3H
  00015	77 0e		 ja	 SHORT $LN1@Allocate
  00017	6b c9 44	 imul	 ecx, 68			; 00000044H
  0001a	51		 push	 ecx
  0001b	e8 00 00 00 00	 call	 ??2@YAPAXI@Z		; operator new
  00020	59		 pop	 ecx
  00021	85 c0		 test	 eax, eax

; 38   : 
; 39   : 	return ((_Ty _FARQ *)_Ptr);

  00023	75 26		 jne	 SHORT $LN5@Allocate
$LN1@Allocate:

; 37   : 		_THROW_NCEE(bad_alloc, 0);

  00025	83 65 08 00	 and	 DWORD PTR $T585452[ebp], 0
  00029	8d 45 08	 lea	 eax, DWORD PTR $T585452[ebp]
  0002c	50		 push	 eax
  0002d	8d 4d f4	 lea	 ecx, DWORD PTR $T585447[ebp]
  00030	ff 15 00 00 00
	00		 call	 DWORD PTR __imp_??0exception@std@@QAE@ABQBD@Z
  00036	68 00 00 00 00	 push	 OFFSET __TI2?AVbad_alloc@std@@
  0003b	8d 45 f4	 lea	 eax, DWORD PTR $T585447[ebp]
  0003e	50		 push	 eax
  0003f	c7 45 f4 00 00
	00 00		 mov	 DWORD PTR $T585447[ebp], OFFSET ??_7bad_alloc@std@@6B@
  00046	e8 00 00 00 00	 call	 __CxxThrowException@8
$LN10@Allocate:
$LN5@Allocate:

; 40   : 	}

  0004b	c9		 leave
  0004c	c3		 ret	 0
$LN9@Allocate:
??$_Allocate@VioOrientBox@@@std@@YAPAVioOrientBox@@IPAV1@@Z ENDP ; std::_Allocate<ioOrientBox>
_TEXT	ENDS
PUBLIC	??$forward@AAVioOrientBox@@@std@@YAAAVioOrientBox@@AAV1@@Z ; std::forward<ioOrientBox &>
; Function compile flags: /Ogsp
; File c:\program files (x86)\microsoft visual studio 10.0\vc\include\utility
;	COMDAT ??$forward@AAVioOrientBox@@@std@@YAAAVioOrientBox@@AAV1@@Z
_TEXT	SEGMENT
__Arg$ = 8						; size = 4
??$forward@AAVioOrientBox@@@std@@YAAAVioOrientBox@@AAV1@@Z PROC ; std::forward<ioOrientBox &>, COMDAT

; 78   : 	{	// forward _Arg, given explicitly specified type parameter

  00000	55		 push	 ebp
  00001	8b ec		 mov	 ebp, esp

; 79   : 	return ((_Ty&&)_Arg);

  00003	8b 45 08	 mov	 eax, DWORD PTR __Arg$[ebp]

; 80   : 	}

  00006	5d		 pop	 ebp
  00007	c3		 ret	 0
??$forward@AAVioOrientBox@@@std@@YAAAVioOrientBox@@AAV1@@Z ENDP ; std::forward<ioOrientBox &>
_TEXT	ENDS
PUBLIC	??$construct@AAVioOrientBox@@@?$allocator@VioOrientBox@@@std@@QAEXPAVioOrientBox@@AAV2@@Z ; std::allocator<ioOrientBox>::construct<ioOrientBox &>
; Function compile flags: /Ogsp
; File c:\program files (x86)\microsoft visual studio 10.0\vc\include\xmemory
;	COMDAT ??$construct@AAVioOrientBox@@@?$allocator@VioOrientBox@@@std@@QAEXPAVioOrientBox@@AAV2@@Z
_TEXT	SEGMENT
__Ptr$ = 8						; size = 4
__Val$ = 12						; size = 4
??$construct@AAVioOrientBox@@@?$allocator@VioOrientBox@@@std@@QAEXPAVioOrientBox@@AAV2@@Z PROC ; std::allocator<ioOrientBox>::construct<ioOrientBox &>, COMDAT
; _this$ = ecx

; 206  : 		void construct(pointer _Ptr, _Other&& _Val)

  00000	55		 push	 ebp
  00001	8b ec		 mov	 ebp, esp
  00003	57		 push	 edi

; 207  : 		{	// construct object at _Ptr with value _Val
; 208  : 		::new ((void _FARQ *)_Ptr) _Ty(_STD forward<_Other>(_Val));

  00004	8b 7d 08	 mov	 edi, DWORD PTR __Ptr$[ebp]
  00007	85 ff		 test	 edi, edi
  00009	74 0a		 je	 SHORT $LN3@construct
  0000b	56		 push	 esi
  0000c	8b 75 0c	 mov	 esi, DWORD PTR __Val$[ebp]
  0000f	6a 11		 push	 17			; 00000011H
  00011	59		 pop	 ecx
  00012	f3 a5		 rep movsd
  00014	5e		 pop	 esi
$LN3@construct:
  00015	5f		 pop	 edi

; 209  : 		}

  00016	5d		 pop	 ebp
  00017	c2 08 00	 ret	 8
??$construct@AAVioOrientBox@@@?$allocator@VioOrientBox@@@std@@QAEXPAVioOrientBox@@AAV2@@Z ENDP ; std::allocator<ioOrientBox>::construct<ioOrientBox &>
_TEXT	ENDS
PUBLIC	??$forward@ABVioOrientBox@@@std@@YAABVioOrientBox@@ABV1@@Z ; std::forward<ioOrientBox const &>
; Function compile flags: /Ogsp
; File c:\program files (x86)\microsoft visual studio 10.0\vc\include\utility
;	COMDAT ??$forward@ABVioOrientBox@@@std@@YAABVioOrientBox@@ABV1@@Z
_TEXT	SEGMENT
__Arg$ = 8						; size = 4
??$forward@ABVioOrientBox@@@std@@YAABVioOrientBox@@ABV1@@Z PROC ; std::forward<ioOrientBox const &>, COMDAT

; 78   : 	{	// forward _Arg, given explicitly specified type parameter

  00000	55		 push	 ebp
  00001	8b ec		 mov	 ebp, esp

; 79   : 	return ((_Ty&&)_Arg);

  00003	8b 45 08	 mov	 eax, DWORD PTR __Arg$[ebp]

; 80   : 	}

  00006	5d		 pop	 ebp
  00007	c3		 ret	 0
??$forward@ABVioOrientBox@@@std@@YAABVioOrientBox@@ABV1@@Z ENDP ; std::forward<ioOrientBox const &>
_TEXT	ENDS
PUBLIC	??$_Ptr_cat@VioOrientBox@@V1@@std@@YA?AU_Nonscalar_ptr_iterator_tag@0@PAVioOrientBox@@0@Z ; std::_Ptr_cat<ioOrientBox,ioOrientBox>
; Function compile flags: /Ogsp
; File c:\program files (x86)\microsoft visual studio 10.0\vc\include\xutility
;	COMDAT ??$_Ptr_cat@VioOrientBox@@V1@@std@@YA?AU_Nonscalar_ptr_iterator_tag@0@PAVioOrientBox@@0@Z
_TEXT	SEGMENT
__Cat$ = -1						; size = 1
___formal$ = 8						; size = 4
___formal$ = 12						; size = 4
??$_Ptr_cat@VioOrientBox@@V1@@std@@YA?AU_Nonscalar_ptr_iterator_tag@0@PAVioOrientBox@@0@Z PROC ; std::_Ptr_cat<ioOrientBox,ioOrientBox>, COMDAT

; 516  : 	{	// return pointer category from pointers

  00000	55		 push	 ebp
  00001	8b ec		 mov	 ebp, esp
  00003	51		 push	 ecx

; 517  : 	typename _Ptr_cat_helper<_Elem1, _Elem2>::_Type _Cat;
; 518  : 	return (_Cat);

  00004	8a 45 ff	 mov	 al, BYTE PTR __Cat$[ebp]

; 519  : 	}

  00007	c9		 leave
  00008	c3		 ret	 0
??$_Ptr_cat@VioOrientBox@@V1@@std@@YA?AU_Nonscalar_ptr_iterator_tag@0@PAVioOrientBox@@0@Z ENDP ; std::_Ptr_cat<ioOrientBox,ioOrientBox>
_TEXT	ENDS
PUBLIC	??$_Construct@VioOrientBox@@ABV1@@std@@YAXPAVioOrientBox@@ABV1@@Z ; std::_Construct<ioOrientBox,ioOrientBox const &>
; Function compile flags: /Ogsp
; File c:\program files (x86)\microsoft visual studio 10.0\vc\include\xmemory
;	COMDAT ??$_Construct@VioOrientBox@@ABV1@@std@@YAXPAVioOrientBox@@ABV1@@Z
_TEXT	SEGMENT
__Ptr$ = 8						; size = 4
__Val$ = 12						; size = 4
??$_Construct@VioOrientBox@@ABV1@@std@@YAXPAVioOrientBox@@ABV1@@Z PROC ; std::_Construct<ioOrientBox,ioOrientBox const &>, COMDAT

; 46   : 	{	// construct object at _Ptr with value _Val

  00000	55		 push	 ebp
  00001	8b ec		 mov	 ebp, esp
  00003	57		 push	 edi

; 47   : 	void _FARQ *_Vptr = _Ptr;
; 48   : 	::new (_Vptr) _Ty1(_STD forward<_Ty2>(_Val));

  00004	8b 7d 08	 mov	 edi, DWORD PTR __Ptr$[ebp]
  00007	85 ff		 test	 edi, edi
  00009	74 0a		 je	 SHORT $LN3@Construct
  0000b	56		 push	 esi
  0000c	8b 75 0c	 mov	 esi, DWORD PTR __Val$[ebp]
  0000f	6a 11		 push	 17			; 00000011H
  00011	59		 pop	 ecx
  00012	f3 a5		 rep movsd
  00014	5e		 pop	 esi
$LN3@Construct:
  00015	5f		 pop	 edi

; 49   : 	}

  00016	5d		 pop	 ebp
  00017	c3		 ret	 0
??$_Construct@VioOrientBox@@ABV1@@std@@YAXPAVioOrientBox@@ABV1@@Z ENDP ; std::_Construct<ioOrientBox,ioOrientBox const &>
_TEXT	ENDS
PUBLIC	??$_Val_type@PAVioOrientBox@@@std@@YAPAVioOrientBox@@PAV1@@Z ; std::_Val_type<ioOrientBox *>
; Function compile flags: /Ogsp
; File c:\program files (x86)\microsoft visual studio 10.0\vc\include\xutility
;	COMDAT ??$_Val_type@PAVioOrientBox@@@std@@YAPAVioOrientBox@@PAV1@@Z
_TEXT	SEGMENT
___formal$ = 8						; size = 4
??$_Val_type@PAVioOrientBox@@@std@@YAPAVioOrientBox@@PAV1@@Z PROC ; std::_Val_type<ioOrientBox *>, COMDAT

; 790  : 	return (0);

  00000	33 c0		 xor	 eax, eax

; 791  : 	}

  00002	c3		 ret	 0
??$_Val_type@PAVioOrientBox@@@std@@YAPAVioOrientBox@@PAV1@@Z ENDP ; std::_Val_type<ioOrientBox *>
_TEXT	ENDS
PUBLIC	??_GioOrientBox@@QAEPAXI@Z			; ioOrientBox::`scalar deleting destructor'
; Function compile flags: /Ogsp
;	COMDAT ??_GioOrientBox@@QAEPAXI@Z
_TEXT	SEGMENT
___flags$ = 8						; size = 4
??_GioOrientBox@@QAEPAXI@Z PROC				; ioOrientBox::`scalar deleting destructor', COMDAT
; _this$ = ecx
  00000	55		 push	 ebp
  00001	8b ec		 mov	 ebp, esp
  00003	56		 push	 esi
  00004	8b f1		 mov	 esi, ecx
  00006	ff 15 00 00 00
	00		 call	 DWORD PTR __imp_??1ioOrientBox@@QAE@XZ
  0000c	f6 45 08 01	 test	 BYTE PTR ___flags$[ebp], 1
  00010	74 07		 je	 SHORT $LN1@scalar@2
  00012	56		 push	 esi
  00013	e8 00 00 00 00	 call	 ??3@YAXPAX@Z		; operator delete
  00018	59		 pop	 ecx
$LN1@scalar@2:
  00019	8b c6		 mov	 eax, esi
  0001b	5e		 pop	 esi
  0001c	5d		 pop	 ebp
  0001d	c2 04 00	 ret	 4
??_GioOrientBox@@QAEPAXI@Z ENDP				; ioOrientBox::`scalar deleting destructor'
_TEXT	ENDS
PUBLIC	??$forward@VioOrientBox@@@std@@YA$$QAVioOrientBox@@AAV1@@Z ; std::forward<ioOrientBox>
; Function compile flags: /Ogsp
; File c:\program files (x86)\microsoft visual studio 10.0\vc\include\utility
;	COMDAT ??$forward@VioOrientBox@@@std@@YA$$QAVioOrientBox@@AAV1@@Z
_TEXT	SEGMENT
__Arg$ = 8						; size = 4
??$forward@VioOrientBox@@@std@@YA$$QAVioOrientBox@@AAV1@@Z PROC ; std::forward<ioOrientBox>, COMDAT

; 78   : 	{	// forward _Arg, given explicitly specified type parameter

  00000	55		 push	 ebp
  00001	8b ec		 mov	 ebp, esp

; 79   : 	return ((_Ty&&)_Arg);

  00003	8b 45 08	 mov	 eax, DWORD PTR __Arg$[ebp]

; 80   : 	}

  00006	5d		 pop	 ebp
  00007	c3		 ret	 0
??$forward@VioOrientBox@@@std@@YA$$QAVioOrientBox@@AAV1@@Z ENDP ; std::forward<ioOrientBox>
_TEXT	ENDS
PUBLIC	?D3DXVec3Lerp@@YAPAUD3DXVECTOR3@@PAU1@PBU1@1M@Z	; D3DXVec3Lerp
; Function compile flags: /Ogsp
; File c:\program files (x86)\microsoft directx sdk (june 2010)\include\d3dx9math.inl
;	COMDAT ?D3DXVec3Lerp@@YAPAUD3DXVECTOR3@@PAU1@PBU1@1M@Z
_TEXT	SEGMENT
_pOut$ = 8						; size = 4
_pV1$ = 12						; size = 4
_pV2$ = 16						; size = 4
_s$ = 20						; size = 4
?D3DXVec3Lerp@@YAPAUD3DXVECTOR3@@PAU1@PBU1@1M@Z PROC	; D3DXVec3Lerp, COMDAT

; 1836 : {

  00000	55		 push	 ebp
  00001	8b ec		 mov	 ebp, esp

; 1837 : #ifdef D3DX_DEBUG
; 1838 :     if(!pOut || !pV1 || !pV2)
; 1839 :         return NULL;
; 1840 : #endif
; 1841 : 
; 1842 :     pOut->x = pV1->x + s * (pV2->x - pV1->x);

  00003	8b 4d 0c	 mov	 ecx, DWORD PTR _pV1$[ebp]
  00006	f3 0f 10 01	 movss	 xmm0, DWORD PTR [ecx]
  0000a	8b 55 10	 mov	 edx, DWORD PTR _pV2$[ebp]
  0000d	f3 0f 10 0a	 movss	 xmm1, DWORD PTR [edx]
  00011	8b 45 08	 mov	 eax, DWORD PTR _pOut$[ebp]
  00014	0f 5a d0	 cvtps2pd xmm2, xmm0
  00017	0f 5a c9	 cvtps2pd xmm1, xmm1
  0001a	f2 0f 5c ca	 subsd	 xmm1, xmm2
  0001e	f3 0f 10 55 14	 movss	 xmm2, DWORD PTR _s$[ebp]
  00023	0f 5a c0	 cvtps2pd xmm0, xmm0
  00026	0f 5a d2	 cvtps2pd xmm2, xmm2
  00029	f2 0f 59 ca	 mulsd	 xmm1, xmm2
  0002d	f2 0f 58 c8	 addsd	 xmm1, xmm0
  00031	0f 57 c0	 xorps	 xmm0, xmm0
  00034	66 0f 5a c1	 cvtpd2ps xmm0, xmm1
  00038	f3 0f 11 00	 movss	 DWORD PTR [eax], xmm0

; 1843 :     pOut->y = pV1->y + s * (pV2->y - pV1->y);

  0003c	f3 0f 10 41 04	 movss	 xmm0, DWORD PTR [ecx+4]
  00041	f3 0f 10 4a 04	 movss	 xmm1, DWORD PTR [edx+4]
  00046	0f 5a d0	 cvtps2pd xmm2, xmm0
  00049	0f 5a c9	 cvtps2pd xmm1, xmm1
  0004c	f2 0f 5c ca	 subsd	 xmm1, xmm2
  00050	f3 0f 10 55 14	 movss	 xmm2, DWORD PTR _s$[ebp]
  00055	0f 5a c0	 cvtps2pd xmm0, xmm0
  00058	0f 5a d2	 cvtps2pd xmm2, xmm2
  0005b	f2 0f 59 ca	 mulsd	 xmm1, xmm2
  0005f	f2 0f 58 c8	 addsd	 xmm1, xmm0
  00063	0f 57 c0	 xorps	 xmm0, xmm0
  00066	66 0f 5a c1	 cvtpd2ps xmm0, xmm1
  0006a	f3 0f 11 40 04	 movss	 DWORD PTR [eax+4], xmm0

; 1844 :     pOut->z = pV1->z + s * (pV2->z - pV1->z);

  0006f	f3 0f 10 41 08	 movss	 xmm0, DWORD PTR [ecx+8]
  00074	f3 0f 10 4a 08	 movss	 xmm1, DWORD PTR [edx+8]
  00079	0f 5a d0	 cvtps2pd xmm2, xmm0
  0007c	0f 5a c9	 cvtps2pd xmm1, xmm1
  0007f	f2 0f 5c ca	 subsd	 xmm1, xmm2
  00083	f3 0f 10 55 14	 movss	 xmm2, DWORD PTR _s$[ebp]
  00088	0f 5a c0	 cvtps2pd xmm0, xmm0
  0008b	0f 5a d2	 cvtps2pd xmm2, xmm2
  0008e	f2 0f 59 ca	 mulsd	 xmm1, xmm2
  00092	f2 0f 58 c8	 addsd	 xmm1, xmm0
  00096	66 0f 5a c1	 cvtpd2ps xmm0, xmm1
  0009a	f3 0f 11 40 08	 movss	 DWORD PTR [eax+8], xmm0

; 1845 :     return pOut;
; 1846 : }

  0009f	5d		 pop	 ebp
  000a0	c3		 ret	 0
?D3DXVec3Lerp@@YAPAUD3DXVECTOR3@@PAU1@PBU1@1M@Z ENDP	; D3DXVec3Lerp
_TEXT	ENDS
PUBLIC	?_DECSTR@@YAXPADH@Z				; _DECSTR
; Function compile flags: /Ogsp
; File d:\lost saga for developer\youtube\tutorial\source\src\lsclient\stringprotect.h
;	COMDAT ?_DECSTR@@YAXPADH@Z
_TEXT	SEGMENT
_s$ = 8							; size = 4
_l$ = 12						; size = 4
?_DECSTR@@YAXPADH@Z PROC				; _DECSTR, COMDAT

; 40   : __forceinline void _DECSTR(char* s, int l){int i=0,l4=(l-1)/4,*p=(int*)s;s[l-1]=0;for(;i<l4;++i)*(p++)^=0xEAEBECED;for(i=l4*4;i<l-1;++i)s[i]^=0xED-i%4;}

  00000	55		 push	 ebp
  00001	8b ec		 mov	 ebp, esp
  00003	8b 4d 0c	 mov	 ecx, DWORD PTR _l$[ebp]
  00006	56		 push	 esi
  00007	8b 75 08	 mov	 esi, DWORD PTR _s$[ebp]
  0000a	57		 push	 edi
  0000b	8d 79 ff	 lea	 edi, DWORD PTR [ecx-1]
  0000e	8b c7		 mov	 eax, edi
  00010	99		 cdq
  00011	83 e2 03	 and	 edx, 3
  00014	03 c2		 add	 eax, edx
  00016	c1 f8 02	 sar	 eax, 2
  00019	8b d6		 mov	 edx, esi
  0001b	c6 44 0e ff 00	 mov	 BYTE PTR [esi+ecx-1], 0
  00020	85 c0		 test	 eax, eax
  00022	7e 0e		 jle	 SHORT $LN4@DECSTR
  00024	8b c8		 mov	 ecx, eax
$LL6@DECSTR:
  00026	81 32 ed ec eb
	ea		 xor	 DWORD PTR [edx], -353637139 ; eaebecedH
  0002c	83 c2 04	 add	 edx, 4
  0002f	49		 dec	 ecx
  00030	75 f4		 jne	 SHORT $LL6@DECSTR
$LN4@DECSTR:
  00032	c1 e0 02	 shl	 eax, 2
  00035	eb 17		 jmp	 SHORT $LN14@DECSTR
$LL3@DECSTR:
  00037	8b c8		 mov	 ecx, eax
  00039	81 e1 03 00 00
	80		 and	 ecx, -2147483645	; 80000003H
  0003f	79 05		 jns	 SHORT $LN13@DECSTR
  00041	49		 dec	 ecx
  00042	83 c9 fc	 or	 ecx, -4			; fffffffcH
  00045	41		 inc	 ecx
$LN13@DECSTR:
  00046	b2 ed		 mov	 dl, -19			; ffffffedH
  00048	2a d1		 sub	 dl, cl
  0004a	30 14 30	 xor	 BYTE PTR [eax+esi], dl
  0004d	40		 inc	 eax
$LN14@DECSTR:
  0004e	3b c7		 cmp	 eax, edi
  00050	7c e5		 jl	 SHORT $LL3@DECSTR
  00052	5f		 pop	 edi
  00053	5e		 pop	 esi
  00054	5d		 pop	 ebp
  00055	c3		 ret	 0
?_DECSTR@@YAXPADH@Z ENDP				; _DECSTR
_TEXT	ENDS
PUBLIC	??_R0?AVioGameEntity@@@8			; ioGameEntity `RTTI Type Descriptor'
PUBLIC	??_R0?AVioPlayEntity@@@8			; ioPlayEntity `RTTI Type Descriptor'
PUBLIC	?ToPlayEntity@@YAPAVioPlayEntity@@PAVioGameEntity@@@Z ; ToPlayEntity
EXTRN	___RTDynamicCast:PROC
;	COMDAT ??_R0?AVioGameEntity@@@8
; File d:\lost saga for developer\youtube\tutorial\source\src\lsclient\ioplayentity.h
_DATA	SEGMENT
??_R0?AVioGameEntity@@@8 DD FLAT:??_7type_info@@6B@	; ioGameEntity `RTTI Type Descriptor'
	DD	00H
	DB	'.?AVioGameEntity@@', 00H
_DATA	ENDS
;	COMDAT ??_R0?AVioPlayEntity@@@8
_DATA	SEGMENT
??_R0?AVioPlayEntity@@@8 DD FLAT:??_7type_info@@6B@	; ioPlayEntity `RTTI Type Descriptor'
	DD	00H
	DB	'.?AVioPlayEntity@@', 00H
; Function compile flags: /Ogsp
_DATA	ENDS
;	COMDAT ?ToPlayEntity@@YAPAVioPlayEntity@@PAVioGameEntity@@@Z
_TEXT	SEGMENT
_pObj$ = 8						; size = 4
?ToPlayEntity@@YAPAVioPlayEntity@@PAVioGameEntity@@@Z PROC ; ToPlayEntity, COMDAT

; 121  : {

  00000	55		 push	 ebp
  00001	8b ec		 mov	 ebp, esp
  00003	56		 push	 esi

; 122  : 	if( !pObj || pObj->GetTypeID() != ioGameEntity::GET_PLAY_ENTITY )

  00004	8b 75 08	 mov	 esi, DWORD PTR _pObj$[ebp]
  00007	85 f6		 test	 esi, esi
  00009	74 25		 je	 SHORT $LN1@ToPlayEnti
  0000b	8b 06		 mov	 eax, DWORD PTR [esi]
  0000d	8b ce		 mov	 ecx, esi
  0000f	ff 50 10	 call	 DWORD PTR [eax+16]
  00012	83 f8 01	 cmp	 eax, 1
  00015	75 19		 jne	 SHORT $LN1@ToPlayEnti

; 124  : 
; 125  : 	return dynamic_cast< ioPlayEntity* >( pObj );

  00017	6a 00		 push	 0
  00019	68 00 00 00 00	 push	 OFFSET ??_R0?AVioPlayEntity@@@8
  0001e	68 00 00 00 00	 push	 OFFSET ??_R0?AVioGameEntity@@@8
  00023	6a 00		 push	 0
  00025	56		 push	 esi
  00026	e8 00 00 00 00	 call	 ___RTDynamicCast
  0002b	83 c4 14	 add	 esp, 20			; 00000014H
  0002e	eb 02		 jmp	 SHORT $LN3@ToPlayEnti
$LN1@ToPlayEnti:

; 123  : 		return NULL;

  00030	33 c0		 xor	 eax, eax
$LN3@ToPlayEnti:
  00032	5e		 pop	 esi

; 126  : }

  00033	5d		 pop	 ebp
  00034	c3		 ret	 0
?ToPlayEntity@@YAPAVioPlayEntity@@PAVioGameEntity@@@Z ENDP ; ToPlayEntity
_TEXT	ENDS
PUBLIC	?IsLive@ioWeapon@@QBE_NXZ			; ioWeapon::IsLive
; Function compile flags: /Ogsp
; File d:\lost saga for developer\youtube\tutorial\source\src\lsclient\ioweapon.h
;	COMDAT ?IsLive@ioWeapon@@QBE_NXZ
_TEXT	SEGMENT
?IsLive@ioWeapon@@QBE_NXZ PROC				; ioWeapon::IsLive, COMDAT
; _this$ = ecx

; 533  : 	inline bool IsLive() const { return m_bLive; }

  00000	8a 81 82 05 00
	00		 mov	 al, BYTE PTR [ecx+1410]
  00006	c3		 ret	 0
?IsLive@ioWeapon@@QBE_NXZ ENDP				; ioWeapon::IsLive
_TEXT	ENDS
PUBLIC	?DecryptValueToPool@?$CEncrypt@M@@QAEXPAM@Z	; CEncrypt<float>::DecryptValueToPool
EXTRN	?DecryptByte@ccddaabb@@QBEXPBDPADH@Z:PROC	; ccddaabb::DecryptByte
; Function compile flags: /Ogsp
; File d:\lost saga for developer\youtube\tutorial\source\src\lsclient\encryptvalue.h
;	COMDAT ?DecryptValueToPool@?$CEncrypt@M@@QAEXPAM@Z
_TEXT	SEGMENT
_value$ = 8						; size = 4
?DecryptValueToPool@?$CEncrypt@M@@QAEXPAM@Z PROC	; CEncrypt<float>::DecryptValueToPool, COMDAT
; _this$ = ecx

; 1648 : 	{

  00000	55		 push	 ebp
  00001	8b ec		 mov	 ebp, esp
  00003	56		 push	 esi

; 1649 : 		m_RC5.DecryptByte( m_MemPool, m_TempMem, 4 );

  00004	8d 71 28	 lea	 esi, DWORD PTR [ecx+40]
  00007	6a 04		 push	 4
  00009	8d 41 1c	 lea	 eax, DWORD PTR [ecx+28]
  0000c	56		 push	 esi
  0000d	50		 push	 eax
  0000e	83 c1 0c	 add	 ecx, 12			; 0000000cH
  00011	e8 00 00 00 00	 call	 ?DecryptByte@ccddaabb@@QBEXPBDPADH@Z ; ccddaabb::DecryptByte

; 1650 : 		*value = *((float*)m_TempMem);

  00016	d9 06		 fld	 DWORD PTR [esi]
  00018	8b 45 08	 mov	 eax, DWORD PTR _value$[ebp]
  0001b	d9 18		 fstp	 DWORD PTR [eax]
  0001d	5e		 pop	 esi

; 1651 : 	}

  0001e	5d		 pop	 ebp
  0001f	c2 04 00	 ret	 4
?DecryptValueToPool@?$CEncrypt@M@@QAEXPAM@Z ENDP	; CEncrypt<float>::DecryptValueToPool
_TEXT	ENDS
EXTRN	__imp_??0exception@std@@QAE@ABV01@@Z:PROC
; Function compile flags: /Ogsp
;	COMDAT ??0bad_alloc@std@@QAE@ABV01@@Z
_TEXT	SEGMENT
___that$ = 8						; size = 4
??0bad_alloc@std@@QAE@ABV01@@Z PROC			; std::bad_alloc::bad_alloc, COMDAT
; _this$ = ecx
  00000	55		 push	 ebp
  00001	8b ec		 mov	 ebp, esp
  00003	56		 push	 esi
  00004	ff 75 08	 push	 DWORD PTR ___that$[ebp]
  00007	8b f1		 mov	 esi, ecx
  00009	ff 15 00 00 00
	00		 call	 DWORD PTR __imp_??0exception@std@@QAE@ABV01@@Z
  0000f	c7 06 00 00 00
	00		 mov	 DWORD PTR [esi], OFFSET ??_7bad_alloc@std@@6B@
  00015	8b c6		 mov	 eax, esi
  00017	5e		 pop	 esi
  00018	5d		 pop	 ebp
  00019	c2 04 00	 ret	 4
??0bad_alloc@std@@QAE@ABV01@@Z ENDP			; std::bad_alloc::bad_alloc
_TEXT	ENDS
PUBLIC	??_R0?AVioBaseChar@@@8				; ioBaseChar `RTTI Type Descriptor'
PUBLIC	?ToBaseChar@@YAPAVioBaseChar@@PAVioGameEntity@@@Z ; ToBaseChar
;	COMDAT ??_R0?AVioBaseChar@@@8
; File d:\lost saga for developer\youtube\tutorial\source\src\lsclient\iobasechar.h
_DATA	SEGMENT
??_R0?AVioBaseChar@@@8 DD FLAT:??_7type_info@@6B@	; ioBaseChar `RTTI Type Descriptor'
	DD	00H
	DB	'.?AVioBaseChar@@', 00H
; Function compile flags: /Ogsp
_DATA	ENDS
;	COMDAT ?ToBaseChar@@YAPAVioBaseChar@@PAVioGameEntity@@@Z
_TEXT	SEGMENT
_pObj$ = 8						; size = 4
?ToBaseChar@@YAPAVioBaseChar@@PAVioGameEntity@@@Z PROC	; ToBaseChar, COMDAT

; 4326 : {

  00000	55		 push	 ebp
  00001	8b ec		 mov	 ebp, esp
  00003	56		 push	 esi

; 4327 : 	ioPlayEntity *pPlay = ToPlayEntity( pObj );

  00004	ff 75 08	 push	 DWORD PTR _pObj$[ebp]
  00007	e8 00 00 00 00	 call	 ?ToPlayEntity@@YAPAVioPlayEntity@@PAVioGameEntity@@@Z ; ToPlayEntity
  0000c	8b f0		 mov	 esi, eax
  0000e	59		 pop	 ecx

; 4328 : 	if( !pPlay || pPlay->GetSubType() != ioPlayEntity::PST_CHAR )

  0000f	85 f6		 test	 esi, esi
  00011	74 25		 je	 SHORT $LN1@ToBaseChar
  00013	8b 06		 mov	 eax, DWORD PTR [esi]
  00015	8b ce		 mov	 ecx, esi
  00017	ff 90 a4 00 00
	00		 call	 DWORD PTR [eax+164]
  0001d	85 c0		 test	 eax, eax
  0001f	75 17		 jne	 SHORT $LN1@ToBaseChar

; 4330 : 
; 4331 : 	return dynamic_cast< ioBaseChar* >( pPlay );

  00021	50		 push	 eax
  00022	68 00 00 00 00	 push	 OFFSET ??_R0?AVioBaseChar@@@8
  00027	68 00 00 00 00	 push	 OFFSET ??_R0?AVioPlayEntity@@@8
  0002c	50		 push	 eax
  0002d	56		 push	 esi
  0002e	e8 00 00 00 00	 call	 ___RTDynamicCast
  00033	83 c4 14	 add	 esp, 20			; 00000014H
  00036	eb 02		 jmp	 SHORT $LN3@ToBaseChar
$LN1@ToBaseChar:

; 4329 : 		return NULL;

  00038	33 c0		 xor	 eax, eax
$LN3@ToBaseChar:
  0003a	5e		 pop	 esi

; 4332 : }

  0003b	5d		 pop	 ebp
  0003c	c3		 ret	 0
?ToBaseChar@@YAPAVioBaseChar@@PAVioGameEntity@@@Z ENDP	; ToBaseChar
; Function compile flags: /Ogsp
_TEXT	ENDS
;	COMDAT ??_GioLuciferAirGrapWeapon@@UAEPAXI@Z
_TEXT	SEGMENT
___flags$ = 8						; size = 4
??_GioLuciferAirGrapWeapon@@UAEPAXI@Z PROC		; ioLuciferAirGrapWeapon::`scalar deleting destructor', COMDAT
; _this$ = ecx
  00000	55		 push	 ebp
  00001	8b ec		 mov	 ebp, esp
  00003	56		 push	 esi
  00004	8b f1		 mov	 esi, ecx
  00006	e8 00 00 00 00	 call	 ??1ioLuciferAirGrapWeapon@@UAE@XZ ; ioLuciferAirGrapWeapon::~ioLuciferAirGrapWeapon
  0000b	f6 45 08 01	 test	 BYTE PTR ___flags$[ebp], 1
  0000f	74 07		 je	 SHORT $LN1@scalar@3
  00011	56		 push	 esi
  00012	e8 00 00 00 00	 call	 ??3@YAXPAX@Z		; operator delete
  00017	59		 pop	 ecx
$LN1@scalar@3:
  00018	8b c6		 mov	 eax, esi
  0001a	5e		 pop	 esi
  0001b	5d		 pop	 ebp
  0001c	c2 04 00	 ret	 4
??_GioLuciferAirGrapWeapon@@UAEPAXI@Z ENDP		; ioLuciferAirGrapWeapon::`scalar deleting destructor'
; Function compile flags: /Ogsp
; File d:\lost saga for developer\youtube\tutorial\source\src\lsclient\ioluciferairgrapweapon.cpp
_TEXT	ENDS
;	COMDAT ?SetStartCollisionBox@ioLuciferAirGrapWeapon@@UAEXXZ
_TEXT	SEGMENT
?SetStartCollisionBox@ioLuciferAirGrapWeapon@@UAEXXZ PROC ; ioLuciferAirGrapWeapon::SetStartCollisionBox, COMDAT
; _this$ = ecx

; 37   : {

  00000	56		 push	 esi
  00001	8b f1		 mov	 esi, ecx

; 38   : 	ioPushStruct *pPush = g_PushStructListMgr.FindPushStruct( m_iStructIndex );

  00003	ff b6 88 05 00
	00		 push	 DWORD PTR [esi+1416]
  00009	e8 00 00 00 00	 call	 ?GetSingleton@ioPushStructListManager@@SAAAV1@XZ ; ioPushStructListManager::GetSingleton
  0000e	8b c8		 mov	 ecx, eax
  00010	e8 00 00 00 00	 call	 ?FindPushStruct@ioPushStructListManager@@QAEPAVioPushStruct@@H@Z ; ioPushStructListManager::FindPushStruct

; 39   : 	if( pPush )

  00015	85 c0		 test	 eax, eax
  00017	74 07		 je	 SHORT $LN9@SetStartCo

; 40   : 	{
; 41   : 		m_bStructWeapon = true;

  00019	c6 86 8c 05 00
	00 01		 mov	 BYTE PTR [esi+1420], 1
$LN9@SetStartCo:

; 42   : 	}
; 43   : 
; 44   : 	ioDummyChar *pDummy = g_DummyCharMgr.FindDummyChar( GetOwner(), m_iDummyIndex );

  00020	ff b6 98 05 00
	00		 push	 DWORD PTR [esi+1432]
  00026	8b ce		 mov	 ecx, esi
  00028	e8 00 00 00 00	 call	 ?GetOwner@ioWeapon@@QBEPAVioBaseChar@@XZ ; ioWeapon::GetOwner
  0002d	50		 push	 eax
  0002e	e8 00 00 00 00	 call	 ?GetSingleton@ioDummyCharManager@@SAAAV1@XZ ; ioDummyCharManager::GetSingleton
  00033	8b c8		 mov	 ecx, eax
  00035	e8 00 00 00 00	 call	 ?FindDummyChar@ioDummyCharManager@@QAEPAVioDummyChar@@PAVioBaseChar@@H@Z ; ioDummyCharManager::FindDummyChar

; 45   : 	if( pDummy )

  0003a	85 c0		 test	 eax, eax
  0003c	74 07		 je	 SHORT $LN8@SetStartCo

; 46   : 	{
; 47   : 		m_bDummyCharWeapon = true;

  0003e	c6 86 9c 05 00
	00 01		 mov	 BYTE PTR [esi+1436], 1
$LN8@SetStartCo:

; 48   : 	}
; 49   : 
; 50   : 	ioMachineStruct *pMachine = g_MachineStructMgr.FindMachineStruct( m_iMachineIndex );

  00045	ff b6 90 05 00
	00		 push	 DWORD PTR [esi+1424]
  0004b	e8 00 00 00 00	 call	 ?GetSingleton@ioMachineStructMgr@@SAAAV1@XZ ; ioMachineStructMgr::GetSingleton
  00050	8b c8		 mov	 ecx, eax
  00052	e8 00 00 00 00	 call	 ?FindMachineStruct@ioMachineStructMgr@@QAEPAVioMachineStruct@@H@Z ; ioMachineStructMgr::FindMachineStruct

; 51   : 	if( pMachine )

  00057	85 c0		 test	 eax, eax
  00059	74 07		 je	 SHORT $LN7@SetStartCo

; 52   : 	{
; 53   : 		m_bMachineWeapon = true;

  0005b	c6 86 94 05 00
	00 01		 mov	 BYTE PTR [esi+1428], 1
$LN7@SetStartCo:

; 54   : 	}
; 55   : 
; 56   : 	if( m_bStructWeapon )

  00062	32 c0		 xor	 al, al

; 57   : 		StartCollisionBoxByStruct();

  00064	8b ce		 mov	 ecx, esi
  00066	38 86 8c 05 00
	00		 cmp	 BYTE PTR [esi+1420], al
  0006c	74 06		 je	 SHORT $LN6@SetStartCo
  0006e	5e		 pop	 esi
  0006f	e9 00 00 00 00	 jmp	 ?StartCollisionBoxByStruct@ioLuciferAirGrapWeapon@@IAEXXZ ; ioLuciferAirGrapWeapon::StartCollisionBoxByStruct
$LN6@SetStartCo:

; 58   : 	else if( m_bDummyCharWeapon )

  00074	38 86 9c 05 00
	00		 cmp	 BYTE PTR [esi+1436], al
  0007a	74 06		 je	 SHORT $LN4@SetStartCo
  0007c	5e		 pop	 esi

; 59   : 		StartCollisionBoxByDummyChar();

  0007d	e9 00 00 00 00	 jmp	 ?StartCollisionBoxByDummyChar@ioLuciferAirGrapWeapon@@IAEXXZ ; ioLuciferAirGrapWeapon::StartCollisionBoxByDummyChar
$LN4@SetStartCo:

; 60   : 	else if( m_bMachineWeapon )

  00082	38 86 94 05 00
	00		 cmp	 BYTE PTR [esi+1428], al
  00088	5e		 pop	 esi
  00089	74 05		 je	 SHORT $LN2@SetStartCo

; 61   : 		StartCollisionBoxByMachine();

  0008b	e9 00 00 00 00	 jmp	 ?StartCollisionBoxByMachine@ioLuciferAirGrapWeapon@@IAEXXZ ; ioLuciferAirGrapWeapon::StartCollisionBoxByMachine
$LN2@SetStartCo:

; 62   : 	else
; 63   : 		StartCollisionBoxByOwner();

  00090	e9 00 00 00 00	 jmp	 ?StartCollisionBoxByOwner@ioLuciferAirGrapWeapon@@IAEXXZ ; ioLuciferAirGrapWeapon::StartCollisionBoxByOwner
?SetStartCollisionBox@ioLuciferAirGrapWeapon@@UAEXXZ ENDP ; ioLuciferAirGrapWeapon::SetStartCollisionBox
_TEXT	ENDS
PUBLIC	?CheckCollisionLine@ioLuciferAirGrapWeapon@@IAE_NPAVioPlayEntity@@ABUD3DXVECTOR3@@@Z ; ioLuciferAirGrapWeapon::CheckCollisionLine
EXTRN	?CheckCollisionLine@ioBaseChar@@QAE_NABUD3DXVECTOR3@@_N@Z:PROC ; ioBaseChar::CheckCollisionLine
EXTRN	?GetPiercingType@ioWeapon@@QBE?AW4CharPiercingType@@XZ:PROC ; ioWeapon::GetPiercingType
; Function compile flags: /Ogsp
;	COMDAT ?CheckCollisionLine@ioLuciferAirGrapWeapon@@IAE_NPAVioPlayEntity@@ABUD3DXVECTOR3@@@Z
_TEXT	SEGMENT
_pTarget$ = 8						; size = 4
_vColPoint$ = 12					; size = 4
?CheckCollisionLine@ioLuciferAirGrapWeapon@@IAE_NPAVioPlayEntity@@ABUD3DXVECTOR3@@@Z PROC ; ioLuciferAirGrapWeapon::CheckCollisionLine, COMDAT
; _this$ = ecx

; 156  : {

  00000	55		 push	 ebp
  00001	8b ec		 mov	 ebp, esp
  00003	56		 push	 esi
  00004	8b f1		 mov	 esi, ecx

; 157  : 	if( GetPiercingType() == CPT_ALL || GetPiercingType() == CPT_ALL_LIMITE )

  00006	e8 00 00 00 00	 call	 ?GetPiercingType@ioWeapon@@QBE?AW4CharPiercingType@@XZ ; ioWeapon::GetPiercingType
  0000b	83 f8 03	 cmp	 eax, 3
  0000e	74 36		 je	 SHORT $LN3@CheckColli
  00010	8b ce		 mov	 ecx, esi
  00012	e8 00 00 00 00	 call	 ?GetPiercingType@ioWeapon@@QBE?AW4CharPiercingType@@XZ ; ioWeapon::GetPiercingType
  00017	83 f8 04	 cmp	 eax, 4
  0001a	74 2a		 je	 SHORT $LN3@CheckColli

; 159  : 
; 160  : 	//     
; 161  : 	ioBaseChar *pTargetChar = ToBaseChar( pTarget );

  0001c	ff 75 08	 push	 DWORD PTR _pTarget$[ebp]
  0001f	e8 00 00 00 00	 call	 ?ToBaseChar@@YAPAVioBaseChar@@PAVioGameEntity@@@Z ; ToBaseChar
  00024	59		 pop	 ecx

; 162  : 	if( !pTargetChar )	return true;

  00025	85 c0		 test	 eax, eax
  00027	74 1d		 je	 SHORT $LN3@CheckColli

; 163  : 
; 164  : 	ioBaseChar *pOwner = GetOwner();

  00029	8b ce		 mov	 ecx, esi
  0002b	e8 00 00 00 00	 call	 ?GetOwner@ioWeapon@@QBEPAVioBaseChar@@XZ ; ioWeapon::GetOwner

; 165  : 	if( pOwner )

  00030	85 c0		 test	 eax, eax
  00032	74 0e		 je	 SHORT $LN1@CheckColli

; 166  : 		return pOwner->CheckCollisionLine( vColPoint );

  00034	6a 01		 push	 1
  00036	ff 75 0c	 push	 DWORD PTR _vColPoint$[ebp]
  00039	8b c8		 mov	 ecx, eax
  0003b	e8 00 00 00 00	 call	 ?CheckCollisionLine@ioBaseChar@@QAE_NABUD3DXVECTOR3@@_N@Z ; ioBaseChar::CheckCollisionLine
  00040	eb 06		 jmp	 SHORT $LN5@CheckColli
$LN1@CheckColli:

; 167  : 
; 168  : 	return false;	//     

  00042	32 c0		 xor	 al, al
  00044	eb 02		 jmp	 SHORT $LN5@CheckColli
$LN3@CheckColli:

; 158  : 		return true;

  00046	b0 01		 mov	 al, 1
$LN5@CheckColli:
  00048	5e		 pop	 esi

; 169  : }

  00049	5d		 pop	 ebp
  0004a	c2 08 00	 ret	 8
?CheckCollisionLine@ioLuciferAirGrapWeapon@@IAE_NPAVioPlayEntity@@ABUD3DXVECTOR3@@@Z ENDP ; ioLuciferAirGrapWeapon::CheckCollisionLine
_TEXT	ENDS
PUBLIC	__real@4000000000000000
PUBLIC	__real@4f800000
PUBLIC	?UpdateAttackBoxByStruct@ioLuciferAirGrapWeapon@@IAEXM_N@Z ; ioLuciferAirGrapWeapon::UpdateAttackBoxByStruct
EXTRN	__imp_?SetExtents@ioOrientBox@@QAEXHM@Z:PROC
EXTRN	__imp_?GetExtents@ioOrientBox@@QBEMH@Z:PROC
EXTRN	__imp_?SetCenter@ioOrientBox@@QAEXABUD3DXVECTOR3@@@Z:PROC
EXTRN	__imp_?GetCenter@ioOrientBox@@QBEABUD3DXVECTOR3@@XZ:PROC
EXTRN	__imp_?SetAxis@ioOrientBox@@QAEXHABUD3DXVECTOR3@@@Z:PROC
EXTRN	_D3DXVec3Normalize@8:PROC
EXTRN	__imp_?GetAxis@ioOrientBox@@QBEABUD3DXVECTOR3@@H@Z:PROC
EXTRN	__EH_epilog3_GS:PROC
EXTRN	__EH_prolog3_GS:PROC
EXTRN	__ftol2:PROC
;	COMDAT __real@4000000000000000
; File c:\program files (x86)\microsoft directx sdk (june 2010)\include\d3dx9math.inl
CONST	SEGMENT
__real@4000000000000000 DQ 04000000000000000r	; 2
CONST	ENDS
;	COMDAT __real@4f800000
CONST	SEGMENT
__real@4f800000 DD 04f800000r			; 4.29497e+009
CONST	ENDS
;	COMDAT xdata$x
xdata$x	SEGMENT
__unwindtable$?UpdateAttackBoxByStruct@ioLuciferAirGrapWeapon@@IAEXM_N@Z DD 0ffffffffH
	DD	FLAT:__unwindfunclet$?UpdateAttackBoxByStruct@ioLuciferAirGrapWeapon@@IAEXM_N@Z$1
__ehfuncinfo$?UpdateAttackBoxByStruct@ioLuciferAirGrapWeapon@@IAEXM_N@Z DD 019930522H
	DD	01H
	DD	FLAT:__unwindtable$?UpdateAttackBoxByStruct@ioLuciferAirGrapWeapon@@IAEXM_N@Z
	DD	2 DUP(00H)
	DD	2 DUP(00H)
	DD	00H
	DD	01H
; Function compile flags: /Ogsp
; File d:\lost saga for developer\youtube\tutorial\source\src\lsclient\ioluciferairgrapweapon.cpp
xdata$x	ENDS
;	COMDAT ?UpdateAttackBoxByStruct@ioLuciferAirGrapWeapon@@IAEXM_N@Z
_TEXT	SEGMENT
_pPush$ = -184						; size = 4
tv1125 = -180						; size = 4
tv1112 = -180						; size = 4
tv1001 = -180						; size = 4
tv962 = -180						; size = 4
_fEndGap$ = -180					; size = 4
_fPreTime$ = -180					; size = 4
tv1108 = -176						; size = 4
tv1097 = -176						; size = 4
tv1094 = -176						; size = 4
tv1087 = -176						; size = 4
tv1077 = -176						; size = 4
tv1067 = -176						; size = 4
tv1058 = -176						; size = 4
tv1009 = -176						; size = 4
tv1005 = -176						; size = 4
tv970 = -176						; size = 4
tv966 = -176						; size = 4
$T585601 = -172						; size = 4
$T585587 = -172						; size = 4
tv240 = -172						; size = 4
_fFrameGap$ = -172					; size = 4
_fLerpRate$583409 = -168				; size = 4
_dwCurTime$ = -168					; size = 4
$T583407 = -164						; size = 68
_kCurAttackBox$583418 = -96				; size = 68
_vAxis$ = -28						; size = 12
__$EHRec$ = -12						; size = 12
_fTimePerSec$ = 8					; size = 4
_bSetNull$ = 12						; size = 1
?UpdateAttackBoxByStruct@ioLuciferAirGrapWeapon@@IAEXM_N@Z PROC ; ioLuciferAirGrapWeapon::UpdateAttackBoxByStruct, COMDAT
; _this$ = ecx

; 297  : {

  00000	68 ac 00 00 00	 push	 172			; 000000acH
  00005	b8 00 00 00 00	 mov	 eax, __ehhandler$?UpdateAttackBoxByStruct@ioLuciferAirGrapWeapon@@IAEXM_N@Z
  0000a	e8 00 00 00 00	 call	 __EH_prolog3_GS
  0000f	8b d9		 mov	 ebx, ecx

; 298  : 	ioPushStruct *pPush = g_PushStructListMgr.FindPushStruct( m_iStructIndex );

  00011	ff b3 88 05 00
	00		 push	 DWORD PTR [ebx+1416]
  00017	e8 00 00 00 00	 call	 ?GetSingleton@ioPushStructListManager@@SAAAV1@XZ ; ioPushStructListManager::GetSingleton
  0001c	8b c8		 mov	 ecx, eax
  0001e	e8 00 00 00 00	 call	 ?FindPushStruct@ioPushStructListManager@@QAEPAVioPushStruct@@H@Z ; ioPushStructListManager::FindPushStruct

; 299  : 
; 300  : 	if( bSetNull || !pPush || !IsLive() )

  00023	80 7d 0c 00	 cmp	 BYTE PTR _bSetNull$[ebp], 0
  00027	89 85 48 ff ff
	ff		 mov	 DWORD PTR _pPush$[ebp], eax
  0002d	0f 85 8d 06 00
	00		 jne	 $LN14@UpdateAtta
  00033	85 c0		 test	 eax, eax
  00035	0f 84 85 06 00
	00		 je	 $LN14@UpdateAtta
  0003b	80 bb 82 05 00
	00 00		 cmp	 BYTE PTR [ebx+1410], 0
  00042	0f 84 78 06 00
	00		 je	 $LN14@UpdateAtta

; 306  : 		return;
; 307  : 	}
; 308  : 
; 309  : 	m_PreAttackBox = m_WorldAttackBox;

  00048	6a 11		 push	 17			; 00000011H
  0004a	8d b3 e8 04 00
	00		 lea	 esi, DWORD PTR [ebx+1256]
  00050	8d bb 94 08 00
	00		 lea	 edi, DWORD PTR [ebx+2196]
  00056	59		 pop	 ecx
  00057	f3 a5		 rep movsd

; 310  : 
; 311  : 	DWORD dwLooseTime = 0;
; 312  : 
; 313  : 	float fFrameGap = fTimePerSec * FLOAT1000;

  00059	b8 e8 03 00 00	 mov	 eax, 1000		; 000003e8H
  0005e	89 85 4c ff ff
	ff		 mov	 DWORD PTR tv1125[ebp], eax
  00064	db 85 4c ff ff
	ff		 fild	 DWORD PTR tv1125[ebp]
  0006a	85 c0		 test	 eax, eax
  0006c	79 06		 jns	 SHORT $LN61@UpdateAtta
  0006e	d8 05 00 00 00
	00		 fadd	 DWORD PTR __real@4f800000
$LN61@UpdateAtta:
  00074	d8 4d 08	 fmul	 DWORD PTR _fTimePerSec$[ebp]
  00077	d9 9d 54 ff ff
	ff		 fstp	 DWORD PTR _fFrameGap$[ebp]

; 314  : 	DWORD dwCurTime = FRAMEGETTIME();

  0007d	ff 15 00 00 00
	00		 call	 DWORD PTR __imp_?GetSingleton@ioFrameTimer@@SAAAV1@XZ
  00083	8b c8		 mov	 ecx, eax
  00085	ff 15 00 00 00
	00		 call	 DWORD PTR __imp_?GetLoopSec@ioFrameTimer@@QBEKXZ

; 315  : 	DWORD dwLiveEndTime = m_dwCreatedTime + m_dwLiveTime + dwLooseTime;
; 316  : 	DWORD dwFrameEndTime = dwCurTime + (DWORD)fFrameGap;

  0008b	d9 85 54 ff ff
	ff		 fld	 DWORD PTR _fFrameGap$[ebp]
  00091	8b bb d8 04 00
	00		 mov	 edi, DWORD PTR [ebx+1240]
  00097	8b b3 d4 04 00
	00		 mov	 esi, DWORD PTR [ebx+1236]
  0009d	89 85 58 ff ff
	ff		 mov	 DWORD PTR _dwCurTime$[ebp], eax
  000a3	e8 00 00 00 00	 call	 __ftol2

; 317  : 
; 318  : 	float fPreTime = (float)dwCurTime - fFrameGap;

  000a8	db 85 58 ff ff
	ff		 fild	 DWORD PTR _dwCurTime$[ebp]
  000ae	8b 8d 58 ff ff
	ff		 mov	 ecx, DWORD PTR _dwCurTime$[ebp]
  000b4	03 85 58 ff ff
	ff		 add	 eax, DWORD PTR _dwCurTime$[ebp]
  000ba	85 c9		 test	 ecx, ecx
  000bc	79 06		 jns	 SHORT $LN62@UpdateAtta
  000be	d8 05 00 00 00
	00		 fadd	 DWORD PTR __real@4f800000
$LN62@UpdateAtta:
  000c4	d8 a5 54 ff ff
	ff		 fsub	 DWORD PTR _fFrameGap$[ebp]

; 319  : 	float fEndGap = (float)dwLiveEndTime - fPreTime;

  000ca	8d 0c 3e	 lea	 ecx, DWORD PTR [esi+edi]
  000cd	8b d1		 mov	 edx, ecx
  000cf	89 95 50 ff ff
	ff		 mov	 DWORD PTR tv1108[ebp], edx
  000d5	d9 9d 4c ff ff
	ff		 fstp	 DWORD PTR _fPreTime$[ebp]
  000db	db 85 50 ff ff
	ff		 fild	 DWORD PTR tv1108[ebp]
  000e1	85 d2		 test	 edx, edx
  000e3	79 06		 jns	 SHORT $LN63@UpdateAtta
  000e5	d8 05 00 00 00
	00		 fadd	 DWORD PTR __real@4f800000
$LN63@UpdateAtta:
  000eb	d8 a5 4c ff ff
	ff		 fsub	 DWORD PTR _fPreTime$[ebp]
  000f1	d9 9d 4c ff ff
	ff		 fstp	 DWORD PTR _fEndGap$[ebp]

; 320  : 
; 321  : 	D3DXVECTOR3 vAxis;
; 322  : 
; 323  : 	if( dwLiveEndTime >= dwFrameEndTime )

  000f7	3b c8		 cmp	 ecx, eax
  000f9	72 35		 jb	 SHORT $LN13@UpdateAtta

; 324  : 	{
; 325  : 		m_WorldAttackBox = pPush->GetAttackCollisionBox( m_CollisionType );

  000fb	8b 8d 48 ff ff
	ff		 mov	 ecx, DWORD PTR _pPush$[ebp]
  00101	8b 01		 mov	 eax, DWORD PTR [ecx]
  00103	6a 00		 push	 0
  00105	ff b3 b0 04 00
	00		 push	 DWORD PTR [ebx+1200]
  0010b	8d 95 5c ff ff
	ff		 lea	 edx, DWORD PTR $T583407[ebp]
  00111	52		 push	 edx
  00112	ff 90 94 00 00
	00		 call	 DWORD PTR [eax+148]
  00118	6a 11		 push	 17			; 00000011H
  0011a	59		 pop	 ecx
  0011b	8b f0		 mov	 esi, eax
  0011d	8d bb e8 04 00
	00		 lea	 edi, DWORD PTR [ebx+1256]
  00123	f3 a5		 rep movsd
  00125	8d 8d 5c ff ff
	ff		 lea	 ecx, DWORD PTR $T583407[ebp]

; 326  : 	}
; 327  : 	else	//    .

  0012b	e9 f9 02 00 00	 jmp	 $LN74@UpdateAtta
$LN13@UpdateAtta:

; 328  : 	{
; 329  : 		float fLerpRate = 0.0f;
; 330  : 		if( m_dwCreatedTime >= dwCurTime )	//   . 1  .

  00130	3b b5 58 ff ff
	ff		 cmp	 esi, DWORD PTR _dwCurTime$[ebp]
  00136	72 36		 jb	 SHORT $LN11@UpdateAtta

; 331  : 		{
; 332  : 			fLerpRate = (float)(m_dwLiveTime+dwLooseTime) / (float)( dwFrameEndTime - m_dwCreatedTime );

  00138	89 bd 50 ff ff
	ff		 mov	 DWORD PTR tv1097[ebp], edi
  0013e	db 85 50 ff ff
	ff		 fild	 DWORD PTR tv1097[ebp]
  00144	85 ff		 test	 edi, edi
  00146	79 06		 jns	 SHORT $LN64@UpdateAtta
  00148	d8 05 00 00 00
	00		 fadd	 DWORD PTR __real@4f800000
$LN64@UpdateAtta:
  0014e	2b c6		 sub	 eax, esi
  00150	89 85 50 ff ff
	ff		 mov	 DWORD PTR tv1094[ebp], eax
  00156	db 85 50 ff ff
	ff		 fild	 DWORD PTR tv1094[ebp]
  0015c	79 06		 jns	 SHORT $LN65@UpdateAtta
  0015e	d8 05 00 00 00
	00		 fadd	 DWORD PTR __real@4f800000
$LN65@UpdateAtta:
  00164	de f9		 fdivp	 ST(1), ST(0)
  00166	d9 9d 58 ff ff
	ff		 fstp	 DWORD PTR _fLerpRate$583409[ebp]

; 333  : 		}
; 334  : 		else	//  .

  0016c	eb 2e		 jmp	 SHORT $LN10@UpdateAtta
$LN11@UpdateAtta:

; 335  : 		{
; 336  : 			fLerpRate = fEndGap / (2 * fFrameGap);

  0016e	f3 0f 10 8d 54
	ff ff ff	 movss	 xmm1, DWORD PTR _fFrameGap$[ebp]
  00176	f3 0f 10 85 4c
	ff ff ff	 movss	 xmm0, DWORD PTR _fEndGap$[ebp]
  0017e	0f 5a c0	 cvtps2pd xmm0, xmm0
  00181	0f 5a c9	 cvtps2pd xmm1, xmm1
  00184	f2 0f 59 0d 00
	00 00 00	 mulsd	 xmm1, QWORD PTR __real@4000000000000000
  0018c	f2 0f 5e c1	 divsd	 xmm0, xmm1
  00190	66 0f 5a c0	 cvtpd2ps xmm0, xmm0
  00194	f3 0f 11 85 58
	ff ff ff	 movss	 DWORD PTR _fLerpRate$583409[ebp], xmm0
$LN10@UpdateAtta:

; 337  : 		}
; 338  : 
; 339  : 		fLerpRate = max( 0.0f, min( FLOAT1, fLerpRate ) );

  0019c	b8 01 00 00 00	 mov	 eax, 1
  001a1	89 85 50 ff ff
	ff		 mov	 DWORD PTR tv1087[ebp], eax
  001a7	db 85 50 ff ff
	ff		 fild	 DWORD PTR tv1087[ebp]
  001ad	85 c0		 test	 eax, eax
  001af	79 06		 jns	 SHORT $LN66@UpdateAtta
  001b1	d8 05 00 00 00
	00		 fadd	 DWORD PTR __real@4f800000
$LN66@UpdateAtta:
  001b7	d9 85 58 ff ff
	ff		 fld	 DWORD PTR _fLerpRate$583409[ebp]
  001bd	df f1		 fcomip	 ST(1)
  001bf	dd d8		 fstp	 ST(0)
  001c1	76 23		 jbe	 SHORT $LN18@UpdateAtta
  001c3	b8 01 00 00 00	 mov	 eax, 1
  001c8	89 85 50 ff ff
	ff		 mov	 DWORD PTR tv1077[ebp], eax
  001ce	db 85 50 ff ff
	ff		 fild	 DWORD PTR tv1077[ebp]
  001d4	85 c0		 test	 eax, eax
  001d6	79 06		 jns	 SHORT $LN67@UpdateAtta
  001d8	d8 05 00 00 00
	00		 fadd	 DWORD PTR __real@4f800000
$LN67@UpdateAtta:
  001de	d9 9d 54 ff ff
	ff		 fstp	 DWORD PTR tv240[ebp]
  001e4	eb 10		 jmp	 SHORT $LN19@UpdateAtta
$LN18@UpdateAtta:
  001e6	f3 0f 10 85 58
	ff ff ff	 movss	 xmm0, DWORD PTR _fLerpRate$583409[ebp]
  001ee	f3 0f 11 85 54
	ff ff ff	 movss	 DWORD PTR tv240[ebp], xmm0
$LN19@UpdateAtta:
  001f6	f3 0f 10 85 54
	ff ff ff	 movss	 xmm0, DWORD PTR tv240[ebp]
  001fe	0f 57 c9	 xorps	 xmm1, xmm1
  00201	0f 5a c0	 cvtps2pd xmm0, xmm0
  00204	66 0f 2f c8	 comisd	 xmm1, xmm0
  00208	76 0d		 jbe	 SHORT $LN22@UpdateAtta
  0020a	0f 57 c0	 xorps	 xmm0, xmm0
  0020d	f3 0f 11 85 58
	ff ff ff	 movss	 DWORD PTR _fLerpRate$583409[ebp], xmm0
  00215	eb 48		 jmp	 SHORT $LN20@UpdateAtta
$LN22@UpdateAtta:
  00217	b8 01 00 00 00	 mov	 eax, 1
  0021c	89 85 50 ff ff
	ff		 mov	 DWORD PTR tv1067[ebp], eax
  00222	db 85 50 ff ff
	ff		 fild	 DWORD PTR tv1067[ebp]
  00228	85 c0		 test	 eax, eax
  0022a	79 06		 jns	 SHORT $LN68@UpdateAtta
  0022c	d8 05 00 00 00
	00		 fadd	 DWORD PTR __real@4f800000
$LN68@UpdateAtta:
  00232	d9 85 58 ff ff
	ff		 fld	 DWORD PTR _fLerpRate$583409[ebp]
  00238	df f1		 fcomip	 ST(1)
  0023a	dd d8		 fstp	 ST(0)
  0023c	76 21		 jbe	 SHORT $LN20@UpdateAtta
  0023e	b8 01 00 00 00	 mov	 eax, 1
  00243	89 85 50 ff ff
	ff		 mov	 DWORD PTR tv1058[ebp], eax
  00249	db 85 50 ff ff
	ff		 fild	 DWORD PTR tv1058[ebp]
  0024f	85 c0		 test	 eax, eax
  00251	79 06		 jns	 SHORT $LN69@UpdateAtta
  00253	d8 05 00 00 00
	00		 fadd	 DWORD PTR __real@4f800000
$LN69@UpdateAtta:
  00259	d9 9d 58 ff ff
	ff		 fstp	 DWORD PTR _fLerpRate$583409[ebp]
$LN20@UpdateAtta:

; 340  : 
; 341  : 		ioOrientBox kCurAttackBox = pPush->GetAttackCollisionBox( m_CollisionType );

  0025f	8b 8d 48 ff ff
	ff		 mov	 ecx, DWORD PTR _pPush$[ebp]
  00265	8b 01		 mov	 eax, DWORD PTR [ecx]
  00267	33 ff		 xor	 edi, edi
  00269	57		 push	 edi
  0026a	ff b3 b0 04 00
	00		 push	 DWORD PTR [ebx+1200]
  00270	8d 55 a0	 lea	 edx, DWORD PTR _kCurAttackBox$583418[ebp]
  00273	52		 push	 edx
  00274	ff 90 94 00 00
	00		 call	 DWORD PTR [eax+148]
  0027a	89 7d fc	 mov	 DWORD PTR __$EHRec$[ebp+8], edi
$LL9@UpdateAtta:

; 342  : 
; 343  : 		for( int i=0 ; i<3 ; i++ )
; 344  : 		{
; 345  : 			D3DXVec3Lerp( &vAxis, &m_PreAttackBox.GetAxis(i), &kCurAttackBox.GetAxis(i), fLerpRate );

  0027d	57		 push	 edi
  0027e	8d 4d a0	 lea	 ecx, DWORD PTR _kCurAttackBox$583418[ebp]
  00281	ff 15 00 00 00
	00		 call	 DWORD PTR __imp_?GetAxis@ioOrientBox@@QBEABUD3DXVECTOR3@@H@Z
  00287	57		 push	 edi
  00288	8d 8b 94 08 00
	00		 lea	 ecx, DWORD PTR [ebx+2196]
  0028e	8b f0		 mov	 esi, eax
  00290	ff 15 00 00 00
	00		 call	 DWORD PTR __imp_?GetAxis@ioOrientBox@@QBEABUD3DXVECTOR3@@H@Z
  00296	f3 0f 10 00	 movss	 xmm0, DWORD PTR [eax]
  0029a	f3 0f 10 0e	 movss	 xmm1, DWORD PTR [esi]
  0029e	0f 5a d0	 cvtps2pd xmm2, xmm0
  002a1	0f 5a c9	 cvtps2pd xmm1, xmm1
  002a4	f2 0f 5c ca	 subsd	 xmm1, xmm2
  002a8	f3 0f 10 95 58
	ff ff ff	 movss	 xmm2, DWORD PTR _fLerpRate$583409[ebp]
  002b0	0f 5a c0	 cvtps2pd xmm0, xmm0
  002b3	0f 5a d2	 cvtps2pd xmm2, xmm2
  002b6	f2 0f 59 ca	 mulsd	 xmm1, xmm2
  002ba	f2 0f 58 c8	 addsd	 xmm1, xmm0
  002be	0f 57 c0	 xorps	 xmm0, xmm0
  002c1	66 0f 5a c1	 cvtpd2ps xmm0, xmm1
  002c5	f3 0f 11 45 e4	 movss	 DWORD PTR _vAxis$[ebp], xmm0
  002ca	f3 0f 10 40 04	 movss	 xmm0, DWORD PTR [eax+4]
  002cf	f3 0f 10 4e 04	 movss	 xmm1, DWORD PTR [esi+4]
  002d4	0f 5a d0	 cvtps2pd xmm2, xmm0
  002d7	0f 5a c9	 cvtps2pd xmm1, xmm1
  002da	f2 0f 5c ca	 subsd	 xmm1, xmm2
  002de	f3 0f 10 95 58
	ff ff ff	 movss	 xmm2, DWORD PTR _fLerpRate$583409[ebp]
  002e6	0f 5a c0	 cvtps2pd xmm0, xmm0
  002e9	0f 5a d2	 cvtps2pd xmm2, xmm2
  002ec	f2 0f 59 ca	 mulsd	 xmm1, xmm2
  002f0	f2 0f 58 c8	 addsd	 xmm1, xmm0
  002f4	0f 57 c0	 xorps	 xmm0, xmm0
  002f7	66 0f 5a c1	 cvtpd2ps xmm0, xmm1
  002fb	f3 0f 11 45 e8	 movss	 DWORD PTR _vAxis$[ebp+4], xmm0
  00300	f3 0f 10 40 08	 movss	 xmm0, DWORD PTR [eax+8]
  00305	f3 0f 10 4e 08	 movss	 xmm1, DWORD PTR [esi+8]
  0030a	0f 5a d0	 cvtps2pd xmm2, xmm0
  0030d	0f 5a c9	 cvtps2pd xmm1, xmm1
  00310	f2 0f 5c ca	 subsd	 xmm1, xmm2
  00314	f3 0f 10 95 58
	ff ff ff	 movss	 xmm2, DWORD PTR _fLerpRate$583409[ebp]
  0031c	0f 5a c0	 cvtps2pd xmm0, xmm0

; 346  : 			D3DXVec3Normalize( &vAxis, &vAxis );

  0031f	8d 45 e4	 lea	 eax, DWORD PTR _vAxis$[ebp]
  00322	0f 5a d2	 cvtps2pd xmm2, xmm2
  00325	f2 0f 59 ca	 mulsd	 xmm1, xmm2
  00329	f2 0f 58 c8	 addsd	 xmm1, xmm0
  0032d	50		 push	 eax
  0032e	0f 57 c0	 xorps	 xmm0, xmm0
  00331	66 0f 5a c1	 cvtpd2ps xmm0, xmm1
  00335	50		 push	 eax
  00336	f3 0f 11 45 ec	 movss	 DWORD PTR _vAxis$[ebp+8], xmm0
  0033b	e8 00 00 00 00	 call	 _D3DXVec3Normalize@8

; 347  : 			m_WorldAttackBox.SetAxis( i, vAxis );

  00340	8d 45 e4	 lea	 eax, DWORD PTR _vAxis$[ebp]
  00343	50		 push	 eax
  00344	57		 push	 edi
  00345	8d 8b e8 04 00
	00		 lea	 ecx, DWORD PTR [ebx+1256]
  0034b	ff 15 00 00 00
	00		 call	 DWORD PTR __imp_?SetAxis@ioOrientBox@@QAEXHABUD3DXVECTOR3@@@Z
  00351	47		 inc	 edi
  00352	83 ff 03	 cmp	 edi, 3
  00355	0f 8c 22 ff ff
	ff		 jl	 $LL9@UpdateAtta

; 348  : 		}
; 349  : 
; 350  : 		D3DXVec3Lerp( &vAxis, &m_PreAttackBox.GetCenter(), &kCurAttackBox.GetCenter(), fLerpRate );

  0035b	8d 4d a0	 lea	 ecx, DWORD PTR _kCurAttackBox$583418[ebp]
  0035e	ff 15 00 00 00
	00		 call	 DWORD PTR __imp_?GetCenter@ioOrientBox@@QBEABUD3DXVECTOR3@@XZ
  00364	8d 8b 94 08 00
	00		 lea	 ecx, DWORD PTR [ebx+2196]
  0036a	8b f0		 mov	 esi, eax
  0036c	ff 15 00 00 00
	00		 call	 DWORD PTR __imp_?GetCenter@ioOrientBox@@QBEABUD3DXVECTOR3@@XZ
  00372	f3 0f 10 00	 movss	 xmm0, DWORD PTR [eax]
  00376	f3 0f 10 0e	 movss	 xmm1, DWORD PTR [esi]
  0037a	0f 5a d0	 cvtps2pd xmm2, xmm0
  0037d	0f 5a c9	 cvtps2pd xmm1, xmm1
  00380	f2 0f 5c ca	 subsd	 xmm1, xmm2
  00384	f3 0f 10 95 58
	ff ff ff	 movss	 xmm2, DWORD PTR _fLerpRate$583409[ebp]
  0038c	0f 5a c0	 cvtps2pd xmm0, xmm0
  0038f	0f 5a d2	 cvtps2pd xmm2, xmm2
  00392	f2 0f 59 ca	 mulsd	 xmm1, xmm2
  00396	f2 0f 58 c8	 addsd	 xmm1, xmm0
  0039a	0f 57 c0	 xorps	 xmm0, xmm0
  0039d	66 0f 5a c1	 cvtpd2ps xmm0, xmm1
  003a1	f3 0f 11 45 e4	 movss	 DWORD PTR _vAxis$[ebp], xmm0
  003a6	f3 0f 10 40 04	 movss	 xmm0, DWORD PTR [eax+4]
  003ab	f3 0f 10 4e 04	 movss	 xmm1, DWORD PTR [esi+4]
  003b0	0f 5a d0	 cvtps2pd xmm2, xmm0
  003b3	0f 5a c9	 cvtps2pd xmm1, xmm1
  003b6	f2 0f 5c ca	 subsd	 xmm1, xmm2
  003ba	f3 0f 10 95 58
	ff ff ff	 movss	 xmm2, DWORD PTR _fLerpRate$583409[ebp]
  003c2	0f 5a c0	 cvtps2pd xmm0, xmm0
  003c5	0f 5a d2	 cvtps2pd xmm2, xmm2
  003c8	f2 0f 59 ca	 mulsd	 xmm1, xmm2
  003cc	f2 0f 58 c8	 addsd	 xmm1, xmm0
  003d0	0f 57 c0	 xorps	 xmm0, xmm0
  003d3	66 0f 5a c1	 cvtpd2ps xmm0, xmm1
  003d7	f3 0f 11 45 e8	 movss	 DWORD PTR _vAxis$[ebp+4], xmm0
  003dc	f3 0f 10 40 08	 movss	 xmm0, DWORD PTR [eax+8]
  003e1	f3 0f 10 4e 08	 movss	 xmm1, DWORD PTR [esi+8]
  003e6	0f 5a d0	 cvtps2pd xmm2, xmm0
  003e9	0f 5a c9	 cvtps2pd xmm1, xmm1
  003ec	f2 0f 5c ca	 subsd	 xmm1, xmm2
  003f0	f3 0f 10 95 58
	ff ff ff	 movss	 xmm2, DWORD PTR _fLerpRate$583409[ebp]
  003f8	0f 5a c0	 cvtps2pd xmm0, xmm0
  003fb	0f 5a d2	 cvtps2pd xmm2, xmm2
  003fe	f2 0f 59 ca	 mulsd	 xmm1, xmm2
  00402	f2 0f 58 c8	 addsd	 xmm1, xmm0

; 351  : 		m_WorldAttackBox.SetCenter( vAxis );

  00406	8d 45 e4	 lea	 eax, DWORD PTR _vAxis$[ebp]
  00409	0f 57 c0	 xorps	 xmm0, xmm0
  0040c	66 0f 5a c1	 cvtpd2ps xmm0, xmm1
  00410	50		 push	 eax
  00411	8d 8b e8 04 00
	00		 lea	 ecx, DWORD PTR [ebx+1256]
  00417	f3 0f 11 45 ec	 movss	 DWORD PTR _vAxis$[ebp+8], xmm0
  0041c	ff 15 00 00 00
	00		 call	 DWORD PTR __imp_?SetCenter@ioOrientBox@@QAEXABUD3DXVECTOR3@@@Z

; 352  : 	}

  00422	83 4d fc ff	 or	 DWORD PTR __$EHRec$[ebp+8], -1
  00426	8d 4d a0	 lea	 ecx, DWORD PTR _kCurAttackBox$583418[ebp]
$LN74@UpdateAtta:
  00429	ff 15 00 00 00
	00		 call	 DWORD PTR __imp_??1ioOrientBox@@QAE@XZ

; 353  : 
; 354  : 	for( int i=0 ; i<3 ; i++ )

  0042f	33 f6		 xor	 esi, esi
$LL6@UpdateAtta:

; 355  : 	{
; 356  : 		D3DXVec3Lerp( &vAxis, &m_PreAttackBox.GetAxis(i), &m_WorldAttackBox.GetAxis(i), FLOAT05 );

  00431	b8 05 00 00 00	 mov	 eax, 5
  00436	8b c8		 mov	 ecx, eax
  00438	b8 0a 00 00 00	 mov	 eax, 10			; 0000000aH
  0043d	89 8d 50 ff ff
	ff		 mov	 DWORD PTR tv1009[ebp], ecx
  00443	db 85 50 ff ff
	ff		 fild	 DWORD PTR tv1009[ebp]
  00449	85 c9		 test	 ecx, ecx
  0044b	79 06		 jns	 SHORT $LN70@UpdateAtta
  0044d	d8 05 00 00 00
	00		 fadd	 DWORD PTR __real@4f800000
$LN70@UpdateAtta:
  00453	89 85 50 ff ff
	ff		 mov	 DWORD PTR tv1005[ebp], eax
  00459	db 85 50 ff ff
	ff		 fild	 DWORD PTR tv1005[ebp]
  0045f	85 c0		 test	 eax, eax
  00461	79 06		 jns	 SHORT $LN71@UpdateAtta
  00463	d8 05 00 00 00
	00		 fadd	 DWORD PTR __real@4f800000
$LN71@UpdateAtta:
  00469	de f9		 fdivp	 ST(1), ST(0)
  0046b	56		 push	 esi
  0046c	8d 8b e8 04 00
	00		 lea	 ecx, DWORD PTR [ebx+1256]
  00472	d9 9d 4c ff ff
	ff		 fstp	 DWORD PTR tv1001[ebp]
  00478	d9 85 4c ff ff
	ff		 fld	 DWORD PTR tv1001[ebp]
  0047e	d9 9d 54 ff ff
	ff		 fstp	 DWORD PTR $T585587[ebp]
  00484	ff 15 00 00 00
	00		 call	 DWORD PTR __imp_?GetAxis@ioOrientBox@@QBEABUD3DXVECTOR3@@H@Z
  0048a	56		 push	 esi
  0048b	8d 8b 94 08 00
	00		 lea	 ecx, DWORD PTR [ebx+2196]
  00491	8b f8		 mov	 edi, eax
  00493	ff 15 00 00 00
	00		 call	 DWORD PTR __imp_?GetAxis@ioOrientBox@@QBEABUD3DXVECTOR3@@H@Z
  00499	f3 0f 10 00	 movss	 xmm0, DWORD PTR [eax]
  0049d	f3 0f 10 0f	 movss	 xmm1, DWORD PTR [edi]
  004a1	0f 5a d0	 cvtps2pd xmm2, xmm0
  004a4	0f 5a c9	 cvtps2pd xmm1, xmm1
  004a7	f2 0f 5c ca	 subsd	 xmm1, xmm2
  004ab	f3 0f 10 95 54
	ff ff ff	 movss	 xmm2, DWORD PTR $T585587[ebp]
  004b3	0f 5a c0	 cvtps2pd xmm0, xmm0
  004b6	0f 5a d2	 cvtps2pd xmm2, xmm2
  004b9	f2 0f 59 ca	 mulsd	 xmm1, xmm2
  004bd	f2 0f 58 c8	 addsd	 xmm1, xmm0
  004c1	0f 57 c0	 xorps	 xmm0, xmm0
  004c4	66 0f 5a c1	 cvtpd2ps xmm0, xmm1
  004c8	f3 0f 11 45 e4	 movss	 DWORD PTR _vAxis$[ebp], xmm0
  004cd	f3 0f 10 40 04	 movss	 xmm0, DWORD PTR [eax+4]
  004d2	f3 0f 10 4f 04	 movss	 xmm1, DWORD PTR [edi+4]
  004d7	0f 5a d0	 cvtps2pd xmm2, xmm0
  004da	0f 5a c9	 cvtps2pd xmm1, xmm1
  004dd	f2 0f 5c ca	 subsd	 xmm1, xmm2
  004e1	f3 0f 10 95 54
	ff ff ff	 movss	 xmm2, DWORD PTR $T585587[ebp]
  004e9	0f 5a c0	 cvtps2pd xmm0, xmm0
  004ec	0f 5a d2	 cvtps2pd xmm2, xmm2
  004ef	f2 0f 59 ca	 mulsd	 xmm1, xmm2
  004f3	f2 0f 58 c8	 addsd	 xmm1, xmm0
  004f7	0f 57 c0	 xorps	 xmm0, xmm0
  004fa	66 0f 5a c1	 cvtpd2ps xmm0, xmm1
  004fe	f3 0f 11 45 e8	 movss	 DWORD PTR _vAxis$[ebp+4], xmm0
  00503	f3 0f 10 40 08	 movss	 xmm0, DWORD PTR [eax+8]
  00508	f3 0f 10 4f 08	 movss	 xmm1, DWORD PTR [edi+8]
  0050d	0f 5a d0	 cvtps2pd xmm2, xmm0
  00510	0f 5a c9	 cvtps2pd xmm1, xmm1
  00513	f2 0f 5c ca	 subsd	 xmm1, xmm2
  00517	f3 0f 10 95 54
	ff ff ff	 movss	 xmm2, DWORD PTR $T585587[ebp]
  0051f	0f 5a c0	 cvtps2pd xmm0, xmm0

; 357  : 		D3DXVec3Normalize( &vAxis, &vAxis );

  00522	8d 45 e4	 lea	 eax, DWORD PTR _vAxis$[ebp]
  00525	0f 5a d2	 cvtps2pd xmm2, xmm2
  00528	f2 0f 59 ca	 mulsd	 xmm1, xmm2
  0052c	f2 0f 58 c8	 addsd	 xmm1, xmm0
  00530	50		 push	 eax
  00531	0f 57 c0	 xorps	 xmm0, xmm0
  00534	66 0f 5a c1	 cvtpd2ps xmm0, xmm1
  00538	50		 push	 eax
  00539	f3 0f 11 45 ec	 movss	 DWORD PTR _vAxis$[ebp+8], xmm0
  0053e	e8 00 00 00 00	 call	 _D3DXVec3Normalize@8

; 358  : 		m_MidAttackBox.SetAxis( i, vAxis );

  00543	8d 45 e4	 lea	 eax, DWORD PTR _vAxis$[ebp]
  00546	50		 push	 eax
  00547	56		 push	 esi
  00548	8d 8b d8 08 00
	00		 lea	 ecx, DWORD PTR [ebx+2264]
  0054e	ff 15 00 00 00
	00		 call	 DWORD PTR __imp_?SetAxis@ioOrientBox@@QAEXHABUD3DXVECTOR3@@@Z

; 359  : 		m_MidAttackBox.SetExtents( i, m_WorldAttackBox.GetExtents(i) );

  00554	56		 push	 esi
  00555	8d 8b e8 04 00
	00		 lea	 ecx, DWORD PTR [ebx+1256]
  0055b	ff 15 00 00 00
	00		 call	 DWORD PTR __imp_?GetExtents@ioOrientBox@@QBEMH@Z
  00561	51		 push	 ecx
  00562	d9 1c 24	 fstp	 DWORD PTR [esp]
  00565	56		 push	 esi
  00566	8d 8b d8 08 00
	00		 lea	 ecx, DWORD PTR [ebx+2264]
  0056c	ff 15 00 00 00
	00		 call	 DWORD PTR __imp_?SetExtents@ioOrientBox@@QAEXHM@Z
  00572	46		 inc	 esi
  00573	83 fe 03	 cmp	 esi, 3
  00576	0f 8c b5 fe ff
	ff		 jl	 $LL6@UpdateAtta

; 360  : 	}
; 361  : 
; 362  : 	D3DXVec3Lerp( &vAxis, &m_PreAttackBox.GetCenter(), &m_WorldAttackBox.GetCenter(), FLOAT05 );

  0057c	b8 05 00 00 00	 mov	 eax, 5
  00581	8b c8		 mov	 ecx, eax
  00583	b8 0a 00 00 00	 mov	 eax, 10			; 0000000aH
  00588	89 8d 50 ff ff
	ff		 mov	 DWORD PTR tv970[ebp], ecx
  0058e	db 85 50 ff ff
	ff		 fild	 DWORD PTR tv970[ebp]
  00594	85 c9		 test	 ecx, ecx
  00596	79 06		 jns	 SHORT $LN72@UpdateAtta
  00598	d8 05 00 00 00
	00		 fadd	 DWORD PTR __real@4f800000
$LN72@UpdateAtta:
  0059e	89 85 50 ff ff
	ff		 mov	 DWORD PTR tv966[ebp], eax
  005a4	db 85 50 ff ff
	ff		 fild	 DWORD PTR tv966[ebp]
  005aa	85 c0		 test	 eax, eax
  005ac	79 06		 jns	 SHORT $LN73@UpdateAtta
  005ae	d8 05 00 00 00
	00		 fadd	 DWORD PTR __real@4f800000
$LN73@UpdateAtta:
  005b4	de f9		 fdivp	 ST(1), ST(0)
  005b6	8d b3 e8 04 00
	00		 lea	 esi, DWORD PTR [ebx+1256]
  005bc	8b ce		 mov	 ecx, esi
  005be	d9 9d 4c ff ff
	ff		 fstp	 DWORD PTR tv962[ebp]
  005c4	d9 85 4c ff ff
	ff		 fld	 DWORD PTR tv962[ebp]
  005ca	d9 9d 54 ff ff
	ff		 fstp	 DWORD PTR $T585601[ebp]
  005d0	ff 15 00 00 00
	00		 call	 DWORD PTR __imp_?GetCenter@ioOrientBox@@QBEABUD3DXVECTOR3@@XZ
  005d6	8d 8b 94 08 00
	00		 lea	 ecx, DWORD PTR [ebx+2196]
  005dc	8b f8		 mov	 edi, eax
  005de	ff 15 00 00 00
	00		 call	 DWORD PTR __imp_?GetCenter@ioOrientBox@@QBEABUD3DXVECTOR3@@XZ
  005e4	f3 0f 10 00	 movss	 xmm0, DWORD PTR [eax]
  005e8	f3 0f 10 0f	 movss	 xmm1, DWORD PTR [edi]
  005ec	0f 5a d0	 cvtps2pd xmm2, xmm0
  005ef	0f 5a c9	 cvtps2pd xmm1, xmm1
  005f2	f2 0f 5c ca	 subsd	 xmm1, xmm2
  005f6	f3 0f 10 95 54
	ff ff ff	 movss	 xmm2, DWORD PTR $T585601[ebp]
  005fe	0f 5a c0	 cvtps2pd xmm0, xmm0
  00601	0f 5a d2	 cvtps2pd xmm2, xmm2
  00604	f2 0f 59 ca	 mulsd	 xmm1, xmm2
  00608	f2 0f 58 c8	 addsd	 xmm1, xmm0
  0060c	0f 57 c0	 xorps	 xmm0, xmm0
  0060f	66 0f 5a c1	 cvtpd2ps xmm0, xmm1
  00613	f3 0f 11 45 e4	 movss	 DWORD PTR _vAxis$[ebp], xmm0
  00618	f3 0f 10 40 04	 movss	 xmm0, DWORD PTR [eax+4]
  0061d	f3 0f 10 4f 04	 movss	 xmm1, DWORD PTR [edi+4]
  00622	0f 5a d0	 cvtps2pd xmm2, xmm0
  00625	0f 5a c9	 cvtps2pd xmm1, xmm1
  00628	f2 0f 5c ca	 subsd	 xmm1, xmm2
  0062c	f3 0f 10 95 54
	ff ff ff	 movss	 xmm2, DWORD PTR $T585601[ebp]
  00634	0f 5a c0	 cvtps2pd xmm0, xmm0
  00637	0f 5a d2	 cvtps2pd xmm2, xmm2
  0063a	f2 0f 59 ca	 mulsd	 xmm1, xmm2
  0063e	f2 0f 58 c8	 addsd	 xmm1, xmm0
  00642	0f 57 c0	 xorps	 xmm0, xmm0
  00645	66 0f 5a c1	 cvtpd2ps xmm0, xmm1
  00649	f3 0f 11 45 e8	 movss	 DWORD PTR _vAxis$[ebp+4], xmm0
  0064e	f3 0f 10 40 08	 movss	 xmm0, DWORD PTR [eax+8]
  00653	f3 0f 10 4f 08	 movss	 xmm1, DWORD PTR [edi+8]
  00658	0f 5a d0	 cvtps2pd xmm2, xmm0
  0065b	0f 5a c9	 cvtps2pd xmm1, xmm1
  0065e	f2 0f 5c ca	 subsd	 xmm1, xmm2
  00662	f3 0f 10 95 54
	ff ff ff	 movss	 xmm2, DWORD PTR $T585601[ebp]
  0066a	0f 5a c0	 cvtps2pd xmm0, xmm0
  0066d	0f 5a d2	 cvtps2pd xmm2, xmm2
  00670	f2 0f 59 ca	 mulsd	 xmm1, xmm2

; 363  : 	m_MidAttackBox.SetCenter( vAxis );

  00674	8d 45 e4	 lea	 eax, DWORD PTR _vAxis$[ebp]
  00677	f2 0f 58 c8	 addsd	 xmm1, xmm0
  0067b	50		 push	 eax
  0067c	66 0f 5a c1	 cvtpd2ps xmm0, xmm1
  00680	8d 8b d8 08 00
	00		 lea	 ecx, DWORD PTR [ebx+2264]
  00686	f3 0f 11 45 ec	 movss	 DWORD PTR _vAxis$[ebp+8], xmm0
  0068b	ff 15 00 00 00
	00		 call	 DWORD PTR __imp_?SetCenter@ioOrientBox@@QAEXABUD3DXVECTOR3@@@Z

; 364  : 
; 365  : 	if( m_UpdateState == CONTACT_CREATED )

  00691	33 c9		 xor	 ecx, ecx
  00693	39 8b 20 09 00
	00		 cmp	 DWORD PTR [ebx+2336], ecx

; 366  : 		m_UpdateState = CONTACT_FIRST;
; 367  : 	else
; 368  : 		m_UpdateState = CONTACT_NORMAL;
; 369  : 
; 370  : 	m_WorldAttackBoxForMap = m_WorldAttackBox;

  00699	6a 11		 push	 17			; 00000011H
  0069b	0f 95 c1	 setne	 cl
  0069e	8d bb 2c 05 00
	00		 lea	 edi, DWORD PTR [ebx+1324]
  006a4	41		 inc	 ecx

; 371  : 
; 372  : 	if( m_bFirstCheck )

  006a5	80 bb 1c 09 00
	00 00		 cmp	 BYTE PTR [ebx+2332], 0
  006ac	89 8b 20 09 00
	00		 mov	 DWORD PTR [ebx+2336], ecx
  006b2	59		 pop	 ecx
  006b3	f3 a5		 rep movsd
  006b5	74 2f		 je	 SHORT $LN1@UpdateAtta

; 373  : 	{
; 374  : 		m_bFirstCheck = false;

  006b7	c6 83 1c 09 00
	00 00		 mov	 BYTE PTR [ebx+2332], 0
  006be	eb 26		 jmp	 SHORT $LN1@UpdateAtta
$LN14@UpdateAtta:

; 301  : 	{
; 302  : 		m_PreAttackBox.SetNull();

  006c0	8b 35 00 00 00
	00		 mov	 esi, DWORD PTR __imp_?SetNull@ioOrientBox@@QAEXXZ
  006c6	8d 8b 94 08 00
	00		 lea	 ecx, DWORD PTR [ebx+2196]
  006cc	ff d6		 call	 esi

; 303  : 		m_MidAttackBox.SetNull();

  006ce	8d 8b d8 08 00
	00		 lea	 ecx, DWORD PTR [ebx+2264]
  006d4	ff d6		 call	 esi

; 304  : 		m_WorldAttackBox.SetNull();

  006d6	8d 8b e8 04 00
	00		 lea	 ecx, DWORD PTR [ebx+1256]
  006dc	ff d6		 call	 esi

; 305  : 		m_WorldAttackBoxForMap.SetNull();

  006de	8d 8b 2c 05 00
	00		 lea	 ecx, DWORD PTR [ebx+1324]
  006e4	ff d6		 call	 esi
$LN1@UpdateAtta:

; 375  : 	}
; 376  : }

  006e6	e8 00 00 00 00	 call	 __EH_epilog3_GS
  006eb	c2 08 00	 ret	 8
_TEXT	ENDS
;	COMDAT text$x
text$x	SEGMENT
__unwindfunclet$?UpdateAttackBoxByStruct@ioLuciferAirGrapWeapon@@IAEXM_N@Z$1:
  00000	8d 4d a0	 lea	 ecx, DWORD PTR _kCurAttackBox$583418[ebp]
  00003	ff 25 00 00 00
	00		 jmp	 DWORD PTR __imp_??1ioOrientBox@@QAE@XZ
__ehhandler$?UpdateAttackBoxByStruct@ioLuciferAirGrapWeapon@@IAEXM_N@Z:
  00009	8b 54 24 08	 mov	 edx, DWORD PTR [esp+8]
  0000d	8d 42 0c	 lea	 eax, DWORD PTR [edx+12]
  00010	8b 8a 44 ff ff
	ff		 mov	 ecx, DWORD PTR [edx-188]
  00016	33 c8		 xor	 ecx, eax
  00018	e8 00 00 00 00	 call	 @__security_check_cookie@4
  0001d	8b 4a fc	 mov	 ecx, DWORD PTR [edx-4]
  00020	33 c8		 xor	 ecx, eax
  00022	e8 00 00 00 00	 call	 @__security_check_cookie@4
  00027	b8 00 00 00 00	 mov	 eax, OFFSET __ehfuncinfo$?UpdateAttackBoxByStruct@ioLuciferAirGrapWeapon@@IAEXM_N@Z
  0002c	e9 00 00 00 00	 jmp	 ___CxxFrameHandler3
text$x	ENDS
?UpdateAttackBoxByStruct@ioLuciferAirGrapWeapon@@IAEXM_N@Z ENDP ; ioLuciferAirGrapWeapon::UpdateAttackBoxByStruct
PUBLIC	?UpdateAttackBoxByDummyChar@ioLuciferAirGrapWeapon@@IAEXM_N@Z ; ioLuciferAirGrapWeapon::UpdateAttackBoxByDummyChar
;	COMDAT xdata$x
; File c:\program files (x86)\microsoft directx sdk (june 2010)\include\d3dx9math.inl
xdata$x	SEGMENT
__unwindtable$?UpdateAttackBoxByDummyChar@ioLuciferAirGrapWeapon@@IAEXM_N@Z DD 0ffffffffH
	DD	FLAT:__unwindfunclet$?UpdateAttackBoxByDummyChar@ioLuciferAirGrapWeapon@@IAEXM_N@Z$1
__ehfuncinfo$?UpdateAttackBoxByDummyChar@ioLuciferAirGrapWeapon@@IAEXM_N@Z DD 019930522H
	DD	01H
	DD	FLAT:__unwindtable$?UpdateAttackBoxByDummyChar@ioLuciferAirGrapWeapon@@IAEXM_N@Z
	DD	2 DUP(00H)
	DD	2 DUP(00H)
	DD	00H
	DD	01H
; Function compile flags: /Ogsp
; File d:\lost saga for developer\youtube\tutorial\source\src\lsclient\ioluciferairgrapweapon.cpp
xdata$x	ENDS
;	COMDAT ?UpdateAttackBoxByDummyChar@ioLuciferAirGrapWeapon@@IAEXM_N@Z
_TEXT	SEGMENT
_pDummy$ = -176						; size = 4
tv1114 = -172						; size = 4
tv1101 = -172						; size = 4
tv1097 = -172						; size = 4
tv1093 = -172						; size = 4
tv1089 = -172						; size = 4
tv1084 = -172						; size = 4
tv1074 = -172						; size = 4
tv1065 = -172						; size = 4
tv1055 = -172						; size = 4
tv1007 = -172						; size = 4
tv1002 = -172						; size = 4
tv998 = -172						; size = 4
tv967 = -172						; size = 4
tv963 = -172						; size = 4
tv959 = -172						; size = 4
tv239 = -172						; size = 4
$T585713 = -168						; size = 4
$T585699 = -168						; size = 4
_fLerpRate$583455 = -168				; size = 4
_dwCurTime$ = -168					; size = 4
$T583453 = -164						; size = 68
_kCurAttackBox$583466 = -96				; size = 68
_vAxis$ = -28						; size = 12
__$EHRec$ = -12						; size = 12
_fTimePerSec$ = 8					; size = 4
_bSetNull$ = 12						; size = 1
?UpdateAttackBoxByDummyChar@ioLuciferAirGrapWeapon@@IAEXM_N@Z PROC ; ioLuciferAirGrapWeapon::UpdateAttackBoxByDummyChar, COMDAT
; _this$ = ecx

; 379  : {

  00000	68 a4 00 00 00	 push	 164			; 000000a4H
  00005	b8 00 00 00 00	 mov	 eax, __ehhandler$?UpdateAttackBoxByDummyChar@ioLuciferAirGrapWeapon@@IAEXM_N@Z
  0000a	e8 00 00 00 00	 call	 __EH_prolog3_GS
  0000f	8b d9		 mov	 ebx, ecx

; 380  : 	ioDummyChar *pDummy = g_DummyCharMgr.FindDummyChar( GetOwner(), m_iDummyIndex );

  00011	ff b3 98 05 00
	00		 push	 DWORD PTR [ebx+1432]
  00017	e8 00 00 00 00	 call	 ?GetOwner@ioWeapon@@QBEPAVioBaseChar@@XZ ; ioWeapon::GetOwner
  0001c	50		 push	 eax
  0001d	e8 00 00 00 00	 call	 ?GetSingleton@ioDummyCharManager@@SAAAV1@XZ ; ioDummyCharManager::GetSingleton
  00022	8b c8		 mov	 ecx, eax
  00024	e8 00 00 00 00	 call	 ?FindDummyChar@ioDummyCharManager@@QAEPAVioDummyChar@@PAVioBaseChar@@H@Z ; ioDummyCharManager::FindDummyChar

; 381  : 
; 382  : 	if( bSetNull || !pDummy || !IsLive() )

  00029	80 7d 0c 00	 cmp	 BYTE PTR _bSetNull$[ebp], 0
  0002d	89 85 50 ff ff
	ff		 mov	 DWORD PTR _pDummy$[ebp], eax
  00033	0f 85 2a 06 00
	00		 jne	 $LN14@UpdateAtta@2
  00039	85 c0		 test	 eax, eax
  0003b	0f 84 22 06 00
	00		 je	 $LN14@UpdateAtta@2
  00041	80 bb 82 05 00
	00 00		 cmp	 BYTE PTR [ebx+1410], 0
  00048	0f 84 15 06 00
	00		 je	 $LN14@UpdateAtta@2

; 388  : 		return;
; 389  : 	}
; 390  : 
; 391  : 	m_PreAttackBox = m_WorldAttackBox;

  0004e	6a 11		 push	 17			; 00000011H
  00050	59		 pop	 ecx
  00051	8d b3 e8 04 00
	00		 lea	 esi, DWORD PTR [ebx+1256]
  00057	8d bb 94 08 00
	00		 lea	 edi, DWORD PTR [ebx+2196]
  0005d	f3 a5		 rep movsd

; 392  : 
; 393  : 	DWORD dwLooseTime = 0;
; 394  : 	DWORD dwCurTime = FRAMEGETTIME();

  0005f	ff 15 00 00 00
	00		 call	 DWORD PTR __imp_?GetSingleton@ioFrameTimer@@SAAAV1@XZ
  00065	8b c8		 mov	 ecx, eax
  00067	ff 15 00 00 00
	00		 call	 DWORD PTR __imp_?GetLoopSec@ioFrameTimer@@QBEKXZ

; 395  : 	DWORD dwLiveEndTime = m_dwCreatedTime + m_dwLiveTime + dwLooseTime;

  0006d	8b b3 d4 04 00
	00		 mov	 esi, DWORD PTR [ebx+1236]
  00073	03 b3 d8 04 00
	00		 add	 esi, DWORD PTR [ebx+1240]
  00079	89 85 58 ff ff
	ff		 mov	 DWORD PTR _dwCurTime$[ebp], eax

; 396  : 	DWORD dwFrameEndTime = dwCurTime + (DWORD)( fTimePerSec * FLOAT1000 );

  0007f	b8 e8 03 00 00	 mov	 eax, 1000		; 000003e8H
  00084	89 85 54 ff ff
	ff		 mov	 DWORD PTR tv1114[ebp], eax
  0008a	db 85 54 ff ff
	ff		 fild	 DWORD PTR tv1114[ebp]
  00090	85 c0		 test	 eax, eax
  00092	79 06		 jns	 SHORT $LN61@UpdateAtta@2
  00094	d8 05 00 00 00
	00		 fadd	 DWORD PTR __real@4f800000
$LN61@UpdateAtta@2:
  0009a	d8 4d 08	 fmul	 DWORD PTR _fTimePerSec$[ebp]
  0009d	e8 00 00 00 00	 call	 __ftol2
  000a2	8b 8d 58 ff ff
	ff		 mov	 ecx, DWORD PTR _dwCurTime$[ebp]
  000a8	03 c1		 add	 eax, ecx

; 397  : 	D3DXVECTOR3 vAxis;
; 398  : 
; 399  : 	if( dwLiveEndTime >= dwFrameEndTime )

  000aa	3b f0		 cmp	 esi, eax
  000ac	72 35		 jb	 SHORT $LN13@UpdateAtta@2

; 400  : 	{
; 401  : 		m_WorldAttackBox = pDummy->GetAttackCollisionBox( m_CollisionType );

  000ae	8b 8d 50 ff ff
	ff		 mov	 ecx, DWORD PTR _pDummy$[ebp]
  000b4	8b 01		 mov	 eax, DWORD PTR [ecx]
  000b6	6a 00		 push	 0
  000b8	ff b3 b0 04 00
	00		 push	 DWORD PTR [ebx+1200]
  000be	8d 95 5c ff ff
	ff		 lea	 edx, DWORD PTR $T583453[ebp]
  000c4	52		 push	 edx
  000c5	ff 90 94 00 00
	00		 call	 DWORD PTR [eax+148]
  000cb	6a 11		 push	 17			; 00000011H
  000cd	59		 pop	 ecx
  000ce	8b f0		 mov	 esi, eax
  000d0	8d bb e8 04 00
	00		 lea	 edi, DWORD PTR [ebx+1256]
  000d6	f3 a5		 rep movsd
  000d8	8d 8d 5c ff ff
	ff		 lea	 ecx, DWORD PTR $T583453[ebp]

; 402  : 	}
; 403  : 	else	//    .

  000de	e9 e9 02 00 00	 jmp	 $LN74@UpdateAtta@2
$LN13@UpdateAtta@2:

; 404  : 	{
; 405  : 		float fLerpRate = 0.0f;
; 406  : 		if( m_dwCreatedTime >= dwCurTime )	//   . 1  .

  000e3	8b 93 d4 04 00
	00		 mov	 edx, DWORD PTR [ebx+1236]
  000e9	3b d1		 cmp	 edx, ecx
  000eb	72 26		 jb	 SHORT $LN11@UpdateAtta@2

; 407  : 		{
; 408  : 			fLerpRate = (float)(m_dwLiveTime+dwLooseTime) / (float)( dwFrameEndTime - m_dwCreatedTime );

  000ed	8b 8b d8 04 00
	00		 mov	 ecx, DWORD PTR [ebx+1240]
  000f3	db 83 d8 04 00
	00		 fild	 DWORD PTR [ebx+1240]
  000f9	85 c9		 test	 ecx, ecx
  000fb	79 06		 jns	 SHORT $LN62@UpdateAtta@2
  000fd	d8 05 00 00 00
	00		 fadd	 DWORD PTR __real@4f800000
$LN62@UpdateAtta@2:
  00103	2b c2		 sub	 eax, edx
  00105	89 85 54 ff ff
	ff		 mov	 DWORD PTR tv1097[ebp], eax
  0010b	db 85 54 ff ff
	ff		 fild	 DWORD PTR tv1097[ebp]

; 409  : 		}
; 410  : 		else	//  .

  00111	eb 24		 jmp	 SHORT $LN76@UpdateAtta@2
$LN11@UpdateAtta@2:

; 411  : 		{
; 412  : 			fLerpRate = (float)(dwLiveEndTime - dwCurTime)/(float)( dwFrameEndTime - dwCurTime );

  00113	2b f1		 sub	 esi, ecx
  00115	89 b5 54 ff ff
	ff		 mov	 DWORD PTR tv1093[ebp], esi
  0011b	db 85 54 ff ff
	ff		 fild	 DWORD PTR tv1093[ebp]
  00121	79 06		 jns	 SHORT $LN64@UpdateAtta@2
  00123	d8 05 00 00 00
	00		 fadd	 DWORD PTR __real@4f800000
$LN64@UpdateAtta@2:
  00129	2b c1		 sub	 eax, ecx
  0012b	89 85 54 ff ff
	ff		 mov	 DWORD PTR tv1089[ebp], eax
  00131	db 85 54 ff ff
	ff		 fild	 DWORD PTR tv1089[ebp]
$LN76@UpdateAtta@2:
  00137	79 06		 jns	 SHORT $LN65@UpdateAtta@2
  00139	d8 05 00 00 00
	00		 fadd	 DWORD PTR __real@4f800000
$LN65@UpdateAtta@2:
  0013f	de f9		 fdivp	 ST(1), ST(0)
  00141	d9 9d 58 ff ff
	ff		 fstp	 DWORD PTR _fLerpRate$583455[ebp]

; 413  : 		}
; 414  : 
; 415  : 		fLerpRate = max( 0.0f, min( FLOAT1, fLerpRate ) );

  00147	b8 01 00 00 00	 mov	 eax, 1
  0014c	89 85 54 ff ff
	ff		 mov	 DWORD PTR tv1084[ebp], eax
  00152	db 85 54 ff ff
	ff		 fild	 DWORD PTR tv1084[ebp]
  00158	85 c0		 test	 eax, eax
  0015a	79 06		 jns	 SHORT $LN66@UpdateAtta@2
  0015c	d8 05 00 00 00
	00		 fadd	 DWORD PTR __real@4f800000
$LN66@UpdateAtta@2:
  00162	d9 85 58 ff ff
	ff		 fld	 DWORD PTR _fLerpRate$583455[ebp]
  00168	df f1		 fcomip	 ST(1)
  0016a	dd d8		 fstp	 ST(0)
  0016c	76 2b		 jbe	 SHORT $LN18@UpdateAtta@2
  0016e	b8 01 00 00 00	 mov	 eax, 1
  00173	89 85 54 ff ff
	ff		 mov	 DWORD PTR tv1074[ebp], eax
  00179	db 85 54 ff ff
	ff		 fild	 DWORD PTR tv1074[ebp]
  0017f	85 c0		 test	 eax, eax
  00181	79 06		 jns	 SHORT $LN67@UpdateAtta@2
  00183	d8 05 00 00 00
	00		 fadd	 DWORD PTR __real@4f800000
$LN67@UpdateAtta@2:
  00189	d9 9d 54 ff ff
	ff		 fstp	 DWORD PTR tv239[ebp]
  0018f	f3 0f 10 85 54
	ff ff ff	 movss	 xmm0, DWORD PTR tv239[ebp]
  00197	eb 08		 jmp	 SHORT $LN19@UpdateAtta@2
$LN18@UpdateAtta@2:
  00199	f3 0f 10 85 58
	ff ff ff	 movss	 xmm0, DWORD PTR _fLerpRate$583455[ebp]
$LN19@UpdateAtta@2:
  001a1	0f 57 c9	 xorps	 xmm1, xmm1
  001a4	0f 5a c0	 cvtps2pd xmm0, xmm0
  001a7	66 0f 2f c8	 comisd	 xmm1, xmm0
  001ab	76 0d		 jbe	 SHORT $LN22@UpdateAtta@2
  001ad	0f 57 c0	 xorps	 xmm0, xmm0
  001b0	f3 0f 11 85 58
	ff ff ff	 movss	 DWORD PTR _fLerpRate$583455[ebp], xmm0
  001b8	eb 48		 jmp	 SHORT $LN20@UpdateAtta@2
$LN22@UpdateAtta@2:
  001ba	b8 01 00 00 00	 mov	 eax, 1
  001bf	89 85 54 ff ff
	ff		 mov	 DWORD PTR tv1065[ebp], eax
  001c5	db 85 54 ff ff
	ff		 fild	 DWORD PTR tv1065[ebp]
  001cb	85 c0		 test	 eax, eax
  001cd	79 06		 jns	 SHORT $LN68@UpdateAtta@2
  001cf	d8 05 00 00 00
	00		 fadd	 DWORD PTR __real@4f800000
$LN68@UpdateAtta@2:
  001d5	d9 85 58 ff ff
	ff		 fld	 DWORD PTR _fLerpRate$583455[ebp]
  001db	df f1		 fcomip	 ST(1)
  001dd	dd d8		 fstp	 ST(0)
  001df	76 21		 jbe	 SHORT $LN20@UpdateAtta@2
  001e1	b8 01 00 00 00	 mov	 eax, 1
  001e6	89 85 54 ff ff
	ff		 mov	 DWORD PTR tv1055[ebp], eax
  001ec	db 85 54 ff ff
	ff		 fild	 DWORD PTR tv1055[ebp]
  001f2	85 c0		 test	 eax, eax
  001f4	79 06		 jns	 SHORT $LN69@UpdateAtta@2
  001f6	d8 05 00 00 00
	00		 fadd	 DWORD PTR __real@4f800000
$LN69@UpdateAtta@2:
  001fc	d9 9d 58 ff ff
	ff		 fstp	 DWORD PTR _fLerpRate$583455[ebp]
$LN20@UpdateAtta@2:

; 416  : 
; 417  : 		ioOrientBox kCurAttackBox = pDummy->GetAttackCollisionBox( m_CollisionType );

  00202	8b 8d 50 ff ff
	ff		 mov	 ecx, DWORD PTR _pDummy$[ebp]
  00208	8b 01		 mov	 eax, DWORD PTR [ecx]
  0020a	33 ff		 xor	 edi, edi
  0020c	57		 push	 edi
  0020d	ff b3 b0 04 00
	00		 push	 DWORD PTR [ebx+1200]
  00213	8d 55 a0	 lea	 edx, DWORD PTR _kCurAttackBox$583466[ebp]
  00216	52		 push	 edx
  00217	ff 90 94 00 00
	00		 call	 DWORD PTR [eax+148]
  0021d	89 7d fc	 mov	 DWORD PTR __$EHRec$[ebp+8], edi
$LL9@UpdateAtta@2:

; 418  : 
; 419  : 		for( int i=0 ; i<3 ; i++ )
; 420  : 		{
; 421  : 			D3DXVec3Lerp( &vAxis, &m_PreAttackBox.GetAxis(i), &kCurAttackBox.GetAxis(i), fLerpRate );

  00220	57		 push	 edi
  00221	8d 4d a0	 lea	 ecx, DWORD PTR _kCurAttackBox$583466[ebp]
  00224	ff 15 00 00 00
	00		 call	 DWORD PTR __imp_?GetAxis@ioOrientBox@@QBEABUD3DXVECTOR3@@H@Z
  0022a	57		 push	 edi
  0022b	8d 8b 94 08 00
	00		 lea	 ecx, DWORD PTR [ebx+2196]
  00231	8b f0		 mov	 esi, eax
  00233	ff 15 00 00 00
	00		 call	 DWORD PTR __imp_?GetAxis@ioOrientBox@@QBEABUD3DXVECTOR3@@H@Z
  00239	f3 0f 10 00	 movss	 xmm0, DWORD PTR [eax]
  0023d	f3 0f 10 0e	 movss	 xmm1, DWORD PTR [esi]
  00241	0f 5a d0	 cvtps2pd xmm2, xmm0
  00244	0f 5a c9	 cvtps2pd xmm1, xmm1
  00247	f2 0f 5c ca	 subsd	 xmm1, xmm2
  0024b	f3 0f 10 95 58
	ff ff ff	 movss	 xmm2, DWORD PTR _fLerpRate$583455[ebp]
  00253	0f 5a c0	 cvtps2pd xmm0, xmm0
  00256	0f 5a d2	 cvtps2pd xmm2, xmm2
  00259	f2 0f 59 ca	 mulsd	 xmm1, xmm2
  0025d	f2 0f 58 c8	 addsd	 xmm1, xmm0
  00261	0f 57 c0	 xorps	 xmm0, xmm0
  00264	66 0f 5a c1	 cvtpd2ps xmm0, xmm1
  00268	f3 0f 11 45 e4	 movss	 DWORD PTR _vAxis$[ebp], xmm0
  0026d	f3 0f 10 40 04	 movss	 xmm0, DWORD PTR [eax+4]
  00272	f3 0f 10 4e 04	 movss	 xmm1, DWORD PTR [esi+4]
  00277	0f 5a d0	 cvtps2pd xmm2, xmm0
  0027a	0f 5a c9	 cvtps2pd xmm1, xmm1
  0027d	f2 0f 5c ca	 subsd	 xmm1, xmm2
  00281	f3 0f 10 95 58
	ff ff ff	 movss	 xmm2, DWORD PTR _fLerpRate$583455[ebp]
  00289	0f 5a c0	 cvtps2pd xmm0, xmm0
  0028c	0f 5a d2	 cvtps2pd xmm2, xmm2
  0028f	f2 0f 59 ca	 mulsd	 xmm1, xmm2
  00293	f2 0f 58 c8	 addsd	 xmm1, xmm0
  00297	0f 57 c0	 xorps	 xmm0, xmm0
  0029a	66 0f 5a c1	 cvtpd2ps xmm0, xmm1
  0029e	f3 0f 11 45 e8	 movss	 DWORD PTR _vAxis$[ebp+4], xmm0
  002a3	f3 0f 10 40 08	 movss	 xmm0, DWORD PTR [eax+8]
  002a8	f3 0f 10 4e 08	 movss	 xmm1, DWORD PTR [esi+8]
  002ad	0f 5a d0	 cvtps2pd xmm2, xmm0
  002b0	0f 5a c9	 cvtps2pd xmm1, xmm1
  002b3	f2 0f 5c ca	 subsd	 xmm1, xmm2
  002b7	f3 0f 10 95 58
	ff ff ff	 movss	 xmm2, DWORD PTR _fLerpRate$583455[ebp]
  002bf	0f 5a c0	 cvtps2pd xmm0, xmm0

; 422  : 			D3DXVec3Normalize( &vAxis, &vAxis );

  002c2	8d 45 e4	 lea	 eax, DWORD PTR _vAxis$[ebp]
  002c5	0f 5a d2	 cvtps2pd xmm2, xmm2
  002c8	f2 0f 59 ca	 mulsd	 xmm1, xmm2
  002cc	f2 0f 58 c8	 addsd	 xmm1, xmm0
  002d0	50		 push	 eax
  002d1	0f 57 c0	 xorps	 xmm0, xmm0
  002d4	66 0f 5a c1	 cvtpd2ps xmm0, xmm1
  002d8	50		 push	 eax
  002d9	f3 0f 11 45 ec	 movss	 DWORD PTR _vAxis$[ebp+8], xmm0
  002de	e8 00 00 00 00	 call	 _D3DXVec3Normalize@8

; 423  : 			m_WorldAttackBox.SetAxis( i, vAxis );

  002e3	8d 45 e4	 lea	 eax, DWORD PTR _vAxis$[ebp]
  002e6	50		 push	 eax
  002e7	57		 push	 edi
  002e8	8d 8b e8 04 00
	00		 lea	 ecx, DWORD PTR [ebx+1256]
  002ee	ff 15 00 00 00
	00		 call	 DWORD PTR __imp_?SetAxis@ioOrientBox@@QAEXHABUD3DXVECTOR3@@@Z
  002f4	47		 inc	 edi
  002f5	83 ff 03	 cmp	 edi, 3
  002f8	0f 8c 22 ff ff
	ff		 jl	 $LL9@UpdateAtta@2

; 424  : 		}
; 425  : 
; 426  : 		D3DXVec3Lerp( &vAxis, &m_PreAttackBox.GetCenter(), &kCurAttackBox.GetCenter(), fLerpRate );

  002fe	8d 4d a0	 lea	 ecx, DWORD PTR _kCurAttackBox$583466[ebp]
  00301	ff 15 00 00 00
	00		 call	 DWORD PTR __imp_?GetCenter@ioOrientBox@@QBEABUD3DXVECTOR3@@XZ
  00307	8d 8b 94 08 00
	00		 lea	 ecx, DWORD PTR [ebx+2196]
  0030d	8b f0		 mov	 esi, eax
  0030f	ff 15 00 00 00
	00		 call	 DWORD PTR __imp_?GetCenter@ioOrientBox@@QBEABUD3DXVECTOR3@@XZ
  00315	f3 0f 10 00	 movss	 xmm0, DWORD PTR [eax]
  00319	f3 0f 10 0e	 movss	 xmm1, DWORD PTR [esi]
  0031d	0f 5a d0	 cvtps2pd xmm2, xmm0
  00320	0f 5a c9	 cvtps2pd xmm1, xmm1
  00323	f2 0f 5c ca	 subsd	 xmm1, xmm2
  00327	f3 0f 10 95 58
	ff ff ff	 movss	 xmm2, DWORD PTR _fLerpRate$583455[ebp]
  0032f	0f 5a c0	 cvtps2pd xmm0, xmm0
  00332	0f 5a d2	 cvtps2pd xmm2, xmm2
  00335	f2 0f 59 ca	 mulsd	 xmm1, xmm2
  00339	f2 0f 58 c8	 addsd	 xmm1, xmm0
  0033d	0f 57 c0	 xorps	 xmm0, xmm0
  00340	66 0f 5a c1	 cvtpd2ps xmm0, xmm1
  00344	f3 0f 11 45 e4	 movss	 DWORD PTR _vAxis$[ebp], xmm0
  00349	f3 0f 10 40 04	 movss	 xmm0, DWORD PTR [eax+4]
  0034e	f3 0f 10 4e 04	 movss	 xmm1, DWORD PTR [esi+4]
  00353	0f 5a d0	 cvtps2pd xmm2, xmm0
  00356	0f 5a c9	 cvtps2pd xmm1, xmm1
  00359	f2 0f 5c ca	 subsd	 xmm1, xmm2
  0035d	f3 0f 10 95 58
	ff ff ff	 movss	 xmm2, DWORD PTR _fLerpRate$583455[ebp]
  00365	0f 5a c0	 cvtps2pd xmm0, xmm0
  00368	0f 5a d2	 cvtps2pd xmm2, xmm2
  0036b	f2 0f 59 ca	 mulsd	 xmm1, xmm2
  0036f	f2 0f 58 c8	 addsd	 xmm1, xmm0
  00373	0f 57 c0	 xorps	 xmm0, xmm0
  00376	66 0f 5a c1	 cvtpd2ps xmm0, xmm1
  0037a	f3 0f 11 45 e8	 movss	 DWORD PTR _vAxis$[ebp+4], xmm0
  0037f	f3 0f 10 40 08	 movss	 xmm0, DWORD PTR [eax+8]
  00384	f3 0f 10 4e 08	 movss	 xmm1, DWORD PTR [esi+8]
  00389	0f 5a d0	 cvtps2pd xmm2, xmm0
  0038c	0f 5a c9	 cvtps2pd xmm1, xmm1
  0038f	f2 0f 5c ca	 subsd	 xmm1, xmm2
  00393	f3 0f 10 95 58
	ff ff ff	 movss	 xmm2, DWORD PTR _fLerpRate$583455[ebp]
  0039b	0f 5a c0	 cvtps2pd xmm0, xmm0
  0039e	0f 5a d2	 cvtps2pd xmm2, xmm2
  003a1	f2 0f 59 ca	 mulsd	 xmm1, xmm2
  003a5	f2 0f 58 c8	 addsd	 xmm1, xmm0

; 427  : 		m_WorldAttackBox.SetCenter( vAxis );

  003a9	8d 45 e4	 lea	 eax, DWORD PTR _vAxis$[ebp]
  003ac	0f 57 c0	 xorps	 xmm0, xmm0
  003af	66 0f 5a c1	 cvtpd2ps xmm0, xmm1
  003b3	50		 push	 eax
  003b4	8d 8b e8 04 00
	00		 lea	 ecx, DWORD PTR [ebx+1256]
  003ba	f3 0f 11 45 ec	 movss	 DWORD PTR _vAxis$[ebp+8], xmm0
  003bf	ff 15 00 00 00
	00		 call	 DWORD PTR __imp_?SetCenter@ioOrientBox@@QAEXABUD3DXVECTOR3@@@Z

; 428  : 	}

  003c5	83 4d fc ff	 or	 DWORD PTR __$EHRec$[ebp+8], -1
  003c9	8d 4d a0	 lea	 ecx, DWORD PTR _kCurAttackBox$583466[ebp]
$LN74@UpdateAtta@2:
  003cc	ff 15 00 00 00
	00		 call	 DWORD PTR __imp_??1ioOrientBox@@QAE@XZ

; 429  : 
; 430  : 	for( int i=0 ; i<3 ; i++ )

  003d2	33 f6		 xor	 esi, esi
$LL6@UpdateAtta@2:

; 431  : 	{
; 432  : 		D3DXVec3Lerp( &vAxis, &m_PreAttackBox.GetAxis(i), &m_WorldAttackBox.GetAxis(i), FLOAT05 );

  003d4	b8 05 00 00 00	 mov	 eax, 5
  003d9	8b c8		 mov	 ecx, eax
  003db	b8 0a 00 00 00	 mov	 eax, 10			; 0000000aH
  003e0	89 8d 54 ff ff
	ff		 mov	 DWORD PTR tv1007[ebp], ecx
  003e6	db 85 54 ff ff
	ff		 fild	 DWORD PTR tv1007[ebp]
  003ec	85 c9		 test	 ecx, ecx
  003ee	79 06		 jns	 SHORT $LN70@UpdateAtta@2
  003f0	d8 05 00 00 00
	00		 fadd	 DWORD PTR __real@4f800000
$LN70@UpdateAtta@2:
  003f6	89 85 54 ff ff
	ff		 mov	 DWORD PTR tv1002[ebp], eax
  003fc	db 85 54 ff ff
	ff		 fild	 DWORD PTR tv1002[ebp]
  00402	85 c0		 test	 eax, eax
  00404	79 06		 jns	 SHORT $LN71@UpdateAtta@2
  00406	d8 05 00 00 00
	00		 fadd	 DWORD PTR __real@4f800000
$LN71@UpdateAtta@2:
  0040c	de f9		 fdivp	 ST(1), ST(0)
  0040e	56		 push	 esi
  0040f	8d 8b e8 04 00
	00		 lea	 ecx, DWORD PTR [ebx+1256]
  00415	d9 9d 54 ff ff
	ff		 fstp	 DWORD PTR tv998[ebp]
  0041b	d9 85 54 ff ff
	ff		 fld	 DWORD PTR tv998[ebp]
  00421	d9 9d 58 ff ff
	ff		 fstp	 DWORD PTR $T585699[ebp]
  00427	ff 15 00 00 00
	00		 call	 DWORD PTR __imp_?GetAxis@ioOrientBox@@QBEABUD3DXVECTOR3@@H@Z
  0042d	56		 push	 esi
  0042e	8d 8b 94 08 00
	00		 lea	 ecx, DWORD PTR [ebx+2196]
  00434	8b f8		 mov	 edi, eax
  00436	ff 15 00 00 00
	00		 call	 DWORD PTR __imp_?GetAxis@ioOrientBox@@QBEABUD3DXVECTOR3@@H@Z
  0043c	f3 0f 10 00	 movss	 xmm0, DWORD PTR [eax]
  00440	f3 0f 10 0f	 movss	 xmm1, DWORD PTR [edi]
  00444	0f 5a d0	 cvtps2pd xmm2, xmm0
  00447	0f 5a c9	 cvtps2pd xmm1, xmm1
  0044a	f2 0f 5c ca	 subsd	 xmm1, xmm2
  0044e	f3 0f 10 95 58
	ff ff ff	 movss	 xmm2, DWORD PTR $T585699[ebp]
  00456	0f 5a c0	 cvtps2pd xmm0, xmm0
  00459	0f 5a d2	 cvtps2pd xmm2, xmm2
  0045c	f2 0f 59 ca	 mulsd	 xmm1, xmm2
  00460	f2 0f 58 c8	 addsd	 xmm1, xmm0
  00464	0f 57 c0	 xorps	 xmm0, xmm0
  00467	66 0f 5a c1	 cvtpd2ps xmm0, xmm1
  0046b	f3 0f 11 45 e4	 movss	 DWORD PTR _vAxis$[ebp], xmm0
  00470	f3 0f 10 40 04	 movss	 xmm0, DWORD PTR [eax+4]
  00475	f3 0f 10 4f 04	 movss	 xmm1, DWORD PTR [edi+4]
  0047a	0f 5a d0	 cvtps2pd xmm2, xmm0
  0047d	0f 5a c9	 cvtps2pd xmm1, xmm1
  00480	f2 0f 5c ca	 subsd	 xmm1, xmm2
  00484	f3 0f 10 95 58
	ff ff ff	 movss	 xmm2, DWORD PTR $T585699[ebp]
  0048c	0f 5a c0	 cvtps2pd xmm0, xmm0
  0048f	0f 5a d2	 cvtps2pd xmm2, xmm2
  00492	f2 0f 59 ca	 mulsd	 xmm1, xmm2
  00496	f2 0f 58 c8	 addsd	 xmm1, xmm0
  0049a	0f 57 c0	 xorps	 xmm0, xmm0
  0049d	66 0f 5a c1	 cvtpd2ps xmm0, xmm1
  004a1	f3 0f 11 45 e8	 movss	 DWORD PTR _vAxis$[ebp+4], xmm0
  004a6	f3 0f 10 40 08	 movss	 xmm0, DWORD PTR [eax+8]
  004ab	f3 0f 10 4f 08	 movss	 xmm1, DWORD PTR [edi+8]
  004b0	0f 5a d0	 cvtps2pd xmm2, xmm0
  004b3	0f 5a c9	 cvtps2pd xmm1, xmm1
  004b6	f2 0f 5c ca	 subsd	 xmm1, xmm2
  004ba	f3 0f 10 95 58
	ff ff ff	 movss	 xmm2, DWORD PTR $T585699[ebp]
  004c2	0f 5a c0	 cvtps2pd xmm0, xmm0

; 433  : 		D3DXVec3Normalize( &vAxis, &vAxis );

  004c5	8d 45 e4	 lea	 eax, DWORD PTR _vAxis$[ebp]
  004c8	0f 5a d2	 cvtps2pd xmm2, xmm2
  004cb	f2 0f 59 ca	 mulsd	 xmm1, xmm2
  004cf	f2 0f 58 c8	 addsd	 xmm1, xmm0
  004d3	50		 push	 eax
  004d4	0f 57 c0	 xorps	 xmm0, xmm0
  004d7	66 0f 5a c1	 cvtpd2ps xmm0, xmm1
  004db	50		 push	 eax
  004dc	f3 0f 11 45 ec	 movss	 DWORD PTR _vAxis$[ebp+8], xmm0
  004e1	e8 00 00 00 00	 call	 _D3DXVec3Normalize@8

; 434  : 		m_MidAttackBox.SetAxis( i, vAxis );

  004e6	8d 45 e4	 lea	 eax, DWORD PTR _vAxis$[ebp]
  004e9	50		 push	 eax
  004ea	56		 push	 esi
  004eb	8d 8b d8 08 00
	00		 lea	 ecx, DWORD PTR [ebx+2264]
  004f1	ff 15 00 00 00
	00		 call	 DWORD PTR __imp_?SetAxis@ioOrientBox@@QAEXHABUD3DXVECTOR3@@@Z

; 435  : 		m_MidAttackBox.SetExtents( i, m_WorldAttackBox.GetExtents(i) );

  004f7	56		 push	 esi
  004f8	8d 8b e8 04 00
	00		 lea	 ecx, DWORD PTR [ebx+1256]
  004fe	ff 15 00 00 00
	00		 call	 DWORD PTR __imp_?GetExtents@ioOrientBox@@QBEMH@Z
  00504	51		 push	 ecx
  00505	d9 1c 24	 fstp	 DWORD PTR [esp]
  00508	56		 push	 esi
  00509	8d 8b d8 08 00
	00		 lea	 ecx, DWORD PTR [ebx+2264]
  0050f	ff 15 00 00 00
	00		 call	 DWORD PTR __imp_?SetExtents@ioOrientBox@@QAEXHM@Z
  00515	46		 inc	 esi
  00516	83 fe 03	 cmp	 esi, 3
  00519	0f 8c b5 fe ff
	ff		 jl	 $LL6@UpdateAtta@2

; 436  : 	}
; 437  : 
; 438  : 	D3DXVec3Lerp( &vAxis, &m_PreAttackBox.GetCenter(), &m_WorldAttackBox.GetCenter(), FLOAT05 );

  0051f	b8 05 00 00 00	 mov	 eax, 5
  00524	8b c8		 mov	 ecx, eax
  00526	b8 0a 00 00 00	 mov	 eax, 10			; 0000000aH
  0052b	89 8d 54 ff ff
	ff		 mov	 DWORD PTR tv967[ebp], ecx
  00531	db 85 54 ff ff
	ff		 fild	 DWORD PTR tv967[ebp]
  00537	85 c9		 test	 ecx, ecx
  00539	79 06		 jns	 SHORT $LN72@UpdateAtta@2
  0053b	d8 05 00 00 00
	00		 fadd	 DWORD PTR __real@4f800000
$LN72@UpdateAtta@2:
  00541	89 85 54 ff ff
	ff		 mov	 DWORD PTR tv963[ebp], eax
  00547	db 85 54 ff ff
	ff		 fild	 DWORD PTR tv963[ebp]
  0054d	85 c0		 test	 eax, eax
  0054f	79 06		 jns	 SHORT $LN73@UpdateAtta@2
  00551	d8 05 00 00 00
	00		 fadd	 DWORD PTR __real@4f800000
$LN73@UpdateAtta@2:
  00557	de f9		 fdivp	 ST(1), ST(0)
  00559	8d b3 e8 04 00
	00		 lea	 esi, DWORD PTR [ebx+1256]
  0055f	8b ce		 mov	 ecx, esi
  00561	d9 9d 54 ff ff
	ff		 fstp	 DWORD PTR tv959[ebp]
  00567	d9 85 54 ff ff
	ff		 fld	 DWORD PTR tv959[ebp]
  0056d	d9 9d 58 ff ff
	ff		 fstp	 DWORD PTR $T585713[ebp]
  00573	ff 15 00 00 00
	00		 call	 DWORD PTR __imp_?GetCenter@ioOrientBox@@QBEABUD3DXVECTOR3@@XZ
  00579	8d 8b 94 08 00
	00		 lea	 ecx, DWORD PTR [ebx+2196]
  0057f	8b f8		 mov	 edi, eax
  00581	ff 15 00 00 00
	00		 call	 DWORD PTR __imp_?GetCenter@ioOrientBox@@QBEABUD3DXVECTOR3@@XZ
  00587	f3 0f 10 00	 movss	 xmm0, DWORD PTR [eax]
  0058b	f3 0f 10 0f	 movss	 xmm1, DWORD PTR [edi]
  0058f	0f 5a d0	 cvtps2pd xmm2, xmm0
  00592	0f 5a c9	 cvtps2pd xmm1, xmm1
  00595	f2 0f 5c ca	 subsd	 xmm1, xmm2
  00599	f3 0f 10 95 58
	ff ff ff	 movss	 xmm2, DWORD PTR $T585713[ebp]
  005a1	0f 5a c0	 cvtps2pd xmm0, xmm0
  005a4	0f 5a d2	 cvtps2pd xmm2, xmm2
  005a7	f2 0f 59 ca	 mulsd	 xmm1, xmm2
  005ab	f2 0f 58 c8	 addsd	 xmm1, xmm0
  005af	0f 57 c0	 xorps	 xmm0, xmm0
  005b2	66 0f 5a c1	 cvtpd2ps xmm0, xmm1
  005b6	f3 0f 11 45 e4	 movss	 DWORD PTR _vAxis$[ebp], xmm0
  005bb	f3 0f 10 40 04	 movss	 xmm0, DWORD PTR [eax+4]
  005c0	f3 0f 10 4f 04	 movss	 xmm1, DWORD PTR [edi+4]
  005c5	0f 5a d0	 cvtps2pd xmm2, xmm0
  005c8	0f 5a c9	 cvtps2pd xmm1, xmm1
  005cb	f2 0f 5c ca	 subsd	 xmm1, xmm2
  005cf	f3 0f 10 95 58
	ff ff ff	 movss	 xmm2, DWORD PTR $T585713[ebp]
  005d7	0f 5a c0	 cvtps2pd xmm0, xmm0
  005da	0f 5a d2	 cvtps2pd xmm2, xmm2
  005dd	f2 0f 59 ca	 mulsd	 xmm1, xmm2
  005e1	f2 0f 58 c8	 addsd	 xmm1, xmm0
  005e5	0f 57 c0	 xorps	 xmm0, xmm0
  005e8	66 0f 5a c1	 cvtpd2ps xmm0, xmm1
  005ec	f3 0f 11 45 e8	 movss	 DWORD PTR _vAxis$[ebp+4], xmm0
  005f1	f3 0f 10 40 08	 movss	 xmm0, DWORD PTR [eax+8]
  005f6	f3 0f 10 4f 08	 movss	 xmm1, DWORD PTR [edi+8]
  005fb	0f 5a d0	 cvtps2pd xmm2, xmm0
  005fe	0f 5a c9	 cvtps2pd xmm1, xmm1
  00601	f2 0f 5c ca	 subsd	 xmm1, xmm2
  00605	f3 0f 10 95 58
	ff ff ff	 movss	 xmm2, DWORD PTR $T585713[ebp]
  0060d	0f 5a c0	 cvtps2pd xmm0, xmm0
  00610	0f 5a d2	 cvtps2pd xmm2, xmm2
  00613	f2 0f 59 ca	 mulsd	 xmm1, xmm2

; 439  : 	m_MidAttackBox.SetCenter( vAxis );

  00617	8d 45 e4	 lea	 eax, DWORD PTR _vAxis$[ebp]
  0061a	f2 0f 58 c8	 addsd	 xmm1, xmm0
  0061e	50		 push	 eax
  0061f	66 0f 5a c1	 cvtpd2ps xmm0, xmm1
  00623	8d 8b d8 08 00
	00		 lea	 ecx, DWORD PTR [ebx+2264]
  00629	f3 0f 11 45 ec	 movss	 DWORD PTR _vAxis$[ebp+8], xmm0
  0062e	ff 15 00 00 00
	00		 call	 DWORD PTR __imp_?SetCenter@ioOrientBox@@QAEXABUD3DXVECTOR3@@@Z

; 440  : 
; 441  : 	if( m_UpdateState == CONTACT_CREATED )

  00634	33 c9		 xor	 ecx, ecx
  00636	39 8b 20 09 00
	00		 cmp	 DWORD PTR [ebx+2336], ecx

; 442  : 		m_UpdateState = CONTACT_FIRST;
; 443  : 	else
; 444  : 		m_UpdateState = CONTACT_NORMAL;
; 445  : 
; 446  : 	m_WorldAttackBoxForMap = m_WorldAttackBox;

  0063c	6a 11		 push	 17			; 00000011H
  0063e	0f 95 c1	 setne	 cl
  00641	8d bb 2c 05 00
	00		 lea	 edi, DWORD PTR [ebx+1324]
  00647	41		 inc	 ecx

; 447  : 
; 448  : 	if( m_bFirstCheck )

  00648	80 bb 1c 09 00
	00 00		 cmp	 BYTE PTR [ebx+2332], 0
  0064f	89 8b 20 09 00
	00		 mov	 DWORD PTR [ebx+2336], ecx
  00655	59		 pop	 ecx
  00656	f3 a5		 rep movsd
  00658	74 2f		 je	 SHORT $LN1@UpdateAtta@2

; 449  : 	{
; 450  : 		m_bFirstCheck = false;

  0065a	c6 83 1c 09 00
	00 00		 mov	 BYTE PTR [ebx+2332], 0
  00661	eb 26		 jmp	 SHORT $LN1@UpdateAtta@2
$LN14@UpdateAtta@2:

; 383  : 	{
; 384  : 		m_PreAttackBox.SetNull();

  00663	8b 35 00 00 00
	00		 mov	 esi, DWORD PTR __imp_?SetNull@ioOrientBox@@QAEXXZ
  00669	8d 8b 94 08 00
	00		 lea	 ecx, DWORD PTR [ebx+2196]
  0066f	ff d6		 call	 esi

; 385  : 		m_MidAttackBox.SetNull();

  00671	8d 8b d8 08 00
	00		 lea	 ecx, DWORD PTR [ebx+2264]
  00677	ff d6		 call	 esi

; 386  : 		m_WorldAttackBox.SetNull();

  00679	8d 8b e8 04 00
	00		 lea	 ecx, DWORD PTR [ebx+1256]
  0067f	ff d6		 call	 esi

; 387  : 		m_WorldAttackBoxForMap.SetNull();

  00681	8d 8b 2c 05 00
	00		 lea	 ecx, DWORD PTR [ebx+1324]
  00687	ff d6		 call	 esi
$LN1@UpdateAtta@2:

; 451  : 	}
; 452  : }

  00689	e8 00 00 00 00	 call	 __EH_epilog3_GS
  0068e	c2 08 00	 ret	 8
_TEXT	ENDS
;	COMDAT text$x
text$x	SEGMENT
__unwindfunclet$?UpdateAttackBoxByDummyChar@ioLuciferAirGrapWeapon@@IAEXM_N@Z$1:
  00000	8d 4d a0	 lea	 ecx, DWORD PTR _kCurAttackBox$583466[ebp]
  00003	ff 25 00 00 00
	00		 jmp	 DWORD PTR __imp_??1ioOrientBox@@QAE@XZ
__ehhandler$?UpdateAttackBoxByDummyChar@ioLuciferAirGrapWeapon@@IAEXM_N@Z:
  00009	8b 54 24 08	 mov	 edx, DWORD PTR [esp+8]
  0000d	8d 42 0c	 lea	 eax, DWORD PTR [edx+12]
  00010	8b 8a 4c ff ff
	ff		 mov	 ecx, DWORD PTR [edx-180]
  00016	33 c8		 xor	 ecx, eax
  00018	e8 00 00 00 00	 call	 @__security_check_cookie@4
  0001d	8b 4a fc	 mov	 ecx, DWORD PTR [edx-4]
  00020	33 c8		 xor	 ecx, eax
  00022	e8 00 00 00 00	 call	 @__security_check_cookie@4
  00027	b8 00 00 00 00	 mov	 eax, OFFSET __ehfuncinfo$?UpdateAttackBoxByDummyChar@ioLuciferAirGrapWeapon@@IAEXM_N@Z
  0002c	e9 00 00 00 00	 jmp	 ___CxxFrameHandler3
text$x	ENDS
?UpdateAttackBoxByDummyChar@ioLuciferAirGrapWeapon@@IAEXM_N@Z ENDP ; ioLuciferAirGrapWeapon::UpdateAttackBoxByDummyChar
PUBLIC	?UpdateAttackBoxByMachine@ioLuciferAirGrapWeapon@@IAEXM_N@Z ; ioLuciferAirGrapWeapon::UpdateAttackBoxByMachine
;	COMDAT xdata$x
; File c:\program files (x86)\microsoft directx sdk (june 2010)\include\d3dx9math.inl
xdata$x	SEGMENT
__unwindtable$?UpdateAttackBoxByMachine@ioLuciferAirGrapWeapon@@IAEXM_N@Z DD 0ffffffffH
	DD	FLAT:__unwindfunclet$?UpdateAttackBoxByMachine@ioLuciferAirGrapWeapon@@IAEXM_N@Z$1
__ehfuncinfo$?UpdateAttackBoxByMachine@ioLuciferAirGrapWeapon@@IAEXM_N@Z DD 019930522H
	DD	01H
	DD	FLAT:__unwindtable$?UpdateAttackBoxByMachine@ioLuciferAirGrapWeapon@@IAEXM_N@Z
	DD	2 DUP(00H)
	DD	2 DUP(00H)
	DD	00H
	DD	01H
; Function compile flags: /Ogsp
; File d:\lost saga for developer\youtube\tutorial\source\src\lsclient\ioluciferairgrapweapon.cpp
xdata$x	ENDS
;	COMDAT ?UpdateAttackBoxByMachine@ioLuciferAirGrapWeapon@@IAEXM_N@Z
_TEXT	SEGMENT
_pMachine$ = -184					; size = 4
tv1125 = -180						; size = 4
tv1112 = -180						; size = 4
tv1001 = -180						; size = 4
tv962 = -180						; size = 4
_fEndGap$ = -180					; size = 4
_fPreTime$ = -180					; size = 4
tv1108 = -176						; size = 4
tv1097 = -176						; size = 4
tv1094 = -176						; size = 4
tv1087 = -176						; size = 4
tv1077 = -176						; size = 4
tv1067 = -176						; size = 4
tv1058 = -176						; size = 4
tv1009 = -176						; size = 4
tv1005 = -176						; size = 4
tv970 = -176						; size = 4
tv966 = -176						; size = 4
$T585816 = -172						; size = 4
$T585802 = -172						; size = 4
tv240 = -172						; size = 4
_fFrameGap$ = -172					; size = 4
_fLerpRate$583534 = -168				; size = 4
_dwCurTime$ = -168					; size = 4
$T583532 = -164						; size = 68
_kCurAttackBox$583543 = -96				; size = 68
_vAxis$ = -28						; size = 12
__$EHRec$ = -12						; size = 12
_fTimePerSec$ = 8					; size = 4
_bSetNull$ = 12						; size = 1
?UpdateAttackBoxByMachine@ioLuciferAirGrapWeapon@@IAEXM_N@Z PROC ; ioLuciferAirGrapWeapon::UpdateAttackBoxByMachine, COMDAT
; _this$ = ecx

; 512  : {

  00000	68 ac 00 00 00	 push	 172			; 000000acH
  00005	b8 00 00 00 00	 mov	 eax, __ehhandler$?UpdateAttackBoxByMachine@ioLuciferAirGrapWeapon@@IAEXM_N@Z
  0000a	e8 00 00 00 00	 call	 __EH_prolog3_GS
  0000f	8b d9		 mov	 ebx, ecx

; 513  : 	ioMachineStruct *pMachine = g_MachineStructMgr.FindMachineStruct( m_iMachineIndex );

  00011	ff b3 90 05 00
	00		 push	 DWORD PTR [ebx+1424]
  00017	e8 00 00 00 00	 call	 ?GetSingleton@ioMachineStructMgr@@SAAAV1@XZ ; ioMachineStructMgr::GetSingleton
  0001c	8b c8		 mov	 ecx, eax
  0001e	e8 00 00 00 00	 call	 ?FindMachineStruct@ioMachineStructMgr@@QAEPAVioMachineStruct@@H@Z ; ioMachineStructMgr::FindMachineStruct

; 514  : 
; 515  : 	if( bSetNull || !pMachine || !IsLive() )

  00023	80 7d 0c 00	 cmp	 BYTE PTR _bSetNull$[ebp], 0
  00027	89 85 48 ff ff
	ff		 mov	 DWORD PTR _pMachine$[ebp], eax
  0002d	0f 85 8d 06 00
	00		 jne	 $LN14@UpdateAtta@3
  00033	85 c0		 test	 eax, eax
  00035	0f 84 85 06 00
	00		 je	 $LN14@UpdateAtta@3
  0003b	80 bb 82 05 00
	00 00		 cmp	 BYTE PTR [ebx+1410], 0
  00042	0f 84 78 06 00
	00		 je	 $LN14@UpdateAtta@3

; 521  : 		return;
; 522  : 	}
; 523  : 
; 524  : 	m_PreAttackBox = m_WorldAttackBox;

  00048	6a 11		 push	 17			; 00000011H
  0004a	8d b3 e8 04 00
	00		 lea	 esi, DWORD PTR [ebx+1256]
  00050	8d bb 94 08 00
	00		 lea	 edi, DWORD PTR [ebx+2196]
  00056	59		 pop	 ecx
  00057	f3 a5		 rep movsd

; 525  : 
; 526  : 	DWORD dwLooseTime = 0;
; 527  : 
; 528  : 	float fFrameGap = fTimePerSec * FLOAT1000;

  00059	b8 e8 03 00 00	 mov	 eax, 1000		; 000003e8H
  0005e	89 85 4c ff ff
	ff		 mov	 DWORD PTR tv1125[ebp], eax
  00064	db 85 4c ff ff
	ff		 fild	 DWORD PTR tv1125[ebp]
  0006a	85 c0		 test	 eax, eax
  0006c	79 06		 jns	 SHORT $LN61@UpdateAtta@3
  0006e	d8 05 00 00 00
	00		 fadd	 DWORD PTR __real@4f800000
$LN61@UpdateAtta@3:
  00074	d8 4d 08	 fmul	 DWORD PTR _fTimePerSec$[ebp]
  00077	d9 9d 54 ff ff
	ff		 fstp	 DWORD PTR _fFrameGap$[ebp]

; 529  : 	DWORD dwCurTime = FRAMEGETTIME();

  0007d	ff 15 00 00 00
	00		 call	 DWORD PTR __imp_?GetSingleton@ioFrameTimer@@SAAAV1@XZ
  00083	8b c8		 mov	 ecx, eax
  00085	ff 15 00 00 00
	00		 call	 DWORD PTR __imp_?GetLoopSec@ioFrameTimer@@QBEKXZ

; 530  : 	DWORD dwLiveEndTime = m_dwCreatedTime + m_dwLiveTime + dwLooseTime;
; 531  : 	DWORD dwFrameEndTime = dwCurTime + (DWORD)fFrameGap;

  0008b	d9 85 54 ff ff
	ff		 fld	 DWORD PTR _fFrameGap$[ebp]
  00091	8b bb d8 04 00
	00		 mov	 edi, DWORD PTR [ebx+1240]
  00097	8b b3 d4 04 00
	00		 mov	 esi, DWORD PTR [ebx+1236]
  0009d	89 85 58 ff ff
	ff		 mov	 DWORD PTR _dwCurTime$[ebp], eax
  000a3	e8 00 00 00 00	 call	 __ftol2

; 532  : 
; 533  : 	float fPreTime = (float)dwCurTime - fFrameGap;

  000a8	db 85 58 ff ff
	ff		 fild	 DWORD PTR _dwCurTime$[ebp]
  000ae	8b 8d 58 ff ff
	ff		 mov	 ecx, DWORD PTR _dwCurTime$[ebp]
  000b4	03 85 58 ff ff
	ff		 add	 eax, DWORD PTR _dwCurTime$[ebp]
  000ba	85 c9		 test	 ecx, ecx
  000bc	79 06		 jns	 SHORT $LN62@UpdateAtta@3
  000be	d8 05 00 00 00
	00		 fadd	 DWORD PTR __real@4f800000
$LN62@UpdateAtta@3:
  000c4	d8 a5 54 ff ff
	ff		 fsub	 DWORD PTR _fFrameGap$[ebp]

; 534  : 	float fEndGap = (float)dwLiveEndTime - fPreTime;

  000ca	8d 0c 3e	 lea	 ecx, DWORD PTR [esi+edi]
  000cd	8b d1		 mov	 edx, ecx
  000cf	89 95 50 ff ff
	ff		 mov	 DWORD PTR tv1108[ebp], edx
  000d5	d9 9d 4c ff ff
	ff		 fstp	 DWORD PTR _fPreTime$[ebp]
  000db	db 85 50 ff ff
	ff		 fild	 DWORD PTR tv1108[ebp]
  000e1	85 d2		 test	 edx, edx
  000e3	79 06		 jns	 SHORT $LN63@UpdateAtta@3
  000e5	d8 05 00 00 00
	00		 fadd	 DWORD PTR __real@4f800000
$LN63@UpdateAtta@3:
  000eb	d8 a5 4c ff ff
	ff		 fsub	 DWORD PTR _fPreTime$[ebp]
  000f1	d9 9d 4c ff ff
	ff		 fstp	 DWORD PTR _fEndGap$[ebp]

; 535  : 
; 536  : 	D3DXVECTOR3 vAxis;
; 537  : 
; 538  : 	if( dwLiveEndTime >= dwFrameEndTime )

  000f7	3b c8		 cmp	 ecx, eax
  000f9	72 35		 jb	 SHORT $LN13@UpdateAtta@3

; 539  : 	{
; 540  : 		m_WorldAttackBox = pMachine->GetAttackCollisionBox( m_CollisionType );

  000fb	8b 8d 48 ff ff
	ff		 mov	 ecx, DWORD PTR _pMachine$[ebp]
  00101	8b 01		 mov	 eax, DWORD PTR [ecx]
  00103	6a 00		 push	 0
  00105	ff b3 b0 04 00
	00		 push	 DWORD PTR [ebx+1200]
  0010b	8d 95 5c ff ff
	ff		 lea	 edx, DWORD PTR $T583532[ebp]
  00111	52		 push	 edx
  00112	ff 90 94 00 00
	00		 call	 DWORD PTR [eax+148]
  00118	6a 11		 push	 17			; 00000011H
  0011a	59		 pop	 ecx
  0011b	8b f0		 mov	 esi, eax
  0011d	8d bb e8 04 00
	00		 lea	 edi, DWORD PTR [ebx+1256]
  00123	f3 a5		 rep movsd
  00125	8d 8d 5c ff ff
	ff		 lea	 ecx, DWORD PTR $T583532[ebp]

; 541  : 	}
; 542  : 	else	//    .

  0012b	e9 f9 02 00 00	 jmp	 $LN74@UpdateAtta@3
$LN13@UpdateAtta@3:

; 543  : 	{
; 544  : 		float fLerpRate = 0.0f;
; 545  : 		if( m_dwCreatedTime >= dwCurTime )	//   . 1  .

  00130	3b b5 58 ff ff
	ff		 cmp	 esi, DWORD PTR _dwCurTime$[ebp]
  00136	72 36		 jb	 SHORT $LN11@UpdateAtta@3

; 546  : 		{
; 547  : 			fLerpRate = (float)(m_dwLiveTime+dwLooseTime) / (float)( dwFrameEndTime - m_dwCreatedTime );

  00138	89 bd 50 ff ff
	ff		 mov	 DWORD PTR tv1097[ebp], edi
  0013e	db 85 50 ff ff
	ff		 fild	 DWORD PTR tv1097[ebp]
  00144	85 ff		 test	 edi, edi
  00146	79 06		 jns	 SHORT $LN64@UpdateAtta@3
  00148	d8 05 00 00 00
	00		 fadd	 DWORD PTR __real@4f800000
$LN64@UpdateAtta@3:
  0014e	2b c6		 sub	 eax, esi
  00150	89 85 50 ff ff
	ff		 mov	 DWORD PTR tv1094[ebp], eax
  00156	db 85 50 ff ff
	ff		 fild	 DWORD PTR tv1094[ebp]
  0015c	79 06		 jns	 SHORT $LN65@UpdateAtta@3
  0015e	d8 05 00 00 00
	00		 fadd	 DWORD PTR __real@4f800000
$LN65@UpdateAtta@3:
  00164	de f9		 fdivp	 ST(1), ST(0)
  00166	d9 9d 58 ff ff
	ff		 fstp	 DWORD PTR _fLerpRate$583534[ebp]

; 548  : 		}
; 549  : 		else	//  .

  0016c	eb 2e		 jmp	 SHORT $LN10@UpdateAtta@3
$LN11@UpdateAtta@3:

; 550  : 		{
; 551  : 			fLerpRate = fEndGap / (2 * fFrameGap);

  0016e	f3 0f 10 8d 54
	ff ff ff	 movss	 xmm1, DWORD PTR _fFrameGap$[ebp]
  00176	f3 0f 10 85 4c
	ff ff ff	 movss	 xmm0, DWORD PTR _fEndGap$[ebp]
  0017e	0f 5a c0	 cvtps2pd xmm0, xmm0
  00181	0f 5a c9	 cvtps2pd xmm1, xmm1
  00184	f2 0f 59 0d 00
	00 00 00	 mulsd	 xmm1, QWORD PTR __real@4000000000000000
  0018c	f2 0f 5e c1	 divsd	 xmm0, xmm1
  00190	66 0f 5a c0	 cvtpd2ps xmm0, xmm0
  00194	f3 0f 11 85 58
	ff ff ff	 movss	 DWORD PTR _fLerpRate$583534[ebp], xmm0
$LN10@UpdateAtta@3:

; 552  : 		}
; 553  : 
; 554  : 		fLerpRate = max( 0.0f, min( FLOAT1, fLerpRate ) );

  0019c	b8 01 00 00 00	 mov	 eax, 1
  001a1	89 85 50 ff ff
	ff		 mov	 DWORD PTR tv1087[ebp], eax
  001a7	db 85 50 ff ff
	ff		 fild	 DWORD PTR tv1087[ebp]
  001ad	85 c0		 test	 eax, eax
  001af	79 06		 jns	 SHORT $LN66@UpdateAtta@3
  001b1	d8 05 00 00 00
	00		 fadd	 DWORD PTR __real@4f800000
$LN66@UpdateAtta@3:
  001b7	d9 85 58 ff ff
	ff		 fld	 DWORD PTR _fLerpRate$583534[ebp]
  001bd	df f1		 fcomip	 ST(1)
  001bf	dd d8		 fstp	 ST(0)
  001c1	76 23		 jbe	 SHORT $LN18@UpdateAtta@3
  001c3	b8 01 00 00 00	 mov	 eax, 1
  001c8	89 85 50 ff ff
	ff		 mov	 DWORD PTR tv1077[ebp], eax
  001ce	db 85 50 ff ff
	ff		 fild	 DWORD PTR tv1077[ebp]
  001d4	85 c0		 test	 eax, eax
  001d6	79 06		 jns	 SHORT $LN67@UpdateAtta@3
  001d8	d8 05 00 00 00
	00		 fadd	 DWORD PTR __real@4f800000
$LN67@UpdateAtta@3:
  001de	d9 9d 54 ff ff
	ff		 fstp	 DWORD PTR tv240[ebp]
  001e4	eb 10		 jmp	 SHORT $LN19@UpdateAtta@3
$LN18@UpdateAtta@3:
  001e6	f3 0f 10 85 58
	ff ff ff	 movss	 xmm0, DWORD PTR _fLerpRate$583534[ebp]
  001ee	f3 0f 11 85 54
	ff ff ff	 movss	 DWORD PTR tv240[ebp], xmm0
$LN19@UpdateAtta@3:
  001f6	f3 0f 10 85 54
	ff ff ff	 movss	 xmm0, DWORD PTR tv240[ebp]
  001fe	0f 57 c9	 xorps	 xmm1, xmm1
  00201	0f 5a c0	 cvtps2pd xmm0, xmm0
  00204	66 0f 2f c8	 comisd	 xmm1, xmm0
  00208	76 0d		 jbe	 SHORT $LN22@UpdateAtta@3
  0020a	0f 57 c0	 xorps	 xmm0, xmm0
  0020d	f3 0f 11 85 58
	ff ff ff	 movss	 DWORD PTR _fLerpRate$583534[ebp], xmm0
  00215	eb 48		 jmp	 SHORT $LN20@UpdateAtta@3
$LN22@UpdateAtta@3:
  00217	b8 01 00 00 00	 mov	 eax, 1
  0021c	89 85 50 ff ff
	ff		 mov	 DWORD PTR tv1067[ebp], eax
  00222	db 85 50 ff ff
	ff		 fild	 DWORD PTR tv1067[ebp]
  00228	85 c0		 test	 eax, eax
  0022a	79 06		 jns	 SHORT $LN68@UpdateAtta@3
  0022c	d8 05 00 00 00
	00		 fadd	 DWORD PTR __real@4f800000
$LN68@UpdateAtta@3:
  00232	d9 85 58 ff ff
	ff		 fld	 DWORD PTR _fLerpRate$583534[ebp]
  00238	df f1		 fcomip	 ST(1)
  0023a	dd d8		 fstp	 ST(0)
  0023c	76 21		 jbe	 SHORT $LN20@UpdateAtta@3
  0023e	b8 01 00 00 00	 mov	 eax, 1
  00243	89 85 50 ff ff
	ff		 mov	 DWORD PTR tv1058[ebp], eax
  00249	db 85 50 ff ff
	ff		 fild	 DWORD PTR tv1058[ebp]
  0024f	85 c0		 test	 eax, eax
  00251	79 06		 jns	 SHORT $LN69@UpdateAtta@3
  00253	d8 05 00 00 00
	00		 fadd	 DWORD PTR __real@4f800000
$LN69@UpdateAtta@3:
  00259	d9 9d 58 ff ff
	ff		 fstp	 DWORD PTR _fLerpRate$583534[ebp]
$LN20@UpdateAtta@3:

; 555  : 
; 556  : 		ioOrientBox kCurAttackBox = pMachine->GetAttackCollisionBox( m_CollisionType );

  0025f	8b 8d 48 ff ff
	ff		 mov	 ecx, DWORD PTR _pMachine$[ebp]
  00265	8b 01		 mov	 eax, DWORD PTR [ecx]
  00267	33 ff		 xor	 edi, edi
  00269	57		 push	 edi
  0026a	ff b3 b0 04 00
	00		 push	 DWORD PTR [ebx+1200]
  00270	8d 55 a0	 lea	 edx, DWORD PTR _kCurAttackBox$583543[ebp]
  00273	52		 push	 edx
  00274	ff 90 94 00 00
	00		 call	 DWORD PTR [eax+148]
  0027a	89 7d fc	 mov	 DWORD PTR __$EHRec$[ebp+8], edi
$LL9@UpdateAtta@3:

; 557  : 
; 558  : 		for( int i=0 ; i<3 ; i++ )
; 559  : 		{
; 560  : 			D3DXVec3Lerp( &vAxis, &m_PreAttackBox.GetAxis(i), &kCurAttackBox.GetAxis(i), fLerpRate );

  0027d	57		 push	 edi
  0027e	8d 4d a0	 lea	 ecx, DWORD PTR _kCurAttackBox$583543[ebp]
  00281	ff 15 00 00 00
	00		 call	 DWORD PTR __imp_?GetAxis@ioOrientBox@@QBEABUD3DXVECTOR3@@H@Z
  00287	57		 push	 edi
  00288	8d 8b 94 08 00
	00		 lea	 ecx, DWORD PTR [ebx+2196]
  0028e	8b f0		 mov	 esi, eax
  00290	ff 15 00 00 00
	00		 call	 DWORD PTR __imp_?GetAxis@ioOrientBox@@QBEABUD3DXVECTOR3@@H@Z
  00296	f3 0f 10 00	 movss	 xmm0, DWORD PTR [eax]
  0029a	f3 0f 10 0e	 movss	 xmm1, DWORD PTR [esi]
  0029e	0f 5a d0	 cvtps2pd xmm2, xmm0
  002a1	0f 5a c9	 cvtps2pd xmm1, xmm1
  002a4	f2 0f 5c ca	 subsd	 xmm1, xmm2
  002a8	f3 0f 10 95 58
	ff ff ff	 movss	 xmm2, DWORD PTR _fLerpRate$583534[ebp]
  002b0	0f 5a c0	 cvtps2pd xmm0, xmm0
  002b3	0f 5a d2	 cvtps2pd xmm2, xmm2
  002b6	f2 0f 59 ca	 mulsd	 xmm1, xmm2
  002ba	f2 0f 58 c8	 addsd	 xmm1, xmm0
  002be	0f 57 c0	 xorps	 xmm0, xmm0
  002c1	66 0f 5a c1	 cvtpd2ps xmm0, xmm1
  002c5	f3 0f 11 45 e4	 movss	 DWORD PTR _vAxis$[ebp], xmm0
  002ca	f3 0f 10 40 04	 movss	 xmm0, DWORD PTR [eax+4]
  002cf	f3 0f 10 4e 04	 movss	 xmm1, DWORD PTR [esi+4]
  002d4	0f 5a d0	 cvtps2pd xmm2, xmm0
  002d7	0f 5a c9	 cvtps2pd xmm1, xmm1
  002da	f2 0f 5c ca	 subsd	 xmm1, xmm2
  002de	f3 0f 10 95 58
	ff ff ff	 movss	 xmm2, DWORD PTR _fLerpRate$583534[ebp]
  002e6	0f 5a c0	 cvtps2pd xmm0, xmm0
  002e9	0f 5a d2	 cvtps2pd xmm2, xmm2
  002ec	f2 0f 59 ca	 mulsd	 xmm1, xmm2
  002f0	f2 0f 58 c8	 addsd	 xmm1, xmm0
  002f4	0f 57 c0	 xorps	 xmm0, xmm0
  002f7	66 0f 5a c1	 cvtpd2ps xmm0, xmm1
  002fb	f3 0f 11 45 e8	 movss	 DWORD PTR _vAxis$[ebp+4], xmm0
  00300	f3 0f 10 40 08	 movss	 xmm0, DWORD PTR [eax+8]
  00305	f3 0f 10 4e 08	 movss	 xmm1, DWORD PTR [esi+8]
  0030a	0f 5a d0	 cvtps2pd xmm2, xmm0
  0030d	0f 5a c9	 cvtps2pd xmm1, xmm1
  00310	f2 0f 5c ca	 subsd	 xmm1, xmm2
  00314	f3 0f 10 95 58
	ff ff ff	 movss	 xmm2, DWORD PTR _fLerpRate$583534[ebp]
  0031c	0f 5a c0	 cvtps2pd xmm0, xmm0

; 561  : 			D3DXVec3Normalize( &vAxis, &vAxis );

  0031f	8d 45 e4	 lea	 eax, DWORD PTR _vAxis$[ebp]
  00322	0f 5a d2	 cvtps2pd xmm2, xmm2
  00325	f2 0f 59 ca	 mulsd	 xmm1, xmm2
  00329	f2 0f 58 c8	 addsd	 xmm1, xmm0
  0032d	50		 push	 eax
  0032e	0f 57 c0	 xorps	 xmm0, xmm0
  00331	66 0f 5a c1	 cvtpd2ps xmm0, xmm1
  00335	50		 push	 eax
  00336	f3 0f 11 45 ec	 movss	 DWORD PTR _vAxis$[ebp+8], xmm0
  0033b	e8 00 00 00 00	 call	 _D3DXVec3Normalize@8

; 562  : 			m_WorldAttackBox.SetAxis( i, vAxis );

  00340	8d 45 e4	 lea	 eax, DWORD PTR _vAxis$[ebp]
  00343	50		 push	 eax
  00344	57		 push	 edi
  00345	8d 8b e8 04 00
	00		 lea	 ecx, DWORD PTR [ebx+1256]
  0034b	ff 15 00 00 00
	00		 call	 DWORD PTR __imp_?SetAxis@ioOrientBox@@QAEXHABUD3DXVECTOR3@@@Z
  00351	47		 inc	 edi
  00352	83 ff 03	 cmp	 edi, 3
  00355	0f 8c 22 ff ff
	ff		 jl	 $LL9@UpdateAtta@3

; 563  : 		}
; 564  : 
; 565  : 		D3DXVec3Lerp( &vAxis, &m_PreAttackBox.GetCenter(), &kCurAttackBox.GetCenter(), fLerpRate );

  0035b	8d 4d a0	 lea	 ecx, DWORD PTR _kCurAttackBox$583543[ebp]
  0035e	ff 15 00 00 00
	00		 call	 DWORD PTR __imp_?GetCenter@ioOrientBox@@QBEABUD3DXVECTOR3@@XZ
  00364	8d 8b 94 08 00
	00		 lea	 ecx, DWORD PTR [ebx+2196]
  0036a	8b f0		 mov	 esi, eax
  0036c	ff 15 00 00 00
	00		 call	 DWORD PTR __imp_?GetCenter@ioOrientBox@@QBEABUD3DXVECTOR3@@XZ
  00372	f3 0f 10 00	 movss	 xmm0, DWORD PTR [eax]
  00376	f3 0f 10 0e	 movss	 xmm1, DWORD PTR [esi]
  0037a	0f 5a d0	 cvtps2pd xmm2, xmm0
  0037d	0f 5a c9	 cvtps2pd xmm1, xmm1
  00380	f2 0f 5c ca	 subsd	 xmm1, xmm2
  00384	f3 0f 10 95 58
	ff ff ff	 movss	 xmm2, DWORD PTR _fLerpRate$583534[ebp]
  0038c	0f 5a c0	 cvtps2pd xmm0, xmm0
  0038f	0f 5a d2	 cvtps2pd xmm2, xmm2
  00392	f2 0f 59 ca	 mulsd	 xmm1, xmm2
  00396	f2 0f 58 c8	 addsd	 xmm1, xmm0
  0039a	0f 57 c0	 xorps	 xmm0, xmm0
  0039d	66 0f 5a c1	 cvtpd2ps xmm0, xmm1
  003a1	f3 0f 11 45 e4	 movss	 DWORD PTR _vAxis$[ebp], xmm0
  003a6	f3 0f 10 40 04	 movss	 xmm0, DWORD PTR [eax+4]
  003ab	f3 0f 10 4e 04	 movss	 xmm1, DWORD PTR [esi+4]
  003b0	0f 5a d0	 cvtps2pd xmm2, xmm0
  003b3	0f 5a c9	 cvtps2pd xmm1, xmm1
  003b6	f2 0f 5c ca	 subsd	 xmm1, xmm2
  003ba	f3 0f 10 95 58
	ff ff ff	 movss	 xmm2, DWORD PTR _fLerpRate$583534[ebp]
  003c2	0f 5a c0	 cvtps2pd xmm0, xmm0
  003c5	0f 5a d2	 cvtps2pd xmm2, xmm2
  003c8	f2 0f 59 ca	 mulsd	 xmm1, xmm2
  003cc	f2 0f 58 c8	 addsd	 xmm1, xmm0
  003d0	0f 57 c0	 xorps	 xmm0, xmm0
  003d3	66 0f 5a c1	 cvtpd2ps xmm0, xmm1
  003d7	f3 0f 11 45 e8	 movss	 DWORD PTR _vAxis$[ebp+4], xmm0
  003dc	f3 0f 10 40 08	 movss	 xmm0, DWORD PTR [eax+8]
  003e1	f3 0f 10 4e 08	 movss	 xmm1, DWORD PTR [esi+8]
  003e6	0f 5a d0	 cvtps2pd xmm2, xmm0
  003e9	0f 5a c9	 cvtps2pd xmm1, xmm1
  003ec	f2 0f 5c ca	 subsd	 xmm1, xmm2
  003f0	f3 0f 10 95 58
	ff ff ff	 movss	 xmm2, DWORD PTR _fLerpRate$583534[ebp]
  003f8	0f 5a c0	 cvtps2pd xmm0, xmm0
  003fb	0f 5a d2	 cvtps2pd xmm2, xmm2
  003fe	f2 0f 59 ca	 mulsd	 xmm1, xmm2
  00402	f2 0f 58 c8	 addsd	 xmm1, xmm0

; 566  : 		m_WorldAttackBox.SetCenter( vAxis );

  00406	8d 45 e4	 lea	 eax, DWORD PTR _vAxis$[ebp]
  00409	0f 57 c0	 xorps	 xmm0, xmm0
  0040c	66 0f 5a c1	 cvtpd2ps xmm0, xmm1
  00410	50		 push	 eax
  00411	8d 8b e8 04 00
	00		 lea	 ecx, DWORD PTR [ebx+1256]
  00417	f3 0f 11 45 ec	 movss	 DWORD PTR _vAxis$[ebp+8], xmm0
  0041c	ff 15 00 00 00
	00		 call	 DWORD PTR __imp_?SetCenter@ioOrientBox@@QAEXABUD3DXVECTOR3@@@Z

; 567  : 	}

  00422	83 4d fc ff	 or	 DWORD PTR __$EHRec$[ebp+8], -1
  00426	8d 4d a0	 lea	 ecx, DWORD PTR _kCurAttackBox$583543[ebp]
$LN74@UpdateAtta@3:
  00429	ff 15 00 00 00
	00		 call	 DWORD PTR __imp_??1ioOrientBox@@QAE@XZ

; 568  : 
; 569  : 	for( int i=0 ; i<3 ; i++ )

  0042f	33 f6		 xor	 esi, esi
$LL6@UpdateAtta@3:

; 570  : 	{
; 571  : 		D3DXVec3Lerp( &vAxis, &m_PreAttackBox.GetAxis(i), &m_WorldAttackBox.GetAxis(i), FLOAT05 );

  00431	b8 05 00 00 00	 mov	 eax, 5
  00436	8b c8		 mov	 ecx, eax
  00438	b8 0a 00 00 00	 mov	 eax, 10			; 0000000aH
  0043d	89 8d 50 ff ff
	ff		 mov	 DWORD PTR tv1009[ebp], ecx
  00443	db 85 50 ff ff
	ff		 fild	 DWORD PTR tv1009[ebp]
  00449	85 c9		 test	 ecx, ecx
  0044b	79 06		 jns	 SHORT $LN70@UpdateAtta@3
  0044d	d8 05 00 00 00
	00		 fadd	 DWORD PTR __real@4f800000
$LN70@UpdateAtta@3:
  00453	89 85 50 ff ff
	ff		 mov	 DWORD PTR tv1005[ebp], eax
  00459	db 85 50 ff ff
	ff		 fild	 DWORD PTR tv1005[ebp]
  0045f	85 c0		 test	 eax, eax
  00461	79 06		 jns	 SHORT $LN71@UpdateAtta@3
  00463	d8 05 00 00 00
	00		 fadd	 DWORD PTR __real@4f800000
$LN71@UpdateAtta@3:
  00469	de f9		 fdivp	 ST(1), ST(0)
  0046b	56		 push	 esi
  0046c	8d 8b e8 04 00
	00		 lea	 ecx, DWORD PTR [ebx+1256]
  00472	d9 9d 4c ff ff
	ff		 fstp	 DWORD PTR tv1001[ebp]
  00478	d9 85 4c ff ff
	ff		 fld	 DWORD PTR tv1001[ebp]
  0047e	d9 9d 54 ff ff
	ff		 fstp	 DWORD PTR $T585802[ebp]
  00484	ff 15 00 00 00
	00		 call	 DWORD PTR __imp_?GetAxis@ioOrientBox@@QBEABUD3DXVECTOR3@@H@Z
  0048a	56		 push	 esi
  0048b	8d 8b 94 08 00
	00		 lea	 ecx, DWORD PTR [ebx+2196]
  00491	8b f8		 mov	 edi, eax
  00493	ff 15 00 00 00
	00		 call	 DWORD PTR __imp_?GetAxis@ioOrientBox@@QBEABUD3DXVECTOR3@@H@Z
  00499	f3 0f 10 00	 movss	 xmm0, DWORD PTR [eax]
  0049d	f3 0f 10 0f	 movss	 xmm1, DWORD PTR [edi]
  004a1	0f 5a d0	 cvtps2pd xmm2, xmm0
  004a4	0f 5a c9	 cvtps2pd xmm1, xmm1
  004a7	f2 0f 5c ca	 subsd	 xmm1, xmm2
  004ab	f3 0f 10 95 54
	ff ff ff	 movss	 xmm2, DWORD PTR $T585802[ebp]
  004b3	0f 5a c0	 cvtps2pd xmm0, xmm0
  004b6	0f 5a d2	 cvtps2pd xmm2, xmm2
  004b9	f2 0f 59 ca	 mulsd	 xmm1, xmm2
  004bd	f2 0f 58 c8	 addsd	 xmm1, xmm0
  004c1	0f 57 c0	 xorps	 xmm0, xmm0
  004c4	66 0f 5a c1	 cvtpd2ps xmm0, xmm1
  004c8	f3 0f 11 45 e4	 movss	 DWORD PTR _vAxis$[ebp], xmm0
  004cd	f3 0f 10 40 04	 movss	 xmm0, DWORD PTR [eax+4]
  004d2	f3 0f 10 4f 04	 movss	 xmm1, DWORD PTR [edi+4]
  004d7	0f 5a d0	 cvtps2pd xmm2, xmm0
  004da	0f 5a c9	 cvtps2pd xmm1, xmm1
  004dd	f2 0f 5c ca	 subsd	 xmm1, xmm2
  004e1	f3 0f 10 95 54
	ff ff ff	 movss	 xmm2, DWORD PTR $T585802[ebp]
  004e9	0f 5a c0	 cvtps2pd xmm0, xmm0
  004ec	0f 5a d2	 cvtps2pd xmm2, xmm2
  004ef	f2 0f 59 ca	 mulsd	 xmm1, xmm2
  004f3	f2 0f 58 c8	 addsd	 xmm1, xmm0
  004f7	0f 57 c0	 xorps	 xmm0, xmm0
  004fa	66 0f 5a c1	 cvtpd2ps xmm0, xmm1
  004fe	f3 0f 11 45 e8	 movss	 DWORD PTR _vAxis$[ebp+4], xmm0
  00503	f3 0f 10 40 08	 movss	 xmm0, DWORD PTR [eax+8]
  00508	f3 0f 10 4f 08	 movss	 xmm1, DWORD PTR [edi+8]
  0050d	0f 5a d0	 cvtps2pd xmm2, xmm0
  00510	0f 5a c9	 cvtps2pd xmm1, xmm1
  00513	f2 0f 5c ca	 subsd	 xmm1, xmm2
  00517	f3 0f 10 95 54
	ff ff ff	 movss	 xmm2, DWORD PTR $T585802[ebp]
  0051f	0f 5a c0	 cvtps2pd xmm0, xmm0

; 572  : 		D3DXVec3Normalize( &vAxis, &vAxis );

  00522	8d 45 e4	 lea	 eax, DWORD PTR _vAxis$[ebp]
  00525	0f 5a d2	 cvtps2pd xmm2, xmm2
  00528	f2 0f 59 ca	 mulsd	 xmm1, xmm2
  0052c	f2 0f 58 c8	 addsd	 xmm1, xmm0
  00530	50		 push	 eax
  00531	0f 57 c0	 xorps	 xmm0, xmm0
  00534	66 0f 5a c1	 cvtpd2ps xmm0, xmm1
  00538	50		 push	 eax
  00539	f3 0f 11 45 ec	 movss	 DWORD PTR _vAxis$[ebp+8], xmm0
  0053e	e8 00 00 00 00	 call	 _D3DXVec3Normalize@8

; 573  : 		m_MidAttackBox.SetAxis( i, vAxis );

  00543	8d 45 e4	 lea	 eax, DWORD PTR _vAxis$[ebp]
  00546	50		 push	 eax
  00547	56		 push	 esi
  00548	8d 8b d8 08 00
	00		 lea	 ecx, DWORD PTR [ebx+2264]
  0054e	ff 15 00 00 00
	00		 call	 DWORD PTR __imp_?SetAxis@ioOrientBox@@QAEXHABUD3DXVECTOR3@@@Z

; 574  : 		m_MidAttackBox.SetExtents( i, m_WorldAttackBox.GetExtents(i) );

  00554	56		 push	 esi
  00555	8d 8b e8 04 00
	00		 lea	 ecx, DWORD PTR [ebx+1256]
  0055b	ff 15 00 00 00
	00		 call	 DWORD PTR __imp_?GetExtents@ioOrientBox@@QBEMH@Z
  00561	51		 push	 ecx
  00562	d9 1c 24	 fstp	 DWORD PTR [esp]
  00565	56		 push	 esi
  00566	8d 8b d8 08 00
	00		 lea	 ecx, DWORD PTR [ebx+2264]
  0056c	ff 15 00 00 00
	00		 call	 DWORD PTR __imp_?SetExtents@ioOrientBox@@QAEXHM@Z
  00572	46		 inc	 esi
  00573	83 fe 03	 cmp	 esi, 3
  00576	0f 8c b5 fe ff
	ff		 jl	 $LL6@UpdateAtta@3

; 575  : 	}
; 576  : 
; 577  : 	D3DXVec3Lerp( &vAxis, &m_PreAttackBox.GetCenter(), &m_WorldAttackBox.GetCenter(), FLOAT05 );

  0057c	b8 05 00 00 00	 mov	 eax, 5
  00581	8b c8		 mov	 ecx, eax
  00583	b8 0a 00 00 00	 mov	 eax, 10			; 0000000aH
  00588	89 8d 50 ff ff
	ff		 mov	 DWORD PTR tv970[ebp], ecx
  0058e	db 85 50 ff ff
	ff		 fild	 DWORD PTR tv970[ebp]
  00594	85 c9		 test	 ecx, ecx
  00596	79 06		 jns	 SHORT $LN72@UpdateAtta@3
  00598	d8 05 00 00 00
	00		 fadd	 DWORD PTR __real@4f800000
$LN72@UpdateAtta@3:
  0059e	89 85 50 ff ff
	ff		 mov	 DWORD PTR tv966[ebp], eax
  005a4	db 85 50 ff ff
	ff		 fild	 DWORD PTR tv966[ebp]
  005aa	85 c0		 test	 eax, eax
  005ac	79 06		 jns	 SHORT $LN73@UpdateAtta@3
  005ae	d8 05 00 00 00
	00		 fadd	 DWORD PTR __real@4f800000
$LN73@UpdateAtta@3:
  005b4	de f9		 fdivp	 ST(1), ST(0)
  005b6	8d b3 e8 04 00
	00		 lea	 esi, DWORD PTR [ebx+1256]
  005bc	8b ce		 mov	 ecx, esi
  005be	d9 9d 4c ff ff
	ff		 fstp	 DWORD PTR tv962[ebp]
  005c4	d9 85 4c ff ff
	ff		 fld	 DWORD PTR tv962[ebp]
  005ca	d9 9d 54 ff ff
	ff		 fstp	 DWORD PTR $T585816[ebp]
  005d0	ff 15 00 00 00
	00		 call	 DWORD PTR __imp_?GetCenter@ioOrientBox@@QBEABUD3DXVECTOR3@@XZ
  005d6	8d 8b 94 08 00
	00		 lea	 ecx, DWORD PTR [ebx+2196]
  005dc	8b f8		 mov	 edi, eax
  005de	ff 15 00 00 00
	00		 call	 DWORD PTR __imp_?GetCenter@ioOrientBox@@QBEABUD3DXVECTOR3@@XZ
  005e4	f3 0f 10 00	 movss	 xmm0, DWORD PTR [eax]
  005e8	f3 0f 10 0f	 movss	 xmm1, DWORD PTR [edi]
  005ec	0f 5a d0	 cvtps2pd xmm2, xmm0
  005ef	0f 5a c9	 cvtps2pd xmm1, xmm1
  005f2	f2 0f 5c ca	 subsd	 xmm1, xmm2
  005f6	f3 0f 10 95 54
	ff ff ff	 movss	 xmm2, DWORD PTR $T585816[ebp]
  005fe	0f 5a c0	 cvtps2pd xmm0, xmm0
  00601	0f 5a d2	 cvtps2pd xmm2, xmm2
  00604	f2 0f 59 ca	 mulsd	 xmm1, xmm2
  00608	f2 0f 58 c8	 addsd	 xmm1, xmm0
  0060c	0f 57 c0	 xorps	 xmm0, xmm0
  0060f	66 0f 5a c1	 cvtpd2ps xmm0, xmm1
  00613	f3 0f 11 45 e4	 movss	 DWORD PTR _vAxis$[ebp], xmm0
  00618	f3 0f 10 40 04	 movss	 xmm0, DWORD PTR [eax+4]
  0061d	f3 0f 10 4f 04	 movss	 xmm1, DWORD PTR [edi+4]
  00622	0f 5a d0	 cvtps2pd xmm2, xmm0
  00625	0f 5a c9	 cvtps2pd xmm1, xmm1
  00628	f2 0f 5c ca	 subsd	 xmm1, xmm2
  0062c	f3 0f 10 95 54
	ff ff ff	 movss	 xmm2, DWORD PTR $T585816[ebp]
  00634	0f 5a c0	 cvtps2pd xmm0, xmm0
  00637	0f 5a d2	 cvtps2pd xmm2, xmm2
  0063a	f2 0f 59 ca	 mulsd	 xmm1, xmm2
  0063e	f2 0f 58 c8	 addsd	 xmm1, xmm0
  00642	0f 57 c0	 xorps	 xmm0, xmm0
  00645	66 0f 5a c1	 cvtpd2ps xmm0, xmm1
  00649	f3 0f 11 45 e8	 movss	 DWORD PTR _vAxis$[ebp+4], xmm0
  0064e	f3 0f 10 40 08	 movss	 xmm0, DWORD PTR [eax+8]
  00653	f3 0f 10 4f 08	 movss	 xmm1, DWORD PTR [edi+8]
  00658	0f 5a d0	 cvtps2pd xmm2, xmm0
  0065b	0f 5a c9	 cvtps2pd xmm1, xmm1
  0065e	f2 0f 5c ca	 subsd	 xmm1, xmm2
  00662	f3 0f 10 95 54
	ff ff ff	 movss	 xmm2, DWORD PTR $T585816[ebp]
  0066a	0f 5a c0	 cvtps2pd xmm0, xmm0
  0066d	0f 5a d2	 cvtps2pd xmm2, xmm2
  00670	f2 0f 59 ca	 mulsd	 xmm1, xmm2

; 578  : 	m_MidAttackBox.SetCenter( vAxis );

  00674	8d 45 e4	 lea	 eax, DWORD PTR _vAxis$[ebp]
  00677	f2 0f 58 c8	 addsd	 xmm1, xmm0
  0067b	50		 push	 eax
  0067c	66 0f 5a c1	 cvtpd2ps xmm0, xmm1
  00680	8d 8b d8 08 00
	00		 lea	 ecx, DWORD PTR [ebx+2264]
  00686	f3 0f 11 45 ec	 movss	 DWORD PTR _vAxis$[ebp+8], xmm0
  0068b	ff 15 00 00 00
	00		 call	 DWORD PTR __imp_?SetCenter@ioOrientBox@@QAEXABUD3DXVECTOR3@@@Z

; 579  : 
; 580  : 	if( m_UpdateState == CONTACT_CREATED )

  00691	33 c9		 xor	 ecx, ecx
  00693	39 8b 20 09 00
	00		 cmp	 DWORD PTR [ebx+2336], ecx

; 581  : 		m_UpdateState = CONTACT_FIRST;
; 582  : 	else
; 583  : 		m_UpdateState = CONTACT_NORMAL;
; 584  : 
; 585  : 	m_WorldAttackBoxForMap = m_WorldAttackBox;

  00699	6a 11		 push	 17			; 00000011H
  0069b	0f 95 c1	 setne	 cl
  0069e	8d bb 2c 05 00
	00		 lea	 edi, DWORD PTR [ebx+1324]
  006a4	41		 inc	 ecx

; 586  : 
; 587  : 	if( m_bFirstCheck )

  006a5	80 bb 1c 09 00
	00 00		 cmp	 BYTE PTR [ebx+2332], 0
  006ac	89 8b 20 09 00
	00		 mov	 DWORD PTR [ebx+2336], ecx
  006b2	59		 pop	 ecx
  006b3	f3 a5		 rep movsd
  006b5	74 2f		 je	 SHORT $LN1@UpdateAtta@3

; 588  : 	{
; 589  : 		m_bFirstCheck = false;

  006b7	c6 83 1c 09 00
	00 00		 mov	 BYTE PTR [ebx+2332], 0
  006be	eb 26		 jmp	 SHORT $LN1@UpdateAtta@3
$LN14@UpdateAtta@3:

; 516  : 	{
; 517  : 		m_PreAttackBox.SetNull();

  006c0	8b 35 00 00 00
	00		 mov	 esi, DWORD PTR __imp_?SetNull@ioOrientBox@@QAEXXZ
  006c6	8d 8b 94 08 00
	00		 lea	 ecx, DWORD PTR [ebx+2196]
  006cc	ff d6		 call	 esi

; 518  : 		m_MidAttackBox.SetNull();

  006ce	8d 8b d8 08 00
	00		 lea	 ecx, DWORD PTR [ebx+2264]
  006d4	ff d6		 call	 esi

; 519  : 		m_WorldAttackBox.SetNull();

  006d6	8d 8b e8 04 00
	00		 lea	 ecx, DWORD PTR [ebx+1256]
  006dc	ff d6		 call	 esi

; 520  : 		m_WorldAttackBoxForMap.SetNull();

  006de	8d 8b 2c 05 00
	00		 lea	 ecx, DWORD PTR [ebx+1324]
  006e4	ff d6		 call	 esi
$LN1@UpdateAtta@3:

; 590  : 	}
; 591  : }

  006e6	e8 00 00 00 00	 call	 __EH_epilog3_GS
  006eb	c2 08 00	 ret	 8
_TEXT	ENDS
;	COMDAT text$x
text$x	SEGMENT
__unwindfunclet$?UpdateAttackBoxByMachine@ioLuciferAirGrapWeapon@@IAEXM_N@Z$1:
  00000	8d 4d a0	 lea	 ecx, DWORD PTR _kCurAttackBox$583543[ebp]
  00003	ff 25 00 00 00
	00		 jmp	 DWORD PTR __imp_??1ioOrientBox@@QAE@XZ
__ehhandler$?UpdateAttackBoxByMachine@ioLuciferAirGrapWeapon@@IAEXM_N@Z:
  00009	8b 54 24 08	 mov	 edx, DWORD PTR [esp+8]
  0000d	8d 42 0c	 lea	 eax, DWORD PTR [edx+12]
  00010	8b 8a 44 ff ff
	ff		 mov	 ecx, DWORD PTR [edx-188]
  00016	33 c8		 xor	 ecx, eax
  00018	e8 00 00 00 00	 call	 @__security_check_cookie@4
  0001d	8b 4a fc	 mov	 ecx, DWORD PTR [edx-4]
  00020	33 c8		 xor	 ecx, eax
  00022	e8 00 00 00 00	 call	 @__security_check_cookie@4
  00027	b8 00 00 00 00	 mov	 eax, OFFSET __ehfuncinfo$?UpdateAttackBoxByMachine@ioLuciferAirGrapWeapon@@IAEXM_N@Z
  0002c	e9 00 00 00 00	 jmp	 ___CxxFrameHandler3
text$x	ENDS
?UpdateAttackBoxByMachine@ioLuciferAirGrapWeapon@@IAEXM_N@Z ENDP ; ioLuciferAirGrapWeapon::UpdateAttackBoxByMachine
PUBLIC	?max_size@?$vector@VioOrientBox@@V?$allocator@VioOrientBox@@@std@@@std@@QBEIXZ ; std::vector<ioOrientBox,std::allocator<ioOrientBox> >::max_size
; Function compile flags: /Ogsp
; File c:\program files (x86)\microsoft visual studio 10.0\vc\include\vector
;	COMDAT ?max_size@?$vector@VioOrientBox@@V?$allocator@VioOrientBox@@@std@@@std@@QBEIXZ
_TEXT	SEGMENT
?max_size@?$vector@VioOrientBox@@V?$allocator@VioOrientBox@@@std@@@std@@QBEIXZ PROC ; std::vector<ioOrientBox,std::allocator<ioOrientBox> >::max_size, COMDAT
; _this$ = ecx

; 884  : 		return (this->_Alval.max_size());

  00000	b8 c3 c3 c3 03	 mov	 eax, 63161283		; 03c3c3c3H

; 885  : 		}

  00005	c3		 ret	 0
?max_size@?$vector@VioOrientBox@@V?$allocator@VioOrientBox@@@std@@@std@@QBEIXZ ENDP ; std::vector<ioOrientBox,std::allocator<ioOrientBox> >::max_size
_TEXT	ENDS
PUBLIC	?allocate@?$allocator@VioOrientBox@@@std@@QAEPAVioOrientBox@@I@Z ; std::allocator<ioOrientBox>::allocate
; Function compile flags: /Ogsp
; File c:\program files (x86)\microsoft visual studio 10.0\vc\include\xmemory
;	COMDAT ?allocate@?$allocator@VioOrientBox@@@std@@QAEPAVioOrientBox@@I@Z
_TEXT	SEGMENT
__Count$ = 8						; size = 4
?allocate@?$allocator@VioOrientBox@@@std@@QAEPAVioOrientBox@@I@Z PROC ; std::allocator<ioOrientBox>::allocate, COMDAT
; _this$ = ecx

; 186  : 		{	// allocate array of _Count elements

  00000	55		 push	 ebp
  00001	8b ec		 mov	 ebp, esp

; 187  : 		return (_Allocate(_Count, (pointer)0));

  00003	6a 00		 push	 0
  00005	ff 75 08	 push	 DWORD PTR __Count$[ebp]
  00008	e8 00 00 00 00	 call	 ??$_Allocate@VioOrientBox@@@std@@YAPAVioOrientBox@@IPAV1@@Z ; std::_Allocate<ioOrientBox>
  0000d	59		 pop	 ecx
  0000e	59		 pop	 ecx

; 188  : 		}

  0000f	5d		 pop	 ebp
  00010	c2 04 00	 ret	 4
?allocate@?$allocator@VioOrientBox@@@std@@QAEPAVioOrientBox@@I@Z ENDP ; std::allocator<ioOrientBox>::allocate
_TEXT	ENDS
PUBLIC	?_Grow_to@?$vector@VioOrientBox@@V?$allocator@VioOrientBox@@@std@@@std@@IBEII@Z ; std::vector<ioOrientBox,std::allocator<ioOrientBox> >::_Grow_to
; Function compile flags: /Ogsp
; File c:\program files (x86)\microsoft visual studio 10.0\vc\include\vector
;	COMDAT ?_Grow_to@?$vector@VioOrientBox@@V?$allocator@VioOrientBox@@@std@@@std@@IBEII@Z
_TEXT	SEGMENT
__Count$ = 8						; size = 4
?_Grow_to@?$vector@VioOrientBox@@V?$allocator@VioOrientBox@@@std@@@std@@IBEII@Z PROC ; std::vector<ioOrientBox,std::allocator<ioOrientBox> >::_Grow_to, COMDAT
; _this$ = ecx

; 1274 : 		{	// grow by 50% or at least to _Count

  00000	55		 push	 ebp
  00001	8b ec		 mov	 ebp, esp

; 1275 : 		size_type _Capacity = capacity();

  00003	8b 41 08	 mov	 eax, DWORD PTR [ecx+8]
  00006	2b 01		 sub	 eax, DWORD PTR [ecx]
  00008	6a 44		 push	 68			; 00000044H
  0000a	99		 cdq
  0000b	59		 pop	 ecx
  0000c	f7 f9		 idiv	 ecx

; 1276 : 
; 1277 : 		_Capacity = max_size() - _Capacity / 2 < _Capacity
; 1278 : 			? 0 : _Capacity + _Capacity / 2;	// try to grow by 50%

  0000e	ba c3 c3 c3 03	 mov	 edx, 63161283		; 03c3c3c3H
  00013	8b c8		 mov	 ecx, eax
  00015	d1 e9		 shr	 ecx, 1
  00017	2b d1		 sub	 edx, ecx
  00019	3b d0		 cmp	 edx, eax
  0001b	73 04		 jae	 SHORT $LN4@Grow_to
  0001d	33 c0		 xor	 eax, eax
  0001f	eb 02		 jmp	 SHORT $LN5@Grow_to
$LN4@Grow_to:
  00021	03 c1		 add	 eax, ecx
$LN5@Grow_to:

; 1279 : 		if (_Capacity < _Count)

  00023	3b 45 08	 cmp	 eax, DWORD PTR __Count$[ebp]

; 1280 : 			_Capacity = _Count;

  00026	0f 42 45 08	 cmovb	 eax, DWORD PTR __Count$[ebp]

; 1281 : 		return (_Capacity);
; 1282 : 		}

  0002a	5d		 pop	 ebp
  0002b	c2 04 00	 ret	 4
?_Grow_to@?$vector@VioOrientBox@@V?$allocator@VioOrientBox@@@std@@@std@@IBEII@Z ENDP ; std::vector<ioOrientBox,std::allocator<ioOrientBox> >::_Grow_to
_TEXT	ENDS
PUBLIC	__$ArrayPad$
PUBLIC	??$LoadBool_e@$0BE@@ioINILoader@@QAE_NAAY0BE@$$CBD_N@Z ; ioINILoader::LoadBool_e<20>
EXTRN	__imp_?LoadBool@ioINILoader@@QAE_NPBD_N@Z:PROC
; Function compile flags: /Ogsp
; File d:\lost saga for developer\youtube\tutorial\source\src\io3dengine\ioiniloader.h
;	COMDAT ??$LoadBool_e@$0BE@@ioINILoader@@QAE_NAAY0BE@$$CBD_N@Z
_TEXT	SEGMENT
__k$ = -28						; size = 20
__$ArrayPad$ = -4					; size = 4
_k$ = 8							; size = 4
_b$ = 12						; size = 1
??$LoadBool_e@$0BE@@ioINILoader@@QAE_NAAY0BE@$$CBD_N@Z PROC ; ioINILoader::LoadBool_e<20>, COMDAT
; _this$ = ecx

; 101  : 	{

  00000	55		 push	 ebp
  00001	8b ec		 mov	 ebp, esp
  00003	83 ec 1c	 sub	 esp, 28			; 0000001cH
  00006	a1 00 00 00 00	 mov	 eax, DWORD PTR ___security_cookie
  0000b	33 c5		 xor	 eax, ebp
  0000d	89 45 fc	 mov	 DWORD PTR __$ArrayPad$[ebp], eax
  00010	8b 45 08	 mov	 eax, DWORD PTR _k$[ebp]

; 102  : 		_ENCSTR(k, _k);

  00013	8a 10		 mov	 dl, BYTE PTR [eax]
  00015	53		 push	 ebx
  00016	56		 push	 esi
  00017	8b f1		 mov	 esi, ecx
  00019	84 d2		 test	 dl, dl
  0001b	0f 84 dd 01 00
	00		 je	 $LN96@LoadBool_e
  00021	80 f2 ed	 xor	 dl, -19			; ffffffedH
  00024	88 55 e4	 mov	 BYTE PTR __k$[ebp], dl
  00027	8a 50 01	 mov	 dl, BYTE PTR [eax+1]
  0002a	84 d2		 test	 dl, dl
  0002c	0f 84 c6 01 00
	00		 je	 $LN95@LoadBool_e
  00032	b3 ec		 mov	 bl, -20			; ffffffecH
  00034	32 d3		 xor	 dl, bl
  00036	88 55 e5	 mov	 BYTE PTR __k$[ebp+1], dl
  00039	8a 50 02	 mov	 dl, BYTE PTR [eax+2]
  0003c	84 d2		 test	 dl, dl
  0003e	0f 84 ae 01 00
	00		 je	 $LN94@LoadBool_e
  00044	b1 eb		 mov	 cl, -21			; ffffffebH
  00046	32 d1		 xor	 dl, cl
  00048	88 55 e6	 mov	 BYTE PTR __k$[ebp+2], dl
  0004b	8a 50 03	 mov	 dl, BYTE PTR [eax+3]
  0004e	84 d2		 test	 dl, dl
  00050	0f 84 96 01 00
	00		 je	 $LN93@LoadBool_e
  00056	80 f2 ea	 xor	 dl, -22			; ffffffeaH
  00059	88 55 e7	 mov	 BYTE PTR __k$[ebp+3], dl
  0005c	8a 50 04	 mov	 dl, BYTE PTR [eax+4]
  0005f	84 d2		 test	 dl, dl
  00061	0f 84 7f 01 00
	00		 je	 $LN92@LoadBool_e
  00067	80 f2 ed	 xor	 dl, -19			; ffffffedH
  0006a	88 55 e8	 mov	 BYTE PTR __k$[ebp+4], dl
  0006d	8a 50 05	 mov	 dl, BYTE PTR [eax+5]
  00070	84 d2		 test	 dl, dl
  00072	0f 84 69 01 00
	00		 je	 $LN91@LoadBool_e
  00078	32 d3		 xor	 dl, bl
  0007a	88 55 e9	 mov	 BYTE PTR __k$[ebp+5], dl
  0007d	8a 50 06	 mov	 dl, BYTE PTR [eax+6]
  00080	84 d2		 test	 dl, dl
  00082	0f 84 54 01 00
	00		 je	 $LN90@LoadBool_e
  00088	32 d1		 xor	 dl, cl
  0008a	88 55 ea	 mov	 BYTE PTR __k$[ebp+6], dl
  0008d	8a 50 07	 mov	 dl, BYTE PTR [eax+7]
  00090	84 d2		 test	 dl, dl
  00092	0f 84 3e 01 00
	00		 je	 $LN89@LoadBool_e
  00098	80 f2 ea	 xor	 dl, -22			; ffffffeaH
  0009b	88 55 eb	 mov	 BYTE PTR __k$[ebp+7], dl
  0009e	8a 50 08	 mov	 dl, BYTE PTR [eax+8]
  000a1	84 d2		 test	 dl, dl
  000a3	0f 84 27 01 00
	00		 je	 $LN88@LoadBool_e
  000a9	80 f2 ed	 xor	 dl, -19			; ffffffedH
  000ac	88 55 ec	 mov	 BYTE PTR __k$[ebp+8], dl
  000af	8a 50 09	 mov	 dl, BYTE PTR [eax+9]
  000b2	84 d2		 test	 dl, dl
  000b4	0f 84 11 01 00
	00		 je	 $LN87@LoadBool_e
  000ba	32 d3		 xor	 dl, bl
  000bc	88 55 ed	 mov	 BYTE PTR __k$[ebp+9], dl
  000bf	8a 50 0a	 mov	 dl, BYTE PTR [eax+10]
  000c2	84 d2		 test	 dl, dl
  000c4	0f 84 fc 00 00
	00		 je	 $LN86@LoadBool_e
  000ca	32 d1		 xor	 dl, cl
  000cc	88 55 ee	 mov	 BYTE PTR __k$[ebp+10], dl
  000cf	8a 50 0b	 mov	 dl, BYTE PTR [eax+11]
  000d2	84 d2		 test	 dl, dl
  000d4	0f 84 e6 00 00
	00		 je	 $LN85@LoadBool_e
  000da	80 f2 ea	 xor	 dl, -22			; ffffffeaH
  000dd	88 55 ef	 mov	 BYTE PTR __k$[ebp+11], dl
  000e0	8a 50 0c	 mov	 dl, BYTE PTR [eax+12]
  000e3	84 d2		 test	 dl, dl
  000e5	0f 84 cf 00 00
	00		 je	 $LN84@LoadBool_e
  000eb	80 f2 ed	 xor	 dl, -19			; ffffffedH
  000ee	88 55 f0	 mov	 BYTE PTR __k$[ebp+12], dl
  000f1	8a 50 0d	 mov	 dl, BYTE PTR [eax+13]
  000f4	84 d2		 test	 dl, dl
  000f6	0f 84 b9 00 00
	00		 je	 $LN83@LoadBool_e
  000fc	32 d3		 xor	 dl, bl
  000fe	88 55 f1	 mov	 BYTE PTR __k$[ebp+13], dl
  00101	8a 50 0e	 mov	 dl, BYTE PTR [eax+14]
  00104	84 d2		 test	 dl, dl
  00106	0f 84 a4 00 00
	00		 je	 $LN82@LoadBool_e
  0010c	32 d1		 xor	 dl, cl
  0010e	88 55 f2	 mov	 BYTE PTR __k$[ebp+14], dl
  00111	8a 50 0f	 mov	 dl, BYTE PTR [eax+15]
  00114	84 d2		 test	 dl, dl
  00116	0f 84 8e 00 00
	00		 je	 $LN81@LoadBool_e
  0011c	80 f2 ea	 xor	 dl, -22			; ffffffeaH
  0011f	88 55 f3	 mov	 BYTE PTR __k$[ebp+15], dl
  00122	8a 50 10	 mov	 dl, BYTE PTR [eax+16]
  00125	84 d2		 test	 dl, dl
  00127	74 7b		 je	 SHORT $LN80@LoadBool_e
  00129	80 f2 ed	 xor	 dl, -19			; ffffffedH
  0012c	88 55 f4	 mov	 BYTE PTR __k$[ebp+16], dl
  0012f	8a 50 11	 mov	 dl, BYTE PTR [eax+17]
  00132	84 d2		 test	 dl, dl
  00134	74 69		 je	 SHORT $LN79@LoadBool_e
  00136	32 d3		 xor	 dl, bl
  00138	88 55 f5	 mov	 BYTE PTR __k$[ebp+17], dl
  0013b	8a 50 12	 mov	 dl, BYTE PTR [eax+18]
  0013e	84 d2		 test	 dl, dl
  00140	74 58		 je	 SHORT $LN78@LoadBool_e
  00142	32 d1		 xor	 dl, cl
  00144	80 78 13 00	 cmp	 BYTE PTR [eax+19], 0
  00148	88 55 f6	 mov	 BYTE PTR __k$[ebp+18], dl
  0014b	0f 84 b1 00 00
	00		 je	 $LN1@LoadBool_e
  00151	8a 50 14	 mov	 dl, BYTE PTR [eax+20]
  00154	84 d2		 test	 dl, dl
  00156	74 3c		 je	 SHORT $LN76@LoadBool_e
  00158	80 f2 ed	 xor	 dl, -19			; ffffffedH
  0015b	88 55 f8	 mov	 BYTE PTR __k$[ebp+20], dl
  0015e	8a 50 15	 mov	 dl, BYTE PTR [eax+21]
  00161	84 d2		 test	 dl, dl
  00163	74 2a		 je	 SHORT $LN75@LoadBool_e
  00165	32 d3		 xor	 dl, bl
  00167	88 55 f9	 mov	 BYTE PTR __k$[ebp+21], dl
  0016a	8a 50 16	 mov	 dl, BYTE PTR [eax+22]
  0016d	84 d2		 test	 dl, dl
  0016f	74 19		 je	 SHORT $LN74@LoadBool_e
  00171	8a 40 17	 mov	 al, BYTE PTR [eax+23]
  00174	32 d1		 xor	 dl, cl
  00176	88 55 fa	 mov	 BYTE PTR __k$[ebp+22], dl
  00179	84 c0		 test	 al, al
  0017b	74 07		 je	 SHORT $LN73@LoadBool_e
  0017d	34 ea		 xor	 al, -22			; ffffffeaH
  0017f	88 45 fb	 mov	 BYTE PTR __k$[ebp+23], al
  00182	eb 7e		 jmp	 SHORT $LN1@LoadBool_e
$LN73@LoadBool_e:
  00184	c6 45 fb ea	 mov	 BYTE PTR __k$[ebp+23], -22 ; ffffffeaH
  00188	eb 78		 jmp	 SHORT $LN1@LoadBool_e
$LN74@LoadBool_e:
  0018a	88 4d fa	 mov	 BYTE PTR __k$[ebp+22], cl
  0018d	eb 73		 jmp	 SHORT $LN1@LoadBool_e
$LN75@LoadBool_e:
  0018f	88 5d f9	 mov	 BYTE PTR __k$[ebp+21], bl
  00192	eb 6e		 jmp	 SHORT $LN1@LoadBool_e
$LN76@LoadBool_e:
  00194	c6 45 f8 ed	 mov	 BYTE PTR __k$[ebp+20], -19 ; ffffffedH
  00198	eb 68		 jmp	 SHORT $LN1@LoadBool_e
$LN78@LoadBool_e:
  0019a	88 4d f6	 mov	 BYTE PTR __k$[ebp+18], cl
  0019d	eb 63		 jmp	 SHORT $LN1@LoadBool_e
$LN79@LoadBool_e:
  0019f	88 5d f5	 mov	 BYTE PTR __k$[ebp+17], bl
  001a2	eb 5e		 jmp	 SHORT $LN1@LoadBool_e
$LN80@LoadBool_e:
  001a4	c6 45 f4 ed	 mov	 BYTE PTR __k$[ebp+16], -19 ; ffffffedH
  001a8	eb 58		 jmp	 SHORT $LN1@LoadBool_e
$LN81@LoadBool_e:
  001aa	c6 45 f3 ea	 mov	 BYTE PTR __k$[ebp+15], -22 ; ffffffeaH
  001ae	eb 52		 jmp	 SHORT $LN1@LoadBool_e
$LN82@LoadBool_e:
  001b0	88 4d f2	 mov	 BYTE PTR __k$[ebp+14], cl
  001b3	eb 4d		 jmp	 SHORT $LN1@LoadBool_e
$LN83@LoadBool_e:
  001b5	88 5d f1	 mov	 BYTE PTR __k$[ebp+13], bl
  001b8	eb 48		 jmp	 SHORT $LN1@LoadBool_e
$LN84@LoadBool_e:
  001ba	c6 45 f0 ed	 mov	 BYTE PTR __k$[ebp+12], -19 ; ffffffedH
  001be	eb 42		 jmp	 SHORT $LN1@LoadBool_e
$LN85@LoadBool_e:
  001c0	c6 45 ef ea	 mov	 BYTE PTR __k$[ebp+11], -22 ; ffffffeaH
  001c4	eb 3c		 jmp	 SHORT $LN1@LoadBool_e
$LN86@LoadBool_e:
  001c6	88 4d ee	 mov	 BYTE PTR __k$[ebp+10], cl
  001c9	eb 37		 jmp	 SHORT $LN1@LoadBool_e
$LN87@LoadBool_e:
  001cb	88 5d ed	 mov	 BYTE PTR __k$[ebp+9], bl
  001ce	eb 32		 jmp	 SHORT $LN1@LoadBool_e
$LN88@LoadBool_e:
  001d0	c6 45 ec ed	 mov	 BYTE PTR __k$[ebp+8], -19 ; ffffffedH
  001d4	eb 2c		 jmp	 SHORT $LN1@LoadBool_e
$LN89@LoadBool_e:
  001d6	c6 45 eb ea	 mov	 BYTE PTR __k$[ebp+7], -22 ; ffffffeaH
  001da	eb 26		 jmp	 SHORT $LN1@LoadBool_e
$LN90@LoadBool_e:
  001dc	88 4d ea	 mov	 BYTE PTR __k$[ebp+6], cl
  001df	eb 21		 jmp	 SHORT $LN1@LoadBool_e
$LN91@LoadBool_e:
  001e1	88 5d e9	 mov	 BYTE PTR __k$[ebp+5], bl
  001e4	eb 1c		 jmp	 SHORT $LN1@LoadBool_e
$LN92@LoadBool_e:
  001e6	c6 45 e8 ed	 mov	 BYTE PTR __k$[ebp+4], -19 ; ffffffedH
  001ea	eb 16		 jmp	 SHORT $LN1@LoadBool_e
$LN93@LoadBool_e:
  001ec	c6 45 e7 ea	 mov	 BYTE PTR __k$[ebp+3], -22 ; ffffffeaH
  001f0	eb 10		 jmp	 SHORT $LN1@LoadBool_e
$LN94@LoadBool_e:
  001f2	c6 45 e6 eb	 mov	 BYTE PTR __k$[ebp+2], -21 ; ffffffebH
  001f6	eb 0a		 jmp	 SHORT $LN1@LoadBool_e
$LN95@LoadBool_e:
  001f8	c6 45 e5 ec	 mov	 BYTE PTR __k$[ebp+1], -20 ; ffffffecH
  001fc	eb 04		 jmp	 SHORT $LN1@LoadBool_e
$LN96@LoadBool_e:
  001fe	c6 45 e4 ed	 mov	 BYTE PTR __k$[ebp], -19	; ffffffedH
$LN1@LoadBool_e:
  00202	6a 04		 push	 4
  00204	8d 45 e4	 lea	 eax, DWORD PTR __k$[ebp]
  00207	c6 45 f7 00	 mov	 BYTE PTR __k$[ebp+19], 0
  0020b	5a		 pop	 edx
$LL104@LoadBool_e:
  0020c	81 30 ed ec eb
	ea		 xor	 DWORD PTR [eax], -353637139 ; eaebecedH
  00212	83 c0 04	 add	 eax, 4
  00215	4a		 dec	 edx
  00216	75 f4		 jne	 SHORT $LL104@LoadBool_e
  00218	6a 10		 push	 16			; 00000010H
  0021a	58		 pop	 eax
$LL101@LoadBool_e:
  0021b	8b c8		 mov	 ecx, eax
  0021d	81 e1 03 00 00
	80		 and	 ecx, -2147483645	; 80000003H
  00223	79 05		 jns	 SHORT $LN111@LoadBool_e
  00225	49		 dec	 ecx
  00226	83 c9 fc	 or	 ecx, -4			; fffffffcH
  00229	41		 inc	 ecx
$LN111@LoadBool_e:
  0022a	b2 ed		 mov	 dl, -19			; ffffffedH
  0022c	2a d1		 sub	 dl, cl
  0022e	30 54 05 e4	 xor	 BYTE PTR __k$[ebp+eax], dl
  00232	40		 inc	 eax
  00233	83 f8 13	 cmp	 eax, 19			; 00000013H
  00236	7c e3		 jl	 SHORT $LL101@LoadBool_e

; 103  : 		return LoadBool(_k, b);

  00238	ff 75 0c	 push	 DWORD PTR _b$[ebp]
  0023b	8d 45 e4	 lea	 eax, DWORD PTR __k$[ebp]
  0023e	50		 push	 eax
  0023f	8b ce		 mov	 ecx, esi
  00241	ff 15 00 00 00
	00		 call	 DWORD PTR __imp_?LoadBool@ioINILoader@@QAE_NPBD_N@Z

; 104  : 	}

  00247	8b 4d fc	 mov	 ecx, DWORD PTR __$ArrayPad$[ebp]
  0024a	5e		 pop	 esi
  0024b	33 cd		 xor	 ecx, ebp
  0024d	5b		 pop	 ebx
  0024e	e8 00 00 00 00	 call	 @__security_check_cookie@4
  00253	c9		 leave
  00254	c2 08 00	 ret	 8
??$LoadBool_e@$0BE@@ioINILoader@@QAE_NAAY0BE@$$CBD_N@Z ENDP ; ioINILoader::LoadBool_e<20>
_TEXT	ENDS
PUBLIC	__$ArrayPad$
PUBLIC	??$LoadInt_e@$09@ioINILoader@@QAEHAAY09$$CBDH@Z	; ioINILoader::LoadInt_e<10>
EXTRN	__imp_?LoadInt@ioINILoader@@QAEHPBDH@Z:PROC
; Function compile flags: /Ogsp
;	COMDAT ??$LoadInt_e@$09@ioINILoader@@QAEHAAY09$$CBDH@Z
_TEXT	SEGMENT
__k$ = -20						; size = 10
__$ArrayPad$ = -4					; size = 4
_k$ = 8							; size = 4
_i$ = 12						; size = 4
??$LoadInt_e@$09@ioINILoader@@QAEHAAY09$$CBDH@Z PROC	; ioINILoader::LoadInt_e<10>, COMDAT
; _this$ = ecx

; 118  : 	{

  00000	55		 push	 ebp
  00001	8b ec		 mov	 ebp, esp
  00003	83 ec 14	 sub	 esp, 20			; 00000014H
  00006	a1 00 00 00 00	 mov	 eax, DWORD PTR ___security_cookie
  0000b	33 c5		 xor	 eax, ebp
  0000d	89 45 fc	 mov	 DWORD PTR __$ArrayPad$[ebp], eax
  00010	8b 45 08	 mov	 eax, DWORD PTR _k$[ebp]

; 119  : 		_ENCSTR(k, _k);

  00013	8a 10		 mov	 dl, BYTE PTR [eax]
  00015	84 d2		 test	 dl, dl
  00017	0f 84 0d 01 00
	00		 je	 $LN96@LoadInt_e
  0001d	80 f2 ed	 xor	 dl, -19			; ffffffedH
  00020	88 55 ec	 mov	 BYTE PTR __k$[ebp], dl
  00023	8a 50 01	 mov	 dl, BYTE PTR [eax+1]
  00026	84 d2		 test	 dl, dl
  00028	0f 84 f6 00 00
	00		 je	 $LN95@LoadInt_e
  0002e	80 f2 ec	 xor	 dl, -20			; ffffffecH
  00031	88 55 ed	 mov	 BYTE PTR __k$[ebp+1], dl
  00034	8a 50 02	 mov	 dl, BYTE PTR [eax+2]
  00037	84 d2		 test	 dl, dl
  00039	0f 84 df 00 00
	00		 je	 $LN94@LoadInt_e
  0003f	80 f2 eb	 xor	 dl, -21			; ffffffebH
  00042	88 55 ee	 mov	 BYTE PTR __k$[ebp+2], dl
  00045	8a 50 03	 mov	 dl, BYTE PTR [eax+3]
  00048	84 d2		 test	 dl, dl
  0004a	0f 84 c8 00 00
	00		 je	 $LN93@LoadInt_e
  00050	80 f2 ea	 xor	 dl, -22			; ffffffeaH
  00053	88 55 ef	 mov	 BYTE PTR __k$[ebp+3], dl
  00056	8a 50 04	 mov	 dl, BYTE PTR [eax+4]
  00059	84 d2		 test	 dl, dl
  0005b	0f 84 b1 00 00
	00		 je	 $LN92@LoadInt_e
  00061	80 f2 ed	 xor	 dl, -19			; ffffffedH
  00064	88 55 f0	 mov	 BYTE PTR __k$[ebp+4], dl
  00067	8a 50 05	 mov	 dl, BYTE PTR [eax+5]
  0006a	84 d2		 test	 dl, dl
  0006c	0f 84 9a 00 00
	00		 je	 $LN91@LoadInt_e
  00072	80 f2 ec	 xor	 dl, -20			; ffffffecH
  00075	88 55 f1	 mov	 BYTE PTR __k$[ebp+5], dl
  00078	8a 50 06	 mov	 dl, BYTE PTR [eax+6]
  0007b	84 d2		 test	 dl, dl
  0007d	0f 84 83 00 00
	00		 je	 $LN90@LoadInt_e
  00083	80 f2 eb	 xor	 dl, -21			; ffffffebH
  00086	88 55 f2	 mov	 BYTE PTR __k$[ebp+6], dl
  00089	8a 50 07	 mov	 dl, BYTE PTR [eax+7]
  0008c	84 d2		 test	 dl, dl
  0008e	74 70		 je	 SHORT $LN89@LoadInt_e
  00090	80 f2 ea	 xor	 dl, -22			; ffffffeaH
  00093	88 55 f3	 mov	 BYTE PTR __k$[ebp+7], dl
  00096	8a 50 08	 mov	 dl, BYTE PTR [eax+8]
  00099	84 d2		 test	 dl, dl
  0009b	74 5d		 je	 SHORT $LN88@LoadInt_e
  0009d	80 f2 ed	 xor	 dl, -19			; ffffffedH
  000a0	80 78 09 00	 cmp	 BYTE PTR [eax+9], 0
  000a4	88 55 f4	 mov	 BYTE PTR __k$[ebp+8], dl
  000a7	0f 84 81 00 00
	00		 je	 $LN1@LoadInt_e
  000ad	8a 50 0a	 mov	 dl, BYTE PTR [eax+10]
  000b0	84 d2		 test	 dl, dl
  000b2	74 40		 je	 SHORT $LN86@LoadInt_e
  000b4	80 f2 eb	 xor	 dl, -21			; ffffffebH
  000b7	88 55 f6	 mov	 BYTE PTR __k$[ebp+10], dl
  000ba	8a 50 0b	 mov	 dl, BYTE PTR [eax+11]
  000bd	84 d2		 test	 dl, dl
  000bf	74 2d		 je	 SHORT $LN85@LoadInt_e
  000c1	80 f2 ea	 xor	 dl, -22			; ffffffeaH
  000c4	88 55 f7	 mov	 BYTE PTR __k$[ebp+11], dl
  000c7	8a 50 0c	 mov	 dl, BYTE PTR [eax+12]
  000ca	84 d2		 test	 dl, dl
  000cc	74 1a		 je	 SHORT $LN84@LoadInt_e
  000ce	8a 40 0d	 mov	 al, BYTE PTR [eax+13]
  000d1	80 f2 ed	 xor	 dl, -19			; ffffffedH
  000d4	88 55 f8	 mov	 BYTE PTR __k$[ebp+12], dl
  000d7	84 c0		 test	 al, al
  000d9	74 07		 je	 SHORT $LN83@LoadInt_e
  000db	34 ec		 xor	 al, -20			; ffffffecH
  000dd	88 45 f9	 mov	 BYTE PTR __k$[ebp+13], al
  000e0	eb 4c		 jmp	 SHORT $LN1@LoadInt_e
$LN83@LoadInt_e:
  000e2	c6 45 f9 ec	 mov	 BYTE PTR __k$[ebp+13], -20 ; ffffffecH
  000e6	eb 46		 jmp	 SHORT $LN1@LoadInt_e
$LN84@LoadInt_e:
  000e8	c6 45 f8 ed	 mov	 BYTE PTR __k$[ebp+12], -19 ; ffffffedH
  000ec	eb 40		 jmp	 SHORT $LN1@LoadInt_e
$LN85@LoadInt_e:
  000ee	c6 45 f7 ea	 mov	 BYTE PTR __k$[ebp+11], -22 ; ffffffeaH
  000f2	eb 3a		 jmp	 SHORT $LN1@LoadInt_e
$LN86@LoadInt_e:
  000f4	c6 45 f6 eb	 mov	 BYTE PTR __k$[ebp+10], -21 ; ffffffebH
  000f8	eb 34		 jmp	 SHORT $LN1@LoadInt_e
$LN88@LoadInt_e:
  000fa	c6 45 f4 ed	 mov	 BYTE PTR __k$[ebp+8], -19 ; ffffffedH
  000fe	eb 2e		 jmp	 SHORT $LN1@LoadInt_e
$LN89@LoadInt_e:
  00100	c6 45 f3 ea	 mov	 BYTE PTR __k$[ebp+7], -22 ; ffffffeaH
  00104	eb 28		 jmp	 SHORT $LN1@LoadInt_e
$LN90@LoadInt_e:
  00106	c6 45 f2 eb	 mov	 BYTE PTR __k$[ebp+6], -21 ; ffffffebH
  0010a	eb 22		 jmp	 SHORT $LN1@LoadInt_e
$LN91@LoadInt_e:
  0010c	c6 45 f1 ec	 mov	 BYTE PTR __k$[ebp+5], -20 ; ffffffecH
  00110	eb 1c		 jmp	 SHORT $LN1@LoadInt_e
$LN92@LoadInt_e:
  00112	c6 45 f0 ed	 mov	 BYTE PTR __k$[ebp+4], -19 ; ffffffedH
  00116	eb 16		 jmp	 SHORT $LN1@LoadInt_e
$LN93@LoadInt_e:
  00118	c6 45 ef ea	 mov	 BYTE PTR __k$[ebp+3], -22 ; ffffffeaH
  0011c	eb 10		 jmp	 SHORT $LN1@LoadInt_e
$LN94@LoadInt_e:
  0011e	c6 45 ee eb	 mov	 BYTE PTR __k$[ebp+2], -21 ; ffffffebH
  00122	eb 0a		 jmp	 SHORT $LN1@LoadInt_e
$LN95@LoadInt_e:
  00124	c6 45 ed ec	 mov	 BYTE PTR __k$[ebp+1], -20 ; ffffffecH
  00128	eb 04		 jmp	 SHORT $LN1@LoadInt_e
$LN96@LoadInt_e:
  0012a	c6 45 ec ed	 mov	 BYTE PTR __k$[ebp], -19	; ffffffedH
$LN1@LoadInt_e:
  0012e	6a 02		 push	 2
  00130	8d 45 ec	 lea	 eax, DWORD PTR __k$[ebp]
  00133	c6 45 f5 00	 mov	 BYTE PTR __k$[ebp+9], 0
  00137	5a		 pop	 edx
$LL104@LoadInt_e:
  00138	81 30 ed ec eb
	ea		 xor	 DWORD PTR [eax], -353637139 ; eaebecedH
  0013e	83 c0 04	 add	 eax, 4
  00141	4a		 dec	 edx
  00142	75 f4		 jne	 SHORT $LL104@LoadInt_e

; 120  : 		return LoadInt(_k, i);

  00144	ff 75 0c	 push	 DWORD PTR _i$[ebp]
  00147	80 75 f4 ed	 xor	 BYTE PTR __k$[ebp+8], -19 ; ffffffedH
  0014b	8d 45 ec	 lea	 eax, DWORD PTR __k$[ebp]
  0014e	50		 push	 eax
  0014f	ff 15 00 00 00
	00		 call	 DWORD PTR __imp_?LoadInt@ioINILoader@@QAEHPBDH@Z

; 121  : 	}

  00155	8b 4d fc	 mov	 ecx, DWORD PTR __$ArrayPad$[ebp]
  00158	33 cd		 xor	 ecx, ebp
  0015a	e8 00 00 00 00	 call	 @__security_check_cookie@4
  0015f	c9		 leave
  00160	c2 08 00	 ret	 8
??$LoadInt_e@$09@ioINILoader@@QAEHAAY09$$CBDH@Z ENDP	; ioINILoader::LoadInt_e<10>
_TEXT	ENDS
PUBLIC	??$_Cons_val@V?$allocator@VioOrientBox@@@std@@VioOrientBox@@AAV3@@std@@YAXAAV?$allocator@VioOrientBox@@@0@PAVioOrientBox@@AAV2@@Z ; std::_Cons_val<std::allocator<ioOrientBox>,ioOrientBox,ioOrientBox &>
; Function compile flags: /Ogsp
; File c:\program files (x86)\microsoft visual studio 10.0\vc\include\xmemory
;	COMDAT ??$_Cons_val@V?$allocator@VioOrientBox@@@std@@VioOrientBox@@AAV3@@std@@YAXAAV?$allocator@VioOrientBox@@@0@PAVioOrientBox@@AAV2@@Z
_TEXT	SEGMENT
__Alval$ = 8						; size = 4
__Pdest$ = 12						; size = 4
__Src$ = 16						; size = 4
??$_Cons_val@V?$allocator@VioOrientBox@@@std@@VioOrientBox@@AAV3@@std@@YAXAAV?$allocator@VioOrientBox@@@0@PAVioOrientBox@@AAV2@@Z PROC ; std::_Cons_val<std::allocator<ioOrientBox>,ioOrientBox,ioOrientBox &>, COMDAT

; 279  : 	{	// construct using allocator

  00000	55		 push	 ebp
  00001	8b ec		 mov	 ebp, esp
  00003	57		 push	 edi

; 280  : 	_Alval.construct(_Pdest, _STD forward<_Ty2>(_Src));

  00004	8b 7d 0c	 mov	 edi, DWORD PTR __Pdest$[ebp]
  00007	85 ff		 test	 edi, edi
  00009	74 0a		 je	 SHORT $LN7@Cons_val
  0000b	56		 push	 esi
  0000c	8b 75 10	 mov	 esi, DWORD PTR __Src$[ebp]
  0000f	6a 11		 push	 17			; 00000011H
  00011	59		 pop	 ecx
  00012	f3 a5		 rep movsd
  00014	5e		 pop	 esi
$LN7@Cons_val:
  00015	5f		 pop	 edi

; 281  : 	}

  00016	5d		 pop	 ebp
  00017	c3		 ret	 0
??$_Cons_val@V?$allocator@VioOrientBox@@@std@@VioOrientBox@@AAV3@@std@@YAXAAV?$allocator@VioOrientBox@@@0@PAVioOrientBox@@AAV2@@Z ENDP ; std::_Cons_val<std::allocator<ioOrientBox>,ioOrientBox,ioOrientBox &>
_TEXT	ENDS
PUBLIC	?construct@?$allocator@VioOrientBox@@@std@@QAEXPAVioOrientBox@@ABV3@@Z ; std::allocator<ioOrientBox>::construct
; Function compile flags: /Ogsp
;	COMDAT ?construct@?$allocator@VioOrientBox@@@std@@QAEXPAVioOrientBox@@ABV3@@Z
_TEXT	SEGMENT
__Ptr$ = 8						; size = 4
__Val$ = 12						; size = 4
?construct@?$allocator@VioOrientBox@@@std@@QAEXPAVioOrientBox@@ABV3@@Z PROC ; std::allocator<ioOrientBox>::construct, COMDAT
; _this$ = ecx

; 196  : 		{	// construct object at _Ptr with value _Val

  00000	55		 push	 ebp
  00001	8b ec		 mov	 ebp, esp
  00003	57		 push	 edi

; 197  : 		_Construct(_Ptr, _Val);

  00004	8b 7d 08	 mov	 edi, DWORD PTR __Ptr$[ebp]
  00007	85 ff		 test	 edi, edi
  00009	74 0a		 je	 SHORT $LN5@construct@2
  0000b	56		 push	 esi
  0000c	8b 75 0c	 mov	 esi, DWORD PTR __Val$[ebp]
  0000f	6a 11		 push	 17			; 00000011H
  00011	59		 pop	 ecx
  00012	f3 a5		 rep movsd
  00014	5e		 pop	 esi
$LN5@construct@2:
  00015	5f		 pop	 edi

; 198  : 		}

  00016	5d		 pop	 ebp
  00017	c2 08 00	 ret	 8
?construct@?$allocator@VioOrientBox@@@std@@QAEXPAVioOrientBox@@ABV3@@Z ENDP ; std::allocator<ioOrientBox>::construct
_TEXT	ENDS
PUBLIC	??$_Destroy@VioOrientBox@@@std@@YAXPAVioOrientBox@@@Z ; std::_Destroy<ioOrientBox>
; Function compile flags: /Ogsp
;	COMDAT ??$_Destroy@VioOrientBox@@@std@@YAXPAVioOrientBox@@@Z
_TEXT	SEGMENT
__Ptr$ = 8						; size = 4
??$_Destroy@VioOrientBox@@@std@@YAXPAVioOrientBox@@@Z PROC ; std::_Destroy<ioOrientBox>, COMDAT

; 62   : 	{	// destroy object at _Ptr

  00000	55		 push	 ebp
  00001	8b ec		 mov	 ebp, esp

; 63   : 	_Ptr->~_Ty();

  00003	8b 4d 08	 mov	 ecx, DWORD PTR __Ptr$[ebp]

; 64   : 	}

  00006	5d		 pop	 ebp

; 63   : 	_Ptr->~_Ty();

  00007	ff 25 00 00 00
	00		 jmp	 DWORD PTR __imp_??1ioOrientBox@@QAE@XZ
??$_Destroy@VioOrientBox@@@std@@YAXPAVioOrientBox@@@Z ENDP ; std::_Destroy<ioOrientBox>
_TEXT	ENDS
PUBLIC	?construct@?$allocator@VioOrientBox@@@std@@QAEXPAVioOrientBox@@$$QAV3@@Z ; std::allocator<ioOrientBox>::construct
; Function compile flags: /Ogsp
;	COMDAT ?construct@?$allocator@VioOrientBox@@@std@@QAEXPAVioOrientBox@@$$QAV3@@Z
_TEXT	SEGMENT
__Ptr$ = 8						; size = 4
__Val$ = 12						; size = 4
?construct@?$allocator@VioOrientBox@@@std@@QAEXPAVioOrientBox@@$$QAV3@@Z PROC ; std::allocator<ioOrientBox>::construct, COMDAT
; _this$ = ecx

; 201  : 		{	// construct object at _Ptr with value _Val

  00000	55		 push	 ebp
  00001	8b ec		 mov	 ebp, esp
  00003	57		 push	 edi

; 202  : 		::new ((void _FARQ *)_Ptr) _Ty(_STD forward<_Ty>(_Val));

  00004	8b 7d 08	 mov	 edi, DWORD PTR __Ptr$[ebp]
  00007	85 ff		 test	 edi, edi
  00009	74 0a		 je	 SHORT $LN3@construct@3
  0000b	56		 push	 esi
  0000c	8b 75 0c	 mov	 esi, DWORD PTR __Val$[ebp]
  0000f	6a 11		 push	 17			; 00000011H
  00011	59		 pop	 ecx
  00012	f3 a5		 rep movsd
  00014	5e		 pop	 esi
$LN3@construct@3:
  00015	5f		 pop	 edi

; 203  : 		}

  00016	5d		 pop	 ebp
  00017	c2 08 00	 ret	 8
?construct@?$allocator@VioOrientBox@@@std@@QAEXPAVioOrientBox@@$$QAV3@@Z ENDP ; std::allocator<ioOrientBox>::construct
_TEXT	ENDS
PUBLIC	??B?$CEncrypt@M@@QAEMXZ				; CEncrypt<float>::operator float
; Function compile flags: /Ogsp
; File d:\lost saga for developer\youtube\tutorial\source\src\lsclient\encryptvalue.h
;	COMDAT ??B?$CEncrypt@M@@QAEMXZ
_TEXT	SEGMENT
_value$ = -4						; size = 4
??B?$CEncrypt@M@@QAEMXZ PROC				; CEncrypt<float>::operator float, COMDAT
; _this$ = ecx

; 134  : 	{

  00000	55		 push	 ebp
  00001	8b ec		 mov	 ebp, esp
  00003	51		 push	 ecx

; 135  : 		type value;
; 136  : 		DecryptValueToPool(&value);

  00004	8d 45 fc	 lea	 eax, DWORD PTR _value$[ebp]
  00007	50		 push	 eax
  00008	e8 00 00 00 00	 call	 ?DecryptValueToPool@?$CEncrypt@M@@QAEXPAM@Z ; CEncrypt<float>::DecryptValueToPool

; 137  : 
; 138  : #ifdef _NOTUSE
; 139  : 		Debug();
; 140  : #endif
; 141  : 		return value;

  0000d	d9 45 fc	 fld	 DWORD PTR _value$[ebp]

; 142  : 	}

  00010	c9		 leave
  00011	c3		 ret	 0
??B?$CEncrypt@M@@QAEMXZ ENDP				; CEncrypt<float>::operator float
_TEXT	ENDS
PUBLIC	??O?$CEncrypt@M@@QAE_NABM@Z			; CEncrypt<float>::operator>
; Function compile flags: /Ogsp
;	COMDAT ??O?$CEncrypt@M@@QAE_NABM@Z
_TEXT	SEGMENT
_value$ = -4						; size = 4
_inValue$ = 8						; size = 4
??O?$CEncrypt@M@@QAE_NABM@Z PROC			; CEncrypt<float>::operator>, COMDAT
; _this$ = ecx

; 1811 : 	{

  00000	55		 push	 ebp
  00001	8b ec		 mov	 ebp, esp
  00003	51		 push	 ecx

; 1812 : 		type value;
; 1813 : 		DecryptValueToPool(&value);

  00004	8d 45 fc	 lea	 eax, DWORD PTR _value$[ebp]
  00007	50		 push	 eax
  00008	e8 00 00 00 00	 call	 ?DecryptValueToPool@?$CEncrypt@M@@QAEXPAM@Z ; CEncrypt<float>::DecryptValueToPool

; 1814 : #ifdef _NOTUSE
; 1815 : 		Debug();
; 1816 : #endif
; 1817 : 		return (value > inValue);

  0000d	8b 45 08	 mov	 eax, DWORD PTR _inValue$[ebp]
  00010	f3 0f 10 08	 movss	 xmm1, DWORD PTR [eax]
  00014	f3 0f 10 45 fc	 movss	 xmm0, DWORD PTR _value$[ebp]
  00019	0f 5a c0	 cvtps2pd xmm0, xmm0
  0001c	0f 5a c9	 cvtps2pd xmm1, xmm1
  0001f	33 c0		 xor	 eax, eax
  00021	66 0f 2f c1	 comisd	 xmm0, xmm1
  00025	76 01		 jbe	 SHORT $LN4@operator
  00027	40		 inc	 eax
$LN4@operator:

; 1818 : 	}		

  00028	c9		 leave
  00029	c2 04 00	 ret	 4
??O?$CEncrypt@M@@QAE_NABM@Z ENDP			; CEncrypt<float>::operator>
_TEXT	ENDS
PUBLIC	__$ArrayPad$
EXTRN	?LoadProperty@ioWeapon@@UAEXAAVioINILoader@@@Z:PROC ; ioWeapon::LoadProperty
; Function compile flags: /Ogsp
; File d:\lost saga for developer\youtube\tutorial\source\src\lsclient\ioluciferairgrapweapon.cpp
;	COMDAT ?LoadProperty@ioLuciferAirGrapWeapon@@UAEXAAVioINILoader@@@Z
_TEXT	SEGMENT
__k$586014 = -28					; size = 20
__k$586139 = -20					; size = 10
__$ArrayPad$ = -4					; size = 4
_rkLoader$ = 8						; size = 4
?LoadProperty@ioLuciferAirGrapWeapon@@UAEXAAVioINILoader@@@Z PROC ; ioLuciferAirGrapWeapon::LoadProperty, COMDAT
; _this$ = ecx

; 28   : {

  00000	55		 push	 ebp
  00001	8b ec		 mov	 ebp, esp
  00003	83 ec 1c	 sub	 esp, 28			; 0000001cH
  00006	a1 00 00 00 00	 mov	 eax, DWORD PTR ___security_cookie
  0000b	33 c5		 xor	 eax, ebp
  0000d	89 45 fc	 mov	 DWORD PTR __$ArrayPad$[ebp], eax
  00010	56		 push	 esi
  00011	57		 push	 edi
  00012	8b 7d 08	 mov	 edi, DWORD PTR _rkLoader$[ebp]

; 29   : 	ioWeapon::LoadProperty( rkLoader );

  00015	57		 push	 edi
  00016	8b f1		 mov	 esi, ecx
  00018	e8 00 00 00 00	 call	 ?LoadProperty@ioWeapon@@UAEXAAVioINILoader@@@Z ; ioWeapon::LoadProperty

; 30   : 
; 31   : 	m_bDisableOwnerScale = rkLoader.LoadBool_e( "disable_owner_scale", false );

  0001d	6a 04		 push	 4
  0001f	c7 45 e4 89 85
	98 8b		 mov	 DWORD PTR __k$586014[ebp], -1952938615 ; 8b988589H
  00026	c7 45 e8 8f 80
	8e b5		 mov	 DWORD PTR __k$586014[ebp+4], -1248952177 ; b58e808fH
  0002d	c7 45 ec 82 9b
	85 8f		 mov	 DWORD PTR __k$586014[ebp+8], -1887069310 ; 8f859b82H
  00034	c7 45 f0 9f b3
	98 89		 mov	 DWORD PTR __k$586014[ebp+12], -1986481249 ; 8998b39fH
  0003b	8d 45 e4	 lea	 eax, DWORD PTR __k$586014[ebp]
  0003e	c7 45 f4 8c 80
	8e 00		 mov	 DWORD PTR __k$586014[ebp+16], 9339020 ; 008e808cH
  00045	59		 pop	 ecx
$LL106@LoadProper:
  00046	81 30 ed ec eb
	ea		 xor	 DWORD PTR [eax], -353637139 ; eaebecedH
  0004c	83 c0 04	 add	 eax, 4
  0004f	49		 dec	 ecx
  00050	75 f4		 jne	 SHORT $LL106@LoadProper
  00052	6a 10		 push	 16			; 00000010H
  00054	58		 pop	 eax
$LL103@LoadProper:
  00055	8b c8		 mov	 ecx, eax
  00057	81 e1 03 00 00
	80		 and	 ecx, -2147483645	; 80000003H
  0005d	79 05		 jns	 SHORT $LN223@LoadProper
  0005f	49		 dec	 ecx
  00060	83 c9 fc	 or	 ecx, -4			; fffffffcH
  00063	41		 inc	 ecx
$LN223@LoadProper:
  00064	b2 ed		 mov	 dl, -19			; ffffffedH
  00066	2a d1		 sub	 dl, cl
  00068	30 54 05 e4	 xor	 BYTE PTR __k$586014[ebp+eax], dl
  0006c	40		 inc	 eax
  0006d	83 f8 13	 cmp	 eax, 19			; 00000013H
  00070	7c e3		 jl	 SHORT $LL103@LoadProper
  00072	6a 00		 push	 0
  00074	8d 45 e4	 lea	 eax, DWORD PTR __k$586014[ebp]
  00077	50		 push	 eax
  00078	8b cf		 mov	 ecx, edi
  0007a	ff 15 00 00 00
	00		 call	 DWORD PTR __imp_?LoadBool@ioINILoader@@QAE_NPBD_N@Z
  00080	6a 02		 push	 2
  00082	88 86 1e 09 00
	00		 mov	 BYTE PTR [esi+2334], al

; 32   : 
; 33   : 	m_dwLiveTime = rkLoader.LoadInt_e( "live_time", 0 );

  00088	c7 45 ec 81 85
	9d 8f		 mov	 DWORD PTR __k$586139[ebp], -1885502079 ; 8f9d8581H
  0008f	c7 45 f0 b2 98
	82 87		 mov	 DWORD PTR __k$586139[ebp+4], -2021484366 ; 878298b2H
  00096	8d 45 ec	 lea	 eax, DWORD PTR __k$586139[ebp]
  00099	66 c7 45 f4 88
	00		 mov	 WORD PTR __k$586139[ebp+8], 136 ; 00000088H
  0009f	59		 pop	 ecx
$LL212@LoadProper:
  000a0	81 30 ed ec eb
	ea		 xor	 DWORD PTR [eax], -353637139 ; eaebecedH
  000a6	83 c0 04	 add	 eax, 4
  000a9	49		 dec	 ecx
  000aa	75 f4		 jne	 SHORT $LL212@LoadProper
  000ac	80 75 f4 ed	 xor	 BYTE PTR __k$586139[ebp+8], -19 ; ffffffedH
  000b0	51		 push	 ecx
  000b1	8d 45 ec	 lea	 eax, DWORD PTR __k$586139[ebp]
  000b4	50		 push	 eax
  000b5	8b cf		 mov	 ecx, edi
  000b7	ff 15 00 00 00
	00		 call	 DWORD PTR __imp_?LoadInt@ioINILoader@@QAEHPBDH@Z

; 34   : }

  000bd	8b 4d fc	 mov	 ecx, DWORD PTR __$ArrayPad$[ebp]
  000c0	5f		 pop	 edi
  000c1	89 86 d8 04 00
	00		 mov	 DWORD PTR [esi+1240], eax
  000c7	33 cd		 xor	 ecx, ebp
  000c9	5e		 pop	 esi
  000ca	e8 00 00 00 00	 call	 @__security_check_cookie@4
  000cf	c9		 leave
  000d0	c2 04 00	 ret	 4
?LoadProperty@ioLuciferAirGrapWeapon@@UAEXAAVioINILoader@@@Z ENDP ; ioLuciferAirGrapWeapon::LoadProperty
_TEXT	ENDS
PUBLIC	__$ArrayPad$
; Function compile flags: /Ogsp
;	COMDAT ?IsCollision@ioLuciferAirGrapWeapon@@UAE_NPAVioPlayEntity@@_N@Z
_TEXT	SEGMENT
_vColPoint$ = -16					; size = 12
__$ArrayPad$ = -4					; size = 4
_pEntity$ = 8						; size = 4
_bMapCollision$ = 12					; size = 1
?IsCollision@ioLuciferAirGrapWeapon@@UAE_NPAVioPlayEntity@@_N@Z PROC ; ioLuciferAirGrapWeapon::IsCollision, COMDAT
; _this$ = ecx

; 123  : {

  00000	55		 push	 ebp
  00001	8b ec		 mov	 ebp, esp
  00003	83 ec 10	 sub	 esp, 16			; 00000010H
  00006	a1 00 00 00 00	 mov	 eax, DWORD PTR ___security_cookie
  0000b	33 c5		 xor	 eax, ebp
  0000d	89 45 fc	 mov	 DWORD PTR __$ArrayPad$[ebp], eax

; 124  : 	D3DXVECTOR3 vColPoint( 0.0f, 0.0f, 0.0f );

  00010	0f 57 c0	 xorps	 xmm0, xmm0
  00013	56		 push	 esi
  00014	8b 75 08	 mov	 esi, DWORD PTR _pEntity$[ebp]
  00017	57		 push	 edi

; 125  : 
; 126  : 	ioBaseChar * pChar = ToBaseChar( pEntity );

  00018	56		 push	 esi
  00019	8b f9		 mov	 edi, ecx
  0001b	f3 0f 11 45 f0	 movss	 DWORD PTR _vColPoint$[ebp], xmm0
  00020	f3 0f 11 45 f4	 movss	 DWORD PTR _vColPoint$[ebp+4], xmm0
  00025	f3 0f 11 45 f8	 movss	 DWORD PTR _vColPoint$[ebp+8], xmm0
  0002a	e8 00 00 00 00	 call	 ?ToBaseChar@@YAPAVioBaseChar@@PAVioGameEntity@@@Z ; ToBaseChar
  0002f	59		 pop	 ecx

; 127  : 	if( !pChar )

  00030	85 c0		 test	 eax, eax

; 128  : 		return false;

  00032	74 74		 je	 SHORT $LN5@IsCollisio

; 129  : 
; 130  : 	if( pChar->GetState() == CS_GRAPPLING_WOUNDED || pChar->GetState() == CS_GRAPPLING_WOUNDED_ITEM || pChar->GetState() == CS_GRAPPLING_WOUNDED_BUFF )

  00034	8a 80 10 03 00
	00		 mov	 al, BYTE PTR [eax+784]
  0003a	3c 41		 cmp	 al, 65			; 00000041H
  0003c	74 6a		 je	 SHORT $LN5@IsCollisio
  0003e	3c 57		 cmp	 al, 87			; 00000057H
  00040	74 66		 je	 SHORT $LN5@IsCollisio
  00042	3c 8b		 cmp	 al, 139			; 0000008bH
  00044	74 62		 je	 SHORT $LN5@IsCollisio

; 133  : 
; 134  : 	if( m_UpdateState == CONTACT_FIRST )

  00046	83 bf 20 09 00
	00 01		 cmp	 DWORD PTR [edi+2336], 1
  0004d	75 27		 jne	 SHORT $LN3@IsCollisio

; 135  : 	{
; 136  : 		if( pEntity->IsWoundedCollision( m_PreAttackBox, &vColPoint ) )

  0004f	8b 06		 mov	 eax, DWORD PTR [esi]
  00051	8d 4d f0	 lea	 ecx, DWORD PTR _vColPoint$[ebp]
  00054	51		 push	 ecx
  00055	8d 8f 94 08 00
	00		 lea	 ecx, DWORD PTR [edi+2196]
  0005b	51		 push	 ecx
  0005c	8b ce		 mov	 ecx, esi
  0005e	ff 90 90 00 00
	00		 call	 DWORD PTR [eax+144]
  00064	84 c0		 test	 al, al
  00066	74 0e		 je	 SHORT $LN3@IsCollisio
$LN18@IsCollisio:

; 137  : 		{
; 138  : 			return CheckCollisionLine( pEntity, vColPoint );

  00068	8d 45 f0	 lea	 eax, DWORD PTR _vColPoint$[ebp]
  0006b	50		 push	 eax
  0006c	56		 push	 esi
  0006d	8b cf		 mov	 ecx, edi
  0006f	e8 00 00 00 00	 call	 ?CheckCollisionLine@ioLuciferAirGrapWeapon@@IAE_NPAVioPlayEntity@@ABUD3DXVECTOR3@@@Z ; ioLuciferAirGrapWeapon::CheckCollisionLine
  00074	eb 34		 jmp	 SHORT $LN8@IsCollisio
$LN3@IsCollisio:

; 139  : 		}
; 140  : 	}
; 141  : 
; 142  : 	if( pEntity->IsWoundedCollision( m_MidAttackBox, &vColPoint ) )

  00076	8b 06		 mov	 eax, DWORD PTR [esi]
  00078	8d 4d f0	 lea	 ecx, DWORD PTR _vColPoint$[ebp]
  0007b	51		 push	 ecx
  0007c	8d 8f d8 08 00
	00		 lea	 ecx, DWORD PTR [edi+2264]
  00082	51		 push	 ecx
  00083	8b ce		 mov	 ecx, esi
  00085	ff 90 90 00 00
	00		 call	 DWORD PTR [eax+144]
  0008b	84 c0		 test	 al, al

; 143  : 	{
; 144  : 		return CheckCollisionLine( pEntity, vColPoint );

  0008d	75 d9		 jne	 SHORT $LN18@IsCollisio

; 145  : 	}
; 146  : 
; 147  : 	if( pEntity->IsWoundedCollision( m_WorldAttackBox, &vColPoint ) )

  0008f	8b 06		 mov	 eax, DWORD PTR [esi]
  00091	8d 4d f0	 lea	 ecx, DWORD PTR _vColPoint$[ebp]
  00094	51		 push	 ecx
  00095	8d 8f e8 04 00
	00		 lea	 ecx, DWORD PTR [edi+1256]
  0009b	51		 push	 ecx
  0009c	8b ce		 mov	 ecx, esi
  0009e	ff 90 90 00 00
	00		 call	 DWORD PTR [eax+144]
  000a4	84 c0		 test	 al, al

; 148  : 	{
; 149  : 		return CheckCollisionLine( pEntity, vColPoint );

  000a6	75 c0		 jne	 SHORT $LN18@IsCollisio
$LN5@IsCollisio:

; 131  : 		//|| pChar->GetState() == CS_BLOW_WOUNDED || pChar->GetState() == CS_BOUND_BLOW_WOUNDED )
; 132  : 		return false;

  000a8	32 c0		 xor	 al, al
$LN8@IsCollisio:

; 150  : 	}
; 151  : 
; 152  : 	return false;
; 153  : }

  000aa	8b 4d fc	 mov	 ecx, DWORD PTR __$ArrayPad$[ebp]
  000ad	5f		 pop	 edi
  000ae	33 cd		 xor	 ecx, ebp
  000b0	5e		 pop	 esi
  000b1	e8 00 00 00 00	 call	 @__security_check_cookie@4
  000b6	c9		 leave
  000b7	c2 08 00	 ret	 8
?IsCollision@ioLuciferAirGrapWeapon@@UAE_NPAVioPlayEntity@@_N@Z ENDP ; ioLuciferAirGrapWeapon::IsCollision
_TEXT	ENDS
PUBLIC	?UpdateAttackBoxByOwner@ioLuciferAirGrapWeapon@@IAEXM_N@Z ; ioLuciferAirGrapWeapon::UpdateAttackBoxByOwner
;	COMDAT xdata$x
; File d:\lost saga for developer\youtube\tutorial\source\src\lsclient\encryptvalue.h
xdata$x	SEGMENT
__unwindtable$?UpdateAttackBoxByOwner@ioLuciferAirGrapWeapon@@IAEXM_N@Z DD 0ffffffffH
	DD	FLAT:__unwindfunclet$?UpdateAttackBoxByOwner@ioLuciferAirGrapWeapon@@IAEXM_N@Z$0
__ehfuncinfo$?UpdateAttackBoxByOwner@ioLuciferAirGrapWeapon@@IAEXM_N@Z DD 019930522H
	DD	01H
	DD	FLAT:__unwindtable$?UpdateAttackBoxByOwner@ioLuciferAirGrapWeapon@@IAEXM_N@Z
	DD	2 DUP(00H)
	DD	2 DUP(00H)
	DD	00H
	DD	01H
; Function compile flags: /Ogsp
; File d:\lost saga for developer\youtube\tutorial\source\src\lsclient\ioluciferairgrapweapon.cpp
xdata$x	ENDS
;	COMDAT ?UpdateAttackBoxByOwner@ioLuciferAirGrapWeapon@@IAEXM_N@Z
_TEXT	SEGMENT
tv1071 = -116						; size = 4
tv1032 = -116						; size = 4
_value$586371 = -116					; size = 4
_value$586375 = -116					; size = 4
_fEndGap$ = -116					; size = 4
_fPreTime$ = -116					; size = 4
_value$586380 = -112					; size = 4
$T586359 = -112						; size = 4
$T586345 = -112						; size = 4
_fFrameGap$ = -112					; size = 4
tv1191 = -108						; size = 4
tv1178 = -108						; size = 4
tv1174 = -108						; size = 4
tv1167 = -108						; size = 4
tv1163 = -108						; size = 4
tv1156 = -108						; size = 4
tv1146 = -108						; size = 4
tv1136 = -108						; size = 4
tv1127 = -108						; size = 4
tv1080 = -108						; size = 4
tv1075 = -108						; size = 4
tv1040 = -108						; size = 4
tv1036 = -108						; size = 4
tv1007 = -108						; size = 4
_value$586385 = -108					; size = 4
tv997 = -104						; size = 4
tv988 = -104						; size = 4
tv981 = -104						; size = 4
tv236 = -104						; size = 4
$T586290 = -104						; size = 4
_dwLooseTime$ = -104					; size = 4
_pOwner$ = -104						; size = 4
_i$583381 = -100					; size = 4
_i$583366 = -100					; size = 4
_fLerpRate$583353 = -100				; size = 4
_dwCurTime$ = -100					; size = 4
_eCharAttackBox$ = -96					; size = 68
_vAxis$ = -28						; size = 12
__$EHRec$ = -12						; size = 12
_fTimePerSec$ = 8					; size = 4
_bSetNull$ = 12						; size = 1
?UpdateAttackBoxByOwner@ioLuciferAirGrapWeapon@@IAEXM_N@Z PROC ; ioLuciferAirGrapWeapon::UpdateAttackBoxByOwner, COMDAT
; _this$ = ecx

; 199  : {

  00000	6a 68		 push	 104			; 00000068H
  00002	b8 00 00 00 00	 mov	 eax, __ehhandler$?UpdateAttackBoxByOwner@ioLuciferAirGrapWeapon@@IAEXM_N@Z
  00007	e8 00 00 00 00	 call	 __EH_prolog3_GS
  0000c	8b d9		 mov	 ebx, ecx

; 200  : 	ioBaseChar *pOwner = GetOwner();

  0000e	e8 00 00 00 00	 call	 ?GetOwner@ioWeapon@@QBEPAVioBaseChar@@XZ ; ioWeapon::GetOwner

; 201  : 
; 202  : 	if( bSetNull || !pOwner || !IsLive() )

  00013	80 7d 0c 00	 cmp	 BYTE PTR _bSetNull$[ebp], 0
  00017	89 45 98	 mov	 DWORD PTR _pOwner$[ebp], eax
  0001a	0f 85 c5 06 00
	00		 jne	 $LN19@UpdateAtta@4
  00020	85 c0		 test	 eax, eax
  00022	0f 84 bd 06 00
	00		 je	 $LN19@UpdateAtta@4
  00028	80 bb 82 05 00
	00 00		 cmp	 BYTE PTR [ebx+1410], 0
  0002f	0f 84 b0 06 00
	00		 je	 $LN19@UpdateAtta@4

; 208  : 		return;
; 209  : 	}
; 210  : 
; 211  : 	ioOrientBox eCharAttackBox = pOwner->GetAttackCollisionBox( m_CollisionType, m_bDisableOwnerScale );

  00035	f3 0f 10 05 00
	00 00 00	 movss	 xmm0, DWORD PTR __real@3f800000
  0003d	8b 10		 mov	 edx, DWORD PTR [eax]
  0003f	51		 push	 ecx
  00040	0f b6 8b 1e 09
	00 00		 movzx	 ecx, BYTE PTR [ebx+2334]
  00047	f3 0f 11 04 24	 movss	 DWORD PTR [esp], xmm0
  0004c	51		 push	 ecx
  0004d	ff b3 b0 04 00
	00		 push	 DWORD PTR [ebx+1200]
  00053	8d 4d a0	 lea	 ecx, DWORD PTR _eCharAttackBox$[ebp]
  00056	51		 push	 ecx
  00057	8b c8		 mov	 ecx, eax
  00059	ff 92 e0 00 00
	00		 call	 DWORD PTR [edx+224]

; 212  : 
; 213  : 	m_PreAttackBox = m_WorldAttackBox;
; 214  : 
; 215  : 	DWORD dwLooseTime = 0;
; 216  : 	if( pOwner )
; 217  : 	{
; 218  : 		dwLooseTime = pOwner->GetActionStopCurAdd();

  0005f	8b 45 98	 mov	 eax, DWORD PTR _pOwner$[ebp]
  00062	83 65 fc 00	 and	 DWORD PTR __$EHRec$[ebp+8], 0
  00066	6a 11		 push	 17			; 00000011H
  00068	8d b3 e8 04 00
	00		 lea	 esi, DWORD PTR [ebx+1256]
  0006e	8d bb 94 08 00
	00		 lea	 edi, DWORD PTR [ebx+2196]
  00074	59		 pop	 ecx
  00075	f3 a5		 rep movsd
  00077	8b 80 b0 15 00
	00		 mov	 eax, DWORD PTR [eax+5552]
  0007d	89 45 98	 mov	 DWORD PTR _dwLooseTime$[ebp], eax

; 219  : 	}
; 220  : 
; 221  : 	float fFrameGap = fTimePerSec * FLOAT1000;

  00080	b8 e8 03 00 00	 mov	 eax, 1000		; 000003e8H
  00085	89 45 94	 mov	 DWORD PTR tv1191[ebp], eax
  00088	db 45 94	 fild	 DWORD PTR tv1191[ebp]
  0008b	85 c0		 test	 eax, eax
  0008d	79 06		 jns	 SHORT $LN83@UpdateAtta@4
  0008f	d8 05 00 00 00
	00		 fadd	 DWORD PTR __real@4f800000
$LN83@UpdateAtta@4:
  00095	d8 4d 08	 fmul	 DWORD PTR _fTimePerSec$[ebp]
  00098	d9 5d 90	 fstp	 DWORD PTR _fFrameGap$[ebp]

; 222  : 
; 223  : 	DWORD dwCurTime = FRAMEGETTIME();

  0009b	ff 15 00 00 00
	00		 call	 DWORD PTR __imp_?GetSingleton@ioFrameTimer@@SAAAV1@XZ
  000a1	8b c8		 mov	 ecx, eax
  000a3	ff 15 00 00 00
	00		 call	 DWORD PTR __imp_?GetLoopSec@ioFrameTimer@@QBEKXZ

; 224  : 	DWORD dwLiveEndTime = m_dwCreatedTime + m_dwLiveTime + dwLooseTime;
; 225  : 	DWORD dwFrameEndTime = dwCurTime + (DWORD)fFrameGap;

  000a9	d9 45 90	 fld	 DWORD PTR _fFrameGap$[ebp]
  000ac	8b bb d8 04 00
	00		 mov	 edi, DWORD PTR [ebx+1240]
  000b2	8b b3 d4 04 00
	00		 mov	 esi, DWORD PTR [ebx+1236]
  000b8	03 f7		 add	 esi, edi
  000ba	03 75 98	 add	 esi, DWORD PTR _dwLooseTime$[ebp]
  000bd	89 45 9c	 mov	 DWORD PTR _dwCurTime$[ebp], eax
  000c0	e8 00 00 00 00	 call	 __ftol2

; 226  : 
; 227  : 	float fPreTime = (float)dwCurTime - fFrameGap;

  000c5	db 45 9c	 fild	 DWORD PTR _dwCurTime$[ebp]
  000c8	8b 4d 9c	 mov	 ecx, DWORD PTR _dwCurTime$[ebp]
  000cb	03 45 9c	 add	 eax, DWORD PTR _dwCurTime$[ebp]
  000ce	85 c9		 test	 ecx, ecx
  000d0	79 06		 jns	 SHORT $LN84@UpdateAtta@4
  000d2	d8 05 00 00 00
	00		 fadd	 DWORD PTR __real@4f800000
$LN84@UpdateAtta@4:
  000d8	d8 65 90	 fsub	 DWORD PTR _fFrameGap$[ebp]

; 228  : 	float fEndGap = (float)dwLiveEndTime - fPreTime;

  000db	8b ce		 mov	 ecx, esi
  000dd	89 4d 94	 mov	 DWORD PTR tv1174[ebp], ecx
  000e0	d9 5d 8c	 fstp	 DWORD PTR _fPreTime$[ebp]
  000e3	db 45 94	 fild	 DWORD PTR tv1174[ebp]
  000e6	85 c9		 test	 ecx, ecx
  000e8	79 06		 jns	 SHORT $LN85@UpdateAtta@4
  000ea	d8 05 00 00 00
	00		 fadd	 DWORD PTR __real@4f800000
$LN85@UpdateAtta@4:
  000f0	d8 65 8c	 fsub	 DWORD PTR _fPreTime$[ebp]
  000f3	d9 5d 8c	 fstp	 DWORD PTR _fEndGap$[ebp]

; 229  : 
; 230  : 	D3DXVECTOR3 vAxis;
; 231  : 
; 232  : 	if( dwLiveEndTime >= dwFrameEndTime )

  000f6	3b f0		 cmp	 esi, eax
  000f8	72 13		 jb	 SHORT $LN17@UpdateAtta@4

; 233  : 	{
; 234  : 		m_WorldAttackBox = eCharAttackBox;

  000fa	6a 11		 push	 17			; 00000011H
  000fc	59		 pop	 ecx
  000fd	8d 75 a0	 lea	 esi, DWORD PTR _eCharAttackBox$[ebp]
  00100	8d bb e8 04 00
	00		 lea	 edi, DWORD PTR [ebx+1256]
  00106	f3 a5		 rep movsd

; 235  : 	}
; 236  : 	else	//    .

  00108	e9 80 02 00 00	 jmp	 $LN16@UpdateAtta@4
$LN17@UpdateAtta@4:

; 237  : 	{
; 238  : 		float fLerpRate = 0.0f;
; 239  : 		if( m_dwCreatedTime >= dwCurTime )	//   . 1  .

  0010d	8b 8b d4 04 00
	00		 mov	 ecx, DWORD PTR [ebx+1236]
  00113	3b 4d 9c	 cmp	 ecx, DWORD PTR _dwCurTime$[ebp]
  00116	72 28		 jb	 SHORT $LN15@UpdateAtta@4

; 240  : 		{
; 241  : 			fLerpRate = (float)(m_dwLiveTime+dwLooseTime) / (float)( dwFrameEndTime - m_dwCreatedTime );

  00118	03 7d 98	 add	 edi, DWORD PTR _dwLooseTime$[ebp]
  0011b	89 7d 94	 mov	 DWORD PTR tv1167[ebp], edi
  0011e	db 45 94	 fild	 DWORD PTR tv1167[ebp]
  00121	79 06		 jns	 SHORT $LN86@UpdateAtta@4
  00123	d8 05 00 00 00
	00		 fadd	 DWORD PTR __real@4f800000
$LN86@UpdateAtta@4:
  00129	2b c1		 sub	 eax, ecx
  0012b	89 45 94	 mov	 DWORD PTR tv1163[ebp], eax
  0012e	db 45 94	 fild	 DWORD PTR tv1163[ebp]
  00131	79 06		 jns	 SHORT $LN87@UpdateAtta@4
  00133	d8 05 00 00 00
	00		 fadd	 DWORD PTR __real@4f800000
$LN87@UpdateAtta@4:
  00139	de f9		 fdivp	 ST(1), ST(0)
  0013b	d9 5d 9c	 fstp	 DWORD PTR _fLerpRate$583353[ebp]

; 242  : 		}
; 243  : 		else	//  .

  0013e	eb 25		 jmp	 SHORT $LN14@UpdateAtta@4
$LN15@UpdateAtta@4:

; 244  : 		{
; 245  : 			fLerpRate = fEndGap / (2 * fFrameGap);

  00140	f3 0f 10 4d 90	 movss	 xmm1, DWORD PTR _fFrameGap$[ebp]
  00145	f3 0f 10 45 8c	 movss	 xmm0, DWORD PTR _fEndGap$[ebp]
  0014a	0f 5a c0	 cvtps2pd xmm0, xmm0
  0014d	0f 5a c9	 cvtps2pd xmm1, xmm1
  00150	f2 0f 59 0d 00
	00 00 00	 mulsd	 xmm1, QWORD PTR __real@4000000000000000
  00158	f2 0f 5e c1	 divsd	 xmm0, xmm1
  0015c	66 0f 5a c0	 cvtpd2ps xmm0, xmm0
  00160	f3 0f 11 45 9c	 movss	 DWORD PTR _fLerpRate$583353[ebp], xmm0
$LN14@UpdateAtta@4:

; 246  : 		}
; 247  : 
; 248  : 		fLerpRate = max( 0.0f, min( FLOAT1, fLerpRate ) );

  00165	b8 01 00 00 00	 mov	 eax, 1
  0016a	89 45 94	 mov	 DWORD PTR tv1156[ebp], eax
  0016d	db 45 94	 fild	 DWORD PTR tv1156[ebp]
  00170	85 c0		 test	 eax, eax
  00172	79 06		 jns	 SHORT $LN88@UpdateAtta@4
  00174	d8 05 00 00 00
	00		 fadd	 DWORD PTR __real@4f800000
$LN88@UpdateAtta@4:
  0017a	d9 45 9c	 fld	 DWORD PTR _fLerpRate$583353[ebp]
  0017d	df f1		 fcomip	 ST(1)
  0017f	dd d8		 fstp	 ST(0)
  00181	76 1a		 jbe	 SHORT $LN23@UpdateAtta@4
  00183	b8 01 00 00 00	 mov	 eax, 1
  00188	89 45 94	 mov	 DWORD PTR tv1146[ebp], eax
  0018b	db 45 94	 fild	 DWORD PTR tv1146[ebp]
  0018e	85 c0		 test	 eax, eax
  00190	79 06		 jns	 SHORT $LN89@UpdateAtta@4
  00192	d8 05 00 00 00
	00		 fadd	 DWORD PTR __real@4f800000
$LN89@UpdateAtta@4:
  00198	d9 5d 98	 fstp	 DWORD PTR tv236[ebp]
  0019b	eb 0a		 jmp	 SHORT $LN24@UpdateAtta@4
$LN23@UpdateAtta@4:
  0019d	f3 0f 10 45 9c	 movss	 xmm0, DWORD PTR _fLerpRate$583353[ebp]
  001a2	f3 0f 11 45 98	 movss	 DWORD PTR tv236[ebp], xmm0
$LN24@UpdateAtta@4:
  001a7	f3 0f 10 45 98	 movss	 xmm0, DWORD PTR tv236[ebp]
  001ac	0f 57 c9	 xorps	 xmm1, xmm1
  001af	0f 5a c0	 cvtps2pd xmm0, xmm0
  001b2	66 0f 2f c8	 comisd	 xmm1, xmm0
  001b6	76 0a		 jbe	 SHORT $LN27@UpdateAtta@4
  001b8	0f 57 c0	 xorps	 xmm0, xmm0
  001bb	f3 0f 11 45 9c	 movss	 DWORD PTR _fLerpRate$583353[ebp], xmm0
  001c0	eb 36		 jmp	 SHORT $LN25@UpdateAtta@4
$LN27@UpdateAtta@4:
  001c2	b8 01 00 00 00	 mov	 eax, 1
  001c7	89 45 94	 mov	 DWORD PTR tv1136[ebp], eax
  001ca	db 45 94	 fild	 DWORD PTR tv1136[ebp]
  001cd	85 c0		 test	 eax, eax
  001cf	79 06		 jns	 SHORT $LN90@UpdateAtta@4
  001d1	d8 05 00 00 00
	00		 fadd	 DWORD PTR __real@4f800000
$LN90@UpdateAtta@4:
  001d7	d9 45 9c	 fld	 DWORD PTR _fLerpRate$583353[ebp]
  001da	df f1		 fcomip	 ST(1)
  001dc	dd d8		 fstp	 ST(0)
  001de	76 18		 jbe	 SHORT $LN25@UpdateAtta@4
  001e0	b8 01 00 00 00	 mov	 eax, 1
  001e5	89 45 94	 mov	 DWORD PTR tv1127[ebp], eax
  001e8	db 45 94	 fild	 DWORD PTR tv1127[ebp]
  001eb	85 c0		 test	 eax, eax
  001ed	79 06		 jns	 SHORT $LN91@UpdateAtta@4
  001ef	d8 05 00 00 00
	00		 fadd	 DWORD PTR __real@4f800000
$LN91@UpdateAtta@4:
  001f5	d9 5d 9c	 fstp	 DWORD PTR _fLerpRate$583353[ebp]
$LN25@UpdateAtta@4:

; 249  : 
; 250  : 		for( int i=0 ; i<3 ; i++ )

  001f8	33 ff		 xor	 edi, edi
$LL13@UpdateAtta@4:

; 251  : 		{
; 252  : 			D3DXVec3Lerp( &vAxis, &m_PreAttackBox.GetAxis(i), &eCharAttackBox.GetAxis(i), fLerpRate );

  001fa	57		 push	 edi
  001fb	8d 4d a0	 lea	 ecx, DWORD PTR _eCharAttackBox$[ebp]
  001fe	ff 15 00 00 00
	00		 call	 DWORD PTR __imp_?GetAxis@ioOrientBox@@QBEABUD3DXVECTOR3@@H@Z
  00204	57		 push	 edi
  00205	8d 8b 94 08 00
	00		 lea	 ecx, DWORD PTR [ebx+2196]
  0020b	8b f0		 mov	 esi, eax
  0020d	ff 15 00 00 00
	00		 call	 DWORD PTR __imp_?GetAxis@ioOrientBox@@QBEABUD3DXVECTOR3@@H@Z
  00213	f3 0f 10 00	 movss	 xmm0, DWORD PTR [eax]
  00217	f3 0f 10 0e	 movss	 xmm1, DWORD PTR [esi]
  0021b	0f 5a d0	 cvtps2pd xmm2, xmm0
  0021e	0f 5a c9	 cvtps2pd xmm1, xmm1
  00221	f2 0f 5c ca	 subsd	 xmm1, xmm2
  00225	f3 0f 10 55 9c	 movss	 xmm2, DWORD PTR _fLerpRate$583353[ebp]
  0022a	0f 5a c0	 cvtps2pd xmm0, xmm0
  0022d	0f 5a d2	 cvtps2pd xmm2, xmm2
  00230	f2 0f 59 ca	 mulsd	 xmm1, xmm2
  00234	f2 0f 58 c8	 addsd	 xmm1, xmm0
  00238	0f 57 c0	 xorps	 xmm0, xmm0
  0023b	66 0f 5a c1	 cvtpd2ps xmm0, xmm1
  0023f	f3 0f 11 45 e4	 movss	 DWORD PTR _vAxis$[ebp], xmm0
  00244	f3 0f 10 40 04	 movss	 xmm0, DWORD PTR [eax+4]
  00249	f3 0f 10 4e 04	 movss	 xmm1, DWORD PTR [esi+4]
  0024e	0f 5a d0	 cvtps2pd xmm2, xmm0
  00251	0f 5a c9	 cvtps2pd xmm1, xmm1
  00254	f2 0f 5c ca	 subsd	 xmm1, xmm2
  00258	f3 0f 10 55 9c	 movss	 xmm2, DWORD PTR _fLerpRate$583353[ebp]
  0025d	0f 5a c0	 cvtps2pd xmm0, xmm0
  00260	0f 5a d2	 cvtps2pd xmm2, xmm2
  00263	f2 0f 59 ca	 mulsd	 xmm1, xmm2
  00267	f2 0f 58 c8	 addsd	 xmm1, xmm0
  0026b	0f 57 c0	 xorps	 xmm0, xmm0
  0026e	66 0f 5a c1	 cvtpd2ps xmm0, xmm1
  00272	f3 0f 11 45 e8	 movss	 DWORD PTR _vAxis$[ebp+4], xmm0
  00277	f3 0f 10 40 08	 movss	 xmm0, DWORD PTR [eax+8]
  0027c	f3 0f 10 4e 08	 movss	 xmm1, DWORD PTR [esi+8]
  00281	0f 5a d0	 cvtps2pd xmm2, xmm0
  00284	0f 5a c9	 cvtps2pd xmm1, xmm1
  00287	f2 0f 5c ca	 subsd	 xmm1, xmm2
  0028b	f3 0f 10 55 9c	 movss	 xmm2, DWORD PTR _fLerpRate$583353[ebp]
  00290	0f 5a c0	 cvtps2pd xmm0, xmm0

; 253  : 			D3DXVec3Normalize( &vAxis, &vAxis );

  00293	8d 45 e4	 lea	 eax, DWORD PTR _vAxis$[ebp]
  00296	0f 5a d2	 cvtps2pd xmm2, xmm2
  00299	f2 0f 59 ca	 mulsd	 xmm1, xmm2
  0029d	f2 0f 58 c8	 addsd	 xmm1, xmm0
  002a1	50		 push	 eax
  002a2	0f 57 c0	 xorps	 xmm0, xmm0
  002a5	66 0f 5a c1	 cvtpd2ps xmm0, xmm1
  002a9	50		 push	 eax
  002aa	f3 0f 11 45 ec	 movss	 DWORD PTR _vAxis$[ebp+8], xmm0
  002af	e8 00 00 00 00	 call	 _D3DXVec3Normalize@8

; 254  : 			m_WorldAttackBox.SetAxis( i, vAxis );

  002b4	8d 45 e4	 lea	 eax, DWORD PTR _vAxis$[ebp]
  002b7	50		 push	 eax
  002b8	57		 push	 edi
  002b9	8d 8b e8 04 00
	00		 lea	 ecx, DWORD PTR [ebx+1256]
  002bf	ff 15 00 00 00
	00		 call	 DWORD PTR __imp_?SetAxis@ioOrientBox@@QAEXHABUD3DXVECTOR3@@@Z
  002c5	47		 inc	 edi
  002c6	83 ff 03	 cmp	 edi, 3
  002c9	0f 8c 2b ff ff
	ff		 jl	 $LL13@UpdateAtta@4

; 255  : 		}
; 256  : 
; 257  : 		D3DXVec3Lerp( &vAxis, &m_PreAttackBox.GetCenter(), &eCharAttackBox.GetCenter(), fLerpRate );

  002cf	8d 4d a0	 lea	 ecx, DWORD PTR _eCharAttackBox$[ebp]
  002d2	ff 15 00 00 00
	00		 call	 DWORD PTR __imp_?GetCenter@ioOrientBox@@QBEABUD3DXVECTOR3@@XZ
  002d8	8d 8b 94 08 00
	00		 lea	 ecx, DWORD PTR [ebx+2196]
  002de	8b f0		 mov	 esi, eax
  002e0	ff 15 00 00 00
	00		 call	 DWORD PTR __imp_?GetCenter@ioOrientBox@@QBEABUD3DXVECTOR3@@XZ
  002e6	f3 0f 10 00	 movss	 xmm0, DWORD PTR [eax]
  002ea	f3 0f 10 0e	 movss	 xmm1, DWORD PTR [esi]
  002ee	0f 5a d0	 cvtps2pd xmm2, xmm0
  002f1	0f 5a c9	 cvtps2pd xmm1, xmm1
  002f4	f2 0f 5c ca	 subsd	 xmm1, xmm2
  002f8	f3 0f 10 55 9c	 movss	 xmm2, DWORD PTR _fLerpRate$583353[ebp]
  002fd	0f 5a c0	 cvtps2pd xmm0, xmm0
  00300	0f 5a d2	 cvtps2pd xmm2, xmm2
  00303	f2 0f 59 ca	 mulsd	 xmm1, xmm2
  00307	f2 0f 58 c8	 addsd	 xmm1, xmm0
  0030b	0f 57 c0	 xorps	 xmm0, xmm0
  0030e	66 0f 5a c1	 cvtpd2ps xmm0, xmm1
  00312	f3 0f 11 45 e4	 movss	 DWORD PTR _vAxis$[ebp], xmm0
  00317	f3 0f 10 40 04	 movss	 xmm0, DWORD PTR [eax+4]
  0031c	f3 0f 10 4e 04	 movss	 xmm1, DWORD PTR [esi+4]
  00321	0f 5a d0	 cvtps2pd xmm2, xmm0
  00324	0f 5a c9	 cvtps2pd xmm1, xmm1
  00327	f2 0f 5c ca	 subsd	 xmm1, xmm2
  0032b	f3 0f 10 55 9c	 movss	 xmm2, DWORD PTR _fLerpRate$583353[ebp]
  00330	0f 5a c0	 cvtps2pd xmm0, xmm0
  00333	0f 5a d2	 cvtps2pd xmm2, xmm2
  00336	f2 0f 59 ca	 mulsd	 xmm1, xmm2
  0033a	f2 0f 58 c8	 addsd	 xmm1, xmm0
  0033e	0f 57 c0	 xorps	 xmm0, xmm0
  00341	66 0f 5a c1	 cvtpd2ps xmm0, xmm1
  00345	f3 0f 11 45 e8	 movss	 DWORD PTR _vAxis$[ebp+4], xmm0
  0034a	f3 0f 10 40 08	 movss	 xmm0, DWORD PTR [eax+8]
  0034f	f3 0f 10 4e 08	 movss	 xmm1, DWORD PTR [esi+8]
  00354	0f 5a d0	 cvtps2pd xmm2, xmm0
  00357	0f 5a c9	 cvtps2pd xmm1, xmm1
  0035a	f2 0f 5c ca	 subsd	 xmm1, xmm2
  0035e	f3 0f 10 55 9c	 movss	 xmm2, DWORD PTR _fLerpRate$583353[ebp]
  00363	0f 5a c0	 cvtps2pd xmm0, xmm0
  00366	0f 5a d2	 cvtps2pd xmm2, xmm2
  00369	f2 0f 59 ca	 mulsd	 xmm1, xmm2
  0036d	f2 0f 58 c8	 addsd	 xmm1, xmm0

; 258  : 		m_WorldAttackBox.SetCenter( vAxis );

  00371	8d 45 e4	 lea	 eax, DWORD PTR _vAxis$[ebp]
  00374	0f 57 c0	 xorps	 xmm0, xmm0
  00377	66 0f 5a c1	 cvtpd2ps xmm0, xmm1
  0037b	50		 push	 eax
  0037c	8d 8b e8 04 00
	00		 lea	 ecx, DWORD PTR [ebx+1256]
  00382	f3 0f 11 45 ec	 movss	 DWORD PTR _vAxis$[ebp+8], xmm0
  00387	ff 15 00 00 00
	00		 call	 DWORD PTR __imp_?SetCenter@ioOrientBox@@QAEXABUD3DXVECTOR3@@@Z
$LN16@UpdateAtta@4:

; 259  : 	}
; 260  : 
; 261  : 	for( int i=0 ; i<3 ; i++ )

  0038d	83 65 9c 00	 and	 DWORD PTR _i$583366[ebp], 0
  00391	8b 35 00 00 00
	00		 mov	 esi, DWORD PTR __imp_?SetExtents@ioOrientBox@@QAEXHM@Z
$LN10@UpdateAtta@4:

; 262  : 	{
; 263  : 		D3DXVec3Lerp( &vAxis, &m_PreAttackBox.GetAxis(i), &m_WorldAttackBox.GetAxis(i), FLOAT05 );

  00397	b8 05 00 00 00	 mov	 eax, 5
  0039c	8b c8		 mov	 ecx, eax
  0039e	b8 0a 00 00 00	 mov	 eax, 10			; 0000000aH
  003a3	89 4d 94	 mov	 DWORD PTR tv1080[ebp], ecx
  003a6	db 45 94	 fild	 DWORD PTR tv1080[ebp]
  003a9	85 c9		 test	 ecx, ecx
  003ab	79 06		 jns	 SHORT $LN92@UpdateAtta@4
  003ad	d8 05 00 00 00
	00		 fadd	 DWORD PTR __real@4f800000
$LN92@UpdateAtta@4:
  003b3	89 45 94	 mov	 DWORD PTR tv1075[ebp], eax
  003b6	db 45 94	 fild	 DWORD PTR tv1075[ebp]
  003b9	85 c0		 test	 eax, eax
  003bb	79 06		 jns	 SHORT $LN93@UpdateAtta@4
  003bd	d8 05 00 00 00
	00		 fadd	 DWORD PTR __real@4f800000
$LN93@UpdateAtta@4:
  003c3	de f9		 fdivp	 ST(1), ST(0)
  003c5	ff 75 9c	 push	 DWORD PTR _i$583366[ebp]
  003c8	8d 8b e8 04 00
	00		 lea	 ecx, DWORD PTR [ebx+1256]
  003ce	d9 5d 8c	 fstp	 DWORD PTR tv1071[ebp]
  003d1	d9 45 8c	 fld	 DWORD PTR tv1071[ebp]
  003d4	d9 5d 90	 fstp	 DWORD PTR $T586345[ebp]
  003d7	ff 15 00 00 00
	00		 call	 DWORD PTR __imp_?GetAxis@ioOrientBox@@QBEABUD3DXVECTOR3@@H@Z
  003dd	ff 75 9c	 push	 DWORD PTR _i$583366[ebp]
  003e0	8d 8b 94 08 00
	00		 lea	 ecx, DWORD PTR [ebx+2196]
  003e6	8b f8		 mov	 edi, eax
  003e8	ff 15 00 00 00
	00		 call	 DWORD PTR __imp_?GetAxis@ioOrientBox@@QBEABUD3DXVECTOR3@@H@Z
  003ee	f3 0f 10 00	 movss	 xmm0, DWORD PTR [eax]
  003f2	f3 0f 10 0f	 movss	 xmm1, DWORD PTR [edi]
  003f6	0f 5a d0	 cvtps2pd xmm2, xmm0
  003f9	0f 5a c9	 cvtps2pd xmm1, xmm1
  003fc	f2 0f 5c ca	 subsd	 xmm1, xmm2
  00400	f3 0f 10 55 90	 movss	 xmm2, DWORD PTR $T586345[ebp]
  00405	0f 5a c0	 cvtps2pd xmm0, xmm0
  00408	0f 5a d2	 cvtps2pd xmm2, xmm2
  0040b	f2 0f 59 ca	 mulsd	 xmm1, xmm2
  0040f	f2 0f 58 c8	 addsd	 xmm1, xmm0
  00413	0f 57 c0	 xorps	 xmm0, xmm0
  00416	66 0f 5a c1	 cvtpd2ps xmm0, xmm1
  0041a	f3 0f 11 45 e4	 movss	 DWORD PTR _vAxis$[ebp], xmm0
  0041f	f3 0f 10 40 04	 movss	 xmm0, DWORD PTR [eax+4]
  00424	f3 0f 10 4f 04	 movss	 xmm1, DWORD PTR [edi+4]
  00429	0f 5a d0	 cvtps2pd xmm2, xmm0
  0042c	0f 5a c9	 cvtps2pd xmm1, xmm1
  0042f	f2 0f 5c ca	 subsd	 xmm1, xmm2
  00433	f3 0f 10 55 90	 movss	 xmm2, DWORD PTR $T586345[ebp]
  00438	0f 5a c0	 cvtps2pd xmm0, xmm0
  0043b	0f 5a d2	 cvtps2pd xmm2, xmm2
  0043e	f2 0f 59 ca	 mulsd	 xmm1, xmm2
  00442	f2 0f 58 c8	 addsd	 xmm1, xmm0
  00446	0f 57 c0	 xorps	 xmm0, xmm0
  00449	66 0f 5a c1	 cvtpd2ps xmm0, xmm1
  0044d	f3 0f 11 45 e8	 movss	 DWORD PTR _vAxis$[ebp+4], xmm0
  00452	f3 0f 10 40 08	 movss	 xmm0, DWORD PTR [eax+8]
  00457	f3 0f 10 4f 08	 movss	 xmm1, DWORD PTR [edi+8]
  0045c	0f 5a d0	 cvtps2pd xmm2, xmm0
  0045f	0f 5a c9	 cvtps2pd xmm1, xmm1
  00462	f2 0f 5c ca	 subsd	 xmm1, xmm2
  00466	f3 0f 10 55 90	 movss	 xmm2, DWORD PTR $T586345[ebp]
  0046b	0f 5a c0	 cvtps2pd xmm0, xmm0

; 264  : 		D3DXVec3Normalize( &vAxis, &vAxis );

  0046e	8d 45 e4	 lea	 eax, DWORD PTR _vAxis$[ebp]
  00471	0f 5a d2	 cvtps2pd xmm2, xmm2
  00474	f2 0f 59 ca	 mulsd	 xmm1, xmm2
  00478	f2 0f 58 c8	 addsd	 xmm1, xmm0
  0047c	50		 push	 eax
  0047d	0f 57 c0	 xorps	 xmm0, xmm0
  00480	66 0f 5a c1	 cvtpd2ps xmm0, xmm1
  00484	50		 push	 eax
  00485	f3 0f 11 45 ec	 movss	 DWORD PTR _vAxis$[ebp+8], xmm0
  0048a	e8 00 00 00 00	 call	 _D3DXVec3Normalize@8

; 265  : 		m_MidAttackBox.SetAxis( i, vAxis );

  0048f	8d 45 e4	 lea	 eax, DWORD PTR _vAxis$[ebp]
  00492	50		 push	 eax
  00493	ff 75 9c	 push	 DWORD PTR _i$583366[ebp]
  00496	8d 8b d8 08 00
	00		 lea	 ecx, DWORD PTR [ebx+2264]
  0049c	ff 15 00 00 00
	00		 call	 DWORD PTR __imp_?SetAxis@ioOrientBox@@QAEXHABUD3DXVECTOR3@@@Z

; 266  : 		m_MidAttackBox.SetExtents( i, m_WorldAttackBox.GetExtents(i) );

  004a2	ff 75 9c	 push	 DWORD PTR _i$583366[ebp]
  004a5	8d 8b e8 04 00
	00		 lea	 ecx, DWORD PTR [ebx+1256]
  004ab	ff 15 00 00 00
	00		 call	 DWORD PTR __imp_?GetExtents@ioOrientBox@@QBEMH@Z
  004b1	51		 push	 ecx
  004b2	d9 1c 24	 fstp	 DWORD PTR [esp]
  004b5	ff 75 9c	 push	 DWORD PTR _i$583366[ebp]
  004b8	8d 8b d8 08 00
	00		 lea	 ecx, DWORD PTR [ebx+2264]
  004be	ff d6		 call	 esi
  004c0	ff 45 9c	 inc	 DWORD PTR _i$583366[ebp]
  004c3	83 7d 9c 03	 cmp	 DWORD PTR _i$583366[ebp], 3
  004c7	0f 8c ca fe ff
	ff		 jl	 $LN10@UpdateAtta@4

; 267  : 	}
; 268  : 
; 269  : 	D3DXVec3Lerp( &vAxis, &m_PreAttackBox.GetCenter(), &m_WorldAttackBox.GetCenter(), FLOAT05 );

  004cd	b8 05 00 00 00	 mov	 eax, 5
  004d2	8b c8		 mov	 ecx, eax
  004d4	b8 0a 00 00 00	 mov	 eax, 10			; 0000000aH
  004d9	89 4d 94	 mov	 DWORD PTR tv1040[ebp], ecx
  004dc	db 45 94	 fild	 DWORD PTR tv1040[ebp]
  004df	85 c9		 test	 ecx, ecx
  004e1	79 06		 jns	 SHORT $LN94@UpdateAtta@4
  004e3	d8 05 00 00 00
	00		 fadd	 DWORD PTR __real@4f800000
$LN94@UpdateAtta@4:
  004e9	89 45 94	 mov	 DWORD PTR tv1036[ebp], eax
  004ec	db 45 94	 fild	 DWORD PTR tv1036[ebp]
  004ef	85 c0		 test	 eax, eax
  004f1	79 06		 jns	 SHORT $LN95@UpdateAtta@4
  004f3	d8 05 00 00 00
	00		 fadd	 DWORD PTR __real@4f800000
$LN95@UpdateAtta@4:
  004f9	de f9		 fdivp	 ST(1), ST(0)
  004fb	8d 8b e8 04 00
	00		 lea	 ecx, DWORD PTR [ebx+1256]
  00501	d9 5d 8c	 fstp	 DWORD PTR tv1032[ebp]
  00504	d9 45 8c	 fld	 DWORD PTR tv1032[ebp]
  00507	d9 5d 90	 fstp	 DWORD PTR $T586359[ebp]
  0050a	ff 15 00 00 00
	00		 call	 DWORD PTR __imp_?GetCenter@ioOrientBox@@QBEABUD3DXVECTOR3@@XZ
  00510	8d 8b 94 08 00
	00		 lea	 ecx, DWORD PTR [ebx+2196]
  00516	8b f8		 mov	 edi, eax
  00518	ff 15 00 00 00
	00		 call	 DWORD PTR __imp_?GetCenter@ioOrientBox@@QBEABUD3DXVECTOR3@@XZ
  0051e	f3 0f 10 00	 movss	 xmm0, DWORD PTR [eax]
  00522	f3 0f 10 0f	 movss	 xmm1, DWORD PTR [edi]
  00526	0f 5a d0	 cvtps2pd xmm2, xmm0
  00529	0f 5a c9	 cvtps2pd xmm1, xmm1
  0052c	f2 0f 5c ca	 subsd	 xmm1, xmm2
  00530	f3 0f 10 55 90	 movss	 xmm2, DWORD PTR $T586359[ebp]
  00535	0f 5a c0	 cvtps2pd xmm0, xmm0
  00538	0f 5a d2	 cvtps2pd xmm2, xmm2
  0053b	f2 0f 59 ca	 mulsd	 xmm1, xmm2
  0053f	f2 0f 58 c8	 addsd	 xmm1, xmm0
  00543	0f 57 c0	 xorps	 xmm0, xmm0
  00546	66 0f 5a c1	 cvtpd2ps xmm0, xmm1
  0054a	f3 0f 11 45 e4	 movss	 DWORD PTR _vAxis$[ebp], xmm0
  0054f	f3 0f 10 40 04	 movss	 xmm0, DWORD PTR [eax+4]
  00554	f3 0f 10 4f 04	 movss	 xmm1, DWORD PTR [edi+4]
  00559	0f 5a d0	 cvtps2pd xmm2, xmm0
  0055c	0f 5a c9	 cvtps2pd xmm1, xmm1
  0055f	f2 0f 5c ca	 subsd	 xmm1, xmm2
  00563	f3 0f 10 55 90	 movss	 xmm2, DWORD PTR $T586359[ebp]
  00568	0f 5a c0	 cvtps2pd xmm0, xmm0
  0056b	0f 5a d2	 cvtps2pd xmm2, xmm2
  0056e	f2 0f 59 ca	 mulsd	 xmm1, xmm2
  00572	f2 0f 58 c8	 addsd	 xmm1, xmm0
  00576	0f 57 c0	 xorps	 xmm0, xmm0
  00579	66 0f 5a c1	 cvtpd2ps xmm0, xmm1
  0057d	f3 0f 11 45 e8	 movss	 DWORD PTR _vAxis$[ebp+4], xmm0
  00582	f3 0f 10 40 08	 movss	 xmm0, DWORD PTR [eax+8]
  00587	f3 0f 10 4f 08	 movss	 xmm1, DWORD PTR [edi+8]
  0058c	0f 5a d0	 cvtps2pd xmm2, xmm0
  0058f	0f 5a c9	 cvtps2pd xmm1, xmm1
  00592	f2 0f 5c ca	 subsd	 xmm1, xmm2
  00596	f3 0f 10 55 90	 movss	 xmm2, DWORD PTR $T586359[ebp]
  0059b	0f 5a c0	 cvtps2pd xmm0, xmm0
  0059e	0f 5a d2	 cvtps2pd xmm2, xmm2
  005a1	f2 0f 59 ca	 mulsd	 xmm1, xmm2

; 270  : 	m_MidAttackBox.SetCenter( vAxis );

  005a5	8d 45 e4	 lea	 eax, DWORD PTR _vAxis$[ebp]
  005a8	f2 0f 58 c8	 addsd	 xmm1, xmm0
  005ac	50		 push	 eax
  005ad	66 0f 5a c1	 cvtpd2ps xmm0, xmm1
  005b1	8d 8b d8 08 00
	00		 lea	 ecx, DWORD PTR [ebx+2264]
  005b7	f3 0f 11 45 ec	 movss	 DWORD PTR _vAxis$[ebp+8], xmm0
  005bc	ff 15 00 00 00
	00		 call	 DWORD PTR __imp_?SetCenter@ioOrientBox@@QAEXABUD3DXVECTOR3@@@Z

; 271  : 
; 272  : 
; 273  : 	if( m_UpdateState == CONTACT_CREATED )

  005c2	33 c9		 xor	 ecx, ecx
  005c4	39 8b 20 09 00
	00		 cmp	 DWORD PTR [ebx+2336], ecx
  005ca	0f 95 c1	 setne	 cl
  005cd	41		 inc	 ecx
  005ce	89 8b 20 09 00
	00		 mov	 DWORD PTR [ebx+2336], ecx

; 274  : 		m_UpdateState = CONTACT_FIRST;
; 275  : 	else
; 276  : 		m_UpdateState = CONTACT_NORMAL;
; 277  : 
; 278  : 	if( m_fOwnerChargeScaleRate > FLOAT1 )

  005d4	b8 01 00 00 00	 mov	 eax, 1
  005d9	89 45 94	 mov	 DWORD PTR tv1007[ebp], eax
  005dc	db 45 94	 fild	 DWORD PTR tv1007[ebp]
  005df	85 c0		 test	 eax, eax
  005e1	79 06		 jns	 SHORT $LN96@UpdateAtta@4
  005e3	d8 05 00 00 00
	00		 fadd	 DWORD PTR __real@4f800000
$LN96@UpdateAtta@4:
  005e9	8d 45 8c	 lea	 eax, DWORD PTR _value$586371[ebp]
  005ec	d9 5d 98	 fstp	 DWORD PTR $T586290[ebp]
  005ef	50		 push	 eax
  005f0	8d 8b b0 01 00
	00		 lea	 ecx, DWORD PTR [ebx+432]
  005f6	e8 00 00 00 00	 call	 ?DecryptValueToPool@?$CEncrypt@M@@QAEXPAM@Z ; CEncrypt<float>::DecryptValueToPool
  005fb	d9 45 98	 fld	 DWORD PTR $T586290[ebp]
  005fe	d9 45 8c	 fld	 DWORD PTR _value$586371[ebp]
  00601	df f1		 fcomip	 ST(1)
  00603	dd d8		 fstp	 ST(0)
  00605	0f 86 aa 00 00
	00		 jbe	 $LN2@UpdateAtta@4

; 279  : 	{
; 280  : 		for( int i=0 ; i<3 ; i++ )

  0060b	83 65 9c 00	 and	 DWORD PTR _i$583381[ebp], 0
$LL4@UpdateAtta@4:

; 281  : 		{
; 282  : 			m_PreAttackBox.SetExtents( i, eCharAttackBox.GetExtents(i) * m_fOwnerChargeScaleRate );

  0060f	8d 45 8c	 lea	 eax, DWORD PTR _value$586375[ebp]
  00612	50		 push	 eax
  00613	8d 8b b0 01 00
	00		 lea	 ecx, DWORD PTR [ebx+432]
  00619	e8 00 00 00 00	 call	 ?DecryptValueToPool@?$CEncrypt@M@@QAEXPAM@Z ; CEncrypt<float>::DecryptValueToPool
  0061e	ff 75 9c	 push	 DWORD PTR _i$583381[ebp]
  00621	8d 4d a0	 lea	 ecx, DWORD PTR _eCharAttackBox$[ebp]
  00624	ff 15 00 00 00
	00		 call	 DWORD PTR __imp_?GetExtents@ioOrientBox@@QBEMH@Z
  0062a	d8 4d 8c	 fmul	 DWORD PTR _value$586375[ebp]
  0062d	51		 push	 ecx
  0062e	8d 8b 94 08 00
	00		 lea	 ecx, DWORD PTR [ebx+2196]
  00634	d9 5d 98	 fstp	 DWORD PTR tv997[ebp]
  00637	d9 45 98	 fld	 DWORD PTR tv997[ebp]
  0063a	d9 1c 24	 fstp	 DWORD PTR [esp]
  0063d	ff 75 9c	 push	 DWORD PTR _i$583381[ebp]
  00640	ff d6		 call	 esi

; 283  : 			m_MidAttackBox.SetExtents( i, eCharAttackBox.GetExtents(i) * m_fOwnerChargeScaleRate );

  00642	8d 45 90	 lea	 eax, DWORD PTR _value$586380[ebp]
  00645	50		 push	 eax
  00646	8d 8b b0 01 00
	00		 lea	 ecx, DWORD PTR [ebx+432]
  0064c	e8 00 00 00 00	 call	 ?DecryptValueToPool@?$CEncrypt@M@@QAEXPAM@Z ; CEncrypt<float>::DecryptValueToPool
  00651	ff 75 9c	 push	 DWORD PTR _i$583381[ebp]
  00654	8d 4d a0	 lea	 ecx, DWORD PTR _eCharAttackBox$[ebp]
  00657	ff 15 00 00 00
	00		 call	 DWORD PTR __imp_?GetExtents@ioOrientBox@@QBEMH@Z
  0065d	d8 4d 90	 fmul	 DWORD PTR _value$586380[ebp]
  00660	51		 push	 ecx
  00661	8d 8b d8 08 00
	00		 lea	 ecx, DWORD PTR [ebx+2264]
  00667	d9 5d 98	 fstp	 DWORD PTR tv988[ebp]
  0066a	d9 45 98	 fld	 DWORD PTR tv988[ebp]
  0066d	d9 1c 24	 fstp	 DWORD PTR [esp]
  00670	ff 75 9c	 push	 DWORD PTR _i$583381[ebp]
  00673	ff d6		 call	 esi

; 284  : 			m_WorldAttackBox.SetExtents( i, eCharAttackBox.GetExtents(i) * m_fOwnerChargeScaleRate );

  00675	8d 45 94	 lea	 eax, DWORD PTR _value$586385[ebp]
  00678	50		 push	 eax
  00679	8d 8b b0 01 00
	00		 lea	 ecx, DWORD PTR [ebx+432]
  0067f	e8 00 00 00 00	 call	 ?DecryptValueToPool@?$CEncrypt@M@@QAEXPAM@Z ; CEncrypt<float>::DecryptValueToPool
  00684	ff 75 9c	 push	 DWORD PTR _i$583381[ebp]
  00687	8d 4d a0	 lea	 ecx, DWORD PTR _eCharAttackBox$[ebp]
  0068a	ff 15 00 00 00
	00		 call	 DWORD PTR __imp_?GetExtents@ioOrientBox@@QBEMH@Z
  00690	d8 4d 94	 fmul	 DWORD PTR _value$586385[ebp]
  00693	51		 push	 ecx
  00694	8d 8b e8 04 00
	00		 lea	 ecx, DWORD PTR [ebx+1256]
  0069a	d9 5d 98	 fstp	 DWORD PTR tv981[ebp]
  0069d	d9 45 98	 fld	 DWORD PTR tv981[ebp]
  006a0	d9 1c 24	 fstp	 DWORD PTR [esp]
  006a3	ff 75 9c	 push	 DWORD PTR _i$583381[ebp]
  006a6	ff d6		 call	 esi
  006a8	ff 45 9c	 inc	 DWORD PTR _i$583381[ebp]
  006ab	83 7d 9c 03	 cmp	 DWORD PTR _i$583381[ebp], 3
  006af	0f 8c 5a ff ff
	ff		 jl	 $LL4@UpdateAtta@4
$LN2@UpdateAtta@4:

; 285  : 		}
; 286  : 	}
; 287  : 
; 288  : 	m_WorldAttackBoxForMap = m_WorldAttackBox;
; 289  : 
; 290  : 	if( m_bFirstCheck )

  006b5	80 bb 1c 09 00
	00 00		 cmp	 BYTE PTR [ebx+2332], 0
  006bc	6a 11		 push	 17			; 00000011H
  006be	8d bb 2c 05 00
	00		 lea	 edi, DWORD PTR [ebx+1324]
  006c4	59		 pop	 ecx
  006c5	8d b3 e8 04 00
	00		 lea	 esi, DWORD PTR [ebx+1256]
  006cb	f3 a5		 rep movsd
  006cd	74 07		 je	 SHORT $LN1@UpdateAtta@4

; 291  : 	{
; 292  : 		m_bFirstCheck = false;

  006cf	c6 83 1c 09 00
	00 00		 mov	 BYTE PTR [ebx+2332], 0
$LN1@UpdateAtta@4:

; 293  : 	}
; 294  : }

  006d6	83 4d fc ff	 or	 DWORD PTR __$EHRec$[ebp+8], -1
  006da	8d 4d a0	 lea	 ecx, DWORD PTR _eCharAttackBox$[ebp]
  006dd	ff 15 00 00 00
	00		 call	 DWORD PTR __imp_??1ioOrientBox@@QAE@XZ
  006e3	eb 26		 jmp	 SHORT $LN21@UpdateAtta@4
$LN19@UpdateAtta@4:

; 203  : 	{
; 204  : 		m_PreAttackBox.SetNull();

  006e5	8b 35 00 00 00
	00		 mov	 esi, DWORD PTR __imp_?SetNull@ioOrientBox@@QAEXXZ
  006eb	8d 8b 94 08 00
	00		 lea	 ecx, DWORD PTR [ebx+2196]
  006f1	ff d6		 call	 esi

; 205  : 		m_MidAttackBox.SetNull();

  006f3	8d 8b d8 08 00
	00		 lea	 ecx, DWORD PTR [ebx+2264]
  006f9	ff d6		 call	 esi

; 206  : 		m_WorldAttackBox.SetNull();

  006fb	8d 8b e8 04 00
	00		 lea	 ecx, DWORD PTR [ebx+1256]
  00701	ff d6		 call	 esi

; 207  : 		m_WorldAttackBoxForMap.SetNull();

  00703	8d 8b 2c 05 00
	00		 lea	 ecx, DWORD PTR [ebx+1324]
  00709	ff d6		 call	 esi
$LN21@UpdateAtta@4:

; 293  : 	}
; 294  : }

  0070b	e8 00 00 00 00	 call	 __EH_epilog3_GS
  00710	c2 08 00	 ret	 8
_TEXT	ENDS
;	COMDAT text$x
text$x	SEGMENT
__unwindfunclet$?UpdateAttackBoxByOwner@ioLuciferAirGrapWeapon@@IAEXM_N@Z$0:
  00000	8d 4d a0	 lea	 ecx, DWORD PTR _eCharAttackBox$[ebp]
  00003	ff 25 00 00 00
	00		 jmp	 DWORD PTR __imp_??1ioOrientBox@@QAE@XZ
__ehhandler$?UpdateAttackBoxByOwner@ioLuciferAirGrapWeapon@@IAEXM_N@Z:
  00009	8b 54 24 08	 mov	 edx, DWORD PTR [esp+8]
  0000d	8d 42 0c	 lea	 eax, DWORD PTR [edx+12]
  00010	8b 4a 88	 mov	 ecx, DWORD PTR [edx-120]
  00013	33 c8		 xor	 ecx, eax
  00015	e8 00 00 00 00	 call	 @__security_check_cookie@4
  0001a	8b 4a fc	 mov	 ecx, DWORD PTR [edx-4]
  0001d	33 c8		 xor	 ecx, eax
  0001f	e8 00 00 00 00	 call	 @__security_check_cookie@4
  00024	b8 00 00 00 00	 mov	 eax, OFFSET __ehfuncinfo$?UpdateAttackBoxByOwner@ioLuciferAirGrapWeapon@@IAEXM_N@Z
  00029	e9 00 00 00 00	 jmp	 ___CxxFrameHandler3
text$x	ENDS
?UpdateAttackBoxByOwner@ioLuciferAirGrapWeapon@@IAEXM_N@Z ENDP ; ioLuciferAirGrapWeapon::UpdateAttackBoxByOwner
PUBLIC	??$_Cons_val@V?$allocator@VioOrientBox@@@std@@VioOrientBox@@ABV3@@std@@YAXAAV?$allocator@VioOrientBox@@@0@PAVioOrientBox@@ABV2@@Z ; std::_Cons_val<std::allocator<ioOrientBox>,ioOrientBox,ioOrientBox const &>
; Function compile flags: /Ogsp
; File c:\program files (x86)\microsoft visual studio 10.0\vc\include\xmemory
;	COMDAT ??$_Cons_val@V?$allocator@VioOrientBox@@@std@@VioOrientBox@@ABV3@@std@@YAXAAV?$allocator@VioOrientBox@@@0@PAVioOrientBox@@ABV2@@Z
_TEXT	SEGMENT
__Alval$ = 8						; size = 4
__Pdest$ = 12						; size = 4
__Src$ = 16						; size = 4
??$_Cons_val@V?$allocator@VioOrientBox@@@std@@VioOrientBox@@ABV3@@std@@YAXAAV?$allocator@VioOrientBox@@@0@PAVioOrientBox@@ABV2@@Z PROC ; std::_Cons_val<std::allocator<ioOrientBox>,ioOrientBox,ioOrientBox const &>, COMDAT

; 279  : 	{	// construct using allocator

  00000	55		 push	 ebp
  00001	8b ec		 mov	 ebp, esp
  00003	57		 push	 edi

; 280  : 	_Alval.construct(_Pdest, _STD forward<_Ty2>(_Src));

  00004	8b 7d 0c	 mov	 edi, DWORD PTR __Pdest$[ebp]
  00007	85 ff		 test	 edi, edi
  00009	74 0a		 je	 SHORT $LN9@Cons_val@2
  0000b	56		 push	 esi
  0000c	8b 75 10	 mov	 esi, DWORD PTR __Src$[ebp]
  0000f	6a 11		 push	 17			; 00000011H
  00011	59		 pop	 ecx
  00012	f3 a5		 rep movsd
  00014	5e		 pop	 esi
$LN9@Cons_val@2:
  00015	5f		 pop	 edi

; 281  : 	}

  00016	5d		 pop	 ebp
  00017	c3		 ret	 0
??$_Cons_val@V?$allocator@VioOrientBox@@@std@@VioOrientBox@@ABV3@@std@@YAXAAV?$allocator@VioOrientBox@@@0@PAVioOrientBox@@ABV2@@Z ENDP ; std::_Cons_val<std::allocator<ioOrientBox>,ioOrientBox,ioOrientBox const &>
_TEXT	ENDS
PUBLIC	?destroy@?$allocator@VioOrientBox@@@std@@QAEXPAVioOrientBox@@@Z ; std::allocator<ioOrientBox>::destroy
; Function compile flags: /Ogsp
;	COMDAT ?destroy@?$allocator@VioOrientBox@@@std@@QAEXPAVioOrientBox@@@Z
_TEXT	SEGMENT
__Ptr$ = 8						; size = 4
?destroy@?$allocator@VioOrientBox@@@std@@QAEXPAVioOrientBox@@@Z PROC ; std::allocator<ioOrientBox>::destroy, COMDAT
; _this$ = ecx

; 212  : 		{	// destroy object at _Ptr

  00000	55		 push	 ebp
  00001	8b ec		 mov	 ebp, esp

; 213  : 		_Destroy(_Ptr);

  00003	8b 4d 08	 mov	 ecx, DWORD PTR __Ptr$[ebp]
  00006	ff 15 00 00 00
	00		 call	 DWORD PTR __imp_??1ioOrientBox@@QAE@XZ

; 214  : 		}

  0000c	5d		 pop	 ebp
  0000d	c2 04 00	 ret	 4
?destroy@?$allocator@VioOrientBox@@@std@@QAEXPAVioOrientBox@@@Z ENDP ; std::allocator<ioOrientBox>::destroy
_TEXT	ENDS
PUBLIC	??$_Cons_val@V?$allocator@VioOrientBox@@@std@@VioOrientBox@@V3@@std@@YAXAAV?$allocator@VioOrientBox@@@0@PAVioOrientBox@@$$QAV2@@Z ; std::_Cons_val<std::allocator<ioOrientBox>,ioOrientBox,ioOrientBox>
; Function compile flags: /Ogsp
;	COMDAT ??$_Cons_val@V?$allocator@VioOrientBox@@@std@@VioOrientBox@@V3@@std@@YAXAAV?$allocator@VioOrientBox@@@0@PAVioOrientBox@@$$QAV2@@Z
_TEXT	SEGMENT
__Alval$ = 8						; size = 4
__Pdest$ = 12						; size = 4
__Src$ = 16						; size = 4
??$_Cons_val@V?$allocator@VioOrientBox@@@std@@VioOrientBox@@V3@@std@@YAXAAV?$allocator@VioOrientBox@@@0@PAVioOrientBox@@$$QAV2@@Z PROC ; std::_Cons_val<std::allocator<ioOrientBox>,ioOrientBox,ioOrientBox>, COMDAT

; 279  : 	{	// construct using allocator

  00000	55		 push	 ebp
  00001	8b ec		 mov	 ebp, esp
  00003	57		 push	 edi

; 280  : 	_Alval.construct(_Pdest, _STD forward<_Ty2>(_Src));

  00004	8b 7d 0c	 mov	 edi, DWORD PTR __Pdest$[ebp]
  00007	85 ff		 test	 edi, edi
  00009	74 0a		 je	 SHORT $LN7@Cons_val@3
  0000b	56		 push	 esi
  0000c	8b 75 10	 mov	 esi, DWORD PTR __Src$[ebp]
  0000f	6a 11		 push	 17			; 00000011H
  00011	59		 pop	 ecx
  00012	f3 a5		 rep movsd
  00014	5e		 pop	 esi
$LN7@Cons_val@3:
  00015	5f		 pop	 edi

; 281  : 	}

  00016	5d		 pop	 ebp
  00017	c3		 ret	 0
??$_Cons_val@V?$allocator@VioOrientBox@@@std@@VioOrientBox@@V3@@std@@YAXAAV?$allocator@VioOrientBox@@@0@PAVioOrientBox@@$$QAV2@@Z ENDP ; std::_Cons_val<std::allocator<ioOrientBox>,ioOrientBox,ioOrientBox>
; Function compile flags: /Ogsp
; File d:\lost saga for developer\youtube\tutorial\source\src\lsclient\ioluciferairgrapweapon.cpp
_TEXT	ENDS
;	COMDAT ?UpdateWorldAttackBox@ioLuciferAirGrapWeapon@@MAEXM_N@Z
_TEXT	SEGMENT
_fTimePerSec$ = 8					; size = 4
_bSetNull$ = 12						; size = 1
?UpdateWorldAttackBox@ioLuciferAirGrapWeapon@@MAEXM_N@Z PROC ; ioLuciferAirGrapWeapon::UpdateWorldAttackBox, COMDAT
; _this$ = ecx

; 187  : {

  00000	55		 push	 ebp
  00001	8b ec		 mov	 ebp, esp

; 188  : 	if( m_bStructWeapon )
; 189  : 		UpdateAttackBoxByStruct( fTimePerSec, bSetNull );

  00003	ff 75 0c	 push	 DWORD PTR _bSetNull$[ebp]
  00006	f3 0f 10 45 08	 movss	 xmm0, DWORD PTR _fTimePerSec$[ebp]
  0000b	32 c0		 xor	 al, al
  0000d	51		 push	 ecx
  0000e	f3 0f 11 04 24	 movss	 DWORD PTR [esp], xmm0
  00013	38 81 8c 05 00
	00		 cmp	 BYTE PTR [ecx+1420], al
  00019	74 07		 je	 SHORT $LN6@UpdateWorl
  0001b	e8 00 00 00 00	 call	 ?UpdateAttackBoxByStruct@ioLuciferAirGrapWeapon@@IAEXM_N@Z ; ioLuciferAirGrapWeapon::UpdateAttackBoxByStruct
  00020	eb 23		 jmp	 SHORT $LN1@UpdateWorl
$LN6@UpdateWorl:

; 190  : 	else if( m_bDummyCharWeapon )

  00022	38 81 9c 05 00
	00		 cmp	 BYTE PTR [ecx+1436], al
  00028	74 07		 je	 SHORT $LN4@UpdateWorl

; 191  : 		UpdateAttackBoxByDummyChar( fTimePerSec, bSetNull );

  0002a	e8 00 00 00 00	 call	 ?UpdateAttackBoxByDummyChar@ioLuciferAirGrapWeapon@@IAEXM_N@Z ; ioLuciferAirGrapWeapon::UpdateAttackBoxByDummyChar
  0002f	eb 14		 jmp	 SHORT $LN1@UpdateWorl
$LN4@UpdateWorl:

; 192  : 	else if( m_bMachineWeapon )

  00031	38 81 94 05 00
	00		 cmp	 BYTE PTR [ecx+1428], al
  00037	74 07		 je	 SHORT $LN2@UpdateWorl

; 193  : 		UpdateAttackBoxByMachine( fTimePerSec, bSetNull );

  00039	e8 00 00 00 00	 call	 ?UpdateAttackBoxByMachine@ioLuciferAirGrapWeapon@@IAEXM_N@Z ; ioLuciferAirGrapWeapon::UpdateAttackBoxByMachine

