; Listing generated by Microsoft (R) Optimizing Compiler Version 16.00.30319.01 

	TITLE	D:\Lost Saga For Developer\Youtube\Tutorial\Source\src\LSClient\ioMagneticBuff.cpp
	.686P
	.XMM
	include listing.inc
	.model	flat

INCLUDELIB MSVCRT
INCLUDELIB OLDNAMES

PUBLIC	?_EEM_DS@?$deque@UD3DXVECTOR3@@V?$allocator@UD3DXVECTOR3@@@std@@@std@@2HB ; std::deque<D3DXVECTOR3,std::allocator<D3DXVECTOR3> >::_EEM_DS
;	COMDAT ?_EEM_DS@?$deque@UD3DXVECTOR3@@V?$allocator@UD3DXVECTOR3@@@std@@@std@@2HB
CONST	SEGMENT
?_EEM_DS@?$deque@UD3DXVECTOR3@@V?$allocator@UD3DXVECTOR3@@@std@@@std@@2HB DD 01H ; std::deque<D3DXVECTOR3,std::allocator<D3DXVECTOR3> >::_EEM_DS
CONST	ENDS
PUBLIC	?return1@@YAIXZ					; return1
; Function compile flags: /Ogsp
; File d:\lost saga for developer\youtube\tutorial\source\src\lsclient\stdafx.h
;	COMDAT ?return1@@YAIXZ
_TEXT	SEGMENT
?return1@@YAIXZ PROC					; return1, COMDAT

; 17   : 	__forceinline unsigned int return1() { __asm mov eax, 1 };

  00000	b8 01 00 00 00	 mov	 eax, 1
  00005	c3		 ret	 0
?return1@@YAIXZ ENDP					; return1
_TEXT	ENDS
PUBLIC	?return5@@YAIXZ					; return5
; Function compile flags: /Ogsp
;	COMDAT ?return5@@YAIXZ
_TEXT	SEGMENT
?return5@@YAIXZ PROC					; return5, COMDAT

; 18   : 	__forceinline unsigned int return5() { __asm mov eax, 5 };

  00000	b8 05 00 00 00	 mov	 eax, 5
  00005	c3		 ret	 0
?return5@@YAIXZ ENDP					; return5
_TEXT	ENDS
PUBLIC	?return10@@YAIXZ				; return10
; Function compile flags: /Ogsp
;	COMDAT ?return10@@YAIXZ
_TEXT	SEGMENT
?return10@@YAIXZ PROC					; return10, COMDAT

; 21   : 	__forceinline unsigned int return10() { __asm mov eax, 10 };

  00000	b8 0a 00 00 00	 mov	 eax, 10			; 0000000aH
  00005	c3		 ret	 0
?return10@@YAIXZ ENDP					; return10
_TEXT	ENDS
PUBLIC	?return100@@YAIXZ				; return100
; Function compile flags: /Ogsp
;	COMDAT ?return100@@YAIXZ
_TEXT	SEGMENT
?return100@@YAIXZ PROC					; return100, COMDAT

; 25   : 	__forceinline unsigned int return100() { __asm mov eax, 100 };

  00000	b8 64 00 00 00	 mov	 eax, 100		; 00000064H
  00005	c3		 ret	 0
?return100@@YAIXZ ENDP					; return100
_TEXT	ENDS
PUBLIC	?GetState@ioBaseChar@@QBE?AW4CharState@@XZ	; ioBaseChar::GetState
; Function compile flags: /Ogsp
; File d:\lost saga for developer\youtube\tutorial\source\src\lsclient\iobasechar.h
;	COMDAT ?GetState@ioBaseChar@@QBE?AW4CharState@@XZ
_TEXT	SEGMENT
?GetState@ioBaseChar@@QBE?AW4CharState@@XZ PROC		; ioBaseChar::GetState, COMDAT
; _this$ = ecx

; 2156 : 	inline CharState GetState() const { return m_CharState; }	

  00000	8a 81 10 03 00
	00		 mov	 al, BYTE PTR [ecx+784]
  00006	c3		 ret	 0
?GetState@ioBaseChar@@QBE?AW4CharState@@XZ ENDP		; ioBaseChar::GetState
_TEXT	ENDS
PUBLIC	?GetCharName@ioBaseChar@@QBEABVioHashString@@XZ	; ioBaseChar::GetCharName
; Function compile flags: /Ogsp
;	COMDAT ?GetCharName@ioBaseChar@@QBEABVioHashString@@XZ
_TEXT	SEGMENT
?GetCharName@ioBaseChar@@QBEABVioHashString@@XZ PROC	; ioBaseChar::GetCharName, COMDAT
; _this$ = ecx

; 2594 : 	inline const ioHashString& GetCharName() const { return m_Name; }

  00000	8d 81 d4 02 00
	00		 lea	 eax, DWORD PTR [ecx+724]
  00006	c3		 ret	 0
?GetCharName@ioBaseChar@@QBEABVioHashString@@XZ ENDP	; ioBaseChar::GetCharName
_TEXT	ENDS
PUBLIC	_sqrtf
EXTRN	__fltused:DWORD
EXTRN	__CIsqrt:PROC
; Function compile flags: /Ogsp
; File c:\program files (x86)\microsoft visual studio 10.0\vc\include\math.h
;	COMDAT _sqrtf
_TEXT	SEGMENT
tv69 = 8						; size = 4
__X$ = 8						; size = 4
_sqrtf	PROC						; COMDAT

; 434  :         {return ((float)sqrt((double)_X)); }

  00000	55		 push	 ebp
  00001	8b ec		 mov	 ebp, esp
  00003	d9 45 08	 fld	 DWORD PTR __X$[ebp]
  00006	e8 00 00 00 00	 call	 __CIsqrt
  0000b	d9 5d 08	 fstp	 DWORD PTR tv69[ebp]
  0000e	d9 45 08	 fld	 DWORD PTR tv69[ebp]
  00011	5d		 pop	 ebp
  00012	c3		 ret	 0
_sqrtf	ENDP
_TEXT	ENDS
PUBLIC	?GetCurEtcStateCnt@ioBaseChar@@QAEHXZ		; ioBaseChar::GetCurEtcStateCnt
; Function compile flags: /Ogsp
; File d:\lost saga for developer\youtube\tutorial\source\src\lsclient\iobasechar.h
;	COMDAT ?GetCurEtcStateCnt@ioBaseChar@@QAEHXZ
_TEXT	SEGMENT
?GetCurEtcStateCnt@ioBaseChar@@QAEHXZ PROC		; ioBaseChar::GetCurEtcStateCnt, COMDAT
; _this$ = ecx

; 2977 : 	inline int GetCurEtcStateCnt() { return m_iEtcStateCnt; }

  00000	8b 81 ac 19 00
	00		 mov	 eax, DWORD PTR [ecx+6572]
  00006	c3		 ret	 0
?GetCurEtcStateCnt@ioBaseChar@@QAEHXZ ENDP		; ioBaseChar::GetCurEtcStateCnt
_TEXT	ENDS
PUBLIC	?GetRandomSeed@ioBaseChar@@QBEKXZ		; ioBaseChar::GetRandomSeed
; Function compile flags: /Ogsp
;	COMDAT ?GetRandomSeed@ioBaseChar@@QBEKXZ
_TEXT	SEGMENT
?GetRandomSeed@ioBaseChar@@QBEKXZ PROC			; ioBaseChar::GetRandomSeed, COMDAT
; _this$ = ecx

; 3372 : 	inline DWORD GetRandomSeed() const { return m_dwRandomSeed; }

  00000	8b 81 74 16 00
	00		 mov	 eax, DWORD PTR [ecx+5748]
  00006	c3		 ret	 0
?GetRandomSeed@ioBaseChar@@QBEKXZ ENDP			; ioBaseChar::GetRandomSeed
_TEXT	ENDS
PUBLIC	?GetCreator@ioBaseChar@@QAEPAVioPlayStage@@XZ	; ioBaseChar::GetCreator
; Function compile flags: /Ogsp
;	COMDAT ?GetCreator@ioBaseChar@@QAEPAVioPlayStage@@XZ
_TEXT	SEGMENT
?GetCreator@ioBaseChar@@QAEPAVioPlayStage@@XZ PROC	; ioBaseChar::GetCreator, COMDAT
; _this$ = ecx

; 4013 : 	inline ioPlayStage* GetCreator() { return m_pCreator; }

  00000	8b 81 44 03 00
	00		 mov	 eax, DWORD PTR [ecx+836]
  00006	c3		 ret	 0
?GetCreator@ioBaseChar@@QAEPAVioPlayStage@@XZ ENDP	; ioBaseChar::GetCreator
_TEXT	ENDS
PUBLIC	?GetBaseCharList@ioPlayStage@@QBEABV?$vector@PAVioBaseChar@@V?$allocator@PAVioBaseChar@@@std@@@std@@XZ ; ioPlayStage::GetBaseCharList
; Function compile flags: /Ogsp
; File d:\lost saga for developer\youtube\tutorial\source\src\lsclient\ioplaystage.h
;	COMDAT ?GetBaseCharList@ioPlayStage@@QBEABV?$vector@PAVioBaseChar@@V?$allocator@PAVioBaseChar@@@std@@@std@@XZ
_TEXT	SEGMENT
?GetBaseCharList@ioPlayStage@@QBEABV?$vector@PAVioBaseChar@@V?$allocator@PAVioBaseChar@@@std@@@std@@XZ PROC ; ioPlayStage::GetBaseCharList, COMDAT
; _this$ = ecx

; 755  : 	const BaseCharList& GetBaseCharList() const { return m_BaseCharList; }

  00000	8d 41 2c	 lea	 eax, DWORD PTR [ecx+44]
  00003	c3		 ret	 0
?GetBaseCharList@ioPlayStage@@QBEABV?$vector@PAVioBaseChar@@V?$allocator@PAVioBaseChar@@@std@@@std@@XZ ENDP ; ioPlayStage::GetBaseCharList
_TEXT	ENDS
PUBLIC	?GetPlayMode@ioPlayStage@@QBEPAVioPlayMode@@XZ	; ioPlayStage::GetPlayMode
; Function compile flags: /Ogsp
;	COMDAT ?GetPlayMode@ioPlayStage@@QBEPAVioPlayMode@@XZ
_TEXT	SEGMENT
?GetPlayMode@ioPlayStage@@QBEPAVioPlayMode@@XZ PROC	; ioPlayStage::GetPlayMode, COMDAT
; _this$ = ecx

; 780  : 	inline ioPlayMode* GetPlayMode() const { return m_pPlayMode; }

  00000	8b 81 10 01 00
	00		 mov	 eax, DWORD PTR [ecx+272]
  00006	c3		 ret	 0
?GetPlayMode@ioPlayStage@@QBEPAVioPlayMode@@XZ ENDP	; ioPlayStage::GetPlayMode
_TEXT	ENDS
PUBLIC	?StartBuff@ioMagneticBuff@@UAEXPAVioBaseChar@@@Z ; ioMagneticBuff::StartBuff
EXTRN	??1IORandom@@UAE@XZ:PROC			; IORandom::~IORandom
EXTRN	?StartBuff@ioBuff@@UAEXPAVioBaseChar@@@Z:PROC	; ioBuff::StartBuff
EXTRN	__imp_??4ioHashString@@QAEAAV0@ABV0@@Z:PROC
EXTRN	?Random@IORandom@@QAEII@Z:PROC			; IORandom::Random
EXTRN	?SetRandomSeed@IORandom@@QAEXI@Z:PROC		; IORandom::SetRandomSeed
EXTRN	??0IORandom@@QAE@XZ:PROC			; IORandom::IORandom
EXTRN	___CxxFrameHandler3:PROC
EXTRN	@__security_check_cookie@4:PROC
EXTRN	__EH_epilog3_GS:PROC
EXTRN	__EH_prolog3_GS:PROC
;	COMDAT xdata$x
; File d:\lost saga for developer\youtube\tutorial\source\src\lsclient\iobasechar.h
xdata$x	SEGMENT
__unwindtable$?StartBuff@ioMagneticBuff@@UAEXPAVioBaseChar@@@Z DD 0ffffffffH
	DD	FLAT:__unwindfunclet$?StartBuff@ioMagneticBuff@@UAEXPAVioBaseChar@@@Z$0
__ehfuncinfo$?StartBuff@ioMagneticBuff@@UAEXPAVioBaseChar@@@Z DD 019930522H
	DD	01H
	DD	FLAT:__unwindtable$?StartBuff@ioMagneticBuff@@UAEXPAVioBaseChar@@@Z
	DD	2 DUP(00H)
	DD	2 DUP(00H)
	DD	00H
	DD	01H
; Function compile flags: /Ogsp
; File d:\lost saga for developer\youtube\tutorial\source\src\lsclient\iomagneticbuff.cpp
xdata$x	ENDS
;	COMDAT ?StartBuff@ioMagneticBuff@@UAEXPAVioBaseChar@@@Z
_TEXT	SEGMENT
_random$ = -2524					; size = 2508
__$EHRec$ = -12						; size = 12
_pOwner$ = 8						; size = 4
?StartBuff@ioMagneticBuff@@UAEXPAVioBaseChar@@@Z PROC	; ioMagneticBuff::StartBuff, COMDAT
; _this$ = ecx

; 83   : {

  00000	68 d0 09 00 00	 push	 2512			; 000009d0H
  00005	b8 00 00 00 00	 mov	 eax, __ehhandler$?StartBuff@ioMagneticBuff@@UAEXPAVioBaseChar@@@Z
  0000a	e8 00 00 00 00	 call	 __EH_prolog3_GS
  0000f	8b 7d 08	 mov	 edi, DWORD PTR _pOwner$[ebp]
  00012	8b f1		 mov	 esi, ecx

; 84   : 	IORandom random;

  00014	8d 8d 24 f6 ff
	ff		 lea	 ecx, DWORD PTR _random$[ebp]
  0001a	e8 00 00 00 00	 call	 ??0IORandom@@QAE@XZ	; IORandom::IORandom

; 85   : 	DWORD dwSeed = 0;
; 86   : 	dwSeed = pOwner->GetRandomSeed();
; 87   : 	random.SetRandomSeed( dwSeed );

  0001f	ff b7 74 16 00
	00		 push	 DWORD PTR [edi+5748]
  00025	83 65 fc 00	 and	 DWORD PTR __$EHRec$[ebp+8], 0
  00029	8d 8d 24 f6 ff
	ff		 lea	 ecx, DWORD PTR _random$[ebp]
  0002f	e8 00 00 00 00	 call	 ?SetRandomSeed@IORandom@@QAEXI@Z ; IORandom::SetRandomSeed

; 88   : 	int iValue = random.Random( MAGNET_S )+1;

  00034	6a 02		 push	 2
  00036	8d 8d 24 f6 ff
	ff		 lea	 ecx, DWORD PTR _random$[ebp]
  0003c	e8 00 00 00 00	 call	 ?Random@IORandom@@QAEII@Z ; IORandom::Random

; 89   : 	m_Magnet = (Magnet)iValue;
; 90   : 
; 91   : 	m_dwLastPushTime = 0;

  00041	83 a6 04 0a 00
	00 00		 and	 DWORD PTR [esi+2564], 0

; 92   : 	m_dwCurDelayTime = 0;

  00048	83 a6 08 0a 00
	00 00		 and	 DWORD PTR [esi+2568], 0

; 93   : 
; 94   : 	m_BuffState = BS_ENABLE;

  0004f	83 a6 6c 09 00
	00 00		 and	 DWORD PTR [esi+2412], 0
  00056	40		 inc	 eax
  00057	89 86 70 09 00
	00		 mov	 DWORD PTR [esi+2416], eax

; 95   : 
; 96   : 	if( m_Magnet == MAGNET_N )

  0005d	83 f8 01	 cmp	 eax, 1

; 97   : 		m_BuffEffect = m_EffectN;

  00060	8d 8e 7c 05 00
	00		 lea	 ecx, DWORD PTR [esi+1404]
  00066	8d 86 6c 0b 00
	00		 lea	 eax, DWORD PTR [esi+2924]
  0006c	74 06		 je	 SHORT $LN11@StartBuff

; 98   : 	else
; 99   : 		m_BuffEffect = m_EffectS;

  0006e	8d 86 7c 0b 00
	00		 lea	 eax, DWORD PTR [esi+2940]
$LN11@StartBuff:
  00074	50		 push	 eax
  00075	ff 15 00 00 00
	00		 call	 DWORD PTR __imp_??4ioHashString@@QAEAAV0@ABV0@@Z

; 100  : 
; 101  : 	m_iEtcStateCnt = pOwner->GetCurEtcStateCnt();

  0007b	8b 87 ac 19 00
	00		 mov	 eax, DWORD PTR [edi+6572]

; 102  : 
; 103  : 	ioBuff::StartBuff( pOwner );

  00081	57		 push	 edi
  00082	8b ce		 mov	 ecx, esi
  00084	89 86 8c 0b 00
	00		 mov	 DWORD PTR [esi+2956], eax
  0008a	e8 00 00 00 00	 call	 ?StartBuff@ioBuff@@UAEXPAVioBaseChar@@@Z ; ioBuff::StartBuff

; 104  : }

  0008f	83 4d fc ff	 or	 DWORD PTR __$EHRec$[ebp+8], -1
  00093	8d 8d 24 f6 ff
	ff		 lea	 ecx, DWORD PTR _random$[ebp]
  00099	e8 00 00 00 00	 call	 ??1IORandom@@UAE@XZ	; IORandom::~IORandom
  0009e	e8 00 00 00 00	 call	 __EH_epilog3_GS
  000a3	c2 04 00	 ret	 4
_TEXT	ENDS
;	COMDAT text$x
text$x	SEGMENT
__unwindfunclet$?StartBuff@ioMagneticBuff@@UAEXPAVioBaseChar@@@Z$0:
  00000	8d 8d 24 f6 ff
	ff		 lea	 ecx, DWORD PTR _random$[ebp]
  00006	e9 00 00 00 00	 jmp	 ??1IORandom@@UAE@XZ	; IORandom::~IORandom
__ehhandler$?StartBuff@ioMagneticBuff@@UAEXPAVioBaseChar@@@Z:
  0000b	8b 54 24 08	 mov	 edx, DWORD PTR [esp+8]
  0000f	8d 42 0c	 lea	 eax, DWORD PTR [edx+12]
  00012	8b 8a 20 f6 ff
	ff		 mov	 ecx, DWORD PTR [edx-2528]
  00018	33 c8		 xor	 ecx, eax
  0001a	e8 00 00 00 00	 call	 @__security_check_cookie@4
  0001f	8b 4a fc	 mov	 ecx, DWORD PTR [edx-4]
  00022	33 c8		 xor	 ecx, eax
  00024	e8 00 00 00 00	 call	 @__security_check_cookie@4
  00029	b8 00 00 00 00	 mov	 eax, OFFSET __ehfuncinfo$?StartBuff@ioMagneticBuff@@UAEXPAVioBaseChar@@@Z
  0002e	e9 00 00 00 00	 jmp	 ___CxxFrameHandler3
text$x	ENDS
?StartBuff@ioMagneticBuff@@UAEXPAVioBaseChar@@@Z ENDP	; ioMagneticBuff::StartBuff
PUBLIC	?ApplyStartBuff@ioMagneticBuff@@UAE_NPAVioBaseChar@@KK@Z ; ioMagneticBuff::ApplyStartBuff
EXTRN	?ApplyStartBuff@ioBuff@@UAE_NPAVioBaseChar@@KK@Z:PROC ; ioBuff::ApplyStartBuff
; Function compile flags: /Ogsp
;	COMDAT ?ApplyStartBuff@ioMagneticBuff@@UAE_NPAVioBaseChar@@KK@Z
_TEXT	SEGMENT
_pOwner$ = 8						; size = 4
_dwGlobalTime$ = 12					; size = 4
_dwGapTime$ = 16					; size = 4
?ApplyStartBuff@ioMagneticBuff@@UAE_NPAVioBaseChar@@KK@Z PROC ; ioMagneticBuff::ApplyStartBuff, COMDAT
; _this$ = ecx

; 107  : {

  00000	55		 push	 ebp
  00001	8b ec		 mov	 ebp, esp
  00003	56		 push	 esi
  00004	57		 push	 edi

; 108  : 	if( !ioBuff::ApplyStartBuff( pOwner, dwGlobalTime, dwGapTime ) )

  00005	ff 75 10	 push	 DWORD PTR _dwGapTime$[ebp]
  00008	8b 7d 08	 mov	 edi, DWORD PTR _pOwner$[ebp]
  0000b	ff 75 0c	 push	 DWORD PTR _dwGlobalTime$[ebp]
  0000e	8b f1		 mov	 esi, ecx
  00010	57		 push	 edi
  00011	e8 00 00 00 00	 call	 ?ApplyStartBuff@ioBuff@@UAE_NPAVioBaseChar@@KK@Z ; ioBuff::ApplyStartBuff
  00016	84 c0		 test	 al, al
  00018	74 22		 je	 SHORT $LN2@ApplyStart
$LN1@ApplyStart:

; 109  : 		return false;
; 110  : 
; 111  : 	m_dwLastPushTime = 0;

  0001a	33 c0		 xor	 eax, eax
  0001c	89 86 04 0a 00
	00		 mov	 DWORD PTR [esi+2564], eax

; 112  : 	m_BuffState = BS_ENABLE;

  00022	89 86 6c 09 00
	00		 mov	 DWORD PTR [esi+2412], eax

; 113  : 
; 114  : 	m_dwCurDelayTime = 0;

  00028	89 86 08 0a 00
	00		 mov	 DWORD PTR [esi+2568], eax

; 115  : 
; 116  : 	m_iEtcStateCnt = pOwner->GetCurEtcStateCnt();

  0002e	8b 87 ac 19 00
	00		 mov	 eax, DWORD PTR [edi+6572]
  00034	89 86 8c 0b 00
	00		 mov	 DWORD PTR [esi+2956], eax

; 117  : 
; 118  : 	return true;

  0003a	b0 01		 mov	 al, 1
$LN2@ApplyStart:
  0003c	5f		 pop	 edi
  0003d	5e		 pop	 esi

; 119  : }

  0003e	5d		 pop	 ebp
  0003f	c2 0c 00	 ret	 12			; 0000000cH
?ApplyStartBuff@ioMagneticBuff@@UAE_NPAVioBaseChar@@KK@Z ENDP ; ioMagneticBuff::ApplyStartBuff
_TEXT	ENDS
PUBLIC	?CheckRestoreStateCheck@ioMagneticBuff@@IAE_NXZ	; ioMagneticBuff::CheckRestoreStateCheck
; Function compile flags: /Ogsp
;	COMDAT ?CheckRestoreStateCheck@ioMagneticBuff@@IAE_NXZ
_TEXT	SEGMENT
?CheckRestoreStateCheck@ioMagneticBuff@@IAE_NXZ PROC	; ioMagneticBuff::CheckRestoreStateCheck, COMDAT
; _this$ = ecx

; 173  : 	if( !m_pOwner ) return false;

  00000	8b 81 74 02 00
	00		 mov	 eax, DWORD PTR [ecx+628]
  00006	85 c0		 test	 eax, eax
  00008	75 03		 jne	 SHORT $LN4@CheckResto
  0000a	32 c0		 xor	 al, al

; 178  : 	{
; 179  : 	case CS_DELAY:
; 180  : 	case CS_RUN:
; 181  : 	case CS_DASH:
; 182  : 		return true;
; 183  : 	}
; 184  : 
; 185  : 	return false;
; 186  : }

  0000c	c3		 ret	 0
$LN4@CheckResto:

; 174  : 
; 175  : 	CharState eState = m_pOwner->GetState();

  0000d	8a 80 10 03 00
	00		 mov	 al, BYTE PTR [eax+784]

; 176  : 
; 177  : 	switch( eState )

  00013	b1 02		 mov	 cl, 2
  00015	3a c8		 cmp	 cl, al
  00017	1a c0		 sbb	 al, al
  00019	fe c0		 inc	 al

; 178  : 	{
; 179  : 	case CS_DELAY:
; 180  : 	case CS_RUN:
; 181  : 	case CS_DASH:
; 182  : 		return true;
; 183  : 	}
; 184  : 
; 185  : 	return false;
; 186  : }

  0001b	c3		 ret	 0
?CheckRestoreStateCheck@ioMagneticBuff@@IAE_NXZ ENDP	; ioMagneticBuff::CheckRestoreStateCheck
_TEXT	ENDS
PUBLIC	?EndBuff@ioMagneticBuff@@UAEXXZ			; ioMagneticBuff::EndBuff
EXTRN	?EndBuff@ioBuff@@UAEXXZ:PROC			; ioBuff::EndBuff
EXTRN	?SetDashFailStart@ioBaseChar@@QAEXXZ:PROC	; ioBaseChar::SetDashFailStart
EXTRN	?SetState@ioBaseChar@@QAEXH_N@Z:PROC		; ioBaseChar::SetState
EXTRN	?GetOwner@ioBuff@@QAEPAVioBaseChar@@XZ:PROC	; ioBuff::GetOwner
; Function compile flags: /Ogsp
;	COMDAT ?EndBuff@ioMagneticBuff@@UAEXXZ
_TEXT	SEGMENT
?EndBuff@ioMagneticBuff@@UAEXXZ PROC			; ioMagneticBuff::EndBuff, COMDAT
; _this$ = ecx

; 189  : {

  00000	56		 push	 esi
  00001	8b f1		 mov	 esi, ecx

; 190  : 	ioBaseChar *pOwner = GetOwner();

  00003	e8 00 00 00 00	 call	 ?GetOwner@ioBuff@@QAEPAVioBaseChar@@XZ ; ioBuff::GetOwner

; 191  : 	
; 192  : 	if( pOwner &&
; 193  : 		pOwner->GetCurEtcStateCnt() == m_iEtcStateCnt &&
; 194  : 		pOwner->GetState() == CS_ETC_STATE )

  00008	85 c0		 test	 eax, eax
  0000a	74 33		 je	 SHORT $LN1@EndBuff
  0000c	8b 88 ac 19 00
	00		 mov	 ecx, DWORD PTR [eax+6572]
  00012	3b 8e 8c 0b 00
	00		 cmp	 ecx, DWORD PTR [esi+2956]
  00018	75 25		 jne	 SHORT $LN1@EndBuff
  0001a	80 b8 10 03 00
	00 0f		 cmp	 BYTE PTR [eax+784], 15	; 0000000fH
  00021	75 1c		 jne	 SHORT $LN1@EndBuff

; 195  : 	{
; 196  : 		pOwner->SetState( CS_DELAY, m_bSendDelayNetWork );

  00023	0f b6 8e f9 08
	00 00		 movzx	 ecx, BYTE PTR [esi+2297]
  0002a	51		 push	 ecx
  0002b	6a 00		 push	 0
  0002d	8b c8		 mov	 ecx, eax
  0002f	e8 00 00 00 00	 call	 ?SetState@ioBaseChar@@QAEXH_N@Z ; ioBaseChar::SetState

; 197  : 		m_pOwner->SetDashFailStart();

  00034	8b 8e 74 02 00
	00		 mov	 ecx, DWORD PTR [esi+628]
  0003a	e8 00 00 00 00	 call	 ?SetDashFailStart@ioBaseChar@@QAEXXZ ; ioBaseChar::SetDashFailStart
$LN1@EndBuff:

; 198  : 	}
; 199  : 
; 200  : 	ioBuff::EndBuff();

  0003f	8b ce		 mov	 ecx, esi
  00041	5e		 pop	 esi
  00042	e9 00 00 00 00	 jmp	 ?EndBuff@ioBuff@@UAEXXZ	; ioBuff::EndBuff
?EndBuff@ioMagneticBuff@@UAEXXZ ENDP			; ioMagneticBuff::EndBuff
_TEXT	ENDS
PUBLIC	?GetBuffInfo@ioMagneticBuff@@UAEXAAVSP2Packet@@@Z ; ioMagneticBuff::GetBuffInfo
EXTRN	??6SP2Packet@@QAEAAV0@H@Z:PROC			; SP2Packet::operator<<
EXTRN	?GetBuffInfo@ioBuff@@UAEXAAVSP2Packet@@@Z:PROC	; ioBuff::GetBuffInfo
; Function compile flags: /Ogsp
;	COMDAT ?GetBuffInfo@ioMagneticBuff@@UAEXAAVSP2Packet@@@Z
_TEXT	SEGMENT
_rkPacket$ = 8						; size = 4
?GetBuffInfo@ioMagneticBuff@@UAEXAAVSP2Packet@@@Z PROC	; ioMagneticBuff::GetBuffInfo, COMDAT
; _this$ = ecx

; 204  : {

  00000	55		 push	 ebp
  00001	8b ec		 mov	 ebp, esp
  00003	56		 push	 esi

; 205  : 	ioBuff::GetBuffInfo( rkPacket );

  00004	ff 75 08	 push	 DWORD PTR _rkPacket$[ebp]
  00007	8b f1		 mov	 esi, ecx
  00009	e8 00 00 00 00	 call	 ?GetBuffInfo@ioBuff@@UAEXAAVSP2Packet@@@Z ; ioBuff::GetBuffInfo

; 206  : 
; 207  : 	rkPacket << (int)m_BuffState;

  0000e	ff b6 6c 09 00
	00		 push	 DWORD PTR [esi+2412]
  00014	8b 4d 08	 mov	 ecx, DWORD PTR _rkPacket$[ebp]
  00017	e8 00 00 00 00	 call	 ??6SP2Packet@@QAEAAV0@H@Z ; SP2Packet::operator<<

; 208  : 	rkPacket << (int)m_Magnet;

  0001c	ff b6 70 09 00
	00		 push	 DWORD PTR [esi+2416]
  00022	8b 4d 08	 mov	 ecx, DWORD PTR _rkPacket$[ebp]
  00025	e8 00 00 00 00	 call	 ??6SP2Packet@@QAEAAV0@H@Z ; SP2Packet::operator<<
  0002a	5e		 pop	 esi

; 209  : }

  0002b	5d		 pop	 ebp
  0002c	c2 04 00	 ret	 4
?GetBuffInfo@ioMagneticBuff@@UAEXAAVSP2Packet@@@Z ENDP	; ioMagneticBuff::GetBuffInfo
_TEXT	ENDS
PUBLIC	?ApplyBuffInfo@ioMagneticBuff@@UAEXAAVSP2Packet@@@Z ; ioMagneticBuff::ApplyBuffInfo
EXTRN	??5SP2Packet@@QAEAAV0@AAH@Z:PROC		; SP2Packet::operator>>
; Function compile flags: /Ogsp
;	COMDAT ?ApplyBuffInfo@ioMagneticBuff@@UAEXAAVSP2Packet@@@Z
_TEXT	SEGMENT
_iMagnet$ = -8						; size = 4
_iState$ = -4						; size = 4
_rkPacket$ = 8						; size = 4
?ApplyBuffInfo@ioMagneticBuff@@UAEXAAVSP2Packet@@@Z PROC ; ioMagneticBuff::ApplyBuffInfo, COMDAT
; _this$ = ecx

; 212  : {

  00000	55		 push	 ebp
  00001	8b ec		 mov	 ebp, esp
  00003	51		 push	 ecx
  00004	51		 push	 ecx
  00005	56		 push	 esi

; 213  : 	int iState;
; 214  : 	rkPacket >> iState;

  00006	8d 45 fc	 lea	 eax, DWORD PTR _iState$[ebp]
  00009	8b f1		 mov	 esi, ecx
  0000b	8b 4d 08	 mov	 ecx, DWORD PTR _rkPacket$[ebp]
  0000e	50		 push	 eax
  0000f	e8 00 00 00 00	 call	 ??5SP2Packet@@QAEAAV0@AAH@Z ; SP2Packet::operator>>

; 215  : 	m_BuffState = (BuffState)iState;

  00014	8b 45 fc	 mov	 eax, DWORD PTR _iState$[ebp]

; 216  : 	int iMagnet;
; 217  : 	rkPacket >> iMagnet;

  00017	8b 4d 08	 mov	 ecx, DWORD PTR _rkPacket$[ebp]
  0001a	89 86 6c 09 00
	00		 mov	 DWORD PTR [esi+2412], eax
  00020	8d 45 f8	 lea	 eax, DWORD PTR _iMagnet$[ebp]
  00023	50		 push	 eax
  00024	e8 00 00 00 00	 call	 ??5SP2Packet@@QAEAAV0@AAH@Z ; SP2Packet::operator>>

; 218  : 	m_Magnet = (Magnet)iMagnet;

  00029	8b 45 f8	 mov	 eax, DWORD PTR _iMagnet$[ebp]
  0002c	89 86 70 09 00
	00		 mov	 DWORD PTR [esi+2416], eax
  00032	5e		 pop	 esi

; 219  : }

  00033	c9		 leave
  00034	c2 04 00	 ret	 4
?ApplyBuffInfo@ioMagneticBuff@@UAEXAAVSP2Packet@@@Z ENDP ; ioMagneticBuff::ApplyBuffInfo
_TEXT	ENDS
PUBLIC	?_Adopt@_Iterator_base0@std@@QAEXPBX@Z		; std::_Iterator_base0::_Adopt
; Function compile flags: /Ogsp
; File c:\program files (x86)\microsoft visual studio 10.0\vc\include\xutility
;	COMDAT ?_Adopt@_Iterator_base0@std@@QAEXPBX@Z
_TEXT	SEGMENT
___formal$ = 8						; size = 4
?_Adopt@_Iterator_base0@std@@QAEXPBX@Z PROC		; std::_Iterator_base0::_Adopt, COMDAT
; _this$ = ecx

; 49   : 		}

  00000	c2 04 00	 ret	 4
?_Adopt@_Iterator_base0@std@@QAEXPBX@Z ENDP		; std::_Iterator_base0::_Adopt
_TEXT	ENDS
PUBLIC	?EnableMagnetic@ioMagneticBuff@@QAE_NXZ		; ioMagneticBuff::EnableMagnetic
; Function compile flags: /Ogsp
; File d:\lost saga for developer\youtube\tutorial\source\src\lsclient\iomagneticbuff.cpp
;	COMDAT ?EnableMagnetic@ioMagneticBuff@@QAE_NXZ
_TEXT	SEGMENT
?EnableMagnetic@ioMagneticBuff@@QAE_NXZ PROC		; ioMagneticBuff::EnableMagnetic, COMDAT
; _this$ = ecx

; 394  : 	if( m_BuffState == BS_ENABLE )

  00000	83 b9 6c 09 00
	00 00		 cmp	 DWORD PTR [ecx+2412], 0
  00007	0f 94 c0	 sete	 al

; 395  : 		return true;
; 396  : 
; 397  : 	return false;
; 398  : }

  0000a	c3		 ret	 0
?EnableMagnetic@ioMagneticBuff@@QAE_NXZ ENDP		; ioMagneticBuff::EnableMagnetic
_TEXT	ENDS
PUBLIC	?IsOwnerBuff@ioMagneticBuff@@IAE_NXZ		; ioMagneticBuff::IsOwnerBuff
EXTRN	__imp_??8ioHashString@@QBE_NABV0@@Z:PROC
; Function compile flags: /Ogsp
;	COMDAT ?IsOwnerBuff@ioMagneticBuff@@IAE_NXZ
_TEXT	SEGMENT
?IsOwnerBuff@ioMagneticBuff@@IAE_NXZ PROC		; ioMagneticBuff::IsOwnerBuff, COMDAT
; _this$ = ecx

; 468  : {

  00000	56		 push	 esi
  00001	8b f1		 mov	 esi, ecx

; 469  : 	ioBaseChar *pOwner = GetOwner();

  00003	e8 00 00 00 00	 call	 ?GetOwner@ioBuff@@QAEPAVioBaseChar@@XZ ; ioBuff::GetOwner

; 470  : 	if( !pOwner )

  00008	85 c0		 test	 eax, eax
  0000a	75 04		 jne	 SHORT $LN2@IsOwnerBuf

; 471  : 		return false;

  0000c	32 c0		 xor	 al, al
  0000e	5e		 pop	 esi

; 474  : 		return true;
; 475  : 
; 476  : 	return false;
; 477  : }

  0000f	c3		 ret	 0
$LN2@IsOwnerBuf:

; 472  : 
; 473  : 	if( pOwner->GetCharName() == m_CreateChar )

  00010	81 c6 88 02 00
	00		 add	 esi, 648		; 00000288H
  00016	56		 push	 esi
  00017	8d 88 d4 02 00
	00		 lea	 ecx, DWORD PTR [eax+724]
  0001d	ff 15 00 00 00
	00		 call	 DWORD PTR __imp_??8ioHashString@@QBE_NABV0@@Z
  00023	84 c0		 test	 al, al
  00025	0f 95 c0	 setne	 al
  00028	5e		 pop	 esi

; 474  : 		return true;
; 475  : 
; 476  : 	return false;
; 477  : }

  00029	c3		 ret	 0
?IsOwnerBuff@ioMagneticBuff@@IAE_NXZ ENDP		; ioMagneticBuff::IsOwnerBuff
_TEXT	ENDS
PUBLIC	?GetMagnet@ioMagneticBuff@@QAEHXZ		; ioMagneticBuff::GetMagnet
; Function compile flags: /Ogsp
;	COMDAT ?GetMagnet@ioMagneticBuff@@QAEHXZ
_TEXT	SEGMENT
?GetMagnet@ioMagneticBuff@@QAEHXZ PROC			; ioMagneticBuff::GetMagnet, COMDAT
; _this$ = ecx

; 481  : 	return (int)m_Magnet;

  00000	8b 81 70 09 00
	00		 mov	 eax, DWORD PTR [ecx+2416]

; 482  : }

  00006	c3		 ret	 0
?GetMagnet@ioMagneticBuff@@QAEHXZ ENDP			; ioMagneticBuff::GetMagnet
_TEXT	ENDS
PUBLIC	??0?$_Vector_const_iterator@V?$_Vector_val@PAVioBaseChar@@V?$allocator@PAVioBaseChar@@@std@@@std@@@std@@QAE@XZ ; std::_Vector_const_iterator<std::_Vector_val<ioBaseChar *,std::allocator<ioBaseChar *> > >::_Vector_const_iterator<std::_Vector_val<ioBaseChar *,std::allocator<ioBaseChar *> > >
; Function compile flags: /Ogsp
; File c:\program files (x86)\microsoft visual studio 10.0\vc\include\vector
;	COMDAT ??0?$_Vector_const_iterator@V?$_Vector_val@PAVioBaseChar@@V?$allocator@PAVioBaseChar@@@std@@@std@@@std@@QAE@XZ
_TEXT	SEGMENT
??0?$_Vector_const_iterator@V?$_Vector_val@PAVioBaseChar@@V?$allocator@PAVioBaseChar@@@std@@@std@@@std@@QAE@XZ PROC ; std::_Vector_const_iterator<std::_Vector_val<ioBaseChar *,std::allocator<ioBaseChar *> > >::_Vector_const_iterator<std::_Vector_val<ioBaseChar *,std::allocator<ioBaseChar *> > >, COMDAT
; _this$ = ecx

; 40   : 		{	// construct with null pointer

  00000	8b c1		 mov	 eax, ecx
  00002	83 20 00	 and	 DWORD PTR [eax], 0

; 41   : 		}

  00005	c3		 ret	 0
??0?$_Vector_const_iterator@V?$_Vector_val@PAVioBaseChar@@V?$allocator@PAVioBaseChar@@@std@@@std@@@std@@QAE@XZ ENDP ; std::_Vector_const_iterator<std::_Vector_val<ioBaseChar *,std::allocator<ioBaseChar *> > >::_Vector_const_iterator<std::_Vector_val<ioBaseChar *,std::allocator<ioBaseChar *> > >
_TEXT	ENDS
PUBLIC	??D?$_Vector_const_iterator@V?$_Vector_val@PAVioBaseChar@@V?$allocator@PAVioBaseChar@@@std@@@std@@@std@@QBEABQAVioBaseChar@@XZ ; std::_Vector_const_iterator<std::_Vector_val<ioBaseChar *,std::allocator<ioBaseChar *> > >::operator*
; Function compile flags: /Ogsp
;	COMDAT ??D?$_Vector_const_iterator@V?$_Vector_val@PAVioBaseChar@@V?$allocator@PAVioBaseChar@@@std@@@std@@@std@@QBEABQAVioBaseChar@@XZ
_TEXT	SEGMENT
??D?$_Vector_const_iterator@V?$_Vector_val@PAVioBaseChar@@V?$allocator@PAVioBaseChar@@@std@@@std@@@std@@QBEABQAVioBaseChar@@XZ PROC ; std::_Vector_const_iterator<std::_Vector_val<ioBaseChar *,std::allocator<ioBaseChar *> > >::operator*, COMDAT
; _this$ = ecx

; 64   :  #if _ITERATOR_DEBUG_LEVEL == 2
; 65   : 		if (this->_Getcont() == 0
; 66   : 			|| this->_Ptr == 0
; 67   : 			|| this->_Ptr < ((_Myvec *)this->_Getcont())->_Myfirst
; 68   : 			|| ((_Myvec *)this->_Getcont())->_Mylast <= this->_Ptr)
; 69   : 			{	// report error
; 70   : 			_DEBUG_ERROR("vector iterator not dereferencable");
; 71   : 			_SCL_SECURE_OUT_OF_RANGE;
; 72   : 			}
; 73   : 
; 74   :  #elif _ITERATOR_DEBUG_LEVEL == 1
; 75   : 		_SCL_SECURE_VALIDATE(this->_Getcont() != 0);
; 76   : 		_SCL_SECURE_VALIDATE_RANGE(
; 77   : 			this->_Ptr != 0
; 78   : 			&& ((_Myvec *)this->_Getcont())->_Myfirst <= this->_Ptr
; 79   : 			&& this->_Ptr < ((_Myvec *)this->_Getcont())->_Mylast);
; 80   :  #endif /* _ITERATOR_DEBUG_LEVEL */
; 81   : 
; 82   : 		__analysis_assume(this->_Ptr != 0);
; 83   : 
; 84   : 		return (*this->_Ptr);

  00000	8b 01		 mov	 eax, DWORD PTR [ecx]

; 85   : 		}

  00002	c3		 ret	 0
??D?$_Vector_const_iterator@V?$_Vector_val@PAVioBaseChar@@V?$allocator@PAVioBaseChar@@@std@@@std@@@std@@QBEABQAVioBaseChar@@XZ ENDP ; std::_Vector_const_iterator<std::_Vector_val<ioBaseChar *,std::allocator<ioBaseChar *> > >::operator*
_TEXT	ENDS
PUBLIC	??E?$_Vector_const_iterator@V?$_Vector_val@PAVioBaseChar@@V?$allocator@PAVioBaseChar@@@std@@@std@@@std@@QAEAAV01@XZ ; std::_Vector_const_iterator<std::_Vector_val<ioBaseChar *,std::allocator<ioBaseChar *> > >::operator++
; Function compile flags: /Ogsp
;	COMDAT ??E?$_Vector_const_iterator@V?$_Vector_val@PAVioBaseChar@@V?$allocator@PAVioBaseChar@@@std@@@std@@@std@@QAEAAV01@XZ
_TEXT	SEGMENT
??E?$_Vector_const_iterator@V?$_Vector_val@PAVioBaseChar@@V?$allocator@PAVioBaseChar@@@std@@@std@@@std@@QAEAAV01@XZ PROC ; std::_Vector_const_iterator<std::_Vector_val<ioBaseChar *,std::allocator<ioBaseChar *> > >::operator++, COMDAT
; _this$ = ecx

; 93   : 		{	// preincrement

  00000	8b c1		 mov	 eax, ecx

; 94   :  #if _ITERATOR_DEBUG_LEVEL == 2
; 95   : 		if (this->_Getcont() == 0
; 96   : 			|| this->_Ptr == 0
; 97   : 			|| ((_Myvec *)this->_Getcont())->_Mylast <= this->_Ptr)
; 98   : 			{	// report error
; 99   : 			_DEBUG_ERROR("vector iterator not incrementable");
; 100  : 			_SCL_SECURE_OUT_OF_RANGE;
; 101  : 			}
; 102  : 
; 103  :  #elif _ITERATOR_DEBUG_LEVEL == 1
; 104  : 		_SCL_SECURE_VALIDATE(this->_Getcont() != 0);
; 105  : 		_SCL_SECURE_VALIDATE_RANGE(
; 106  : 			this->_Ptr != 0
; 107  : 			&& this->_Ptr < ((_Myvec *)this->_Getcont())->_Mylast);
; 108  :  #endif /* _ITERATOR_DEBUG_LEVEL */
; 109  : 
; 110  : 		++this->_Ptr;

  00002	83 00 04	 add	 DWORD PTR [eax], 4

; 111  : 		return (*this);
; 112  : 		}

  00005	c3		 ret	 0
??E?$_Vector_const_iterator@V?$_Vector_val@PAVioBaseChar@@V?$allocator@PAVioBaseChar@@@std@@@std@@@std@@QAEAAV01@XZ ENDP ; std::_Vector_const_iterator<std::_Vector_val<ioBaseChar *,std::allocator<ioBaseChar *> > >::operator++
_TEXT	ENDS
PUBLIC	?DecryptValueToPool@?$CEncrypt@W4ProtectionMode@@@@QAEXPAW4ProtectionMode@@@Z ; CEncrypt<enum ProtectionMode>::DecryptValueToPool
EXTRN	?DecryptByte@ccddaabb@@QBEXPBDPADH@Z:PROC	; ccddaabb::DecryptByte
; Function compile flags: /Ogsp
; File d:\lost saga for developer\youtube\tutorial\source\src\lsclient\encryptvalue.h
;	COMDAT ?DecryptValueToPool@?$CEncrypt@W4ProtectionMode@@@@QAEXPAW4ProtectionMode@@@Z
_TEXT	SEGMENT
_value$ = 8						; size = 4
?DecryptValueToPool@?$CEncrypt@W4ProtectionMode@@@@QAEXPAW4ProtectionMode@@@Z PROC ; CEncrypt<enum ProtectionMode>::DecryptValueToPool, COMDAT
; _this$ = ecx

; 2879 : 	{

  00000	55		 push	 ebp
  00001	8b ec		 mov	 ebp, esp
  00003	56		 push	 esi

; 2880 : 		m_RC5.DecryptByte( m_MemPool, m_TempMem, sizeof(ProtectionMode) );

  00004	8d 71 28	 lea	 esi, DWORD PTR [ecx+40]
  00007	6a 04		 push	 4
  00009	8d 41 1c	 lea	 eax, DWORD PTR [ecx+28]
  0000c	56		 push	 esi
  0000d	50		 push	 eax
  0000e	83 c1 0c	 add	 ecx, 12			; 0000000cH
  00011	e8 00 00 00 00	 call	 ?DecryptByte@ccddaabb@@QBEXPBDPADH@Z ; ccddaabb::DecryptByte

; 2881 : 		*value = *((ProtectionMode*)m_TempMem);

  00016	8b 06		 mov	 eax, DWORD PTR [esi]
  00018	8b 4d 08	 mov	 ecx, DWORD PTR _value$[ebp]
  0001b	89 01		 mov	 DWORD PTR [ecx], eax
  0001d	5e		 pop	 esi

; 2882 : 	}

  0001e	5d		 pop	 ebp
  0001f	c2 04 00	 ret	 4
?DecryptValueToPool@?$CEncrypt@W4ProtectionMode@@@@QAEXPAW4ProtectionMode@@@Z ENDP ; CEncrypt<enum ProtectionMode>::DecryptValueToPool
_TEXT	ENDS
PUBLIC	??0?$_Vector_const_iterator@V?$_Vector_val@PAVioBaseChar@@V?$allocator@PAVioBaseChar@@@std@@@std@@@std@@QAE@PAPAVioBaseChar@@PBU_Container_base0@1@@Z ; std::_Vector_const_iterator<std::_Vector_val<ioBaseChar *,std::allocator<ioBaseChar *> > >::_Vector_const_iterator<std::_Vector_val<ioBaseChar *,std::allocator<ioBaseChar *> > >
; Function compile flags: /Ogsp
; File c:\program files (x86)\microsoft visual studio 10.0\vc\include\vector
;	COMDAT ??0?$_Vector_const_iterator@V?$_Vector_val@PAVioBaseChar@@V?$allocator@PAVioBaseChar@@@std@@@std@@@std@@QAE@PAPAVioBaseChar@@PBU_Container_base0@1@@Z
_TEXT	SEGMENT
__Parg$ = 8						; size = 4
__Pvector$ = 12						; size = 4
??0?$_Vector_const_iterator@V?$_Vector_val@PAVioBaseChar@@V?$allocator@PAVioBaseChar@@@std@@@std@@@std@@QAE@PAPAVioBaseChar@@PBU_Container_base0@1@@Z PROC ; std::_Vector_const_iterator<std::_Vector_val<ioBaseChar *,std::allocator<ioBaseChar *> > >::_Vector_const_iterator<std::_Vector_val<ioBaseChar *,std::allocator<ioBaseChar *> > >, COMDAT
; _this$ = ecx

; 45   : 		{	// construct with pointer _Parg

  00000	55		 push	 ebp
  00001	8b ec		 mov	 ebp, esp
  00003	8b c1		 mov	 eax, ecx
  00005	8b 4d 08	 mov	 ecx, DWORD PTR __Parg$[ebp]
  00008	89 08		 mov	 DWORD PTR [eax], ecx

; 46   : 		this->_Adopt(_Pvector);
; 47   : 		}

  0000a	5d		 pop	 ebp
  0000b	c2 08 00	 ret	 8
??0?$_Vector_const_iterator@V?$_Vector_val@PAVioBaseChar@@V?$allocator@PAVioBaseChar@@@std@@@std@@@std@@QAE@PAPAVioBaseChar@@PBU_Container_base0@1@@Z ENDP ; std::_Vector_const_iterator<std::_Vector_val<ioBaseChar *,std::allocator<ioBaseChar *> > >::_Vector_const_iterator<std::_Vector_val<ioBaseChar *,std::allocator<ioBaseChar *> > >
_TEXT	ENDS
PUBLIC	?_Compat@?$_Vector_const_iterator@V?$_Vector_val@PAVioBaseChar@@V?$allocator@PAVioBaseChar@@@std@@@std@@@std@@QBEXABV12@@Z ; std::_Vector_const_iterator<std::_Vector_val<ioBaseChar *,std::allocator<ioBaseChar *> > >::_Compat
; Function compile flags: /Ogsp
;	COMDAT ?_Compat@?$_Vector_const_iterator@V?$_Vector_val@PAVioBaseChar@@V?$allocator@PAVioBaseChar@@@std@@@std@@@std@@QBEXABV12@@Z
_TEXT	SEGMENT
___formal$ = 8						; size = 4
?_Compat@?$_Vector_const_iterator@V?$_Vector_val@PAVioBaseChar@@V?$allocator@PAVioBaseChar@@@std@@@std@@@std@@QBEXABV12@@Z PROC ; std::_Vector_const_iterator<std::_Vector_val<ioBaseChar *,std::allocator<ioBaseChar *> > >::_Compat, COMDAT
; _this$ = ecx

; 253  : 		}

  00000	c2 04 00	 ret	 4
?_Compat@?$_Vector_const_iterator@V?$_Vector_val@PAVioBaseChar@@V?$allocator@PAVioBaseChar@@@std@@@std@@@std@@QBEXABV12@@Z ENDP ; std::_Vector_const_iterator<std::_Vector_val<ioBaseChar *,std::allocator<ioBaseChar *> > >::_Compat
_TEXT	ENDS
PUBLIC	??0D3DXVECTOR3@@QAE@MMM@Z			; D3DXVECTOR3::D3DXVECTOR3
; Function compile flags: /Ogsp
; File c:\program files (x86)\microsoft directx sdk (june 2010)\include\d3dx9math.inl
;	COMDAT ??0D3DXVECTOR3@@QAE@MMM@Z
_TEXT	SEGMENT
_fx$ = 8						; size = 4
_fy$ = 12						; size = 4
_fz$ = 16						; size = 4
??0D3DXVECTOR3@@QAE@MMM@Z PROC				; D3DXVECTOR3::D3DXVECTOR3, COMDAT
; _this$ = ecx

; 303  : {

  00000	55		 push	 ebp
  00001	8b ec		 mov	 ebp, esp

; 304  :     x = fx;

  00003	f3 0f 10 45 08	 movss	 xmm0, DWORD PTR _fx$[ebp]
  00008	8b c1		 mov	 eax, ecx
  0000a	f3 0f 11 00	 movss	 DWORD PTR [eax], xmm0

; 305  :     y = fy;

  0000e	f3 0f 10 45 0c	 movss	 xmm0, DWORD PTR _fy$[ebp]
  00013	f3 0f 11 40 04	 movss	 DWORD PTR [eax+4], xmm0

; 306  :     z = fz;

  00018	f3 0f 10 45 10	 movss	 xmm0, DWORD PTR _fz$[ebp]
  0001d	f3 0f 11 40 08	 movss	 DWORD PTR [eax+8], xmm0

; 307  : }

  00022	5d		 pop	 ebp
  00023	c2 0c 00	 ret	 12			; 0000000cH
??0D3DXVECTOR3@@QAE@MMM@Z ENDP				; D3DXVECTOR3::D3DXVECTOR3
_TEXT	ENDS
PUBLIC	??GD3DXVECTOR3@@QBE?AU0@ABU0@@Z			; D3DXVECTOR3::operator-
; Function compile flags: /Ogsp
;	COMDAT ??GD3DXVECTOR3@@QBE?AU0@ABU0@@Z
_TEXT	SEGMENT
___$ReturnUdt$ = 8					; size = 4
_v$ = 12						; size = 4
??GD3DXVECTOR3@@QBE?AU0@ABU0@@Z PROC			; D3DXVECTOR3::operator-, COMDAT
; _this$ = ecx

; 386  : {

  00000	55		 push	 ebp
  00001	8b ec		 mov	 ebp, esp

; 387  :     return D3DXVECTOR3(x - v.x, y - v.y, z - v.z);

  00003	8b 55 0c	 mov	 edx, DWORD PTR _v$[ebp]
  00006	f3 0f 10 01	 movss	 xmm0, DWORD PTR [ecx]
  0000a	f3 0f 10 0a	 movss	 xmm1, DWORD PTR [edx]
  0000e	8b 45 08	 mov	 eax, DWORD PTR ___$ReturnUdt$[ebp]
  00011	0f 5a c0	 cvtps2pd xmm0, xmm0
  00014	0f 5a c9	 cvtps2pd xmm1, xmm1
  00017	f2 0f 5c c1	 subsd	 xmm0, xmm1
  0001b	f3 0f 10 4a 04	 movss	 xmm1, DWORD PTR [edx+4]
  00020	66 0f 5a c0	 cvtpd2ps xmm0, xmm0
  00024	f3 0f 11 00	 movss	 DWORD PTR [eax], xmm0
  00028	f3 0f 10 41 04	 movss	 xmm0, DWORD PTR [ecx+4]
  0002d	0f 5a c0	 cvtps2pd xmm0, xmm0
  00030	0f 5a c9	 cvtps2pd xmm1, xmm1
  00033	f2 0f 5c c1	 subsd	 xmm0, xmm1
  00037	f3 0f 10 4a 08	 movss	 xmm1, DWORD PTR [edx+8]
  0003c	66 0f 5a c0	 cvtpd2ps xmm0, xmm0
  00040	f3 0f 11 40 04	 movss	 DWORD PTR [eax+4], xmm0
  00045	f3 0f 10 41 08	 movss	 xmm0, DWORD PTR [ecx+8]
  0004a	0f 5a c0	 cvtps2pd xmm0, xmm0
  0004d	0f 5a c9	 cvtps2pd xmm1, xmm1
  00050	f2 0f 5c c1	 subsd	 xmm0, xmm1
  00054	66 0f 5a c0	 cvtpd2ps xmm0, xmm0
  00058	f3 0f 11 40 08	 movss	 DWORD PTR [eax+8], xmm0

; 388  : }

  0005d	5d		 pop	 ebp
  0005e	c2 08 00	 ret	 8
??GD3DXVECTOR3@@QBE?AU0@ABU0@@Z ENDP			; D3DXVECTOR3::operator-
_TEXT	ENDS
PUBLIC	?D3DXVec3Length@@YAMPBUD3DXVECTOR3@@@Z		; D3DXVec3Length
; Function compile flags: /Ogsp
;	COMDAT ?D3DXVec3Length@@YAMPBUD3DXVECTOR3@@@Z
_TEXT	SEGMENT
tv169 = 8						; size = 4
tv160 = 8						; size = 4
_pV$ = 8						; size = 4
?D3DXVec3Length@@YAMPBUD3DXVECTOR3@@@Z PROC		; D3DXVec3Length, COMDAT

; 1710 : {

  00000	55		 push	 ebp
  00001	8b ec		 mov	 ebp, esp

; 1711 : #ifdef D3DX_DEBUG
; 1712 :     if(!pV)
; 1713 :         return 0.0f;
; 1714 : #endif
; 1715 : 
; 1716 : #ifdef __cplusplus
; 1717 :     return sqrtf(pV->x * pV->x + pV->y * pV->y + pV->z * pV->z);

  00003	8b 45 08	 mov	 eax, DWORD PTR _pV$[ebp]
  00006	d9 40 04	 fld	 DWORD PTR [eax+4]
  00009	d9 00		 fld	 DWORD PTR [eax]
  0000b	d9 40 08	 fld	 DWORD PTR [eax+8]
  0000e	d9 c1		 fld	 ST(1)
  00010	de ca		 fmulp	 ST(2), ST(0)
  00012	d9 c2		 fld	 ST(2)
  00014	de cb		 fmulp	 ST(3), ST(0)
  00016	d9 c9		 fxch	 ST(1)
  00018	de c2		 faddp	 ST(2), ST(0)
  0001a	d9 c0		 fld	 ST(0)
  0001c	de c9		 fmulp	 ST(1), ST(0)
  0001e	de c1		 faddp	 ST(1), ST(0)
  00020	d9 5d 08	 fstp	 DWORD PTR tv169[ebp]
  00023	d9 45 08	 fld	 DWORD PTR tv169[ebp]
  00026	e8 00 00 00 00	 call	 __CIsqrt
  0002b	d9 5d 08	 fstp	 DWORD PTR tv160[ebp]
  0002e	d9 45 08	 fld	 DWORD PTR tv160[ebp]

; 1718 : #else
; 1719 :     return (FLOAT) sqrt(pV->x * pV->x + pV->y * pV->y + pV->z * pV->z);
; 1720 : #endif
; 1721 : }

  00031	5d		 pop	 ebp
  00032	c3		 ret	 0
?D3DXVec3Length@@YAMPBUD3DXVECTOR3@@@Z ENDP		; D3DXVec3Length
_TEXT	ENDS
PUBLIC	?_DECSTR@@YAXPADH@Z				; _DECSTR
; Function compile flags: /Ogsp
; File d:\lost saga for developer\youtube\tutorial\source\src\lsclient\stringprotect.h
;	COMDAT ?_DECSTR@@YAXPADH@Z
_TEXT	SEGMENT
_s$ = 8							; size = 4
_l$ = 12						; size = 4
?_DECSTR@@YAXPADH@Z PROC				; _DECSTR, COMDAT

; 40   : __forceinline void _DECSTR(char* s, int l){int i=0,l4=(l-1)/4,*p=(int*)s;s[l-1]=0;for(;i<l4;++i)*(p++)^=0xEAEBECED;for(i=l4*4;i<l-1;++i)s[i]^=0xED-i%4;}

  00000	55		 push	 ebp
  00001	8b ec		 mov	 ebp, esp
  00003	8b 4d 0c	 mov	 ecx, DWORD PTR _l$[ebp]
  00006	56		 push	 esi
  00007	8b 75 08	 mov	 esi, DWORD PTR _s$[ebp]
  0000a	57		 push	 edi
  0000b	8d 79 ff	 lea	 edi, DWORD PTR [ecx-1]
  0000e	8b c7		 mov	 eax, edi
  00010	99		 cdq
  00011	83 e2 03	 and	 edx, 3
  00014	03 c2		 add	 eax, edx
  00016	c1 f8 02	 sar	 eax, 2
  00019	8b d6		 mov	 edx, esi
  0001b	c6 44 0e ff 00	 mov	 BYTE PTR [esi+ecx-1], 0
  00020	85 c0		 test	 eax, eax
  00022	7e 0e		 jle	 SHORT $LN4@DECSTR
  00024	8b c8		 mov	 ecx, eax
$LL6@DECSTR:
  00026	81 32 ed ec eb
	ea		 xor	 DWORD PTR [edx], -353637139 ; eaebecedH
  0002c	83 c2 04	 add	 edx, 4
  0002f	49		 dec	 ecx
  00030	75 f4		 jne	 SHORT $LL6@DECSTR
$LN4@DECSTR:
  00032	c1 e0 02	 shl	 eax, 2
  00035	eb 17		 jmp	 SHORT $LN14@DECSTR
$LL3@DECSTR:
  00037	8b c8		 mov	 ecx, eax
  00039	81 e1 03 00 00
	80		 and	 ecx, -2147483645	; 80000003H
  0003f	79 05		 jns	 SHORT $LN13@DECSTR
  00041	49		 dec	 ecx
  00042	83 c9 fc	 or	 ecx, -4			; fffffffcH
  00045	41		 inc	 ecx
$LN13@DECSTR:
  00046	b2 ed		 mov	 dl, -19			; ffffffedH
  00048	2a d1		 sub	 dl, cl
  0004a	30 14 30	 xor	 BYTE PTR [eax+esi], dl
  0004d	40		 inc	 eax
$LN14@DECSTR:
  0004e	3b c7		 cmp	 eax, edi
  00050	7c e5		 jl	 SHORT $LL3@DECSTR
  00052	5f		 pop	 edi
  00053	5e		 pop	 esi
  00054	5d		 pop	 ebp
  00055	c3		 ret	 0
?_DECSTR@@YAXPADH@Z ENDP				; _DECSTR
_TEXT	ENDS
PUBLIC	?GetGroup@ioGameEntity@@QBEPAVioEntityGroup@@XZ	; ioGameEntity::GetGroup
; Function compile flags: /Ogsp
; File d:\lost saga for developer\youtube\tutorial\source\src\lsclient\iogameentity.h
;	COMDAT ?GetGroup@ioGameEntity@@QBEPAVioEntityGroup@@XZ
_TEXT	SEGMENT
?GetGroup@ioGameEntity@@QBEPAVioEntityGroup@@XZ PROC	; ioGameEntity::GetGroup, COMDAT
; _this$ = ecx

; 166  : 	inline ioEntityGroup* GetGroup() const { return m_pGroup; }

  00000	8b 41 04	 mov	 eax, DWORD PTR [ecx+4]
  00003	c3		 ret	 0
?GetGroup@ioGameEntity@@QBEPAVioEntityGroup@@XZ ENDP	; ioGameEntity::GetGroup
_TEXT	ENDS
PUBLIC	??_7?$CEncrypt@M@@6B@				; CEncrypt<float>::`vftable'
PUBLIC	??1?$CEncrypt@M@@UAE@XZ				; CEncrypt<float>::~CEncrypt<float>
PUBLIC	??_R4?$CEncrypt@M@@6B@				; CEncrypt<float>::`RTTI Complete Object Locator'
PUBLIC	??_R0?AV?$CEncrypt@M@@@8			; CEncrypt<float> `RTTI Type Descriptor'
PUBLIC	??_R3?$CEncrypt@M@@8				; CEncrypt<float>::`RTTI Class Hierarchy Descriptor'
PUBLIC	??_R2?$CEncrypt@M@@8				; CEncrypt<float>::`RTTI Base Class Array'
PUBLIC	??_R1A@?0A@EA@?$CEncrypt@M@@8			; CEncrypt<float>::`RTTI Base Class Descriptor at (0,-1,0,64)'
EXTRN	??1ccddaabb@@UAE@XZ:PROC			; ccddaabb::~ccddaabb
EXTRN	??_7type_info@@6B@:QWORD			; type_info::`vftable'
EXTRN	??_E?$CEncrypt@M@@UAEPAXI@Z:PROC		; CEncrypt<float>::`vector deleting destructor'
;	COMDAT ??_R1A@?0A@EA@?$CEncrypt@M@@8
; File d:\lost saga for developer\youtube\tutorial\source\src\lsclient\encryptvalue.h
rdata$r	SEGMENT
??_R1A@?0A@EA@?$CEncrypt@M@@8 DD FLAT:??_R0?AV?$CEncrypt@M@@@8 ; CEncrypt<float>::`RTTI Base Class Descriptor at (0,-1,0,64)'
	DD	00H
	DD	00H
	DD	0ffffffffH
	DD	00H
	DD	040H
	DD	FLAT:??_R3?$CEncrypt@M@@8
rdata$r	ENDS
;	COMDAT ??_R2?$CEncrypt@M@@8
rdata$r	SEGMENT
??_R2?$CEncrypt@M@@8 DD FLAT:??_R1A@?0A@EA@?$CEncrypt@M@@8 ; CEncrypt<float>::`RTTI Base Class Array'
rdata$r	ENDS
;	COMDAT ??_R3?$CEncrypt@M@@8
rdata$r	SEGMENT
??_R3?$CEncrypt@M@@8 DD 00H				; CEncrypt<float>::`RTTI Class Hierarchy Descriptor'
	DD	00H
	DD	01H
	DD	FLAT:??_R2?$CEncrypt@M@@8
rdata$r	ENDS
;	COMDAT ??_R0?AV?$CEncrypt@M@@@8
_DATA	SEGMENT
??_R0?AV?$CEncrypt@M@@@8 DD FLAT:??_7type_info@@6B@	; CEncrypt<float> `RTTI Type Descriptor'
	DD	00H
	DB	'.?AV?$CEncrypt@M@@', 00H
_DATA	ENDS
;	COMDAT ??_R4?$CEncrypt@M@@6B@
rdata$r	SEGMENT
??_R4?$CEncrypt@M@@6B@ DD 00H				; CEncrypt<float>::`RTTI Complete Object Locator'
	DD	00H
	DD	00H
	DD	FLAT:??_R0?AV?$CEncrypt@M@@@8
	DD	FLAT:??_R3?$CEncrypt@M@@8
rdata$r	ENDS
;	COMDAT ??_7?$CEncrypt@M@@6B@
CONST	SEGMENT
??_7?$CEncrypt@M@@6B@ DD FLAT:??_R4?$CEncrypt@M@@6B@	; CEncrypt<float>::`vftable'
	DD	FLAT:??_E?$CEncrypt@M@@UAEPAXI@Z
; Function compile flags: /Ogsp
CONST	ENDS
;	COMDAT ??1?$CEncrypt@M@@UAE@XZ
_TEXT	SEGMENT
??1?$CEncrypt@M@@UAE@XZ PROC				; CEncrypt<float>::~CEncrypt<float>, COMDAT
; _this$ = ecx

; 127  : 	{

  00000	c7 01 00 00 00
	00		 mov	 DWORD PTR [ecx], OFFSET ??_7?$CEncrypt@M@@6B@

; 128  : 	}

  00006	83 c1 0c	 add	 ecx, 12			; 0000000cH
  00009	e9 00 00 00 00	 jmp	 ??1ccddaabb@@UAE@XZ	; ccddaabb::~ccddaabb
??1?$CEncrypt@M@@UAE@XZ ENDP				; CEncrypt<float>::~CEncrypt<float>
_TEXT	ENDS
PUBLIC	??_7?$CEncrypt@K@@6B@				; CEncrypt<unsigned long>::`vftable'
PUBLIC	??1?$CEncrypt@K@@UAE@XZ				; CEncrypt<unsigned long>::~CEncrypt<unsigned long>
PUBLIC	??_R4?$CEncrypt@K@@6B@				; CEncrypt<unsigned long>::`RTTI Complete Object Locator'
PUBLIC	??_R0?AV?$CEncrypt@K@@@8			; CEncrypt<unsigned long> `RTTI Type Descriptor'
PUBLIC	??_R3?$CEncrypt@K@@8				; CEncrypt<unsigned long>::`RTTI Class Hierarchy Descriptor'
PUBLIC	??_R2?$CEncrypt@K@@8				; CEncrypt<unsigned long>::`RTTI Base Class Array'
PUBLIC	??_R1A@?0A@EA@?$CEncrypt@K@@8			; CEncrypt<unsigned long>::`RTTI Base Class Descriptor at (0,-1,0,64)'
EXTRN	??_E?$CEncrypt@K@@UAEPAXI@Z:PROC		; CEncrypt<unsigned long>::`vector deleting destructor'
;	COMDAT ??_R1A@?0A@EA@?$CEncrypt@K@@8
rdata$r	SEGMENT
??_R1A@?0A@EA@?$CEncrypt@K@@8 DD FLAT:??_R0?AV?$CEncrypt@K@@@8 ; CEncrypt<unsigned long>::`RTTI Base Class Descriptor at (0,-1,0,64)'
	DD	00H
	DD	00H
	DD	0ffffffffH
	DD	00H
	DD	040H
	DD	FLAT:??_R3?$CEncrypt@K@@8
rdata$r	ENDS
;	COMDAT ??_R2?$CEncrypt@K@@8
rdata$r	SEGMENT
??_R2?$CEncrypt@K@@8 DD FLAT:??_R1A@?0A@EA@?$CEncrypt@K@@8 ; CEncrypt<unsigned long>::`RTTI Base Class Array'
rdata$r	ENDS
;	COMDAT ??_R3?$CEncrypt@K@@8
rdata$r	SEGMENT
??_R3?$CEncrypt@K@@8 DD 00H				; CEncrypt<unsigned long>::`RTTI Class Hierarchy Descriptor'
	DD	00H
	DD	01H
	DD	FLAT:??_R2?$CEncrypt@K@@8
rdata$r	ENDS
;	COMDAT ??_R0?AV?$CEncrypt@K@@@8
_DATA	SEGMENT
??_R0?AV?$CEncrypt@K@@@8 DD FLAT:??_7type_info@@6B@	; CEncrypt<unsigned long> `RTTI Type Descriptor'
	DD	00H
	DB	'.?AV?$CEncrypt@K@@', 00H
_DATA	ENDS
;	COMDAT ??_R4?$CEncrypt@K@@6B@
rdata$r	SEGMENT
??_R4?$CEncrypt@K@@6B@ DD 00H				; CEncrypt<unsigned long>::`RTTI Complete Object Locator'
	DD	00H
	DD	00H
	DD	FLAT:??_R0?AV?$CEncrypt@K@@@8
	DD	FLAT:??_R3?$CEncrypt@K@@8
rdata$r	ENDS
;	COMDAT ??_7?$CEncrypt@K@@6B@
CONST	SEGMENT
??_7?$CEncrypt@K@@6B@ DD FLAT:??_R4?$CEncrypt@K@@6B@	; CEncrypt<unsigned long>::`vftable'
	DD	FLAT:??_E?$CEncrypt@K@@UAEPAXI@Z
; Function compile flags: /Ogsp
CONST	ENDS
;	COMDAT ??1?$CEncrypt@K@@UAE@XZ
_TEXT	SEGMENT
??1?$CEncrypt@K@@UAE@XZ PROC				; CEncrypt<unsigned long>::~CEncrypt<unsigned long>, COMDAT
; _this$ = ecx

; 127  : 	{

  00000	c7 01 00 00 00
	00		 mov	 DWORD PTR [ecx], OFFSET ??_7?$CEncrypt@K@@6B@

; 128  : 	}

  00006	83 c1 0c	 add	 ecx, 12			; 0000000cH
  00009	e9 00 00 00 00	 jmp	 ??1ccddaabb@@UAE@XZ	; ccddaabb::~ccddaabb
??1?$CEncrypt@K@@UAE@XZ ENDP				; CEncrypt<unsigned long>::~CEncrypt<unsigned long>
_TEXT	ENDS
PUBLIC	??_7?$CEncrypt@_N@@6B@				; CEncrypt<bool>::`vftable'
PUBLIC	??1?$CEncrypt@_N@@UAE@XZ			; CEncrypt<bool>::~CEncrypt<bool>
PUBLIC	??_R4?$CEncrypt@_N@@6B@				; CEncrypt<bool>::`RTTI Complete Object Locator'
PUBLIC	??_R0?AV?$CEncrypt@_N@@@8			; CEncrypt<bool> `RTTI Type Descriptor'
PUBLIC	??_R3?$CEncrypt@_N@@8				; CEncrypt<bool>::`RTTI Class Hierarchy Descriptor'
PUBLIC	??_R2?$CEncrypt@_N@@8				; CEncrypt<bool>::`RTTI Base Class Array'
PUBLIC	??_R1A@?0A@EA@?$CEncrypt@_N@@8			; CEncrypt<bool>::`RTTI Base Class Descriptor at (0,-1,0,64)'
EXTRN	??_E?$CEncrypt@_N@@UAEPAXI@Z:PROC		; CEncrypt<bool>::`vector deleting destructor'
;	COMDAT ??_R1A@?0A@EA@?$CEncrypt@_N@@8
rdata$r	SEGMENT
??_R1A@?0A@EA@?$CEncrypt@_N@@8 DD FLAT:??_R0?AV?$CEncrypt@_N@@@8 ; CEncrypt<bool>::`RTTI Base Class Descriptor at (0,-1,0,64)'
	DD	00H
	DD	00H
	DD	0ffffffffH
	DD	00H
	DD	040H
	DD	FLAT:??_R3?$CEncrypt@_N@@8
rdata$r	ENDS
;	COMDAT ??_R2?$CEncrypt@_N@@8
rdata$r	SEGMENT
??_R2?$CEncrypt@_N@@8 DD FLAT:??_R1A@?0A@EA@?$CEncrypt@_N@@8 ; CEncrypt<bool>::`RTTI Base Class Array'
rdata$r	ENDS
;	COMDAT ??_R3?$CEncrypt@_N@@8
rdata$r	SEGMENT
??_R3?$CEncrypt@_N@@8 DD 00H				; CEncrypt<bool>::`RTTI Class Hierarchy Descriptor'
	DD	00H
	DD	01H
	DD	FLAT:??_R2?$CEncrypt@_N@@8
rdata$r	ENDS
;	COMDAT ??_R0?AV?$CEncrypt@_N@@@8
_DATA	SEGMENT
??_R0?AV?$CEncrypt@_N@@@8 DD FLAT:??_7type_info@@6B@	; CEncrypt<bool> `RTTI Type Descriptor'
	DD	00H
	DB	'.?AV?$CEncrypt@_N@@', 00H
_DATA	ENDS
;	COMDAT ??_R4?$CEncrypt@_N@@6B@
rdata$r	SEGMENT
??_R4?$CEncrypt@_N@@6B@ DD 00H				; CEncrypt<bool>::`RTTI Complete Object Locator'
	DD	00H
	DD	00H
	DD	FLAT:??_R0?AV?$CEncrypt@_N@@@8
	DD	FLAT:??_R3?$CEncrypt@_N@@8
rdata$r	ENDS
;	COMDAT ??_7?$CEncrypt@_N@@6B@
CONST	SEGMENT
??_7?$CEncrypt@_N@@6B@ DD FLAT:??_R4?$CEncrypt@_N@@6B@	; CEncrypt<bool>::`vftable'
	DD	FLAT:??_E?$CEncrypt@_N@@UAEPAXI@Z
; Function compile flags: /Ogsp
CONST	ENDS
;	COMDAT ??1?$CEncrypt@_N@@UAE@XZ
_TEXT	SEGMENT
??1?$CEncrypt@_N@@UAE@XZ PROC				; CEncrypt<bool>::~CEncrypt<bool>, COMDAT
; _this$ = ecx

; 127  : 	{

  00000	c7 01 00 00 00
	00		 mov	 DWORD PTR [ecx], OFFSET ??_7?$CEncrypt@_N@@6B@

; 128  : 	}

  00006	83 c1 0c	 add	 ecx, 12			; 0000000cH
  00009	e9 00 00 00 00	 jmp	 ??1ccddaabb@@UAE@XZ	; ccddaabb::~ccddaabb
??1?$CEncrypt@_N@@UAE@XZ ENDP				; CEncrypt<bool>::~CEncrypt<bool>
_TEXT	ENDS
EXTRN	??3@YAXPAX@Z:PROC				; operator delete
; Function compile flags: /Ogsp
;	COMDAT ??_G?$CEncrypt@M@@UAEPAXI@Z
_TEXT	SEGMENT
___flags$ = 8						; size = 4
??_G?$CEncrypt@M@@UAEPAXI@Z PROC			; CEncrypt<float>::`scalar deleting destructor', COMDAT
; _this$ = ecx
  00000	55		 push	 ebp
  00001	8b ec		 mov	 ebp, esp
  00003	56		 push	 esi
  00004	8b f1		 mov	 esi, ecx
  00006	8d 4e 0c	 lea	 ecx, DWORD PTR [esi+12]
  00009	c7 06 00 00 00
	00		 mov	 DWORD PTR [esi], OFFSET ??_7?$CEncrypt@M@@6B@
  0000f	e8 00 00 00 00	 call	 ??1ccddaabb@@UAE@XZ	; ccddaabb::~ccddaabb
  00014	f6 45 08 01	 test	 BYTE PTR ___flags$[ebp], 1
  00018	74 07		 je	 SHORT $LN1@scalar
  0001a	56		 push	 esi
  0001b	e8 00 00 00 00	 call	 ??3@YAXPAX@Z		; operator delete
  00020	59		 pop	 ecx
$LN1@scalar:
  00021	8b c6		 mov	 eax, esi
  00023	5e		 pop	 esi
  00024	5d		 pop	 ebp
  00025	c2 04 00	 ret	 4
??_G?$CEncrypt@M@@UAEPAXI@Z ENDP			; CEncrypt<float>::`scalar deleting destructor'
; Function compile flags: /Ogsp
_TEXT	ENDS
;	COMDAT ??_G?$CEncrypt@K@@UAEPAXI@Z
_TEXT	SEGMENT
___flags$ = 8						; size = 4
??_G?$CEncrypt@K@@UAEPAXI@Z PROC			; CEncrypt<unsigned long>::`scalar deleting destructor', COMDAT
; _this$ = ecx
  00000	55		 push	 ebp
  00001	8b ec		 mov	 ebp, esp
  00003	56		 push	 esi
  00004	8b f1		 mov	 esi, ecx
  00006	8d 4e 0c	 lea	 ecx, DWORD PTR [esi+12]
  00009	c7 06 00 00 00
	00		 mov	 DWORD PTR [esi], OFFSET ??_7?$CEncrypt@K@@6B@
  0000f	e8 00 00 00 00	 call	 ??1ccddaabb@@UAE@XZ	; ccddaabb::~ccddaabb
  00014	f6 45 08 01	 test	 BYTE PTR ___flags$[ebp], 1
  00018	74 07		 je	 SHORT $LN1@scalar@2
  0001a	56		 push	 esi
  0001b	e8 00 00 00 00	 call	 ??3@YAXPAX@Z		; operator delete
  00020	59		 pop	 ecx
$LN1@scalar@2:
  00021	8b c6		 mov	 eax, esi
  00023	5e		 pop	 esi
  00024	5d		 pop	 ebp
  00025	c2 04 00	 ret	 4
??_G?$CEncrypt@K@@UAEPAXI@Z ENDP			; CEncrypt<unsigned long>::`scalar deleting destructor'
; Function compile flags: /Ogsp
_TEXT	ENDS
;	COMDAT ??_G?$CEncrypt@_N@@UAEPAXI@Z
_TEXT	SEGMENT
___flags$ = 8						; size = 4
??_G?$CEncrypt@_N@@UAEPAXI@Z PROC			; CEncrypt<bool>::`scalar deleting destructor', COMDAT
; _this$ = ecx
  00000	55		 push	 ebp
  00001	8b ec		 mov	 ebp, esp
  00003	56		 push	 esi
  00004	8b f1		 mov	 esi, ecx
  00006	8d 4e 0c	 lea	 ecx, DWORD PTR [esi+12]
  00009	c7 06 00 00 00
	00		 mov	 DWORD PTR [esi], OFFSET ??_7?$CEncrypt@_N@@6B@
  0000f	e8 00 00 00 00	 call	 ??1ccddaabb@@UAE@XZ	; ccddaabb::~ccddaabb
  00014	f6 45 08 01	 test	 BYTE PTR ___flags$[ebp], 1
  00018	74 07		 je	 SHORT $LN1@scalar@3
  0001a	56		 push	 esi
  0001b	e8 00 00 00 00	 call	 ??3@YAXPAX@Z		; operator delete
  00020	59		 pop	 ecx
$LN1@scalar@3:
  00021	8b c6		 mov	 eax, esi
  00023	5e		 pop	 esi
  00024	5d		 pop	 ebp
  00025	c2 04 00	 ret	 4
??_G?$CEncrypt@_N@@UAEPAXI@Z ENDP			; CEncrypt<bool>::`scalar deleting destructor'
_TEXT	ENDS
PUBLIC	?EncryptValueToPool@?$CEncrypt@M@@AAEXPBD@Z	; CEncrypt<float>::EncryptValueToPool
EXTRN	?EncryptByte@ccddaabb@@QAEXPBDPADH@Z:PROC	; ccddaabb::EncryptByte
; Function compile flags: /Ogsp
;	COMDAT ?EncryptValueToPool@?$CEncrypt@M@@AAEXPBD@Z
_TEXT	SEGMENT
_value$ = 8						; size = 4
?EncryptValueToPool@?$CEncrypt@M@@AAEXPBD@Z PROC	; CEncrypt<float>::EncryptValueToPool, COMDAT
; _this$ = ecx

; 67   : 	{

  00000	55		 push	 ebp
  00001	8b ec		 mov	 ebp, esp

; 68   : 		m_RC5.EncryptByte( value, m_MemPool, max(m_ValueSize, DEFAULT_ENCRYPT) );

  00003	0f b7 41 06	 movzx	 eax, WORD PTR [ecx+6]
  00007	83 f8 04	 cmp	 eax, 4
  0000a	77 03		 ja	 SHORT $LN4@EncryptVal
  0000c	6a 04		 push	 4
  0000e	58		 pop	 eax
$LN4@EncryptVal:
  0000f	50		 push	 eax
  00010	8d 41 1c	 lea	 eax, DWORD PTR [ecx+28]
  00013	50		 push	 eax
  00014	ff 75 08	 push	 DWORD PTR _value$[ebp]
  00017	83 c1 0c	 add	 ecx, 12			; 0000000cH
  0001a	e8 00 00 00 00	 call	 ?EncryptByte@ccddaabb@@QAEXPBDPADH@Z ; ccddaabb::EncryptByte

; 69   : 		
; 70   : 	}

  0001f	5d		 pop	 ebp
  00020	c2 04 00	 ret	 4
?EncryptValueToPool@?$CEncrypt@M@@AAEXPBD@Z ENDP	; CEncrypt<float>::EncryptValueToPool
_TEXT	ENDS
PUBLIC	?Init@?$CEncrypt@M@@AAEXXZ			; CEncrypt<float>::Init
EXTRN	?Setup@ccddaabb@@QAEXPBDHH@Z:PROC		; ccddaabb::Setup
EXTRN	__imp__rand:PROC
EXTRN	__imp__timeGetTime@0:PROC
EXTRN	__imp__GetCurrentProcessId@0:PROC
; Function compile flags: /Ogsp
;	COMDAT ?Init@?$CEncrypt@M@@AAEXXZ
_TEXT	SEGMENT
_pid$ = -8						; size = 4
_tick$ = -4						; size = 4
?Init@?$CEncrypt@M@@AAEXXZ PROC				; CEncrypt<float>::Init, COMDAT
; _this$ = ecx

; 73   : 	{

  00000	55		 push	 ebp
  00001	8b ec		 mov	 ebp, esp
  00003	51		 push	 ecx
  00004	51		 push	 ecx
  00005	53		 push	 ebx
  00006	56		 push	 esi
  00007	57		 push	 edi
  00008	8b f1		 mov	 esi, ecx

; 74   : 		DWORD pid = GetCurrentProcessId();

  0000a	ff 15 00 00 00
	00		 call	 DWORD PTR __imp__GetCurrentProcessId@0
  00010	89 45 f8	 mov	 DWORD PTR _pid$[ebp], eax

; 75   : 		DWORD tick = timeGetTime();

  00013	ff 15 00 00 00
	00		 call	 DWORD PTR __imp__timeGetTime@0

; 76   : 		m_ValueSize    = sizeof(type);
; 77   : 		m_MemPoolPos   = (unsigned short)( rand()+pid+tick )%(MAX_MEM_POOL-m_ValueSize);

  00019	8b 3d 00 00 00
	00		 mov	 edi, DWORD PTR __imp__rand
  0001f	89 45 fc	 mov	 DWORD PTR _tick$[ebp], eax
  00022	6a 04		 push	 4
  00024	58		 pop	 eax
  00025	66 89 46 06	 mov	 WORD PTR [esi+6], ax
  00029	ff d7		 call	 edi
  0002b	03 45 f8	 add	 eax, DWORD PTR _pid$[ebp]
  0002e	0f b7 4e 06	 movzx	 ecx, WORD PTR [esi+6]
  00032	03 45 fc	 add	 eax, DWORD PTR _tick$[ebp]
  00035	6a 0c		 push	 12			; 0000000cH
  00037	0f b7 c0	 movzx	 eax, ax
  0003a	5b		 pop	 ebx
  0003b	99		 cdq
  0003c	2b d9		 sub	 ebx, ecx
  0003e	f7 fb		 idiv	 ebx
  00040	66 89 56 04	 mov	 WORD PTR [esi+4], dx

; 78   : 		m_EncryptSeed  = (char)( rand()+pid+tick )%256;

  00044	ff d7		 call	 edi
  00046	02 45 f8	 add	 al, BYTE PTR _pid$[ebp]
  00049	02 45 fc	 add	 al, BYTE PTR _tick$[ebp]
  0004c	0f be c0	 movsx	 eax, al
  0004f	25 ff 00 00 80	 and	 eax, -2147483393	; 800000ffH
  00054	79 07		 jns	 SHORT $LN8@Init
  00056	48		 dec	 eax
  00057	0d 00 ff ff ff	 or	 eax, -256		; ffffff00H
  0005c	40		 inc	 eax
$LN8@Init:
  0005d	88 46 08	 mov	 BYTE PTR [esi+8], al

; 79   : 
; 80   : 		for (int i = 0; i < MAX_MEM_POOL ; i++)

  00060	33 db		 xor	 ebx, ebx
$LL3@Init:

; 81   : 			m_MemPool[i] = (char)( rand()+pid+tick )%256; // 

  00062	ff d7		 call	 edi
  00064	02 45 f8	 add	 al, BYTE PTR _pid$[ebp]
  00067	02 45 fc	 add	 al, BYTE PTR _tick$[ebp]
  0006a	0f be c0	 movsx	 eax, al
  0006d	25 ff 00 00 80	 and	 eax, -2147483393	; 800000ffH
  00072	79 07		 jns	 SHORT $LN9@Init
  00074	48		 dec	 eax
  00075	0d 00 ff ff ff	 or	 eax, -256		; ffffff00H
  0007a	40		 inc	 eax
$LN9@Init:
  0007b	88 44 1e 1c	 mov	 BYTE PTR [esi+ebx+28], al
  0007f	43		 inc	 ebx
  00080	83 fb 0c	 cmp	 ebx, 12			; 0000000cH
  00083	7c dd		 jl	 SHORT $LL3@Init

; 82   : 
; 83   : 		//UJ 130913, : szKey  
; 84   : 		//char szKey[ccddaabb::KEY_SIZE];//="";
; 85   : 		//for (int i = 0; i < ccddaabb::KEY_SIZE  ; i++)
; 86   : 		//	szKey[i] = (char)( rand()+pid+tick )%256; // 
; 87   : 		m_RC5.Setup( NULL, pid, tick );

  00085	ff 75 fc	 push	 DWORD PTR _tick$[ebp]
  00088	8d 4e 0c	 lea	 ecx, DWORD PTR [esi+12]
  0008b	ff 75 f8	 push	 DWORD PTR _pid$[ebp]
  0008e	6a 00		 push	 0
  00090	e8 00 00 00 00	 call	 ?Setup@ccddaabb@@QAEXPBDHH@Z ; ccddaabb::Setup
  00095	5f		 pop	 edi
  00096	5e		 pop	 esi
  00097	5b		 pop	 ebx

; 88   : 
; 89   : #ifdef _NOTUSE
; 90   : 		m_value        = 0;
; 91   : 		EncryptValueToPool((char*)&m_value);
; 92   : 		Debug();
; 93   : #endif
; 94   : 	}

  00098	c9		 leave
  00099	c3		 ret	 0
?Init@?$CEncrypt@M@@AAEXXZ ENDP				; CEncrypt<float>::Init
_TEXT	ENDS
PUBLIC	?DecryptValueToPool@?$CEncrypt@M@@QAEXPAM@Z	; CEncrypt<float>::DecryptValueToPool
; Function compile flags: /Ogsp
;	COMDAT ?DecryptValueToPool@?$CEncrypt@M@@QAEXPAM@Z
_TEXT	SEGMENT
_value$ = 8						; size = 4
?DecryptValueToPool@?$CEncrypt@M@@QAEXPAM@Z PROC	; CEncrypt<float>::DecryptValueToPool, COMDAT
; _this$ = ecx

; 1648 : 	{

  00000	55		 push	 ebp
  00001	8b ec		 mov	 ebp, esp
  00003	56		 push	 esi

; 1649 : 		m_RC5.DecryptByte( m_MemPool, m_TempMem, 4 );

  00004	8d 71 28	 lea	 esi, DWORD PTR [ecx+40]
  00007	6a 04		 push	 4
  00009	8d 41 1c	 lea	 eax, DWORD PTR [ecx+28]
  0000c	56		 push	 esi
  0000d	50		 push	 eax
  0000e	83 c1 0c	 add	 ecx, 12			; 0000000cH
  00011	e8 00 00 00 00	 call	 ?DecryptByte@ccddaabb@@QBEXPBDPADH@Z ; ccddaabb::DecryptByte

; 1650 : 		*value = *((float*)m_TempMem);

  00016	d9 06		 fld	 DWORD PTR [esi]
  00018	8b 45 08	 mov	 eax, DWORD PTR _value$[ebp]
  0001b	d9 18		 fstp	 DWORD PTR [eax]
  0001d	5e		 pop	 esi

; 1651 : 	}

  0001e	5d		 pop	 ebp
  0001f	c2 04 00	 ret	 4
?DecryptValueToPool@?$CEncrypt@M@@QAEXPAM@Z ENDP	; CEncrypt<float>::DecryptValueToPool
_TEXT	ENDS
PUBLIC	?EncryptValueToPool@?$CEncrypt@K@@AAEXPBD@Z	; CEncrypt<unsigned long>::EncryptValueToPool
; Function compile flags: /Ogsp
;	COMDAT ?EncryptValueToPool@?$CEncrypt@K@@AAEXPBD@Z
_TEXT	SEGMENT
_value$ = 8						; size = 4
?EncryptValueToPool@?$CEncrypt@K@@AAEXPBD@Z PROC	; CEncrypt<unsigned long>::EncryptValueToPool, COMDAT
; _this$ = ecx

; 67   : 	{

  00000	55		 push	 ebp
  00001	8b ec		 mov	 ebp, esp

; 68   : 		m_RC5.EncryptByte( value, m_MemPool, max(m_ValueSize, DEFAULT_ENCRYPT) );

  00003	0f b7 41 06	 movzx	 eax, WORD PTR [ecx+6]
  00007	83 f8 04	 cmp	 eax, 4
  0000a	77 03		 ja	 SHORT $LN4@EncryptVal@2
  0000c	6a 04		 push	 4
  0000e	58		 pop	 eax
$LN4@EncryptVal@2:
  0000f	50		 push	 eax
  00010	8d 41 1c	 lea	 eax, DWORD PTR [ecx+28]
  00013	50		 push	 eax
  00014	ff 75 08	 push	 DWORD PTR _value$[ebp]
  00017	83 c1 0c	 add	 ecx, 12			; 0000000cH
  0001a	e8 00 00 00 00	 call	 ?EncryptByte@ccddaabb@@QAEXPBDPADH@Z ; ccddaabb::EncryptByte

; 69   : 		
; 70   : 	}

  0001f	5d		 pop	 ebp
  00020	c2 04 00	 ret	 4
?EncryptValueToPool@?$CEncrypt@K@@AAEXPBD@Z ENDP	; CEncrypt<unsigned long>::EncryptValueToPool
_TEXT	ENDS
PUBLIC	?Init@?$CEncrypt@K@@AAEXXZ			; CEncrypt<unsigned long>::Init
; Function compile flags: /Ogsp
;	COMDAT ?Init@?$CEncrypt@K@@AAEXXZ
_TEXT	SEGMENT
_pid$ = -8						; size = 4
_tick$ = -4						; size = 4
?Init@?$CEncrypt@K@@AAEXXZ PROC				; CEncrypt<unsigned long>::Init, COMDAT
; _this$ = ecx

; 73   : 	{

  00000	55		 push	 ebp
  00001	8b ec		 mov	 ebp, esp
  00003	51		 push	 ecx
  00004	51		 push	 ecx
  00005	53		 push	 ebx
  00006	56		 push	 esi
  00007	57		 push	 edi
  00008	8b f1		 mov	 esi, ecx

; 74   : 		DWORD pid = GetCurrentProcessId();

  0000a	ff 15 00 00 00
	00		 call	 DWORD PTR __imp__GetCurrentProcessId@0
  00010	89 45 f8	 mov	 DWORD PTR _pid$[ebp], eax

; 75   : 		DWORD tick = timeGetTime();

  00013	ff 15 00 00 00
	00		 call	 DWORD PTR __imp__timeGetTime@0

; 76   : 		m_ValueSize    = sizeof(type);
; 77   : 		m_MemPoolPos   = (unsigned short)( rand()+pid+tick )%(MAX_MEM_POOL-m_ValueSize);

  00019	8b 3d 00 00 00
	00		 mov	 edi, DWORD PTR __imp__rand
  0001f	89 45 fc	 mov	 DWORD PTR _tick$[ebp], eax
  00022	6a 04		 push	 4
  00024	58		 pop	 eax
  00025	66 89 46 06	 mov	 WORD PTR [esi+6], ax
  00029	ff d7		 call	 edi
  0002b	03 45 f8	 add	 eax, DWORD PTR _pid$[ebp]
  0002e	0f b7 4e 06	 movzx	 ecx, WORD PTR [esi+6]
  00032	03 45 fc	 add	 eax, DWORD PTR _tick$[ebp]
  00035	6a 0c		 push	 12			; 0000000cH
  00037	0f b7 c0	 movzx	 eax, ax
  0003a	5b		 pop	 ebx
  0003b	99		 cdq
  0003c	2b d9		 sub	 ebx, ecx
  0003e	f7 fb		 idiv	 ebx
  00040	66 89 56 04	 mov	 WORD PTR [esi+4], dx

; 78   : 		m_EncryptSeed  = (char)( rand()+pid+tick )%256;

  00044	ff d7		 call	 edi
  00046	02 45 f8	 add	 al, BYTE PTR _pid$[ebp]
  00049	02 45 fc	 add	 al, BYTE PTR _tick$[ebp]
  0004c	0f be c0	 movsx	 eax, al
  0004f	25 ff 00 00 80	 and	 eax, -2147483393	; 800000ffH
  00054	79 07		 jns	 SHORT $LN8@Init@2
  00056	48		 dec	 eax
  00057	0d 00 ff ff ff	 or	 eax, -256		; ffffff00H
  0005c	40		 inc	 eax
$LN8@Init@2:
  0005d	88 46 08	 mov	 BYTE PTR [esi+8], al

; 79   : 
; 80   : 		for (int i = 0; i < MAX_MEM_POOL ; i++)

  00060	33 db		 xor	 ebx, ebx
$LL3@Init@2:

; 81   : 			m_MemPool[i] = (char)( rand()+pid+tick )%256; // 

  00062	ff d7		 call	 edi
  00064	02 45 f8	 add	 al, BYTE PTR _pid$[ebp]
  00067	02 45 fc	 add	 al, BYTE PTR _tick$[ebp]
  0006a	0f be c0	 movsx	 eax, al
  0006d	25 ff 00 00 80	 and	 eax, -2147483393	; 800000ffH
  00072	79 07		 jns	 SHORT $LN9@Init@2
  00074	48		 dec	 eax
  00075	0d 00 ff ff ff	 or	 eax, -256		; ffffff00H
  0007a	40		 inc	 eax
$LN9@Init@2:
  0007b	88 44 1e 1c	 mov	 BYTE PTR [esi+ebx+28], al
  0007f	43		 inc	 ebx
  00080	83 fb 0c	 cmp	 ebx, 12			; 0000000cH
  00083	7c dd		 jl	 SHORT $LL3@Init@2

; 82   : 
; 83   : 		//UJ 130913, : szKey  
; 84   : 		//char szKey[ccddaabb::KEY_SIZE];//="";
; 85   : 		//for (int i = 0; i < ccddaabb::KEY_SIZE  ; i++)
; 86   : 		//	szKey[i] = (char)( rand()+pid+tick )%256; // 
; 87   : 		m_RC5.Setup( NULL, pid, tick );

  00085	ff 75 fc	 push	 DWORD PTR _tick$[ebp]
  00088	8d 4e 0c	 lea	 ecx, DWORD PTR [esi+12]
  0008b	ff 75 f8	 push	 DWORD PTR _pid$[ebp]
  0008e	6a 00		 push	 0
  00090	e8 00 00 00 00	 call	 ?Setup@ccddaabb@@QAEXPBDHH@Z ; ccddaabb::Setup
  00095	5f		 pop	 edi
  00096	5e		 pop	 esi
  00097	5b		 pop	 ebx

; 88   : 
; 89   : #ifdef _NOTUSE
; 90   : 		m_value        = 0;
; 91   : 		EncryptValueToPool((char*)&m_value);
; 92   : 		Debug();
; 93   : #endif
; 94   : 	}

  00098	c9		 leave
  00099	c3		 ret	 0
?Init@?$CEncrypt@K@@AAEXXZ ENDP				; CEncrypt<unsigned long>::Init
_TEXT	ENDS
PUBLIC	?DecryptValueToPool@?$CEncrypt@K@@QAEXPAK@Z	; CEncrypt<unsigned long>::DecryptValueToPool
; Function compile flags: /Ogsp
;	COMDAT ?DecryptValueToPool@?$CEncrypt@K@@QAEXPAK@Z
_TEXT	SEGMENT
_value$ = 8						; size = 4
?DecryptValueToPool@?$CEncrypt@K@@QAEXPAK@Z PROC	; CEncrypt<unsigned long>::DecryptValueToPool, COMDAT
; _this$ = ecx

; 1256 : 	{

  00000	55		 push	 ebp
  00001	8b ec		 mov	 ebp, esp
  00003	56		 push	 esi

; 1257 : 		m_RC5.DecryptByte( m_MemPool, m_TempMem, 4 );

  00004	8d 71 28	 lea	 esi, DWORD PTR [ecx+40]
  00007	6a 04		 push	 4
  00009	8d 41 1c	 lea	 eax, DWORD PTR [ecx+28]
  0000c	56		 push	 esi
  0000d	50		 push	 eax
  0000e	83 c1 0c	 add	 ecx, 12			; 0000000cH
  00011	e8 00 00 00 00	 call	 ?DecryptByte@ccddaabb@@QBEXPBDPADH@Z ; ccddaabb::DecryptByte

; 1258 : 		*value = *((DWORD*)m_TempMem);

  00016	8b 06		 mov	 eax, DWORD PTR [esi]
  00018	8b 4d 08	 mov	 ecx, DWORD PTR _value$[ebp]
  0001b	89 01		 mov	 DWORD PTR [ecx], eax
  0001d	5e		 pop	 esi

; 1259 : 	}

  0001e	5d		 pop	 ebp
  0001f	c2 04 00	 ret	 4
?DecryptValueToPool@?$CEncrypt@K@@QAEXPAK@Z ENDP	; CEncrypt<unsigned long>::DecryptValueToPool
_TEXT	ENDS
PUBLIC	?EncryptValueToPool@?$CEncrypt@_N@@AAEXPBD@Z	; CEncrypt<bool>::EncryptValueToPool
; Function compile flags: /Ogsp
;	COMDAT ?EncryptValueToPool@?$CEncrypt@_N@@AAEXPBD@Z
_TEXT	SEGMENT
_value$ = 8						; size = 4
?EncryptValueToPool@?$CEncrypt@_N@@AAEXPBD@Z PROC	; CEncrypt<bool>::EncryptValueToPool, COMDAT
; _this$ = ecx

; 67   : 	{

  00000	55		 push	 ebp
  00001	8b ec		 mov	 ebp, esp

; 68   : 		m_RC5.EncryptByte( value, m_MemPool, max(m_ValueSize, DEFAULT_ENCRYPT) );

  00003	0f b7 41 06	 movzx	 eax, WORD PTR [ecx+6]
  00007	83 f8 04	 cmp	 eax, 4
  0000a	77 03		 ja	 SHORT $LN4@EncryptVal@3
  0000c	6a 04		 push	 4
  0000e	58		 pop	 eax
$LN4@EncryptVal@3:
  0000f	50		 push	 eax
  00010	8d 41 1c	 lea	 eax, DWORD PTR [ecx+28]
  00013	50		 push	 eax
  00014	ff 75 08	 push	 DWORD PTR _value$[ebp]
  00017	83 c1 0c	 add	 ecx, 12			; 0000000cH
  0001a	e8 00 00 00 00	 call	 ?EncryptByte@ccddaabb@@QAEXPBDPADH@Z ; ccddaabb::EncryptByte

; 69   : 		
; 70   : 	}

  0001f	5d		 pop	 ebp
  00020	c2 04 00	 ret	 4
?EncryptValueToPool@?$CEncrypt@_N@@AAEXPBD@Z ENDP	; CEncrypt<bool>::EncryptValueToPool
_TEXT	ENDS
PUBLIC	?Init@?$CEncrypt@_N@@AAEXXZ			; CEncrypt<bool>::Init
; Function compile flags: /Ogsp
;	COMDAT ?Init@?$CEncrypt@_N@@AAEXXZ
_TEXT	SEGMENT
_pid$ = -8						; size = 4
_tick$ = -4						; size = 4
?Init@?$CEncrypt@_N@@AAEXXZ PROC			; CEncrypt<bool>::Init, COMDAT
; _this$ = ecx

; 73   : 	{

  00000	55		 push	 ebp
  00001	8b ec		 mov	 ebp, esp
  00003	51		 push	 ecx
  00004	51		 push	 ecx
  00005	53		 push	 ebx
  00006	56		 push	 esi
  00007	57		 push	 edi
  00008	8b f1		 mov	 esi, ecx

; 74   : 		DWORD pid = GetCurrentProcessId();

  0000a	ff 15 00 00 00
	00		 call	 DWORD PTR __imp__GetCurrentProcessId@0
  00010	89 45 f8	 mov	 DWORD PTR _pid$[ebp], eax

; 75   : 		DWORD tick = timeGetTime();

  00013	ff 15 00 00 00
	00		 call	 DWORD PTR __imp__timeGetTime@0

; 76   : 		m_ValueSize    = sizeof(type);
; 77   : 		m_MemPoolPos   = (unsigned short)( rand()+pid+tick )%(MAX_MEM_POOL-m_ValueSize);

  00019	8b 3d 00 00 00
	00		 mov	 edi, DWORD PTR __imp__rand
  0001f	89 45 fc	 mov	 DWORD PTR _tick$[ebp], eax
  00022	33 c0		 xor	 eax, eax
  00024	40		 inc	 eax
  00025	66 89 46 06	 mov	 WORD PTR [esi+6], ax
  00029	ff d7		 call	 edi
  0002b	03 45 f8	 add	 eax, DWORD PTR _pid$[ebp]
  0002e	0f b7 4e 06	 movzx	 ecx, WORD PTR [esi+6]
  00032	03 45 fc	 add	 eax, DWORD PTR _tick$[ebp]
  00035	6a 0c		 push	 12			; 0000000cH
  00037	0f b7 c0	 movzx	 eax, ax
  0003a	5b		 pop	 ebx
  0003b	99		 cdq
  0003c	2b d9		 sub	 ebx, ecx
  0003e	f7 fb		 idiv	 ebx
  00040	66 89 56 04	 mov	 WORD PTR [esi+4], dx

; 78   : 		m_EncryptSeed  = (char)( rand()+pid+tick )%256;

  00044	ff d7		 call	 edi
  00046	02 45 f8	 add	 al, BYTE PTR _pid$[ebp]
  00049	02 45 fc	 add	 al, BYTE PTR _tick$[ebp]
  0004c	0f be c0	 movsx	 eax, al
  0004f	25 ff 00 00 80	 and	 eax, -2147483393	; 800000ffH
  00054	79 07		 jns	 SHORT $LN8@Init@3
  00056	48		 dec	 eax
  00057	0d 00 ff ff ff	 or	 eax, -256		; ffffff00H
  0005c	40		 inc	 eax
$LN8@Init@3:
  0005d	88 46 08	 mov	 BYTE PTR [esi+8], al

; 79   : 
; 80   : 		for (int i = 0; i < MAX_MEM_POOL ; i++)

  00060	33 db		 xor	 ebx, ebx
$LL3@Init@3:

; 81   : 			m_MemPool[i] = (char)( rand()+pid+tick )%256; // 

  00062	ff d7		 call	 edi
  00064	02 45 f8	 add	 al, BYTE PTR _pid$[ebp]
  00067	02 45 fc	 add	 al, BYTE PTR _tick$[ebp]
  0006a	0f be c0	 movsx	 eax, al
  0006d	25 ff 00 00 80	 and	 eax, -2147483393	; 800000ffH
  00072	79 07		 jns	 SHORT $LN9@Init@3
  00074	48		 dec	 eax
  00075	0d 00 ff ff ff	 or	 eax, -256		; ffffff00H
  0007a	40		 inc	 eax
$LN9@Init@3:
  0007b	88 44 1e 1c	 mov	 BYTE PTR [esi+ebx+28], al
  0007f	43		 inc	 ebx
  00080	83 fb 0c	 cmp	 ebx, 12			; 0000000cH
  00083	7c dd		 jl	 SHORT $LL3@Init@3

; 82   : 
; 83   : 		//UJ 130913, : szKey  
; 84   : 		//char szKey[ccddaabb::KEY_SIZE];//="";
; 85   : 		//for (int i = 0; i < ccddaabb::KEY_SIZE  ; i++)
; 86   : 		//	szKey[i] = (char)( rand()+pid+tick )%256; // 
; 87   : 		m_RC5.Setup( NULL, pid, tick );

  00085	ff 75 fc	 push	 DWORD PTR _tick$[ebp]
  00088	8d 4e 0c	 lea	 ecx, DWORD PTR [esi+12]
  0008b	ff 75 f8	 push	 DWORD PTR _pid$[ebp]
  0008e	6a 00		 push	 0
  00090	e8 00 00 00 00	 call	 ?Setup@ccddaabb@@QAEXPBDHH@Z ; ccddaabb::Setup
  00095	5f		 pop	 edi
  00096	5e		 pop	 esi
  00097	5b		 pop	 ebx

; 88   : 
; 89   : #ifdef _NOTUSE
; 90   : 		m_value        = 0;
; 91   : 		EncryptValueToPool((char*)&m_value);
; 92   : 		Debug();
; 93   : #endif
; 94   : 	}

  00098	c9		 leave
  00099	c3		 ret	 0
?Init@?$CEncrypt@_N@@AAEXXZ ENDP			; CEncrypt<bool>::Init
_TEXT	ENDS
PUBLIC	?DecryptValueToPool@?$CEncrypt@_N@@QAEXPA_N@Z	; CEncrypt<bool>::DecryptValueToPool
; Function compile flags: /Ogsp
;	COMDAT ?DecryptValueToPool@?$CEncrypt@_N@@QAEXPA_N@Z
_TEXT	SEGMENT
_value$ = 8						; size = 4
?DecryptValueToPool@?$CEncrypt@_N@@QAEXPA_N@Z PROC	; CEncrypt<bool>::DecryptValueToPool, COMDAT
; _this$ = ecx

; 219  : 	{

  00000	55		 push	 ebp
  00001	8b ec		 mov	 ebp, esp
  00003	56		 push	 esi

; 220  : 		m_RC5.DecryptByte( m_MemPool, m_TempMem, 4 );

  00004	8d 71 28	 lea	 esi, DWORD PTR [ecx+40]
  00007	6a 04		 push	 4
  00009	8d 41 1c	 lea	 eax, DWORD PTR [ecx+28]
  0000c	56		 push	 esi
  0000d	50		 push	 eax
  0000e	83 c1 0c	 add	 ecx, 12			; 0000000cH
  00011	e8 00 00 00 00	 call	 ?DecryptByte@ccddaabb@@QBEXPBDPADH@Z ; ccddaabb::DecryptByte

; 221  : 		*value = *((bool*)m_TempMem);

  00016	8a 06		 mov	 al, BYTE PTR [esi]
  00018	8b 4d 08	 mov	 ecx, DWORD PTR _value$[ebp]
  0001b	88 01		 mov	 BYTE PTR [ecx], al
  0001d	5e		 pop	 esi

; 222  : 	}

  0001e	5d		 pop	 ebp
  0001f	c2 04 00	 ret	 4
?DecryptValueToPool@?$CEncrypt@_N@@QAEXPA_N@Z ENDP	; CEncrypt<bool>::DecryptValueToPool
_TEXT	ENDS
PUBLIC	?DecryptValueToPool@?$CEncrypt@W4TeamType@@@@QAEXPAW4TeamType@@@Z ; CEncrypt<enum TeamType>::DecryptValueToPool
; Function compile flags: /Ogsp
;	COMDAT ?DecryptValueToPool@?$CEncrypt@W4TeamType@@@@QAEXPAW4TeamType@@@Z
_TEXT	SEGMENT
_value$ = 8						; size = 4
?DecryptValueToPool@?$CEncrypt@W4TeamType@@@@QAEXPAW4TeamType@@@Z PROC ; CEncrypt<enum TeamType>::DecryptValueToPool, COMDAT
; _this$ = ecx

; 2959 : 	{

  00000	55		 push	 ebp
  00001	8b ec		 mov	 ebp, esp
  00003	56		 push	 esi

; 2960 : 		m_RC5.DecryptByte( m_MemPool, m_TempMem, sizeof(TeamType) );

  00004	8d 71 28	 lea	 esi, DWORD PTR [ecx+40]
  00007	6a 04		 push	 4
  00009	8d 41 1c	 lea	 eax, DWORD PTR [ecx+28]
  0000c	56		 push	 esi
  0000d	50		 push	 eax
  0000e	83 c1 0c	 add	 ecx, 12			; 0000000cH
  00011	e8 00 00 00 00	 call	 ?DecryptByte@ccddaabb@@QBEXPBDPADH@Z ; ccddaabb::DecryptByte

; 2961 : 		*value = *((TeamType*)m_TempMem);

  00016	8b 06		 mov	 eax, DWORD PTR [esi]
  00018	8b 4d 08	 mov	 ecx, DWORD PTR _value$[ebp]
  0001b	89 01		 mov	 DWORD PTR [ecx], eax
  0001d	5e		 pop	 esi

; 2962 : 	}

  0001e	5d		 pop	 ebp
  0001f	c2 04 00	 ret	 4
?DecryptValueToPool@?$CEncrypt@W4TeamType@@@@QAEXPAW4TeamType@@@Z ENDP ; CEncrypt<enum TeamType>::DecryptValueToPool
_TEXT	ENDS
PUBLIC	?DecryptValueToPool@?$CEncrypt@W4ModeType@@@@QAEXPAW4ModeType@@@Z ; CEncrypt<enum ModeType>::DecryptValueToPool
; Function compile flags: /Ogsp
;	COMDAT ?DecryptValueToPool@?$CEncrypt@W4ModeType@@@@QAEXPAW4ModeType@@@Z
_TEXT	SEGMENT
_value$ = 8						; size = 4
?DecryptValueToPool@?$CEncrypt@W4ModeType@@@@QAEXPAW4ModeType@@@Z PROC ; CEncrypt<enum ModeType>::DecryptValueToPool, COMDAT
; _this$ = ecx

; 3039 : 	{

  00000	55		 push	 ebp
  00001	8b ec		 mov	 ebp, esp
  00003	56		 push	 esi

; 3040 : 		m_RC5.DecryptByte( m_MemPool, m_TempMem, sizeof(ModeType) );

  00004	8d 71 28	 lea	 esi, DWORD PTR [ecx+40]
  00007	6a 04		 push	 4
  00009	8d 41 1c	 lea	 eax, DWORD PTR [ecx+28]
  0000c	56		 push	 esi
  0000d	50		 push	 eax
  0000e	83 c1 0c	 add	 ecx, 12			; 0000000cH
  00011	e8 00 00 00 00	 call	 ?DecryptByte@ccddaabb@@QBEXPBDPADH@Z ; ccddaabb::DecryptByte

; 3041 : 		*value = *((ModeType*)m_TempMem);

  00016	8b 06		 mov	 eax, DWORD PTR [esi]
  00018	8b 4d 08	 mov	 ecx, DWORD PTR _value$[ebp]
  0001b	89 01		 mov	 DWORD PTR [ecx], eax
  0001d	5e		 pop	 esi

; 3042 : 	}

  0001e	5d		 pop	 ebp
  0001f	c2 04 00	 ret	 4
?DecryptValueToPool@?$CEncrypt@W4ModeType@@@@QAEXPAW4ModeType@@@Z ENDP ; CEncrypt<enum ModeType>::DecryptValueToPool
_TEXT	ENDS
PUBLIC	??_7ioMagneticBuff@@6B@				; ioMagneticBuff::`vftable'
PUBLIC	??1ioMagneticBuff@@UAE@XZ			; ioMagneticBuff::~ioMagneticBuff
PUBLIC	??_R4ioMagneticBuff@@6B@			; ioMagneticBuff::`RTTI Complete Object Locator'
PUBLIC	??_R0?AVioMagneticBuff@@@8			; ioMagneticBuff `RTTI Type Descriptor'
PUBLIC	??_R3ioMagneticBuff@@8				; ioMagneticBuff::`RTTI Class Hierarchy Descriptor'
PUBLIC	??_R2ioMagneticBuff@@8				; ioMagneticBuff::`RTTI Base Class Array'
PUBLIC	??_R1A@?0A@EA@ioMagneticBuff@@8			; ioMagneticBuff::`RTTI Base Class Descriptor at (0,-1,0,64)'
PUBLIC	??_R1A@?0A@EA@ioBuff@@8				; ioBuff::`RTTI Base Class Descriptor at (0,-1,0,64)'
PUBLIC	??_R0?AVioBuff@@@8				; ioBuff `RTTI Type Descriptor'
PUBLIC	??_R3ioBuff@@8					; ioBuff::`RTTI Class Hierarchy Descriptor'
PUBLIC	??_R2ioBuff@@8					; ioBuff::`RTTI Base Class Array'
PUBLIC	?LoadProperty@ioMagneticBuff@@UAEXAAVioINILoader@@@Z ; ioMagneticBuff::LoadProperty
PUBLIC	?Clone@ioMagneticBuff@@UAEPAVioBuff@@XZ		; ioMagneticBuff::Clone
PUBLIC	?ProcessBuff@ioMagneticBuff@@UAEXM@Z		; ioMagneticBuff::ProcessBuff
PUBLIC	?IsWaitSelfRemove@ioBuff@@UAE_NXZ		; ioBuff::IsWaitSelfRemove
EXTRN	??1ioBuff@@UAE@XZ:PROC				; ioBuff::~ioBuff
EXTRN	__imp_??1ioHashString@@QAE@XZ:PROC
EXTRN	__EH_epilog3:PROC
EXTRN	__EH_prolog3:PROC
EXTRN	?StartBuffWithAniTime@ioBuff@@UAEXPAVioBaseChar@@K@Z:PROC ; ioBuff::StartBuffWithAniTime
EXTRN	?CancelBuff@ioBuff@@UAEXXZ:PROC			; ioBuff::CancelBuff
EXTRN	?AccumulateBuff@ioBuff@@UAEXXZ:PROC		; ioBuff::AccumulateBuff
EXTRN	?IsLiveButStopped@ioBuff@@UBE_NXZ:PROC		; ioBuff::IsLiveButStopped
EXTRN	?IsCanJumpAttack@ioBuff@@UBE_NXZ:PROC		; ioBuff::IsCanJumpAttack
EXTRN	?SetAction@ioBuff@@MAEXXZ:PROC			; ioBuff::SetAction
EXTRN	?ProcessDelay@ioBuff@@MAEXM@Z:PROC		; ioBuff::ProcessDelay
EXTRN	?SetExtraDurationByGrowth@ioBuff@@UAEXM@Z:PROC	; ioBuff::SetExtraDurationByGrowth
EXTRN	?SetWeaponIndex@ioBuff@@UAEXK@Z:PROC		; ioBuff::SetWeaponIndex
EXTRN	?OnReduceGauge@ioBuff@@UBE_NXZ:PROC		; ioBuff::OnReduceGauge
EXTRN	?IsCharCollisionSkip@ioBuff@@UBE_NXZ:PROC	; ioBuff::IsCharCollisionSkip
EXTRN	?IsCollisionAvailableWeapon@ioBuff@@UBE_NXZ:PROC ; ioBuff::IsCollisionAvailableWeapon
EXTRN	?IsProtected@ioBuff@@UBE_NXZ:PROC		; ioBuff::IsProtected
EXTRN	?UseActiveCount@ioBuff@@UBE_NXZ:PROC		; ioBuff::UseActiveCount
EXTRN	?CheckActiveCount@ioBuff@@UAEXXZ:PROC		; ioBuff::CheckActiveCount
EXTRN	?CheckRemoveEquipSkillBuff@ioBuff@@UAEX_N@Z:PROC ; ioBuff::CheckRemoveEquipSkillBuff
EXTRN	?ApplyExtraBuffInfo@ioBuff@@UAEXAAVSP2Packet@@@Z:PROC ; ioBuff::ApplyExtraBuffInfo
EXTRN	?SetBuffGrapplingState@ioBuff@@UAE_NPAVioBaseChar@@ABVioHashString@@@Z:PROC ; ioBuff::SetBuffGrapplingState
EXTRN	?GetGrapplingTargetPos@ioBuff@@UAE?AUD3DXVECTOR3@@PAVioBaseChar@@@Z:PROC ; ioBuff::GetGrapplingTargetPos
EXTRN	??_EioMagneticBuff@@UAEPAXI@Z:PROC		; ioMagneticBuff::`vector deleting destructor'
;	COMDAT ??_R2ioBuff@@8
rdata$r	SEGMENT
??_R2ioBuff@@8 DD FLAT:??_R1A@?0A@EA@ioBuff@@8		; ioBuff::`RTTI Base Class Array'
rdata$r	ENDS
;	COMDAT ??_R3ioBuff@@8
rdata$r	SEGMENT
??_R3ioBuff@@8 DD 00H					; ioBuff::`RTTI Class Hierarchy Descriptor'
	DD	00H
	DD	01H
	DD	FLAT:??_R2ioBuff@@8
rdata$r	ENDS
;	COMDAT ??_R0?AVioBuff@@@8
_DATA	SEGMENT
??_R0?AVioBuff@@@8 DD FLAT:??_7type_info@@6B@		; ioBuff `RTTI Type Descriptor'
	DD	00H
	DB	'.?AVioBuff@@', 00H
_DATA	ENDS
;	COMDAT ??_R1A@?0A@EA@ioBuff@@8
rdata$r	SEGMENT
??_R1A@?0A@EA@ioBuff@@8 DD FLAT:??_R0?AVioBuff@@@8	; ioBuff::`RTTI Base Class Descriptor at (0,-1,0,64)'
	DD	00H
	DD	00H
	DD	0ffffffffH
	DD	00H
	DD	040H
	DD	FLAT:??_R3ioBuff@@8
rdata$r	ENDS
;	COMDAT ??_R1A@?0A@EA@ioMagneticBuff@@8
rdata$r	SEGMENT
??_R1A@?0A@EA@ioMagneticBuff@@8 DD FLAT:??_R0?AVioMagneticBuff@@@8 ; ioMagneticBuff::`RTTI Base Class Descriptor at (0,-1,0,64)'
	DD	01H
	DD	00H
	DD	0ffffffffH
	DD	00H
	DD	040H
	DD	FLAT:??_R3ioMagneticBuff@@8
rdata$r	ENDS
;	COMDAT ??_R2ioMagneticBuff@@8
rdata$r	SEGMENT
??_R2ioMagneticBuff@@8 DD FLAT:??_R1A@?0A@EA@ioMagneticBuff@@8 ; ioMagneticBuff::`RTTI Base Class Array'
	DD	FLAT:??_R1A@?0A@EA@ioBuff@@8
rdata$r	ENDS
;	COMDAT ??_R3ioMagneticBuff@@8
rdata$r	SEGMENT
??_R3ioMagneticBuff@@8 DD 00H				; ioMagneticBuff::`RTTI Class Hierarchy Descriptor'
	DD	00H
	DD	02H
	DD	FLAT:??_R2ioMagneticBuff@@8
rdata$r	ENDS
;	COMDAT ??_R0?AVioMagneticBuff@@@8
_DATA	SEGMENT
??_R0?AVioMagneticBuff@@@8 DD FLAT:??_7type_info@@6B@	; ioMagneticBuff `RTTI Type Descriptor'
	DD	00H
	DB	'.?AVioMagneticBuff@@', 00H
_DATA	ENDS
;	COMDAT ??_R4ioMagneticBuff@@6B@
rdata$r	SEGMENT
??_R4ioMagneticBuff@@6B@ DD 00H				; ioMagneticBuff::`RTTI Complete Object Locator'
	DD	00H
	DD	00H
	DD	FLAT:??_R0?AVioMagneticBuff@@@8
	DD	FLAT:??_R3ioMagneticBuff@@8
rdata$r	ENDS
;	COMDAT ??_7ioMagneticBuff@@6B@
CONST	SEGMENT
??_7ioMagneticBuff@@6B@ DD FLAT:??_R4ioMagneticBuff@@6B@ ; ioMagneticBuff::`vftable'
	DD	FLAT:?LoadProperty@ioMagneticBuff@@UAEXAAVioINILoader@@@Z
	DD	FLAT:?Clone@ioMagneticBuff@@UAEPAVioBuff@@XZ
	DD	FLAT:?StartBuff@ioMagneticBuff@@UAEXPAVioBaseChar@@@Z
	DD	FLAT:?StartBuffWithAniTime@ioBuff@@UAEXPAVioBaseChar@@K@Z
	DD	FLAT:?ApplyStartBuff@ioMagneticBuff@@UAE_NPAVioBaseChar@@KK@Z
	DD	FLAT:?ProcessBuff@ioMagneticBuff@@UAEXM@Z
	DD	FLAT:?EndBuff@ioMagneticBuff@@UAEXXZ
	DD	FLAT:?CancelBuff@ioBuff@@UAEXXZ
	DD	FLAT:?GetBuffInfo@ioMagneticBuff@@UAEXAAVSP2Packet@@@Z
	DD	FLAT:?ApplyBuffInfo@ioMagneticBuff@@UAEXAAVSP2Packet@@@Z
	DD	FLAT:?AccumulateBuff@ioBuff@@UAEXXZ
	DD	FLAT:?IsLiveButStopped@ioBuff@@UBE_NXZ
	DD	FLAT:?IsCanJumpAttack@ioBuff@@UBE_NXZ
	DD	FLAT:?SetAction@ioBuff@@MAEXXZ
	DD	FLAT:?ProcessDelay@ioBuff@@MAEXM@Z
	DD	FLAT:?SetExtraDurationByGrowth@ioBuff@@UAEXM@Z
	DD	FLAT:?SetWeaponIndex@ioBuff@@UAEXK@Z
	DD	FLAT:?OnReduceGauge@ioBuff@@UBE_NXZ
	DD	FLAT:?IsCharCollisionSkip@ioBuff@@UBE_NXZ
	DD	FLAT:?IsCollisionAvailableWeapon@ioBuff@@UBE_NXZ
	DD	FLAT:?IsProtected@ioBuff@@UBE_NXZ
	DD	FLAT:?UseActiveCount@ioBuff@@UBE_NXZ
	DD	FLAT:?CheckActiveCount@ioBuff@@UAEXXZ
	DD	FLAT:?CheckRemoveEquipSkillBuff@ioBuff@@UAEX_N@Z
	DD	FLAT:?ApplyExtraBuffInfo@ioBuff@@UAEXAAVSP2Packet@@@Z
	DD	FLAT:?SetBuffGrapplingState@ioBuff@@UAE_NPAVioBaseChar@@ABVioHashString@@@Z
	DD	FLAT:?GetGrapplingTargetPos@ioBuff@@UAE?AUD3DXVECTOR3@@PAVioBaseChar@@@Z
	DD	FLAT:?IsWaitSelfRemove@ioBuff@@UAE_NXZ
	DD	FLAT:??_EioMagneticBuff@@UAEPAXI@Z
CONST	ENDS
;	COMDAT xdata$x
xdata$x	SEGMENT
__ehfuncinfo$??1ioMagneticBuff@@UAE@XZ DD 019930522H
	DD	0fH
	DD	FLAT:__unwindtable$??1ioMagneticBuff@@UAE@XZ
	DD	2 DUP(00H)
	DD	2 DUP(00H)
	DD	00H
	DD	01H
__unwindtable$??1ioMagneticBuff@@UAE@XZ DD 0ffffffffH
	DD	FLAT:__unwindfunclet$??1ioMagneticBuff@@UAE@XZ$0
	DD	00H
	DD	FLAT:__unwindfunclet$??1ioMagneticBuff@@UAE@XZ$1
	DD	01H
	DD	FLAT:__unwindfunclet$??1ioMagneticBuff@@UAE@XZ$2
	DD	02H
	DD	FLAT:__unwindfunclet$??1ioMagneticBuff@@UAE@XZ$3
	DD	03H
	DD	FLAT:__unwindfunclet$??1ioMagneticBuff@@UAE@XZ$4
	DD	04H
	DD	FLAT:__unwindfunclet$??1ioMagneticBuff@@UAE@XZ$5
	DD	05H
	DD	FLAT:__unwindfunclet$??1ioMagneticBuff@@UAE@XZ$6
	DD	06H
	DD	FLAT:__unwindfunclet$??1ioMagneticBuff@@UAE@XZ$7
	DD	07H
	DD	FLAT:__unwindfunclet$??1ioMagneticBuff@@UAE@XZ$8
	DD	08H
	DD	FLAT:__unwindfunclet$??1ioMagneticBuff@@UAE@XZ$9
	DD	09H
	DD	FLAT:__unwindfunclet$??1ioMagneticBuff@@UAE@XZ$10
	DD	0aH
	DD	FLAT:__unwindfunclet$??1ioMagneticBuff@@UAE@XZ$11
	DD	0bH
	DD	FLAT:__unwindfunclet$??1ioMagneticBuff@@UAE@XZ$12
	DD	0cH
	DD	FLAT:__unwindfunclet$??1ioMagneticBuff@@UAE@XZ$13
	DD	0dH
	DD	FLAT:__unwindfunclet$??1ioMagneticBuff@@UAE@XZ$14
; Function compile flags: /Ogsp
; File d:\lost saga for developer\youtube\tutorial\source\src\lsclient\iomagneticbuff.cpp
xdata$x	ENDS
;	COMDAT ??1ioMagneticBuff@@UAE@XZ
_TEXT	SEGMENT
_this$ = -16						; size = 4
__$EHRec$ = -12						; size = 12
??1ioMagneticBuff@@UAE@XZ PROC				; ioMagneticBuff::~ioMagneticBuff, COMDAT
; _this$ = ecx

; 40   : {

  00000	6a 04		 push	 4
  00002	b8 00 00 00 00	 mov	 eax, __ehhandler$??1ioMagneticBuff@@UAE@XZ
  00007	e8 00 00 00 00	 call	 __EH_prolog3
  0000c	8b f1		 mov	 esi, ecx
  0000e	89 75 f0	 mov	 DWORD PTR _this$[ebp], esi
  00011	c7 06 00 00 00
	00		 mov	 DWORD PTR [esi], OFFSET ??_7ioMagneticBuff@@6B@

; 41   : }

  00017	8b 3d 00 00 00
	00		 mov	 edi, DWORD PTR __imp_??1ioHashString@@QAE@XZ
  0001d	8d 8e 7c 0b 00
	00		 lea	 ecx, DWORD PTR [esi+2940]
  00023	c7 45 fc 0e 00
	00 00		 mov	 DWORD PTR __$EHRec$[ebp+8], 14 ; 0000000eH
  0002a	ff d7		 call	 edi
  0002c	8d 8e 6c 0b 00
	00		 lea	 ecx, DWORD PTR [esi+2924]
  00032	c6 45 fc 0d	 mov	 BYTE PTR __$EHRec$[ebp+8], 13 ; 0000000dH
  00036	ff d7		 call	 edi
  00038	8d 8e 5c 0b 00
	00		 lea	 ecx, DWORD PTR [esi+2908]
  0003e	c6 45 fc 0c	 mov	 BYTE PTR __$EHRec$[ebp+8], 12 ; 0000000cH
  00042	ff d7		 call	 edi
  00044	8d 8e 38 0b 00
	00		 lea	 ecx, DWORD PTR [esi+2872]
  0004a	c6 45 fc 0b	 mov	 BYTE PTR __$EHRec$[ebp+8], 11 ; 0000000bH
  0004e	c7 86 2c 0b 00
	00 00 00 00 00	 mov	 DWORD PTR [esi+2860], OFFSET ??_7?$CEncrypt@K@@6B@
  00058	e8 00 00 00 00	 call	 ??1ccddaabb@@UAE@XZ	; ccddaabb::~ccddaabb
  0005d	bb 00 00 00 00	 mov	 ebx, OFFSET ??_7?$CEncrypt@M@@6B@
  00062	8d 8e 08 0b 00
	00		 lea	 ecx, DWORD PTR [esi+2824]
  00068	c6 45 fc 0a	 mov	 BYTE PTR __$EHRec$[ebp+8], 10 ; 0000000aH
  0006c	89 9e fc 0a 00
	00		 mov	 DWORD PTR [esi+2812], ebx
  00072	e8 00 00 00 00	 call	 ??1ccddaabb@@UAE@XZ	; ccddaabb::~ccddaabb
  00077	8d 8e ec 0a 00
	00		 lea	 ecx, DWORD PTR [esi+2796]
  0007d	c6 45 fc 09	 mov	 BYTE PTR __$EHRec$[ebp+8], 9
  00081	ff d7		 call	 edi
  00083	8d 8e dc 0a 00
	00		 lea	 ecx, DWORD PTR [esi+2780]
  00089	c6 45 fc 08	 mov	 BYTE PTR __$EHRec$[ebp+8], 8
  0008d	ff d7		 call	 edi
  0008f	8d 8e b8 0a 00
	00		 lea	 ecx, DWORD PTR [esi+2744]
  00095	c6 45 fc 07	 mov	 BYTE PTR __$EHRec$[ebp+8], 7
  00099	c7 86 ac 0a 00
	00 00 00 00 00	 mov	 DWORD PTR [esi+2732], OFFSET ??_7?$CEncrypt@K@@6B@
  000a3	e8 00 00 00 00	 call	 ??1ccddaabb@@UAE@XZ	; ccddaabb::~ccddaabb
  000a8	8d 8e 88 0a 00
	00		 lea	 ecx, DWORD PTR [esi+2696]
  000ae	c6 45 fc 06	 mov	 BYTE PTR __$EHRec$[ebp+8], 6
  000b2	89 9e 7c 0a 00
	00		 mov	 DWORD PTR [esi+2684], ebx
  000b8	e8 00 00 00 00	 call	 ??1ccddaabb@@UAE@XZ	; ccddaabb::~ccddaabb
  000bd	8d 8e 6c 0a 00
	00		 lea	 ecx, DWORD PTR [esi+2668]
  000c3	c6 45 fc 05	 mov	 BYTE PTR __$EHRec$[ebp+8], 5
  000c7	ff d7		 call	 edi
  000c9	8d 8e 48 0a 00
	00		 lea	 ecx, DWORD PTR [esi+2632]
  000cf	c6 45 fc 04	 mov	 BYTE PTR __$EHRec$[ebp+8], 4
  000d3	89 9e 3c 0a 00
	00		 mov	 DWORD PTR [esi+2620], ebx
  000d9	e8 00 00 00 00	 call	 ??1ccddaabb@@UAE@XZ	; ccddaabb::~ccddaabb
  000de	8d 8e 18 0a 00
	00		 lea	 ecx, DWORD PTR [esi+2584]
  000e4	c6 45 fc 03	 mov	 BYTE PTR __$EHRec$[ebp+8], 3
  000e8	c7 86 0c 0a 00
	00 00 00 00 00	 mov	 DWORD PTR [esi+2572], OFFSET ??_7?$CEncrypt@K@@6B@
  000f2	e8 00 00 00 00	 call	 ??1ccddaabb@@UAE@XZ	; ccddaabb::~ccddaabb
  000f7	8d 8e e0 09 00
	00		 lea	 ecx, DWORD PTR [esi+2528]
  000fd	c6 45 fc 02	 mov	 BYTE PTR __$EHRec$[ebp+8], 2
  00101	89 9e d4 09 00
	00		 mov	 DWORD PTR [esi+2516], ebx
  00107	e8 00 00 00 00	 call	 ??1ccddaabb@@UAE@XZ	; ccddaabb::~ccddaabb
  0010c	8d 8e b0 09 00
	00		 lea	 ecx, DWORD PTR [esi+2480]
  00112	c6 45 fc 01	 mov	 BYTE PTR __$EHRec$[ebp+8], 1
  00116	c7 86 a4 09 00
	00 00 00 00 00	 mov	 DWORD PTR [esi+2468], OFFSET ??_7?$CEncrypt@_N@@6B@
  00120	e8 00 00 00 00	 call	 ??1ccddaabb@@UAE@XZ	; ccddaabb::~ccddaabb
  00125	8d 8e 80 09 00
	00		 lea	 ecx, DWORD PTR [esi+2432]
  0012b	c6 45 fc 00	 mov	 BYTE PTR __$EHRec$[ebp+8], 0
  0012f	89 9e 74 09 00
	00		 mov	 DWORD PTR [esi+2420], ebx
  00135	e8 00 00 00 00	 call	 ??1ccddaabb@@UAE@XZ	; ccddaabb::~ccddaabb
  0013a	83 4d fc ff	 or	 DWORD PTR __$EHRec$[ebp+8], -1
  0013e	8b ce		 mov	 ecx, esi
  00140	e8 00 00 00 00	 call	 ??1ioBuff@@UAE@XZ	; ioBuff::~ioBuff
  00145	e8 00 00 00 00	 call	 __EH_epilog3
  0014a	c3		 ret	 0
_TEXT	ENDS
;	COMDAT text$x
text$x	SEGMENT
__unwindfunclet$??1ioMagneticBuff@@UAE@XZ$0:
  00000	8b 4d f0	 mov	 ecx, DWORD PTR _this$[ebp]
  00003	e9 00 00 00 00	 jmp	 ??1ioBuff@@UAE@XZ	; ioBuff::~ioBuff
__unwindfunclet$??1ioMagneticBuff@@UAE@XZ$1:
  00008	8b 4d f0	 mov	 ecx, DWORD PTR _this$[ebp]
  0000b	81 c1 74 09 00
	00		 add	 ecx, 2420		; 00000974H
  00011	e9 00 00 00 00	 jmp	 ??1?$CEncrypt@M@@UAE@XZ	; CEncrypt<float>::~CEncrypt<float>
__unwindfunclet$??1ioMagneticBuff@@UAE@XZ$2:
  00016	8b 4d f0	 mov	 ecx, DWORD PTR _this$[ebp]
  00019	81 c1 a4 09 00
	00		 add	 ecx, 2468		; 000009a4H
  0001f	e9 00 00 00 00	 jmp	 ??1?$CEncrypt@_N@@UAE@XZ ; CEncrypt<bool>::~CEncrypt<bool>
__unwindfunclet$??1ioMagneticBuff@@UAE@XZ$3:
  00024	8b 4d f0	 mov	 ecx, DWORD PTR _this$[ebp]
  00027	81 c1 d4 09 00
	00		 add	 ecx, 2516		; 000009d4H
  0002d	e9 00 00 00 00	 jmp	 ??1?$CEncrypt@M@@UAE@XZ	; CEncrypt<float>::~CEncrypt<float>
__unwindfunclet$??1ioMagneticBuff@@UAE@XZ$4:
  00032	8b 4d f0	 mov	 ecx, DWORD PTR _this$[ebp]
  00035	81 c1 0c 0a 00
	00		 add	 ecx, 2572		; 00000a0cH
  0003b	e9 00 00 00 00	 jmp	 ??1?$CEncrypt@K@@UAE@XZ	; CEncrypt<unsigned long>::~CEncrypt<unsigned long>
__unwindfunclet$??1ioMagneticBuff@@UAE@XZ$5:
  00040	8b 4d f0	 mov	 ecx, DWORD PTR _this$[ebp]
  00043	81 c1 3c 0a 00
	00		 add	 ecx, 2620		; 00000a3cH
  00049	e9 00 00 00 00	 jmp	 ??1?$CEncrypt@M@@UAE@XZ	; CEncrypt<float>::~CEncrypt<float>
__unwindfunclet$??1ioMagneticBuff@@UAE@XZ$6:
  0004e	8b 4d f0	 mov	 ecx, DWORD PTR _this$[ebp]
  00051	81 c1 6c 0a 00
	00		 add	 ecx, 2668		; 00000a6cH
  00057	ff 25 00 00 00
	00		 jmp	 DWORD PTR __imp_??1ioHashString@@QAE@XZ
__unwindfunclet$??1ioMagneticBuff@@UAE@XZ$7:
  0005d	8b 4d f0	 mov	 ecx, DWORD PTR _this$[ebp]
  00060	81 c1 7c 0a 00
	00		 add	 ecx, 2684		; 00000a7cH
  00066	e9 00 00 00 00	 jmp	 ??1?$CEncrypt@M@@UAE@XZ	; CEncrypt<float>::~CEncrypt<float>
__unwindfunclet$??1ioMagneticBuff@@UAE@XZ$8:
  0006b	8b 4d f0	 mov	 ecx, DWORD PTR _this$[ebp]
  0006e	81 c1 ac 0a 00
	00		 add	 ecx, 2732		; 00000aacH
  00074	e9 00 00 00 00	 jmp	 ??1?$CEncrypt@K@@UAE@XZ	; CEncrypt<unsigned long>::~CEncrypt<unsigned long>
__unwindfunclet$??1ioMagneticBuff@@UAE@XZ$9:
  00079	8b 4d f0	 mov	 ecx, DWORD PTR _this$[ebp]
  0007c	81 c1 dc 0a 00
	00		 add	 ecx, 2780		; 00000adcH
  00082	ff 25 00 00 00
	00		 jmp	 DWORD PTR __imp_??1ioHashString@@QAE@XZ
__unwindfunclet$??1ioMagneticBuff@@UAE@XZ$10:
  00088	8b 4d f0	 mov	 ecx, DWORD PTR _this$[ebp]
  0008b	81 c1 ec 0a 00
	00		 add	 ecx, 2796		; 00000aecH
  00091	ff 25 00 00 00
	00		 jmp	 DWORD PTR __imp_??1ioHashString@@QAE@XZ
__unwindfunclet$??1ioMagneticBuff@@UAE@XZ$11:
  00097	8b 4d f0	 mov	 ecx, DWORD PTR _this$[ebp]
  0009a	81 c1 fc 0a 00
	00		 add	 ecx, 2812		; 00000afcH
  000a0	e9 00 00 00 00	 jmp	 ??1?$CEncrypt@M@@UAE@XZ	; CEncrypt<float>::~CEncrypt<float>
__unwindfunclet$??1ioMagneticBuff@@UAE@XZ$12:
  000a5	8b 4d f0	 mov	 ecx, DWORD PTR _this$[ebp]
  000a8	81 c1 2c 0b 00
	00		 add	 ecx, 2860		; 00000b2cH
  000ae	e9 00 00 00 00	 jmp	 ??1?$CEncrypt@K@@UAE@XZ	; CEncrypt<unsigned long>::~CEncrypt<unsigned long>
__unwindfunclet$??1ioMagneticBuff@@UAE@XZ$13:
  000b3	8b 4d f0	 mov	 ecx, DWORD PTR _this$[ebp]
  000b6	81 c1 5c 0b 00
	00		 add	 ecx, 2908		; 00000b5cH
  000bc	ff 25 00 00 00
	00		 jmp	 DWORD PTR __imp_??1ioHashString@@QAE@XZ
__unwindfunclet$??1ioMagneticBuff@@UAE@XZ$14:
  000c2	8b 4d f0	 mov	 ecx, DWORD PTR _this$[ebp]
  000c5	81 c1 6c 0b 00
	00		 add	 ecx, 2924		; 00000b6cH
  000cb	ff 25 00 00 00
	00		 jmp	 DWORD PTR __imp_??1ioHashString@@QAE@XZ
__ehhandler$??1ioMagneticBuff@@UAE@XZ:
  000d1	8b 54 24 08	 mov	 edx, DWORD PTR [esp+8]
  000d5	8d 42 0c	 lea	 eax, DWORD PTR [edx+12]
  000d8	8b 4a ec	 mov	 ecx, DWORD PTR [edx-20]
  000db	33 c8		 xor	 ecx, eax
  000dd	e8 00 00 00 00	 call	 @__security_check_cookie@4
  000e2	b8 00 00 00 00	 mov	 eax, OFFSET __ehfuncinfo$??1ioMagneticBuff@@UAE@XZ
  000e7	e9 00 00 00 00	 jmp	 ___CxxFrameHandler3
text$x	ENDS
??1ioMagneticBuff@@UAE@XZ ENDP				; ioMagneticBuff::~ioMagneticBuff
; Function compile flags: /Ogsp
; File d:\lost saga for developer\youtube\tutorial\source\src\lsclient\iobuff.h
;	COMDAT ?IsWaitSelfRemove@ioBuff@@UAE_NXZ
_TEXT	SEGMENT
?IsWaitSelfRemove@ioBuff@@UAE_NXZ PROC			; ioBuff::IsWaitSelfRemove, COMDAT
; _this$ = ecx

; 519  : 	virtual bool IsWaitSelfRemove() { return m_bWaitSelfRemove; }

  00000	8a 81 65 09 00
	00		 mov	 al, BYTE PTR [ecx+2405]
  00006	c3		 ret	 0
?IsWaitSelfRemove@ioBuff@@UAE_NXZ ENDP			; ioBuff::IsWaitSelfRemove
_TEXT	ENDS
PUBLIC	??N?$CEncrypt@K@@QAE_NABK@Z			; CEncrypt<unsigned long>::operator<=
; Function compile flags: /Ogsp
; File d:\lost saga for developer\youtube\tutorial\source\src\lsclient\encryptvalue.h
;	COMDAT ??N?$CEncrypt@K@@QAE_NABK@Z
_TEXT	SEGMENT
_value$ = -4						; size = 4
_inValue$ = 8						; size = 4
??N?$CEncrypt@K@@QAE_NABK@Z PROC			; CEncrypt<unsigned long>::operator<=, COMDAT
; _this$ = ecx

; 1431 : 	{

  00000	55		 push	 ebp
  00001	8b ec		 mov	 ebp, esp
  00003	51		 push	 ecx

; 1432 : 		
; 1433 : 		type value;
; 1434 : 		DecryptValueToPool(&value);

  00004	8d 45 fc	 lea	 eax, DWORD PTR _value$[ebp]
  00007	50		 push	 eax
  00008	e8 00 00 00 00	 call	 ?DecryptValueToPool@?$CEncrypt@K@@QAEXPAK@Z ; CEncrypt<unsigned long>::DecryptValueToPool

; 1435 : #ifdef _NOTUSE
; 1436 : 		Debug();
; 1437 : #endif
; 1438 : 		return (value <= inValue);

  0000d	8b 45 08	 mov	 eax, DWORD PTR _inValue$[ebp]
  00010	8b 00		 mov	 eax, DWORD PTR [eax]
  00012	3b 45 fc	 cmp	 eax, DWORD PTR _value$[ebp]
  00015	1b c0		 sbb	 eax, eax
  00017	40		 inc	 eax

; 1439 : 	}		

  00018	c9		 leave
  00019	c2 04 00	 ret	 4
??N?$CEncrypt@K@@QAE_NABK@Z ENDP			; CEncrypt<unsigned long>::operator<=
_TEXT	ENDS
PUBLIC	?begin@?$vector@PAVioBaseChar@@V?$allocator@PAVioBaseChar@@@std@@@std@@QBE?AV?$_Vector_const_iterator@V?$_Vector_val@PAVioBaseChar@@V?$allocator@PAVioBaseChar@@@std@@@std@@@2@XZ ; std::vector<ioBaseChar *,std::allocator<ioBaseChar *> >::begin
; Function compile flags: /Ogsp
; File c:\program files (x86)\microsoft visual studio 10.0\vc\include\vector
;	COMDAT ?begin@?$vector@PAVioBaseChar@@V?$allocator@PAVioBaseChar@@@std@@@std@@QBE?AV?$_Vector_const_iterator@V?$_Vector_val@PAVioBaseChar@@V?$allocator@PAVioBaseChar@@@std@@@std@@@2@XZ
_TEXT	SEGMENT
___$ReturnUdt$ = 8					; size = 4
?begin@?$vector@PAVioBaseChar@@V?$allocator@PAVioBaseChar@@@std@@@std@@QBE?AV?$_Vector_const_iterator@V?$_Vector_val@PAVioBaseChar@@V?$allocator@PAVioBaseChar@@@std@@@std@@@2@XZ PROC ; std::vector<ioBaseChar *,std::allocator<ioBaseChar *> >::begin, COMDAT
; _this$ = ecx

; 786  : 		{	// return iterator for beginning of nonmutable sequence

  00000	55		 push	 ebp
  00001	8b ec		 mov	 ebp, esp

; 787  : 		return (const_iterator(this->_Myfirst, this));

  00003	8b 09		 mov	 ecx, DWORD PTR [ecx]
  00005	8b 45 08	 mov	 eax, DWORD PTR ___$ReturnUdt$[ebp]
  00008	89 08		 mov	 DWORD PTR [eax], ecx

; 788  : 		}

  0000a	5d		 pop	 ebp
  0000b	c2 04 00	 ret	 4
?begin@?$vector@PAVioBaseChar@@V?$allocator@PAVioBaseChar@@@std@@@std@@QBE?AV?$_Vector_const_iterator@V?$_Vector_val@PAVioBaseChar@@V?$allocator@PAVioBaseChar@@@std@@@std@@@2@XZ ENDP ; std::vector<ioBaseChar *,std::allocator<ioBaseChar *> >::begin
_TEXT	ENDS
PUBLIC	?end@?$vector@PAVioBaseChar@@V?$allocator@PAVioBaseChar@@@std@@@std@@QBE?AV?$_Vector_const_iterator@V?$_Vector_val@PAVioBaseChar@@V?$allocator@PAVioBaseChar@@@std@@@std@@@2@XZ ; std::vector<ioBaseChar *,std::allocator<ioBaseChar *> >::end
; Function compile flags: /Ogsp
;	COMDAT ?end@?$vector@PAVioBaseChar@@V?$allocator@PAVioBaseChar@@@std@@@std@@QBE?AV?$_Vector_const_iterator@V?$_Vector_val@PAVioBaseChar@@V?$allocator@PAVioBaseChar@@@std@@@std@@@2@XZ
_TEXT	SEGMENT
___$ReturnUdt$ = 8					; size = 4
?end@?$vector@PAVioBaseChar@@V?$allocator@PAVioBaseChar@@@std@@@std@@QBE?AV?$_Vector_const_iterator@V?$_Vector_val@PAVioBaseChar@@V?$allocator@PAVioBaseChar@@@std@@@std@@@2@XZ PROC ; std::vector<ioBaseChar *,std::allocator<ioBaseChar *> >::end, COMDAT
; _this$ = ecx

; 796  : 		{	// return iterator for end of nonmutable sequence

  00000	55		 push	 ebp
  00001	8b ec		 mov	 ebp, esp

; 797  : 		return (const_iterator(this->_Mylast, this));

  00003	8b 49 04	 mov	 ecx, DWORD PTR [ecx+4]
  00006	8b 45 08	 mov	 eax, DWORD PTR ___$ReturnUdt$[ebp]
  00009	89 08		 mov	 DWORD PTR [eax], ecx

; 798  : 		}

  0000b	5d		 pop	 ebp
  0000c	c2 04 00	 ret	 4
?end@?$vector@PAVioBaseChar@@V?$allocator@PAVioBaseChar@@@std@@@std@@QBE?AV?$_Vector_const_iterator@V?$_Vector_val@PAVioBaseChar@@V?$allocator@PAVioBaseChar@@@std@@@std@@@2@XZ ENDP ; std::vector<ioBaseChar *,std::allocator<ioBaseChar *> >::end
_TEXT	ENDS
PUBLIC	??B?$CEncrypt@W4ProtectionMode@@@@QAE?AW4ProtectionMode@@XZ ; CEncrypt<enum ProtectionMode>::operator enum ProtectionMode
; Function compile flags: /Ogsp
; File d:\lost saga for developer\youtube\tutorial\source\src\lsclient\encryptvalue.h
;	COMDAT ??B?$CEncrypt@W4ProtectionMode@@@@QAE?AW4ProtectionMode@@XZ
_TEXT	SEGMENT
_value$ = -4						; size = 4
??B?$CEncrypt@W4ProtectionMode@@@@QAE?AW4ProtectionMode@@XZ PROC ; CEncrypt<enum ProtectionMode>::operator enum ProtectionMode, COMDAT
; _this$ = ecx

; 134  : 	{

  00000	55		 push	 ebp
  00001	8b ec		 mov	 ebp, esp
  00003	51		 push	 ecx

; 135  : 		type value;
; 136  : 		DecryptValueToPool(&value);

  00004	8d 45 fc	 lea	 eax, DWORD PTR _value$[ebp]
  00007	50		 push	 eax
  00008	e8 00 00 00 00	 call	 ?DecryptValueToPool@?$CEncrypt@W4ProtectionMode@@@@QAEXPAW4ProtectionMode@@@Z ; CEncrypt<enum ProtectionMode>::DecryptValueToPool

; 137  : 
; 138  : #ifdef _NOTUSE
; 139  : 		Debug();
; 140  : #endif
; 141  : 		return value;

  0000d	8b 45 fc	 mov	 eax, DWORD PTR _value$[ebp]

; 142  : 	}

  00010	c9		 leave
  00011	c3		 ret	 0
??B?$CEncrypt@W4ProtectionMode@@@@QAE?AW4ProtectionMode@@XZ ENDP ; CEncrypt<enum ProtectionMode>::operator enum ProtectionMode
_TEXT	ENDS
PUBLIC	??8?$_Vector_const_iterator@V?$_Vector_val@PAVioBaseChar@@V?$allocator@PAVioBaseChar@@@std@@@std@@@std@@QBE_NABV01@@Z ; std::_Vector_const_iterator<std::_Vector_val<ioBaseChar *,std::allocator<ioBaseChar *> > >::operator==
; Function compile flags: /Ogsp
; File c:\program files (x86)\microsoft visual studio 10.0\vc\include\vector
;	COMDAT ??8?$_Vector_const_iterator@V?$_Vector_val@PAVioBaseChar@@V?$allocator@PAVioBaseChar@@@std@@@std@@@std@@QBE_NABV01@@Z
_TEXT	SEGMENT
__Right$ = 8						; size = 4
??8?$_Vector_const_iterator@V?$_Vector_val@PAVioBaseChar@@V?$allocator@PAVioBaseChar@@@std@@@std@@@std@@QBE_NABV01@@Z PROC ; std::_Vector_const_iterator<std::_Vector_val<ioBaseChar *,std::allocator<ioBaseChar *> > >::operator==, COMDAT
; _this$ = ecx

; 201  : 		{	// test for iterator equality

  00000	55		 push	 ebp
  00001	8b ec		 mov	 ebp, esp

; 202  : 		_Compat(_Right);
; 203  : 		return (this->_Ptr == _Right._Ptr);

  00003	8b 01		 mov	 eax, DWORD PTR [ecx]
  00005	8b 4d 08	 mov	 ecx, DWORD PTR __Right$[ebp]
  00008	2b 01		 sub	 eax, DWORD PTR [ecx]
  0000a	f7 d8		 neg	 eax
  0000c	1b c0		 sbb	 eax, eax
  0000e	40		 inc	 eax

; 204  : 		}

  0000f	5d		 pop	 ebp
  00010	c2 04 00	 ret	 4
??8?$_Vector_const_iterator@V?$_Vector_val@PAVioBaseChar@@V?$allocator@PAVioBaseChar@@@std@@@std@@@std@@QBE_NABV01@@Z ENDP ; std::_Vector_const_iterator<std::_Vector_val<ioBaseChar *,std::allocator<ioBaseChar *> > >::operator==
_TEXT	ENDS
PUBLIC	__$ArrayPad$
PUBLIC	??$LoadFloat_e@$0P@@ioINILoader@@QAEMAAY0P@$$CBDM@Z ; ioINILoader::LoadFloat_e<15>
EXTRN	__imp_?LoadFloat@ioINILoader@@QAEMPBDM@Z:PROC
EXTRN	___security_cookie:DWORD
; Function compile flags: /Ogsp
; File d:\lost saga for developer\youtube\tutorial\source\src\io3dengine\ioiniloader.h
;	COMDAT ??$LoadFloat_e@$0P@@ioINILoader@@QAEMAAY0P@$$CBDM@Z
_TEXT	SEGMENT
__k$ = -24						; size = 15
__$ArrayPad$ = -4					; size = 4
_k$ = 8							; size = 4
_f$ = 12						; size = 4
??$LoadFloat_e@$0P@@ioINILoader@@QAEMAAY0P@$$CBDM@Z PROC ; ioINILoader::LoadFloat_e<15>, COMDAT
; _this$ = ecx

; 135  : 	{

  00000	55		 push	 ebp
  00001	8b ec		 mov	 ebp, esp
  00003	83 ec 18	 sub	 esp, 24			; 00000018H
  00006	a1 00 00 00 00	 mov	 eax, DWORD PTR ___security_cookie
  0000b	33 c5		 xor	 eax, ebp
  0000d	89 45 fc	 mov	 DWORD PTR __$ArrayPad$[ebp], eax
  00010	8b 45 08	 mov	 eax, DWORD PTR _k$[ebp]

; 136  : 		_ENCSTR(k, _k);

  00013	8a 10		 mov	 dl, BYTE PTR [eax]
  00015	56		 push	 esi
  00016	8b f1		 mov	 esi, ecx
  00018	84 d2		 test	 dl, dl
  0001a	0f 84 75 01 00
	00		 je	 $LN96@LoadFloat_
  00020	80 f2 ed	 xor	 dl, -19			; ffffffedH
  00023	88 55 e8	 mov	 BYTE PTR __k$[ebp], dl
  00026	8a 50 01	 mov	 dl, BYTE PTR [eax+1]
  00029	84 d2		 test	 dl, dl
  0002b	0f 84 5e 01 00
	00		 je	 $LN95@LoadFloat_
  00031	b1 ec		 mov	 cl, -20			; ffffffecH
  00033	32 d1		 xor	 dl, cl
  00035	88 55 e9	 mov	 BYTE PTR __k$[ebp+1], dl
  00038	8a 50 02	 mov	 dl, BYTE PTR [eax+2]
  0003b	84 d2		 test	 dl, dl
  0003d	0f 84 46 01 00
	00		 je	 $LN94@LoadFloat_
  00043	80 f2 eb	 xor	 dl, -21			; ffffffebH
  00046	88 55 ea	 mov	 BYTE PTR __k$[ebp+2], dl
  00049	8a 50 03	 mov	 dl, BYTE PTR [eax+3]
  0004c	84 d2		 test	 dl, dl
  0004e	0f 84 2f 01 00
	00		 je	 $LN93@LoadFloat_
  00054	80 f2 ea	 xor	 dl, -22			; ffffffeaH
  00057	88 55 eb	 mov	 BYTE PTR __k$[ebp+3], dl
  0005a	8a 50 04	 mov	 dl, BYTE PTR [eax+4]
  0005d	84 d2		 test	 dl, dl
  0005f	0f 84 18 01 00
	00		 je	 $LN92@LoadFloat_
  00065	80 f2 ed	 xor	 dl, -19			; ffffffedH
  00068	88 55 ec	 mov	 BYTE PTR __k$[ebp+4], dl
  0006b	8a 50 05	 mov	 dl, BYTE PTR [eax+5]
  0006e	84 d2		 test	 dl, dl
  00070	0f 84 02 01 00
	00		 je	 $LN91@LoadFloat_
  00076	32 d1		 xor	 dl, cl
  00078	88 55 ed	 mov	 BYTE PTR __k$[ebp+5], dl
  0007b	8a 50 06	 mov	 dl, BYTE PTR [eax+6]
  0007e	84 d2		 test	 dl, dl
  00080	0f 84 ec 00 00
	00		 je	 $LN90@LoadFloat_
  00086	80 f2 eb	 xor	 dl, -21			; ffffffebH
  00089	88 55 ee	 mov	 BYTE PTR __k$[ebp+6], dl
  0008c	8a 50 07	 mov	 dl, BYTE PTR [eax+7]
  0008f	84 d2		 test	 dl, dl
  00091	0f 84 d5 00 00
	00		 je	 $LN89@LoadFloat_
  00097	80 f2 ea	 xor	 dl, -22			; ffffffeaH
  0009a	88 55 ef	 mov	 BYTE PTR __k$[ebp+7], dl
  0009d	8a 50 08	 mov	 dl, BYTE PTR [eax+8]
  000a0	84 d2		 test	 dl, dl
  000a2	0f 84 be 00 00
	00		 je	 $LN88@LoadFloat_
  000a8	80 f2 ed	 xor	 dl, -19			; ffffffedH
  000ab	88 55 f0	 mov	 BYTE PTR __k$[ebp+8], dl
  000ae	8a 50 09	 mov	 dl, BYTE PTR [eax+9]
  000b1	84 d2		 test	 dl, dl
  000b3	0f 84 a8 00 00
	00		 je	 $LN87@LoadFloat_
  000b9	32 d1		 xor	 dl, cl
  000bb	88 55 f1	 mov	 BYTE PTR __k$[ebp+9], dl
  000be	8a 50 0a	 mov	 dl, BYTE PTR [eax+10]
  000c1	84 d2		 test	 dl, dl
  000c3	0f 84 92 00 00
	00		 je	 $LN86@LoadFloat_
  000c9	80 f2 eb	 xor	 dl, -21			; ffffffebH
  000cc	88 55 f2	 mov	 BYTE PTR __k$[ebp+10], dl
  000cf	8a 50 0b	 mov	 dl, BYTE PTR [eax+11]
  000d2	84 d2		 test	 dl, dl
  000d4	74 7f		 je	 SHORT $LN85@LoadFloat_
  000d6	80 f2 ea	 xor	 dl, -22			; ffffffeaH
  000d9	88 55 f3	 mov	 BYTE PTR __k$[ebp+11], dl
  000dc	8a 50 0c	 mov	 dl, BYTE PTR [eax+12]
  000df	84 d2		 test	 dl, dl
  000e1	74 6c		 je	 SHORT $LN84@LoadFloat_
  000e3	80 f2 ed	 xor	 dl, -19			; ffffffedH
  000e6	88 55 f4	 mov	 BYTE PTR __k$[ebp+12], dl
  000e9	8a 50 0d	 mov	 dl, BYTE PTR [eax+13]
  000ec	84 d2		 test	 dl, dl
  000ee	74 5a		 je	 SHORT $LN83@LoadFloat_
  000f0	32 d1		 xor	 dl, cl
  000f2	80 78 0e 00	 cmp	 BYTE PTR [eax+14], 0
  000f6	88 55 f5	 mov	 BYTE PTR __k$[ebp+13], dl
  000f9	0f 84 9a 00 00
	00		 je	 $LN1@LoadFloat_
  000ff	8a 50 0f	 mov	 dl, BYTE PTR [eax+15]
  00102	84 d2		 test	 dl, dl
  00104	74 3e		 je	 SHORT $LN81@LoadFloat_
  00106	80 f2 ea	 xor	 dl, -22			; ffffffeaH
  00109	88 55 f7	 mov	 BYTE PTR __k$[ebp+15], dl
  0010c	8a 50 10	 mov	 dl, BYTE PTR [eax+16]
  0010f	84 d2		 test	 dl, dl
  00111	74 2b		 je	 SHORT $LN80@LoadFloat_
  00113	80 f2 ed	 xor	 dl, -19			; ffffffedH
  00116	88 55 f8	 mov	 BYTE PTR __k$[ebp+16], dl
  00119	8a 50 11	 mov	 dl, BYTE PTR [eax+17]
  0011c	84 d2		 test	 dl, dl
  0011e	74 19		 je	 SHORT $LN79@LoadFloat_
  00120	8a 40 12	 mov	 al, BYTE PTR [eax+18]
  00123	32 d1		 xor	 dl, cl
  00125	88 55 f9	 mov	 BYTE PTR __k$[ebp+17], dl
  00128	84 c0		 test	 al, al
  0012a	74 07		 je	 SHORT $LN78@LoadFloat_
  0012c	34 eb		 xor	 al, -21			; ffffffebH
  0012e	88 45 fa	 mov	 BYTE PTR __k$[ebp+18], al
  00131	eb 66		 jmp	 SHORT $LN1@LoadFloat_
$LN78@LoadFloat_:
  00133	c6 45 fa eb	 mov	 BYTE PTR __k$[ebp+18], -21 ; ffffffebH
  00137	eb 60		 jmp	 SHORT $LN1@LoadFloat_
$LN79@LoadFloat_:
  00139	88 4d f9	 mov	 BYTE PTR __k$[ebp+17], cl
  0013c	eb 5b		 jmp	 SHORT $LN1@LoadFloat_
$LN80@LoadFloat_:
  0013e	c6 45 f8 ed	 mov	 BYTE PTR __k$[ebp+16], -19 ; ffffffedH
  00142	eb 55		 jmp	 SHORT $LN1@LoadFloat_
$LN81@LoadFloat_:
  00144	c6 45 f7 ea	 mov	 BYTE PTR __k$[ebp+15], -22 ; ffffffeaH
  00148	eb 4f		 jmp	 SHORT $LN1@LoadFloat_
$LN83@LoadFloat_:
  0014a	88 4d f5	 mov	 BYTE PTR __k$[ebp+13], cl
  0014d	eb 4a		 jmp	 SHORT $LN1@LoadFloat_
$LN84@LoadFloat_:
  0014f	c6 45 f4 ed	 mov	 BYTE PTR __k$[ebp+12], -19 ; ffffffedH
  00153	eb 44		 jmp	 SHORT $LN1@LoadFloat_
$LN85@LoadFloat_:
  00155	c6 45 f3 ea	 mov	 BYTE PTR __k$[ebp+11], -22 ; ffffffeaH
  00159	eb 3e		 jmp	 SHORT $LN1@LoadFloat_
$LN86@LoadFloat_:
  0015b	c6 45 f2 eb	 mov	 BYTE PTR __k$[ebp+10], -21 ; ffffffebH
  0015f	eb 38		 jmp	 SHORT $LN1@LoadFloat_
$LN87@LoadFloat_:
  00161	88 4d f1	 mov	 BYTE PTR __k$[ebp+9], cl
  00164	eb 33		 jmp	 SHORT $LN1@LoadFloat_
$LN88@LoadFloat_:
  00166	c6 45 f0 ed	 mov	 BYTE PTR __k$[ebp+8], -19 ; ffffffedH
  0016a	eb 2d		 jmp	 SHORT $LN1@LoadFloat_
$LN89@LoadFloat_:
  0016c	c6 45 ef ea	 mov	 BYTE PTR __k$[ebp+7], -22 ; ffffffeaH
  00170	eb 27		 jmp	 SHORT $LN1@LoadFloat_
$LN90@LoadFloat_:
  00172	c6 45 ee eb	 mov	 BYTE PTR __k$[ebp+6], -21 ; ffffffebH
  00176	eb 21		 jmp	 SHORT $LN1@LoadFloat_
$LN91@LoadFloat_:
  00178	88 4d ed	 mov	 BYTE PTR __k$[ebp+5], cl
  0017b	eb 1c		 jmp	 SHORT $LN1@LoadFloat_
$LN92@LoadFloat_:
  0017d	c6 45 ec ed	 mov	 BYTE PTR __k$[ebp+4], -19 ; ffffffedH
  00181	eb 16		 jmp	 SHORT $LN1@LoadFloat_
$LN93@LoadFloat_:
  00183	c6 45 eb ea	 mov	 BYTE PTR __k$[ebp+3], -22 ; ffffffeaH
  00187	eb 10		 jmp	 SHORT $LN1@LoadFloat_
$LN94@LoadFloat_:
  00189	c6 45 ea eb	 mov	 BYTE PTR __k$[ebp+2], -21 ; ffffffebH
  0018d	eb 0a		 jmp	 SHORT $LN1@LoadFloat_
$LN95@LoadFloat_:
  0018f	c6 45 e9 ec	 mov	 BYTE PTR __k$[ebp+1], -20 ; ffffffecH
  00193	eb 04		 jmp	 SHORT $LN1@LoadFloat_
$LN96@LoadFloat_:
  00195	c6 45 e8 ed	 mov	 BYTE PTR __k$[ebp], -19	; ffffffedH
$LN1@LoadFloat_:
  00199	6a 03		 push	 3
  0019b	8d 45 e8	 lea	 eax, DWORD PTR __k$[ebp]
  0019e	c6 45 f6 00	 mov	 BYTE PTR __k$[ebp+14], 0
  001a2	5a		 pop	 edx
$LL104@LoadFloat_:
  001a3	81 30 ed ec eb
	ea		 xor	 DWORD PTR [eax], -353637139 ; eaebecedH
  001a9	83 c0 04	 add	 eax, 4
  001ac	4a		 dec	 edx
  001ad	75 f4		 jne	 SHORT $LL104@LoadFloat_
  001af	6a 0c		 push	 12			; 0000000cH
  001b1	58		 pop	 eax
$LL101@LoadFloat_:
  001b2	8b c8		 mov	 ecx, eax
  001b4	81 e1 03 00 00
	80		 and	 ecx, -2147483645	; 80000003H
  001ba	79 05		 jns	 SHORT $LN111@LoadFloat_
  001bc	49		 dec	 ecx
  001bd	83 c9 fc	 or	 ecx, -4			; fffffffcH
  001c0	41		 inc	 ecx
$LN111@LoadFloat_:
  001c1	b2 ed		 mov	 dl, -19			; ffffffedH
  001c3	2a d1		 sub	 dl, cl
  001c5	30 54 05 e8	 xor	 BYTE PTR __k$[ebp+eax], dl
  001c9	40		 inc	 eax
  001ca	83 f8 0e	 cmp	 eax, 14			; 0000000eH
  001cd	7c e3		 jl	 SHORT $LL101@LoadFloat_

; 137  : 		return LoadFloat(_k, f);

  001cf	f3 0f 10 45 0c	 movss	 xmm0, DWORD PTR _f$[ebp]
  001d4	51		 push	 ecx
  001d5	8d 45 e8	 lea	 eax, DWORD PTR __k$[ebp]
  001d8	f3 0f 11 04 24	 movss	 DWORD PTR [esp], xmm0
  001dd	50		 push	 eax
  001de	8b ce		 mov	 ecx, esi
  001e0	ff 15 00 00 00
	00		 call	 DWORD PTR __imp_?LoadFloat@ioINILoader@@QAEMPBDM@Z

; 138  : 	}

  001e6	8b 4d fc	 mov	 ecx, DWORD PTR __$ArrayPad$[ebp]
  001e9	33 cd		 xor	 ecx, ebp
  001eb	5e		 pop	 esi
  001ec	e8 00 00 00 00	 call	 @__security_check_cookie@4
  001f1	c9		 leave
  001f2	c2 08 00	 ret	 8
??$LoadFloat_e@$0P@@ioINILoader@@QAEMAAY0P@$$CBDM@Z ENDP ; ioINILoader::LoadFloat_e<15>
_TEXT	ENDS
PUBLIC	__$ArrayPad$
PUBLIC	??$LoadFloat_e@$0BE@@ioINILoader@@QAEMAAY0BE@$$CBDM@Z ; ioINILoader::LoadFloat_e<20>
; Function compile flags: /Ogsp
;	COMDAT ??$LoadFloat_e@$0BE@@ioINILoader@@QAEMAAY0BE@$$CBDM@Z
_TEXT	SEGMENT
__k$ = -28						; size = 20
__$ArrayPad$ = -4					; size = 4
_k$ = 8							; size = 4
_f$ = 12						; size = 4
??$LoadFloat_e@$0BE@@ioINILoader@@QAEMAAY0BE@$$CBDM@Z PROC ; ioINILoader::LoadFloat_e<20>, COMDAT
; _this$ = ecx

; 135  : 	{

  00000	55		 push	 ebp
  00001	8b ec		 mov	 ebp, esp
  00003	83 ec 1c	 sub	 esp, 28			; 0000001cH
  00006	a1 00 00 00 00	 mov	 eax, DWORD PTR ___security_cookie
  0000b	33 c5		 xor	 eax, ebp
  0000d	89 45 fc	 mov	 DWORD PTR __$ArrayPad$[ebp], eax
  00010	8b 45 08	 mov	 eax, DWORD PTR _k$[ebp]

; 136  : 		_ENCSTR(k, _k);

  00013	8a 10		 mov	 dl, BYTE PTR [eax]
  00015	53		 push	 ebx
  00016	56		 push	 esi
  00017	8b f1		 mov	 esi, ecx
  00019	84 d2		 test	 dl, dl
  0001b	0f 84 dd 01 00
	00		 je	 $LN96@LoadFloat_@2
  00021	80 f2 ed	 xor	 dl, -19			; ffffffedH
  00024	88 55 e4	 mov	 BYTE PTR __k$[ebp], dl
  00027	8a 50 01	 mov	 dl, BYTE PTR [eax+1]
  0002a	84 d2		 test	 dl, dl
  0002c	0f 84 c6 01 00
	00		 je	 $LN95@LoadFloat_@2
  00032	b3 ec		 mov	 bl, -20			; ffffffecH
  00034	32 d3		 xor	 dl, bl
  00036	88 55 e5	 mov	 BYTE PTR __k$[ebp+1], dl
  00039	8a 50 02	 mov	 dl, BYTE PTR [eax+2]
  0003c	84 d2		 test	 dl, dl
  0003e	0f 84 ae 01 00
	00		 je	 $LN94@LoadFloat_@2
  00044	b1 eb		 mov	 cl, -21			; ffffffebH
  00046	32 d1		 xor	 dl, cl
  00048	88 55 e6	 mov	 BYTE PTR __k$[ebp+2], dl
  0004b	8a 50 03	 mov	 dl, BYTE PTR [eax+3]
  0004e	84 d2		 test	 dl, dl
  00050	0f 84 96 01 00
	00		 je	 $LN93@LoadFloat_@2
  00056	80 f2 ea	 xor	 dl, -22			; ffffffeaH
  00059	88 55 e7	 mov	 BYTE PTR __k$[ebp+3], dl
  0005c	8a 50 04	 mov	 dl, BYTE PTR [eax+4]
  0005f	84 d2		 test	 dl, dl
  00061	0f 84 7f 01 00
	00		 je	 $LN92@LoadFloat_@2
  00067	80 f2 ed	 xor	 dl, -19			; ffffffedH
  0006a	88 55 e8	 mov	 BYTE PTR __k$[ebp+4], dl
  0006d	8a 50 05	 mov	 dl, BYTE PTR [eax+5]
  00070	84 d2		 test	 dl, dl
  00072	0f 84 69 01 00
	00		 je	 $LN91@LoadFloat_@2
  00078	32 d3		 xor	 dl, bl
  0007a	88 55 e9	 mov	 BYTE PTR __k$[ebp+5], dl
  0007d	8a 50 06	 mov	 dl, BYTE PTR [eax+6]
  00080	84 d2		 test	 dl, dl
  00082	0f 84 54 01 00
	00		 je	 $LN90@LoadFloat_@2
  00088	32 d1		 xor	 dl, cl
  0008a	88 55 ea	 mov	 BYTE PTR __k$[ebp+6], dl
  0008d	8a 50 07	 mov	 dl, BYTE PTR [eax+7]
  00090	84 d2		 test	 dl, dl
  00092	0f 84 3e 01 00
	00		 je	 $LN89@LoadFloat_@2
  00098	80 f2 ea	 xor	 dl, -22			; ffffffeaH
  0009b	88 55 eb	 mov	 BYTE PTR __k$[ebp+7], dl
  0009e	8a 50 08	 mov	 dl, BYTE PTR [eax+8]
  000a1	84 d2		 test	 dl, dl
  000a3	0f 84 27 01 00
	00		 je	 $LN88@LoadFloat_@2
  000a9	80 f2 ed	 xor	 dl, -19			; ffffffedH
  000ac	88 55 ec	 mov	 BYTE PTR __k$[ebp+8], dl
  000af	8a 50 09	 mov	 dl, BYTE PTR [eax+9]
  000b2	84 d2		 test	 dl, dl
  000b4	0f 84 11 01 00
	00		 je	 $LN87@LoadFloat_@2
  000ba	32 d3		 xor	 dl, bl
  000bc	88 55 ed	 mov	 BYTE PTR __k$[ebp+9], dl
  000bf	8a 50 0a	 mov	 dl, BYTE PTR [eax+10]
  000c2	84 d2		 test	 dl, dl
  000c4	0f 84 fc 00 00
	00		 je	 $LN86@LoadFloat_@2
  000ca	32 d1		 xor	 dl, cl
  000cc	88 55 ee	 mov	 BYTE PTR __k$[ebp+10], dl
  000cf	8a 50 0b	 mov	 dl, BYTE PTR [eax+11]
  000d2	84 d2		 test	 dl, dl
  000d4	0f 84 e6 00 00
	00		 je	 $LN85@LoadFloat_@2
  000da	80 f2 ea	 xor	 dl, -22			; ffffffeaH
  000dd	88 55 ef	 mov	 BYTE PTR __k$[ebp+11], dl
  000e0	8a 50 0c	 mov	 dl, BYTE PTR [eax+12]
  000e3	84 d2		 test	 dl, dl
  000e5	0f 84 cf 00 00
	00		 je	 $LN84@LoadFloat_@2
  000eb	80 f2 ed	 xor	 dl, -19			; ffffffedH
  000ee	88 55 f0	 mov	 BYTE PTR __k$[ebp+12], dl
  000f1	8a 50 0d	 mov	 dl, BYTE PTR [eax+13]
  000f4	84 d2		 test	 dl, dl
  000f6	0f 84 b9 00 00
	00		 je	 $LN83@LoadFloat_@2
  000fc	32 d3		 xor	 dl, bl
  000fe	88 55 f1	 mov	 BYTE PTR __k$[ebp+13], dl
  00101	8a 50 0e	 mov	 dl, BYTE PTR [eax+14]
  00104	84 d2		 test	 dl, dl
  00106	0f 84 a4 00 00
	00		 je	 $LN82@LoadFloat_@2
  0010c	32 d1		 xor	 dl, cl
  0010e	88 55 f2	 mov	 BYTE PTR __k$[ebp+14], dl
  00111	8a 50 0f	 mov	 dl, BYTE PTR [eax+15]
  00114	84 d2		 test	 dl, dl
  00116	0f 84 8e 00 00
	00		 je	 $LN81@LoadFloat_@2
  0011c	80 f2 ea	 xor	 dl, -22			; ffffffeaH
  0011f	88 55 f3	 mov	 BYTE PTR __k$[ebp+15], dl
  00122	8a 50 10	 mov	 dl, BYTE PTR [eax+16]
  00125	84 d2		 test	 dl, dl
  00127	74 7b		 je	 SHORT $LN80@LoadFloat_@2
  00129	80 f2 ed	 xor	 dl, -19			; ffffffedH
  0012c	88 55 f4	 mov	 BYTE PTR __k$[ebp+16], dl
  0012f	8a 50 11	 mov	 dl, BYTE PTR [eax+17]
  00132	84 d2		 test	 dl, dl
  00134	74 69		 je	 SHORT $LN79@LoadFloat_@2
  00136	32 d3		 xor	 dl, bl
  00138	88 55 f5	 mov	 BYTE PTR __k$[ebp+17], dl
  0013b	8a 50 12	 mov	 dl, BYTE PTR [eax+18]
  0013e	84 d2		 test	 dl, dl
  00140	74 58		 je	 SHORT $LN78@LoadFloat_@2
  00142	32 d1		 xor	 dl, cl
  00144	80 78 13 00	 cmp	 BYTE PTR [eax+19], 0
  00148	88 55 f6	 mov	 BYTE PTR __k$[ebp+18], dl
  0014b	0f 84 b1 00 00
	00		 je	 $LN1@LoadFloat_@2
  00151	8a 50 14	 mov	 dl, BYTE PTR [eax+20]
  00154	84 d2		 test	 dl, dl
  00156	74 3c		 je	 SHORT $LN76@LoadFloat_@2
  00158	80 f2 ed	 xor	 dl, -19			; ffffffedH
  0015b	88 55 f8	 mov	 BYTE PTR __k$[ebp+20], dl
  0015e	8a 50 15	 mov	 dl, BYTE PTR [eax+21]
  00161	84 d2		 test	 dl, dl
  00163	74 2a		 je	 SHORT $LN75@LoadFloat_@2
  00165	32 d3		 xor	 dl, bl
  00167	88 55 f9	 mov	 BYTE PTR __k$[ebp+21], dl
  0016a	8a 50 16	 mov	 dl, BYTE PTR [eax+22]
  0016d	84 d2		 test	 dl, dl
  0016f	74 19		 je	 SHORT $LN74@LoadFloat_@2
  00171	8a 40 17	 mov	 al, BYTE PTR [eax+23]
  00174	32 d1		 xor	 dl, cl
  00176	88 55 fa	 mov	 BYTE PTR __k$[ebp+22], dl
  00179	84 c0		 test	 al, al
  0017b	74 07		 je	 SHORT $LN73@LoadFloat_@2
  0017d	34 ea		 xor	 al, -22			; ffffffeaH
  0017f	88 45 fb	 mov	 BYTE PTR __k$[ebp+23], al
  00182	eb 7e		 jmp	 SHORT $LN1@LoadFloat_@2
$LN73@LoadFloat_@2:
  00184	c6 45 fb ea	 mov	 BYTE PTR __k$[ebp+23], -22 ; ffffffeaH
  00188	eb 78		 jmp	 SHORT $LN1@LoadFloat_@2
$LN74@LoadFloat_@2:
  0018a	88 4d fa	 mov	 BYTE PTR __k$[ebp+22], cl
  0018d	eb 73		 jmp	 SHORT $LN1@LoadFloat_@2
$LN75@LoadFloat_@2:
  0018f	88 5d f9	 mov	 BYTE PTR __k$[ebp+21], bl
  00192	eb 6e		 jmp	 SHORT $LN1@LoadFloat_@2
$LN76@LoadFloat_@2:
  00194	c6 45 f8 ed	 mov	 BYTE PTR __k$[ebp+20], -19 ; ffffffedH
  00198	eb 68		 jmp	 SHORT $LN1@LoadFloat_@2
$LN78@LoadFloat_@2:
  0019a	88 4d f6	 mov	 BYTE PTR __k$[ebp+18], cl
  0019d	eb 63		 jmp	 SHORT $LN1@LoadFloat_@2
$LN79@LoadFloat_@2:
  0019f	88 5d f5	 mov	 BYTE PTR __k$[ebp+17], bl
  001a2	eb 5e		 jmp	 SHORT $LN1@LoadFloat_@2
$LN80@LoadFloat_@2:
  001a4	c6 45 f4 ed	 mov	 BYTE PTR __k$[ebp+16], -19 ; ffffffedH
  001a8	eb 58		 jmp	 SHORT $LN1@LoadFloat_@2
$LN81@LoadFloat_@2:
  001aa	c6 45 f3 ea	 mov	 BYTE PTR __k$[ebp+15], -22 ; ffffffeaH
  001ae	eb 52		 jmp	 SHORT $LN1@LoadFloat_@2
$LN82@LoadFloat_@2:
  001b0	88 4d f2	 mov	 BYTE PTR __k$[ebp+14], cl
  001b3	eb 4d		 jmp	 SHORT $LN1@LoadFloat_@2
$LN83@LoadFloat_@2:
  001b5	88 5d f1	 mov	 BYTE PTR __k$[ebp+13], bl
  001b8	eb 48		 jmp	 SHORT $LN1@LoadFloat_@2
$LN84@LoadFloat_@2:
  001ba	c6 45 f0 ed	 mov	 BYTE PTR __k$[ebp+12], -19 ; ffffffedH
  001be	eb 42		 jmp	 SHORT $LN1@LoadFloat_@2
$LN85@LoadFloat_@2:
  001c0	c6 45 ef ea	 mov	 BYTE PTR __k$[ebp+11], -22 ; ffffffeaH
  001c4	eb 3c		 jmp	 SHORT $LN1@LoadFloat_@2
$LN86@LoadFloat_@2:
  001c6	88 4d ee	 mov	 BYTE PTR __k$[ebp+10], cl
  001c9	eb 37		 jmp	 SHORT $LN1@LoadFloat_@2
$LN87@LoadFloat_@2:
  001cb	88 5d ed	 mov	 BYTE PTR __k$[ebp+9], bl
  001ce	eb 32		 jmp	 SHORT $LN1@LoadFloat_@2
$LN88@LoadFloat_@2:
  001d0	c6 45 ec ed	 mov	 BYTE PTR __k$[ebp+8], -19 ; ffffffedH
  001d4	eb 2c		 jmp	 SHORT $LN1@LoadFloat_@2
$LN89@LoadFloat_@2:
  001d6	c6 45 eb ea	 mov	 BYTE PTR __k$[ebp+7], -22 ; ffffffeaH
  001da	eb 26		 jmp	 SHORT $LN1@LoadFloat_@2
$LN90@LoadFloat_@2:
  001dc	88 4d ea	 mov	 BYTE PTR __k$[ebp+6], cl
  001df	eb 21		 jmp	 SHORT $LN1@LoadFloat_@2
$LN91@LoadFloat_@2:
  001e1	88 5d e9	 mov	 BYTE PTR __k$[ebp+5], bl
  001e4	eb 1c		 jmp	 SHORT $LN1@LoadFloat_@2
$LN92@LoadFloat_@2:
  001e6	c6 45 e8 ed	 mov	 BYTE PTR __k$[ebp+4], -19 ; ffffffedH
  001ea	eb 16		 jmp	 SHORT $LN1@LoadFloat_@2
$LN93@LoadFloat_@2:
  001ec	c6 45 e7 ea	 mov	 BYTE PTR __k$[ebp+3], -22 ; ffffffeaH
  001f0	eb 10		 jmp	 SHORT $LN1@LoadFloat_@2
$LN94@LoadFloat_@2:
  001f2	c6 45 e6 eb	 mov	 BYTE PTR __k$[ebp+2], -21 ; ffffffebH
  001f6	eb 0a		 jmp	 SHORT $LN1@LoadFloat_@2
$LN95@LoadFloat_@2:
  001f8	c6 45 e5 ec	 mov	 BYTE PTR __k$[ebp+1], -20 ; ffffffecH
  001fc	eb 04		 jmp	 SHORT $LN1@LoadFloat_@2
$LN96@LoadFloat_@2:
  001fe	c6 45 e4 ed	 mov	 BYTE PTR __k$[ebp], -19	; ffffffedH
$LN1@LoadFloat_@2:
  00202	6a 04		 push	 4
  00204	8d 45 e4	 lea	 eax, DWORD PTR __k$[ebp]
  00207	c6 45 f7 00	 mov	 BYTE PTR __k$[ebp+19], 0
  0020b	5a		 pop	 edx
$LL104@LoadFloat_@2:
  0020c	81 30 ed ec eb
	ea		 xor	 DWORD PTR [eax], -353637139 ; eaebecedH
  00212	83 c0 04	 add	 eax, 4
  00215	4a		 dec	 edx
  00216	75 f4		 jne	 SHORT $LL104@LoadFloat_@2
  00218	6a 10		 push	 16			; 00000010H
  0021a	58		 pop	 eax
$LL101@LoadFloat_@2:
  0021b	8b c8		 mov	 ecx, eax
  0021d	81 e1 03 00 00
	80		 and	 ecx, -2147483645	; 80000003H
  00223	79 05		 jns	 SHORT $LN111@LoadFloat_@2
  00225	49		 dec	 ecx
  00226	83 c9 fc	 or	 ecx, -4			; fffffffcH
  00229	41		 inc	 ecx
$LN111@LoadFloat_@2:
  0022a	b2 ed		 mov	 dl, -19			; ffffffedH
  0022c	2a d1		 sub	 dl, cl
  0022e	30 54 05 e4	 xor	 BYTE PTR __k$[ebp+eax], dl
  00232	40		 inc	 eax
  00233	83 f8 13	 cmp	 eax, 19			; 00000013H
  00236	7c e3		 jl	 SHORT $LL101@LoadFloat_@2

; 137  : 		return LoadFloat(_k, f);

  00238	f3 0f 10 45 0c	 movss	 xmm0, DWORD PTR _f$[ebp]
  0023d	51		 push	 ecx
  0023e	8d 45 e4	 lea	 eax, DWORD PTR __k$[ebp]
  00241	f3 0f 11 04 24	 movss	 DWORD PTR [esp], xmm0
  00246	50		 push	 eax
  00247	8b ce		 mov	 ecx, esi
  00249	ff 15 00 00 00
	00		 call	 DWORD PTR __imp_?LoadFloat@ioINILoader@@QAEMPBDM@Z

; 138  : 	}

  0024f	8b 4d fc	 mov	 ecx, DWORD PTR __$ArrayPad$[ebp]
  00252	5e		 pop	 esi
  00253	33 cd		 xor	 ecx, ebp
  00255	5b		 pop	 ebx
  00256	e8 00 00 00 00	 call	 @__security_check_cookie@4
  0025b	c9		 leave
  0025c	c2 08 00	 ret	 8
??$LoadFloat_e@$0BE@@ioINILoader@@QAEMAAY0BE@$$CBDM@Z ENDP ; ioINILoader::LoadFloat_e<20>
_TEXT	ENDS
PUBLIC	__$ArrayPad$
PUBLIC	??$LoadBool_e@$0BF@@ioINILoader@@QAE_NAAY0BF@$$CBD_N@Z ; ioINILoader::LoadBool_e<21>
EXTRN	__imp_?LoadBool@ioINILoader@@QAE_NPBD_N@Z:PROC
; Function compile flags: /Ogsp
;	COMDAT ??$LoadBool_e@$0BF@@ioINILoader@@QAE_NAAY0BF@$$CBD_N@Z
_TEXT	SEGMENT
__k$ = -32						; size = 21
__$ArrayPad$ = -4					; size = 4
_k$ = 8							; size = 4
_b$ = 12						; size = 1
??$LoadBool_e@$0BF@@ioINILoader@@QAE_NAAY0BF@$$CBD_N@Z PROC ; ioINILoader::LoadBool_e<21>, COMDAT
; _this$ = ecx

; 101  : 	{

  00000	55		 push	 ebp
  00001	8b ec		 mov	 ebp, esp
  00003	83 ec 20	 sub	 esp, 32			; 00000020H
  00006	a1 00 00 00 00	 mov	 eax, DWORD PTR ___security_cookie
  0000b	33 c5		 xor	 eax, ebp
  0000d	89 45 fc	 mov	 DWORD PTR __$ArrayPad$[ebp], eax
  00010	8b 45 08	 mov	 eax, DWORD PTR _k$[ebp]

; 102  : 		_ENCSTR(k, _k);

  00013	8a 10		 mov	 dl, BYTE PTR [eax]
  00015	53		 push	 ebx
  00016	56		 push	 esi
  00017	8b f1		 mov	 esi, ecx
  00019	84 d2		 test	 dl, dl
  0001b	0f 84 f7 01 00
	00		 je	 $LN96@LoadBool_e
  00021	80 f2 ed	 xor	 dl, -19			; ffffffedH
  00024	88 55 e0	 mov	 BYTE PTR __k$[ebp], dl
  00027	8a 50 01	 mov	 dl, BYTE PTR [eax+1]
  0002a	84 d2		 test	 dl, dl
  0002c	0f 84 e0 01 00
	00		 je	 $LN95@LoadBool_e
  00032	b1 ec		 mov	 cl, -20			; ffffffecH
  00034	32 d1		 xor	 dl, cl
  00036	88 55 e1	 mov	 BYTE PTR __k$[ebp+1], dl
  00039	8a 50 02	 mov	 dl, BYTE PTR [eax+2]
  0003c	84 d2		 test	 dl, dl
  0003e	0f 84 c8 01 00
	00		 je	 $LN94@LoadBool_e
  00044	b3 eb		 mov	 bl, -21			; ffffffebH
  00046	32 d3		 xor	 dl, bl
  00048	88 55 e2	 mov	 BYTE PTR __k$[ebp+2], dl
  0004b	8a 50 03	 mov	 dl, BYTE PTR [eax+3]
  0004e	84 d2		 test	 dl, dl
  00050	0f 84 b0 01 00
	00		 je	 $LN93@LoadBool_e
  00056	80 f2 ea	 xor	 dl, -22			; ffffffeaH
  00059	88 55 e3	 mov	 BYTE PTR __k$[ebp+3], dl
  0005c	8a 50 04	 mov	 dl, BYTE PTR [eax+4]
  0005f	84 d2		 test	 dl, dl
  00061	0f 84 99 01 00
	00		 je	 $LN92@LoadBool_e
  00067	80 f2 ed	 xor	 dl, -19			; ffffffedH
  0006a	88 55 e4	 mov	 BYTE PTR __k$[ebp+4], dl
  0006d	8a 50 05	 mov	 dl, BYTE PTR [eax+5]
  00070	84 d2		 test	 dl, dl
  00072	0f 84 83 01 00
	00		 je	 $LN91@LoadBool_e
  00078	32 d1		 xor	 dl, cl
  0007a	88 55 e5	 mov	 BYTE PTR __k$[ebp+5], dl
  0007d	8a 50 06	 mov	 dl, BYTE PTR [eax+6]
  00080	84 d2		 test	 dl, dl
  00082	0f 84 6e 01 00
	00		 je	 $LN90@LoadBool_e
  00088	32 d3		 xor	 dl, bl
  0008a	88 55 e6	 mov	 BYTE PTR __k$[ebp+6], dl
  0008d	8a 50 07	 mov	 dl, BYTE PTR [eax+7]
  00090	84 d2		 test	 dl, dl
  00092	0f 84 58 01 00
	00		 je	 $LN89@LoadBool_e
  00098	80 f2 ea	 xor	 dl, -22			; ffffffeaH
  0009b	88 55 e7	 mov	 BYTE PTR __k$[ebp+7], dl
  0009e	8a 50 08	 mov	 dl, BYTE PTR [eax+8]
  000a1	84 d2		 test	 dl, dl
  000a3	0f 84 41 01 00
	00		 je	 $LN88@LoadBool_e
  000a9	80 f2 ed	 xor	 dl, -19			; ffffffedH
  000ac	88 55 e8	 mov	 BYTE PTR __k$[ebp+8], dl
  000af	8a 50 09	 mov	 dl, BYTE PTR [eax+9]
  000b2	84 d2		 test	 dl, dl
  000b4	0f 84 2b 01 00
	00		 je	 $LN87@LoadBool_e
  000ba	32 d1		 xor	 dl, cl
  000bc	88 55 e9	 mov	 BYTE PTR __k$[ebp+9], dl
  000bf	8a 50 0a	 mov	 dl, BYTE PTR [eax+10]
  000c2	84 d2		 test	 dl, dl
  000c4	0f 84 16 01 00
	00		 je	 $LN86@LoadBool_e
  000ca	32 d3		 xor	 dl, bl
  000cc	88 55 ea	 mov	 BYTE PTR __k$[ebp+10], dl
  000cf	8a 50 0b	 mov	 dl, BYTE PTR [eax+11]
  000d2	84 d2		 test	 dl, dl
  000d4	0f 84 00 01 00
	00		 je	 $LN85@LoadBool_e
  000da	80 f2 ea	 xor	 dl, -22			; ffffffeaH
  000dd	88 55 eb	 mov	 BYTE PTR __k$[ebp+11], dl
  000e0	8a 50 0c	 mov	 dl, BYTE PTR [eax+12]
  000e3	84 d2		 test	 dl, dl
  000e5	0f 84 e9 00 00
	00		 je	 $LN84@LoadBool_e
  000eb	80 f2 ed	 xor	 dl, -19			; ffffffedH
  000ee	88 55 ec	 mov	 BYTE PTR __k$[ebp+12], dl
  000f1	8a 50 0d	 mov	 dl, BYTE PTR [eax+13]
  000f4	84 d2		 test	 dl, dl
  000f6	0f 84 d3 00 00
	00		 je	 $LN83@LoadBool_e
  000fc	32 d1		 xor	 dl, cl
  000fe	88 55 ed	 mov	 BYTE PTR __k$[ebp+13], dl
  00101	8a 50 0e	 mov	 dl, BYTE PTR [eax+14]
  00104	84 d2		 test	 dl, dl
  00106	0f 84 be 00 00
	00		 je	 $LN82@LoadBool_e
  0010c	32 d3		 xor	 dl, bl
  0010e	88 55 ee	 mov	 BYTE PTR __k$[ebp+14], dl
  00111	8a 50 0f	 mov	 dl, BYTE PTR [eax+15]
  00114	84 d2		 test	 dl, dl
  00116	0f 84 a8 00 00
	00		 je	 $LN81@LoadBool_e
  0011c	80 f2 ea	 xor	 dl, -22			; ffffffeaH
  0011f	88 55 ef	 mov	 BYTE PTR __k$[ebp+15], dl
  00122	8a 50 10	 mov	 dl, BYTE PTR [eax+16]
  00125	84 d2		 test	 dl, dl
  00127	0f 84 91 00 00
	00		 je	 $LN80@LoadBool_e
  0012d	80 f2 ed	 xor	 dl, -19			; ffffffedH
  00130	88 55 f0	 mov	 BYTE PTR __k$[ebp+16], dl
  00133	8a 50 11	 mov	 dl, BYTE PTR [eax+17]
  00136	84 d2		 test	 dl, dl
  00138	74 7f		 je	 SHORT $LN79@LoadBool_e
  0013a	32 d1		 xor	 dl, cl
  0013c	88 55 f1	 mov	 BYTE PTR __k$[ebp+17], dl
  0013f	8a 50 12	 mov	 dl, BYTE PTR [eax+18]
  00142	84 d2		 test	 dl, dl
  00144	74 6e		 je	 SHORT $LN78@LoadBool_e
  00146	32 d3		 xor	 dl, bl
  00148	88 55 f2	 mov	 BYTE PTR __k$[ebp+18], dl
  0014b	8a 50 13	 mov	 dl, BYTE PTR [eax+19]
  0014e	84 d2		 test	 dl, dl
  00150	74 5c		 je	 SHORT $LN77@LoadBool_e
  00152	80 f2 ea	 xor	 dl, -22			; ffffffeaH
  00155	80 78 14 00	 cmp	 BYTE PTR [eax+20], 0
  00159	88 55 f3	 mov	 BYTE PTR __k$[ebp+19], dl
  0015c	0f 84 ba 00 00
	00		 je	 $LN1@LoadBool_e
  00162	8a 50 15	 mov	 dl, BYTE PTR [eax+21]
  00165	84 d2		 test	 dl, dl
  00167	74 40		 je	 SHORT $LN75@LoadBool_e
  00169	32 d1		 xor	 dl, cl
  0016b	88 55 f5	 mov	 BYTE PTR __k$[ebp+21], dl
  0016e	8a 50 16	 mov	 dl, BYTE PTR [eax+22]
  00171	84 d2		 test	 dl, dl
  00173	74 2f		 je	 SHORT $LN74@LoadBool_e
  00175	32 d3		 xor	 dl, bl
  00177	88 55 f6	 mov	 BYTE PTR __k$[ebp+22], dl
  0017a	8a 50 17	 mov	 dl, BYTE PTR [eax+23]
  0017d	84 d2		 test	 dl, dl
  0017f	74 1d		 je	 SHORT $LN73@LoadBool_e
  00181	8a 40 18	 mov	 al, BYTE PTR [eax+24]
  00184	80 f2 ea	 xor	 dl, -22			; ffffffeaH
  00187	88 55 f7	 mov	 BYTE PTR __k$[ebp+23], dl
  0018a	84 c0		 test	 al, al
  0018c	74 0a		 je	 SHORT $LN72@LoadBool_e
  0018e	34 ed		 xor	 al, -19			; ffffffedH
  00190	88 45 f8	 mov	 BYTE PTR __k$[ebp+24], al
  00193	e9 84 00 00 00	 jmp	 $LN1@LoadBool_e
$LN72@LoadBool_e:
  00198	c6 45 f8 ed	 mov	 BYTE PTR __k$[ebp+24], -19 ; ffffffedH
  0019c	eb 7e		 jmp	 SHORT $LN1@LoadBool_e
$LN73@LoadBool_e:
  0019e	c6 45 f7 ea	 mov	 BYTE PTR __k$[ebp+23], -22 ; ffffffeaH
  001a2	eb 78		 jmp	 SHORT $LN1@LoadBool_e
$LN74@LoadBool_e:
  001a4	88 5d f6	 mov	 BYTE PTR __k$[ebp+22], bl
  001a7	eb 73		 jmp	 SHORT $LN1@LoadBool_e
$LN75@LoadBool_e:
  001a9	88 4d f5	 mov	 BYTE PTR __k$[ebp+21], cl
  001ac	eb 6e		 jmp	 SHORT $LN1@LoadBool_e
$LN77@LoadBool_e:
  001ae	c6 45 f3 ea	 mov	 BYTE PTR __k$[ebp+19], -22 ; ffffffeaH
  001b2	eb 68		 jmp	 SHORT $LN1@LoadBool_e
$LN78@LoadBool_e:
  001b4	88 5d f2	 mov	 BYTE PTR __k$[ebp+18], bl
  001b7	eb 63		 jmp	 SHORT $LN1@LoadBool_e
$LN79@LoadBool_e:
  001b9	88 4d f1	 mov	 BYTE PTR __k$[ebp+17], cl
  001bc	eb 5e		 jmp	 SHORT $LN1@LoadBool_e
$LN80@LoadBool_e:
  001be	c6 45 f0 ed	 mov	 BYTE PTR __k$[ebp+16], -19 ; ffffffedH
  001c2	eb 58		 jmp	 SHORT $LN1@LoadBool_e
$LN81@LoadBool_e:
  001c4	c6 45 ef ea	 mov	 BYTE PTR __k$[ebp+15], -22 ; ffffffeaH
  001c8	eb 52		 jmp	 SHORT $LN1@LoadBool_e
$LN82@LoadBool_e:
  001ca	88 5d ee	 mov	 BYTE PTR __k$[ebp+14], bl
  001cd	eb 4d		 jmp	 SHORT $LN1@LoadBool_e
$LN83@LoadBool_e:
  001cf	88 4d ed	 mov	 BYTE PTR __k$[ebp+13], cl
  001d2	eb 48		 jmp	 SHORT $LN1@LoadBool_e
$LN84@LoadBool_e:
  001d4	c6 45 ec ed	 mov	 BYTE PTR __k$[ebp+12], -19 ; ffffffedH
  001d8	eb 42		 jmp	 SHORT $LN1@LoadBool_e
$LN85@LoadBool_e:
  001da	c6 45 eb ea	 mov	 BYTE PTR __k$[ebp+11], -22 ; ffffffeaH
  001de	eb 3c		 jmp	 SHORT $LN1@LoadBool_e
$LN86@LoadBool_e:
  001e0	88 5d ea	 mov	 BYTE PTR __k$[ebp+10], bl
  001e3	eb 37		 jmp	 SHORT $LN1@LoadBool_e
$LN87@LoadBool_e:
  001e5	88 4d e9	 mov	 BYTE PTR __k$[ebp+9], cl
  001e8	eb 32		 jmp	 SHORT $LN1@LoadBool_e
$LN88@LoadBool_e:
  001ea	c6 45 e8 ed	 mov	 BYTE PTR __k$[ebp+8], -19 ; ffffffedH
  001ee	eb 2c		 jmp	 SHORT $LN1@LoadBool_e
$LN89@LoadBool_e:
  001f0	c6 45 e7 ea	 mov	 BYTE PTR __k$[ebp+7], -22 ; ffffffeaH
  001f4	eb 26		 jmp	 SHORT $LN1@LoadBool_e
$LN90@LoadBool_e:
  001f6	88 5d e6	 mov	 BYTE PTR __k$[ebp+6], bl
  001f9	eb 21		 jmp	 SHORT $LN1@LoadBool_e
$LN91@LoadBool_e:
  001fb	88 4d e5	 mov	 BYTE PTR __k$[ebp+5], cl
  001fe	eb 1c		 jmp	 SHORT $LN1@LoadBool_e
$LN92@LoadBool_e:
  00200	c6 45 e4 ed	 mov	 BYTE PTR __k$[ebp+4], -19 ; ffffffedH
  00204	eb 16		 jmp	 SHORT $LN1@LoadBool_e
$LN93@LoadBool_e:
  00206	c6 45 e3 ea	 mov	 BYTE PTR __k$[ebp+3], -22 ; ffffffeaH
  0020a	eb 10		 jmp	 SHORT $LN1@LoadBool_e
$LN94@LoadBool_e:
  0020c	c6 45 e2 eb	 mov	 BYTE PTR __k$[ebp+2], -21 ; ffffffebH
  00210	eb 0a		 jmp	 SHORT $LN1@LoadBool_e
$LN95@LoadBool_e:
  00212	c6 45 e1 ec	 mov	 BYTE PTR __k$[ebp+1], -20 ; ffffffecH
  00216	eb 04		 jmp	 SHORT $LN1@LoadBool_e
$LN96@LoadBool_e:
  00218	c6 45 e0 ed	 mov	 BYTE PTR __k$[ebp], -19	; ffffffedH
$LN1@LoadBool_e:
  0021c	6a 05		 push	 5
  0021e	8d 45 e0	 lea	 eax, DWORD PTR __k$[ebp]
  00221	c6 45 f4 00	 mov	 BYTE PTR __k$[ebp+20], 0
  00225	5a		 pop	 edx
$LL104@LoadBool_e:
  00226	81 30 ed ec eb
	ea		 xor	 DWORD PTR [eax], -353637139 ; eaebecedH
  0022c	83 c0 04	 add	 eax, 4
  0022f	4a		 dec	 edx
  00230	75 f4		 jne	 SHORT $LL104@LoadBool_e

; 103  : 		return LoadBool(_k, b);

  00232	ff 75 0c	 push	 DWORD PTR _b$[ebp]
  00235	8d 45 e0	 lea	 eax, DWORD PTR __k$[ebp]
  00238	50		 push	 eax
  00239	8b ce		 mov	 ecx, esi
  0023b	ff 15 00 00 00
	00		 call	 DWORD PTR __imp_?LoadBool@ioINILoader@@QAE_NPBD_N@Z

; 104  : 	}

  00241	8b 4d fc	 mov	 ecx, DWORD PTR __$ArrayPad$[ebp]
  00244	5e		 pop	 esi
  00245	33 cd		 xor	 ecx, ebp
  00247	5b		 pop	 ebx
  00248	e8 00 00 00 00	 call	 @__security_check_cookie@4
  0024d	c9		 leave
  0024e	c2 08 00	 ret	 8
??$LoadBool_e@$0BF@@ioINILoader@@QAE_NAAY0BF@$$CBD_N@Z ENDP ; ioINILoader::LoadBool_e<21>
_TEXT	ENDS
PUBLIC	__$ArrayPad$
PUBLIC	??$LoadFloat_e@$0L@@ioINILoader@@QAEMAAY0L@$$CBDM@Z ; ioINILoader::LoadFloat_e<11>
; Function compile flags: /Ogsp
;	COMDAT ??$LoadFloat_e@$0L@@ioINILoader@@QAEMAAY0L@$$CBDM@Z
_TEXT	SEGMENT
__k$ = -20						; size = 11
__$ArrayPad$ = -4					; size = 4
_k$ = 8							; size = 4
_f$ = 12						; size = 4
??$LoadFloat_e@$0L@@ioINILoader@@QAEMAAY0L@$$CBDM@Z PROC ; ioINILoader::LoadFloat_e<11>, COMDAT
; _this$ = ecx

; 135  : 	{

  00000	55		 push	 ebp
  00001	8b ec		 mov	 ebp, esp
  00003	83 ec 14	 sub	 esp, 20			; 00000014H
  00006	a1 00 00 00 00	 mov	 eax, DWORD PTR ___security_cookie
  0000b	33 c5		 xor	 eax, ebp
  0000d	89 45 fc	 mov	 DWORD PTR __$ArrayPad$[ebp], eax
  00010	8b 45 08	 mov	 eax, DWORD PTR _k$[ebp]

; 136  : 		_ENCSTR(k, _k);

  00013	8a 10		 mov	 dl, BYTE PTR [eax]
  00015	56		 push	 esi
  00016	8b f1		 mov	 esi, ecx
  00018	84 d2		 test	 dl, dl
  0001a	0f 84 24 01 00
	00		 je	 $LN96@LoadFloat_@3
  00020	80 f2 ed	 xor	 dl, -19			; ffffffedH
  00023	88 55 ec	 mov	 BYTE PTR __k$[ebp], dl
  00026	8a 50 01	 mov	 dl, BYTE PTR [eax+1]
  00029	84 d2		 test	 dl, dl
  0002b	0f 84 0d 01 00
	00		 je	 $LN95@LoadFloat_@3
  00031	80 f2 ec	 xor	 dl, -20			; ffffffecH
  00034	88 55 ed	 mov	 BYTE PTR __k$[ebp+1], dl
  00037	8a 50 02	 mov	 dl, BYTE PTR [eax+2]
  0003a	84 d2		 test	 dl, dl
  0003c	0f 84 f6 00 00
	00		 je	 $LN94@LoadFloat_@3
  00042	80 f2 eb	 xor	 dl, -21			; ffffffebH
  00045	88 55 ee	 mov	 BYTE PTR __k$[ebp+2], dl
  00048	8a 50 03	 mov	 dl, BYTE PTR [eax+3]
  0004b	84 d2		 test	 dl, dl
  0004d	0f 84 df 00 00
	00		 je	 $LN93@LoadFloat_@3
  00053	80 f2 ea	 xor	 dl, -22			; ffffffeaH
  00056	88 55 ef	 mov	 BYTE PTR __k$[ebp+3], dl
  00059	8a 50 04	 mov	 dl, BYTE PTR [eax+4]
  0005c	84 d2		 test	 dl, dl
  0005e	0f 84 c8 00 00
	00		 je	 $LN92@LoadFloat_@3
  00064	80 f2 ed	 xor	 dl, -19			; ffffffedH
  00067	88 55 f0	 mov	 BYTE PTR __k$[ebp+4], dl
  0006a	8a 50 05	 mov	 dl, BYTE PTR [eax+5]
  0006d	84 d2		 test	 dl, dl
  0006f	0f 84 b1 00 00
	00		 je	 $LN91@LoadFloat_@3
  00075	80 f2 ec	 xor	 dl, -20			; ffffffecH
  00078	88 55 f1	 mov	 BYTE PTR __k$[ebp+5], dl
  0007b	8a 50 06	 mov	 dl, BYTE PTR [eax+6]
  0007e	84 d2		 test	 dl, dl
  00080	0f 84 9a 00 00
	00		 je	 $LN90@LoadFloat_@3
  00086	80 f2 eb	 xor	 dl, -21			; ffffffebH
  00089	88 55 f2	 mov	 BYTE PTR __k$[ebp+6], dl
  0008c	8a 50 07	 mov	 dl, BYTE PTR [eax+7]
  0008f	84 d2		 test	 dl, dl
  00091	0f 84 83 00 00
	00		 je	 $LN89@LoadFloat_@3
  00097	80 f2 ea	 xor	 dl, -22			; ffffffeaH
  0009a	88 55 f3	 mov	 BYTE PTR __k$[ebp+7], dl
  0009d	8a 50 08	 mov	 dl, BYTE PTR [eax+8]
  000a0	84 d2		 test	 dl, dl
  000a2	74 70		 je	 SHORT $LN88@LoadFloat_@3
  000a4	80 f2 ed	 xor	 dl, -19			; ffffffedH
  000a7	88 55 f4	 mov	 BYTE PTR __k$[ebp+8], dl
  000aa	8a 50 09	 mov	 dl, BYTE PTR [eax+9]
  000ad	84 d2		 test	 dl, dl
  000af	74 5d		 je	 SHORT $LN87@LoadFloat_@3
  000b1	80 f2 ec	 xor	 dl, -20			; ffffffecH
  000b4	80 78 0a 00	 cmp	 BYTE PTR [eax+10], 0
  000b8	88 55 f5	 mov	 BYTE PTR __k$[ebp+9], dl
  000bb	0f 84 87 00 00
	00		 je	 $LN1@LoadFloat_@3
  000c1	8a 50 0b	 mov	 dl, BYTE PTR [eax+11]
  000c4	84 d2		 test	 dl, dl
  000c6	74 40		 je	 SHORT $LN85@LoadFloat_@3
  000c8	80 f2 ea	 xor	 dl, -22			; ffffffeaH
  000cb	88 55 f7	 mov	 BYTE PTR __k$[ebp+11], dl
  000ce	8a 50 0c	 mov	 dl, BYTE PTR [eax+12]
  000d1	84 d2		 test	 dl, dl
  000d3	74 2d		 je	 SHORT $LN84@LoadFloat_@3
  000d5	80 f2 ed	 xor	 dl, -19			; ffffffedH
  000d8	88 55 f8	 mov	 BYTE PTR __k$[ebp+12], dl
  000db	8a 50 0d	 mov	 dl, BYTE PTR [eax+13]
  000de	84 d2		 test	 dl, dl
  000e0	74 1a		 je	 SHORT $LN83@LoadFloat_@3
  000e2	8a 40 0e	 mov	 al, BYTE PTR [eax+14]
  000e5	80 f2 ec	 xor	 dl, -20			; ffffffecH
  000e8	88 55 f9	 mov	 BYTE PTR __k$[ebp+13], dl
  000eb	84 c0		 test	 al, al
  000ed	74 07		 je	 SHORT $LN82@LoadFloat_@3
  000ef	34 eb		 xor	 al, -21			; ffffffebH
  000f1	88 45 fa	 mov	 BYTE PTR __k$[ebp+14], al
  000f4	eb 52		 jmp	 SHORT $LN1@LoadFloat_@3
$LN82@LoadFloat_@3:
  000f6	c6 45 fa eb	 mov	 BYTE PTR __k$[ebp+14], -21 ; ffffffebH
  000fa	eb 4c		 jmp	 SHORT $LN1@LoadFloat_@3
$LN83@LoadFloat_@3:
  000fc	c6 45 f9 ec	 mov	 BYTE PTR __k$[ebp+13], -20 ; ffffffecH
  00100	eb 46		 jmp	 SHORT $LN1@LoadFloat_@3
$LN84@LoadFloat_@3:
  00102	c6 45 f8 ed	 mov	 BYTE PTR __k$[ebp+12], -19 ; ffffffedH
  00106	eb 40		 jmp	 SHORT $LN1@LoadFloat_@3
$LN85@LoadFloat_@3:
  00108	c6 45 f7 ea	 mov	 BYTE PTR __k$[ebp+11], -22 ; ffffffeaH
  0010c	eb 3a		 jmp	 SHORT $LN1@LoadFloat_@3
$LN87@LoadFloat_@3:
  0010e	c6 45 f5 ec	 mov	 BYTE PTR __k$[ebp+9], -20 ; ffffffecH
  00112	eb 34		 jmp	 SHORT $LN1@LoadFloat_@3
$LN88@LoadFloat_@3:
  00114	c6 45 f4 ed	 mov	 BYTE PTR __k$[ebp+8], -19 ; ffffffedH
  00118	eb 2e		 jmp	 SHORT $LN1@LoadFloat_@3
$LN89@LoadFloat_@3:
  0011a	c6 45 f3 ea	 mov	 BYTE PTR __k$[ebp+7], -22 ; ffffffeaH
  0011e	eb 28		 jmp	 SHORT $LN1@LoadFloat_@3
$LN90@LoadFloat_@3:
  00120	c6 45 f2 eb	 mov	 BYTE PTR __k$[ebp+6], -21 ; ffffffebH
  00124	eb 22		 jmp	 SHORT $LN1@LoadFloat_@3
$LN91@LoadFloat_@3:
  00126	c6 45 f1 ec	 mov	 BYTE PTR __k$[ebp+5], -20 ; ffffffecH
  0012a	eb 1c		 jmp	 SHORT $LN1@LoadFloat_@3
$LN92@LoadFloat_@3:
  0012c	c6 45 f0 ed	 mov	 BYTE PTR __k$[ebp+4], -19 ; ffffffedH
  00130	eb 16		 jmp	 SHORT $LN1@LoadFloat_@3
$LN93@LoadFloat_@3:
  00132	c6 45 ef ea	 mov	 BYTE PTR __k$[ebp+3], -22 ; ffffffeaH
  00136	eb 10		 jmp	 SHORT $LN1@LoadFloat_@3
$LN94@LoadFloat_@3:
  00138	c6 45 ee eb	 mov	 BYTE PTR __k$[ebp+2], -21 ; ffffffebH
  0013c	eb 0a		 jmp	 SHORT $LN1@LoadFloat_@3
$LN95@LoadFloat_@3:
  0013e	c6 45 ed ec	 mov	 BYTE PTR __k$[ebp+1], -20 ; ffffffecH
  00142	eb 04		 jmp	 SHORT $LN1@LoadFloat_@3
$LN96@LoadFloat_@3:
  00144	c6 45 ec ed	 mov	 BYTE PTR __k$[ebp], -19	; ffffffedH
$LN1@LoadFloat_@3:
  00148	6a 02		 push	 2
  0014a	8d 45 ec	 lea	 eax, DWORD PTR __k$[ebp]
  0014d	c6 45 f6 00	 mov	 BYTE PTR __k$[ebp+10], 0
  00151	5a		 pop	 edx
$LL104@LoadFloat_@3:
  00152	81 30 ed ec eb
	ea		 xor	 DWORD PTR [eax], -353637139 ; eaebecedH
  00158	83 c0 04	 add	 eax, 4
  0015b	4a		 dec	 edx
  0015c	75 f4		 jne	 SHORT $LL104@LoadFloat_@3
  0015e	6a 08		 push	 8
  00160	58		 pop	 eax
$LL101@LoadFloat_@3:
  00161	8b c8		 mov	 ecx, eax
  00163	81 e1 03 00 00
	80		 and	 ecx, -2147483645	; 80000003H
  00169	79 05		 jns	 SHORT $LN111@LoadFloat_@3
  0016b	49		 dec	 ecx
  0016c	83 c9 fc	 or	 ecx, -4			; fffffffcH
  0016f	41		 inc	 ecx
$LN111@LoadFloat_@3:
  00170	b2 ed		 mov	 dl, -19			; ffffffedH
  00172	2a d1		 sub	 dl, cl
  00174	30 54 05 ec	 xor	 BYTE PTR __k$[ebp+eax], dl
  00178	40		 inc	 eax
  00179	83 f8 0a	 cmp	 eax, 10			; 0000000aH
  0017c	7c e3		 jl	 SHORT $LL101@LoadFloat_@3

; 137  : 		return LoadFloat(_k, f);

  0017e	f3 0f 10 45 0c	 movss	 xmm0, DWORD PTR _f$[ebp]
  00183	51		 push	 ecx
  00184	8d 45 ec	 lea	 eax, DWORD PTR __k$[ebp]
  00187	f3 0f 11 04 24	 movss	 DWORD PTR [esp], xmm0
  0018c	50		 push	 eax
  0018d	8b ce		 mov	 ecx, esi
  0018f	ff 15 00 00 00
	00		 call	 DWORD PTR __imp_?LoadFloat@ioINILoader@@QAEMPBDM@Z

; 138  : 	}

  00195	8b 4d fc	 mov	 ecx, DWORD PTR __$ArrayPad$[ebp]
  00198	33 cd		 xor	 ecx, ebp
  0019a	5e		 pop	 esi
  0019b	e8 00 00 00 00	 call	 @__security_check_cookie@4
  001a0	c9		 leave
  001a1	c2 08 00	 ret	 8
??$LoadFloat_e@$0L@@ioINILoader@@QAEMAAY0L@$$CBDM@Z ENDP ; ioINILoader::LoadFloat_e<11>
_TEXT	ENDS
PUBLIC	__$ArrayPad$
PUBLIC	??$LoadInt_e@$0BG@@ioINILoader@@QAEHAAY0BG@$$CBDH@Z ; ioINILoader::LoadInt_e<22>
EXTRN	__imp_?LoadInt@ioINILoader@@QAEHPBDH@Z:PROC
; Function compile flags: /Ogsp
;	COMDAT ??$LoadInt_e@$0BG@@ioINILoader@@QAEHAAY0BG@$$CBDH@Z
_TEXT	SEGMENT
__k$ = -32						; size = 22
__$ArrayPad$ = -4					; size = 4
_k$ = 8							; size = 4
_i$ = 12						; size = 4
??$LoadInt_e@$0BG@@ioINILoader@@QAEHAAY0BG@$$CBDH@Z PROC ; ioINILoader::LoadInt_e<22>, COMDAT
; _this$ = ecx

; 118  : 	{

  00000	55		 push	 ebp
  00001	8b ec		 mov	 ebp, esp
  00003	83 ec 20	 sub	 esp, 32			; 00000020H
  00006	a1 00 00 00 00	 mov	 eax, DWORD PTR ___security_cookie
  0000b	33 c5		 xor	 eax, ebp
  0000d	89 45 fc	 mov	 DWORD PTR __$ArrayPad$[ebp], eax
  00010	8b 45 08	 mov	 eax, DWORD PTR _k$[ebp]

; 119  : 		_ENCSTR(k, _k);

  00013	8a 10		 mov	 dl, BYTE PTR [eax]
  00015	53		 push	 ebx
  00016	56		 push	 esi
  00017	8b f1		 mov	 esi, ecx
  00019	84 d2		 test	 dl, dl
  0001b	0f 84 15 02 00
	00		 je	 $LN96@LoadInt_e
  00021	80 f2 ed	 xor	 dl, -19			; ffffffedH
  00024	88 55 e0	 mov	 BYTE PTR __k$[ebp], dl
  00027	8a 50 01	 mov	 dl, BYTE PTR [eax+1]
  0002a	84 d2		 test	 dl, dl
  0002c	0f 84 fe 01 00
	00		 je	 $LN95@LoadInt_e
  00032	80 f2 ec	 xor	 dl, -20			; ffffffecH
  00035	88 55 e1	 mov	 BYTE PTR __k$[ebp+1], dl
  00038	8a 50 02	 mov	 dl, BYTE PTR [eax+2]
  0003b	84 d2		 test	 dl, dl
  0003d	0f 84 e7 01 00
	00		 je	 $LN94@LoadInt_e
  00043	b1 eb		 mov	 cl, -21			; ffffffebH
  00045	32 d1		 xor	 dl, cl
  00047	88 55 e2	 mov	 BYTE PTR __k$[ebp+2], dl
  0004a	8a 50 03	 mov	 dl, BYTE PTR [eax+3]
  0004d	84 d2		 test	 dl, dl
  0004f	0f 84 cf 01 00
	00		 je	 $LN93@LoadInt_e
  00055	b3 ea		 mov	 bl, -22			; ffffffeaH
  00057	32 d3		 xor	 dl, bl
  00059	88 55 e3	 mov	 BYTE PTR __k$[ebp+3], dl
  0005c	8a 50 04	 mov	 dl, BYTE PTR [eax+4]
  0005f	84 d2		 test	 dl, dl
  00061	0f 84 b7 01 00
	00		 je	 $LN92@LoadInt_e
  00067	80 f2 ed	 xor	 dl, -19			; ffffffedH
  0006a	88 55 e4	 mov	 BYTE PTR __k$[ebp+4], dl
  0006d	8a 50 05	 mov	 dl, BYTE PTR [eax+5]
  00070	84 d2		 test	 dl, dl
  00072	0f 84 a0 01 00
	00		 je	 $LN91@LoadInt_e
  00078	80 f2 ec	 xor	 dl, -20			; ffffffecH
  0007b	88 55 e5	 mov	 BYTE PTR __k$[ebp+5], dl
  0007e	8a 50 06	 mov	 dl, BYTE PTR [eax+6]
  00081	84 d2		 test	 dl, dl
  00083	0f 84 8a 01 00
	00		 je	 $LN90@LoadInt_e
  00089	32 d1		 xor	 dl, cl
  0008b	88 55 e6	 mov	 BYTE PTR __k$[ebp+6], dl
  0008e	8a 50 07	 mov	 dl, BYTE PTR [eax+7]
  00091	84 d2		 test	 dl, dl
  00093	0f 84 75 01 00
	00		 je	 $LN89@LoadInt_e
  00099	32 d3		 xor	 dl, bl
  0009b	88 55 e7	 mov	 BYTE PTR __k$[ebp+7], dl
  0009e	8a 50 08	 mov	 dl, BYTE PTR [eax+8]
  000a1	84 d2		 test	 dl, dl
  000a3	0f 84 5f 01 00
	00		 je	 $LN88@LoadInt_e
  000a9	80 f2 ed	 xor	 dl, -19			; ffffffedH
  000ac	88 55 e8	 mov	 BYTE PTR __k$[ebp+8], dl
  000af	8a 50 09	 mov	 dl, BYTE PTR [eax+9]
  000b2	84 d2		 test	 dl, dl
  000b4	0f 84 48 01 00
	00		 je	 $LN87@LoadInt_e
  000ba	80 f2 ec	 xor	 dl, -20			; ffffffecH
  000bd	88 55 e9	 mov	 BYTE PTR __k$[ebp+9], dl
  000c0	8a 50 0a	 mov	 dl, BYTE PTR [eax+10]
  000c3	84 d2		 test	 dl, dl
  000c5	0f 84 32 01 00
	00		 je	 $LN86@LoadInt_e
  000cb	32 d1		 xor	 dl, cl
  000cd	88 55 ea	 mov	 BYTE PTR __k$[ebp+10], dl
  000d0	8a 50 0b	 mov	 dl, BYTE PTR [eax+11]
  000d3	84 d2		 test	 dl, dl
  000d5	0f 84 1d 01 00
	00		 je	 $LN85@LoadInt_e
  000db	32 d3		 xor	 dl, bl
  000dd	88 55 eb	 mov	 BYTE PTR __k$[ebp+11], dl
  000e0	8a 50 0c	 mov	 dl, BYTE PTR [eax+12]
  000e3	84 d2		 test	 dl, dl
  000e5	0f 84 07 01 00
	00		 je	 $LN84@LoadInt_e
  000eb	80 f2 ed	 xor	 dl, -19			; ffffffedH
  000ee	88 55 ec	 mov	 BYTE PTR __k$[ebp+12], dl
  000f1	8a 50 0d	 mov	 dl, BYTE PTR [eax+13]
  000f4	84 d2		 test	 dl, dl
  000f6	0f 84 f0 00 00
	00		 je	 $LN83@LoadInt_e
  000fc	80 f2 ec	 xor	 dl, -20			; ffffffecH
  000ff	88 55 ed	 mov	 BYTE PTR __k$[ebp+13], dl
  00102	8a 50 0e	 mov	 dl, BYTE PTR [eax+14]
  00105	84 d2		 test	 dl, dl
  00107	0f 84 da 00 00
	00		 je	 $LN82@LoadInt_e
  0010d	32 d1		 xor	 dl, cl
  0010f	88 55 ee	 mov	 BYTE PTR __k$[ebp+14], dl
  00112	8a 50 0f	 mov	 dl, BYTE PTR [eax+15]
  00115	84 d2		 test	 dl, dl
  00117	0f 84 c5 00 00
	00		 je	 $LN81@LoadInt_e
  0011d	32 d3		 xor	 dl, bl
  0011f	88 55 ef	 mov	 BYTE PTR __k$[ebp+15], dl
  00122	8a 50 10	 mov	 dl, BYTE PTR [eax+16]
  00125	84 d2		 test	 dl, dl
  00127	0f 84 af 00 00
	00		 je	 $LN80@LoadInt_e
  0012d	80 f2 ed	 xor	 dl, -19			; ffffffedH
  00130	88 55 f0	 mov	 BYTE PTR __k$[ebp+16], dl
  00133	8a 50 11	 mov	 dl, BYTE PTR [eax+17]
  00136	84 d2		 test	 dl, dl
  00138	0f 84 98 00 00
	00		 je	 $LN79@LoadInt_e
  0013e	80 f2 ec	 xor	 dl, -20			; ffffffecH
  00141	88 55 f1	 mov	 BYTE PTR __k$[ebp+17], dl
  00144	8a 50 12	 mov	 dl, BYTE PTR [eax+18]
  00147	84 d2		 test	 dl, dl
  00149	0f 84 82 00 00
	00		 je	 $LN78@LoadInt_e
  0014f	32 d1		 xor	 dl, cl
  00151	88 55 f2	 mov	 BYTE PTR __k$[ebp+18], dl
  00154	8a 50 13	 mov	 dl, BYTE PTR [eax+19]
  00157	84 d2		 test	 dl, dl
  00159	74 71		 je	 SHORT $LN77@LoadInt_e
  0015b	32 d3		 xor	 dl, bl
  0015d	88 55 f3	 mov	 BYTE PTR __k$[ebp+19], dl
  00160	8a 50 14	 mov	 dl, BYTE PTR [eax+20]
  00163	84 d2		 test	 dl, dl
  00165	74 5f		 je	 SHORT $LN76@LoadInt_e
  00167	80 f2 ed	 xor	 dl, -19			; ffffffedH
  0016a	80 78 15 00	 cmp	 BYTE PTR [eax+21], 0
  0016e	88 55 f4	 mov	 BYTE PTR __k$[ebp+20], dl
  00171	0f 84 c3 00 00
	00		 je	 $LN1@LoadInt_e
  00177	8a 50 16	 mov	 dl, BYTE PTR [eax+22]
  0017a	84 d2		 test	 dl, dl
  0017c	74 43		 je	 SHORT $LN74@LoadInt_e
  0017e	32 d1		 xor	 dl, cl
  00180	88 55 f6	 mov	 BYTE PTR __k$[ebp+22], dl
  00183	8a 50 17	 mov	 dl, BYTE PTR [eax+23]
  00186	84 d2		 test	 dl, dl
  00188	74 32		 je	 SHORT $LN73@LoadInt_e
  0018a	32 d3		 xor	 dl, bl
  0018c	88 55 f7	 mov	 BYTE PTR __k$[ebp+23], dl
  0018f	8a 50 18	 mov	 dl, BYTE PTR [eax+24]
  00192	84 d2		 test	 dl, dl
  00194	74 20		 je	 SHORT $LN72@LoadInt_e
  00196	8a 40 19	 mov	 al, BYTE PTR [eax+25]
  00199	80 f2 ed	 xor	 dl, -19			; ffffffedH
  0019c	88 55 f8	 mov	 BYTE PTR __k$[ebp+24], dl
  0019f	84 c0		 test	 al, al
  001a1	74 0a		 je	 SHORT $LN71@LoadInt_e
  001a3	34 ec		 xor	 al, -20			; ffffffecH
  001a5	88 45 f9	 mov	 BYTE PTR __k$[ebp+25], al
  001a8	e9 8d 00 00 00	 jmp	 $LN1@LoadInt_e
$LN71@LoadInt_e:
  001ad	c6 45 f9 ec	 mov	 BYTE PTR __k$[ebp+25], -20 ; ffffffecH
  001b1	e9 84 00 00 00	 jmp	 $LN1@LoadInt_e
$LN72@LoadInt_e:
  001b6	c6 45 f8 ed	 mov	 BYTE PTR __k$[ebp+24], -19 ; ffffffedH
  001ba	eb 7e		 jmp	 SHORT $LN1@LoadInt_e
$LN73@LoadInt_e:
  001bc	88 5d f7	 mov	 BYTE PTR __k$[ebp+23], bl
  001bf	eb 79		 jmp	 SHORT $LN1@LoadInt_e
$LN74@LoadInt_e:
  001c1	88 4d f6	 mov	 BYTE PTR __k$[ebp+22], cl
  001c4	eb 74		 jmp	 SHORT $LN1@LoadInt_e
$LN76@LoadInt_e:
  001c6	c6 45 f4 ed	 mov	 BYTE PTR __k$[ebp+20], -19 ; ffffffedH
  001ca	eb 6e		 jmp	 SHORT $LN1@LoadInt_e
$LN77@LoadInt_e:
  001cc	88 5d f3	 mov	 BYTE PTR __k$[ebp+19], bl
  001cf	eb 69		 jmp	 SHORT $LN1@LoadInt_e
$LN78@LoadInt_e:
  001d1	88 4d f2	 mov	 BYTE PTR __k$[ebp+18], cl
  001d4	eb 64		 jmp	 SHORT $LN1@LoadInt_e
$LN79@LoadInt_e:
  001d6	c6 45 f1 ec	 mov	 BYTE PTR __k$[ebp+17], -20 ; ffffffecH
  001da	eb 5e		 jmp	 SHORT $LN1@LoadInt_e
$LN80@LoadInt_e:
  001dc	c6 45 f0 ed	 mov	 BYTE PTR __k$[ebp+16], -19 ; ffffffedH
  001e0	eb 58		 jmp	 SHORT $LN1@LoadInt_e
$LN81@LoadInt_e:
  001e2	88 5d ef	 mov	 BYTE PTR __k$[ebp+15], bl
  001e5	eb 53		 jmp	 SHORT $LN1@LoadInt_e
$LN82@LoadInt_e:
  001e7	88 4d ee	 mov	 BYTE PTR __k$[ebp+14], cl
  001ea	eb 4e		 jmp	 SHORT $LN1@LoadInt_e
$LN83@LoadInt_e:
  001ec	c6 45 ed ec	 mov	 BYTE PTR __k$[ebp+13], -20 ; ffffffecH
  001f0	eb 48		 jmp	 SHORT $LN1@LoadInt_e
$LN84@LoadInt_e:
  001f2	c6 45 ec ed	 mov	 BYTE PTR __k$[ebp+12], -19 ; ffffffedH
  001f6	eb 42		 jmp	 SHORT $LN1@LoadInt_e
$LN85@LoadInt_e:
  001f8	88 5d eb	 mov	 BYTE PTR __k$[ebp+11], bl
  001fb	eb 3d		 jmp	 SHORT $LN1@LoadInt_e
$LN86@LoadInt_e:
  001fd	88 4d ea	 mov	 BYTE PTR __k$[ebp+10], cl
  00200	eb 38		 jmp	 SHORT $LN1@LoadInt_e
$LN87@LoadInt_e:
  00202	c6 45 e9 ec	 mov	 BYTE PTR __k$[ebp+9], -20 ; ffffffecH
  00206	eb 32		 jmp	 SHORT $LN1@LoadInt_e
$LN88@LoadInt_e:
  00208	c6 45 e8 ed	 mov	 BYTE PTR __k$[ebp+8], -19 ; ffffffedH
  0020c	eb 2c		 jmp	 SHORT $LN1@LoadInt_e
$LN89@LoadInt_e:
  0020e	88 5d e7	 mov	 BYTE PTR __k$[ebp+7], bl
  00211	eb 27		 jmp	 SHORT $LN1@LoadInt_e
$LN90@LoadInt_e:
  00213	88 4d e6	 mov	 BYTE PTR __k$[ebp+6], cl
  00216	eb 22		 jmp	 SHORT $LN1@LoadInt_e
$LN91@LoadInt_e:
  00218	c6 45 e5 ec	 mov	 BYTE PTR __k$[ebp+5], -20 ; ffffffecH
  0021c	eb 1c		 jmp	 SHORT $LN1@LoadInt_e
$LN92@LoadInt_e:
  0021e	c6 45 e4 ed	 mov	 BYTE PTR __k$[ebp+4], -19 ; ffffffedH
  00222	eb 16		 jmp	 SHORT $LN1@LoadInt_e
$LN93@LoadInt_e:
  00224	c6 45 e3 ea	 mov	 BYTE PTR __k$[ebp+3], -22 ; ffffffeaH
  00228	eb 10		 jmp	 SHORT $LN1@LoadInt_e
$LN94@LoadInt_e:
  0022a	c6 45 e2 eb	 mov	 BYTE PTR __k$[ebp+2], -21 ; ffffffebH
  0022e	eb 0a		 jmp	 SHORT $LN1@LoadInt_e
$LN95@LoadInt_e:
  00230	c6 45 e1 ec	 mov	 BYTE PTR __k$[ebp+1], -20 ; ffffffecH
  00234	eb 04		 jmp	 SHORT $LN1@LoadInt_e
$LN96@LoadInt_e:
  00236	c6 45 e0 ed	 mov	 BYTE PTR __k$[ebp], -19	; ffffffedH
$LN1@LoadInt_e:
  0023a	6a 05		 push	 5
  0023c	8d 45 e0	 lea	 eax, DWORD PTR __k$[ebp]
  0023f	c6 45 f5 00	 mov	 BYTE PTR __k$[ebp+21], 0
  00243	5a		 pop	 edx
$LL104@LoadInt_e:
  00244	81 30 ed ec eb
	ea		 xor	 DWORD PTR [eax], -353637139 ; eaebecedH
  0024a	83 c0 04	 add	 eax, 4
  0024d	4a		 dec	 edx
  0024e	75 f4		 jne	 SHORT $LL104@LoadInt_e

; 120  : 		return LoadInt(_k, i);

  00250	ff 75 0c	 push	 DWORD PTR _i$[ebp]
  00253	80 75 f4 ed	 xor	 BYTE PTR __k$[ebp+20], -19 ; ffffffedH
  00257	8d 45 e0	 lea	 eax, DWORD PTR __k$[ebp]
  0025a	50		 push	 eax
  0025b	8b ce		 mov	 ecx, esi
  0025d	ff 15 00 00 00
	00		 call	 DWORD PTR __imp_?LoadInt@ioINILoader@@QAEHPBDH@Z

; 121  : 	}

  00263	8b 4d fc	 mov	 ecx, DWORD PTR __$ArrayPad$[ebp]
  00266	5e		 pop	 esi
  00267	33 cd		 xor	 ecx, ebp
  00269	5b		 pop	 ebx
  0026a	e8 00 00 00 00	 call	 @__security_check_cookie@4
  0026f	c9		 leave
  00270	c2 08 00	 ret	 8
??$LoadInt_e@$0BG@@ioINILoader@@QAEHAAY0BG@$$CBDH@Z ENDP ; ioINILoader::LoadInt_e<22>
_TEXT	ENDS
PUBLIC	_this$GSCopy$
PUBLIC	__$ArrayPad$
PUBLIC	??$LoadString_e@$0P@@ioINILoader@@QAEXAAY0P@$$CBDAAY00$$CBDPADH@Z ; ioINILoader::LoadString_e<15>
EXTRN	__imp_?LoadStringA@ioINILoader@@QAEXPBD0PADH@Z:PROC
; Function compile flags: /Ogsp
;	COMDAT ??$LoadString_e@$0P@@ioINILoader@@QAEXAAY0P@$$CBDAAY00$$CBDPADH@Z
_TEXT	SEGMENT
_this$GSCopy$ = -28					; size = 4
__k$ = -24						; size = 15
__$ArrayPad$ = -4					; size = 4
_k$ = 8							; size = 4
_d$ = 12						; size = 4
_b$ = 16						; size = 4
_i$ = 20						; size = 4
??$LoadString_e@$0P@@ioINILoader@@QAEXAAY0P@$$CBDAAY00$$CBDPADH@Z PROC ; ioINILoader::LoadString_e<15>, COMDAT
; _this$ = ecx

; 161  : 	{

  00000	55		 push	 ebp
  00001	8b ec		 mov	 ebp, esp
  00003	83 ec 1c	 sub	 esp, 28			; 0000001cH
  00006	a1 00 00 00 00	 mov	 eax, DWORD PTR ___security_cookie
  0000b	33 c5		 xor	 eax, ebp
  0000d	89 45 fc	 mov	 DWORD PTR __$ArrayPad$[ebp], eax
  00010	8b 45 08	 mov	 eax, DWORD PTR _k$[ebp]

; 162  : 		_ENCSTR(k, _k);

  00013	8a 10		 mov	 dl, BYTE PTR [eax]
  00015	56		 push	 esi
  00016	8b 75 0c	 mov	 esi, DWORD PTR _d$[ebp]
  00019	57		 push	 edi
  0001a	8b 7d 10	 mov	 edi, DWORD PTR _b$[ebp]
  0001d	89 4d e4	 mov	 DWORD PTR _this$GSCopy$[ebp], ecx
  00020	84 d2		 test	 dl, dl
  00022	0f 84 75 01 00
	00		 je	 $LN96@LoadString
  00028	80 f2 ed	 xor	 dl, -19			; ffffffedH
  0002b	88 55 e8	 mov	 BYTE PTR __k$[ebp], dl
  0002e	8a 50 01	 mov	 dl, BYTE PTR [eax+1]
  00031	84 d2		 test	 dl, dl
  00033	0f 84 5e 01 00
	00		 je	 $LN95@LoadString
  00039	b1 ec		 mov	 cl, -20			; ffffffecH
  0003b	32 d1		 xor	 dl, cl
  0003d	88 55 e9	 mov	 BYTE PTR __k$[ebp+1], dl
  00040	8a 50 02	 mov	 dl, BYTE PTR [eax+2]
  00043	84 d2		 test	 dl, dl
  00045	0f 84 46 01 00
	00		 je	 $LN94@LoadString
  0004b	80 f2 eb	 xor	 dl, -21			; ffffffebH
  0004e	88 55 ea	 mov	 BYTE PTR __k$[ebp+2], dl
  00051	8a 50 03	 mov	 dl, BYTE PTR [eax+3]
  00054	84 d2		 test	 dl, dl
  00056	0f 84 2f 01 00
	00		 je	 $LN93@LoadString
  0005c	80 f2 ea	 xor	 dl, -22			; ffffffeaH
  0005f	88 55 eb	 mov	 BYTE PTR __k$[ebp+3], dl
  00062	8a 50 04	 mov	 dl, BYTE PTR [eax+4]
  00065	84 d2		 test	 dl, dl
  00067	0f 84 18 01 00
	00		 je	 $LN92@LoadString
  0006d	80 f2 ed	 xor	 dl, -19			; ffffffedH
  00070	88 55 ec	 mov	 BYTE PTR __k$[ebp+4], dl
  00073	8a 50 05	 mov	 dl, BYTE PTR [eax+5]
  00076	84 d2		 test	 dl, dl
  00078	0f 84 02 01 00
	00		 je	 $LN91@LoadString
  0007e	32 d1		 xor	 dl, cl
  00080	88 55 ed	 mov	 BYTE PTR __k$[ebp+5], dl
  00083	8a 50 06	 mov	 dl, BYTE PTR [eax+6]
  00086	84 d2		 test	 dl, dl
  00088	0f 84 ec 00 00
	00		 je	 $LN90@LoadString
  0008e	80 f2 eb	 xor	 dl, -21			; ffffffebH
  00091	88 55 ee	 mov	 BYTE PTR __k$[ebp+6], dl
  00094	8a 50 07	 mov	 dl, BYTE PTR [eax+7]
  00097	84 d2		 test	 dl, dl
  00099	0f 84 d5 00 00
	00		 je	 $LN89@LoadString
  0009f	80 f2 ea	 xor	 dl, -22			; ffffffeaH
  000a2	88 55 ef	 mov	 BYTE PTR __k$[ebp+7], dl
  000a5	8a 50 08	 mov	 dl, BYTE PTR [eax+8]
  000a8	84 d2		 test	 dl, dl
  000aa	0f 84 be 00 00
	00		 je	 $LN88@LoadString
  000b0	80 f2 ed	 xor	 dl, -19			; ffffffedH
  000b3	88 55 f0	 mov	 BYTE PTR __k$[ebp+8], dl
  000b6	8a 50 09	 mov	 dl, BYTE PTR [eax+9]
  000b9	84 d2		 test	 dl, dl
  000bb	0f 84 a8 00 00
	00		 je	 $LN87@LoadString
  000c1	32 d1		 xor	 dl, cl
  000c3	88 55 f1	 mov	 BYTE PTR __k$[ebp+9], dl
  000c6	8a 50 0a	 mov	 dl, BYTE PTR [eax+10]
  000c9	84 d2		 test	 dl, dl
  000cb	0f 84 92 00 00
	00		 je	 $LN86@LoadString
  000d1	80 f2 eb	 xor	 dl, -21			; ffffffebH
  000d4	88 55 f2	 mov	 BYTE PTR __k$[ebp+10], dl
  000d7	8a 50 0b	 mov	 dl, BYTE PTR [eax+11]
  000da	84 d2		 test	 dl, dl
  000dc	74 7f		 je	 SHORT $LN85@LoadString
  000de	80 f2 ea	 xor	 dl, -22			; ffffffeaH
  000e1	88 55 f3	 mov	 BYTE PTR __k$[ebp+11], dl
  000e4	8a 50 0c	 mov	 dl, BYTE PTR [eax+12]
  000e7	84 d2		 test	 dl, dl
  000e9	74 6c		 je	 SHORT $LN84@LoadString
  000eb	80 f2 ed	 xor	 dl, -19			; ffffffedH
  000ee	88 55 f4	 mov	 BYTE PTR __k$[ebp+12], dl
  000f1	8a 50 0d	 mov	 dl, BYTE PTR [eax+13]
  000f4	84 d2		 test	 dl, dl
  000f6	74 5a		 je	 SHORT $LN83@LoadString
  000f8	32 d1		 xor	 dl, cl
  000fa	80 78 0e 00	 cmp	 BYTE PTR [eax+14], 0
  000fe	88 55 f5	 mov	 BYTE PTR __k$[ebp+13], dl
  00101	0f 84 9a 00 00
	00		 je	 $LN111@LoadString
  00107	8a 50 0f	 mov	 dl, BYTE PTR [eax+15]
  0010a	84 d2		 test	 dl, dl
  0010c	74 3e		 je	 SHORT $LN81@LoadString
  0010e	80 f2 ea	 xor	 dl, -22			; ffffffeaH
  00111	88 55 f7	 mov	 BYTE PTR __k$[ebp+15], dl
  00114	8a 50 10	 mov	 dl, BYTE PTR [eax+16]
  00117	84 d2		 test	 dl, dl
  00119	74 2b		 je	 SHORT $LN80@LoadString
  0011b	80 f2 ed	 xor	 dl, -19			; ffffffedH
  0011e	88 55 f8	 mov	 BYTE PTR __k$[ebp+16], dl
  00121	8a 50 11	 mov	 dl, BYTE PTR [eax+17]
  00124	84 d2		 test	 dl, dl
  00126	74 19		 je	 SHORT $LN79@LoadString
  00128	8a 40 12	 mov	 al, BYTE PTR [eax+18]
  0012b	32 d1		 xor	 dl, cl
  0012d	88 55 f9	 mov	 BYTE PTR __k$[ebp+17], dl
  00130	84 c0		 test	 al, al
  00132	74 07		 je	 SHORT $LN78@LoadString
  00134	34 eb		 xor	 al, -21			; ffffffebH
  00136	88 45 fa	 mov	 BYTE PTR __k$[ebp+18], al
  00139	eb 66		 jmp	 SHORT $LN111@LoadString
$LN78@LoadString:
  0013b	c6 45 fa eb	 mov	 BYTE PTR __k$[ebp+18], -21 ; ffffffebH
  0013f	eb 60		 jmp	 SHORT $LN111@LoadString
$LN79@LoadString:
  00141	88 4d f9	 mov	 BYTE PTR __k$[ebp+17], cl
  00144	eb 5b		 jmp	 SHORT $LN111@LoadString
$LN80@LoadString:
  00146	c6 45 f8 ed	 mov	 BYTE PTR __k$[ebp+16], -19 ; ffffffedH
  0014a	eb 55		 jmp	 SHORT $LN111@LoadString
$LN81@LoadString:
  0014c	c6 45 f7 ea	 mov	 BYTE PTR __k$[ebp+15], -22 ; ffffffeaH
  00150	eb 4f		 jmp	 SHORT $LN111@LoadString
$LN83@LoadString:
  00152	88 4d f5	 mov	 BYTE PTR __k$[ebp+13], cl
  00155	eb 4a		 jmp	 SHORT $LN111@LoadString
$LN84@LoadString:
  00157	c6 45 f4 ed	 mov	 BYTE PTR __k$[ebp+12], -19 ; ffffffedH
  0015b	eb 44		 jmp	 SHORT $LN111@LoadString
$LN85@LoadString:
  0015d	c6 45 f3 ea	 mov	 BYTE PTR __k$[ebp+11], -22 ; ffffffeaH
  00161	eb 3e		 jmp	 SHORT $LN111@LoadString
$LN86@LoadString:
  00163	c6 45 f2 eb	 mov	 BYTE PTR __k$[ebp+10], -21 ; ffffffebH
  00167	eb 38		 jmp	 SHORT $LN111@LoadString
$LN87@LoadString:
  00169	88 4d f1	 mov	 BYTE PTR __k$[ebp+9], cl
  0016c	eb 33		 jmp	 SHORT $LN111@LoadString
$LN88@LoadString:
  0016e	c6 45 f0 ed	 mov	 BYTE PTR __k$[ebp+8], -19 ; ffffffedH
  00172	eb 2d		 jmp	 SHORT $LN111@LoadString
$LN89@LoadString:
  00174	c6 45 ef ea	 mov	 BYTE PTR __k$[ebp+7], -22 ; ffffffeaH
  00178	eb 27		 jmp	 SHORT $LN111@LoadString
$LN90@LoadString:
  0017a	c6 45 ee eb	 mov	 BYTE PTR __k$[ebp+6], -21 ; ffffffebH
  0017e	eb 21		 jmp	 SHORT $LN111@LoadString
$LN91@LoadString:
  00180	88 4d ed	 mov	 BYTE PTR __k$[ebp+5], cl
  00183	eb 1c		 jmp	 SHORT $LN111@LoadString
$LN92@LoadString:
  00185	c6 45 ec ed	 mov	 BYTE PTR __k$[ebp+4], -19 ; ffffffedH
  00189	eb 16		 jmp	 SHORT $LN111@LoadString
$LN93@LoadString:
  0018b	c6 45 eb ea	 mov	 BYTE PTR __k$[ebp+3], -22 ; ffffffeaH
  0018f	eb 10		 jmp	 SHORT $LN111@LoadString
$LN94@LoadString:
  00191	c6 45 ea eb	 mov	 BYTE PTR __k$[ebp+2], -21 ; ffffffebH
  00195	eb 0a		 jmp	 SHORT $LN111@LoadString
$LN95@LoadString:
  00197	c6 45 e9 ec	 mov	 BYTE PTR __k$[ebp+1], -20 ; ffffffecH
  0019b	eb 04		 jmp	 SHORT $LN111@LoadString
$LN96@LoadString:
  0019d	c6 45 e8 ed	 mov	 BYTE PTR __k$[ebp], -19	; ffffffedH
$LN111@LoadString:
  001a1	6a 03		 push	 3
  001a3	8d 45 e8	 lea	 eax, DWORD PTR __k$[ebp]
  001a6	c6 45 f6 00	 mov	 BYTE PTR __k$[ebp+14], 0
  001aa	5a		 pop	 edx
$LL104@LoadString:
  001ab	81 30 ed ec eb
	ea		 xor	 DWORD PTR [eax], -353637139 ; eaebecedH
  001b1	83 c0 04	 add	 eax, 4
  001b4	4a		 dec	 edx
  001b5	75 f4		 jne	 SHORT $LL104@LoadString
  001b7	6a 0c		 push	 12			; 0000000cH
  001b9	58		 pop	 eax
$LL101@LoadString:
  001ba	8b c8		 mov	 ecx, eax
  001bc	81 e1 03 00 00
	80		 and	 ecx, -2147483645	; 80000003H
  001c2	79 05		 jns	 SHORT $LN112@LoadString
  001c4	49		 dec	 ecx
  001c5	83 c9 fc	 or	 ecx, -4			; fffffffcH
  001c8	41		 inc	 ecx
$LN112@LoadString:
  001c9	b2 ed		 mov	 dl, -19			; ffffffedH
  001cb	2a d1		 sub	 dl, cl
  001cd	30 54 05 e8	 xor	 BYTE PTR __k$[ebp+eax], dl
  001d1	40		 inc	 eax
  001d2	83 f8 0e	 cmp	 eax, 14			; 0000000eH
  001d5	7c e3		 jl	 SHORT $LL101@LoadString

; 163  : 		LoadString(_k, d, b, i);

  001d7	ff 75 14	 push	 DWORD PTR _i$[ebp]
  001da	8b 4d e4	 mov	 ecx, DWORD PTR _this$GSCopy$[ebp]
  001dd	57		 push	 edi
  001de	56		 push	 esi
  001df	8d 45 e8	 lea	 eax, DWORD PTR __k$[ebp]
  001e2	50		 push	 eax
  001e3	ff 15 00 00 00
	00		 call	 DWORD PTR __imp_?LoadStringA@ioINILoader@@QAEXPBD0PADH@Z

; 164  : 	}

  001e9	8b 4d fc	 mov	 ecx, DWORD PTR __$ArrayPad$[ebp]
  001ec	5f		 pop	 edi
  001ed	33 cd		 xor	 ecx, ebp
  001ef	5e		 pop	 esi
  001f0	e8 00 00 00 00	 call	 @__security_check_cookie@4
  001f5	c9		 leave
  001f6	c2 10 00	 ret	 16			; 00000010H
??$LoadString_e@$0P@@ioINILoader@@QAEXAAY0P@$$CBDAAY00$$CBDPADH@Z ENDP ; ioINILoader::LoadString_e<15>
_TEXT	ENDS
PUBLIC	__$ArrayPad$
PUBLIC	??$LoadInt_e@$0BA@@ioINILoader@@QAEHAAY0BA@$$CBDH@Z ; ioINILoader::LoadInt_e<16>
; Function compile flags: /Ogsp
;	COMDAT ??$LoadInt_e@$0BA@@ioINILoader@@QAEHAAY0BA@$$CBDH@Z
_TEXT	SEGMENT
__k$ = -24						; size = 16
__$ArrayPad$ = -4					; size = 4
_k$ = 8							; size = 4
_i$ = 12						; size = 4
??$LoadInt_e@$0BA@@ioINILoader@@QAEHAAY0BA@$$CBDH@Z PROC ; ioINILoader::LoadInt_e<16>, COMDAT
; _this$ = ecx

; 118  : 	{

  00000	55		 push	 ebp
  00001	8b ec		 mov	 ebp, esp
  00003	83 ec 18	 sub	 esp, 24			; 00000018H
  00006	a1 00 00 00 00	 mov	 eax, DWORD PTR ___security_cookie
  0000b	33 c5		 xor	 eax, ebp
  0000d	89 45 fc	 mov	 DWORD PTR __$ArrayPad$[ebp], eax
  00010	8b 45 08	 mov	 eax, DWORD PTR _k$[ebp]

; 119  : 		_ENCSTR(k, _k);

  00013	8a 10		 mov	 dl, BYTE PTR [eax]
  00015	56		 push	 esi
  00016	8b f1		 mov	 esi, ecx
  00018	84 d2		 test	 dl, dl
  0001a	0f 84 8c 01 00
	00		 je	 $LN96@LoadInt_e@2
  00020	80 f2 ed	 xor	 dl, -19			; ffffffedH
  00023	88 55 e8	 mov	 BYTE PTR __k$[ebp], dl
  00026	8a 50 01	 mov	 dl, BYTE PTR [eax+1]
  00029	84 d2		 test	 dl, dl
  0002b	0f 84 75 01 00
	00		 je	 $LN95@LoadInt_e@2
  00031	80 f2 ec	 xor	 dl, -20			; ffffffecH
  00034	88 55 e9	 mov	 BYTE PTR __k$[ebp+1], dl
  00037	8a 50 02	 mov	 dl, BYTE PTR [eax+2]
  0003a	84 d2		 test	 dl, dl
  0003c	0f 84 5e 01 00
	00		 je	 $LN94@LoadInt_e@2
  00042	b1 eb		 mov	 cl, -21			; ffffffebH
  00044	32 d1		 xor	 dl, cl
  00046	88 55 ea	 mov	 BYTE PTR __k$[ebp+2], dl
  00049	8a 50 03	 mov	 dl, BYTE PTR [eax+3]
  0004c	84 d2		 test	 dl, dl
  0004e	0f 84 46 01 00
	00		 je	 $LN93@LoadInt_e@2
  00054	80 f2 ea	 xor	 dl, -22			; ffffffeaH
  00057	88 55 eb	 mov	 BYTE PTR __k$[ebp+3], dl
  0005a	8a 50 04	 mov	 dl, BYTE PTR [eax+4]
  0005d	84 d2		 test	 dl, dl
  0005f	0f 84 2f 01 00
	00		 je	 $LN92@LoadInt_e@2
  00065	80 f2 ed	 xor	 dl, -19			; ffffffedH
  00068	88 55 ec	 mov	 BYTE PTR __k$[ebp+4], dl
  0006b	8a 50 05	 mov	 dl, BYTE PTR [eax+5]
  0006e	84 d2		 test	 dl, dl
  00070	0f 84 18 01 00
	00		 je	 $LN91@LoadInt_e@2
  00076	80 f2 ec	 xor	 dl, -20			; ffffffecH
  00079	88 55 ed	 mov	 BYTE PTR __k$[ebp+5], dl
  0007c	8a 50 06	 mov	 dl, BYTE PTR [eax+6]
  0007f	84 d2		 test	 dl, dl
  00081	0f 84 02 01 00
	00		 je	 $LN90@LoadInt_e@2
  00087	32 d1		 xor	 dl, cl
  00089	88 55 ee	 mov	 BYTE PTR __k$[ebp+6], dl
  0008c	8a 50 07	 mov	 dl, BYTE PTR [eax+7]
  0008f	84 d2		 test	 dl, dl
  00091	0f 84 ec 00 00
	00		 je	 $LN89@LoadInt_e@2
  00097	80 f2 ea	 xor	 dl, -22			; ffffffeaH
  0009a	88 55 ef	 mov	 BYTE PTR __k$[ebp+7], dl
  0009d	8a 50 08	 mov	 dl, BYTE PTR [eax+8]
  000a0	84 d2		 test	 dl, dl
  000a2	0f 84 d5 00 00
	00		 je	 $LN88@LoadInt_e@2
  000a8	80 f2 ed	 xor	 dl, -19			; ffffffedH
  000ab	88 55 f0	 mov	 BYTE PTR __k$[ebp+8], dl
  000ae	8a 50 09	 mov	 dl, BYTE PTR [eax+9]
  000b1	84 d2		 test	 dl, dl
  000b3	0f 84 be 00 00
	00		 je	 $LN87@LoadInt_e@2
  000b9	80 f2 ec	 xor	 dl, -20			; ffffffecH
  000bc	88 55 f1	 mov	 BYTE PTR __k$[ebp+9], dl
  000bf	8a 50 0a	 mov	 dl, BYTE PTR [eax+10]
  000c2	84 d2		 test	 dl, dl
  000c4	0f 84 a8 00 00
	00		 je	 $LN86@LoadInt_e@2
  000ca	32 d1		 xor	 dl, cl
  000cc	88 55 f2	 mov	 BYTE PTR __k$[ebp+10], dl
  000cf	8a 50 0b	 mov	 dl, BYTE PTR [eax+11]
  000d2	84 d2		 test	 dl, dl
  000d4	0f 84 92 00 00
	00		 je	 $LN85@LoadInt_e@2
  000da	80 f2 ea	 xor	 dl, -22			; ffffffeaH
  000dd	88 55 f3	 mov	 BYTE PTR __k$[ebp+11], dl
  000e0	8a 50 0c	 mov	 dl, BYTE PTR [eax+12]
  000e3	84 d2		 test	 dl, dl
  000e5	74 7f		 je	 SHORT $LN84@LoadInt_e@2
  000e7	80 f2 ed	 xor	 dl, -19			; ffffffedH
  000ea	88 55 f4	 mov	 BYTE PTR __k$[ebp+12], dl
  000ed	8a 50 0d	 mov	 dl, BYTE PTR [eax+13]
  000f0	84 d2		 test	 dl, dl
  000f2	74 6c		 je	 SHORT $LN83@LoadInt_e@2
  000f4	80 f2 ec	 xor	 dl, -20			; ffffffecH
  000f7	88 55 f5	 mov	 BYTE PTR __k$[ebp+13], dl
  000fa	8a 50 0e	 mov	 dl, BYTE PTR [eax+14]
  000fd	84 d2		 test	 dl, dl
  000ff	74 5a		 je	 SHORT $LN82@LoadInt_e@2
  00101	32 d1		 xor	 dl, cl
  00103	80 78 0f 00	 cmp	 BYTE PTR [eax+15], 0
  00107	88 55 f6	 mov	 BYTE PTR __k$[ebp+14], dl
  0010a	0f 84 a0 00 00
	00		 je	 $LN1@LoadInt_e@2
  00110	8a 50 10	 mov	 dl, BYTE PTR [eax+16]
  00113	84 d2		 test	 dl, dl
  00115	74 3e		 je	 SHORT $LN80@LoadInt_e@2
  00117	80 f2 ed	 xor	 dl, -19			; ffffffedH
  0011a	88 55 f8	 mov	 BYTE PTR __k$[ebp+16], dl
  0011d	8a 50 11	 mov	 dl, BYTE PTR [eax+17]
  00120	84 d2		 test	 dl, dl
  00122	74 2b		 je	 SHORT $LN79@LoadInt_e@2
  00124	80 f2 ec	 xor	 dl, -20			; ffffffecH
  00127	88 55 f9	 mov	 BYTE PTR __k$[ebp+17], dl
  0012a	8a 50 12	 mov	 dl, BYTE PTR [eax+18]
  0012d	84 d2		 test	 dl, dl
  0012f	74 19		 je	 SHORT $LN78@LoadInt_e@2
  00131	8a 40 13	 mov	 al, BYTE PTR [eax+19]
  00134	32 d1		 xor	 dl, cl
  00136	88 55 fa	 mov	 BYTE PTR __k$[ebp+18], dl
  00139	84 c0		 test	 al, al
  0013b	74 07		 je	 SHORT $LN77@LoadInt_e@2
  0013d	34 ea		 xor	 al, -22			; ffffffeaH
  0013f	88 45 fb	 mov	 BYTE PTR __k$[ebp+19], al
  00142	eb 6c		 jmp	 SHORT $LN1@LoadInt_e@2
$LN77@LoadInt_e@2:
  00144	c6 45 fb ea	 mov	 BYTE PTR __k$[ebp+19], -22 ; ffffffeaH
  00148	eb 66		 jmp	 SHORT $LN1@LoadInt_e@2
$LN78@LoadInt_e@2:
  0014a	88 4d fa	 mov	 BYTE PTR __k$[ebp+18], cl
  0014d	eb 61		 jmp	 SHORT $LN1@LoadInt_e@2
$LN79@LoadInt_e@2:
  0014f	c6 45 f9 ec	 mov	 BYTE PTR __k$[ebp+17], -20 ; ffffffecH
  00153	eb 5b		 jmp	 SHORT $LN1@LoadInt_e@2
$LN80@LoadInt_e@2:
  00155	c6 45 f8 ed	 mov	 BYTE PTR __k$[ebp+16], -19 ; ffffffedH
  00159	eb 55		 jmp	 SHORT $LN1@LoadInt_e@2
$LN82@LoadInt_e@2:
  0015b	88 4d f6	 mov	 BYTE PTR __k$[ebp+14], cl
  0015e	eb 50		 jmp	 SHORT $LN1@LoadInt_e@2
$LN83@LoadInt_e@2:
  00160	c6 45 f5 ec	 mov	 BYTE PTR __k$[ebp+13], -20 ; ffffffecH
  00164	eb 4a		 jmp	 SHORT $LN1@LoadInt_e@2
$LN84@LoadInt_e@2:
  00166	c6 45 f4 ed	 mov	 BYTE PTR __k$[ebp+12], -19 ; ffffffedH
  0016a	eb 44		 jmp	 SHORT $LN1@LoadInt_e@2
$LN85@LoadInt_e@2:
  0016c	c6 45 f3 ea	 mov	 BYTE PTR __k$[ebp+11], -22 ; ffffffeaH
  00170	eb 3e		 jmp	 SHORT $LN1@LoadInt_e@2
$LN86@LoadInt_e@2:
  00172	88 4d f2	 mov	 BYTE PTR __k$[ebp+10], cl
  00175	eb 39		 jmp	 SHORT $LN1@LoadInt_e@2
$LN87@LoadInt_e@2:
  00177	c6 45 f1 ec	 mov	 BYTE PTR __k$[ebp+9], -20 ; ffffffecH
  0017b	eb 33		 jmp	 SHORT $LN1@LoadInt_e@2
$LN88@LoadInt_e@2:
  0017d	c6 45 f0 ed	 mov	 BYTE PTR __k$[ebp+8], -19 ; ffffffedH
  00181	eb 2d		 jmp	 SHORT $LN1@LoadInt_e@2
$LN89@LoadInt_e@2:
  00183	c6 45 ef ea	 mov	 BYTE PTR __k$[ebp+7], -22 ; ffffffeaH
  00187	eb 27		 jmp	 SHORT $LN1@LoadInt_e@2
$LN90@LoadInt_e@2:
  00189	88 4d ee	 mov	 BYTE PTR __k$[ebp+6], cl
  0018c	eb 22		 jmp	 SHORT $LN1@LoadInt_e@2
$LN91@LoadInt_e@2:
  0018e	c6 45 ed ec	 mov	 BYTE PTR __k$[ebp+5], -20 ; ffffffecH
  00192	eb 1c		 jmp	 SHORT $LN1@LoadInt_e@2
$LN92@LoadInt_e@2:
  00194	c6 45 ec ed	 mov	 BYTE PTR __k$[ebp+4], -19 ; ffffffedH
  00198	eb 16		 jmp	 SHORT $LN1@LoadInt_e@2
$LN93@LoadInt_e@2:
  0019a	c6 45 eb ea	 mov	 BYTE PTR __k$[ebp+3], -22 ; ffffffeaH
  0019e	eb 10		 jmp	 SHORT $LN1@LoadInt_e@2
$LN94@LoadInt_e@2:
  001a0	c6 45 ea eb	 mov	 BYTE PTR __k$[ebp+2], -21 ; ffffffebH
  001a4	eb 0a		 jmp	 SHORT $LN1@LoadInt_e@2
$LN95@LoadInt_e@2:
  001a6	c6 45 e9 ec	 mov	 BYTE PTR __k$[ebp+1], -20 ; ffffffecH
  001aa	eb 04		 jmp	 SHORT $LN1@LoadInt_e@2
$LN96@LoadInt_e@2:
  001ac	c6 45 e8 ed	 mov	 BYTE PTR __k$[ebp], -19	; ffffffedH
$LN1@LoadInt_e@2:
  001b0	6a 03		 push	 3
  001b2	8d 45 e8	 lea	 eax, DWORD PTR __k$[ebp]
  001b5	c6 45 f7 00	 mov	 BYTE PTR __k$[ebp+15], 0
  001b9	5a		 pop	 edx
$LL104@LoadInt_e@2:
  001ba	81 30 ed ec eb
	ea		 xor	 DWORD PTR [eax], -353637139 ; eaebecedH
  001c0	83 c0 04	 add	 eax, 4
  001c3	4a		 dec	 edx
  001c4	75 f4		 jne	 SHORT $LL104@LoadInt_e@2
  001c6	6a 0c		 push	 12			; 0000000cH
  001c8	58		 pop	 eax
$LL101@LoadInt_e@2:
  001c9	8b c8		 mov	 ecx, eax
  001cb	81 e1 03 00 00
	80		 and	 ecx, -2147483645	; 80000003H
  001d1	79 05		 jns	 SHORT $LN111@LoadInt_e@2
  001d3	49		 dec	 ecx
  001d4	83 c9 fc	 or	 ecx, -4			; fffffffcH
  001d7	41		 inc	 ecx
$LN111@LoadInt_e@2:
  001d8	b2 ed		 mov	 dl, -19			; ffffffedH
  001da	2a d1		 sub	 dl, cl
  001dc	30 54 05 e8	 xor	 BYTE PTR __k$[ebp+eax], dl
  001e0	40		 inc	 eax
  001e1	83 f8 0f	 cmp	 eax, 15			; 0000000fH
  001e4	7c e3		 jl	 SHORT $LL101@LoadInt_e@2

; 120  : 		return LoadInt(_k, i);

  001e6	ff 75 0c	 push	 DWORD PTR _i$[ebp]
  001e9	8d 45 e8	 lea	 eax, DWORD PTR __k$[ebp]
  001ec	50		 push	 eax
  001ed	8b ce		 mov	 ecx, esi
  001ef	ff 15 00 00 00
	00		 call	 DWORD PTR __imp_?LoadInt@ioINILoader@@QAEHPBDH@Z

; 121  : 	}

  001f5	8b 4d fc	 mov	 ecx, DWORD PTR __$ArrayPad$[ebp]
  001f8	33 cd		 xor	 ecx, ebp
  001fa	5e		 pop	 esi
  001fb	e8 00 00 00 00	 call	 @__security_check_cookie@4
  00200	c9		 leave
  00201	c2 08 00	 ret	 8
??$LoadInt_e@$0BA@@ioINILoader@@QAEHAAY0BA@$$CBDH@Z ENDP ; ioINILoader::LoadInt_e<16>
_TEXT	ENDS
PUBLIC	_this$GSCopy$
PUBLIC	__$ArrayPad$
PUBLIC	??$LoadString_e@$0BE@@ioINILoader@@QAEXAAY0BE@$$CBDAAY00$$CBDPADH@Z ; ioINILoader::LoadString_e<20>
; Function compile flags: /Ogsp
;	COMDAT ??$LoadString_e@$0BE@@ioINILoader@@QAEXAAY0BE@$$CBDAAY00$$CBDPADH@Z
_TEXT	SEGMENT
_this$GSCopy$ = -32					; size = 4
__k$ = -28						; size = 20
__$ArrayPad$ = -4					; size = 4
_k$ = 8							; size = 4
_d$ = 12						; size = 4
_b$ = 16						; size = 4
_i$ = 20						; size = 4
??$LoadString_e@$0BE@@ioINILoader@@QAEXAAY0BE@$$CBDAAY00$$CBDPADH@Z PROC ; ioINILoader::LoadString_e<20>, COMDAT
; _this$ = ecx

; 161  : 	{

  00000	55		 push	 ebp
  00001	8b ec		 mov	 ebp, esp
  00003	83 ec 20	 sub	 esp, 32			; 00000020H
  00006	a1 00 00 00 00	 mov	 eax, DWORD PTR ___security_cookie
  0000b	33 c5		 xor	 eax, ebp
  0000d	89 45 fc	 mov	 DWORD PTR __$ArrayPad$[ebp], eax
  00010	8b 45 08	 mov	 eax, DWORD PTR _k$[ebp]

; 162  : 		_ENCSTR(k, _k);

  00013	8a 10		 mov	 dl, BYTE PTR [eax]
  00015	53		 push	 ebx
  00016	56		 push	 esi
  00017	8b 75 0c	 mov	 esi, DWORD PTR _d$[ebp]
  0001a	57		 push	 edi
  0001b	8b 7d 10	 mov	 edi, DWORD PTR _b$[ebp]
  0001e	89 4d e0	 mov	 DWORD PTR _this$GSCopy$[ebp], ecx
  00021	84 d2		 test	 dl, dl
  00023	0f 84 dd 01 00
	00		 je	 $LN96@LoadString@2
  00029	80 f2 ed	 xor	 dl, -19			; ffffffedH
  0002c	88 55 e4	 mov	 BYTE PTR __k$[ebp], dl
  0002f	8a 50 01	 mov	 dl, BYTE PTR [eax+1]
  00032	84 d2		 test	 dl, dl
  00034	0f 84 c6 01 00
	00		 je	 $LN95@LoadString@2
  0003a	b3 ec		 mov	 bl, -20			; ffffffecH
  0003c	32 d3		 xor	 dl, bl
  0003e	88 55 e5	 mov	 BYTE PTR __k$[ebp+1], dl
  00041	8a 50 02	 mov	 dl, BYTE PTR [eax+2]
  00044	84 d2		 test	 dl, dl
  00046	0f 84 ae 01 00
	00		 je	 $LN94@LoadString@2
  0004c	b1 eb		 mov	 cl, -21			; ffffffebH
  0004e	32 d1		 xor	 dl, cl
  00050	88 55 e6	 mov	 BYTE PTR __k$[ebp+2], dl
  00053	8a 50 03	 mov	 dl, BYTE PTR [eax+3]
  00056	84 d2		 test	 dl, dl
  00058	0f 84 96 01 00
	00		 je	 $LN93@LoadString@2
  0005e	80 f2 ea	 xor	 dl, -22			; ffffffeaH
  00061	88 55 e7	 mov	 BYTE PTR __k$[ebp+3], dl
  00064	8a 50 04	 mov	 dl, BYTE PTR [eax+4]
  00067	84 d2		 test	 dl, dl
  00069	0f 84 7f 01 00
	00		 je	 $LN92@LoadString@2
  0006f	80 f2 ed	 xor	 dl, -19			; ffffffedH
  00072	88 55 e8	 mov	 BYTE PTR __k$[ebp+4], dl
  00075	8a 50 05	 mov	 dl, BYTE PTR [eax+5]
  00078	84 d2		 test	 dl, dl
  0007a	0f 84 69 01 00
	00		 je	 $LN91@LoadString@2
  00080	32 d3		 xor	 dl, bl
  00082	88 55 e9	 mov	 BYTE PTR __k$[ebp+5], dl
  00085	8a 50 06	 mov	 dl, BYTE PTR [eax+6]
  00088	84 d2		 test	 dl, dl
  0008a	0f 84 54 01 00
	00		 je	 $LN90@LoadString@2
  00090	32 d1		 xor	 dl, cl
  00092	88 55 ea	 mov	 BYTE PTR __k$[ebp+6], dl
  00095	8a 50 07	 mov	 dl, BYTE PTR [eax+7]
  00098	84 d2		 test	 dl, dl
  0009a	0f 84 3e 01 00
	00		 je	 $LN89@LoadString@2
  000a0	80 f2 ea	 xor	 dl, -22			; ffffffeaH
  000a3	88 55 eb	 mov	 BYTE PTR __k$[ebp+7], dl
  000a6	8a 50 08	 mov	 dl, BYTE PTR [eax+8]
  000a9	84 d2		 test	 dl, dl
  000ab	0f 84 27 01 00
	00		 je	 $LN88@LoadString@2
  000b1	80 f2 ed	 xor	 dl, -19			; ffffffedH
  000b4	88 55 ec	 mov	 BYTE PTR __k$[ebp+8], dl
  000b7	8a 50 09	 mov	 dl, BYTE PTR [eax+9]
  000ba	84 d2		 test	 dl, dl
  000bc	0f 84 11 01 00
	00		 je	 $LN87@LoadString@2
  000c2	32 d3		 xor	 dl, bl
  000c4	88 55 ed	 mov	 BYTE PTR __k$[ebp+9], dl
  000c7	8a 50 0a	 mov	 dl, BYTE PTR [eax+10]
  000ca	84 d2		 test	 dl, dl
  000cc	0f 84 fc 00 00
	00		 je	 $LN86@LoadString@2
  000d2	32 d1		 xor	 dl, cl
  000d4	88 55 ee	 mov	 BYTE PTR __k$[ebp+10], dl
  000d7	8a 50 0b	 mov	 dl, BYTE PTR [eax+11]
  000da	84 d2		 test	 dl, dl
  000dc	0f 84 e6 00 00
	00		 je	 $LN85@LoadString@2
  000e2	80 f2 ea	 xor	 dl, -22			; ffffffeaH
  000e5	88 55 ef	 mov	 BYTE PTR __k$[ebp+11], dl
  000e8	8a 50 0c	 mov	 dl, BYTE PTR [eax+12]
  000eb	84 d2		 test	 dl, dl
  000ed	0f 84 cf 00 00
	00		 je	 $LN84@LoadString@2
  000f3	80 f2 ed	 xor	 dl, -19			; ffffffedH
  000f6	88 55 f0	 mov	 BYTE PTR __k$[ebp+12], dl
  000f9	8a 50 0d	 mov	 dl, BYTE PTR [eax+13]
  000fc	84 d2		 test	 dl, dl
  000fe	0f 84 b9 00 00
	00		 je	 $LN83@LoadString@2
  00104	32 d3		 xor	 dl, bl
  00106	88 55 f1	 mov	 BYTE PTR __k$[ebp+13], dl
  00109	8a 50 0e	 mov	 dl, BYTE PTR [eax+14]
  0010c	84 d2		 test	 dl, dl
  0010e	0f 84 a4 00 00
	00		 je	 $LN82@LoadString@2
  00114	32 d1		 xor	 dl, cl
  00116	88 55 f2	 mov	 BYTE PTR __k$[ebp+14], dl
  00119	8a 50 0f	 mov	 dl, BYTE PTR [eax+15]
  0011c	84 d2		 test	 dl, dl
  0011e	0f 84 8e 00 00
	00		 je	 $LN81@LoadString@2
  00124	80 f2 ea	 xor	 dl, -22			; ffffffeaH
  00127	88 55 f3	 mov	 BYTE PTR __k$[ebp+15], dl
  0012a	8a 50 10	 mov	 dl, BYTE PTR [eax+16]
  0012d	84 d2		 test	 dl, dl
  0012f	74 7b		 je	 SHORT $LN80@LoadString@2
  00131	80 f2 ed	 xor	 dl, -19			; ffffffedH
  00134	88 55 f4	 mov	 BYTE PTR __k$[ebp+16], dl
  00137	8a 50 11	 mov	 dl, BYTE PTR [eax+17]
  0013a	84 d2		 test	 dl, dl
  0013c	74 69		 je	 SHORT $LN79@LoadString@2
  0013e	32 d3		 xor	 dl, bl
  00140	88 55 f5	 mov	 BYTE PTR __k$[ebp+17], dl
  00143	8a 50 12	 mov	 dl, BYTE PTR [eax+18]
  00146	84 d2		 test	 dl, dl
  00148	74 58		 je	 SHORT $LN78@LoadString@2
  0014a	32 d1		 xor	 dl, cl
  0014c	80 78 13 00	 cmp	 BYTE PTR [eax+19], 0
  00150	88 55 f6	 mov	 BYTE PTR __k$[ebp+18], dl
  00153	0f 84 b1 00 00
	00		 je	 $LN111@LoadString@2
  00159	8a 50 14	 mov	 dl, BYTE PTR [eax+20]
  0015c	84 d2		 test	 dl, dl
  0015e	74 3c		 je	 SHORT $LN76@LoadString@2
  00160	80 f2 ed	 xor	 dl, -19			; ffffffedH
  00163	88 55 f8	 mov	 BYTE PTR __k$[ebp+20], dl
  00166	8a 50 15	 mov	 dl, BYTE PTR [eax+21]
  00169	84 d2		 test	 dl, dl
  0016b	74 2a		 je	 SHORT $LN75@LoadString@2
  0016d	32 d3		 xor	 dl, bl
  0016f	88 55 f9	 mov	 BYTE PTR __k$[ebp+21], dl
  00172	8a 50 16	 mov	 dl, BYTE PTR [eax+22]
  00175	84 d2		 test	 dl, dl
  00177	74 19		 je	 SHORT $LN74@LoadString@2
  00179	8a 40 17	 mov	 al, BYTE PTR [eax+23]
  0017c	32 d1		 xor	 dl, cl
  0017e	88 55 fa	 mov	 BYTE PTR __k$[ebp+22], dl
  00181	84 c0		 test	 al, al
  00183	74 07		 je	 SHORT $LN73@LoadString@2
  00185	34 ea		 xor	 al, -22			; ffffffeaH
  00187	88 45 fb	 mov	 BYTE PTR __k$[ebp+23], al
  0018a	eb 7e		 jmp	 SHORT $LN111@LoadString@2
$LN73@LoadString@2:
  0018c	c6 45 fb ea	 mov	 BYTE PTR __k$[ebp+23], -22 ; ffffffeaH
  00190	eb 78		 jmp	 SHORT $LN111@LoadString@2
$LN74@LoadString@2:
  00192	88 4d fa	 mov	 BYTE PTR __k$[ebp+22], cl
  00195	eb 73		 jmp	 SHORT $LN111@LoadString@2
$LN75@LoadString@2:
  00197	88 5d f9	 mov	 BYTE PTR __k$[ebp+21], bl
  0019a	eb 6e		 jmp	 SHORT $LN111@LoadString@2
$LN76@LoadString@2:
  0019c	c6 45 f8 ed	 mov	 BYTE PTR __k$[ebp+20], -19 ; ffffffedH
  001a0	eb 68		 jmp	 SHORT $LN111@LoadString@2
$LN78@LoadString@2:
  001a2	88 4d f6	 mov	 BYTE PTR __k$[ebp+18], cl
  001a5	eb 63		 jmp	 SHORT $LN111@LoadString@2
$LN79@LoadString@2:
  001a7	88 5d f5	 mov	 BYTE PTR __k$[ebp+17], bl
  001aa	eb 5e		 jmp	 SHORT $LN111@LoadString@2
$LN80@LoadString@2:
  001ac	c6 45 f4 ed	 mov	 BYTE PTR __k$[ebp+16], -19 ; ffffffedH
  001b0	eb 58		 jmp	 SHORT $LN111@LoadString@2
$LN81@LoadString@2:
  001b2	c6 45 f3 ea	 mov	 BYTE PTR __k$[ebp+15], -22 ; ffffffeaH
  001b6	eb 52		 jmp	 SHORT $LN111@LoadString@2
$LN82@LoadString@2:
  001b8	88 4d f2	 mov	 BYTE PTR __k$[ebp+14], cl
  001bb	eb 4d		 jmp	 SHORT $LN111@LoadString@2
$LN83@LoadString@2:
  001bd	88 5d f1	 mov	 BYTE PTR __k$[ebp+13], bl
  001c0	eb 48		 jmp	 SHORT $LN111@LoadString@2
$LN84@LoadString@2:
  001c2	c6 45 f0 ed	 mov	 BYTE PTR __k$[ebp+12], -19 ; ffffffedH
  001c6	eb 42		 jmp	 SHORT $LN111@LoadString@2
$LN85@LoadString@2:
  001c8	c6 45 ef ea	 mov	 BYTE PTR __k$[ebp+11], -22 ; ffffffeaH
  001cc	eb 3c		 jmp	 SHORT $LN111@LoadString@2
$LN86@LoadString@2:
  001ce	88 4d ee	 mov	 BYTE PTR __k$[ebp+10], cl
  001d1	eb 37		 jmp	 SHORT $LN111@LoadString@2
$LN87@LoadString@2:
  001d3	88 5d ed	 mov	 BYTE PTR __k$[ebp+9], bl
  001d6	eb 32		 jmp	 SHORT $LN111@LoadString@2
$LN88@LoadString@2:
  001d8	c6 45 ec ed	 mov	 BYTE PTR __k$[ebp+8], -19 ; ffffffedH
  001dc	eb 2c		 jmp	 SHORT $LN111@LoadString@2
$LN89@LoadString@2:
  001de	c6 45 eb ea	 mov	 BYTE PTR __k$[ebp+7], -22 ; ffffffeaH
  001e2	eb 26		 jmp	 SHORT $LN111@LoadString@2
$LN90@LoadString@2:
  001e4	88 4d ea	 mov	 BYTE PTR __k$[ebp+6], cl
  001e7	eb 21		 jmp	 SHORT $LN111@LoadString@2
$LN91@LoadString@2:
  001e9	88 5d e9	 mov	 BYTE PTR __k$[ebp+5], bl
  001ec	eb 1c		 jmp	 SHORT $LN111@LoadString@2
$LN92@LoadString@2:
  001ee	c6 45 e8 ed	 mov	 BYTE PTR __k$[ebp+4], -19 ; ffffffedH
  001f2	eb 16		 jmp	 SHORT $LN111@LoadString@2
$LN93@LoadString@2:
  001f4	c6 45 e7 ea	 mov	 BYTE PTR __k$[ebp+3], -22 ; ffffffeaH
  001f8	eb 10		 jmp	 SHORT $LN111@LoadString@2
$LN94@LoadString@2:
  001fa	c6 45 e6 eb	 mov	 BYTE PTR __k$[ebp+2], -21 ; ffffffebH
  001fe	eb 0a		 jmp	 SHORT $LN111@LoadString@2
$LN95@LoadString@2:
  00200	c6 45 e5 ec	 mov	 BYTE PTR __k$[ebp+1], -20 ; ffffffecH
  00204	eb 04		 jmp	 SHORT $LN111@LoadString@2
$LN96@LoadString@2:
  00206	c6 45 e4 ed	 mov	 BYTE PTR __k$[ebp], -19	; ffffffedH
$LN111@LoadString@2:
  0020a	6a 04		 push	 4
  0020c	8d 45 e4	 lea	 eax, DWORD PTR __k$[ebp]
  0020f	c6 45 f7 00	 mov	 BYTE PTR __k$[ebp+19], 0
  00213	5a		 pop	 edx
$LL104@LoadString@2:
  00214	81 30 ed ec eb
	ea		 xor	 DWORD PTR [eax], -353637139 ; eaebecedH
  0021a	83 c0 04	 add	 eax, 4
  0021d	4a		 dec	 edx
  0021e	75 f4		 jne	 SHORT $LL104@LoadString@2
  00220	6a 10		 push	 16			; 00000010H
  00222	58		 pop	 eax
$LL101@LoadString@2:
  00223	8b c8		 mov	 ecx, eax
  00225	81 e1 03 00 00
	80		 and	 ecx, -2147483645	; 80000003H
  0022b	79 05		 jns	 SHORT $LN112@LoadString@2
  0022d	49		 dec	 ecx
  0022e	83 c9 fc	 or	 ecx, -4			; fffffffcH
  00231	41		 inc	 ecx
$LN112@LoadString@2:
  00232	b2 ed		 mov	 dl, -19			; ffffffedH
  00234	2a d1		 sub	 dl, cl
  00236	30 54 05 e4	 xor	 BYTE PTR __k$[ebp+eax], dl
  0023a	40		 inc	 eax
  0023b	83 f8 13	 cmp	 eax, 19			; 00000013H
  0023e	7c e3		 jl	 SHORT $LL101@LoadString@2

; 163  : 		LoadString(_k, d, b, i);

  00240	ff 75 14	 push	 DWORD PTR _i$[ebp]
  00243	8b 4d e0	 mov	 ecx, DWORD PTR _this$GSCopy$[ebp]
  00246	57		 push	 edi
  00247	56		 push	 esi
  00248	8d 45 e4	 lea	 eax, DWORD PTR __k$[ebp]
  0024b	50		 push	 eax
  0024c	ff 15 00 00 00
	00		 call	 DWORD PTR __imp_?LoadStringA@ioINILoader@@QAEXPBD0PADH@Z

; 164  : 	}

  00252	8b 4d fc	 mov	 ecx, DWORD PTR __$ArrayPad$[ebp]
  00255	5f		 pop	 edi
  00256	5e		 pop	 esi
  00257	33 cd		 xor	 ecx, ebp
  00259	5b		 pop	 ebx
  0025a	e8 00 00 00 00	 call	 @__security_check_cookie@4
  0025f	c9		 leave
  00260	c2 10 00	 ret	 16			; 00000010H
??$LoadString_e@$0BE@@ioINILoader@@QAEXAAY0BE@$$CBDAAY00$$CBDPADH@Z ENDP ; ioINILoader::LoadString_e<20>
_TEXT	ENDS
PUBLIC	_this$GSCopy$
PUBLIC	__$ArrayPad$
PUBLIC	??$LoadString_e@$0O@@ioINILoader@@QAEXAAY0O@$$CBDAAY00$$CBDPADH@Z ; ioINILoader::LoadString_e<14>
; Function compile flags: /Ogsp
;	COMDAT ??$LoadString_e@$0O@@ioINILoader@@QAEXAAY0O@$$CBDAAY00$$CBDPADH@Z
_TEXT	SEGMENT
_this$GSCopy$ = -28					; size = 4
__k$ = -24						; size = 14
__$ArrayPad$ = -4					; size = 4
_k$ = 8							; size = 4
_d$ = 12						; size = 4
_b$ = 16						; size = 4
_i$ = 20						; size = 4
??$LoadString_e@$0O@@ioINILoader@@QAEXAAY0O@$$CBDAAY00$$CBDPADH@Z PROC ; ioINILoader::LoadString_e<14>, COMDAT
; _this$ = ecx

; 161  : 	{

  00000	55		 push	 ebp
  00001	8b ec		 mov	 ebp, esp
  00003	83 ec 1c	 sub	 esp, 28			; 0000001cH
  00006	a1 00 00 00 00	 mov	 eax, DWORD PTR ___security_cookie
  0000b	33 c5		 xor	 eax, ebp
  0000d	89 45 fc	 mov	 DWORD PTR __$ArrayPad$[ebp], eax
  00010	8b 45 08	 mov	 eax, DWORD PTR _k$[ebp]

; 162  : 		_ENCSTR(k, _k);

  00013	8a 10		 mov	 dl, BYTE PTR [eax]
  00015	56		 push	 esi
  00016	8b 75 0c	 mov	 esi, DWORD PTR _d$[ebp]
  00019	57		 push	 edi
  0001a	8b 7d 10	 mov	 edi, DWORD PTR _b$[ebp]
  0001d	89 4d e4	 mov	 DWORD PTR _this$GSCopy$[ebp], ecx
  00020	84 d2		 test	 dl, dl
  00022	0f 84 64 01 00
	00		 je	 $LN96@LoadString@3
  00028	80 f2 ed	 xor	 dl, -19			; ffffffedH
  0002b	88 55 e8	 mov	 BYTE PTR __k$[ebp], dl
  0002e	8a 50 01	 mov	 dl, BYTE PTR [eax+1]
  00031	84 d2		 test	 dl, dl
  00033	0f 84 4d 01 00
	00		 je	 $LN95@LoadString@3
  00039	80 f2 ec	 xor	 dl, -20			; ffffffecH
  0003c	88 55 e9	 mov	 BYTE PTR __k$[ebp+1], dl
  0003f	8a 50 02	 mov	 dl, BYTE PTR [eax+2]
  00042	84 d2		 test	 dl, dl
  00044	0f 84 36 01 00
	00		 je	 $LN94@LoadString@3
  0004a	b1 eb		 mov	 cl, -21			; ffffffebH
  0004c	32 d1		 xor	 dl, cl
  0004e	88 55 ea	 mov	 BYTE PTR __k$[ebp+2], dl
  00051	8a 50 03	 mov	 dl, BYTE PTR [eax+3]
  00054	84 d2		 test	 dl, dl
  00056	0f 84 1e 01 00
	00		 je	 $LN93@LoadString@3
  0005c	80 f2 ea	 xor	 dl, -22			; ffffffeaH
  0005f	88 55 eb	 mov	 BYTE PTR __k$[ebp+3], dl
  00062	8a 50 04	 mov	 dl, BYTE PTR [eax+4]
  00065	84 d2		 test	 dl, dl
  00067	0f 84 07 01 00
	00		 je	 $LN92@LoadString@3
  0006d	80 f2 ed	 xor	 dl, -19			; ffffffedH
  00070	88 55 ec	 mov	 BYTE PTR __k$[ebp+4], dl
  00073	8a 50 05	 mov	 dl, BYTE PTR [eax+5]
  00076	84 d2		 test	 dl, dl
  00078	0f 84 f0 00 00
	00		 je	 $LN91@LoadString@3
  0007e	80 f2 ec	 xor	 dl, -20			; ffffffecH
  00081	88 55 ed	 mov	 BYTE PTR __k$[ebp+5], dl
  00084	8a 50 06	 mov	 dl, BYTE PTR [eax+6]
  00087	84 d2		 test	 dl, dl
  00089	0f 84 da 00 00
	00		 je	 $LN90@LoadString@3
  0008f	32 d1		 xor	 dl, cl
  00091	88 55 ee	 mov	 BYTE PTR __k$[ebp+6], dl
  00094	8a 50 07	 mov	 dl, BYTE PTR [eax+7]
  00097	84 d2		 test	 dl, dl
  00099	0f 84 c4 00 00
	00		 je	 $LN89@LoadString@3
  0009f	80 f2 ea	 xor	 dl, -22			; ffffffeaH
  000a2	88 55 ef	 mov	 BYTE PTR __k$[ebp+7], dl
  000a5	8a 50 08	 mov	 dl, BYTE PTR [eax+8]
  000a8	84 d2		 test	 dl, dl
  000aa	0f 84 ad 00 00
	00		 je	 $LN88@LoadString@3
  000b0	80 f2 ed	 xor	 dl, -19			; ffffffedH
  000b3	88 55 f0	 mov	 BYTE PTR __k$[ebp+8], dl
  000b6	8a 50 09	 mov	 dl, BYTE PTR [eax+9]
  000b9	84 d2		 test	 dl, dl
  000bb	0f 84 96 00 00
	00		 je	 $LN87@LoadString@3
  000c1	80 f2 ec	 xor	 dl, -20			; ffffffecH
  000c4	88 55 f1	 mov	 BYTE PTR __k$[ebp+9], dl
  000c7	8a 50 0a	 mov	 dl, BYTE PTR [eax+10]
  000ca	84 d2		 test	 dl, dl
  000cc	0f 84 80 00 00
	00		 je	 $LN86@LoadString@3
  000d2	32 d1		 xor	 dl, cl
  000d4	88 55 f2	 mov	 BYTE PTR __k$[ebp+10], dl
  000d7	8a 50 0b	 mov	 dl, BYTE PTR [eax+11]
  000da	84 d2		 test	 dl, dl
  000dc	74 6e		 je	 SHORT $LN85@LoadString@3
  000de	80 f2 ea	 xor	 dl, -22			; ffffffeaH
  000e1	88 55 f3	 mov	 BYTE PTR __k$[ebp+11], dl
  000e4	8a 50 0c	 mov	 dl, BYTE PTR [eax+12]
  000e7	84 d2		 test	 dl, dl
  000e9	74 5b		 je	 SHORT $LN84@LoadString@3
  000eb	80 f2 ed	 xor	 dl, -19			; ffffffedH
  000ee	80 78 0d 00	 cmp	 BYTE PTR [eax+13], 0
  000f2	88 55 f4	 mov	 BYTE PTR __k$[ebp+12], dl
  000f5	0f 84 95 00 00
	00		 je	 $LN111@LoadString@3
  000fb	8a 50 0e	 mov	 dl, BYTE PTR [eax+14]
  000fe	84 d2		 test	 dl, dl
  00100	74 3f		 je	 SHORT $LN82@LoadString@3
  00102	32 d1		 xor	 dl, cl
  00104	88 55 f6	 mov	 BYTE PTR __k$[ebp+14], dl
  00107	8a 50 0f	 mov	 dl, BYTE PTR [eax+15]
  0010a	84 d2		 test	 dl, dl
  0010c	74 2d		 je	 SHORT $LN81@LoadString@3
  0010e	80 f2 ea	 xor	 dl, -22			; ffffffeaH
  00111	88 55 f7	 mov	 BYTE PTR __k$[ebp+15], dl
  00114	8a 50 10	 mov	 dl, BYTE PTR [eax+16]
  00117	84 d2		 test	 dl, dl
  00119	74 1a		 je	 SHORT $LN80@LoadString@3
  0011b	8a 40 11	 mov	 al, BYTE PTR [eax+17]
  0011e	80 f2 ed	 xor	 dl, -19			; ffffffedH
  00121	88 55 f8	 mov	 BYTE PTR __k$[ebp+16], dl
  00124	84 c0		 test	 al, al
  00126	74 07		 je	 SHORT $LN79@LoadString@3
  00128	34 ec		 xor	 al, -20			; ffffffecH
  0012a	88 45 f9	 mov	 BYTE PTR __k$[ebp+17], al
  0012d	eb 61		 jmp	 SHORT $LN111@LoadString@3
$LN79@LoadString@3:
  0012f	c6 45 f9 ec	 mov	 BYTE PTR __k$[ebp+17], -20 ; ffffffecH
  00133	eb 5b		 jmp	 SHORT $LN111@LoadString@3
$LN80@LoadString@3:
  00135	c6 45 f8 ed	 mov	 BYTE PTR __k$[ebp+16], -19 ; ffffffedH
  00139	eb 55		 jmp	 SHORT $LN111@LoadString@3
$LN81@LoadString@3:
  0013b	c6 45 f7 ea	 mov	 BYTE PTR __k$[ebp+15], -22 ; ffffffeaH
  0013f	eb 4f		 jmp	 SHORT $LN111@LoadString@3
$LN82@LoadString@3:
  00141	88 4d f6	 mov	 BYTE PTR __k$[ebp+14], cl
  00144	eb 4a		 jmp	 SHORT $LN111@LoadString@3
$LN84@LoadString@3:
  00146	c6 45 f4 ed	 mov	 BYTE PTR __k$[ebp+12], -19 ; ffffffedH
  0014a	eb 44		 jmp	 SHORT $LN111@LoadString@3
$LN85@LoadString@3:
  0014c	c6 45 f3 ea	 mov	 BYTE PTR __k$[ebp+11], -22 ; ffffffeaH
  00150	eb 3e		 jmp	 SHORT $LN111@LoadString@3
$LN86@LoadString@3:
  00152	88 4d f2	 mov	 BYTE PTR __k$[ebp+10], cl
  00155	eb 39		 jmp	 SHORT $LN111@LoadString@3
$LN87@LoadString@3:
  00157	c6 45 f1 ec	 mov	 BYTE PTR __k$[ebp+9], -20 ; ffffffecH
  0015b	eb 33		 jmp	 SHORT $LN111@LoadString@3
$LN88@LoadString@3:
  0015d	c6 45 f0 ed	 mov	 BYTE PTR __k$[ebp+8], -19 ; ffffffedH
  00161	eb 2d		 jmp	 SHORT $LN111@LoadString@3
$LN89@LoadString@3:
  00163	c6 45 ef ea	 mov	 BYTE PTR __k$[ebp+7], -22 ; ffffffeaH
  00167	eb 27		 jmp	 SHORT $LN111@LoadString@3
$LN90@LoadString@3:
  00169	88 4d ee	 mov	 BYTE PTR __k$[ebp+6], cl
  0016c	eb 22		 jmp	 SHORT $LN111@LoadString@3
$LN91@LoadString@3:
  0016e	c6 45 ed ec	 mov	 BYTE PTR __k$[ebp+5], -20 ; ffffffecH
  00172	eb 1c		 jmp	 SHORT $LN111@LoadString@3
$LN92@LoadString@3:
  00174	c6 45 ec ed	 mov	 BYTE PTR __k$[ebp+4], -19 ; ffffffedH
  00178	eb 16		 jmp	 SHORT $LN111@LoadString@3
$LN93@LoadString@3:
  0017a	c6 45 eb ea	 mov	 BYTE PTR __k$[ebp+3], -22 ; ffffffeaH
  0017e	eb 10		 jmp	 SHORT $LN111@LoadString@3
$LN94@LoadString@3:
  00180	c6 45 ea eb	 mov	 BYTE PTR __k$[ebp+2], -21 ; ffffffebH
  00184	eb 0a		 jmp	 SHORT $LN111@LoadString@3
$LN95@LoadString@3:
  00186	c6 45 e9 ec	 mov	 BYTE PTR __k$[ebp+1], -20 ; ffffffecH
  0018a	eb 04		 jmp	 SHORT $LN111@LoadString@3
$LN96@LoadString@3:
  0018c	c6 45 e8 ed	 mov	 BYTE PTR __k$[ebp], -19	; ffffffedH
$LN111@LoadString@3:
  00190	6a 03		 push	 3
  00192	8d 45 e8	 lea	 eax, DWORD PTR __k$[ebp]
  00195	c6 45 f5 00	 mov	 BYTE PTR __k$[ebp+13], 0
  00199	5a		 pop	 edx
$LL104@LoadString@3:
  0019a	81 30 ed ec eb
	ea		 xor	 DWORD PTR [eax], -353637139 ; eaebecedH
  001a0	83 c0 04	 add	 eax, 4
  001a3	4a		 dec	 edx
  001a4	75 f4		 jne	 SHORT $LL104@LoadString@3

; 163  : 		LoadString(_k, d, b, i);

  001a6	ff 75 14	 push	 DWORD PTR _i$[ebp]
  001a9	8b 4d e4	 mov	 ecx, DWORD PTR _this$GSCopy$[ebp]
  001ac	80 75 f4 ed	 xor	 BYTE PTR __k$[ebp+12], -19 ; ffffffedH
  001b0	57		 push	 edi
  001b1	56		 push	 esi
  001b2	8d 45 e8	 lea	 eax, DWORD PTR __k$[ebp]
  001b5	50		 push	 eax
  001b6	ff 15 00 00 00
	00		 call	 DWORD PTR __imp_?LoadStringA@ioINILoader@@QAEXPBD0PADH@Z

; 164  : 	}

  001bc	8b 4d fc	 mov	 ecx, DWORD PTR __$ArrayPad$[ebp]
  001bf	5f		 pop	 edi
  001c0	33 cd		 xor	 ecx, ebp
  001c2	5e		 pop	 esi
  001c3	e8 00 00 00 00	 call	 @__security_check_cookie@4
  001c8	c9		 leave
  001c9	c2 10 00	 ret	 16			; 00000010H
??$LoadString_e@$0O@@ioINILoader@@QAEXAAY0O@$$CBDAAY00$$CBDPADH@Z ENDP ; ioINILoader::LoadString_e<14>
_TEXT	ENDS
PUBLIC	??0?$CEncrypt@M@@QAE@XZ				; CEncrypt<float>::CEncrypt<float>
EXTRN	??0ccddaabb@@QAE@XZ:PROC			; ccddaabb::ccddaabb
;	COMDAT xdata$x
; File d:\lost saga for developer\youtube\tutorial\source\src\lsclient\encryptvalue.h
xdata$x	SEGMENT
__unwindtable$??0?$CEncrypt@M@@QAE@XZ DD 0ffffffffH
	DD	FLAT:__unwindfunclet$??0?$CEncrypt@M@@QAE@XZ$0
__ehfuncinfo$??0?$CEncrypt@M@@QAE@XZ DD 019930522H
	DD	01H
	DD	FLAT:__unwindtable$??0?$CEncrypt@M@@QAE@XZ
	DD	2 DUP(00H)
	DD	2 DUP(00H)
	DD	00H
	DD	01H
; Function compile flags: /Ogsp
xdata$x	ENDS
;	COMDAT ??0?$CEncrypt@M@@QAE@XZ
_TEXT	SEGMENT
_this$ = -16						; size = 4
__$EHRec$ = -12						; size = 12
??0?$CEncrypt@M@@QAE@XZ PROC				; CEncrypt<float>::CEncrypt<float>, COMDAT
; _this$ = ecx

; 109  : 	CEncrypt()

  00000	6a 04		 push	 4
  00002	b8 00 00 00 00	 mov	 eax, __ehhandler$??0?$CEncrypt@M@@QAE@XZ
  00007	e8 00 00 00 00	 call	 __EH_prolog3
  0000c	8b f1		 mov	 esi, ecx
  0000e	89 75 f0	 mov	 DWORD PTR _this$[ebp], esi
  00011	8d 4e 0c	 lea	 ecx, DWORD PTR [esi+12]
  00014	c7 06 00 00 00
	00		 mov	 DWORD PTR [esi], OFFSET ??_7?$CEncrypt@M@@6B@
  0001a	e8 00 00 00 00	 call	 ??0ccddaabb@@QAE@XZ	; ccddaabb::ccddaabb
  0001f	83 65 fc 00	 and	 DWORD PTR __$EHRec$[ebp+8], 0

; 110  : 	{
; 111  : 		Init();

  00023	8b ce		 mov	 ecx, esi
  00025	e8 00 00 00 00	 call	 ?Init@?$CEncrypt@M@@AAEXXZ ; CEncrypt<float>::Init

; 112  : 	}

  0002a	8b c6		 mov	 eax, esi
  0002c	e8 00 00 00 00	 call	 __EH_epilog3
  00031	c3		 ret	 0
_TEXT	ENDS
;	COMDAT text$x
text$x	SEGMENT
__unwindfunclet$??0?$CEncrypt@M@@QAE@XZ$0:
  00000	8b 4d f0	 mov	 ecx, DWORD PTR _this$[ebp]
  00003	83 c1 0c	 add	 ecx, 12			; 0000000cH
  00006	e9 00 00 00 00	 jmp	 ??1ccddaabb@@UAE@XZ	; ccddaabb::~ccddaabb
__ehhandler$??0?$CEncrypt@M@@QAE@XZ:
  0000b	8b 54 24 08	 mov	 edx, DWORD PTR [esp+8]
  0000f	8d 42 0c	 lea	 eax, DWORD PTR [edx+12]
  00012	8b 4a ec	 mov	 ecx, DWORD PTR [edx-20]
  00015	33 c8		 xor	 ecx, eax
  00017	e8 00 00 00 00	 call	 @__security_check_cookie@4
  0001c	b8 00 00 00 00	 mov	 eax, OFFSET __ehfuncinfo$??0?$CEncrypt@M@@QAE@XZ
  00021	e9 00 00 00 00	 jmp	 ___CxxFrameHandler3
text$x	ENDS
??0?$CEncrypt@M@@QAE@XZ ENDP				; CEncrypt<float>::CEncrypt<float>
PUBLIC	??B?$CEncrypt@M@@QAEMXZ				; CEncrypt<float>::operator float
; Function compile flags: /Ogsp
;	COMDAT ??B?$CEncrypt@M@@QAEMXZ
_TEXT	SEGMENT
_value$ = -4						; size = 4
??B?$CEncrypt@M@@QAEMXZ PROC				; CEncrypt<float>::operator float, COMDAT
; _this$ = ecx

; 134  : 	{

  00000	55		 push	 ebp
  00001	8b ec		 mov	 ebp, esp
  00003	51		 push	 ecx

; 135  : 		type value;
; 136  : 		DecryptValueToPool(&value);

  00004	8d 45 fc	 lea	 eax, DWORD PTR _value$[ebp]
  00007	50		 push	 eax
  00008	e8 00 00 00 00	 call	 ?DecryptValueToPool@?$CEncrypt@M@@QAEXPAM@Z ; CEncrypt<float>::DecryptValueToPool

; 137  : 
; 138  : #ifdef _NOTUSE
; 139  : 		Debug();
; 140  : #endif
; 141  : 		return value;

  0000d	d9 45 fc	 fld	 DWORD PTR _value$[ebp]

; 142  : 	}

  00010	c9		 leave
  00011	c3		 ret	 0
??B?$CEncrypt@M@@QAEMXZ ENDP				; CEncrypt<float>::operator float
_TEXT	ENDS
PUBLIC	??B?$CEncrypt@M@@QBEMXZ				; CEncrypt<float>::operator float
; Function compile flags: /Ogsp
;	COMDAT ??B?$CEncrypt@M@@QBEMXZ
_TEXT	SEGMENT
_value$ = -4						; size = 4
??B?$CEncrypt@M@@QBEMXZ PROC				; CEncrypt<float>::operator float, COMDAT
; _this$ = ecx

; 145  : 	{

  00000	55		 push	 ebp
  00001	8b ec		 mov	 ebp, esp
  00003	51		 push	 ecx

; 146  : 		//UJ 130829, const    --start
; 147  : 		type value;
; 148  : 		CEncrypt<type>* pThis = const_cast<CEncrypt<type>*>(this);
; 149  : 		pThis->DecryptValueToPool(&value);

  00004	8d 45 fc	 lea	 eax, DWORD PTR _value$[ebp]
  00007	50		 push	 eax
  00008	e8 00 00 00 00	 call	 ?DecryptValueToPool@?$CEncrypt@M@@QAEXPAM@Z ; CEncrypt<float>::DecryptValueToPool

; 150  : 		//// const DecryptValueToPool     .
; 151  :  		//type value;
; 152  : 		//char szTempMem[MAX_ENCRYPT];
; 153  : 		//m_RC5.DecryptByte( m_MemPool, szTempMem, max(m_ValueSize, DEFAULT_ENCRYPT) );
; 154  : 		//memcpy( &value, szTempMem, m_ValueSize );
; 155  : 		//UJ --end
; 156  : 
; 157  : #ifdef _NOTUSE
; 158  : 		Debug();
; 159  : #endif
; 160  : 		return value;

  0000d	d9 45 fc	 fld	 DWORD PTR _value$[ebp]

; 161  : 	}

  00010	c9		 leave
  00011	c3		 ret	 0
??B?$CEncrypt@M@@QBEMXZ ENDP				; CEncrypt<float>::operator float
_TEXT	ENDS
PUBLIC	??4?$CEncrypt@M@@QAEMM@Z			; CEncrypt<float>::operator=
; Function compile flags: /Ogsp
;	COMDAT ??4?$CEncrypt@M@@QAEMM@Z
_TEXT	SEGMENT
_value$ = 8						; size = 4
_inValue$ = 8						; size = 4
??4?$CEncrypt@M@@QAEMM@Z PROC				; CEncrypt<float>::operator=, COMDAT
; _this$ = ecx

; 1654 : 	{	

  00000	55		 push	 ebp
  00001	8b ec		 mov	 ebp, esp

; 1655 : 		type value = inValue;

  00003	d9 45 08	 fld	 DWORD PTR _inValue$[ebp]

; 1656 : 		EncryptValueToPool((char*)&value);

  00006	8d 45 08	 lea	 eax, DWORD PTR _value$[ebp]
  00009	50		 push	 eax
  0000a	d9 5d 08	 fstp	 DWORD PTR _value$[ebp]
  0000d	e8 00 00 00 00	 call	 ?EncryptValueToPool@?$CEncrypt@M@@AAEXPBD@Z ; CEncrypt<float>::EncryptValueToPool

; 1657 : #ifdef _NOTUSE
; 1658 : 		m_value = inValue;
; 1659 : 		Debug();
; 1660 : #endif
; 1661 : 		return value;

  00012	d9 45 08	 fld	 DWORD PTR _value$[ebp]

; 1662 : 	}

  00015	5d		 pop	 ebp
  00016	c2 04 00	 ret	 4
??4?$CEncrypt@M@@QAEMM@Z ENDP				; CEncrypt<float>::operator=
_TEXT	ENDS
PUBLIC	??0?$CEncrypt@K@@QAE@XZ				; CEncrypt<unsigned long>::CEncrypt<unsigned long>
;	COMDAT xdata$x
xdata$x	SEGMENT
__unwindtable$??0?$CEncrypt@K@@QAE@XZ DD 0ffffffffH
	DD	FLAT:__unwindfunclet$??0?$CEncrypt@K@@QAE@XZ$0
__ehfuncinfo$??0?$CEncrypt@K@@QAE@XZ DD 019930522H
	DD	01H
	DD	FLAT:__unwindtable$??0?$CEncrypt@K@@QAE@XZ
	DD	2 DUP(00H)
	DD	2 DUP(00H)
	DD	00H
	DD	01H
; Function compile flags: /Ogsp
xdata$x	ENDS
;	COMDAT ??0?$CEncrypt@K@@QAE@XZ
_TEXT	SEGMENT
_this$ = -16						; size = 4
__$EHRec$ = -12						; size = 12
??0?$CEncrypt@K@@QAE@XZ PROC				; CEncrypt<unsigned long>::CEncrypt<unsigned long>, COMDAT
; _this$ = ecx

; 109  : 	CEncrypt()

  00000	6a 04		 push	 4
  00002	b8 00 00 00 00	 mov	 eax, __ehhandler$??0?$CEncrypt@K@@QAE@XZ
  00007	e8 00 00 00 00	 call	 __EH_prolog3
  0000c	8b f1		 mov	 esi, ecx
  0000e	89 75 f0	 mov	 DWORD PTR _this$[ebp], esi
  00011	8d 4e 0c	 lea	 ecx, DWORD PTR [esi+12]
  00014	c7 06 00 00 00
	00		 mov	 DWORD PTR [esi], OFFSET ??_7?$CEncrypt@K@@6B@
  0001a	e8 00 00 00 00	 call	 ??0ccddaabb@@QAE@XZ	; ccddaabb::ccddaabb
  0001f	83 65 fc 00	 and	 DWORD PTR __$EHRec$[ebp+8], 0

; 110  : 	{
; 111  : 		Init();

  00023	8b ce		 mov	 ecx, esi
  00025	e8 00 00 00 00	 call	 ?Init@?$CEncrypt@K@@AAEXXZ ; CEncrypt<unsigned long>::Init

; 112  : 	}

  0002a	8b c6		 mov	 eax, esi
  0002c	e8 00 00 00 00	 call	 __EH_epilog3
  00031	c3		 ret	 0
_TEXT	ENDS
;	COMDAT text$x
text$x	SEGMENT
__unwindfunclet$??0?$CEncrypt@K@@QAE@XZ$0:
  00000	8b 4d f0	 mov	 ecx, DWORD PTR _this$[ebp]
  00003	83 c1 0c	 add	 ecx, 12			; 0000000cH
  00006	e9 00 00 00 00	 jmp	 ??1ccddaabb@@UAE@XZ	; ccddaabb::~ccddaabb
__ehhandler$??0?$CEncrypt@K@@QAE@XZ:
  0000b	8b 54 24 08	 mov	 edx, DWORD PTR [esp+8]
  0000f	8d 42 0c	 lea	 eax, DWORD PTR [edx+12]
  00012	8b 4a ec	 mov	 ecx, DWORD PTR [edx-20]
  00015	33 c8		 xor	 ecx, eax
  00017	e8 00 00 00 00	 call	 @__security_check_cookie@4
  0001c	b8 00 00 00 00	 mov	 eax, OFFSET __ehfuncinfo$??0?$CEncrypt@K@@QAE@XZ
  00021	e9 00 00 00 00	 jmp	 ___CxxFrameHandler3
text$x	ENDS
??0?$CEncrypt@K@@QAE@XZ ENDP				; CEncrypt<unsigned long>::CEncrypt<unsigned long>
PUBLIC	??B?$CEncrypt@K@@QAEKXZ				; CEncrypt<unsigned long>::operator unsigned long
; Function compile flags: /Ogsp
;	COMDAT ??B?$CEncrypt@K@@QAEKXZ
_TEXT	SEGMENT
_value$ = -4						; size = 4
??B?$CEncrypt@K@@QAEKXZ PROC				; CEncrypt<unsigned long>::operator unsigned long, COMDAT
; _this$ = ecx

; 134  : 	{

  00000	55		 push	 ebp
  00001	8b ec		 mov	 ebp, esp
  00003	51		 push	 ecx

; 135  : 		type value;
; 136  : 		DecryptValueToPool(&value);

  00004	8d 45 fc	 lea	 eax, DWORD PTR _value$[ebp]
  00007	50		 push	 eax
  00008	e8 00 00 00 00	 call	 ?DecryptValueToPool@?$CEncrypt@K@@QAEXPAK@Z ; CEncrypt<unsigned long>::DecryptValueToPool

; 137  : 
; 138  : #ifdef _NOTUSE
; 139  : 		Debug();
; 140  : #endif
; 141  : 		return value;

  0000d	8b 45 fc	 mov	 eax, DWORD PTR _value$[ebp]

; 142  : 	}

  00010	c9		 leave
  00011	c3		 ret	 0
??B?$CEncrypt@K@@QAEKXZ ENDP				; CEncrypt<unsigned long>::operator unsigned long
_TEXT	ENDS
PUBLIC	??B?$CEncrypt@K@@QBEKXZ				; CEncrypt<unsigned long>::operator unsigned long
; Function compile flags: /Ogsp
;	COMDAT ??B?$CEncrypt@K@@QBEKXZ
_TEXT	SEGMENT
_value$ = -4						; size = 4
??B?$CEncrypt@K@@QBEKXZ PROC				; CEncrypt<unsigned long>::operator unsigned long, COMDAT
; _this$ = ecx

; 145  : 	{

  00000	55		 push	 ebp
  00001	8b ec		 mov	 ebp, esp
  00003	51		 push	 ecx

; 146  : 		//UJ 130829, const    --start
; 147  : 		type value;
; 148  : 		CEncrypt<type>* pThis = const_cast<CEncrypt<type>*>(this);
; 149  : 		pThis->DecryptValueToPool(&value);

  00004	8d 45 fc	 lea	 eax, DWORD PTR _value$[ebp]
  00007	50		 push	 eax
  00008	e8 00 00 00 00	 call	 ?DecryptValueToPool@?$CEncrypt@K@@QAEXPAK@Z ; CEncrypt<unsigned long>::DecryptValueToPool

; 150  : 		//// const DecryptValueToPool     .
; 151  :  		//type value;
; 152  : 		//char szTempMem[MAX_ENCRYPT];
; 153  : 		//m_RC5.DecryptByte( m_MemPool, szTempMem, max(m_ValueSize, DEFAULT_ENCRYPT) );
; 154  : 		//memcpy( &value, szTempMem, m_ValueSize );
; 155  : 		//UJ --end
; 156  : 
; 157  : #ifdef _NOTUSE
; 158  : 		Debug();
; 159  : #endif
; 160  : 		return value;

  0000d	8b 45 fc	 mov	 eax, DWORD PTR _value$[ebp]

; 161  : 	}

  00010	c9		 leave
  00011	c3		 ret	 0
??B?$CEncrypt@K@@QBEKXZ ENDP				; CEncrypt<unsigned long>::operator unsigned long
_TEXT	ENDS
PUBLIC	??4?$CEncrypt@K@@QAEKK@Z			; CEncrypt<unsigned long>::operator=
; Function compile flags: /Ogsp
;	COMDAT ??4?$CEncrypt@K@@QAEKK@Z
_TEXT	SEGMENT
_value$ = 8						; size = 4
_inValue$ = 8						; size = 4
??4?$CEncrypt@K@@QAEKK@Z PROC				; CEncrypt<unsigned long>::operator=, COMDAT
; _this$ = ecx

; 1262 : 	{

  00000	55		 push	 ebp
  00001	8b ec		 mov	 ebp, esp

; 1263 : 		
; 1264 : 		type value = inValue;

  00003	8b 45 08	 mov	 eax, DWORD PTR _inValue$[ebp]
  00006	89 45 08	 mov	 DWORD PTR _value$[ebp], eax

; 1265 : 		EncryptValueToPool((char*)&value);

  00009	8d 45 08	 lea	 eax, DWORD PTR _value$[ebp]
  0000c	50		 push	 eax
  0000d	e8 00 00 00 00	 call	 ?EncryptValueToPool@?$CEncrypt@K@@AAEXPBD@Z ; CEncrypt<unsigned long>::EncryptValueToPool

; 1266 : #ifdef _NOTUSE
; 1267 : 		m_value = inValue;
; 1268 : 		Debug();
; 1269 : #endif
; 1270 : 		return value;

  00012	8b 45 08	 mov	 eax, DWORD PTR _value$[ebp]

; 1271 : 	}

  00015	5d		 pop	 ebp
  00016	c2 04 00	 ret	 4
??4?$CEncrypt@K@@QAEKK@Z ENDP				; CEncrypt<unsigned long>::operator=
_TEXT	ENDS
PUBLIC	??0?$CEncrypt@_N@@QAE@XZ			; CEncrypt<bool>::CEncrypt<bool>
;	COMDAT xdata$x
xdata$x	SEGMENT
__unwindtable$??0?$CEncrypt@_N@@QAE@XZ DD 0ffffffffH
	DD	FLAT:__unwindfunclet$??0?$CEncrypt@_N@@QAE@XZ$0
__ehfuncinfo$??0?$CEncrypt@_N@@QAE@XZ DD 019930522H
	DD	01H
	DD	FLAT:__unwindtable$??0?$CEncrypt@_N@@QAE@XZ
	DD	2 DUP(00H)
	DD	2 DUP(00H)
	DD	00H
	DD	01H
; Function compile flags: /Ogsp
xdata$x	ENDS
;	COMDAT ??0?$CEncrypt@_N@@QAE@XZ
_TEXT	SEGMENT
_this$ = -16						; size = 4
__$EHRec$ = -12						; size = 12
??0?$CEncrypt@_N@@QAE@XZ PROC				; CEncrypt<bool>::CEncrypt<bool>, COMDAT
; _this$ = ecx

; 109  : 	CEncrypt()

  00000	6a 04		 push	 4
  00002	b8 00 00 00 00	 mov	 eax, __ehhandler$??0?$CEncrypt@_N@@QAE@XZ
  00007	e8 00 00 00 00	 call	 __EH_prolog3
  0000c	8b f1		 mov	 esi, ecx
  0000e	89 75 f0	 mov	 DWORD PTR _this$[ebp], esi
  00011	8d 4e 0c	 lea	 ecx, DWORD PTR [esi+12]
  00014	c7 06 00 00 00
	00		 mov	 DWORD PTR [esi], OFFSET ??_7?$CEncrypt@_N@@6B@
  0001a	e8 00 00 00 00	 call	 ??0ccddaabb@@QAE@XZ	; ccddaabb::ccddaabb
  0001f	83 65 fc 00	 and	 DWORD PTR __$EHRec$[ebp+8], 0

; 110  : 	{
; 111  : 		Init();

  00023	8b ce		 mov	 ecx, esi
  00025	e8 00 00 00 00	 call	 ?Init@?$CEncrypt@_N@@AAEXXZ ; CEncrypt<bool>::Init

; 112  : 	}

  0002a	8b c6		 mov	 eax, esi
  0002c	e8 00 00 00 00	 call	 __EH_epilog3
  00031	c3		 ret	 0
_TEXT	ENDS
;	COMDAT text$x
text$x	SEGMENT
__unwindfunclet$??0?$CEncrypt@_N@@QAE@XZ$0:
  00000	8b 4d f0	 mov	 ecx, DWORD PTR _this$[ebp]
  00003	83 c1 0c	 add	 ecx, 12			; 0000000cH
  00006	e9 00 00 00 00	 jmp	 ??1ccddaabb@@UAE@XZ	; ccddaabb::~ccddaabb
__ehhandler$??0?$CEncrypt@_N@@QAE@XZ:
  0000b	8b 54 24 08	 mov	 edx, DWORD PTR [esp+8]
  0000f	8d 42 0c	 lea	 eax, DWORD PTR [edx+12]
  00012	8b 4a ec	 mov	 ecx, DWORD PTR [edx-20]
  00015	33 c8		 xor	 ecx, eax
  00017	e8 00 00 00 00	 call	 @__security_check_cookie@4
  0001c	b8 00 00 00 00	 mov	 eax, OFFSET __ehfuncinfo$??0?$CEncrypt@_N@@QAE@XZ
  00021	e9 00 00 00 00	 jmp	 ___CxxFrameHandler3
text$x	ENDS
??0?$CEncrypt@_N@@QAE@XZ ENDP				; CEncrypt<bool>::CEncrypt<bool>
PUBLIC	??B?$CEncrypt@_N@@QAE_NXZ			; CEncrypt<bool>::operator bool
; Function compile flags: /Ogsp
;	COMDAT ??B?$CEncrypt@_N@@QAE_NXZ
_TEXT	SEGMENT
_value$ = -1						; size = 1
??B?$CEncrypt@_N@@QAE_NXZ PROC				; CEncrypt<bool>::operator bool, COMDAT
; _this$ = ecx

; 134  : 	{

  00000	55		 push	 ebp
  00001	8b ec		 mov	 ebp, esp
  00003	51		 push	 ecx

; 135  : 		type value;
; 136  : 		DecryptValueToPool(&value);

  00004	8d 45 ff	 lea	 eax, DWORD PTR _value$[ebp]
  00007	50		 push	 eax
  00008	e8 00 00 00 00	 call	 ?DecryptValueToPool@?$CEncrypt@_N@@QAEXPA_N@Z ; CEncrypt<bool>::DecryptValueToPool

; 137  : 
; 138  : #ifdef _NOTUSE
; 139  : 		Debug();
; 140  : #endif
; 141  : 		return value;

  0000d	8a 45 ff	 mov	 al, BYTE PTR _value$[ebp]

; 142  : 	}

  00010	c9		 leave
  00011	c3		 ret	 0
??B?$CEncrypt@_N@@QAE_NXZ ENDP				; CEncrypt<bool>::operator bool
_TEXT	ENDS
PUBLIC	??B?$CEncrypt@_N@@QBE_NXZ			; CEncrypt<bool>::operator bool
; Function compile flags: /Ogsp
;	COMDAT ??B?$CEncrypt@_N@@QBE_NXZ
_TEXT	SEGMENT
_value$ = -1						; size = 1
??B?$CEncrypt@_N@@QBE_NXZ PROC				; CEncrypt<bool>::operator bool, COMDAT
; _this$ = ecx

; 145  : 	{

  00000	55		 push	 ebp
  00001	8b ec		 mov	 ebp, esp
  00003	51		 push	 ecx

; 146  : 		//UJ 130829, const    --start
; 147  : 		type value;
; 148  : 		CEncrypt<type>* pThis = const_cast<CEncrypt<type>*>(this);
; 149  : 		pThis->DecryptValueToPool(&value);

  00004	8d 45 ff	 lea	 eax, DWORD PTR _value$[ebp]
  00007	50		 push	 eax
  00008	e8 00 00 00 00	 call	 ?DecryptValueToPool@?$CEncrypt@_N@@QAEXPA_N@Z ; CEncrypt<bool>::DecryptValueToPool

; 150  : 		//// const DecryptValueToPool     .
; 151  :  		//type value;
; 152  : 		//char szTempMem[MAX_ENCRYPT];
; 153  : 		//m_RC5.DecryptByte( m_MemPool, szTempMem, max(m_ValueSize, DEFAULT_ENCRYPT) );
; 154  : 		//memcpy( &value, szTempMem, m_ValueSize );
; 155  : 		//UJ --end
; 156  : 
; 157  : #ifdef _NOTUSE
; 158  : 		Debug();
; 159  : #endif
; 160  : 		return value;

  0000d	8a 45 ff	 mov	 al, BYTE PTR _value$[ebp]

; 161  : 	}

  00010	c9		 leave
  00011	c3		 ret	 0
??B?$CEncrypt@_N@@QBE_NXZ ENDP				; CEncrypt<bool>::operator bool
_TEXT	ENDS
PUBLIC	??4?$CEncrypt@_N@@QAE_N_N@Z			; CEncrypt<bool>::operator=
; Function compile flags: /Ogsp
;	COMDAT ??4?$CEncrypt@_N@@QAE_N_N@Z
_TEXT	SEGMENT
_inValue$ = 8						; size = 1
_value$ = 11						; size = 1
??4?$CEncrypt@_N@@QAE_N_N@Z PROC			; CEncrypt<bool>::operator=, COMDAT
; _this$ = ecx

; 225  : 	{

  00000	55		 push	 ebp
  00001	8b ec		 mov	 ebp, esp

; 226  : 		type value = inValue;

  00003	8a 45 08	 mov	 al, BYTE PTR _inValue$[ebp]
  00006	88 45 0b	 mov	 BYTE PTR _value$[ebp], al

; 227  : 		EncryptValueToPool((char*)&value);

  00009	8d 45 0b	 lea	 eax, DWORD PTR _value$[ebp]
  0000c	50		 push	 eax
  0000d	e8 00 00 00 00	 call	 ?EncryptValueToPool@?$CEncrypt@_N@@AAEXPBD@Z ; CEncrypt<bool>::EncryptValueToPool

; 228  : #ifdef _NOTUSE
; 229  : 		m_value = inValue;
; 230  : 		Debug();
; 231  : #endif
; 232  : 		return value;

  00012	8a 45 0b	 mov	 al, BYTE PTR _value$[ebp]

; 233  : 	}

  00015	5d		 pop	 ebp
  00016	c2 04 00	 ret	 4
??4?$CEncrypt@_N@@QAE_N_N@Z ENDP			; CEncrypt<bool>::operator=
_TEXT	ENDS
PUBLIC	??B?$CEncrypt@W4TeamType@@@@QBE?AW4TeamType@@XZ	; CEncrypt<enum TeamType>::operator enum TeamType
; Function compile flags: /Ogsp
;	COMDAT ??B?$CEncrypt@W4TeamType@@@@QBE?AW4TeamType@@XZ
_TEXT	SEGMENT
_value$ = -4						; size = 4
??B?$CEncrypt@W4TeamType@@@@QBE?AW4TeamType@@XZ PROC	; CEncrypt<enum TeamType>::operator enum TeamType, COMDAT
; _this$ = ecx

; 145  : 	{

  00000	55		 push	 ebp
  00001	8b ec		 mov	 ebp, esp
  00003	51		 push	 ecx

; 146  : 		//UJ 130829, const    --start
; 147  : 		type value;
; 148  : 		CEncrypt<type>* pThis = const_cast<CEncrypt<type>*>(this);
; 149  : 		pThis->DecryptValueToPool(&value);

  00004	8d 45 fc	 lea	 eax, DWORD PTR _value$[ebp]
  00007	50		 push	 eax
  00008	e8 00 00 00 00	 call	 ?DecryptValueToPool@?$CEncrypt@W4TeamType@@@@QAEXPAW4TeamType@@@Z ; CEncrypt<enum TeamType>::DecryptValueToPool

; 150  : 		//// const DecryptValueToPool     .
; 151  :  		//type value;
; 152  : 		//char szTempMem[MAX_ENCRYPT];
; 153  : 		//m_RC5.DecryptByte( m_MemPool, szTempMem, max(m_ValueSize, DEFAULT_ENCRYPT) );
; 154  : 		//memcpy( &value, szTempMem, m_ValueSize );
; 155  : 		//UJ --end
; 156  : 
; 157  : #ifdef _NOTUSE
; 158  : 		Debug();
; 159  : #endif
; 160  : 		return value;

  0000d	8b 45 fc	 mov	 eax, DWORD PTR _value$[ebp]

; 161  : 	}

  00010	c9		 leave
  00011	c3		 ret	 0
??B?$CEncrypt@W4TeamType@@@@QBE?AW4TeamType@@XZ ENDP	; CEncrypt<enum TeamType>::operator enum TeamType
_TEXT	ENDS
PUBLIC	??B?$CEncrypt@W4ModeType@@@@QAE?AW4ModeType@@XZ	; CEncrypt<enum ModeType>::operator enum ModeType
; Function compile flags: /Ogsp
;	COMDAT ??B?$CEncrypt@W4ModeType@@@@QAE?AW4ModeType@@XZ
_TEXT	SEGMENT
_value$ = -4						; size = 4
??B?$CEncrypt@W4ModeType@@@@QAE?AW4ModeType@@XZ PROC	; CEncrypt<enum ModeType>::operator enum ModeType, COMDAT
; _this$ = ecx

; 134  : 	{

  00000	55		 push	 ebp
  00001	8b ec		 mov	 ebp, esp
  00003	51		 push	 ecx

; 135  : 		type value;
; 136  : 		DecryptValueToPool(&value);

  00004	8d 45 fc	 lea	 eax, DWORD PTR _value$[ebp]
  00007	50		 push	 eax
  00008	e8 00 00 00 00	 call	 ?DecryptValueToPool@?$CEncrypt@W4ModeType@@@@QAEXPAW4ModeType@@@Z ; CEncrypt<enum ModeType>::DecryptValueToPool

; 137  : 
; 138  : #ifdef _NOTUSE
; 139  : 		Debug();
; 140  : #endif
; 141  : 		return value;

  0000d	8b 45 fc	 mov	 eax, DWORD PTR _value$[ebp]

; 142  : 	}

  00010	c9		 leave
  00011	c3		 ret	 0
??B?$CEncrypt@W4ModeType@@@@QAE?AW4ModeType@@XZ ENDP	; CEncrypt<enum ModeType>::operator enum ModeType
_TEXT	ENDS
PUBLIC	?GetProtectionMode@ioBaseChar@@QAE?AW4ProtectionMode@@XZ ; ioBaseChar::GetProtectionMode
; Function compile flags: /Ogsp
; File d:\lost saga for developer\youtube\tutorial\source\src\lsclient\iobasechar.h
;	COMDAT ?GetProtectionMode@ioBaseChar@@QAE?AW4ProtectionMode@@XZ
_TEXT	SEGMENT
_value$533342 = -4					; size = 4
?GetProtectionMode@ioBaseChar@@QAE?AW4ProtectionMode@@XZ PROC ; ioBaseChar::GetProtectionMode, COMDAT
; _this$ = ecx

; 2170 : 	ProtectionMode GetProtectionMode() { return m_ProtectionMode; }

  00000	55		 push	 ebp
  00001	8b ec		 mov	 ebp, esp
  00003	51		 push	 ecx
  00004	8d 45 fc	 lea	 eax, DWORD PTR _value$533342[ebp]
  00007	50		 push	 eax
  00008	81 c1 d8 10 00
	00		 add	 ecx, 4312		; 000010d8H
  0000e	e8 00 00 00 00	 call	 ?DecryptValueToPool@?$CEncrypt@W4ProtectionMode@@@@QAEXPAW4ProtectionMode@@@Z ; CEncrypt<enum ProtectionMode>::DecryptValueToPool
  00013	8b 45 fc	 mov	 eax, DWORD PTR _value$533342[ebp]
  00016	c9		 leave
  00017	c3		 ret	 0
?GetProtectionMode@ioBaseChar@@QAE?AW4ProtectionMode@@XZ ENDP ; ioBaseChar::GetProtectionMode
_TEXT	ENDS
PUBLIC	?GetExperienceMode@ioBaseChar@@QBE?BKXZ		; ioBaseChar::GetExperienceMode
; Function compile flags: /Ogsp
;	COMDAT ?GetExperienceMode@ioBaseChar@@QBE?BKXZ
_TEXT	SEGMENT
_value$533348 = -4					; size = 4
?GetExperienceMode@ioBaseChar@@QBE?BKXZ PROC		; ioBaseChar::GetExperienceMode, COMDAT
; _this$ = ecx

; 3193 : 	inline const DWORD GetExperienceMode() const { return m_ExperienceMode; }

  00000	55		 push	 ebp
  00001	8b ec		 mov	 ebp, esp
  00003	51		 push	 ecx
  00004	8d 45 fc	 lea	 eax, DWORD PTR _value$533348[ebp]
  00007	50		 push	 eax
  00008	81 c1 94 1d 00
	00		 add	 ecx, 7572		; 00001d94H
  0000e	e8 00 00 00 00	 call	 ?DecryptValueToPool@?$CEncrypt@K@@QAEXPAK@Z ; CEncrypt<unsigned long>::DecryptValueToPool
  00013	8b 45 fc	 mov	 eax, DWORD PTR _value$533348[ebp]
  00016	c9		 leave
  00017	c3		 ret	 0
?GetExperienceMode@ioBaseChar@@QBE?BKXZ ENDP		; ioBaseChar::GetExperienceMode
_TEXT	ENDS
PUBLIC	??0ioMagneticBuff@@QAE@XZ			; ioMagneticBuff::ioMagneticBuff
EXTRN	__imp_??0ioHashString@@QAE@XZ:PROC
EXTRN	??0ioBuff@@QAE@XZ:PROC				; ioBuff::ioBuff
;	COMDAT xdata$x
; File d:\lost saga for developer\youtube\tutorial\source\src\lsclient\iomagneticbuff.cpp
xdata$x	SEGMENT
__ehfuncinfo$??0ioMagneticBuff@@QAE@XZ DD 019930522H
	DD	0fH
	DD	FLAT:__unwindtable$??0ioMagneticBuff@@QAE@XZ
	DD	2 DUP(00H)
	DD	2 DUP(00H)
	DD	00H
	DD	01H
__unwindtable$??0ioMagneticBuff@@QAE@XZ DD 0ffffffffH
	DD	FLAT:__unwindfunclet$??0ioMagneticBuff@@QAE@XZ$0
	DD	00H
	DD	FLAT:__unwindfunclet$??0ioMagneticBuff@@QAE@XZ$1
	DD	01H
	DD	FLAT:__unwindfunclet$??0ioMagneticBuff@@QAE@XZ$2
	DD	02H
	DD	FLAT:__unwindfunclet$??0ioMagneticBuff@@QAE@XZ$3
	DD	03H
	DD	FLAT:__unwindfunclet$??0ioMagneticBuff@@QAE@XZ$4
	DD	04H
	DD	FLAT:__unwindfunclet$??0ioMagneticBuff@@QAE@XZ$5
	DD	05H
	DD	FLAT:__unwindfunclet$??0ioMagneticBuff@@QAE@XZ$6
	DD	06H
	DD	FLAT:__unwindfunclet$??0ioMagneticBuff@@QAE@XZ$7
	DD	07H
	DD	FLAT:__unwindfunclet$??0ioMagneticBuff@@QAE@XZ$8
	DD	08H
	DD	FLAT:__unwindfunclet$??0ioMagneticBuff@@QAE@XZ$9
	DD	09H
	DD	FLAT:__unwindfunclet$??0ioMagneticBuff@@QAE@XZ$10
	DD	0aH
	DD	FLAT:__unwindfunclet$??0ioMagneticBuff@@QAE@XZ$11
	DD	0bH
	DD	FLAT:__unwindfunclet$??0ioMagneticBuff@@QAE@XZ$12
	DD	0cH
	DD	FLAT:__unwindfunclet$??0ioMagneticBuff@@QAE@XZ$13
	DD	0dH
	DD	FLAT:__unwindfunclet$??0ioMagneticBuff@@QAE@XZ$14
; Function compile flags: /Ogsp
xdata$x	ENDS
;	COMDAT ??0ioMagneticBuff@@QAE@XZ
_TEXT	SEGMENT
_this$ = -16						; size = 4
__$EHRec$ = -12						; size = 12
??0ioMagneticBuff@@QAE@XZ PROC				; ioMagneticBuff::ioMagneticBuff, COMDAT
; _this$ = ecx

; 12   : {

  00000	6a 04		 push	 4
  00002	b8 00 00 00 00	 mov	 eax, __ehhandler$??0ioMagneticBuff@@QAE@XZ
  00007	e8 00 00 00 00	 call	 __EH_prolog3
  0000c	8b f1		 mov	 esi, ecx
  0000e	89 75 f0	 mov	 DWORD PTR _this$[ebp], esi
  00011	e8 00 00 00 00	 call	 ??0ioBuff@@QAE@XZ	; ioBuff::ioBuff
  00016	83 65 fc 00	 and	 DWORD PTR __$EHRec$[ebp+8], 0
  0001a	8d 8e 74 09 00
	00		 lea	 ecx, DWORD PTR [esi+2420]
  00020	c7 06 00 00 00
	00		 mov	 DWORD PTR [esi], OFFSET ??_7ioMagneticBuff@@6B@
  00026	e8 00 00 00 00	 call	 ??0?$CEncrypt@M@@QAE@XZ	; CEncrypt<float>::CEncrypt<float>
  0002b	8d 8e a4 09 00
	00		 lea	 ecx, DWORD PTR [esi+2468]
  00031	c6 45 fc 01	 mov	 BYTE PTR __$EHRec$[ebp+8], 1
  00035	e8 00 00 00 00	 call	 ??0?$CEncrypt@_N@@QAE@XZ ; CEncrypt<bool>::CEncrypt<bool>
  0003a	8d 8e d4 09 00
	00		 lea	 ecx, DWORD PTR [esi+2516]
  00040	c6 45 fc 02	 mov	 BYTE PTR __$EHRec$[ebp+8], 2
  00044	e8 00 00 00 00	 call	 ??0?$CEncrypt@M@@QAE@XZ	; CEncrypt<float>::CEncrypt<float>
  00049	8d 8e 0c 0a 00
	00		 lea	 ecx, DWORD PTR [esi+2572]
  0004f	c6 45 fc 03	 mov	 BYTE PTR __$EHRec$[ebp+8], 3
  00053	e8 00 00 00 00	 call	 ??0?$CEncrypt@K@@QAE@XZ	; CEncrypt<unsigned long>::CEncrypt<unsigned long>
  00058	8d 8e 3c 0a 00
	00		 lea	 ecx, DWORD PTR [esi+2620]
  0005e	c6 45 fc 04	 mov	 BYTE PTR __$EHRec$[ebp+8], 4
  00062	e8 00 00 00 00	 call	 ??0?$CEncrypt@M@@QAE@XZ	; CEncrypt<float>::CEncrypt<float>
  00067	8b 3d 00 00 00
	00		 mov	 edi, DWORD PTR __imp_??0ioHashString@@QAE@XZ
  0006d	8d 8e 6c 0a 00
	00		 lea	 ecx, DWORD PTR [esi+2668]
  00073	c6 45 fc 05	 mov	 BYTE PTR __$EHRec$[ebp+8], 5
  00077	ff d7		 call	 edi
  00079	8d 8e 7c 0a 00
	00		 lea	 ecx, DWORD PTR [esi+2684]
  0007f	c6 45 fc 06	 mov	 BYTE PTR __$EHRec$[ebp+8], 6
  00083	e8 00 00 00 00	 call	 ??0?$CEncrypt@M@@QAE@XZ	; CEncrypt<float>::CEncrypt<float>
  00088	8d 8e ac 0a 00
	00		 lea	 ecx, DWORD PTR [esi+2732]
  0008e	c6 45 fc 07	 mov	 BYTE PTR __$EHRec$[ebp+8], 7
  00092	e8 00 00 00 00	 call	 ??0?$CEncrypt@K@@QAE@XZ	; CEncrypt<unsigned long>::CEncrypt<unsigned long>
  00097	8d 8e dc 0a 00
	00		 lea	 ecx, DWORD PTR [esi+2780]
  0009d	c6 45 fc 08	 mov	 BYTE PTR __$EHRec$[ebp+8], 8
  000a1	ff d7		 call	 edi
  000a3	8d 8e ec 0a 00
	00		 lea	 ecx, DWORD PTR [esi+2796]
  000a9	c6 45 fc 09	 mov	 BYTE PTR __$EHRec$[ebp+8], 9
  000ad	ff d7		 call	 edi
  000af	8d 8e fc 0a 00
	00		 lea	 ecx, DWORD PTR [esi+2812]
  000b5	c6 45 fc 0a	 mov	 BYTE PTR __$EHRec$[ebp+8], 10 ; 0000000aH
  000b9	e8 00 00 00 00	 call	 ??0?$CEncrypt@M@@QAE@XZ	; CEncrypt<float>::CEncrypt<float>
  000be	8d 8e 2c 0b 00
	00		 lea	 ecx, DWORD PTR [esi+2860]
  000c4	c6 45 fc 0b	 mov	 BYTE PTR __$EHRec$[ebp+8], 11 ; 0000000bH
  000c8	e8 00 00 00 00	 call	 ??0?$CEncrypt@K@@QAE@XZ	; CEncrypt<unsigned long>::CEncrypt<unsigned long>
  000cd	8d 8e 5c 0b 00
	00		 lea	 ecx, DWORD PTR [esi+2908]
  000d3	c6 45 fc 0c	 mov	 BYTE PTR __$EHRec$[ebp+8], 12 ; 0000000cH
  000d7	ff d7		 call	 edi
  000d9	8d 8e 6c 0b 00
	00		 lea	 ecx, DWORD PTR [esi+2924]
  000df	c6 45 fc 0d	 mov	 BYTE PTR __$EHRec$[ebp+8], 13 ; 0000000dH
  000e3	ff d7		 call	 edi
  000e5	8d 8e 7c 0b 00
	00		 lea	 ecx, DWORD PTR [esi+2940]
  000eb	c6 45 fc 0e	 mov	 BYTE PTR __$EHRec$[ebp+8], 14 ; 0000000eH
  000ef	ff d7		 call	 edi

; 13   : 	m_Magnet = MAGNET_NONE;

  000f1	83 a6 70 09 00
	00 00		 and	 DWORD PTR [esi+2416], 0

; 14   : 	m_dwCurDelayTime = 0;

  000f8	83 a6 08 0a 00
	00 00		 and	 DWORD PTR [esi+2568], 0

; 15   : }

  000ff	8b c6		 mov	 eax, esi
  00101	e8 00 00 00 00	 call	 __EH_epilog3
  00106	c3		 ret	 0
_TEXT	ENDS
;	COMDAT text$x
text$x	SEGMENT
__unwindfunclet$??0ioMagneticBuff@@QAE@XZ$0:
  00000	8b 4d f0	 mov	 ecx, DWORD PTR _this$[ebp]
  00003	e9 00 00 00 00	 jmp	 ??1ioBuff@@UAE@XZ	; ioBuff::~ioBuff
__unwindfunclet$??0ioMagneticBuff@@QAE@XZ$1:
  00008	8b 4d f0	 mov	 ecx, DWORD PTR _this$[ebp]
  0000b	81 c1 74 09 00
	00		 add	 ecx, 2420		; 00000974H
  00011	e9 00 00 00 00	 jmp	 ??1?$CEncrypt@M@@UAE@XZ	; CEncrypt<float>::~CEncrypt<float>
__unwindfunclet$??0ioMagneticBuff@@QAE@XZ$2:
  00016	8b 4d f0	 mov	 ecx, DWORD PTR _this$[ebp]
  00019	81 c1 a4 09 00
	00		 add	 ecx, 2468		; 000009a4H
  0001f	e9 00 00 00 00	 jmp	 ??1?$CEncrypt@_N@@UAE@XZ ; CEncrypt<bool>::~CEncrypt<bool>
__unwindfunclet$??0ioMagneticBuff@@QAE@XZ$3:
  00024	8b 4d f0	 mov	 ecx, DWORD PTR _this$[ebp]
  00027	81 c1 d4 09 00
	00		 add	 ecx, 2516		; 000009d4H
  0002d	e9 00 00 00 00	 jmp	 ??1?$CEncrypt@M@@UAE@XZ	; CEncrypt<float>::~CEncrypt<float>
__unwindfunclet$??0ioMagneticBuff@@QAE@XZ$4:
  00032	8b 4d f0	 mov	 ecx, DWORD PTR _this$[ebp]
  00035	81 c1 0c 0a 00
	00		 add	 ecx, 2572		; 00000a0cH
  0003b	e9 00 00 00 00	 jmp	 ??1?$CEncrypt@K@@UAE@XZ	; CEncrypt<unsigned long>::~CEncrypt<unsigned long>
__unwindfunclet$??0ioMagneticBuff@@QAE@XZ$5:
  00040	8b 4d f0	 mov	 ecx, DWORD PTR _this$[ebp]
  00043	81 c1 3c 0a 00
	00		 add	 ecx, 2620		; 00000a3cH
  00049	e9 00 00 00 00	 jmp	 ??1?$CEncrypt@M@@UAE@XZ	; CEncrypt<float>::~CEncrypt<float>
__unwindfunclet$??0ioMagneticBuff@@QAE@XZ$6:
  0004e	8b 4d f0	 mov	 ecx, DWORD PTR _this$[ebp]
  00051	81 c1 6c 0a 00
	00		 add	 ecx, 2668		; 00000a6cH
  00057	ff 25 00 00 00
	00		 jmp	 DWORD PTR __imp_??1ioHashString@@QAE@XZ
__unwindfunclet$??0ioMagneticBuff@@QAE@XZ$7:
  0005d	8b 4d f0	 mov	 ecx, DWORD PTR _this$[ebp]
  00060	81 c1 7c 0a 00
	00		 add	 ecx, 2684		; 00000a7cH
  00066	e9 00 00 00 00	 jmp	 ??1?$CEncrypt@M@@UAE@XZ	; CEncrypt<float>::~CEncrypt<float>
__unwindfunclet$??0ioMagneticBuff@@QAE@XZ$8:
  0006b	8b 4d f0	 mov	 ecx, DWORD PTR _this$[ebp]
  0006e	81 c1 ac 0a 00
	00		 add	 ecx, 2732		; 00000aacH
  00074	e9 00 00 00 00	 jmp	 ??1?$CEncrypt@K@@UAE@XZ	; CEncrypt<unsigned long>::~CEncrypt<unsigned long>
__unwindfunclet$??0ioMagneticBuff@@QAE@XZ$9:
  00079	8b 4d f0	 mov	 ecx, DWORD PTR _this$[ebp]
  0007c	81 c1 dc 0a 00
	00		 add	 ecx, 2780		; 00000adcH
  00082	ff 25 00 00 00
	00		 jmp	 DWORD PTR __imp_??1ioHashString@@QAE@XZ
__unwindfunclet$??0ioMagneticBuff@@QAE@XZ$10:
  00088	8b 4d f0	 mov	 ecx, DWORD PTR _this$[ebp]
  0008b	81 c1 ec 0a 00
	00		 add	 ecx, 2796		; 00000aecH
  00091	ff 25 00 00 00
	00		 jmp	 DWORD PTR __imp_??1ioHashString@@QAE@XZ
__unwindfunclet$??0ioMagneticBuff@@QAE@XZ$11:
  00097	8b 4d f0	 mov	 ecx, DWORD PTR _this$[ebp]
  0009a	81 c1 fc 0a 00
	00		 add	 ecx, 2812		; 00000afcH
  000a0	e9 00 00 00 00	 jmp	 ??1?$CEncrypt@M@@UAE@XZ	; CEncrypt<float>::~CEncrypt<float>
__unwindfunclet$??0ioMagneticBuff@@QAE@XZ$12:
  000a5	8b 4d f0	 mov	 ecx, DWORD PTR _this$[ebp]
  000a8	81 c1 2c 0b 00
	00		 add	 ecx, 2860		; 00000b2cH
  000ae	e9 00 00 00 00	 jmp	 ??1?$CEncrypt@K@@UAE@XZ	; CEncrypt<unsigned long>::~CEncrypt<unsigned long>
__unwindfunclet$??0ioMagneticBuff@@QAE@XZ$13:
  000b3	8b 4d f0	 mov	 ecx, DWORD PTR _this$[ebp]
  000b6	81 c1 5c 0b 00
	00		 add	 ecx, 2908		; 00000b5cH
  000bc	ff 25 00 00 00
	00		 jmp	 DWORD PTR __imp_??1ioHashString@@QAE@XZ
__unwindfunclet$??0ioMagneticBuff@@QAE@XZ$14:
  000c2	8b 4d f0	 mov	 ecx, DWORD PTR _this$[ebp]
  000c5	81 c1 6c 0b 00
	00		 add	 ecx, 2924		; 00000b6cH
  000cb	ff 25 00 00 00
	00		 jmp	 DWORD PTR __imp_??1ioHashString@@QAE@XZ
__ehhandler$??0ioMagneticBuff@@QAE@XZ:
  000d1	8b 54 24 08	 mov	 edx, DWORD PTR [esp+8]
  000d5	8d 42 0c	 lea	 eax, DWORD PTR [edx+12]
  000d8	8b 4a ec	 mov	 ecx, DWORD PTR [edx-20]
  000db	33 c8		 xor	 ecx, eax
  000dd	e8 00 00 00 00	 call	 @__security_check_cookie@4
  000e2	b8 00 00 00 00	 mov	 eax, OFFSET __ehfuncinfo$??0ioMagneticBuff@@QAE@XZ
  000e7	e9 00 00 00 00	 jmp	 ___CxxFrameHandler3
text$x	ENDS
??0ioMagneticBuff@@QAE@XZ ENDP				; ioMagneticBuff::ioMagneticBuff
; Function compile flags: /Ogsp
;	COMDAT ??_GioMagneticBuff@@UAEPAXI@Z
_TEXT	SEGMENT
___flags$ = 8						; size = 4
??_GioMagneticBuff@@UAEPAXI@Z PROC			; ioMagneticBuff::`scalar deleting destructor', COMDAT
; _this$ = ecx
  00000	55		 push	 ebp
  00001	8b ec		 mov	 ebp, esp
  00003	56		 push	 esi
  00004	8b f1		 mov	 esi, ecx
  00006	e8 00 00 00 00	 call	 ??1ioMagneticBuff@@UAE@XZ ; ioMagneticBuff::~ioMagneticBuff
  0000b	f6 45 08 01	 test	 BYTE PTR ___flags$[ebp], 1
  0000f	74 07		 je	 SHORT $LN1@scalar@4
  00011	56		 push	 esi
  00012	e8 00 00 00 00	 call	 ??3@YAXPAX@Z		; operator delete
  00017	59		 pop	 ecx
$LN1@scalar@4:
  00018	8b c6		 mov	 eax, esi
  0001a	5e		 pop	 esi
  0001b	5d		 pop	 ebp
  0001c	c2 04 00	 ret	 4
??_GioMagneticBuff@@UAEPAXI@Z ENDP			; ioMagneticBuff::`scalar deleting destructor'
_TEXT	ENDS
PUBLIC	__real@4f800000
PUBLIC	??_C@_00CNPNBAHC@?$AA@				; `string'
PUBLIC	_rkLoader$GSCopy$
PUBLIC	__$ArrayPad$
EXTRN	__imp_??4ioHashString@@QAEAAV0@PBD@Z:PROC
EXTRN	?LoadProperty@ioBuff@@UAEXAAVioINILoader@@@Z:PROC ; ioBuff::LoadProperty
;	COMDAT __real@4f800000
; File d:\lost saga for developer\youtube\tutorial\source\src\lsclient\stringprotect.h
CONST	SEGMENT
__real@4f800000 DD 04f800000r			; 4.29497e+009
CONST	ENDS
;	COMDAT ??_C@_00CNPNBAHC@?$AA@
CONST	SEGMENT
??_C@_00CNPNBAHC@?$AA@ DB 00H				; `string'
; Function compile flags: /Ogsp
; File d:\lost saga for developer\youtube\tutorial\source\src\lsclient\iomagneticbuff.cpp
CONST	ENDS
;	COMDAT ?LoadProperty@ioMagneticBuff@@UAEXAAVioINILoader@@@Z
_TEXT	SEGMENT
_value$533768 = -301					; size = 1
_rkLoader$GSCopy$ = -300				; size = 4
tv13880 = -296						; size = 4
tv13854 = -296						; size = 4
_i$534691 = -296					; size = 4
_value$534931 = -296					; size = 4
_value$534801 = -296					; size = 4
_i$534176 = -296					; size = 4
_value$534416 = -296					; size = 4
_value$534286 = -296					; size = 4
_value$534028 = -296					; size = 4
_value$533898 = -296					; size = 4
_value$533638 = -296					; size = 4
_value$533508 = -296					; size = 4
_szBuf$ = -292						; size = 260
__k$534961 = -32					; size = 20
__k$534701 = -32					; size = 20
__k$534434 = -32					; size = 20
__k$534187 = -32					; size = 20
__k$533915 = -32					; size = 22
__k$533700 = -32					; size = 21
__k$533538 = -32					; size = 20
__k$534831 = -28					; size = 16
__k$534572 = -28					; size = 15
__k$534304 = -28					; size = 16
__k$534045 = -28					; size = 15
__k$533395 = -28					; size = 15
__k$535211 = -24					; size = 14
__k$535086 = -24					; size = 14
__k$533785 = -24					; size = 11
__$ArrayPad$ = -4					; size = 4
_rkLoader$ = 8						; size = 4
?LoadProperty@ioMagneticBuff@@UAEXAAVioINILoader@@@Z PROC ; ioMagneticBuff::LoadProperty, COMDAT
; _this$ = ecx

; 44   : {

  00000	55		 push	 ebp
  00001	8b ec		 mov	 ebp, esp
  00003	81 ec 30 01 00
	00		 sub	 esp, 304		; 00000130H
  00009	a1 00 00 00 00	 mov	 eax, DWORD PTR ___security_cookie
  0000e	33 c5		 xor	 eax, ebp
  00010	89 45 fc	 mov	 DWORD PTR __$ArrayPad$[ebp], eax
  00013	53		 push	 ebx
  00014	8b 5d 08	 mov	 ebx, DWORD PTR _rkLoader$[ebp]
  00017	56		 push	 esi
  00018	57		 push	 edi

; 45   : 	ioBuff::LoadProperty( rkLoader );

  00019	53		 push	 ebx
  0001a	8b f1		 mov	 esi, ecx

; 73   : 	rkLoader.LoadString_e( "buff_effect_s", "", szBuf, MAX_PATH );

  0001c	89 9d d4 fe ff
	ff		 mov	 DWORD PTR _rkLoader$GSCopy$[ebp], ebx
  00022	e8 00 00 00 00	 call	 ?LoadProperty@ioBuff@@UAEXAAVioINILoader@@@Z ; ioBuff::LoadProperty
  00027	6a 03		 push	 3
  00029	c7 45 e4 80 8d
	8c 84		 mov	 DWORD PTR __k$533395[ebp], -2071163520 ; 848c8d80H
  00030	c7 45 e8 88 98
	82 89		 mov	 DWORD PTR __k$533395[ebp+4], -1987929976 ; 89829888H
  00037	c7 45 ec b2 9e
	8a 84		 mov	 DWORD PTR __k$533395[ebp+8], -2071290190 ; 848a9eb2H
  0003e	66 c7 45 f0 8a
	89		 mov	 WORD PTR __k$533395[ebp+12], 35210 ; 0000898aH
  00044	8d 45 e4	 lea	 eax, DWORD PTR __k$533395[ebp]
  00047	c6 45 f2 00	 mov	 BYTE PTR __k$533395[ebp+14], 0
  0004b	59		 pop	 ecx
  0004c	bf ed ec eb ea	 mov	 edi, -353637139		; eaebecedH
$LL106@LoadProper:

; 46   : 
; 47   : 	m_fMagneticRange = rkLoader.LoadFloat_e( "magnetic_range", 0.0f );

  00051	31 38		 xor	 DWORD PTR [eax], edi
  00053	83 c0 04	 add	 eax, 4
  00056	49		 dec	 ecx
  00057	75 f8		 jne	 SHORT $LL106@LoadProper
  00059	6a 0c		 push	 12			; 0000000cH
  0005b	58		 pop	 eax
$LL103@LoadProper:
  0005c	8b c8		 mov	 ecx, eax
  0005e	81 e1 03 00 00
	80		 and	 ecx, -2147483645	; 80000003H
  00064	79 05		 jns	 SHORT $LN1675@LoadProper
  00066	49		 dec	 ecx
  00067	83 c9 fc	 or	 ecx, -4			; fffffffcH
  0006a	41		 inc	 ecx
$LN1675@LoadProper:
  0006b	b2 ed		 mov	 dl, -19			; ffffffedH
  0006d	2a d1		 sub	 dl, cl
  0006f	30 54 05 e4	 xor	 BYTE PTR __k$533395[ebp+eax], dl
  00073	40		 inc	 eax
  00074	83 f8 0e	 cmp	 eax, 14			; 0000000eH
  00077	7c e3		 jl	 SHORT $LL103@LoadProper
  00079	0f 57 c0	 xorps	 xmm0, xmm0
  0007c	51		 push	 ecx
  0007d	8d 45 e4	 lea	 eax, DWORD PTR __k$533395[ebp]
  00080	f3 0f 11 04 24	 movss	 DWORD PTR [esp], xmm0
  00085	50		 push	 eax
  00086	8b cb		 mov	 ecx, ebx
  00088	ff 15 00 00 00
	00		 call	 DWORD PTR __imp_?LoadFloat@ioINILoader@@QAEMPBDM@Z
  0008e	d9 9d d8 fe ff
	ff		 fstp	 DWORD PTR _value$533508[ebp]
  00094	8d 85 d8 fe ff
	ff		 lea	 eax, DWORD PTR _value$533508[ebp]
  0009a	50		 push	 eax
  0009b	8d 8e 3c 0a 00
	00		 lea	 ecx, DWORD PTR [esi+2620]
  000a1	e8 00 00 00 00	 call	 ?EncryptValueToPool@?$CEncrypt@M@@AAEXPBD@Z ; CEncrypt<float>::EncryptValueToPool
  000a6	6a 04		 push	 4

; 48   : 
; 49   : 	// Push
; 50   : 	m_fPushFriction = rkLoader.LoadFloat_e( "push_power_friction", 0.0f );

  000a8	c7 45 e0 9d 99
	98 82		 mov	 DWORD PTR __k$533538[ebp], -2103928419 ; 8298999dH
  000af	c7 45 e4 b2 9c
	84 9d		 mov	 DWORD PTR __k$533538[ebp+4], -1652253518 ; 9d849cb2H
  000b6	c7 45 e8 88 9e
	b4 8c		 mov	 DWORD PTR __k$533538[ebp+8], -1934319992 ; 8cb49e88H
  000bd	c7 45 ec 9f 85
	88 9e		 mov	 DWORD PTR __k$533538[ebp+12], -1635220065 ; 9e88859fH
  000c4	8d 45 e0	 lea	 eax, DWORD PTR __k$533538[ebp]
  000c7	c7 45 f0 84 83
	85 00		 mov	 DWORD PTR __k$533538[ebp+16], 8749956 ; 00858384H
  000ce	59		 pop	 ecx
$LL214@LoadProper:
  000cf	31 38		 xor	 DWORD PTR [eax], edi
  000d1	83 c0 04	 add	 eax, 4
  000d4	49		 dec	 ecx
  000d5	75 f8		 jne	 SHORT $LL214@LoadProper
  000d7	6a 10		 push	 16			; 00000010H
  000d9	58		 pop	 eax
$LL211@LoadProper:
  000da	8b c8		 mov	 ecx, eax
  000dc	81 e1 03 00 00
	80		 and	 ecx, -2147483645	; 80000003H
  000e2	79 05		 jns	 SHORT $LN1676@LoadProper
  000e4	49		 dec	 ecx
  000e5	83 c9 fc	 or	 ecx, -4			; fffffffcH
  000e8	41		 inc	 ecx
$LN1676@LoadProper:
  000e9	b2 ed		 mov	 dl, -19			; ffffffedH
  000eb	2a d1		 sub	 dl, cl
  000ed	30 54 05 e0	 xor	 BYTE PTR __k$533538[ebp+eax], dl
  000f1	40		 inc	 eax
  000f2	83 f8 13	 cmp	 eax, 19			; 00000013H
  000f5	7c e3		 jl	 SHORT $LL211@LoadProper
  000f7	0f 57 c0	 xorps	 xmm0, xmm0
  000fa	51		 push	 ecx
  000fb	8d 45 e0	 lea	 eax, DWORD PTR __k$533538[ebp]
  000fe	f3 0f 11 04 24	 movss	 DWORD PTR [esp], xmm0
  00103	50		 push	 eax
  00104	8b cb		 mov	 ecx, ebx
  00106	ff 15 00 00 00
	00		 call	 DWORD PTR __imp_?LoadFloat@ioINILoader@@QAEMPBDM@Z
  0010c	d9 9d d8 fe ff
	ff		 fstp	 DWORD PTR _value$533638[ebp]
  00112	8d 85 d8 fe ff
	ff		 lea	 eax, DWORD PTR _value$533638[ebp]
  00118	50		 push	 eax
  00119	8d 8e 74 09 00
	00		 lea	 ecx, DWORD PTR [esi+2420]
  0011f	e8 00 00 00 00	 call	 ?EncryptValueToPool@?$CEncrypt@M@@AAEXPBD@Z ; CEncrypt<float>::EncryptValueToPool
  00124	6a 05		 push	 5

; 51   : 	m_bFrictionLinear = rkLoader.LoadBool_e( "push_friction_linear", false );

  00126	c7 45 e0 9d 99
	98 82		 mov	 DWORD PTR __k$533700[ebp], -2103928419 ; 8298999dH
  0012d	c7 45 e4 b2 8a
	99 83		 mov	 DWORD PTR __k$533700[ebp+4], -2087089486 ; 83998ab2H
  00134	c7 45 e8 8e 98
	82 85		 mov	 DWORD PTR __k$533700[ebp+8], -2055038834 ; 8582988eH
  0013b	c7 45 ec 83 b3
	87 83		 mov	 DWORD PTR __k$533700[ebp+12], -2088258685 ; 8387b383H
  00142	c7 45 f0 83 89
	8a 98		 mov	 DWORD PTR __k$533700[ebp+16], -1735751293 ; 988a8983H
  00149	8d 45 e0	 lea	 eax, DWORD PTR __k$533700[ebp]
  0014c	c6 45 f4 00	 mov	 BYTE PTR __k$533700[ebp+20], 0
  00150	59		 pop	 ecx
$LL322@LoadProper:
  00151	31 38		 xor	 DWORD PTR [eax], edi
  00153	83 c0 04	 add	 eax, 4
  00156	49		 dec	 ecx
  00157	75 f8		 jne	 SHORT $LL322@LoadProper
  00159	51		 push	 ecx
  0015a	8d 45 e0	 lea	 eax, DWORD PTR __k$533700[ebp]
  0015d	50		 push	 eax
  0015e	8b cb		 mov	 ecx, ebx
  00160	ff 15 00 00 00
	00		 call	 DWORD PTR __imp_?LoadBool@ioINILoader@@QAE_NPBD_N@Z
  00166	88 85 d3 fe ff
	ff		 mov	 BYTE PTR _value$533768[ebp], al
  0016c	8d 85 d3 fe ff
	ff		 lea	 eax, DWORD PTR _value$533768[ebp]
  00172	50		 push	 eax
  00173	8d 8e a4 09 00
	00		 lea	 ecx, DWORD PTR [esi+2468]
  00179	e8 00 00 00 00	 call	 ?EncryptValueToPool@?$CEncrypt@_N@@AAEXPBD@Z ; CEncrypt<bool>::EncryptValueToPool
  0017e	6a 02		 push	 2

; 52   : 	m_fPushPower = rkLoader.LoadFloat_e( "push_power", 0.0f );

  00180	c7 45 e8 9d 99
	98 82		 mov	 DWORD PTR __k$533785[ebp], -2103928419 ; 8298999dH
  00187	c7 45 ec b2 9c
	84 9d		 mov	 DWORD PTR __k$533785[ebp+4], -1652253518 ; 9d849cb2H
  0018e	66 c7 45 f0 88
	9e		 mov	 WORD PTR __k$533785[ebp+8], 40584 ; 00009e88H
  00194	8d 45 e8	 lea	 eax, DWORD PTR __k$533785[ebp]
  00197	c6 45 f2 00	 mov	 BYTE PTR __k$533785[ebp+10], 0
  0019b	59		 pop	 ecx
$LL430@LoadProper:
  0019c	31 38		 xor	 DWORD PTR [eax], edi
  0019e	83 c0 04	 add	 eax, 4
  001a1	49		 dec	 ecx
  001a2	75 f8		 jne	 SHORT $LL430@LoadProper
  001a4	6a 08		 push	 8
  001a6	58		 pop	 eax
$LL427@LoadProper:
  001a7	8b c8		 mov	 ecx, eax
  001a9	81 e1 03 00 00
	80		 and	 ecx, -2147483645	; 80000003H
  001af	79 05		 jns	 SHORT $LN1677@LoadProper
  001b1	49		 dec	 ecx
  001b2	83 c9 fc	 or	 ecx, -4			; fffffffcH
  001b5	41		 inc	 ecx
$LN1677@LoadProper:
  001b6	b2 ed		 mov	 dl, -19			; ffffffedH
  001b8	2a d1		 sub	 dl, cl
  001ba	30 54 05 e8	 xor	 BYTE PTR __k$533785[ebp+eax], dl
  001be	40		 inc	 eax
  001bf	83 f8 0a	 cmp	 eax, 10			; 0000000aH
  001c2	7c e3		 jl	 SHORT $LL427@LoadProper
  001c4	0f 57 c0	 xorps	 xmm0, xmm0
  001c7	51		 push	 ecx
  001c8	8d 45 e8	 lea	 eax, DWORD PTR __k$533785[ebp]
  001cb	f3 0f 11 04 24	 movss	 DWORD PTR [esp], xmm0
  001d0	50		 push	 eax
  001d1	8b cb		 mov	 ecx, ebx
  001d3	ff 15 00 00 00
	00		 call	 DWORD PTR __imp_?LoadFloat@ioINILoader@@QAEMPBDM@Z
  001d9	d9 9d d8 fe ff
	ff		 fstp	 DWORD PTR _value$533898[ebp]
  001df	8d 85 d8 fe ff
	ff		 lea	 eax, DWORD PTR _value$533898[ebp]
  001e5	50		 push	 eax
  001e6	8d 8e d4 09 00
	00		 lea	 ecx, DWORD PTR [esi+2516]
  001ec	e8 00 00 00 00	 call	 ?EncryptValueToPool@?$CEncrypt@M@@AAEXPBD@Z ; CEncrypt<float>::EncryptValueToPool
  001f1	6a 05		 push	 5

; 53   : 
; 54   : 	m_dwMagneticRefreshTime = (DWORD)rkLoader.LoadInt_e( "magnetic_refresh_time", 0 );

  001f3	c7 45 e0 80 8d
	8c 84		 mov	 DWORD PTR __k$533915[ebp], -2071163520 ; 848c8d80H
  001fa	c7 45 e4 88 98
	82 89		 mov	 DWORD PTR __k$533915[ebp+4], -1987929976 ; 89829888H
  00201	c7 45 e8 b2 9e
	8e 8c		 mov	 DWORD PTR __k$533915[ebp+8], -1936810318 ; 8c8e9eb2H
  00208	c7 45 ec 9f 89
	98 82		 mov	 DWORD PTR __k$533915[ebp+12], -2103932513 ; 8298899fH
  0020f	c7 45 f0 b2 98
	82 87		 mov	 DWORD PTR __k$533915[ebp+16], -2021484366 ; 878298b2H
  00216	8d 45 e0	 lea	 eax, DWORD PTR __k$533915[ebp]
  00219	66 c7 45 f4 88
	00		 mov	 WORD PTR __k$533915[ebp+20], 136 ; 00000088H
  0021f	59		 pop	 ecx
$LL538@LoadProper:
  00220	31 38		 xor	 DWORD PTR [eax], edi
  00222	83 c0 04	 add	 eax, 4
  00225	49		 dec	 ecx
  00226	75 f8		 jne	 SHORT $LL538@LoadProper
  00228	80 75 f4 ed	 xor	 BYTE PTR __k$533915[ebp+20], -19 ; ffffffedH
  0022c	51		 push	 ecx
  0022d	8d 45 e0	 lea	 eax, DWORD PTR __k$533915[ebp]
  00230	50		 push	 eax
  00231	8b cb		 mov	 ecx, ebx
  00233	ff 15 00 00 00
	00		 call	 DWORD PTR __imp_?LoadInt@ioINILoader@@QAEHPBDH@Z
  00239	89 85 d8 fe ff
	ff		 mov	 DWORD PTR _value$534028[ebp], eax
  0023f	8d 85 d8 fe ff
	ff		 lea	 eax, DWORD PTR _value$534028[ebp]
  00245	50		 push	 eax
  00246	8d 8e 0c 0a 00
	00		 lea	 ecx, DWORD PTR [esi+2572]
  0024c	e8 00 00 00 00	 call	 ?EncryptValueToPool@?$CEncrypt@K@@AAEXPBD@Z ; CEncrypt<unsigned long>::EncryptValueToPool
  00251	6a 03		 push	 3

; 55   : 
; 56   : 	char szBuf[MAX_PATH];
; 57   : 	rkLoader.LoadString_e( "push_animation", "", szBuf, MAX_PATH );

  00253	c7 45 e4 9d 99
	98 82		 mov	 DWORD PTR __k$534045[ebp], -2103928419 ; 8298999dH
  0025a	c7 45 e8 b2 8d
	85 83		 mov	 DWORD PTR __k$534045[ebp+4], -2088399438 ; 83858db2H
  00261	c7 45 ec 80 8d
	9f 83		 mov	 DWORD PTR __k$534045[ebp+8], -2086695552 ; 839f8d80H
  00268	66 c7 45 f0 82
	82		 mov	 WORD PTR __k$534045[ebp+12], 33410 ; 00008282H
  0026e	8d 45 e4	 lea	 eax, DWORD PTR __k$534045[ebp]
  00271	c6 45 f2 00	 mov	 BYTE PTR __k$534045[ebp+14], 0
  00275	59		 pop	 ecx
$LL646@LoadProper:
  00276	31 38		 xor	 DWORD PTR [eax], edi
  00278	83 c0 04	 add	 eax, 4
  0027b	49		 dec	 ecx
  0027c	75 f8		 jne	 SHORT $LL646@LoadProper
  0027e	6a 0c		 push	 12			; 0000000cH
  00280	58		 pop	 eax
$LL643@LoadProper:
  00281	8b c8		 mov	 ecx, eax
  00283	81 e1 03 00 00
	80		 and	 ecx, -2147483645	; 80000003H
  00289	79 05		 jns	 SHORT $LN1678@LoadProper
  0028b	49		 dec	 ecx
  0028c	83 c9 fc	 or	 ecx, -4			; fffffffcH
  0028f	41		 inc	 ecx
$LN1678@LoadProper:
  00290	b2 ed		 mov	 dl, -19			; ffffffedH
  00292	2a d1		 sub	 dl, cl
  00294	30 54 05 e4	 xor	 BYTE PTR __k$534045[ebp+eax], dl
  00298	40		 inc	 eax
  00299	83 f8 0e	 cmp	 eax, 14			; 0000000eH
  0029c	7c e3		 jl	 SHORT $LL643@LoadProper
  0029e	8b 3d 00 00 00
	00		 mov	 edi, DWORD PTR __imp_?LoadStringA@ioINILoader@@QAEXPBD0PADH@Z
  002a4	68 04 01 00 00	 push	 260			; 00000104H
  002a9	8d 85 dc fe ff
	ff		 lea	 eax, DWORD PTR _szBuf$[ebp]
  002af	50		 push	 eax
  002b0	68 00 00 00 00	 push	 OFFSET ??_C@_00CNPNBAHC@?$AA@
  002b5	8d 45 e4	 lea	 eax, DWORD PTR __k$534045[ebp]
  002b8	50		 push	 eax
  002b9	8b cb		 mov	 ecx, ebx
  002bb	ff d7		 call	 edi

; 58   : 	m_PushAnimation = szBuf;

  002bd	8b 1d 00 00 00
	00		 mov	 ebx, DWORD PTR __imp_??4ioHashString@@QAEAAV0@PBD@Z
  002c3	8d 85 dc fe ff
	ff		 lea	 eax, DWORD PTR _szBuf$[ebp]
  002c9	50		 push	 eax
  002ca	8d 8e 6c 0a 00
	00		 lea	 ecx, DWORD PTR [esi+2668]
  002d0	ff d3		 call	 ebx

; 59   : 	m_fPushAniRate = rkLoader.LoadFloat_e( "push_animation_rate", FLOAT1 );

  002d2	b8 01 00 00 00	 mov	 eax, 1
  002d7	6a 04		 push	 4
  002d9	c7 45 e0 9d 99
	98 82		 mov	 DWORD PTR __k$534187[ebp], -2103928419 ; 8298999dH
  002e0	c7 45 e4 b2 8d
	85 83		 mov	 DWORD PTR __k$534187[ebp+4], -2088399438 ; 83858db2H
  002e7	c7 45 e8 80 8d
	9f 83		 mov	 DWORD PTR __k$534187[ebp+8], -2086695552 ; 839f8d80H
  002ee	c7 45 ec 82 82
	b4 98		 mov	 DWORD PTR __k$534187[ebp+12], -1733000574 ; 98b48282H
  002f5	8d 4d e0	 lea	 ecx, DWORD PTR __k$534187[ebp]
  002f8	c7 45 f0 8c 98
	8e 00		 mov	 DWORD PTR __k$534187[ebp+16], 9345164 ; 008e988cH
  002ff	5a		 pop	 edx
$LL754@LoadProper:
  00300	81 31 ed ec eb
	ea		 xor	 DWORD PTR [ecx], -353637139 ; eaebecedH
  00306	83 c1 04	 add	 ecx, 4
  00309	4a		 dec	 edx
  0030a	75 f4		 jne	 SHORT $LL754@LoadProper
  0030c	c7 85 d8 fe ff
	ff 10 00 00 00	 mov	 DWORD PTR _i$534176[ebp], 16 ; 00000010H
$LL751@LoadProper:
  00316	8b 8d d8 fe ff
	ff		 mov	 ecx, DWORD PTR _i$534176[ebp]
  0031c	81 e1 03 00 00
	80		 and	 ecx, -2147483645	; 80000003H
  00322	79 05		 jns	 SHORT $LN1679@LoadProper
  00324	49		 dec	 ecx
  00325	83 c9 fc	 or	 ecx, -4			; fffffffcH
  00328	41		 inc	 ecx
$LN1679@LoadProper:
  00329	b2 ed		 mov	 dl, -19			; ffffffedH
  0032b	2a d1		 sub	 dl, cl
  0032d	8b 8d d8 fe ff
	ff		 mov	 ecx, DWORD PTR _i$534176[ebp]
  00333	30 54 0d e0	 xor	 BYTE PTR __k$534187[ebp+ecx], dl
  00337	ff 85 d8 fe ff
	ff		 inc	 DWORD PTR _i$534176[ebp]
  0033d	83 bd d8 fe ff
	ff 13		 cmp	 DWORD PTR _i$534176[ebp], 19 ; 00000013H
  00344	7c d0		 jl	 SHORT $LL751@LoadProper
  00346	89 85 d8 fe ff
	ff		 mov	 DWORD PTR tv13880[ebp], eax
  0034c	db 85 d8 fe ff
	ff		 fild	 DWORD PTR tv13880[ebp]
  00352	85 c0		 test	 eax, eax
  00354	79 06		 jns	 SHORT $LN1680@LoadProper
  00356	d8 05 00 00 00
	00		 fadd	 DWORD PTR __real@4f800000
$LN1680@LoadProper:
  0035c	51		 push	 ecx
  0035d	8b 8d d4 fe ff
	ff		 mov	 ecx, DWORD PTR _rkLoader$GSCopy$[ebp]
  00363	d9 1c 24	 fstp	 DWORD PTR [esp]
  00366	8d 45 e0	 lea	 eax, DWORD PTR __k$534187[ebp]
  00369	50		 push	 eax
  0036a	ff 15 00 00 00
	00		 call	 DWORD PTR __imp_?LoadFloat@ioINILoader@@QAEMPBDM@Z
  00370	d9 9d d8 fe ff
	ff		 fstp	 DWORD PTR _value$534286[ebp]
  00376	8d 85 d8 fe ff
	ff		 lea	 eax, DWORD PTR _value$534286[ebp]
  0037c	50		 push	 eax
  0037d	8d 8e 7c 0a 00
	00		 lea	 ecx, DWORD PTR [esi+2684]
  00383	e8 00 00 00 00	 call	 ?EncryptValueToPool@?$CEncrypt@M@@AAEXPBD@Z ; CEncrypt<float>::EncryptValueToPool
  00388	6a 03		 push	 3

; 60   : 	m_dwPushDelayTime = (DWORD)rkLoader.LoadInt_e( "push_delay_time", 0 );

  0038a	c7 45 e4 9d 99
	98 82		 mov	 DWORD PTR __k$534304[ebp], -2103928419 ; 8298999dH
  00391	c7 45 e8 b2 88
	8e 86		 mov	 DWORD PTR __k$534304[ebp+4], -2037479246 ; 868e88b2H
  00398	c7 45 ec 8c 95
	b4 9e		 mov	 DWORD PTR __k$534304[ebp+8], -1632332404 ; 9eb4958cH
  0039f	8d 45 e4	 lea	 eax, DWORD PTR __k$534304[ebp]
  003a2	c7 45 f0 84 81
	8e 00		 mov	 DWORD PTR __k$534304[ebp+12], 9339268 ; 008e8184H
  003a9	59		 pop	 ecx
$LL862@LoadProper:
  003aa	81 30 ed ec eb
	ea		 xor	 DWORD PTR [eax], -353637139 ; eaebecedH
  003b0	83 c0 04	 add	 eax, 4
  003b3	49		 dec	 ecx
  003b4	75 f4		 jne	 SHORT $LL862@LoadProper
  003b6	6a 0c		 push	 12			; 0000000cH
  003b8	58		 pop	 eax
$LL859@LoadProper:
  003b9	8b c8		 mov	 ecx, eax
  003bb	81 e1 03 00 00
	80		 and	 ecx, -2147483645	; 80000003H
  003c1	79 05		 jns	 SHORT $LN1681@LoadProper
  003c3	49		 dec	 ecx
  003c4	83 c9 fc	 or	 ecx, -4			; fffffffcH
  003c7	41		 inc	 ecx
$LN1681@LoadProper:
  003c8	b2 ed		 mov	 dl, -19			; ffffffedH
  003ca	2a d1		 sub	 dl, cl
  003cc	30 54 05 e4	 xor	 BYTE PTR __k$534304[ebp+eax], dl
  003d0	40		 inc	 eax
  003d1	83 f8 0f	 cmp	 eax, 15			; 0000000fH
  003d4	7c e3		 jl	 SHORT $LL859@LoadProper
  003d6	8b 8d d4 fe ff
	ff		 mov	 ecx, DWORD PTR _rkLoader$GSCopy$[ebp]
  003dc	6a 00		 push	 0
  003de	8d 45 e4	 lea	 eax, DWORD PTR __k$534304[ebp]
  003e1	50		 push	 eax
  003e2	ff 15 00 00 00
	00		 call	 DWORD PTR __imp_?LoadInt@ioINILoader@@QAEHPBDH@Z
  003e8	89 85 d8 fe ff
	ff		 mov	 DWORD PTR _value$534416[ebp], eax
  003ee	8d 85 d8 fe ff
	ff		 lea	 eax, DWORD PTR _value$534416[ebp]
  003f4	50		 push	 eax
  003f5	8d 8e ac 0a 00
	00		 lea	 ecx, DWORD PTR [esi+2732]
  003fb	e8 00 00 00 00	 call	 ?EncryptValueToPool@?$CEncrypt@K@@AAEXPBD@Z ; CEncrypt<unsigned long>::EncryptValueToPool
  00400	6a 04		 push	 4

; 61   : 	rkLoader.LoadString_e( "target_buff_on_push", "", szBuf, MAX_PATH );

  00402	c7 45 e0 99 8d
	99 8d		 mov	 DWORD PTR __k$534434[ebp], -1919316583 ; 8d998d99H
  00409	c7 45 e4 88 98
	b4 88		 mov	 DWORD PTR __k$534434[ebp+4], -2001430392 ; 88b49888H
  00410	c7 45 e8 98 8a
	8d b5		 mov	 DWORD PTR __k$534434[ebp+8], -1249015144 ; b58d8a98H
  00417	c7 45 ec 82 82
	b4 9a		 mov	 DWORD PTR __k$534434[ebp+12], -1699446142 ; 9ab48282H
  0041e	8d 45 e0	 lea	 eax, DWORD PTR __k$534434[ebp]
  00421	c7 45 f0 98 9f
	83 00		 mov	 DWORD PTR __k$534434[ebp+16], 8626072 ; 00839f98H
  00428	59		 pop	 ecx
$LL970@LoadProper:
  00429	81 30 ed ec eb
	ea		 xor	 DWORD PTR [eax], -353637139 ; eaebecedH
  0042f	83 c0 04	 add	 eax, 4
  00432	49		 dec	 ecx
  00433	75 f4		 jne	 SHORT $LL970@LoadProper
  00435	6a 10		 push	 16			; 00000010H
  00437	58		 pop	 eax
$LL967@LoadProper:
  00438	8b c8		 mov	 ecx, eax
  0043a	81 e1 03 00 00
	80		 and	 ecx, -2147483645	; 80000003H
  00440	79 05		 jns	 SHORT $LN1682@LoadProper
  00442	49		 dec	 ecx
  00443	83 c9 fc	 or	 ecx, -4			; fffffffcH
  00446	41		 inc	 ecx
$LN1682@LoadProper:
  00447	b2 ed		 mov	 dl, -19			; ffffffedH
  00449	2a d1		 sub	 dl, cl
  0044b	30 54 05 e0	 xor	 BYTE PTR __k$534434[ebp+eax], dl
  0044f	40		 inc	 eax
  00450	83 f8 13	 cmp	 eax, 19			; 00000013H
  00453	7c e3		 jl	 SHORT $LL967@LoadProper
  00455	8b 8d d4 fe ff
	ff		 mov	 ecx, DWORD PTR _rkLoader$GSCopy$[ebp]
  0045b	68 04 01 00 00	 push	 260			; 00000104H
  00460	8d 85 dc fe ff
	ff		 lea	 eax, DWORD PTR _szBuf$[ebp]
  00466	50		 push	 eax
  00467	68 00 00 00 00	 push	 OFFSET ??_C@_00CNPNBAHC@?$AA@
  0046c	8d 45 e0	 lea	 eax, DWORD PTR __k$534434[ebp]
  0046f	50		 push	 eax
  00470	ff d7		 call	 edi

; 62   : 	m_TargetBuffOnPush = szBuf;

  00472	8d 85 dc fe ff
	ff		 lea	 eax, DWORD PTR _szBuf$[ebp]
  00478	50		 push	 eax
  00479	8d 8e dc 0a 00
	00		 lea	 ecx, DWORD PTR [esi+2780]
  0047f	ff d3		 call	 ebx
  00481	6a 03		 push	 3

; 63   : 
; 64   : 	rkLoader.LoadString_e( "pull_animation", "", szBuf, MAX_PATH );

  00483	c7 45 e4 9d 99
	87 86		 mov	 DWORD PTR __k$534572[ebp], -2037933667 ; 8687999dH
  0048a	c7 45 e8 b2 8d
	85 83		 mov	 DWORD PTR __k$534572[ebp+4], -2088399438 ; 83858db2H
  00491	c7 45 ec 80 8d
	9f 83		 mov	 DWORD PTR __k$534572[ebp+8], -2086695552 ; 839f8d80H
  00498	66 c7 45 f0 82
	82		 mov	 WORD PTR __k$534572[ebp+12], 33410 ; 00008282H
  0049e	8d 45 e4	 lea	 eax, DWORD PTR __k$534572[ebp]
  004a1	c6 45 f2 00	 mov	 BYTE PTR __k$534572[ebp+14], 0
  004a5	59		 pop	 ecx
$LL1076@LoadProper:
  004a6	81 30 ed ec eb
	ea		 xor	 DWORD PTR [eax], -353637139 ; eaebecedH
  004ac	83 c0 04	 add	 eax, 4
  004af	49		 dec	 ecx
  004b0	75 f4		 jne	 SHORT $LL1076@LoadProper
  004b2	6a 0c		 push	 12			; 0000000cH
  004b4	58		 pop	 eax
$LL1073@LoadProper:
  004b5	8b c8		 mov	 ecx, eax
  004b7	81 e1 03 00 00
	80		 and	 ecx, -2147483645	; 80000003H
  004bd	79 05		 jns	 SHORT $LN1683@LoadProper
  004bf	49		 dec	 ecx
  004c0	83 c9 fc	 or	 ecx, -4			; fffffffcH
  004c3	41		 inc	 ecx
$LN1683@LoadProper:
  004c4	b2 ed		 mov	 dl, -19			; ffffffedH
  004c6	2a d1		 sub	 dl, cl
  004c8	30 54 05 e4	 xor	 BYTE PTR __k$534572[ebp+eax], dl
  004cc	40		 inc	 eax
  004cd	83 f8 0e	 cmp	 eax, 14			; 0000000eH
  004d0	7c e3		 jl	 SHORT $LL1073@LoadProper
  004d2	8b 8d d4 fe ff
	ff		 mov	 ecx, DWORD PTR _rkLoader$GSCopy$[ebp]
  004d8	68 04 01 00 00	 push	 260			; 00000104H
  004dd	8d 85 dc fe ff
	ff		 lea	 eax, DWORD PTR _szBuf$[ebp]
  004e3	50		 push	 eax
  004e4	68 00 00 00 00	 push	 OFFSET ??_C@_00CNPNBAHC@?$AA@
  004e9	8d 45 e4	 lea	 eax, DWORD PTR __k$534572[ebp]
  004ec	50		 push	 eax
  004ed	ff d7		 call	 edi

; 65   : 	m_PullAnimation = szBuf;

  004ef	8d 85 dc fe ff
	ff		 lea	 eax, DWORD PTR _szBuf$[ebp]
  004f5	50		 push	 eax
  004f6	8d 8e ec 0a 00
	00		 lea	 ecx, DWORD PTR [esi+2796]
  004fc	ff d3		 call	 ebx

; 66   : 	m_fPullAniRate = rkLoader.LoadFloat_e( "pull_animation_rate", FLOAT1 );

  004fe	b8 01 00 00 00	 mov	 eax, 1
  00503	6a 04		 push	 4
  00505	c7 45 e0 9d 99
	87 86		 mov	 DWORD PTR __k$534701[ebp], -2037933667 ; 8687999dH
  0050c	c7 45 e4 b2 8d
	85 83		 mov	 DWORD PTR __k$534701[ebp+4], -2088399438 ; 83858db2H
  00513	c7 45 e8 80 8d
	9f 83		 mov	 DWORD PTR __k$534701[ebp+8], -2086695552 ; 839f8d80H
  0051a	c7 45 ec 82 82
	b4 98		 mov	 DWORD PTR __k$534701[ebp+12], -1733000574 ; 98b48282H
  00521	8d 4d e0	 lea	 ecx, DWORD PTR __k$534701[ebp]
  00524	c7 45 f0 8c 98
	8e 00		 mov	 DWORD PTR __k$534701[ebp+16], 9345164 ; 008e988cH
  0052b	5a		 pop	 edx
$LL1184@LoadProper:
  0052c	81 31 ed ec eb
	ea		 xor	 DWORD PTR [ecx], -353637139 ; eaebecedH
  00532	83 c1 04	 add	 ecx, 4
  00535	4a		 dec	 edx
  00536	75 f4		 jne	 SHORT $LL1184@LoadProper
  00538	c7 85 d8 fe ff
	ff 10 00 00 00	 mov	 DWORD PTR _i$534691[ebp], 16 ; 00000010H
$LL1181@LoadProper:
  00542	8b 8d d8 fe ff
	ff		 mov	 ecx, DWORD PTR _i$534691[ebp]
  00548	81 e1 03 00 00
	80		 and	 ecx, -2147483645	; 80000003H
  0054e	79 05		 jns	 SHORT $LN1684@LoadProper
  00550	49		 dec	 ecx
  00551	83 c9 fc	 or	 ecx, -4			; fffffffcH
  00554	41		 inc	 ecx
$LN1684@LoadProper:
  00555	b2 ed		 mov	 dl, -19			; ffffffedH
  00557	2a d1		 sub	 dl, cl
  00559	8b 8d d8 fe ff
	ff		 mov	 ecx, DWORD PTR _i$534691[ebp]
  0055f	30 54 0d e0	 xor	 BYTE PTR __k$534701[ebp+ecx], dl
  00563	ff 85 d8 fe ff
	ff		 inc	 DWORD PTR _i$534691[ebp]
  00569	83 bd d8 fe ff
	ff 13		 cmp	 DWORD PTR _i$534691[ebp], 19 ; 00000013H
  00570	7c d0		 jl	 SHORT $LL1181@LoadProper
  00572	89 85 d8 fe ff
	ff		 mov	 DWORD PTR tv13854[ebp], eax
  00578	db 85 d8 fe ff
	ff		 fild	 DWORD PTR tv13854[ebp]
  0057e	85 c0		 test	 eax, eax
  00580	79 06		 jns	 SHORT $LN1685@LoadProper
  00582	d8 05 00 00 00
	00		 fadd	 DWORD PTR __real@4f800000
$LN1685@LoadProper:
  00588	51		 push	 ecx
  00589	8b 8d d4 fe ff
	ff		 mov	 ecx, DWORD PTR _rkLoader$GSCopy$[ebp]
  0058f	d9 1c 24	 fstp	 DWORD PTR [esp]
  00592	8d 45 e0	 lea	 eax, DWORD PTR __k$534701[ebp]
  00595	50		 push	 eax
  00596	ff 15 00 00 00
	00		 call	 DWORD PTR __imp_?LoadFloat@ioINILoader@@QAEMPBDM@Z
  0059c	d9 9d d8 fe ff
	ff		 fstp	 DWORD PTR _value$534801[ebp]
  005a2	8d 85 d8 fe ff
	ff		 lea	 eax, DWORD PTR _value$534801[ebp]
  005a8	50		 push	 eax
  005a9	8d 8e fc 0a 00
	00		 lea	 ecx, DWORD PTR [esi+2812]
  005af	e8 00 00 00 00	 call	 ?EncryptValueToPool@?$CEncrypt@M@@AAEXPBD@Z ; CEncrypt<float>::EncryptValueToPool
  005b4	6a 03		 push	 3

; 67   : 	m_dwPullDelayTime = (DWORD)rkLoader.LoadInt_e( "pull_delay_time", 0 );

  005b6	c7 45 e4 9d 99
	87 86		 mov	 DWORD PTR __k$534831[ebp], -2037933667 ; 8687999dH
  005bd	c7 45 e8 b2 88
	8e 86		 mov	 DWORD PTR __k$534831[ebp+4], -2037479246 ; 868e88b2H
  005c4	c7 45 ec 8c 95
	b4 9e		 mov	 DWORD PTR __k$534831[ebp+8], -1632332404 ; 9eb4958cH
  005cb	8d 45 e4	 lea	 eax, DWORD PTR __k$534831[ebp]
  005ce	c7 45 f0 84 81
	8e 00		 mov	 DWORD PTR __k$534831[ebp+12], 9339268 ; 008e8184H
  005d5	59		 pop	 ecx
$LL1292@LoadProper:
  005d6	81 30 ed ec eb
	ea		 xor	 DWORD PTR [eax], -353637139 ; eaebecedH
  005dc	83 c0 04	 add	 eax, 4
  005df	49		 dec	 ecx
  005e0	75 f4		 jne	 SHORT $LL1292@LoadProper
  005e2	6a 0c		 push	 12			; 0000000cH
  005e4	58		 pop	 eax
$LL1289@LoadProper:
  005e5	8b c8		 mov	 ecx, eax
  005e7	81 e1 03 00 00
	80		 and	 ecx, -2147483645	; 80000003H
  005ed	79 05		 jns	 SHORT $LN1686@LoadProper
  005ef	49		 dec	 ecx
  005f0	83 c9 fc	 or	 ecx, -4			; fffffffcH
  005f3	41		 inc	 ecx
$LN1686@LoadProper:
  005f4	b2 ed		 mov	 dl, -19			; ffffffedH
  005f6	2a d1		 sub	 dl, cl
  005f8	30 54 05 e4	 xor	 BYTE PTR __k$534831[ebp+eax], dl
  005fc	40		 inc	 eax
  005fd	83 f8 0f	 cmp	 eax, 15			; 0000000fH
  00600	7c e3		 jl	 SHORT $LL1289@LoadProper
  00602	8b 8d d4 fe ff
	ff		 mov	 ecx, DWORD PTR _rkLoader$GSCopy$[ebp]
  00608	6a 00		 push	 0
  0060a	8d 45 e4	 lea	 eax, DWORD PTR __k$534831[ebp]
  0060d	50		 push	 eax
  0060e	ff 15 00 00 00
	00		 call	 DWORD PTR __imp_?LoadInt@ioINILoader@@QAEHPBDH@Z
  00614	89 85 d8 fe ff
	ff		 mov	 DWORD PTR _value$534931[ebp], eax
  0061a	8d 85 d8 fe ff
	ff		 lea	 eax, DWORD PTR _value$534931[ebp]
  00620	50		 push	 eax
  00621	8d 8e 2c 0b 00
	00		 lea	 ecx, DWORD PTR [esi+2860]
  00627	e8 00 00 00 00	 call	 ?EncryptValueToPool@?$CEncrypt@K@@AAEXPBD@Z ; CEncrypt<unsigned long>::EncryptValueToPool
  0062c	6a 04		 push	 4

; 68   : 	rkLoader.LoadString_e( "target_buff_on_pull", "", szBuf, MAX_PATH );

  0062e	c7 45 e0 99 8d
	99 8d		 mov	 DWORD PTR __k$534961[ebp], -1919316583 ; 8d998d99H
  00635	c7 45 e4 88 98
	b4 88		 mov	 DWORD PTR __k$534961[ebp+4], -2001430392 ; 88b49888H
  0063c	c7 45 e8 98 8a
	8d b5		 mov	 DWORD PTR __k$534961[ebp+8], -1249015144 ; b58d8a98H
  00643	c7 45 ec 82 82
	b4 9a		 mov	 DWORD PTR __k$534961[ebp+12], -1699446142 ; 9ab48282H
  0064a	8d 45 e0	 lea	 eax, DWORD PTR __k$534961[ebp]
  0064d	c7 45 f0 98 80
	87 00		 mov	 DWORD PTR __k$534961[ebp+16], 8880280 ; 00878098H
  00654	59		 pop	 ecx
$LL1400@LoadProper:
  00655	81 30 ed ec eb
	ea		 xor	 DWORD PTR [eax], -353637139 ; eaebecedH
  0065b	83 c0 04	 add	 eax, 4
  0065e	49		 dec	 ecx
  0065f	75 f4		 jne	 SHORT $LL1400@LoadProper
  00661	6a 10		 push	 16			; 00000010H
  00663	58		 pop	 eax
$LL1397@LoadProper:
  00664	8b c8		 mov	 ecx, eax
  00666	81 e1 03 00 00
	80		 and	 ecx, -2147483645	; 80000003H
  0066c	79 05		 jns	 SHORT $LN1687@LoadProper
  0066e	49		 dec	 ecx
  0066f	83 c9 fc	 or	 ecx, -4			; fffffffcH
  00672	41		 inc	 ecx
$LN1687@LoadProper:
  00673	b2 ed		 mov	 dl, -19			; ffffffedH
  00675	2a d1		 sub	 dl, cl
  00677	30 54 05 e0	 xor	 BYTE PTR __k$534961[ebp+eax], dl
  0067b	40		 inc	 eax
  0067c	83 f8 13	 cmp	 eax, 19			; 00000013H
  0067f	7c e3		 jl	 SHORT $LL1397@LoadProper
  00681	8b 8d d4 fe ff
	ff		 mov	 ecx, DWORD PTR _rkLoader$GSCopy$[ebp]
  00687	68 04 01 00 00	 push	 260			; 00000104H
  0068c	8d 85 dc fe ff
	ff		 lea	 eax, DWORD PTR _szBuf$[ebp]
  00692	50		 push	 eax
  00693	68 00 00 00 00	 push	 OFFSET ??_C@_00CNPNBAHC@?$AA@
  00698	8d 45 e0	 lea	 eax, DWORD PTR __k$534961[ebp]
  0069b	50		 push	 eax
  0069c	ff d7		 call	 edi

; 69   : 	m_TargetBuffOnPull = szBuf;

  0069e	8d 85 dc fe ff
	ff		 lea	 eax, DWORD PTR _szBuf$[ebp]
  006a4	50		 push	 eax
  006a5	8d 8e 5c 0b 00
	00		 lea	 ecx, DWORD PTR [esi+2908]
  006ab	ff d3		 call	 ebx
  006ad	6a 03		 push	 3

; 70   : 
; 71   : 	rkLoader.LoadString_e( "buff_effect_n", "", szBuf, MAX_PATH );

  006af	c7 45 e8 8f 99
	8d 8c		 mov	 DWORD PTR __k$535086[ebp], -1936877169 ; 8c8d998fH
  006b6	c7 45 ec b2 89
	8d 8c		 mov	 DWORD PTR __k$535086[ebp+4], -1936881230 ; 8c8d89b2H
  006bd	c7 45 f0 88 8f
	9f b5		 mov	 DWORD PTR __k$535086[ebp+8], -1247834232 ; b59f8f88H
  006c4	8d 45 e8	 lea	 eax, DWORD PTR __k$535086[ebp]
  006c7	66 c7 45 f4 83
	00		 mov	 WORD PTR __k$535086[ebp+12], 131 ; 00000083H
  006cd	59		 pop	 ecx
$LL1506@LoadProper:
  006ce	81 30 ed ec eb
	ea		 xor	 DWORD PTR [eax], -353637139 ; eaebecedH
  006d4	83 c0 04	 add	 eax, 4
  006d7	49		 dec	 ecx
  006d8	75 f4		 jne	 SHORT $LL1506@LoadProper
  006da	8b 8d d4 fe ff
	ff		 mov	 ecx, DWORD PTR _rkLoader$GSCopy$[ebp]
  006e0	80 75 f4 ed	 xor	 BYTE PTR __k$535086[ebp+12], -19 ; ffffffedH
  006e4	68 04 01 00 00	 push	 260			; 00000104H
  006e9	8d 85 dc fe ff
	ff		 lea	 eax, DWORD PTR _szBuf$[ebp]
  006ef	50		 push	 eax
  006f0	68 00 00 00 00	 push	 OFFSET ??_C@_00CNPNBAHC@?$AA@
  006f5	8d 45 e8	 lea	 eax, DWORD PTR __k$535086[ebp]
  006f8	50		 push	 eax
  006f9	ff d7		 call	 edi

; 72   : 	m_EffectN = szBuf;

  006fb	8d 85 dc fe ff
	ff		 lea	 eax, DWORD PTR _szBuf$[ebp]
  00701	50		 push	 eax
  00702	8d 8e 6c 0b 00
	00		 lea	 ecx, DWORD PTR [esi+2924]
  00708	ff d3		 call	 ebx
  0070a	6a 03		 push	 3

; 73   : 	rkLoader.LoadString_e( "buff_effect_s", "", szBuf, MAX_PATH );

  0070c	c7 45 e8 8f 99
	8d 8c		 mov	 DWORD PTR __k$535211[ebp], -1936877169 ; 8c8d998fH
  00713	c7 45 ec b2 89
	8d 8c		 mov	 DWORD PTR __k$535211[ebp+4], -1936881230 ; 8c8d89b2H
  0071a	c7 45 f0 88 8f
	9f b5		 mov	 DWORD PTR __k$535211[ebp+8], -1247834232 ; b59f8f88H
  00721	8d 45 e8	 lea	 eax, DWORD PTR __k$535211[ebp]
  00724	66 c7 45 f4 9e
	00		 mov	 WORD PTR __k$535211[ebp+12], 158 ; 0000009eH
  0072a	59		 pop	 ecx
$LL1612@LoadProper:
  0072b	81 30 ed ec eb
	ea		 xor	 DWORD PTR [eax], -353637139 ; eaebecedH
  00731	83 c0 04	 add	 eax, 4
  00734	49		 dec	 ecx
  00735	75 f4		 jne	 SHORT $LL1612@LoadProper
  00737	8b 8d d4 fe ff
	ff		 mov	 ecx, DWORD PTR _rkLoader$GSCopy$[ebp]
  0073d	80 75 f4 ed	 xor	 BYTE PTR __k$535211[ebp+12], -19 ; ffffffedH
  00741	68 04 01 00 00	 push	 260			; 00000104H
  00746	8d 85 dc fe ff
	ff		 lea	 eax, DWORD PTR _szBuf$[ebp]
  0074c	50		 push	 eax
  0074d	68 00 00 00 00	 push	 OFFSET ??_C@_00CNPNBAHC@?$AA@
  00752	8d 45 e8	 lea	 eax, DWORD PTR __k$535211[ebp]
  00755	50		 push	 eax
  00756	ff d7		 call	 edi

; 74   : 	m_EffectS = szBuf;

  00758	8d 85 dc fe ff
	ff		 lea	 eax, DWORD PTR _szBuf$[ebp]
  0075e	50		 push	 eax
  0075f	8d 8e 7c 0b 00
	00		 lea	 ecx, DWORD PTR [esi+2940]
  00765	ff d3		 call	 ebx

; 75   : }

  00767	8b 4d fc	 mov	 ecx, DWORD PTR __$ArrayPad$[ebp]
  0076a	5f		 pop	 edi
  0076b	5e		 pop	 esi
  0076c	33 cd		 xor	 ecx, ebp
  0076e	5b		 pop	 ebx
  0076f	e8 00 00 00 00	 call	 @__security_check_cookie@4
  00774	c9		 leave
  00775	c2 04 00	 ret	 4
?LoadProperty@ioMagneticBuff@@UAEXAAVioINILoader@@@Z ENDP ; ioMagneticBuff::LoadProperty
_TEXT	ENDS
PUBLIC	?SetMotion@ioMagneticBuff@@QAEXH@Z		; ioMagneticBuff::SetMotion
EXTRN	__imp_?SetActionAni@ioEntityGroup@@QAE_NHMMMMMM_N0@Z:PROC
EXTRN	?IsApplyDownState@ioBaseChar@@QAE_N_N@Z:PROC	; ioBaseChar::IsApplyDownState
EXTRN	__imp_?GetAnimationFullTime@ioEntityGroup@@QAEMH@Z:PROC
EXTRN	__imp_?GetAnimationIdx@ioEntityGroup@@QAEHABVioHashString@@@Z:PROC
EXTRN	__imp_?ClearAllActionAni@ioEntityGroup@@QAEXM_N@Z:PROC
EXTRN	__imp_?ClearAllLoopAni@ioEntityGroup@@QAEXM_N@Z:PROC
EXTRN	__ftol2:PROC
; Function compile flags: /Ogsp
;	COMDAT ?SetMotion@ioMagneticBuff@@QAEXH@Z
_TEXT	SEGMENT
tv224 = -8						; size = 4
tv200 = -8						; size = 4
tv198 = -8						; size = 4
tv196 = -8						; size = 4
_value$535426 = -8					; size = 4
_pOwner$ = -8						; size = 4
tv255 = -4						; size = 4
tv250 = -4						; size = 4
tv227 = -4						; size = 4
_value$535418 = -4					; size = 4
_value$535414 = -4					; size = 4
_value$535406 = -4					; size = 4
_iAniID$ = 8						; size = 4
_iState$ = 8						; size = 4
?SetMotion@ioMagneticBuff@@QAEXH@Z PROC			; ioMagneticBuff::SetMotion, COMDAT
; _this$ = ecx

; 431  : {

  00000	55		 push	 ebp
  00001	8b ec		 mov	 ebp, esp
  00003	51		 push	 ecx
  00004	51		 push	 ecx
  00005	53		 push	 ebx
  00006	56		 push	 esi
  00007	8b f1		 mov	 esi, ecx

; 432  : 	ioBaseChar *pOwner = GetOwner();

  00009	e8 00 00 00 00	 call	 ?GetOwner@ioBuff@@QAEPAVioBaseChar@@XZ ; ioBuff::GetOwner

; 433  : 	if( !pOwner )

  0000e	33 db		 xor	 ebx, ebx
  00010	89 45 f8	 mov	 DWORD PTR _pOwner$[ebp], eax
  00013	3b c3		 cmp	 eax, ebx
  00015	0f 84 90 01 00
	00		 je	 $LN1@SetMotion

; 434  : 		return;
; 435  : 
; 436  : 	ioEntityGroup *pGrp = pOwner->GetGroup();

  0001b	57		 push	 edi
  0001c	8b 78 04	 mov	 edi, DWORD PTR [eax+4]

; 437  : 	if( !pGrp )

  0001f	3b fb		 cmp	 edi, ebx
  00021	0f 84 83 01 00
	00		 je	 $LN35@SetMotion

; 438  : 		return;
; 439  : 
; 440  : 	pGrp->ClearAllLoopAni( FLOAT100, true );

  00027	b8 64 00 00 00	 mov	 eax, 100		; 00000064H
  0002c	89 45 fc	 mov	 DWORD PTR tv255[ebp], eax
  0002f	db 45 fc	 fild	 DWORD PTR tv255[ebp]
  00032	6a 01		 push	 1
  00034	85 c0		 test	 eax, eax
  00036	79 06		 jns	 SHORT $LN36@SetMotion
  00038	d8 05 00 00 00
	00		 fadd	 DWORD PTR __real@4f800000
$LN36@SetMotion:
  0003e	51		 push	 ecx
  0003f	8b cf		 mov	 ecx, edi
  00041	d9 1c 24	 fstp	 DWORD PTR [esp]
  00044	ff 15 00 00 00
	00		 call	 DWORD PTR __imp_?ClearAllLoopAni@ioEntityGroup@@QAEXM_N@Z

; 441  : 	pGrp->ClearAllActionAni( FLOAT100, true );

  0004a	b8 64 00 00 00	 mov	 eax, 100		; 00000064H
  0004f	89 45 fc	 mov	 DWORD PTR tv250[ebp], eax
  00052	db 45 fc	 fild	 DWORD PTR tv250[ebp]
  00055	6a 01		 push	 1
  00057	85 c0		 test	 eax, eax
  00059	79 06		 jns	 SHORT $LN37@SetMotion
  0005b	d8 05 00 00 00
	00		 fadd	 DWORD PTR __real@4f800000
$LN37@SetMotion:
  00061	51		 push	 ecx
  00062	8b cf		 mov	 ecx, edi
  00064	d9 1c 24	 fstp	 DWORD PTR [esp]
  00067	ff 15 00 00 00
	00		 call	 DWORD PTR __imp_?ClearAllActionAni@ioEntityGroup@@QAEXM_N@Z

; 442  : 
; 443  : 	int iAniID = -1;
; 444  : 	float fAniRate = FLOAT1;

  0006d	b8 01 00 00 00	 mov	 eax, 1

; 445  : 	m_dwCurDelayTime = 0;

  00072	89 9e 08 0a 00
	00		 mov	 DWORD PTR [esi+2568], ebx

; 446  : 
; 447  : 	if( iState == PS_PUSH )
; 448  : 	{
; 449  : 		iAniID = pGrp->GetAnimationIdx( m_PushAnimation );

  00078	8b cf		 mov	 ecx, edi
  0007a	39 5d 08	 cmp	 DWORD PTR _iState$[ebp], ebx
  0007d	75 27		 jne	 SHORT $LN4@SetMotion
  0007f	8d 86 6c 0a 00
	00		 lea	 eax, DWORD PTR [esi+2668]
  00085	50		 push	 eax
  00086	ff 15 00 00 00
	00		 call	 DWORD PTR __imp_?GetAnimationIdx@ioEntityGroup@@QAEHABVioHashString@@@Z
  0008c	89 45 08	 mov	 DWORD PTR _iAniID$[ebp], eax

; 450  : 		fAniRate = m_fPushAniRate;

  0008f	8d 45 fc	 lea	 eax, DWORD PTR _value$535406[ebp]
  00092	50		 push	 eax
  00093	8d 8e 7c 0a 00
	00		 lea	 ecx, DWORD PTR [esi+2684]
  00099	e8 00 00 00 00	 call	 ?DecryptValueToPool@?$CEncrypt@M@@QAEXPAM@Z ; CEncrypt<float>::DecryptValueToPool

; 451  : 		m_dwCurDelayTime = m_dwPushDelayTime;

  0009e	8d 8e ac 0a 00
	00		 lea	 ecx, DWORD PTR [esi+2732]

; 452  : 	}
; 453  : 	else

  000a4	eb 25		 jmp	 SHORT $LN42@SetMotion
$LN4@SetMotion:

; 454  : 	{
; 455  : 		iAniID = pGrp->GetAnimationIdx( m_PullAnimation );

  000a6	8d 86 ec 0a 00
	00		 lea	 eax, DWORD PTR [esi+2796]
  000ac	50		 push	 eax
  000ad	ff 15 00 00 00
	00		 call	 DWORD PTR __imp_?GetAnimationIdx@ioEntityGroup@@QAEHABVioHashString@@@Z
  000b3	89 45 08	 mov	 DWORD PTR _iAniID$[ebp], eax

; 456  : 		fAniRate = m_fPullAniRate;

  000b6	8d 45 fc	 lea	 eax, DWORD PTR _value$535414[ebp]
  000b9	50		 push	 eax
  000ba	8d 8e fc 0a 00
	00		 lea	 ecx, DWORD PTR [esi+2812]
  000c0	e8 00 00 00 00	 call	 ?DecryptValueToPool@?$CEncrypt@M@@QAEXPAM@Z ; CEncrypt<float>::DecryptValueToPool

; 457  : 		m_dwCurDelayTime = m_dwPullDelayTime;

  000c5	8d 8e 2c 0b 00
	00		 lea	 ecx, DWORD PTR [esi+2860]
$LN42@SetMotion:
  000cb	8d 45 fc	 lea	 eax, DWORD PTR _value$535418[ebp]
  000ce	50		 push	 eax
  000cf	e8 00 00 00 00	 call	 ?DecryptValueToPool@?$CEncrypt@K@@QAEXPAK@Z ; CEncrypt<unsigned long>::DecryptValueToPool
  000d4	8b 45 fc	 mov	 eax, DWORD PTR _value$535418[ebp]
  000d7	89 86 08 0a 00
	00		 mov	 DWORD PTR [esi+2568], eax

; 458  : 	}
; 459  : 
; 460  : 	if( m_dwCurDelayTime == 0 )

  000dd	3b c3		 cmp	 eax, ebx
  000df	75 16		 jne	 SHORT $LN2@SetMotion

; 461  : 		m_dwCurDelayTime = pGrp->GetAnimationFullTime( iAniID );

  000e1	ff 75 08	 push	 DWORD PTR _iAniID$[ebp]
  000e4	8b cf		 mov	 ecx, edi
  000e6	ff 15 00 00 00
	00		 call	 DWORD PTR __imp_?GetAnimationFullTime@ioEntityGroup@@QAEMH@Z
  000ec	e8 00 00 00 00	 call	 __ftol2
  000f1	89 86 08 0a 00
	00		 mov	 DWORD PTR [esi+2568], eax
$LN2@SetMotion:

; 462  : 
; 463  : 	if( !pOwner->IsApplyDownState(false) )

  000f7	8b 4d f8	 mov	 ecx, DWORD PTR _pOwner$[ebp]
  000fa	53		 push	 ebx
  000fb	e8 00 00 00 00	 call	 ?IsApplyDownState@ioBaseChar@@QAE_N_N@Z ; ioBaseChar::IsApplyDownState
  00100	84 c0		 test	 al, al
  00102	0f 85 a2 00 00
	00		 jne	 $LN35@SetMotion

; 464  : 		pGrp->SetActionAni( iAniID, FLOAT100, FLOAT100, FLOAT1, FLOAT1/m_fPushAniRate );

  00108	b8 01 00 00 00	 mov	 eax, 1
  0010d	8b d8		 mov	 ebx, eax
  0010f	8d 45 f8	 lea	 eax, DWORD PTR _value$535426[ebp]
  00112	50		 push	 eax
  00113	8d 8e 7c 0a 00
	00		 lea	 ecx, DWORD PTR [esi+2684]
  00119	e8 00 00 00 00	 call	 ?DecryptValueToPool@?$CEncrypt@M@@QAEXPAM@Z ; CEncrypt<float>::DecryptValueToPool
  0011e	b8 01 00 00 00	 mov	 eax, 1
  00123	8b c8		 mov	 ecx, eax
  00125	b8 64 00 00 00	 mov	 eax, 100		; 00000064H
  0012a	8b d0		 mov	 edx, eax
  0012c	b8 64 00 00 00	 mov	 eax, 100		; 00000064H
  00131	0f 57 c0	 xorps	 xmm0, xmm0
  00134	6a 01		 push	 1
  00136	6a 00		 push	 0
  00138	83 ec 18	 sub	 esp, 24			; 00000018H
  0013b	f3 0f 11 44 24
	14		 movss	 DWORD PTR [esp+20], xmm0
  00141	89 5d fc	 mov	 DWORD PTR tv227[ebp], ebx
  00144	db 45 fc	 fild	 DWORD PTR tv227[ebp]
  00147	f3 0f 11 44 24
	10		 movss	 DWORD PTR [esp+16], xmm0
  0014d	85 db		 test	 ebx, ebx
  0014f	79 06		 jns	 SHORT $LN38@SetMotion
  00151	d8 05 00 00 00
	00		 fadd	 DWORD PTR __real@4f800000
$LN38@SetMotion:
  00157	d8 75 f8	 fdiv	 DWORD PTR _value$535426[ebp]
  0015a	d9 5d f8	 fstp	 DWORD PTR tv224[ebp]
  0015d	d9 45 f8	 fld	 DWORD PTR tv224[ebp]
  00160	d9 5c 24 0c	 fstp	 DWORD PTR [esp+12]
  00164	89 4d f8	 mov	 DWORD PTR tv200[ebp], ecx
  00167	db 45 f8	 fild	 DWORD PTR tv200[ebp]
  0016a	85 c9		 test	 ecx, ecx
  0016c	79 06		 jns	 SHORT $LN39@SetMotion
  0016e	d8 05 00 00 00
	00		 fadd	 DWORD PTR __real@4f800000
$LN39@SetMotion:
  00174	d9 5c 24 08	 fstp	 DWORD PTR [esp+8]
  00178	89 55 f8	 mov	 DWORD PTR tv198[ebp], edx
  0017b	db 45 f8	 fild	 DWORD PTR tv198[ebp]
  0017e	85 d2		 test	 edx, edx
  00180	79 06		 jns	 SHORT $LN40@SetMotion
  00182	d8 05 00 00 00
	00		 fadd	 DWORD PTR __real@4f800000
$LN40@SetMotion:
  00188	d9 5c 24 04	 fstp	 DWORD PTR [esp+4]
  0018c	89 45 f8	 mov	 DWORD PTR tv196[ebp], eax
  0018f	db 45 f8	 fild	 DWORD PTR tv196[ebp]
  00192	85 c0		 test	 eax, eax
  00194	79 06		 jns	 SHORT $LN41@SetMotion
  00196	d8 05 00 00 00
	00		 fadd	 DWORD PTR __real@4f800000
$LN41@SetMotion:
  0019c	d9 1c 24	 fstp	 DWORD PTR [esp]
  0019f	ff 75 08	 push	 DWORD PTR _iAniID$[ebp]
  001a2	8b cf		 mov	 ecx, edi
  001a4	ff 15 00 00 00
	00		 call	 DWORD PTR __imp_?SetActionAni@ioEntityGroup@@QAE_NHMMMMMM_N0@Z
$LN35@SetMotion:
  001aa	5f		 pop	 edi
$LN1@SetMotion:
  001ab	5e		 pop	 esi
  001ac	5b		 pop	 ebx

; 465  : }

  001ad	c9		 leave
  001ae	c2 04 00	 ret	 4
?SetMotion@ioMagneticBuff@@QAEXH@Z ENDP			; ioMagneticBuff::SetMotion
_TEXT	ENDS
PUBLIC	??0?$CEncrypt@K@@QAE@ABV0@@Z			; CEncrypt<unsigned long>::CEncrypt<unsigned long>
;	COMDAT xdata$x
; File d:\lost saga for developer\youtube\tutorial\source\src\lsclient\encryptvalue.h
xdata$x	SEGMENT
__unwindtable$??0?$CEncrypt@K@@QAE@ABV0@@Z DD 0ffffffffH
	DD	FLAT:__unwindfunclet$??0?$CEncrypt@K@@QAE@ABV0@@Z$0
__ehfuncinfo$??0?$CEncrypt@K@@QAE@ABV0@@Z DD 019930522H
	DD	01H
	DD	FLAT:__unwindtable$??0?$CEncrypt@K@@QAE@ABV0@@Z
	DD	2 DUP(00H)
	DD	2 DUP(00H)
	DD	00H
	DD	01H
; Function compile flags: /Ogsp
xdata$x	ENDS
;	COMDAT ??0?$CEncrypt@K@@QAE@ABV0@@Z
_TEXT	SEGMENT
_this$ = -16						; size = 4
__$EHRec$ = -12						; size = 12
_value$535460 = 8					; size = 4
_value$535455 = 8					; size = 4
_inValue$ = 8						; size = 4
??0?$CEncrypt@K@@QAE@ABV0@@Z PROC			; CEncrypt<unsigned long>::CEncrypt<unsigned long>, COMDAT
; _this$ = ecx

; 120  : 	CEncrypt( const CEncrypt<type> &inValue )   //     

  00000	6a 04		 push	 4
  00002	b8 00 00 00 00	 mov	 eax, __ehhandler$??0?$CEncrypt@K@@QAE@ABV0@@Z
  00007	e8 00 00 00 00	 call	 __EH_prolog3
  0000c	8b f1		 mov	 esi, ecx
  0000e	89 75 f0	 mov	 DWORD PTR _this$[ebp], esi
  00011	8d 4e 0c	 lea	 ecx, DWORD PTR [esi+12]
  00014	c7 06 00 00 00
	00		 mov	 DWORD PTR [esi], OFFSET ??_7?$CEncrypt@K@@6B@
  0001a	e8 00 00 00 00	 call	 ??0ccddaabb@@QAE@XZ	; ccddaabb::ccddaabb
  0001f	83 65 fc 00	 and	 DWORD PTR __$EHRec$[ebp+8], 0

; 121  : 	{
; 122  : 		Init();

  00023	8b ce		 mov	 ecx, esi
  00025	e8 00 00 00 00	 call	 ?Init@?$CEncrypt@K@@AAEXXZ ; CEncrypt<unsigned long>::Init

; 123  : 		*this = inValue;

  0002a	8b 4d 08	 mov	 ecx, DWORD PTR _inValue$[ebp]
  0002d	8d 45 08	 lea	 eax, DWORD PTR _value$535455[ebp]
  00030	50		 push	 eax
  00031	e8 00 00 00 00	 call	 ?DecryptValueToPool@?$CEncrypt@K@@QAEXPAK@Z ; CEncrypt<unsigned long>::DecryptValueToPool
  00036	8b 45 08	 mov	 eax, DWORD PTR _value$535455[ebp]
  00039	89 45 08	 mov	 DWORD PTR _value$535460[ebp], eax
  0003c	8d 45 08	 lea	 eax, DWORD PTR _value$535460[ebp]
  0003f	50		 push	 eax
  00040	8b ce		 mov	 ecx, esi
  00042	e8 00 00 00 00	 call	 ?EncryptValueToPool@?$CEncrypt@K@@AAEXPBD@Z ; CEncrypt<unsigned long>::EncryptValueToPool

; 124  : 	}

  00047	8b c6		 mov	 eax, esi
  00049	e8 00 00 00 00	 call	 __EH_epilog3
  0004e	c2 04 00	 ret	 4
_TEXT	ENDS
;	COMDAT text$x
text$x	SEGMENT
__unwindfunclet$??0?$CEncrypt@K@@QAE@ABV0@@Z$0:
  00000	8b 4d f0	 mov	 ecx, DWORD PTR _this$[ebp]
  00003	83 c1 0c	 add	 ecx, 12			; 0000000cH
  00006	e9 00 00 00 00	 jmp	 ??1ccddaabb@@UAE@XZ	; ccddaabb::~ccddaabb
__ehhandler$??0?$CEncrypt@K@@QAE@ABV0@@Z:
  0000b	8b 54 24 08	 mov	 edx, DWORD PTR [esp+8]
  0000f	8d 42 0c	 lea	 eax, DWORD PTR [edx+12]
  00012	8b 4a ec	 mov	 ecx, DWORD PTR [edx-20]
  00015	33 c8		 xor	 ecx, eax
  00017	e8 00 00 00 00	 call	 @__security_check_cookie@4
  0001c	b8 00 00 00 00	 mov	 eax, OFFSET __ehfuncinfo$??0?$CEncrypt@K@@QAE@ABV0@@Z
  00021	e9 00 00 00 00	 jmp	 ___CxxFrameHandler3
text$x	ENDS
??0?$CEncrypt@K@@QAE@ABV0@@Z ENDP			; CEncrypt<unsigned long>::CEncrypt<unsigned long>
PUBLIC	??0?$CEncrypt@_N@@QAE@ABV0@@Z			; CEncrypt<bool>::CEncrypt<bool>
;	COMDAT xdata$x
xdata$x	SEGMENT
__unwindtable$??0?$CEncrypt@_N@@QAE@ABV0@@Z DD 0ffffffffH
	DD	FLAT:__unwindfunclet$??0?$CEncrypt@_N@@QAE@ABV0@@Z$0
__ehfuncinfo$??0?$CEncrypt@_N@@QAE@ABV0@@Z DD 019930522H
	DD	01H
	DD	FLAT:__unwindtable$??0?$CEncrypt@_N@@QAE@ABV0@@Z
	DD	2 DUP(00H)
	DD	2 DUP(00H)
	DD	00H
	DD	01H
; Function compile flags: /Ogsp
xdata$x	ENDS
;	COMDAT ??0?$CEncrypt@_N@@QAE@ABV0@@Z
_TEXT	SEGMENT
_this$ = -16						; size = 4
__$EHRec$ = -12						; size = 12
_inValue$ = 8						; size = 4
_value$535479 = 11					; size = 1
_value$535474 = 11					; size = 1
??0?$CEncrypt@_N@@QAE@ABV0@@Z PROC			; CEncrypt<bool>::CEncrypt<bool>, COMDAT
; _this$ = ecx

; 120  : 	CEncrypt( const CEncrypt<type> &inValue )   //     

  00000	6a 04		 push	 4
  00002	b8 00 00 00 00	 mov	 eax, __ehhandler$??0?$CEncrypt@_N@@QAE@ABV0@@Z
  00007	e8 00 00 00 00	 call	 __EH_prolog3
  0000c	8b f1		 mov	 esi, ecx
  0000e	89 75 f0	 mov	 DWORD PTR _this$[ebp], esi
  00011	8d 4e 0c	 lea	 ecx, DWORD PTR [esi+12]
  00014	c7 06 00 00 00
	00		 mov	 DWORD PTR [esi], OFFSET ??_7?$CEncrypt@_N@@6B@
  0001a	e8 00 00 00 00	 call	 ??0ccddaabb@@QAE@XZ	; ccddaabb::ccddaabb
  0001f	83 65 fc 00	 and	 DWORD PTR __$EHRec$[ebp+8], 0

; 121  : 	{
; 122  : 		Init();

  00023	8b ce		 mov	 ecx, esi
  00025	e8 00 00 00 00	 call	 ?Init@?$CEncrypt@_N@@AAEXXZ ; CEncrypt<bool>::Init

; 123  : 		*this = inValue;

  0002a	8b 4d 08	 mov	 ecx, DWORD PTR _inValue$[ebp]
  0002d	8d 45 0b	 lea	 eax, DWORD PTR _value$535474[ebp]
  00030	50		 push	 eax
  00031	e8 00 00 00 00	 call	 ?DecryptValueToPool@?$CEncrypt@_N@@QAEXPA_N@Z ; CEncrypt<bool>::DecryptValueToPool
  00036	8a 45 0b	 mov	 al, BYTE PTR _value$535474[ebp]
  00039	88 45 0b	 mov	 BYTE PTR _value$535479[ebp], al
  0003c	8d 45 0b	 lea	 eax, DWORD PTR _value$535479[ebp]
  0003f	50		 push	 eax
  00040	8b ce		 mov	 ecx, esi
  00042	e8 00 00 00 00	 call	 ?EncryptValueToPool@?$CEncrypt@_N@@AAEXPBD@Z ; CEncrypt<bool>::EncryptValueToPool

; 124  : 	}

  00047	8b c6		 mov	 eax, esi
  00049	e8 00 00 00 00	 call	 __EH_epilog3
  0004e	c2 04 00	 ret	 4
_TEXT	ENDS
;	COMDAT text$x
text$x	SEGMENT
__unwindfunclet$??0?$CEncrypt@_N@@QAE@ABV0@@Z$0:
  00000	8b 4d f0	 mov	 ecx, DWORD PTR _this$[ebp]
  00003	83 c1 0c	 add	 ecx, 12			; 0000000cH
  00006	e9 00 00 00 00	 jmp	 ??1ccddaabb@@UAE@XZ	; ccddaabb::~ccddaabb
__ehhandler$??0?$CEncrypt@_N@@QAE@ABV0@@Z:
  0000b	8b 54 24 08	 mov	 edx, DWORD PTR [esp+8]
  0000f	8d 42 0c	 lea	 eax, DWORD PTR [edx+12]
  00012	8b 4a ec	 mov	 ecx, DWORD PTR [edx-20]
  00015	33 c8		 xor	 ecx, eax
  00017	e8 00 00 00 00	 call	 @__security_check_cookie@4
  0001c	b8 00 00 00 00	 mov	 eax, OFFSET __ehfuncinfo$??0?$CEncrypt@_N@@QAE@ABV0@@Z
  00021	e9 00 00 00 00	 jmp	 ___CxxFrameHandler3
text$x	ENDS
??0?$CEncrypt@_N@@QAE@ABV0@@Z ENDP			; CEncrypt<bool>::CEncrypt<bool>
PUBLIC	??9?$_Vector_const_iterator@V?$_Vector_val@PAVioBaseChar@@V?$allocator@PAVioBaseChar@@@std@@@std@@@std@@QBE_NABV01@@Z ; std::_Vector_const_iterator<std::_Vector_val<ioBaseChar *,std::allocator<ioBaseChar *> > >::operator!=
; Function compile flags: /Ogsp
; File c:\program files (x86)\microsoft visual studio 10.0\vc\include\vector
;	COMDAT ??9?$_Vector_const_iterator@V?$_Vector_val@PAVioBaseChar@@V?$allocator@PAVioBaseChar@@@std@@@std@@@std@@QBE_NABV01@@Z
_TEXT	SEGMENT
__Right$ = 8						; size = 4
??9?$_Vector_const_iterator@V?$_Vector_val@PAVioBaseChar@@V?$allocator@PAVioBaseChar@@@std@@@std@@@std@@QBE_NABV01@@Z PROC ; std::_Vector_const_iterator<std::_Vector_val<ioBaseChar *,std::allocator<ioBaseChar *> > >::operator!=, COMDAT
; _this$ = ecx

; 207  : 		{	// test for iterator inequality

  00000	55		 push	 ebp
  00001	8b ec		 mov	 ebp, esp

; 208  : 		return (!(*this == _Right));

  00003	8b 01		 mov	 eax, DWORD PTR [ecx]
  00005	8b 55 08	 mov	 edx, DWORD PTR __Right$[ebp]
  00008	33 c9		 xor	 ecx, ecx
  0000a	3b 02		 cmp	 eax, DWORD PTR [edx]
  0000c	0f 95 c0	 setne	 al

; 209  : 		}

  0000f	5d		 pop	 ebp
  00010	c2 04 00	 ret	 4
??9?$_Vector_const_iterator@V?$_Vector_val@PAVioBaseChar@@V?$allocator@PAVioBaseChar@@@std@@@std@@@std@@QBE_NABV01@@Z ENDP ; std::_Vector_const_iterator<std::_Vector_val<ioBaseChar *,std::allocator<ioBaseChar *> > >::operator!=
_TEXT	ENDS
PUBLIC	?GetTeam@ioPlayEntity@@QBE?AW4TeamType@@XZ	; ioPlayEntity::GetTeam
; Function compile flags: /Ogsp
; File d:\lost saga for developer\youtube\tutorial\source\src\lsclient\ioplayentity.h
;	COMDAT ?GetTeam@ioPlayEntity@@QBE?AW4TeamType@@XZ
_TEXT	SEGMENT
_value$535503 = -4					; size = 4
?GetTeam@ioPlayEntity@@QBE?AW4TeamType@@XZ PROC		; ioPlayEntity::GetTeam, COMDAT
; _this$ = ecx

; 107  : 	inline TeamType GetTeam() const { return m_TeamType; }

  00000	55		 push	 ebp
  00001	8b ec		 mov	 ebp, esp
  00003	51		 push	 ecx
  00004	8d 45 fc	 lea	 eax, DWORD PTR _value$535503[ebp]
  00007	50		 push	 eax
  00008	81 c1 90 00 00
	00		 add	 ecx, 144		; 00000090H
  0000e	e8 00 00 00 00	 call	 ?DecryptValueToPool@?$CEncrypt@W4TeamType@@@@QAEXPAW4TeamType@@@Z ; CEncrypt<enum TeamType>::DecryptValueToPool
  00013	8b 45 fc	 mov	 eax, DWORD PTR _value$535503[ebp]
  00016	c9		 leave
  00017	c3		 ret	 0
?GetTeam@ioPlayEntity@@QBE?AW4TeamType@@XZ ENDP		; ioPlayEntity::GetTeam
_TEXT	ENDS
PUBLIC	?GetModeType@ioPlayMode@@SA?AW4ModeType@@XZ	; ioPlayMode::GetModeType
EXTRN	?m_ModeType@ioPlayMode@@1V?$CEncrypt@W4ModeType@@@@A:BYTE ; ioPlayMode::m_ModeType
; Function compile flags: /Ogsp
; File d:\lost saga for developer\youtube\tutorial\source\src\lsclient\ioplaymode.h
;	COMDAT ?GetModeType@ioPlayMode@@SA?AW4ModeType@@XZ
_TEXT	SEGMENT
?GetModeType@ioPlayMode@@SA?AW4ModeType@@XZ PROC	; ioPlayMode::GetModeType, COMDAT

; 782  : 	static ModeType GetModeType() { return m_ModeType; }

  00000	6a 04		 push	 4
  00002	68 28 00 00 00	 push	 OFFSET ?m_ModeType@ioPlayMode@@1V?$CEncrypt@W4ModeType@@@@A+40
  00007	68 1c 00 00 00	 push	 OFFSET ?m_ModeType@ioPlayMode@@1V?$CEncrypt@W4ModeType@@@@A+28
  0000c	b9 0c 00 00 00	 mov	 ecx, OFFSET ?m_ModeType@ioPlayMode@@1V?$CEncrypt@W4ModeType@@@@A+12
  00011	e8 00 00 00 00	 call	 ?DecryptByte@ccddaabb@@QBEXPBDPADH@Z ; ccddaabb::DecryptByte
  00016	a1 28 00 00 00	 mov	 eax, DWORD PTR ?m_ModeType@ioPlayMode@@1V?$CEncrypt@W4ModeType@@@@A+40
  0001b	c3		 ret	 0
?GetModeType@ioPlayMode@@SA?AW4ModeType@@XZ ENDP	; ioPlayMode::GetModeType
_TEXT	ENDS
PUBLIC	?IsDisableAttackMode@ioFootballMode@@QBE_NXZ	; ioFootballMode::IsDisableAttackMode
; Function compile flags: /Ogsp
; File d:\lost saga for developer\youtube\tutorial\source\src\lsclient\iofootballmode.h
;	COMDAT ?IsDisableAttackMode@ioFootballMode@@QBE_NXZ
_TEXT	SEGMENT
_value$535521 = -1					; size = 1
?IsDisableAttackMode@ioFootballMode@@QBE_NXZ PROC	; ioFootballMode::IsDisableAttackMode, COMDAT
; _this$ = ecx

; 180  : 	inline bool IsDisableAttackMode() const { return m_bDisableAttack; }

  00000	55		 push	 ebp
  00001	8b ec		 mov	 ebp, esp
  00003	51		 push	 ecx
  00004	8d 45 ff	 lea	 eax, DWORD PTR _value$535521[ebp]
  00007	50		 push	 eax
  00008	81 c1 fc 05 00
	00		 add	 ecx, 1532		; 000005fcH
  0000e	e8 00 00 00 00	 call	 ?DecryptValueToPool@?$CEncrypt@_N@@QAEXPA_N@Z ; CEncrypt<bool>::DecryptValueToPool
  00013	8a 45 ff	 mov	 al, BYTE PTR _value$535521[ebp]
  00016	c9		 leave
  00017	c3		 ret	 0
?IsDisableAttackMode@ioFootballMode@@QBE_NXZ ENDP	; ioFootballMode::IsDisableAttackMode
_TEXT	ENDS
PUBLIC	??_R0?AVioPlayMode@@@8				; ioPlayMode `RTTI Type Descriptor'
PUBLIC	??_R0?AVioFootballMode@@@8			; ioFootballMode `RTTI Type Descriptor'
PUBLIC	?ToFootballMode@@YAPAVioFootballMode@@PAVioPlayMode@@@Z ; ToFootballMode
EXTRN	___RTDynamicCast:PROC
;	COMDAT ??_R0?AVioPlayMode@@@8
_DATA	SEGMENT
??_R0?AVioPlayMode@@@8 DD FLAT:??_7type_info@@6B@	; ioPlayMode `RTTI Type Descriptor'
	DD	00H
	DB	'.?AVioPlayMode@@', 00H
_DATA	ENDS
;	COMDAT ??_R0?AVioFootballMode@@@8
_DATA	SEGMENT
??_R0?AVioFootballMode@@@8 DD FLAT:??_7type_info@@6B@	; ioFootballMode `RTTI Type Descriptor'
	DD	00H
	DB	'.?AVioFootballMode@@', 00H
; Function compile flags: /Ogsp
_DATA	ENDS
;	COMDAT ?ToFootballMode@@YAPAVioFootballMode@@PAVioPlayMode@@@Z
_TEXT	SEGMENT
_pMode$ = 8						; size = 4
?ToFootballMode@@YAPAVioFootballMode@@PAVioPlayMode@@@Z PROC ; ToFootballMode, COMDAT

; 188  : {

  00000	55		 push	 ebp
  00001	8b ec		 mov	 ebp, esp

; 189  : 	if( !pMode || pMode->GetModeType() != MT_FOOTBALL )

  00003	83 7d 08 00	 cmp	 DWORD PTR _pMode$[ebp], 0
  00007	74 25		 je	 SHORT $LN1@ToFootball
  00009	e8 00 00 00 00	 call	 ?GetModeType@ioPlayMode@@SA?AW4ModeType@@XZ ; ioPlayMode::GetModeType
  0000e	83 f8 09	 cmp	 eax, 9
  00011	75 1b		 jne	 SHORT $LN1@ToFootball

; 191  : 
; 192  : 	return dynamic_cast< ioFootballMode* >( pMode );

  00013	6a 00		 push	 0
  00015	68 00 00 00 00	 push	 OFFSET ??_R0?AVioFootballMode@@@8
  0001a	68 00 00 00 00	 push	 OFFSET ??_R0?AVioPlayMode@@@8
  0001f	6a 00		 push	 0
  00021	ff 75 08	 push	 DWORD PTR _pMode$[ebp]
  00024	e8 00 00 00 00	 call	 ___RTDynamicCast
  00029	83 c4 14	 add	 esp, 20			; 00000014H

; 193  : }

  0002c	5d		 pop	 ebp
  0002d	c3		 ret	 0
$LN1@ToFootball:

; 190  : 		return NULL;

  0002e	33 c0		 xor	 eax, eax

; 193  : }

  00030	5d		 pop	 ebp
  00031	c3		 ret	 0
?ToFootballMode@@YAPAVioFootballMode@@PAVioPlayMode@@@Z ENDP ; ToFootballMode
_TEXT	ENDS
PUBLIC	??0?$CEncrypt@M@@QAE@ABV0@@Z			; CEncrypt<float>::CEncrypt<float>
;	COMDAT xdata$x
; File d:\lost saga for developer\youtube\tutorial\source\src\lsclient\encryptvalue.h
xdata$x	SEGMENT
__unwindtable$??0?$CEncrypt@M@@QAE@ABV0@@Z DD 0ffffffffH
	DD	FLAT:__unwindfunclet$??0?$CEncrypt@M@@QAE@ABV0@@Z$0
__ehfuncinfo$??0?$CEncrypt@M@@QAE@ABV0@@Z DD 019930522H
	DD	01H
	DD	FLAT:__unwindtable$??0?$CEncrypt@M@@QAE@ABV0@@Z
	DD	2 DUP(00H)
	DD	2 DUP(00H)
	DD	00H
	DD	01H
; Function compile flags: /Ogsp
xdata$x	ENDS
;	COMDAT ??0?$CEncrypt@M@@QAE@ABV0@@Z
_TEXT	SEGMENT
_this$ = -16						; size = 4
__$EHRec$ = -12						; size = 12
_value$535537 = 8					; size = 4
_value$535532 = 8					; size = 4
_inValue$ = 8						; size = 4
??0?$CEncrypt@M@@QAE@ABV0@@Z PROC			; CEncrypt<float>::CEncrypt<float>, COMDAT
; _this$ = ecx

; 120  : 	CEncrypt( const CEncrypt<type> &inValue )   //     

  00000	6a 04		 push	 4
  00002	b8 00 00 00 00	 mov	 eax, __ehhandler$??0?$CEncrypt@M@@QAE@ABV0@@Z
  00007	e8 00 00 00 00	 call	 __EH_prolog3
  0000c	8b f1		 mov	 esi, ecx
  0000e	89 75 f0	 mov	 DWORD PTR _this$[ebp], esi
  00011	8d 4e 0c	 lea	 ecx, DWORD PTR [esi+12]
  00014	c7 06 00 00 00
	00		 mov	 DWORD PTR [esi], OFFSET ??_7?$CEncrypt@M@@6B@
  0001a	e8 00 00 00 00	 call	 ??0ccddaabb@@QAE@XZ	; ccddaabb::ccddaabb
  0001f	83 65 fc 00	 and	 DWORD PTR __$EHRec$[ebp+8], 0

; 121  : 	{
; 122  : 		Init();

  00023	8b ce		 mov	 ecx, esi
  00025	e8 00 00 00 00	 call	 ?Init@?$CEncrypt@M@@AAEXXZ ; CEncrypt<float>::Init

; 123  : 		*this = inValue;

  0002a	8b 4d 08	 mov	 ecx, DWORD PTR _inValue$[ebp]
  0002d	8d 45 08	 lea	 eax, DWORD PTR _value$535532[ebp]
  00030	50		 push	 eax
  00031	e8 00 00 00 00	 call	 ?DecryptValueToPool@?$CEncrypt@M@@QAEXPAM@Z ; CEncrypt<float>::DecryptValueToPool
  00036	f3 0f 10 45 08	 movss	 xmm0, DWORD PTR _value$535532[ebp]
  0003b	8d 45 08	 lea	 eax, DWORD PTR _value$535537[ebp]
  0003e	50		 push	 eax
  0003f	8b ce		 mov	 ecx, esi
  00041	f3 0f 11 45 08	 movss	 DWORD PTR _value$535537[ebp], xmm0
  00046	e8 00 00 00 00	 call	 ?EncryptValueToPool@?$CEncrypt@M@@AAEXPBD@Z ; CEncrypt<float>::EncryptValueToPool

; 124  : 	}

  0004b	8b c6		 mov	 eax, esi
  0004d	e8 00 00 00 00	 call	 __EH_epilog3
  00052	c2 04 00	 ret	 4
_TEXT	ENDS
;	COMDAT text$x
text$x	SEGMENT
__unwindfunclet$??0?$CEncrypt@M@@QAE@ABV0@@Z$0:
  00000	8b 4d f0	 mov	 ecx, DWORD PTR _this$[ebp]
  00003	83 c1 0c	 add	 ecx, 12			; 0000000cH
  00006	e9 00 00 00 00	 jmp	 ??1ccddaabb@@UAE@XZ	; ccddaabb::~ccddaabb
__ehhandler$??0?$CEncrypt@M@@QAE@ABV0@@Z:
  0000b	8b 54 24 08	 mov	 edx, DWORD PTR [esp+8]
  0000f	8d 42 0c	 lea	 eax, DWORD PTR [edx+12]
  00012	8b 4a ec	 mov	 ecx, DWORD PTR [edx-20]
  00015	33 c8		 xor	 ecx, eax
  00017	e8 00 00 00 00	 call	 @__security_check_cookie@4
  0001c	b8 00 00 00 00	 mov	 eax, OFFSET __ehfuncinfo$??0?$CEncrypt@M@@QAE@ABV0@@Z
  00021	e9 00 00 00 00	 jmp	 ___CxxFrameHandler3
text$x	ENDS
??0?$CEncrypt@M@@QAE@ABV0@@Z ENDP			; CEncrypt<float>::CEncrypt<float>
PUBLIC	??0ioMagneticBuff@@QAE@ABV0@@Z			; ioMagneticBuff::ioMagneticBuff
EXTRN	__imp_??0ioHashString@@QAE@ABV0@@Z:PROC
EXTRN	??0ioBuff@@QAE@ABV0@@Z:PROC			; ioBuff::ioBuff
;	COMDAT xdata$x
; File d:\lost saga for developer\youtube\tutorial\source\src\lsclient\iomagneticbuff.cpp
xdata$x	SEGMENT
__ehfuncinfo$??0ioMagneticBuff@@QAE@ABV0@@Z DD 019930522H
	DD	0fH
	DD	FLAT:__unwindtable$??0ioMagneticBuff@@QAE@ABV0@@Z
	DD	2 DUP(00H)
	DD	2 DUP(00H)
	DD	00H
	DD	01H
__unwindtable$??0ioMagneticBuff@@QAE@ABV0@@Z DD 0ffffffffH
	DD	FLAT:__unwindfunclet$??0ioMagneticBuff@@QAE@ABV0@@Z$0
	DD	00H
	DD	FLAT:__unwindfunclet$??0ioMagneticBuff@@QAE@ABV0@@Z$1
	DD	01H
	DD	FLAT:__unwindfunclet$??0ioMagneticBuff@@QAE@ABV0@@Z$2
	DD	02H
	DD	FLAT:__unwindfunclet$??0ioMagneticBuff@@QAE@ABV0@@Z$3
	DD	03H
	DD	FLAT:__unwindfunclet$??0ioMagneticBuff@@QAE@ABV0@@Z$4
	DD	04H
	DD	FLAT:__unwindfunclet$??0ioMagneticBuff@@QAE@ABV0@@Z$5
	DD	05H
	DD	FLAT:__unwindfunclet$??0ioMagneticBuff@@QAE@ABV0@@Z$6
	DD	06H
	DD	FLAT:__unwindfunclet$??0ioMagneticBuff@@QAE@ABV0@@Z$7
	DD	07H
	DD	FLAT:__unwindfunclet$??0ioMagneticBuff@@QAE@ABV0@@Z$8
	DD	08H
	DD	FLAT:__unwindfunclet$??0ioMagneticBuff@@QAE@ABV0@@Z$9
	DD	09H
	DD	FLAT:__unwindfunclet$??0ioMagneticBuff@@QAE@ABV0@@Z$10
	DD	0aH
	DD	FLAT:__unwindfunclet$??0ioMagneticBuff@@QAE@ABV0@@Z$11
	DD	0bH
	DD	FLAT:__unwindfunclet$??0ioMagneticBuff@@QAE@ABV0@@Z$12
	DD	0cH
	DD	FLAT:__unwindfunclet$??0ioMagneticBuff@@QAE@ABV0@@Z$13
	DD	0dH
	DD	FLAT:__unwindfunclet$??0ioMagneticBuff@@QAE@ABV0@@Z$14
; Function compile flags: /Ogsp
xdata$x	ENDS
;	COMDAT ??0ioMagneticBuff@@QAE@ABV0@@Z
_TEXT	SEGMENT
_this$ = -16						; size = 4
__$EHRec$ = -12						; size = 12
_rhs$ = 8						; size = 4
??0ioMagneticBuff@@QAE@ABV0@@Z PROC			; ioMagneticBuff::ioMagneticBuff, COMDAT
; _this$ = ecx

; 34   : {

  00000	6a 04		 push	 4
  00002	b8 00 00 00 00	 mov	 eax, __ehhandler$??0ioMagneticBuff@@QAE@ABV0@@Z
  00007	e8 00 00 00 00	 call	 __EH_prolog3
  0000c	8b f1		 mov	 esi, ecx
  0000e	89 75 f0	 mov	 DWORD PTR _this$[ebp], esi
  00011	8b 7d 08	 mov	 edi, DWORD PTR _rhs$[ebp]
  00014	57		 push	 edi
  00015	e8 00 00 00 00	 call	 ??0ioBuff@@QAE@ABV0@@Z	; ioBuff::ioBuff
  0001a	83 65 fc 00	 and	 DWORD PTR __$EHRec$[ebp+8], 0
  0001e	8d 87 74 09 00
	00		 lea	 eax, DWORD PTR [edi+2420]
  00024	50		 push	 eax
  00025	8d 8e 74 09 00
	00		 lea	 ecx, DWORD PTR [esi+2420]
  0002b	c7 06 00 00 00
	00		 mov	 DWORD PTR [esi], OFFSET ??_7ioMagneticBuff@@6B@
  00031	e8 00 00 00 00	 call	 ??0?$CEncrypt@M@@QAE@ABV0@@Z ; CEncrypt<float>::CEncrypt<float>
  00036	8d 87 a4 09 00
	00		 lea	 eax, DWORD PTR [edi+2468]
  0003c	50		 push	 eax
  0003d	8d 8e a4 09 00
	00		 lea	 ecx, DWORD PTR [esi+2468]
  00043	c6 45 fc 01	 mov	 BYTE PTR __$EHRec$[ebp+8], 1
  00047	e8 00 00 00 00	 call	 ??0?$CEncrypt@_N@@QAE@ABV0@@Z ; CEncrypt<bool>::CEncrypt<bool>
  0004c	8d 87 d4 09 00
	00		 lea	 eax, DWORD PTR [edi+2516]
  00052	50		 push	 eax
  00053	8d 8e d4 09 00
	00		 lea	 ecx, DWORD PTR [esi+2516]
  00059	c6 45 fc 02	 mov	 BYTE PTR __$EHRec$[ebp+8], 2
  0005d	e8 00 00 00 00	 call	 ??0?$CEncrypt@M@@QAE@ABV0@@Z ; CEncrypt<float>::CEncrypt<float>
  00062	8d 87 0c 0a 00
	00		 lea	 eax, DWORD PTR [edi+2572]
  00068	50		 push	 eax
  00069	8d 8e 0c 0a 00
	00		 lea	 ecx, DWORD PTR [esi+2572]
  0006f	c6 45 fc 03	 mov	 BYTE PTR __$EHRec$[ebp+8], 3
  00073	e8 00 00 00 00	 call	 ??0?$CEncrypt@K@@QAE@ABV0@@Z ; CEncrypt<unsigned long>::CEncrypt<unsigned long>
  00078	8d 87 3c 0a 00
	00		 lea	 eax, DWORD PTR [edi+2620]
  0007e	50		 push	 eax
  0007f	8d 8e 3c 0a 00
	00		 lea	 ecx, DWORD PTR [esi+2620]
  00085	c6 45 fc 04	 mov	 BYTE PTR __$EHRec$[ebp+8], 4
  00089	e8 00 00 00 00	 call	 ??0?$CEncrypt@M@@QAE@ABV0@@Z ; CEncrypt<float>::CEncrypt<float>
  0008e	8b 1d 00 00 00
	00		 mov	 ebx, DWORD PTR __imp_??0ioHashString@@QAE@ABV0@@Z
  00094	8d 87 6c 0a 00
	00		 lea	 eax, DWORD PTR [edi+2668]
  0009a	50		 push	 eax
  0009b	8d 8e 6c 0a 00
	00		 lea	 ecx, DWORD PTR [esi+2668]
  000a1	c6 45 fc 05	 mov	 BYTE PTR __$EHRec$[ebp+8], 5
  000a5	ff d3		 call	 ebx
  000a7	8d 87 7c 0a 00
	00		 lea	 eax, DWORD PTR [edi+2684]
  000ad	50		 push	 eax
  000ae	8d 8e 7c 0a 00
	00		 lea	 ecx, DWORD PTR [esi+2684]
  000b4	c6 45 fc 06	 mov	 BYTE PTR __$EHRec$[ebp+8], 6
  000b8	e8 00 00 00 00	 call	 ??0?$CEncrypt@M@@QAE@ABV0@@Z ; CEncrypt<float>::CEncrypt<float>
  000bd	8d 87 ac 0a 00
	00		 lea	 eax, DWORD PTR [edi+2732]
  000c3	50		 push	 eax
  000c4	8d 8e ac 0a 00
	00		 lea	 ecx, DWORD PTR [esi+2732]
  000ca	c6 45 fc 07	 mov	 BYTE PTR __$EHRec$[ebp+8], 7
  000ce	e8 00 00 00 00	 call	 ??0?$CEncrypt@K@@QAE@ABV0@@Z ; CEncrypt<unsigned long>::CEncrypt<unsigned long>
  000d3	8d 87 dc 0a 00
	00		 lea	 eax, DWORD PTR [edi+2780]
  000d9	50		 push	 eax
  000da	8d 8e dc 0a 00
	00		 lea	 ecx, DWORD PTR [esi+2780]
  000e0	c6 45 fc 08	 mov	 BYTE PTR __$EHRec$[ebp+8], 8
  000e4	ff d3		 call	 ebx
  000e6	8d 87 ec 0a 00
	00		 lea	 eax, DWORD PTR [edi+2796]
  000ec	50		 push	 eax
  000ed	8d 8e ec 0a 00
	00		 lea	 ecx, DWORD PTR [esi+2796]
  000f3	c6 45 fc 09	 mov	 BYTE PTR __$EHRec$[ebp+8], 9
  000f7	ff d3		 call	 ebx
  000f9	8d 87 fc 0a 00
	00		 lea	 eax, DWORD PTR [edi+2812]
  000ff	50		 push	 eax
  00100	8d 8e fc 0a 00
	00		 lea	 ecx, DWORD PTR [esi+2812]
  00106	c6 45 fc 0a	 mov	 BYTE PTR __$EHRec$[ebp+8], 10 ; 0000000aH
  0010a	e8 00 00 00 00	 call	 ??0?$CEncrypt@M@@QAE@ABV0@@Z ; CEncrypt<float>::CEncrypt<float>
  0010f	8d 87 2c 0b 00
	00		 lea	 eax, DWORD PTR [edi+2860]
  00115	50		 push	 eax
  00116	8d 8e 2c 0b 00
	00		 lea	 ecx, DWORD PTR [esi+2860]
  0011c	c6 45 fc 0b	 mov	 BYTE PTR __$EHRec$[ebp+8], 11 ; 0000000bH
  00120	e8 00 00 00 00	 call	 ??0?$CEncrypt@K@@QAE@ABV0@@Z ; CEncrypt<unsigned long>::CEncrypt<unsigned long>
  00125	8d 87 5c 0b 00
	00		 lea	 eax, DWORD PTR [edi+2908]
  0012b	c6 45 fc 0c	 mov	 BYTE PTR __$EHRec$[ebp+8], 12 ; 0000000cH
  0012f	50		 push	 eax
  00130	8d 8e 5c 0b 00
	00		 lea	 ecx, DWORD PTR [esi+2908]
  00136	ff d3		 call	 ebx
  00138	8d 87 6c 0b 00
	00		 lea	 eax, DWORD PTR [edi+2924]
  0013e	50		 push	 eax
  0013f	8d 8e 6c 0b 00
	00		 lea	 ecx, DWORD PTR [esi+2924]
  00145	c6 45 fc 0d	 mov	 BYTE PTR __$EHRec$[ebp+8], 13 ; 0000000dH
  00149	ff d3		 call	 ebx
  0014b	81 c7 7c 0b 00
	00		 add	 edi, 2940		; 00000b7cH
  00151	57		 push	 edi
  00152	8d 8e 7c 0b 00
	00		 lea	 ecx, DWORD PTR [esi+2940]
  00158	c6 45 fc 0e	 mov	 BYTE PTR __$EHRec$[ebp+8], 14 ; 0000000eH
  0015c	ff d3		 call	 ebx

; 35   : 	m_Magnet = MAGNET_NONE;

  0015e	83 a6 70 09 00
	00 00		 and	 DWORD PTR [esi+2416], 0

; 36   : 	m_dwCurDelayTime = 0;

  00165	83 a6 08 0a 00
	00 00		 and	 DWORD PTR [esi+2568], 0

; 37   : }

  0016c	8b c6		 mov	 eax, esi
  0016e	e8 00 00 00 00	 call	 __EH_epilog3
  00173	c2 04 00	 ret	 4
_TEXT	ENDS
;	COMDAT text$x
text$x	SEGMENT
__unwindfunclet$??0ioMagneticBuff@@QAE@ABV0@@Z$0:
  00000	8b 4d f0	 mov	 ecx, DWORD PTR _this$[ebp]
  00003	e9 00 00 00 00	 jmp	 ??1ioBuff@@UAE@XZ	; ioBuff::~ioBuff
__unwindfunclet$??0ioMagneticBuff@@QAE@ABV0@@Z$1:
  00008	8b 4d f0	 mov	 ecx, DWORD PTR _this$[ebp]
  0000b	81 c1 74 09 00
	00		 add	 ecx, 2420		; 00000974H
  00011	e9 00 00 00 00	 jmp	 ??1?$CEncrypt@M@@UAE@XZ	; CEncrypt<float>::~CEncrypt<float>
__unwindfunclet$??0ioMagneticBuff@@QAE@ABV0@@Z$2:
  00016	8b 4d f0	 mov	 ecx, DWORD PTR _this$[ebp]
  00019	81 c1 a4 09 00
	00		 add	 ecx, 2468		; 000009a4H
  0001f	e9 00 00 00 00	 jmp	 ??1?$CEncrypt@_N@@UAE@XZ ; CEncrypt<bool>::~CEncrypt<bool>
__unwindfunclet$??0ioMagneticBuff@@QAE@ABV0@@Z$3:
  00024	8b 4d f0	 mov	 ecx, DWORD PTR _this$[ebp]
  00027	81 c1 d4 09 00
	00		 add	 ecx, 2516		; 000009d4H
  0002d	e9 00 00 00 00	 jmp	 ??1?$CEncrypt@M@@UAE@XZ	; CEncrypt<float>::~CEncrypt<float>
__unwindfunclet$??0ioMagneticBuff@@QAE@ABV0@@Z$4:
  00032	8b 4d f0	 mov	 ecx, DWORD PTR _this$[ebp]
  00035	81 c1 0c 0a 00
	00		 add	 ecx, 2572		; 00000a0cH
  0003b	e9 00 00 00 00	 jmp	 ??1?$CEncrypt@K@@UAE@XZ	; CEncrypt<unsigned long>::~CEncrypt<unsigned long>
__unwindfunclet$??0ioMagneticBuff@@QAE@ABV0@@Z$5:
  00040	8b 4d f0	 mov	 ecx, DWORD PTR _this$[ebp]
  00043	81 c1 3c 0a 00
	00		 add	 ecx, 2620		; 00000a3cH
  00049	e9 00 00 00 00	 jmp	 ??1?$CEncrypt@M@@UAE@XZ	; CEncrypt<float>::~CEncrypt<float>
__unwindfunclet$??0ioMagneticBuff@@QAE@ABV0@@Z$6:
  0004e	8b 4d f0	 mov	 ecx, DWORD PTR _this$[ebp]
  00051	81 c1 6c 0a 00
	00		 add	 ecx, 2668		; 00000a6cH
  00057	ff 25 00 00 00
	00		 jmp	 DWORD PTR __imp_??1ioHashString@@QAE@XZ
__unwindfunclet$??0ioMagneticBuff@@QAE@ABV0@@Z$7:
  0005d	8b 4d f0	 mov	 ecx, DWORD PTR _this$[ebp]
  00060	81 c1 7c 0a 00
	00		 add	 ecx, 2684		; 00000a7cH
  00066	e9 00 00 00 00	 jmp	 ??1?$CEncrypt@M@@UAE@XZ	; CEncrypt<float>::~CEncrypt<float>
__unwindfunclet$??0ioMagneticBuff@@QAE@ABV0@@Z$8:
  0006b	8b 4d f0	 mov	 ecx, DWORD PTR _this$[ebp]
  0006e	81 c1 ac 0a 00
	00		 add	 ecx, 2732		; 00000aacH
  00074	e9 00 00 00 00	 jmp	 ??1?$CEncrypt@K@@UAE@XZ	; CEncrypt<unsigned long>::~CEncrypt<unsigned long>
__unwindfunclet$??0ioMagneticBuff@@QAE@ABV0@@Z$9:
  00079	8b 4d f0	 mov	 ecx, DWORD PTR _this$[ebp]
  0007c	81 c1 dc 0a 00
	00		 add	 ecx, 2780		; 00000adcH
  00082	ff 25 00 00 00
	00		 jmp	 DWORD PTR __imp_??1ioHashString@@QAE@XZ
__unwindfunclet$??0ioMagneticBuff@@QAE@ABV0@@Z$10:
  00088	8b 4d f0	 mov	 ecx, DWORD PTR _this$[ebp]
  0008b	81 c1 ec 0a 00
	00		 add	 ecx, 2796		; 00000aecH
  00091	ff 25 00 00 00
	00		 jmp	 DWORD PTR __imp_??1ioHashString@@QAE@XZ
__unwindfunclet$??0ioMagneticBuff@@QAE@ABV0@@Z$11:
  00097	8b 4d f0	 mov	 ecx, DWORD PTR _this$[ebp]
  0009a	81 c1 fc 0a 00
	00		 add	 ecx, 2812		; 00000afcH
  000a0	e9 00 00 00 00	 jmp	 ??1?$CEncrypt@M@@UAE@XZ	; CEncrypt<float>::~CEncrypt<float>
__unwindfunclet$??0ioMagneticBuff@@QAE@ABV0@@Z$12:
  000a5	8b 4d f0	 mov	 ecx, DWORD PTR _this$[ebp]
  000a8	81 c1 2c 0b 00
	00		 add	 ecx, 2860		; 00000b2cH
  000ae	e9 00 00 00 00	 jmp	 ??1?$CEncrypt@K@@UAE@XZ	; CEncrypt<unsigned long>::~CEncrypt<unsigned long>
__unwindfunclet$??0ioMagneticBuff@@QAE@ABV0@@Z$13:
  000b3	8b 4d f0	 mov	 ecx, DWORD PTR _this$[ebp]
  000b6	81 c1 5c 0b 00
	00		 add	 ecx, 2908		; 00000b5cH
  000bc	ff 25 00 00 00
	00		 jmp	 DWORD PTR __imp_??1ioHashString@@QAE@XZ
__unwindfunclet$??0ioMagneticBuff@@QAE@ABV0@@Z$14:
  000c2	8b 4d f0	 mov	 ecx, DWORD PTR _this$[ebp]
  000c5	81 c1 6c 0b 00
	00		 add	 ecx, 2924		; 00000b6cH
  000cb	ff 25 00 00 00
	00		 jmp	 DWORD PTR __imp_??1ioHashString@@QAE@XZ
__ehhandler$??0ioMagneticBuff@@QAE@ABV0@@Z:
  000d1	8b 54 24 08	 mov	 edx, DWORD PTR [esp+8]
  000d5	8d 42 0c	 lea	 eax, DWORD PTR [edx+12]
  000d8	8b 4a ec	 mov	 ecx, DWORD PTR [edx-20]
  000db	33 c8		 xor	 ecx, eax
  000dd	e8 00 00 00 00	 call	 @__security_check_cookie@4
  000e2	b8 00 00 00 00	 mov	 eax, OFFSET __ehfuncinfo$??0ioMagneticBuff@@QAE@ABV0@@Z
  000e7	e9 00 00 00 00	 jmp	 ___CxxFrameHandler3
text$x	ENDS
??0ioMagneticBuff@@QAE@ABV0@@Z ENDP			; ioMagneticBuff::ioMagneticBuff
EXTRN	??2@YAPAXI@Z:PROC				; operator new
;	COMDAT xdata$x
xdata$x	SEGMENT
__unwindtable$?Clone@ioMagneticBuff@@UAEPAVioBuff@@XZ DD 0ffffffffH
	DD	FLAT:__unwindfunclet$?Clone@ioMagneticBuff@@UAEPAVioBuff@@XZ$0
__ehfuncinfo$?Clone@ioMagneticBuff@@UAEPAVioBuff@@XZ DD 019930522H
	DD	01H
	DD	FLAT:__unwindtable$?Clone@ioMagneticBuff@@UAEPAVioBuff@@XZ
	DD	2 DUP(00H)
	DD	2 DUP(00H)
	DD	00H
	DD	01H
; Function compile flags: /Ogsp
xdata$x	ENDS
;	COMDAT ?Clone@ioMagneticBuff@@UAEPAVioBuff@@XZ
_TEXT	SEGMENT
$T535573 = -16						; size = 4
__$EHRec$ = -12						; size = 12
?Clone@ioMagneticBuff@@UAEPAVioBuff@@XZ PROC		; ioMagneticBuff::Clone, COMDAT
; _this$ = ecx

; 78   : {

  00000	6a 04		 push	 4
  00002	b8 00 00 00 00	 mov	 eax, __ehhandler$?Clone@ioMagneticBuff@@UAEPAVioBuff@@XZ
  00007	e8 00 00 00 00	 call	 __EH_prolog3
  0000c	8b f1		 mov	 esi, ecx

; 79   : 	return new ioMagneticBuff( *this );

  0000e	68 90 0b 00 00	 push	 2960			; 00000b90H
  00013	e8 00 00 00 00	 call	 ??2@YAPAXI@Z		; operator new
  00018	59		 pop	 ecx
  00019	8b c8		 mov	 ecx, eax
  0001b	89 4d f0	 mov	 DWORD PTR $T535573[ebp], ecx
  0001e	33 c0		 xor	 eax, eax
  00020	89 45 fc	 mov	 DWORD PTR __$EHRec$[ebp+8], eax
  00023	3b c8		 cmp	 ecx, eax
  00025	74 06		 je	 SHORT $LN3@Clone
  00027	56		 push	 esi
  00028	e8 00 00 00 00	 call	 ??0ioMagneticBuff@@QAE@ABV0@@Z ; ioMagneticBuff::ioMagneticBuff
$LN3@Clone:

; 80   : }

  0002d	e8 00 00 00 00	 call	 __EH_epilog3
  00032	c3		 ret	 0
_TEXT	ENDS
;	COMDAT text$x
text$x	SEGMENT
__unwindfunclet$?Clone@ioMagneticBuff@@UAEPAVioBuff@@XZ$0:
  00000	ff 75 f0	 push	 DWORD PTR $T535573[ebp]
  00003	e8 00 00 00 00	 call	 ??3@YAXPAX@Z		; operator delete
  00008	59		 pop	 ecx
  00009	c3		 ret	 0
__ehhandler$?Clone@ioMagneticBuff@@UAEPAVioBuff@@XZ:
  0000a	8b 54 24 08	 mov	 edx, DWORD PTR [esp+8]
  0000e	8d 42 0c	 lea	 eax, DWORD PTR [edx+12]
  00011	8b 4a ec	 mov	 ecx, DWORD PTR [edx-20]
  00014	33 c8		 xor	 ecx, eax
  00016	e8 00 00 00 00	 call	 @__security_check_cookie@4
  0001b	b8 00 00 00 00	 mov	 eax, OFFSET __ehfuncinfo$?Clone@ioMagneticBuff@@UAEPAVioBuff@@XZ
  00020	e9 00 00 00 00	 jmp	 ___CxxFrameHandler3
text$x	ENDS
?Clone@ioMagneticBuff@@UAEPAVioBuff@@XZ ENDP		; ioMagneticBuff::Clone
PUBLIC	?CheckOwnerState@ioMagneticBuff@@IAE_NXZ	; ioMagneticBuff::CheckOwnerState
EXTRN	?SetReserveEndBuff@ioBuff@@QAEXXZ:PROC		; ioBuff::SetReserveEndBuff
EXTRN	?IsCanNoWound@ioBaseChar@@QAE_NXZ:PROC		; ioBaseChar::IsCanNoWound
EXTRN	?IsChatModeState@ioBaseChar@@QBE_N_N@Z:PROC	; ioBaseChar::IsChatModeState
EXTRN	?HasBuff@ioBaseChar@@QBE_NH@Z:PROC		; ioBaseChar::HasBuff
EXTRN	?IsSystemState@ioBaseChar@@QAE_NXZ:PROC		; ioBaseChar::IsSystemState
; Function compile flags: /Ogsp
;	COMDAT ?CheckOwnerState@ioMagneticBuff@@IAE_NXZ
_TEXT	SEGMENT
_value$535615 = -8					; size = 4
_value$535604 = -8					; size = 4
_value$535634 = -1					; size = 1
?CheckOwnerState@ioMagneticBuff@@IAE_NXZ PROC		; ioMagneticBuff::CheckOwnerState, COMDAT
; _this$ = ecx

; 222  : {

  00000	55		 push	 ebp
  00001	8b ec		 mov	 ebp, esp
  00003	51		 push	 ecx
  00004	51		 push	 ecx
  00005	56		 push	 esi
  00006	57		 push	 edi
  00007	8b f9		 mov	 edi, ecx

; 223  : 	ioBaseChar *pOwner = GetOwner();

  00009	e8 00 00 00 00	 call	 ?GetOwner@ioBuff@@QAEPAVioBaseChar@@XZ ; ioBuff::GetOwner
  0000e	8b f0		 mov	 esi, eax

; 224  : 	if( !pOwner )

  00010	85 f6		 test	 esi, esi

; 225  : 	{
; 226  : 		SetReserveEndBuff();
; 227  : 		return false;

  00012	0f 84 15 01 00
	00		 je	 $LN8@CheckOwner

; 228  : 	}
; 229  : 
; 230  : 	if( pOwner->GetCharName() == m_CreateChar )

  00018	8d 87 88 02 00
	00		 lea	 eax, DWORD PTR [edi+648]
  0001e	50		 push	 eax
  0001f	8d 8e d4 02 00
	00		 lea	 ecx, DWORD PTR [esi+724]
  00025	ff 15 00 00 00
	00		 call	 DWORD PTR __imp_??8ioHashString@@QBE_NABV0@@Z
  0002b	84 c0		 test	 al, al

; 231  : 		return false;

  0002d	0f 85 01 01 00
	00		 jne	 $LN11@CheckOwner

; 232  : 
; 233  : 	switch( pOwner->GetState() )

  00033	0f b6 86 10 03
	00 00		 movzx	 eax, BYTE PTR [esi+784]
  0003a	83 e8 07	 sub	 eax, 7
  0003d	0f 84 f1 00 00
	00		 je	 $LN11@CheckOwner
  00043	83 e8 10	 sub	 eax, 16			; 00000010H
  00046	0f 84 e8 00 00
	00		 je	 $LN11@CheckOwner
  0004c	48		 dec	 eax
  0004d	48		 dec	 eax
  0004e	0f 84 e0 00 00
	00		 je	 $LN11@CheckOwner

; 239  : 	}
; 240  : 
; 241  : 	if( pOwner->IsSystemState() )

  00054	8b ce		 mov	 ecx, esi
  00056	e8 00 00 00 00	 call	 ?IsSystemState@ioBaseChar@@QAE_NXZ ; ioBaseChar::IsSystemState
  0005b	84 c0		 test	 al, al

; 242  : 	{
; 243  : 		SetReserveEndBuff();
; 244  : 		return false;

  0005d	0f 85 ca 00 00
	00		 jne	 $LN8@CheckOwner

; 245  : 	}
; 246  : 
; 247  : 	if( pOwner->HasBuff( BT_ABSOLUTE_PROTECTION ) ||
; 248  : 		pOwner->HasBuff( BT_STATE_PROTECTION ) ||
; 249  : 		pOwner->HasBuff( BT_STATE_PROTECTION_BY_PASSIVE ) ||
; 250  : 		pOwner->HasBuff( BT_NOT_MOVE_PROTECT ) )

  00063	6a 1d		 push	 29			; 0000001dH
  00065	8b ce		 mov	 ecx, esi
  00067	e8 00 00 00 00	 call	 ?HasBuff@ioBaseChar@@QBE_NH@Z ; ioBaseChar::HasBuff
  0006c	84 c0		 test	 al, al
  0006e	0f 85 b9 00 00
	00		 jne	 $LN8@CheckOwner
  00074	6a 23		 push	 35			; 00000023H
  00076	8b ce		 mov	 ecx, esi
  00078	e8 00 00 00 00	 call	 ?HasBuff@ioBaseChar@@QBE_NH@Z ; ioBaseChar::HasBuff
  0007d	84 c0		 test	 al, al
  0007f	0f 85 a8 00 00
	00		 jne	 $LN8@CheckOwner
  00085	68 9c 00 00 00	 push	 156			; 0000009cH
  0008a	8b ce		 mov	 ecx, esi
  0008c	e8 00 00 00 00	 call	 ?HasBuff@ioBaseChar@@QBE_NH@Z ; ioBaseChar::HasBuff
  00091	84 c0		 test	 al, al
  00093	0f 85 94 00 00
	00		 jne	 $LN8@CheckOwner
  00099	6a 48		 push	 72			; 00000048H
  0009b	8b ce		 mov	 ecx, esi
  0009d	e8 00 00 00 00	 call	 ?HasBuff@ioBaseChar@@QBE_NH@Z ; ioBaseChar::HasBuff
  000a2	84 c0		 test	 al, al
  000a4	0f 85 83 00 00
	00		 jne	 $LN8@CheckOwner

; 253  : 		return false;
; 254  : 	}
; 255  : 
; 256  : 	if( pOwner->GetCurEtcStateCnt() != m_iEtcStateCnt )

  000aa	8b 86 ac 19 00
	00		 mov	 eax, DWORD PTR [esi+6572]
  000b0	3b 87 8c 0b 00
	00		 cmp	 eax, DWORD PTR [edi+2956]

; 257  : 	{
; 258  : 		SetReserveEndBuff();
; 259  : 		return false;

  000b6	75 75		 jne	 SHORT $LN8@CheckOwner

; 260  : 	}
; 261  : 
; 262  : 	if( pOwner->GetProtectionMode() != PM_NONE )

  000b8	8d 45 f8	 lea	 eax, DWORD PTR _value$535604[ebp]
  000bb	50		 push	 eax
  000bc	8d 8e d8 10 00
	00		 lea	 ecx, DWORD PTR [esi+4312]
  000c2	e8 00 00 00 00	 call	 ?DecryptValueToPool@?$CEncrypt@W4ProtectionMode@@@@QAEXPAW4ProtectionMode@@@Z ; CEncrypt<enum ProtectionMode>::DecryptValueToPool
  000c7	83 7d f8 00	 cmp	 DWORD PTR _value$535604[ebp], 0

; 263  : 		return false;

  000cb	75 67		 jne	 SHORT $LN11@CheckOwner

; 264  : 
; 265  : 	if( pOwner->IsChatModeState( false ) )

  000cd	6a 00		 push	 0
  000cf	8b ce		 mov	 ecx, esi
  000d1	e8 00 00 00 00	 call	 ?IsChatModeState@ioBaseChar@@QBE_N_N@Z ; ioBaseChar::IsChatModeState
  000d6	84 c0		 test	 al, al

; 266  : 	{
; 267  : 		SetReserveEndBuff();
; 268  : 		return false;

  000d8	75 53		 jne	 SHORT $LN8@CheckOwner

; 269  : 	}
; 270  : 
; 271  : 	if( pOwner->GetExperienceMode() == EMS_EXPERIENCE )

  000da	8d 45 f8	 lea	 eax, DWORD PTR _value$535615[ebp]
  000dd	50		 push	 eax
  000de	8d 8e 94 1d 00
	00		 lea	 ecx, DWORD PTR [esi+7572]
  000e4	e8 00 00 00 00	 call	 ?DecryptValueToPool@?$CEncrypt@K@@QAEXPAK@Z ; CEncrypt<unsigned long>::DecryptValueToPool
  000e9	83 7d f8 02	 cmp	 DWORD PTR _value$535615[ebp], 2

; 272  : 	{
; 273  : 		SetReserveEndBuff();
; 274  : 		return false;

  000ed	74 3e		 je	 SHORT $LN8@CheckOwner

; 275  : 	}
; 276  : 
; 277  : 	if( pOwner->IsCanNoWound() )

  000ef	8b ce		 mov	 ecx, esi
  000f1	e8 00 00 00 00	 call	 ?IsCanNoWound@ioBaseChar@@QAE_NXZ ; ioBaseChar::IsCanNoWound
  000f6	84 c0		 test	 al, al

; 278  : 	{
; 279  : 		SetReserveEndBuff();
; 280  : 		return false;

  000f8	75 33		 jne	 SHORT $LN8@CheckOwner

; 281  : 	}
; 282  : 
; 283  : 	ioPlayStage *pStage = pOwner->GetCreator();

  000fa	8b b6 44 03 00
	00		 mov	 esi, DWORD PTR [esi+836]

; 284  : 	if( pStage )

  00100	85 f6		 test	 esi, esi
  00102	74 25		 je	 SHORT $LN1@CheckOwner

; 285  : 	{
; 286  : 		ioFootballMode *pFootBall = ToFootballMode( pStage->GetPlayMode() );

  00104	ff b6 10 01 00
	00		 push	 DWORD PTR [esi+272]
  0010a	e8 00 00 00 00	 call	 ?ToFootballMode@@YAPAVioFootballMode@@PAVioPlayMode@@@Z ; ToFootballMode
  0010f	59		 pop	 ecx

; 287  : 		if( pFootBall && pFootBall->IsDisableAttackMode() )

  00110	85 c0		 test	 eax, eax
  00112	74 15		 je	 SHORT $LN1@CheckOwner
  00114	8d 4d ff	 lea	 ecx, DWORD PTR _value$535634[ebp]
  00117	51		 push	 ecx
  00118	8d 88 fc 05 00
	00		 lea	 ecx, DWORD PTR [eax+1532]
  0011e	e8 00 00 00 00	 call	 ?DecryptValueToPool@?$CEncrypt@_N@@QAEXPA_N@Z ; CEncrypt<bool>::DecryptValueToPool
  00123	80 7d ff 00	 cmp	 BYTE PTR _value$535634[ebp], 0

; 288  : 		{
; 289  : 			SetReserveEndBuff();
; 290  : 			return false;

  00127	75 04		 jne	 SHORT $LN8@CheckOwner
$LN1@CheckOwner:

; 291  : 		}
; 292  : 	}
; 293  : 
; 294  : 	return true;

  00129	b0 01		 mov	 al, 1
  0012b	eb 09		 jmp	 SHORT $LN16@CheckOwner
$LN8@CheckOwner:

; 251  : 	{
; 252  : 		SetReserveEndBuff();

  0012d	8b cf		 mov	 ecx, edi
  0012f	e8 00 00 00 00	 call	 ?SetReserveEndBuff@ioBuff@@QAEXXZ ; ioBuff::SetReserveEndBuff
$LN11@CheckOwner:

; 234  : 	{
; 235  : 	case CS_USING_SKILL:
; 236  : 	case CS_FROZEN:
; 237  : 	case CS_DRINK:		
; 238  : 		return false;

  00134	32 c0		 xor	 al, al
$LN16@CheckOwner:
  00136	5f		 pop	 edi
  00137	5e		 pop	 esi

; 295  : }

  00138	c9		 leave
  00139	c3		 ret	 0
?CheckOwnerState@ioMagneticBuff@@IAE_NXZ ENDP		; ioMagneticBuff::CheckOwnerState
_TEXT	ENDS
PUBLIC	__real@461c4000
PUBLIC	__$ArrayPad$
PUBLIC	?ProcessBuffState@ioMagneticBuff@@IAEXXZ	; ioMagneticBuff::ProcessBuffState
EXTRN	?SetTargetRotToTargetPos@ioBaseChar@@QAEXABUD3DXVECTOR3@@_N1@Z:PROC ; ioBaseChar::SetTargetRotToTargetPos
EXTRN	?CheckMagneticBuff@ioBaseChar@@QAE_NUD3DXVECTOR3@@H@Z:PROC ; ioBaseChar::CheckMagneticBuff
EXTRN	?GetMagnet@ioBaseChar@@QAEHXZ:PROC		; ioBaseChar::GetMagnet
EXTRN	_D3DXVec3Normalize@8:PROC
EXTRN	?GetMidPositionByRate@ioGameEntity@@QBE?AUD3DXVECTOR3@@M@Z:PROC ; ioGameEntity::GetMidPositionByRate
EXTRN	?IsMagneticBuffOwner@ioBaseChar@@QAE_NXZ:PROC	; ioBaseChar::IsMagneticBuffOwner
EXTRN	__imp_?GetLoopSec@ioFrameTimer@@QBEKXZ:PROC
EXTRN	__imp_?GetSingleton@ioFrameTimer@@SAAAV1@XZ:PROC
;	COMDAT __real@461c4000
; File c:\program files (x86)\microsoft directx sdk (june 2010)\include\d3dx9math.inl
CONST	SEGMENT
__real@461c4000 DD 0461c4000r			; 10000
; Function compile flags: /Ogsp
; File d:\lost saga for developer\youtube\tutorial\source\src\lsclient\iomagneticbuff.cpp
CONST	ENDS
;	COMDAT ?ProcessBuffState@ioMagneticBuff@@IAEXXZ
_TEXT	SEGMENT
_value$535729 = -112					; size = 4
_fLength$530863 = -108					; size = 4
_value$535742 = -104					; size = 4
_value$535784 = -100					; size = 4
_iter$ = -96						; size = 4
_value$535653 = -92					; size = 4
_fLastLength$ = -92					; size = 4
_pSelectTarget$ = -88					; size = 4
tv833 = -84						; size = 4
tv829 = -84						; size = 4
tv825 = -84						; size = 4
tv817 = -84						; size = 4
tv811 = -84						; size = 4
tv807 = -84						; size = 4
tv775 = -80						; size = 4
tv771 = -80						; size = 4
tv766 = -80						; size = 4
tv759 = -80						; size = 4
tv755 = -80						; size = 4
tv751 = -80						; size = 4
_pStage$ = -80						; size = 4
_vPosTarget$530859 = -76				; size = 12
_vPosOwner$530857 = -64					; size = 12
_vTargetDir$530873 = -52				; size = 12
_vOwnerDir$530871 = -40					; size = 12
_vPosOwner$530867 = -28					; size = 12
_vPosTarget$530869 = -16				; size = 12
__$ArrayPad$ = -4					; size = 4
?ProcessBuffState@ioMagneticBuff@@IAEXXZ PROC		; ioMagneticBuff::ProcessBuffState, COMDAT
; _this$ = ecx

; 298  : {

  00000	55		 push	 ebp
  00001	8b ec		 mov	 ebp, esp
  00003	83 ec 70	 sub	 esp, 112		; 00000070H
  00006	a1 00 00 00 00	 mov	 eax, DWORD PTR ___security_cookie
  0000b	33 c5		 xor	 eax, ebp
  0000d	89 45 fc	 mov	 DWORD PTR __$ArrayPad$[ebp], eax
  00010	53		 push	 ebx
  00011	56		 push	 esi
  00012	57		 push	 edi
  00013	8b f1		 mov	 esi, ecx

; 299  : 	if( IsOwnerBuff() )

  00015	e8 00 00 00 00	 call	 ?IsOwnerBuff@ioMagneticBuff@@IAE_NXZ ; ioMagneticBuff::IsOwnerBuff
  0001a	84 c0		 test	 al, al
  0001c	0f 85 25 04 00
	00		 jne	 $LN1@ProcessBuf

; 300  : 		return;
; 301  : 
; 302  : 	ioBaseChar *pOwner = GetOwner();

  00022	8b ce		 mov	 ecx, esi
  00024	e8 00 00 00 00	 call	 ?GetOwner@ioBuff@@QAEPAVioBaseChar@@XZ ; ioBuff::GetOwner
  00029	8b d8		 mov	 ebx, eax

; 303  : 	if( !pOwner )

  0002b	85 db		 test	 ebx, ebx
  0002d	0f 84 14 04 00
	00		 je	 $LN1@ProcessBuf

; 304  : 		return;
; 305  : 
; 306  : 	ioPlayStage *pStage = pOwner->GetCreator();

  00033	8b bb 44 03 00
	00		 mov	 edi, DWORD PTR [ebx+836]
  00039	89 7d b0	 mov	 DWORD PTR _pStage$[ebp], edi

; 307  : 	if( !pStage )

  0003c	85 ff		 test	 edi, edi
  0003e	0f 84 03 04 00
	00		 je	 $LN1@ProcessBuf

; 308  : 		return;
; 309  : 
; 310  : 	if( m_BuffState == BS_DELAY )

  00044	83 be 6c 09 00
	00 01		 cmp	 DWORD PTR [esi+2412], 1
  0004b	75 7d		 jne	 SHORT $LN14@ProcessBuf

; 311  : 	{
; 312  : 		if( m_dwCurDelayTime > 0 && m_dwLastPushTime + m_dwCurDelayTime < FRAMEGETTIME() )

  0004d	83 be 08 0a 00
	00 00		 cmp	 DWORD PTR [esi+2568], 0
  00054	76 3f		 jbe	 SHORT $LN16@ProcessBuf
  00056	ff 15 00 00 00
	00		 call	 DWORD PTR __imp_?GetSingleton@ioFrameTimer@@SAAAV1@XZ
  0005c	8b c8		 mov	 ecx, eax
  0005e	ff 15 00 00 00
	00		 call	 DWORD PTR __imp_?GetLoopSec@ioFrameTimer@@QBEKXZ
  00064	8b 8e 04 0a 00
	00		 mov	 ecx, DWORD PTR [esi+2564]
  0006a	03 8e 08 0a 00
	00		 add	 ecx, DWORD PTR [esi+2568]
  00070	3b c8		 cmp	 ecx, eax
  00072	73 21		 jae	 SHORT $LN16@ProcessBuf

; 313  : 		{
; 314  : 			m_dwCurDelayTime = 0;

  00074	83 a6 08 0a 00
	00 00		 and	 DWORD PTR [esi+2568], 0

; 315  : 			if( pOwner->GetState() == CS_ETC_STATE )

  0007b	80 bb 10 03 00
	00 0f		 cmp	 BYTE PTR [ebx+784], 15	; 0000000fH
  00082	75 11		 jne	 SHORT $LN16@ProcessBuf

; 316  : 			{
; 317  : 				pOwner->SetState( CS_DELAY, m_bSendDelayNetWork );

  00084	0f b6 86 f9 08
	00 00		 movzx	 eax, BYTE PTR [esi+2297]
  0008b	50		 push	 eax
  0008c	6a 00		 push	 0
  0008e	8b cb		 mov	 ecx, ebx
  00090	e8 00 00 00 00	 call	 ?SetState@ioBaseChar@@QAEXH_N@Z ; ioBaseChar::SetState
$LN16@ProcessBuf:

; 318  : 			}
; 319  : 		}
; 320  : 
; 321  : 		if( m_dwLastPushTime + m_dwMagneticRefreshTime < FRAMEGETTIME() )

  00095	8d 45 a4	 lea	 eax, DWORD PTR _value$535653[ebp]
  00098	50		 push	 eax
  00099	8d 8e 0c 0a 00
	00		 lea	 ecx, DWORD PTR [esi+2572]
  0009f	e8 00 00 00 00	 call	 ?DecryptValueToPool@?$CEncrypt@K@@QAEXPAK@Z ; CEncrypt<unsigned long>::DecryptValueToPool
  000a4	ff 15 00 00 00
	00		 call	 DWORD PTR __imp_?GetSingleton@ioFrameTimer@@SAAAV1@XZ
  000aa	8b c8		 mov	 ecx, eax
  000ac	ff 15 00 00 00
	00		 call	 DWORD PTR __imp_?GetLoopSec@ioFrameTimer@@QBEKXZ
  000b2	8b 8e 04 0a 00
	00		 mov	 ecx, DWORD PTR [esi+2564]
  000b8	03 4d a4	 add	 ecx, DWORD PTR _value$535653[ebp]
  000bb	3b c8		 cmp	 ecx, eax
  000bd	0f 83 84 03 00
	00		 jae	 $LN1@ProcessBuf

; 322  : 		{
; 323  : 			m_BuffState = BS_ENABLE;

  000c3	83 a6 6c 09 00
	00 00		 and	 DWORD PTR [esi+2412], 0
$LN14@ProcessBuf:

; 324  : 		}
; 325  : 		else
; 326  : 			return;
; 327  : 	}
; 328  : 
; 329  : 	ioBaseChar *pSelectTarget = NULL;
; 330  : 	float fLastLength = 10000.0f;
; 331  : 
; 332  : 	const BaseCharList &rkTargetList = pStage->GetBaseCharList();
; 333  : 	BaseCharList::const_iterator iter;
; 334  : 	for( iter = rkTargetList.begin(); iter != rkTargetList.end(); ++iter )

  000ca	8b 47 2c	 mov	 eax, DWORD PTR [edi+44]
  000cd	83 65 a8 00	 and	 DWORD PTR _pSelectTarget$[ebp], 0
  000d1	f3 0f 10 05 00
	00 00 00	 movss	 xmm0, DWORD PTR __real@461c4000
  000d9	f3 0f 11 45 a4	 movss	 DWORD PTR _fLastLength$[ebp], xmm0
  000de	89 45 a0	 mov	 DWORD PTR _iter$[ebp], eax
  000e1	3b 47 30	 cmp	 eax, DWORD PTR [edi+48]
  000e4	0f 84 5d 03 00
	00		 je	 $LN1@ProcessBuf
$LL40@ProcessBuf:

; 335  : 	{
; 336  : 		ioBaseChar *pTarget = (*iter);

  000ea	8b 38		 mov	 edi, DWORD PTR [eax]

; 337  : 		if( !pTarget )

  000ec	85 ff		 test	 edi, edi
  000ee	0f 84 af 01 00
	00		 je	 $LN12@ProcessBuf

; 338  : 			continue;
; 339  : 
; 340  : 		if( pTarget->GetCharName() == pOwner->GetCharName() )

  000f4	8d 83 d4 02 00
	00		 lea	 eax, DWORD PTR [ebx+724]
  000fa	50		 push	 eax
  000fb	8d 8f d4 02 00
	00		 lea	 ecx, DWORD PTR [edi+724]
  00101	ff 15 00 00 00
	00		 call	 DWORD PTR __imp_??8ioHashString@@QBE_NABV0@@Z
  00107	84 c0		 test	 al, al
  00109	0f 85 91 01 00
	00		 jne	 $LN104@ProcessBuf

; 341  : 			continue;
; 342  : 
; 343  : 		if( !pTarget->HasBuff(BT_MAGNETIC) )

  0010f	6a 77		 push	 119			; 00000077H
  00111	8b cf		 mov	 ecx, edi
  00113	e8 00 00 00 00	 call	 ?HasBuff@ioBaseChar@@QBE_NH@Z ; ioBaseChar::HasBuff
  00118	84 c0		 test	 al, al
  0011a	0f 84 80 01 00
	00		 je	 $LN104@ProcessBuf

; 344  : 			continue;
; 345  : 
; 346  : 		if( pOwner->GetTeam() == pTarget->GetTeam() )

  00120	8d 45 90	 lea	 eax, DWORD PTR _value$535729[ebp]
  00123	50		 push	 eax
  00124	8d 8b 90 00 00
	00		 lea	 ecx, DWORD PTR [ebx+144]
  0012a	e8 00 00 00 00	 call	 ?DecryptValueToPool@?$CEncrypt@W4TeamType@@@@QAEXPAW4TeamType@@@Z ; CEncrypt<enum TeamType>::DecryptValueToPool
  0012f	8d 45 98	 lea	 eax, DWORD PTR _value$535742[ebp]
  00132	50		 push	 eax
  00133	8d 8f 90 00 00
	00		 lea	 ecx, DWORD PTR [edi+144]
  00139	e8 00 00 00 00	 call	 ?DecryptValueToPool@?$CEncrypt@W4TeamType@@@@QAEXPAW4TeamType@@@Z ; CEncrypt<enum TeamType>::DecryptValueToPool
  0013e	8b 45 90	 mov	 eax, DWORD PTR _value$535729[ebp]
  00141	3b 45 98	 cmp	 eax, DWORD PTR _value$535742[ebp]
  00144	75 0f		 jne	 SHORT $LN6@ProcessBuf

; 347  : 		{
; 348  : 			if( pTarget->IsMagneticBuffOwner() )

  00146	8b cf		 mov	 ecx, edi
  00148	e8 00 00 00 00	 call	 ?IsMagneticBuffOwner@ioBaseChar@@QAE_NXZ ; ioBaseChar::IsMagneticBuffOwner
  0014d	84 c0		 test	 al, al
  0014f	0f 85 4b 01 00
	00		 jne	 $LN104@ProcessBuf
$LN6@ProcessBuf:

; 349  : 				continue;
; 350  : 		}
; 351  : 
; 352  : 		D3DXVECTOR3 vPosOwner = pOwner->GetMidPositionByRate();

  00155	b8 05 00 00 00	 mov	 eax, 5
  0015a	8b c8		 mov	 ecx, eax
  0015c	b8 0a 00 00 00	 mov	 eax, 10			; 0000000aH
  00161	89 4d ac	 mov	 DWORD PTR tv833[ebp], ecx
  00164	db 45 ac	 fild	 DWORD PTR tv833[ebp]
  00167	85 c9		 test	 ecx, ecx
  00169	79 06		 jns	 SHORT $LN105@ProcessBuf
  0016b	d8 05 00 00 00
	00		 fadd	 DWORD PTR __real@4f800000
$LN105@ProcessBuf:
  00171	89 45 ac	 mov	 DWORD PTR tv829[ebp], eax
  00174	db 45 ac	 fild	 DWORD PTR tv829[ebp]
  00177	85 c0		 test	 eax, eax
  00179	79 06		 jns	 SHORT $LN106@ProcessBuf
  0017b	d8 05 00 00 00
	00		 fadd	 DWORD PTR __real@4f800000
$LN106@ProcessBuf:
  00181	de f9		 fdivp	 ST(1), ST(0)
  00183	51		 push	 ecx
  00184	8d 45 c0	 lea	 eax, DWORD PTR _vPosOwner$530857[ebp]
  00187	8b cb		 mov	 ecx, ebx
  00189	d9 5d ac	 fstp	 DWORD PTR tv825[ebp]
  0018c	d9 45 ac	 fld	 DWORD PTR tv825[ebp]
  0018f	d9 1c 24	 fstp	 DWORD PTR [esp]
  00192	50		 push	 eax
  00193	e8 00 00 00 00	 call	 ?GetMidPositionByRate@ioGameEntity@@QBE?AUD3DXVECTOR3@@M@Z ; ioGameEntity::GetMidPositionByRate

; 353  : 		D3DXVECTOR3 vPosTarget = pTarget->GetMidPositionByRate();

  00198	b8 05 00 00 00	 mov	 eax, 5
  0019d	8b c8		 mov	 ecx, eax
  0019f	b8 0a 00 00 00	 mov	 eax, 10			; 0000000aH
  001a4	89 4d ac	 mov	 DWORD PTR tv817[ebp], ecx
  001a7	db 45 ac	 fild	 DWORD PTR tv817[ebp]
  001aa	85 c9		 test	 ecx, ecx
  001ac	79 06		 jns	 SHORT $LN107@ProcessBuf
  001ae	d8 05 00 00 00
	00		 fadd	 DWORD PTR __real@4f800000
$LN107@ProcessBuf:
  001b4	89 45 ac	 mov	 DWORD PTR tv811[ebp], eax
  001b7	db 45 ac	 fild	 DWORD PTR tv811[ebp]
  001ba	85 c0		 test	 eax, eax
  001bc	79 06		 jns	 SHORT $LN108@ProcessBuf
  001be	d8 05 00 00 00
	00		 fadd	 DWORD PTR __real@4f800000
$LN108@ProcessBuf:
  001c4	de f9		 fdivp	 ST(1), ST(0)
  001c6	51		 push	 ecx
  001c7	8d 45 b4	 lea	 eax, DWORD PTR _vPosTarget$530859[ebp]
  001ca	8b cf		 mov	 ecx, edi
  001cc	d9 5d ac	 fstp	 DWORD PTR tv807[ebp]
  001cf	d9 45 ac	 fld	 DWORD PTR tv807[ebp]
  001d2	d9 1c 24	 fstp	 DWORD PTR [esp]
  001d5	50		 push	 eax
  001d6	e8 00 00 00 00	 call	 ?GetMidPositionByRate@ioGameEntity@@QBE?AUD3DXVECTOR3@@M@Z ; ioGameEntity::GetMidPositionByRate

; 354  : 		D3DXVECTOR3 vDist = vPosTarget - vPosOwner;

  001db	f3 0f 10 45 b4	 movss	 xmm0, DWORD PTR _vPosTarget$530859[ebp]
  001e0	f3 0f 10 4d c0	 movss	 xmm1, DWORD PTR _vPosOwner$530857[ebp]
  001e5	f3 0f 10 55 c4	 movss	 xmm2, DWORD PTR _vPosOwner$530857[ebp+4]
  001ea	f3 0f 10 5d c8	 movss	 xmm3, DWORD PTR _vPosOwner$530857[ebp+8]
  001ef	0f 5a c0	 cvtps2pd xmm0, xmm0
  001f2	0f 5a c9	 cvtps2pd xmm1, xmm1
  001f5	f2 0f 5c c1	 subsd	 xmm0, xmm1
  001f9	0f 57 c9	 xorps	 xmm1, xmm1
  001fc	66 0f 5a c8	 cvtpd2ps xmm1, xmm0
  00200	f3 0f 10 45 b8	 movss	 xmm0, DWORD PTR _vPosTarget$530859[ebp+4]
  00205	0f 5a c0	 cvtps2pd xmm0, xmm0
  00208	0f 5a d2	 cvtps2pd xmm2, xmm2
  0020b	f2 0f 5c c2	 subsd	 xmm0, xmm2
  0020f	f3 0f 10 55 bc	 movss	 xmm2, DWORD PTR _vPosTarget$530859[ebp+8]
  00214	66 0f 5a c0	 cvtpd2ps xmm0, xmm0
  00218	0f 5a d2	 cvtps2pd xmm2, xmm2
  0021b	f3 0f 5a c0	 cvtss2sd xmm0, xmm0

; 355  : 		float fLength = D3DXVec3Length( &vDist );

  0021f	f2 0f 59 c0	 mulsd	 xmm0, xmm0
  00223	0f 5a db	 cvtps2pd xmm3, xmm3
  00226	f2 0f 5c d3	 subsd	 xmm2, xmm3
  0022a	0f 5a c9	 cvtps2pd xmm1, xmm1
  0022d	66 0f 5a d2	 cvtpd2ps xmm2, xmm2
  00231	f2 0f 59 c9	 mulsd	 xmm1, xmm1
  00235	f2 0f 58 c8	 addsd	 xmm1, xmm0
  00239	0f 57 c0	 xorps	 xmm0, xmm0
  0023c	f3 0f 5a d2	 cvtss2sd xmm2, xmm2
  00240	f2 0f 59 d2	 mulsd	 xmm2, xmm2
  00244	f2 0f 58 ca	 addsd	 xmm1, xmm2
  00248	66 0f 5a c1	 cvtpd2ps xmm0, xmm1
  0024c	0f 5a c0	 cvtps2pd xmm0, xmm0

; 356  : 		if( fLength > m_fMagneticRange )

  0024f	8d 45 9c	 lea	 eax, DWORD PTR _value$535784[ebp]
  00252	f2 0f 51 c0	 sqrtsd	 xmm0, xmm0
  00256	66 0f 5a c0	 cvtpd2ps xmm0, xmm0
  0025a	50		 push	 eax
  0025b	8d 8e 3c 0a 00
	00		 lea	 ecx, DWORD PTR [esi+2620]
  00261	f3 0f 11 45 94	 movss	 DWORD PTR _fLength$530863[ebp], xmm0
  00266	e8 00 00 00 00	 call	 ?DecryptValueToPool@?$CEncrypt@M@@QAEXPAM@Z ; CEncrypt<float>::DecryptValueToPool
  0026b	f3 0f 10 45 94	 movss	 xmm0, DWORD PTR _fLength$530863[ebp]
  00270	f3 0f 10 55 9c	 movss	 xmm2, DWORD PTR _value$535784[ebp]
  00275	0f 57 c9	 xorps	 xmm1, xmm1
  00278	0f 5a c8	 cvtps2pd xmm1, xmm0
  0027b	0f 5a d2	 cvtps2pd xmm2, xmm2
  0027e	66 0f 2f ca	 comisd	 xmm1, xmm2
  00282	77 1c		 ja	 SHORT $LN104@ProcessBuf

; 357  : 			continue;
; 358  : 
; 359  : 		if( fLastLength > fLength )

  00284	f3 0f 10 4d a4	 movss	 xmm1, DWORD PTR _fLastLength$[ebp]
  00289	0f 57 d2	 xorps	 xmm2, xmm2
  0028c	0f 5a c9	 cvtps2pd xmm1, xmm1
  0028f	0f 5a d0	 cvtps2pd xmm2, xmm0
  00292	66 0f 2f ca	 comisd	 xmm1, xmm2
  00296	76 08		 jbe	 SHORT $LN104@ProcessBuf

; 360  : 		{
; 361  : 			fLastLength = fLength;

  00298	f3 0f 11 45 a4	 movss	 DWORD PTR _fLastLength$[ebp], xmm0

; 362  : 			pSelectTarget = pTarget;

  0029d	89 7d a8	 mov	 DWORD PTR _pSelectTarget$[ebp], edi
$LN104@ProcessBuf:
  002a0	8b 45 a0	 mov	 eax, DWORD PTR _iter$[ebp]
$LN12@ProcessBuf:

; 324  : 		}
; 325  : 		else
; 326  : 			return;
; 327  : 	}
; 328  : 
; 329  : 	ioBaseChar *pSelectTarget = NULL;
; 330  : 	float fLastLength = 10000.0f;
; 331  : 
; 332  : 	const BaseCharList &rkTargetList = pStage->GetBaseCharList();
; 333  : 	BaseCharList::const_iterator iter;
; 334  : 	for( iter = rkTargetList.begin(); iter != rkTargetList.end(); ++iter )

  002a3	8b 4d b0	 mov	 ecx, DWORD PTR _pStage$[ebp]
  002a6	83 c0 04	 add	 eax, 4
  002a9	89 45 a0	 mov	 DWORD PTR _iter$[ebp], eax
  002ac	3b 41 30	 cmp	 eax, DWORD PTR [ecx+48]
  002af	0f 85 35 fe ff
	ff		 jne	 $LL40@ProcessBuf

; 363  : 		}
; 364  : 	}
; 365  : 
; 366  : 	if( pSelectTarget )

  002b5	83 7d a8 00	 cmp	 DWORD PTR _pSelectTarget$[ebp], 0
  002b9	0f 84 88 01 00
	00		 je	 $LN1@ProcessBuf

; 367  : 	{
; 368  : 		D3DXVECTOR3 vPosOwner = pOwner->GetMidPositionByRate();

  002bf	b8 05 00 00 00	 mov	 eax, 5
  002c4	8b c8		 mov	 ecx, eax
  002c6	b8 0a 00 00 00	 mov	 eax, 10			; 0000000aH
  002cb	89 4d b0	 mov	 DWORD PTR tv775[ebp], ecx
  002ce	db 45 b0	 fild	 DWORD PTR tv775[ebp]
  002d1	85 c9		 test	 ecx, ecx
  002d3	79 06		 jns	 SHORT $LN109@ProcessBuf
  002d5	d8 05 00 00 00
	00		 fadd	 DWORD PTR __real@4f800000
$LN109@ProcessBuf:
  002db	89 45 b0	 mov	 DWORD PTR tv771[ebp], eax
  002de	db 45 b0	 fild	 DWORD PTR tv771[ebp]
  002e1	85 c0		 test	 eax, eax
  002e3	79 06		 jns	 SHORT $LN110@ProcessBuf
  002e5	d8 05 00 00 00
	00		 fadd	 DWORD PTR __real@4f800000
$LN110@ProcessBuf:
  002eb	de f9		 fdivp	 ST(1), ST(0)
  002ed	51		 push	 ecx
  002ee	8d 45 e4	 lea	 eax, DWORD PTR _vPosOwner$530867[ebp]
  002f1	8b cb		 mov	 ecx, ebx
  002f3	d9 5d b0	 fstp	 DWORD PTR tv766[ebp]
  002f6	d9 45 b0	 fld	 DWORD PTR tv766[ebp]
  002f9	d9 1c 24	 fstp	 DWORD PTR [esp]
  002fc	50		 push	 eax
  002fd	e8 00 00 00 00	 call	 ?GetMidPositionByRate@ioGameEntity@@QBE?AUD3DXVECTOR3@@M@Z ; ioGameEntity::GetMidPositionByRate

; 369  : 		D3DXVECTOR3 vPosTarget = pSelectTarget->GetMidPositionByRate();

  00302	b8 05 00 00 00	 mov	 eax, 5
  00307	8b c8		 mov	 ecx, eax
  00309	b8 0a 00 00 00	 mov	 eax, 10			; 0000000aH
  0030e	89 4d b0	 mov	 DWORD PTR tv759[ebp], ecx
  00311	db 45 b0	 fild	 DWORD PTR tv759[ebp]
  00314	85 c9		 test	 ecx, ecx
  00316	79 06		 jns	 SHORT $LN111@ProcessBuf
  00318	d8 05 00 00 00
	00		 fadd	 DWORD PTR __real@4f800000
$LN111@ProcessBuf:
  0031e	89 45 b0	 mov	 DWORD PTR tv755[ebp], eax
  00321	db 45 b0	 fild	 DWORD PTR tv755[ebp]
  00324	85 c0		 test	 eax, eax
  00326	79 06		 jns	 SHORT $LN112@ProcessBuf
  00328	d8 05 00 00 00
	00		 fadd	 DWORD PTR __real@4f800000
$LN112@ProcessBuf:
  0032e	de f9		 fdivp	 ST(1), ST(0)
  00330	51		 push	 ecx
  00331	8b 4d a8	 mov	 ecx, DWORD PTR _pSelectTarget$[ebp]
  00334	8d 45 f0	 lea	 eax, DWORD PTR _vPosTarget$530869[ebp]
  00337	d9 5d b0	 fstp	 DWORD PTR tv751[ebp]
  0033a	d9 45 b0	 fld	 DWORD PTR tv751[ebp]
  0033d	d9 1c 24	 fstp	 DWORD PTR [esp]
  00340	50		 push	 eax
  00341	e8 00 00 00 00	 call	 ?GetMidPositionByRate@ioGameEntity@@QBE?AUD3DXVECTOR3@@M@Z ; ioGameEntity::GetMidPositionByRate

; 370  : 
; 371  : 		D3DXVECTOR3 vOwnerDir = vPosTarget - vPosOwner;

  00346	f3 0f 10 45 f0	 movss	 xmm0, DWORD PTR _vPosTarget$530869[ebp]
  0034b	f3 0f 10 4d e4	 movss	 xmm1, DWORD PTR _vPosOwner$530867[ebp]
  00350	0f 5a c0	 cvtps2pd xmm0, xmm0
  00353	0f 5a c9	 cvtps2pd xmm1, xmm1
  00356	f2 0f 5c c1	 subsd	 xmm0, xmm1
  0035a	f3 0f 10 4d e8	 movss	 xmm1, DWORD PTR _vPosOwner$530867[ebp+4]
  0035f	66 0f 5a c0	 cvtpd2ps xmm0, xmm0
  00363	f3 0f 11 45 d8	 movss	 DWORD PTR _vOwnerDir$530871[ebp], xmm0
  00368	f3 0f 10 45 f4	 movss	 xmm0, DWORD PTR _vPosTarget$530869[ebp+4]
  0036d	0f 5a c0	 cvtps2pd xmm0, xmm0
  00370	0f 5a c9	 cvtps2pd xmm1, xmm1
  00373	f2 0f 5c c1	 subsd	 xmm0, xmm1
  00377	f3 0f 10 4d ec	 movss	 xmm1, DWORD PTR _vPosOwner$530867[ebp+8]
  0037c	66 0f 5a c0	 cvtpd2ps xmm0, xmm0
  00380	f3 0f 11 45 dc	 movss	 DWORD PTR _vOwnerDir$530871[ebp+4], xmm0
  00385	f3 0f 10 45 f8	 movss	 xmm0, DWORD PTR _vPosTarget$530869[ebp+8]

; 372  : 		D3DXVec3Normalize( &vOwnerDir, &vOwnerDir );

  0038a	8d 45 d8	 lea	 eax, DWORD PTR _vOwnerDir$530871[ebp]
  0038d	0f 5a c0	 cvtps2pd xmm0, xmm0
  00390	0f 5a c9	 cvtps2pd xmm1, xmm1
  00393	50		 push	 eax
  00394	f2 0f 5c c1	 subsd	 xmm0, xmm1
  00398	66 0f 5a c0	 cvtpd2ps xmm0, xmm0
  0039c	50		 push	 eax
  0039d	f3 0f 11 45 e0	 movss	 DWORD PTR _vOwnerDir$530871[ebp+8], xmm0
  003a2	e8 00 00 00 00	 call	 _D3DXVec3Normalize@8

; 373  : 
; 374  : 		D3DXVECTOR3 vTargetDir = vPosOwner - vPosTarget;

  003a7	f3 0f 10 45 e4	 movss	 xmm0, DWORD PTR _vPosOwner$530867[ebp]
  003ac	f3 0f 10 4d f0	 movss	 xmm1, DWORD PTR _vPosTarget$530869[ebp]
  003b1	0f 5a c0	 cvtps2pd xmm0, xmm0
  003b4	0f 5a c9	 cvtps2pd xmm1, xmm1
  003b7	f2 0f 5c c1	 subsd	 xmm0, xmm1
  003bb	f3 0f 10 4d f4	 movss	 xmm1, DWORD PTR _vPosTarget$530869[ebp+4]
  003c0	66 0f 5a c0	 cvtpd2ps xmm0, xmm0
  003c4	f3 0f 11 45 cc	 movss	 DWORD PTR _vTargetDir$530873[ebp], xmm0
  003c9	f3 0f 10 45 e8	 movss	 xmm0, DWORD PTR _vPosOwner$530867[ebp+4]
  003ce	0f 5a c0	 cvtps2pd xmm0, xmm0
  003d1	0f 5a c9	 cvtps2pd xmm1, xmm1
  003d4	f2 0f 5c c1	 subsd	 xmm0, xmm1
  003d8	f3 0f 10 4d f8	 movss	 xmm1, DWORD PTR _vPosTarget$530869[ebp+8]
  003dd	66 0f 5a c0	 cvtpd2ps xmm0, xmm0
  003e1	f3 0f 11 45 d0	 movss	 DWORD PTR _vTargetDir$530873[ebp+4], xmm0
  003e6	f3 0f 10 45 ec	 movss	 xmm0, DWORD PTR _vPosOwner$530867[ebp+8]

; 375  : 		D3DXVec3Normalize( &vTargetDir, &vTargetDir );

  003eb	8d 45 cc	 lea	 eax, DWORD PTR _vTargetDir$530873[ebp]
  003ee	0f 5a c0	 cvtps2pd xmm0, xmm0
  003f1	0f 5a c9	 cvtps2pd xmm1, xmm1
  003f4	50		 push	 eax
  003f5	f2 0f 5c c1	 subsd	 xmm0, xmm1
  003f9	66 0f 5a c0	 cvtpd2ps xmm0, xmm0
  003fd	50		 push	 eax
  003fe	f3 0f 11 45 d4	 movss	 DWORD PTR _vTargetDir$530873[ebp+8], xmm0
  00403	e8 00 00 00 00	 call	 _D3DXVec3Normalize@8

; 376  : 
; 377  : 		if( pSelectTarget->GetMagnet() == pOwner->GetMagnet() )

  00408	8b 4d a8	 mov	 ecx, DWORD PTR _pSelectTarget$[ebp]
  0040b	e8 00 00 00 00	 call	 ?GetMagnet@ioBaseChar@@QAEHXZ ; ioBaseChar::GetMagnet
  00410	8b cb		 mov	 ecx, ebx
  00412	8b f0		 mov	 esi, eax
  00414	e8 00 00 00 00	 call	 ?GetMagnet@ioBaseChar@@QAEHXZ ; ioBaseChar::GetMagnet

; 378  : 		{
; 379  : 			pOwner->CheckMagneticBuff(vTargetDir, (int)PS_PUSH );

  00419	8b cb		 mov	 ecx, ebx
  0041b	3b f0		 cmp	 esi, eax
  0041d	75 07		 jne	 SHORT $LN2@ProcessBuf
  0041f	6a 00		 push	 0
  00421	8d 75 cc	 lea	 esi, DWORD PTR _vTargetDir$530873[ebp]

; 380  : 			pOwner->SetTargetRotToTargetPos( vPosTarget, false );
; 381  : 			return;

  00424	eb 05		 jmp	 SHORT $LN113@ProcessBuf
$LN2@ProcessBuf:

; 382  : 		}
; 383  : 		else
; 384  : 		{
; 385  : 			pOwner->CheckMagneticBuff(vOwnerDir, (int)PS_PULL );

  00426	6a 01		 push	 1
  00428	8d 75 d8	 lea	 esi, DWORD PTR _vOwnerDir$530871[ebp]
$LN113@ProcessBuf:
  0042b	83 ec 0c	 sub	 esp, 12			; 0000000cH
  0042e	8b fc		 mov	 edi, esp
  00430	a5		 movsd
  00431	a5		 movsd
  00432	a5		 movsd
  00433	e8 00 00 00 00	 call	 ?CheckMagneticBuff@ioBaseChar@@QAE_NUD3DXVECTOR3@@H@Z ; ioBaseChar::CheckMagneticBuff

; 386  : 			pOwner->SetTargetRotToTargetPos( vPosTarget, false );

  00438	6a 00		 push	 0
  0043a	6a 00		 push	 0
  0043c	8d 45 f0	 lea	 eax, DWORD PTR _vPosTarget$530869[ebp]
  0043f	50		 push	 eax
  00440	8b cb		 mov	 ecx, ebx
  00442	e8 00 00 00 00	 call	 ?SetTargetRotToTargetPos@ioBaseChar@@QAEXABUD3DXVECTOR3@@_N1@Z ; ioBaseChar::SetTargetRotToTargetPos
$LN1@ProcessBuf:

; 387  : 			return;
; 388  : 		}
; 389  : 	}
; 390  : }

  00447	8b 4d fc	 mov	 ecx, DWORD PTR __$ArrayPad$[ebp]
  0044a	5f		 pop	 edi
  0044b	5e		 pop	 esi
  0044c	33 cd		 xor	 ecx, ebp
  0044e	5b		 pop	 ebx
  0044f	e8 00 00 00 00	 call	 @__security_check_cookie@4
  00454	c9		 leave
  00455	c3		 ret	 0
?ProcessBuffState@ioMagneticBuff@@IAEXXZ ENDP		; ioMagneticBuff::ProcessBuffState
_TEXT	ENDS
PUBLIC	?SetPush@ioMagneticBuff@@QAEXUD3DXVECTOR3@@H@Z	; ioMagneticBuff::SetPush
EXTRN	?ReserveAddNewBuff@ioBaseChar@@QAEXABVioHashString@@00PAVioSkill@@_N@Z:PROC ; ioBaseChar::ReserveAddNewBuff
EXTRN	__imp_??0ioHashString@@QAE@PBD@Z:PROC
EXTRN	?SetForcePower@ioBaseChar@@QAEXABUD3DXVECTOR3@@MM_N@Z:PROC ; ioBaseChar::SetForcePower
;	COMDAT xdata$x
; File d:\lost saga for developer\youtube\tutorial\source\src\lsclient\iobasechar.h
xdata$x	SEGMENT
__unwindtable$?SetPush@ioMagneticBuff@@QAEXUD3DXVECTOR3@@H@Z DD 0ffffffffH
	DD	FLAT:__unwindfunclet$?SetPush@ioMagneticBuff@@QAEXUD3DXVECTOR3@@H@Z$0
	DD	0ffffffffH
	DD	FLAT:__unwindfunclet$?SetPush@ioMagneticBuff@@QAEXUD3DXVECTOR3@@H@Z$1
__ehfuncinfo$?SetPush@ioMagneticBuff@@QAEXUD3DXVECTOR3@@H@Z DD 019930522H
	DD	02H
	DD	FLAT:__unwindtable$?SetPush@ioMagneticBuff@@QAEXUD3DXVECTOR3@@H@Z
	DD	2 DUP(00H)
	DD	2 DUP(00H)
	DD	00H
	DD	01H
; Function compile flags: /Ogsp
; File d:\lost saga for developer\youtube\tutorial\source\src\lsclient\iomagneticbuff.cpp
xdata$x	ENDS
;	COMDAT ?SetPush@ioMagneticBuff@@QAEXUD3DXVECTOR3@@H@Z
_TEXT	SEGMENT
$T535842 = -56						; size = 16
$T535841 = -40						; size = 16
_value$535853 = -24					; size = 4
_value$535848 = -20					; size = 1
_value$535858 = -16					; size = 4
__$EHRec$ = -12						; size = 12
_vPushDir$ = 8						; size = 12
_iState$ = 20						; size = 4
?SetPush@ioMagneticBuff@@QAEXUD3DXVECTOR3@@H@Z PROC	; ioMagneticBuff::SetPush, COMDAT
; _this$ = ecx

; 401  : {

  00000	6a 2c		 push	 44			; 0000002cH
  00002	b8 00 00 00 00	 mov	 eax, __ehhandler$?SetPush@ioMagneticBuff@@QAEXUD3DXVECTOR3@@H@Z
  00007	e8 00 00 00 00	 call	 __EH_prolog3
  0000c	8b f1		 mov	 esi, ecx

; 402  : 	if( IsOwnerBuff() )

  0000e	e8 00 00 00 00	 call	 ?IsOwnerBuff@ioMagneticBuff@@IAE_NXZ ; ioMagneticBuff::IsOwnerBuff
  00013	84 c0		 test	 al, al
  00015	0f 85 0f 01 00
	00		 jne	 $LN1@SetPush

; 403  : 		return;
; 404  : 
; 405  : 	ioBaseChar *pOwner = GetOwner();

  0001b	8b ce		 mov	 ecx, esi
  0001d	e8 00 00 00 00	 call	 ?GetOwner@ioBuff@@QAEPAVioBaseChar@@XZ ; ioBuff::GetOwner
  00022	8b f8		 mov	 edi, eax

; 406  : 	if( !pOwner )

  00024	85 ff		 test	 edi, edi
  00026	0f 84 fe 00 00
	00		 je	 $LN1@SetPush

; 407  : 		return;
; 408  : 
; 409  : 	pOwner->SetForcePower( vPushDir, m_fPushPower, m_fPushFriction, m_bFrictionLinear );

  0002c	8d 45 ec	 lea	 eax, DWORD PTR _value$535848[ebp]
  0002f	50		 push	 eax
  00030	8d 8e a4 09 00
	00		 lea	 ecx, DWORD PTR [esi+2468]
  00036	e8 00 00 00 00	 call	 ?DecryptValueToPool@?$CEncrypt@_N@@QAEXPA_N@Z ; CEncrypt<bool>::DecryptValueToPool
  0003b	8d 45 e8	 lea	 eax, DWORD PTR _value$535853[ebp]
  0003e	50		 push	 eax
  0003f	8d 8e 74 09 00
	00		 lea	 ecx, DWORD PTR [esi+2420]
  00045	e8 00 00 00 00	 call	 ?DecryptValueToPool@?$CEncrypt@M@@QAEXPAM@Z ; CEncrypt<float>::DecryptValueToPool
  0004a	8d 45 f0	 lea	 eax, DWORD PTR _value$535858[ebp]
  0004d	50		 push	 eax
  0004e	8d 8e d4 09 00
	00		 lea	 ecx, DWORD PTR [esi+2516]
  00054	e8 00 00 00 00	 call	 ?DecryptValueToPool@?$CEncrypt@M@@QAEXPAM@Z ; CEncrypt<float>::DecryptValueToPool
  00059	ff 75 ec	 push	 DWORD PTR _value$535848[ebp]
  0005c	f3 0f 10 45 e8	 movss	 xmm0, DWORD PTR _value$535853[ebp]
  00061	51		 push	 ecx
  00062	51		 push	 ecx
  00063	f3 0f 11 44 24
	04		 movss	 DWORD PTR [esp+4], xmm0
  00069	f3 0f 10 45 f0	 movss	 xmm0, DWORD PTR _value$535858[ebp]
  0006e	8d 45 08	 lea	 eax, DWORD PTR _vPushDir$[ebp]
  00071	f3 0f 11 04 24	 movss	 DWORD PTR [esp], xmm0
  00076	50		 push	 eax
  00077	8b cf		 mov	 ecx, edi
  00079	e8 00 00 00 00	 call	 ?SetForcePower@ioBaseChar@@QAEXABUD3DXVECTOR3@@MM_N@Z ; ioBaseChar::SetForcePower

; 410  : 	m_dwLastPushTime = FRAMEGETTIME();

  0007e	ff 15 00 00 00
	00		 call	 DWORD PTR __imp_?GetSingleton@ioFrameTimer@@SAAAV1@XZ
  00084	8b c8		 mov	 ecx, eax
  00086	ff 15 00 00 00
	00		 call	 DWORD PTR __imp_?GetLoopSec@ioFrameTimer@@QBEKXZ

; 411  : 	m_BuffState = BS_DELAY;

  0008c	33 db		 xor	 ebx, ebx
  0008e	43		 inc	 ebx

; 412  : 
; 413  : 	pOwner->SetState(CS_ETC_STATE);

  0008f	53		 push	 ebx
  00090	6a 0f		 push	 15			; 0000000fH
  00092	8b cf		 mov	 ecx, edi
  00094	89 86 04 0a 00
	00		 mov	 DWORD PTR [esi+2564], eax
  0009a	89 9e 6c 09 00
	00		 mov	 DWORD PTR [esi+2412], ebx
  000a0	e8 00 00 00 00	 call	 ?SetState@ioBaseChar@@QAEXH_N@Z ; ioBaseChar::SetState

; 414  : 	m_iEtcStateCnt = pOwner->GetCurEtcStateCnt();

  000a5	8b 87 ac 19 00
	00		 mov	 eax, DWORD PTR [edi+6572]

; 415  : 
; 416  : 	SetMotion( iState );

  000ab	ff 75 14	 push	 DWORD PTR _iState$[ebp]
  000ae	8b ce		 mov	 ecx, esi
  000b0	89 86 8c 0b 00
	00		 mov	 DWORD PTR [esi+2956], eax
  000b6	e8 00 00 00 00	 call	 ?SetMotion@ioMagneticBuff@@QAEXH@Z ; ioMagneticBuff::SetMotion

; 417  : 
; 418  : 	if( iState == PS_PUSH )

  000bb	83 7d 14 00	 cmp	 DWORD PTR _iState$[ebp], 0

; 419  : 	{
; 420  : 		//pOwner->AddNewBuff( m_TargetBuffOnPush, m_CreateChar, "", NULL );
; 421  : 		pOwner->ReserveAddNewBuff( m_TargetBuffOnPush, m_CreateChar, "", NULL );

  000bf	68 00 00 00 00	 push	 OFFSET ??_C@_00CNPNBAHC@?$AA@
  000c4	75 2e		 jne	 SHORT $LN2@SetPush
  000c6	8d 4d d8	 lea	 ecx, DWORD PTR $T535841[ebp]
  000c9	ff 15 00 00 00
	00		 call	 DWORD PTR __imp_??0ioHashString@@QAE@PBD@Z
  000cf	33 c0		 xor	 eax, eax
  000d1	50		 push	 eax
  000d2	50		 push	 eax
  000d3	89 45 fc	 mov	 DWORD PTR __$EHRec$[ebp+8], eax
  000d6	8d 45 d8	 lea	 eax, DWORD PTR $T535841[ebp]
  000d9	50		 push	 eax
  000da	8d 86 88 02 00
	00		 lea	 eax, DWORD PTR [esi+648]
  000e0	50		 push	 eax
  000e1	81 c6 dc 0a 00
	00		 add	 esi, 2780		; 00000adcH
  000e7	56		 push	 esi
  000e8	8b cf		 mov	 ecx, edi
  000ea	e8 00 00 00 00	 call	 ?ReserveAddNewBuff@ioBaseChar@@QAEXABVioHashString@@00PAVioSkill@@_N@Z ; ioBaseChar::ReserveAddNewBuff
  000ef	8d 4d d8	 lea	 ecx, DWORD PTR $T535841[ebp]

; 422  : 	}
; 423  : 	else

  000f2	eb 2c		 jmp	 SHORT $LN18@SetPush
$LN2@SetPush:

; 424  : 	{
; 425  : 		//pOwner->AddNewBuff( m_TargetBuffOnPull, m_CreateChar, "", NULL );
; 426  : 		pOwner->ReserveAddNewBuff( m_TargetBuffOnPull, m_CreateChar, "", NULL );

  000f4	8d 4d c8	 lea	 ecx, DWORD PTR $T535842[ebp]
  000f7	ff 15 00 00 00
	00		 call	 DWORD PTR __imp_??0ioHashString@@QAE@PBD@Z
  000fd	6a 00		 push	 0
  000ff	6a 00		 push	 0
  00101	8d 45 c8	 lea	 eax, DWORD PTR $T535842[ebp]
  00104	50		 push	 eax
  00105	8d 86 88 02 00
	00		 lea	 eax, DWORD PTR [esi+648]
  0010b	50		 push	 eax
  0010c	81 c6 5c 0b 00
	00		 add	 esi, 2908		; 00000b5cH
  00112	56		 push	 esi
  00113	8b cf		 mov	 ecx, edi
  00115	89 5d fc	 mov	 DWORD PTR __$EHRec$[ebp+8], ebx
  00118	e8 00 00 00 00	 call	 ?ReserveAddNewBuff@ioBaseChar@@QAEXABVioHashString@@00PAVioSkill@@_N@Z ; ioBaseChar::ReserveAddNewBuff
  0011d	8d 4d c8	 lea	 ecx, DWORD PTR $T535842[ebp]
$LN18@SetPush:
  00120	83 4d fc ff	 or	 DWORD PTR __$EHRec$[ebp+8], -1
  00124	ff 15 00 00 00
	00		 call	 DWORD PTR __imp_??1ioHashString@@QAE@XZ
$LN1@SetPush:

; 427  : 	}
; 428  : }

  0012a	e8 00 00 00 00	 call	 __EH_epilog3
  0012f	c2 10 00	 ret	 16			; 00000010H
_TEXT	ENDS
;	COMDAT text$x
text$x	SEGMENT
__unwindfunclet$?SetPush@ioMagneticBuff@@QAEXUD3DXVECTOR3@@H@Z$0:
  00000	8d 4d d8	 lea	 ecx, DWORD PTR $T535841[ebp]
  00003	ff 25 00 00 00
	00		 jmp	 DWORD PTR __imp_??1ioHashString@@QAE@XZ
__unwindfunclet$?SetPush@ioMagneticBuff@@QAEXUD3DXVECTOR3@@H@Z$1:
  00009	8d 4d c8	 lea	 ecx, DWORD PTR $T535842[ebp]
  0000c	ff 25 00 00 00
	00		 jmp	 DWORD PTR __imp_??1ioHashString@@QAE@XZ
__ehhandler$?SetPush@ioMagneticBuff@@QAEXUD3DXVECTOR3@@H@Z:
  00012	8b 54 24 08	 mov	 edx, DWORD PTR [esp+8]
  00016	8d 42 0c	 lea	 eax, DWORD PTR [edx+12]
  00019	8b 4a c4	 mov	 ecx, DWORD PTR [edx-60]
  0001c	33 c8		 xor	 ecx, eax
  0001e	e8 00 00 00 00	 call	 @__security_check_cookie@4
  00023	b8 00 00 00 00	 mov	 eax, OFFSET __ehfuncinfo$?SetPush@ioMagneticBuff@@QAEXUD3DXVECTOR3@@H@Z
  00028	e9 00 00 00 00	 jmp	 ___CxxFrameHandler3
text$x	ENDS
?SetPush@ioMagneticBuff@@QAEXUD3DXVECTOR3@@H@Z ENDP	; ioMagneticBuff::SetPush
EXTRN	?CheckCallingAreaWeapon@ioBuff@@IAEXXZ:PROC	; ioBuff::CheckCallingAreaWeapon
EXTRN	?CheckUseBuffSkill@ioBaseChar@@QAEXABVioHashString@@_N@Z:PROC ; ioBaseChar::CheckUseBuffSkill
EXTRN	?CheckSwitchType@ioBuff@@IAE_NM@Z:PROC		; ioBuff::CheckSwitchType
EXTRN	?GetBuffDuration@ioBuff@@IAEKXZ:PROC		; ioBuff::GetBuffDuration
EXTRN	?CheckCallingProcess@ioBuff@@IAEXXZ:PROC	; ioBuff::CheckCallingProcess
EXTRN	?CheckEnableDelayState@ioBuff@@IAE_NXZ:PROC	; ioBuff::CheckEnableDelayState
; Function compile flags: /Ogsp
;	COMDAT ?ProcessBuff@ioMagneticBuff@@UAEXM@Z
_TEXT	SEGMENT
_value$535877 = 8					; size = 4
_fTimePerSec$ = 8					; size = 4
?ProcessBuff@ioMagneticBuff@@UAEXM@Z PROC		; ioMagneticBuff::ProcessBuff, COMDAT
; _this$ = ecx

; 122  : {

  00000	55		 push	 ebp
  00001	8b ec		 mov	 ebp, esp
  00003	53		 push	 ebx
  00004	56		 push	 esi
  00005	8b f1		 mov	 esi, ecx

; 123  : 	switch( m_iOperationType )

  00007	8b 86 d0 03 00
	00		 mov	 eax, DWORD PTR [esi+976]
  0000d	33 db		 xor	 ebx, ebx
  0000f	2b c3		 sub	 eax, ebx
  00011	0f 84 da 00 00
	00		 je	 $LN2@ProcessBuf@2
  00017	48		 dec	 eax
  00018	74 0a		 je	 SHORT $LN7@ProcessBuf@2
  0001a	48		 dec	 eax
  0001b	74 70		 je	 SHORT $LN10@ProcessBuf@2
  0001d	48		 dec	 eax
  0001e	0f 85 d2 00 00
	00		 jne	 $LN11@ProcessBuf@2
$LN7@ProcessBuf@2:

; 138  : 	case OT_DELAY:
; 139  : 	case OT_ACTIVE:
; 140  : 		{
; 141  : 			if( CheckEnableDelayState() )

  00024	e8 00 00 00 00	 call	 ?CheckEnableDelayState@ioBuff@@IAE_NXZ ; ioBuff::CheckEnableDelayState
  00029	84 c0		 test	 al, al
  0002b	0f 85 d7 00 00
	00		 jne	 $LN1@ProcessBuf@2

; 142  : 				return;
; 143  : 
; 144  : 			CheckCallingProcess();

  00031	8b ce		 mov	 ecx, esi
  00033	e8 00 00 00 00	 call	 ?CheckCallingProcess@ioBuff@@IAEXXZ ; ioBuff::CheckCallingProcess

; 145  : 
; 146  : 			if( GetBuffDuration() == 0 )

  00038	8b ce		 mov	 ecx, esi
  0003a	e8 00 00 00 00	 call	 ?GetBuffDuration@ioBuff@@IAEKXZ ; ioBuff::GetBuffDuration
  0003f	85 c0		 test	 eax, eax
  00041	0f 84 c1 00 00
	00		 je	 $LN1@ProcessBuf@2

; 147  : 				return;
; 148  : 
; 149  : 			if( m_dwBuffEndTime <= FRAMEGETTIME() )

  00047	57		 push	 edi
  00048	ff 15 00 00 00
	00		 call	 DWORD PTR __imp_?GetSingleton@ioFrameTimer@@SAAAV1@XZ
  0004e	8b c8		 mov	 ecx, eax
  00050	ff 15 00 00 00
	00		 call	 DWORD PTR __imp_?GetLoopSec@ioFrameTimer@@QBEKXZ
  00056	8b f8		 mov	 edi, eax
  00058	8d 45 08	 lea	 eax, DWORD PTR _value$535877[ebp]
  0005b	50		 push	 eax
  0005c	8d 8e 9c 03 00
	00		 lea	 ecx, DWORD PTR [esi+924]
  00062	e8 00 00 00 00	 call	 ?DecryptValueToPool@?$CEncrypt@K@@QAEXPAK@Z ; CEncrypt<unsigned long>::DecryptValueToPool
  00067	39 7d 08	 cmp	 DWORD PTR _value$535877[ebp], edi
  0006a	5f		 pop	 edi
  0006b	0f 87 85 00 00
	00		 ja	 $LN11@ProcessBuf@2

; 150  : 			{
; 151  : 				if( CheckRestoreStateCheck() )

  00071	8b ce		 mov	 ecx, esi
  00073	e8 00 00 00 00	 call	 ?CheckRestoreStateCheck@ioMagneticBuff@@IAE_NXZ ; ioMagneticBuff::CheckRestoreStateCheck
  00078	84 c0		 test	 al, al
  0007a	74 52		 je	 SHORT $LN8@ProcessBuf@2

; 152  : 				{
; 153  : 					m_pOwner->SetState( CS_DELAY, m_bSendDelayNetWork );

  0007c	0f b6 86 f9 08
	00 00		 movzx	 eax, BYTE PTR [esi+2297]
  00083	8b 8e 74 02 00
	00		 mov	 ecx, DWORD PTR [esi+628]
  00089	50		 push	 eax
  0008a	53		 push	 ebx

; 154  : 				}
; 155  : 
; 156  : 				m_pOwner->CheckUseBuffSkill( m_Name, false );
; 157  : 				SetReserveEndBuff();
; 158  : 				return;

  0008b	eb 3c		 jmp	 SHORT $LN17@ProcessBuf@2
$LN10@ProcessBuf@2:

; 124  : 	{
; 125  : 	case OT_SWITCH:
; 126  : 		if( !CheckSwitchType( fTimePerSec ) )

  0008d	f3 0f 10 45 08	 movss	 xmm0, DWORD PTR _fTimePerSec$[ebp]
  00092	51		 push	 ecx
  00093	f3 0f 11 04 24	 movss	 DWORD PTR [esp], xmm0
  00098	e8 00 00 00 00	 call	 ?CheckSwitchType@ioBuff@@IAE_NM@Z ; ioBuff::CheckSwitchType

; 127  : 		{
; 128  : 			if( GetOwner() && CheckRestoreStateCheck() )

  0009d	8b ce		 mov	 ecx, esi
  0009f	84 c0		 test	 al, al
  000a1	75 47		 jne	 SHORT $LN9@ProcessBuf@2
  000a3	e8 00 00 00 00	 call	 ?GetOwner@ioBuff@@QAEPAVioBaseChar@@XZ ; ioBuff::GetOwner
  000a8	85 c0		 test	 eax, eax
  000aa	74 22		 je	 SHORT $LN8@ProcessBuf@2
  000ac	8b ce		 mov	 ecx, esi
  000ae	e8 00 00 00 00	 call	 ?CheckRestoreStateCheck@ioMagneticBuff@@IAE_NXZ ; ioMagneticBuff::CheckRestoreStateCheck
  000b3	84 c0		 test	 al, al
  000b5	74 17		 je	 SHORT $LN8@ProcessBuf@2

; 129  : 				GetOwner()->SetState( CS_DELAY, m_bSendDelayNetWork );

  000b7	0f b6 86 f9 08
	00 00		 movzx	 eax, BYTE PTR [esi+2297]
  000be	50		 push	 eax
  000bf	53		 push	 ebx
  000c0	8b ce		 mov	 ecx, esi
  000c2	e8 00 00 00 00	 call	 ?GetOwner@ioBuff@@QAEPAVioBaseChar@@XZ ; ioBuff::GetOwner
  000c7	8b c8		 mov	 ecx, eax
$LN17@ProcessBuf@2:
  000c9	e8 00 00 00 00	 call	 ?SetState@ioBaseChar@@QAEXH_N@Z ; ioBaseChar::SetState
$LN8@ProcessBuf@2:

; 130  : 
; 131  : 			m_pOwner->CheckUseBuffSkill( m_Name, false );

  000ce	8b 8e 74 02 00
	00		 mov	 ecx, DWORD PTR [esi+628]
  000d4	53		 push	 ebx
  000d5	8d 86 34 02 00
	00		 lea	 eax, DWORD PTR [esi+564]
  000db	50		 push	 eax
  000dc	e8 00 00 00 00	 call	 ?CheckUseBuffSkill@ioBaseChar@@QAEXABVioHashString@@_N@Z ; ioBaseChar::CheckUseBuffSkill

; 132  : 			SetReserveEndBuff();

  000e1	8b ce		 mov	 ecx, esi
  000e3	e8 00 00 00 00	 call	 ?SetReserveEndBuff@ioBuff@@QAEXXZ ; ioBuff::SetReserveEndBuff

; 133  : 			return;

  000e8	eb 1e		 jmp	 SHORT $LN1@ProcessBuf@2
$LN9@ProcessBuf@2:

; 134  : 		}
; 135  : 
; 136  : 		CheckCallingProcess();

  000ea	e8 00 00 00 00	 call	 ?CheckCallingProcess@ioBuff@@IAEXXZ ; ioBuff::CheckCallingProcess

; 137  : 		break;

  000ef	eb 05		 jmp	 SHORT $LN11@ProcessBuf@2
$LN2@ProcessBuf@2:

; 159  : 			}
; 160  : 		}
; 161  : 		break;
; 162  : 	case OT_PASSIVE:
; 163  : 		CheckCallingAreaWeapon();

  000f1	e8 00 00 00 00	 call	 ?CheckCallingAreaWeapon@ioBuff@@IAEXXZ ; ioBuff::CheckCallingAreaWeapon
$LN11@ProcessBuf@2:

; 164  : 		break;
; 165  : 	}
; 166  : 
; 167  : 	if( CheckOwnerState() )

  000f6	8b ce		 mov	 ecx, esi
  000f8	e8 00 00 00 00	 call	 ?CheckOwnerState@ioMagneticBuff@@IAE_NXZ ; ioMagneticBuff::CheckOwnerState
  000fd	84 c0		 test	 al, al
  000ff	74 07		 je	 SHORT $LN1@ProcessBuf@2

; 168  : 		ProcessBuffState();

  00101	8b ce		 mov	 ecx, esi
  00103	e8 00 00 00 00	 call	 ?ProcessBuffState@ioMagneticBuff@@IAEXXZ ; ioMagneticBuff::ProcessBuffState
$LN1@ProcessBuf@2:
  00108	5e		 pop	 esi
  00109	5b		 pop	 ebx

; 169  : }

  0010a	5d		 pop	 ebp
  0010b	c2 04 00	 ret	 4
?ProcessBuff@ioMagneticBuff@@UAEXM@Z ENDP		; ioMagneticBuff::ProcessBuff
_TEXT	ENDS
END
