; Listing generated by Microsoft (R) Optimizing Compiler Version 16.00.30319.01 

	TITLE	D:\Lost Saga For Developer\Youtube\Tutorial\Source\src\LSClient\ioMamaHahaDummy.cpp
	.686P
	.XMM
	include listing.inc
	.model	flat

INCLUDELIB MSVCRT
INCLUDELIB OLDNAMES

PUBLIC	?_EEM_DS@?$deque@UD3DXVECTOR3@@V?$allocator@UD3DXVECTOR3@@@std@@@std@@2HB ; std::deque<D3DXVECTOR3,std::allocator<D3DXVECTOR3> >::_EEM_DS
PUBLIC	?_EEM_DS@?$deque@MV?$allocator@M@std@@@std@@2HB	; std::deque<float,std::allocator<float> >::_EEM_DS
PUBLIC	?_VBITS@?$vector@_NV?$allocator@_N@std@@@std@@2HB ; std::vector<bool,std::allocator<bool> >::_VBITS
;	COMDAT ?_VBITS@?$vector@_NV?$allocator@_N@std@@@std@@2HB
CONST	SEGMENT
?_VBITS@?$vector@_NV?$allocator@_N@std@@@std@@2HB DD 020H ; std::vector<bool,std::allocator<bool> >::_VBITS
CONST	ENDS
;	COMDAT ?_EEM_DS@?$deque@MV?$allocator@M@std@@@std@@2HB
CONST	SEGMENT
?_EEM_DS@?$deque@MV?$allocator@M@std@@@std@@2HB DD 04H	; std::deque<float,std::allocator<float> >::_EEM_DS
CONST	ENDS
;	COMDAT ?_EEM_DS@?$deque@UD3DXVECTOR3@@V?$allocator@UD3DXVECTOR3@@@std@@@std@@2HB
CONST	SEGMENT
?_EEM_DS@?$deque@UD3DXVECTOR3@@V?$allocator@UD3DXVECTOR3@@@std@@@std@@2HB DD 01H ; std::deque<D3DXVECTOR3,std::allocator<D3DXVECTOR3> >::_EEM_DS
CONST	ENDS
PUBLIC	?return1@@YAIXZ					; return1
; Function compile flags: /Ogsp
; File d:\lost saga for developer\youtube\tutorial\source\src\lsclient\stdafx.h
;	COMDAT ?return1@@YAIXZ
_TEXT	SEGMENT
?return1@@YAIXZ PROC					; return1, COMDAT

; 17   : 	__forceinline unsigned int return1() { __asm mov eax, 1 };

  00000	b8 01 00 00 00	 mov	 eax, 1
  00005	c3		 ret	 0
?return1@@YAIXZ ENDP					; return1
_TEXT	ENDS
PUBLIC	?return5@@YAIXZ					; return5
; Function compile flags: /Ogsp
;	COMDAT ?return5@@YAIXZ
_TEXT	SEGMENT
?return5@@YAIXZ PROC					; return5, COMDAT

; 18   : 	__forceinline unsigned int return5() { __asm mov eax, 5 };

  00000	b8 05 00 00 00	 mov	 eax, 5
  00005	c3		 ret	 0
?return5@@YAIXZ ENDP					; return5
_TEXT	ENDS
PUBLIC	?return10@@YAIXZ				; return10
; Function compile flags: /Ogsp
;	COMDAT ?return10@@YAIXZ
_TEXT	SEGMENT
?return10@@YAIXZ PROC					; return10, COMDAT

; 21   : 	__forceinline unsigned int return10() { __asm mov eax, 10 };

  00000	b8 0a 00 00 00	 mov	 eax, 10			; 0000000aH
  00005	c3		 ret	 0
?return10@@YAIXZ ENDP					; return10
_TEXT	ENDS
PUBLIC	?return1000@@YAIXZ				; return1000
; Function compile flags: /Ogsp
;	COMDAT ?return1000@@YAIXZ
_TEXT	SEGMENT
?return1000@@YAIXZ PROC					; return1000, COMDAT

; 29   : 	__forceinline unsigned int return1000() { __asm mov eax, 1000 };

  00000	b8 e8 03 00 00	 mov	 eax, 1000		; 000003e8H
  00005	c3		 ret	 0
?return1000@@YAIXZ ENDP					; return1000
_TEXT	ENDS
PUBLIC	?GetState@ioBaseChar@@QBE?AW4CharState@@XZ	; ioBaseChar::GetState
; Function compile flags: /Ogsp
; File d:\lost saga for developer\youtube\tutorial\source\src\lsclient\iobasechar.h
;	COMDAT ?GetState@ioBaseChar@@QBE?AW4CharState@@XZ
_TEXT	SEGMENT
?GetState@ioBaseChar@@QBE?AW4CharState@@XZ PROC		; ioBaseChar::GetState, COMDAT
; _this$ = ecx

; 2156 : 	inline CharState GetState() const { return m_CharState; }	

  00000	8a 81 10 03 00
	00		 mov	 al, BYTE PTR [ecx+784]
  00006	c3		 ret	 0
?GetState@ioBaseChar@@QBE?AW4CharState@@XZ ENDP		; ioBaseChar::GetState
_TEXT	ENDS
PUBLIC	_sqrtf
EXTRN	__fltused:DWORD
EXTRN	__CIsqrt:PROC
; Function compile flags: /Ogsp
; File c:\program files (x86)\microsoft visual studio 10.0\vc\include\math.h
;	COMDAT _sqrtf
_TEXT	SEGMENT
tv69 = 8						; size = 4
__X$ = 8						; size = 4
_sqrtf	PROC						; COMDAT

; 434  :         {return ((float)sqrt((double)_X)); }

  00000	55		 push	 ebp
  00001	8b ec		 mov	 ebp, esp
  00003	d9 45 08	 fld	 DWORD PTR __X$[ebp]
  00006	e8 00 00 00 00	 call	 __CIsqrt
  0000b	d9 5d 08	 fstp	 DWORD PTR tv69[ebp]
  0000e	d9 45 08	 fld	 DWORD PTR tv69[ebp]
  00011	5d		 pop	 ebp
  00012	c3		 ret	 0
_sqrtf	ENDP
_TEXT	ENDS
PUBLIC	?GetCharName@ioBaseChar@@QBEABVioHashString@@XZ	; ioBaseChar::GetCharName
; Function compile flags: /Ogsp
; File d:\lost saga for developer\youtube\tutorial\source\src\lsclient\iobasechar.h
;	COMDAT ?GetCharName@ioBaseChar@@QBEABVioHashString@@XZ
_TEXT	SEGMENT
?GetCharName@ioBaseChar@@QBEABVioHashString@@XZ PROC	; ioBaseChar::GetCharName, COMDAT
; _this$ = ecx

; 2594 : 	inline const ioHashString& GetCharName() const { return m_Name; }

  00000	8d 81 d4 02 00
	00		 lea	 eax, DWORD PTR [ecx+724]
  00006	c3		 ret	 0
?GetCharName@ioBaseChar@@QBEABVioHashString@@XZ ENDP	; ioBaseChar::GetCharName
_TEXT	ENDS
PUBLIC	?GetTargetRot@ioBaseChar@@QBEABUD3DXQUATERNION@@XZ ; ioBaseChar::GetTargetRot
; Function compile flags: /Ogsp
;	COMDAT ?GetTargetRot@ioBaseChar@@QBEABUD3DXQUATERNION@@XZ
_TEXT	SEGMENT
?GetTargetRot@ioBaseChar@@QBEABUD3DXQUATERNION@@XZ PROC	; ioBaseChar::GetTargetRot, COMDAT
; _this$ = ecx

; 2599 : 	inline const D3DXQUATERNION& GetTargetRot() const { return m_qtTargetRot; }

  00000	8d 81 a4 06 00
	00		 lea	 eax, DWORD PTR [ecx+1700]
  00006	c3		 ret	 0
?GetTargetRot@ioBaseChar@@QBEABUD3DXQUATERNION@@XZ ENDP	; ioBaseChar::GetTargetRot
_TEXT	ENDS
PUBLIC	??_7bad_alloc@std@@6B@				; std::bad_alloc::`vftable'
PUBLIC	??0bad_alloc@std@@QAE@PBD@Z			; std::bad_alloc::bad_alloc
PUBLIC	??_R4bad_alloc@std@@6B@				; std::bad_alloc::`RTTI Complete Object Locator'
PUBLIC	??_R0?AVbad_alloc@std@@@8			; std::bad_alloc `RTTI Type Descriptor'
PUBLIC	??_R3bad_alloc@std@@8				; std::bad_alloc::`RTTI Class Hierarchy Descriptor'
PUBLIC	??_R2bad_alloc@std@@8				; std::bad_alloc::`RTTI Base Class Array'
PUBLIC	??_R1A@?0A@EA@bad_alloc@std@@8			; std::bad_alloc::`RTTI Base Class Descriptor at (0,-1,0,64)'
PUBLIC	??_R1A@?0A@EA@exception@std@@8			; std::exception::`RTTI Base Class Descriptor at (0,-1,0,64)'
PUBLIC	??_R0?AVexception@std@@@8			; std::exception `RTTI Type Descriptor'
PUBLIC	??_R3exception@std@@8				; std::exception::`RTTI Class Hierarchy Descriptor'
PUBLIC	??_R2exception@std@@8				; std::exception::`RTTI Base Class Array'
EXTRN	__imp_??0exception@std@@QAE@ABQBD@Z:PROC
EXTRN	??_7type_info@@6B@:QWORD			; type_info::`vftable'
EXTRN	??_Ebad_alloc@std@@UAEPAXI@Z:PROC		; std::bad_alloc::`vector deleting destructor'
EXTRN	?what@exception@std@@UBEPBDXZ:PROC		; std::exception::what
;	COMDAT ??_R2exception@std@@8
; File c:\program files (x86)\microsoft visual studio 10.0\vc\include\exception
rdata$r	SEGMENT
??_R2exception@std@@8 DD FLAT:??_R1A@?0A@EA@exception@std@@8 ; std::exception::`RTTI Base Class Array'
rdata$r	ENDS
;	COMDAT ??_R3exception@std@@8
rdata$r	SEGMENT
??_R3exception@std@@8 DD 00H				; std::exception::`RTTI Class Hierarchy Descriptor'
	DD	00H
	DD	01H
	DD	FLAT:??_R2exception@std@@8
rdata$r	ENDS
;	COMDAT ??_R0?AVexception@std@@@8
_DATA	SEGMENT
??_R0?AVexception@std@@@8 DD FLAT:??_7type_info@@6B@	; std::exception `RTTI Type Descriptor'
	DD	00H
	DB	'.?AVexception@std@@', 00H
_DATA	ENDS
;	COMDAT ??_R1A@?0A@EA@exception@std@@8
rdata$r	SEGMENT
??_R1A@?0A@EA@exception@std@@8 DD FLAT:??_R0?AVexception@std@@@8 ; std::exception::`RTTI Base Class Descriptor at (0,-1,0,64)'
	DD	00H
	DD	00H
	DD	0ffffffffH
	DD	00H
	DD	040H
	DD	FLAT:??_R3exception@std@@8
rdata$r	ENDS
;	COMDAT ??_R1A@?0A@EA@bad_alloc@std@@8
rdata$r	SEGMENT
??_R1A@?0A@EA@bad_alloc@std@@8 DD FLAT:??_R0?AVbad_alloc@std@@@8 ; std::bad_alloc::`RTTI Base Class Descriptor at (0,-1,0,64)'
	DD	01H
	DD	00H
	DD	0ffffffffH
	DD	00H
	DD	040H
	DD	FLAT:??_R3bad_alloc@std@@8
rdata$r	ENDS
;	COMDAT ??_R2bad_alloc@std@@8
rdata$r	SEGMENT
??_R2bad_alloc@std@@8 DD FLAT:??_R1A@?0A@EA@bad_alloc@std@@8 ; std::bad_alloc::`RTTI Base Class Array'
	DD	FLAT:??_R1A@?0A@EA@exception@std@@8
rdata$r	ENDS
;	COMDAT ??_R3bad_alloc@std@@8
rdata$r	SEGMENT
??_R3bad_alloc@std@@8 DD 00H				; std::bad_alloc::`RTTI Class Hierarchy Descriptor'
	DD	00H
	DD	02H
	DD	FLAT:??_R2bad_alloc@std@@8
rdata$r	ENDS
;	COMDAT ??_R0?AVbad_alloc@std@@@8
_DATA	SEGMENT
??_R0?AVbad_alloc@std@@@8 DD FLAT:??_7type_info@@6B@	; std::bad_alloc `RTTI Type Descriptor'
	DD	00H
	DB	'.?AVbad_alloc@std@@', 00H
_DATA	ENDS
;	COMDAT ??_R4bad_alloc@std@@6B@
rdata$r	SEGMENT
??_R4bad_alloc@std@@6B@ DD 00H				; std::bad_alloc::`RTTI Complete Object Locator'
	DD	00H
	DD	00H
	DD	FLAT:??_R0?AVbad_alloc@std@@@8
	DD	FLAT:??_R3bad_alloc@std@@8
rdata$r	ENDS
;	COMDAT ??_7bad_alloc@std@@6B@
CONST	SEGMENT
??_7bad_alloc@std@@6B@ DD FLAT:??_R4bad_alloc@std@@6B@	; std::bad_alloc::`vftable'
	DD	FLAT:??_Ebad_alloc@std@@UAEPAXI@Z
	DD	FLAT:?what@exception@std@@UBEPBDXZ
; Function compile flags: /Ogsp
CONST	ENDS
;	COMDAT ??0bad_alloc@std@@QAE@PBD@Z
_TEXT	SEGMENT
__Message$ = 8						; size = 4
??0bad_alloc@std@@QAE@PBD@Z PROC			; std::bad_alloc::bad_alloc, COMDAT
; _this$ = ecx

; 345  : 		{	// construct from message string

  00000	55		 push	 ebp
  00001	8b ec		 mov	 ebp, esp
  00003	56		 push	 esi
  00004	8d 45 08	 lea	 eax, DWORD PTR __Message$[ebp]
  00007	50		 push	 eax
  00008	8b f1		 mov	 esi, ecx
  0000a	ff 15 00 00 00
	00		 call	 DWORD PTR __imp_??0exception@std@@QAE@ABQBD@Z
  00010	c7 06 00 00 00
	00		 mov	 DWORD PTR [esi], OFFSET ??_7bad_alloc@std@@6B@

; 346  : 		}

  00016	8b c6		 mov	 eax, esi
  00018	5e		 pop	 esi
  00019	5d		 pop	 ebp
  0001a	c2 04 00	 ret	 4
??0bad_alloc@std@@QAE@PBD@Z ENDP			; std::bad_alloc::bad_alloc
_TEXT	ENDS
PUBLIC	??1bad_alloc@std@@UAE@XZ			; std::bad_alloc::~bad_alloc
EXTRN	__imp_??1exception@std@@UAE@XZ:PROC
; Function compile flags: /Ogsp
;	COMDAT ??1bad_alloc@std@@UAE@XZ
_TEXT	SEGMENT
??1bad_alloc@std@@UAE@XZ PROC				; std::bad_alloc::~bad_alloc, COMDAT
; _this$ = ecx

; 354  : 		{	// destroy the object

  00000	c7 01 00 00 00
	00		 mov	 DWORD PTR [ecx], OFFSET ??_7bad_alloc@std@@6B@

; 355  : 		}

  00006	ff 25 00 00 00
	00		 jmp	 DWORD PTR __imp_??1exception@std@@UAE@XZ
??1bad_alloc@std@@UAE@XZ ENDP				; std::bad_alloc::~bad_alloc
_TEXT	ENDS
EXTRN	??3@YAXPAX@Z:PROC				; operator delete
; Function compile flags: /Ogsp
;	COMDAT ??_Gbad_alloc@std@@UAEPAXI@Z
_TEXT	SEGMENT
___flags$ = 8						; size = 4
??_Gbad_alloc@std@@UAEPAXI@Z PROC			; std::bad_alloc::`scalar deleting destructor', COMDAT
; _this$ = ecx
  00000	55		 push	 ebp
  00001	8b ec		 mov	 ebp, esp
  00003	56		 push	 esi
  00004	8b f1		 mov	 esi, ecx
  00006	c7 06 00 00 00
	00		 mov	 DWORD PTR [esi], OFFSET ??_7bad_alloc@std@@6B@
  0000c	ff 15 00 00 00
	00		 call	 DWORD PTR __imp_??1exception@std@@UAE@XZ
  00012	f6 45 08 01	 test	 BYTE PTR ___flags$[ebp], 1
  00016	74 07		 je	 SHORT $LN1@scalar
  00018	56		 push	 esi
  00019	e8 00 00 00 00	 call	 ??3@YAXPAX@Z		; operator delete
  0001e	59		 pop	 ecx
$LN1@scalar:
  0001f	8b c6		 mov	 eax, esi
  00021	5e		 pop	 esi
  00022	5d		 pop	 ebp
  00023	c2 04 00	 ret	 4
??_Gbad_alloc@std@@UAEPAXI@Z ENDP			; std::bad_alloc::`scalar deleting destructor'
_TEXT	ENDS
PUBLIC	??2@YAPAXIPAX@Z					; operator new
; Function compile flags: /Ogsp
; File c:\program files (x86)\microsoft visual studio 10.0\vc\include\new
;	COMDAT ??2@YAPAXIPAX@Z
_TEXT	SEGMENT
___formal$ = 8						; size = 4
__Where$ = 12						; size = 4
??2@YAPAXIPAX@Z PROC					; operator new, COMDAT

; 56   : 	{	// construct array with placement at _Where

  00000	55		 push	 ebp
  00001	8b ec		 mov	 ebp, esp

; 57   : 	return (_Where);

  00003	8b 45 0c	 mov	 eax, DWORD PTR __Where$[ebp]

; 58   : 	}

  00006	5d		 pop	 ebp
  00007	c3		 ret	 0
??2@YAPAXIPAX@Z ENDP					; operator new
_TEXT	ENDS
PUBLIC	??3@YAXPAX0@Z					; operator delete
; Function compile flags: /Ogsp
;	COMDAT ??3@YAXPAX0@Z
_TEXT	SEGMENT
___formal$ = 8						; size = 4
___formal$ = 12						; size = 4
??3@YAXPAX0@Z PROC					; operator delete, COMDAT

; 62   : 	}

  00000	c3		 ret	 0
??3@YAXPAX0@Z ENDP					; operator delete
_TEXT	ENDS
PUBLIC	?length@?$char_traits@D@std@@SAIPBD@Z		; std::char_traits<char>::length
; Function compile flags: /Ogsp
; File c:\program files (x86)\microsoft visual studio 10.0\vc\include\iosfwd
;	COMDAT ?length@?$char_traits@D@std@@SAIPBD@Z
_TEXT	SEGMENT
__First$ = 8						; size = 4
?length@?$char_traits@D@std@@SAIPBD@Z PROC		; std::char_traits<char>::length, COMDAT

; 490  : 		{	// find length of null-terminated string

  00000	55		 push	 ebp
  00001	8b ec		 mov	 ebp, esp

; 491  : 		return (_CSTD strlen(_First));

  00003	8b 45 08	 mov	 eax, DWORD PTR __First$[ebp]
  00006	8d 50 01	 lea	 edx, DWORD PTR [eax+1]
$LL3@length:
  00009	8a 08		 mov	 cl, BYTE PTR [eax]
  0000b	40		 inc	 eax
  0000c	84 c9		 test	 cl, cl
  0000e	75 f9		 jne	 SHORT $LL3@length
  00010	2b c2		 sub	 eax, edx

; 492  : 		}

  00012	5d		 pop	 ebp
  00013	c3		 ret	 0
?length@?$char_traits@D@std@@SAIPBD@Z ENDP		; std::char_traits<char>::length
_TEXT	ENDS
PUBLIC	?copy@?$char_traits@D@std@@SAPADPADPBDI@Z	; std::char_traits<char>::copy
EXTRN	_memcpy:PROC
; Function compile flags: /Ogsp
;	COMDAT ?copy@?$char_traits@D@std@@SAPADPADPBDI@Z
_TEXT	SEGMENT
__First1$ = 8						; size = 4
__First2$ = 12						; size = 4
__Count$ = 16						; size = 4
?copy@?$char_traits@D@std@@SAPADPADPBDI@Z PROC		; std::char_traits<char>::copy, COMDAT

; 496  : 		{	// copy [_First1, _First1 + _Count) to [_First2, ...)

  00000	55		 push	 ebp
  00001	8b ec		 mov	 ebp, esp

; 498  : 		}

  00003	5d		 pop	 ebp

; 497  : 		return ((_Elem *)_CSTD memcpy(_First1, _First2, _Count));

  00004	e9 00 00 00 00	 jmp	 _memcpy
?copy@?$char_traits@D@std@@SAPADPADPBDI@Z ENDP		; std::char_traits<char>::copy
_TEXT	ENDS
PUBLIC	?move@?$char_traits@D@std@@SAPADPADPBDI@Z	; std::char_traits<char>::move
EXTRN	__imp__memmove:PROC
; Function compile flags: /Ogsp
;	COMDAT ?move@?$char_traits@D@std@@SAPADPADPBDI@Z
_TEXT	SEGMENT
__First1$ = 8						; size = 4
__First2$ = 12						; size = 4
__Count$ = 16						; size = 4
?move@?$char_traits@D@std@@SAPADPADPBDI@Z PROC		; std::char_traits<char>::move, COMDAT

; 516  : 		{	// copy [_First1, _First1 + _Count) to [_First2, ...)

  00000	55		 push	 ebp
  00001	8b ec		 mov	 ebp, esp

; 518  : 		}

  00003	5d		 pop	 ebp

; 517  : 		return ((_Elem *)_CSTD memmove(_First1, _First2, _Count));

  00004	ff 25 00 00 00
	00		 jmp	 DWORD PTR __imp__memmove
?move@?$char_traits@D@std@@SAPADPADPBDI@Z ENDP		; std::char_traits<char>::move
_TEXT	ENDS
PUBLIC	?assign@?$char_traits@D@std@@SAXAADABD@Z	; std::char_traits<char>::assign
; Function compile flags: /Ogsp
;	COMDAT ?assign@?$char_traits@D@std@@SAXAADABD@Z
_TEXT	SEGMENT
__Left$ = 8						; size = 4
__Right$ = 12						; size = 4
?assign@?$char_traits@D@std@@SAXAADABD@Z PROC		; std::char_traits<char>::assign, COMDAT

; 526  : 		{	// assign an element

  00000	55		 push	 ebp
  00001	8b ec		 mov	 ebp, esp

; 527  : 		_Left = _Right;

  00003	8b 45 0c	 mov	 eax, DWORD PTR __Right$[ebp]
  00006	8a 00		 mov	 al, BYTE PTR [eax]
  00008	8b 4d 08	 mov	 ecx, DWORD PTR __Left$[ebp]
  0000b	88 01		 mov	 BYTE PTR [ecx], al

; 528  : 		}

  0000d	5d		 pop	 ebp
  0000e	c3		 ret	 0
?assign@?$char_traits@D@std@@SAXAADABD@Z ENDP		; std::char_traits<char>::assign
_TEXT	ENDS
PUBLIC	??_R0?AVioWeapon@@@8				; ioWeapon `RTTI Type Descriptor'
PUBLIC	??_R0?AVioZoneEffectWeapon@@@8			; ioZoneEffectWeapon `RTTI Type Descriptor'
PUBLIC	?ToZoneEffectWeapon@@YAPAVioZoneEffectWeapon@@PAVioWeapon@@@Z ; ToZoneEffectWeapon
EXTRN	___RTDynamicCast:PROC
;	COMDAT ??_R0?AVioWeapon@@@8
; File d:\lost saga for developer\youtube\tutorial\source\src\lsclient\iozoneeffectweapon.h
_DATA	SEGMENT
??_R0?AVioWeapon@@@8 DD FLAT:??_7type_info@@6B@		; ioWeapon `RTTI Type Descriptor'
	DD	00H
	DB	'.?AVioWeapon@@', 00H
_DATA	ENDS
;	COMDAT ??_R0?AVioZoneEffectWeapon@@@8
_DATA	SEGMENT
??_R0?AVioZoneEffectWeapon@@@8 DD FLAT:??_7type_info@@6B@ ; ioZoneEffectWeapon `RTTI Type Descriptor'
	DD	00H
	DB	'.?AVioZoneEffectWeapon@@', 00H
; Function compile flags: /Ogsp
_DATA	ENDS
;	COMDAT ?ToZoneEffectWeapon@@YAPAVioZoneEffectWeapon@@PAVioWeapon@@@Z
_TEXT	SEGMENT
_pWeapon$ = 8						; size = 4
?ToZoneEffectWeapon@@YAPAVioZoneEffectWeapon@@PAVioWeapon@@@Z PROC ; ToZoneEffectWeapon, COMDAT

; 217  : {

  00000	55		 push	 ebp
  00001	8b ec		 mov	 ebp, esp
  00003	56		 push	 esi

; 218  : 	if( !pWeapon || pWeapon->GetType() != ioWeapon::WT_ZONE_EFFECT )

  00004	8b 75 08	 mov	 esi, DWORD PTR _pWeapon$[ebp]
  00007	85 f6		 test	 esi, esi
  00009	74 28		 je	 SHORT $LN1@ToZoneEffe
  0000b	8b 06		 mov	 eax, DWORD PTR [esi]
  0000d	8b ce		 mov	 ecx, esi
  0000f	ff 90 10 01 00
	00		 call	 DWORD PTR [eax+272]
  00015	83 f8 08	 cmp	 eax, 8
  00018	75 19		 jne	 SHORT $LN1@ToZoneEffe

; 220  : 
; 221  : 	return dynamic_cast< ioZoneEffectWeapon* >( pWeapon );

  0001a	6a 00		 push	 0
  0001c	68 00 00 00 00	 push	 OFFSET ??_R0?AVioZoneEffectWeapon@@@8
  00021	68 00 00 00 00	 push	 OFFSET ??_R0?AVioWeapon@@@8
  00026	6a 00		 push	 0
  00028	56		 push	 esi
  00029	e8 00 00 00 00	 call	 ___RTDynamicCast
  0002e	83 c4 14	 add	 esp, 20			; 00000014H
  00031	eb 02		 jmp	 SHORT $LN3@ToZoneEffe
$LN1@ToZoneEffe:

; 219  : 		return NULL;

  00033	33 c0		 xor	 eax, eax
$LN3@ToZoneEffe:
  00035	5e		 pop	 esi

; 222  : }

  00036	5d		 pop	 ebp
  00037	c3		 ret	 0
?ToZoneEffectWeapon@@YAPAVioZoneEffectWeapon@@PAVioWeapon@@@Z ENDP ; ToZoneEffectWeapon
_TEXT	ENDS
PUBLIC	?_Adopt@_Iterator_base0@std@@QAEXPBX@Z		; std::_Iterator_base0::_Adopt
; Function compile flags: /Ogsp
; File c:\program files (x86)\microsoft visual studio 10.0\vc\include\xutility
;	COMDAT ?_Adopt@_Iterator_base0@std@@QAEXPBX@Z
_TEXT	SEGMENT
___formal$ = 8						; size = 4
?_Adopt@_Iterator_base0@std@@QAEXPBX@Z PROC		; std::_Iterator_base0::_Adopt, COMDAT
; _this$ = ecx

; 49   : 		}

  00000	c2 04 00	 ret	 4
?_Adopt@_Iterator_base0@std@@QAEXPBX@Z ENDP		; std::_Iterator_base0::_Adopt
_TEXT	ENDS
PUBLIC	??0D3DXVECTOR3@@QAE@XZ				; D3DXVECTOR3::D3DXVECTOR3
; Function compile flags: /Ogsp
; File c:\program files (x86)\microsoft directx sdk (june 2010)\include\d3dx9math.h
;	COMDAT ??0D3DXVECTOR3@@QAE@XZ
_TEXT	SEGMENT
??0D3DXVECTOR3@@QAE@XZ PROC				; D3DXVECTOR3::D3DXVECTOR3, COMDAT
; _this$ = ecx

; 165  :     D3DXVECTOR3() {};

  00000	8b c1		 mov	 eax, ecx
  00002	c3		 ret	 0
??0D3DXVECTOR3@@QAE@XZ ENDP				; D3DXVECTOR3::D3DXVECTOR3
_TEXT	ENDS
PUBLIC	??0D3DXQUATERNION@@QAE@XZ			; D3DXQUATERNION::D3DXQUATERNION
; Function compile flags: /Ogsp
;	COMDAT ??0D3DXQUATERNION@@QAE@XZ
_TEXT	SEGMENT
??0D3DXQUATERNION@@QAE@XZ PROC				; D3DXQUATERNION::D3DXQUATERNION, COMDAT
; _this$ = ecx

; 429  :     D3DXQUATERNION() {}

  00000	8b c1		 mov	 eax, ecx
  00002	c3		 ret	 0
??0D3DXQUATERNION@@QAE@XZ ENDP				; D3DXQUATERNION::D3DXQUATERNION
_TEXT	ENDS
PUBLIC	??0D3DXVECTOR3@@QAE@MMM@Z			; D3DXVECTOR3::D3DXVECTOR3
; Function compile flags: /Ogsp
; File c:\program files (x86)\microsoft directx sdk (june 2010)\include\d3dx9math.inl
;	COMDAT ??0D3DXVECTOR3@@QAE@MMM@Z
_TEXT	SEGMENT
_fx$ = 8						; size = 4
_fy$ = 12						; size = 4
_fz$ = 16						; size = 4
??0D3DXVECTOR3@@QAE@MMM@Z PROC				; D3DXVECTOR3::D3DXVECTOR3, COMDAT
; _this$ = ecx

; 303  : {

  00000	55		 push	 ebp
  00001	8b ec		 mov	 ebp, esp

; 304  :     x = fx;

  00003	f3 0f 10 45 08	 movss	 xmm0, DWORD PTR _fx$[ebp]
  00008	8b c1		 mov	 eax, ecx
  0000a	f3 0f 11 00	 movss	 DWORD PTR [eax], xmm0

; 305  :     y = fy;

  0000e	f3 0f 10 45 0c	 movss	 xmm0, DWORD PTR _fy$[ebp]
  00013	f3 0f 11 40 04	 movss	 DWORD PTR [eax+4], xmm0

; 306  :     z = fz;

  00018	f3 0f 10 45 10	 movss	 xmm0, DWORD PTR _fz$[ebp]
  0001d	f3 0f 11 40 08	 movss	 DWORD PTR [eax+8], xmm0

; 307  : }

  00022	5d		 pop	 ebp
  00023	c2 0c 00	 ret	 12			; 0000000cH
??0D3DXVECTOR3@@QAE@MMM@Z ENDP				; D3DXVECTOR3::D3DXVECTOR3
_TEXT	ENDS
PUBLIC	__mask@@NegFloat@
PUBLIC	??GD3DXVECTOR3@@QBE?AU0@XZ			; D3DXVECTOR3::operator-
;	COMDAT __mask@@NegFloat@
CONST	SEGMENT
__mask@@NegFloat@ DB 00H, 00H, 00H, 080H, 00H, 00H, 00H, 080H, 00H, 00H, 00H
	DB	080H, 00H, 00H, 00H, 080H
; Function compile flags: /Ogsp
CONST	ENDS
;	COMDAT ??GD3DXVECTOR3@@QBE?AU0@XZ
_TEXT	SEGMENT
___$ReturnUdt$ = 8					; size = 4
??GD3DXVECTOR3@@QBE?AU0@XZ PROC				; D3DXVECTOR3::operator-, COMDAT
; _this$ = ecx

; 372  : {

  00000	55		 push	 ebp
  00001	8b ec		 mov	 ebp, esp

; 373  :     return D3DXVECTOR3(-x, -y, -z);

  00003	f3 0f 10 05 00
	00 00 00	 movss	 xmm0, DWORD PTR __mask@@NegFloat@
  0000b	8b 45 08	 mov	 eax, DWORD PTR ___$ReturnUdt$[ebp]
  0000e	f3 0f 10 09	 movss	 xmm1, DWORD PTR [ecx]
  00012	0f 57 c8	 xorps	 xmm1, xmm0
  00015	f3 0f 11 08	 movss	 DWORD PTR [eax], xmm1
  00019	f3 0f 10 49 04	 movss	 xmm1, DWORD PTR [ecx+4]
  0001e	0f 57 c8	 xorps	 xmm1, xmm0
  00021	f3 0f 11 48 04	 movss	 DWORD PTR [eax+4], xmm1
  00026	f3 0f 10 49 08	 movss	 xmm1, DWORD PTR [ecx+8]
  0002b	0f 57 c8	 xorps	 xmm1, xmm0
  0002e	f3 0f 11 48 08	 movss	 DWORD PTR [eax+8], xmm1

; 374  : }

  00033	5d		 pop	 ebp
  00034	c2 04 00	 ret	 4
??GD3DXVECTOR3@@QBE?AU0@XZ ENDP				; D3DXVECTOR3::operator-
_TEXT	ENDS
PUBLIC	??HD3DXVECTOR3@@QBE?AU0@ABU0@@Z			; D3DXVECTOR3::operator+
; Function compile flags: /Ogsp
;	COMDAT ??HD3DXVECTOR3@@QBE?AU0@ABU0@@Z
_TEXT	SEGMENT
___$ReturnUdt$ = 8					; size = 4
_v$ = 12						; size = 4
??HD3DXVECTOR3@@QBE?AU0@ABU0@@Z PROC			; D3DXVECTOR3::operator+, COMDAT
; _this$ = ecx

; 380  : {

  00000	55		 push	 ebp
  00001	8b ec		 mov	 ebp, esp

; 381  :     return D3DXVECTOR3(x + v.x, y + v.y, z + v.z);

  00003	8b 55 0c	 mov	 edx, DWORD PTR _v$[ebp]
  00006	f3 0f 10 02	 movss	 xmm0, DWORD PTR [edx]
  0000a	f3 0f 10 09	 movss	 xmm1, DWORD PTR [ecx]
  0000e	8b 45 08	 mov	 eax, DWORD PTR ___$ReturnUdt$[ebp]
  00011	0f 5a c0	 cvtps2pd xmm0, xmm0
  00014	0f 5a c9	 cvtps2pd xmm1, xmm1
  00017	f2 0f 58 c1	 addsd	 xmm0, xmm1
  0001b	f3 0f 10 49 04	 movss	 xmm1, DWORD PTR [ecx+4]
  00020	66 0f 5a c0	 cvtpd2ps xmm0, xmm0
  00024	f3 0f 11 00	 movss	 DWORD PTR [eax], xmm0
  00028	f3 0f 10 42 04	 movss	 xmm0, DWORD PTR [edx+4]
  0002d	0f 5a c0	 cvtps2pd xmm0, xmm0
  00030	0f 5a c9	 cvtps2pd xmm1, xmm1
  00033	f2 0f 58 c1	 addsd	 xmm0, xmm1
  00037	f3 0f 10 49 08	 movss	 xmm1, DWORD PTR [ecx+8]
  0003c	66 0f 5a c0	 cvtpd2ps xmm0, xmm0
  00040	f3 0f 11 40 04	 movss	 DWORD PTR [eax+4], xmm0
  00045	f3 0f 10 42 08	 movss	 xmm0, DWORD PTR [edx+8]
  0004a	0f 5a c0	 cvtps2pd xmm0, xmm0
  0004d	0f 5a c9	 cvtps2pd xmm1, xmm1
  00050	f2 0f 58 c1	 addsd	 xmm0, xmm1
  00054	66 0f 5a c0	 cvtpd2ps xmm0, xmm0
  00058	f3 0f 11 40 08	 movss	 DWORD PTR [eax+8], xmm0

; 382  : }

  0005d	5d		 pop	 ebp
  0005e	c2 08 00	 ret	 8
??HD3DXVECTOR3@@QBE?AU0@ABU0@@Z ENDP			; D3DXVECTOR3::operator+
_TEXT	ENDS
PUBLIC	??GD3DXVECTOR3@@QBE?AU0@ABU0@@Z			; D3DXVECTOR3::operator-
; Function compile flags: /Ogsp
;	COMDAT ??GD3DXVECTOR3@@QBE?AU0@ABU0@@Z
_TEXT	SEGMENT
___$ReturnUdt$ = 8					; size = 4
_v$ = 12						; size = 4
??GD3DXVECTOR3@@QBE?AU0@ABU0@@Z PROC			; D3DXVECTOR3::operator-, COMDAT
; _this$ = ecx

; 386  : {

  00000	55		 push	 ebp
  00001	8b ec		 mov	 ebp, esp

; 387  :     return D3DXVECTOR3(x - v.x, y - v.y, z - v.z);

  00003	8b 55 0c	 mov	 edx, DWORD PTR _v$[ebp]
  00006	f3 0f 10 01	 movss	 xmm0, DWORD PTR [ecx]
  0000a	f3 0f 10 0a	 movss	 xmm1, DWORD PTR [edx]
  0000e	8b 45 08	 mov	 eax, DWORD PTR ___$ReturnUdt$[ebp]
  00011	0f 5a c0	 cvtps2pd xmm0, xmm0
  00014	0f 5a c9	 cvtps2pd xmm1, xmm1
  00017	f2 0f 5c c1	 subsd	 xmm0, xmm1
  0001b	f3 0f 10 4a 04	 movss	 xmm1, DWORD PTR [edx+4]
  00020	66 0f 5a c0	 cvtpd2ps xmm0, xmm0
  00024	f3 0f 11 00	 movss	 DWORD PTR [eax], xmm0
  00028	f3 0f 10 41 04	 movss	 xmm0, DWORD PTR [ecx+4]
  0002d	0f 5a c0	 cvtps2pd xmm0, xmm0
  00030	0f 5a c9	 cvtps2pd xmm1, xmm1
  00033	f2 0f 5c c1	 subsd	 xmm0, xmm1
  00037	f3 0f 10 4a 08	 movss	 xmm1, DWORD PTR [edx+8]
  0003c	66 0f 5a c0	 cvtpd2ps xmm0, xmm0
  00040	f3 0f 11 40 04	 movss	 DWORD PTR [eax+4], xmm0
  00045	f3 0f 10 41 08	 movss	 xmm0, DWORD PTR [ecx+8]
  0004a	0f 5a c0	 cvtps2pd xmm0, xmm0
  0004d	0f 5a c9	 cvtps2pd xmm1, xmm1
  00050	f2 0f 5c c1	 subsd	 xmm0, xmm1
  00054	66 0f 5a c0	 cvtpd2ps xmm0, xmm0
  00058	f3 0f 11 40 08	 movss	 DWORD PTR [eax+8], xmm0

; 388  : }

  0005d	5d		 pop	 ebp
  0005e	c2 08 00	 ret	 8
??GD3DXVECTOR3@@QBE?AU0@ABU0@@Z ENDP			; D3DXVECTOR3::operator-
_TEXT	ENDS
PUBLIC	??D@YA?AUD3DXVECTOR3@@MABU0@@Z			; operator*
; Function compile flags: /Ogsp
;	COMDAT ??D@YA?AUD3DXVECTOR3@@MABU0@@Z
_TEXT	SEGMENT
___$ReturnUdt$ = 8					; size = 4
_f$ = 12						; size = 4
_v$ = 16						; size = 4
??D@YA?AUD3DXVECTOR3@@MABU0@@Z PROC			; operator*, COMDAT

; 406  : {

  00000	55		 push	 ebp
  00001	8b ec		 mov	 ebp, esp

; 407  :     return D3DXVECTOR3(f * v.x, f * v.y, f * v.z);

  00003	8b 4d 10	 mov	 ecx, DWORD PTR _v$[ebp]
  00006	f3 0f 10 4d 0c	 movss	 xmm1, DWORD PTR _f$[ebp]
  0000b	f3 0f 10 01	 movss	 xmm0, DWORD PTR [ecx]
  0000f	8b 45 08	 mov	 eax, DWORD PTR ___$ReturnUdt$[ebp]
  00012	0f 5a c0	 cvtps2pd xmm0, xmm0
  00015	0f 5a c9	 cvtps2pd xmm1, xmm1
  00018	f2 0f 59 c1	 mulsd	 xmm0, xmm1
  0001c	f3 0f 10 4d 0c	 movss	 xmm1, DWORD PTR _f$[ebp]
  00021	66 0f 5a c0	 cvtpd2ps xmm0, xmm0
  00025	f3 0f 11 00	 movss	 DWORD PTR [eax], xmm0
  00029	f3 0f 10 41 04	 movss	 xmm0, DWORD PTR [ecx+4]
  0002e	0f 5a c0	 cvtps2pd xmm0, xmm0
  00031	0f 5a c9	 cvtps2pd xmm1, xmm1
  00034	f2 0f 59 c1	 mulsd	 xmm0, xmm1
  00038	f3 0f 10 4d 0c	 movss	 xmm1, DWORD PTR _f$[ebp]
  0003d	66 0f 5a c0	 cvtpd2ps xmm0, xmm0
  00041	f3 0f 11 40 04	 movss	 DWORD PTR [eax+4], xmm0
  00046	f3 0f 10 41 08	 movss	 xmm0, DWORD PTR [ecx+8]
  0004b	0f 5a c0	 cvtps2pd xmm0, xmm0
  0004e	0f 5a c9	 cvtps2pd xmm1, xmm1
  00051	f2 0f 59 c1	 mulsd	 xmm0, xmm1
  00055	66 0f 5a c0	 cvtpd2ps xmm0, xmm0
  00059	f3 0f 11 40 08	 movss	 DWORD PTR [eax+8], xmm0

; 408  : }

  0005e	5d		 pop	 ebp
  0005f	c3		 ret	 0
??D@YA?AUD3DXVECTOR3@@MABU0@@Z ENDP			; operator*
_TEXT	ENDS
PUBLIC	?D3DXVec3Length@@YAMPBUD3DXVECTOR3@@@Z		; D3DXVec3Length
; Function compile flags: /Ogsp
;	COMDAT ?D3DXVec3Length@@YAMPBUD3DXVECTOR3@@@Z
_TEXT	SEGMENT
tv169 = 8						; size = 4
tv160 = 8						; size = 4
_pV$ = 8						; size = 4
?D3DXVec3Length@@YAMPBUD3DXVECTOR3@@@Z PROC		; D3DXVec3Length, COMDAT

; 1710 : {

  00000	55		 push	 ebp
  00001	8b ec		 mov	 ebp, esp

; 1711 : #ifdef D3DX_DEBUG
; 1712 :     if(!pV)
; 1713 :         return 0.0f;
; 1714 : #endif
; 1715 : 
; 1716 : #ifdef __cplusplus
; 1717 :     return sqrtf(pV->x * pV->x + pV->y * pV->y + pV->z * pV->z);

  00003	8b 45 08	 mov	 eax, DWORD PTR _pV$[ebp]
  00006	d9 40 04	 fld	 DWORD PTR [eax+4]
  00009	d9 00		 fld	 DWORD PTR [eax]
  0000b	d9 40 08	 fld	 DWORD PTR [eax+8]
  0000e	d9 c1		 fld	 ST(1)
  00010	de ca		 fmulp	 ST(2), ST(0)
  00012	d9 c2		 fld	 ST(2)
  00014	de cb		 fmulp	 ST(3), ST(0)
  00016	d9 c9		 fxch	 ST(1)
  00018	de c2		 faddp	 ST(2), ST(0)
  0001a	d9 c0		 fld	 ST(0)
  0001c	de c9		 fmulp	 ST(1), ST(0)
  0001e	de c1		 faddp	 ST(1), ST(0)
  00020	d9 5d 08	 fstp	 DWORD PTR tv169[ebp]
  00023	d9 45 08	 fld	 DWORD PTR tv169[ebp]
  00026	e8 00 00 00 00	 call	 __CIsqrt
  0002b	d9 5d 08	 fstp	 DWORD PTR tv160[ebp]
  0002e	d9 45 08	 fld	 DWORD PTR tv160[ebp]

; 1718 : #else
; 1719 :     return (FLOAT) sqrt(pV->x * pV->x + pV->y * pV->y + pV->z * pV->z);
; 1720 : #endif
; 1721 : }

  00031	5d		 pop	 ebp
  00032	c3		 ret	 0
?D3DXVec3Length@@YAMPBUD3DXVECTOR3@@@Z ENDP		; D3DXVec3Length
_TEXT	ENDS
PUBLIC	?D3DXVec3Cross@@YAPAUD3DXVECTOR3@@PAU1@PBU1@1@Z	; D3DXVec3Cross
; Function compile flags: /Ogsp
;	COMDAT ?D3DXVec3Cross@@YAPAUD3DXVECTOR3@@PAU1@PBU1@1@Z
_TEXT	SEGMENT
_v$ = -12						; size = 12
_pOut$ = 8						; size = 4
_pV1$ = 12						; size = 4
_pV2$ = 16						; size = 4
?D3DXVec3Cross@@YAPAUD3DXVECTOR3@@PAU1@PBU1@1@Z PROC	; D3DXVec3Cross, COMDAT

; 1747 : {

  00000	55		 push	 ebp
  00001	8b ec		 mov	 ebp, esp
  00003	83 ec 0c	 sub	 esp, 12			; 0000000cH

; 1757 :     v.z = pV1->x * pV2->y - pV1->y * pV2->x;
; 1758 : 
; 1759 :     *pOut = v;

  00006	56		 push	 esi
  00007	57		 push	 edi

; 1748 :     D3DXVECTOR3 v;
; 1749 : 
; 1750 : #ifdef D3DX_DEBUG
; 1751 :     if(!pOut || !pV1 || !pV2)
; 1752 :         return NULL;
; 1753 : #endif
; 1754 : 
; 1755 :     v.x = pV1->y * pV2->z - pV1->z * pV2->y;

  00008	8b 45 0c	 mov	 eax, DWORD PTR _pV1$[ebp]
  0000b	f3 0f 10 40 04	 movss	 xmm0, DWORD PTR [eax+4]
  00010	f3 0f 10 50 08	 movss	 xmm2, DWORD PTR [eax+8]
  00015	8b 4d 10	 mov	 ecx, DWORD PTR _pV2$[ebp]
  00018	f3 0f 10 49 08	 movss	 xmm1, DWORD PTR [ecx+8]
  0001d	f3 0f 10 59 04	 movss	 xmm3, DWORD PTR [ecx+4]
  00022	0f 5a e8	 cvtps2pd xmm5, xmm0
  00025	0f 5a e1	 cvtps2pd xmm4, xmm1
  00028	0f 5a f2	 cvtps2pd xmm6, xmm2
  0002b	f2 0f 59 e5	 mulsd	 xmm4, xmm5

; 1756 :     v.y = pV1->z * pV2->x - pV1->x * pV2->z;

  0002f	0f 5a d2	 cvtps2pd xmm2, xmm2
  00032	0f 5a c9	 cvtps2pd xmm1, xmm1
  00035	0f 5a eb	 cvtps2pd xmm5, xmm3
  00038	f2 0f 59 ee	 mulsd	 xmm5, xmm6
  0003c	f2 0f 5c e5	 subsd	 xmm4, xmm5
  00040	f3 0f 10 28	 movss	 xmm5, DWORD PTR [eax]

; 1757 :     v.z = pV1->x * pV2->y - pV1->y * pV2->x;
; 1758 : 
; 1759 :     *pOut = v;

  00044	8b 45 08	 mov	 eax, DWORD PTR _pOut$[ebp]
  00047	66 0f 5a e4	 cvtpd2ps xmm4, xmm4
  0004b	f3 0f 11 65 f4	 movss	 DWORD PTR _v$[ebp], xmm4
  00050	f3 0f 10 21	 movss	 xmm4, DWORD PTR [ecx]
  00054	0f 5a f4	 cvtps2pd xmm6, xmm4
  00057	f2 0f 59 f2	 mulsd	 xmm6, xmm2
  0005b	0f 5a d5	 cvtps2pd xmm2, xmm5
  0005e	f2 0f 59 d1	 mulsd	 xmm2, xmm1
  00062	f2 0f 5c f2	 subsd	 xmm6, xmm2
  00066	66 0f 5a ce	 cvtpd2ps xmm1, xmm6
  0006a	f3 0f 11 4d f8	 movss	 DWORD PTR _v$[ebp+4], xmm1
  0006f	0f 5a c0	 cvtps2pd xmm0, xmm0
  00072	0f 5a d3	 cvtps2pd xmm2, xmm3
  00075	0f 5a cd	 cvtps2pd xmm1, xmm5
  00078	f2 0f 59 ca	 mulsd	 xmm1, xmm2
  0007c	8d 75 f4	 lea	 esi, DWORD PTR _v$[ebp]
  0007f	8b f8		 mov	 edi, eax
  00081	0f 5a d4	 cvtps2pd xmm2, xmm4
  00084	f2 0f 59 d0	 mulsd	 xmm2, xmm0
  00088	f2 0f 5c ca	 subsd	 xmm1, xmm2
  0008c	66 0f 5a c1	 cvtpd2ps xmm0, xmm1
  00090	f3 0f 11 45 fc	 movss	 DWORD PTR _v$[ebp+8], xmm0
  00095	a5		 movsd
  00096	a5		 movsd
  00097	a5		 movsd
  00098	5f		 pop	 edi
  00099	5e		 pop	 esi

; 1760 :     return pOut;
; 1761 : }

  0009a	c9		 leave
  0009b	c3		 ret	 0
?D3DXVec3Cross@@YAPAUD3DXVECTOR3@@PAU1@PBU1@1@Z ENDP	; D3DXVec3Cross
_TEXT	ENDS
PUBLIC	?CheckMamaHahaOwnerVisible@ioMamaHahaDummy@@IAE_NXZ ; ioMamaHahaDummy::CheckMamaHahaOwnerVisible
EXTRN	?HasHideBuff@ioBaseChar@@QAE?B_NXZ:PROC		; ioBaseChar::HasHideBuff
EXTRN	?IsCanInvisible@ioBaseChar@@QAE_NXZ:PROC	; ioBaseChar::IsCanInvisible
EXTRN	?IsVisibleChar@ioBaseChar@@QAE_NXZ:PROC		; ioBaseChar::IsVisibleChar
EXTRN	?GetOwner@ioDummyChar@@QBEPAVioBaseChar@@XZ:PROC ; ioDummyChar::GetOwner
; Function compile flags: /Ogsp
; File d:\lost saga for developer\youtube\tutorial\source\src\lsclient\iomamahahadummy.cpp
;	COMDAT ?CheckMamaHahaOwnerVisible@ioMamaHahaDummy@@IAE_NXZ
_TEXT	SEGMENT
?CheckMamaHahaOwnerVisible@ioMamaHahaDummy@@IAE_NXZ PROC ; ioMamaHahaDummy::CheckMamaHahaOwnerVisible, COMDAT
; _this$ = ecx

; 104  : {

  00000	56		 push	 esi

; 105  : 	ioBaseChar *pOwner = GetOwner();

  00001	e8 00 00 00 00	 call	 ?GetOwner@ioDummyChar@@QBEPAVioBaseChar@@XZ ; ioDummyChar::GetOwner
  00006	8b f0		 mov	 esi, eax

; 106  : 	if( !pOwner ) return false;

  00008	85 f6		 test	 esi, esi
  0000a	75 04		 jne	 SHORT $LN3@CheckMamaH
  0000c	32 c0		 xor	 al, al
  0000e	5e		 pop	 esi

; 117  : }

  0000f	c3		 ret	 0
$LN3@CheckMamaH:
  00010	53		 push	 ebx

; 107  : 
; 108  : 	bool bCharVisible = pOwner->IsVisibleChar();

  00011	8b ce		 mov	 ecx, esi
  00013	e8 00 00 00 00	 call	 ?IsVisibleChar@ioBaseChar@@QAE_NXZ ; ioBaseChar::IsVisibleChar

; 109  : 
; 110  : 	if( pOwner->IsCanInvisible() )

  00018	8b ce		 mov	 ecx, esi
  0001a	8a d8		 mov	 bl, al
  0001c	e8 00 00 00 00	 call	 ?IsCanInvisible@ioBaseChar@@QAE_NXZ ; ioBaseChar::IsCanInvisible
  00021	84 c0		 test	 al, al
  00023	74 02		 je	 SHORT $LN2@CheckMamaH

; 111  : 		bCharVisible = false;

  00025	32 db		 xor	 bl, bl
$LN2@CheckMamaH:

; 112  : 
; 113  : 	if( pOwner->HasHideBuff() )

  00027	8b ce		 mov	 ecx, esi
  00029	e8 00 00 00 00	 call	 ?HasHideBuff@ioBaseChar@@QAE?B_NXZ ; ioBaseChar::HasHideBuff
  0002e	84 c0		 test	 al, al
  00030	74 02		 je	 SHORT $LN1@CheckMamaH

; 114  : 		bCharVisible = false;

  00032	32 db		 xor	 bl, bl
$LN1@CheckMamaH:

; 115  : 
; 116  : 	return bCharVisible;

  00034	8a c3		 mov	 al, bl
  00036	5b		 pop	 ebx
  00037	5e		 pop	 esi

; 117  : }

  00038	c3		 ret	 0
?CheckMamaHahaOwnerVisible@ioMamaHahaDummy@@IAE_NXZ ENDP ; ioMamaHahaDummy::CheckMamaHahaOwnerVisible
_TEXT	ENDS
PUBLIC	?CheckMamaHahaVisible@ioMamaHahaDummy@@IAEXXZ	; ioMamaHahaDummy::CheckMamaHahaVisible
; Function compile flags: /Ogsp
;	COMDAT ?CheckMamaHahaVisible@ioMamaHahaDummy@@IAEXXZ
_TEXT	SEGMENT
?CheckMamaHahaVisible@ioMamaHahaDummy@@IAEXXZ PROC	; ioMamaHahaDummy::CheckMamaHahaVisible, COMDAT
; _this$ = ecx

; 120  : {

  00000	56		 push	 esi
  00001	8b f1		 mov	 esi, ecx

; 121  : 	ioBaseChar *pOwner = GetOwner();

  00003	e8 00 00 00 00	 call	 ?GetOwner@ioDummyChar@@QBEPAVioBaseChar@@XZ ; ioDummyChar::GetOwner

; 122  : 	if( !pOwner ) return;

  00008	85 c0		 test	 eax, eax
  0000a	74 38		 je	 SHORT $LN1@CheckMamaH@2

; 123  : 
; 124  : 	bool bCharVisible = CheckMamaHahaOwnerVisible();

  0000c	53		 push	 ebx
  0000d	8b ce		 mov	 ecx, esi
  0000f	e8 00 00 00 00	 call	 ?CheckMamaHahaOwnerVisible@ioMamaHahaDummy@@IAE_NXZ ; ioMamaHahaDummy::CheckMamaHahaOwnerVisible

; 125  : 	bool bDummyVisible = m_pGroup->IsVisible();

  00014	8b 4e 04	 mov	 ecx, DWORD PTR [esi+4]
  00017	8a d8		 mov	 bl, al
  00019	8b 01		 mov	 eax, DWORD PTR [ecx]
  0001b	ff 50 0c	 call	 DWORD PTR [eax+12]

; 126  : 
; 127  : 	switch( m_State )

  0001e	8b 8e 30 02 00
	00		 mov	 ecx, DWORD PTR [esi+560]
  00024	49		 dec	 ecx
  00025	83 f9 02	 cmp	 ecx, 2
  00028	77 0c		 ja	 SHORT $LN2@CheckMamaH@2

; 128  : 	{
; 129  : 	case DCS_START:
; 130  : 	case DCS_DELAY:
; 131  : 	case DCS_MOVE:
; 132  : 		if( bCharVisible && !bDummyVisible )

  0002a	84 db		 test	 bl, bl

; 133  : 			m_pGroup->SetVisible( true );

  0002c	75 08		 jne	 SHORT $LN2@CheckMamaH@2

; 134  : 		else if( !bCharVisible && bDummyVisible )

  0002e	84 c0		 test	 al, al
  00030	74 11		 je	 SHORT $LN13@CheckMamaH@2

; 135  : 			m_pGroup->SetVisible( false );

  00032	6a 00		 push	 0

; 136  : 		break;

  00034	eb 06		 jmp	 SHORT $LN14@CheckMamaH@2
$LN2@CheckMamaH@2:

; 137  : 	default:
; 138  : 		if( !bDummyVisible )

  00036	84 c0		 test	 al, al
  00038	75 09		 jne	 SHORT $LN13@CheckMamaH@2

; 139  : 			m_pGroup->SetVisible( true );

  0003a	6a 01		 push	 1
$LN14@CheckMamaH@2:
  0003c	8b 4e 04	 mov	 ecx, DWORD PTR [esi+4]
  0003f	8b 01		 mov	 eax, DWORD PTR [ecx]
  00041	ff 10		 call	 DWORD PTR [eax]
$LN13@CheckMamaH@2:
  00043	5b		 pop	 ebx
$LN1@CheckMamaH@2:
  00044	5e		 pop	 esi

; 140  : 		break;
; 141  : 	}
; 142  : }

  00045	c3		 ret	 0
?CheckMamaHahaVisible@ioMamaHahaDummy@@IAEXXZ ENDP	; ioMamaHahaDummy::CheckMamaHahaVisible
_TEXT	ENDS
PUBLIC	?ProcessDelayState@ioMamaHahaDummy@@MAEXM@Z	; ioMamaHahaDummy::ProcessDelayState
EXTRN	?CheckEnableAttackState@ioDummyChar@@QAE_NXZ:PROC ; ioDummyChar::CheckEnableAttackState
EXTRN	__imp_?GetLoopSec@ioFrameTimer@@QBEKXZ:PROC
EXTRN	__imp_?GetSingleton@ioFrameTimer@@SAAAV1@XZ:PROC
; Function compile flags: /Ogsp
;	COMDAT ?ProcessDelayState@ioMamaHahaDummy@@MAEXM@Z
_TEXT	SEGMENT
_fTimePerSec$ = 8					; size = 4
?ProcessDelayState@ioMamaHahaDummy@@MAEXM@Z PROC	; ioMamaHahaDummy::ProcessDelayState, COMDAT
; _this$ = ecx

; 328  : {

  00000	56		 push	 esi
  00001	57		 push	 edi
  00002	8b f1		 mov	 esi, ecx

; 329  : 	ioBaseChar *pOwner = GetOwner();

  00004	e8 00 00 00 00	 call	 ?GetOwner@ioDummyChar@@QBEPAVioBaseChar@@XZ ; ioDummyChar::GetOwner
  00009	8b f8		 mov	 edi, eax

; 330  : 	if( !pOwner ) return;

  0000b	85 ff		 test	 edi, edi
  0000d	74 3d		 je	 SHORT $LN1@ProcessDel

; 331  : 
; 332  : 	DWORD dwCurTime = FRAMEGETTIME();

  0000f	ff 15 00 00 00
	00		 call	 DWORD PTR __imp_?GetSingleton@ioFrameTimer@@SAAAV1@XZ
  00015	8b c8		 mov	 ecx, eax
  00017	ff 15 00 00 00
	00		 call	 DWORD PTR __imp_?GetLoopSec@ioFrameTimer@@QBEKXZ

; 333  : 
; 334  : 	if( pOwner->GetState() == CS_JUMP || pOwner->GetState() == CS_DASH )

  0001d	8a 87 10 03 00
	00		 mov	 al, BYTE PTR [edi+784]
  00023	3c 04		 cmp	 al, 4
  00025	74 1b		 je	 SHORT $LN2@ProcessDel
  00027	3c 02		 cmp	 al, 2
  00029	74 17		 je	 SHORT $LN2@ProcessDel

; 337  : 		return;
; 338  : 	}
; 339  : 
; 340  : 	if( CheckEnableAttackState() )

  0002b	8b ce		 mov	 ecx, esi
  0002d	e8 00 00 00 00	 call	 ?CheckEnableAttackState@ioDummyChar@@QAE_NXZ ; ioDummyChar::CheckEnableAttackState
  00032	84 c0		 test	 al, al
  00034	74 16		 je	 SHORT $LN1@ProcessDel

; 341  : 	{
; 342  : 		SetAttackState();

  00036	8b 06		 mov	 eax, DWORD PTR [esi]
  00038	8b ce		 mov	 ecx, esi
  0003a	ff 90 24 01 00
	00		 call	 DWORD PTR [eax+292]

; 343  : 		return;

  00040	eb 0a		 jmp	 SHORT $LN1@ProcessDel
$LN2@ProcessDel:

; 335  : 	{
; 336  : 		SetMoveState();

  00042	8b 06		 mov	 eax, DWORD PTR [esi]
  00044	8b ce		 mov	 ecx, esi
  00046	ff 90 18 01 00
	00		 call	 DWORD PTR [eax+280]
$LN1@ProcessDel:

; 344  : 	}
; 345  : }

  0004c	5f		 pop	 edi
  0004d	5e		 pop	 esi
  0004e	c2 04 00	 ret	 4
?ProcessDelayState@ioMamaHahaDummy@@MAEXM@Z ENDP	; ioMamaHahaDummy::ProcessDelayState
_TEXT	ENDS
PUBLIC	?ProcessMoveState@ioMamaHahaDummy@@MAEXM@Z	; ioMamaHahaDummy::ProcessMoveState
; Function compile flags: /Ogsp
;	COMDAT ?ProcessMoveState@ioMamaHahaDummy@@MAEXM@Z
_TEXT	SEGMENT
_fTimePerSec$ = 8					; size = 4
?ProcessMoveState@ioMamaHahaDummy@@MAEXM@Z PROC		; ioMamaHahaDummy::ProcessMoveState, COMDAT
; _this$ = ecx

; 348  : {

  00000	56		 push	 esi
  00001	57		 push	 edi
  00002	8b f9		 mov	 edi, ecx

; 349  : 	ioBaseChar *pOwner = GetOwner();

  00004	e8 00 00 00 00	 call	 ?GetOwner@ioDummyChar@@QBEPAVioBaseChar@@XZ ; ioDummyChar::GetOwner
  00009	8b f0		 mov	 esi, eax

; 350  : 	if( !pOwner ) return;

  0000b	85 f6		 test	 esi, esi
  0000d	74 28		 je	 SHORT $LN1@ProcessMov

; 351  : 
; 352  : 	DWORD dwCurTime = FRAMEGETTIME();

  0000f	ff 15 00 00 00
	00		 call	 DWORD PTR __imp_?GetSingleton@ioFrameTimer@@SAAAV1@XZ
  00015	8b c8		 mov	 ecx, eax
  00017	ff 15 00 00 00
	00		 call	 DWORD PTR __imp_?GetLoopSec@ioFrameTimer@@QBEKXZ

; 353  : 
; 354  : 	if( pOwner->GetState() != CS_JUMP && pOwner->GetState() != CS_DASH )

  0001d	8a 86 10 03 00
	00		 mov	 al, BYTE PTR [esi+784]
  00023	3c 04		 cmp	 al, 4
  00025	74 10		 je	 SHORT $LN1@ProcessMov
  00027	3c 02		 cmp	 al, 2
  00029	74 0c		 je	 SHORT $LN1@ProcessMov

; 355  : 	{
; 356  : 		SetDelayState( false );

  0002b	8b 07		 mov	 eax, DWORD PTR [edi]
  0002d	6a 00		 push	 0
  0002f	8b cf		 mov	 ecx, edi
  00031	ff 90 14 01 00
	00		 call	 DWORD PTR [eax+276]
$LN1@ProcessMov:

; 357  : 		return;
; 358  : 	}
; 359  : }

  00037	5f		 pop	 edi
  00038	5e		 pop	 esi
  00039	c2 04 00	 ret	 4
?ProcessMoveState@ioMamaHahaDummy@@MAEXM@Z ENDP		; ioMamaHahaDummy::ProcessMoveState
_TEXT	ENDS
PUBLIC	?ReleaseMamaHahaOwnerAttach@ioMamaHahaDummy@@QAEXXZ ; ioMamaHahaDummy::ReleaseMamaHahaOwnerAttach
; Function compile flags: /Ogsp
;	COMDAT ?ReleaseMamaHahaOwnerAttach@ioMamaHahaDummy@@QAEXXZ
_TEXT	SEGMENT
?ReleaseMamaHahaOwnerAttach@ioMamaHahaDummy@@QAEXXZ PROC ; ioMamaHahaDummy::ReleaseMamaHahaOwnerAttach, COMDAT
; _this$ = ecx

; 421  : 	if( m_State != DCS_MAMAHAHA_STATE )

  00000	83 b9 30 02 00
	00 10		 cmp	 DWORD PTR [ecx+560], 16	; 00000010H
  00007	75 13		 jne	 SHORT $LN1@ReleaseMam

; 422  : 		return;
; 423  : 
; 424  : 	if( m_MamaHahaState == MHS_OWNER_ATTACH )

  00009	83 b9 80 14 00
	00 01		 cmp	 DWORD PTR [ecx+5248], 1
  00010	75 0a		 jne	 SHORT $LN1@ReleaseMam

; 425  : 	{
; 426  : 		SetDelayState( false );

  00012	8b 01		 mov	 eax, DWORD PTR [ecx]
  00014	6a 00		 push	 0
  00016	ff 90 14 01 00
	00		 call	 DWORD PTR [eax+276]
$LN1@ReleaseMam:

; 427  : 	}
; 428  : }

  0001c	c3		 ret	 0
?ReleaseMamaHahaOwnerAttach@ioMamaHahaDummy@@QAEXXZ ENDP ; ioMamaHahaDummy::ReleaseMamaHahaOwnerAttach
_TEXT	ENDS
PUBLIC	__real@00000000
PUBLIC	__real@4f800000
PUBLIC	?SetMamaHahaState@ioMamaHahaDummy@@IAEXW4MamaHahaState@1@@Z ; ioMamaHahaDummy::SetMamaHahaState
EXTRN	__imp_?SetLoopAni@ioEntityGroup@@QAE_NHMMMM@Z:PROC
EXTRN	__imp_?ClearAllLoopAni@ioEntityGroup@@QAEXM_N@Z:PROC
EXTRN	__imp_?ClearAllActionAni@ioEntityGroup@@QAEXM_N@Z:PROC
EXTRN	__imp_?GetAnimationIdx@ioEntityGroup@@QAEHABVioHashString@@@Z:PROC
;	COMDAT __real@00000000
; File d:\lost saga for developer\youtube\tutorial\source\src\lsclient\stdafx.h
CONST	SEGMENT
__real@00000000 DD 000000000r			; 0
CONST	ENDS
;	COMDAT __real@4f800000
CONST	SEGMENT
__real@4f800000 DD 04f800000r			; 4.29497e+009
; Function compile flags: /Ogsp
; File d:\lost saga for developer\youtube\tutorial\source\src\lsclient\iomamahahadummy.cpp
CONST	ENDS
;	COMDAT ?SetMamaHahaState@ioMamaHahaDummy@@IAEXW4MamaHahaState@1@@Z
_TEXT	SEGMENT
tv206 = -4						; size = 4
tv200 = -4						; size = 4
tv192 = -4						; size = 4
tv213 = 8						; size = 4
tv171 = 8						; size = 4
tv150 = 8						; size = 4
tv82 = 8						; size = 4
_fAniRate$661576 = 8					; size = 4
_eType$ = 8						; size = 4
?SetMamaHahaState@ioMamaHahaDummy@@IAEXW4MamaHahaState@1@@Z PROC ; ioMamaHahaDummy::SetMamaHahaState, COMDAT
; _this$ = ecx

; 431  : {

  00000	55		 push	 ebp
  00001	8b ec		 mov	 ebp, esp
  00003	51		 push	 ecx

; 432  : 	m_State = DCS_MAMAHAHA_STATE;
; 433  : 
; 434  : 	switch( eType )

  00004	8b 45 08	 mov	 eax, DWORD PTR _eType$[ebp]
  00007	48		 dec	 eax
  00008	56		 push	 esi
  00009	8b f1		 mov	 esi, ecx
  0000b	c7 86 30 02 00
	00 10 00 00 00	 mov	 DWORD PTR [esi+560], 16	; 00000010H
  00015	0f 85 0a 01 00
	00		 jne	 $LN2@SetMamaHah

; 435  : 	{
; 436  : 	case MHS_OWNER_ATTACH:
; 437  : 		{
; 438  : 			int iAniID = m_pGroup->GetAnimationIdx( m_MamaHahaOwnerAttachAni );

  0001b	8b 4e 04	 mov	 ecx, DWORD PTR [esi+4]
  0001e	53		 push	 ebx
  0001f	8d 86 9c 14 00
	00		 lea	 eax, DWORD PTR [esi+5276]
  00025	50		 push	 eax
  00026	ff 15 00 00 00
	00		 call	 DWORD PTR __imp_?GetAnimationIdx@ioEntityGroup@@QAEHABVioHashString@@@Z
  0002c	8b d8		 mov	 ebx, eax

; 439  : 			if( iAniID != -1 )

  0002e	83 fb ff	 cmp	 ebx, -1
  00031	0f 84 ed 00 00
	00		 je	 $LN20@SetMamaHah

; 440  : 			{
; 441  : 				float fAniRate = FLOAT1;

  00037	b8 01 00 00 00	 mov	 eax, 1
  0003c	89 45 08	 mov	 DWORD PTR tv213[ebp], eax
  0003f	db 45 08	 fild	 DWORD PTR tv213[ebp]
  00042	85 c0		 test	 eax, eax
  00044	79 06		 jns	 SHORT $LN21@SetMamaHah
  00046	d8 05 00 00 00
	00		 fadd	 DWORD PTR __real@4f800000
$LN21@SetMamaHah:

; 442  : 				if( m_fMamaHahaOwnerAttachAniRate > 0.0f )

  0004c	f3 0f 10 86 ac
	14 00 00	 movss	 xmm0, DWORD PTR [esi+5292]
  00054	d9 5d 08	 fstp	 DWORD PTR _fAniRate$661576[ebp]
  00057	0f 2f 05 00 00
	00 00		 comiss	 xmm0, DWORD PTR __real@00000000
  0005e	76 05		 jbe	 SHORT $LN1@SetMamaHah

; 443  : 					fAniRate = m_fMamaHahaOwnerAttachAniRate;

  00060	f3 0f 11 45 08	 movss	 DWORD PTR _fAniRate$661576[ebp], xmm0
$LN1@SetMamaHah:

; 444  : 
; 445  : 				m_pGroup->ClearAllActionAni( FLOAT10, true );

  00065	b8 0a 00 00 00	 mov	 eax, 10			; 0000000aH
  0006a	89 45 fc	 mov	 DWORD PTR tv206[ebp], eax
  0006d	db 45 fc	 fild	 DWORD PTR tv206[ebp]
  00070	6a 01		 push	 1
  00072	85 c0		 test	 eax, eax
  00074	79 06		 jns	 SHORT $LN22@SetMamaHah
  00076	d8 05 00 00 00
	00		 fadd	 DWORD PTR __real@4f800000
$LN22@SetMamaHah:
  0007c	51		 push	 ecx
  0007d	8b 4e 04	 mov	 ecx, DWORD PTR [esi+4]
  00080	d9 1c 24	 fstp	 DWORD PTR [esp]
  00083	ff 15 00 00 00
	00		 call	 DWORD PTR __imp_?ClearAllActionAni@ioEntityGroup@@QAEXM_N@Z

; 446  : 				m_pGroup->ClearAllLoopAni( FLOAT10, true );

  00089	b8 0a 00 00 00	 mov	 eax, 10			; 0000000aH
  0008e	89 45 fc	 mov	 DWORD PTR tv200[ebp], eax
  00091	db 45 fc	 fild	 DWORD PTR tv200[ebp]
  00094	6a 01		 push	 1
  00096	85 c0		 test	 eax, eax
  00098	79 06		 jns	 SHORT $LN23@SetMamaHah
  0009a	d8 05 00 00 00
	00		 fadd	 DWORD PTR __real@4f800000
$LN23@SetMamaHah:
  000a0	51		 push	 ecx
  000a1	8b 4e 04	 mov	 ecx, DWORD PTR [esi+4]
  000a4	d9 1c 24	 fstp	 DWORD PTR [esp]
  000a7	ff 15 00 00 00
	00		 call	 DWORD PTR __imp_?ClearAllLoopAni@ioEntityGroup@@QAEXM_N@Z

; 447  : 
; 448  : 				m_pGroup->SetLoopAni( iAniID, FLOAT10, FLOAT1, FLOAT1/fAniRate );

  000ad	b8 01 00 00 00	 mov	 eax, 1
  000b2	8b c8		 mov	 ecx, eax
  000b4	b8 01 00 00 00	 mov	 eax, 1
  000b9	8b d0		 mov	 edx, eax
  000bb	b8 0a 00 00 00	 mov	 eax, 10			; 0000000aH
  000c0	0f 57 c0	 xorps	 xmm0, xmm0
  000c3	83 ec 10	 sub	 esp, 16			; 00000010H
  000c6	89 4d fc	 mov	 DWORD PTR tv192[ebp], ecx
  000c9	db 45 fc	 fild	 DWORD PTR tv192[ebp]
  000cc	f3 0f 11 44 24
	0c		 movss	 DWORD PTR [esp+12], xmm0
  000d2	85 c9		 test	 ecx, ecx
  000d4	79 06		 jns	 SHORT $LN24@SetMamaHah
  000d6	d8 05 00 00 00
	00		 fadd	 DWORD PTR __real@4f800000
$LN24@SetMamaHah:
  000dc	d8 75 08	 fdiv	 DWORD PTR _fAniRate$661576[ebp]
  000df	d9 5d 08	 fstp	 DWORD PTR tv150[ebp]
  000e2	d9 45 08	 fld	 DWORD PTR tv150[ebp]
  000e5	d9 5c 24 08	 fstp	 DWORD PTR [esp+8]
  000e9	89 55 08	 mov	 DWORD PTR tv171[ebp], edx
  000ec	db 45 08	 fild	 DWORD PTR tv171[ebp]
  000ef	85 d2		 test	 edx, edx
  000f1	79 06		 jns	 SHORT $LN25@SetMamaHah
  000f3	d8 05 00 00 00
	00		 fadd	 DWORD PTR __real@4f800000
$LN25@SetMamaHah:
  000f9	89 45 08	 mov	 DWORD PTR tv82[ebp], eax
  000fc	d9 5c 24 04	 fstp	 DWORD PTR [esp+4]
  00100	db 45 08	 fild	 DWORD PTR tv82[ebp]
  00103	85 c0		 test	 eax, eax
  00105	79 06		 jns	 SHORT $LN26@SetMamaHah
  00107	d8 05 00 00 00
	00		 fadd	 DWORD PTR __real@4f800000
$LN26@SetMamaHah:
  0010d	8b 4e 04	 mov	 ecx, DWORD PTR [esi+4]
  00110	d9 1c 24	 fstp	 DWORD PTR [esp]
  00113	53		 push	 ebx
  00114	ff 15 00 00 00
	00		 call	 DWORD PTR __imp_?SetLoopAni@ioEntityGroup@@QAE_NHMMMM@Z

; 449  : 
; 450  : 				m_MamaHahaState = MHS_OWNER_ATTACH;

  0011a	c7 86 80 14 00
	00 01 00 00 00	 mov	 DWORD PTR [esi+5248], 1
$LN20@SetMamaHah:
  00124	5b		 pop	 ebx
$LN2@SetMamaHah:
  00125	5e		 pop	 esi

; 451  : 			}
; 452  : 		}
; 453  : 		break;
; 454  : 	}
; 455  : }

  00126	c9		 leave
  00127	c2 04 00	 ret	 4
?SetMamaHahaState@ioMamaHahaDummy@@IAEXW4MamaHahaState@1@@Z ENDP ; ioMamaHahaDummy::SetMamaHahaState
_TEXT	ENDS
PUBLIC	?CheckEnableOwnerAttach@ioMamaHahaDummy@@QAE_NXZ ; ioMamaHahaDummy::CheckEnableOwnerAttach
; Function compile flags: /Ogsp
;	COMDAT ?CheckEnableOwnerAttach@ioMamaHahaDummy@@QAE_NXZ
_TEXT	SEGMENT
?CheckEnableOwnerAttach@ioMamaHahaDummy@@QAE_NXZ PROC	; ioMamaHahaDummy::CheckEnableOwnerAttach, COMDAT
; _this$ = ecx

; 459  : 	if( m_State != DCS_MAMAHAHA_STATE )

  00000	83 b9 30 02 00
	00 10		 cmp	 DWORD PTR [ecx+560], 16	; 00000010H
  00007	0f 95 c0	 setne	 al

; 460  : 		return true;
; 461  : 
; 462  : 	switch( m_MamaHahaState )
; 463  : 	{
; 464  : 	case MHS_OWNER_ATTACH:
; 465  : 	case MHS_FLYING1:
; 466  : 	case MHS_FLYING2:
; 467  : 	case MHS_ENEMY_ATTACH:
; 468  : 	case MHS_RETURN1:
; 469  : 	case MHS_RETURN2:
; 470  : 	case MHS_FIRE_ATTACK:
; 471  : 		break;
; 472  : 	}
; 473  : 
; 474  : 	return false;
; 475  : }

  0000a	c3		 ret	 0
?CheckEnableOwnerAttach@ioMamaHahaDummy@@QAE_NXZ ENDP	; ioMamaHahaDummy::CheckEnableOwnerAttach
_TEXT	ENDS
PUBLIC	?CheckEnableUseCmd@ioMamaHahaDummy@@QAE_NH@Z	; ioMamaHahaDummy::CheckEnableUseCmd
; Function compile flags: /Ogsp
;	COMDAT ?CheckEnableUseCmd@ioMamaHahaDummy@@QAE_NH@Z
_TEXT	SEGMENT
_iType$ = 8						; size = 4
?CheckEnableUseCmd@ioMamaHahaDummy@@QAE_NH@Z PROC	; ioMamaHahaDummy::CheckEnableUseCmd, COMDAT
; _this$ = ecx

; 478  : {

  00000	55		 push	 ebp
  00001	8b ec		 mov	 ebp, esp

; 479  : 	if( m_State != DCS_MAMAHAHA_STATE )

  00003	83 b9 30 02 00
	00 10		 cmp	 DWORD PTR [ecx+560], 16	; 00000010H
  0000a	74 04		 je	 SHORT $LN8@CheckEnabl
$LN4@CheckEnabl:

; 480  : 		return true;

  0000c	b0 01		 mov	 al, 1
  0000e	eb 27		 jmp	 SHORT $LN9@CheckEnabl
$LN8@CheckEnabl:

; 481  : 
; 482  : 	switch( m_MamaHahaState )

  00010	8b 81 80 14 00
	00		 mov	 eax, DWORD PTR [ecx+5248]
  00016	83 f8 01	 cmp	 eax, 1
  00019	74 1a		 je	 SHORT $LN5@CheckEnabl
  0001b	83 f8 02	 cmp	 eax, 2
  0001e	74 ec		 je	 SHORT $LN4@CheckEnabl
  00020	83 f8 03	 cmp	 eax, 3
  00023	74 10		 je	 SHORT $LN5@CheckEnabl
  00025	83 f8 04	 cmp	 eax, 4
  00028	75 0b		 jne	 SHORT $LN5@CheckEnabl

; 490  : 	case MHS_FIRE_ATTACK:
; 491  : 		return true;
; 492  : 	case MHS_RETURN1:
; 493  : 		if( iType == CUT_SHICHIKAPU_ETU || iType == CUT_SHICHIKAPU_ARM )

  0002a	83 7d 08 03	 cmp	 DWORD PTR _iType$[ebp], 3
  0002e	74 dc		 je	 SHORT $LN4@CheckEnabl
  00030	39 45 08	 cmp	 DWORD PTR _iType$[ebp], eax

; 494  : 			return true;

  00033	74 d7		 je	 SHORT $LN4@CheckEnabl
$LN5@CheckEnabl:

; 483  : 	{
; 484  : 	case MHS_OWNER_ATTACH:
; 485  : 	case MHS_FLYING1:
; 486  : 	case MHS_FLYING2:
; 487  : 	case MHS_ENEMY_ATTACH:
; 488  : 	case MHS_RETURN2:
; 489  : 		return false;

  00035	32 c0		 xor	 al, al
$LN9@CheckEnabl:

; 495  : 		break;
; 496  : 	}
; 497  : 
; 498  : 	return false;
; 499  : }

  00037	5d		 pop	 ebp
  00038	c2 04 00	 ret	 4
?CheckEnableUseCmd@ioMamaHahaDummy@@QAE_NH@Z ENDP	; ioMamaHahaDummy::CheckEnableUseCmd
_TEXT	ENDS
PUBLIC	??1FireTime@@QAE@XZ				; FireTime::~FireTime
EXTRN	__imp_??1ioHashString@@QAE@XZ:PROC
EXTRN	___CxxFrameHandler3:PROC
EXTRN	@__security_check_cookie@4:PROC
EXTRN	__EH_epilog3:PROC
EXTRN	__EH_prolog3:PROC
;	COMDAT xdata$x
xdata$x	SEGMENT
__unwindtable$??1FireTime@@QAE@XZ DD 0ffffffffH
	DD	FLAT:__unwindfunclet$??1FireTime@@QAE@XZ$0
	DD	00H
	DD	FLAT:__unwindfunclet$??1FireTime@@QAE@XZ$1
__ehfuncinfo$??1FireTime@@QAE@XZ DD 019930522H
	DD	02H
	DD	FLAT:__unwindtable$??1FireTime@@QAE@XZ
	DD	2 DUP(00H)
	DD	2 DUP(00H)
	DD	00H
	DD	01H
; Function compile flags: /Ogsp
xdata$x	ENDS
;	COMDAT ??1FireTime@@QAE@XZ
_TEXT	SEGMENT
_this$ = -16						; size = 4
__$EHRec$ = -12						; size = 12
??1FireTime@@QAE@XZ PROC				; FireTime::~FireTime, COMDAT
; _this$ = ecx
  00000	6a 04		 push	 4
  00002	b8 00 00 00 00	 mov	 eax, __ehhandler$??1FireTime@@QAE@XZ
  00007	e8 00 00 00 00	 call	 __EH_prolog3
  0000c	8b f9		 mov	 edi, ecx
  0000e	89 7d f0	 mov	 DWORD PTR _this$[ebp], edi
  00011	8b 35 00 00 00
	00		 mov	 esi, DWORD PTR __imp_??1ioHashString@@QAE@XZ
  00017	8d 4f 44	 lea	 ecx, DWORD PTR [edi+68]
  0001a	c7 45 fc 01 00
	00 00		 mov	 DWORD PTR __$EHRec$[ebp+8], 1
  00021	ff d6		 call	 esi
  00023	8d 4f 30	 lea	 ecx, DWORD PTR [edi+48]
  00026	c6 45 fc 00	 mov	 BYTE PTR __$EHRec$[ebp+8], 0
  0002a	ff d6		 call	 esi
  0002c	83 4d fc ff	 or	 DWORD PTR __$EHRec$[ebp+8], -1
  00030	8d 4f 14	 lea	 ecx, DWORD PTR [edi+20]
  00033	ff d6		 call	 esi
  00035	e8 00 00 00 00	 call	 __EH_epilog3
  0003a	c3		 ret	 0
_TEXT	ENDS
;	COMDAT text$x
text$x	SEGMENT
__unwindfunclet$??1FireTime@@QAE@XZ$0:
  00000	8b 4d f0	 mov	 ecx, DWORD PTR _this$[ebp]
  00003	83 c1 14	 add	 ecx, 20			; 00000014H
  00006	ff 25 00 00 00
	00		 jmp	 DWORD PTR __imp_??1ioHashString@@QAE@XZ
__unwindfunclet$??1FireTime@@QAE@XZ$1:
  0000c	8b 4d f0	 mov	 ecx, DWORD PTR _this$[ebp]
  0000f	83 c1 30	 add	 ecx, 48			; 00000030H
  00012	ff 25 00 00 00
	00		 jmp	 DWORD PTR __imp_??1ioHashString@@QAE@XZ
__ehhandler$??1FireTime@@QAE@XZ:
  00018	8b 54 24 08	 mov	 edx, DWORD PTR [esp+8]
  0001c	8d 42 0c	 lea	 eax, DWORD PTR [edx+12]
  0001f	8b 4a ec	 mov	 ecx, DWORD PTR [edx-20]
  00022	33 c8		 xor	 ecx, eax
  00024	e8 00 00 00 00	 call	 @__security_check_cookie@4
  00029	b8 00 00 00 00	 mov	 eax, OFFSET __ehfuncinfo$??1FireTime@@QAE@XZ
  0002e	e9 00 00 00 00	 jmp	 ___CxxFrameHandler3
text$x	ENDS
??1FireTime@@QAE@XZ ENDP				; FireTime::~FireTime
PUBLIC	?SetMamaHahaEnemyAttach@ioMamaHahaDummy@@IAEXABVioHashString@@@Z ; ioMamaHahaDummy::SetMamaHahaEnemyAttach
EXTRN	__imp_??4ioHashString@@QAEAAV0@ABV0@@Z:PROC
; Function compile flags: /Ogsp
;	COMDAT ?SetMamaHahaEnemyAttach@ioMamaHahaDummy@@IAEXABVioHashString@@@Z
_TEXT	SEGMENT
tv203 = -4						; size = 4
tv198 = -4						; size = 4
tv148 = -4						; size = 4
tv211 = 8						; size = 4
tv171 = 8						; size = 4
tv80 = 8						; size = 4
tv75 = 8						; size = 4
_fAniRate$663145 = 8					; size = 4
_szName$ = 8						; size = 4
?SetMamaHahaEnemyAttach@ioMamaHahaDummy@@IAEXABVioHashString@@@Z PROC ; ioMamaHahaDummy::SetMamaHahaEnemyAttach, COMDAT
; _this$ = ecx

; 1331 : {

  00000	55		 push	 ebp
  00001	8b ec		 mov	 ebp, esp
  00003	51		 push	 ecx
  00004	56		 push	 esi
  00005	57		 push	 edi

; 1332 : 	m_MamaHahaState = MHS_ENEMY_ATTACH;
; 1333 : 	m_MamaHahaTargetName = szName;

  00006	ff 75 08	 push	 DWORD PTR _szName$[ebp]
  00009	8b f1		 mov	 esi, ecx
  0000b	8d 8e d4 14 00
	00		 lea	 ecx, DWORD PTR [esi+5332]
  00011	c7 86 80 14 00
	00 07 00 00 00	 mov	 DWORD PTR [esi+5248], 7
  0001b	ff 15 00 00 00
	00		 call	 DWORD PTR __imp_??4ioHashString@@QAEAAV0@ABV0@@Z

; 1334 : 
; 1335 : 	int iAniID = m_pGroup->GetAnimationIdx( m_MamaHahaEnemyAttachAni );

  00021	8b 4e 04	 mov	 ecx, DWORD PTR [esi+4]
  00024	8d 86 b0 14 00
	00		 lea	 eax, DWORD PTR [esi+5296]
  0002a	50		 push	 eax
  0002b	ff 15 00 00 00
	00		 call	 DWORD PTR __imp_?GetAnimationIdx@ioEntityGroup@@QAEHABVioHashString@@@Z
  00031	8b f8		 mov	 edi, eax

; 1336 : 	if( iAniID != -1 )

  00033	83 ff ff	 cmp	 edi, -1
  00036	0f 84 e3 00 00
	00		 je	 $LN2@SetMamaHah@2

; 1337 : 	{
; 1338 : 		float fAniRate = FLOAT1;

  0003c	b8 01 00 00 00	 mov	 eax, 1
  00041	89 45 08	 mov	 DWORD PTR tv211[ebp], eax
  00044	db 45 08	 fild	 DWORD PTR tv211[ebp]
  00047	85 c0		 test	 eax, eax
  00049	79 06		 jns	 SHORT $LN17@SetMamaHah@2
  0004b	d8 05 00 00 00
	00		 fadd	 DWORD PTR __real@4f800000
$LN17@SetMamaHah@2:

; 1339 : 		if( m_fMamaHahaEnemyAttachAniRate > 0.0f )

  00051	f3 0f 10 86 c0
	14 00 00	 movss	 xmm0, DWORD PTR [esi+5312]
  00059	d9 5d 08	 fstp	 DWORD PTR _fAniRate$663145[ebp]
  0005c	0f 2f 05 00 00
	00 00		 comiss	 xmm0, DWORD PTR __real@00000000
  00063	76 05		 jbe	 SHORT $LN1@SetMamaHah@2

; 1340 : 			fAniRate = m_fMamaHahaEnemyAttachAniRate;

  00065	f3 0f 11 45 08	 movss	 DWORD PTR _fAniRate$663145[ebp], xmm0
$LN1@SetMamaHah@2:

; 1341 : 
; 1342 : 		m_pGroup->ClearAllActionAni( FLOAT10, true );

  0006a	b8 0a 00 00 00	 mov	 eax, 10			; 0000000aH
  0006f	89 45 fc	 mov	 DWORD PTR tv203[ebp], eax
  00072	db 45 fc	 fild	 DWORD PTR tv203[ebp]
  00075	6a 01		 push	 1
  00077	85 c0		 test	 eax, eax
  00079	79 06		 jns	 SHORT $LN18@SetMamaHah@2
  0007b	d8 05 00 00 00
	00		 fadd	 DWORD PTR __real@4f800000
$LN18@SetMamaHah@2:
  00081	51		 push	 ecx
  00082	8b 4e 04	 mov	 ecx, DWORD PTR [esi+4]
  00085	d9 1c 24	 fstp	 DWORD PTR [esp]
  00088	ff 15 00 00 00
	00		 call	 DWORD PTR __imp_?ClearAllActionAni@ioEntityGroup@@QAEXM_N@Z

; 1343 : 		m_pGroup->ClearAllLoopAni( FLOAT10, true );

  0008e	b8 0a 00 00 00	 mov	 eax, 10			; 0000000aH
  00093	89 45 fc	 mov	 DWORD PTR tv198[ebp], eax
  00096	db 45 fc	 fild	 DWORD PTR tv198[ebp]
  00099	6a 01		 push	 1
  0009b	85 c0		 test	 eax, eax
  0009d	79 06		 jns	 SHORT $LN19@SetMamaHah@2
  0009f	d8 05 00 00 00
	00		 fadd	 DWORD PTR __real@4f800000
$LN19@SetMamaHah@2:
  000a5	51		 push	 ecx
  000a6	8b 4e 04	 mov	 ecx, DWORD PTR [esi+4]
  000a9	d9 1c 24	 fstp	 DWORD PTR [esp]
  000ac	ff 15 00 00 00
	00		 call	 DWORD PTR __imp_?ClearAllLoopAni@ioEntityGroup@@QAEXM_N@Z

; 1344 : 
; 1345 : 		m_pGroup->SetLoopAni( iAniID, FLOAT10, FLOAT1, FLOAT1/fAniRate );

  000b2	b8 01 00 00 00	 mov	 eax, 1
  000b7	8b c8		 mov	 ecx, eax
  000b9	b8 01 00 00 00	 mov	 eax, 1
  000be	8b d0		 mov	 edx, eax
  000c0	b8 0a 00 00 00	 mov	 eax, 10			; 0000000aH
  000c5	0f 57 c0	 xorps	 xmm0, xmm0
  000c8	83 ec 10	 sub	 esp, 16			; 00000010H
  000cb	89 4d fc	 mov	 DWORD PTR tv148[ebp], ecx
  000ce	db 45 fc	 fild	 DWORD PTR tv148[ebp]
  000d1	f3 0f 11 44 24
	0c		 movss	 DWORD PTR [esp+12], xmm0
  000d7	85 c9		 test	 ecx, ecx
  000d9	79 06		 jns	 SHORT $LN20@SetMamaHah@2
  000db	d8 05 00 00 00
	00		 fadd	 DWORD PTR __real@4f800000
$LN20@SetMamaHah@2:
  000e1	d8 75 08	 fdiv	 DWORD PTR _fAniRate$663145[ebp]
  000e4	d9 5d 08	 fstp	 DWORD PTR tv80[ebp]
  000e7	d9 45 08	 fld	 DWORD PTR tv80[ebp]
  000ea	d9 5c 24 08	 fstp	 DWORD PTR [esp+8]
  000ee	89 55 08	 mov	 DWORD PTR tv171[ebp], edx
  000f1	db 45 08	 fild	 DWORD PTR tv171[ebp]
  000f4	85 d2		 test	 edx, edx
  000f6	79 06		 jns	 SHORT $LN21@SetMamaHah@2
  000f8	d8 05 00 00 00
	00		 fadd	 DWORD PTR __real@4f800000
$LN21@SetMamaHah@2:
  000fe	89 45 08	 mov	 DWORD PTR tv75[ebp], eax
  00101	d9 5c 24 04	 fstp	 DWORD PTR [esp+4]
  00105	db 45 08	 fild	 DWORD PTR tv75[ebp]
  00108	85 c0		 test	 eax, eax
  0010a	79 06		 jns	 SHORT $LN22@SetMamaHah@2
  0010c	d8 05 00 00 00
	00		 fadd	 DWORD PTR __real@4f800000
$LN22@SetMamaHah@2:
  00112	8b 4e 04	 mov	 ecx, DWORD PTR [esi+4]
  00115	d9 1c 24	 fstp	 DWORD PTR [esp]
  00118	57		 push	 edi
  00119	ff 15 00 00 00
	00		 call	 DWORD PTR __imp_?SetLoopAni@ioEntityGroup@@QAE_NHMMMM@Z
$LN2@SetMamaHah@2:
  0011f	5f		 pop	 edi
  00120	5e		 pop	 esi

; 1346 : 	}
; 1347 : }

  00121	c9		 leave
  00122	c2 04 00	 ret	 4
?SetMamaHahaEnemyAttach@ioMamaHahaDummy@@IAEXABVioHashString@@@Z ENDP ; ioMamaHahaDummy::SetMamaHahaEnemyAttach
_TEXT	ENDS
PUBLIC	?size@?$vector@V?$basic_string@DU?$char_traits@D@std@@V?$allocator@D@2@@std@@V?$allocator@V?$basic_string@DU?$char_traits@D@std@@V?$allocator@D@2@@std@@@2@@std@@QBEIXZ ; std::vector<std::basic_string<char,std::char_traits<char>,std::allocator<char> >,std::allocator<std::basic_string<char,std::char_traits<char>,std::allocator<char> > > >::size
; Function compile flags: /Ogsp
; File c:\program files (x86)\microsoft visual studio 10.0\vc\include\vector
;	COMDAT ?size@?$vector@V?$basic_string@DU?$char_traits@D@std@@V?$allocator@D@2@@std@@V?$allocator@V?$basic_string@DU?$char_traits@D@std@@V?$allocator@D@2@@std@@@2@@std@@QBEIXZ
_TEXT	SEGMENT
?size@?$vector@V?$basic_string@DU?$char_traits@D@std@@V?$allocator@D@2@@std@@V?$allocator@V?$basic_string@DU?$char_traits@D@std@@V?$allocator@D@2@@std@@@2@@std@@QBEIXZ PROC ; std::vector<std::basic_string<char,std::char_traits<char>,std::allocator<char> >,std::allocator<std::basic_string<char,std::char_traits<char>,std::allocator<char> > > >::size, COMDAT
; _this$ = ecx

; 879  : 		return (this->_Mylast - this->_Myfirst);

  00000	8b 41 04	 mov	 eax, DWORD PTR [ecx+4]
  00003	2b 01		 sub	 eax, DWORD PTR [ecx]
  00005	6a 1c		 push	 28			; 0000001cH
  00007	99		 cdq
  00008	59		 pop	 ecx
  00009	f7 f9		 idiv	 ecx

; 880  : 		}

  0000b	c3		 ret	 0
?size@?$vector@V?$basic_string@DU?$char_traits@D@std@@V?$allocator@D@2@@std@@V?$allocator@V?$basic_string@DU?$char_traits@D@std@@V?$allocator@D@2@@std@@@2@@std@@QBEIXZ ENDP ; std::vector<std::basic_string<char,std::char_traits<char>,std::allocator<char> >,std::allocator<std::basic_string<char,std::char_traits<char>,std::allocator<char> > > >::size
_TEXT	ENDS
PUBLIC	??A?$vector@V?$basic_string@DU?$char_traits@D@std@@V?$allocator@D@2@@std@@V?$allocator@V?$basic_string@DU?$char_traits@D@std@@V?$allocator@D@2@@std@@@2@@std@@QBEABV?$basic_string@DU?$char_traits@D@std@@V?$allocator@D@2@@1@I@Z ; std::vector<std::basic_string<char,std::char_traits<char>,std::allocator<char> >,std::allocator<std::basic_string<char,std::char_traits<char>,std::allocator<char> > > >::operator[]
; Function compile flags: /Ogsp
;	COMDAT ??A?$vector@V?$basic_string@DU?$char_traits@D@std@@V?$allocator@D@2@@std@@V?$allocator@V?$basic_string@DU?$char_traits@D@std@@V?$allocator@D@2@@std@@@2@@std@@QBEABV?$basic_string@DU?$char_traits@D@std@@V?$allocator@D@2@@1@I@Z
_TEXT	SEGMENT
__Pos$ = 8						; size = 4
??A?$vector@V?$basic_string@DU?$char_traits@D@std@@V?$allocator@D@2@@std@@V?$allocator@V?$basic_string@DU?$char_traits@D@std@@V?$allocator@D@2@@std@@@2@@std@@QBEABV?$basic_string@DU?$char_traits@D@std@@V?$allocator@D@2@@1@I@Z PROC ; std::vector<std::basic_string<char,std::char_traits<char>,std::allocator<char> >,std::allocator<std::basic_string<char,std::char_traits<char>,std::allocator<char> > > >::operator[], COMDAT
; _this$ = ecx

; 912  : 		{	// subscript nonmutable sequence

  00000	55		 push	 ebp
  00001	8b ec		 mov	 ebp, esp

; 913  :  #if _ITERATOR_DEBUG_LEVEL == 2
; 914  : 		if (size() <= _Pos)
; 915  : 			{	// report error
; 916  : 			_DEBUG_ERROR("vector subscript out of range");
; 917  : 			_SCL_SECURE_OUT_OF_RANGE;
; 918  : 			}
; 919  : 
; 920  :  #elif _ITERATOR_DEBUG_LEVEL == 1
; 921  : 		_SCL_SECURE_VALIDATE_RANGE(_Pos < size());
; 922  :  #endif /* _ITERATOR_DEBUG_LEVEL */
; 923  : 
; 924  : 		return (*(this->_Myfirst + _Pos));

  00003	8b 45 08	 mov	 eax, DWORD PTR __Pos$[ebp]
  00006	6b c0 1c	 imul	 eax, 28			; 0000001cH
  00009	03 01		 add	 eax, DWORD PTR [ecx]

; 925  : 		}

  0000b	5d		 pop	 ebp
  0000c	c2 04 00	 ret	 4
??A?$vector@V?$basic_string@DU?$char_traits@D@std@@V?$allocator@D@2@@std@@V?$allocator@V?$basic_string@DU?$char_traits@D@std@@V?$allocator@D@2@@std@@@2@@std@@QBEABV?$basic_string@DU?$char_traits@D@std@@V?$allocator@D@2@@1@I@Z ENDP ; std::vector<std::basic_string<char,std::char_traits<char>,std::allocator<char> >,std::allocator<std::basic_string<char,std::char_traits<char>,std::allocator<char> > > >::operator[]
_TEXT	ENDS
PUBLIC	??A?$vector@UWeaponInfo@@V?$allocator@UWeaponInfo@@@std@@@std@@QBEABUWeaponInfo@@I@Z ; std::vector<WeaponInfo,std::allocator<WeaponInfo> >::operator[]
; Function compile flags: /Ogsp
;	COMDAT ??A?$vector@UWeaponInfo@@V?$allocator@UWeaponInfo@@@std@@@std@@QBEABUWeaponInfo@@I@Z
_TEXT	SEGMENT
__Pos$ = 8						; size = 4
??A?$vector@UWeaponInfo@@V?$allocator@UWeaponInfo@@@std@@@std@@QBEABUWeaponInfo@@I@Z PROC ; std::vector<WeaponInfo,std::allocator<WeaponInfo> >::operator[], COMDAT
; _this$ = ecx

; 912  : 		{	// subscript nonmutable sequence

  00000	55		 push	 ebp
  00001	8b ec		 mov	 ebp, esp

; 913  :  #if _ITERATOR_DEBUG_LEVEL == 2
; 914  : 		if (size() <= _Pos)
; 915  : 			{	// report error
; 916  : 			_DEBUG_ERROR("vector subscript out of range");
; 917  : 			_SCL_SECURE_OUT_OF_RANGE;
; 918  : 			}
; 919  : 
; 920  :  #elif _ITERATOR_DEBUG_LEVEL == 1
; 921  : 		_SCL_SECURE_VALIDATE_RANGE(_Pos < size());
; 922  :  #endif /* _ITERATOR_DEBUG_LEVEL */
; 923  : 
; 924  : 		return (*(this->_Myfirst + _Pos));

  00003	8b 45 08	 mov	 eax, DWORD PTR __Pos$[ebp]
  00006	6b c0 28	 imul	 eax, 40			; 00000028H
  00009	03 01		 add	 eax, DWORD PTR [ecx]

; 925  : 		}

  0000b	5d		 pop	 ebp
  0000c	c2 04 00	 ret	 4
??A?$vector@UWeaponInfo@@V?$allocator@UWeaponInfo@@@std@@@std@@QBEABUWeaponInfo@@I@Z ENDP ; std::vector<WeaponInfo,std::allocator<WeaponInfo> >::operator[]
_TEXT	ENDS
PUBLIC	?empty@?$vector@UExtraAniJump@@V?$allocator@UExtraAniJump@@@std@@@std@@QBE_NXZ ; std::vector<ExtraAniJump,std::allocator<ExtraAniJump> >::empty
; Function compile flags: /Ogsp
;	COMDAT ?empty@?$vector@UExtraAniJump@@V?$allocator@UExtraAniJump@@@std@@@std@@QBE_NXZ
_TEXT	SEGMENT
?empty@?$vector@UExtraAniJump@@V?$allocator@UExtraAniJump@@@std@@@std@@QBE_NXZ PROC ; std::vector<ExtraAniJump,std::allocator<ExtraAniJump> >::empty, COMDAT
; _this$ = ecx

; 889  : 		return (this->_Myfirst == this->_Mylast);

  00000	8b 01		 mov	 eax, DWORD PTR [ecx]
  00002	2b 41 04	 sub	 eax, DWORD PTR [ecx+4]
  00005	f7 d8		 neg	 eax
  00007	1b c0		 sbb	 eax, eax
  00009	40		 inc	 eax

; 890  : 		}

  0000a	c3		 ret	 0
?empty@?$vector@UExtraAniJump@@V?$allocator@UExtraAniJump@@@std@@@std@@QBE_NXZ ENDP ; std::vector<ExtraAniJump,std::allocator<ExtraAniJump> >::empty
_TEXT	ENDS
PUBLIC	??A?$vector@UExtraAniJump@@V?$allocator@UExtraAniJump@@@std@@@std@@QAEAAUExtraAniJump@@I@Z ; std::vector<ExtraAniJump,std::allocator<ExtraAniJump> >::operator[]
; Function compile flags: /Ogsp
;	COMDAT ??A?$vector@UExtraAniJump@@V?$allocator@UExtraAniJump@@@std@@@std@@QAEAAUExtraAniJump@@I@Z
_TEXT	SEGMENT
__Pos$ = 8						; size = 4
??A?$vector@UExtraAniJump@@V?$allocator@UExtraAniJump@@@std@@@std@@QAEAAUExtraAniJump@@I@Z PROC ; std::vector<ExtraAniJump,std::allocator<ExtraAniJump> >::operator[], COMDAT
; _this$ = ecx

; 928  : 		{	// subscript mutable sequence

  00000	55		 push	 ebp
  00001	8b ec		 mov	 ebp, esp

; 929  :  #if _ITERATOR_DEBUG_LEVEL == 2
; 930  : 		if (size() <= _Pos)
; 931  : 			{	// report error
; 932  : 			_DEBUG_ERROR("vector subscript out of range");
; 933  : 			_SCL_SECURE_OUT_OF_RANGE;
; 934  : 			}
; 935  : 
; 936  :  #elif _ITERATOR_DEBUG_LEVEL == 1
; 937  : 		_SCL_SECURE_VALIDATE_RANGE(_Pos < size());
; 938  :  #endif /* _ITERATOR_DEBUG_LEVEL */
; 939  : 
; 940  : 		return (*(this->_Myfirst + _Pos));

  00003	8b 01		 mov	 eax, DWORD PTR [ecx]
  00005	8b 4d 08	 mov	 ecx, DWORD PTR __Pos$[ebp]
  00008	8d 04 c8	 lea	 eax, DWORD PTR [eax+ecx*8]

; 941  : 		}

  0000b	5d		 pop	 ebp
  0000c	c2 04 00	 ret	 4
??A?$vector@UExtraAniJump@@V?$allocator@UExtraAniJump@@@std@@@std@@QAEAAUExtraAniJump@@I@Z ENDP ; std::vector<ExtraAniJump,std::allocator<ExtraAniJump> >::operator[]
_TEXT	ENDS
PUBLIC	??8?$_Tree_const_iterator@V?$_Tree_val@V?$_Tmap_traits@HUtagDummyAttackInfo@@U?$less@H@std@@V?$allocator@U?$pair@$$CBHUtagDummyAttackInfo@@@std@@@3@$0A@@std@@@std@@@std@@QBE_NABV01@@Z ; std::_Tree_const_iterator<std::_Tree_val<std::_Tmap_traits<int,tagDummyAttackInfo,std::less<int>,std::allocator<std::pair<int const ,tagDummyAttackInfo> >,0> > >::operator==
; Function compile flags: /Ogsp
; File c:\program files (x86)\microsoft visual studio 10.0\vc\include\xtree
;	COMDAT ??8?$_Tree_const_iterator@V?$_Tree_val@V?$_Tmap_traits@HUtagDummyAttackInfo@@U?$less@H@std@@V?$allocator@U?$pair@$$CBHUtagDummyAttackInfo@@@std@@@3@$0A@@std@@@std@@@std@@QBE_NABV01@@Z
_TEXT	SEGMENT
__Right$ = 8						; size = 4
??8?$_Tree_const_iterator@V?$_Tree_val@V?$_Tmap_traits@HUtagDummyAttackInfo@@U?$less@H@std@@V?$allocator@U?$pair@$$CBHUtagDummyAttackInfo@@@std@@@3@$0A@@std@@@std@@@std@@QBE_NABV01@@Z PROC ; std::_Tree_const_iterator<std::_Tree_val<std::_Tmap_traits<int,tagDummyAttackInfo,std::less<int>,std::allocator<std::pair<int const ,tagDummyAttackInfo> >,0> > >::operator==, COMDAT
; _this$ = ecx

; 316  : 		{	// test for iterator equality

  00000	55		 push	 ebp
  00001	8b ec		 mov	 ebp, esp

; 317  :  #if _ITERATOR_DEBUG_LEVEL == 2
; 318  : 		if (this->_Getcont() == 0
; 319  : 			|| this->_Getcont() != _Right._Getcont())
; 320  : 			{	// report error
; 321  : 			_DEBUG_ERROR("map/set iterators incompatible");
; 322  : 			_SCL_SECURE_INVALID_ARGUMENT;
; 323  : 			}
; 324  : 
; 325  :  #elif _ITERATOR_DEBUG_LEVEL == 1
; 326  : 		_SCL_SECURE_VALIDATE(this->_Getcont() != 0
; 327  : 			&& this->_Getcont() == _Right._Getcont());
; 328  :  #endif /* _ITERATOR_DEBUG_LEVEL */
; 329  : 
; 330  : 		return (this->_Ptr == _Right._Ptr);

  00003	8b 01		 mov	 eax, DWORD PTR [ecx]
  00005	8b 4d 08	 mov	 ecx, DWORD PTR __Right$[ebp]
  00008	2b 01		 sub	 eax, DWORD PTR [ecx]
  0000a	f7 d8		 neg	 eax
  0000c	1b c0		 sbb	 eax, eax
  0000e	40		 inc	 eax

; 331  : 		}

  0000f	5d		 pop	 ebp
  00010	c2 04 00	 ret	 4
??8?$_Tree_const_iterator@V?$_Tree_val@V?$_Tmap_traits@HUtagDummyAttackInfo@@U?$less@H@std@@V?$allocator@U?$pair@$$CBHUtagDummyAttackInfo@@@std@@@3@$0A@@std@@@std@@@std@@QBE_NABV01@@Z ENDP ; std::_Tree_const_iterator<std::_Tree_val<std::_Tmap_traits<int,tagDummyAttackInfo,std::less<int>,std::allocator<std::pair<int const ,tagDummyAttackInfo> >,0> > >::operator==
_TEXT	ENDS
PUBLIC	?size@?$vector@PBUAniEventTime@@V?$allocator@PBUAniEventTime@@@std@@@std@@QBEIXZ ; std::vector<AniEventTime const *,std::allocator<AniEventTime const *> >::size
; Function compile flags: /Ogsp
; File c:\program files (x86)\microsoft visual studio 10.0\vc\include\vector
;	COMDAT ?size@?$vector@PBUAniEventTime@@V?$allocator@PBUAniEventTime@@@std@@@std@@QBEIXZ
_TEXT	SEGMENT
?size@?$vector@PBUAniEventTime@@V?$allocator@PBUAniEventTime@@@std@@@std@@QBEIXZ PROC ; std::vector<AniEventTime const *,std::allocator<AniEventTime const *> >::size, COMDAT
; _this$ = ecx

; 879  : 		return (this->_Mylast - this->_Myfirst);

  00000	8b 41 04	 mov	 eax, DWORD PTR [ecx+4]
  00003	2b 01		 sub	 eax, DWORD PTR [ecx]
  00005	c1 f8 02	 sar	 eax, 2

; 880  : 		}

  00008	c3		 ret	 0
?size@?$vector@PBUAniEventTime@@V?$allocator@PBUAniEventTime@@@std@@@std@@QBEIXZ ENDP ; std::vector<AniEventTime const *,std::allocator<AniEventTime const *> >::size
_TEXT	ENDS
PUBLIC	??R?$less@H@std@@QBE_NABH0@Z			; std::less<int>::operator()
; Function compile flags: /Ogsp
; File c:\program files (x86)\microsoft visual studio 10.0\vc\include\xfunctional
;	COMDAT ??R?$less@H@std@@QBE_NABH0@Z
_TEXT	SEGMENT
__Left$ = 8						; size = 4
__Right$ = 12						; size = 4
??R?$less@H@std@@QBE_NABH0@Z PROC			; std::less<int>::operator(), COMDAT
; _this$ = ecx

; 124  : 		{	// apply operator< to operands

  00000	55		 push	 ebp
  00001	8b ec		 mov	 ebp, esp

; 125  : 		return (_Left < _Right);

  00003	8b 45 08	 mov	 eax, DWORD PTR __Left$[ebp]
  00006	8b 00		 mov	 eax, DWORD PTR [eax]
  00008	8b 55 0c	 mov	 edx, DWORD PTR __Right$[ebp]
  0000b	33 c9		 xor	 ecx, ecx
  0000d	3b 02		 cmp	 eax, DWORD PTR [edx]
  0000f	0f 9c c0	 setl	 al

; 126  : 		}

  00012	5d		 pop	 ebp
  00013	c2 08 00	 ret	 8
??R?$less@H@std@@QBE_NABH0@Z ENDP			; std::less<int>::operator()
_TEXT	ENDS
PUBLIC	?_Inside@?$vector@HV?$allocator@H@std@@@std@@IBE_NPBH@Z ; std::vector<int,std::allocator<int> >::_Inside
; Function compile flags: /Ogsp
; File c:\program files (x86)\microsoft visual studio 10.0\vc\include\vector
;	COMDAT ?_Inside@?$vector@HV?$allocator@H@std@@@std@@IBE_NPBH@Z
_TEXT	SEGMENT
__Ptr$ = 8						; size = 4
?_Inside@?$vector@HV?$allocator@H@std@@@std@@IBE_NPBH@Z PROC ; std::vector<int,std::allocator<int> >::_Inside, COMDAT
; _this$ = ecx

; 1285 : 		{	// test if _Ptr points inside vector

  00000	55		 push	 ebp
  00001	8b ec		 mov	 ebp, esp

; 1286 : 		return (_Ptr < this->_Mylast && this->_Myfirst <= _Ptr);

  00003	8b 45 08	 mov	 eax, DWORD PTR __Ptr$[ebp]
  00006	3b 41 04	 cmp	 eax, DWORD PTR [ecx+4]
  00009	73 09		 jae	 SHORT $LN3@Inside
  0000b	39 01		 cmp	 DWORD PTR [ecx], eax
  0000d	77 05		 ja	 SHORT $LN3@Inside
  0000f	33 c0		 xor	 eax, eax
  00011	40		 inc	 eax
  00012	eb 02		 jmp	 SHORT $LN4@Inside
$LN3@Inside:
  00014	33 c0		 xor	 eax, eax
$LN4@Inside:

; 1287 : 		}

  00016	5d		 pop	 ebp
  00017	c2 04 00	 ret	 4
?_Inside@?$vector@HV?$allocator@H@std@@@std@@IBE_NPBH@Z ENDP ; std::vector<int,std::allocator<int> >::_Inside
_TEXT	ENDS
PUBLIC	?_Orphan_range@?$vector@HV?$allocator@H@std@@@std@@IBEXPAH0@Z ; std::vector<int,std::allocator<int> >::_Orphan_range
; Function compile flags: /Ogsp
;	COMDAT ?_Orphan_range@?$vector@HV?$allocator@H@std@@@std@@IBEXPAH0@Z
_TEXT	SEGMENT
___formal$ = 8						; size = 4
___formal$ = 12						; size = 4
?_Orphan_range@?$vector@HV?$allocator@H@std@@@std@@IBEXPAH0@Z PROC ; std::vector<int,std::allocator<int> >::_Orphan_range, COMDAT
; _this$ = ecx

; 1454 : 		}

  00000	c2 08 00	 ret	 8
?_Orphan_range@?$vector@HV?$allocator@H@std@@@std@@IBEXPAH0@Z ENDP ; std::vector<int,std::allocator<int> >::_Orphan_range
_TEXT	ENDS
PUBLIC	?_Nextnode@?$_List_val@UFireTime@@V?$allocator@UFireTime@@@std@@@std@@SAAAPAU_Node@?$_List_nod@UFireTime@@V?$allocator@UFireTime@@@std@@@2@PAU342@@Z ; std::_List_val<FireTime,std::allocator<FireTime> >::_Nextnode
; Function compile flags: /Ogsp
; File c:\program files (x86)\microsoft visual studio 10.0\vc\include\list
;	COMDAT ?_Nextnode@?$_List_val@UFireTime@@V?$allocator@UFireTime@@@std@@@std@@SAAAPAU_Node@?$_List_nod@UFireTime@@V?$allocator@UFireTime@@@std@@@2@PAU342@@Z
_TEXT	SEGMENT
__Pnode$ = 8						; size = 4
?_Nextnode@?$_List_val@UFireTime@@V?$allocator@UFireTime@@@std@@@std@@SAAAPAU_Node@?$_List_nod@UFireTime@@V?$allocator@UFireTime@@@std@@@2@PAU342@@Z PROC ; std::_List_val<FireTime,std::allocator<FireTime> >::_Nextnode, COMDAT

; 560  : 		{	// return reference to successor pointer in node

  00000	55		 push	 ebp
  00001	8b ec		 mov	 ebp, esp

; 561  : 		return ((_Nodepref)(*_Pnode)._Next);

  00003	8b 45 08	 mov	 eax, DWORD PTR __Pnode$[ebp]

; 562  : 		}

  00006	5d		 pop	 ebp
  00007	c3		 ret	 0
?_Nextnode@?$_List_val@UFireTime@@V?$allocator@UFireTime@@@std@@@std@@SAAAPAU_Node@?$_List_nod@UFireTime@@V?$allocator@UFireTime@@@std@@@2@PAU342@@Z ENDP ; std::_List_val<FireTime,std::allocator<FireTime> >::_Nextnode
_TEXT	ENDS
PUBLIC	?_Prevnode@?$_List_val@UFireTime@@V?$allocator@UFireTime@@@std@@@std@@SAAAPAU_Node@?$_List_nod@UFireTime@@V?$allocator@UFireTime@@@std@@@2@PAU342@@Z ; std::_List_val<FireTime,std::allocator<FireTime> >::_Prevnode
; Function compile flags: /Ogsp
;	COMDAT ?_Prevnode@?$_List_val@UFireTime@@V?$allocator@UFireTime@@@std@@@std@@SAAAPAU_Node@?$_List_nod@UFireTime@@V?$allocator@UFireTime@@@std@@@2@PAU342@@Z
_TEXT	SEGMENT
__Pnode$ = 8						; size = 4
?_Prevnode@?$_List_val@UFireTime@@V?$allocator@UFireTime@@@std@@@std@@SAAAPAU_Node@?$_List_nod@UFireTime@@V?$allocator@UFireTime@@@std@@@2@PAU342@@Z PROC ; std::_List_val<FireTime,std::allocator<FireTime> >::_Prevnode, COMDAT

; 565  : 		{	// return reference to predecessor pointer in node

  00000	55		 push	 ebp
  00001	8b ec		 mov	 ebp, esp

; 566  : 		return ((_Nodepref)(*_Pnode)._Prev);

  00003	8b 45 08	 mov	 eax, DWORD PTR __Pnode$[ebp]
  00006	83 c0 04	 add	 eax, 4

; 567  : 		}

  00009	5d		 pop	 ebp
  0000a	c3		 ret	 0
?_Prevnode@?$_List_val@UFireTime@@V?$allocator@UFireTime@@@std@@@std@@SAAAPAU_Node@?$_List_nod@UFireTime@@V?$allocator@UFireTime@@@std@@@2@PAU342@@Z ENDP ; std::_List_val<FireTime,std::allocator<FireTime> >::_Prevnode
_TEXT	ENDS
PUBLIC	?deallocate@?$allocator@U_Node@?$_List_nod@UFireTime@@V?$allocator@UFireTime@@@std@@@std@@@std@@QAEXPAU_Node@?$_List_nod@UFireTime@@V?$allocator@UFireTime@@@std@@@2@I@Z ; std::allocator<std::_List_nod<FireTime,std::allocator<FireTime> >::_Node>::deallocate
; Function compile flags: /Ogsp
; File c:\program files (x86)\microsoft visual studio 10.0\vc\include\xmemory
;	COMDAT ?deallocate@?$allocator@U_Node@?$_List_nod@UFireTime@@V?$allocator@UFireTime@@@std@@@std@@@std@@QAEXPAU_Node@?$_List_nod@UFireTime@@V?$allocator@UFireTime@@@std@@@2@I@Z
_TEXT	SEGMENT
__Ptr$ = 8						; size = 4
___formal$ = 12						; size = 4
?deallocate@?$allocator@U_Node@?$_List_nod@UFireTime@@V?$allocator@UFireTime@@@std@@@std@@@std@@QAEXPAU_Node@?$_List_nod@UFireTime@@V?$allocator@UFireTime@@@std@@@2@I@Z PROC ; std::allocator<std::_List_nod<FireTime,std::allocator<FireTime> >::_Node>::deallocate, COMDAT
; _this$ = ecx

; 181  : 		{	// deallocate object at _Ptr, ignore size

  00000	55		 push	 ebp
  00001	8b ec		 mov	 ebp, esp

; 182  : 		::operator delete(_Ptr);

  00003	ff 75 08	 push	 DWORD PTR __Ptr$[ebp]
  00006	e8 00 00 00 00	 call	 ??3@YAXPAX@Z		; operator delete
  0000b	59		 pop	 ecx

; 183  : 		}

  0000c	5d		 pop	 ebp
  0000d	c2 08 00	 ret	 8
?deallocate@?$allocator@U_Node@?$_List_nod@UFireTime@@V?$allocator@UFireTime@@@std@@@std@@@std@@QAEXPAU_Node@?$_List_nod@UFireTime@@V?$allocator@UFireTime@@@std@@@2@I@Z ENDP ; std::allocator<std::_List_nod<FireTime,std::allocator<FireTime> >::_Node>::deallocate
_TEXT	ENDS
PUBLIC	?_Inside@?$vector@UExtraAniJump@@V?$allocator@UExtraAniJump@@@std@@@std@@IBE_NPBUExtraAniJump@@@Z ; std::vector<ExtraAniJump,std::allocator<ExtraAniJump> >::_Inside
; Function compile flags: /Ogsp
; File c:\program files (x86)\microsoft visual studio 10.0\vc\include\vector
;	COMDAT ?_Inside@?$vector@UExtraAniJump@@V?$allocator@UExtraAniJump@@@std@@@std@@IBE_NPBUExtraAniJump@@@Z
_TEXT	SEGMENT
__Ptr$ = 8						; size = 4
?_Inside@?$vector@UExtraAniJump@@V?$allocator@UExtraAniJump@@@std@@@std@@IBE_NPBUExtraAniJump@@@Z PROC ; std::vector<ExtraAniJump,std::allocator<ExtraAniJump> >::_Inside, COMDAT
; _this$ = ecx

; 1285 : 		{	// test if _Ptr points inside vector

  00000	55		 push	 ebp
  00001	8b ec		 mov	 ebp, esp

; 1286 : 		return (_Ptr < this->_Mylast && this->_Myfirst <= _Ptr);

  00003	8b 45 08	 mov	 eax, DWORD PTR __Ptr$[ebp]
  00006	3b 41 04	 cmp	 eax, DWORD PTR [ecx+4]
  00009	73 09		 jae	 SHORT $LN3@Inside@2
  0000b	39 01		 cmp	 DWORD PTR [ecx], eax
  0000d	77 05		 ja	 SHORT $LN3@Inside@2
  0000f	33 c0		 xor	 eax, eax
  00011	40		 inc	 eax
  00012	eb 02		 jmp	 SHORT $LN4@Inside@2
$LN3@Inside@2:
  00014	33 c0		 xor	 eax, eax
$LN4@Inside@2:

; 1287 : 		}

  00016	5d		 pop	 ebp
  00017	c2 04 00	 ret	 4
?_Inside@?$vector@UExtraAniJump@@V?$allocator@UExtraAniJump@@@std@@@std@@IBE_NPBUExtraAniJump@@@Z ENDP ; std::vector<ExtraAniJump,std::allocator<ExtraAniJump> >::_Inside
_TEXT	ENDS
PUBLIC	?_Orphan_range@?$vector@UExtraAniJump@@V?$allocator@UExtraAniJump@@@std@@@std@@IBEXPAUExtraAniJump@@0@Z ; std::vector<ExtraAniJump,std::allocator<ExtraAniJump> >::_Orphan_range
; Function compile flags: /Ogsp
;	COMDAT ?_Orphan_range@?$vector@UExtraAniJump@@V?$allocator@UExtraAniJump@@@std@@@std@@IBEXPAUExtraAniJump@@0@Z
_TEXT	SEGMENT
___formal$ = 8						; size = 4
___formal$ = 12						; size = 4
?_Orphan_range@?$vector@UExtraAniJump@@V?$allocator@UExtraAniJump@@@std@@@std@@IBEXPAUExtraAniJump@@0@Z PROC ; std::vector<ExtraAniJump,std::allocator<ExtraAniJump> >::_Orphan_range, COMDAT
; _this$ = ecx

; 1454 : 		}

  00000	c2 08 00	 ret	 8
?_Orphan_range@?$vector@UExtraAniJump@@V?$allocator@UExtraAniJump@@@std@@@std@@IBEXPAUExtraAniJump@@0@Z ENDP ; std::vector<ExtraAniJump,std::allocator<ExtraAniJump> >::_Orphan_range
_TEXT	ENDS
PUBLIC	?_Nextnode@?$_List_val@MV?$allocator@M@std@@@std@@SAAAPAU_Node@?$_List_nod@MV?$allocator@M@std@@@2@PAU342@@Z ; std::_List_val<float,std::allocator<float> >::_Nextnode
; Function compile flags: /Ogsp
; File c:\program files (x86)\microsoft visual studio 10.0\vc\include\list
;	COMDAT ?_Nextnode@?$_List_val@MV?$allocator@M@std@@@std@@SAAAPAU_Node@?$_List_nod@MV?$allocator@M@std@@@2@PAU342@@Z
_TEXT	SEGMENT
__Pnode$ = 8						; size = 4
?_Nextnode@?$_List_val@MV?$allocator@M@std@@@std@@SAAAPAU_Node@?$_List_nod@MV?$allocator@M@std@@@2@PAU342@@Z PROC ; std::_List_val<float,std::allocator<float> >::_Nextnode, COMDAT

; 560  : 		{	// return reference to successor pointer in node

  00000	55		 push	 ebp
  00001	8b ec		 mov	 ebp, esp

; 561  : 		return ((_Nodepref)(*_Pnode)._Next);

  00003	8b 45 08	 mov	 eax, DWORD PTR __Pnode$[ebp]

; 562  : 		}

  00006	5d		 pop	 ebp
  00007	c3		 ret	 0
?_Nextnode@?$_List_val@MV?$allocator@M@std@@@std@@SAAAPAU_Node@?$_List_nod@MV?$allocator@M@std@@@2@PAU342@@Z ENDP ; std::_List_val<float,std::allocator<float> >::_Nextnode
_TEXT	ENDS
PUBLIC	??D?$_Vector_const_iterator@V?$_Vector_val@HV?$allocator@H@std@@@std@@@std@@QBEABHXZ ; std::_Vector_const_iterator<std::_Vector_val<int,std::allocator<int> > >::operator*
; Function compile flags: /Ogsp
; File c:\program files (x86)\microsoft visual studio 10.0\vc\include\vector
;	COMDAT ??D?$_Vector_const_iterator@V?$_Vector_val@HV?$allocator@H@std@@@std@@@std@@QBEABHXZ
_TEXT	SEGMENT
??D?$_Vector_const_iterator@V?$_Vector_val@HV?$allocator@H@std@@@std@@@std@@QBEABHXZ PROC ; std::_Vector_const_iterator<std::_Vector_val<int,std::allocator<int> > >::operator*, COMDAT
; _this$ = ecx

; 64   :  #if _ITERATOR_DEBUG_LEVEL == 2
; 65   : 		if (this->_Getcont() == 0
; 66   : 			|| this->_Ptr == 0
; 67   : 			|| this->_Ptr < ((_Myvec *)this->_Getcont())->_Myfirst
; 68   : 			|| ((_Myvec *)this->_Getcont())->_Mylast <= this->_Ptr)
; 69   : 			{	// report error
; 70   : 			_DEBUG_ERROR("vector iterator not dereferencable");
; 71   : 			_SCL_SECURE_OUT_OF_RANGE;
; 72   : 			}
; 73   : 
; 74   :  #elif _ITERATOR_DEBUG_LEVEL == 1
; 75   : 		_SCL_SECURE_VALIDATE(this->_Getcont() != 0);
; 76   : 		_SCL_SECURE_VALIDATE_RANGE(
; 77   : 			this->_Ptr != 0
; 78   : 			&& ((_Myvec *)this->_Getcont())->_Myfirst <= this->_Ptr
; 79   : 			&& this->_Ptr < ((_Myvec *)this->_Getcont())->_Mylast);
; 80   :  #endif /* _ITERATOR_DEBUG_LEVEL */
; 81   : 
; 82   : 		__analysis_assume(this->_Ptr != 0);
; 83   : 
; 84   : 		return (*this->_Ptr);

  00000	8b 01		 mov	 eax, DWORD PTR [ecx]

; 85   : 		}

  00002	c3		 ret	 0
??D?$_Vector_const_iterator@V?$_Vector_val@HV?$allocator@H@std@@@std@@@std@@QBEABHXZ ENDP ; std::_Vector_const_iterator<std::_Vector_val<int,std::allocator<int> > >::operator*
_TEXT	ENDS
PUBLIC	?_Mynode@?$_Tree_unchecked_const_iterator@V?$_Tree_val@V?$_Tmap_traits@HUtagDummyAttackInfo@@U?$less@H@std@@V?$allocator@U?$pair@$$CBHUtagDummyAttackInfo@@@std@@@3@$0A@@std@@@std@@U_Iterator_base0@2@@std@@QBEPAU_Node@?$_Tree_nod@V?$_Tmap_traits@HUtagDummyAttackInfo@@U?$less@H@std@@V?$allocator@U?$pair@$$CBHUtagDummyAttackInfo@@@std@@@3@$0A@@std@@@2@XZ ; std::_Tree_unchecked_const_iterator<std::_Tree_val<std::_Tmap_traits<int,tagDummyAttackInfo,std::less<int>,std::allocator<std::pair<int const ,tagDummyAttackInfo> >,0> >,std::_Iterator_base0>::_Mynode
; Function compile flags: /Ogsp
; File c:\program files (x86)\microsoft visual studio 10.0\vc\include\xtree
;	COMDAT ?_Mynode@?$_Tree_unchecked_const_iterator@V?$_Tree_val@V?$_Tmap_traits@HUtagDummyAttackInfo@@U?$less@H@std@@V?$allocator@U?$pair@$$CBHUtagDummyAttackInfo@@@std@@@3@$0A@@std@@@std@@U_Iterator_base0@2@@std@@QBEPAU_Node@?$_Tree_nod@V?$_Tmap_traits@HUtagDummyAttackInfo@@U?$less@H@std@@V?$allocator@U?$pair@$$CBHUtagDummyAttackInfo@@@std@@@3@$0A@@std@@@2@XZ
_TEXT	SEGMENT
?_Mynode@?$_Tree_unchecked_const_iterator@V?$_Tree_val@V?$_Tmap_traits@HUtagDummyAttackInfo@@U?$less@H@std@@V?$allocator@U?$pair@$$CBHUtagDummyAttackInfo@@@std@@@3@$0A@@std@@@std@@U_Iterator_base0@2@@std@@QBEPAU_Node@?$_Tree_nod@V?$_Tmap_traits@HUtagDummyAttackInfo@@U?$less@H@std@@V?$allocator@U?$pair@$$CBHUtagDummyAttackInfo@@@std@@@3@$0A@@std@@@2@XZ PROC ; std::_Tree_unchecked_const_iterator<std::_Tree_val<std::_Tmap_traits<int,tagDummyAttackInfo,std::less<int>,std::allocator<std::pair<int const ,tagDummyAttackInfo> >,0> >,std::_Iterator_base0>::_Mynode, COMDAT
; _this$ = ecx

; 122  : 		return (_Ptr);

  00000	8b 01		 mov	 eax, DWORD PTR [ecx]

; 123  : 		}

  00002	c3		 ret	 0
?_Mynode@?$_Tree_unchecked_const_iterator@V?$_Tree_val@V?$_Tmap_traits@HUtagDummyAttackInfo@@U?$less@H@std@@V?$allocator@U?$pair@$$CBHUtagDummyAttackInfo@@@std@@@3@$0A@@std@@@std@@U_Iterator_base0@2@@std@@QBEPAU_Node@?$_Tree_nod@V?$_Tmap_traits@HUtagDummyAttackInfo@@U?$less@H@std@@V?$allocator@U?$pair@$$CBHUtagDummyAttackInfo@@@std@@@3@$0A@@std@@@2@XZ ENDP ; std::_Tree_unchecked_const_iterator<std::_Tree_val<std::_Tmap_traits<int,tagDummyAttackInfo,std::less<int>,std::allocator<std::pair<int const ,tagDummyAttackInfo> >,0> >,std::_Iterator_base0>::_Mynode
_TEXT	ENDS
PUBLIC	??1?$_Vector_val@PBUAniEventTime@@V?$allocator@PBUAniEventTime@@@std@@@std@@QAE@XZ ; std::_Vector_val<AniEventTime const *,std::allocator<AniEventTime const *> >::~_Vector_val<AniEventTime const *,std::allocator<AniEventTime const *> >
; Function compile flags: /Ogsp
; File c:\program files (x86)\microsoft visual studio 10.0\vc\include\vector
;	COMDAT ??1?$_Vector_val@PBUAniEventTime@@V?$allocator@PBUAniEventTime@@@std@@@std@@QAE@XZ
_TEXT	SEGMENT
??1?$_Vector_val@PBUAniEventTime@@V?$allocator@PBUAniEventTime@@@std@@@std@@QAE@XZ PROC ; std::_Vector_val<AniEventTime const *,std::allocator<AniEventTime const *> >::~_Vector_val<AniEventTime const *,std::allocator<AniEventTime const *> >, COMDAT
; _this$ = ecx

; 434  : 		}

  00000	c3		 ret	 0
??1?$_Vector_val@PBUAniEventTime@@V?$allocator@PBUAniEventTime@@@std@@@std@@QAE@XZ ENDP ; std::_Vector_val<AniEventTime const *,std::allocator<AniEventTime const *> >::~_Vector_val<AniEventTime const *,std::allocator<AniEventTime const *> >
_TEXT	ENDS
PUBLIC	??0?$allocator@PBUAniEventTime@@@std@@QAE@XZ	; std::allocator<AniEventTime const *>::allocator<AniEventTime const *>
; Function compile flags: /Ogsp
; File c:\program files (x86)\microsoft visual studio 10.0\vc\include\xmemory
;	COMDAT ??0?$allocator@PBUAniEventTime@@@std@@QAE@XZ
_TEXT	SEGMENT
??0?$allocator@PBUAniEventTime@@@std@@QAE@XZ PROC	; std::allocator<AniEventTime const *>::allocator<AniEventTime const *>, COMDAT
; _this$ = ecx

; 161  : 	_ALLOCATOR() _THROW0()

  00000	8b c1		 mov	 eax, ecx

; 162  : 		{	// construct default allocator (do nothing)
; 163  : 		}

  00002	c3		 ret	 0
??0?$allocator@PBUAniEventTime@@@std@@QAE@XZ ENDP	; std::allocator<AniEventTime const *>::allocator<AniEventTime const *>
_TEXT	ENDS
PUBLIC	??0?$_Vector_const_iterator@V?$_Vector_val@PBUAniEventTime@@V?$allocator@PBUAniEventTime@@@std@@@std@@@std@@QAE@XZ ; std::_Vector_const_iterator<std::_Vector_val<AniEventTime const *,std::allocator<AniEventTime const *> > >::_Vector_const_iterator<std::_Vector_val<AniEventTime const *,std::allocator<AniEventTime const *> > >
; Function compile flags: /Ogsp
; File c:\program files (x86)\microsoft visual studio 10.0\vc\include\vector
;	COMDAT ??0?$_Vector_const_iterator@V?$_Vector_val@PBUAniEventTime@@V?$allocator@PBUAniEventTime@@@std@@@std@@@std@@QAE@XZ
_TEXT	SEGMENT
??0?$_Vector_const_iterator@V?$_Vector_val@PBUAniEventTime@@V?$allocator@PBUAniEventTime@@@std@@@std@@@std@@QAE@XZ PROC ; std::_Vector_const_iterator<std::_Vector_val<AniEventTime const *,std::allocator<AniEventTime const *> > >::_Vector_const_iterator<std::_Vector_val<AniEventTime const *,std::allocator<AniEventTime const *> > >, COMDAT
; _this$ = ecx

; 40   : 		{	// construct with null pointer

  00000	8b c1		 mov	 eax, ecx
  00002	83 20 00	 and	 DWORD PTR [eax], 0

; 41   : 		}

  00005	c3		 ret	 0
??0?$_Vector_const_iterator@V?$_Vector_val@PBUAniEventTime@@V?$allocator@PBUAniEventTime@@@std@@@std@@@std@@QAE@XZ ENDP ; std::_Vector_const_iterator<std::_Vector_val<AniEventTime const *,std::allocator<AniEventTime const *> > >::_Vector_const_iterator<std::_Vector_val<AniEventTime const *,std::allocator<AniEventTime const *> > >
_TEXT	ENDS
PUBLIC	??D?$_Vector_const_iterator@V?$_Vector_val@PBUAniEventTime@@V?$allocator@PBUAniEventTime@@@std@@@std@@@std@@QBEABQBUAniEventTime@@XZ ; std::_Vector_const_iterator<std::_Vector_val<AniEventTime const *,std::allocator<AniEventTime const *> > >::operator*
; Function compile flags: /Ogsp
;	COMDAT ??D?$_Vector_const_iterator@V?$_Vector_val@PBUAniEventTime@@V?$allocator@PBUAniEventTime@@@std@@@std@@@std@@QBEABQBUAniEventTime@@XZ
_TEXT	SEGMENT
??D?$_Vector_const_iterator@V?$_Vector_val@PBUAniEventTime@@V?$allocator@PBUAniEventTime@@@std@@@std@@@std@@QBEABQBUAniEventTime@@XZ PROC ; std::_Vector_const_iterator<std::_Vector_val<AniEventTime const *,std::allocator<AniEventTime const *> > >::operator*, COMDAT
; _this$ = ecx

; 64   :  #if _ITERATOR_DEBUG_LEVEL == 2
; 65   : 		if (this->_Getcont() == 0
; 66   : 			|| this->_Ptr == 0
; 67   : 			|| this->_Ptr < ((_Myvec *)this->_Getcont())->_Myfirst
; 68   : 			|| ((_Myvec *)this->_Getcont())->_Mylast <= this->_Ptr)
; 69   : 			{	// report error
; 70   : 			_DEBUG_ERROR("vector iterator not dereferencable");
; 71   : 			_SCL_SECURE_OUT_OF_RANGE;
; 72   : 			}
; 73   : 
; 74   :  #elif _ITERATOR_DEBUG_LEVEL == 1
; 75   : 		_SCL_SECURE_VALIDATE(this->_Getcont() != 0);
; 76   : 		_SCL_SECURE_VALIDATE_RANGE(
; 77   : 			this->_Ptr != 0
; 78   : 			&& ((_Myvec *)this->_Getcont())->_Myfirst <= this->_Ptr
; 79   : 			&& this->_Ptr < ((_Myvec *)this->_Getcont())->_Mylast);
; 80   :  #endif /* _ITERATOR_DEBUG_LEVEL */
; 81   : 
; 82   : 		__analysis_assume(this->_Ptr != 0);
; 83   : 
; 84   : 		return (*this->_Ptr);

  00000	8b 01		 mov	 eax, DWORD PTR [ecx]

; 85   : 		}

  00002	c3		 ret	 0
??D?$_Vector_const_iterator@V?$_Vector_val@PBUAniEventTime@@V?$allocator@PBUAniEventTime@@@std@@@std@@@std@@QBEABQBUAniEventTime@@XZ ENDP ; std::_Vector_const_iterator<std::_Vector_val<AniEventTime const *,std::allocator<AniEventTime const *> > >::operator*
_TEXT	ENDS
PUBLIC	??E?$_Vector_const_iterator@V?$_Vector_val@PBUAniEventTime@@V?$allocator@PBUAniEventTime@@@std@@@std@@@std@@QAEAAV01@XZ ; std::_Vector_const_iterator<std::_Vector_val<AniEventTime const *,std::allocator<AniEventTime const *> > >::operator++
; Function compile flags: /Ogsp
;	COMDAT ??E?$_Vector_const_iterator@V?$_Vector_val@PBUAniEventTime@@V?$allocator@PBUAniEventTime@@@std@@@std@@@std@@QAEAAV01@XZ
_TEXT	SEGMENT
??E?$_Vector_const_iterator@V?$_Vector_val@PBUAniEventTime@@V?$allocator@PBUAniEventTime@@@std@@@std@@@std@@QAEAAV01@XZ PROC ; std::_Vector_const_iterator<std::_Vector_val<AniEventTime const *,std::allocator<AniEventTime const *> > >::operator++, COMDAT
; _this$ = ecx

; 93   : 		{	// preincrement

  00000	8b c1		 mov	 eax, ecx

; 94   :  #if _ITERATOR_DEBUG_LEVEL == 2
; 95   : 		if (this->_Getcont() == 0
; 96   : 			|| this->_Ptr == 0
; 97   : 			|| ((_Myvec *)this->_Getcont())->_Mylast <= this->_Ptr)
; 98   : 			{	// report error
; 99   : 			_DEBUG_ERROR("vector iterator not incrementable");
; 100  : 			_SCL_SECURE_OUT_OF_RANGE;
; 101  : 			}
; 102  : 
; 103  :  #elif _ITERATOR_DEBUG_LEVEL == 1
; 104  : 		_SCL_SECURE_VALIDATE(this->_Getcont() != 0);
; 105  : 		_SCL_SECURE_VALIDATE_RANGE(
; 106  : 			this->_Ptr != 0
; 107  : 			&& this->_Ptr < ((_Myvec *)this->_Getcont())->_Mylast);
; 108  :  #endif /* _ITERATOR_DEBUG_LEVEL */
; 109  : 
; 110  : 		++this->_Ptr;

  00002	83 00 04	 add	 DWORD PTR [eax], 4

; 111  : 		return (*this);
; 112  : 		}

  00005	c3		 ret	 0
??E?$_Vector_const_iterator@V?$_Vector_val@PBUAniEventTime@@V?$allocator@PBUAniEventTime@@@std@@@std@@@std@@QAEAAV01@XZ ENDP ; std::_Vector_const_iterator<std::_Vector_val<AniEventTime const *,std::allocator<AniEventTime const *> > >::operator++
_TEXT	ENDS
PUBLIC	??E?$_List_const_iterator@V?$_List_val@MV?$allocator@M@std@@@std@@@std@@QAEAAV01@XZ ; std::_List_const_iterator<std::_List_val<float,std::allocator<float> > >::operator++
; Function compile flags: /Ogsp
; File c:\program files (x86)\microsoft visual studio 10.0\vc\include\list
;	COMDAT ??E?$_List_const_iterator@V?$_List_val@MV?$allocator@M@std@@@std@@@std@@QAEAAV01@XZ
_TEXT	SEGMENT
??E?$_List_const_iterator@V?$_List_val@MV?$allocator@M@std@@@std@@@std@@QAEAAV01@XZ PROC ; std::_List_const_iterator<std::_List_val<float,std::allocator<float> > >::operator++, COMDAT
; _this$ = ecx

; 221  : 		{	// preincrement

  00000	8b c1		 mov	 eax, ecx

; 222  :  #if _ITERATOR_DEBUG_LEVEL == 2
; 223  : 		if (this->_Getcont() == 0
; 224  : 			|| this->_Ptr == 0
; 225  : 			|| this->_Ptr == ((_Mylist *)this->_Getcont())->_Myhead)
; 226  : 			{	// report error
; 227  : 			_DEBUG_ERROR("list iterator not incrementable");
; 228  : 			_SCL_SECURE_OUT_OF_RANGE;
; 229  : 			}
; 230  : 
; 231  :  #elif _ITERATOR_DEBUG_LEVEL == 1
; 232  : 		_SCL_SECURE_VALIDATE(this->_Getcont() != 0 && this->_Ptr != 0);
; 233  : 		_SCL_SECURE_VALIDATE_RANGE(this->_Ptr !=
; 234  : 			((_Mylist *)this->_Getcont())->_Myhead);
; 235  :  #endif /* _ITERATOR_DEBUG_LEVEL */
; 236  : 
; 237  : 		this->_Ptr = _Mylist::_Nextnode(this->_Ptr);

  00002	8b 08		 mov	 ecx, DWORD PTR [eax]
  00004	8b 09		 mov	 ecx, DWORD PTR [ecx]
  00006	89 08		 mov	 DWORD PTR [eax], ecx

; 238  : 		return (*this);
; 239  : 		}

  00008	c3		 ret	 0
??E?$_List_const_iterator@V?$_List_val@MV?$allocator@M@std@@@std@@@std@@QAEAAV01@XZ ENDP ; std::_List_const_iterator<std::_List_val<float,std::allocator<float> > >::operator++
_TEXT	ENDS
PUBLIC	??8?$_List_const_iterator@V?$_List_val@MV?$allocator@M@std@@@std@@@std@@QBE_NABV01@@Z ; std::_List_const_iterator<std::_List_val<float,std::allocator<float> > >::operator==
; Function compile flags: /Ogsp
;	COMDAT ??8?$_List_const_iterator@V?$_List_val@MV?$allocator@M@std@@@std@@@std@@QBE_NABV01@@Z
_TEXT	SEGMENT
__Right$ = 8						; size = 4
??8?$_List_const_iterator@V?$_List_val@MV?$allocator@M@std@@@std@@@std@@QBE_NABV01@@Z PROC ; std::_List_const_iterator<std::_List_val<float,std::allocator<float> > >::operator==, COMDAT
; _this$ = ecx

; 281  : 		{	// test for iterator equality

  00000	55		 push	 ebp
  00001	8b ec		 mov	 ebp, esp

; 282  :  #if _ITERATOR_DEBUG_LEVEL == 2
; 283  : 		if (this->_Getcont() == 0
; 284  : 			|| this->_Getcont() != _Right._Getcont())
; 285  : 			{	// report error
; 286  : 			_DEBUG_ERROR("list iterators incompatible");
; 287  : 			_SCL_SECURE_INVALID_ARGUMENT;
; 288  : 			}
; 289  : 
; 290  :  #elif _ITERATOR_DEBUG_LEVEL == 1
; 291  : 		_SCL_SECURE_VALIDATE(this->_Getcont() != 0
; 292  : 			&& this->_Getcont() == _Right._Getcont());
; 293  :  #endif /* _ITERATOR_DEBUG_LEVEL */
; 294  : 
; 295  : 		return (this->_Ptr == _Right._Ptr);

  00003	8b 01		 mov	 eax, DWORD PTR [ecx]
  00005	8b 4d 08	 mov	 ecx, DWORD PTR __Right$[ebp]
  00008	2b 01		 sub	 eax, DWORD PTR [ecx]
  0000a	f7 d8		 neg	 eax
  0000c	1b c0		 sbb	 eax, eax
  0000e	40		 inc	 eax

; 296  : 		}

  0000f	5d		 pop	 ebp
  00010	c2 04 00	 ret	 4
??8?$_List_const_iterator@V?$_List_val@MV?$allocator@M@std@@@std@@@std@@QBE_NABV01@@Z ENDP ; std::_List_const_iterator<std::_List_val<float,std::allocator<float> > >::operator==
_TEXT	ENDS
PUBLIC	??E?$_List_const_iterator@V?$_List_val@UFireTime@@V?$allocator@UFireTime@@@std@@@std@@@std@@QAEAAV01@XZ ; std::_List_const_iterator<std::_List_val<FireTime,std::allocator<FireTime> > >::operator++
; Function compile flags: /Ogsp
;	COMDAT ??E?$_List_const_iterator@V?$_List_val@UFireTime@@V?$allocator@UFireTime@@@std@@@std@@@std@@QAEAAV01@XZ
_TEXT	SEGMENT
??E?$_List_const_iterator@V?$_List_val@UFireTime@@V?$allocator@UFireTime@@@std@@@std@@@std@@QAEAAV01@XZ PROC ; std::_List_const_iterator<std::_List_val<FireTime,std::allocator<FireTime> > >::operator++, COMDAT
; _this$ = ecx

; 221  : 		{	// preincrement

  00000	8b c1		 mov	 eax, ecx

; 222  :  #if _ITERATOR_DEBUG_LEVEL == 2
; 223  : 		if (this->_Getcont() == 0
; 224  : 			|| this->_Ptr == 0
; 225  : 			|| this->_Ptr == ((_Mylist *)this->_Getcont())->_Myhead)
; 226  : 			{	// report error
; 227  : 			_DEBUG_ERROR("list iterator not incrementable");
; 228  : 			_SCL_SECURE_OUT_OF_RANGE;
; 229  : 			}
; 230  : 
; 231  :  #elif _ITERATOR_DEBUG_LEVEL == 1
; 232  : 		_SCL_SECURE_VALIDATE(this->_Getcont() != 0 && this->_Ptr != 0);
; 233  : 		_SCL_SECURE_VALIDATE_RANGE(this->_Ptr !=
; 234  : 			((_Mylist *)this->_Getcont())->_Myhead);
; 235  :  #endif /* _ITERATOR_DEBUG_LEVEL */
; 236  : 
; 237  : 		this->_Ptr = _Mylist::_Nextnode(this->_Ptr);

  00002	8b 08		 mov	 ecx, DWORD PTR [eax]
  00004	8b 09		 mov	 ecx, DWORD PTR [ecx]
  00006	89 08		 mov	 DWORD PTR [eax], ecx

; 238  : 		return (*this);
; 239  : 		}

  00008	c3		 ret	 0
??E?$_List_const_iterator@V?$_List_val@UFireTime@@V?$allocator@UFireTime@@@std@@@std@@@std@@QAEAAV01@XZ ENDP ; std::_List_const_iterator<std::_List_val<FireTime,std::allocator<FireTime> > >::operator++
_TEXT	ENDS
PUBLIC	??E?$_List_const_iterator@V?$_List_val@UFireTime@@V?$allocator@UFireTime@@@std@@@std@@@std@@QAE?AV01@H@Z ; std::_List_const_iterator<std::_List_val<FireTime,std::allocator<FireTime> > >::operator++
; Function compile flags: /Ogsp
;	COMDAT ??E?$_List_const_iterator@V?$_List_val@UFireTime@@V?$allocator@UFireTime@@@std@@@std@@@std@@QAE?AV01@H@Z
_TEXT	SEGMENT
___$ReturnUdt$ = 8					; size = 4
___formal$ = 12						; size = 4
??E?$_List_const_iterator@V?$_List_val@UFireTime@@V?$allocator@UFireTime@@@std@@@std@@@std@@QAE?AV01@H@Z PROC ; std::_List_const_iterator<std::_List_val<FireTime,std::allocator<FireTime> > >::operator++, COMDAT
; _this$ = ecx

; 242  : 		{	// postincrement

  00000	55		 push	 ebp
  00001	8b ec		 mov	 ebp, esp

; 243  : 		_Myiter _Tmp = *this;

  00003	8b 11		 mov	 edx, DWORD PTR [ecx]
  00005	8b 45 08	 mov	 eax, DWORD PTR ___$ReturnUdt$[ebp]
  00008	89 10		 mov	 DWORD PTR [eax], edx

; 244  : 		++*this;

  0000a	8b 12		 mov	 edx, DWORD PTR [edx]
  0000c	89 11		 mov	 DWORD PTR [ecx], edx

; 245  : 		return (_Tmp);
; 246  : 		}

  0000e	5d		 pop	 ebp
  0000f	c2 08 00	 ret	 8
??E?$_List_const_iterator@V?$_List_val@UFireTime@@V?$allocator@UFireTime@@@std@@@std@@@std@@QAE?AV01@H@Z ENDP ; std::_List_const_iterator<std::_List_val<FireTime,std::allocator<FireTime> > >::operator++
_TEXT	ENDS
PUBLIC	??8?$_List_const_iterator@V?$_List_val@UFireTime@@V?$allocator@UFireTime@@@std@@@std@@@std@@QBE_NABV01@@Z ; std::_List_const_iterator<std::_List_val<FireTime,std::allocator<FireTime> > >::operator==
; Function compile flags: /Ogsp
;	COMDAT ??8?$_List_const_iterator@V?$_List_val@UFireTime@@V?$allocator@UFireTime@@@std@@@std@@@std@@QBE_NABV01@@Z
_TEXT	SEGMENT
__Right$ = 8						; size = 4
??8?$_List_const_iterator@V?$_List_val@UFireTime@@V?$allocator@UFireTime@@@std@@@std@@@std@@QBE_NABV01@@Z PROC ; std::_List_const_iterator<std::_List_val<FireTime,std::allocator<FireTime> > >::operator==, COMDAT
; _this$ = ecx

; 281  : 		{	// test for iterator equality

  00000	55		 push	 ebp
  00001	8b ec		 mov	 ebp, esp

; 282  :  #if _ITERATOR_DEBUG_LEVEL == 2
; 283  : 		if (this->_Getcont() == 0
; 284  : 			|| this->_Getcont() != _Right._Getcont())
; 285  : 			{	// report error
; 286  : 			_DEBUG_ERROR("list iterators incompatible");
; 287  : 			_SCL_SECURE_INVALID_ARGUMENT;
; 288  : 			}
; 289  : 
; 290  :  #elif _ITERATOR_DEBUG_LEVEL == 1
; 291  : 		_SCL_SECURE_VALIDATE(this->_Getcont() != 0
; 292  : 			&& this->_Getcont() == _Right._Getcont());
; 293  :  #endif /* _ITERATOR_DEBUG_LEVEL */
; 294  : 
; 295  : 		return (this->_Ptr == _Right._Ptr);

  00003	8b 01		 mov	 eax, DWORD PTR [ecx]
  00005	8b 4d 08	 mov	 ecx, DWORD PTR __Right$[ebp]
  00008	2b 01		 sub	 eax, DWORD PTR [ecx]
  0000a	f7 d8		 neg	 eax
  0000c	1b c0		 sbb	 eax, eax
  0000e	40		 inc	 eax

; 296  : 		}

  0000f	5d		 pop	 ebp
  00010	c2 04 00	 ret	 4
??8?$_List_const_iterator@V?$_List_val@UFireTime@@V?$allocator@UFireTime@@@std@@@std@@@std@@QBE_NABV01@@Z ENDP ; std::_List_const_iterator<std::_List_val<FireTime,std::allocator<FireTime> > >::operator==
_TEXT	ENDS
PUBLIC	?_Mynode@?$_List_unchecked_const_iterator@V?$_List_val@UFireTime@@V?$allocator@UFireTime@@@std@@@std@@U_Iterator_base0@2@@std@@QBEPAU_Node@?$_List_nod@UFireTime@@V?$allocator@UFireTime@@@std@@@2@XZ ; std::_List_unchecked_const_iterator<std::_List_val<FireTime,std::allocator<FireTime> >,std::_Iterator_base0>::_Mynode
; Function compile flags: /Ogsp
;	COMDAT ?_Mynode@?$_List_unchecked_const_iterator@V?$_List_val@UFireTime@@V?$allocator@UFireTime@@@std@@@std@@U_Iterator_base0@2@@std@@QBEPAU_Node@?$_List_nod@UFireTime@@V?$allocator@UFireTime@@@std@@@2@XZ
_TEXT	SEGMENT
?_Mynode@?$_List_unchecked_const_iterator@V?$_List_val@UFireTime@@V?$allocator@UFireTime@@@std@@@std@@U_Iterator_base0@2@@std@@QBEPAU_Node@?$_List_nod@UFireTime@@V?$allocator@UFireTime@@@std@@@2@XZ PROC ; std::_List_unchecked_const_iterator<std::_List_val<FireTime,std::allocator<FireTime> >,std::_Iterator_base0>::_Mynode, COMDAT
; _this$ = ecx

; 93   : 		return (_Ptr);

  00000	8b 01		 mov	 eax, DWORD PTR [ecx]

; 94   : 		}

  00002	c3		 ret	 0
?_Mynode@?$_List_unchecked_const_iterator@V?$_List_val@UFireTime@@V?$allocator@UFireTime@@@std@@@std@@U_Iterator_base0@2@@std@@QBEPAU_Node@?$_List_nod@UFireTime@@V?$allocator@UFireTime@@@std@@@2@XZ ENDP ; std::_List_unchecked_const_iterator<std::_List_val<FireTime,std::allocator<FireTime> >,std::_Iterator_base0>::_Mynode
_TEXT	ENDS
PUBLIC	?_Myval@?$_Tree_val@V?$_Tmap_traits@HUtagDummyAttackInfo@@U?$less@H@std@@V?$allocator@U?$pair@$$CBHUtagDummyAttackInfo@@@std@@@3@$0A@@std@@@std@@SAAAU?$pair@$$CBHUtagDummyAttackInfo@@@2@PAU_Node@?$_Tree_nod@V?$_Tmap_traits@HUtagDummyAttackInfo@@U?$less@H@std@@V?$allocator@U?$pair@$$CBHUtagDummyAttackInfo@@@std@@@3@$0A@@std@@@2@@Z ; std::_Tree_val<std::_Tmap_traits<int,tagDummyAttackInfo,std::less<int>,std::allocator<std::pair<int const ,tagDummyAttackInfo> >,0> >::_Myval
; Function compile flags: /Ogsp
; File c:\program files (x86)\microsoft visual studio 10.0\vc\include\xtree
;	COMDAT ?_Myval@?$_Tree_val@V?$_Tmap_traits@HUtagDummyAttackInfo@@U?$less@H@std@@V?$allocator@U?$pair@$$CBHUtagDummyAttackInfo@@@std@@@3@$0A@@std@@@std@@SAAAU?$pair@$$CBHUtagDummyAttackInfo@@@2@PAU_Node@?$_Tree_nod@V?$_Tmap_traits@HUtagDummyAttackInfo@@U?$less@H@std@@V?$allocator@U?$pair@$$CBHUtagDummyAttackInfo@@@std@@@3@$0A@@std@@@2@@Z
_TEXT	SEGMENT
__Pnode$ = 8						; size = 4
?_Myval@?$_Tree_val@V?$_Tmap_traits@HUtagDummyAttackInfo@@U?$less@H@std@@V?$allocator@U?$pair@$$CBHUtagDummyAttackInfo@@@std@@@3@$0A@@std@@@std@@SAAAU?$pair@$$CBHUtagDummyAttackInfo@@@2@PAU_Node@?$_Tree_nod@V?$_Tmap_traits@HUtagDummyAttackInfo@@U?$less@H@std@@V?$allocator@U?$pair@$$CBHUtagDummyAttackInfo@@@std@@@3@$0A@@std@@@2@@Z PROC ; std::_Tree_val<std::_Tmap_traits<int,tagDummyAttackInfo,std::less<int>,std::allocator<std::pair<int const ,tagDummyAttackInfo> >,0> >::_Myval, COMDAT

; 636  : 		{	// return reference to value in node

  00000	55		 push	 ebp
  00001	8b ec		 mov	 ebp, esp

; 637  : 		return ((reference)(*_Pnode)._Myval);

  00003	8b 45 08	 mov	 eax, DWORD PTR __Pnode$[ebp]
  00006	83 c0 0c	 add	 eax, 12			; 0000000cH

; 638  : 		}

  00009	5d		 pop	 ebp
  0000a	c3		 ret	 0
?_Myval@?$_Tree_val@V?$_Tmap_traits@HUtagDummyAttackInfo@@U?$less@H@std@@V?$allocator@U?$pair@$$CBHUtagDummyAttackInfo@@@std@@@3@$0A@@std@@@std@@SAAAU?$pair@$$CBHUtagDummyAttackInfo@@@2@PAU_Node@?$_Tree_nod@V?$_Tmap_traits@HUtagDummyAttackInfo@@U?$less@H@std@@V?$allocator@U?$pair@$$CBHUtagDummyAttackInfo@@@std@@@3@$0A@@std@@@2@@Z ENDP ; std::_Tree_val<std::_Tmap_traits<int,tagDummyAttackInfo,std::less<int>,std::allocator<std::pair<int const ,tagDummyAttackInfo> >,0> >::_Myval
_TEXT	ENDS
PUBLIC	?_Myval@?$_List_val@UFireTime@@V?$allocator@UFireTime@@@std@@@std@@SAAAUFireTime@@PAU_Node@?$_List_nod@UFireTime@@V?$allocator@UFireTime@@@std@@@2@@Z ; std::_List_val<FireTime,std::allocator<FireTime> >::_Myval
; Function compile flags: /Ogsp
; File c:\program files (x86)\microsoft visual studio 10.0\vc\include\list
;	COMDAT ?_Myval@?$_List_val@UFireTime@@V?$allocator@UFireTime@@@std@@@std@@SAAAUFireTime@@PAU_Node@?$_List_nod@UFireTime@@V?$allocator@UFireTime@@@std@@@2@@Z
_TEXT	SEGMENT
__Pnode$ = 8						; size = 4
?_Myval@?$_List_val@UFireTime@@V?$allocator@UFireTime@@@std@@@std@@SAAAUFireTime@@PAU_Node@?$_List_nod@UFireTime@@V?$allocator@UFireTime@@@std@@@2@@Z PROC ; std::_List_val<FireTime,std::allocator<FireTime> >::_Myval, COMDAT

; 570  : 		{	// return reference to value in node

  00000	55		 push	 ebp
  00001	8b ec		 mov	 ebp, esp

; 571  : 		return ((reference)(*_Pnode)._Myval);

  00003	8b 45 08	 mov	 eax, DWORD PTR __Pnode$[ebp]
  00006	83 c0 08	 add	 eax, 8

; 572  : 		}

  00009	5d		 pop	 ebp
  0000a	c3		 ret	 0
?_Myval@?$_List_val@UFireTime@@V?$allocator@UFireTime@@@std@@@std@@SAAAUFireTime@@PAU_Node@?$_List_nod@UFireTime@@V?$allocator@UFireTime@@@std@@@2@@Z ENDP ; std::_List_val<FireTime,std::allocator<FireTime> >::_Myval
_TEXT	ENDS
PUBLIC	?capacity@?$vector@UExtraAniJump@@V?$allocator@UExtraAniJump@@@std@@@std@@QBEIXZ ; std::vector<ExtraAniJump,std::allocator<ExtraAniJump> >::capacity
; Function compile flags: /Ogsp
; File c:\program files (x86)\microsoft visual studio 10.0\vc\include\vector
;	COMDAT ?capacity@?$vector@UExtraAniJump@@V?$allocator@UExtraAniJump@@@std@@@std@@QBEIXZ
_TEXT	SEGMENT
?capacity@?$vector@UExtraAniJump@@V?$allocator@UExtraAniJump@@@std@@@std@@QBEIXZ PROC ; std::vector<ExtraAniJump,std::allocator<ExtraAniJump> >::capacity, COMDAT
; _this$ = ecx

; 777  : 		return (this->_Myend - this->_Myfirst);

  00000	8b 41 08	 mov	 eax, DWORD PTR [ecx+8]
  00003	2b 01		 sub	 eax, DWORD PTR [ecx]
  00005	c1 f8 03	 sar	 eax, 3

; 778  : 		}

  00008	c3		 ret	 0
?capacity@?$vector@UExtraAniJump@@V?$allocator@UExtraAniJump@@@std@@@std@@QBEIXZ ENDP ; std::vector<ExtraAniJump,std::allocator<ExtraAniJump> >::capacity
_TEXT	ENDS
PUBLIC	?size@?$vector@UExtraAniJump@@V?$allocator@UExtraAniJump@@@std@@@std@@QBEIXZ ; std::vector<ExtraAniJump,std::allocator<ExtraAniJump> >::size
; Function compile flags: /Ogsp
;	COMDAT ?size@?$vector@UExtraAniJump@@V?$allocator@UExtraAniJump@@@std@@@std@@QBEIXZ
_TEXT	SEGMENT
?size@?$vector@UExtraAniJump@@V?$allocator@UExtraAniJump@@@std@@@std@@QBEIXZ PROC ; std::vector<ExtraAniJump,std::allocator<ExtraAniJump> >::size, COMDAT
; _this$ = ecx

; 879  : 		return (this->_Mylast - this->_Myfirst);

  00000	8b 41 04	 mov	 eax, DWORD PTR [ecx+4]
  00003	2b 01		 sub	 eax, DWORD PTR [ecx]
  00005	c1 f8 03	 sar	 eax, 3

; 880  : 		}

  00008	c3		 ret	 0
?size@?$vector@UExtraAniJump@@V?$allocator@UExtraAniJump@@@std@@@std@@QBEIXZ ENDP ; std::vector<ExtraAniJump,std::allocator<ExtraAniJump> >::size
_TEXT	ENDS
PUBLIC	??_C@_0BD@OLBABOEK@vector?$DMT?$DO?5too?5long?$AA@ ; `string'
PUBLIC	?_Xlen@?$vector@UExtraAniJump@@V?$allocator@UExtraAniJump@@@std@@@std@@IBEXXZ ; std::vector<ExtraAniJump,std::allocator<ExtraAniJump> >::_Xlen
EXTRN	__imp_?_Xlength_error@std@@YAXPBD@Z:PROC
;	COMDAT ??_C@_0BD@OLBABOEK@vector?$DMT?$DO?5too?5long?$AA@
CONST	SEGMENT
??_C@_0BD@OLBABOEK@vector?$DMT?$DO?5too?5long?$AA@ DB 'vector<T> too long'
	DB	00H						; `string'
; Function compile flags: /Ogsp
CONST	ENDS
;	COMDAT ?_Xlen@?$vector@UExtraAniJump@@V?$allocator@UExtraAniJump@@@std@@@std@@IBEXXZ
_TEXT	SEGMENT
?_Xlen@?$vector@UExtraAniJump@@V?$allocator@UExtraAniJump@@@std@@@std@@IBEXXZ PROC ; std::vector<ExtraAniJump,std::allocator<ExtraAniJump> >::_Xlen, COMDAT
; _this$ = ecx

; 1427 : 		_Xlength_error("vector<T> too long");

  00000	68 00 00 00 00	 push	 OFFSET ??_C@_0BD@OLBABOEK@vector?$DMT?$DO?5too?5long?$AA@
  00005	ff 15 00 00 00
	00		 call	 DWORD PTR __imp_?_Xlength_error@std@@YAXPBD@Z
$LN4@Xlen:
$LN3@Xlen:
  0000b	cc		 int	 3
?_Xlen@?$vector@UExtraAniJump@@V?$allocator@UExtraAniJump@@@std@@@std@@IBEXXZ ENDP ; std::vector<ExtraAniJump,std::allocator<ExtraAniJump> >::_Xlen
_TEXT	ENDS
PUBLIC	?_Prevnode@?$_List_val@MV?$allocator@M@std@@@std@@SAAAPAU_Node@?$_List_nod@MV?$allocator@M@std@@@2@PAU342@@Z ; std::_List_val<float,std::allocator<float> >::_Prevnode
; Function compile flags: /Ogsp
; File c:\program files (x86)\microsoft visual studio 10.0\vc\include\list
;	COMDAT ?_Prevnode@?$_List_val@MV?$allocator@M@std@@@std@@SAAAPAU_Node@?$_List_nod@MV?$allocator@M@std@@@2@PAU342@@Z
_TEXT	SEGMENT
__Pnode$ = 8						; size = 4
?_Prevnode@?$_List_val@MV?$allocator@M@std@@@std@@SAAAPAU_Node@?$_List_nod@MV?$allocator@M@std@@@2@PAU342@@Z PROC ; std::_List_val<float,std::allocator<float> >::_Prevnode, COMDAT

; 565  : 		{	// return reference to predecessor pointer in node

  00000	55		 push	 ebp
  00001	8b ec		 mov	 ebp, esp

; 566  : 		return ((_Nodepref)(*_Pnode)._Prev);

  00003	8b 45 08	 mov	 eax, DWORD PTR __Pnode$[ebp]
  00006	83 c0 04	 add	 eax, 4

; 567  : 		}

  00009	5d		 pop	 ebp
  0000a	c3		 ret	 0
?_Prevnode@?$_List_val@MV?$allocator@M@std@@@std@@SAAAPAU_Node@?$_List_nod@MV?$allocator@M@std@@@2@PAU342@@Z ENDP ; std::_List_val<float,std::allocator<float> >::_Prevnode
_TEXT	ENDS
PUBLIC	?_Myval@?$_List_val@MV?$allocator@M@std@@@std@@SAAAMPAU_Node@?$_List_nod@MV?$allocator@M@std@@@2@@Z ; std::_List_val<float,std::allocator<float> >::_Myval
; Function compile flags: /Ogsp
;	COMDAT ?_Myval@?$_List_val@MV?$allocator@M@std@@@std@@SAAAMPAU_Node@?$_List_nod@MV?$allocator@M@std@@@2@@Z
_TEXT	SEGMENT
__Pnode$ = 8						; size = 4
?_Myval@?$_List_val@MV?$allocator@M@std@@@std@@SAAAMPAU_Node@?$_List_nod@MV?$allocator@M@std@@@2@@Z PROC ; std::_List_val<float,std::allocator<float> >::_Myval, COMDAT

; 570  : 		{	// return reference to value in node

  00000	55		 push	 ebp
  00001	8b ec		 mov	 ebp, esp

; 571  : 		return ((reference)(*_Pnode)._Myval);

  00003	8b 45 08	 mov	 eax, DWORD PTR __Pnode$[ebp]
  00006	83 c0 08	 add	 eax, 8

; 572  : 		}

  00009	5d		 pop	 ebp
  0000a	c3		 ret	 0
?_Myval@?$_List_val@MV?$allocator@M@std@@@std@@SAAAMPAU_Node@?$_List_nod@MV?$allocator@M@std@@@2@@Z ENDP ; std::_List_val<float,std::allocator<float> >::_Myval
_TEXT	ENDS
PUBLIC	?deallocate@?$allocator@U_Node@?$_List_nod@MV?$allocator@M@std@@@std@@@std@@QAEXPAU_Node@?$_List_nod@MV?$allocator@M@std@@@2@I@Z ; std::allocator<std::_List_nod<float,std::allocator<float> >::_Node>::deallocate
; Function compile flags: /Ogsp
; File c:\program files (x86)\microsoft visual studio 10.0\vc\include\xmemory
;	COMDAT ?deallocate@?$allocator@U_Node@?$_List_nod@MV?$allocator@M@std@@@std@@@std@@QAEXPAU_Node@?$_List_nod@MV?$allocator@M@std@@@2@I@Z
_TEXT	SEGMENT
__Ptr$ = 8						; size = 4
___formal$ = 12						; size = 4
?deallocate@?$allocator@U_Node@?$_List_nod@MV?$allocator@M@std@@@std@@@std@@QAEXPAU_Node@?$_List_nod@MV?$allocator@M@std@@@2@I@Z PROC ; std::allocator<std::_List_nod<float,std::allocator<float> >::_Node>::deallocate, COMDAT
; _this$ = ecx

; 181  : 		{	// deallocate object at _Ptr, ignore size

  00000	55		 push	 ebp
  00001	8b ec		 mov	 ebp, esp

; 182  : 		::operator delete(_Ptr);

  00003	ff 75 08	 push	 DWORD PTR __Ptr$[ebp]
  00006	e8 00 00 00 00	 call	 ??3@YAXPAX@Z		; operator delete
  0000b	59		 pop	 ecx

; 183  : 		}

  0000c	5d		 pop	 ebp
  0000d	c2 08 00	 ret	 8
?deallocate@?$allocator@U_Node@?$_List_nod@MV?$allocator@M@std@@@std@@@std@@QAEXPAU_Node@?$_List_nod@MV?$allocator@M@std@@@2@I@Z ENDP ; std::allocator<std::_List_nod<float,std::allocator<float> >::_Node>::deallocate
_TEXT	ENDS
PUBLIC	??D?$_Tree_const_iterator@V?$_Tree_val@V?$_Tmap_traits@HUtagDummyAttackInfo@@U?$less@H@std@@V?$allocator@U?$pair@$$CBHUtagDummyAttackInfo@@@std@@@3@$0A@@std@@@std@@@std@@QBEABU?$pair@$$CBHUtagDummyAttackInfo@@@1@XZ ; std::_Tree_const_iterator<std::_Tree_val<std::_Tmap_traits<int,tagDummyAttackInfo,std::less<int>,std::allocator<std::pair<int const ,tagDummyAttackInfo> >,0> > >::operator*
; Function compile flags: /Ogsp
; File c:\program files (x86)\microsoft visual studio 10.0\vc\include\xtree
;	COMDAT ??D?$_Tree_const_iterator@V?$_Tree_val@V?$_Tmap_traits@HUtagDummyAttackInfo@@U?$less@H@std@@V?$allocator@U?$pair@$$CBHUtagDummyAttackInfo@@@std@@@3@$0A@@std@@@std@@@std@@QBEABU?$pair@$$CBHUtagDummyAttackInfo@@@1@XZ
_TEXT	SEGMENT
??D?$_Tree_const_iterator@V?$_Tree_val@V?$_Tmap_traits@HUtagDummyAttackInfo@@U?$less@H@std@@V?$allocator@U?$pair@$$CBHUtagDummyAttackInfo@@@std@@@3@$0A@@std@@@std@@@std@@QBEABU?$pair@$$CBHUtagDummyAttackInfo@@@1@XZ PROC ; std::_Tree_const_iterator<std::_Tree_val<std::_Tmap_traits<int,tagDummyAttackInfo,std::less<int>,std::allocator<std::pair<int const ,tagDummyAttackInfo> >,0> > >::operator*, COMDAT
; _this$ = ecx

; 231  :  #if _ITERATOR_DEBUG_LEVEL == 2
; 232  : 		if (this->_Getcont() == 0
; 233  : 			|| this->_Ptr == 0
; 234  : 			|| this->_Ptr == ((_Mytree *)this->_Getcont())->_Myhead)
; 235  : 			{	// report error
; 236  : 			_DEBUG_ERROR("map/set iterator not dereferencable");
; 237  : 			_SCL_SECURE_OUT_OF_RANGE;
; 238  : 			}
; 239  : 
; 240  :  #elif _ITERATOR_DEBUG_LEVEL == 1
; 241  : 		_SCL_SECURE_VALIDATE(this->_Getcont() != 0 && this->_Ptr != 0);
; 242  : 		_SCL_SECURE_VALIDATE_RANGE(this->_Ptr !=
; 243  : 			((_Mytree *)this->_Getcont())->_Myhead);
; 244  :  #endif /* _ITERATOR_DEBUG_LEVEL */
; 245  : 
; 246  : 		return (_Mytree::_Myval(this->_Ptr));

  00000	8b 01		 mov	 eax, DWORD PTR [ecx]
  00002	83 c0 0c	 add	 eax, 12			; 0000000cH

; 247  : 		}

  00005	c3		 ret	 0
??D?$_Tree_const_iterator@V?$_Tree_val@V?$_Tmap_traits@HUtagDummyAttackInfo@@U?$less@H@std@@V?$allocator@U?$pair@$$CBHUtagDummyAttackInfo@@@std@@@3@$0A@@std@@@std@@@std@@QBEABU?$pair@$$CBHUtagDummyAttackInfo@@@1@XZ ENDP ; std::_Tree_const_iterator<std::_Tree_val<std::_Tmap_traits<int,tagDummyAttackInfo,std::less<int>,std::allocator<std::pair<int const ,tagDummyAttackInfo> >,0> > >::operator*
_TEXT	ENDS
PUBLIC	??0?$allocator@PBUAniEventTime@@@std@@QAE@ABV01@@Z ; std::allocator<AniEventTime const *>::allocator<AniEventTime const *>
; Function compile flags: /Ogsp
; File c:\program files (x86)\microsoft visual studio 10.0\vc\include\xmemory
;	COMDAT ??0?$allocator@PBUAniEventTime@@@std@@QAE@ABV01@@Z
_TEXT	SEGMENT
___formal$ = 8						; size = 4
??0?$allocator@PBUAniEventTime@@@std@@QAE@ABV01@@Z PROC	; std::allocator<AniEventTime const *>::allocator<AniEventTime const *>, COMDAT
; _this$ = ecx

; 165  : 	_ALLOCATOR(const _ALLOCATOR<_Ty>&) _THROW0()

  00000	8b c1		 mov	 eax, ecx

; 166  : 		{	// construct by copying (do nothing)
; 167  : 		}

  00002	c2 04 00	 ret	 4
??0?$allocator@PBUAniEventTime@@@std@@QAE@ABV01@@Z ENDP	; std::allocator<AniEventTime const *>::allocator<AniEventTime const *>
_TEXT	ENDS
PUBLIC	?deallocate@?$allocator@PBUAniEventTime@@@std@@QAEXPAPBUAniEventTime@@I@Z ; std::allocator<AniEventTime const *>::deallocate
; Function compile flags: /Ogsp
;	COMDAT ?deallocate@?$allocator@PBUAniEventTime@@@std@@QAEXPAPBUAniEventTime@@I@Z
_TEXT	SEGMENT
__Ptr$ = 8						; size = 4
___formal$ = 12						; size = 4
?deallocate@?$allocator@PBUAniEventTime@@@std@@QAEXPAPBUAniEventTime@@I@Z PROC ; std::allocator<AniEventTime const *>::deallocate, COMDAT
; _this$ = ecx

; 181  : 		{	// deallocate object at _Ptr, ignore size

  00000	55		 push	 ebp
  00001	8b ec		 mov	 ebp, esp

; 182  : 		::operator delete(_Ptr);

  00003	ff 75 08	 push	 DWORD PTR __Ptr$[ebp]
  00006	e8 00 00 00 00	 call	 ??3@YAXPAX@Z		; operator delete
  0000b	59		 pop	 ecx

; 183  : 		}

  0000c	5d		 pop	 ebp
  0000d	c2 08 00	 ret	 8
?deallocate@?$allocator@PBUAniEventTime@@@std@@QAEXPAPBUAniEventTime@@I@Z ENDP ; std::allocator<AniEventTime const *>::deallocate
_TEXT	ENDS
PUBLIC	??0?$_Vector_const_iterator@V?$_Vector_val@PBUAniEventTime@@V?$allocator@PBUAniEventTime@@@std@@@std@@@std@@QAE@PAPBUAniEventTime@@PBU_Container_base0@1@@Z ; std::_Vector_const_iterator<std::_Vector_val<AniEventTime const *,std::allocator<AniEventTime const *> > >::_Vector_const_iterator<std::_Vector_val<AniEventTime const *,std::allocator<AniEventTime const *> > >
; Function compile flags: /Ogsp
; File c:\program files (x86)\microsoft visual studio 10.0\vc\include\vector
;	COMDAT ??0?$_Vector_const_iterator@V?$_Vector_val@PBUAniEventTime@@V?$allocator@PBUAniEventTime@@@std@@@std@@@std@@QAE@PAPBUAniEventTime@@PBU_Container_base0@1@@Z
_TEXT	SEGMENT
__Parg$ = 8						; size = 4
__Pvector$ = 12						; size = 4
??0?$_Vector_const_iterator@V?$_Vector_val@PBUAniEventTime@@V?$allocator@PBUAniEventTime@@@std@@@std@@@std@@QAE@PAPBUAniEventTime@@PBU_Container_base0@1@@Z PROC ; std::_Vector_const_iterator<std::_Vector_val<AniEventTime const *,std::allocator<AniEventTime const *> > >::_Vector_const_iterator<std::_Vector_val<AniEventTime const *,std::allocator<AniEventTime const *> > >, COMDAT
; _this$ = ecx

; 45   : 		{	// construct with pointer _Parg

  00000	55		 push	 ebp
  00001	8b ec		 mov	 ebp, esp
  00003	8b c1		 mov	 eax, ecx
  00005	8b 4d 08	 mov	 ecx, DWORD PTR __Parg$[ebp]
  00008	89 08		 mov	 DWORD PTR [eax], ecx

; 46   : 		this->_Adopt(_Pvector);
; 47   : 		}

  0000a	5d		 pop	 ebp
  0000b	c2 08 00	 ret	 8
??0?$_Vector_const_iterator@V?$_Vector_val@PBUAniEventTime@@V?$allocator@PBUAniEventTime@@@std@@@std@@@std@@QAE@PAPBUAniEventTime@@PBU_Container_base0@1@@Z ENDP ; std::_Vector_const_iterator<std::_Vector_val<AniEventTime const *,std::allocator<AniEventTime const *> > >::_Vector_const_iterator<std::_Vector_val<AniEventTime const *,std::allocator<AniEventTime const *> > >
_TEXT	ENDS
PUBLIC	?_Compat@?$_Vector_const_iterator@V?$_Vector_val@PBUAniEventTime@@V?$allocator@PBUAniEventTime@@@std@@@std@@@std@@QBEXABV12@@Z ; std::_Vector_const_iterator<std::_Vector_val<AniEventTime const *,std::allocator<AniEventTime const *> > >::_Compat
; Function compile flags: /Ogsp
;	COMDAT ?_Compat@?$_Vector_const_iterator@V?$_Vector_val@PBUAniEventTime@@V?$allocator@PBUAniEventTime@@@std@@@std@@@std@@QBEXABV12@@Z
_TEXT	SEGMENT
___formal$ = 8						; size = 4
?_Compat@?$_Vector_const_iterator@V?$_Vector_val@PBUAniEventTime@@V?$allocator@PBUAniEventTime@@@std@@@std@@@std@@QBEXABV12@@Z PROC ; std::_Vector_const_iterator<std::_Vector_val<AniEventTime const *,std::allocator<AniEventTime const *> > >::_Compat, COMDAT
; _this$ = ecx

; 253  : 		}

  00000	c2 04 00	 ret	 4
?_Compat@?$_Vector_const_iterator@V?$_Vector_val@PBUAniEventTime@@V?$allocator@PBUAniEventTime@@@std@@@std@@@std@@QBEXABV12@@Z ENDP ; std::_Vector_const_iterator<std::_Vector_val<AniEventTime const *,std::allocator<AniEventTime const *> > >::_Compat
_TEXT	ENDS
PUBLIC	?_Isnil@?$_Tree_val@V?$_Tmap_traits@HUtagDummyAttackInfo@@U?$less@H@std@@V?$allocator@U?$pair@$$CBHUtagDummyAttackInfo@@@std@@@3@$0A@@std@@@std@@SAAADPAU_Node@?$_Tree_nod@V?$_Tmap_traits@HUtagDummyAttackInfo@@U?$less@H@std@@V?$allocator@U?$pair@$$CBHUtagDummyAttackInfo@@@std@@@3@$0A@@std@@@2@@Z ; std::_Tree_val<std::_Tmap_traits<int,tagDummyAttackInfo,std::less<int>,std::allocator<std::pair<int const ,tagDummyAttackInfo> >,0> >::_Isnil
; Function compile flags: /Ogsp
; File c:\program files (x86)\microsoft visual studio 10.0\vc\include\xtree
;	COMDAT ?_Isnil@?$_Tree_val@V?$_Tmap_traits@HUtagDummyAttackInfo@@U?$less@H@std@@V?$allocator@U?$pair@$$CBHUtagDummyAttackInfo@@@std@@@3@$0A@@std@@@std@@SAAADPAU_Node@?$_Tree_nod@V?$_Tmap_traits@HUtagDummyAttackInfo@@U?$less@H@std@@V?$allocator@U?$pair@$$CBHUtagDummyAttackInfo@@@std@@@3@$0A@@std@@@2@@Z
_TEXT	SEGMENT
__Pnode$ = 8						; size = 4
?_Isnil@?$_Tree_val@V?$_Tmap_traits@HUtagDummyAttackInfo@@U?$less@H@std@@V?$allocator@U?$pair@$$CBHUtagDummyAttackInfo@@@std@@@3@$0A@@std@@@std@@SAAADPAU_Node@?$_Tree_nod@V?$_Tmap_traits@HUtagDummyAttackInfo@@U?$less@H@std@@V?$allocator@U?$pair@$$CBHUtagDummyAttackInfo@@@std@@@3@$0A@@std@@@2@@Z PROC ; std::_Tree_val<std::_Tmap_traits<int,tagDummyAttackInfo,std::less<int>,std::allocator<std::pair<int const ,tagDummyAttackInfo> >,0> >::_Isnil, COMDAT

; 611  : 		{	// return reference to nil flag in node

  00000	55		 push	 ebp
  00001	8b ec		 mov	 ebp, esp

; 612  : 		return ((char&)(*_Pnode)._Isnil);

  00003	8b 45 08	 mov	 eax, DWORD PTR __Pnode$[ebp]
  00006	83 c0 65	 add	 eax, 101		; 00000065H

; 613  : 		}

  00009	5d		 pop	 ebp
  0000a	c3		 ret	 0
?_Isnil@?$_Tree_val@V?$_Tmap_traits@HUtagDummyAttackInfo@@U?$less@H@std@@V?$allocator@U?$pair@$$CBHUtagDummyAttackInfo@@@std@@@3@$0A@@std@@@std@@SAAADPAU_Node@?$_Tree_nod@V?$_Tmap_traits@HUtagDummyAttackInfo@@U?$less@H@std@@V?$allocator@U?$pair@$$CBHUtagDummyAttackInfo@@@std@@@3@$0A@@std@@@2@@Z ENDP ; std::_Tree_val<std::_Tmap_traits<int,tagDummyAttackInfo,std::less<int>,std::allocator<std::pair<int const ,tagDummyAttackInfo> >,0> >::_Isnil
_TEXT	ENDS
PUBLIC	?_Left@?$_Tree_val@V?$_Tmap_traits@HUtagDummyAttackInfo@@U?$less@H@std@@V?$allocator@U?$pair@$$CBHUtagDummyAttackInfo@@@std@@@3@$0A@@std@@@std@@SAAAPAU_Node@?$_Tree_nod@V?$_Tmap_traits@HUtagDummyAttackInfo@@U?$less@H@std@@V?$allocator@U?$pair@$$CBHUtagDummyAttackInfo@@@std@@@3@$0A@@std@@@2@PAU342@@Z ; std::_Tree_val<std::_Tmap_traits<int,tagDummyAttackInfo,std::less<int>,std::allocator<std::pair<int const ,tagDummyAttackInfo> >,0> >::_Left
; Function compile flags: /Ogsp
;	COMDAT ?_Left@?$_Tree_val@V?$_Tmap_traits@HUtagDummyAttackInfo@@U?$less@H@std@@V?$allocator@U?$pair@$$CBHUtagDummyAttackInfo@@@std@@@3@$0A@@std@@@std@@SAAAPAU_Node@?$_Tree_nod@V?$_Tmap_traits@HUtagDummyAttackInfo@@U?$less@H@std@@V?$allocator@U?$pair@$$CBHUtagDummyAttackInfo@@@std@@@3@$0A@@std@@@2@PAU342@@Z
_TEXT	SEGMENT
__Pnode$ = 8						; size = 4
?_Left@?$_Tree_val@V?$_Tmap_traits@HUtagDummyAttackInfo@@U?$less@H@std@@V?$allocator@U?$pair@$$CBHUtagDummyAttackInfo@@@std@@@3@$0A@@std@@@std@@SAAAPAU_Node@?$_Tree_nod@V?$_Tmap_traits@HUtagDummyAttackInfo@@U?$less@H@std@@V?$allocator@U?$pair@$$CBHUtagDummyAttackInfo@@@std@@@3@$0A@@std@@@2@PAU342@@Z PROC ; std::_Tree_val<std::_Tmap_traits<int,tagDummyAttackInfo,std::less<int>,std::allocator<std::pair<int const ,tagDummyAttackInfo> >,0> >::_Left, COMDAT

; 621  : 		{	// return reference to left pointer in node

  00000	55		 push	 ebp
  00001	8b ec		 mov	 ebp, esp

; 622  : 		return ((_Nodepref)(*_Pnode)._Left);

  00003	8b 45 08	 mov	 eax, DWORD PTR __Pnode$[ebp]

; 623  : 		}

  00006	5d		 pop	 ebp
  00007	c3		 ret	 0
?_Left@?$_Tree_val@V?$_Tmap_traits@HUtagDummyAttackInfo@@U?$less@H@std@@V?$allocator@U?$pair@$$CBHUtagDummyAttackInfo@@@std@@@3@$0A@@std@@@std@@SAAAPAU_Node@?$_Tree_nod@V?$_Tmap_traits@HUtagDummyAttackInfo@@U?$less@H@std@@V?$allocator@U?$pair@$$CBHUtagDummyAttackInfo@@@std@@@3@$0A@@std@@@2@PAU342@@Z ENDP ; std::_Tree_val<std::_Tmap_traits<int,tagDummyAttackInfo,std::less<int>,std::allocator<std::pair<int const ,tagDummyAttackInfo> >,0> >::_Left
_TEXT	ENDS
PUBLIC	?_Right@?$_Tree_val@V?$_Tmap_traits@HUtagDummyAttackInfo@@U?$less@H@std@@V?$allocator@U?$pair@$$CBHUtagDummyAttackInfo@@@std@@@3@$0A@@std@@@std@@SAAAPAU_Node@?$_Tree_nod@V?$_Tmap_traits@HUtagDummyAttackInfo@@U?$less@H@std@@V?$allocator@U?$pair@$$CBHUtagDummyAttackInfo@@@std@@@3@$0A@@std@@@2@PAU342@@Z ; std::_Tree_val<std::_Tmap_traits<int,tagDummyAttackInfo,std::less<int>,std::allocator<std::pair<int const ,tagDummyAttackInfo> >,0> >::_Right
; Function compile flags: /Ogsp
;	COMDAT ?_Right@?$_Tree_val@V?$_Tmap_traits@HUtagDummyAttackInfo@@U?$less@H@std@@V?$allocator@U?$pair@$$CBHUtagDummyAttackInfo@@@std@@@3@$0A@@std@@@std@@SAAAPAU_Node@?$_Tree_nod@V?$_Tmap_traits@HUtagDummyAttackInfo@@U?$less@H@std@@V?$allocator@U?$pair@$$CBHUtagDummyAttackInfo@@@std@@@3@$0A@@std@@@2@PAU342@@Z
_TEXT	SEGMENT
__Pnode$ = 8						; size = 4
?_Right@?$_Tree_val@V?$_Tmap_traits@HUtagDummyAttackInfo@@U?$less@H@std@@V?$allocator@U?$pair@$$CBHUtagDummyAttackInfo@@@std@@@3@$0A@@std@@@std@@SAAAPAU_Node@?$_Tree_nod@V?$_Tmap_traits@HUtagDummyAttackInfo@@U?$less@H@std@@V?$allocator@U?$pair@$$CBHUtagDummyAttackInfo@@@std@@@3@$0A@@std@@@2@PAU342@@Z PROC ; std::_Tree_val<std::_Tmap_traits<int,tagDummyAttackInfo,std::less<int>,std::allocator<std::pair<int const ,tagDummyAttackInfo> >,0> >::_Right, COMDAT

; 631  : 		{	// return reference to right pointer in node

  00000	55		 push	 ebp
  00001	8b ec		 mov	 ebp, esp

; 632  : 		return ((_Nodepref)(*_Pnode)._Right);

  00003	8b 45 08	 mov	 eax, DWORD PTR __Pnode$[ebp]
  00006	83 c0 08	 add	 eax, 8

; 633  : 		}

  00009	5d		 pop	 ebp
  0000a	c3		 ret	 0
?_Right@?$_Tree_val@V?$_Tmap_traits@HUtagDummyAttackInfo@@U?$less@H@std@@V?$allocator@U?$pair@$$CBHUtagDummyAttackInfo@@@std@@@3@$0A@@std@@@std@@SAAAPAU_Node@?$_Tree_nod@V?$_Tmap_traits@HUtagDummyAttackInfo@@U?$less@H@std@@V?$allocator@U?$pair@$$CBHUtagDummyAttackInfo@@@std@@@3@$0A@@std@@@2@PAU342@@Z ENDP ; std::_Tree_val<std::_Tmap_traits<int,tagDummyAttackInfo,std::less<int>,std::allocator<std::pair<int const ,tagDummyAttackInfo> >,0> >::_Right
_TEXT	ENDS
PUBLIC	?deallocate@?$allocator@UExtraAniJump@@@std@@QAEXPAUExtraAniJump@@I@Z ; std::allocator<ExtraAniJump>::deallocate
; Function compile flags: /Ogsp
; File c:\program files (x86)\microsoft visual studio 10.0\vc\include\xmemory
;	COMDAT ?deallocate@?$allocator@UExtraAniJump@@@std@@QAEXPAUExtraAniJump@@I@Z
_TEXT	SEGMENT
__Ptr$ = 8						; size = 4
___formal$ = 12						; size = 4
?deallocate@?$allocator@UExtraAniJump@@@std@@QAEXPAUExtraAniJump@@I@Z PROC ; std::allocator<ExtraAniJump>::deallocate, COMDAT
; _this$ = ecx

; 181  : 		{	// deallocate object at _Ptr, ignore size

  00000	55		 push	 ebp
  00001	8b ec		 mov	 ebp, esp

; 182  : 		::operator delete(_Ptr);

  00003	ff 75 08	 push	 DWORD PTR __Ptr$[ebp]
  00006	e8 00 00 00 00	 call	 ??3@YAXPAX@Z		; operator delete
  0000b	59		 pop	 ecx

; 183  : 		}

  0000c	5d		 pop	 ebp
  0000d	c2 08 00	 ret	 8
?deallocate@?$allocator@UExtraAniJump@@@std@@QAEXPAUExtraAniJump@@I@Z ENDP ; std::allocator<ExtraAniJump>::deallocate
_TEXT	ENDS
PUBLIC	?max_size@?$allocator@UExtraAniJump@@@std@@QBEIXZ ; std::allocator<ExtraAniJump>::max_size
; Function compile flags: /Ogsp
;	COMDAT ?max_size@?$allocator@UExtraAniJump@@@std@@QBEIXZ
_TEXT	SEGMENT
?max_size@?$allocator@UExtraAniJump@@@std@@QBEIXZ PROC	; std::allocator<ExtraAniJump>::max_size, COMDAT
; _this$ = ecx

; 218  : 		_SIZT _Count = (_SIZT)(-1) / sizeof (_Ty);
; 219  : 		return (0 < _Count ? _Count : 1);

  00000	b8 ff ff ff 1f	 mov	 eax, 536870911		; 1fffffffH

; 220  : 		}

  00005	c3		 ret	 0
?max_size@?$allocator@UExtraAniJump@@@std@@QBEIXZ ENDP	; std::allocator<ExtraAniJump>::max_size
_TEXT	ENDS
PUBLIC	??0?$_Tree_unchecked_const_iterator@V?$_Tree_val@V?$_Tmap_traits@HUtagDummyAttackInfo@@U?$less@H@std@@V?$allocator@U?$pair@$$CBHUtagDummyAttackInfo@@@std@@@3@$0A@@std@@@std@@U_Iterator_base0@2@@std@@QAE@PAU_Node@?$_Tree_nod@V?$_Tmap_traits@HUtagDummyAttackInfo@@U?$less@H@std@@V?$allocator@U?$pair@$$CBHUtagDummyAttackInfo@@@std@@@3@$0A@@std@@@1@PBV?$_Tree_val@V?$_Tmap_traits@HUtagDummyAttackInfo@@U?$less@H@std@@V?$allocator@U?$pair@$$CBHUtagDummyAttackInfo@@@std@@@3@$0A@@std@@@1@@Z ; std::_Tree_unchecked_const_iterator<std::_Tree_val<std::_Tmap_traits<int,tagDummyAttackInfo,std::less<int>,std::allocator<std::pair<int const ,tagDummyAttackInfo> >,0> >,std::_Iterator_base0>::_Tree_unchecked_const_iterator<std::_Tree_val<std::_Tmap_traits<int,tagDummyAttackInfo,std::less<int>,std::allocator<std::pair<int const ,tagDummyAttackInfo> >,0> >,std::_Iterator_base0>
; Function compile flags: /Ogsp
; File c:\program files (x86)\microsoft visual studio 10.0\vc\include\xtree
;	COMDAT ??0?$_Tree_unchecked_const_iterator@V?$_Tree_val@V?$_Tmap_traits@HUtagDummyAttackInfo@@U?$less@H@std@@V?$allocator@U?$pair@$$CBHUtagDummyAttackInfo@@@std@@@3@$0A@@std@@@std@@U_Iterator_base0@2@@std@@QAE@PAU_Node@?$_Tree_nod@V?$_Tmap_traits@HUtagDummyAttackInfo@@U?$less@H@std@@V?$allocator@U?$pair@$$CBHUtagDummyAttackInfo@@@std@@@3@$0A@@std@@@1@PBV?$_Tree_val@V?$_Tmap_traits@HUtagDummyAttackInfo@@U?$less@H@std@@V?$allocator@U?$pair@$$CBHUtagDummyAttackInfo@@@std@@@3@$0A@@std@@@1@@Z
_TEXT	SEGMENT
__Pnode$ = 8						; size = 4
__Plist$ = 12						; size = 4
??0?$_Tree_unchecked_const_iterator@V?$_Tree_val@V?$_Tmap_traits@HUtagDummyAttackInfo@@U?$less@H@std@@V?$allocator@U?$pair@$$CBHUtagDummyAttackInfo@@@std@@@3@$0A@@std@@@std@@U_Iterator_base0@2@@std@@QAE@PAU_Node@?$_Tree_nod@V?$_Tmap_traits@HUtagDummyAttackInfo@@U?$less@H@std@@V?$allocator@U?$pair@$$CBHUtagDummyAttackInfo@@@std@@@3@$0A@@std@@@1@PBV?$_Tree_val@V?$_Tmap_traits@HUtagDummyAttackInfo@@U?$less@H@std@@V?$allocator@U?$pair@$$CBHUtagDummyAttackInfo@@@std@@@3@$0A@@std@@@1@@Z PROC ; std::_Tree_unchecked_const_iterator<std::_Tree_val<std::_Tmap_traits<int,tagDummyAttackInfo,std::less<int>,std::allocator<std::pair<int const ,tagDummyAttackInfo> >,0> >,std::_Iterator_base0>::_Tree_unchecked_const_iterator<std::_Tree_val<std::_Tmap_traits<int,tagDummyAttackInfo,std::less<int>,std::allocator<std::pair<int const ,tagDummyAttackInfo> >,0> >,std::_Iterator_base0>, COMDAT
; _this$ = ecx

; 43   : 		{	// construct with node pointer _Pnode

  00000	55		 push	 ebp
  00001	8b ec		 mov	 ebp, esp
  00003	8b c1		 mov	 eax, ecx
  00005	8b 4d 08	 mov	 ecx, DWORD PTR __Pnode$[ebp]
  00008	89 08		 mov	 DWORD PTR [eax], ecx

; 44   : 		this->_Adopt(_Plist);
; 45   : 		}

  0000a	5d		 pop	 ebp
  0000b	c2 08 00	 ret	 8
??0?$_Tree_unchecked_const_iterator@V?$_Tree_val@V?$_Tmap_traits@HUtagDummyAttackInfo@@U?$less@H@std@@V?$allocator@U?$pair@$$CBHUtagDummyAttackInfo@@@std@@@3@$0A@@std@@@std@@U_Iterator_base0@2@@std@@QAE@PAU_Node@?$_Tree_nod@V?$_Tmap_traits@HUtagDummyAttackInfo@@U?$less@H@std@@V?$allocator@U?$pair@$$CBHUtagDummyAttackInfo@@@std@@@3@$0A@@std@@@1@PBV?$_Tree_val@V?$_Tmap_traits@HUtagDummyAttackInfo@@U?$less@H@std@@V?$allocator@U?$pair@$$CBHUtagDummyAttackInfo@@@std@@@3@$0A@@std@@@1@@Z ENDP ; std::_Tree_unchecked_const_iterator<std::_Tree_val<std::_Tmap_traits<int,tagDummyAttackInfo,std::less<int>,std::allocator<std::pair<int const ,tagDummyAttackInfo> >,0> >,std::_Iterator_base0>::_Tree_unchecked_const_iterator<std::_Tree_val<std::_Tmap_traits<int,tagDummyAttackInfo,std::less<int>,std::allocator<std::pair<int const ,tagDummyAttackInfo> >,0> >,std::_Iterator_base0>
_TEXT	ENDS
PUBLIC	??0?$_List_unchecked_const_iterator@V?$_List_val@MV?$allocator@M@std@@@std@@U_Iterator_base0@2@@std@@QAE@PAU_Node@?$_List_nod@MV?$allocator@M@std@@@1@PBV?$_List_val@MV?$allocator@M@std@@@1@@Z ; std::_List_unchecked_const_iterator<std::_List_val<float,std::allocator<float> >,std::_Iterator_base0>::_List_unchecked_const_iterator<std::_List_val<float,std::allocator<float> >,std::_Iterator_base0>
; Function compile flags: /Ogsp
; File c:\program files (x86)\microsoft visual studio 10.0\vc\include\list
;	COMDAT ??0?$_List_unchecked_const_iterator@V?$_List_val@MV?$allocator@M@std@@@std@@U_Iterator_base0@2@@std@@QAE@PAU_Node@?$_List_nod@MV?$allocator@M@std@@@1@PBV?$_List_val@MV?$allocator@M@std@@@1@@Z
_TEXT	SEGMENT
__Pnode$ = 8						; size = 4
__Plist$ = 12						; size = 4
??0?$_List_unchecked_const_iterator@V?$_List_val@MV?$allocator@M@std@@@std@@U_Iterator_base0@2@@std@@QAE@PAU_Node@?$_List_nod@MV?$allocator@M@std@@@1@PBV?$_List_val@MV?$allocator@M@std@@@1@@Z PROC ; std::_List_unchecked_const_iterator<std::_List_val<float,std::allocator<float> >,std::_Iterator_base0>::_List_unchecked_const_iterator<std::_List_val<float,std::allocator<float> >,std::_Iterator_base0>, COMDAT
; _this$ = ecx

; 41   : 		{	// construct with node pointer _Pnode

  00000	55		 push	 ebp
  00001	8b ec		 mov	 ebp, esp
  00003	8b c1		 mov	 eax, ecx
  00005	8b 4d 08	 mov	 ecx, DWORD PTR __Pnode$[ebp]
  00008	89 08		 mov	 DWORD PTR [eax], ecx

; 42   : 		this->_Adopt(_Plist);
; 43   : 		}

  0000a	5d		 pop	 ebp
  0000b	c2 08 00	 ret	 8
??0?$_List_unchecked_const_iterator@V?$_List_val@MV?$allocator@M@std@@@std@@U_Iterator_base0@2@@std@@QAE@PAU_Node@?$_List_nod@MV?$allocator@M@std@@@1@PBV?$_List_val@MV?$allocator@M@std@@@1@@Z ENDP ; std::_List_unchecked_const_iterator<std::_List_val<float,std::allocator<float> >,std::_Iterator_base0>::_List_unchecked_const_iterator<std::_List_val<float,std::allocator<float> >,std::_Iterator_base0>
_TEXT	ENDS
PUBLIC	??0?$_List_unchecked_const_iterator@V?$_List_val@UFireTime@@V?$allocator@UFireTime@@@std@@@std@@U_Iterator_base0@2@@std@@QAE@PAU_Node@?$_List_nod@UFireTime@@V?$allocator@UFireTime@@@std@@@1@PBV?$_List_val@UFireTime@@V?$allocator@UFireTime@@@std@@@1@@Z ; std::_List_unchecked_const_iterator<std::_List_val<FireTime,std::allocator<FireTime> >,std::_Iterator_base0>::_List_unchecked_const_iterator<std::_List_val<FireTime,std::allocator<FireTime> >,std::_Iterator_base0>
; Function compile flags: /Ogsp
;	COMDAT ??0?$_List_unchecked_const_iterator@V?$_List_val@UFireTime@@V?$allocator@UFireTime@@@std@@@std@@U_Iterator_base0@2@@std@@QAE@PAU_Node@?$_List_nod@UFireTime@@V?$allocator@UFireTime@@@std@@@1@PBV?$_List_val@UFireTime@@V?$allocator@UFireTime@@@std@@@1@@Z
_TEXT	SEGMENT
__Pnode$ = 8						; size = 4
__Plist$ = 12						; size = 4
??0?$_List_unchecked_const_iterator@V?$_List_val@UFireTime@@V?$allocator@UFireTime@@@std@@@std@@U_Iterator_base0@2@@std@@QAE@PAU_Node@?$_List_nod@UFireTime@@V?$allocator@UFireTime@@@std@@@1@PBV?$_List_val@UFireTime@@V?$allocator@UFireTime@@@std@@@1@@Z PROC ; std::_List_unchecked_const_iterator<std::_List_val<FireTime,std::allocator<FireTime> >,std::_Iterator_base0>::_List_unchecked_const_iterator<std::_List_val<FireTime,std::allocator<FireTime> >,std::_Iterator_base0>, COMDAT
; _this$ = ecx

; 41   : 		{	// construct with node pointer _Pnode

  00000	55		 push	 ebp
  00001	8b ec		 mov	 ebp, esp
  00003	8b c1		 mov	 eax, ecx
  00005	8b 4d 08	 mov	 ecx, DWORD PTR __Pnode$[ebp]
  00008	89 08		 mov	 DWORD PTR [eax], ecx

; 42   : 		this->_Adopt(_Plist);
; 43   : 		}

  0000a	5d		 pop	 ebp
  0000b	c2 08 00	 ret	 8
??0?$_List_unchecked_const_iterator@V?$_List_val@UFireTime@@V?$allocator@UFireTime@@@std@@@std@@U_Iterator_base0@2@@std@@QAE@PAU_Node@?$_List_nod@UFireTime@@V?$allocator@UFireTime@@@std@@@1@PBV?$_List_val@UFireTime@@V?$allocator@UFireTime@@@std@@@1@@Z ENDP ; std::_List_unchecked_const_iterator<std::_List_val<FireTime,std::allocator<FireTime> >,std::_Iterator_base0>::_List_unchecked_const_iterator<std::_List_val<FireTime,std::allocator<FireTime> >,std::_Iterator_base0>
_TEXT	ENDS
PUBLIC	??0?$_Vector_const_iterator@V?$_Vector_val@UExtraAniJump@@V?$allocator@UExtraAniJump@@@std@@@std@@@std@@QAE@PAUExtraAniJump@@PBU_Container_base0@1@@Z ; std::_Vector_const_iterator<std::_Vector_val<ExtraAniJump,std::allocator<ExtraAniJump> > >::_Vector_const_iterator<std::_Vector_val<ExtraAniJump,std::allocator<ExtraAniJump> > >
; Function compile flags: /Ogsp
; File c:\program files (x86)\microsoft visual studio 10.0\vc\include\vector
;	COMDAT ??0?$_Vector_const_iterator@V?$_Vector_val@UExtraAniJump@@V?$allocator@UExtraAniJump@@@std@@@std@@@std@@QAE@PAUExtraAniJump@@PBU_Container_base0@1@@Z
_TEXT	SEGMENT
__Parg$ = 8						; size = 4
__Pvector$ = 12						; size = 4
??0?$_Vector_const_iterator@V?$_Vector_val@UExtraAniJump@@V?$allocator@UExtraAniJump@@@std@@@std@@@std@@QAE@PAUExtraAniJump@@PBU_Container_base0@1@@Z PROC ; std::_Vector_const_iterator<std::_Vector_val<ExtraAniJump,std::allocator<ExtraAniJump> > >::_Vector_const_iterator<std::_Vector_val<ExtraAniJump,std::allocator<ExtraAniJump> > >, COMDAT
; _this$ = ecx

; 45   : 		{	// construct with pointer _Parg

  00000	55		 push	 ebp
  00001	8b ec		 mov	 ebp, esp
  00003	8b c1		 mov	 eax, ecx
  00005	8b 4d 08	 mov	 ecx, DWORD PTR __Parg$[ebp]
  00008	89 08		 mov	 DWORD PTR [eax], ecx

; 46   : 		this->_Adopt(_Pvector);
; 47   : 		}

  0000a	5d		 pop	 ebp
  0000b	c2 08 00	 ret	 8
??0?$_Vector_const_iterator@V?$_Vector_val@UExtraAniJump@@V?$allocator@UExtraAniJump@@@std@@@std@@@std@@QAE@PAUExtraAniJump@@PBU_Container_base0@1@@Z ENDP ; std::_Vector_const_iterator<std::_Vector_val<ExtraAniJump,std::allocator<ExtraAniJump> > >::_Vector_const_iterator<std::_Vector_val<ExtraAniJump,std::allocator<ExtraAniJump> > >
_TEXT	ENDS
PUBLIC	?_Parent@?$_Tree_val@V?$_Tmap_traits@HUtagDummyAttackInfo@@U?$less@H@std@@V?$allocator@U?$pair@$$CBHUtagDummyAttackInfo@@@std@@@3@$0A@@std@@@std@@SAAAPAU_Node@?$_Tree_nod@V?$_Tmap_traits@HUtagDummyAttackInfo@@U?$less@H@std@@V?$allocator@U?$pair@$$CBHUtagDummyAttackInfo@@@std@@@3@$0A@@std@@@2@PAU342@@Z ; std::_Tree_val<std::_Tmap_traits<int,tagDummyAttackInfo,std::less<int>,std::allocator<std::pair<int const ,tagDummyAttackInfo> >,0> >::_Parent
; Function compile flags: /Ogsp
; File c:\program files (x86)\microsoft visual studio 10.0\vc\include\xtree
;	COMDAT ?_Parent@?$_Tree_val@V?$_Tmap_traits@HUtagDummyAttackInfo@@U?$less@H@std@@V?$allocator@U?$pair@$$CBHUtagDummyAttackInfo@@@std@@@3@$0A@@std@@@std@@SAAAPAU_Node@?$_Tree_nod@V?$_Tmap_traits@HUtagDummyAttackInfo@@U?$less@H@std@@V?$allocator@U?$pair@$$CBHUtagDummyAttackInfo@@@std@@@3@$0A@@std@@@2@PAU342@@Z
_TEXT	SEGMENT
__Pnode$ = 8						; size = 4
?_Parent@?$_Tree_val@V?$_Tmap_traits@HUtagDummyAttackInfo@@U?$less@H@std@@V?$allocator@U?$pair@$$CBHUtagDummyAttackInfo@@@std@@@3@$0A@@std@@@std@@SAAAPAU_Node@?$_Tree_nod@V?$_Tmap_traits@HUtagDummyAttackInfo@@U?$less@H@std@@V?$allocator@U?$pair@$$CBHUtagDummyAttackInfo@@@std@@@3@$0A@@std@@@2@PAU342@@Z PROC ; std::_Tree_val<std::_Tmap_traits<int,tagDummyAttackInfo,std::less<int>,std::allocator<std::pair<int const ,tagDummyAttackInfo> >,0> >::_Parent, COMDAT

; 626  : 		{	// return reference to parent pointer in node

  00000	55		 push	 ebp
  00001	8b ec		 mov	 ebp, esp

; 627  : 		return ((_Nodepref)(*_Pnode)._Parent);

  00003	8b 45 08	 mov	 eax, DWORD PTR __Pnode$[ebp]
  00006	83 c0 04	 add	 eax, 4

; 628  : 		}

  00009	5d		 pop	 ebp
  0000a	c3		 ret	 0
?_Parent@?$_Tree_val@V?$_Tmap_traits@HUtagDummyAttackInfo@@U?$less@H@std@@V?$allocator@U?$pair@$$CBHUtagDummyAttackInfo@@@std@@@3@$0A@@std@@@std@@SAAAPAU_Node@?$_Tree_nod@V?$_Tmap_traits@HUtagDummyAttackInfo@@U?$less@H@std@@V?$allocator@U?$pair@$$CBHUtagDummyAttackInfo@@@std@@@3@$0A@@std@@@2@PAU342@@Z ENDP ; std::_Tree_val<std::_Tmap_traits<int,tagDummyAttackInfo,std::less<int>,std::allocator<std::pair<int const ,tagDummyAttackInfo> >,0> >::_Parent
_TEXT	ENDS
PUBLIC	?max_size@?$allocator@UFireTime@@@std@@QBEIXZ	; std::allocator<FireTime>::max_size
; Function compile flags: /Ogsp
; File c:\program files (x86)\microsoft visual studio 10.0\vc\include\xmemory
;	COMDAT ?max_size@?$allocator@UFireTime@@@std@@QBEIXZ
_TEXT	SEGMENT
?max_size@?$allocator@UFireTime@@@std@@QBEIXZ PROC	; std::allocator<FireTime>::max_size, COMDAT
; _this$ = ecx

; 218  : 		_SIZT _Count = (_SIZT)(-1) / sizeof (_Ty);
; 219  : 		return (0 < _Count ? _Count : 1);

  00000	b8 2e ba e8 02	 mov	 eax, 48806446		; 02e8ba2eH

; 220  : 		}

  00005	c3		 ret	 0
?max_size@?$allocator@UFireTime@@@std@@QBEIXZ ENDP	; std::allocator<FireTime>::max_size
_TEXT	ENDS
PUBLIC	?_Compat@?$_Vector_const_iterator@V?$_Vector_val@UExtraAniJump@@V?$allocator@UExtraAniJump@@@std@@@std@@@std@@QBEXABV12@@Z ; std::_Vector_const_iterator<std::_Vector_val<ExtraAniJump,std::allocator<ExtraAniJump> > >::_Compat
; Function compile flags: /Ogsp
; File c:\program files (x86)\microsoft visual studio 10.0\vc\include\vector
;	COMDAT ?_Compat@?$_Vector_const_iterator@V?$_Vector_val@UExtraAniJump@@V?$allocator@UExtraAniJump@@@std@@@std@@@std@@QBEXABV12@@Z
_TEXT	SEGMENT
___formal$ = 8						; size = 4
?_Compat@?$_Vector_const_iterator@V?$_Vector_val@UExtraAniJump@@V?$allocator@UExtraAniJump@@@std@@@std@@@std@@QBEXABV12@@Z PROC ; std::_Vector_const_iterator<std::_Vector_val<ExtraAniJump,std::allocator<ExtraAniJump> > >::_Compat, COMDAT
; _this$ = ecx

; 253  : 		}

  00000	c2 04 00	 ret	 4
?_Compat@?$_Vector_const_iterator@V?$_Vector_val@UExtraAniJump@@V?$allocator@UExtraAniJump@@@std@@@std@@@std@@QBEXABV12@@Z ENDP ; std::_Vector_const_iterator<std::_Vector_val<ExtraAniJump,std::allocator<ExtraAniJump> > >::_Compat
_TEXT	ENDS
PUBLIC	__real@3f91df46a2526c7a
PUBLIC	??$DEGtoRAD@M@@YAMM@Z				; DEGtoRAD<float>
;	COMDAT __real@3f91df46a2526c7a
; File d:\lost saga for developer\youtube\tutorial\source\src\lsclient\veryoftenusedefine.h
CONST	SEGMENT
__real@3f91df46a2526c7a DQ 03f91df46a2526c7ar	; 0.0174533
; Function compile flags: /Ogsp
CONST	ENDS
;	COMDAT ??$DEGtoRAD@M@@YAMM@Z
_TEXT	SEGMENT
tv129 = 8						; size = 4
_val$ = 8						; size = 4
??$DEGtoRAD@M@@YAMM@Z PROC				; DEGtoRAD<float>, COMDAT

; 20   : type  DEGtoRAD (type val) {return (type) (val * 0.0174532925199);}

  00000	55		 push	 ebp
  00001	8b ec		 mov	 ebp, esp
  00003	d9 45 08	 fld	 DWORD PTR _val$[ebp]
  00006	dc 0d 00 00 00
	00		 fmul	 QWORD PTR __real@3f91df46a2526c7a
  0000c	d9 5d 08	 fstp	 DWORD PTR tv129[ebp]
  0000f	d9 45 08	 fld	 DWORD PTR tv129[ebp]
  00012	5d		 pop	 ebp
  00013	c3		 ret	 0
??$DEGtoRAD@M@@YAMM@Z ENDP				; DEGtoRAD<float>
_TEXT	ENDS
PUBLIC	??$addressof@$$CBH@std@@YAPBHABH@Z		; std::addressof<int const >
; Function compile flags: /Ogsp
; File c:\program files (x86)\microsoft visual studio 10.0\vc\include\xmemory
;	COMDAT ??$addressof@$$CBH@std@@YAPBHABH@Z
_TEXT	SEGMENT
__Val$ = 8						; size = 4
??$addressof@$$CBH@std@@YAPBHABH@Z PROC			; std::addressof<int const >, COMDAT

; 110  : 	{	// return address of _Val

  00000	55		 push	 ebp
  00001	8b ec		 mov	 ebp, esp

; 111  : 	return ((_Ty *) &(char&)_Val);

  00003	8b 45 08	 mov	 eax, DWORD PTR __Val$[ebp]

; 112  : 	}

  00006	5d		 pop	 ebp
  00007	c3		 ret	 0
??$addressof@$$CBH@std@@YAPBHABH@Z ENDP			; std::addressof<int const >
_TEXT	ENDS
PUBLIC	??$addressof@$$CBUExtraAniJump@@@std@@YAPBUExtraAniJump@@ABU1@@Z ; std::addressof<ExtraAniJump const >
; Function compile flags: /Ogsp
;	COMDAT ??$addressof@$$CBUExtraAniJump@@@std@@YAPBUExtraAniJump@@ABU1@@Z
_TEXT	SEGMENT
__Val$ = 8						; size = 4
??$addressof@$$CBUExtraAniJump@@@std@@YAPBUExtraAniJump@@ABU1@@Z PROC ; std::addressof<ExtraAniJump const >, COMDAT

; 110  : 	{	// return address of _Val

  00000	55		 push	 ebp
  00001	8b ec		 mov	 ebp, esp

; 111  : 	return ((_Ty *) &(char&)_Val);

  00003	8b 45 08	 mov	 eax, DWORD PTR __Val$[ebp]

; 112  : 	}

  00006	5d		 pop	 ebp
  00007	c3		 ret	 0
??$addressof@$$CBUExtraAniJump@@@std@@YAPBUExtraAniJump@@ABU1@@Z ENDP ; std::addressof<ExtraAniJump const >
_TEXT	ENDS
PUBLIC	??$_Kfn@$$CBHUtagDummyAttackInfo@@@?$_Tmap_traits@HUtagDummyAttackInfo@@U?$less@H@std@@V?$allocator@U?$pair@$$CBHUtagDummyAttackInfo@@@std@@@3@$0A@@std@@SAABHABU?$pair@$$CBHUtagDummyAttackInfo@@@1@@Z ; std::_Tmap_traits<int,tagDummyAttackInfo,std::less<int>,std::allocator<std::pair<int const ,tagDummyAttackInfo> >,0>::_Kfn<int const ,tagDummyAttackInfo>
; Function compile flags: /Ogsp
; File c:\program files (x86)\microsoft visual studio 10.0\vc\include\map
;	COMDAT ??$_Kfn@$$CBHUtagDummyAttackInfo@@@?$_Tmap_traits@HUtagDummyAttackInfo@@U?$less@H@std@@V?$allocator@U?$pair@$$CBHUtagDummyAttackInfo@@@std@@@3@$0A@@std@@SAABHABU?$pair@$$CBHUtagDummyAttackInfo@@@1@@Z
_TEXT	SEGMENT
__Val$ = 8						; size = 4
??$_Kfn@$$CBHUtagDummyAttackInfo@@@?$_Tmap_traits@HUtagDummyAttackInfo@@U?$less@H@std@@V?$allocator@U?$pair@$$CBHUtagDummyAttackInfo@@@std@@@3@$0A@@std@@SAABHABU?$pair@$$CBHUtagDummyAttackInfo@@@1@@Z PROC ; std::_Tmap_traits<int,tagDummyAttackInfo,std::less<int>,std::allocator<std::pair<int const ,tagDummyAttackInfo> >,0>::_Kfn<int const ,tagDummyAttackInfo>, COMDAT

; 66   : 		static const _Kty& _Kfn(const _STD pair<_Ty1, _Ty2>& _Val)

  00000	55		 push	 ebp
  00001	8b ec		 mov	 ebp, esp

; 67   : 		{	// extract key from element value
; 68   : 		return (_Val.first);

  00003	8b 45 08	 mov	 eax, DWORD PTR __Val$[ebp]

; 69   : 		}

  00006	5d		 pop	 ebp
  00007	c3		 ret	 0
??$_Kfn@$$CBHUtagDummyAttackInfo@@@?$_Tmap_traits@HUtagDummyAttackInfo@@U?$less@H@std@@V?$allocator@U?$pair@$$CBHUtagDummyAttackInfo@@@std@@@3@$0A@@std@@SAABHABU?$pair@$$CBHUtagDummyAttackInfo@@@1@@Z ENDP ; std::_Tmap_traits<int,tagDummyAttackInfo,std::less<int>,std::allocator<std::pair<int const ,tagDummyAttackInfo> >,0>::_Kfn<int const ,tagDummyAttackInfo>
_TEXT	ENDS
PUBLIC	??$addressof@UFireTime@@@std@@YAPAUFireTime@@AAU1@@Z ; std::addressof<FireTime>
; Function compile flags: /Ogsp
; File c:\program files (x86)\microsoft visual studio 10.0\vc\include\xmemory
;	COMDAT ??$addressof@UFireTime@@@std@@YAPAUFireTime@@AAU1@@Z
_TEXT	SEGMENT
__Val$ = 8						; size = 4
??$addressof@UFireTime@@@std@@YAPAUFireTime@@AAU1@@Z PROC ; std::addressof<FireTime>, COMDAT

; 110  : 	{	// return address of _Val

  00000	55		 push	 ebp
  00001	8b ec		 mov	 ebp, esp

; 111  : 	return ((_Ty *) &(char&)_Val);

  00003	8b 45 08	 mov	 eax, DWORD PTR __Val$[ebp]

; 112  : 	}

  00006	5d		 pop	 ebp
  00007	c3		 ret	 0
??$addressof@UFireTime@@@std@@YAPAUFireTime@@AAU1@@Z ENDP ; std::addressof<FireTime>
_TEXT	ENDS
PUBLIC	??$?0M@?$allocator@U_Node@?$_List_nod@MV?$allocator@M@std@@@std@@@std@@QAE@ABV?$allocator@M@1@@Z ; std::allocator<std::_List_nod<float,std::allocator<float> >::_Node>::allocator<std::_List_nod<float,std::allocator<float> >::_Node><float>
; Function compile flags: /Ogsp
;	COMDAT ??$?0M@?$allocator@U_Node@?$_List_nod@MV?$allocator@M@std@@@std@@@std@@QAE@ABV?$allocator@M@1@@Z
_TEXT	SEGMENT
___formal$ = 8						; size = 4
??$?0M@?$allocator@U_Node@?$_List_nod@MV?$allocator@M@std@@@std@@@std@@QAE@ABV?$allocator@M@1@@Z PROC ; std::allocator<std::_List_nod<float,std::allocator<float> >::_Node>::allocator<std::_List_nod<float,std::allocator<float> >::_Node><float>, COMDAT
; _this$ = ecx

; 170  : 		_ALLOCATOR(const _ALLOCATOR<_Other>&) _THROW0()

  00000	8b c1		 mov	 eax, ecx

; 171  : 		{	// construct from a related allocator (do nothing)
; 172  : 		}

  00002	c2 04 00	 ret	 4
??$?0M@?$allocator@U_Node@?$_List_nod@MV?$allocator@M@std@@@std@@@std@@QAE@ABV?$allocator@M@1@@Z ENDP ; std::allocator<std::_List_nod<float,std::allocator<float> >::_Node>::allocator<std::_List_nod<float,std::allocator<float> >::_Node><float>
_TEXT	ENDS
PUBLIC	__TI2?AVbad_alloc@std@@
PUBLIC	??$_Allocate@U_Node@?$_List_nod@MV?$allocator@M@std@@@std@@@std@@YAPAU_Node@?$_List_nod@MV?$allocator@M@std@@@0@IPAU120@@Z ; std::_Allocate<std::_List_nod<float,std::allocator<float> >::_Node>
PUBLIC	__CTA2?AVbad_alloc@std@@
PUBLIC	__CT??_R0?AVbad_alloc@std@@@8??0bad_alloc@std@@QAE@ABV01@@Z12
PUBLIC	??0bad_alloc@std@@QAE@ABV01@@Z			; std::bad_alloc::bad_alloc
PUBLIC	__CT??_R0?AVexception@std@@@8??0exception@std@@QAE@ABV01@@Z12
EXTRN	??2@YAPAXI@Z:PROC				; operator new
EXTRN	__CxxThrowException@8:PROC
EXTRN	??0exception@std@@QAE@ABV01@@Z:PROC		; std::exception::exception
;	COMDAT __CT??_R0?AVexception@std@@@8??0exception@std@@QAE@ABV01@@Z12
; File c:\program files (x86)\microsoft visual studio 10.0\vc\include\exception
xdata$x	SEGMENT
__CT??_R0?AVexception@std@@@8??0exception@std@@QAE@ABV01@@Z12 DD 00H
	DD	FLAT:??_R0?AVexception@std@@@8
	DD	00H
	DD	0ffffffffH
	ORG $+4
	DD	0cH
	DD	FLAT:??0exception@std@@QAE@ABV01@@Z
xdata$x	ENDS
;	COMDAT __CT??_R0?AVbad_alloc@std@@@8??0bad_alloc@std@@QAE@ABV01@@Z12
xdata$x	SEGMENT
__CT??_R0?AVbad_alloc@std@@@8??0bad_alloc@std@@QAE@ABV01@@Z12 DD 00H
	DD	FLAT:??_R0?AVbad_alloc@std@@@8
	DD	00H
	DD	0ffffffffH
	ORG $+4
	DD	0cH
	DD	FLAT:??0bad_alloc@std@@QAE@ABV01@@Z
xdata$x	ENDS
;	COMDAT __CTA2?AVbad_alloc@std@@
xdata$x	SEGMENT
__CTA2?AVbad_alloc@std@@ DD 02H
	DD	FLAT:__CT??_R0?AVbad_alloc@std@@@8??0bad_alloc@std@@QAE@ABV01@@Z12
	DD	FLAT:__CT??_R0?AVexception@std@@@8??0exception@std@@QAE@ABV01@@Z12
xdata$x	ENDS
;	COMDAT __TI2?AVbad_alloc@std@@
xdata$x	SEGMENT
__TI2?AVbad_alloc@std@@ DD 00H
	DD	FLAT:??1bad_alloc@std@@UAE@XZ
	DD	00H
	DD	FLAT:__CTA2?AVbad_alloc@std@@
; Function compile flags: /Ogsp
; File c:\program files (x86)\microsoft visual studio 10.0\vc\include\xmemory
xdata$x	ENDS
;	COMDAT ??$_Allocate@U_Node@?$_List_nod@MV?$allocator@M@std@@@std@@@std@@YAPAU_Node@?$_List_nod@MV?$allocator@M@std@@@0@IPAU120@@Z
_TEXT	SEGMENT
$T670131 = -12						; size = 12
$T670136 = 8						; size = 4
__Count$ = 8						; size = 4
___formal$ = 12						; size = 4
??$_Allocate@U_Node@?$_List_nod@MV?$allocator@M@std@@@std@@@std@@YAPAU_Node@?$_List_nod@MV?$allocator@M@std@@@0@IPAU120@@Z PROC ; std::_Allocate<std::_List_nod<float,std::allocator<float> >::_Node>, COMDAT

; 30   : 	{	// allocate storage for _Count elements of type _Ty

  00000	55		 push	 ebp
  00001	8b ec		 mov	 ebp, esp

; 31   : 	void *_Ptr = 0;
; 32   : 
; 33   : 	if (_Count <= 0)

  00003	8b 4d 08	 mov	 ecx, DWORD PTR __Count$[ebp]
  00006	83 ec 0c	 sub	 esp, 12			; 0000000cH
  00009	33 c0		 xor	 eax, eax
  0000b	85 c9		 test	 ecx, ecx

; 34   : 		_Count = 0;
; 35   : 	else if (((_SIZT)(-1) / sizeof (_Ty) < _Count)

  0000d	74 3c		 je	 SHORT $LN5@Allocate

; 36   : 		|| (_Ptr = ::operator new(_Count * sizeof (_Ty))) == 0)

  0000f	81 f9 55 55 55
	15		 cmp	 ecx, 357913941		; 15555555H
  00015	77 0e		 ja	 SHORT $LN1@Allocate
  00017	6b c9 0c	 imul	 ecx, 12			; 0000000cH
  0001a	51		 push	 ecx
  0001b	e8 00 00 00 00	 call	 ??2@YAPAXI@Z		; operator new
  00020	59		 pop	 ecx
  00021	85 c0		 test	 eax, eax

; 38   : 
; 39   : 	return ((_Ty _FARQ *)_Ptr);

  00023	75 26		 jne	 SHORT $LN5@Allocate
$LN1@Allocate:

; 37   : 		_THROW_NCEE(bad_alloc, 0);

  00025	83 65 08 00	 and	 DWORD PTR $T670136[ebp], 0
  00029	8d 45 08	 lea	 eax, DWORD PTR $T670136[ebp]
  0002c	50		 push	 eax
  0002d	8d 4d f4	 lea	 ecx, DWORD PTR $T670131[ebp]
  00030	ff 15 00 00 00
	00		 call	 DWORD PTR __imp_??0exception@std@@QAE@ABQBD@Z
  00036	68 00 00 00 00	 push	 OFFSET __TI2?AVbad_alloc@std@@
  0003b	8d 45 f4	 lea	 eax, DWORD PTR $T670131[ebp]
  0003e	50		 push	 eax
  0003f	c7 45 f4 00 00
	00 00		 mov	 DWORD PTR $T670131[ebp], OFFSET ??_7bad_alloc@std@@6B@
  00046	e8 00 00 00 00	 call	 __CxxThrowException@8
$LN10@Allocate:
$LN5@Allocate:

; 40   : 	}

  0004b	c9		 leave
  0004c	c3		 ret	 0
$LN9@Allocate:
??$_Allocate@U_Node@?$_List_nod@MV?$allocator@M@std@@@std@@@std@@YAPAU_Node@?$_List_nod@MV?$allocator@M@std@@@0@IPAU120@@Z ENDP ; std::_Allocate<std::_List_nod<float,std::allocator<float> >::_Node>
_TEXT	ENDS
PUBLIC	??$_Allocate@U_Node@?$_List_nod@UFireTime@@V?$allocator@UFireTime@@@std@@@std@@@std@@YAPAU_Node@?$_List_nod@UFireTime@@V?$allocator@UFireTime@@@std@@@0@IPAU120@@Z ; std::_Allocate<std::_List_nod<FireTime,std::allocator<FireTime> >::_Node>
; Function compile flags: /Ogsp
;	COMDAT ??$_Allocate@U_Node@?$_List_nod@UFireTime@@V?$allocator@UFireTime@@@std@@@std@@@std@@YAPAU_Node@?$_List_nod@UFireTime@@V?$allocator@UFireTime@@@std@@@0@IPAU120@@Z
_TEXT	SEGMENT
$T670141 = -12						; size = 12
$T670145 = 8						; size = 4
__Count$ = 8						; size = 4
___formal$ = 12						; size = 4
??$_Allocate@U_Node@?$_List_nod@UFireTime@@V?$allocator@UFireTime@@@std@@@std@@@std@@YAPAU_Node@?$_List_nod@UFireTime@@V?$allocator@UFireTime@@@std@@@0@IPAU120@@Z PROC ; std::_Allocate<std::_List_nod<FireTime,std::allocator<FireTime> >::_Node>, COMDAT

; 30   : 	{	// allocate storage for _Count elements of type _Ty

  00000	55		 push	 ebp
  00001	8b ec		 mov	 ebp, esp

; 31   : 	void *_Ptr = 0;
; 32   : 
; 33   : 	if (_Count <= 0)

  00003	8b 4d 08	 mov	 ecx, DWORD PTR __Count$[ebp]
  00006	83 ec 0c	 sub	 esp, 12			; 0000000cH
  00009	33 c0		 xor	 eax, eax
  0000b	85 c9		 test	 ecx, ecx

; 34   : 		_Count = 0;
; 35   : 	else if (((_SIZT)(-1) / sizeof (_Ty) < _Count)

  0000d	74 3c		 je	 SHORT $LN5@Allocate@2

; 36   : 		|| (_Ptr = ::operator new(_Count * sizeof (_Ty))) == 0)

  0000f	81 f9 aa aa aa
	02		 cmp	 ecx, 44739242		; 02aaaaaaH
  00015	77 0e		 ja	 SHORT $LN1@Allocate@2
  00017	6b c9 60	 imul	 ecx, 96			; 00000060H
  0001a	51		 push	 ecx
  0001b	e8 00 00 00 00	 call	 ??2@YAPAXI@Z		; operator new
  00020	59		 pop	 ecx
  00021	85 c0		 test	 eax, eax

; 38   : 
; 39   : 	return ((_Ty _FARQ *)_Ptr);

  00023	75 26		 jne	 SHORT $LN5@Allocate@2
$LN1@Allocate@2:

; 37   : 		_THROW_NCEE(bad_alloc, 0);

  00025	83 65 08 00	 and	 DWORD PTR $T670145[ebp], 0
  00029	8d 45 08	 lea	 eax, DWORD PTR $T670145[ebp]
  0002c	50		 push	 eax
  0002d	8d 4d f4	 lea	 ecx, DWORD PTR $T670141[ebp]
  00030	ff 15 00 00 00
	00		 call	 DWORD PTR __imp_??0exception@std@@QAE@ABQBD@Z
  00036	68 00 00 00 00	 push	 OFFSET __TI2?AVbad_alloc@std@@
  0003b	8d 45 f4	 lea	 eax, DWORD PTR $T670141[ebp]
  0003e	50		 push	 eax
  0003f	c7 45 f4 00 00
	00 00		 mov	 DWORD PTR $T670141[ebp], OFFSET ??_7bad_alloc@std@@6B@
  00046	e8 00 00 00 00	 call	 __CxxThrowException@8
$LN10@Allocate@2:
$LN5@Allocate@2:

; 40   : 	}

  0004b	c9		 leave
  0004c	c3		 ret	 0
$LN9@Allocate@2:
??$_Allocate@U_Node@?$_List_nod@UFireTime@@V?$allocator@UFireTime@@@std@@@std@@@std@@YAPAU_Node@?$_List_nod@UFireTime@@V?$allocator@UFireTime@@@std@@@0@IPAU120@@Z ENDP ; std::_Allocate<std::_List_nod<FireTime,std::allocator<FireTime> >::_Node>
_TEXT	ENDS
PUBLIC	??$_Allocate@UExtraAniJump@@@std@@YAPAUExtraAniJump@@IPAU1@@Z ; std::_Allocate<ExtraAniJump>
; Function compile flags: /Ogsp
;	COMDAT ??$_Allocate@UExtraAniJump@@@std@@YAPAUExtraAniJump@@IPAU1@@Z
_TEXT	SEGMENT
$T670150 = -12						; size = 12
$T670154 = 8						; size = 4
__Count$ = 8						; size = 4
___formal$ = 12						; size = 4
??$_Allocate@UExtraAniJump@@@std@@YAPAUExtraAniJump@@IPAU1@@Z PROC ; std::_Allocate<ExtraAniJump>, COMDAT

; 30   : 	{	// allocate storage for _Count elements of type _Ty

  00000	55		 push	 ebp
  00001	8b ec		 mov	 ebp, esp

; 31   : 	void *_Ptr = 0;
; 32   : 
; 33   : 	if (_Count <= 0)

  00003	8b 4d 08	 mov	 ecx, DWORD PTR __Count$[ebp]
  00006	83 ec 0c	 sub	 esp, 12			; 0000000cH
  00009	33 c0		 xor	 eax, eax
  0000b	85 c9		 test	 ecx, ecx

; 34   : 		_Count = 0;
; 35   : 	else if (((_SIZT)(-1) / sizeof (_Ty) < _Count)

  0000d	74 3e		 je	 SHORT $LN5@Allocate@3

; 36   : 		|| (_Ptr = ::operator new(_Count * sizeof (_Ty))) == 0)

  0000f	81 f9 ff ff ff
	1f		 cmp	 ecx, 536870911		; 1fffffffH
  00015	77 10		 ja	 SHORT $LN1@Allocate@3
  00017	8b c1		 mov	 eax, ecx
  00019	c1 e0 03	 shl	 eax, 3
  0001c	50		 push	 eax
  0001d	e8 00 00 00 00	 call	 ??2@YAPAXI@Z		; operator new
  00022	59		 pop	 ecx
  00023	85 c0		 test	 eax, eax

; 38   : 
; 39   : 	return ((_Ty _FARQ *)_Ptr);

  00025	75 26		 jne	 SHORT $LN5@Allocate@3
$LN1@Allocate@3:

; 37   : 		_THROW_NCEE(bad_alloc, 0);

  00027	83 65 08 00	 and	 DWORD PTR $T670154[ebp], 0
  0002b	8d 45 08	 lea	 eax, DWORD PTR $T670154[ebp]
  0002e	50		 push	 eax
  0002f	8d 4d f4	 lea	 ecx, DWORD PTR $T670150[ebp]
  00032	ff 15 00 00 00
	00		 call	 DWORD PTR __imp_??0exception@std@@QAE@ABQBD@Z
  00038	68 00 00 00 00	 push	 OFFSET __TI2?AVbad_alloc@std@@
  0003d	8d 45 f4	 lea	 eax, DWORD PTR $T670150[ebp]
  00040	50		 push	 eax
  00041	c7 45 f4 00 00
	00 00		 mov	 DWORD PTR $T670150[ebp], OFFSET ??_7bad_alloc@std@@6B@
  00048	e8 00 00 00 00	 call	 __CxxThrowException@8
$LN10@Allocate@3:
$LN5@Allocate@3:

; 40   : 	}

  0004d	c9		 leave
  0004e	c3		 ret	 0
$LN9@Allocate@3:
??$_Allocate@UExtraAniJump@@@std@@YAPAUExtraAniJump@@IPAU1@@Z ENDP ; std::_Allocate<ExtraAniJump>
_TEXT	ENDS
PUBLIC	??$forward@ABH@std@@YAABHABH@Z			; std::forward<int const &>
; Function compile flags: /Ogsp
; File c:\program files (x86)\microsoft visual studio 10.0\vc\include\utility
;	COMDAT ??$forward@ABH@std@@YAABHABH@Z
_TEXT	SEGMENT
__Arg$ = 8						; size = 4
??$forward@ABH@std@@YAABHABH@Z PROC			; std::forward<int const &>, COMDAT

; 78   : 	{	// forward _Arg, given explicitly specified type parameter

  00000	55		 push	 ebp
  00001	8b ec		 mov	 ebp, esp

; 79   : 	return ((_Ty&&)_Arg);

  00003	8b 45 08	 mov	 eax, DWORD PTR __Arg$[ebp]

; 80   : 	}

  00006	5d		 pop	 ebp
  00007	c3		 ret	 0
??$forward@ABH@std@@YAABHABH@Z ENDP			; std::forward<int const &>
_TEXT	ENDS
PUBLIC	??$forward@AAUExtraAniJump@@@std@@YAAAUExtraAniJump@@AAU1@@Z ; std::forward<ExtraAniJump &>
; Function compile flags: /Ogsp
;	COMDAT ??$forward@AAUExtraAniJump@@@std@@YAAAUExtraAniJump@@AAU1@@Z
_TEXT	SEGMENT
__Arg$ = 8						; size = 4
??$forward@AAUExtraAniJump@@@std@@YAAAUExtraAniJump@@AAU1@@Z PROC ; std::forward<ExtraAniJump &>, COMDAT

; 78   : 	{	// forward _Arg, given explicitly specified type parameter

  00000	55		 push	 ebp
  00001	8b ec		 mov	 ebp, esp

; 79   : 	return ((_Ty&&)_Arg);

  00003	8b 45 08	 mov	 eax, DWORD PTR __Arg$[ebp]

; 80   : 	}

  00006	5d		 pop	 ebp
  00007	c3		 ret	 0
??$forward@AAUExtraAniJump@@@std@@YAAAUExtraAniJump@@AAU1@@Z ENDP ; std::forward<ExtraAniJump &>
_TEXT	ENDS
PUBLIC	??$construct@AAUExtraAniJump@@@?$allocator@UExtraAniJump@@@std@@QAEXPAUExtraAniJump@@AAU2@@Z ; std::allocator<ExtraAniJump>::construct<ExtraAniJump &>
; Function compile flags: /Ogsp
; File c:\program files (x86)\microsoft visual studio 10.0\vc\include\xmemory
;	COMDAT ??$construct@AAUExtraAniJump@@@?$allocator@UExtraAniJump@@@std@@QAEXPAUExtraAniJump@@AAU2@@Z
_TEXT	SEGMENT
__Ptr$ = 8						; size = 4
__Val$ = 12						; size = 4
??$construct@AAUExtraAniJump@@@?$allocator@UExtraAniJump@@@std@@QAEXPAUExtraAniJump@@AAU2@@Z PROC ; std::allocator<ExtraAniJump>::construct<ExtraAniJump &>, COMDAT
; _this$ = ecx

; 206  : 		void construct(pointer _Ptr, _Other&& _Val)

  00000	55		 push	 ebp
  00001	8b ec		 mov	 ebp, esp

; 207  : 		{	// construct object at _Ptr with value _Val
; 208  : 		::new ((void _FARQ *)_Ptr) _Ty(_STD forward<_Other>(_Val));

  00003	8b 45 08	 mov	 eax, DWORD PTR __Ptr$[ebp]
  00006	85 c0		 test	 eax, eax
  00008	74 0d		 je	 SHORT $LN3@construct
  0000a	8b 4d 0c	 mov	 ecx, DWORD PTR __Val$[ebp]
  0000d	8b 11		 mov	 edx, DWORD PTR [ecx]
  0000f	89 10		 mov	 DWORD PTR [eax], edx
  00011	8b 49 04	 mov	 ecx, DWORD PTR [ecx+4]
  00014	89 48 04	 mov	 DWORD PTR [eax+4], ecx
$LN3@construct:

; 209  : 		}

  00017	5d		 pop	 ebp
  00018	c2 08 00	 ret	 8
??$construct@AAUExtraAniJump@@@?$allocator@UExtraAniJump@@@std@@QAEXPAUExtraAniJump@@AAU2@@Z ENDP ; std::allocator<ExtraAniJump>::construct<ExtraAniJump &>
_TEXT	ENDS
PUBLIC	??$forward@ABUExtraAniJump@@@std@@YAABUExtraAniJump@@ABU1@@Z ; std::forward<ExtraAniJump const &>
; Function compile flags: /Ogsp
; File c:\program files (x86)\microsoft visual studio 10.0\vc\include\utility
;	COMDAT ??$forward@ABUExtraAniJump@@@std@@YAABUExtraAniJump@@ABU1@@Z
_TEXT	SEGMENT
__Arg$ = 8						; size = 4
??$forward@ABUExtraAniJump@@@std@@YAABUExtraAniJump@@ABU1@@Z PROC ; std::forward<ExtraAniJump const &>, COMDAT

; 78   : 	{	// forward _Arg, given explicitly specified type parameter

  00000	55		 push	 ebp
  00001	8b ec		 mov	 ebp, esp

; 79   : 	return ((_Ty&&)_Arg);

  00003	8b 45 08	 mov	 eax, DWORD PTR __Arg$[ebp]

; 80   : 	}

  00006	5d		 pop	 ebp
  00007	c3		 ret	 0
??$forward@ABUExtraAniJump@@@std@@YAABUExtraAniJump@@ABU1@@Z ENDP ; std::forward<ExtraAniJump const &>
_TEXT	ENDS
PUBLIC	??$_Ptr_cat@UExtraAniJump@@U1@@std@@YA?AU_Nonscalar_ptr_iterator_tag@0@PAUExtraAniJump@@0@Z ; std::_Ptr_cat<ExtraAniJump,ExtraAniJump>
; Function compile flags: /Ogsp
; File c:\program files (x86)\microsoft visual studio 10.0\vc\include\xutility
;	COMDAT ??$_Ptr_cat@UExtraAniJump@@U1@@std@@YA?AU_Nonscalar_ptr_iterator_tag@0@PAUExtraAniJump@@0@Z
_TEXT	SEGMENT
__Cat$ = -1						; size = 1
___formal$ = 8						; size = 4
___formal$ = 12						; size = 4
??$_Ptr_cat@UExtraAniJump@@U1@@std@@YA?AU_Nonscalar_ptr_iterator_tag@0@PAUExtraAniJump@@0@Z PROC ; std::_Ptr_cat<ExtraAniJump,ExtraAniJump>, COMDAT

; 516  : 	{	// return pointer category from pointers

  00000	55		 push	 ebp
  00001	8b ec		 mov	 ebp, esp
  00003	51		 push	 ecx

; 517  : 	typename _Ptr_cat_helper<_Elem1, _Elem2>::_Type _Cat;
; 518  : 	return (_Cat);

  00004	8a 45 ff	 mov	 al, BYTE PTR __Cat$[ebp]

; 519  : 	}

  00007	c9		 leave
  00008	c3		 ret	 0
??$_Ptr_cat@UExtraAniJump@@U1@@std@@YA?AU_Nonscalar_ptr_iterator_tag@0@PAUExtraAniJump@@0@Z ENDP ; std::_Ptr_cat<ExtraAniJump,ExtraAniJump>
_TEXT	ENDS
PUBLIC	??$forward@ABUFireTime@@@std@@YAABUFireTime@@ABU1@@Z ; std::forward<FireTime const &>
; Function compile flags: /Ogsp
; File c:\program files (x86)\microsoft visual studio 10.0\vc\include\utility
;	COMDAT ??$forward@ABUFireTime@@@std@@YAABUFireTime@@ABU1@@Z
_TEXT	SEGMENT
__Arg$ = 8						; size = 4
??$forward@ABUFireTime@@@std@@YAABUFireTime@@ABU1@@Z PROC ; std::forward<FireTime const &>, COMDAT

; 78   : 	{	// forward _Arg, given explicitly specified type parameter

  00000	55		 push	 ebp
  00001	8b ec		 mov	 ebp, esp

; 79   : 	return ((_Ty&&)_Arg);

  00003	8b 45 08	 mov	 eax, DWORD PTR __Arg$[ebp]

; 80   : 	}

  00006	5d		 pop	 ebp
  00007	c3		 ret	 0
??$forward@ABUFireTime@@@std@@YAABUFireTime@@ABU1@@Z ENDP ; std::forward<FireTime const &>
_TEXT	ENDS
PUBLIC	??$_Ptr_cat@PBUAniEventTime@@PBU1@@std@@YA?AU_Scalar_ptr_iterator_tag@0@PAPBUAniEventTime@@0@Z ; std::_Ptr_cat<AniEventTime const *,AniEventTime const *>
; Function compile flags: /Ogsp
; File c:\program files (x86)\microsoft visual studio 10.0\vc\include\xutility
;	COMDAT ??$_Ptr_cat@PBUAniEventTime@@PBU1@@std@@YA?AU_Scalar_ptr_iterator_tag@0@PAPBUAniEventTime@@0@Z
_TEXT	SEGMENT
__Cat$ = -1						; size = 1
___formal$ = 8						; size = 4
___formal$ = 12						; size = 4
??$_Ptr_cat@PBUAniEventTime@@PBU1@@std@@YA?AU_Scalar_ptr_iterator_tag@0@PAPBUAniEventTime@@0@Z PROC ; std::_Ptr_cat<AniEventTime const *,AniEventTime const *>, COMDAT

; 516  : 	{	// return pointer category from pointers

  00000	55		 push	 ebp
  00001	8b ec		 mov	 ebp, esp
  00003	51		 push	 ecx

; 517  : 	typename _Ptr_cat_helper<_Elem1, _Elem2>::_Type _Cat;
; 518  : 	return (_Cat);

  00004	8a 45 ff	 mov	 al, BYTE PTR __Cat$[ebp]

; 519  : 	}

  00007	c9		 leave
  00008	c3		 ret	 0
??$_Ptr_cat@PBUAniEventTime@@PBU1@@std@@YA?AU_Scalar_ptr_iterator_tag@0@PAPBUAniEventTime@@0@Z ENDP ; std::_Ptr_cat<AniEventTime const *,AniEventTime const *>
_TEXT	ENDS
PUBLIC	??$_Destroy_range@V?$allocator@PBUAniEventTime@@@std@@@std@@YAXPAPBUAniEventTime@@0AAV?$allocator@PBUAniEventTime@@@0@U_Scalar_ptr_iterator_tag@0@@Z ; std::_Destroy_range<std::allocator<AniEventTime const *> >
; Function compile flags: /Ogsp
; File c:\program files (x86)\microsoft visual studio 10.0\vc\include\xmemory
;	COMDAT ??$_Destroy_range@V?$allocator@PBUAniEventTime@@@std@@@std@@YAXPAPBUAniEventTime@@0AAV?$allocator@PBUAniEventTime@@@0@U_Scalar_ptr_iterator_tag@0@@Z
_TEXT	SEGMENT
__First$ = 8						; size = 4
__Last$ = 12						; size = 4
__Al$ = 16						; size = 4
___formal$ = 20						; size = 1
??$_Destroy_range@V?$allocator@PBUAniEventTime@@@std@@@std@@YAXPAPBUAniEventTime@@0AAV?$allocator@PBUAniEventTime@@@0@U_Scalar_ptr_iterator_tag@0@@Z PROC ; std::_Destroy_range<std::allocator<AniEventTime const *> >, COMDAT

; 105  : 	}

  00000	c3		 ret	 0
??$_Destroy_range@V?$allocator@PBUAniEventTime@@@std@@@std@@YAXPAPBUAniEventTime@@0AAV?$allocator@PBUAniEventTime@@@0@U_Scalar_ptr_iterator_tag@0@@Z ENDP ; std::_Destroy_range<std::allocator<AniEventTime const *> >
_TEXT	ENDS
PUBLIC	??$_Construct@HABH@std@@YAXPAHABH@Z		; std::_Construct<int,int const &>
; Function compile flags: /Ogsp
;	COMDAT ??$_Construct@HABH@std@@YAXPAHABH@Z
_TEXT	SEGMENT
__Ptr$ = 8						; size = 4
__Val$ = 12						; size = 4
??$_Construct@HABH@std@@YAXPAHABH@Z PROC		; std::_Construct<int,int const &>, COMDAT

; 46   : 	{	// construct object at _Ptr with value _Val

  00000	55		 push	 ebp
  00001	8b ec		 mov	 ebp, esp

; 47   : 	void _FARQ *_Vptr = _Ptr;
; 48   : 	::new (_Vptr) _Ty1(_STD forward<_Ty2>(_Val));

  00003	8b 45 08	 mov	 eax, DWORD PTR __Ptr$[ebp]
  00006	85 c0		 test	 eax, eax
  00008	74 07		 je	 SHORT $LN3@Construct
  0000a	8b 4d 0c	 mov	 ecx, DWORD PTR __Val$[ebp]
  0000d	8b 09		 mov	 ecx, DWORD PTR [ecx]
  0000f	89 08		 mov	 DWORD PTR [eax], ecx
$LN3@Construct:

; 49   : 	}

  00011	5d		 pop	 ebp
  00012	c3		 ret	 0
??$_Construct@HABH@std@@YAXPAHABH@Z ENDP		; std::_Construct<int,int const &>
_TEXT	ENDS
PUBLIC	??$_Construct@UExtraAniJump@@ABU1@@std@@YAXPAUExtraAniJump@@ABU1@@Z ; std::_Construct<ExtraAniJump,ExtraAniJump const &>
; Function compile flags: /Ogsp
;	COMDAT ??$_Construct@UExtraAniJump@@ABU1@@std@@YAXPAUExtraAniJump@@ABU1@@Z
_TEXT	SEGMENT
__Ptr$ = 8						; size = 4
__Val$ = 12						; size = 4
??$_Construct@UExtraAniJump@@ABU1@@std@@YAXPAUExtraAniJump@@ABU1@@Z PROC ; std::_Construct<ExtraAniJump,ExtraAniJump const &>, COMDAT

; 46   : 	{	// construct object at _Ptr with value _Val

  00000	55		 push	 ebp
  00001	8b ec		 mov	 ebp, esp

; 47   : 	void _FARQ *_Vptr = _Ptr;
; 48   : 	::new (_Vptr) _Ty1(_STD forward<_Ty2>(_Val));

  00003	8b 45 08	 mov	 eax, DWORD PTR __Ptr$[ebp]
  00006	85 c0		 test	 eax, eax
  00008	74 0d		 je	 SHORT $LN3@Construct@2
  0000a	8b 4d 0c	 mov	 ecx, DWORD PTR __Val$[ebp]
  0000d	8b 11		 mov	 edx, DWORD PTR [ecx]
  0000f	89 10		 mov	 DWORD PTR [eax], edx
  00011	8b 49 04	 mov	 ecx, DWORD PTR [ecx+4]
  00014	89 48 04	 mov	 DWORD PTR [eax+4], ecx
$LN3@Construct@2:

; 49   : 	}

  00017	5d		 pop	 ebp
  00018	c3		 ret	 0
??$_Construct@UExtraAniJump@@ABU1@@std@@YAXPAUExtraAniJump@@ABU1@@Z ENDP ; std::_Construct<ExtraAniJump,ExtraAniJump const &>
_TEXT	ENDS
PUBLIC	??$_Destroy@U_Node@?$_List_nod@MV?$allocator@M@std@@@std@@@std@@YAXPAU_Node@?$_List_nod@MV?$allocator@M@std@@@0@@Z ; std::_Destroy<std::_List_nod<float,std::allocator<float> >::_Node>
; Function compile flags: /Ogsp
;	COMDAT ??$_Destroy@U_Node@?$_List_nod@MV?$allocator@M@std@@@std@@@std@@YAXPAU_Node@?$_List_nod@MV?$allocator@M@std@@@0@@Z
_TEXT	SEGMENT
__Ptr$ = 8						; size = 4
??$_Destroy@U_Node@?$_List_nod@MV?$allocator@M@std@@@std@@@std@@YAXPAU_Node@?$_List_nod@MV?$allocator@M@std@@@0@@Z PROC ; std::_Destroy<std::_List_nod<float,std::allocator<float> >::_Node>, COMDAT

; 63   : 	_Ptr->~_Ty();
; 64   : 	}

  00000	c3		 ret	 0
??$_Destroy@U_Node@?$_List_nod@MV?$allocator@M@std@@@std@@@std@@YAXPAU_Node@?$_List_nod@MV?$allocator@M@std@@@0@@Z ENDP ; std::_Destroy<std::_List_nod<float,std::allocator<float> >::_Node>
_TEXT	ENDS
PUBLIC	??0FireTime@@QAE@ABU0@@Z			; FireTime::FireTime
EXTRN	__imp_??0ioHashString@@QAE@ABV0@@Z:PROC
;	COMDAT xdata$x
xdata$x	SEGMENT
__unwindtable$??0FireTime@@QAE@ABU0@@Z DD 0ffffffffH
	DD	FLAT:__unwindfunclet$??0FireTime@@QAE@ABU0@@Z$0
	DD	00H
	DD	FLAT:__unwindfunclet$??0FireTime@@QAE@ABU0@@Z$1
__ehfuncinfo$??0FireTime@@QAE@ABU0@@Z DD 019930522H
	DD	02H
	DD	FLAT:__unwindtable$??0FireTime@@QAE@ABU0@@Z
	DD	2 DUP(00H)
	DD	2 DUP(00H)
	DD	00H
	DD	01H
; Function compile flags: /Ogsp
xdata$x	ENDS
;	COMDAT ??0FireTime@@QAE@ABU0@@Z
_TEXT	SEGMENT
_this$ = -16						; size = 4
__$EHRec$ = -12						; size = 12
___that$ = 8						; size = 4
??0FireTime@@QAE@ABU0@@Z PROC				; FireTime::FireTime, COMDAT
; _this$ = ecx
  00000	6a 04		 push	 4
  00002	b8 00 00 00 00	 mov	 eax, __ehhandler$??0FireTime@@QAE@ABU0@@Z
  00007	e8 00 00 00 00	 call	 __EH_prolog3
  0000c	8b f1		 mov	 esi, ecx
  0000e	89 75 f0	 mov	 DWORD PTR _this$[ebp], esi
  00011	8b 7d 08	 mov	 edi, DWORD PTR ___that$[ebp]
  00014	8b 07		 mov	 eax, DWORD PTR [edi]
  00016	8b 1d 00 00 00
	00		 mov	 ebx, DWORD PTR __imp_??0ioHashString@@QAE@ABV0@@Z
  0001c	89 06		 mov	 DWORD PTR [esi], eax
  0001e	8b 47 04	 mov	 eax, DWORD PTR [edi+4]
  00021	89 46 04	 mov	 DWORD PTR [esi+4], eax
  00024	8b 47 08	 mov	 eax, DWORD PTR [edi+8]
  00027	89 46 08	 mov	 DWORD PTR [esi+8], eax
  0002a	8b 47 0c	 mov	 eax, DWORD PTR [edi+12]
  0002d	89 46 0c	 mov	 DWORD PTR [esi+12], eax
  00030	8a 47 10	 mov	 al, BYTE PTR [edi+16]
  00033	88 46 10	 mov	 BYTE PTR [esi+16], al
  00036	8d 47 14	 lea	 eax, DWORD PTR [edi+20]
  00039	50		 push	 eax
  0003a	8d 4e 14	 lea	 ecx, DWORD PTR [esi+20]
  0003d	ff d3		 call	 ebx
  0003f	8b 47 24	 mov	 eax, DWORD PTR [edi+36]
  00042	83 65 fc 00	 and	 DWORD PTR __$EHRec$[ebp+8], 0
  00046	89 46 24	 mov	 DWORD PTR [esi+36], eax
  00049	8b 47 28	 mov	 eax, DWORD PTR [edi+40]
  0004c	89 46 28	 mov	 DWORD PTR [esi+40], eax
  0004f	8b 47 2c	 mov	 eax, DWORD PTR [edi+44]
  00052	89 46 2c	 mov	 DWORD PTR [esi+44], eax
  00055	8d 47 30	 lea	 eax, DWORD PTR [edi+48]
  00058	50		 push	 eax
  00059	8d 4e 30	 lea	 ecx, DWORD PTR [esi+48]
  0005c	ff d3		 call	 ebx
  0005e	8b 47 40	 mov	 eax, DWORD PTR [edi+64]
  00061	89 46 40	 mov	 DWORD PTR [esi+64], eax
  00064	8d 47 44	 lea	 eax, DWORD PTR [edi+68]
  00067	50		 push	 eax
  00068	8d 4e 44	 lea	 ecx, DWORD PTR [esi+68]
  0006b	c6 45 fc 01	 mov	 BYTE PTR __$EHRec$[ebp+8], 1
  0006f	ff d3		 call	 ebx
  00071	8b 47 54	 mov	 eax, DWORD PTR [edi+84]
  00074	89 46 54	 mov	 DWORD PTR [esi+84], eax
  00077	8b c6		 mov	 eax, esi
  00079	e8 00 00 00 00	 call	 __EH_epilog3
  0007e	c2 04 00	 ret	 4
_TEXT	ENDS
;	COMDAT text$x
text$x	SEGMENT
__unwindfunclet$??0FireTime@@QAE@ABU0@@Z$0:
  00000	8b 4d f0	 mov	 ecx, DWORD PTR _this$[ebp]
  00003	83 c1 14	 add	 ecx, 20			; 00000014H
  00006	ff 25 00 00 00
	00		 jmp	 DWORD PTR __imp_??1ioHashString@@QAE@XZ
__unwindfunclet$??0FireTime@@QAE@ABU0@@Z$1:
  0000c	8b 4d f0	 mov	 ecx, DWORD PTR _this$[ebp]
  0000f	83 c1 30	 add	 ecx, 48			; 00000030H
  00012	ff 25 00 00 00
	00		 jmp	 DWORD PTR __imp_??1ioHashString@@QAE@XZ
__ehhandler$??0FireTime@@QAE@ABU0@@Z:
  00018	8b 54 24 08	 mov	 edx, DWORD PTR [esp+8]
  0001c	8d 42 0c	 lea	 eax, DWORD PTR [edx+12]
  0001f	8b 4a ec	 mov	 ecx, DWORD PTR [edx-20]
  00022	33 c8		 xor	 ecx, eax
  00024	e8 00 00 00 00	 call	 @__security_check_cookie@4
  00029	b8 00 00 00 00	 mov	 eax, OFFSET __ehfuncinfo$??0FireTime@@QAE@ABU0@@Z
  0002e	e9 00 00 00 00	 jmp	 ___CxxFrameHandler3
text$x	ENDS
??0FireTime@@QAE@ABU0@@Z ENDP				; FireTime::FireTime
PUBLIC	??1_Node@?$_List_nod@UFireTime@@V?$allocator@UFireTime@@@std@@@std@@QAE@XZ ; std::_List_nod<FireTime,std::allocator<FireTime> >::_Node::~_Node
; Function compile flags: /Ogsp
;	COMDAT ??1_Node@?$_List_nod@UFireTime@@V?$allocator@UFireTime@@@std@@@std@@QAE@XZ
_TEXT	SEGMENT
??1_Node@?$_List_nod@UFireTime@@V?$allocator@UFireTime@@@std@@@std@@QAE@XZ PROC ; std::_List_nod<FireTime,std::allocator<FireTime> >::_Node::~_Node, COMDAT
; _this$ = ecx
  00000	83 c1 08	 add	 ecx, 8
  00003	e9 00 00 00 00	 jmp	 ??1FireTime@@QAE@XZ
??1_Node@?$_List_nod@UFireTime@@V?$allocator@UFireTime@@@std@@@std@@QAE@XZ ENDP ; std::_List_nod<FireTime,std::allocator<FireTime> >::_Node::~_Node
_TEXT	ENDS
PUBLIC	??$move@AAUExtraAniJump@@@std@@YA$$QAUExtraAniJump@@AAU1@@Z ; std::move<ExtraAniJump &>
; Function compile flags: /Ogsp
; File c:\program files (x86)\microsoft visual studio 10.0\vc\include\utility
;	COMDAT ??$move@AAUExtraAniJump@@@std@@YA$$QAUExtraAniJump@@AAU1@@Z
_TEXT	SEGMENT
__Arg$ = 8						; size = 4
??$move@AAUExtraAniJump@@@std@@YA$$QAUExtraAniJump@@AAU1@@Z PROC ; std::move<ExtraAniJump &>, COMDAT

; 86   : 	{	// forward _Arg as movable

  00000	55		 push	 ebp
  00001	8b ec		 mov	 ebp, esp

; 87   : 	return ((typename tr1::_Remove_reference<_Ty>::_Type&&)_Arg);

  00003	8b 45 08	 mov	 eax, DWORD PTR __Arg$[ebp]

; 88   : 	}

  00006	5d		 pop	 ebp
  00007	c3		 ret	 0
??$move@AAUExtraAniJump@@@std@@YA$$QAUExtraAniJump@@AAU1@@Z ENDP ; std::move<ExtraAniJump &>
_TEXT	ENDS
PUBLIC	??$_Val_type@PAUExtraAniJump@@@std@@YAPAUExtraAniJump@@PAU1@@Z ; std::_Val_type<ExtraAniJump *>
; Function compile flags: /Ogsp
; File c:\program files (x86)\microsoft visual studio 10.0\vc\include\xutility
;	COMDAT ??$_Val_type@PAUExtraAniJump@@@std@@YAPAUExtraAniJump@@PAU1@@Z
_TEXT	SEGMENT
___formal$ = 8						; size = 4
??$_Val_type@PAUExtraAniJump@@@std@@YAPAUExtraAniJump@@PAU1@@Z PROC ; std::_Val_type<ExtraAniJump *>, COMDAT

; 790  : 	return (0);

  00000	33 c0		 xor	 eax, eax

; 791  : 	}

  00002	c3		 ret	 0
??$_Val_type@PAUExtraAniJump@@@std@@YAPAUExtraAniJump@@PAU1@@Z ENDP ; std::_Val_type<ExtraAniJump *>
_TEXT	ENDS
PUBLIC	??$_Destroy@UExtraAniJump@@@std@@YAXPAUExtraAniJump@@@Z ; std::_Destroy<ExtraAniJump>
; Function compile flags: /Ogsp
; File c:\program files (x86)\microsoft visual studio 10.0\vc\include\xmemory
;	COMDAT ??$_Destroy@UExtraAniJump@@@std@@YAXPAUExtraAniJump@@@Z
_TEXT	SEGMENT
__Ptr$ = 8						; size = 4
??$_Destroy@UExtraAniJump@@@std@@YAXPAUExtraAniJump@@@Z PROC ; std::_Destroy<ExtraAniJump>, COMDAT

; 63   : 	_Ptr->~_Ty();
; 64   : 	}

  00000	c3		 ret	 0
??$_Destroy@UExtraAniJump@@@std@@YAXPAUExtraAniJump@@@Z ENDP ; std::_Destroy<ExtraAniJump>
_TEXT	ENDS
PUBLIC	??$forward@UExtraAniJump@@@std@@YA$$QAUExtraAniJump@@AAU1@@Z ; std::forward<ExtraAniJump>
; Function compile flags: /Ogsp
; File c:\program files (x86)\microsoft visual studio 10.0\vc\include\utility
;	COMDAT ??$forward@UExtraAniJump@@@std@@YA$$QAUExtraAniJump@@AAU1@@Z
_TEXT	SEGMENT
__Arg$ = 8						; size = 4
??$forward@UExtraAniJump@@@std@@YA$$QAUExtraAniJump@@AAU1@@Z PROC ; std::forward<ExtraAniJump>, COMDAT

; 78   : 	{	// forward _Arg, given explicitly specified type parameter

  00000	55		 push	 ebp
  00001	8b ec		 mov	 ebp, esp

; 79   : 	return ((_Ty&&)_Arg);

  00003	8b 45 08	 mov	 eax, DWORD PTR __Arg$[ebp]

; 80   : 	}

  00006	5d		 pop	 ebp
  00007	c3		 ret	 0
??$forward@UExtraAniJump@@@std@@YA$$QAUExtraAniJump@@AAU1@@Z ENDP ; std::forward<ExtraAniJump>
_TEXT	ENDS
PUBLIC	?_DECSTR@@YAXPADH@Z				; _DECSTR
; Function compile flags: /Ogsp
; File d:\lost saga for developer\youtube\tutorial\source\src\lsclient\stringprotect.h
;	COMDAT ?_DECSTR@@YAXPADH@Z
_TEXT	SEGMENT
_s$ = 8							; size = 4
_l$ = 12						; size = 4
?_DECSTR@@YAXPADH@Z PROC				; _DECSTR, COMDAT

; 40   : __forceinline void _DECSTR(char* s, int l){int i=0,l4=(l-1)/4,*p=(int*)s;s[l-1]=0;for(;i<l4;++i)*(p++)^=0xEAEBECED;for(i=l4*4;i<l-1;++i)s[i]^=0xED-i%4;}

  00000	55		 push	 ebp
  00001	8b ec		 mov	 ebp, esp
  00003	8b 4d 0c	 mov	 ecx, DWORD PTR _l$[ebp]
  00006	56		 push	 esi
  00007	8b 75 08	 mov	 esi, DWORD PTR _s$[ebp]
  0000a	57		 push	 edi
  0000b	8d 79 ff	 lea	 edi, DWORD PTR [ecx-1]
  0000e	8b c7		 mov	 eax, edi
  00010	99		 cdq
  00011	83 e2 03	 and	 edx, 3
  00014	03 c2		 add	 eax, edx
  00016	c1 f8 02	 sar	 eax, 2
  00019	8b d6		 mov	 edx, esi
  0001b	c6 44 0e ff 00	 mov	 BYTE PTR [esi+ecx-1], 0
  00020	85 c0		 test	 eax, eax
  00022	7e 0e		 jle	 SHORT $LN4@DECSTR
  00024	8b c8		 mov	 ecx, eax
$LL6@DECSTR:
  00026	81 32 ed ec eb
	ea		 xor	 DWORD PTR [edx], -353637139 ; eaebecedH
  0002c	83 c2 04	 add	 edx, 4
  0002f	49		 dec	 ecx
  00030	75 f4		 jne	 SHORT $LL6@DECSTR
$LN4@DECSTR:
  00032	c1 e0 02	 shl	 eax, 2
  00035	eb 17		 jmp	 SHORT $LN14@DECSTR
$LL3@DECSTR:
  00037	8b c8		 mov	 ecx, eax
  00039	81 e1 03 00 00
	80		 and	 ecx, -2147483645	; 80000003H
  0003f	79 05		 jns	 SHORT $LN13@DECSTR
  00041	49		 dec	 ecx
  00042	83 c9 fc	 or	 ecx, -4			; fffffffcH
  00045	41		 inc	 ecx
$LN13@DECSTR:
  00046	b2 ed		 mov	 dl, -19			; ffffffedH
  00048	2a d1		 sub	 dl, cl
  0004a	30 14 30	 xor	 BYTE PTR [eax+esi], dl
  0004d	40		 inc	 eax
$LN14@DECSTR:
  0004e	3b c7		 cmp	 eax, edi
  00050	7c e5		 jl	 SHORT $LL3@DECSTR
  00052	5f		 pop	 edi
  00053	5e		 pop	 esi
  00054	5d		 pop	 ebp
  00055	c3		 ret	 0
?_DECSTR@@YAXPADH@Z ENDP				; _DECSTR
_TEXT	ENDS
PUBLIC	??0ExtraAniJump@@QAE@XZ				; ExtraAniJump::ExtraAniJump
; Function compile flags: /Ogsp
; File d:\lost saga for developer\youtube\tutorial\source\src\lsclient\playentityhelpstruct.h
;	COMDAT ??0ExtraAniJump@@QAE@XZ
_TEXT	SEGMENT
??0ExtraAniJump@@QAE@XZ PROC				; ExtraAniJump::ExtraAniJump, COMDAT
; _this$ = ecx

; 80   : 	{
; 81   : 		m_dwTime = 0;
; 82   : 		m_fPower = 0.0f;

  00000	0f 57 c0	 xorps	 xmm0, xmm0
  00003	8b c1		 mov	 eax, ecx
  00005	83 20 00	 and	 DWORD PTR [eax], 0
  00008	f3 0f 11 40 04	 movss	 DWORD PTR [eax+4], xmm0

; 83   : 	}

  0000d	c3		 ret	 0
??0ExtraAniJump@@QAE@XZ ENDP				; ExtraAniJump::ExtraAniJump
_TEXT	ENDS
PUBLIC	??0FireTime@@QAE@XZ				; FireTime::FireTime
EXTRN	__imp_??0ioHashString@@QAE@XZ:PROC
;	COMDAT xdata$x
xdata$x	SEGMENT
__unwindtable$??0FireTime@@QAE@XZ DD 0ffffffffH
	DD	FLAT:__unwindfunclet$??0FireTime@@QAE@XZ$0
	DD	00H
	DD	FLAT:__unwindfunclet$??0FireTime@@QAE@XZ$1
__ehfuncinfo$??0FireTime@@QAE@XZ DD 019930522H
	DD	02H
	DD	FLAT:__unwindtable$??0FireTime@@QAE@XZ
	DD	2 DUP(00H)
	DD	2 DUP(00H)
	DD	00H
	DD	01H
; Function compile flags: /Ogsp
xdata$x	ENDS
;	COMDAT ??0FireTime@@QAE@XZ
_TEXT	SEGMENT
_this$ = -16						; size = 4
__$EHRec$ = -12						; size = 12
??0FireTime@@QAE@XZ PROC				; FireTime::FireTime, COMDAT
; _this$ = ecx

; 219  : 	FireTime()

  00000	6a 04		 push	 4
  00002	b8 00 00 00 00	 mov	 eax, __ehhandler$??0FireTime@@QAE@XZ
  00007	e8 00 00 00 00	 call	 __EH_prolog3
  0000c	8b f1		 mov	 esi, ecx
  0000e	89 75 f0	 mov	 DWORD PTR _this$[ebp], esi
  00011	8b 3d 00 00 00
	00		 mov	 edi, DWORD PTR __imp_??0ioHashString@@QAE@XZ
  00017	8d 4e 14	 lea	 ecx, DWORD PTR [esi+20]
  0001a	ff d7		 call	 edi
  0001c	33 db		 xor	 ebx, ebx
  0001e	8d 4e 30	 lea	 ecx, DWORD PTR [esi+48]
  00021	89 5d fc	 mov	 DWORD PTR __$EHRec$[ebp+8], ebx
  00024	ff d7		 call	 edi
  00026	8d 4e 44	 lea	 ecx, DWORD PTR [esi+68]
  00029	c6 45 fc 01	 mov	 BYTE PTR __$EHRec$[ebp+8], 1
  0002d	ff d7		 call	 edi

; 220  : 	{
; 221  : 		dwStart = 0;

  0002f	89 1e		 mov	 DWORD PTR [esi], ebx

; 222  : 		dwDuration = 0;

  00031	89 5e 04	 mov	 DWORD PTR [esi+4], ebx

; 223  : 
; 224  : 		iAttributeIdx = 0;

  00034	89 5e 08	 mov	 DWORD PTR [esi+8], ebx

; 225  : 		iResistanceIdx = 0;

  00037	89 5e 0c	 mov	 DWORD PTR [esi+12], ebx

; 226  : 
; 227  : 		bLoopWoundedAni = false;

  0003a	88 5e 10	 mov	 BYTE PTR [esi+16], bl

; 228  : 		dwWoundedAniDuration = 0;

  0003d	89 5e 24	 mov	 DWORD PTR [esi+36], ebx

; 229  : 
; 230  : 		dwWeaponIdx = 0;

  00040	89 5e 28	 mov	 DWORD PTR [esi+40], ebx

; 231  : 		eCollisionType = ACT_NONE;

  00043	c7 46 2c 06 00
	00 00		 mov	 DWORD PTR [esi+44], 6

; 232  : 		eFireTimeType = FTT_NORMAL_ATTACK;

  0004a	89 5e 40	 mov	 DWORD PTR [esi+64], ebx

; 233  : 
; 234  : 		m_iExtraValue = 0;

  0004d	89 5e 54	 mov	 DWORD PTR [esi+84], ebx

; 235  : 	}

  00050	8b c6		 mov	 eax, esi
  00052	e8 00 00 00 00	 call	 __EH_epilog3
  00057	c3		 ret	 0
_TEXT	ENDS
;	COMDAT text$x
text$x	SEGMENT
__unwindfunclet$??0FireTime@@QAE@XZ$0:
  00000	8b 4d f0	 mov	 ecx, DWORD PTR _this$[ebp]
  00003	83 c1 14	 add	 ecx, 20			; 00000014H
  00006	ff 25 00 00 00
	00		 jmp	 DWORD PTR __imp_??1ioHashString@@QAE@XZ
__unwindfunclet$??0FireTime@@QAE@XZ$1:
  0000c	8b 4d f0	 mov	 ecx, DWORD PTR _this$[ebp]
  0000f	83 c1 30	 add	 ecx, 48			; 00000030H
  00012	ff 25 00 00 00
	00		 jmp	 DWORD PTR __imp_??1ioHashString@@QAE@XZ
__ehhandler$??0FireTime@@QAE@XZ:
  00018	8b 54 24 08	 mov	 edx, DWORD PTR [esp+8]
  0001c	8d 42 0c	 lea	 eax, DWORD PTR [edx+12]
  0001f	8b 4a ec	 mov	 ecx, DWORD PTR [edx-20]
  00022	33 c8		 xor	 ecx, eax
  00024	e8 00 00 00 00	 call	 @__security_check_cookie@4
  00029	b8 00 00 00 00	 mov	 eax, OFFSET __ehfuncinfo$??0FireTime@@QAE@XZ
  0002e	e9 00 00 00 00	 jmp	 ___CxxFrameHandler3
text$x	ENDS
??0FireTime@@QAE@XZ ENDP				; FireTime::FireTime
PUBLIC	??_R0?AVioGameEntity@@@8			; ioGameEntity `RTTI Type Descriptor'
PUBLIC	??_R0?AVioPlayEntity@@@8			; ioPlayEntity `RTTI Type Descriptor'
PUBLIC	?ToPlayEntity@@YAPAVioPlayEntity@@PAVioGameEntity@@@Z ; ToPlayEntity
;	COMDAT ??_R0?AVioGameEntity@@@8
; File d:\lost saga for developer\youtube\tutorial\source\src\lsclient\ioplayentity.h
_DATA	SEGMENT
??_R0?AVioGameEntity@@@8 DD FLAT:??_7type_info@@6B@	; ioGameEntity `RTTI Type Descriptor'
	DD	00H
	DB	'.?AVioGameEntity@@', 00H
_DATA	ENDS
;	COMDAT ??_R0?AVioPlayEntity@@@8
_DATA	SEGMENT
??_R0?AVioPlayEntity@@@8 DD FLAT:??_7type_info@@6B@	; ioPlayEntity `RTTI Type Descriptor'
	DD	00H
	DB	'.?AVioPlayEntity@@', 00H
; Function compile flags: /Ogsp
_DATA	ENDS
;	COMDAT ?ToPlayEntity@@YAPAVioPlayEntity@@PAVioGameEntity@@@Z
_TEXT	SEGMENT
_pObj$ = 8						; size = 4
?ToPlayEntity@@YAPAVioPlayEntity@@PAVioGameEntity@@@Z PROC ; ToPlayEntity, COMDAT

; 121  : {

  00000	55		 push	 ebp
  00001	8b ec		 mov	 ebp, esp
  00003	56		 push	 esi

; 122  : 	if( !pObj || pObj->GetTypeID() != ioGameEntity::GET_PLAY_ENTITY )

  00004	8b 75 08	 mov	 esi, DWORD PTR _pObj$[ebp]
  00007	85 f6		 test	 esi, esi
  00009	74 25		 je	 SHORT $LN1@ToPlayEnti
  0000b	8b 06		 mov	 eax, DWORD PTR [esi]
  0000d	8b ce		 mov	 ecx, esi
  0000f	ff 50 10	 call	 DWORD PTR [eax+16]
  00012	83 f8 01	 cmp	 eax, 1
  00015	75 19		 jne	 SHORT $LN1@ToPlayEnti

; 124  : 
; 125  : 	return dynamic_cast< ioPlayEntity* >( pObj );

  00017	6a 00		 push	 0
  00019	68 00 00 00 00	 push	 OFFSET ??_R0?AVioPlayEntity@@@8
  0001e	68 00 00 00 00	 push	 OFFSET ??_R0?AVioGameEntity@@@8
  00023	6a 00		 push	 0
  00025	56		 push	 esi
  00026	e8 00 00 00 00	 call	 ___RTDynamicCast
  0002b	83 c4 14	 add	 esp, 20			; 00000014H
  0002e	eb 02		 jmp	 SHORT $LN3@ToPlayEnti
$LN1@ToPlayEnti:

; 123  : 		return NULL;

  00030	33 c0		 xor	 eax, eax
$LN3@ToPlayEnti:
  00032	5e		 pop	 esi

; 126  : }

  00033	5d		 pop	 ebp
  00034	c3		 ret	 0
?ToPlayEntity@@YAPAVioPlayEntity@@PAVioGameEntity@@@Z ENDP ; ToPlayEntity
_TEXT	ENDS
PUBLIC	?GetCreator@ioPlayMode@@QBEPAVioPlayStage@@XZ	; ioPlayMode::GetCreator
; Function compile flags: /Ogsp
; File d:\lost saga for developer\youtube\tutorial\source\src\lsclient\ioplaymode.h
;	COMDAT ?GetCreator@ioPlayMode@@QBEPAVioPlayStage@@XZ
_TEXT	SEGMENT
?GetCreator@ioPlayMode@@QBEPAVioPlayStage@@XZ PROC	; ioPlayMode::GetCreator, COMDAT
; _this$ = ecx

; 631  : 	inline ioPlayStage* GetCreator() const { return m_pCreator; }

  00000	8b 41 34	 mov	 eax, DWORD PTR [ecx+52]
  00003	c3		 ret	 0
?GetCreator@ioPlayMode@@QBEPAVioPlayStage@@XZ ENDP	; ioPlayMode::GetCreator
_TEXT	ENDS
PUBLIC	?size@?$basic_string@DU?$char_traits@D@std@@V?$allocator@D@2@@std@@QBEIXZ ; std::basic_string<char,std::char_traits<char>,std::allocator<char> >::size
; Function compile flags: /Ogsp
; File c:\program files (x86)\microsoft visual studio 10.0\vc\include\xstring
;	COMDAT ?size@?$basic_string@DU?$char_traits@D@std@@V?$allocator@D@2@@std@@QBEIXZ
_TEXT	SEGMENT
?size@?$basic_string@DU?$char_traits@D@std@@V?$allocator@D@2@@std@@QBEIXZ PROC ; std::basic_string<char,std::char_traits<char>,std::allocator<char> >::size, COMDAT
; _this$ = ecx

; 1512 : 		return (this->_Mysize);

  00000	8b 41 10	 mov	 eax, DWORD PTR [ecx+16]

; 1513 : 		}

  00003	c3		 ret	 0
?size@?$basic_string@DU?$char_traits@D@std@@V?$allocator@D@2@@std@@QBEIXZ ENDP ; std::basic_string<char,std::char_traits<char>,std::allocator<char> >::size
_TEXT	ENDS
PUBLIC	?size@?$vector@HV?$allocator@H@std@@@std@@QBEIXZ ; std::vector<int,std::allocator<int> >::size
; Function compile flags: /Ogsp
; File c:\program files (x86)\microsoft visual studio 10.0\vc\include\vector
;	COMDAT ?size@?$vector@HV?$allocator@H@std@@@std@@QBEIXZ
_TEXT	SEGMENT
?size@?$vector@HV?$allocator@H@std@@@std@@QBEIXZ PROC	; std::vector<int,std::allocator<int> >::size, COMDAT
; _this$ = ecx

; 879  : 		return (this->_Mylast - this->_Myfirst);

  00000	8b 41 04	 mov	 eax, DWORD PTR [ecx+4]
  00003	2b 01		 sub	 eax, DWORD PTR [ecx]
  00005	c1 f8 02	 sar	 eax, 2

; 880  : 		}

  00008	c3		 ret	 0
?size@?$vector@HV?$allocator@H@std@@@std@@QBEIXZ ENDP	; std::vector<int,std::allocator<int> >::size
_TEXT	ENDS
PUBLIC	??_7?$CEncrypt@M@@6B@				; CEncrypt<float>::`vftable'
PUBLIC	??1?$CEncrypt@M@@UAE@XZ				; CEncrypt<float>::~CEncrypt<float>
PUBLIC	??_R4?$CEncrypt@M@@6B@				; CEncrypt<float>::`RTTI Complete Object Locator'
PUBLIC	??_R0?AV?$CEncrypt@M@@@8			; CEncrypt<float> `RTTI Type Descriptor'
PUBLIC	??_R3?$CEncrypt@M@@8				; CEncrypt<float>::`RTTI Class Hierarchy Descriptor'
PUBLIC	??_R2?$CEncrypt@M@@8				; CEncrypt<float>::`RTTI Base Class Array'
PUBLIC	??_R1A@?0A@EA@?$CEncrypt@M@@8			; CEncrypt<float>::`RTTI Base Class Descriptor at (0,-1,0,64)'
EXTRN	??1ccddaabb@@UAE@XZ:PROC			; ccddaabb::~ccddaabb
EXTRN	??_E?$CEncrypt@M@@UAEPAXI@Z:PROC		; CEncrypt<float>::`vector deleting destructor'
;	COMDAT ??_R1A@?0A@EA@?$CEncrypt@M@@8
; File d:\lost saga for developer\youtube\tutorial\source\src\lsclient\encryptvalue.h
rdata$r	SEGMENT
??_R1A@?0A@EA@?$CEncrypt@M@@8 DD FLAT:??_R0?AV?$CEncrypt@M@@@8 ; CEncrypt<float>::`RTTI Base Class Descriptor at (0,-1,0,64)'
	DD	00H
	DD	00H
	DD	0ffffffffH
	DD	00H
	DD	040H
	DD	FLAT:??_R3?$CEncrypt@M@@8
rdata$r	ENDS
;	COMDAT ??_R2?$CEncrypt@M@@8
rdata$r	SEGMENT
??_R2?$CEncrypt@M@@8 DD FLAT:??_R1A@?0A@EA@?$CEncrypt@M@@8 ; CEncrypt<float>::`RTTI Base Class Array'
rdata$r	ENDS
;	COMDAT ??_R3?$CEncrypt@M@@8
rdata$r	SEGMENT
??_R3?$CEncrypt@M@@8 DD 00H				; CEncrypt<float>::`RTTI Class Hierarchy Descriptor'
	DD	00H
	DD	01H
	DD	FLAT:??_R2?$CEncrypt@M@@8
rdata$r	ENDS
;	COMDAT ??_R0?AV?$CEncrypt@M@@@8
_DATA	SEGMENT
??_R0?AV?$CEncrypt@M@@@8 DD FLAT:??_7type_info@@6B@	; CEncrypt<float> `RTTI Type Descriptor'
	DD	00H
	DB	'.?AV?$CEncrypt@M@@', 00H
_DATA	ENDS
;	COMDAT ??_R4?$CEncrypt@M@@6B@
rdata$r	SEGMENT
??_R4?$CEncrypt@M@@6B@ DD 00H				; CEncrypt<float>::`RTTI Complete Object Locator'
	DD	00H
	DD	00H
	DD	FLAT:??_R0?AV?$CEncrypt@M@@@8
	DD	FLAT:??_R3?$CEncrypt@M@@8
rdata$r	ENDS
;	COMDAT ??_7?$CEncrypt@M@@6B@
CONST	SEGMENT
??_7?$CEncrypt@M@@6B@ DD FLAT:??_R4?$CEncrypt@M@@6B@	; CEncrypt<float>::`vftable'
	DD	FLAT:??_E?$CEncrypt@M@@UAEPAXI@Z
; Function compile flags: /Ogsp
CONST	ENDS
;	COMDAT ??1?$CEncrypt@M@@UAE@XZ
_TEXT	SEGMENT
??1?$CEncrypt@M@@UAE@XZ PROC				; CEncrypt<float>::~CEncrypt<float>, COMDAT
; _this$ = ecx

; 127  : 	{

  00000	c7 01 00 00 00
	00		 mov	 DWORD PTR [ecx], OFFSET ??_7?$CEncrypt@M@@6B@

; 128  : 	}

  00006	83 c1 0c	 add	 ecx, 12			; 0000000cH
  00009	e9 00 00 00 00	 jmp	 ??1ccddaabb@@UAE@XZ	; ccddaabb::~ccddaabb
??1?$CEncrypt@M@@UAE@XZ ENDP				; CEncrypt<float>::~CEncrypt<float>
_TEXT	ENDS
PUBLIC	??_7?$CEncrypt@K@@6B@				; CEncrypt<unsigned long>::`vftable'
PUBLIC	??1?$CEncrypt@K@@UAE@XZ				; CEncrypt<unsigned long>::~CEncrypt<unsigned long>
PUBLIC	??_R4?$CEncrypt@K@@6B@				; CEncrypt<unsigned long>::`RTTI Complete Object Locator'
PUBLIC	??_R0?AV?$CEncrypt@K@@@8			; CEncrypt<unsigned long> `RTTI Type Descriptor'
PUBLIC	??_R3?$CEncrypt@K@@8				; CEncrypt<unsigned long>::`RTTI Class Hierarchy Descriptor'
PUBLIC	??_R2?$CEncrypt@K@@8				; CEncrypt<unsigned long>::`RTTI Base Class Array'
PUBLIC	??_R1A@?0A@EA@?$CEncrypt@K@@8			; CEncrypt<unsigned long>::`RTTI Base Class Descriptor at (0,-1,0,64)'
EXTRN	??_E?$CEncrypt@K@@UAEPAXI@Z:PROC		; CEncrypt<unsigned long>::`vector deleting destructor'
;	COMDAT ??_R1A@?0A@EA@?$CEncrypt@K@@8
rdata$r	SEGMENT
??_R1A@?0A@EA@?$CEncrypt@K@@8 DD FLAT:??_R0?AV?$CEncrypt@K@@@8 ; CEncrypt<unsigned long>::`RTTI Base Class Descriptor at (0,-1,0,64)'
	DD	00H
	DD	00H
	DD	0ffffffffH
	DD	00H
	DD	040H
	DD	FLAT:??_R3?$CEncrypt@K@@8
rdata$r	ENDS
;	COMDAT ??_R2?$CEncrypt@K@@8
rdata$r	SEGMENT
??_R2?$CEncrypt@K@@8 DD FLAT:??_R1A@?0A@EA@?$CEncrypt@K@@8 ; CEncrypt<unsigned long>::`RTTI Base Class Array'
rdata$r	ENDS
;	COMDAT ??_R3?$CEncrypt@K@@8
rdata$r	SEGMENT
??_R3?$CEncrypt@K@@8 DD 00H				; CEncrypt<unsigned long>::`RTTI Class Hierarchy Descriptor'
	DD	00H
	DD	01H
	DD	FLAT:??_R2?$CEncrypt@K@@8
rdata$r	ENDS
;	COMDAT ??_R0?AV?$CEncrypt@K@@@8
_DATA	SEGMENT
??_R0?AV?$CEncrypt@K@@@8 DD FLAT:??_7type_info@@6B@	; CEncrypt<unsigned long> `RTTI Type Descriptor'
	DD	00H
	DB	'.?AV?$CEncrypt@K@@', 00H
_DATA	ENDS
;	COMDAT ??_R4?$CEncrypt@K@@6B@
rdata$r	SEGMENT
??_R4?$CEncrypt@K@@6B@ DD 00H				; CEncrypt<unsigned long>::`RTTI Complete Object Locator'
	DD	00H
	DD	00H
	DD	FLAT:??_R0?AV?$CEncrypt@K@@@8
	DD	FLAT:??_R3?$CEncrypt@K@@8
rdata$r	ENDS
;	COMDAT ??_7?$CEncrypt@K@@6B@
CONST	SEGMENT
??_7?$CEncrypt@K@@6B@ DD FLAT:??_R4?$CEncrypt@K@@6B@	; CEncrypt<unsigned long>::`vftable'
	DD	FLAT:??_E?$CEncrypt@K@@UAEPAXI@Z
; Function compile flags: /Ogsp
CONST	ENDS
;	COMDAT ??1?$CEncrypt@K@@UAE@XZ
_TEXT	SEGMENT
??1?$CEncrypt@K@@UAE@XZ PROC				; CEncrypt<unsigned long>::~CEncrypt<unsigned long>, COMDAT
; _this$ = ecx

; 127  : 	{

  00000	c7 01 00 00 00
	00		 mov	 DWORD PTR [ecx], OFFSET ??_7?$CEncrypt@K@@6B@

; 128  : 	}

  00006	83 c1 0c	 add	 ecx, 12			; 0000000cH
  00009	e9 00 00 00 00	 jmp	 ??1ccddaabb@@UAE@XZ	; ccddaabb::~ccddaabb
??1?$CEncrypt@K@@UAE@XZ ENDP				; CEncrypt<unsigned long>::~CEncrypt<unsigned long>
; Function compile flags: /Ogsp
_TEXT	ENDS
;	COMDAT ??_G?$CEncrypt@M@@UAEPAXI@Z
_TEXT	SEGMENT
___flags$ = 8						; size = 4
??_G?$CEncrypt@M@@UAEPAXI@Z PROC			; CEncrypt<float>::`scalar deleting destructor', COMDAT
; _this$ = ecx
  00000	55		 push	 ebp
  00001	8b ec		 mov	 ebp, esp
  00003	56		 push	 esi
  00004	8b f1		 mov	 esi, ecx
  00006	8d 4e 0c	 lea	 ecx, DWORD PTR [esi+12]
  00009	c7 06 00 00 00
	00		 mov	 DWORD PTR [esi], OFFSET ??_7?$CEncrypt@M@@6B@
  0000f	e8 00 00 00 00	 call	 ??1ccddaabb@@UAE@XZ	; ccddaabb::~ccddaabb
  00014	f6 45 08 01	 test	 BYTE PTR ___flags$[ebp], 1
  00018	74 07		 je	 SHORT $LN1@scalar@2
  0001a	56		 push	 esi
  0001b	e8 00 00 00 00	 call	 ??3@YAXPAX@Z		; operator delete
  00020	59		 pop	 ecx
$LN1@scalar@2:
  00021	8b c6		 mov	 eax, esi
  00023	5e		 pop	 esi
  00024	5d		 pop	 ebp
  00025	c2 04 00	 ret	 4
??_G?$CEncrypt@M@@UAEPAXI@Z ENDP			; CEncrypt<float>::`scalar deleting destructor'
; Function compile flags: /Ogsp
_TEXT	ENDS
;	COMDAT ??_G?$CEncrypt@K@@UAEPAXI@Z
_TEXT	SEGMENT
___flags$ = 8						; size = 4
??_G?$CEncrypt@K@@UAEPAXI@Z PROC			; CEncrypt<unsigned long>::`scalar deleting destructor', COMDAT
; _this$ = ecx
  00000	55		 push	 ebp
  00001	8b ec		 mov	 ebp, esp
  00003	56		 push	 esi
  00004	8b f1		 mov	 esi, ecx
  00006	8d 4e 0c	 lea	 ecx, DWORD PTR [esi+12]
  00009	c7 06 00 00 00
	00		 mov	 DWORD PTR [esi], OFFSET ??_7?$CEncrypt@K@@6B@
  0000f	e8 00 00 00 00	 call	 ??1ccddaabb@@UAE@XZ	; ccddaabb::~ccddaabb
  00014	f6 45 08 01	 test	 BYTE PTR ___flags$[ebp], 1
  00018	74 07		 je	 SHORT $LN1@scalar@3
  0001a	56		 push	 esi
  0001b	e8 00 00 00 00	 call	 ??3@YAXPAX@Z		; operator delete
  00020	59		 pop	 ecx
$LN1@scalar@3:
  00021	8b c6		 mov	 eax, esi
  00023	5e		 pop	 esi
  00024	5d		 pop	 ebp
  00025	c2 04 00	 ret	 4
??_G?$CEncrypt@K@@UAEPAXI@Z ENDP			; CEncrypt<unsigned long>::`scalar deleting destructor'
_TEXT	ENDS
PUBLIC	?_Myptr@?$basic_string@DU?$char_traits@D@std@@V?$allocator@D@2@@std@@QBEPBDXZ ; std::basic_string<char,std::char_traits<char>,std::allocator<char> >::_Myptr
; Function compile flags: /Ogsp
; File c:\program files (x86)\microsoft visual studio 10.0\vc\include\xstring
;	COMDAT ?_Myptr@?$basic_string@DU?$char_traits@D@std@@V?$allocator@D@2@@std@@QBEPBDXZ
_TEXT	SEGMENT
?_Myptr@?$basic_string@DU?$char_traits@D@std@@V?$allocator@D@2@@std@@QBEPBDXZ PROC ; std::basic_string<char,std::char_traits<char>,std::allocator<char> >::_Myptr, COMDAT
; _this$ = ecx

; 2010 : 		return (this->_BUF_SIZE <= this->_Myres ? this->_Bx._Ptr
; 2011 : 			: this->_Bx._Buf);

  00000	83 79 14 10	 cmp	 DWORD PTR [ecx+20], 16	; 00000010H
  00004	72 03		 jb	 SHORT $LN3@Myptr
  00006	8b 01		 mov	 eax, DWORD PTR [ecx]

; 2012 : 		}

  00008	c3		 ret	 0
$LN3@Myptr:

; 2010 : 		return (this->_BUF_SIZE <= this->_Myres ? this->_Bx._Ptr
; 2011 : 			: this->_Bx._Buf);

  00009	8b c1		 mov	 eax, ecx

; 2012 : 		}

  0000b	c3		 ret	 0
?_Myptr@?$basic_string@DU?$char_traits@D@std@@V?$allocator@D@2@@std@@QBEPBDXZ ENDP ; std::basic_string<char,std::char_traits<char>,std::allocator<char> >::_Myptr
_TEXT	ENDS
PUBLIC	??1?$_String_val@DV?$allocator@D@std@@@std@@QAE@XZ ; std::_String_val<char,std::allocator<char> >::~_String_val<char,std::allocator<char> >
; Function compile flags: /Ogsp
;	COMDAT ??1?$_String_val@DV?$allocator@D@std@@@std@@QAE@XZ
_TEXT	SEGMENT
??1?$_String_val@DV?$allocator@D@std@@@std@@QAE@XZ PROC	; std::_String_val<char,std::allocator<char> >::~_String_val<char,std::allocator<char> >, COMDAT
; _this$ = ecx

; 459  : 		}

  00000	c3		 ret	 0
??1?$_String_val@DV?$allocator@D@std@@@std@@QAE@XZ ENDP	; std::_String_val<char,std::allocator<char> >::~_String_val<char,std::allocator<char> >
_TEXT	ENDS
PUBLIC	??0?$allocator@D@std@@QAE@XZ			; std::allocator<char>::allocator<char>
; Function compile flags: /Ogsp
; File c:\program files (x86)\microsoft visual studio 10.0\vc\include\xmemory
;	COMDAT ??0?$allocator@D@std@@QAE@XZ
_TEXT	SEGMENT
??0?$allocator@D@std@@QAE@XZ PROC			; std::allocator<char>::allocator<char>, COMDAT
; _this$ = ecx

; 161  : 	_ALLOCATOR() _THROW0()

  00000	8b c1		 mov	 eax, ecx

; 162  : 		{	// construct default allocator (do nothing)
; 163  : 		}

  00002	c3		 ret	 0
??0?$allocator@D@std@@QAE@XZ ENDP			; std::allocator<char>::allocator<char>
_TEXT	ENDS
PUBLIC	??0?$allocator@D@std@@QAE@ABV01@@Z		; std::allocator<char>::allocator<char>
; Function compile flags: /Ogsp
;	COMDAT ??0?$allocator@D@std@@QAE@ABV01@@Z
_TEXT	SEGMENT
___formal$ = 8						; size = 4
??0?$allocator@D@std@@QAE@ABV01@@Z PROC			; std::allocator<char>::allocator<char>, COMDAT
; _this$ = ecx

; 165  : 	_ALLOCATOR(const _ALLOCATOR<_Ty>&) _THROW0()

  00000	8b c1		 mov	 eax, ecx

; 166  : 		{	// construct by copying (do nothing)
; 167  : 		}

  00002	c2 04 00	 ret	 4
??0?$allocator@D@std@@QAE@ABV01@@Z ENDP			; std::allocator<char>::allocator<char>
_TEXT	ENDS
PUBLIC	??0?$allocator@H@std@@QAE@XZ			; std::allocator<int>::allocator<int>
; Function compile flags: /Ogsp
;	COMDAT ??0?$allocator@H@std@@QAE@XZ
_TEXT	SEGMENT
??0?$allocator@H@std@@QAE@XZ PROC			; std::allocator<int>::allocator<int>, COMDAT
; _this$ = ecx

; 161  : 	_ALLOCATOR() _THROW0()

  00000	8b c1		 mov	 eax, ecx

; 162  : 		{	// construct default allocator (do nothing)
; 163  : 		}

  00002	c3		 ret	 0
??0?$allocator@H@std@@QAE@XZ ENDP			; std::allocator<int>::allocator<int>
_TEXT	ENDS
PUBLIC	??0?$allocator@M@std@@QAE@XZ			; std::allocator<float>::allocator<float>
; Function compile flags: /Ogsp
;	COMDAT ??0?$allocator@M@std@@QAE@XZ
_TEXT	SEGMENT
??0?$allocator@M@std@@QAE@XZ PROC			; std::allocator<float>::allocator<float>, COMDAT
; _this$ = ecx

; 161  : 	_ALLOCATOR() _THROW0()

  00000	8b c1		 mov	 eax, ecx

; 162  : 		{	// construct default allocator (do nothing)
; 163  : 		}

  00002	c3		 ret	 0
??0?$allocator@M@std@@QAE@XZ ENDP			; std::allocator<float>::allocator<float>
_TEXT	ENDS
PUBLIC	??1?$_Vector_val@HV?$allocator@H@std@@@std@@QAE@XZ ; std::_Vector_val<int,std::allocator<int> >::~_Vector_val<int,std::allocator<int> >
; Function compile flags: /Ogsp
; File c:\program files (x86)\microsoft visual studio 10.0\vc\include\vector
;	COMDAT ??1?$_Vector_val@HV?$allocator@H@std@@@std@@QAE@XZ
_TEXT	SEGMENT
??1?$_Vector_val@HV?$allocator@H@std@@@std@@QAE@XZ PROC	; std::_Vector_val<int,std::allocator<int> >::~_Vector_val<int,std::allocator<int> >, COMDAT
; _this$ = ecx

; 434  : 		}

  00000	c3		 ret	 0
??1?$_Vector_val@HV?$allocator@H@std@@@std@@QAE@XZ ENDP	; std::_Vector_val<int,std::allocator<int> >::~_Vector_val<int,std::allocator<int> >
_TEXT	ENDS
PUBLIC	?EncryptValueToPool@?$CEncrypt@M@@AAEXPBD@Z	; CEncrypt<float>::EncryptValueToPool
EXTRN	?EncryptByte@ccddaabb@@QAEXPBDPADH@Z:PROC	; ccddaabb::EncryptByte
; Function compile flags: /Ogsp
; File d:\lost saga for developer\youtube\tutorial\source\src\lsclient\encryptvalue.h
;	COMDAT ?EncryptValueToPool@?$CEncrypt@M@@AAEXPBD@Z
_TEXT	SEGMENT
_value$ = 8						; size = 4
?EncryptValueToPool@?$CEncrypt@M@@AAEXPBD@Z PROC	; CEncrypt<float>::EncryptValueToPool, COMDAT
; _this$ = ecx

; 67   : 	{

  00000	55		 push	 ebp
  00001	8b ec		 mov	 ebp, esp

; 68   : 		m_RC5.EncryptByte( value, m_MemPool, max(m_ValueSize, DEFAULT_ENCRYPT) );

  00003	0f b7 41 06	 movzx	 eax, WORD PTR [ecx+6]
  00007	83 f8 04	 cmp	 eax, 4
  0000a	77 03		 ja	 SHORT $LN4@EncryptVal
  0000c	6a 04		 push	 4
  0000e	58		 pop	 eax
$LN4@EncryptVal:
  0000f	50		 push	 eax
  00010	8d 41 1c	 lea	 eax, DWORD PTR [ecx+28]
  00013	50		 push	 eax
  00014	ff 75 08	 push	 DWORD PTR _value$[ebp]
  00017	83 c1 0c	 add	 ecx, 12			; 0000000cH
  0001a	e8 00 00 00 00	 call	 ?EncryptByte@ccddaabb@@QAEXPBDPADH@Z ; ccddaabb::EncryptByte

; 69   : 		
; 70   : 	}

  0001f	5d		 pop	 ebp
  00020	c2 04 00	 ret	 4
?EncryptValueToPool@?$CEncrypt@M@@AAEXPBD@Z ENDP	; CEncrypt<float>::EncryptValueToPool
_TEXT	ENDS
PUBLIC	?Init@?$CEncrypt@M@@AAEXXZ			; CEncrypt<float>::Init
EXTRN	?Setup@ccddaabb@@QAEXPBDHH@Z:PROC		; ccddaabb::Setup
EXTRN	__imp__rand:PROC
EXTRN	__imp__timeGetTime@0:PROC
EXTRN	__imp__GetCurrentProcessId@0:PROC
; Function compile flags: /Ogsp
;	COMDAT ?Init@?$CEncrypt@M@@AAEXXZ
_TEXT	SEGMENT
_pid$ = -8						; size = 4
_tick$ = -4						; size = 4
?Init@?$CEncrypt@M@@AAEXXZ PROC				; CEncrypt<float>::Init, COMDAT
; _this$ = ecx

; 73   : 	{

  00000	55		 push	 ebp
  00001	8b ec		 mov	 ebp, esp
  00003	51		 push	 ecx
  00004	51		 push	 ecx
  00005	53		 push	 ebx
  00006	56		 push	 esi
  00007	57		 push	 edi
  00008	8b f1		 mov	 esi, ecx

; 74   : 		DWORD pid = GetCurrentProcessId();

  0000a	ff 15 00 00 00
	00		 call	 DWORD PTR __imp__GetCurrentProcessId@0
  00010	89 45 f8	 mov	 DWORD PTR _pid$[ebp], eax

; 75   : 		DWORD tick = timeGetTime();

  00013	ff 15 00 00 00
	00		 call	 DWORD PTR __imp__timeGetTime@0

; 76   : 		m_ValueSize    = sizeof(type);
; 77   : 		m_MemPoolPos   = (unsigned short)( rand()+pid+tick )%(MAX_MEM_POOL-m_ValueSize);

  00019	8b 3d 00 00 00
	00		 mov	 edi, DWORD PTR __imp__rand
  0001f	89 45 fc	 mov	 DWORD PTR _tick$[ebp], eax
  00022	6a 04		 push	 4
  00024	58		 pop	 eax
  00025	66 89 46 06	 mov	 WORD PTR [esi+6], ax
  00029	ff d7		 call	 edi
  0002b	03 45 f8	 add	 eax, DWORD PTR _pid$[ebp]
  0002e	0f b7 4e 06	 movzx	 ecx, WORD PTR [esi+6]
  00032	03 45 fc	 add	 eax, DWORD PTR _tick$[ebp]
  00035	6a 0c		 push	 12			; 0000000cH
  00037	0f b7 c0	 movzx	 eax, ax
  0003a	5b		 pop	 ebx
  0003b	99		 cdq
  0003c	2b d9		 sub	 ebx, ecx
  0003e	f7 fb		 idiv	 ebx
  00040	66 89 56 04	 mov	 WORD PTR [esi+4], dx

; 78   : 		m_EncryptSeed  = (char)( rand()+pid+tick )%256;

  00044	ff d7		 call	 edi
  00046	02 45 f8	 add	 al, BYTE PTR _pid$[ebp]
  00049	02 45 fc	 add	 al, BYTE PTR _tick$[ebp]
  0004c	0f be c0	 movsx	 eax, al
  0004f	25 ff 00 00 80	 and	 eax, -2147483393	; 800000ffH
  00054	79 07		 jns	 SHORT $LN8@Init
  00056	48		 dec	 eax
  00057	0d 00 ff ff ff	 or	 eax, -256		; ffffff00H
  0005c	40		 inc	 eax
$LN8@Init:
  0005d	88 46 08	 mov	 BYTE PTR [esi+8], al

; 79   : 
; 80   : 		for (int i = 0; i < MAX_MEM_POOL ; i++)

  00060	33 db		 xor	 ebx, ebx
$LL3@Init:

; 81   : 			m_MemPool[i] = (char)( rand()+pid+tick )%256; // 

  00062	ff d7		 call	 edi
  00064	02 45 f8	 add	 al, BYTE PTR _pid$[ebp]
  00067	02 45 fc	 add	 al, BYTE PTR _tick$[ebp]
  0006a	0f be c0	 movsx	 eax, al
  0006d	25 ff 00 00 80	 and	 eax, -2147483393	; 800000ffH
  00072	79 07		 jns	 SHORT $LN9@Init
  00074	48		 dec	 eax
  00075	0d 00 ff ff ff	 or	 eax, -256		; ffffff00H
  0007a	40		 inc	 eax
$LN9@Init:
  0007b	88 44 1e 1c	 mov	 BYTE PTR [esi+ebx+28], al
  0007f	43		 inc	 ebx
  00080	83 fb 0c	 cmp	 ebx, 12			; 0000000cH
  00083	7c dd		 jl	 SHORT $LL3@Init

; 82   : 
; 83   : 		//UJ 130913, : szKey  
; 84   : 		//char szKey[ccddaabb::KEY_SIZE];//="";
; 85   : 		//for (int i = 0; i < ccddaabb::KEY_SIZE  ; i++)
; 86   : 		//	szKey[i] = (char)( rand()+pid+tick )%256; // 
; 87   : 		m_RC5.Setup( NULL, pid, tick );

  00085	ff 75 fc	 push	 DWORD PTR _tick$[ebp]
  00088	8d 4e 0c	 lea	 ecx, DWORD PTR [esi+12]
  0008b	ff 75 f8	 push	 DWORD PTR _pid$[ebp]
  0008e	6a 00		 push	 0
  00090	e8 00 00 00 00	 call	 ?Setup@ccddaabb@@QAEXPBDHH@Z ; ccddaabb::Setup
  00095	5f		 pop	 edi
  00096	5e		 pop	 esi
  00097	5b		 pop	 ebx

; 88   : 
; 89   : #ifdef _NOTUSE
; 90   : 		m_value        = 0;
; 91   : 		EncryptValueToPool((char*)&m_value);
; 92   : 		Debug();
; 93   : #endif
; 94   : 	}

  00098	c9		 leave
  00099	c3		 ret	 0
?Init@?$CEncrypt@M@@AAEXXZ ENDP				; CEncrypt<float>::Init
_TEXT	ENDS
PUBLIC	?DecryptValueToPool@?$CEncrypt@M@@QAEXPAM@Z	; CEncrypt<float>::DecryptValueToPool
EXTRN	?DecryptByte@ccddaabb@@QBEXPBDPADH@Z:PROC	; ccddaabb::DecryptByte
; Function compile flags: /Ogsp
;	COMDAT ?DecryptValueToPool@?$CEncrypt@M@@QAEXPAM@Z
_TEXT	SEGMENT
_value$ = 8						; size = 4
?DecryptValueToPool@?$CEncrypt@M@@QAEXPAM@Z PROC	; CEncrypt<float>::DecryptValueToPool, COMDAT
; _this$ = ecx

; 1648 : 	{

  00000	55		 push	 ebp
  00001	8b ec		 mov	 ebp, esp
  00003	56		 push	 esi

; 1649 : 		m_RC5.DecryptByte( m_MemPool, m_TempMem, 4 );

  00004	8d 71 28	 lea	 esi, DWORD PTR [ecx+40]
  00007	6a 04		 push	 4
  00009	8d 41 1c	 lea	 eax, DWORD PTR [ecx+28]
  0000c	56		 push	 esi
  0000d	50		 push	 eax
  0000e	83 c1 0c	 add	 ecx, 12			; 0000000cH
  00011	e8 00 00 00 00	 call	 ?DecryptByte@ccddaabb@@QBEXPBDPADH@Z ; ccddaabb::DecryptByte

; 1650 : 		*value = *((float*)m_TempMem);

  00016	d9 06		 fld	 DWORD PTR [esi]
  00018	8b 45 08	 mov	 eax, DWORD PTR _value$[ebp]
  0001b	d9 18		 fstp	 DWORD PTR [eax]
  0001d	5e		 pop	 esi

; 1651 : 	}

  0001e	5d		 pop	 ebp
  0001f	c2 04 00	 ret	 4
?DecryptValueToPool@?$CEncrypt@M@@QAEXPAM@Z ENDP	; CEncrypt<float>::DecryptValueToPool
_TEXT	ENDS
PUBLIC	?EncryptValueToPool@?$CEncrypt@K@@AAEXPBD@Z	; CEncrypt<unsigned long>::EncryptValueToPool
; Function compile flags: /Ogsp
;	COMDAT ?EncryptValueToPool@?$CEncrypt@K@@AAEXPBD@Z
_TEXT	SEGMENT
_value$ = 8						; size = 4
?EncryptValueToPool@?$CEncrypt@K@@AAEXPBD@Z PROC	; CEncrypt<unsigned long>::EncryptValueToPool, COMDAT
; _this$ = ecx

; 67   : 	{

  00000	55		 push	 ebp
  00001	8b ec		 mov	 ebp, esp

; 68   : 		m_RC5.EncryptByte( value, m_MemPool, max(m_ValueSize, DEFAULT_ENCRYPT) );

  00003	0f b7 41 06	 movzx	 eax, WORD PTR [ecx+6]
  00007	83 f8 04	 cmp	 eax, 4
  0000a	77 03		 ja	 SHORT $LN4@EncryptVal@2
  0000c	6a 04		 push	 4
  0000e	58		 pop	 eax
$LN4@EncryptVal@2:
  0000f	50		 push	 eax
  00010	8d 41 1c	 lea	 eax, DWORD PTR [ecx+28]
  00013	50		 push	 eax
  00014	ff 75 08	 push	 DWORD PTR _value$[ebp]
  00017	83 c1 0c	 add	 ecx, 12			; 0000000cH
  0001a	e8 00 00 00 00	 call	 ?EncryptByte@ccddaabb@@QAEXPBDPADH@Z ; ccddaabb::EncryptByte

; 69   : 		
; 70   : 	}

  0001f	5d		 pop	 ebp
  00020	c2 04 00	 ret	 4
?EncryptValueToPool@?$CEncrypt@K@@AAEXPBD@Z ENDP	; CEncrypt<unsigned long>::EncryptValueToPool
_TEXT	ENDS
PUBLIC	?Init@?$CEncrypt@K@@AAEXXZ			; CEncrypt<unsigned long>::Init
; Function compile flags: /Ogsp
;	COMDAT ?Init@?$CEncrypt@K@@AAEXXZ
_TEXT	SEGMENT
_pid$ = -8						; size = 4
_tick$ = -4						; size = 4
?Init@?$CEncrypt@K@@AAEXXZ PROC				; CEncrypt<unsigned long>::Init, COMDAT
; _this$ = ecx

; 73   : 	{

  00000	55		 push	 ebp
  00001	8b ec		 mov	 ebp, esp
  00003	51		 push	 ecx
  00004	51		 push	 ecx
  00005	53		 push	 ebx
  00006	56		 push	 esi
  00007	57		 push	 edi
  00008	8b f1		 mov	 esi, ecx

; 74   : 		DWORD pid = GetCurrentProcessId();

  0000a	ff 15 00 00 00
	00		 call	 DWORD PTR __imp__GetCurrentProcessId@0
  00010	89 45 f8	 mov	 DWORD PTR _pid$[ebp], eax

; 75   : 		DWORD tick = timeGetTime();

  00013	ff 15 00 00 00
	00		 call	 DWORD PTR __imp__timeGetTime@0

; 76   : 		m_ValueSize    = sizeof(type);
; 77   : 		m_MemPoolPos   = (unsigned short)( rand()+pid+tick )%(MAX_MEM_POOL-m_ValueSize);

  00019	8b 3d 00 00 00
	00		 mov	 edi, DWORD PTR __imp__rand
  0001f	89 45 fc	 mov	 DWORD PTR _tick$[ebp], eax
  00022	6a 04		 push	 4
  00024	58		 pop	 eax
  00025	66 89 46 06	 mov	 WORD PTR [esi+6], ax
  00029	ff d7		 call	 edi
  0002b	03 45 f8	 add	 eax, DWORD PTR _pid$[ebp]
  0002e	0f b7 4e 06	 movzx	 ecx, WORD PTR [esi+6]
  00032	03 45 fc	 add	 eax, DWORD PTR _tick$[ebp]
  00035	6a 0c		 push	 12			; 0000000cH
  00037	0f b7 c0	 movzx	 eax, ax
  0003a	5b		 pop	 ebx
  0003b	99		 cdq
  0003c	2b d9		 sub	 ebx, ecx
  0003e	f7 fb		 idiv	 ebx
  00040	66 89 56 04	 mov	 WORD PTR [esi+4], dx

; 78   : 		m_EncryptSeed  = (char)( rand()+pid+tick )%256;

  00044	ff d7		 call	 edi
  00046	02 45 f8	 add	 al, BYTE PTR _pid$[ebp]
  00049	02 45 fc	 add	 al, BYTE PTR _tick$[ebp]
  0004c	0f be c0	 movsx	 eax, al
  0004f	25 ff 00 00 80	 and	 eax, -2147483393	; 800000ffH
  00054	79 07		 jns	 SHORT $LN8@Init@2
  00056	48		 dec	 eax
  00057	0d 00 ff ff ff	 or	 eax, -256		; ffffff00H
  0005c	40		 inc	 eax
$LN8@Init@2:
  0005d	88 46 08	 mov	 BYTE PTR [esi+8], al

; 79   : 
; 80   : 		for (int i = 0; i < MAX_MEM_POOL ; i++)

  00060	33 db		 xor	 ebx, ebx
$LL3@Init@2:

; 81   : 			m_MemPool[i] = (char)( rand()+pid+tick )%256; // 

  00062	ff d7		 call	 edi
  00064	02 45 f8	 add	 al, BYTE PTR _pid$[ebp]
  00067	02 45 fc	 add	 al, BYTE PTR _tick$[ebp]
  0006a	0f be c0	 movsx	 eax, al
  0006d	25 ff 00 00 80	 and	 eax, -2147483393	; 800000ffH
  00072	79 07		 jns	 SHORT $LN9@Init@2
  00074	48		 dec	 eax
  00075	0d 00 ff ff ff	 or	 eax, -256		; ffffff00H
  0007a	40		 inc	 eax
$LN9@Init@2:
  0007b	88 44 1e 1c	 mov	 BYTE PTR [esi+ebx+28], al
  0007f	43		 inc	 ebx
  00080	83 fb 0c	 cmp	 ebx, 12			; 0000000cH
  00083	7c dd		 jl	 SHORT $LL3@Init@2

; 82   : 
; 83   : 		//UJ 130913, : szKey  
; 84   : 		//char szKey[ccddaabb::KEY_SIZE];//="";
; 85   : 		//for (int i = 0; i < ccddaabb::KEY_SIZE  ; i++)
; 86   : 		//	szKey[i] = (char)( rand()+pid+tick )%256; // 
; 87   : 		m_RC5.Setup( NULL, pid, tick );

  00085	ff 75 fc	 push	 DWORD PTR _tick$[ebp]
  00088	8d 4e 0c	 lea	 ecx, DWORD PTR [esi+12]
  0008b	ff 75 f8	 push	 DWORD PTR _pid$[ebp]
  0008e	6a 00		 push	 0
  00090	e8 00 00 00 00	 call	 ?Setup@ccddaabb@@QAEXPBDHH@Z ; ccddaabb::Setup
  00095	5f		 pop	 edi
  00096	5e		 pop	 esi
  00097	5b		 pop	 ebx

; 88   : 
; 89   : #ifdef _NOTUSE
; 90   : 		m_value        = 0;
; 91   : 		EncryptValueToPool((char*)&m_value);
; 92   : 		Debug();
; 93   : #endif
; 94   : 	}

  00098	c9		 leave
  00099	c3		 ret	 0
?Init@?$CEncrypt@K@@AAEXXZ ENDP				; CEncrypt<unsigned long>::Init
_TEXT	ENDS
PUBLIC	?DecryptValueToPool@?$CEncrypt@K@@QAEXPAK@Z	; CEncrypt<unsigned long>::DecryptValueToPool
; Function compile flags: /Ogsp
;	COMDAT ?DecryptValueToPool@?$CEncrypt@K@@QAEXPAK@Z
_TEXT	SEGMENT
_value$ = 8						; size = 4
?DecryptValueToPool@?$CEncrypt@K@@QAEXPAK@Z PROC	; CEncrypt<unsigned long>::DecryptValueToPool, COMDAT
; _this$ = ecx

; 1256 : 	{

  00000	55		 push	 ebp
  00001	8b ec		 mov	 ebp, esp
  00003	56		 push	 esi

; 1257 : 		m_RC5.DecryptByte( m_MemPool, m_TempMem, 4 );

  00004	8d 71 28	 lea	 esi, DWORD PTR [ecx+40]
  00007	6a 04		 push	 4
  00009	8d 41 1c	 lea	 eax, DWORD PTR [ecx+28]
  0000c	56		 push	 esi
  0000d	50		 push	 eax
  0000e	83 c1 0c	 add	 ecx, 12			; 0000000cH
  00011	e8 00 00 00 00	 call	 ?DecryptByte@ccddaabb@@QBEXPBDPADH@Z ; ccddaabb::DecryptByte

; 1258 : 		*value = *((DWORD*)m_TempMem);

  00016	8b 06		 mov	 eax, DWORD PTR [esi]
  00018	8b 4d 08	 mov	 ecx, DWORD PTR _value$[ebp]
  0001b	89 01		 mov	 DWORD PTR [ecx], eax
  0001d	5e		 pop	 esi

; 1259 : 	}

  0001e	5d		 pop	 ebp
  0001f	c2 04 00	 ret	 4
?DecryptValueToPool@?$CEncrypt@K@@QAEXPAK@Z ENDP	; CEncrypt<unsigned long>::DecryptValueToPool
_TEXT	ENDS
PUBLIC	?DecryptValueToPool@?$CEncrypt@W4TeamType@@@@QAEXPAW4TeamType@@@Z ; CEncrypt<enum TeamType>::DecryptValueToPool
; Function compile flags: /Ogsp
;	COMDAT ?DecryptValueToPool@?$CEncrypt@W4TeamType@@@@QAEXPAW4TeamType@@@Z
_TEXT	SEGMENT
_value$ = 8						; size = 4
?DecryptValueToPool@?$CEncrypt@W4TeamType@@@@QAEXPAW4TeamType@@@Z PROC ; CEncrypt<enum TeamType>::DecryptValueToPool, COMDAT
; _this$ = ecx

; 2959 : 	{

  00000	55		 push	 ebp
  00001	8b ec		 mov	 ebp, esp
  00003	56		 push	 esi

; 2960 : 		m_RC5.DecryptByte( m_MemPool, m_TempMem, sizeof(TeamType) );

  00004	8d 71 28	 lea	 esi, DWORD PTR [ecx+40]
  00007	6a 04		 push	 4
  00009	8d 41 1c	 lea	 eax, DWORD PTR [ecx+28]
  0000c	56		 push	 esi
  0000d	50		 push	 eax
  0000e	83 c1 0c	 add	 ecx, 12			; 0000000cH
  00011	e8 00 00 00 00	 call	 ?DecryptByte@ccddaabb@@QBEXPBDPADH@Z ; ccddaabb::DecryptByte

; 2961 : 		*value = *((TeamType*)m_TempMem);

  00016	8b 06		 mov	 eax, DWORD PTR [esi]
  00018	8b 4d 08	 mov	 ecx, DWORD PTR _value$[ebp]
  0001b	89 01		 mov	 DWORD PTR [ecx], eax
  0001d	5e		 pop	 esi

; 2962 : 	}

  0001e	5d		 pop	 ebp
  0001f	c2 04 00	 ret	 4
?DecryptValueToPool@?$CEncrypt@W4TeamType@@@@QAEXPAW4TeamType@@@Z ENDP ; CEncrypt<enum TeamType>::DecryptValueToPool
_TEXT	ENDS
PUBLIC	??0?$_Vector_const_iterator@V?$_Vector_val@HV?$allocator@H@std@@@std@@@std@@QAE@PAHPBU_Container_base0@1@@Z ; std::_Vector_const_iterator<std::_Vector_val<int,std::allocator<int> > >::_Vector_const_iterator<std::_Vector_val<int,std::allocator<int> > >
; Function compile flags: /Ogsp
; File c:\program files (x86)\microsoft visual studio 10.0\vc\include\vector
;	COMDAT ??0?$_Vector_const_iterator@V?$_Vector_val@HV?$allocator@H@std@@@std@@@std@@QAE@PAHPBU_Container_base0@1@@Z
_TEXT	SEGMENT
__Parg$ = 8						; size = 4
__Pvector$ = 12						; size = 4
??0?$_Vector_const_iterator@V?$_Vector_val@HV?$allocator@H@std@@@std@@@std@@QAE@PAHPBU_Container_base0@1@@Z PROC ; std::_Vector_const_iterator<std::_Vector_val<int,std::allocator<int> > >::_Vector_const_iterator<std::_Vector_val<int,std::allocator<int> > >, COMDAT
; _this$ = ecx

; 45   : 		{	// construct with pointer _Parg

  00000	55		 push	 ebp
  00001	8b ec		 mov	 ebp, esp
  00003	8b c1		 mov	 eax, ecx
  00005	8b 4d 08	 mov	 ecx, DWORD PTR __Parg$[ebp]
  00008	89 08		 mov	 DWORD PTR [eax], ecx

; 46   : 		this->_Adopt(_Pvector);
; 47   : 		}

  0000a	5d		 pop	 ebp
  0000b	c2 08 00	 ret	 8
??0?$_Vector_const_iterator@V?$_Vector_val@HV?$allocator@H@std@@@std@@@std@@QAE@PAHPBU_Container_base0@1@@Z ENDP ; std::_Vector_const_iterator<std::_Vector_val<int,std::allocator<int> > >::_Vector_const_iterator<std::_Vector_val<int,std::allocator<int> > >
_TEXT	ENDS
PUBLIC	??0?$_Vector_iterator@V?$_Vector_val@HV?$allocator@H@std@@@std@@@std@@QAE@PAHPBU_Container_base0@1@@Z ; std::_Vector_iterator<std::_Vector_val<int,std::allocator<int> > >::_Vector_iterator<std::_Vector_val<int,std::allocator<int> > >
; Function compile flags: /Ogsp
;	COMDAT ??0?$_Vector_iterator@V?$_Vector_val@HV?$allocator@H@std@@@std@@@std@@QAE@PAHPBU_Container_base0@1@@Z
_TEXT	SEGMENT
__Parg$ = 8						; size = 4
__Pvector$ = 12						; size = 4
??0?$_Vector_iterator@V?$_Vector_val@HV?$allocator@H@std@@@std@@@std@@QAE@PAHPBU_Container_base0@1@@Z PROC ; std::_Vector_iterator<std::_Vector_val<int,std::allocator<int> > >::_Vector_iterator<std::_Vector_val<int,std::allocator<int> > >, COMDAT
; _this$ = ecx

; 304  : 		{	// construct with pointer _Parg

  00000	55		 push	 ebp
  00001	8b ec		 mov	 ebp, esp
  00003	8b c1		 mov	 eax, ecx
  00005	8b 4d 08	 mov	 ecx, DWORD PTR __Parg$[ebp]
  00008	89 08		 mov	 DWORD PTR [eax], ecx

; 305  : 		}

  0000a	5d		 pop	 ebp
  0000b	c2 08 00	 ret	 8
??0?$_Vector_iterator@V?$_Vector_val@HV?$allocator@H@std@@@std@@@std@@QAE@PAHPBU_Container_base0@1@@Z ENDP ; std::_Vector_iterator<std::_Vector_val<int,std::allocator<int> > >::_Vector_iterator<std::_Vector_val<int,std::allocator<int> > >
_TEXT	ENDS
PUBLIC	?_Myptr@?$basic_string@DU?$char_traits@D@std@@V?$allocator@D@2@@std@@QAEPADXZ ; std::basic_string<char,std::char_traits<char>,std::allocator<char> >::_Myptr
; Function compile flags: /Ogsp
; File c:\program files (x86)\microsoft visual studio 10.0\vc\include\xstring
;	COMDAT ?_Myptr@?$basic_string@DU?$char_traits@D@std@@V?$allocator@D@2@@std@@QAEPADXZ
_TEXT	SEGMENT
?_Myptr@?$basic_string@DU?$char_traits@D@std@@V?$allocator@D@2@@std@@QAEPADXZ PROC ; std::basic_string<char,std::char_traits<char>,std::allocator<char> >::_Myptr, COMDAT
; _this$ = ecx

; 2004 : 		return (this->_BUF_SIZE <= this->_Myres ? this->_Bx._Ptr
; 2005 : 			: this->_Bx._Buf);

  00000	83 79 14 10	 cmp	 DWORD PTR [ecx+20], 16	; 00000010H
  00004	72 03		 jb	 SHORT $LN3@Myptr@2
  00006	8b 01		 mov	 eax, DWORD PTR [ecx]

; 2006 : 		}

  00008	c3		 ret	 0
$LN3@Myptr@2:

; 2004 : 		return (this->_BUF_SIZE <= this->_Myres ? this->_Bx._Ptr
; 2005 : 			: this->_Bx._Buf);

  00009	8b c1		 mov	 eax, ecx

; 2006 : 		}

  0000b	c3		 ret	 0
?_Myptr@?$basic_string@DU?$char_traits@D@std@@V?$allocator@D@2@@std@@QAEPADXZ ENDP ; std::basic_string<char,std::char_traits<char>,std::allocator<char> >::_Myptr
_TEXT	ENDS
PUBLIC	??_C@_0BA@JFNIOLAK@string?5too?5long?$AA@	; `string'
PUBLIC	?_Xlen@?$basic_string@DU?$char_traits@D@std@@V?$allocator@D@2@@std@@QBEXXZ ; std::basic_string<char,std::char_traits<char>,std::allocator<char> >::_Xlen
;	COMDAT ??_C@_0BA@JFNIOLAK@string?5too?5long?$AA@
CONST	SEGMENT
??_C@_0BA@JFNIOLAK@string?5too?5long?$AA@ DB 'string too long', 00H ; `string'
; Function compile flags: /Ogsp
CONST	ENDS
;	COMDAT ?_Xlen@?$basic_string@DU?$char_traits@D@std@@V?$allocator@D@2@@std@@QBEXXZ
_TEXT	SEGMENT
?_Xlen@?$basic_string@DU?$char_traits@D@std@@V?$allocator@D@2@@std@@QBEXXZ PROC ; std::basic_string<char,std::char_traits<char>,std::allocator<char> >::_Xlen, COMDAT
; _this$ = ecx

; 2016 : 		_Xlength_error("string too long");

  00000	68 00 00 00 00	 push	 OFFSET ??_C@_0BA@JFNIOLAK@string?5too?5long?$AA@
  00005	ff 15 00 00 00
	00		 call	 DWORD PTR __imp_?_Xlength_error@std@@YAXPBD@Z
$LN4@Xlen@2:
$LN3@Xlen@2:
  0000b	cc		 int	 3
?_Xlen@?$basic_string@DU?$char_traits@D@std@@V?$allocator@D@2@@std@@QBEXXZ ENDP ; std::basic_string<char,std::char_traits<char>,std::allocator<char> >::_Xlen
_TEXT	ENDS
PUBLIC	??_C@_0BI@CFPLBAOH@invalid?5string?5position?$AA@ ; `string'
PUBLIC	?_Xran@?$basic_string@DU?$char_traits@D@std@@V?$allocator@D@2@@std@@QBEXXZ ; std::basic_string<char,std::char_traits<char>,std::allocator<char> >::_Xran
EXTRN	__imp_?_Xout_of_range@std@@YAXPBD@Z:PROC
;	COMDAT ??_C@_0BI@CFPLBAOH@invalid?5string?5position?$AA@
CONST	SEGMENT
??_C@_0BI@CFPLBAOH@invalid?5string?5position?$AA@ DB 'invalid string posi'
	DB	'tion', 00H					; `string'
; Function compile flags: /Ogsp
CONST	ENDS
;	COMDAT ?_Xran@?$basic_string@DU?$char_traits@D@std@@V?$allocator@D@2@@std@@QBEXXZ
_TEXT	SEGMENT
?_Xran@?$basic_string@DU?$char_traits@D@std@@V?$allocator@D@2@@std@@QBEXXZ PROC ; std::basic_string<char,std::char_traits<char>,std::allocator<char> >::_Xran, COMDAT
; _this$ = ecx

; 2021 : 		_Xout_of_range("invalid string position");

  00000	68 00 00 00 00	 push	 OFFSET ??_C@_0BI@CFPLBAOH@invalid?5string?5position?$AA@
  00005	ff 15 00 00 00
	00		 call	 DWORD PTR __imp_?_Xout_of_range@std@@YAXPBD@Z
$LN4@Xran:
$LN3@Xran:
  0000b	cc		 int	 3
?_Xran@?$basic_string@DU?$char_traits@D@std@@V?$allocator@D@2@@std@@QBEXXZ ENDP ; std::basic_string<char,std::char_traits<char>,std::allocator<char> >::_Xran
_TEXT	ENDS
PUBLIC	?deallocate@?$allocator@D@std@@QAEXPADI@Z	; std::allocator<char>::deallocate
; Function compile flags: /Ogsp
; File c:\program files (x86)\microsoft visual studio 10.0\vc\include\xmemory
;	COMDAT ?deallocate@?$allocator@D@std@@QAEXPADI@Z
_TEXT	SEGMENT
__Ptr$ = 8						; size = 4
___formal$ = 12						; size = 4
?deallocate@?$allocator@D@std@@QAEXPADI@Z PROC		; std::allocator<char>::deallocate, COMDAT
; _this$ = ecx

; 181  : 		{	// deallocate object at _Ptr, ignore size

  00000	55		 push	 ebp
  00001	8b ec		 mov	 ebp, esp

; 182  : 		::operator delete(_Ptr);

  00003	ff 75 08	 push	 DWORD PTR __Ptr$[ebp]
  00006	e8 00 00 00 00	 call	 ??3@YAXPAX@Z		; operator delete
  0000b	59		 pop	 ecx

; 183  : 		}

  0000c	5d		 pop	 ebp
  0000d	c2 08 00	 ret	 8
?deallocate@?$allocator@D@std@@QAEXPADI@Z ENDP		; std::allocator<char>::deallocate
_TEXT	ENDS
PUBLIC	??0?$allocator@H@std@@QAE@ABV01@@Z		; std::allocator<int>::allocator<int>
; Function compile flags: /Ogsp
;	COMDAT ??0?$allocator@H@std@@QAE@ABV01@@Z
_TEXT	SEGMENT
___formal$ = 8						; size = 4
??0?$allocator@H@std@@QAE@ABV01@@Z PROC			; std::allocator<int>::allocator<int>, COMDAT
; _this$ = ecx

; 165  : 	_ALLOCATOR(const _ALLOCATOR<_Ty>&) _THROW0()

  00000	8b c1		 mov	 eax, ecx

; 166  : 		{	// construct by copying (do nothing)
; 167  : 		}

  00002	c2 04 00	 ret	 4
??0?$allocator@H@std@@QAE@ABV01@@Z ENDP			; std::allocator<int>::allocator<int>
_TEXT	ENDS
PUBLIC	?deallocate@?$allocator@H@std@@QAEXPAHI@Z	; std::allocator<int>::deallocate
; Function compile flags: /Ogsp
;	COMDAT ?deallocate@?$allocator@H@std@@QAEXPAHI@Z
_TEXT	SEGMENT
__Ptr$ = 8						; size = 4
___formal$ = 12						; size = 4
?deallocate@?$allocator@H@std@@QAEXPAHI@Z PROC		; std::allocator<int>::deallocate, COMDAT
; _this$ = ecx

; 181  : 		{	// deallocate object at _Ptr, ignore size

  00000	55		 push	 ebp
  00001	8b ec		 mov	 ebp, esp

; 182  : 		::operator delete(_Ptr);

  00003	ff 75 08	 push	 DWORD PTR __Ptr$[ebp]
  00006	e8 00 00 00 00	 call	 ??3@YAXPAX@Z		; operator delete
  0000b	59		 pop	 ecx

; 183  : 		}

  0000c	5d		 pop	 ebp
  0000d	c2 08 00	 ret	 8
?deallocate@?$allocator@H@std@@QAEXPAHI@Z ENDP		; std::allocator<int>::deallocate
_TEXT	ENDS
PUBLIC	??0?$allocator@M@std@@QAE@ABV01@@Z		; std::allocator<float>::allocator<float>
; Function compile flags: /Ogsp
;	COMDAT ??0?$allocator@M@std@@QAE@ABV01@@Z
_TEXT	SEGMENT
___formal$ = 8						; size = 4
??0?$allocator@M@std@@QAE@ABV01@@Z PROC			; std::allocator<float>::allocator<float>, COMDAT
; _this$ = ecx

; 165  : 	_ALLOCATOR(const _ALLOCATOR<_Ty>&) _THROW0()

  00000	8b c1		 mov	 eax, ecx

; 166  : 		{	// construct by copying (do nothing)
; 167  : 		}

  00002	c2 04 00	 ret	 4
??0?$allocator@M@std@@QAE@ABV01@@Z ENDP			; std::allocator<float>::allocator<float>
_TEXT	ENDS
PUBLIC	?capacity@?$vector@HV?$allocator@H@std@@@std@@QBEIXZ ; std::vector<int,std::allocator<int> >::capacity
; Function compile flags: /Ogsp
; File c:\program files (x86)\microsoft visual studio 10.0\vc\include\vector
;	COMDAT ?capacity@?$vector@HV?$allocator@H@std@@@std@@QBEIXZ
_TEXT	SEGMENT
?capacity@?$vector@HV?$allocator@H@std@@@std@@QBEIXZ PROC ; std::vector<int,std::allocator<int> >::capacity, COMDAT
; _this$ = ecx

; 777  : 		return (this->_Myend - this->_Myfirst);

  00000	8b 41 08	 mov	 eax, DWORD PTR [ecx+8]
  00003	2b 01		 sub	 eax, DWORD PTR [ecx]
  00005	c1 f8 02	 sar	 eax, 2

; 778  : 		}

  00008	c3		 ret	 0
?capacity@?$vector@HV?$allocator@H@std@@@std@@QBEIXZ ENDP ; std::vector<int,std::allocator<int> >::capacity
_TEXT	ENDS
PUBLIC	?_Make_iter@?$vector@HV?$allocator@H@std@@@std@@QBE?AV?$_Vector_iterator@V?$_Vector_val@HV?$allocator@H@std@@@std@@@2@V?$_Vector_const_iterator@V?$_Vector_val@HV?$allocator@H@std@@@std@@@2@@Z ; std::vector<int,std::allocator<int> >::_Make_iter
; Function compile flags: /Ogsp
;	COMDAT ?_Make_iter@?$vector@HV?$allocator@H@std@@@std@@QBE?AV?$_Vector_iterator@V?$_Vector_val@HV?$allocator@H@std@@@std@@@2@V?$_Vector_const_iterator@V?$_Vector_val@HV?$allocator@H@std@@@std@@@2@@Z
_TEXT	SEGMENT
___$ReturnUdt$ = 8					; size = 4
__Where$ = 12						; size = 4
?_Make_iter@?$vector@HV?$allocator@H@std@@@std@@QBE?AV?$_Vector_iterator@V?$_Vector_val@HV?$allocator@H@std@@@std@@@2@V?$_Vector_const_iterator@V?$_Vector_val@HV?$allocator@H@std@@@std@@@2@@Z PROC ; std::vector<int,std::allocator<int> >::_Make_iter, COMDAT
; _this$ = ecx

; 801  : 		{	// make iterator from const_iterator

  00000	55		 push	 ebp
  00001	8b ec		 mov	 ebp, esp

; 802  : 		return (iterator(_Where._Ptr, this));

  00003	8b 45 08	 mov	 eax, DWORD PTR ___$ReturnUdt$[ebp]
  00006	8b 4d 0c	 mov	 ecx, DWORD PTR __Where$[ebp]
  00009	89 08		 mov	 DWORD PTR [eax], ecx

; 803  : 		}

  0000b	5d		 pop	 ebp
  0000c	c2 08 00	 ret	 8
?_Make_iter@?$vector@HV?$allocator@H@std@@@std@@QBE?AV?$_Vector_iterator@V?$_Vector_val@HV?$allocator@H@std@@@std@@@2@V?$_Vector_const_iterator@V?$_Vector_val@HV?$allocator@H@std@@@std@@@2@@Z ENDP ; std::vector<int,std::allocator<int> >::_Make_iter
_TEXT	ENDS
PUBLIC	?_Xlen@?$vector@HV?$allocator@H@std@@@std@@IBEXXZ ; std::vector<int,std::allocator<int> >::_Xlen
; Function compile flags: /Ogsp
;	COMDAT ?_Xlen@?$vector@HV?$allocator@H@std@@@std@@IBEXXZ
_TEXT	SEGMENT
?_Xlen@?$vector@HV?$allocator@H@std@@@std@@IBEXXZ PROC	; std::vector<int,std::allocator<int> >::_Xlen, COMDAT
; _this$ = ecx

; 1427 : 		_Xlength_error("vector<T> too long");

  00000	68 00 00 00 00	 push	 OFFSET ??_C@_0BD@OLBABOEK@vector?$DMT?$DO?5too?5long?$AA@
  00005	ff 15 00 00 00
	00		 call	 DWORD PTR __imp_?_Xlength_error@std@@YAXPBD@Z
$LN4@Xlen@3:
$LN3@Xlen@3:
  0000b	cc		 int	 3
?_Xlen@?$vector@HV?$allocator@H@std@@@std@@IBEXXZ ENDP	; std::vector<int,std::allocator<int> >::_Xlen
_TEXT	ENDS
PUBLIC	?_Inside@?$basic_string@DU?$char_traits@D@std@@V?$allocator@D@2@@std@@QAE_NPBD@Z ; std::basic_string<char,std::char_traits<char>,std::allocator<char> >::_Inside
; Function compile flags: /Ogsp
; File c:\program files (x86)\microsoft visual studio 10.0\vc\include\xstring
;	COMDAT ?_Inside@?$basic_string@DU?$char_traits@D@std@@V?$allocator@D@2@@std@@QAE_NPBD@Z
_TEXT	SEGMENT
__Ptr$ = 8						; size = 4
?_Inside@?$basic_string@DU?$char_traits@D@std@@V?$allocator@D@2@@std@@QAE_NPBD@Z PROC ; std::basic_string<char,std::char_traits<char>,std::allocator<char> >::_Inside, COMDAT
; _this$ = ecx

; 1973 : 		{	// test if _Ptr points inside string

  00000	55		 push	 ebp
  00001	8b ec		 mov	 ebp, esp

; 1974 : 		if (_Ptr == 0 || _Ptr < _Myptr() || _Myptr() + this->_Mysize <= _Ptr)

  00003	83 7d 08 00	 cmp	 DWORD PTR __Ptr$[ebp], 0
  00007	74 2c		 je	 SHORT $LN2@Inside@3
  00009	8b 51 14	 mov	 edx, DWORD PTR [ecx+20]
  0000c	83 fa 10	 cmp	 edx, 16			; 00000010H
  0000f	72 04		 jb	 SHORT $LN8@Inside@3
  00011	8b 01		 mov	 eax, DWORD PTR [ecx]
  00013	eb 02		 jmp	 SHORT $LN9@Inside@3
$LN8@Inside@3:
  00015	8b c1		 mov	 eax, ecx
$LN9@Inside@3:
  00017	39 45 08	 cmp	 DWORD PTR __Ptr$[ebp], eax
  0001a	72 19		 jb	 SHORT $LN2@Inside@3
  0001c	83 fa 10	 cmp	 edx, 16			; 00000010H
  0001f	72 04		 jb	 SHORT $LN12@Inside@3
  00021	8b 01		 mov	 eax, DWORD PTR [ecx]
  00023	eb 02		 jmp	 SHORT $LN13@Inside@3
$LN12@Inside@3:
  00025	8b c1		 mov	 eax, ecx
$LN13@Inside@3:
  00027	8b 49 10	 mov	 ecx, DWORD PTR [ecx+16]
  0002a	03 c8		 add	 ecx, eax
  0002c	3b 4d 08	 cmp	 ecx, DWORD PTR __Ptr$[ebp]
  0002f	76 04		 jbe	 SHORT $LN2@Inside@3

; 1976 : 		else
; 1977 : 			return (true);

  00031	b0 01		 mov	 al, 1
  00033	eb 02		 jmp	 SHORT $LN1@Inside@3
$LN2@Inside@3:

; 1975 : 			return (false);	// don't ask

  00035	32 c0		 xor	 al, al
$LN1@Inside@3:

; 1978 : 		}

  00037	5d		 pop	 ebp
  00038	c2 04 00	 ret	 4
?_Inside@?$basic_string@DU?$char_traits@D@std@@V?$allocator@D@2@@std@@QAE_NPBD@Z ENDP ; std::basic_string<char,std::char_traits<char>,std::allocator<char> >::_Inside
_TEXT	ENDS
PUBLIC	?max_size@?$allocator@H@std@@QBEIXZ		; std::allocator<int>::max_size
; Function compile flags: /Ogsp
; File c:\program files (x86)\microsoft visual studio 10.0\vc\include\xmemory
;	COMDAT ?max_size@?$allocator@H@std@@QBEIXZ
_TEXT	SEGMENT
?max_size@?$allocator@H@std@@QBEIXZ PROC		; std::allocator<int>::max_size, COMDAT
; _this$ = ecx

; 218  : 		_SIZT _Count = (_SIZT)(-1) / sizeof (_Ty);
; 219  : 		return (0 < _Count ? _Count : 1);

  00000	b8 ff ff ff 3f	 mov	 eax, 1073741823		; 3fffffffH

; 220  : 		}

  00005	c3		 ret	 0
?max_size@?$allocator@H@std@@QBEIXZ ENDP		; std::allocator<int>::max_size
_TEXT	ENDS
PUBLIC	?max_size@?$allocator@D@std@@QBEIXZ		; std::allocator<char>::max_size
; Function compile flags: /Ogsp
;	COMDAT ?max_size@?$allocator@D@std@@QBEIXZ
_TEXT	SEGMENT
?max_size@?$allocator@D@std@@QBEIXZ PROC		; std::allocator<char>::max_size, COMDAT
; _this$ = ecx

; 218  : 		_SIZT _Count = (_SIZT)(-1) / sizeof (_Ty);
; 219  : 		return (0 < _Count ? _Count : 1);

  00000	83 c8 ff	 or	 eax, -1

; 220  : 		}

  00003	c3		 ret	 0
?max_size@?$allocator@D@std@@QBEIXZ ENDP		; std::allocator<char>::max_size
_TEXT	ENDS
PUBLIC	?_Compat@?$_Vector_const_iterator@V?$_Vector_val@HV?$allocator@H@std@@@std@@@std@@QBEXABV12@@Z ; std::_Vector_const_iterator<std::_Vector_val<int,std::allocator<int> > >::_Compat
; Function compile flags: /Ogsp
; File c:\program files (x86)\microsoft visual studio 10.0\vc\include\vector
;	COMDAT ?_Compat@?$_Vector_const_iterator@V?$_Vector_val@HV?$allocator@H@std@@@std@@@std@@QBEXABV12@@Z
_TEXT	SEGMENT
___formal$ = 8						; size = 4
?_Compat@?$_Vector_const_iterator@V?$_Vector_val@HV?$allocator@H@std@@@std@@@std@@QBEXABV12@@Z PROC ; std::_Vector_const_iterator<std::_Vector_val<int,std::allocator<int> > >::_Compat, COMDAT
; _this$ = ecx

; 253  : 		}

  00000	c2 04 00	 ret	 4
?_Compat@?$_Vector_const_iterator@V?$_Vector_val@HV?$allocator@H@std@@@std@@@std@@QBEXABV12@@Z ENDP ; std::_Vector_const_iterator<std::_Vector_val<int,std::allocator<int> > >::_Compat
_TEXT	ENDS
PUBLIC	??$_Allocate@H@std@@YAPAHIPAH@Z			; std::_Allocate<int>
; Function compile flags: /Ogsp
; File c:\program files (x86)\microsoft visual studio 10.0\vc\include\xmemory
;	COMDAT ??$_Allocate@H@std@@YAPAHIPAH@Z
_TEXT	SEGMENT
$T670440 = -12						; size = 12
$T670444 = 8						; size = 4
__Count$ = 8						; size = 4
___formal$ = 12						; size = 4
??$_Allocate@H@std@@YAPAHIPAH@Z PROC			; std::_Allocate<int>, COMDAT

; 30   : 	{	// allocate storage for _Count elements of type _Ty

  00000	55		 push	 ebp
  00001	8b ec		 mov	 ebp, esp

; 31   : 	void *_Ptr = 0;
; 32   : 
; 33   : 	if (_Count <= 0)

  00003	8b 4d 08	 mov	 ecx, DWORD PTR __Count$[ebp]
  00006	83 ec 0c	 sub	 esp, 12			; 0000000cH
  00009	33 c0		 xor	 eax, eax
  0000b	85 c9		 test	 ecx, ecx

; 34   : 		_Count = 0;
; 35   : 	else if (((_SIZT)(-1) / sizeof (_Ty) < _Count)

  0000d	74 3e		 je	 SHORT $LN5@Allocate@4

; 36   : 		|| (_Ptr = ::operator new(_Count * sizeof (_Ty))) == 0)

  0000f	81 f9 ff ff ff
	3f		 cmp	 ecx, 1073741823		; 3fffffffH
  00015	77 10		 ja	 SHORT $LN1@Allocate@4
  00017	8b c1		 mov	 eax, ecx
  00019	c1 e0 02	 shl	 eax, 2
  0001c	50		 push	 eax
  0001d	e8 00 00 00 00	 call	 ??2@YAPAXI@Z		; operator new
  00022	59		 pop	 ecx
  00023	85 c0		 test	 eax, eax

; 38   : 
; 39   : 	return ((_Ty _FARQ *)_Ptr);

  00025	75 26		 jne	 SHORT $LN5@Allocate@4
$LN1@Allocate@4:

; 37   : 		_THROW_NCEE(bad_alloc, 0);

  00027	83 65 08 00	 and	 DWORD PTR $T670444[ebp], 0
  0002b	8d 45 08	 lea	 eax, DWORD PTR $T670444[ebp]
  0002e	50		 push	 eax
  0002f	8d 4d f4	 lea	 ecx, DWORD PTR $T670440[ebp]
  00032	ff 15 00 00 00
	00		 call	 DWORD PTR __imp_??0exception@std@@QAE@ABQBD@Z
  00038	68 00 00 00 00	 push	 OFFSET __TI2?AVbad_alloc@std@@
  0003d	8d 45 f4	 lea	 eax, DWORD PTR $T670440[ebp]
  00040	50		 push	 eax
  00041	c7 45 f4 00 00
	00 00		 mov	 DWORD PTR $T670440[ebp], OFFSET ??_7bad_alloc@std@@6B@
  00048	e8 00 00 00 00	 call	 __CxxThrowException@8
$LN10@Allocate@4:
$LN5@Allocate@4:

; 40   : 	}

  0004d	c9		 leave
  0004e	c3		 ret	 0
$LN9@Allocate@4:
??$_Allocate@H@std@@YAPAHIPAH@Z ENDP			; std::_Allocate<int>
_TEXT	ENDS
PUBLIC	??$_Allocate@D@std@@YAPADIPAD@Z			; std::_Allocate<char>
; Function compile flags: /Ogsp
;	COMDAT ??$_Allocate@D@std@@YAPADIPAD@Z
_TEXT	SEGMENT
$T670449 = -12						; size = 12
$T670453 = 8						; size = 4
__Count$ = 8						; size = 4
___formal$ = 12						; size = 4
??$_Allocate@D@std@@YAPADIPAD@Z PROC			; std::_Allocate<char>, COMDAT

; 30   : 	{	// allocate storage for _Count elements of type _Ty

  00000	55		 push	 ebp
  00001	8b ec		 mov	 ebp, esp

; 31   : 	void *_Ptr = 0;

  00003	33 c0		 xor	 eax, eax
  00005	83 ec 0c	 sub	 esp, 12			; 0000000cH

; 32   : 
; 33   : 	if (_Count <= 0)

  00008	39 45 08	 cmp	 DWORD PTR __Count$[ebp], eax

; 34   : 		_Count = 0;
; 35   : 	else if (((_SIZT)(-1) / sizeof (_Ty) < _Count)

  0000b	76 39		 jbe	 SHORT $LN5@Allocate@5

; 36   : 		|| (_Ptr = ::operator new(_Count * sizeof (_Ty))) == 0)

  0000d	83 7d 08 ff	 cmp	 DWORD PTR __Count$[ebp], -1
  00011	77 0d		 ja	 SHORT $LN1@Allocate@5
  00013	ff 75 08	 push	 DWORD PTR __Count$[ebp]
  00016	e8 00 00 00 00	 call	 ??2@YAPAXI@Z		; operator new
  0001b	59		 pop	 ecx
  0001c	85 c0		 test	 eax, eax

; 38   : 
; 39   : 	return ((_Ty _FARQ *)_Ptr);

  0001e	75 26		 jne	 SHORT $LN5@Allocate@5
$LN1@Allocate@5:

; 37   : 		_THROW_NCEE(bad_alloc, 0);

  00020	83 65 08 00	 and	 DWORD PTR $T670453[ebp], 0
  00024	8d 45 08	 lea	 eax, DWORD PTR $T670453[ebp]
  00027	50		 push	 eax
  00028	8d 4d f4	 lea	 ecx, DWORD PTR $T670449[ebp]
  0002b	ff 15 00 00 00
	00		 call	 DWORD PTR __imp_??0exception@std@@QAE@ABQBD@Z
  00031	68 00 00 00 00	 push	 OFFSET __TI2?AVbad_alloc@std@@
  00036	8d 45 f4	 lea	 eax, DWORD PTR $T670449[ebp]
  00039	50		 push	 eax
  0003a	c7 45 f4 00 00
	00 00		 mov	 DWORD PTR $T670449[ebp], OFFSET ??_7bad_alloc@std@@6B@
  00041	e8 00 00 00 00	 call	 __CxxThrowException@8
$LN10@Allocate@5:
$LN5@Allocate@5:

; 40   : 	}

  00046	c9		 leave
  00047	c3		 ret	 0
$LN9@Allocate@5:
??$_Allocate@D@std@@YAPADIPAD@Z ENDP			; std::_Allocate<char>
_TEXT	ENDS
EXTRN	__imp_??0exception@std@@QAE@ABV01@@Z:PROC
; Function compile flags: /Ogsp
;	COMDAT ??0bad_alloc@std@@QAE@ABV01@@Z
_TEXT	SEGMENT
___that$ = 8						; size = 4
??0bad_alloc@std@@QAE@ABV01@@Z PROC			; std::bad_alloc::bad_alloc, COMDAT
; _this$ = ecx
  00000	55		 push	 ebp
  00001	8b ec		 mov	 ebp, esp
  00003	56		 push	 esi
  00004	ff 75 08	 push	 DWORD PTR ___that$[ebp]
  00007	8b f1		 mov	 esi, ecx
  00009	ff 15 00 00 00
	00		 call	 DWORD PTR __imp_??0exception@std@@QAE@ABV01@@Z
  0000f	c7 06 00 00 00
	00		 mov	 DWORD PTR [esi], OFFSET ??_7bad_alloc@std@@6B@
  00015	8b c6		 mov	 eax, esi
  00017	5e		 pop	 esi
  00018	5d		 pop	 ebp
  00019	c2 04 00	 ret	 4
??0bad_alloc@std@@QAE@ABV01@@Z ENDP			; std::bad_alloc::bad_alloc
_TEXT	ENDS
PUBLIC	??$forward@AAH@std@@YAAAHAAH@Z			; std::forward<int &>
; Function compile flags: /Ogsp
; File c:\program files (x86)\microsoft visual studio 10.0\vc\include\utility
;	COMDAT ??$forward@AAH@std@@YAAAHAAH@Z
_TEXT	SEGMENT
__Arg$ = 8						; size = 4
??$forward@AAH@std@@YAAAHAAH@Z PROC			; std::forward<int &>, COMDAT

; 78   : 	{	// forward _Arg, given explicitly specified type parameter

  00000	55		 push	 ebp
  00001	8b ec		 mov	 ebp, esp

; 79   : 	return ((_Ty&&)_Arg);

  00003	8b 45 08	 mov	 eax, DWORD PTR __Arg$[ebp]

; 80   : 	}

  00006	5d		 pop	 ebp
  00007	c3		 ret	 0
??$forward@AAH@std@@YAAAHAAH@Z ENDP			; std::forward<int &>
_TEXT	ENDS
PUBLIC	??$_Val_type@PAH@std@@YAPAHPAH@Z		; std::_Val_type<int *>
; Function compile flags: /Ogsp
; File c:\program files (x86)\microsoft visual studio 10.0\vc\include\xutility
;	COMDAT ??$_Val_type@PAH@std@@YAPAHPAH@Z
_TEXT	SEGMENT
___formal$ = 8						; size = 4
??$_Val_type@PAH@std@@YAPAHPAH@Z PROC			; std::_Val_type<int *>, COMDAT

; 790  : 	return (0);

  00000	33 c0		 xor	 eax, eax

; 791  : 	}

  00002	c3		 ret	 0
??$_Val_type@PAH@std@@YAPAHPAH@Z ENDP			; std::_Val_type<int *>
_TEXT	ENDS
PUBLIC	??$_Ptr_cat@HH@std@@YA?AU_Scalar_ptr_iterator_tag@0@PAH0@Z ; std::_Ptr_cat<int,int>
; Function compile flags: /Ogsp
;	COMDAT ??$_Ptr_cat@HH@std@@YA?AU_Scalar_ptr_iterator_tag@0@PAH0@Z
_TEXT	SEGMENT
__Cat$ = -1						; size = 1
___formal$ = 8						; size = 4
___formal$ = 12						; size = 4
??$_Ptr_cat@HH@std@@YA?AU_Scalar_ptr_iterator_tag@0@PAH0@Z PROC ; std::_Ptr_cat<int,int>, COMDAT

; 516  : 	{	// return pointer category from pointers

  00000	55		 push	 ebp
  00001	8b ec		 mov	 ebp, esp
  00003	51		 push	 ecx

; 517  : 	typename _Ptr_cat_helper<_Elem1, _Elem2>::_Type _Cat;
; 518  : 	return (_Cat);

  00004	8a 45 ff	 mov	 al, BYTE PTR __Cat$[ebp]

; 519  : 	}

  00007	c9		 leave
  00008	c3		 ret	 0
??$_Ptr_cat@HH@std@@YA?AU_Scalar_ptr_iterator_tag@0@PAH0@Z ENDP ; std::_Ptr_cat<int,int>
_TEXT	ENDS
PUBLIC	??$_Move@PAHPAH@std@@YAPAHPAH00U_Scalar_ptr_iterator_tag@0@@Z ; std::_Move<int *,int *>
; Function compile flags: /Ogsp
;	COMDAT ??$_Move@PAHPAH@std@@YAPAHPAH00U_Scalar_ptr_iterator_tag@0@@Z
_TEXT	SEGMENT
__First$ = 8						; size = 4
__Last$ = 12						; size = 4
__Dest$ = 16						; size = 4
___formal$ = 20						; size = 1
??$_Move@PAHPAH@std@@YAPAHPAH00U_Scalar_ptr_iterator_tag@0@@Z PROC ; std::_Move<int *,int *>, COMDAT

; 2522 : 	{	// move [_First, _Last) to [_Dest, ...), pointers to scalars

  00000	55		 push	 ebp
  00001	8b ec		 mov	 ebp, esp
  00003	56		 push	 esi

; 2523 : 	ptrdiff_t _Count = _Last - _First;

  00004	8b 75 0c	 mov	 esi, DWORD PTR __Last$[ebp]
  00007	2b 75 08	 sub	 esi, DWORD PTR __First$[ebp]
  0000a	57		 push	 edi

; 2524 : 	_CSTD memmove(&*_Dest, &*_First,
; 2525 : 		_Count * sizeof (*_First));

  0000b	8b 7d 10	 mov	 edi, DWORD PTR __Dest$[ebp]
  0000e	c1 fe 02	 sar	 esi, 2
  00011	c1 e6 02	 shl	 esi, 2
  00014	56		 push	 esi
  00015	ff 75 08	 push	 DWORD PTR __First$[ebp]
  00018	57		 push	 edi
  00019	ff 15 00 00 00
	00		 call	 DWORD PTR __imp__memmove
  0001f	83 c4 0c	 add	 esp, 12			; 0000000cH

; 2526 : 	return (_Dest + _Count);

  00022	8d 04 3e	 lea	 eax, DWORD PTR [esi+edi]
  00025	5f		 pop	 edi
  00026	5e		 pop	 esi

; 2527 : 	}

  00027	5d		 pop	 ebp
  00028	c3		 ret	 0
??$_Move@PAHPAH@std@@YAPAHPAH00U_Scalar_ptr_iterator_tag@0@@Z ENDP ; std::_Move<int *,int *>
_TEXT	ENDS
PUBLIC	??$_Destroy_range@V?$allocator@H@std@@@std@@YAXPAH0AAV?$allocator@H@0@U_Scalar_ptr_iterator_tag@0@@Z ; std::_Destroy_range<std::allocator<int> >
; Function compile flags: /Ogsp
; File c:\program files (x86)\microsoft visual studio 10.0\vc\include\xmemory
;	COMDAT ??$_Destroy_range@V?$allocator@H@std@@@std@@YAXPAH0AAV?$allocator@H@0@U_Scalar_ptr_iterator_tag@0@@Z
_TEXT	SEGMENT
__First$ = 8						; size = 4
__Last$ = 12						; size = 4
__Al$ = 16						; size = 4
___formal$ = 20						; size = 1
??$_Destroy_range@V?$allocator@H@std@@@std@@YAXPAH0AAV?$allocator@H@0@U_Scalar_ptr_iterator_tag@0@@Z PROC ; std::_Destroy_range<std::allocator<int> >, COMDAT

; 105  : 	}

  00000	c3		 ret	 0
??$_Destroy_range@V?$allocator@H@std@@@std@@YAXPAH0AAV?$allocator@H@0@U_Scalar_ptr_iterator_tag@0@@Z ENDP ; std::_Destroy_range<std::allocator<int> >
_TEXT	ENDS
PUBLIC	?size@?$vector@UWeaponInfo@@V?$allocator@UWeaponInfo@@@std@@@std@@QBEIXZ ; std::vector<WeaponInfo,std::allocator<WeaponInfo> >::size
; Function compile flags: /Ogsp
; File c:\program files (x86)\microsoft visual studio 10.0\vc\include\vector
;	COMDAT ?size@?$vector@UWeaponInfo@@V?$allocator@UWeaponInfo@@@std@@@std@@QBEIXZ
_TEXT	SEGMENT
?size@?$vector@UWeaponInfo@@V?$allocator@UWeaponInfo@@@std@@@std@@QBEIXZ PROC ; std::vector<WeaponInfo,std::allocator<WeaponInfo> >::size, COMDAT
; _this$ = ecx

; 879  : 		return (this->_Mylast - this->_Myfirst);

  00000	8b 41 04	 mov	 eax, DWORD PTR [ecx+4]
  00003	2b 01		 sub	 eax, DWORD PTR [ecx]
  00005	6a 28		 push	 40			; 00000028H
  00007	99		 cdq
  00008	59		 pop	 ecx
  00009	f7 f9		 idiv	 ecx

; 880  : 		}

  0000b	c3		 ret	 0
?size@?$vector@UWeaponInfo@@V?$allocator@UWeaponInfo@@@std@@@std@@QBEIXZ ENDP ; std::vector<WeaponInfo,std::allocator<WeaponInfo> >::size
_TEXT	ENDS
PUBLIC	??$_Uninit_move@HHH@std@@YAPAHPAH00AAV?$allocator@H@0@0U_Scalar_ptr_iterator_tag@0@@Z ; std::_Uninit_move<int,int,int>
; Function compile flags: /Ogsp
; File c:\program files (x86)\microsoft visual studio 10.0\vc\include\memory
;	COMDAT ??$_Uninit_move@HHH@std@@YAPAHPAH00AAV?$allocator@H@0@0U_Scalar_ptr_iterator_tag@0@@Z
_TEXT	SEGMENT
__First$ = 8						; size = 4
__Last$ = 12						; size = 4
__Dest$ = 16						; size = 4
___formal$ = 20						; size = 4
___formal$ = 24						; size = 4
___formal$ = 28						; size = 1
??$_Uninit_move@HHH@std@@YAPAHPAH00AAV?$allocator@H@0@0U_Scalar_ptr_iterator_tag@0@@Z PROC ; std::_Uninit_move<int,int,int>, COMDAT

; 456  : 	{	// move [_First, _Last) to raw _Dest, scalar type

  00000	55		 push	 ebp
  00001	8b ec		 mov	 ebp, esp
  00003	56		 push	 esi

; 457  : 	_DEBUG_RANGE(_First, _Last);
; 458  : 	_DEBUG_POINTER(_Dest);
; 459  : 	size_t _Count = (size_t)(_Last - _First);

  00004	8b 75 0c	 mov	 esi, DWORD PTR __Last$[ebp]
  00007	2b 75 08	 sub	 esi, DWORD PTR __First$[ebp]
  0000a	c1 fe 02	 sar	 esi, 2

; 460  : 	return ((_Ty2 *)_CSTD memmove(&*_Dest, &*_First,
; 461  : 		_Count * sizeof (*_First)) + _Count);	// NB: non-overlapping move

  0000d	c1 e6 02	 shl	 esi, 2
  00010	56		 push	 esi
  00011	ff 75 08	 push	 DWORD PTR __First$[ebp]
  00014	ff 75 10	 push	 DWORD PTR __Dest$[ebp]
  00017	ff 15 00 00 00
	00		 call	 DWORD PTR __imp__memmove
  0001d	83 c4 0c	 add	 esp, 12			; 0000000cH
  00020	03 c6		 add	 eax, esi
  00022	5e		 pop	 esi

; 462  : 	}

  00023	5d		 pop	 ebp
  00024	c3		 ret	 0
??$_Uninit_move@HHH@std@@YAPAHPAH00AAV?$allocator@H@0@0U_Scalar_ptr_iterator_tag@0@@Z ENDP ; std::_Uninit_move<int,int,int>
_TEXT	ENDS
PUBLIC	??_R0?AVioBaseChar@@@8				; ioBaseChar `RTTI Type Descriptor'
PUBLIC	?ToBaseChar@@YAPAVioBaseChar@@PAVioGameEntity@@@Z ; ToBaseChar
;	COMDAT ??_R0?AVioBaseChar@@@8
; File d:\lost saga for developer\youtube\tutorial\source\src\lsclient\iobasechar.h
_DATA	SEGMENT
??_R0?AVioBaseChar@@@8 DD FLAT:??_7type_info@@6B@	; ioBaseChar `RTTI Type Descriptor'
	DD	00H
	DB	'.?AVioBaseChar@@', 00H
; Function compile flags: /Ogsp
_DATA	ENDS
;	COMDAT ?ToBaseChar@@YAPAVioBaseChar@@PAVioGameEntity@@@Z
_TEXT	SEGMENT
_pObj$ = 8						; size = 4
?ToBaseChar@@YAPAVioBaseChar@@PAVioGameEntity@@@Z PROC	; ToBaseChar, COMDAT

; 4326 : {

  00000	55		 push	 ebp
  00001	8b ec		 mov	 ebp, esp
  00003	56		 push	 esi

; 4327 : 	ioPlayEntity *pPlay = ToPlayEntity( pObj );

  00004	ff 75 08	 push	 DWORD PTR _pObj$[ebp]
  00007	e8 00 00 00 00	 call	 ?ToPlayEntity@@YAPAVioPlayEntity@@PAVioGameEntity@@@Z ; ToPlayEntity
  0000c	8b f0		 mov	 esi, eax
  0000e	59		 pop	 ecx

; 4328 : 	if( !pPlay || pPlay->GetSubType() != ioPlayEntity::PST_CHAR )

  0000f	85 f6		 test	 esi, esi
  00011	74 25		 je	 SHORT $LN1@ToBaseChar
  00013	8b 06		 mov	 eax, DWORD PTR [esi]
  00015	8b ce		 mov	 ecx, esi
  00017	ff 90 a4 00 00
	00		 call	 DWORD PTR [eax+164]
  0001d	85 c0		 test	 eax, eax
  0001f	75 17		 jne	 SHORT $LN1@ToBaseChar

; 4330 : 
; 4331 : 	return dynamic_cast< ioBaseChar* >( pPlay );

  00021	50		 push	 eax
  00022	68 00 00 00 00	 push	 OFFSET ??_R0?AVioBaseChar@@@8
  00027	68 00 00 00 00	 push	 OFFSET ??_R0?AVioPlayEntity@@@8
  0002c	50		 push	 eax
  0002d	56		 push	 esi
  0002e	e8 00 00 00 00	 call	 ___RTDynamicCast
  00033	83 c4 14	 add	 esp, 20			; 00000014H
  00036	eb 02		 jmp	 SHORT $LN3@ToBaseChar
$LN1@ToBaseChar:

; 4329 : 		return NULL;

  00038	33 c0		 xor	 eax, eax
$LN3@ToBaseChar:
  0003a	5e		 pop	 esi

; 4332 : }

  0003b	5d		 pop	 ebp
  0003c	c3		 ret	 0
?ToBaseChar@@YAPAVioBaseChar@@PAVioGameEntity@@@Z ENDP	; ToBaseChar
_TEXT	ENDS
PUBLIC	?SetMamaHahaOwnerAttach@ioMamaHahaDummy@@QAEXXZ	; ioMamaHahaDummy::SetMamaHahaOwnerAttach
; Function compile flags: /Ogsp
; File d:\lost saga for developer\youtube\tutorial\source\src\lsclient\iomamahahadummy.cpp
;	COMDAT ?SetMamaHahaOwnerAttach@ioMamaHahaDummy@@QAEXXZ
_TEXT	SEGMENT
?SetMamaHahaOwnerAttach@ioMamaHahaDummy@@QAEXXZ PROC	; ioMamaHahaDummy::SetMamaHahaOwnerAttach, COMDAT
; _this$ = ecx

; 409  : 	switch( m_State )

  00000	8b 81 30 02 00
	00		 mov	 eax, DWORD PTR [ecx+560]
  00006	48		 dec	 eax
  00007	83 f8 02	 cmp	 eax, 2
  0000a	77 07		 ja	 SHORT $LN2@SetMamaHah@3

; 410  : 	{
; 411  : 	case DCS_START:
; 412  : 	case DCS_DELAY:
; 413  : 	case DCS_MOVE:
; 414  : 		SetMamaHahaState( MHS_OWNER_ATTACH );

  0000c	6a 01		 push	 1
  0000e	e8 00 00 00 00	 call	 ?SetMamaHahaState@ioMamaHahaDummy@@IAEXW4MamaHahaState@1@@Z ; ioMamaHahaDummy::SetMamaHahaState
$LN2@SetMamaHah@3:

; 415  : 		break;
; 416  : 	}
; 417  : }

  00013	c3		 ret	 0
?SetMamaHahaOwnerAttach@ioMamaHahaDummy@@QAEXXZ ENDP	; ioMamaHahaDummy::SetMamaHahaOwnerAttach
_TEXT	ENDS
PUBLIC	??D?$CEncrypt@M@@QAEMABK@Z			; CEncrypt<float>::operator*
; Function compile flags: /Ogsp
; File d:\lost saga for developer\youtube\tutorial\source\src\lsclient\encryptvalue.h
;	COMDAT ??D?$CEncrypt@M@@QAEMABK@Z
_TEXT	SEGMENT
_value$ = -4						; size = 4
tv128 = 8						; size = 4
tv74 = 8						; size = 4
_inValue$ = 8						; size = 4
??D?$CEncrypt@M@@QAEMABK@Z PROC				; CEncrypt<float>::operator*, COMDAT
; _this$ = ecx

; 1295 : 	{

  00000	55		 push	 ebp
  00001	8b ec		 mov	 ebp, esp
  00003	51		 push	 ecx

; 1296 : 		type value;
; 1297 : 		DecryptValueToPool(&value);

  00004	8d 45 fc	 lea	 eax, DWORD PTR _value$[ebp]
  00007	50		 push	 eax
  00008	e8 00 00 00 00	 call	 ?DecryptValueToPool@?$CEncrypt@M@@QAEXPAM@Z ; CEncrypt<float>::DecryptValueToPool

; 1298 : #ifdef _NOTUSE
; 1299 : 		Debug();
; 1300 : #endif
; 1301 : 		return value * inValue;

  0000d	8b 45 08	 mov	 eax, DWORD PTR _inValue$[ebp]
  00010	8b 00		 mov	 eax, DWORD PTR [eax]
  00012	89 45 08	 mov	 DWORD PTR tv128[ebp], eax
  00015	db 45 08	 fild	 DWORD PTR tv128[ebp]
  00018	85 c0		 test	 eax, eax
  0001a	79 06		 jns	 SHORT $LN3@operator
  0001c	d8 05 00 00 00
	00		 fadd	 DWORD PTR __real@4f800000
$LN3@operator:
  00022	d8 4d fc	 fmul	 DWORD PTR _value$[ebp]
  00025	d9 5d 08	 fstp	 DWORD PTR tv74[ebp]
  00028	d9 45 08	 fld	 DWORD PTR tv74[ebp]

; 1302 : 	}

  0002b	c9		 leave
  0002c	c2 04 00	 ret	 4
??D?$CEncrypt@M@@QAEMABK@Z ENDP				; CEncrypt<float>::operator*
_TEXT	ENDS
PUBLIC	??D?$CEncrypt@M@@QAEMABM@Z			; CEncrypt<float>::operator*
; Function compile flags: /Ogsp
;	COMDAT ??D?$CEncrypt@M@@QAEMABM@Z
_TEXT	SEGMENT
_value$ = -4						; size = 4
tv130 = 8						; size = 4
_inValue$ = 8						; size = 4
??D?$CEncrypt@M@@QAEMABM@Z PROC				; CEncrypt<float>::operator*, COMDAT
; _this$ = ecx

; 1685 : 	{	

  00000	55		 push	 ebp
  00001	8b ec		 mov	 ebp, esp
  00003	51		 push	 ecx

; 1686 : 		type value;
; 1687 : 		DecryptValueToPool(&value);

  00004	8d 45 fc	 lea	 eax, DWORD PTR _value$[ebp]
  00007	50		 push	 eax
  00008	e8 00 00 00 00	 call	 ?DecryptValueToPool@?$CEncrypt@M@@QAEXPAM@Z ; CEncrypt<float>::DecryptValueToPool

; 1688 : #ifdef _NOTUSE
; 1689 : 		Debug();
; 1690 : #endif
; 1691 : 		return value * inValue;

  0000d	8b 45 08	 mov	 eax, DWORD PTR _inValue$[ebp]
  00010	d9 00		 fld	 DWORD PTR [eax]
  00012	d8 4d fc	 fmul	 DWORD PTR _value$[ebp]
  00015	d9 5d 08	 fstp	 DWORD PTR tv130[ebp]
  00018	d9 45 08	 fld	 DWORD PTR tv130[ebp]

; 1692 : 	}

  0001b	c9		 leave
  0001c	c2 04 00	 ret	 4
??D?$CEncrypt@M@@QAEMABM@Z ENDP				; CEncrypt<float>::operator*
_TEXT	ENDS
PUBLIC	??D?$_Vector_iterator@V?$_Vector_val@HV?$allocator@H@std@@@std@@@std@@QBEAAHXZ ; std::_Vector_iterator<std::_Vector_val<int,std::allocator<int> > >::operator*
; Function compile flags: /Ogsp
; File c:\program files (x86)\microsoft visual studio 10.0\vc\include\vector
;	COMDAT ??D?$_Vector_iterator@V?$_Vector_val@HV?$allocator@H@std@@@std@@@std@@QBEAAHXZ
_TEXT	SEGMENT
??D?$_Vector_iterator@V?$_Vector_val@HV?$allocator@H@std@@@std@@@std@@QBEAAHXZ PROC ; std::_Vector_iterator<std::_Vector_val<int,std::allocator<int> > >::operator*, COMDAT
; _this$ = ecx

; 322  : 		return ((reference)**(_Mybase *)this);

  00000	8b 01		 mov	 eax, DWORD PTR [ecx]

; 323  : 		}

  00002	c3		 ret	 0
??D?$_Vector_iterator@V?$_Vector_val@HV?$allocator@H@std@@@std@@@std@@QBEAAHXZ ENDP ; std::_Vector_iterator<std::_Vector_val<int,std::allocator<int> > >::operator*
_TEXT	ENDS
PUBLIC	??0?$_Vector_iterator@V?$_Vector_val@PBUAniEventTime@@V?$allocator@PBUAniEventTime@@@std@@@std@@@std@@QAE@XZ ; std::_Vector_iterator<std::_Vector_val<AniEventTime const *,std::allocator<AniEventTime const *> > >::_Vector_iterator<std::_Vector_val<AniEventTime const *,std::allocator<AniEventTime const *> > >
; Function compile flags: /Ogsp
;	COMDAT ??0?$_Vector_iterator@V?$_Vector_val@PBUAniEventTime@@V?$allocator@PBUAniEventTime@@@std@@@std@@@std@@QAE@XZ
_TEXT	SEGMENT
??0?$_Vector_iterator@V?$_Vector_val@PBUAniEventTime@@V?$allocator@PBUAniEventTime@@@std@@@std@@@std@@QAE@XZ PROC ; std::_Vector_iterator<std::_Vector_val<AniEventTime const *,std::allocator<AniEventTime const *> > >::_Vector_iterator<std::_Vector_val<AniEventTime const *,std::allocator<AniEventTime const *> > >, COMDAT
; _this$ = ecx

; 298  : 	_Vector_iterator()

  00000	8b c1		 mov	 eax, ecx
  00002	83 20 00	 and	 DWORD PTR [eax], 0

; 299  : 		{	// construct with null vector pointer
; 300  : 		}

  00005	c3		 ret	 0
??0?$_Vector_iterator@V?$_Vector_val@PBUAniEventTime@@V?$allocator@PBUAniEventTime@@@std@@@std@@@std@@QAE@XZ ENDP ; std::_Vector_iterator<std::_Vector_val<AniEventTime const *,std::allocator<AniEventTime const *> > >::_Vector_iterator<std::_Vector_val<AniEventTime const *,std::allocator<AniEventTime const *> > >
_TEXT	ENDS
PUBLIC	??D?$_Vector_iterator@V?$_Vector_val@PBUAniEventTime@@V?$allocator@PBUAniEventTime@@@std@@@std@@@std@@QBEAAPBUAniEventTime@@XZ ; std::_Vector_iterator<std::_Vector_val<AniEventTime const *,std::allocator<AniEventTime const *> > >::operator*
; Function compile flags: /Ogsp
;	COMDAT ??D?$_Vector_iterator@V?$_Vector_val@PBUAniEventTime@@V?$allocator@PBUAniEventTime@@@std@@@std@@@std@@QBEAAPBUAniEventTime@@XZ
_TEXT	SEGMENT
??D?$_Vector_iterator@V?$_Vector_val@PBUAniEventTime@@V?$allocator@PBUAniEventTime@@@std@@@std@@@std@@QBEAAPBUAniEventTime@@XZ PROC ; std::_Vector_iterator<std::_Vector_val<AniEventTime const *,std::allocator<AniEventTime const *> > >::operator*, COMDAT
; _this$ = ecx

; 322  : 		return ((reference)**(_Mybase *)this);

  00000	8b 01		 mov	 eax, DWORD PTR [ecx]

; 323  : 		}

  00002	c3		 ret	 0
??D?$_Vector_iterator@V?$_Vector_val@PBUAniEventTime@@V?$allocator@PBUAniEventTime@@@std@@@std@@@std@@QBEAAPBUAniEventTime@@XZ ENDP ; std::_Vector_iterator<std::_Vector_val<AniEventTime const *,std::allocator<AniEventTime const *> > >::operator*
_TEXT	ENDS
PUBLIC	??E?$_Vector_iterator@V?$_Vector_val@PBUAniEventTime@@V?$allocator@PBUAniEventTime@@@std@@@std@@@std@@QAEAAV01@XZ ; std::_Vector_iterator<std::_Vector_val<AniEventTime const *,std::allocator<AniEventTime const *> > >::operator++
; Function compile flags: /Ogsp
;	COMDAT ??E?$_Vector_iterator@V?$_Vector_val@PBUAniEventTime@@V?$allocator@PBUAniEventTime@@@std@@@std@@@std@@QAEAAV01@XZ
_TEXT	SEGMENT
??E?$_Vector_iterator@V?$_Vector_val@PBUAniEventTime@@V?$allocator@PBUAniEventTime@@@std@@@std@@@std@@QAEAAV01@XZ PROC ; std::_Vector_iterator<std::_Vector_val<AniEventTime const *,std::allocator<AniEventTime const *> > >::operator++, COMDAT
; _this$ = ecx

; 331  : 		{	// preincrement

  00000	8b c1		 mov	 eax, ecx

; 332  : 		++*(_Mybase *)this;

  00002	83 00 04	 add	 DWORD PTR [eax], 4

; 333  : 		return (*this);
; 334  : 		}

  00005	c3		 ret	 0
??E?$_Vector_iterator@V?$_Vector_val@PBUAniEventTime@@V?$allocator@PBUAniEventTime@@@std@@@std@@@std@@QAEAAV01@XZ ENDP ; std::_Vector_iterator<std::_Vector_val<AniEventTime const *,std::allocator<AniEventTime const *> > >::operator++
_TEXT	ENDS
PUBLIC	??E?$_List_iterator@V?$_List_val@MV?$allocator@M@std@@@std@@@std@@QAEAAV01@XZ ; std::_List_iterator<std::_List_val<float,std::allocator<float> > >::operator++
; Function compile flags: /Ogsp
; File c:\program files (x86)\microsoft visual studio 10.0\vc\include\list
;	COMDAT ??E?$_List_iterator@V?$_List_val@MV?$allocator@M@std@@@std@@@std@@QAEAAV01@XZ
_TEXT	SEGMENT
??E?$_List_iterator@V?$_List_val@MV?$allocator@M@std@@@std@@@std@@QAEAAV01@XZ PROC ; std::_List_iterator<std::_List_val<float,std::allocator<float> > >::operator++, COMDAT
; _this$ = ecx

; 369  : 		{	// preincrement

  00000	8b c1		 mov	 eax, ecx

; 370  : 		++(*(_Mybase *)this);

  00002	8b 08		 mov	 ecx, DWORD PTR [eax]
  00004	8b 09		 mov	 ecx, DWORD PTR [ecx]
  00006	89 08		 mov	 DWORD PTR [eax], ecx

; 371  : 		return (*this);
; 372  : 		}

  00008	c3		 ret	 0
??E?$_List_iterator@V?$_List_val@MV?$allocator@M@std@@@std@@@std@@QAEAAV01@XZ ENDP ; std::_List_iterator<std::_List_val<float,std::allocator<float> > >::operator++
_TEXT	ENDS
PUBLIC	??9?$_List_const_iterator@V?$_List_val@MV?$allocator@M@std@@@std@@@std@@QBE_NABV01@@Z ; std::_List_const_iterator<std::_List_val<float,std::allocator<float> > >::operator!=
; Function compile flags: /Ogsp
;	COMDAT ??9?$_List_const_iterator@V?$_List_val@MV?$allocator@M@std@@@std@@@std@@QBE_NABV01@@Z
_TEXT	SEGMENT
__Right$ = 8						; size = 4
??9?$_List_const_iterator@V?$_List_val@MV?$allocator@M@std@@@std@@@std@@QBE_NABV01@@Z PROC ; std::_List_const_iterator<std::_List_val<float,std::allocator<float> > >::operator!=, COMDAT
; _this$ = ecx

; 299  : 		{	// test for iterator inequality

  00000	55		 push	 ebp
  00001	8b ec		 mov	 ebp, esp

; 300  : 		return (!(*this == _Right));

  00003	8b 01		 mov	 eax, DWORD PTR [ecx]
  00005	8b 55 08	 mov	 edx, DWORD PTR __Right$[ebp]
  00008	33 c9		 xor	 ecx, ecx
  0000a	3b 02		 cmp	 eax, DWORD PTR [edx]
  0000c	0f 95 c0	 setne	 al

; 301  : 		}

  0000f	5d		 pop	 ebp
  00010	c2 04 00	 ret	 4
??9?$_List_const_iterator@V?$_List_val@MV?$allocator@M@std@@@std@@@std@@QBE_NABV01@@Z ENDP ; std::_List_const_iterator<std::_List_val<float,std::allocator<float> > >::operator!=
_TEXT	ENDS
PUBLIC	??E?$_List_iterator@V?$_List_val@UFireTime@@V?$allocator@UFireTime@@@std@@@std@@@std@@QAEAAV01@XZ ; std::_List_iterator<std::_List_val<FireTime,std::allocator<FireTime> > >::operator++
; Function compile flags: /Ogsp
;	COMDAT ??E?$_List_iterator@V?$_List_val@UFireTime@@V?$allocator@UFireTime@@@std@@@std@@@std@@QAEAAV01@XZ
_TEXT	SEGMENT
??E?$_List_iterator@V?$_List_val@UFireTime@@V?$allocator@UFireTime@@@std@@@std@@@std@@QAEAAV01@XZ PROC ; std::_List_iterator<std::_List_val<FireTime,std::allocator<FireTime> > >::operator++, COMDAT
; _this$ = ecx

; 369  : 		{	// preincrement

  00000	8b c1		 mov	 eax, ecx

; 370  : 		++(*(_Mybase *)this);

  00002	8b 08		 mov	 ecx, DWORD PTR [eax]
  00004	8b 09		 mov	 ecx, DWORD PTR [ecx]
  00006	89 08		 mov	 DWORD PTR [eax], ecx

; 371  : 		return (*this);
; 372  : 		}

  00008	c3		 ret	 0
??E?$_List_iterator@V?$_List_val@UFireTime@@V?$allocator@UFireTime@@@std@@@std@@@std@@QAEAAV01@XZ ENDP ; std::_List_iterator<std::_List_val<FireTime,std::allocator<FireTime> > >::operator++
_TEXT	ENDS
PUBLIC	??9?$_List_const_iterator@V?$_List_val@UFireTime@@V?$allocator@UFireTime@@@std@@@std@@@std@@QBE_NABV01@@Z ; std::_List_const_iterator<std::_List_val<FireTime,std::allocator<FireTime> > >::operator!=
; Function compile flags: /Ogsp
;	COMDAT ??9?$_List_const_iterator@V?$_List_val@UFireTime@@V?$allocator@UFireTime@@@std@@@std@@@std@@QBE_NABV01@@Z
_TEXT	SEGMENT
__Right$ = 8						; size = 4
??9?$_List_const_iterator@V?$_List_val@UFireTime@@V?$allocator@UFireTime@@@std@@@std@@@std@@QBE_NABV01@@Z PROC ; std::_List_const_iterator<std::_List_val<FireTime,std::allocator<FireTime> > >::operator!=, COMDAT
; _this$ = ecx

; 299  : 		{	// test for iterator inequality

  00000	55		 push	 ebp
  00001	8b ec		 mov	 ebp, esp

; 300  : 		return (!(*this == _Right));

  00003	8b 01		 mov	 eax, DWORD PTR [ecx]
  00005	8b 55 08	 mov	 edx, DWORD PTR __Right$[ebp]
  00008	33 c9		 xor	 ecx, ecx
  0000a	3b 02		 cmp	 eax, DWORD PTR [edx]
  0000c	0f 95 c0	 setne	 al

; 301  : 		}

  0000f	5d		 pop	 ebp
  00010	c2 04 00	 ret	 4
??9?$_List_const_iterator@V?$_List_val@UFireTime@@V?$allocator@UFireTime@@@std@@@std@@@std@@QBE_NABV01@@Z ENDP ; std::_List_const_iterator<std::_List_val<FireTime,std::allocator<FireTime> > >::operator!=
_TEXT	ENDS
PUBLIC	?_Key@?$_Tree_val@V?$_Tmap_traits@HUtagDummyAttackInfo@@U?$less@H@std@@V?$allocator@U?$pair@$$CBHUtagDummyAttackInfo@@@std@@@3@$0A@@std@@@std@@SAAAHPAU_Node@?$_Tree_nod@V?$_Tmap_traits@HUtagDummyAttackInfo@@U?$less@H@std@@V?$allocator@U?$pair@$$CBHUtagDummyAttackInfo@@@std@@@3@$0A@@std@@@2@@Z ; std::_Tree_val<std::_Tmap_traits<int,tagDummyAttackInfo,std::less<int>,std::allocator<std::pair<int const ,tagDummyAttackInfo> >,0> >::_Key
; Function compile flags: /Ogsp
; File c:\program files (x86)\microsoft visual studio 10.0\vc\include\xtree
;	COMDAT ?_Key@?$_Tree_val@V?$_Tmap_traits@HUtagDummyAttackInfo@@U?$less@H@std@@V?$allocator@U?$pair@$$CBHUtagDummyAttackInfo@@@std@@@3@$0A@@std@@@std@@SAAAHPAU_Node@?$_Tree_nod@V?$_Tmap_traits@HUtagDummyAttackInfo@@U?$less@H@std@@V?$allocator@U?$pair@$$CBHUtagDummyAttackInfo@@@std@@@3@$0A@@std@@@2@@Z
_TEXT	SEGMENT
__Pnode$ = 8						; size = 4
?_Key@?$_Tree_val@V?$_Tmap_traits@HUtagDummyAttackInfo@@U?$less@H@std@@V?$allocator@U?$pair@$$CBHUtagDummyAttackInfo@@@std@@@3@$0A@@std@@@std@@SAAAHPAU_Node@?$_Tree_nod@V?$_Tmap_traits@HUtagDummyAttackInfo@@U?$less@H@std@@V?$allocator@U?$pair@$$CBHUtagDummyAttackInfo@@@std@@@3@$0A@@std@@@2@@Z PROC ; std::_Tree_val<std::_Tmap_traits<int,tagDummyAttackInfo,std::less<int>,std::allocator<std::pair<int const ,tagDummyAttackInfo> >,0> >::_Key, COMDAT

; 616  : 		{	// return reference to key in node

  00000	55		 push	 ebp
  00001	8b ec		 mov	 ebp, esp

; 617  : 		return ((key_type&)_Traits::_Kfn(_Myval(_Pnode)));

  00003	8b 45 08	 mov	 eax, DWORD PTR __Pnode$[ebp]
  00006	83 c0 0c	 add	 eax, 12			; 0000000cH

; 618  : 		}

  00009	5d		 pop	 ebp
  0000a	c3		 ret	 0
?_Key@?$_Tree_val@V?$_Tmap_traits@HUtagDummyAttackInfo@@U?$less@H@std@@V?$allocator@U?$pair@$$CBHUtagDummyAttackInfo@@@std@@@3@$0A@@std@@@std@@SAAAHPAU_Node@?$_Tree_nod@V?$_Tmap_traits@HUtagDummyAttackInfo@@U?$less@H@std@@V?$allocator@U?$pair@$$CBHUtagDummyAttackInfo@@@std@@@3@$0A@@std@@@2@@Z ENDP ; std::_Tree_val<std::_Tmap_traits<int,tagDummyAttackInfo,std::less<int>,std::allocator<std::pair<int const ,tagDummyAttackInfo> >,0> >::_Key
_TEXT	ENDS
PUBLIC	??1?$_List_val@MV?$allocator@M@std@@@std@@QAE@XZ ; std::_List_val<float,std::allocator<float> >::~_List_val<float,std::allocator<float> >
; Function compile flags: /Ogsp
; File c:\program files (x86)\microsoft visual studio 10.0\vc\include\list
;	COMDAT ??1?$_List_val@MV?$allocator@M@std@@@std@@QAE@XZ
_TEXT	SEGMENT
??1?$_List_val@MV?$allocator@M@std@@@std@@QAE@XZ PROC	; std::_List_val<float,std::allocator<float> >::~_List_val<float,std::allocator<float> >, COMDAT
; _this$ = ecx

; 502  : 		this->_Alnod.deallocate(this->_Myhead, 1);

  00000	ff 31		 push	 DWORD PTR [ecx]
  00002	e8 00 00 00 00	 call	 ??3@YAXPAX@Z		; operator delete
  00007	59		 pop	 ecx

; 503  : 		}

  00008	c3		 ret	 0
??1?$_List_val@MV?$allocator@M@std@@@std@@QAE@XZ ENDP	; std::_List_val<float,std::allocator<float> >::~_List_val<float,std::allocator<float> >
_TEXT	ENDS
PUBLIC	??D?$_Tree_iterator@V?$_Tree_val@V?$_Tmap_traits@HUtagDummyAttackInfo@@U?$less@H@std@@V?$allocator@U?$pair@$$CBHUtagDummyAttackInfo@@@std@@@3@$0A@@std@@@std@@@std@@QBEAAU?$pair@$$CBHUtagDummyAttackInfo@@@1@XZ ; std::_Tree_iterator<std::_Tree_val<std::_Tmap_traits<int,tagDummyAttackInfo,std::less<int>,std::allocator<std::pair<int const ,tagDummyAttackInfo> >,0> > >::operator*
; Function compile flags: /Ogsp
; File c:\program files (x86)\microsoft visual studio 10.0\vc\include\xtree
;	COMDAT ??D?$_Tree_iterator@V?$_Tree_val@V?$_Tmap_traits@HUtagDummyAttackInfo@@U?$less@H@std@@V?$allocator@U?$pair@$$CBHUtagDummyAttackInfo@@@std@@@3@$0A@@std@@@std@@@std@@QBEAAU?$pair@$$CBHUtagDummyAttackInfo@@@1@XZ
_TEXT	SEGMENT
??D?$_Tree_iterator@V?$_Tree_val@V?$_Tmap_traits@HUtagDummyAttackInfo@@U?$less@H@std@@V?$allocator@U?$pair@$$CBHUtagDummyAttackInfo@@@std@@@3@$0A@@std@@@std@@@std@@QBEAAU?$pair@$$CBHUtagDummyAttackInfo@@@1@XZ PROC ; std::_Tree_iterator<std::_Tree_val<std::_Tmap_traits<int,tagDummyAttackInfo,std::less<int>,std::allocator<std::pair<int const ,tagDummyAttackInfo> >,0> > >::operator*, COMDAT
; _this$ = ecx

; 396  : 		return ((reference)**(_Mybase *)this);

  00000	8b 01		 mov	 eax, DWORD PTR [ecx]
  00002	83 c0 0c	 add	 eax, 12			; 0000000cH

; 397  : 		}

  00005	c3		 ret	 0
??D?$_Tree_iterator@V?$_Tree_val@V?$_Tmap_traits@HUtagDummyAttackInfo@@U?$less@H@std@@V?$allocator@U?$pair@$$CBHUtagDummyAttackInfo@@@std@@@3@$0A@@std@@@std@@@std@@QBEAAU?$pair@$$CBHUtagDummyAttackInfo@@@1@XZ ENDP ; std::_Tree_iterator<std::_Tree_val<std::_Tmap_traits<int,tagDummyAttackInfo,std::less<int>,std::allocator<std::pair<int const ,tagDummyAttackInfo> >,0> > >::operator*
_TEXT	ENDS
PUBLIC	??0?$_Vector_val@PBUAniEventTime@@V?$allocator@PBUAniEventTime@@@std@@@std@@QAE@V?$allocator@PBUAniEventTime@@@1@@Z ; std::_Vector_val<AniEventTime const *,std::allocator<AniEventTime const *> >::_Vector_val<AniEventTime const *,std::allocator<AniEventTime const *> >
; Function compile flags: /Ogsp
; File c:\program files (x86)\microsoft visual studio 10.0\vc\include\vector
;	COMDAT ??0?$_Vector_val@PBUAniEventTime@@V?$allocator@PBUAniEventTime@@@std@@@std@@QAE@V?$allocator@PBUAniEventTime@@@1@@Z
_TEXT	SEGMENT
__Al$ = 8						; size = 1
??0?$_Vector_val@PBUAniEventTime@@V?$allocator@PBUAniEventTime@@@std@@@std@@QAE@V?$allocator@PBUAniEventTime@@@1@@Z PROC ; std::_Vector_val<AniEventTime const *,std::allocator<AniEventTime const *> >::_Vector_val<AniEventTime const *,std::allocator<AniEventTime const *> >, COMDAT
; _this$ = ecx

; 426  : 		{	// construct allocator from _Al

  00000	8b c1		 mov	 eax, ecx

; 427  : 		_Myfirst = 0;

  00002	33 c9		 xor	 ecx, ecx
  00004	89 08		 mov	 DWORD PTR [eax], ecx

; 428  : 		_Mylast = 0;

  00006	89 48 04	 mov	 DWORD PTR [eax+4], ecx

; 429  : 		_Myend = 0;

  00009	89 48 08	 mov	 DWORD PTR [eax+8], ecx

; 430  : 		}

  0000c	c2 04 00	 ret	 4
??0?$_Vector_val@PBUAniEventTime@@V?$allocator@PBUAniEventTime@@@std@@@std@@QAE@V?$allocator@PBUAniEventTime@@@1@@Z ENDP ; std::_Vector_val<AniEventTime const *,std::allocator<AniEventTime const *> >::_Vector_val<AniEventTime const *,std::allocator<AniEventTime const *> >
_TEXT	ENDS
PUBLIC	??0?$_Vector_iterator@V?$_Vector_val@PBUAniEventTime@@V?$allocator@PBUAniEventTime@@@std@@@std@@@std@@QAE@PAPBUAniEventTime@@PBU_Container_base0@1@@Z ; std::_Vector_iterator<std::_Vector_val<AniEventTime const *,std::allocator<AniEventTime const *> > >::_Vector_iterator<std::_Vector_val<AniEventTime const *,std::allocator<AniEventTime const *> > >
; Function compile flags: /Ogsp
;	COMDAT ??0?$_Vector_iterator@V?$_Vector_val@PBUAniEventTime@@V?$allocator@PBUAniEventTime@@@std@@@std@@@std@@QAE@PAPBUAniEventTime@@PBU_Container_base0@1@@Z
_TEXT	SEGMENT
__Parg$ = 8						; size = 4
__Pvector$ = 12						; size = 4
??0?$_Vector_iterator@V?$_Vector_val@PBUAniEventTime@@V?$allocator@PBUAniEventTime@@@std@@@std@@@std@@QAE@PAPBUAniEventTime@@PBU_Container_base0@1@@Z PROC ; std::_Vector_iterator<std::_Vector_val<AniEventTime const *,std::allocator<AniEventTime const *> > >::_Vector_iterator<std::_Vector_val<AniEventTime const *,std::allocator<AniEventTime const *> > >, COMDAT
; _this$ = ecx

; 304  : 		{	// construct with pointer _Parg

  00000	55		 push	 ebp
  00001	8b ec		 mov	 ebp, esp
  00003	8b c1		 mov	 eax, ecx
  00005	8b 4d 08	 mov	 ecx, DWORD PTR __Parg$[ebp]
  00008	89 08		 mov	 DWORD PTR [eax], ecx

; 305  : 		}

  0000a	5d		 pop	 ebp
  0000b	c2 08 00	 ret	 8
??0?$_Vector_iterator@V?$_Vector_val@PBUAniEventTime@@V?$allocator@PBUAniEventTime@@@std@@@std@@@std@@QAE@PAPBUAniEventTime@@PBU_Container_base0@1@@Z ENDP ; std::_Vector_iterator<std::_Vector_val<AniEventTime const *,std::allocator<AniEventTime const *> > >::_Vector_iterator<std::_Vector_val<AniEventTime const *,std::allocator<AniEventTime const *> > >
_TEXT	ENDS
PUBLIC	??8?$_Vector_const_iterator@V?$_Vector_val@PBUAniEventTime@@V?$allocator@PBUAniEventTime@@@std@@@std@@@std@@QBE_NABV01@@Z ; std::_Vector_const_iterator<std::_Vector_val<AniEventTime const *,std::allocator<AniEventTime const *> > >::operator==
; Function compile flags: /Ogsp
;	COMDAT ??8?$_Vector_const_iterator@V?$_Vector_val@PBUAniEventTime@@V?$allocator@PBUAniEventTime@@@std@@@std@@@std@@QBE_NABV01@@Z
_TEXT	SEGMENT
__Right$ = 8						; size = 4
??8?$_Vector_const_iterator@V?$_Vector_val@PBUAniEventTime@@V?$allocator@PBUAniEventTime@@@std@@@std@@@std@@QBE_NABV01@@Z PROC ; std::_Vector_const_iterator<std::_Vector_val<AniEventTime const *,std::allocator<AniEventTime const *> > >::operator==, COMDAT
; _this$ = ecx

; 201  : 		{	// test for iterator equality

  00000	55		 push	 ebp
  00001	8b ec		 mov	 ebp, esp

; 202  : 		_Compat(_Right);
; 203  : 		return (this->_Ptr == _Right._Ptr);

  00003	8b 01		 mov	 eax, DWORD PTR [ecx]
  00005	8b 4d 08	 mov	 ecx, DWORD PTR __Right$[ebp]
  00008	2b 01		 sub	 eax, DWORD PTR [ecx]
  0000a	f7 d8		 neg	 eax
  0000c	1b c0		 sbb	 eax, eax
  0000e	40		 inc	 eax

; 204  : 		}

  0000f	5d		 pop	 ebp
  00010	c2 04 00	 ret	 4
??8?$_Vector_const_iterator@V?$_Vector_val@PBUAniEventTime@@V?$allocator@PBUAniEventTime@@@std@@@std@@@std@@QBE_NABV01@@Z ENDP ; std::_Vector_const_iterator<std::_Vector_val<AniEventTime const *,std::allocator<AniEventTime const *> > >::operator==
_TEXT	ENDS
PUBLIC	??D?$_List_const_iterator@V?$_List_val@MV?$allocator@M@std@@@std@@@std@@QBEABMXZ ; std::_List_const_iterator<std::_List_val<float,std::allocator<float> > >::operator*
; Function compile flags: /Ogsp
; File c:\program files (x86)\microsoft visual studio 10.0\vc\include\list
;	COMDAT ??D?$_List_const_iterator@V?$_List_val@MV?$allocator@M@std@@@std@@@std@@QBEABMXZ
_TEXT	SEGMENT
??D?$_List_const_iterator@V?$_List_val@MV?$allocator@M@std@@@std@@@std@@QBEABMXZ PROC ; std::_List_const_iterator<std::_List_val<float,std::allocator<float> > >::operator*, COMDAT
; _this$ = ecx

; 202  :  #if _ITERATOR_DEBUG_LEVEL == 2
; 203  : 		if (this->_Getcont() == 0
; 204  : 			|| this->_Ptr == 0
; 205  : 			|| this->_Ptr == ((_Mylist *)this->_Getcont())->_Myhead)
; 206  : 			{	// report error
; 207  : 			_DEBUG_ERROR("list iterator not dereferencable");
; 208  : 			_SCL_SECURE_OUT_OF_RANGE;
; 209  : 			}
; 210  : 
; 211  :  #elif _ITERATOR_DEBUG_LEVEL == 1
; 212  : 		_SCL_SECURE_VALIDATE(this->_Getcont() != 0 && this->_Ptr != 0);
; 213  : 		_SCL_SECURE_VALIDATE_RANGE(this->_Ptr !=
; 214  : 			((_Mylist *)this->_Getcont())->_Myhead);
; 215  :  #endif /* _ITERATOR_DEBUG_LEVEL */
; 216  : 
; 217  : 		return (_Mylist::_Myval(this->_Ptr));

  00000	8b 01		 mov	 eax, DWORD PTR [ecx]
  00002	83 c0 08	 add	 eax, 8

; 218  : 		}

  00005	c3		 ret	 0
??D?$_List_const_iterator@V?$_List_val@MV?$allocator@M@std@@@std@@@std@@QBEABMXZ ENDP ; std::_List_const_iterator<std::_List_val<float,std::allocator<float> > >::operator*
_TEXT	ENDS
PUBLIC	??D?$_List_const_iterator@V?$_List_val@UFireTime@@V?$allocator@UFireTime@@@std@@@std@@@std@@QBEABUFireTime@@XZ ; std::_List_const_iterator<std::_List_val<FireTime,std::allocator<FireTime> > >::operator*
; Function compile flags: /Ogsp
;	COMDAT ??D?$_List_const_iterator@V?$_List_val@UFireTime@@V?$allocator@UFireTime@@@std@@@std@@@std@@QBEABUFireTime@@XZ
_TEXT	SEGMENT
??D?$_List_const_iterator@V?$_List_val@UFireTime@@V?$allocator@UFireTime@@@std@@@std@@@std@@QBEABUFireTime@@XZ PROC ; std::_List_const_iterator<std::_List_val<FireTime,std::allocator<FireTime> > >::operator*, COMDAT
; _this$ = ecx

; 202  :  #if _ITERATOR_DEBUG_LEVEL == 2
; 203  : 		if (this->_Getcont() == 0
; 204  : 			|| this->_Ptr == 0
; 205  : 			|| this->_Ptr == ((_Mylist *)this->_Getcont())->_Myhead)
; 206  : 			{	// report error
; 207  : 			_DEBUG_ERROR("list iterator not dereferencable");
; 208  : 			_SCL_SECURE_OUT_OF_RANGE;
; 209  : 			}
; 210  : 
; 211  :  #elif _ITERATOR_DEBUG_LEVEL == 1
; 212  : 		_SCL_SECURE_VALIDATE(this->_Getcont() != 0 && this->_Ptr != 0);
; 213  : 		_SCL_SECURE_VALIDATE_RANGE(this->_Ptr !=
; 214  : 			((_Mylist *)this->_Getcont())->_Myhead);
; 215  :  #endif /* _ITERATOR_DEBUG_LEVEL */
; 216  : 
; 217  : 		return (_Mylist::_Myval(this->_Ptr));

  00000	8b 01		 mov	 eax, DWORD PTR [ecx]
  00002	83 c0 08	 add	 eax, 8

; 218  : 		}

  00005	c3		 ret	 0
??D?$_List_const_iterator@V?$_List_val@UFireTime@@V?$allocator@UFireTime@@@std@@@std@@@std@@QBEABUFireTime@@XZ ENDP ; std::_List_const_iterator<std::_List_val<FireTime,std::allocator<FireTime> > >::operator*
_TEXT	ENDS
PUBLIC	?max_size@?$vector@UExtraAniJump@@V?$allocator@UExtraAniJump@@@std@@@std@@QBEIXZ ; std::vector<ExtraAniJump,std::allocator<ExtraAniJump> >::max_size
; Function compile flags: /Ogsp
; File c:\program files (x86)\microsoft visual studio 10.0\vc\include\vector
;	COMDAT ?max_size@?$vector@UExtraAniJump@@V?$allocator@UExtraAniJump@@@std@@@std@@QBEIXZ
_TEXT	SEGMENT
?max_size@?$vector@UExtraAniJump@@V?$allocator@UExtraAniJump@@@std@@@std@@QBEIXZ PROC ; std::vector<ExtraAniJump,std::allocator<ExtraAniJump> >::max_size, COMDAT
; _this$ = ecx

; 884  : 		return (this->_Alval.max_size());

  00000	b8 ff ff ff 1f	 mov	 eax, 536870911		; 1fffffffH

; 885  : 		}

  00005	c3		 ret	 0
?max_size@?$vector@UExtraAniJump@@V?$allocator@UExtraAniJump@@@std@@@std@@QBEIXZ ENDP ; std::vector<ExtraAniJump,std::allocator<ExtraAniJump> >::max_size
_TEXT	ENDS
PUBLIC	?_Grow_to@?$vector@UExtraAniJump@@V?$allocator@UExtraAniJump@@@std@@@std@@IBEII@Z ; std::vector<ExtraAniJump,std::allocator<ExtraAniJump> >::_Grow_to
; Function compile flags: /Ogsp
;	COMDAT ?_Grow_to@?$vector@UExtraAniJump@@V?$allocator@UExtraAniJump@@@std@@@std@@IBEII@Z
_TEXT	SEGMENT
__Count$ = 8						; size = 4
?_Grow_to@?$vector@UExtraAniJump@@V?$allocator@UExtraAniJump@@@std@@@std@@IBEII@Z PROC ; std::vector<ExtraAniJump,std::allocator<ExtraAniJump> >::_Grow_to, COMDAT
; _this$ = ecx

; 1274 : 		{	// grow by 50% or at least to _Count

  00000	55		 push	 ebp
  00001	8b ec		 mov	 ebp, esp

; 1275 : 		size_type _Capacity = capacity();

  00003	8b 41 08	 mov	 eax, DWORD PTR [ecx+8]
  00006	2b 01		 sub	 eax, DWORD PTR [ecx]

; 1276 : 
; 1277 : 		_Capacity = max_size() - _Capacity / 2 < _Capacity
; 1278 : 			? 0 : _Capacity + _Capacity / 2;	// try to grow by 50%

  00008	ba ff ff ff 1f	 mov	 edx, 536870911		; 1fffffffH
  0000d	c1 f8 03	 sar	 eax, 3
  00010	8b c8		 mov	 ecx, eax
  00012	d1 e9		 shr	 ecx, 1
  00014	2b d1		 sub	 edx, ecx
  00016	3b d0		 cmp	 edx, eax
  00018	73 04		 jae	 SHORT $LN4@Grow_to
  0001a	33 c0		 xor	 eax, eax
  0001c	eb 02		 jmp	 SHORT $LN5@Grow_to
$LN4@Grow_to:
  0001e	03 c1		 add	 eax, ecx
$LN5@Grow_to:

; 1279 : 		if (_Capacity < _Count)

  00020	3b 45 08	 cmp	 eax, DWORD PTR __Count$[ebp]

; 1280 : 			_Capacity = _Count;

  00023	0f 42 45 08	 cmovb	 eax, DWORD PTR __Count$[ebp]

; 1281 : 		return (_Capacity);
; 1282 : 		}

  00027	5d		 pop	 ebp
  00028	c2 04 00	 ret	 4
?_Grow_to@?$vector@UExtraAniJump@@V?$allocator@UExtraAniJump@@@std@@@std@@IBEII@Z ENDP ; std::vector<ExtraAniJump,std::allocator<ExtraAniJump> >::_Grow_to
_TEXT	ENDS
PUBLIC	??0?$_List_nod@MV?$allocator@M@std@@@std@@QAE@V?$allocator@M@1@@Z ; std::_List_nod<float,std::allocator<float> >::_List_nod<float,std::allocator<float> >
; Function compile flags: /Ogsp
; File c:\program files (x86)\microsoft visual studio 10.0\vc\include\list
;	COMDAT ??0?$_List_nod@MV?$allocator@M@std@@@std@@QAE@V?$allocator@M@1@@Z
_TEXT	SEGMENT
__Al$ = 8						; size = 1
??0?$_List_nod@MV?$allocator@M@std@@@std@@QAE@V?$allocator@M@1@@Z PROC ; std::_List_nod<float,std::allocator<float> >::_List_nod<float,std::allocator<float> >, COMDAT
; _this$ = ecx

; 438  : 		{	// construct allocators from _Al

  00000	8b c1		 mov	 eax, ecx

; 439  : 		}

  00002	c2 04 00	 ret	 4
??0?$_List_nod@MV?$allocator@M@std@@@std@@QAE@V?$allocator@M@1@@Z ENDP ; std::_List_nod<float,std::allocator<float> >::_List_nod<float,std::allocator<float> >
_TEXT	ENDS
PUBLIC	?allocate@?$allocator@U_Node@?$_List_nod@MV?$allocator@M@std@@@std@@@std@@QAEPAU_Node@?$_List_nod@MV?$allocator@M@std@@@2@I@Z ; std::allocator<std::_List_nod<float,std::allocator<float> >::_Node>::allocate
; Function compile flags: /Ogsp
; File c:\program files (x86)\microsoft visual studio 10.0\vc\include\xmemory
;	COMDAT ?allocate@?$allocator@U_Node@?$_List_nod@MV?$allocator@M@std@@@std@@@std@@QAEPAU_Node@?$_List_nod@MV?$allocator@M@std@@@2@I@Z
_TEXT	SEGMENT
__Count$ = 8						; size = 4
?allocate@?$allocator@U_Node@?$_List_nod@MV?$allocator@M@std@@@std@@@std@@QAEPAU_Node@?$_List_nod@MV?$allocator@M@std@@@2@I@Z PROC ; std::allocator<std::_List_nod<float,std::allocator<float> >::_Node>::allocate, COMDAT
; _this$ = ecx

; 186  : 		{	// allocate array of _Count elements

  00000	55		 push	 ebp
  00001	8b ec		 mov	 ebp, esp

; 187  : 		return (_Allocate(_Count, (pointer)0));

  00003	6a 00		 push	 0
  00005	ff 75 08	 push	 DWORD PTR __Count$[ebp]
  00008	e8 00 00 00 00	 call	 ??$_Allocate@U_Node@?$_List_nod@MV?$allocator@M@std@@@std@@@std@@YAPAU_Node@?$_List_nod@MV?$allocator@M@std@@@0@IPAU120@@Z ; std::_Allocate<std::_List_nod<float,std::allocator<float> >::_Node>
  0000d	59		 pop	 ecx
  0000e	59		 pop	 ecx

; 188  : 		}

  0000f	5d		 pop	 ebp
  00010	c2 04 00	 ret	 4
?allocate@?$allocator@U_Node@?$_List_nod@MV?$allocator@M@std@@@std@@@std@@QAEPAU_Node@?$_List_nod@MV?$allocator@M@std@@@2@I@Z ENDP ; std::allocator<std::_List_nod<float,std::allocator<float> >::_Node>::allocate
_TEXT	ENDS
PUBLIC	??0?$_Tree_const_iterator@V?$_Tree_val@V?$_Tmap_traits@HUtagDummyAttackInfo@@U?$less@H@std@@V?$allocator@U?$pair@$$CBHUtagDummyAttackInfo@@@std@@@3@$0A@@std@@@std@@@std@@QAE@PAU_Node@?$_Tree_nod@V?$_Tmap_traits@HUtagDummyAttackInfo@@U?$less@H@std@@V?$allocator@U?$pair@$$CBHUtagDummyAttackInfo@@@std@@@3@$0A@@std@@@1@PBV?$_Tree_val@V?$_Tmap_traits@HUtagDummyAttackInfo@@U?$less@H@std@@V?$allocator@U?$pair@$$CBHUtagDummyAttackInfo@@@std@@@3@$0A@@std@@@1@@Z ; std::_Tree_const_iterator<std::_Tree_val<std::_Tmap_traits<int,tagDummyAttackInfo,std::less<int>,std::allocator<std::pair<int const ,tagDummyAttackInfo> >,0> > >::_Tree_const_iterator<std::_Tree_val<std::_Tmap_traits<int,tagDummyAttackInfo,std::less<int>,std::allocator<std::pair<int const ,tagDummyAttackInfo> >,0> > >
; Function compile flags: /Ogsp
; File c:\program files (x86)\microsoft visual studio 10.0\vc\include\xtree
;	COMDAT ??0?$_Tree_const_iterator@V?$_Tree_val@V?$_Tmap_traits@HUtagDummyAttackInfo@@U?$less@H@std@@V?$allocator@U?$pair@$$CBHUtagDummyAttackInfo@@@std@@@3@$0A@@std@@@std@@@std@@QAE@PAU_Node@?$_Tree_nod@V?$_Tmap_traits@HUtagDummyAttackInfo@@U?$less@H@std@@V?$allocator@U?$pair@$$CBHUtagDummyAttackInfo@@@std@@@3@$0A@@std@@@1@PBV?$_Tree_val@V?$_Tmap_traits@HUtagDummyAttackInfo@@U?$less@H@std@@V?$allocator@U?$pair@$$CBHUtagDummyAttackInfo@@@std@@@3@$0A@@std@@@1@@Z
_TEXT	SEGMENT
__Pnode$ = 8						; size = 4
__Plist$ = 12						; size = 4
??0?$_Tree_const_iterator@V?$_Tree_val@V?$_Tmap_traits@HUtagDummyAttackInfo@@U?$less@H@std@@V?$allocator@U?$pair@$$CBHUtagDummyAttackInfo@@@std@@@3@$0A@@std@@@std@@@std@@QAE@PAU_Node@?$_Tree_nod@V?$_Tmap_traits@HUtagDummyAttackInfo@@U?$less@H@std@@V?$allocator@U?$pair@$$CBHUtagDummyAttackInfo@@@std@@@3@$0A@@std@@@1@PBV?$_Tree_val@V?$_Tmap_traits@HUtagDummyAttackInfo@@U?$less@H@std@@V?$allocator@U?$pair@$$CBHUtagDummyAttackInfo@@@std@@@3@$0A@@std@@@1@@Z PROC ; std::_Tree_const_iterator<std::_Tree_val<std::_Tmap_traits<int,tagDummyAttackInfo,std::less<int>,std::allocator<std::pair<int const ,tagDummyAttackInfo> >,0> > >::_Tree_const_iterator<std::_Tree_val<std::_Tmap_traits<int,tagDummyAttackInfo,std::less<int>,std::allocator<std::pair<int const ,tagDummyAttackInfo> >,0> > >, COMDAT
; _this$ = ecx

; 213  : 		{	// construct with node pointer _Pnode

  00000	55		 push	 ebp
  00001	8b ec		 mov	 ebp, esp
  00003	8b c1		 mov	 eax, ecx
  00005	8b 4d 08	 mov	 ecx, DWORD PTR __Pnode$[ebp]
  00008	89 08		 mov	 DWORD PTR [eax], ecx

; 214  : 		}

  0000a	5d		 pop	 ebp
  0000b	c2 08 00	 ret	 8
??0?$_Tree_const_iterator@V?$_Tree_val@V?$_Tmap_traits@HUtagDummyAttackInfo@@U?$less@H@std@@V?$allocator@U?$pair@$$CBHUtagDummyAttackInfo@@@std@@@3@$0A@@std@@@std@@@std@@QAE@PAU_Node@?$_Tree_nod@V?$_Tmap_traits@HUtagDummyAttackInfo@@U?$less@H@std@@V?$allocator@U?$pair@$$CBHUtagDummyAttackInfo@@@std@@@3@$0A@@std@@@1@PBV?$_Tree_val@V?$_Tmap_traits@HUtagDummyAttackInfo@@U?$less@H@std@@V?$allocator@U?$pair@$$CBHUtagDummyAttackInfo@@@std@@@3@$0A@@std@@@1@@Z ENDP ; std::_Tree_const_iterator<std::_Tree_val<std::_Tmap_traits<int,tagDummyAttackInfo,std::less<int>,std::allocator<std::pair<int const ,tagDummyAttackInfo> >,0> > >::_Tree_const_iterator<std::_Tree_val<std::_Tmap_traits<int,tagDummyAttackInfo,std::less<int>,std::allocator<std::pair<int const ,tagDummyAttackInfo> >,0> > >
_TEXT	ENDS
PUBLIC	??0?$_List_const_iterator@V?$_List_val@MV?$allocator@M@std@@@std@@@std@@QAE@PAU_Node@?$_List_nod@MV?$allocator@M@std@@@1@PBV?$_List_val@MV?$allocator@M@std@@@1@@Z ; std::_List_const_iterator<std::_List_val<float,std::allocator<float> > >::_List_const_iterator<std::_List_val<float,std::allocator<float> > >
; Function compile flags: /Ogsp
; File c:\program files (x86)\microsoft visual studio 10.0\vc\include\list
;	COMDAT ??0?$_List_const_iterator@V?$_List_val@MV?$allocator@M@std@@@std@@@std@@QAE@PAU_Node@?$_List_nod@MV?$allocator@M@std@@@1@PBV?$_List_val@MV?$allocator@M@std@@@1@@Z
_TEXT	SEGMENT
__Pnode$ = 8						; size = 4
__Plist$ = 12						; size = 4
??0?$_List_const_iterator@V?$_List_val@MV?$allocator@M@std@@@std@@@std@@QAE@PAU_Node@?$_List_nod@MV?$allocator@M@std@@@1@PBV?$_List_val@MV?$allocator@M@std@@@1@@Z PROC ; std::_List_const_iterator<std::_List_val<float,std::allocator<float> > >::_List_const_iterator<std::_List_val<float,std::allocator<float> > >, COMDAT
; _this$ = ecx

; 184  : 		{	// construct with node pointer _Pnode

  00000	55		 push	 ebp
  00001	8b ec		 mov	 ebp, esp
  00003	8b c1		 mov	 eax, ecx
  00005	8b 4d 08	 mov	 ecx, DWORD PTR __Pnode$[ebp]
  00008	89 08		 mov	 DWORD PTR [eax], ecx

; 185  : 		}

  0000a	5d		 pop	 ebp
  0000b	c2 08 00	 ret	 8
??0?$_List_const_iterator@V?$_List_val@MV?$allocator@M@std@@@std@@@std@@QAE@PAU_Node@?$_List_nod@MV?$allocator@M@std@@@1@PBV?$_List_val@MV?$allocator@M@std@@@1@@Z ENDP ; std::_List_const_iterator<std::_List_val<float,std::allocator<float> > >::_List_const_iterator<std::_List_val<float,std::allocator<float> > >
_TEXT	ENDS
PUBLIC	??0?$_List_const_iterator@V?$_List_val@UFireTime@@V?$allocator@UFireTime@@@std@@@std@@@std@@QAE@PAU_Node@?$_List_nod@UFireTime@@V?$allocator@UFireTime@@@std@@@1@PBV?$_List_val@UFireTime@@V?$allocator@UFireTime@@@std@@@1@@Z ; std::_List_const_iterator<std::_List_val<FireTime,std::allocator<FireTime> > >::_List_const_iterator<std::_List_val<FireTime,std::allocator<FireTime> > >
; Function compile flags: /Ogsp
;	COMDAT ??0?$_List_const_iterator@V?$_List_val@UFireTime@@V?$allocator@UFireTime@@@std@@@std@@@std@@QAE@PAU_Node@?$_List_nod@UFireTime@@V?$allocator@UFireTime@@@std@@@1@PBV?$_List_val@UFireTime@@V?$allocator@UFireTime@@@std@@@1@@Z
_TEXT	SEGMENT
__Pnode$ = 8						; size = 4
__Plist$ = 12						; size = 4
??0?$_List_const_iterator@V?$_List_val@UFireTime@@V?$allocator@UFireTime@@@std@@@std@@@std@@QAE@PAU_Node@?$_List_nod@UFireTime@@V?$allocator@UFireTime@@@std@@@1@PBV?$_List_val@UFireTime@@V?$allocator@UFireTime@@@std@@@1@@Z PROC ; std::_List_const_iterator<std::_List_val<FireTime,std::allocator<FireTime> > >::_List_const_iterator<std::_List_val<FireTime,std::allocator<FireTime> > >, COMDAT
; _this$ = ecx

; 184  : 		{	// construct with node pointer _Pnode

  00000	55		 push	 ebp
  00001	8b ec		 mov	 ebp, esp
  00003	8b c1		 mov	 eax, ecx
  00005	8b 4d 08	 mov	 ecx, DWORD PTR __Pnode$[ebp]
  00008	89 08		 mov	 DWORD PTR [eax], ecx

; 185  : 		}

  0000a	5d		 pop	 ebp
  0000b	c2 08 00	 ret	 8
??0?$_List_const_iterator@V?$_List_val@UFireTime@@V?$allocator@UFireTime@@@std@@@std@@@std@@QAE@PAU_Node@?$_List_nod@UFireTime@@V?$allocator@UFireTime@@@std@@@1@PBV?$_List_val@UFireTime@@V?$allocator@UFireTime@@@std@@@1@@Z ENDP ; std::_List_const_iterator<std::_List_val<FireTime,std::allocator<FireTime> > >::_List_const_iterator<std::_List_val<FireTime,std::allocator<FireTime> > >
_TEXT	ENDS
PUBLIC	??0?$_Vector_iterator@V?$_Vector_val@UExtraAniJump@@V?$allocator@UExtraAniJump@@@std@@@std@@@std@@QAE@PAUExtraAniJump@@PBU_Container_base0@1@@Z ; std::_Vector_iterator<std::_Vector_val<ExtraAniJump,std::allocator<ExtraAniJump> > >::_Vector_iterator<std::_Vector_val<ExtraAniJump,std::allocator<ExtraAniJump> > >
; Function compile flags: /Ogsp
; File c:\program files (x86)\microsoft visual studio 10.0\vc\include\vector
;	COMDAT ??0?$_Vector_iterator@V?$_Vector_val@UExtraAniJump@@V?$allocator@UExtraAniJump@@@std@@@std@@@std@@QAE@PAUExtraAniJump@@PBU_Container_base0@1@@Z
_TEXT	SEGMENT
__Parg$ = 8						; size = 4
__Pvector$ = 12						; size = 4
??0?$_Vector_iterator@V?$_Vector_val@UExtraAniJump@@V?$allocator@UExtraAniJump@@@std@@@std@@@std@@QAE@PAUExtraAniJump@@PBU_Container_base0@1@@Z PROC ; std::_Vector_iterator<std::_Vector_val<ExtraAniJump,std::allocator<ExtraAniJump> > >::_Vector_iterator<std::_Vector_val<ExtraAniJump,std::allocator<ExtraAniJump> > >, COMDAT
; _this$ = ecx

; 304  : 		{	// construct with pointer _Parg

  00000	55		 push	 ebp
  00001	8b ec		 mov	 ebp, esp
  00003	8b c1		 mov	 eax, ecx
  00005	8b 4d 08	 mov	 ecx, DWORD PTR __Parg$[ebp]
  00008	89 08		 mov	 DWORD PTR [eax], ecx

; 305  : 		}

  0000a	5d		 pop	 ebp
  0000b	c2 08 00	 ret	 8
??0?$_Vector_iterator@V?$_Vector_val@UExtraAniJump@@V?$allocator@UExtraAniJump@@@std@@@std@@@std@@QAE@PAUExtraAniJump@@PBU_Container_base0@1@@Z ENDP ; std::_Vector_iterator<std::_Vector_val<ExtraAniJump,std::allocator<ExtraAniJump> > >::_Vector_iterator<std::_Vector_val<ExtraAniJump,std::allocator<ExtraAniJump> > >
_TEXT	ENDS
PUBLIC	?_Root@?$_Tree@V?$_Tmap_traits@HUtagDummyAttackInfo@@U?$less@H@std@@V?$allocator@U?$pair@$$CBHUtagDummyAttackInfo@@@std@@@3@$0A@@std@@@std@@IBEAAPAU_Node@?$_Tree_nod@V?$_Tmap_traits@HUtagDummyAttackInfo@@U?$less@H@std@@V?$allocator@U?$pair@$$CBHUtagDummyAttackInfo@@@std@@@3@$0A@@std@@@2@XZ ; std::_Tree<std::_Tmap_traits<int,tagDummyAttackInfo,std::less<int>,std::allocator<std::pair<int const ,tagDummyAttackInfo> >,0> >::_Root
; Function compile flags: /Ogsp
; File c:\program files (x86)\microsoft visual studio 10.0\vc\include\xtree
;	COMDAT ?_Root@?$_Tree@V?$_Tmap_traits@HUtagDummyAttackInfo@@U?$less@H@std@@V?$allocator@U?$pair@$$CBHUtagDummyAttackInfo@@@std@@@3@$0A@@std@@@std@@IBEAAPAU_Node@?$_Tree_nod@V?$_Tmap_traits@HUtagDummyAttackInfo@@U?$less@H@std@@V?$allocator@U?$pair@$$CBHUtagDummyAttackInfo@@@std@@@3@$0A@@std@@@2@XZ
_TEXT	SEGMENT
?_Root@?$_Tree@V?$_Tmap_traits@HUtagDummyAttackInfo@@U?$less@H@std@@V?$allocator@U?$pair@$$CBHUtagDummyAttackInfo@@@std@@@3@$0A@@std@@@std@@IBEAAPAU_Node@?$_Tree_nod@V?$_Tmap_traits@HUtagDummyAttackInfo@@U?$less@H@std@@V?$allocator@U?$pair@$$CBHUtagDummyAttackInfo@@@std@@@3@$0A@@std@@@2@XZ PROC ; std::_Tree<std::_Tmap_traits<int,tagDummyAttackInfo,std::less<int>,std::allocator<std::pair<int const ,tagDummyAttackInfo> >,0> >::_Root, COMDAT
; _this$ = ecx

; 1789 : 		return (this->_Parent(this->_Myhead));

  00000	8b 41 04	 mov	 eax, DWORD PTR [ecx+4]
  00003	83 c0 04	 add	 eax, 4

; 1790 : 		}

  00006	c3		 ret	 0
?_Root@?$_Tree@V?$_Tmap_traits@HUtagDummyAttackInfo@@U?$less@H@std@@V?$allocator@U?$pair@$$CBHUtagDummyAttackInfo@@@std@@@3@$0A@@std@@@std@@IBEAAPAU_Node@?$_Tree_nod@V?$_Tmap_traits@HUtagDummyAttackInfo@@U?$less@H@std@@V?$allocator@U?$pair@$$CBHUtagDummyAttackInfo@@@std@@@3@$0A@@std@@@2@XZ ENDP ; std::_Tree<std::_Tmap_traits<int,tagDummyAttackInfo,std::less<int>,std::allocator<std::pair<int const ,tagDummyAttackInfo> >,0> >::_Root
_TEXT	ENDS
PUBLIC	?max_size@?$list@UFireTime@@V?$allocator@UFireTime@@@std@@@std@@QBEIXZ ; std::list<FireTime,std::allocator<FireTime> >::max_size
; Function compile flags: /Ogsp
; File c:\program files (x86)\microsoft visual studio 10.0\vc\include\list
;	COMDAT ?max_size@?$list@UFireTime@@V?$allocator@UFireTime@@@std@@@std@@QBEIXZ
_TEXT	SEGMENT
?max_size@?$list@UFireTime@@V?$allocator@UFireTime@@@std@@@std@@QBEIXZ PROC ; std::list<FireTime,std::allocator<FireTime> >::max_size, COMDAT
; _this$ = ecx

; 882  : 		return (this->_Alval.max_size());

  00000	b8 2e ba e8 02	 mov	 eax, 48806446		; 02e8ba2eH

; 883  : 		}

  00005	c3		 ret	 0
?max_size@?$list@UFireTime@@V?$allocator@UFireTime@@@std@@@std@@QBEIXZ ENDP ; std::list<FireTime,std::allocator<FireTime> >::max_size
_TEXT	ENDS
PUBLIC	?allocate@?$allocator@U_Node@?$_List_nod@UFireTime@@V?$allocator@UFireTime@@@std@@@std@@@std@@QAEPAU_Node@?$_List_nod@UFireTime@@V?$allocator@UFireTime@@@std@@@2@I@Z ; std::allocator<std::_List_nod<FireTime,std::allocator<FireTime> >::_Node>::allocate
; Function compile flags: /Ogsp
; File c:\program files (x86)\microsoft visual studio 10.0\vc\include\xmemory
;	COMDAT ?allocate@?$allocator@U_Node@?$_List_nod@UFireTime@@V?$allocator@UFireTime@@@std@@@std@@@std@@QAEPAU_Node@?$_List_nod@UFireTime@@V?$allocator@UFireTime@@@std@@@2@I@Z
_TEXT	SEGMENT
__Count$ = 8						; size = 4
?allocate@?$allocator@U_Node@?$_List_nod@UFireTime@@V?$allocator@UFireTime@@@std@@@std@@@std@@QAEPAU_Node@?$_List_nod@UFireTime@@V?$allocator@UFireTime@@@std@@@2@I@Z PROC ; std::allocator<std::_List_nod<FireTime,std::allocator<FireTime> >::_Node>::allocate, COMDAT
; _this$ = ecx

; 186  : 		{	// allocate array of _Count elements

  00000	55		 push	 ebp
  00001	8b ec		 mov	 ebp, esp

; 187  : 		return (_Allocate(_Count, (pointer)0));

  00003	6a 00		 push	 0
  00005	ff 75 08	 push	 DWORD PTR __Count$[ebp]
  00008	e8 00 00 00 00	 call	 ??$_Allocate@U_Node@?$_List_nod@UFireTime@@V?$allocator@UFireTime@@@std@@@std@@@std@@YAPAU_Node@?$_List_nod@UFireTime@@V?$allocator@UFireTime@@@std@@@0@IPAU120@@Z ; std::_Allocate<std::_List_nod<FireTime,std::allocator<FireTime> >::_Node>
  0000d	59		 pop	 ecx
  0000e	59		 pop	 ecx

; 188  : 		}

  0000f	5d		 pop	 ebp
  00010	c2 04 00	 ret	 4
?allocate@?$allocator@U_Node@?$_List_nod@UFireTime@@V?$allocator@UFireTime@@@std@@@std@@@std@@QAEPAU_Node@?$_List_nod@UFireTime@@V?$allocator@UFireTime@@@std@@@2@I@Z ENDP ; std::allocator<std::_List_nod<FireTime,std::allocator<FireTime> >::_Node>::allocate
_TEXT	ENDS
PUBLIC	?allocate@?$allocator@UExtraAniJump@@@std@@QAEPAUExtraAniJump@@I@Z ; std::allocator<ExtraAniJump>::allocate
; Function compile flags: /Ogsp
;	COMDAT ?allocate@?$allocator@UExtraAniJump@@@std@@QAEPAUExtraAniJump@@I@Z
_TEXT	SEGMENT
__Count$ = 8						; size = 4
?allocate@?$allocator@UExtraAniJump@@@std@@QAEPAUExtraAniJump@@I@Z PROC ; std::allocator<ExtraAniJump>::allocate, COMDAT
; _this$ = ecx

; 186  : 		{	// allocate array of _Count elements

  00000	55		 push	 ebp
  00001	8b ec		 mov	 ebp, esp

; 187  : 		return (_Allocate(_Count, (pointer)0));

  00003	6a 00		 push	 0
  00005	ff 75 08	 push	 DWORD PTR __Count$[ebp]
  00008	e8 00 00 00 00	 call	 ??$_Allocate@UExtraAniJump@@@std@@YAPAUExtraAniJump@@IPAU1@@Z ; std::_Allocate<ExtraAniJump>
  0000d	59		 pop	 ecx
  0000e	59		 pop	 ecx

; 188  : 		}

  0000f	5d		 pop	 ebp
  00010	c2 04 00	 ret	 4
?allocate@?$allocator@UExtraAniJump@@@std@@QAEPAUExtraAniJump@@I@Z ENDP ; std::allocator<ExtraAniJump>::allocate
_TEXT	ENDS
PUBLIC	??8?$_Vector_const_iterator@V?$_Vector_val@UExtraAniJump@@V?$allocator@UExtraAniJump@@@std@@@std@@@std@@QBE_NABV01@@Z ; std::_Vector_const_iterator<std::_Vector_val<ExtraAniJump,std::allocator<ExtraAniJump> > >::operator==
; Function compile flags: /Ogsp
; File c:\program files (x86)\microsoft visual studio 10.0\vc\include\vector
;	COMDAT ??8?$_Vector_const_iterator@V?$_Vector_val@UExtraAniJump@@V?$allocator@UExtraAniJump@@@std@@@std@@@std@@QBE_NABV01@@Z
_TEXT	SEGMENT
__Right$ = 8						; size = 4
??8?$_Vector_const_iterator@V?$_Vector_val@UExtraAniJump@@V?$allocator@UExtraAniJump@@@std@@@std@@@std@@QBE_NABV01@@Z PROC ; std::_Vector_const_iterator<std::_Vector_val<ExtraAniJump,std::allocator<ExtraAniJump> > >::operator==, COMDAT
; _this$ = ecx

; 201  : 		{	// test for iterator equality

  00000	55		 push	 ebp
  00001	8b ec		 mov	 ebp, esp

; 202  : 		_Compat(_Right);
; 203  : 		return (this->_Ptr == _Right._Ptr);

  00003	8b 01		 mov	 eax, DWORD PTR [ecx]
  00005	8b 4d 08	 mov	 ecx, DWORD PTR __Right$[ebp]
  00008	2b 01		 sub	 eax, DWORD PTR [ecx]
  0000a	f7 d8		 neg	 eax
  0000c	1b c0		 sbb	 eax, eax
  0000e	40		 inc	 eax

; 204  : 		}

  0000f	5d		 pop	 ebp
  00010	c2 04 00	 ret	 4
??8?$_Vector_const_iterator@V?$_Vector_val@UExtraAniJump@@V?$allocator@UExtraAniJump@@@std@@@std@@@std@@QBE_NABV01@@Z ENDP ; std::_Vector_const_iterator<std::_Vector_val<ExtraAniJump,std::allocator<ExtraAniJump> > >::operator==
_TEXT	ENDS
PUBLIC	__$ArrayPad$
PUBLIC	??$LoadFloat_e@$0BH@@ioINILoader@@QAEMAAY0BH@$$CBDM@Z ; ioINILoader::LoadFloat_e<23>
EXTRN	__imp_?LoadFloat@ioINILoader@@QAEMPBDM@Z:PROC
EXTRN	___security_cookie:DWORD
; Function compile flags: /Ogsp
; File d:\lost saga for developer\youtube\tutorial\source\src\io3dengine\ioiniloader.h
;	COMDAT ??$LoadFloat_e@$0BH@@ioINILoader@@QAEMAAY0BH@$$CBDM@Z
_TEXT	SEGMENT
__k$ = -32						; size = 23
__$ArrayPad$ = -4					; size = 4
_k$ = 8							; size = 4
_f$ = 12						; size = 4
??$LoadFloat_e@$0BH@@ioINILoader@@QAEMAAY0BH@$$CBDM@Z PROC ; ioINILoader::LoadFloat_e<23>, COMDAT
; _this$ = ecx

; 135  : 	{

  00000	55		 push	 ebp
  00001	8b ec		 mov	 ebp, esp
  00003	83 ec 20	 sub	 esp, 32			; 00000020H
  00006	a1 00 00 00 00	 mov	 eax, DWORD PTR ___security_cookie
  0000b	33 c5		 xor	 eax, ebp
  0000d	89 45 fc	 mov	 DWORD PTR __$ArrayPad$[ebp], eax
  00010	8b 45 08	 mov	 eax, DWORD PTR _k$[ebp]

; 136  : 		_ENCSTR(k, _k);

  00013	8a 10		 mov	 dl, BYTE PTR [eax]
  00015	53		 push	 ebx
  00016	56		 push	 esi
  00017	8b f1		 mov	 esi, ecx
  00019	84 d2		 test	 dl, dl
  0001b	0f 84 2d 02 00
	00		 je	 $LN96@LoadFloat_
  00021	80 f2 ed	 xor	 dl, -19			; ffffffedH
  00024	88 55 e0	 mov	 BYTE PTR __k$[ebp], dl
  00027	8a 50 01	 mov	 dl, BYTE PTR [eax+1]
  0002a	84 d2		 test	 dl, dl
  0002c	0f 84 16 02 00
	00		 je	 $LN95@LoadFloat_
  00032	b1 ec		 mov	 cl, -20			; ffffffecH
  00034	32 d1		 xor	 dl, cl
  00036	88 55 e1	 mov	 BYTE PTR __k$[ebp+1], dl
  00039	8a 50 02	 mov	 dl, BYTE PTR [eax+2]
  0003c	84 d2		 test	 dl, dl
  0003e	0f 84 fe 01 00
	00		 je	 $LN94@LoadFloat_
  00044	80 f2 eb	 xor	 dl, -21			; ffffffebH
  00047	88 55 e2	 mov	 BYTE PTR __k$[ebp+2], dl
  0004a	8a 50 03	 mov	 dl, BYTE PTR [eax+3]
  0004d	84 d2		 test	 dl, dl
  0004f	0f 84 e7 01 00
	00		 je	 $LN93@LoadFloat_
  00055	b3 ea		 mov	 bl, -22			; ffffffeaH
  00057	32 d3		 xor	 dl, bl
  00059	88 55 e3	 mov	 BYTE PTR __k$[ebp+3], dl
  0005c	8a 50 04	 mov	 dl, BYTE PTR [eax+4]
  0005f	84 d2		 test	 dl, dl
  00061	0f 84 cf 01 00
	00		 je	 $LN92@LoadFloat_
  00067	80 f2 ed	 xor	 dl, -19			; ffffffedH
  0006a	88 55 e4	 mov	 BYTE PTR __k$[ebp+4], dl
  0006d	8a 50 05	 mov	 dl, BYTE PTR [eax+5]
  00070	84 d2		 test	 dl, dl
  00072	0f 84 b9 01 00
	00		 je	 $LN91@LoadFloat_
  00078	32 d1		 xor	 dl, cl
  0007a	88 55 e5	 mov	 BYTE PTR __k$[ebp+5], dl
  0007d	8a 50 06	 mov	 dl, BYTE PTR [eax+6]
  00080	84 d2		 test	 dl, dl
  00082	0f 84 a3 01 00
	00		 je	 $LN90@LoadFloat_
  00088	80 f2 eb	 xor	 dl, -21			; ffffffebH
  0008b	88 55 e6	 mov	 BYTE PTR __k$[ebp+6], dl
  0008e	8a 50 07	 mov	 dl, BYTE PTR [eax+7]
  00091	84 d2		 test	 dl, dl
  00093	0f 84 8d 01 00
	00		 je	 $LN89@LoadFloat_
  00099	32 d3		 xor	 dl, bl
  0009b	88 55 e7	 mov	 BYTE PTR __k$[ebp+7], dl
  0009e	8a 50 08	 mov	 dl, BYTE PTR [eax+8]
  000a1	84 d2		 test	 dl, dl
  000a3	0f 84 77 01 00
	00		 je	 $LN88@LoadFloat_
  000a9	80 f2 ed	 xor	 dl, -19			; ffffffedH
  000ac	88 55 e8	 mov	 BYTE PTR __k$[ebp+8], dl
  000af	8a 50 09	 mov	 dl, BYTE PTR [eax+9]
  000b2	84 d2		 test	 dl, dl
  000b4	0f 84 61 01 00
	00		 je	 $LN87@LoadFloat_
  000ba	32 d1		 xor	 dl, cl
  000bc	88 55 e9	 mov	 BYTE PTR __k$[ebp+9], dl
  000bf	8a 50 0a	 mov	 dl, BYTE PTR [eax+10]
  000c2	84 d2		 test	 dl, dl
  000c4	0f 84 4b 01 00
	00		 je	 $LN86@LoadFloat_
  000ca	80 f2 eb	 xor	 dl, -21			; ffffffebH
  000cd	88 55 ea	 mov	 BYTE PTR __k$[ebp+10], dl
  000d0	8a 50 0b	 mov	 dl, BYTE PTR [eax+11]
  000d3	84 d2		 test	 dl, dl
  000d5	0f 84 35 01 00
	00		 je	 $LN85@LoadFloat_
  000db	32 d3		 xor	 dl, bl
  000dd	88 55 eb	 mov	 BYTE PTR __k$[ebp+11], dl
  000e0	8a 50 0c	 mov	 dl, BYTE PTR [eax+12]
  000e3	84 d2		 test	 dl, dl
  000e5	0f 84 1f 01 00
	00		 je	 $LN84@LoadFloat_
  000eb	80 f2 ed	 xor	 dl, -19			; ffffffedH
  000ee	88 55 ec	 mov	 BYTE PTR __k$[ebp+12], dl
  000f1	8a 50 0d	 mov	 dl, BYTE PTR [eax+13]
  000f4	84 d2		 test	 dl, dl
  000f6	0f 84 09 01 00
	00		 je	 $LN83@LoadFloat_
  000fc	32 d1		 xor	 dl, cl
  000fe	88 55 ed	 mov	 BYTE PTR __k$[ebp+13], dl
  00101	8a 50 0e	 mov	 dl, BYTE PTR [eax+14]
  00104	84 d2		 test	 dl, dl
  00106	0f 84 f3 00 00
	00		 je	 $LN82@LoadFloat_
  0010c	80 f2 eb	 xor	 dl, -21			; ffffffebH
  0010f	88 55 ee	 mov	 BYTE PTR __k$[ebp+14], dl
  00112	8a 50 0f	 mov	 dl, BYTE PTR [eax+15]
  00115	84 d2		 test	 dl, dl
  00117	0f 84 dd 00 00
	00		 je	 $LN81@LoadFloat_
  0011d	32 d3		 xor	 dl, bl
  0011f	88 55 ef	 mov	 BYTE PTR __k$[ebp+15], dl
  00122	8a 50 10	 mov	 dl, BYTE PTR [eax+16]
  00125	84 d2		 test	 dl, dl
  00127	0f 84 c7 00 00
	00		 je	 $LN80@LoadFloat_
  0012d	80 f2 ed	 xor	 dl, -19			; ffffffedH
  00130	88 55 f0	 mov	 BYTE PTR __k$[ebp+16], dl
  00133	8a 50 11	 mov	 dl, BYTE PTR [eax+17]
  00136	84 d2		 test	 dl, dl
  00138	0f 84 b1 00 00
	00		 je	 $LN79@LoadFloat_
  0013e	32 d1		 xor	 dl, cl
  00140	88 55 f1	 mov	 BYTE PTR __k$[ebp+17], dl
  00143	8a 50 12	 mov	 dl, BYTE PTR [eax+18]
  00146	84 d2		 test	 dl, dl
  00148	0f 84 9b 00 00
	00		 je	 $LN78@LoadFloat_
  0014e	80 f2 eb	 xor	 dl, -21			; ffffffebH
  00151	88 55 f2	 mov	 BYTE PTR __k$[ebp+18], dl
  00154	8a 50 13	 mov	 dl, BYTE PTR [eax+19]
  00157	84 d2		 test	 dl, dl
  00159	0f 84 85 00 00
	00		 je	 $LN77@LoadFloat_
  0015f	32 d3		 xor	 dl, bl
  00161	88 55 f3	 mov	 BYTE PTR __k$[ebp+19], dl
  00164	8a 50 14	 mov	 dl, BYTE PTR [eax+20]
  00167	84 d2		 test	 dl, dl
  00169	74 73		 je	 SHORT $LN76@LoadFloat_
  0016b	80 f2 ed	 xor	 dl, -19			; ffffffedH
  0016e	88 55 f4	 mov	 BYTE PTR __k$[ebp+20], dl
  00171	8a 50 15	 mov	 dl, BYTE PTR [eax+21]
  00174	84 d2		 test	 dl, dl
  00176	74 61		 je	 SHORT $LN75@LoadFloat_
  00178	32 d1		 xor	 dl, cl
  0017a	80 78 16 00	 cmp	 BYTE PTR [eax+22], 0
  0017e	88 55 f5	 mov	 BYTE PTR __k$[ebp+21], dl
  00181	0f 84 cb 00 00
	00		 je	 $LN1@LoadFloat_
  00187	8a 50 17	 mov	 dl, BYTE PTR [eax+23]
  0018a	84 d2		 test	 dl, dl
  0018c	74 46		 je	 SHORT $LN73@LoadFloat_
  0018e	32 d3		 xor	 dl, bl
  00190	88 55 f7	 mov	 BYTE PTR __k$[ebp+23], dl
  00193	8a 50 18	 mov	 dl, BYTE PTR [eax+24]
  00196	84 d2		 test	 dl, dl
  00198	74 34		 je	 SHORT $LN72@LoadFloat_
  0019a	80 f2 ed	 xor	 dl, -19			; ffffffedH
  0019d	88 55 f8	 mov	 BYTE PTR __k$[ebp+24], dl
  001a0	8a 50 19	 mov	 dl, BYTE PTR [eax+25]
  001a3	84 d2		 test	 dl, dl
  001a5	74 1f		 je	 SHORT $LN71@LoadFloat_
  001a7	8a 40 1a	 mov	 al, BYTE PTR [eax+26]
  001aa	32 d1		 xor	 dl, cl
  001ac	88 55 f9	 mov	 BYTE PTR __k$[ebp+25], dl
  001af	84 c0		 test	 al, al
  001b1	74 0a		 je	 SHORT $LN70@LoadFloat_
  001b3	34 eb		 xor	 al, -21			; ffffffebH
  001b5	88 45 fa	 mov	 BYTE PTR __k$[ebp+26], al
  001b8	e9 95 00 00 00	 jmp	 $LN1@LoadFloat_
$LN70@LoadFloat_:
  001bd	c6 45 fa eb	 mov	 BYTE PTR __k$[ebp+26], -21 ; ffffffebH
  001c1	e9 8c 00 00 00	 jmp	 $LN1@LoadFloat_
$LN71@LoadFloat_:
  001c6	88 4d f9	 mov	 BYTE PTR __k$[ebp+25], cl
  001c9	e9 84 00 00 00	 jmp	 $LN1@LoadFloat_
$LN72@LoadFloat_:
  001ce	c6 45 f8 ed	 mov	 BYTE PTR __k$[ebp+24], -19 ; ffffffedH
  001d2	eb 7e		 jmp	 SHORT $LN1@LoadFloat_
$LN73@LoadFloat_:
  001d4	88 5d f7	 mov	 BYTE PTR __k$[ebp+23], bl
  001d7	eb 79		 jmp	 SHORT $LN1@LoadFloat_
$LN75@LoadFloat_:
  001d9	88 4d f5	 mov	 BYTE PTR __k$[ebp+21], cl
  001dc	eb 74		 jmp	 SHORT $LN1@LoadFloat_
$LN76@LoadFloat_:
  001de	c6 45 f4 ed	 mov	 BYTE PTR __k$[ebp+20], -19 ; ffffffedH
  001e2	eb 6e		 jmp	 SHORT $LN1@LoadFloat_
$LN77@LoadFloat_:
  001e4	88 5d f3	 mov	 BYTE PTR __k$[ebp+19], bl
  001e7	eb 69		 jmp	 SHORT $LN1@LoadFloat_
$LN78@LoadFloat_:
  001e9	c6 45 f2 eb	 mov	 BYTE PTR __k$[ebp+18], -21 ; ffffffebH
  001ed	eb 63		 jmp	 SHORT $LN1@LoadFloat_
$LN79@LoadFloat_:
  001ef	88 4d f1	 mov	 BYTE PTR __k$[ebp+17], cl
  001f2	eb 5e		 jmp	 SHORT $LN1@LoadFloat_
$LN80@LoadFloat_:
  001f4	c6 45 f0 ed	 mov	 BYTE PTR __k$[ebp+16], -19 ; ffffffedH
  001f8	eb 58		 jmp	 SHORT $LN1@LoadFloat_
$LN81@LoadFloat_:
  001fa	88 5d ef	 mov	 BYTE PTR __k$[ebp+15], bl
  001fd	eb 53		 jmp	 SHORT $LN1@LoadFloat_
$LN82@LoadFloat_:
  001ff	c6 45 ee eb	 mov	 BYTE PTR __k$[ebp+14], -21 ; ffffffebH
  00203	eb 4d		 jmp	 SHORT $LN1@LoadFloat_
$LN83@LoadFloat_:
  00205	88 4d ed	 mov	 BYTE PTR __k$[ebp+13], cl
  00208	eb 48		 jmp	 SHORT $LN1@LoadFloat_
$LN84@LoadFloat_:
  0020a	c6 45 ec ed	 mov	 BYTE PTR __k$[ebp+12], -19 ; ffffffedH
  0020e	eb 42		 jmp	 SHORT $LN1@LoadFloat_
$LN85@LoadFloat_:
  00210	88 5d eb	 mov	 BYTE PTR __k$[ebp+11], bl
  00213	eb 3d		 jmp	 SHORT $LN1@LoadFloat_
$LN86@LoadFloat_:
  00215	c6 45 ea eb	 mov	 BYTE PTR __k$[ebp+10], -21 ; ffffffebH
  00219	eb 37		 jmp	 SHORT $LN1@LoadFloat_
$LN87@LoadFloat_:
  0021b	88 4d e9	 mov	 BYTE PTR __k$[ebp+9], cl
  0021e	eb 32		 jmp	 SHORT $LN1@LoadFloat_
$LN88@LoadFloat_:
  00220	c6 45 e8 ed	 mov	 BYTE PTR __k$[ebp+8], -19 ; ffffffedH
  00224	eb 2c		 jmp	 SHORT $LN1@LoadFloat_
$LN89@LoadFloat_:
  00226	88 5d e7	 mov	 BYTE PTR __k$[ebp+7], bl
  00229	eb 27		 jmp	 SHORT $LN1@LoadFloat_
$LN90@LoadFloat_:
  0022b	c6 45 e6 eb	 mov	 BYTE PTR __k$[ebp+6], -21 ; ffffffebH
  0022f	eb 21		 jmp	 SHORT $LN1@LoadFloat_
$LN91@LoadFloat_:
  00231	88 4d e5	 mov	 BYTE PTR __k$[ebp+5], cl
  00234	eb 1c		 jmp	 SHORT $LN1@LoadFloat_
$LN92@LoadFloat_:
  00236	c6 45 e4 ed	 mov	 BYTE PTR __k$[ebp+4], -19 ; ffffffedH
  0023a	eb 16		 jmp	 SHORT $LN1@LoadFloat_
$LN93@LoadFloat_:
  0023c	c6 45 e3 ea	 mov	 BYTE PTR __k$[ebp+3], -22 ; ffffffeaH
  00240	eb 10		 jmp	 SHORT $LN1@LoadFloat_
$LN94@LoadFloat_:
  00242	c6 45 e2 eb	 mov	 BYTE PTR __k$[ebp+2], -21 ; ffffffebH
  00246	eb 0a		 jmp	 SHORT $LN1@LoadFloat_
$LN95@LoadFloat_:
  00248	c6 45 e1 ec	 mov	 BYTE PTR __k$[ebp+1], -20 ; ffffffecH
  0024c	eb 04		 jmp	 SHORT $LN1@LoadFloat_
$LN96@LoadFloat_:
  0024e	c6 45 e0 ed	 mov	 BYTE PTR __k$[ebp], -19	; ffffffedH
$LN1@LoadFloat_:
  00252	6a 05		 push	 5
  00254	8d 45 e0	 lea	 eax, DWORD PTR __k$[ebp]
  00257	c6 45 f6 00	 mov	 BYTE PTR __k$[ebp+22], 0
  0025b	5a		 pop	 edx
$LL104@LoadFloat_:
  0025c	81 30 ed ec eb
	ea		 xor	 DWORD PTR [eax], -353637139 ; eaebecedH
  00262	83 c0 04	 add	 eax, 4
  00265	4a		 dec	 edx
  00266	75 f4		 jne	 SHORT $LL104@LoadFloat_
  00268	6a 14		 push	 20			; 00000014H
  0026a	58		 pop	 eax
$LL101@LoadFloat_:
  0026b	8b c8		 mov	 ecx, eax
  0026d	81 e1 03 00 00
	80		 and	 ecx, -2147483645	; 80000003H
  00273	79 05		 jns	 SHORT $LN111@LoadFloat_
  00275	49		 dec	 ecx
  00276	83 c9 fc	 or	 ecx, -4			; fffffffcH
  00279	41		 inc	 ecx
$LN111@LoadFloat_:
  0027a	b2 ed		 mov	 dl, -19			; ffffffedH
  0027c	2a d1		 sub	 dl, cl
  0027e	30 54 05 e0	 xor	 BYTE PTR __k$[ebp+eax], dl
  00282	40		 inc	 eax
  00283	83 f8 16	 cmp	 eax, 22			; 00000016H
  00286	7c e3		 jl	 SHORT $LL101@LoadFloat_

; 137  : 		return LoadFloat(_k, f);

  00288	f3 0f 10 45 0c	 movss	 xmm0, DWORD PTR _f$[ebp]
  0028d	51		 push	 ecx
  0028e	8d 45 e0	 lea	 eax, DWORD PTR __k$[ebp]
  00291	f3 0f 11 04 24	 movss	 DWORD PTR [esp], xmm0
  00296	50		 push	 eax
  00297	8b ce		 mov	 ecx, esi
  00299	ff 15 00 00 00
	00		 call	 DWORD PTR __imp_?LoadFloat@ioINILoader@@QAEMPBDM@Z

; 138  : 	}

  0029f	8b 4d fc	 mov	 ecx, DWORD PTR __$ArrayPad$[ebp]
  002a2	5e		 pop	 esi
  002a3	33 cd		 xor	 ecx, ebp
  002a5	5b		 pop	 ebx
  002a6	e8 00 00 00 00	 call	 @__security_check_cookie@4
  002ab	c9		 leave
  002ac	c2 08 00	 ret	 8
??$LoadFloat_e@$0BH@@ioINILoader@@QAEMAAY0BH@$$CBDM@Z ENDP ; ioINILoader::LoadFloat_e<23>
_TEXT	ENDS
PUBLIC	__$ArrayPad$
PUBLIC	??$LoadFloat_e@$0BP@@ioINILoader@@QAEMAAY0BP@$$CBDM@Z ; ioINILoader::LoadFloat_e<31>
; Function compile flags: /Ogsp
;	COMDAT ??$LoadFloat_e@$0BP@@ioINILoader@@QAEMAAY0BP@$$CBDM@Z
_TEXT	SEGMENT
__k$ = -40						; size = 31
__$ArrayPad$ = -4					; size = 4
_k$ = 8							; size = 4
_f$ = 12						; size = 4
??$LoadFloat_e@$0BP@@ioINILoader@@QAEMAAY0BP@$$CBDM@Z PROC ; ioINILoader::LoadFloat_e<31>, COMDAT
; _this$ = ecx

; 135  : 	{

  00000	55		 push	 ebp
  00001	8b ec		 mov	 ebp, esp
  00003	83 ec 28	 sub	 esp, 40			; 00000028H
  00006	a1 00 00 00 00	 mov	 eax, DWORD PTR ___security_cookie
  0000b	33 c5		 xor	 eax, ebp
  0000d	89 45 fc	 mov	 DWORD PTR __$ArrayPad$[ebp], eax
  00010	8b 45 08	 mov	 eax, DWORD PTR _k$[ebp]

; 136  : 		_ENCSTR(k, _k);

  00013	8a 10		 mov	 dl, BYTE PTR [eax]
  00015	53		 push	 ebx
  00016	56		 push	 esi
  00017	8b f1		 mov	 esi, ecx
  00019	84 d2		 test	 dl, dl
  0001b	0f 84 f5 02 00
	00		 je	 $LN96@LoadFloat_@2
  00021	80 f2 ed	 xor	 dl, -19			; ffffffedH
  00024	88 55 d8	 mov	 BYTE PTR __k$[ebp], dl
  00027	8a 50 01	 mov	 dl, BYTE PTR [eax+1]
  0002a	84 d2		 test	 dl, dl
  0002c	0f 84 de 02 00
	00		 je	 $LN95@LoadFloat_@2
  00032	b1 ec		 mov	 cl, -20			; ffffffecH
  00034	32 d1		 xor	 dl, cl
  00036	88 55 d9	 mov	 BYTE PTR __k$[ebp+1], dl
  00039	8a 50 02	 mov	 dl, BYTE PTR [eax+2]
  0003c	84 d2		 test	 dl, dl
  0003e	0f 84 c6 02 00
	00		 je	 $LN94@LoadFloat_@2
  00044	80 f2 eb	 xor	 dl, -21			; ffffffebH
  00047	88 55 da	 mov	 BYTE PTR __k$[ebp+2], dl
  0004a	8a 50 03	 mov	 dl, BYTE PTR [eax+3]
  0004d	84 d2		 test	 dl, dl
  0004f	0f 84 af 02 00
	00		 je	 $LN93@LoadFloat_@2
  00055	b3 ea		 mov	 bl, -22			; ffffffeaH
  00057	32 d3		 xor	 dl, bl
  00059	88 55 db	 mov	 BYTE PTR __k$[ebp+3], dl
  0005c	8a 50 04	 mov	 dl, BYTE PTR [eax+4]
  0005f	84 d2		 test	 dl, dl
  00061	0f 84 97 02 00
	00		 je	 $LN92@LoadFloat_@2
  00067	80 f2 ed	 xor	 dl, -19			; ffffffedH
  0006a	88 55 dc	 mov	 BYTE PTR __k$[ebp+4], dl
  0006d	8a 50 05	 mov	 dl, BYTE PTR [eax+5]
  00070	84 d2		 test	 dl, dl
  00072	0f 84 81 02 00
	00		 je	 $LN91@LoadFloat_@2
  00078	32 d1		 xor	 dl, cl
  0007a	88 55 dd	 mov	 BYTE PTR __k$[ebp+5], dl
  0007d	8a 50 06	 mov	 dl, BYTE PTR [eax+6]
  00080	84 d2		 test	 dl, dl
  00082	0f 84 6b 02 00
	00		 je	 $LN90@LoadFloat_@2
  00088	80 f2 eb	 xor	 dl, -21			; ffffffebH
  0008b	88 55 de	 mov	 BYTE PTR __k$[ebp+6], dl
  0008e	8a 50 07	 mov	 dl, BYTE PTR [eax+7]
  00091	84 d2		 test	 dl, dl
  00093	0f 84 55 02 00
	00		 je	 $LN89@LoadFloat_@2
  00099	32 d3		 xor	 dl, bl
  0009b	88 55 df	 mov	 BYTE PTR __k$[ebp+7], dl
  0009e	8a 50 08	 mov	 dl, BYTE PTR [eax+8]
  000a1	84 d2		 test	 dl, dl
  000a3	0f 84 3f 02 00
	00		 je	 $LN88@LoadFloat_@2
  000a9	80 f2 ed	 xor	 dl, -19			; ffffffedH
  000ac	88 55 e0	 mov	 BYTE PTR __k$[ebp+8], dl
  000af	8a 50 09	 mov	 dl, BYTE PTR [eax+9]
  000b2	84 d2		 test	 dl, dl
  000b4	0f 84 29 02 00
	00		 je	 $LN87@LoadFloat_@2
  000ba	32 d1		 xor	 dl, cl
  000bc	88 55 e1	 mov	 BYTE PTR __k$[ebp+9], dl
  000bf	8a 50 0a	 mov	 dl, BYTE PTR [eax+10]
  000c2	84 d2		 test	 dl, dl
  000c4	0f 84 13 02 00
	00		 je	 $LN86@LoadFloat_@2
  000ca	80 f2 eb	 xor	 dl, -21			; ffffffebH
  000cd	88 55 e2	 mov	 BYTE PTR __k$[ebp+10], dl
  000d0	8a 50 0b	 mov	 dl, BYTE PTR [eax+11]
  000d3	84 d2		 test	 dl, dl
  000d5	0f 84 fd 01 00
	00		 je	 $LN85@LoadFloat_@2
  000db	32 d3		 xor	 dl, bl
  000dd	88 55 e3	 mov	 BYTE PTR __k$[ebp+11], dl
  000e0	8a 50 0c	 mov	 dl, BYTE PTR [eax+12]
  000e3	84 d2		 test	 dl, dl
  000e5	0f 84 e7 01 00
	00		 je	 $LN84@LoadFloat_@2
  000eb	80 f2 ed	 xor	 dl, -19			; ffffffedH
  000ee	88 55 e4	 mov	 BYTE PTR __k$[ebp+12], dl
  000f1	8a 50 0d	 mov	 dl, BYTE PTR [eax+13]
  000f4	84 d2		 test	 dl, dl
  000f6	0f 84 d1 01 00
	00		 je	 $LN83@LoadFloat_@2
  000fc	32 d1		 xor	 dl, cl
  000fe	88 55 e5	 mov	 BYTE PTR __k$[ebp+13], dl
  00101	8a 50 0e	 mov	 dl, BYTE PTR [eax+14]
  00104	84 d2		 test	 dl, dl
  00106	0f 84 bb 01 00
	00		 je	 $LN82@LoadFloat_@2
  0010c	80 f2 eb	 xor	 dl, -21			; ffffffebH
  0010f	88 55 e6	 mov	 BYTE PTR __k$[ebp+14], dl
  00112	8a 50 0f	 mov	 dl, BYTE PTR [eax+15]
  00115	84 d2		 test	 dl, dl
  00117	0f 84 a5 01 00
	00		 je	 $LN81@LoadFloat_@2
  0011d	32 d3		 xor	 dl, bl
  0011f	88 55 e7	 mov	 BYTE PTR __k$[ebp+15], dl
  00122	8a 50 10	 mov	 dl, BYTE PTR [eax+16]
  00125	84 d2		 test	 dl, dl
  00127	0f 84 8f 01 00
	00		 je	 $LN80@LoadFloat_@2
  0012d	80 f2 ed	 xor	 dl, -19			; ffffffedH
  00130	88 55 e8	 mov	 BYTE PTR __k$[ebp+16], dl
  00133	8a 50 11	 mov	 dl, BYTE PTR [eax+17]
  00136	84 d2		 test	 dl, dl
  00138	0f 84 79 01 00
	00		 je	 $LN79@LoadFloat_@2
  0013e	32 d1		 xor	 dl, cl
  00140	88 55 e9	 mov	 BYTE PTR __k$[ebp+17], dl
  00143	8a 50 12	 mov	 dl, BYTE PTR [eax+18]
  00146	84 d2		 test	 dl, dl
  00148	0f 84 63 01 00
	00		 je	 $LN78@LoadFloat_@2
  0014e	80 f2 eb	 xor	 dl, -21			; ffffffebH
  00151	88 55 ea	 mov	 BYTE PTR __k$[ebp+18], dl
  00154	8a 50 13	 mov	 dl, BYTE PTR [eax+19]
  00157	84 d2		 test	 dl, dl
  00159	0f 84 4d 01 00
	00		 je	 $LN77@LoadFloat_@2
  0015f	32 d3		 xor	 dl, bl
  00161	88 55 eb	 mov	 BYTE PTR __k$[ebp+19], dl
  00164	8a 50 14	 mov	 dl, BYTE PTR [eax+20]
  00167	84 d2		 test	 dl, dl
  00169	0f 84 37 01 00
	00		 je	 $LN76@LoadFloat_@2
  0016f	80 f2 ed	 xor	 dl, -19			; ffffffedH
  00172	88 55 ec	 mov	 BYTE PTR __k$[ebp+20], dl
  00175	8a 50 15	 mov	 dl, BYTE PTR [eax+21]
  00178	84 d2		 test	 dl, dl
  0017a	0f 84 21 01 00
	00		 je	 $LN75@LoadFloat_@2
  00180	32 d1		 xor	 dl, cl
  00182	88 55 ed	 mov	 BYTE PTR __k$[ebp+21], dl
  00185	8a 50 16	 mov	 dl, BYTE PTR [eax+22]
  00188	84 d2		 test	 dl, dl
  0018a	0f 84 0b 01 00
	00		 je	 $LN74@LoadFloat_@2
  00190	80 f2 eb	 xor	 dl, -21			; ffffffebH
  00193	88 55 ee	 mov	 BYTE PTR __k$[ebp+22], dl
  00196	8a 50 17	 mov	 dl, BYTE PTR [eax+23]
  00199	84 d2		 test	 dl, dl
  0019b	0f 84 f5 00 00
	00		 je	 $LN73@LoadFloat_@2
  001a1	32 d3		 xor	 dl, bl
  001a3	88 55 ef	 mov	 BYTE PTR __k$[ebp+23], dl
  001a6	8a 50 18	 mov	 dl, BYTE PTR [eax+24]
  001a9	84 d2		 test	 dl, dl
  001ab	0f 84 dc 00 00
	00		 je	 $LN72@LoadFloat_@2
  001b1	80 f2 ed	 xor	 dl, -19			; ffffffedH
  001b4	88 55 f0	 mov	 BYTE PTR __k$[ebp+24], dl
  001b7	8a 50 19	 mov	 dl, BYTE PTR [eax+25]
  001ba	84 d2		 test	 dl, dl
  001bc	0f 84 c3 00 00
	00		 je	 $LN71@LoadFloat_@2
  001c2	32 d1		 xor	 dl, cl
  001c4	88 55 f1	 mov	 BYTE PTR __k$[ebp+25], dl
  001c7	8a 50 1a	 mov	 dl, BYTE PTR [eax+26]
  001ca	84 d2		 test	 dl, dl
  001cc	0f 84 aa 00 00
	00		 je	 $LN70@LoadFloat_@2
  001d2	80 f2 eb	 xor	 dl, -21			; ffffffebH
  001d5	88 55 f2	 mov	 BYTE PTR __k$[ebp+26], dl
  001d8	8a 50 1b	 mov	 dl, BYTE PTR [eax+27]
  001db	84 d2		 test	 dl, dl
  001dd	0f 84 91 00 00
	00		 je	 $LN69@LoadFloat_@2
  001e3	32 d3		 xor	 dl, bl
  001e5	88 55 f3	 mov	 BYTE PTR __k$[ebp+27], dl
  001e8	8a 50 1c	 mov	 dl, BYTE PTR [eax+28]
  001eb	84 d2		 test	 dl, dl
  001ed	74 7c		 je	 SHORT $LN68@LoadFloat_@2
  001ef	80 f2 ed	 xor	 dl, -19			; ffffffedH
  001f2	88 55 f4	 mov	 BYTE PTR __k$[ebp+28], dl
  001f5	8a 50 1d	 mov	 dl, BYTE PTR [eax+29]
  001f8	84 d2		 test	 dl, dl
  001fa	74 67		 je	 SHORT $LN67@LoadFloat_@2
  001fc	32 d1		 xor	 dl, cl
  001fe	80 78 1e 00	 cmp	 BYTE PTR [eax+30], 0
  00202	88 55 f5	 mov	 BYTE PTR __k$[ebp+29], dl
  00205	0f 84 0f 01 00
	00		 je	 $LN1@LoadFloat_@2
  0020b	8a 50 1f	 mov	 dl, BYTE PTR [eax+31]
  0020e	84 d2		 test	 dl, dl
  00210	74 49		 je	 SHORT $LN65@LoadFloat_@2
  00212	32 d3		 xor	 dl, bl
  00214	88 55 f7	 mov	 BYTE PTR __k$[ebp+31], dl
  00217	8a 50 20	 mov	 dl, BYTE PTR [eax+32]
  0021a	84 d2		 test	 dl, dl
  0021c	74 34		 je	 SHORT $LN64@LoadFloat_@2
  0021e	80 f2 ed	 xor	 dl, -19			; ffffffedH
  00221	88 55 f8	 mov	 BYTE PTR __k$[ebp+32], dl
  00224	8a 50 21	 mov	 dl, BYTE PTR [eax+33]
  00227	84 d2		 test	 dl, dl
  00229	74 1f		 je	 SHORT $LN63@LoadFloat_@2
  0022b	8a 40 22	 mov	 al, BYTE PTR [eax+34]
  0022e	32 d1		 xor	 dl, cl
  00230	88 55 f9	 mov	 BYTE PTR __k$[ebp+33], dl
  00233	84 c0		 test	 al, al
  00235	74 0a		 je	 SHORT $LN62@LoadFloat_@2
  00237	34 eb		 xor	 al, -21			; ffffffebH
  00239	88 45 fa	 mov	 BYTE PTR __k$[ebp+34], al
  0023c	e9 d9 00 00 00	 jmp	 $LN1@LoadFloat_@2
$LN62@LoadFloat_@2:
  00241	c6 45 fa eb	 mov	 BYTE PTR __k$[ebp+34], -21 ; ffffffebH
  00245	e9 d0 00 00 00	 jmp	 $LN1@LoadFloat_@2
$LN63@LoadFloat_@2:
  0024a	88 4d f9	 mov	 BYTE PTR __k$[ebp+33], cl
  0024d	e9 c8 00 00 00	 jmp	 $LN1@LoadFloat_@2
$LN64@LoadFloat_@2:
  00252	c6 45 f8 ed	 mov	 BYTE PTR __k$[ebp+32], -19 ; ffffffedH
  00256	e9 bf 00 00 00	 jmp	 $LN1@LoadFloat_@2
$LN65@LoadFloat_@2:
  0025b	88 5d f7	 mov	 BYTE PTR __k$[ebp+31], bl
  0025e	e9 b7 00 00 00	 jmp	 $LN1@LoadFloat_@2
$LN67@LoadFloat_@2:
  00263	88 4d f5	 mov	 BYTE PTR __k$[ebp+29], cl
  00266	e9 af 00 00 00	 jmp	 $LN1@LoadFloat_@2
$LN68@LoadFloat_@2:
  0026b	c6 45 f4 ed	 mov	 BYTE PTR __k$[ebp+28], -19 ; ffffffedH
  0026f	e9 a6 00 00 00	 jmp	 $LN1@LoadFloat_@2
$LN69@LoadFloat_@2:
  00274	88 5d f3	 mov	 BYTE PTR __k$[ebp+27], bl
  00277	e9 9e 00 00 00	 jmp	 $LN1@LoadFloat_@2
$LN70@LoadFloat_@2:
  0027c	c6 45 f2 eb	 mov	 BYTE PTR __k$[ebp+26], -21 ; ffffffebH
  00280	e9 95 00 00 00	 jmp	 $LN1@LoadFloat_@2
$LN71@LoadFloat_@2:
  00285	88 4d f1	 mov	 BYTE PTR __k$[ebp+25], cl
  00288	e9 8d 00 00 00	 jmp	 $LN1@LoadFloat_@2
$LN72@LoadFloat_@2:
  0028d	c6 45 f0 ed	 mov	 BYTE PTR __k$[ebp+24], -19 ; ffffffedH
  00291	e9 84 00 00 00	 jmp	 $LN1@LoadFloat_@2
$LN73@LoadFloat_@2:
  00296	88 5d ef	 mov	 BYTE PTR __k$[ebp+23], bl
  00299	eb 7f		 jmp	 SHORT $LN1@LoadFloat_@2
$LN74@LoadFloat_@2:
  0029b	c6 45 ee eb	 mov	 BYTE PTR __k$[ebp+22], -21 ; ffffffebH
  0029f	eb 79		 jmp	 SHORT $LN1@LoadFloat_@2
$LN75@LoadFloat_@2:
  002a1	88 4d ed	 mov	 BYTE PTR __k$[ebp+21], cl
  002a4	eb 74		 jmp	 SHORT $LN1@LoadFloat_@2
$LN76@LoadFloat_@2:
  002a6	c6 45 ec ed	 mov	 BYTE PTR __k$[ebp+20], -19 ; ffffffedH
  002aa	eb 6e		 jmp	 SHORT $LN1@LoadFloat_@2
$LN77@LoadFloat_@2:
  002ac	88 5d eb	 mov	 BYTE PTR __k$[ebp+19], bl
  002af	eb 69		 jmp	 SHORT $LN1@LoadFloat_@2
$LN78@LoadFloat_@2:
  002b1	c6 45 ea eb	 mov	 BYTE PTR __k$[ebp+18], -21 ; ffffffebH
  002b5	eb 63		 jmp	 SHORT $LN1@LoadFloat_@2
$LN79@LoadFloat_@2:
  002b7	88 4d e9	 mov	 BYTE PTR __k$[ebp+17], cl
  002ba	eb 5e		 jmp	 SHORT $LN1@LoadFloat_@2
$LN80@LoadFloat_@2:
  002bc	c6 45 e8 ed	 mov	 BYTE PTR __k$[ebp+16], -19 ; ffffffedH
  002c0	eb 58		 jmp	 SHORT $LN1@LoadFloat_@2
$LN81@LoadFloat_@2:
  002c2	88 5d e7	 mov	 BYTE PTR __k$[ebp+15], bl
  002c5	eb 53		 jmp	 SHORT $LN1@LoadFloat_@2
$LN82@LoadFloat_@2:
  002c7	c6 45 e6 eb	 mov	 BYTE PTR __k$[ebp+14], -21 ; ffffffebH
  002cb	eb 4d		 jmp	 SHORT $LN1@LoadFloat_@2
$LN83@LoadFloat_@2:
  002cd	88 4d e5	 mov	 BYTE PTR __k$[ebp+13], cl
  002d0	eb 48		 jmp	 SHORT $LN1@LoadFloat_@2
$LN84@LoadFloat_@2:
  002d2	c6 45 e4 ed	 mov	 BYTE PTR __k$[ebp+12], -19 ; ffffffedH
  002d6	eb 42		 jmp	 SHORT $LN1@LoadFloat_@2
$LN85@LoadFloat_@2:
  002d8	88 5d e3	 mov	 BYTE PTR __k$[ebp+11], bl
  002db	eb 3d		 jmp	 SHORT $LN1@LoadFloat_@2
$LN86@LoadFloat_@2:
  002dd	c6 45 e2 eb	 mov	 BYTE PTR __k$[ebp+10], -21 ; ffffffebH
  002e1	eb 37		 jmp	 SHORT $LN1@LoadFloat_@2
$LN87@LoadFloat_@2:
  002e3	88 4d e1	 mov	 BYTE PTR __k$[ebp+9], cl
  002e6	eb 32		 jmp	 SHORT $LN1@LoadFloat_@2
$LN88@LoadFloat_@2:
  002e8	c6 45 e0 ed	 mov	 BYTE PTR __k$[ebp+8], -19 ; ffffffedH
  002ec	eb 2c		 jmp	 SHORT $LN1@LoadFloat_@2
$LN89@LoadFloat_@2:
  002ee	88 5d df	 mov	 BYTE PTR __k$[ebp+7], bl
  002f1	eb 27		 jmp	 SHORT $LN1@LoadFloat_@2
$LN90@LoadFloat_@2:
  002f3	c6 45 de eb	 mov	 BYTE PTR __k$[ebp+6], -21 ; ffffffebH
  002f7	eb 21		 jmp	 SHORT $LN1@LoadFloat_@2
$LN91@LoadFloat_@2:
  002f9	88 4d dd	 mov	 BYTE PTR __k$[ebp+5], cl
  002fc	eb 1c		 jmp	 SHORT $LN1@LoadFloat_@2
$LN92@LoadFloat_@2:
  002fe	c6 45 dc ed	 mov	 BYTE PTR __k$[ebp+4], -19 ; ffffffedH
  00302	eb 16		 jmp	 SHORT $LN1@LoadFloat_@2
$LN93@LoadFloat_@2:
  00304	c6 45 db ea	 mov	 BYTE PTR __k$[ebp+3], -22 ; ffffffeaH
  00308	eb 10		 jmp	 SHORT $LN1@LoadFloat_@2
$LN94@LoadFloat_@2:
  0030a	c6 45 da eb	 mov	 BYTE PTR __k$[ebp+2], -21 ; ffffffebH
  0030e	eb 0a		 jmp	 SHORT $LN1@LoadFloat_@2
$LN95@LoadFloat_@2:
  00310	c6 45 d9 ec	 mov	 BYTE PTR __k$[ebp+1], -20 ; ffffffecH
  00314	eb 04		 jmp	 SHORT $LN1@LoadFloat_@2
$LN96@LoadFloat_@2:
  00316	c6 45 d8 ed	 mov	 BYTE PTR __k$[ebp], -19	; ffffffedH
$LN1@LoadFloat_@2:
  0031a	6a 07		 push	 7
  0031c	8d 45 d8	 lea	 eax, DWORD PTR __k$[ebp]
  0031f	c6 45 f6 00	 mov	 BYTE PTR __k$[ebp+30], 0
  00323	5a		 pop	 edx
$LL104@LoadFloat_@2:
  00324	81 30 ed ec eb
	ea		 xor	 DWORD PTR [eax], -353637139 ; eaebecedH
  0032a	83 c0 04	 add	 eax, 4
  0032d	4a		 dec	 edx
  0032e	75 f4		 jne	 SHORT $LL104@LoadFloat_@2
  00330	6a 1c		 push	 28			; 0000001cH
  00332	58		 pop	 eax
$LL101@LoadFloat_@2:
  00333	8b c8		 mov	 ecx, eax
  00335	81 e1 03 00 00
	80		 and	 ecx, -2147483645	; 80000003H
  0033b	79 05		 jns	 SHORT $LN111@LoadFloat_@2
  0033d	49		 dec	 ecx
  0033e	83 c9 fc	 or	 ecx, -4			; fffffffcH
  00341	41		 inc	 ecx
$LN111@LoadFloat_@2:
  00342	b2 ed		 mov	 dl, -19			; ffffffedH
  00344	2a d1		 sub	 dl, cl
  00346	30 54 05 d8	 xor	 BYTE PTR __k$[ebp+eax], dl
  0034a	40		 inc	 eax
  0034b	83 f8 1e	 cmp	 eax, 30			; 0000001eH
  0034e	7c e3		 jl	 SHORT $LL101@LoadFloat_@2

; 137  : 		return LoadFloat(_k, f);

  00350	f3 0f 10 45 0c	 movss	 xmm0, DWORD PTR _f$[ebp]
  00355	51		 push	 ecx
  00356	8d 45 d8	 lea	 eax, DWORD PTR __k$[ebp]
  00359	f3 0f 11 04 24	 movss	 DWORD PTR [esp], xmm0
  0035e	50		 push	 eax
  0035f	8b ce		 mov	 ecx, esi
  00361	ff 15 00 00 00
	00		 call	 DWORD PTR __imp_?LoadFloat@ioINILoader@@QAEMPBDM@Z

; 138  : 	}

  00367	8b 4d fc	 mov	 ecx, DWORD PTR __$ArrayPad$[ebp]
  0036a	5e		 pop	 esi
  0036b	33 cd		 xor	 ecx, ebp
  0036d	5b		 pop	 ebx
  0036e	e8 00 00 00 00	 call	 @__security_check_cookie@4
  00373	c9		 leave
  00374	c2 08 00	 ret	 8
??$LoadFloat_e@$0BP@@ioINILoader@@QAEMAAY0BP@$$CBDM@Z ENDP ; ioINILoader::LoadFloat_e<31>
_TEXT	ENDS
PUBLIC	_this$GSCopy$
PUBLIC	__$ArrayPad$
PUBLIC	??$LoadString_e@$0BK@@ioINILoader@@QAEXAAY0BK@$$CBDAAY00$$CBDPADH@Z ; ioINILoader::LoadString_e<26>
EXTRN	__imp_?LoadStringA@ioINILoader@@QAEXPBD0PADH@Z:PROC
; Function compile flags: /Ogsp
;	COMDAT ??$LoadString_e@$0BK@@ioINILoader@@QAEXAAY0BK@$$CBDAAY00$$CBDPADH@Z
_TEXT	SEGMENT
_this$GSCopy$ = -40					; size = 4
__k$ = -36						; size = 26
__$ArrayPad$ = -4					; size = 4
_k$ = 8							; size = 4
_d$ = 12						; size = 4
_b$ = 16						; size = 4
_i$ = 20						; size = 4
??$LoadString_e@$0BK@@ioINILoader@@QAEXAAY0BK@$$CBDAAY00$$CBDPADH@Z PROC ; ioINILoader::LoadString_e<26>, COMDAT
; _this$ = ecx

; 161  : 	{

  00000	55		 push	 ebp
  00001	8b ec		 mov	 ebp, esp
  00003	83 ec 28	 sub	 esp, 40			; 00000028H
  00006	a1 00 00 00 00	 mov	 eax, DWORD PTR ___security_cookie
  0000b	33 c5		 xor	 eax, ebp
  0000d	89 45 fc	 mov	 DWORD PTR __$ArrayPad$[ebp], eax
  00010	8b 45 08	 mov	 eax, DWORD PTR _k$[ebp]

; 162  : 		_ENCSTR(k, _k);

  00013	8a 10		 mov	 dl, BYTE PTR [eax]
  00015	53		 push	 ebx
  00016	56		 push	 esi
  00017	8b 75 0c	 mov	 esi, DWORD PTR _d$[ebp]
  0001a	57		 push	 edi
  0001b	8b 7d 10	 mov	 edi, DWORD PTR _b$[ebp]
  0001e	89 4d d8	 mov	 DWORD PTR _this$GSCopy$[ebp], ecx
  00021	84 d2		 test	 dl, dl
  00023	0f 84 79 02 00
	00		 je	 $LN96@LoadString
  00029	80 f2 ed	 xor	 dl, -19			; ffffffedH
  0002c	88 55 dc	 mov	 BYTE PTR __k$[ebp], dl
  0002f	8a 50 01	 mov	 dl, BYTE PTR [eax+1]
  00032	84 d2		 test	 dl, dl
  00034	0f 84 62 02 00
	00		 je	 $LN95@LoadString
  0003a	80 f2 ec	 xor	 dl, -20			; ffffffecH
  0003d	88 55 dd	 mov	 BYTE PTR __k$[ebp+1], dl
  00040	8a 50 02	 mov	 dl, BYTE PTR [eax+2]
  00043	84 d2		 test	 dl, dl
  00045	0f 84 4b 02 00
	00		 je	 $LN94@LoadString
  0004b	b1 eb		 mov	 cl, -21			; ffffffebH
  0004d	32 d1		 xor	 dl, cl
  0004f	88 55 de	 mov	 BYTE PTR __k$[ebp+2], dl
  00052	8a 50 03	 mov	 dl, BYTE PTR [eax+3]
  00055	84 d2		 test	 dl, dl
  00057	0f 84 33 02 00
	00		 je	 $LN93@LoadString
  0005d	b3 ea		 mov	 bl, -22			; ffffffeaH
  0005f	32 d3		 xor	 dl, bl
  00061	88 55 df	 mov	 BYTE PTR __k$[ebp+3], dl
  00064	8a 50 04	 mov	 dl, BYTE PTR [eax+4]
  00067	84 d2		 test	 dl, dl
  00069	0f 84 1b 02 00
	00		 je	 $LN92@LoadString
  0006f	80 f2 ed	 xor	 dl, -19			; ffffffedH
  00072	88 55 e0	 mov	 BYTE PTR __k$[ebp+4], dl
  00075	8a 50 05	 mov	 dl, BYTE PTR [eax+5]
  00078	84 d2		 test	 dl, dl
  0007a	0f 84 04 02 00
	00		 je	 $LN91@LoadString
  00080	80 f2 ec	 xor	 dl, -20			; ffffffecH
  00083	88 55 e1	 mov	 BYTE PTR __k$[ebp+5], dl
  00086	8a 50 06	 mov	 dl, BYTE PTR [eax+6]
  00089	84 d2		 test	 dl, dl
  0008b	0f 84 ee 01 00
	00		 je	 $LN90@LoadString
  00091	32 d1		 xor	 dl, cl
  00093	88 55 e2	 mov	 BYTE PTR __k$[ebp+6], dl
  00096	8a 50 07	 mov	 dl, BYTE PTR [eax+7]
  00099	84 d2		 test	 dl, dl
  0009b	0f 84 d9 01 00
	00		 je	 $LN89@LoadString
  000a1	32 d3		 xor	 dl, bl
  000a3	88 55 e3	 mov	 BYTE PTR __k$[ebp+7], dl
  000a6	8a 50 08	 mov	 dl, BYTE PTR [eax+8]
  000a9	84 d2		 test	 dl, dl
  000ab	0f 84 c3 01 00
	00		 je	 $LN88@LoadString
  000b1	80 f2 ed	 xor	 dl, -19			; ffffffedH
  000b4	88 55 e4	 mov	 BYTE PTR __k$[ebp+8], dl
  000b7	8a 50 09	 mov	 dl, BYTE PTR [eax+9]
  000ba	84 d2		 test	 dl, dl
  000bc	0f 84 ac 01 00
	00		 je	 $LN87@LoadString
  000c2	80 f2 ec	 xor	 dl, -20			; ffffffecH
  000c5	88 55 e5	 mov	 BYTE PTR __k$[ebp+9], dl
  000c8	8a 50 0a	 mov	 dl, BYTE PTR [eax+10]
  000cb	84 d2		 test	 dl, dl
  000cd	0f 84 96 01 00
	00		 je	 $LN86@LoadString
  000d3	32 d1		 xor	 dl, cl
  000d5	88 55 e6	 mov	 BYTE PTR __k$[ebp+10], dl
  000d8	8a 50 0b	 mov	 dl, BYTE PTR [eax+11]
  000db	84 d2		 test	 dl, dl
  000dd	0f 84 81 01 00
	00		 je	 $LN85@LoadString
  000e3	32 d3		 xor	 dl, bl
  000e5	88 55 e7	 mov	 BYTE PTR __k$[ebp+11], dl
  000e8	8a 50 0c	 mov	 dl, BYTE PTR [eax+12]
  000eb	84 d2		 test	 dl, dl
  000ed	0f 84 6b 01 00
	00		 je	 $LN84@LoadString
  000f3	80 f2 ed	 xor	 dl, -19			; ffffffedH
  000f6	88 55 e8	 mov	 BYTE PTR __k$[ebp+12], dl
  000f9	8a 50 0d	 mov	 dl, BYTE PTR [eax+13]
  000fc	84 d2		 test	 dl, dl
  000fe	0f 84 54 01 00
	00		 je	 $LN83@LoadString
  00104	80 f2 ec	 xor	 dl, -20			; ffffffecH
  00107	88 55 e9	 mov	 BYTE PTR __k$[ebp+13], dl
  0010a	8a 50 0e	 mov	 dl, BYTE PTR [eax+14]
  0010d	84 d2		 test	 dl, dl
  0010f	0f 84 3e 01 00
	00		 je	 $LN82@LoadString
  00115	32 d1		 xor	 dl, cl
  00117	88 55 ea	 mov	 BYTE PTR __k$[ebp+14], dl
  0011a	8a 50 0f	 mov	 dl, BYTE PTR [eax+15]
  0011d	84 d2		 test	 dl, dl
  0011f	0f 84 29 01 00
	00		 je	 $LN81@LoadString
  00125	32 d3		 xor	 dl, bl
  00127	88 55 eb	 mov	 BYTE PTR __k$[ebp+15], dl
  0012a	8a 50 10	 mov	 dl, BYTE PTR [eax+16]
  0012d	84 d2		 test	 dl, dl
  0012f	0f 84 13 01 00
	00		 je	 $LN80@LoadString
  00135	80 f2 ed	 xor	 dl, -19			; ffffffedH
  00138	88 55 ec	 mov	 BYTE PTR __k$[ebp+16], dl
  0013b	8a 50 11	 mov	 dl, BYTE PTR [eax+17]
  0013e	84 d2		 test	 dl, dl
  00140	0f 84 fc 00 00
	00		 je	 $LN79@LoadString
  00146	80 f2 ec	 xor	 dl, -20			; ffffffecH
  00149	88 55 ed	 mov	 BYTE PTR __k$[ebp+17], dl
  0014c	8a 50 12	 mov	 dl, BYTE PTR [eax+18]
  0014f	84 d2		 test	 dl, dl
  00151	0f 84 e6 00 00
	00		 je	 $LN78@LoadString
  00157	32 d1		 xor	 dl, cl
  00159	88 55 ee	 mov	 BYTE PTR __k$[ebp+18], dl
  0015c	8a 50 13	 mov	 dl, BYTE PTR [eax+19]
  0015f	84 d2		 test	 dl, dl
  00161	0f 84 d1 00 00
	00		 je	 $LN77@LoadString
  00167	32 d3		 xor	 dl, bl
  00169	88 55 ef	 mov	 BYTE PTR __k$[ebp+19], dl
  0016c	8a 50 14	 mov	 dl, BYTE PTR [eax+20]
  0016f	84 d2		 test	 dl, dl
  00171	0f 84 bb 00 00
	00		 je	 $LN76@LoadString
  00177	80 f2 ed	 xor	 dl, -19			; ffffffedH
  0017a	88 55 f0	 mov	 BYTE PTR __k$[ebp+20], dl
  0017d	8a 50 15	 mov	 dl, BYTE PTR [eax+21]
  00180	84 d2		 test	 dl, dl
  00182	0f 84 a4 00 00
	00		 je	 $LN75@LoadString
  00188	80 f2 ec	 xor	 dl, -20			; ffffffecH
  0018b	88 55 f1	 mov	 BYTE PTR __k$[ebp+21], dl
  0018e	8a 50 16	 mov	 dl, BYTE PTR [eax+22]
  00191	84 d2		 test	 dl, dl
  00193	0f 84 8e 00 00
	00		 je	 $LN74@LoadString
  00199	32 d1		 xor	 dl, cl
  0019b	88 55 f2	 mov	 BYTE PTR __k$[ebp+22], dl
  0019e	8a 50 17	 mov	 dl, BYTE PTR [eax+23]
  001a1	84 d2		 test	 dl, dl
  001a3	74 7d		 je	 SHORT $LN73@LoadString
  001a5	32 d3		 xor	 dl, bl
  001a7	88 55 f3	 mov	 BYTE PTR __k$[ebp+23], dl
  001aa	8a 50 18	 mov	 dl, BYTE PTR [eax+24]
  001ad	84 d2		 test	 dl, dl
  001af	74 68		 je	 SHORT $LN72@LoadString
  001b1	80 f2 ed	 xor	 dl, -19			; ffffffedH
  001b4	80 78 19 00	 cmp	 BYTE PTR [eax+25], 0
  001b8	88 55 f4	 mov	 BYTE PTR __k$[ebp+24], dl
  001bb	0f 84 e5 00 00
	00		 je	 $LN111@LoadString
  001c1	8a 50 1a	 mov	 dl, BYTE PTR [eax+26]
  001c4	84 d2		 test	 dl, dl
  001c6	74 49		 je	 SHORT $LN70@LoadString
  001c8	32 d1		 xor	 dl, cl
  001ca	88 55 f6	 mov	 BYTE PTR __k$[ebp+26], dl
  001cd	8a 50 1b	 mov	 dl, BYTE PTR [eax+27]
  001d0	84 d2		 test	 dl, dl
  001d2	74 35		 je	 SHORT $LN69@LoadString
  001d4	32 d3		 xor	 dl, bl
  001d6	88 55 f7	 mov	 BYTE PTR __k$[ebp+27], dl
  001d9	8a 50 1c	 mov	 dl, BYTE PTR [eax+28]
  001dc	84 d2		 test	 dl, dl
  001de	74 20		 je	 SHORT $LN68@LoadString
  001e0	8a 40 1d	 mov	 al, BYTE PTR [eax+29]
  001e3	80 f2 ed	 xor	 dl, -19			; ffffffedH
  001e6	88 55 f8	 mov	 BYTE PTR __k$[ebp+28], dl
  001e9	84 c0		 test	 al, al
  001eb	74 0a		 je	 SHORT $LN67@LoadString
  001ed	34 ec		 xor	 al, -20			; ffffffecH
  001ef	88 45 f9	 mov	 BYTE PTR __k$[ebp+29], al
  001f2	e9 af 00 00 00	 jmp	 $LN111@LoadString
$LN67@LoadString:
  001f7	c6 45 f9 ec	 mov	 BYTE PTR __k$[ebp+29], -20 ; ffffffecH
  001fb	e9 a6 00 00 00	 jmp	 $LN111@LoadString
$LN68@LoadString:
  00200	c6 45 f8 ed	 mov	 BYTE PTR __k$[ebp+28], -19 ; ffffffedH
  00204	e9 9d 00 00 00	 jmp	 $LN111@LoadString
$LN69@LoadString:
  00209	88 5d f7	 mov	 BYTE PTR __k$[ebp+27], bl
  0020c	e9 95 00 00 00	 jmp	 $LN111@LoadString
$LN70@LoadString:
  00211	88 4d f6	 mov	 BYTE PTR __k$[ebp+26], cl
  00214	e9 8d 00 00 00	 jmp	 $LN111@LoadString
$LN72@LoadString:
  00219	c6 45 f4 ed	 mov	 BYTE PTR __k$[ebp+24], -19 ; ffffffedH
  0021d	e9 84 00 00 00	 jmp	 $LN111@LoadString
$LN73@LoadString:
  00222	88 5d f3	 mov	 BYTE PTR __k$[ebp+23], bl
  00225	eb 7f		 jmp	 SHORT $LN111@LoadString
$LN74@LoadString:
  00227	88 4d f2	 mov	 BYTE PTR __k$[ebp+22], cl
  0022a	eb 7a		 jmp	 SHORT $LN111@LoadString
$LN75@LoadString:
  0022c	c6 45 f1 ec	 mov	 BYTE PTR __k$[ebp+21], -20 ; ffffffecH
  00230	eb 74		 jmp	 SHORT $LN111@LoadString
$LN76@LoadString:
  00232	c6 45 f0 ed	 mov	 BYTE PTR __k$[ebp+20], -19 ; ffffffedH
  00236	eb 6e		 jmp	 SHORT $LN111@LoadString
$LN77@LoadString:
  00238	88 5d ef	 mov	 BYTE PTR __k$[ebp+19], bl
  0023b	eb 69		 jmp	 SHORT $LN111@LoadString
$LN78@LoadString:
  0023d	88 4d ee	 mov	 BYTE PTR __k$[ebp+18], cl
  00240	eb 64		 jmp	 SHORT $LN111@LoadString
$LN79@LoadString:
  00242	c6 45 ed ec	 mov	 BYTE PTR __k$[ebp+17], -20 ; ffffffecH
  00246	eb 5e		 jmp	 SHORT $LN111@LoadString
$LN80@LoadString:
  00248	c6 45 ec ed	 mov	 BYTE PTR __k$[ebp+16], -19 ; ffffffedH
  0024c	eb 58		 jmp	 SHORT $LN111@LoadString
$LN81@LoadString:
  0024e	88 5d eb	 mov	 BYTE PTR __k$[ebp+15], bl
  00251	eb 53		 jmp	 SHORT $LN111@LoadString
$LN82@LoadString:
  00253	88 4d ea	 mov	 BYTE PTR __k$[ebp+14], cl
  00256	eb 4e		 jmp	 SHORT $LN111@LoadString
$LN83@LoadString:
  00258	c6 45 e9 ec	 mov	 BYTE PTR __k$[ebp+13], -20 ; ffffffecH
  0025c	eb 48		 jmp	 SHORT $LN111@LoadString
$LN84@LoadString:
  0025e	c6 45 e8 ed	 mov	 BYTE PTR __k$[ebp+12], -19 ; ffffffedH
  00262	eb 42		 jmp	 SHORT $LN111@LoadString
$LN85@LoadString:
  00264	88 5d e7	 mov	 BYTE PTR __k$[ebp+11], bl
  00267	eb 3d		 jmp	 SHORT $LN111@LoadString
$LN86@LoadString:
  00269	88 4d e6	 mov	 BYTE PTR __k$[ebp+10], cl
  0026c	eb 38		 jmp	 SHORT $LN111@LoadString
$LN87@LoadString:
  0026e	c6 45 e5 ec	 mov	 BYTE PTR __k$[ebp+9], -20 ; ffffffecH
  00272	eb 32		 jmp	 SHORT $LN111@LoadString
$LN88@LoadString:
  00274	c6 45 e4 ed	 mov	 BYTE PTR __k$[ebp+8], -19 ; ffffffedH
  00278	eb 2c		 jmp	 SHORT $LN111@LoadString
$LN89@LoadString:
  0027a	88 5d e3	 mov	 BYTE PTR __k$[ebp+7], bl
  0027d	eb 27		 jmp	 SHORT $LN111@LoadString
$LN90@LoadString:
  0027f	88 4d e2	 mov	 BYTE PTR __k$[ebp+6], cl
  00282	eb 22		 jmp	 SHORT $LN111@LoadString
$LN91@LoadString:
  00284	c6 45 e1 ec	 mov	 BYTE PTR __k$[ebp+5], -20 ; ffffffecH
  00288	eb 1c		 jmp	 SHORT $LN111@LoadString
$LN92@LoadString:
  0028a	c6 45 e0 ed	 mov	 BYTE PTR __k$[ebp+4], -19 ; ffffffedH
  0028e	eb 16		 jmp	 SHORT $LN111@LoadString
$LN93@LoadString:
  00290	c6 45 df ea	 mov	 BYTE PTR __k$[ebp+3], -22 ; ffffffeaH
  00294	eb 10		 jmp	 SHORT $LN111@LoadString
$LN94@LoadString:
  00296	c6 45 de eb	 mov	 BYTE PTR __k$[ebp+2], -21 ; ffffffebH
  0029a	eb 0a		 jmp	 SHORT $LN111@LoadString
$LN95@LoadString:
  0029c	c6 45 dd ec	 mov	 BYTE PTR __k$[ebp+1], -20 ; ffffffecH
  002a0	eb 04		 jmp	 SHORT $LN111@LoadString
$LN96@LoadString:
  002a2	c6 45 dc ed	 mov	 BYTE PTR __k$[ebp], -19	; ffffffedH
$LN111@LoadString:
  002a6	6a 06		 push	 6
  002a8	8d 45 dc	 lea	 eax, DWORD PTR __k$[ebp]
  002ab	c6 45 f5 00	 mov	 BYTE PTR __k$[ebp+25], 0
  002af	5a		 pop	 edx
$LL104@LoadString:
  002b0	81 30 ed ec eb
	ea		 xor	 DWORD PTR [eax], -353637139 ; eaebecedH
  002b6	83 c0 04	 add	 eax, 4
  002b9	4a		 dec	 edx
  002ba	75 f4		 jne	 SHORT $LL104@LoadString

; 163  : 		LoadString(_k, d, b, i);

  002bc	ff 75 14	 push	 DWORD PTR _i$[ebp]
  002bf	8b 4d d8	 mov	 ecx, DWORD PTR _this$GSCopy$[ebp]
  002c2	80 75 f4 ed	 xor	 BYTE PTR __k$[ebp+24], -19 ; ffffffedH
  002c6	57		 push	 edi
  002c7	56		 push	 esi
  002c8	8d 45 dc	 lea	 eax, DWORD PTR __k$[ebp]
  002cb	50		 push	 eax
  002cc	ff 15 00 00 00
	00		 call	 DWORD PTR __imp_?LoadStringA@ioINILoader@@QAEXPBD0PADH@Z

; 164  : 	}

  002d2	8b 4d fc	 mov	 ecx, DWORD PTR __$ArrayPad$[ebp]
  002d5	5f		 pop	 edi
  002d6	5e		 pop	 esi
  002d7	33 cd		 xor	 ecx, ebp
  002d9	5b		 pop	 ebx
  002da	e8 00 00 00 00	 call	 @__security_check_cookie@4
  002df	c9		 leave
  002e0	c2 10 00	 ret	 16			; 00000010H
??$LoadString_e@$0BK@@ioINILoader@@QAEXAAY0BK@$$CBDAAY00$$CBDPADH@Z ENDP ; ioINILoader::LoadString_e<26>
_TEXT	ENDS
PUBLIC	__$ArrayPad$
PUBLIC	??$LoadFloat_e@$0BG@@ioINILoader@@QAEMAAY0BG@$$CBDM@Z ; ioINILoader::LoadFloat_e<22>
; Function compile flags: /Ogsp
;	COMDAT ??$LoadFloat_e@$0BG@@ioINILoader@@QAEMAAY0BG@$$CBDM@Z
_TEXT	SEGMENT
__k$ = -32						; size = 22
__$ArrayPad$ = -4					; size = 4
_k$ = 8							; size = 4
_f$ = 12						; size = 4
??$LoadFloat_e@$0BG@@ioINILoader@@QAEMAAY0BG@$$CBDM@Z PROC ; ioINILoader::LoadFloat_e<22>, COMDAT
; _this$ = ecx

; 135  : 	{

  00000	55		 push	 ebp
  00001	8b ec		 mov	 ebp, esp
  00003	83 ec 20	 sub	 esp, 32			; 00000020H
  00006	a1 00 00 00 00	 mov	 eax, DWORD PTR ___security_cookie
  0000b	33 c5		 xor	 eax, ebp
  0000d	89 45 fc	 mov	 DWORD PTR __$ArrayPad$[ebp], eax
  00010	8b 45 08	 mov	 eax, DWORD PTR _k$[ebp]

; 136  : 		_ENCSTR(k, _k);

  00013	8a 10		 mov	 dl, BYTE PTR [eax]
  00015	53		 push	 ebx
  00016	56		 push	 esi
  00017	8b f1		 mov	 esi, ecx
  00019	84 d2		 test	 dl, dl
  0001b	0f 84 15 02 00
	00		 je	 $LN96@LoadFloat_@3
  00021	80 f2 ed	 xor	 dl, -19			; ffffffedH
  00024	88 55 e0	 mov	 BYTE PTR __k$[ebp], dl
  00027	8a 50 01	 mov	 dl, BYTE PTR [eax+1]
  0002a	84 d2		 test	 dl, dl
  0002c	0f 84 fe 01 00
	00		 je	 $LN95@LoadFloat_@3
  00032	80 f2 ec	 xor	 dl, -20			; ffffffecH
  00035	88 55 e1	 mov	 BYTE PTR __k$[ebp+1], dl
  00038	8a 50 02	 mov	 dl, BYTE PTR [eax+2]
  0003b	84 d2		 test	 dl, dl
  0003d	0f 84 e7 01 00
	00		 je	 $LN94@LoadFloat_@3
  00043	b1 eb		 mov	 cl, -21			; ffffffebH
  00045	32 d1		 xor	 dl, cl
  00047	88 55 e2	 mov	 BYTE PTR __k$[ebp+2], dl
  0004a	8a 50 03	 mov	 dl, BYTE PTR [eax+3]
  0004d	84 d2		 test	 dl, dl
  0004f	0f 84 cf 01 00
	00		 je	 $LN93@LoadFloat_@3
  00055	b3 ea		 mov	 bl, -22			; ffffffeaH
  00057	32 d3		 xor	 dl, bl
  00059	88 55 e3	 mov	 BYTE PTR __k$[ebp+3], dl
  0005c	8a 50 04	 mov	 dl, BYTE PTR [eax+4]
  0005f	84 d2		 test	 dl, dl
  00061	0f 84 b7 01 00
	00		 je	 $LN92@LoadFloat_@3
  00067	80 f2 ed	 xor	 dl, -19			; ffffffedH
  0006a	88 55 e4	 mov	 BYTE PTR __k$[ebp+4], dl
  0006d	8a 50 05	 mov	 dl, BYTE PTR [eax+5]
  00070	84 d2		 test	 dl, dl
  00072	0f 84 a0 01 00
	00		 je	 $LN91@LoadFloat_@3
  00078	80 f2 ec	 xor	 dl, -20			; ffffffecH
  0007b	88 55 e5	 mov	 BYTE PTR __k$[ebp+5], dl
  0007e	8a 50 06	 mov	 dl, BYTE PTR [eax+6]
  00081	84 d2		 test	 dl, dl
  00083	0f 84 8a 01 00
	00		 je	 $LN90@LoadFloat_@3
  00089	32 d1		 xor	 dl, cl
  0008b	88 55 e6	 mov	 BYTE PTR __k$[ebp+6], dl
  0008e	8a 50 07	 mov	 dl, BYTE PTR [eax+7]
  00091	84 d2		 test	 dl, dl
  00093	0f 84 75 01 00
	00		 je	 $LN89@LoadFloat_@3
  00099	32 d3		 xor	 dl, bl
  0009b	88 55 e7	 mov	 BYTE PTR __k$[ebp+7], dl
  0009e	8a 50 08	 mov	 dl, BYTE PTR [eax+8]
  000a1	84 d2		 test	 dl, dl
  000a3	0f 84 5f 01 00
	00		 je	 $LN88@LoadFloat_@3
  000a9	80 f2 ed	 xor	 dl, -19			; ffffffedH
  000ac	88 55 e8	 mov	 BYTE PTR __k$[ebp+8], dl
  000af	8a 50 09	 mov	 dl, BYTE PTR [eax+9]
  000b2	84 d2		 test	 dl, dl
  000b4	0f 84 48 01 00
	00		 je	 $LN87@LoadFloat_@3
  000ba	80 f2 ec	 xor	 dl, -20			; ffffffecH
  000bd	88 55 e9	 mov	 BYTE PTR __k$[ebp+9], dl
  000c0	8a 50 0a	 mov	 dl, BYTE PTR [eax+10]
  000c3	84 d2		 test	 dl, dl
  000c5	0f 84 32 01 00
	00		 je	 $LN86@LoadFloat_@3
  000cb	32 d1		 xor	 dl, cl
  000cd	88 55 ea	 mov	 BYTE PTR __k$[ebp+10], dl
  000d0	8a 50 0b	 mov	 dl, BYTE PTR [eax+11]
  000d3	84 d2		 test	 dl, dl
  000d5	0f 84 1d 01 00
	00		 je	 $LN85@LoadFloat_@3
  000db	32 d3		 xor	 dl, bl
  000dd	88 55 eb	 mov	 BYTE PTR __k$[ebp+11], dl
  000e0	8a 50 0c	 mov	 dl, BYTE PTR [eax+12]
  000e3	84 d2		 test	 dl, dl
  000e5	0f 84 07 01 00
	00		 je	 $LN84@LoadFloat_@3
  000eb	80 f2 ed	 xor	 dl, -19			; ffffffedH
  000ee	88 55 ec	 mov	 BYTE PTR __k$[ebp+12], dl
  000f1	8a 50 0d	 mov	 dl, BYTE PTR [eax+13]
  000f4	84 d2		 test	 dl, dl
  000f6	0f 84 f0 00 00
	00		 je	 $LN83@LoadFloat_@3
  000fc	80 f2 ec	 xor	 dl, -20			; ffffffecH
  000ff	88 55 ed	 mov	 BYTE PTR __k$[ebp+13], dl
  00102	8a 50 0e	 mov	 dl, BYTE PTR [eax+14]
  00105	84 d2		 test	 dl, dl
  00107	0f 84 da 00 00
	00		 je	 $LN82@LoadFloat_@3
  0010d	32 d1		 xor	 dl, cl
  0010f	88 55 ee	 mov	 BYTE PTR __k$[ebp+14], dl
  00112	8a 50 0f	 mov	 dl, BYTE PTR [eax+15]
  00115	84 d2		 test	 dl, dl
  00117	0f 84 c5 00 00
	00		 je	 $LN81@LoadFloat_@3
  0011d	32 d3		 xor	 dl, bl
  0011f	88 55 ef	 mov	 BYTE PTR __k$[ebp+15], dl
  00122	8a 50 10	 mov	 dl, BYTE PTR [eax+16]
  00125	84 d2		 test	 dl, dl
  00127	0f 84 af 00 00
	00		 je	 $LN80@LoadFloat_@3
  0012d	80 f2 ed	 xor	 dl, -19			; ffffffedH
  00130	88 55 f0	 mov	 BYTE PTR __k$[ebp+16], dl
  00133	8a 50 11	 mov	 dl, BYTE PTR [eax+17]
  00136	84 d2		 test	 dl, dl
  00138	0f 84 98 00 00
	00		 je	 $LN79@LoadFloat_@3
  0013e	80 f2 ec	 xor	 dl, -20			; ffffffecH
  00141	88 55 f1	 mov	 BYTE PTR __k$[ebp+17], dl
  00144	8a 50 12	 mov	 dl, BYTE PTR [eax+18]
  00147	84 d2		 test	 dl, dl
  00149	0f 84 82 00 00
	00		 je	 $LN78@LoadFloat_@3
  0014f	32 d1		 xor	 dl, cl
  00151	88 55 f2	 mov	 BYTE PTR __k$[ebp+18], dl
  00154	8a 50 13	 mov	 dl, BYTE PTR [eax+19]
  00157	84 d2		 test	 dl, dl
  00159	74 71		 je	 SHORT $LN77@LoadFloat_@3
  0015b	32 d3		 xor	 dl, bl
  0015d	88 55 f3	 mov	 BYTE PTR __k$[ebp+19], dl
  00160	8a 50 14	 mov	 dl, BYTE PTR [eax+20]
  00163	84 d2		 test	 dl, dl
  00165	74 5f		 je	 SHORT $LN76@LoadFloat_@3
  00167	80 f2 ed	 xor	 dl, -19			; ffffffedH
  0016a	80 78 15 00	 cmp	 BYTE PTR [eax+21], 0
  0016e	88 55 f4	 mov	 BYTE PTR __k$[ebp+20], dl
  00171	0f 84 c3 00 00
	00		 je	 $LN1@LoadFloat_@3
  00177	8a 50 16	 mov	 dl, BYTE PTR [eax+22]
  0017a	84 d2		 test	 dl, dl
  0017c	74 43		 je	 SHORT $LN74@LoadFloat_@3
  0017e	32 d1		 xor	 dl, cl
  00180	88 55 f6	 mov	 BYTE PTR __k$[ebp+22], dl
  00183	8a 50 17	 mov	 dl, BYTE PTR [eax+23]
  00186	84 d2		 test	 dl, dl
  00188	74 32		 je	 SHORT $LN73@LoadFloat_@3
  0018a	32 d3		 xor	 dl, bl
  0018c	88 55 f7	 mov	 BYTE PTR __k$[ebp+23], dl
  0018f	8a 50 18	 mov	 dl, BYTE PTR [eax+24]
  00192	84 d2		 test	 dl, dl
  00194	74 20		 je	 SHORT $LN72@LoadFloat_@3
  00196	8a 40 19	 mov	 al, BYTE PTR [eax+25]
  00199	80 f2 ed	 xor	 dl, -19			; ffffffedH
  0019c	88 55 f8	 mov	 BYTE PTR __k$[ebp+24], dl
  0019f	84 c0		 test	 al, al
  001a1	74 0a		 je	 SHORT $LN71@LoadFloat_@3
  001a3	34 ec		 xor	 al, -20			; ffffffecH
  001a5	88 45 f9	 mov	 BYTE PTR __k$[ebp+25], al
  001a8	e9 8d 00 00 00	 jmp	 $LN1@LoadFloat_@3
$LN71@LoadFloat_@3:
  001ad	c6 45 f9 ec	 mov	 BYTE PTR __k$[ebp+25], -20 ; ffffffecH
  001b1	e9 84 00 00 00	 jmp	 $LN1@LoadFloat_@3
$LN72@LoadFloat_@3:
  001b6	c6 45 f8 ed	 mov	 BYTE PTR __k$[ebp+24], -19 ; ffffffedH
  001ba	eb 7e		 jmp	 SHORT $LN1@LoadFloat_@3
$LN73@LoadFloat_@3:
  001bc	88 5d f7	 mov	 BYTE PTR __k$[ebp+23], bl
  001bf	eb 79		 jmp	 SHORT $LN1@LoadFloat_@3
$LN74@LoadFloat_@3:
  001c1	88 4d f6	 mov	 BYTE PTR __k$[ebp+22], cl
  001c4	eb 74		 jmp	 SHORT $LN1@LoadFloat_@3
$LN76@LoadFloat_@3:
  001c6	c6 45 f4 ed	 mov	 BYTE PTR __k$[ebp+20], -19 ; ffffffedH
  001ca	eb 6e		 jmp	 SHORT $LN1@LoadFloat_@3
$LN77@LoadFloat_@3:
  001cc	88 5d f3	 mov	 BYTE PTR __k$[ebp+19], bl
  001cf	eb 69		 jmp	 SHORT $LN1@LoadFloat_@3
$LN78@LoadFloat_@3:
  001d1	88 4d f2	 mov	 BYTE PTR __k$[ebp+18], cl
  001d4	eb 64		 jmp	 SHORT $LN1@LoadFloat_@3
$LN79@LoadFloat_@3:
  001d6	c6 45 f1 ec	 mov	 BYTE PTR __k$[ebp+17], -20 ; ffffffecH
  001da	eb 5e		 jmp	 SHORT $LN1@LoadFloat_@3
$LN80@LoadFloat_@3:
  001dc	c6 45 f0 ed	 mov	 BYTE PTR __k$[ebp+16], -19 ; ffffffedH
  001e0	eb 58		 jmp	 SHORT $LN1@LoadFloat_@3
$LN81@LoadFloat_@3:
  001e2	88 5d ef	 mov	 BYTE PTR __k$[ebp+15], bl
  001e5	eb 53		 jmp	 SHORT $LN1@LoadFloat_@3
$LN82@LoadFloat_@3:
  001e7	88 4d ee	 mov	 BYTE PTR __k$[ebp+14], cl
  001ea	eb 4e		 jmp	 SHORT $LN1@LoadFloat_@3
$LN83@LoadFloat_@3:
  001ec	c6 45 ed ec	 mov	 BYTE PTR __k$[ebp+13], -20 ; ffffffecH
  001f0	eb 48		 jmp	 SHORT $LN1@LoadFloat_@3
$LN84@LoadFloat_@3:
  001f2	c6 45 ec ed	 mov	 BYTE PTR __k$[ebp+12], -19 ; ffffffedH
  001f6	eb 42		 jmp	 SHORT $LN1@LoadFloat_@3
$LN85@LoadFloat_@3:
  001f8	88 5d eb	 mov	 BYTE PTR __k$[ebp+11], bl
  001fb	eb 3d		 jmp	 SHORT $LN1@LoadFloat_@3
$LN86@LoadFloat_@3:
  001fd	88 4d ea	 mov	 BYTE PTR __k$[ebp+10], cl
  00200	eb 38		 jmp	 SHORT $LN1@LoadFloat_@3
$LN87@LoadFloat_@3:
  00202	c6 45 e9 ec	 mov	 BYTE PTR __k$[ebp+9], -20 ; ffffffecH
  00206	eb 32		 jmp	 SHORT $LN1@LoadFloat_@3
$LN88@LoadFloat_@3:
  00208	c6 45 e8 ed	 mov	 BYTE PTR __k$[ebp+8], -19 ; ffffffedH
  0020c	eb 2c		 jmp	 SHORT $LN1@LoadFloat_@3
$LN89@LoadFloat_@3:
  0020e	88 5d e7	 mov	 BYTE PTR __k$[ebp+7], bl
  00211	eb 27		 jmp	 SHORT $LN1@LoadFloat_@3
$LN90@LoadFloat_@3:
  00213	88 4d e6	 mov	 BYTE PTR __k$[ebp+6], cl
  00216	eb 22		 jmp	 SHORT $LN1@LoadFloat_@3
$LN91@LoadFloat_@3:
  00218	c6 45 e5 ec	 mov	 BYTE PTR __k$[ebp+5], -20 ; ffffffecH
  0021c	eb 1c		 jmp	 SHORT $LN1@LoadFloat_@3
$LN92@LoadFloat_@3:
  0021e	c6 45 e4 ed	 mov	 BYTE PTR __k$[ebp+4], -19 ; ffffffedH
  00222	eb 16		 jmp	 SHORT $LN1@LoadFloat_@3
$LN93@LoadFloat_@3:
  00224	c6 45 e3 ea	 mov	 BYTE PTR __k$[ebp+3], -22 ; ffffffeaH
  00228	eb 10		 jmp	 SHORT $LN1@LoadFloat_@3
$LN94@LoadFloat_@3:
  0022a	c6 45 e2 eb	 mov	 BYTE PTR __k$[ebp+2], -21 ; ffffffebH
  0022e	eb 0a		 jmp	 SHORT $LN1@LoadFloat_@3
$LN95@LoadFloat_@3:
  00230	c6 45 e1 ec	 mov	 BYTE PTR __k$[ebp+1], -20 ; ffffffecH
  00234	eb 04		 jmp	 SHORT $LN1@LoadFloat_@3
$LN96@LoadFloat_@3:
  00236	c6 45 e0 ed	 mov	 BYTE PTR __k$[ebp], -19	; ffffffedH
$LN1@LoadFloat_@3:
  0023a	6a 05		 push	 5
  0023c	8d 45 e0	 lea	 eax, DWORD PTR __k$[ebp]
  0023f	c6 45 f5 00	 mov	 BYTE PTR __k$[ebp+21], 0
  00243	5a		 pop	 edx
$LL104@LoadFloat_@3:
  00244	81 30 ed ec eb
	ea		 xor	 DWORD PTR [eax], -353637139 ; eaebecedH
  0024a	83 c0 04	 add	 eax, 4
  0024d	4a		 dec	 edx
  0024e	75 f4		 jne	 SHORT $LL104@LoadFloat_@3

; 137  : 		return LoadFloat(_k, f);

  00250	f3 0f 10 45 0c	 movss	 xmm0, DWORD PTR _f$[ebp]
  00255	80 75 f4 ed	 xor	 BYTE PTR __k$[ebp+20], -19 ; ffffffedH
  00259	51		 push	 ecx
  0025a	8d 45 e0	 lea	 eax, DWORD PTR __k$[ebp]
  0025d	f3 0f 11 04 24	 movss	 DWORD PTR [esp], xmm0
  00262	50		 push	 eax
  00263	8b ce		 mov	 ecx, esi
  00265	ff 15 00 00 00
	00		 call	 DWORD PTR __imp_?LoadFloat@ioINILoader@@QAEMPBDM@Z

; 138  : 	}

  0026b	8b 4d fc	 mov	 ecx, DWORD PTR __$ArrayPad$[ebp]
  0026e	5e		 pop	 esi
  0026f	33 cd		 xor	 ecx, ebp
  00271	5b		 pop	 ebx
  00272	e8 00 00 00 00	 call	 @__security_check_cookie@4
  00277	c9		 leave
  00278	c2 08 00	 ret	 8
??$LoadFloat_e@$0BG@@ioINILoader@@QAEMAAY0BG@$$CBDM@Z ENDP ; ioINILoader::LoadFloat_e<22>
_TEXT	ENDS
PUBLIC	__$ArrayPad$
PUBLIC	??$LoadFloat_e@$0BI@@ioINILoader@@QAEMAAY0BI@$$CBDM@Z ; ioINILoader::LoadFloat_e<24>
; Function compile flags: /Ogsp
;	COMDAT ??$LoadFloat_e@$0BI@@ioINILoader@@QAEMAAY0BI@$$CBDM@Z
_TEXT	SEGMENT
__k$ = -32						; size = 24
__$ArrayPad$ = -4					; size = 4
_k$ = 8							; size = 4
_f$ = 12						; size = 4
??$LoadFloat_e@$0BI@@ioINILoader@@QAEMAAY0BI@$$CBDM@Z PROC ; ioINILoader::LoadFloat_e<24>, COMDAT
; _this$ = ecx

; 135  : 	{

  00000	55		 push	 ebp
  00001	8b ec		 mov	 ebp, esp
  00003	83 ec 20	 sub	 esp, 32			; 00000020H
  00006	a1 00 00 00 00	 mov	 eax, DWORD PTR ___security_cookie
  0000b	33 c5		 xor	 eax, ebp
  0000d	89 45 fc	 mov	 DWORD PTR __$ArrayPad$[ebp], eax
  00010	8b 45 08	 mov	 eax, DWORD PTR _k$[ebp]

; 136  : 		_ENCSTR(k, _k);

  00013	8a 10		 mov	 dl, BYTE PTR [eax]
  00015	53		 push	 ebx
  00016	56		 push	 esi
  00017	8b f1		 mov	 esi, ecx
  00019	84 d2		 test	 dl, dl
  0001b	0f 84 45 02 00
	00		 je	 $LN96@LoadFloat_@4
  00021	80 f2 ed	 xor	 dl, -19			; ffffffedH
  00024	88 55 e0	 mov	 BYTE PTR __k$[ebp], dl
  00027	8a 50 01	 mov	 dl, BYTE PTR [eax+1]
  0002a	84 d2		 test	 dl, dl
  0002c	0f 84 2e 02 00
	00		 je	 $LN95@LoadFloat_@4
  00032	b3 ec		 mov	 bl, -20			; ffffffecH
  00034	32 d3		 xor	 dl, bl
  00036	88 55 e1	 mov	 BYTE PTR __k$[ebp+1], dl
  00039	8a 50 02	 mov	 dl, BYTE PTR [eax+2]
  0003c	84 d2		 test	 dl, dl
  0003e	0f 84 16 02 00
	00		 je	 $LN94@LoadFloat_@4
  00044	b1 eb		 mov	 cl, -21			; ffffffebH
  00046	32 d1		 xor	 dl, cl
  00048	88 55 e2	 mov	 BYTE PTR __k$[ebp+2], dl
  0004b	8a 50 03	 mov	 dl, BYTE PTR [eax+3]
  0004e	84 d2		 test	 dl, dl
  00050	0f 84 fe 01 00
	00		 je	 $LN93@LoadFloat_@4
  00056	80 f2 ea	 xor	 dl, -22			; ffffffeaH
  00059	88 55 e3	 mov	 BYTE PTR __k$[ebp+3], dl
  0005c	8a 50 04	 mov	 dl, BYTE PTR [eax+4]
  0005f	84 d2		 test	 dl, dl
  00061	0f 84 e7 01 00
	00		 je	 $LN92@LoadFloat_@4
  00067	80 f2 ed	 xor	 dl, -19			; ffffffedH
  0006a	88 55 e4	 mov	 BYTE PTR __k$[ebp+4], dl
  0006d	8a 50 05	 mov	 dl, BYTE PTR [eax+5]
  00070	84 d2		 test	 dl, dl
  00072	0f 84 d1 01 00
	00		 je	 $LN91@LoadFloat_@4
  00078	32 d3		 xor	 dl, bl
  0007a	88 55 e5	 mov	 BYTE PTR __k$[ebp+5], dl
  0007d	8a 50 06	 mov	 dl, BYTE PTR [eax+6]
  00080	84 d2		 test	 dl, dl
  00082	0f 84 bc 01 00
	00		 je	 $LN90@LoadFloat_@4
  00088	32 d1		 xor	 dl, cl
  0008a	88 55 e6	 mov	 BYTE PTR __k$[ebp+6], dl
  0008d	8a 50 07	 mov	 dl, BYTE PTR [eax+7]
  00090	84 d2		 test	 dl, dl
  00092	0f 84 a6 01 00
	00		 je	 $LN89@LoadFloat_@4
  00098	80 f2 ea	 xor	 dl, -22			; ffffffeaH
  0009b	88 55 e7	 mov	 BYTE PTR __k$[ebp+7], dl
  0009e	8a 50 08	 mov	 dl, BYTE PTR [eax+8]
  000a1	84 d2		 test	 dl, dl
  000a3	0f 84 8f 01 00
	00		 je	 $LN88@LoadFloat_@4
  000a9	80 f2 ed	 xor	 dl, -19			; ffffffedH
  000ac	88 55 e8	 mov	 BYTE PTR __k$[ebp+8], dl
  000af	8a 50 09	 mov	 dl, BYTE PTR [eax+9]
  000b2	84 d2		 test	 dl, dl
  000b4	0f 84 79 01 00
	00		 je	 $LN87@LoadFloat_@4
  000ba	32 d3		 xor	 dl, bl
  000bc	88 55 e9	 mov	 BYTE PTR __k$[ebp+9], dl
  000bf	8a 50 0a	 mov	 dl, BYTE PTR [eax+10]
  000c2	84 d2		 test	 dl, dl
  000c4	0f 84 64 01 00
	00		 je	 $LN86@LoadFloat_@4
  000ca	32 d1		 xor	 dl, cl
  000cc	88 55 ea	 mov	 BYTE PTR __k$[ebp+10], dl
  000cf	8a 50 0b	 mov	 dl, BYTE PTR [eax+11]
  000d2	84 d2		 test	 dl, dl
  000d4	0f 84 4e 01 00
	00		 je	 $LN85@LoadFloat_@4
  000da	80 f2 ea	 xor	 dl, -22			; ffffffeaH
  000dd	88 55 eb	 mov	 BYTE PTR __k$[ebp+11], dl
  000e0	8a 50 0c	 mov	 dl, BYTE PTR [eax+12]
  000e3	84 d2		 test	 dl, dl
  000e5	0f 84 37 01 00
	00		 je	 $LN84@LoadFloat_@4
  000eb	80 f2 ed	 xor	 dl, -19			; ffffffedH
  000ee	88 55 ec	 mov	 BYTE PTR __k$[ebp+12], dl
  000f1	8a 50 0d	 mov	 dl, BYTE PTR [eax+13]
  000f4	84 d2		 test	 dl, dl
  000f6	0f 84 21 01 00
	00		 je	 $LN83@LoadFloat_@4
  000fc	32 d3		 xor	 dl, bl
  000fe	88 55 ed	 mov	 BYTE PTR __k$[ebp+13], dl
  00101	8a 50 0e	 mov	 dl, BYTE PTR [eax+14]
  00104	84 d2		 test	 dl, dl
  00106	0f 84 0c 01 00
	00		 je	 $LN82@LoadFloat_@4
  0010c	32 d1		 xor	 dl, cl
  0010e	88 55 ee	 mov	 BYTE PTR __k$[ebp+14], dl
  00111	8a 50 0f	 mov	 dl, BYTE PTR [eax+15]
  00114	84 d2		 test	 dl, dl
  00116	0f 84 f6 00 00
	00		 je	 $LN81@LoadFloat_@4
  0011c	80 f2 ea	 xor	 dl, -22			; ffffffeaH
  0011f	88 55 ef	 mov	 BYTE PTR __k$[ebp+15], dl
  00122	8a 50 10	 mov	 dl, BYTE PTR [eax+16]
  00125	84 d2		 test	 dl, dl
  00127	0f 84 df 00 00
	00		 je	 $LN80@LoadFloat_@4
  0012d	80 f2 ed	 xor	 dl, -19			; ffffffedH
  00130	88 55 f0	 mov	 BYTE PTR __k$[ebp+16], dl
  00133	8a 50 11	 mov	 dl, BYTE PTR [eax+17]
  00136	84 d2		 test	 dl, dl
  00138	0f 84 c9 00 00
	00		 je	 $LN79@LoadFloat_@4
  0013e	32 d3		 xor	 dl, bl
  00140	88 55 f1	 mov	 BYTE PTR __k$[ebp+17], dl
  00143	8a 50 12	 mov	 dl, BYTE PTR [eax+18]
  00146	84 d2		 test	 dl, dl
  00148	0f 84 b4 00 00
	00		 je	 $LN78@LoadFloat_@4
  0014e	32 d1		 xor	 dl, cl
  00150	88 55 f2	 mov	 BYTE PTR __k$[ebp+18], dl
  00153	8a 50 13	 mov	 dl, BYTE PTR [eax+19]
  00156	84 d2		 test	 dl, dl
  00158	0f 84 9e 00 00
	00		 je	 $LN77@LoadFloat_@4
  0015e	80 f2 ea	 xor	 dl, -22			; ffffffeaH
  00161	88 55 f3	 mov	 BYTE PTR __k$[ebp+19], dl
  00164	8a 50 14	 mov	 dl, BYTE PTR [eax+20]
  00167	84 d2		 test	 dl, dl
  00169	0f 84 87 00 00
	00		 je	 $LN76@LoadFloat_@4
  0016f	80 f2 ed	 xor	 dl, -19			; ffffffedH
  00172	88 55 f4	 mov	 BYTE PTR __k$[ebp+20], dl
  00175	8a 50 15	 mov	 dl, BYTE PTR [eax+21]
  00178	84 d2		 test	 dl, dl
  0017a	74 75		 je	 SHORT $LN75@LoadFloat_@4
  0017c	32 d3		 xor	 dl, bl
  0017e	88 55 f5	 mov	 BYTE PTR __k$[ebp+21], dl
  00181	8a 50 16	 mov	 dl, BYTE PTR [eax+22]
  00184	84 d2		 test	 dl, dl
  00186	74 64		 je	 SHORT $LN74@LoadFloat_@4
  00188	32 d1		 xor	 dl, cl
  0018a	80 78 17 00	 cmp	 BYTE PTR [eax+23], 0
  0018e	88 55 f6	 mov	 BYTE PTR __k$[ebp+22], dl
  00191	0f 84 d3 00 00
	00		 je	 $LN1@LoadFloat_@4
  00197	8a 50 18	 mov	 dl, BYTE PTR [eax+24]
  0019a	84 d2		 test	 dl, dl
  0019c	74 48		 je	 SHORT $LN72@LoadFloat_@4
  0019e	80 f2 ed	 xor	 dl, -19			; ffffffedH
  001a1	88 55 f8	 mov	 BYTE PTR __k$[ebp+24], dl
  001a4	8a 50 19	 mov	 dl, BYTE PTR [eax+25]
  001a7	84 d2		 test	 dl, dl
  001a9	74 33		 je	 SHORT $LN71@LoadFloat_@4
  001ab	32 d3		 xor	 dl, bl
  001ad	88 55 f9	 mov	 BYTE PTR __k$[ebp+25], dl
  001b0	8a 50 1a	 mov	 dl, BYTE PTR [eax+26]
  001b3	84 d2		 test	 dl, dl
  001b5	74 1f		 je	 SHORT $LN70@LoadFloat_@4
  001b7	8a 40 1b	 mov	 al, BYTE PTR [eax+27]
  001ba	32 d1		 xor	 dl, cl
  001bc	88 55 fa	 mov	 BYTE PTR __k$[ebp+26], dl
  001bf	84 c0		 test	 al, al
  001c1	74 0a		 je	 SHORT $LN69@LoadFloat_@4
  001c3	34 ea		 xor	 al, -22			; ffffffeaH
  001c5	88 45 fb	 mov	 BYTE PTR __k$[ebp+27], al
  001c8	e9 9d 00 00 00	 jmp	 $LN1@LoadFloat_@4
$LN69@LoadFloat_@4:
  001cd	c6 45 fb ea	 mov	 BYTE PTR __k$[ebp+27], -22 ; ffffffeaH
  001d1	e9 94 00 00 00	 jmp	 $LN1@LoadFloat_@4
$LN70@LoadFloat_@4:
  001d6	88 4d fa	 mov	 BYTE PTR __k$[ebp+26], cl
  001d9	e9 8c 00 00 00	 jmp	 $LN1@LoadFloat_@4
$LN71@LoadFloat_@4:
  001de	88 5d f9	 mov	 BYTE PTR __k$[ebp+25], bl
  001e1	e9 84 00 00 00	 jmp	 $LN1@LoadFloat_@4
$LN72@LoadFloat_@4:
  001e6	c6 45 f8 ed	 mov	 BYTE PTR __k$[ebp+24], -19 ; ffffffedH
  001ea	eb 7e		 jmp	 SHORT $LN1@LoadFloat_@4
$LN74@LoadFloat_@4:
  001ec	88 4d f6	 mov	 BYTE PTR __k$[ebp+22], cl
  001ef	eb 79		 jmp	 SHORT $LN1@LoadFloat_@4
$LN75@LoadFloat_@4:
  001f1	88 5d f5	 mov	 BYTE PTR __k$[ebp+21], bl
  001f4	eb 74		 jmp	 SHORT $LN1@LoadFloat_@4
$LN76@LoadFloat_@4:
  001f6	c6 45 f4 ed	 mov	 BYTE PTR __k$[ebp+20], -19 ; ffffffedH
  001fa	eb 6e		 jmp	 SHORT $LN1@LoadFloat_@4
$LN77@LoadFloat_@4:
  001fc	c6 45 f3 ea	 mov	 BYTE PTR __k$[ebp+19], -22 ; ffffffeaH
  00200	eb 68		 jmp	 SHORT $LN1@LoadFloat_@4
$LN78@LoadFloat_@4:
  00202	88 4d f2	 mov	 BYTE PTR __k$[ebp+18], cl
  00205	eb 63		 jmp	 SHORT $LN1@LoadFloat_@4
$LN79@LoadFloat_@4:
  00207	88 5d f1	 mov	 BYTE PTR __k$[ebp+17], bl
  0020a	eb 5e		 jmp	 SHORT $LN1@LoadFloat_@4
$LN80@LoadFloat_@4:
  0020c	c6 45 f0 ed	 mov	 BYTE PTR __k$[ebp+16], -19 ; ffffffedH
  00210	eb 58		 jmp	 SHORT $LN1@LoadFloat_@4
$LN81@LoadFloat_@4:
  00212	c6 45 ef ea	 mov	 BYTE PTR __k$[ebp+15], -22 ; ffffffeaH
  00216	eb 52		 jmp	 SHORT $LN1@LoadFloat_@4
$LN82@LoadFloat_@4:
  00218	88 4d ee	 mov	 BYTE PTR __k$[ebp+14], cl
  0021b	eb 4d		 jmp	 SHORT $LN1@LoadFloat_@4
$LN83@LoadFloat_@4:
  0021d	88 5d ed	 mov	 BYTE PTR __k$[ebp+13], bl
  00220	eb 48		 jmp	 SHORT $LN1@LoadFloat_@4
$LN84@LoadFloat_@4:
  00222	c6 45 ec ed	 mov	 BYTE PTR __k$[ebp+12], -19 ; ffffffedH
  00226	eb 42		 jmp	 SHORT $LN1@LoadFloat_@4
$LN85@LoadFloat_@4:
  00228	c6 45 eb ea	 mov	 BYTE PTR __k$[ebp+11], -22 ; ffffffeaH
  0022c	eb 3c		 jmp	 SHORT $LN1@LoadFloat_@4
$LN86@LoadFloat_@4:
  0022e	88 4d ea	 mov	 BYTE PTR __k$[ebp+10], cl
  00231	eb 37		 jmp	 SHORT $LN1@LoadFloat_@4
$LN87@LoadFloat_@4:
  00233	88 5d e9	 mov	 BYTE PTR __k$[ebp+9], bl
  00236	eb 32		 jmp	 SHORT $LN1@LoadFloat_@4
$LN88@LoadFloat_@4:
  00238	c6 45 e8 ed	 mov	 BYTE PTR __k$[ebp+8], -19 ; ffffffedH
  0023c	eb 2c		 jmp	 SHORT $LN1@LoadFloat_@4
$LN89@LoadFloat_@4:
  0023e	c6 45 e7 ea	 mov	 BYTE PTR __k$[ebp+7], -22 ; ffffffeaH
  00242	eb 26		 jmp	 SHORT $LN1@LoadFloat_@4
$LN90@LoadFloat_@4:
  00244	88 4d e6	 mov	 BYTE PTR __k$[ebp+6], cl
  00247	eb 21		 jmp	 SHORT $LN1@LoadFloat_@4
$LN91@LoadFloat_@4:
  00249	88 5d e5	 mov	 BYTE PTR __k$[ebp+5], bl
  0024c	eb 1c		 jmp	 SHORT $LN1@LoadFloat_@4
$LN92@LoadFloat_@4:
  0024e	c6 45 e4 ed	 mov	 BYTE PTR __k$[ebp+4], -19 ; ffffffedH
  00252	eb 16		 jmp	 SHORT $LN1@LoadFloat_@4
$LN93@LoadFloat_@4:
  00254	c6 45 e3 ea	 mov	 BYTE PTR __k$[ebp+3], -22 ; ffffffeaH
  00258	eb 10		 jmp	 SHORT $LN1@LoadFloat_@4
$LN94@LoadFloat_@4:
  0025a	c6 45 e2 eb	 mov	 BYTE PTR __k$[ebp+2], -21 ; ffffffebH
  0025e	eb 0a		 jmp	 SHORT $LN1@LoadFloat_@4
$LN95@LoadFloat_@4:
  00260	c6 45 e1 ec	 mov	 BYTE PTR __k$[ebp+1], -20 ; ffffffecH
  00264	eb 04		 jmp	 SHORT $LN1@LoadFloat_@4
$LN96@LoadFloat_@4:
  00266	c6 45 e0 ed	 mov	 BYTE PTR __k$[ebp], -19	; ffffffedH
$LN1@LoadFloat_@4:
  0026a	6a 05		 push	 5
  0026c	8d 45 e0	 lea	 eax, DWORD PTR __k$[ebp]
  0026f	c6 45 f7 00	 mov	 BYTE PTR __k$[ebp+23], 0
  00273	5a		 pop	 edx
$LL104@LoadFloat_@4:
  00274	81 30 ed ec eb
	ea		 xor	 DWORD PTR [eax], -353637139 ; eaebecedH
  0027a	83 c0 04	 add	 eax, 4
  0027d	4a		 dec	 edx
  0027e	75 f4		 jne	 SHORT $LL104@LoadFloat_@4
  00280	6a 14		 push	 20			; 00000014H
  00282	58		 pop	 eax
$LL101@LoadFloat_@4:
  00283	8b c8		 mov	 ecx, eax
  00285	81 e1 03 00 00
	80		 and	 ecx, -2147483645	; 80000003H
  0028b	79 05		 jns	 SHORT $LN111@LoadFloat_@4
  0028d	49		 dec	 ecx
  0028e	83 c9 fc	 or	 ecx, -4			; fffffffcH
  00291	41		 inc	 ecx
$LN111@LoadFloat_@4:
  00292	b2 ed		 mov	 dl, -19			; ffffffedH
  00294	2a d1		 sub	 dl, cl
  00296	30 54 05 e0	 xor	 BYTE PTR __k$[ebp+eax], dl
  0029a	40		 inc	 eax
  0029b	83 f8 17	 cmp	 eax, 23			; 00000017H
  0029e	7c e3		 jl	 SHORT $LL101@LoadFloat_@4

; 137  : 		return LoadFloat(_k, f);

  002a0	f3 0f 10 45 0c	 movss	 xmm0, DWORD PTR _f$[ebp]
  002a5	51		 push	 ecx
  002a6	8d 45 e0	 lea	 eax, DWORD PTR __k$[ebp]
  002a9	f3 0f 11 04 24	 movss	 DWORD PTR [esp], xmm0
  002ae	50		 push	 eax
  002af	8b ce		 mov	 ecx, esi
  002b1	ff 15 00 00 00
	00		 call	 DWORD PTR __imp_?LoadFloat@ioINILoader@@QAEMPBDM@Z

; 138  : 	}

  002b7	8b 4d fc	 mov	 ecx, DWORD PTR __$ArrayPad$[ebp]
  002ba	5e		 pop	 esi
  002bb	33 cd		 xor	 ecx, ebp
  002bd	5b		 pop	 ebx
  002be	e8 00 00 00 00	 call	 @__security_check_cookie@4
  002c3	c9		 leave
  002c4	c2 08 00	 ret	 8
??$LoadFloat_e@$0BI@@ioINILoader@@QAEMAAY0BI@$$CBDM@Z ENDP ; ioINILoader::LoadFloat_e<24>
_TEXT	ENDS
PUBLIC	__$ArrayPad$
PUBLIC	??$LoadInt_e@$0BJ@@ioINILoader@@QAEHAAY0BJ@$$CBDH@Z ; ioINILoader::LoadInt_e<25>
EXTRN	__imp_?LoadInt@ioINILoader@@QAEHPBDH@Z:PROC
; Function compile flags: /Ogsp
;	COMDAT ??$LoadInt_e@$0BJ@@ioINILoader@@QAEHAAY0BJ@$$CBDH@Z
_TEXT	SEGMENT
__k$ = -36						; size = 25
__$ArrayPad$ = -4					; size = 4
_k$ = 8							; size = 4
_i$ = 12						; size = 4
??$LoadInt_e@$0BJ@@ioINILoader@@QAEHAAY0BJ@$$CBDH@Z PROC ; ioINILoader::LoadInt_e<25>, COMDAT
; _this$ = ecx

; 118  : 	{

  00000	55		 push	 ebp
  00001	8b ec		 mov	 ebp, esp
  00003	83 ec 24	 sub	 esp, 36			; 00000024H
  00006	a1 00 00 00 00	 mov	 eax, DWORD PTR ___security_cookie
  0000b	33 c5		 xor	 eax, ebp
  0000d	89 45 fc	 mov	 DWORD PTR __$ArrayPad$[ebp], eax
  00010	8b 45 08	 mov	 eax, DWORD PTR _k$[ebp]

; 119  : 		_ENCSTR(k, _k);

  00013	8a 10		 mov	 dl, BYTE PTR [eax]
  00015	53		 push	 ebx
  00016	56		 push	 esi
  00017	8b f1		 mov	 esi, ecx
  00019	84 d2		 test	 dl, dl
  0001b	0f 84 5f 02 00
	00		 je	 $LN96@LoadInt_e
  00021	80 f2 ed	 xor	 dl, -19			; ffffffedH
  00024	88 55 dc	 mov	 BYTE PTR __k$[ebp], dl
  00027	8a 50 01	 mov	 dl, BYTE PTR [eax+1]
  0002a	84 d2		 test	 dl, dl
  0002c	0f 84 48 02 00
	00		 je	 $LN95@LoadInt_e
  00032	b1 ec		 mov	 cl, -20			; ffffffecH
  00034	32 d1		 xor	 dl, cl
  00036	88 55 dd	 mov	 BYTE PTR __k$[ebp+1], dl
  00039	8a 50 02	 mov	 dl, BYTE PTR [eax+2]
  0003c	84 d2		 test	 dl, dl
  0003e	0f 84 30 02 00
	00		 je	 $LN94@LoadInt_e
  00044	b3 eb		 mov	 bl, -21			; ffffffebH
  00046	32 d3		 xor	 dl, bl
  00048	88 55 de	 mov	 BYTE PTR __k$[ebp+2], dl
  0004b	8a 50 03	 mov	 dl, BYTE PTR [eax+3]
  0004e	84 d2		 test	 dl, dl
  00050	0f 84 18 02 00
	00		 je	 $LN93@LoadInt_e
  00056	80 f2 ea	 xor	 dl, -22			; ffffffeaH
  00059	88 55 df	 mov	 BYTE PTR __k$[ebp+3], dl
  0005c	8a 50 04	 mov	 dl, BYTE PTR [eax+4]
  0005f	84 d2		 test	 dl, dl
  00061	0f 84 01 02 00
	00		 je	 $LN92@LoadInt_e
  00067	80 f2 ed	 xor	 dl, -19			; ffffffedH
  0006a	88 55 e0	 mov	 BYTE PTR __k$[ebp+4], dl
  0006d	8a 50 05	 mov	 dl, BYTE PTR [eax+5]
  00070	84 d2		 test	 dl, dl
  00072	0f 84 eb 01 00
	00		 je	 $LN91@LoadInt_e
  00078	32 d1		 xor	 dl, cl
  0007a	88 55 e1	 mov	 BYTE PTR __k$[ebp+5], dl
  0007d	8a 50 06	 mov	 dl, BYTE PTR [eax+6]
  00080	84 d2		 test	 dl, dl
  00082	0f 84 d6 01 00
	00		 je	 $LN90@LoadInt_e
  00088	32 d3		 xor	 dl, bl
  0008a	88 55 e2	 mov	 BYTE PTR __k$[ebp+6], dl
  0008d	8a 50 07	 mov	 dl, BYTE PTR [eax+7]
  00090	84 d2		 test	 dl, dl
  00092	0f 84 c0 01 00
	00		 je	 $LN89@LoadInt_e
  00098	80 f2 ea	 xor	 dl, -22			; ffffffeaH
  0009b	88 55 e3	 mov	 BYTE PTR __k$[ebp+7], dl
  0009e	8a 50 08	 mov	 dl, BYTE PTR [eax+8]
  000a1	84 d2		 test	 dl, dl
  000a3	0f 84 a9 01 00
	00		 je	 $LN88@LoadInt_e
  000a9	80 f2 ed	 xor	 dl, -19			; ffffffedH
  000ac	88 55 e4	 mov	 BYTE PTR __k$[ebp+8], dl
  000af	8a 50 09	 mov	 dl, BYTE PTR [eax+9]
  000b2	84 d2		 test	 dl, dl
  000b4	0f 84 93 01 00
	00		 je	 $LN87@LoadInt_e
  000ba	32 d1		 xor	 dl, cl
  000bc	88 55 e5	 mov	 BYTE PTR __k$[ebp+9], dl
  000bf	8a 50 0a	 mov	 dl, BYTE PTR [eax+10]
  000c2	84 d2		 test	 dl, dl
  000c4	0f 84 7e 01 00
	00		 je	 $LN86@LoadInt_e
  000ca	32 d3		 xor	 dl, bl
  000cc	88 55 e6	 mov	 BYTE PTR __k$[ebp+10], dl
  000cf	8a 50 0b	 mov	 dl, BYTE PTR [eax+11]
  000d2	84 d2		 test	 dl, dl
  000d4	0f 84 68 01 00
	00		 je	 $LN85@LoadInt_e
  000da	80 f2 ea	 xor	 dl, -22			; ffffffeaH
  000dd	88 55 e7	 mov	 BYTE PTR __k$[ebp+11], dl
  000e0	8a 50 0c	 mov	 dl, BYTE PTR [eax+12]
  000e3	84 d2		 test	 dl, dl
  000e5	0f 84 51 01 00
	00		 je	 $LN84@LoadInt_e
  000eb	80 f2 ed	 xor	 dl, -19			; ffffffedH
  000ee	88 55 e8	 mov	 BYTE PTR __k$[ebp+12], dl
  000f1	8a 50 0d	 mov	 dl, BYTE PTR [eax+13]
  000f4	84 d2		 test	 dl, dl
  000f6	0f 84 3b 01 00
	00		 je	 $LN83@LoadInt_e
  000fc	32 d1		 xor	 dl, cl
  000fe	88 55 e9	 mov	 BYTE PTR __k$[ebp+13], dl
  00101	8a 50 0e	 mov	 dl, BYTE PTR [eax+14]
  00104	84 d2		 test	 dl, dl
  00106	0f 84 26 01 00
	00		 je	 $LN82@LoadInt_e
  0010c	32 d3		 xor	 dl, bl
  0010e	88 55 ea	 mov	 BYTE PTR __k$[ebp+14], dl
  00111	8a 50 0f	 mov	 dl, BYTE PTR [eax+15]
  00114	84 d2		 test	 dl, dl
  00116	0f 84 10 01 00
	00		 je	 $LN81@LoadInt_e
  0011c	80 f2 ea	 xor	 dl, -22			; ffffffeaH
  0011f	88 55 eb	 mov	 BYTE PTR __k$[ebp+15], dl
  00122	8a 50 10	 mov	 dl, BYTE PTR [eax+16]
  00125	84 d2		 test	 dl, dl
  00127	0f 84 f9 00 00
	00		 je	 $LN80@LoadInt_e
  0012d	80 f2 ed	 xor	 dl, -19			; ffffffedH
  00130	88 55 ec	 mov	 BYTE PTR __k$[ebp+16], dl
  00133	8a 50 11	 mov	 dl, BYTE PTR [eax+17]
  00136	84 d2		 test	 dl, dl
  00138	0f 84 e3 00 00
	00		 je	 $LN79@LoadInt_e
  0013e	32 d1		 xor	 dl, cl
  00140	88 55 ed	 mov	 BYTE PTR __k$[ebp+17], dl
  00143	8a 50 12	 mov	 dl, BYTE PTR [eax+18]
  00146	84 d2		 test	 dl, dl
  00148	0f 84 ce 00 00
	00		 je	 $LN78@LoadInt_e
  0014e	32 d3		 xor	 dl, bl
  00150	88 55 ee	 mov	 BYTE PTR __k$[ebp+18], dl
  00153	8a 50 13	 mov	 dl, BYTE PTR [eax+19]
  00156	84 d2		 test	 dl, dl
  00158	0f 84 b8 00 00
	00		 je	 $LN77@LoadInt_e
  0015e	80 f2 ea	 xor	 dl, -22			; ffffffeaH
  00161	88 55 ef	 mov	 BYTE PTR __k$[ebp+19], dl
  00164	8a 50 14	 mov	 dl, BYTE PTR [eax+20]
  00167	84 d2		 test	 dl, dl
  00169	0f 84 a1 00 00
	00		 je	 $LN76@LoadInt_e
  0016f	80 f2 ed	 xor	 dl, -19			; ffffffedH
  00172	88 55 f0	 mov	 BYTE PTR __k$[ebp+20], dl
  00175	8a 50 15	 mov	 dl, BYTE PTR [eax+21]
  00178	84 d2		 test	 dl, dl
  0017a	0f 84 8b 00 00
	00		 je	 $LN75@LoadInt_e
  00180	32 d1		 xor	 dl, cl
  00182	88 55 f1	 mov	 BYTE PTR __k$[ebp+21], dl
  00185	8a 50 16	 mov	 dl, BYTE PTR [eax+22]
  00188	84 d2		 test	 dl, dl
  0018a	74 7a		 je	 SHORT $LN74@LoadInt_e
  0018c	32 d3		 xor	 dl, bl
  0018e	88 55 f2	 mov	 BYTE PTR __k$[ebp+22], dl
  00191	8a 50 17	 mov	 dl, BYTE PTR [eax+23]
  00194	84 d2		 test	 dl, dl
  00196	74 68		 je	 SHORT $LN73@LoadInt_e
  00198	80 f2 ea	 xor	 dl, -22			; ffffffeaH
  0019b	80 78 18 00	 cmp	 BYTE PTR [eax+24], 0
  0019f	88 55 f3	 mov	 BYTE PTR __k$[ebp+23], dl
  001a2	0f 84 dc 00 00
	00		 je	 $LN1@LoadInt_e
  001a8	8a 50 19	 mov	 dl, BYTE PTR [eax+25]
  001ab	84 d2		 test	 dl, dl
  001ad	74 49		 je	 SHORT $LN71@LoadInt_e
  001af	32 d1		 xor	 dl, cl
  001b1	88 55 f5	 mov	 BYTE PTR __k$[ebp+25], dl
  001b4	8a 50 1a	 mov	 dl, BYTE PTR [eax+26]
  001b7	84 d2		 test	 dl, dl
  001b9	74 35		 je	 SHORT $LN70@LoadInt_e
  001bb	32 d3		 xor	 dl, bl
  001bd	88 55 f6	 mov	 BYTE PTR __k$[ebp+26], dl
  001c0	8a 50 1b	 mov	 dl, BYTE PTR [eax+27]
  001c3	84 d2		 test	 dl, dl
  001c5	74 20		 je	 SHORT $LN69@LoadInt_e
  001c7	8a 40 1c	 mov	 al, BYTE PTR [eax+28]
  001ca	80 f2 ea	 xor	 dl, -22			; ffffffeaH
  001cd	88 55 f7	 mov	 BYTE PTR __k$[ebp+27], dl
  001d0	84 c0		 test	 al, al
  001d2	74 0a		 je	 SHORT $LN68@LoadInt_e
  001d4	34 ed		 xor	 al, -19			; ffffffedH
  001d6	88 45 f8	 mov	 BYTE PTR __k$[ebp+28], al
  001d9	e9 a6 00 00 00	 jmp	 $LN1@LoadInt_e
$LN68@LoadInt_e:
  001de	c6 45 f8 ed	 mov	 BYTE PTR __k$[ebp+28], -19 ; ffffffedH
  001e2	e9 9d 00 00 00	 jmp	 $LN1@LoadInt_e
$LN69@LoadInt_e:
  001e7	c6 45 f7 ea	 mov	 BYTE PTR __k$[ebp+27], -22 ; ffffffeaH
  001eb	e9 94 00 00 00	 jmp	 $LN1@LoadInt_e
$LN70@LoadInt_e:
  001f0	88 5d f6	 mov	 BYTE PTR __k$[ebp+26], bl
  001f3	e9 8c 00 00 00	 jmp	 $LN1@LoadInt_e
$LN71@LoadInt_e:
  001f8	88 4d f5	 mov	 BYTE PTR __k$[ebp+25], cl
  001fb	e9 84 00 00 00	 jmp	 $LN1@LoadInt_e
$LN73@LoadInt_e:
  00200	c6 45 f3 ea	 mov	 BYTE PTR __k$[ebp+23], -22 ; ffffffeaH
  00204	eb 7e		 jmp	 SHORT $LN1@LoadInt_e
$LN74@LoadInt_e:
  00206	88 5d f2	 mov	 BYTE PTR __k$[ebp+22], bl
  00209	eb 79		 jmp	 SHORT $LN1@LoadInt_e
$LN75@LoadInt_e:
  0020b	88 4d f1	 mov	 BYTE PTR __k$[ebp+21], cl
  0020e	eb 74		 jmp	 SHORT $LN1@LoadInt_e
$LN76@LoadInt_e:
  00210	c6 45 f0 ed	 mov	 BYTE PTR __k$[ebp+20], -19 ; ffffffedH
  00214	eb 6e		 jmp	 SHORT $LN1@LoadInt_e
$LN77@LoadInt_e:
  00216	c6 45 ef ea	 mov	 BYTE PTR __k$[ebp+19], -22 ; ffffffeaH
  0021a	eb 68		 jmp	 SHORT $LN1@LoadInt_e
$LN78@LoadInt_e:
  0021c	88 5d ee	 mov	 BYTE PTR __k$[ebp+18], bl
  0021f	eb 63		 jmp	 SHORT $LN1@LoadInt_e
$LN79@LoadInt_e:
  00221	88 4d ed	 mov	 BYTE PTR __k$[ebp+17], cl
  00224	eb 5e		 jmp	 SHORT $LN1@LoadInt_e
$LN80@LoadInt_e:
  00226	c6 45 ec ed	 mov	 BYTE PTR __k$[ebp+16], -19 ; ffffffedH
  0022a	eb 58		 jmp	 SHORT $LN1@LoadInt_e
$LN81@LoadInt_e:
  0022c	c6 45 eb ea	 mov	 BYTE PTR __k$[ebp+15], -22 ; ffffffeaH
  00230	eb 52		 jmp	 SHORT $LN1@LoadInt_e
$LN82@LoadInt_e:
  00232	88 5d ea	 mov	 BYTE PTR __k$[ebp+14], bl
  00235	eb 4d		 jmp	 SHORT $LN1@LoadInt_e
$LN83@LoadInt_e:
  00237	88 4d e9	 mov	 BYTE PTR __k$[ebp+13], cl
  0023a	eb 48		 jmp	 SHORT $LN1@LoadInt_e
$LN84@LoadInt_e:
  0023c	c6 45 e8 ed	 mov	 BYTE PTR __k$[ebp+12], -19 ; ffffffedH
  00240	eb 42		 jmp	 SHORT $LN1@LoadInt_e
$LN85@LoadInt_e:
  00242	c6 45 e7 ea	 mov	 BYTE PTR __k$[ebp+11], -22 ; ffffffeaH
  00246	eb 3c		 jmp	 SHORT $LN1@LoadInt_e
$LN86@LoadInt_e:
  00248	88 5d e6	 mov	 BYTE PTR __k$[ebp+10], bl
  0024b	eb 37		 jmp	 SHORT $LN1@LoadInt_e
$LN87@LoadInt_e:
  0024d	88 4d e5	 mov	 BYTE PTR __k$[ebp+9], cl
  00250	eb 32		 jmp	 SHORT $LN1@LoadInt_e
$LN88@LoadInt_e:
  00252	c6 45 e4 ed	 mov	 BYTE PTR __k$[ebp+8], -19 ; ffffffedH
  00256	eb 2c		 jmp	 SHORT $LN1@LoadInt_e
$LN89@LoadInt_e:
  00258	c6 45 e3 ea	 mov	 BYTE PTR __k$[ebp+7], -22 ; ffffffeaH
  0025c	eb 26		 jmp	 SHORT $LN1@LoadInt_e
$LN90@LoadInt_e:
  0025e	88 5d e2	 mov	 BYTE PTR __k$[ebp+6], bl
  00261	eb 21		 jmp	 SHORT $LN1@LoadInt_e
$LN91@LoadInt_e:
  00263	88 4d e1	 mov	 BYTE PTR __k$[ebp+5], cl
  00266	eb 1c		 jmp	 SHORT $LN1@LoadInt_e
$LN92@LoadInt_e:
  00268	c6 45 e0 ed	 mov	 BYTE PTR __k$[ebp+4], -19 ; ffffffedH
  0026c	eb 16		 jmp	 SHORT $LN1@LoadInt_e
$LN93@LoadInt_e:
  0026e	c6 45 df ea	 mov	 BYTE PTR __k$[ebp+3], -22 ; ffffffeaH
  00272	eb 10		 jmp	 SHORT $LN1@LoadInt_e
$LN94@LoadInt_e:
  00274	c6 45 de eb	 mov	 BYTE PTR __k$[ebp+2], -21 ; ffffffebH
  00278	eb 0a		 jmp	 SHORT $LN1@LoadInt_e
$LN95@LoadInt_e:
  0027a	c6 45 dd ec	 mov	 BYTE PTR __k$[ebp+1], -20 ; ffffffecH
  0027e	eb 04		 jmp	 SHORT $LN1@LoadInt_e
$LN96@LoadInt_e:
  00280	c6 45 dc ed	 mov	 BYTE PTR __k$[ebp], -19	; ffffffedH
$LN1@LoadInt_e:
  00284	6a 06		 push	 6
  00286	8d 45 dc	 lea	 eax, DWORD PTR __k$[ebp]
  00289	c6 45 f4 00	 mov	 BYTE PTR __k$[ebp+24], 0
  0028d	5a		 pop	 edx
$LL104@LoadInt_e:
  0028e	81 30 ed ec eb
	ea		 xor	 DWORD PTR [eax], -353637139 ; eaebecedH
  00294	83 c0 04	 add	 eax, 4
  00297	4a		 dec	 edx
  00298	75 f4		 jne	 SHORT $LL104@LoadInt_e

; 120  : 		return LoadInt(_k, i);

  0029a	ff 75 0c	 push	 DWORD PTR _i$[ebp]
  0029d	8d 45 dc	 lea	 eax, DWORD PTR __k$[ebp]
  002a0	50		 push	 eax
  002a1	8b ce		 mov	 ecx, esi
  002a3	ff 15 00 00 00
	00		 call	 DWORD PTR __imp_?LoadInt@ioINILoader@@QAEHPBDH@Z

; 121  : 	}

  002a9	8b 4d fc	 mov	 ecx, DWORD PTR __$ArrayPad$[ebp]
  002ac	5e		 pop	 esi
  002ad	33 cd		 xor	 ecx, ebp
  002af	5b		 pop	 ebx
  002b0	e8 00 00 00 00	 call	 @__security_check_cookie@4
  002b5	c9		 leave
  002b6	c2 08 00	 ret	 8
??$LoadInt_e@$0BJ@@ioINILoader@@QAEHAAY0BJ@$$CBDH@Z ENDP ; ioINILoader::LoadInt_e<25>
_TEXT	ENDS
PUBLIC	_this$GSCopy$
PUBLIC	__$ArrayPad$
PUBLIC	??$LoadString_e@$0BL@@ioINILoader@@QAEXAAY0BL@$$CBDAAY00$$CBDPADH@Z ; ioINILoader::LoadString_e<27>
; Function compile flags: /Ogsp
;	COMDAT ??$LoadString_e@$0BL@@ioINILoader@@QAEXAAY0BL@$$CBDAAY00$$CBDPADH@Z
_TEXT	SEGMENT
_this$GSCopy$ = -40					; size = 4
__k$ = -36						; size = 27
__$ArrayPad$ = -4					; size = 4
_k$ = 8							; size = 4
_d$ = 12						; size = 4
_b$ = 16						; size = 4
_i$ = 20						; size = 4
??$LoadString_e@$0BL@@ioINILoader@@QAEXAAY0BL@$$CBDAAY00$$CBDPADH@Z PROC ; ioINILoader::LoadString_e<27>, COMDAT
; _this$ = ecx

; 161  : 	{

  00000	55		 push	 ebp
  00001	8b ec		 mov	 ebp, esp
  00003	83 ec 28	 sub	 esp, 40			; 00000028H
  00006	a1 00 00 00 00	 mov	 eax, DWORD PTR ___security_cookie
  0000b	33 c5		 xor	 eax, ebp
  0000d	89 45 fc	 mov	 DWORD PTR __$ArrayPad$[ebp], eax
  00010	8b 45 08	 mov	 eax, DWORD PTR _k$[ebp]

; 162  : 		_ENCSTR(k, _k);

  00013	8a 10		 mov	 dl, BYTE PTR [eax]
  00015	53		 push	 ebx
  00016	56		 push	 esi
  00017	8b 75 0c	 mov	 esi, DWORD PTR _d$[ebp]
  0001a	57		 push	 edi
  0001b	8b 7d 10	 mov	 edi, DWORD PTR _b$[ebp]
  0001e	89 4d d8	 mov	 DWORD PTR _this$GSCopy$[ebp], ecx
  00021	84 d2		 test	 dl, dl
  00023	0f 84 91 02 00
	00		 je	 $LN96@LoadString@2
  00029	80 f2 ed	 xor	 dl, -19			; ffffffedH
  0002c	88 55 dc	 mov	 BYTE PTR __k$[ebp], dl
  0002f	8a 50 01	 mov	 dl, BYTE PTR [eax+1]
  00032	84 d2		 test	 dl, dl
  00034	0f 84 7a 02 00
	00		 je	 $LN95@LoadString@2
  0003a	b1 ec		 mov	 cl, -20			; ffffffecH
  0003c	32 d1		 xor	 dl, cl
  0003e	88 55 dd	 mov	 BYTE PTR __k$[ebp+1], dl
  00041	8a 50 02	 mov	 dl, BYTE PTR [eax+2]
  00044	84 d2		 test	 dl, dl
  00046	0f 84 62 02 00
	00		 je	 $LN94@LoadString@2
  0004c	80 f2 eb	 xor	 dl, -21			; ffffffebH
  0004f	88 55 de	 mov	 BYTE PTR __k$[ebp+2], dl
  00052	8a 50 03	 mov	 dl, BYTE PTR [eax+3]
  00055	84 d2		 test	 dl, dl
  00057	0f 84 4b 02 00
	00		 je	 $LN93@LoadString@2
  0005d	b3 ea		 mov	 bl, -22			; ffffffeaH
  0005f	32 d3		 xor	 dl, bl
  00061	88 55 df	 mov	 BYTE PTR __k$[ebp+3], dl
  00064	8a 50 04	 mov	 dl, BYTE PTR [eax+4]
  00067	84 d2		 test	 dl, dl
  00069	0f 84 33 02 00
	00		 je	 $LN92@LoadString@2
  0006f	80 f2 ed	 xor	 dl, -19			; ffffffedH
  00072	88 55 e0	 mov	 BYTE PTR __k$[ebp+4], dl
  00075	8a 50 05	 mov	 dl, BYTE PTR [eax+5]
  00078	84 d2		 test	 dl, dl
  0007a	0f 84 1d 02 00
	00		 je	 $LN91@LoadString@2
  00080	32 d1		 xor	 dl, cl
  00082	88 55 e1	 mov	 BYTE PTR __k$[ebp+5], dl
  00085	8a 50 06	 mov	 dl, BYTE PTR [eax+6]
  00088	84 d2		 test	 dl, dl
  0008a	0f 84 07 02 00
	00		 je	 $LN90@LoadString@2
  00090	80 f2 eb	 xor	 dl, -21			; ffffffebH
  00093	88 55 e2	 mov	 BYTE PTR __k$[ebp+6], dl
  00096	8a 50 07	 mov	 dl, BYTE PTR [eax+7]
  00099	84 d2		 test	 dl, dl
  0009b	0f 84 f1 01 00
	00		 je	 $LN89@LoadString@2
  000a1	32 d3		 xor	 dl, bl
  000a3	88 55 e3	 mov	 BYTE PTR __k$[ebp+7], dl
  000a6	8a 50 08	 mov	 dl, BYTE PTR [eax+8]
  000a9	84 d2		 test	 dl, dl
  000ab	0f 84 db 01 00
	00		 je	 $LN88@LoadString@2
  000b1	80 f2 ed	 xor	 dl, -19			; ffffffedH
  000b4	88 55 e4	 mov	 BYTE PTR __k$[ebp+8], dl
  000b7	8a 50 09	 mov	 dl, BYTE PTR [eax+9]
  000ba	84 d2		 test	 dl, dl
  000bc	0f 84 c5 01 00
	00		 je	 $LN87@LoadString@2
  000c2	32 d1		 xor	 dl, cl
  000c4	88 55 e5	 mov	 BYTE PTR __k$[ebp+9], dl
  000c7	8a 50 0a	 mov	 dl, BYTE PTR [eax+10]
  000ca	84 d2		 test	 dl, dl
  000cc	0f 84 af 01 00
	00		 je	 $LN86@LoadString@2
  000d2	80 f2 eb	 xor	 dl, -21			; ffffffebH
  000d5	88 55 e6	 mov	 BYTE PTR __k$[ebp+10], dl
  000d8	8a 50 0b	 mov	 dl, BYTE PTR [eax+11]
  000db	84 d2		 test	 dl, dl
  000dd	0f 84 99 01 00
	00		 je	 $LN85@LoadString@2
  000e3	32 d3		 xor	 dl, bl
  000e5	88 55 e7	 mov	 BYTE PTR __k$[ebp+11], dl
  000e8	8a 50 0c	 mov	 dl, BYTE PTR [eax+12]
  000eb	84 d2		 test	 dl, dl
  000ed	0f 84 83 01 00
	00		 je	 $LN84@LoadString@2
  000f3	80 f2 ed	 xor	 dl, -19			; ffffffedH
  000f6	88 55 e8	 mov	 BYTE PTR __k$[ebp+12], dl
  000f9	8a 50 0d	 mov	 dl, BYTE PTR [eax+13]
  000fc	84 d2		 test	 dl, dl
  000fe	0f 84 6d 01 00
	00		 je	 $LN83@LoadString@2
  00104	32 d1		 xor	 dl, cl
  00106	88 55 e9	 mov	 BYTE PTR __k$[ebp+13], dl
  00109	8a 50 0e	 mov	 dl, BYTE PTR [eax+14]
  0010c	84 d2		 test	 dl, dl
  0010e	0f 84 57 01 00
	00		 je	 $LN82@LoadString@2
  00114	80 f2 eb	 xor	 dl, -21			; ffffffebH
  00117	88 55 ea	 mov	 BYTE PTR __k$[ebp+14], dl
  0011a	8a 50 0f	 mov	 dl, BYTE PTR [eax+15]
  0011d	84 d2		 test	 dl, dl
  0011f	0f 84 41 01 00
	00		 je	 $LN81@LoadString@2
  00125	32 d3		 xor	 dl, bl
  00127	88 55 eb	 mov	 BYTE PTR __k$[ebp+15], dl
  0012a	8a 50 10	 mov	 dl, BYTE PTR [eax+16]
  0012d	84 d2		 test	 dl, dl
  0012f	0f 84 2b 01 00
	00		 je	 $LN80@LoadString@2
  00135	80 f2 ed	 xor	 dl, -19			; ffffffedH
  00138	88 55 ec	 mov	 BYTE PTR __k$[ebp+16], dl
  0013b	8a 50 11	 mov	 dl, BYTE PTR [eax+17]
  0013e	84 d2		 test	 dl, dl
  00140	0f 84 15 01 00
	00		 je	 $LN79@LoadString@2
  00146	32 d1		 xor	 dl, cl
  00148	88 55 ed	 mov	 BYTE PTR __k$[ebp+17], dl
  0014b	8a 50 12	 mov	 dl, BYTE PTR [eax+18]
  0014e	84 d2		 test	 dl, dl
  00150	0f 84 ff 00 00
	00		 je	 $LN78@LoadString@2
  00156	80 f2 eb	 xor	 dl, -21			; ffffffebH
  00159	88 55 ee	 mov	 BYTE PTR __k$[ebp+18], dl
  0015c	8a 50 13	 mov	 dl, BYTE PTR [eax+19]
  0015f	84 d2		 test	 dl, dl
  00161	0f 84 e9 00 00
	00		 je	 $LN77@LoadString@2
  00167	32 d3		 xor	 dl, bl
  00169	88 55 ef	 mov	 BYTE PTR __k$[ebp+19], dl
  0016c	8a 50 14	 mov	 dl, BYTE PTR [eax+20]
  0016f	84 d2		 test	 dl, dl
  00171	0f 84 d3 00 00
	00		 je	 $LN76@LoadString@2
  00177	80 f2 ed	 xor	 dl, -19			; ffffffedH
  0017a	88 55 f0	 mov	 BYTE PTR __k$[ebp+20], dl
  0017d	8a 50 15	 mov	 dl, BYTE PTR [eax+21]
  00180	84 d2		 test	 dl, dl
  00182	0f 84 bd 00 00
	00		 je	 $LN75@LoadString@2
  00188	32 d1		 xor	 dl, cl
  0018a	88 55 f1	 mov	 BYTE PTR __k$[ebp+21], dl
  0018d	8a 50 16	 mov	 dl, BYTE PTR [eax+22]
  00190	84 d2		 test	 dl, dl
  00192	0f 84 a7 00 00
	00		 je	 $LN74@LoadString@2
  00198	80 f2 eb	 xor	 dl, -21			; ffffffebH
  0019b	88 55 f2	 mov	 BYTE PTR __k$[ebp+22], dl
  0019e	8a 50 17	 mov	 dl, BYTE PTR [eax+23]
  001a1	84 d2		 test	 dl, dl
  001a3	0f 84 91 00 00
	00		 je	 $LN73@LoadString@2
  001a9	32 d3		 xor	 dl, bl
  001ab	88 55 f3	 mov	 BYTE PTR __k$[ebp+23], dl
  001ae	8a 50 18	 mov	 dl, BYTE PTR [eax+24]
  001b1	84 d2		 test	 dl, dl
  001b3	74 7c		 je	 SHORT $LN72@LoadString@2
  001b5	80 f2 ed	 xor	 dl, -19			; ffffffedH
  001b8	88 55 f4	 mov	 BYTE PTR __k$[ebp+24], dl
  001bb	8a 50 19	 mov	 dl, BYTE PTR [eax+25]
  001be	84 d2		 test	 dl, dl
  001c0	74 67		 je	 SHORT $LN71@LoadString@2
  001c2	32 d1		 xor	 dl, cl
  001c4	80 78 1a 00	 cmp	 BYTE PTR [eax+26], 0
  001c8	88 55 f5	 mov	 BYTE PTR __k$[ebp+25], dl
  001cb	0f 84 ed 00 00
	00		 je	 $LN111@LoadString@2
  001d1	8a 50 1b	 mov	 dl, BYTE PTR [eax+27]
  001d4	84 d2		 test	 dl, dl
  001d6	74 49		 je	 SHORT $LN69@LoadString@2
  001d8	32 d3		 xor	 dl, bl
  001da	88 55 f7	 mov	 BYTE PTR __k$[ebp+27], dl
  001dd	8a 50 1c	 mov	 dl, BYTE PTR [eax+28]
  001e0	84 d2		 test	 dl, dl
  001e2	74 34		 je	 SHORT $LN68@LoadString@2
  001e4	80 f2 ed	 xor	 dl, -19			; ffffffedH
  001e7	88 55 f8	 mov	 BYTE PTR __k$[ebp+28], dl
  001ea	8a 50 1d	 mov	 dl, BYTE PTR [eax+29]
  001ed	84 d2		 test	 dl, dl
  001ef	74 1f		 je	 SHORT $LN67@LoadString@2
  001f1	8a 40 1e	 mov	 al, BYTE PTR [eax+30]
  001f4	32 d1		 xor	 dl, cl
  001f6	88 55 f9	 mov	 BYTE PTR __k$[ebp+29], dl
  001f9	84 c0		 test	 al, al
  001fb	74 0a		 je	 SHORT $LN66@LoadString@2
  001fd	34 eb		 xor	 al, -21			; ffffffebH
  001ff	88 45 fa	 mov	 BYTE PTR __k$[ebp+30], al
  00202	e9 b7 00 00 00	 jmp	 $LN111@LoadString@2
$LN66@LoadString@2:
  00207	c6 45 fa eb	 mov	 BYTE PTR __k$[ebp+30], -21 ; ffffffebH
  0020b	e9 ae 00 00 00	 jmp	 $LN111@LoadString@2
$LN67@LoadString@2:
  00210	88 4d f9	 mov	 BYTE PTR __k$[ebp+29], cl
  00213	e9 a6 00 00 00	 jmp	 $LN111@LoadString@2
$LN68@LoadString@2:
  00218	c6 45 f8 ed	 mov	 BYTE PTR __k$[ebp+28], -19 ; ffffffedH
  0021c	e9 9d 00 00 00	 jmp	 $LN111@LoadString@2
$LN69@LoadString@2:
  00221	88 5d f7	 mov	 BYTE PTR __k$[ebp+27], bl
  00224	e9 95 00 00 00	 jmp	 $LN111@LoadString@2
$LN71@LoadString@2:
  00229	88 4d f5	 mov	 BYTE PTR __k$[ebp+25], cl
  0022c	e9 8d 00 00 00	 jmp	 $LN111@LoadString@2
$LN72@LoadString@2:
  00231	c6 45 f4 ed	 mov	 BYTE PTR __k$[ebp+24], -19 ; ffffffedH
  00235	e9 84 00 00 00	 jmp	 $LN111@LoadString@2
$LN73@LoadString@2:
  0023a	88 5d f3	 mov	 BYTE PTR __k$[ebp+23], bl
  0023d	eb 7f		 jmp	 SHORT $LN111@LoadString@2
$LN74@LoadString@2:
  0023f	c6 45 f2 eb	 mov	 BYTE PTR __k$[ebp+22], -21 ; ffffffebH
  00243	eb 79		 jmp	 SHORT $LN111@LoadString@2
$LN75@LoadString@2:
  00245	88 4d f1	 mov	 BYTE PTR __k$[ebp+21], cl
  00248	eb 74		 jmp	 SHORT $LN111@LoadString@2
$LN76@LoadString@2:
  0024a	c6 45 f0 ed	 mov	 BYTE PTR __k$[ebp+20], -19 ; ffffffedH
  0024e	eb 6e		 jmp	 SHORT $LN111@LoadString@2
$LN77@LoadString@2:
  00250	88 5d ef	 mov	 BYTE PTR __k$[ebp+19], bl
  00253	eb 69		 jmp	 SHORT $LN111@LoadString@2
$LN78@LoadString@2:
  00255	c6 45 ee eb	 mov	 BYTE PTR __k$[ebp+18], -21 ; ffffffebH
  00259	eb 63		 jmp	 SHORT $LN111@LoadString@2
$LN79@LoadString@2:
  0025b	88 4d ed	 mov	 BYTE PTR __k$[ebp+17], cl
  0025e	eb 5e		 jmp	 SHORT $LN111@LoadString@2
$LN80@LoadString@2:
  00260	c6 45 ec ed	 mov	 BYTE PTR __k$[ebp+16], -19 ; ffffffedH
  00264	eb 58		 jmp	 SHORT $LN111@LoadString@2
$LN81@LoadString@2:
  00266	88 5d eb	 mov	 BYTE PTR __k$[ebp+15], bl
  00269	eb 53		 jmp	 SHORT $LN111@LoadString@2
$LN82@LoadString@2:
  0026b	c6 45 ea eb	 mov	 BYTE PTR __k$[ebp+14], -21 ; ffffffebH
  0026f	eb 4d		 jmp	 SHORT $LN111@LoadString@2
$LN83@LoadString@2:
  00271	88 4d e9	 mov	 BYTE PTR __k$[ebp+13], cl
  00274	eb 48		 jmp	 SHORT $LN111@LoadString@2
$LN84@LoadString@2:
  00276	c6 45 e8 ed	 mov	 BYTE PTR __k$[ebp+12], -19 ; ffffffedH
  0027a	eb 42		 jmp	 SHORT $LN111@LoadString@2
$LN85@LoadString@2:
  0027c	88 5d e7	 mov	 BYTE PTR __k$[ebp+11], bl
  0027f	eb 3d		 jmp	 SHORT $LN111@LoadString@2
$LN86@LoadString@2:
  00281	c6 45 e6 eb	 mov	 BYTE PTR __k$[ebp+10], -21 ; ffffffebH
  00285	eb 37		 jmp	 SHORT $LN111@LoadString@2
$LN87@LoadString@2:
  00287	88 4d e5	 mov	 BYTE PTR __k$[ebp+9], cl
  0028a	eb 32		 jmp	 SHORT $LN111@LoadString@2
$LN88@LoadString@2:
  0028c	c6 45 e4 ed	 mov	 BYTE PTR __k$[ebp+8], -19 ; ffffffedH
  00290	eb 2c		 jmp	 SHORT $LN111@LoadString@2
$LN89@LoadString@2:
  00292	88 5d e3	 mov	 BYTE PTR __k$[ebp+7], bl
  00295	eb 27		 jmp	 SHORT $LN111@LoadString@2
$LN90@LoadString@2:
  00297	c6 45 e2 eb	 mov	 BYTE PTR __k$[ebp+6], -21 ; ffffffebH
  0029b	eb 21		 jmp	 SHORT $LN111@LoadString@2
$LN91@LoadString@2:
  0029d	88 4d e1	 mov	 BYTE PTR __k$[ebp+5], cl
  002a0	eb 1c		 jmp	 SHORT $LN111@LoadString@2
$LN92@LoadString@2:
  002a2	c6 45 e0 ed	 mov	 BYTE PTR __k$[ebp+4], -19 ; ffffffedH
  002a6	eb 16		 jmp	 SHORT $LN111@LoadString@2
$LN93@LoadString@2:
  002a8	c6 45 df ea	 mov	 BYTE PTR __k$[ebp+3], -22 ; ffffffeaH
  002ac	eb 10		 jmp	 SHORT $LN111@LoadString@2
$LN94@LoadString@2:
  002ae	c6 45 de eb	 mov	 BYTE PTR __k$[ebp+2], -21 ; ffffffebH
  002b2	eb 0a		 jmp	 SHORT $LN111@LoadString@2
$LN95@LoadString@2:
  002b4	c6 45 dd ec	 mov	 BYTE PTR __k$[ebp+1], -20 ; ffffffecH
  002b8	eb 04		 jmp	 SHORT $LN111@LoadString@2
$LN96@LoadString@2:
  002ba	c6 45 dc ed	 mov	 BYTE PTR __k$[ebp], -19	; ffffffedH
$LN111@LoadString@2:
  002be	6a 06		 push	 6
  002c0	8d 45 dc	 lea	 eax, DWORD PTR __k$[ebp]
  002c3	c6 45 f6 00	 mov	 BYTE PTR __k$[ebp+26], 0
  002c7	5a		 pop	 edx
$LL104@LoadString@2:
  002c8	81 30 ed ec eb
	ea		 xor	 DWORD PTR [eax], -353637139 ; eaebecedH
  002ce	83 c0 04	 add	 eax, 4
  002d1	4a		 dec	 edx
  002d2	75 f4		 jne	 SHORT $LL104@LoadString@2
  002d4	6a 18		 push	 24			; 00000018H
  002d6	58		 pop	 eax
$LL101@LoadString@2:
  002d7	8b c8		 mov	 ecx, eax
  002d9	81 e1 03 00 00
	80		 and	 ecx, -2147483645	; 80000003H
  002df	79 05		 jns	 SHORT $LN112@LoadString@2
  002e1	49		 dec	 ecx
  002e2	83 c9 fc	 or	 ecx, -4			; fffffffcH
  002e5	41		 inc	 ecx
$LN112@LoadString@2:
  002e6	b2 ed		 mov	 dl, -19			; ffffffedH
  002e8	2a d1		 sub	 dl, cl
  002ea	30 54 05 dc	 xor	 BYTE PTR __k$[ebp+eax], dl
  002ee	40		 inc	 eax
  002ef	83 f8 1a	 cmp	 eax, 26			; 0000001aH
  002f2	7c e3		 jl	 SHORT $LL101@LoadString@2

; 163  : 		LoadString(_k, d, b, i);

  002f4	ff 75 14	 push	 DWORD PTR _i$[ebp]
  002f7	8b 4d d8	 mov	 ecx, DWORD PTR _this$GSCopy$[ebp]
  002fa	57		 push	 edi
  002fb	56		 push	 esi
  002fc	8d 45 dc	 lea	 eax, DWORD PTR __k$[ebp]
  002ff	50		 push	 eax
  00300	ff 15 00 00 00
	00		 call	 DWORD PTR __imp_?LoadStringA@ioINILoader@@QAEXPBD0PADH@Z

; 164  : 	}

  00306	8b 4d fc	 mov	 ecx, DWORD PTR __$ArrayPad$[ebp]
  00309	5f		 pop	 edi
  0030a	5e		 pop	 esi
  0030b	33 cd		 xor	 ecx, ebp
  0030d	5b		 pop	 ebx
  0030e	e8 00 00 00 00	 call	 @__security_check_cookie@4
  00313	c9		 leave
  00314	c2 10 00	 ret	 16			; 00000010H
??$LoadString_e@$0BL@@ioINILoader@@QAEXAAY0BL@$$CBDAAY00$$CBDPADH@Z ENDP ; ioINILoader::LoadString_e<27>
_TEXT	ENDS
PUBLIC	??$GetAnimationEventConstPtrList_e@$06@ioEntityGroup@@QAEHHAAY06$$CBDAAV?$vector@PBUAniEventTime@@V?$allocator@PBUAniEventTime@@@std@@@std@@@Z ; ioEntityGroup::GetAnimationEventConstPtrList_e<7>
EXTRN	__imp_?GetAnimationEventConstPtrList@ioEntityGroup@@QAEHHABVioHashString@@AAV?$vector@PBUAniEventTime@@V?$allocator@PBUAniEventTime@@@std@@@std@@@Z:PROC
EXTRN	__imp_??0ioHashString@@QAE@PBD@Z:PROC
EXTRN	__EH_epilog3_GS:PROC
EXTRN	__EH_prolog3_GS:PROC
;	COMDAT xdata$x
; File d:\lost saga for developer\youtube\tutorial\source\src\lsclient\stringprotect.h
xdata$x	SEGMENT
__unwindtable$??$GetAnimationEventConstPtrList_e@$06@ioEntityGroup@@QAEHHAAY06$$CBDAAV?$vector@PBUAniEventTime@@V?$allocator@PBUAniEventTime@@@std@@@std@@@Z DD 0ffffffffH
	DD	FLAT:__unwindfunclet$??$GetAnimationEventConstPtrList_e@$06@ioEntityGroup@@QAEHHAAY06$$CBDAAV?$vector@PBUAniEventTime@@V?$allocator@PBUAniEventTime@@@std@@@std@@@Z$0
__ehfuncinfo$??$GetAnimationEventConstPtrList_e@$06@ioEntityGroup@@QAEHHAAY06$$CBDAAV?$vector@PBUAniEventTime@@V?$allocator@PBUAniEventTime@@@std@@@std@@@Z DD 019930522H
	DD	01H
	DD	FLAT:__unwindtable$??$GetAnimationEventConstPtrList_e@$06@ioEntityGroup@@QAEHHAAY06$$CBDAAV?$vector@PBUAniEventTime@@V?$allocator@PBUAniEventTime@@@std@@@std@@@Z
	DD	2 DUP(00H)
	DD	2 DUP(00H)
	DD	00H
	DD	01H
; Function compile flags: /Ogsp
; File d:\lost saga for developer\youtube\tutorial\source\src\io3dengine\ioentitygroup.h
xdata$x	ENDS
;	COMDAT ??$GetAnimationEventConstPtrList_e@$06@ioEntityGroup@@QAEHHAAY06$$CBDAAV?$vector@PBUAniEventTime@@V?$allocator@PBUAniEventTime@@@std@@@std@@@Z
_TEXT	SEGMENT
$T670878 = -44						; size = 16
_szEncEventType$ = -28					; size = 7
__$EHRec$ = -12						; size = 12
_id$ = 8						; size = 4
_szEventType$ = 12					; size = 4
_vEventList$ = 16					; size = 4
??$GetAnimationEventConstPtrList_e@$06@ioEntityGroup@@QAEHHAAY06$$CBDAAV?$vector@PBUAniEventTime@@V?$allocator@PBUAniEventTime@@@std@@@std@@@Z PROC ; ioEntityGroup::GetAnimationEventConstPtrList_e<7>, COMDAT
; _this$ = ecx

; 423  : 	{

  00000	6a 20		 push	 32			; 00000020H
  00002	b8 00 00 00 00	 mov	 eax, __ehhandler$??$GetAnimationEventConstPtrList_e@$06@ioEntityGroup@@QAEHHAAY06$$CBDAAV?$vector@PBUAniEventTime@@V?$allocator@PBUAniEventTime@@@std@@@std@@@Z
  00007	e8 00 00 00 00	 call	 __EH_prolog3_GS
  0000c	8b 45 0c	 mov	 eax, DWORD PTR _szEventType$[ebp]
  0000f	8b 75 10	 mov	 esi, DWORD PTR _vEventList$[ebp]
  00012	8b f9		 mov	 edi, ecx

; 424  : 		_ENCSTR(szEventType, szEncEventType);

  00014	8a 08		 mov	 cl, BYTE PTR [eax]
  00016	84 c9		 test	 cl, cl
  00018	0f 84 c0 00 00
	00		 je	 $LN96@GetAnimati
  0001e	80 f1 ed	 xor	 cl, -19			; ffffffedH
  00021	88 4d e4	 mov	 BYTE PTR _szEncEventType$[ebp], cl
  00024	8a 48 01	 mov	 cl, BYTE PTR [eax+1]
  00027	84 c9		 test	 cl, cl
  00029	0f 84 a9 00 00
	00		 je	 $LN95@GetAnimati
  0002f	80 f1 ec	 xor	 cl, -20			; ffffffecH
  00032	88 4d e5	 mov	 BYTE PTR _szEncEventType$[ebp+1], cl
  00035	8a 48 02	 mov	 cl, BYTE PTR [eax+2]
  00038	84 c9		 test	 cl, cl
  0003a	0f 84 92 00 00
	00		 je	 $LN94@GetAnimati
  00040	80 f1 eb	 xor	 cl, -21			; ffffffebH
  00043	88 4d e6	 mov	 BYTE PTR _szEncEventType$[ebp+2], cl
  00046	8a 48 03	 mov	 cl, BYTE PTR [eax+3]
  00049	84 c9		 test	 cl, cl
  0004b	74 7f		 je	 SHORT $LN93@GetAnimati
  0004d	80 f1 ea	 xor	 cl, -22			; ffffffeaH
  00050	88 4d e7	 mov	 BYTE PTR _szEncEventType$[ebp+3], cl
  00053	8a 48 04	 mov	 cl, BYTE PTR [eax+4]
  00056	84 c9		 test	 cl, cl
  00058	74 6c		 je	 SHORT $LN92@GetAnimati
  0005a	80 f1 ed	 xor	 cl, -19			; ffffffedH
  0005d	88 4d e8	 mov	 BYTE PTR _szEncEventType$[ebp+4], cl
  00060	8a 48 05	 mov	 cl, BYTE PTR [eax+5]
  00063	84 c9		 test	 cl, cl
  00065	74 59		 je	 SHORT $LN91@GetAnimati
  00067	80 f1 ec	 xor	 cl, -20			; ffffffecH
  0006a	80 78 06 00	 cmp	 BYTE PTR [eax+6], 0
  0006e	88 4d e9	 mov	 BYTE PTR _szEncEventType$[ebp+5], cl
  00071	74 6f		 je	 SHORT $LN1@GetAnimati
  00073	8a 48 07	 mov	 cl, BYTE PTR [eax+7]
  00076	84 c9		 test	 cl, cl
  00078	74 40		 je	 SHORT $LN89@GetAnimati
  0007a	80 f1 ea	 xor	 cl, -22			; ffffffeaH
  0007d	88 4d eb	 mov	 BYTE PTR _szEncEventType$[ebp+7], cl
  00080	8a 48 08	 mov	 cl, BYTE PTR [eax+8]
  00083	84 c9		 test	 cl, cl
  00085	74 2d		 je	 SHORT $LN88@GetAnimati
  00087	80 f1 ed	 xor	 cl, -19			; ffffffedH
  0008a	88 4d ec	 mov	 BYTE PTR _szEncEventType$[ebp+8], cl
  0008d	8a 48 09	 mov	 cl, BYTE PTR [eax+9]
  00090	84 c9		 test	 cl, cl
  00092	74 1a		 je	 SHORT $LN87@GetAnimati
  00094	8a 40 0a	 mov	 al, BYTE PTR [eax+10]
  00097	80 f1 ec	 xor	 cl, -20			; ffffffecH
  0009a	88 4d ed	 mov	 BYTE PTR _szEncEventType$[ebp+9], cl
  0009d	84 c0		 test	 al, al
  0009f	74 07		 je	 SHORT $LN86@GetAnimati
  000a1	34 eb		 xor	 al, -21			; ffffffebH
  000a3	88 45 ee	 mov	 BYTE PTR _szEncEventType$[ebp+10], al
  000a6	eb 3a		 jmp	 SHORT $LN1@GetAnimati
$LN86@GetAnimati:
  000a8	c6 45 ee eb	 mov	 BYTE PTR _szEncEventType$[ebp+10], -21 ; ffffffebH
  000ac	eb 34		 jmp	 SHORT $LN1@GetAnimati
$LN87@GetAnimati:
  000ae	c6 45 ed ec	 mov	 BYTE PTR _szEncEventType$[ebp+9], -20 ; ffffffecH
  000b2	eb 2e		 jmp	 SHORT $LN1@GetAnimati
$LN88@GetAnimati:
  000b4	c6 45 ec ed	 mov	 BYTE PTR _szEncEventType$[ebp+8], -19 ; ffffffedH
  000b8	eb 28		 jmp	 SHORT $LN1@GetAnimati
$LN89@GetAnimati:
  000ba	c6 45 eb ea	 mov	 BYTE PTR _szEncEventType$[ebp+7], -22 ; ffffffeaH
  000be	eb 22		 jmp	 SHORT $LN1@GetAnimati
$LN91@GetAnimati:
  000c0	c6 45 e9 ec	 mov	 BYTE PTR _szEncEventType$[ebp+5], -20 ; ffffffecH
  000c4	eb 1c		 jmp	 SHORT $LN1@GetAnimati
$LN92@GetAnimati:
  000c6	c6 45 e8 ed	 mov	 BYTE PTR _szEncEventType$[ebp+4], -19 ; ffffffedH
  000ca	eb 16		 jmp	 SHORT $LN1@GetAnimati
$LN93@GetAnimati:
  000cc	c6 45 e7 ea	 mov	 BYTE PTR _szEncEventType$[ebp+3], -22 ; ffffffeaH
  000d0	eb 10		 jmp	 SHORT $LN1@GetAnimati
$LN94@GetAnimati:
  000d2	c6 45 e6 eb	 mov	 BYTE PTR _szEncEventType$[ebp+2], -21 ; ffffffebH
  000d6	eb 0a		 jmp	 SHORT $LN1@GetAnimati
$LN95@GetAnimati:
  000d8	c6 45 e5 ec	 mov	 BYTE PTR _szEncEventType$[ebp+1], -20 ; ffffffecH
  000dc	eb 04		 jmp	 SHORT $LN1@GetAnimati
$LN96@GetAnimati:
  000de	c6 45 e4 ed	 mov	 BYTE PTR _szEncEventType$[ebp], -19 ; ffffffedH
$LN1@GetAnimati:
  000e2	81 75 e4 ed ec
	eb ea		 xor	 DWORD PTR _szEncEventType$[ebp], -353637139 ; eaebecedH
  000e9	6a 04		 push	 4
  000eb	c6 45 ea 00	 mov	 BYTE PTR _szEncEventType$[ebp+6], 0
  000ef	58		 pop	 eax
$LL102@GetAnimati:
  000f0	8b c8		 mov	 ecx, eax
  000f2	81 e1 03 00 00
	80		 and	 ecx, -2147483645	; 80000003H
  000f8	79 05		 jns	 SHORT $LN113@GetAnimati
  000fa	49		 dec	 ecx
  000fb	83 c9 fc	 or	 ecx, -4			; fffffffcH
  000fe	41		 inc	 ecx
$LN113@GetAnimati:
  000ff	b2 ed		 mov	 dl, -19			; ffffffedH
  00101	2a d1		 sub	 dl, cl
  00103	30 54 05 e4	 xor	 BYTE PTR _szEncEventType$[ebp+eax], dl
  00107	40		 inc	 eax
  00108	83 f8 06	 cmp	 eax, 6
  0010b	7c e3		 jl	 SHORT $LL102@GetAnimati

; 425  : 		return GetAnimationEventConstPtrList(id, szEncEventType, vEventList);

  0010d	8d 45 e4	 lea	 eax, DWORD PTR _szEncEventType$[ebp]
  00110	50		 push	 eax
  00111	8d 4d d4	 lea	 ecx, DWORD PTR $T670878[ebp]
  00114	ff 15 00 00 00
	00		 call	 DWORD PTR __imp_??0ioHashString@@QAE@PBD@Z
  0011a	83 65 fc 00	 and	 DWORD PTR __$EHRec$[ebp+8], 0
  0011e	56		 push	 esi
  0011f	8d 45 d4	 lea	 eax, DWORD PTR $T670878[ebp]
  00122	50		 push	 eax
  00123	ff 75 08	 push	 DWORD PTR _id$[ebp]
  00126	8b cf		 mov	 ecx, edi
  00128	ff 15 00 00 00
	00		 call	 DWORD PTR __imp_?GetAnimationEventConstPtrList@ioEntityGroup@@QAEHHABVioHashString@@AAV?$vector@PBUAniEventTime@@V?$allocator@PBUAniEventTime@@@std@@@std@@@Z
  0012e	83 4d fc ff	 or	 DWORD PTR __$EHRec$[ebp+8], -1
  00132	8d 4d d4	 lea	 ecx, DWORD PTR $T670878[ebp]
  00135	8b f0		 mov	 esi, eax
  00137	ff 15 00 00 00
	00		 call	 DWORD PTR __imp_??1ioHashString@@QAE@XZ
  0013d	8b c6		 mov	 eax, esi

; 426  : 	}

  0013f	e8 00 00 00 00	 call	 __EH_epilog3_GS
  00144	c2 0c 00	 ret	 12			; 0000000cH
_TEXT	ENDS
;	COMDAT text$x
text$x	SEGMENT
__unwindfunclet$??$GetAnimationEventConstPtrList_e@$06@ioEntityGroup@@QAEHHAAY06$$CBDAAV?$vector@PBUAniEventTime@@V?$allocator@PBUAniEventTime@@@std@@@std@@@Z$0:
  00000	8d 4d d4	 lea	 ecx, DWORD PTR $T670878[ebp]
  00003	ff 25 00 00 00
	00		 jmp	 DWORD PTR __imp_??1ioHashString@@QAE@XZ
__ehhandler$??$GetAnimationEventConstPtrList_e@$06@ioEntityGroup@@QAEHHAAY06$$CBDAAV?$vector@PBUAniEventTime@@V?$allocator@PBUAniEventTime@@@std@@@std@@@Z:
  00009	8b 54 24 08	 mov	 edx, DWORD PTR [esp+8]
  0000d	8d 42 0c	 lea	 eax, DWORD PTR [edx+12]
  00010	8b 4a d0	 mov	 ecx, DWORD PTR [edx-48]
  00013	33 c8		 xor	 ecx, eax
  00015	e8 00 00 00 00	 call	 @__security_check_cookie@4
  0001a	8b 4a fc	 mov	 ecx, DWORD PTR [edx-4]
  0001d	33 c8		 xor	 ecx, eax
  0001f	e8 00 00 00 00	 call	 @__security_check_cookie@4
  00024	b8 00 00 00 00	 mov	 eax, OFFSET __ehfuncinfo$??$GetAnimationEventConstPtrList_e@$06@ioEntityGroup@@QAEHHAAY06$$CBDAAV?$vector@PBUAniEventTime@@V?$allocator@PBUAniEventTime@@@std@@@std@@@Z
  00029	e9 00 00 00 00	 jmp	 ___CxxFrameHandler3
text$x	ENDS
??$GetAnimationEventConstPtrList_e@$06@ioEntityGroup@@QAEHHAAY06$$CBDAAV?$vector@PBUAniEventTime@@V?$allocator@PBUAniEventTime@@@std@@@std@@@Z ENDP ; ioEntityGroup::GetAnimationEventConstPtrList_e<7>
PUBLIC	??$GetAnimationEventTimeList_e@$06@ioEntityGroup@@QAEHHAAY06$$CBDAAV?$list@MV?$allocator@M@std@@@std@@@Z ; ioEntityGroup::GetAnimationEventTimeList_e<7>
EXTRN	__imp_?GetAnimationEventTimeList@ioEntityGroup@@QAEHHABVioHashString@@AAV?$list@MV?$allocator@M@std@@@std@@@Z:PROC
;	COMDAT xdata$x
; File d:\lost saga for developer\youtube\tutorial\source\src\lsclient\stringprotect.h
xdata$x	SEGMENT
__unwindtable$??$GetAnimationEventTimeList_e@$06@ioEntityGroup@@QAEHHAAY06$$CBDAAV?$list@MV?$allocator@M@std@@@std@@@Z DD 0ffffffffH
	DD	FLAT:__unwindfunclet$??$GetAnimationEventTimeList_e@$06@ioEntityGroup@@QAEHHAAY06$$CBDAAV?$list@MV?$allocator@M@std@@@std@@@Z$0
__ehfuncinfo$??$GetAnimationEventTimeList_e@$06@ioEntityGroup@@QAEHHAAY06$$CBDAAV?$list@MV?$allocator@M@std@@@std@@@Z DD 019930522H
	DD	01H
	DD	FLAT:__unwindtable$??$GetAnimationEventTimeList_e@$06@ioEntityGroup@@QAEHHAAY06$$CBDAAV?$list@MV?$allocator@M@std@@@std@@@Z
	DD	2 DUP(00H)
	DD	2 DUP(00H)
	DD	00H
	DD	01H
; Function compile flags: /Ogsp
; File d:\lost saga for developer\youtube\tutorial\source\src\io3dengine\ioentitygroup.h
xdata$x	ENDS
;	COMDAT ??$GetAnimationEventTimeList_e@$06@ioEntityGroup@@QAEHHAAY06$$CBDAAV?$list@MV?$allocator@M@std@@@std@@@Z
_TEXT	SEGMENT
$T670912 = -44						; size = 16
_szEncEventType$ = -28					; size = 7
__$EHRec$ = -12						; size = 12
_id$ = 8						; size = 4
_szEventType$ = 12					; size = 4
_vTimeList$ = 16					; size = 4
??$GetAnimationEventTimeList_e@$06@ioEntityGroup@@QAEHHAAY06$$CBDAAV?$list@MV?$allocator@M@std@@@std@@@Z PROC ; ioEntityGroup::GetAnimationEventTimeList_e<7>, COMDAT
; _this$ = ecx

; 406  : 	{

  00000	6a 20		 push	 32			; 00000020H
  00002	b8 00 00 00 00	 mov	 eax, __ehhandler$??$GetAnimationEventTimeList_e@$06@ioEntityGroup@@QAEHHAAY06$$CBDAAV?$list@MV?$allocator@M@std@@@std@@@Z
  00007	e8 00 00 00 00	 call	 __EH_prolog3_GS
  0000c	8b 45 0c	 mov	 eax, DWORD PTR _szEventType$[ebp]
  0000f	8b 75 10	 mov	 esi, DWORD PTR _vTimeList$[ebp]
  00012	8b f9		 mov	 edi, ecx

; 407  : 		_ENCSTR(szEventType, szEncEventType);

  00014	8a 08		 mov	 cl, BYTE PTR [eax]
  00016	84 c9		 test	 cl, cl
  00018	0f 84 c0 00 00
	00		 je	 $LN96@GetAnimati@2
  0001e	80 f1 ed	 xor	 cl, -19			; ffffffedH
  00021	88 4d e4	 mov	 BYTE PTR _szEncEventType$[ebp], cl
  00024	8a 48 01	 mov	 cl, BYTE PTR [eax+1]
  00027	84 c9		 test	 cl, cl
  00029	0f 84 a9 00 00
	00		 je	 $LN95@GetAnimati@2
  0002f	80 f1 ec	 xor	 cl, -20			; ffffffecH
  00032	88 4d e5	 mov	 BYTE PTR _szEncEventType$[ebp+1], cl
  00035	8a 48 02	 mov	 cl, BYTE PTR [eax+2]
  00038	84 c9		 test	 cl, cl
  0003a	0f 84 92 00 00
	00		 je	 $LN94@GetAnimati@2
  00040	80 f1 eb	 xor	 cl, -21			; ffffffebH
  00043	88 4d e6	 mov	 BYTE PTR _szEncEventType$[ebp+2], cl
  00046	8a 48 03	 mov	 cl, BYTE PTR [eax+3]
  00049	84 c9		 test	 cl, cl
  0004b	74 7f		 je	 SHORT $LN93@GetAnimati@2
  0004d	80 f1 ea	 xor	 cl, -22			; ffffffeaH
  00050	88 4d e7	 mov	 BYTE PTR _szEncEventType$[ebp+3], cl
  00053	8a 48 04	 mov	 cl, BYTE PTR [eax+4]
  00056	84 c9		 test	 cl, cl
  00058	74 6c		 je	 SHORT $LN92@GetAnimati@2
  0005a	80 f1 ed	 xor	 cl, -19			; ffffffedH
  0005d	88 4d e8	 mov	 BYTE PTR _szEncEventType$[ebp+4], cl
  00060	8a 48 05	 mov	 cl, BYTE PTR [eax+5]
  00063	84 c9		 test	 cl, cl
  00065	74 59		 je	 SHORT $LN91@GetAnimati@2
  00067	80 f1 ec	 xor	 cl, -20			; ffffffecH
  0006a	80 78 06 00	 cmp	 BYTE PTR [eax+6], 0
  0006e	88 4d e9	 mov	 BYTE PTR _szEncEventType$[ebp+5], cl
  00071	74 6f		 je	 SHORT $LN1@GetAnimati@2
  00073	8a 48 07	 mov	 cl, BYTE PTR [eax+7]
  00076	84 c9		 test	 cl, cl
  00078	74 40		 je	 SHORT $LN89@GetAnimati@2
  0007a	80 f1 ea	 xor	 cl, -22			; ffffffeaH
  0007d	88 4d eb	 mov	 BYTE PTR _szEncEventType$[ebp+7], cl
  00080	8a 48 08	 mov	 cl, BYTE PTR [eax+8]
  00083	84 c9		 test	 cl, cl
  00085	74 2d		 je	 SHORT $LN88@GetAnimati@2
  00087	80 f1 ed	 xor	 cl, -19			; ffffffedH
  0008a	88 4d ec	 mov	 BYTE PTR _szEncEventType$[ebp+8], cl
  0008d	8a 48 09	 mov	 cl, BYTE PTR [eax+9]
  00090	84 c9		 test	 cl, cl
  00092	74 1a		 je	 SHORT $LN87@GetAnimati@2
  00094	8a 40 0a	 mov	 al, BYTE PTR [eax+10]
  00097	80 f1 ec	 xor	 cl, -20			; ffffffecH
  0009a	88 4d ed	 mov	 BYTE PTR _szEncEventType$[ebp+9], cl
  0009d	84 c0		 test	 al, al
  0009f	74 07		 je	 SHORT $LN86@GetAnimati@2
  000a1	34 eb		 xor	 al, -21			; ffffffebH
  000a3	88 45 ee	 mov	 BYTE PTR _szEncEventType$[ebp+10], al
  000a6	eb 3a		 jmp	 SHORT $LN1@GetAnimati@2
$LN86@GetAnimati@2:
  000a8	c6 45 ee eb	 mov	 BYTE PTR _szEncEventType$[ebp+10], -21 ; ffffffebH
  000ac	eb 34		 jmp	 SHORT $LN1@GetAnimati@2
$LN87@GetAnimati@2:
  000ae	c6 45 ed ec	 mov	 BYTE PTR _szEncEventType$[ebp+9], -20 ; ffffffecH
  000b2	eb 2e		 jmp	 SHORT $LN1@GetAnimati@2
$LN88@GetAnimati@2:
  000b4	c6 45 ec ed	 mov	 BYTE PTR _szEncEventType$[ebp+8], -19 ; ffffffedH
  000b8	eb 28		 jmp	 SHORT $LN1@GetAnimati@2
$LN89@GetAnimati@2:
  000ba	c6 45 eb ea	 mov	 BYTE PTR _szEncEventType$[ebp+7], -22 ; ffffffeaH
  000be	eb 22		 jmp	 SHORT $LN1@GetAnimati@2
$LN91@GetAnimati@2:
  000c0	c6 45 e9 ec	 mov	 BYTE PTR _szEncEventType$[ebp+5], -20 ; ffffffecH
  000c4	eb 1c		 jmp	 SHORT $LN1@GetAnimati@2
$LN92@GetAnimati@2:
  000c6	c6 45 e8 ed	 mov	 BYTE PTR _szEncEventType$[ebp+4], -19 ; ffffffedH
  000ca	eb 16		 jmp	 SHORT $LN1@GetAnimati@2
$LN93@GetAnimati@2:
  000cc	c6 45 e7 ea	 mov	 BYTE PTR _szEncEventType$[ebp+3], -22 ; ffffffeaH
  000d0	eb 10		 jmp	 SHORT $LN1@GetAnimati@2
$LN94@GetAnimati@2:
  000d2	c6 45 e6 eb	 mov	 BYTE PTR _szEncEventType$[ebp+2], -21 ; ffffffebH
  000d6	eb 0a		 jmp	 SHORT $LN1@GetAnimati@2
$LN95@GetAnimati@2:
  000d8	c6 45 e5 ec	 mov	 BYTE PTR _szEncEventType$[ebp+1], -20 ; ffffffecH
  000dc	eb 04		 jmp	 SHORT $LN1@GetAnimati@2
$LN96@GetAnimati@2:
  000de	c6 45 e4 ed	 mov	 BYTE PTR _szEncEventType$[ebp], -19 ; ffffffedH
$LN1@GetAnimati@2:
  000e2	81 75 e4 ed ec
	eb ea		 xor	 DWORD PTR _szEncEventType$[ebp], -353637139 ; eaebecedH
  000e9	6a 04		 push	 4
  000eb	c6 45 ea 00	 mov	 BYTE PTR _szEncEventType$[ebp+6], 0
  000ef	58		 pop	 eax
$LL102@GetAnimati@2:
  000f0	8b c8		 mov	 ecx, eax
  000f2	81 e1 03 00 00
	80		 and	 ecx, -2147483645	; 80000003H
  000f8	79 05		 jns	 SHORT $LN113@GetAnimati@2
  000fa	49		 dec	 ecx
  000fb	83 c9 fc	 or	 ecx, -4			; fffffffcH
  000fe	41		 inc	 ecx
$LN113@GetAnimati@2:
  000ff	b2 ed		 mov	 dl, -19			; ffffffedH
  00101	2a d1		 sub	 dl, cl
  00103	30 54 05 e4	 xor	 BYTE PTR _szEncEventType$[ebp+eax], dl
  00107	40		 inc	 eax
  00108	83 f8 06	 cmp	 eax, 6
  0010b	7c e3		 jl	 SHORT $LL102@GetAnimati@2

; 408  : 		return GetAnimationEventTimeList(id, szEncEventType, vTimeList);

  0010d	8d 45 e4	 lea	 eax, DWORD PTR _szEncEventType$[ebp]
  00110	50		 push	 eax
  00111	8d 4d d4	 lea	 ecx, DWORD PTR $T670912[ebp]
  00114	ff 15 00 00 00
	00		 call	 DWORD PTR __imp_??0ioHashString@@QAE@PBD@Z
  0011a	83 65 fc 00	 and	 DWORD PTR __$EHRec$[ebp+8], 0
  0011e	56		 push	 esi
  0011f	8d 45 d4	 lea	 eax, DWORD PTR $T670912[ebp]
  00122	50		 push	 eax
  00123	ff 75 08	 push	 DWORD PTR _id$[ebp]
  00126	8b cf		 mov	 ecx, edi
  00128	ff 15 00 00 00
	00		 call	 DWORD PTR __imp_?GetAnimationEventTimeList@ioEntityGroup@@QAEHHABVioHashString@@AAV?$list@MV?$allocator@M@std@@@std@@@Z
  0012e	83 4d fc ff	 or	 DWORD PTR __$EHRec$[ebp+8], -1
  00132	8d 4d d4	 lea	 ecx, DWORD PTR $T670912[ebp]
  00135	8b f0		 mov	 esi, eax
  00137	ff 15 00 00 00
	00		 call	 DWORD PTR __imp_??1ioHashString@@QAE@XZ
  0013d	8b c6		 mov	 eax, esi

; 409  : 	}

  0013f	e8 00 00 00 00	 call	 __EH_epilog3_GS
  00144	c2 0c 00	 ret	 12			; 0000000cH
_TEXT	ENDS
;	COMDAT text$x
text$x	SEGMENT
__unwindfunclet$??$GetAnimationEventTimeList_e@$06@ioEntityGroup@@QAEHHAAY06$$CBDAAV?$list@MV?$allocator@M@std@@@std@@@Z$0:
  00000	8d 4d d4	 lea	 ecx, DWORD PTR $T670912[ebp]
  00003	ff 25 00 00 00
	00		 jmp	 DWORD PTR __imp_??1ioHashString@@QAE@XZ
__ehhandler$??$GetAnimationEventTimeList_e@$06@ioEntityGroup@@QAEHHAAY06$$CBDAAV?$list@MV?$allocator@M@std@@@std@@@Z:
  00009	8b 54 24 08	 mov	 edx, DWORD PTR [esp+8]
  0000d	8d 42 0c	 lea	 eax, DWORD PTR [edx+12]
  00010	8b 4a d0	 mov	 ecx, DWORD PTR [edx-48]
  00013	33 c8		 xor	 ecx, eax
  00015	e8 00 00 00 00	 call	 @__security_check_cookie@4
  0001a	8b 4a fc	 mov	 ecx, DWORD PTR [edx-4]
  0001d	33 c8		 xor	 ecx, eax
  0001f	e8 00 00 00 00	 call	 @__security_check_cookie@4
  00024	b8 00 00 00 00	 mov	 eax, OFFSET __ehfuncinfo$??$GetAnimationEventTimeList_e@$06@ioEntityGroup@@QAEHHAAY06$$CBDAAV?$list@MV?$allocator@M@std@@@std@@@Z
  00029	e9 00 00 00 00	 jmp	 ___CxxFrameHandler3
text$x	ENDS
??$GetAnimationEventTimeList_e@$06@ioEntityGroup@@QAEHHAAY06$$CBDAAV?$list@MV?$allocator@M@std@@@std@@@Z ENDP ; ioEntityGroup::GetAnimationEventTimeList_e<7>
PUBLIC	??$GetAnimationEventConstPtrList_e@$0P@@ioEntityGroup@@QAEHHAAY0P@$$CBDAAV?$vector@PBUAniEventTime@@V?$allocator@PBUAniEventTime@@@std@@@std@@@Z ; ioEntityGroup::GetAnimationEventConstPtrList_e<15>
;	COMDAT xdata$x
; File d:\lost saga for developer\youtube\tutorial\source\src\lsclient\stringprotect.h
xdata$x	SEGMENT
__unwindtable$??$GetAnimationEventConstPtrList_e@$0P@@ioEntityGroup@@QAEHHAAY0P@$$CBDAAV?$vector@PBUAniEventTime@@V?$allocator@PBUAniEventTime@@@std@@@std@@@Z DD 0ffffffffH
	DD	FLAT:__unwindfunclet$??$GetAnimationEventConstPtrList_e@$0P@@ioEntityGroup@@QAEHHAAY0P@$$CBDAAV?$vector@PBUAniEventTime@@V?$allocator@PBUAniEventTime@@@std@@@std@@@Z$0
__ehfuncinfo$??$GetAnimationEventConstPtrList_e@$0P@@ioEntityGroup@@QAEHHAAY0P@$$CBDAAV?$vector@PBUAniEventTime@@V?$allocator@PBUAniEventTime@@@std@@@std@@@Z DD 019930522H
	DD	01H
	DD	FLAT:__unwindtable$??$GetAnimationEventConstPtrList_e@$0P@@ioEntityGroup@@QAEHHAAY0P@$$CBDAAV?$vector@PBUAniEventTime@@V?$allocator@PBUAniEventTime@@@std@@@std@@@Z
	DD	2 DUP(00H)
	DD	2 DUP(00H)
	DD	00H
	DD	01H
; Function compile flags: /Ogsp
; File d:\lost saga for developer\youtube\tutorial\source\src\io3dengine\ioentitygroup.h
xdata$x	ENDS
;	COMDAT ??$GetAnimationEventConstPtrList_e@$0P@@ioEntityGroup@@QAEHHAAY0P@$$CBDAAV?$vector@PBUAniEventTime@@V?$allocator@PBUAniEventTime@@@std@@@std@@@Z
_TEXT	SEGMENT
$T670944 = -52						; size = 16
_szEncEventType$ = -36					; size = 15
__$EHRec$ = -12						; size = 12
_id$ = 8						; size = 4
_szEventType$ = 12					; size = 4
_vEventList$ = 16					; size = 4
??$GetAnimationEventConstPtrList_e@$0P@@ioEntityGroup@@QAEHHAAY0P@$$CBDAAV?$vector@PBUAniEventTime@@V?$allocator@PBUAniEventTime@@@std@@@std@@@Z PROC ; ioEntityGroup::GetAnimationEventConstPtrList_e<15>, COMDAT
; _this$ = ecx

; 423  : 	{

  00000	6a 28		 push	 40			; 00000028H
  00002	b8 00 00 00 00	 mov	 eax, __ehhandler$??$GetAnimationEventConstPtrList_e@$0P@@ioEntityGroup@@QAEHHAAY0P@$$CBDAAV?$vector@PBUAniEventTime@@V?$allocator@PBUAniEventTime@@@std@@@std@@@Z
  00007	e8 00 00 00 00	 call	 __EH_prolog3_GS
  0000c	8b 45 0c	 mov	 eax, DWORD PTR _szEventType$[ebp]
  0000f	8b 75 10	 mov	 esi, DWORD PTR _vEventList$[ebp]
  00012	8b f9		 mov	 edi, ecx

; 424  : 		_ENCSTR(szEventType, szEncEventType);

  00014	8a 08		 mov	 cl, BYTE PTR [eax]
  00016	84 c9		 test	 cl, cl
  00018	0f 84 7b 01 00
	00		 je	 $LN96@GetAnimati@3
  0001e	80 f1 ed	 xor	 cl, -19			; ffffffedH
  00021	88 4d dc	 mov	 BYTE PTR _szEncEventType$[ebp], cl
  00024	8a 48 01	 mov	 cl, BYTE PTR [eax+1]
  00027	84 c9		 test	 cl, cl
  00029	0f 84 64 01 00
	00		 je	 $LN95@GetAnimati@3
  0002f	80 f1 ec	 xor	 cl, -20			; ffffffecH
  00032	88 4d dd	 mov	 BYTE PTR _szEncEventType$[ebp+1], cl
  00035	8a 48 02	 mov	 cl, BYTE PTR [eax+2]
  00038	84 c9		 test	 cl, cl
  0003a	0f 84 4d 01 00
	00		 je	 $LN94@GetAnimati@3
  00040	80 f1 eb	 xor	 cl, -21			; ffffffebH
  00043	88 4d de	 mov	 BYTE PTR _szEncEventType$[ebp+2], cl
  00046	8a 48 03	 mov	 cl, BYTE PTR [eax+3]
  00049	84 c9		 test	 cl, cl
  0004b	0f 84 36 01 00
	00		 je	 $LN93@GetAnimati@3
  00051	b2 ea		 mov	 dl, -22			; ffffffeaH
  00053	32 ca		 xor	 cl, dl
  00055	88 4d df	 mov	 BYTE PTR _szEncEventType$[ebp+3], cl
  00058	8a 48 04	 mov	 cl, BYTE PTR [eax+4]
  0005b	84 c9		 test	 cl, cl
  0005d	0f 84 1e 01 00
	00		 je	 $LN92@GetAnimati@3
  00063	80 f1 ed	 xor	 cl, -19			; ffffffedH
  00066	88 4d e0	 mov	 BYTE PTR _szEncEventType$[ebp+4], cl
  00069	8a 48 05	 mov	 cl, BYTE PTR [eax+5]
  0006c	84 c9		 test	 cl, cl
  0006e	0f 84 07 01 00
	00		 je	 $LN91@GetAnimati@3
  00074	80 f1 ec	 xor	 cl, -20			; ffffffecH
  00077	88 4d e1	 mov	 BYTE PTR _szEncEventType$[ebp+5], cl
  0007a	8a 48 06	 mov	 cl, BYTE PTR [eax+6]
  0007d	84 c9		 test	 cl, cl
  0007f	0f 84 f0 00 00
	00		 je	 $LN90@GetAnimati@3
  00085	80 f1 eb	 xor	 cl, -21			; ffffffebH
  00088	88 4d e2	 mov	 BYTE PTR _szEncEventType$[ebp+6], cl
  0008b	8a 48 07	 mov	 cl, BYTE PTR [eax+7]
  0008e	84 c9		 test	 cl, cl
  00090	0f 84 da 00 00
	00		 je	 $LN89@GetAnimati@3
  00096	32 ca		 xor	 cl, dl
  00098	88 4d e3	 mov	 BYTE PTR _szEncEventType$[ebp+7], cl
  0009b	8a 48 08	 mov	 cl, BYTE PTR [eax+8]
  0009e	84 c9		 test	 cl, cl
  000a0	0f 84 c4 00 00
	00		 je	 $LN88@GetAnimati@3
  000a6	80 f1 ed	 xor	 cl, -19			; ffffffedH
  000a9	88 4d e4	 mov	 BYTE PTR _szEncEventType$[ebp+8], cl
  000ac	8a 48 09	 mov	 cl, BYTE PTR [eax+9]
  000af	84 c9		 test	 cl, cl
  000b1	0f 84 ad 00 00
	00		 je	 $LN87@GetAnimati@3
  000b7	80 f1 ec	 xor	 cl, -20			; ffffffecH
  000ba	88 4d e5	 mov	 BYTE PTR _szEncEventType$[ebp+9], cl
  000bd	8a 48 0a	 mov	 cl, BYTE PTR [eax+10]
  000c0	84 c9		 test	 cl, cl
  000c2	0f 84 96 00 00
	00		 je	 $LN86@GetAnimati@3
  000c8	80 f1 eb	 xor	 cl, -21			; ffffffebH
  000cb	88 4d e6	 mov	 BYTE PTR _szEncEventType$[ebp+10], cl
  000ce	8a 48 0b	 mov	 cl, BYTE PTR [eax+11]
  000d1	84 c9		 test	 cl, cl
  000d3	0f 84 80 00 00
	00		 je	 $LN85@GetAnimati@3
  000d9	32 ca		 xor	 cl, dl
  000db	88 4d e7	 mov	 BYTE PTR _szEncEventType$[ebp+11], cl
  000de	8a 48 0c	 mov	 cl, BYTE PTR [eax+12]
  000e1	84 c9		 test	 cl, cl
  000e3	74 6e		 je	 SHORT $LN84@GetAnimati@3
  000e5	80 f1 ed	 xor	 cl, -19			; ffffffedH
  000e8	88 4d e8	 mov	 BYTE PTR _szEncEventType$[ebp+12], cl
  000eb	8a 48 0d	 mov	 cl, BYTE PTR [eax+13]
  000ee	84 c9		 test	 cl, cl
  000f0	74 5b		 je	 SHORT $LN83@GetAnimati@3
  000f2	80 f1 ec	 xor	 cl, -20			; ffffffecH
  000f5	80 78 0e 00	 cmp	 BYTE PTR [eax+14], 0
  000f9	88 4d e9	 mov	 BYTE PTR _szEncEventType$[ebp+13], cl
  000fc	0f 84 9b 00 00
	00		 je	 $LN1@GetAnimati@3
  00102	8a 48 0f	 mov	 cl, BYTE PTR [eax+15]
  00105	84 c9		 test	 cl, cl
  00107	74 3f		 je	 SHORT $LN81@GetAnimati@3
  00109	32 ca		 xor	 cl, dl
  0010b	88 4d eb	 mov	 BYTE PTR _szEncEventType$[ebp+15], cl
  0010e	8a 48 10	 mov	 cl, BYTE PTR [eax+16]
  00111	84 c9		 test	 cl, cl
  00113	74 2d		 je	 SHORT $LN80@GetAnimati@3
  00115	80 f1 ed	 xor	 cl, -19			; ffffffedH
  00118	88 4d ec	 mov	 BYTE PTR _szEncEventType$[ebp+16], cl
  0011b	8a 48 11	 mov	 cl, BYTE PTR [eax+17]
  0011e	84 c9		 test	 cl, cl
  00120	74 1a		 je	 SHORT $LN79@GetAnimati@3
  00122	8a 40 12	 mov	 al, BYTE PTR [eax+18]
  00125	80 f1 ec	 xor	 cl, -20			; ffffffecH
  00128	88 4d ed	 mov	 BYTE PTR _szEncEventType$[ebp+17], cl
  0012b	84 c0		 test	 al, al
  0012d	74 07		 je	 SHORT $LN78@GetAnimati@3
  0012f	34 eb		 xor	 al, -21			; ffffffebH
  00131	88 45 ee	 mov	 BYTE PTR _szEncEventType$[ebp+18], al
  00134	eb 67		 jmp	 SHORT $LN1@GetAnimati@3
$LN78@GetAnimati@3:
  00136	c6 45 ee eb	 mov	 BYTE PTR _szEncEventType$[ebp+18], -21 ; ffffffebH
  0013a	eb 61		 jmp	 SHORT $LN1@GetAnimati@3
$LN79@GetAnimati@3:
  0013c	c6 45 ed ec	 mov	 BYTE PTR _szEncEventType$[ebp+17], -20 ; ffffffecH
  00140	eb 5b		 jmp	 SHORT $LN1@GetAnimati@3
$LN80@GetAnimati@3:
  00142	c6 45 ec ed	 mov	 BYTE PTR _szEncEventType$[ebp+16], -19 ; ffffffedH
  00146	eb 55		 jmp	 SHORT $LN1@GetAnimati@3
$LN81@GetAnimati@3:
  00148	88 55 eb	 mov	 BYTE PTR _szEncEventType$[ebp+15], dl
  0014b	eb 50		 jmp	 SHORT $LN1@GetAnimati@3
$LN83@GetAnimati@3:
  0014d	c6 45 e9 ec	 mov	 BYTE PTR _szEncEventType$[ebp+13], -20 ; ffffffecH
  00151	eb 4a		 jmp	 SHORT $LN1@GetAnimati@3
$LN84@GetAnimati@3:
  00153	c6 45 e8 ed	 mov	 BYTE PTR _szEncEventType$[ebp+12], -19 ; ffffffedH
  00157	eb 44		 jmp	 SHORT $LN1@GetAnimati@3
$LN85@GetAnimati@3:
  00159	88 55 e7	 mov	 BYTE PTR _szEncEventType$[ebp+11], dl
  0015c	eb 3f		 jmp	 SHORT $LN1@GetAnimati@3
$LN86@GetAnimati@3:
  0015e	c6 45 e6 eb	 mov	 BYTE PTR _szEncEventType$[ebp+10], -21 ; ffffffebH
  00162	eb 39		 jmp	 SHORT $LN1@GetAnimati@3
$LN87@GetAnimati@3:
  00164	c6 45 e5 ec	 mov	 BYTE PTR _szEncEventType$[ebp+9], -20 ; ffffffecH
  00168	eb 33		 jmp	 SHORT $LN1@GetAnimati@3
$LN88@GetAnimati@3:
  0016a	c6 45 e4 ed	 mov	 BYTE PTR _szEncEventType$[ebp+8], -19 ; ffffffedH
  0016e	eb 2d		 jmp	 SHORT $LN1@GetAnimati@3
$LN89@GetAnimati@3:
  00170	88 55 e3	 mov	 BYTE PTR _szEncEventType$[ebp+7], dl
  00173	eb 28		 jmp	 SHORT $LN1@GetAnimati@3
$LN90@GetAnimati@3:
  00175	c6 45 e2 eb	 mov	 BYTE PTR _szEncEventType$[ebp+6], -21 ; ffffffebH
  00179	eb 22		 jmp	 SHORT $LN1@GetAnimati@3
$LN91@GetAnimati@3:
  0017b	c6 45 e1 ec	 mov	 BYTE PTR _szEncEventType$[ebp+5], -20 ; ffffffecH
  0017f	eb 1c		 jmp	 SHORT $LN1@GetAnimati@3
$LN92@GetAnimati@3:
  00181	c6 45 e0 ed	 mov	 BYTE PTR _szEncEventType$[ebp+4], -19 ; ffffffedH
  00185	eb 16		 jmp	 SHORT $LN1@GetAnimati@3
$LN93@GetAnimati@3:
  00187	c6 45 df ea	 mov	 BYTE PTR _szEncEventType$[ebp+3], -22 ; ffffffeaH
  0018b	eb 10		 jmp	 SHORT $LN1@GetAnimati@3
$LN94@GetAnimati@3:
  0018d	c6 45 de eb	 mov	 BYTE PTR _szEncEventType$[ebp+2], -21 ; ffffffebH
  00191	eb 0a		 jmp	 SHORT $LN1@GetAnimati@3
$LN95@GetAnimati@3:
  00193	c6 45 dd ec	 mov	 BYTE PTR _szEncEventType$[ebp+1], -20 ; ffffffecH
  00197	eb 04		 jmp	 SHORT $LN1@GetAnimati@3
$LN96@GetAnimati@3:
  00199	c6 45 dc ed	 mov	 BYTE PTR _szEncEventType$[ebp], -19 ; ffffffedH
$LN1@GetAnimati@3:
  0019d	6a 03		 push	 3
  0019f	8d 45 dc	 lea	 eax, DWORD PTR _szEncEventType$[ebp]
  001a2	c6 45 ea 00	 mov	 BYTE PTR _szEncEventType$[ebp+14], 0
  001a6	59		 pop	 ecx
$LL105@GetAnimati@3:
  001a7	81 30 ed ec eb
	ea		 xor	 DWORD PTR [eax], -353637139 ; eaebecedH
  001ad	83 c0 04	 add	 eax, 4
  001b0	49		 dec	 ecx
  001b1	75 f4		 jne	 SHORT $LL105@GetAnimati@3
  001b3	6a 0c		 push	 12			; 0000000cH
  001b5	58		 pop	 eax
$LL102@GetAnimati@3:
  001b6	8b c8		 mov	 ecx, eax
  001b8	81 e1 03 00 00
	80		 and	 ecx, -2147483645	; 80000003H
  001be	79 05		 jns	 SHORT $LN113@GetAnimati@3
  001c0	49		 dec	 ecx
  001c1	83 c9 fc	 or	 ecx, -4			; fffffffcH
  001c4	41		 inc	 ecx
$LN113@GetAnimati@3:
  001c5	b2 ed		 mov	 dl, -19			; ffffffedH
  001c7	2a d1		 sub	 dl, cl
  001c9	30 54 05 dc	 xor	 BYTE PTR _szEncEventType$[ebp+eax], dl
  001cd	40		 inc	 eax
  001ce	83 f8 0e	 cmp	 eax, 14			; 0000000eH
  001d1	7c e3		 jl	 SHORT $LL102@GetAnimati@3

; 425  : 		return GetAnimationEventConstPtrList(id, szEncEventType, vEventList);

  001d3	8d 45 dc	 lea	 eax, DWORD PTR _szEncEventType$[ebp]
  001d6	50		 push	 eax
  001d7	8d 4d cc	 lea	 ecx, DWORD PTR $T670944[ebp]
  001da	ff 15 00 00 00
	00		 call	 DWORD PTR __imp_??0ioHashString@@QAE@PBD@Z
  001e0	83 65 fc 00	 and	 DWORD PTR __$EHRec$[ebp+8], 0
  001e4	56		 push	 esi
  001e5	8d 45 cc	 lea	 eax, DWORD PTR $T670944[ebp]
  001e8	50		 push	 eax
  001e9	ff 75 08	 push	 DWORD PTR _id$[ebp]
  001ec	8b cf		 mov	 ecx, edi
  001ee	ff 15 00 00 00
	00		 call	 DWORD PTR __imp_?GetAnimationEventConstPtrList@ioEntityGroup@@QAEHHABVioHashString@@AAV?$vector@PBUAniEventTime@@V?$allocator@PBUAniEventTime@@@std@@@std@@@Z
  001f4	83 4d fc ff	 or	 DWORD PTR __$EHRec$[ebp+8], -1
  001f8	8d 4d cc	 lea	 ecx, DWORD PTR $T670944[ebp]
  001fb	8b f0		 mov	 esi, eax
  001fd	ff 15 00 00 00
	00		 call	 DWORD PTR __imp_??1ioHashString@@QAE@XZ
  00203	8b c6		 mov	 eax, esi

; 426  : 	}

  00205	e8 00 00 00 00	 call	 __EH_epilog3_GS
  0020a	c2 0c 00	 ret	 12			; 0000000cH
_TEXT	ENDS
;	COMDAT text$x
text$x	SEGMENT
__unwindfunclet$??$GetAnimationEventConstPtrList_e@$0P@@ioEntityGroup@@QAEHHAAY0P@$$CBDAAV?$vector@PBUAniEventTime@@V?$allocator@PBUAniEventTime@@@std@@@std@@@Z$0:
  00000	8d 4d cc	 lea	 ecx, DWORD PTR $T670944[ebp]
  00003	ff 25 00 00 00
	00		 jmp	 DWORD PTR __imp_??1ioHashString@@QAE@XZ
__ehhandler$??$GetAnimationEventConstPtrList_e@$0P@@ioEntityGroup@@QAEHHAAY0P@$$CBDAAV?$vector@PBUAniEventTime@@V?$allocator@PBUAniEventTime@@@std@@@std@@@Z:
  00009	8b 54 24 08	 mov	 edx, DWORD PTR [esp+8]
  0000d	8d 42 0c	 lea	 eax, DWORD PTR [edx+12]
  00010	8b 4a c8	 mov	 ecx, DWORD PTR [edx-56]
  00013	33 c8		 xor	 ecx, eax
  00015	e8 00 00 00 00	 call	 @__security_check_cookie@4
  0001a	8b 4a fc	 mov	 ecx, DWORD PTR [edx-4]
  0001d	33 c8		 xor	 ecx, eax
  0001f	e8 00 00 00 00	 call	 @__security_check_cookie@4
  00024	b8 00 00 00 00	 mov	 eax, OFFSET __ehfuncinfo$??$GetAnimationEventConstPtrList_e@$0P@@ioEntityGroup@@QAEHHAAY0P@$$CBDAAV?$vector@PBUAniEventTime@@V?$allocator@PBUAniEventTime@@@std@@@std@@@Z
  00029	e9 00 00 00 00	 jmp	 ___CxxFrameHandler3
text$x	ENDS
??$GetAnimationEventConstPtrList_e@$0P@@ioEntityGroup@@QAEHHAAY0P@$$CBDAAV?$vector@PBUAniEventTime@@V?$allocator@PBUAniEventTime@@@std@@@std@@@Z ENDP ; ioEntityGroup::GetAnimationEventConstPtrList_e<15>
PUBLIC	??$_Cons_val@V?$allocator@UExtraAniJump@@@std@@UExtraAniJump@@AAU3@@std@@YAXAAV?$allocator@UExtraAniJump@@@0@PAUExtraAniJump@@AAU2@@Z ; std::_Cons_val<std::allocator<ExtraAniJump>,ExtraAniJump,ExtraAniJump &>
; Function compile flags: /Ogsp
; File c:\program files (x86)\microsoft visual studio 10.0\vc\include\xmemory
;	COMDAT ??$_Cons_val@V?$allocator@UExtraAniJump@@@std@@UExtraAniJump@@AAU3@@std@@YAXAAV?$allocator@UExtraAniJump@@@0@PAUExtraAniJump@@AAU2@@Z
_TEXT	SEGMENT
__Alval$ = 8						; size = 4
__Pdest$ = 12						; size = 4
__Src$ = 16						; size = 4
??$_Cons_val@V?$allocator@UExtraAniJump@@@std@@UExtraAniJump@@AAU3@@std@@YAXAAV?$allocator@UExtraAniJump@@@0@PAUExtraAniJump@@AAU2@@Z PROC ; std::_Cons_val<std::allocator<ExtraAniJump>,ExtraAniJump,ExtraAniJump &>, COMDAT

; 279  : 	{	// construct using allocator

  00000	55		 push	 ebp
  00001	8b ec		 mov	 ebp, esp

; 280  : 	_Alval.construct(_Pdest, _STD forward<_Ty2>(_Src));

  00003	8b 45 0c	 mov	 eax, DWORD PTR __Pdest$[ebp]
  00006	85 c0		 test	 eax, eax
  00008	74 0d		 je	 SHORT $LN7@Cons_val
  0000a	8b 4d 10	 mov	 ecx, DWORD PTR __Src$[ebp]
  0000d	8b 11		 mov	 edx, DWORD PTR [ecx]
  0000f	89 10		 mov	 DWORD PTR [eax], edx
  00011	8b 49 04	 mov	 ecx, DWORD PTR [ecx+4]
  00014	89 48 04	 mov	 DWORD PTR [eax+4], ecx
$LN7@Cons_val:

; 281  : 	}

  00017	5d		 pop	 ebp
  00018	c3		 ret	 0
??$_Cons_val@V?$allocator@UExtraAniJump@@@std@@UExtraAniJump@@AAU3@@std@@YAXAAV?$allocator@UExtraAniJump@@@0@PAUExtraAniJump@@AAU2@@Z ENDP ; std::_Cons_val<std::allocator<ExtraAniJump>,ExtraAniJump,ExtraAniJump &>
_TEXT	ENDS
PUBLIC	??$_Destroy_range@V?$allocator@PBUAniEventTime@@@std@@@std@@YAXPAPBUAniEventTime@@0AAV?$allocator@PBUAniEventTime@@@0@@Z ; std::_Destroy_range<std::allocator<AniEventTime const *> >
; Function compile flags: /Ogsp
;	COMDAT ??$_Destroy_range@V?$allocator@PBUAniEventTime@@@std@@@std@@YAXPAPBUAniEventTime@@0AAV?$allocator@PBUAniEventTime@@@0@@Z
_TEXT	SEGMENT
__First$ = 8						; size = 4
__Last$ = 12						; size = 4
__Al$ = 16						; size = 4
??$_Destroy_range@V?$allocator@PBUAniEventTime@@@std@@@std@@YAXPAPBUAniEventTime@@0AAV?$allocator@PBUAniEventTime@@@0@@Z PROC ; std::_Destroy_range<std::allocator<AniEventTime const *> >, COMDAT

; 88   : 	_Destroy_range(_First, _Last, _Al, _Ptr_cat(_First, _Last));
; 89   : 	}

  00000	c3		 ret	 0
??$_Destroy_range@V?$allocator@PBUAniEventTime@@@std@@@std@@YAXPAPBUAniEventTime@@0AAV?$allocator@PBUAniEventTime@@@0@@Z ENDP ; std::_Destroy_range<std::allocator<AniEventTime const *> >
_TEXT	ENDS
PUBLIC	?construct@?$allocator@H@std@@QAEXPAHABH@Z	; std::allocator<int>::construct
; Function compile flags: /Ogsp
;	COMDAT ?construct@?$allocator@H@std@@QAEXPAHABH@Z
_TEXT	SEGMENT
__Ptr$ = 8						; size = 4
__Val$ = 12						; size = 4
?construct@?$allocator@H@std@@QAEXPAHABH@Z PROC		; std::allocator<int>::construct, COMDAT
; _this$ = ecx

; 196  : 		{	// construct object at _Ptr with value _Val

  00000	55		 push	 ebp
  00001	8b ec		 mov	 ebp, esp

; 197  : 		_Construct(_Ptr, _Val);

  00003	8b 45 08	 mov	 eax, DWORD PTR __Ptr$[ebp]
  00006	85 c0		 test	 eax, eax
  00008	74 07		 je	 SHORT $LN5@construct@2
  0000a	8b 4d 0c	 mov	 ecx, DWORD PTR __Val$[ebp]
  0000d	8b 09		 mov	 ecx, DWORD PTR [ecx]
  0000f	89 08		 mov	 DWORD PTR [eax], ecx
$LN5@construct@2:

; 198  : 		}

  00011	5d		 pop	 ebp
  00012	c2 08 00	 ret	 8
?construct@?$allocator@H@std@@QAEXPAHABH@Z ENDP		; std::allocator<int>::construct
_TEXT	ENDS
PUBLIC	?construct@?$allocator@UExtraAniJump@@@std@@QAEXPAUExtraAniJump@@ABU3@@Z ; std::allocator<ExtraAniJump>::construct
; Function compile flags: /Ogsp
;	COMDAT ?construct@?$allocator@UExtraAniJump@@@std@@QAEXPAUExtraAniJump@@ABU3@@Z
_TEXT	SEGMENT
__Ptr$ = 8						; size = 4
__Val$ = 12						; size = 4
?construct@?$allocator@UExtraAniJump@@@std@@QAEXPAUExtraAniJump@@ABU3@@Z PROC ; std::allocator<ExtraAniJump>::construct, COMDAT
; _this$ = ecx

; 196  : 		{	// construct object at _Ptr with value _Val

  00000	55		 push	 ebp
  00001	8b ec		 mov	 ebp, esp

; 197  : 		_Construct(_Ptr, _Val);

  00003	8b 45 08	 mov	 eax, DWORD PTR __Ptr$[ebp]
  00006	85 c0		 test	 eax, eax
  00008	74 0d		 je	 SHORT $LN5@construct@3
  0000a	8b 4d 0c	 mov	 ecx, DWORD PTR __Val$[ebp]
  0000d	8b 11		 mov	 edx, DWORD PTR [ecx]
  0000f	89 10		 mov	 DWORD PTR [eax], edx
  00011	8b 49 04	 mov	 ecx, DWORD PTR [ecx+4]
  00014	89 48 04	 mov	 DWORD PTR [eax+4], ecx
$LN5@construct@3:

; 198  : 		}

  00017	5d		 pop	 ebp
  00018	c2 08 00	 ret	 8
?construct@?$allocator@UExtraAniJump@@@std@@QAEXPAUExtraAniJump@@ABU3@@Z ENDP ; std::allocator<ExtraAniJump>::construct
_TEXT	ENDS
PUBLIC	?destroy@?$allocator@U_Node@?$_List_nod@MV?$allocator@M@std@@@std@@@std@@QAEXPAU_Node@?$_List_nod@MV?$allocator@M@std@@@2@@Z ; std::allocator<std::_List_nod<float,std::allocator<float> >::_Node>::destroy
; Function compile flags: /Ogsp
;	COMDAT ?destroy@?$allocator@U_Node@?$_List_nod@MV?$allocator@M@std@@@std@@@std@@QAEXPAU_Node@?$_List_nod@MV?$allocator@M@std@@@2@@Z
_TEXT	SEGMENT
__Ptr$ = 8						; size = 4
?destroy@?$allocator@U_Node@?$_List_nod@MV?$allocator@M@std@@@std@@@std@@QAEXPAU_Node@?$_List_nod@MV?$allocator@M@std@@@2@@Z PROC ; std::allocator<std::_List_nod<float,std::allocator<float> >::_Node>::destroy, COMDAT
; _this$ = ecx

; 213  : 		_Destroy(_Ptr);
; 214  : 		}

  00000	c2 04 00	 ret	 4
?destroy@?$allocator@U_Node@?$_List_nod@MV?$allocator@M@std@@@std@@@std@@QAEXPAU_Node@?$_List_nod@MV?$allocator@M@std@@@2@@Z ENDP ; std::allocator<std::_List_nod<float,std::allocator<float> >::_Node>::destroy
_TEXT	ENDS
PUBLIC	??$construct@AAH@?$allocator@H@std@@QAEXPAHAAH@Z ; std::allocator<int>::construct<int &>
; Function compile flags: /Ogsp
;	COMDAT ??$construct@AAH@?$allocator@H@std@@QAEXPAHAAH@Z
_TEXT	SEGMENT
__Ptr$ = 8						; size = 4
__Val$ = 12						; size = 4
??$construct@AAH@?$allocator@H@std@@QAEXPAHAAH@Z PROC	; std::allocator<int>::construct<int &>, COMDAT
; _this$ = ecx

; 206  : 		void construct(pointer _Ptr, _Other&& _Val)

  00000	55		 push	 ebp
  00001	8b ec		 mov	 ebp, esp

; 207  : 		{	// construct object at _Ptr with value _Val
; 208  : 		::new ((void _FARQ *)_Ptr) _Ty(_STD forward<_Other>(_Val));

  00003	8b 45 08	 mov	 eax, DWORD PTR __Ptr$[ebp]
  00006	85 c0		 test	 eax, eax
  00008	74 07		 je	 SHORT $LN3@construct@4
  0000a	8b 4d 0c	 mov	 ecx, DWORD PTR __Val$[ebp]
  0000d	8b 09		 mov	 ecx, DWORD PTR [ecx]
  0000f	89 08		 mov	 DWORD PTR [eax], ecx
$LN3@construct@4:

; 209  : 		}

  00011	5d		 pop	 ebp
  00012	c2 08 00	 ret	 8
??$construct@AAH@?$allocator@H@std@@QAEXPAHAAH@Z ENDP	; std::allocator<int>::construct<int &>
_TEXT	ENDS
PUBLIC	??$_Move@PAUExtraAniJump@@PAU1@@std@@YAPAUExtraAniJump@@PAU1@00U_Nonscalar_ptr_iterator_tag@0@@Z ; std::_Move<ExtraAniJump *,ExtraAniJump *>
; Function compile flags: /Ogsp
; File c:\program files (x86)\microsoft visual studio 10.0\vc\include\xutility
;	COMDAT ??$_Move@PAUExtraAniJump@@PAU1@@std@@YAPAUExtraAniJump@@PAU1@00U_Nonscalar_ptr_iterator_tag@0@@Z
_TEXT	SEGMENT
__First$ = 8						; size = 4
__Last$ = 12						; size = 4
__Dest$ = 16						; size = 4
___formal$ = 20						; size = 1
??$_Move@PAUExtraAniJump@@PAU1@@std@@YAPAUExtraAniJump@@PAU1@00U_Nonscalar_ptr_iterator_tag@0@@Z PROC ; std::_Move<ExtraAniJump *,ExtraAniJump *>, COMDAT

; 2512 : 	{	// move [_First, _Last) to [_Dest, ...), arbitrary iterators

  00000	55		 push	 ebp
  00001	8b ec		 mov	 ebp, esp

; 2513 : 	for (; _First != _Last; ++_Dest, ++_First)

  00003	8b 4d 08	 mov	 ecx, DWORD PTR __First$[ebp]
  00006	8b 45 10	 mov	 eax, DWORD PTR __Dest$[ebp]
$LN11@Move:
  00009	3b 4d 0c	 cmp	 ecx, DWORD PTR __Last$[ebp]
  0000c	74 12		 je	 SHORT $LN1@Move

; 2514 : 		*_Dest = _STD move(*_First);

  0000e	8b 11		 mov	 edx, DWORD PTR [ecx]
  00010	89 10		 mov	 DWORD PTR [eax], edx
  00012	8b 51 04	 mov	 edx, DWORD PTR [ecx+4]
  00015	89 50 04	 mov	 DWORD PTR [eax+4], edx
  00018	83 c0 08	 add	 eax, 8
  0001b	83 c1 08	 add	 ecx, 8
  0001e	eb e9		 jmp	 SHORT $LN11@Move
$LN1@Move:

; 2515 : 	return (_Dest);
; 2516 : 	}

  00020	5d		 pop	 ebp
  00021	c3		 ret	 0
??$_Move@PAUExtraAniJump@@PAU1@@std@@YAPAUExtraAniJump@@PAU1@00U_Nonscalar_ptr_iterator_tag@0@@Z ENDP ; std::_Move<ExtraAniJump *,ExtraAniJump *>
_TEXT	ENDS
PUBLIC	??$_Construct@UFireTime@@ABU1@@std@@YAXPAUFireTime@@ABU1@@Z ; std::_Construct<FireTime,FireTime const &>
;	COMDAT xdata$x
; File c:\program files (x86)\microsoft visual studio 10.0\vc\include\utility
xdata$x	SEGMENT
__unwindtable$??$_Construct@UFireTime@@ABU1@@std@@YAXPAUFireTime@@ABU1@@Z DD 0ffffffffH
	DD	FLAT:__unwindfunclet$??$_Construct@UFireTime@@ABU1@@std@@YAXPAUFireTime@@ABU1@@Z$0
__ehfuncinfo$??$_Construct@UFireTime@@ABU1@@std@@YAXPAUFireTime@@ABU1@@Z DD 019930522H
	DD	01H
	DD	FLAT:__unwindtable$??$_Construct@UFireTime@@ABU1@@std@@YAXPAUFireTime@@ABU1@@Z
	DD	2 DUP(00H)
	DD	2 DUP(00H)
	DD	00H
	DD	01H
; Function compile flags: /Ogsp
; File c:\program files (x86)\microsoft visual studio 10.0\vc\include\xmemory
xdata$x	ENDS
;	COMDAT ??$_Construct@UFireTime@@ABU1@@std@@YAXPAUFireTime@@ABU1@@Z
_TEXT	SEGMENT
$T671088 = -16						; size = 4
__$EHRec$ = -12						; size = 12
__Vptr$ = 8						; size = 4
__Ptr$ = 8						; size = 4
__Val$ = 12						; size = 4
??$_Construct@UFireTime@@ABU1@@std@@YAXPAUFireTime@@ABU1@@Z PROC ; std::_Construct<FireTime,FireTime const &>, COMDAT

; 46   : 	{	// construct object at _Ptr with value _Val

  00000	6a 04		 push	 4
  00002	b8 00 00 00 00	 mov	 eax, __ehhandler$??$_Construct@UFireTime@@ABU1@@std@@YAXPAUFireTime@@ABU1@@Z
  00007	e8 00 00 00 00	 call	 __EH_prolog3

; 47   : 	void _FARQ *_Vptr = _Ptr;

  0000c	8b 4d 08	 mov	 ecx, DWORD PTR __Ptr$[ebp]
  0000f	89 4d 08	 mov	 DWORD PTR __Vptr$[ebp], ecx

; 48   : 	::new (_Vptr) _Ty1(_STD forward<_Ty2>(_Val));

  00012	89 4d f0	 mov	 DWORD PTR $T671088[ebp], ecx
  00015	83 65 fc 00	 and	 DWORD PTR __$EHRec$[ebp+8], 0
  00019	85 c9		 test	 ecx, ecx
  0001b	74 08		 je	 SHORT $LN3@Construct@3
  0001d	ff 75 0c	 push	 DWORD PTR __Val$[ebp]
  00020	e8 00 00 00 00	 call	 ??0FireTime@@QAE@ABU0@@Z
$LN3@Construct@3:

; 49   : 	}

  00025	e8 00 00 00 00	 call	 __EH_epilog3
  0002a	c3		 ret	 0
_TEXT	ENDS
;	COMDAT text$x
text$x	SEGMENT
__unwindfunclet$??$_Construct@UFireTime@@ABU1@@std@@YAXPAUFireTime@@ABU1@@Z$0:
  00000	ff 75 08	 push	 DWORD PTR __Vptr$[ebp]
  00003	ff 75 f0	 push	 DWORD PTR $T671088[ebp]
  00006	e8 00 00 00 00	 call	 ??3@YAXPAX0@Z		; operator delete
  0000b	59		 pop	 ecx
  0000c	59		 pop	 ecx
  0000d	c3		 ret	 0
__ehhandler$??$_Construct@UFireTime@@ABU1@@std@@YAXPAUFireTime@@ABU1@@Z:
  0000e	8b 54 24 08	 mov	 edx, DWORD PTR [esp+8]
  00012	8d 42 0c	 lea	 eax, DWORD PTR [edx+12]
  00015	8b 4a ec	 mov	 ecx, DWORD PTR [edx-20]
  00018	33 c8		 xor	 ecx, eax
  0001a	e8 00 00 00 00	 call	 @__security_check_cookie@4
  0001f	b8 00 00 00 00	 mov	 eax, OFFSET __ehfuncinfo$??$_Construct@UFireTime@@ABU1@@std@@YAXPAUFireTime@@ABU1@@Z
  00024	e9 00 00 00 00	 jmp	 ___CxxFrameHandler3
text$x	ENDS
??$_Construct@UFireTime@@ABU1@@std@@YAXPAUFireTime@@ABU1@@Z ENDP ; std::_Construct<FireTime,FireTime const &>
PUBLIC	??_G_Node@?$_List_nod@UFireTime@@V?$allocator@UFireTime@@@std@@@std@@QAEPAXI@Z ; std::_List_nod<FireTime,std::allocator<FireTime> >::_Node::`scalar deleting destructor'
; Function compile flags: /Ogsp
;	COMDAT ??_G_Node@?$_List_nod@UFireTime@@V?$allocator@UFireTime@@@std@@@std@@QAEPAXI@Z
_TEXT	SEGMENT
___flags$ = 8						; size = 4
??_G_Node@?$_List_nod@UFireTime@@V?$allocator@UFireTime@@@std@@@std@@QAEPAXI@Z PROC ; std::_List_nod<FireTime,std::allocator<FireTime> >::_Node::`scalar deleting destructor', COMDAT
; _this$ = ecx
  00000	55		 push	 ebp
  00001	8b ec		 mov	 ebp, esp
  00003	56		 push	 esi
  00004	8b f1		 mov	 esi, ecx
  00006	8d 4e 08	 lea	 ecx, DWORD PTR [esi+8]
  00009	e8 00 00 00 00	 call	 ??1FireTime@@QAE@XZ
  0000e	f6 45 08 01	 test	 BYTE PTR ___flags$[ebp], 1
  00012	74 07		 je	 SHORT $LN1@scalar@4
  00014	56		 push	 esi
  00015	e8 00 00 00 00	 call	 ??3@YAXPAX@Z		; operator delete
  0001a	59		 pop	 ecx
$LN1@scalar@4:
  0001b	8b c6		 mov	 eax, esi
  0001d	5e		 pop	 esi
  0001e	5d		 pop	 ebp
  0001f	c2 04 00	 ret	 4
??_G_Node@?$_List_nod@UFireTime@@V?$allocator@UFireTime@@@std@@@std@@QAEPAXI@Z ENDP ; std::_List_nod<FireTime,std::allocator<FireTime> >::_Node::`scalar deleting destructor'
_TEXT	ENDS
PUBLIC	?destroy@?$allocator@UExtraAniJump@@@std@@QAEXPAUExtraAniJump@@@Z ; std::allocator<ExtraAniJump>::destroy
; Function compile flags: /Ogsp
;	COMDAT ?destroy@?$allocator@UExtraAniJump@@@std@@QAEXPAUExtraAniJump@@@Z
_TEXT	SEGMENT
__Ptr$ = 8						; size = 4
?destroy@?$allocator@UExtraAniJump@@@std@@QAEXPAUExtraAniJump@@@Z PROC ; std::allocator<ExtraAniJump>::destroy, COMDAT
; _this$ = ecx

; 213  : 		_Destroy(_Ptr);
; 214  : 		}

  00000	c2 04 00	 ret	 4
?destroy@?$allocator@UExtraAniJump@@@std@@QAEXPAUExtraAniJump@@@Z ENDP ; std::allocator<ExtraAniJump>::destroy
_TEXT	ENDS
PUBLIC	?construct@?$allocator@UExtraAniJump@@@std@@QAEXPAUExtraAniJump@@$$QAU3@@Z ; std::allocator<ExtraAniJump>::construct
; Function compile flags: /Ogsp
;	COMDAT ?construct@?$allocator@UExtraAniJump@@@std@@QAEXPAUExtraAniJump@@$$QAU3@@Z
_TEXT	SEGMENT
__Ptr$ = 8						; size = 4
__Val$ = 12						; size = 4
?construct@?$allocator@UExtraAniJump@@@std@@QAEXPAUExtraAniJump@@$$QAU3@@Z PROC ; std::allocator<ExtraAniJump>::construct, COMDAT
; _this$ = ecx

; 201  : 		{	// construct object at _Ptr with value _Val

  00000	55		 push	 ebp
  00001	8b ec		 mov	 ebp, esp

; 202  : 		::new ((void _FARQ *)_Ptr) _Ty(_STD forward<_Ty>(_Val));

  00003	8b 45 08	 mov	 eax, DWORD PTR __Ptr$[ebp]
  00006	85 c0		 test	 eax, eax
  00008	74 0d		 je	 SHORT $LN3@construct@5
  0000a	8b 4d 0c	 mov	 ecx, DWORD PTR __Val$[ebp]
  0000d	8b 11		 mov	 edx, DWORD PTR [ecx]
  0000f	89 10		 mov	 DWORD PTR [eax], edx
  00011	8b 49 04	 mov	 ecx, DWORD PTR [ecx+4]
  00014	89 48 04	 mov	 DWORD PTR [eax+4], ecx
$LN3@construct@5:

; 203  : 		}

  00017	5d		 pop	 ebp
  00018	c2 08 00	 ret	 8
?construct@?$allocator@UExtraAniJump@@@std@@QAEXPAUExtraAniJump@@$$QAU3@@Z ENDP ; std::allocator<ExtraAniJump>::construct
_TEXT	ENDS
PUBLIC	?c_str@?$basic_string@DU?$char_traits@D@std@@V?$allocator@D@2@@std@@QBEPBDXZ ; std::basic_string<char,std::char_traits<char>,std::allocator<char> >::c_str
; Function compile flags: /Ogsp
; File c:\program files (x86)\microsoft visual studio 10.0\vc\include\xstring
;	COMDAT ?c_str@?$basic_string@DU?$char_traits@D@std@@V?$allocator@D@2@@std@@QBEPBDXZ
_TEXT	SEGMENT
?c_str@?$basic_string@DU?$char_traits@D@std@@V?$allocator@D@2@@std@@QBEPBDXZ PROC ; std::basic_string<char,std::char_traits<char>,std::allocator<char> >::c_str, COMDAT
; _this$ = ecx

; 1497 : 		return (_Myptr());

  00000	83 79 14 10	 cmp	 DWORD PTR [ecx+20], 16	; 00000010H
  00004	72 03		 jb	 SHORT $LN5@c_str
  00006	8b 01		 mov	 eax, DWORD PTR [ecx]

; 1498 : 		}

  00008	c3		 ret	 0

; 1497 : 		return (_Myptr());

$LN5@c_str:
  00009	8b c1		 mov	 eax, ecx

; 1498 : 		}

  0000b	c3		 ret	 0
?c_str@?$basic_string@DU?$char_traits@D@std@@V?$allocator@D@2@@std@@QBEPBDXZ ENDP ; std::basic_string<char,std::char_traits<char>,std::allocator<char> >::c_str
_TEXT	ENDS
PUBLIC	?begin@?$vector@HV?$allocator@H@std@@@std@@QAE?AV?$_Vector_iterator@V?$_Vector_val@HV?$allocator@H@std@@@std@@@2@XZ ; std::vector<int,std::allocator<int> >::begin
; Function compile flags: /Ogsp
; File c:\program files (x86)\microsoft visual studio 10.0\vc\include\vector
;	COMDAT ?begin@?$vector@HV?$allocator@H@std@@@std@@QAE?AV?$_Vector_iterator@V?$_Vector_val@HV?$allocator@H@std@@@std@@@2@XZ
_TEXT	SEGMENT
___$ReturnUdt$ = 8					; size = 4
?begin@?$vector@HV?$allocator@H@std@@@std@@QAE?AV?$_Vector_iterator@V?$_Vector_val@HV?$allocator@H@std@@@std@@@2@XZ PROC ; std::vector<int,std::allocator<int> >::begin, COMDAT
; _this$ = ecx

; 781  : 		{	// return iterator for beginning of mutable sequence

  00000	55		 push	 ebp
  00001	8b ec		 mov	 ebp, esp

; 782  : 		return (iterator(this->_Myfirst, this));

  00003	8b 09		 mov	 ecx, DWORD PTR [ecx]
  00005	8b 45 08	 mov	 eax, DWORD PTR ___$ReturnUdt$[ebp]
  00008	89 08		 mov	 DWORD PTR [eax], ecx

; 783  : 		}

  0000a	5d		 pop	 ebp
  0000b	c2 04 00	 ret	 4
?begin@?$vector@HV?$allocator@H@std@@@std@@QAE?AV?$_Vector_iterator@V?$_Vector_val@HV?$allocator@H@std@@@std@@@2@XZ ENDP ; std::vector<int,std::allocator<int> >::begin
_TEXT	ENDS
PUBLIC	??0?$CEncrypt@M@@QAE@XZ				; CEncrypt<float>::CEncrypt<float>
EXTRN	??0ccddaabb@@QAE@XZ:PROC			; ccddaabb::ccddaabb
;	COMDAT xdata$x
; File d:\lost saga for developer\youtube\tutorial\source\src\lsclient\encryptvalue.h
xdata$x	SEGMENT
__unwindtable$??0?$CEncrypt@M@@QAE@XZ DD 0ffffffffH
	DD	FLAT:__unwindfunclet$??0?$CEncrypt@M@@QAE@XZ$0
__ehfuncinfo$??0?$CEncrypt@M@@QAE@XZ DD 019930522H
	DD	01H
	DD	FLAT:__unwindtable$??0?$CEncrypt@M@@QAE@XZ
	DD	2 DUP(00H)
	DD	2 DUP(00H)
	DD	00H
	DD	01H
; Function compile flags: /Ogsp
xdata$x	ENDS
;	COMDAT ??0?$CEncrypt@M@@QAE@XZ
_TEXT	SEGMENT
_this$ = -16						; size = 4
__$EHRec$ = -12						; size = 12
??0?$CEncrypt@M@@QAE@XZ PROC				; CEncrypt<float>::CEncrypt<float>, COMDAT
; _this$ = ecx

; 109  : 	CEncrypt()

  00000	6a 04		 push	 4
  00002	b8 00 00 00 00	 mov	 eax, __ehhandler$??0?$CEncrypt@M@@QAE@XZ
  00007	e8 00 00 00 00	 call	 __EH_prolog3
  0000c	8b f1		 mov	 esi, ecx
  0000e	89 75 f0	 mov	 DWORD PTR _this$[ebp], esi
  00011	8d 4e 0c	 lea	 ecx, DWORD PTR [esi+12]
  00014	c7 06 00 00 00
	00		 mov	 DWORD PTR [esi], OFFSET ??_7?$CEncrypt@M@@6B@
  0001a	e8 00 00 00 00	 call	 ??0ccddaabb@@QAE@XZ	; ccddaabb::ccddaabb
  0001f	83 65 fc 00	 and	 DWORD PTR __$EHRec$[ebp+8], 0

; 110  : 	{
; 111  : 		Init();

  00023	8b ce		 mov	 ecx, esi
  00025	e8 00 00 00 00	 call	 ?Init@?$CEncrypt@M@@AAEXXZ ; CEncrypt<float>::Init

; 112  : 	}

  0002a	8b c6		 mov	 eax, esi
  0002c	e8 00 00 00 00	 call	 __EH_epilog3
  00031	c3		 ret	 0
_TEXT	ENDS
;	COMDAT text$x
text$x	SEGMENT
__unwindfunclet$??0?$CEncrypt@M@@QAE@XZ$0:
  00000	8b 4d f0	 mov	 ecx, DWORD PTR _this$[ebp]
  00003	83 c1 0c	 add	 ecx, 12			; 0000000cH
  00006	e9 00 00 00 00	 jmp	 ??1ccddaabb@@UAE@XZ	; ccddaabb::~ccddaabb
__ehhandler$??0?$CEncrypt@M@@QAE@XZ:
  0000b	8b 54 24 08	 mov	 edx, DWORD PTR [esp+8]
  0000f	8d 42 0c	 lea	 eax, DWORD PTR [edx+12]
  00012	8b 4a ec	 mov	 ecx, DWORD PTR [edx-20]
  00015	33 c8		 xor	 ecx, eax
  00017	e8 00 00 00 00	 call	 @__security_check_cookie@4
  0001c	b8 00 00 00 00	 mov	 eax, OFFSET __ehfuncinfo$??0?$CEncrypt@M@@QAE@XZ
  00021	e9 00 00 00 00	 jmp	 ___CxxFrameHandler3
text$x	ENDS
??0?$CEncrypt@M@@QAE@XZ ENDP				; CEncrypt<float>::CEncrypt<float>
PUBLIC	??B?$CEncrypt@M@@QAEMXZ				; CEncrypt<float>::operator float
; Function compile flags: /Ogsp
;	COMDAT ??B?$CEncrypt@M@@QAEMXZ
_TEXT	SEGMENT
_value$ = -4						; size = 4
??B?$CEncrypt@M@@QAEMXZ PROC				; CEncrypt<float>::operator float, COMDAT
; _this$ = ecx

; 134  : 	{

  00000	55		 push	 ebp
  00001	8b ec		 mov	 ebp, esp
  00003	51		 push	 ecx

; 135  : 		type value;
; 136  : 		DecryptValueToPool(&value);

  00004	8d 45 fc	 lea	 eax, DWORD PTR _value$[ebp]
  00007	50		 push	 eax
  00008	e8 00 00 00 00	 call	 ?DecryptValueToPool@?$CEncrypt@M@@QAEXPAM@Z ; CEncrypt<float>::DecryptValueToPool

; 137  : 
; 138  : #ifdef _NOTUSE
; 139  : 		Debug();
; 140  : #endif
; 141  : 		return value;

  0000d	d9 45 fc	 fld	 DWORD PTR _value$[ebp]

; 142  : 	}

  00010	c9		 leave
  00011	c3		 ret	 0
??B?$CEncrypt@M@@QAEMXZ ENDP				; CEncrypt<float>::operator float
_TEXT	ENDS
PUBLIC	??4?$CEncrypt@M@@QAEMM@Z			; CEncrypt<float>::operator=
; Function compile flags: /Ogsp
;	COMDAT ??4?$CEncrypt@M@@QAEMM@Z
_TEXT	SEGMENT
_value$ = 8						; size = 4
_inValue$ = 8						; size = 4
??4?$CEncrypt@M@@QAEMM@Z PROC				; CEncrypt<float>::operator=, COMDAT
; _this$ = ecx

; 1654 : 	{	

  00000	55		 push	 ebp
  00001	8b ec		 mov	 ebp, esp

; 1655 : 		type value = inValue;

  00003	d9 45 08	 fld	 DWORD PTR _inValue$[ebp]

; 1656 : 		EncryptValueToPool((char*)&value);

  00006	8d 45 08	 lea	 eax, DWORD PTR _value$[ebp]
  00009	50		 push	 eax
  0000a	d9 5d 08	 fstp	 DWORD PTR _value$[ebp]
  0000d	e8 00 00 00 00	 call	 ?EncryptValueToPool@?$CEncrypt@M@@AAEXPBD@Z ; CEncrypt<float>::EncryptValueToPool

; 1657 : #ifdef _NOTUSE
; 1658 : 		m_value = inValue;
; 1659 : 		Debug();
; 1660 : #endif
; 1661 : 		return value;

  00012	d9 45 08	 fld	 DWORD PTR _value$[ebp]

; 1662 : 	}

  00015	5d		 pop	 ebp
  00016	c2 04 00	 ret	 4
??4?$CEncrypt@M@@QAEMM@Z ENDP				; CEncrypt<float>::operator=
_TEXT	ENDS
PUBLIC	??Y?$CEncrypt@M@@QAEAAMABM@Z			; CEncrypt<float>::operator+=
; Function compile flags: /Ogsp
;	COMDAT ??Y?$CEncrypt@M@@QAEAAMABM@Z
_TEXT	SEGMENT
_value$ = -4						; size = 4
_inValue$ = 8						; size = 4
??Y?$CEncrypt@M@@QAEAAMABM@Z PROC			; CEncrypt<float>::operator+=, COMDAT
; _this$ = ecx

; 1715 : 	{

  00000	55		 push	 ebp
  00001	8b ec		 mov	 ebp, esp
  00003	51		 push	 ecx
  00004	56		 push	 esi

; 1716 : 		type value;
; 1717 : 		DecryptValueToPool(&value);

  00005	8d 45 fc	 lea	 eax, DWORD PTR _value$[ebp]
  00008	50		 push	 eax
  00009	8b f1		 mov	 esi, ecx
  0000b	e8 00 00 00 00	 call	 ?DecryptValueToPool@?$CEncrypt@M@@QAEXPAM@Z ; CEncrypt<float>::DecryptValueToPool

; 1718 : 		value += inValue;

  00010	8b 45 08	 mov	 eax, DWORD PTR _inValue$[ebp]
  00013	f3 0f 10 00	 movss	 xmm0, DWORD PTR [eax]
  00017	f3 0f 10 4d fc	 movss	 xmm1, DWORD PTR _value$[ebp]
  0001c	0f 5a c0	 cvtps2pd xmm0, xmm0
  0001f	0f 5a c9	 cvtps2pd xmm1, xmm1

; 1719 : 		EncryptValueToPool((char*)&value);

  00022	8d 45 fc	 lea	 eax, DWORD PTR _value$[ebp]
  00025	f2 0f 58 c1	 addsd	 xmm0, xmm1
  00029	66 0f 5a c0	 cvtpd2ps xmm0, xmm0
  0002d	50		 push	 eax
  0002e	8b ce		 mov	 ecx, esi
  00030	f3 0f 11 45 fc	 movss	 DWORD PTR _value$[ebp], xmm0
  00035	e8 00 00 00 00	 call	 ?EncryptValueToPool@?$CEncrypt@M@@AAEXPBD@Z ; CEncrypt<float>::EncryptValueToPool

; 1720 : #ifdef _NOTUSE
; 1721 : 		m_value += inValue;
; 1722 : 		Debug();
; 1723 : #endif
; 1724 : 		return value;

  0003a	8d 45 fc	 lea	 eax, DWORD PTR _value$[ebp]
  0003d	5e		 pop	 esi

; 1725 : 	} 

  0003e	c9		 leave
  0003f	c2 04 00	 ret	 4
??Y?$CEncrypt@M@@QAEAAMABM@Z ENDP			; CEncrypt<float>::operator+=
_TEXT	ENDS
PUBLIC	??O?$CEncrypt@M@@QAE_NABM@Z			; CEncrypt<float>::operator>
; Function compile flags: /Ogsp
;	COMDAT ??O?$CEncrypt@M@@QAE_NABM@Z
_TEXT	SEGMENT
_value$ = -4						; size = 4
_inValue$ = 8						; size = 4
??O?$CEncrypt@M@@QAE_NABM@Z PROC			; CEncrypt<float>::operator>, COMDAT
; _this$ = ecx

; 1811 : 	{

  00000	55		 push	 ebp
  00001	8b ec		 mov	 ebp, esp
  00003	51		 push	 ecx

; 1812 : 		type value;
; 1813 : 		DecryptValueToPool(&value);

  00004	8d 45 fc	 lea	 eax, DWORD PTR _value$[ebp]
  00007	50		 push	 eax
  00008	e8 00 00 00 00	 call	 ?DecryptValueToPool@?$CEncrypt@M@@QAEXPAM@Z ; CEncrypt<float>::DecryptValueToPool

; 1814 : #ifdef _NOTUSE
; 1815 : 		Debug();
; 1816 : #endif
; 1817 : 		return (value > inValue);

  0000d	8b 45 08	 mov	 eax, DWORD PTR _inValue$[ebp]
  00010	f3 0f 10 08	 movss	 xmm1, DWORD PTR [eax]
  00014	f3 0f 10 45 fc	 movss	 xmm0, DWORD PTR _value$[ebp]
  00019	0f 5a c0	 cvtps2pd xmm0, xmm0
  0001c	0f 5a c9	 cvtps2pd xmm1, xmm1
  0001f	33 c0		 xor	 eax, eax
  00021	66 0f 2f c1	 comisd	 xmm0, xmm1
  00025	76 01		 jbe	 SHORT $LN4@operator@2
  00027	40		 inc	 eax
$LN4@operator@2:

; 1818 : 	}		

  00028	c9		 leave
  00029	c2 04 00	 ret	 4
??O?$CEncrypt@M@@QAE_NABM@Z ENDP			; CEncrypt<float>::operator>
_TEXT	ENDS
PUBLIC	??0?$CEncrypt@K@@QAE@XZ				; CEncrypt<unsigned long>::CEncrypt<unsigned long>
;	COMDAT xdata$x
xdata$x	SEGMENT
__unwindtable$??0?$CEncrypt@K@@QAE@XZ DD 0ffffffffH
	DD	FLAT:__unwindfunclet$??0?$CEncrypt@K@@QAE@XZ$0
__ehfuncinfo$??0?$CEncrypt@K@@QAE@XZ DD 019930522H
	DD	01H
	DD	FLAT:__unwindtable$??0?$CEncrypt@K@@QAE@XZ
	DD	2 DUP(00H)
	DD	2 DUP(00H)
	DD	00H
	DD	01H
; Function compile flags: /Ogsp
xdata$x	ENDS
;	COMDAT ??0?$CEncrypt@K@@QAE@XZ
_TEXT	SEGMENT
_this$ = -16						; size = 4
__$EHRec$ = -12						; size = 12
??0?$CEncrypt@K@@QAE@XZ PROC				; CEncrypt<unsigned long>::CEncrypt<unsigned long>, COMDAT
; _this$ = ecx

; 109  : 	CEncrypt()

  00000	6a 04		 push	 4
  00002	b8 00 00 00 00	 mov	 eax, __ehhandler$??0?$CEncrypt@K@@QAE@XZ
  00007	e8 00 00 00 00	 call	 __EH_prolog3
  0000c	8b f1		 mov	 esi, ecx
  0000e	89 75 f0	 mov	 DWORD PTR _this$[ebp], esi
  00011	8d 4e 0c	 lea	 ecx, DWORD PTR [esi+12]
  00014	c7 06 00 00 00
	00		 mov	 DWORD PTR [esi], OFFSET ??_7?$CEncrypt@K@@6B@
  0001a	e8 00 00 00 00	 call	 ??0ccddaabb@@QAE@XZ	; ccddaabb::ccddaabb
  0001f	83 65 fc 00	 and	 DWORD PTR __$EHRec$[ebp+8], 0

; 110  : 	{
; 111  : 		Init();

  00023	8b ce		 mov	 ecx, esi
  00025	e8 00 00 00 00	 call	 ?Init@?$CEncrypt@K@@AAEXXZ ; CEncrypt<unsigned long>::Init

; 112  : 	}

  0002a	8b c6		 mov	 eax, esi
  0002c	e8 00 00 00 00	 call	 __EH_epilog3
  00031	c3		 ret	 0
_TEXT	ENDS
;	COMDAT text$x
text$x	SEGMENT
__unwindfunclet$??0?$CEncrypt@K@@QAE@XZ$0:
  00000	8b 4d f0	 mov	 ecx, DWORD PTR _this$[ebp]
  00003	83 c1 0c	 add	 ecx, 12			; 0000000cH
  00006	e9 00 00 00 00	 jmp	 ??1ccddaabb@@UAE@XZ	; ccddaabb::~ccddaabb
__ehhandler$??0?$CEncrypt@K@@QAE@XZ:
  0000b	8b 54 24 08	 mov	 edx, DWORD PTR [esp+8]
  0000f	8d 42 0c	 lea	 eax, DWORD PTR [edx+12]
  00012	8b 4a ec	 mov	 ecx, DWORD PTR [edx-20]
  00015	33 c8		 xor	 ecx, eax
  00017	e8 00 00 00 00	 call	 @__security_check_cookie@4
  0001c	b8 00 00 00 00	 mov	 eax, OFFSET __ehfuncinfo$??0?$CEncrypt@K@@QAE@XZ
  00021	e9 00 00 00 00	 jmp	 ___CxxFrameHandler3
text$x	ENDS
??0?$CEncrypt@K@@QAE@XZ ENDP				; CEncrypt<unsigned long>::CEncrypt<unsigned long>
PUBLIC	??B?$CEncrypt@K@@QAEKXZ				; CEncrypt<unsigned long>::operator unsigned long
; Function compile flags: /Ogsp
;	COMDAT ??B?$CEncrypt@K@@QAEKXZ
_TEXT	SEGMENT
_value$ = -4						; size = 4
??B?$CEncrypt@K@@QAEKXZ PROC				; CEncrypt<unsigned long>::operator unsigned long, COMDAT
; _this$ = ecx

; 134  : 	{

  00000	55		 push	 ebp
  00001	8b ec		 mov	 ebp, esp
  00003	51		 push	 ecx

; 135  : 		type value;
; 136  : 		DecryptValueToPool(&value);

  00004	8d 45 fc	 lea	 eax, DWORD PTR _value$[ebp]
  00007	50		 push	 eax
  00008	e8 00 00 00 00	 call	 ?DecryptValueToPool@?$CEncrypt@K@@QAEXPAK@Z ; CEncrypt<unsigned long>::DecryptValueToPool

; 137  : 
; 138  : #ifdef _NOTUSE
; 139  : 		Debug();
; 140  : #endif
; 141  : 		return value;

  0000d	8b 45 fc	 mov	 eax, DWORD PTR _value$[ebp]

; 142  : 	}

  00010	c9		 leave
  00011	c3		 ret	 0
??B?$CEncrypt@K@@QAEKXZ ENDP				; CEncrypt<unsigned long>::operator unsigned long
_TEXT	ENDS
PUBLIC	??4?$CEncrypt@K@@QAEKK@Z			; CEncrypt<unsigned long>::operator=
; Function compile flags: /Ogsp
;	COMDAT ??4?$CEncrypt@K@@QAEKK@Z
_TEXT	SEGMENT
_value$ = 8						; size = 4
_inValue$ = 8						; size = 4
??4?$CEncrypt@K@@QAEKK@Z PROC				; CEncrypt<unsigned long>::operator=, COMDAT
; _this$ = ecx

; 1262 : 	{

  00000	55		 push	 ebp
  00001	8b ec		 mov	 ebp, esp

; 1263 : 		
; 1264 : 		type value = inValue;

  00003	8b 45 08	 mov	 eax, DWORD PTR _inValue$[ebp]
  00006	89 45 08	 mov	 DWORD PTR _value$[ebp], eax

; 1265 : 		EncryptValueToPool((char*)&value);

  00009	8d 45 08	 lea	 eax, DWORD PTR _value$[ebp]
  0000c	50		 push	 eax
  0000d	e8 00 00 00 00	 call	 ?EncryptValueToPool@?$CEncrypt@K@@AAEXPBD@Z ; CEncrypt<unsigned long>::EncryptValueToPool

; 1266 : #ifdef _NOTUSE
; 1267 : 		m_value = inValue;
; 1268 : 		Debug();
; 1269 : #endif
; 1270 : 		return value;

  00012	8b 45 08	 mov	 eax, DWORD PTR _value$[ebp]

; 1271 : 	}

  00015	5d		 pop	 ebp
  00016	c2 04 00	 ret	 4
??4?$CEncrypt@K@@QAEKK@Z ENDP				; CEncrypt<unsigned long>::operator=
_TEXT	ENDS
PUBLIC	??B?$CEncrypt@W4TeamType@@@@QBE?AW4TeamType@@XZ	; CEncrypt<enum TeamType>::operator enum TeamType
; Function compile flags: /Ogsp
;	COMDAT ??B?$CEncrypt@W4TeamType@@@@QBE?AW4TeamType@@XZ
_TEXT	SEGMENT
_value$ = -4						; size = 4
??B?$CEncrypt@W4TeamType@@@@QBE?AW4TeamType@@XZ PROC	; CEncrypt<enum TeamType>::operator enum TeamType, COMDAT
; _this$ = ecx

; 145  : 	{

  00000	55		 push	 ebp
  00001	8b ec		 mov	 ebp, esp
  00003	51		 push	 ecx

; 146  : 		//UJ 130829, const    --start
; 147  : 		type value;
; 148  : 		CEncrypt<type>* pThis = const_cast<CEncrypt<type>*>(this);
; 149  : 		pThis->DecryptValueToPool(&value);

  00004	8d 45 fc	 lea	 eax, DWORD PTR _value$[ebp]
  00007	50		 push	 eax
  00008	e8 00 00 00 00	 call	 ?DecryptValueToPool@?$CEncrypt@W4TeamType@@@@QAEXPAW4TeamType@@@Z ; CEncrypt<enum TeamType>::DecryptValueToPool

; 150  : 		//// const DecryptValueToPool     .
; 151  :  		//type value;
; 152  : 		//char szTempMem[MAX_ENCRYPT];
; 153  : 		//m_RC5.DecryptByte( m_MemPool, szTempMem, max(m_ValueSize, DEFAULT_ENCRYPT) );
; 154  : 		//memcpy( &value, szTempMem, m_ValueSize );
; 155  : 		//UJ --end
; 156  : 
; 157  : #ifdef _NOTUSE
; 158  : 		Debug();
; 159  : #endif
; 160  : 		return value;

  0000d	8b 45 fc	 mov	 eax, DWORD PTR _value$[ebp]

; 161  : 	}

  00010	c9		 leave
  00011	c3		 ret	 0
??B?$CEncrypt@W4TeamType@@@@QBE?AW4TeamType@@XZ ENDP	; CEncrypt<enum TeamType>::operator enum TeamType
_TEXT	ENDS
PUBLIC	??0?$_String_val@DV?$allocator@D@std@@@std@@QAE@V?$allocator@D@1@@Z ; std::_String_val<char,std::allocator<char> >::_String_val<char,std::allocator<char> >
; Function compile flags: /Ogsp
; File c:\program files (x86)\microsoft visual studio 10.0\vc\include\xstring
;	COMDAT ??0?$_String_val@DV?$allocator@D@std@@@std@@QAE@V?$allocator@D@1@@Z
_TEXT	SEGMENT
__Al$ = 8						; size = 1
??0?$_String_val@DV?$allocator@D@std@@@std@@QAE@V?$allocator@D@1@@Z PROC ; std::_String_val<char,std::allocator<char> >::_String_val<char,std::allocator<char> >, COMDAT
; _this$ = ecx

; 454  : 		{	// construct allocator from _Al

  00000	8b c1		 mov	 eax, ecx

; 455  : 		}

  00002	c2 04 00	 ret	 4
??0?$_String_val@DV?$allocator@D@std@@@std@@QAE@V?$allocator@D@1@@Z ENDP ; std::_String_val<char,std::allocator<char> >::_String_val<char,std::allocator<char> >
_TEXT	ENDS
PUBLIC	?end@?$vector@HV?$allocator@H@std@@@std@@QAE?AV?$_Vector_iterator@V?$_Vector_val@HV?$allocator@H@std@@@std@@@2@XZ ; std::vector<int,std::allocator<int> >::end
; Function compile flags: /Ogsp
; File c:\program files (x86)\microsoft visual studio 10.0\vc\include\vector
;	COMDAT ?end@?$vector@HV?$allocator@H@std@@@std@@QAE?AV?$_Vector_iterator@V?$_Vector_val@HV?$allocator@H@std@@@std@@@2@XZ
_TEXT	SEGMENT
___$ReturnUdt$ = 8					; size = 4
?end@?$vector@HV?$allocator@H@std@@@std@@QAE?AV?$_Vector_iterator@V?$_Vector_val@HV?$allocator@H@std@@@std@@@2@XZ PROC ; std::vector<int,std::allocator<int> >::end, COMDAT
; _this$ = ecx

; 791  : 		{	// return iterator for end of mutable sequence

  00000	55		 push	 ebp
  00001	8b ec		 mov	 ebp, esp

; 792  : 		return (iterator(this->_Mylast, this));

  00003	8b 49 04	 mov	 ecx, DWORD PTR [ecx+4]
  00006	8b 45 08	 mov	 eax, DWORD PTR ___$ReturnUdt$[ebp]
  00009	89 08		 mov	 DWORD PTR [eax], ecx

; 793  : 		}

  0000b	5d		 pop	 ebp
  0000c	c2 04 00	 ret	 4
?end@?$vector@HV?$allocator@H@std@@@std@@QAE?AV?$_Vector_iterator@V?$_Vector_val@HV?$allocator@H@std@@@std@@@2@XZ ENDP ; std::vector<int,std::allocator<int> >::end
_TEXT	ENDS
PUBLIC	??0?$_Vector_val@HV?$allocator@H@std@@@std@@QAE@V?$allocator@H@1@@Z ; std::_Vector_val<int,std::allocator<int> >::_Vector_val<int,std::allocator<int> >
; Function compile flags: /Ogsp
;	COMDAT ??0?$_Vector_val@HV?$allocator@H@std@@@std@@QAE@V?$allocator@H@1@@Z
_TEXT	SEGMENT
__Al$ = 8						; size = 1
??0?$_Vector_val@HV?$allocator@H@std@@@std@@QAE@V?$allocator@H@1@@Z PROC ; std::_Vector_val<int,std::allocator<int> >::_Vector_val<int,std::allocator<int> >, COMDAT
; _this$ = ecx

; 426  : 		{	// construct allocator from _Al

  00000	8b c1		 mov	 eax, ecx

; 427  : 		_Myfirst = 0;

  00002	33 c9		 xor	 ecx, ecx
  00004	89 08		 mov	 DWORD PTR [eax], ecx

; 428  : 		_Mylast = 0;

  00006	89 48 04	 mov	 DWORD PTR [eax+4], ecx

; 429  : 		_Myend = 0;

  00009	89 48 08	 mov	 DWORD PTR [eax+8], ecx

; 430  : 		}

  0000c	c2 04 00	 ret	 4
??0?$_Vector_val@HV?$allocator@H@std@@@std@@QAE@V?$allocator@H@1@@Z ENDP ; std::_Vector_val<int,std::allocator<int> >::_Vector_val<int,std::allocator<int> >
_TEXT	ENDS
PUBLIC	?_Eos@?$basic_string@DU?$char_traits@D@std@@V?$allocator@D@2@@std@@QAEXI@Z ; std::basic_string<char,std::char_traits<char>,std::allocator<char> >::_Eos
; Function compile flags: /Ogsp
; File c:\program files (x86)\microsoft visual studio 10.0\vc\include\xstring
;	COMDAT ?_Eos@?$basic_string@DU?$char_traits@D@std@@V?$allocator@D@2@@std@@QAEXI@Z
_TEXT	SEGMENT
__Newsize$ = 8						; size = 4
?_Eos@?$basic_string@DU?$char_traits@D@std@@V?$allocator@D@2@@std@@QAEXI@Z PROC ; std::basic_string<char,std::char_traits<char>,std::allocator<char> >::_Eos, COMDAT
; _this$ = ecx

; 1953 : 		{	// set new length and null terminator

  00000	55		 push	 ebp
  00001	8b ec		 mov	 ebp, esp

; 1954 : 		_Traits::assign(_Myptr()[this->_Mysize = _Newsize], _Elem());

  00003	83 79 14 10	 cmp	 DWORD PTR [ecx+20], 16	; 00000010H
  00007	8b 45 08	 mov	 eax, DWORD PTR __Newsize$[ebp]
  0000a	89 41 10	 mov	 DWORD PTR [ecx+16], eax
  0000d	72 02		 jb	 SHORT $LN5@Eos
  0000f	8b 09		 mov	 ecx, DWORD PTR [ecx]
$LN5@Eos:
  00011	c6 04 01 00	 mov	 BYTE PTR [ecx+eax], 0

; 1955 : 		}

  00015	5d		 pop	 ebp
  00016	c2 04 00	 ret	 4
?_Eos@?$basic_string@DU?$char_traits@D@std@@V?$allocator@D@2@@std@@QAEXI@Z ENDP ; std::basic_string<char,std::char_traits<char>,std::allocator<char> >::_Eos
_TEXT	ENDS
PUBLIC	?max_size@?$vector@HV?$allocator@H@std@@@std@@QBEIXZ ; std::vector<int,std::allocator<int> >::max_size
; Function compile flags: /Ogsp
; File c:\program files (x86)\microsoft visual studio 10.0\vc\include\vector
;	COMDAT ?max_size@?$vector@HV?$allocator@H@std@@@std@@QBEIXZ
_TEXT	SEGMENT
?max_size@?$vector@HV?$allocator@H@std@@@std@@QBEIXZ PROC ; std::vector<int,std::allocator<int> >::max_size, COMDAT
; _this$ = ecx

; 884  : 		return (this->_Alval.max_size());

  00000	b8 ff ff ff 3f	 mov	 eax, 1073741823		; 3fffffffH

; 885  : 		}

  00005	c3		 ret	 0
?max_size@?$vector@HV?$allocator@H@std@@@std@@QBEIXZ ENDP ; std::vector<int,std::allocator<int> >::max_size
_TEXT	ENDS
PUBLIC	?_Grow_to@?$vector@HV?$allocator@H@std@@@std@@IBEII@Z ; std::vector<int,std::allocator<int> >::_Grow_to
; Function compile flags: /Ogsp
;	COMDAT ?_Grow_to@?$vector@HV?$allocator@H@std@@@std@@IBEII@Z
_TEXT	SEGMENT
__Count$ = 8						; size = 4
?_Grow_to@?$vector@HV?$allocator@H@std@@@std@@IBEII@Z PROC ; std::vector<int,std::allocator<int> >::_Grow_to, COMDAT
; _this$ = ecx

; 1274 : 		{	// grow by 50% or at least to _Count

  00000	55		 push	 ebp
  00001	8b ec		 mov	 ebp, esp

; 1275 : 		size_type _Capacity = capacity();

  00003	8b 41 08	 mov	 eax, DWORD PTR [ecx+8]
  00006	2b 01		 sub	 eax, DWORD PTR [ecx]

; 1276 : 
; 1277 : 		_Capacity = max_size() - _Capacity / 2 < _Capacity
; 1278 : 			? 0 : _Capacity + _Capacity / 2;	// try to grow by 50%

  00008	ba ff ff ff 3f	 mov	 edx, 1073741823		; 3fffffffH
  0000d	c1 f8 02	 sar	 eax, 2
  00010	8b c8		 mov	 ecx, eax
  00012	d1 e9		 shr	 ecx, 1
  00014	2b d1		 sub	 edx, ecx
  00016	3b d0		 cmp	 edx, eax
  00018	73 04		 jae	 SHORT $LN4@Grow_to@2
  0001a	33 c0		 xor	 eax, eax
  0001c	eb 02		 jmp	 SHORT $LN5@Grow_to@2
$LN4@Grow_to@2:
  0001e	03 c1		 add	 eax, ecx
$LN5@Grow_to@2:

; 1279 : 		if (_Capacity < _Count)

  00020	3b 45 08	 cmp	 eax, DWORD PTR __Count$[ebp]

; 1280 : 			_Capacity = _Count;

  00023	0f 42 45 08	 cmovb	 eax, DWORD PTR __Count$[ebp]

; 1281 : 		return (_Capacity);
; 1282 : 		}

  00027	5d		 pop	 ebp
  00028	c2 04 00	 ret	 4
?_Grow_to@?$vector@HV?$allocator@H@std@@@std@@IBEII@Z ENDP ; std::vector<int,std::allocator<int> >::_Grow_to
_TEXT	ENDS
PUBLIC	?max_size@?$basic_string@DU?$char_traits@D@std@@V?$allocator@D@2@@std@@QBEIXZ ; std::basic_string<char,std::char_traits<char>,std::allocator<char> >::max_size
; Function compile flags: /Ogsp
; File c:\program files (x86)\microsoft visual studio 10.0\vc\include\xstring
;	COMDAT ?max_size@?$basic_string@DU?$char_traits@D@std@@V?$allocator@D@2@@std@@QBEIXZ
_TEXT	SEGMENT
?max_size@?$basic_string@DU?$char_traits@D@std@@V?$allocator@D@2@@std@@QBEIXZ PROC ; std::basic_string<char,std::char_traits<char>,std::allocator<char> >::max_size, COMDAT
; _this$ = ecx

; 1517 : 		size_type _Num = this->_Alval.max_size();
; 1518 : 		return (_Num <= 1 ? 1 : _Num - 1);

  00000	6a fe		 push	 -2			; fffffffeH
  00002	58		 pop	 eax

; 1519 : 		}

  00003	c3		 ret	 0
?max_size@?$basic_string@DU?$char_traits@D@std@@V?$allocator@D@2@@std@@QBEIXZ ENDP ; std::basic_string<char,std::char_traits<char>,std::allocator<char> >::max_size
_TEXT	ENDS
PUBLIC	?allocate@?$allocator@H@std@@QAEPAHI@Z		; std::allocator<int>::allocate
; Function compile flags: /Ogsp
; File c:\program files (x86)\microsoft visual studio 10.0\vc\include\xmemory
;	COMDAT ?allocate@?$allocator@H@std@@QAEPAHI@Z
_TEXT	SEGMENT
__Count$ = 8						; size = 4
?allocate@?$allocator@H@std@@QAEPAHI@Z PROC		; std::allocator<int>::allocate, COMDAT
; _this$ = ecx

; 186  : 		{	// allocate array of _Count elements

  00000	55		 push	 ebp
  00001	8b ec		 mov	 ebp, esp

; 187  : 		return (_Allocate(_Count, (pointer)0));

  00003	6a 00		 push	 0
  00005	ff 75 08	 push	 DWORD PTR __Count$[ebp]
  00008	e8 00 00 00 00	 call	 ??$_Allocate@H@std@@YAPAHIPAH@Z ; std::_Allocate<int>
  0000d	59		 pop	 ecx
  0000e	59		 pop	 ecx

; 188  : 		}

  0000f	5d		 pop	 ebp
  00010	c2 04 00	 ret	 4
?allocate@?$allocator@H@std@@QAEPAHI@Z ENDP		; std::allocator<int>::allocate
_TEXT	ENDS
PUBLIC	??8?$_Vector_const_iterator@V?$_Vector_val@HV?$allocator@H@std@@@std@@@std@@QBE_NABV01@@Z ; std::_Vector_const_iterator<std::_Vector_val<int,std::allocator<int> > >::operator==
; Function compile flags: /Ogsp
; File c:\program files (x86)\microsoft visual studio 10.0\vc\include\vector
;	COMDAT ??8?$_Vector_const_iterator@V?$_Vector_val@HV?$allocator@H@std@@@std@@@std@@QBE_NABV01@@Z
_TEXT	SEGMENT
__Right$ = 8						; size = 4
??8?$_Vector_const_iterator@V?$_Vector_val@HV?$allocator@H@std@@@std@@@std@@QBE_NABV01@@Z PROC ; std::_Vector_const_iterator<std::_Vector_val<int,std::allocator<int> > >::operator==, COMDAT
; _this$ = ecx

; 201  : 		{	// test for iterator equality

  00000	55		 push	 ebp
  00001	8b ec		 mov	 ebp, esp

; 202  : 		_Compat(_Right);
; 203  : 		return (this->_Ptr == _Right._Ptr);

  00003	8b 01		 mov	 eax, DWORD PTR [ecx]
  00005	8b 4d 08	 mov	 ecx, DWORD PTR __Right$[ebp]
  00008	2b 01		 sub	 eax, DWORD PTR [ecx]
  0000a	f7 d8		 neg	 eax
  0000c	1b c0		 sbb	 eax, eax
  0000e	40		 inc	 eax

; 204  : 		}

  0000f	5d		 pop	 ebp
  00010	c2 04 00	 ret	 4
??8?$_Vector_const_iterator@V?$_Vector_val@HV?$allocator@H@std@@@std@@@std@@QBE_NABV01@@Z ENDP ; std::_Vector_const_iterator<std::_Vector_val<int,std::allocator<int> > >::operator==
_TEXT	ENDS
PUBLIC	?allocate@?$allocator@D@std@@QAEPADI@Z		; std::allocator<char>::allocate
; Function compile flags: /Ogsp
; File c:\program files (x86)\microsoft visual studio 10.0\vc\include\xmemory
;	COMDAT ?allocate@?$allocator@D@std@@QAEPADI@Z
_TEXT	SEGMENT
__Count$ = 8						; size = 4
?allocate@?$allocator@D@std@@QAEPADI@Z PROC		; std::allocator<char>::allocate, COMDAT
; _this$ = ecx

; 186  : 		{	// allocate array of _Count elements

  00000	55		 push	 ebp
  00001	8b ec		 mov	 ebp, esp

; 187  : 		return (_Allocate(_Count, (pointer)0));

  00003	6a 00		 push	 0
  00005	ff 75 08	 push	 DWORD PTR __Count$[ebp]
  00008	e8 00 00 00 00	 call	 ??$_Allocate@D@std@@YAPADIPAD@Z ; std::_Allocate<char>
  0000d	59		 pop	 ecx
  0000e	59		 pop	 ecx

; 188  : 		}

  0000f	5d		 pop	 ebp
  00010	c2 04 00	 ret	 4
?allocate@?$allocator@D@std@@QAEPADI@Z ENDP		; std::allocator<char>::allocate
_TEXT	ENDS
PUBLIC	??$_Move@PAHPAH@std@@YAPAHPAH00@Z		; std::_Move<int *,int *>
; Function compile flags: /Ogsp
; File c:\program files (x86)\microsoft visual studio 10.0\vc\include\xutility
;	COMDAT ??$_Move@PAHPAH@std@@YAPAHPAH00@Z
_TEXT	SEGMENT
__Cat$671295 = -4					; size = 1
__First$ = 8						; size = 4
__Last$ = 12						; size = 4
__Dest$ = 16						; size = 4
??$_Move@PAHPAH@std@@YAPAHPAH00@Z PROC			; std::_Move<int *,int *>, COMDAT

; 2533 : 	{	// move [_First, _Last) to [_Dest, ...), unchecked

  00000	55		 push	 ebp
  00001	8b ec		 mov	 ebp, esp
  00003	51		 push	 ecx

; 2534 : 	return (_Move(_First, _Last,
; 2535 : 		_Dest, _Ptr_cat(_First, _Dest)));

  00004	ff 75 fc	 push	 DWORD PTR __Cat$671295[ebp]
  00007	ff 75 10	 push	 DWORD PTR __Dest$[ebp]
  0000a	ff 75 0c	 push	 DWORD PTR __Last$[ebp]
  0000d	ff 75 08	 push	 DWORD PTR __First$[ebp]
  00010	e8 00 00 00 00	 call	 ??$_Move@PAHPAH@std@@YAPAHPAH00U_Scalar_ptr_iterator_tag@0@@Z ; std::_Move<int *,int *>
  00015	83 c4 10	 add	 esp, 16			; 00000010H

; 2536 : 	}

  00018	c9		 leave
  00019	c3		 ret	 0
??$_Move@PAHPAH@std@@YAPAHPAH00@Z ENDP			; std::_Move<int *,int *>
_TEXT	ENDS
PUBLIC	??$_Destroy_range@V?$allocator@H@std@@@std@@YAXPAH0AAV?$allocator@H@0@@Z ; std::_Destroy_range<std::allocator<int> >
; Function compile flags: /Ogsp
; File c:\program files (x86)\microsoft visual studio 10.0\vc\include\xmemory
;	COMDAT ??$_Destroy_range@V?$allocator@H@std@@@std@@YAXPAH0AAV?$allocator@H@0@@Z
_TEXT	SEGMENT
__First$ = 8						; size = 4
__Last$ = 12						; size = 4
__Al$ = 16						; size = 4
??$_Destroy_range@V?$allocator@H@std@@@std@@YAXPAH0AAV?$allocator@H@0@@Z PROC ; std::_Destroy_range<std::allocator<int> >, COMDAT

; 88   : 	_Destroy_range(_First, _Last, _Al, _Ptr_cat(_First, _Last));
; 89   : 	}

  00000	c3		 ret	 0
??$_Destroy_range@V?$allocator@H@std@@@std@@YAXPAH0AAV?$allocator@H@0@@Z ENDP ; std::_Destroy_range<std::allocator<int> >
_TEXT	ENDS
PUBLIC	??$_Uninitialized_move@PAHPAHV?$allocator@H@std@@@std@@YAPAHPAH00AAV?$allocator@H@0@@Z ; std::_Uninitialized_move<int *,int *,std::allocator<int> >
; Function compile flags: /Ogsp
; File c:\program files (x86)\microsoft visual studio 10.0\vc\include\memory
;	COMDAT ??$_Uninitialized_move@PAHPAHV?$allocator@H@std@@@std@@YAPAHPAH00AAV?$allocator@H@0@@Z
_TEXT	SEGMENT
__First$ = 8						; size = 4
__Last$ = 12						; size = 4
__Dest$ = 16						; size = 4
__Al$ = 20						; size = 4
??$_Uninitialized_move@PAHPAHV?$allocator@H@std@@@std@@YAPAHPAH00AAV?$allocator@H@0@@Z PROC ; std::_Uninitialized_move<int *,int *,std::allocator<int> >, COMDAT

; 469  : 	{	// move [_First, _Last) to raw _Dest, using _Al

  00000	55		 push	 ebp
  00001	8b ec		 mov	 ebp, esp
  00003	56		 push	 esi

; 470  : 	return (_Uninit_move(_First, _Last, _Dest, _Al,
; 471  : 		_Val_type(_First), _Ptr_cat(_First, _Dest)));

  00004	8b 75 0c	 mov	 esi, DWORD PTR __Last$[ebp]
  00007	2b 75 08	 sub	 esi, DWORD PTR __First$[ebp]
  0000a	c1 fe 02	 sar	 esi, 2
  0000d	c1 e6 02	 shl	 esi, 2
  00010	56		 push	 esi
  00011	ff 75 08	 push	 DWORD PTR __First$[ebp]
  00014	ff 75 10	 push	 DWORD PTR __Dest$[ebp]
  00017	ff 15 00 00 00
	00		 call	 DWORD PTR __imp__memmove
  0001d	83 c4 0c	 add	 esp, 12			; 0000000cH
  00020	03 c6		 add	 eax, esi
  00022	5e		 pop	 esi

; 472  : 	}

  00023	5d		 pop	 ebp
  00024	c3		 ret	 0
??$_Uninitialized_move@PAHPAHV?$allocator@H@std@@@std@@YAPAHPAH00AAV?$allocator@H@0@@Z ENDP ; std::_Uninitialized_move<int *,int *,std::allocator<int> >
_TEXT	ENDS
PUBLIC	??_C@_00CNPNBAHC@?$AA@				; `string'
PUBLIC	__$ArrayPad$
PUBLIC	?LoadProperty@ioMamaHahaDummy@@UAEXAAVioINILoader@@@Z ; ioMamaHahaDummy::LoadProperty
EXTRN	__imp_??4ioHashString@@QAEAAV0@PBD@Z:PROC
EXTRN	?LoadProperty@ioDummyChar@@UAEXAAVioINILoader@@@Z:PROC ; ioDummyChar::LoadProperty
EXTRN	_memset:PROC
;	COMDAT ??_C@_00CNPNBAHC@?$AA@
; File d:\lost saga for developer\youtube\tutorial\source\src\lsclient\stringprotect.h
CONST	SEGMENT
??_C@_00CNPNBAHC@?$AA@ DB 00H				; `string'
; Function compile flags: /Ogsp
; File d:\lost saga for developer\youtube\tutorial\source\src\lsclient\iomamahahadummy.cpp
CONST	ENDS
;	COMDAT ?LoadProperty@ioMamaHahaDummy@@UAEXAAVioINILoader@@@Z
_TEXT	SEGMENT
tv18910 = -304						; size = 4
tv18834 = -304						; size = 4
_i$673197 = -304					; size = 4
_value$672977 = -304					; size = 4
_value$672847 = -304					; size = 4
_value$672716 = -304					; size = 4
_value$672586 = -304					; size = 4
_i$672293 = -304					; size = 4
_value$672457 = -304					; size = 4
_szBuf$ = -300						; size = 260
__k$673707 = -40					; size = 31
__k$673582 = -40					; size = 31
__k$673457 = -40					; size = 31
__k$673207 = -40					; size = 31
__k$672303 = -40					; size = 31
__k$672049 = -40					; size = 31
__k$671924 = -40					; size = 31
__k$671799 = -40					; size = 31
__k$673261 = -36					; size = 27
__k$672994 = -36					; size = 26
__k$672877 = -36					; size = 25
__k$672604 = -36					; size = 24
__k$672090 = -36					; size = 26
__k$672734 = -32					; size = 23
__k$672474 = -32					; size = 22
__k$672344 = -32					; size = 22
__k$671590 = -32					; size = 23
__k$671478 = -32					; size = 23
__k$671353 = -32					; size = 23
__$ArrayPad$ = -4					; size = 4
_rkLoader$ = 8						; size = 4
?LoadProperty@ioMamaHahaDummy@@UAEXAAVioINILoader@@@Z PROC ; ioMamaHahaDummy::LoadProperty, COMDAT
; _this$ = ecx

; 39   : {

  00000	55		 push	 ebp
  00001	8b ec		 mov	 ebp, esp
  00003	81 ec 30 01 00
	00		 sub	 esp, 304		; 00000130H
  00009	a1 00 00 00 00	 mov	 eax, DWORD PTR ___security_cookie
  0000e	33 c5		 xor	 eax, ebp
  00010	89 45 fc	 mov	 DWORD PTR __$ArrayPad$[ebp], eax
  00013	53		 push	 ebx
  00014	56		 push	 esi
  00015	57		 push	 edi
  00016	8b 7d 08	 mov	 edi, DWORD PTR _rkLoader$[ebp]

; 40   : 	ioDummyChar::LoadProperty( rkLoader );

  00019	57		 push	 edi
  0001a	8b f1		 mov	 esi, ecx
  0001c	e8 00 00 00 00	 call	 ?LoadProperty@ioDummyChar@@UAEXAAVioINILoader@@@Z ; ioDummyChar::LoadProperty

; 41   : 
; 42   : 	char szBuf[MAX_PATH] = "";

  00021	33 db		 xor	 ebx, ebx
  00023	68 03 01 00 00	 push	 259			; 00000103H
  00028	8d 85 d5 fe ff
	ff		 lea	 eax, DWORD PTR _szBuf$[ebp+1]
  0002e	53		 push	 ebx
  0002f	50		 push	 eax
  00030	88 9d d4 fe ff
	ff		 mov	 BYTE PTR _szBuf$[ebp], bl
  00036	e8 00 00 00 00	 call	 _memset
  0003b	83 c4 0c	 add	 esp, 12			; 0000000cH

; 43   : 
; 44   : 	m_vMamaHahaBaseOffSet.x = rkLoader.LoadFloat_e( "mamahaha_base_offset_x", 0.0f );

  0003e	6a 05		 push	 5
  00040	c7 45 e0 80 8d
	86 8b		 mov	 DWORD PTR __k$671353[ebp], -1954116224 ; 8b868d80H
  00047	c7 45 e4 85 8d
	83 8b		 mov	 DWORD PTR __k$671353[ebp+4], -1954312827 ; 8b838d85H
  0004e	c7 45 e8 b2 8e
	8a 99		 mov	 DWORD PTR __k$671353[ebp+8], -1718972750 ; 998a8eb2H
  00055	c7 45 ec 88 b3
	84 8c		 mov	 DWORD PTR __k$671353[ebp+12], -1937460344 ; 8c84b388H
  0005c	c7 45 f0 8b 9f
	8e 9e		 mov	 DWORD PTR __k$671353[ebp+16], -1634820213 ; 9e8e9f8bH
  00063	66 c7 45 f4 b2
	94		 mov	 WORD PTR __k$671353[ebp+20], 38066 ; 000094b2H
  00069	8d 45 e0	 lea	 eax, DWORD PTR __k$671353[ebp]
  0006c	88 5d f6	 mov	 BYTE PTR __k$671353[ebp+22], bl
  0006f	59		 pop	 ecx
$LL106@LoadProper:
  00070	81 30 ed ec eb
	ea		 xor	 DWORD PTR [eax], -353637139 ; eaebecedH
  00076	83 c0 04	 add	 eax, 4
  00079	49		 dec	 ecx
  0007a	75 f4		 jne	 SHORT $LL106@LoadProper
  0007c	6a 14		 push	 20			; 00000014H
  0007e	58		 pop	 eax
$LL103@LoadProper:
  0007f	8b c8		 mov	 ecx, eax
  00081	81 e1 03 00 00
	80		 and	 ecx, -2147483645	; 80000003H
  00087	79 05		 jns	 SHORT $LN2107@LoadProper
  00089	49		 dec	 ecx
  0008a	83 c9 fc	 or	 ecx, -4			; fffffffcH
  0008d	41		 inc	 ecx
$LN2107@LoadProper:
  0008e	b2 ed		 mov	 dl, -19			; ffffffedH
  00090	2a d1		 sub	 dl, cl
  00092	30 54 05 e0	 xor	 BYTE PTR __k$671353[ebp+eax], dl
  00096	40		 inc	 eax
  00097	83 f8 16	 cmp	 eax, 22			; 00000016H
  0009a	7c e3		 jl	 SHORT $LL103@LoadProper
  0009c	0f 57 c0	 xorps	 xmm0, xmm0
  0009f	51		 push	 ecx
  000a0	8d 45 e0	 lea	 eax, DWORD PTR __k$671353[ebp]
  000a3	f3 0f 11 04 24	 movss	 DWORD PTR [esp], xmm0
  000a8	50		 push	 eax
  000a9	8b cf		 mov	 ecx, edi
  000ab	ff 15 00 00 00
	00		 call	 DWORD PTR __imp_?LoadFloat@ioINILoader@@QAEMPBDM@Z
  000b1	d9 9e 84 14 00
	00		 fstp	 DWORD PTR [esi+5252]
  000b7	6a 05		 push	 5

; 45   : 	m_vMamaHahaBaseOffSet.y = rkLoader.LoadFloat_e( "mamahaha_base_offset_y", 0.0f );

  000b9	c7 45 e0 80 8d
	86 8b		 mov	 DWORD PTR __k$671478[ebp], -1954116224 ; 8b868d80H
  000c0	c7 45 e4 85 8d
	83 8b		 mov	 DWORD PTR __k$671478[ebp+4], -1954312827 ; 8b838d85H
  000c7	c7 45 e8 b2 8e
	8a 99		 mov	 DWORD PTR __k$671478[ebp+8], -1718972750 ; 998a8eb2H
  000ce	c7 45 ec 88 b3
	84 8c		 mov	 DWORD PTR __k$671478[ebp+12], -1937460344 ; 8c84b388H
  000d5	c7 45 f0 8b 9f
	8e 9e		 mov	 DWORD PTR __k$671478[ebp+16], -1634820213 ; 9e8e9f8bH
  000dc	66 c7 45 f4 b2
	95		 mov	 WORD PTR __k$671478[ebp+20], 38322 ; 000095b2H
  000e2	8d 45 e0	 lea	 eax, DWORD PTR __k$671478[ebp]
  000e5	88 5d f6	 mov	 BYTE PTR __k$671478[ebp+22], bl
  000e8	59		 pop	 ecx
$LL212@LoadProper:
  000e9	81 30 ed ec eb
	ea		 xor	 DWORD PTR [eax], -353637139 ; eaebecedH
  000ef	83 c0 04	 add	 eax, 4
  000f2	49		 dec	 ecx
  000f3	75 f4		 jne	 SHORT $LL212@LoadProper
  000f5	6a 14		 push	 20			; 00000014H
  000f7	58		 pop	 eax
$LL209@LoadProper:
  000f8	8b c8		 mov	 ecx, eax
  000fa	81 e1 03 00 00
	80		 and	 ecx, -2147483645	; 80000003H
  00100	79 05		 jns	 SHORT $LN2108@LoadProper
  00102	49		 dec	 ecx
  00103	83 c9 fc	 or	 ecx, -4			; fffffffcH
  00106	41		 inc	 ecx
$LN2108@LoadProper:
  00107	b2 ed		 mov	 dl, -19			; ffffffedH
  00109	2a d1		 sub	 dl, cl
  0010b	30 54 05 e0	 xor	 BYTE PTR __k$671478[ebp+eax], dl
  0010f	40		 inc	 eax
  00110	83 f8 16	 cmp	 eax, 22			; 00000016H
  00113	7c e3		 jl	 SHORT $LL209@LoadProper
  00115	0f 57 c0	 xorps	 xmm0, xmm0
  00118	51		 push	 ecx
  00119	8d 45 e0	 lea	 eax, DWORD PTR __k$671478[ebp]
  0011c	f3 0f 11 04 24	 movss	 DWORD PTR [esp], xmm0
  00121	50		 push	 eax
  00122	8b cf		 mov	 ecx, edi
  00124	ff 15 00 00 00
	00		 call	 DWORD PTR __imp_?LoadFloat@ioINILoader@@QAEMPBDM@Z
  0012a	d9 9e 88 14 00
	00		 fstp	 DWORD PTR [esi+5256]
  00130	6a 05		 push	 5

; 46   : 	m_vMamaHahaBaseOffSet.z = rkLoader.LoadFloat_e( "mamahaha_base_offset_z", 0.0f );

  00132	c7 45 e0 80 8d
	86 8b		 mov	 DWORD PTR __k$671590[ebp], -1954116224 ; 8b868d80H
  00139	c7 45 e4 85 8d
	83 8b		 mov	 DWORD PTR __k$671590[ebp+4], -1954312827 ; 8b838d85H
  00140	c7 45 e8 b2 8e
	8a 99		 mov	 DWORD PTR __k$671590[ebp+8], -1718972750 ; 998a8eb2H
  00147	c7 45 ec 88 b3
	84 8c		 mov	 DWORD PTR __k$671590[ebp+12], -1937460344 ; 8c84b388H
  0014e	c7 45 f0 8b 9f
	8e 9e		 mov	 DWORD PTR __k$671590[ebp+16], -1634820213 ; 9e8e9f8bH
  00155	66 c7 45 f4 b2
	96		 mov	 WORD PTR __k$671590[ebp+20], 38578 ; 000096b2H
  0015b	8d 45 e0	 lea	 eax, DWORD PTR __k$671590[ebp]
  0015e	88 5d f6	 mov	 BYTE PTR __k$671590[ebp+22], bl
  00161	59		 pop	 ecx
$LL318@LoadProper:
  00162	81 30 ed ec eb
	ea		 xor	 DWORD PTR [eax], -353637139 ; eaebecedH
  00168	83 c0 04	 add	 eax, 4
  0016b	49		 dec	 ecx
  0016c	75 f4		 jne	 SHORT $LL318@LoadProper
  0016e	6a 14		 push	 20			; 00000014H
  00170	58		 pop	 eax
$LL315@LoadProper:
  00171	8b c8		 mov	 ecx, eax
  00173	81 e1 03 00 00
	80		 and	 ecx, -2147483645	; 80000003H
  00179	79 05		 jns	 SHORT $LN2109@LoadProper
  0017b	49		 dec	 ecx
  0017c	83 c9 fc	 or	 ecx, -4			; fffffffcH
  0017f	41		 inc	 ecx
$LN2109@LoadProper:
  00180	b2 ed		 mov	 dl, -19			; ffffffedH
  00182	2a d1		 sub	 dl, cl
  00184	30 54 05 e0	 xor	 BYTE PTR __k$671590[ebp+eax], dl
  00188	40		 inc	 eax
  00189	83 f8 16	 cmp	 eax, 22			; 00000016H
  0018c	7c e3		 jl	 SHORT $LL315@LoadProper
  0018e	0f 57 c0	 xorps	 xmm0, xmm0
  00191	51		 push	 ecx
  00192	8d 45 e0	 lea	 eax, DWORD PTR __k$671590[ebp]
  00195	f3 0f 11 04 24	 movss	 DWORD PTR [esp], xmm0
  0019a	50		 push	 eax
  0019b	8b cf		 mov	 ecx, edi
  0019d	ff 15 00 00 00
	00		 call	 DWORD PTR __imp_?LoadFloat@ioINILoader@@QAEMPBDM@Z
  001a3	d9 9e 8c 14 00
	00		 fstp	 DWORD PTR [esi+5260]
  001a9	6a 07		 push	 7

; 47   : 
; 48   : 	m_vMamaHahaOwnerAttachOffSet.x = rkLoader.LoadFloat_e( "mamahaha_owner_attach_offset_x", 0.0f );

  001ab	c7 45 d8 80 8d
	86 8b		 mov	 DWORD PTR __k$671799[ebp], -1954116224 ; 8b868d80H
  001b2	c7 45 dc 85 8d
	83 8b		 mov	 DWORD PTR __k$671799[ebp+4], -1954312827 ; 8b838d85H
  001b9	c7 45 e0 b2 83
	9c 84		 mov	 DWORD PTR __k$671799[ebp+8], -2070117454 ; 849c83b2H
  001c0	c7 45 e4 88 9e
	b4 8b		 mov	 DWORD PTR __k$671799[ebp+12], -1951097208 ; 8bb49e88H
  001c7	c7 45 e8 99 98
	8a 89		 mov	 DWORD PTR __k$671799[ebp+16], -1987405671 ; 898a9899H
  001ce	c7 45 ec 85 b3
	84 8c		 mov	 DWORD PTR __k$671799[ebp+20], -1937460347 ; 8c84b385H
  001d5	c7 45 f0 8b 9f
	8e 9e		 mov	 DWORD PTR __k$671799[ebp+24], -1634820213 ; 9e8e9f8bH
  001dc	66 c7 45 f4 b2
	94		 mov	 WORD PTR __k$671799[ebp+28], 38066 ; 000094b2H
  001e2	8d 45 d8	 lea	 eax, DWORD PTR __k$671799[ebp]
  001e5	88 5d f6	 mov	 BYTE PTR __k$671799[ebp+30], bl
  001e8	59		 pop	 ecx
$LL424@LoadProper:
  001e9	81 30 ed ec eb
	ea		 xor	 DWORD PTR [eax], -353637139 ; eaebecedH
  001ef	83 c0 04	 add	 eax, 4
  001f2	49		 dec	 ecx
  001f3	75 f4		 jne	 SHORT $LL424@LoadProper
  001f5	6a 1c		 push	 28			; 0000001cH
  001f7	58		 pop	 eax
$LL421@LoadProper:
  001f8	8b c8		 mov	 ecx, eax
  001fa	81 e1 03 00 00
	80		 and	 ecx, -2147483645	; 80000003H
  00200	79 05		 jns	 SHORT $LN2110@LoadProper
  00202	49		 dec	 ecx
  00203	83 c9 fc	 or	 ecx, -4			; fffffffcH
  00206	41		 inc	 ecx
$LN2110@LoadProper:
  00207	b2 ed		 mov	 dl, -19			; ffffffedH
  00209	2a d1		 sub	 dl, cl
  0020b	30 54 05 d8	 xor	 BYTE PTR __k$671799[ebp+eax], dl
  0020f	40		 inc	 eax
  00210	83 f8 1e	 cmp	 eax, 30			; 0000001eH
  00213	7c e3		 jl	 SHORT $LL421@LoadProper
  00215	0f 57 c0	 xorps	 xmm0, xmm0
  00218	51		 push	 ecx
  00219	8d 45 d8	 lea	 eax, DWORD PTR __k$671799[ebp]
  0021c	f3 0f 11 04 24	 movss	 DWORD PTR [esp], xmm0
  00221	50		 push	 eax
  00222	8b cf		 mov	 ecx, edi
  00224	ff 15 00 00 00
	00		 call	 DWORD PTR __imp_?LoadFloat@ioINILoader@@QAEMPBDM@Z
  0022a	d9 9e 90 14 00
	00		 fstp	 DWORD PTR [esi+5264]
  00230	6a 07		 push	 7

; 49   : 	m_vMamaHahaOwnerAttachOffSet.y = rkLoader.LoadFloat_e( "mamahaha_owner_attach_offset_y", 0.0f );

  00232	c7 45 d8 80 8d
	86 8b		 mov	 DWORD PTR __k$671924[ebp], -1954116224 ; 8b868d80H
  00239	c7 45 dc 85 8d
	83 8b		 mov	 DWORD PTR __k$671924[ebp+4], -1954312827 ; 8b838d85H
  00240	c7 45 e0 b2 83
	9c 84		 mov	 DWORD PTR __k$671924[ebp+8], -2070117454 ; 849c83b2H
  00247	c7 45 e4 88 9e
	b4 8b		 mov	 DWORD PTR __k$671924[ebp+12], -1951097208 ; 8bb49e88H
  0024e	c7 45 e8 99 98
	8a 89		 mov	 DWORD PTR __k$671924[ebp+16], -1987405671 ; 898a9899H
  00255	c7 45 ec 85 b3
	84 8c		 mov	 DWORD PTR __k$671924[ebp+20], -1937460347 ; 8c84b385H
  0025c	c7 45 f0 8b 9f
	8e 9e		 mov	 DWORD PTR __k$671924[ebp+24], -1634820213 ; 9e8e9f8bH
  00263	66 c7 45 f4 b2
	95		 mov	 WORD PTR __k$671924[ebp+28], 38322 ; 000095b2H
  00269	8d 45 d8	 lea	 eax, DWORD PTR __k$671924[ebp]
  0026c	88 5d f6	 mov	 BYTE PTR __k$671924[ebp+30], bl
  0026f	59		 pop	 ecx
$LL530@LoadProper:
  00270	81 30 ed ec eb
	ea		 xor	 DWORD PTR [eax], -353637139 ; eaebecedH
  00276	83 c0 04	 add	 eax, 4
  00279	49		 dec	 ecx
  0027a	75 f4		 jne	 SHORT $LL530@LoadProper
  0027c	6a 1c		 push	 28			; 0000001cH
  0027e	58		 pop	 eax
$LL527@LoadProper:
  0027f	8b c8		 mov	 ecx, eax
  00281	81 e1 03 00 00
	80		 and	 ecx, -2147483645	; 80000003H
  00287	79 05		 jns	 SHORT $LN2111@LoadProper
  00289	49		 dec	 ecx
  0028a	83 c9 fc	 or	 ecx, -4			; fffffffcH
  0028d	41		 inc	 ecx
$LN2111@LoadProper:
  0028e	b2 ed		 mov	 dl, -19			; ffffffedH
  00290	2a d1		 sub	 dl, cl
  00292	30 54 05 d8	 xor	 BYTE PTR __k$671924[ebp+eax], dl
  00296	40		 inc	 eax
  00297	83 f8 1e	 cmp	 eax, 30			; 0000001eH
  0029a	7c e3		 jl	 SHORT $LL527@LoadProper
  0029c	0f 57 c0	 xorps	 xmm0, xmm0
  0029f	51		 push	 ecx
  002a0	8d 45 d8	 lea	 eax, DWORD PTR __k$671924[ebp]
  002a3	f3 0f 11 04 24	 movss	 DWORD PTR [esp], xmm0
  002a8	50		 push	 eax
  002a9	8b cf		 mov	 ecx, edi
  002ab	ff 15 00 00 00
	00		 call	 DWORD PTR __imp_?LoadFloat@ioINILoader@@QAEMPBDM@Z
  002b1	d9 9e 94 14 00
	00		 fstp	 DWORD PTR [esi+5268]
  002b7	6a 07		 push	 7

; 50   : 	m_vMamaHahaOwnerAttachOffSet.z = rkLoader.LoadFloat_e( "mamahaha_owner_attach_offset_z", 0.0f );

  002b9	c7 45 d8 80 8d
	86 8b		 mov	 DWORD PTR __k$672049[ebp], -1954116224 ; 8b868d80H
  002c0	c7 45 dc 85 8d
	83 8b		 mov	 DWORD PTR __k$672049[ebp+4], -1954312827 ; 8b838d85H
  002c7	c7 45 e0 b2 83
	9c 84		 mov	 DWORD PTR __k$672049[ebp+8], -2070117454 ; 849c83b2H
  002ce	c7 45 e4 88 9e
	b4 8b		 mov	 DWORD PTR __k$672049[ebp+12], -1951097208 ; 8bb49e88H
  002d5	c7 45 e8 99 98
	8a 89		 mov	 DWORD PTR __k$672049[ebp+16], -1987405671 ; 898a9899H
  002dc	c7 45 ec 85 b3
	84 8c		 mov	 DWORD PTR __k$672049[ebp+20], -1937460347 ; 8c84b385H
  002e3	c7 45 f0 8b 9f
	8e 9e		 mov	 DWORD PTR __k$672049[ebp+24], -1634820213 ; 9e8e9f8bH
  002ea	66 c7 45 f4 b2
	96		 mov	 WORD PTR __k$672049[ebp+28], 38578 ; 000096b2H
  002f0	8d 45 d8	 lea	 eax, DWORD PTR __k$672049[ebp]
  002f3	88 5d f6	 mov	 BYTE PTR __k$672049[ebp+30], bl
  002f6	59		 pop	 ecx
$LL636@LoadProper:
  002f7	81 30 ed ec eb
	ea		 xor	 DWORD PTR [eax], -353637139 ; eaebecedH
  002fd	83 c0 04	 add	 eax, 4
  00300	49		 dec	 ecx
  00301	75 f4		 jne	 SHORT $LL636@LoadProper
  00303	6a 1c		 push	 28			; 0000001cH
  00305	58		 pop	 eax
$LL633@LoadProper:
  00306	8b c8		 mov	 ecx, eax
  00308	81 e1 03 00 00
	80		 and	 ecx, -2147483645	; 80000003H
  0030e	79 05		 jns	 SHORT $LN2112@LoadProper
  00310	49		 dec	 ecx
  00311	83 c9 fc	 or	 ecx, -4			; fffffffcH
  00314	41		 inc	 ecx
$LN2112@LoadProper:
  00315	b2 ed		 mov	 dl, -19			; ffffffedH
  00317	2a d1		 sub	 dl, cl
  00319	30 54 05 d8	 xor	 BYTE PTR __k$672049[ebp+eax], dl
  0031d	40		 inc	 eax
  0031e	83 f8 1e	 cmp	 eax, 30			; 0000001eH
  00321	7c e3		 jl	 SHORT $LL633@LoadProper
  00323	0f 57 c0	 xorps	 xmm0, xmm0
  00326	51		 push	 ecx
  00327	8d 45 d8	 lea	 eax, DWORD PTR __k$672049[ebp]
  0032a	f3 0f 11 04 24	 movss	 DWORD PTR [esp], xmm0
  0032f	50		 push	 eax
  00330	8b cf		 mov	 ecx, edi
  00332	ff 15 00 00 00
	00		 call	 DWORD PTR __imp_?LoadFloat@ioINILoader@@QAEMPBDM@Z
  00338	d9 9e 98 14 00
	00		 fstp	 DWORD PTR [esi+5272]
  0033e	6a 06		 push	 6

; 51   : 
; 52   : 	rkLoader.LoadString_e( "mamahaha_owner_attach_ani", "", szBuf, MAX_PATH );

  00340	c7 45 dc 80 8d
	86 8b		 mov	 DWORD PTR __k$672090[ebp], -1954116224 ; 8b868d80H
  00347	c7 45 e0 85 8d
	83 8b		 mov	 DWORD PTR __k$672090[ebp+4], -1954312827 ; 8b838d85H
  0034e	c7 45 e4 b2 83
	9c 84		 mov	 DWORD PTR __k$672090[ebp+8], -2070117454 ; 849c83b2H
  00355	c7 45 e8 88 9e
	b4 8b		 mov	 DWORD PTR __k$672090[ebp+12], -1951097208 ; 8bb49e88H
  0035c	c7 45 ec 99 98
	8a 89		 mov	 DWORD PTR __k$672090[ebp+16], -1987405671 ; 898a9899H
  00363	c7 45 f0 85 b3
	8a 84		 mov	 DWORD PTR __k$672090[ebp+20], -2071284859 ; 848ab385H
  0036a	8d 45 dc	 lea	 eax, DWORD PTR __k$672090[ebp]
  0036d	66 c7 45 f4 84
	00		 mov	 WORD PTR __k$672090[ebp+24], 132 ; 00000084H
  00373	59		 pop	 ecx
$LL742@LoadProper:
  00374	81 30 ed ec eb
	ea		 xor	 DWORD PTR [eax], -353637139 ; eaebecedH
  0037a	83 c0 04	 add	 eax, 4
  0037d	49		 dec	 ecx
  0037e	75 f4		 jne	 SHORT $LL742@LoadProper
  00380	80 75 f4 ed	 xor	 BYTE PTR __k$672090[ebp+24], -19 ; ffffffedH
  00384	68 04 01 00 00	 push	 260			; 00000104H
  00389	8d 85 d4 fe ff
	ff		 lea	 eax, DWORD PTR _szBuf$[ebp]
  0038f	50		 push	 eax
  00390	68 00 00 00 00	 push	 OFFSET ??_C@_00CNPNBAHC@?$AA@
  00395	8d 45 dc	 lea	 eax, DWORD PTR __k$672090[ebp]
  00398	50		 push	 eax
  00399	8b cf		 mov	 ecx, edi
  0039b	ff 15 00 00 00
	00		 call	 DWORD PTR __imp_?LoadStringA@ioINILoader@@QAEXPBD0PADH@Z

; 53   : 	m_MamaHahaOwnerAttachAni = szBuf;

  003a1	8d 85 d4 fe ff
	ff		 lea	 eax, DWORD PTR _szBuf$[ebp]
  003a7	50		 push	 eax
  003a8	8d 8e 9c 14 00
	00		 lea	 ecx, DWORD PTR [esi+5276]
  003ae	ff 15 00 00 00
	00		 call	 DWORD PTR __imp_??4ioHashString@@QAEAAV0@PBD@Z

; 54   : 	m_fMamaHahaOwnerAttachAniRate = rkLoader.LoadFloat_e( "mamahaha_owner_attach_ani_rate", FLOAT1 );

  003b4	b8 01 00 00 00	 mov	 eax, 1
  003b9	6a 07		 push	 7
  003bb	c7 45 d8 80 8d
	86 8b		 mov	 DWORD PTR __k$672303[ebp], -1954116224 ; 8b868d80H
  003c2	c7 45 dc 85 8d
	83 8b		 mov	 DWORD PTR __k$672303[ebp+4], -1954312827 ; 8b838d85H
  003c9	c7 45 e0 b2 83
	9c 84		 mov	 DWORD PTR __k$672303[ebp+8], -2070117454 ; 849c83b2H
  003d0	c7 45 e4 88 9e
	b4 8b		 mov	 DWORD PTR __k$672303[ebp+12], -1951097208 ; 8bb49e88H
  003d7	c7 45 e8 99 98
	8a 89		 mov	 DWORD PTR __k$672303[ebp+16], -1987405671 ; 898a9899H
  003de	c7 45 ec 85 b3
	8a 84		 mov	 DWORD PTR __k$672303[ebp+20], -2071284859 ; 848ab385H
  003e5	c7 45 f0 84 b3
	99 8b		 mov	 DWORD PTR __k$672303[ebp+24], -1952861308 ; 8b99b384H
  003ec	66 c7 45 f4 99
	89		 mov	 WORD PTR __k$672303[ebp+28], 35225 ; 00008999H
  003f2	8d 4d d8	 lea	 ecx, DWORD PTR __k$672303[ebp]
  003f5	88 5d f6	 mov	 BYTE PTR __k$672303[ebp+30], bl
  003f8	5a		 pop	 edx
$LL850@LoadProper:
  003f9	81 31 ed ec eb
	ea		 xor	 DWORD PTR [ecx], -353637139 ; eaebecedH
  003ff	83 c1 04	 add	 ecx, 4
  00402	4a		 dec	 edx
  00403	75 f4		 jne	 SHORT $LL850@LoadProper
  00405	c7 85 d0 fe ff
	ff 1c 00 00 00	 mov	 DWORD PTR _i$672293[ebp], 28 ; 0000001cH
$LL847@LoadProper:
  0040f	8b 8d d0 fe ff
	ff		 mov	 ecx, DWORD PTR _i$672293[ebp]
  00415	81 e1 03 00 00
	80		 and	 ecx, -2147483645	; 80000003H
  0041b	79 05		 jns	 SHORT $LN2113@LoadProper
  0041d	49		 dec	 ecx
  0041e	83 c9 fc	 or	 ecx, -4			; fffffffcH
  00421	41		 inc	 ecx
$LN2113@LoadProper:
  00422	b2 ed		 mov	 dl, -19			; ffffffedH
  00424	2a d1		 sub	 dl, cl
  00426	8b 8d d0 fe ff
	ff		 mov	 ecx, DWORD PTR _i$672293[ebp]
  0042c	30 54 0d d8	 xor	 BYTE PTR __k$672303[ebp+ecx], dl
  00430	ff 85 d0 fe ff
	ff		 inc	 DWORD PTR _i$672293[ebp]
  00436	83 bd d0 fe ff
	ff 1e		 cmp	 DWORD PTR _i$672293[ebp], 30 ; 0000001eH
  0043d	7c d0		 jl	 SHORT $LL847@LoadProper
  0043f	89 85 d0 fe ff
	ff		 mov	 DWORD PTR tv18910[ebp], eax
  00445	db 85 d0 fe ff
	ff		 fild	 DWORD PTR tv18910[ebp]
  0044b	85 c0		 test	 eax, eax
  0044d	79 06		 jns	 SHORT $LN2114@LoadProper
  0044f	d8 05 00 00 00
	00		 fadd	 DWORD PTR __real@4f800000
$LN2114@LoadProper:
  00455	51		 push	 ecx
  00456	8d 45 d8	 lea	 eax, DWORD PTR __k$672303[ebp]
  00459	d9 1c 24	 fstp	 DWORD PTR [esp]
  0045c	50		 push	 eax
  0045d	8b cf		 mov	 ecx, edi
  0045f	ff 15 00 00 00
	00		 call	 DWORD PTR __imp_?LoadFloat@ioINILoader@@QAEMPBDM@Z
  00465	d9 9e ac 14 00
	00		 fstp	 DWORD PTR [esi+5292]
  0046b	6a 05		 push	 5

; 55   : 
; 56   : 	// shichikapu
; 57   : 	m_fShichikapuMoveSpeed = rkLoader.LoadFloat_e( "shichikapu_move_speed", 0.0f );

  0046d	c7 45 e0 9e 84
	82 89		 mov	 DWORD PTR __k$672344[ebp], -1987935074 ; 8982849eH
  00474	c7 45 e4 85 85
	80 8b		 mov	 DWORD PTR __k$672344[ebp+4], -1954511483 ; 8b808585H
  0047b	c7 45 e8 9d 99
	b4 87		 mov	 DWORD PTR __k$672344[ebp+8], -2018207331 ; 87b4999dH
  00482	c7 45 ec 82 9a
	8e b5		 mov	 DWORD PTR __k$672344[ebp+12], -1248945534 ; b58e9a82H
  00489	c7 45 f0 9e 9c
	8e 8f		 mov	 DWORD PTR __k$672344[ebp+16], -1886479202 ; 8f8e9c9eH
  00490	8d 45 e0	 lea	 eax, DWORD PTR __k$672344[ebp]
  00493	66 c7 45 f4 89
	00		 mov	 WORD PTR __k$672344[ebp+20], 137 ; 00000089H
  00499	59		 pop	 ecx
$LL956@LoadProper:
  0049a	81 30 ed ec eb
	ea		 xor	 DWORD PTR [eax], -353637139 ; eaebecedH
  004a0	83 c0 04	 add	 eax, 4
  004a3	49		 dec	 ecx
  004a4	75 f4		 jne	 SHORT $LL956@LoadProper
  004a6	0f 57 c0	 xorps	 xmm0, xmm0
  004a9	80 75 f4 ed	 xor	 BYTE PTR __k$672344[ebp+20], -19 ; ffffffedH
  004ad	51		 push	 ecx
  004ae	8d 45 e0	 lea	 eax, DWORD PTR __k$672344[ebp]
  004b1	f3 0f 11 04 24	 movss	 DWORD PTR [esp], xmm0
  004b6	50		 push	 eax
  004b7	8b cf		 mov	 ecx, edi
  004b9	ff 15 00 00 00
	00		 call	 DWORD PTR __imp_?LoadFloat@ioINILoader@@QAEMPBDM@Z
  004bf	d9 9d d0 fe ff
	ff		 fstp	 DWORD PTR _value$672457[ebp]
  004c5	8d 85 d0 fe ff
	ff		 lea	 eax, DWORD PTR _value$672457[ebp]
  004cb	50		 push	 eax
  004cc	8d 8e f0 14 00
	00		 lea	 ecx, DWORD PTR [esi+5360]
  004d2	e8 00 00 00 00	 call	 ?EncryptValueToPool@?$CEncrypt@M@@AAEXPBD@Z ; CEncrypt<float>::EncryptValueToPool
  004d7	6a 05		 push	 5

; 58   : 	m_fShichikapuMoveAngle = rkLoader.LoadFloat_e( "shichikapu_move_angle", 0.0f );

  004d9	c7 45 e0 9e 84
	82 89		 mov	 DWORD PTR __k$672474[ebp], -1987935074 ; 8982849eH
  004e0	c7 45 e4 85 85
	80 8b		 mov	 DWORD PTR __k$672474[ebp+4], -1954511483 ; 8b808585H
  004e7	c7 45 e8 9d 99
	b4 87		 mov	 DWORD PTR __k$672474[ebp+8], -2018207331 ; 87b4999dH
  004ee	c7 45 ec 82 9a
	8e b5		 mov	 DWORD PTR __k$672474[ebp+12], -1248945534 ; b58e9a82H
  004f5	c7 45 f0 8c 82
	8c 86		 mov	 DWORD PTR __k$672474[ebp+16], -2037611892 ; 868c828cH
  004fc	8d 45 e0	 lea	 eax, DWORD PTR __k$672474[ebp]
  004ff	66 c7 45 f4 88
	00		 mov	 WORD PTR __k$672474[ebp+20], 136 ; 00000088H
  00505	59		 pop	 ecx
$LL1064@LoadProper:
  00506	81 30 ed ec eb
	ea		 xor	 DWORD PTR [eax], -353637139 ; eaebecedH
  0050c	83 c0 04	 add	 eax, 4
  0050f	49		 dec	 ecx
  00510	75 f4		 jne	 SHORT $LL1064@LoadProper
  00512	0f 57 c0	 xorps	 xmm0, xmm0
  00515	80 75 f4 ed	 xor	 BYTE PTR __k$672474[ebp+20], -19 ; ffffffedH
  00519	51		 push	 ecx
  0051a	8d 45 e0	 lea	 eax, DWORD PTR __k$672474[ebp]
  0051d	f3 0f 11 04 24	 movss	 DWORD PTR [esp], xmm0
  00522	50		 push	 eax
  00523	8b cf		 mov	 ecx, edi
  00525	ff 15 00 00 00
	00		 call	 DWORD PTR __imp_?LoadFloat@ioINILoader@@QAEMPBDM@Z
  0052b	d9 9d d0 fe ff
	ff		 fstp	 DWORD PTR _value$672586[ebp]
  00531	8d 85 d0 fe ff
	ff		 lea	 eax, DWORD PTR _value$672586[ebp]
  00537	50		 push	 eax
  00538	8d 8e 20 15 00
	00		 lea	 ecx, DWORD PTR [esi+5408]
  0053e	e8 00 00 00 00	 call	 ?EncryptValueToPool@?$CEncrypt@M@@AAEXPBD@Z ; CEncrypt<float>::EncryptValueToPool
  00543	6a 05		 push	 5

; 59   : 	m_fShichikapuReturnSpeed = rkLoader.LoadFloat_e( "shichikapu_return_speed", 0.0f );

  00545	c7 45 dc 9e 84
	82 89		 mov	 DWORD PTR __k$672604[ebp], -1987935074 ; 8982849eH
  0054c	c7 45 e0 85 85
	80 8b		 mov	 DWORD PTR __k$672604[ebp+4], -1954511483 ; 8b808585H
  00553	c7 45 e4 9d 99
	b4 98		 mov	 DWORD PTR __k$672604[ebp+8], -1732994659 ; 98b4999dH
  0055a	c7 45 e8 88 98
	9e 98		 mov	 DWORD PTR __k$672604[ebp+12], -1734436728 ; 989e9888H
  00561	c7 45 ec 83 b3
	98 9a		 mov	 DWORD PTR __k$672604[ebp+16], -1701268605 ; 9a98b383H
  00568	8d 45 dc	 lea	 eax, DWORD PTR __k$672604[ebp]
  0056b	c7 45 f0 88 89
	8f 00		 mov	 DWORD PTR __k$672604[ebp+20], 9406856 ; 008f8988H
  00572	59		 pop	 ecx
$LL1172@LoadProper:
  00573	81 30 ed ec eb
	ea		 xor	 DWORD PTR [eax], -353637139 ; eaebecedH
  00579	83 c0 04	 add	 eax, 4
  0057c	49		 dec	 ecx
  0057d	75 f4		 jne	 SHORT $LL1172@LoadProper
  0057f	6a 14		 push	 20			; 00000014H
  00581	58		 pop	 eax
$LL1169@LoadProper:
  00582	8b c8		 mov	 ecx, eax
  00584	81 e1 03 00 00
	80		 and	 ecx, -2147483645	; 80000003H
  0058a	79 05		 jns	 SHORT $LN2115@LoadProper
  0058c	49		 dec	 ecx
  0058d	83 c9 fc	 or	 ecx, -4			; fffffffcH
  00590	41		 inc	 ecx
$LN2115@LoadProper:
  00591	b2 ed		 mov	 dl, -19			; ffffffedH
  00593	2a d1		 sub	 dl, cl
  00595	30 54 05 dc	 xor	 BYTE PTR __k$672604[ebp+eax], dl
  00599	40		 inc	 eax
  0059a	83 f8 17	 cmp	 eax, 23			; 00000017H
  0059d	7c e3		 jl	 SHORT $LL1169@LoadProper
  0059f	0f 57 c0	 xorps	 xmm0, xmm0
  005a2	51		 push	 ecx
  005a3	8d 45 dc	 lea	 eax, DWORD PTR __k$672604[ebp]
  005a6	f3 0f 11 04 24	 movss	 DWORD PTR [esp], xmm0
  005ab	50		 push	 eax
  005ac	8b cf		 mov	 ecx, edi
  005ae	ff 15 00 00 00
	00		 call	 DWORD PTR __imp_?LoadFloat@ioINILoader@@QAEMPBDM@Z
  005b4	d9 9d d0 fe ff
	ff		 fstp	 DWORD PTR _value$672716[ebp]
  005ba	8d 85 d0 fe ff
	ff		 lea	 eax, DWORD PTR _value$672716[ebp]
  005c0	50		 push	 eax
  005c1	8d 8e 50 15 00
	00		 lea	 ecx, DWORD PTR [esi+5456]
  005c7	e8 00 00 00 00	 call	 ?EncryptValueToPool@?$CEncrypt@M@@AAEXPBD@Z ; CEncrypt<float>::EncryptValueToPool
  005cc	6a 05		 push	 5

; 60   : 	m_fShichikapuLimitRange = rkLoader.LoadFloat_e( "shichikapu_limit_range", 0.0f );

  005ce	c7 45 e0 9e 84
	82 89		 mov	 DWORD PTR __k$672734[ebp], -1987935074 ; 8982849eH
  005d5	c7 45 e4 85 85
	80 8b		 mov	 DWORD PTR __k$672734[ebp+4], -1954511483 ; 8b808585H
  005dc	c7 45 e8 9d 99
	b4 86		 mov	 DWORD PTR __k$672734[ebp+8], -2034984547 ; 86b4999dH
  005e3	c7 45 ec 84 81
	82 9e		 mov	 DWORD PTR __k$672734[ebp+12], -1635614332 ; 9e828184H
  005ea	c7 45 f0 b2 9e
	8a 84		 mov	 DWORD PTR __k$672734[ebp+16], -2071290190 ; 848a9eb2H
  005f1	66 c7 45 f4 8a
	89		 mov	 WORD PTR __k$672734[ebp+20], 35210 ; 0000898aH
  005f7	8d 45 e0	 lea	 eax, DWORD PTR __k$672734[ebp]
  005fa	88 5d f6	 mov	 BYTE PTR __k$672734[ebp+22], bl
  005fd	59		 pop	 ecx
$LL1280@LoadProper:
  005fe	81 30 ed ec eb
	ea		 xor	 DWORD PTR [eax], -353637139 ; eaebecedH
  00604	83 c0 04	 add	 eax, 4
  00607	49		 dec	 ecx
  00608	75 f4		 jne	 SHORT $LL1280@LoadProper
  0060a	6a 14		 push	 20			; 00000014H
  0060c	58		 pop	 eax
$LL1277@LoadProper:
  0060d	8b c8		 mov	 ecx, eax
  0060f	81 e1 03 00 00
	80		 and	 ecx, -2147483645	; 80000003H
  00615	79 05		 jns	 SHORT $LN2116@LoadProper
  00617	49		 dec	 ecx
  00618	83 c9 fc	 or	 ecx, -4			; fffffffcH
  0061b	41		 inc	 ecx
$LN2116@LoadProper:
  0061c	b2 ed		 mov	 dl, -19			; ffffffedH
  0061e	2a d1		 sub	 dl, cl
  00620	30 54 05 e0	 xor	 BYTE PTR __k$672734[ebp+eax], dl
  00624	40		 inc	 eax
  00625	83 f8 16	 cmp	 eax, 22			; 00000016H
  00628	7c e3		 jl	 SHORT $LL1277@LoadProper
  0062a	0f 57 c0	 xorps	 xmm0, xmm0
  0062d	51		 push	 ecx
  0062e	8d 45 e0	 lea	 eax, DWORD PTR __k$672734[ebp]
  00631	f3 0f 11 04 24	 movss	 DWORD PTR [esp], xmm0
  00636	50		 push	 eax
  00637	8b cf		 mov	 ecx, edi
  00639	ff 15 00 00 00
	00		 call	 DWORD PTR __imp_?LoadFloat@ioINILoader@@QAEMPBDM@Z
  0063f	d9 9d d0 fe ff
	ff		 fstp	 DWORD PTR _value$672847[ebp]
  00645	8d 85 d0 fe ff
	ff		 lea	 eax, DWORD PTR _value$672847[ebp]
  0064b	50		 push	 eax
  0064c	8d 8e 80 15 00
	00		 lea	 ecx, DWORD PTR [esi+5504]
  00652	e8 00 00 00 00	 call	 ?EncryptValueToPool@?$CEncrypt@M@@AAEXPBD@Z ; CEncrypt<float>::EncryptValueToPool
  00657	6a 06		 push	 6

; 61   : 
; 62   : 	m_dwShichikapuMoveDuration = (DWORD)rkLoader.LoadInt_e( "shichikapu_move_duration", 0 );

  00659	c7 45 dc 9e 84
	82 89		 mov	 DWORD PTR __k$672877[ebp], -1987935074 ; 8982849eH
  00660	c7 45 e0 85 85
	80 8b		 mov	 DWORD PTR __k$672877[ebp+4], -1954511483 ; 8b808585H
  00667	c7 45 e4 9d 99
	b4 87		 mov	 DWORD PTR __k$672877[ebp+8], -2018207331 ; 87b4999dH
  0066e	c7 45 e8 82 9a
	8e b5		 mov	 DWORD PTR __k$672877[ebp+12], -1248945534 ; b58e9a82H
  00675	c7 45 ec 89 99
	99 8b		 mov	 DWORD PTR __k$672877[ebp+16], -1952867959 ; 8b999989H
  0067c	c7 45 f0 99 85
	84 84		 mov	 DWORD PTR __k$672877[ebp+20], -2071689831 ; 84848599H
  00683	8d 45 dc	 lea	 eax, DWORD PTR __k$672877[ebp]
  00686	88 5d f4	 mov	 BYTE PTR __k$672877[ebp+24], bl
  00689	59		 pop	 ecx
$LL1388@LoadProper:
  0068a	81 30 ed ec eb
	ea		 xor	 DWORD PTR [eax], -353637139 ; eaebecedH
  00690	83 c0 04	 add	 eax, 4
  00693	49		 dec	 ecx
  00694	75 f4		 jne	 SHORT $LL1388@LoadProper
  00696	53		 push	 ebx
  00697	8d 45 dc	 lea	 eax, DWORD PTR __k$672877[ebp]
  0069a	50		 push	 eax
  0069b	8b cf		 mov	 ecx, edi
  0069d	ff 15 00 00 00
	00		 call	 DWORD PTR __imp_?LoadInt@ioINILoader@@QAEHPBDH@Z
  006a3	89 85 d0 fe ff
	ff		 mov	 DWORD PTR _value$672977[ebp], eax
  006a9	8d 85 d0 fe ff
	ff		 lea	 eax, DWORD PTR _value$672977[ebp]
  006af	50		 push	 eax
  006b0	8d 8e b0 15 00
	00		 lea	 ecx, DWORD PTR [esi+5552]
  006b6	e8 00 00 00 00	 call	 ?EncryptValueToPool@?$CEncrypt@K@@AAEXPBD@Z ; CEncrypt<unsigned long>::EncryptValueToPool
  006bb	6a 06		 push	 6

; 63   : 
; 64   : 	// enemy attach
; 65   : 	rkLoader.LoadString_e( "mamahaha_enemy_attach_ani", "", szBuf, MAX_PATH );

  006bd	c7 45 dc 80 8d
	86 8b		 mov	 DWORD PTR __k$672994[ebp], -1954116224 ; 8b868d80H
  006c4	c7 45 e0 85 8d
	83 8b		 mov	 DWORD PTR __k$672994[ebp+4], -1954312827 ; 8b838d85H
  006cb	c7 45 e4 b2 89
	85 8f		 mov	 DWORD PTR __k$672994[ebp+8], -1887073870 ; 8f8589b2H
  006d2	c7 45 e8 80 95
	b4 8b		 mov	 DWORD PTR __k$672994[ebp+12], -1951099520 ; 8bb49580H
  006d9	c7 45 ec 99 98
	8a 89		 mov	 DWORD PTR __k$672994[ebp+16], -1987405671 ; 898a9899H
  006e0	c7 45 f0 85 b3
	8a 84		 mov	 DWORD PTR __k$672994[ebp+20], -2071284859 ; 848ab385H
  006e7	8d 45 dc	 lea	 eax, DWORD PTR __k$672994[ebp]
  006ea	66 c7 45 f4 84
	00		 mov	 WORD PTR __k$672994[ebp+24], 132 ; 00000084H
  006f0	59		 pop	 ecx
$LL1496@LoadProper:
  006f1	81 30 ed ec eb
	ea		 xor	 DWORD PTR [eax], -353637139 ; eaebecedH
  006f7	83 c0 04	 add	 eax, 4
  006fa	49		 dec	 ecx
  006fb	75 f4		 jne	 SHORT $LL1496@LoadProper
  006fd	80 75 f4 ed	 xor	 BYTE PTR __k$672994[ebp+24], -19 ; ffffffedH
  00701	68 04 01 00 00	 push	 260			; 00000104H
  00706	8d 85 d4 fe ff
	ff		 lea	 eax, DWORD PTR _szBuf$[ebp]
  0070c	50		 push	 eax
  0070d	68 00 00 00 00	 push	 OFFSET ??_C@_00CNPNBAHC@?$AA@
  00712	8d 45 dc	 lea	 eax, DWORD PTR __k$672994[ebp]
  00715	50		 push	 eax
  00716	8b cf		 mov	 ecx, edi
  00718	ff 15 00 00 00
	00		 call	 DWORD PTR __imp_?LoadStringA@ioINILoader@@QAEXPBD0PADH@Z

; 66   : 	m_MamaHahaEnemyAttachAni = szBuf;

  0071e	8d 85 d4 fe ff
	ff		 lea	 eax, DWORD PTR _szBuf$[ebp]
  00724	50		 push	 eax
  00725	8d 8e b0 14 00
	00		 lea	 ecx, DWORD PTR [esi+5296]
  0072b	ff 15 00 00 00
	00		 call	 DWORD PTR __imp_??4ioHashString@@QAEAAV0@PBD@Z

; 67   : 	m_fMamaHahaEnemyAttachAniRate = rkLoader.LoadFloat_e( "mamahaha_enemy_attach_ani_rate", FLOAT1 );

  00731	b8 01 00 00 00	 mov	 eax, 1
  00736	6a 07		 push	 7
  00738	c7 45 d8 80 8d
	86 8b		 mov	 DWORD PTR __k$673207[ebp], -1954116224 ; 8b868d80H
  0073f	c7 45 dc 85 8d
	83 8b		 mov	 DWORD PTR __k$673207[ebp+4], -1954312827 ; 8b838d85H
  00746	c7 45 e0 b2 89
	85 8f		 mov	 DWORD PTR __k$673207[ebp+8], -1887073870 ; 8f8589b2H
  0074d	c7 45 e4 80 95
	b4 8b		 mov	 DWORD PTR __k$673207[ebp+12], -1951099520 ; 8bb49580H
  00754	c7 45 e8 99 98
	8a 89		 mov	 DWORD PTR __k$673207[ebp+16], -1987405671 ; 898a9899H
  0075b	c7 45 ec 85 b3
	8a 84		 mov	 DWORD PTR __k$673207[ebp+20], -2071284859 ; 848ab385H
  00762	c7 45 f0 84 b3
	99 8b		 mov	 DWORD PTR __k$673207[ebp+24], -1952861308 ; 8b99b384H
  00769	66 c7 45 f4 99
	89		 mov	 WORD PTR __k$673207[ebp+28], 35225 ; 00008999H
  0076f	8d 4d d8	 lea	 ecx, DWORD PTR __k$673207[ebp]
  00772	88 5d f6	 mov	 BYTE PTR __k$673207[ebp+30], bl
  00775	5a		 pop	 edx
$LL1604@LoadProper:
  00776	81 31 ed ec eb
	ea		 xor	 DWORD PTR [ecx], -353637139 ; eaebecedH
  0077c	83 c1 04	 add	 ecx, 4
  0077f	4a		 dec	 edx
  00780	75 f4		 jne	 SHORT $LL1604@LoadProper
  00782	c7 85 d0 fe ff
	ff 1c 00 00 00	 mov	 DWORD PTR _i$673197[ebp], 28 ; 0000001cH
$LL1601@LoadProper:
  0078c	8b 8d d0 fe ff
	ff		 mov	 ecx, DWORD PTR _i$673197[ebp]
  00792	81 e1 03 00 00
	80		 and	 ecx, -2147483645	; 80000003H
  00798	79 05		 jns	 SHORT $LN2117@LoadProper
  0079a	49		 dec	 ecx
  0079b	83 c9 fc	 or	 ecx, -4			; fffffffcH
  0079e	41		 inc	 ecx
$LN2117@LoadProper:
  0079f	b2 ed		 mov	 dl, -19			; ffffffedH
  007a1	2a d1		 sub	 dl, cl
  007a3	8b 8d d0 fe ff
	ff		 mov	 ecx, DWORD PTR _i$673197[ebp]
  007a9	30 54 0d d8	 xor	 BYTE PTR __k$673207[ebp+ecx], dl
  007ad	ff 85 d0 fe ff
	ff		 inc	 DWORD PTR _i$673197[ebp]
  007b3	83 bd d0 fe ff
	ff 1e		 cmp	 DWORD PTR _i$673197[ebp], 30 ; 0000001eH
  007ba	7c d0		 jl	 SHORT $LL1601@LoadProper
  007bc	89 85 d0 fe ff
	ff		 mov	 DWORD PTR tv18834[ebp], eax
  007c2	db 85 d0 fe ff
	ff		 fild	 DWORD PTR tv18834[ebp]
  007c8	85 c0		 test	 eax, eax
  007ca	79 06		 jns	 SHORT $LN2118@LoadProper
  007cc	d8 05 00 00 00
	00		 fadd	 DWORD PTR __real@4f800000
$LN2118@LoadProper:
  007d2	51		 push	 ecx
  007d3	8d 45 d8	 lea	 eax, DWORD PTR __k$673207[ebp]
  007d6	d9 1c 24	 fstp	 DWORD PTR [esp]
  007d9	50		 push	 eax
  007da	8b cf		 mov	 ecx, edi
  007dc	ff 15 00 00 00
	00		 call	 DWORD PTR __imp_?LoadFloat@ioINILoader@@QAEMPBDM@Z
  007e2	d9 9e c0 14 00
	00		 fstp	 DWORD PTR [esi+5312]
  007e8	6a 06		 push	 6

; 68   : 
; 69   : 	rkLoader.LoadString_e( "mamahaha_enemy_attach_buff", "", szBuf, MAX_PATH );

  007ea	c7 45 dc 80 8d
	86 8b		 mov	 DWORD PTR __k$673261[ebp], -1954116224 ; 8b868d80H
  007f1	c7 45 e0 85 8d
	83 8b		 mov	 DWORD PTR __k$673261[ebp+4], -1954312827 ; 8b838d85H
  007f8	c7 45 e4 b2 89
	85 8f		 mov	 DWORD PTR __k$673261[ebp+8], -1887073870 ; 8f8589b2H
  007ff	c7 45 e8 80 95
	b4 8b		 mov	 DWORD PTR __k$673261[ebp+12], -1951099520 ; 8bb49580H
  00806	c7 45 ec 99 98
	8a 89		 mov	 DWORD PTR __k$673261[ebp+16], -1987405671 ; 898a9899H
  0080d	c7 45 f0 85 b3
	89 9f		 mov	 DWORD PTR __k$673261[ebp+20], -1618365563 ; 9f89b385H
  00814	66 c7 45 f4 8b
	8a		 mov	 WORD PTR __k$673261[ebp+24], 35467 ; 00008a8bH
  0081a	8d 45 dc	 lea	 eax, DWORD PTR __k$673261[ebp]
  0081d	88 5d f6	 mov	 BYTE PTR __k$673261[ebp+26], bl
  00820	59		 pop	 ecx
$LL1710@LoadProper:
  00821	81 30 ed ec eb
	ea		 xor	 DWORD PTR [eax], -353637139 ; eaebecedH
  00827	83 c0 04	 add	 eax, 4
  0082a	49		 dec	 ecx
  0082b	75 f4		 jne	 SHORT $LL1710@LoadProper
  0082d	6a 18		 push	 24			; 00000018H
  0082f	58		 pop	 eax
$LL1707@LoadProper:
  00830	8b c8		 mov	 ecx, eax
  00832	81 e1 03 00 00
	80		 and	 ecx, -2147483645	; 80000003H
  00838	79 05		 jns	 SHORT $LN2119@LoadProper
  0083a	49		 dec	 ecx
  0083b	83 c9 fc	 or	 ecx, -4			; fffffffcH
  0083e	41		 inc	 ecx
$LN2119@LoadProper:
  0083f	b2 ed		 mov	 dl, -19			; ffffffedH
  00841	2a d1		 sub	 dl, cl
  00843	30 54 05 dc	 xor	 BYTE PTR __k$673261[ebp+eax], dl
  00847	40		 inc	 eax
  00848	83 f8 1a	 cmp	 eax, 26			; 0000001aH
  0084b	7c e3		 jl	 SHORT $LL1707@LoadProper
  0084d	68 04 01 00 00	 push	 260			; 00000104H
  00852	8d 85 d4 fe ff
	ff		 lea	 eax, DWORD PTR _szBuf$[ebp]
  00858	50		 push	 eax
  00859	68 00 00 00 00	 push	 OFFSET ??_C@_00CNPNBAHC@?$AA@
  0085e	8d 45 dc	 lea	 eax, DWORD PTR __k$673261[ebp]
  00861	50		 push	 eax
  00862	8b cf		 mov	 ecx, edi
  00864	ff 15 00 00 00
	00		 call	 DWORD PTR __imp_?LoadStringA@ioINILoader@@QAEXPBD0PADH@Z

; 70   : 	m_MamaHahaEnemyAttachBuff = szBuf;

  0086a	8d 85 d4 fe ff
	ff		 lea	 eax, DWORD PTR _szBuf$[ebp]
  00870	50		 push	 eax
  00871	8d 8e c4 14 00
	00		 lea	 ecx, DWORD PTR [esi+5316]
  00877	ff 15 00 00 00
	00		 call	 DWORD PTR __imp_??4ioHashString@@QAEAAV0@PBD@Z
  0087d	6a 07		 push	 7

; 71   : 
; 72   : 	m_vMamaHahaEnemyAttachOffSet.x = rkLoader.LoadFloat_e( "mamahaha_enemy_attach_offset_x", 0.0f );

  0087f	c7 45 d8 80 8d
	86 8b		 mov	 DWORD PTR __k$673457[ebp], -1954116224 ; 8b868d80H
  00886	c7 45 dc 85 8d
	83 8b		 mov	 DWORD PTR __k$673457[ebp+4], -1954312827 ; 8b838d85H
  0088d	c7 45 e0 b2 89
	85 8f		 mov	 DWORD PTR __k$673457[ebp+8], -1887073870 ; 8f8589b2H
  00894	c7 45 e4 80 95
	b4 8b		 mov	 DWORD PTR __k$673457[ebp+12], -1951099520 ; 8bb49580H
  0089b	c7 45 e8 99 98
	8a 89		 mov	 DWORD PTR __k$673457[ebp+16], -1987405671 ; 898a9899H
  008a2	c7 45 ec 85 b3
	84 8c		 mov	 DWORD PTR __k$673457[ebp+20], -1937460347 ; 8c84b385H
  008a9	c7 45 f0 8b 9f
	8e 9e		 mov	 DWORD PTR __k$673457[ebp+24], -1634820213 ; 9e8e9f8bH
  008b0	66 c7 45 f4 b2
	94		 mov	 WORD PTR __k$673457[ebp+28], 38066 ; 000094b2H
  008b6	8d 45 d8	 lea	 eax, DWORD PTR __k$673457[ebp]
  008b9	88 5d f6	 mov	 BYTE PTR __k$673457[ebp+30], bl
  008bc	59		 pop	 ecx
$LL1816@LoadProper:
  008bd	81 30 ed ec eb
	ea		 xor	 DWORD PTR [eax], -353637139 ; eaebecedH
  008c3	83 c0 04	 add	 eax, 4
  008c6	49		 dec	 ecx
  008c7	75 f4		 jne	 SHORT $LL1816@LoadProper
  008c9	6a 1c		 push	 28			; 0000001cH
  008cb	58		 pop	 eax
$LL1813@LoadProper:
  008cc	8b c8		 mov	 ecx, eax
  008ce	81 e1 03 00 00
	80		 and	 ecx, -2147483645	; 80000003H
  008d4	79 05		 jns	 SHORT $LN2120@LoadProper
  008d6	49		 dec	 ecx
  008d7	83 c9 fc	 or	 ecx, -4			; fffffffcH
  008da	41		 inc	 ecx
$LN2120@LoadProper:
  008db	b2 ed		 mov	 dl, -19			; ffffffedH
  008dd	2a d1		 sub	 dl, cl
  008df	30 54 05 d8	 xor	 BYTE PTR __k$673457[ebp+eax], dl
  008e3	40		 inc	 eax
  008e4	83 f8 1e	 cmp	 eax, 30			; 0000001eH
  008e7	7c e3		 jl	 SHORT $LL1813@LoadProper
  008e9	0f 57 c0	 xorps	 xmm0, xmm0
  008ec	51		 push	 ecx
  008ed	8d 45 d8	 lea	 eax, DWORD PTR __k$673457[ebp]
  008f0	f3 0f 11 04 24	 movss	 DWORD PTR [esp], xmm0
  008f5	50		 push	 eax
  008f6	8b cf		 mov	 ecx, edi
  008f8	ff 15 00 00 00
	00		 call	 DWORD PTR __imp_?LoadFloat@ioINILoader@@QAEMPBDM@Z
  008fe	d9 9e e4 14 00
	00		 fstp	 DWORD PTR [esi+5348]
  00904	6a 07		 push	 7

; 73   : 	m_vMamaHahaEnemyAttachOffSet.y = rkLoader.LoadFloat_e( "mamahaha_enemy_attach_offset_y", 0.0f );

  00906	c7 45 d8 80 8d
	86 8b		 mov	 DWORD PTR __k$673582[ebp], -1954116224 ; 8b868d80H
  0090d	c7 45 dc 85 8d
	83 8b		 mov	 DWORD PTR __k$673582[ebp+4], -1954312827 ; 8b838d85H
  00914	c7 45 e0 b2 89
	85 8f		 mov	 DWORD PTR __k$673582[ebp+8], -1887073870 ; 8f8589b2H
  0091b	c7 45 e4 80 95
	b4 8b		 mov	 DWORD PTR __k$673582[ebp+12], -1951099520 ; 8bb49580H
  00922	c7 45 e8 99 98
	8a 89		 mov	 DWORD PTR __k$673582[ebp+16], -1987405671 ; 898a9899H
  00929	c7 45 ec 85 b3
	84 8c		 mov	 DWORD PTR __k$673582[ebp+20], -1937460347 ; 8c84b385H
  00930	c7 45 f0 8b 9f
	8e 9e		 mov	 DWORD PTR __k$673582[ebp+24], -1634820213 ; 9e8e9f8bH
  00937	66 c7 45 f4 b2
	95		 mov	 WORD PTR __k$673582[ebp+28], 38322 ; 000095b2H
  0093d	8d 45 d8	 lea	 eax, DWORD PTR __k$673582[ebp]
  00940	88 5d f6	 mov	 BYTE PTR __k$673582[ebp+30], bl
  00943	59		 pop	 ecx
$LL1922@LoadProper:
  00944	81 30 ed ec eb
	ea		 xor	 DWORD PTR [eax], -353637139 ; eaebecedH
  0094a	83 c0 04	 add	 eax, 4
  0094d	49		 dec	 ecx
  0094e	75 f4		 jne	 SHORT $LL1922@LoadProper
  00950	6a 1c		 push	 28			; 0000001cH
  00952	58		 pop	 eax
$LL1919@LoadProper:
  00953	8b c8		 mov	 ecx, eax
  00955	81 e1 03 00 00
	80		 and	 ecx, -2147483645	; 80000003H
  0095b	79 05		 jns	 SHORT $LN2121@LoadProper
  0095d	49		 dec	 ecx
  0095e	83 c9 fc	 or	 ecx, -4			; fffffffcH
  00961	41		 inc	 ecx
$LN2121@LoadProper:
  00962	b2 ed		 mov	 dl, -19			; ffffffedH
  00964	2a d1		 sub	 dl, cl
  00966	30 54 05 d8	 xor	 BYTE PTR __k$673582[ebp+eax], dl
  0096a	40		 inc	 eax
  0096b	83 f8 1e	 cmp	 eax, 30			; 0000001eH
  0096e	7c e3		 jl	 SHORT $LL1919@LoadProper
  00970	0f 57 c0	 xorps	 xmm0, xmm0
  00973	51		 push	 ecx
  00974	8d 45 d8	 lea	 eax, DWORD PTR __k$673582[ebp]
  00977	f3 0f 11 04 24	 movss	 DWORD PTR [esp], xmm0
  0097c	50		 push	 eax
  0097d	8b cf		 mov	 ecx, edi
  0097f	ff 15 00 00 00
	00		 call	 DWORD PTR __imp_?LoadFloat@ioINILoader@@QAEMPBDM@Z
  00985	d9 9e e8 14 00
	00		 fstp	 DWORD PTR [esi+5352]
  0098b	6a 07		 push	 7

; 74   : 	m_vMamaHahaEnemyAttachOffSet.z = rkLoader.LoadFloat_e( "mamahaha_enemy_attach_offset_z", 0.0f );

  0098d	c7 45 d8 80 8d
	86 8b		 mov	 DWORD PTR __k$673707[ebp], -1954116224 ; 8b868d80H
  00994	c7 45 dc 85 8d
	83 8b		 mov	 DWORD PTR __k$673707[ebp+4], -1954312827 ; 8b838d85H
  0099b	c7 45 e0 b2 89
	85 8f		 mov	 DWORD PTR __k$673707[ebp+8], -1887073870 ; 8f8589b2H
  009a2	c7 45 e4 80 95
	b4 8b		 mov	 DWORD PTR __k$673707[ebp+12], -1951099520 ; 8bb49580H
  009a9	c7 45 e8 99 98
	8a 89		 mov	 DWORD PTR __k$673707[ebp+16], -1987405671 ; 898a9899H
  009b0	c7 45 ec 85 b3
	84 8c		 mov	 DWORD PTR __k$673707[ebp+20], -1937460347 ; 8c84b385H
  009b7	c7 45 f0 8b 9f
	8e 9e		 mov	 DWORD PTR __k$673707[ebp+24], -1634820213 ; 9e8e9f8bH
  009be	66 c7 45 f4 b2
	96		 mov	 WORD PTR __k$673707[ebp+28], 38578 ; 000096b2H
  009c4	8d 45 d8	 lea	 eax, DWORD PTR __k$673707[ebp]
  009c7	88 5d f6	 mov	 BYTE PTR __k$673707[ebp+30], bl
  009ca	59		 pop	 ecx
$LL2028@LoadProper:
  009cb	81 30 ed ec eb
	ea		 xor	 DWORD PTR [eax], -353637139 ; eaebecedH
  009d1	83 c0 04	 add	 eax, 4
  009d4	49		 dec	 ecx
  009d5	75 f4		 jne	 SHORT $LL2028@LoadProper
  009d7	6a 1c		 push	 28			; 0000001cH
  009d9	58		 pop	 eax
$LL2025@LoadProper:
  009da	8b c8		 mov	 ecx, eax
  009dc	81 e1 03 00 00
	80		 and	 ecx, -2147483645	; 80000003H
  009e2	79 05		 jns	 SHORT $LN2122@LoadProper
  009e4	49		 dec	 ecx
  009e5	83 c9 fc	 or	 ecx, -4			; fffffffcH
  009e8	41		 inc	 ecx
$LN2122@LoadProper:
  009e9	b2 ed		 mov	 dl, -19			; ffffffedH
  009eb	2a d1		 sub	 dl, cl
  009ed	30 54 05 d8	 xor	 BYTE PTR __k$673707[ebp+eax], dl
  009f1	40		 inc	 eax
  009f2	83 f8 1e	 cmp	 eax, 30			; 0000001eH
  009f5	7c e3		 jl	 SHORT $LL2025@LoadProper
  009f7	0f 57 c0	 xorps	 xmm0, xmm0
  009fa	51		 push	 ecx
  009fb	8d 45 d8	 lea	 eax, DWORD PTR __k$673707[ebp]
  009fe	f3 0f 11 04 24	 movss	 DWORD PTR [esp], xmm0
  00a03	50		 push	 eax
  00a04	8b cf		 mov	 ecx, edi
  00a06	ff 15 00 00 00
	00		 call	 DWORD PTR __imp_?LoadFloat@ioINILoader@@QAEMPBDM@Z
  00a0c	d9 9e ec 14 00
	00		 fstp	 DWORD PTR [esi+5356]

; 75   : }

  00a12	8b 4d fc	 mov	 ecx, DWORD PTR __$ArrayPad$[ebp]
  00a15	5f		 pop	 edi
  00a16	5e		 pop	 esi
  00a17	33 cd		 xor	 ecx, ebp
  00a19	5b		 pop	 ebx
  00a1a	e8 00 00 00 00	 call	 @__security_check_cookie@4
  00a1f	c9		 leave
  00a20	c2 04 00	 ret	 4
?LoadProperty@ioMamaHahaDummy@@UAEXAAVioINILoader@@@Z ENDP ; ioMamaHahaDummy::LoadProperty
_TEXT	ENDS
PUBLIC	??C?$_Tree_iterator@V?$_Tree_val@V?$_Tmap_traits@HUtagDummyAttackInfo@@U?$less@H@std@@V?$allocator@U?$pair@$$CBHUtagDummyAttackInfo@@@std@@@3@$0A@@std@@@std@@@std@@QBEPAU?$pair@$$CBHUtagDummyAttackInfo@@@1@XZ ; std::_Tree_iterator<std::_Tree_val<std::_Tmap_traits<int,tagDummyAttackInfo,std::less<int>,std::allocator<std::pair<int const ,tagDummyAttackInfo> >,0> > >::operator->
; Function compile flags: /Ogsp
; File c:\program files (x86)\microsoft visual studio 10.0\vc\include\xtree
;	COMDAT ??C?$_Tree_iterator@V?$_Tree_val@V?$_Tmap_traits@HUtagDummyAttackInfo@@U?$less@H@std@@V?$allocator@U?$pair@$$CBHUtagDummyAttackInfo@@@std@@@3@$0A@@std@@@std@@@std@@QBEPAU?$pair@$$CBHUtagDummyAttackInfo@@@1@XZ
_TEXT	SEGMENT
??C?$_Tree_iterator@V?$_Tree_val@V?$_Tmap_traits@HUtagDummyAttackInfo@@U?$less@H@std@@V?$allocator@U?$pair@$$CBHUtagDummyAttackInfo@@@std@@@3@$0A@@std@@@std@@@std@@QBEPAU?$pair@$$CBHUtagDummyAttackInfo@@@1@XZ PROC ; std::_Tree_iterator<std::_Tree_val<std::_Tmap_traits<int,tagDummyAttackInfo,std::less<int>,std::allocator<std::pair<int const ,tagDummyAttackInfo> >,0> > >::operator->, COMDAT
; _this$ = ecx

; 401  : 		return (&**this);

  00000	8b 01		 mov	 eax, DWORD PTR [ecx]
  00002	83 c0 0c	 add	 eax, 12			; 0000000cH

; 402  : 		}

  00005	c3		 ret	 0
??C?$_Tree_iterator@V?$_Tree_val@V?$_Tmap_traits@HUtagDummyAttackInfo@@U?$less@H@std@@V?$allocator@U?$pair@$$CBHUtagDummyAttackInfo@@@std@@@3@$0A@@std@@@std@@@std@@QBEPAU?$pair@$$CBHUtagDummyAttackInfo@@@1@XZ ENDP ; std::_Tree_iterator<std::_Tree_val<std::_Tmap_traits<int,tagDummyAttackInfo,std::less<int>,std::allocator<std::pair<int const ,tagDummyAttackInfo> >,0> > >::operator->
_TEXT	ENDS
PUBLIC	??0?$vector@PBUAniEventTime@@V?$allocator@PBUAniEventTime@@@std@@@std@@QAE@XZ ; std::vector<AniEventTime const *,std::allocator<AniEventTime const *> >::vector<AniEventTime const *,std::allocator<AniEventTime const *> >
; Function compile flags: /Ogsp
; File c:\program files (x86)\microsoft visual studio 10.0\vc\include\vector
;	COMDAT ??0?$vector@PBUAniEventTime@@V?$allocator@PBUAniEventTime@@@std@@@std@@QAE@XZ
_TEXT	SEGMENT
??0?$vector@PBUAniEventTime@@V?$allocator@PBUAniEventTime@@@std@@@std@@QAE@XZ PROC ; std::vector<AniEventTime const *,std::allocator<AniEventTime const *> >::vector<AniEventTime const *,std::allocator<AniEventTime const *> >, COMDAT
; _this$ = ecx

; 507  : 		{	// construct empty vector

  00000	8b c1		 mov	 eax, ecx
  00002	33 c9		 xor	 ecx, ecx
  00004	89 08		 mov	 DWORD PTR [eax], ecx
  00006	89 48 04	 mov	 DWORD PTR [eax+4], ecx
  00009	89 48 08	 mov	 DWORD PTR [eax+8], ecx

; 508  : 		}

  0000c	c3		 ret	 0
??0?$vector@PBUAniEventTime@@V?$allocator@PBUAniEventTime@@@std@@@std@@QAE@XZ ENDP ; std::vector<AniEventTime const *,std::allocator<AniEventTime const *> >::vector<AniEventTime const *,std::allocator<AniEventTime const *> >
_TEXT	ENDS
PUBLIC	?begin@?$vector@PBUAniEventTime@@V?$allocator@PBUAniEventTime@@@std@@@std@@QAE?AV?$_Vector_iterator@V?$_Vector_val@PBUAniEventTime@@V?$allocator@PBUAniEventTime@@@std@@@std@@@2@XZ ; std::vector<AniEventTime const *,std::allocator<AniEventTime const *> >::begin
; Function compile flags: /Ogsp
;	COMDAT ?begin@?$vector@PBUAniEventTime@@V?$allocator@PBUAniEventTime@@@std@@@std@@QAE?AV?$_Vector_iterator@V?$_Vector_val@PBUAniEventTime@@V?$allocator@PBUAniEventTime@@@std@@@std@@@2@XZ
_TEXT	SEGMENT
___$ReturnUdt$ = 8					; size = 4
?begin@?$vector@PBUAniEventTime@@V?$allocator@PBUAniEventTime@@@std@@@std@@QAE?AV?$_Vector_iterator@V?$_Vector_val@PBUAniEventTime@@V?$allocator@PBUAniEventTime@@@std@@@std@@@2@XZ PROC ; std::vector<AniEventTime const *,std::allocator<AniEventTime const *> >::begin, COMDAT
; _this$ = ecx

; 781  : 		{	// return iterator for beginning of mutable sequence

  00000	55		 push	 ebp
  00001	8b ec		 mov	 ebp, esp

; 782  : 		return (iterator(this->_Myfirst, this));

  00003	8b 09		 mov	 ecx, DWORD PTR [ecx]
  00005	8b 45 08	 mov	 eax, DWORD PTR ___$ReturnUdt$[ebp]
  00008	89 08		 mov	 DWORD PTR [eax], ecx

; 783  : 		}

  0000a	5d		 pop	 ebp
  0000b	c2 04 00	 ret	 4
?begin@?$vector@PBUAniEventTime@@V?$allocator@PBUAniEventTime@@@std@@@std@@QAE?AV?$_Vector_iterator@V?$_Vector_val@PBUAniEventTime@@V?$allocator@PBUAniEventTime@@@std@@@std@@@2@XZ ENDP ; std::vector<AniEventTime const *,std::allocator<AniEventTime const *> >::begin
_TEXT	ENDS
PUBLIC	?end@?$vector@PBUAniEventTime@@V?$allocator@PBUAniEventTime@@@std@@@std@@QAE?AV?$_Vector_iterator@V?$_Vector_val@PBUAniEventTime@@V?$allocator@PBUAniEventTime@@@std@@@std@@@2@XZ ; std::vector<AniEventTime const *,std::allocator<AniEventTime const *> >::end
; Function compile flags: /Ogsp
;	COMDAT ?end@?$vector@PBUAniEventTime@@V?$allocator@PBUAniEventTime@@@std@@@std@@QAE?AV?$_Vector_iterator@V?$_Vector_val@PBUAniEventTime@@V?$allocator@PBUAniEventTime@@@std@@@std@@@2@XZ
_TEXT	SEGMENT
___$ReturnUdt$ = 8					; size = 4
?end@?$vector@PBUAniEventTime@@V?$allocator@PBUAniEventTime@@@std@@@std@@QAE?AV?$_Vector_iterator@V?$_Vector_val@PBUAniEventTime@@V?$allocator@PBUAniEventTime@@@std@@@std@@@2@XZ PROC ; std::vector<AniEventTime const *,std::allocator<AniEventTime const *> >::end, COMDAT
; _this$ = ecx

; 791  : 		{	// return iterator for end of mutable sequence

  00000	55		 push	 ebp
  00001	8b ec		 mov	 ebp, esp

; 792  : 		return (iterator(this->_Mylast, this));

  00003	8b 49 04	 mov	 ecx, DWORD PTR [ecx+4]
  00006	8b 45 08	 mov	 eax, DWORD PTR ___$ReturnUdt$[ebp]
  00009	89 08		 mov	 DWORD PTR [eax], ecx

; 793  : 		}

  0000b	5d		 pop	 ebp
  0000c	c2 04 00	 ret	 4
?end@?$vector@PBUAniEventTime@@V?$allocator@PBUAniEventTime@@@std@@@std@@QAE?AV?$_Vector_iterator@V?$_Vector_val@PBUAniEventTime@@V?$allocator@PBUAniEventTime@@@std@@@std@@@2@XZ ENDP ; std::vector<AniEventTime const *,std::allocator<AniEventTime const *> >::end
_TEXT	ENDS
PUBLIC	??9?$_Vector_const_iterator@V?$_Vector_val@PBUAniEventTime@@V?$allocator@PBUAniEventTime@@@std@@@std@@@std@@QBE_NABV01@@Z ; std::_Vector_const_iterator<std::_Vector_val<AniEventTime const *,std::allocator<AniEventTime const *> > >::operator!=
; Function compile flags: /Ogsp
;	COMDAT ??9?$_Vector_const_iterator@V?$_Vector_val@PBUAniEventTime@@V?$allocator@PBUAniEventTime@@@std@@@std@@@std@@QBE_NABV01@@Z
_TEXT	SEGMENT
__Right$ = 8						; size = 4
??9?$_Vector_const_iterator@V?$_Vector_val@PBUAniEventTime@@V?$allocator@PBUAniEventTime@@@std@@@std@@@std@@QBE_NABV01@@Z PROC ; std::_Vector_const_iterator<std::_Vector_val<AniEventTime const *,std::allocator<AniEventTime const *> > >::operator!=, COMDAT
; _this$ = ecx

; 207  : 		{	// test for iterator inequality

  00000	55		 push	 ebp
  00001	8b ec		 mov	 ebp, esp

; 208  : 		return (!(*this == _Right));

  00003	8b 01		 mov	 eax, DWORD PTR [ecx]
  00005	8b 55 08	 mov	 edx, DWORD PTR __Right$[ebp]
  00008	33 c9		 xor	 ecx, ecx
  0000a	3b 02		 cmp	 eax, DWORD PTR [edx]
  0000c	0f 95 c0	 setne	 al

; 209  : 		}

  0000f	5d		 pop	 ebp
  00010	c2 04 00	 ret	 4
??9?$_Vector_const_iterator@V?$_Vector_val@PBUAniEventTime@@V?$allocator@PBUAniEventTime@@@std@@@std@@@std@@QBE_NABV01@@Z ENDP ; std::_Vector_const_iterator<std::_Vector_val<AniEventTime const *,std::allocator<AniEventTime const *> > >::operator!=
_TEXT	ENDS
PUBLIC	??D?$_List_iterator@V?$_List_val@MV?$allocator@M@std@@@std@@@std@@QBEAAMXZ ; std::_List_iterator<std::_List_val<float,std::allocator<float> > >::operator*
; Function compile flags: /Ogsp
; File c:\program files (x86)\microsoft visual studio 10.0\vc\include\list
;	COMDAT ??D?$_List_iterator@V?$_List_val@MV?$allocator@M@std@@@std@@@std@@QBEAAMXZ
_TEXT	SEGMENT
??D?$_List_iterator@V?$_List_val@MV?$allocator@M@std@@@std@@@std@@QBEAAMXZ PROC ; std::_List_iterator<std::_List_val<float,std::allocator<float> > >::operator*, COMDAT
; _this$ = ecx

; 360  : 		return ((reference)**(_Mybase *)this);

  00000	8b 01		 mov	 eax, DWORD PTR [ecx]
  00002	83 c0 08	 add	 eax, 8

; 361  : 		}

  00005	c3		 ret	 0
??D?$_List_iterator@V?$_List_val@MV?$allocator@M@std@@@std@@@std@@QBEAAMXZ ENDP ; std::_List_iterator<std::_List_val<float,std::allocator<float> > >::operator*
_TEXT	ENDS
PUBLIC	??D?$_List_iterator@V?$_List_val@UFireTime@@V?$allocator@UFireTime@@@std@@@std@@@std@@QBEAAUFireTime@@XZ ; std::_List_iterator<std::_List_val<FireTime,std::allocator<FireTime> > >::operator*
; Function compile flags: /Ogsp
;	COMDAT ??D?$_List_iterator@V?$_List_val@UFireTime@@V?$allocator@UFireTime@@@std@@@std@@@std@@QBEAAUFireTime@@XZ
_TEXT	SEGMENT
??D?$_List_iterator@V?$_List_val@UFireTime@@V?$allocator@UFireTime@@@std@@@std@@@std@@QBEAAUFireTime@@XZ PROC ; std::_List_iterator<std::_List_val<FireTime,std::allocator<FireTime> > >::operator*, COMDAT
; _this$ = ecx

; 360  : 		return ((reference)**(_Mybase *)this);

  00000	8b 01		 mov	 eax, DWORD PTR [ecx]
  00002	83 c0 08	 add	 eax, 8

; 361  : 		}

  00005	c3		 ret	 0
??D?$_List_iterator@V?$_List_val@UFireTime@@V?$allocator@UFireTime@@@std@@@std@@@std@@QBEAAUFireTime@@XZ ENDP ; std::_List_iterator<std::_List_val<FireTime,std::allocator<FireTime> > >::operator*
_TEXT	ENDS
PUBLIC	?begin@?$vector@UExtraAniJump@@V?$allocator@UExtraAniJump@@@std@@@std@@QAE?AV?$_Vector_iterator@V?$_Vector_val@UExtraAniJump@@V?$allocator@UExtraAniJump@@@std@@@std@@@2@XZ ; std::vector<ExtraAniJump,std::allocator<ExtraAniJump> >::begin
; Function compile flags: /Ogsp
; File c:\program files (x86)\microsoft visual studio 10.0\vc\include\vector
;	COMDAT ?begin@?$vector@UExtraAniJump@@V?$allocator@UExtraAniJump@@@std@@@std@@QAE?AV?$_Vector_iterator@V?$_Vector_val@UExtraAniJump@@V?$allocator@UExtraAniJump@@@std@@@std@@@2@XZ
_TEXT	SEGMENT
___$ReturnUdt$ = 8					; size = 4
?begin@?$vector@UExtraAniJump@@V?$allocator@UExtraAniJump@@@std@@@std@@QAE?AV?$_Vector_iterator@V?$_Vector_val@UExtraAniJump@@V?$allocator@UExtraAniJump@@@std@@@std@@@2@XZ PROC ; std::vector<ExtraAniJump,std::allocator<ExtraAniJump> >::begin, COMDAT
; _this$ = ecx

; 781  : 		{	// return iterator for beginning of mutable sequence

  00000	55		 push	 ebp
  00001	8b ec		 mov	 ebp, esp

; 782  : 		return (iterator(this->_Myfirst, this));

  00003	8b 09		 mov	 ecx, DWORD PTR [ecx]
  00005	8b 45 08	 mov	 eax, DWORD PTR ___$ReturnUdt$[ebp]
  00008	89 08		 mov	 DWORD PTR [eax], ecx

; 783  : 		}

  0000a	5d		 pop	 ebp
  0000b	c2 04 00	 ret	 4
?begin@?$vector@UExtraAniJump@@V?$allocator@UExtraAniJump@@@std@@@std@@QAE?AV?$_Vector_iterator@V?$_Vector_val@UExtraAniJump@@V?$allocator@UExtraAniJump@@@std@@@std@@@2@XZ ENDP ; std::vector<ExtraAniJump,std::allocator<ExtraAniJump> >::begin
_TEXT	ENDS
PUBLIC	?end@?$vector@UExtraAniJump@@V?$allocator@UExtraAniJump@@@std@@@std@@QAE?AV?$_Vector_iterator@V?$_Vector_val@UExtraAniJump@@V?$allocator@UExtraAniJump@@@std@@@std@@@2@XZ ; std::vector<ExtraAniJump,std::allocator<ExtraAniJump> >::end
; Function compile flags: /Ogsp
;	COMDAT ?end@?$vector@UExtraAniJump@@V?$allocator@UExtraAniJump@@@std@@@std@@QAE?AV?$_Vector_iterator@V?$_Vector_val@UExtraAniJump@@V?$allocator@UExtraAniJump@@@std@@@std@@@2@XZ
_TEXT	SEGMENT
___$ReturnUdt$ = 8					; size = 4
?end@?$vector@UExtraAniJump@@V?$allocator@UExtraAniJump@@@std@@@std@@QAE?AV?$_Vector_iterator@V?$_Vector_val@UExtraAniJump@@V?$allocator@UExtraAniJump@@@std@@@std@@@2@XZ PROC ; std::vector<ExtraAniJump,std::allocator<ExtraAniJump> >::end, COMDAT
; _this$ = ecx

; 791  : 		{	// return iterator for end of mutable sequence

  00000	55		 push	 ebp
  00001	8b ec		 mov	 ebp, esp

; 792  : 		return (iterator(this->_Mylast, this));

  00003	8b 49 04	 mov	 ecx, DWORD PTR [ecx+4]
  00006	8b 45 08	 mov	 eax, DWORD PTR ___$ReturnUdt$[ebp]
  00009	89 08		 mov	 DWORD PTR [eax], ecx

; 793  : 		}

  0000b	5d		 pop	 ebp
  0000c	c2 04 00	 ret	 4
?end@?$vector@UExtraAniJump@@V?$allocator@UExtraAniJump@@@std@@@std@@QAE?AV?$_Vector_iterator@V?$_Vector_val@UExtraAniJump@@V?$allocator@UExtraAniJump@@@std@@@std@@@2@XZ ENDP ; std::vector<ExtraAniJump,std::allocator<ExtraAniJump> >::end
_TEXT	ENDS
PUBLIC	??0?$_List_val@MV?$allocator@M@std@@@std@@QAE@V?$allocator@M@1@@Z ; std::_List_val<float,std::allocator<float> >::_List_val<float,std::allocator<float> >
; Function compile flags: /Ogsp
; File c:\program files (x86)\microsoft visual studio 10.0\vc\include\list
;	COMDAT ??0?$_List_val@MV?$allocator@M@std@@@std@@QAE@V?$allocator@M@1@@Z
_TEXT	SEGMENT
$T674010 = -16						; size = 12
$T673994 = -4						; size = 4
__Al$ = 8						; size = 1
??0?$_List_val@MV?$allocator@M@std@@@std@@QAE@V?$allocator@M@1@@Z PROC ; std::_List_val<float,std::allocator<float> >::_List_val<float,std::allocator<float> >, COMDAT
; _this$ = ecx

; 493  : 		{	// construct base, and allocator from _Al

  00000	55		 push	 ebp
  00001	8b ec		 mov	 ebp, esp
  00003	83 ec 10	 sub	 esp, 16			; 00000010H
  00006	56		 push	 esi
  00007	8b f1		 mov	 esi, ecx

; 494  : 		this->_Mysize = 0;

  00009	83 66 04 00	 and	 DWORD PTR [esi+4], 0

; 495  : 		this->_Myhead = this->_Alnod.allocate(1);

  0000d	6a 0c		 push	 12			; 0000000cH
  0000f	e8 00 00 00 00	 call	 ??2@YAPAXI@Z		; operator new
  00014	59		 pop	 ecx
  00015	85 c0		 test	 eax, eax
  00017	74 10		 je	 SHORT $LN13@List_val
  00019	89 06		 mov	 DWORD PTR [esi], eax

; 496  : 		this->_Nextnode(this->_Myhead) = this->_Myhead;

  0001b	89 00		 mov	 DWORD PTR [eax], eax

; 497  : 		this->_Prevnode(this->_Myhead) = this->_Myhead;

  0001d	8b 06		 mov	 eax, DWORD PTR [esi]
  0001f	89 40 04	 mov	 DWORD PTR [eax+4], eax

; 498  : 		}

  00022	8b c6		 mov	 eax, esi
  00024	5e		 pop	 esi
  00025	c9		 leave
  00026	c2 04 00	 ret	 4

; 495  : 		this->_Myhead = this->_Alnod.allocate(1);

$LN13@List_val:
  00029	83 65 fc 00	 and	 DWORD PTR $T673994[ebp], 0
  0002d	8d 45 fc	 lea	 eax, DWORD PTR $T673994[ebp]
  00030	50		 push	 eax
  00031	8d 4d f0	 lea	 ecx, DWORD PTR $T674010[ebp]
  00034	ff 15 00 00 00
	00		 call	 DWORD PTR __imp_??0exception@std@@QAE@ABQBD@Z
  0003a	68 00 00 00 00	 push	 OFFSET __TI2?AVbad_alloc@std@@
  0003f	8d 45 f0	 lea	 eax, DWORD PTR $T674010[ebp]
  00042	50		 push	 eax
  00043	c7 45 f0 00 00
	00 00		 mov	 DWORD PTR $T674010[ebp], OFFSET ??_7bad_alloc@std@@6B@
  0004a	e8 00 00 00 00	 call	 __CxxThrowException@8
$LN29@List_val:
$LN28@List_val:
  0004f	cc		 int	 3
??0?$_List_val@MV?$allocator@M@std@@@std@@QAE@V?$allocator@M@1@@Z ENDP ; std::_List_val<float,std::allocator<float> >::_List_val<float,std::allocator<float> >
_TEXT	ENDS
PUBLIC	??0?$_Tree_iterator@V?$_Tree_val@V?$_Tmap_traits@HUtagDummyAttackInfo@@U?$less@H@std@@V?$allocator@U?$pair@$$CBHUtagDummyAttackInfo@@@std@@@3@$0A@@std@@@std@@@std@@QAE@PAU_Node@?$_Tree_nod@V?$_Tmap_traits@HUtagDummyAttackInfo@@U?$less@H@std@@V?$allocator@U?$pair@$$CBHUtagDummyAttackInfo@@@std@@@3@$0A@@std@@@1@PBV?$_Tree_val@V?$_Tmap_traits@HUtagDummyAttackInfo@@U?$less@H@std@@V?$allocator@U?$pair@$$CBHUtagDummyAttackInfo@@@std@@@3@$0A@@std@@@1@@Z ; std::_Tree_iterator<std::_Tree_val<std::_Tmap_traits<int,tagDummyAttackInfo,std::less<int>,std::allocator<std::pair<int const ,tagDummyAttackInfo> >,0> > >::_Tree_iterator<std::_Tree_val<std::_Tmap_traits<int,tagDummyAttackInfo,std::less<int>,std::allocator<std::pair<int const ,tagDummyAttackInfo> >,0> > >
; Function compile flags: /Ogsp
; File c:\program files (x86)\microsoft visual studio 10.0\vc\include\xtree
;	COMDAT ??0?$_Tree_iterator@V?$_Tree_val@V?$_Tmap_traits@HUtagDummyAttackInfo@@U?$less@H@std@@V?$allocator@U?$pair@$$CBHUtagDummyAttackInfo@@@std@@@3@$0A@@std@@@std@@@std@@QAE@PAU_Node@?$_Tree_nod@V?$_Tmap_traits@HUtagDummyAttackInfo@@U?$less@H@std@@V?$allocator@U?$pair@$$CBHUtagDummyAttackInfo@@@std@@@3@$0A@@std@@@1@PBV?$_Tree_val@V?$_Tmap_traits@HUtagDummyAttackInfo@@U?$less@H@std@@V?$allocator@U?$pair@$$CBHUtagDummyAttackInfo@@@std@@@3@$0A@@std@@@1@@Z
_TEXT	SEGMENT
__Pnode$ = 8						; size = 4
__Plist$ = 12						; size = 4
??0?$_Tree_iterator@V?$_Tree_val@V?$_Tmap_traits@HUtagDummyAttackInfo@@U?$less@H@std@@V?$allocator@U?$pair@$$CBHUtagDummyAttackInfo@@@std@@@3@$0A@@std@@@std@@@std@@QAE@PAU_Node@?$_Tree_nod@V?$_Tmap_traits@HUtagDummyAttackInfo@@U?$less@H@std@@V?$allocator@U?$pair@$$CBHUtagDummyAttackInfo@@@std@@@3@$0A@@std@@@1@PBV?$_Tree_val@V?$_Tmap_traits@HUtagDummyAttackInfo@@U?$less@H@std@@V?$allocator@U?$pair@$$CBHUtagDummyAttackInfo@@@std@@@3@$0A@@std@@@1@@Z PROC ; std::_Tree_iterator<std::_Tree_val<std::_Tmap_traits<int,tagDummyAttackInfo,std::less<int>,std::allocator<std::pair<int const ,tagDummyAttackInfo> >,0> > >::_Tree_iterator<std::_Tree_val<std::_Tmap_traits<int,tagDummyAttackInfo,std::less<int>,std::allocator<std::pair<int const ,tagDummyAttackInfo> >,0> > >, COMDAT
; _this$ = ecx

; 378  : 		{	// construct with node pointer _Pnode

  00000	55		 push	 ebp
  00001	8b ec		 mov	 ebp, esp
  00003	8b c1		 mov	 eax, ecx
  00005	8b 4d 08	 mov	 ecx, DWORD PTR __Pnode$[ebp]
  00008	89 08		 mov	 DWORD PTR [eax], ecx

; 379  : 		}

  0000a	5d		 pop	 ebp
  0000b	c2 08 00	 ret	 8
??0?$_Tree_iterator@V?$_Tree_val@V?$_Tmap_traits@HUtagDummyAttackInfo@@U?$less@H@std@@V?$allocator@U?$pair@$$CBHUtagDummyAttackInfo@@@std@@@3@$0A@@std@@@std@@@std@@QAE@PAU_Node@?$_Tree_nod@V?$_Tmap_traits@HUtagDummyAttackInfo@@U?$less@H@std@@V?$allocator@U?$pair@$$CBHUtagDummyAttackInfo@@@std@@@3@$0A@@std@@@1@PBV?$_Tree_val@V?$_Tmap_traits@HUtagDummyAttackInfo@@U?$less@H@std@@V?$allocator@U?$pair@$$CBHUtagDummyAttackInfo@@@std@@@3@$0A@@std@@@1@@Z ENDP ; std::_Tree_iterator<std::_Tree_val<std::_Tmap_traits<int,tagDummyAttackInfo,std::less<int>,std::allocator<std::pair<int const ,tagDummyAttackInfo> >,0> > >::_Tree_iterator<std::_Tree_val<std::_Tmap_traits<int,tagDummyAttackInfo,std::less<int>,std::allocator<std::pair<int const ,tagDummyAttackInfo> >,0> > >
_TEXT	ENDS
PUBLIC	??0?$_List_iterator@V?$_List_val@MV?$allocator@M@std@@@std@@@std@@QAE@PAU_Node@?$_List_nod@MV?$allocator@M@std@@@1@PBV?$_List_val@MV?$allocator@M@std@@@1@@Z ; std::_List_iterator<std::_List_val<float,std::allocator<float> > >::_List_iterator<std::_List_val<float,std::allocator<float> > >
; Function compile flags: /Ogsp
; File c:\program files (x86)\microsoft visual studio 10.0\vc\include\list
;	COMDAT ??0?$_List_iterator@V?$_List_val@MV?$allocator@M@std@@@std@@@std@@QAE@PAU_Node@?$_List_nod@MV?$allocator@M@std@@@1@PBV?$_List_val@MV?$allocator@M@std@@@1@@Z
_TEXT	SEGMENT
__Pnode$ = 8						; size = 4
__Plist$ = 12						; size = 4
??0?$_List_iterator@V?$_List_val@MV?$allocator@M@std@@@std@@@std@@QAE@PAU_Node@?$_List_nod@MV?$allocator@M@std@@@1@PBV?$_List_val@MV?$allocator@M@std@@@1@@Z PROC ; std::_List_iterator<std::_List_val<float,std::allocator<float> > >::_List_iterator<std::_List_val<float,std::allocator<float> > >, COMDAT
; _this$ = ecx

; 342  : 		{	// construct with node pointer _Pnode

  00000	55		 push	 ebp
  00001	8b ec		 mov	 ebp, esp
  00003	8b c1		 mov	 eax, ecx
  00005	8b 4d 08	 mov	 ecx, DWORD PTR __Pnode$[ebp]
  00008	89 08		 mov	 DWORD PTR [eax], ecx

; 343  : 		}

  0000a	5d		 pop	 ebp
  0000b	c2 08 00	 ret	 8
??0?$_List_iterator@V?$_List_val@MV?$allocator@M@std@@@std@@@std@@QAE@PAU_Node@?$_List_nod@MV?$allocator@M@std@@@1@PBV?$_List_val@MV?$allocator@M@std@@@1@@Z ENDP ; std::_List_iterator<std::_List_val<float,std::allocator<float> > >::_List_iterator<std::_List_val<float,std::allocator<float> > >
_TEXT	ENDS
PUBLIC	??0?$_List_iterator@V?$_List_val@UFireTime@@V?$allocator@UFireTime@@@std@@@std@@@std@@QAE@PAU_Node@?$_List_nod@UFireTime@@V?$allocator@UFireTime@@@std@@@1@PBV?$_List_val@UFireTime@@V?$allocator@UFireTime@@@std@@@1@@Z ; std::_List_iterator<std::_List_val<FireTime,std::allocator<FireTime> > >::_List_iterator<std::_List_val<FireTime,std::allocator<FireTime> > >
; Function compile flags: /Ogsp
;	COMDAT ??0?$_List_iterator@V?$_List_val@UFireTime@@V?$allocator@UFireTime@@@std@@@std@@@std@@QAE@PAU_Node@?$_List_nod@UFireTime@@V?$allocator@UFireTime@@@std@@@1@PBV?$_List_val@UFireTime@@V?$allocator@UFireTime@@@std@@@1@@Z
_TEXT	SEGMENT
__Pnode$ = 8						; size = 4
__Plist$ = 12						; size = 4
??0?$_List_iterator@V?$_List_val@UFireTime@@V?$allocator@UFireTime@@@std@@@std@@@std@@QAE@PAU_Node@?$_List_nod@UFireTime@@V?$allocator@UFireTime@@@std@@@1@PBV?$_List_val@UFireTime@@V?$allocator@UFireTime@@@std@@@1@@Z PROC ; std::_List_iterator<std::_List_val<FireTime,std::allocator<FireTime> > >::_List_iterator<std::_List_val<FireTime,std::allocator<FireTime> > >, COMDAT
; _this$ = ecx

; 342  : 		{	// construct with node pointer _Pnode

  00000	55		 push	 ebp
  00001	8b ec		 mov	 ebp, esp
  00003	8b c1		 mov	 eax, ecx
  00005	8b 4d 08	 mov	 ecx, DWORD PTR __Pnode$[ebp]
  00008	89 08		 mov	 DWORD PTR [eax], ecx

; 343  : 		}

  0000a	5d		 pop	 ebp
  0000b	c2 08 00	 ret	 8
??0?$_List_iterator@V?$_List_val@UFireTime@@V?$allocator@UFireTime@@@std@@@std@@@std@@QAE@PAU_Node@?$_List_nod@UFireTime@@V?$allocator@UFireTime@@@std@@@1@PBV?$_List_val@UFireTime@@V?$allocator@UFireTime@@@std@@@1@@Z ENDP ; std::_List_iterator<std::_List_val<FireTime,std::allocator<FireTime> > >::_List_iterator<std::_List_val<FireTime,std::allocator<FireTime> > >
_TEXT	ENDS
PUBLIC	?_Lbound@?$_Tree@V?$_Tmap_traits@HUtagDummyAttackInfo@@U?$less@H@std@@V?$allocator@U?$pair@$$CBHUtagDummyAttackInfo@@@std@@@3@$0A@@std@@@std@@IAEPAU_Node@?$_Tree_nod@V?$_Tmap_traits@HUtagDummyAttackInfo@@U?$less@H@std@@V?$allocator@U?$pair@$$CBHUtagDummyAttackInfo@@@std@@@3@$0A@@std@@@2@ABH@Z ; std::_Tree<std::_Tmap_traits<int,tagDummyAttackInfo,std::less<int>,std::allocator<std::pair<int const ,tagDummyAttackInfo> >,0> >::_Lbound
; Function compile flags: /Ogsp
; File c:\program files (x86)\microsoft visual studio 10.0\vc\include\xtree
;	COMDAT ?_Lbound@?$_Tree@V?$_Tmap_traits@HUtagDummyAttackInfo@@U?$less@H@std@@V?$allocator@U?$pair@$$CBHUtagDummyAttackInfo@@@std@@@3@$0A@@std@@@std@@IAEPAU_Node@?$_Tree_nod@V?$_Tmap_traits@HUtagDummyAttackInfo@@U?$less@H@std@@V?$allocator@U?$pair@$$CBHUtagDummyAttackInfo@@@std@@@3@$0A@@std@@@2@ABH@Z
_TEXT	SEGMENT
__Keyval$ = 8						; size = 4
?_Lbound@?$_Tree@V?$_Tmap_traits@HUtagDummyAttackInfo@@U?$less@H@std@@V?$allocator@U?$pair@$$CBHUtagDummyAttackInfo@@@std@@@3@$0A@@std@@@std@@IAEPAU_Node@?$_Tree_nod@V?$_Tmap_traits@HUtagDummyAttackInfo@@U?$less@H@std@@V?$allocator@U?$pair@$$CBHUtagDummyAttackInfo@@@std@@@3@$0A@@std@@@2@ABH@Z PROC ; std::_Tree<std::_Tmap_traits<int,tagDummyAttackInfo,std::less<int>,std::allocator<std::pair<int const ,tagDummyAttackInfo> >,0> >::_Lbound, COMDAT
; _this$ = ecx

; 1741 : 		{	// find leftmost node not less than _Keyval

  00000	55		 push	 ebp
  00001	8b ec		 mov	 ebp, esp

; 1742 : 		_Nodeptr _Pnode = _Root();

  00003	8b 41 04	 mov	 eax, DWORD PTR [ecx+4]
  00006	8b 48 04	 mov	 ecx, DWORD PTR [eax+4]

; 1743 : 		_Nodeptr _Wherenode = this->_Myhead;	// end() if search fails
; 1744 : 
; 1745 : 		while (!this->_Isnil(_Pnode))

  00009	80 79 65 00	 cmp	 BYTE PTR [ecx+101], 0
  0000d	75 19		 jne	 SHORT $LN3@Lbound
  0000f	8b 55 08	 mov	 edx, DWORD PTR __Keyval$[ebp]
  00012	8b 12		 mov	 edx, DWORD PTR [edx]
$LL4@Lbound:

; 1746 : 			if (_DEBUG_LT_PRED(this->comp, this->_Key(_Pnode), _Keyval))

  00014	39 51 0c	 cmp	 DWORD PTR [ecx+12], edx
  00017	7d 05		 jge	 SHORT $LN2@Lbound

; 1747 : 				_Pnode = this->_Right(_Pnode);	// descend right subtree

  00019	8b 49 08	 mov	 ecx, DWORD PTR [ecx+8]

; 1748 : 			else

  0001c	eb 04		 jmp	 SHORT $LN1@Lbound
$LN2@Lbound:

; 1749 : 				{	// _Pnode not less than _Keyval, remember it
; 1750 : 				_Wherenode = _Pnode;

  0001e	8b c1		 mov	 eax, ecx

; 1751 : 				_Pnode = this->_Left(_Pnode);	// descend left subtree

  00020	8b 09		 mov	 ecx, DWORD PTR [ecx]
$LN1@Lbound:

; 1743 : 		_Nodeptr _Wherenode = this->_Myhead;	// end() if search fails
; 1744 : 
; 1745 : 		while (!this->_Isnil(_Pnode))

  00022	80 79 65 00	 cmp	 BYTE PTR [ecx+101], 0
  00026	74 ec		 je	 SHORT $LL4@Lbound
$LN3@Lbound:

; 1752 : 				}
; 1753 : 
; 1754 : 		return (_Wherenode);	// return best remembered candidate
; 1755 : 		}

  00028	5d		 pop	 ebp
  00029	c2 04 00	 ret	 4
?_Lbound@?$_Tree@V?$_Tmap_traits@HUtagDummyAttackInfo@@U?$less@H@std@@V?$allocator@U?$pair@$$CBHUtagDummyAttackInfo@@@std@@@3@$0A@@std@@@std@@IAEPAU_Node@?$_Tree_nod@V?$_Tmap_traits@HUtagDummyAttackInfo@@U?$less@H@std@@V?$allocator@U?$pair@$$CBHUtagDummyAttackInfo@@@std@@@3@$0A@@std@@@2@ABH@Z ENDP ; std::_Tree<std::_Tmap_traits<int,tagDummyAttackInfo,std::less<int>,std::allocator<std::pair<int const ,tagDummyAttackInfo> >,0> >::_Lbound
_TEXT	ENDS
PUBLIC	??_C@_0BB@MOGOBHAF@list?$DMT?$DO?5too?5long?$AA@ ; `string'
PUBLIC	?_Incsize@?$list@UFireTime@@V?$allocator@UFireTime@@@std@@@std@@QAEXI@Z ; std::list<FireTime,std::allocator<FireTime> >::_Incsize
;	COMDAT ??_C@_0BB@MOGOBHAF@list?$DMT?$DO?5too?5long?$AA@
; File c:\program files (x86)\microsoft visual studio 10.0\vc\include\xmemory
CONST	SEGMENT
??_C@_0BB@MOGOBHAF@list?$DMT?$DO?5too?5long?$AA@ DB 'list<T> too long', 00H ; `string'
; Function compile flags: /Ogsp
; File c:\program files (x86)\microsoft visual studio 10.0\vc\include\list
CONST	ENDS
;	COMDAT ?_Incsize@?$list@UFireTime@@V?$allocator@UFireTime@@@std@@@std@@QAEXI@Z
_TEXT	SEGMENT
__Count$ = 8						; size = 4
?_Incsize@?$list@UFireTime@@V?$allocator@UFireTime@@@std@@@std@@QAEXI@Z PROC ; std::list<FireTime,std::allocator<FireTime> >::_Incsize, COMDAT
; _this$ = ecx

; 1519 : 		{	// alter element count, with checking

  00000	55		 push	 ebp
  00001	8b ec		 mov	 ebp, esp

; 1520 : 		if (max_size() - this->_Mysize - 1 < _Count)

  00003	8b 41 04	 mov	 eax, DWORD PTR [ecx+4]
  00006	8b 55 08	 mov	 edx, DWORD PTR __Count$[ebp]
  00009	56		 push	 esi
  0000a	be 2d ba e8 02	 mov	 esi, 48806445		; 02e8ba2dH
  0000f	2b f0		 sub	 esi, eax
  00011	3b f2		 cmp	 esi, edx
  00013	5e		 pop	 esi
  00014	73 0b		 jae	 SHORT $LN1@Incsize

; 1521 : 			_Xlength_error("list<T> too long");

  00016	68 00 00 00 00	 push	 OFFSET ??_C@_0BB@MOGOBHAF@list?$DMT?$DO?5too?5long?$AA@
  0001b	ff 15 00 00 00
	00		 call	 DWORD PTR __imp_?_Xlength_error@std@@YAXPBD@Z
$LN11@Incsize:
$LN1@Incsize:

; 1522 : 		this->_Mysize += _Count;

  00021	03 c2		 add	 eax, edx
  00023	89 41 04	 mov	 DWORD PTR [ecx+4], eax

; 1523 : 		}

  00026	5d		 pop	 ebp
  00027	c2 04 00	 ret	 4
$LN10@Incsize:
?_Incsize@?$list@UFireTime@@V?$allocator@UFireTime@@@std@@@std@@QAEXI@Z ENDP ; std::list<FireTime,std::allocator<FireTime> >::_Incsize
_TEXT	ENDS
PUBLIC	?_Make_iter@?$vector@UExtraAniJump@@V?$allocator@UExtraAniJump@@@std@@@std@@QBE?AV?$_Vector_iterator@V?$_Vector_val@UExtraAniJump@@V?$allocator@UExtraAniJump@@@std@@@std@@@2@V?$_Vector_const_iterator@V?$_Vector_val@UExtraAniJump@@V?$allocator@UExtraAniJump@@@std@@@std@@@2@@Z ; std::vector<ExtraAniJump,std::allocator<ExtraAniJump> >::_Make_iter
; Function compile flags: /Ogsp
; File c:\program files (x86)\microsoft visual studio 10.0\vc\include\vector
;	COMDAT ?_Make_iter@?$vector@UExtraAniJump@@V?$allocator@UExtraAniJump@@@std@@@std@@QBE?AV?$_Vector_iterator@V?$_Vector_val@UExtraAniJump@@V?$allocator@UExtraAniJump@@@std@@@std@@@2@V?$_Vector_const_iterator@V?$_Vector_val@UExtraAniJump@@V?$allocator@UExtraAniJump@@@std@@@std@@@2@@Z
_TEXT	SEGMENT
___$ReturnUdt$ = 8					; size = 4
__Where$ = 12						; size = 4
?_Make_iter@?$vector@UExtraAniJump@@V?$allocator@UExtraAniJump@@@std@@@std@@QBE?AV?$_Vector_iterator@V?$_Vector_val@UExtraAniJump@@V?$allocator@UExtraAniJump@@@std@@@std@@@2@V?$_Vector_const_iterator@V?$_Vector_val@UExtraAniJump@@V?$allocator@UExtraAniJump@@@std@@@std@@@2@@Z PROC ; std::vector<ExtraAniJump,std::allocator<ExtraAniJump> >::_Make_iter, COMDAT
; _this$ = ecx

; 801  : 		{	// make iterator from const_iterator

  00000	55		 push	 ebp
  00001	8b ec		 mov	 ebp, esp

; 802  : 		return (iterator(_Where._Ptr, this));

  00003	8b 45 08	 mov	 eax, DWORD PTR ___$ReturnUdt$[ebp]
  00006	8b 4d 0c	 mov	 ecx, DWORD PTR __Where$[ebp]
  00009	89 08		 mov	 DWORD PTR [eax], ecx

; 803  : 		}

  0000b	5d		 pop	 ebp
  0000c	c2 08 00	 ret	 8
?_Make_iter@?$vector@UExtraAniJump@@V?$allocator@UExtraAniJump@@@std@@@std@@QBE?AV?$_Vector_iterator@V?$_Vector_val@UExtraAniJump@@V?$allocator@UExtraAniJump@@@std@@@std@@@2@V?$_Vector_const_iterator@V?$_Vector_val@UExtraAniJump@@V?$allocator@UExtraAniJump@@@std@@@std@@@2@@Z ENDP ; std::vector<ExtraAniJump,std::allocator<ExtraAniJump> >::_Make_iter
_TEXT	ENDS
PUBLIC	?_Destroy@?$vector@PBUAniEventTime@@V?$allocator@PBUAniEventTime@@@std@@@std@@IAEXPAPBUAniEventTime@@0@Z ; std::vector<AniEventTime const *,std::allocator<AniEventTime const *> >::_Destroy
; Function compile flags: /Ogsp
;	COMDAT ?_Destroy@?$vector@PBUAniEventTime@@V?$allocator@PBUAniEventTime@@@std@@@std@@IAEXPAPBUAniEventTime@@0@Z
_TEXT	SEGMENT
__First$ = 8						; size = 4
__Last$ = 12						; size = 4
?_Destroy@?$vector@PBUAniEventTime@@V?$allocator@PBUAniEventTime@@@std@@@std@@IAEXPAPBUAniEventTime@@0@Z PROC ; std::vector<AniEventTime const *,std::allocator<AniEventTime const *> >::_Destroy, COMDAT
; _this$ = ecx

; 1270 : 		_Destroy_range(_First, _Last, this->_Alval);
; 1271 : 		}

  00000	c2 08 00	 ret	 8
?_Destroy@?$vector@PBUAniEventTime@@V?$allocator@PBUAniEventTime@@@std@@@std@@IAEXPAPBUAniEventTime@@0@Z ENDP ; std::vector<AniEventTime const *,std::allocator<AniEventTime const *> >::_Destroy
_TEXT	ENDS
PUBLIC	??9?$_Vector_const_iterator@V?$_Vector_val@UExtraAniJump@@V?$allocator@UExtraAniJump@@@std@@@std@@@std@@QBE_NABV01@@Z ; std::_Vector_const_iterator<std::_Vector_val<ExtraAniJump,std::allocator<ExtraAniJump> > >::operator!=
; Function compile flags: /Ogsp
;	COMDAT ??9?$_Vector_const_iterator@V?$_Vector_val@UExtraAniJump@@V?$allocator@UExtraAniJump@@@std@@@std@@@std@@QBE_NABV01@@Z
_TEXT	SEGMENT
__Right$ = 8						; size = 4
??9?$_Vector_const_iterator@V?$_Vector_val@UExtraAniJump@@V?$allocator@UExtraAniJump@@@std@@@std@@@std@@QBE_NABV01@@Z PROC ; std::_Vector_const_iterator<std::_Vector_val<ExtraAniJump,std::allocator<ExtraAniJump> > >::operator!=, COMDAT
; _this$ = ecx

; 207  : 		{	// test for iterator inequality

  00000	55		 push	 ebp
  00001	8b ec		 mov	 ebp, esp

; 208  : 		return (!(*this == _Right));

  00003	8b 01		 mov	 eax, DWORD PTR [ecx]
  00005	8b 55 08	 mov	 edx, DWORD PTR __Right$[ebp]
  00008	33 c9		 xor	 ecx, ecx
  0000a	3b 02		 cmp	 eax, DWORD PTR [edx]
  0000c	0f 95 c0	 setne	 al

; 209  : 		}

  0000f	5d		 pop	 ebp
  00010	c2 04 00	 ret	 4
??9?$_Vector_const_iterator@V?$_Vector_val@UExtraAniJump@@V?$allocator@UExtraAniJump@@@std@@@std@@@std@@QBE_NABV01@@Z ENDP ; std::_Vector_const_iterator<std::_Vector_val<ExtraAniJump,std::allocator<ExtraAniJump> > >::operator!=
_TEXT	ENDS
PUBLIC	??$_Cons_val@V?$allocator@H@std@@HAAH@std@@YAXAAV?$allocator@H@0@PAHAAH@Z ; std::_Cons_val<std::allocator<int>,int,int &>
; Function compile flags: /Ogsp
; File c:\program files (x86)\microsoft visual studio 10.0\vc\include\xmemory
;	COMDAT ??$_Cons_val@V?$allocator@H@std@@HAAH@std@@YAXAAV?$allocator@H@0@PAHAAH@Z
_TEXT	SEGMENT
__Alval$ = 8						; size = 4
__Pdest$ = 12						; size = 4
__Src$ = 16						; size = 4
??$_Cons_val@V?$allocator@H@std@@HAAH@std@@YAXAAV?$allocator@H@0@PAHAAH@Z PROC ; std::_Cons_val<std::allocator<int>,int,int &>, COMDAT

; 279  : 	{	// construct using allocator

  00000	55		 push	 ebp
  00001	8b ec		 mov	 ebp, esp

; 280  : 	_Alval.construct(_Pdest, _STD forward<_Ty2>(_Src));

  00003	8b 45 0c	 mov	 eax, DWORD PTR __Pdest$[ebp]
  00006	85 c0		 test	 eax, eax
  00008	74 07		 je	 SHORT $LN7@Cons_val@2
  0000a	8b 4d 10	 mov	 ecx, DWORD PTR __Src$[ebp]
  0000d	8b 09		 mov	 ecx, DWORD PTR [ecx]
  0000f	89 08		 mov	 DWORD PTR [eax], ecx
$LN7@Cons_val@2:

; 281  : 	}

  00011	5d		 pop	 ebp
  00012	c3		 ret	 0
??$_Cons_val@V?$allocator@H@std@@HAAH@std@@YAXAAV?$allocator@H@0@PAHAAH@Z ENDP ; std::_Cons_val<std::allocator<int>,int,int &>
_TEXT	ENDS
PUBLIC	??$_Cons_val@V?$allocator@H@std@@HABH@std@@YAXAAV?$allocator@H@0@PAHABH@Z ; std::_Cons_val<std::allocator<int>,int,int const &>
; Function compile flags: /Ogsp
;	COMDAT ??$_Cons_val@V?$allocator@H@std@@HABH@std@@YAXAAV?$allocator@H@0@PAHABH@Z
_TEXT	SEGMENT
__Alval$ = 8						; size = 4
__Pdest$ = 12						; size = 4
__Src$ = 16						; size = 4
??$_Cons_val@V?$allocator@H@std@@HABH@std@@YAXAAV?$allocator@H@0@PAHABH@Z PROC ; std::_Cons_val<std::allocator<int>,int,int const &>, COMDAT

; 279  : 	{	// construct using allocator

  00000	55		 push	 ebp
  00001	8b ec		 mov	 ebp, esp

; 280  : 	_Alval.construct(_Pdest, _STD forward<_Ty2>(_Src));

  00003	8b 45 0c	 mov	 eax, DWORD PTR __Pdest$[ebp]
  00006	85 c0		 test	 eax, eax
  00008	74 07		 je	 SHORT $LN9@Cons_val@3
  0000a	8b 4d 10	 mov	 ecx, DWORD PTR __Src$[ebp]
  0000d	8b 09		 mov	 ecx, DWORD PTR [ecx]
  0000f	89 08		 mov	 DWORD PTR [eax], ecx
$LN9@Cons_val@3:

; 281  : 	}

  00011	5d		 pop	 ebp
  00012	c3		 ret	 0
??$_Cons_val@V?$allocator@H@std@@HABH@std@@YAXAAV?$allocator@H@0@PAHABH@Z ENDP ; std::_Cons_val<std::allocator<int>,int,int const &>
_TEXT	ENDS
PUBLIC	??$_Cons_val@V?$allocator@UExtraAniJump@@@std@@UExtraAniJump@@ABU3@@std@@YAXAAV?$allocator@UExtraAniJump@@@0@PAUExtraAniJump@@ABU2@@Z ; std::_Cons_val<std::allocator<ExtraAniJump>,ExtraAniJump,ExtraAniJump const &>
; Function compile flags: /Ogsp
;	COMDAT ??$_Cons_val@V?$allocator@UExtraAniJump@@@std@@UExtraAniJump@@ABU3@@std@@YAXAAV?$allocator@UExtraAniJump@@@0@PAUExtraAniJump@@ABU2@@Z
_TEXT	SEGMENT
__Alval$ = 8						; size = 4
__Pdest$ = 12						; size = 4
__Src$ = 16						; size = 4
??$_Cons_val@V?$allocator@UExtraAniJump@@@std@@UExtraAniJump@@ABU3@@std@@YAXAAV?$allocator@UExtraAniJump@@@0@PAUExtraAniJump@@ABU2@@Z PROC ; std::_Cons_val<std::allocator<ExtraAniJump>,ExtraAniJump,ExtraAniJump const &>, COMDAT

; 279  : 	{	// construct using allocator

  00000	55		 push	 ebp
  00001	8b ec		 mov	 ebp, esp

; 280  : 	_Alval.construct(_Pdest, _STD forward<_Ty2>(_Src));

  00003	8b 45 0c	 mov	 eax, DWORD PTR __Pdest$[ebp]
  00006	85 c0		 test	 eax, eax
  00008	74 0d		 je	 SHORT $LN9@Cons_val@4
  0000a	8b 4d 10	 mov	 ecx, DWORD PTR __Src$[ebp]
  0000d	8b 11		 mov	 edx, DWORD PTR [ecx]
  0000f	89 10		 mov	 DWORD PTR [eax], edx
  00011	8b 49 04	 mov	 ecx, DWORD PTR [ecx+4]
  00014	89 48 04	 mov	 DWORD PTR [eax+4], ecx
$LN9@Cons_val@4:

; 281  : 	}

  00017	5d		 pop	 ebp
  00018	c3		 ret	 0
??$_Cons_val@V?$allocator@UExtraAniJump@@@std@@UExtraAniJump@@ABU3@@std@@YAXAAV?$allocator@UExtraAniJump@@@0@PAUExtraAniJump@@ABU2@@Z ENDP ; std::_Cons_val<std::allocator<ExtraAniJump>,ExtraAniJump,ExtraAniJump const &>
_TEXT	ENDS
PUBLIC	??$_Move@PAUExtraAniJump@@PAU1@@std@@YAPAUExtraAniJump@@PAU1@00@Z ; std::_Move<ExtraAniJump *,ExtraAniJump *>
; Function compile flags: /Ogsp
; File c:\program files (x86)\microsoft visual studio 10.0\vc\include\xutility
;	COMDAT ??$_Move@PAUExtraAniJump@@PAU1@@std@@YAPAUExtraAniJump@@PAU1@00@Z
_TEXT	SEGMENT
__Cat$674300 = -4					; size = 1
__First$ = 8						; size = 4
__Last$ = 12						; size = 4
__Dest$ = 16						; size = 4
??$_Move@PAUExtraAniJump@@PAU1@@std@@YAPAUExtraAniJump@@PAU1@00@Z PROC ; std::_Move<ExtraAniJump *,ExtraAniJump *>, COMDAT

; 2533 : 	{	// move [_First, _Last) to [_Dest, ...), unchecked

  00000	55		 push	 ebp
  00001	8b ec		 mov	 ebp, esp
  00003	51		 push	 ecx

; 2534 : 	return (_Move(_First, _Last,
; 2535 : 		_Dest, _Ptr_cat(_First, _Dest)));

  00004	ff 75 fc	 push	 DWORD PTR __Cat$674300[ebp]
  00007	ff 75 10	 push	 DWORD PTR __Dest$[ebp]
  0000a	ff 75 0c	 push	 DWORD PTR __Last$[ebp]
  0000d	ff 75 08	 push	 DWORD PTR __First$[ebp]
  00010	e8 00 00 00 00	 call	 ??$_Move@PAUExtraAniJump@@PAU1@@std@@YAPAUExtraAniJump@@PAU1@00U_Nonscalar_ptr_iterator_tag@0@@Z ; std::_Move<ExtraAniJump *,ExtraAniJump *>
  00015	83 c4 10	 add	 esp, 16			; 00000010H

; 2536 : 	}

  00018	c9		 leave
  00019	c3		 ret	 0
??$_Move@PAUExtraAniJump@@PAU1@@std@@YAPAUExtraAniJump@@PAU1@00@Z ENDP ; std::_Move<ExtraAniJump *,ExtraAniJump *>
_TEXT	ENDS
PUBLIC	??$_Dest_val@V?$allocator@U_Node@?$_List_nod@MV?$allocator@M@std@@@std@@@std@@U_Node@?$_List_nod@MV?$allocator@M@std@@@2@@std@@YAXAAV?$allocator@U_Node@?$_List_nod@MV?$allocator@M@std@@@std@@@0@PAU_Node@?$_List_nod@MV?$allocator@M@std@@@0@@Z ; std::_Dest_val<std::allocator<std::_List_nod<float,std::allocator<float> >::_Node>,std::_List_nod<float,std::allocator<float> >::_Node>
; Function compile flags: /Ogsp
; File c:\program files (x86)\microsoft visual studio 10.0\vc\include\xmemory
;	COMDAT ??$_Dest_val@V?$allocator@U_Node@?$_List_nod@MV?$allocator@M@std@@@std@@@std@@U_Node@?$_List_nod@MV?$allocator@M@std@@@2@@std@@YAXAAV?$allocator@U_Node@?$_List_nod@MV?$allocator@M@std@@@std@@@0@PAU_Node@?$_List_nod@MV?$allocator@M@std@@@0@@Z
_TEXT	SEGMENT
__Alval$ = 8						; size = 4
__Pdest$ = 12						; size = 4
??$_Dest_val@V?$allocator@U_Node@?$_List_nod@MV?$allocator@M@std@@@std@@@std@@U_Node@?$_List_nod@MV?$allocator@M@std@@@2@@std@@YAXAAV?$allocator@U_Node@?$_List_nod@MV?$allocator@M@std@@@std@@@0@PAU_Node@?$_List_nod@MV?$allocator@M@std@@@0@@Z PROC ; std::_Dest_val<std::allocator<std::_List_nod<float,std::allocator<float> >::_Node>,std::_List_nod<float,std::allocator<float> >::_Node>, COMDAT

; 287  : 	_Alval.destroy(_Pdest);
; 288  : 	}

  00000	c3		 ret	 0
??$_Dest_val@V?$allocator@U_Node@?$_List_nod@MV?$allocator@M@std@@@std@@@std@@U_Node@?$_List_nod@MV?$allocator@M@std@@@2@@std@@YAXAAV?$allocator@U_Node@?$_List_nod@MV?$allocator@M@std@@@std@@@0@PAU_Node@?$_List_nod@MV?$allocator@M@std@@@0@@Z ENDP ; std::_Dest_val<std::allocator<std::_List_nod<float,std::allocator<float> >::_Node>,std::_List_nod<float,std::allocator<float> >::_Node>
_TEXT	ENDS
PUBLIC	?construct@?$allocator@UFireTime@@@std@@QAEXPAUFireTime@@ABU3@@Z ; std::allocator<FireTime>::construct
; Function compile flags: /Ogsp
;	COMDAT ?construct@?$allocator@UFireTime@@@std@@QAEXPAUFireTime@@ABU3@@Z
_TEXT	SEGMENT
__Ptr$ = 8						; size = 4
__Val$ = 12						; size = 4
?construct@?$allocator@UFireTime@@@std@@QAEXPAUFireTime@@ABU3@@Z PROC ; std::allocator<FireTime>::construct, COMDAT
; _this$ = ecx

; 196  : 		{	// construct object at _Ptr with value _Val

  00000	55		 push	 ebp
  00001	8b ec		 mov	 ebp, esp

; 197  : 		_Construct(_Ptr, _Val);

  00003	ff 75 0c	 push	 DWORD PTR __Val$[ebp]
  00006	ff 75 08	 push	 DWORD PTR __Ptr$[ebp]
  00009	e8 00 00 00 00	 call	 ??$_Construct@UFireTime@@ABU1@@std@@YAXPAUFireTime@@ABU1@@Z ; std::_Construct<FireTime,FireTime const &>
  0000e	59		 pop	 ecx
  0000f	59		 pop	 ecx

; 198  : 		}

  00010	5d		 pop	 ebp
  00011	c2 08 00	 ret	 8
?construct@?$allocator@UFireTime@@@std@@QAEXPAUFireTime@@ABU3@@Z ENDP ; std::allocator<FireTime>::construct
_TEXT	ENDS
PUBLIC	??$_Destroy@U_Node@?$_List_nod@UFireTime@@V?$allocator@UFireTime@@@std@@@std@@@std@@YAXPAU_Node@?$_List_nod@UFireTime@@V?$allocator@UFireTime@@@std@@@0@@Z ; std::_Destroy<std::_List_nod<FireTime,std::allocator<FireTime> >::_Node>
; Function compile flags: /Ogsp
;	COMDAT ??$_Destroy@U_Node@?$_List_nod@UFireTime@@V?$allocator@UFireTime@@@std@@@std@@@std@@YAXPAU_Node@?$_List_nod@UFireTime@@V?$allocator@UFireTime@@@std@@@0@@Z
_TEXT	SEGMENT
__Ptr$ = 8						; size = 4
??$_Destroy@U_Node@?$_List_nod@UFireTime@@V?$allocator@UFireTime@@@std@@@std@@@std@@YAXPAU_Node@?$_List_nod@UFireTime@@V?$allocator@UFireTime@@@std@@@0@@Z PROC ; std::_Destroy<std::_List_nod<FireTime,std::allocator<FireTime> >::_Node>, COMDAT

; 62   : 	{	// destroy object at _Ptr

  00000	55		 push	 ebp
  00001	8b ec		 mov	 ebp, esp

; 63   : 	_Ptr->~_Ty();

  00003	8b 4d 08	 mov	 ecx, DWORD PTR __Ptr$[ebp]
  00006	83 c1 08	 add	 ecx, 8

; 64   : 	}

  00009	5d		 pop	 ebp

; 63   : 	_Ptr->~_Ty();

  0000a	e9 00 00 00 00	 jmp	 ??1FireTime@@QAE@XZ
??$_Destroy@U_Node@?$_List_nod@UFireTime@@V?$allocator@UFireTime@@@std@@@std@@@std@@YAXPAU_Node@?$_List_nod@UFireTime@@V?$allocator@UFireTime@@@std@@@0@@Z ENDP ; std::_Destroy<std::_List_nod<FireTime,std::allocator<FireTime> >::_Node>
_TEXT	ENDS
PUBLIC	??$_Dest_val@V?$allocator@UExtraAniJump@@@std@@UExtraAniJump@@@std@@YAXAAV?$allocator@UExtraAniJump@@@0@PAUExtraAniJump@@@Z ; std::_Dest_val<std::allocator<ExtraAniJump>,ExtraAniJump>
; Function compile flags: /Ogsp
;	COMDAT ??$_Dest_val@V?$allocator@UExtraAniJump@@@std@@UExtraAniJump@@@std@@YAXAAV?$allocator@UExtraAniJump@@@0@PAUExtraAniJump@@@Z
_TEXT	SEGMENT
__Alval$ = 8						; size = 4
__Pdest$ = 12						; size = 4
??$_Dest_val@V?$allocator@UExtraAniJump@@@std@@UExtraAniJump@@@std@@YAXAAV?$allocator@UExtraAniJump@@@0@PAUExtraAniJump@@@Z PROC ; std::_Dest_val<std::allocator<ExtraAniJump>,ExtraAniJump>, COMDAT

; 287  : 	_Alval.destroy(_Pdest);
; 288  : 	}

  00000	c3		 ret	 0
??$_Dest_val@V?$allocator@UExtraAniJump@@@std@@UExtraAniJump@@@std@@YAXAAV?$allocator@UExtraAniJump@@@0@PAUExtraAniJump@@@Z ENDP ; std::_Dest_val<std::allocator<ExtraAniJump>,ExtraAniJump>
_TEXT	ENDS
PUBLIC	??$_Cons_val@V?$allocator@UExtraAniJump@@@std@@UExtraAniJump@@U3@@std@@YAXAAV?$allocator@UExtraAniJump@@@0@PAUExtraAniJump@@$$QAU2@@Z ; std::_Cons_val<std::allocator<ExtraAniJump>,ExtraAniJump,ExtraAniJump>
; Function compile flags: /Ogsp
;	COMDAT ??$_Cons_val@V?$allocator@UExtraAniJump@@@std@@UExtraAniJump@@U3@@std@@YAXAAV?$allocator@UExtraAniJump@@@0@PAUExtraAniJump@@$$QAU2@@Z
_TEXT	SEGMENT
__Alval$ = 8						; size = 4
__Pdest$ = 12						; size = 4
__Src$ = 16						; size = 4
??$_Cons_val@V?$allocator@UExtraAniJump@@@std@@UExtraAniJump@@U3@@std@@YAXAAV?$allocator@UExtraAniJump@@@0@PAUExtraAniJump@@$$QAU2@@Z PROC ; std::_Cons_val<std::allocator<ExtraAniJump>,ExtraAniJump,ExtraAniJump>, COMDAT

; 279  : 	{	// construct using allocator

  00000	55		 push	 ebp
  00001	8b ec		 mov	 ebp, esp

; 280  : 	_Alval.construct(_Pdest, _STD forward<_Ty2>(_Src));

  00003	8b 45 0c	 mov	 eax, DWORD PTR __Pdest$[ebp]
  00006	85 c0		 test	 eax, eax
  00008	74 0d		 je	 SHORT $LN7@Cons_val@5
  0000a	8b 4d 10	 mov	 ecx, DWORD PTR __Src$[ebp]
  0000d	8b 11		 mov	 edx, DWORD PTR [ecx]
  0000f	89 10		 mov	 DWORD PTR [eax], edx
  00011	8b 49 04	 mov	 ecx, DWORD PTR [ecx+4]
  00014	89 48 04	 mov	 DWORD PTR [eax+4], ecx
$LN7@Cons_val@5:

; 281  : 	}

  00017	5d		 pop	 ebp
  00018	c3		 ret	 0
??$_Cons_val@V?$allocator@UExtraAniJump@@@std@@UExtraAniJump@@U3@@std@@YAXAAV?$allocator@UExtraAniJump@@@0@PAUExtraAniJump@@$$QAU2@@Z ENDP ; std::_Cons_val<std::allocator<ExtraAniJump>,ExtraAniJump,ExtraAniJump>
_TEXT	ENDS
PUBLIC	?GetTeam@ioPlayEntity@@QBE?AW4TeamType@@XZ	; ioPlayEntity::GetTeam
; Function compile flags: /Ogsp
; File d:\lost saga for developer\youtube\tutorial\source\src\lsclient\ioplayentity.h
;	COMDAT ?GetTeam@ioPlayEntity@@QBE?AW4TeamType@@XZ
_TEXT	SEGMENT
_value$674370 = -4					; size = 4
?GetTeam@ioPlayEntity@@QBE?AW4TeamType@@XZ PROC		; ioPlayEntity::GetTeam, COMDAT
; _this$ = ecx

; 107  : 	inline TeamType GetTeam() const { return m_TeamType; }

  00000	55		 push	 ebp
  00001	8b ec		 mov	 ebp, esp
  00003	51		 push	 ecx
  00004	8d 45 fc	 lea	 eax, DWORD PTR _value$674370[ebp]
  00007	50		 push	 eax
  00008	81 c1 90 00 00
	00		 add	 ecx, 144		; 00000090H
  0000e	e8 00 00 00 00	 call	 ?DecryptValueToPool@?$CEncrypt@W4TeamType@@@@QAEXPAW4TeamType@@@Z ; CEncrypt<enum TeamType>::DecryptValueToPool
  00013	8b 45 fc	 mov	 eax, DWORD PTR _value$674370[ebp]
  00016	c9		 leave
  00017	c3		 ret	 0
?GetTeam@ioPlayEntity@@QBE?AW4TeamType@@XZ ENDP		; ioPlayEntity::GetTeam
_TEXT	ENDS
PUBLIC	??0?$vector@HV?$allocator@H@std@@@std@@QAE@XZ	; std::vector<int,std::allocator<int> >::vector<int,std::allocator<int> >
; Function compile flags: /Ogsp
; File c:\program files (x86)\microsoft visual studio 10.0\vc\include\vector
;	COMDAT ??0?$vector@HV?$allocator@H@std@@@std@@QAE@XZ
_TEXT	SEGMENT
??0?$vector@HV?$allocator@H@std@@@std@@QAE@XZ PROC	; std::vector<int,std::allocator<int> >::vector<int,std::allocator<int> >, COMDAT
; _this$ = ecx

; 507  : 		{	// construct empty vector

  00000	8b c1		 mov	 eax, ecx
  00002	33 c9		 xor	 ecx, ecx
  00004	89 08		 mov	 DWORD PTR [eax], ecx
  00006	89 48 04	 mov	 DWORD PTR [eax+4], ecx
  00009	89 48 08	 mov	 DWORD PTR [eax+8], ecx

; 508  : 		}

  0000c	c3		 ret	 0
??0?$vector@HV?$allocator@H@std@@@std@@QAE@XZ ENDP	; std::vector<int,std::allocator<int> >::vector<int,std::allocator<int> >
_TEXT	ENDS
PUBLIC	?_Tidy@?$basic_string@DU?$char_traits@D@std@@V?$allocator@D@2@@std@@QAEX_NI@Z ; std::basic_string<char,std::char_traits<char>,std::allocator<char> >::_Tidy
; Function compile flags: /Ogsp
; File c:\program files (x86)\microsoft visual studio 10.0\vc\include\xstring
;	COMDAT ?_Tidy@?$basic_string@DU?$char_traits@D@std@@V?$allocator@D@2@@std@@QAEX_NI@Z
_TEXT	SEGMENT
__Built$ = 8						; size = 1
__Newsize$ = 12						; size = 4
?_Tidy@?$basic_string@DU?$char_traits@D@std@@V?$allocator@D@2@@std@@QAEX_NI@Z PROC ; std::basic_string<char,std::char_traits<char>,std::allocator<char> >::_Tidy, COMDAT
; _this$ = ecx

; 1988 : 		{	// initialize buffer, deallocating any storage

  00000	55		 push	 ebp
  00001	8b ec		 mov	 ebp, esp

; 1989 : 		if (!_Built)

  00003	80 7d 08 00	 cmp	 BYTE PTR __Built$[ebp], 0
  00007	56		 push	 esi
  00008	57		 push	 edi
  00009	8b 7d 0c	 mov	 edi, DWORD PTR __Newsize$[ebp]
  0000c	8b f1		 mov	 esi, ecx
  0000e	74 20		 je	 SHORT $LN9@Tidy

; 1990 : 			;
; 1991 : 		else if (this->_BUF_SIZE <= this->_Myres)

  00010	83 7e 14 10	 cmp	 DWORD PTR [esi+20], 16	; 00000010H
  00014	72 1a		 jb	 SHORT $LN9@Tidy

; 1992 : 			{	// copy any leftovers to small buffer and deallocate
; 1993 : 			_Elem *_Ptr = this->_Bx._Ptr;

  00016	53		 push	 ebx
  00017	8b 1e		 mov	 ebx, DWORD PTR [esi]

; 1994 : 			if (0 < _Newsize)

  00019	85 ff		 test	 edi, edi
  0001b	74 0b		 je	 SHORT $LN7@Tidy

; 1995 : 				_Traits::copy(this->_Bx._Buf, _Ptr, _Newsize);

  0001d	57		 push	 edi
  0001e	53		 push	 ebx
  0001f	56		 push	 esi
  00020	e8 00 00 00 00	 call	 _memcpy
  00025	83 c4 0c	 add	 esp, 12			; 0000000cH
$LN7@Tidy:

; 1996 : 			this->_Alval.deallocate(_Ptr, this->_Myres + 1);

  00028	53		 push	 ebx
  00029	e8 00 00 00 00	 call	 ??3@YAXPAX@Z		; operator delete
  0002e	59		 pop	 ecx
  0002f	5b		 pop	 ebx
$LN9@Tidy:

; 1997 : 			}
; 1998 : 		this->_Myres = this->_BUF_SIZE - 1;
; 1999 : 		_Eos(_Newsize);

  00030	89 7e 10	 mov	 DWORD PTR [esi+16], edi
  00033	c7 46 14 0f 00
	00 00		 mov	 DWORD PTR [esi+20], 15	; 0000000fH
  0003a	c6 04 37 00	 mov	 BYTE PTR [edi+esi], 0
  0003e	5f		 pop	 edi
  0003f	5e		 pop	 esi

; 2000 : 		}

  00040	5d		 pop	 ebp
  00041	c2 08 00	 ret	 8
?_Tidy@?$basic_string@DU?$char_traits@D@std@@V?$allocator@D@2@@std@@QAEX_NI@Z ENDP ; std::basic_string<char,std::char_traits<char>,std::allocator<char> >::_Tidy
_TEXT	ENDS
PUBLIC	?erase@?$basic_string@DU?$char_traits@D@std@@V?$allocator@D@2@@std@@QAEAAV12@II@Z ; std::basic_string<char,std::char_traits<char>,std::allocator<char> >::erase
; Function compile flags: /Ogsp
;	COMDAT ?erase@?$basic_string@DU?$char_traits@D@std@@V?$allocator@D@2@@std@@QAEAAV12@II@Z
_TEXT	SEGMENT
__Off$ = 8						; size = 4
__Count$ = 12						; size = 4
?erase@?$basic_string@DU?$char_traits@D@std@@V?$allocator@D@2@@std@@QAEAAV12@II@Z PROC ; std::basic_string<char,std::char_traits<char>,std::allocator<char> >::erase, COMDAT
; _this$ = ecx

; 1109 : 		{	// erase elements [_Off, _Off + _Count)

  00000	55		 push	 ebp
  00001	8b ec		 mov	 ebp, esp
  00003	53		 push	 ebx
  00004	56		 push	 esi
  00005	8b f1		 mov	 esi, ecx

; 1110 : 		if (this->_Mysize < _Off)

  00007	8b 46 10	 mov	 eax, DWORD PTR [esi+16]
  0000a	8b 4d 08	 mov	 ecx, DWORD PTR __Off$[ebp]
  0000d	3b c1		 cmp	 eax, ecx
  0000f	73 0b		 jae	 SHORT $LN3@erase

; 1111 : 			_Xran();	// _Off off end

  00011	68 00 00 00 00	 push	 OFFSET ??_C@_0BI@CFPLBAOH@invalid?5string?5position?$AA@
  00016	ff 15 00 00 00
	00		 call	 DWORD PTR __imp_?_Xout_of_range@std@@YAXPBD@Z
$LN28@erase:
$LN3@erase:

; 1112 : 		if (this->_Mysize - _Off < _Count)

  0001c	8b 5d 0c	 mov	 ebx, DWORD PTR __Count$[ebp]
  0001f	2b c1		 sub	 eax, ecx
  00021	3b c3		 cmp	 eax, ebx

; 1113 : 			_Count = this->_Mysize - _Off;	// trim _Count

  00023	0f 42 d8	 cmovb	 ebx, eax

; 1114 : 		if (0 < _Count)

  00026	85 db		 test	 ebx, ebx
  00028	74 47		 je	 SHORT $LN25@erase

; 1115 : 			{	// move elements down
; 1116 : 			_Traits::move(_Myptr() + _Off, _Myptr() + _Off + _Count,
; 1117 : 				this->_Mysize - _Off - _Count);

  0002a	8b 56 14	 mov	 edx, DWORD PTR [esi+20]
  0002d	57		 push	 edi
  0002e	83 fa 10	 cmp	 edx, 16			; 00000010H
  00031	72 04		 jb	 SHORT $LN11@erase
  00033	8b 3e		 mov	 edi, DWORD PTR [esi]
  00035	eb 02		 jmp	 SHORT $LN12@erase
$LN11@erase:
  00037	8b fe		 mov	 edi, esi
$LN12@erase:
  00039	83 fa 10	 cmp	 edx, 16			; 00000010H
  0003c	72 04		 jb	 SHORT $LN15@erase
  0003e	8b 16		 mov	 edx, DWORD PTR [esi]
  00040	eb 02		 jmp	 SHORT $LN16@erase
$LN15@erase:
  00042	8b d6		 mov	 edx, esi
$LN16@erase:
  00044	2b c3		 sub	 eax, ebx
  00046	03 f9		 add	 edi, ecx
  00048	50		 push	 eax
  00049	03 fb		 add	 edi, ebx
  0004b	03 d1		 add	 edx, ecx
  0004d	57		 push	 edi
  0004e	52		 push	 edx
  0004f	ff 15 00 00 00
	00		 call	 DWORD PTR __imp__memmove

; 1118 : 			size_type _Newsize = this->_Mysize - _Count;

  00055	8b 46 10	 mov	 eax, DWORD PTR [esi+16]
  00058	83 c4 0c	 add	 esp, 12			; 0000000cH
  0005b	2b c3		 sub	 eax, ebx

; 1119 : 			_Eos(_Newsize);

  0005d	83 7e 14 10	 cmp	 DWORD PTR [esi+20], 16	; 00000010H
  00061	89 46 10	 mov	 DWORD PTR [esi+16], eax
  00064	5f		 pop	 edi
  00065	72 04		 jb	 SHORT $LN23@erase
  00067	8b 0e		 mov	 ecx, DWORD PTR [esi]
  00069	eb 02		 jmp	 SHORT $LN24@erase
$LN23@erase:
  0006b	8b ce		 mov	 ecx, esi
$LN24@erase:
  0006d	c6 04 01 00	 mov	 BYTE PTR [ecx+eax], 0
$LN25@erase:

; 1120 : 			}
; 1121 : 		return (*this);

  00071	8b c6		 mov	 eax, esi
  00073	5e		 pop	 esi
  00074	5b		 pop	 ebx

; 1122 : 		}

  00075	5d		 pop	 ebp
  00076	c2 08 00	 ret	 8
$LN27@erase:
?erase@?$basic_string@DU?$char_traits@D@std@@V?$allocator@D@2@@std@@QAEAAV12@II@Z ENDP ; std::basic_string<char,std::char_traits<char>,std::allocator<char> >::erase
_TEXT	ENDS
PUBLIC	?_Destroy@?$vector@HV?$allocator@H@std@@@std@@IAEXPAH0@Z ; std::vector<int,std::allocator<int> >::_Destroy
; Function compile flags: /Ogsp
; File c:\program files (x86)\microsoft visual studio 10.0\vc\include\vector
;	COMDAT ?_Destroy@?$vector@HV?$allocator@H@std@@@std@@IAEXPAH0@Z
_TEXT	SEGMENT
__First$ = 8						; size = 4
__Last$ = 12						; size = 4
?_Destroy@?$vector@HV?$allocator@H@std@@@std@@IAEXPAH0@Z PROC ; std::vector<int,std::allocator<int> >::_Destroy, COMDAT
; _this$ = ecx

; 1270 : 		_Destroy_range(_First, _Last, this->_Alval);
; 1271 : 		}

  00000	c2 08 00	 ret	 8
?_Destroy@?$vector@HV?$allocator@H@std@@@std@@IAEXPAH0@Z ENDP ; std::vector<int,std::allocator<int> >::_Destroy
_TEXT	ENDS
PUBLIC	??9?$_Vector_const_iterator@V?$_Vector_val@HV?$allocator@H@std@@@std@@@std@@QBE_NABV01@@Z ; std::_Vector_const_iterator<std::_Vector_val<int,std::allocator<int> > >::operator!=
; Function compile flags: /Ogsp
;	COMDAT ??9?$_Vector_const_iterator@V?$_Vector_val@HV?$allocator@H@std@@@std@@@std@@QBE_NABV01@@Z
_TEXT	SEGMENT
__Right$ = 8						; size = 4
??9?$_Vector_const_iterator@V?$_Vector_val@HV?$allocator@H@std@@@std@@@std@@QBE_NABV01@@Z PROC ; std::_Vector_const_iterator<std::_Vector_val<int,std::allocator<int> > >::operator!=, COMDAT
; _this$ = ecx

; 207  : 		{	// test for iterator inequality

  00000	55		 push	 ebp
  00001	8b ec		 mov	 ebp, esp

; 208  : 		return (!(*this == _Right));

  00003	8b 01		 mov	 eax, DWORD PTR [ecx]
  00005	8b 55 08	 mov	 edx, DWORD PTR __Right$[ebp]
  00008	33 c9		 xor	 ecx, ecx
  0000a	3b 02		 cmp	 eax, DWORD PTR [edx]
  0000c	0f 95 c0	 setne	 al

; 209  : 		}

  0000f	5d		 pop	 ebp
  00010	c2 04 00	 ret	 4
??9?$_Vector_const_iterator@V?$_Vector_val@HV?$allocator@H@std@@@std@@@std@@QBE_NABV01@@Z ENDP ; std::_Vector_const_iterator<std::_Vector_val<int,std::allocator<int> > >::operator!=
_TEXT	ENDS
PUBLIC	?_Copy@?$basic_string@DU?$char_traits@D@std@@V?$allocator@D@2@@std@@QAEXII@Z ; std::basic_string<char,std::char_traits<char>,std::allocator<char> >::_Copy
EXTRN	__EH_prolog3_catch:PROC
;	COMDAT xdata$x
; File c:\program files (x86)\microsoft visual studio 10.0\vc\include\iosfwd
xdata$x	SEGMENT
__catchsym$?_Copy@?$basic_string@DU?$char_traits@D@std@@V?$allocator@D@2@@std@@QAEXII@Z$5 DD 040H
	DD	00H
	DD	00H
	DD	FLAT:__catch$?_Copy@?$basic_string@DU?$char_traits@D@std@@V?$allocator@D@2@@std@@QAEXII@Z$0
__catchsym$?_Copy@?$basic_string@DU?$char_traits@D@std@@V?$allocator@D@2@@std@@QAEXII@Z$4 DD 040H
	DD	00H
	DD	00H
	DD	FLAT:__catch$?_Copy@?$basic_string@DU?$char_traits@D@std@@V?$allocator@D@2@@std@@QAEXII@Z$1
__unwindtable$?_Copy@?$basic_string@DU?$char_traits@D@std@@V?$allocator@D@2@@std@@QAEXII@Z DD 0ffffffffH
	DD	00H
	DD	0ffffffffH
	DD	00H
	DD	01H
	DD	00H
	DD	01H
	DD	00H
__ehfuncinfo$?_Copy@?$basic_string@DU?$char_traits@D@std@@V?$allocator@D@2@@std@@QAEXII@Z DD 019930522H
	DD	04H
	DD	FLAT:__unwindtable$?_Copy@?$basic_string@DU?$char_traits@D@std@@V?$allocator@D@2@@std@@QAEXII@Z
	DD	02H
	DD	FLAT:__tryblocktable$?_Copy@?$basic_string@DU?$char_traits@D@std@@V?$allocator@D@2@@std@@QAEXII@Z
	DD	2 DUP(00H)
	DD	00H
	DD	01H
__tryblocktable$?_Copy@?$basic_string@DU?$char_traits@D@std@@V?$allocator@D@2@@std@@QAEXII@Z DD 02H
	DD	02H
	DD	03H
	DD	01H
	DD	FLAT:__catchsym$?_Copy@?$basic_string@DU?$char_traits@D@std@@V?$allocator@D@2@@std@@QAEXII@Z$4
	DD	00H
	DD	00H
	DD	03H
	DD	01H
	DD	FLAT:__catchsym$?_Copy@?$basic_string@DU?$char_traits@D@std@@V?$allocator@D@2@@std@@QAEXII@Z$5
; Function compile flags: /Ogsp
; File c:\program files (x86)\microsoft visual studio 10.0\vc\include\xstring
xdata$x	ENDS
;	COMDAT ?_Copy@?$basic_string@DU?$char_traits@D@std@@V?$allocator@D@2@@std@@QAEXII@Z
_TEXT	SEGMENT
_this$ = -24						; size = 4
tv296 = -20						; size = 4
__Newres$ = -20						; size = 4
__$EHRec$ = -16						; size = 16
__Ptr$ = 8						; size = 4
__Newsize$ = 8						; size = 4
__Oldlen$ = 12						; size = 4
?_Copy@?$basic_string@DU?$char_traits@D@std@@V?$allocator@D@2@@std@@QAEXII@Z PROC ; std::basic_string<char,std::char_traits<char>,std::allocator<char> >::_Copy, COMDAT
; _this$ = ecx

; 1919 : 		{	// copy _Oldlen elements to newly allocated buffer

  00000	6a 0c		 push	 12			; 0000000cH
  00002	b8 00 00 00 00	 mov	 eax, __ehhandler$?_Copy@?$basic_string@DU?$char_traits@D@std@@V?$allocator@D@2@@std@@QAEXII@Z
  00007	e8 00 00 00 00	 call	 __EH_prolog3_catch
  0000c	8b f1		 mov	 esi, ecx
  0000e	89 75 e8	 mov	 DWORD PTR _this$[ebp], esi

; 1920 : 		size_type _Newres = _Newsize | this->_ALLOC_MASK;

  00011	8b 7d 08	 mov	 edi, DWORD PTR __Newsize$[ebp]
  00014	83 cf 0f	 or	 edi, 15			; 0000000fH

; 1921 : 		if (max_size() < _Newres)

  00017	83 ff fe	 cmp	 edi, -2			; fffffffeH
  0001a	76 05		 jbe	 SHORT $LN9@Copy

; 1922 : 			_Newres = _Newsize;	// undo roundup if too big

  0001c	8b 7d 08	 mov	 edi, DWORD PTR __Newsize$[ebp]
  0001f	eb 27		 jmp	 SHORT $LN5@Copy
$LN9@Copy:

; 1923 : 		else if (this->_Myres / 2 <= _Newres / 3)

  00021	33 d2		 xor	 edx, edx
  00023	6a 03		 push	 3
  00025	8b c7		 mov	 eax, edi
  00027	5b		 pop	 ebx
  00028	f7 f3		 div	 ebx
  0002a	8b 4e 14	 mov	 ecx, DWORD PTR [esi+20]
  0002d	89 4d ec	 mov	 DWORD PTR tv296[ebp], ecx
  00030	d1 6d ec	 shr	 DWORD PTR tv296[ebp], 1
  00033	8b 55 ec	 mov	 edx, DWORD PTR tv296[ebp]
  00036	3b d0		 cmp	 edx, eax
  00038	76 0e		 jbe	 SHORT $LN5@Copy

; 1924 : 			;
; 1925 : 		else if (this->_Myres <= max_size() - this->_Myres / 2)

  0003a	6a fe		 push	 -2			; fffffffeH
  0003c	5f		 pop	 edi
  0003d	8b c7		 mov	 eax, edi
  0003f	2b c2		 sub	 eax, edx
  00041	3b c8		 cmp	 ecx, eax
  00043	77 03		 ja	 SHORT $LN5@Copy

; 1926 : 			_Newres = this->_Myres
; 1927 : 				+ this->_Myres / 2;	// grow exponentially if possible

  00045	8d 3c 0a	 lea	 edi, DWORD PTR [edx+ecx]
$LN5@Copy:

; 1928 : 		else
; 1929 : 			_Newres = max_size();	// settle for max_size()
; 1930 : 
; 1931 : 		_Elem *_Ptr;
; 1932 : 		_TRY_BEGIN

  00048	83 65 fc 00	 and	 DWORD PTR __$EHRec$[ebp+12], 0

; 1933 : 			_Ptr = this->_Alval.allocate(_Newres + 1);

  0004c	8d 47 01	 lea	 eax, DWORD PTR [edi+1]
  0004f	6a 00		 push	 0
  00051	50		 push	 eax
  00052	e8 00 00 00 00	 call	 ??$_Allocate@D@std@@YAPADIPAD@Z ; std::_Allocate<char>
  00057	59		 pop	 ecx
  00058	59		 pop	 ecx
  00059	89 45 08	 mov	 DWORD PTR __Ptr$[ebp], eax
  0005c	eb 27		 jmp	 SHORT $LN19@Copy
__catch$?_Copy@?$basic_string@DU?$char_traits@D@std@@V?$allocator@D@2@@std@@QAEXII@Z$0:

; 1934 : 		_CATCH_ALL
; 1935 : 			_Newres = _Newsize;	// allocation failed, undo roundup and retry

  0005e	8b 45 08	 mov	 eax, DWORD PTR __Newsize$[ebp]
  00061	89 65 f0	 mov	 DWORD PTR __$EHRec$[ebp], esp
  00064	89 45 ec	 mov	 DWORD PTR __Newres$[ebp], eax

; 1936 : 			_TRY_BEGIN
; 1937 : 				_Ptr = this->_Alval.allocate(_Newres + 1);

  00067	40		 inc	 eax
  00068	6a 00		 push	 0
  0006a	50		 push	 eax
  0006b	c6 45 fc 02	 mov	 BYTE PTR __$EHRec$[ebp+12], 2
  0006f	e8 00 00 00 00	 call	 ??$_Allocate@D@std@@YAPADIPAD@Z ; std::_Allocate<char>
  00074	59		 pop	 ecx
  00075	89 45 08	 mov	 DWORD PTR __Ptr$[ebp], eax
  00078	59		 pop	 ecx

; 1941 : 			_CATCH_END
; 1942 : 		_CATCH_END

  00079	b8 00 00 00 00	 mov	 eax, $LN63@Copy
  0007e	c3		 ret	 0
$LN63@Copy:
  0007f	8b 75 e8	 mov	 esi, DWORD PTR _this$[ebp]
  00082	8b 7d ec	 mov	 edi, DWORD PTR __Newres$[ebp]
$LN19@Copy:

; 1943 : 
; 1944 : 		if (0 < _Oldlen)

  00085	8b 5d 0c	 mov	 ebx, DWORD PTR __Oldlen$[ebp]
  00088	85 db		 test	 ebx, ebx
  0008a	74 19		 je	 SHORT $LN52@Copy

; 1945 : 			_Traits::copy(_Ptr, _Myptr(), _Oldlen);	// copy existing elements

  0008c	83 7e 14 10	 cmp	 DWORD PTR [esi+20], 16	; 00000010H
  00090	72 04		 jb	 SHORT $LN50@Copy
  00092	8b 06		 mov	 eax, DWORD PTR [esi]
  00094	eb 02		 jmp	 SHORT $LN51@Copy
$LN50@Copy:
  00096	8b c6		 mov	 eax, esi
$LN51@Copy:
  00098	53		 push	 ebx
  00099	50		 push	 eax
  0009a	ff 75 08	 push	 DWORD PTR __Ptr$[ebp]
  0009d	e8 00 00 00 00	 call	 _memcpy
  000a2	83 c4 0c	 add	 esp, 12			; 0000000cH
$LN52@Copy:

; 1946 : 		_Tidy(true);

  000a5	6a 00		 push	 0
  000a7	6a 01		 push	 1
  000a9	8b ce		 mov	 ecx, esi
  000ab	e8 00 00 00 00	 call	 ?_Tidy@?$basic_string@DU?$char_traits@D@std@@V?$allocator@D@2@@std@@QAEX_NI@Z ; std::basic_string<char,std::char_traits<char>,std::allocator<char> >::_Tidy

; 1947 : 		this->_Bx._Ptr = _Ptr;

  000b0	8b 45 08	 mov	 eax, DWORD PTR __Ptr$[ebp]
  000b3	89 06		 mov	 DWORD PTR [esi], eax

; 1948 : 		this->_Myres = _Newres;
; 1949 : 		_Eos(_Oldlen);

  000b5	83 ff 10	 cmp	 edi, 16			; 00000010H
  000b8	89 7e 14	 mov	 DWORD PTR [esi+20], edi
  000bb	89 5e 10	 mov	 DWORD PTR [esi+16], ebx
  000be	0f 42 c6	 cmovb	 eax, esi
  000c1	c6 04 18 00	 mov	 BYTE PTR [eax+ebx], 0

; 1950 : 		}

  000c5	e8 00 00 00 00	 call	 __EH_epilog3
  000ca	c2 08 00	 ret	 8
__catch$?_Copy@?$basic_string@DU?$char_traits@D@std@@V?$allocator@D@2@@std@@QAEXII@Z$1:

; 1938 : 			_CATCH_ALL
; 1939 : 			_Tidy(true);	// failed again, discard storage and reraise

  000cd	8b 4d e8	 mov	 ecx, DWORD PTR _this$[ebp]
  000d0	33 f6		 xor	 esi, esi
  000d2	56		 push	 esi
  000d3	6a 01		 push	 1
  000d5	e8 00 00 00 00	 call	 ?_Tidy@?$basic_string@DU?$char_traits@D@std@@V?$allocator@D@2@@std@@QAEX_NI@Z ; std::basic_string<char,std::char_traits<char>,std::allocator<char> >::_Tidy

; 1940 : 			_RERAISE;

  000da	56		 push	 esi
  000db	56		 push	 esi
  000dc	e8 00 00 00 00	 call	 __CxxThrowException@8
$LN67@Copy:
$LN66@Copy:
  000e1	cc		 int	 3
_TEXT	ENDS
;	COMDAT text$x
text$x	SEGMENT
__ehhandler$?_Copy@?$basic_string@DU?$char_traits@D@std@@V?$allocator@D@2@@std@@QAEXII@Z:
  00000	8b 54 24 08	 mov	 edx, DWORD PTR [esp+8]
  00004	8d 42 0c	 lea	 eax, DWORD PTR [edx+12]
  00007	8b 4a e4	 mov	 ecx, DWORD PTR [edx-28]
  0000a	33 c8		 xor	 ecx, eax
  0000c	e8 00 00 00 00	 call	 @__security_check_cookie@4
  00011	b8 00 00 00 00	 mov	 eax, OFFSET __ehfuncinfo$?_Copy@?$basic_string@DU?$char_traits@D@std@@V?$allocator@D@2@@std@@QAEXII@Z
  00016	e9 00 00 00 00	 jmp	 ___CxxFrameHandler3
text$x	ENDS
?_Copy@?$basic_string@DU?$char_traits@D@std@@V?$allocator@D@2@@std@@QAEXII@Z ENDP ; std::basic_string<char,std::char_traits<char>,std::allocator<char> >::_Copy
PUBLIC	??$_Umove@PAH@?$vector@HV?$allocator@H@std@@@std@@IAEPAHPAH00@Z ; std::vector<int,std::allocator<int> >::_Umove<int *>
; Function compile flags: /Ogsp
; File c:\program files (x86)\microsoft visual studio 10.0\vc\include\vector
;	COMDAT ??$_Umove@PAH@?$vector@HV?$allocator@H@std@@@std@@IAEPAHPAH00@Z
_TEXT	SEGMENT
__First$ = 8						; size = 4
__Last$ = 12						; size = 4
__Ptr$ = 16						; size = 4
??$_Umove@PAH@?$vector@HV?$allocator@H@std@@@std@@IAEPAHPAH00@Z PROC ; std::vector<int,std::allocator<int> >::_Umove<int *>, COMDAT
; _this$ = ecx

; 1322 : 		pointer _Umove(_Iter _First, _Iter _Last, pointer _Ptr)

  00000	55		 push	 ebp
  00001	8b ec		 mov	 ebp, esp

; 1323 : 		{	// move initializing [_First, _Last), using allocator
; 1324 : 		return (_Uninitialized_move(_First, _Last,
; 1325 : 			_Ptr, this->_Alval));

  00003	83 c1 0c	 add	 ecx, 12			; 0000000cH
  00006	51		 push	 ecx
  00007	ff 75 10	 push	 DWORD PTR __Ptr$[ebp]
  0000a	ff 75 0c	 push	 DWORD PTR __Last$[ebp]
  0000d	ff 75 08	 push	 DWORD PTR __First$[ebp]
  00010	e8 00 00 00 00	 call	 ??$_Uninitialized_move@PAHPAHV?$allocator@H@std@@@std@@YAPAHPAH00AAV?$allocator@H@0@@Z ; std::_Uninitialized_move<int *,int *,std::allocator<int> >
  00015	83 c4 10	 add	 esp, 16			; 00000010H

; 1326 : 		}

  00018	5d		 pop	 ebp
  00019	c2 0c 00	 ret	 12			; 0000000cH
??$_Umove@PAH@?$vector@HV?$allocator@H@std@@@std@@IAEPAHPAH00@Z ENDP ; std::vector<int,std::allocator<int> >::_Umove<int *>
_TEXT	ENDS
PUBLIC	?erase@?$vector@HV?$allocator@H@std@@@std@@QAE?AV?$_Vector_iterator@V?$_Vector_val@HV?$allocator@H@std@@@std@@@2@V?$_Vector_const_iterator@V?$_Vector_val@HV?$allocator@H@std@@@std@@@2@@Z ; std::vector<int,std::allocator<int> >::erase
; Function compile flags: /Ogsp
;	COMDAT ?erase@?$vector@HV?$allocator@H@std@@@std@@QAE?AV?$_Vector_iterator@V?$_Vector_val@HV?$allocator@H@std@@@std@@@2@V?$_Vector_const_iterator@V?$_Vector_val@HV?$allocator@H@std@@@std@@@2@@Z
_TEXT	SEGMENT
___$ReturnUdt$ = 8					; size = 4
__Cat$674636 = 12					; size = 1
__Where$ = 12						; size = 4
?erase@?$vector@HV?$allocator@H@std@@@std@@QAE?AV?$_Vector_iterator@V?$_Vector_val@HV?$allocator@H@std@@@std@@@2@V?$_Vector_const_iterator@V?$_Vector_val@HV?$allocator@H@std@@@std@@@2@@Z PROC ; std::vector<int,std::allocator<int> >::erase, COMDAT
; _this$ = ecx

; 1179 : 		{	// erase element at where

  00000	55		 push	 ebp
  00001	8b ec		 mov	 ebp, esp

; 1180 : 		_Move(_VIPTR(_Where) + 1, this->_Mylast,
; 1181 : 			_VIPTR(_Where));

  00003	8b 45 0c	 mov	 eax, DWORD PTR __Where$[ebp]
  00006	56		 push	 esi
  00007	ff 75 0c	 push	 DWORD PTR __Cat$674636[ebp]
  0000a	8b f1		 mov	 esi, ecx
  0000c	50		 push	 eax
  0000d	ff 76 04	 push	 DWORD PTR [esi+4]
  00010	83 c0 04	 add	 eax, 4
  00013	50		 push	 eax
  00014	e8 00 00 00 00	 call	 ??$_Move@PAHPAH@std@@YAPAHPAH00U_Scalar_ptr_iterator_tag@0@@Z ; std::_Move<int *,int *>

; 1182 : 		_Destroy(this->_Mylast - 1, this->_Mylast);
; 1183 : 		--this->_Mylast;
; 1184 : 		return (_Make_iter(_Where));

  00019	8b 45 08	 mov	 eax, DWORD PTR ___$ReturnUdt$[ebp]
  0001c	8b 4d 0c	 mov	 ecx, DWORD PTR __Where$[ebp]
  0001f	83 c4 10	 add	 esp, 16			; 00000010H
  00022	83 46 04 fc	 add	 DWORD PTR [esi+4], -4	; fffffffcH
  00026	89 08		 mov	 DWORD PTR [eax], ecx
  00028	5e		 pop	 esi

; 1185 : 		}

  00029	5d		 pop	 ebp
  0002a	c2 08 00	 ret	 8
?erase@?$vector@HV?$allocator@H@std@@@std@@QAE?AV?$_Vector_iterator@V?$_Vector_val@HV?$allocator@H@std@@@std@@@2@V?$_Vector_const_iterator@V?$_Vector_val@HV?$allocator@H@std@@@std@@@2@@Z ENDP ; std::vector<int,std::allocator<int> >::erase
_TEXT	ENDS
PUBLIC	?end@?$_Tree@V?$_Tmap_traits@HUtagDummyAttackInfo@@U?$less@H@std@@V?$allocator@U?$pair@$$CBHUtagDummyAttackInfo@@@std@@@3@$0A@@std@@@std@@QAE?AV?$_Tree_iterator@V?$_Tree_val@V?$_Tmap_traits@HUtagDummyAttackInfo@@U?$less@H@std@@V?$allocator@U?$pair@$$CBHUtagDummyAttackInfo@@@std@@@3@$0A@@std@@@std@@@2@XZ ; std::_Tree<std::_Tmap_traits<int,tagDummyAttackInfo,std::less<int>,std::allocator<std::pair<int const ,tagDummyAttackInfo> >,0> >::end
; Function compile flags: /Ogsp
; File c:\program files (x86)\microsoft visual studio 10.0\vc\include\xtree
;	COMDAT ?end@?$_Tree@V?$_Tmap_traits@HUtagDummyAttackInfo@@U?$less@H@std@@V?$allocator@U?$pair@$$CBHUtagDummyAttackInfo@@@std@@@3@$0A@@std@@@std@@QAE?AV?$_Tree_iterator@V?$_Tree_val@V?$_Tmap_traits@HUtagDummyAttackInfo@@U?$less@H@std@@V?$allocator@U?$pair@$$CBHUtagDummyAttackInfo@@@std@@@3@$0A@@std@@@std@@@2@XZ
_TEXT	SEGMENT
___$ReturnUdt$ = 8					; size = 4
?end@?$_Tree@V?$_Tmap_traits@HUtagDummyAttackInfo@@U?$less@H@std@@V?$allocator@U?$pair@$$CBHUtagDummyAttackInfo@@@std@@@3@$0A@@std@@@std@@QAE?AV?$_Tree_iterator@V?$_Tree_val@V?$_Tmap_traits@HUtagDummyAttackInfo@@U?$less@H@std@@V?$allocator@U?$pair@$$CBHUtagDummyAttackInfo@@@std@@@3@$0A@@std@@@std@@@2@XZ PROC ; std::_Tree<std::_Tmap_traits<int,tagDummyAttackInfo,std::less<int>,std::allocator<std::pair<int const ,tagDummyAttackInfo> >,0> >::end, COMDAT
; _this$ = ecx

; 816  : 		{	// return iterator for end of mutable sequence

  00000	55		 push	 ebp
  00001	8b ec		 mov	 ebp, esp

; 817  : 		return (iterator(this->_Myhead, this));

  00003	8b 49 04	 mov	 ecx, DWORD PTR [ecx+4]
  00006	8b 45 08	 mov	 eax, DWORD PTR ___$ReturnUdt$[ebp]
  00009	89 08		 mov	 DWORD PTR [eax], ecx

; 818  : 		}

  0000b	5d		 pop	 ebp
  0000c	c2 04 00	 ret	 4
?end@?$_Tree@V?$_Tmap_traits@HUtagDummyAttackInfo@@U?$less@H@std@@V?$allocator@U?$pair@$$CBHUtagDummyAttackInfo@@@std@@@3@$0A@@std@@@std@@QAE?AV?$_Tree_iterator@V?$_Tree_val@V?$_Tmap_traits@HUtagDummyAttackInfo@@U?$less@H@std@@V?$allocator@U?$pair@$$CBHUtagDummyAttackInfo@@@std@@@3@$0A@@std@@@std@@@2@XZ ENDP ; std::_Tree<std::_Tmap_traits<int,tagDummyAttackInfo,std::less<int>,std::allocator<std::pair<int const ,tagDummyAttackInfo> >,0> >::end
_TEXT	ENDS
PUBLIC	?begin@?$list@UFireTime@@V?$allocator@UFireTime@@@std@@@std@@QAE?AV?$_List_iterator@V?$_List_val@UFireTime@@V?$allocator@UFireTime@@@std@@@std@@@2@XZ ; std::list<FireTime,std::allocator<FireTime> >::begin
; Function compile flags: /Ogsp
; File c:\program files (x86)\microsoft visual studio 10.0\vc\include\list
;	COMDAT ?begin@?$list@UFireTime@@V?$allocator@UFireTime@@@std@@@std@@QAE?AV?$_List_iterator@V?$_List_val@UFireTime@@V?$allocator@UFireTime@@@std@@@std@@@2@XZ
_TEXT	SEGMENT
___$ReturnUdt$ = 8					; size = 4
?begin@?$list@UFireTime@@V?$allocator@UFireTime@@@std@@@std@@QAE?AV?$_List_iterator@V?$_List_val@UFireTime@@V?$allocator@UFireTime@@@std@@@std@@@2@XZ PROC ; std::list<FireTime,std::allocator<FireTime> >::begin, COMDAT
; _this$ = ecx

; 781  : 		{	// return iterator for beginning of mutable sequence

  00000	55		 push	 ebp
  00001	8b ec		 mov	 ebp, esp

; 782  : 		return (iterator(this->_Nextnode(this->_Myhead), this));

  00003	8b 01		 mov	 eax, DWORD PTR [ecx]
  00005	8b 08		 mov	 ecx, DWORD PTR [eax]
  00007	8b 45 08	 mov	 eax, DWORD PTR ___$ReturnUdt$[ebp]
  0000a	89 08		 mov	 DWORD PTR [eax], ecx

; 783  : 		}

  0000c	5d		 pop	 ebp
  0000d	c2 04 00	 ret	 4
?begin@?$list@UFireTime@@V?$allocator@UFireTime@@@std@@@std@@QAE?AV?$_List_iterator@V?$_List_val@UFireTime@@V?$allocator@UFireTime@@@std@@@std@@@2@XZ ENDP ; std::list<FireTime,std::allocator<FireTime> >::begin
_TEXT	ENDS
PUBLIC	?end@?$list@UFireTime@@V?$allocator@UFireTime@@@std@@@std@@QAE?AV?$_List_iterator@V?$_List_val@UFireTime@@V?$allocator@UFireTime@@@std@@@std@@@2@XZ ; std::list<FireTime,std::allocator<FireTime> >::end
; Function compile flags: /Ogsp
;	COMDAT ?end@?$list@UFireTime@@V?$allocator@UFireTime@@@std@@@std@@QAE?AV?$_List_iterator@V?$_List_val@UFireTime@@V?$allocator@UFireTime@@@std@@@std@@@2@XZ
_TEXT	SEGMENT
___$ReturnUdt$ = 8					; size = 4
?end@?$list@UFireTime@@V?$allocator@UFireTime@@@std@@@std@@QAE?AV?$_List_iterator@V?$_List_val@UFireTime@@V?$allocator@UFireTime@@@std@@@std@@@2@XZ PROC ; std::list<FireTime,std::allocator<FireTime> >::end, COMDAT
; _this$ = ecx

; 791  : 		{	// return iterator for end of mutable sequence

  00000	55		 push	 ebp
  00001	8b ec		 mov	 ebp, esp

; 792  : 		return (iterator(this->_Myhead, this));

  00003	8b 09		 mov	 ecx, DWORD PTR [ecx]
  00005	8b 45 08	 mov	 eax, DWORD PTR ___$ReturnUdt$[ebp]
  00008	89 08		 mov	 DWORD PTR [eax], ecx

; 793  : 		}

  0000a	5d		 pop	 ebp
  0000b	c2 04 00	 ret	 4
?end@?$list@UFireTime@@V?$allocator@UFireTime@@@std@@@std@@QAE?AV?$_List_iterator@V?$_List_val@UFireTime@@V?$allocator@UFireTime@@@std@@@std@@@2@XZ ENDP ; std::list<FireTime,std::allocator<FireTime> >::end
_TEXT	ENDS
PUBLIC	??0?$list@MV?$allocator@M@std@@@std@@QAE@XZ	; std::list<float,std::allocator<float> >::list<float,std::allocator<float> >
; Function compile flags: /Ogsp
;	COMDAT ??0?$list@MV?$allocator@M@std@@@std@@QAE@XZ
_TEXT	SEGMENT
$T674783 = -4						; size = 4
$T674778 = -4						; size = 4
??0?$list@MV?$allocator@M@std@@@std@@QAE@XZ PROC	; std::list<float,std::allocator<float> >::list<float,std::allocator<float> >, COMDAT
; _this$ = ecx

; 607  : 		{	// construct empty list

  00000	55		 push	 ebp
  00001	8b ec		 mov	 ebp, esp
  00003	51		 push	 ecx
  00004	56		 push	 esi
  00005	51		 push	 ecx
  00006	89 65 fc	 mov	 DWORD PTR $T674778[ebp], esp
  00009	8b f1		 mov	 esi, ecx
  0000b	89 65 fc	 mov	 DWORD PTR $T674783[ebp], esp
  0000e	e8 00 00 00 00	 call	 ??0?$_List_val@MV?$allocator@M@std@@@std@@QAE@V?$allocator@M@1@@Z ; std::_List_val<float,std::allocator<float> >::_List_val<float,std::allocator<float> >

; 608  : 		}

  00013	8b c6		 mov	 eax, esi
  00015	5e		 pop	 esi
  00016	c9		 leave
  00017	c3		 ret	 0
??0?$list@MV?$allocator@M@std@@@std@@QAE@XZ ENDP	; std::list<float,std::allocator<float> >::list<float,std::allocator<float> >
_TEXT	ENDS
PUBLIC	?begin@?$list@MV?$allocator@M@std@@@std@@QAE?AV?$_List_iterator@V?$_List_val@MV?$allocator@M@std@@@std@@@2@XZ ; std::list<float,std::allocator<float> >::begin
; Function compile flags: /Ogsp
;	COMDAT ?begin@?$list@MV?$allocator@M@std@@@std@@QAE?AV?$_List_iterator@V?$_List_val@MV?$allocator@M@std@@@std@@@2@XZ
_TEXT	SEGMENT
___$ReturnUdt$ = 8					; size = 4
?begin@?$list@MV?$allocator@M@std@@@std@@QAE?AV?$_List_iterator@V?$_List_val@MV?$allocator@M@std@@@std@@@2@XZ PROC ; std::list<float,std::allocator<float> >::begin, COMDAT
; _this$ = ecx

; 781  : 		{	// return iterator for beginning of mutable sequence

  00000	55		 push	 ebp
  00001	8b ec		 mov	 ebp, esp

; 782  : 		return (iterator(this->_Nextnode(this->_Myhead), this));

  00003	8b 01		 mov	 eax, DWORD PTR [ecx]
  00005	8b 08		 mov	 ecx, DWORD PTR [eax]
  00007	8b 45 08	 mov	 eax, DWORD PTR ___$ReturnUdt$[ebp]
  0000a	89 08		 mov	 DWORD PTR [eax], ecx

; 783  : 		}

  0000c	5d		 pop	 ebp
  0000d	c2 04 00	 ret	 4
?begin@?$list@MV?$allocator@M@std@@@std@@QAE?AV?$_List_iterator@V?$_List_val@MV?$allocator@M@std@@@std@@@2@XZ ENDP ; std::list<float,std::allocator<float> >::begin
_TEXT	ENDS
PUBLIC	?end@?$list@MV?$allocator@M@std@@@std@@QAE?AV?$_List_iterator@V?$_List_val@MV?$allocator@M@std@@@std@@@2@XZ ; std::list<float,std::allocator<float> >::end
; Function compile flags: /Ogsp
;	COMDAT ?end@?$list@MV?$allocator@M@std@@@std@@QAE?AV?$_List_iterator@V?$_List_val@MV?$allocator@M@std@@@std@@@2@XZ
_TEXT	SEGMENT
___$ReturnUdt$ = 8					; size = 4
?end@?$list@MV?$allocator@M@std@@@std@@QAE?AV?$_List_iterator@V?$_List_val@MV?$allocator@M@std@@@std@@@2@XZ PROC ; std::list<float,std::allocator<float> >::end, COMDAT
; _this$ = ecx

; 791  : 		{	// return iterator for end of mutable sequence

  00000	55		 push	 ebp
  00001	8b ec		 mov	 ebp, esp

; 792  : 		return (iterator(this->_Myhead, this));

  00003	8b 09		 mov	 ecx, DWORD PTR [ecx]
  00005	8b 45 08	 mov	 eax, DWORD PTR ___$ReturnUdt$[ebp]
  00008	89 08		 mov	 DWORD PTR [eax], ecx

; 793  : 		}

  0000a	5d		 pop	 ebp
  0000b	c2 04 00	 ret	 4
?end@?$list@MV?$allocator@M@std@@@std@@QAE?AV?$_List_iterator@V?$_List_val@MV?$allocator@M@std@@@std@@@2@XZ ENDP ; std::list<float,std::allocator<float> >::end
_TEXT	ENDS
PUBLIC	?lower_bound@?$_Tree@V?$_Tmap_traits@HUtagDummyAttackInfo@@U?$less@H@std@@V?$allocator@U?$pair@$$CBHUtagDummyAttackInfo@@@std@@@3@$0A@@std@@@std@@QAE?AV?$_Tree_iterator@V?$_Tree_val@V?$_Tmap_traits@HUtagDummyAttackInfo@@U?$less@H@std@@V?$allocator@U?$pair@$$CBHUtagDummyAttackInfo@@@std@@@3@$0A@@std@@@std@@@2@ABH@Z ; std::_Tree<std::_Tmap_traits<int,tagDummyAttackInfo,std::less<int>,std::allocator<std::pair<int const ,tagDummyAttackInfo> >,0> >::lower_bound
; Function compile flags: /Ogsp
; File c:\program files (x86)\microsoft visual studio 10.0\vc\include\xtree
;	COMDAT ?lower_bound@?$_Tree@V?$_Tmap_traits@HUtagDummyAttackInfo@@U?$less@H@std@@V?$allocator@U?$pair@$$CBHUtagDummyAttackInfo@@@std@@@3@$0A@@std@@@std@@QAE?AV?$_Tree_iterator@V?$_Tree_val@V?$_Tmap_traits@HUtagDummyAttackInfo@@U?$less@H@std@@V?$allocator@U?$pair@$$CBHUtagDummyAttackInfo@@@std@@@3@$0A@@std@@@std@@@2@ABH@Z
_TEXT	SEGMENT
___$ReturnUdt$ = 8					; size = 4
__Keyval$ = 12						; size = 4
?lower_bound@?$_Tree@V?$_Tmap_traits@HUtagDummyAttackInfo@@U?$less@H@std@@V?$allocator@U?$pair@$$CBHUtagDummyAttackInfo@@@std@@@3@$0A@@std@@@std@@QAE?AV?$_Tree_iterator@V?$_Tree_val@V?$_Tmap_traits@HUtagDummyAttackInfo@@U?$less@H@std@@V?$allocator@U?$pair@$$CBHUtagDummyAttackInfo@@@std@@@3@$0A@@std@@@std@@@2@ABH@Z PROC ; std::_Tree<std::_Tmap_traits<int,tagDummyAttackInfo,std::less<int>,std::allocator<std::pair<int const ,tagDummyAttackInfo> >,0> >::lower_bound, COMDAT
; _this$ = ecx

; 1449 : 		{	// find leftmost node not less than _Keyval in mutable tree

  00000	55		 push	 ebp
  00001	8b ec		 mov	 ebp, esp

; 1450 : 		return (iterator(_Lbound(_Keyval), this));

  00003	ff 75 0c	 push	 DWORD PTR __Keyval$[ebp]
  00006	e8 00 00 00 00	 call	 ?_Lbound@?$_Tree@V?$_Tmap_traits@HUtagDummyAttackInfo@@U?$less@H@std@@V?$allocator@U?$pair@$$CBHUtagDummyAttackInfo@@@std@@@3@$0A@@std@@@std@@IAEPAU_Node@?$_Tree_nod@V?$_Tmap_traits@HUtagDummyAttackInfo@@U?$less@H@std@@V?$allocator@U?$pair@$$CBHUtagDummyAttackInfo@@@std@@@3@$0A@@std@@@2@ABH@Z ; std::_Tree<std::_Tmap_traits<int,tagDummyAttackInfo,std::less<int>,std::allocator<std::pair<int const ,tagDummyAttackInfo> >,0> >::_Lbound
  0000b	8b 4d 08	 mov	 ecx, DWORD PTR ___$ReturnUdt$[ebp]
  0000e	89 01		 mov	 DWORD PTR [ecx], eax
  00010	8b c1		 mov	 eax, ecx

; 1451 : 		}

  00012	5d		 pop	 ebp
  00013	c2 08 00	 ret	 8
?lower_bound@?$_Tree@V?$_Tmap_traits@HUtagDummyAttackInfo@@U?$less@H@std@@V?$allocator@U?$pair@$$CBHUtagDummyAttackInfo@@@std@@@3@$0A@@std@@@std@@QAE?AV?$_Tree_iterator@V?$_Tree_val@V?$_Tmap_traits@HUtagDummyAttackInfo@@U?$less@H@std@@V?$allocator@U?$pair@$$CBHUtagDummyAttackInfo@@@std@@@3@$0A@@std@@@std@@@2@ABH@Z ENDP ; std::_Tree<std::_Tmap_traits<int,tagDummyAttackInfo,std::less<int>,std::allocator<std::pair<int const ,tagDummyAttackInfo> >,0> >::lower_bound
_TEXT	ENDS
PUBLIC	?_Make_iter@?$list@UFireTime@@V?$allocator@UFireTime@@@std@@@std@@QBE?AV?$_List_iterator@V?$_List_val@UFireTime@@V?$allocator@UFireTime@@@std@@@std@@@2@V?$_List_const_iterator@V?$_List_val@UFireTime@@V?$allocator@UFireTime@@@std@@@std@@@2@@Z ; std::list<FireTime,std::allocator<FireTime> >::_Make_iter
; Function compile flags: /Ogsp
; File c:\program files (x86)\microsoft visual studio 10.0\vc\include\list
;	COMDAT ?_Make_iter@?$list@UFireTime@@V?$allocator@UFireTime@@@std@@@std@@QBE?AV?$_List_iterator@V?$_List_val@UFireTime@@V?$allocator@UFireTime@@@std@@@std@@@2@V?$_List_const_iterator@V?$_List_val@UFireTime@@V?$allocator@UFireTime@@@std@@@std@@@2@@Z
_TEXT	SEGMENT
___$ReturnUdt$ = 8					; size = 4
__Where$ = 12						; size = 4
?_Make_iter@?$list@UFireTime@@V?$allocator@UFireTime@@@std@@@std@@QBE?AV?$_List_iterator@V?$_List_val@UFireTime@@V?$allocator@UFireTime@@@std@@@std@@@2@V?$_List_const_iterator@V?$_List_val@UFireTime@@V?$allocator@UFireTime@@@std@@@std@@@2@@Z PROC ; std::list<FireTime,std::allocator<FireTime> >::_Make_iter, COMDAT
; _this$ = ecx

; 801  : 		{	// make iterator from const_iterator

  00000	55		 push	 ebp
  00001	8b ec		 mov	 ebp, esp

; 802  : 		return (iterator(_Where._Ptr, this));

  00003	8b 45 08	 mov	 eax, DWORD PTR ___$ReturnUdt$[ebp]
  00006	8b 4d 0c	 mov	 ecx, DWORD PTR __Where$[ebp]
  00009	89 08		 mov	 DWORD PTR [eax], ecx

; 803  : 		}

  0000b	5d		 pop	 ebp
  0000c	c2 08 00	 ret	 8
?_Make_iter@?$list@UFireTime@@V?$allocator@UFireTime@@@std@@@std@@QBE?AV?$_List_iterator@V?$_List_val@UFireTime@@V?$allocator@UFireTime@@@std@@@std@@@2@V?$_List_const_iterator@V?$_List_val@UFireTime@@V?$allocator@UFireTime@@@std@@@std@@@2@@Z ENDP ; std::list<FireTime,std::allocator<FireTime> >::_Make_iter
_TEXT	ENDS
PUBLIC	?_Tidy@?$vector@PBUAniEventTime@@V?$allocator@PBUAniEventTime@@@std@@@std@@IAEXXZ ; std::vector<AniEventTime const *,std::allocator<AniEventTime const *> >::_Tidy
EXTRN	__imp_?_Orphan_all@_Container_base0@std@@QAEXXZ:PROC
; Function compile flags: /Ogsp
; File c:\program files (x86)\microsoft visual studio 10.0\vc\include\vector
;	COMDAT ?_Tidy@?$vector@PBUAniEventTime@@V?$allocator@PBUAniEventTime@@@std@@@std@@IAEXXZ
_TEXT	SEGMENT
?_Tidy@?$vector@PBUAniEventTime@@V?$allocator@PBUAniEventTime@@@std@@@std@@IAEXXZ PROC ; std::vector<AniEventTime const *,std::allocator<AniEventTime const *> >::_Tidy, COMDAT
; _this$ = ecx

; 1301 : 		{	// free all storage

  00000	56		 push	 esi
  00001	8b f1		 mov	 esi, ecx

; 1302 : 		if (this->_Myfirst != 0)

  00003	83 3e 00	 cmp	 DWORD PTR [esi], 0
  00006	74 0e		 je	 SHORT $LN12@Tidy@2

; 1303 : 			{	// something to free, destroy and deallocate it
; 1304 : 			this->_Orphan_all();

  00008	ff 15 00 00 00
	00		 call	 DWORD PTR __imp_?_Orphan_all@_Container_base0@std@@QAEXXZ

; 1305 : 			_Destroy(this->_Myfirst, this->_Mylast);
; 1306 : 			this->_Alval.deallocate(this->_Myfirst,
; 1307 : 				this->_Myend - this->_Myfirst);

  0000e	ff 36		 push	 DWORD PTR [esi]
  00010	e8 00 00 00 00	 call	 ??3@YAXPAX@Z		; operator delete
  00015	59		 pop	 ecx
$LN12@Tidy@2:

; 1308 : 			}
; 1309 : 		this->_Myfirst = 0;

  00016	83 26 00	 and	 DWORD PTR [esi], 0

; 1310 : 		this->_Mylast = 0;

  00019	83 66 04 00	 and	 DWORD PTR [esi+4], 0

; 1311 : 		this->_Myend = 0;

  0001d	83 66 08 00	 and	 DWORD PTR [esi+8], 0
  00021	5e		 pop	 esi

; 1312 : 		}

  00022	c3		 ret	 0
?_Tidy@?$vector@PBUAniEventTime@@V?$allocator@PBUAniEventTime@@@std@@@std@@IAEXXZ ENDP ; std::vector<AniEventTime const *,std::allocator<AniEventTime const *> >::_Tidy
_TEXT	ENDS
PUBLIC	?clear@?$list@MV?$allocator@M@std@@@std@@QAEXXZ	; std::list<float,std::allocator<float> >::clear
; Function compile flags: /Ogsp
; File c:\program files (x86)\microsoft visual studio 10.0\vc\include\list
;	COMDAT ?clear@?$list@MV?$allocator@M@std@@@std@@QAEXXZ
_TEXT	SEGMENT
?clear@?$list@MV?$allocator@M@std@@@std@@QAEXXZ PROC	; std::list<float,std::allocator<float> >::clear, COMDAT
; _this$ = ecx

; 1096 : 		{	// erase all

  00000	56		 push	 esi
  00001	8b f1		 mov	 esi, ecx

; 1097 :  #if _ITERATOR_DEBUG_LEVEL == 2
; 1098 : 		this->_Orphan_ptr(*this, 0);
; 1099 :  #endif /* _ITERATOR_DEBUG_LEVEL == 2 */
; 1100 : 
; 1101 : 		_Nodeptr _Pnext;
; 1102 : 		_Nodeptr _Pnode = this->_Nextnode(this->_Myhead);

  00003	8b 06		 mov	 eax, DWORD PTR [esi]
  00005	8b 08		 mov	 ecx, DWORD PTR [eax]

; 1103 : 		this->_Nextnode(this->_Myhead) = this->_Myhead;

  00007	89 00		 mov	 DWORD PTR [eax], eax

; 1104 : 		this->_Prevnode(this->_Myhead) = this->_Myhead;

  00009	8b 06		 mov	 eax, DWORD PTR [esi]
  0000b	89 40 04	 mov	 DWORD PTR [eax+4], eax

; 1105 : 		this->_Mysize = 0;

  0000e	83 66 04 00	 and	 DWORD PTR [esi+4], 0

; 1106 : 
; 1107 : 		for (; _Pnode != this->_Myhead; _Pnode = _Pnext)

  00012	3b 0e		 cmp	 ecx, DWORD PTR [esi]
  00014	74 11		 je	 SHORT $LN1@clear
  00016	57		 push	 edi
$LL3@clear:

; 1108 : 			{	// delete an element
; 1109 : 			_Pnext = this->_Nextnode(_Pnode);

  00017	8b 39		 mov	 edi, DWORD PTR [ecx]

; 1110 : 
; 1111 : 			_Dest_val(this->_Alnod, _Pnode);
; 1112 : 			this->_Alnod.deallocate(_Pnode, 1);

  00019	51		 push	 ecx
  0001a	e8 00 00 00 00	 call	 ??3@YAXPAX@Z		; operator delete
  0001f	59		 pop	 ecx
  00020	8b cf		 mov	 ecx, edi
  00022	3b 3e		 cmp	 edi, DWORD PTR [esi]
  00024	75 f1		 jne	 SHORT $LL3@clear
  00026	5f		 pop	 edi
$LN1@clear:
  00027	5e		 pop	 esi

; 1113 : 			}
; 1114 : 		}

  00028	c3		 ret	 0
?clear@?$list@MV?$allocator@M@std@@@std@@QAEXXZ ENDP	; std::list<float,std::allocator<float> >::clear
_TEXT	ENDS
PUBLIC	??$_Cons_val@V?$allocator@UFireTime@@@std@@UFireTime@@ABU3@@std@@YAXAAV?$allocator@UFireTime@@@0@PAUFireTime@@ABU2@@Z ; std::_Cons_val<std::allocator<FireTime>,FireTime,FireTime const &>
; Function compile flags: /Ogsp
; File c:\program files (x86)\microsoft visual studio 10.0\vc\include\xmemory
;	COMDAT ??$_Cons_val@V?$allocator@UFireTime@@@std@@UFireTime@@ABU3@@std@@YAXAAV?$allocator@UFireTime@@@0@PAUFireTime@@ABU2@@Z
_TEXT	SEGMENT
__Alval$ = 8						; size = 4
__Pdest$ = 12						; size = 4
__Src$ = 16						; size = 4
??$_Cons_val@V?$allocator@UFireTime@@@std@@UFireTime@@ABU3@@std@@YAXAAV?$allocator@UFireTime@@@0@PAUFireTime@@ABU2@@Z PROC ; std::_Cons_val<std::allocator<FireTime>,FireTime,FireTime const &>, COMDAT

; 279  : 	{	// construct using allocator

  00000	55		 push	 ebp
  00001	8b ec		 mov	 ebp, esp

; 280  : 	_Alval.construct(_Pdest, _STD forward<_Ty2>(_Src));

  00003	ff 75 10	 push	 DWORD PTR __Src$[ebp]
  00006	ff 75 0c	 push	 DWORD PTR __Pdest$[ebp]
  00009	e8 00 00 00 00	 call	 ??$_Construct@UFireTime@@ABU1@@std@@YAXPAUFireTime@@ABU1@@Z ; std::_Construct<FireTime,FireTime const &>
  0000e	59		 pop	 ecx
  0000f	59		 pop	 ecx

; 281  : 	}

  00010	5d		 pop	 ebp
  00011	c3		 ret	 0
??$_Cons_val@V?$allocator@UFireTime@@@std@@UFireTime@@ABU3@@std@@YAXAAV?$allocator@UFireTime@@@0@PAUFireTime@@ABU2@@Z ENDP ; std::_Cons_val<std::allocator<FireTime>,FireTime,FireTime const &>
_TEXT	ENDS
PUBLIC	?destroy@?$allocator@U_Node@?$_List_nod@UFireTime@@V?$allocator@UFireTime@@@std@@@std@@@std@@QAEXPAU_Node@?$_List_nod@UFireTime@@V?$allocator@UFireTime@@@std@@@2@@Z ; std::allocator<std::_List_nod<FireTime,std::allocator<FireTime> >::_Node>::destroy
; Function compile flags: /Ogsp
;	COMDAT ?destroy@?$allocator@U_Node@?$_List_nod@UFireTime@@V?$allocator@UFireTime@@@std@@@std@@@std@@QAEXPAU_Node@?$_List_nod@UFireTime@@V?$allocator@UFireTime@@@std@@@2@@Z
_TEXT	SEGMENT
__Ptr$ = 8						; size = 4
?destroy@?$allocator@U_Node@?$_List_nod@UFireTime@@V?$allocator@UFireTime@@@std@@@std@@@std@@QAEXPAU_Node@?$_List_nod@UFireTime@@V?$allocator@UFireTime@@@std@@@2@@Z PROC ; std::allocator<std::_List_nod<FireTime,std::allocator<FireTime> >::_Node>::destroy, COMDAT
; _this$ = ecx

; 212  : 		{	// destroy object at _Ptr

  00000	55		 push	 ebp
  00001	8b ec		 mov	 ebp, esp

; 213  : 		_Destroy(_Ptr);

  00003	8b 4d 08	 mov	 ecx, DWORD PTR __Ptr$[ebp]
  00006	83 c1 08	 add	 ecx, 8
  00009	e8 00 00 00 00	 call	 ??1FireTime@@QAE@XZ

; 214  : 		}

  0000e	5d		 pop	 ebp
  0000f	c2 04 00	 ret	 4
?destroy@?$allocator@U_Node@?$_List_nod@UFireTime@@V?$allocator@UFireTime@@@std@@@std@@@std@@QAEXPAU_Node@?$_List_nod@UFireTime@@V?$allocator@UFireTime@@@std@@@2@@Z ENDP ; std::allocator<std::_List_nod<FireTime,std::allocator<FireTime> >::_Node>::destroy
_TEXT	ENDS
PUBLIC	??$_Destroy_range@V?$allocator@UExtraAniJump@@@std@@@std@@YAXPAUExtraAniJump@@0AAV?$allocator@UExtraAniJump@@@0@U_Nonscalar_ptr_iterator_tag@0@@Z ; std::_Destroy_range<std::allocator<ExtraAniJump> >
; Function compile flags: /Ogsp
;	COMDAT ??$_Destroy_range@V?$allocator@UExtraAniJump@@@std@@@std@@YAXPAUExtraAniJump@@0AAV?$allocator@UExtraAniJump@@@0@U_Nonscalar_ptr_iterator_tag@0@@Z
_TEXT	SEGMENT
__First$ = 8						; size = 4
__Last$ = 12						; size = 4
__Al$ = 16						; size = 4
___formal$ = 20						; size = 1
??$_Destroy_range@V?$allocator@UExtraAniJump@@@std@@@std@@YAXPAUExtraAniJump@@0AAV?$allocator@UExtraAniJump@@@0@U_Nonscalar_ptr_iterator_tag@0@@Z PROC ; std::_Destroy_range<std::allocator<ExtraAniJump> >, COMDAT

; 96   : 	for (; _First != _Last; ++_First)
; 97   : 		_Dest_val(_Al, _First);
; 98   : 	}

  00000	c3		 ret	 0
??$_Destroy_range@V?$allocator@UExtraAniJump@@@std@@@std@@YAXPAUExtraAniJump@@0AAV?$allocator@UExtraAniJump@@@0@U_Nonscalar_ptr_iterator_tag@0@@Z ENDP ; std::_Destroy_range<std::allocator<ExtraAniJump> >
_TEXT	ENDS
PUBLIC	??$_Uninit_move@PAUExtraAniJump@@PAU1@V?$allocator@UExtraAniJump@@@std@@U1@@std@@YAPAUExtraAniJump@@PAU1@00AAV?$allocator@UExtraAniJump@@@0@0U_Nonscalar_ptr_iterator_tag@0@@Z ; std::_Uninit_move<ExtraAniJump *,ExtraAniJump *,std::allocator<ExtraAniJump>,ExtraAniJump>
; Function compile flags: /Ogsp
; File c:\program files (x86)\microsoft visual studio 10.0\vc\include\memory
;	COMDAT ??$_Uninit_move@PAUExtraAniJump@@PAU1@V?$allocator@UExtraAniJump@@@std@@U1@@std@@YAPAUExtraAniJump@@PAU1@00AAV?$allocator@UExtraAniJump@@@0@0U_Nonscalar_ptr_iterator_tag@0@@Z
_TEXT	SEGMENT
__First$ = 8						; size = 4
__Last$ = 12						; size = 4
__Dest$ = 16						; size = 4
__Al$ = 20						; size = 4
___formal$ = 24						; size = 4
___formal$ = 28						; size = 1
??$_Uninit_move@PAUExtraAniJump@@PAU1@V?$allocator@UExtraAniJump@@@std@@U1@@std@@YAPAUExtraAniJump@@PAU1@00AAV?$allocator@UExtraAniJump@@@0@0U_Nonscalar_ptr_iterator_tag@0@@Z PROC ; std::_Uninit_move<ExtraAniJump *,ExtraAniJump *,std::allocator<ExtraAniJump>,ExtraAniJump>, COMDAT

; 424  : 	{	// move [_First, _Last) to raw _Dest, using _Al, arbitrary type

  00000	55		 push	 ebp
  00001	8b ec		 mov	 ebp, esp
  00003	56		 push	 esi

; 425  : 	_DEBUG_RANGE(_First, _Last);
; 426  : 	_DEBUG_POINTER(_Dest);
; 427  : 	_FwdIt _Next = _Dest;
; 428  : 
; 429  : 	_TRY_BEGIN
; 430  : 	for (; _First != _Last; ++_Dest, ++_First)

  00004	8b 75 08	 mov	 esi, DWORD PTR __First$[ebp]
  00007	eb 16		 jmp	 SHORT $LN24@Uninit_mov
$LL6@Uninit_mov:

; 431  : 		_Cons_val(_Al, _Dest, (_Valty &&)*_First);

  00009	56		 push	 esi
  0000a	ff 75 10	 push	 DWORD PTR __Dest$[ebp]
  0000d	ff 75 14	 push	 DWORD PTR __Al$[ebp]
  00010	e8 00 00 00 00	 call	 ??$_Cons_val@V?$allocator@UExtraAniJump@@@std@@UExtraAniJump@@U3@@std@@YAXAAV?$allocator@UExtraAniJump@@@0@PAUExtraAniJump@@$$QAU2@@Z ; std::_Cons_val<std::allocator<ExtraAniJump>,ExtraAniJump,ExtraAniJump>
  00015	83 45 10 08	 add	 DWORD PTR __Dest$[ebp], 8
  00019	83 c4 0c	 add	 esp, 12			; 0000000cH
  0001c	83 c6 08	 add	 esi, 8
$LN24@Uninit_mov:

; 425  : 	_DEBUG_RANGE(_First, _Last);
; 426  : 	_DEBUG_POINTER(_Dest);
; 427  : 	_FwdIt _Next = _Dest;
; 428  : 
; 429  : 	_TRY_BEGIN
; 430  : 	for (; _First != _Last; ++_Dest, ++_First)

  0001f	3b 75 0c	 cmp	 esi, DWORD PTR __Last$[ebp]
  00022	75 e5		 jne	 SHORT $LL6@Uninit_mov

; 432  : 	_CATCH_ALL
; 433  : 	for (; _Next != _Dest; ++_Next)
; 434  : 		_Dest_val(_Al, _Next);
; 435  : 	_RERAISE;
; 436  : 	_CATCH_END
; 437  : 	return (_Dest);

  00024	8b 45 10	 mov	 eax, DWORD PTR __Dest$[ebp]
  00027	5e		 pop	 esi

; 438  : 	}

  00028	5d		 pop	 ebp
  00029	c3		 ret	 0
??$_Uninit_move@PAUExtraAniJump@@PAU1@V?$allocator@UExtraAniJump@@@std@@U1@@std@@YAPAUExtraAniJump@@PAU1@00AAV?$allocator@UExtraAniJump@@@0@0U_Nonscalar_ptr_iterator_tag@0@@Z ENDP ; std::_Uninit_move<ExtraAniJump *,ExtraAniJump *,std::allocator<ExtraAniJump>,ExtraAniJump>
_TEXT	ENDS
PUBLIC	??1?$basic_string@DU?$char_traits@D@std@@V?$allocator@D@2@@std@@QAE@XZ ; std::basic_string<char,std::char_traits<char>,std::allocator<char> >::~basic_string<char,std::char_traits<char>,std::allocator<char> >
; Function compile flags: /Ogsp
; File c:\program files (x86)\microsoft visual studio 10.0\vc\include\xstring
;	COMDAT ??1?$basic_string@DU?$char_traits@D@std@@V?$allocator@D@2@@std@@QAE@XZ
_TEXT	SEGMENT
??1?$basic_string@DU?$char_traits@D@std@@V?$allocator@D@2@@std@@QAE@XZ PROC ; std::basic_string<char,std::char_traits<char>,std::allocator<char> >::~basic_string<char,std::char_traits<char>,std::allocator<char> >, COMDAT
; _this$ = ecx

; 754  : 		_Tidy(true);

  00000	6a 00		 push	 0
  00002	6a 01		 push	 1
  00004	e8 00 00 00 00	 call	 ?_Tidy@?$basic_string@DU?$char_traits@D@std@@V?$allocator@D@2@@std@@QAEX_NI@Z ; std::basic_string<char,std::char_traits<char>,std::allocator<char> >::_Tidy

; 755  : 		}

  00009	c3		 ret	 0
??1?$basic_string@DU?$char_traits@D@std@@V?$allocator@D@2@@std@@QAE@XZ ENDP ; std::basic_string<char,std::char_traits<char>,std::allocator<char> >::~basic_string<char,std::char_traits<char>,std::allocator<char> >
_TEXT	ENDS
PUBLIC	?erase@?$vector@HV?$allocator@H@std@@@std@@QAE?AV?$_Vector_iterator@V?$_Vector_val@HV?$allocator@H@std@@@std@@@2@V?$_Vector_const_iterator@V?$_Vector_val@HV?$allocator@H@std@@@std@@@2@0@Z ; std::vector<int,std::allocator<int> >::erase
; Function compile flags: /Ogsp
; File c:\program files (x86)\microsoft visual studio 10.0\vc\include\vector
;	COMDAT ?erase@?$vector@HV?$allocator@H@std@@@std@@QAE?AV?$_Vector_iterator@V?$_Vector_val@HV?$allocator@H@std@@@std@@@2@V?$_Vector_const_iterator@V?$_Vector_val@HV?$allocator@H@std@@@std@@@2@0@Z
_TEXT	SEGMENT
___$ReturnUdt$ = 8					; size = 4
__First_arg$ = 12					; size = 4
__Cat$675125 = 16					; size = 1
__Last_arg$ = 16					; size = 4
?erase@?$vector@HV?$allocator@H@std@@@std@@QAE?AV?$_Vector_iterator@V?$_Vector_val@HV?$allocator@H@std@@@std@@@2@V?$_Vector_const_iterator@V?$_Vector_val@HV?$allocator@H@std@@@std@@@2@0@Z PROC ; std::vector<int,std::allocator<int> >::erase, COMDAT
; _this$ = ecx

; 1190 : 		{	// erase [_First, _Last)

  00000	55		 push	 ebp
  00001	8b ec		 mov	 ebp, esp

; 1191 : 		iterator _First = _Make_iter(_First_arg);

  00003	8b 45 0c	 mov	 eax, DWORD PTR __First_arg$[ebp]
  00006	56		 push	 esi
  00007	57		 push	 edi
  00008	8b 7d 08	 mov	 edi, DWORD PTR ___$ReturnUdt$[ebp]
  0000b	8b f1		 mov	 esi, ecx
  0000d	89 07		 mov	 DWORD PTR [edi], eax

; 1192 : 		iterator _Last = _Make_iter(_Last_arg);
; 1193 : 
; 1194 : 		if (_First != _Last)

  0000f	3b 45 10	 cmp	 eax, DWORD PTR __Last_arg$[ebp]
  00012	74 16		 je	 SHORT $LN1@erase@2

; 1195 : 			{	// worth doing, copy down over hole
; 1196 :  #if _ITERATOR_DEBUG_LEVEL == 2
; 1197 : 			if (_Last < _First || _VICONT(_First) != this
; 1198 : 				|| _VIPTR(_First) < this->_Myfirst
; 1199 : 				|| this->_Mylast < _VIPTR(_Last))
; 1200 : 				_DEBUG_ERROR("vector erase iterator outside range");
; 1201 : 			pointer _Ptr = _Move(_VIPTR(_Last), this->_Mylast,
; 1202 : 				_VIPTR(_First));
; 1203 : 			_Orphan_range(_VIPTR(_First), this->_Mylast);
; 1204 : 
; 1205 :  #else /* _ITERATOR_DEBUG_LEVEL == 2 */
; 1206 : 			pointer _Ptr = _Move(_VIPTR(_Last), this->_Mylast,
; 1207 : 				_VIPTR(_First));

  00014	ff 75 10	 push	 DWORD PTR __Cat$675125[ebp]
  00017	8b 4e 04	 mov	 ecx, DWORD PTR [esi+4]
  0001a	50		 push	 eax
  0001b	51		 push	 ecx
  0001c	ff 75 10	 push	 DWORD PTR __Last_arg$[ebp]
  0001f	e8 00 00 00 00	 call	 ??$_Move@PAHPAH@std@@YAPAHPAH00U_Scalar_ptr_iterator_tag@0@@Z ; std::_Move<int *,int *>
  00024	83 c4 10	 add	 esp, 16			; 00000010H

; 1208 :  #endif /* _ITERATOR_DEBUG_LEVEL == 2 */
; 1209 : 
; 1210 : 			_Destroy(_Ptr, this->_Mylast);
; 1211 : 			this->_Mylast = _Ptr;

  00027	89 46 04	 mov	 DWORD PTR [esi+4], eax
$LN1@erase@2:

; 1212 : 			}
; 1213 : 		return (_First);

  0002a	8b c7		 mov	 eax, edi
  0002c	5f		 pop	 edi
  0002d	5e		 pop	 esi

; 1214 : 		}

  0002e	5d		 pop	 ebp
  0002f	c2 0c 00	 ret	 12			; 0000000cH
?erase@?$vector@HV?$allocator@H@std@@@std@@QAE?AV?$_Vector_iterator@V?$_Vector_val@HV?$allocator@H@std@@@std@@@2@V?$_Vector_const_iterator@V?$_Vector_val@HV?$allocator@H@std@@@std@@@2@0@Z ENDP ; std::vector<int,std::allocator<int> >::erase
_TEXT	ENDS
PUBLIC	?_Tidy@?$vector@HV?$allocator@H@std@@@std@@IAEXXZ ; std::vector<int,std::allocator<int> >::_Tidy
; Function compile flags: /Ogsp
;	COMDAT ?_Tidy@?$vector@HV?$allocator@H@std@@@std@@IAEXXZ
_TEXT	SEGMENT
?_Tidy@?$vector@HV?$allocator@H@std@@@std@@IAEXXZ PROC	; std::vector<int,std::allocator<int> >::_Tidy, COMDAT
; _this$ = ecx

; 1301 : 		{	// free all storage

  00000	56		 push	 esi
  00001	8b f1		 mov	 esi, ecx

; 1302 : 		if (this->_Myfirst != 0)

  00003	83 3e 00	 cmp	 DWORD PTR [esi], 0
  00006	74 0e		 je	 SHORT $LN12@Tidy@3

; 1303 : 			{	// something to free, destroy and deallocate it
; 1304 : 			this->_Orphan_all();

  00008	ff 15 00 00 00
	00		 call	 DWORD PTR __imp_?_Orphan_all@_Container_base0@std@@QAEXXZ

; 1305 : 			_Destroy(this->_Myfirst, this->_Mylast);
; 1306 : 			this->_Alval.deallocate(this->_Myfirst,
; 1307 : 				this->_Myend - this->_Myfirst);

  0000e	ff 36		 push	 DWORD PTR [esi]
  00010	e8 00 00 00 00	 call	 ??3@YAXPAX@Z		; operator delete
  00015	59		 pop	 ecx
$LN12@Tidy@3:

; 1308 : 			}
; 1309 : 		this->_Myfirst = 0;

  00016	83 26 00	 and	 DWORD PTR [esi], 0

; 1310 : 		this->_Mylast = 0;

  00019	83 66 04 00	 and	 DWORD PTR [esi+4], 0

; 1311 : 		this->_Myend = 0;

  0001d	83 66 08 00	 and	 DWORD PTR [esi+8], 0
  00021	5e		 pop	 esi

; 1312 : 		}

  00022	c3		 ret	 0
?_Tidy@?$vector@HV?$allocator@H@std@@@std@@IAEXXZ ENDP	; std::vector<int,std::allocator<int> >::_Tidy
_TEXT	ENDS
PUBLIC	?_Grow@?$basic_string@DU?$char_traits@D@std@@V?$allocator@D@2@@std@@QAE_NI_N@Z ; std::basic_string<char,std::char_traits<char>,std::allocator<char> >::_Grow
; Function compile flags: /Ogsp
; File c:\program files (x86)\microsoft visual studio 10.0\vc\include\xstring
;	COMDAT ?_Grow@?$basic_string@DU?$char_traits@D@std@@V?$allocator@D@2@@std@@QAE_NI_N@Z
_TEXT	SEGMENT
__Newsize$ = 8						; size = 4
__Trim$ = 12						; size = 1
?_Grow@?$basic_string@DU?$char_traits@D@std@@V?$allocator@D@2@@std@@QAE_NI_N@Z PROC ; std::basic_string<char,std::char_traits<char>,std::allocator<char> >::_Grow, COMDAT
; _this$ = ecx

; 1959 : 		{	// ensure buffer is big enough, trim to size if _Trim is true

  00000	55		 push	 ebp
  00001	8b ec		 mov	 ebp, esp
  00003	56		 push	 esi

; 1960 : 		if (max_size() < _Newsize)

  00004	8b 75 08	 mov	 esi, DWORD PTR __Newsize$[ebp]
  00007	83 fe fe	 cmp	 esi, -2			; fffffffeH
  0000a	76 0b		 jbe	 SHORT $LN6@Grow

; 1961 : 			_Xlen();	// result too long

  0000c	68 00 00 00 00	 push	 OFFSET ??_C@_0BA@JFNIOLAK@string?5too?5long?$AA@
  00011	ff 15 00 00 00
	00		 call	 DWORD PTR __imp_?_Xlength_error@std@@YAXPBD@Z
$LN31@Grow:
$LN6@Grow:

; 1962 : 		if (this->_Myres < _Newsize)

  00017	8b 41 14	 mov	 eax, DWORD PTR [ecx+20]
  0001a	3b c6		 cmp	 eax, esi
  0001c	73 0b		 jae	 SHORT $LN5@Grow

; 1963 : 			_Copy(_Newsize, this->_Mysize);	// reallocate to grow

  0001e	ff 71 10	 push	 DWORD PTR [ecx+16]
  00021	56		 push	 esi
  00022	e8 00 00 00 00	 call	 ?_Copy@?$basic_string@DU?$char_traits@D@std@@V?$allocator@D@2@@std@@QAEXII@Z ; std::basic_string<char,std::char_traits<char>,std::allocator<char> >::_Copy
  00027	eb 2e		 jmp	 SHORT $LN28@Grow
$LN5@Grow:

; 1964 : 		else if (_Trim && _Newsize < this->_BUF_SIZE)

  00029	33 d2		 xor	 edx, edx
  0002b	38 55 0c	 cmp	 BYTE PTR __Trim$[ebp], dl
  0002e	74 17		 je	 SHORT $LN3@Grow
  00030	83 fe 10	 cmp	 esi, 16			; 00000010H
  00033	73 12		 jae	 SHORT $LN3@Grow

; 1965 : 			_Tidy(true,	// copy and deallocate if trimming to small string
; 1966 : 				_Newsize < this->_Mysize ? _Newsize : this->_Mysize);

  00035	8b 41 10	 mov	 eax, DWORD PTR [ecx+16]
  00038	3b f0		 cmp	 esi, eax
  0003a	0f 42 c6	 cmovb	 eax, esi
  0003d	50		 push	 eax
  0003e	6a 01		 push	 1
  00040	e8 00 00 00 00	 call	 ?_Tidy@?$basic_string@DU?$char_traits@D@std@@V?$allocator@D@2@@std@@QAEX_NI@Z ; std::basic_string<char,std::char_traits<char>,std::allocator<char> >::_Tidy
  00045	eb 10		 jmp	 SHORT $LN28@Grow
$LN3@Grow:

; 1967 : 		else if (_Newsize == 0)

  00047	3b f2		 cmp	 esi, edx
  00049	75 0c		 jne	 SHORT $LN28@Grow

; 1968 : 			_Eos(0);	// new size is zero, just null terminate

  0004b	89 51 10	 mov	 DWORD PTR [ecx+16], edx
  0004e	83 f8 10	 cmp	 eax, 16			; 00000010H
  00051	72 02		 jb	 SHORT $LN26@Grow
  00053	8b 09		 mov	 ecx, DWORD PTR [ecx]
$LN26@Grow:
  00055	88 11		 mov	 BYTE PTR [ecx], dl
$LN28@Grow:

; 1969 : 		return (0 < _Newsize);	// return true only if more work to do

  00057	33 c0		 xor	 eax, eax
  00059	3b c6		 cmp	 eax, esi
  0005b	1b c0		 sbb	 eax, eax
  0005d	f7 d8		 neg	 eax
  0005f	5e		 pop	 esi

; 1970 : 		}

  00060	5d		 pop	 ebp
  00061	c2 08 00	 ret	 8
$LN30@Grow:
?_Grow@?$basic_string@DU?$char_traits@D@std@@V?$allocator@D@2@@std@@QAE_NI_N@Z ENDP ; std::basic_string<char,std::char_traits<char>,std::allocator<char> >::_Grow
_TEXT	ENDS
PUBLIC	?reserve@?$vector@HV?$allocator@H@std@@@std@@QAEXI@Z ; std::vector<int,std::allocator<int> >::reserve
; Function compile flags: /Ogsp
; File c:\program files (x86)\microsoft visual studio 10.0\vc\include\vector
;	COMDAT ?reserve@?$vector@HV?$allocator@H@std@@@std@@QAEXI@Z
_TEXT	SEGMENT
__Count$ = 8						; size = 4
?reserve@?$vector@HV?$allocator@H@std@@@std@@QAEXI@Z PROC ; std::vector<int,std::allocator<int> >::reserve, COMDAT
; _this$ = ecx

; 746  : 		{	// determine new minimum length of allocated storage

  00000	55		 push	 ebp
  00001	8b ec		 mov	 ebp, esp

; 747  : 		if (max_size() < _Count)

  00003	81 7d 08 ff ff
	ff 3f		 cmp	 DWORD PTR __Count$[ebp], 1073741823 ; 3fffffffH
  0000a	56		 push	 esi
  0000b	8b f1		 mov	 esi, ecx
  0000d	76 0b		 jbe	 SHORT $LN5@reserve

; 748  : 			_Xlen();	// result too long

  0000f	68 00 00 00 00	 push	 OFFSET ??_C@_0BD@OLBABOEK@vector?$DMT?$DO?5too?5long?$AA@
  00014	ff 15 00 00 00
	00		 call	 DWORD PTR __imp_?_Xlength_error@std@@YAXPBD@Z
$LN43@reserve:
$LN5@reserve:

; 749  : 		else if (capacity() < _Count)

  0001a	8b 46 08	 mov	 eax, DWORD PTR [esi+8]
  0001d	2b 06		 sub	 eax, DWORD PTR [esi]
  0001f	c1 f8 02	 sar	 eax, 2
  00022	3b 45 08	 cmp	 eax, DWORD PTR __Count$[ebp]
  00025	73 52		 jae	 SHORT $LN3@reserve

; 750  : 			{	// not enough room, reallocate
; 751  : 			pointer _Ptr = this->_Alval.allocate(_Count);

  00027	53		 push	 ebx
  00028	57		 push	 edi
  00029	6a 00		 push	 0
  0002b	ff 75 08	 push	 DWORD PTR __Count$[ebp]
  0002e	e8 00 00 00 00	 call	 ??$_Allocate@H@std@@YAPAHIPAH@Z ; std::_Allocate<int>

; 752  : 
; 753  : 			_TRY_BEGIN
; 754  : 			_Umove(this->_Myfirst, this->_Mylast, _Ptr);

  00033	8b 0e		 mov	 ecx, DWORD PTR [esi]
  00035	8d 56 0c	 lea	 edx, DWORD PTR [esi+12]
  00038	52		 push	 edx
  00039	8b d8		 mov	 ebx, eax
  0003b	8b 46 04	 mov	 eax, DWORD PTR [esi+4]
  0003e	53		 push	 ebx
  0003f	50		 push	 eax
  00040	51		 push	 ecx
  00041	e8 00 00 00 00	 call	 ??$_Uninitialized_move@PAHPAHV?$allocator@H@std@@@std@@YAPAHPAH00AAV?$allocator@H@0@@Z ; std::_Uninitialized_move<int *,int *,std::allocator<int> >

; 755  : 			_CATCH_ALL
; 756  : 			this->_Alval.deallocate(_Ptr, _Count);
; 757  : 			_RERAISE;
; 758  : 			_CATCH_END
; 759  : 
; 760  : 			size_type _Size = size();

  00046	8b 06		 mov	 eax, DWORD PTR [esi]
  00048	8b 7e 04	 mov	 edi, DWORD PTR [esi+4]
  0004b	2b f8		 sub	 edi, eax
  0004d	83 c4 18	 add	 esp, 24			; 00000018H
  00050	c1 ff 02	 sar	 edi, 2

; 761  : 			if (this->_Myfirst != 0)

  00053	85 c0		 test	 eax, eax
  00055	74 07		 je	 SHORT $LN39@reserve

; 762  : 				{	// destroy and deallocate old array
; 763  : 				_Destroy(this->_Myfirst, this->_Mylast);
; 764  : 				this->_Alval.deallocate(this->_Myfirst,
; 765  : 					this->_Myend - this->_Myfirst);

  00057	50		 push	 eax
  00058	e8 00 00 00 00	 call	 ??3@YAXPAX@Z		; operator delete
  0005d	59		 pop	 ecx
$LN39@reserve:

; 766  : 				}
; 767  : 
; 768  : 			this->_Orphan_all();

  0005e	8b ce		 mov	 ecx, esi
  00060	ff 15 00 00 00
	00		 call	 DWORD PTR __imp_?_Orphan_all@_Container_base0@std@@QAEXXZ

; 769  : 			this->_Myend = _Ptr + _Count;

  00066	8b 45 08	 mov	 eax, DWORD PTR __Count$[ebp]
  00069	8d 04 83	 lea	 eax, DWORD PTR [ebx+eax*4]
  0006c	89 46 08	 mov	 DWORD PTR [esi+8], eax

; 770  : 			this->_Mylast = _Ptr + _Size;

  0006f	8d 04 bb	 lea	 eax, DWORD PTR [ebx+edi*4]
  00072	5f		 pop	 edi

; 771  : 			this->_Myfirst = _Ptr;

  00073	89 1e		 mov	 DWORD PTR [esi], ebx
  00075	89 46 04	 mov	 DWORD PTR [esi+4], eax
  00078	5b		 pop	 ebx
$LN3@reserve:
  00079	5e		 pop	 esi

; 772  : 			}
; 773  : 		}

  0007a	5d		 pop	 ebp
  0007b	c2 04 00	 ret	 4
$LN42@reserve:
?reserve@?$vector@HV?$allocator@H@std@@@std@@QAEXI@Z ENDP ; std::vector<int,std::allocator<int> >::reserve
_TEXT	ENDS
PUBLIC	?ClearMamaHahaWeaponList@ioMamaHahaDummy@@IAEXXZ ; ioMamaHahaDummy::ClearMamaHahaWeaponList
EXTRN	?FindWeapon@ioWeaponManager@@QAEPAVioWeapon@@PAVioBaseChar@@K@Z:PROC ; ioWeaponManager::FindWeapon
EXTRN	?GetSingleton@ioWeaponManager@@SAAAV1@XZ:PROC	; ioWeaponManager::GetSingleton
; Function compile flags: /Ogsp
; File d:\lost saga for developer\youtube\tutorial\source\src\lsclient\iomamahahadummy.cpp
;	COMDAT ?ClearMamaHahaWeaponList@ioMamaHahaDummy@@IAEXXZ
_TEXT	SEGMENT
$T675331 = -8						; size = 4
_pOwner$ = -4						; size = 4
?ClearMamaHahaWeaponList@ioMamaHahaDummy@@IAEXXZ PROC	; ioMamaHahaDummy::ClearMamaHahaWeaponList, COMDAT
; _this$ = ecx

; 1197 : {

  00000	55		 push	 ebp
  00001	8b ec		 mov	 ebp, esp
  00003	51		 push	 ecx
  00004	51		 push	 ecx
  00005	57		 push	 edi
  00006	8b f9		 mov	 edi, ecx

; 1198 : 	ioBaseChar *pOwner = GetOwner();

  00008	e8 00 00 00 00	 call	 ?GetOwner@ioDummyChar@@QBEPAVioBaseChar@@XZ ; ioDummyChar::GetOwner
  0000d	89 45 fc	 mov	 DWORD PTR _pOwner$[ebp], eax

; 1199 : 	if( !pOwner ) return;

  00010	85 c0		 test	 eax, eax
  00012	74 42		 je	 SHORT $LN2@ClearMamaH

; 1200 : 
; 1201 : 	IntVec::iterator iter = m_vMamaHahaWeaponList.begin();

  00014	53		 push	 ebx
  00015	56		 push	 esi
  00016	8b b7 00 16 00
	00		 mov	 esi, DWORD PTR [edi+5632]
  0001c	eb 2e		 jmp	 SHORT $LN38@ClearMamaH
$LL3@ClearMamaH:

; 1203 : 	{
; 1204 : 		ioWeapon *pWeapon = g_WeaponMgr.FindWeapon( pOwner, (*iter) );

  0001e	ff 36		 push	 DWORD PTR [esi]
  00020	ff 75 fc	 push	 DWORD PTR _pOwner$[ebp]
  00023	e8 00 00 00 00	 call	 ?GetSingleton@ioWeaponManager@@SAAAV1@XZ ; ioWeaponManager::GetSingleton
  00028	8b c8		 mov	 ecx, eax
  0002a	e8 00 00 00 00	 call	 ?FindWeapon@ioWeaponManager@@QAEPAVioWeapon@@PAVioBaseChar@@K@Z ; ioWeaponManager::FindWeapon

; 1205 : 		if( pWeapon )

  0002f	85 c0		 test	 eax, eax
  00031	74 07		 je	 SHORT $LN1@ClearMamaH

; 1206 : 		{
; 1207 : 			pWeapon->SetWeaponDead();

  00033	8b 10		 mov	 edx, DWORD PTR [eax]
  00035	8b c8		 mov	 ecx, eax
  00037	ff 52 4c	 call	 DWORD PTR [edx+76]
$LN1@ClearMamaH:

; 1208 : 		}
; 1209 : 
; 1210 : 		iter = m_vMamaHahaWeaponList.erase( iter );

  0003a	56		 push	 esi
  0003b	8d 45 f8	 lea	 eax, DWORD PTR $T675331[ebp]
  0003e	50		 push	 eax
  0003f	8d 8f 00 16 00
	00		 lea	 ecx, DWORD PTR [edi+5632]
  00045	e8 00 00 00 00	 call	 ?erase@?$vector@HV?$allocator@H@std@@@std@@QAE?AV?$_Vector_iterator@V?$_Vector_val@HV?$allocator@H@std@@@std@@@2@V?$_Vector_const_iterator@V?$_Vector_val@HV?$allocator@H@std@@@std@@@2@@Z ; std::vector<int,std::allocator<int> >::erase
  0004a	8b 30		 mov	 esi, DWORD PTR [eax]
$LN38@ClearMamaH:

; 1202 : 	while( iter != m_vMamaHahaWeaponList.end() )

  0004c	3b b7 04 16 00
	00		 cmp	 esi, DWORD PTR [edi+5636]
  00052	75 ca		 jne	 SHORT $LL3@ClearMamaH
  00054	5e		 pop	 esi
  00055	5b		 pop	 ebx
$LN2@ClearMamaH:
  00056	5f		 pop	 edi

; 1211 : 	}
; 1212 : }

  00057	c9		 leave
  00058	c3		 ret	 0
?ClearMamaHahaWeaponList@ioMamaHahaDummy@@IAEXXZ ENDP	; ioMamaHahaDummy::ClearMamaHahaWeaponList
_TEXT	ENDS
PUBLIC	?find@?$_Tree@V?$_Tmap_traits@HUtagDummyAttackInfo@@U?$less@H@std@@V?$allocator@U?$pair@$$CBHUtagDummyAttackInfo@@@std@@@3@$0A@@std@@@std@@QAE?AV?$_Tree_iterator@V?$_Tree_val@V?$_Tmap_traits@HUtagDummyAttackInfo@@U?$less@H@std@@V?$allocator@U?$pair@$$CBHUtagDummyAttackInfo@@@std@@@3@$0A@@std@@@std@@@2@ABH@Z ; std::_Tree<std::_Tmap_traits<int,tagDummyAttackInfo,std::less<int>,std::allocator<std::pair<int const ,tagDummyAttackInfo> >,0> >::find
; Function compile flags: /Ogsp
; File c:\program files (x86)\microsoft visual studio 10.0\vc\include\xtree
;	COMDAT ?find@?$_Tree@V?$_Tmap_traits@HUtagDummyAttackInfo@@U?$less@H@std@@V?$allocator@U?$pair@$$CBHUtagDummyAttackInfo@@@std@@@3@$0A@@std@@@std@@QAE?AV?$_Tree_iterator@V?$_Tree_val@V?$_Tmap_traits@HUtagDummyAttackInfo@@U?$less@H@std@@V?$allocator@U?$pair@$$CBHUtagDummyAttackInfo@@@std@@@3@$0A@@std@@@std@@@2@ABH@Z
_TEXT	SEGMENT
$T675417 = -4						; size = 4
___$ReturnUdt$ = 8					; size = 4
__Where$ = 12						; size = 4
__Keyval$ = 12						; size = 4
?find@?$_Tree@V?$_Tmap_traits@HUtagDummyAttackInfo@@U?$less@H@std@@V?$allocator@U?$pair@$$CBHUtagDummyAttackInfo@@@std@@@3@$0A@@std@@@std@@QAE?AV?$_Tree_iterator@V?$_Tree_val@V?$_Tmap_traits@HUtagDummyAttackInfo@@U?$less@H@std@@V?$allocator@U?$pair@$$CBHUtagDummyAttackInfo@@@std@@@3@$0A@@std@@@std@@@2@ABH@Z PROC ; std::_Tree<std::_Tmap_traits<int,tagDummyAttackInfo,std::less<int>,std::allocator<std::pair<int const ,tagDummyAttackInfo> >,0> >::find, COMDAT
; _this$ = ecx

; 1423 : 		{	// find an element in mutable sequence that matches _Keyval

  00000	55		 push	 ebp
  00001	8b ec		 mov	 ebp, esp
  00003	51		 push	 ecx
  00004	56		 push	 esi
  00005	57		 push	 edi

; 1424 : 		iterator _Where = lower_bound(_Keyval);

  00006	8b 7d 0c	 mov	 edi, DWORD PTR __Keyval$[ebp]
  00009	57		 push	 edi
  0000a	8b f1		 mov	 esi, ecx
  0000c	e8 00 00 00 00	 call	 ?_Lbound@?$_Tree@V?$_Tmap_traits@HUtagDummyAttackInfo@@U?$less@H@std@@V?$allocator@U?$pair@$$CBHUtagDummyAttackInfo@@@std@@@3@$0A@@std@@@std@@IAEPAU_Node@?$_Tree_nod@V?$_Tmap_traits@HUtagDummyAttackInfo@@U?$less@H@std@@V?$allocator@U?$pair@$$CBHUtagDummyAttackInfo@@@std@@@3@$0A@@std@@@2@ABH@Z ; std::_Tree<std::_Tmap_traits<int,tagDummyAttackInfo,std::less<int>,std::allocator<std::pair<int const ,tagDummyAttackInfo> >,0> >::_Lbound

; 1425 : 		return (_Where == end()
; 1426 : 			|| _DEBUG_LT_PRED(this->comp,
; 1427 : 				_Keyval, this->_Key(_Where._Mynode()))
; 1428 : 					? end() : _Where);

  00011	8b 76 04	 mov	 esi, DWORD PTR [esi+4]
  00014	89 45 0c	 mov	 DWORD PTR __Where$[ebp], eax
  00017	3b c6		 cmp	 eax, esi
  00019	74 0c		 je	 SHORT $LN3@find
  0001b	8b 0f		 mov	 ecx, DWORD PTR [edi]
  0001d	3b 48 0c	 cmp	 ecx, DWORD PTR [eax+12]
  00020	7c 05		 jl	 SHORT $LN3@find
  00022	8d 45 0c	 lea	 eax, DWORD PTR __Where$[ebp]
  00025	eb 06		 jmp	 SHORT $LN4@find
$LN3@find:
  00027	89 75 fc	 mov	 DWORD PTR $T675417[ebp], esi
  0002a	8d 45 fc	 lea	 eax, DWORD PTR $T675417[ebp]
$LN4@find:
  0002d	8b 08		 mov	 ecx, DWORD PTR [eax]
  0002f	8b 45 08	 mov	 eax, DWORD PTR ___$ReturnUdt$[ebp]
  00032	5f		 pop	 edi
  00033	89 08		 mov	 DWORD PTR [eax], ecx
  00035	5e		 pop	 esi

; 1429 : 		}

  00036	c9		 leave
  00037	c2 08 00	 ret	 8
?find@?$_Tree@V?$_Tmap_traits@HUtagDummyAttackInfo@@U?$less@H@std@@V?$allocator@U?$pair@$$CBHUtagDummyAttackInfo@@@std@@@3@$0A@@std@@@std@@QAE?AV?$_Tree_iterator@V?$_Tree_val@V?$_Tmap_traits@HUtagDummyAttackInfo@@U?$less@H@std@@V?$allocator@U?$pair@$$CBHUtagDummyAttackInfo@@@std@@@3@$0A@@std@@@std@@@2@ABH@Z ENDP ; std::_Tree<std::_Tmap_traits<int,tagDummyAttackInfo,std::less<int>,std::allocator<std::pair<int const ,tagDummyAttackInfo> >,0> >::find
_TEXT	ENDS
PUBLIC	??1?$vector@PBUAniEventTime@@V?$allocator@PBUAniEventTime@@@std@@@std@@QAE@XZ ; std::vector<AniEventTime const *,std::allocator<AniEventTime const *> >::~vector<AniEventTime const *,std::allocator<AniEventTime const *> >
; Function compile flags: /Ogsp
; File c:\program files (x86)\microsoft visual studio 10.0\vc\include\vector
;	COMDAT ??1?$vector@PBUAniEventTime@@V?$allocator@PBUAniEventTime@@@std@@@std@@QAE@XZ
_TEXT	SEGMENT
??1?$vector@PBUAniEventTime@@V?$allocator@PBUAniEventTime@@@std@@@std@@QAE@XZ PROC ; std::vector<AniEventTime const *,std::allocator<AniEventTime const *> >::~vector<AniEventTime const *,std::allocator<AniEventTime const *> >, COMDAT
; _this$ = ecx

; 705  : 		_Tidy();

  00000	e9 00 00 00 00	 jmp	 ?_Tidy@?$vector@PBUAniEventTime@@V?$allocator@PBUAniEventTime@@@std@@@std@@IAEXXZ ; std::vector<AniEventTime const *,std::allocator<AniEventTime const *> >::_Tidy
??1?$vector@PBUAniEventTime@@V?$allocator@PBUAniEventTime@@@std@@@std@@QAE@XZ ENDP ; std::vector<AniEventTime const *,std::allocator<AniEventTime const *> >::~vector<AniEventTime const *,std::allocator<AniEventTime const *> >
_TEXT	ENDS
PUBLIC	?_Tidy@?$list@MV?$allocator@M@std@@@std@@QAEXXZ	; std::list<float,std::allocator<float> >::_Tidy
; Function compile flags: /Ogsp
; File c:\program files (x86)\microsoft visual studio 10.0\vc\include\list
;	COMDAT ?_Tidy@?$list@MV?$allocator@M@std@@@std@@QAEXXZ
_TEXT	SEGMENT
?_Tidy@?$list@MV?$allocator@M@std@@@std@@QAEXXZ PROC	; std::list<float,std::allocator<float> >::_Tidy, COMDAT
; _this$ = ecx

; 1497 : 		clear();

  00000	e9 00 00 00 00	 jmp	 ?clear@?$list@MV?$allocator@M@std@@@std@@QAEXXZ ; std::list<float,std::allocator<float> >::clear
?_Tidy@?$list@MV?$allocator@M@std@@@std@@QAEXXZ ENDP	; std::list<float,std::allocator<float> >::_Tidy
_TEXT	ENDS
PUBLIC	?_Buynode@?$_List_val@UFireTime@@V?$allocator@UFireTime@@@std@@@std@@QAEPAU_Node@?$_List_nod@UFireTime@@V?$allocator@UFireTime@@@std@@@2@PAU342@0ABUFireTime@@@Z ; std::_List_val<FireTime,std::allocator<FireTime> >::_Buynode
;	COMDAT xdata$x
; File c:\program files (x86)\microsoft visual studio 10.0\vc\include\xmemory
xdata$x	SEGMENT
__catchsym$?_Buynode@?$_List_val@UFireTime@@V?$allocator@UFireTime@@@std@@@std@@QAEPAU_Node@?$_List_nod@UFireTime@@V?$allocator@UFireTime@@@std@@@2@PAU342@0ABUFireTime@@@Z$2 DD 040H
	DD	00H
	DD	00H
	DD	FLAT:__catch$?_Buynode@?$_List_val@UFireTime@@V?$allocator@UFireTime@@@std@@@std@@QAEPAU_Node@?$_List_nod@UFireTime@@V?$allocator@UFireTime@@@std@@@2@PAU342@0ABUFireTime@@@Z$0
__unwindtable$?_Buynode@?$_List_val@UFireTime@@V?$allocator@UFireTime@@@std@@@std@@QAEPAU_Node@?$_List_nod@UFireTime@@V?$allocator@UFireTime@@@std@@@2@PAU342@0ABUFireTime@@@Z DD 0ffffffffH
	DD	00H
	DD	0ffffffffH
	DD	00H
__tryblocktable$?_Buynode@?$_List_val@UFireTime@@V?$allocator@UFireTime@@@std@@@std@@QAEPAU_Node@?$_List_nod@UFireTime@@V?$allocator@UFireTime@@@std@@@2@PAU342@0ABUFireTime@@@Z DD 00H
	DD	00H
	DD	01H
	DD	01H
	DD	FLAT:__catchsym$?_Buynode@?$_List_val@UFireTime@@V?$allocator@UFireTime@@@std@@@std@@QAEPAU_Node@?$_List_nod@UFireTime@@V?$allocator@UFireTime@@@std@@@2@PAU342@0ABUFireTime@@@Z$2
__ehfuncinfo$?_Buynode@?$_List_val@UFireTime@@V?$allocator@UFireTime@@@std@@@std@@QAEPAU_Node@?$_List_nod@UFireTime@@V?$allocator@UFireTime@@@std@@@2@PAU342@0ABUFireTime@@@Z DD 019930522H
	DD	02H
	DD	FLAT:__unwindtable$?_Buynode@?$_List_val@UFireTime@@V?$allocator@UFireTime@@@std@@@std@@QAEPAU_Node@?$_List_nod@UFireTime@@V?$allocator@UFireTime@@@std@@@2@PAU342@0ABUFireTime@@@Z
	DD	01H
	DD	FLAT:__tryblocktable$?_Buynode@?$_List_val@UFireTime@@V?$allocator@UFireTime@@@std@@@std@@QAEPAU_Node@?$_List_nod@UFireTime@@V?$allocator@UFireTime@@@std@@@2@PAU342@0ABUFireTime@@@Z
	DD	2 DUP(00H)
	DD	00H
	DD	01H
; Function compile flags: /Ogsp
; File c:\program files (x86)\microsoft visual studio 10.0\vc\include\list
xdata$x	ENDS
;	COMDAT ?_Buynode@?$_List_val@UFireTime@@V?$allocator@UFireTime@@@std@@@std@@QAEPAU_Node@?$_List_nod@UFireTime@@V?$allocator@UFireTime@@@std@@@2@PAU342@0ABUFireTime@@@Z
_TEXT	SEGMENT
$T675594 = -32						; size = 12
__Ptr$675588 = -20					; size = 4
__$EHRec$ = -16						; size = 16
$T675572 = 8						; size = 4
__Next$ = 8						; size = 4
__Prev$ = 12						; size = 4
__Val$ = 16						; size = 4
?_Buynode@?$_List_val@UFireTime@@V?$allocator@UFireTime@@@std@@@std@@QAEPAU_Node@?$_List_nod@UFireTime@@V?$allocator@UFireTime@@@std@@@2@PAU342@0ABUFireTime@@@Z PROC ; std::_List_val<FireTime,std::allocator<FireTime> >::_Buynode, COMDAT
; _this$ = ecx

; 507  : 		{	// allocate a node and set links and value

  00000	6a 14		 push	 20			; 00000014H
  00002	b8 00 00 00 00	 mov	 eax, __ehhandler$?_Buynode@?$_List_val@UFireTime@@V?$allocator@UFireTime@@@std@@@std@@QAEPAU_Node@?$_List_nod@UFireTime@@V?$allocator@UFireTime@@@std@@@2@PAU342@0ABUFireTime@@@Z
  00007	e8 00 00 00 00	 call	 __EH_prolog3_catch

; 508  : 		_Nodeptr _Pnode = this->_Alnod.allocate(1);

  0000c	6a 60		 push	 96			; 00000060H
  0000e	e8 00 00 00 00	 call	 ??2@YAPAXI@Z		; operator new
  00013	8b f0		 mov	 esi, eax
  00015	59		 pop	 ecx
  00016	89 75 ec	 mov	 DWORD PTR __Ptr$675588[ebp], esi
  00019	85 f6		 test	 esi, esi
  0001b	74 39		 je	 SHORT $LN10@Buynode

; 509  : 
; 510  : 		_TRY_BEGIN
; 511  : 		this->_Nextnode(_Pnode) = _Next;

  0001d	8b 45 08	 mov	 eax, DWORD PTR __Next$[ebp]

; 512  : 		this->_Prevnode(_Pnode) = _Prev;
; 513  : 		_Cons_val(this->_Alval, _STD addressof(this->_Myval(_Pnode)), _Val);

  00020	ff 75 10	 push	 DWORD PTR __Val$[ebp]
  00023	83 65 fc 00	 and	 DWORD PTR __$EHRec$[ebp+12], 0
  00027	89 06		 mov	 DWORD PTR [esi], eax
  00029	8b 45 0c	 mov	 eax, DWORD PTR __Prev$[ebp]
  0002c	89 46 04	 mov	 DWORD PTR [esi+4], eax
  0002f	8d 46 08	 lea	 eax, DWORD PTR [esi+8]
  00032	50		 push	 eax
  00033	e8 00 00 00 00	 call	 ??$_Construct@UFireTime@@ABU1@@std@@YAXPAUFireTime@@ABU1@@Z ; std::_Construct<FireTime,FireTime const &>
  00038	59		 pop	 ecx
  00039	59		 pop	 ecx

; 517  : 		_CATCH_END
; 518  : 
; 519  : 		return (_Pnode);

  0003a	8b c6		 mov	 eax, esi

; 520  : 		}

  0003c	e8 00 00 00 00	 call	 __EH_epilog3
  00041	c2 0c 00	 ret	 12			; 0000000cH
__catch$?_Buynode@?$_List_val@UFireTime@@V?$allocator@UFireTime@@@std@@@std@@QAEPAU_Node@?$_List_nod@UFireTime@@V?$allocator@UFireTime@@@std@@@2@PAU342@0ABUFireTime@@@Z$0:

; 514  : 		_CATCH_ALL
; 515  : 		this->_Alnod.deallocate(_Pnode, 1);

  00044	ff 75 ec	 push	 DWORD PTR __Ptr$675588[ebp]
  00047	e8 00 00 00 00	 call	 ??3@YAXPAX@Z		; operator delete
  0004c	59		 pop	 ecx

; 516  : 		_RERAISE;

  0004d	6a 00		 push	 0
  0004f	6a 00		 push	 0
$LN40@Buynode:
  00051	e8 00 00 00 00	 call	 __CxxThrowException@8
$LN41@Buynode:

; 508  : 		_Nodeptr _Pnode = this->_Alnod.allocate(1);

$LN10@Buynode:
  00056	83 65 08 00	 and	 DWORD PTR $T675572[ebp], 0
  0005a	8d 45 08	 lea	 eax, DWORD PTR $T675572[ebp]
  0005d	50		 push	 eax
  0005e	8d 4d e0	 lea	 ecx, DWORD PTR $T675594[ebp]
  00061	ff 15 00 00 00
	00		 call	 DWORD PTR __imp_??0exception@std@@QAE@ABQBD@Z
  00067	68 00 00 00 00	 push	 OFFSET __TI2?AVbad_alloc@std@@
  0006c	8d 45 e0	 lea	 eax, DWORD PTR $T675594[ebp]
  0006f	c7 45 e0 00 00
	00 00		 mov	 DWORD PTR $T675594[ebp], OFFSET ??_7bad_alloc@std@@6B@
  00076	50		 push	 eax
  00077	eb d8		 jmp	 SHORT $LN40@Buynode
$LN39@Buynode:
_TEXT	ENDS
;	COMDAT text$x
text$x	SEGMENT
__ehhandler$?_Buynode@?$_List_val@UFireTime@@V?$allocator@UFireTime@@@std@@@std@@QAEPAU_Node@?$_List_nod@UFireTime@@V?$allocator@UFireTime@@@std@@@2@PAU342@0ABUFireTime@@@Z:
  00000	8b 54 24 08	 mov	 edx, DWORD PTR [esp+8]
  00004	8d 42 0c	 lea	 eax, DWORD PTR [edx+12]
  00007	8b 4a dc	 mov	 ecx, DWORD PTR [edx-36]
  0000a	33 c8		 xor	 ecx, eax
  0000c	e8 00 00 00 00	 call	 @__security_check_cookie@4
  00011	b8 00 00 00 00	 mov	 eax, OFFSET __ehfuncinfo$?_Buynode@?$_List_val@UFireTime@@V?$allocator@UFireTime@@@std@@@std@@QAEPAU_Node@?$_List_nod@UFireTime@@V?$allocator@UFireTime@@@std@@@2@PAU342@0ABUFireTime@@@Z
  00016	e9 00 00 00 00	 jmp	 ___CxxFrameHandler3
text$x	ENDS
?_Buynode@?$_List_val@UFireTime@@V?$allocator@UFireTime@@@std@@@std@@QAEPAU_Node@?$_List_nod@UFireTime@@V?$allocator@UFireTime@@@std@@@2@PAU342@0ABUFireTime@@@Z ENDP ; std::_List_val<FireTime,std::allocator<FireTime> >::_Buynode
PUBLIC	??$_Dest_val@V?$allocator@U_Node@?$_List_nod@UFireTime@@V?$allocator@UFireTime@@@std@@@std@@@std@@U_Node@?$_List_nod@UFireTime@@V?$allocator@UFireTime@@@std@@@2@@std@@YAXAAV?$allocator@U_Node@?$_List_nod@UFireTime@@V?$allocator@UFireTime@@@std@@@std@@@0@PAU_Node@?$_List_nod@UFireTime@@V?$allocator@UFireTime@@@std@@@0@@Z ; std::_Dest_val<std::allocator<std::_List_nod<FireTime,std::allocator<FireTime> >::_Node>,std::_List_nod<FireTime,std::allocator<FireTime> >::_Node>
; Function compile flags: /Ogsp
; File c:\program files (x86)\microsoft visual studio 10.0\vc\include\xmemory
;	COMDAT ??$_Dest_val@V?$allocator@U_Node@?$_List_nod@UFireTime@@V?$allocator@UFireTime@@@std@@@std@@@std@@U_Node@?$_List_nod@UFireTime@@V?$allocator@UFireTime@@@std@@@2@@std@@YAXAAV?$allocator@U_Node@?$_List_nod@UFireTime@@V?$allocator@UFireTime@@@std@@@std@@@0@PAU_Node@?$_List_nod@UFireTime@@V?$allocator@UFireTime@@@std@@@0@@Z
_TEXT	SEGMENT
__Alval$ = 8						; size = 4
__Pdest$ = 12						; size = 4
??$_Dest_val@V?$allocator@U_Node@?$_List_nod@UFireTime@@V?$allocator@UFireTime@@@std@@@std@@@std@@U_Node@?$_List_nod@UFireTime@@V?$allocator@UFireTime@@@std@@@2@@std@@YAXAAV?$allocator@U_Node@?$_List_nod@UFireTime@@V?$allocator@UFireTime@@@std@@@std@@@0@PAU_Node@?$_List_nod@UFireTime@@V?$allocator@UFireTime@@@std@@@0@@Z PROC ; std::_Dest_val<std::allocator<std::_List_nod<FireTime,std::allocator<FireTime> >::_Node>,std::_List_nod<FireTime,std::allocator<FireTime> >::_Node>, COMDAT

; 286  : 	{	// destroy using allocator

  00000	55		 push	 ebp
  00001	8b ec		 mov	 ebp, esp

; 287  : 	_Alval.destroy(_Pdest);

  00003	8b 4d 0c	 mov	 ecx, DWORD PTR __Pdest$[ebp]
  00006	83 c1 08	 add	 ecx, 8

; 288  : 	}

  00009	5d		 pop	 ebp

; 287  : 	_Alval.destroy(_Pdest);

  0000a	e9 00 00 00 00	 jmp	 ??1FireTime@@QAE@XZ
??$_Dest_val@V?$allocator@U_Node@?$_List_nod@UFireTime@@V?$allocator@UFireTime@@@std@@@std@@@std@@U_Node@?$_List_nod@UFireTime@@V?$allocator@UFireTime@@@std@@@2@@std@@YAXAAV?$allocator@U_Node@?$_List_nod@UFireTime@@V?$allocator@UFireTime@@@std@@@std@@@0@PAU_Node@?$_List_nod@UFireTime@@V?$allocator@UFireTime@@@std@@@0@@Z ENDP ; std::_Dest_val<std::allocator<std::_List_nod<FireTime,std::allocator<FireTime> >::_Node>,std::_List_nod<FireTime,std::allocator<FireTime> >::_Node>
_TEXT	ENDS
PUBLIC	??$_Destroy_range@V?$allocator@UExtraAniJump@@@std@@@std@@YAXPAUExtraAniJump@@0AAV?$allocator@UExtraAniJump@@@0@@Z ; std::_Destroy_range<std::allocator<ExtraAniJump> >
; Function compile flags: /Ogsp
;	COMDAT ??$_Destroy_range@V?$allocator@UExtraAniJump@@@std@@@std@@YAXPAUExtraAniJump@@0AAV?$allocator@UExtraAniJump@@@0@@Z
_TEXT	SEGMENT
__First$ = 8						; size = 4
__Last$ = 12						; size = 4
__Al$ = 16						; size = 4
??$_Destroy_range@V?$allocator@UExtraAniJump@@@std@@@std@@YAXPAUExtraAniJump@@0AAV?$allocator@UExtraAniJump@@@0@@Z PROC ; std::_Destroy_range<std::allocator<ExtraAniJump> >, COMDAT

; 88   : 	_Destroy_range(_First, _Last, _Al, _Ptr_cat(_First, _Last));
; 89   : 	}

  00000	c3		 ret	 0
??$_Destroy_range@V?$allocator@UExtraAniJump@@@std@@@std@@YAXPAUExtraAniJump@@0AAV?$allocator@UExtraAniJump@@@0@@Z ENDP ; std::_Destroy_range<std::allocator<ExtraAniJump> >
_TEXT	ENDS
PUBLIC	??$_Uninitialized_move@PAUExtraAniJump@@PAU1@V?$allocator@UExtraAniJump@@@std@@@std@@YAPAUExtraAniJump@@PAU1@00AAV?$allocator@UExtraAniJump@@@0@@Z ; std::_Uninitialized_move<ExtraAniJump *,ExtraAniJump *,std::allocator<ExtraAniJump> >
; Function compile flags: /Ogsp
; File c:\program files (x86)\microsoft visual studio 10.0\vc\include\memory
;	COMDAT ??$_Uninitialized_move@PAUExtraAniJump@@PAU1@V?$allocator@UExtraAniJump@@@std@@@std@@YAPAUExtraAniJump@@PAU1@00AAV?$allocator@UExtraAniJump@@@0@@Z
_TEXT	SEGMENT
__Cat$675715 = -4					; size = 1
__First$ = 8						; size = 4
__Last$ = 12						; size = 4
__Dest$ = 16						; size = 4
__Al$ = 20						; size = 4
??$_Uninitialized_move@PAUExtraAniJump@@PAU1@V?$allocator@UExtraAniJump@@@std@@@std@@YAPAUExtraAniJump@@PAU1@00AAV?$allocator@UExtraAniJump@@@0@@Z PROC ; std::_Uninitialized_move<ExtraAniJump *,ExtraAniJump *,std::allocator<ExtraAniJump> >, COMDAT

; 469  : 	{	// move [_First, _Last) to raw _Dest, using _Al

  00000	55		 push	 ebp
  00001	8b ec		 mov	 ebp, esp
  00003	51		 push	 ecx

; 470  : 	return (_Uninit_move(_First, _Last, _Dest, _Al,
; 471  : 		_Val_type(_First), _Ptr_cat(_First, _Dest)));

  00004	ff 75 fc	 push	 DWORD PTR __Cat$675715[ebp]
  00007	6a 00		 push	 0
  00009	ff 75 14	 push	 DWORD PTR __Al$[ebp]
  0000c	ff 75 10	 push	 DWORD PTR __Dest$[ebp]
  0000f	ff 75 0c	 push	 DWORD PTR __Last$[ebp]
  00012	ff 75 08	 push	 DWORD PTR __First$[ebp]
  00015	e8 00 00 00 00	 call	 ??$_Uninit_move@PAUExtraAniJump@@PAU1@V?$allocator@UExtraAniJump@@@std@@U1@@std@@YAPAUExtraAniJump@@PAU1@00AAV?$allocator@UExtraAniJump@@@0@0U_Nonscalar_ptr_iterator_tag@0@@Z ; std::_Uninit_move<ExtraAniJump *,ExtraAniJump *,std::allocator<ExtraAniJump>,ExtraAniJump>
  0001a	83 c4 18	 add	 esp, 24			; 00000018H

; 472  : 	}

  0001d	c9		 leave
  0001e	c3		 ret	 0
??$_Uninitialized_move@PAUExtraAniJump@@PAU1@V?$allocator@UExtraAniJump@@@std@@@std@@YAPAUExtraAniJump@@PAU1@00AAV?$allocator@UExtraAniJump@@@0@@Z ENDP ; std::_Uninitialized_move<ExtraAniJump *,ExtraAniJump *,std::allocator<ExtraAniJump> >
_TEXT	ENDS
PUBLIC	??1?$vector@HV?$allocator@H@std@@@std@@QAE@XZ	; std::vector<int,std::allocator<int> >::~vector<int,std::allocator<int> >
; Function compile flags: /Ogsp
; File c:\program files (x86)\microsoft visual studio 10.0\vc\include\vector
;	COMDAT ??1?$vector@HV?$allocator@H@std@@@std@@QAE@XZ
_TEXT	SEGMENT
??1?$vector@HV?$allocator@H@std@@@std@@QAE@XZ PROC	; std::vector<int,std::allocator<int> >::~vector<int,std::allocator<int> >, COMDAT
; _this$ = ecx

; 705  : 		_Tidy();

  00000	e9 00 00 00 00	 jmp	 ?_Tidy@?$vector@HV?$allocator@H@std@@@std@@IAEXXZ ; std::vector<int,std::allocator<int> >::_Tidy
??1?$vector@HV?$allocator@H@std@@@std@@QAE@XZ ENDP	; std::vector<int,std::allocator<int> >::~vector<int,std::allocator<int> >
_TEXT	ENDS
PUBLIC	?clear@?$vector@HV?$allocator@H@std@@@std@@QAEXXZ ; std::vector<int,std::allocator<int> >::clear
; Function compile flags: /Ogsp
;	COMDAT ?clear@?$vector@HV?$allocator@H@std@@@std@@QAEXXZ
_TEXT	SEGMENT
$T675733 = -4						; size = 4
?clear@?$vector@HV?$allocator@H@std@@@std@@QAEXXZ PROC	; std::vector<int,std::allocator<int> >::clear, COMDAT
; _this$ = ecx

; 1217 : 		{	// erase all

  00000	55		 push	 ebp
  00001	8b ec		 mov	 ebp, esp
  00003	51		 push	 ecx

; 1218 : 		erase(begin(), end());

  00004	8b 41 04	 mov	 eax, DWORD PTR [ecx+4]
  00007	8b 11		 mov	 edx, DWORD PTR [ecx]
  00009	50		 push	 eax
  0000a	52		 push	 edx
  0000b	8d 45 fc	 lea	 eax, DWORD PTR $T675733[ebp]
  0000e	50		 push	 eax
  0000f	e8 00 00 00 00	 call	 ?erase@?$vector@HV?$allocator@H@std@@@std@@QAE?AV?$_Vector_iterator@V?$_Vector_val@HV?$allocator@H@std@@@std@@@2@V?$_Vector_const_iterator@V?$_Vector_val@HV?$allocator@H@std@@@std@@@2@0@Z ; std::vector<int,std::allocator<int> >::erase

; 1219 : 		}

  00014	c9		 leave
  00015	c3		 ret	 0
?clear@?$vector@HV?$allocator@H@std@@@std@@QAEXXZ ENDP	; std::vector<int,std::allocator<int> >::clear
_TEXT	ENDS
PUBLIC	?_Reserve@?$vector@HV?$allocator@H@std@@@std@@IAEXI@Z ; std::vector<int,std::allocator<int> >::_Reserve
; Function compile flags: /Ogsp
;	COMDAT ?_Reserve@?$vector@HV?$allocator@H@std@@@std@@IAEXI@Z
_TEXT	SEGMENT
__Count$ = 8						; size = 4
?_Reserve@?$vector@HV?$allocator@H@std@@@std@@IAEXI@Z PROC ; std::vector<int,std::allocator<int> >::_Reserve, COMDAT
; _this$ = ecx

; 1290 : 		{	// ensure room for _Count new elements, grow exponentially

  00000	55		 push	 ebp
  00001	8b ec		 mov	 ebp, esp
  00003	56		 push	 esi
  00004	8b f1		 mov	 esi, ecx

; 1291 : 		size_type _Size = size();

  00006	8b 0e		 mov	 ecx, DWORD PTR [esi]
  00008	8b 46 04	 mov	 eax, DWORD PTR [esi+4]
  0000b	2b c1		 sub	 eax, ecx

; 1292 : 		if (max_size() - _Count < _Size)

  0000d	ba ff ff ff 3f	 mov	 edx, 1073741823		; 3fffffffH
  00012	2b 55 08	 sub	 edx, DWORD PTR __Count$[ebp]
  00015	c1 f8 02	 sar	 eax, 2
  00018	3b d0		 cmp	 edx, eax
  0001a	73 0b		 jae	 SHORT $LN4@Reserve

; 1293 : 			_Xlen();

  0001c	68 00 00 00 00	 push	 OFFSET ??_C@_0BD@OLBABOEK@vector?$DMT?$DO?5too?5long?$AA@
  00021	ff 15 00 00 00
	00		 call	 DWORD PTR __imp_?_Xlength_error@std@@YAXPBD@Z
$LN21@Reserve:
$LN4@Reserve:

; 1294 : 		else if ((_Size += _Count) <= capacity())

  00027	8b 56 08	 mov	 edx, DWORD PTR [esi+8]
  0002a	03 45 08	 add	 eax, DWORD PTR __Count$[ebp]
  0002d	2b d1		 sub	 edx, ecx
  0002f	c1 fa 02	 sar	 edx, 2
  00032	3b c2		 cmp	 eax, edx
  00034	76 10		 jbe	 SHORT $LN1@Reserve

; 1295 : 			;
; 1296 : 		else
; 1297 : 			reserve(_Grow_to(_Size));

  00036	50		 push	 eax
  00037	8b ce		 mov	 ecx, esi
  00039	e8 00 00 00 00	 call	 ?_Grow_to@?$vector@HV?$allocator@H@std@@@std@@IBEII@Z ; std::vector<int,std::allocator<int> >::_Grow_to
  0003e	50		 push	 eax
  0003f	8b ce		 mov	 ecx, esi
  00041	e8 00 00 00 00	 call	 ?reserve@?$vector@HV?$allocator@H@std@@@std@@QAEXI@Z ; std::vector<int,std::allocator<int> >::reserve
$LN1@Reserve:
  00046	5e		 pop	 esi

; 1298 : 		}

  00047	5d		 pop	 ebp
  00048	c2 04 00	 ret	 4
$LN20@Reserve:
?_Reserve@?$vector@HV?$allocator@H@std@@@std@@IAEXI@Z ENDP ; std::vector<int,std::allocator<int> >::_Reserve
_TEXT	ENDS
PUBLIC	?assign@?$basic_string@DU?$char_traits@D@std@@V?$allocator@D@2@@std@@QAEAAV12@ABV12@II@Z ; std::basic_string<char,std::char_traits<char>,std::allocator<char> >::assign
; Function compile flags: /Ogsp
; File c:\program files (x86)\microsoft visual studio 10.0\vc\include\xstring
;	COMDAT ?assign@?$basic_string@DU?$char_traits@D@std@@V?$allocator@D@2@@std@@QAEAAV12@ABV12@II@Z
_TEXT	SEGMENT
__Right$ = 8						; size = 4
__Roff$ = 12						; size = 4
__Count$ = 16						; size = 4
?assign@?$basic_string@DU?$char_traits@D@std@@V?$allocator@D@2@@std@@QAEAAV12@ABV12@II@Z PROC ; std::basic_string<char,std::char_traits<char>,std::allocator<char> >::assign, COMDAT
; _this$ = ecx

; 893  : 		{	// assign _Right [_Roff, _Roff + _Count)

  00000	55		 push	 ebp
  00001	8b ec		 mov	 ebp, esp
  00003	53		 push	 ebx

; 894  : 		if (_Right.size() < _Roff)

  00004	8b 5d 08	 mov	 ebx, DWORD PTR __Right$[ebp]
  00007	8b 43 10	 mov	 eax, DWORD PTR [ebx+16]
  0000a	56		 push	 esi
  0000b	8b f1		 mov	 esi, ecx
  0000d	8b 4d 0c	 mov	 ecx, DWORD PTR __Roff$[ebp]
  00010	57		 push	 edi
  00011	3b c1		 cmp	 eax, ecx
  00013	73 0b		 jae	 SHORT $LN5@assign

; 895  : 			_Xran();	// _Roff off end

  00015	68 00 00 00 00	 push	 OFFSET ??_C@_0BI@CFPLBAOH@invalid?5string?5position?$AA@
  0001a	ff 15 00 00 00
	00		 call	 DWORD PTR __imp_?_Xout_of_range@std@@YAXPBD@Z
$LN34@assign:
$LN5@assign:

; 896  : 		size_type _Num = _Right.size() - _Roff;

  00020	2b c1		 sub	 eax, ecx
  00022	8b f8		 mov	 edi, eax

; 897  : 		if (_Count < _Num)

  00024	39 7d 10	 cmp	 DWORD PTR __Count$[ebp], edi

; 898  : 			_Num = _Count;	// trim _Num to size

  00027	0f 42 7d 10	 cmovb	 edi, DWORD PTR __Count$[ebp]

; 899  : 
; 900  : 		if (this == &_Right)

  0002b	3b f3		 cmp	 esi, ebx
  0002d	75 1a		 jne	 SHORT $LN3@assign

; 901  : 			erase((size_type)(_Roff + _Num)), erase(0, _Roff);	// substring

  0002f	03 f9		 add	 edi, ecx
  00031	6a ff		 push	 -1
  00033	57		 push	 edi
  00034	8b ce		 mov	 ecx, esi
  00036	e8 00 00 00 00	 call	 ?erase@?$basic_string@DU?$char_traits@D@std@@V?$allocator@D@2@@std@@QAEAAV12@II@Z ; std::basic_string<char,std::char_traits<char>,std::allocator<char> >::erase
  0003b	ff 75 0c	 push	 DWORD PTR __Roff$[ebp]
  0003e	8b ce		 mov	 ecx, esi
  00040	6a 00		 push	 0
  00042	e8 00 00 00 00	 call	 ?erase@?$basic_string@DU?$char_traits@D@std@@V?$allocator@D@2@@std@@QAEAAV12@II@Z ; std::basic_string<char,std::char_traits<char>,std::allocator<char> >::erase
  00047	eb 47		 jmp	 SHORT $LN31@assign
$LN3@assign:

; 902  : 		else if (_Grow(_Num))

  00049	6a 00		 push	 0
  0004b	57		 push	 edi
  0004c	8b ce		 mov	 ecx, esi
  0004e	e8 00 00 00 00	 call	 ?_Grow@?$basic_string@DU?$char_traits@D@std@@V?$allocator@D@2@@std@@QAE_NI_N@Z ; std::basic_string<char,std::char_traits<char>,std::allocator<char> >::_Grow
  00053	84 c0		 test	 al, al
  00055	74 39		 je	 SHORT $LN31@assign

; 903  : 			{	// make room and assign new stuff
; 904  : 			_Traits::copy(_Myptr(), _Right._Myptr() + _Roff, _Num);

  00057	83 7b 14 10	 cmp	 DWORD PTR [ebx+20], 16	; 00000010H
  0005b	72 04		 jb	 SHORT $LN17@assign
  0005d	8b 03		 mov	 eax, DWORD PTR [ebx]
  0005f	eb 02		 jmp	 SHORT $LN18@assign
$LN17@assign:
  00061	8b c3		 mov	 eax, ebx
$LN18@assign:
  00063	83 7e 14 10	 cmp	 DWORD PTR [esi+20], 16	; 00000010H
  00067	72 04		 jb	 SHORT $LN21@assign
  00069	8b 0e		 mov	 ecx, DWORD PTR [esi]
  0006b	eb 02		 jmp	 SHORT $LN22@assign
$LN21@assign:
  0006d	8b ce		 mov	 ecx, esi
$LN22@assign:
  0006f	03 45 0c	 add	 eax, DWORD PTR __Roff$[ebp]
  00072	57		 push	 edi
  00073	50		 push	 eax
  00074	51		 push	 ecx
  00075	e8 00 00 00 00	 call	 _memcpy
  0007a	83 c4 0c	 add	 esp, 12			; 0000000cH

; 905  : 			_Eos(_Num);

  0007d	83 7e 14 10	 cmp	 DWORD PTR [esi+20], 16	; 00000010H
  00081	89 7e 10	 mov	 DWORD PTR [esi+16], edi
  00084	72 04		 jb	 SHORT $LN29@assign
  00086	8b 06		 mov	 eax, DWORD PTR [esi]
  00088	eb 02		 jmp	 SHORT $LN30@assign
$LN29@assign:
  0008a	8b c6		 mov	 eax, esi
$LN30@assign:
  0008c	c6 04 38 00	 mov	 BYTE PTR [eax+edi], 0
$LN31@assign:

; 906  : 			}
; 907  : 		return (*this);

  00090	5f		 pop	 edi
  00091	8b c6		 mov	 eax, esi
  00093	5e		 pop	 esi
  00094	5b		 pop	 ebx

; 908  : 		}

  00095	5d		 pop	 ebp
  00096	c2 0c 00	 ret	 12			; 0000000cH
$LN33@assign:
?assign@?$basic_string@DU?$char_traits@D@std@@V?$allocator@D@2@@std@@QAEAAV12@ABV12@II@Z ENDP ; std::basic_string<char,std::char_traits<char>,std::allocator<char> >::assign
_TEXT	ENDS
PUBLIC	?assign@?$basic_string@DU?$char_traits@D@std@@V?$allocator@D@2@@std@@QAEAAV12@PBDI@Z ; std::basic_string<char,std::char_traits<char>,std::allocator<char> >::assign
; Function compile flags: /Ogsp
;	COMDAT ?assign@?$basic_string@DU?$char_traits@D@std@@V?$allocator@D@2@@std@@QAEAAV12@PBDI@Z
_TEXT	SEGMENT
__Ptr$ = 8						; size = 4
__Count$ = 12						; size = 4
?assign@?$basic_string@DU?$char_traits@D@std@@V?$allocator@D@2@@std@@QAEAAV12@PBDI@Z PROC ; std::basic_string<char,std::char_traits<char>,std::allocator<char> >::assign, COMDAT
; _this$ = ecx

; 911  : 		{	// assign [_Ptr, _Ptr + _Count)

  00000	55		 push	 ebp
  00001	8b ec		 mov	 ebp, esp
  00003	53		 push	 ebx

; 912  :  #if _ITERATOR_DEBUG_LEVEL == 2
; 913  : 		if (_Count != 0)
; 914  : 			_DEBUG_POINTER(_Ptr);
; 915  :  #endif /* _ITERATOR_DEBUG_LEVEL == 2 */
; 916  : 
; 917  : 		if (_Inside(_Ptr))

  00004	8b 5d 08	 mov	 ebx, DWORD PTR __Ptr$[ebp]
  00007	56		 push	 esi
  00008	53		 push	 ebx
  00009	8b f1		 mov	 esi, ecx
  0000b	e8 00 00 00 00	 call	 ?_Inside@?$basic_string@DU?$char_traits@D@std@@V?$allocator@D@2@@std@@QAE_NPBD@Z ; std::basic_string<char,std::char_traits<char>,std::allocator<char> >::_Inside
  00010	84 c0		 test	 al, al
  00012	74 1c		 je	 SHORT $LN2@assign@2

; 918  : 			return (assign(*this, _Ptr - _Myptr(), _Count));	// substring

  00014	83 7e 14 10	 cmp	 DWORD PTR [esi+20], 16	; 00000010H
  00018	72 04		 jb	 SHORT $LN7@assign@2
  0001a	8b 06		 mov	 eax, DWORD PTR [esi]
  0001c	eb 02		 jmp	 SHORT $LN8@assign@2
$LN7@assign@2:
  0001e	8b c6		 mov	 eax, esi
$LN8@assign@2:
  00020	ff 75 0c	 push	 DWORD PTR __Count$[ebp]
  00023	2b d8		 sub	 ebx, eax
  00025	53		 push	 ebx
  00026	56		 push	 esi
  00027	8b ce		 mov	 ecx, esi
  00029	e8 00 00 00 00	 call	 ?assign@?$basic_string@DU?$char_traits@D@std@@V?$allocator@D@2@@std@@QAEAAV12@ABV12@II@Z ; std::basic_string<char,std::char_traits<char>,std::allocator<char> >::assign
  0002e	eb 3f		 jmp	 SHORT $LN3@assign@2
$LN2@assign@2:
  00030	57		 push	 edi

; 919  : 
; 920  : 		if (_Grow(_Count))

  00031	8b 7d 0c	 mov	 edi, DWORD PTR __Count$[ebp]
  00034	6a 00		 push	 0
  00036	57		 push	 edi
  00037	8b ce		 mov	 ecx, esi
  00039	e8 00 00 00 00	 call	 ?_Grow@?$basic_string@DU?$char_traits@D@std@@V?$allocator@D@2@@std@@QAE_NI_N@Z ; std::basic_string<char,std::char_traits<char>,std::allocator<char> >::_Grow
  0003e	84 c0		 test	 al, al
  00040	74 2a		 je	 SHORT $LN21@assign@2

; 921  : 			{	// make room and assign new stuff
; 922  : 			_Traits::copy(_Myptr(), _Ptr, _Count);

  00042	83 7e 14 10	 cmp	 DWORD PTR [esi+20], 16	; 00000010H
  00046	72 04		 jb	 SHORT $LN11@assign@2
  00048	8b 06		 mov	 eax, DWORD PTR [esi]
  0004a	eb 02		 jmp	 SHORT $LN12@assign@2
$LN11@assign@2:
  0004c	8b c6		 mov	 eax, esi
$LN12@assign@2:
  0004e	57		 push	 edi
  0004f	53		 push	 ebx
  00050	50		 push	 eax
  00051	e8 00 00 00 00	 call	 _memcpy
  00056	83 c4 0c	 add	 esp, 12			; 0000000cH

; 923  : 			_Eos(_Count);

  00059	83 7e 14 10	 cmp	 DWORD PTR [esi+20], 16	; 00000010H
  0005d	89 7e 10	 mov	 DWORD PTR [esi+16], edi
  00060	72 04		 jb	 SHORT $LN19@assign@2
  00062	8b 06		 mov	 eax, DWORD PTR [esi]
  00064	eb 02		 jmp	 SHORT $LN20@assign@2
$LN19@assign@2:
  00066	8b c6		 mov	 eax, esi
$LN20@assign@2:
  00068	c6 04 38 00	 mov	 BYTE PTR [eax+edi], 0
$LN21@assign@2:

; 924  : 			}
; 925  : 		return (*this);

  0006c	8b c6		 mov	 eax, esi
  0006e	5f		 pop	 edi
$LN3@assign@2:
  0006f	5e		 pop	 esi
  00070	5b		 pop	 ebx

; 926  : 		}

  00071	5d		 pop	 ebp
  00072	c2 08 00	 ret	 8
?assign@?$basic_string@DU?$char_traits@D@std@@V?$allocator@D@2@@std@@QAEAAV12@PBDI@Z ENDP ; std::basic_string<char,std::char_traits<char>,std::allocator<char> >::assign
_TEXT	ENDS
PUBLIC	??_7ioMamaHahaDummy@@6BioWorldEventReceiver@@@	; ioMamaHahaDummy::`vftable'
PUBLIC	??_7ioMamaHahaDummy@@6BioPlayEntity@@@		; ioMamaHahaDummy::`vftable'
PUBLIC	??0ioMamaHahaDummy@@QAE@PAVioEntityGroup@@PAVioPlayMode@@@Z ; ioMamaHahaDummy::ioMamaHahaDummy
PUBLIC	??_R4ioMamaHahaDummy@@6BioPlayEntity@@@		; ioMamaHahaDummy::`RTTI Complete Object Locator'
PUBLIC	??_R0?AVioMamaHahaDummy@@@8			; ioMamaHahaDummy `RTTI Type Descriptor'
PUBLIC	??_R3ioMamaHahaDummy@@8				; ioMamaHahaDummy::`RTTI Class Hierarchy Descriptor'
PUBLIC	??_R2ioMamaHahaDummy@@8				; ioMamaHahaDummy::`RTTI Base Class Array'
PUBLIC	??_R1A@?0A@EA@ioMamaHahaDummy@@8		; ioMamaHahaDummy::`RTTI Base Class Descriptor at (0,-1,0,64)'
PUBLIC	??_R1A@?0A@EA@ioDummyChar@@8			; ioDummyChar::`RTTI Base Class Descriptor at (0,-1,0,64)'
PUBLIC	??_R0?AVioDummyChar@@@8				; ioDummyChar `RTTI Type Descriptor'
PUBLIC	??_R3ioDummyChar@@8				; ioDummyChar::`RTTI Class Hierarchy Descriptor'
PUBLIC	??_R2ioDummyChar@@8				; ioDummyChar::`RTTI Base Class Array'
PUBLIC	??_R1A@?0A@EA@ioPlayEntity@@8			; ioPlayEntity::`RTTI Base Class Descriptor at (0,-1,0,64)'
PUBLIC	??_R3ioPlayEntity@@8				; ioPlayEntity::`RTTI Class Hierarchy Descriptor'
PUBLIC	??_R2ioPlayEntity@@8				; ioPlayEntity::`RTTI Base Class Array'
PUBLIC	??_R1A@?0A@EA@ioGameEntity@@8			; ioGameEntity::`RTTI Base Class Descriptor at (0,-1,0,64)'
PUBLIC	??_R3ioGameEntity@@8				; ioGameEntity::`RTTI Class Hierarchy Descriptor'
PUBLIC	??_R2ioGameEntity@@8				; ioGameEntity::`RTTI Base Class Array'
PUBLIC	??_R1A@?0A@EA@ioEntityEvent@@8			; ioEntityEvent::`RTTI Base Class Descriptor at (0,-1,0,64)'
PUBLIC	??_R0?AVioEntityEvent@@@8			; ioEntityEvent `RTTI Type Descriptor'
PUBLIC	??_R3ioEntityEvent@@8				; ioEntityEvent::`RTTI Class Hierarchy Descriptor'
PUBLIC	??_R2ioEntityEvent@@8				; ioEntityEvent::`RTTI Base Class Array'
PUBLIC	??_R1BMI@?0A@EA@ioWorldEventReceiver@@8		; ioWorldEventReceiver::`RTTI Base Class Descriptor at (456,-1,0,64)'
PUBLIC	??_R0?AVioWorldEventReceiver@@@8		; ioWorldEventReceiver `RTTI Type Descriptor'
PUBLIC	??_R3ioWorldEventReceiver@@8			; ioWorldEventReceiver::`RTTI Class Hierarchy Descriptor'
PUBLIC	??_R2ioWorldEventReceiver@@8			; ioWorldEventReceiver::`RTTI Base Class Array'
PUBLIC	??_R1A@?0A@EA@ioWorldEventReceiver@@8		; ioWorldEventReceiver::`RTTI Base Class Descriptor at (0,-1,0,64)'
PUBLIC	?SetTeam@ioPlayEntity@@UAEXW4TeamType@@@Z	; ioPlayEntity::SetTeam
PUBLIC	?TestMapCollision@ioMamaHahaDummy@@UAE_NPAVioOpcodeShape@@PAVioPlayStage@@PBUD3DXMATRIX@@@Z ; ioMamaHahaDummy::TestMapCollision
PUBLIC	?CheckEntityCollision@ioMamaHahaDummy@@UAEXPAVioPlayEntity@@@Z ; ioMamaHahaDummy::CheckEntityCollision
PUBLIC	?ProcessState@ioMamaHahaDummy@@MAEXMK@Z		; ioMamaHahaDummy::ProcessState
PUBLIC	?ProcessPos@ioMamaHahaDummy@@MAEXM@Z		; ioMamaHahaDummy::ProcessPos
PUBLIC	?ProcessAttackState@ioMamaHahaDummy@@MAEXMK@Z	; ioMamaHahaDummy::ProcessAttackState
PUBLIC	?SetDelayState@ioMamaHahaDummy@@UAEX_N@Z	; ioMamaHahaDummy::SetDelayState
PUBLIC	?SetAttackState@ioMamaHahaDummy@@UAEXXZ		; ioMamaHahaDummy::SetAttackState
PUBLIC	?IsDummyCharMidSync@ioDummyChar@@UAE_NXZ	; ioDummyChar::IsDummyCharMidSync
PUBLIC	??_R4ioMamaHahaDummy@@6BioWorldEventReceiver@@@	; ioMamaHahaDummy::`RTTI Complete Object Locator'
PUBLIC	??_EioMamaHahaDummy@@WBMI@AEPAXI@Z		; [thunk]:ioMamaHahaDummy::`vector deleting destructor'
EXTRN	??1ioDummyChar@@UAE@XZ:PROC			; ioDummyChar::~ioDummyChar
EXTRN	__imp_?VEC3_ZERO@ioMath@@2UD3DXVECTOR3@@A:BYTE
EXTRN	??0ioDummyChar@@QAE@PAVioEntityGroup@@PAVioPlayMode@@@Z:PROC ; ioDummyChar::ioDummyChar
EXTRN	?AddEntityEvent@ioDummyChar@@UAEXPAVioEntity@@@Z:PROC ; ioDummyChar::AddEntityEvent
EXTRN	??_EioMamaHahaDummy@@UAEPAXI@Z:PROC		; ioMamaHahaDummy::`vector deleting destructor'
EXTRN	?Update@ioDummyChar@@UAEXMKK@Z:PROC		; ioDummyChar::Update
EXTRN	?UpdateAfter@ioDummyChar@@UAEXM@Z:PROC		; ioDummyChar::UpdateAfter
EXTRN	?GetTypeID@ioPlayEntity@@UBEHXZ:PROC		; ioPlayEntity::GetTypeID
EXTRN	?IsNeedCheckMapCollision@ioDummyChar@@UBE_NXZ:PROC ; ioDummyChar::IsNeedCheckMapCollision
EXTRN	?IsMountAvailable@ioDummyChar@@UBE_NXZ:PROC	; ioDummyChar::IsMountAvailable
EXTRN	?IsMountingAvailable@ioDummyChar@@UBE_NXZ:PROC	; ioDummyChar::IsMountingAvailable
EXTRN	?IsNowMountEnable@ioDummyChar@@UBE_NXZ:PROC	; ioDummyChar::IsNowMountEnable
EXTRN	?IsAllWeaponDefence@ioGameEntity@@UBE_NXZ:PROC	; ioGameEntity::IsAllWeaponDefence
EXTRN	?HasEntity@ioGameEntity@@UAE_NABVioHashString@@@Z:PROC ; ioGameEntity::HasEntity
EXTRN	?AddEntity@ioGameEntity@@UAEPAVioEntity@@ABVioHashString@@@Z:PROC ; ioGameEntity::AddEntity
EXTRN	?DestroyEntity@ioGameEntity@@UAE_NABVioHashString@@@Z:PROC ; ioGameEntity::DestroyEntity
EXTRN	?GetEntity@ioGameEntity@@UAEPAVioEntity@@ABVioHashString@@@Z:PROC ; ioGameEntity::GetEntity
EXTRN	?UpdateBound@ioGameEntity@@MBEXXZ:PROC		; ioGameEntity::UpdateBound
EXTRN	?UpdateBottomHeight@ioDummyChar@@MBEXXZ:PROC	; ioDummyChar::UpdateBottomHeight
EXTRN	?NeedUpdateBottomHeight@ioDummyChar@@UAEXXZ:PROC ; ioDummyChar::NeedUpdateBottomHeight
EXTRN	?SetWorldPosition@ioGameEntity@@UAEXABUD3DXVECTOR3@@@Z:PROC ; ioGameEntity::SetWorldPosition
EXTRN	?SetWorldOrientation@ioGameEntity@@UAEXABUD3DXQUATERNION@@@Z:PROC ; ioGameEntity::SetWorldOrientation
EXTRN	?SetWorldScale@ioGameEntity@@UAEXABUD3DXVECTOR3@@@Z:PROC ; ioGameEntity::SetWorldScale
EXTRN	?Translate@ioDummyChar@@UAEXABUD3DXVECTOR3@@@Z:PROC ; ioDummyChar::Translate
EXTRN	?TranslateByConveyer@ioDummyChar@@UAEXABUD3DXVECTOR3@@@Z:PROC ; ioDummyChar::TranslateByConveyer
EXTRN	?TranslateByWorldEntity@ioDummyChar@@UAEXABUD3DXVECTOR3@@@Z:PROC ; ioDummyChar::TranslateByWorldEntity
EXTRN	?MapCollisionPushingTranslate@ioDummyChar@@UAEXABUD3DXVECTOR3@@@Z:PROC ; ioDummyChar::MapCollisionPushingTranslate
EXTRN	?DontMoveCollisionPushingTranslate@ioGameEntity@@UAEXPAV1@ABUD3DXVECTOR3@@@Z:PROC ; ioGameEntity::DontMoveCollisionPushingTranslate
EXTRN	?Rotate@ioGameEntity@@UAEXABUD3DXVECTOR3@@MW4TransformSpace@ioNode@@@Z:PROC ; ioGameEntity::Rotate
EXTRN	?Scale@ioGameEntity@@UAEXMMM@Z:PROC		; ioGameEntity::Scale
EXTRN	?Scale@ioGameEntity@@UAEXABUD3DXVECTOR3@@@Z:PROC ; ioGameEntity::Scale
EXTRN	?GetWorldPosition@ioGameEntity@@UBEABUD3DXVECTOR3@@XZ:PROC ; ioGameEntity::GetWorldPosition
EXTRN	?GetWorldOrientation@ioGameEntity@@UBEABUD3DXQUATERNION@@XZ:PROC ; ioGameEntity::GetWorldOrientation
EXTRN	?GetWorldScale@ioGameEntity@@UBEABUD3DXVECTOR3@@XZ:PROC ; ioGameEntity::GetWorldScale
EXTRN	?ApplyWeapon@ioDummyChar@@UAE?AW4ApplyWeaponExp@@PAVioWeapon@@@Z:PROC ; ioDummyChar::ApplyWeapon
EXTRN	?IsCollisionAvailableWeapon@ioDummyChar@@UAE_NPAVioWeapon@@@Z:PROC ; ioDummyChar::IsCollisionAvailableWeapon
EXTRN	?IsCollisionAvailableRange@ioPlayEntity@@UAE_NPAVioWeapon@@@Z:PROC ; ioPlayEntity::IsCollisionAvailableRange
EXTRN	?IsEntityCollisionSkipState@ioDummyChar@@UBE_NPAVioGameEntity@@@Z:PROC ; ioDummyChar::IsEntityCollisionSkipState
EXTRN	?IsCharCollisionSkipState@ioDummyChar@@UBE_NW4TeamType@@H@Z:PROC ; ioDummyChar::IsCharCollisionSkipState
EXTRN	?IsWoundedCollision@ioPlayEntity@@UBE_NABVioOrientBox@@PAUD3DXVECTOR3@@@Z:PROC ; ioPlayEntity::IsWoundedCollision
EXTRN	?GetAttackCollisionBox@ioDummyChar@@UAE?AVioOrientBox@@W4AniCollisionType@@_N@Z:PROC ; ioDummyChar::GetAttackCollisionBox
EXTRN	?CheckSphereDistance@ioPlayEntity@@UBE_NABUD3DXVECTOR3@@MAAM@Z:PROC ; ioPlayEntity::CheckSphereDistance
EXTRN	?CheckSpherePoint@ioPlayEntity@@UBE_NABUD3DXVECTOR3@@MAAU2@@Z:PROC ; ioPlayEntity::CheckSpherePoint
EXTRN	?CheckCylinderPoint@ioPlayEntity@@UBE_NABVioCylinder@@ABUD3DXVECTOR3@@AAU3@@Z:PROC ; ioPlayEntity::CheckCylinderPoint
EXTRN	?GetSubType@ioDummyChar@@UBE?AW4PlaySubType@ioPlayEntity@@XZ:PROC ; ioDummyChar::GetSubType
EXTRN	?GetArmorType@ioDummyChar@@UBE?AW4ArmorType@@XZ:PROC ; ioDummyChar::GetArmorType
EXTRN	?DontMoveEntityLevel@ioDummyChar@@UBEHXZ:PROC	; ioDummyChar::DontMoveEntityLevel
EXTRN	?NotifyDontMoveCollisionPushingSkip@ioPlayEntity@@UAEXPAVioGameEntity@@@Z:PROC ; ioPlayEntity::NotifyDontMoveCollisionPushingSkip
EXTRN	?GetWorldEventReceiver@ioDummyChar@@UAEPAVioWorldEventReceiver@@XZ:PROC ; ioDummyChar::GetWorldEventReceiver
EXTRN	?Revival@ioPlayEntity@@UAEXXZ:PROC		; ioPlayEntity::Revival
EXTRN	?UpdateGauge@ioDummyChar@@UAEXXZ:PROC		; ioDummyChar::UpdateGauge
EXTRN	?RenderGauge@ioDummyChar@@UAEXXZ:PROC		; ioDummyChar::RenderGauge
EXTRN	?FillMaxHP@ioPlayEntity@@UAEXXZ:PROC		; ioPlayEntity::FillMaxHP
EXTRN	?ProcessRecovery@ioPlayEntity@@MAEXXZ:PROC	; ioPlayEntity::ProcessRecovery
EXTRN	?AddHeadDamageInfo@ioPlayEntity@@UAEXH_N@Z:PROC	; ioPlayEntity::AddHeadDamageInfo
EXTRN	?RenderHeadInfoList@ioPlayEntity@@UAEXHH@Z:PROC	; ioPlayEntity::RenderHeadInfoList
EXTRN	?UpdateHeadInfoList@ioPlayEntity@@MAEXK@Z:PROC	; ioPlayEntity::UpdateHeadInfoList
EXTRN	?InitDummyCharInfo@ioDummyChar@@UAEXHKABUD3DXVECTOR3@@0M_N@Z:PROC ; ioDummyChar::InitDummyCharInfo
EXTRN	?GetDummyGrassType@ioDummyChar@@UAEHXZ:PROC	; ioDummyChar::GetDummyGrassType
EXTRN	?IsActivateWeapon@ioDummyChar@@UAE_NXZ:PROC	; ioDummyChar::IsActivateWeapon
EXTRN	?IsDummyVsDummyCollisionSkipState@ioDummyChar@@UAE_NPBV1@@Z:PROC ; ioDummyChar::IsDummyVsDummyCollisionSkipState
EXTRN	?ProcessDashState@ioDummyChar@@MAEXM@Z:PROC	; ioDummyChar::ProcessDashState
EXTRN	?ApplyDummyCharSync@ioDummyChar@@UAEXPAVioPlayStage@@AAVSP2Packet@@@Z:PROC ; ioDummyChar::ApplyDummyCharSync
EXTRN	?SetMoveState@ioDummyChar@@UAEXXZ:PROC		; ioDummyChar::SetMoveState
EXTRN	?SetDieState@ioDummyChar@@UAEX_N0@Z:PROC	; ioDummyChar::SetDieState
EXTRN	?SetDashState@ioDummyChar@@UAEXXZ:PROC		; ioDummyChar::SetDashState
EXTRN	?DropZoneCheck@ioDummyChar@@MAEXXZ:PROC		; ioDummyChar::DropZoneCheck
EXTRN	?SendAttackInfoToSkill@ioDummyChar@@MAEXXZ:PROC	; ioDummyChar::SendAttackInfoToSkill
EXTRN	?CheckCollisionWeapon@ioDummyChar@@UAEXPAVioBaseChar@@@Z:PROC ; ioDummyChar::CheckCollisionWeapon
EXTRN	?TranslateMountEntity@ioDummyChar@@MAEXABUD3DXVECTOR3@@@Z:PROC ; ioDummyChar::TranslateMountEntity
EXTRN	?ClearMountEntity@ioDummyChar@@MAEXXZ:PROC	; ioDummyChar::ClearMountEntity
EXTRN	?UpdateMountedEntityList@ioDummyChar@@MAEXXZ:PROC ; ioDummyChar::UpdateMountedEntityList
EXTRN	?UpdateMountedWeaponList@ioDummyChar@@MAEXXZ:PROC ; ioDummyChar::UpdateMountedWeaponList
EXTRN	?SetWorldPositionMountEntity@ioDummyChar@@MAEXM@Z:PROC ; ioDummyChar::SetWorldPositionMountEntity
EXTRN	?DummyDieClearMountEntity@ioDummyChar@@MAEXXZ:PROC ; ioDummyChar::DummyDieClearMountEntity
EXTRN	?FillDummyCharMidSync@ioDummyChar@@UAEXPAVioBaseChar@@AAVSP2Packet@@@Z:PROC ; ioDummyChar::FillDummyCharMidSync
EXTRN	?ApplyDummyCharMidSync@ioDummyChar@@UAEXPAVioBaseChar@@AAVSP2Packet@@@Z:PROC ; ioDummyChar::ApplyDummyCharMidSync
EXTRN	?GetSkillMaxActiveCnt@ioDummyChar@@UAEHXZ:PROC	; ioDummyChar::GetSkillMaxActiveCnt
EXTRN	?GetSkillCurActiveCnt@ioDummyChar@@UAEHXZ:PROC	; ioDummyChar::GetSkillCurActiveCnt
EXTRN	?OnTelepotation@ioDummyChar@@UAEXABUD3DXVECTOR3@@@Z:PROC ; ioDummyChar::OnTelepotation
EXTRN	?OnFireZoneDamage@ioDummyChar@@UAEXMABVioHashString@@@Z:PROC ; ioDummyChar::OnFireZoneDamage
EXTRN	?OnPoisonZoneDamage@ioDummyChar@@UAEXXZ:PROC	; ioDummyChar::OnPoisonZoneDamage
;	COMDAT ??_R4ioMamaHahaDummy@@6BioWorldEventReceiver@@@
; File c:\program files (x86)\microsoft visual studio 10.0\vc\include\xutility
rdata$r	SEGMENT
??_R4ioMamaHahaDummy@@6BioWorldEventReceiver@@@ DD 00H	; ioMamaHahaDummy::`RTTI Complete Object Locator'
	DD	01c8H
	DD	00H
	DD	FLAT:??_R0?AVioMamaHahaDummy@@@8
	DD	FLAT:??_R3ioMamaHahaDummy@@8
rdata$r	ENDS
;	COMDAT ??_R1A@?0A@EA@ioWorldEventReceiver@@8
rdata$r	SEGMENT
??_R1A@?0A@EA@ioWorldEventReceiver@@8 DD FLAT:??_R0?AVioWorldEventReceiver@@@8 ; ioWorldEventReceiver::`RTTI Base Class Descriptor at (0,-1,0,64)'
	DD	00H
	DD	00H
	DD	0ffffffffH
	DD	00H
	DD	040H
	DD	FLAT:??_R3ioWorldEventReceiver@@8
rdata$r	ENDS
;	COMDAT ??_R2ioWorldEventReceiver@@8
rdata$r	SEGMENT
??_R2ioWorldEventReceiver@@8 DD FLAT:??_R1A@?0A@EA@ioWorldEventReceiver@@8 ; ioWorldEventReceiver::`RTTI Base Class Array'
rdata$r	ENDS
;	COMDAT ??_R3ioWorldEventReceiver@@8
rdata$r	SEGMENT
??_R3ioWorldEventReceiver@@8 DD 00H			; ioWorldEventReceiver::`RTTI Class Hierarchy Descriptor'
	DD	00H
	DD	01H
	DD	FLAT:??_R2ioWorldEventReceiver@@8
rdata$r	ENDS
;	COMDAT ??_R0?AVioWorldEventReceiver@@@8
_DATA	SEGMENT
??_R0?AVioWorldEventReceiver@@@8 DD FLAT:??_7type_info@@6B@ ; ioWorldEventReceiver `RTTI Type Descriptor'
	DD	00H
	DB	'.?AVioWorldEventReceiver@@', 00H
_DATA	ENDS
;	COMDAT ??_R1BMI@?0A@EA@ioWorldEventReceiver@@8
rdata$r	SEGMENT
??_R1BMI@?0A@EA@ioWorldEventReceiver@@8 DD FLAT:??_R0?AVioWorldEventReceiver@@@8 ; ioWorldEventReceiver::`RTTI Base Class Descriptor at (456,-1,0,64)'
	DD	00H
	DD	01c8H
	DD	0ffffffffH
	DD	00H
	DD	040H
	DD	FLAT:??_R3ioWorldEventReceiver@@8
rdata$r	ENDS
;	COMDAT ??_R2ioEntityEvent@@8
rdata$r	SEGMENT
??_R2ioEntityEvent@@8 DD FLAT:??_R1A@?0A@EA@ioEntityEvent@@8 ; ioEntityEvent::`RTTI Base Class Array'
rdata$r	ENDS
;	COMDAT ??_R3ioEntityEvent@@8
rdata$r	SEGMENT
??_R3ioEntityEvent@@8 DD 00H				; ioEntityEvent::`RTTI Class Hierarchy Descriptor'
	DD	00H
	DD	01H
	DD	FLAT:??_R2ioEntityEvent@@8
rdata$r	ENDS
;	COMDAT ??_R0?AVioEntityEvent@@@8
_DATA	SEGMENT
??_R0?AVioEntityEvent@@@8 DD FLAT:??_7type_info@@6B@	; ioEntityEvent `RTTI Type Descriptor'
	DD	00H
	DB	'.?AVioEntityEvent@@', 00H
_DATA	ENDS
;	COMDAT ??_R1A@?0A@EA@ioEntityEvent@@8
rdata$r	SEGMENT
??_R1A@?0A@EA@ioEntityEvent@@8 DD FLAT:??_R0?AVioEntityEvent@@@8 ; ioEntityEvent::`RTTI Base Class Descriptor at (0,-1,0,64)'
	DD	00H
	DD	00H
	DD	0ffffffffH
	DD	00H
	DD	040H
	DD	FLAT:??_R3ioEntityEvent@@8
rdata$r	ENDS
;	COMDAT ??_R2ioGameEntity@@8
rdata$r	SEGMENT
??_R2ioGameEntity@@8 DD FLAT:??_R1A@?0A@EA@ioGameEntity@@8 ; ioGameEntity::`RTTI Base Class Array'
	DD	FLAT:??_R1A@?0A@EA@ioEntityEvent@@8
rdata$r	ENDS
;	COMDAT ??_R3ioGameEntity@@8
rdata$r	SEGMENT
??_R3ioGameEntity@@8 DD 00H				; ioGameEntity::`RTTI Class Hierarchy Descriptor'
	DD	00H
	DD	02H
	DD	FLAT:??_R2ioGameEntity@@8
rdata$r	ENDS
;	COMDAT ??_R1A@?0A@EA@ioGameEntity@@8
rdata$r	SEGMENT
??_R1A@?0A@EA@ioGameEntity@@8 DD FLAT:??_R0?AVioGameEntity@@@8 ; ioGameEntity::`RTTI Base Class Descriptor at (0,-1,0,64)'
	DD	01H
	DD	00H
	DD	0ffffffffH
	DD	00H
	DD	040H
	DD	FLAT:??_R3ioGameEntity@@8
rdata$r	ENDS
;	COMDAT ??_R2ioPlayEntity@@8
rdata$r	SEGMENT
??_R2ioPlayEntity@@8 DD FLAT:??_R1A@?0A@EA@ioPlayEntity@@8 ; ioPlayEntity::`RTTI Base Class Array'
	DD	FLAT:??_R1A@?0A@EA@ioGameEntity@@8
	DD	FLAT:??_R1A@?0A@EA@ioEntityEvent@@8
rdata$r	ENDS
;	COMDAT ??_R3ioPlayEntity@@8
rdata$r	SEGMENT
??_R3ioPlayEntity@@8 DD 00H				; ioPlayEntity::`RTTI Class Hierarchy Descriptor'
	DD	00H
	DD	03H
	DD	FLAT:??_R2ioPlayEntity@@8
rdata$r	ENDS
;	COMDAT ??_R1A@?0A@EA@ioPlayEntity@@8
rdata$r	SEGMENT
??_R1A@?0A@EA@ioPlayEntity@@8 DD FLAT:??_R0?AVioPlayEntity@@@8 ; ioPlayEntity::`RTTI Base Class Descriptor at (0,-1,0,64)'
	DD	02H
	DD	00H
	DD	0ffffffffH
	DD	00H
	DD	040H
	DD	FLAT:??_R3ioPlayEntity@@8
rdata$r	ENDS
;	COMDAT ??_R2ioDummyChar@@8
rdata$r	SEGMENT
??_R2ioDummyChar@@8 DD FLAT:??_R1A@?0A@EA@ioDummyChar@@8 ; ioDummyChar::`RTTI Base Class Array'
	DD	FLAT:??_R1A@?0A@EA@ioPlayEntity@@8
	DD	FLAT:??_R1A@?0A@EA@ioGameEntity@@8
	DD	FLAT:??_R1A@?0A@EA@ioEntityEvent@@8
	DD	FLAT:??_R1BMI@?0A@EA@ioWorldEventReceiver@@8
rdata$r	ENDS
;	COMDAT ??_R3ioDummyChar@@8
rdata$r	SEGMENT
??_R3ioDummyChar@@8 DD 00H				; ioDummyChar::`RTTI Class Hierarchy Descriptor'
	DD	01H
	DD	05H
	DD	FLAT:??_R2ioDummyChar@@8
rdata$r	ENDS
;	COMDAT ??_R0?AVioDummyChar@@@8
_DATA	SEGMENT
??_R0?AVioDummyChar@@@8 DD FLAT:??_7type_info@@6B@	; ioDummyChar `RTTI Type Descriptor'
	DD	00H
	DB	'.?AVioDummyChar@@', 00H
_DATA	ENDS
;	COMDAT ??_R1A@?0A@EA@ioDummyChar@@8
rdata$r	SEGMENT
??_R1A@?0A@EA@ioDummyChar@@8 DD FLAT:??_R0?AVioDummyChar@@@8 ; ioDummyChar::`RTTI Base Class Descriptor at (0,-1,0,64)'
	DD	04H
	DD	00H
	DD	0ffffffffH
	DD	00H
	DD	040H
	DD	FLAT:??_R3ioDummyChar@@8
rdata$r	ENDS
;	COMDAT ??_R1A@?0A@EA@ioMamaHahaDummy@@8
rdata$r	SEGMENT
??_R1A@?0A@EA@ioMamaHahaDummy@@8 DD FLAT:??_R0?AVioMamaHahaDummy@@@8 ; ioMamaHahaDummy::`RTTI Base Class Descriptor at (0,-1,0,64)'
	DD	05H
	DD	00H
	DD	0ffffffffH
	DD	00H
	DD	040H
	DD	FLAT:??_R3ioMamaHahaDummy@@8
rdata$r	ENDS
;	COMDAT ??_R2ioMamaHahaDummy@@8
rdata$r	SEGMENT
??_R2ioMamaHahaDummy@@8 DD FLAT:??_R1A@?0A@EA@ioMamaHahaDummy@@8 ; ioMamaHahaDummy::`RTTI Base Class Array'
	DD	FLAT:??_R1A@?0A@EA@ioDummyChar@@8
	DD	FLAT:??_R1A@?0A@EA@ioPlayEntity@@8
	DD	FLAT:??_R1A@?0A@EA@ioGameEntity@@8
	DD	FLAT:??_R1A@?0A@EA@ioEntityEvent@@8
	DD	FLAT:??_R1BMI@?0A@EA@ioWorldEventReceiver@@8
rdata$r	ENDS
;	COMDAT ??_R3ioMamaHahaDummy@@8
rdata$r	SEGMENT
??_R3ioMamaHahaDummy@@8 DD 00H				; ioMamaHahaDummy::`RTTI Class Hierarchy Descriptor'
	DD	01H
	DD	06H
	DD	FLAT:??_R2ioMamaHahaDummy@@8
rdata$r	ENDS
;	COMDAT ??_R0?AVioMamaHahaDummy@@@8
_DATA	SEGMENT
??_R0?AVioMamaHahaDummy@@@8 DD FLAT:??_7type_info@@6B@	; ioMamaHahaDummy `RTTI Type Descriptor'
	DD	00H
	DB	'.?AVioMamaHahaDummy@@', 00H
_DATA	ENDS
;	COMDAT ??_R4ioMamaHahaDummy@@6BioPlayEntity@@@
rdata$r	SEGMENT
??_R4ioMamaHahaDummy@@6BioPlayEntity@@@ DD 00H		; ioMamaHahaDummy::`RTTI Complete Object Locator'
	DD	00H
	DD	00H
	DD	FLAT:??_R0?AVioMamaHahaDummy@@@8
	DD	FLAT:??_R3ioMamaHahaDummy@@8
rdata$r	ENDS
;	COMDAT ??_7ioMamaHahaDummy@@6BioWorldEventReceiver@@@
CONST	SEGMENT
??_7ioMamaHahaDummy@@6BioWorldEventReceiver@@@ DD FLAT:??_R4ioMamaHahaDummy@@6BioWorldEventReceiver@@@ ; ioMamaHahaDummy::`vftable'
	DD	FLAT:?OnTelepotation@ioDummyChar@@UAEXABUD3DXVECTOR3@@@Z
	DD	FLAT:?OnFireZoneDamage@ioDummyChar@@UAEXMABVioHashString@@@Z
	DD	FLAT:?OnPoisonZoneDamage@ioDummyChar@@UAEXXZ
	DD	FLAT:??_EioMamaHahaDummy@@WBMI@AEPAXI@Z
CONST	ENDS
;	COMDAT ??_7ioMamaHahaDummy@@6BioPlayEntity@@@
CONST	SEGMENT
??_7ioMamaHahaDummy@@6BioPlayEntity@@@ DD FLAT:??_R4ioMamaHahaDummy@@6BioPlayEntity@@@ ; ioMamaHahaDummy::`vftable'
	DD	FLAT:?AddEntityEvent@ioDummyChar@@UAEXPAVioEntity@@@Z
	DD	FLAT:??_EioMamaHahaDummy@@UAEPAXI@Z
	DD	FLAT:?Update@ioDummyChar@@UAEXMKK@Z
	DD	FLAT:?UpdateAfter@ioDummyChar@@UAEXM@Z
	DD	FLAT:?GetTypeID@ioPlayEntity@@UBEHXZ
	DD	FLAT:?IsNeedCheckMapCollision@ioDummyChar@@UBE_NXZ
	DD	FLAT:?IsMountAvailable@ioDummyChar@@UBE_NXZ
	DD	FLAT:?IsMountingAvailable@ioDummyChar@@UBE_NXZ
	DD	FLAT:?IsNowMountEnable@ioDummyChar@@UBE_NXZ
	DD	FLAT:?IsAllWeaponDefence@ioGameEntity@@UBE_NXZ
	DD	FLAT:?HasEntity@ioGameEntity@@UAE_NABVioHashString@@@Z
	DD	FLAT:?AddEntity@ioGameEntity@@UAEPAVioEntity@@ABVioHashString@@@Z
	DD	FLAT:?DestroyEntity@ioGameEntity@@UAE_NABVioHashString@@@Z
	DD	FLAT:?GetEntity@ioGameEntity@@UAEPAVioEntity@@ABVioHashString@@@Z
	DD	FLAT:?UpdateBound@ioGameEntity@@MBEXXZ
	DD	FLAT:?UpdateBottomHeight@ioDummyChar@@MBEXXZ
	DD	FLAT:?NeedUpdateBottomHeight@ioDummyChar@@UAEXXZ
	DD	FLAT:?SetWorldPosition@ioGameEntity@@UAEXABUD3DXVECTOR3@@@Z
	DD	FLAT:?SetWorldOrientation@ioGameEntity@@UAEXABUD3DXQUATERNION@@@Z
	DD	FLAT:?SetWorldScale@ioGameEntity@@UAEXABUD3DXVECTOR3@@@Z
	DD	FLAT:?Translate@ioDummyChar@@UAEXABUD3DXVECTOR3@@@Z
	DD	FLAT:?TranslateByConveyer@ioDummyChar@@UAEXABUD3DXVECTOR3@@@Z
	DD	FLAT:?TranslateByWorldEntity@ioDummyChar@@UAEXABUD3DXVECTOR3@@@Z
	DD	FLAT:?MapCollisionPushingTranslate@ioDummyChar@@UAEXABUD3DXVECTOR3@@@Z
	DD	FLAT:?DontMoveCollisionPushingTranslate@ioGameEntity@@UAEXPAV1@ABUD3DXVECTOR3@@@Z
	DD	FLAT:?Rotate@ioGameEntity@@UAEXABUD3DXVECTOR3@@MW4TransformSpace@ioNode@@@Z
	DD	FLAT:?Scale@ioGameEntity@@UAEXMMM@Z
	DD	FLAT:?Scale@ioGameEntity@@UAEXABUD3DXVECTOR3@@@Z
	DD	FLAT:?GetWorldPosition@ioGameEntity@@UBEABUD3DXVECTOR3@@XZ
	DD	FLAT:?GetWorldOrientation@ioGameEntity@@UBEABUD3DXQUATERNION@@XZ
	DD	FLAT:?GetWorldScale@ioGameEntity@@UBEABUD3DXVECTOR3@@XZ
	DD	FLAT:?ApplyWeapon@ioDummyChar@@UAE?AW4ApplyWeaponExp@@PAVioWeapon@@@Z
	DD	FLAT:?IsCollisionAvailableWeapon@ioDummyChar@@UAE_NPAVioWeapon@@@Z
	DD	FLAT:?IsCollisionAvailableRange@ioPlayEntity@@UAE_NPAVioWeapon@@@Z
	DD	FLAT:?IsEntityCollisionSkipState@ioDummyChar@@UBE_NPAVioGameEntity@@@Z
	DD	FLAT:?IsCharCollisionSkipState@ioDummyChar@@UBE_NW4TeamType@@H@Z
	DD	FLAT:?IsWoundedCollision@ioPlayEntity@@UBE_NABVioOrientBox@@PAUD3DXVECTOR3@@@Z
	DD	FLAT:?GetAttackCollisionBox@ioDummyChar@@UAE?AVioOrientBox@@W4AniCollisionType@@_N@Z
	DD	FLAT:?CheckSphereDistance@ioPlayEntity@@UBE_NABUD3DXVECTOR3@@MAAM@Z
	DD	FLAT:?CheckSpherePoint@ioPlayEntity@@UBE_NABUD3DXVECTOR3@@MAAU2@@Z
	DD	FLAT:?CheckCylinderPoint@ioPlayEntity@@UBE_NABVioCylinder@@ABUD3DXVECTOR3@@AAU3@@Z
	DD	FLAT:?GetSubType@ioDummyChar@@UBE?AW4PlaySubType@ioPlayEntity@@XZ
	DD	FLAT:?GetArmorType@ioDummyChar@@UBE?AW4ArmorType@@XZ
	DD	FLAT:?DontMoveEntityLevel@ioDummyChar@@UBEHXZ
	DD	FLAT:?NotifyDontMoveCollisionPushingSkip@ioPlayEntity@@UAEXPAVioGameEntity@@@Z
	DD	FLAT:?LoadProperty@ioMamaHahaDummy@@UAEXAAVioINILoader@@@Z
	DD	FLAT:?GetWorldEventReceiver@ioDummyChar@@UAEPAVioWorldEventReceiver@@XZ
	DD	FLAT:?Revival@ioPlayEntity@@UAEXXZ
	DD	FLAT:?UpdateGauge@ioDummyChar@@UAEXXZ
	DD	FLAT:?RenderGauge@ioDummyChar@@UAEXXZ
	DD	FLAT:?FillMaxHP@ioPlayEntity@@UAEXXZ
	DD	FLAT:?ProcessRecovery@ioPlayEntity@@MAEXXZ
	DD	FLAT:?AddHeadDamageInfo@ioPlayEntity@@UAEXH_N@Z
	DD	FLAT:?RenderHeadInfoList@ioPlayEntity@@UAEXHH@Z
	DD	FLAT:?UpdateHeadInfoList@ioPlayEntity@@MAEXK@Z
	DD	FLAT:?SetTeam@ioPlayEntity@@UAEXW4TeamType@@@Z
	DD	FLAT:?InitDummyCharInfo@ioDummyChar@@UAEXHKABUD3DXVECTOR3@@0M_N@Z
	DD	FLAT:?TestMapCollision@ioMamaHahaDummy@@UAE_NPAVioOpcodeShape@@PAVioPlayStage@@PBUD3DXMATRIX@@@Z
	DD	FLAT:?CheckEntityCollision@ioMamaHahaDummy@@UAEXPAVioPlayEntity@@@Z
	DD	FLAT:?GetDummyGrassType@ioDummyChar@@UAEHXZ
	DD	FLAT:?IsActivateWeapon@ioDummyChar@@UAE_NXZ
	DD	FLAT:?IsDummyVsDummyCollisionSkipState@ioDummyChar@@UAE_NPBV1@@Z
	DD	FLAT:?ProcessState@ioMamaHahaDummy@@MAEXMK@Z
	DD	FLAT:?ProcessPos@ioMamaHahaDummy@@MAEXM@Z
	DD	FLAT:?ProcessDelayState@ioMamaHahaDummy@@MAEXM@Z
	DD	FLAT:?ProcessMoveState@ioMamaHahaDummy@@MAEXM@Z
	DD	FLAT:?ProcessDashState@ioDummyChar@@MAEXM@Z
	DD	FLAT:?ProcessAttackState@ioMamaHahaDummy@@MAEXMK@Z
	DD	FLAT:?ApplyDummyCharSync@ioDummyChar@@UAEXPAVioPlayStage@@AAVSP2Packet@@@Z
	DD	FLAT:?SetDelayState@ioMamaHahaDummy@@UAEX_N@Z
	DD	FLAT:?SetMoveState@ioDummyChar@@UAEXXZ
	DD	FLAT:?SetDieState@ioDummyChar@@UAEX_N0@Z
	DD	FLAT:?SetDashState@ioDummyChar@@UAEXXZ
	DD	FLAT:?SetAttackState@ioMamaHahaDummy@@UAEXXZ
	DD	FLAT:?DropZoneCheck@ioDummyChar@@MAEXXZ
	DD	FLAT:?SendAttackInfoToSkill@ioDummyChar@@MAEXXZ
	DD	FLAT:?CheckCollisionWeapon@ioDummyChar@@UAEXPAVioBaseChar@@@Z
	DD	FLAT:?TranslateMountEntity@ioDummyChar@@MAEXABUD3DXVECTOR3@@@Z
	DD	FLAT:?ClearMountEntity@ioDummyChar@@MAEXXZ
	DD	FLAT:?UpdateMountedEntityList@ioDummyChar@@MAEXXZ
	DD	FLAT:?UpdateMountedWeaponList@ioDummyChar@@MAEXXZ
	DD	FLAT:?SetWorldPositionMountEntity@ioDummyChar@@MAEXM@Z
	DD	FLAT:?DummyDieClearMountEntity@ioDummyChar@@MAEXXZ
	DD	FLAT:?IsDummyCharMidSync@ioDummyChar@@UAE_NXZ
	DD	FLAT:?FillDummyCharMidSync@ioDummyChar@@UAEXPAVioBaseChar@@AAVSP2Packet@@@Z
	DD	FLAT:?ApplyDummyCharMidSync@ioDummyChar@@UAEXPAVioBaseChar@@AAVSP2Packet@@@Z
	DD	FLAT:?GetSkillMaxActiveCnt@ioDummyChar@@UAEHXZ
	DD	FLAT:?GetSkillCurActiveCnt@ioDummyChar@@UAEHXZ
CONST	ENDS
;	COMDAT xdata$x
xdata$x	SEGMENT
__ehfuncinfo$??0ioMamaHahaDummy@@QAE@PAVioEntityGroup@@PAVioPlayMode@@@Z DD 019930522H
	DD	09H
	DD	FLAT:__unwindtable$??0ioMamaHahaDummy@@QAE@PAVioEntityGroup@@PAVioPlayMode@@@Z
	DD	2 DUP(00H)
	DD	2 DUP(00H)
	DD	00H
	DD	01H
__unwindtable$??0ioMamaHahaDummy@@QAE@PAVioEntityGroup@@PAVioPlayMode@@@Z DD 0ffffffffH
	DD	FLAT:__unwindfunclet$??0ioMamaHahaDummy@@QAE@PAVioEntityGroup@@PAVioPlayMode@@@Z$0
	DD	00H
	DD	FLAT:__unwindfunclet$??0ioMamaHahaDummy@@QAE@PAVioEntityGroup@@PAVioPlayMode@@@Z$1
	DD	01H
	DD	FLAT:__unwindfunclet$??0ioMamaHahaDummy@@QAE@PAVioEntityGroup@@PAVioPlayMode@@@Z$2
	DD	02H
	DD	FLAT:__unwindfunclet$??0ioMamaHahaDummy@@QAE@PAVioEntityGroup@@PAVioPlayMode@@@Z$3
	DD	03H
	DD	FLAT:__unwindfunclet$??0ioMamaHahaDummy@@QAE@PAVioEntityGroup@@PAVioPlayMode@@@Z$4
	DD	04H
	DD	FLAT:__unwindfunclet$??0ioMamaHahaDummy@@QAE@PAVioEntityGroup@@PAVioPlayMode@@@Z$5
	DD	05H
	DD	FLAT:__unwindfunclet$??0ioMamaHahaDummy@@QAE@PAVioEntityGroup@@PAVioPlayMode@@@Z$6
	DD	06H
	DD	FLAT:__unwindfunclet$??0ioMamaHahaDummy@@QAE@PAVioEntityGroup@@PAVioPlayMode@@@Z$7
	DD	07H
	DD	FLAT:__unwindfunclet$??0ioMamaHahaDummy@@QAE@PAVioEntityGroup@@PAVioPlayMode@@@Z$8
; Function compile flags: /Ogsp
; File d:\lost saga for developer\youtube\tutorial\source\src\lsclient\iomamahahadummy.cpp
xdata$x	ENDS
;	COMDAT ??0ioMamaHahaDummy@@QAE@PAVioEntityGroup@@PAVioPlayMode@@@Z
_TEXT	SEGMENT
_this$ = -16						; size = 4
__$EHRec$ = -12						; size = 12
_pGrp$ = 8						; size = 4
$T676024 = 12						; size = 4
_pMode$ = 12						; size = 4
??0ioMamaHahaDummy@@QAE@PAVioEntityGroup@@PAVioPlayMode@@@Z PROC ; ioMamaHahaDummy::ioMamaHahaDummy, COMDAT
; _this$ = ecx

; 22   : {

  00000	6a 04		 push	 4
  00002	b8 00 00 00 00	 mov	 eax, __ehhandler$??0ioMamaHahaDummy@@QAE@PAVioEntityGroup@@PAVioPlayMode@@@Z
  00007	e8 00 00 00 00	 call	 __EH_prolog3
  0000c	8b d9		 mov	 ebx, ecx
  0000e	89 5d f0	 mov	 DWORD PTR _this$[ebp], ebx
  00011	ff 75 0c	 push	 DWORD PTR _pMode$[ebp]
  00014	ff 75 08	 push	 DWORD PTR _pGrp$[ebp]
  00017	e8 00 00 00 00	 call	 ??0ioDummyChar@@QAE@PAVioEntityGroup@@PAVioPlayMode@@@Z ; ioDummyChar::ioDummyChar
  0001c	8b 35 00 00 00
	00		 mov	 esi, DWORD PTR __imp_??0ioHashString@@QAE@XZ
  00022	33 ff		 xor	 edi, edi
  00024	8d 8b 9c 14 00
	00		 lea	 ecx, DWORD PTR [ebx+5276]
  0002a	89 7d fc	 mov	 DWORD PTR __$EHRec$[ebp+8], edi
  0002d	c7 03 00 00 00
	00		 mov	 DWORD PTR [ebx], OFFSET ??_7ioMamaHahaDummy@@6BioPlayEntity@@@
  00033	c7 83 c8 01 00
	00 00 00 00 00	 mov	 DWORD PTR [ebx+456], OFFSET ??_7ioMamaHahaDummy@@6BioWorldEventReceiver@@@
  0003d	ff d6		 call	 esi
  0003f	8d 8b b0 14 00
	00		 lea	 ecx, DWORD PTR [ebx+5296]
  00045	c6 45 fc 01	 mov	 BYTE PTR __$EHRec$[ebp+8], 1
  00049	ff d6		 call	 esi
  0004b	8d 8b c4 14 00
	00		 lea	 ecx, DWORD PTR [ebx+5316]
  00051	c6 45 fc 02	 mov	 BYTE PTR __$EHRec$[ebp+8], 2
  00055	ff d6		 call	 esi
  00057	8d 8b d4 14 00
	00		 lea	 ecx, DWORD PTR [ebx+5332]
  0005d	c6 45 fc 03	 mov	 BYTE PTR __$EHRec$[ebp+8], 3
  00061	ff d6		 call	 esi
  00063	8d 8b f0 14 00
	00		 lea	 ecx, DWORD PTR [ebx+5360]
  00069	c6 45 fc 04	 mov	 BYTE PTR __$EHRec$[ebp+8], 4
  0006d	e8 00 00 00 00	 call	 ??0?$CEncrypt@M@@QAE@XZ	; CEncrypt<float>::CEncrypt<float>
  00072	8d 8b 20 15 00
	00		 lea	 ecx, DWORD PTR [ebx+5408]
  00078	c6 45 fc 05	 mov	 BYTE PTR __$EHRec$[ebp+8], 5
  0007c	e8 00 00 00 00	 call	 ??0?$CEncrypt@M@@QAE@XZ	; CEncrypt<float>::CEncrypt<float>
  00081	8d 8b 50 15 00
	00		 lea	 ecx, DWORD PTR [ebx+5456]
  00087	c6 45 fc 06	 mov	 BYTE PTR __$EHRec$[ebp+8], 6
  0008b	e8 00 00 00 00	 call	 ??0?$CEncrypt@M@@QAE@XZ	; CEncrypt<float>::CEncrypt<float>
  00090	8d 8b 80 15 00
	00		 lea	 ecx, DWORD PTR [ebx+5504]
  00096	c6 45 fc 07	 mov	 BYTE PTR __$EHRec$[ebp+8], 7
  0009a	e8 00 00 00 00	 call	 ??0?$CEncrypt@M@@QAE@XZ	; CEncrypt<float>::CEncrypt<float>
  0009f	8d 8b b0 15 00
	00		 lea	 ecx, DWORD PTR [ebx+5552]
  000a5	c6 45 fc 08	 mov	 BYTE PTR __$EHRec$[ebp+8], 8
  000a9	e8 00 00 00 00	 call	 ??0?$CEncrypt@K@@QAE@XZ	; CEncrypt<unsigned long>::CEncrypt<unsigned long>
  000ae	8d 8b 00 16 00
	00		 lea	 ecx, DWORD PTR [ebx+5632]
  000b4	89 39		 mov	 DWORD PTR [ecx], edi
  000b6	89 79 04	 mov	 DWORD PTR [ecx+4], edi
  000b9	89 79 08	 mov	 DWORD PTR [ecx+8], edi

; 23   : 	m_MamaHahaState = MHS_NONE;

  000bc	89 bb 80 14 00
	00		 mov	 DWORD PTR [ebx+5248], edi

; 24   : 
; 25   : 	m_vShichikapuMoveTargetPos = ioMath::VEC3_ZERO;

  000c2	8b 35 00 00 00
	00		 mov	 esi, DWORD PTR __imp_?VEC3_ZERO@ioMath@@2UD3DXVECTOR3@@A

; 26   : 	m_vShichikapuMoveDir = ioMath::VEC3_ZERO;
; 27   : 
; 28   : 	m_fShichikapuMoveMaxRange = 0.0f;

  000c8	0f 57 c0	 xorps	 xmm0, xmm0
  000cb	8d bb e0 15 00
	00		 lea	 edi, DWORD PTR [ebx+5600]
  000d1	a5		 movsd
  000d2	a5		 movsd
  000d3	a5		 movsd
  000d4	8b 35 00 00 00
	00		 mov	 esi, DWORD PTR __imp_?VEC3_ZERO@ioMath@@2UD3DXVECTOR3@@A
  000da	8d bb ec 15 00
	00		 lea	 edi, DWORD PTR [ebx+5612]
  000e0	a5		 movsd
  000e1	a5		 movsd
  000e2	a5		 movsd
  000e3	f3 0f 11 83 f8
	15 00 00	 movss	 DWORD PTR [ebx+5624], xmm0

; 29   : 	m_fShichikapuMoveCurRange = 0.0f;

  000eb	f3 0f 11 83 fc
	15 00 00	 movss	 DWORD PTR [ebx+5628], xmm0

; 30   : 
; 31   : 	m_vMamaHahaWeaponList.clear();

  000f3	8b 41 04	 mov	 eax, DWORD PTR [ecx+4]
  000f6	8b 11		 mov	 edx, DWORD PTR [ecx]
  000f8	50		 push	 eax
  000f9	52		 push	 edx
  000fa	8d 45 0c	 lea	 eax, DWORD PTR $T676024[ebp]
  000fd	50		 push	 eax
  000fe	e8 00 00 00 00	 call	 ?erase@?$vector@HV?$allocator@H@std@@@std@@QAE?AV?$_Vector_iterator@V?$_Vector_val@HV?$allocator@H@std@@@std@@@2@V?$_Vector_const_iterator@V?$_Vector_val@HV?$allocator@H@std@@@std@@@2@0@Z ; std::vector<int,std::allocator<int> >::erase

; 32   : }

  00103	8b c3		 mov	 eax, ebx
  00105	e8 00 00 00 00	 call	 __EH_epilog3
  0010a	c2 08 00	 ret	 8
_TEXT	ENDS
;	COMDAT text$x
text$x	SEGMENT
__unwindfunclet$??0ioMamaHahaDummy@@QAE@PAVioEntityGroup@@PAVioPlayMode@@@Z$0:
  00000	8b 4d f0	 mov	 ecx, DWORD PTR _this$[ebp]
  00003	e9 00 00 00 00	 jmp	 ??1ioDummyChar@@UAE@XZ	; ioDummyChar::~ioDummyChar
__unwindfunclet$??0ioMamaHahaDummy@@QAE@PAVioEntityGroup@@PAVioPlayMode@@@Z$1:
  00008	8b 4d f0	 mov	 ecx, DWORD PTR _this$[ebp]
  0000b	81 c1 9c 14 00
	00		 add	 ecx, 5276		; 0000149cH
  00011	ff 25 00 00 00
	00		 jmp	 DWORD PTR __imp_??1ioHashString@@QAE@XZ
__unwindfunclet$??0ioMamaHahaDummy@@QAE@PAVioEntityGroup@@PAVioPlayMode@@@Z$2:
  00017	8b 4d f0	 mov	 ecx, DWORD PTR _this$[ebp]
  0001a	81 c1 b0 14 00
	00		 add	 ecx, 5296		; 000014b0H
  00020	ff 25 00 00 00
	00		 jmp	 DWORD PTR __imp_??1ioHashString@@QAE@XZ
__unwindfunclet$??0ioMamaHahaDummy@@QAE@PAVioEntityGroup@@PAVioPlayMode@@@Z$3:
  00026	8b 4d f0	 mov	 ecx, DWORD PTR _this$[ebp]
  00029	81 c1 c4 14 00
	00		 add	 ecx, 5316		; 000014c4H
  0002f	ff 25 00 00 00
	00		 jmp	 DWORD PTR __imp_??1ioHashString@@QAE@XZ
__unwindfunclet$??0ioMamaHahaDummy@@QAE@PAVioEntityGroup@@PAVioPlayMode@@@Z$4:
  00035	8b 4d f0	 mov	 ecx, DWORD PTR _this$[ebp]
  00038	81 c1 d4 14 00
	00		 add	 ecx, 5332		; 000014d4H
  0003e	ff 25 00 00 00
	00		 jmp	 DWORD PTR __imp_??1ioHashString@@QAE@XZ
__unwindfunclet$??0ioMamaHahaDummy@@QAE@PAVioEntityGroup@@PAVioPlayMode@@@Z$5:
  00044	8b 4d f0	 mov	 ecx, DWORD PTR _this$[ebp]
  00047	81 c1 f0 14 00
	00		 add	 ecx, 5360		; 000014f0H
  0004d	e9 00 00 00 00	 jmp	 ??1?$CEncrypt@M@@UAE@XZ	; CEncrypt<float>::~CEncrypt<float>
__unwindfunclet$??0ioMamaHahaDummy@@QAE@PAVioEntityGroup@@PAVioPlayMode@@@Z$6:
  00052	8b 4d f0	 mov	 ecx, DWORD PTR _this$[ebp]
  00055	81 c1 20 15 00
	00		 add	 ecx, 5408		; 00001520H
  0005b	e9 00 00 00 00	 jmp	 ??1?$CEncrypt@M@@UAE@XZ	; CEncrypt<float>::~CEncrypt<float>
__unwindfunclet$??0ioMamaHahaDummy@@QAE@PAVioEntityGroup@@PAVioPlayMode@@@Z$7:
  00060	8b 4d f0	 mov	 ecx, DWORD PTR _this$[ebp]
  00063	81 c1 50 15 00
	00		 add	 ecx, 5456		; 00001550H
  00069	e9 00 00 00 00	 jmp	 ??1?$CEncrypt@M@@UAE@XZ	; CEncrypt<float>::~CEncrypt<float>
__unwindfunclet$??0ioMamaHahaDummy@@QAE@PAVioEntityGroup@@PAVioPlayMode@@@Z$8:
  0006e	8b 4d f0	 mov	 ecx, DWORD PTR _this$[ebp]
  00071	81 c1 80 15 00
	00		 add	 ecx, 5504		; 00001580H
  00077	e9 00 00 00 00	 jmp	 ??1?$CEncrypt@M@@UAE@XZ	; CEncrypt<float>::~CEncrypt<float>
__ehhandler$??0ioMamaHahaDummy@@QAE@PAVioEntityGroup@@PAVioPlayMode@@@Z:
  0007c	8b 54 24 08	 mov	 edx, DWORD PTR [esp+8]
  00080	8d 42 0c	 lea	 eax, DWORD PTR [edx+12]
  00083	8b 4a ec	 mov	 ecx, DWORD PTR [edx-20]
  00086	33 c8		 xor	 ecx, eax
  00088	e8 00 00 00 00	 call	 @__security_check_cookie@4
  0008d	b8 00 00 00 00	 mov	 eax, OFFSET __ehfuncinfo$??0ioMamaHahaDummy@@QAE@PAVioEntityGroup@@PAVioPlayMode@@@Z
  00092	e9 00 00 00 00	 jmp	 ___CxxFrameHandler3
text$x	ENDS
??0ioMamaHahaDummy@@QAE@PAVioEntityGroup@@PAVioPlayMode@@@Z ENDP ; ioMamaHahaDummy::ioMamaHahaDummy
; Function compile flags: /Odsp
;	COMDAT ??_EioMamaHahaDummy@@WBMI@AEPAXI@Z
_TEXT	SEGMENT
??_EioMamaHahaDummy@@WBMI@AEPAXI@Z PROC			; [thunk]:ioMamaHahaDummy::`vector deleting destructor', COMDAT
  00000	81 e9 c8 01 00
	00		 sub	 ecx, 456		; 000001c8H
  00006	e9 00 00 00 00	 jmp	 ??_EioMamaHahaDummy@@UAEPAXI@Z
??_EioMamaHahaDummy@@WBMI@AEPAXI@Z ENDP			; [thunk]:ioMamaHahaDummy::`vector deleting destructor'
; Function compile flags: /Ogsp
; File d:\lost saga for developer\youtube\tutorial\source\src\lsclient\iodummychar.h
_TEXT	ENDS
;	COMDAT ?IsDummyCharMidSync@ioDummyChar@@UAE_NXZ
_TEXT	SEGMENT
?IsDummyCharMidSync@ioDummyChar@@UAE_NXZ PROC		; ioDummyChar::IsDummyCharMidSync, COMDAT
; _this$ = ecx

; 742  : 	virtual bool IsDummyCharMidSync(){ return false; }

  00000	32 c0		 xor	 al, al
  00002	c3		 ret	 0
?IsDummyCharMidSync@ioDummyChar@@UAE_NXZ ENDP		; ioDummyChar::IsDummyCharMidSync
_TEXT	ENDS
PUBLIC	?EncryptValueToPool@?$CEncrypt@W4TeamType@@@@AAEXPBD@Z ; CEncrypt<enum TeamType>::EncryptValueToPool
; Function compile flags: /Ogsp
; File d:\lost saga for developer\youtube\tutorial\source\src\lsclient\encryptvalue.h
;	COMDAT ?EncryptValueToPool@?$CEncrypt@W4TeamType@@@@AAEXPBD@Z
_TEXT	SEGMENT
_value$ = 8						; size = 4
?EncryptValueToPool@?$CEncrypt@W4TeamType@@@@AAEXPBD@Z PROC ; CEncrypt<enum TeamType>::EncryptValueToPool, COMDAT
; _this$ = ecx

; 67   : 	{

  00000	55		 push	 ebp
  00001	8b ec		 mov	 ebp, esp

; 68   : 		m_RC5.EncryptByte( value, m_MemPool, max(m_ValueSize, DEFAULT_ENCRYPT) );

  00003	0f b7 41 06	 movzx	 eax, WORD PTR [ecx+6]
  00007	83 f8 04	 cmp	 eax, 4
  0000a	77 03		 ja	 SHORT $LN4@EncryptVal@3
  0000c	6a 04		 push	 4
  0000e	58		 pop	 eax
$LN4@EncryptVal@3:
  0000f	50		 push	 eax
  00010	8d 41 1c	 lea	 eax, DWORD PTR [ecx+28]
  00013	50		 push	 eax
  00014	ff 75 08	 push	 DWORD PTR _value$[ebp]
  00017	83 c1 0c	 add	 ecx, 12			; 0000000cH
  0001a	e8 00 00 00 00	 call	 ?EncryptByte@ccddaabb@@QAEXPBDPADH@Z ; ccddaabb::EncryptByte

; 69   : 		
; 70   : 	}

  0001f	5d		 pop	 ebp
  00020	c2 04 00	 ret	 4
?EncryptValueToPool@?$CEncrypt@W4TeamType@@@@AAEXPBD@Z ENDP ; CEncrypt<enum TeamType>::EncryptValueToPool
_TEXT	ENDS
PUBLIC	??4?$CEncrypt@W4TeamType@@@@QAE?AW4TeamType@@W41@@Z ; CEncrypt<enum TeamType>::operator=
; Function compile flags: /Ogsp
;	COMDAT ??4?$CEncrypt@W4TeamType@@@@QAE?AW4TeamType@@W41@@Z
_TEXT	SEGMENT
_value$ = 8						; size = 4
_inValue$ = 8						; size = 4
??4?$CEncrypt@W4TeamType@@@@QAE?AW4TeamType@@W41@@Z PROC ; CEncrypt<enum TeamType>::operator=, COMDAT
; _this$ = ecx

; 2965 : 	{

  00000	55		 push	 ebp
  00001	8b ec		 mov	 ebp, esp

; 2966 : 		type value = inValue;

  00003	8b 45 08	 mov	 eax, DWORD PTR _inValue$[ebp]
  00006	89 45 08	 mov	 DWORD PTR _value$[ebp], eax

; 2967 : 		EncryptValueToPool((char*)&value);

  00009	8d 45 08	 lea	 eax, DWORD PTR _value$[ebp]
  0000c	50		 push	 eax
  0000d	e8 00 00 00 00	 call	 ?EncryptValueToPool@?$CEncrypt@W4TeamType@@@@AAEXPBD@Z ; CEncrypt<enum TeamType>::EncryptValueToPool

; 2968 : #ifdef _NOTUSE
; 2969 : 		m_value = inValue;
; 2970 : 		Debug();
; 2971 : #endif
; 2972 : 		return value;

  00012	8b 45 08	 mov	 eax, DWORD PTR _value$[ebp]

; 2973 : 	}

  00015	5d		 pop	 ebp
  00016	c2 04 00	 ret	 4
??4?$CEncrypt@W4TeamType@@@@QAE?AW4TeamType@@W41@@Z ENDP ; CEncrypt<enum TeamType>::operator=
; Function compile flags: /Ogsp
; File d:\lost saga for developer\youtube\tutorial\source\src\lsclient\ioplayentity.h
_TEXT	ENDS
;	COMDAT ?SetTeam@ioPlayEntity@@UAEXW4TeamType@@@Z
_TEXT	SEGMENT
_value$676065 = 8					; size = 4
_eType$ = 8						; size = 4
?SetTeam@ioPlayEntity@@UAEXW4TeamType@@@Z PROC		; ioPlayEntity::SetTeam, COMDAT
; _this$ = ecx

; 106  : 	virtual void SetTeam( TeamType eType ) { m_TeamType = eType; }

  00000	55		 push	 ebp
  00001	8b ec		 mov	 ebp, esp
  00003	8b 45 08	 mov	 eax, DWORD PTR _eType$[ebp]
  00006	89 45 08	 mov	 DWORD PTR _value$676065[ebp], eax
  00009	8d 45 08	 lea	 eax, DWORD PTR _value$676065[ebp]
  0000c	50		 push	 eax
  0000d	81 c1 90 00 00
	00		 add	 ecx, 144		; 00000090H
  00013	e8 00 00 00 00	 call	 ?EncryptValueToPool@?$CEncrypt@W4TeamType@@@@AAEXPBD@Z ; CEncrypt<enum TeamType>::EncryptValueToPool
  00018	5d		 pop	 ebp
  00019	c2 04 00	 ret	 4
?SetTeam@ioPlayEntity@@UAEXW4TeamType@@@Z ENDP		; ioPlayEntity::SetTeam
_TEXT	ENDS
PUBLIC	??1ioMamaHahaDummy@@UAE@XZ			; ioMamaHahaDummy::~ioMamaHahaDummy
;	COMDAT xdata$x
; File d:\lost saga for developer\youtube\tutorial\source\src\lsclient\encryptvalue.h
xdata$x	SEGMENT
__ehfuncinfo$??1ioMamaHahaDummy@@UAE@XZ DD 019930522H
	DD	0aH
	DD	FLAT:__unwindtable$??1ioMamaHahaDummy@@UAE@XZ
	DD	2 DUP(00H)
	DD	2 DUP(00H)
	DD	00H
	DD	01H
__unwindtable$??1ioMamaHahaDummy@@UAE@XZ DD 0ffffffffH
	DD	FLAT:__unwindfunclet$??1ioMamaHahaDummy@@UAE@XZ$0
	DD	00H
	DD	FLAT:__unwindfunclet$??1ioMamaHahaDummy@@UAE@XZ$1
	DD	01H
	DD	FLAT:__unwindfunclet$??1ioMamaHahaDummy@@UAE@XZ$2
	DD	02H
	DD	FLAT:__unwindfunclet$??1ioMamaHahaDummy@@UAE@XZ$3
	DD	03H
	DD	FLAT:__unwindfunclet$??1ioMamaHahaDummy@@UAE@XZ$4
	DD	04H
	DD	FLAT:__unwindfunclet$??1ioMamaHahaDummy@@UAE@XZ$5
	DD	05H
	DD	FLAT:__unwindfunclet$??1ioMamaHahaDummy@@UAE@XZ$6
	DD	06H
	DD	FLAT:__unwindfunclet$??1ioMamaHahaDummy@@UAE@XZ$7
	DD	07H
	DD	FLAT:__unwindfunclet$??1ioMamaHahaDummy@@UAE@XZ$8
	DD	08H
	DD	FLAT:__unwindfunclet$??1ioMamaHahaDummy@@UAE@XZ$9
; Function compile flags: /Ogsp
; File d:\lost saga for developer\youtube\tutorial\source\src\lsclient\iomamahahadummy.cpp
xdata$x	ENDS
;	COMDAT ??1ioMamaHahaDummy@@UAE@XZ
_TEXT	SEGMENT
_this$ = -16						; size = 4
__$EHRec$ = -12						; size = 12
??1ioMamaHahaDummy@@UAE@XZ PROC				; ioMamaHahaDummy::~ioMamaHahaDummy, COMDAT
; _this$ = ecx

; 35   : {

  00000	6a 04		 push	 4
  00002	b8 00 00 00 00	 mov	 eax, __ehhandler$??1ioMamaHahaDummy@@UAE@XZ
  00007	e8 00 00 00 00	 call	 __EH_prolog3
  0000c	8b f1		 mov	 esi, ecx
  0000e	89 75 f0	 mov	 DWORD PTR _this$[ebp], esi
  00011	c7 06 00 00 00
	00		 mov	 DWORD PTR [esi], OFFSET ??_7ioMamaHahaDummy@@6BioPlayEntity@@@
  00017	c7 86 c8 01 00
	00 00 00 00 00	 mov	 DWORD PTR [esi+456], OFFSET ??_7ioMamaHahaDummy@@6BioWorldEventReceiver@@@

; 36   : }

  00021	8d 8e 00 16 00
	00		 lea	 ecx, DWORD PTR [esi+5632]
  00027	c7 45 fc 09 00
	00 00		 mov	 DWORD PTR __$EHRec$[ebp+8], 9
  0002e	e8 00 00 00 00	 call	 ?_Tidy@?$vector@HV?$allocator@H@std@@@std@@IAEXXZ ; std::vector<int,std::allocator<int> >::_Tidy
  00033	8d 8e bc 15 00
	00		 lea	 ecx, DWORD PTR [esi+5564]
  00039	c6 45 fc 08	 mov	 BYTE PTR __$EHRec$[ebp+8], 8
  0003d	c7 86 b0 15 00
	00 00 00 00 00	 mov	 DWORD PTR [esi+5552], OFFSET ??_7?$CEncrypt@K@@6B@
  00047	e8 00 00 00 00	 call	 ??1ccddaabb@@UAE@XZ	; ccddaabb::~ccddaabb
  0004c	bf 00 00 00 00	 mov	 edi, OFFSET ??_7?$CEncrypt@M@@6B@
  00051	8d 8e 8c 15 00
	00		 lea	 ecx, DWORD PTR [esi+5516]
  00057	c6 45 fc 07	 mov	 BYTE PTR __$EHRec$[ebp+8], 7
  0005b	89 be 80 15 00
	00		 mov	 DWORD PTR [esi+5504], edi
  00061	e8 00 00 00 00	 call	 ??1ccddaabb@@UAE@XZ	; ccddaabb::~ccddaabb
  00066	8d 8e 5c 15 00
	00		 lea	 ecx, DWORD PTR [esi+5468]
  0006c	c6 45 fc 06	 mov	 BYTE PTR __$EHRec$[ebp+8], 6
  00070	89 be 50 15 00
	00		 mov	 DWORD PTR [esi+5456], edi
  00076	e8 00 00 00 00	 call	 ??1ccddaabb@@UAE@XZ	; ccddaabb::~ccddaabb
  0007b	8d 8e 2c 15 00
	00		 lea	 ecx, DWORD PTR [esi+5420]
  00081	c6 45 fc 05	 mov	 BYTE PTR __$EHRec$[ebp+8], 5
  00085	89 be 20 15 00
	00		 mov	 DWORD PTR [esi+5408], edi
  0008b	e8 00 00 00 00	 call	 ??1ccddaabb@@UAE@XZ	; ccddaabb::~ccddaabb
  00090	8d 8e fc 14 00
	00		 lea	 ecx, DWORD PTR [esi+5372]
  00096	c6 45 fc 04	 mov	 BYTE PTR __$EHRec$[ebp+8], 4
  0009a	89 be f0 14 00
	00		 mov	 DWORD PTR [esi+5360], edi
  000a0	e8 00 00 00 00	 call	 ??1ccddaabb@@UAE@XZ	; ccddaabb::~ccddaabb
  000a5	8b 3d 00 00 00
	00		 mov	 edi, DWORD PTR __imp_??1ioHashString@@QAE@XZ
  000ab	8d 8e d4 14 00
	00		 lea	 ecx, DWORD PTR [esi+5332]
  000b1	c6 45 fc 03	 mov	 BYTE PTR __$EHRec$[ebp+8], 3
  000b5	ff d7		 call	 edi
  000b7	8d 8e c4 14 00
	00		 lea	 ecx, DWORD PTR [esi+5316]
  000bd	c6 45 fc 02	 mov	 BYTE PTR __$EHRec$[ebp+8], 2
  000c1	ff d7		 call	 edi
  000c3	8d 8e b0 14 00
	00		 lea	 ecx, DWORD PTR [esi+5296]
  000c9	c6 45 fc 01	 mov	 BYTE PTR __$EHRec$[ebp+8], 1
  000cd	ff d7		 call	 edi
  000cf	8d 8e 9c 14 00
	00		 lea	 ecx, DWORD PTR [esi+5276]
  000d5	c6 45 fc 00	 mov	 BYTE PTR __$EHRec$[ebp+8], 0
  000d9	ff d7		 call	 edi
  000db	83 4d fc ff	 or	 DWORD PTR __$EHRec$[ebp+8], -1
  000df	8b ce		 mov	 ecx, esi
  000e1	e8 00 00 00 00	 call	 ??1ioDummyChar@@UAE@XZ	; ioDummyChar::~ioDummyChar
  000e6	e8 00 00 00 00	 call	 __EH_epilog3
  000eb	c3		 ret	 0
_TEXT	ENDS
;	COMDAT text$x
text$x	SEGMENT
__unwindfunclet$??1ioMamaHahaDummy@@UAE@XZ$0:
  00000	8b 4d f0	 mov	 ecx, DWORD PTR _this$[ebp]
  00003	e9 00 00 00 00	 jmp	 ??1ioDummyChar@@UAE@XZ	; ioDummyChar::~ioDummyChar
__unwindfunclet$??1ioMamaHahaDummy@@UAE@XZ$1:
  00008	8b 4d f0	 mov	 ecx, DWORD PTR _this$[ebp]
  0000b	81 c1 9c 14 00
	00		 add	 ecx, 5276		; 0000149cH
  00011	ff 25 00 00 00
	00		 jmp	 DWORD PTR __imp_??1ioHashString@@QAE@XZ
__unwindfunclet$??1ioMamaHahaDummy@@UAE@XZ$2:
  00017	8b 4d f0	 mov	 ecx, DWORD PTR _this$[ebp]
  0001a	81 c1 b0 14 00
	00		 add	 ecx, 5296		; 000014b0H
  00020	ff 25 00 00 00
	00		 jmp	 DWORD PTR __imp_??1ioHashString@@QAE@XZ
__unwindfunclet$??1ioMamaHahaDummy@@UAE@XZ$3:
  00026	8b 4d f0	 mov	 ecx, DWORD PTR _this$[ebp]
  00029	81 c1 c4 14 00
	00		 add	 ecx, 5316		; 000014c4H
  0002f	ff 25 00 00 00
	00		 jmp	 DWORD PTR __imp_??1ioHashString@@QAE@XZ
__unwindfunclet$??1ioMamaHahaDummy@@UAE@XZ$4:
  00035	8b 4d f0	 mov	 ecx, DWORD PTR _this$[ebp]
  00038	81 c1 d4 14 00
	00		 add	 ecx, 5332		; 000014d4H
  0003e	ff 25 00 00 00
	00		 jmp	 DWORD PTR __imp_??1ioHashString@@QAE@XZ
__unwindfunclet$??1ioMamaHahaDummy@@UAE@XZ$5:
  00044	8b 4d f0	 mov	 ecx, DWORD PTR _this$[ebp]
  00047	81 c1 f0 14 00
	00		 add	 ecx, 5360		; 000014f0H
  0004d	e9 00 00 00 00	 jmp	 ??1?$CEncrypt@M@@UAE@XZ	; CEncrypt<float>::~CEncrypt<float>
__unwindfunclet$??1ioMamaHahaDummy@@UAE@XZ$6:
  00052	8b 4d f0	 mov	 ecx, DWORD PTR _this$[ebp]
  00055	81 c1 20 15 00
	00		 add	 ecx, 5408		; 00001520H
  0005b	e9 00 00 00 00	 jmp	 ??1?$CEncrypt@M@@UAE@XZ	; CEncrypt<float>::~CEncrypt<float>
__unwindfunclet$??1ioMamaHahaDummy@@UAE@XZ$7:
  00060	8b 4d f0	 mov	 ecx, DWORD PTR _this$[ebp]
  00063	81 c1 50 15 00
	00		 add	 ecx, 5456		; 00001550H
  00069	e9 00 00 00 00	 jmp	 ??1?$CEncrypt@M@@UAE@XZ	; CEncrypt<float>::~CEncrypt<float>
__unwindfunclet$??1ioMamaHahaDummy@@UAE@XZ$8:
  0006e	8b 4d f0	 mov	 ecx, DWORD PTR _this$[ebp]
  00071	81 c1 80 15 00
	00		 add	 ecx, 5504		; 00001580H
  00077	e9 00 00 00 00	 jmp	 ??1?$CEncrypt@M@@UAE@XZ	; CEncrypt<float>::~CEncrypt<float>
__unwindfunclet$??1ioMamaHahaDummy@@UAE@XZ$9:
  0007c	8b 4d f0	 mov	 ecx, DWORD PTR _this$[ebp]
  0007f	81 c1 b0 15 00
	00		 add	 ecx, 5552		; 000015b0H
  00085	e9 00 00 00 00	 jmp	 ??1?$CEncrypt@K@@UAE@XZ	; CEncrypt<unsigned long>::~CEncrypt<unsigned long>
__ehhandler$??1ioMamaHahaDummy@@UAE@XZ:
  0008a	8b 54 24 08	 mov	 edx, DWORD PTR [esp+8]
  0008e	8d 42 0c	 lea	 eax, DWORD PTR [edx+12]
  00091	8b 4a ec	 mov	 ecx, DWORD PTR [edx-20]
  00094	33 c8		 xor	 ecx, eax
  00096	e8 00 00 00 00	 call	 @__security_check_cookie@4
  0009b	b8 00 00 00 00	 mov	 eax, OFFSET __ehfuncinfo$??1ioMamaHahaDummy@@UAE@XZ
  000a0	e9 00 00 00 00	 jmp	 ___CxxFrameHandler3
text$x	ENDS
??1ioMamaHahaDummy@@UAE@XZ ENDP				; ioMamaHahaDummy::~ioMamaHahaDummy
EXTRN	?SetDelayState@ioDummyChar@@UAEX_N@Z:PROC	; ioDummyChar::SetDelayState
EXTRN	__imp_?Clear@ioHashString@@QAEXXZ:PROC
; Function compile flags: /Ogsp
;	COMDAT ?SetDelayState@ioMamaHahaDummy@@UAEX_N@Z
_TEXT	SEGMENT
_bNet$ = 8						; size = 1
?SetDelayState@ioMamaHahaDummy@@UAEX_N@Z PROC		; ioMamaHahaDummy::SetDelayState, COMDAT
; _this$ = ecx

; 502  : {

  00000	55		 push	 ebp
  00001	8b ec		 mov	 ebp, esp
  00003	56		 push	 esi
  00004	8b f1		 mov	 esi, ecx

; 503  : 	m_MamaHahaState = MHS_NONE;

  00006	83 a6 80 14 00
	00 00		 and	 DWORD PTR [esi+5248], 0

; 504  : 	ClearMamaHahaWeaponList();

  0000d	e8 00 00 00 00	 call	 ?ClearMamaHahaWeaponList@ioMamaHahaDummy@@IAEXXZ ; ioMamaHahaDummy::ClearMamaHahaWeaponList

; 505  : 	m_MamaHahaTargetName.Clear();

  00012	8d 8e d4 14 00
	00		 lea	 ecx, DWORD PTR [esi+5332]
  00018	ff 15 00 00 00
	00		 call	 DWORD PTR __imp_?Clear@ioHashString@@QAEXXZ

; 506  : 
; 507  : 	ioDummyChar::SetDelayState( bNet );

  0001e	ff 75 08	 push	 DWORD PTR _bNet$[ebp]
  00021	8b ce		 mov	 ecx, esi
  00023	e8 00 00 00 00	 call	 ?SetDelayState@ioDummyChar@@UAEX_N@Z ; ioDummyChar::SetDelayState
  00028	5e		 pop	 esi

; 508  : }

  00029	5d		 pop	 ebp
  0002a	c2 04 00	 ret	 4
?SetDelayState@ioMamaHahaDummy@@UAEX_N@Z ENDP		; ioMamaHahaDummy::SetDelayState
_TEXT	ENDS
PUBLIC	?SetShichikapuReturn@ioMamaHahaDummy@@IAEXXZ	; ioMamaHahaDummy::SetShichikapuReturn
; Function compile flags: /Ogsp
;	COMDAT ?SetShichikapuReturn@ioMamaHahaDummy@@IAEXXZ
_TEXT	SEGMENT
tv253 = -8						; size = 4
tv248 = -8						; size = 4
tv240 = -8						; size = 4
tv234 = -8						; size = 4
tv232 = -8						; size = 4
tv260 = -4						; size = 4
tv236 = -4						; size = 4
_fAniRate$662887 = -4					; size = 4
?SetShichikapuReturn@ioMamaHahaDummy@@IAEXXZ PROC	; ioMamaHahaDummy::SetShichikapuReturn, COMDAT
; _this$ = ecx

; 1159 : {

  00000	55		 push	 ebp
  00001	8b ec		 mov	 ebp, esp
  00003	51		 push	 ecx
  00004	51		 push	 ecx
  00005	56		 push	 esi
  00006	8b f1		 mov	 esi, ecx

; 1160 : 	ioBaseChar *pOwner = GetOwner();

  00008	e8 00 00 00 00	 call	 ?GetOwner@ioDummyChar@@QBEPAVioBaseChar@@XZ ; ioDummyChar::GetOwner

; 1161 : 	if( !pOwner ) return;

  0000d	85 c0		 test	 eax, eax
  0000f	0f 84 5b 01 00
	00		 je	 $LN2@SetShichik

; 1162 : 
; 1163 : 	m_MamaHahaTargetName.Clear();

  00015	8d 8e d4 14 00
	00		 lea	 ecx, DWORD PTR [esi+5332]
  0001b	ff 15 00 00 00
	00		 call	 DWORD PTR __imp_?Clear@ioHashString@@QAEXXZ

; 1164 : 	ClearMamaHahaWeaponList();

  00021	8b ce		 mov	 ecx, esi
  00023	e8 00 00 00 00	 call	 ?ClearMamaHahaWeaponList@ioMamaHahaDummy@@IAEXXZ ; ioMamaHahaDummy::ClearMamaHahaWeaponList

; 1165 : 
; 1166 : 	switch( m_MamaHahaState )

  00028	8b 86 80 14 00
	00		 mov	 eax, DWORD PTR [esi+5248]
  0002e	85 c0		 test	 eax, eax
  00030	7e 3e		 jle	 SHORT $LN6@SetShichik
  00032	83 f8 02	 cmp	 eax, 2
  00035	0f 8e 35 01 00
	00		 jle	 $LN2@SetShichik
  0003b	83 f8 03	 cmp	 eax, 3
  0003e	74 26		 je	 SHORT $LN4@SetShichik
  00040	83 f8 04	 cmp	 eax, 4
  00043	0f 84 27 01 00
	00		 je	 $LN2@SetShichik
  00049	6a 06		 push	 6
  0004b	59		 pop	 ecx
  0004c	83 f8 05	 cmp	 eax, 5
  0004f	74 0d		 je	 SHORT $LN3@SetShichik
  00051	3b c1		 cmp	 eax, ecx
  00053	0f 84 17 01 00
	00		 je	 $LN2@SetShichik
  00059	83 f8 07	 cmp	 eax, 7
  0005c	75 12		 jne	 SHORT $LN6@SetShichik
$LN3@SetShichik:

; 1175 : 		break;
; 1176 : 	case MHS_FLYING2:
; 1177 : 	case MHS_ENEMY_ATTACH:
; 1178 : 		m_MamaHahaState = MHS_RETURN2;

  0005e	89 8e 80 14 00
	00		 mov	 DWORD PTR [esi+5248], ecx

; 1179 : 		break;

  00064	eb 0a		 jmp	 SHORT $LN6@SetShichik
$LN4@SetShichik:

; 1167 : 	{
; 1168 : 	case MHS_OWNER_ATTACH:
; 1169 : 	case MHS_FIRE_ATTACK:
; 1170 : 	case MHS_RETURN1:
; 1171 : 	case MHS_RETURN2:
; 1172 : 		return;
; 1173 : 	case MHS_FLYING1:
; 1174 : 		m_MamaHahaState = MHS_RETURN1;

  00066	c7 86 80 14 00
	00 04 00 00 00	 mov	 DWORD PTR [esi+5248], 4
$LN6@SetShichik:

; 1180 : 	}
; 1181 : 
; 1182 : 	int iAniID = m_pGroup->GetAnimationIdx( m_DelayAnimation );

  00070	8b 4e 04	 mov	 ecx, DWORD PTR [esi+4]
  00073	57		 push	 edi
  00074	8d 86 a8 06 00
	00		 lea	 eax, DWORD PTR [esi+1704]
  0007a	50		 push	 eax
  0007b	ff 15 00 00 00
	00		 call	 DWORD PTR __imp_?GetAnimationIdx@ioEntityGroup@@QAEHABVioHashString@@@Z
  00081	8b f8		 mov	 edi, eax

; 1183 : 	if( iAniID != -1 )

  00083	83 ff ff	 cmp	 edi, -1
  00086	0f 84 e3 00 00
	00		 je	 $LN23@SetShichik

; 1184 : 	{
; 1185 : 		float fAniRate = FLOAT1;

  0008c	b8 01 00 00 00	 mov	 eax, 1
  00091	89 45 fc	 mov	 DWORD PTR tv260[ebp], eax
  00094	db 45 fc	 fild	 DWORD PTR tv260[ebp]
  00097	85 c0		 test	 eax, eax
  00099	79 06		 jns	 SHORT $LN24@SetShichik
  0009b	d8 05 00 00 00
	00		 fadd	 DWORD PTR __real@4f800000
$LN24@SetShichik:

; 1186 : 		if( m_fDelayAniRate > 0.0f )

  000a1	f3 0f 10 86 b8
	06 00 00	 movss	 xmm0, DWORD PTR [esi+1720]
  000a9	d9 5d fc	 fstp	 DWORD PTR _fAniRate$662887[ebp]
  000ac	0f 2f 05 00 00
	00 00		 comiss	 xmm0, DWORD PTR __real@00000000
  000b3	76 05		 jbe	 SHORT $LN1@SetShichik

; 1187 : 			fAniRate = m_fDelayAniRate;

  000b5	f3 0f 11 45 fc	 movss	 DWORD PTR _fAniRate$662887[ebp], xmm0
$LN1@SetShichik:

; 1188 : 
; 1189 : 		m_pGroup->ClearAllActionAni( FLOAT10, true );

  000ba	b8 0a 00 00 00	 mov	 eax, 10			; 0000000aH
  000bf	89 45 f8	 mov	 DWORD PTR tv253[ebp], eax
  000c2	db 45 f8	 fild	 DWORD PTR tv253[ebp]
  000c5	6a 01		 push	 1
  000c7	85 c0		 test	 eax, eax
  000c9	79 06		 jns	 SHORT $LN25@SetShichik
  000cb	d8 05 00 00 00
	00		 fadd	 DWORD PTR __real@4f800000
$LN25@SetShichik:
  000d1	51		 push	 ecx
  000d2	8b 4e 04	 mov	 ecx, DWORD PTR [esi+4]
  000d5	d9 1c 24	 fstp	 DWORD PTR [esp]
  000d8	ff 15 00 00 00
	00		 call	 DWORD PTR __imp_?ClearAllActionAni@ioEntityGroup@@QAEXM_N@Z

; 1190 : 		m_pGroup->ClearAllLoopAni( FLOAT10, true );

  000de	b8 0a 00 00 00	 mov	 eax, 10			; 0000000aH
  000e3	89 45 f8	 mov	 DWORD PTR tv248[ebp], eax
  000e6	db 45 f8	 fild	 DWORD PTR tv248[ebp]
  000e9	6a 01		 push	 1
  000eb	85 c0		 test	 eax, eax
  000ed	79 06		 jns	 SHORT $LN26@SetShichik
  000ef	d8 05 00 00 00
	00		 fadd	 DWORD PTR __real@4f800000
$LN26@SetShichik:
  000f5	51		 push	 ecx
  000f6	8b 4e 04	 mov	 ecx, DWORD PTR [esi+4]
  000f9	d9 1c 24	 fstp	 DWORD PTR [esp]
  000fc	ff 15 00 00 00
	00		 call	 DWORD PTR __imp_?ClearAllLoopAni@ioEntityGroup@@QAEXM_N@Z

; 1191 : 
; 1192 : 		m_pGroup->SetLoopAni( iAniID, FLOAT10, FLOAT1, FLOAT1/fAniRate );

  00102	b8 01 00 00 00	 mov	 eax, 1
  00107	8b c8		 mov	 ecx, eax
  00109	b8 01 00 00 00	 mov	 eax, 1
  0010e	8b d0		 mov	 edx, eax
  00110	b8 0a 00 00 00	 mov	 eax, 10			; 0000000aH
  00115	0f 57 c0	 xorps	 xmm0, xmm0
  00118	83 ec 10	 sub	 esp, 16			; 00000010H
  0011b	89 4d f8	 mov	 DWORD PTR tv240[ebp], ecx
  0011e	db 45 f8	 fild	 DWORD PTR tv240[ebp]
  00121	f3 0f 11 44 24
	0c		 movss	 DWORD PTR [esp+12], xmm0
  00127	85 c9		 test	 ecx, ecx
  00129	79 06		 jns	 SHORT $LN27@SetShichik
  0012b	d8 05 00 00 00
	00		 fadd	 DWORD PTR __real@4f800000
$LN27@SetShichik:
  00131	d8 75 fc	 fdiv	 DWORD PTR _fAniRate$662887[ebp]
  00134	89 55 f8	 mov	 DWORD PTR tv234[ebp], edx
  00137	d9 5d fc	 fstp	 DWORD PTR tv236[ebp]
  0013a	d9 45 fc	 fld	 DWORD PTR tv236[ebp]
  0013d	d9 5c 24 08	 fstp	 DWORD PTR [esp+8]
  00141	db 45 f8	 fild	 DWORD PTR tv234[ebp]
  00144	85 d2		 test	 edx, edx
  00146	79 06		 jns	 SHORT $LN28@SetShichik
  00148	d8 05 00 00 00
	00		 fadd	 DWORD PTR __real@4f800000
$LN28@SetShichik:
  0014e	89 45 f8	 mov	 DWORD PTR tv232[ebp], eax
  00151	d9 5c 24 04	 fstp	 DWORD PTR [esp+4]
  00155	db 45 f8	 fild	 DWORD PTR tv232[ebp]
  00158	85 c0		 test	 eax, eax
  0015a	79 06		 jns	 SHORT $LN29@SetShichik
  0015c	d8 05 00 00 00
	00		 fadd	 DWORD PTR __real@4f800000
$LN29@SetShichik:
  00162	8b 4e 04	 mov	 ecx, DWORD PTR [esi+4]
  00165	d9 1c 24	 fstp	 DWORD PTR [esp]
  00168	57		 push	 edi
  00169	ff 15 00 00 00
	00		 call	 DWORD PTR __imp_?SetLoopAni@ioEntityGroup@@QAE_NHMMMM@Z
$LN23@SetShichik:
  0016f	5f		 pop	 edi
$LN2@SetShichik:
  00170	5e		 pop	 esi

; 1193 : 	}
; 1194 : }

  00171	c9		 leave
  00172	c3		 ret	 0
?SetShichikapuReturn@ioMamaHahaDummy@@IAEXXZ ENDP	; ioMamaHahaDummy::SetShichikapuReturn
_TEXT	ENDS
EXTRN	__imp_??1ioOrientBox@@QAE@XZ:PROC
EXTRN	__imp_?SetByAxisBox@ioOrientBox@@QAEXABVioAxisAlignBox@@@Z:PROC
EXTRN	?GetWorldAxisBox@ioGameEntity@@QBEABVioAxisAlignBox@@XZ:PROC ; ioGameEntity::GetWorldAxisBox
EXTRN	__imp_??0ioOrientBox@@QAE@XZ:PROC
;	COMDAT xdata$x
xdata$x	SEGMENT
__unwindtable$?TestMapCollision@ioMamaHahaDummy@@UAE_NPAVioOpcodeShape@@PAVioPlayStage@@PBUD3DXMATRIX@@@Z DD 0ffffffffH
	DD	FLAT:__unwindfunclet$?TestMapCollision@ioMamaHahaDummy@@UAE_NPAVioOpcodeShape@@PAVioPlayStage@@PBUD3DXMATRIX@@@Z$0
__ehfuncinfo$?TestMapCollision@ioMamaHahaDummy@@UAE_NPAVioOpcodeShape@@PAVioPlayStage@@PBUD3DXMATRIX@@@Z DD 019930522H
	DD	01H
	DD	FLAT:__unwindtable$?TestMapCollision@ioMamaHahaDummy@@UAE_NPAVioOpcodeShape@@PAVioPlayStage@@PBUD3DXMATRIX@@@Z
	DD	2 DUP(00H)
	DD	2 DUP(00H)
	DD	00H
	DD	01H
; Function compile flags: /Ogsp
xdata$x	ENDS
;	COMDAT ?TestMapCollision@ioMamaHahaDummy@@UAE_NPAVioOpcodeShape@@PAVioPlayStage@@PBUD3DXMATRIX@@@Z
_TEXT	SEGMENT
_kEntityBox$ = -84					; size = 68
__$EHRec$ = -12						; size = 12
_pShape$ = 8						; size = 4
_pStage$ = 12						; size = 4
_pShapeWorldMat$ = 16					; size = 4
?TestMapCollision@ioMamaHahaDummy@@UAE_NPAVioOpcodeShape@@PAVioPlayStage@@PBUD3DXMATRIX@@@Z PROC ; ioMamaHahaDummy::TestMapCollision, COMDAT
; _this$ = ecx

; 1285 : {

  00000	6a 48		 push	 72			; 00000048H
  00002	b8 00 00 00 00	 mov	 eax, __ehhandler$?TestMapCollision@ioMamaHahaDummy@@UAE_NPAVioOpcodeShape@@PAVioPlayStage@@PBUD3DXMATRIX@@@Z
  00007	e8 00 00 00 00	 call	 __EH_prolog3_GS
  0000c	8b 75 08	 mov	 esi, DWORD PTR _pShape$[ebp]
  0000f	8b 5d 10	 mov	 ebx, DWORD PTR _pShapeWorldMat$[ebp]
  00012	8b f9		 mov	 edi, ecx

; 1286 : 	//pShape        TRUE
; 1287 : 	//     1   N   TestMapCollision()   
; 1288 : 
; 1289 : 	switch( m_MamaHahaState )

  00014	8b 87 80 14 00
	00		 mov	 eax, DWORD PTR [edi+5248]
  0001a	83 e8 03	 sub	 eax, 3
  0001d	74 0e		 je	 SHORT $LN3@TestMapCol
  0001f	48		 dec	 eax
  00020	48		 dec	 eax
  00021	74 0a		 je	 SHORT $LN3@TestMapCol

; 1290 : 	{
; 1291 : 	case MHS_FLYING1:
; 1292 : 	case MHS_FLYING2:
; 1293 : 		break;
; 1294 : 	default:
; 1295 : 		return true;

  00023	b0 01		 mov	 al, 1
$LN6@TestMapCol:

; 1305 : 	return true;
; 1306 : }

  00025	e8 00 00 00 00	 call	 __EH_epilog3_GS
  0002a	c2 0c 00	 ret	 12			; 0000000cH
$LN3@TestMapCol:

; 1296 : 	}
; 1297 : 
; 1298 : 	ioOrientBox kEntityBox;

  0002d	8d 4d ac	 lea	 ecx, DWORD PTR _kEntityBox$[ebp]
  00030	ff 15 00 00 00
	00		 call	 DWORD PTR __imp_??0ioOrientBox@@QAE@XZ
  00036	83 65 fc 00	 and	 DWORD PTR __$EHRec$[ebp+8], 0

; 1299 : 	kEntityBox.SetByAxisBox( GetWorldAxisBox() );

  0003a	8b cf		 mov	 ecx, edi
  0003c	e8 00 00 00 00	 call	 ?GetWorldAxisBox@ioGameEntity@@QBEABVioAxisAlignBox@@XZ ; ioGameEntity::GetWorldAxisBox
  00041	50		 push	 eax
  00042	8d 4d ac	 lea	 ecx, DWORD PTR _kEntityBox$[ebp]
  00045	ff 15 00 00 00
	00		 call	 DWORD PTR __imp_?SetByAxisBox@ioOrientBox@@QAEXABVioAxisAlignBox@@@Z

; 1300 : 
; 1301 : 	if( !pShape->FindIntersection( pShapeWorldMat, kEntityBox, NULL ) )

  0004b	8b 06		 mov	 eax, DWORD PTR [esi]
  0004d	6a 00		 push	 0
  0004f	8d 4d ac	 lea	 ecx, DWORD PTR _kEntityBox$[ebp]
  00052	51		 push	 ecx
  00053	53		 push	 ebx
  00054	8b ce		 mov	 ecx, esi
  00056	ff 50 30	 call	 DWORD PTR [eax+48]
  00059	84 c0		 test	 al, al
  0005b	75 13		 jne	 SHORT $LN1@TestMapCol
  0005d	32 db		 xor	 bl, bl
$LN9@TestMapCol:

; 1302 : 		return false;

  0005f	83 4d fc ff	 or	 DWORD PTR __$EHRec$[ebp+8], -1
  00063	8d 4d ac	 lea	 ecx, DWORD PTR _kEntityBox$[ebp]
  00066	ff 15 00 00 00
	00		 call	 DWORD PTR __imp_??1ioOrientBox@@QAE@XZ
  0006c	8a c3		 mov	 al, bl
  0006e	eb b5		 jmp	 SHORT $LN6@TestMapCol
$LN1@TestMapCol:

; 1303 : 
; 1304 : 	SetShichikapuReturn();

  00070	8b cf		 mov	 ecx, edi
  00072	e8 00 00 00 00	 call	 ?SetShichikapuReturn@ioMamaHahaDummy@@IAEXXZ ; ioMamaHahaDummy::SetShichikapuReturn
  00077	b3 01		 mov	 bl, 1
  00079	eb e4		 jmp	 SHORT $LN9@TestMapCol
_TEXT	ENDS
;	COMDAT text$x
text$x	SEGMENT
__unwindfunclet$?TestMapCollision@ioMamaHahaDummy@@UAE_NPAVioOpcodeShape@@PAVioPlayStage@@PBUD3DXMATRIX@@@Z$0:
  00000	8d 4d ac	 lea	 ecx, DWORD PTR _kEntityBox$[ebp]
  00003	ff 25 00 00 00
	00		 jmp	 DWORD PTR __imp_??1ioOrientBox@@QAE@XZ
__ehhandler$?TestMapCollision@ioMamaHahaDummy@@UAE_NPAVioOpcodeShape@@PAVioPlayStage@@PBUD3DXMATRIX@@@Z:
  00009	8b 54 24 08	 mov	 edx, DWORD PTR [esp+8]
  0000d	8d 42 0c	 lea	 eax, DWORD PTR [edx+12]
  00010	8b 4a a8	 mov	 ecx, DWORD PTR [edx-88]
  00013	33 c8		 xor	 ecx, eax
  00015	e8 00 00 00 00	 call	 @__security_check_cookie@4
  0001a	8b 4a fc	 mov	 ecx, DWORD PTR [edx-4]
  0001d	33 c8		 xor	 ecx, eax
  0001f	e8 00 00 00 00	 call	 @__security_check_cookie@4
  00024	b8 00 00 00 00	 mov	 eax, OFFSET __ehfuncinfo$?TestMapCollision@ioMamaHahaDummy@@UAE_NPAVioOpcodeShape@@PAVioPlayStage@@PBUD3DXMATRIX@@@Z
  00029	e9 00 00 00 00	 jmp	 ___CxxFrameHandler3
text$x	ENDS
?TestMapCollision@ioMamaHahaDummy@@UAE_NPAVioOpcodeShape@@PAVioPlayStage@@PBUD3DXMATRIX@@@Z ENDP ; ioMamaHahaDummy::TestMapCollision
; Function compile flags: /Ogsp
;	COMDAT ?CheckEntityCollision@ioMamaHahaDummy@@UAEXPAVioPlayEntity@@@Z
_TEXT	SEGMENT
_value$676193 = -4					; size = 4
_value$676180 = 8					; size = 4
_pEntity$ = 8						; size = 4
?CheckEntityCollision@ioMamaHahaDummy@@UAEXPAVioPlayEntity@@@Z PROC ; ioMamaHahaDummy::CheckEntityCollision, COMDAT
; _this$ = ecx

; 1309 : {

  00000	55		 push	 ebp
  00001	8b ec		 mov	 ebp, esp
  00003	51		 push	 ecx
  00004	56		 push	 esi
  00005	57		 push	 edi

; 1310 : 	ioBaseChar *pTarget = ToBaseChar(pEntity);

  00006	ff 75 08	 push	 DWORD PTR _pEntity$[ebp]
  00009	8b f1		 mov	 esi, ecx
  0000b	e8 00 00 00 00	 call	 ?ToBaseChar@@YAPAVioBaseChar@@PAVioGameEntity@@@Z ; ToBaseChar
  00010	8b f8		 mov	 edi, eax

; 1311 : 
; 1312 : 	switch( m_MamaHahaState )

  00012	8b 86 80 14 00
	00		 mov	 eax, DWORD PTR [esi+5248]
  00018	83 e8 03	 sub	 eax, 3
  0001b	59		 pop	 ecx
  0001c	74 3e		 je	 SHORT $LN2@CheckEntit
  0001e	48		 dec	 eax
  0001f	48		 dec	 eax
  00020	75 41		 jne	 SHORT $LN7@CheckEntit

; 1313 : 	{
; 1314 : 	case MHS_FLYING1:
; 1315 : 		break;
; 1316 : 	case MHS_FLYING2:
; 1317 : 		if( pTarget && pTarget->GetTeam() != GetTeam() )

  00022	85 ff		 test	 edi, edi
  00024	74 36		 je	 SHORT $LN2@CheckEntit
  00026	8d 45 08	 lea	 eax, DWORD PTR _value$676180[ebp]
  00029	50		 push	 eax
  0002a	8d 8f 90 00 00
	00		 lea	 ecx, DWORD PTR [edi+144]
  00030	e8 00 00 00 00	 call	 ?DecryptValueToPool@?$CEncrypt@W4TeamType@@@@QAEXPAW4TeamType@@@Z ; CEncrypt<enum TeamType>::DecryptValueToPool
  00035	8d 45 fc	 lea	 eax, DWORD PTR _value$676193[ebp]
  00038	50		 push	 eax
  00039	8d 8e 90 00 00
	00		 lea	 ecx, DWORD PTR [esi+144]
  0003f	e8 00 00 00 00	 call	 ?DecryptValueToPool@?$CEncrypt@W4TeamType@@@@QAEXPAW4TeamType@@@Z ; CEncrypt<enum TeamType>::DecryptValueToPool
  00044	8b 45 08	 mov	 eax, DWORD PTR _value$676180[ebp]
  00047	3b 45 fc	 cmp	 eax, DWORD PTR _value$676193[ebp]
  0004a	74 10		 je	 SHORT $LN2@CheckEntit

; 1318 : 		{
; 1319 : 			SetMamaHahaEnemyAttach( pTarget->GetCharName() );

  0004c	81 c7 d4 02 00
	00		 add	 edi, 724		; 000002d4H
  00052	57		 push	 edi
  00053	8b ce		 mov	 ecx, esi
  00055	e8 00 00 00 00	 call	 ?SetMamaHahaEnemyAttach@ioMamaHahaDummy@@IAEXABVioHashString@@@Z ; ioMamaHahaDummy::SetMamaHahaEnemyAttach

; 1320 : 			return;

  0005a	eb 07		 jmp	 SHORT $LN7@CheckEntit
$LN2@CheckEntit:

; 1321 : 		}
; 1322 : 		break;
; 1323 : 	default:
; 1324 : 		return;
; 1325 : 	}
; 1326 : 
; 1327 : 	SetShichikapuReturn();

  0005c	8b ce		 mov	 ecx, esi
  0005e	e8 00 00 00 00	 call	 ?SetShichikapuReturn@ioMamaHahaDummy@@IAEXXZ ; ioMamaHahaDummy::SetShichikapuReturn
$LN7@CheckEntit:
  00063	5f		 pop	 edi
  00064	5e		 pop	 esi

; 1328 : }

  00065	c9		 leave
  00066	c2 04 00	 ret	 4
?CheckEntityCollision@ioMamaHahaDummy@@UAEXPAVioPlayEntity@@@Z ENDP ; ioMamaHahaDummy::CheckEntityCollision
_TEXT	ENDS
PUBLIC	?ReleaseMamaHahaEnemyAttach@ioMamaHahaDummy@@IAEXXZ ; ioMamaHahaDummy::ReleaseMamaHahaEnemyAttach
; Function compile flags: /Ogsp
;	COMDAT ?ReleaseMamaHahaEnemyAttach@ioMamaHahaDummy@@IAEXXZ
_TEXT	SEGMENT
?ReleaseMamaHahaEnemyAttach@ioMamaHahaDummy@@IAEXXZ PROC ; ioMamaHahaDummy::ReleaseMamaHahaEnemyAttach, COMDAT
; _this$ = ecx

; 1351 : 	SetShichikapuReturn();

  00000	e9 00 00 00 00	 jmp	 ?SetShichikapuReturn@ioMamaHahaDummy@@IAEXXZ ; ioMamaHahaDummy::SetShichikapuReturn
?ReleaseMamaHahaEnemyAttach@ioMamaHahaDummy@@IAEXXZ ENDP ; ioMamaHahaDummy::ReleaseMamaHahaEnemyAttach
_TEXT	ENDS
PUBLIC	?push_back@?$vector@HV?$allocator@H@std@@@std@@QAEXABH@Z ; std::vector<int,std::allocator<int> >::push_back
; Function compile flags: /Ogsp
; File c:\program files (x86)\microsoft visual studio 10.0\vc\include\vector
;	COMDAT ?push_back@?$vector@HV?$allocator@H@std@@@std@@QAEXABH@Z
_TEXT	SEGMENT
__Val$ = 8						; size = 4
?push_back@?$vector@HV?$allocator@H@std@@@std@@QAEXABH@Z PROC ; std::vector<int,std::allocator<int> >::push_back, COMDAT
; _this$ = ecx

; 976  : 		{	// insert element at end

  00000	55		 push	 ebp
  00001	8b ec		 mov	 ebp, esp
  00003	56		 push	 esi
  00004	8b f1		 mov	 esi, ecx

; 977  : 		if (_Inside(_STD addressof(_Val)))

  00006	8b 46 04	 mov	 eax, DWORD PTR [esi+4]
  00009	57		 push	 edi
  0000a	8b 7d 08	 mov	 edi, DWORD PTR __Val$[ebp]
  0000d	3b f8		 cmp	 edi, eax
  0000f	73 27		 jae	 SHORT $LN4@push_back
  00011	8b 0e		 mov	 ecx, DWORD PTR [esi]
  00013	3b cf		 cmp	 ecx, edi
  00015	77 21		 ja	 SHORT $LN4@push_back

; 978  : 			{	// push back an element
; 979  : 			size_type _Idx = _STD addressof(_Val) - this->_Myfirst;

  00017	2b f9		 sub	 edi, ecx
  00019	c1 ff 02	 sar	 edi, 2

; 980  : 			if (this->_Mylast == this->_Myend)

  0001c	3b 46 08	 cmp	 eax, DWORD PTR [esi+8]
  0001f	75 09		 jne	 SHORT $LN3@push_back

; 981  : 				_Reserve(1);

  00021	6a 01		 push	 1
  00023	8b ce		 mov	 ecx, esi
  00025	e8 00 00 00 00	 call	 ?_Reserve@?$vector@HV?$allocator@H@std@@@std@@IAEXI@Z ; std::vector<int,std::allocator<int> >::_Reserve
$LN3@push_back:

; 982  : 			_Orphan_range(this->_Mylast, this->_Mylast);
; 983  : 			_Cons_val(this->_Alval,
; 984  : 				this->_Mylast,
; 985  : 				this->_Myfirst[_Idx]);

  0002a	8b 46 04	 mov	 eax, DWORD PTR [esi+4]
  0002d	85 c0		 test	 eax, eax
  0002f	74 20		 je	 SHORT $LN39@push_back
  00031	8b 0e		 mov	 ecx, DWORD PTR [esi]
  00033	8b 0c b9	 mov	 ecx, DWORD PTR [ecx+edi*4]

; 986  : 			++this->_Mylast;
; 987  : 			}
; 988  : 		else

  00036	eb 17		 jmp	 SHORT $LN46@push_back
$LN4@push_back:

; 989  : 			{	// push back a non-element
; 990  : 			if (this->_Mylast == this->_Myend)

  00038	3b 46 08	 cmp	 eax, DWORD PTR [esi+8]
  0003b	75 09		 jne	 SHORT $LN1@push_back

; 991  : 				_Reserve(1);

  0003d	6a 01		 push	 1
  0003f	8b ce		 mov	 ecx, esi
  00041	e8 00 00 00 00	 call	 ?_Reserve@?$vector@HV?$allocator@H@std@@@std@@IAEXI@Z ; std::vector<int,std::allocator<int> >::_Reserve
$LN1@push_back:

; 992  : 			_Orphan_range(this->_Mylast, this->_Mylast);
; 993  : 			_Cons_val(this->_Alval,
; 994  : 				this->_Mylast,
; 995  : 				_Val);

  00046	8b 46 04	 mov	 eax, DWORD PTR [esi+4]
  00049	85 c0		 test	 eax, eax
  0004b	74 04		 je	 SHORT $LN39@push_back
  0004d	8b 0f		 mov	 ecx, DWORD PTR [edi]
$LN46@push_back:
  0004f	89 08		 mov	 DWORD PTR [eax], ecx
$LN39@push_back:

; 996  : 			++this->_Mylast;

  00051	83 46 04 04	 add	 DWORD PTR [esi+4], 4
  00055	5f		 pop	 edi
  00056	5e		 pop	 esi

; 997  : 			}
; 998  : 		}

  00057	5d		 pop	 ebp
  00058	c2 04 00	 ret	 4
?push_back@?$vector@HV?$allocator@H@std@@@std@@QAEXABH@Z ENDP ; std::vector<int,std::allocator<int> >::push_back
_TEXT	ENDS
PUBLIC	?erase@?$list@UFireTime@@V?$allocator@UFireTime@@@std@@@std@@QAE?AV?$_List_iterator@V?$_List_val@UFireTime@@V?$allocator@UFireTime@@@std@@@std@@@2@V?$_List_const_iterator@V?$_List_val@UFireTime@@V?$allocator@UFireTime@@@std@@@std@@@2@@Z ; std::list<FireTime,std::allocator<FireTime> >::erase
; Function compile flags: /Ogsp
; File c:\program files (x86)\microsoft visual studio 10.0\vc\include\list
;	COMDAT ?erase@?$list@UFireTime@@V?$allocator@UFireTime@@@std@@@std@@QAE?AV?$_List_iterator@V?$_List_val@UFireTime@@V?$allocator@UFireTime@@@std@@@std@@@2@V?$_List_const_iterator@V?$_List_val@UFireTime@@V?$allocator@UFireTime@@@std@@@std@@@2@@Z
_TEXT	SEGMENT
___$ReturnUdt$ = 8					; size = 4
__Where$ = 12						; size = 4
?erase@?$list@UFireTime@@V?$allocator@UFireTime@@@std@@@std@@QAE?AV?$_List_iterator@V?$_List_val@UFireTime@@V?$allocator@UFireTime@@@std@@@std@@@2@V?$_List_const_iterator@V?$_List_val@UFireTime@@V?$allocator@UFireTime@@@std@@@std@@@2@@Z PROC ; std::list<FireTime,std::allocator<FireTime> >::erase, COMDAT
; _this$ = ecx

; 1054 : 		{	// erase element at _Where

  00000	55		 push	 ebp
  00001	8b ec		 mov	 ebp, esp
  00003	56		 push	 esi

; 1055 :  #if _ITERATOR_DEBUG_LEVEL == 2
; 1056 : 		if (_Where._Getcont() != this || _Where._Ptr == this->_Myhead)
; 1057 : 			_DEBUG_ERROR("list erase iterator outside range");
; 1058 : 		_Nodeptr _Pnode = (_Where++)._Mynode();
; 1059 : 		_Orphan_ptr(*this, _Pnode);
; 1060 : 
; 1061 :  #else /* _ITERATOR_DEBUG_LEVEL == 2 */
; 1062 : 		_Nodeptr _Pnode = (_Where++)._Mynode();

  00004	8b 75 0c	 mov	 esi, DWORD PTR __Where$[ebp]
  00007	8b 06		 mov	 eax, DWORD PTR [esi]
  00009	57		 push	 edi
  0000a	8b f9		 mov	 edi, ecx
  0000c	89 45 0c	 mov	 DWORD PTR __Where$[ebp], eax

; 1063 :  #endif /* _ITERATOR_DEBUG_LEVEL == 2 */
; 1064 : 
; 1065 : 		if (_Pnode != this->_Myhead)

  0000f	3b 37		 cmp	 esi, DWORD PTR [edi]
  00011	74 21		 je	 SHORT $LN1@erase@3

; 1066 : 			{	// not list head, safe to erase
; 1067 : 			this->_Nextnode(this->_Prevnode(_Pnode)) =
; 1068 : 				this->_Nextnode(_Pnode);

  00013	8b 46 04	 mov	 eax, DWORD PTR [esi+4]
  00016	8b 0e		 mov	 ecx, DWORD PTR [esi]
  00018	89 08		 mov	 DWORD PTR [eax], ecx

; 1069 : 			this->_Prevnode(this->_Nextnode(_Pnode)) =
; 1070 : 				this->_Prevnode(_Pnode);

  0001a	8b 4e 04	 mov	 ecx, DWORD PTR [esi+4]
  0001d	8b 06		 mov	 eax, DWORD PTR [esi]
  0001f	89 48 04	 mov	 DWORD PTR [eax+4], ecx

; 1071 : 
; 1072 : 			_Dest_val(this->_Alnod, _Pnode);

  00022	8d 4e 08	 lea	 ecx, DWORD PTR [esi+8]
  00025	e8 00 00 00 00	 call	 ??1FireTime@@QAE@XZ

; 1073 : 			this->_Alnod.deallocate(_Pnode, 1);

  0002a	56		 push	 esi
  0002b	e8 00 00 00 00	 call	 ??3@YAXPAX@Z		; operator delete

; 1074 : 
; 1075 : 			--this->_Mysize;

  00030	ff 4f 04	 dec	 DWORD PTR [edi+4]
  00033	59		 pop	 ecx
$LN1@erase@3:

; 1076 : 			}
; 1077 : 		return (_Make_iter(_Where));

  00034	8b 45 08	 mov	 eax, DWORD PTR ___$ReturnUdt$[ebp]
  00037	8b 4d 0c	 mov	 ecx, DWORD PTR __Where$[ebp]
  0003a	5f		 pop	 edi
  0003b	89 08		 mov	 DWORD PTR [eax], ecx
  0003d	5e		 pop	 esi

; 1078 : 		}

  0003e	5d		 pop	 ebp
  0003f	c2 08 00	 ret	 8
?erase@?$list@UFireTime@@V?$allocator@UFireTime@@@std@@@std@@QAE?AV?$_List_iterator@V?$_List_val@UFireTime@@V?$allocator@UFireTime@@@std@@@std@@@2@V?$_List_const_iterator@V?$_List_val@UFireTime@@V?$allocator@UFireTime@@@std@@@std@@@2@@Z ENDP ; std::list<FireTime,std::allocator<FireTime> >::erase
_TEXT	ENDS
PUBLIC	?clear@?$list@UFireTime@@V?$allocator@UFireTime@@@std@@@std@@QAEXXZ ; std::list<FireTime,std::allocator<FireTime> >::clear
; Function compile flags: /Ogsp
;	COMDAT ?clear@?$list@UFireTime@@V?$allocator@UFireTime@@@std@@@std@@QAEXXZ
_TEXT	SEGMENT
?clear@?$list@UFireTime@@V?$allocator@UFireTime@@@std@@@std@@QAEXXZ PROC ; std::list<FireTime,std::allocator<FireTime> >::clear, COMDAT
; _this$ = ecx

; 1096 : 		{	// erase all

  00000	56		 push	 esi
  00001	8b f1		 mov	 esi, ecx

; 1097 :  #if _ITERATOR_DEBUG_LEVEL == 2
; 1098 : 		this->_Orphan_ptr(*this, 0);
; 1099 :  #endif /* _ITERATOR_DEBUG_LEVEL == 2 */
; 1100 : 
; 1101 : 		_Nodeptr _Pnext;
; 1102 : 		_Nodeptr _Pnode = this->_Nextnode(this->_Myhead);

  00003	8b 06		 mov	 eax, DWORD PTR [esi]
  00005	57		 push	 edi
  00006	8b 38		 mov	 edi, DWORD PTR [eax]

; 1103 : 		this->_Nextnode(this->_Myhead) = this->_Myhead;

  00008	89 00		 mov	 DWORD PTR [eax], eax

; 1104 : 		this->_Prevnode(this->_Myhead) = this->_Myhead;

  0000a	8b 06		 mov	 eax, DWORD PTR [esi]
  0000c	89 40 04	 mov	 DWORD PTR [eax+4], eax

; 1105 : 		this->_Mysize = 0;

  0000f	83 66 04 00	 and	 DWORD PTR [esi+4], 0

; 1106 : 
; 1107 : 		for (; _Pnode != this->_Myhead; _Pnode = _Pnext)

  00013	3b 3e		 cmp	 edi, DWORD PTR [esi]
  00015	74 19		 je	 SHORT $LN1@clear@2
  00017	53		 push	 ebx
$LL3@clear@2:

; 1108 : 			{	// delete an element
; 1109 : 			_Pnext = this->_Nextnode(_Pnode);

  00018	8b 1f		 mov	 ebx, DWORD PTR [edi]

; 1110 : 
; 1111 : 			_Dest_val(this->_Alnod, _Pnode);

  0001a	8d 4f 08	 lea	 ecx, DWORD PTR [edi+8]
  0001d	e8 00 00 00 00	 call	 ??1FireTime@@QAE@XZ

; 1112 : 			this->_Alnod.deallocate(_Pnode, 1);

  00022	57		 push	 edi
  00023	e8 00 00 00 00	 call	 ??3@YAXPAX@Z		; operator delete
  00028	59		 pop	 ecx
  00029	8b fb		 mov	 edi, ebx
  0002b	3b 1e		 cmp	 ebx, DWORD PTR [esi]
  0002d	75 e9		 jne	 SHORT $LL3@clear@2
  0002f	5b		 pop	 ebx
$LN1@clear@2:
  00030	5f		 pop	 edi
  00031	5e		 pop	 esi

; 1113 : 			}
; 1114 : 		}

  00032	c3		 ret	 0
?clear@?$list@UFireTime@@V?$allocator@UFireTime@@@std@@@std@@QAEXXZ ENDP ; std::list<FireTime,std::allocator<FireTime> >::clear
_TEXT	ENDS
PUBLIC	??1?$list@MV?$allocator@M@std@@@std@@QAE@XZ	; std::list<float,std::allocator<float> >::~list<float,std::allocator<float> >
; Function compile flags: /Ogsp
;	COMDAT ??1?$list@MV?$allocator@M@std@@@std@@QAE@XZ
_TEXT	SEGMENT
??1?$list@MV?$allocator@M@std@@@std@@QAE@XZ PROC	; std::list<float,std::allocator<float> >::~list<float,std::allocator<float> >, COMDAT
; _this$ = ecx

; 769  : 		{	// destroy the object

  00000	56		 push	 esi
  00001	8b f1		 mov	 esi, ecx

; 770  : 		_Tidy();

  00003	e8 00 00 00 00	 call	 ?clear@?$list@MV?$allocator@M@std@@@std@@QAEXXZ ; std::list<float,std::allocator<float> >::clear

; 771  : 		}

  00008	ff 36		 push	 DWORD PTR [esi]
  0000a	e8 00 00 00 00	 call	 ??3@YAXPAX@Z		; operator delete
  0000f	59		 pop	 ecx
  00010	5e		 pop	 esi
  00011	c3		 ret	 0
??1?$list@MV?$allocator@M@std@@@std@@QAE@XZ ENDP	; std::list<float,std::allocator<float> >::~list<float,std::allocator<float> >
_TEXT	ENDS
PUBLIC	?_Insert@?$list@UFireTime@@V?$allocator@UFireTime@@@std@@@std@@QAEXV?$_List_const_iterator@V?$_List_val@UFireTime@@V?$allocator@UFireTime@@@std@@@std@@@2@ABUFireTime@@@Z ; std::list<FireTime,std::allocator<FireTime> >::_Insert
; Function compile flags: /Ogsp
;	COMDAT ?_Insert@?$list@UFireTime@@V?$allocator@UFireTime@@@std@@@std@@QAEXV?$_List_const_iterator@V?$_List_val@UFireTime@@V?$allocator@UFireTime@@@std@@@std@@@2@ABUFireTime@@@Z
_TEXT	SEGMENT
__Where$ = 8						; size = 4
__Val$ = 12						; size = 4
?_Insert@?$list@UFireTime@@V?$allocator@UFireTime@@@std@@@std@@QAEXV?$_List_const_iterator@V?$_List_val@UFireTime@@V?$allocator@UFireTime@@@std@@@std@@@2@ABUFireTime@@@Z PROC ; std::list<FireTime,std::allocator<FireTime> >::_Insert, COMDAT
; _this$ = ecx

; 967  : 		{	// insert _Val at _Where

  00000	55		 push	 ebp
  00001	8b ec		 mov	 ebp, esp

; 968  :  #if _ITERATOR_DEBUG_LEVEL == 2
; 969  : 		if (_Where._Getcont() != this)
; 970  : 			_DEBUG_ERROR("list insert iterator outside range");
; 971  :  #endif /* _ITERATOR_DEBUG_LEVEL == 2 */
; 972  : 
; 973  : 		_Nodeptr _Pnode = _Where._Mynode();
; 974  : 		_Nodeptr _Newnode =
; 975  : 			this->_Buynode(_Pnode, this->_Prevnode(_Pnode), _Val);

  00003	8b 45 08	 mov	 eax, DWORD PTR __Where$[ebp]
  00006	53		 push	 ebx
  00007	56		 push	 esi
  00008	57		 push	 edi
  00009	ff 75 0c	 push	 DWORD PTR __Val$[ebp]
  0000c	8d 78 04	 lea	 edi, DWORD PTR [eax+4]
  0000f	ff 37		 push	 DWORD PTR [edi]
  00011	8b d9		 mov	 ebx, ecx
  00013	50		 push	 eax
  00014	e8 00 00 00 00	 call	 ?_Buynode@?$_List_val@UFireTime@@V?$allocator@UFireTime@@@std@@@std@@QAEPAU_Node@?$_List_nod@UFireTime@@V?$allocator@UFireTime@@@std@@@2@PAU342@0ABUFireTime@@@Z ; std::_List_val<FireTime,std::allocator<FireTime> >::_Buynode

; 976  : 		_Incsize(1);

  00019	6a 01		 push	 1
  0001b	8b cb		 mov	 ecx, ebx
  0001d	8b f0		 mov	 esi, eax
  0001f	e8 00 00 00 00	 call	 ?_Incsize@?$list@UFireTime@@V?$allocator@UFireTime@@@std@@@std@@QAEXI@Z ; std::list<FireTime,std::allocator<FireTime> >::_Incsize

; 977  : 		this->_Prevnode(_Pnode) = _Newnode;

  00024	89 37		 mov	 DWORD PTR [edi], esi

; 978  : 		this->_Nextnode(this->_Prevnode(_Newnode)) = _Newnode;

  00026	8b 46 04	 mov	 eax, DWORD PTR [esi+4]
  00029	5f		 pop	 edi
  0002a	89 30		 mov	 DWORD PTR [eax], esi
  0002c	5e		 pop	 esi
  0002d	5b		 pop	 ebx

; 979  : 		}

  0002e	5d		 pop	 ebp
  0002f	c2 08 00	 ret	 8
?_Insert@?$list@UFireTime@@V?$allocator@UFireTime@@@std@@@std@@QAEXV?$_List_const_iterator@V?$_List_val@UFireTime@@V?$allocator@UFireTime@@@std@@@std@@@2@ABUFireTime@@@Z ENDP ; std::list<FireTime,std::allocator<FireTime> >::_Insert
_TEXT	ENDS
PUBLIC	?_Destroy@?$vector@UExtraAniJump@@V?$allocator@UExtraAniJump@@@std@@@std@@IAEXPAUExtraAniJump@@0@Z ; std::vector<ExtraAniJump,std::allocator<ExtraAniJump> >::_Destroy
; Function compile flags: /Ogsp
; File c:\program files (x86)\microsoft visual studio 10.0\vc\include\vector
;	COMDAT ?_Destroy@?$vector@UExtraAniJump@@V?$allocator@UExtraAniJump@@@std@@@std@@IAEXPAUExtraAniJump@@0@Z
_TEXT	SEGMENT
__First$ = 8						; size = 4
__Last$ = 12						; size = 4
?_Destroy@?$vector@UExtraAniJump@@V?$allocator@UExtraAniJump@@@std@@@std@@IAEXPAUExtraAniJump@@0@Z PROC ; std::vector<ExtraAniJump,std::allocator<ExtraAniJump> >::_Destroy, COMDAT
; _this$ = ecx

; 1270 : 		_Destroy_range(_First, _Last, this->_Alval);
; 1271 : 		}

  00000	c2 08 00	 ret	 8
?_Destroy@?$vector@UExtraAniJump@@V?$allocator@UExtraAniJump@@@std@@@std@@IAEXPAUExtraAniJump@@0@Z ENDP ; std::vector<ExtraAniJump,std::allocator<ExtraAniJump> >::_Destroy
_TEXT	ENDS
PUBLIC	??$_Umove@PAUExtraAniJump@@@?$vector@UExtraAniJump@@V?$allocator@UExtraAniJump@@@std@@@std@@IAEPAUExtraAniJump@@PAU2@00@Z ; std::vector<ExtraAniJump,std::allocator<ExtraAniJump> >::_Umove<ExtraAniJump *>
; Function compile flags: /Ogsp
;	COMDAT ??$_Umove@PAUExtraAniJump@@@?$vector@UExtraAniJump@@V?$allocator@UExtraAniJump@@@std@@@std@@IAEPAUExtraAniJump@@PAU2@00@Z
_TEXT	SEGMENT
__First$ = 8						; size = 4
__Last$ = 12						; size = 4
__Ptr$ = 16						; size = 4
??$_Umove@PAUExtraAniJump@@@?$vector@UExtraAniJump@@V?$allocator@UExtraAniJump@@@std@@@std@@IAEPAUExtraAniJump@@PAU2@00@Z PROC ; std::vector<ExtraAniJump,std::allocator<ExtraAniJump> >::_Umove<ExtraAniJump *>, COMDAT
; _this$ = ecx

; 1322 : 		pointer _Umove(_Iter _First, _Iter _Last, pointer _Ptr)

  00000	55		 push	 ebp
  00001	8b ec		 mov	 ebp, esp

; 1323 : 		{	// move initializing [_First, _Last), using allocator
; 1324 : 		return (_Uninitialized_move(_First, _Last,
; 1325 : 			_Ptr, this->_Alval));

  00003	83 c1 0c	 add	 ecx, 12			; 0000000cH
  00006	51		 push	 ecx
  00007	ff 75 10	 push	 DWORD PTR __Ptr$[ebp]
  0000a	ff 75 0c	 push	 DWORD PTR __Last$[ebp]
  0000d	ff 75 08	 push	 DWORD PTR __First$[ebp]
  00010	e8 00 00 00 00	 call	 ??$_Uninitialized_move@PAUExtraAniJump@@PAU1@V?$allocator@UExtraAniJump@@@std@@@std@@YAPAUExtraAniJump@@PAU1@00AAV?$allocator@UExtraAniJump@@@0@@Z ; std::_Uninitialized_move<ExtraAniJump *,ExtraAniJump *,std::allocator<ExtraAniJump> >
  00015	83 c4 10	 add	 esp, 16			; 00000010H

; 1326 : 		}

  00018	5d		 pop	 ebp
  00019	c2 0c 00	 ret	 12			; 0000000cH
??$_Umove@PAUExtraAniJump@@@?$vector@UExtraAniJump@@V?$allocator@UExtraAniJump@@@std@@@std@@IAEPAUExtraAniJump@@PAU2@00@Z ENDP ; std::vector<ExtraAniJump,std::allocator<ExtraAniJump> >::_Umove<ExtraAniJump *>
_TEXT	ENDS
PUBLIC	?assign@?$basic_string@DU?$char_traits@D@std@@V?$allocator@D@2@@std@@QAEAAV12@PBD@Z ; std::basic_string<char,std::char_traits<char>,std::allocator<char> >::assign
; Function compile flags: /Ogsp
; File c:\program files (x86)\microsoft visual studio 10.0\vc\include\xstring
;	COMDAT ?assign@?$basic_string@DU?$char_traits@D@std@@V?$allocator@D@2@@std@@QAEAAV12@PBD@Z
_TEXT	SEGMENT
__Ptr$ = 8						; size = 4
?assign@?$basic_string@DU?$char_traits@D@std@@V?$allocator@D@2@@std@@QAEAAV12@PBD@Z PROC ; std::basic_string<char,std::char_traits<char>,std::allocator<char> >::assign, COMDAT
; _this$ = ecx

; 929  : 		{	// assign [_Ptr, <null>)

  00000	55		 push	 ebp
  00001	8b ec		 mov	 ebp, esp

; 930  : 		_DEBUG_POINTER(_Ptr);
; 931  : 		return (assign(_Ptr, _Traits::length(_Ptr)));

  00003	8b 45 08	 mov	 eax, DWORD PTR __Ptr$[ebp]
  00006	8d 50 01	 lea	 edx, DWORD PTR [eax+1]
  00009	53		 push	 ebx
$LL5@assign@3:
  0000a	8a 18		 mov	 bl, BYTE PTR [eax]
  0000c	40		 inc	 eax
  0000d	84 db		 test	 bl, bl
  0000f	75 f9		 jne	 SHORT $LL5@assign@3
  00011	2b c2		 sub	 eax, edx
  00013	50		 push	 eax
  00014	ff 75 08	 push	 DWORD PTR __Ptr$[ebp]
  00017	e8 00 00 00 00	 call	 ?assign@?$basic_string@DU?$char_traits@D@std@@V?$allocator@D@2@@std@@QAEAAV12@PBDI@Z ; std::basic_string<char,std::char_traits<char>,std::allocator<char> >::assign
  0001c	5b		 pop	 ebx

; 932  : 		}

  0001d	5d		 pop	 ebp
  0001e	c2 04 00	 ret	 4
?assign@?$basic_string@DU?$char_traits@D@std@@V?$allocator@D@2@@std@@QAEAAV12@PBD@Z ENDP ; std::basic_string<char,std::char_traits<char>,std::allocator<char> >::assign
; Function compile flags: /Ogsp
_TEXT	ENDS
;	COMDAT ??_GioMamaHahaDummy@@UAEPAXI@Z
_TEXT	SEGMENT
___flags$ = 8						; size = 4
??_GioMamaHahaDummy@@UAEPAXI@Z PROC			; ioMamaHahaDummy::`scalar deleting destructor', COMDAT
; _this$ = ecx
  00000	55		 push	 ebp
  00001	8b ec		 mov	 ebp, esp
  00003	56		 push	 esi
  00004	8b f1		 mov	 esi, ecx
  00006	e8 00 00 00 00	 call	 ??1ioMamaHahaDummy@@UAE@XZ ; ioMamaHahaDummy::~ioMamaHahaDummy
  0000b	f6 45 08 01	 test	 BYTE PTR ___flags$[ebp], 1
  0000f	74 07		 je	 SHORT $LN1@scalar@5
  00011	56		 push	 esi
  00012	e8 00 00 00 00	 call	 ??3@YAXPAX@Z		; operator delete
  00017	59		 pop	 ecx
$LN1@scalar@5:
  00018	8b c6		 mov	 eax, esi
  0001a	5e		 pop	 esi
  0001b	5d		 pop	 ebp
  0001c	c2 04 00	 ret	 4
??_GioMamaHahaDummy@@UAEPAXI@Z ENDP			; ioMamaHahaDummy::`scalar deleting destructor'
_TEXT	ENDS
PUBLIC	__real@402e000000000000
PUBLIC	__$ArrayPad$
EXTRN	_D3DXVec3Normalize@8:PROC
EXTRN	?GetMidPositionByRate@ioGameEntity@@QBE?AUD3DXVECTOR3@@M@Z:PROC ; ioGameEntity::GetMidPositionByRate
EXTRN	__imp_??D@YA?AUD3DXVECTOR3@@ABUD3DXQUATERNION@@ABU0@@Z:PROC
EXTRN	?GetBaseChar@ioBaseChar@@QAEPAV1@ABVioHashString@@@Z:PROC ; ioBaseChar::GetBaseChar
EXTRN	?GetRoomGravity@ioPlayStage@@QAEMXZ:PROC	; ioPlayStage::GetRoomGravity
EXTRN	?GetBottomHeight@ioGameEntity@@QBEMXZ:PROC	; ioGameEntity::GetBottomHeight
EXTRN	?ProcessForceMove@ioDummyChar@@IAEXM@Z:PROC	; ioDummyChar::ProcessForceMove
;	COMDAT __real@402e000000000000
; File d:\lost saga for developer\youtube\tutorial\source\src\lsclient\encryptvalue.h
CONST	SEGMENT
__real@402e000000000000 DQ 0402e000000000000r	; 15
; Function compile flags: /Ogsp
; File d:\lost saga for developer\youtube\tutorial\source\src\lsclient\iomamahahadummy.cpp
CONST	ENDS
;	COMDAT ?ProcessPos@ioMamaHahaDummy@@MAEXM@Z
_TEXT	SEGMENT
_value$676788 = -168					; size = 4
_value$676794 = -164					; size = 4
_value$676798 = -160					; size = 4
_value$676815 = -156					; size = 4
$T661478 = -152						; size = 12
$T661461 = -152						; size = 12
_fCurRate$661505 = -140					; size = 4
_fNewTimePerSec$661499 = -136				; size = 4
_value$676810 = -132					; size = 4
_fMapHeight$ = -128					; size = 4
_value$676819 = -124					; size = 4
_pTarget$661480 = -124					; size = 4
tv1552 = -120						; size = 4
tv1549 = -120						; size = 4
tv1532 = -120						; size = 4
$T676613 = -120						; size = 4
_fGap$661471 = -116					; size = 4
_dwCurTime$ = -116					; size = 4
_bEnd$661456 = -109					; size = 1
tv1485 = -108						; size = 4
tv1481 = -108						; size = 4
tv1476 = -108						; size = 4
tv1457 = -108						; size = 4
tv1453 = -108						; size = 4
tv1449 = -108						; size = 4
tv1353 = -108						; size = 4
tv1349 = -108						; size = 4
tv1345 = -108						; size = 4
tv1326 = -108						; size = 4
tv1322 = -108						; size = 4
tv1318 = -108						; size = 4
_value$676831 = -108					; size = 4
_value$676827 = -108					; size = 4
_value$676823 = -108					; size = 4
_value$676744 = -108					; size = 4
_value$676734 = -108					; size = 4
_value$676671 = -108					; size = 4
_qtRot$661482 = -104					; size = 16
_vMove$661476 = -100					; size = 12
_vMove$661457 = -100					; size = 12
$T661467 = -88						; size = 12
$T661453 = -76						; size = 12
$T661486 = -64						; size = 12
_vNewOffSet$661464 = -52				; size = 12
_vNewOffSet$661450 = -52				; size = 12
_vNewOffSet$661438 = -52				; size = 12
_vNewPos$661485 = -40					; size = 12
_vNewPos$661466 = -40					; size = 12
$T661441 = -40						; size = 12
_vCurPos$ = -28						; size = 12
_vNewOffSet$661483 = -16				; size = 12
_vDir$661469 = -16					; size = 12
_vNewPos$661440 = -16					; size = 12
__$ArrayPad$ = -4					; size = 4
_fTimePerSec$ = 8					; size = 4
?ProcessPos@ioMamaHahaDummy@@MAEXM@Z PROC		; ioMamaHahaDummy::ProcessPos, COMDAT
; _this$ = ecx

; 145  : {

  00000	55		 push	 ebp
  00001	8b ec		 mov	 ebp, esp
  00003	81 ec a8 00 00
	00		 sub	 esp, 168		; 000000a8H
  00009	a1 00 00 00 00	 mov	 eax, DWORD PTR ___security_cookie
  0000e	33 c5		 xor	 eax, ebp
  00010	89 45 fc	 mov	 DWORD PTR __$ArrayPad$[ebp], eax
  00013	53		 push	 ebx
  00014	56		 push	 esi
  00015	8b d9		 mov	 ebx, ecx

; 146  : 	ioBaseChar *pOwner = GetOwner();

  00017	e8 00 00 00 00	 call	 ?GetOwner@ioDummyChar@@QBEPAVioBaseChar@@XZ ; ioDummyChar::GetOwner
  0001c	8b f0		 mov	 esi, eax

; 147  : 	if( !pOwner ) return;

  0001e	85 f6		 test	 esi, esi
  00020	0f 84 9a 08 00
	00		 je	 $LN26@ProcessPos

; 148  : 
; 149  : 	DWORD dwCurTime = FRAMEGETTIME();

  00026	ff 15 00 00 00
	00		 call	 DWORD PTR __imp_?GetSingleton@ioFrameTimer@@SAAAV1@XZ
  0002c	8b c8		 mov	 ecx, eax
  0002e	ff 15 00 00 00
	00		 call	 DWORD PTR __imp_?GetLoopSec@ioFrameTimer@@QBEKXZ

; 150  : 
; 151  : 	if( m_State == DCS_START )

  00034	83 bb 30 02 00
	00 01		 cmp	 DWORD PTR [ebx+560], 1
  0003b	89 45 8c	 mov	 DWORD PTR _dwCurTime$[ebp], eax
  0003e	75 06		 jne	 SHORT $LN31@ProcessPos

; 152  : 	{
; 153  : 		m_dwProcessTime = dwCurTime;

  00040	89 83 1c 02 00
	00		 mov	 DWORD PTR [ebx+540], eax
$LN31@ProcessPos:

; 154  : 	}
; 155  : 
; 156  : 	ProcessForceMove( fTimePerSec );

  00046	f3 0f 10 45 08	 movss	 xmm0, DWORD PTR _fTimePerSec$[ebp]
  0004b	51		 push	 ecx
  0004c	8b cb		 mov	 ecx, ebx
  0004e	f3 0f 11 04 24	 movss	 DWORD PTR [esp], xmm0
  00053	e8 00 00 00 00	 call	 ?ProcessForceMove@ioDummyChar@@IAEXM@Z ; ioDummyChar::ProcessForceMove

; 157  : 
; 158  : 	switch( m_State )

  00058	8b 83 30 02 00
	00		 mov	 eax, DWORD PTR [ebx+560]
  0005e	85 c0		 test	 eax, eax
  00060	0f 8e 5a 08 00
	00		 jle	 $LN26@ProcessPos
  00066	57		 push	 edi
  00067	83 f8 03	 cmp	 eax, 3
  0006a	0f 8e 88 07 00
	00		 jle	 $LN28@ProcessPos
  00070	83 f8 10	 cmp	 eax, 16			; 00000010H
  00073	0f 85 46 08 00
	00		 jne	 $LN141@ProcessPos

; 169  : 		}
; 170  : 		return;
; 171  : 	case DCS_MAMAHAHA_STATE:
; 172  : 		break;
; 173  : 	default:
; 174  : 		//  
; 175  : 		return;
; 176  : 	}
; 177  : 
; 178  : 	switch( m_MamaHahaState )

  00079	8b 83 80 14 00
	00		 mov	 eax, DWORD PTR [ebx+5248]
  0007f	48		 dec	 eax
  00080	0f 84 de 06 00
	00		 je	 $LN23@ProcessPos
  00086	48		 dec	 eax
  00087	0f 84 32 08 00
	00		 je	 $LN141@ProcessPos
  0008d	48		 dec	 eax
  0008e	0f 84 c7 05 00
	00		 je	 $LN22@ProcessPos
  00094	48		 dec	 eax
  00095	0f 84 72 03 00
	00		 je	 $LN18@ProcessPos
  0009b	48		 dec	 eax
  0009c	0f 84 b9 05 00
	00		 je	 $LN22@ProcessPos
  000a2	48		 dec	 eax
  000a3	0f 84 64 03 00
	00		 je	 $LN18@ProcessPos
  000a9	48		 dec	 eax
  000aa	0f 84 71 02 00
	00		 je	 $LN13@ProcessPos

; 265  : 	case MHS_FIRE_ATTACK:
; 266  : 		//  
; 267  : 		return;
; 268  : 	}
; 269  : 
; 270  : 	//   .
; 271  : 	D3DXVECTOR3 vPrePos = GetWorldPosition();

  000b0	8b 03		 mov	 eax, DWORD PTR [ebx]
  000b2	8b cb		 mov	 ecx, ebx
  000b4	ff 50 70	 call	 DWORD PTR [eax+112]

; 272  : 	D3DXVECTOR3 vCurPos = vPrePos;

  000b7	8b f0		 mov	 esi, eax
  000b9	8d 7d e4	 lea	 edi, DWORD PTR _vCurPos$[ebp]
  000bc	a5		 movsd
  000bd	a5		 movsd

; 273  : 	float fMapHeight = GetBottomHeight();

  000be	8b cb		 mov	 ecx, ebx
  000c0	a5		 movsd
  000c1	e8 00 00 00 00	 call	 ?GetBottomHeight@ioGameEntity@@QBEMXZ ; ioGameEntity::GetBottomHeight

; 274  : 
; 275  : 	DWORD dwGapTime = dwCurTime - m_dwProcessTime;

  000c6	8b 75 8c	 mov	 esi, DWORD PTR _dwCurTime$[ebp]
  000c9	2b b3 1c 02 00
	00		 sub	 esi, DWORD PTR [ebx+540]
  000cf	d9 5d 80	 fstp	 DWORD PTR _fMapHeight$[ebp]
$LL10@ProcessPos:

; 276  : 
; 277  : 	do 
; 278  : 	{
; 279  : 		DWORD dwCurGap = min( dwGapTime, 10 );

  000d2	6a 0a		 push	 10			; 0000000aH
  000d4	58		 pop	 eax
  000d5	3b f0		 cmp	 esi, eax
  000d7	8b ce		 mov	 ecx, esi
  000d9	0f 43 c8	 cmovae	 ecx, eax

; 280  : 		if( dwGapTime >= 10 )

  000dc	72 04		 jb	 SHORT $LN7@ProcessPos

; 281  : 		{
; 282  : 			dwGapTime -= 10;

  000de	2b f0		 sub	 esi, eax

; 283  : 		}
; 284  : 		else

  000e0	eb 04		 jmp	 SHORT $LN6@ProcessPos
$LN7@ProcessPos:

; 285  : 		{
; 286  : 			dwCurGap = dwGapTime;

  000e2	8b ce		 mov	 ecx, esi

; 287  : 			dwGapTime = 0;

  000e4	33 f6		 xor	 esi, esi
$LN6@ProcessPos:

; 288  : 		}
; 289  : 
; 290  : 		float fNewTimePerSec = (float)dwCurGap / FLOAT1000;

  000e6	b8 e8 03 00 00	 mov	 eax, 1000		; 000003e8H
  000eb	89 4d 88	 mov	 DWORD PTR tv1552[ebp], ecx
  000ee	db 45 88	 fild	 DWORD PTR tv1552[ebp]
  000f1	85 c9		 test	 ecx, ecx
  000f3	79 06		 jns	 SHORT $LN142@ProcessPos
  000f5	d8 05 00 00 00
	00		 fadd	 DWORD PTR __real@4f800000
$LN142@ProcessPos:
  000fb	89 45 88	 mov	 DWORD PTR tv1549[ebp], eax
  000fe	db 45 88	 fild	 DWORD PTR tv1549[ebp]
  00101	85 c0		 test	 eax, eax
  00103	79 06		 jns	 SHORT $LN143@ProcessPos
  00105	d8 05 00 00 00
	00		 fadd	 DWORD PTR __real@4f800000
$LN143@ProcessPos:
  0010b	de f9		 fdivp	 ST(1), ST(0)

; 291  : 
; 292  : 		if( m_fCurJumpPowerAmt > 0.0f )

  0010d	8d 85 58 ff ff
	ff		 lea	 eax, DWORD PTR _value$676788[ebp]
  00113	50		 push	 eax
  00114	8d 8b 20 03 00
	00		 lea	 ecx, DWORD PTR [ebx+800]
  0011a	d9 9d 78 ff ff
	ff		 fstp	 DWORD PTR _fNewTimePerSec$661499[ebp]
  00120	e8 00 00 00 00	 call	 ?DecryptValueToPool@?$CEncrypt@M@@QAEXPAM@Z ; CEncrypt<float>::DecryptValueToPool
  00125	f3 0f 10 85 58
	ff ff ff	 movss	 xmm0, DWORD PTR _value$676788[ebp]
  0012d	0f 2f 05 00 00
	00 00		 comiss	 xmm0, DWORD PTR __real@00000000
  00134	76 49		 jbe	 SHORT $LN139@ProcessPos

; 293  : 		{
; 294  : 			vCurPos.y += m_fCurJumpPowerAmt * fNewTimePerSec;

  00136	8d 85 5c ff ff
	ff		 lea	 eax, DWORD PTR _value$676794[ebp]
  0013c	50		 push	 eax
  0013d	8d 8b 20 03 00
	00		 lea	 ecx, DWORD PTR [ebx+800]
  00143	e8 00 00 00 00	 call	 ?DecryptValueToPool@?$CEncrypt@M@@QAEXPAM@Z ; CEncrypt<float>::DecryptValueToPool
  00148	f3 0f 10 85 5c
	ff ff ff	 movss	 xmm0, DWORD PTR _value$676794[ebp]
  00150	f3 0f 10 8d 78
	ff ff ff	 movss	 xmm1, DWORD PTR _fNewTimePerSec$661499[ebp]
  00158	0f 5a c0	 cvtps2pd xmm0, xmm0
  0015b	0f 5a c9	 cvtps2pd xmm1, xmm1
  0015e	f2 0f 59 c1	 mulsd	 xmm0, xmm1
  00162	f3 0f 10 4d e8	 movss	 xmm1, DWORD PTR _vCurPos$[ebp+4]
  00167	66 0f 5a c0	 cvtpd2ps xmm0, xmm0
  0016b	f3 0f 5a c0	 cvtss2sd xmm0, xmm0
  0016f	0f 5a c9	 cvtps2pd xmm1, xmm1
  00172	f2 0f 58 c1	 addsd	 xmm0, xmm1
  00176	66 0f 5a c0	 cvtpd2ps xmm0, xmm0
  0017a	f3 0f 11 45 e8	 movss	 DWORD PTR _vCurPos$[ebp+4], xmm0
$LN139@ProcessPos:

; 295  : 		}
; 296  : 
; 297  : 		if( vCurPos.y > fMapHeight )

  0017f	f3 0f 10 45 e8	 movss	 xmm0, DWORD PTR _vCurPos$[ebp+4]
  00184	f3 0f 10 4d 80	 movss	 xmm1, DWORD PTR _fMapHeight$[ebp]
  00189	0f 5a c0	 cvtps2pd xmm0, xmm0
  0018c	0f 5a c9	 cvtps2pd xmm1, xmm1
  0018f	66 0f 2f c1	 comisd	 xmm0, xmm1
  00193	0f 86 1e 01 00
	00		 jbe	 $LN9@ProcessPos

; 298  : 		{
; 299  : 			float fCurRate = m_fGravityRate;

  00199	8d 85 60 ff ff
	ff		 lea	 eax, DWORD PTR _value$676798[ebp]
  0019f	50		 push	 eax
  001a0	8d 8b f0 02 00
	00		 lea	 ecx, DWORD PTR [ebx+752]
  001a6	e8 00 00 00 00	 call	 ?DecryptValueToPool@?$CEncrypt@M@@QAEXPAM@Z ; CEncrypt<float>::DecryptValueToPool
  001ab	f3 0f 10 85 60
	ff ff ff	 movss	 xmm0, DWORD PTR _value$676798[ebp]

; 300  : 			if( fCurRate <= 0.0f )

  001b3	0f 57 c9	 xorps	 xmm1, xmm1
  001b6	0f 2f c8	 comiss	 xmm1, xmm0
  001b9	f3 0f 11 85 74
	ff ff ff	 movss	 DWORD PTR _fCurRate$661505[ebp], xmm0
  001c1	72 1b		 jb	 SHORT $LN3@ProcessPos

; 301  : 				fCurRate = FLOAT1;

  001c3	b8 01 00 00 00	 mov	 eax, 1
  001c8	89 45 88	 mov	 DWORD PTR tv1532[ebp], eax
  001cb	db 45 88	 fild	 DWORD PTR tv1532[ebp]
  001ce	85 c0		 test	 eax, eax
  001d0	79 06		 jns	 SHORT $LN144@ProcessPos
  001d2	d8 05 00 00 00
	00		 fadd	 DWORD PTR __real@4f800000
$LN144@ProcessPos:
  001d8	d9 9d 74 ff ff
	ff		 fstp	 DWORD PTR _fCurRate$661505[ebp]
$LN3@ProcessPos:

; 302  : 
; 303  : 			m_fGravityAmt += (m_pModeParent->GetCreator()->GetRoomGravity() * fCurRate )* fNewTimePerSec;

  001de	8b 83 8c 00 00
	00		 mov	 eax, DWORD PTR [ebx+140]
  001e4	8b 48 34	 mov	 ecx, DWORD PTR [eax+52]
  001e7	e8 00 00 00 00	 call	 ?GetRoomGravity@ioPlayStage@@QAEMXZ ; ioPlayStage::GetRoomGravity
  001ec	d8 8d 74 ff ff
	ff		 fmul	 DWORD PTR _fCurRate$661505[ebp]
  001f2	8d 85 7c ff ff
	ff		 lea	 eax, DWORD PTR _value$676810[ebp]
  001f8	50		 push	 eax
  001f9	d8 8d 78 ff ff
	ff		 fmul	 DWORD PTR _fNewTimePerSec$661499[ebp]
  001ff	8d 8b c0 02 00
	00		 lea	 ecx, DWORD PTR [ebx+704]
  00205	d9 5d 88	 fstp	 DWORD PTR $T676613[ebp]
  00208	e8 00 00 00 00	 call	 ?DecryptValueToPool@?$CEncrypt@M@@QAEXPAM@Z ; CEncrypt<float>::DecryptValueToPool
  0020d	d9 85 7c ff ff
	ff		 fld	 DWORD PTR _value$676810[ebp]
  00213	8d 85 7c ff ff
	ff		 lea	 eax, DWORD PTR _value$676810[ebp]
  00219	d8 45 88	 fadd	 DWORD PTR $T676613[ebp]
  0021c	50		 push	 eax
  0021d	8d 8b c0 02 00
	00		 lea	 ecx, DWORD PTR [ebx+704]
  00223	d9 9d 7c ff ff
	ff		 fstp	 DWORD PTR _value$676810[ebp]
  00229	e8 00 00 00 00	 call	 ?EncryptValueToPool@?$CEncrypt@M@@AAEXPBD@Z ; CEncrypt<float>::EncryptValueToPool

; 304  : 			vCurPos.y -= m_fGravityAmt * fNewTimePerSec;

  0022e	8d 85 64 ff ff
	ff		 lea	 eax, DWORD PTR _value$676815[ebp]
  00234	50		 push	 eax
  00235	8d 8b c0 02 00
	00		 lea	 ecx, DWORD PTR [ebx+704]
  0023b	e8 00 00 00 00	 call	 ?DecryptValueToPool@?$CEncrypt@M@@QAEXPAM@Z ; CEncrypt<float>::DecryptValueToPool
  00240	f3 0f 10 8d 64
	ff ff ff	 movss	 xmm1, DWORD PTR _value$676815[ebp]
  00248	f3 0f 10 95 78
	ff ff ff	 movss	 xmm2, DWORD PTR _fNewTimePerSec$661499[ebp]
  00250	f3 0f 10 45 e8	 movss	 xmm0, DWORD PTR _vCurPos$[ebp+4]
  00255	0f 5a c9	 cvtps2pd xmm1, xmm1
  00258	0f 5a d2	 cvtps2pd xmm2, xmm2
  0025b	f2 0f 59 ca	 mulsd	 xmm1, xmm2
  0025f	66 0f 5a c9	 cvtpd2ps xmm1, xmm1
  00263	0f 5a c0	 cvtps2pd xmm0, xmm0
  00266	f3 0f 5a c9	 cvtss2sd xmm1, xmm1
  0026a	f2 0f 5c c1	 subsd	 xmm0, xmm1

; 305  : 
; 306  : 			if( vCurPos.y <= fMapHeight )

  0026e	f3 0f 10 4d 80	 movss	 xmm1, DWORD PTR _fMapHeight$[ebp]
  00273	66 0f 5a c0	 cvtpd2ps xmm0, xmm0
  00277	f3 0f 11 45 e8	 movss	 DWORD PTR _vCurPos$[ebp+4], xmm0
  0027c	f3 0f 5a c0	 cvtss2sd xmm0, xmm0
  00280	0f 5a c9	 cvtps2pd xmm1, xmm1
  00283	66 0f 2f c8	 comisd	 xmm1, xmm0
  00287	72 2e		 jb	 SHORT $LN9@ProcessPos

; 307  : 			{
; 308  : 				m_fGravityAmt = 0.0f;

  00289	0f 57 c0	 xorps	 xmm0, xmm0
  0028c	8d 45 84	 lea	 eax, DWORD PTR _value$676819[ebp]
  0028f	50		 push	 eax
  00290	8d 8b c0 02 00
	00		 lea	 ecx, DWORD PTR [ebx+704]
  00296	f3 0f 11 45 84	 movss	 DWORD PTR _value$676819[ebp], xmm0
  0029b	e8 00 00 00 00	 call	 ?EncryptValueToPool@?$CEncrypt@M@@AAEXPBD@Z ; CEncrypt<float>::EncryptValueToPool

; 309  : 				m_fCurJumpPowerAmt = 0.0f;

  002a0	0f 57 c0	 xorps	 xmm0, xmm0
  002a3	8d 45 94	 lea	 eax, DWORD PTR _value$676823[ebp]
  002a6	50		 push	 eax
  002a7	8d 8b 20 03 00
	00		 lea	 ecx, DWORD PTR [ebx+800]
  002ad	f3 0f 11 45 94	 movss	 DWORD PTR _value$676823[ebp], xmm0
  002b2	e8 00 00 00 00	 call	 ?EncryptValueToPool@?$CEncrypt@M@@AAEXPBD@Z ; CEncrypt<float>::EncryptValueToPool
$LN9@ProcessPos:

; 310  : 			}
; 311  : 		}
; 312  : 
; 313  : 	} while( dwGapTime > 0 );

  002b7	85 f6		 test	 esi, esi
  002b9	0f 85 13 fe ff
	ff		 jne	 $LL10@ProcessPos

; 314  : 
; 315  : 	if( vCurPos.y < fMapHeight )

  002bf	f3 0f 10 4d e8	 movss	 xmm1, DWORD PTR _vCurPos$[ebp+4]
  002c4	f3 0f 10 45 80	 movss	 xmm0, DWORD PTR _fMapHeight$[ebp]
  002c9	0f 5a c9	 cvtps2pd xmm1, xmm1
  002cc	0f 5a d0	 cvtps2pd xmm2, xmm0
  002cf	66 0f 2f d1	 comisd	 xmm2, xmm1
  002d3	76 33		 jbe	 SHORT $LN135@ProcessPos

; 316  : 	{
; 317  : 		vCurPos.y = fMapHeight;
; 318  : 		m_fGravityAmt = 0.0f;

  002d5	8d 45 94	 lea	 eax, DWORD PTR _value$676827[ebp]
  002d8	f3 0f 11 45 e8	 movss	 DWORD PTR _vCurPos$[ebp+4], xmm0
  002dd	0f 57 c0	 xorps	 xmm0, xmm0
  002e0	8d 8b c0 02 00
	00		 lea	 ecx, DWORD PTR [ebx+704]
  002e6	50		 push	 eax
  002e7	f3 0f 11 45 94	 movss	 DWORD PTR _value$676827[ebp], xmm0
  002ec	e8 00 00 00 00	 call	 ?EncryptValueToPool@?$CEncrypt@M@@AAEXPBD@Z ; CEncrypt<float>::EncryptValueToPool

; 319  : 		m_fCurJumpPowerAmt = 0.0f;

  002f1	0f 57 c0	 xorps	 xmm0, xmm0
  002f4	8d 45 94	 lea	 eax, DWORD PTR _value$676831[ebp]
  002f7	50		 push	 eax
  002f8	8d 8b 20 03 00
	00		 lea	 ecx, DWORD PTR [ebx+800]
  002fe	f3 0f 11 45 94	 movss	 DWORD PTR _value$676831[ebp], xmm0
  00303	e8 00 00 00 00	 call	 ?EncryptValueToPool@?$CEncrypt@M@@AAEXPBD@Z ; CEncrypt<float>::EncryptValueToPool
$LN135@ProcessPos:

; 320  : 	}
; 321  : 
; 322  : 	SetWorldPosition( vCurPos );

  00308	8b 03		 mov	 eax, DWORD PTR [ebx]
  0030a	8d 4d e4	 lea	 ecx, DWORD PTR _vCurPos$[ebp]
  0030d	51		 push	 ecx
  0030e	8b cb		 mov	 ecx, ebx
  00310	ff 50 44	 call	 DWORD PTR [eax+68]

; 323  : 
; 324  : 	m_dwProcessTime = dwCurTime;

  00313	8b 45 8c	 mov	 eax, DWORD PTR _dwCurTime$[ebp]
  00316	89 83 1c 02 00
	00		 mov	 DWORD PTR [ebx+540], eax
  0031c	e9 9e 05 00 00	 jmp	 $LN141@ProcessPos
$LN13@ProcessPos:

; 251  : 	case MHS_ENEMY_ATTACH:
; 252  : 		{
; 253  : 			ioBaseChar *pTarget = pOwner->GetBaseChar( m_MamaHahaTargetName );

  00321	8d 83 d4 14 00
	00		 lea	 eax, DWORD PTR [ebx+5332]
  00327	50		 push	 eax
  00328	8b ce		 mov	 ecx, esi
  0032a	e8 00 00 00 00	 call	 ?GetBaseChar@ioBaseChar@@QAEPAV1@ABVioHashString@@@Z ; ioBaseChar::GetBaseChar
  0032f	89 45 84	 mov	 DWORD PTR _pTarget$661480[ebp], eax

; 254  : 			if( pTarget )

  00332	85 c0		 test	 eax, eax
  00334	0f 84 85 05 00
	00		 je	 $LN141@ProcessPos

; 255  : 			{
; 256  : 				D3DXQUATERNION qtRot = pTarget->GetTargetRot();

  0033a	8d b0 a4 06 00
	00		 lea	 esi, DWORD PTR [eax+1700]
  00340	8d 7d 98	 lea	 edi, DWORD PTR _qtRot$661482[ebp]
  00343	a5		 movsd
  00344	a5		 movsd

; 257  : 				D3DXVECTOR3 vNewOffSet = qtRot * m_vMamaHahaEnemyAttachOffSet;

  00345	8d 83 e4 14 00
	00		 lea	 eax, DWORD PTR [ebx+5348]
  0034b	50		 push	 eax
  0034c	8d 45 98	 lea	 eax, DWORD PTR _qtRot$661482[ebp]
  0034f	a5		 movsd
  00350	50		 push	 eax
  00351	8d 45 f0	 lea	 eax, DWORD PTR _vNewOffSet$661483[ebp]
  00354	50		 push	 eax
  00355	a5		 movsd
  00356	ff 15 00 00 00
	00		 call	 DWORD PTR __imp_??D@YA?AUD3DXVECTOR3@@ABUD3DXQUATERNION@@ABU0@@Z
  0035c	83 c4 0c	 add	 esp, 12			; 0000000cH

; 258  : 				D3DXVECTOR3 vNewPos = pTarget->GetMidPositionByRate() + vNewOffSet;

  0035f	b8 05 00 00 00	 mov	 eax, 5
  00364	8b c8		 mov	 ecx, eax
  00366	b8 0a 00 00 00	 mov	 eax, 10			; 0000000aH
  0036b	89 4d 94	 mov	 DWORD PTR tv1485[ebp], ecx
  0036e	db 45 94	 fild	 DWORD PTR tv1485[ebp]
  00371	85 c9		 test	 ecx, ecx
  00373	79 06		 jns	 SHORT $LN145@ProcessPos
  00375	d8 05 00 00 00
	00		 fadd	 DWORD PTR __real@4f800000
$LN145@ProcessPos:
  0037b	89 45 94	 mov	 DWORD PTR tv1481[ebp], eax
  0037e	db 45 94	 fild	 DWORD PTR tv1481[ebp]
  00381	85 c0		 test	 eax, eax
  00383	79 06		 jns	 SHORT $LN146@ProcessPos
  00385	d8 05 00 00 00
	00		 fadd	 DWORD PTR __real@4f800000
$LN146@ProcessPos:
  0038b	de f9		 fdivp	 ST(1), ST(0)
  0038d	51		 push	 ecx
  0038e	8b 4d 84	 mov	 ecx, DWORD PTR _pTarget$661480[ebp]
  00391	8d 45 c0	 lea	 eax, DWORD PTR $T661486[ebp]
  00394	d9 5d 94	 fstp	 DWORD PTR tv1476[ebp]
  00397	d9 45 94	 fld	 DWORD PTR tv1476[ebp]
  0039a	d9 1c 24	 fstp	 DWORD PTR [esp]
  0039d	50		 push	 eax
  0039e	e8 00 00 00 00	 call	 ?GetMidPositionByRate@ioGameEntity@@QBE?AUD3DXVECTOR3@@M@Z ; ioGameEntity::GetMidPositionByRate
  003a3	f3 0f 10 40 04	 movss	 xmm0, DWORD PTR [eax+4]
  003a8	f3 0f 10 4d f4	 movss	 xmm1, DWORD PTR _vNewOffSet$661483[ebp+4]
  003ad	f3 0f 10 55 f8	 movss	 xmm2, DWORD PTR _vNewOffSet$661483[ebp+8]
  003b2	f3 0f 10 5d f0	 movss	 xmm3, DWORD PTR _vNewOffSet$661483[ebp]
  003b7	0f 5a c9	 cvtps2pd xmm1, xmm1
  003ba	0f 5a c0	 cvtps2pd xmm0, xmm0
  003bd	f2 0f 58 c1	 addsd	 xmm0, xmm1
  003c1	f3 0f 10 48 08	 movss	 xmm1, DWORD PTR [eax+8]
  003c6	0f 5a d2	 cvtps2pd xmm2, xmm2
  003c9	0f 5a c9	 cvtps2pd xmm1, xmm1
  003cc	f2 0f 58 ca	 addsd	 xmm1, xmm2
  003d0	f3 0f 10 10	 movss	 xmm2, DWORD PTR [eax]

; 259  : 
; 260  : 				SetWorldPosition( vNewPos );

  003d4	8b 03		 mov	 eax, DWORD PTR [ebx]
  003d6	0f 5a d2	 cvtps2pd xmm2, xmm2
  003d9	8d 4d d8	 lea	 ecx, DWORD PTR _vNewPos$661485[ebp]
  003dc	0f 5a db	 cvtps2pd xmm3, xmm3
  003df	f2 0f 58 d3	 addsd	 xmm2, xmm3
  003e3	51		 push	 ecx
  003e4	66 0f 5a c0	 cvtpd2ps xmm0, xmm0
  003e8	66 0f 5a c9	 cvtpd2ps xmm1, xmm1
  003ec	66 0f 5a d2	 cvtpd2ps xmm2, xmm2
  003f0	8b cb		 mov	 ecx, ebx
  003f2	f3 0f 11 55 d8	 movss	 DWORD PTR _vNewPos$661485[ebp], xmm2
  003f7	f3 0f 11 45 dc	 movss	 DWORD PTR _vNewPos$661485[ebp+4], xmm0
  003fc	f3 0f 11 4d e0	 movss	 DWORD PTR _vNewPos$661485[ebp+8], xmm1
  00401	ff 50 44	 call	 DWORD PTR [eax+68]

; 261  : 				SetWorldOrientation( qtRot );

  00404	8d 4d 98	 lea	 ecx, DWORD PTR _qtRot$661482[ebp]
  00407	51		 push	 ecx

; 262  : 			}
; 263  : 		}
; 264  : 		return;

  00408	e9 ab 04 00 00	 jmp	 $LN153@ProcessPos
$LN18@ProcessPos:

; 216  : 	case MHS_RETURN1:
; 217  : 	case MHS_RETURN2:
; 218  : 		{
; 219  : 			D3DXVECTOR3 vNewOffSet = pOwner->GetTargetRot() * m_vMamaHahaOwnerAttachOffSet;

  0040d	8d 83 90 14 00
	00		 lea	 eax, DWORD PTR [ebx+5264]
  00413	50		 push	 eax
  00414	8d be a4 06 00
	00		 lea	 edi, DWORD PTR [esi+1700]
  0041a	8d 45 cc	 lea	 eax, DWORD PTR _vNewOffSet$661464[ebp]
  0041d	57		 push	 edi
  0041e	50		 push	 eax
  0041f	ff 15 00 00 00
	00		 call	 DWORD PTR __imp_??D@YA?AUD3DXVECTOR3@@ABUD3DXQUATERNION@@ABU0@@Z
  00425	83 c4 0c	 add	 esp, 12			; 0000000cH

; 220  : 			D3DXVECTOR3 vNewPos = pOwner->GetMidPositionByRate() + vNewOffSet;

  00428	b8 05 00 00 00	 mov	 eax, 5
  0042d	8b c8		 mov	 ecx, eax
  0042f	b8 0a 00 00 00	 mov	 eax, 10			; 0000000aH
  00434	89 4d 94	 mov	 DWORD PTR tv1457[ebp], ecx
  00437	db 45 94	 fild	 DWORD PTR tv1457[ebp]
  0043a	85 c9		 test	 ecx, ecx
  0043c	79 06		 jns	 SHORT $LN147@ProcessPos
  0043e	d8 05 00 00 00
	00		 fadd	 DWORD PTR __real@4f800000
$LN147@ProcessPos:
  00444	89 45 94	 mov	 DWORD PTR tv1453[ebp], eax
  00447	db 45 94	 fild	 DWORD PTR tv1453[ebp]
  0044a	85 c0		 test	 eax, eax
  0044c	79 06		 jns	 SHORT $LN148@ProcessPos
  0044e	d8 05 00 00 00
	00		 fadd	 DWORD PTR __real@4f800000
$LN148@ProcessPos:
  00454	de f9		 fdivp	 ST(1), ST(0)
  00456	51		 push	 ecx
  00457	8d 45 a8	 lea	 eax, DWORD PTR $T661467[ebp]
  0045a	8b ce		 mov	 ecx, esi
  0045c	d9 5d 94	 fstp	 DWORD PTR tv1449[ebp]
  0045f	d9 45 94	 fld	 DWORD PTR tv1449[ebp]
  00462	d9 1c 24	 fstp	 DWORD PTR [esp]
  00465	50		 push	 eax
  00466	e8 00 00 00 00	 call	 ?GetMidPositionByRate@ioGameEntity@@QBE?AUD3DXVECTOR3@@M@Z ; ioGameEntity::GetMidPositionByRate
  0046b	f3 0f 10 40 04	 movss	 xmm0, DWORD PTR [eax+4]
  00470	f3 0f 10 4d d0	 movss	 xmm1, DWORD PTR _vNewOffSet$661464[ebp+4]
  00475	f3 0f 10 18	 movss	 xmm3, DWORD PTR [eax]
  00479	f3 0f 10 55 d4	 movss	 xmm2, DWORD PTR _vNewOffSet$661464[ebp+8]
  0047e	0f 5a c9	 cvtps2pd xmm1, xmm1
  00481	0f 5a c0	 cvtps2pd xmm0, xmm0
  00484	f2 0f 58 c1	 addsd	 xmm0, xmm1
  00488	f3 0f 10 48 08	 movss	 xmm1, DWORD PTR [eax+8]

; 221  : 
; 222  : 			D3DXVECTOR3 vDir = vNewPos - GetWorldPosition();

  0048d	8b 03		 mov	 eax, DWORD PTR [ebx]
  0048f	0f 5a d2	 cvtps2pd xmm2, xmm2
  00492	0f 5a c9	 cvtps2pd xmm1, xmm1
  00495	f2 0f 58 ca	 addsd	 xmm1, xmm2
  00499	f3 0f 10 55 cc	 movss	 xmm2, DWORD PTR _vNewOffSet$661464[ebp]
  0049e	0f 5a d2	 cvtps2pd xmm2, xmm2
  004a1	0f 5a db	 cvtps2pd xmm3, xmm3
  004a4	f2 0f 58 d3	 addsd	 xmm2, xmm3
  004a8	66 0f 5a c0	 cvtpd2ps xmm0, xmm0
  004ac	66 0f 5a c9	 cvtpd2ps xmm1, xmm1
  004b0	66 0f 5a d2	 cvtpd2ps xmm2, xmm2
  004b4	8b cb		 mov	 ecx, ebx
  004b6	f3 0f 11 55 d8	 movss	 DWORD PTR _vNewPos$661466[ebp], xmm2
  004bb	f3 0f 11 45 dc	 movss	 DWORD PTR _vNewPos$661466[ebp+4], xmm0
  004c0	f3 0f 11 4d e0	 movss	 DWORD PTR _vNewPos$661466[ebp+8], xmm1
  004c5	ff 50 70	 call	 DWORD PTR [eax+112]
  004c8	f3 0f 10 48 04	 movss	 xmm1, DWORD PTR [eax+4]
  004cd	f3 0f 10 45 dc	 movss	 xmm0, DWORD PTR _vNewPos$661466[ebp+4]
  004d2	f3 0f 10 50 08	 movss	 xmm2, DWORD PTR [eax+8]
  004d7	f3 0f 10 18	 movss	 xmm3, DWORD PTR [eax]
  004db	0f 5a c0	 cvtps2pd xmm0, xmm0
  004de	0f 5a c9	 cvtps2pd xmm1, xmm1
  004e1	f2 0f 5c c1	 subsd	 xmm0, xmm1
  004e5	f3 0f 10 4d e0	 movss	 xmm1, DWORD PTR _vNewPos$661466[ebp+8]
  004ea	0f 5a d2	 cvtps2pd xmm2, xmm2
  004ed	0f 5a c9	 cvtps2pd xmm1, xmm1
  004f0	f2 0f 5c ca	 subsd	 xmm1, xmm2
  004f4	f3 0f 10 55 d8	 movss	 xmm2, DWORD PTR _vNewPos$661466[ebp]
  004f9	66 0f 5a c0	 cvtpd2ps xmm0, xmm0
  004fd	0f 5a d2	 cvtps2pd xmm2, xmm2
  00500	f3 0f 11 45 f4	 movss	 DWORD PTR _vDir$661469[ebp+4], xmm0
  00505	f3 0f 5a c0	 cvtss2sd xmm0, xmm0
  00509	0f 5a db	 cvtps2pd xmm3, xmm3
  0050c	f2 0f 5c d3	 subsd	 xmm2, xmm3
  00510	66 0f 5a d2	 cvtpd2ps xmm2, xmm2
  00514	f3 0f 11 55 f0	 movss	 DWORD PTR _vDir$661469[ebp], xmm2

; 223  : 			float fGap = D3DXVec3Length( &vDir );

  00519	f2 0f 59 c0	 mulsd	 xmm0, xmm0
  0051d	66 0f 5a c9	 cvtpd2ps xmm1, xmm1
  00521	f3 0f 5a d2	 cvtss2sd xmm2, xmm2
  00525	f3 0f 11 4d f8	 movss	 DWORD PTR _vDir$661469[ebp+8], xmm1
  0052a	f2 0f 59 d2	 mulsd	 xmm2, xmm2
  0052e	f2 0f 58 d0	 addsd	 xmm2, xmm0
  00532	0f 57 c0	 xorps	 xmm0, xmm0
  00535	f3 0f 5a c9	 cvtss2sd xmm1, xmm1
  00539	f2 0f 59 c9	 mulsd	 xmm1, xmm1

; 224  : 			D3DXVec3Normalize( &vDir, &vDir );

  0053d	8d 45 f0	 lea	 eax, DWORD PTR _vDir$661469[ebp]
  00540	f2 0f 58 d1	 addsd	 xmm2, xmm1
  00544	66 0f 5a c2	 cvtpd2ps xmm0, xmm2
  00548	0f 5a c0	 cvtps2pd xmm0, xmm0
  0054b	50		 push	 eax
  0054c	f2 0f 51 c0	 sqrtsd	 xmm0, xmm0
  00550	66 0f 5a c0	 cvtpd2ps xmm0, xmm0
  00554	50		 push	 eax
  00555	f3 0f 11 45 8c	 movss	 DWORD PTR _fGap$661471[ebp], xmm0
  0055a	e8 00 00 00 00	 call	 _D3DXVec3Normalize@8

; 225  : 
; 226  : 			if( fGap <= 15.0f )

  0055f	f3 0f 10 45 8c	 movss	 xmm0, DWORD PTR _fGap$661471[ebp]
  00564	f2 0f 10 0d 00
	00 00 00	 movsd	 xmm1, QWORD PTR __real@402e000000000000
  0056c	0f 5a c0	 cvtps2pd xmm0, xmm0
  0056f	66 0f 2f c8	 comisd	 xmm1, xmm0

; 227  : 			{
; 228  : 				SetWorldPosition( vNewPos );
; 229  : 				SetWorldOrientation( pOwner->GetTargetRot() );
; 230  : 				
; 231  : 				SetDelayState( false );

  00573	73 25		 jae	 SHORT $LN155@ProcessPos

; 232  : 			}
; 233  : 			else if( fGap > m_fShichikapuLimitRange )

  00575	8d 45 94	 lea	 eax, DWORD PTR _value$676734[ebp]
  00578	50		 push	 eax
  00579	8d 8b 80 15 00
	00		 lea	 ecx, DWORD PTR [ebx+5504]
  0057f	e8 00 00 00 00	 call	 ?DecryptValueToPool@?$CEncrypt@M@@QAEXPAM@Z ; CEncrypt<float>::DecryptValueToPool
  00584	f3 0f 10 45 8c	 movss	 xmm0, DWORD PTR _fGap$661471[ebp]
  00589	f3 0f 10 4d 94	 movss	 xmm1, DWORD PTR _value$676734[ebp]
  0058e	0f 5a c0	 cvtps2pd xmm0, xmm0
  00591	0f 5a c9	 cvtps2pd xmm1, xmm1
  00594	66 0f 2f c1	 comisd	 xmm0, xmm1
  00598	76 24		 jbe	 SHORT $LN15@ProcessPos
$LN155@ProcessPos:

; 234  : 			{
; 235  : 				SetWorldPosition( vNewPos );

  0059a	8b 03		 mov	 eax, DWORD PTR [ebx]
  0059c	8d 4d d8	 lea	 ecx, DWORD PTR _vNewPos$661466[ebp]
  0059f	51		 push	 ecx
  005a0	8b cb		 mov	 ecx, ebx
  005a2	ff 50 44	 call	 DWORD PTR [eax+68]

; 236  : 				SetWorldOrientation( pOwner->GetTargetRot() );

  005a5	8b 03		 mov	 eax, DWORD PTR [ebx]
  005a7	57		 push	 edi
  005a8	8b cb		 mov	 ecx, ebx
  005aa	ff 50 48	 call	 DWORD PTR [eax+72]

; 237  : 				
; 238  : 				SetDelayState( false );

  005ad	8b 03		 mov	 eax, DWORD PTR [ebx]
  005af	6a 00		 push	 0
  005b1	8b cb		 mov	 ecx, ebx
  005b3	ff 90 14 01 00
	00		 call	 DWORD PTR [eax+276]

; 239  : 			}
; 240  : 			else

  005b9	e9 01 03 00 00	 jmp	 $LN141@ProcessPos
$LN15@ProcessPos:

; 241  : 			{
; 242  : 				D3DXVECTOR3 vMove;
; 243  : 
; 244  : 				float fMoveSpeed = m_fShichikapuReturnSpeed * fTimePerSec;

  005be	8d 45 94	 lea	 eax, DWORD PTR _value$676744[ebp]
  005c1	50		 push	 eax
  005c2	8d 8b 50 15 00
	00		 lea	 ecx, DWORD PTR [ebx+5456]
  005c8	e8 00 00 00 00	 call	 ?DecryptValueToPool@?$CEncrypt@M@@QAEXPAM@Z ; CEncrypt<float>::DecryptValueToPool
  005cd	f3 0f 10 45 94	 movss	 xmm0, DWORD PTR _value$676744[ebp]
  005d2	f3 0f 10 4d 08	 movss	 xmm1, DWORD PTR _fTimePerSec$[ebp]
  005d7	0f 5a c9	 cvtps2pd xmm1, xmm1

; 245  : 				vMove = fMoveSpeed * vDir;
; 246  : 
; 247  : 				Translate( vMove );

  005da	8b 03		 mov	 eax, DWORD PTR [ebx]
  005dc	0f 5a c0	 cvtps2pd xmm0, xmm0
  005df	f2 0f 59 c1	 mulsd	 xmm0, xmm1
  005e3	f3 0f 10 4d f0	 movss	 xmm1, DWORD PTR _vDir$661469[ebp]
  005e8	0f 5a c9	 cvtps2pd xmm1, xmm1
  005eb	66 0f 5a c0	 cvtpd2ps xmm0, xmm0
  005ef	0f 57 d2	 xorps	 xmm2, xmm2
  005f2	f3 0f 5a d0	 cvtss2sd xmm2, xmm0
  005f6	f2 0f 59 ca	 mulsd	 xmm1, xmm2
  005fa	66 0f 5a c9	 cvtpd2ps xmm1, xmm1
  005fe	f3 0f 11 8d 68
	ff ff ff	 movss	 DWORD PTR $T661478[ebp], xmm1
  00606	f3 0f 10 4d f4	 movss	 xmm1, DWORD PTR _vDir$661469[ebp+4]
  0060b	0f 5a c9	 cvtps2pd xmm1, xmm1
  0060e	0f 57 d2	 xorps	 xmm2, xmm2
  00611	f3 0f 5a d0	 cvtss2sd xmm2, xmm0
  00615	f2 0f 59 ca	 mulsd	 xmm1, xmm2
  00619	66 0f 5a c9	 cvtpd2ps xmm1, xmm1
  0061d	f3 0f 11 8d 6c
	ff ff ff	 movss	 DWORD PTR $T661478[ebp+4], xmm1
  00625	f3 0f 10 4d f8	 movss	 xmm1, DWORD PTR _vDir$661469[ebp+8]
  0062a	f3 0f 5a c0	 cvtss2sd xmm0, xmm0
  0062e	0f 5a c9	 cvtps2pd xmm1, xmm1
  00631	f2 0f 59 c8	 mulsd	 xmm1, xmm0
  00635	8d b5 68 ff ff
	ff		 lea	 esi, DWORD PTR $T661478[ebp]
  0063b	8d 7d 9c	 lea	 edi, DWORD PTR _vMove$661476[ebp]
  0063e	8d 4d 9c	 lea	 ecx, DWORD PTR _vMove$661476[ebp]
  00641	66 0f 5a c1	 cvtpd2ps xmm0, xmm1
  00645	f3 0f 11 85 70
	ff ff ff	 movss	 DWORD PTR $T661478[ebp+8], xmm0
  0064d	a5		 movsd
  0064e	a5		 movsd
  0064f	51		 push	 ecx
  00650	8b cb		 mov	 ecx, ebx
  00652	a5		 movsd
  00653	ff 50 50	 call	 DWORD PTR [eax+80]

; 248  : 			}			
; 249  : 		}
; 250  : 		return;

  00656	e9 64 02 00 00	 jmp	 $LN141@ProcessPos
$LN22@ProcessPos:

; 189  : 	case MHS_FLYING1:
; 190  : 	case MHS_FLYING2:
; 191  : 		{
; 192  : 			bool bEnd = false;
; 193  : 			D3DXVECTOR3 vMove;
; 194  : 			float fMoveSpeed = m_fShichikapuMoveSpeed * fTimePerSec;

  0065b	8d 45 94	 lea	 eax, DWORD PTR _value$676671[ebp]
  0065e	50		 push	 eax
  0065f	8d 8b f0 14 00
	00		 lea	 ecx, DWORD PTR [ebx+5360]
  00665	c6 45 93 00	 mov	 BYTE PTR _bEnd$661456[ebp], 0
  00669	e8 00 00 00 00	 call	 ?DecryptValueToPool@?$CEncrypt@M@@QAEXPAM@Z ; CEncrypt<float>::DecryptValueToPool
  0066e	f3 0f 10 4d 08	 movss	 xmm1, DWORD PTR _fTimePerSec$[ebp]
  00673	f3 0f 10 45 94	 movss	 xmm0, DWORD PTR _value$676671[ebp]

; 195  : 
; 196  : 			if( m_fShichikapuMoveCurRange+fMoveSpeed < m_fShichikapuMoveMaxRange )

  00678	f3 0f 10 9b fc
	15 00 00	 movss	 xmm3, DWORD PTR [ebx+5628]
  00680	0f 5a c9	 cvtps2pd xmm1, xmm1
  00683	0f 5a c0	 cvtps2pd xmm0, xmm0
  00686	f2 0f 59 c1	 mulsd	 xmm0, xmm1
  0068a	0f 57 d2	 xorps	 xmm2, xmm2
  0068d	66 0f 5a d0	 cvtpd2ps xmm2, xmm0
  00691	0f 57 c0	 xorps	 xmm0, xmm0
  00694	0f 5a ca	 cvtps2pd xmm1, xmm2
  00697	0f 5a c3	 cvtps2pd xmm0, xmm3
  0069a	f2 0f 58 c1	 addsd	 xmm0, xmm1
  0069e	f3 0f 10 8b f8
	15 00 00	 movss	 xmm1, DWORD PTR [ebx+5624]
  006a6	0f 5a e1	 cvtps2pd xmm4, xmm1
  006a9	66 0f 2f e0	 comisd	 xmm4, xmm0
  006ad	76 0e		 jbe	 SHORT $LN21@ProcessPos

; 197  : 			{
; 198  : 				m_fShichikapuMoveCurRange += fMoveSpeed;

  006af	66 0f 5a c0	 cvtpd2ps xmm0, xmm0
  006b3	f3 0f 11 83 fc
	15 00 00	 movss	 DWORD PTR [ebx+5628], xmm0

; 199  : 			}
; 200  : 			else

  006bb	eb 20		 jmp	 SHORT $LN20@ProcessPos
$LN21@ProcessPos:

; 201  : 			{
; 202  : 				fMoveSpeed = m_fShichikapuMoveMaxRange - m_fShichikapuMoveCurRange;

  006bd	0f 57 c0	 xorps	 xmm0, xmm0
  006c0	0f 5a d3	 cvtps2pd xmm2, xmm3
  006c3	0f 5a c1	 cvtps2pd xmm0, xmm1
  006c6	f2 0f 5c c2	 subsd	 xmm0, xmm2
  006ca	0f 57 d2	 xorps	 xmm2, xmm2
  006cd	66 0f 5a d0	 cvtpd2ps xmm2, xmm0

; 203  : 				m_fShichikapuMoveCurRange = m_fShichikapuMoveMaxRange;

  006d1	f3 0f 11 8b fc
	15 00 00	 movss	 DWORD PTR [ebx+5628], xmm1

; 204  : 				bEnd = true;

  006d9	c6 45 93 01	 mov	 BYTE PTR _bEnd$661456[ebp], 1
$LN20@ProcessPos:

; 205  : 			}
; 206  : 
; 207  : 			vMove = fMoveSpeed * m_vShichikapuMoveDir;

  006dd	f3 0f 10 83 ec
	15 00 00	 movss	 xmm0, DWORD PTR [ebx+5612]
  006e5	0f 5a c0	 cvtps2pd xmm0, xmm0

; 208  : 			Translate( vMove );

  006e8	8b 03		 mov	 eax, DWORD PTR [ebx]
  006ea	0f 5a ca	 cvtps2pd xmm1, xmm2
  006ed	f2 0f 59 c1	 mulsd	 xmm0, xmm1
  006f1	66 0f 5a c0	 cvtpd2ps xmm0, xmm0
  006f5	f3 0f 11 85 68
	ff ff ff	 movss	 DWORD PTR $T661461[ebp], xmm0
  006fd	f3 0f 10 83 f0
	15 00 00	 movss	 xmm0, DWORD PTR [ebx+5616]
  00705	0f 5a c0	 cvtps2pd xmm0, xmm0
  00708	0f 5a ca	 cvtps2pd xmm1, xmm2
  0070b	f2 0f 59 c1	 mulsd	 xmm0, xmm1
  0070f	66 0f 5a c0	 cvtpd2ps xmm0, xmm0
  00713	f3 0f 11 85 6c
	ff ff ff	 movss	 DWORD PTR $T661461[ebp+4], xmm0
  0071b	f3 0f 10 83 f4
	15 00 00	 movss	 xmm0, DWORD PTR [ebx+5620]
  00723	0f 5a c0	 cvtps2pd xmm0, xmm0
  00726	0f 5a ca	 cvtps2pd xmm1, xmm2
  00729	f2 0f 59 c1	 mulsd	 xmm0, xmm1
  0072d	66 0f 5a c0	 cvtpd2ps xmm0, xmm0
  00731	f3 0f 11 85 70
	ff ff ff	 movss	 DWORD PTR $T661461[ebp+8], xmm0
  00739	8d b5 68 ff ff
	ff		 lea	 esi, DWORD PTR $T661461[ebp]
  0073f	8d 7d 9c	 lea	 edi, DWORD PTR _vMove$661457[ebp]
  00742	a5		 movsd
  00743	a5		 movsd
  00744	8d 4d 9c	 lea	 ecx, DWORD PTR _vMove$661457[ebp]
  00747	51		 push	 ecx
  00748	8b cb		 mov	 ecx, ebx
  0074a	a5		 movsd
  0074b	ff 50 50	 call	 DWORD PTR [eax+80]

; 209  : 
; 210  : 			if( bEnd )

  0074e	80 7d 93 00	 cmp	 BYTE PTR _bEnd$661456[ebp], 0
  00752	0f 84 67 01 00
	00		 je	 $LN141@ProcessPos

; 211  : 			{
; 212  : 				SetShichikapuReturn();

  00758	8b cb		 mov	 ecx, ebx
  0075a	e8 00 00 00 00	 call	 ?SetShichikapuReturn@ioMamaHahaDummy@@IAEXXZ ; ioMamaHahaDummy::SetShichikapuReturn

; 213  : 			}
; 214  : 		}
; 215  : 		return;

  0075f	e9 5b 01 00 00	 jmp	 $LN141@ProcessPos
$LN23@ProcessPos:

; 179  : 	{
; 180  : 	case MHS_OWNER_ATTACH:
; 181  : 		{
; 182  : 			D3DXVECTOR3 vNewOffSet = pOwner->GetTargetRot() * m_vMamaHahaOwnerAttachOffSet;

  00764	8d 83 90 14 00
	00		 lea	 eax, DWORD PTR [ebx+5264]
  0076a	50		 push	 eax
  0076b	8d be a4 06 00
	00		 lea	 edi, DWORD PTR [esi+1700]
  00771	8d 45 cc	 lea	 eax, DWORD PTR _vNewOffSet$661450[ebp]
  00774	57		 push	 edi
  00775	50		 push	 eax
  00776	ff 15 00 00 00
	00		 call	 DWORD PTR __imp_??D@YA?AUD3DXVECTOR3@@ABUD3DXQUATERNION@@ABU0@@Z
  0077c	83 c4 0c	 add	 esp, 12			; 0000000cH

; 183  : 			D3DXVECTOR3 vNewPos = pOwner->GetMidPositionByRate() + vNewOffSet;

  0077f	b8 05 00 00 00	 mov	 eax, 5
  00784	8b c8		 mov	 ecx, eax
  00786	b8 0a 00 00 00	 mov	 eax, 10			; 0000000aH
  0078b	89 4d 94	 mov	 DWORD PTR tv1353[ebp], ecx
  0078e	db 45 94	 fild	 DWORD PTR tv1353[ebp]
  00791	85 c9		 test	 ecx, ecx
  00793	79 06		 jns	 SHORT $LN149@ProcessPos
  00795	d8 05 00 00 00
	00		 fadd	 DWORD PTR __real@4f800000
$LN149@ProcessPos:
  0079b	89 45 94	 mov	 DWORD PTR tv1349[ebp], eax
  0079e	db 45 94	 fild	 DWORD PTR tv1349[ebp]
  007a1	85 c0		 test	 eax, eax
  007a3	79 06		 jns	 SHORT $LN150@ProcessPos
  007a5	d8 05 00 00 00
	00		 fadd	 DWORD PTR __real@4f800000
$LN150@ProcessPos:
  007ab	de f9		 fdivp	 ST(1), ST(0)
  007ad	51		 push	 ecx
  007ae	8d 45 b4	 lea	 eax, DWORD PTR $T661453[ebp]
  007b1	8b ce		 mov	 ecx, esi
  007b3	d9 5d 94	 fstp	 DWORD PTR tv1345[ebp]
  007b6	d9 45 94	 fld	 DWORD PTR tv1345[ebp]
  007b9	d9 1c 24	 fstp	 DWORD PTR [esp]
  007bc	50		 push	 eax
  007bd	e8 00 00 00 00	 call	 ?GetMidPositionByRate@ioGameEntity@@QBE?AUD3DXVECTOR3@@M@Z ; ioGameEntity::GetMidPositionByRate
  007c2	f3 0f 10 40 04	 movss	 xmm0, DWORD PTR [eax+4]
  007c7	f3 0f 10 4d d0	 movss	 xmm1, DWORD PTR _vNewOffSet$661450[ebp+4]
  007cc	f3 0f 10 55 d4	 movss	 xmm2, DWORD PTR _vNewOffSet$661450[ebp+8]
  007d1	f3 0f 10 5d cc	 movss	 xmm3, DWORD PTR _vNewOffSet$661450[ebp]
  007d6	0f 5a c9	 cvtps2pd xmm1, xmm1
  007d9	0f 5a c0	 cvtps2pd xmm0, xmm0
  007dc	f2 0f 58 c1	 addsd	 xmm0, xmm1
  007e0	f3 0f 10 48 08	 movss	 xmm1, DWORD PTR [eax+8]
  007e5	0f 5a d2	 cvtps2pd xmm2, xmm2
  007e8	0f 5a c9	 cvtps2pd xmm1, xmm1
  007eb	f2 0f 58 ca	 addsd	 xmm1, xmm2
  007ef	f3 0f 10 10	 movss	 xmm2, DWORD PTR [eax]

; 184  : 
; 185  : 			SetWorldPosition( vNewPos );
; 186  : 			SetWorldOrientation( pOwner->GetTargetRot() );
; 187  : 		}
; 188  : 		return;

  007f3	e9 8f 00 00 00	 jmp	 $LN154@ProcessPos
$LN28@ProcessPos:

; 159  : 	{
; 160  : 	case DCS_START:
; 161  : 	case DCS_DELAY:
; 162  : 	case DCS_MOVE:
; 163  : 		{
; 164  : 			D3DXVECTOR3 vNewOffSet = pOwner->GetTargetRot() * m_vMamaHahaBaseOffSet;

  007f8	8d 83 84 14 00
	00		 lea	 eax, DWORD PTR [ebx+5252]
  007fe	50		 push	 eax
  007ff	8d be a4 06 00
	00		 lea	 edi, DWORD PTR [esi+1700]
  00805	8d 45 cc	 lea	 eax, DWORD PTR _vNewOffSet$661438[ebp]
  00808	57		 push	 edi
  00809	50		 push	 eax
  0080a	ff 15 00 00 00
	00		 call	 DWORD PTR __imp_??D@YA?AUD3DXVECTOR3@@ABUD3DXQUATERNION@@ABU0@@Z
  00810	83 c4 0c	 add	 esp, 12			; 0000000cH

; 165  : 			D3DXVECTOR3 vNewPos = pOwner->GetMidPositionByRate() + vNewOffSet;

  00813	b8 05 00 00 00	 mov	 eax, 5
  00818	8b c8		 mov	 ecx, eax
  0081a	b8 0a 00 00 00	 mov	 eax, 10			; 0000000aH
  0081f	89 4d 94	 mov	 DWORD PTR tv1326[ebp], ecx
  00822	db 45 94	 fild	 DWORD PTR tv1326[ebp]
  00825	85 c9		 test	 ecx, ecx
  00827	79 06		 jns	 SHORT $LN151@ProcessPos
  00829	d8 05 00 00 00
	00		 fadd	 DWORD PTR __real@4f800000
$LN151@ProcessPos:
  0082f	89 45 94	 mov	 DWORD PTR tv1322[ebp], eax
  00832	db 45 94	 fild	 DWORD PTR tv1322[ebp]
  00835	85 c0		 test	 eax, eax
  00837	79 06		 jns	 SHORT $LN152@ProcessPos
  00839	d8 05 00 00 00
	00		 fadd	 DWORD PTR __real@4f800000
$LN152@ProcessPos:
  0083f	de f9		 fdivp	 ST(1), ST(0)
  00841	51		 push	 ecx
  00842	8d 45 d8	 lea	 eax, DWORD PTR $T661441[ebp]
  00845	8b ce		 mov	 ecx, esi
  00847	d9 5d 94	 fstp	 DWORD PTR tv1318[ebp]
  0084a	d9 45 94	 fld	 DWORD PTR tv1318[ebp]
  0084d	d9 1c 24	 fstp	 DWORD PTR [esp]
  00850	50		 push	 eax
  00851	e8 00 00 00 00	 call	 ?GetMidPositionByRate@ioGameEntity@@QBE?AUD3DXVECTOR3@@M@Z ; ioGameEntity::GetMidPositionByRate
  00856	f3 0f 10 40 04	 movss	 xmm0, DWORD PTR [eax+4]
  0085b	f3 0f 10 4d d0	 movss	 xmm1, DWORD PTR _vNewOffSet$661438[ebp+4]
  00860	f3 0f 10 55 d4	 movss	 xmm2, DWORD PTR _vNewOffSet$661438[ebp+8]
  00865	f3 0f 10 18	 movss	 xmm3, DWORD PTR [eax]
  00869	0f 5a c9	 cvtps2pd xmm1, xmm1
  0086c	0f 5a c0	 cvtps2pd xmm0, xmm0
  0086f	f2 0f 58 c1	 addsd	 xmm0, xmm1
  00873	f3 0f 10 48 08	 movss	 xmm1, DWORD PTR [eax+8]
  00878	0f 5a d2	 cvtps2pd xmm2, xmm2
  0087b	0f 5a c9	 cvtps2pd xmm1, xmm1
  0087e	f2 0f 58 ca	 addsd	 xmm1, xmm2
  00882	f3 0f 10 55 cc	 movss	 xmm2, DWORD PTR _vNewOffSet$661438[ebp]
$LN154@ProcessPos:

; 166  : 
; 167  : 			SetWorldPosition( vNewPos );

  00887	8b 03		 mov	 eax, DWORD PTR [ebx]
  00889	0f 5a d2	 cvtps2pd xmm2, xmm2
  0088c	8d 4d f0	 lea	 ecx, DWORD PTR _vNewPos$661440[ebp]
  0088f	0f 5a db	 cvtps2pd xmm3, xmm3
  00892	f2 0f 58 d3	 addsd	 xmm2, xmm3
  00896	51		 push	 ecx
  00897	66 0f 5a d2	 cvtpd2ps xmm2, xmm2
  0089b	66 0f 5a c0	 cvtpd2ps xmm0, xmm0
  0089f	66 0f 5a c9	 cvtpd2ps xmm1, xmm1
  008a3	8b cb		 mov	 ecx, ebx
  008a5	f3 0f 11 55 f0	 movss	 DWORD PTR _vNewPos$661440[ebp], xmm2
  008aa	f3 0f 11 45 f4	 movss	 DWORD PTR _vNewPos$661440[ebp+4], xmm0
  008af	f3 0f 11 4d f8	 movss	 DWORD PTR _vNewPos$661440[ebp+8], xmm1
  008b4	ff 50 44	 call	 DWORD PTR [eax+68]

; 168  : 			SetWorldOrientation( pOwner->GetTargetRot() );

  008b7	57		 push	 edi
$LN153@ProcessPos:
  008b8	8b 03		 mov	 eax, DWORD PTR [ebx]
  008ba	8b cb		 mov	 ecx, ebx
  008bc	ff 50 48	 call	 DWORD PTR [eax+72]
$LN141@ProcessPos:
  008bf	5f		 pop	 edi
$LN26@ProcessPos:

; 325  : }

  008c0	8b 4d fc	 mov	 ecx, DWORD PTR __$ArrayPad$[ebp]
  008c3	5e		 pop	 esi
  008c4	33 cd		 xor	 ecx, ebp
  008c6	5b		 pop	 ebx
  008c7	e8 00 00 00 00	 call	 @__security_check_cookie@4
  008cc	c9		 leave
  008cd	c2 04 00	 ret	 4
?ProcessPos@ioMamaHahaDummy@@MAEXM@Z ENDP		; ioMamaHahaDummy::ProcessPos
_TEXT	ENDS
PUBLIC	?ProcessEnemyAttachState@ioMamaHahaDummy@@IAEXM@Z ; ioMamaHahaDummy::ProcessEnemyAttachState
EXTRN	?HasBuff@ioBaseChar@@QBE_NABVioHashString@@@Z:PROC ; ioBaseChar::HasBuff
EXTRN	__imp_?IsEmpty@ioHashString@@QBE_NXZ:PROC
; Function compile flags: /Ogsp
;	COMDAT ?ProcessEnemyAttachState@ioMamaHahaDummy@@IAEXM@Z
_TEXT	SEGMENT
_fTimePerSec$ = 8					; size = 4
?ProcessEnemyAttachState@ioMamaHahaDummy@@IAEXM@Z PROC	; ioMamaHahaDummy::ProcessEnemyAttachState, COMDAT
; _this$ = ecx

; 389  : {

  00000	56		 push	 esi
  00001	57		 push	 edi
  00002	8b f1		 mov	 esi, ecx

; 390  : 	ioBaseChar *pOwner = GetOwner();

  00004	e8 00 00 00 00	 call	 ?GetOwner@ioDummyChar@@QBEPAVioBaseChar@@XZ ; ioDummyChar::GetOwner
  00009	8b f8		 mov	 edi, eax

; 391  : 	if( !pOwner ) return;

  0000b	85 ff		 test	 edi, edi
  0000d	74 39		 je	 SHORT $LN2@ProcessEne

; 392  : 
; 393  : 	if( m_MamaHahaEnemyAttachBuff.IsEmpty() )

  0000f	53		 push	 ebx
  00010	8d 9e c4 14 00
	00		 lea	 ebx, DWORD PTR [esi+5316]
  00016	8b cb		 mov	 ecx, ebx
  00018	ff 15 00 00 00
	00		 call	 DWORD PTR __imp_?IsEmpty@ioHashString@@QBE_NXZ
  0001e	84 c0		 test	 al, al

; 394  : 	{
; 395  : 		SetShichikapuReturn();
; 396  : 		return;

  00020	75 1e		 jne	 SHORT $LN1@ProcessEne

; 397  : 	}
; 398  : 
; 399  : 	ioBaseChar *pTarget = pOwner->GetBaseChar( m_MamaHahaTargetName );

  00022	8d 86 d4 14 00
	00		 lea	 eax, DWORD PTR [esi+5332]
  00028	50		 push	 eax
  00029	8b cf		 mov	 ecx, edi
  0002b	e8 00 00 00 00	 call	 ?GetBaseChar@ioBaseChar@@QAEPAV1@ABVioHashString@@@Z ; ioBaseChar::GetBaseChar

; 400  : 	if( !pTarget || !pTarget->HasBuff( m_MamaHahaEnemyAttachBuff ) )

  00030	85 c0		 test	 eax, eax
  00032	74 0c		 je	 SHORT $LN1@ProcessEne
  00034	53		 push	 ebx
  00035	8b c8		 mov	 ecx, eax
  00037	e8 00 00 00 00	 call	 ?HasBuff@ioBaseChar@@QBE_NABVioHashString@@@Z ; ioBaseChar::HasBuff
  0003c	84 c0		 test	 al, al
  0003e	75 07		 jne	 SHORT $LN7@ProcessEne
$LN1@ProcessEne:

; 401  : 	{
; 402  : 		SetShichikapuReturn();

  00040	8b ce		 mov	 ecx, esi
  00042	e8 00 00 00 00	 call	 ?SetShichikapuReturn@ioMamaHahaDummy@@IAEXXZ ; ioMamaHahaDummy::SetShichikapuReturn
$LN7@ProcessEne:
  00047	5b		 pop	 ebx
$LN2@ProcessEne:
  00048	5f		 pop	 edi
  00049	5e		 pop	 esi

; 403  : 		return;
; 404  : 	}
; 405  : }

  0004a	c2 04 00	 ret	 4
?ProcessEnemyAttachState@ioMamaHahaDummy@@IAEXM@Z ENDP	; ioMamaHahaDummy::ProcessEnemyAttachState
_TEXT	ENDS
EXTRN	?SetZoneValue@ioZoneEffectWeapon@@QAEX_N0@Z:PROC ; ioZoneEffectWeapon::SetZoneValue
EXTRN	?SetCollisionDir@ioZoneEffectWeapon@@QAEXAAUD3DXVECTOR3@@@Z:PROC ; ioZoneEffectWeapon::SetCollisionDir
EXTRN	?GetOwner@ioWeapon@@QBEPAVioBaseChar@@XZ:PROC	; ioWeapon::GetOwner
EXTRN	?SetPosition@ioWeapon@@QAEXABUD3DXVECTOR3@@@Z:PROC ; ioWeapon::SetPosition
EXTRN	?ExtendFireExplicit@ioBaseChar@@QAEPAVioWeapon@@ABUFireTime@@ABUD3DXVECTOR3@@1ABVioHashString@@@Z:PROC ; ioBaseChar::ExtendFireExplicit
;	COMDAT xdata$x
; File c:\program files (x86)\microsoft visual studio 10.0\vc\include\list
xdata$x	SEGMENT
__unwindtable$?ProcessAttackState@ioMamaHahaDummy@@MAEXMK@Z DD 0ffffffffH
	DD	FLAT:__unwindfunclet$?ProcessAttackState@ioMamaHahaDummy@@MAEXMK@Z$0
__ehfuncinfo$?ProcessAttackState@ioMamaHahaDummy@@MAEXMK@Z DD 019930522H
	DD	01H
	DD	FLAT:__unwindtable$?ProcessAttackState@ioMamaHahaDummy@@MAEXMK@Z
	DD	2 DUP(00H)
	DD	2 DUP(00H)
	DD	00H
	DD	01H
; Function compile flags: /Ogsp
; File d:\lost saga for developer\youtube\tutorial\source\src\lsclient\iomamahahadummy.cpp
xdata$x	ENDS
;	COMDAT ?ProcessAttackState@ioMamaHahaDummy@@MAEXMK@Z
_TEXT	SEGMENT
$T676863 = -108						; size = 16
$T676865 = -92						; size = 4
_pOwner$ = -88						; size = 4
_dwCurTime$ = -84					; size = 4
tv555 = -80						; size = 4
tv545 = -80						; size = 4
tv541 = -80						; size = 4
tv536 = -80						; size = 4
tv525 = -80						; size = 4
tv521 = -80						; size = 4
tv517 = -80						; size = 4
tv506 = -80						; size = 4
_vDir$663095 = -76					; size = 12
$T663090 = -64						; size = 12
$T663097 = -52						; size = 12
$T662920 = -52						; size = 12
_vCurPos$ = -40						; size = 12
_vCurDir$ = -28						; size = 12
__$EHRec$ = -12						; size = 12
_fTimePerSec$ = 8					; size = 4
_dwPreTime$ = 12					; size = 4
?ProcessAttackState@ioMamaHahaDummy@@MAEXMK@Z PROC	; ioMamaHahaDummy::ProcessAttackState, COMDAT
; _this$ = ecx

; 1215 : {

  00000	6a 60		 push	 96			; 00000060H
  00002	b8 00 00 00 00	 mov	 eax, __ehhandler$?ProcessAttackState@ioMamaHahaDummy@@MAEXMK@Z
  00007	e8 00 00 00 00	 call	 __EH_prolog3_GS
  0000c	8b f1		 mov	 esi, ecx

; 1216 : 	ioBaseChar *pOwner = GetOwner();

  0000e	e8 00 00 00 00	 call	 ?GetOwner@ioDummyChar@@QBEPAVioBaseChar@@XZ ; ioDummyChar::GetOwner
  00013	89 45 a8	 mov	 DWORD PTR _pOwner$[ebp], eax

; 1217 : 	if( !pOwner ) return;

  00016	85 c0		 test	 eax, eax
  00018	0f 84 0d 02 00
	00		 je	 $LN5@ProcessAtt

; 1218 : 
; 1219 : 	DWORD dwCurTime = FRAMEGETTIME();

  0001e	ff 15 00 00 00
	00		 call	 DWORD PTR __imp_?GetSingleton@ioFrameTimer@@SAAAV1@XZ
  00024	8b c8		 mov	 ecx, eax
  00026	ff 15 00 00 00
	00		 call	 DWORD PTR __imp_?GetLoopSec@ioFrameTimer@@QBEKXZ
  0002c	89 45 ac	 mov	 DWORD PTR _dwCurTime$[ebp], eax

; 1220 : 
; 1221 : 	D3DXVECTOR3 vCurDir = GetWorldOrientation() * D3DXVECTOR3( 0.0f, 0.0f, -FLOAT1 );

  0002f	b8 01 00 00 00	 mov	 eax, 1
  00034	0f 57 c0	 xorps	 xmm0, xmm0
  00037	89 45 b0	 mov	 DWORD PTR tv555[ebp], eax
  0003a	db 45 b0	 fild	 DWORD PTR tv555[ebp]
  0003d	f3 0f 11 45 cc	 movss	 DWORD PTR $T662920[ebp], xmm0
  00042	f3 0f 11 45 d0	 movss	 DWORD PTR $T662920[ebp+4], xmm0
  00047	85 c0		 test	 eax, eax
  00049	79 06		 jns	 SHORT $LN75@ProcessAtt
  0004b	d8 05 00 00 00
	00		 fadd	 DWORD PTR __real@4f800000
$LN75@ProcessAtt:
  00051	8d 45 cc	 lea	 eax, DWORD PTR $T662920[ebp]
  00054	d9 e0		 fchs
  00056	50		 push	 eax
  00057	d9 5d d4	 fstp	 DWORD PTR $T662920[ebp+8]
  0005a	8b 06		 mov	 eax, DWORD PTR [esi]
  0005c	8b ce		 mov	 ecx, esi
  0005e	ff 50 74	 call	 DWORD PTR [eax+116]
  00061	50		 push	 eax
  00062	8d 45 e4	 lea	 eax, DWORD PTR _vCurDir$[ebp]
  00065	50		 push	 eax
  00066	ff 15 00 00 00
	00		 call	 DWORD PTR __imp_??D@YA?AUD3DXVECTOR3@@ABUD3DXQUATERNION@@ABU0@@Z
  0006c	83 c4 0c	 add	 esp, 12			; 0000000cH

; 1222 : 	D3DXVec3Normalize( &vCurDir, &vCurDir );

  0006f	8d 45 e4	 lea	 eax, DWORD PTR _vCurDir$[ebp]
  00072	50		 push	 eax
  00073	50		 push	 eax
  00074	e8 00 00 00 00	 call	 _D3DXVec3Normalize@8

; 1223 : 
; 1224 : 	D3DXVECTOR3 vCurPos = GetMidPositionByRate();

  00079	b8 05 00 00 00	 mov	 eax, 5
  0007e	8b c8		 mov	 ecx, eax
  00080	b8 0a 00 00 00	 mov	 eax, 10			; 0000000aH
  00085	89 4d b0	 mov	 DWORD PTR tv545[ebp], ecx
  00088	db 45 b0	 fild	 DWORD PTR tv545[ebp]
  0008b	85 c9		 test	 ecx, ecx
  0008d	79 06		 jns	 SHORT $LN76@ProcessAtt
  0008f	d8 05 00 00 00
	00		 fadd	 DWORD PTR __real@4f800000
$LN76@ProcessAtt:
  00095	89 45 b0	 mov	 DWORD PTR tv541[ebp], eax
  00098	db 45 b0	 fild	 DWORD PTR tv541[ebp]
  0009b	85 c0		 test	 eax, eax
  0009d	79 06		 jns	 SHORT $LN77@ProcessAtt
  0009f	d8 05 00 00 00
	00		 fadd	 DWORD PTR __real@4f800000
$LN77@ProcessAtt:
  000a5	de f9		 fdivp	 ST(1), ST(0)
  000a7	51		 push	 ecx
  000a8	8d 45 d8	 lea	 eax, DWORD PTR _vCurPos$[ebp]
  000ab	8b ce		 mov	 ecx, esi
  000ad	d9 5d b0	 fstp	 DWORD PTR tv536[ebp]
  000b0	d9 45 b0	 fld	 DWORD PTR tv536[ebp]
  000b3	d9 1c 24	 fstp	 DWORD PTR [esp]
  000b6	50		 push	 eax
  000b7	e8 00 00 00 00	 call	 ?GetMidPositionByRate@ioGameEntity@@QBE?AUD3DXVECTOR3@@M@Z ; ioGameEntity::GetMidPositionByRate

; 1225 : 
; 1226 : 	DWORD dwLastFireTime = dwPreTime;
; 1227 : 	FireTimeList::iterator iter = m_vAttackFireTimeList.begin();

  000bc	8b 86 78 05 00
	00		 mov	 eax, DWORD PTR [esi+1400]
  000c2	8b 38		 mov	 edi, DWORD PTR [eax]

; 1228 : 	while( iter != m_vAttackFireTimeList.end() )

  000c4	3b f8		 cmp	 edi, eax
  000c6	0f 84 3a 01 00
	00		 je	 $LN13@ProcessAtt
$LL14@ProcessAtt:

; 1229 : 	{
; 1230 : 		const FireTime &rkFire = *iter;

  000cc	8d 5f 08	 lea	 ebx, DWORD PTR [edi+8]

; 1231 : 
; 1232 : 		DWORD dwFireTime = rkFire.dwStart;

  000cf	8b 03		 mov	 eax, DWORD PTR [ebx]

; 1233 : 		if( COMPARE( dwFireTime, dwPreTime, dwCurTime ) )

  000d1	3b 45 0c	 cmp	 eax, DWORD PTR _dwPreTime$[ebp]
  000d4	0f 82 1e 01 00
	00		 jb	 $LN12@ProcessAtt
  000da	3b 45 ac	 cmp	 eax, DWORD PTR _dwCurTime$[ebp]
  000dd	0f 83 15 01 00
	00		 jae	 $LN12@ProcessAtt

; 1234 : 		{
; 1235 : 			if( rkFire.iAttributeIdx != NO_WEAPON_ATTRIBUTE )

  000e3	83 7b 08 00	 cmp	 DWORD PTR [ebx+8], 0
  000e7	0f 84 f7 00 00
	00		 je	 $LN8@ProcessAtt

; 1236 : 			{
; 1237 : 				ioWeapon *pWeapon = pOwner->ExtendFireExplicit( rkFire, vCurPos, vCurDir, "" );

  000ed	68 00 00 00 00	 push	 OFFSET ??_C@_00CNPNBAHC@?$AA@
  000f2	8d 4d 94	 lea	 ecx, DWORD PTR $T676863[ebp]
  000f5	ff 15 00 00 00
	00		 call	 DWORD PTR __imp_??0ioHashString@@QAE@PBD@Z
  000fb	8b 4d a8	 mov	 ecx, DWORD PTR _pOwner$[ebp]
  000fe	83 65 fc 00	 and	 DWORD PTR __$EHRec$[ebp+8], 0
  00102	8d 45 94	 lea	 eax, DWORD PTR $T676863[ebp]
  00105	50		 push	 eax
  00106	8d 45 e4	 lea	 eax, DWORD PTR _vCurDir$[ebp]
  00109	50		 push	 eax
  0010a	8d 45 d8	 lea	 eax, DWORD PTR _vCurPos$[ebp]
  0010d	50		 push	 eax
  0010e	53		 push	 ebx
  0010f	e8 00 00 00 00	 call	 ?ExtendFireExplicit@ioBaseChar@@QAEPAVioWeapon@@ABUFireTime@@ABUD3DXVECTOR3@@1ABVioHashString@@@Z ; ioBaseChar::ExtendFireExplicit
  00114	83 4d fc ff	 or	 DWORD PTR __$EHRec$[ebp+8], -1
  00118	8d 4d 94	 lea	 ecx, DWORD PTR $T676863[ebp]
  0011b	8b d8		 mov	 ebx, eax
  0011d	ff 15 00 00 00
	00		 call	 DWORD PTR __imp_??1ioHashString@@QAE@XZ

; 1238 : 				if( pWeapon )

  00123	85 db		 test	 ebx, ebx
  00125	0f 84 b9 00 00
	00		 je	 $LN8@ProcessAtt

; 1239 : 				{
; 1240 : 					pWeapon->SetPosition( GetMidPositionByRate() );

  0012b	b8 05 00 00 00	 mov	 eax, 5
  00130	8b c8		 mov	 ecx, eax
  00132	b8 0a 00 00 00	 mov	 eax, 10			; 0000000aH
  00137	89 4d b0	 mov	 DWORD PTR tv525[ebp], ecx
  0013a	db 45 b0	 fild	 DWORD PTR tv525[ebp]
  0013d	85 c9		 test	 ecx, ecx
  0013f	79 06		 jns	 SHORT $LN78@ProcessAtt
  00141	d8 05 00 00 00
	00		 fadd	 DWORD PTR __real@4f800000
$LN78@ProcessAtt:
  00147	89 45 b0	 mov	 DWORD PTR tv521[ebp], eax
  0014a	db 45 b0	 fild	 DWORD PTR tv521[ebp]
  0014d	85 c0		 test	 eax, eax
  0014f	79 06		 jns	 SHORT $LN79@ProcessAtt
  00151	d8 05 00 00 00
	00		 fadd	 DWORD PTR __real@4f800000
$LN79@ProcessAtt:
  00157	de f9		 fdivp	 ST(1), ST(0)
  00159	51		 push	 ecx
  0015a	8d 45 c0	 lea	 eax, DWORD PTR $T663090[ebp]
  0015d	8b ce		 mov	 ecx, esi
  0015f	d9 5d b0	 fstp	 DWORD PTR tv517[ebp]
  00162	d9 45 b0	 fld	 DWORD PTR tv517[ebp]
  00165	d9 1c 24	 fstp	 DWORD PTR [esp]
  00168	50		 push	 eax
  00169	e8 00 00 00 00	 call	 ?GetMidPositionByRate@ioGameEntity@@QBE?AUD3DXVECTOR3@@M@Z ; ioGameEntity::GetMidPositionByRate
  0016e	50		 push	 eax
  0016f	8b cb		 mov	 ecx, ebx
  00171	e8 00 00 00 00	 call	 ?SetPosition@ioWeapon@@QAEXABUD3DXVECTOR3@@@Z ; ioWeapon::SetPosition

; 1241 : 
; 1242 : 					ioZoneEffectWeapon *pZone = ToZoneEffectWeapon( pWeapon );

  00176	53		 push	 ebx
  00177	e8 00 00 00 00	 call	 ?ToZoneEffectWeapon@@YAPAVioZoneEffectWeapon@@PAVioWeapon@@@Z ; ToZoneEffectWeapon
  0017c	8b d8		 mov	 ebx, eax
  0017e	59		 pop	 ecx

; 1243 : 					if( pZone )

  0017f	85 db		 test	 ebx, ebx
  00181	74 61		 je	 SHORT $LN8@ProcessAtt

; 1244 : 					{
; 1245 : 						ioBaseChar *pChar = pZone->GetOwner();

  00183	8b cb		 mov	 ecx, ebx
  00185	e8 00 00 00 00	 call	 ?GetOwner@ioWeapon@@QBEPAVioBaseChar@@XZ ; ioWeapon::GetOwner

; 1246 : 						if( pChar )

  0018a	85 c0		 test	 eax, eax
  0018c	74 56		 je	 SHORT $LN8@ProcessAtt

; 1247 : 						{
; 1248 : 							D3DXVECTOR3 vDir = GetWorldOrientation() * D3DXVECTOR3( 0.0f, 0.0f, -FLOAT1 );

  0018e	b8 01 00 00 00	 mov	 eax, 1
  00193	0f 57 c0	 xorps	 xmm0, xmm0
  00196	89 45 b0	 mov	 DWORD PTR tv506[ebp], eax
  00199	db 45 b0	 fild	 DWORD PTR tv506[ebp]
  0019c	f3 0f 11 45 cc	 movss	 DWORD PTR $T663097[ebp], xmm0
  001a1	f3 0f 11 45 d0	 movss	 DWORD PTR $T663097[ebp+4], xmm0
  001a6	85 c0		 test	 eax, eax
  001a8	79 06		 jns	 SHORT $LN80@ProcessAtt
  001aa	d8 05 00 00 00
	00		 fadd	 DWORD PTR __real@4f800000
$LN80@ProcessAtt:
  001b0	8d 45 cc	 lea	 eax, DWORD PTR $T663097[ebp]
  001b3	d9 e0		 fchs
  001b5	50		 push	 eax
  001b6	d9 5d d4	 fstp	 DWORD PTR $T663097[ebp+8]
  001b9	8b 06		 mov	 eax, DWORD PTR [esi]
  001bb	8b ce		 mov	 ecx, esi
  001bd	ff 50 74	 call	 DWORD PTR [eax+116]
  001c0	50		 push	 eax
  001c1	8d 45 b4	 lea	 eax, DWORD PTR _vDir$663095[ebp]
  001c4	50		 push	 eax
  001c5	ff 15 00 00 00
	00		 call	 DWORD PTR __imp_??D@YA?AUD3DXVECTOR3@@ABUD3DXQUATERNION@@ABU0@@Z
  001cb	83 c4 0c	 add	 esp, 12			; 0000000cH

; 1249 : 							pZone->SetCollisionDir( vDir );

  001ce	8d 45 b4	 lea	 eax, DWORD PTR _vDir$663095[ebp]
  001d1	50		 push	 eax
  001d2	8b cb		 mov	 ecx, ebx
  001d4	e8 00 00 00 00	 call	 ?SetCollisionDir@ioZoneEffectWeapon@@QAEXAAUD3DXVECTOR3@@@Z ; ioZoneEffectWeapon::SetCollisionDir

; 1250 : 							pZone->SetZoneValue( true, false );

  001d9	6a 00		 push	 0
  001db	6a 01		 push	 1
  001dd	8b cb		 mov	 ecx, ebx
  001df	e8 00 00 00 00	 call	 ?SetZoneValue@ioZoneEffectWeapon@@QAEX_N0@Z ; ioZoneEffectWeapon::SetZoneValue
$LN8@ProcessAtt:

; 1251 : 						}
; 1252 : 					}
; 1253 : 				}
; 1254 : 			}
; 1255 : 
; 1256 : 			iter = m_vAttackFireTimeList.erase( iter );

  001e4	57		 push	 edi
  001e5	8d 45 a4	 lea	 eax, DWORD PTR $T676865[ebp]
  001e8	50		 push	 eax
  001e9	8d 8e 78 05 00
	00		 lea	 ecx, DWORD PTR [esi+1400]
  001ef	e8 00 00 00 00	 call	 ?erase@?$list@UFireTime@@V?$allocator@UFireTime@@@std@@@std@@QAE?AV?$_List_iterator@V?$_List_val@UFireTime@@V?$allocator@UFireTime@@@std@@@std@@@2@V?$_List_const_iterator@V?$_List_val@UFireTime@@V?$allocator@UFireTime@@@std@@@std@@@2@@Z ; std::list<FireTime,std::allocator<FireTime> >::erase
  001f4	8b 38		 mov	 edi, DWORD PTR [eax]

; 1257 : 		}
; 1258 : 		else

  001f6	eb 02		 jmp	 SHORT $LN69@ProcessAtt
$LN12@ProcessAtt:

; 1259 : 		{
; 1260 : 			++iter;

  001f8	8b 3f		 mov	 edi, DWORD PTR [edi]
$LN69@ProcessAtt:

; 1228 : 	while( iter != m_vAttackFireTimeList.end() )

  001fa	3b be 78 05 00
	00		 cmp	 edi, DWORD PTR [esi+1400]
  00200	0f 85 c6 fe ff
	ff		 jne	 $LL14@ProcessAtt
$LN13@ProcessAtt:

; 1261 : 		}
; 1262 : 	}
; 1263 : 
; 1264 : 	//
; 1265 : 	switch( m_MamaHahaState )

  00206	8b 86 80 14 00
	00		 mov	 eax, DWORD PTR [esi+5248]
  0020c	48		 dec	 eax
  0020d	48		 dec	 eax
  0020e	75 1b		 jne	 SHORT $LN5@ProcessAtt

; 1266 : 	{
; 1267 : 	case MHS_OWNER_ATTACH:
; 1268 : 	case MHS_RETURN1:
; 1269 : 	case MHS_RETURN2:
; 1270 : 	case MHS_ENEMY_ATTACH:
; 1271 : 	case MHS_FLYING1:
; 1272 : 	case MHS_FLYING2:
; 1273 : 		break;
; 1274 : 	case MHS_FIRE_ATTACK:
; 1275 : 		if( m_dwAttackAniEndTime == 0 || m_dwAttackAniEndTime < dwCurTime )

  00210	8b 86 e8 06 00
	00		 mov	 eax, DWORD PTR [esi+1768]
  00216	85 c0		 test	 eax, eax
  00218	74 05		 je	 SHORT $LN1@ProcessAtt
  0021a	3b 45 ac	 cmp	 eax, DWORD PTR _dwCurTime$[ebp]
  0021d	73 0c		 jae	 SHORT $LN5@ProcessAtt
$LN1@ProcessAtt:

; 1276 : 		{
; 1277 : 			SetDelayState( false );

  0021f	8b 06		 mov	 eax, DWORD PTR [esi]
  00221	6a 00		 push	 0
  00223	8b ce		 mov	 ecx, esi
  00225	ff 90 14 01 00
	00		 call	 DWORD PTR [eax+276]
$LN5@ProcessAtt:

; 1278 : 			return;
; 1279 : 		}
; 1280 : 		break;
; 1281 : 	}
; 1282 : }

  0022b	e8 00 00 00 00	 call	 __EH_epilog3_GS
  00230	c2 08 00	 ret	 8
_TEXT	ENDS
;	COMDAT text$x
text$x	SEGMENT
__unwindfunclet$?ProcessAttackState@ioMamaHahaDummy@@MAEXMK@Z$0:
  00000	8d 4d 94	 lea	 ecx, DWORD PTR $T676863[ebp]
  00003	ff 25 00 00 00
	00		 jmp	 DWORD PTR __imp_??1ioHashString@@QAE@XZ
__ehhandler$?ProcessAttackState@ioMamaHahaDummy@@MAEXMK@Z:
  00009	8b 54 24 08	 mov	 edx, DWORD PTR [esp+8]
  0000d	8d 42 0c	 lea	 eax, DWORD PTR [edx+12]
  00010	8b 4a 90	 mov	 ecx, DWORD PTR [edx-112]
  00013	33 c8		 xor	 ecx, eax
  00015	e8 00 00 00 00	 call	 @__security_check_cookie@4
  0001a	8b 4a fc	 mov	 ecx, DWORD PTR [edx-4]
  0001d	33 c8		 xor	 ecx, eax
  0001f	e8 00 00 00 00	 call	 @__security_check_cookie@4
  00024	b8 00 00 00 00	 mov	 eax, OFFSET __ehfuncinfo$?ProcessAttackState@ioMamaHahaDummy@@MAEXMK@Z
  00029	e9 00 00 00 00	 jmp	 ___CxxFrameHandler3
text$x	ENDS
?ProcessAttackState@ioMamaHahaDummy@@MAEXMK@Z ENDP	; ioMamaHahaDummy::ProcessAttackState
PUBLIC	?push_back@?$list@UFireTime@@V?$allocator@UFireTime@@@std@@@std@@QAEXABUFireTime@@@Z ; std::list<FireTime,std::allocator<FireTime> >::push_back
; Function compile flags: /Ogsp
; File c:\program files (x86)\microsoft visual studio 10.0\vc\include\list
;	COMDAT ?push_back@?$list@UFireTime@@V?$allocator@UFireTime@@@std@@@std@@QAEXABUFireTime@@@Z
_TEXT	SEGMENT
__Val$ = 8						; size = 4
?push_back@?$list@UFireTime@@V?$allocator@UFireTime@@@std@@@std@@QAEXABUFireTime@@@Z PROC ; std::list<FireTime,std::allocator<FireTime> >::push_back, COMDAT
; _this$ = ecx

; 926  : 		{	// insert element at end

  00000	55		 push	 ebp
  00001	8b ec		 mov	 ebp, esp

; 927  : 		_Insert(end(), _Val);

  00003	ff 75 08	 push	 DWORD PTR __Val$[ebp]
  00006	8b 01		 mov	 eax, DWORD PTR [ecx]
  00008	50		 push	 eax
  00009	e8 00 00 00 00	 call	 ?_Insert@?$list@UFireTime@@V?$allocator@UFireTime@@@std@@@std@@QAEXV?$_List_const_iterator@V?$_List_val@UFireTime@@V?$allocator@UFireTime@@@std@@@std@@@2@ABUFireTime@@@Z ; std::list<FireTime,std::allocator<FireTime> >::_Insert

; 928  : 		}

  0000e	5d		 pop	 ebp
  0000f	c2 04 00	 ret	 4
?push_back@?$list@UFireTime@@V?$allocator@UFireTime@@@std@@@std@@QAEXABUFireTime@@@Z ENDP ; std::list<FireTime,std::allocator<FireTime> >::push_back
_TEXT	ENDS
PUBLIC	?erase@?$vector@UExtraAniJump@@V?$allocator@UExtraAniJump@@@std@@@std@@QAE?AV?$_Vector_iterator@V?$_Vector_val@UExtraAniJump@@V?$allocator@UExtraAniJump@@@std@@@std@@@2@V?$_Vector_const_iterator@V?$_Vector_val@UExtraAniJump@@V?$allocator@UExtraAniJump@@@std@@@std@@@2@0@Z ; std::vector<ExtraAniJump,std::allocator<ExtraAniJump> >::erase
; Function compile flags: /Ogsp
; File c:\program files (x86)\microsoft visual studio 10.0\vc\include\vector
;	COMDAT ?erase@?$vector@UExtraAniJump@@V?$allocator@UExtraAniJump@@@std@@@std@@QAE?AV?$_Vector_iterator@V?$_Vector_val@UExtraAniJump@@V?$allocator@UExtraAniJump@@@std@@@std@@@2@V?$_Vector_const_iterator@V?$_Vector_val@UExtraAniJump@@V?$allocator@UExtraAniJump@@@std@@@std@@@2@0@Z
_TEXT	SEGMENT
___$ReturnUdt$ = 8					; size = 4
__First_arg$ = 12					; size = 4
__Cat$677142 = 16					; size = 1
__Last_arg$ = 16					; size = 4
?erase@?$vector@UExtraAniJump@@V?$allocator@UExtraAniJump@@@std@@@std@@QAE?AV?$_Vector_iterator@V?$_Vector_val@UExtraAniJump@@V?$allocator@UExtraAniJump@@@std@@@std@@@2@V?$_Vector_const_iterator@V?$_Vector_val@UExtraAniJump@@V?$allocator@UExtraAniJump@@@std@@@std@@@2@0@Z PROC ; std::vector<ExtraAniJump,std::allocator<ExtraAniJump> >::erase, COMDAT
; _this$ = ecx

; 1190 : 		{	// erase [_First, _Last)

  00000	55		 push	 ebp
  00001	8b ec		 mov	 ebp, esp

; 1191 : 		iterator _First = _Make_iter(_First_arg);

  00003	8b 45 0c	 mov	 eax, DWORD PTR __First_arg$[ebp]
  00006	56		 push	 esi
  00007	57		 push	 edi
  00008	8b 7d 08	 mov	 edi, DWORD PTR ___$ReturnUdt$[ebp]
  0000b	8b f1		 mov	 esi, ecx
  0000d	89 07		 mov	 DWORD PTR [edi], eax

; 1192 : 		iterator _Last = _Make_iter(_Last_arg);
; 1193 : 
; 1194 : 		if (_First != _Last)

  0000f	3b 45 10	 cmp	 eax, DWORD PTR __Last_arg$[ebp]
  00012	74 16		 je	 SHORT $LN1@erase@4

; 1195 : 			{	// worth doing, copy down over hole
; 1196 :  #if _ITERATOR_DEBUG_LEVEL == 2
; 1197 : 			if (_Last < _First || _VICONT(_First) != this
; 1198 : 				|| _VIPTR(_First) < this->_Myfirst
; 1199 : 				|| this->_Mylast < _VIPTR(_Last))
; 1200 : 				_DEBUG_ERROR("vector erase iterator outside range");
; 1201 : 			pointer _Ptr = _Move(_VIPTR(_Last), this->_Mylast,
; 1202 : 				_VIPTR(_First));
; 1203 : 			_Orphan_range(_VIPTR(_First), this->_Mylast);
; 1204 : 
; 1205 :  #else /* _ITERATOR_DEBUG_LEVEL == 2 */
; 1206 : 			pointer _Ptr = _Move(_VIPTR(_Last), this->_Mylast,
; 1207 : 				_VIPTR(_First));

  00014	ff 75 10	 push	 DWORD PTR __Cat$677142[ebp]
  00017	8b 4e 04	 mov	 ecx, DWORD PTR [esi+4]
  0001a	50		 push	 eax
  0001b	51		 push	 ecx
  0001c	ff 75 10	 push	 DWORD PTR __Last_arg$[ebp]
  0001f	e8 00 00 00 00	 call	 ??$_Move@PAUExtraAniJump@@PAU1@@std@@YAPAUExtraAniJump@@PAU1@00U_Nonscalar_ptr_iterator_tag@0@@Z ; std::_Move<ExtraAniJump *,ExtraAniJump *>
  00024	83 c4 10	 add	 esp, 16			; 00000010H

; 1208 :  #endif /* _ITERATOR_DEBUG_LEVEL == 2 */
; 1209 : 
; 1210 : 			_Destroy(_Ptr, this->_Mylast);
; 1211 : 			this->_Mylast = _Ptr;

  00027	89 46 04	 mov	 DWORD PTR [esi+4], eax
$LN1@erase@4:

; 1212 : 			}
; 1213 : 		return (_First);

  0002a	8b c7		 mov	 eax, edi
  0002c	5f		 pop	 edi
  0002d	5e		 pop	 esi

; 1214 : 		}

  0002e	5d		 pop	 ebp
  0002f	c2 0c 00	 ret	 12			; 0000000cH
?erase@?$vector@UExtraAniJump@@V?$allocator@UExtraAniJump@@@std@@@std@@QAE?AV?$_Vector_iterator@V?$_Vector_val@UExtraAniJump@@V?$allocator@UExtraAniJump@@@std@@@std@@@2@V?$_Vector_const_iterator@V?$_Vector_val@UExtraAniJump@@V?$allocator@UExtraAniJump@@@std@@@std@@@2@0@Z ENDP ; std::vector<ExtraAniJump,std::allocator<ExtraAniJump> >::erase
_TEXT	ENDS
PUBLIC	?reserve@?$vector@UExtraAniJump@@V?$allocator@UExtraAniJump@@@std@@@std@@QAEXI@Z ; std::vector<ExtraAniJump,std::allocator<ExtraAniJump> >::reserve
;	COMDAT xdata$x
; File c:\program files (x86)\microsoft visual studio 10.0\vc\include\xmemory
xdata$x	SEGMENT
__catchsym$?reserve@?$vector@UExtraAniJump@@V?$allocator@UExtraAniJump@@@std@@@std@@QAEXI@Z$2 DD 040H
	DD	00H
	DD	00H
	DD	FLAT:__catch$?reserve@?$vector@UExtraAniJump@@V?$allocator@UExtraAniJump@@@std@@@std@@QAEXI@Z$0
__unwindtable$?reserve@?$vector@UExtraAniJump@@V?$allocator@UExtraAniJump@@@std@@@std@@QAEXI@Z DD 0ffffffffH
	DD	00H
	DD	0ffffffffH
	DD	00H
__tryblocktable$?reserve@?$vector@UExtraAniJump@@V?$allocator@UExtraAniJump@@@std@@@std@@QAEXI@Z DD 00H
	DD	00H
	DD	01H
	DD	01H
	DD	FLAT:__catchsym$?reserve@?$vector@UExtraAniJump@@V?$allocator@UExtraAniJump@@@std@@@std@@QAEXI@Z$2
__ehfuncinfo$?reserve@?$vector@UExtraAniJump@@V?$allocator@UExtraAniJump@@@std@@@std@@QAEXI@Z DD 019930522H
	DD	02H
	DD	FLAT:__unwindtable$?reserve@?$vector@UExtraAniJump@@V?$allocator@UExtraAniJump@@@std@@@std@@QAEXI@Z
	DD	01H
	DD	FLAT:__tryblocktable$?reserve@?$vector@UExtraAniJump@@V?$allocator@UExtraAniJump@@@std@@@std@@QAEXI@Z
	DD	2 DUP(00H)
	DD	00H
	DD	01H
; Function compile flags: /Ogsp
; File c:\program files (x86)\microsoft visual studio 10.0\vc\include\vector
xdata$x	ENDS
;	COMDAT ?reserve@?$vector@UExtraAniJump@@V?$allocator@UExtraAniJump@@@std@@@std@@QAEXI@Z
_TEXT	SEGMENT
__Ptr$664153 = -20					; size = 4
__$EHRec$ = -16						; size = 16
__Count$ = 8						; size = 4
?reserve@?$vector@UExtraAniJump@@V?$allocator@UExtraAniJump@@@std@@@std@@QAEXI@Z PROC ; std::vector<ExtraAniJump,std::allocator<ExtraAniJump> >::reserve, COMDAT
; _this$ = ecx

; 746  : 		{	// determine new minimum length of allocated storage

  00000	6a 08		 push	 8
  00002	b8 00 00 00 00	 mov	 eax, __ehhandler$?reserve@?$vector@UExtraAniJump@@V?$allocator@UExtraAniJump@@@std@@@std@@QAEXI@Z
  00007	e8 00 00 00 00	 call	 __EH_prolog3_catch
  0000c	8b f1		 mov	 esi, ecx

; 747  : 		if (max_size() < _Count)

  0000e	81 7d 08 ff ff
	ff 1f		 cmp	 DWORD PTR __Count$[ebp], 536870911 ; 1fffffffH
  00015	76 0b		 jbe	 SHORT $LN5@reserve@2

; 748  : 			_Xlen();	// result too long

  00017	68 00 00 00 00	 push	 OFFSET ??_C@_0BD@OLBABOEK@vector?$DMT?$DO?5too?5long?$AA@
  0001c	ff 15 00 00 00
	00		 call	 DWORD PTR __imp_?_Xlength_error@std@@YAXPBD@Z
$LN56@reserve@2:
$LN5@reserve@2:

; 749  : 		else if (capacity() < _Count)

  00022	8b 46 08	 mov	 eax, DWORD PTR [esi+8]
  00025	2b 06		 sub	 eax, DWORD PTR [esi]
  00027	c1 f8 03	 sar	 eax, 3
  0002a	3b 45 08	 cmp	 eax, DWORD PTR __Count$[ebp]
  0002d	73 65		 jae	 SHORT $LN3@reserve@2

; 750  : 			{	// not enough room, reallocate
; 751  : 			pointer _Ptr = this->_Alval.allocate(_Count);

  0002f	6a 00		 push	 0
  00031	ff 75 08	 push	 DWORD PTR __Count$[ebp]
  00034	e8 00 00 00 00	 call	 ??$_Allocate@UExtraAniJump@@@std@@YAPAUExtraAniJump@@IPAU1@@Z ; std::_Allocate<ExtraAniJump>

; 752  : 
; 753  : 			_TRY_BEGIN
; 754  : 			_Umove(this->_Myfirst, this->_Mylast, _Ptr);

  00039	8b 0e		 mov	 ecx, DWORD PTR [esi]
  0003b	83 65 fc 00	 and	 DWORD PTR __$EHRec$[ebp+12], 0
  0003f	8b d8		 mov	 ebx, eax
  00041	8b 46 04	 mov	 eax, DWORD PTR [esi+4]
  00044	8d 56 0c	 lea	 edx, DWORD PTR [esi+12]
  00047	52		 push	 edx
  00048	53		 push	 ebx
  00049	50		 push	 eax
  0004a	51		 push	 ecx
  0004b	89 5d ec	 mov	 DWORD PTR __Ptr$664153[ebp], ebx
  0004e	e8 00 00 00 00	 call	 ??$_Uninitialized_move@PAUExtraAniJump@@PAU1@V?$allocator@UExtraAniJump@@@std@@@std@@YAPAUExtraAniJump@@PAU1@00AAV?$allocator@UExtraAniJump@@@0@@Z ; std::_Uninitialized_move<ExtraAniJump *,ExtraAniJump *,std::allocator<ExtraAniJump> >

; 758  : 			_CATCH_END
; 759  : 
; 760  : 			size_type _Size = size();

  00053	8b 4e 04	 mov	 ecx, DWORD PTR [esi+4]
  00056	8b 06		 mov	 eax, DWORD PTR [esi]
  00058	83 4d fc ff	 or	 DWORD PTR __$EHRec$[ebp+12], -1
  0005c	8b f9		 mov	 edi, ecx
  0005e	2b f8		 sub	 edi, eax
  00060	83 c4 18	 add	 esp, 24			; 00000018H
  00063	c1 ff 03	 sar	 edi, 3
  00066	85 c0		 test	 eax, eax
  00068	74 11		 je	 SHORT $LN48@reserve@2

; 761  : 			if (this->_Myfirst != 0)

  0006a	eb 03		 jmp	 SHORT $LN55@reserve@2

; 762  : 				{	// destroy and deallocate old array
; 763  : 				_Destroy(this->_Myfirst, this->_Mylast);

$LL39@reserve@2:
  0006c	83 c0 08	 add	 eax, 8
$LN55@reserve@2:
  0006f	3b c1		 cmp	 eax, ecx
  00071	75 f9		 jne	 SHORT $LL39@reserve@2

; 764  : 				this->_Alval.deallocate(this->_Myfirst,
; 765  : 					this->_Myend - this->_Myfirst);

  00073	ff 36		 push	 DWORD PTR [esi]
  00075	e8 00 00 00 00	 call	 ??3@YAXPAX@Z		; operator delete
  0007a	59		 pop	 ecx
$LN48@reserve@2:

; 766  : 				}
; 767  : 
; 768  : 			this->_Orphan_all();

  0007b	8b ce		 mov	 ecx, esi
  0007d	ff 15 00 00 00
	00		 call	 DWORD PTR __imp_?_Orphan_all@_Container_base0@std@@QAEXXZ

; 769  : 			this->_Myend = _Ptr + _Count;

  00083	8b 45 08	 mov	 eax, DWORD PTR __Count$[ebp]
  00086	8d 04 c3	 lea	 eax, DWORD PTR [ebx+eax*8]
  00089	89 46 08	 mov	 DWORD PTR [esi+8], eax

; 770  : 			this->_Mylast = _Ptr + _Size;

  0008c	8d 04 fb	 lea	 eax, DWORD PTR [ebx+edi*8]
  0008f	89 46 04	 mov	 DWORD PTR [esi+4], eax

; 771  : 			this->_Myfirst = _Ptr;

  00092	89 1e		 mov	 DWORD PTR [esi], ebx
$LN3@reserve@2:

; 772  : 			}
; 773  : 		}

  00094	e8 00 00 00 00	 call	 __EH_epilog3
  00099	c2 04 00	 ret	 4
__catch$?reserve@?$vector@UExtraAniJump@@V?$allocator@UExtraAniJump@@@std@@@std@@QAEXI@Z$0:

; 755  : 			_CATCH_ALL
; 756  : 			this->_Alval.deallocate(_Ptr, _Count);

  0009c	ff 75 ec	 push	 DWORD PTR __Ptr$664153[ebp]
  0009f	e8 00 00 00 00	 call	 ??3@YAXPAX@Z		; operator delete
  000a4	59		 pop	 ecx

; 757  : 			_RERAISE;

  000a5	6a 00		 push	 0
  000a7	6a 00		 push	 0
  000a9	e8 00 00 00 00	 call	 __CxxThrowException@8
$LN57@reserve@2:
$LN54@reserve@2:
  000ae	cc		 int	 3
_TEXT	ENDS
;	COMDAT text$x
text$x	SEGMENT
__ehhandler$?reserve@?$vector@UExtraAniJump@@V?$allocator@UExtraAniJump@@@std@@@std@@QAEXI@Z:
  00000	8b 54 24 08	 mov	 edx, DWORD PTR [esp+8]
  00004	8d 42 0c	 lea	 eax, DWORD PTR [edx+12]
  00007	8b 4a e8	 mov	 ecx, DWORD PTR [edx-24]
  0000a	33 c8		 xor	 ecx, eax
  0000c	e8 00 00 00 00	 call	 @__security_check_cookie@4
  00011	b8 00 00 00 00	 mov	 eax, OFFSET __ehfuncinfo$?reserve@?$vector@UExtraAniJump@@V?$allocator@UExtraAniJump@@@std@@@std@@QAEXI@Z
  00016	e9 00 00 00 00	 jmp	 ___CxxFrameHandler3
text$x	ENDS
?reserve@?$vector@UExtraAniJump@@V?$allocator@UExtraAniJump@@@std@@@std@@QAEXI@Z ENDP ; std::vector<ExtraAniJump,std::allocator<ExtraAniJump> >::reserve
PUBLIC	??0?$basic_string@DU?$char_traits@D@std@@V?$allocator@D@2@@std@@QAE@PBD@Z ; std::basic_string<char,std::char_traits<char>,std::allocator<char> >::basic_string<char,std::char_traits<char>,std::allocator<char> >
; Function compile flags: /Ogsp
; File c:\program files (x86)\microsoft visual studio 10.0\vc\include\xstring
;	COMDAT ??0?$basic_string@DU?$char_traits@D@std@@V?$allocator@D@2@@std@@QAE@PBD@Z
_TEXT	SEGMENT
__Ptr$ = 8						; size = 4
??0?$basic_string@DU?$char_traits@D@std@@V?$allocator@D@2@@std@@QAE@PBD@Z PROC ; std::basic_string<char,std::char_traits<char>,std::allocator<char> >::basic_string<char,std::char_traits<char>,std::allocator<char> >, COMDAT
; _this$ = ecx

; 592  : 		{	// construct from [_Ptr, <null>)

  00000	55		 push	 ebp
  00001	8b ec		 mov	 ebp, esp
  00003	56		 push	 esi

; 593  : 		_Tidy();
; 594  : 		assign(_Ptr);

  00004	ff 75 08	 push	 DWORD PTR __Ptr$[ebp]
  00007	8b f1		 mov	 esi, ecx
  00009	83 66 10 00	 and	 DWORD PTR [esi+16], 0
  0000d	c7 46 14 0f 00
	00 00		 mov	 DWORD PTR [esi+20], 15	; 0000000fH
  00014	c6 06 00	 mov	 BYTE PTR [esi], 0
  00017	e8 00 00 00 00	 call	 ?assign@?$basic_string@DU?$char_traits@D@std@@V?$allocator@D@2@@std@@QAEAAV12@PBD@Z ; std::basic_string<char,std::char_traits<char>,std::allocator<char> >::assign

; 595  : 		}

  0001c	8b c6		 mov	 eax, esi
  0001e	5e		 pop	 esi
  0001f	5d		 pop	 ebp
  00020	c2 04 00	 ret	 4
??0?$basic_string@DU?$char_traits@D@std@@V?$allocator@D@2@@std@@QAE@PBD@Z ENDP ; std::basic_string<char,std::char_traits<char>,std::allocator<char> >::basic_string<char,std::char_traits<char>,std::allocator<char> >
_TEXT	ENDS
PUBLIC	?ProcessMamaHahaState@ioMamaHahaDummy@@IAEXMK@Z	; ioMamaHahaDummy::ProcessMamaHahaState
EXTRN	?CheckExtraAniJump@ioDummyChar@@IAEXXZ:PROC	; ioDummyChar::CheckExtraAniJump
EXTRN	?CheckReservedSliding@ioDummyChar@@QAEXXZ:PROC	; ioDummyChar::CheckReservedSliding
; Function compile flags: /Ogsp
; File d:\lost saga for developer\youtube\tutorial\source\src\lsclient\iomamahahadummy.cpp
;	COMDAT ?ProcessMamaHahaState@ioMamaHahaDummy@@IAEXMK@Z
_TEXT	SEGMENT
_fTimePerSec$ = 8					; size = 4
_dwPreTime$ = 12					; size = 4
?ProcessMamaHahaState@ioMamaHahaDummy@@IAEXMK@Z PROC	; ioMamaHahaDummy::ProcessMamaHahaState, COMDAT
; _this$ = ecx

; 362  : {

  00000	55		 push	 ebp
  00001	8b ec		 mov	 ebp, esp
  00003	56		 push	 esi
  00004	8b f1		 mov	 esi, ecx

; 363  : 	if( CheckEnableAttackState() )

  00006	e8 00 00 00 00	 call	 ?CheckEnableAttackState@ioDummyChar@@QAE_NXZ ; ioDummyChar::CheckEnableAttackState
  0000b	84 c0		 test	 al, al
  0000d	74 0c		 je	 SHORT $LN6@ProcessMam

; 364  : 	{
; 365  : 		SetAttackState();

  0000f	8b 06		 mov	 eax, DWORD PTR [esi]
  00011	8b ce		 mov	 ecx, esi
  00013	ff 90 24 01 00
	00		 call	 DWORD PTR [eax+292]

; 366  : 		return;

  00019	eb 54		 jmp	 SHORT $LN4@ProcessMam
$LN6@ProcessMam:

; 367  : 	}
; 368  : 
; 369  : 	switch( m_MamaHahaState )

  0001b	8b 86 80 14 00
	00		 mov	 eax, DWORD PTR [esi+5248]
  00021	83 f8 02	 cmp	 eax, 2
  00024	7c 49		 jl	 SHORT $LN4@ProcessMam
  00026	83 f8 03	 cmp	 eax, 3
  00029	7e 1e		 jle	 SHORT $LN1@ProcessMam
  0002b	83 f8 05	 cmp	 eax, 5
  0002e	74 19		 je	 SHORT $LN1@ProcessMam
  00030	83 f8 07	 cmp	 eax, 7
  00033	75 3a		 jne	 SHORT $LN4@ProcessMam

; 370  : 	{
; 371  : 	case MHS_OWNER_ATTACH:
; 372  : 	case MHS_RETURN1:
; 373  : 	case MHS_RETURN2:
; 374  : 		break;
; 375  : 	case MHS_ENEMY_ATTACH:
; 376  : 		ProcessEnemyAttachState( fTimePerSec );

  00035	f3 0f 10 45 08	 movss	 xmm0, DWORD PTR _fTimePerSec$[ebp]
  0003a	51		 push	 ecx
  0003b	8b ce		 mov	 ecx, esi
  0003d	f3 0f 11 04 24	 movss	 DWORD PTR [esp], xmm0
  00042	e8 00 00 00 00	 call	 ?ProcessEnemyAttachState@ioMamaHahaDummy@@IAEXM@Z ; ioMamaHahaDummy::ProcessEnemyAttachState

; 377  : 		break;

  00047	eb 26		 jmp	 SHORT $LN4@ProcessMam
$LN1@ProcessMam:

; 378  : 	case MHS_FLYING1:
; 379  : 	case MHS_FLYING2:
; 380  : 	case MHS_FIRE_ATTACK:
; 381  : 		CheckReservedSliding();

  00049	8b ce		 mov	 ecx, esi
  0004b	e8 00 00 00 00	 call	 ?CheckReservedSliding@ioDummyChar@@QAEXXZ ; ioDummyChar::CheckReservedSliding

; 382  : 		CheckExtraAniJump();

  00050	8b ce		 mov	 ecx, esi
  00052	e8 00 00 00 00	 call	 ?CheckExtraAniJump@ioDummyChar@@IAEXXZ ; ioDummyChar::CheckExtraAniJump

; 383  : 		ProcessAttackState( fTimePerSec, dwPreTime );

  00057	ff 75 0c	 push	 DWORD PTR _dwPreTime$[ebp]
  0005a	f3 0f 10 45 08	 movss	 xmm0, DWORD PTR _fTimePerSec$[ebp]
  0005f	8b 06		 mov	 eax, DWORD PTR [esi]
  00061	51		 push	 ecx
  00062	8b ce		 mov	 ecx, esi
  00064	f3 0f 11 04 24	 movss	 DWORD PTR [esp], xmm0
  00069	ff 90 0c 01 00
	00		 call	 DWORD PTR [eax+268]
$LN4@ProcessMam:
  0006f	5e		 pop	 esi

; 384  : 		break;
; 385  : 	}
; 386  : }

  00070	5d		 pop	 ebp
  00071	c2 08 00	 ret	 8
?ProcessMamaHahaState@ioMamaHahaDummy@@IAEXMK@Z ENDP	; ioMamaHahaDummy::ProcessMamaHahaState
_TEXT	ENDS
PUBLIC	?clear@?$vector@UExtraAniJump@@V?$allocator@UExtraAniJump@@@std@@@std@@QAEXXZ ; std::vector<ExtraAniJump,std::allocator<ExtraAniJump> >::clear
; Function compile flags: /Ogsp
; File c:\program files (x86)\microsoft visual studio 10.0\vc\include\vector
;	COMDAT ?clear@?$vector@UExtraAniJump@@V?$allocator@UExtraAniJump@@@std@@@std@@QAEXXZ
_TEXT	SEGMENT
$T677427 = -4						; size = 4
?clear@?$vector@UExtraAniJump@@V?$allocator@UExtraAniJump@@@std@@@std@@QAEXXZ PROC ; std::vector<ExtraAniJump,std::allocator<ExtraAniJump> >::clear, COMDAT
; _this$ = ecx

; 1217 : 		{	// erase all

  00000	55		 push	 ebp
  00001	8b ec		 mov	 ebp, esp
  00003	51		 push	 ecx

; 1218 : 		erase(begin(), end());

  00004	8b 41 04	 mov	 eax, DWORD PTR [ecx+4]
  00007	8b 11		 mov	 edx, DWORD PTR [ecx]
  00009	50		 push	 eax
  0000a	52		 push	 edx
  0000b	8d 45 fc	 lea	 eax, DWORD PTR $T677427[ebp]
  0000e	50		 push	 eax
  0000f	e8 00 00 00 00	 call	 ?erase@?$vector@UExtraAniJump@@V?$allocator@UExtraAniJump@@@std@@@std@@QAE?AV?$_Vector_iterator@V?$_Vector_val@UExtraAniJump@@V?$allocator@UExtraAniJump@@@std@@@std@@@2@V?$_Vector_const_iterator@V?$_Vector_val@UExtraAniJump@@V?$allocator@UExtraAniJump@@@std@@@std@@@2@0@Z ; std::vector<ExtraAniJump,std::allocator<ExtraAniJump> >::erase

; 1219 : 		}

  00014	c9		 leave
  00015	c3		 ret	 0
?clear@?$vector@UExtraAniJump@@V?$allocator@UExtraAniJump@@@std@@@std@@QAEXXZ ENDP ; std::vector<ExtraAniJump,std::allocator<ExtraAniJump> >::clear
_TEXT	ENDS
PUBLIC	?_Reserve@?$vector@UExtraAniJump@@V?$allocator@UExtraAniJump@@@std@@@std@@IAEXI@Z ; std::vector<ExtraAniJump,std::allocator<ExtraAniJump> >::_Reserve
; Function compile flags: /Ogsp
;	COMDAT ?_Reserve@?$vector@UExtraAniJump@@V?$allocator@UExtraAniJump@@@std@@@std@@IAEXI@Z
_TEXT	SEGMENT
__Count$ = 8						; size = 4
?_Reserve@?$vector@UExtraAniJump@@V?$allocator@UExtraAniJump@@@std@@@std@@IAEXI@Z PROC ; std::vector<ExtraAniJump,std::allocator<ExtraAniJump> >::_Reserve, COMDAT
; _this$ = ecx

; 1290 : 		{	// ensure room for _Count new elements, grow exponentially

  00000	55		 push	 ebp
  00001	8b ec		 mov	 ebp, esp
  00003	56		 push	 esi
  00004	8b f1		 mov	 esi, ecx

; 1291 : 		size_type _Size = size();

  00006	8b 0e		 mov	 ecx, DWORD PTR [esi]
  00008	8b 46 04	 mov	 eax, DWORD PTR [esi+4]
  0000b	2b c1		 sub	 eax, ecx

; 1292 : 		if (max_size() - _Count < _Size)

  0000d	ba ff ff ff 1f	 mov	 edx, 536870911		; 1fffffffH
  00012	2b 55 08	 sub	 edx, DWORD PTR __Count$[ebp]
  00015	c1 f8 03	 sar	 eax, 3
  00018	3b d0		 cmp	 edx, eax
  0001a	73 0b		 jae	 SHORT $LN4@Reserve@2

; 1293 : 			_Xlen();

  0001c	68 00 00 00 00	 push	 OFFSET ??_C@_0BD@OLBABOEK@vector?$DMT?$DO?5too?5long?$AA@
  00021	ff 15 00 00 00
	00		 call	 DWORD PTR __imp_?_Xlength_error@std@@YAXPBD@Z
$LN21@Reserve@2:
$LN4@Reserve@2:

; 1294 : 		else if ((_Size += _Count) <= capacity())

  00027	8b 56 08	 mov	 edx, DWORD PTR [esi+8]
  0002a	03 45 08	 add	 eax, DWORD PTR __Count$[ebp]
  0002d	2b d1		 sub	 edx, ecx
  0002f	c1 fa 03	 sar	 edx, 3
  00032	3b c2		 cmp	 eax, edx
  00034	76 10		 jbe	 SHORT $LN1@Reserve@2

; 1295 : 			;
; 1296 : 		else
; 1297 : 			reserve(_Grow_to(_Size));

  00036	50		 push	 eax
  00037	8b ce		 mov	 ecx, esi
  00039	e8 00 00 00 00	 call	 ?_Grow_to@?$vector@UExtraAniJump@@V?$allocator@UExtraAniJump@@@std@@@std@@IBEII@Z ; std::vector<ExtraAniJump,std::allocator<ExtraAniJump> >::_Grow_to
  0003e	50		 push	 eax
  0003f	8b ce		 mov	 ecx, esi
  00041	e8 00 00 00 00	 call	 ?reserve@?$vector@UExtraAniJump@@V?$allocator@UExtraAniJump@@@std@@@std@@QAEXI@Z ; std::vector<ExtraAniJump,std::allocator<ExtraAniJump> >::reserve
$LN1@Reserve@2:
  00046	5e		 pop	 esi

; 1298 : 		}

  00047	5d		 pop	 ebp
  00048	c2 04 00	 ret	 4
$LN20@Reserve@2:
?_Reserve@?$vector@UExtraAniJump@@V?$allocator@UExtraAniJump@@@std@@@std@@IAEXI@Z ENDP ; std::vector<ExtraAniJump,std::allocator<ExtraAniJump> >::_Reserve
_TEXT	ENDS
EXTRN	?ProcessEffectUpdate@ioDummyChar@@IAEXM@Z:PROC	; ioDummyChar::ProcessEffectUpdate
EXTRN	?ProcessStartState@ioDummyChar@@IAEXM@Z:PROC	; ioDummyChar::ProcessStartState
EXTRN	?ProcessDieState@ioDummyChar@@IAEXM@Z:PROC	; ioDummyChar::ProcessDieState
; Function compile flags: /Ogsp
; File d:\lost saga for developer\youtube\tutorial\source\src\lsclient\iomamahahadummy.cpp
;	COMDAT ?ProcessState@ioMamaHahaDummy@@MAEXMK@Z
_TEXT	SEGMENT
_fTimePerSec$ = 8					; size = 4
_dwPreTime$ = 12					; size = 4
?ProcessState@ioMamaHahaDummy@@MAEXMK@Z PROC		; ioMamaHahaDummy::ProcessState, COMDAT
; _this$ = ecx

; 78   : {

  00000	55		 push	 ebp
  00001	8b ec		 mov	 ebp, esp

; 79   : 	switch( m_State )

  00003	f3 0f 10 45 08	 movss	 xmm0, DWORD PTR _fTimePerSec$[ebp]
  00008	56		 push	 esi
  00009	8b f1		 mov	 esi, ecx
  0000b	8b 86 30 02 00
	00		 mov	 eax, DWORD PTR [esi+560]
  00011	48		 dec	 eax
  00012	74 4d		 je	 SHORT $LN5@ProcessSta
  00014	48		 dec	 eax
  00015	74 3a		 je	 SHORT $LN4@ProcessSta
  00017	48		 dec	 eax
  00018	74 27		 je	 SHORT $LN3@ProcessSta
  0001a	83 e8 03	 sub	 eax, 3
  0001d	74 15		 je	 SHORT $LN1@ProcessSta
  0001f	83 e8 0a	 sub	 eax, 10			; 0000000aH
  00022	75 48		 jne	 SHORT $LN6@ProcessSta

; 90   : 	case DCS_MAMAHAHA_STATE:
; 91   : 		ProcessMamaHahaState( fTimePerSec, dwPreTime );

  00024	ff 75 0c	 push	 DWORD PTR _dwPreTime$[ebp]
  00027	51		 push	 ecx
  00028	f3 0f 11 04 24	 movss	 DWORD PTR [esp], xmm0
  0002d	e8 00 00 00 00	 call	 ?ProcessMamaHahaState@ioMamaHahaDummy@@IAEXMK@Z ; ioMamaHahaDummy::ProcessMamaHahaState

; 92   : 		break;

  00032	eb 38		 jmp	 SHORT $LN6@ProcessSta
$LN1@ProcessSta:

; 93   : 	case DCS_DIE:
; 94   : 		ProcessDieState( fTimePerSec );

  00034	51		 push	 ecx
  00035	f3 0f 11 04 24	 movss	 DWORD PTR [esp], xmm0
  0003a	e8 00 00 00 00	 call	 ?ProcessDieState@ioDummyChar@@IAEXM@Z ; ioDummyChar::ProcessDieState

; 95   : 		break;

  0003f	eb 2b		 jmp	 SHORT $LN6@ProcessSta
$LN3@ProcessSta:

; 87   : 	case DCS_MOVE:
; 88   : 		ProcessMoveState( fTimePerSec );

  00041	8b 06		 mov	 eax, DWORD PTR [esi]
  00043	51		 push	 ecx
  00044	f3 0f 11 04 24	 movss	 DWORD PTR [esp], xmm0
  00049	ff 90 04 01 00
	00		 call	 DWORD PTR [eax+260]

; 89   : 		break;

  0004f	eb 1b		 jmp	 SHORT $LN6@ProcessSta
$LN4@ProcessSta:

; 83   : 		break;
; 84   : 	case DCS_DELAY:
; 85   : 		ProcessDelayState( fTimePerSec );

  00051	8b 06		 mov	 eax, DWORD PTR [esi]
  00053	51		 push	 ecx
  00054	f3 0f 11 04 24	 movss	 DWORD PTR [esp], xmm0
  00059	ff 90 00 01 00
	00		 call	 DWORD PTR [eax+256]

; 86   : 		break;

  0005f	eb 0b		 jmp	 SHORT $LN6@ProcessSta
$LN5@ProcessSta:

; 80   : 	{
; 81   : 	case DCS_START:
; 82   : 		ProcessStartState( fTimePerSec );

  00061	51		 push	 ecx
  00062	f3 0f 11 04 24	 movss	 DWORD PTR [esp], xmm0
  00067	e8 00 00 00 00	 call	 ?ProcessStartState@ioDummyChar@@IAEXM@Z ; ioDummyChar::ProcessStartState
$LN6@ProcessSta:

; 96   : 	}
; 97   : 
; 98   : 	CheckMamaHahaVisible();

  0006c	8b ce		 mov	 ecx, esi
  0006e	e8 00 00 00 00	 call	 ?CheckMamaHahaVisible@ioMamaHahaDummy@@IAEXXZ ; ioMamaHahaDummy::CheckMamaHahaVisible

; 99   : 	ProcessPos( fTimePerSec );

  00073	f3 0f 10 45 08	 movss	 xmm0, DWORD PTR _fTimePerSec$[ebp]
  00078	8b 06		 mov	 eax, DWORD PTR [esi]
  0007a	51		 push	 ecx
  0007b	8b ce		 mov	 ecx, esi
  0007d	f3 0f 11 04 24	 movss	 DWORD PTR [esp], xmm0
  00082	ff 90 fc 00 00
	00		 call	 DWORD PTR [eax+252]

; 100  : 	ProcessEffectUpdate( fTimePerSec );

  00088	f3 0f 10 45 08	 movss	 xmm0, DWORD PTR _fTimePerSec$[ebp]
  0008d	51		 push	 ecx
  0008e	8b ce		 mov	 ecx, esi
  00090	f3 0f 11 04 24	 movss	 DWORD PTR [esp], xmm0
  00095	e8 00 00 00 00	 call	 ?ProcessEffectUpdate@ioDummyChar@@IAEXM@Z ; ioDummyChar::ProcessEffectUpdate
  0009a	5e		 pop	 esi

; 101  : }

  0009b	5d		 pop	 ebp
  0009c	c2 08 00	 ret	 8
?ProcessState@ioMamaHahaDummy@@MAEXMK@Z ENDP		; ioMamaHahaDummy::ProcessState
_TEXT	ENDS
PUBLIC	?push_back@?$vector@UExtraAniJump@@V?$allocator@UExtraAniJump@@@std@@@std@@QAEXABUExtraAniJump@@@Z ; std::vector<ExtraAniJump,std::allocator<ExtraAniJump> >::push_back
; Function compile flags: /Ogsp
; File c:\program files (x86)\microsoft visual studio 10.0\vc\include\vector
;	COMDAT ?push_back@?$vector@UExtraAniJump@@V?$allocator@UExtraAniJump@@@std@@@std@@QAEXABUExtraAniJump@@@Z
_TEXT	SEGMENT
__Val$ = 8						; size = 4
?push_back@?$vector@UExtraAniJump@@V?$allocator@UExtraAniJump@@@std@@@std@@QAEXABUExtraAniJump@@@Z PROC ; std::vector<ExtraAniJump,std::allocator<ExtraAniJump> >::push_back, COMDAT
; _this$ = ecx

; 976  : 		{	// insert element at end

  00000	55		 push	 ebp
  00001	8b ec		 mov	 ebp, esp
  00003	56		 push	 esi
  00004	8b f1		 mov	 esi, ecx

; 977  : 		if (_Inside(_STD addressof(_Val)))

  00006	8b 46 04	 mov	 eax, DWORD PTR [esi+4]
  00009	57		 push	 edi
  0000a	8b 7d 08	 mov	 edi, DWORD PTR __Val$[ebp]
  0000d	3b f8		 cmp	 edi, eax
  0000f	73 2d		 jae	 SHORT $LN4@push_back@2
  00011	8b 0e		 mov	 ecx, DWORD PTR [esi]
  00013	3b cf		 cmp	 ecx, edi
  00015	77 27		 ja	 SHORT $LN4@push_back@2

; 978  : 			{	// push back an element
; 979  : 			size_type _Idx = _STD addressof(_Val) - this->_Myfirst;

  00017	2b f9		 sub	 edi, ecx
  00019	c1 ff 03	 sar	 edi, 3

; 980  : 			if (this->_Mylast == this->_Myend)

  0001c	3b 46 08	 cmp	 eax, DWORD PTR [esi+8]
  0001f	75 09		 jne	 SHORT $LN3@push_back@2

; 981  : 				_Reserve(1);

  00021	6a 01		 push	 1
  00023	8b ce		 mov	 ecx, esi
  00025	e8 00 00 00 00	 call	 ?_Reserve@?$vector@UExtraAniJump@@V?$allocator@UExtraAniJump@@@std@@@std@@IAEXI@Z ; std::vector<ExtraAniJump,std::allocator<ExtraAniJump> >::_Reserve
$LN3@push_back@2:

; 982  : 			_Orphan_range(this->_Mylast, this->_Mylast);
; 983  : 			_Cons_val(this->_Alval,
; 984  : 				this->_Mylast,
; 985  : 				this->_Myfirst[_Idx]);

  0002a	8b 06		 mov	 eax, DWORD PTR [esi]
  0002c	8d 04 f8	 lea	 eax, DWORD PTR [eax+edi*8]
  0002f	50		 push	 eax
  00030	ff 76 04	 push	 DWORD PTR [esi+4]
  00033	8d 46 0c	 lea	 eax, DWORD PTR [esi+12]
  00036	50		 push	 eax
  00037	e8 00 00 00 00	 call	 ??$_Cons_val@V?$allocator@UExtraAniJump@@@std@@UExtraAniJump@@AAU3@@std@@YAXAAV?$allocator@UExtraAniJump@@@0@PAUExtraAniJump@@AAU2@@Z ; std::_Cons_val<std::allocator<ExtraAniJump>,ExtraAniJump,ExtraAniJump &>

; 986  : 			++this->_Mylast;
; 987  : 			}
; 988  : 		else

  0003c	eb 1b		 jmp	 SHORT $LN20@push_back@2
$LN4@push_back@2:

; 989  : 			{	// push back a non-element
; 990  : 			if (this->_Mylast == this->_Myend)

  0003e	3b 46 08	 cmp	 eax, DWORD PTR [esi+8]
  00041	75 09		 jne	 SHORT $LN1@push_back@2

; 991  : 				_Reserve(1);

  00043	6a 01		 push	 1
  00045	8b ce		 mov	 ecx, esi
  00047	e8 00 00 00 00	 call	 ?_Reserve@?$vector@UExtraAniJump@@V?$allocator@UExtraAniJump@@@std@@@std@@IAEXI@Z ; std::vector<ExtraAniJump,std::allocator<ExtraAniJump> >::_Reserve
$LN1@push_back@2:

; 992  : 			_Orphan_range(this->_Mylast, this->_Mylast);
; 993  : 			_Cons_val(this->_Alval,
; 994  : 				this->_Mylast,
; 995  : 				_Val);

  0004c	57		 push	 edi
  0004d	ff 76 04	 push	 DWORD PTR [esi+4]
  00050	8d 46 0c	 lea	 eax, DWORD PTR [esi+12]
  00053	50		 push	 eax
  00054	e8 00 00 00 00	 call	 ??$_Cons_val@V?$allocator@UExtraAniJump@@@std@@UExtraAniJump@@ABU3@@std@@YAXAAV?$allocator@UExtraAniJump@@@0@PAUExtraAniJump@@ABU2@@Z ; std::_Cons_val<std::allocator<ExtraAniJump>,ExtraAniJump,ExtraAniJump const &>
$LN20@push_back@2:
  00059	83 c4 0c	 add	 esp, 12			; 0000000cH

; 996  : 			++this->_Mylast;

  0005c	83 46 04 08	 add	 DWORD PTR [esi+4], 8
  00060	5f		 pop	 edi
  00061	5e		 pop	 esi

; 997  : 			}
; 998  : 		}

  00062	5d		 pop	 ebp
  00063	c2 04 00	 ret	 4
?push_back@?$vector@UExtraAniJump@@V?$allocator@UExtraAniJump@@@std@@@std@@QAEXABUExtraAniJump@@@Z ENDP ; std::vector<ExtraAniJump,std::allocator<ExtraAniJump> >::push_back
_TEXT	ENDS
PUBLIC	??_C@_01CLKCMJKC@?5?$AA@			; `string'
PUBLIC	__real@41f0000000000000
PUBLIC	?SetNormalAttackState@ioMamaHahaDummy@@IAEXABUAttackAttribute@@W4DummySubUseType@@@Z ; ioMamaHahaDummy::SetNormalAttackState
EXTRN	__imp_?ParseFloat@ioStringConverter@@SAMPBD@Z:PROC
EXTRN	?SetReservedSliding@ioDummyChar@@QAEXABV?$vector@UForceInfo@@V?$allocator@UForceInfo@@@std@@@std@@HMK_N@Z:PROC ; ioDummyChar::SetReservedSliding
EXTRN	?GetAniCollisionType@@YA?AW4AniCollisionType@@ABVioHashString@@@Z:PROC ; GetAniCollisionType
EXTRN	__imp_?Split@ioStringConverter@@SAABV?$vector@V?$basic_string@DU?$char_traits@D@std@@V?$allocator@D@2@@std@@V?$allocator@V?$basic_string@DU?$char_traits@D@std@@V?$allocator@D@2@@std@@@2@@std@@ABV?$basic_string@DU?$char_traits@D@std@@V?$allocator@D@2@@3@0H@Z:PROC
EXTRN	__imp_?c_str@ioHashString@@QBEPBDXZ:PROC
EXTRN	?IncreaseWeaponIndexBase@ioBaseChar@@QAEKXZ:PROC ; ioBaseChar::IncreaseWeaponIndexBase
EXTRN	__imp_?GetAnimationFullTime@ioEntityGroup@@QAEMH@Z:PROC
EXTRN	__imp_?SetActionAni@ioEntityGroup@@QAE_NHMMMMMM_N0@Z:PROC
EXTRN	__ftol2:PROC
;	COMDAT ??_C@_01CLKCMJKC@?5?$AA@
CONST	SEGMENT
??_C@_01CLKCMJKC@?5?$AA@ DB ' ', 00H			; `string'
CONST	ENDS
;	COMDAT __real@41f0000000000000
CONST	SEGMENT
__real@41f0000000000000 DQ 041f0000000000000r	; 4.29497e+009
CONST	ENDS
;	COMDAT xdata$x
xdata$x	SEGMENT
__ehfuncinfo$?SetNormalAttackState@ioMamaHahaDummy@@IAEXABUAttackAttribute@@W4DummySubUseType@@@Z DD 019930522H
	DD	0cH
	DD	FLAT:__unwindtable$?SetNormalAttackState@ioMamaHahaDummy@@IAEXABUAttackAttribute@@W4DummySubUseType@@@Z
	DD	2 DUP(00H)
	DD	2 DUP(00H)
	DD	00H
	DD	01H
__unwindtable$?SetNormalAttackState@ioMamaHahaDummy@@IAEXABUAttackAttribute@@W4DummySubUseType@@@Z DD 0ffffffffH
	DD	FLAT:__unwindfunclet$?SetNormalAttackState@ioMamaHahaDummy@@IAEXABUAttackAttribute@@W4DummySubUseType@@@Z$0
	DD	00H
	DD	FLAT:__unwindfunclet$?SetNormalAttackState@ioMamaHahaDummy@@IAEXABUAttackAttribute@@W4DummySubUseType@@@Z$9
	DD	00H
	DD	FLAT:__unwindfunclet$?SetNormalAttackState@ioMamaHahaDummy@@IAEXABUAttackAttribute@@W4DummySubUseType@@@Z$1
	DD	02H
	DD	FLAT:__unwindfunclet$?SetNormalAttackState@ioMamaHahaDummy@@IAEXABUAttackAttribute@@W4DummySubUseType@@@Z$11
	DD	02H
	DD	FLAT:__unwindfunclet$?SetNormalAttackState@ioMamaHahaDummy@@IAEXABUAttackAttribute@@W4DummySubUseType@@@Z$2
	DD	04H
	DD	FLAT:__unwindfunclet$?SetNormalAttackState@ioMamaHahaDummy@@IAEXABUAttackAttribute@@W4DummySubUseType@@@Z$3
	DD	05H
	DD	FLAT:__unwindfunclet$?SetNormalAttackState@ioMamaHahaDummy@@IAEXABUAttackAttribute@@W4DummySubUseType@@@Z$4
	DD	04H
	DD	FLAT:__unwindfunclet$?SetNormalAttackState@ioMamaHahaDummy@@IAEXABUAttackAttribute@@W4DummySubUseType@@@Z$5
	DD	02H
	DD	FLAT:__unwindfunclet$?SetNormalAttackState@ioMamaHahaDummy@@IAEXABUAttackAttribute@@W4DummySubUseType@@@Z$6
	DD	08H
	DD	FLAT:__unwindfunclet$?SetNormalAttackState@ioMamaHahaDummy@@IAEXABUAttackAttribute@@W4DummySubUseType@@@Z$12
	DD	08H
	DD	FLAT:__unwindfunclet$?SetNormalAttackState@ioMamaHahaDummy@@IAEXABUAttackAttribute@@W4DummySubUseType@@@Z$7
	DD	0aH
	DD	FLAT:__unwindfunclet$?SetNormalAttackState@ioMamaHahaDummy@@IAEXABUAttackAttribute@@W4DummySubUseType@@@Z$8
; Function compile flags: /Ogsp
; File d:\lost saga for developer\youtube\tutorial\source\src\lsclient\iomamahahadummy.cpp
xdata$x	ENDS
;	COMDAT ?SetNormalAttackState@ioMamaHahaDummy@@IAEXABUAttackAttribute@@W4DummySubUseType@@@Z
_TEXT	SEGMENT
_kFireTime$662568 = -272				; size = 88
_dwCurTime$ = -184					; size = 4
tv4652 = -180						; size = 4
_vExtraAniJumpList$662594 = -176			; size = 16
_iterEndTime$662544 = -160				; size = 4
_pOwner$ = -160						; size = 4
_vFireStartList$662251 = -156				; size = 16
_iter$662403 = -140					; size = 4
_kInfo$662607 = -136					; size = 8
tv4650 = -132						; size = 4
$T677874 = -132						; size = 4
$T677731 = -132						; size = 4
_i$662276 = -132					; size = 4
_vFireEndList$662262 = -128				; size = 12
_fAniRate$661926 = -116					; size = 4
tv4016 = -112						; size = 4
$T677572 = -112						; size = 4
_vParam$662588 = -112					; size = 4
_fFireStart$662567 = -112				; size = 4
_iter_event$662601 = -108				; size = 4
_iAniID$ = -108						; size = 4
tv4674 = -104						; size = 4
tv4669 = -104						; size = 4
tv4662 = -104						; size = 4
tv4654 = -104						; size = 4
tv4648 = -104						; size = 4
tv4646 = -104						; size = 4
tv4644 = -104						; size = 4
tv4626 = -104						; size = 4
tv4602 = -104						; size = 4
tv4130 = -104						; size = 4
tv3974 = -104						; size = 4
$T678690 = -104						; size = 4
$T678517 = -104						; size = 4
$T677738 = -104						; size = 4
$T677740 = -104						; size = 4
_vParam$662609 = -104					; size = 4
$T662611 = -100						; size = 28
$T662589 = -100						; size = 28
$T662610 = -72						; size = 28
$T678678 = -60						; size = 16
$T677860 = -60						; size = 16
$T677621 = -60						; size = 16
_szTypeName$662592 = -60				; size = 16
$T662590 = -44						; size = 28
_szEncEventType$678578 = -36				; size = 15
_szEncEventType$677873 = -28				; size = 7
_szEncEventType$677634 = -28				; size = 7
__$EHRec$ = -12						; size = 12
_rkCurAttribute$ = 8					; size = 4
_eSubType$ = 12						; size = 4
?SetNormalAttackState@ioMamaHahaDummy@@IAEXABUAttackAttribute@@W4DummySubUseType@@@Z PROC ; ioMamaHahaDummy::SetNormalAttackState, COMDAT
; _this$ = ecx

; 548  : {

  00000	68 04 01 00 00	 push	 260			; 00000104H
  00005	b8 00 00 00 00	 mov	 eax, __ehhandler$?SetNormalAttackState@ioMamaHahaDummy@@IAEXABUAttackAttribute@@W4DummySubUseType@@@Z
  0000a	e8 00 00 00 00	 call	 __EH_prolog3_GS
  0000f	8b 7d 08	 mov	 edi, DWORD PTR _rkCurAttribute$[ebp]
  00012	8b f1		 mov	 esi, ecx

; 549  : 	ioBaseChar *pOwner = GetOwner();

  00014	e8 00 00 00 00	 call	 ?GetOwner@ioDummyChar@@QBEPAVioBaseChar@@XZ ; ioDummyChar::GetOwner

; 550  : 	if( !pOwner ) return;

  00019	33 db		 xor	 ebx, ebx
  0001b	89 85 60 ff ff
	ff		 mov	 DWORD PTR _pOwner$[ebp], eax
  00021	3b c3		 cmp	 eax, ebx
  00023	0f 84 9c 07 00
	00		 je	 $LN736@SetNormalA

; 551  : 
; 552  : 	m_State = DCS_MAMAHAHA_STATE;

  00029	c7 86 30 02 00
	00 10 00 00 00	 mov	 DWORD PTR [esi+560], 16	; 00000010H

; 553  : 	m_MamaHahaState = MHS_NONE;

  00033	89 9e 80 14 00
	00		 mov	 DWORD PTR [esi+5248], ebx

; 554  : 
; 555  : 	DWORD dwCurTime = FRAMEGETTIME();

  00039	ff 15 00 00 00
	00		 call	 DWORD PTR __imp_?GetSingleton@ioFrameTimer@@SAAAV1@XZ
  0003f	8b c8		 mov	 ecx, eax
  00041	ff 15 00 00 00
	00		 call	 DWORD PTR __imp_?GetLoopSec@ioFrameTimer@@QBEKXZ

; 556  : 	m_dwAttackAniEndTime = dwCurTime;
; 557  : 
; 558  : 	int iAniID = m_pGroup->GetAnimationIdx( rkCurAttribute.m_AttackAnimation );

  00047	8b 4e 04	 mov	 ecx, DWORD PTR [esi+4]
  0004a	57		 push	 edi
  0004b	89 85 48 ff ff
	ff		 mov	 DWORD PTR _dwCurTime$[ebp], eax
  00051	89 86 e8 06 00
	00		 mov	 DWORD PTR [esi+1768], eax
  00057	ff 15 00 00 00
	00		 call	 DWORD PTR __imp_?GetAnimationIdx@ioEntityGroup@@QAEHABVioHashString@@@Z
  0005d	89 45 94	 mov	 DWORD PTR _iAniID$[ebp], eax

; 559  : 	if( iAniID != -1 )

  00060	83 f8 ff	 cmp	 eax, -1
  00063	0f 84 5c 07 00
	00		 je	 $LN736@SetNormalA

; 560  : 	{
; 561  : 		m_pGroup->ClearAllActionAni( FLOAT10, true );

  00069	b8 0a 00 00 00	 mov	 eax, 10			; 0000000aH
  0006e	89 45 98	 mov	 DWORD PTR tv4674[ebp], eax
  00071	db 45 98	 fild	 DWORD PTR tv4674[ebp]
  00074	6a 01		 push	 1
  00076	85 c0		 test	 eax, eax
  00078	79 06		 jns	 SHORT $LN759@SetNormalA
  0007a	d8 05 00 00 00
	00		 fadd	 DWORD PTR __real@4f800000
$LN759@SetNormalA:
  00080	51		 push	 ecx
  00081	8b 4e 04	 mov	 ecx, DWORD PTR [esi+4]
  00084	d9 1c 24	 fstp	 DWORD PTR [esp]
  00087	ff 15 00 00 00
	00		 call	 DWORD PTR __imp_?ClearAllActionAni@ioEntityGroup@@QAEXM_N@Z

; 562  : 		m_pGroup->ClearAllLoopAni( FLOAT10, true );

  0008d	b8 0a 00 00 00	 mov	 eax, 10			; 0000000aH
  00092	89 45 98	 mov	 DWORD PTR tv4669[ebp], eax
  00095	db 45 98	 fild	 DWORD PTR tv4669[ebp]
  00098	6a 01		 push	 1
  0009a	85 c0		 test	 eax, eax
  0009c	79 06		 jns	 SHORT $LN760@SetNormalA
  0009e	d8 05 00 00 00
	00		 fadd	 DWORD PTR __real@4f800000
$LN760@SetNormalA:
  000a4	51		 push	 ecx
  000a5	8b 4e 04	 mov	 ecx, DWORD PTR [esi+4]
  000a8	d9 1c 24	 fstp	 DWORD PTR [esp]
  000ab	ff 15 00 00 00
	00		 call	 DWORD PTR __imp_?ClearAllLoopAni@ioEntityGroup@@QAEXM_N@Z

; 563  : 
; 564  : 		float fAniRate = rkCurAttribute.m_fAttackAniRate;

  000b1	f3 0f 10 4f 10	 movss	 xmm1, DWORD PTR [edi+16]

; 565  : 		if( fAniRate <= 0.0f )

  000b6	0f 57 c0	 xorps	 xmm0, xmm0
  000b9	0f 2f c1	 comiss	 xmm0, xmm1
  000bc	f3 0f 11 4d 8c	 movss	 DWORD PTR _fAniRate$661926[ebp], xmm1
  000c1	72 18		 jb	 SHORT $LN14@SetNormalA

; 566  : 			fAniRate = FLOAT1;

  000c3	b8 01 00 00 00	 mov	 eax, 1
  000c8	89 45 98	 mov	 DWORD PTR tv4662[ebp], eax
  000cb	db 45 98	 fild	 DWORD PTR tv4662[ebp]
  000ce	85 c0		 test	 eax, eax
  000d0	79 06		 jns	 SHORT $LN761@SetNormalA
  000d2	d8 05 00 00 00
	00		 fadd	 DWORD PTR __real@4f800000
$LN761@SetNormalA:
  000d8	d9 5d 8c	 fstp	 DWORD PTR _fAniRate$661926[ebp]
$LN14@SetNormalA:

; 567  : 
; 568  : 		m_pGroup->SetActionAni( iAniID, FLOAT10, FLOAT10, FLOAT1, FLOAT1/fAniRate, 0.0f, 0.0f, true );

  000db	b8 01 00 00 00	 mov	 eax, 1
  000e0	8b c8		 mov	 ecx, eax
  000e2	b8 01 00 00 00	 mov	 eax, 1
  000e7	8b d0		 mov	 edx, eax
  000e9	b8 0a 00 00 00	 mov	 eax, 10			; 0000000aH
  000ee	89 45 90	 mov	 DWORD PTR $T677572[ebp], eax
  000f1	b8 0a 00 00 00	 mov	 eax, 10			; 0000000aH
  000f6	6a 01		 push	 1
  000f8	6a 01		 push	 1
  000fa	83 ec 18	 sub	 esp, 24			; 00000018H
  000fd	f3 0f 11 44 24
	14		 movss	 DWORD PTR [esp+20], xmm0
  00103	89 4d 98	 mov	 DWORD PTR tv4654[ebp], ecx
  00106	db 45 98	 fild	 DWORD PTR tv4654[ebp]
  00109	f3 0f 11 44 24
	10		 movss	 DWORD PTR [esp+16], xmm0
  0010f	85 c9		 test	 ecx, ecx
  00111	79 06		 jns	 SHORT $LN762@SetNormalA
  00113	d8 05 00 00 00
	00		 fadd	 DWORD PTR __real@4f800000
$LN762@SetNormalA:
  00119	d8 75 8c	 fdiv	 DWORD PTR _fAniRate$661926[ebp]
  0011c	89 55 98	 mov	 DWORD PTR tv4648[ebp], edx
  0011f	d9 9d 7c ff ff
	ff		 fstp	 DWORD PTR tv4650[ebp]
  00125	d9 85 7c ff ff
	ff		 fld	 DWORD PTR tv4650[ebp]
  0012b	d9 5c 24 0c	 fstp	 DWORD PTR [esp+12]
  0012f	db 45 98	 fild	 DWORD PTR tv4648[ebp]
  00132	85 d2		 test	 edx, edx
  00134	79 06		 jns	 SHORT $LN763@SetNormalA
  00136	d8 05 00 00 00
	00		 fadd	 DWORD PTR __real@4f800000
$LN763@SetNormalA:
  0013c	8b 4d 90	 mov	 ecx, DWORD PTR $T677572[ebp]
  0013f	d9 5c 24 08	 fstp	 DWORD PTR [esp+8]
  00143	db 45 90	 fild	 DWORD PTR $T677572[ebp]
  00146	85 c9		 test	 ecx, ecx
  00148	79 06		 jns	 SHORT $LN764@SetNormalA
  0014a	d8 05 00 00 00
	00		 fadd	 DWORD PTR __real@4f800000
$LN764@SetNormalA:
  00150	d9 5c 24 04	 fstp	 DWORD PTR [esp+4]
  00154	89 45 98	 mov	 DWORD PTR tv4644[ebp], eax
  00157	db 45 98	 fild	 DWORD PTR tv4644[ebp]
  0015a	85 c0		 test	 eax, eax
  0015c	79 06		 jns	 SHORT $LN765@SetNormalA
  0015e	d8 05 00 00 00
	00		 fadd	 DWORD PTR __real@4f800000
$LN765@SetNormalA:
  00164	8b 4e 04	 mov	 ecx, DWORD PTR [esi+4]
  00167	d9 1c 24	 fstp	 DWORD PTR [esp]
  0016a	ff 75 94	 push	 DWORD PTR _iAniID$[ebp]
  0016d	ff 15 00 00 00
	00		 call	 DWORD PTR __imp_?SetActionAni@ioEntityGroup@@QAE_NHMMMMMM_N0@Z

; 569  : 		m_dwAttackAniEndTime += m_pGroup->GetAnimationFullTime( iAniID ) * fAniRate;

  00173	ff 75 94	 push	 DWORD PTR _iAniID$[ebp]
  00176	8b 4e 04	 mov	 ecx, DWORD PTR [esi+4]
  00179	ff 15 00 00 00
	00		 call	 DWORD PTR __imp_?GetAnimationFullTime@ioEntityGroup@@QAEMH@Z
  0017f	d8 4d 8c	 fmul	 DWORD PTR _fAniRate$661926[ebp]
  00182	8b 86 e8 06 00
	00		 mov	 eax, DWORD PTR [esi+1768]
  00188	db 86 e8 06 00
	00		 fild	 DWORD PTR [esi+1768]
  0018e	85 c0		 test	 eax, eax
  00190	79 06		 jns	 SHORT $LN766@SetNormalA
  00192	dc 05 00 00 00
	00		 fadd	 QWORD PTR __real@41f0000000000000
$LN766@SetNormalA:
  00198	de c1		 faddp	 ST(1), ST(0)
  0019a	e8 00 00 00 00	 call	 __ftol2
  0019f	89 86 e8 06 00
	00		 mov	 DWORD PTR [esi+1768], eax

; 570  : 
; 571  : 		// fire 
; 572  : 		AniEventConstPtrList vFireStartList;

  001a5	89 9d 64 ff ff
	ff		 mov	 DWORD PTR _vFireStartList$662251[ebp], ebx
  001ab	89 9d 68 ff ff
	ff		 mov	 DWORD PTR _vFireStartList$662251[ebp+4], ebx
  001b1	89 9d 6c ff ff
	ff		 mov	 DWORD PTR _vFireStartList$662251[ebp+8], ebx

; 573  : 		m_pGroup->GetAnimationEventConstPtrList_e( iAniID, "fire_s", vFireStartList );

  001b7	8b 46 04	 mov	 eax, DWORD PTR [esi+4]
  001ba	6a 04		 push	 4
  001bc	89 85 7c ff ff
	ff		 mov	 DWORD PTR $T677731[ebp], eax
  001c2	c7 45 e4 8b 85
	99 8f		 mov	 DWORD PTR _szEncEventType$677634[ebp], -1885764213 ; 8f99858bH
  001c9	81 75 e4 ed ec
	eb ea		 xor	 DWORD PTR _szEncEventType$677634[ebp], -353637139 ; eaebecedH
  001d0	89 5d fc	 mov	 DWORD PTR __$EHRec$[ebp+8], ebx
  001d3	66 c7 45 e8 b2
	9f		 mov	 WORD PTR _szEncEventType$677634[ebp+4], 40882 ; 00009fb2H
  001d9	88 5d ea	 mov	 BYTE PTR _szEncEventType$677634[ebp+6], bl
  001dc	58		 pop	 eax
$LL151@SetNormalA:
  001dd	8b c8		 mov	 ecx, eax
  001df	81 e1 03 00 00
	80		 and	 ecx, -2147483645	; 80000003H
  001e5	79 05		 jns	 SHORT $LN767@SetNormalA
  001e7	49		 dec	 ecx
  001e8	83 c9 fc	 or	 ecx, -4			; fffffffcH
  001eb	41		 inc	 ecx
$LN767@SetNormalA:
  001ec	b2 ed		 mov	 dl, -19			; ffffffedH
  001ee	2a d1		 sub	 dl, cl
  001f0	30 54 05 e4	 xor	 BYTE PTR _szEncEventType$677634[ebp+eax], dl
  001f4	40		 inc	 eax
  001f5	83 f8 06	 cmp	 eax, 6
  001f8	7c e3		 jl	 SHORT $LL151@SetNormalA
  001fa	8d 45 e4	 lea	 eax, DWORD PTR _szEncEventType$677634[ebp]
  001fd	50		 push	 eax
  001fe	8d 4d c4	 lea	 ecx, DWORD PTR $T677621[ebp]
  00201	ff 15 00 00 00
	00		 call	 DWORD PTR __imp_??0ioHashString@@QAE@PBD@Z
  00207	8b 8d 7c ff ff
	ff		 mov	 ecx, DWORD PTR $T677731[ebp]
  0020d	8d 85 64 ff ff
	ff		 lea	 eax, DWORD PTR _vFireStartList$662251[ebp]
  00213	50		 push	 eax
  00214	8d 45 c4	 lea	 eax, DWORD PTR $T677621[ebp]
  00217	50		 push	 eax
  00218	ff 75 94	 push	 DWORD PTR _iAniID$[ebp]
  0021b	c6 45 fc 01	 mov	 BYTE PTR __$EHRec$[ebp+8], 1
  0021f	ff 15 00 00 00
	00		 call	 DWORD PTR __imp_?GetAnimationEventConstPtrList@ioEntityGroup@@QAEHHABVioHashString@@AAV?$vector@PBUAniEventTime@@V?$allocator@PBUAniEventTime@@@std@@@std@@@Z
  00225	8d 4d c4	 lea	 ecx, DWORD PTR $T677621[ebp]
  00228	88 5d fc	 mov	 BYTE PTR __$EHRec$[ebp+8], bl
  0022b	ff 15 00 00 00
	00		 call	 DWORD PTR __imp_??1ioHashString@@QAE@XZ

; 574  : 
; 575  : 		std::list<float> vFireEndList;

  00231	51		 push	 ecx
  00232	89 65 98	 mov	 DWORD PTR $T677740[ebp], esp
  00235	8d 4d 80	 lea	 ecx, DWORD PTR _vFireEndList$662262[ebp]
  00238	89 65 98	 mov	 DWORD PTR $T677738[ebp], esp
  0023b	e8 00 00 00 00	 call	 ??0?$_List_val@MV?$allocator@M@std@@@std@@QAE@V?$allocator@M@1@@Z ; std::_List_val<float,std::allocator<float> >::_List_val<float,std::allocator<float> >

; 576  : 		m_pGroup->GetAnimationEventTimeList_e( iAniID, "fire_e", vFireEndList );

  00240	8b 46 04	 mov	 eax, DWORD PTR [esi+4]
  00243	6a 04		 push	 4
  00245	89 85 7c ff ff
	ff		 mov	 DWORD PTR $T677874[ebp], eax
  0024b	c7 45 e4 8b 85
	99 8f		 mov	 DWORD PTR _szEncEventType$677873[ebp], -1885764213 ; 8f99858bH
  00252	81 75 e4 ed ec
	eb ea		 xor	 DWORD PTR _szEncEventType$677873[ebp], -353637139 ; eaebecedH
  00259	c6 45 fc 02	 mov	 BYTE PTR __$EHRec$[ebp+8], 2
  0025d	66 c7 45 e8 b2
	89		 mov	 WORD PTR _szEncEventType$677873[ebp+4], 35250 ; 000089b2H
  00263	88 5d ea	 mov	 BYTE PTR _szEncEventType$677873[ebp+6], bl
  00266	58		 pop	 eax
$LL263@SetNormalA:
  00267	8b c8		 mov	 ecx, eax
  00269	81 e1 03 00 00
	80		 and	 ecx, -2147483645	; 80000003H
  0026f	79 05		 jns	 SHORT $LN768@SetNormalA
  00271	49		 dec	 ecx
  00272	83 c9 fc	 or	 ecx, -4			; fffffffcH
  00275	41		 inc	 ecx
$LN768@SetNormalA:
  00276	b2 ed		 mov	 dl, -19			; ffffffedH
  00278	2a d1		 sub	 dl, cl
  0027a	30 54 05 e4	 xor	 BYTE PTR _szEncEventType$677873[ebp+eax], dl
  0027e	40		 inc	 eax
  0027f	83 f8 06	 cmp	 eax, 6
  00282	7c e3		 jl	 SHORT $LL263@SetNormalA
  00284	8d 45 e4	 lea	 eax, DWORD PTR _szEncEventType$677873[ebp]
  00287	50		 push	 eax
  00288	8d 4d c4	 lea	 ecx, DWORD PTR $T677860[ebp]
  0028b	ff 15 00 00 00
	00		 call	 DWORD PTR __imp_??0ioHashString@@QAE@PBD@Z
  00291	8b 8d 7c ff ff
	ff		 mov	 ecx, DWORD PTR $T677874[ebp]
  00297	8d 45 80	 lea	 eax, DWORD PTR _vFireEndList$662262[ebp]
  0029a	50		 push	 eax
  0029b	8d 45 c4	 lea	 eax, DWORD PTR $T677860[ebp]
  0029e	50		 push	 eax
  0029f	ff 75 94	 push	 DWORD PTR _iAniID$[ebp]
  002a2	c6 45 fc 03	 mov	 BYTE PTR __$EHRec$[ebp+8], 3
  002a6	ff 15 00 00 00
	00		 call	 DWORD PTR __imp_?GetAnimationEventTimeList@ioEntityGroup@@QAEHHABVioHashString@@AAV?$list@MV?$allocator@M@std@@@std@@@Z
  002ac	8d 4d c4	 lea	 ecx, DWORD PTR $T677860[ebp]
  002af	c6 45 fc 02	 mov	 BYTE PTR __$EHRec$[ebp+8], 2
  002b3	ff 15 00 00 00
	00		 call	 DWORD PTR __imp_??1ioHashString@@QAE@XZ

; 577  : 
; 578  : 		const WeaponInfoList &vInfoList = rkCurAttribute.m_vWeaponInfoList;
; 579  : 		if( vFireStartList.size() != vInfoList.size() )

  002b9	8b 47 2c	 mov	 eax, DWORD PTR [edi+44]
  002bc	2b 47 28	 sub	 eax, DWORD PTR [edi+40]
  002bf	6a 28		 push	 40			; 00000028H
  002c1	99		 cdq
  002c2	59		 pop	 ecx
  002c3	f7 f9		 idiv	 ecx
  002c5	8b 8d 68 ff ff
	ff		 mov	 ecx, DWORD PTR _vFireStartList$662251[ebp+4]
  002cb	2b 8d 64 ff ff
	ff		 sub	 ecx, DWORD PTR _vFireStartList$662251[ebp]
  002d1	c1 f9 02	 sar	 ecx, 2
  002d4	3b c8		 cmp	 ecx, eax

; 580  : 			return;

  002d6	0f 85 c9 04 00
	00		 jne	 $LN771@SetNormalA

; 581  : 
; 582  : 		m_dwBaseWeaponIndex = pOwner->IncreaseWeaponIndexBase();

  002dc	8b 8d 60 ff ff
	ff		 mov	 ecx, DWORD PTR _pOwner$[ebp]
  002e2	e8 00 00 00 00	 call	 ?IncreaseWeaponIndexBase@ioBaseChar@@QAEKXZ ; ioBaseChar::IncreaseWeaponIndexBase

; 583  : 		DWORD dwStartTime = dwCurTime + rkCurAttribute.m_dwPreDelay;
; 584  : 
; 585  : 		int i=0;
; 586  : 		AniEventConstPtrList::iterator iter;
; 587  : 
; 588  : 		std::list< float >::iterator iterEndTime = vFireEndList.begin();

  002e7	8b 4d 80	 mov	 ecx, DWORD PTR _vFireEndList$662262[ebp]
  002ea	89 86 30 06 00
	00		 mov	 DWORD PTR [esi+1584], eax
  002f0	8b 09		 mov	 ecx, DWORD PTR [ecx]
  002f2	8b 47 48	 mov	 eax, DWORD PTR [edi+72]
  002f5	03 85 48 ff ff
	ff		 add	 eax, DWORD PTR _dwCurTime$[ebp]
  002fb	89 8d 60 ff ff
	ff		 mov	 DWORD PTR _iterEndTime$662544[ebp], ecx

; 589  : 		for( iter=vFireStartList.begin() ; iter!=vFireStartList.end() ; ++iter, i++ )

  00301	8b 8d 64 ff ff
	ff		 mov	 ecx, DWORD PTR _vFireStartList$662251[ebp]
  00307	89 9d 7c ff ff
	ff		 mov	 DWORD PTR _i$662276[ebp], ebx
  0030d	89 8d 74 ff ff
	ff		 mov	 DWORD PTR _iter$662403[ebp], ecx
  00313	3b 8d 68 ff ff
	ff		 cmp	 ecx, DWORD PTR _vFireStartList$662251[ebp+4]
  00319	0f 84 48 02 00
	00		 je	 $LN10@SetNormalA
  0031f	89 45 98	 mov	 DWORD PTR tv4602[ebp], eax
  00322	db 45 98	 fild	 DWORD PTR tv4602[ebp]
  00325	85 c0		 test	 eax, eax
  00327	79 06		 jns	 SHORT $LN769@SetNormalA
  00329	d8 05 00 00 00
	00		 fadd	 DWORD PTR __real@4f800000
$LN769@SetNormalA:
  0032f	d9 5d 98	 fstp	 DWORD PTR tv3974[ebp]
  00332	89 9d 4c ff ff
	ff		 mov	 DWORD PTR tv4652[ebp], ebx
$LN12@SetNormalA:

; 590  : 		{
; 591  : 			float fFireStart = (*iter)->fEventTime;

  00338	8b 85 74 ff ff
	ff		 mov	 eax, DWORD PTR _iter$662403[ebp]
  0033e	8b 00		 mov	 eax, DWORD PTR [eax]
  00340	d9 00		 fld	 DWORD PTR [eax]

; 592  : 
; 593  : 			FireTime kFireTime;

  00342	8d 8d f0 fe ff
	ff		 lea	 ecx, DWORD PTR _kFireTime$662568[ebp]
  00348	d9 5d 90	 fstp	 DWORD PTR _fFireStart$662567[ebp]
  0034b	e8 00 00 00 00	 call	 ??0FireTime@@QAE@XZ	; FireTime::FireTime

; 594  : 			kFireTime.dwStart = dwStartTime + fFireStart * fAniRate;

  00350	d9 45 90	 fld	 DWORD PTR _fFireStart$662567[ebp]
  00353	d8 4d 8c	 fmul	 DWORD PTR _fAniRate$661926[ebp]
  00356	c6 45 fc 04	 mov	 BYTE PTR __$EHRec$[ebp+8], 4
  0035a	d8 45 98	 fadd	 DWORD PTR tv3974[ebp]
  0035d	e8 00 00 00 00	 call	 __ftol2
  00362	89 85 f0 fe ff
	ff		 mov	 DWORD PTR _kFireTime$662568[ebp], eax

; 595  : 
; 596  : 			if( iterEndTime != vFireEndList.end() )

  00368	8b 85 60 ff ff
	ff		 mov	 eax, DWORD PTR _iterEndTime$662544[ebp]
  0036e	3b 45 80	 cmp	 eax, DWORD PTR _vFireEndList$662262[ebp]
  00371	74 22		 je	 SHORT $LN353@SetNormalA

; 597  : 			{
; 598  : 				kFireTime.dwDuration = ( *iterEndTime - fFireStart ) * fAniRate;

  00373	d9 40 08	 fld	 DWORD PTR [eax+8]
  00376	d8 65 90	 fsub	 DWORD PTR _fFireStart$662567[ebp]
  00379	d8 4d 8c	 fmul	 DWORD PTR _fAniRate$661926[ebp]
  0037c	e8 00 00 00 00	 call	 __ftol2
  00381	89 85 f4 fe ff
	ff		 mov	 DWORD PTR _kFireTime$662568[ebp+4], eax

; 599  : 				++iterEndTime;

  00387	8b 85 60 ff ff
	ff		 mov	 eax, DWORD PTR _iterEndTime$662544[ebp]
  0038d	8b 00		 mov	 eax, DWORD PTR [eax]
  0038f	89 85 60 ff ff
	ff		 mov	 DWORD PTR _iterEndTime$662544[ebp], eax
$LN353@SetNormalA:

; 600  : 			}
; 601  : 
; 602  : 			kFireTime.iAttributeIdx  = vInfoList[i].m_iWeaponIdx;

  00395	8b 47 28	 mov	 eax, DWORD PTR [edi+40]
  00398	03 85 4c ff ff
	ff		 add	 eax, DWORD PTR tv4652[ebp]
  0039e	8b 08		 mov	 ecx, DWORD PTR [eax]
  003a0	89 8d f8 fe ff
	ff		 mov	 DWORD PTR _kFireTime$662568[ebp+8], ecx

; 603  : 			kFireTime.iResistanceIdx = vInfoList[i].m_iResistanceIdx;

  003a6	8b 48 04	 mov	 ecx, DWORD PTR [eax+4]

; 604  : 			kFireTime.szWoundedAni   = vInfoList[i].m_WoundedAnimation;

  003a9	83 c0 08	 add	 eax, 8
  003ac	89 8d fc fe ff
	ff		 mov	 DWORD PTR _kFireTime$662568[ebp+12], ecx
  003b2	50		 push	 eax
  003b3	8d 8d 04 ff ff
	ff		 lea	 ecx, DWORD PTR _kFireTime$662568[ebp+20]
  003b9	ff 15 00 00 00
	00		 call	 DWORD PTR __imp_??4ioHashString@@QAEAAV0@ABV0@@Z

; 605  : 			kFireTime.dwWoundedAniDuration  = vInfoList[i].m_dwWoundedDuration;

  003bf	8b 47 28	 mov	 eax, DWORD PTR [edi+40]
  003c2	03 85 4c ff ff
	ff		 add	 eax, DWORD PTR tv4652[ebp]
  003c8	8b 48 18	 mov	 ecx, DWORD PTR [eax+24]
  003cb	89 8d 14 ff ff
	ff		 mov	 DWORD PTR _kFireTime$662568[ebp+36], ecx

; 606  : 			kFireTime.bLoopWoundedAni = vInfoList[i].m_bWoundedLoopAni;

  003d1	8a 40 20	 mov	 al, BYTE PTR [eax+32]
  003d4	88 85 00 ff ff
	ff		 mov	 BYTE PTR _kFireTime$662568[ebp+16], al

; 607  : 
; 608  : 			kFireTime.dwWeaponIdx = m_dwBaseWeaponIndex + i;

  003da	8b 86 30 06 00
	00		 mov	 eax, DWORD PTR [esi+1584]
  003e0	03 85 7c ff ff
	ff		 add	 eax, DWORD PTR _i$662276[ebp]
  003e6	89 85 18 ff ff
	ff		 mov	 DWORD PTR _kFireTime$662568[ebp+40], eax

; 609  : 
; 610  : 			if( !(*iter)->szSubInfo.IsEmpty() )

  003ec	8b 85 74 ff ff
	ff		 mov	 eax, DWORD PTR _iter$662403[ebp]
  003f2	8b 08		 mov	 ecx, DWORD PTR [eax]
  003f4	83 c1 14	 add	 ecx, 20			; 00000014H
  003f7	ff 15 00 00 00
	00		 call	 DWORD PTR __imp_?IsEmpty@ioHashString@@QBE_NXZ
  003fd	84 c0		 test	 al, al
  003ff	0f 85 02 01 00
	00		 jne	 $LN7@SetNormalA

; 611  : 			{
; 612  : 				const StringVector &vParam = ioStringConverter::Split( (*iter)->szSubInfo.c_str(), " " );

  00405	6a 01		 push	 1
  00407	68 00 00 00 00	 push	 OFFSET ??_C@_01CLKCMJKC@?5?$AA@
  0040c	8d 4d 9c	 lea	 ecx, DWORD PTR $T662589[ebp]
  0040f	c7 45 b0 0f 00
	00 00		 mov	 DWORD PTR $T662589[ebp+20], 15 ; 0000000fH
  00416	89 5d ac	 mov	 DWORD PTR $T662589[ebp+16], ebx
  00419	88 5d 9c	 mov	 BYTE PTR $T662589[ebp], bl
  0041c	e8 00 00 00 00	 call	 ?assign@?$basic_string@DU?$char_traits@D@std@@V?$allocator@D@2@@std@@QAEAAV12@PBDI@Z ; std::basic_string<char,std::char_traits<char>,std::allocator<char> >::assign
  00421	8b 85 74 ff ff
	ff		 mov	 eax, DWORD PTR _iter$662403[ebp]
  00427	8b 08		 mov	 ecx, DWORD PTR [eax]
  00429	83 c1 14	 add	 ecx, 20			; 00000014H
  0042c	c6 45 fc 05	 mov	 BYTE PTR __$EHRec$[ebp+8], 5
  00430	ff 15 00 00 00
	00		 call	 DWORD PTR __imp_?c_str@ioHashString@@QBEPBDXZ
  00436	50		 push	 eax
  00437	8d 4d d4	 lea	 ecx, DWORD PTR $T662590[ebp]
  0043a	c7 45 e8 0f 00
	00 00		 mov	 DWORD PTR $T662590[ebp+20], 15 ; 0000000fH
  00441	89 5d e4	 mov	 DWORD PTR $T662590[ebp+16], ebx
  00444	88 5d d4	 mov	 BYTE PTR $T662590[ebp], bl
  00447	e8 00 00 00 00	 call	 ?assign@?$basic_string@DU?$char_traits@D@std@@V?$allocator@D@2@@std@@QAEAAV12@PBD@Z ; std::basic_string<char,std::char_traits<char>,std::allocator<char> >::assign
  0044c	53		 push	 ebx
  0044d	8d 45 9c	 lea	 eax, DWORD PTR $T662589[ebp]
  00450	50		 push	 eax
  00451	8d 45 d4	 lea	 eax, DWORD PTR $T662590[ebp]
  00454	50		 push	 eax
  00455	c6 45 fc 06	 mov	 BYTE PTR __$EHRec$[ebp+8], 6
  00459	ff 15 00 00 00
	00		 call	 DWORD PTR __imp_?Split@ioStringConverter@@SAABV?$vector@V?$basic_string@DU?$char_traits@D@std@@V?$allocator@D@2@@std@@V?$allocator@V?$basic_string@DU?$char_traits@D@std@@V?$allocator@D@2@@std@@@2@@std@@ABV?$basic_string@DU?$char_traits@D@std@@V?$allocator@D@2@@3@0H@Z
  0045f	83 c4 0c	 add	 esp, 12			; 0000000cH
  00462	53		 push	 ebx
  00463	6a 01		 push	 1
  00465	8d 4d d4	 lea	 ecx, DWORD PTR $T662590[ebp]
  00468	89 45 90	 mov	 DWORD PTR _vParam$662588[ebp], eax
  0046b	e8 00 00 00 00	 call	 ?_Tidy@?$basic_string@DU?$char_traits@D@std@@V?$allocator@D@2@@std@@QAEX_NI@Z ; std::basic_string<char,std::char_traits<char>,std::allocator<char> >::_Tidy
  00470	53		 push	 ebx
  00471	6a 01		 push	 1
  00473	8d 4d 9c	 lea	 ecx, DWORD PTR $T662589[ebp]
  00476	c6 45 fc 04	 mov	 BYTE PTR __$EHRec$[ebp+8], 4
  0047a	e8 00 00 00 00	 call	 ?_Tidy@?$basic_string@DU?$char_traits@D@std@@V?$allocator@D@2@@std@@QAEX_NI@Z ; std::basic_string<char,std::char_traits<char>,std::allocator<char> >::_Tidy

; 613  : 				if( vParam.size() >= 1 )

  0047f	8b 45 90	 mov	 eax, DWORD PTR _vParam$662588[ebp]
  00482	8b 08		 mov	 ecx, DWORD PTR [eax]
  00484	8b 40 04	 mov	 eax, DWORD PTR [eax+4]
  00487	2b c1		 sub	 eax, ecx
  00489	6a 1c		 push	 28			; 0000001cH
  0048b	99		 cdq
  0048c	59		 pop	 ecx
  0048d	f7 f9		 idiv	 ecx
  0048f	83 f8 01	 cmp	 eax, 1
  00492	72 73		 jb	 SHORT $LN7@SetNormalA

; 614  : 				{
; 615  : 					ioHashString szTypeName = vParam[0].c_str();

  00494	8b 45 90	 mov	 eax, DWORD PTR _vParam$662588[ebp]
  00497	8b 00		 mov	 eax, DWORD PTR [eax]
  00499	83 78 14 10	 cmp	 DWORD PTR [eax+20], 16	; 00000010H
  0049d	72 02		 jb	 SHORT $LN447@SetNormalA
  0049f	8b 00		 mov	 eax, DWORD PTR [eax]
$LN447@SetNormalA:
  004a1	50		 push	 eax
  004a2	8d 4d c4	 lea	 ecx, DWORD PTR _szTypeName$662592[ebp]
  004a5	ff 15 00 00 00
	00		 call	 DWORD PTR __imp_??0ioHashString@@QAE@PBD@Z

; 616  : 					kFireTime.eCollisionType = GetAniCollisionType( szTypeName );

  004ab	8d 45 c4	 lea	 eax, DWORD PTR _szTypeName$662592[ebp]
  004ae	50		 push	 eax
  004af	c6 45 fc 07	 mov	 BYTE PTR __$EHRec$[ebp+8], 7
  004b3	e8 00 00 00 00	 call	 ?GetAniCollisionType@@YA?AW4AniCollisionType@@ABVioHashString@@@Z ; GetAniCollisionType
  004b8	89 85 1c ff ff
	ff		 mov	 DWORD PTR _kFireTime$662568[ebp+44], eax

; 617  : 
; 618  : 					if( vParam.size() == 2 && kFireTime.eCollisionType == ACT_SPECIAL )

  004be	8b 45 90	 mov	 eax, DWORD PTR _vParam$662588[ebp]
  004c1	59		 pop	 ecx
  004c2	8b 08		 mov	 ecx, DWORD PTR [eax]
  004c4	8b 40 04	 mov	 eax, DWORD PTR [eax+4]
  004c7	2b c1		 sub	 eax, ecx
  004c9	6a 1c		 push	 28			; 0000001cH
  004cb	89 4d 90	 mov	 DWORD PTR tv4016[ebp], ecx
  004ce	99		 cdq
  004cf	59		 pop	 ecx
  004d0	f7 f9		 idiv	 ecx
  004d2	83 f8 02	 cmp	 eax, 2
  004d5	75 23		 jne	 SHORT $LN6@SetNormalA
  004d7	83 bd 1c ff ff
	ff 07		 cmp	 DWORD PTR _kFireTime$662568[ebp+44], 7
  004de	75 1a		 jne	 SHORT $LN6@SetNormalA

; 619  : 					{
; 620  : 						kFireTime.szSpecialCollisionBox = vParam[1].c_str();

  004e0	8b 45 90	 mov	 eax, DWORD PTR tv4016[ebp]
  004e3	03 c1		 add	 eax, ecx
  004e5	83 78 14 10	 cmp	 DWORD PTR [eax+20], 16	; 00000010H
  004e9	72 02		 jb	 SHORT $LN457@SetNormalA
  004eb	8b 00		 mov	 eax, DWORD PTR [eax]
$LN457@SetNormalA:
  004ed	50		 push	 eax
  004ee	8d 8d 20 ff ff
	ff		 lea	 ecx, DWORD PTR _kFireTime$662568[ebp+48]
  004f4	ff 15 00 00 00
	00		 call	 DWORD PTR __imp_??4ioHashString@@QAEAAV0@PBD@Z
$LN6@SetNormalA:

; 621  : 					}
; 622  : 				}

  004fa	8d 4d c4	 lea	 ecx, DWORD PTR _szTypeName$662592[ebp]
  004fd	c6 45 fc 04	 mov	 BYTE PTR __$EHRec$[ebp+8], 4
  00501	ff 15 00 00 00
	00		 call	 DWORD PTR __imp_??1ioHashString@@QAE@XZ
$LN7@SetNormalA:

; 623  : 			}
; 624  : 
; 625  : 			kFireTime.eFireTimeType = FTT_DUMMY_CHAR_ATTACK;
; 626  : 			kFireTime.m_iExtraValue = m_iCreateIndex;

  00507	8b 86 dc 01 00
	00		 mov	 eax, DWORD PTR [esi+476]

; 627  : 
; 628  : 			m_vAttackFireTimeList.push_back( kFireTime );

  0050d	8d 8e 78 05 00
	00		 lea	 ecx, DWORD PTR [esi+1400]
  00513	8d 95 f0 fe ff
	ff		 lea	 edx, DWORD PTR _kFireTime$662568[ebp]
  00519	89 85 44 ff ff
	ff		 mov	 DWORD PTR _kFireTime$662568[ebp+84], eax
  0051f	8b 01		 mov	 eax, DWORD PTR [ecx]
  00521	52		 push	 edx
  00522	50		 push	 eax
  00523	c7 85 30 ff ff
	ff 0b 00 00 00	 mov	 DWORD PTR _kFireTime$662568[ebp+64], 11 ; 0000000bH
  0052d	e8 00 00 00 00	 call	 ?_Insert@?$list@UFireTime@@V?$allocator@UFireTime@@@std@@@std@@QAEXV?$_List_const_iterator@V?$_List_val@UFireTime@@V?$allocator@UFireTime@@@std@@@std@@@2@ABUFireTime@@@Z ; std::list<FireTime,std::allocator<FireTime> >::_Insert

; 629  : 		}

  00532	8d 8d f0 fe ff
	ff		 lea	 ecx, DWORD PTR _kFireTime$662568[ebp]
  00538	c6 45 fc 02	 mov	 BYTE PTR __$EHRec$[ebp+8], 2
  0053c	e8 00 00 00 00	 call	 ??1FireTime@@QAE@XZ
  00541	83 85 74 ff ff
	ff 04		 add	 DWORD PTR _iter$662403[ebp], 4
  00548	8b 85 74 ff ff
	ff		 mov	 eax, DWORD PTR _iter$662403[ebp]
  0054e	ff 85 7c ff ff
	ff		 inc	 DWORD PTR _i$662276[ebp]
  00554	83 85 4c ff ff
	ff 28		 add	 DWORD PTR tv4652[ebp], 40 ; 00000028H
  0055b	3b 85 68 ff ff
	ff		 cmp	 eax, DWORD PTR _vFireStartList$662251[ebp+4]
  00561	0f 85 d1 fd ff
	ff		 jne	 $LN12@SetNormalA
$LN10@SetNormalA:

; 630  : 
; 631  : 		SetReservedSliding( rkCurAttribute.m_vForceInfoList, iAniID, fAniRate, rkCurAttribute.m_dwPreDelay );

  00567	f3 0f 10 45 8c	 movss	 xmm0, DWORD PTR _fAniRate$661926[ebp]
  0056c	6a 01		 push	 1
  0056e	ff 77 48	 push	 DWORD PTR [edi+72]
  00571	83 c7 38	 add	 edi, 56			; 00000038H
  00574	51		 push	 ecx
  00575	f3 0f 11 04 24	 movss	 DWORD PTR [esp], xmm0
  0057a	ff 75 94	 push	 DWORD PTR _iAniID$[ebp]
  0057d	8b ce		 mov	 ecx, esi
  0057f	57		 push	 edi
  00580	e8 00 00 00 00	 call	 ?SetReservedSliding@ioDummyChar@@QAEXABV?$vector@UForceInfo@@V?$allocator@UForceInfo@@@std@@@std@@HMK_N@Z ; ioDummyChar::SetReservedSliding

; 632  : 		//  
; 633  : 
; 634  : 		m_dwExtraAniJumpTime = 0;
; 635  : 		m_fExtraAniJumpPower = 0.0f;

  00585	0f 57 c0	 xorps	 xmm0, xmm0
  00588	89 9e 2c 0b 00
	00		 mov	 DWORD PTR [esi+2860], ebx
  0058e	f3 0f 11 86 30
	0b 00 00	 movss	 DWORD PTR [esi+2864], xmm0

; 636  : 		m_vExtraAniJumpList.clear();

  00596	8b 86 3c 0b 00
	00		 mov	 eax, DWORD PTR [esi+2876]
  0059c	8b 8e 38 0b 00
	00		 mov	 ecx, DWORD PTR [esi+2872]
  005a2	50		 push	 eax
  005a3	51		 push	 ecx
  005a4	8d 45 98	 lea	 eax, DWORD PTR $T678517[ebp]
  005a7	50		 push	 eax
  005a8	8d 8e 38 0b 00
	00		 lea	 ecx, DWORD PTR [esi+2872]
  005ae	e8 00 00 00 00	 call	 ?erase@?$vector@UExtraAniJump@@V?$allocator@UExtraAniJump@@@std@@@std@@QAE?AV?$_Vector_iterator@V?$_Vector_val@UExtraAniJump@@V?$allocator@UExtraAniJump@@@std@@@std@@@2@V?$_Vector_const_iterator@V?$_Vector_val@UExtraAniJump@@V?$allocator@UExtraAniJump@@@std@@@std@@@2@0@Z ; std::vector<ExtraAniJump,std::allocator<ExtraAniJump> >::erase

; 637  : 
; 638  : 		AniEventConstPtrList vExtraAniJumpList;

  005b3	89 9d 50 ff ff
	ff		 mov	 DWORD PTR _vExtraAniJumpList$662594[ebp], ebx
  005b9	89 9d 54 ff ff
	ff		 mov	 DWORD PTR _vExtraAniJumpList$662594[ebp+4], ebx
  005bf	89 9d 58 ff ff
	ff		 mov	 DWORD PTR _vExtraAniJumpList$662594[ebp+8], ebx

; 639  : 		m_pGroup->GetAnimationEventConstPtrList_e( iAniID, "extra_ani_jump", vExtraAniJumpList );

  005c5	8b 46 04	 mov	 eax, DWORD PTR [esi+4]
  005c8	6a 03		 push	 3
  005ca	89 45 98	 mov	 DWORD PTR $T678690[ebp], eax
  005cd	c6 45 fc 08	 mov	 BYTE PTR __$EHRec$[ebp+8], 8
  005d1	c7 45 dc 88 94
	9f 98		 mov	 DWORD PTR _szEncEventType$678578[ebp], -1734372216 ; 989f9488H
  005d8	c7 45 e0 8c b3
	8a 84		 mov	 DWORD PTR _szEncEventType$678578[ebp+4], -2071284852 ; 848ab38cH
  005df	c7 45 e4 84 b3
	81 9f		 mov	 DWORD PTR _szEncEventType$678578[ebp+8], -1618889852 ; 9f81b384H
  005e6	66 c7 45 e8 80
	9c		 mov	 WORD PTR _szEncEventType$678578[ebp+12], 40064 ; 00009c80H
  005ec	8d 45 dc	 lea	 eax, DWORD PTR _szEncEventType$678578[ebp]
  005ef	88 5d ea	 mov	 BYTE PTR _szEncEventType$678578[ebp+14], bl
  005f2	59		 pop	 ecx
$LL601@SetNormalA:
  005f3	81 30 ed ec eb
	ea		 xor	 DWORD PTR [eax], -353637139 ; eaebecedH
  005f9	83 c0 04	 add	 eax, 4
  005fc	49		 dec	 ecx
  005fd	75 f4		 jne	 SHORT $LL601@SetNormalA
  005ff	6a 0c		 push	 12			; 0000000cH
  00601	58		 pop	 eax
$LL598@SetNormalA:
  00602	8b c8		 mov	 ecx, eax
  00604	81 e1 03 00 00
	80		 and	 ecx, -2147483645	; 80000003H
  0060a	79 05		 jns	 SHORT $LN770@SetNormalA
  0060c	49		 dec	 ecx
  0060d	83 c9 fc	 or	 ecx, -4			; fffffffcH
  00610	41		 inc	 ecx
$LN770@SetNormalA:
  00611	b2 ed		 mov	 dl, -19			; ffffffedH
  00613	2a d1		 sub	 dl, cl
  00615	30 54 05 dc	 xor	 BYTE PTR _szEncEventType$678578[ebp+eax], dl
  00619	40		 inc	 eax
  0061a	83 f8 0e	 cmp	 eax, 14			; 0000000eH
  0061d	7c e3		 jl	 SHORT $LL598@SetNormalA
  0061f	8d 45 dc	 lea	 eax, DWORD PTR _szEncEventType$678578[ebp]
  00622	50		 push	 eax
  00623	8d 4d c4	 lea	 ecx, DWORD PTR $T678678[ebp]
  00626	ff 15 00 00 00
	00		 call	 DWORD PTR __imp_??0ioHashString@@QAE@PBD@Z
  0062c	8b 4d 98	 mov	 ecx, DWORD PTR $T678690[ebp]
  0062f	8d 85 50 ff ff
	ff		 lea	 eax, DWORD PTR _vExtraAniJumpList$662594[ebp]
  00635	50		 push	 eax
  00636	8d 45 c4	 lea	 eax, DWORD PTR $T678678[ebp]
  00639	50		 push	 eax
  0063a	ff 75 94	 push	 DWORD PTR _iAniID$[ebp]
  0063d	c6 45 fc 09	 mov	 BYTE PTR __$EHRec$[ebp+8], 9
  00641	ff 15 00 00 00
	00		 call	 DWORD PTR __imp_?GetAnimationEventConstPtrList@ioEntityGroup@@QAEHHABVioHashString@@AAV?$vector@PBUAniEventTime@@V?$allocator@PBUAniEventTime@@@std@@@std@@@Z
  00647	8d 4d c4	 lea	 ecx, DWORD PTR $T678678[ebp]
  0064a	c6 45 fc 08	 mov	 BYTE PTR __$EHRec$[ebp+8], 8
  0064e	ff 15 00 00 00
	00		 call	 DWORD PTR __imp_??1ioHashString@@QAE@XZ

; 640  : 
; 641  : 		AniEventConstPtrList::iterator iter_event = vExtraAniJumpList.begin();

  00654	8b 85 50 ff ff
	ff		 mov	 eax, DWORD PTR _vExtraAniJumpList$662594[ebp]
  0065a	89 45 94	 mov	 DWORD PTR _iter_event$662601[ebp], eax
  0065d	e9 fd 00 00 00	 jmp	 $LN772@SetNormalA
$LN5@SetNormalA:

; 643  : 		{
; 644  : 			ExtraAniJump kInfo;
; 645  : 
; 646  : 			kInfo.m_dwTime = (*iter_event)->fEventTime * fAniRate;

  00662	8b 45 94	 mov	 eax, DWORD PTR _iter_event$662601[ebp]
  00665	8b 00		 mov	 eax, DWORD PTR [eax]

; 647  : 			kInfo.m_dwTime += dwCurTime;

  00667	d9 00		 fld	 DWORD PTR [eax]
  00669	0f 57 c0	 xorps	 xmm0, xmm0
  0066c	d8 4d 8c	 fmul	 DWORD PTR _fAniRate$661926[ebp]
  0066f	f3 0f 11 85 7c
	ff ff ff	 movss	 DWORD PTR _kInfo$662607[ebp+4], xmm0
  00677	e8 00 00 00 00	 call	 __ftol2
  0067c	03 85 48 ff ff
	ff		 add	 eax, DWORD PTR _dwCurTime$[ebp]
  00682	89 85 78 ff ff
	ff		 mov	 DWORD PTR _kInfo$662607[ebp], eax

; 648  : 
; 649  : 			if( !(*iter_event)->szSubInfo.IsEmpty() )

  00688	8b 45 94	 mov	 eax, DWORD PTR _iter_event$662601[ebp]
  0068b	8b 08		 mov	 ecx, DWORD PTR [eax]
  0068d	8d 49 14	 lea	 ecx, DWORD PTR [ecx+20]
  00690	ff 15 00 00 00
	00		 call	 DWORD PTR __imp_?IsEmpty@ioHashString@@QBE_NXZ
  00696	84 c0		 test	 al, al
  00698	0f 85 a8 00 00
	00		 jne	 $LN2@SetNormalA

; 650  : 			{
; 651  : 				const StringVector &vParam = ioStringConverter::Split( (*iter_event)->szSubInfo.c_str(), " " );

  0069e	6a 01		 push	 1
  006a0	68 00 00 00 00	 push	 OFFSET ??_C@_01CLKCMJKC@?5?$AA@
  006a5	8d 4d b8	 lea	 ecx, DWORD PTR $T662610[ebp]
  006a8	c7 45 cc 0f 00
	00 00		 mov	 DWORD PTR $T662610[ebp+20], 15 ; 0000000fH
  006af	89 5d c8	 mov	 DWORD PTR $T662610[ebp+16], ebx
  006b2	88 5d b8	 mov	 BYTE PTR $T662610[ebp], bl
  006b5	e8 00 00 00 00	 call	 ?assign@?$basic_string@DU?$char_traits@D@std@@V?$allocator@D@2@@std@@QAEAAV12@PBDI@Z ; std::basic_string<char,std::char_traits<char>,std::allocator<char> >::assign
  006ba	8b 45 94	 mov	 eax, DWORD PTR _iter_event$662601[ebp]
  006bd	8b 08		 mov	 ecx, DWORD PTR [eax]
  006bf	83 c1 14	 add	 ecx, 20			; 00000014H
  006c2	c6 45 fc 0a	 mov	 BYTE PTR __$EHRec$[ebp+8], 10 ; 0000000aH
  006c6	ff 15 00 00 00
	00		 call	 DWORD PTR __imp_?c_str@ioHashString@@QBEPBDXZ
  006cc	50		 push	 eax
  006cd	8d 4d 9c	 lea	 ecx, DWORD PTR $T662611[ebp]
  006d0	c7 45 b0 0f 00
	00 00		 mov	 DWORD PTR $T662611[ebp+20], 15 ; 0000000fH
  006d7	89 5d ac	 mov	 DWORD PTR $T662611[ebp+16], ebx
  006da	88 5d 9c	 mov	 BYTE PTR $T662611[ebp], bl
  006dd	e8 00 00 00 00	 call	 ?assign@?$basic_string@DU?$char_traits@D@std@@V?$allocator@D@2@@std@@QAEAAV12@PBD@Z ; std::basic_string<char,std::char_traits<char>,std::allocator<char> >::assign
  006e2	53		 push	 ebx
  006e3	8d 45 b8	 lea	 eax, DWORD PTR $T662610[ebp]
  006e6	50		 push	 eax
  006e7	8d 45 9c	 lea	 eax, DWORD PTR $T662611[ebp]
  006ea	50		 push	 eax
  006eb	c6 45 fc 0b	 mov	 BYTE PTR __$EHRec$[ebp+8], 11 ; 0000000bH
  006ef	ff 15 00 00 00
	00		 call	 DWORD PTR __imp_?Split@ioStringConverter@@SAABV?$vector@V?$basic_string@DU?$char_traits@D@std@@V?$allocator@D@2@@std@@V?$allocator@V?$basic_string@DU?$char_traits@D@std@@V?$allocator@D@2@@std@@@2@@std@@ABV?$basic_string@DU?$char_traits@D@std@@V?$allocator@D@2@@3@0H@Z
  006f5	83 c4 0c	 add	 esp, 12			; 0000000cH
  006f8	53		 push	 ebx
  006f9	6a 01		 push	 1
  006fb	8d 4d 9c	 lea	 ecx, DWORD PTR $T662611[ebp]
  006fe	89 45 98	 mov	 DWORD PTR _vParam$662609[ebp], eax
  00701	e8 00 00 00 00	 call	 ?_Tidy@?$basic_string@DU?$char_traits@D@std@@V?$allocator@D@2@@std@@QAEX_NI@Z ; std::basic_string<char,std::char_traits<char>,std::allocator<char> >::_Tidy
  00706	53		 push	 ebx
  00707	6a 01		 push	 1
  00709	8d 4d b8	 lea	 ecx, DWORD PTR $T662610[ebp]
  0070c	c6 45 fc 08	 mov	 BYTE PTR __$EHRec$[ebp+8], 8
  00710	e8 00 00 00 00	 call	 ?_Tidy@?$basic_string@DU?$char_traits@D@std@@V?$allocator@D@2@@std@@QAEX_NI@Z ; std::basic_string<char,std::char_traits<char>,std::allocator<char> >::_Tidy

; 652  : 				if( vParam.size() == 1 )

  00715	8b 45 98	 mov	 eax, DWORD PTR _vParam$662609[ebp]
  00718	8b 08		 mov	 ecx, DWORD PTR [eax]
  0071a	8b 40 04	 mov	 eax, DWORD PTR [eax+4]
  0071d	2b c1		 sub	 eax, ecx
  0071f	6a 1c		 push	 28			; 0000001cH
  00721	89 4d 98	 mov	 DWORD PTR tv4130[ebp], ecx
  00724	99		 cdq
  00725	59		 pop	 ecx
  00726	f7 f9		 idiv	 ecx
  00728	83 f8 01	 cmp	 eax, 1
  0072b	75 19		 jne	 SHORT $LN2@SetNormalA

; 653  : 				{
; 654  : 					kInfo.m_fPower = ioStringConverter::ParseFloat( vParam[0].c_str() );

  0072d	8b 45 98	 mov	 eax, DWORD PTR tv4130[ebp]
  00730	83 78 14 10	 cmp	 DWORD PTR [eax+20], 16	; 00000010H
  00734	72 02		 jb	 SHORT $LN712@SetNormalA
  00736	8b 00		 mov	 eax, DWORD PTR [eax]
$LN712@SetNormalA:
  00738	50		 push	 eax
  00739	ff 15 00 00 00
	00		 call	 DWORD PTR __imp_?ParseFloat@ioStringConverter@@SAMPBD@Z
  0073f	d9 9d 7c ff ff
	ff		 fstp	 DWORD PTR _kInfo$662607[ebp+4]
  00745	59		 pop	 ecx
$LN2@SetNormalA:

; 655  : 				}
; 656  : 			}
; 657  : 
; 658  : 			m_vExtraAniJumpList.push_back(kInfo);

  00746	8d 85 78 ff ff
	ff		 lea	 eax, DWORD PTR _kInfo$662607[ebp]
  0074c	50		 push	 eax
  0074d	8d 8e 38 0b 00
	00		 lea	 ecx, DWORD PTR [esi+2872]
  00753	e8 00 00 00 00	 call	 ?push_back@?$vector@UExtraAniJump@@V?$allocator@UExtraAniJump@@@std@@@std@@QAEXABUExtraAniJump@@@Z ; std::vector<ExtraAniJump,std::allocator<ExtraAniJump> >::push_back

; 659  : 
; 660  : 			++iter_event;

  00758	83 45 94 04	 add	 DWORD PTR _iter_event$662601[ebp], 4
  0075c	8b 45 94	 mov	 eax, DWORD PTR _iter_event$662601[ebp]
$LN772@SetNormalA:

; 642  : 		while( iter_event != vExtraAniJumpList.end() )

  0075f	3b 85 54 ff ff
	ff		 cmp	 eax, DWORD PTR _vExtraAniJumpList$662594[ebp+4]
  00765	0f 85 f7 fe ff
	ff		 jne	 $LN5@SetNormalA

; 661  : 		}
; 662  : 
; 663  : 		if( !m_vExtraAniJumpList.empty() )

  0076b	8b 86 38 0b 00
	00		 mov	 eax, DWORD PTR [esi+2872]
  00771	3b 86 3c 0b 00
	00		 cmp	 eax, DWORD PTR [esi+2876]
  00777	74 1d		 je	 SHORT $LN1@SetNormalA

; 664  : 		{
; 665  : 			m_iCurExtraAniJump = 0;
; 666  : 			m_dwExtraAniJumpTime = m_vExtraAniJumpList[m_iCurExtraAniJump].m_dwTime;

  00779	8b be 38 0b 00
	00		 mov	 edi, DWORD PTR [esi+2872]
  0077f	89 9e 34 0b 00
	00		 mov	 DWORD PTR [esi+2868], ebx
  00785	8b 07		 mov	 eax, DWORD PTR [edi]
  00787	89 86 2c 0b 00
	00		 mov	 DWORD PTR [esi+2860], eax

; 667  : 			m_fExtraAniJumpPower = m_vExtraAniJumpList[m_iCurExtraAniJump].m_fPower;

  0078d	d9 47 04	 fld	 DWORD PTR [edi+4]
  00790	d9 9e 30 0b 00
	00		 fstp	 DWORD PTR [esi+2864]
$LN1@SetNormalA:

; 668  : 		}
; 669  : 	}

  00796	8d 8d 50 ff ff
	ff		 lea	 ecx, DWORD PTR _vExtraAniJumpList$662594[ebp]
  0079c	c6 45 fc 02	 mov	 BYTE PTR __$EHRec$[ebp+8], 2
  007a0	e8 00 00 00 00	 call	 ?_Tidy@?$vector@PBUAniEventTime@@V?$allocator@PBUAniEventTime@@@std@@@std@@IAEXXZ ; std::vector<AniEventTime const *,std::allocator<AniEventTime const *> >::_Tidy
$LN771@SetNormalA:
  007a5	8d 4d 80	 lea	 ecx, DWORD PTR _vFireEndList$662262[ebp]
  007a8	e8 00 00 00 00	 call	 ?clear@?$list@MV?$allocator@M@std@@@std@@QAEXXZ ; std::list<float,std::allocator<float> >::clear
  007ad	ff 75 80	 push	 DWORD PTR _vFireEndList$662262[ebp]
  007b0	e8 00 00 00 00	 call	 ??3@YAXPAX@Z		; operator delete
  007b5	83 4d fc ff	 or	 DWORD PTR __$EHRec$[ebp+8], -1
  007b9	59		 pop	 ecx
  007ba	8d 8d 64 ff ff
	ff		 lea	 ecx, DWORD PTR _vFireStartList$662251[ebp]
  007c0	e8 00 00 00 00	 call	 ?_Tidy@?$vector@PBUAniEventTime@@V?$allocator@PBUAniEventTime@@@std@@@std@@IAEXXZ ; std::vector<AniEventTime const *,std::allocator<AniEventTime const *> >::_Tidy
$LN736@SetNormalA:

; 670  : }

  007c5	e8 00 00 00 00	 call	 __EH_epilog3_GS
  007ca	c2 08 00	 ret	 8
_TEXT	ENDS
;	COMDAT text$x
text$x	SEGMENT
__unwindfunclet$?SetNormalAttackState@ioMamaHahaDummy@@IAEXABUAttackAttribute@@W4DummySubUseType@@@Z$0:
  00000	8d 8d 64 ff ff
	ff		 lea	 ecx, DWORD PTR _vFireStartList$662251[ebp]
  00006	e9 00 00 00 00	 jmp	 ??1?$vector@PBUAniEventTime@@V?$allocator@PBUAniEventTime@@@std@@@std@@QAE@XZ ; std::vector<AniEventTime const *,std::allocator<AniEventTime const *> >::~vector<AniEventTime const *,std::allocator<AniEventTime const *> >
__unwindfunclet$?SetNormalAttackState@ioMamaHahaDummy@@IAEXABUAttackAttribute@@W4DummySubUseType@@@Z$9:
  0000b	8d 4d c4	 lea	 ecx, DWORD PTR $T677621[ebp]
  0000e	ff 25 00 00 00
	00		 jmp	 DWORD PTR __imp_??1ioHashString@@QAE@XZ
__unwindfunclet$?SetNormalAttackState@ioMamaHahaDummy@@IAEXABUAttackAttribute@@W4DummySubUseType@@@Z$1:
  00014	8d 4d 80	 lea	 ecx, DWORD PTR _vFireEndList$662262[ebp]
  00017	e9 00 00 00 00	 jmp	 ??1?$list@MV?$allocator@M@std@@@std@@QAE@XZ ; std::list<float,std::allocator<float> >::~list<float,std::allocator<float> >
__unwindfunclet$?SetNormalAttackState@ioMamaHahaDummy@@IAEXABUAttackAttribute@@W4DummySubUseType@@@Z$11:
  0001c	8d 4d c4	 lea	 ecx, DWORD PTR $T677860[ebp]
  0001f	ff 25 00 00 00
	00		 jmp	 DWORD PTR __imp_??1ioHashString@@QAE@XZ
__unwindfunclet$?SetNormalAttackState@ioMamaHahaDummy@@IAEXABUAttackAttribute@@W4DummySubUseType@@@Z$2:
  00025	8d 8d f0 fe ff
	ff		 lea	 ecx, DWORD PTR _kFireTime$662568[ebp]
  0002b	e9 00 00 00 00	 jmp	 ??1FireTime@@QAE@XZ
__unwindfunclet$?SetNormalAttackState@ioMamaHahaDummy@@IAEXABUAttackAttribute@@W4DummySubUseType@@@Z$3:
  00030	8d 4d 9c	 lea	 ecx, DWORD PTR $T662589[ebp]
  00033	e9 00 00 00 00	 jmp	 ??1?$basic_string@DU?$char_traits@D@std@@V?$allocator@D@2@@std@@QAE@XZ ; std::basic_string<char,std::char_traits<char>,std::allocator<char> >::~basic_string<char,std::char_traits<char>,std::allocator<char> >
__unwindfunclet$?SetNormalAttackState@ioMamaHahaDummy@@IAEXABUAttackAttribute@@W4DummySubUseType@@@Z$4:
  00038	8d 4d d4	 lea	 ecx, DWORD PTR $T662590[ebp]
  0003b	e9 00 00 00 00	 jmp	 ??1?$basic_string@DU?$char_traits@D@std@@V?$allocator@D@2@@std@@QAE@XZ ; std::basic_string<char,std::char_traits<char>,std::allocator<char> >::~basic_string<char,std::char_traits<char>,std::allocator<char> >
__unwindfunclet$?SetNormalAttackState@ioMamaHahaDummy@@IAEXABUAttackAttribute@@W4DummySubUseType@@@Z$5:
  00040	8d 4d c4	 lea	 ecx, DWORD PTR _szTypeName$662592[ebp]
  00043	ff 25 00 00 00
	00		 jmp	 DWORD PTR __imp_??1ioHashString@@QAE@XZ
__unwindfunclet$?SetNormalAttackState@ioMamaHahaDummy@@IAEXABUAttackAttribute@@W4DummySubUseType@@@Z$6:
  00049	8d 8d 50 ff ff
	ff		 lea	 ecx, DWORD PTR _vExtraAniJumpList$662594[ebp]
  0004f	e9 00 00 00 00	 jmp	 ??1?$vector@PBUAniEventTime@@V?$allocator@PBUAniEventTime@@@std@@@std@@QAE@XZ ; std::vector<AniEventTime const *,std::allocator<AniEventTime const *> >::~vector<AniEventTime const *,std::allocator<AniEventTime const *> >
__unwindfunclet$?SetNormalAttackState@ioMamaHahaDummy@@IAEXABUAttackAttribute@@W4DummySubUseType@@@Z$12:
  00054	8d 4d c4	 lea	 ecx, DWORD PTR $T678678[ebp]
  00057	ff 25 00 00 00
	00		 jmp	 DWORD PTR __imp_??1ioHashString@@QAE@XZ
__unwindfunclet$?SetNormalAttackState@ioMamaHahaDummy@@IAEXABUAttackAttribute@@W4DummySubUseType@@@Z$7:
  0005d	8d 4d b8	 lea	 ecx, DWORD PTR $T662610[ebp]
  00060	e9 00 00 00 00	 jmp	 ??1?$basic_string@DU?$char_traits@D@std@@V?$allocator@D@2@@std@@QAE@XZ ; std::basic_string<char,std::char_traits<char>,std::allocator<char> >::~basic_string<char,std::char_traits<char>,std::allocator<char> >
__unwindfunclet$?SetNormalAttackState@ioMamaHahaDummy@@IAEXABUAttackAttribute@@W4DummySubUseType@@@Z$8:
  00065	8d 4d 9c	 lea	 ecx, DWORD PTR $T662611[ebp]
  00068	e9 00 00 00 00	 jmp	 ??1?$basic_string@DU?$char_traits@D@std@@V?$allocator@D@2@@std@@QAE@XZ ; std::basic_string<char,std::char_traits<char>,std::allocator<char> >::~basic_string<char,std::char_traits<char>,std::allocator<char> >
__ehhandler$?SetNormalAttackState@ioMamaHahaDummy@@IAEXABUAttackAttribute@@W4DummySubUseType@@@Z:
  0006d	8b 54 24 08	 mov	 edx, DWORD PTR [esp+8]
  00071	8d 42 0c	 lea	 eax, DWORD PTR [edx+12]
  00074	8b 8a ec fe ff
	ff		 mov	 ecx, DWORD PTR [edx-276]
  0007a	33 c8		 xor	 ecx, eax
  0007c	e8 00 00 00 00	 call	 @__security_check_cookie@4
  00081	8b 4a fc	 mov	 ecx, DWORD PTR [edx-4]
  00084	33 c8		 xor	 ecx, eax
  00086	e8 00 00 00 00	 call	 @__security_check_cookie@4
  0008b	b8 00 00 00 00	 mov	 eax, OFFSET __ehfuncinfo$?SetNormalAttackState@ioMamaHahaDummy@@IAEXABUAttackAttribute@@W4DummySubUseType@@@Z
  00090	e9 00 00 00 00	 jmp	 ___CxxFrameHandler3
text$x	ENDS
?SetNormalAttackState@ioMamaHahaDummy@@IAEXABUAttackAttribute@@W4DummySubUseType@@@Z ENDP ; ioMamaHahaDummy::SetNormalAttackState
PUBLIC	?SetReraShuState@ioMamaHahaDummy@@IAEXABUAttackAttribute@@W4DummySubUseType@@@Z ; ioMamaHahaDummy::SetReraShuState
;	COMDAT xdata$x
; File c:\program files (x86)\microsoft visual studio 10.0\vc\include\vector
xdata$x	SEGMENT
__ehfuncinfo$?SetReraShuState@ioMamaHahaDummy@@IAEXABUAttackAttribute@@W4DummySubUseType@@@Z DD 019930522H
	DD	0cH
	DD	FLAT:__unwindtable$?SetReraShuState@ioMamaHahaDummy@@IAEXABUAttackAttribute@@W4DummySubUseType@@@Z
	DD	2 DUP(00H)
	DD	2 DUP(00H)
	DD	00H
	DD	01H
__unwindtable$?SetReraShuState@ioMamaHahaDummy@@IAEXABUAttackAttribute@@W4DummySubUseType@@@Z DD 0ffffffffH
	DD	FLAT:__unwindfunclet$?SetReraShuState@ioMamaHahaDummy@@IAEXABUAttackAttribute@@W4DummySubUseType@@@Z$0
	DD	00H
	DD	FLAT:__unwindfunclet$?SetReraShuState@ioMamaHahaDummy@@IAEXABUAttackAttribute@@W4DummySubUseType@@@Z$9
	DD	00H
	DD	FLAT:__unwindfunclet$?SetReraShuState@ioMamaHahaDummy@@IAEXABUAttackAttribute@@W4DummySubUseType@@@Z$1
	DD	02H
	DD	FLAT:__unwindfunclet$?SetReraShuState@ioMamaHahaDummy@@IAEXABUAttackAttribute@@W4DummySubUseType@@@Z$11
	DD	02H
	DD	FLAT:__unwindfunclet$?SetReraShuState@ioMamaHahaDummy@@IAEXABUAttackAttribute@@W4DummySubUseType@@@Z$2
	DD	04H
	DD	FLAT:__unwindfunclet$?SetReraShuState@ioMamaHahaDummy@@IAEXABUAttackAttribute@@W4DummySubUseType@@@Z$3
	DD	05H
	DD	FLAT:__unwindfunclet$?SetReraShuState@ioMamaHahaDummy@@IAEXABUAttackAttribute@@W4DummySubUseType@@@Z$4
	DD	04H
	DD	FLAT:__unwindfunclet$?SetReraShuState@ioMamaHahaDummy@@IAEXABUAttackAttribute@@W4DummySubUseType@@@Z$5
	DD	02H
	DD	FLAT:__unwindfunclet$?SetReraShuState@ioMamaHahaDummy@@IAEXABUAttackAttribute@@W4DummySubUseType@@@Z$6
	DD	08H
	DD	FLAT:__unwindfunclet$?SetReraShuState@ioMamaHahaDummy@@IAEXABUAttackAttribute@@W4DummySubUseType@@@Z$12
	DD	08H
	DD	FLAT:__unwindfunclet$?SetReraShuState@ioMamaHahaDummy@@IAEXABUAttackAttribute@@W4DummySubUseType@@@Z$7
	DD	0aH
	DD	FLAT:__unwindfunclet$?SetReraShuState@ioMamaHahaDummy@@IAEXABUAttackAttribute@@W4DummySubUseType@@@Z$8
; Function compile flags: /Ogsp
; File d:\lost saga for developer\youtube\tutorial\source\src\lsclient\iomamahahadummy.cpp
xdata$x	ENDS
;	COMDAT ?SetReraShuState@ioMamaHahaDummy@@IAEXABUAttackAttribute@@W4DummySubUseType@@@Z
_TEXT	SEGMENT
_kFireTime$662658 = -272				; size = 88
_dwCurTime$ = -184					; size = 4
tv4652 = -180						; size = 4
_vExtraAniJumpList$662668 = -176			; size = 16
_iterEndTime$662650 = -160				; size = 4
_pOwner$ = -160						; size = 4
_vFireStartList$662635 = -156				; size = 16
_iter$662645 = -140					; size = 4
_kInfo$662675 = -136					; size = 8
tv4650 = -132						; size = 4
$T679459 = -132						; size = 4
$T679316 = -132						; size = 4
_i$662644 = -132					; size = 4
_vFireEndList$662640 = -128				; size = 12
_fAniRate$662628 = -116					; size = 4
tv4016 = -112						; size = 4
$T679157 = -112						; size = 4
_vParam$662662 = -112					; size = 4
_fFireStart$662657 = -112				; size = 4
_iter_event$662669 = -108				; size = 4
_iAniID$ = -108						; size = 4
tv4674 = -104						; size = 4
tv4669 = -104						; size = 4
tv4662 = -104						; size = 4
tv4654 = -104						; size = 4
tv4648 = -104						; size = 4
tv4646 = -104						; size = 4
tv4644 = -104						; size = 4
tv4626 = -104						; size = 4
tv4602 = -104						; size = 4
tv4130 = -104						; size = 4
tv3974 = -104						; size = 4
$T680275 = -104						; size = 4
$T680102 = -104						; size = 4
$T679323 = -104						; size = 4
$T679325 = -104						; size = 4
_vParam$662677 = -104					; size = 4
$T662679 = -100						; size = 28
$T662663 = -100						; size = 28
$T662678 = -72						; size = 28
$T680220 = -60						; size = 16
$T679445 = -60						; size = 16
$T679206 = -60						; size = 16
_szTypeName$662666 = -60				; size = 16
$T662664 = -44						; size = 28
_szEncEventType$680163 = -36				; size = 15
_szEncEventType$679458 = -28				; size = 7
_szEncEventType$679219 = -28				; size = 7
__$EHRec$ = -12						; size = 12
_rkCurAttribute$ = 8					; size = 4
_eSubType$ = 12						; size = 4
?SetReraShuState@ioMamaHahaDummy@@IAEXABUAttackAttribute@@W4DummySubUseType@@@Z PROC ; ioMamaHahaDummy::SetReraShuState, COMDAT
; _this$ = ecx

; 673  : {

  00000	68 04 01 00 00	 push	 260			; 00000104H
  00005	b8 00 00 00 00	 mov	 eax, __ehhandler$?SetReraShuState@ioMamaHahaDummy@@IAEXABUAttackAttribute@@W4DummySubUseType@@@Z
  0000a	e8 00 00 00 00	 call	 __EH_prolog3_GS
  0000f	8b 7d 08	 mov	 edi, DWORD PTR _rkCurAttribute$[ebp]
  00012	8b f1		 mov	 esi, ecx

; 674  : 	ioBaseChar *pOwner = GetOwner();

  00014	e8 00 00 00 00	 call	 ?GetOwner@ioDummyChar@@QBEPAVioBaseChar@@XZ ; ioDummyChar::GetOwner

; 675  : 	if( !pOwner ) return;

  00019	33 db		 xor	 ebx, ebx
  0001b	89 85 60 ff ff
	ff		 mov	 DWORD PTR _pOwner$[ebp], eax
  00021	3b c3		 cmp	 eax, ebx
  00023	0f 84 a0 07 00
	00		 je	 $LN736@SetReraShu

; 676  : 
; 677  : 	m_State = DCS_MAMAHAHA_STATE;

  00029	c7 86 30 02 00
	00 10 00 00 00	 mov	 DWORD PTR [esi+560], 16	; 00000010H

; 678  : 	m_MamaHahaState = MHS_FIRE_ATTACK;

  00033	c7 86 80 14 00
	00 02 00 00 00	 mov	 DWORD PTR [esi+5248], 2

; 679  : 
; 680  : 	DWORD dwCurTime = FRAMEGETTIME();

  0003d	ff 15 00 00 00
	00		 call	 DWORD PTR __imp_?GetSingleton@ioFrameTimer@@SAAAV1@XZ
  00043	8b c8		 mov	 ecx, eax
  00045	ff 15 00 00 00
	00		 call	 DWORD PTR __imp_?GetLoopSec@ioFrameTimer@@QBEKXZ

; 681  : 	m_dwAttackAniEndTime = dwCurTime;
; 682  : 
; 683  : 	int iAniID = m_pGroup->GetAnimationIdx( rkCurAttribute.m_AttackAnimation );

  0004b	8b 4e 04	 mov	 ecx, DWORD PTR [esi+4]
  0004e	57		 push	 edi
  0004f	89 85 48 ff ff
	ff		 mov	 DWORD PTR _dwCurTime$[ebp], eax
  00055	89 86 e8 06 00
	00		 mov	 DWORD PTR [esi+1768], eax
  0005b	ff 15 00 00 00
	00		 call	 DWORD PTR __imp_?GetAnimationIdx@ioEntityGroup@@QAEHABVioHashString@@@Z
  00061	89 45 94	 mov	 DWORD PTR _iAniID$[ebp], eax

; 684  : 	if( iAniID != -1 )

  00064	83 f8 ff	 cmp	 eax, -1
  00067	0f 84 5c 07 00
	00		 je	 $LN736@SetReraShu

; 685  : 	{
; 686  : 		m_pGroup->ClearAllActionAni( FLOAT10, true );

  0006d	b8 0a 00 00 00	 mov	 eax, 10			; 0000000aH
  00072	89 45 98	 mov	 DWORD PTR tv4674[ebp], eax
  00075	db 45 98	 fild	 DWORD PTR tv4674[ebp]
  00078	6a 01		 push	 1
  0007a	85 c0		 test	 eax, eax
  0007c	79 06		 jns	 SHORT $LN759@SetReraShu
  0007e	d8 05 00 00 00
	00		 fadd	 DWORD PTR __real@4f800000
$LN759@SetReraShu:
  00084	51		 push	 ecx
  00085	8b 4e 04	 mov	 ecx, DWORD PTR [esi+4]
  00088	d9 1c 24	 fstp	 DWORD PTR [esp]
  0008b	ff 15 00 00 00
	00		 call	 DWORD PTR __imp_?ClearAllActionAni@ioEntityGroup@@QAEXM_N@Z

; 687  : 		m_pGroup->ClearAllLoopAni( FLOAT10, true );

  00091	b8 0a 00 00 00	 mov	 eax, 10			; 0000000aH
  00096	89 45 98	 mov	 DWORD PTR tv4669[ebp], eax
  00099	db 45 98	 fild	 DWORD PTR tv4669[ebp]
  0009c	6a 01		 push	 1
  0009e	85 c0		 test	 eax, eax
  000a0	79 06		 jns	 SHORT $LN760@SetReraShu
  000a2	d8 05 00 00 00
	00		 fadd	 DWORD PTR __real@4f800000
$LN760@SetReraShu:
  000a8	51		 push	 ecx
  000a9	8b 4e 04	 mov	 ecx, DWORD PTR [esi+4]
  000ac	d9 1c 24	 fstp	 DWORD PTR [esp]
  000af	ff 15 00 00 00
	00		 call	 DWORD PTR __imp_?ClearAllLoopAni@ioEntityGroup@@QAEXM_N@Z

; 688  : 
; 689  : 		float fAniRate = rkCurAttribute.m_fAttackAniRate;

  000b5	f3 0f 10 4f 10	 movss	 xmm1, DWORD PTR [edi+16]

; 690  : 		if( fAniRate <= 0.0f )

  000ba	0f 57 c0	 xorps	 xmm0, xmm0
  000bd	0f 2f c1	 comiss	 xmm0, xmm1
  000c0	f3 0f 11 4d 8c	 movss	 DWORD PTR _fAniRate$662628[ebp], xmm1
  000c5	72 18		 jb	 SHORT $LN14@SetReraShu

; 691  : 			fAniRate = FLOAT1;

  000c7	b8 01 00 00 00	 mov	 eax, 1
  000cc	89 45 98	 mov	 DWORD PTR tv4662[ebp], eax
  000cf	db 45 98	 fild	 DWORD PTR tv4662[ebp]
  000d2	85 c0		 test	 eax, eax
  000d4	79 06		 jns	 SHORT $LN761@SetReraShu
  000d6	d8 05 00 00 00
	00		 fadd	 DWORD PTR __real@4f800000
$LN761@SetReraShu:
  000dc	d9 5d 8c	 fstp	 DWORD PTR _fAniRate$662628[ebp]
$LN14@SetReraShu:

; 692  : 
; 693  : 		m_pGroup->SetActionAni( iAniID, FLOAT10, FLOAT10, FLOAT1, FLOAT1/fAniRate, 0.0f, 0.0f, true );

  000df	b8 01 00 00 00	 mov	 eax, 1
  000e4	8b c8		 mov	 ecx, eax
  000e6	b8 01 00 00 00	 mov	 eax, 1
  000eb	8b d0		 mov	 edx, eax
  000ed	b8 0a 00 00 00	 mov	 eax, 10			; 0000000aH
  000f2	89 45 90	 mov	 DWORD PTR $T679157[ebp], eax
  000f5	b8 0a 00 00 00	 mov	 eax, 10			; 0000000aH
  000fa	6a 01		 push	 1
  000fc	6a 01		 push	 1
  000fe	83 ec 18	 sub	 esp, 24			; 00000018H
  00101	f3 0f 11 44 24
	14		 movss	 DWORD PTR [esp+20], xmm0
  00107	89 4d 98	 mov	 DWORD PTR tv4654[ebp], ecx
  0010a	db 45 98	 fild	 DWORD PTR tv4654[ebp]
  0010d	f3 0f 11 44 24
	10		 movss	 DWORD PTR [esp+16], xmm0
  00113	85 c9		 test	 ecx, ecx
  00115	79 06		 jns	 SHORT $LN762@SetReraShu
  00117	d8 05 00 00 00
	00		 fadd	 DWORD PTR __real@4f800000
$LN762@SetReraShu:
  0011d	d8 75 8c	 fdiv	 DWORD PTR _fAniRate$662628[ebp]
  00120	89 55 98	 mov	 DWORD PTR tv4648[ebp], edx
  00123	d9 9d 7c ff ff
	ff		 fstp	 DWORD PTR tv4650[ebp]
  00129	d9 85 7c ff ff
	ff		 fld	 DWORD PTR tv4650[ebp]
  0012f	d9 5c 24 0c	 fstp	 DWORD PTR [esp+12]
  00133	db 45 98	 fild	 DWORD PTR tv4648[ebp]
  00136	85 d2		 test	 edx, edx
  00138	79 06		 jns	 SHORT $LN763@SetReraShu
  0013a	d8 05 00 00 00
	00		 fadd	 DWORD PTR __real@4f800000
$LN763@SetReraShu:
  00140	8b 4d 90	 mov	 ecx, DWORD PTR $T679157[ebp]
  00143	d9 5c 24 08	 fstp	 DWORD PTR [esp+8]
  00147	db 45 90	 fild	 DWORD PTR $T679157[ebp]
  0014a	85 c9		 test	 ecx, ecx
  0014c	79 06		 jns	 SHORT $LN764@SetReraShu
  0014e	d8 05 00 00 00
	00		 fadd	 DWORD PTR __real@4f800000
$LN764@SetReraShu:
  00154	d9 5c 24 04	 fstp	 DWORD PTR [esp+4]
  00158	89 45 98	 mov	 DWORD PTR tv4644[ebp], eax
  0015b	db 45 98	 fild	 DWORD PTR tv4644[ebp]
  0015e	85 c0		 test	 eax, eax
  00160	79 06		 jns	 SHORT $LN765@SetReraShu
  00162	d8 05 00 00 00
	00		 fadd	 DWORD PTR __real@4f800000
$LN765@SetReraShu:
  00168	8b 4e 04	 mov	 ecx, DWORD PTR [esi+4]
  0016b	d9 1c 24	 fstp	 DWORD PTR [esp]
  0016e	ff 75 94	 push	 DWORD PTR _iAniID$[ebp]
  00171	ff 15 00 00 00
	00		 call	 DWORD PTR __imp_?SetActionAni@ioEntityGroup@@QAE_NHMMMMMM_N0@Z

; 694  : 		m_dwAttackAniEndTime += m_pGroup->GetAnimationFullTime( iAniID ) * fAniRate;

  00177	ff 75 94	 push	 DWORD PTR _iAniID$[ebp]
  0017a	8b 4e 04	 mov	 ecx, DWORD PTR [esi+4]
  0017d	ff 15 00 00 00
	00		 call	 DWORD PTR __imp_?GetAnimationFullTime@ioEntityGroup@@QAEMH@Z
  00183	d8 4d 8c	 fmul	 DWORD PTR _fAniRate$662628[ebp]
  00186	8b 86 e8 06 00
	00		 mov	 eax, DWORD PTR [esi+1768]
  0018c	db 86 e8 06 00
	00		 fild	 DWORD PTR [esi+1768]
  00192	85 c0		 test	 eax, eax
  00194	79 06		 jns	 SHORT $LN766@SetReraShu
  00196	dc 05 00 00 00
	00		 fadd	 QWORD PTR __real@41f0000000000000
$LN766@SetReraShu:
  0019c	de c1		 faddp	 ST(1), ST(0)
  0019e	e8 00 00 00 00	 call	 __ftol2
  001a3	89 86 e8 06 00
	00		 mov	 DWORD PTR [esi+1768], eax

; 695  : 
; 696  : 		// fire 
; 697  : 		AniEventConstPtrList vFireStartList;

  001a9	89 9d 64 ff ff
	ff		 mov	 DWORD PTR _vFireStartList$662635[ebp], ebx
  001af	89 9d 68 ff ff
	ff		 mov	 DWORD PTR _vFireStartList$662635[ebp+4], ebx
  001b5	89 9d 6c ff ff
	ff		 mov	 DWORD PTR _vFireStartList$662635[ebp+8], ebx

; 698  : 		m_pGroup->GetAnimationEventConstPtrList_e( iAniID, "fire_s", vFireStartList );

  001bb	8b 46 04	 mov	 eax, DWORD PTR [esi+4]
  001be	6a 04		 push	 4
  001c0	89 85 7c ff ff
	ff		 mov	 DWORD PTR $T679316[ebp], eax
  001c6	c7 45 e4 8b 85
	99 8f		 mov	 DWORD PTR _szEncEventType$679219[ebp], -1885764213 ; 8f99858bH
  001cd	81 75 e4 ed ec
	eb ea		 xor	 DWORD PTR _szEncEventType$679219[ebp], -353637139 ; eaebecedH
  001d4	89 5d fc	 mov	 DWORD PTR __$EHRec$[ebp+8], ebx
  001d7	66 c7 45 e8 b2
	9f		 mov	 WORD PTR _szEncEventType$679219[ebp+4], 40882 ; 00009fb2H
  001dd	88 5d ea	 mov	 BYTE PTR _szEncEventType$679219[ebp+6], bl
  001e0	58		 pop	 eax
$LL151@SetReraShu:
  001e1	8b c8		 mov	 ecx, eax
  001e3	81 e1 03 00 00
	80		 and	 ecx, -2147483645	; 80000003H
  001e9	79 05		 jns	 SHORT $LN767@SetReraShu
  001eb	49		 dec	 ecx
  001ec	83 c9 fc	 or	 ecx, -4			; fffffffcH
  001ef	41		 inc	 ecx
$LN767@SetReraShu:
  001f0	b2 ed		 mov	 dl, -19			; ffffffedH
  001f2	2a d1		 sub	 dl, cl
  001f4	30 54 05 e4	 xor	 BYTE PTR _szEncEventType$679219[ebp+eax], dl
  001f8	40		 inc	 eax
  001f9	83 f8 06	 cmp	 eax, 6
  001fc	7c e3		 jl	 SHORT $LL151@SetReraShu
  001fe	8d 45 e4	 lea	 eax, DWORD PTR _szEncEventType$679219[ebp]
  00201	50		 push	 eax
  00202	8d 4d c4	 lea	 ecx, DWORD PTR $T679206[ebp]
  00205	ff 15 00 00 00
	00		 call	 DWORD PTR __imp_??0ioHashString@@QAE@PBD@Z
  0020b	8b 8d 7c ff ff
	ff		 mov	 ecx, DWORD PTR $T679316[ebp]
  00211	8d 85 64 ff ff
	ff		 lea	 eax, DWORD PTR _vFireStartList$662635[ebp]
  00217	50		 push	 eax
  00218	8d 45 c4	 lea	 eax, DWORD PTR $T679206[ebp]
  0021b	50		 push	 eax
  0021c	ff 75 94	 push	 DWORD PTR _iAniID$[ebp]
  0021f	c6 45 fc 01	 mov	 BYTE PTR __$EHRec$[ebp+8], 1
  00223	ff 15 00 00 00
	00		 call	 DWORD PTR __imp_?GetAnimationEventConstPtrList@ioEntityGroup@@QAEHHABVioHashString@@AAV?$vector@PBUAniEventTime@@V?$allocator@PBUAniEventTime@@@std@@@std@@@Z
  00229	8d 4d c4	 lea	 ecx, DWORD PTR $T679206[ebp]
  0022c	88 5d fc	 mov	 BYTE PTR __$EHRec$[ebp+8], bl
  0022f	ff 15 00 00 00
	00		 call	 DWORD PTR __imp_??1ioHashString@@QAE@XZ

; 699  : 
; 700  : 		std::list<float> vFireEndList;

  00235	51		 push	 ecx
  00236	89 65 98	 mov	 DWORD PTR $T679325[ebp], esp
  00239	8d 4d 80	 lea	 ecx, DWORD PTR _vFireEndList$662640[ebp]
  0023c	89 65 98	 mov	 DWORD PTR $T679323[ebp], esp
  0023f	e8 00 00 00 00	 call	 ??0?$_List_val@MV?$allocator@M@std@@@std@@QAE@V?$allocator@M@1@@Z ; std::_List_val<float,std::allocator<float> >::_List_val<float,std::allocator<float> >

; 701  : 		m_pGroup->GetAnimationEventTimeList_e( iAniID, "fire_e", vFireEndList );

  00244	8b 46 04	 mov	 eax, DWORD PTR [esi+4]
  00247	6a 04		 push	 4
  00249	89 85 7c ff ff
	ff		 mov	 DWORD PTR $T679459[ebp], eax
  0024f	c7 45 e4 8b 85
	99 8f		 mov	 DWORD PTR _szEncEventType$679458[ebp], -1885764213 ; 8f99858bH
  00256	81 75 e4 ed ec
	eb ea		 xor	 DWORD PTR _szEncEventType$679458[ebp], -353637139 ; eaebecedH
  0025d	c6 45 fc 02	 mov	 BYTE PTR __$EHRec$[ebp+8], 2
  00261	66 c7 45 e8 b2
	89		 mov	 WORD PTR _szEncEventType$679458[ebp+4], 35250 ; 000089b2H
  00267	88 5d ea	 mov	 BYTE PTR _szEncEventType$679458[ebp+6], bl
  0026a	58		 pop	 eax
$LL263@SetReraShu:
  0026b	8b c8		 mov	 ecx, eax
  0026d	81 e1 03 00 00
	80		 and	 ecx, -2147483645	; 80000003H
  00273	79 05		 jns	 SHORT $LN768@SetReraShu
  00275	49		 dec	 ecx
  00276	83 c9 fc	 or	 ecx, -4			; fffffffcH
  00279	41		 inc	 ecx
$LN768@SetReraShu:
  0027a	b2 ed		 mov	 dl, -19			; ffffffedH
  0027c	2a d1		 sub	 dl, cl
  0027e	30 54 05 e4	 xor	 BYTE PTR _szEncEventType$679458[ebp+eax], dl
  00282	40		 inc	 eax
  00283	83 f8 06	 cmp	 eax, 6
  00286	7c e3		 jl	 SHORT $LL263@SetReraShu
  00288	8d 45 e4	 lea	 eax, DWORD PTR _szEncEventType$679458[ebp]
  0028b	50		 push	 eax
  0028c	8d 4d c4	 lea	 ecx, DWORD PTR $T679445[ebp]
  0028f	ff 15 00 00 00
	00		 call	 DWORD PTR __imp_??0ioHashString@@QAE@PBD@Z
  00295	8b 8d 7c ff ff
	ff		 mov	 ecx, DWORD PTR $T679459[ebp]
  0029b	8d 45 80	 lea	 eax, DWORD PTR _vFireEndList$662640[ebp]
  0029e	50		 push	 eax
  0029f	8d 45 c4	 lea	 eax, DWORD PTR $T679445[ebp]
  002a2	50		 push	 eax
  002a3	ff 75 94	 push	 DWORD PTR _iAniID$[ebp]
  002a6	c6 45 fc 03	 mov	 BYTE PTR __$EHRec$[ebp+8], 3
  002aa	ff 15 00 00 00
	00		 call	 DWORD PTR __imp_?GetAnimationEventTimeList@ioEntityGroup@@QAEHHABVioHashString@@AAV?$list@MV?$allocator@M@std@@@std@@@Z
  002b0	8d 4d c4	 lea	 ecx, DWORD PTR $T679445[ebp]
  002b3	c6 45 fc 02	 mov	 BYTE PTR __$EHRec$[ebp+8], 2
  002b7	ff 15 00 00 00
	00		 call	 DWORD PTR __imp_??1ioHashString@@QAE@XZ

; 702  : 
; 703  : 		const WeaponInfoList &vInfoList = rkCurAttribute.m_vWeaponInfoList;
; 704  : 		if( vFireStartList.size() != vInfoList.size() )

  002bd	8b 47 2c	 mov	 eax, DWORD PTR [edi+44]
  002c0	2b 47 28	 sub	 eax, DWORD PTR [edi+40]
  002c3	6a 28		 push	 40			; 00000028H
  002c5	99		 cdq
  002c6	59		 pop	 ecx
  002c7	f7 f9		 idiv	 ecx
  002c9	8b 8d 68 ff ff
	ff		 mov	 ecx, DWORD PTR _vFireStartList$662635[ebp+4]
  002cf	2b 8d 64 ff ff
	ff		 sub	 ecx, DWORD PTR _vFireStartList$662635[ebp]
  002d5	c1 f9 02	 sar	 ecx, 2
  002d8	3b c8		 cmp	 ecx, eax

; 705  : 			return;

  002da	0f 85 c9 04 00
	00		 jne	 $LN771@SetReraShu

; 706  : 
; 707  : 		m_dwBaseWeaponIndex = pOwner->IncreaseWeaponIndexBase();

  002e0	8b 8d 60 ff ff
	ff		 mov	 ecx, DWORD PTR _pOwner$[ebp]
  002e6	e8 00 00 00 00	 call	 ?IncreaseWeaponIndexBase@ioBaseChar@@QAEKXZ ; ioBaseChar::IncreaseWeaponIndexBase

; 708  : 		DWORD dwStartTime = dwCurTime + rkCurAttribute.m_dwPreDelay;
; 709  : 
; 710  : 		int i=0;
; 711  : 		AniEventConstPtrList::iterator iter;
; 712  : 
; 713  : 		std::list< float >::iterator iterEndTime = vFireEndList.begin();

  002eb	8b 4d 80	 mov	 ecx, DWORD PTR _vFireEndList$662640[ebp]
  002ee	89 86 30 06 00
	00		 mov	 DWORD PTR [esi+1584], eax
  002f4	8b 09		 mov	 ecx, DWORD PTR [ecx]
  002f6	8b 47 48	 mov	 eax, DWORD PTR [edi+72]
  002f9	03 85 48 ff ff
	ff		 add	 eax, DWORD PTR _dwCurTime$[ebp]
  002ff	89 8d 60 ff ff
	ff		 mov	 DWORD PTR _iterEndTime$662650[ebp], ecx

; 714  : 		for( iter=vFireStartList.begin() ; iter!=vFireStartList.end() ; ++iter, i++ )

  00305	8b 8d 64 ff ff
	ff		 mov	 ecx, DWORD PTR _vFireStartList$662635[ebp]
  0030b	89 9d 7c ff ff
	ff		 mov	 DWORD PTR _i$662644[ebp], ebx
  00311	89 8d 74 ff ff
	ff		 mov	 DWORD PTR _iter$662645[ebp], ecx
  00317	3b 8d 68 ff ff
	ff		 cmp	 ecx, DWORD PTR _vFireStartList$662635[ebp+4]
  0031d	0f 84 48 02 00
	00		 je	 $LN10@SetReraShu
  00323	89 45 98	 mov	 DWORD PTR tv4602[ebp], eax
  00326	db 45 98	 fild	 DWORD PTR tv4602[ebp]
  00329	85 c0		 test	 eax, eax
  0032b	79 06		 jns	 SHORT $LN769@SetReraShu
  0032d	d8 05 00 00 00
	00		 fadd	 DWORD PTR __real@4f800000
$LN769@SetReraShu:
  00333	d9 5d 98	 fstp	 DWORD PTR tv3974[ebp]
  00336	89 9d 4c ff ff
	ff		 mov	 DWORD PTR tv4652[ebp], ebx
$LN12@SetReraShu:

; 715  : 		{
; 716  : 			float fFireStart = (*iter)->fEventTime;

  0033c	8b 85 74 ff ff
	ff		 mov	 eax, DWORD PTR _iter$662645[ebp]
  00342	8b 00		 mov	 eax, DWORD PTR [eax]
  00344	d9 00		 fld	 DWORD PTR [eax]

; 717  : 
; 718  : 			FireTime kFireTime;

  00346	8d 8d f0 fe ff
	ff		 lea	 ecx, DWORD PTR _kFireTime$662658[ebp]
  0034c	d9 5d 90	 fstp	 DWORD PTR _fFireStart$662657[ebp]
  0034f	e8 00 00 00 00	 call	 ??0FireTime@@QAE@XZ	; FireTime::FireTime

; 719  : 			kFireTime.dwStart = dwStartTime + fFireStart * fAniRate;

  00354	d9 45 90	 fld	 DWORD PTR _fFireStart$662657[ebp]
  00357	d8 4d 8c	 fmul	 DWORD PTR _fAniRate$662628[ebp]
  0035a	c6 45 fc 04	 mov	 BYTE PTR __$EHRec$[ebp+8], 4
  0035e	d8 45 98	 fadd	 DWORD PTR tv3974[ebp]
  00361	e8 00 00 00 00	 call	 __ftol2
  00366	89 85 f0 fe ff
	ff		 mov	 DWORD PTR _kFireTime$662658[ebp], eax

; 720  : 
; 721  : 			if( iterEndTime != vFireEndList.end() )

  0036c	8b 85 60 ff ff
	ff		 mov	 eax, DWORD PTR _iterEndTime$662650[ebp]
  00372	3b 45 80	 cmp	 eax, DWORD PTR _vFireEndList$662640[ebp]
  00375	74 22		 je	 SHORT $LN353@SetReraShu

; 722  : 			{
; 723  : 				kFireTime.dwDuration = ( *iterEndTime - fFireStart ) * fAniRate;

  00377	d9 40 08	 fld	 DWORD PTR [eax+8]
  0037a	d8 65 90	 fsub	 DWORD PTR _fFireStart$662657[ebp]
  0037d	d8 4d 8c	 fmul	 DWORD PTR _fAniRate$662628[ebp]
  00380	e8 00 00 00 00	 call	 __ftol2
  00385	89 85 f4 fe ff
	ff		 mov	 DWORD PTR _kFireTime$662658[ebp+4], eax

; 724  : 				++iterEndTime;

  0038b	8b 85 60 ff ff
	ff		 mov	 eax, DWORD PTR _iterEndTime$662650[ebp]
  00391	8b 00		 mov	 eax, DWORD PTR [eax]
  00393	89 85 60 ff ff
	ff		 mov	 DWORD PTR _iterEndTime$662650[ebp], eax
$LN353@SetReraShu:

; 725  : 			}
; 726  : 
; 727  : 			kFireTime.iAttributeIdx  = vInfoList[i].m_iWeaponIdx;

  00399	8b 47 28	 mov	 eax, DWORD PTR [edi+40]
  0039c	03 85 4c ff ff
	ff		 add	 eax, DWORD PTR tv4652[ebp]
  003a2	8b 08		 mov	 ecx, DWORD PTR [eax]
  003a4	89 8d f8 fe ff
	ff		 mov	 DWORD PTR _kFireTime$662658[ebp+8], ecx

; 728  : 			kFireTime.iResistanceIdx = vInfoList[i].m_iResistanceIdx;

  003aa	8b 48 04	 mov	 ecx, DWORD PTR [eax+4]

; 729  : 			kFireTime.szWoundedAni   = vInfoList[i].m_WoundedAnimation;

  003ad	83 c0 08	 add	 eax, 8
  003b0	89 8d fc fe ff
	ff		 mov	 DWORD PTR _kFireTime$662658[ebp+12], ecx
  003b6	50		 push	 eax
  003b7	8d 8d 04 ff ff
	ff		 lea	 ecx, DWORD PTR _kFireTime$662658[ebp+20]
  003bd	ff 15 00 00 00
	00		 call	 DWORD PTR __imp_??4ioHashString@@QAEAAV0@ABV0@@Z

; 730  : 			kFireTime.dwWoundedAniDuration  = vInfoList[i].m_dwWoundedDuration;

  003c3	8b 47 28	 mov	 eax, DWORD PTR [edi+40]
  003c6	03 85 4c ff ff
	ff		 add	 eax, DWORD PTR tv4652[ebp]
  003cc	8b 48 18	 mov	 ecx, DWORD PTR [eax+24]
  003cf	89 8d 14 ff ff
	ff		 mov	 DWORD PTR _kFireTime$662658[ebp+36], ecx

; 731  : 			kFireTime.bLoopWoundedAni = vInfoList[i].m_bWoundedLoopAni;

  003d5	8a 40 20	 mov	 al, BYTE PTR [eax+32]
  003d8	88 85 00 ff ff
	ff		 mov	 BYTE PTR _kFireTime$662658[ebp+16], al

; 732  : 
; 733  : 			kFireTime.dwWeaponIdx = m_dwBaseWeaponIndex + i;

  003de	8b 86 30 06 00
	00		 mov	 eax, DWORD PTR [esi+1584]
  003e4	03 85 7c ff ff
	ff		 add	 eax, DWORD PTR _i$662644[ebp]
  003ea	89 85 18 ff ff
	ff		 mov	 DWORD PTR _kFireTime$662658[ebp+40], eax

; 734  : 
; 735  : 			if( !(*iter)->szSubInfo.IsEmpty() )

  003f0	8b 85 74 ff ff
	ff		 mov	 eax, DWORD PTR _iter$662645[ebp]
  003f6	8b 08		 mov	 ecx, DWORD PTR [eax]
  003f8	83 c1 14	 add	 ecx, 20			; 00000014H
  003fb	ff 15 00 00 00
	00		 call	 DWORD PTR __imp_?IsEmpty@ioHashString@@QBE_NXZ
  00401	84 c0		 test	 al, al
  00403	0f 85 02 01 00
	00		 jne	 $LN7@SetReraShu

; 736  : 			{
; 737  : 				const StringVector &vParam = ioStringConverter::Split( (*iter)->szSubInfo.c_str(), " " );

  00409	6a 01		 push	 1
  0040b	68 00 00 00 00	 push	 OFFSET ??_C@_01CLKCMJKC@?5?$AA@
  00410	8d 4d 9c	 lea	 ecx, DWORD PTR $T662663[ebp]
  00413	c7 45 b0 0f 00
	00 00		 mov	 DWORD PTR $T662663[ebp+20], 15 ; 0000000fH
  0041a	89 5d ac	 mov	 DWORD PTR $T662663[ebp+16], ebx
  0041d	88 5d 9c	 mov	 BYTE PTR $T662663[ebp], bl
  00420	e8 00 00 00 00	 call	 ?assign@?$basic_string@DU?$char_traits@D@std@@V?$allocator@D@2@@std@@QAEAAV12@PBDI@Z ; std::basic_string<char,std::char_traits<char>,std::allocator<char> >::assign
  00425	8b 85 74 ff ff
	ff		 mov	 eax, DWORD PTR _iter$662645[ebp]
  0042b	8b 08		 mov	 ecx, DWORD PTR [eax]
  0042d	83 c1 14	 add	 ecx, 20			; 00000014H
  00430	c6 45 fc 05	 mov	 BYTE PTR __$EHRec$[ebp+8], 5
  00434	ff 15 00 00 00
	00		 call	 DWORD PTR __imp_?c_str@ioHashString@@QBEPBDXZ
  0043a	50		 push	 eax
  0043b	8d 4d d4	 lea	 ecx, DWORD PTR $T662664[ebp]
  0043e	c7 45 e8 0f 00
	00 00		 mov	 DWORD PTR $T662664[ebp+20], 15 ; 0000000fH
  00445	89 5d e4	 mov	 DWORD PTR $T662664[ebp+16], ebx
  00448	88 5d d4	 mov	 BYTE PTR $T662664[ebp], bl
  0044b	e8 00 00 00 00	 call	 ?assign@?$basic_string@DU?$char_traits@D@std@@V?$allocator@D@2@@std@@QAEAAV12@PBD@Z ; std::basic_string<char,std::char_traits<char>,std::allocator<char> >::assign
  00450	53		 push	 ebx
  00451	8d 45 9c	 lea	 eax, DWORD PTR $T662663[ebp]
  00454	50		 push	 eax
  00455	8d 45 d4	 lea	 eax, DWORD PTR $T662664[ebp]
  00458	50		 push	 eax
  00459	c6 45 fc 06	 mov	 BYTE PTR __$EHRec$[ebp+8], 6
  0045d	ff 15 00 00 00
	00		 call	 DWORD PTR __imp_?Split@ioStringConverter@@SAABV?$vector@V?$basic_string@DU?$char_traits@D@std@@V?$allocator@D@2@@std@@V?$allocator@V?$basic_string@DU?$char_traits@D@std@@V?$allocator@D@2@@std@@@2@@std@@ABV?$basic_string@DU?$char_traits@D@std@@V?$allocator@D@2@@3@0H@Z
  00463	83 c4 0c	 add	 esp, 12			; 0000000cH
  00466	53		 push	 ebx
  00467	6a 01		 push	 1
  00469	8d 4d d4	 lea	 ecx, DWORD PTR $T662664[ebp]
  0046c	89 45 90	 mov	 DWORD PTR _vParam$662662[ebp], eax
  0046f	e8 00 00 00 00	 call	 ?_Tidy@?$basic_string@DU?$char_traits@D@std@@V?$allocator@D@2@@std@@QAEX_NI@Z ; std::basic_string<char,std::char_traits<char>,std::allocator<char> >::_Tidy
  00474	53		 push	 ebx
  00475	6a 01		 push	 1
  00477	8d 4d 9c	 lea	 ecx, DWORD PTR $T662663[ebp]
  0047a	c6 45 fc 04	 mov	 BYTE PTR __$EHRec$[ebp+8], 4
  0047e	e8 00 00 00 00	 call	 ?_Tidy@?$basic_string@DU?$char_traits@D@std@@V?$allocator@D@2@@std@@QAEX_NI@Z ; std::basic_string<char,std::char_traits<char>,std::allocator<char> >::_Tidy

; 738  : 				if( vParam.size() >= 1 )

  00483	8b 45 90	 mov	 eax, DWORD PTR _vParam$662662[ebp]
  00486	8b 08		 mov	 ecx, DWORD PTR [eax]
  00488	8b 40 04	 mov	 eax, DWORD PTR [eax+4]
  0048b	2b c1		 sub	 eax, ecx
  0048d	6a 1c		 push	 28			; 0000001cH
  0048f	99		 cdq
  00490	59		 pop	 ecx
  00491	f7 f9		 idiv	 ecx
  00493	83 f8 01	 cmp	 eax, 1
  00496	72 73		 jb	 SHORT $LN7@SetReraShu

; 739  : 				{
; 740  : 					ioHashString szTypeName = vParam[0].c_str();

  00498	8b 45 90	 mov	 eax, DWORD PTR _vParam$662662[ebp]
  0049b	8b 00		 mov	 eax, DWORD PTR [eax]
  0049d	83 78 14 10	 cmp	 DWORD PTR [eax+20], 16	; 00000010H
  004a1	72 02		 jb	 SHORT $LN447@SetReraShu
  004a3	8b 00		 mov	 eax, DWORD PTR [eax]
$LN447@SetReraShu:
  004a5	50		 push	 eax
  004a6	8d 4d c4	 lea	 ecx, DWORD PTR _szTypeName$662666[ebp]
  004a9	ff 15 00 00 00
	00		 call	 DWORD PTR __imp_??0ioHashString@@QAE@PBD@Z

; 741  : 					kFireTime.eCollisionType = GetAniCollisionType( szTypeName );

  004af	8d 45 c4	 lea	 eax, DWORD PTR _szTypeName$662666[ebp]
  004b2	50		 push	 eax
  004b3	c6 45 fc 07	 mov	 BYTE PTR __$EHRec$[ebp+8], 7
  004b7	e8 00 00 00 00	 call	 ?GetAniCollisionType@@YA?AW4AniCollisionType@@ABVioHashString@@@Z ; GetAniCollisionType
  004bc	89 85 1c ff ff
	ff		 mov	 DWORD PTR _kFireTime$662658[ebp+44], eax

; 742  : 
; 743  : 					if( vParam.size() == 2 && kFireTime.eCollisionType == ACT_SPECIAL )

  004c2	8b 45 90	 mov	 eax, DWORD PTR _vParam$662662[ebp]
  004c5	59		 pop	 ecx
  004c6	8b 08		 mov	 ecx, DWORD PTR [eax]
  004c8	8b 40 04	 mov	 eax, DWORD PTR [eax+4]
  004cb	2b c1		 sub	 eax, ecx
  004cd	6a 1c		 push	 28			; 0000001cH
  004cf	89 4d 90	 mov	 DWORD PTR tv4016[ebp], ecx
  004d2	99		 cdq
  004d3	59		 pop	 ecx
  004d4	f7 f9		 idiv	 ecx
  004d6	83 f8 02	 cmp	 eax, 2
  004d9	75 23		 jne	 SHORT $LN6@SetReraShu
  004db	83 bd 1c ff ff
	ff 07		 cmp	 DWORD PTR _kFireTime$662658[ebp+44], 7
  004e2	75 1a		 jne	 SHORT $LN6@SetReraShu

; 744  : 					{
; 745  : 						kFireTime.szSpecialCollisionBox = vParam[1].c_str();

  004e4	8b 45 90	 mov	 eax, DWORD PTR tv4016[ebp]
  004e7	03 c1		 add	 eax, ecx
  004e9	83 78 14 10	 cmp	 DWORD PTR [eax+20], 16	; 00000010H
  004ed	72 02		 jb	 SHORT $LN457@SetReraShu
  004ef	8b 00		 mov	 eax, DWORD PTR [eax]
$LN457@SetReraShu:
  004f1	50		 push	 eax
  004f2	8d 8d 20 ff ff
	ff		 lea	 ecx, DWORD PTR _kFireTime$662658[ebp+48]
  004f8	ff 15 00 00 00
	00		 call	 DWORD PTR __imp_??4ioHashString@@QAEAAV0@PBD@Z
$LN6@SetReraShu:

; 746  : 					}
; 747  : 				}

  004fe	8d 4d c4	 lea	 ecx, DWORD PTR _szTypeName$662666[ebp]
  00501	c6 45 fc 04	 mov	 BYTE PTR __$EHRec$[ebp+8], 4
  00505	ff 15 00 00 00
	00		 call	 DWORD PTR __imp_??1ioHashString@@QAE@XZ
$LN7@SetReraShu:

; 748  : 			}
; 749  : 
; 750  : 			kFireTime.eFireTimeType = FTT_DUMMY_CHAR_ATTACK;
; 751  : 			kFireTime.m_iExtraValue = m_iCreateIndex;

  0050b	8b 86 dc 01 00
	00		 mov	 eax, DWORD PTR [esi+476]

; 752  : 
; 753  : 			m_vAttackFireTimeList.push_back( kFireTime );

  00511	8d 8e 78 05 00
	00		 lea	 ecx, DWORD PTR [esi+1400]
  00517	8d 95 f0 fe ff
	ff		 lea	 edx, DWORD PTR _kFireTime$662658[ebp]
  0051d	89 85 44 ff ff
	ff		 mov	 DWORD PTR _kFireTime$662658[ebp+84], eax
  00523	8b 01		 mov	 eax, DWORD PTR [ecx]
  00525	52		 push	 edx
  00526	50		 push	 eax
  00527	c7 85 30 ff ff
	ff 0b 00 00 00	 mov	 DWORD PTR _kFireTime$662658[ebp+64], 11 ; 0000000bH
  00531	e8 00 00 00 00	 call	 ?_Insert@?$list@UFireTime@@V?$allocator@UFireTime@@@std@@@std@@QAEXV?$_List_const_iterator@V?$_List_val@UFireTime@@V?$allocator@UFireTime@@@std@@@std@@@2@ABUFireTime@@@Z ; std::list<FireTime,std::allocator<FireTime> >::_Insert

; 754  : 		}

  00536	8d 8d f0 fe ff
	ff		 lea	 ecx, DWORD PTR _kFireTime$662658[ebp]
  0053c	c6 45 fc 02	 mov	 BYTE PTR __$EHRec$[ebp+8], 2
  00540	e8 00 00 00 00	 call	 ??1FireTime@@QAE@XZ
  00545	83 85 74 ff ff
	ff 04		 add	 DWORD PTR _iter$662645[ebp], 4
  0054c	8b 85 74 ff ff
	ff		 mov	 eax, DWORD PTR _iter$662645[ebp]
  00552	ff 85 7c ff ff
	ff		 inc	 DWORD PTR _i$662644[ebp]
  00558	83 85 4c ff ff
	ff 28		 add	 DWORD PTR tv4652[ebp], 40 ; 00000028H
  0055f	3b 85 68 ff ff
	ff		 cmp	 eax, DWORD PTR _vFireStartList$662635[ebp+4]
  00565	0f 85 d1 fd ff
	ff		 jne	 $LN12@SetReraShu
$LN10@SetReraShu:

; 755  : 
; 756  : 		SetReservedSliding( rkCurAttribute.m_vForceInfoList, iAniID, fAniRate, rkCurAttribute.m_dwPreDelay );

  0056b	f3 0f 10 45 8c	 movss	 xmm0, DWORD PTR _fAniRate$662628[ebp]
  00570	6a 01		 push	 1
  00572	ff 77 48	 push	 DWORD PTR [edi+72]
  00575	83 c7 38	 add	 edi, 56			; 00000038H
  00578	51		 push	 ecx
  00579	f3 0f 11 04 24	 movss	 DWORD PTR [esp], xmm0
  0057e	ff 75 94	 push	 DWORD PTR _iAniID$[ebp]
  00581	8b ce		 mov	 ecx, esi
  00583	57		 push	 edi
  00584	e8 00 00 00 00	 call	 ?SetReservedSliding@ioDummyChar@@QAEXABV?$vector@UForceInfo@@V?$allocator@UForceInfo@@@std@@@std@@HMK_N@Z ; ioDummyChar::SetReservedSliding

; 757  : 		//  
; 758  : 
; 759  : 		m_dwExtraAniJumpTime = 0;
; 760  : 		m_fExtraAniJumpPower = 0.0f;

  00589	0f 57 c0	 xorps	 xmm0, xmm0
  0058c	89 9e 2c 0b 00
	00		 mov	 DWORD PTR [esi+2860], ebx
  00592	f3 0f 11 86 30
	0b 00 00	 movss	 DWORD PTR [esi+2864], xmm0

; 761  : 		m_vExtraAniJumpList.clear();

  0059a	8b 86 3c 0b 00
	00		 mov	 eax, DWORD PTR [esi+2876]
  005a0	8b 8e 38 0b 00
	00		 mov	 ecx, DWORD PTR [esi+2872]
  005a6	50		 push	 eax
  005a7	51		 push	 ecx
  005a8	8d 45 98	 lea	 eax, DWORD PTR $T680102[ebp]
  005ab	50		 push	 eax
  005ac	8d 8e 38 0b 00
	00		 lea	 ecx, DWORD PTR [esi+2872]
  005b2	e8 00 00 00 00	 call	 ?erase@?$vector@UExtraAniJump@@V?$allocator@UExtraAniJump@@@std@@@std@@QAE?AV?$_Vector_iterator@V?$_Vector_val@UExtraAniJump@@V?$allocator@UExtraAniJump@@@std@@@std@@@2@V?$_Vector_const_iterator@V?$_Vector_val@UExtraAniJump@@V?$allocator@UExtraAniJump@@@std@@@std@@@2@0@Z ; std::vector<ExtraAniJump,std::allocator<ExtraAniJump> >::erase

; 762  : 
; 763  : 		AniEventConstPtrList vExtraAniJumpList;

  005b7	89 9d 50 ff ff
	ff		 mov	 DWORD PTR _vExtraAniJumpList$662668[ebp], ebx
  005bd	89 9d 54 ff ff
	ff		 mov	 DWORD PTR _vExtraAniJumpList$662668[ebp+4], ebx
  005c3	89 9d 58 ff ff
	ff		 mov	 DWORD PTR _vExtraAniJumpList$662668[ebp+8], ebx

; 764  : 		m_pGroup->GetAnimationEventConstPtrList_e( iAniID, "extra_ani_jump", vExtraAniJumpList );

  005c9	8b 46 04	 mov	 eax, DWORD PTR [esi+4]
  005cc	6a 03		 push	 3
  005ce	89 45 98	 mov	 DWORD PTR $T680275[ebp], eax
  005d1	c6 45 fc 08	 mov	 BYTE PTR __$EHRec$[ebp+8], 8
  005d5	c7 45 dc 88 94
	9f 98		 mov	 DWORD PTR _szEncEventType$680163[ebp], -1734372216 ; 989f9488H
  005dc	c7 45 e0 8c b3
	8a 84		 mov	 DWORD PTR _szEncEventType$680163[ebp+4], -2071284852 ; 848ab38cH
  005e3	c7 45 e4 84 b3
	81 9f		 mov	 DWORD PTR _szEncEventType$680163[ebp+8], -1618889852 ; 9f81b384H
  005ea	66 c7 45 e8 80
	9c		 mov	 WORD PTR _szEncEventType$680163[ebp+12], 40064 ; 00009c80H
  005f0	8d 45 dc	 lea	 eax, DWORD PTR _szEncEventType$680163[ebp]
  005f3	88 5d ea	 mov	 BYTE PTR _szEncEventType$680163[ebp+14], bl
  005f6	59		 pop	 ecx
$LL601@SetReraShu:
  005f7	81 30 ed ec eb
	ea		 xor	 DWORD PTR [eax], -353637139 ; eaebecedH
  005fd	83 c0 04	 add	 eax, 4
  00600	49		 dec	 ecx
  00601	75 f4		 jne	 SHORT $LL601@SetReraShu
  00603	6a 0c		 push	 12			; 0000000cH
  00605	58		 pop	 eax
$LL598@SetReraShu:
  00606	8b c8		 mov	 ecx, eax
  00608	81 e1 03 00 00
	80		 and	 ecx, -2147483645	; 80000003H
  0060e	79 05		 jns	 SHORT $LN770@SetReraShu
  00610	49		 dec	 ecx
  00611	83 c9 fc	 or	 ecx, -4			; fffffffcH
  00614	41		 inc	 ecx
$LN770@SetReraShu:
  00615	b2 ed		 mov	 dl, -19			; ffffffedH
  00617	2a d1		 sub	 dl, cl
  00619	30 54 05 dc	 xor	 BYTE PTR _szEncEventType$680163[ebp+eax], dl
  0061d	40		 inc	 eax
  0061e	83 f8 0e	 cmp	 eax, 14			; 0000000eH
  00621	7c e3		 jl	 SHORT $LL598@SetReraShu
  00623	8d 45 dc	 lea	 eax, DWORD PTR _szEncEventType$680163[ebp]
  00626	50		 push	 eax
  00627	8d 4d c4	 lea	 ecx, DWORD PTR $T680220[ebp]
  0062a	ff 15 00 00 00
	00		 call	 DWORD PTR __imp_??0ioHashString@@QAE@PBD@Z
  00630	8b 4d 98	 mov	 ecx, DWORD PTR $T680275[ebp]
  00633	8d 85 50 ff ff
	ff		 lea	 eax, DWORD PTR _vExtraAniJumpList$662668[ebp]
  00639	50		 push	 eax
  0063a	8d 45 c4	 lea	 eax, DWORD PTR $T680220[ebp]
  0063d	50		 push	 eax
  0063e	ff 75 94	 push	 DWORD PTR _iAniID$[ebp]
  00641	c6 45 fc 09	 mov	 BYTE PTR __$EHRec$[ebp+8], 9
  00645	ff 15 00 00 00
	00		 call	 DWORD PTR __imp_?GetAnimationEventConstPtrList@ioEntityGroup@@QAEHHABVioHashString@@AAV?$vector@PBUAniEventTime@@V?$allocator@PBUAniEventTime@@@std@@@std@@@Z
  0064b	8d 4d c4	 lea	 ecx, DWORD PTR $T680220[ebp]
  0064e	c6 45 fc 08	 mov	 BYTE PTR __$EHRec$[ebp+8], 8
  00652	ff 15 00 00 00
	00		 call	 DWORD PTR __imp_??1ioHashString@@QAE@XZ

; 765  : 
; 766  : 		AniEventConstPtrList::iterator iter_event = vExtraAniJumpList.begin();

  00658	8b 85 50 ff ff
	ff		 mov	 eax, DWORD PTR _vExtraAniJumpList$662668[ebp]
  0065e	89 45 94	 mov	 DWORD PTR _iter_event$662669[ebp], eax
  00661	e9 fd 00 00 00	 jmp	 $LN772@SetReraShu
$LN5@SetReraShu:

; 768  : 		{
; 769  : 			ExtraAniJump kInfo;
; 770  : 
; 771  : 			kInfo.m_dwTime = (*iter_event)->fEventTime * fAniRate;

  00666	8b 45 94	 mov	 eax, DWORD PTR _iter_event$662669[ebp]
  00669	8b 00		 mov	 eax, DWORD PTR [eax]

; 772  : 			kInfo.m_dwTime += dwCurTime;

  0066b	d9 00		 fld	 DWORD PTR [eax]
  0066d	0f 57 c0	 xorps	 xmm0, xmm0
  00670	d8 4d 8c	 fmul	 DWORD PTR _fAniRate$662628[ebp]
  00673	f3 0f 11 85 7c
	ff ff ff	 movss	 DWORD PTR _kInfo$662675[ebp+4], xmm0
  0067b	e8 00 00 00 00	 call	 __ftol2
  00680	03 85 48 ff ff
	ff		 add	 eax, DWORD PTR _dwCurTime$[ebp]
  00686	89 85 78 ff ff
	ff		 mov	 DWORD PTR _kInfo$662675[ebp], eax

; 773  : 
; 774  : 			if( !(*iter_event)->szSubInfo.IsEmpty() )

  0068c	8b 45 94	 mov	 eax, DWORD PTR _iter_event$662669[ebp]
  0068f	8b 08		 mov	 ecx, DWORD PTR [eax]
  00691	8d 49 14	 lea	 ecx, DWORD PTR [ecx+20]
  00694	ff 15 00 00 00
	00		 call	 DWORD PTR __imp_?IsEmpty@ioHashString@@QBE_NXZ
  0069a	84 c0		 test	 al, al
  0069c	0f 85 a8 00 00
	00		 jne	 $LN2@SetReraShu

; 775  : 			{
; 776  : 				const StringVector &vParam = ioStringConverter::Split( (*iter_event)->szSubInfo.c_str(), " " );

  006a2	6a 01		 push	 1
  006a4	68 00 00 00 00	 push	 OFFSET ??_C@_01CLKCMJKC@?5?$AA@
  006a9	8d 4d b8	 lea	 ecx, DWORD PTR $T662678[ebp]
  006ac	c7 45 cc 0f 00
	00 00		 mov	 DWORD PTR $T662678[ebp+20], 15 ; 0000000fH
  006b3	89 5d c8	 mov	 DWORD PTR $T662678[ebp+16], ebx
  006b6	88 5d b8	 mov	 BYTE PTR $T662678[ebp], bl
  006b9	e8 00 00 00 00	 call	 ?assign@?$basic_string@DU?$char_traits@D@std@@V?$allocator@D@2@@std@@QAEAAV12@PBDI@Z ; std::basic_string<char,std::char_traits<char>,std::allocator<char> >::assign
  006be	8b 45 94	 mov	 eax, DWORD PTR _iter_event$662669[ebp]
  006c1	8b 08		 mov	 ecx, DWORD PTR [eax]
  006c3	83 c1 14	 add	 ecx, 20			; 00000014H
  006c6	c6 45 fc 0a	 mov	 BYTE PTR __$EHRec$[ebp+8], 10 ; 0000000aH
  006ca	ff 15 00 00 00
	00		 call	 DWORD PTR __imp_?c_str@ioHashString@@QBEPBDXZ
  006d0	50		 push	 eax
  006d1	8d 4d 9c	 lea	 ecx, DWORD PTR $T662679[ebp]
  006d4	c7 45 b0 0f 00
	00 00		 mov	 DWORD PTR $T662679[ebp+20], 15 ; 0000000fH
  006db	89 5d ac	 mov	 DWORD PTR $T662679[ebp+16], ebx
  006de	88 5d 9c	 mov	 BYTE PTR $T662679[ebp], bl
  006e1	e8 00 00 00 00	 call	 ?assign@?$basic_string@DU?$char_traits@D@std@@V?$allocator@D@2@@std@@QAEAAV12@PBD@Z ; std::basic_string<char,std::char_traits<char>,std::allocator<char> >::assign
  006e6	53		 push	 ebx
  006e7	8d 45 b8	 lea	 eax, DWORD PTR $T662678[ebp]
  006ea	50		 push	 eax
  006eb	8d 45 9c	 lea	 eax, DWORD PTR $T662679[ebp]
  006ee	50		 push	 eax
  006ef	c6 45 fc 0b	 mov	 BYTE PTR __$EHRec$[ebp+8], 11 ; 0000000bH
  006f3	ff 15 00 00 00
	00		 call	 DWORD PTR __imp_?Split@ioStringConverter@@SAABV?$vector@V?$basic_string@DU?$char_traits@D@std@@V?$allocator@D@2@@std@@V?$allocator@V?$basic_string@DU?$char_traits@D@std@@V?$allocator@D@2@@std@@@2@@std@@ABV?$basic_string@DU?$char_traits@D@std@@V?$allocator@D@2@@3@0H@Z
  006f9	83 c4 0c	 add	 esp, 12			; 0000000cH
  006fc	53		 push	 ebx
  006fd	6a 01		 push	 1
  006ff	8d 4d 9c	 lea	 ecx, DWORD PTR $T662679[ebp]
  00702	89 45 98	 mov	 DWORD PTR _vParam$662677[ebp], eax
  00705	e8 00 00 00 00	 call	 ?_Tidy@?$basic_string@DU?$char_traits@D@std@@V?$allocator@D@2@@std@@QAEX_NI@Z ; std::basic_string<char,std::char_traits<char>,std::allocator<char> >::_Tidy
  0070a	53		 push	 ebx
  0070b	6a 01		 push	 1
  0070d	8d 4d b8	 lea	 ecx, DWORD PTR $T662678[ebp]
  00710	c6 45 fc 08	 mov	 BYTE PTR __$EHRec$[ebp+8], 8
  00714	e8 00 00 00 00	 call	 ?_Tidy@?$basic_string@DU?$char_traits@D@std@@V?$allocator@D@2@@std@@QAEX_NI@Z ; std::basic_string<char,std::char_traits<char>,std::allocator<char> >::_Tidy

; 777  : 				if( vParam.size() == 1 )

  00719	8b 45 98	 mov	 eax, DWORD PTR _vParam$662677[ebp]
  0071c	8b 08		 mov	 ecx, DWORD PTR [eax]
  0071e	8b 40 04	 mov	 eax, DWORD PTR [eax+4]
  00721	2b c1		 sub	 eax, ecx
  00723	6a 1c		 push	 28			; 0000001cH
  00725	89 4d 98	 mov	 DWORD PTR tv4130[ebp], ecx
  00728	99		 cdq
  00729	59		 pop	 ecx
  0072a	f7 f9		 idiv	 ecx
  0072c	83 f8 01	 cmp	 eax, 1
  0072f	75 19		 jne	 SHORT $LN2@SetReraShu

; 778  : 				{
; 779  : 					kInfo.m_fPower = ioStringConverter::ParseFloat( vParam[0].c_str() );

  00731	8b 45 98	 mov	 eax, DWORD PTR tv4130[ebp]
  00734	83 78 14 10	 cmp	 DWORD PTR [eax+20], 16	; 00000010H
  00738	72 02		 jb	 SHORT $LN712@SetReraShu
  0073a	8b 00		 mov	 eax, DWORD PTR [eax]
$LN712@SetReraShu:
  0073c	50		 push	 eax
  0073d	ff 15 00 00 00
	00		 call	 DWORD PTR __imp_?ParseFloat@ioStringConverter@@SAMPBD@Z
  00743	d9 9d 7c ff ff
	ff		 fstp	 DWORD PTR _kInfo$662675[ebp+4]
  00749	59		 pop	 ecx
$LN2@SetReraShu:

; 780  : 				}
; 781  : 			}
; 782  : 
; 783  : 			m_vExtraAniJumpList.push_back(kInfo);

  0074a	8d 85 78 ff ff
	ff		 lea	 eax, DWORD PTR _kInfo$662675[ebp]
  00750	50		 push	 eax
  00751	8d 8e 38 0b 00
	00		 lea	 ecx, DWORD PTR [esi+2872]
  00757	e8 00 00 00 00	 call	 ?push_back@?$vector@UExtraAniJump@@V?$allocator@UExtraAniJump@@@std@@@std@@QAEXABUExtraAniJump@@@Z ; std::vector<ExtraAniJump,std::allocator<ExtraAniJump> >::push_back

; 784  : 
; 785  : 			++iter_event;

  0075c	83 45 94 04	 add	 DWORD PTR _iter_event$662669[ebp], 4
  00760	8b 45 94	 mov	 eax, DWORD PTR _iter_event$662669[ebp]
$LN772@SetReraShu:

; 767  : 		while( iter_event != vExtraAniJumpList.end() )

  00763	3b 85 54 ff ff
	ff		 cmp	 eax, DWORD PTR _vExtraAniJumpList$662668[ebp+4]
  00769	0f 85 f7 fe ff
	ff		 jne	 $LN5@SetReraShu

; 786  : 		}
; 787  : 
; 788  : 		if( !m_vExtraAniJumpList.empty() )

  0076f	8b 86 38 0b 00
	00		 mov	 eax, DWORD PTR [esi+2872]
  00775	3b 86 3c 0b 00
	00		 cmp	 eax, DWORD PTR [esi+2876]
  0077b	74 1d		 je	 SHORT $LN1@SetReraShu

; 789  : 		{
; 790  : 			m_iCurExtraAniJump = 0;
; 791  : 			m_dwExtraAniJumpTime = m_vExtraAniJumpList[m_iCurExtraAniJump].m_dwTime;

  0077d	8b be 38 0b 00
	00		 mov	 edi, DWORD PTR [esi+2872]
  00783	89 9e 34 0b 00
	00		 mov	 DWORD PTR [esi+2868], ebx
  00789	8b 07		 mov	 eax, DWORD PTR [edi]
  0078b	89 86 2c 0b 00
	00		 mov	 DWORD PTR [esi+2860], eax

; 792  : 			m_fExtraAniJumpPower = m_vExtraAniJumpList[m_iCurExtraAniJump].m_fPower;

  00791	d9 47 04	 fld	 DWORD PTR [edi+4]
  00794	d9 9e 30 0b 00
	00		 fstp	 DWORD PTR [esi+2864]
$LN1@SetReraShu:

; 793  : 		}
; 794  : 	}

  0079a	8d 8d 50 ff ff
	ff		 lea	 ecx, DWORD PTR _vExtraAniJumpList$662668[ebp]
  007a0	c6 45 fc 02	 mov	 BYTE PTR __$EHRec$[ebp+8], 2
  007a4	e8 00 00 00 00	 call	 ?_Tidy@?$vector@PBUAniEventTime@@V?$allocator@PBUAniEventTime@@@std@@@std@@IAEXXZ ; std::vector<AniEventTime const *,std::allocator<AniEventTime const *> >::_Tidy
$LN771@SetReraShu:
  007a9	8d 4d 80	 lea	 ecx, DWORD PTR _vFireEndList$662640[ebp]
  007ac	e8 00 00 00 00	 call	 ?clear@?$list@MV?$allocator@M@std@@@std@@QAEXXZ ; std::list<float,std::allocator<float> >::clear
  007b1	ff 75 80	 push	 DWORD PTR _vFireEndList$662640[ebp]
  007b4	e8 00 00 00 00	 call	 ??3@YAXPAX@Z		; operator delete
  007b9	83 4d fc ff	 or	 DWORD PTR __$EHRec$[ebp+8], -1
  007bd	59		 pop	 ecx
  007be	8d 8d 64 ff ff
	ff		 lea	 ecx, DWORD PTR _vFireStartList$662635[ebp]
  007c4	e8 00 00 00 00	 call	 ?_Tidy@?$vector@PBUAniEventTime@@V?$allocator@PBUAniEventTime@@@std@@@std@@IAEXXZ ; std::vector<AniEventTime const *,std::allocator<AniEventTime const *> >::_Tidy
$LN736@SetReraShu:

; 795  : }

  007c9	e8 00 00 00 00	 call	 __EH_epilog3_GS
  007ce	c2 08 00	 ret	 8
_TEXT	ENDS
;	COMDAT text$x
text$x	SEGMENT
__unwindfunclet$?SetReraShuState@ioMamaHahaDummy@@IAEXABUAttackAttribute@@W4DummySubUseType@@@Z$0:
  00000	8d 8d 64 ff ff
	ff		 lea	 ecx, DWORD PTR _vFireStartList$662635[ebp]
  00006	e9 00 00 00 00	 jmp	 ??1?$vector@PBUAniEventTime@@V?$allocator@PBUAniEventTime@@@std@@@std@@QAE@XZ ; std::vector<AniEventTime const *,std::allocator<AniEventTime const *> >::~vector<AniEventTime const *,std::allocator<AniEventTime const *> >
__unwindfunclet$?SetReraShuState@ioMamaHahaDummy@@IAEXABUAttackAttribute@@W4DummySubUseType@@@Z$9:
  0000b	8d 4d c4	 lea	 ecx, DWORD PTR $T679206[ebp]
  0000e	ff 25 00 00 00
	00		 jmp	 DWORD PTR __imp_??1ioHashString@@QAE@XZ
__unwindfunclet$?SetReraShuState@ioMamaHahaDummy@@IAEXABUAttackAttribute@@W4DummySubUseType@@@Z$1:
  00014	8d 4d 80	 lea	 ecx, DWORD PTR _vFireEndList$662640[ebp]
  00017	e9 00 00 00 00	 jmp	 ??1?$list@MV?$allocator@M@std@@@std@@QAE@XZ ; std::list<float,std::allocator<float> >::~list<float,std::allocator<float> >
__unwindfunclet$?SetReraShuState@ioMamaHahaDummy@@IAEXABUAttackAttribute@@W4DummySubUseType@@@Z$11:
  0001c	8d 4d c4	 lea	 ecx, DWORD PTR $T679445[ebp]
  0001f	ff 25 00 00 00
	00		 jmp	 DWORD PTR __imp_??1ioHashString@@QAE@XZ
__unwindfunclet$?SetReraShuState@ioMamaHahaDummy@@IAEXABUAttackAttribute@@W4DummySubUseType@@@Z$2:
  00025	8d 8d f0 fe ff
	ff		 lea	 ecx, DWORD PTR _kFireTime$662658[ebp]
  0002b	e9 00 00 00 00	 jmp	 ??1FireTime@@QAE@XZ
__unwindfunclet$?SetReraShuState@ioMamaHahaDummy@@IAEXABUAttackAttribute@@W4DummySubUseType@@@Z$3:
  00030	8d 4d 9c	 lea	 ecx, DWORD PTR $T662663[ebp]
  00033	e9 00 00 00 00	 jmp	 ??1?$basic_string@DU?$char_traits@D@std@@V?$allocator@D@2@@std@@QAE@XZ ; std::basic_string<char,std::char_traits<char>,std::allocator<char> >::~basic_string<char,std::char_traits<char>,std::allocator<char> >
__unwindfunclet$?SetReraShuState@ioMamaHahaDummy@@IAEXABUAttackAttribute@@W4DummySubUseType@@@Z$4:
  00038	8d 4d d4	 lea	 ecx, DWORD PTR $T662664[ebp]
  0003b	e9 00 00 00 00	 jmp	 ??1?$basic_string@DU?$char_traits@D@std@@V?$allocator@D@2@@std@@QAE@XZ ; std::basic_string<char,std::char_traits<char>,std::allocator<char> >::~basic_string<char,std::char_traits<char>,std::allocator<char> >
__unwindfunclet$?SetReraShuState@ioMamaHahaDummy@@IAEXABUAttackAttribute@@W4DummySubUseType@@@Z$5:
  00040	8d 4d c4	 lea	 ecx, DWORD PTR _szTypeName$662666[ebp]
  00043	ff 25 00 00 00
	00		 jmp	 DWORD PTR __imp_??1ioHashString@@QAE@XZ
__unwindfunclet$?SetReraShuState@ioMamaHahaDummy@@IAEXABUAttackAttribute@@W4DummySubUseType@@@Z$6:
  00049	8d 8d 50 ff ff
	ff		 lea	 ecx, DWORD PTR _vExtraAniJumpList$662668[ebp]
  0004f	e9 00 00 00 00	 jmp	 ??1?$vector@PBUAniEventTime@@V?$allocator@PBUAniEventTime@@@std@@@std@@QAE@XZ ; std::vector<AniEventTime const *,std::allocator<AniEventTime const *> >::~vector<AniEventTime const *,std::allocator<AniEventTime const *> >
__unwindfunclet$?SetReraShuState@ioMamaHahaDummy@@IAEXABUAttackAttribute@@W4DummySubUseType@@@Z$12:
  00054	8d 4d c4	 lea	 ecx, DWORD PTR $T680220[ebp]
  00057	ff 25 00 00 00
	00		 jmp	 DWORD PTR __imp_??1ioHashString@@QAE@XZ
__unwindfunclet$?SetReraShuState@ioMamaHahaDummy@@IAEXABUAttackAttribute@@W4DummySubUseType@@@Z$7:
  0005d	8d 4d b8	 lea	 ecx, DWORD PTR $T662678[ebp]
  00060	e9 00 00 00 00	 jmp	 ??1?$basic_string@DU?$char_traits@D@std@@V?$allocator@D@2@@std@@QAE@XZ ; std::basic_string<char,std::char_traits<char>,std::allocator<char> >::~basic_string<char,std::char_traits<char>,std::allocator<char> >
__unwindfunclet$?SetReraShuState@ioMamaHahaDummy@@IAEXABUAttackAttribute@@W4DummySubUseType@@@Z$8:
  00065	8d 4d 9c	 lea	 ecx, DWORD PTR $T662679[ebp]
  00068	e9 00 00 00 00	 jmp	 ??1?$basic_string@DU?$char_traits@D@std@@V?$allocator@D@2@@std@@QAE@XZ ; std::basic_string<char,std::char_traits<char>,std::allocator<char> >::~basic_string<char,std::char_traits<char>,std::allocator<char> >
__ehhandler$?SetReraShuState@ioMamaHahaDummy@@IAEXABUAttackAttribute@@W4DummySubUseType@@@Z:
  0006d	8b 54 24 08	 mov	 edx, DWORD PTR [esp+8]
  00071	8d 42 0c	 lea	 eax, DWORD PTR [edx+12]
  00074	8b 8a ec fe ff
	ff		 mov	 ecx, DWORD PTR [edx-276]
  0007a	33 c8		 xor	 ecx, eax
  0007c	e8 00 00 00 00	 call	 @__security_check_cookie@4
  00081	8b 4a fc	 mov	 ecx, DWORD PTR [edx-4]
  00084	33 c8		 xor	 ecx, eax
  00086	e8 00 00 00 00	 call	 @__security_check_cookie@4
  0008b	b8 00 00 00 00	 mov	 eax, OFFSET __ehfuncinfo$?SetReraShuState@ioMamaHahaDummy@@IAEXABUAttackAttribute@@W4DummySubUseType@@@Z
  00090	e9 00 00 00 00	 jmp	 ___CxxFrameHandler3
text$x	ENDS
?SetReraShuState@ioMamaHahaDummy@@IAEXABUAttackAttribute@@W4DummySubUseType@@@Z ENDP ; ioMamaHahaDummy::SetReraShuState
PUBLIC	_rkCurAttribute$GSCopy$
PUBLIC	?SetShichikapuEtuState@ioMamaHahaDummy@@IAEXABUAttackAttribute@@W4DummySubUseType@@@Z ; ioMamaHahaDummy::SetShichikapuEtuState
EXTRN	__imp_?CalcDirectionQuaternion@ioMath@@SAXAAUD3DXQUATERNION@@ABUD3DXVECTOR3@@@Z:PROC
EXTRN	_D3DXQuaternionRotationAxis@12:PROC
EXTRN	__imp_?UNIT_Y@ioMath@@2UD3DXVECTOR3@@A:BYTE
EXTRN	__imp_?ArrangeHead@ioMath@@SAMM@Z:PROC
;	COMDAT xdata$x
; File c:\program files (x86)\microsoft visual studio 10.0\vc\include\vector
xdata$x	SEGMENT
__ehfuncinfo$?SetShichikapuEtuState@ioMamaHahaDummy@@IAEXABUAttackAttribute@@W4DummySubUseType@@@Z DD 019930522H
	DD	0cH
	DD	FLAT:__unwindtable$?SetShichikapuEtuState@ioMamaHahaDummy@@IAEXABUAttackAttribute@@W4DummySubUseType@@@Z
	DD	2 DUP(00H)
	DD	2 DUP(00H)
	DD	00H
	DD	01H
__unwindtable$?SetShichikapuEtuState@ioMamaHahaDummy@@IAEXABUAttackAttribute@@W4DummySubUseType@@@Z DD 0ffffffffH
	DD	FLAT:__unwindfunclet$?SetShichikapuEtuState@ioMamaHahaDummy@@IAEXABUAttackAttribute@@W4DummySubUseType@@@Z$0
	DD	00H
	DD	FLAT:__unwindfunclet$?SetShichikapuEtuState@ioMamaHahaDummy@@IAEXABUAttackAttribute@@W4DummySubUseType@@@Z$9
	DD	00H
	DD	FLAT:__unwindfunclet$?SetShichikapuEtuState@ioMamaHahaDummy@@IAEXABUAttackAttribute@@W4DummySubUseType@@@Z$1
	DD	02H
	DD	FLAT:__unwindfunclet$?SetShichikapuEtuState@ioMamaHahaDummy@@IAEXABUAttackAttribute@@W4DummySubUseType@@@Z$11
	DD	02H
	DD	FLAT:__unwindfunclet$?SetShichikapuEtuState@ioMamaHahaDummy@@IAEXABUAttackAttribute@@W4DummySubUseType@@@Z$2
	DD	04H
	DD	FLAT:__unwindfunclet$?SetShichikapuEtuState@ioMamaHahaDummy@@IAEXABUAttackAttribute@@W4DummySubUseType@@@Z$3
	DD	05H
	DD	FLAT:__unwindfunclet$?SetShichikapuEtuState@ioMamaHahaDummy@@IAEXABUAttackAttribute@@W4DummySubUseType@@@Z$4
	DD	04H
	DD	FLAT:__unwindfunclet$?SetShichikapuEtuState@ioMamaHahaDummy@@IAEXABUAttackAttribute@@W4DummySubUseType@@@Z$5
	DD	02H
	DD	FLAT:__unwindfunclet$?SetShichikapuEtuState@ioMamaHahaDummy@@IAEXABUAttackAttribute@@W4DummySubUseType@@@Z$6
	DD	08H
	DD	FLAT:__unwindfunclet$?SetShichikapuEtuState@ioMamaHahaDummy@@IAEXABUAttackAttribute@@W4DummySubUseType@@@Z$12
	DD	08H
	DD	FLAT:__unwindfunclet$?SetShichikapuEtuState@ioMamaHahaDummy@@IAEXABUAttackAttribute@@W4DummySubUseType@@@Z$7
	DD	0aH
	DD	FLAT:__unwindfunclet$?SetShichikapuEtuState@ioMamaHahaDummy@@IAEXABUAttackAttribute@@W4DummySubUseType@@@Z$8
; Function compile flags: /Ogsp
; File d:\lost saga for developer\youtube\tutorial\source\src\lsclient\iomamahahadummy.cpp
xdata$x	ENDS
;	COMDAT ?SetShichikapuEtuState@ioMamaHahaDummy@@IAEXABUAttackAttribute@@W4DummySubUseType@@@Z
_TEXT	SEGMENT
_kFireTime$662757 = -356				; size = 88
_dwCurTime$ = -268					; size = 4
$T681943 = -264						; size = 16
$T681078 = -264						; size = 16
$T680941 = -264						; size = 16
_szTypeName$662766 = -264				; size = 16
_qtRot$662710 = -264					; size = 16
_qtNewRot$ = -248					; size = 16
_vExtraAniJumpList$662768 = -232			; size = 16
_vFireStartList$662734 = -216				; size = 16
_rkCurAttribute$GSCopy$ = -200				; size = 4
_iterEndTime$662749 = -200				; size = 4
$T680785 = -196						; size = 4
_i$662743 = -196					; size = 4
$T680784 = -192						; size = 4
_iter$662744 = -192					; size = 4
_vFireEndList$662739 = -188				; size = 12
tv5508 = -176						; size = 4
_pOwner$ = -176						; size = 4
_fAniRate$662728 = -172					; size = 4
_iter_event$662769 = -168				; size = 4
_iAniID$ = -168						; size = 4
tv5416 = -164						; size = 4
tv5285 = -164						; size = 4
$T681139 = -164						; size = 4
$T680996 = -164						; size = 4
$T680786 = -164						; size = 4
_value$680760 = -164					; size = 4
_value$680742 = -164					; size = 4
$T680707 = -164						; size = 4
_fFireStart$662756 = -164				; size = 4
_fAngle$662711 = -164					; size = 4
$T680703 = -164						; size = 4
$T662778 = -160						; size = 28
$T662779 = -132						; size = 28
$T662763 = -132						; size = 28
$T662708 = -104						; size = 12
_vAxis$662713 = -92					; size = 12
_vGap$662701 = -92					; size = 12
$T662764 = -80						; size = 28
_szEncEventType$681843 = -72				; size = 15
$T662723 = -64						; size = 12
$T662720 = -64						; size = 12
$T662718 = -64						; size = 12
_vCurDir$662706 = -52					; size = 12
_vNewDir$ = -40						; size = 12
_szEncEventType$681138 = -28				; size = 7
_szEncEventType$680884 = -28				; size = 7
_v$680776 = -28						; size = 12
_kInfo$662775 = -24					; size = 8
tv5461 = -20						; size = 4
tv5453 = -20						; size = 4
tv5306 = -20						; size = 4
tv5301 = -20						; size = 4
tv5294 = -20						; size = 4
tv5288 = -20						; size = 4
tv5283 = -20						; size = 4
tv5281 = -20						; size = 4
tv5252 = -20						; size = 4
tv4684 = -20						; size = 4
$T681955 = -20						; size = 4
$T681782 = -20						; size = 4
$T681003 = -20						; size = 4
$T681005 = -20						; size = 4
__$EHRec$ = -12						; size = 12
_rkCurAttribute$ = 8					; size = 4
_eSubType$ = 12						; size = 4
?SetShichikapuEtuState@ioMamaHahaDummy@@IAEXABUAttackAttribute@@W4DummySubUseType@@@Z PROC ; ioMamaHahaDummy::SetShichikapuEtuState, COMDAT
; _this$ = ecx

; 798  : {

  00000	68 58 01 00 00	 push	 344			; 00000158H
  00005	b8 00 00 00 00	 mov	 eax, __ehhandler$?SetShichikapuEtuState@ioMamaHahaDummy@@IAEXABUAttackAttribute@@W4DummySubUseType@@@Z
  0000a	e8 00 00 00 00	 call	 __EH_prolog3_GS
  0000f	8b 45 08	 mov	 eax, DWORD PTR _rkCurAttribute$[ebp]
  00012	8b d9		 mov	 ebx, ecx

; 799  : 	ioBaseChar *pOwner = GetOwner();

  00014	89 85 38 ff ff
	ff		 mov	 DWORD PTR _rkCurAttribute$GSCopy$[ebp], eax
  0001a	e8 00 00 00 00	 call	 ?GetOwner@ioDummyChar@@QBEPAVioBaseChar@@XZ ; ioDummyChar::GetOwner
  0001f	89 85 50 ff ff
	ff		 mov	 DWORD PTR _pOwner$[ebp], eax

; 800  : 	if( !pOwner ) return;

  00025	85 c0		 test	 eax, eax
  00027	0f 84 d0 0b 00
	00		 je	 $LN784@SetShichik@2

; 801  : 
; 802  : 	if( m_State == DCS_MAMAHAHA_STATE )

  0002d	6a 10		 push	 16			; 00000010H
  0002f	5e		 pop	 esi
  00030	39 b3 30 02 00
	00		 cmp	 DWORD PTR [ebx+560], esi
  00036	75 1f		 jne	 SHORT $LN21@SetShichik@2

; 803  : 	{
; 804  : 		switch( m_MamaHahaState )

  00038	8b 83 80 14 00
	00		 mov	 eax, DWORD PTR [ebx+5248]
  0003e	85 c0		 test	 eax, eax
  00040	7e 15		 jle	 SHORT $LN21@SetShichik@2
  00042	83 f8 03	 cmp	 eax, 3
  00045	0f 8e b2 0b 00
	00		 jle	 $LN784@SetShichik@2
  0004b	83 c0 fb	 add	 eax, -5			; fffffffbH
  0004e	83 f8 02	 cmp	 eax, 2

; 805  : 		{
; 806  : 		case MHS_OWNER_ATTACH:
; 807  : 		case MHS_FIRE_ATTACK:
; 808  : 		case MHS_FLYING1:
; 809  : 		case MHS_FLYING2:
; 810  : 		case MHS_RETURN2:
; 811  : 		case MHS_ENEMY_ATTACH:
; 812  : 			return;

  00051	0f 86 a6 0b 00
	00		 jbe	 $LN784@SetShichik@2
$LN21@SetShichik@2:

; 813  : 		}
; 814  : 	}
; 815  : 
; 816  : 	DWORD dwCurTime = FRAMEGETTIME();

  00057	ff 15 00 00 00
	00		 call	 DWORD PTR __imp_?GetSingleton@ioFrameTimer@@SAAAV1@XZ
  0005d	8b c8		 mov	 ecx, eax
  0005f	ff 15 00 00 00
	00		 call	 DWORD PTR __imp_?GetLoopSec@ioFrameTimer@@QBEKXZ

; 817  : 	m_State = DCS_MAMAHAHA_STATE;
; 818  : 
; 819  : 	switch( m_MamaHahaState )

  00065	83 bb 80 14 00
	00 04		 cmp	 DWORD PTR [ebx+5248], 4
  0006c	89 85 f4 fe ff
	ff		 mov	 DWORD PTR _dwCurTime$[ebp], eax
  00072	89 b3 30 02 00
	00		 mov	 DWORD PTR [ebx+560], esi
  00078	0f 84 99 02 00
	00		 je	 $LN17@SetShichik@2

; 828  : 		}
; 829  : 		break;
; 830  : 	default:
; 831  : 		{
; 832  : 			m_fShichikapuMoveMaxRange = m_fShichikapuMoveSpeed * m_dwShichikapuMoveDuration / FLOAT1000;

  0007e	8d 85 5c ff ff
	ff		 lea	 eax, DWORD PTR _value$680742[ebp]
  00084	50		 push	 eax
  00085	8d 8b b0 15 00
	00		 lea	 ecx, DWORD PTR [ebx+5552]
  0008b	e8 00 00 00 00	 call	 ?DecryptValueToPool@?$CEncrypt@K@@QAEXPAK@Z ; CEncrypt<unsigned long>::DecryptValueToPool
  00090	8b 85 5c ff ff
	ff		 mov	 eax, DWORD PTR _value$680742[ebp]
  00096	89 85 5c ff ff
	ff		 mov	 DWORD PTR $T680703[ebp], eax
  0009c	b8 e8 03 00 00	 mov	 eax, 1000		; 000003e8H
  000a1	8b f0		 mov	 esi, eax
  000a3	8d 85 5c ff ff
	ff		 lea	 eax, DWORD PTR $T680703[ebp]
  000a9	50		 push	 eax
  000aa	8d 8b f0 14 00
	00		 lea	 ecx, DWORD PTR [ebx+5360]
  000b0	e8 00 00 00 00	 call	 ??D?$CEncrypt@M@@QAEMABK@Z ; CEncrypt<float>::operator*
  000b5	89 75 ec	 mov	 DWORD PTR tv5461[ebp], esi
  000b8	db 45 ec	 fild	 DWORD PTR tv5461[ebp]
  000bb	85 f6		 test	 esi, esi
  000bd	79 06		 jns	 SHORT $LN808@SetShichik@2
  000bf	d8 05 00 00 00
	00		 fadd	 DWORD PTR __real@4f800000
$LN808@SetShichik@2:
  000c5	de f9		 fdivp	 ST(1), ST(0)
  000c7	d9 9b f8 15 00
	00		 fstp	 DWORD PTR [ebx+5624]

; 833  : 
; 834  : 			D3DXVECTOR3 vCurDir = GetWorldOrientation() * D3DXVECTOR3( 0.0f, 0.0f, -FLOAT1 );

  000cd	b8 01 00 00 00	 mov	 eax, 1
  000d2	0f 57 c0	 xorps	 xmm0, xmm0
  000d5	89 45 ec	 mov	 DWORD PTR tv5453[ebp], eax
  000d8	db 45 ec	 fild	 DWORD PTR tv5453[ebp]
  000db	f3 0f 11 45 98	 movss	 DWORD PTR $T662708[ebp], xmm0
  000e0	f3 0f 11 45 9c	 movss	 DWORD PTR $T662708[ebp+4], xmm0
  000e5	85 c0		 test	 eax, eax
  000e7	79 06		 jns	 SHORT $LN809@SetShichik@2
  000e9	d8 05 00 00 00
	00		 fadd	 DWORD PTR __real@4f800000
$LN809@SetShichik@2:
  000ef	8d 45 98	 lea	 eax, DWORD PTR $T662708[ebp]
  000f2	d9 e0		 fchs
  000f4	50		 push	 eax
  000f5	d9 5d a0	 fstp	 DWORD PTR $T662708[ebp+8]
  000f8	8b 03		 mov	 eax, DWORD PTR [ebx]
  000fa	8b cb		 mov	 ecx, ebx
  000fc	ff 50 74	 call	 DWORD PTR [eax+116]
  000ff	50		 push	 eax
  00100	8d 45 cc	 lea	 eax, DWORD PTR _vCurDir$662706[ebp]
  00103	50		 push	 eax
  00104	ff 15 00 00 00
	00		 call	 DWORD PTR __imp_??D@YA?AUD3DXVECTOR3@@ABUD3DXQUATERNION@@ABU0@@Z
  0010a	83 c4 0c	 add	 esp, 12			; 0000000cH

; 835  : 			D3DXVec3Normalize( &vCurDir, &vCurDir );

  0010d	8d 45 cc	 lea	 eax, DWORD PTR _vCurDir$662706[ebp]
  00110	50		 push	 eax
  00111	50		 push	 eax
  00112	e8 00 00 00 00	 call	 _D3DXVec3Normalize@8

; 836  : 
; 837  : 			D3DXQUATERNION qtRot;
; 838  : 			float fAngle = ioMath::ArrangeHead( (float)m_fShichikapuMoveAngle );

  00117	8d 85 5c ff ff
	ff		 lea	 eax, DWORD PTR _value$680760[ebp]
  0011d	50		 push	 eax
  0011e	8d 8b 20 15 00
	00		 lea	 ecx, DWORD PTR [ebx+5408]
  00124	e8 00 00 00 00	 call	 ?DecryptValueToPool@?$CEncrypt@M@@QAEXPAM@Z ; CEncrypt<float>::DecryptValueToPool
  00129	f3 0f 10 85 5c
	ff ff ff	 movss	 xmm0, DWORD PTR _value$680760[ebp]
  00131	51		 push	 ecx
  00132	f3 0f 11 04 24	 movss	 DWORD PTR [esp], xmm0
  00137	ff 15 00 00 00
	00		 call	 DWORD PTR __imp_?ArrangeHead@ioMath@@SAMM@Z
  0013d	d9 9d 5c ff ff
	ff		 fstp	 DWORD PTR _fAngle$662711[ebp]

; 839  : 
; 840  : 			D3DXVECTOR3 vAxis;
; 841  : 			D3DXVec3Cross( &vAxis, &ioMath::UNIT_Y, &vCurDir );

  00143	a1 00 00 00 00	 mov	 eax, DWORD PTR __imp_?UNIT_Y@ioMath@@2UD3DXVECTOR3@@A
  00148	f3 0f 10 40 04	 movss	 xmm0, DWORD PTR [eax+4]
  0014d	f3 0f 10 48 08	 movss	 xmm1, DWORD PTR [eax+8]
  00152	f3 0f 10 55 d4	 movss	 xmm2, DWORD PTR _vCurDir$662706[ebp+8]
  00157	0f 5a d8	 cvtps2pd xmm3, xmm0
  0015a	0f 5a d2	 cvtps2pd xmm2, xmm2
  0015d	f2 0f 59 d3	 mulsd	 xmm2, xmm3
  00161	f3 0f 10 5d d0	 movss	 xmm3, DWORD PTR _vCurDir$662706[ebp+4]
  00166	0f 5a e1	 cvtps2pd xmm4, xmm1
  00169	0f 5a db	 cvtps2pd xmm3, xmm3
  0016c	f2 0f 59 dc	 mulsd	 xmm3, xmm4
  00170	f2 0f 5c d3	 subsd	 xmm2, xmm3
  00174	f3 0f 10 5d cc	 movss	 xmm3, DWORD PTR _vCurDir$662706[ebp]
  00179	0f 5a c9	 cvtps2pd xmm1, xmm1
  0017c	f2 0f 5a d2	 cvtsd2ss xmm2, xmm2
  00180	f3 0f 11 55 e4	 movss	 DWORD PTR _v$680776[ebp], xmm2
  00185	f3 0f 10 10	 movss	 xmm2, DWORD PTR [eax]
  00189	0f 5a db	 cvtps2pd xmm3, xmm3
  0018c	f2 0f 59 cb	 mulsd	 xmm1, xmm3
  00190	f3 0f 10 5d d4	 movss	 xmm3, DWORD PTR _vCurDir$662706[ebp+8]
  00195	0f 5a e2	 cvtps2pd xmm4, xmm2
  00198	0f 5a db	 cvtps2pd xmm3, xmm3
  0019b	f2 0f 59 dc	 mulsd	 xmm3, xmm4
  0019f	f2 0f 5c cb	 subsd	 xmm1, xmm3
  001a3	66 0f 5a c9	 cvtpd2ps xmm1, xmm1
  001a7	f3 0f 11 4d e8	 movss	 DWORD PTR _v$680776[ebp+4], xmm1
  001ac	f3 0f 10 4d d0	 movss	 xmm1, DWORD PTR _vCurDir$662706[ebp+4]
  001b1	0f 5a d2	 cvtps2pd xmm2, xmm2
  001b4	0f 5a c9	 cvtps2pd xmm1, xmm1
  001b7	f2 0f 59 ca	 mulsd	 xmm1, xmm2
  001bb	f3 0f 10 55 cc	 movss	 xmm2, DWORD PTR _vCurDir$662706[ebp]
  001c0	0f 5a c0	 cvtps2pd xmm0, xmm0
  001c3	0f 5a d2	 cvtps2pd xmm2, xmm2
  001c6	f2 0f 59 c2	 mulsd	 xmm0, xmm2
  001ca	f2 0f 5c c8	 subsd	 xmm1, xmm0
  001ce	0f 57 c0	 xorps	 xmm0, xmm0
  001d1	f2 0f 5a c1	 cvtsd2ss xmm0, xmm1
  001d5	f3 0f 11 45 ec	 movss	 DWORD PTR _v$680776[ebp+8], xmm0
  001da	8d 75 e4	 lea	 esi, DWORD PTR _v$680776[ebp]
  001dd	8d 7d a4	 lea	 edi, DWORD PTR _vAxis$662713[ebp]
  001e0	a5		 movsd
  001e1	59		 pop	 ecx

; 842  : 			D3DXVec3Normalize( &vAxis, &vAxis );

  001e2	8d 45 a4	 lea	 eax, DWORD PTR _vAxis$662713[ebp]
  001e5	a5		 movsd
  001e6	50		 push	 eax
  001e7	50		 push	 eax
  001e8	a5		 movsd
  001e9	e8 00 00 00 00	 call	 _D3DXVec3Normalize@8

; 843  : 
; 844  : 			D3DXQuaternionRotationAxis( &qtRot, &vAxis, DEGtoRAD(fAngle) );

  001ee	51		 push	 ecx
  001ef	d9 85 5c ff ff
	ff		 fld	 DWORD PTR _fAngle$662711[ebp]
  001f5	8d 45 a4	 lea	 eax, DWORD PTR _vAxis$662713[ebp]
  001f8	dc 0d 00 00 00
	00		 fmul	 QWORD PTR __real@3f91df46a2526c7a
  001fe	d9 9d 5c ff ff
	ff		 fstp	 DWORD PTR tv5416[ebp]
  00204	d9 85 5c ff ff
	ff		 fld	 DWORD PTR tv5416[ebp]
  0020a	d9 1c 24	 fstp	 DWORD PTR [esp]
  0020d	50		 push	 eax
  0020e	8d 85 f8 fe ff
	ff		 lea	 eax, DWORD PTR _qtRot$662710[ebp]
  00214	50		 push	 eax
  00215	e8 00 00 00 00	 call	 _D3DXQuaternionRotationAxis@12

; 845  : 
; 846  : 			vCurDir = qtRot * vCurDir;

  0021a	8d 45 cc	 lea	 eax, DWORD PTR _vCurDir$662706[ebp]
  0021d	50		 push	 eax
  0021e	8d 85 f8 fe ff
	ff		 lea	 eax, DWORD PTR _qtRot$662710[ebp]
  00224	50		 push	 eax
  00225	8d 45 c0	 lea	 eax, DWORD PTR $T662718[ebp]
  00228	50		 push	 eax
  00229	ff 15 00 00 00
	00		 call	 DWORD PTR __imp_??D@YA?AUD3DXVECTOR3@@ABUD3DXQUATERNION@@ABU0@@Z
  0022f	8b f0		 mov	 esi, eax
  00231	8d 7d cc	 lea	 edi, DWORD PTR _vCurDir$662706[ebp]
  00234	a5		 movsd
  00235	83 c4 0c	 add	 esp, 12			; 0000000cH

; 847  : 			D3DXVec3Normalize( &vCurDir, &vCurDir );

  00238	8d 45 cc	 lea	 eax, DWORD PTR _vCurDir$662706[ebp]
  0023b	a5		 movsd
  0023c	50		 push	 eax
  0023d	50		 push	 eax
  0023e	a5		 movsd
  0023f	e8 00 00 00 00	 call	 _D3DXVec3Normalize@8

; 848  : 
; 849  : 			m_vShichikapuMoveTargetPos = GetWorldPosition() + (m_fShichikapuMoveMaxRange * vCurDir);

  00244	f3 0f 10 55 cc	 movss	 xmm2, DWORD PTR _vCurDir$662706[ebp]
  00249	f3 0f 10 83 f8
	15 00 00	 movss	 xmm0, DWORD PTR [ebx+5624]
  00251	8b 03		 mov	 eax, DWORD PTR [ebx]
  00253	0f 5a c8	 cvtps2pd xmm1, xmm0
  00256	0f 5a d2	 cvtps2pd xmm2, xmm2
  00259	f2 0f 59 ca	 mulsd	 xmm1, xmm2
  0025d	66 0f 5a c9	 cvtpd2ps xmm1, xmm1
  00261	f3 0f 11 8d 5c
	ff ff ff	 movss	 DWORD PTR $T680786[ebp], xmm1
  00269	f3 0f 10 4d d0	 movss	 xmm1, DWORD PTR _vCurDir$662706[ebp+4]
  0026e	0f 5a c9	 cvtps2pd xmm1, xmm1
  00271	0f 5a d0	 cvtps2pd xmm2, xmm0
  00274	f2 0f 59 ca	 mulsd	 xmm1, xmm2
  00278	66 0f 5a c9	 cvtpd2ps xmm1, xmm1
  0027c	0f 5a c0	 cvtps2pd xmm0, xmm0
  0027f	f3 0f 11 8d 3c
	ff ff ff	 movss	 DWORD PTR $T680785[ebp], xmm1
  00287	f3 0f 10 4d d4	 movss	 xmm1, DWORD PTR _vCurDir$662706[ebp+8]
  0028c	0f 5a c9	 cvtps2pd xmm1, xmm1
  0028f	f2 0f 59 c8	 mulsd	 xmm1, xmm0
  00293	8b cb		 mov	 ecx, ebx
  00295	66 0f 5a c1	 cvtpd2ps xmm0, xmm1
  00299	f3 0f 11 85 40
	ff ff ff	 movss	 DWORD PTR $T680784[ebp], xmm0
  002a1	ff 50 70	 call	 DWORD PTR [eax+112]
  002a4	f3 0f 10 08	 movss	 xmm1, DWORD PTR [eax]
  002a8	f3 0f 10 85 5c
	ff ff ff	 movss	 xmm0, DWORD PTR $T680786[ebp]
  002b0	f3 0f 10 95 3c
	ff ff ff	 movss	 xmm2, DWORD PTR $T680785[ebp]
  002b8	f3 0f 10 9d 40
	ff ff ff	 movss	 xmm3, DWORD PTR $T680784[ebp]
  002c0	0f 5a c9	 cvtps2pd xmm1, xmm1
  002c3	0f 5a c0	 cvtps2pd xmm0, xmm0
  002c6	f2 0f 58 c1	 addsd	 xmm0, xmm1
  002ca	f3 0f 10 48 04	 movss	 xmm1, DWORD PTR [eax+4]
  002cf	0f 5a d2	 cvtps2pd xmm2, xmm2
  002d2	0f 5a c9	 cvtps2pd xmm1, xmm1
  002d5	f2 0f 58 ca	 addsd	 xmm1, xmm2
  002d9	f3 0f 10 50 08	 movss	 xmm2, DWORD PTR [eax+8]
  002de	0f 5a d2	 cvtps2pd xmm2, xmm2
  002e1	0f 5a db	 cvtps2pd xmm3, xmm3
  002e4	f2 0f 58 d3	 addsd	 xmm2, xmm3
  002e8	f2 0f 5a c0	 cvtsd2ss xmm0, xmm0
  002ec	f3 0f 11 45 c0	 movss	 DWORD PTR $T662720[ebp], xmm0
  002f1	66 0f 5a c9	 cvtpd2ps xmm1, xmm1
  002f5	f3 0f 11 4d c4	 movss	 DWORD PTR $T662720[ebp+4], xmm1
  002fa	66 0f 5a d2	 cvtpd2ps xmm2, xmm2
  002fe	f3 0f 11 55 c8	 movss	 DWORD PTR $T662720[ebp+8], xmm2
  00303	8d bb e0 15 00
	00		 lea	 edi, DWORD PTR [ebx+5600]
  00309	8d 75 c0	 lea	 esi, DWORD PTR $T662720[ebp]
  0030c	a5		 movsd
  0030d	a5		 movsd
  0030e	a5		 movsd

; 850  : 			m_vShichikapuMoveDir = vCurDir;

  0030f	8d 75 cc	 lea	 esi, DWORD PTR _vCurDir$662706[ebp]

; 851  : 		}
; 852  : 		break;

  00312	e9 ab 00 00 00	 jmp	 $LN820@SetShichik@2
$LN17@SetShichik@2:

; 820  : 	{
; 821  : 	case MHS_RETURN1:
; 822  : 		{
; 823  : 			D3DXVECTOR3 vGap = m_vShichikapuMoveTargetPos - GetWorldPosition();

  00317	8b 03		 mov	 eax, DWORD PTR [ebx]
  00319	8b cb		 mov	 ecx, ebx
  0031b	ff 50 70	 call	 DWORD PTR [eax+112]
  0031e	f3 0f 10 08	 movss	 xmm1, DWORD PTR [eax]
  00322	f3 0f 10 50 04	 movss	 xmm2, DWORD PTR [eax+4]
  00327	f3 0f 10 83 e0
	15 00 00	 movss	 xmm0, DWORD PTR [ebx+5600]
  0032f	f3 0f 10 58 08	 movss	 xmm3, DWORD PTR [eax+8]
  00334	0f 5a c0	 cvtps2pd xmm0, xmm0
  00337	0f 5a c9	 cvtps2pd xmm1, xmm1
  0033a	f2 0f 5c c1	 subsd	 xmm0, xmm1
  0033e	f3 0f 10 8b e4
	15 00 00	 movss	 xmm1, DWORD PTR [ebx+5604]
  00346	0f 5a d2	 cvtps2pd xmm2, xmm2
  00349	66 0f 5a c0	 cvtpd2ps xmm0, xmm0
  0034d	0f 5a c9	 cvtps2pd xmm1, xmm1
  00350	f2 0f 5c ca	 subsd	 xmm1, xmm2
  00354	f3 0f 10 93 e8
	15 00 00	 movss	 xmm2, DWORD PTR [ebx+5608]
  0035c	f3 0f 11 45 a4	 movss	 DWORD PTR _vGap$662701[ebp], xmm0
  00361	0f 5a d2	 cvtps2pd xmm2, xmm2

; 824  : 			m_fShichikapuMoveMaxRange = D3DXVec3Length( &vGap );

  00364	f3 0f 5a c0	 cvtss2sd xmm0, xmm0
  00368	66 0f 5a c9	 cvtpd2ps xmm1, xmm1
  0036c	f2 0f 59 c0	 mulsd	 xmm0, xmm0
  00370	0f 5a db	 cvtps2pd xmm3, xmm3
  00373	f2 0f 5c d3	 subsd	 xmm2, xmm3
  00377	66 0f 5a d2	 cvtpd2ps xmm2, xmm2
  0037b	f3 0f 11 4d a8	 movss	 DWORD PTR _vGap$662701[ebp+4], xmm1
  00380	f3 0f 11 55 ac	 movss	 DWORD PTR _vGap$662701[ebp+8], xmm2
  00385	f3 0f 5a c9	 cvtss2sd xmm1, xmm1
  00389	f3 0f 5a d2	 cvtss2sd xmm2, xmm2
  0038d	f2 0f 59 c9	 mulsd	 xmm1, xmm1
  00391	f2 0f 58 c1	 addsd	 xmm0, xmm1
  00395	f2 0f 59 d2	 mulsd	 xmm2, xmm2
  00399	f2 0f 58 c2	 addsd	 xmm0, xmm2
  0039d	66 0f 5a c0	 cvtpd2ps xmm0, xmm0

; 825  : 			D3DXVec3Normalize( &vGap, &vGap );

  003a1	8d 45 a4	 lea	 eax, DWORD PTR _vGap$662701[ebp]
  003a4	f3 0f 5a c0	 cvtss2sd xmm0, xmm0
  003a8	50		 push	 eax
  003a9	f2 0f 51 c0	 sqrtsd	 xmm0, xmm0
  003ad	66 0f 5a c0	 cvtpd2ps xmm0, xmm0
  003b1	50		 push	 eax
  003b2	f3 0f 11 83 f8
	15 00 00	 movss	 DWORD PTR [ebx+5624], xmm0
  003ba	e8 00 00 00 00	 call	 _D3DXVec3Normalize@8

; 826  : 
; 827  : 			m_vShichikapuMoveDir = vGap;

  003bf	8d 75 a4	 lea	 esi, DWORD PTR _vGap$662701[ebp]
$LN820@SetShichik@2:

; 853  : 	}
; 854  : 
; 855  : 	m_fShichikapuMoveCurRange = 0.0f;

  003c2	0f 57 c0	 xorps	 xmm0, xmm0
  003c5	8d 83 ec 15 00
	00		 lea	 eax, DWORD PTR [ebx+5612]
  003cb	8b f8		 mov	 edi, eax
  003cd	a5		 movsd
  003ce	a5		 movsd
  003cf	a5		 movsd

; 856  : 	m_MamaHahaState = MHS_FLYING1;
; 857  : 
; 858  : 	//
; 859  : 	D3DXVECTOR3 vNewDir = m_vShichikapuMoveDir;

  003d0	8b f0		 mov	 esi, eax
  003d2	8d 7d d8	 lea	 edi, DWORD PTR _vNewDir$[ebp]
  003d5	a5		 movsd
  003d6	a5		 movsd

; 860  : 	vNewDir.y = 0.0f;
; 861  : 	D3DXVec3Normalize( &vNewDir, &vNewDir );

  003d7	8d 45 d8	 lea	 eax, DWORD PTR _vNewDir$[ebp]
  003da	50		 push	 eax
  003db	a5		 movsd
  003dc	50		 push	 eax
  003dd	f3 0f 11 83 fc
	15 00 00	 movss	 DWORD PTR [ebx+5628], xmm0
  003e5	c7 83 80 14 00
	00 03 00 00 00	 mov	 DWORD PTR [ebx+5248], 3
  003ef	f3 0f 11 45 dc	 movss	 DWORD PTR _vNewDir$[ebp+4], xmm0
  003f4	e8 00 00 00 00	 call	 _D3DXVec3Normalize@8

; 862  : 
; 863  : 	D3DXQUATERNION qtNewRot;
; 864  : 	ioMath::CalcDirectionQuaternion( qtNewRot, -vNewDir );

  003f9	f3 0f 10 05 00
	00 00 00	 movss	 xmm0, DWORD PTR __mask@@NegFloat@
  00401	f3 0f 10 4d d8	 movss	 xmm1, DWORD PTR _vNewDir$[ebp]
  00406	f3 0f 10 55 dc	 movss	 xmm2, DWORD PTR _vNewDir$[ebp+4]
  0040b	f3 0f 10 5d e0	 movss	 xmm3, DWORD PTR _vNewDir$[ebp+8]
  00410	8d 45 c0	 lea	 eax, DWORD PTR $T662723[ebp]
  00413	50		 push	 eax
  00414	8d 85 08 ff ff
	ff		 lea	 eax, DWORD PTR _qtNewRot$[ebp]
  0041a	0f 57 c8	 xorps	 xmm1, xmm0
  0041d	0f 57 d0	 xorps	 xmm2, xmm0
  00420	0f 57 d8	 xorps	 xmm3, xmm0
  00423	50		 push	 eax
  00424	f3 0f 11 4d c0	 movss	 DWORD PTR $T662723[ebp], xmm1
  00429	f3 0f 11 55 c4	 movss	 DWORD PTR $T662723[ebp+4], xmm2
  0042e	f3 0f 11 5d c8	 movss	 DWORD PTR $T662723[ebp+8], xmm3
  00433	ff 15 00 00 00
	00		 call	 DWORD PTR __imp_?CalcDirectionQuaternion@ioMath@@SAXAAUD3DXQUATERNION@@ABUD3DXVECTOR3@@@Z

; 865  : 
; 866  : 	SetWorldOrientation( qtNewRot );

  00439	8b 03		 mov	 eax, DWORD PTR [ebx]
  0043b	59		 pop	 ecx
  0043c	59		 pop	 ecx
  0043d	8d 8d 08 ff ff
	ff		 lea	 ecx, DWORD PTR _qtNewRot$[ebp]
  00443	51		 push	 ecx
  00444	8b cb		 mov	 ecx, ebx
  00446	ff 50 48	 call	 DWORD PTR [eax+72]

; 867  : 	//
; 868  : 
; 869  : 	int iAniID = m_pGroup->GetAnimationIdx( rkCurAttribute.m_AttackAnimation );

  00449	8b b5 38 ff ff
	ff		 mov	 esi, DWORD PTR _rkCurAttribute$GSCopy$[ebp]
  0044f	8b 4b 04	 mov	 ecx, DWORD PTR [ebx+4]
  00452	56		 push	 esi
  00453	ff 15 00 00 00
	00		 call	 DWORD PTR __imp_?GetAnimationIdx@ioEntityGroup@@QAEHABVioHashString@@@Z
  00459	89 85 58 ff ff
	ff		 mov	 DWORD PTR _iAniID$[ebp], eax

; 870  : 	if( iAniID != -1 )

  0045f	83 f8 ff	 cmp	 eax, -1
  00462	0f 84 95 07 00
	00		 je	 $LN784@SetShichik@2

; 871  : 	{
; 872  : 		m_pGroup->ClearAllActionAni( FLOAT10, true );

  00468	b8 0a 00 00 00	 mov	 eax, 10			; 0000000aH
  0046d	89 45 ec	 mov	 DWORD PTR tv5306[ebp], eax
  00470	db 45 ec	 fild	 DWORD PTR tv5306[ebp]
  00473	6a 01		 push	 1
  00475	85 c0		 test	 eax, eax
  00477	79 06		 jns	 SHORT $LN810@SetShichik@2
  00479	d8 05 00 00 00
	00		 fadd	 DWORD PTR __real@4f800000
$LN810@SetShichik@2:
  0047f	51		 push	 ecx
  00480	8b 4b 04	 mov	 ecx, DWORD PTR [ebx+4]
  00483	d9 1c 24	 fstp	 DWORD PTR [esp]
  00486	ff 15 00 00 00
	00		 call	 DWORD PTR __imp_?ClearAllActionAni@ioEntityGroup@@QAEXM_N@Z

; 873  : 		m_pGroup->ClearAllLoopAni( FLOAT10, true );

  0048c	b8 0a 00 00 00	 mov	 eax, 10			; 0000000aH
  00491	89 45 ec	 mov	 DWORD PTR tv5301[ebp], eax
  00494	db 45 ec	 fild	 DWORD PTR tv5301[ebp]
  00497	6a 01		 push	 1
  00499	85 c0		 test	 eax, eax
  0049b	79 06		 jns	 SHORT $LN811@SetShichik@2
  0049d	d8 05 00 00 00
	00		 fadd	 DWORD PTR __real@4f800000
$LN811@SetShichik@2:
  004a3	51		 push	 ecx
  004a4	8b 4b 04	 mov	 ecx, DWORD PTR [ebx+4]
  004a7	d9 1c 24	 fstp	 DWORD PTR [esp]
  004aa	ff 15 00 00 00
	00		 call	 DWORD PTR __imp_?ClearAllLoopAni@ioEntityGroup@@QAEXM_N@Z

; 874  : 
; 875  : 		float fAniRate = rkCurAttribute.m_fAttackAniRate;

  004b0	f3 0f 10 4e 10	 movss	 xmm1, DWORD PTR [esi+16]

; 876  : 		if( fAniRate <= 0.0f )

  004b5	0f 57 c0	 xorps	 xmm0, xmm0
  004b8	0f 2f c1	 comiss	 xmm0, xmm1
  004bb	f3 0f 11 8d 54
	ff ff ff	 movss	 DWORD PTR _fAniRate$662728[ebp], xmm1
  004c3	72 1b		 jb	 SHORT $LN14@SetShichik@2

; 877  : 			fAniRate = FLOAT1;

  004c5	b8 01 00 00 00	 mov	 eax, 1
  004ca	89 45 ec	 mov	 DWORD PTR tv5294[ebp], eax
  004cd	db 45 ec	 fild	 DWORD PTR tv5294[ebp]
  004d0	85 c0		 test	 eax, eax
  004d2	79 06		 jns	 SHORT $LN812@SetShichik@2
  004d4	d8 05 00 00 00
	00		 fadd	 DWORD PTR __real@4f800000
$LN812@SetShichik@2:
  004da	d9 9d 54 ff ff
	ff		 fstp	 DWORD PTR _fAniRate$662728[ebp]
$LN14@SetShichik@2:

; 878  : 
; 879  : 		m_pGroup->SetLoopAni( iAniID, FLOAT10, FLOAT1, FLOAT1/fAniRate );

  004e0	b8 01 00 00 00	 mov	 eax, 1
  004e5	8b c8		 mov	 ecx, eax
  004e7	b8 01 00 00 00	 mov	 eax, 1
  004ec	8b d0		 mov	 edx, eax
  004ee	b8 0a 00 00 00	 mov	 eax, 10			; 0000000aH
  004f3	83 ec 10	 sub	 esp, 16			; 00000010H
  004f6	89 4d ec	 mov	 DWORD PTR tv5288[ebp], ecx
  004f9	db 45 ec	 fild	 DWORD PTR tv5288[ebp]
  004fc	f3 0f 11 44 24
	0c		 movss	 DWORD PTR [esp+12], xmm0
  00502	85 c9		 test	 ecx, ecx
  00504	79 06		 jns	 SHORT $LN813@SetShichik@2
  00506	d8 05 00 00 00
	00		 fadd	 DWORD PTR __real@4f800000
$LN813@SetShichik@2:
  0050c	d8 b5 54 ff ff
	ff		 fdiv	 DWORD PTR _fAniRate$662728[ebp]
  00512	89 55 ec	 mov	 DWORD PTR tv5283[ebp], edx
  00515	d9 9d 5c ff ff
	ff		 fstp	 DWORD PTR tv5285[ebp]
  0051b	d9 85 5c ff ff
	ff		 fld	 DWORD PTR tv5285[ebp]
  00521	d9 5c 24 08	 fstp	 DWORD PTR [esp+8]
  00525	db 45 ec	 fild	 DWORD PTR tv5283[ebp]
  00528	85 d2		 test	 edx, edx
  0052a	79 06		 jns	 SHORT $LN814@SetShichik@2
  0052c	d8 05 00 00 00
	00		 fadd	 DWORD PTR __real@4f800000
$LN814@SetShichik@2:
  00532	d9 5c 24 04	 fstp	 DWORD PTR [esp+4]
  00536	89 45 ec	 mov	 DWORD PTR tv5281[ebp], eax
  00539	db 45 ec	 fild	 DWORD PTR tv5281[ebp]
  0053c	85 c0		 test	 eax, eax
  0053e	79 06		 jns	 SHORT $LN815@SetShichik@2
  00540	d8 05 00 00 00
	00		 fadd	 DWORD PTR __real@4f800000
$LN815@SetShichik@2:
  00546	8b 4b 04	 mov	 ecx, DWORD PTR [ebx+4]
  00549	d9 1c 24	 fstp	 DWORD PTR [esp]
  0054c	ff b5 58 ff ff
	ff		 push	 DWORD PTR _iAniID$[ebp]
  00552	ff 15 00 00 00
	00		 call	 DWORD PTR __imp_?SetLoopAni@ioEntityGroup@@QAE_NHMMMM@Z

; 880  : 
; 881  : 		// fire 
; 882  : 		AniEventConstPtrList vFireStartList;

  00558	33 c0		 xor	 eax, eax
  0055a	89 85 28 ff ff
	ff		 mov	 DWORD PTR _vFireStartList$662734[ebp], eax
  00560	89 85 2c ff ff
	ff		 mov	 DWORD PTR _vFireStartList$662734[ebp+4], eax
  00566	89 85 30 ff ff
	ff		 mov	 DWORD PTR _vFireStartList$662734[ebp+8], eax
  0056c	89 45 fc	 mov	 DWORD PTR __$EHRec$[ebp+8], eax

; 883  : 		m_pGroup->GetAnimationEventConstPtrList_e( iAniID, "fire_s", vFireStartList );

  0056f	8b 43 04	 mov	 eax, DWORD PTR [ebx+4]
  00572	bf ed ec eb ea	 mov	 edi, -353637139		; eaebecedH
  00577	6a 04		 push	 4
  00579	89 85 5c ff ff
	ff		 mov	 DWORD PTR $T680996[ebp], eax
  0057f	c7 45 e4 8b 85
	99 8f		 mov	 DWORD PTR _szEncEventType$680884[ebp], -1885764213 ; 8f99858bH
  00586	31 7d e4	 xor	 DWORD PTR _szEncEventType$680884[ebp], edi
  00589	66 c7 45 e8 b2
	9f		 mov	 WORD PTR _szEncEventType$680884[ebp+4], 40882 ; 00009fb2H
  0058f	c6 45 ea 00	 mov	 BYTE PTR _szEncEventType$680884[ebp+6], 0
  00593	58		 pop	 eax
$LL199@SetShichik@2:
  00594	8b c8		 mov	 ecx, eax
  00596	81 e1 03 00 00
	80		 and	 ecx, -2147483645	; 80000003H
  0059c	79 05		 jns	 SHORT $LN816@SetShichik@2
  0059e	49		 dec	 ecx
  0059f	83 c9 fc	 or	 ecx, -4			; fffffffcH
  005a2	41		 inc	 ecx
$LN816@SetShichik@2:
  005a3	b2 ed		 mov	 dl, -19			; ffffffedH
  005a5	2a d1		 sub	 dl, cl
  005a7	30 54 05 e4	 xor	 BYTE PTR _szEncEventType$680884[ebp+eax], dl
  005ab	40		 inc	 eax
  005ac	83 f8 06	 cmp	 eax, 6
  005af	7c e3		 jl	 SHORT $LL199@SetShichik@2
  005b1	8d 45 e4	 lea	 eax, DWORD PTR _szEncEventType$680884[ebp]
  005b4	50		 push	 eax
  005b5	8d 8d f8 fe ff
	ff		 lea	 ecx, DWORD PTR $T680941[ebp]
  005bb	ff 15 00 00 00
	00		 call	 DWORD PTR __imp_??0ioHashString@@QAE@PBD@Z
  005c1	8b 8d 5c ff ff
	ff		 mov	 ecx, DWORD PTR $T680996[ebp]
  005c7	8d 85 28 ff ff
	ff		 lea	 eax, DWORD PTR _vFireStartList$662734[ebp]
  005cd	50		 push	 eax
  005ce	8d 85 f8 fe ff
	ff		 lea	 eax, DWORD PTR $T680941[ebp]
  005d4	50		 push	 eax
  005d5	ff b5 58 ff ff
	ff		 push	 DWORD PTR _iAniID$[ebp]
  005db	c6 45 fc 01	 mov	 BYTE PTR __$EHRec$[ebp+8], 1
  005df	ff 15 00 00 00
	00		 call	 DWORD PTR __imp_?GetAnimationEventConstPtrList@ioEntityGroup@@QAEHHABVioHashString@@AAV?$vector@PBUAniEventTime@@V?$allocator@PBUAniEventTime@@@std@@@std@@@Z
  005e5	8d 8d f8 fe ff
	ff		 lea	 ecx, DWORD PTR $T680941[ebp]
  005eb	c6 45 fc 00	 mov	 BYTE PTR __$EHRec$[ebp+8], 0
  005ef	ff 15 00 00 00
	00		 call	 DWORD PTR __imp_??1ioHashString@@QAE@XZ

; 884  : 
; 885  : 		std::list<float> vFireEndList;

  005f5	51		 push	 ecx
  005f6	89 65 ec	 mov	 DWORD PTR $T681005[ebp], esp
  005f9	8d 8d 44 ff ff
	ff		 lea	 ecx, DWORD PTR _vFireEndList$662739[ebp]
  005ff	89 65 ec	 mov	 DWORD PTR $T681003[ebp], esp
  00602	e8 00 00 00 00	 call	 ??0?$_List_val@MV?$allocator@M@std@@@std@@QAE@V?$allocator@M@1@@Z ; std::_List_val<float,std::allocator<float> >::_List_val<float,std::allocator<float> >

; 886  : 		m_pGroup->GetAnimationEventTimeList_e( iAniID, "fire_e", vFireEndList );

  00607	8b 43 04	 mov	 eax, DWORD PTR [ebx+4]
  0060a	c7 45 e4 8b 85
	99 8f		 mov	 DWORD PTR _szEncEventType$681138[ebp], -1885764213 ; 8f99858bH
  00611	31 7d e4	 xor	 DWORD PTR _szEncEventType$681138[ebp], edi
  00614	6a 04		 push	 4
  00616	c6 45 fc 02	 mov	 BYTE PTR __$EHRec$[ebp+8], 2
  0061a	89 85 5c ff ff
	ff		 mov	 DWORD PTR $T681139[ebp], eax
  00620	66 c7 45 e8 b2
	89		 mov	 WORD PTR _szEncEventType$681138[ebp+4], 35250 ; 000089b2H
  00626	c6 45 ea 00	 mov	 BYTE PTR _szEncEventType$681138[ebp+6], 0
  0062a	5f		 pop	 edi
$LL311@SetShichik@2:
  0062b	8b c7		 mov	 eax, edi
  0062d	25 03 00 00 80	 and	 eax, -2147483645	; 80000003H
  00632	79 05		 jns	 SHORT $LN817@SetShichik@2
  00634	48		 dec	 eax
  00635	83 c8 fc	 or	 eax, -4			; fffffffcH
  00638	40		 inc	 eax
$LN817@SetShichik@2:
  00639	b1 ed		 mov	 cl, -19			; ffffffedH
  0063b	2a c8		 sub	 cl, al
  0063d	30 4c 3d e4	 xor	 BYTE PTR _szEncEventType$681138[ebp+edi], cl
  00641	47		 inc	 edi
  00642	83 ff 06	 cmp	 edi, 6
  00645	7c e4		 jl	 SHORT $LL311@SetShichik@2
  00647	8d 45 e4	 lea	 eax, DWORD PTR _szEncEventType$681138[ebp]
  0064a	50		 push	 eax
  0064b	8d 8d f8 fe ff
	ff		 lea	 ecx, DWORD PTR $T681078[ebp]
  00651	ff 15 00 00 00
	00		 call	 DWORD PTR __imp_??0ioHashString@@QAE@PBD@Z
  00657	8b 8d 5c ff ff
	ff		 mov	 ecx, DWORD PTR $T681139[ebp]
  0065d	8d 85 44 ff ff
	ff		 lea	 eax, DWORD PTR _vFireEndList$662739[ebp]
  00663	50		 push	 eax
  00664	8d 85 f8 fe ff
	ff		 lea	 eax, DWORD PTR $T681078[ebp]
  0066a	50		 push	 eax
  0066b	ff b5 58 ff ff
	ff		 push	 DWORD PTR _iAniID$[ebp]
  00671	c6 45 fc 03	 mov	 BYTE PTR __$EHRec$[ebp+8], 3
  00675	ff 15 00 00 00
	00		 call	 DWORD PTR __imp_?GetAnimationEventTimeList@ioEntityGroup@@QAEHHABVioHashString@@AAV?$list@MV?$allocator@M@std@@@std@@@Z
  0067b	8d 8d f8 fe ff
	ff		 lea	 ecx, DWORD PTR $T681078[ebp]
  00681	c6 45 fc 02	 mov	 BYTE PTR __$EHRec$[ebp+8], 2
  00685	ff 15 00 00 00
	00		 call	 DWORD PTR __imp_??1ioHashString@@QAE@XZ

; 887  : 
; 888  : 		const WeaponInfoList &vInfoList = rkCurAttribute.m_vWeaponInfoList;
; 889  : 		if( vFireStartList.size() != vInfoList.size() )

  0068b	8b 46 2c	 mov	 eax, DWORD PTR [esi+44]
  0068e	2b 46 28	 sub	 eax, DWORD PTR [esi+40]
  00691	6a 28		 push	 40			; 00000028H
  00693	99		 cdq
  00694	59		 pop	 ecx
  00695	f7 f9		 idiv	 ecx
  00697	8b 8d 2c ff ff
	ff		 mov	 ecx, DWORD PTR _vFireStartList$662734[ebp+4]
  0069d	2b 8d 28 ff ff
	ff		 sub	 ecx, DWORD PTR _vFireStartList$662734[ebp]
  006a3	c1 f9 02	 sar	 ecx, 2
  006a6	3b c8		 cmp	 ecx, eax

; 890  : 			return;

  006a8	0f 85 29 05 00
	00		 jne	 $LN821@SetShichik@2

; 891  : 
; 892  : 		m_dwBaseWeaponIndex = pOwner->IncreaseWeaponIndexBase();

  006ae	8b 8d 50 ff ff
	ff		 mov	 ecx, DWORD PTR _pOwner$[ebp]
  006b4	e8 00 00 00 00	 call	 ?IncreaseWeaponIndexBase@ioBaseChar@@QAEKXZ ; ioBaseChar::IncreaseWeaponIndexBase

; 893  : 		DWORD dwStartTime = dwCurTime + rkCurAttribute.m_dwPreDelay;
; 894  : 
; 895  : 		int i=0;
; 896  : 		AniEventConstPtrList::iterator iter;
; 897  : 
; 898  : 		std::list< float >::iterator iterEndTime = vFireEndList.begin();

  006b9	8b 8d 44 ff ff
	ff		 mov	 ecx, DWORD PTR _vFireEndList$662739[ebp]

; 899  : 		for( iter=vFireStartList.begin() ; iter!=vFireStartList.end() ; ++iter, i++ )

  006bf	8b bd 28 ff ff
	ff		 mov	 edi, DWORD PTR _vFireStartList$662734[ebp]
  006c5	83 a5 3c ff ff
	ff 00		 and	 DWORD PTR _i$662743[ebp], 0
  006cc	89 83 30 06 00
	00		 mov	 DWORD PTR [ebx+1584], eax
  006d2	8b 46 48	 mov	 eax, DWORD PTR [esi+72]
  006d5	03 85 f4 fe ff
	ff		 add	 eax, DWORD PTR _dwCurTime$[ebp]
  006db	8b 09		 mov	 ecx, DWORD PTR [ecx]
  006dd	89 8d 38 ff ff
	ff		 mov	 DWORD PTR _iterEndTime$662749[ebp], ecx
  006e3	89 bd 40 ff ff
	ff		 mov	 DWORD PTR _iter$662744[ebp], edi
  006e9	3b bd 2c ff ff
	ff		 cmp	 edi, DWORD PTR _vFireStartList$662734[ebp+4]
  006ef	0f 84 6d 02 00
	00		 je	 $LN10@SetShichik@2
  006f5	89 45 ec	 mov	 DWORD PTR tv5252[ebp], eax
  006f8	db 45 ec	 fild	 DWORD PTR tv5252[ebp]
  006fb	85 c0		 test	 eax, eax
  006fd	79 06		 jns	 SHORT $LN818@SetShichik@2
  006ff	d8 05 00 00 00
	00		 fadd	 DWORD PTR __real@4f800000
$LN818@SetShichik@2:

; 891  : 
; 892  : 		m_dwBaseWeaponIndex = pOwner->IncreaseWeaponIndexBase();

  00705	83 a5 50 ff ff
	ff 00		 and	 DWORD PTR tv5508[ebp], 0

; 899  : 		for( iter=vFireStartList.begin() ; iter!=vFireStartList.end() ; ++iter, i++ )

  0070c	d9 5d ec	 fstp	 DWORD PTR tv4684[ebp]
$LL12@SetShichik@2:

; 900  : 		{
; 901  : 			float fFireStart = (*iter)->fEventTime;

  0070f	8b 07		 mov	 eax, DWORD PTR [edi]
  00711	d9 00		 fld	 DWORD PTR [eax]

; 902  : 
; 903  : 			FireTime kFireTime;

  00713	8d 8d 9c fe ff
	ff		 lea	 ecx, DWORD PTR _kFireTime$662757[ebp]
  00719	d9 9d 5c ff ff
	ff		 fstp	 DWORD PTR _fFireStart$662756[ebp]
  0071f	e8 00 00 00 00	 call	 ??0FireTime@@QAE@XZ	; FireTime::FireTime

; 904  : 			kFireTime.dwStart = dwStartTime + fFireStart * fAniRate;

  00724	d9 85 5c ff ff
	ff		 fld	 DWORD PTR _fFireStart$662756[ebp]
  0072a	d8 8d 54 ff ff
	ff		 fmul	 DWORD PTR _fAniRate$662728[ebp]
  00730	c6 45 fc 04	 mov	 BYTE PTR __$EHRec$[ebp+8], 4
  00734	d8 45 ec	 fadd	 DWORD PTR tv4684[ebp]
  00737	e8 00 00 00 00	 call	 __ftol2
  0073c	89 85 9c fe ff
	ff		 mov	 DWORD PTR _kFireTime$662757[ebp], eax

; 905  : 
; 906  : 			if( iterEndTime != vFireEndList.end() )

  00742	8b 85 38 ff ff
	ff		 mov	 eax, DWORD PTR _iterEndTime$662749[ebp]
  00748	3b 85 44 ff ff
	ff		 cmp	 eax, DWORD PTR _vFireEndList$662739[ebp]
  0074e	74 28		 je	 SHORT $LN401@SetShichik@2

; 907  : 			{
; 908  : 				kFireTime.dwDuration = ( *iterEndTime - fFireStart ) * fAniRate;

  00750	d9 40 08	 fld	 DWORD PTR [eax+8]
  00753	d8 a5 5c ff ff
	ff		 fsub	 DWORD PTR _fFireStart$662756[ebp]
  00759	d8 8d 54 ff ff
	ff		 fmul	 DWORD PTR _fAniRate$662728[ebp]
  0075f	e8 00 00 00 00	 call	 __ftol2
  00764	89 85 a0 fe ff
	ff		 mov	 DWORD PTR _kFireTime$662757[ebp+4], eax

; 909  : 				++iterEndTime;

  0076a	8b 85 38 ff ff
	ff		 mov	 eax, DWORD PTR _iterEndTime$662749[ebp]
  00770	8b 00		 mov	 eax, DWORD PTR [eax]
  00772	89 85 38 ff ff
	ff		 mov	 DWORD PTR _iterEndTime$662749[ebp], eax
$LN401@SetShichik@2:

; 910  : 			}
; 911  : 
; 912  : 			kFireTime.iAttributeIdx  = vInfoList[i].m_iWeaponIdx;

  00778	8b 46 28	 mov	 eax, DWORD PTR [esi+40]
  0077b	03 85 50 ff ff
	ff		 add	 eax, DWORD PTR tv5508[ebp]
  00781	8b 08		 mov	 ecx, DWORD PTR [eax]
  00783	89 8d a4 fe ff
	ff		 mov	 DWORD PTR _kFireTime$662757[ebp+8], ecx

; 913  : 			kFireTime.iResistanceIdx = vInfoList[i].m_iResistanceIdx;

  00789	8b 48 04	 mov	 ecx, DWORD PTR [eax+4]

; 914  : 			kFireTime.szWoundedAni   = vInfoList[i].m_WoundedAnimation;

  0078c	83 c0 08	 add	 eax, 8
  0078f	89 8d a8 fe ff
	ff		 mov	 DWORD PTR _kFireTime$662757[ebp+12], ecx
  00795	50		 push	 eax
  00796	8d 8d b0 fe ff
	ff		 lea	 ecx, DWORD PTR _kFireTime$662757[ebp+20]
  0079c	ff 15 00 00 00
	00		 call	 DWORD PTR __imp_??4ioHashString@@QAEAAV0@ABV0@@Z

; 915  : 			kFireTime.dwWoundedAniDuration  = vInfoList[i].m_dwWoundedDuration;

  007a2	8b 46 28	 mov	 eax, DWORD PTR [esi+40]
  007a5	03 85 50 ff ff
	ff		 add	 eax, DWORD PTR tv5508[ebp]
  007ab	8b 48 18	 mov	 ecx, DWORD PTR [eax+24]
  007ae	89 8d c0 fe ff
	ff		 mov	 DWORD PTR _kFireTime$662757[ebp+36], ecx

; 916  : 			kFireTime.bLoopWoundedAni = vInfoList[i].m_bWoundedLoopAni;

  007b4	8a 40 20	 mov	 al, BYTE PTR [eax+32]
  007b7	88 85 ac fe ff
	ff		 mov	 BYTE PTR _kFireTime$662757[ebp+16], al

; 917  : 
; 918  : 			kFireTime.dwWeaponIdx = m_dwBaseWeaponIndex + i;

  007bd	8b 83 30 06 00
	00		 mov	 eax, DWORD PTR [ebx+1584]
  007c3	03 85 3c ff ff
	ff		 add	 eax, DWORD PTR _i$662743[ebp]

; 919  : 
; 920  : 			m_vMamaHahaWeaponList.push_back( kFireTime.dwWeaponIdx );

  007c9	8d 8b 00 16 00
	00		 lea	 ecx, DWORD PTR [ebx+5632]
  007cf	89 85 c4 fe ff
	ff		 mov	 DWORD PTR _kFireTime$662757[ebp+40], eax
  007d5	89 85 5c ff ff
	ff		 mov	 DWORD PTR $T680707[ebp], eax
  007db	8d 85 5c ff ff
	ff		 lea	 eax, DWORD PTR $T680707[ebp]
  007e1	50		 push	 eax
  007e2	e8 00 00 00 00	 call	 ?push_back@?$vector@HV?$allocator@H@std@@@std@@QAEXABH@Z ; std::vector<int,std::allocator<int> >::push_back

; 921  : 
; 922  : 			if( !(*iter)->szSubInfo.IsEmpty() )

  007e7	8b 0f		 mov	 ecx, DWORD PTR [edi]
  007e9	83 c1 14	 add	 ecx, 20			; 00000014H
  007ec	ff 15 00 00 00
	00		 call	 DWORD PTR __imp_?IsEmpty@ioHashString@@QBE_NXZ
  007f2	84 c0		 test	 al, al
  007f4	0f 85 0c 01 00
	00		 jne	 $LN7@SetShichik@2

; 923  : 			{
; 924  : 				const StringVector &vParam = ioStringConverter::Split( (*iter)->szSubInfo.c_str(), " " );

  007fa	83 65 8c 00	 and	 DWORD PTR $T662763[ebp+16], 0
  007fe	6a 01		 push	 1
  00800	68 00 00 00 00	 push	 OFFSET ??_C@_01CLKCMJKC@?5?$AA@
  00805	8d 8d 7c ff ff
	ff		 lea	 ecx, DWORD PTR $T662763[ebp]
  0080b	c7 45 90 0f 00
	00 00		 mov	 DWORD PTR $T662763[ebp+20], 15 ; 0000000fH
  00812	88 85 7c ff ff
	ff		 mov	 BYTE PTR $T662763[ebp], al
  00818	e8 00 00 00 00	 call	 ?assign@?$basic_string@DU?$char_traits@D@std@@V?$allocator@D@2@@std@@QAEAAV12@PBDI@Z ; std::basic_string<char,std::char_traits<char>,std::allocator<char> >::assign
  0081d	8b 0f		 mov	 ecx, DWORD PTR [edi]
  0081f	83 c1 14	 add	 ecx, 20			; 00000014H
  00822	c6 45 fc 05	 mov	 BYTE PTR __$EHRec$[ebp+8], 5
  00826	ff 15 00 00 00
	00		 call	 DWORD PTR __imp_?c_str@ioHashString@@QBEPBDXZ
  0082c	83 65 c0 00	 and	 DWORD PTR $T662764[ebp+16], 0
  00830	50		 push	 eax
  00831	8d 4d b0	 lea	 ecx, DWORD PTR $T662764[ebp]
  00834	c7 45 c4 0f 00
	00 00		 mov	 DWORD PTR $T662764[ebp+20], 15 ; 0000000fH
  0083b	c6 45 b0 00	 mov	 BYTE PTR $T662764[ebp], 0
  0083f	e8 00 00 00 00	 call	 ?assign@?$basic_string@DU?$char_traits@D@std@@V?$allocator@D@2@@std@@QAEAAV12@PBD@Z ; std::basic_string<char,std::char_traits<char>,std::allocator<char> >::assign
  00844	6a 00		 push	 0
  00846	8d 85 7c ff ff
	ff		 lea	 eax, DWORD PTR $T662763[ebp]
  0084c	50		 push	 eax
  0084d	8d 45 b0	 lea	 eax, DWORD PTR $T662764[ebp]
  00850	50		 push	 eax
  00851	c6 45 fc 06	 mov	 BYTE PTR __$EHRec$[ebp+8], 6
  00855	ff 15 00 00 00
	00		 call	 DWORD PTR __imp_?Split@ioStringConverter@@SAABV?$vector@V?$basic_string@DU?$char_traits@D@std@@V?$allocator@D@2@@std@@V?$allocator@V?$basic_string@DU?$char_traits@D@std@@V?$allocator@D@2@@std@@@2@@std@@ABV?$basic_string@DU?$char_traits@D@std@@V?$allocator@D@2@@3@0H@Z
  0085b	83 c4 0c	 add	 esp, 12			; 0000000cH
  0085e	6a 00		 push	 0
  00860	6a 01		 push	 1
  00862	8d 4d b0	 lea	 ecx, DWORD PTR $T662764[ebp]
  00865	8b f8		 mov	 edi, eax
  00867	e8 00 00 00 00	 call	 ?_Tidy@?$basic_string@DU?$char_traits@D@std@@V?$allocator@D@2@@std@@QAEX_NI@Z ; std::basic_string<char,std::char_traits<char>,std::allocator<char> >::_Tidy
  0086c	6a 00		 push	 0
  0086e	6a 01		 push	 1
  00870	8d 8d 7c ff ff
	ff		 lea	 ecx, DWORD PTR $T662763[ebp]
  00876	c6 45 fc 04	 mov	 BYTE PTR __$EHRec$[ebp+8], 4
  0087a	e8 00 00 00 00	 call	 ?_Tidy@?$basic_string@DU?$char_traits@D@std@@V?$allocator@D@2@@std@@QAEX_NI@Z ; std::basic_string<char,std::char_traits<char>,std::allocator<char> >::_Tidy

; 925  : 				if( vParam.size() >= 1 )

  0087f	8b 47 04	 mov	 eax, DWORD PTR [edi+4]
  00882	2b 07		 sub	 eax, DWORD PTR [edi]
  00884	6a 1c		 push	 28			; 0000001cH
  00886	99		 cdq
  00887	59		 pop	 ecx
  00888	f7 f9		 idiv	 ecx
  0088a	83 f8 01	 cmp	 eax, 1
  0088d	72 71		 jb	 SHORT $LN804@SetShichik@2

; 926  : 				{
; 927  : 					ioHashString szTypeName = vParam[0].c_str();

  0088f	8b 07		 mov	 eax, DWORD PTR [edi]
  00891	83 78 14 10	 cmp	 DWORD PTR [eax+20], 16	; 00000010H
  00895	72 02		 jb	 SHORT $LN495@SetShichik@2
  00897	8b 00		 mov	 eax, DWORD PTR [eax]
$LN495@SetShichik@2:
  00899	50		 push	 eax
  0089a	8d 8d f8 fe ff
	ff		 lea	 ecx, DWORD PTR _szTypeName$662766[ebp]
  008a0	ff 15 00 00 00
	00		 call	 DWORD PTR __imp_??0ioHashString@@QAE@PBD@Z

; 928  : 					kFireTime.eCollisionType = GetAniCollisionType( szTypeName );

  008a6	8d 85 f8 fe ff
	ff		 lea	 eax, DWORD PTR _szTypeName$662766[ebp]
  008ac	50		 push	 eax
  008ad	c6 45 fc 07	 mov	 BYTE PTR __$EHRec$[ebp+8], 7
  008b1	e8 00 00 00 00	 call	 ?GetAniCollisionType@@YA?AW4AniCollisionType@@ABVioHashString@@@Z ; GetAniCollisionType
  008b6	89 85 c8 fe ff
	ff		 mov	 DWORD PTR _kFireTime$662757[ebp+44], eax

; 929  : 
; 930  : 					if( vParam.size() == 2 && kFireTime.eCollisionType == ACT_SPECIAL )

  008bc	8b 47 04	 mov	 eax, DWORD PTR [edi+4]
  008bf	59		 pop	 ecx
  008c0	8b 0f		 mov	 ecx, DWORD PTR [edi]
  008c2	2b c1		 sub	 eax, ecx
  008c4	6a 1c		 push	 28			; 0000001cH
  008c6	99		 cdq
  008c7	5f		 pop	 edi
  008c8	f7 ff		 idiv	 edi
  008ca	83 f8 02	 cmp	 eax, 2
  008cd	75 21		 jne	 SHORT $LN6@SetShichik@2
  008cf	83 bd c8 fe ff
	ff 07		 cmp	 DWORD PTR _kFireTime$662757[ebp+44], 7
  008d6	75 18		 jne	 SHORT $LN6@SetShichik@2

; 931  : 					{
; 932  : 						kFireTime.szSpecialCollisionBox = vParam[1].c_str();

  008d8	8d 41 1c	 lea	 eax, DWORD PTR [ecx+28]
  008db	83 78 14 10	 cmp	 DWORD PTR [eax+20], 16	; 00000010H
  008df	72 02		 jb	 SHORT $LN505@SetShichik@2
  008e1	8b 00		 mov	 eax, DWORD PTR [eax]
$LN505@SetShichik@2:
  008e3	50		 push	 eax
  008e4	8d 8d cc fe ff
	ff		 lea	 ecx, DWORD PTR _kFireTime$662757[ebp+48]
  008ea	ff 15 00 00 00
	00		 call	 DWORD PTR __imp_??4ioHashString@@QAEAAV0@PBD@Z
$LN6@SetShichik@2:

; 933  : 					}
; 934  : 				}

  008f0	8d 8d f8 fe ff
	ff		 lea	 ecx, DWORD PTR _szTypeName$662766[ebp]
  008f6	c6 45 fc 04	 mov	 BYTE PTR __$EHRec$[ebp+8], 4
  008fa	ff 15 00 00 00
	00		 call	 DWORD PTR __imp_??1ioHashString@@QAE@XZ
$LN804@SetShichik@2:
  00900	8b bd 40 ff ff
	ff		 mov	 edi, DWORD PTR _iter$662744[ebp]
$LN7@SetShichik@2:

; 935  : 			}
; 936  : 
; 937  : 			kFireTime.eFireTimeType = FTT_DUMMY_CHAR_ATTACK;
; 938  : 			kFireTime.m_iExtraValue = m_iCreateIndex;

  00906	8b 83 dc 01 00
	00		 mov	 eax, DWORD PTR [ebx+476]

; 939  : 
; 940  : 			m_vAttackFireTimeList.push_back( kFireTime );

  0090c	8d 8b 78 05 00
	00		 lea	 ecx, DWORD PTR [ebx+1400]
  00912	8d 95 9c fe ff
	ff		 lea	 edx, DWORD PTR _kFireTime$662757[ebp]
  00918	89 85 f0 fe ff
	ff		 mov	 DWORD PTR _kFireTime$662757[ebp+84], eax
  0091e	8b 01		 mov	 eax, DWORD PTR [ecx]
  00920	52		 push	 edx
  00921	50		 push	 eax
  00922	c7 85 dc fe ff
	ff 0b 00 00 00	 mov	 DWORD PTR _kFireTime$662757[ebp+64], 11 ; 0000000bH
  0092c	e8 00 00 00 00	 call	 ?_Insert@?$list@UFireTime@@V?$allocator@UFireTime@@@std@@@std@@QAEXV?$_List_const_iterator@V?$_List_val@UFireTime@@V?$allocator@UFireTime@@@std@@@std@@@2@ABUFireTime@@@Z ; std::list<FireTime,std::allocator<FireTime> >::_Insert

; 941  : 		}

  00931	8d 8d 9c fe ff
	ff		 lea	 ecx, DWORD PTR _kFireTime$662757[ebp]
  00937	c6 45 fc 02	 mov	 BYTE PTR __$EHRec$[ebp+8], 2
  0093b	e8 00 00 00 00	 call	 ??1FireTime@@QAE@XZ
  00940	83 85 50 ff ff
	ff 28		 add	 DWORD PTR tv5508[ebp], 40 ; 00000028H
  00947	83 c7 04	 add	 edi, 4
  0094a	ff 85 3c ff ff
	ff		 inc	 DWORD PTR _i$662743[ebp]
  00950	89 bd 40 ff ff
	ff		 mov	 DWORD PTR _iter$662744[ebp], edi
  00956	3b bd 2c ff ff
	ff		 cmp	 edi, DWORD PTR _vFireStartList$662734[ebp+4]
  0095c	0f 85 ad fd ff
	ff		 jne	 $LL12@SetShichik@2
$LN10@SetShichik@2:

; 942  : 
; 943  : 		SetReservedSliding( rkCurAttribute.m_vForceInfoList, iAniID, fAniRate, rkCurAttribute.m_dwPreDelay );

  00962	f3 0f 10 85 54
	ff ff ff	 movss	 xmm0, DWORD PTR _fAniRate$662728[ebp]
  0096a	6a 01		 push	 1
  0096c	ff 76 48	 push	 DWORD PTR [esi+72]
  0096f	83 c6 38	 add	 esi, 56			; 00000038H
  00972	51		 push	 ecx
  00973	f3 0f 11 04 24	 movss	 DWORD PTR [esp], xmm0
  00978	ff b5 58 ff ff
	ff		 push	 DWORD PTR _iAniID$[ebp]
  0097e	8b cb		 mov	 ecx, ebx
  00980	56		 push	 esi
  00981	e8 00 00 00 00	 call	 ?SetReservedSliding@ioDummyChar@@QAEXABV?$vector@UForceInfo@@V?$allocator@UForceInfo@@@std@@@std@@HMK_N@Z ; ioDummyChar::SetReservedSliding

; 944  : 		//  
; 945  : 
; 946  : 		m_dwExtraAniJumpTime = 0;
; 947  : 		m_fExtraAniJumpPower = 0.0f;

  00986	0f 57 c0	 xorps	 xmm0, xmm0
  00989	33 ff		 xor	 edi, edi
  0098b	89 bb 2c 0b 00
	00		 mov	 DWORD PTR [ebx+2860], edi
  00991	f3 0f 11 83 30
	0b 00 00	 movss	 DWORD PTR [ebx+2864], xmm0

; 948  : 		m_vExtraAniJumpList.clear();

  00999	8b 83 3c 0b 00
	00		 mov	 eax, DWORD PTR [ebx+2876]
  0099f	8b 8b 38 0b 00
	00		 mov	 ecx, DWORD PTR [ebx+2872]
  009a5	50		 push	 eax
  009a6	51		 push	 ecx
  009a7	8d 45 ec	 lea	 eax, DWORD PTR $T681782[ebp]
  009aa	50		 push	 eax
  009ab	8d 8b 38 0b 00
	00		 lea	 ecx, DWORD PTR [ebx+2872]
  009b1	e8 00 00 00 00	 call	 ?erase@?$vector@UExtraAniJump@@V?$allocator@UExtraAniJump@@@std@@@std@@QAE?AV?$_Vector_iterator@V?$_Vector_val@UExtraAniJump@@V?$allocator@UExtraAniJump@@@std@@@std@@@2@V?$_Vector_const_iterator@V?$_Vector_val@UExtraAniJump@@V?$allocator@UExtraAniJump@@@std@@@std@@@2@0@Z ; std::vector<ExtraAniJump,std::allocator<ExtraAniJump> >::erase

; 949  : 
; 950  : 		AniEventConstPtrList vExtraAniJumpList;

  009b6	89 bd 18 ff ff
	ff		 mov	 DWORD PTR _vExtraAniJumpList$662768[ebp], edi
  009bc	89 bd 1c ff ff
	ff		 mov	 DWORD PTR _vExtraAniJumpList$662768[ebp+4], edi
  009c2	89 bd 20 ff ff
	ff		 mov	 DWORD PTR _vExtraAniJumpList$662768[ebp+8], edi

; 951  : 		m_pGroup->GetAnimationEventConstPtrList_e( iAniID, "extra_ani_jump", vExtraAniJumpList );

  009c8	8b 43 04	 mov	 eax, DWORD PTR [ebx+4]
  009cb	6a 03		 push	 3
  009cd	89 45 ec	 mov	 DWORD PTR $T681955[ebp], eax
  009d0	c6 45 fc 08	 mov	 BYTE PTR __$EHRec$[ebp+8], 8
  009d4	c7 45 b8 88 94
	9f 98		 mov	 DWORD PTR _szEncEventType$681843[ebp], -1734372216 ; 989f9488H
  009db	c7 45 bc 8c b3
	8a 84		 mov	 DWORD PTR _szEncEventType$681843[ebp+4], -2071284852 ; 848ab38cH
  009e2	c7 45 c0 84 b3
	81 9f		 mov	 DWORD PTR _szEncEventType$681843[ebp+8], -1618889852 ; 9f81b384H
  009e9	66 c7 45 c4 80
	9c		 mov	 WORD PTR _szEncEventType$681843[ebp+12], 40064 ; 00009c80H
  009ef	8d 45 b8	 lea	 eax, DWORD PTR _szEncEventType$681843[ebp]
  009f2	c6 45 c6 00	 mov	 BYTE PTR _szEncEventType$681843[ebp+14], 0
  009f6	59		 pop	 ecx
$LL649@SetShichik@2:
  009f7	81 30 ed ec eb
	ea		 xor	 DWORD PTR [eax], -353637139 ; eaebecedH
  009fd	83 c0 04	 add	 eax, 4
  00a00	49		 dec	 ecx
  00a01	75 f4		 jne	 SHORT $LL649@SetShichik@2
  00a03	6a 0c		 push	 12			; 0000000cH
  00a05	58		 pop	 eax
$LL646@SetShichik@2:
  00a06	8b c8		 mov	 ecx, eax
  00a08	81 e1 03 00 00
	80		 and	 ecx, -2147483645	; 80000003H
  00a0e	79 05		 jns	 SHORT $LN819@SetShichik@2
  00a10	49		 dec	 ecx
  00a11	83 c9 fc	 or	 ecx, -4			; fffffffcH
  00a14	41		 inc	 ecx
$LN819@SetShichik@2:
  00a15	b2 ed		 mov	 dl, -19			; ffffffedH
  00a17	2a d1		 sub	 dl, cl
  00a19	30 54 05 b8	 xor	 BYTE PTR _szEncEventType$681843[ebp+eax], dl
  00a1d	40		 inc	 eax
  00a1e	83 f8 0e	 cmp	 eax, 14			; 0000000eH
  00a21	7c e3		 jl	 SHORT $LL646@SetShichik@2
  00a23	8d 45 b8	 lea	 eax, DWORD PTR _szEncEventType$681843[ebp]
  00a26	50		 push	 eax
  00a27	8d 8d f8 fe ff
	ff		 lea	 ecx, DWORD PTR $T681943[ebp]
  00a2d	ff 15 00 00 00
	00		 call	 DWORD PTR __imp_??0ioHashString@@QAE@PBD@Z
  00a33	8b 4d ec	 mov	 ecx, DWORD PTR $T681955[ebp]
  00a36	8d 85 18 ff ff
	ff		 lea	 eax, DWORD PTR _vExtraAniJumpList$662768[ebp]
  00a3c	50		 push	 eax
  00a3d	8d 85 f8 fe ff
	ff		 lea	 eax, DWORD PTR $T681943[ebp]
  00a43	50		 push	 eax
  00a44	ff b5 58 ff ff
	ff		 push	 DWORD PTR _iAniID$[ebp]
  00a4a	c6 45 fc 09	 mov	 BYTE PTR __$EHRec$[ebp+8], 9
  00a4e	ff 15 00 00 00
	00		 call	 DWORD PTR __imp_?GetAnimationEventConstPtrList@ioEntityGroup@@QAEHHABVioHashString@@AAV?$vector@PBUAniEventTime@@V?$allocator@PBUAniEventTime@@@std@@@std@@@Z
  00a54	8d 8d f8 fe ff
	ff		 lea	 ecx, DWORD PTR $T681943[ebp]
  00a5a	c6 45 fc 08	 mov	 BYTE PTR __$EHRec$[ebp+8], 8
  00a5e	ff 15 00 00 00
	00		 call	 DWORD PTR __imp_??1ioHashString@@QAE@XZ

; 952  : 
; 953  : 		AniEventConstPtrList::iterator iter_event = vExtraAniJumpList.begin();

  00a64	8b 85 18 ff ff
	ff		 mov	 eax, DWORD PTR _vExtraAniJumpList$662768[ebp]
  00a6a	89 85 58 ff ff
	ff		 mov	 DWORD PTR _iter_event$662769[ebp], eax
  00a70	e9 1c 01 00 00	 jmp	 $LN822@SetShichik@2
$LN5@SetShichik@2:

; 955  : 		{
; 956  : 			ExtraAniJump kInfo;
; 957  : 
; 958  : 			kInfo.m_dwTime = (*iter_event)->fEventTime * fAniRate;

  00a75	8b 85 58 ff ff
	ff		 mov	 eax, DWORD PTR _iter_event$662769[ebp]

; 959  : 			kInfo.m_dwTime += dwCurTime;

  00a7b	d9 85 54 ff ff
	ff		 fld	 DWORD PTR _fAniRate$662728[ebp]
  00a81	8b 00		 mov	 eax, DWORD PTR [eax]
  00a83	d8 08		 fmul	 DWORD PTR [eax]
  00a85	0f 57 c0	 xorps	 xmm0, xmm0
  00a88	f3 0f 11 45 ec	 movss	 DWORD PTR _kInfo$662775[ebp+4], xmm0
  00a8d	e8 00 00 00 00	 call	 __ftol2
  00a92	03 85 f4 fe ff
	ff		 add	 eax, DWORD PTR _dwCurTime$[ebp]
  00a98	89 45 e8	 mov	 DWORD PTR _kInfo$662775[ebp], eax

; 960  : 
; 961  : 			if( !(*iter_event)->szSubInfo.IsEmpty() )

  00a9b	8b 85 58 ff ff
	ff		 mov	 eax, DWORD PTR _iter_event$662769[ebp]
  00aa1	8b 08		 mov	 ecx, DWORD PTR [eax]
  00aa3	8d 49 14	 lea	 ecx, DWORD PTR [ecx+20]
  00aa6	ff 15 00 00 00
	00		 call	 DWORD PTR __imp_?IsEmpty@ioHashString@@QBE_NXZ
  00aac	84 c0		 test	 al, al
  00aae	0f 85 c1 00 00
	00		 jne	 $LN2@SetShichik@2

; 962  : 			{
; 963  : 				const StringVector &vParam = ioStringConverter::Split( (*iter_event)->szSubInfo.c_str(), " " );

  00ab4	6a 01		 push	 1
  00ab6	68 00 00 00 00	 push	 OFFSET ??_C@_01CLKCMJKC@?5?$AA@
  00abb	8d 8d 60 ff ff
	ff		 lea	 ecx, DWORD PTR $T662778[ebp]
  00ac1	c7 85 74 ff ff
	ff 0f 00 00 00	 mov	 DWORD PTR $T662778[ebp+20], 15 ; 0000000fH
  00acb	89 bd 70 ff ff
	ff		 mov	 DWORD PTR $T662778[ebp+16], edi
  00ad1	88 85 60 ff ff
	ff		 mov	 BYTE PTR $T662778[ebp], al
  00ad7	e8 00 00 00 00	 call	 ?assign@?$basic_string@DU?$char_traits@D@std@@V?$allocator@D@2@@std@@QAEAAV12@PBDI@Z ; std::basic_string<char,std::char_traits<char>,std::allocator<char> >::assign
  00adc	8b 85 58 ff ff
	ff		 mov	 eax, DWORD PTR _iter_event$662769[ebp]
  00ae2	8b 08		 mov	 ecx, DWORD PTR [eax]
  00ae4	83 c1 14	 add	 ecx, 20			; 00000014H
  00ae7	c6 45 fc 0a	 mov	 BYTE PTR __$EHRec$[ebp+8], 10 ; 0000000aH
  00aeb	ff 15 00 00 00
	00		 call	 DWORD PTR __imp_?c_str@ioHashString@@QBEPBDXZ
  00af1	50		 push	 eax
  00af2	8d 8d 7c ff ff
	ff		 lea	 ecx, DWORD PTR $T662779[ebp]
  00af8	c7 45 90 0f 00
	00 00		 mov	 DWORD PTR $T662779[ebp+20], 15 ; 0000000fH
  00aff	89 7d 8c	 mov	 DWORD PTR $T662779[ebp+16], edi
  00b02	c6 85 7c ff ff
	ff 00		 mov	 BYTE PTR $T662779[ebp], 0
  00b09	e8 00 00 00 00	 call	 ?assign@?$basic_string@DU?$char_traits@D@std@@V?$allocator@D@2@@std@@QAEAAV12@PBD@Z ; std::basic_string<char,std::char_traits<char>,std::allocator<char> >::assign
  00b0e	57		 push	 edi
  00b0f	8d 85 60 ff ff
	ff		 lea	 eax, DWORD PTR $T662778[ebp]
  00b15	50		 push	 eax
  00b16	8d 85 7c ff ff
	ff		 lea	 eax, DWORD PTR $T662779[ebp]
  00b1c	50		 push	 eax
  00b1d	c6 45 fc 0b	 mov	 BYTE PTR __$EHRec$[ebp+8], 11 ; 0000000bH
  00b21	ff 15 00 00 00
	00		 call	 DWORD PTR __imp_?Split@ioStringConverter@@SAABV?$vector@V?$basic_string@DU?$char_traits@D@std@@V?$allocator@D@2@@std@@V?$allocator@V?$basic_string@DU?$char_traits@D@std@@V?$allocator@D@2@@std@@@2@@std@@ABV?$basic_string@DU?$char_traits@D@std@@V?$allocator@D@2@@3@0H@Z
  00b27	83 c4 0c	 add	 esp, 12			; 0000000cH
  00b2a	6a 00		 push	 0
  00b2c	6a 01		 push	 1
  00b2e	8d 8d 7c ff ff
	ff		 lea	 ecx, DWORD PTR $T662779[ebp]
  00b34	8b f8		 mov	 edi, eax
  00b36	e8 00 00 00 00	 call	 ?_Tidy@?$basic_string@DU?$char_traits@D@std@@V?$allocator@D@2@@std@@QAEX_NI@Z ; std::basic_string<char,std::char_traits<char>,std::allocator<char> >::_Tidy
  00b3b	6a 00		 push	 0
  00b3d	6a 01		 push	 1
  00b3f	8d 8d 60 ff ff
	ff		 lea	 ecx, DWORD PTR $T662778[ebp]
  00b45	c6 45 fc 08	 mov	 BYTE PTR __$EHRec$[ebp+8], 8
  00b49	e8 00 00 00 00	 call	 ?_Tidy@?$basic_string@DU?$char_traits@D@std@@V?$allocator@D@2@@std@@QAEX_NI@Z ; std::basic_string<char,std::char_traits<char>,std::allocator<char> >::_Tidy

; 964  : 				if( vParam.size() == 1 )

  00b4e	8b 0f		 mov	 ecx, DWORD PTR [edi]
  00b50	8b 47 04	 mov	 eax, DWORD PTR [edi+4]
  00b53	2b c1		 sub	 eax, ecx
  00b55	6a 1c		 push	 28			; 0000001cH
  00b57	99		 cdq
  00b58	5f		 pop	 edi
  00b59	f7 ff		 idiv	 edi
  00b5b	83 f8 01	 cmp	 eax, 1
  00b5e	75 13		 jne	 SHORT $LN805@SetShichik@2

; 965  : 				{
; 966  : 					kInfo.m_fPower = ioStringConverter::ParseFloat( vParam[0].c_str() );

  00b60	83 79 14 10	 cmp	 DWORD PTR [ecx+20], 16	; 00000010H
  00b64	72 02		 jb	 SHORT $LN760@SetShichik@2
  00b66	8b 09		 mov	 ecx, DWORD PTR [ecx]
$LN760@SetShichik@2:
  00b68	51		 push	 ecx
  00b69	ff 15 00 00 00
	00		 call	 DWORD PTR __imp_?ParseFloat@ioStringConverter@@SAMPBD@Z
  00b6f	d9 5d ec	 fstp	 DWORD PTR _kInfo$662775[ebp+4]
  00b72	59		 pop	 ecx
$LN805@SetShichik@2:
  00b73	33 ff		 xor	 edi, edi
$LN2@SetShichik@2:

; 967  : 				}
; 968  : 			}
; 969  : 
; 970  : 			m_vExtraAniJumpList.push_back(kInfo);

  00b75	8d 45 e8	 lea	 eax, DWORD PTR _kInfo$662775[ebp]
  00b78	50		 push	 eax
  00b79	8d 8b 38 0b 00
	00		 lea	 ecx, DWORD PTR [ebx+2872]
  00b7f	e8 00 00 00 00	 call	 ?push_back@?$vector@UExtraAniJump@@V?$allocator@UExtraAniJump@@@std@@@std@@QAEXABUExtraAniJump@@@Z ; std::vector<ExtraAniJump,std::allocator<ExtraAniJump> >::push_back

; 971  : 
; 972  : 			++iter_event;

  00b84	83 85 58 ff ff
	ff 04		 add	 DWORD PTR _iter_event$662769[ebp], 4
  00b8b	8b 85 58 ff ff
	ff		 mov	 eax, DWORD PTR _iter_event$662769[ebp]
$LN822@SetShichik@2:

; 954  : 		while( iter_event != vExtraAniJumpList.end() )

  00b91	3b 85 1c ff ff
	ff		 cmp	 eax, DWORD PTR _vExtraAniJumpList$662768[ebp+4]
  00b97	0f 85 d8 fe ff
	ff		 jne	 $LN5@SetShichik@2

; 973  : 		}
; 974  : 
; 975  : 		if( !m_vExtraAniJumpList.empty() )

  00b9d	8b 83 38 0b 00
	00		 mov	 eax, DWORD PTR [ebx+2872]
  00ba3	3b 83 3c 0b 00
	00		 cmp	 eax, DWORD PTR [ebx+2876]
  00ba9	74 1d		 je	 SHORT $LN1@SetShichik@2

; 976  : 		{
; 977  : 			m_iCurExtraAniJump = 0;
; 978  : 			m_dwExtraAniJumpTime = m_vExtraAniJumpList[m_iCurExtraAniJump].m_dwTime;

  00bab	8b b3 38 0b 00
	00		 mov	 esi, DWORD PTR [ebx+2872]
  00bb1	89 bb 34 0b 00
	00		 mov	 DWORD PTR [ebx+2868], edi
  00bb7	8b 06		 mov	 eax, DWORD PTR [esi]
  00bb9	89 83 2c 0b 00
	00		 mov	 DWORD PTR [ebx+2860], eax

; 979  : 			m_fExtraAniJumpPower = m_vExtraAniJumpList[m_iCurExtraAniJump].m_fPower;

  00bbf	d9 46 04	 fld	 DWORD PTR [esi+4]
  00bc2	d9 9b 30 0b 00
	00		 fstp	 DWORD PTR [ebx+2864]
$LN1@SetShichik@2:

; 980  : 		}
; 981  : 	}

  00bc8	8d 8d 18 ff ff
	ff		 lea	 ecx, DWORD PTR _vExtraAniJumpList$662768[ebp]
  00bce	c6 45 fc 02	 mov	 BYTE PTR __$EHRec$[ebp+8], 2
  00bd2	e8 00 00 00 00	 call	 ?_Tidy@?$vector@PBUAniEventTime@@V?$allocator@PBUAniEventTime@@@std@@@std@@IAEXXZ ; std::vector<AniEventTime const *,std::allocator<AniEventTime const *> >::_Tidy
$LN821@SetShichik@2:
  00bd7	8d 8d 44 ff ff
	ff		 lea	 ecx, DWORD PTR _vFireEndList$662739[ebp]
  00bdd	e8 00 00 00 00	 call	 ?clear@?$list@MV?$allocator@M@std@@@std@@QAEXXZ ; std::list<float,std::allocator<float> >::clear
  00be2	ff b5 44 ff ff
	ff		 push	 DWORD PTR _vFireEndList$662739[ebp]
  00be8	e8 00 00 00 00	 call	 ??3@YAXPAX@Z		; operator delete
  00bed	83 4d fc ff	 or	 DWORD PTR __$EHRec$[ebp+8], -1
  00bf1	59		 pop	 ecx
  00bf2	8d 8d 28 ff ff
	ff		 lea	 ecx, DWORD PTR _vFireStartList$662734[ebp]
  00bf8	e8 00 00 00 00	 call	 ?_Tidy@?$vector@PBUAniEventTime@@V?$allocator@PBUAniEventTime@@@std@@@std@@IAEXXZ ; std::vector<AniEventTime const *,std::allocator<AniEventTime const *> >::_Tidy
$LN784@SetShichik@2:

; 982  : }

  00bfd	e8 00 00 00 00	 call	 __EH_epilog3_GS
  00c02	c2 08 00	 ret	 8
_TEXT	ENDS
;	COMDAT text$x
text$x	SEGMENT
__unwindfunclet$?SetShichikapuEtuState@ioMamaHahaDummy@@IAEXABUAttackAttribute@@W4DummySubUseType@@@Z$0:
  00000	8d 8d 28 ff ff
	ff		 lea	 ecx, DWORD PTR _vFireStartList$662734[ebp]
  00006	e9 00 00 00 00	 jmp	 ??1?$vector@PBUAniEventTime@@V?$allocator@PBUAniEventTime@@@std@@@std@@QAE@XZ ; std::vector<AniEventTime const *,std::allocator<AniEventTime const *> >::~vector<AniEventTime const *,std::allocator<AniEventTime const *> >
__unwindfunclet$?SetShichikapuEtuState@ioMamaHahaDummy@@IAEXABUAttackAttribute@@W4DummySubUseType@@@Z$9:
  0000b	8d 8d f8 fe ff
	ff		 lea	 ecx, DWORD PTR $T680941[ebp]
  00011	ff 25 00 00 00
	00		 jmp	 DWORD PTR __imp_??1ioHashString@@QAE@XZ
__unwindfunclet$?SetShichikapuEtuState@ioMamaHahaDummy@@IAEXABUAttackAttribute@@W4DummySubUseType@@@Z$1:
  00017	8d 8d 44 ff ff
	ff		 lea	 ecx, DWORD PTR _vFireEndList$662739[ebp]
  0001d	e9 00 00 00 00	 jmp	 ??1?$list@MV?$allocator@M@std@@@std@@QAE@XZ ; std::list<float,std::allocator<float> >::~list<float,std::allocator<float> >
__unwindfunclet$?SetShichikapuEtuState@ioMamaHahaDummy@@IAEXABUAttackAttribute@@W4DummySubUseType@@@Z$11:
  00022	8d 8d f8 fe ff
	ff		 lea	 ecx, DWORD PTR $T681078[ebp]
  00028	ff 25 00 00 00
	00		 jmp	 DWORD PTR __imp_??1ioHashString@@QAE@XZ
__unwindfunclet$?SetShichikapuEtuState@ioMamaHahaDummy@@IAEXABUAttackAttribute@@W4DummySubUseType@@@Z$2:
  0002e	8d 8d 9c fe ff
	ff		 lea	 ecx, DWORD PTR _kFireTime$662757[ebp]
  00034	e9 00 00 00 00	 jmp	 ??1FireTime@@QAE@XZ
__unwindfunclet$?SetShichikapuEtuState@ioMamaHahaDummy@@IAEXABUAttackAttribute@@W4DummySubUseType@@@Z$3:
  00039	8d 8d 7c ff ff
	ff		 lea	 ecx, DWORD PTR $T662763[ebp]
  0003f	e9 00 00 00 00	 jmp	 ??1?$basic_string@DU?$char_traits@D@std@@V?$allocator@D@2@@std@@QAE@XZ ; std::basic_string<char,std::char_traits<char>,std::allocator<char> >::~basic_string<char,std::char_traits<char>,std::allocator<char> >
__unwindfunclet$?SetShichikapuEtuState@ioMamaHahaDummy@@IAEXABUAttackAttribute@@W4DummySubUseType@@@Z$4:
  00044	8d 4d b0	 lea	 ecx, DWORD PTR $T662764[ebp]
  00047	e9 00 00 00 00	 jmp	 ??1?$basic_string@DU?$char_traits@D@std@@V?$allocator@D@2@@std@@QAE@XZ ; std::basic_string<char,std::char_traits<char>,std::allocator<char> >::~basic_string<char,std::char_traits<char>,std::allocator<char> >
__unwindfunclet$?SetShichikapuEtuState@ioMamaHahaDummy@@IAEXABUAttackAttribute@@W4DummySubUseType@@@Z$5:
  0004c	8d 8d f8 fe ff
	ff		 lea	 ecx, DWORD PTR _szTypeName$662766[ebp]
  00052	ff 25 00 00 00
	00		 jmp	 DWORD PTR __imp_??1ioHashString@@QAE@XZ
__unwindfunclet$?SetShichikapuEtuState@ioMamaHahaDummy@@IAEXABUAttackAttribute@@W4DummySubUseType@@@Z$6:
  00058	8d 8d 18 ff ff
	ff		 lea	 ecx, DWORD PTR _vExtraAniJumpList$662768[ebp]
  0005e	e9 00 00 00 00	 jmp	 ??1?$vector@PBUAniEventTime@@V?$allocator@PBUAniEventTime@@@std@@@std@@QAE@XZ ; std::vector<AniEventTime const *,std::allocator<AniEventTime const *> >::~vector<AniEventTime const *,std::allocator<AniEventTime const *> >
__unwindfunclet$?SetShichikapuEtuState@ioMamaHahaDummy@@IAEXABUAttackAttribute@@W4DummySubUseType@@@Z$12:
  00063	8d 8d f8 fe ff
	ff		 lea	 ecx, DWORD PTR $T681943[ebp]
  00069	ff 25 00 00 00
	00		 jmp	 DWORD PTR __imp_??1ioHashString@@QAE@XZ
__unwindfunclet$?SetShichikapuEtuState@ioMamaHahaDummy@@IAEXABUAttackAttribute@@W4DummySubUseType@@@Z$7:
  0006f	8d 8d 60 ff ff
	ff		 lea	 ecx, DWORD PTR $T662778[ebp]
  00075	e9 00 00 00 00	 jmp	 ??1?$basic_string@DU?$char_traits@D@std@@V?$allocator@D@2@@std@@QAE@XZ ; std::basic_string<char,std::char_traits<char>,std::allocator<char> >::~basic_string<char,std::char_traits<char>,std::allocator<char> >
__unwindfunclet$?SetShichikapuEtuState@ioMamaHahaDummy@@IAEXABUAttackAttribute@@W4DummySubUseType@@@Z$8:
  0007a	8d 8d 7c ff ff
	ff		 lea	 ecx, DWORD PTR $T662779[ebp]
  00080	e9 00 00 00 00	 jmp	 ??1?$basic_string@DU?$char_traits@D@std@@V?$allocator@D@2@@std@@QAE@XZ ; std::basic_string<char,std::char_traits<char>,std::allocator<char> >::~basic_string<char,std::char_traits<char>,std::allocator<char> >
__ehhandler$?SetShichikapuEtuState@ioMamaHahaDummy@@IAEXABUAttackAttribute@@W4DummySubUseType@@@Z:
  00085	8b 54 24 08	 mov	 edx, DWORD PTR [esp+8]
  00089	8d 42 0c	 lea	 eax, DWORD PTR [edx+12]
  0008c	8b 8a 98 fe ff
	ff		 mov	 ecx, DWORD PTR [edx-360]
  00092	33 c8		 xor	 ecx, eax
  00094	e8 00 00 00 00	 call	 @__security_check_cookie@4
  00099	8b 4a fc	 mov	 ecx, DWORD PTR [edx-4]
  0009c	33 c8		 xor	 ecx, eax
  0009e	e8 00 00 00 00	 call	 @__security_check_cookie@4
  000a3	b8 00 00 00 00	 mov	 eax, OFFSET __ehfuncinfo$?SetShichikapuEtuState@ioMamaHahaDummy@@IAEXABUAttackAttribute@@W4DummySubUseType@@@Z
  000a8	e9 00 00 00 00	 jmp	 ___CxxFrameHandler3
text$x	ENDS
?SetShichikapuEtuState@ioMamaHahaDummy@@IAEXABUAttackAttribute@@W4DummySubUseType@@@Z ENDP ; ioMamaHahaDummy::SetShichikapuEtuState
PUBLIC	_rkCurAttribute$GSCopy$
PUBLIC	?SetShichikapuArmState@ioMamaHahaDummy@@IAEXABUAttackAttribute@@W4DummySubUseType@@@Z ; ioMamaHahaDummy::SetShichikapuArmState
;	COMDAT xdata$x
; File c:\program files (x86)\microsoft visual studio 10.0\vc\include\vector
xdata$x	SEGMENT
__ehfuncinfo$?SetShichikapuArmState@ioMamaHahaDummy@@IAEXABUAttackAttribute@@W4DummySubUseType@@@Z DD 019930522H
	DD	0cH
	DD	FLAT:__unwindtable$?SetShichikapuArmState@ioMamaHahaDummy@@IAEXABUAttackAttribute@@W4DummySubUseType@@@Z
	DD	2 DUP(00H)
	DD	2 DUP(00H)
	DD	00H
	DD	01H
__unwindtable$?SetShichikapuArmState@ioMamaHahaDummy@@IAEXABUAttackAttribute@@W4DummySubUseType@@@Z DD 0ffffffffH
	DD	FLAT:__unwindfunclet$?SetShichikapuArmState@ioMamaHahaDummy@@IAEXABUAttackAttribute@@W4DummySubUseType@@@Z$0
	DD	00H
	DD	FLAT:__unwindfunclet$?SetShichikapuArmState@ioMamaHahaDummy@@IAEXABUAttackAttribute@@W4DummySubUseType@@@Z$9
	DD	00H
	DD	FLAT:__unwindfunclet$?SetShichikapuArmState@ioMamaHahaDummy@@IAEXABUAttackAttribute@@W4DummySubUseType@@@Z$1
	DD	02H
	DD	FLAT:__unwindfunclet$?SetShichikapuArmState@ioMamaHahaDummy@@IAEXABUAttackAttribute@@W4DummySubUseType@@@Z$11
	DD	02H
	DD	FLAT:__unwindfunclet$?SetShichikapuArmState@ioMamaHahaDummy@@IAEXABUAttackAttribute@@W4DummySubUseType@@@Z$2
	DD	04H
	DD	FLAT:__unwindfunclet$?SetShichikapuArmState@ioMamaHahaDummy@@IAEXABUAttackAttribute@@W4DummySubUseType@@@Z$3
	DD	05H
	DD	FLAT:__unwindfunclet$?SetShichikapuArmState@ioMamaHahaDummy@@IAEXABUAttackAttribute@@W4DummySubUseType@@@Z$4
	DD	04H
	DD	FLAT:__unwindfunclet$?SetShichikapuArmState@ioMamaHahaDummy@@IAEXABUAttackAttribute@@W4DummySubUseType@@@Z$5
	DD	02H
	DD	FLAT:__unwindfunclet$?SetShichikapuArmState@ioMamaHahaDummy@@IAEXABUAttackAttribute@@W4DummySubUseType@@@Z$6
	DD	08H
	DD	FLAT:__unwindfunclet$?SetShichikapuArmState@ioMamaHahaDummy@@IAEXABUAttackAttribute@@W4DummySubUseType@@@Z$12
	DD	08H
	DD	FLAT:__unwindfunclet$?SetShichikapuArmState@ioMamaHahaDummy@@IAEXABUAttackAttribute@@W4DummySubUseType@@@Z$7
	DD	0aH
	DD	FLAT:__unwindfunclet$?SetShichikapuArmState@ioMamaHahaDummy@@IAEXABUAttackAttribute@@W4DummySubUseType@@@Z$8
; Function compile flags: /Ogsp
; File d:\lost saga for developer\youtube\tutorial\source\src\lsclient\iomamahahadummy.cpp
xdata$x	ENDS
;	COMDAT ?SetShichikapuArmState@ioMamaHahaDummy@@IAEXABUAttackAttribute@@W4DummySubUseType@@@Z
_TEXT	SEGMENT
_kFireTime$662848 = -364				; size = 88
_dwCurTime$ = -276					; size = 4
$T683629 = -272						; size = 16
$T682811 = -272						; size = 16
$T682572 = -272						; size = 16
_szTypeName$662857 = -272				; size = 16
_qtRot$662804 = -272					; size = 16
_qtNewRot$ = -256					; size = 16
_vExtraAniJumpList$662859 = -240			; size = 16
$T682466 = -224						; size = 4
_iterEndTime$662840 = -224				; size = 4
$T682467 = -220						; size = 4
_i$662834 = -220					; size = 4
_vFireStartList$662825 = -216				; size = 16
tv5503 = -200						; size = 4
_rkCurAttribute$GSCopy$ = -200				; size = 4
_vFireEndList$662830 = -196				; size = 12
_fAniRate$662818 = -184					; size = 4
_iter$662835 = -180					; size = 4
_pOwner$ = -180						; size = 4
_kInfo$662866 = -176					; size = 8
tv5409 = -172						; size = 4
tv5277 = -172						; size = 4
$T682825 = -172						; size = 4
$T682682 = -172						; size = 4
$T682468 = -172						; size = 4
_value$682443 = -172					; size = 4
_value$682425 = -172					; size = 4
$T682389 = -172						; size = 4
_fFireStart$662847 = -172				; size = 4
_fAngle$662805 = -172					; size = 4
$T682385 = -172						; size = 4
_iter_event$662860 = -168				; size = 4
_iAniID$ = -168						; size = 4
tv5454 = -164						; size = 4
tv5446 = -164						; size = 4
tv5299 = -164						; size = 4
tv5294 = -164						; size = 4
tv5287 = -164						; size = 4
tv5280 = -164						; size = 4
tv5275 = -164						; size = 4
tv5273 = -164						; size = 4
tv5271 = -164						; size = 4
tv5253 = -164						; size = 4
tv5229 = -164						; size = 4
tv4844 = -164						; size = 4
tv4687 = -164						; size = 4
$T683641 = -164						; size = 4
$T683468 = -164						; size = 4
$T682689 = -164						; size = 4
$T682691 = -164						; size = 4
_vParam$662868 = -164					; size = 4
$T662869 = -160						; size = 28
$T662808 = -132						; size = 12
$T662870 = -120						; size = 28
$T662854 = -120						; size = 28
$T662802 = -92						; size = 12
_vAxis$662807 = -80					; size = 12
_vGap$662795 = -80					; size = 12
$T662855 = -68						; size = 28
_szEncEventType$683529 = -60				; size = 15
_v$682458 = -52						; size = 12
$T662813 = -52						; size = 12
$T662810 = -52						; size = 12
_vNewDir$ = -40						; size = 12
_szEncEventType$682824 = -28				; size = 7
_szEncEventType$682585 = -28				; size = 7
_vCurDir$662800 = -28					; size = 12
__$EHRec$ = -12						; size = 12
_rkCurAttribute$ = 8					; size = 4
_eSubType$ = 12						; size = 4
?SetShichikapuArmState@ioMamaHahaDummy@@IAEXABUAttackAttribute@@W4DummySubUseType@@@Z PROC ; ioMamaHahaDummy::SetShichikapuArmState, COMDAT
; _this$ = ecx

; 985  : {

  00000	68 60 01 00 00	 push	 352			; 00000160H
  00005	b8 00 00 00 00	 mov	 eax, __ehhandler$?SetShichikapuArmState@ioMamaHahaDummy@@IAEXABUAttackAttribute@@W4DummySubUseType@@@Z
  0000a	e8 00 00 00 00	 call	 __EH_prolog3_GS
  0000f	8b 45 08	 mov	 eax, DWORD PTR _rkCurAttribute$[ebp]
  00012	8b d9		 mov	 ebx, ecx

; 986  : 	ioBaseChar *pOwner = GetOwner();

  00014	89 85 38 ff ff
	ff		 mov	 DWORD PTR _rkCurAttribute$GSCopy$[ebp], eax
  0001a	e8 00 00 00 00	 call	 ?GetOwner@ioDummyChar@@QBEPAVioBaseChar@@XZ ; ioDummyChar::GetOwner
  0001f	89 85 4c ff ff
	ff		 mov	 DWORD PTR _pOwner$[ebp], eax

; 987  : 	if( !pOwner ) return;

  00025	85 c0		 test	 eax, eax
  00027	0f 84 72 0c 00
	00		 je	 $LN782@SetShichik@3

; 988  : 
; 989  : 	DWORD dwCurTime = FRAMEGETTIME();

  0002d	ff 15 00 00 00
	00		 call	 DWORD PTR __imp_?GetSingleton@ioFrameTimer@@SAAAV1@XZ
  00033	8b c8		 mov	 ecx, eax
  00035	ff 15 00 00 00
	00		 call	 DWORD PTR __imp_?GetLoopSec@ioFrameTimer@@QBEKXZ

; 990  : 	m_State = DCS_MAMAHAHA_STATE;
; 991  : 
; 992  : 	switch( m_MamaHahaState )

  0003b	83 bb 80 14 00
	00 04		 cmp	 DWORD PTR [ebx+5248], 4
  00042	89 85 ec fe ff
	ff		 mov	 DWORD PTR _dwCurTime$[ebp], eax
  00048	c7 83 30 02 00
	00 10 00 00 00	 mov	 DWORD PTR [ebx+560], 16	; 00000010H
  00052	0f 84 a8 02 00
	00		 je	 $LN17@SetShichik@3

; 1001 : 		}
; 1002 : 		break;
; 1003 : 	default:
; 1004 : 		{
; 1005 : 			m_fShichikapuMoveMaxRange = m_fShichikapuMoveSpeed * m_dwShichikapuMoveDuration / FLOAT1000;

  00058	8d 85 54 ff ff
	ff		 lea	 eax, DWORD PTR _value$682425[ebp]
  0005e	50		 push	 eax
  0005f	8d 8b b0 15 00
	00		 lea	 ecx, DWORD PTR [ebx+5552]
  00065	e8 00 00 00 00	 call	 ?DecryptValueToPool@?$CEncrypt@K@@QAEXPAK@Z ; CEncrypt<unsigned long>::DecryptValueToPool
  0006a	8b 85 54 ff ff
	ff		 mov	 eax, DWORD PTR _value$682425[ebp]
  00070	89 85 54 ff ff
	ff		 mov	 DWORD PTR $T682385[ebp], eax
  00076	b8 e8 03 00 00	 mov	 eax, 1000		; 000003e8H
  0007b	8b f0		 mov	 esi, eax
  0007d	8d 85 54 ff ff
	ff		 lea	 eax, DWORD PTR $T682385[ebp]
  00083	50		 push	 eax
  00084	8d 8b f0 14 00
	00		 lea	 ecx, DWORD PTR [ebx+5360]
  0008a	e8 00 00 00 00	 call	 ??D?$CEncrypt@M@@QAEMABK@Z ; CEncrypt<float>::operator*
  0008f	89 b5 5c ff ff
	ff		 mov	 DWORD PTR tv5454[ebp], esi
  00095	db 85 5c ff ff
	ff		 fild	 DWORD PTR tv5454[ebp]
  0009b	85 f6		 test	 esi, esi
  0009d	79 06		 jns	 SHORT $LN806@SetShichik@3
  0009f	d8 05 00 00 00
	00		 fadd	 DWORD PTR __real@4f800000
$LN806@SetShichik@3:
  000a5	de f9		 fdivp	 ST(1), ST(0)
  000a7	d9 9b f8 15 00
	00		 fstp	 DWORD PTR [ebx+5624]

; 1006 : 
; 1007 : 			D3DXVECTOR3 vCurDir = GetWorldOrientation() * D3DXVECTOR3( 0.0f, 0.0f, -FLOAT1 );

  000ad	b8 01 00 00 00	 mov	 eax, 1
  000b2	0f 57 c0	 xorps	 xmm0, xmm0
  000b5	89 85 5c ff ff
	ff		 mov	 DWORD PTR tv5446[ebp], eax
  000bb	db 85 5c ff ff
	ff		 fild	 DWORD PTR tv5446[ebp]
  000c1	f3 0f 11 45 a4	 movss	 DWORD PTR $T662802[ebp], xmm0
  000c6	f3 0f 11 45 a8	 movss	 DWORD PTR $T662802[ebp+4], xmm0
  000cb	85 c0		 test	 eax, eax
  000cd	79 06		 jns	 SHORT $LN807@SetShichik@3
  000cf	d8 05 00 00 00
	00		 fadd	 DWORD PTR __real@4f800000
$LN807@SetShichik@3:
  000d5	8d 45 a4	 lea	 eax, DWORD PTR $T662802[ebp]
  000d8	d9 e0		 fchs
  000da	50		 push	 eax
  000db	d9 5d ac	 fstp	 DWORD PTR $T662802[ebp+8]
  000de	8b 03		 mov	 eax, DWORD PTR [ebx]
  000e0	8b cb		 mov	 ecx, ebx
  000e2	ff 50 74	 call	 DWORD PTR [eax+116]
  000e5	50		 push	 eax
  000e6	8d 45 e4	 lea	 eax, DWORD PTR _vCurDir$662800[ebp]
  000e9	50		 push	 eax
  000ea	ff 15 00 00 00
	00		 call	 DWORD PTR __imp_??D@YA?AUD3DXVECTOR3@@ABUD3DXQUATERNION@@ABU0@@Z
  000f0	83 c4 0c	 add	 esp, 12			; 0000000cH

; 1008 : 			D3DXVec3Normalize( &vCurDir, &vCurDir );

  000f3	8d 45 e4	 lea	 eax, DWORD PTR _vCurDir$662800[ebp]
  000f6	50		 push	 eax
  000f7	50		 push	 eax
  000f8	e8 00 00 00 00	 call	 _D3DXVec3Normalize@8

; 1009 : 
; 1010 : 			D3DXQUATERNION qtRot;
; 1011 : 			float fAngle = ioMath::ArrangeHead( (float)m_fShichikapuMoveAngle );

  000fd	8d 85 54 ff ff
	ff		 lea	 eax, DWORD PTR _value$682443[ebp]
  00103	50		 push	 eax
  00104	8d 8b 20 15 00
	00		 lea	 ecx, DWORD PTR [ebx+5408]
  0010a	e8 00 00 00 00	 call	 ?DecryptValueToPool@?$CEncrypt@M@@QAEXPAM@Z ; CEncrypt<float>::DecryptValueToPool
  0010f	f3 0f 10 85 54
	ff ff ff	 movss	 xmm0, DWORD PTR _value$682443[ebp]
  00117	51		 push	 ecx
  00118	f3 0f 11 04 24	 movss	 DWORD PTR [esp], xmm0
  0011d	ff 15 00 00 00
	00		 call	 DWORD PTR __imp_?ArrangeHead@ioMath@@SAMM@Z
  00123	d9 9d 54 ff ff
	ff		 fstp	 DWORD PTR _fAngle$662805[ebp]

; 1012 : 
; 1013 : 			D3DXVECTOR3 vAxis;
; 1014 : 			D3DXVec3Cross( &vAxis, &ioMath::UNIT_Y, &vCurDir );

  00129	a1 00 00 00 00	 mov	 eax, DWORD PTR __imp_?UNIT_Y@ioMath@@2UD3DXVECTOR3@@A
  0012e	f3 0f 10 40 04	 movss	 xmm0, DWORD PTR [eax+4]
  00133	f3 0f 10 48 08	 movss	 xmm1, DWORD PTR [eax+8]
  00138	f3 0f 10 55 ec	 movss	 xmm2, DWORD PTR _vCurDir$662800[ebp+8]
  0013d	0f 5a d8	 cvtps2pd xmm3, xmm0
  00140	0f 5a d2	 cvtps2pd xmm2, xmm2
  00143	f2 0f 59 d3	 mulsd	 xmm2, xmm3
  00147	f3 0f 10 5d e8	 movss	 xmm3, DWORD PTR _vCurDir$662800[ebp+4]
  0014c	0f 5a e1	 cvtps2pd xmm4, xmm1
  0014f	0f 5a db	 cvtps2pd xmm3, xmm3
  00152	f2 0f 59 dc	 mulsd	 xmm3, xmm4
  00156	f2 0f 5c d3	 subsd	 xmm2, xmm3
  0015a	f3 0f 10 5d e4	 movss	 xmm3, DWORD PTR _vCurDir$662800[ebp]
  0015f	0f 5a c9	 cvtps2pd xmm1, xmm1
  00162	f2 0f 5a d2	 cvtsd2ss xmm2, xmm2
  00166	f3 0f 11 55 cc	 movss	 DWORD PTR _v$682458[ebp], xmm2
  0016b	f3 0f 10 10	 movss	 xmm2, DWORD PTR [eax]
  0016f	0f 5a db	 cvtps2pd xmm3, xmm3
  00172	f2 0f 59 cb	 mulsd	 xmm1, xmm3
  00176	f3 0f 10 5d ec	 movss	 xmm3, DWORD PTR _vCurDir$662800[ebp+8]
  0017b	0f 5a e2	 cvtps2pd xmm4, xmm2
  0017e	0f 5a db	 cvtps2pd xmm3, xmm3
  00181	f2 0f 59 dc	 mulsd	 xmm3, xmm4
  00185	f2 0f 5c cb	 subsd	 xmm1, xmm3
  00189	66 0f 5a c9	 cvtpd2ps xmm1, xmm1
  0018d	f3 0f 11 4d d0	 movss	 DWORD PTR _v$682458[ebp+4], xmm1
  00192	f3 0f 10 4d e8	 movss	 xmm1, DWORD PTR _vCurDir$662800[ebp+4]
  00197	0f 5a d2	 cvtps2pd xmm2, xmm2
  0019a	0f 5a c9	 cvtps2pd xmm1, xmm1
  0019d	f2 0f 59 ca	 mulsd	 xmm1, xmm2
  001a1	f3 0f 10 55 e4	 movss	 xmm2, DWORD PTR _vCurDir$662800[ebp]
  001a6	0f 5a c0	 cvtps2pd xmm0, xmm0
  001a9	0f 5a d2	 cvtps2pd xmm2, xmm2
  001ac	f2 0f 59 c2	 mulsd	 xmm0, xmm2
  001b0	f2 0f 5c c8	 subsd	 xmm1, xmm0
  001b4	0f 57 c0	 xorps	 xmm0, xmm0
  001b7	f2 0f 5a c1	 cvtsd2ss xmm0, xmm1
  001bb	f3 0f 11 45 d4	 movss	 DWORD PTR _v$682458[ebp+8], xmm0
  001c0	8d 75 cc	 lea	 esi, DWORD PTR _v$682458[ebp]
  001c3	8d 7d b0	 lea	 edi, DWORD PTR _vAxis$662807[ebp]
  001c6	a5		 movsd
  001c7	59		 pop	 ecx

; 1015 : 			D3DXVec3Normalize( &vAxis, &vAxis );

  001c8	8d 45 b0	 lea	 eax, DWORD PTR _vAxis$662807[ebp]
  001cb	a5		 movsd
  001cc	50		 push	 eax
  001cd	50		 push	 eax
  001ce	a5		 movsd
  001cf	e8 00 00 00 00	 call	 _D3DXVec3Normalize@8

; 1016 : 
; 1017 : 			D3DXQuaternionRotationAxis( &qtRot, &vAxis, DEGtoRAD(fAngle) );

  001d4	51		 push	 ecx
  001d5	d9 85 54 ff ff
	ff		 fld	 DWORD PTR _fAngle$662805[ebp]
  001db	8d 45 b0	 lea	 eax, DWORD PTR _vAxis$662807[ebp]
  001de	dc 0d 00 00 00
	00		 fmul	 QWORD PTR __real@3f91df46a2526c7a
  001e4	d9 9d 54 ff ff
	ff		 fstp	 DWORD PTR tv5409[ebp]
  001ea	d9 85 54 ff ff
	ff		 fld	 DWORD PTR tv5409[ebp]
  001f0	d9 1c 24	 fstp	 DWORD PTR [esp]
  001f3	50		 push	 eax
  001f4	8d 85 f0 fe ff
	ff		 lea	 eax, DWORD PTR _qtRot$662804[ebp]
  001fa	50		 push	 eax
  001fb	e8 00 00 00 00	 call	 _D3DXQuaternionRotationAxis@12

; 1018 : 
; 1019 : 			vCurDir = qtRot * vCurDir;

  00200	8d 45 e4	 lea	 eax, DWORD PTR _vCurDir$662800[ebp]
  00203	50		 push	 eax
  00204	8d 85 f0 fe ff
	ff		 lea	 eax, DWORD PTR _qtRot$662804[ebp]
  0020a	50		 push	 eax
  0020b	8d 85 7c ff ff
	ff		 lea	 eax, DWORD PTR $T662808[ebp]
  00211	50		 push	 eax
  00212	ff 15 00 00 00
	00		 call	 DWORD PTR __imp_??D@YA?AUD3DXVECTOR3@@ABUD3DXQUATERNION@@ABU0@@Z
  00218	8b f0		 mov	 esi, eax
  0021a	8d 7d e4	 lea	 edi, DWORD PTR _vCurDir$662800[ebp]
  0021d	a5		 movsd
  0021e	83 c4 0c	 add	 esp, 12			; 0000000cH

; 1020 : 			D3DXVec3Normalize( &vCurDir, &vCurDir );

  00221	8d 45 e4	 lea	 eax, DWORD PTR _vCurDir$662800[ebp]
  00224	a5		 movsd
  00225	50		 push	 eax
  00226	50		 push	 eax
  00227	a5		 movsd
  00228	e8 00 00 00 00	 call	 _D3DXVec3Normalize@8

; 1021 : 
; 1022 : 			m_vShichikapuMoveTargetPos = GetWorldPosition() + (m_fShichikapuMoveMaxRange * vCurDir);

  0022d	f3 0f 10 55 e4	 movss	 xmm2, DWORD PTR _vCurDir$662800[ebp]
  00232	f3 0f 10 83 f8
	15 00 00	 movss	 xmm0, DWORD PTR [ebx+5624]
  0023a	8b 03		 mov	 eax, DWORD PTR [ebx]
  0023c	0f 5a c8	 cvtps2pd xmm1, xmm0
  0023f	0f 5a d2	 cvtps2pd xmm2, xmm2
  00242	f2 0f 59 ca	 mulsd	 xmm1, xmm2
  00246	66 0f 5a c9	 cvtpd2ps xmm1, xmm1
  0024a	f3 0f 11 8d 54
	ff ff ff	 movss	 DWORD PTR $T682468[ebp], xmm1
  00252	f3 0f 10 4d e8	 movss	 xmm1, DWORD PTR _vCurDir$662800[ebp+4]
  00257	0f 5a c9	 cvtps2pd xmm1, xmm1
  0025a	0f 5a d0	 cvtps2pd xmm2, xmm0
  0025d	f2 0f 59 ca	 mulsd	 xmm1, xmm2
  00261	66 0f 5a c9	 cvtpd2ps xmm1, xmm1
  00265	0f 5a c0	 cvtps2pd xmm0, xmm0
  00268	f3 0f 11 8d 24
	ff ff ff	 movss	 DWORD PTR $T682467[ebp], xmm1
  00270	f3 0f 10 4d ec	 movss	 xmm1, DWORD PTR _vCurDir$662800[ebp+8]
  00275	0f 5a c9	 cvtps2pd xmm1, xmm1
  00278	f2 0f 59 c8	 mulsd	 xmm1, xmm0
  0027c	8b cb		 mov	 ecx, ebx
  0027e	66 0f 5a c1	 cvtpd2ps xmm0, xmm1
  00282	f3 0f 11 85 20
	ff ff ff	 movss	 DWORD PTR $T682466[ebp], xmm0
  0028a	ff 50 70	 call	 DWORD PTR [eax+112]
  0028d	f3 0f 10 08	 movss	 xmm1, DWORD PTR [eax]
  00291	f3 0f 10 85 54
	ff ff ff	 movss	 xmm0, DWORD PTR $T682468[ebp]
  00299	f3 0f 10 95 24
	ff ff ff	 movss	 xmm2, DWORD PTR $T682467[ebp]
  002a1	f3 0f 10 9d 20
	ff ff ff	 movss	 xmm3, DWORD PTR $T682466[ebp]
  002a9	0f 5a c9	 cvtps2pd xmm1, xmm1
  002ac	0f 5a c0	 cvtps2pd xmm0, xmm0
  002af	f2 0f 58 c1	 addsd	 xmm0, xmm1
  002b3	f3 0f 10 48 04	 movss	 xmm1, DWORD PTR [eax+4]
  002b8	0f 5a d2	 cvtps2pd xmm2, xmm2
  002bb	0f 5a c9	 cvtps2pd xmm1, xmm1
  002be	f2 0f 58 ca	 addsd	 xmm1, xmm2
  002c2	f3 0f 10 50 08	 movss	 xmm2, DWORD PTR [eax+8]
  002c7	0f 5a d2	 cvtps2pd xmm2, xmm2
  002ca	0f 5a db	 cvtps2pd xmm3, xmm3
  002cd	f2 0f 58 d3	 addsd	 xmm2, xmm3
  002d1	f2 0f 5a c0	 cvtsd2ss xmm0, xmm0
  002d5	f3 0f 11 45 cc	 movss	 DWORD PTR $T662810[ebp], xmm0
  002da	66 0f 5a c9	 cvtpd2ps xmm1, xmm1
  002de	f3 0f 11 4d d0	 movss	 DWORD PTR $T662810[ebp+4], xmm1
  002e3	66 0f 5a d2	 cvtpd2ps xmm2, xmm2
  002e7	f3 0f 11 55 d4	 movss	 DWORD PTR $T662810[ebp+8], xmm2
  002ec	8d bb e0 15 00
	00		 lea	 edi, DWORD PTR [ebx+5600]
  002f2	8d 75 cc	 lea	 esi, DWORD PTR $T662810[ebp]
  002f5	a5		 movsd
  002f6	a5		 movsd
  002f7	a5		 movsd

; 1023 : 			m_vShichikapuMoveDir = vCurDir;

  002f8	8d 75 e4	 lea	 esi, DWORD PTR _vCurDir$662800[ebp]

; 1024 : 		}
; 1025 : 		break;

  002fb	e9 ad 00 00 00	 jmp	 $LN820@SetShichik@3
$LN17@SetShichik@3:

; 993  : 	{
; 994  : 	case MHS_RETURN1:
; 995  : 		{
; 996  : 			D3DXVECTOR3 vGap = m_vShichikapuMoveTargetPos - GetWorldPosition();

  00300	8b 03		 mov	 eax, DWORD PTR [ebx]
  00302	8b cb		 mov	 ecx, ebx
  00304	ff 50 70	 call	 DWORD PTR [eax+112]
  00307	f3 0f 10 08	 movss	 xmm1, DWORD PTR [eax]
  0030b	f3 0f 10 83 e0
	15 00 00	 movss	 xmm0, DWORD PTR [ebx+5600]
  00313	f3 0f 10 50 04	 movss	 xmm2, DWORD PTR [eax+4]
  00318	f3 0f 10 58 08	 movss	 xmm3, DWORD PTR [eax+8]
  0031d	0f 5a c0	 cvtps2pd xmm0, xmm0
  00320	0f 5a c9	 cvtps2pd xmm1, xmm1
  00323	f2 0f 5c c1	 subsd	 xmm0, xmm1
  00327	f3 0f 10 8b e4
	15 00 00	 movss	 xmm1, DWORD PTR [ebx+5604]
  0032f	0f 5a d2	 cvtps2pd xmm2, xmm2
  00332	0f 5a c9	 cvtps2pd xmm1, xmm1
  00335	f2 0f 5c ca	 subsd	 xmm1, xmm2
  00339	f3 0f 10 93 e8
	15 00 00	 movss	 xmm2, DWORD PTR [ebx+5608]
  00341	66 0f 5a c0	 cvtpd2ps xmm0, xmm0
  00345	f3 0f 11 45 b0	 movss	 DWORD PTR _vGap$662795[ebp], xmm0
  0034a	66 0f 5a c9	 cvtpd2ps xmm1, xmm1
  0034e	0f 5a d2	 cvtps2pd xmm2, xmm2

; 997  : 			m_fShichikapuMoveMaxRange = D3DXVec3Length( &vGap );

  00351	f3 0f 5a c0	 cvtss2sd xmm0, xmm0
  00355	f3 0f 11 4d b4	 movss	 DWORD PTR _vGap$662795[ebp+4], xmm1
  0035a	f2 0f 59 c0	 mulsd	 xmm0, xmm0
  0035e	0f 5a db	 cvtps2pd xmm3, xmm3
  00361	f2 0f 5c d3	 subsd	 xmm2, xmm3
  00365	66 0f 5a d2	 cvtpd2ps xmm2, xmm2
  00369	f3 0f 5a c9	 cvtss2sd xmm1, xmm1
  0036d	f3 0f 11 55 b8	 movss	 DWORD PTR _vGap$662795[ebp+8], xmm2
  00372	f2 0f 59 c9	 mulsd	 xmm1, xmm1
  00376	f2 0f 58 c8	 addsd	 xmm1, xmm0
  0037a	0f 57 c0	 xorps	 xmm0, xmm0
  0037d	f3 0f 5a d2	 cvtss2sd xmm2, xmm2
  00381	f2 0f 59 d2	 mulsd	 xmm2, xmm2

; 998  : 			D3DXVec3Normalize( &vGap, &vGap );

  00385	8d 45 b0	 lea	 eax, DWORD PTR _vGap$662795[ebp]
  00388	f2 0f 58 ca	 addsd	 xmm1, xmm2
  0038c	66 0f 5a c1	 cvtpd2ps xmm0, xmm1
  00390	0f 5a c0	 cvtps2pd xmm0, xmm0
  00393	50		 push	 eax
  00394	f2 0f 51 c0	 sqrtsd	 xmm0, xmm0
  00398	66 0f 5a c0	 cvtpd2ps xmm0, xmm0
  0039c	50		 push	 eax
  0039d	f3 0f 11 83 f8
	15 00 00	 movss	 DWORD PTR [ebx+5624], xmm0
  003a5	e8 00 00 00 00	 call	 _D3DXVec3Normalize@8

; 999  : 
; 1000 : 			m_vShichikapuMoveDir = vGap;

  003aa	8d 75 b0	 lea	 esi, DWORD PTR _vGap$662795[ebp]
$LN820@SetShichik@3:

; 1026 : 	}
; 1027 : 
; 1028 : 	m_fShichikapuMoveCurRange = 0.0f;

  003ad	0f 57 c0	 xorps	 xmm0, xmm0
  003b0	8d 83 ec 15 00
	00		 lea	 eax, DWORD PTR [ebx+5612]
  003b6	8b f8		 mov	 edi, eax
  003b8	a5		 movsd
  003b9	a5		 movsd
  003ba	a5		 movsd

; 1029 : 	m_MamaHahaState = MHS_FLYING2;
; 1030 : 
; 1031 : 	//
; 1032 : 	D3DXVECTOR3 vNewDir = m_vShichikapuMoveDir;

  003bb	8b f0		 mov	 esi, eax
  003bd	8d 7d d8	 lea	 edi, DWORD PTR _vNewDir$[ebp]
  003c0	a5		 movsd
  003c1	a5		 movsd

; 1033 : 	vNewDir.y = 0.0f;
; 1034 : 	D3DXVec3Normalize( &vNewDir, &vNewDir );

  003c2	8d 45 d8	 lea	 eax, DWORD PTR _vNewDir$[ebp]
  003c5	50		 push	 eax
  003c6	a5		 movsd
  003c7	50		 push	 eax
  003c8	f3 0f 11 83 fc
	15 00 00	 movss	 DWORD PTR [ebx+5628], xmm0
  003d0	c7 83 80 14 00
	00 05 00 00 00	 mov	 DWORD PTR [ebx+5248], 5
  003da	f3 0f 11 45 dc	 movss	 DWORD PTR _vNewDir$[ebp+4], xmm0
  003df	e8 00 00 00 00	 call	 _D3DXVec3Normalize@8

; 1035 : 
; 1036 : 	D3DXQUATERNION qtNewRot;
; 1037 : 	ioMath::CalcDirectionQuaternion( qtNewRot, -vNewDir );

  003e4	f3 0f 10 05 00
	00 00 00	 movss	 xmm0, DWORD PTR __mask@@NegFloat@
  003ec	f3 0f 10 4d d8	 movss	 xmm1, DWORD PTR _vNewDir$[ebp]
  003f1	f3 0f 10 55 dc	 movss	 xmm2, DWORD PTR _vNewDir$[ebp+4]
  003f6	f3 0f 10 5d e0	 movss	 xmm3, DWORD PTR _vNewDir$[ebp+8]
  003fb	8d 45 cc	 lea	 eax, DWORD PTR $T662813[ebp]
  003fe	50		 push	 eax
  003ff	8d 85 00 ff ff
	ff		 lea	 eax, DWORD PTR _qtNewRot$[ebp]
  00405	0f 57 c8	 xorps	 xmm1, xmm0
  00408	0f 57 d0	 xorps	 xmm2, xmm0
  0040b	0f 57 d8	 xorps	 xmm3, xmm0
  0040e	50		 push	 eax
  0040f	f3 0f 11 4d cc	 movss	 DWORD PTR $T662813[ebp], xmm1
  00414	f3 0f 11 55 d0	 movss	 DWORD PTR $T662813[ebp+4], xmm2
  00419	f3 0f 11 5d d4	 movss	 DWORD PTR $T662813[ebp+8], xmm3
  0041e	ff 15 00 00 00
	00		 call	 DWORD PTR __imp_?CalcDirectionQuaternion@ioMath@@SAXAAUD3DXQUATERNION@@ABUD3DXVECTOR3@@@Z

; 1038 : 
; 1039 : 	SetWorldOrientation( qtNewRot );

  00424	8b 03		 mov	 eax, DWORD PTR [ebx]
  00426	59		 pop	 ecx
  00427	59		 pop	 ecx
  00428	8d 8d 00 ff ff
	ff		 lea	 ecx, DWORD PTR _qtNewRot$[ebp]
  0042e	51		 push	 ecx
  0042f	8b cb		 mov	 ecx, ebx
  00431	ff 50 48	 call	 DWORD PTR [eax+72]

; 1040 : 	//
; 1041 : 
; 1042 : 	int iAniID = m_pGroup->GetAnimationIdx( rkCurAttribute.m_AttackAnimation );

  00434	8b bd 38 ff ff
	ff		 mov	 edi, DWORD PTR _rkCurAttribute$GSCopy$[ebp]
  0043a	8b 4b 04	 mov	 ecx, DWORD PTR [ebx+4]
  0043d	57		 push	 edi
  0043e	ff 15 00 00 00
	00		 call	 DWORD PTR __imp_?GetAnimationIdx@ioEntityGroup@@QAEHABVioHashString@@@Z
  00444	89 85 58 ff ff
	ff		 mov	 DWORD PTR _iAniID$[ebp], eax

; 1043 : 	if( iAniID != -1 )

  0044a	83 f8 ff	 cmp	 eax, -1
  0044d	0f 84 4c 08 00
	00		 je	 $LN782@SetShichik@3

; 1044 : 	{
; 1045 : 		m_pGroup->ClearAllActionAni( FLOAT10, true );

  00453	b8 0a 00 00 00	 mov	 eax, 10			; 0000000aH
  00458	89 85 5c ff ff
	ff		 mov	 DWORD PTR tv5299[ebp], eax
  0045e	db 85 5c ff ff
	ff		 fild	 DWORD PTR tv5299[ebp]
  00464	6a 01		 push	 1
  00466	85 c0		 test	 eax, eax
  00468	79 06		 jns	 SHORT $LN808@SetShichik@3
  0046a	d8 05 00 00 00
	00		 fadd	 DWORD PTR __real@4f800000
$LN808@SetShichik@3:
  00470	51		 push	 ecx
  00471	8b 4b 04	 mov	 ecx, DWORD PTR [ebx+4]
  00474	d9 1c 24	 fstp	 DWORD PTR [esp]
  00477	ff 15 00 00 00
	00		 call	 DWORD PTR __imp_?ClearAllActionAni@ioEntityGroup@@QAEXM_N@Z

; 1046 : 		m_pGroup->ClearAllLoopAni( FLOAT10, true );

  0047d	b8 0a 00 00 00	 mov	 eax, 10			; 0000000aH
  00482	89 85 5c ff ff
	ff		 mov	 DWORD PTR tv5294[ebp], eax
  00488	db 85 5c ff ff
	ff		 fild	 DWORD PTR tv5294[ebp]
  0048e	6a 01		 push	 1
  00490	85 c0		 test	 eax, eax
  00492	79 06		 jns	 SHORT $LN809@SetShichik@3
  00494	d8 05 00 00 00
	00		 fadd	 DWORD PTR __real@4f800000
$LN809@SetShichik@3:
  0049a	51		 push	 ecx
  0049b	8b 4b 04	 mov	 ecx, DWORD PTR [ebx+4]
  0049e	d9 1c 24	 fstp	 DWORD PTR [esp]
  004a1	ff 15 00 00 00
	00		 call	 DWORD PTR __imp_?ClearAllLoopAni@ioEntityGroup@@QAEXM_N@Z

; 1047 : 
; 1048 : 		float fAniRate = rkCurAttribute.m_fAttackAniRate;

  004a7	f3 0f 10 4f 10	 movss	 xmm1, DWORD PTR [edi+16]

; 1049 : 		if( fAniRate <= 0.0f )

  004ac	0f 57 c0	 xorps	 xmm0, xmm0
  004af	0f 2f c1	 comiss	 xmm0, xmm1
  004b2	f3 0f 11 8d 48
	ff ff ff	 movss	 DWORD PTR _fAniRate$662818[ebp], xmm1
  004ba	72 21		 jb	 SHORT $LN14@SetShichik@3

; 1050 : 			fAniRate = FLOAT1;

  004bc	b8 01 00 00 00	 mov	 eax, 1
  004c1	89 85 5c ff ff
	ff		 mov	 DWORD PTR tv5287[ebp], eax
  004c7	db 85 5c ff ff
	ff		 fild	 DWORD PTR tv5287[ebp]
  004cd	85 c0		 test	 eax, eax
  004cf	79 06		 jns	 SHORT $LN810@SetShichik@3
  004d1	d8 05 00 00 00
	00		 fadd	 DWORD PTR __real@4f800000
$LN810@SetShichik@3:
  004d7	d9 9d 48 ff ff
	ff		 fstp	 DWORD PTR _fAniRate$662818[ebp]
$LN14@SetShichik@3:

; 1051 : 
; 1052 : 		m_pGroup->SetActionAni( iAniID, FLOAT10, FLOAT10, FLOAT1, FLOAT1/fAniRate, 0.0f, 0.0f, true );

  004dd	b8 01 00 00 00	 mov	 eax, 1
  004e2	8b c8		 mov	 ecx, eax
  004e4	b8 01 00 00 00	 mov	 eax, 1
  004e9	8b d0		 mov	 edx, eax
  004eb	b8 0a 00 00 00	 mov	 eax, 10			; 0000000aH
  004f0	8b f0		 mov	 esi, eax
  004f2	b8 0a 00 00 00	 mov	 eax, 10			; 0000000aH
  004f7	6a 01		 push	 1
  004f9	6a 01		 push	 1
  004fb	83 ec 18	 sub	 esp, 24			; 00000018H
  004fe	f3 0f 11 44 24
	14		 movss	 DWORD PTR [esp+20], xmm0
  00504	89 8d 5c ff ff
	ff		 mov	 DWORD PTR tv5280[ebp], ecx
  0050a	db 85 5c ff ff
	ff		 fild	 DWORD PTR tv5280[ebp]
  00510	f3 0f 11 44 24
	10		 movss	 DWORD PTR [esp+16], xmm0
  00516	85 c9		 test	 ecx, ecx
  00518	79 06		 jns	 SHORT $LN811@SetShichik@3
  0051a	d8 05 00 00 00
	00		 fadd	 DWORD PTR __real@4f800000
$LN811@SetShichik@3:
  00520	d8 b5 48 ff ff
	ff		 fdiv	 DWORD PTR _fAniRate$662818[ebp]
  00526	89 95 5c ff ff
	ff		 mov	 DWORD PTR tv5275[ebp], edx
  0052c	d9 9d 54 ff ff
	ff		 fstp	 DWORD PTR tv5277[ebp]
  00532	d9 85 54 ff ff
	ff		 fld	 DWORD PTR tv5277[ebp]
  00538	d9 5c 24 0c	 fstp	 DWORD PTR [esp+12]
  0053c	db 85 5c ff ff
	ff		 fild	 DWORD PTR tv5275[ebp]
  00542	85 d2		 test	 edx, edx
  00544	79 06		 jns	 SHORT $LN812@SetShichik@3
  00546	d8 05 00 00 00
	00		 fadd	 DWORD PTR __real@4f800000
$LN812@SetShichik@3:
  0054c	d9 5c 24 08	 fstp	 DWORD PTR [esp+8]
  00550	89 b5 5c ff ff
	ff		 mov	 DWORD PTR tv5273[ebp], esi
  00556	db 85 5c ff ff
	ff		 fild	 DWORD PTR tv5273[ebp]
  0055c	85 f6		 test	 esi, esi
  0055e	79 06		 jns	 SHORT $LN813@SetShichik@3
  00560	d8 05 00 00 00
	00		 fadd	 DWORD PTR __real@4f800000
$LN813@SetShichik@3:
  00566	d9 5c 24 04	 fstp	 DWORD PTR [esp+4]
  0056a	89 85 5c ff ff
	ff		 mov	 DWORD PTR tv5271[ebp], eax
  00570	db 85 5c ff ff
	ff		 fild	 DWORD PTR tv5271[ebp]
  00576	85 c0		 test	 eax, eax
  00578	79 06		 jns	 SHORT $LN814@SetShichik@3
  0057a	d8 05 00 00 00
	00		 fadd	 DWORD PTR __real@4f800000
$LN814@SetShichik@3:
  00580	8b 4b 04	 mov	 ecx, DWORD PTR [ebx+4]
  00583	d9 1c 24	 fstp	 DWORD PTR [esp]
  00586	ff b5 58 ff ff
	ff		 push	 DWORD PTR _iAniID$[ebp]
  0058c	ff 15 00 00 00
	00		 call	 DWORD PTR __imp_?SetActionAni@ioEntityGroup@@QAE_NHMMMMMM_N0@Z

; 1053 : 		m_dwAttackAniEndTime += m_pGroup->GetAnimationFullTime( iAniID ) * fAniRate;

  00592	ff b5 58 ff ff
	ff		 push	 DWORD PTR _iAniID$[ebp]
  00598	8b 4b 04	 mov	 ecx, DWORD PTR [ebx+4]
  0059b	ff 15 00 00 00
	00		 call	 DWORD PTR __imp_?GetAnimationFullTime@ioEntityGroup@@QAEMH@Z
  005a1	d8 8d 48 ff ff
	ff		 fmul	 DWORD PTR _fAniRate$662818[ebp]
  005a7	8b 83 e8 06 00
	00		 mov	 eax, DWORD PTR [ebx+1768]
  005ad	db 83 e8 06 00
	00		 fild	 DWORD PTR [ebx+1768]
  005b3	85 c0		 test	 eax, eax
  005b5	79 06		 jns	 SHORT $LN815@SetShichik@3
  005b7	dc 05 00 00 00
	00		 fadd	 QWORD PTR __real@41f0000000000000
$LN815@SetShichik@3:
  005bd	de c1		 faddp	 ST(1), ST(0)
  005bf	e8 00 00 00 00	 call	 __ftol2

; 1054 : 
; 1055 : 		// fire 
; 1056 : 		AniEventConstPtrList vFireStartList;

  005c4	33 f6		 xor	 esi, esi
  005c6	89 83 e8 06 00
	00		 mov	 DWORD PTR [ebx+1768], eax
  005cc	89 b5 28 ff ff
	ff		 mov	 DWORD PTR _vFireStartList$662825[ebp], esi
  005d2	89 b5 2c ff ff
	ff		 mov	 DWORD PTR _vFireStartList$662825[ebp+4], esi
  005d8	89 b5 30 ff ff
	ff		 mov	 DWORD PTR _vFireStartList$662825[ebp+8], esi

; 1057 : 		m_pGroup->GetAnimationEventConstPtrList_e( iAniID, "fire_s", vFireStartList );

  005de	8b 43 04	 mov	 eax, DWORD PTR [ebx+4]
  005e1	6a 04		 push	 4
  005e3	89 85 54 ff ff
	ff		 mov	 DWORD PTR $T682682[ebp], eax
  005e9	c7 45 e4 8b 85
	99 8f		 mov	 DWORD PTR _szEncEventType$682585[ebp], -1885764213 ; 8f99858bH
  005f0	81 75 e4 ed ec
	eb ea		 xor	 DWORD PTR _szEncEventType$682585[ebp], -353637139 ; eaebecedH
  005f7	89 75 fc	 mov	 DWORD PTR __$EHRec$[ebp+8], esi
  005fa	66 c7 45 e8 b2
	9f		 mov	 WORD PTR _szEncEventType$682585[ebp+4], 40882 ; 00009fb2H
  00600	c6 45 ea 00	 mov	 BYTE PTR _szEncEventType$682585[ebp+6], 0
  00604	58		 pop	 eax
$LL197@SetShichik@3:
  00605	8b c8		 mov	 ecx, eax
  00607	81 e1 03 00 00
	80		 and	 ecx, -2147483645	; 80000003H
  0060d	79 05		 jns	 SHORT $LN816@SetShichik@3
  0060f	49		 dec	 ecx
  00610	83 c9 fc	 or	 ecx, -4			; fffffffcH
  00613	41		 inc	 ecx
$LN816@SetShichik@3:
  00614	b2 ed		 mov	 dl, -19			; ffffffedH
  00616	2a d1		 sub	 dl, cl
  00618	30 54 05 e4	 xor	 BYTE PTR _szEncEventType$682585[ebp+eax], dl
  0061c	40		 inc	 eax
  0061d	83 f8 06	 cmp	 eax, 6
  00620	7c e3		 jl	 SHORT $LL197@SetShichik@3
  00622	8d 45 e4	 lea	 eax, DWORD PTR _szEncEventType$682585[ebp]
  00625	50		 push	 eax
  00626	8d 8d f0 fe ff
	ff		 lea	 ecx, DWORD PTR $T682572[ebp]
  0062c	ff 15 00 00 00
	00		 call	 DWORD PTR __imp_??0ioHashString@@QAE@PBD@Z
  00632	8b 8d 54 ff ff
	ff		 mov	 ecx, DWORD PTR $T682682[ebp]
  00638	8d 85 28 ff ff
	ff		 lea	 eax, DWORD PTR _vFireStartList$662825[ebp]
  0063e	50		 push	 eax
  0063f	8d 85 f0 fe ff
	ff		 lea	 eax, DWORD PTR $T682572[ebp]
  00645	50		 push	 eax
  00646	ff b5 58 ff ff
	ff		 push	 DWORD PTR _iAniID$[ebp]
  0064c	c6 45 fc 01	 mov	 BYTE PTR __$EHRec$[ebp+8], 1
  00650	ff 15 00 00 00
	00		 call	 DWORD PTR __imp_?GetAnimationEventConstPtrList@ioEntityGroup@@QAEHHABVioHashString@@AAV?$vector@PBUAniEventTime@@V?$allocator@PBUAniEventTime@@@std@@@std@@@Z
  00656	8d 8d f0 fe ff
	ff		 lea	 ecx, DWORD PTR $T682572[ebp]
  0065c	c6 45 fc 00	 mov	 BYTE PTR __$EHRec$[ebp+8], 0
  00660	ff 15 00 00 00
	00		 call	 DWORD PTR __imp_??1ioHashString@@QAE@XZ

; 1058 : 
; 1059 : 		std::list<float> vFireEndList;

  00666	51		 push	 ecx
  00667	89 a5 5c ff ff
	ff		 mov	 DWORD PTR $T682691[ebp], esp
  0066d	8d 8d 3c ff ff
	ff		 lea	 ecx, DWORD PTR _vFireEndList$662830[ebp]
  00673	89 a5 5c ff ff
	ff		 mov	 DWORD PTR $T682689[ebp], esp
  00679	e8 00 00 00 00	 call	 ??0?$_List_val@MV?$allocator@M@std@@@std@@QAE@V?$allocator@M@1@@Z ; std::_List_val<float,std::allocator<float> >::_List_val<float,std::allocator<float> >

; 1060 : 		m_pGroup->GetAnimationEventTimeList_e( iAniID, "fire_e", vFireEndList );

  0067e	8b 43 04	 mov	 eax, DWORD PTR [ebx+4]
  00681	6a 04		 push	 4
  00683	89 85 54 ff ff
	ff		 mov	 DWORD PTR $T682825[ebp], eax
  00689	c7 45 e4 8b 85
	99 8f		 mov	 DWORD PTR _szEncEventType$682824[ebp], -1885764213 ; 8f99858bH
  00690	81 75 e4 ed ec
	eb ea		 xor	 DWORD PTR _szEncEventType$682824[ebp], -353637139 ; eaebecedH
  00697	c6 45 fc 02	 mov	 BYTE PTR __$EHRec$[ebp+8], 2
  0069b	66 c7 45 e8 b2
	89		 mov	 WORD PTR _szEncEventType$682824[ebp+4], 35250 ; 000089b2H
  006a1	c6 45 ea 00	 mov	 BYTE PTR _szEncEventType$682824[ebp+6], 0
  006a5	58		 pop	 eax
$LL309@SetShichik@3:
  006a6	8b c8		 mov	 ecx, eax
  006a8	81 e1 03 00 00
	80		 and	 ecx, -2147483645	; 80000003H
  006ae	79 05		 jns	 SHORT $LN817@SetShichik@3
  006b0	49		 dec	 ecx
  006b1	83 c9 fc	 or	 ecx, -4			; fffffffcH
  006b4	41		 inc	 ecx
$LN817@SetShichik@3:
  006b5	b2 ed		 mov	 dl, -19			; ffffffedH
  006b7	2a d1		 sub	 dl, cl
  006b9	30 54 05 e4	 xor	 BYTE PTR _szEncEventType$682824[ebp+eax], dl
  006bd	40		 inc	 eax
  006be	83 f8 06	 cmp	 eax, 6
  006c1	7c e3		 jl	 SHORT $LL309@SetShichik@3
  006c3	8d 45 e4	 lea	 eax, DWORD PTR _szEncEventType$682824[ebp]
  006c6	50		 push	 eax
  006c7	8d 8d f0 fe ff
	ff		 lea	 ecx, DWORD PTR $T682811[ebp]
  006cd	ff 15 00 00 00
	00		 call	 DWORD PTR __imp_??0ioHashString@@QAE@PBD@Z
  006d3	8b 8d 54 ff ff
	ff		 mov	 ecx, DWORD PTR $T682825[ebp]
  006d9	8d 85 3c ff ff
	ff		 lea	 eax, DWORD PTR _vFireEndList$662830[ebp]
  006df	50		 push	 eax
  006e0	8d 85 f0 fe ff
	ff		 lea	 eax, DWORD PTR $T682811[ebp]
  006e6	50		 push	 eax
  006e7	ff b5 58 ff ff
	ff		 push	 DWORD PTR _iAniID$[ebp]
  006ed	c6 45 fc 03	 mov	 BYTE PTR __$EHRec$[ebp+8], 3
  006f1	ff 15 00 00 00
	00		 call	 DWORD PTR __imp_?GetAnimationEventTimeList@ioEntityGroup@@QAEHHABVioHashString@@AAV?$list@MV?$allocator@M@std@@@std@@@Z
  006f7	8d 8d f0 fe ff
	ff		 lea	 ecx, DWORD PTR $T682811[ebp]
  006fd	c6 45 fc 02	 mov	 BYTE PTR __$EHRec$[ebp+8], 2
  00701	ff 15 00 00 00
	00		 call	 DWORD PTR __imp_??1ioHashString@@QAE@XZ

; 1061 : 
; 1062 : 		const WeaponInfoList &vInfoList = rkCurAttribute.m_vWeaponInfoList;
; 1063 : 		if( vFireStartList.size() != vInfoList.size() )

  00707	8b 47 2c	 mov	 eax, DWORD PTR [edi+44]
  0070a	2b 47 28	 sub	 eax, DWORD PTR [edi+40]
  0070d	6a 28		 push	 40			; 00000028H
  0070f	99		 cdq
  00710	59		 pop	 ecx
  00711	f7 f9		 idiv	 ecx
  00713	8b 8d 2c ff ff
	ff		 mov	 ecx, DWORD PTR _vFireStartList$662825[ebp+4]
  00719	2b 8d 28 ff ff
	ff		 sub	 ecx, DWORD PTR _vFireStartList$662825[ebp]
  0071f	c1 f9 02	 sar	 ecx, 2
  00722	3b c8		 cmp	 ecx, eax

; 1064 : 			return;

  00724	0f 85 4f 05 00
	00		 jne	 $LN821@SetShichik@3

; 1065 : 
; 1066 : 		m_dwBaseWeaponIndex = pOwner->IncreaseWeaponIndexBase();

  0072a	8b 8d 4c ff ff
	ff		 mov	 ecx, DWORD PTR _pOwner$[ebp]
  00730	e8 00 00 00 00	 call	 ?IncreaseWeaponIndexBase@ioBaseChar@@QAEKXZ ; ioBaseChar::IncreaseWeaponIndexBase

; 1067 : 		DWORD dwStartTime = dwCurTime + rkCurAttribute.m_dwPreDelay;
; 1068 : 
; 1069 : 		int i=0;
; 1070 : 		AniEventConstPtrList::iterator iter;
; 1071 : 
; 1072 : 		std::list< float >::iterator iterEndTime = vFireEndList.begin();

  00735	8b 8d 3c ff ff
	ff		 mov	 ecx, DWORD PTR _vFireEndList$662830[ebp]
  0073b	89 83 30 06 00
	00		 mov	 DWORD PTR [ebx+1584], eax
  00741	8b 09		 mov	 ecx, DWORD PTR [ecx]
  00743	8b 47 48	 mov	 eax, DWORD PTR [edi+72]
  00746	03 85 ec fe ff
	ff		 add	 eax, DWORD PTR _dwCurTime$[ebp]
  0074c	89 8d 20 ff ff
	ff		 mov	 DWORD PTR _iterEndTime$662840[ebp], ecx

; 1073 : 		for( iter=vFireStartList.begin() ; iter!=vFireStartList.end() ; ++iter, i++ )

  00752	8b 8d 28 ff ff
	ff		 mov	 ecx, DWORD PTR _vFireStartList$662825[ebp]
  00758	89 b5 24 ff ff
	ff		 mov	 DWORD PTR _i$662834[ebp], esi
  0075e	89 8d 4c ff ff
	ff		 mov	 DWORD PTR _iter$662835[ebp], ecx
  00764	3b 8d 2c ff ff
	ff		 cmp	 ecx, DWORD PTR _vFireStartList$662825[ebp+4]
  0076a	0f 84 7b 02 00
	00		 je	 $LN10@SetShichik@3
  00770	89 85 5c ff ff
	ff		 mov	 DWORD PTR tv5229[ebp], eax
  00776	db 85 5c ff ff
	ff		 fild	 DWORD PTR tv5229[ebp]
  0077c	85 c0		 test	 eax, eax
  0077e	79 06		 jns	 SHORT $LN818@SetShichik@3
  00780	d8 05 00 00 00
	00		 fadd	 DWORD PTR __real@4f800000
$LN818@SetShichik@3:
  00786	d9 9d 5c ff ff
	ff		 fstp	 DWORD PTR tv4687[ebp]
  0078c	89 b5 38 ff ff
	ff		 mov	 DWORD PTR tv5503[ebp], esi
$LN12@SetShichik@3:

; 1074 : 		{
; 1075 : 			float fFireStart = (*iter)->fEventTime;

  00792	8b 85 4c ff ff
	ff		 mov	 eax, DWORD PTR _iter$662835[ebp]
  00798	8b 00		 mov	 eax, DWORD PTR [eax]
  0079a	d9 00		 fld	 DWORD PTR [eax]

; 1076 : 
; 1077 : 			FireTime kFireTime;

  0079c	8d 8d 94 fe ff
	ff		 lea	 ecx, DWORD PTR _kFireTime$662848[ebp]
  007a2	d9 9d 54 ff ff
	ff		 fstp	 DWORD PTR _fFireStart$662847[ebp]
  007a8	e8 00 00 00 00	 call	 ??0FireTime@@QAE@XZ	; FireTime::FireTime

; 1078 : 			kFireTime.dwStart = dwStartTime + fFireStart * fAniRate;

  007ad	d9 85 54 ff ff
	ff		 fld	 DWORD PTR _fFireStart$662847[ebp]
  007b3	d8 8d 48 ff ff
	ff		 fmul	 DWORD PTR _fAniRate$662818[ebp]
  007b9	c6 45 fc 04	 mov	 BYTE PTR __$EHRec$[ebp+8], 4
  007bd	d8 85 5c ff ff
	ff		 fadd	 DWORD PTR tv4687[ebp]
  007c3	e8 00 00 00 00	 call	 __ftol2
  007c8	89 85 94 fe ff
	ff		 mov	 DWORD PTR _kFireTime$662848[ebp], eax

; 1079 : 
; 1080 : 			if( iterEndTime != vFireEndList.end() )

  007ce	8b 85 20 ff ff
	ff		 mov	 eax, DWORD PTR _iterEndTime$662840[ebp]
  007d4	3b 85 3c ff ff
	ff		 cmp	 eax, DWORD PTR _vFireEndList$662830[ebp]
  007da	74 28		 je	 SHORT $LN399@SetShichik@3

; 1081 : 			{
; 1082 : 				kFireTime.dwDuration = ( *iterEndTime - fFireStart ) * fAniRate;

  007dc	d9 40 08	 fld	 DWORD PTR [eax+8]
  007df	d8 a5 54 ff ff
	ff		 fsub	 DWORD PTR _fFireStart$662847[ebp]
  007e5	d8 8d 48 ff ff
	ff		 fmul	 DWORD PTR _fAniRate$662818[ebp]
  007eb	e8 00 00 00 00	 call	 __ftol2
  007f0	89 85 98 fe ff
	ff		 mov	 DWORD PTR _kFireTime$662848[ebp+4], eax

; 1083 : 				++iterEndTime;

  007f6	8b 85 20 ff ff
	ff		 mov	 eax, DWORD PTR _iterEndTime$662840[ebp]
  007fc	8b 00		 mov	 eax, DWORD PTR [eax]
  007fe	89 85 20 ff ff
	ff		 mov	 DWORD PTR _iterEndTime$662840[ebp], eax
$LN399@SetShichik@3:

; 1084 : 			}
; 1085 : 
; 1086 : 			kFireTime.iAttributeIdx  = vInfoList[i].m_iWeaponIdx;

  00804	8b 47 28	 mov	 eax, DWORD PTR [edi+40]
  00807	03 85 38 ff ff
	ff		 add	 eax, DWORD PTR tv5503[ebp]
  0080d	8b 08		 mov	 ecx, DWORD PTR [eax]
  0080f	89 8d 9c fe ff
	ff		 mov	 DWORD PTR _kFireTime$662848[ebp+8], ecx

; 1087 : 			kFireTime.iResistanceIdx = vInfoList[i].m_iResistanceIdx;

  00815	8b 48 04	 mov	 ecx, DWORD PTR [eax+4]

; 1088 : 			kFireTime.szWoundedAni   = vInfoList[i].m_WoundedAnimation;

  00818	83 c0 08	 add	 eax, 8
  0081b	89 8d a0 fe ff
	ff		 mov	 DWORD PTR _kFireTime$662848[ebp+12], ecx
  00821	50		 push	 eax
  00822	8d 8d a8 fe ff
	ff		 lea	 ecx, DWORD PTR _kFireTime$662848[ebp+20]
  00828	ff 15 00 00 00
	00		 call	 DWORD PTR __imp_??4ioHashString@@QAEAAV0@ABV0@@Z

; 1089 : 			kFireTime.dwWoundedAniDuration  = vInfoList[i].m_dwWoundedDuration;

  0082e	8b 47 28	 mov	 eax, DWORD PTR [edi+40]
  00831	03 85 38 ff ff
	ff		 add	 eax, DWORD PTR tv5503[ebp]
  00837	8b 48 18	 mov	 ecx, DWORD PTR [eax+24]
  0083a	89 8d b8 fe ff
	ff		 mov	 DWORD PTR _kFireTime$662848[ebp+36], ecx

; 1090 : 			kFireTime.bLoopWoundedAni = vInfoList[i].m_bWoundedLoopAni;

  00840	8a 40 20	 mov	 al, BYTE PTR [eax+32]
  00843	88 85 a4 fe ff
	ff		 mov	 BYTE PTR _kFireTime$662848[ebp+16], al

; 1091 : 
; 1092 : 			kFireTime.dwWeaponIdx = m_dwBaseWeaponIndex + i;

  00849	8b 83 30 06 00
	00		 mov	 eax, DWORD PTR [ebx+1584]
  0084f	03 85 24 ff ff
	ff		 add	 eax, DWORD PTR _i$662834[ebp]

; 1093 : 
; 1094 : 			m_vMamaHahaWeaponList.push_back( kFireTime.dwWeaponIdx );

  00855	8d 8b 00 16 00
	00		 lea	 ecx, DWORD PTR [ebx+5632]
  0085b	89 85 bc fe ff
	ff		 mov	 DWORD PTR _kFireTime$662848[ebp+40], eax
  00861	89 85 54 ff ff
	ff		 mov	 DWORD PTR $T682389[ebp], eax
  00867	8d 85 54 ff ff
	ff		 lea	 eax, DWORD PTR $T682389[ebp]
  0086d	50		 push	 eax
  0086e	e8 00 00 00 00	 call	 ?push_back@?$vector@HV?$allocator@H@std@@@std@@QAEXABH@Z ; std::vector<int,std::allocator<int> >::push_back

; 1095 : 
; 1096 : 			if( !(*iter)->szSubInfo.IsEmpty() )

  00873	8b 85 4c ff ff
	ff		 mov	 eax, DWORD PTR _iter$662835[ebp]
  00879	8b 08		 mov	 ecx, DWORD PTR [eax]
  0087b	83 c1 14	 add	 ecx, 20			; 00000014H
  0087e	ff 15 00 00 00
	00		 call	 DWORD PTR __imp_?IsEmpty@ioHashString@@QBE_NXZ
  00884	84 c0		 test	 al, al
  00886	0f 85 ff 00 00
	00		 jne	 $LN7@SetShichik@3

; 1097 : 			{
; 1098 : 				const StringVector &vParam = ioStringConverter::Split( (*iter)->szSubInfo.c_str(), " " );

  0088c	6a 01		 push	 1
  0088e	68 00 00 00 00	 push	 OFFSET ??_C@_01CLKCMJKC@?5?$AA@
  00893	8d 4d 88	 lea	 ecx, DWORD PTR $T662854[ebp]
  00896	c7 45 9c 0f 00
	00 00		 mov	 DWORD PTR $T662854[ebp+20], 15 ; 0000000fH
  0089d	89 75 98	 mov	 DWORD PTR $T662854[ebp+16], esi
  008a0	88 45 88	 mov	 BYTE PTR $T662854[ebp], al
  008a3	e8 00 00 00 00	 call	 ?assign@?$basic_string@DU?$char_traits@D@std@@V?$allocator@D@2@@std@@QAEAAV12@PBDI@Z ; std::basic_string<char,std::char_traits<char>,std::allocator<char> >::assign
  008a8	8b 85 4c ff ff
	ff		 mov	 eax, DWORD PTR _iter$662835[ebp]
  008ae	8b 08		 mov	 ecx, DWORD PTR [eax]
  008b0	83 c1 14	 add	 ecx, 20			; 00000014H
  008b3	c6 45 fc 05	 mov	 BYTE PTR __$EHRec$[ebp+8], 5
  008b7	ff 15 00 00 00
	00		 call	 DWORD PTR __imp_?c_str@ioHashString@@QBEPBDXZ
  008bd	50		 push	 eax
  008be	8d 4d bc	 lea	 ecx, DWORD PTR $T662855[ebp]
  008c1	c7 45 d0 0f 00
	00 00		 mov	 DWORD PTR $T662855[ebp+20], 15 ; 0000000fH
  008c8	89 75 cc	 mov	 DWORD PTR $T662855[ebp+16], esi
  008cb	c6 45 bc 00	 mov	 BYTE PTR $T662855[ebp], 0
  008cf	e8 00 00 00 00	 call	 ?assign@?$basic_string@DU?$char_traits@D@std@@V?$allocator@D@2@@std@@QAEAAV12@PBD@Z ; std::basic_string<char,std::char_traits<char>,std::allocator<char> >::assign
  008d4	56		 push	 esi
  008d5	8d 45 88	 lea	 eax, DWORD PTR $T662854[ebp]
  008d8	50		 push	 eax
  008d9	8d 45 bc	 lea	 eax, DWORD PTR $T662855[ebp]
  008dc	50		 push	 eax
  008dd	c6 45 fc 06	 mov	 BYTE PTR __$EHRec$[ebp+8], 6
  008e1	ff 15 00 00 00
	00		 call	 DWORD PTR __imp_?Split@ioStringConverter@@SAABV?$vector@V?$basic_string@DU?$char_traits@D@std@@V?$allocator@D@2@@std@@V?$allocator@V?$basic_string@DU?$char_traits@D@std@@V?$allocator@D@2@@std@@@2@@std@@ABV?$basic_string@DU?$char_traits@D@std@@V?$allocator@D@2@@3@0H@Z
  008e7	83 c4 0c	 add	 esp, 12			; 0000000cH
  008ea	6a 00		 push	 0
  008ec	6a 01		 push	 1
  008ee	8d 4d bc	 lea	 ecx, DWORD PTR $T662855[ebp]
  008f1	8b f0		 mov	 esi, eax
  008f3	e8 00 00 00 00	 call	 ?_Tidy@?$basic_string@DU?$char_traits@D@std@@V?$allocator@D@2@@std@@QAEX_NI@Z ; std::basic_string<char,std::char_traits<char>,std::allocator<char> >::_Tidy
  008f8	6a 00		 push	 0
  008fa	6a 01		 push	 1
  008fc	8d 4d 88	 lea	 ecx, DWORD PTR $T662854[ebp]
  008ff	c6 45 fc 04	 mov	 BYTE PTR __$EHRec$[ebp+8], 4
  00903	e8 00 00 00 00	 call	 ?_Tidy@?$basic_string@DU?$char_traits@D@std@@V?$allocator@D@2@@std@@QAEX_NI@Z ; std::basic_string<char,std::char_traits<char>,std::allocator<char> >::_Tidy

; 1099 : 				if( vParam.size() >= 1 )

  00908	8b 46 04	 mov	 eax, DWORD PTR [esi+4]
  0090b	2b 06		 sub	 eax, DWORD PTR [esi]
  0090d	6a 1c		 push	 28			; 0000001cH
  0090f	99		 cdq
  00910	59		 pop	 ecx
  00911	f7 f9		 idiv	 ecx
  00913	83 f8 01	 cmp	 eax, 1
  00916	72 71		 jb	 SHORT $LN802@SetShichik@3

; 1100 : 				{
; 1101 : 					ioHashString szTypeName = vParam[0].c_str();

  00918	8b 06		 mov	 eax, DWORD PTR [esi]
  0091a	83 78 14 10	 cmp	 DWORD PTR [eax+20], 16	; 00000010H
  0091e	72 02		 jb	 SHORT $LN493@SetShichik@3
  00920	8b 00		 mov	 eax, DWORD PTR [eax]
$LN493@SetShichik@3:
  00922	50		 push	 eax
  00923	8d 8d f0 fe ff
	ff		 lea	 ecx, DWORD PTR _szTypeName$662857[ebp]
  00929	ff 15 00 00 00
	00		 call	 DWORD PTR __imp_??0ioHashString@@QAE@PBD@Z

; 1102 : 					kFireTime.eCollisionType = GetAniCollisionType( szTypeName );

  0092f	8d 85 f0 fe ff
	ff		 lea	 eax, DWORD PTR _szTypeName$662857[ebp]
  00935	50		 push	 eax
  00936	c6 45 fc 07	 mov	 BYTE PTR __$EHRec$[ebp+8], 7
  0093a	e8 00 00 00 00	 call	 ?GetAniCollisionType@@YA?AW4AniCollisionType@@ABVioHashString@@@Z ; GetAniCollisionType
  0093f	89 85 c0 fe ff
	ff		 mov	 DWORD PTR _kFireTime$662848[ebp+44], eax

; 1103 : 
; 1104 : 					if( vParam.size() == 2 && kFireTime.eCollisionType == ACT_SPECIAL )

  00945	8b 46 04	 mov	 eax, DWORD PTR [esi+4]
  00948	59		 pop	 ecx
  00949	8b 0e		 mov	 ecx, DWORD PTR [esi]
  0094b	2b c1		 sub	 eax, ecx
  0094d	6a 1c		 push	 28			; 0000001cH
  0094f	99		 cdq
  00950	5e		 pop	 esi
  00951	f7 fe		 idiv	 esi
  00953	83 f8 02	 cmp	 eax, 2
  00956	75 21		 jne	 SHORT $LN6@SetShichik@3
  00958	83 bd c0 fe ff
	ff 07		 cmp	 DWORD PTR _kFireTime$662848[ebp+44], 7
  0095f	75 18		 jne	 SHORT $LN6@SetShichik@3

; 1105 : 					{
; 1106 : 						kFireTime.szSpecialCollisionBox = vParam[1].c_str();

  00961	8d 41 1c	 lea	 eax, DWORD PTR [ecx+28]
  00964	83 78 14 10	 cmp	 DWORD PTR [eax+20], 16	; 00000010H
  00968	72 02		 jb	 SHORT $LN503@SetShichik@3
  0096a	8b 00		 mov	 eax, DWORD PTR [eax]
$LN503@SetShichik@3:
  0096c	50		 push	 eax
  0096d	8d 8d c4 fe ff
	ff		 lea	 ecx, DWORD PTR _kFireTime$662848[ebp+48]
  00973	ff 15 00 00 00
	00		 call	 DWORD PTR __imp_??4ioHashString@@QAEAAV0@PBD@Z
$LN6@SetShichik@3:

; 1107 : 					}
; 1108 : 				}

  00979	8d 8d f0 fe ff
	ff		 lea	 ecx, DWORD PTR _szTypeName$662857[ebp]
  0097f	c6 45 fc 04	 mov	 BYTE PTR __$EHRec$[ebp+8], 4
  00983	ff 15 00 00 00
	00		 call	 DWORD PTR __imp_??1ioHashString@@QAE@XZ
$LN802@SetShichik@3:
  00989	33 f6		 xor	 esi, esi
$LN7@SetShichik@3:

; 1109 : 			}
; 1110 : 
; 1111 : 			kFireTime.eFireTimeType = FTT_DUMMY_CHAR_ATTACK;
; 1112 : 			kFireTime.m_iExtraValue = m_iCreateIndex;

  0098b	8b 83 dc 01 00
	00		 mov	 eax, DWORD PTR [ebx+476]

; 1113 : 
; 1114 : 			m_vAttackFireTimeList.push_back( kFireTime );

  00991	8d 8b 78 05 00
	00		 lea	 ecx, DWORD PTR [ebx+1400]
  00997	8d 95 94 fe ff
	ff		 lea	 edx, DWORD PTR _kFireTime$662848[ebp]
  0099d	89 85 e8 fe ff
	ff		 mov	 DWORD PTR _kFireTime$662848[ebp+84], eax
  009a3	8b 01		 mov	 eax, DWORD PTR [ecx]
  009a5	52		 push	 edx
  009a6	50		 push	 eax
  009a7	c7 85 d4 fe ff
	ff 0b 00 00 00	 mov	 DWORD PTR _kFireTime$662848[ebp+64], 11 ; 0000000bH
  009b1	e8 00 00 00 00	 call	 ?_Insert@?$list@UFireTime@@V?$allocator@UFireTime@@@std@@@std@@QAEXV?$_List_const_iterator@V?$_List_val@UFireTime@@V?$allocator@UFireTime@@@std@@@std@@@2@ABUFireTime@@@Z ; std::list<FireTime,std::allocator<FireTime> >::_Insert

; 1115 : 		}

  009b6	8d 8d 94 fe ff
	ff		 lea	 ecx, DWORD PTR _kFireTime$662848[ebp]
  009bc	c6 45 fc 02	 mov	 BYTE PTR __$EHRec$[ebp+8], 2
  009c0	e8 00 00 00 00	 call	 ??1FireTime@@QAE@XZ
  009c5	83 85 4c ff ff
	ff 04		 add	 DWORD PTR _iter$662835[ebp], 4
  009cc	8b 85 4c ff ff
	ff		 mov	 eax, DWORD PTR _iter$662835[ebp]
  009d2	ff 85 24 ff ff
	ff		 inc	 DWORD PTR _i$662834[ebp]
  009d8	83 85 38 ff ff
	ff 28		 add	 DWORD PTR tv5503[ebp], 40 ; 00000028H
  009df	3b 85 2c ff ff
	ff		 cmp	 eax, DWORD PTR _vFireStartList$662825[ebp+4]
  009e5	0f 85 a7 fd ff
	ff		 jne	 $LN12@SetShichik@3
$LN10@SetShichik@3:

; 1116 : 
; 1117 : 		SetReservedSliding( rkCurAttribute.m_vForceInfoList, iAniID, fAniRate, rkCurAttribute.m_dwPreDelay );

  009eb	f3 0f 10 85 48
	ff ff ff	 movss	 xmm0, DWORD PTR _fAniRate$662818[ebp]
  009f3	6a 01		 push	 1
  009f5	ff 77 48	 push	 DWORD PTR [edi+72]
  009f8	83 c7 38	 add	 edi, 56			; 00000038H
  009fb	51		 push	 ecx
  009fc	f3 0f 11 04 24	 movss	 DWORD PTR [esp], xmm0
  00a01	ff b5 58 ff ff
	ff		 push	 DWORD PTR _iAniID$[ebp]
  00a07	8b cb		 mov	 ecx, ebx
  00a09	57		 push	 edi
  00a0a	e8 00 00 00 00	 call	 ?SetReservedSliding@ioDummyChar@@QAEXABV?$vector@UForceInfo@@V?$allocator@UForceInfo@@@std@@@std@@HMK_N@Z ; ioDummyChar::SetReservedSliding

; 1118 : 		//  
; 1119 : 
; 1120 : 		m_dwExtraAniJumpTime = 0;
; 1121 : 		m_fExtraAniJumpPower = 0.0f;

  00a0f	0f 57 c0	 xorps	 xmm0, xmm0
  00a12	89 b3 2c 0b 00
	00		 mov	 DWORD PTR [ebx+2860], esi
  00a18	f3 0f 11 83 30
	0b 00 00	 movss	 DWORD PTR [ebx+2864], xmm0

; 1122 : 		m_vExtraAniJumpList.clear();

  00a20	8b 83 3c 0b 00
	00		 mov	 eax, DWORD PTR [ebx+2876]
  00a26	8b 8b 38 0b 00
	00		 mov	 ecx, DWORD PTR [ebx+2872]
  00a2c	50		 push	 eax
  00a2d	51		 push	 ecx
  00a2e	8d 85 5c ff ff
	ff		 lea	 eax, DWORD PTR $T683468[ebp]
  00a34	50		 push	 eax
  00a35	8d 8b 38 0b 00
	00		 lea	 ecx, DWORD PTR [ebx+2872]
  00a3b	e8 00 00 00 00	 call	 ?erase@?$vector@UExtraAniJump@@V?$allocator@UExtraAniJump@@@std@@@std@@QAE?AV?$_Vector_iterator@V?$_Vector_val@UExtraAniJump@@V?$allocator@UExtraAniJump@@@std@@@std@@@2@V?$_Vector_const_iterator@V?$_Vector_val@UExtraAniJump@@V?$allocator@UExtraAniJump@@@std@@@std@@@2@0@Z ; std::vector<ExtraAniJump,std::allocator<ExtraAniJump> >::erase

; 1123 : 
; 1124 : 		AniEventConstPtrList vExtraAniJumpList;

  00a40	89 b5 10 ff ff
	ff		 mov	 DWORD PTR _vExtraAniJumpList$662859[ebp], esi
  00a46	89 b5 14 ff ff
	ff		 mov	 DWORD PTR _vExtraAniJumpList$662859[ebp+4], esi
  00a4c	89 b5 18 ff ff
	ff		 mov	 DWORD PTR _vExtraAniJumpList$662859[ebp+8], esi

; 1125 : 		m_pGroup->GetAnimationEventConstPtrList_e( iAniID, "extra_ani_jump", vExtraAniJumpList );

  00a52	8b 43 04	 mov	 eax, DWORD PTR [ebx+4]
  00a55	6a 03		 push	 3
  00a57	89 85 5c ff ff
	ff		 mov	 DWORD PTR $T683641[ebp], eax
  00a5d	c6 45 fc 08	 mov	 BYTE PTR __$EHRec$[ebp+8], 8
  00a61	c7 45 c4 88 94
	9f 98		 mov	 DWORD PTR _szEncEventType$683529[ebp], -1734372216 ; 989f9488H
  00a68	c7 45 c8 8c b3
	8a 84		 mov	 DWORD PTR _szEncEventType$683529[ebp+4], -2071284852 ; 848ab38cH
  00a6f	c7 45 cc 84 b3
	81 9f		 mov	 DWORD PTR _szEncEventType$683529[ebp+8], -1618889852 ; 9f81b384H
  00a76	66 c7 45 d0 80
	9c		 mov	 WORD PTR _szEncEventType$683529[ebp+12], 40064 ; 00009c80H
  00a7c	8d 45 c4	 lea	 eax, DWORD PTR _szEncEventType$683529[ebp]
  00a7f	c6 45 d2 00	 mov	 BYTE PTR _szEncEventType$683529[ebp+14], 0
  00a83	59		 pop	 ecx
$LL647@SetShichik@3:
  00a84	81 30 ed ec eb
	ea		 xor	 DWORD PTR [eax], -353637139 ; eaebecedH
  00a8a	83 c0 04	 add	 eax, 4
  00a8d	49		 dec	 ecx
  00a8e	75 f4		 jne	 SHORT $LL647@SetShichik@3
  00a90	6a 0c		 push	 12			; 0000000cH
  00a92	58		 pop	 eax
$LL644@SetShichik@3:
  00a93	8b c8		 mov	 ecx, eax
  00a95	81 e1 03 00 00
	80		 and	 ecx, -2147483645	; 80000003H
  00a9b	79 05		 jns	 SHORT $LN819@SetShichik@3
  00a9d	49		 dec	 ecx
  00a9e	83 c9 fc	 or	 ecx, -4			; fffffffcH
  00aa1	41		 inc	 ecx
$LN819@SetShichik@3:
  00aa2	b2 ed		 mov	 dl, -19			; ffffffedH
  00aa4	2a d1		 sub	 dl, cl
  00aa6	30 54 05 c4	 xor	 BYTE PTR _szEncEventType$683529[ebp+eax], dl
  00aaa	40		 inc	 eax
  00aab	83 f8 0e	 cmp	 eax, 14			; 0000000eH
  00aae	7c e3		 jl	 SHORT $LL644@SetShichik@3
  00ab0	8d 45 c4	 lea	 eax, DWORD PTR _szEncEventType$683529[ebp]
  00ab3	50		 push	 eax
  00ab4	8d 8d f0 fe ff
	ff		 lea	 ecx, DWORD PTR $T683629[ebp]
  00aba	ff 15 00 00 00
	00		 call	 DWORD PTR __imp_??0ioHashString@@QAE@PBD@Z
  00ac0	8b 8d 5c ff ff
	ff		 mov	 ecx, DWORD PTR $T683641[ebp]
  00ac6	8d 85 10 ff ff
	ff		 lea	 eax, DWORD PTR _vExtraAniJumpList$662859[ebp]
  00acc	50		 push	 eax
  00acd	8d 85 f0 fe ff
	ff		 lea	 eax, DWORD PTR $T683629[ebp]
  00ad3	50		 push	 eax
  00ad4	ff b5 58 ff ff
	ff		 push	 DWORD PTR _iAniID$[ebp]
  00ada	c6 45 fc 09	 mov	 BYTE PTR __$EHRec$[ebp+8], 9
  00ade	ff 15 00 00 00
	00		 call	 DWORD PTR __imp_?GetAnimationEventConstPtrList@ioEntityGroup@@QAEHHABVioHashString@@AAV?$vector@PBUAniEventTime@@V?$allocator@PBUAniEventTime@@@std@@@std@@@Z
  00ae4	8d 8d f0 fe ff
	ff		 lea	 ecx, DWORD PTR $T683629[ebp]
  00aea	c6 45 fc 08	 mov	 BYTE PTR __$EHRec$[ebp+8], 8
  00aee	ff 15 00 00 00
	00		 call	 DWORD PTR __imp_??1ioHashString@@QAE@XZ

; 1126 : 
; 1127 : 		AniEventConstPtrList::iterator iter_event = vExtraAniJumpList.begin();

  00af4	8b 85 10 ff ff
	ff		 mov	 eax, DWORD PTR _vExtraAniJumpList$662859[ebp]
  00afa	89 85 58 ff ff
	ff		 mov	 DWORD PTR _iter_event$662860[ebp], eax
  00b00	e9 2e 01 00 00	 jmp	 $LN822@SetShichik@3
$LN5@SetShichik@3:

; 1129 : 		{
; 1130 : 			ExtraAniJump kInfo;
; 1131 : 
; 1132 : 			kInfo.m_dwTime = (*iter_event)->fEventTime * fAniRate;

  00b05	8b 85 58 ff ff
	ff		 mov	 eax, DWORD PTR _iter_event$662860[ebp]
  00b0b	8b 00		 mov	 eax, DWORD PTR [eax]

; 1133 : 			kInfo.m_dwTime += dwCurTime;

  00b0d	d9 00		 fld	 DWORD PTR [eax]
  00b0f	0f 57 c0	 xorps	 xmm0, xmm0
  00b12	d8 8d 48 ff ff
	ff		 fmul	 DWORD PTR _fAniRate$662818[ebp]
  00b18	f3 0f 11 85 54
	ff ff ff	 movss	 DWORD PTR _kInfo$662866[ebp+4], xmm0
  00b20	e8 00 00 00 00	 call	 __ftol2
  00b25	03 85 ec fe ff
	ff		 add	 eax, DWORD PTR _dwCurTime$[ebp]
  00b2b	89 85 50 ff ff
	ff		 mov	 DWORD PTR _kInfo$662866[ebp], eax

; 1134 : 
; 1135 : 			if( !(*iter_event)->szSubInfo.IsEmpty() )

  00b31	8b 85 58 ff ff
	ff		 mov	 eax, DWORD PTR _iter_event$662860[ebp]
  00b37	8b 08		 mov	 ecx, DWORD PTR [eax]
  00b39	8d 49 14	 lea	 ecx, DWORD PTR [ecx+20]
  00b3c	ff 15 00 00 00
	00		 call	 DWORD PTR __imp_?IsEmpty@ioHashString@@QBE_NXZ
  00b42	84 c0		 test	 al, al
  00b44	0f 85 ca 00 00
	00		 jne	 $LN2@SetShichik@3

; 1136 : 			{
; 1137 : 				const StringVector &vParam = ioStringConverter::Split( (*iter_event)->szSubInfo.c_str(), " " );

  00b4a	6a 01		 push	 1
  00b4c	68 00 00 00 00	 push	 OFFSET ??_C@_01CLKCMJKC@?5?$AA@
  00b51	8d 8d 60 ff ff
	ff		 lea	 ecx, DWORD PTR $T662869[ebp]
  00b57	c7 85 74 ff ff
	ff 0f 00 00 00	 mov	 DWORD PTR $T662869[ebp+20], 15 ; 0000000fH
  00b61	89 b5 70 ff ff
	ff		 mov	 DWORD PTR $T662869[ebp+16], esi
  00b67	88 85 60 ff ff
	ff		 mov	 BYTE PTR $T662869[ebp], al
  00b6d	e8 00 00 00 00	 call	 ?assign@?$basic_string@DU?$char_traits@D@std@@V?$allocator@D@2@@std@@QAEAAV12@PBDI@Z ; std::basic_string<char,std::char_traits<char>,std::allocator<char> >::assign
  00b72	8b 85 58 ff ff
	ff		 mov	 eax, DWORD PTR _iter_event$662860[ebp]
  00b78	8b 08		 mov	 ecx, DWORD PTR [eax]
  00b7a	83 c1 14	 add	 ecx, 20			; 00000014H
  00b7d	c6 45 fc 0a	 mov	 BYTE PTR __$EHRec$[ebp+8], 10 ; 0000000aH
  00b81	ff 15 00 00 00
	00		 call	 DWORD PTR __imp_?c_str@ioHashString@@QBEPBDXZ
  00b87	50		 push	 eax
  00b88	8d 4d 88	 lea	 ecx, DWORD PTR $T662870[ebp]
  00b8b	c7 45 9c 0f 00
	00 00		 mov	 DWORD PTR $T662870[ebp+20], 15 ; 0000000fH
  00b92	89 75 98	 mov	 DWORD PTR $T662870[ebp+16], esi
  00b95	c6 45 88 00	 mov	 BYTE PTR $T662870[ebp], 0
  00b99	e8 00 00 00 00	 call	 ?assign@?$basic_string@DU?$char_traits@D@std@@V?$allocator@D@2@@std@@QAEAAV12@PBD@Z ; std::basic_string<char,std::char_traits<char>,std::allocator<char> >::assign
  00b9e	56		 push	 esi
  00b9f	8d 85 60 ff ff
	ff		 lea	 eax, DWORD PTR $T662869[ebp]
  00ba5	50		 push	 eax
  00ba6	8d 45 88	 lea	 eax, DWORD PTR $T662870[ebp]
  00ba9	50		 push	 eax
  00baa	c6 45 fc 0b	 mov	 BYTE PTR __$EHRec$[ebp+8], 11 ; 0000000bH
  00bae	ff 15 00 00 00
	00		 call	 DWORD PTR __imp_?Split@ioStringConverter@@SAABV?$vector@V?$basic_string@DU?$char_traits@D@std@@V?$allocator@D@2@@std@@V?$allocator@V?$basic_string@DU?$char_traits@D@std@@V?$allocator@D@2@@std@@@2@@std@@ABV?$basic_string@DU?$char_traits@D@std@@V?$allocator@D@2@@3@0H@Z
  00bb4	83 c4 0c	 add	 esp, 12			; 0000000cH
  00bb7	56		 push	 esi
  00bb8	6a 01		 push	 1
  00bba	8d 4d 88	 lea	 ecx, DWORD PTR $T662870[ebp]
  00bbd	89 85 5c ff ff
	ff		 mov	 DWORD PTR _vParam$662868[ebp], eax
  00bc3	e8 00 00 00 00	 call	 ?_Tidy@?$basic_string@DU?$char_traits@D@std@@V?$allocator@D@2@@std@@QAEX_NI@Z ; std::basic_string<char,std::char_traits<char>,std::allocator<char> >::_Tidy
  00bc8	56		 push	 esi
  00bc9	6a 01		 push	 1
  00bcb	8d 8d 60 ff ff
	ff		 lea	 ecx, DWORD PTR $T662869[ebp]
  00bd1	c6 45 fc 08	 mov	 BYTE PTR __$EHRec$[ebp+8], 8
  00bd5	e8 00 00 00 00	 call	 ?_Tidy@?$basic_string@DU?$char_traits@D@std@@V?$allocator@D@2@@std@@QAEX_NI@Z ; std::basic_string<char,std::char_traits<char>,std::allocator<char> >::_Tidy

; 1138 : 				if( vParam.size() == 1 )

  00bda	8b 85 5c ff ff
	ff		 mov	 eax, DWORD PTR _vParam$662868[ebp]
  00be0	8b 08		 mov	 ecx, DWORD PTR [eax]
  00be2	8b 40 04	 mov	 eax, DWORD PTR [eax+4]
  00be5	2b c1		 sub	 eax, ecx
  00be7	6a 1c		 push	 28			; 0000001cH
  00be9	89 8d 5c ff ff
	ff		 mov	 DWORD PTR tv4844[ebp], ecx
  00bef	99		 cdq
  00bf0	59		 pop	 ecx
  00bf1	f7 f9		 idiv	 ecx
  00bf3	83 f8 01	 cmp	 eax, 1
  00bf6	75 1c		 jne	 SHORT $LN2@SetShichik@3

; 1139 : 				{
; 1140 : 					kInfo.m_fPower = ioStringConverter::ParseFloat( vParam[0].c_str() );

  00bf8	8b 85 5c ff ff
	ff		 mov	 eax, DWORD PTR tv4844[ebp]
  00bfe	83 78 14 10	 cmp	 DWORD PTR [eax+20], 16	; 00000010H
  00c02	72 02		 jb	 SHORT $LN758@SetShichik@3
  00c04	8b 00		 mov	 eax, DWORD PTR [eax]
$LN758@SetShichik@3:
  00c06	50		 push	 eax
  00c07	ff 15 00 00 00
	00		 call	 DWORD PTR __imp_?ParseFloat@ioStringConverter@@SAMPBD@Z
  00c0d	d9 9d 54 ff ff
	ff		 fstp	 DWORD PTR _kInfo$662866[ebp+4]
  00c13	59		 pop	 ecx
$LN2@SetShichik@3:

; 1141 : 				}
; 1142 : 			}
; 1143 : 
; 1144 : 			m_vExtraAniJumpList.push_back(kInfo);

  00c14	8d 85 50 ff ff
	ff		 lea	 eax, DWORD PTR _kInfo$662866[ebp]
  00c1a	50		 push	 eax
  00c1b	8d 8b 38 0b 00
	00		 lea	 ecx, DWORD PTR [ebx+2872]
  00c21	e8 00 00 00 00	 call	 ?push_back@?$vector@UExtraAniJump@@V?$allocator@UExtraAniJump@@@std@@@std@@QAEXABUExtraAniJump@@@Z ; std::vector<ExtraAniJump,std::allocator<ExtraAniJump> >::push_back

; 1145 : 
; 1146 : 			++iter_event;

  00c26	83 85 58 ff ff
	ff 04		 add	 DWORD PTR _iter_event$662860[ebp], 4
  00c2d	8b 85 58 ff ff
	ff		 mov	 eax, DWORD PTR _iter_event$662860[ebp]
$LN822@SetShichik@3:

; 1128 : 		while( iter_event != vExtraAniJumpList.end() )

  00c33	3b 85 14 ff ff
	ff		 cmp	 eax, DWORD PTR _vExtraAniJumpList$662859[ebp+4]
  00c39	0f 85 c6 fe ff
	ff		 jne	 $LN5@SetShichik@3

; 1147 : 		}
; 1148 : 
; 1149 : 		if( !m_vExtraAniJumpList.empty() )

  00c3f	8b 83 38 0b 00
	00		 mov	 eax, DWORD PTR [ebx+2872]
  00c45	3b 83 3c 0b 00
	00		 cmp	 eax, DWORD PTR [ebx+2876]
  00c4b	74 1d		 je	 SHORT $LN1@SetShichik@3

; 1150 : 		{
; 1151 : 			m_iCurExtraAniJump = 0;
; 1152 : 			m_dwExtraAniJumpTime = m_vExtraAniJumpList[m_iCurExtraAniJump].m_dwTime;

  00c4d	8b bb 38 0b 00
	00		 mov	 edi, DWORD PTR [ebx+2872]
  00c53	89 b3 34 0b 00
	00		 mov	 DWORD PTR [ebx+2868], esi
  00c59	8b 07		 mov	 eax, DWORD PTR [edi]
  00c5b	89 83 2c 0b 00
	00		 mov	 DWORD PTR [ebx+2860], eax

; 1153 : 			m_fExtraAniJumpPower = m_vExtraAniJumpList[m_iCurExtraAniJump].m_fPower;

  00c61	d9 47 04	 fld	 DWORD PTR [edi+4]
  00c64	d9 9b 30 0b 00
	00		 fstp	 DWORD PTR [ebx+2864]
$LN1@SetShichik@3:

; 1154 : 		}
; 1155 : 	}

  00c6a	8d 8d 10 ff ff
	ff		 lea	 ecx, DWORD PTR _vExtraAniJumpList$662859[ebp]
  00c70	c6 45 fc 02	 mov	 BYTE PTR __$EHRec$[ebp+8], 2
  00c74	e8 00 00 00 00	 call	 ?_Tidy@?$vector@PBUAniEventTime@@V?$allocator@PBUAniEventTime@@@std@@@std@@IAEXXZ ; std::vector<AniEventTime const *,std::allocator<AniEventTime const *> >::_Tidy
$LN821@SetShichik@3:
  00c79	8d 8d 3c ff ff
	ff		 lea	 ecx, DWORD PTR _vFireEndList$662830[ebp]
  00c7f	e8 00 00 00 00	 call	 ?clear@?$list@MV?$allocator@M@std@@@std@@QAEXXZ ; std::list<float,std::allocator<float> >::clear
  00c84	ff b5 3c ff ff
	ff		 push	 DWORD PTR _vFireEndList$662830[ebp]
  00c8a	e8 00 00 00 00	 call	 ??3@YAXPAX@Z		; operator delete
  00c8f	83 4d fc ff	 or	 DWORD PTR __$EHRec$[ebp+8], -1
  00c93	59		 pop	 ecx
  00c94	8d 8d 28 ff ff
	ff		 lea	 ecx, DWORD PTR _vFireStartList$662825[ebp]
  00c9a	e8 00 00 00 00	 call	 ?_Tidy@?$vector@PBUAniEventTime@@V?$allocator@PBUAniEventTime@@@std@@@std@@IAEXXZ ; std::vector<AniEventTime const *,std::allocator<AniEventTime const *> >::_Tidy
$LN782@SetShichik@3:

; 1156 : }

  00c9f	e8 00 00 00 00	 call	 __EH_epilog3_GS
  00ca4	c2 08 00	 ret	 8
_TEXT	ENDS
;	COMDAT text$x
text$x	SEGMENT
__unwindfunclet$?SetShichikapuArmState@ioMamaHahaDummy@@IAEXABUAttackAttribute@@W4DummySubUseType@@@Z$0:
  00000	8d 8d 28 ff ff
	ff		 lea	 ecx, DWORD PTR _vFireStartList$662825[ebp]
  00006	e9 00 00 00 00	 jmp	 ??1?$vector@PBUAniEventTime@@V?$allocator@PBUAniEventTime@@@std@@@std@@QAE@XZ ; std::vector<AniEventTime const *,std::allocator<AniEventTime const *> >::~vector<AniEventTime const *,std::allocator<AniEventTime const *> >
__unwindfunclet$?SetShichikapuArmState@ioMamaHahaDummy@@IAEXABUAttackAttribute@@W4DummySubUseType@@@Z$9:
  0000b	8d 8d f0 fe ff
	ff		 lea	 ecx, DWORD PTR $T682572[ebp]
  00011	ff 25 00 00 00
	00		 jmp	 DWORD PTR __imp_??1ioHashString@@QAE@XZ
__unwindfunclet$?SetShichikapuArmState@ioMamaHahaDummy@@IAEXABUAttackAttribute@@W4DummySubUseType@@@Z$1:
  00017	8d 8d 3c ff ff
	ff		 lea	 ecx, DWORD PTR _vFireEndList$662830[ebp]
  0001d	e9 00 00 00 00	 jmp	 ??1?$list@MV?$allocator@M@std@@@std@@QAE@XZ ; std::list<float,std::allocator<float> >::~list<float,std::allocator<float> >
__unwindfunclet$?SetShichikapuArmState@ioMamaHahaDummy@@IAEXABUAttackAttribute@@W4DummySubUseType@@@Z$11:
  00022	8d 8d f0 fe ff
	ff		 lea	 ecx, DWORD PTR $T682811[ebp]
  00028	ff 25 00 00 00
	00		 jmp	 DWORD PTR __imp_??1ioHashString@@QAE@XZ
__unwindfunclet$?SetShichikapuArmState@ioMamaHahaDummy@@IAEXABUAttackAttribute@@W4DummySubUseType@@@Z$2:
  0002e	8d 8d 94 fe ff
	ff		 lea	 ecx, DWORD PTR _kFireTime$662848[ebp]
  00034	e9 00 00 00 00	 jmp	 ??1FireTime@@QAE@XZ
__unwindfunclet$?SetShichikapuArmState@ioMamaHahaDummy@@IAEXABUAttackAttribute@@W4DummySubUseType@@@Z$3:
  00039	8d 4d 88	 lea	 ecx, DWORD PTR $T662854[ebp]
  0003c	e9 00 00 00 00	 jmp	 ??1?$basic_string@DU?$char_traits@D@std@@V?$allocator@D@2@@std@@QAE@XZ ; std::basic_string<char,std::char_traits<char>,std::allocator<char> >::~basic_string<char,std::char_traits<char>,std::allocator<char> >
__unwindfunclet$?SetShichikapuArmState@ioMamaHahaDummy@@IAEXABUAttackAttribute@@W4DummySubUseType@@@Z$4:
  00041	8d 4d bc	 lea	 ecx, DWORD PTR $T662855[ebp]
  00044	e9 00 00 00 00	 jmp	 ??1?$basic_string@DU?$char_traits@D@std@@V?$allocator@D@2@@std@@QAE@XZ ; std::basic_string<char,std::char_traits<char>,std::allocator<char> >::~basic_string<char,std::char_traits<char>,std::allocator<char> >
__unwindfunclet$?SetShichikapuArmState@ioMamaHahaDummy@@IAEXABUAttackAttribute@@W4DummySubUseType@@@Z$5:
  00049	8d 8d f0 fe ff
	ff		 lea	 ecx, DWORD PTR _szTypeName$662857[ebp]
  0004f	ff 25 00 00 00
	00		 jmp	 DWORD PTR __imp_??1ioHashString@@QAE@XZ
__unwindfunclet$?SetShichikapuArmState@ioMamaHahaDummy@@IAEXABUAttackAttribute@@W4DummySubUseType@@@Z$6:
  00055	8d 8d 10 ff ff
	ff		 lea	 ecx, DWORD PTR _vExtraAniJumpList$662859[ebp]
  0005b	e9 00 00 00 00	 jmp	 ??1?$vector@PBUAniEventTime@@V?$allocator@PBUAniEventTime@@@std@@@std@@QAE@XZ ; std::vector<AniEventTime const *,std::allocator<AniEventTime const *> >::~vector<AniEventTime const *,std::allocator<AniEventTime const *> >
__unwindfunclet$?SetShichikapuArmState@ioMamaHahaDummy@@IAEXABUAttackAttribute@@W4DummySubUseType@@@Z$12:
  00060	8d 8d f0 fe ff
	ff		 lea	 ecx, DWORD PTR $T683629[ebp]
  00066	ff 25 00 00 00
	00		 jmp	 DWORD PTR __imp_??1ioHashString@@QAE@XZ
__unwindfunclet$?SetShichikapuArmState@ioMamaHahaDummy@@IAEXABUAttackAttribute@@W4DummySubUseType@@@Z$7:
  0006c	8d 8d 60 ff ff
	ff		 lea	 ecx, DWORD PTR $T662869[ebp]
  00072	e9 00 00 00 00	 jmp	 ??1?$basic_string@DU?$char_traits@D@std@@V?$allocator@D@2@@std@@QAE@XZ ; std::basic_string<char,std::char_traits<char>,std::allocator<char> >::~basic_string<char,std::char_traits<char>,std::allocator<char> >
__unwindfunclet$?SetShichikapuArmState@ioMamaHahaDummy@@IAEXABUAttackAttribute@@W4DummySubUseType@@@Z$8:
  00077	8d 4d 88	 lea	 ecx, DWORD PTR $T662870[ebp]
  0007a	e9 00 00 00 00	 jmp	 ??1?$basic_string@DU?$char_traits@D@std@@V?$allocator@D@2@@std@@QAE@XZ ; std::basic_string<char,std::char_traits<char>,std::allocator<char> >::~basic_string<char,std::char_traits<char>,std::allocator<char> >
__ehhandler$?SetShichikapuArmState@ioMamaHahaDummy@@IAEXABUAttackAttribute@@W4DummySubUseType@@@Z:
  0007f	8b 54 24 08	 mov	 edx, DWORD PTR [esp+8]
  00083	8d 42 0c	 lea	 eax, DWORD PTR [edx+12]
  00086	8b 8a 90 fe ff
	ff		 mov	 ecx, DWORD PTR [edx-368]
  0008c	33 c8		 xor	 ecx, eax
  0008e	e8 00 00 00 00	 call	 @__security_check_cookie@4
  00093	8b 4a fc	 mov	 ecx, DWORD PTR [edx-4]
  00096	33 c8		 xor	 ecx, eax
  00098	e8 00 00 00 00	 call	 @__security_check_cookie@4
  0009d	b8 00 00 00 00	 mov	 eax, OFFSET __ehfuncinfo$?SetShichikapuArmState@ioMamaHahaDummy@@IAEXABUAttackAttribute@@W4DummySubUseType@@@Z
  000a2	e9 00 00 00 00	 jmp	 ___CxxFrameHandler3
text$x	ENDS
?SetShichikapuArmState@ioMamaHahaDummy@@IAEXABUAttackAttribute@@W4DummySubUseType@@@Z ENDP ; ioMamaHahaDummy::SetShichikapuArmState
; Function compile flags: /Ogsp
;	COMDAT ?SetAttackState@ioMamaHahaDummy@@UAEXXZ
_TEXT	SEGMENT
_iter$ = -4						; size = 4
?SetAttackState@ioMamaHahaDummy@@UAEXXZ PROC		; ioMamaHahaDummy::SetAttackState, COMDAT
; _this$ = ecx

; 511  : {

  00000	55		 push	 ebp
  00001	8b ec		 mov	 ebp, esp
  00003	51		 push	 ecx
  00004	53		 push	 ebx
  00005	56		 push	 esi
  00006	8b f1		 mov	 esi, ecx

; 512  : 	m_vAttackFireTimeList.clear();

  00008	8d 8e 78 05 00
	00		 lea	 ecx, DWORD PTR [esi+1400]
  0000e	e8 00 00 00 00	 call	 ?clear@?$list@UFireTime@@V?$allocator@UFireTime@@@std@@@std@@QAEXXZ ; std::list<FireTime,std::allocator<FireTime> >::clear

; 513  : 	m_dwAttackKeyCheckTime = 0;

  00013	33 db		 xor	 ebx, ebx

; 514  : 
; 515  : 	ioBaseChar *pOwner = GetOwner();

  00015	8b ce		 mov	 ecx, esi
  00017	89 9e 60 0d 00
	00		 mov	 DWORD PTR [esi+3424], ebx
  0001d	e8 00 00 00 00	 call	 ?GetOwner@ioDummyChar@@QBEPAVioBaseChar@@XZ ; ioDummyChar::GetOwner

; 516  : 	if( !pOwner ) return;

  00022	85 c0		 test	 eax, eax
  00024	74 65		 je	 SHORT $LN9@SetAttackS

; 517  : 
; 518  : 	DummyAttackMap::iterator iter = m_DummyAttackMap.find( m_iReserveAttackCode );

  00026	57		 push	 edi
  00027	8d be 74 05 00
	00		 lea	 edi, DWORD PTR [esi+1396]
  0002d	57		 push	 edi
  0002e	8d 45 fc	 lea	 eax, DWORD PTR _iter$[ebp]
  00031	50		 push	 eax
  00032	8d 8e 64 05 00
	00		 lea	 ecx, DWORD PTR [esi+1380]
  00038	e8 00 00 00 00	 call	 ?find@?$_Tree@V?$_Tmap_traits@HUtagDummyAttackInfo@@U?$less@H@std@@V?$allocator@U?$pair@$$CBHUtagDummyAttackInfo@@@std@@@3@$0A@@std@@@std@@QAE?AV?$_Tree_iterator@V?$_Tree_val@V?$_Tmap_traits@HUtagDummyAttackInfo@@U?$less@H@std@@V?$allocator@U?$pair@$$CBHUtagDummyAttackInfo@@@std@@@3@$0A@@std@@@std@@@2@ABH@Z ; std::_Tree<std::_Tmap_traits<int,tagDummyAttackInfo,std::less<int>,std::allocator<std::pair<int const ,tagDummyAttackInfo> >,0> >::find

; 519  : 	if( iter == m_DummyAttackMap.end() )

  0003d	8b 45 fc	 mov	 eax, DWORD PTR _iter$[ebp]
  00040	3b 86 68 05 00
	00		 cmp	 eax, DWORD PTR [esi+1384]

; 520  : 	{
; 521  : 		m_iReserveAttackCode = 0;
; 522  : 		return;

  00046	74 40		 je	 SHORT $LN5@SetAttackS

; 523  : 	}
; 524  : 
; 525  : 	AttackAttribute &rkCurAttribute = iter->second.m_AttackAttribute;

  00048	8d 48 14	 lea	 ecx, DWORD PTR [eax+20]

; 526  : 	int iSubType = iter->second.m_iSubUseType;

  0004b	8b 40 10	 mov	 eax, DWORD PTR [eax+16]

; 527  : 
; 528  : 	switch( iSubType )

  0004e	2b c3		 sub	 eax, ebx
  00050	74 2d		 je	 SHORT $LN4@SetAttackS
  00052	48		 dec	 eax
  00053	74 1e		 je	 SHORT $LN3@SetAttackS
  00055	48		 dec	 eax
  00056	74 0f		 je	 SHORT $LN2@SetAttackS
  00058	48		 dec	 eax
  00059	75 2d		 jne	 SHORT $LN5@SetAttackS

; 539  : 	case DSUT_SHICHIKAPU_ARM:
; 540  : 		SetShichikapuArmState( rkCurAttribute, (DummySubUseType)iSubType );

  0005b	6a 03		 push	 3
  0005d	51		 push	 ecx
  0005e	8b ce		 mov	 ecx, esi
  00060	e8 00 00 00 00	 call	 ?SetShichikapuArmState@ioMamaHahaDummy@@IAEXABUAttackAttribute@@W4DummySubUseType@@@Z ; ioMamaHahaDummy::SetShichikapuArmState

; 541  : 		break;

  00065	eb 21		 jmp	 SHORT $LN5@SetAttackS
$LN2@SetAttackS:

; 536  : 	case DSUT_SHICHIKAPU_ETU:
; 537  : 		SetShichikapuEtuState( rkCurAttribute, (DummySubUseType)iSubType );

  00067	6a 02		 push	 2
  00069	51		 push	 ecx
  0006a	8b ce		 mov	 ecx, esi
  0006c	e8 00 00 00 00	 call	 ?SetShichikapuEtuState@ioMamaHahaDummy@@IAEXABUAttackAttribute@@W4DummySubUseType@@@Z ; ioMamaHahaDummy::SetShichikapuEtuState

; 538  : 		break;

  00071	eb 15		 jmp	 SHORT $LN5@SetAttackS
$LN3@SetAttackS:

; 532  : 		break;
; 533  : 	case DSUT_RERA_SHU:
; 534  : 		SetReraShuState( rkCurAttribute, (DummySubUseType)iSubType );

  00073	6a 01		 push	 1
  00075	51		 push	 ecx
  00076	8b ce		 mov	 ecx, esi
  00078	e8 00 00 00 00	 call	 ?SetReraShuState@ioMamaHahaDummy@@IAEXABUAttackAttribute@@W4DummySubUseType@@@Z ; ioMamaHahaDummy::SetReraShuState

; 535  : 		break;

  0007d	eb 09		 jmp	 SHORT $LN5@SetAttackS
$LN4@SetAttackS:

; 529  : 	{
; 530  : 	case DSUT_NONE:
; 531  : 		SetNormalAttackState( rkCurAttribute, (DummySubUseType)iSubType );

  0007f	53		 push	 ebx
  00080	51		 push	 ecx
  00081	8b ce		 mov	 ecx, esi
  00083	e8 00 00 00 00	 call	 ?SetNormalAttackState@ioMamaHahaDummy@@IAEXABUAttackAttribute@@W4DummySubUseType@@@Z ; ioMamaHahaDummy::SetNormalAttackState
$LN5@SetAttackS:

; 542  : 	}
; 543  : 
; 544  : 	m_iReserveAttackCode = 0;

  00088	89 1f		 mov	 DWORD PTR [edi], ebx
  0008a	5f		 pop	 edi
$LN9@SetAttackS:
  0008b	5e		 pop	 esi
  0008c	5b		 pop	 ebx

; 545  : }

  0008d	c9		 leave
  0008e	c3		 ret	 0
?SetAttackState@ioMamaHahaDummy@@UAEXXZ ENDP		; ioMamaHahaDummy::SetAttackState
_TEXT	ENDS
END
