; Listing generated by Microsoft (R) Optimizing Compiler Version 16.00.30319.01 

	TITLE	D:\Lost Saga For Developer\Youtube\Tutorial\Source\src\LSClient\ioMapCollisionHelper.cpp
	.686P
	.XMM
	include listing.inc
	.model	flat

INCLUDELIB MSVCRT
INCLUDELIB OLDNAMES

PUBLIC	?_EEM_DS@?$deque@UD3DXVECTOR3@@V?$allocator@UD3DXVECTOR3@@@std@@@std@@2HB ; std::deque<D3DXVECTOR3,std::allocator<D3DXVECTOR3> >::_EEM_DS
;	COMDAT ?_EEM_DS@?$deque@UD3DXVECTOR3@@V?$allocator@UD3DXVECTOR3@@@std@@@std@@2HB
CONST	SEGMENT
?_EEM_DS@?$deque@UD3DXVECTOR3@@V?$allocator@UD3DXVECTOR3@@@std@@@std@@2HB DD 01H ; std::deque<D3DXVECTOR3,std::allocator<D3DXVECTOR3> >::_EEM_DS
CONST	ENDS
PUBLIC	?return5@@YAIXZ					; return5
; Function compile flags: /Ogsp
; File d:\lost saga for developer\youtube\tutorial\source\src\lsclient\stdafx.h
;	COMDAT ?return5@@YAIXZ
_TEXT	SEGMENT
?return5@@YAIXZ PROC					; return5, COMDAT

; 18   : 	__forceinline unsigned int return5() { __asm mov eax, 5 };

  00000	b8 05 00 00 00	 mov	 eax, 5
  00005	c3		 ret	 0
?return5@@YAIXZ ENDP					; return5
_TEXT	ENDS
PUBLIC	?return10@@YAIXZ				; return10
; Function compile flags: /Ogsp
;	COMDAT ?return10@@YAIXZ
_TEXT	SEGMENT
?return10@@YAIXZ PROC					; return10, COMDAT

; 21   : 	__forceinline unsigned int return10() { __asm mov eax, 10 };

  00000	b8 0a 00 00 00	 mov	 eax, 10			; 0000000aH
  00005	c3		 ret	 0
?return10@@YAIXZ ENDP					; return10
_TEXT	ENDS
PUBLIC	_fabsf
EXTRN	__fltused:DWORD
; Function compile flags: /Ogsp
; File c:\program files (x86)\microsoft visual studio 10.0\vc\include\math.h
;	COMDAT _fabsf
_TEXT	SEGMENT
tv129 = 8						; size = 4
__X$ = 8						; size = 4
_fabsf	PROC						; COMDAT

; 395  :         {return ((float)fabs((double)_X)); }

  00000	55		 push	 ebp
  00001	8b ec		 mov	 ebp, esp
  00003	d9 45 08	 fld	 DWORD PTR __X$[ebp]
  00006	d9 e1		 fabs
  00008	d9 5d 08	 fstp	 DWORD PTR tv129[ebp]
  0000b	d9 45 08	 fld	 DWORD PTR tv129[ebp]
  0000e	5d		 pop	 ebp
  0000f	c3		 ret	 0
_fabsf	ENDP
_TEXT	ENDS
PUBLIC	_sqrtf
EXTRN	__CIsqrt:PROC
; Function compile flags: /Ogsp
;	COMDAT _sqrtf
_TEXT	SEGMENT
tv69 = 8						; size = 4
__X$ = 8						; size = 4
_sqrtf	PROC						; COMDAT

; 434  :         {return ((float)sqrt((double)_X)); }

  00000	55		 push	 ebp
  00001	8b ec		 mov	 ebp, esp
  00003	d9 45 08	 fld	 DWORD PTR __X$[ebp]
  00006	e8 00 00 00 00	 call	 __CIsqrt
  0000b	d9 5d 08	 fstp	 DWORD PTR tv69[ebp]
  0000e	d9 45 08	 fld	 DWORD PTR tv69[ebp]
  00011	5d		 pop	 ebp
  00012	c3		 ret	 0
_sqrtf	ENDP
_TEXT	ENDS
PUBLIC	??_7bad_alloc@std@@6B@				; std::bad_alloc::`vftable'
PUBLIC	??0bad_alloc@std@@QAE@PBD@Z			; std::bad_alloc::bad_alloc
PUBLIC	??_R4bad_alloc@std@@6B@				; std::bad_alloc::`RTTI Complete Object Locator'
PUBLIC	??_R0?AVbad_alloc@std@@@8			; std::bad_alloc `RTTI Type Descriptor'
PUBLIC	??_R3bad_alloc@std@@8				; std::bad_alloc::`RTTI Class Hierarchy Descriptor'
PUBLIC	??_R2bad_alloc@std@@8				; std::bad_alloc::`RTTI Base Class Array'
PUBLIC	??_R1A@?0A@EA@bad_alloc@std@@8			; std::bad_alloc::`RTTI Base Class Descriptor at (0,-1,0,64)'
PUBLIC	??_R1A@?0A@EA@exception@std@@8			; std::exception::`RTTI Base Class Descriptor at (0,-1,0,64)'
PUBLIC	??_R0?AVexception@std@@@8			; std::exception `RTTI Type Descriptor'
PUBLIC	??_R3exception@std@@8				; std::exception::`RTTI Class Hierarchy Descriptor'
PUBLIC	??_R2exception@std@@8				; std::exception::`RTTI Base Class Array'
EXTRN	__imp_??0exception@std@@QAE@ABQBD@Z:PROC
EXTRN	??_7type_info@@6B@:QWORD			; type_info::`vftable'
EXTRN	??_Ebad_alloc@std@@UAEPAXI@Z:PROC		; std::bad_alloc::`vector deleting destructor'
EXTRN	?what@exception@std@@UBEPBDXZ:PROC		; std::exception::what
;	COMDAT ??_R2exception@std@@8
; File c:\program files (x86)\microsoft visual studio 10.0\vc\include\exception
rdata$r	SEGMENT
??_R2exception@std@@8 DD FLAT:??_R1A@?0A@EA@exception@std@@8 ; std::exception::`RTTI Base Class Array'
rdata$r	ENDS
;	COMDAT ??_R3exception@std@@8
rdata$r	SEGMENT
??_R3exception@std@@8 DD 00H				; std::exception::`RTTI Class Hierarchy Descriptor'
	DD	00H
	DD	01H
	DD	FLAT:??_R2exception@std@@8
rdata$r	ENDS
;	COMDAT ??_R0?AVexception@std@@@8
_DATA	SEGMENT
??_R0?AVexception@std@@@8 DD FLAT:??_7type_info@@6B@	; std::exception `RTTI Type Descriptor'
	DD	00H
	DB	'.?AVexception@std@@', 00H
_DATA	ENDS
;	COMDAT ??_R1A@?0A@EA@exception@std@@8
rdata$r	SEGMENT
??_R1A@?0A@EA@exception@std@@8 DD FLAT:??_R0?AVexception@std@@@8 ; std::exception::`RTTI Base Class Descriptor at (0,-1,0,64)'
	DD	00H
	DD	00H
	DD	0ffffffffH
	DD	00H
	DD	040H
	DD	FLAT:??_R3exception@std@@8
rdata$r	ENDS
;	COMDAT ??_R1A@?0A@EA@bad_alloc@std@@8
rdata$r	SEGMENT
??_R1A@?0A@EA@bad_alloc@std@@8 DD FLAT:??_R0?AVbad_alloc@std@@@8 ; std::bad_alloc::`RTTI Base Class Descriptor at (0,-1,0,64)'
	DD	01H
	DD	00H
	DD	0ffffffffH
	DD	00H
	DD	040H
	DD	FLAT:??_R3bad_alloc@std@@8
rdata$r	ENDS
;	COMDAT ??_R2bad_alloc@std@@8
rdata$r	SEGMENT
??_R2bad_alloc@std@@8 DD FLAT:??_R1A@?0A@EA@bad_alloc@std@@8 ; std::bad_alloc::`RTTI Base Class Array'
	DD	FLAT:??_R1A@?0A@EA@exception@std@@8
rdata$r	ENDS
;	COMDAT ??_R3bad_alloc@std@@8
rdata$r	SEGMENT
??_R3bad_alloc@std@@8 DD 00H				; std::bad_alloc::`RTTI Class Hierarchy Descriptor'
	DD	00H
	DD	02H
	DD	FLAT:??_R2bad_alloc@std@@8
rdata$r	ENDS
;	COMDAT ??_R0?AVbad_alloc@std@@@8
_DATA	SEGMENT
??_R0?AVbad_alloc@std@@@8 DD FLAT:??_7type_info@@6B@	; std::bad_alloc `RTTI Type Descriptor'
	DD	00H
	DB	'.?AVbad_alloc@std@@', 00H
_DATA	ENDS
;	COMDAT ??_R4bad_alloc@std@@6B@
rdata$r	SEGMENT
??_R4bad_alloc@std@@6B@ DD 00H				; std::bad_alloc::`RTTI Complete Object Locator'
	DD	00H
	DD	00H
	DD	FLAT:??_R0?AVbad_alloc@std@@@8
	DD	FLAT:??_R3bad_alloc@std@@8
rdata$r	ENDS
;	COMDAT ??_7bad_alloc@std@@6B@
CONST	SEGMENT
??_7bad_alloc@std@@6B@ DD FLAT:??_R4bad_alloc@std@@6B@	; std::bad_alloc::`vftable'
	DD	FLAT:??_Ebad_alloc@std@@UAEPAXI@Z
	DD	FLAT:?what@exception@std@@UBEPBDXZ
; Function compile flags: /Ogsp
CONST	ENDS
;	COMDAT ??0bad_alloc@std@@QAE@PBD@Z
_TEXT	SEGMENT
__Message$ = 8						; size = 4
??0bad_alloc@std@@QAE@PBD@Z PROC			; std::bad_alloc::bad_alloc, COMDAT
; _this$ = ecx

; 345  : 		{	// construct from message string

  00000	55		 push	 ebp
  00001	8b ec		 mov	 ebp, esp
  00003	56		 push	 esi
  00004	8d 45 08	 lea	 eax, DWORD PTR __Message$[ebp]
  00007	50		 push	 eax
  00008	8b f1		 mov	 esi, ecx
  0000a	ff 15 00 00 00
	00		 call	 DWORD PTR __imp_??0exception@std@@QAE@ABQBD@Z
  00010	c7 06 00 00 00
	00		 mov	 DWORD PTR [esi], OFFSET ??_7bad_alloc@std@@6B@

; 346  : 		}

  00016	8b c6		 mov	 eax, esi
  00018	5e		 pop	 esi
  00019	5d		 pop	 ebp
  0001a	c2 04 00	 ret	 4
??0bad_alloc@std@@QAE@PBD@Z ENDP			; std::bad_alloc::bad_alloc
_TEXT	ENDS
PUBLIC	??1bad_alloc@std@@UAE@XZ			; std::bad_alloc::~bad_alloc
EXTRN	__imp_??1exception@std@@UAE@XZ:PROC
; Function compile flags: /Ogsp
;	COMDAT ??1bad_alloc@std@@UAE@XZ
_TEXT	SEGMENT
??1bad_alloc@std@@UAE@XZ PROC				; std::bad_alloc::~bad_alloc, COMDAT
; _this$ = ecx

; 354  : 		{	// destroy the object

  00000	c7 01 00 00 00
	00		 mov	 DWORD PTR [ecx], OFFSET ??_7bad_alloc@std@@6B@

; 355  : 		}

  00006	ff 25 00 00 00
	00		 jmp	 DWORD PTR __imp_??1exception@std@@UAE@XZ
??1bad_alloc@std@@UAE@XZ ENDP				; std::bad_alloc::~bad_alloc
_TEXT	ENDS
EXTRN	??3@YAXPAX@Z:PROC				; operator delete
; Function compile flags: /Ogsp
;	COMDAT ??_Gbad_alloc@std@@UAEPAXI@Z
_TEXT	SEGMENT
___flags$ = 8						; size = 4
??_Gbad_alloc@std@@UAEPAXI@Z PROC			; std::bad_alloc::`scalar deleting destructor', COMDAT
; _this$ = ecx
  00000	55		 push	 ebp
  00001	8b ec		 mov	 ebp, esp
  00003	56		 push	 esi
  00004	8b f1		 mov	 esi, ecx
  00006	c7 06 00 00 00
	00		 mov	 DWORD PTR [esi], OFFSET ??_7bad_alloc@std@@6B@
  0000c	ff 15 00 00 00
	00		 call	 DWORD PTR __imp_??1exception@std@@UAE@XZ
  00012	f6 45 08 01	 test	 BYTE PTR ___flags$[ebp], 1
  00016	74 07		 je	 SHORT $LN1@scalar
  00018	56		 push	 esi
  00019	e8 00 00 00 00	 call	 ??3@YAXPAX@Z		; operator delete
  0001e	59		 pop	 ecx
$LN1@scalar:
  0001f	8b c6		 mov	 eax, esi
  00021	5e		 pop	 esi
  00022	5d		 pop	 ebp
  00023	c2 04 00	 ret	 4
??_Gbad_alloc@std@@UAEPAXI@Z ENDP			; std::bad_alloc::`scalar deleting destructor'
_TEXT	ENDS
PUBLIC	??2@YAPAXIPAX@Z					; operator new
; Function compile flags: /Ogsp
; File c:\program files (x86)\microsoft visual studio 10.0\vc\include\new
;	COMDAT ??2@YAPAXIPAX@Z
_TEXT	SEGMENT
___formal$ = 8						; size = 4
__Where$ = 12						; size = 4
??2@YAPAXIPAX@Z PROC					; operator new, COMDAT

; 56   : 	{	// construct array with placement at _Where

  00000	55		 push	 ebp
  00001	8b ec		 mov	 ebp, esp

; 57   : 	return (_Where);

  00003	8b 45 0c	 mov	 eax, DWORD PTR __Where$[ebp]

; 58   : 	}

  00006	5d		 pop	 ebp
  00007	c3		 ret	 0
??2@YAPAXIPAX@Z ENDP					; operator new
_TEXT	ENDS
PUBLIC	??3@YAXPAX0@Z					; operator delete
; Function compile flags: /Ogsp
;	COMDAT ??3@YAXPAX0@Z
_TEXT	SEGMENT
___formal$ = 8						; size = 4
___formal$ = 12						; size = 4
??3@YAXPAX0@Z PROC					; operator delete, COMDAT

; 62   : 	}

  00000	c3		 ret	 0
??3@YAXPAX0@Z ENDP					; operator delete
_TEXT	ENDS
PUBLIC	?_Adopt@_Iterator_base0@std@@QAEXPBX@Z		; std::_Iterator_base0::_Adopt
; Function compile flags: /Ogsp
; File c:\program files (x86)\microsoft visual studio 10.0\vc\include\xutility
;	COMDAT ?_Adopt@_Iterator_base0@std@@QAEXPBX@Z
_TEXT	SEGMENT
___formal$ = 8						; size = 4
?_Adopt@_Iterator_base0@std@@QAEXPBX@Z PROC		; std::_Iterator_base0::_Adopt, COMDAT
; _this$ = ecx

; 49   : 		}

  00000	c2 04 00	 ret	 4
?_Adopt@_Iterator_base0@std@@QAEXPBX@Z ENDP		; std::_Iterator_base0::_Adopt
_TEXT	ENDS
PUBLIC	?size@?$vector@UD3DXVECTOR3@@V?$allocator@UD3DXVECTOR3@@@std@@@std@@QBEIXZ ; std::vector<D3DXVECTOR3,std::allocator<D3DXVECTOR3> >::size
; Function compile flags: /Ogsp
; File c:\program files (x86)\microsoft visual studio 10.0\vc\include\vector
;	COMDAT ?size@?$vector@UD3DXVECTOR3@@V?$allocator@UD3DXVECTOR3@@@std@@@std@@QBEIXZ
_TEXT	SEGMENT
?size@?$vector@UD3DXVECTOR3@@V?$allocator@UD3DXVECTOR3@@@std@@@std@@QBEIXZ PROC ; std::vector<D3DXVECTOR3,std::allocator<D3DXVECTOR3> >::size, COMDAT
; _this$ = ecx

; 879  : 		return (this->_Mylast - this->_Myfirst);

  00000	8b 41 04	 mov	 eax, DWORD PTR [ecx+4]
  00003	2b 01		 sub	 eax, DWORD PTR [ecx]
  00005	6a 0c		 push	 12			; 0000000cH
  00007	99		 cdq
  00008	59		 pop	 ecx
  00009	f7 f9		 idiv	 ecx

; 880  : 		}

  0000b	c3		 ret	 0
?size@?$vector@UD3DXVECTOR3@@V?$allocator@UD3DXVECTOR3@@@std@@@std@@QBEIXZ ENDP ; std::vector<D3DXVECTOR3,std::allocator<D3DXVECTOR3> >::size
_TEXT	ENDS
PUBLIC	?empty@?$vector@UD3DXVECTOR3@@V?$allocator@UD3DXVECTOR3@@@std@@@std@@QBE_NXZ ; std::vector<D3DXVECTOR3,std::allocator<D3DXVECTOR3> >::empty
; Function compile flags: /Ogsp
;	COMDAT ?empty@?$vector@UD3DXVECTOR3@@V?$allocator@UD3DXVECTOR3@@@std@@@std@@QBE_NXZ
_TEXT	SEGMENT
?empty@?$vector@UD3DXVECTOR3@@V?$allocator@UD3DXVECTOR3@@@std@@@std@@QBE_NXZ PROC ; std::vector<D3DXVECTOR3,std::allocator<D3DXVECTOR3> >::empty, COMDAT
; _this$ = ecx

; 889  : 		return (this->_Myfirst == this->_Mylast);

  00000	8b 01		 mov	 eax, DWORD PTR [ecx]
  00002	2b 41 04	 sub	 eax, DWORD PTR [ecx+4]
  00005	f7 d8		 neg	 eax
  00007	1b c0		 sbb	 eax, eax
  00009	40		 inc	 eax

; 890  : 		}

  0000a	c3		 ret	 0
?empty@?$vector@UD3DXVECTOR3@@V?$allocator@UD3DXVECTOR3@@@std@@@std@@QBE_NXZ ENDP ; std::vector<D3DXVECTOR3,std::allocator<D3DXVECTOR3> >::empty
_TEXT	ENDS
PUBLIC	??A?$vector@UD3DXVECTOR3@@V?$allocator@UD3DXVECTOR3@@@std@@@std@@QAEAAUD3DXVECTOR3@@I@Z ; std::vector<D3DXVECTOR3,std::allocator<D3DXVECTOR3> >::operator[]
; Function compile flags: /Ogsp
;	COMDAT ??A?$vector@UD3DXVECTOR3@@V?$allocator@UD3DXVECTOR3@@@std@@@std@@QAEAAUD3DXVECTOR3@@I@Z
_TEXT	SEGMENT
__Pos$ = 8						; size = 4
??A?$vector@UD3DXVECTOR3@@V?$allocator@UD3DXVECTOR3@@@std@@@std@@QAEAAUD3DXVECTOR3@@I@Z PROC ; std::vector<D3DXVECTOR3,std::allocator<D3DXVECTOR3> >::operator[], COMDAT
; _this$ = ecx

; 928  : 		{	// subscript mutable sequence

  00000	55		 push	 ebp
  00001	8b ec		 mov	 ebp, esp

; 929  :  #if _ITERATOR_DEBUG_LEVEL == 2
; 930  : 		if (size() <= _Pos)
; 931  : 			{	// report error
; 932  : 			_DEBUG_ERROR("vector subscript out of range");
; 933  : 			_SCL_SECURE_OUT_OF_RANGE;
; 934  : 			}
; 935  : 
; 936  :  #elif _ITERATOR_DEBUG_LEVEL == 1
; 937  : 		_SCL_SECURE_VALIDATE_RANGE(_Pos < size());
; 938  :  #endif /* _ITERATOR_DEBUG_LEVEL */
; 939  : 
; 940  : 		return (*(this->_Myfirst + _Pos));

  00003	8b 45 08	 mov	 eax, DWORD PTR __Pos$[ebp]
  00006	6b c0 0c	 imul	 eax, 12			; 0000000cH
  00009	03 01		 add	 eax, DWORD PTR [ecx]

; 941  : 		}

  0000b	5d		 pop	 ebp
  0000c	c2 04 00	 ret	 4
??A?$vector@UD3DXVECTOR3@@V?$allocator@UD3DXVECTOR3@@@std@@@std@@QAEAAUD3DXVECTOR3@@I@Z ENDP ; std::vector<D3DXVECTOR3,std::allocator<D3DXVECTOR3> >::operator[]
_TEXT	ENDS
PUBLIC	??D?$_Vector_const_iterator@V?$_Vector_val@PAVioGameEntity@@V?$allocator@PAVioGameEntity@@@std@@@std@@@std@@QBEABQAVioGameEntity@@XZ ; std::_Vector_const_iterator<std::_Vector_val<ioGameEntity *,std::allocator<ioGameEntity *> > >::operator*
; Function compile flags: /Ogsp
;	COMDAT ??D?$_Vector_const_iterator@V?$_Vector_val@PAVioGameEntity@@V?$allocator@PAVioGameEntity@@@std@@@std@@@std@@QBEABQAVioGameEntity@@XZ
_TEXT	SEGMENT
??D?$_Vector_const_iterator@V?$_Vector_val@PAVioGameEntity@@V?$allocator@PAVioGameEntity@@@std@@@std@@@std@@QBEABQAVioGameEntity@@XZ PROC ; std::_Vector_const_iterator<std::_Vector_val<ioGameEntity *,std::allocator<ioGameEntity *> > >::operator*, COMDAT
; _this$ = ecx

; 64   :  #if _ITERATOR_DEBUG_LEVEL == 2
; 65   : 		if (this->_Getcont() == 0
; 66   : 			|| this->_Ptr == 0
; 67   : 			|| this->_Ptr < ((_Myvec *)this->_Getcont())->_Myfirst
; 68   : 			|| ((_Myvec *)this->_Getcont())->_Mylast <= this->_Ptr)
; 69   : 			{	// report error
; 70   : 			_DEBUG_ERROR("vector iterator not dereferencable");
; 71   : 			_SCL_SECURE_OUT_OF_RANGE;
; 72   : 			}
; 73   : 
; 74   :  #elif _ITERATOR_DEBUG_LEVEL == 1
; 75   : 		_SCL_SECURE_VALIDATE(this->_Getcont() != 0);
; 76   : 		_SCL_SECURE_VALIDATE_RANGE(
; 77   : 			this->_Ptr != 0
; 78   : 			&& ((_Myvec *)this->_Getcont())->_Myfirst <= this->_Ptr
; 79   : 			&& this->_Ptr < ((_Myvec *)this->_Getcont())->_Mylast);
; 80   :  #endif /* _ITERATOR_DEBUG_LEVEL */
; 81   : 
; 82   : 		__analysis_assume(this->_Ptr != 0);
; 83   : 
; 84   : 		return (*this->_Ptr);

  00000	8b 01		 mov	 eax, DWORD PTR [ecx]

; 85   : 		}

  00002	c3		 ret	 0
??D?$_Vector_const_iterator@V?$_Vector_val@PAVioGameEntity@@V?$allocator@PAVioGameEntity@@@std@@@std@@@std@@QBEABQAVioGameEntity@@XZ ENDP ; std::_Vector_const_iterator<std::_Vector_val<ioGameEntity *,std::allocator<ioGameEntity *> > >::operator*
_TEXT	ENDS
PUBLIC	??E?$_Vector_const_iterator@V?$_Vector_val@PAVioGameEntity@@V?$allocator@PAVioGameEntity@@@std@@@std@@@std@@QAEAAV01@XZ ; std::_Vector_const_iterator<std::_Vector_val<ioGameEntity *,std::allocator<ioGameEntity *> > >::operator++
; Function compile flags: /Ogsp
;	COMDAT ??E?$_Vector_const_iterator@V?$_Vector_val@PAVioGameEntity@@V?$allocator@PAVioGameEntity@@@std@@@std@@@std@@QAEAAV01@XZ
_TEXT	SEGMENT
??E?$_Vector_const_iterator@V?$_Vector_val@PAVioGameEntity@@V?$allocator@PAVioGameEntity@@@std@@@std@@@std@@QAEAAV01@XZ PROC ; std::_Vector_const_iterator<std::_Vector_val<ioGameEntity *,std::allocator<ioGameEntity *> > >::operator++, COMDAT
; _this$ = ecx

; 93   : 		{	// preincrement

  00000	8b c1		 mov	 eax, ecx

; 94   :  #if _ITERATOR_DEBUG_LEVEL == 2
; 95   : 		if (this->_Getcont() == 0
; 96   : 			|| this->_Ptr == 0
; 97   : 			|| ((_Myvec *)this->_Getcont())->_Mylast <= this->_Ptr)
; 98   : 			{	// report error
; 99   : 			_DEBUG_ERROR("vector iterator not incrementable");
; 100  : 			_SCL_SECURE_OUT_OF_RANGE;
; 101  : 			}
; 102  : 
; 103  :  #elif _ITERATOR_DEBUG_LEVEL == 1
; 104  : 		_SCL_SECURE_VALIDATE(this->_Getcont() != 0);
; 105  : 		_SCL_SECURE_VALIDATE_RANGE(
; 106  : 			this->_Ptr != 0
; 107  : 			&& this->_Ptr < ((_Myvec *)this->_Getcont())->_Mylast);
; 108  :  #endif /* _ITERATOR_DEBUG_LEVEL */
; 109  : 
; 110  : 		++this->_Ptr;

  00002	83 00 04	 add	 DWORD PTR [eax], 4

; 111  : 		return (*this);
; 112  : 		}

  00005	c3		 ret	 0
??E?$_Vector_const_iterator@V?$_Vector_val@PAVioGameEntity@@V?$allocator@PAVioGameEntity@@@std@@@std@@@std@@QAEAAV01@XZ ENDP ; std::_Vector_const_iterator<std::_Vector_val<ioGameEntity *,std::allocator<ioGameEntity *> > >::operator++
_TEXT	ENDS
PUBLIC	?capacity@?$vector@UD3DXVECTOR3@@V?$allocator@UD3DXVECTOR3@@@std@@@std@@QBEIXZ ; std::vector<D3DXVECTOR3,std::allocator<D3DXVECTOR3> >::capacity
; Function compile flags: /Ogsp
;	COMDAT ?capacity@?$vector@UD3DXVECTOR3@@V?$allocator@UD3DXVECTOR3@@@std@@@std@@QBEIXZ
_TEXT	SEGMENT
?capacity@?$vector@UD3DXVECTOR3@@V?$allocator@UD3DXVECTOR3@@@std@@@std@@QBEIXZ PROC ; std::vector<D3DXVECTOR3,std::allocator<D3DXVECTOR3> >::capacity, COMDAT
; _this$ = ecx

; 777  : 		return (this->_Myend - this->_Myfirst);

  00000	8b 41 08	 mov	 eax, DWORD PTR [ecx+8]
  00003	2b 01		 sub	 eax, DWORD PTR [ecx]
  00005	6a 0c		 push	 12			; 0000000cH
  00007	99		 cdq
  00008	59		 pop	 ecx
  00009	f7 f9		 idiv	 ecx

; 778  : 		}

  0000b	c3		 ret	 0
?capacity@?$vector@UD3DXVECTOR3@@V?$allocator@UD3DXVECTOR3@@@std@@@std@@QBEIXZ ENDP ; std::vector<D3DXVECTOR3,std::allocator<D3DXVECTOR3> >::capacity
_TEXT	ENDS
PUBLIC	?_Inside@?$vector@UD3DXVECTOR3@@V?$allocator@UD3DXVECTOR3@@@std@@@std@@IBE_NPBUD3DXVECTOR3@@@Z ; std::vector<D3DXVECTOR3,std::allocator<D3DXVECTOR3> >::_Inside
; Function compile flags: /Ogsp
;	COMDAT ?_Inside@?$vector@UD3DXVECTOR3@@V?$allocator@UD3DXVECTOR3@@@std@@@std@@IBE_NPBUD3DXVECTOR3@@@Z
_TEXT	SEGMENT
__Ptr$ = 8						; size = 4
?_Inside@?$vector@UD3DXVECTOR3@@V?$allocator@UD3DXVECTOR3@@@std@@@std@@IBE_NPBUD3DXVECTOR3@@@Z PROC ; std::vector<D3DXVECTOR3,std::allocator<D3DXVECTOR3> >::_Inside, COMDAT
; _this$ = ecx

; 1285 : 		{	// test if _Ptr points inside vector

  00000	55		 push	 ebp
  00001	8b ec		 mov	 ebp, esp

; 1286 : 		return (_Ptr < this->_Mylast && this->_Myfirst <= _Ptr);

  00003	8b 45 08	 mov	 eax, DWORD PTR __Ptr$[ebp]
  00006	3b 41 04	 cmp	 eax, DWORD PTR [ecx+4]
  00009	73 09		 jae	 SHORT $LN3@Inside
  0000b	39 01		 cmp	 DWORD PTR [ecx], eax
  0000d	77 05		 ja	 SHORT $LN3@Inside
  0000f	33 c0		 xor	 eax, eax
  00011	40		 inc	 eax
  00012	eb 02		 jmp	 SHORT $LN4@Inside
$LN3@Inside:
  00014	33 c0		 xor	 eax, eax
$LN4@Inside:

; 1287 : 		}

  00016	5d		 pop	 ebp
  00017	c2 04 00	 ret	 4
?_Inside@?$vector@UD3DXVECTOR3@@V?$allocator@UD3DXVECTOR3@@@std@@@std@@IBE_NPBUD3DXVECTOR3@@@Z ENDP ; std::vector<D3DXVECTOR3,std::allocator<D3DXVECTOR3> >::_Inside
_TEXT	ENDS
PUBLIC	??_C@_0BD@OLBABOEK@vector?$DMT?$DO?5too?5long?$AA@ ; `string'
PUBLIC	?_Xlen@?$vector@UD3DXVECTOR3@@V?$allocator@UD3DXVECTOR3@@@std@@@std@@IBEXXZ ; std::vector<D3DXVECTOR3,std::allocator<D3DXVECTOR3> >::_Xlen
EXTRN	__imp_?_Xlength_error@std@@YAXPBD@Z:PROC
;	COMDAT ??_C@_0BD@OLBABOEK@vector?$DMT?$DO?5too?5long?$AA@
CONST	SEGMENT
??_C@_0BD@OLBABOEK@vector?$DMT?$DO?5too?5long?$AA@ DB 'vector<T> too long'
	DB	00H						; `string'
; Function compile flags: /Ogsp
CONST	ENDS
;	COMDAT ?_Xlen@?$vector@UD3DXVECTOR3@@V?$allocator@UD3DXVECTOR3@@@std@@@std@@IBEXXZ
_TEXT	SEGMENT
?_Xlen@?$vector@UD3DXVECTOR3@@V?$allocator@UD3DXVECTOR3@@@std@@@std@@IBEXXZ PROC ; std::vector<D3DXVECTOR3,std::allocator<D3DXVECTOR3> >::_Xlen, COMDAT
; _this$ = ecx

; 1427 : 		_Xlength_error("vector<T> too long");

  00000	68 00 00 00 00	 push	 OFFSET ??_C@_0BD@OLBABOEK@vector?$DMT?$DO?5too?5long?$AA@
  00005	ff 15 00 00 00
	00		 call	 DWORD PTR __imp_?_Xlength_error@std@@YAXPBD@Z
$LN4@Xlen:
$LN3@Xlen:
  0000b	cc		 int	 3
?_Xlen@?$vector@UD3DXVECTOR3@@V?$allocator@UD3DXVECTOR3@@@std@@@std@@IBEXXZ ENDP ; std::vector<D3DXVECTOR3,std::allocator<D3DXVECTOR3> >::_Xlen
_TEXT	ENDS
PUBLIC	?_Orphan_range@?$vector@UD3DXVECTOR3@@V?$allocator@UD3DXVECTOR3@@@std@@@std@@IBEXPAUD3DXVECTOR3@@0@Z ; std::vector<D3DXVECTOR3,std::allocator<D3DXVECTOR3> >::_Orphan_range
; Function compile flags: /Ogsp
;	COMDAT ?_Orphan_range@?$vector@UD3DXVECTOR3@@V?$allocator@UD3DXVECTOR3@@@std@@@std@@IBEXPAUD3DXVECTOR3@@0@Z
_TEXT	SEGMENT
___formal$ = 8						; size = 4
___formal$ = 12						; size = 4
?_Orphan_range@?$vector@UD3DXVECTOR3@@V?$allocator@UD3DXVECTOR3@@@std@@@std@@IBEXPAUD3DXVECTOR3@@0@Z PROC ; std::vector<D3DXVECTOR3,std::allocator<D3DXVECTOR3> >::_Orphan_range, COMDAT
; _this$ = ecx

; 1454 : 		}

  00000	c2 08 00	 ret	 8
?_Orphan_range@?$vector@UD3DXVECTOR3@@V?$allocator@UD3DXVECTOR3@@@std@@@std@@IBEXPAUD3DXVECTOR3@@0@Z ENDP ; std::vector<D3DXVECTOR3,std::allocator<D3DXVECTOR3> >::_Orphan_range
_TEXT	ENDS
PUBLIC	??1?$_Vector_val@UD3DXVECTOR3@@V?$allocator@UD3DXVECTOR3@@@std@@@std@@QAE@XZ ; std::_Vector_val<D3DXVECTOR3,std::allocator<D3DXVECTOR3> >::~_Vector_val<D3DXVECTOR3,std::allocator<D3DXVECTOR3> >
; Function compile flags: /Ogsp
;	COMDAT ??1?$_Vector_val@UD3DXVECTOR3@@V?$allocator@UD3DXVECTOR3@@@std@@@std@@QAE@XZ
_TEXT	SEGMENT
??1?$_Vector_val@UD3DXVECTOR3@@V?$allocator@UD3DXVECTOR3@@@std@@@std@@QAE@XZ PROC ; std::_Vector_val<D3DXVECTOR3,std::allocator<D3DXVECTOR3> >::~_Vector_val<D3DXVECTOR3,std::allocator<D3DXVECTOR3> >, COMDAT
; _this$ = ecx

; 434  : 		}

  00000	c3		 ret	 0
??1?$_Vector_val@UD3DXVECTOR3@@V?$allocator@UD3DXVECTOR3@@@std@@@std@@QAE@XZ ENDP ; std::_Vector_val<D3DXVECTOR3,std::allocator<D3DXVECTOR3> >::~_Vector_val<D3DXVECTOR3,std::allocator<D3DXVECTOR3> >
_TEXT	ENDS
PUBLIC	??0?$allocator@UD3DXVECTOR3@@@std@@QAE@XZ	; std::allocator<D3DXVECTOR3>::allocator<D3DXVECTOR3>
; Function compile flags: /Ogsp
; File c:\program files (x86)\microsoft visual studio 10.0\vc\include\xmemory
;	COMDAT ??0?$allocator@UD3DXVECTOR3@@@std@@QAE@XZ
_TEXT	SEGMENT
??0?$allocator@UD3DXVECTOR3@@@std@@QAE@XZ PROC		; std::allocator<D3DXVECTOR3>::allocator<D3DXVECTOR3>, COMDAT
; _this$ = ecx

; 161  : 	_ALLOCATOR() _THROW0()

  00000	8b c1		 mov	 eax, ecx

; 162  : 		{	// construct default allocator (do nothing)
; 163  : 		}

  00002	c3		 ret	 0
??0?$allocator@UD3DXVECTOR3@@@std@@QAE@XZ ENDP		; std::allocator<D3DXVECTOR3>::allocator<D3DXVECTOR3>
_TEXT	ENDS
PUBLIC	?deallocate@?$allocator@UD3DXVECTOR3@@@std@@QAEXPAUD3DXVECTOR3@@I@Z ; std::allocator<D3DXVECTOR3>::deallocate
; Function compile flags: /Ogsp
;	COMDAT ?deallocate@?$allocator@UD3DXVECTOR3@@@std@@QAEXPAUD3DXVECTOR3@@I@Z
_TEXT	SEGMENT
__Ptr$ = 8						; size = 4
___formal$ = 12						; size = 4
?deallocate@?$allocator@UD3DXVECTOR3@@@std@@QAEXPAUD3DXVECTOR3@@I@Z PROC ; std::allocator<D3DXVECTOR3>::deallocate, COMDAT
; _this$ = ecx

; 181  : 		{	// deallocate object at _Ptr, ignore size

  00000	55		 push	 ebp
  00001	8b ec		 mov	 ebp, esp

; 182  : 		::operator delete(_Ptr);

  00003	ff 75 08	 push	 DWORD PTR __Ptr$[ebp]
  00006	e8 00 00 00 00	 call	 ??3@YAXPAX@Z		; operator delete
  0000b	59		 pop	 ecx

; 183  : 		}

  0000c	5d		 pop	 ebp
  0000d	c2 08 00	 ret	 8
?deallocate@?$allocator@UD3DXVECTOR3@@@std@@QAEXPAUD3DXVECTOR3@@I@Z ENDP ; std::allocator<D3DXVECTOR3>::deallocate
_TEXT	ENDS
PUBLIC	?_Nextnode@?$_List_val@PAVioGameEntity@@V?$allocator@PAVioGameEntity@@@std@@@std@@SAAAPAU_Node@?$_List_nod@PAVioGameEntity@@V?$allocator@PAVioGameEntity@@@std@@@2@PAU342@@Z ; std::_List_val<ioGameEntity *,std::allocator<ioGameEntity *> >::_Nextnode
; Function compile flags: /Ogsp
; File c:\program files (x86)\microsoft visual studio 10.0\vc\include\list
;	COMDAT ?_Nextnode@?$_List_val@PAVioGameEntity@@V?$allocator@PAVioGameEntity@@@std@@@std@@SAAAPAU_Node@?$_List_nod@PAVioGameEntity@@V?$allocator@PAVioGameEntity@@@std@@@2@PAU342@@Z
_TEXT	SEGMENT
__Pnode$ = 8						; size = 4
?_Nextnode@?$_List_val@PAVioGameEntity@@V?$allocator@PAVioGameEntity@@@std@@@std@@SAAAPAU_Node@?$_List_nod@PAVioGameEntity@@V?$allocator@PAVioGameEntity@@@std@@@2@PAU342@@Z PROC ; std::_List_val<ioGameEntity *,std::allocator<ioGameEntity *> >::_Nextnode, COMDAT

; 560  : 		{	// return reference to successor pointer in node

  00000	55		 push	 ebp
  00001	8b ec		 mov	 ebp, esp

; 561  : 		return ((_Nodepref)(*_Pnode)._Next);

  00003	8b 45 08	 mov	 eax, DWORD PTR __Pnode$[ebp]

; 562  : 		}

  00006	5d		 pop	 ebp
  00007	c3		 ret	 0
?_Nextnode@?$_List_val@PAVioGameEntity@@V?$allocator@PAVioGameEntity@@@std@@@std@@SAAAPAU_Node@?$_List_nod@PAVioGameEntity@@V?$allocator@PAVioGameEntity@@@std@@@2@PAU342@@Z ENDP ; std::_List_val<ioGameEntity *,std::allocator<ioGameEntity *> >::_Nextnode
_TEXT	ENDS
PUBLIC	?_Myval@?$_List_val@PAVioGameEntity@@V?$allocator@PAVioGameEntity@@@std@@@std@@SAAAPAVioGameEntity@@PAU_Node@?$_List_nod@PAVioGameEntity@@V?$allocator@PAVioGameEntity@@@std@@@2@@Z ; std::_List_val<ioGameEntity *,std::allocator<ioGameEntity *> >::_Myval
; Function compile flags: /Ogsp
;	COMDAT ?_Myval@?$_List_val@PAVioGameEntity@@V?$allocator@PAVioGameEntity@@@std@@@std@@SAAAPAVioGameEntity@@PAU_Node@?$_List_nod@PAVioGameEntity@@V?$allocator@PAVioGameEntity@@@std@@@2@@Z
_TEXT	SEGMENT
__Pnode$ = 8						; size = 4
?_Myval@?$_List_val@PAVioGameEntity@@V?$allocator@PAVioGameEntity@@@std@@@std@@SAAAPAVioGameEntity@@PAU_Node@?$_List_nod@PAVioGameEntity@@V?$allocator@PAVioGameEntity@@@std@@@2@@Z PROC ; std::_List_val<ioGameEntity *,std::allocator<ioGameEntity *> >::_Myval, COMDAT

; 570  : 		{	// return reference to value in node

  00000	55		 push	 ebp
  00001	8b ec		 mov	 ebp, esp

; 571  : 		return ((reference)(*_Pnode)._Myval);

  00003	8b 45 08	 mov	 eax, DWORD PTR __Pnode$[ebp]
  00006	83 c0 08	 add	 eax, 8

; 572  : 		}

  00009	5d		 pop	 ebp
  0000a	c3		 ret	 0
?_Myval@?$_List_val@PAVioGameEntity@@V?$allocator@PAVioGameEntity@@@std@@@std@@SAAAPAVioGameEntity@@PAU_Node@?$_List_nod@PAVioGameEntity@@V?$allocator@PAVioGameEntity@@@std@@@2@@Z ENDP ; std::_List_val<ioGameEntity *,std::allocator<ioGameEntity *> >::_Myval
_TEXT	ENDS
PUBLIC	??0?$_Vector_const_iterator@V?$_Vector_val@PAVioGameEntity@@V?$allocator@PAVioGameEntity@@@std@@@std@@@std@@QAE@PAPAVioGameEntity@@PBU_Container_base0@1@@Z ; std::_Vector_const_iterator<std::_Vector_val<ioGameEntity *,std::allocator<ioGameEntity *> > >::_Vector_const_iterator<std::_Vector_val<ioGameEntity *,std::allocator<ioGameEntity *> > >
; Function compile flags: /Ogsp
; File c:\program files (x86)\microsoft visual studio 10.0\vc\include\vector
;	COMDAT ??0?$_Vector_const_iterator@V?$_Vector_val@PAVioGameEntity@@V?$allocator@PAVioGameEntity@@@std@@@std@@@std@@QAE@PAPAVioGameEntity@@PBU_Container_base0@1@@Z
_TEXT	SEGMENT
__Parg$ = 8						; size = 4
__Pvector$ = 12						; size = 4
??0?$_Vector_const_iterator@V?$_Vector_val@PAVioGameEntity@@V?$allocator@PAVioGameEntity@@@std@@@std@@@std@@QAE@PAPAVioGameEntity@@PBU_Container_base0@1@@Z PROC ; std::_Vector_const_iterator<std::_Vector_val<ioGameEntity *,std::allocator<ioGameEntity *> > >::_Vector_const_iterator<std::_Vector_val<ioGameEntity *,std::allocator<ioGameEntity *> > >, COMDAT
; _this$ = ecx

; 45   : 		{	// construct with pointer _Parg

  00000	55		 push	 ebp
  00001	8b ec		 mov	 ebp, esp
  00003	8b c1		 mov	 eax, ecx
  00005	8b 4d 08	 mov	 ecx, DWORD PTR __Parg$[ebp]
  00008	89 08		 mov	 DWORD PTR [eax], ecx

; 46   : 		this->_Adopt(_Pvector);
; 47   : 		}

  0000a	5d		 pop	 ebp
  0000b	c2 08 00	 ret	 8
??0?$_Vector_const_iterator@V?$_Vector_val@PAVioGameEntity@@V?$allocator@PAVioGameEntity@@@std@@@std@@@std@@QAE@PAPAVioGameEntity@@PBU_Container_base0@1@@Z ENDP ; std::_Vector_const_iterator<std::_Vector_val<ioGameEntity *,std::allocator<ioGameEntity *> > >::_Vector_const_iterator<std::_Vector_val<ioGameEntity *,std::allocator<ioGameEntity *> > >
_TEXT	ENDS
PUBLIC	??8?$_List_const_iterator@V?$_List_val@PAVioGameEntity@@V?$allocator@PAVioGameEntity@@@std@@@std@@@std@@QBE_NABV01@@Z ; std::_List_const_iterator<std::_List_val<ioGameEntity *,std::allocator<ioGameEntity *> > >::operator==
; Function compile flags: /Ogsp
; File c:\program files (x86)\microsoft visual studio 10.0\vc\include\list
;	COMDAT ??8?$_List_const_iterator@V?$_List_val@PAVioGameEntity@@V?$allocator@PAVioGameEntity@@@std@@@std@@@std@@QBE_NABV01@@Z
_TEXT	SEGMENT
__Right$ = 8						; size = 4
??8?$_List_const_iterator@V?$_List_val@PAVioGameEntity@@V?$allocator@PAVioGameEntity@@@std@@@std@@@std@@QBE_NABV01@@Z PROC ; std::_List_const_iterator<std::_List_val<ioGameEntity *,std::allocator<ioGameEntity *> > >::operator==, COMDAT
; _this$ = ecx

; 281  : 		{	// test for iterator equality

  00000	55		 push	 ebp
  00001	8b ec		 mov	 ebp, esp

; 282  :  #if _ITERATOR_DEBUG_LEVEL == 2
; 283  : 		if (this->_Getcont() == 0
; 284  : 			|| this->_Getcont() != _Right._Getcont())
; 285  : 			{	// report error
; 286  : 			_DEBUG_ERROR("list iterators incompatible");
; 287  : 			_SCL_SECURE_INVALID_ARGUMENT;
; 288  : 			}
; 289  : 
; 290  :  #elif _ITERATOR_DEBUG_LEVEL == 1
; 291  : 		_SCL_SECURE_VALIDATE(this->_Getcont() != 0
; 292  : 			&& this->_Getcont() == _Right._Getcont());
; 293  :  #endif /* _ITERATOR_DEBUG_LEVEL */
; 294  : 
; 295  : 		return (this->_Ptr == _Right._Ptr);

  00003	8b 01		 mov	 eax, DWORD PTR [ecx]
  00005	8b 4d 08	 mov	 ecx, DWORD PTR __Right$[ebp]
  00008	2b 01		 sub	 eax, DWORD PTR [ecx]
  0000a	f7 d8		 neg	 eax
  0000c	1b c0		 sbb	 eax, eax
  0000e	40		 inc	 eax

; 296  : 		}

  0000f	5d		 pop	 ebp
  00010	c2 04 00	 ret	 4
??8?$_List_const_iterator@V?$_List_val@PAVioGameEntity@@V?$allocator@PAVioGameEntity@@@std@@@std@@@std@@QBE_NABV01@@Z ENDP ; std::_List_const_iterator<std::_List_val<ioGameEntity *,std::allocator<ioGameEntity *> > >::operator==
_TEXT	ENDS
PUBLIC	??0?$allocator@UD3DXVECTOR3@@@std@@QAE@ABV01@@Z	; std::allocator<D3DXVECTOR3>::allocator<D3DXVECTOR3>
; Function compile flags: /Ogsp
; File c:\program files (x86)\microsoft visual studio 10.0\vc\include\xmemory
;	COMDAT ??0?$allocator@UD3DXVECTOR3@@@std@@QAE@ABV01@@Z
_TEXT	SEGMENT
___formal$ = 8						; size = 4
??0?$allocator@UD3DXVECTOR3@@@std@@QAE@ABV01@@Z PROC	; std::allocator<D3DXVECTOR3>::allocator<D3DXVECTOR3>, COMDAT
; _this$ = ecx

; 165  : 	_ALLOCATOR(const _ALLOCATOR<_Ty>&) _THROW0()

  00000	8b c1		 mov	 eax, ecx

; 166  : 		{	// construct by copying (do nothing)
; 167  : 		}

  00002	c2 04 00	 ret	 4
??0?$allocator@UD3DXVECTOR3@@@std@@QAE@ABV01@@Z ENDP	; std::allocator<D3DXVECTOR3>::allocator<D3DXVECTOR3>
_TEXT	ENDS
PUBLIC	?max_size@?$allocator@UD3DXVECTOR3@@@std@@QBEIXZ ; std::allocator<D3DXVECTOR3>::max_size
; Function compile flags: /Ogsp
;	COMDAT ?max_size@?$allocator@UD3DXVECTOR3@@@std@@QBEIXZ
_TEXT	SEGMENT
?max_size@?$allocator@UD3DXVECTOR3@@@std@@QBEIXZ PROC	; std::allocator<D3DXVECTOR3>::max_size, COMDAT
; _this$ = ecx

; 218  : 		_SIZT _Count = (_SIZT)(-1) / sizeof (_Ty);
; 219  : 		return (0 < _Count ? _Count : 1);

  00000	b8 55 55 55 15	 mov	 eax, 357913941		; 15555555H

; 220  : 		}

  00005	c3		 ret	 0
?max_size@?$allocator@UD3DXVECTOR3@@@std@@QBEIXZ ENDP	; std::allocator<D3DXVECTOR3>::max_size
_TEXT	ENDS
PUBLIC	?_Compat@?$_Vector_const_iterator@V?$_Vector_val@PAVioGameEntity@@V?$allocator@PAVioGameEntity@@@std@@@std@@@std@@QBEXABV12@@Z ; std::_Vector_const_iterator<std::_Vector_val<ioGameEntity *,std::allocator<ioGameEntity *> > >::_Compat
; Function compile flags: /Ogsp
; File c:\program files (x86)\microsoft visual studio 10.0\vc\include\vector
;	COMDAT ?_Compat@?$_Vector_const_iterator@V?$_Vector_val@PAVioGameEntity@@V?$allocator@PAVioGameEntity@@@std@@@std@@@std@@QBEXABV12@@Z
_TEXT	SEGMENT
___formal$ = 8						; size = 4
?_Compat@?$_Vector_const_iterator@V?$_Vector_val@PAVioGameEntity@@V?$allocator@PAVioGameEntity@@@std@@@std@@@std@@QBEXABV12@@Z PROC ; std::_Vector_const_iterator<std::_Vector_val<ioGameEntity *,std::allocator<ioGameEntity *> > >::_Compat, COMDAT
; _this$ = ecx

; 253  : 		}

  00000	c2 04 00	 ret	 4
?_Compat@?$_Vector_const_iterator@V?$_Vector_val@PAVioGameEntity@@V?$allocator@PAVioGameEntity@@@std@@@std@@@std@@QBEXABV12@@Z ENDP ; std::_Vector_const_iterator<std::_Vector_val<ioGameEntity *,std::allocator<ioGameEntity *> > >::_Compat
_TEXT	ENDS
PUBLIC	??0?$_List_unchecked_const_iterator@V?$_List_val@PAVioGameEntity@@V?$allocator@PAVioGameEntity@@@std@@@std@@U_Iterator_base0@2@@std@@QAE@PAU_Node@?$_List_nod@PAVioGameEntity@@V?$allocator@PAVioGameEntity@@@std@@@1@PBV?$_List_val@PAVioGameEntity@@V?$allocator@PAVioGameEntity@@@std@@@1@@Z ; std::_List_unchecked_const_iterator<std::_List_val<ioGameEntity *,std::allocator<ioGameEntity *> >,std::_Iterator_base0>::_List_unchecked_const_iterator<std::_List_val<ioGameEntity *,std::allocator<ioGameEntity *> >,std::_Iterator_base0>
; Function compile flags: /Ogsp
; File c:\program files (x86)\microsoft visual studio 10.0\vc\include\list
;	COMDAT ??0?$_List_unchecked_const_iterator@V?$_List_val@PAVioGameEntity@@V?$allocator@PAVioGameEntity@@@std@@@std@@U_Iterator_base0@2@@std@@QAE@PAU_Node@?$_List_nod@PAVioGameEntity@@V?$allocator@PAVioGameEntity@@@std@@@1@PBV?$_List_val@PAVioGameEntity@@V?$allocator@PAVioGameEntity@@@std@@@1@@Z
_TEXT	SEGMENT
__Pnode$ = 8						; size = 4
__Plist$ = 12						; size = 4
??0?$_List_unchecked_const_iterator@V?$_List_val@PAVioGameEntity@@V?$allocator@PAVioGameEntity@@@std@@@std@@U_Iterator_base0@2@@std@@QAE@PAU_Node@?$_List_nod@PAVioGameEntity@@V?$allocator@PAVioGameEntity@@@std@@@1@PBV?$_List_val@PAVioGameEntity@@V?$allocator@PAVioGameEntity@@@std@@@1@@Z PROC ; std::_List_unchecked_const_iterator<std::_List_val<ioGameEntity *,std::allocator<ioGameEntity *> >,std::_Iterator_base0>::_List_unchecked_const_iterator<std::_List_val<ioGameEntity *,std::allocator<ioGameEntity *> >,std::_Iterator_base0>, COMDAT
; _this$ = ecx

; 41   : 		{	// construct with node pointer _Pnode

  00000	55		 push	 ebp
  00001	8b ec		 mov	 ebp, esp
  00003	8b c1		 mov	 eax, ecx
  00005	8b 4d 08	 mov	 ecx, DWORD PTR __Pnode$[ebp]
  00008	89 08		 mov	 DWORD PTR [eax], ecx

; 42   : 		this->_Adopt(_Plist);
; 43   : 		}

  0000a	5d		 pop	 ebp
  0000b	c2 08 00	 ret	 8
??0?$_List_unchecked_const_iterator@V?$_List_val@PAVioGameEntity@@V?$allocator@PAVioGameEntity@@@std@@@std@@U_Iterator_base0@2@@std@@QAE@PAU_Node@?$_List_nod@PAVioGameEntity@@V?$allocator@PAVioGameEntity@@@std@@@1@PBV?$_List_val@PAVioGameEntity@@V?$allocator@PAVioGameEntity@@@std@@@1@@Z ENDP ; std::_List_unchecked_const_iterator<std::_List_val<ioGameEntity *,std::allocator<ioGameEntity *> >,std::_Iterator_base0>::_List_unchecked_const_iterator<std::_List_val<ioGameEntity *,std::allocator<ioGameEntity *> >,std::_Iterator_base0>
_TEXT	ENDS
PUBLIC	??D?$_Vector_const_iterator@V?$_Vector_val@UD3DXVECTOR3@@V?$allocator@UD3DXVECTOR3@@@std@@@std@@@std@@QBEABUD3DXVECTOR3@@XZ ; std::_Vector_const_iterator<std::_Vector_val<D3DXVECTOR3,std::allocator<D3DXVECTOR3> > >::operator*
; Function compile flags: /Ogsp
; File c:\program files (x86)\microsoft visual studio 10.0\vc\include\vector
;	COMDAT ??D?$_Vector_const_iterator@V?$_Vector_val@UD3DXVECTOR3@@V?$allocator@UD3DXVECTOR3@@@std@@@std@@@std@@QBEABUD3DXVECTOR3@@XZ
_TEXT	SEGMENT
??D?$_Vector_const_iterator@V?$_Vector_val@UD3DXVECTOR3@@V?$allocator@UD3DXVECTOR3@@@std@@@std@@@std@@QBEABUD3DXVECTOR3@@XZ PROC ; std::_Vector_const_iterator<std::_Vector_val<D3DXVECTOR3,std::allocator<D3DXVECTOR3> > >::operator*, COMDAT
; _this$ = ecx

; 64   :  #if _ITERATOR_DEBUG_LEVEL == 2
; 65   : 		if (this->_Getcont() == 0
; 66   : 			|| this->_Ptr == 0
; 67   : 			|| this->_Ptr < ((_Myvec *)this->_Getcont())->_Myfirst
; 68   : 			|| ((_Myvec *)this->_Getcont())->_Mylast <= this->_Ptr)
; 69   : 			{	// report error
; 70   : 			_DEBUG_ERROR("vector iterator not dereferencable");
; 71   : 			_SCL_SECURE_OUT_OF_RANGE;
; 72   : 			}
; 73   : 
; 74   :  #elif _ITERATOR_DEBUG_LEVEL == 1
; 75   : 		_SCL_SECURE_VALIDATE(this->_Getcont() != 0);
; 76   : 		_SCL_SECURE_VALIDATE_RANGE(
; 77   : 			this->_Ptr != 0
; 78   : 			&& ((_Myvec *)this->_Getcont())->_Myfirst <= this->_Ptr
; 79   : 			&& this->_Ptr < ((_Myvec *)this->_Getcont())->_Mylast);
; 80   :  #endif /* _ITERATOR_DEBUG_LEVEL */
; 81   : 
; 82   : 		__analysis_assume(this->_Ptr != 0);
; 83   : 
; 84   : 		return (*this->_Ptr);

  00000	8b 01		 mov	 eax, DWORD PTR [ecx]

; 85   : 		}

  00002	c3		 ret	 0
??D?$_Vector_const_iterator@V?$_Vector_val@UD3DXVECTOR3@@V?$allocator@UD3DXVECTOR3@@@std@@@std@@@std@@QBEABUD3DXVECTOR3@@XZ ENDP ; std::_Vector_const_iterator<std::_Vector_val<D3DXVECTOR3,std::allocator<D3DXVECTOR3> > >::operator*
_TEXT	ENDS
PUBLIC	??0?$_Vector_const_iterator@V?$_Vector_val@UD3DXVECTOR3@@V?$allocator@UD3DXVECTOR3@@@std@@@std@@@std@@QAE@PAUD3DXVECTOR3@@PBU_Container_base0@1@@Z ; std::_Vector_const_iterator<std::_Vector_val<D3DXVECTOR3,std::allocator<D3DXVECTOR3> > >::_Vector_const_iterator<std::_Vector_val<D3DXVECTOR3,std::allocator<D3DXVECTOR3> > >
; Function compile flags: /Ogsp
;	COMDAT ??0?$_Vector_const_iterator@V?$_Vector_val@UD3DXVECTOR3@@V?$allocator@UD3DXVECTOR3@@@std@@@std@@@std@@QAE@PAUD3DXVECTOR3@@PBU_Container_base0@1@@Z
_TEXT	SEGMENT
__Parg$ = 8						; size = 4
__Pvector$ = 12						; size = 4
??0?$_Vector_const_iterator@V?$_Vector_val@UD3DXVECTOR3@@V?$allocator@UD3DXVECTOR3@@@std@@@std@@@std@@QAE@PAUD3DXVECTOR3@@PBU_Container_base0@1@@Z PROC ; std::_Vector_const_iterator<std::_Vector_val<D3DXVECTOR3,std::allocator<D3DXVECTOR3> > >::_Vector_const_iterator<std::_Vector_val<D3DXVECTOR3,std::allocator<D3DXVECTOR3> > >, COMDAT
; _this$ = ecx

; 45   : 		{	// construct with pointer _Parg

  00000	55		 push	 ebp
  00001	8b ec		 mov	 ebp, esp
  00003	8b c1		 mov	 eax, ecx
  00005	8b 4d 08	 mov	 ecx, DWORD PTR __Parg$[ebp]
  00008	89 08		 mov	 DWORD PTR [eax], ecx

; 46   : 		this->_Adopt(_Pvector);
; 47   : 		}

  0000a	5d		 pop	 ebp
  0000b	c2 08 00	 ret	 8
??0?$_Vector_const_iterator@V?$_Vector_val@UD3DXVECTOR3@@V?$allocator@UD3DXVECTOR3@@@std@@@std@@@std@@QAE@PAUD3DXVECTOR3@@PBU_Container_base0@1@@Z ENDP ; std::_Vector_const_iterator<std::_Vector_val<D3DXVECTOR3,std::allocator<D3DXVECTOR3> > >::_Vector_const_iterator<std::_Vector_val<D3DXVECTOR3,std::allocator<D3DXVECTOR3> > >
_TEXT	ENDS
PUBLIC	??$addressof@$$CBUD3DXVECTOR3@@@std@@YAPBUD3DXVECTOR3@@ABU1@@Z ; std::addressof<D3DXVECTOR3 const >
; Function compile flags: /Ogsp
; File c:\program files (x86)\microsoft visual studio 10.0\vc\include\xmemory
;	COMDAT ??$addressof@$$CBUD3DXVECTOR3@@@std@@YAPBUD3DXVECTOR3@@ABU1@@Z
_TEXT	SEGMENT
__Val$ = 8						; size = 4
??$addressof@$$CBUD3DXVECTOR3@@@std@@YAPBUD3DXVECTOR3@@ABU1@@Z PROC ; std::addressof<D3DXVECTOR3 const >, COMDAT

; 110  : 	{	// return address of _Val

  00000	55		 push	 ebp
  00001	8b ec		 mov	 ebp, esp

; 111  : 	return ((_Ty *) &(char&)_Val);

  00003	8b 45 08	 mov	 eax, DWORD PTR __Val$[ebp]

; 112  : 	}

  00006	5d		 pop	 ebp
  00007	c3		 ret	 0
??$addressof@$$CBUD3DXVECTOR3@@@std@@YAPBUD3DXVECTOR3@@ABU1@@Z ENDP ; std::addressof<D3DXVECTOR3 const >
_TEXT	ENDS
PUBLIC	__TI2?AVbad_alloc@std@@
PUBLIC	??$_Allocate@UD3DXVECTOR3@@@std@@YAPAUD3DXVECTOR3@@IPAU1@@Z ; std::_Allocate<D3DXVECTOR3>
PUBLIC	__CTA2?AVbad_alloc@std@@
PUBLIC	__CT??_R0?AVbad_alloc@std@@@8??0bad_alloc@std@@QAE@ABV01@@Z12
PUBLIC	??0bad_alloc@std@@QAE@ABV01@@Z			; std::bad_alloc::bad_alloc
PUBLIC	__CT??_R0?AVexception@std@@@8??0exception@std@@QAE@ABV01@@Z12
EXTRN	??2@YAPAXI@Z:PROC				; operator new
EXTRN	__CxxThrowException@8:PROC
EXTRN	??0exception@std@@QAE@ABV01@@Z:PROC		; std::exception::exception
;	COMDAT __CT??_R0?AVexception@std@@@8??0exception@std@@QAE@ABV01@@Z12
; File c:\program files (x86)\microsoft visual studio 10.0\vc\include\exception
xdata$x	SEGMENT
__CT??_R0?AVexception@std@@@8??0exception@std@@QAE@ABV01@@Z12 DD 00H
	DD	FLAT:??_R0?AVexception@std@@@8
	DD	00H
	DD	0ffffffffH
	ORG $+4
	DD	0cH
	DD	FLAT:??0exception@std@@QAE@ABV01@@Z
xdata$x	ENDS
;	COMDAT __CT??_R0?AVbad_alloc@std@@@8??0bad_alloc@std@@QAE@ABV01@@Z12
xdata$x	SEGMENT
__CT??_R0?AVbad_alloc@std@@@8??0bad_alloc@std@@QAE@ABV01@@Z12 DD 00H
	DD	FLAT:??_R0?AVbad_alloc@std@@@8
	DD	00H
	DD	0ffffffffH
	ORG $+4
	DD	0cH
	DD	FLAT:??0bad_alloc@std@@QAE@ABV01@@Z
xdata$x	ENDS
;	COMDAT __CTA2?AVbad_alloc@std@@
xdata$x	SEGMENT
__CTA2?AVbad_alloc@std@@ DD 02H
	DD	FLAT:__CT??_R0?AVbad_alloc@std@@@8??0bad_alloc@std@@QAE@ABV01@@Z12
	DD	FLAT:__CT??_R0?AVexception@std@@@8??0exception@std@@QAE@ABV01@@Z12
xdata$x	ENDS
;	COMDAT __TI2?AVbad_alloc@std@@
xdata$x	SEGMENT
__TI2?AVbad_alloc@std@@ DD 00H
	DD	FLAT:??1bad_alloc@std@@UAE@XZ
	DD	00H
	DD	FLAT:__CTA2?AVbad_alloc@std@@
; Function compile flags: /Ogsp
; File c:\program files (x86)\microsoft visual studio 10.0\vc\include\xmemory
xdata$x	ENDS
;	COMDAT ??$_Allocate@UD3DXVECTOR3@@@std@@YAPAUD3DXVECTOR3@@IPAU1@@Z
_TEXT	SEGMENT
$T533528 = -12						; size = 12
$T533533 = 8						; size = 4
__Count$ = 8						; size = 4
___formal$ = 12						; size = 4
??$_Allocate@UD3DXVECTOR3@@@std@@YAPAUD3DXVECTOR3@@IPAU1@@Z PROC ; std::_Allocate<D3DXVECTOR3>, COMDAT

; 30   : 	{	// allocate storage for _Count elements of type _Ty

  00000	55		 push	 ebp
  00001	8b ec		 mov	 ebp, esp

; 31   : 	void *_Ptr = 0;
; 32   : 
; 33   : 	if (_Count <= 0)

  00003	8b 4d 08	 mov	 ecx, DWORD PTR __Count$[ebp]
  00006	83 ec 0c	 sub	 esp, 12			; 0000000cH
  00009	33 c0		 xor	 eax, eax
  0000b	85 c9		 test	 ecx, ecx

; 34   : 		_Count = 0;
; 35   : 	else if (((_SIZT)(-1) / sizeof (_Ty) < _Count)

  0000d	74 3c		 je	 SHORT $LN5@Allocate

; 36   : 		|| (_Ptr = ::operator new(_Count * sizeof (_Ty))) == 0)

  0000f	81 f9 55 55 55
	15		 cmp	 ecx, 357913941		; 15555555H
  00015	77 0e		 ja	 SHORT $LN1@Allocate
  00017	6b c9 0c	 imul	 ecx, 12			; 0000000cH
  0001a	51		 push	 ecx
  0001b	e8 00 00 00 00	 call	 ??2@YAPAXI@Z		; operator new
  00020	59		 pop	 ecx
  00021	85 c0		 test	 eax, eax

; 38   : 
; 39   : 	return ((_Ty _FARQ *)_Ptr);

  00023	75 26		 jne	 SHORT $LN5@Allocate
$LN1@Allocate:

; 37   : 		_THROW_NCEE(bad_alloc, 0);

  00025	83 65 08 00	 and	 DWORD PTR $T533533[ebp], 0
  00029	8d 45 08	 lea	 eax, DWORD PTR $T533533[ebp]
  0002c	50		 push	 eax
  0002d	8d 4d f4	 lea	 ecx, DWORD PTR $T533528[ebp]
  00030	ff 15 00 00 00
	00		 call	 DWORD PTR __imp_??0exception@std@@QAE@ABQBD@Z
  00036	68 00 00 00 00	 push	 OFFSET __TI2?AVbad_alloc@std@@
  0003b	8d 45 f4	 lea	 eax, DWORD PTR $T533528[ebp]
  0003e	50		 push	 eax
  0003f	c7 45 f4 00 00
	00 00		 mov	 DWORD PTR $T533528[ebp], OFFSET ??_7bad_alloc@std@@6B@
  00046	e8 00 00 00 00	 call	 __CxxThrowException@8
$LN10@Allocate:
$LN5@Allocate:

; 40   : 	}

  0004b	c9		 leave
  0004c	c3		 ret	 0
$LN9@Allocate:
??$_Allocate@UD3DXVECTOR3@@@std@@YAPAUD3DXVECTOR3@@IPAU1@@Z ENDP ; std::_Allocate<D3DXVECTOR3>
_TEXT	ENDS
PUBLIC	??$forward@AAUD3DXVECTOR3@@@std@@YAAAUD3DXVECTOR3@@AAU1@@Z ; std::forward<D3DXVECTOR3 &>
; Function compile flags: /Ogsp
; File c:\program files (x86)\microsoft visual studio 10.0\vc\include\utility
;	COMDAT ??$forward@AAUD3DXVECTOR3@@@std@@YAAAUD3DXVECTOR3@@AAU1@@Z
_TEXT	SEGMENT
__Arg$ = 8						; size = 4
??$forward@AAUD3DXVECTOR3@@@std@@YAAAUD3DXVECTOR3@@AAU1@@Z PROC ; std::forward<D3DXVECTOR3 &>, COMDAT

; 78   : 	{	// forward _Arg, given explicitly specified type parameter

  00000	55		 push	 ebp
  00001	8b ec		 mov	 ebp, esp

; 79   : 	return ((_Ty&&)_Arg);

  00003	8b 45 08	 mov	 eax, DWORD PTR __Arg$[ebp]

; 80   : 	}

  00006	5d		 pop	 ebp
  00007	c3		 ret	 0
??$forward@AAUD3DXVECTOR3@@@std@@YAAAUD3DXVECTOR3@@AAU1@@Z ENDP ; std::forward<D3DXVECTOR3 &>
_TEXT	ENDS
PUBLIC	??$construct@AAUD3DXVECTOR3@@@?$allocator@UD3DXVECTOR3@@@std@@QAEXPAUD3DXVECTOR3@@AAU2@@Z ; std::allocator<D3DXVECTOR3>::construct<D3DXVECTOR3 &>
; Function compile flags: /Ogsp
; File c:\program files (x86)\microsoft visual studio 10.0\vc\include\xmemory
;	COMDAT ??$construct@AAUD3DXVECTOR3@@@?$allocator@UD3DXVECTOR3@@@std@@QAEXPAUD3DXVECTOR3@@AAU2@@Z
_TEXT	SEGMENT
__Ptr$ = 8						; size = 4
__Val$ = 12						; size = 4
??$construct@AAUD3DXVECTOR3@@@?$allocator@UD3DXVECTOR3@@@std@@QAEXPAUD3DXVECTOR3@@AAU2@@Z PROC ; std::allocator<D3DXVECTOR3>::construct<D3DXVECTOR3 &>, COMDAT
; _this$ = ecx

; 206  : 		void construct(pointer _Ptr, _Other&& _Val)

  00000	55		 push	 ebp
  00001	8b ec		 mov	 ebp, esp
  00003	57		 push	 edi

; 207  : 		{	// construct object at _Ptr with value _Val
; 208  : 		::new ((void _FARQ *)_Ptr) _Ty(_STD forward<_Other>(_Val));

  00004	8b 7d 08	 mov	 edi, DWORD PTR __Ptr$[ebp]
  00007	85 ff		 test	 edi, edi
  00009	74 08		 je	 SHORT $LN3@construct
  0000b	56		 push	 esi
  0000c	8b 75 0c	 mov	 esi, DWORD PTR __Val$[ebp]
  0000f	a5		 movsd
  00010	a5		 movsd
  00011	a5		 movsd
  00012	5e		 pop	 esi
$LN3@construct:
  00013	5f		 pop	 edi

; 209  : 		}

  00014	5d		 pop	 ebp
  00015	c2 08 00	 ret	 8
??$construct@AAUD3DXVECTOR3@@@?$allocator@UD3DXVECTOR3@@@std@@QAEXPAUD3DXVECTOR3@@AAU2@@Z ENDP ; std::allocator<D3DXVECTOR3>::construct<D3DXVECTOR3 &>
_TEXT	ENDS
PUBLIC	??$forward@ABUD3DXVECTOR3@@@std@@YAABUD3DXVECTOR3@@ABU1@@Z ; std::forward<D3DXVECTOR3 const &>
; Function compile flags: /Ogsp
; File c:\program files (x86)\microsoft visual studio 10.0\vc\include\utility
;	COMDAT ??$forward@ABUD3DXVECTOR3@@@std@@YAABUD3DXVECTOR3@@ABU1@@Z
_TEXT	SEGMENT
__Arg$ = 8						; size = 4
??$forward@ABUD3DXVECTOR3@@@std@@YAABUD3DXVECTOR3@@ABU1@@Z PROC ; std::forward<D3DXVECTOR3 const &>, COMDAT

; 78   : 	{	// forward _Arg, given explicitly specified type parameter

  00000	55		 push	 ebp
  00001	8b ec		 mov	 ebp, esp

; 79   : 	return ((_Ty&&)_Arg);

  00003	8b 45 08	 mov	 eax, DWORD PTR __Arg$[ebp]

; 80   : 	}

  00006	5d		 pop	 ebp
  00007	c3		 ret	 0
??$forward@ABUD3DXVECTOR3@@@std@@YAABUD3DXVECTOR3@@ABU1@@Z ENDP ; std::forward<D3DXVECTOR3 const &>
_TEXT	ENDS
PUBLIC	??$_Ptr_cat@UD3DXVECTOR3@@U1@@std@@YA?AU_Nonscalar_ptr_iterator_tag@0@PAUD3DXVECTOR3@@0@Z ; std::_Ptr_cat<D3DXVECTOR3,D3DXVECTOR3>
; Function compile flags: /Ogsp
; File c:\program files (x86)\microsoft visual studio 10.0\vc\include\xutility
;	COMDAT ??$_Ptr_cat@UD3DXVECTOR3@@U1@@std@@YA?AU_Nonscalar_ptr_iterator_tag@0@PAUD3DXVECTOR3@@0@Z
_TEXT	SEGMENT
__Cat$ = -1						; size = 1
___formal$ = 8						; size = 4
___formal$ = 12						; size = 4
??$_Ptr_cat@UD3DXVECTOR3@@U1@@std@@YA?AU_Nonscalar_ptr_iterator_tag@0@PAUD3DXVECTOR3@@0@Z PROC ; std::_Ptr_cat<D3DXVECTOR3,D3DXVECTOR3>, COMDAT

; 516  : 	{	// return pointer category from pointers

  00000	55		 push	 ebp
  00001	8b ec		 mov	 ebp, esp
  00003	51		 push	 ecx

; 517  : 	typename _Ptr_cat_helper<_Elem1, _Elem2>::_Type _Cat;
; 518  : 	return (_Cat);

  00004	8a 45 ff	 mov	 al, BYTE PTR __Cat$[ebp]

; 519  : 	}

  00007	c9		 leave
  00008	c3		 ret	 0
??$_Ptr_cat@UD3DXVECTOR3@@U1@@std@@YA?AU_Nonscalar_ptr_iterator_tag@0@PAUD3DXVECTOR3@@0@Z ENDP ; std::_Ptr_cat<D3DXVECTOR3,D3DXVECTOR3>
_TEXT	ENDS
PUBLIC	??$_Construct@UD3DXVECTOR3@@ABU1@@std@@YAXPAUD3DXVECTOR3@@ABU1@@Z ; std::_Construct<D3DXVECTOR3,D3DXVECTOR3 const &>
; Function compile flags: /Ogsp
; File c:\program files (x86)\microsoft visual studio 10.0\vc\include\xmemory
;	COMDAT ??$_Construct@UD3DXVECTOR3@@ABU1@@std@@YAXPAUD3DXVECTOR3@@ABU1@@Z
_TEXT	SEGMENT
__Ptr$ = 8						; size = 4
__Val$ = 12						; size = 4
??$_Construct@UD3DXVECTOR3@@ABU1@@std@@YAXPAUD3DXVECTOR3@@ABU1@@Z PROC ; std::_Construct<D3DXVECTOR3,D3DXVECTOR3 const &>, COMDAT

; 46   : 	{	// construct object at _Ptr with value _Val

  00000	55		 push	 ebp
  00001	8b ec		 mov	 ebp, esp
  00003	57		 push	 edi

; 47   : 	void _FARQ *_Vptr = _Ptr;
; 48   : 	::new (_Vptr) _Ty1(_STD forward<_Ty2>(_Val));

  00004	8b 7d 08	 mov	 edi, DWORD PTR __Ptr$[ebp]
  00007	85 ff		 test	 edi, edi
  00009	74 08		 je	 SHORT $LN3@Construct
  0000b	56		 push	 esi
  0000c	8b 75 0c	 mov	 esi, DWORD PTR __Val$[ebp]
  0000f	a5		 movsd
  00010	a5		 movsd
  00011	a5		 movsd
  00012	5e		 pop	 esi
$LN3@Construct:
  00013	5f		 pop	 edi

; 49   : 	}

  00014	5d		 pop	 ebp
  00015	c3		 ret	 0
??$_Construct@UD3DXVECTOR3@@ABU1@@std@@YAXPAUD3DXVECTOR3@@ABU1@@Z ENDP ; std::_Construct<D3DXVECTOR3,D3DXVECTOR3 const &>
_TEXT	ENDS
PUBLIC	??$_Val_type@PAUD3DXVECTOR3@@@std@@YAPAUD3DXVECTOR3@@PAU1@@Z ; std::_Val_type<D3DXVECTOR3 *>
; Function compile flags: /Ogsp
; File c:\program files (x86)\microsoft visual studio 10.0\vc\include\xutility
;	COMDAT ??$_Val_type@PAUD3DXVECTOR3@@@std@@YAPAUD3DXVECTOR3@@PAU1@@Z
_TEXT	SEGMENT
___formal$ = 8						; size = 4
??$_Val_type@PAUD3DXVECTOR3@@@std@@YAPAUD3DXVECTOR3@@PAU1@@Z PROC ; std::_Val_type<D3DXVECTOR3 *>, COMDAT

; 790  : 	return (0);

  00000	33 c0		 xor	 eax, eax

; 791  : 	}

  00002	c3		 ret	 0
??$_Val_type@PAUD3DXVECTOR3@@@std@@YAPAUD3DXVECTOR3@@PAU1@@Z ENDP ; std::_Val_type<D3DXVECTOR3 *>
_TEXT	ENDS
PUBLIC	??$_Destroy@UD3DXVECTOR3@@@std@@YAXPAUD3DXVECTOR3@@@Z ; std::_Destroy<D3DXVECTOR3>
; Function compile flags: /Ogsp
; File c:\program files (x86)\microsoft visual studio 10.0\vc\include\xmemory
;	COMDAT ??$_Destroy@UD3DXVECTOR3@@@std@@YAXPAUD3DXVECTOR3@@@Z
_TEXT	SEGMENT
__Ptr$ = 8						; size = 4
??$_Destroy@UD3DXVECTOR3@@@std@@YAXPAUD3DXVECTOR3@@@Z PROC ; std::_Destroy<D3DXVECTOR3>, COMDAT

; 63   : 	_Ptr->~_Ty();
; 64   : 	}

  00000	c3		 ret	 0
??$_Destroy@UD3DXVECTOR3@@@std@@YAXPAUD3DXVECTOR3@@@Z ENDP ; std::_Destroy<D3DXVECTOR3>
_TEXT	ENDS
PUBLIC	??$forward@UD3DXVECTOR3@@@std@@YA$$QAUD3DXVECTOR3@@AAU1@@Z ; std::forward<D3DXVECTOR3>
; Function compile flags: /Ogsp
; File c:\program files (x86)\microsoft visual studio 10.0\vc\include\utility
;	COMDAT ??$forward@UD3DXVECTOR3@@@std@@YA$$QAUD3DXVECTOR3@@AAU1@@Z
_TEXT	SEGMENT
__Arg$ = 8						; size = 4
??$forward@UD3DXVECTOR3@@@std@@YA$$QAUD3DXVECTOR3@@AAU1@@Z PROC ; std::forward<D3DXVECTOR3>, COMDAT

; 78   : 	{	// forward _Arg, given explicitly specified type parameter

  00000	55		 push	 ebp
  00001	8b ec		 mov	 ebp, esp

; 79   : 	return ((_Ty&&)_Arg);

  00003	8b 45 08	 mov	 eax, DWORD PTR __Arg$[ebp]

; 80   : 	}

  00006	5d		 pop	 ebp
  00007	c3		 ret	 0
??$forward@UD3DXVECTOR3@@@std@@YA$$QAUD3DXVECTOR3@@AAU1@@Z ENDP ; std::forward<D3DXVECTOR3>
_TEXT	ENDS
PUBLIC	??0D3DXVECTOR3@@QAE@XZ				; D3DXVECTOR3::D3DXVECTOR3
; Function compile flags: /Ogsp
; File c:\program files (x86)\microsoft directx sdk (june 2010)\include\d3dx9math.h
;	COMDAT ??0D3DXVECTOR3@@QAE@XZ
_TEXT	SEGMENT
??0D3DXVECTOR3@@QAE@XZ PROC				; D3DXVECTOR3::D3DXVECTOR3, COMDAT
; _this$ = ecx

; 165  :     D3DXVECTOR3() {};

  00000	8b c1		 mov	 eax, ecx
  00002	c3		 ret	 0
??0D3DXVECTOR3@@QAE@XZ ENDP				; D3DXVECTOR3::D3DXVECTOR3
_TEXT	ENDS
PUBLIC	??0D3DXMATRIX@@QAE@XZ				; D3DXMATRIX::D3DXMATRIX
; Function compile flags: /Ogsp
;	COMDAT ??0D3DXMATRIX@@QAE@XZ
_TEXT	SEGMENT
??0D3DXMATRIX@@QAE@XZ PROC				; D3DXMATRIX::D3DXMATRIX, COMDAT
; _this$ = ecx

; 315  :     D3DXMATRIX() {};

  00000	8b c1		 mov	 eax, ecx
  00002	c3		 ret	 0
??0D3DXMATRIX@@QAE@XZ ENDP				; D3DXMATRIX::D3DXMATRIX
_TEXT	ENDS
PUBLIC	??0D3DXVECTOR3@@QAE@MMM@Z			; D3DXVECTOR3::D3DXVECTOR3
; Function compile flags: /Ogsp
; File c:\program files (x86)\microsoft directx sdk (june 2010)\include\d3dx9math.inl
;	COMDAT ??0D3DXVECTOR3@@QAE@MMM@Z
_TEXT	SEGMENT
_fx$ = 8						; size = 4
_fy$ = 12						; size = 4
_fz$ = 16						; size = 4
??0D3DXVECTOR3@@QAE@MMM@Z PROC				; D3DXVECTOR3::D3DXVECTOR3, COMDAT
; _this$ = ecx

; 303  : {

  00000	55		 push	 ebp
  00001	8b ec		 mov	 ebp, esp

; 304  :     x = fx;

  00003	f3 0f 10 45 08	 movss	 xmm0, DWORD PTR _fx$[ebp]
  00008	8b c1		 mov	 eax, ecx
  0000a	f3 0f 11 00	 movss	 DWORD PTR [eax], xmm0

; 305  :     y = fy;

  0000e	f3 0f 10 45 0c	 movss	 xmm0, DWORD PTR _fy$[ebp]
  00013	f3 0f 11 40 04	 movss	 DWORD PTR [eax+4], xmm0

; 306  :     z = fz;

  00018	f3 0f 10 45 10	 movss	 xmm0, DWORD PTR _fz$[ebp]
  0001d	f3 0f 11 40 08	 movss	 DWORD PTR [eax+8], xmm0

; 307  : }

  00022	5d		 pop	 ebp
  00023	c2 0c 00	 ret	 12			; 0000000cH
??0D3DXVECTOR3@@QAE@MMM@Z ENDP				; D3DXVECTOR3::D3DXVECTOR3
_TEXT	ENDS
PUBLIC	??YD3DXVECTOR3@@QAEAAU0@ABU0@@Z			; D3DXVECTOR3::operator+=
; Function compile flags: /Ogsp
;	COMDAT ??YD3DXVECTOR3@@QAEAAU0@ABU0@@Z
_TEXT	SEGMENT
_v$ = 8							; size = 4
??YD3DXVECTOR3@@QAEAAU0@ABU0@@Z PROC			; D3DXVECTOR3::operator+=, COMDAT
; _this$ = ecx

; 327  : {

  00000	55		 push	 ebp
  00001	8b ec		 mov	 ebp, esp
  00003	8b c1		 mov	 eax, ecx

; 328  :     x += v.x;

  00005	8b 4d 08	 mov	 ecx, DWORD PTR _v$[ebp]
  00008	f3 0f 10 01	 movss	 xmm0, DWORD PTR [ecx]
  0000c	f3 0f 10 08	 movss	 xmm1, DWORD PTR [eax]
  00010	0f 5a c0	 cvtps2pd xmm0, xmm0
  00013	0f 5a c9	 cvtps2pd xmm1, xmm1
  00016	f2 0f 58 c1	 addsd	 xmm0, xmm1

; 329  :     y += v.y;

  0001a	f3 0f 10 48 04	 movss	 xmm1, DWORD PTR [eax+4]
  0001f	66 0f 5a c0	 cvtpd2ps xmm0, xmm0
  00023	f3 0f 11 00	 movss	 DWORD PTR [eax], xmm0
  00027	f3 0f 10 41 04	 movss	 xmm0, DWORD PTR [ecx+4]
  0002c	0f 5a c0	 cvtps2pd xmm0, xmm0
  0002f	0f 5a c9	 cvtps2pd xmm1, xmm1
  00032	f2 0f 58 c1	 addsd	 xmm0, xmm1

; 330  :     z += v.z;

  00036	f3 0f 10 48 08	 movss	 xmm1, DWORD PTR [eax+8]
  0003b	66 0f 5a c0	 cvtpd2ps xmm0, xmm0
  0003f	f3 0f 11 40 04	 movss	 DWORD PTR [eax+4], xmm0
  00044	f3 0f 10 41 08	 movss	 xmm0, DWORD PTR [ecx+8]
  00049	0f 5a c0	 cvtps2pd xmm0, xmm0
  0004c	0f 5a c9	 cvtps2pd xmm1, xmm1
  0004f	f2 0f 58 c1	 addsd	 xmm0, xmm1
  00053	66 0f 5a c0	 cvtpd2ps xmm0, xmm0
  00057	f3 0f 11 40 08	 movss	 DWORD PTR [eax+8], xmm0

; 331  :     return *this;
; 332  : }

  0005c	5d		 pop	 ebp
  0005d	c2 04 00	 ret	 4
??YD3DXVECTOR3@@QAEAAU0@ABU0@@Z ENDP			; D3DXVECTOR3::operator+=
_TEXT	ENDS
PUBLIC	??ZD3DXVECTOR3@@QAEAAU0@ABU0@@Z			; D3DXVECTOR3::operator-=
; Function compile flags: /Ogsp
;	COMDAT ??ZD3DXVECTOR3@@QAEAAU0@ABU0@@Z
_TEXT	SEGMENT
_v$ = 8							; size = 4
??ZD3DXVECTOR3@@QAEAAU0@ABU0@@Z PROC			; D3DXVECTOR3::operator-=, COMDAT
; _this$ = ecx

; 336  : {

  00000	55		 push	 ebp
  00001	8b ec		 mov	 ebp, esp
  00003	8b c1		 mov	 eax, ecx

; 337  :     x -= v.x;

  00005	8b 4d 08	 mov	 ecx, DWORD PTR _v$[ebp]
  00008	f3 0f 10 09	 movss	 xmm1, DWORD PTR [ecx]
  0000c	f3 0f 10 00	 movss	 xmm0, DWORD PTR [eax]
  00010	0f 5a c0	 cvtps2pd xmm0, xmm0
  00013	0f 5a c9	 cvtps2pd xmm1, xmm1
  00016	f2 0f 5c c1	 subsd	 xmm0, xmm1
  0001a	66 0f 5a c0	 cvtpd2ps xmm0, xmm0
  0001e	f3 0f 11 00	 movss	 DWORD PTR [eax], xmm0

; 338  :     y -= v.y;

  00022	f3 0f 10 49 04	 movss	 xmm1, DWORD PTR [ecx+4]
  00027	f3 0f 10 40 04	 movss	 xmm0, DWORD PTR [eax+4]
  0002c	0f 5a c0	 cvtps2pd xmm0, xmm0
  0002f	0f 5a c9	 cvtps2pd xmm1, xmm1
  00032	f2 0f 5c c1	 subsd	 xmm0, xmm1
  00036	66 0f 5a c0	 cvtpd2ps xmm0, xmm0
  0003a	f3 0f 11 40 04	 movss	 DWORD PTR [eax+4], xmm0

; 339  :     z -= v.z;

  0003f	f3 0f 10 40 08	 movss	 xmm0, DWORD PTR [eax+8]
  00044	f3 0f 10 49 08	 movss	 xmm1, DWORD PTR [ecx+8]
  00049	0f 5a c0	 cvtps2pd xmm0, xmm0
  0004c	0f 5a c9	 cvtps2pd xmm1, xmm1
  0004f	f2 0f 5c c1	 subsd	 xmm0, xmm1
  00053	66 0f 5a c0	 cvtpd2ps xmm0, xmm0
  00057	f3 0f 11 40 08	 movss	 DWORD PTR [eax+8], xmm0

; 340  :     return *this;
; 341  : }

  0005c	5d		 pop	 ebp
  0005d	c2 04 00	 ret	 4
??ZD3DXVECTOR3@@QAEAAU0@ABU0@@Z ENDP			; D3DXVECTOR3::operator-=
_TEXT	ENDS
PUBLIC	__mask@@NegFloat@
PUBLIC	??GD3DXVECTOR3@@QBE?AU0@XZ			; D3DXVECTOR3::operator-
;	COMDAT __mask@@NegFloat@
CONST	SEGMENT
__mask@@NegFloat@ DB 00H, 00H, 00H, 080H, 00H, 00H, 00H, 080H, 00H, 00H, 00H
	DB	080H, 00H, 00H, 00H, 080H
; Function compile flags: /Ogsp
CONST	ENDS
;	COMDAT ??GD3DXVECTOR3@@QBE?AU0@XZ
_TEXT	SEGMENT
___$ReturnUdt$ = 8					; size = 4
??GD3DXVECTOR3@@QBE?AU0@XZ PROC				; D3DXVECTOR3::operator-, COMDAT
; _this$ = ecx

; 372  : {

  00000	55		 push	 ebp
  00001	8b ec		 mov	 ebp, esp

; 373  :     return D3DXVECTOR3(-x, -y, -z);

  00003	f3 0f 10 05 00
	00 00 00	 movss	 xmm0, DWORD PTR __mask@@NegFloat@
  0000b	8b 45 08	 mov	 eax, DWORD PTR ___$ReturnUdt$[ebp]
  0000e	f3 0f 10 09	 movss	 xmm1, DWORD PTR [ecx]
  00012	0f 57 c8	 xorps	 xmm1, xmm0
  00015	f3 0f 11 08	 movss	 DWORD PTR [eax], xmm1
  00019	f3 0f 10 49 04	 movss	 xmm1, DWORD PTR [ecx+4]
  0001e	0f 57 c8	 xorps	 xmm1, xmm0
  00021	f3 0f 11 48 04	 movss	 DWORD PTR [eax+4], xmm1
  00026	f3 0f 10 49 08	 movss	 xmm1, DWORD PTR [ecx+8]
  0002b	0f 57 c8	 xorps	 xmm1, xmm0
  0002e	f3 0f 11 48 08	 movss	 DWORD PTR [eax+8], xmm1

; 374  : }

  00033	5d		 pop	 ebp
  00034	c2 04 00	 ret	 4
??GD3DXVECTOR3@@QBE?AU0@XZ ENDP				; D3DXVECTOR3::operator-
_TEXT	ENDS
PUBLIC	??HD3DXVECTOR3@@QBE?AU0@ABU0@@Z			; D3DXVECTOR3::operator+
; Function compile flags: /Ogsp
;	COMDAT ??HD3DXVECTOR3@@QBE?AU0@ABU0@@Z
_TEXT	SEGMENT
___$ReturnUdt$ = 8					; size = 4
_v$ = 12						; size = 4
??HD3DXVECTOR3@@QBE?AU0@ABU0@@Z PROC			; D3DXVECTOR3::operator+, COMDAT
; _this$ = ecx

; 380  : {

  00000	55		 push	 ebp
  00001	8b ec		 mov	 ebp, esp

; 381  :     return D3DXVECTOR3(x + v.x, y + v.y, z + v.z);

  00003	8b 55 0c	 mov	 edx, DWORD PTR _v$[ebp]
  00006	f3 0f 10 02	 movss	 xmm0, DWORD PTR [edx]
  0000a	f3 0f 10 09	 movss	 xmm1, DWORD PTR [ecx]
  0000e	8b 45 08	 mov	 eax, DWORD PTR ___$ReturnUdt$[ebp]
  00011	0f 5a c0	 cvtps2pd xmm0, xmm0
  00014	0f 5a c9	 cvtps2pd xmm1, xmm1
  00017	f2 0f 58 c1	 addsd	 xmm0, xmm1
  0001b	f3 0f 10 49 04	 movss	 xmm1, DWORD PTR [ecx+4]
  00020	66 0f 5a c0	 cvtpd2ps xmm0, xmm0
  00024	f3 0f 11 00	 movss	 DWORD PTR [eax], xmm0
  00028	f3 0f 10 42 04	 movss	 xmm0, DWORD PTR [edx+4]
  0002d	0f 5a c0	 cvtps2pd xmm0, xmm0
  00030	0f 5a c9	 cvtps2pd xmm1, xmm1
  00033	f2 0f 58 c1	 addsd	 xmm0, xmm1
  00037	f3 0f 10 49 08	 movss	 xmm1, DWORD PTR [ecx+8]
  0003c	66 0f 5a c0	 cvtpd2ps xmm0, xmm0
  00040	f3 0f 11 40 04	 movss	 DWORD PTR [eax+4], xmm0
  00045	f3 0f 10 42 08	 movss	 xmm0, DWORD PTR [edx+8]
  0004a	0f 5a c0	 cvtps2pd xmm0, xmm0
  0004d	0f 5a c9	 cvtps2pd xmm1, xmm1
  00050	f2 0f 58 c1	 addsd	 xmm0, xmm1
  00054	66 0f 5a c0	 cvtpd2ps xmm0, xmm0
  00058	f3 0f 11 40 08	 movss	 DWORD PTR [eax+8], xmm0

; 382  : }

  0005d	5d		 pop	 ebp
  0005e	c2 08 00	 ret	 8
??HD3DXVECTOR3@@QBE?AU0@ABU0@@Z ENDP			; D3DXVECTOR3::operator+
_TEXT	ENDS
PUBLIC	??GD3DXVECTOR3@@QBE?AU0@ABU0@@Z			; D3DXVECTOR3::operator-
; Function compile flags: /Ogsp
;	COMDAT ??GD3DXVECTOR3@@QBE?AU0@ABU0@@Z
_TEXT	SEGMENT
___$ReturnUdt$ = 8					; size = 4
_v$ = 12						; size = 4
??GD3DXVECTOR3@@QBE?AU0@ABU0@@Z PROC			; D3DXVECTOR3::operator-, COMDAT
; _this$ = ecx

; 386  : {

  00000	55		 push	 ebp
  00001	8b ec		 mov	 ebp, esp

; 387  :     return D3DXVECTOR3(x - v.x, y - v.y, z - v.z);

  00003	8b 55 0c	 mov	 edx, DWORD PTR _v$[ebp]
  00006	f3 0f 10 01	 movss	 xmm0, DWORD PTR [ecx]
  0000a	f3 0f 10 0a	 movss	 xmm1, DWORD PTR [edx]
  0000e	8b 45 08	 mov	 eax, DWORD PTR ___$ReturnUdt$[ebp]
  00011	0f 5a c0	 cvtps2pd xmm0, xmm0
  00014	0f 5a c9	 cvtps2pd xmm1, xmm1
  00017	f2 0f 5c c1	 subsd	 xmm0, xmm1
  0001b	f3 0f 10 4a 04	 movss	 xmm1, DWORD PTR [edx+4]
  00020	66 0f 5a c0	 cvtpd2ps xmm0, xmm0
  00024	f3 0f 11 00	 movss	 DWORD PTR [eax], xmm0
  00028	f3 0f 10 41 04	 movss	 xmm0, DWORD PTR [ecx+4]
  0002d	0f 5a c0	 cvtps2pd xmm0, xmm0
  00030	0f 5a c9	 cvtps2pd xmm1, xmm1
  00033	f2 0f 5c c1	 subsd	 xmm0, xmm1
  00037	f3 0f 10 4a 08	 movss	 xmm1, DWORD PTR [edx+8]
  0003c	66 0f 5a c0	 cvtpd2ps xmm0, xmm0
  00040	f3 0f 11 40 04	 movss	 DWORD PTR [eax+4], xmm0
  00045	f3 0f 10 41 08	 movss	 xmm0, DWORD PTR [ecx+8]
  0004a	0f 5a c0	 cvtps2pd xmm0, xmm0
  0004d	0f 5a c9	 cvtps2pd xmm1, xmm1
  00050	f2 0f 5c c1	 subsd	 xmm0, xmm1
  00054	66 0f 5a c0	 cvtpd2ps xmm0, xmm0
  00058	f3 0f 11 40 08	 movss	 DWORD PTR [eax+8], xmm0

; 388  : }

  0005d	5d		 pop	 ebp
  0005e	c2 08 00	 ret	 8
??GD3DXVECTOR3@@QBE?AU0@ABU0@@Z ENDP			; D3DXVECTOR3::operator-
_TEXT	ENDS
PUBLIC	??DD3DXVECTOR3@@QBE?AU0@M@Z			; D3DXVECTOR3::operator*
; Function compile flags: /Ogsp
;	COMDAT ??DD3DXVECTOR3@@QBE?AU0@M@Z
_TEXT	SEGMENT
___$ReturnUdt$ = 8					; size = 4
_f$ = 12						; size = 4
??DD3DXVECTOR3@@QBE?AU0@M@Z PROC			; D3DXVECTOR3::operator*, COMDAT
; _this$ = ecx

; 392  : {

  00000	55		 push	 ebp
  00001	8b ec		 mov	 ebp, esp

; 393  :     return D3DXVECTOR3(x * f, y * f, z * f);

  00003	f3 0f 10 4d 0c	 movss	 xmm1, DWORD PTR _f$[ebp]
  00008	f3 0f 10 01	 movss	 xmm0, DWORD PTR [ecx]
  0000c	8b 45 08	 mov	 eax, DWORD PTR ___$ReturnUdt$[ebp]
  0000f	0f 5a c0	 cvtps2pd xmm0, xmm0
  00012	0f 5a c9	 cvtps2pd xmm1, xmm1
  00015	f2 0f 59 c1	 mulsd	 xmm0, xmm1
  00019	f3 0f 10 4d 0c	 movss	 xmm1, DWORD PTR _f$[ebp]
  0001e	66 0f 5a c0	 cvtpd2ps xmm0, xmm0
  00022	f3 0f 11 00	 movss	 DWORD PTR [eax], xmm0
  00026	f3 0f 10 41 04	 movss	 xmm0, DWORD PTR [ecx+4]
  0002b	0f 5a c0	 cvtps2pd xmm0, xmm0
  0002e	0f 5a c9	 cvtps2pd xmm1, xmm1
  00031	f2 0f 59 c1	 mulsd	 xmm0, xmm1
  00035	f3 0f 10 4d 0c	 movss	 xmm1, DWORD PTR _f$[ebp]
  0003a	66 0f 5a c0	 cvtpd2ps xmm0, xmm0
  0003e	f3 0f 11 40 04	 movss	 DWORD PTR [eax+4], xmm0
  00043	f3 0f 10 41 08	 movss	 xmm0, DWORD PTR [ecx+8]
  00048	0f 5a c0	 cvtps2pd xmm0, xmm0
  0004b	0f 5a c9	 cvtps2pd xmm1, xmm1
  0004e	f2 0f 59 c1	 mulsd	 xmm0, xmm1
  00052	66 0f 5a c0	 cvtpd2ps xmm0, xmm0
  00056	f3 0f 11 40 08	 movss	 DWORD PTR [eax+8], xmm0

; 394  : }

  0005b	5d		 pop	 ebp
  0005c	c2 08 00	 ret	 8
??DD3DXVECTOR3@@QBE?AU0@M@Z ENDP			; D3DXVECTOR3::operator*
_TEXT	ENDS
PUBLIC	??D@YA?AUD3DXVECTOR3@@MABU0@@Z			; operator*
; Function compile flags: /Ogsp
;	COMDAT ??D@YA?AUD3DXVECTOR3@@MABU0@@Z
_TEXT	SEGMENT
___$ReturnUdt$ = 8					; size = 4
_f$ = 12						; size = 4
_v$ = 16						; size = 4
??D@YA?AUD3DXVECTOR3@@MABU0@@Z PROC			; operator*, COMDAT

; 406  : {

  00000	55		 push	 ebp
  00001	8b ec		 mov	 ebp, esp

; 407  :     return D3DXVECTOR3(f * v.x, f * v.y, f * v.z);

  00003	8b 4d 10	 mov	 ecx, DWORD PTR _v$[ebp]
  00006	f3 0f 10 4d 0c	 movss	 xmm1, DWORD PTR _f$[ebp]
  0000b	f3 0f 10 01	 movss	 xmm0, DWORD PTR [ecx]
  0000f	8b 45 08	 mov	 eax, DWORD PTR ___$ReturnUdt$[ebp]
  00012	0f 5a c0	 cvtps2pd xmm0, xmm0
  00015	0f 5a c9	 cvtps2pd xmm1, xmm1
  00018	f2 0f 59 c1	 mulsd	 xmm0, xmm1
  0001c	f3 0f 10 4d 0c	 movss	 xmm1, DWORD PTR _f$[ebp]
  00021	66 0f 5a c0	 cvtpd2ps xmm0, xmm0
  00025	f3 0f 11 00	 movss	 DWORD PTR [eax], xmm0
  00029	f3 0f 10 41 04	 movss	 xmm0, DWORD PTR [ecx+4]
  0002e	0f 5a c0	 cvtps2pd xmm0, xmm0
  00031	0f 5a c9	 cvtps2pd xmm1, xmm1
  00034	f2 0f 59 c1	 mulsd	 xmm0, xmm1
  00038	f3 0f 10 4d 0c	 movss	 xmm1, DWORD PTR _f$[ebp]
  0003d	66 0f 5a c0	 cvtpd2ps xmm0, xmm0
  00041	f3 0f 11 40 04	 movss	 DWORD PTR [eax+4], xmm0
  00046	f3 0f 10 41 08	 movss	 xmm0, DWORD PTR [ecx+8]
  0004b	0f 5a c0	 cvtps2pd xmm0, xmm0
  0004e	0f 5a c9	 cvtps2pd xmm1, xmm1
  00051	f2 0f 59 c1	 mulsd	 xmm0, xmm1
  00055	66 0f 5a c0	 cvtpd2ps xmm0, xmm0
  00059	f3 0f 11 40 08	 movss	 DWORD PTR [eax+8], xmm0

; 408  : }

  0005e	5d		 pop	 ebp
  0005f	c3		 ret	 0
??D@YA?AUD3DXVECTOR3@@MABU0@@Z ENDP			; operator*
_TEXT	ENDS
PUBLIC	?D3DXVec3Length@@YAMPBUD3DXVECTOR3@@@Z		; D3DXVec3Length
; Function compile flags: /Ogsp
;	COMDAT ?D3DXVec3Length@@YAMPBUD3DXVECTOR3@@@Z
_TEXT	SEGMENT
tv169 = 8						; size = 4
tv160 = 8						; size = 4
_pV$ = 8						; size = 4
?D3DXVec3Length@@YAMPBUD3DXVECTOR3@@@Z PROC		; D3DXVec3Length, COMDAT

; 1710 : {

  00000	55		 push	 ebp
  00001	8b ec		 mov	 ebp, esp

; 1711 : #ifdef D3DX_DEBUG
; 1712 :     if(!pV)
; 1713 :         return 0.0f;
; 1714 : #endif
; 1715 : 
; 1716 : #ifdef __cplusplus
; 1717 :     return sqrtf(pV->x * pV->x + pV->y * pV->y + pV->z * pV->z);

  00003	8b 45 08	 mov	 eax, DWORD PTR _pV$[ebp]
  00006	d9 40 04	 fld	 DWORD PTR [eax+4]
  00009	d9 00		 fld	 DWORD PTR [eax]
  0000b	d9 40 08	 fld	 DWORD PTR [eax+8]
  0000e	d9 c1		 fld	 ST(1)
  00010	de ca		 fmulp	 ST(2), ST(0)
  00012	d9 c2		 fld	 ST(2)
  00014	de cb		 fmulp	 ST(3), ST(0)
  00016	d9 c9		 fxch	 ST(1)
  00018	de c2		 faddp	 ST(2), ST(0)
  0001a	d9 c0		 fld	 ST(0)
  0001c	de c9		 fmulp	 ST(1), ST(0)
  0001e	de c1		 faddp	 ST(1), ST(0)
  00020	d9 5d 08	 fstp	 DWORD PTR tv169[ebp]
  00023	d9 45 08	 fld	 DWORD PTR tv169[ebp]
  00026	e8 00 00 00 00	 call	 __CIsqrt
  0002b	d9 5d 08	 fstp	 DWORD PTR tv160[ebp]
  0002e	d9 45 08	 fld	 DWORD PTR tv160[ebp]

; 1718 : #else
; 1719 :     return (FLOAT) sqrt(pV->x * pV->x + pV->y * pV->y + pV->z * pV->z);
; 1720 : #endif
; 1721 : }

  00031	5d		 pop	 ebp
  00032	c3		 ret	 0
?D3DXVec3Length@@YAMPBUD3DXVECTOR3@@@Z ENDP		; D3DXVec3Length
_TEXT	ENDS
PUBLIC	?D3DXVec3LengthSq@@YAMPBUD3DXVECTOR3@@@Z	; D3DXVec3LengthSq
; Function compile flags: /Ogsp
;	COMDAT ?D3DXVec3LengthSq@@YAMPBUD3DXVECTOR3@@@Z
_TEXT	SEGMENT
tv165 = 8						; size = 4
_pV$ = 8						; size = 4
?D3DXVec3LengthSq@@YAMPBUD3DXVECTOR3@@@Z PROC		; D3DXVec3LengthSq, COMDAT

; 1725 : {

  00000	55		 push	 ebp
  00001	8b ec		 mov	 ebp, esp

; 1726 : #ifdef D3DX_DEBUG
; 1727 :     if(!pV)
; 1728 :         return 0.0f;
; 1729 : #endif
; 1730 : 
; 1731 :     return pV->x * pV->x + pV->y * pV->y + pV->z * pV->z;

  00003	8b 45 08	 mov	 eax, DWORD PTR _pV$[ebp]
  00006	d9 40 04	 fld	 DWORD PTR [eax+4]
  00009	d9 00		 fld	 DWORD PTR [eax]
  0000b	d9 40 08	 fld	 DWORD PTR [eax+8]
  0000e	d9 c1		 fld	 ST(1)
  00010	de ca		 fmulp	 ST(2), ST(0)
  00012	d9 c2		 fld	 ST(2)
  00014	de cb		 fmulp	 ST(3), ST(0)
  00016	d9 c9		 fxch	 ST(1)
  00018	de c2		 faddp	 ST(2), ST(0)
  0001a	d9 c0		 fld	 ST(0)
  0001c	de c9		 fmulp	 ST(1), ST(0)
  0001e	de c1		 faddp	 ST(1), ST(0)
  00020	d9 5d 08	 fstp	 DWORD PTR tv165[ebp]
  00023	d9 45 08	 fld	 DWORD PTR tv165[ebp]

; 1732 : }

  00026	5d		 pop	 ebp
  00027	c3		 ret	 0
?D3DXVec3LengthSq@@YAMPBUD3DXVECTOR3@@@Z ENDP		; D3DXVec3LengthSq
_TEXT	ENDS
PUBLIC	?D3DXVec3Dot@@YAMPBUD3DXVECTOR3@@0@Z		; D3DXVec3Dot
; Function compile flags: /Ogsp
;	COMDAT ?D3DXVec3Dot@@YAMPBUD3DXVECTOR3@@0@Z
_TEXT	SEGMENT
tv188 = 8						; size = 4
_pV1$ = 8						; size = 4
_pV2$ = 12						; size = 4
?D3DXVec3Dot@@YAMPBUD3DXVECTOR3@@0@Z PROC		; D3DXVec3Dot, COMDAT

; 1736 : {

  00000	55		 push	 ebp
  00001	8b ec		 mov	 ebp, esp

; 1737 : #ifdef D3DX_DEBUG
; 1738 :     if(!pV1 || !pV2)
; 1739 :         return 0.0f;
; 1740 : #endif
; 1741 : 
; 1742 :     return pV1->x * pV2->x + pV1->y * pV2->y + pV1->z * pV2->z;

  00003	8b 45 08	 mov	 eax, DWORD PTR _pV1$[ebp]
  00006	8b 4d 0c	 mov	 ecx, DWORD PTR _pV2$[ebp]
  00009	d9 40 04	 fld	 DWORD PTR [eax+4]
  0000c	d8 49 04	 fmul	 DWORD PTR [ecx+4]
  0000f	d9 00		 fld	 DWORD PTR [eax]
  00011	d8 09		 fmul	 DWORD PTR [ecx]
  00013	de c1		 faddp	 ST(1), ST(0)
  00015	d9 40 08	 fld	 DWORD PTR [eax+8]
  00018	d8 49 08	 fmul	 DWORD PTR [ecx+8]
  0001b	de c1		 faddp	 ST(1), ST(0)
  0001d	d9 5d 08	 fstp	 DWORD PTR tv188[ebp]
  00020	d9 45 08	 fld	 DWORD PTR tv188[ebp]

; 1743 : }

  00023	5d		 pop	 ebp
  00024	c3		 ret	 0
?D3DXVec3Dot@@YAMPBUD3DXVECTOR3@@0@Z ENDP		; D3DXVec3Dot
_TEXT	ENDS
PUBLIC	??_H@YGXPAXIHP6EPAX0@Z@Z			; `vector constructor iterator'
; Function compile flags: /Ogsp
;	COMDAT ??_H@YGXPAXIHP6EPAX0@Z@Z
_TEXT	SEGMENT
___t$ = 8						; size = 4
___s$ = 12						; size = 4
___n$ = 16						; size = 4
___f$ = 20						; size = 4
??_H@YGXPAXIHP6EPAX0@Z@Z PROC				; `vector constructor iterator', COMDAT
  00000	55		 push	 ebp
  00001	8b ec		 mov	 ebp, esp
  00003	ff 4d 10	 dec	 DWORD PTR ___n$[ebp]
  00006	78 12		 js	 SHORT $LN1@vector
  00008	56		 push	 esi
  00009	8b 75 08	 mov	 esi, DWORD PTR ___t$[ebp]
$LL2@vector:
  0000c	8b ce		 mov	 ecx, esi
  0000e	ff 55 14	 call	 DWORD PTR ___f$[ebp]
  00011	03 75 0c	 add	 esi, DWORD PTR ___s$[ebp]
  00014	ff 4d 10	 dec	 DWORD PTR ___n$[ebp]
  00017	79 f3		 jns	 SHORT $LL2@vector
  00019	5e		 pop	 esi
$LN1@vector:
  0001a	5d		 pop	 ebp
  0001b	c2 10 00	 ret	 16			; 00000010H
??_H@YGXPAXIHP6EPAX0@Z@Z ENDP				; `vector constructor iterator'
_TEXT	ENDS
PUBLIC	??_R0?AVioGameEntity@@@8			; ioGameEntity `RTTI Type Descriptor'
PUBLIC	??_R0?AVioPlayEntity@@@8			; ioPlayEntity `RTTI Type Descriptor'
PUBLIC	?ToPlayEntity@@YAPAVioPlayEntity@@PAVioGameEntity@@@Z ; ToPlayEntity
EXTRN	___RTDynamicCast:PROC
;	COMDAT ??_R0?AVioGameEntity@@@8
; File d:\lost saga for developer\youtube\tutorial\source\src\lsclient\ioplayentity.h
_DATA	SEGMENT
??_R0?AVioGameEntity@@@8 DD FLAT:??_7type_info@@6B@	; ioGameEntity `RTTI Type Descriptor'
	DD	00H
	DB	'.?AVioGameEntity@@', 00H
_DATA	ENDS
;	COMDAT ??_R0?AVioPlayEntity@@@8
_DATA	SEGMENT
??_R0?AVioPlayEntity@@@8 DD FLAT:??_7type_info@@6B@	; ioPlayEntity `RTTI Type Descriptor'
	DD	00H
	DB	'.?AVioPlayEntity@@', 00H
; Function compile flags: /Ogsp
_DATA	ENDS
;	COMDAT ?ToPlayEntity@@YAPAVioPlayEntity@@PAVioGameEntity@@@Z
_TEXT	SEGMENT
_pObj$ = 8						; size = 4
?ToPlayEntity@@YAPAVioPlayEntity@@PAVioGameEntity@@@Z PROC ; ToPlayEntity, COMDAT

; 121  : {

  00000	55		 push	 ebp
  00001	8b ec		 mov	 ebp, esp
  00003	56		 push	 esi

; 122  : 	if( !pObj || pObj->GetTypeID() != ioGameEntity::GET_PLAY_ENTITY )

  00004	8b 75 08	 mov	 esi, DWORD PTR _pObj$[ebp]
  00007	85 f6		 test	 esi, esi
  00009	74 25		 je	 SHORT $LN1@ToPlayEnti
  0000b	8b 06		 mov	 eax, DWORD PTR [esi]
  0000d	8b ce		 mov	 ecx, esi
  0000f	ff 50 10	 call	 DWORD PTR [eax+16]
  00012	83 f8 01	 cmp	 eax, 1
  00015	75 19		 jne	 SHORT $LN1@ToPlayEnti

; 124  : 
; 125  : 	return dynamic_cast< ioPlayEntity* >( pObj );

  00017	6a 00		 push	 0
  00019	68 00 00 00 00	 push	 OFFSET ??_R0?AVioPlayEntity@@@8
  0001e	68 00 00 00 00	 push	 OFFSET ??_R0?AVioGameEntity@@@8
  00023	6a 00		 push	 0
  00025	56		 push	 esi
  00026	e8 00 00 00 00	 call	 ___RTDynamicCast
  0002b	83 c4 14	 add	 esp, 20			; 00000014H
  0002e	eb 02		 jmp	 SHORT $LN3@ToPlayEnti
$LN1@ToPlayEnti:

; 123  : 		return NULL;

  00030	33 c0		 xor	 eax, eax
$LN3@ToPlayEnti:
  00032	5e		 pop	 esi

; 126  : }

  00033	5d		 pop	 ebp
  00034	c3		 ret	 0
?ToPlayEntity@@YAPAVioPlayEntity@@PAVioGameEntity@@@Z ENDP ; ToPlayEntity
_TEXT	ENDS
PUBLIC	??_R0?AVioDummyChar@@@8				; ioDummyChar `RTTI Type Descriptor'
PUBLIC	?ToDummyChar@@YAPAVioDummyChar@@PAVioGameEntity@@@Z ; ToDummyChar
;	COMDAT ??_R0?AVioDummyChar@@@8
; File d:\lost saga for developer\youtube\tutorial\source\src\lsclient\iodummychar.h
_DATA	SEGMENT
??_R0?AVioDummyChar@@@8 DD FLAT:??_7type_info@@6B@	; ioDummyChar `RTTI Type Descriptor'
	DD	00H
	DB	'.?AVioDummyChar@@', 00H
; Function compile flags: /Ogsp
_DATA	ENDS
;	COMDAT ?ToDummyChar@@YAPAVioDummyChar@@PAVioGameEntity@@@Z
_TEXT	SEGMENT
_pObj$ = 8						; size = 4
?ToDummyChar@@YAPAVioDummyChar@@PAVioGameEntity@@@Z PROC ; ToDummyChar, COMDAT

; 758  : {

  00000	55		 push	 ebp
  00001	8b ec		 mov	 ebp, esp
  00003	56		 push	 esi

; 759  : 	ioPlayEntity *pPlay = ToPlayEntity( pObj );

  00004	ff 75 08	 push	 DWORD PTR _pObj$[ebp]
  00007	e8 00 00 00 00	 call	 ?ToPlayEntity@@YAPAVioPlayEntity@@PAVioGameEntity@@@Z ; ToPlayEntity
  0000c	8b f0		 mov	 esi, eax
  0000e	59		 pop	 ecx

; 760  : 	if( !pPlay || pPlay->GetSubType() != ioPlayEntity::PST_DUMMY_CHAR )

  0000f	85 f6		 test	 esi, esi
  00011	74 28		 je	 SHORT $LN1@ToDummyCha
  00013	8b 06		 mov	 eax, DWORD PTR [esi]
  00015	8b ce		 mov	 ecx, esi
  00017	ff 90 a4 00 00
	00		 call	 DWORD PTR [eax+164]
  0001d	83 f8 0a	 cmp	 eax, 10			; 0000000aH
  00020	75 19		 jne	 SHORT $LN1@ToDummyCha

; 762  : 
; 763  : 	return dynamic_cast< ioDummyChar* >( pPlay );

  00022	6a 00		 push	 0
  00024	68 00 00 00 00	 push	 OFFSET ??_R0?AVioDummyChar@@@8
  00029	68 00 00 00 00	 push	 OFFSET ??_R0?AVioPlayEntity@@@8
  0002e	6a 00		 push	 0
  00030	56		 push	 esi
  00031	e8 00 00 00 00	 call	 ___RTDynamicCast
  00036	83 c4 14	 add	 esp, 20			; 00000014H
  00039	eb 02		 jmp	 SHORT $LN3@ToDummyCha
$LN1@ToDummyCha:

; 761  : 		return NULL;

  0003b	33 c0		 xor	 eax, eax
$LN3@ToDummyCha:
  0003d	5e		 pop	 esi

; 764  : }

  0003e	5d		 pop	 ebp
  0003f	c3		 ret	 0
?ToDummyChar@@YAPAVioDummyChar@@PAVioGameEntity@@@Z ENDP ; ToDummyChar
_TEXT	ENDS
PUBLIC	?GetPrePosition@ioWeapon@@QBEABUD3DXVECTOR3@@XZ	; ioWeapon::GetPrePosition
; Function compile flags: /Ogsp
; File d:\lost saga for developer\youtube\tutorial\source\src\lsclient\ioweapon.h
;	COMDAT ?GetPrePosition@ioWeapon@@QBEABUD3DXVECTOR3@@XZ
_TEXT	SEGMENT
?GetPrePosition@ioWeapon@@QBEABUD3DXVECTOR3@@XZ PROC	; ioWeapon::GetPrePosition, COMDAT
; _this$ = ecx

; 530  : 	inline const D3DXVECTOR3& GetPrePosition() const { return m_vPreWorldPosition; }

  00000	8d 81 70 05 00
	00		 lea	 eax, DWORD PTR [ecx+1392]
  00006	c3		 ret	 0
?GetPrePosition@ioWeapon@@QBEABUD3DXVECTOR3@@XZ ENDP	; ioWeapon::GetPrePosition
_TEXT	ENDS
PUBLIC	??_R0?AVioWallZone@@@8				; ioWallZone `RTTI Type Descriptor'
PUBLIC	?ToWallZone@@YAPAVioWallZone@@PAVioGameEntity@@@Z ; ToWallZone
;	COMDAT ??_R0?AVioWallZone@@@8
; File d:\lost saga for developer\youtube\tutorial\source\src\lsclient\iowallzone.h
_DATA	SEGMENT
??_R0?AVioWallZone@@@8 DD FLAT:??_7type_info@@6B@	; ioWallZone `RTTI Type Descriptor'
	DD	00H
	DB	'.?AVioWallZone@@', 00H
; Function compile flags: /Ogsp
_DATA	ENDS
;	COMDAT ?ToWallZone@@YAPAVioWallZone@@PAVioGameEntity@@@Z
_TEXT	SEGMENT
_pObj$ = 8						; size = 4
?ToWallZone@@YAPAVioWallZone@@PAVioGameEntity@@@Z PROC	; ToWallZone, COMDAT

; 50   : {

  00000	55		 push	 ebp
  00001	8b ec		 mov	 ebp, esp
  00003	56		 push	 esi

; 51   : 	ioPlayEntity *pPlay = ToPlayEntity( pObj );

  00004	ff 75 08	 push	 DWORD PTR _pObj$[ebp]
  00007	e8 00 00 00 00	 call	 ?ToPlayEntity@@YAPAVioPlayEntity@@PAVioGameEntity@@@Z ; ToPlayEntity
  0000c	8b f0		 mov	 esi, eax
  0000e	59		 pop	 ecx

; 52   : 	if( !pPlay || pPlay->GetSubType() != ioPlayEntity::PST_WALL_ZONE )

  0000f	85 f6		 test	 esi, esi
  00011	74 28		 je	 SHORT $LN1@ToWallZone
  00013	8b 06		 mov	 eax, DWORD PTR [esi]
  00015	8b ce		 mov	 ecx, esi
  00017	ff 90 a4 00 00
	00		 call	 DWORD PTR [eax+164]
  0001d	83 f8 0b	 cmp	 eax, 11			; 0000000bH
  00020	75 19		 jne	 SHORT $LN1@ToWallZone

; 54   : 
; 55   : 	return dynamic_cast< ioWallZone* >( pPlay );

  00022	6a 00		 push	 0
  00024	68 00 00 00 00	 push	 OFFSET ??_R0?AVioWallZone@@@8
  00029	68 00 00 00 00	 push	 OFFSET ??_R0?AVioPlayEntity@@@8
  0002e	6a 00		 push	 0
  00030	56		 push	 esi
  00031	e8 00 00 00 00	 call	 ___RTDynamicCast
  00036	83 c4 14	 add	 esp, 20			; 00000014H
  00039	eb 02		 jmp	 SHORT $LN3@ToWallZone
$LN1@ToWallZone:

; 53   : 		return NULL;

  0003b	33 c0		 xor	 eax, eax
$LN3@ToWallZone:
  0003d	5e		 pop	 esi

; 56   : }

  0003e	5d		 pop	 ebp
  0003f	c3		 ret	 0
?ToWallZone@@YAPAVioWallZone@@PAVioGameEntity@@@Z ENDP	; ToWallZone
_TEXT	ENDS
PUBLIC	??_R0?AVioBall@@@8				; ioBall `RTTI Type Descriptor'
PUBLIC	?ToBallStruct@@YAPAVioBall@@PAVioGameEntity@@@Z	; ToBallStruct
;	COMDAT ??_R0?AVioBall@@@8
; File d:\lost saga for developer\youtube\tutorial\source\src\lsclient\ioball.h
_DATA	SEGMENT
??_R0?AVioBall@@@8 DD FLAT:??_7type_info@@6B@		; ioBall `RTTI Type Descriptor'
	DD	00H
	DB	'.?AVioBall@@', 00H
; Function compile flags: /Ogsp
_DATA	ENDS
;	COMDAT ?ToBallStruct@@YAPAVioBall@@PAVioGameEntity@@@Z
_TEXT	SEGMENT
_pObj$ = 8						; size = 4
?ToBallStruct@@YAPAVioBall@@PAVioGameEntity@@@Z PROC	; ToBallStruct, COMDAT

; 252  : {

  00000	55		 push	 ebp
  00001	8b ec		 mov	 ebp, esp
  00003	56		 push	 esi

; 253  : 	ioPlayEntity *pPlay = ToPlayEntity( pObj );

  00004	ff 75 08	 push	 DWORD PTR _pObj$[ebp]
  00007	e8 00 00 00 00	 call	 ?ToPlayEntity@@YAPAVioPlayEntity@@PAVioGameEntity@@@Z ; ToPlayEntity
  0000c	8b f0		 mov	 esi, eax
  0000e	59		 pop	 ecx

; 254  : 	if( !pPlay || pPlay->GetSubType() != ioPlayEntity::PST_BALL )

  0000f	85 f6		 test	 esi, esi
  00011	74 28		 je	 SHORT $LN1@ToBallStru
  00013	8b 06		 mov	 eax, DWORD PTR [esi]
  00015	8b ce		 mov	 ecx, esi
  00017	ff 90 a4 00 00
	00		 call	 DWORD PTR [eax+164]
  0001d	83 f8 08	 cmp	 eax, 8
  00020	75 19		 jne	 SHORT $LN1@ToBallStru

; 256  : 
; 257  : 	return dynamic_cast< ioBall* >( pPlay );

  00022	6a 00		 push	 0
  00024	68 00 00 00 00	 push	 OFFSET ??_R0?AVioBall@@@8
  00029	68 00 00 00 00	 push	 OFFSET ??_R0?AVioPlayEntity@@@8
  0002e	6a 00		 push	 0
  00030	56		 push	 esi
  00031	e8 00 00 00 00	 call	 ___RTDynamicCast
  00036	83 c4 14	 add	 esp, 20			; 00000014H
  00039	eb 02		 jmp	 SHORT $LN3@ToBallStru
$LN1@ToBallStru:

; 255  : 		return NULL;

  0003b	33 c0		 xor	 eax, eax
$LN3@ToBallStru:
  0003d	5e		 pop	 esi

; 258  : }

  0003e	5d		 pop	 ebp
  0003f	c3		 ret	 0
?ToBallStruct@@YAPAVioBall@@PAVioGameEntity@@@Z ENDP	; ToBallStruct
_TEXT	ENDS
PUBLIC	?size@?$vector@HV?$allocator@H@std@@@std@@QBEIXZ ; std::vector<int,std::allocator<int> >::size
; Function compile flags: /Ogsp
; File c:\program files (x86)\microsoft visual studio 10.0\vc\include\vector
;	COMDAT ?size@?$vector@HV?$allocator@H@std@@@std@@QBEIXZ
_TEXT	SEGMENT
?size@?$vector@HV?$allocator@H@std@@@std@@QBEIXZ PROC	; std::vector<int,std::allocator<int> >::size, COMDAT
; _this$ = ecx

; 879  : 		return (this->_Mylast - this->_Myfirst);

  00000	8b 41 04	 mov	 eax, DWORD PTR [ecx+4]
  00003	2b 01		 sub	 eax, DWORD PTR [ecx]
  00005	c1 f8 02	 sar	 eax, 2

; 880  : 		}

  00008	c3		 ret	 0
?size@?$vector@HV?$allocator@H@std@@@std@@QBEIXZ ENDP	; std::vector<int,std::allocator<int> >::size
_TEXT	ENDS
PUBLIC	??A?$vector@HV?$allocator@H@std@@@std@@QBEABHI@Z ; std::vector<int,std::allocator<int> >::operator[]
; Function compile flags: /Ogsp
;	COMDAT ??A?$vector@HV?$allocator@H@std@@@std@@QBEABHI@Z
_TEXT	SEGMENT
__Pos$ = 8						; size = 4
??A?$vector@HV?$allocator@H@std@@@std@@QBEABHI@Z PROC	; std::vector<int,std::allocator<int> >::operator[], COMDAT
; _this$ = ecx

; 912  : 		{	// subscript nonmutable sequence

  00000	55		 push	 ebp
  00001	8b ec		 mov	 ebp, esp

; 913  :  #if _ITERATOR_DEBUG_LEVEL == 2
; 914  : 		if (size() <= _Pos)
; 915  : 			{	// report error
; 916  : 			_DEBUG_ERROR("vector subscript out of range");
; 917  : 			_SCL_SECURE_OUT_OF_RANGE;
; 918  : 			}
; 919  : 
; 920  :  #elif _ITERATOR_DEBUG_LEVEL == 1
; 921  : 		_SCL_SECURE_VALIDATE_RANGE(_Pos < size());
; 922  :  #endif /* _ITERATOR_DEBUG_LEVEL */
; 923  : 
; 924  : 		return (*(this->_Myfirst + _Pos));

  00003	8b 01		 mov	 eax, DWORD PTR [ecx]
  00005	8b 4d 08	 mov	 ecx, DWORD PTR __Pos$[ebp]
  00008	8d 04 88	 lea	 eax, DWORD PTR [eax+ecx*4]

; 925  : 		}

  0000b	5d		 pop	 ebp
  0000c	c2 04 00	 ret	 4
??A?$vector@HV?$allocator@H@std@@@std@@QBEABHI@Z ENDP	; std::vector<int,std::allocator<int> >::operator[]
_TEXT	ENDS
EXTRN	__imp_??0exception@std@@QAE@ABV01@@Z:PROC
; Function compile flags: /Ogsp
;	COMDAT ??0bad_alloc@std@@QAE@ABV01@@Z
_TEXT	SEGMENT
___that$ = 8						; size = 4
??0bad_alloc@std@@QAE@ABV01@@Z PROC			; std::bad_alloc::bad_alloc, COMDAT
; _this$ = ecx
  00000	55		 push	 ebp
  00001	8b ec		 mov	 ebp, esp
  00003	56		 push	 esi
  00004	ff 75 08	 push	 DWORD PTR ___that$[ebp]
  00007	8b f1		 mov	 esi, ecx
  00009	ff 15 00 00 00
	00		 call	 DWORD PTR __imp_??0exception@std@@QAE@ABV01@@Z
  0000f	c7 06 00 00 00
	00		 mov	 DWORD PTR [esi], OFFSET ??_7bad_alloc@std@@6B@
  00015	8b c6		 mov	 eax, esi
  00017	5e		 pop	 esi
  00018	5d		 pop	 ebp
  00019	c2 04 00	 ret	 4
??0bad_alloc@std@@QAE@ABV01@@Z ENDP			; std::bad_alloc::bad_alloc
_TEXT	ENDS
PUBLIC	??_R0?AVioBaseChar@@@8				; ioBaseChar `RTTI Type Descriptor'
PUBLIC	?ToBaseChar@@YAPAVioBaseChar@@PAVioGameEntity@@@Z ; ToBaseChar
;	COMDAT ??_R0?AVioBaseChar@@@8
; File d:\lost saga for developer\youtube\tutorial\source\src\lsclient\iobasechar.h
_DATA	SEGMENT
??_R0?AVioBaseChar@@@8 DD FLAT:??_7type_info@@6B@	; ioBaseChar `RTTI Type Descriptor'
	DD	00H
	DB	'.?AVioBaseChar@@', 00H
; Function compile flags: /Ogsp
_DATA	ENDS
;	COMDAT ?ToBaseChar@@YAPAVioBaseChar@@PAVioGameEntity@@@Z
_TEXT	SEGMENT
_pObj$ = 8						; size = 4
?ToBaseChar@@YAPAVioBaseChar@@PAVioGameEntity@@@Z PROC	; ToBaseChar, COMDAT

; 4326 : {

  00000	55		 push	 ebp
  00001	8b ec		 mov	 ebp, esp
  00003	56		 push	 esi

; 4327 : 	ioPlayEntity *pPlay = ToPlayEntity( pObj );

  00004	ff 75 08	 push	 DWORD PTR _pObj$[ebp]
  00007	e8 00 00 00 00	 call	 ?ToPlayEntity@@YAPAVioPlayEntity@@PAVioGameEntity@@@Z ; ToPlayEntity
  0000c	8b f0		 mov	 esi, eax
  0000e	59		 pop	 ecx

; 4328 : 	if( !pPlay || pPlay->GetSubType() != ioPlayEntity::PST_CHAR )

  0000f	85 f6		 test	 esi, esi
  00011	74 25		 je	 SHORT $LN1@ToBaseChar
  00013	8b 06		 mov	 eax, DWORD PTR [esi]
  00015	8b ce		 mov	 ecx, esi
  00017	ff 90 a4 00 00
	00		 call	 DWORD PTR [eax+164]
  0001d	85 c0		 test	 eax, eax
  0001f	75 17		 jne	 SHORT $LN1@ToBaseChar

; 4330 : 
; 4331 : 	return dynamic_cast< ioBaseChar* >( pPlay );

  00021	50		 push	 eax
  00022	68 00 00 00 00	 push	 OFFSET ??_R0?AVioBaseChar@@@8
  00027	68 00 00 00 00	 push	 OFFSET ??_R0?AVioPlayEntity@@@8
  0002c	50		 push	 eax
  0002d	56		 push	 esi
  0002e	e8 00 00 00 00	 call	 ___RTDynamicCast
  00033	83 c4 14	 add	 esp, 20			; 00000014H
  00036	eb 02		 jmp	 SHORT $LN3@ToBaseChar
$LN1@ToBaseChar:

; 4329 : 		return NULL;

  00038	33 c0		 xor	 eax, eax
$LN3@ToBaseChar:
  0003a	5e		 pop	 esi

; 4332 : }

  0003b	5d		 pop	 ebp
  0003c	c3		 ret	 0
?ToBaseChar@@YAPAVioBaseChar@@PAVioGameEntity@@@Z ENDP	; ToBaseChar
_TEXT	ENDS
PUBLIC	??_R0?AVioNpcChar@@@8				; ioNpcChar `RTTI Type Descriptor'
PUBLIC	?ToNpcChar@@YAPAVioNpcChar@@PAVioGameEntity@@@Z	; ToNpcChar
;	COMDAT ??_R0?AVioNpcChar@@@8
; File d:\lost saga for developer\youtube\tutorial\source\src\lsclient\ionpcchar.h
_DATA	SEGMENT
??_R0?AVioNpcChar@@@8 DD FLAT:??_7type_info@@6B@	; ioNpcChar `RTTI Type Descriptor'
	DD	00H
	DB	'.?AVioNpcChar@@', 00H
; Function compile flags: /Ogsp
_DATA	ENDS
;	COMDAT ?ToNpcChar@@YAPAVioNpcChar@@PAVioGameEntity@@@Z
_TEXT	SEGMENT
_pObj$ = 8						; size = 4
?ToNpcChar@@YAPAVioNpcChar@@PAVioGameEntity@@@Z PROC	; ToNpcChar, COMDAT

; 361  : {

  00000	55		 push	 ebp
  00001	8b ec		 mov	 ebp, esp
  00003	56		 push	 esi

; 362  : 	ioBaseChar *pChar = ToBaseChar( pObj );

  00004	ff 75 08	 push	 DWORD PTR _pObj$[ebp]
  00007	e8 00 00 00 00	 call	 ?ToBaseChar@@YAPAVioBaseChar@@PAVioGameEntity@@@Z ; ToBaseChar
  0000c	8b f0		 mov	 esi, eax
  0000e	59		 pop	 ecx

; 363  : 	if( !pChar || pChar->GetControlType() != CONTROL_AI )

  0000f	85 f6		 test	 esi, esi
  00011	74 28		 je	 SHORT $LN1@ToNpcChar
  00013	8b 06		 mov	 eax, DWORD PTR [esi]
  00015	8b ce		 mov	 ecx, esi
  00017	ff 90 ec 00 00
	00		 call	 DWORD PTR [eax+236]
  0001d	83 f8 02	 cmp	 eax, 2
  00020	75 19		 jne	 SHORT $LN1@ToNpcChar

; 365  : 
; 366  : 	return dynamic_cast< ioNpcChar* >(pChar);

  00022	6a 00		 push	 0
  00024	68 00 00 00 00	 push	 OFFSET ??_R0?AVioNpcChar@@@8
  00029	68 00 00 00 00	 push	 OFFSET ??_R0?AVioBaseChar@@@8
  0002e	6a 00		 push	 0
  00030	56		 push	 esi
  00031	e8 00 00 00 00	 call	 ___RTDynamicCast
  00036	83 c4 14	 add	 esp, 20			; 00000014H
  00039	eb 02		 jmp	 SHORT $LN3@ToNpcChar
$LN1@ToNpcChar:

; 364  : 		return NULL;

  0003b	33 c0		 xor	 eax, eax
$LN3@ToNpcChar:
  0003d	5e		 pop	 esi

; 367  : }

  0003e	5d		 pop	 ebp
  0003f	c3		 ret	 0
?ToNpcChar@@YAPAVioNpcChar@@PAVioGameEntity@@@Z ENDP	; ToNpcChar
_TEXT	ENDS
PUBLIC	__real@491c4000
PUBLIC	?IsCollisionCheckRange@ioMapCollisionHelper@@YA_NABUD3DXVECTOR3@@0@Z ; ioMapCollisionHelper::IsCollisionCheckRange
;	COMDAT __real@491c4000
; File c:\program files (x86)\microsoft directx sdk (june 2010)\include\d3dx9math.inl
CONST	SEGMENT
__real@491c4000 DD 0491c4000r			; 640000
; Function compile flags: /Ogsp
; File d:\lost saga for developer\youtube\tutorial\source\src\lsclient\iomapcollisionhelper.cpp
CONST	ENDS
;	COMDAT ?IsCollisionCheckRange@ioMapCollisionHelper@@YA_NABUD3DXVECTOR3@@0@Z
_TEXT	SEGMENT
_vPos1$ = 8						; size = 4
_vPos2$ = 12						; size = 4
?IsCollisionCheckRange@ioMapCollisionHelper@@YA_NABUD3DXVECTOR3@@0@Z PROC ; ioMapCollisionHelper::IsCollisionCheckRange, COMDAT

; 16   : 	{

  00000	55		 push	 ebp
  00001	8b ec		 mov	 ebp, esp

; 17   : 		D3DXVECTOR3 vDiff = vPos1 - vPos2;

  00003	8b 45 08	 mov	 eax, DWORD PTR _vPos1$[ebp]
  00006	8b 4d 0c	 mov	 ecx, DWORD PTR _vPos2$[ebp]
  00009	f3 0f 10 00	 movss	 xmm0, DWORD PTR [eax]
  0000d	f3 0f 10 09	 movss	 xmm1, DWORD PTR [ecx]
  00011	f3 0f 10 51 04	 movss	 xmm2, DWORD PTR [ecx+4]
  00016	f3 0f 10 59 08	 movss	 xmm3, DWORD PTR [ecx+8]
  0001b	0f 5a c9	 cvtps2pd xmm1, xmm1
  0001e	0f 5a c0	 cvtps2pd xmm0, xmm0
  00021	f2 0f 5c c1	 subsd	 xmm0, xmm1
  00025	f3 0f 10 48 04	 movss	 xmm1, DWORD PTR [eax+4]
  0002a	0f 5a c9	 cvtps2pd xmm1, xmm1
  0002d	0f 5a d2	 cvtps2pd xmm2, xmm2
  00030	f2 0f 5c ca	 subsd	 xmm1, xmm2
  00034	f3 0f 10 50 08	 movss	 xmm2, DWORD PTR [eax+8]
  00039	66 0f 5a c0	 cvtpd2ps xmm0, xmm0
  0003d	66 0f 5a c9	 cvtpd2ps xmm1, xmm1
  00041	0f 5a d2	 cvtps2pd xmm2, xmm2

; 18   : 		if( D3DXVec3LengthSq( &vDiff ) < CHECK_COLLISION_RANGE * CHECK_COLLISION_RANGE )

  00044	f3 0f 5a c0	 cvtss2sd xmm0, xmm0
  00048	f2 0f 59 c0	 mulsd	 xmm0, xmm0
  0004c	f3 0f 5a c9	 cvtss2sd xmm1, xmm1
  00050	0f 5a db	 cvtps2pd xmm3, xmm3
  00053	f2 0f 5c d3	 subsd	 xmm2, xmm3
  00057	66 0f 5a d2	 cvtpd2ps xmm2, xmm2
  0005b	f2 0f 59 c9	 mulsd	 xmm1, xmm1
  0005f	f2 0f 58 c8	 addsd	 xmm1, xmm0
  00063	f3 0f 5a d2	 cvtss2sd xmm2, xmm2
  00067	f2 0f 59 d2	 mulsd	 xmm2, xmm2
  0006b	f2 0f 58 ca	 addsd	 xmm1, xmm2
  0006f	66 0f 5a c1	 cvtpd2ps xmm0, xmm1
  00073	f3 0f 10 0d 00
	00 00 00	 movss	 xmm1, DWORD PTR __real@491c4000
  0007b	0f 2f c8	 comiss	 xmm1, xmm0
  0007e	76 04		 jbe	 SHORT $LN1@IsCollisio

; 19   : 			return true;

  00080	b0 01		 mov	 al, 1

; 22   : 	}

  00082	5d		 pop	 ebp
  00083	c3		 ret	 0
$LN1@IsCollisio:

; 20   : 
; 21   : 		return false;

  00084	32 c0		 xor	 al, al

; 22   : 	}

  00086	5d		 pop	 ebp
  00087	c3		 ret	 0
?IsCollisionCheckRange@ioMapCollisionHelper@@YA_NABUD3DXVECTOR3@@0@Z ENDP ; ioMapCollisionHelper::IsCollisionCheckRange
_TEXT	ENDS
PUBLIC	__real@3fecccccc0000000
PUBLIC	__mask@@AbsDouble@
PUBLIC	?ModifyMoveDir@ioMapCollisionHelper@@YA_NABVioAxisAlignBox@@00_NPAUD3DXVECTOR3@@@Z ; ioMapCollisionHelper::ModifyMoveDir
EXTRN	__imp_?UNIT_Z@ioMath@@2UD3DXVECTOR3@@A:BYTE
EXTRN	__imp_?UNIT_X@ioMath@@2UD3DXVECTOR3@@A:BYTE
EXTRN	__imp_?GetCenter@ioAxisAlignBox@@QBEABUD3DXVECTOR3@@XZ:PROC
EXTRN	__imp_?GetMaxPos@ioAxisAlignBox@@QBEABUD3DXVECTOR3@@XZ:PROC
EXTRN	__imp_?GetMinPos@ioAxisAlignBox@@QBEABUD3DXVECTOR3@@XZ:PROC
;	COMDAT __real@3fecccccc0000000
; File c:\program files (x86)\microsoft directx sdk (june 2010)\include\d3dx9math.inl
CONST	SEGMENT
__real@3fecccccc0000000 DQ 03fecccccc0000000r	; 0.9
CONST	ENDS
;	COMDAT __mask@@AbsDouble@
CONST	SEGMENT
__mask@@AbsDouble@ DB 0ffH, 0ffH, 0ffH, 0ffH, 0ffH, 0ffH, 0ffH, 07fH, 0ffH
	DB	0ffH, 0ffH, 0ffH, 0ffH, 0ffH, 0ffH, 07fH
; Function compile flags: /Ogsp
; File d:\lost saga for developer\youtube\tutorial\source\src\lsclient\iomapcollisionhelper.cpp
CONST	ENDS
;	COMDAT ?ModifyMoveDir@ioMapCollisionHelper@@YA_NABVioAxisAlignBox@@00_NPAUD3DXVECTOR3@@@Z
_TEXT	SEGMENT
_vMax$ = -36						; size = 12
_vBackMove$ = -24					; size = 12
$T531640 = -24						; size = 12
$T531636 = -24						; size = 12
_vCenter$ = -24						; size = 12
_vPlaneNrm$ = -12					; size = 12
_vMin$ = -12						; size = 12
tv678 = -8						; size = 8
_rkSrcBox$ = 8						; size = 4
_rkMoveBox$ = 12					; size = 4
_rkDestBox$ = 16					; size = 4
_bForceMove$ = 20					; size = 1
_pMove$ = 24						; size = 4
?ModifyMoveDir@ioMapCollisionHelper@@YA_NABVioAxisAlignBox@@00_NPAUD3DXVECTOR3@@@Z PROC ; ioMapCollisionHelper::ModifyMoveDir, COMDAT

; 34   : 	{

  00000	55		 push	 ebp
  00001	8b ec		 mov	 ebp, esp
  00003	83 ec 24	 sub	 esp, 36			; 00000024H

; 35   : 		D3DXVECTOR3 vMin = rkDestBox.GetMinPos();

  00006	8b 4d 10	 mov	 ecx, DWORD PTR _rkDestBox$[ebp]
  00009	56		 push	 esi
  0000a	57		 push	 edi
  0000b	ff 15 00 00 00
	00		 call	 DWORD PTR __imp_?GetMinPos@ioAxisAlignBox@@QBEABUD3DXVECTOR3@@XZ

; 36   : 		D3DXVECTOR3 vMax = rkDestBox.GetMaxPos();

  00011	8b 4d 10	 mov	 ecx, DWORD PTR _rkDestBox$[ebp]
  00014	8b f0		 mov	 esi, eax
  00016	8d 7d f4	 lea	 edi, DWORD PTR _vMin$[ebp]
  00019	a5		 movsd
  0001a	a5		 movsd
  0001b	a5		 movsd
  0001c	ff 15 00 00 00
	00		 call	 DWORD PTR __imp_?GetMaxPos@ioAxisAlignBox@@QBEABUD3DXVECTOR3@@XZ

; 37   : 		D3DXVECTOR3 vCenter = rkMoveBox.GetCenter();

  00022	8b 4d 0c	 mov	 ecx, DWORD PTR _rkMoveBox$[ebp]
  00025	8b f0		 mov	 esi, eax
  00027	8d 7d dc	 lea	 edi, DWORD PTR _vMax$[ebp]
  0002a	a5		 movsd
  0002b	a5		 movsd
  0002c	a5		 movsd
  0002d	ff 15 00 00 00
	00		 call	 DWORD PTR __imp_?GetCenter@ioAxisAlignBox@@QBEABUD3DXVECTOR3@@XZ

; 38   : 
; 39   : 		if( COMPARE( vCenter.x, vMin.x, vMax.x ) &&	COMPARE( vCenter.z, vMin.z, vMax.z ) )

  00033	f3 0f 10 4d f4	 movss	 xmm1, DWORD PTR _vMin$[ebp]
  00038	8b f0		 mov	 esi, eax
  0003a	8d 7d e8	 lea	 edi, DWORD PTR _vCenter$[ebp]
  0003d	a5		 movsd
  0003e	a5		 movsd
  0003f	a5		 movsd
  00040	f3 0f 10 45 e8	 movss	 xmm0, DWORD PTR _vCenter$[ebp]
  00045	0f 5a c0	 cvtps2pd xmm0, xmm0
  00048	0f 5a c9	 cvtps2pd xmm1, xmm1
  0004b	66 0f 2f c1	 comisd	 xmm0, xmm1
  0004f	72 49		 jb	 SHORT $LN10@ModifyMove
  00051	f3 0f 10 45 e8	 movss	 xmm0, DWORD PTR _vCenter$[ebp]
  00056	f3 0f 10 4d dc	 movss	 xmm1, DWORD PTR _vMax$[ebp]
  0005b	0f 5a c0	 cvtps2pd xmm0, xmm0
  0005e	0f 5a c9	 cvtps2pd xmm1, xmm1
  00061	66 0f 2f c8	 comisd	 xmm1, xmm0
  00065	76 33		 jbe	 SHORT $LN10@ModifyMove
  00067	f3 0f 10 45 f0	 movss	 xmm0, DWORD PTR _vCenter$[ebp+8]
  0006c	f3 0f 10 4d fc	 movss	 xmm1, DWORD PTR _vMin$[ebp+8]
  00071	0f 5a c0	 cvtps2pd xmm0, xmm0
  00074	0f 5a c9	 cvtps2pd xmm1, xmm1
  00077	66 0f 2f c1	 comisd	 xmm0, xmm1
  0007b	72 1d		 jb	 SHORT $LN10@ModifyMove
  0007d	f3 0f 10 45 f0	 movss	 xmm0, DWORD PTR _vCenter$[ebp+8]
  00082	f3 0f 10 4d e4	 movss	 xmm1, DWORD PTR _vMax$[ebp+8]
  00087	0f 5a c0	 cvtps2pd xmm0, xmm0
  0008a	0f 5a c9	 cvtps2pd xmm1, xmm1
  0008d	66 0f 2f c8	 comisd	 xmm1, xmm0
  00091	76 07		 jbe	 SHORT $LN10@ModifyMove
$LN45@ModifyMove:

; 40   : 			return false;

  00093	32 c0		 xor	 al, al
  00095	e9 87 02 00 00	 jmp	 $LN11@ModifyMove
$LN10@ModifyMove:

; 41   : 
; 42   : 		D3DXVECTOR3 vPlaneNrm;
; 43   : 
; 44   : 		D3DXVECTOR3 vDiff = rkSrcBox.GetCenter() - rkDestBox.GetCenter();

  0009a	8b 4d 10	 mov	 ecx, DWORD PTR _rkDestBox$[ebp]
  0009d	ff 15 00 00 00
	00		 call	 DWORD PTR __imp_?GetCenter@ioAxisAlignBox@@QBEABUD3DXVECTOR3@@XZ
  000a3	8b 4d 08	 mov	 ecx, DWORD PTR _rkSrcBox$[ebp]
  000a6	8b f0		 mov	 esi, eax
  000a8	ff 15 00 00 00
	00		 call	 DWORD PTR __imp_?GetCenter@ioAxisAlignBox@@QBEABUD3DXVECTOR3@@XZ
  000ae	f3 0f 10 00	 movss	 xmm0, DWORD PTR [eax]
  000b2	f3 0f 10 0e	 movss	 xmm1, DWORD PTR [esi]
  000b6	f3 0f 10 56 08	 movss	 xmm2, DWORD PTR [esi+8]
  000bb	0f 5a c0	 cvtps2pd xmm0, xmm0
  000be	0f 5a c9	 cvtps2pd xmm1, xmm1
  000c1	f2 0f 5c c1	 subsd	 xmm0, xmm1
  000c5	0f 57 c9	 xorps	 xmm1, xmm1
  000c8	66 0f 5a c8	 cvtpd2ps xmm1, xmm0
  000cc	f3 0f 10 40 08	 movss	 xmm0, DWORD PTR [eax+8]

; 45   : 		if( fabsf( vDiff.x ) > fabsf( vDiff.z ) )

  000d1	8b 45 18	 mov	 eax, DWORD PTR _pMove$[ebp]
  000d4	0f 5a c0	 cvtps2pd xmm0, xmm0
  000d7	0f 5a d2	 cvtps2pd xmm2, xmm2
  000da	f2 0f 5c c2	 subsd	 xmm0, xmm2
  000de	0f 57 d2	 xorps	 xmm2, xmm2
  000e1	66 0f 5a d0	 cvtpd2ps xmm2, xmm0
  000e5	0f 5a d9	 cvtps2pd xmm3, xmm1
  000e8	66 0f 54 1d 00
	00 00 00	 andpd	 xmm3, QWORD PTR __mask@@AbsDouble@
  000f0	0f 5a e2	 cvtps2pd xmm4, xmm2
  000f3	66 0f 54 25 00
	00 00 00	 andpd	 xmm4, QWORD PTR __mask@@AbsDouble@
  000fb	0f 57 c0	 xorps	 xmm0, xmm0
  000fe	f2 0f 5a db	 cvtsd2ss xmm3, xmm3
  00102	f2 0f 5a c4	 cvtsd2ss xmm0, xmm4
  00106	f3 0f 5a db	 cvtss2sd xmm3, xmm3
  0010a	0f 5a c0	 cvtps2pd xmm0, xmm0
  0010d	66 0f 2f d8	 comisd	 xmm3, xmm0

; 48   : 			{
; 49   : 				vPlaneNrm = ioMath::UNIT_X;

  00111	8d 7d f4	 lea	 edi, DWORD PTR _vPlaneNrm$[ebp]
  00114	76 57		 jbe	 SHORT $LN9@ModifyMove

; 46   : 		{
; 47   : 			if( vDiff.x > 0.0f )

  00116	0f 57 d2	 xorps	 xmm2, xmm2
  00119	0f 2f ca	 comiss	 xmm1, xmm2
  0011c	76 08		 jbe	 SHORT $LN8@ModifyMove

; 48   : 			{
; 49   : 				vPlaneNrm = ioMath::UNIT_X;

  0011e	8b 35 00 00 00
	00		 mov	 esi, DWORD PTR __imp_?UNIT_X@ioMath@@2UD3DXVECTOR3@@A

; 50   : 			}
; 51   : 			else

  00124	eb 37		 jmp	 SHORT $LN43@ModifyMove
$LN8@ModifyMove:

; 52   : 			{
; 53   : 				vPlaneNrm = -ioMath::UNIT_X;

  00126	8b 0d 00 00 00
	00		 mov	 ecx, DWORD PTR __imp_?UNIT_X@ioMath@@2UD3DXVECTOR3@@A
  0012c	f3 0f 10 05 00
	00 00 00	 movss	 xmm0, DWORD PTR __mask@@NegFloat@
  00134	f3 0f 10 09	 movss	 xmm1, DWORD PTR [ecx]
  00138	0f 57 c8	 xorps	 xmm1, xmm0
  0013b	f3 0f 11 4d e8	 movss	 DWORD PTR $T531636[ebp], xmm1
  00140	f3 0f 10 49 04	 movss	 xmm1, DWORD PTR [ecx+4]
  00145	0f 57 c8	 xorps	 xmm1, xmm0
  00148	f3 0f 11 4d ec	 movss	 DWORD PTR $T531636[ebp+4], xmm1
  0014d	f3 0f 10 49 08	 movss	 xmm1, DWORD PTR [ecx+8]
  00152	0f 57 c8	 xorps	 xmm1, xmm0
  00155	f3 0f 11 4d f0	 movss	 DWORD PTR $T531636[ebp+8], xmm1
  0015a	8d 75 e8	 lea	 esi, DWORD PTR $T531636[ebp]
$LN43@ModifyMove:

; 54   : 			}
; 55   : 
; 56   : 			if( bForceMove )

  0015d	80 7d 14 00	 cmp	 BYTE PTR _bForceMove$[ebp], 0
  00161	a5		 movsd
  00162	a5		 movsd
  00163	a5		 movsd
  00164	74 5b		 je	 SHORT $LN2@ModifyMove

; 57   : 				pMove->z = 0.0f;

  00166	f3 0f 11 50 08	 movss	 DWORD PTR [eax+8], xmm2

; 58   : 		}
; 59   : 		else

  0016b	eb 54		 jmp	 SHORT $LN2@ModifyMove
$LN9@ModifyMove:

; 60   : 		{
; 61   : 			if( vDiff.z > 0.0f )

  0016d	0f 57 c9	 xorps	 xmm1, xmm1
  00170	0f 2f d1	 comiss	 xmm2, xmm1
  00173	76 39		 jbe	 SHORT $LN4@ModifyMove

; 62   : 			{
; 63   : 				vPlaneNrm = -ioMath::UNIT_Z;

  00175	8b 0d 00 00 00
	00		 mov	 ecx, DWORD PTR __imp_?UNIT_Z@ioMath@@2UD3DXVECTOR3@@A
  0017b	f3 0f 10 05 00
	00 00 00	 movss	 xmm0, DWORD PTR __mask@@NegFloat@
  00183	f3 0f 10 11	 movss	 xmm2, DWORD PTR [ecx]
  00187	0f 57 d0	 xorps	 xmm2, xmm0
  0018a	f3 0f 11 55 e8	 movss	 DWORD PTR $T531640[ebp], xmm2
  0018f	f3 0f 10 51 04	 movss	 xmm2, DWORD PTR [ecx+4]
  00194	0f 57 d0	 xorps	 xmm2, xmm0
  00197	f3 0f 11 55 ec	 movss	 DWORD PTR $T531640[ebp+4], xmm2
  0019c	f3 0f 10 51 08	 movss	 xmm2, DWORD PTR [ecx+8]
  001a1	0f 57 d0	 xorps	 xmm2, xmm0
  001a4	f3 0f 11 55 f0	 movss	 DWORD PTR $T531640[ebp+8], xmm2
  001a9	8d 75 e8	 lea	 esi, DWORD PTR $T531640[ebp]

; 64   : 			}
; 65   : 			else

  001ac	eb 06		 jmp	 SHORT $LN44@ModifyMove
$LN4@ModifyMove:

; 66   : 			{
; 67   : 				vPlaneNrm = ioMath::UNIT_Z;

  001ae	8b 35 00 00 00
	00		 mov	 esi, DWORD PTR __imp_?UNIT_Z@ioMath@@2UD3DXVECTOR3@@A
$LN44@ModifyMove:

; 68   : 			}
; 69   : 
; 70   : 			if( bForceMove )

  001b4	80 7d 14 00	 cmp	 BYTE PTR _bForceMove$[ebp], 0
  001b8	a5		 movsd
  001b9	a5		 movsd
  001ba	a5		 movsd
  001bb	74 04		 je	 SHORT $LN2@ModifyMove

; 71   : 				pMove->x = 0.0f;

  001bd	f3 0f 11 08	 movss	 DWORD PTR [eax], xmm1
$LN2@ModifyMove:

; 72   : 		}
; 73   : 
; 74   : 		float fRate = 0.9f;
; 75   : 
; 76   : 		D3DXVECTOR3 vBackMove = vPlaneNrm * ( D3DXVec3Dot( pMove, &vPlaneNrm ) * fRate );

  001c1	f3 0f 10 65 f8	 movss	 xmm4, DWORD PTR _vPlaneNrm$[ebp+4]
  001c6	f3 0f 10 48 04	 movss	 xmm1, DWORD PTR [eax+4]
  001cb	f3 0f 10 10	 movss	 xmm2, DWORD PTR [eax]
  001cf	f3 0f 10 6d f4	 movss	 xmm5, DWORD PTR _vPlaneNrm$[ebp]
  001d4	f3 0f 10 58 08	 movss	 xmm3, DWORD PTR [eax+8]
  001d9	0f 5a e4	 cvtps2pd xmm4, xmm4
  001dc	0f 5a c1	 cvtps2pd xmm0, xmm1
  001df	f2 0f 59 c4	 mulsd	 xmm0, xmm4
  001e3	0f 5a ed	 cvtps2pd xmm5, xmm5
  001e6	0f 57 f6	 xorps	 xmm6, xmm6
  001e9	0f 5a e2	 cvtps2pd xmm4, xmm2
  001ec	f2 0f 59 e5	 mulsd	 xmm4, xmm5
  001f0	f2 0f 58 c4	 addsd	 xmm0, xmm4
  001f4	f3 0f 10 6d fc	 movss	 xmm5, DWORD PTR _vPlaneNrm$[ebp+8]
  001f9	0f 5a ed	 cvtps2pd xmm5, xmm5
  001fc	0f 5a e3	 cvtps2pd xmm4, xmm3
  001ff	f2 0f 59 e5	 mulsd	 xmm4, xmm5
  00203	f2 0f 58 c4	 addsd	 xmm0, xmm4
  00207	f3 0f 10 65 f4	 movss	 xmm4, DWORD PTR _vPlaneNrm$[ebp]
  0020c	66 0f 5a c0	 cvtpd2ps xmm0, xmm0
  00210	f3 0f 5a c0	 cvtss2sd xmm0, xmm0
  00214	f2 0f 59 05 00
	00 00 00	 mulsd	 xmm0, QWORD PTR __real@3fecccccc0000000
  0021c	66 0f 5a c0	 cvtpd2ps xmm0, xmm0
  00220	0f 5a e4	 cvtps2pd xmm4, xmm4
  00223	0f 57 ed	 xorps	 xmm5, xmm5
  00226	f3 0f 5a e8	 cvtss2sd xmm5, xmm0
  0022a	f2 0f 59 e5	 mulsd	 xmm4, xmm5
  0022e	f2 0f 5a e4	 cvtsd2ss xmm4, xmm4
  00232	f3 0f 11 65 e8	 movss	 DWORD PTR _vBackMove$[ebp], xmm4
  00237	f3 0f 10 65 f8	 movss	 xmm4, DWORD PTR _vPlaneNrm$[ebp+4]
  0023c	0f 5a e4	 cvtps2pd xmm4, xmm4
  0023f	0f 57 ed	 xorps	 xmm5, xmm5
  00242	f3 0f 5a e8	 cvtss2sd xmm5, xmm0
  00246	f2 0f 59 e5	 mulsd	 xmm4, xmm5
  0024a	f3 0f 5a c0	 cvtss2sd xmm0, xmm0
  0024e	f2 0f 5a f4	 cvtsd2ss xmm6, xmm4
  00252	f3 0f 10 65 fc	 movss	 xmm4, DWORD PTR _vPlaneNrm$[ebp+8]
  00257	0f 5a e4	 cvtps2pd xmm4, xmm4
  0025a	f2 0f 59 e0	 mulsd	 xmm4, xmm0
  0025e	0f 57 c0	 xorps	 xmm0, xmm0
  00261	f2 0f 5a c4	 cvtsd2ss xmm0, xmm4
  00265	f3 0f 11 45 f0	 movss	 DWORD PTR _vBackMove$[ebp+8], xmm0

; 77   : 		if( D3DXVec3LengthSq( pMove ) <= D3DXVec3LengthSq( &vBackMove ) )

  0026a	0f 5a eb	 cvtps2pd xmm5, xmm3
  0026d	f2 0f 59 ed	 mulsd	 xmm5, xmm5
  00271	0f 5a e2	 cvtps2pd xmm4, xmm2
  00274	f2 0f 59 e4	 mulsd	 xmm4, xmm4
  00278	0f 5a c1	 cvtps2pd xmm0, xmm1
  0027b	f2 0f 59 c0	 mulsd	 xmm0, xmm0
  0027f	f2 0f 58 e0	 addsd	 xmm4, xmm0
  00283	f2 0f 58 e5	 addsd	 xmm4, xmm5
  00287	f3 0f 11 75 ec	 movss	 DWORD PTR _vBackMove$[ebp+4], xmm6
  0028c	0f 5a f6	 cvtps2pd xmm6, xmm6
  0028f	f2 0f 59 f6	 mulsd	 xmm6, xmm6
  00293	66 0f 5a c4	 cvtpd2ps xmm0, xmm4
  00297	0f 5a e0	 cvtps2pd xmm4, xmm0
  0029a	f3 0f 10 45 e8	 movss	 xmm0, DWORD PTR _vBackMove$[ebp]
  0029f	0f 5a c0	 cvtps2pd xmm0, xmm0
  002a2	f2 0f 59 c0	 mulsd	 xmm0, xmm0
  002a6	f2 0f 58 c6	 addsd	 xmm0, xmm6
  002aa	f2 0f 11 45 f8	 movsd	 QWORD PTR tv678[ebp], xmm0
  002af	f3 0f 10 45 f0	 movss	 xmm0, DWORD PTR _vBackMove$[ebp+8]
  002b4	f2 0f 10 6d f8	 movsd	 xmm5, QWORD PTR tv678[ebp]
  002b9	0f 5a c0	 cvtps2pd xmm0, xmm0
  002bc	f2 0f 59 c0	 mulsd	 xmm0, xmm0
  002c0	f2 0f 58 e8	 addsd	 xmm5, xmm0
  002c4	0f 57 c0	 xorps	 xmm0, xmm0
  002c7	66 0f 5a c5	 cvtpd2ps xmm0, xmm5
  002cb	0f 5a c0	 cvtps2pd xmm0, xmm0
  002ce	66 0f 2f c4	 comisd	 xmm0, xmm4

; 78   : 			return false;

  002d2	0f 83 bb fd ff
	ff		 jae	 $LN45@ModifyMove

; 79   : 
; 80   : 		*pMove -= vBackMove;

  002d8	0f 5a c2	 cvtps2pd xmm0, xmm2
  002db	f3 0f 10 55 e8	 movss	 xmm2, DWORD PTR _vBackMove$[ebp]
  002e0	0f 5a d2	 cvtps2pd xmm2, xmm2
  002e3	f2 0f 5c c2	 subsd	 xmm0, xmm2
  002e7	66 0f 5a c0	 cvtpd2ps xmm0, xmm0
  002eb	f3 0f 11 00	 movss	 DWORD PTR [eax], xmm0
  002ef	0f 5a c1	 cvtps2pd xmm0, xmm1
  002f2	f3 0f 10 4d ec	 movss	 xmm1, DWORD PTR _vBackMove$[ebp+4]
  002f7	0f 5a c9	 cvtps2pd xmm1, xmm1
  002fa	f2 0f 5c c1	 subsd	 xmm0, xmm1
  002fe	f3 0f 10 4d f0	 movss	 xmm1, DWORD PTR _vBackMove$[ebp+8]
  00303	66 0f 5a c0	 cvtpd2ps xmm0, xmm0
  00307	f3 0f 11 40 04	 movss	 DWORD PTR [eax+4], xmm0
  0030c	0f 5a c9	 cvtps2pd xmm1, xmm1
  0030f	0f 5a c3	 cvtps2pd xmm0, xmm3
  00312	f2 0f 5c c1	 subsd	 xmm0, xmm1
  00316	66 0f 5a c0	 cvtpd2ps xmm0, xmm0
  0031a	f3 0f 11 40 08	 movss	 DWORD PTR [eax+8], xmm0

; 81   : 
; 82   : 		return true;

  0031f	b0 01		 mov	 al, 1
$LN11@ModifyMove:
  00321	5f		 pop	 edi
  00322	5e		 pop	 esi

; 83   : 	}

  00323	c9		 leave
  00324	c3		 ret	 0
?ModifyMoveDir@ioMapCollisionHelper@@YA_NABVioAxisAlignBox@@00_NPAUD3DXVECTOR3@@@Z ENDP ; ioMapCollisionHelper::ModifyMoveDir
_TEXT	ENDS
PUBLIC	_vColPos$GSCopy$
PUBLIC	?CheckCollisionLine@ioMapCollisionHelper@@YA_NAAUD3DXVECTOR3@@PAVioOpcodeShape@@ABU2@2PBUD3DXMATRIX@@@Z ; ioMapCollisionHelper::CheckCollisionLine
EXTRN	__imp_??1ioRay@@QAE@XZ:PROC
EXTRN	__imp_??0ioRay@@QAE@ABUD3DXVECTOR3@@0@Z:PROC
EXTRN	_D3DXVec3Normalize@8:PROC
EXTRN	___CxxFrameHandler3:PROC
EXTRN	@__security_check_cookie@4:PROC
EXTRN	__EH_epilog3_GS:PROC
EXTRN	__EH_prolog3_GS:PROC
;	COMDAT xdata$x
; File c:\program files (x86)\microsoft directx sdk (june 2010)\include\d3dx9math.inl
xdata$x	SEGMENT
__unwindtable$?CheckCollisionLine@ioMapCollisionHelper@@YA_NAAUD3DXVECTOR3@@PAVioOpcodeShape@@ABU2@2PBUD3DXMATRIX@@@Z DD 0ffffffffH
	DD	FLAT:__unwindfunclet$?CheckCollisionLine@ioMapCollisionHelper@@YA_NAAUD3DXVECTOR3@@PAVioOpcodeShape@@ABU2@2PBUD3DXMATRIX@@@Z$0
__ehfuncinfo$?CheckCollisionLine@ioMapCollisionHelper@@YA_NAAUD3DXVECTOR3@@PAVioOpcodeShape@@ABU2@2PBUD3DXMATRIX@@@Z DD 019930522H
	DD	01H
	DD	FLAT:__unwindtable$?CheckCollisionLine@ioMapCollisionHelper@@YA_NAAUD3DXVECTOR3@@PAVioOpcodeShape@@ABU2@2PBUD3DXMATRIX@@@Z
	DD	2 DUP(00H)
	DD	2 DUP(00H)
	DD	00H
	DD	01H
; Function compile flags: /Ogsp
; File d:\lost saga for developer\youtube\tutorial\source\src\lsclient\iomapcollisionhelper.cpp
xdata$x	ENDS
;	COMDAT ?CheckCollisionLine@ioMapCollisionHelper@@YA_NAAUD3DXVECTOR3@@PAVioOpcodeShape@@ABU2@2PBUD3DXMATRIX@@@Z
_TEXT	SEGMENT
_vColPos$GSCopy$ = -88					; size = 4
_fOrgDiffSq$ = -84					; size = 4
_iFaceIndex$ = -80					; size = 4
_kLineRay$ = -76					; size = 24
_vDir$ = -52						; size = 12
_vOrgDiff$ = -40					; size = 12
_vColPoint$ = -28					; size = 12
__$EHRec$ = -12						; size = 12
_vColPos$ = 8						; size = 4
_pShape$ = 12						; size = 4
_vStart$ = 16						; size = 4
_vEnd$ = 20						; size = 4
_pShapeWorldMat$ = 24					; size = 4
?CheckCollisionLine@ioMapCollisionHelper@@YA_NAAUD3DXVECTOR3@@PAVioOpcodeShape@@ABU2@2PBUD3DXMATRIX@@@Z PROC ; ioMapCollisionHelper::CheckCollisionLine, COMDAT

; 530  : 	{

  00000	6a 4c		 push	 76			; 0000004cH
  00002	b8 00 00 00 00	 mov	 eax, __ehhandler$?CheckCollisionLine@ioMapCollisionHelper@@YA_NAAUD3DXVECTOR3@@PAVioOpcodeShape@@ABU2@2PBUD3DXMATRIX@@@Z
  00007	e8 00 00 00 00	 call	 __EH_prolog3_GS
  0000c	8b 45 08	 mov	 eax, DWORD PTR _vColPos$[ebp]
  0000f	8b 75 10	 mov	 esi, DWORD PTR _vStart$[ebp]

; 531  : 		D3DXVECTOR3 vOrgDiff = vEnd - vStart;

  00012	f3 0f 10 0e	 movss	 xmm1, DWORD PTR [esi]
  00016	f3 0f 10 56 04	 movss	 xmm2, DWORD PTR [esi+4]
  0001b	f3 0f 10 5e 08	 movss	 xmm3, DWORD PTR [esi+8]
  00020	8b 5d 0c	 mov	 ebx, DWORD PTR _pShape$[ebp]
  00023	8b 7d 18	 mov	 edi, DWORD PTR _pShapeWorldMat$[ebp]

; 532  : 		float fOrgDiffSq = D3DXVec3LengthSq( &vOrgDiff );
; 533  : 
; 534  : 		D3DXVECTOR3 vDir;
; 535  : 		D3DXVec3Normalize( &vDir, &vOrgDiff );
; 536  : 
; 537  : 		D3DXVECTOR3 vColPoint;
; 538  : 		ioRay kLineRay( vStart, vDir );
; 539  : 		int iFaceIndex = 0;
; 540  : 		if( pShape && pShape->TestIntersection( pShapeWorldMat, kLineRay, &iFaceIndex, &vColPoint ) )

  00026	89 45 a8	 mov	 DWORD PTR _vColPos$GSCopy$[ebp], eax
  00029	8b 45 14	 mov	 eax, DWORD PTR _vEnd$[ebp]
  0002c	f3 0f 10 00	 movss	 xmm0, DWORD PTR [eax]
  00030	0f 5a c0	 cvtps2pd xmm0, xmm0
  00033	0f 5a c9	 cvtps2pd xmm1, xmm1
  00036	f2 0f 5c c1	 subsd	 xmm0, xmm1
  0003a	f3 0f 10 48 04	 movss	 xmm1, DWORD PTR [eax+4]
  0003f	0f 5a d2	 cvtps2pd xmm2, xmm2
  00042	0f 5a c9	 cvtps2pd xmm1, xmm1
  00045	f2 0f 5c ca	 subsd	 xmm1, xmm2
  00049	f3 0f 10 50 08	 movss	 xmm2, DWORD PTR [eax+8]
  0004e	66 0f 5a c0	 cvtpd2ps xmm0, xmm0
  00052	0f 5a d2	 cvtps2pd xmm2, xmm2
  00055	f3 0f 11 45 d8	 movss	 DWORD PTR _vOrgDiff$[ebp], xmm0
  0005a	66 0f 5a c9	 cvtpd2ps xmm1, xmm1
  0005e	0f 5a db	 cvtps2pd xmm3, xmm3
  00061	f2 0f 5c d3	 subsd	 xmm2, xmm3
  00065	66 0f 5a d2	 cvtpd2ps xmm2, xmm2
  00069	f3 0f 5a c0	 cvtss2sd xmm0, xmm0
  0006d	f3 0f 11 4d dc	 movss	 DWORD PTR _vOrgDiff$[ebp+4], xmm1
  00072	f3 0f 11 55 e0	 movss	 DWORD PTR _vOrgDiff$[ebp+8], xmm2
  00077	f2 0f 59 c0	 mulsd	 xmm0, xmm0
  0007b	8d 45 d8	 lea	 eax, DWORD PTR _vOrgDiff$[ebp]
  0007e	f3 0f 5a c9	 cvtss2sd xmm1, xmm1
  00082	50		 push	 eax
  00083	f3 0f 5a d2	 cvtss2sd xmm2, xmm2
  00087	f2 0f 59 c9	 mulsd	 xmm1, xmm1
  0008b	f2 0f 58 c1	 addsd	 xmm0, xmm1
  0008f	f2 0f 59 d2	 mulsd	 xmm2, xmm2
  00093	8d 45 cc	 lea	 eax, DWORD PTR _vDir$[ebp]
  00096	f2 0f 58 c2	 addsd	 xmm0, xmm2
  0009a	66 0f 5a c0	 cvtpd2ps xmm0, xmm0
  0009e	50		 push	 eax
  0009f	f3 0f 11 45 ac	 movss	 DWORD PTR _fOrgDiffSq$[ebp], xmm0
  000a4	e8 00 00 00 00	 call	 _D3DXVec3Normalize@8
  000a9	8d 45 cc	 lea	 eax, DWORD PTR _vDir$[ebp]
  000ac	50		 push	 eax
  000ad	56		 push	 esi
  000ae	8d 4d b4	 lea	 ecx, DWORD PTR _kLineRay$[ebp]
  000b1	ff 15 00 00 00
	00		 call	 DWORD PTR __imp_??0ioRay@@QAE@ABUD3DXVECTOR3@@0@Z
  000b7	83 65 fc 00	 and	 DWORD PTR __$EHRec$[ebp+8], 0
  000bb	83 65 b0 00	 and	 DWORD PTR _iFaceIndex$[ebp], 0
  000bf	85 db		 test	 ebx, ebx
  000c1	0f 84 bf 00 00
	00		 je	 $LN1@CheckColli
  000c7	8b 03		 mov	 eax, DWORD PTR [ebx]
  000c9	6a 01		 push	 1
  000cb	8d 4d e4	 lea	 ecx, DWORD PTR _vColPoint$[ebp]
  000ce	51		 push	 ecx
  000cf	8d 4d b0	 lea	 ecx, DWORD PTR _iFaceIndex$[ebp]
  000d2	51		 push	 ecx
  000d3	8d 4d b4	 lea	 ecx, DWORD PTR _kLineRay$[ebp]
  000d6	51		 push	 ecx
  000d7	57		 push	 edi
  000d8	8b cb		 mov	 ecx, ebx
  000da	ff 50 28	 call	 DWORD PTR [eax+40]
  000dd	84 c0		 test	 al, al
  000df	0f 84 a1 00 00
	00		 je	 $LN1@CheckColli

; 541  : 		{
; 542  : 			D3DXVECTOR3 vColDiff = vColPoint - vStart;

  000e5	f3 0f 10 45 e4	 movss	 xmm0, DWORD PTR _vColPoint$[ebp]
  000ea	f3 0f 10 0e	 movss	 xmm1, DWORD PTR [esi]
  000ee	f3 0f 10 56 04	 movss	 xmm2, DWORD PTR [esi+4]
  000f3	f3 0f 10 5e 08	 movss	 xmm3, DWORD PTR [esi+8]
  000f8	0f 5a c0	 cvtps2pd xmm0, xmm0
  000fb	0f 5a c9	 cvtps2pd xmm1, xmm1
  000fe	f2 0f 5c c1	 subsd	 xmm0, xmm1
  00102	0f 57 c9	 xorps	 xmm1, xmm1
  00105	66 0f 5a c8	 cvtpd2ps xmm1, xmm0
  00109	f3 0f 10 45 e8	 movss	 xmm0, DWORD PTR _vColPoint$[ebp+4]
  0010e	0f 5a c0	 cvtps2pd xmm0, xmm0
  00111	0f 5a d2	 cvtps2pd xmm2, xmm2
  00114	f2 0f 5c c2	 subsd	 xmm0, xmm2
  00118	f3 0f 10 55 ec	 movss	 xmm2, DWORD PTR _vColPoint$[ebp+8]
  0011d	66 0f 5a c0	 cvtpd2ps xmm0, xmm0
  00121	0f 5a d2	 cvtps2pd xmm2, xmm2

; 543  : 			if( D3DXVec3LengthSq( &vColDiff ) <= fOrgDiffSq )

  00124	0f 5a c9	 cvtps2pd xmm1, xmm1
  00127	f3 0f 5a c0	 cvtss2sd xmm0, xmm0
  0012b	0f 5a db	 cvtps2pd xmm3, xmm3
  0012e	f2 0f 5c d3	 subsd	 xmm2, xmm3
  00132	f2 0f 59 c9	 mulsd	 xmm1, xmm1
  00136	f2 0f 59 c0	 mulsd	 xmm0, xmm0
  0013a	f2 0f 58 c8	 addsd	 xmm1, xmm0
  0013e	66 0f 5a d2	 cvtpd2ps xmm2, xmm2
  00142	f3 0f 5a d2	 cvtss2sd xmm2, xmm2
  00146	f2 0f 59 d2	 mulsd	 xmm2, xmm2
  0014a	f2 0f 58 ca	 addsd	 xmm1, xmm2
  0014e	0f 57 c0	 xorps	 xmm0, xmm0
  00151	66 0f 5a c1	 cvtpd2ps xmm0, xmm1
  00155	f3 0f 10 4d ac	 movss	 xmm1, DWORD PTR _fOrgDiffSq$[ebp]
  0015a	0f 5a c0	 cvtps2pd xmm0, xmm0
  0015d	0f 5a c9	 cvtps2pd xmm1, xmm1
  00160	66 0f 2f c8	 comisd	 xmm1, xmm0
  00164	72 20		 jb	 SHORT $LN1@CheckColli

; 544  : 			{	
; 545  : 				vColPos = vColPoint;

  00166	8b 7d a8	 mov	 edi, DWORD PTR _vColPos$GSCopy$[ebp]
  00169	8d 75 e4	 lea	 esi, DWORD PTR _vColPoint$[ebp]
  0016c	a5		 movsd
  0016d	a5		 movsd
  0016e	a5		 movsd
  0016f	32 db		 xor	 bl, bl
$LN22@CheckColli:

; 546  : 				return false;

  00171	83 4d fc ff	 or	 DWORD PTR __$EHRec$[ebp+8], -1
  00175	8d 4d b4	 lea	 ecx, DWORD PTR _kLineRay$[ebp]
  00178	ff 15 00 00 00
	00		 call	 DWORD PTR __imp_??1ioRay@@QAE@XZ
  0017e	8a c3		 mov	 al, bl

; 547  : 			}				
; 548  : 		}
; 549  : 
; 550  : 		return true;
; 551  : 	}

  00180	e8 00 00 00 00	 call	 __EH_epilog3_GS
  00185	c3		 ret	 0
$LN1@CheckColli:
  00186	b3 01		 mov	 bl, 1
  00188	eb e7		 jmp	 SHORT $LN22@CheckColli
_TEXT	ENDS
;	COMDAT text$x
text$x	SEGMENT
__unwindfunclet$?CheckCollisionLine@ioMapCollisionHelper@@YA_NAAUD3DXVECTOR3@@PAVioOpcodeShape@@ABU2@2PBUD3DXMATRIX@@@Z$0:
  00000	8d 4d b4	 lea	 ecx, DWORD PTR _kLineRay$[ebp]
  00003	ff 25 00 00 00
	00		 jmp	 DWORD PTR __imp_??1ioRay@@QAE@XZ
__ehhandler$?CheckCollisionLine@ioMapCollisionHelper@@YA_NAAUD3DXVECTOR3@@PAVioOpcodeShape@@ABU2@2PBUD3DXMATRIX@@@Z:
  00009	8b 54 24 08	 mov	 edx, DWORD PTR [esp+8]
  0000d	8d 42 0c	 lea	 eax, DWORD PTR [edx+12]
  00010	8b 4a a4	 mov	 ecx, DWORD PTR [edx-92]
  00013	33 c8		 xor	 ecx, eax
  00015	e8 00 00 00 00	 call	 @__security_check_cookie@4
  0001a	8b 4a fc	 mov	 ecx, DWORD PTR [edx-4]
  0001d	33 c8		 xor	 ecx, eax
  0001f	e8 00 00 00 00	 call	 @__security_check_cookie@4
  00024	b8 00 00 00 00	 mov	 eax, OFFSET __ehfuncinfo$?CheckCollisionLine@ioMapCollisionHelper@@YA_NAAUD3DXVECTOR3@@PAVioOpcodeShape@@ABU2@2PBUD3DXMATRIX@@@Z
  00029	e9 00 00 00 00	 jmp	 ___CxxFrameHandler3
text$x	ENDS
?CheckCollisionLine@ioMapCollisionHelper@@YA_NAAUD3DXVECTOR3@@PAVioOpcodeShape@@ABU2@2PBUD3DXMATRIX@@@Z ENDP ; ioMapCollisionHelper::CheckCollisionLine
PUBLIC	__$ArrayPad$
PUBLIC	?CheckRayVsMapCollisionByRange@ioMapCollisionHelper@@YA_NABVioRay@@PAVioOpcodeShape@@PBUD3DXMATRIX@@M@Z ; ioMapCollisionHelper::CheckRayVsMapCollisionByRange
EXTRN	__imp_?GetOrigin@ioRay@@QBEABUD3DXVECTOR3@@XZ:PROC
EXTRN	___security_cookie:DWORD
; Function compile flags: /Ogsp
;	COMDAT ?CheckRayVsMapCollisionByRange@ioMapCollisionHelper@@YA_NABVioRay@@PAVioOpcodeShape@@PBUD3DXMATRIX@@M@Z
_TEXT	SEGMENT
_vColPoint$ = -16					; size = 12
__$ArrayPad$ = -4					; size = 4
_kRay$ = 8						; size = 4
_pShape$ = 12						; size = 4
_pShapeWorldMat$ = 16					; size = 4
_fCheckRange$ = 20					; size = 4
?CheckRayVsMapCollisionByRange@ioMapCollisionHelper@@YA_NABVioRay@@PAVioOpcodeShape@@PBUD3DXMATRIX@@M@Z PROC ; ioMapCollisionHelper::CheckRayVsMapCollisionByRange, COMDAT

; 581  : 	{

  00000	55		 push	 ebp
  00001	8b ec		 mov	 ebp, esp
  00003	83 ec 10	 sub	 esp, 16			; 00000010H
  00006	a1 00 00 00 00	 mov	 eax, DWORD PTR ___security_cookie
  0000b	33 c5		 xor	 eax, ebp
  0000d	89 45 fc	 mov	 DWORD PTR __$ArrayPad$[ebp], eax
  00010	8b 4d 0c	 mov	 ecx, DWORD PTR _pShape$[ebp]
  00013	8b 45 10	 mov	 eax, DWORD PTR _pShapeWorldMat$[ebp]
  00016	56		 push	 esi
  00017	8b 75 08	 mov	 esi, DWORD PTR _kRay$[ebp]

; 582  : 		 D3DXVECTOR3 vColPoint;
; 583  : 		if( pShape && pShape->TestIntersection( pShapeWorldMat, kRay, NULL, &vColPoint ) )

  0001a	85 c9		 test	 ecx, ecx
  0001c	0f 84 b2 00 00
	00		 je	 $LN1@CheckRayVs
  00022	8b 11		 mov	 edx, DWORD PTR [ecx]
  00024	57		 push	 edi
  00025	6a 01		 push	 1
  00027	8d 7d f0	 lea	 edi, DWORD PTR _vColPoint$[ebp]
  0002a	57		 push	 edi
  0002b	6a 00		 push	 0
  0002d	56		 push	 esi
  0002e	50		 push	 eax
  0002f	ff 52 28	 call	 DWORD PTR [edx+40]
  00032	5f		 pop	 edi
  00033	84 c0		 test	 al, al
  00035	0f 84 99 00 00
	00		 je	 $LN1@CheckRayVs

; 584  : 		{
; 585  : 			D3DXVECTOR3 vMapDiff = vColPoint - kRay.GetOrigin();

  0003b	8b ce		 mov	 ecx, esi
  0003d	ff 15 00 00 00
	00		 call	 DWORD PTR __imp_?GetOrigin@ioRay@@QBEABUD3DXVECTOR3@@XZ
  00043	f3 0f 10 45 f0	 movss	 xmm0, DWORD PTR _vColPoint$[ebp]
  00048	f3 0f 10 08	 movss	 xmm1, DWORD PTR [eax]
  0004c	f3 0f 10 50 04	 movss	 xmm2, DWORD PTR [eax+4]
  00051	f3 0f 10 58 08	 movss	 xmm3, DWORD PTR [eax+8]
  00056	0f 5a c0	 cvtps2pd xmm0, xmm0
  00059	0f 5a c9	 cvtps2pd xmm1, xmm1
  0005c	f2 0f 5c c1	 subsd	 xmm0, xmm1
  00060	0f 57 c9	 xorps	 xmm1, xmm1
  00063	66 0f 5a c8	 cvtpd2ps xmm1, xmm0
  00067	f3 0f 10 45 f4	 movss	 xmm0, DWORD PTR _vColPoint$[ebp+4]
  0006c	0f 5a c0	 cvtps2pd xmm0, xmm0
  0006f	0f 5a d2	 cvtps2pd xmm2, xmm2
  00072	f2 0f 5c c2	 subsd	 xmm0, xmm2
  00076	f3 0f 10 55 f8	 movss	 xmm2, DWORD PTR _vColPoint$[ebp+8]
  0007b	66 0f 5a c0	 cvtpd2ps xmm0, xmm0
  0007f	f3 0f 5a c0	 cvtss2sd xmm0, xmm0
  00083	0f 5a d2	 cvtps2pd xmm2, xmm2

; 586  : 			if( D3DXVec3Length( &vMapDiff ) < fCheckRange )

  00086	f2 0f 59 c0	 mulsd	 xmm0, xmm0
  0008a	0f 5a c9	 cvtps2pd xmm1, xmm1
  0008d	0f 5a db	 cvtps2pd xmm3, xmm3
  00090	f2 0f 5c d3	 subsd	 xmm2, xmm3
  00094	f2 0f 59 c9	 mulsd	 xmm1, xmm1
  00098	f2 0f 58 c8	 addsd	 xmm1, xmm0
  0009c	66 0f 5a d2	 cvtpd2ps xmm2, xmm2
  000a0	0f 57 c0	 xorps	 xmm0, xmm0
  000a3	f3 0f 5a d2	 cvtss2sd xmm2, xmm2
  000a7	f2 0f 59 d2	 mulsd	 xmm2, xmm2
  000ab	f2 0f 58 ca	 addsd	 xmm1, xmm2
  000af	66 0f 5a c1	 cvtpd2ps xmm0, xmm1
  000b3	f3 0f 10 4d 14	 movss	 xmm1, DWORD PTR _fCheckRange$[ebp]
  000b8	0f 5a c0	 cvtps2pd xmm0, xmm0
  000bb	f2 0f 51 c0	 sqrtsd	 xmm0, xmm0
  000bf	66 0f 5a c0	 cvtpd2ps xmm0, xmm0
  000c3	f3 0f 5a c0	 cvtss2sd xmm0, xmm0
  000c7	0f 5a c9	 cvtps2pd xmm1, xmm1
  000ca	66 0f 2f c8	 comisd	 xmm1, xmm0
  000ce	76 04		 jbe	 SHORT $LN1@CheckRayVs

; 587  : 				return true;

  000d0	b0 01		 mov	 al, 1
  000d2	eb 02		 jmp	 SHORT $LN3@CheckRayVs
$LN1@CheckRayVs:

; 588  : 		}
; 589  : 
; 590  : 		return false;

  000d4	32 c0		 xor	 al, al
$LN3@CheckRayVs:

; 591  : 	}

  000d6	8b 4d fc	 mov	 ecx, DWORD PTR __$ArrayPad$[ebp]
  000d9	33 cd		 xor	 ecx, ebp
  000db	5e		 pop	 esi
  000dc	e8 00 00 00 00	 call	 @__security_check_cookie@4
  000e1	c9		 leave
  000e2	c3		 ret	 0
?CheckRayVsMapCollisionByRange@ioMapCollisionHelper@@YA_NABVioRay@@PAVioOpcodeShape@@PBUD3DXMATRIX@@M@Z ENDP ; ioMapCollisionHelper::CheckRayVsMapCollisionByRange
_TEXT	ENDS
PUBLIC	__real@38d1b717
PUBLIC	_pShapeWorldMat$GSCopy$
PUBLIC	?CheckWeaponPiercingCollision@ioMapCollisionHelper@@YA_NPAVioWeapon@@PAVioOpcodeShape@@PBUD3DXMATRIX@@@Z ; ioMapCollisionHelper::CheckWeaponPiercingCollision
EXTRN	__imp_?IsEqual@ioMath@@SA_NABUD3DXVECTOR3@@0M@Z:PROC
;	COMDAT __real@38d1b717
; File c:\program files (x86)\microsoft directx sdk (june 2010)\include\d3dx9math.inl
CONST	SEGMENT
__real@38d1b717 DD 038d1b717r			; 0.0001
CONST	ENDS
;	COMDAT xdata$x
xdata$x	SEGMENT
__unwindtable$?CheckWeaponPiercingCollision@ioMapCollisionHelper@@YA_NPAVioWeapon@@PAVioOpcodeShape@@PBUD3DXMATRIX@@@Z DD 0ffffffffH
	DD	FLAT:__unwindfunclet$?CheckWeaponPiercingCollision@ioMapCollisionHelper@@YA_NPAVioWeapon@@PAVioOpcodeShape@@PBUD3DXMATRIX@@@Z$0
__ehfuncinfo$?CheckWeaponPiercingCollision@ioMapCollisionHelper@@YA_NPAVioWeapon@@PAVioOpcodeShape@@PBUD3DXMATRIX@@@Z DD 019930522H
	DD	01H
	DD	FLAT:__unwindtable$?CheckWeaponPiercingCollision@ioMapCollisionHelper@@YA_NPAVioWeapon@@PAVioOpcodeShape@@PBUD3DXMATRIX@@@Z
	DD	2 DUP(00H)
	DD	2 DUP(00H)
	DD	00H
	DD	01H
; Function compile flags: /Ogsp
; File d:\lost saga for developer\youtube\tutorial\source\src\lsclient\iomapcollisionhelper.cpp
xdata$x	ENDS
;	COMDAT ?CheckWeaponPiercingCollision@ioMapCollisionHelper@@YA_NPAVioWeapon@@PAVioOpcodeShape@@PBUD3DXMATRIX@@@Z
_TEXT	SEGMENT
_pShapeWorldMat$GSCopy$ = -92				; size = 4
_kMoveRay$ = -88					; size = 24
_vColPoint$ = -64					; size = 12
_vMoveDir$ = -52					; size = 12
_vCurPos$ = -40						; size = 12
_vPrePos$ = -28						; size = 12
__$EHRec$ = -12						; size = 12
_pWeapon$ = 8						; size = 4
_pShape$ = 12						; size = 4
_pShapeWorldMat$ = 16					; size = 4
?CheckWeaponPiercingCollision@ioMapCollisionHelper@@YA_NPAVioWeapon@@PAVioOpcodeShape@@PBUD3DXMATRIX@@@Z PROC ; ioMapCollisionHelper::CheckWeaponPiercingCollision, COMDAT

; 599  : 	{

  00000	6a 50		 push	 80			; 00000050H
  00002	b8 00 00 00 00	 mov	 eax, __ehhandler$?CheckWeaponPiercingCollision@ioMapCollisionHelper@@YA_NPAVioWeapon@@PAVioOpcodeShape@@PBUD3DXMATRIX@@@Z
  00007	e8 00 00 00 00	 call	 __EH_prolog3_GS
  0000c	8b 4d 08	 mov	 ecx, DWORD PTR _pWeapon$[ebp]
  0000f	8b 45 10	 mov	 eax, DWORD PTR _pShapeWorldMat$[ebp]
  00012	8b 5d 0c	 mov	 ebx, DWORD PTR _pShape$[ebp]

; 608  : 
; 609  : 		D3DXVECTOR3 vMoveDir = vCurPos - vPrePos;

  00015	89 45 a4	 mov	 DWORD PTR _pShapeWorldMat$GSCopy$[ebp], eax
  00018	85 c9		 test	 ecx, ecx
  0001a	0f 84 e7 01 00
	00		 je	 $LN4@CheckWeapo

; 600  : 		if( !pWeapon || !pShape )

  00020	85 db		 test	 ebx, ebx
  00022	0f 84 df 01 00
	00		 je	 $LN4@CheckWeapo

; 602  : 				
; 603  : 		D3DXVECTOR3 vPrePos = pWeapon->GetPrePosition();
; 604  : 		D3DXVECTOR3 vCurPos = pWeapon->GetPosition();

  00028	8b 01		 mov	 eax, DWORD PTR [ecx]
  0002a	8d b1 70 05 00
	00		 lea	 esi, DWORD PTR [ecx+1392]
  00030	8d 7d e4	 lea	 edi, DWORD PTR _vPrePos$[ebp]
  00033	a5		 movsd
  00034	a5		 movsd
  00035	a5		 movsd
  00036	ff 50 70	 call	 DWORD PTR [eax+112]

; 605  : 
; 606  : 		if( ioMath::IsEqual( vPrePos, vCurPos ) )

  00039	f3 0f 10 05 00
	00 00 00	 movss	 xmm0, DWORD PTR __real@38d1b717
  00041	8b f0		 mov	 esi, eax
  00043	8d 7d d8	 lea	 edi, DWORD PTR _vCurPos$[ebp]
  00046	a5		 movsd
  00047	51		 push	 ecx
  00048	f3 0f 11 04 24	 movss	 DWORD PTR [esp], xmm0
  0004d	8d 45 d8	 lea	 eax, DWORD PTR _vCurPos$[ebp]
  00050	a5		 movsd
  00051	50		 push	 eax
  00052	8d 45 e4	 lea	 eax, DWORD PTR _vPrePos$[ebp]
  00055	50		 push	 eax
  00056	a5		 movsd
  00057	ff 15 00 00 00
	00		 call	 DWORD PTR __imp_?IsEqual@ioMath@@SA_NABUD3DXVECTOR3@@0M@Z
  0005d	83 c4 0c	 add	 esp, 12			; 0000000cH
  00060	84 c0		 test	 al, al

; 607  : 			return false;

  00062	0f 85 9f 01 00
	00		 jne	 $LN4@CheckWeapo

; 608  : 
; 609  : 		D3DXVECTOR3 vMoveDir = vCurPos - vPrePos;

  00068	f3 0f 10 45 d8	 movss	 xmm0, DWORD PTR _vCurPos$[ebp]
  0006d	f3 0f 10 4d e4	 movss	 xmm1, DWORD PTR _vPrePos$[ebp]
  00072	f3 0f 10 55 e8	 movss	 xmm2, DWORD PTR _vPrePos$[ebp+4]
  00077	f3 0f 10 5d ec	 movss	 xmm3, DWORD PTR _vPrePos$[ebp+8]
  0007c	0f 5a c9	 cvtps2pd xmm1, xmm1
  0007f	0f 5a c0	 cvtps2pd xmm0, xmm0
  00082	f2 0f 5c c1	 subsd	 xmm0, xmm1
  00086	f3 0f 10 4d dc	 movss	 xmm1, DWORD PTR _vCurPos$[ebp+4]
  0008b	0f 5a d2	 cvtps2pd xmm2, xmm2
  0008e	0f 5a c9	 cvtps2pd xmm1, xmm1
  00091	f2 0f 5c ca	 subsd	 xmm1, xmm2
  00095	f3 0f 10 55 e0	 movss	 xmm2, DWORD PTR _vCurPos$[ebp+8]

; 610  : 		D3DXVec3Normalize( &vMoveDir, &vMoveDir );

  0009a	8d 45 cc	 lea	 eax, DWORD PTR _vMoveDir$[ebp]
  0009d	0f 5a d2	 cvtps2pd xmm2, xmm2
  000a0	0f 5a db	 cvtps2pd xmm3, xmm3
  000a3	50		 push	 eax
  000a4	f2 0f 5c d3	 subsd	 xmm2, xmm3
  000a8	66 0f 5a c0	 cvtpd2ps xmm0, xmm0
  000ac	66 0f 5a c9	 cvtpd2ps xmm1, xmm1
  000b0	66 0f 5a d2	 cvtpd2ps xmm2, xmm2
  000b4	50		 push	 eax
  000b5	f3 0f 11 45 cc	 movss	 DWORD PTR _vMoveDir$[ebp], xmm0
  000ba	f3 0f 11 4d d0	 movss	 DWORD PTR _vMoveDir$[ebp+4], xmm1
  000bf	f3 0f 11 55 d4	 movss	 DWORD PTR _vMoveDir$[ebp+8], xmm2
  000c4	e8 00 00 00 00	 call	 _D3DXVec3Normalize@8

; 611  : 
; 612  : 		D3DXVECTOR3 vColPoint;
; 613  : 		ioRay kMoveRay( vPrePos, vMoveDir );

  000c9	8d 45 cc	 lea	 eax, DWORD PTR _vMoveDir$[ebp]
  000cc	50		 push	 eax
  000cd	8d 45 e4	 lea	 eax, DWORD PTR _vPrePos$[ebp]
  000d0	50		 push	 eax
  000d1	8d 4d a8	 lea	 ecx, DWORD PTR _kMoveRay$[ebp]
  000d4	ff 15 00 00 00
	00		 call	 DWORD PTR __imp_??0ioRay@@QAE@ABUD3DXVECTOR3@@0@Z

; 614  : 
; 615  : 		if( pShape->TestIntersection( pShapeWorldMat, kMoveRay, NULL, &vColPoint, false ) )

  000da	8b 13		 mov	 edx, DWORD PTR [ebx]
  000dc	33 c0		 xor	 eax, eax
  000de	50		 push	 eax
  000df	8d 4d c0	 lea	 ecx, DWORD PTR _vColPoint$[ebp]
  000e2	51		 push	 ecx
  000e3	50		 push	 eax
  000e4	89 45 fc	 mov	 DWORD PTR __$EHRec$[ebp+8], eax
  000e7	8d 45 a8	 lea	 eax, DWORD PTR _kMoveRay$[ebp]
  000ea	50		 push	 eax
  000eb	ff 75 a4	 push	 DWORD PTR _pShapeWorldMat$GSCopy$[ebp]
  000ee	8b cb		 mov	 ecx, ebx
  000f0	ff 52 28	 call	 DWORD PTR [edx+40]
  000f3	84 c0		 test	 al, al
  000f5	0f 84 ff 00 00
	00		 je	 $LN1@CheckWeapo

; 616  : 		{
; 617  : 			D3DXVECTOR3 vPosDiff = vCurPos - vPrePos;

  000fb	f3 0f 10 45 d8	 movss	 xmm0, DWORD PTR _vCurPos$[ebp]
  00100	f3 0f 10 4d e4	 movss	 xmm1, DWORD PTR _vPrePos$[ebp]
  00105	f3 0f 10 55 e8	 movss	 xmm2, DWORD PTR _vPrePos$[ebp+4]
  0010a	f3 0f 10 5d ec	 movss	 xmm3, DWORD PTR _vPrePos$[ebp+8]

; 618  : 			D3DXVECTOR3 vColDiff = vColPoint - vPrePos;

  0010f	f3 0f 10 65 e4	 movss	 xmm4, DWORD PTR _vPrePos$[ebp]
  00114	f3 0f 10 6d e8	 movss	 xmm5, DWORD PTR _vPrePos$[ebp+4]
  00119	f3 0f 10 75 ec	 movss	 xmm6, DWORD PTR _vPrePos$[ebp+8]
  0011e	0f 5a c0	 cvtps2pd xmm0, xmm0
  00121	0f 5a c9	 cvtps2pd xmm1, xmm1
  00124	f2 0f 5c c1	 subsd	 xmm0, xmm1
  00128	0f 57 c9	 xorps	 xmm1, xmm1
  0012b	66 0f 5a c8	 cvtpd2ps xmm1, xmm0
  0012f	f3 0f 10 45 dc	 movss	 xmm0, DWORD PTR _vCurPos$[ebp+4]
  00134	0f 5a c0	 cvtps2pd xmm0, xmm0
  00137	0f 5a d2	 cvtps2pd xmm2, xmm2
  0013a	f2 0f 5c c2	 subsd	 xmm0, xmm2
  0013e	f3 0f 10 55 e0	 movss	 xmm2, DWORD PTR _vCurPos$[ebp+8]
  00143	0f 5a db	 cvtps2pd xmm3, xmm3
  00146	0f 5a d2	 cvtps2pd xmm2, xmm2
  00149	f2 0f 5c d3	 subsd	 xmm2, xmm3
  0014d	f3 0f 10 5d c0	 movss	 xmm3, DWORD PTR _vColPoint$[ebp]
  00152	0f 5a db	 cvtps2pd xmm3, xmm3
  00155	0f 5a e4	 cvtps2pd xmm4, xmm4
  00158	f2 0f 5c dc	 subsd	 xmm3, xmm4
  0015c	0f 57 e4	 xorps	 xmm4, xmm4
  0015f	66 0f 5a e3	 cvtpd2ps xmm4, xmm3
  00163	f3 0f 10 5d c4	 movss	 xmm3, DWORD PTR _vColPoint$[ebp+4]
  00168	0f 5a ed	 cvtps2pd xmm5, xmm5
  0016b	0f 5a db	 cvtps2pd xmm3, xmm3
  0016e	f2 0f 5c dd	 subsd	 xmm3, xmm5
  00172	f3 0f 10 6d c8	 movss	 xmm5, DWORD PTR _vColPoint$[ebp+8]
  00177	66 0f 5a c0	 cvtpd2ps xmm0, xmm0

; 619  : 
; 620  : 			if( D3DXVec3LengthSq( &vPosDiff ) >= D3DXVec3LengthSq( &vColDiff ) )

  0017b	0f 5a c9	 cvtps2pd xmm1, xmm1
  0017e	0f 5a ed	 cvtps2pd xmm5, xmm5
  00181	f3 0f 5a c0	 cvtss2sd xmm0, xmm0
  00185	f2 0f 59 c9	 mulsd	 xmm1, xmm1
  00189	f2 0f 59 c0	 mulsd	 xmm0, xmm0
  0018d	f2 0f 58 c8	 addsd	 xmm1, xmm0
  00191	66 0f 5a d2	 cvtpd2ps xmm2, xmm2
  00195	66 0f 5a db	 cvtpd2ps xmm3, xmm3
  00199	0f 5a f6	 cvtps2pd xmm6, xmm6
  0019c	f2 0f 5c ee	 subsd	 xmm5, xmm6
  001a0	0f 5a e4	 cvtps2pd xmm4, xmm4
  001a3	66 0f 5a ed	 cvtpd2ps xmm5, xmm5
  001a7	f3 0f 5a d2	 cvtss2sd xmm2, xmm2
  001ab	f3 0f 5a db	 cvtss2sd xmm3, xmm3
  001af	f2 0f 59 d2	 mulsd	 xmm2, xmm2
  001b3	f2 0f 58 ca	 addsd	 xmm1, xmm2
  001b7	0f 57 c0	 xorps	 xmm0, xmm0
  001ba	66 0f 5a c1	 cvtpd2ps xmm0, xmm1
  001be	f2 0f 59 e4	 mulsd	 xmm4, xmm4
  001c2	f3 0f 5a ed	 cvtss2sd xmm5, xmm5
  001c6	f2 0f 59 db	 mulsd	 xmm3, xmm3
  001ca	f2 0f 58 e3	 addsd	 xmm4, xmm3
  001ce	f2 0f 59 ed	 mulsd	 xmm5, xmm5
  001d2	0f 57 c9	 xorps	 xmm1, xmm1
  001d5	f2 0f 58 e5	 addsd	 xmm4, xmm5
  001d9	66 0f 5a cc	 cvtpd2ps xmm1, xmm4
  001dd	0f 5a c0	 cvtps2pd xmm0, xmm0
  001e0	0f 5a c9	 cvtps2pd xmm1, xmm1
  001e3	66 0f 2f c1	 comisd	 xmm0, xmm1
  001e7	72 11		 jb	 SHORT $LN1@CheckWeapo

; 621  : 			{
; 622  : 				return true;

  001e9	83 4d fc ff	 or	 DWORD PTR __$EHRec$[ebp+8], -1
  001ed	8d 4d a8	 lea	 ecx, DWORD PTR _kMoveRay$[ebp]
  001f0	ff 15 00 00 00
	00		 call	 DWORD PTR __imp_??1ioRay@@QAE@XZ
  001f6	b0 01		 mov	 al, 1
  001f8	eb 0f		 jmp	 SHORT $LN6@CheckWeapo
$LN1@CheckWeapo:

; 623  : 			}
; 624  : 		}
; 625  : 
; 626  : 		return false;

  001fa	83 4d fc ff	 or	 DWORD PTR __$EHRec$[ebp+8], -1
  001fe	8d 4d a8	 lea	 ecx, DWORD PTR _kMoveRay$[ebp]
  00201	ff 15 00 00 00
	00		 call	 DWORD PTR __imp_??1ioRay@@QAE@XZ
$LN4@CheckWeapo:

; 601  : 			return false;

  00207	32 c0		 xor	 al, al
$LN6@CheckWeapo:

; 627  : 	}

  00209	e8 00 00 00 00	 call	 __EH_epilog3_GS
  0020e	c3		 ret	 0
_TEXT	ENDS
;	COMDAT text$x
text$x	SEGMENT
__unwindfunclet$?CheckWeaponPiercingCollision@ioMapCollisionHelper@@YA_NPAVioWeapon@@PAVioOpcodeShape@@PBUD3DXMATRIX@@@Z$0:
  00000	8d 4d a8	 lea	 ecx, DWORD PTR _kMoveRay$[ebp]
  00003	ff 25 00 00 00
	00		 jmp	 DWORD PTR __imp_??1ioRay@@QAE@XZ
__ehhandler$?CheckWeaponPiercingCollision@ioMapCollisionHelper@@YA_NPAVioWeapon@@PAVioOpcodeShape@@PBUD3DXMATRIX@@@Z:
  00009	8b 54 24 08	 mov	 edx, DWORD PTR [esp+8]
  0000d	8d 42 0c	 lea	 eax, DWORD PTR [edx+12]
  00010	8b 4a a0	 mov	 ecx, DWORD PTR [edx-96]
  00013	33 c8		 xor	 ecx, eax
  00015	e8 00 00 00 00	 call	 @__security_check_cookie@4
  0001a	8b 4a fc	 mov	 ecx, DWORD PTR [edx-4]
  0001d	33 c8		 xor	 ecx, eax
  0001f	e8 00 00 00 00	 call	 @__security_check_cookie@4
  00024	b8 00 00 00 00	 mov	 eax, OFFSET __ehfuncinfo$?CheckWeaponPiercingCollision@ioMapCollisionHelper@@YA_NPAVioWeapon@@PAVioOpcodeShape@@PBUD3DXMATRIX@@@Z
  00029	e9 00 00 00 00	 jmp	 ___CxxFrameHandler3
text$x	ENDS
?CheckWeaponPiercingCollision@ioMapCollisionHelper@@YA_NPAVioWeapon@@PAVioOpcodeShape@@PBUD3DXMATRIX@@@Z ENDP ; ioMapCollisionHelper::CheckWeaponPiercingCollision
PUBLIC	?begin@?$vector@PAVioGameEntity@@V?$allocator@PAVioGameEntity@@@std@@@std@@QBE?AV?$_Vector_const_iterator@V?$_Vector_val@PAVioGameEntity@@V?$allocator@PAVioGameEntity@@@std@@@std@@@2@XZ ; std::vector<ioGameEntity *,std::allocator<ioGameEntity *> >::begin
; Function compile flags: /Ogsp
; File c:\program files (x86)\microsoft visual studio 10.0\vc\include\vector
;	COMDAT ?begin@?$vector@PAVioGameEntity@@V?$allocator@PAVioGameEntity@@@std@@@std@@QBE?AV?$_Vector_const_iterator@V?$_Vector_val@PAVioGameEntity@@V?$allocator@PAVioGameEntity@@@std@@@std@@@2@XZ
_TEXT	SEGMENT
___$ReturnUdt$ = 8					; size = 4
?begin@?$vector@PAVioGameEntity@@V?$allocator@PAVioGameEntity@@@std@@@std@@QBE?AV?$_Vector_const_iterator@V?$_Vector_val@PAVioGameEntity@@V?$allocator@PAVioGameEntity@@@std@@@std@@@2@XZ PROC ; std::vector<ioGameEntity *,std::allocator<ioGameEntity *> >::begin, COMDAT
; _this$ = ecx

; 786  : 		{	// return iterator for beginning of nonmutable sequence

  00000	55		 push	 ebp
  00001	8b ec		 mov	 ebp, esp

; 787  : 		return (const_iterator(this->_Myfirst, this));

  00003	8b 09		 mov	 ecx, DWORD PTR [ecx]
  00005	8b 45 08	 mov	 eax, DWORD PTR ___$ReturnUdt$[ebp]
  00008	89 08		 mov	 DWORD PTR [eax], ecx

; 788  : 		}

  0000a	5d		 pop	 ebp
  0000b	c2 04 00	 ret	 4
?begin@?$vector@PAVioGameEntity@@V?$allocator@PAVioGameEntity@@@std@@@std@@QBE?AV?$_Vector_const_iterator@V?$_Vector_val@PAVioGameEntity@@V?$allocator@PAVioGameEntity@@@std@@@std@@@2@XZ ENDP ; std::vector<ioGameEntity *,std::allocator<ioGameEntity *> >::begin
_TEXT	ENDS
PUBLIC	?end@?$vector@PAVioGameEntity@@V?$allocator@PAVioGameEntity@@@std@@@std@@QBE?AV?$_Vector_const_iterator@V?$_Vector_val@PAVioGameEntity@@V?$allocator@PAVioGameEntity@@@std@@@std@@@2@XZ ; std::vector<ioGameEntity *,std::allocator<ioGameEntity *> >::end
; Function compile flags: /Ogsp
;	COMDAT ?end@?$vector@PAVioGameEntity@@V?$allocator@PAVioGameEntity@@@std@@@std@@QBE?AV?$_Vector_const_iterator@V?$_Vector_val@PAVioGameEntity@@V?$allocator@PAVioGameEntity@@@std@@@std@@@2@XZ
_TEXT	SEGMENT
___$ReturnUdt$ = 8					; size = 4
?end@?$vector@PAVioGameEntity@@V?$allocator@PAVioGameEntity@@@std@@@std@@QBE?AV?$_Vector_const_iterator@V?$_Vector_val@PAVioGameEntity@@V?$allocator@PAVioGameEntity@@@std@@@std@@@2@XZ PROC ; std::vector<ioGameEntity *,std::allocator<ioGameEntity *> >::end, COMDAT
; _this$ = ecx

; 796  : 		{	// return iterator for end of nonmutable sequence

  00000	55		 push	 ebp
  00001	8b ec		 mov	 ebp, esp

; 797  : 		return (const_iterator(this->_Mylast, this));

  00003	8b 49 04	 mov	 ecx, DWORD PTR [ecx+4]
  00006	8b 45 08	 mov	 eax, DWORD PTR ___$ReturnUdt$[ebp]
  00009	89 08		 mov	 DWORD PTR [eax], ecx

; 798  : 		}

  0000b	5d		 pop	 ebp
  0000c	c2 04 00	 ret	 4
?end@?$vector@PAVioGameEntity@@V?$allocator@PAVioGameEntity@@@std@@@std@@QBE?AV?$_Vector_const_iterator@V?$_Vector_val@PAVioGameEntity@@V?$allocator@PAVioGameEntity@@@std@@@std@@@2@XZ ENDP ; std::vector<ioGameEntity *,std::allocator<ioGameEntity *> >::end
_TEXT	ENDS
PUBLIC	??D?$_List_const_iterator@V?$_List_val@PAVioGameEntity@@V?$allocator@PAVioGameEntity@@@std@@@std@@@std@@QBEABQAVioGameEntity@@XZ ; std::_List_const_iterator<std::_List_val<ioGameEntity *,std::allocator<ioGameEntity *> > >::operator*
; Function compile flags: /Ogsp
; File c:\program files (x86)\microsoft visual studio 10.0\vc\include\list
;	COMDAT ??D?$_List_const_iterator@V?$_List_val@PAVioGameEntity@@V?$allocator@PAVioGameEntity@@@std@@@std@@@std@@QBEABQAVioGameEntity@@XZ
_TEXT	SEGMENT
??D?$_List_const_iterator@V?$_List_val@PAVioGameEntity@@V?$allocator@PAVioGameEntity@@@std@@@std@@@std@@QBEABQAVioGameEntity@@XZ PROC ; std::_List_const_iterator<std::_List_val<ioGameEntity *,std::allocator<ioGameEntity *> > >::operator*, COMDAT
; _this$ = ecx

; 202  :  #if _ITERATOR_DEBUG_LEVEL == 2
; 203  : 		if (this->_Getcont() == 0
; 204  : 			|| this->_Ptr == 0
; 205  : 			|| this->_Ptr == ((_Mylist *)this->_Getcont())->_Myhead)
; 206  : 			{	// report error
; 207  : 			_DEBUG_ERROR("list iterator not dereferencable");
; 208  : 			_SCL_SECURE_OUT_OF_RANGE;
; 209  : 			}
; 210  : 
; 211  :  #elif _ITERATOR_DEBUG_LEVEL == 1
; 212  : 		_SCL_SECURE_VALIDATE(this->_Getcont() != 0 && this->_Ptr != 0);
; 213  : 		_SCL_SECURE_VALIDATE_RANGE(this->_Ptr !=
; 214  : 			((_Mylist *)this->_Getcont())->_Myhead);
; 215  :  #endif /* _ITERATOR_DEBUG_LEVEL */
; 216  : 
; 217  : 		return (_Mylist::_Myval(this->_Ptr));

  00000	8b 01		 mov	 eax, DWORD PTR [ecx]
  00002	83 c0 08	 add	 eax, 8

; 218  : 		}

  00005	c3		 ret	 0
??D?$_List_const_iterator@V?$_List_val@PAVioGameEntity@@V?$allocator@PAVioGameEntity@@@std@@@std@@@std@@QBEABQAVioGameEntity@@XZ ENDP ; std::_List_const_iterator<std::_List_val<ioGameEntity *,std::allocator<ioGameEntity *> > >::operator*
_TEXT	ENDS
PUBLIC	??E?$_List_const_iterator@V?$_List_val@PAVioGameEntity@@V?$allocator@PAVioGameEntity@@@std@@@std@@@std@@QAEAAV01@XZ ; std::_List_const_iterator<std::_List_val<ioGameEntity *,std::allocator<ioGameEntity *> > >::operator++
; Function compile flags: /Ogsp
;	COMDAT ??E?$_List_const_iterator@V?$_List_val@PAVioGameEntity@@V?$allocator@PAVioGameEntity@@@std@@@std@@@std@@QAEAAV01@XZ
_TEXT	SEGMENT
??E?$_List_const_iterator@V?$_List_val@PAVioGameEntity@@V?$allocator@PAVioGameEntity@@@std@@@std@@@std@@QAEAAV01@XZ PROC ; std::_List_const_iterator<std::_List_val<ioGameEntity *,std::allocator<ioGameEntity *> > >::operator++, COMDAT
; _this$ = ecx

; 221  : 		{	// preincrement

  00000	8b c1		 mov	 eax, ecx

; 222  :  #if _ITERATOR_DEBUG_LEVEL == 2
; 223  : 		if (this->_Getcont() == 0
; 224  : 			|| this->_Ptr == 0
; 225  : 			|| this->_Ptr == ((_Mylist *)this->_Getcont())->_Myhead)
; 226  : 			{	// report error
; 227  : 			_DEBUG_ERROR("list iterator not incrementable");
; 228  : 			_SCL_SECURE_OUT_OF_RANGE;
; 229  : 			}
; 230  : 
; 231  :  #elif _ITERATOR_DEBUG_LEVEL == 1
; 232  : 		_SCL_SECURE_VALIDATE(this->_Getcont() != 0 && this->_Ptr != 0);
; 233  : 		_SCL_SECURE_VALIDATE_RANGE(this->_Ptr !=
; 234  : 			((_Mylist *)this->_Getcont())->_Myhead);
; 235  :  #endif /* _ITERATOR_DEBUG_LEVEL */
; 236  : 
; 237  : 		this->_Ptr = _Mylist::_Nextnode(this->_Ptr);

  00002	8b 08		 mov	 ecx, DWORD PTR [eax]
  00004	8b 09		 mov	 ecx, DWORD PTR [ecx]
  00006	89 08		 mov	 DWORD PTR [eax], ecx

; 238  : 		return (*this);
; 239  : 		}

  00008	c3		 ret	 0
??E?$_List_const_iterator@V?$_List_val@PAVioGameEntity@@V?$allocator@PAVioGameEntity@@@std@@@std@@@std@@QAEAAV01@XZ ENDP ; std::_List_const_iterator<std::_List_val<ioGameEntity *,std::allocator<ioGameEntity *> > >::operator++
_TEXT	ENDS
PUBLIC	??9?$_List_const_iterator@V?$_List_val@PAVioGameEntity@@V?$allocator@PAVioGameEntity@@@std@@@std@@@std@@QBE_NABV01@@Z ; std::_List_const_iterator<std::_List_val<ioGameEntity *,std::allocator<ioGameEntity *> > >::operator!=
; Function compile flags: /Ogsp
;	COMDAT ??9?$_List_const_iterator@V?$_List_val@PAVioGameEntity@@V?$allocator@PAVioGameEntity@@@std@@@std@@@std@@QBE_NABV01@@Z
_TEXT	SEGMENT
__Right$ = 8						; size = 4
??9?$_List_const_iterator@V?$_List_val@PAVioGameEntity@@V?$allocator@PAVioGameEntity@@@std@@@std@@@std@@QBE_NABV01@@Z PROC ; std::_List_const_iterator<std::_List_val<ioGameEntity *,std::allocator<ioGameEntity *> > >::operator!=, COMDAT
; _this$ = ecx

; 299  : 		{	// test for iterator inequality

  00000	55		 push	 ebp
  00001	8b ec		 mov	 ebp, esp

; 300  : 		return (!(*this == _Right));

  00003	8b 01		 mov	 eax, DWORD PTR [ecx]
  00005	8b 55 08	 mov	 edx, DWORD PTR __Right$[ebp]
  00008	33 c9		 xor	 ecx, ecx
  0000a	3b 02		 cmp	 eax, DWORD PTR [edx]
  0000c	0f 95 c0	 setne	 al

; 301  : 		}

  0000f	5d		 pop	 ebp
  00010	c2 04 00	 ret	 4
??9?$_List_const_iterator@V?$_List_val@PAVioGameEntity@@V?$allocator@PAVioGameEntity@@@std@@@std@@@std@@QBE_NABV01@@Z ENDP ; std::_List_const_iterator<std::_List_val<ioGameEntity *,std::allocator<ioGameEntity *> > >::operator!=
_TEXT	ENDS
PUBLIC	?max_size@?$vector@UD3DXVECTOR3@@V?$allocator@UD3DXVECTOR3@@@std@@@std@@QBEIXZ ; std::vector<D3DXVECTOR3,std::allocator<D3DXVECTOR3> >::max_size
; Function compile flags: /Ogsp
; File c:\program files (x86)\microsoft visual studio 10.0\vc\include\vector
;	COMDAT ?max_size@?$vector@UD3DXVECTOR3@@V?$allocator@UD3DXVECTOR3@@@std@@@std@@QBEIXZ
_TEXT	SEGMENT
?max_size@?$vector@UD3DXVECTOR3@@V?$allocator@UD3DXVECTOR3@@@std@@@std@@QBEIXZ PROC ; std::vector<D3DXVECTOR3,std::allocator<D3DXVECTOR3> >::max_size, COMDAT
; _this$ = ecx

; 884  : 		return (this->_Alval.max_size());

  00000	b8 55 55 55 15	 mov	 eax, 357913941		; 15555555H

; 885  : 		}

  00005	c3		 ret	 0
?max_size@?$vector@UD3DXVECTOR3@@V?$allocator@UD3DXVECTOR3@@@std@@@std@@QBEIXZ ENDP ; std::vector<D3DXVECTOR3,std::allocator<D3DXVECTOR3> >::max_size
_TEXT	ENDS
PUBLIC	??0?$_Vector_val@UD3DXVECTOR3@@V?$allocator@UD3DXVECTOR3@@@std@@@std@@QAE@V?$allocator@UD3DXVECTOR3@@@1@@Z ; std::_Vector_val<D3DXVECTOR3,std::allocator<D3DXVECTOR3> >::_Vector_val<D3DXVECTOR3,std::allocator<D3DXVECTOR3> >
; Function compile flags: /Ogsp
;	COMDAT ??0?$_Vector_val@UD3DXVECTOR3@@V?$allocator@UD3DXVECTOR3@@@std@@@std@@QAE@V?$allocator@UD3DXVECTOR3@@@1@@Z
_TEXT	SEGMENT
__Al$ = 8						; size = 1
??0?$_Vector_val@UD3DXVECTOR3@@V?$allocator@UD3DXVECTOR3@@@std@@@std@@QAE@V?$allocator@UD3DXVECTOR3@@@1@@Z PROC ; std::_Vector_val<D3DXVECTOR3,std::allocator<D3DXVECTOR3> >::_Vector_val<D3DXVECTOR3,std::allocator<D3DXVECTOR3> >, COMDAT
; _this$ = ecx

; 426  : 		{	// construct allocator from _Al

  00000	8b c1		 mov	 eax, ecx

; 427  : 		_Myfirst = 0;

  00002	33 c9		 xor	 ecx, ecx
  00004	89 08		 mov	 DWORD PTR [eax], ecx

; 428  : 		_Mylast = 0;

  00006	89 48 04	 mov	 DWORD PTR [eax+4], ecx

; 429  : 		_Myend = 0;

  00009	89 48 08	 mov	 DWORD PTR [eax+8], ecx

; 430  : 		}

  0000c	c2 04 00	 ret	 4
??0?$_Vector_val@UD3DXVECTOR3@@V?$allocator@UD3DXVECTOR3@@@std@@@std@@QAE@V?$allocator@UD3DXVECTOR3@@@1@@Z ENDP ; std::_Vector_val<D3DXVECTOR3,std::allocator<D3DXVECTOR3> >::_Vector_val<D3DXVECTOR3,std::allocator<D3DXVECTOR3> >
_TEXT	ENDS
PUBLIC	?allocate@?$allocator@UD3DXVECTOR3@@@std@@QAEPAUD3DXVECTOR3@@I@Z ; std::allocator<D3DXVECTOR3>::allocate
; Function compile flags: /Ogsp
; File c:\program files (x86)\microsoft visual studio 10.0\vc\include\xmemory
;	COMDAT ?allocate@?$allocator@UD3DXVECTOR3@@@std@@QAEPAUD3DXVECTOR3@@I@Z
_TEXT	SEGMENT
__Count$ = 8						; size = 4
?allocate@?$allocator@UD3DXVECTOR3@@@std@@QAEPAUD3DXVECTOR3@@I@Z PROC ; std::allocator<D3DXVECTOR3>::allocate, COMDAT
; _this$ = ecx

; 186  : 		{	// allocate array of _Count elements

  00000	55		 push	 ebp
  00001	8b ec		 mov	 ebp, esp

; 187  : 		return (_Allocate(_Count, (pointer)0));

  00003	6a 00		 push	 0
  00005	ff 75 08	 push	 DWORD PTR __Count$[ebp]
  00008	e8 00 00 00 00	 call	 ??$_Allocate@UD3DXVECTOR3@@@std@@YAPAUD3DXVECTOR3@@IPAU1@@Z ; std::_Allocate<D3DXVECTOR3>
  0000d	59		 pop	 ecx
  0000e	59		 pop	 ecx

; 188  : 		}

  0000f	5d		 pop	 ebp
  00010	c2 04 00	 ret	 4
?allocate@?$allocator@UD3DXVECTOR3@@@std@@QAEPAUD3DXVECTOR3@@I@Z ENDP ; std::allocator<D3DXVECTOR3>::allocate
_TEXT	ENDS
PUBLIC	??8?$_Vector_const_iterator@V?$_Vector_val@PAVioGameEntity@@V?$allocator@PAVioGameEntity@@@std@@@std@@@std@@QBE_NABV01@@Z ; std::_Vector_const_iterator<std::_Vector_val<ioGameEntity *,std::allocator<ioGameEntity *> > >::operator==
; Function compile flags: /Ogsp
; File c:\program files (x86)\microsoft visual studio 10.0\vc\include\vector
;	COMDAT ??8?$_Vector_const_iterator@V?$_Vector_val@PAVioGameEntity@@V?$allocator@PAVioGameEntity@@@std@@@std@@@std@@QBE_NABV01@@Z
_TEXT	SEGMENT
__Right$ = 8						; size = 4
??8?$_Vector_const_iterator@V?$_Vector_val@PAVioGameEntity@@V?$allocator@PAVioGameEntity@@@std@@@std@@@std@@QBE_NABV01@@Z PROC ; std::_Vector_const_iterator<std::_Vector_val<ioGameEntity *,std::allocator<ioGameEntity *> > >::operator==, COMDAT
; _this$ = ecx

; 201  : 		{	// test for iterator equality

  00000	55		 push	 ebp
  00001	8b ec		 mov	 ebp, esp

; 202  : 		_Compat(_Right);
; 203  : 		return (this->_Ptr == _Right._Ptr);

  00003	8b 01		 mov	 eax, DWORD PTR [ecx]
  00005	8b 4d 08	 mov	 ecx, DWORD PTR __Right$[ebp]
  00008	2b 01		 sub	 eax, DWORD PTR [ecx]
  0000a	f7 d8		 neg	 eax
  0000c	1b c0		 sbb	 eax, eax
  0000e	40		 inc	 eax

; 204  : 		}

  0000f	5d		 pop	 ebp
  00010	c2 04 00	 ret	 4
??8?$_Vector_const_iterator@V?$_Vector_val@PAVioGameEntity@@V?$allocator@PAVioGameEntity@@@std@@@std@@@std@@QBE_NABV01@@Z ENDP ; std::_Vector_const_iterator<std::_Vector_val<ioGameEntity *,std::allocator<ioGameEntity *> > >::operator==
_TEXT	ENDS
PUBLIC	??0?$_List_const_iterator@V?$_List_val@PAVioGameEntity@@V?$allocator@PAVioGameEntity@@@std@@@std@@@std@@QAE@PAU_Node@?$_List_nod@PAVioGameEntity@@V?$allocator@PAVioGameEntity@@@std@@@1@PBV?$_List_val@PAVioGameEntity@@V?$allocator@PAVioGameEntity@@@std@@@1@@Z ; std::_List_const_iterator<std::_List_val<ioGameEntity *,std::allocator<ioGameEntity *> > >::_List_const_iterator<std::_List_val<ioGameEntity *,std::allocator<ioGameEntity *> > >
; Function compile flags: /Ogsp
; File c:\program files (x86)\microsoft visual studio 10.0\vc\include\list
;	COMDAT ??0?$_List_const_iterator@V?$_List_val@PAVioGameEntity@@V?$allocator@PAVioGameEntity@@@std@@@std@@@std@@QAE@PAU_Node@?$_List_nod@PAVioGameEntity@@V?$allocator@PAVioGameEntity@@@std@@@1@PBV?$_List_val@PAVioGameEntity@@V?$allocator@PAVioGameEntity@@@std@@@1@@Z
_TEXT	SEGMENT
__Pnode$ = 8						; size = 4
__Plist$ = 12						; size = 4
??0?$_List_const_iterator@V?$_List_val@PAVioGameEntity@@V?$allocator@PAVioGameEntity@@@std@@@std@@@std@@QAE@PAU_Node@?$_List_nod@PAVioGameEntity@@V?$allocator@PAVioGameEntity@@@std@@@1@PBV?$_List_val@PAVioGameEntity@@V?$allocator@PAVioGameEntity@@@std@@@1@@Z PROC ; std::_List_const_iterator<std::_List_val<ioGameEntity *,std::allocator<ioGameEntity *> > >::_List_const_iterator<std::_List_val<ioGameEntity *,std::allocator<ioGameEntity *> > >, COMDAT
; _this$ = ecx

; 184  : 		{	// construct with node pointer _Pnode

  00000	55		 push	 ebp
  00001	8b ec		 mov	 ebp, esp
  00003	8b c1		 mov	 eax, ecx
  00005	8b 4d 08	 mov	 ecx, DWORD PTR __Pnode$[ebp]
  00008	89 08		 mov	 DWORD PTR [eax], ecx

; 185  : 		}

  0000a	5d		 pop	 ebp
  0000b	c2 08 00	 ret	 8
??0?$_List_const_iterator@V?$_List_val@PAVioGameEntity@@V?$allocator@PAVioGameEntity@@@std@@@std@@@std@@QAE@PAU_Node@?$_List_nod@PAVioGameEntity@@V?$allocator@PAVioGameEntity@@@std@@@1@PBV?$_List_val@PAVioGameEntity@@V?$allocator@PAVioGameEntity@@@std@@@1@@Z ENDP ; std::_List_const_iterator<std::_List_val<ioGameEntity *,std::allocator<ioGameEntity *> > >::_List_const_iterator<std::_List_val<ioGameEntity *,std::allocator<ioGameEntity *> > >
_TEXT	ENDS
PUBLIC	??D?$_Vector_iterator@V?$_Vector_val@UD3DXVECTOR3@@V?$allocator@UD3DXVECTOR3@@@std@@@std@@@std@@QBEAAUD3DXVECTOR3@@XZ ; std::_Vector_iterator<std::_Vector_val<D3DXVECTOR3,std::allocator<D3DXVECTOR3> > >::operator*
; Function compile flags: /Ogsp
; File c:\program files (x86)\microsoft visual studio 10.0\vc\include\vector
;	COMDAT ??D?$_Vector_iterator@V?$_Vector_val@UD3DXVECTOR3@@V?$allocator@UD3DXVECTOR3@@@std@@@std@@@std@@QBEAAUD3DXVECTOR3@@XZ
_TEXT	SEGMENT
??D?$_Vector_iterator@V?$_Vector_val@UD3DXVECTOR3@@V?$allocator@UD3DXVECTOR3@@@std@@@std@@@std@@QBEAAUD3DXVECTOR3@@XZ PROC ; std::_Vector_iterator<std::_Vector_val<D3DXVECTOR3,std::allocator<D3DXVECTOR3> > >::operator*, COMDAT
; _this$ = ecx

; 322  : 		return ((reference)**(_Mybase *)this);

  00000	8b 01		 mov	 eax, DWORD PTR [ecx]

; 323  : 		}

  00002	c3		 ret	 0
??D?$_Vector_iterator@V?$_Vector_val@UD3DXVECTOR3@@V?$allocator@UD3DXVECTOR3@@@std@@@std@@@std@@QBEAAUD3DXVECTOR3@@XZ ENDP ; std::_Vector_iterator<std::_Vector_val<D3DXVECTOR3,std::allocator<D3DXVECTOR3> > >::operator*
_TEXT	ENDS
PUBLIC	?_Grow_to@?$vector@UD3DXVECTOR3@@V?$allocator@UD3DXVECTOR3@@@std@@@std@@IBEII@Z ; std::vector<D3DXVECTOR3,std::allocator<D3DXVECTOR3> >::_Grow_to
; Function compile flags: /Ogsp
;	COMDAT ?_Grow_to@?$vector@UD3DXVECTOR3@@V?$allocator@UD3DXVECTOR3@@@std@@@std@@IBEII@Z
_TEXT	SEGMENT
__Count$ = 8						; size = 4
?_Grow_to@?$vector@UD3DXVECTOR3@@V?$allocator@UD3DXVECTOR3@@@std@@@std@@IBEII@Z PROC ; std::vector<D3DXVECTOR3,std::allocator<D3DXVECTOR3> >::_Grow_to, COMDAT
; _this$ = ecx

; 1274 : 		{	// grow by 50% or at least to _Count

  00000	55		 push	 ebp
  00001	8b ec		 mov	 ebp, esp

; 1275 : 		size_type _Capacity = capacity();

  00003	8b 41 08	 mov	 eax, DWORD PTR [ecx+8]
  00006	2b 01		 sub	 eax, DWORD PTR [ecx]
  00008	6a 0c		 push	 12			; 0000000cH
  0000a	99		 cdq
  0000b	59		 pop	 ecx
  0000c	f7 f9		 idiv	 ecx

; 1276 : 
; 1277 : 		_Capacity = max_size() - _Capacity / 2 < _Capacity
; 1278 : 			? 0 : _Capacity + _Capacity / 2;	// try to grow by 50%

  0000e	ba 55 55 55 15	 mov	 edx, 357913941		; 15555555H
  00013	8b c8		 mov	 ecx, eax
  00015	d1 e9		 shr	 ecx, 1
  00017	2b d1		 sub	 edx, ecx
  00019	3b d0		 cmp	 edx, eax
  0001b	73 04		 jae	 SHORT $LN4@Grow_to
  0001d	33 c0		 xor	 eax, eax
  0001f	eb 02		 jmp	 SHORT $LN5@Grow_to
$LN4@Grow_to:
  00021	03 c1		 add	 eax, ecx
$LN5@Grow_to:

; 1279 : 		if (_Capacity < _Count)

  00023	3b 45 08	 cmp	 eax, DWORD PTR __Count$[ebp]

; 1280 : 			_Capacity = _Count;

  00026	0f 42 45 08	 cmovb	 eax, DWORD PTR __Count$[ebp]

; 1281 : 		return (_Capacity);
; 1282 : 		}

  0002a	5d		 pop	 ebp
  0002b	c2 04 00	 ret	 4
?_Grow_to@?$vector@UD3DXVECTOR3@@V?$allocator@UD3DXVECTOR3@@@std@@@std@@IBEII@Z ENDP ; std::vector<D3DXVECTOR3,std::allocator<D3DXVECTOR3> >::_Grow_to
_TEXT	ENDS
PUBLIC	??0?$_Vector_iterator@V?$_Vector_val@UD3DXVECTOR3@@V?$allocator@UD3DXVECTOR3@@@std@@@std@@@std@@QAE@PAUD3DXVECTOR3@@PBU_Container_base0@1@@Z ; std::_Vector_iterator<std::_Vector_val<D3DXVECTOR3,std::allocator<D3DXVECTOR3> > >::_Vector_iterator<std::_Vector_val<D3DXVECTOR3,std::allocator<D3DXVECTOR3> > >
; Function compile flags: /Ogsp
;	COMDAT ??0?$_Vector_iterator@V?$_Vector_val@UD3DXVECTOR3@@V?$allocator@UD3DXVECTOR3@@@std@@@std@@@std@@QAE@PAUD3DXVECTOR3@@PBU_Container_base0@1@@Z
_TEXT	SEGMENT
__Parg$ = 8						; size = 4
__Pvector$ = 12						; size = 4
??0?$_Vector_iterator@V?$_Vector_val@UD3DXVECTOR3@@V?$allocator@UD3DXVECTOR3@@@std@@@std@@@std@@QAE@PAUD3DXVECTOR3@@PBU_Container_base0@1@@Z PROC ; std::_Vector_iterator<std::_Vector_val<D3DXVECTOR3,std::allocator<D3DXVECTOR3> > >::_Vector_iterator<std::_Vector_val<D3DXVECTOR3,std::allocator<D3DXVECTOR3> > >, COMDAT
; _this$ = ecx

; 304  : 		{	// construct with pointer _Parg

  00000	55		 push	 ebp
  00001	8b ec		 mov	 ebp, esp
  00003	8b c1		 mov	 eax, ecx
  00005	8b 4d 08	 mov	 ecx, DWORD PTR __Parg$[ebp]
  00008	89 08		 mov	 DWORD PTR [eax], ecx

; 305  : 		}

  0000a	5d		 pop	 ebp
  0000b	c2 08 00	 ret	 8
??0?$_Vector_iterator@V?$_Vector_val@UD3DXVECTOR3@@V?$allocator@UD3DXVECTOR3@@@std@@@std@@@std@@QAE@PAUD3DXVECTOR3@@PBU_Container_base0@1@@Z ENDP ; std::_Vector_iterator<std::_Vector_val<D3DXVECTOR3,std::allocator<D3DXVECTOR3> > >::_Vector_iterator<std::_Vector_val<D3DXVECTOR3,std::allocator<D3DXVECTOR3> > >
_TEXT	ENDS
PUBLIC	??$_Cons_val@V?$allocator@UD3DXVECTOR3@@@std@@UD3DXVECTOR3@@AAU3@@std@@YAXAAV?$allocator@UD3DXVECTOR3@@@0@PAUD3DXVECTOR3@@AAU2@@Z ; std::_Cons_val<std::allocator<D3DXVECTOR3>,D3DXVECTOR3,D3DXVECTOR3 &>
; Function compile flags: /Ogsp
; File c:\program files (x86)\microsoft visual studio 10.0\vc\include\xmemory
;	COMDAT ??$_Cons_val@V?$allocator@UD3DXVECTOR3@@@std@@UD3DXVECTOR3@@AAU3@@std@@YAXAAV?$allocator@UD3DXVECTOR3@@@0@PAUD3DXVECTOR3@@AAU2@@Z
_TEXT	SEGMENT
__Alval$ = 8						; size = 4
__Pdest$ = 12						; size = 4
__Src$ = 16						; size = 4
??$_Cons_val@V?$allocator@UD3DXVECTOR3@@@std@@UD3DXVECTOR3@@AAU3@@std@@YAXAAV?$allocator@UD3DXVECTOR3@@@0@PAUD3DXVECTOR3@@AAU2@@Z PROC ; std::_Cons_val<std::allocator<D3DXVECTOR3>,D3DXVECTOR3,D3DXVECTOR3 &>, COMDAT

; 279  : 	{	// construct using allocator

  00000	55		 push	 ebp
  00001	8b ec		 mov	 ebp, esp
  00003	57		 push	 edi

; 280  : 	_Alval.construct(_Pdest, _STD forward<_Ty2>(_Src));

  00004	8b 7d 0c	 mov	 edi, DWORD PTR __Pdest$[ebp]
  00007	85 ff		 test	 edi, edi
  00009	74 08		 je	 SHORT $LN7@Cons_val
  0000b	56		 push	 esi
  0000c	8b 75 10	 mov	 esi, DWORD PTR __Src$[ebp]
  0000f	a5		 movsd
  00010	a5		 movsd
  00011	a5		 movsd
  00012	5e		 pop	 esi
$LN7@Cons_val:
  00013	5f		 pop	 edi

; 281  : 	}

  00014	5d		 pop	 ebp
  00015	c3		 ret	 0
??$_Cons_val@V?$allocator@UD3DXVECTOR3@@@std@@UD3DXVECTOR3@@AAU3@@std@@YAXAAV?$allocator@UD3DXVECTOR3@@@0@PAUD3DXVECTOR3@@AAU2@@Z ENDP ; std::_Cons_val<std::allocator<D3DXVECTOR3>,D3DXVECTOR3,D3DXVECTOR3 &>
_TEXT	ENDS
PUBLIC	?construct@?$allocator@UD3DXVECTOR3@@@std@@QAEXPAUD3DXVECTOR3@@ABU3@@Z ; std::allocator<D3DXVECTOR3>::construct
; Function compile flags: /Ogsp
;	COMDAT ?construct@?$allocator@UD3DXVECTOR3@@@std@@QAEXPAUD3DXVECTOR3@@ABU3@@Z
_TEXT	SEGMENT
__Ptr$ = 8						; size = 4
__Val$ = 12						; size = 4
?construct@?$allocator@UD3DXVECTOR3@@@std@@QAEXPAUD3DXVECTOR3@@ABU3@@Z PROC ; std::allocator<D3DXVECTOR3>::construct, COMDAT
; _this$ = ecx

; 196  : 		{	// construct object at _Ptr with value _Val

  00000	55		 push	 ebp
  00001	8b ec		 mov	 ebp, esp
  00003	57		 push	 edi

; 197  : 		_Construct(_Ptr, _Val);

  00004	8b 7d 08	 mov	 edi, DWORD PTR __Ptr$[ebp]
  00007	85 ff		 test	 edi, edi
  00009	74 08		 je	 SHORT $LN5@construct@2
  0000b	56		 push	 esi
  0000c	8b 75 0c	 mov	 esi, DWORD PTR __Val$[ebp]
  0000f	a5		 movsd
  00010	a5		 movsd
  00011	a5		 movsd
  00012	5e		 pop	 esi
$LN5@construct@2:
  00013	5f		 pop	 edi

; 198  : 		}

  00014	5d		 pop	 ebp
  00015	c2 08 00	 ret	 8
?construct@?$allocator@UD3DXVECTOR3@@@std@@QAEXPAUD3DXVECTOR3@@ABU3@@Z ENDP ; std::allocator<D3DXVECTOR3>::construct
_TEXT	ENDS
PUBLIC	?destroy@?$allocator@UD3DXVECTOR3@@@std@@QAEXPAUD3DXVECTOR3@@@Z ; std::allocator<D3DXVECTOR3>::destroy
; Function compile flags: /Ogsp
;	COMDAT ?destroy@?$allocator@UD3DXVECTOR3@@@std@@QAEXPAUD3DXVECTOR3@@@Z
_TEXT	SEGMENT
__Ptr$ = 8						; size = 4
?destroy@?$allocator@UD3DXVECTOR3@@@std@@QAEXPAUD3DXVECTOR3@@@Z PROC ; std::allocator<D3DXVECTOR3>::destroy, COMDAT
; _this$ = ecx

; 213  : 		_Destroy(_Ptr);
; 214  : 		}

  00000	c2 04 00	 ret	 4
?destroy@?$allocator@UD3DXVECTOR3@@@std@@QAEXPAUD3DXVECTOR3@@@Z ENDP ; std::allocator<D3DXVECTOR3>::destroy
_TEXT	ENDS
PUBLIC	?construct@?$allocator@UD3DXVECTOR3@@@std@@QAEXPAUD3DXVECTOR3@@$$QAU3@@Z ; std::allocator<D3DXVECTOR3>::construct
; Function compile flags: /Ogsp
;	COMDAT ?construct@?$allocator@UD3DXVECTOR3@@@std@@QAEXPAUD3DXVECTOR3@@$$QAU3@@Z
_TEXT	SEGMENT
__Ptr$ = 8						; size = 4
__Val$ = 12						; size = 4
?construct@?$allocator@UD3DXVECTOR3@@@std@@QAEXPAUD3DXVECTOR3@@$$QAU3@@Z PROC ; std::allocator<D3DXVECTOR3>::construct, COMDAT
; _this$ = ecx

; 201  : 		{	// construct object at _Ptr with value _Val

  00000	55		 push	 ebp
  00001	8b ec		 mov	 ebp, esp
  00003	57		 push	 edi

; 202  : 		::new ((void _FARQ *)_Ptr) _Ty(_STD forward<_Ty>(_Val));

  00004	8b 7d 08	 mov	 edi, DWORD PTR __Ptr$[ebp]
  00007	85 ff		 test	 edi, edi
  00009	74 08		 je	 SHORT $LN3@construct@3
  0000b	56		 push	 esi
  0000c	8b 75 0c	 mov	 esi, DWORD PTR __Val$[ebp]
  0000f	a5		 movsd
  00010	a5		 movsd
  00011	a5		 movsd
  00012	5e		 pop	 esi
$LN3@construct@3:
  00013	5f		 pop	 edi

; 203  : 		}

  00014	5d		 pop	 ebp
  00015	c2 08 00	 ret	 8
?construct@?$allocator@UD3DXVECTOR3@@@std@@QAEXPAUD3DXVECTOR3@@$$QAU3@@Z ENDP ; std::allocator<D3DXVECTOR3>::construct
_TEXT	ENDS
PUBLIC	??0?$vector@UD3DXVECTOR3@@V?$allocator@UD3DXVECTOR3@@@std@@@std@@QAE@XZ ; std::vector<D3DXVECTOR3,std::allocator<D3DXVECTOR3> >::vector<D3DXVECTOR3,std::allocator<D3DXVECTOR3> >
; Function compile flags: /Ogsp
; File c:\program files (x86)\microsoft visual studio 10.0\vc\include\vector
;	COMDAT ??0?$vector@UD3DXVECTOR3@@V?$allocator@UD3DXVECTOR3@@@std@@@std@@QAE@XZ
_TEXT	SEGMENT
??0?$vector@UD3DXVECTOR3@@V?$allocator@UD3DXVECTOR3@@@std@@@std@@QAE@XZ PROC ; std::vector<D3DXVECTOR3,std::allocator<D3DXVECTOR3> >::vector<D3DXVECTOR3,std::allocator<D3DXVECTOR3> >, COMDAT
; _this$ = ecx

; 507  : 		{	// construct empty vector

  00000	8b c1		 mov	 eax, ecx
  00002	33 c9		 xor	 ecx, ecx
  00004	89 08		 mov	 DWORD PTR [eax], ecx
  00006	89 48 04	 mov	 DWORD PTR [eax+4], ecx
  00009	89 48 08	 mov	 DWORD PTR [eax+8], ecx

; 508  : 		}

  0000c	c3		 ret	 0
??0?$vector@UD3DXVECTOR3@@V?$allocator@UD3DXVECTOR3@@@std@@@std@@QAE@XZ ENDP ; std::vector<D3DXVECTOR3,std::allocator<D3DXVECTOR3> >::vector<D3DXVECTOR3,std::allocator<D3DXVECTOR3> >
_TEXT	ENDS
PUBLIC	?begin@?$list@PAVioGameEntity@@V?$allocator@PAVioGameEntity@@@std@@@std@@QBE?AV?$_List_const_iterator@V?$_List_val@PAVioGameEntity@@V?$allocator@PAVioGameEntity@@@std@@@std@@@2@XZ ; std::list<ioGameEntity *,std::allocator<ioGameEntity *> >::begin
; Function compile flags: /Ogsp
; File c:\program files (x86)\microsoft visual studio 10.0\vc\include\list
;	COMDAT ?begin@?$list@PAVioGameEntity@@V?$allocator@PAVioGameEntity@@@std@@@std@@QBE?AV?$_List_const_iterator@V?$_List_val@PAVioGameEntity@@V?$allocator@PAVioGameEntity@@@std@@@std@@@2@XZ
_TEXT	SEGMENT
___$ReturnUdt$ = 8					; size = 4
?begin@?$list@PAVioGameEntity@@V?$allocator@PAVioGameEntity@@@std@@@std@@QBE?AV?$_List_const_iterator@V?$_List_val@PAVioGameEntity@@V?$allocator@PAVioGameEntity@@@std@@@std@@@2@XZ PROC ; std::list<ioGameEntity *,std::allocator<ioGameEntity *> >::begin, COMDAT
; _this$ = ecx

; 786  : 		{	// return iterator for beginning of nonmutable sequence

  00000	55		 push	 ebp
  00001	8b ec		 mov	 ebp, esp

; 787  : 		return (const_iterator(this->_Nextnode(this->_Myhead), this));

  00003	8b 01		 mov	 eax, DWORD PTR [ecx]
  00005	8b 08		 mov	 ecx, DWORD PTR [eax]
  00007	8b 45 08	 mov	 eax, DWORD PTR ___$ReturnUdt$[ebp]
  0000a	89 08		 mov	 DWORD PTR [eax], ecx

; 788  : 		}

  0000c	5d		 pop	 ebp
  0000d	c2 04 00	 ret	 4
?begin@?$list@PAVioGameEntity@@V?$allocator@PAVioGameEntity@@@std@@@std@@QBE?AV?$_List_const_iterator@V?$_List_val@PAVioGameEntity@@V?$allocator@PAVioGameEntity@@@std@@@std@@@2@XZ ENDP ; std::list<ioGameEntity *,std::allocator<ioGameEntity *> >::begin
_TEXT	ENDS
PUBLIC	?end@?$list@PAVioGameEntity@@V?$allocator@PAVioGameEntity@@@std@@@std@@QBE?AV?$_List_const_iterator@V?$_List_val@PAVioGameEntity@@V?$allocator@PAVioGameEntity@@@std@@@std@@@2@XZ ; std::list<ioGameEntity *,std::allocator<ioGameEntity *> >::end
; Function compile flags: /Ogsp
;	COMDAT ?end@?$list@PAVioGameEntity@@V?$allocator@PAVioGameEntity@@@std@@@std@@QBE?AV?$_List_const_iterator@V?$_List_val@PAVioGameEntity@@V?$allocator@PAVioGameEntity@@@std@@@std@@@2@XZ
_TEXT	SEGMENT
___$ReturnUdt$ = 8					; size = 4
?end@?$list@PAVioGameEntity@@V?$allocator@PAVioGameEntity@@@std@@@std@@QBE?AV?$_List_const_iterator@V?$_List_val@PAVioGameEntity@@V?$allocator@PAVioGameEntity@@@std@@@std@@@2@XZ PROC ; std::list<ioGameEntity *,std::allocator<ioGameEntity *> >::end, COMDAT
; _this$ = ecx

; 796  : 		{	// return iterator for end of nonmutable sequence

  00000	55		 push	 ebp
  00001	8b ec		 mov	 ebp, esp

; 797  : 		return (const_iterator(this->_Myhead, this));

  00003	8b 09		 mov	 ecx, DWORD PTR [ecx]
  00005	8b 45 08	 mov	 eax, DWORD PTR ___$ReturnUdt$[ebp]
  00008	89 08		 mov	 DWORD PTR [eax], ecx

; 798  : 		}

  0000a	5d		 pop	 ebp
  0000b	c2 04 00	 ret	 4
?end@?$list@PAVioGameEntity@@V?$allocator@PAVioGameEntity@@@std@@@std@@QBE?AV?$_List_const_iterator@V?$_List_val@PAVioGameEntity@@V?$allocator@PAVioGameEntity@@@std@@@std@@@2@XZ ENDP ; std::list<ioGameEntity *,std::allocator<ioGameEntity *> >::end
_TEXT	ENDS
PUBLIC	??9?$_Vector_const_iterator@V?$_Vector_val@PAVioGameEntity@@V?$allocator@PAVioGameEntity@@@std@@@std@@@std@@QBE_NABV01@@Z ; std::_Vector_const_iterator<std::_Vector_val<ioGameEntity *,std::allocator<ioGameEntity *> > >::operator!=
; Function compile flags: /Ogsp
; File c:\program files (x86)\microsoft visual studio 10.0\vc\include\vector
;	COMDAT ??9?$_Vector_const_iterator@V?$_Vector_val@PAVioGameEntity@@V?$allocator@PAVioGameEntity@@@std@@@std@@@std@@QBE_NABV01@@Z
_TEXT	SEGMENT
__Right$ = 8						; size = 4
??9?$_Vector_const_iterator@V?$_Vector_val@PAVioGameEntity@@V?$allocator@PAVioGameEntity@@@std@@@std@@@std@@QBE_NABV01@@Z PROC ; std::_Vector_const_iterator<std::_Vector_val<ioGameEntity *,std::allocator<ioGameEntity *> > >::operator!=, COMDAT
; _this$ = ecx

; 207  : 		{	// test for iterator inequality

  00000	55		 push	 ebp
  00001	8b ec		 mov	 ebp, esp

; 208  : 		return (!(*this == _Right));

  00003	8b 01		 mov	 eax, DWORD PTR [ecx]
  00005	8b 55 08	 mov	 edx, DWORD PTR __Right$[ebp]
  00008	33 c9		 xor	 ecx, ecx
  0000a	3b 02		 cmp	 eax, DWORD PTR [edx]
  0000c	0f 95 c0	 setne	 al

; 209  : 		}

  0000f	5d		 pop	 ebp
  00010	c2 04 00	 ret	 4
??9?$_Vector_const_iterator@V?$_Vector_val@PAVioGameEntity@@V?$allocator@PAVioGameEntity@@@std@@@std@@@std@@QBE_NABV01@@Z ENDP ; std::_Vector_const_iterator<std::_Vector_val<ioGameEntity *,std::allocator<ioGameEntity *> > >::operator!=
_TEXT	ENDS
PUBLIC	?begin@?$vector@UD3DXVECTOR3@@V?$allocator@UD3DXVECTOR3@@@std@@@std@@QAE?AV?$_Vector_iterator@V?$_Vector_val@UD3DXVECTOR3@@V?$allocator@UD3DXVECTOR3@@@std@@@std@@@2@XZ ; std::vector<D3DXVECTOR3,std::allocator<D3DXVECTOR3> >::begin
; Function compile flags: /Ogsp
;	COMDAT ?begin@?$vector@UD3DXVECTOR3@@V?$allocator@UD3DXVECTOR3@@@std@@@std@@QAE?AV?$_Vector_iterator@V?$_Vector_val@UD3DXVECTOR3@@V?$allocator@UD3DXVECTOR3@@@std@@@std@@@2@XZ
_TEXT	SEGMENT
___$ReturnUdt$ = 8					; size = 4
?begin@?$vector@UD3DXVECTOR3@@V?$allocator@UD3DXVECTOR3@@@std@@@std@@QAE?AV?$_Vector_iterator@V?$_Vector_val@UD3DXVECTOR3@@V?$allocator@UD3DXVECTOR3@@@std@@@std@@@2@XZ PROC ; std::vector<D3DXVECTOR3,std::allocator<D3DXVECTOR3> >::begin, COMDAT
; _this$ = ecx

; 781  : 		{	// return iterator for beginning of mutable sequence

  00000	55		 push	 ebp
  00001	8b ec		 mov	 ebp, esp

; 782  : 		return (iterator(this->_Myfirst, this));

  00003	8b 09		 mov	 ecx, DWORD PTR [ecx]
  00005	8b 45 08	 mov	 eax, DWORD PTR ___$ReturnUdt$[ebp]
  00008	89 08		 mov	 DWORD PTR [eax], ecx

; 783  : 		}

  0000a	5d		 pop	 ebp
  0000b	c2 04 00	 ret	 4
?begin@?$vector@UD3DXVECTOR3@@V?$allocator@UD3DXVECTOR3@@@std@@@std@@QAE?AV?$_Vector_iterator@V?$_Vector_val@UD3DXVECTOR3@@V?$allocator@UD3DXVECTOR3@@@std@@@std@@@2@XZ ENDP ; std::vector<D3DXVECTOR3,std::allocator<D3DXVECTOR3> >::begin
_TEXT	ENDS
PUBLIC	??$_Cons_val@V?$allocator@UD3DXVECTOR3@@@std@@UD3DXVECTOR3@@ABU3@@std@@YAXAAV?$allocator@UD3DXVECTOR3@@@0@PAUD3DXVECTOR3@@ABU2@@Z ; std::_Cons_val<std::allocator<D3DXVECTOR3>,D3DXVECTOR3,D3DXVECTOR3 const &>
; Function compile flags: /Ogsp
; File c:\program files (x86)\microsoft visual studio 10.0\vc\include\xmemory
;	COMDAT ??$_Cons_val@V?$allocator@UD3DXVECTOR3@@@std@@UD3DXVECTOR3@@ABU3@@std@@YAXAAV?$allocator@UD3DXVECTOR3@@@0@PAUD3DXVECTOR3@@ABU2@@Z
_TEXT	SEGMENT
__Alval$ = 8						; size = 4
__Pdest$ = 12						; size = 4
__Src$ = 16						; size = 4
??$_Cons_val@V?$allocator@UD3DXVECTOR3@@@std@@UD3DXVECTOR3@@ABU3@@std@@YAXAAV?$allocator@UD3DXVECTOR3@@@0@PAUD3DXVECTOR3@@ABU2@@Z PROC ; std::_Cons_val<std::allocator<D3DXVECTOR3>,D3DXVECTOR3,D3DXVECTOR3 const &>, COMDAT

; 279  : 	{	// construct using allocator

  00000	55		 push	 ebp
  00001	8b ec		 mov	 ebp, esp
  00003	57		 push	 edi

; 280  : 	_Alval.construct(_Pdest, _STD forward<_Ty2>(_Src));

  00004	8b 7d 0c	 mov	 edi, DWORD PTR __Pdest$[ebp]
  00007	85 ff		 test	 edi, edi
  00009	74 08		 je	 SHORT $LN9@Cons_val@2
  0000b	56		 push	 esi
  0000c	8b 75 10	 mov	 esi, DWORD PTR __Src$[ebp]
  0000f	a5		 movsd
  00010	a5		 movsd
  00011	a5		 movsd
  00012	5e		 pop	 esi
$LN9@Cons_val@2:
  00013	5f		 pop	 edi

; 281  : 	}

  00014	5d		 pop	 ebp
  00015	c3		 ret	 0
??$_Cons_val@V?$allocator@UD3DXVECTOR3@@@std@@UD3DXVECTOR3@@ABU3@@std@@YAXAAV?$allocator@UD3DXVECTOR3@@@0@PAUD3DXVECTOR3@@ABU2@@Z ENDP ; std::_Cons_val<std::allocator<D3DXVECTOR3>,D3DXVECTOR3,D3DXVECTOR3 const &>
_TEXT	ENDS
PUBLIC	??$_Dest_val@V?$allocator@UD3DXVECTOR3@@@std@@UD3DXVECTOR3@@@std@@YAXAAV?$allocator@UD3DXVECTOR3@@@0@PAUD3DXVECTOR3@@@Z ; std::_Dest_val<std::allocator<D3DXVECTOR3>,D3DXVECTOR3>
; Function compile flags: /Ogsp
;	COMDAT ??$_Dest_val@V?$allocator@UD3DXVECTOR3@@@std@@UD3DXVECTOR3@@@std@@YAXAAV?$allocator@UD3DXVECTOR3@@@0@PAUD3DXVECTOR3@@@Z
_TEXT	SEGMENT
__Alval$ = 8						; size = 4
__Pdest$ = 12						; size = 4
??$_Dest_val@V?$allocator@UD3DXVECTOR3@@@std@@UD3DXVECTOR3@@@std@@YAXAAV?$allocator@UD3DXVECTOR3@@@0@PAUD3DXVECTOR3@@@Z PROC ; std::_Dest_val<std::allocator<D3DXVECTOR3>,D3DXVECTOR3>, COMDAT

; 287  : 	_Alval.destroy(_Pdest);
; 288  : 	}

  00000	c3		 ret	 0
??$_Dest_val@V?$allocator@UD3DXVECTOR3@@@std@@UD3DXVECTOR3@@@std@@YAXAAV?$allocator@UD3DXVECTOR3@@@0@PAUD3DXVECTOR3@@@Z ENDP ; std::_Dest_val<std::allocator<D3DXVECTOR3>,D3DXVECTOR3>
_TEXT	ENDS
PUBLIC	??$_Cons_val@V?$allocator@UD3DXVECTOR3@@@std@@UD3DXVECTOR3@@U3@@std@@YAXAAV?$allocator@UD3DXVECTOR3@@@0@PAUD3DXVECTOR3@@$$QAU2@@Z ; std::_Cons_val<std::allocator<D3DXVECTOR3>,D3DXVECTOR3,D3DXVECTOR3>
; Function compile flags: /Ogsp
;	COMDAT ??$_Cons_val@V?$allocator@UD3DXVECTOR3@@@std@@UD3DXVECTOR3@@U3@@std@@YAXAAV?$allocator@UD3DXVECTOR3@@@0@PAUD3DXVECTOR3@@$$QAU2@@Z
_TEXT	SEGMENT
__Alval$ = 8						; size = 4
__Pdest$ = 12						; size = 4
__Src$ = 16						; size = 4
??$_Cons_val@V?$allocator@UD3DXVECTOR3@@@std@@UD3DXVECTOR3@@U3@@std@@YAXAAV?$allocator@UD3DXVECTOR3@@@0@PAUD3DXVECTOR3@@$$QAU2@@Z PROC ; std::_Cons_val<std::allocator<D3DXVECTOR3>,D3DXVECTOR3,D3DXVECTOR3>, COMDAT

; 279  : 	{	// construct using allocator

  00000	55		 push	 ebp
  00001	8b ec		 mov	 ebp, esp
  00003	57		 push	 edi

; 280  : 	_Alval.construct(_Pdest, _STD forward<_Ty2>(_Src));

  00004	8b 7d 0c	 mov	 edi, DWORD PTR __Pdest$[ebp]
  00007	85 ff		 test	 edi, edi
  00009	74 08		 je	 SHORT $LN7@Cons_val@3
  0000b	56		 push	 esi
  0000c	8b 75 10	 mov	 esi, DWORD PTR __Src$[ebp]
  0000f	a5		 movsd
  00010	a5		 movsd
  00011	a5		 movsd
  00012	5e		 pop	 esi
$LN7@Cons_val@3:
  00013	5f		 pop	 edi

; 281  : 	}

  00014	5d		 pop	 ebp
  00015	c3		 ret	 0
??$_Cons_val@V?$allocator@UD3DXVECTOR3@@@std@@UD3DXVECTOR3@@U3@@std@@YAXAAV?$allocator@UD3DXVECTOR3@@@0@PAUD3DXVECTOR3@@$$QAU2@@Z ENDP ; std::_Cons_val<std::allocator<D3DXVECTOR3>,D3DXVECTOR3,D3DXVECTOR3>
_TEXT	ENDS
PUBLIC	?HasMountedEntity@ioMapCollisionHelper@@YA_NPAVioGameEntity@@ABV?$vector@PAVioGameEntity@@V?$allocator@PAVioGameEntity@@@std@@@std@@@Z ; ioMapCollisionHelper::HasMountedEntity
; Function compile flags: /Ogsp
; File d:\lost saga for developer\youtube\tutorial\source\src\lsclient\iomapcollisionhelper.cpp
;	COMDAT ?HasMountedEntity@ioMapCollisionHelper@@YA_NPAVioGameEntity@@ABV?$vector@PAVioGameEntity@@V?$allocator@PAVioGameEntity@@@std@@@std@@@Z
_TEXT	SEGMENT
_pMount$ = 8						; size = 4
_rkMount$ = 12						; size = 4
?HasMountedEntity@ioMapCollisionHelper@@YA_NPAVioGameEntity@@ABV?$vector@PAVioGameEntity@@V?$allocator@PAVioGameEntity@@@std@@@std@@@Z PROC ; ioMapCollisionHelper::HasMountedEntity, COMDAT

; 86   : 	{

  00000	55		 push	 ebp
  00001	8b ec		 mov	 ebp, esp

; 87   : 		MountedEntityList::const_iterator iter = rkMount.begin();

  00003	8b 4d 0c	 mov	 ecx, DWORD PTR _rkMount$[ebp]
  00006	8b 01		 mov	 eax, DWORD PTR [ecx]

; 88   : 		for( ; iter != rkMount.end(); ++iter )

  00008	8b 49 04	 mov	 ecx, DWORD PTR [ecx+4]
  0000b	eb 0a		 jmp	 SHORT $LN32@HasMounted
$LL13@HasMounted:

; 89   : 		{
; 90   : 			ioGameEntity* pMountedEntity = *iter;
; 91   : 			if( pMountedEntity == pMount )

  0000d	8b 10		 mov	 edx, DWORD PTR [eax]
  0000f	3b 55 08	 cmp	 edx, DWORD PTR _pMount$[ebp]
  00012	74 0b		 je	 SHORT $LN30@HasMounted

; 88   : 		for( ; iter != rkMount.end(); ++iter )

  00014	83 c0 04	 add	 eax, 4
$LN32@HasMounted:
  00017	3b c1		 cmp	 eax, ecx
  00019	75 f2		 jne	 SHORT $LL13@HasMounted

; 94   : 			}
; 95   : 		}
; 96   : 
; 97   : 		return false;

  0001b	32 c0		 xor	 al, al

; 98   : 	}

  0001d	5d		 pop	 ebp
  0001e	c3		 ret	 0
$LN30@HasMounted:

; 92   : 			{
; 93   : 				return true;

  0001f	b0 01		 mov	 al, 1

; 98   : 	}

  00021	5d		 pop	 ebp
  00022	c3		 ret	 0
?HasMountedEntity@ioMapCollisionHelper@@YA_NPAVioGameEntity@@ABV?$vector@PAVioGameEntity@@V?$allocator@PAVioGameEntity@@@std@@@std@@@Z ENDP ; ioMapCollisionHelper::HasMountedEntity
_TEXT	ENDS
PUBLIC	_pEntity$GSCopy$
PUBLIC	_bCol$GSCopy$
PUBLIC	_AvailableList$GSCopy$
PUBLIC	_pMove$GSCopy$
PUBLIC	_kAxisBox$GSCopy$
PUBLIC	_pMountList$GSCopy$
PUBLIC	_kAxisMoveBox$GSCopy$
PUBLIC	?ReCalculateMoveVectorByMountAvailableEntity@ioMapCollisionHelper@@YA_NPAVioPlayEntity@@AAVioAxisAlignBox@@ABV3@_NABV?$list@PAVioGameEntity@@V?$allocator@PAVioGameEntity@@@std@@@std@@PBV?$vector@PAVioGameEntity@@V?$allocator@PAVioGameEntity@@@std@@@5@ABUD3DXVECTOR3@@PAU7@AA_N@Z ; ioMapCollisionHelper::ReCalculateMoveVectorByMountAvailableEntity
EXTRN	__imp_?Translate@ioAxisAlignBox@@QAEXABUD3DXVECTOR3@@@Z:PROC
EXTRN	__imp_??4ioAxisAlignBox@@QAEAAV0@ABV0@@Z:PROC
EXTRN	__imp_?TestIntersection@ioMath@@SA_NABVioOrientBox@@0PAM@Z:PROC
EXTRN	__imp_?SetByAxisBox@ioOrientBox@@QAEXABVioAxisAlignBox@@@Z:PROC
EXTRN	__imp_??0ioOrientBox@@QAE@XZ:PROC
EXTRN	__imp_?SetCenter@ioOrientBox@@QAEXABUD3DXVECTOR3@@@Z:PROC
EXTRN	?GetWorldCollisionBox@ioGameEntity@@QBEABVioOrientBox@@XZ:PROC ; ioGameEntity::GetWorldCollisionBox
EXTRN	?GetWorldAxisBox@ioGameEntity@@QBEABVioAxisAlignBox@@XZ:PROC ; ioGameEntity::GetWorldAxisBox
EXTRN	?IsDummyCharCollisionSkipState@ioDummyChar@@QAE_NPBVioBaseChar@@@Z:PROC ; ioDummyChar::IsDummyCharCollisionSkipState
EXTRN	__imp_??1ioOrientBox@@QAE@XZ:PROC
;	COMDAT xdata$x
; File c:\program files (x86)\microsoft directx sdk (june 2010)\include\d3dx9math.inl
xdata$x	SEGMENT
__unwindtable$?ReCalculateMoveVectorByMountAvailableEntity@ioMapCollisionHelper@@YA_NPAVioPlayEntity@@AAVioAxisAlignBox@@ABV3@_NABV?$list@PAVioGameEntity@@V?$allocator@PAVioGameEntity@@@std@@@std@@PBV?$vector@PAVioGameEntity@@V?$allocator@PAVioGameEntity@@@std@@@5@ABUD3DXVECTOR3@@PAU7@AA_N@Z DD 0ffffffffH
	DD	FLAT:__unwindfunclet$?ReCalculateMoveVectorByMountAvailableEntity@ioMapCollisionHelper@@YA_NPAVioPlayEntity@@AAVioAxisAlignBox@@ABV3@_NABV?$list@PAVioGameEntity@@V?$allocator@PAVioGameEntity@@@std@@@std@@PBV?$vector@PAVioGameEntity@@V?$allocator@PAVioGameEntity@@@std@@@5@ABUD3DXVECTOR3@@PAU7@AA_N@Z$0
	DD	00H
	DD	FLAT:__unwindfunclet$?ReCalculateMoveVectorByMountAvailableEntity@ioMapCollisionHelper@@YA_NPAVioPlayEntity@@AAVioAxisAlignBox@@ABV3@_NABV?$list@PAVioGameEntity@@V?$allocator@PAVioGameEntity@@@std@@@std@@PBV?$vector@PAVioGameEntity@@V?$allocator@PAVioGameEntity@@@std@@@5@ABUD3DXVECTOR3@@PAU7@AA_N@Z$1
__ehfuncinfo$?ReCalculateMoveVectorByMountAvailableEntity@ioMapCollisionHelper@@YA_NPAVioPlayEntity@@AAVioAxisAlignBox@@ABV3@_NABV?$list@PAVioGameEntity@@V?$allocator@PAVioGameEntity@@@std@@@std@@PBV?$vector@PAVioGameEntity@@V?$allocator@PAVioGameEntity@@@std@@@5@ABUD3DXVECTOR3@@PAU7@AA_N@Z DD 019930522H
	DD	02H
	DD	FLAT:__unwindtable$?ReCalculateMoveVectorByMountAvailableEntity@ioMapCollisionHelper@@YA_NPAVioPlayEntity@@AAVioAxisAlignBox@@ABV3@_NABV?$list@PAVioGameEntity@@V?$allocator@PAVioGameEntity@@@std@@@std@@PBV?$vector@PAVioGameEntity@@V?$allocator@PAVioGameEntity@@@std@@@5@ABUD3DXVECTOR3@@PAU7@AA_N@Z
	DD	2 DUP(00H)
	DD	2 DUP(00H)
	DD	00H
	DD	01H
; Function compile flags: /Ogsp
; File d:\lost saga for developer\youtube\tutorial\source\src\lsclient\iomapcollisionhelper.cpp
xdata$x	ENDS
;	COMDAT ?ReCalculateMoveVectorByMountAvailableEntity@ioMapCollisionHelper@@YA_NPAVioPlayEntity@@AAVioAxisAlignBox@@ABV3@_NABV?$list@PAVioGameEntity@@V?$allocator@PAVioGameEntity@@@std@@@std@@PBV?$vector@PAVioGameEntity@@V?$allocator@PAVioGameEntity@@@std@@@5@ABUD3DXVECTOR3@@PAU7@AA_N@Z
_TEXT	SEGMENT
_bCol$GSCopy$ = -204					; size = 4
_AvailableList$GSCopy$ = -200				; size = 4
$T534431 = -196						; size = 4
_pMountList$GSCopy$ = -192				; size = 4
_pMove$GSCopy$ = -188					; size = 4
_iMount$ = -184						; size = 4
_pEntity$GSCopy$ = -180					; size = 4
_kAxisMoveBox$GSCopy$ = -176				; size = 4
_kAxisBox$GSCopy$ = -172				; size = 4
_rkMountBox$531901 = -168				; size = 4
_pDummy$531897 = -168					; size = 4
_kMountOrient$531902 = -164				; size = 68
_kOrientBox$531903 = -96				; size = 68
_vCenterDir$531905 = -28				; size = 12
__$EHRec$ = -12						; size = 12
_pEntity$ = 8						; size = 4
_kAxisMoveBox$ = 12					; size = 4
_kAxisBox$ = 16						; size = 4
_bMonsterVsMonsterCollision$ = 20			; size = 1
_AvailableList$ = 24					; size = 4
_pMountList$ = 28					; size = 4
_vMoveDir$ = 32						; size = 4
_pMove$ = 36						; size = 4
_bCol$ = 40						; size = 4
?ReCalculateMoveVectorByMountAvailableEntity@ioMapCollisionHelper@@YA_NPAVioPlayEntity@@AAVioAxisAlignBox@@ABV3@_NABV?$list@PAVioGameEntity@@V?$allocator@PAVioGameEntity@@@std@@@std@@PBV?$vector@PAVioGameEntity@@V?$allocator@PAVioGameEntity@@@std@@@5@ABUD3DXVECTOR3@@PAU7@AA_N@Z PROC ; ioMapCollisionHelper::ReCalculateMoveVectorByMountAvailableEntity, COMDAT

; 114  : 	{

  00000	68 c0 00 00 00	 push	 192			; 000000c0H
  00005	b8 00 00 00 00	 mov	 eax, __ehhandler$?ReCalculateMoveVectorByMountAvailableEntity@ioMapCollisionHelper@@YA_NPAVioPlayEntity@@AAVioAxisAlignBox@@ABV3@_NABV?$list@PAVioGameEntity@@V?$allocator@PAVioGameEntity@@@std@@@std@@PBV?$vector@PAVioGameEntity@@V?$allocator@PAVioGameEntity@@@std@@@5@ABUD3DXVECTOR3@@PAU7@AA_N@Z
  0000a	e8 00 00 00 00	 call	 __EH_prolog3_GS
  0000f	8b 45 0c	 mov	 eax, DWORD PTR _kAxisMoveBox$[ebp]

; 115  : 		MountAvailableList::const_iterator iMount = AvailableList.begin();
; 116  : 		for( ; iMount!=AvailableList.end() ; ++iMount )

  00012	8b 4d 1c	 mov	 ecx, DWORD PTR _pMountList$[ebp]
  00015	8b 7d 08	 mov	 edi, DWORD PTR _pEntity$[ebp]
  00018	89 85 50 ff ff
	ff		 mov	 DWORD PTR _kAxisMoveBox$GSCopy$[ebp], eax
  0001e	8b 45 10	 mov	 eax, DWORD PTR _kAxisBox$[ebp]
  00021	89 8d 40 ff ff
	ff		 mov	 DWORD PTR _pMountList$GSCopy$[ebp], ecx
  00027	8b 4d 24	 mov	 ecx, DWORD PTR _pMove$[ebp]
  0002a	89 85 54 ff ff
	ff		 mov	 DWORD PTR _kAxisBox$GSCopy$[ebp], eax
  00030	8b 45 18	 mov	 eax, DWORD PTR _AvailableList$[ebp]
  00033	89 8d 44 ff ff
	ff		 mov	 DWORD PTR _pMove$GSCopy$[ebp], ecx
  00039	8b 4d 28	 mov	 ecx, DWORD PTR _bCol$[ebp]
  0003c	89 85 38 ff ff
	ff		 mov	 DWORD PTR _AvailableList$GSCopy$[ebp], eax
  00042	8b 00		 mov	 eax, DWORD PTR [eax]
  00044	89 8d 34 ff ff
	ff		 mov	 DWORD PTR _bCol$GSCopy$[ebp], ecx
  0004a	8b 08		 mov	 ecx, DWORD PTR [eax]
  0004c	89 bd 4c ff ff
	ff		 mov	 DWORD PTR _pEntity$GSCopy$[ebp], edi
  00052	89 8d 48 ff ff
	ff		 mov	 DWORD PTR _iMount$[ebp], ecx
  00058	3b c8		 cmp	 ecx, eax
  0005a	0f 84 ae 02 00
	00		 je	 $LN14@ReCalculat
  00060	8b 1d 00 00 00
	00		 mov	 ebx, DWORD PTR __imp_??1ioOrientBox@@QAE@XZ
$LN31@ReCalculat:

; 117  : 		{
; 118  : 			ioGameEntity *pMount = *iMount;

  00066	8b 85 48 ff ff
	ff		 mov	 eax, DWORD PTR _iMount$[ebp]
  0006c	8b 70 08	 mov	 esi, DWORD PTR [eax+8]

; 119  : 
; 120  : 			if( pEntity == pMount )

  0006f	3b fe		 cmp	 edi, esi
  00071	0f 84 7b 02 00
	00		 je	 $LN15@ReCalculat

; 121  : 				continue;
; 122  : 
; 123  : 			if( !pMount->IsNowMountEnable() )

  00077	8b 06		 mov	 eax, DWORD PTR [esi]
  00079	8b ce		 mov	 ecx, esi
  0007b	ff 50 20	 call	 DWORD PTR [eax+32]
  0007e	84 c0		 test	 al, al
  00080	0f 84 6c 02 00
	00		 je	 $LN15@ReCalculat

; 124  : 				continue;
; 125  : 
; 126  : 			if( !IsCollisionCheckRange( pEntity->GetWorldPosition(), pMount->GetWorldPosition() ) )

  00086	8b 06		 mov	 eax, DWORD PTR [esi]
  00088	8b ce		 mov	 ecx, esi
  0008a	ff 50 70	 call	 DWORD PTR [eax+112]
  0008d	50		 push	 eax
  0008e	8b 07		 mov	 eax, DWORD PTR [edi]
  00090	8b cf		 mov	 ecx, edi
  00092	ff 50 70	 call	 DWORD PTR [eax+112]
  00095	50		 push	 eax
  00096	e8 00 00 00 00	 call	 ?IsCollisionCheckRange@ioMapCollisionHelper@@YA_NABUD3DXVECTOR3@@0@Z ; ioMapCollisionHelper::IsCollisionCheckRange
  0009b	59		 pop	 ecx
  0009c	59		 pop	 ecx
  0009d	84 c0		 test	 al, al
  0009f	0f 84 4d 02 00
	00		 je	 $LN15@ReCalculat

; 127  : 				continue;
; 128  : 
; 129  : 			if( pEntity && pEntity->IsEntityCollisionSkipState( pMount ) )

  000a5	8b 07		 mov	 eax, DWORD PTR [edi]
  000a7	56		 push	 esi
  000a8	8b cf		 mov	 ecx, edi
  000aa	ff 90 88 00 00
	00		 call	 DWORD PTR [eax+136]
  000b0	84 c0		 test	 al, al
  000b2	0f 85 3a 02 00
	00		 jne	 $LN15@ReCalculat

; 130  : 				continue;
; 131  : 
; 132  : 			if( pMountList && HasMountedEntity( pMount, *pMountList ) )

  000b8	83 bd 40 ff ff
	ff 00		 cmp	 DWORD PTR _pMountList$GSCopy$[ebp], 0
  000bf	74 16		 je	 SHORT $LN9@ReCalculat
  000c1	ff b5 40 ff ff
	ff		 push	 DWORD PTR _pMountList$GSCopy$[ebp]
  000c7	56		 push	 esi
  000c8	e8 00 00 00 00	 call	 ?HasMountedEntity@ioMapCollisionHelper@@YA_NPAVioGameEntity@@ABV?$vector@PAVioGameEntity@@V?$allocator@PAVioGameEntity@@@std@@@std@@@Z ; ioMapCollisionHelper::HasMountedEntity
  000cd	59		 pop	 ecx
  000ce	59		 pop	 ecx
  000cf	84 c0		 test	 al, al
  000d1	0f 85 1b 02 00
	00		 jne	 $LN15@ReCalculat
$LN9@ReCalculat:

; 133  : 				continue;
; 134  : 
; 135  : 			ioDummyChar* pDummy = ToDummyChar( pMount );

  000d7	56		 push	 esi
  000d8	e8 00 00 00 00	 call	 ?ToDummyChar@@YAPAVioDummyChar@@PAVioGameEntity@@@Z ; ToDummyChar
  000dd	59		 pop	 ecx
  000de	89 85 58 ff ff
	ff		 mov	 DWORD PTR _pDummy$531897[ebp], eax

; 136  : 			if( pDummy && pDummy->IsDummyCharCollisionSkipState( ToBaseChar( pEntity ) ) )

  000e4	85 c0		 test	 eax, eax
  000e6	74 1b		 je	 SHORT $LN8@ReCalculat
  000e8	57		 push	 edi
  000e9	e8 00 00 00 00	 call	 ?ToBaseChar@@YAPAVioBaseChar@@PAVioGameEntity@@@Z ; ToBaseChar
  000ee	59		 pop	 ecx
  000ef	8b 8d 58 ff ff
	ff		 mov	 ecx, DWORD PTR _pDummy$531897[ebp]
  000f5	50		 push	 eax
  000f6	e8 00 00 00 00	 call	 ?IsDummyCharCollisionSkipState@ioDummyChar@@QAE_NPBVioBaseChar@@@Z ; ioDummyChar::IsDummyCharCollisionSkipState
  000fb	84 c0		 test	 al, al
  000fd	0f 85 ef 01 00
	00		 jne	 $LN15@ReCalculat
$LN8@ReCalculat:

; 137  : 				continue;
; 138  : 
; 139  : 			if( !bMonsterVsMonsterCollision )

  00103	80 7d 14 00	 cmp	 BYTE PTR _bMonsterVsMonsterCollision$[ebp], 0
  00107	75 1a		 jne	 SHORT $LN6@ReCalculat

; 140  : 			{
; 141  : 				if( ToNpcChar( pEntity ) && ToNpcChar( pMount ) )

  00109	57		 push	 edi
  0010a	e8 00 00 00 00	 call	 ?ToNpcChar@@YAPAVioNpcChar@@PAVioGameEntity@@@Z ; ToNpcChar
  0010f	59		 pop	 ecx
  00110	85 c0		 test	 eax, eax
  00112	74 0f		 je	 SHORT $LN6@ReCalculat
  00114	56		 push	 esi
  00115	e8 00 00 00 00	 call	 ?ToNpcChar@@YAPAVioNpcChar@@PAVioGameEntity@@@Z ; ToNpcChar
  0011a	59		 pop	 ecx
  0011b	85 c0		 test	 eax, eax
  0011d	0f 85 cf 01 00
	00		 jne	 $LN15@ReCalculat
$LN6@ReCalculat:

; 142  : 					continue;
; 143  : 			}
; 144  : 
; 145  : 			const ioAxisAlignBox &rkMountBox = pMount->GetWorldAxisBox();

  00123	8b ce		 mov	 ecx, esi
  00125	e8 00 00 00 00	 call	 ?GetWorldAxisBox@ioGameEntity@@QBEABVioAxisAlignBox@@XZ ; ioGameEntity::GetWorldAxisBox

; 146  : 
; 147  : 			ioOrientBox kMountOrient = pMount->GetWorldCollisionBox();

  0012a	8b ce		 mov	 ecx, esi
  0012c	89 85 58 ff ff
	ff		 mov	 DWORD PTR _rkMountBox$531901[ebp], eax
  00132	e8 00 00 00 00	 call	 ?GetWorldCollisionBox@ioGameEntity@@QBEABVioOrientBox@@XZ ; ioGameEntity::GetWorldCollisionBox
  00137	6a 11		 push	 17			; 00000011H
  00139	59		 pop	 ecx
  0013a	8b f0		 mov	 esi, eax
  0013c	8d bd 5c ff ff
	ff		 lea	 edi, DWORD PTR _kMountOrient$531902[ebp]
  00142	f3 a5		 rep movsd

; 148  : 			kMountOrient.SetCenter( rkMountBox.GetCenter() );

  00144	8b 8d 58 ff ff
	ff		 mov	 ecx, DWORD PTR _rkMountBox$531901[ebp]
  0014a	83 65 fc 00	 and	 DWORD PTR __$EHRec$[ebp+8], 0
  0014e	ff 15 00 00 00
	00		 call	 DWORD PTR __imp_?GetCenter@ioAxisAlignBox@@QBEABUD3DXVECTOR3@@XZ
  00154	50		 push	 eax
  00155	8d 8d 5c ff ff
	ff		 lea	 ecx, DWORD PTR _kMountOrient$531902[ebp]
  0015b	ff 15 00 00 00
	00		 call	 DWORD PTR __imp_?SetCenter@ioOrientBox@@QAEXABUD3DXVECTOR3@@@Z

; 149  : 
; 150  : 			ioOrientBox kOrientBox;

  00161	8d 4d a0	 lea	 ecx, DWORD PTR _kOrientBox$531903[ebp]
  00164	ff 15 00 00 00
	00		 call	 DWORD PTR __imp_??0ioOrientBox@@QAE@XZ

; 151  : 			kOrientBox.SetByAxisBox( kAxisMoveBox );

  0016a	ff b5 50 ff ff
	ff		 push	 DWORD PTR _kAxisMoveBox$GSCopy$[ebp]
  00170	8b 35 00 00 00
	00		 mov	 esi, DWORD PTR __imp_?SetByAxisBox@ioOrientBox@@QAEXABVioAxisAlignBox@@@Z
  00176	8d 4d a0	 lea	 ecx, DWORD PTR _kOrientBox$531903[ebp]
  00179	c6 45 fc 01	 mov	 BYTE PTR __$EHRec$[ebp+8], 1
  0017d	ff d6		 call	 esi

; 152  : 
; 153  : 			if( !ioMath::TestIntersection( kOrientBox, kMountOrient, NULL ) )

  0017f	8b 3d 00 00 00
	00		 mov	 edi, DWORD PTR __imp_?TestIntersection@ioMath@@SA_NABVioOrientBox@@0PAM@Z
  00185	6a 00		 push	 0
  00187	8d 85 5c ff ff
	ff		 lea	 eax, DWORD PTR _kMountOrient$531902[ebp]
  0018d	50		 push	 eax
  0018e	8d 45 a0	 lea	 eax, DWORD PTR _kOrientBox$531903[ebp]
  00191	50		 push	 eax
  00192	ff d7		 call	 edi
  00194	83 c4 0c	 add	 esp, 12			; 0000000cH
  00197	84 c0		 test	 al, al

; 154  : 			{
; 155  : 				continue;

  00199	0f 84 38 01 00
	00		 je	 $LN63@ReCalculat

; 156  : 			}
; 157  : 
; 158  : 			D3DXVECTOR3 vCenterDir = rkMountBox.GetCenter() - kAxisBox.GetCenter();

  0019f	8b 8d 54 ff ff
	ff		 mov	 ecx, DWORD PTR _kAxisBox$GSCopy$[ebp]
  001a5	ff 15 00 00 00
	00		 call	 DWORD PTR __imp_?GetCenter@ioAxisAlignBox@@QBEABUD3DXVECTOR3@@XZ
  001ab	8b 8d 58 ff ff
	ff		 mov	 ecx, DWORD PTR _rkMountBox$531901[ebp]
  001b1	89 85 3c ff ff
	ff		 mov	 DWORD PTR $T534431[ebp], eax
  001b7	ff 15 00 00 00
	00		 call	 DWORD PTR __imp_?GetCenter@ioAxisAlignBox@@QBEABUD3DXVECTOR3@@XZ
  001bd	f3 0f 10 00	 movss	 xmm0, DWORD PTR [eax]
  001c1	8b 8d 3c ff ff
	ff		 mov	 ecx, DWORD PTR $T534431[ebp]
  001c7	f3 0f 10 09	 movss	 xmm1, DWORD PTR [ecx]
  001cb	f3 0f 10 51 08	 movss	 xmm2, DWORD PTR [ecx+8]
  001d0	0f 5a c9	 cvtps2pd xmm1, xmm1
  001d3	0f 5a c0	 cvtps2pd xmm0, xmm0
  001d6	f2 0f 5c c1	 subsd	 xmm0, xmm1
  001da	f3 0f 10 48 08	 movss	 xmm1, DWORD PTR [eax+8]

; 159  : 			vCenterDir.y = 0.0f;
; 160  : 			D3DXVec3Normalize( &vCenterDir, &vCenterDir );

  001df	8d 45 e4	 lea	 eax, DWORD PTR _vCenterDir$531905[ebp]
  001e2	66 0f 5a c0	 cvtpd2ps xmm0, xmm0
  001e6	0f 5a c9	 cvtps2pd xmm1, xmm1
  001e9	0f 5a d2	 cvtps2pd xmm2, xmm2
  001ec	50		 push	 eax
  001ed	f2 0f 5c ca	 subsd	 xmm1, xmm2
  001f1	f3 0f 11 45 e4	 movss	 DWORD PTR _vCenterDir$531905[ebp], xmm0
  001f6	0f 57 c0	 xorps	 xmm0, xmm0
  001f9	66 0f 5a c9	 cvtpd2ps xmm1, xmm1
  001fd	50		 push	 eax
  001fe	f3 0f 11 4d ec	 movss	 DWORD PTR _vCenterDir$531905[ebp+8], xmm1
  00203	f3 0f 11 45 e8	 movss	 DWORD PTR _vCenterDir$531905[ebp+4], xmm0
  00208	e8 00 00 00 00	 call	 _D3DXVec3Normalize@8

; 161  : 
; 162  : 			if( D3DXVec3Dot( &vCenterDir, &vMoveDir ) < 0.0f )	// 

  0020d	8b 45 20	 mov	 eax, DWORD PTR _vMoveDir$[ebp]
  00210	f3 0f 10 40 04	 movss	 xmm0, DWORD PTR [eax+4]
  00215	f3 0f 10 4d e8	 movss	 xmm1, DWORD PTR _vCenterDir$531905[ebp+4]
  0021a	f3 0f 10 55 e4	 movss	 xmm2, DWORD PTR _vCenterDir$531905[ebp]
  0021f	0f 5a c9	 cvtps2pd xmm1, xmm1
  00222	0f 5a c0	 cvtps2pd xmm0, xmm0
  00225	f2 0f 59 c1	 mulsd	 xmm0, xmm1
  00229	f3 0f 10 08	 movss	 xmm1, DWORD PTR [eax]
  0022d	0f 5a c9	 cvtps2pd xmm1, xmm1
  00230	0f 5a d2	 cvtps2pd xmm2, xmm2
  00233	f2 0f 59 ca	 mulsd	 xmm1, xmm2
  00237	f3 0f 10 55 ec	 movss	 xmm2, DWORD PTR _vCenterDir$531905[ebp+8]
  0023c	f2 0f 58 c1	 addsd	 xmm0, xmm1
  00240	f3 0f 10 48 08	 movss	 xmm1, DWORD PTR [eax+8]
  00245	0f 5a c9	 cvtps2pd xmm1, xmm1
  00248	0f 5a d2	 cvtps2pd xmm2, xmm2
  0024b	f2 0f 59 ca	 mulsd	 xmm1, xmm2
  0024f	f2 0f 58 c1	 addsd	 xmm0, xmm1
  00253	0f 57 c9	 xorps	 xmm1, xmm1
  00256	66 0f 5a c0	 cvtpd2ps xmm0, xmm0
  0025a	0f 2f c8	 comiss	 xmm1, xmm0

; 163  : 			{
; 164  : 				continue;

  0025d	8d 4d a0	 lea	 ecx, DWORD PTR _kOrientBox$531903[ebp]
  00260	77 78		 ja	 SHORT $LN64@ReCalculat

; 165  : 			}
; 166  : 
; 167  : 			bCol = true;

  00262	8b 85 34 ff ff
	ff		 mov	 eax, DWORD PTR _bCol$GSCopy$[ebp]

; 168  : 			kOrientBox.SetByAxisBox( kAxisBox );

  00268	ff b5 54 ff ff
	ff		 push	 DWORD PTR _kAxisBox$GSCopy$[ebp]
  0026e	c6 00 01	 mov	 BYTE PTR [eax], 1
  00271	ff d6		 call	 esi

; 169  : 
; 170  : 			if( ioMath::TestIntersection( kOrientBox, kMountOrient, NULL ) )

  00273	6a 00		 push	 0
  00275	8d 85 5c ff ff
	ff		 lea	 eax, DWORD PTR _kMountOrient$531902[ebp]
  0027b	50		 push	 eax
  0027c	8d 45 a0	 lea	 eax, DWORD PTR _kOrientBox$531903[ebp]
  0027f	50		 push	 eax
  00280	ff d7		 call	 edi
  00282	83 c4 0c	 add	 esp, 12			; 0000000cH
  00285	84 c0		 test	 al, al
  00287	0f 85 89 00 00
	00		 jne	 $LN58@ReCalculat

; 173  : 			}
; 174  : 
; 175  : 			if( ModifyMoveDir( kAxisBox, kAxisMoveBox, rkMountBox, false, pMove ) )

  0028d	ff b5 44 ff ff
	ff		 push	 DWORD PTR _pMove$GSCopy$[ebp]
  00293	6a 00		 push	 0
  00295	ff b5 58 ff ff
	ff		 push	 DWORD PTR _rkMountBox$531901[ebp]
  0029b	ff b5 50 ff ff
	ff		 push	 DWORD PTR _kAxisMoveBox$GSCopy$[ebp]
  002a1	ff b5 54 ff ff
	ff		 push	 DWORD PTR _kAxisBox$GSCopy$[ebp]
  002a7	e8 00 00 00 00	 call	 ?ModifyMoveDir@ioMapCollisionHelper@@YA_NABVioAxisAlignBox@@00_NPAUD3DXVECTOR3@@@Z ; ioMapCollisionHelper::ModifyMoveDir
  002ac	83 c4 14	 add	 esp, 20			; 00000014H
  002af	84 c0		 test	 al, al
  002b1	74 63		 je	 SHORT $LN58@ReCalculat

; 176  : 			{
; 177  : 				kAxisMoveBox = kAxisBox;

  002b3	ff b5 54 ff ff
	ff		 push	 DWORD PTR _kAxisBox$GSCopy$[ebp]
  002b9	8b 8d 50 ff ff
	ff		 mov	 ecx, DWORD PTR _kAxisMoveBox$GSCopy$[ebp]
  002bf	ff 15 00 00 00
	00		 call	 DWORD PTR __imp_??4ioAxisAlignBox@@QAEAAV0@ABV0@@Z

; 178  : 				kAxisMoveBox.Translate( *pMove );

  002c5	ff b5 44 ff ff
	ff		 push	 DWORD PTR _pMove$GSCopy$[ebp]
  002cb	8b 8d 50 ff ff
	ff		 mov	 ecx, DWORD PTR _kAxisMoveBox$GSCopy$[ebp]
  002d1	ff 15 00 00 00
	00		 call	 DWORD PTR __imp_?Translate@ioAxisAlignBox@@QAEXABUD3DXVECTOR3@@@Z
$LN63@ReCalculat:

; 179  : 			}
; 180  : 			else
; 181  : 			{
; 182  : 				return false;
; 183  : 			}
; 184  : 		}

  002d7	8d 4d a0	 lea	 ecx, DWORD PTR _kOrientBox$531903[ebp]
$LN64@ReCalculat:
  002da	c6 45 fc 00	 mov	 BYTE PTR __$EHRec$[ebp+8], 0
  002de	ff d3		 call	 ebx
  002e0	83 4d fc ff	 or	 DWORD PTR __$EHRec$[ebp+8], -1
  002e4	8d 8d 5c ff ff
	ff		 lea	 ecx, DWORD PTR _kMountOrient$531902[ebp]
  002ea	ff d3		 call	 ebx
  002ec	8b bd 4c ff ff
	ff		 mov	 edi, DWORD PTR _pEntity$GSCopy$[ebp]
$LN15@ReCalculat:

; 115  : 		MountAvailableList::const_iterator iMount = AvailableList.begin();
; 116  : 		for( ; iMount!=AvailableList.end() ; ++iMount )

  002f2	8b 85 48 ff ff
	ff		 mov	 eax, DWORD PTR _iMount$[ebp]
  002f8	8b 00		 mov	 eax, DWORD PTR [eax]
  002fa	8b 8d 38 ff ff
	ff		 mov	 ecx, DWORD PTR _AvailableList$GSCopy$[ebp]
  00300	89 85 48 ff ff
	ff		 mov	 DWORD PTR _iMount$[ebp], eax
  00306	3b 01		 cmp	 eax, DWORD PTR [ecx]
  00308	0f 85 58 fd ff
	ff		 jne	 $LN31@ReCalculat
$LN14@ReCalculat:

; 185  : 
; 186  : 		return true;

  0030e	b0 01		 mov	 al, 1
$LN17@ReCalculat:

; 187  : 	}

  00310	e8 00 00 00 00	 call	 __EH_epilog3_GS
  00315	c3		 ret	 0
$LN58@ReCalculat:

; 171  : 			{
; 172  : 				return false;

  00316	8d 4d a0	 lea	 ecx, DWORD PTR _kOrientBox$531903[ebp]
  00319	c6 45 fc 00	 mov	 BYTE PTR __$EHRec$[ebp+8], 0
  0031d	ff d3		 call	 ebx
  0031f	83 4d fc ff	 or	 DWORD PTR __$EHRec$[ebp+8], -1
  00323	8d 8d 5c ff ff
	ff		 lea	 ecx, DWORD PTR _kMountOrient$531902[ebp]
  00329	ff d3		 call	 ebx
  0032b	32 c0		 xor	 al, al
  0032d	eb e1		 jmp	 SHORT $LN17@ReCalculat
_TEXT	ENDS
;	COMDAT text$x
text$x	SEGMENT
__unwindfunclet$?ReCalculateMoveVectorByMountAvailableEntity@ioMapCollisionHelper@@YA_NPAVioPlayEntity@@AAVioAxisAlignBox@@ABV3@_NABV?$list@PAVioGameEntity@@V?$allocator@PAVioGameEntity@@@std@@@std@@PBV?$vector@PAVioGameEntity@@V?$allocator@PAVioGameEntity@@@std@@@5@ABUD3DXVECTOR3@@PAU7@AA_N@Z$0:
  00000	8d 8d 5c ff ff
	ff		 lea	 ecx, DWORD PTR _kMountOrient$531902[ebp]
  00006	ff 25 00 00 00
	00		 jmp	 DWORD PTR __imp_??1ioOrientBox@@QAE@XZ
__unwindfunclet$?ReCalculateMoveVectorByMountAvailableEntity@ioMapCollisionHelper@@YA_NPAVioPlayEntity@@AAVioAxisAlignBox@@ABV3@_NABV?$list@PAVioGameEntity@@V?$allocator@PAVioGameEntity@@@std@@@std@@PBV?$vector@PAVioGameEntity@@V?$allocator@PAVioGameEntity@@@std@@@5@ABUD3DXVECTOR3@@PAU7@AA_N@Z$1:
  0000c	8d 4d a0	 lea	 ecx, DWORD PTR _kOrientBox$531903[ebp]
  0000f	ff 25 00 00 00
	00		 jmp	 DWORD PTR __imp_??1ioOrientBox@@QAE@XZ
__ehhandler$?ReCalculateMoveVectorByMountAvailableEntity@ioMapCollisionHelper@@YA_NPAVioPlayEntity@@AAVioAxisAlignBox@@ABV3@_NABV?$list@PAVioGameEntity@@V?$allocator@PAVioGameEntity@@@std@@@std@@PBV?$vector@PAVioGameEntity@@V?$allocator@PAVioGameEntity@@@std@@@5@ABUD3DXVECTOR3@@PAU7@AA_N@Z:
  00015	8b 54 24 08	 mov	 edx, DWORD PTR [esp+8]
  00019	8d 42 0c	 lea	 eax, DWORD PTR [edx+12]
  0001c	8b 8a 30 ff ff
	ff		 mov	 ecx, DWORD PTR [edx-208]
  00022	33 c8		 xor	 ecx, eax
  00024	e8 00 00 00 00	 call	 @__security_check_cookie@4
  00029	8b 4a fc	 mov	 ecx, DWORD PTR [edx-4]
  0002c	33 c8		 xor	 ecx, eax
  0002e	e8 00 00 00 00	 call	 @__security_check_cookie@4
  00033	b8 00 00 00 00	 mov	 eax, OFFSET __ehfuncinfo$?ReCalculateMoveVectorByMountAvailableEntity@ioMapCollisionHelper@@YA_NPAVioPlayEntity@@AAVioAxisAlignBox@@ABV3@_NABV?$list@PAVioGameEntity@@V?$allocator@PAVioGameEntity@@@std@@@std@@PBV?$vector@PAVioGameEntity@@V?$allocator@PAVioGameEntity@@@std@@@5@ABUD3DXVECTOR3@@PAU7@AA_N@Z
  00038	e9 00 00 00 00	 jmp	 ___CxxFrameHandler3
text$x	ENDS
?ReCalculateMoveVectorByMountAvailableEntity@ioMapCollisionHelper@@YA_NPAVioPlayEntity@@AAVioAxisAlignBox@@ABV3@_NABV?$list@PAVioGameEntity@@V?$allocator@PAVioGameEntity@@@std@@@std@@PBV?$vector@PAVioGameEntity@@V?$allocator@PAVioGameEntity@@@std@@@5@ABUD3DXVECTOR3@@PAU7@AA_N@Z ENDP ; ioMapCollisionHelper::ReCalculateMoveVectorByMountAvailableEntity
PUBLIC	_pEntity$GSCopy$
PUBLIC	_bCol$GSCopy$
PUBLIC	_List$GSCopy$
PUBLIC	_pMove$GSCopy$
PUBLIC	_kAxisBox$GSCopy$
PUBLIC	_kAxisMoveBox$GSCopy$
PUBLIC	?ReCalculateMoveVectorByEntity@ioMapCollisionHelper@@YA_NPAVioPlayEntity@@ABV?$list@PAVioGameEntity@@V?$allocator@PAVioGameEntity@@@std@@@std@@AAVioAxisAlignBox@@ABV5@ABUD3DXVECTOR3@@PAU6@AA_N@Z ; ioMapCollisionHelper::ReCalculateMoveVectorByEntity
;	COMDAT xdata$x
; File c:\program files (x86)\microsoft directx sdk (june 2010)\include\d3dx9math.inl
xdata$x	SEGMENT
__unwindtable$?ReCalculateMoveVectorByEntity@ioMapCollisionHelper@@YA_NPAVioPlayEntity@@ABV?$list@PAVioGameEntity@@V?$allocator@PAVioGameEntity@@@std@@@std@@AAVioAxisAlignBox@@ABV5@ABUD3DXVECTOR3@@PAU6@AA_N@Z DD 0ffffffffH
	DD	FLAT:__unwindfunclet$?ReCalculateMoveVectorByEntity@ioMapCollisionHelper@@YA_NPAVioPlayEntity@@ABV?$list@PAVioGameEntity@@V?$allocator@PAVioGameEntity@@@std@@@std@@AAVioAxisAlignBox@@ABV5@ABUD3DXVECTOR3@@PAU6@AA_N@Z$0
	DD	00H
	DD	FLAT:__unwindfunclet$?ReCalculateMoveVectorByEntity@ioMapCollisionHelper@@YA_NPAVioPlayEntity@@ABV?$list@PAVioGameEntity@@V?$allocator@PAVioGameEntity@@@std@@@std@@AAVioAxisAlignBox@@ABV5@ABUD3DXVECTOR3@@PAU6@AA_N@Z$1
__ehfuncinfo$?ReCalculateMoveVectorByEntity@ioMapCollisionHelper@@YA_NPAVioPlayEntity@@ABV?$list@PAVioGameEntity@@V?$allocator@PAVioGameEntity@@@std@@@std@@AAVioAxisAlignBox@@ABV5@ABUD3DXVECTOR3@@PAU6@AA_N@Z DD 019930522H
	DD	02H
	DD	FLAT:__unwindtable$?ReCalculateMoveVectorByEntity@ioMapCollisionHelper@@YA_NPAVioPlayEntity@@ABV?$list@PAVioGameEntity@@V?$allocator@PAVioGameEntity@@@std@@@std@@AAVioAxisAlignBox@@ABV5@ABUD3DXVECTOR3@@PAU6@AA_N@Z
	DD	2 DUP(00H)
	DD	2 DUP(00H)
	DD	00H
	DD	01H
; Function compile flags: /Ogsp
; File d:\lost saga for developer\youtube\tutorial\source\src\lsclient\iomapcollisionhelper.cpp
xdata$x	ENDS
;	COMDAT ?ReCalculateMoveVectorByEntity@ioMapCollisionHelper@@YA_NPAVioPlayEntity@@ABV?$list@PAVioGameEntity@@V?$allocator@PAVioGameEntity@@@std@@@std@@AAVioAxisAlignBox@@ABV5@ABUD3DXVECTOR3@@PAU6@AA_N@Z
_TEXT	SEGMENT
_List$GSCopy$ = -200					; size = 4
$T534556 = -196						; size = 4
_bCol$GSCopy$ = -192					; size = 4
_pEntity$GSCopy$ = -188					; size = 4
_pMove$GSCopy$ = -184					; size = 4
_rkMountBox$531931 = -180				; size = 4
_iter$531922 = -176					; size = 4
_kAxisMoveBox$GSCopy$ = -172				; size = 4
_kAxisBox$GSCopy$ = -168				; size = 4
_kMountOrient$531932 = -164				; size = 68
_kOrientBox$531933 = -96				; size = 68
_vCenterDir$531935 = -28				; size = 12
__$EHRec$ = -12						; size = 12
_pEntity$ = 8						; size = 4
_List$ = 12						; size = 4
_kAxisMoveBox$ = 16					; size = 4
_kAxisBox$ = 20						; size = 4
_vMoveDir$ = 24						; size = 4
_pMove$ = 28						; size = 4
_bCol$ = 32						; size = 4
?ReCalculateMoveVectorByEntity@ioMapCollisionHelper@@YA_NPAVioPlayEntity@@ABV?$list@PAVioGameEntity@@V?$allocator@PAVioGameEntity@@@std@@@std@@AAVioAxisAlignBox@@ABV5@ABUD3DXVECTOR3@@PAU6@AA_N@Z PROC ; ioMapCollisionHelper::ReCalculateMoveVectorByEntity, COMDAT

; 197  : 	{

  00000	68 bc 00 00 00	 push	 188			; 000000bcH
  00005	b8 00 00 00 00	 mov	 eax, __ehhandler$?ReCalculateMoveVectorByEntity@ioMapCollisionHelper@@YA_NPAVioPlayEntity@@ABV?$list@PAVioGameEntity@@V?$allocator@PAVioGameEntity@@@std@@@std@@AAVioAxisAlignBox@@ABV5@ABUD3DXVECTOR3@@PAU6@AA_N@Z
  0000a	e8 00 00 00 00	 call	 __EH_prolog3_GS
  0000f	8b 4d 10	 mov	 ecx, DWORD PTR _kAxisMoveBox$[ebp]
  00012	8b 45 0c	 mov	 eax, DWORD PTR _List$[ebp]
  00015	8b 7d 08	 mov	 edi, DWORD PTR _pEntity$[ebp]

; 198  : 		
; 199  : 		for( GameEntityList::const_iterator iter = List.begin(); iter != List.end() ; ++iter )

  00018	89 8d 54 ff ff
	ff		 mov	 DWORD PTR _kAxisMoveBox$GSCopy$[ebp], ecx
  0001e	8b 4d 14	 mov	 ecx, DWORD PTR _kAxisBox$[ebp]
  00021	89 8d 58 ff ff
	ff		 mov	 DWORD PTR _kAxisBox$GSCopy$[ebp], ecx
  00027	8b 4d 1c	 mov	 ecx, DWORD PTR _pMove$[ebp]
  0002a	89 8d 48 ff ff
	ff		 mov	 DWORD PTR _pMove$GSCopy$[ebp], ecx
  00030	8b 4d 20	 mov	 ecx, DWORD PTR _bCol$[ebp]
  00033	89 85 38 ff ff
	ff		 mov	 DWORD PTR _List$GSCopy$[ebp], eax
  00039	8b 00		 mov	 eax, DWORD PTR [eax]
  0003b	89 8d 40 ff ff
	ff		 mov	 DWORD PTR _bCol$GSCopy$[ebp], ecx
  00041	8b 08		 mov	 ecx, DWORD PTR [eax]
  00043	89 bd 44 ff ff
	ff		 mov	 DWORD PTR _pEntity$GSCopy$[ebp], edi
  00049	89 8d 50 ff ff
	ff		 mov	 DWORD PTR _iter$531922[ebp], ecx
  0004f	3b c8		 cmp	 ecx, eax
  00051	0f 84 2b 02 00
	00		 je	 $LN8@ReCalculat@2
  00057	8b 1d 00 00 00
	00		 mov	 ebx, DWORD PTR __imp_??1ioOrientBox@@QAE@XZ
  0005d	eb 06		 jmp	 SHORT $LN25@ReCalculat@2
$LL54@ReCalculat@2:
  0005f	8b bd 44 ff ff
	ff		 mov	 edi, DWORD PTR _pEntity$GSCopy$[ebp]
$LN25@ReCalculat@2:

; 200  : 		{
; 201  : 			ioWallZone *pWallZone = ToWallZone( *iter );

  00065	8b 85 50 ff ff
	ff		 mov	 eax, DWORD PTR _iter$531922[ebp]
  0006b	ff 70 08	 push	 DWORD PTR [eax+8]
  0006e	e8 00 00 00 00	 call	 ?ToWallZone@@YAPAVioWallZone@@PAVioGameEntity@@@Z ; ToWallZone
  00073	8b f0		 mov	 esi, eax
  00075	59		 pop	 ecx

; 202  : 			if( pWallZone == NULL )

  00076	85 f6		 test	 esi, esi
  00078	0f 84 e8 01 00
	00		 je	 $LN9@ReCalculat@2

; 203  : 				continue;
; 204  : 
; 205  : 			if( !ioMapCollisionHelper::IsCollisionCheckRange( pEntity->GetWorldPosition(), pWallZone->GetWorldPosition() ) )

  0007e	8b 06		 mov	 eax, DWORD PTR [esi]
  00080	8b ce		 mov	 ecx, esi
  00082	ff 50 70	 call	 DWORD PTR [eax+112]
  00085	50		 push	 eax
  00086	8b 07		 mov	 eax, DWORD PTR [edi]
  00088	8b cf		 mov	 ecx, edi
  0008a	ff 50 70	 call	 DWORD PTR [eax+112]
  0008d	50		 push	 eax
  0008e	e8 00 00 00 00	 call	 ?IsCollisionCheckRange@ioMapCollisionHelper@@YA_NABUD3DXVECTOR3@@0@Z ; ioMapCollisionHelper::IsCollisionCheckRange
  00093	59		 pop	 ecx
  00094	59		 pop	 ecx
  00095	84 c0		 test	 al, al
  00097	0f 84 c9 01 00
	00		 je	 $LN9@ReCalculat@2

; 206  : 				continue;
; 207  : 
; 208  : 			const ioAxisAlignBox &rkMountBox = pWallZone->GetWorldAxisBox();

  0009d	8b ce		 mov	 ecx, esi
  0009f	e8 00 00 00 00	 call	 ?GetWorldAxisBox@ioGameEntity@@QBEABVioAxisAlignBox@@XZ ; ioGameEntity::GetWorldAxisBox

; 209  : 
; 210  : 			ioOrientBox kMountOrient = pWallZone->GetWorldCollisionBox();

  000a4	8b ce		 mov	 ecx, esi
  000a6	89 85 4c ff ff
	ff		 mov	 DWORD PTR _rkMountBox$531931[ebp], eax
  000ac	e8 00 00 00 00	 call	 ?GetWorldCollisionBox@ioGameEntity@@QBEABVioOrientBox@@XZ ; ioGameEntity::GetWorldCollisionBox
  000b1	6a 11		 push	 17			; 00000011H
  000b3	59		 pop	 ecx
  000b4	8b f0		 mov	 esi, eax
  000b6	8d bd 5c ff ff
	ff		 lea	 edi, DWORD PTR _kMountOrient$531932[ebp]
  000bc	f3 a5		 rep movsd

; 211  : 			kMountOrient.SetCenter( rkMountBox.GetCenter() );

  000be	8b 8d 4c ff ff
	ff		 mov	 ecx, DWORD PTR _rkMountBox$531931[ebp]
  000c4	83 65 fc 00	 and	 DWORD PTR __$EHRec$[ebp+8], 0
  000c8	ff 15 00 00 00
	00		 call	 DWORD PTR __imp_?GetCenter@ioAxisAlignBox@@QBEABUD3DXVECTOR3@@XZ
  000ce	50		 push	 eax
  000cf	8d 8d 5c ff ff
	ff		 lea	 ecx, DWORD PTR _kMountOrient$531932[ebp]
  000d5	ff 15 00 00 00
	00		 call	 DWORD PTR __imp_?SetCenter@ioOrientBox@@QAEXABUD3DXVECTOR3@@@Z

; 212  : 
; 213  : 			ioOrientBox kOrientBox;

  000db	8d 4d a0	 lea	 ecx, DWORD PTR _kOrientBox$531933[ebp]
  000de	ff 15 00 00 00
	00		 call	 DWORD PTR __imp_??0ioOrientBox@@QAE@XZ

; 214  : 			kOrientBox.SetByAxisBox( kAxisMoveBox );

  000e4	ff b5 54 ff ff
	ff		 push	 DWORD PTR _kAxisMoveBox$GSCopy$[ebp]
  000ea	8b 35 00 00 00
	00		 mov	 esi, DWORD PTR __imp_?SetByAxisBox@ioOrientBox@@QAEXABVioAxisAlignBox@@@Z
  000f0	8d 4d a0	 lea	 ecx, DWORD PTR _kOrientBox$531933[ebp]
  000f3	c6 45 fc 01	 mov	 BYTE PTR __$EHRec$[ebp+8], 1
  000f7	ff d6		 call	 esi

; 215  : 
; 216  : 			if( !ioMath::TestIntersection( kOrientBox, kMountOrient, NULL ) )

  000f9	8b 3d 00 00 00
	00		 mov	 edi, DWORD PTR __imp_?TestIntersection@ioMath@@SA_NABVioOrientBox@@0PAM@Z
  000ff	6a 00		 push	 0
  00101	8d 85 5c ff ff
	ff		 lea	 eax, DWORD PTR _kMountOrient$531932[ebp]
  00107	50		 push	 eax
  00108	8d 45 a0	 lea	 eax, DWORD PTR _kOrientBox$531933[ebp]
  0010b	50		 push	 eax
  0010c	ff d7		 call	 edi
  0010e	83 c4 0c	 add	 esp, 12			; 0000000cH
  00111	84 c0		 test	 al, al

; 217  : 			{
; 218  : 				continue;

  00113	0f 84 38 01 00
	00		 je	 $LN56@ReCalculat@2

; 219  : 			}
; 220  : 
; 221  : 			D3DXVECTOR3 vCenterDir = rkMountBox.GetCenter() - kAxisBox.GetCenter();

  00119	8b 8d 58 ff ff
	ff		 mov	 ecx, DWORD PTR _kAxisBox$GSCopy$[ebp]
  0011f	ff 15 00 00 00
	00		 call	 DWORD PTR __imp_?GetCenter@ioAxisAlignBox@@QBEABUD3DXVECTOR3@@XZ
  00125	8b 8d 4c ff ff
	ff		 mov	 ecx, DWORD PTR _rkMountBox$531931[ebp]
  0012b	89 85 3c ff ff
	ff		 mov	 DWORD PTR $T534556[ebp], eax
  00131	ff 15 00 00 00
	00		 call	 DWORD PTR __imp_?GetCenter@ioAxisAlignBox@@QBEABUD3DXVECTOR3@@XZ
  00137	f3 0f 10 00	 movss	 xmm0, DWORD PTR [eax]
  0013b	8b 8d 3c ff ff
	ff		 mov	 ecx, DWORD PTR $T534556[ebp]
  00141	f3 0f 10 09	 movss	 xmm1, DWORD PTR [ecx]
  00145	f3 0f 10 51 08	 movss	 xmm2, DWORD PTR [ecx+8]
  0014a	0f 5a c9	 cvtps2pd xmm1, xmm1
  0014d	0f 5a c0	 cvtps2pd xmm0, xmm0
  00150	f2 0f 5c c1	 subsd	 xmm0, xmm1
  00154	f3 0f 10 48 08	 movss	 xmm1, DWORD PTR [eax+8]

; 222  : 			vCenterDir.y = 0.0f;
; 223  : 			D3DXVec3Normalize( &vCenterDir, &vCenterDir );

  00159	8d 45 e4	 lea	 eax, DWORD PTR _vCenterDir$531935[ebp]
  0015c	66 0f 5a c0	 cvtpd2ps xmm0, xmm0
  00160	0f 5a c9	 cvtps2pd xmm1, xmm1
  00163	0f 5a d2	 cvtps2pd xmm2, xmm2
  00166	50		 push	 eax
  00167	f2 0f 5c ca	 subsd	 xmm1, xmm2
  0016b	f3 0f 11 45 e4	 movss	 DWORD PTR _vCenterDir$531935[ebp], xmm0
  00170	0f 57 c0	 xorps	 xmm0, xmm0
  00173	66 0f 5a c9	 cvtpd2ps xmm1, xmm1
  00177	50		 push	 eax
  00178	f3 0f 11 4d ec	 movss	 DWORD PTR _vCenterDir$531935[ebp+8], xmm1
  0017d	f3 0f 11 45 e8	 movss	 DWORD PTR _vCenterDir$531935[ebp+4], xmm0
  00182	e8 00 00 00 00	 call	 _D3DXVec3Normalize@8

; 224  : 
; 225  : 			if( D3DXVec3Dot( &vCenterDir, &vMoveDir ) < 0.0f )	// 

  00187	8b 45 18	 mov	 eax, DWORD PTR _vMoveDir$[ebp]
  0018a	f3 0f 10 40 04	 movss	 xmm0, DWORD PTR [eax+4]
  0018f	f3 0f 10 4d e8	 movss	 xmm1, DWORD PTR _vCenterDir$531935[ebp+4]
  00194	f3 0f 10 55 e4	 movss	 xmm2, DWORD PTR _vCenterDir$531935[ebp]
  00199	0f 5a c9	 cvtps2pd xmm1, xmm1
  0019c	0f 5a c0	 cvtps2pd xmm0, xmm0
  0019f	f2 0f 59 c1	 mulsd	 xmm0, xmm1
  001a3	f3 0f 10 08	 movss	 xmm1, DWORD PTR [eax]
  001a7	0f 5a c9	 cvtps2pd xmm1, xmm1
  001aa	0f 5a d2	 cvtps2pd xmm2, xmm2
  001ad	f2 0f 59 ca	 mulsd	 xmm1, xmm2
  001b1	f3 0f 10 55 ec	 movss	 xmm2, DWORD PTR _vCenterDir$531935[ebp+8]
  001b6	f2 0f 58 c1	 addsd	 xmm0, xmm1
  001ba	f3 0f 10 48 08	 movss	 xmm1, DWORD PTR [eax+8]
  001bf	0f 5a c9	 cvtps2pd xmm1, xmm1
  001c2	0f 5a d2	 cvtps2pd xmm2, xmm2
  001c5	f2 0f 59 ca	 mulsd	 xmm1, xmm2
  001c9	f2 0f 58 c1	 addsd	 xmm0, xmm1
  001cd	0f 57 c9	 xorps	 xmm1, xmm1
  001d0	66 0f 5a c0	 cvtpd2ps xmm0, xmm0
  001d4	0f 2f c8	 comiss	 xmm1, xmm0

; 226  : 			{
; 227  : 				continue;

  001d7	8d 4d a0	 lea	 ecx, DWORD PTR _kOrientBox$531933[ebp]
  001da	77 78		 ja	 SHORT $LN57@ReCalculat@2

; 228  : 			}
; 229  : 
; 230  : 			bCol = true;

  001dc	8b 85 40 ff ff
	ff		 mov	 eax, DWORD PTR _bCol$GSCopy$[ebp]

; 231  : 			kOrientBox.SetByAxisBox( kAxisBox );

  001e2	ff b5 58 ff ff
	ff		 push	 DWORD PTR _kAxisBox$GSCopy$[ebp]
  001e8	c6 00 01	 mov	 BYTE PTR [eax], 1
  001eb	ff d6		 call	 esi

; 232  : 
; 233  : 			if( ioMath::TestIntersection( kOrientBox, kMountOrient, NULL ) )

  001ed	6a 00		 push	 0
  001ef	8d 85 5c ff ff
	ff		 lea	 eax, DWORD PTR _kMountOrient$531932[ebp]
  001f5	50		 push	 eax
  001f6	8d 45 a0	 lea	 eax, DWORD PTR _kOrientBox$531933[ebp]
  001f9	50		 push	 eax
  001fa	ff d7		 call	 edi
  001fc	83 c4 0c	 add	 esp, 12			; 0000000cH
  001ff	84 c0		 test	 al, al
  00201	0f 85 83 00 00
	00		 jne	 $LN52@ReCalculat@2

; 236  : 			}
; 237  : 
; 238  : 			if( ioMapCollisionHelper::ModifyMoveDir( kAxisBox, kAxisMoveBox, rkMountBox, false, pMove ) )

  00207	ff b5 48 ff ff
	ff		 push	 DWORD PTR _pMove$GSCopy$[ebp]
  0020d	6a 00		 push	 0
  0020f	ff b5 4c ff ff
	ff		 push	 DWORD PTR _rkMountBox$531931[ebp]
  00215	ff b5 54 ff ff
	ff		 push	 DWORD PTR _kAxisMoveBox$GSCopy$[ebp]
  0021b	ff b5 58 ff ff
	ff		 push	 DWORD PTR _kAxisBox$GSCopy$[ebp]
  00221	e8 00 00 00 00	 call	 ?ModifyMoveDir@ioMapCollisionHelper@@YA_NABVioAxisAlignBox@@00_NPAUD3DXVECTOR3@@@Z ; ioMapCollisionHelper::ModifyMoveDir
  00226	83 c4 14	 add	 esp, 20			; 00000014H
  00229	84 c0		 test	 al, al
  0022b	74 5d		 je	 SHORT $LN52@ReCalculat@2

; 239  : 			{
; 240  : 				kAxisMoveBox = kAxisBox;

  0022d	ff b5 58 ff ff
	ff		 push	 DWORD PTR _kAxisBox$GSCopy$[ebp]
  00233	8b 8d 54 ff ff
	ff		 mov	 ecx, DWORD PTR _kAxisMoveBox$GSCopy$[ebp]
  00239	ff 15 00 00 00
	00		 call	 DWORD PTR __imp_??4ioAxisAlignBox@@QAEAAV0@ABV0@@Z

; 241  : 				kAxisMoveBox.Translate( *pMove );

  0023f	ff b5 48 ff ff
	ff		 push	 DWORD PTR _pMove$GSCopy$[ebp]
  00245	8b 8d 54 ff ff
	ff		 mov	 ecx, DWORD PTR _kAxisMoveBox$GSCopy$[ebp]
  0024b	ff 15 00 00 00
	00		 call	 DWORD PTR __imp_?Translate@ioAxisAlignBox@@QAEXABUD3DXVECTOR3@@@Z
$LN56@ReCalculat@2:

; 242  : 			}
; 243  : 			else
; 244  : 			{
; 245  : 				return false;
; 246  : 			}
; 247  : 		}

  00251	8d 4d a0	 lea	 ecx, DWORD PTR _kOrientBox$531933[ebp]
$LN57@ReCalculat@2:
  00254	c6 45 fc 00	 mov	 BYTE PTR __$EHRec$[ebp+8], 0
  00258	ff d3		 call	 ebx
  0025a	83 4d fc ff	 or	 DWORD PTR __$EHRec$[ebp+8], -1
  0025e	8d 8d 5c ff ff
	ff		 lea	 ecx, DWORD PTR _kMountOrient$531932[ebp]
  00264	ff d3		 call	 ebx
$LN9@ReCalculat@2:

; 198  : 		
; 199  : 		for( GameEntityList::const_iterator iter = List.begin(); iter != List.end() ; ++iter )

  00266	8b 85 50 ff ff
	ff		 mov	 eax, DWORD PTR _iter$531922[ebp]
  0026c	8b 00		 mov	 eax, DWORD PTR [eax]
  0026e	8b 8d 38 ff ff
	ff		 mov	 ecx, DWORD PTR _List$GSCopy$[ebp]
  00274	89 85 50 ff ff
	ff		 mov	 DWORD PTR _iter$531922[ebp], eax
  0027a	3b 01		 cmp	 eax, DWORD PTR [ecx]
  0027c	0f 85 dd fd ff
	ff		 jne	 $LL54@ReCalculat@2
$LN8@ReCalculat@2:

; 248  : 
; 249  : 		return true;

  00282	b0 01		 mov	 al, 1
$LN11@ReCalculat@2:

; 250  : 	}

  00284	e8 00 00 00 00	 call	 __EH_epilog3_GS
  00289	c3		 ret	 0
$LN52@ReCalculat@2:

; 234  : 			{
; 235  : 				return false;

  0028a	8d 4d a0	 lea	 ecx, DWORD PTR _kOrientBox$531933[ebp]
  0028d	c6 45 fc 00	 mov	 BYTE PTR __$EHRec$[ebp+8], 0
  00291	ff d3		 call	 ebx
  00293	83 4d fc ff	 or	 DWORD PTR __$EHRec$[ebp+8], -1
  00297	8d 8d 5c ff ff
	ff		 lea	 ecx, DWORD PTR _kMountOrient$531932[ebp]
  0029d	ff d3		 call	 ebx
  0029f	32 c0		 xor	 al, al
  002a1	eb e1		 jmp	 SHORT $LN11@ReCalculat@2
_TEXT	ENDS
;	COMDAT text$x
text$x	SEGMENT
__unwindfunclet$?ReCalculateMoveVectorByEntity@ioMapCollisionHelper@@YA_NPAVioPlayEntity@@ABV?$list@PAVioGameEntity@@V?$allocator@PAVioGameEntity@@@std@@@std@@AAVioAxisAlignBox@@ABV5@ABUD3DXVECTOR3@@PAU6@AA_N@Z$0:
  00000	8d 8d 5c ff ff
	ff		 lea	 ecx, DWORD PTR _kMountOrient$531932[ebp]
  00006	ff 25 00 00 00
	00		 jmp	 DWORD PTR __imp_??1ioOrientBox@@QAE@XZ
__unwindfunclet$?ReCalculateMoveVectorByEntity@ioMapCollisionHelper@@YA_NPAVioPlayEntity@@ABV?$list@PAVioGameEntity@@V?$allocator@PAVioGameEntity@@@std@@@std@@AAVioAxisAlignBox@@ABV5@ABUD3DXVECTOR3@@PAU6@AA_N@Z$1:
  0000c	8d 4d a0	 lea	 ecx, DWORD PTR _kOrientBox$531933[ebp]
  0000f	ff 25 00 00 00
	00		 jmp	 DWORD PTR __imp_??1ioOrientBox@@QAE@XZ
__ehhandler$?ReCalculateMoveVectorByEntity@ioMapCollisionHelper@@YA_NPAVioPlayEntity@@ABV?$list@PAVioGameEntity@@V?$allocator@PAVioGameEntity@@@std@@@std@@AAVioAxisAlignBox@@ABV5@ABUD3DXVECTOR3@@PAU6@AA_N@Z:
  00015	8b 54 24 08	 mov	 edx, DWORD PTR [esp+8]
  00019	8d 42 0c	 lea	 eax, DWORD PTR [edx+12]
  0001c	8b 8a 34 ff ff
	ff		 mov	 ecx, DWORD PTR [edx-204]
  00022	33 c8		 xor	 ecx, eax
  00024	e8 00 00 00 00	 call	 @__security_check_cookie@4
  00029	8b 4a fc	 mov	 ecx, DWORD PTR [edx-4]
  0002c	33 c8		 xor	 ecx, eax
  0002e	e8 00 00 00 00	 call	 @__security_check_cookie@4
  00033	b8 00 00 00 00	 mov	 eax, OFFSET __ehfuncinfo$?ReCalculateMoveVectorByEntity@ioMapCollisionHelper@@YA_NPAVioPlayEntity@@ABV?$list@PAVioGameEntity@@V?$allocator@PAVioGameEntity@@@std@@@std@@AAVioAxisAlignBox@@ABV5@ABUD3DXVECTOR3@@PAU6@AA_N@Z
  00038	e9 00 00 00 00	 jmp	 ___CxxFrameHandler3
text$x	ENDS
?ReCalculateMoveVectorByEntity@ioMapCollisionHelper@@YA_NPAVioPlayEntity@@ABV?$list@PAVioGameEntity@@V?$allocator@PAVioGameEntity@@@std@@@std@@AAVioAxisAlignBox@@ABV5@ABUD3DXVECTOR3@@PAU6@AA_N@Z ENDP ; ioMapCollisionHelper::ReCalculateMoveVectorByEntity
PUBLIC	?CheckMountAvailableEntityVsSegment@ioMapCollisionHelper@@YA_NABV?$list@PAVioGameEntity@@V?$allocator@PAVioGameEntity@@@std@@@std@@ABVioSegment@@@Z ; ioMapCollisionHelper::CheckMountAvailableEntityVsSegment
EXTRN	__imp_?TestIntersection@ioMath@@SA_NABVioSegment@@ABVioOrientBox@@@Z:PROC
; Function compile flags: /Ogsp
;	COMDAT ?CheckMountAvailableEntityVsSegment@ioMapCollisionHelper@@YA_NABV?$list@PAVioGameEntity@@V?$allocator@PAVioGameEntity@@@std@@@std@@ABVioSegment@@@Z
_TEXT	SEGMENT
_MountList$ = 8						; size = 4
_kSegment$ = 12						; size = 4
?CheckMountAvailableEntityVsSegment@ioMapCollisionHelper@@YA_NABV?$list@PAVioGameEntity@@V?$allocator@PAVioGameEntity@@@std@@@std@@ABVioSegment@@@Z PROC ; ioMapCollisionHelper::CheckMountAvailableEntityVsSegment, COMDAT

; 559  : 	{	

  00000	55		 push	 ebp
  00001	8b ec		 mov	 ebp, esp
  00003	53		 push	 ebx

; 560  : 		for( MountAvailableList::const_iterator iter = MountList.begin(); iter != MountList.end() ; ++iter )

  00004	8b 5d 08	 mov	 ebx, DWORD PTR _MountList$[ebp]
  00007	8b 03		 mov	 eax, DWORD PTR [ebx]
  00009	56		 push	 esi
  0000a	8b 30		 mov	 esi, DWORD PTR [eax]
  0000c	57		 push	 edi
  0000d	3b f0		 cmp	 esi, eax
  0000f	74 2b		 je	 SHORT $LN3@CheckMount
$LL18@CheckMount:

; 561  : 		{
; 562  : 			ioGameEntity *pEntity = *iter;

  00011	8b 7e 08	 mov	 edi, DWORD PTR [esi+8]

; 563  : 			if( pEntity->IsNowMountEnable() )

  00014	8b 07		 mov	 eax, DWORD PTR [edi]
  00016	8b cf		 mov	 ecx, edi
  00018	ff 50 20	 call	 DWORD PTR [eax+32]
  0001b	84 c0		 test	 al, al
  0001d	74 17		 je	 SHORT $LN4@CheckMount

; 564  : 			{
; 565  : 				if( ioMath::TestIntersection( kSegment, pEntity->GetWorldCollisionBox() ) )

  0001f	8b cf		 mov	 ecx, edi
  00021	e8 00 00 00 00	 call	 ?GetWorldCollisionBox@ioGameEntity@@QBEABVioOrientBox@@XZ ; ioGameEntity::GetWorldCollisionBox
  00026	50		 push	 eax
  00027	ff 75 0c	 push	 DWORD PTR _kSegment$[ebp]
  0002a	ff 15 00 00 00
	00		 call	 DWORD PTR __imp_?TestIntersection@ioMath@@SA_NABVioSegment@@ABVioOrientBox@@@Z
  00030	59		 pop	 ecx
  00031	59		 pop	 ecx
  00032	84 c0		 test	 al, al
  00034	75 0d		 jne	 SHORT $LN39@CheckMount
$LN4@CheckMount:

; 560  : 		for( MountAvailableList::const_iterator iter = MountList.begin(); iter != MountList.end() ; ++iter )

  00036	8b 36		 mov	 esi, DWORD PTR [esi]
  00038	3b 33		 cmp	 esi, DWORD PTR [ebx]
  0003a	75 d5		 jne	 SHORT $LL18@CheckMount
$LN3@CheckMount:

; 568  : 				}
; 569  : 			}
; 570  : 		}
; 571  : 
; 572  : 		return false;

  0003c	32 c0		 xor	 al, al
$LN6@CheckMount:
  0003e	5f		 pop	 edi
  0003f	5e		 pop	 esi
  00040	5b		 pop	 ebx

; 573  : 	}

  00041	5d		 pop	 ebp
  00042	c3		 ret	 0
$LN39@CheckMount:

; 566  : 				{
; 567  : 					return true;

  00043	b0 01		 mov	 al, 1
  00045	eb f7		 jmp	 SHORT $LN6@CheckMount
?CheckMountAvailableEntityVsSegment@ioMapCollisionHelper@@YA_NABV?$list@PAVioGameEntity@@V?$allocator@PAVioGameEntity@@@std@@@std@@ABVioSegment@@@Z ENDP ; ioMapCollisionHelper::CheckMountAvailableEntityVsSegment
_TEXT	ENDS
PUBLIC	?front@?$vector@UD3DXVECTOR3@@V?$allocator@UD3DXVECTOR3@@@std@@@std@@QAEAAUD3DXVECTOR3@@XZ ; std::vector<D3DXVECTOR3,std::allocator<D3DXVECTOR3> >::front
; Function compile flags: /Ogsp
; File c:\program files (x86)\microsoft visual studio 10.0\vc\include\vector
;	COMDAT ?front@?$vector@UD3DXVECTOR3@@V?$allocator@UD3DXVECTOR3@@@std@@@std@@QAEAAUD3DXVECTOR3@@XZ
_TEXT	SEGMENT
?front@?$vector@UD3DXVECTOR3@@V?$allocator@UD3DXVECTOR3@@@std@@@std@@QAEAAUD3DXVECTOR3@@XZ PROC ; std::vector<D3DXVECTOR3,std::allocator<D3DXVECTOR3> >::front, COMDAT
; _this$ = ecx

; 957  : 		return (*begin());

  00000	8b 01		 mov	 eax, DWORD PTR [ecx]

; 958  : 		}

  00002	c3		 ret	 0
?front@?$vector@UD3DXVECTOR3@@V?$allocator@UD3DXVECTOR3@@@std@@@std@@QAEAAUD3DXVECTOR3@@XZ ENDP ; std::vector<D3DXVECTOR3,std::allocator<D3DXVECTOR3> >::front
_TEXT	ENDS
PUBLIC	??$_Destroy_range@V?$allocator@UD3DXVECTOR3@@@std@@@std@@YAXPAUD3DXVECTOR3@@0AAV?$allocator@UD3DXVECTOR3@@@0@U_Nonscalar_ptr_iterator_tag@0@@Z ; std::_Destroy_range<std::allocator<D3DXVECTOR3> >
; Function compile flags: /Ogsp
; File c:\program files (x86)\microsoft visual studio 10.0\vc\include\xmemory
;	COMDAT ??$_Destroy_range@V?$allocator@UD3DXVECTOR3@@@std@@@std@@YAXPAUD3DXVECTOR3@@0AAV?$allocator@UD3DXVECTOR3@@@0@U_Nonscalar_ptr_iterator_tag@0@@Z
_TEXT	SEGMENT
__First$ = 8						; size = 4
__Last$ = 12						; size = 4
__Al$ = 16						; size = 4
___formal$ = 20						; size = 1
??$_Destroy_range@V?$allocator@UD3DXVECTOR3@@@std@@@std@@YAXPAUD3DXVECTOR3@@0AAV?$allocator@UD3DXVECTOR3@@@0@U_Nonscalar_ptr_iterator_tag@0@@Z PROC ; std::_Destroy_range<std::allocator<D3DXVECTOR3> >, COMDAT

; 96   : 	for (; _First != _Last; ++_First)
; 97   : 		_Dest_val(_Al, _First);
; 98   : 	}

  00000	c3		 ret	 0
??$_Destroy_range@V?$allocator@UD3DXVECTOR3@@@std@@@std@@YAXPAUD3DXVECTOR3@@0AAV?$allocator@UD3DXVECTOR3@@@0@U_Nonscalar_ptr_iterator_tag@0@@Z ENDP ; std::_Destroy_range<std::allocator<D3DXVECTOR3> >
_TEXT	ENDS
PUBLIC	??$_Uninit_move@PAUD3DXVECTOR3@@PAU1@V?$allocator@UD3DXVECTOR3@@@std@@U1@@std@@YAPAUD3DXVECTOR3@@PAU1@00AAV?$allocator@UD3DXVECTOR3@@@0@0U_Nonscalar_ptr_iterator_tag@0@@Z ; std::_Uninit_move<D3DXVECTOR3 *,D3DXVECTOR3 *,std::allocator<D3DXVECTOR3>,D3DXVECTOR3>
; Function compile flags: /Ogsp
; File c:\program files (x86)\microsoft visual studio 10.0\vc\include\memory
;	COMDAT ??$_Uninit_move@PAUD3DXVECTOR3@@PAU1@V?$allocator@UD3DXVECTOR3@@@std@@U1@@std@@YAPAUD3DXVECTOR3@@PAU1@00AAV?$allocator@UD3DXVECTOR3@@@0@0U_Nonscalar_ptr_iterator_tag@0@@Z
_TEXT	SEGMENT
__First$ = 8						; size = 4
__Last$ = 12						; size = 4
__Dest$ = 16						; size = 4
__Al$ = 20						; size = 4
___formal$ = 24						; size = 4
___formal$ = 28						; size = 1
??$_Uninit_move@PAUD3DXVECTOR3@@PAU1@V?$allocator@UD3DXVECTOR3@@@std@@U1@@std@@YAPAUD3DXVECTOR3@@PAU1@00AAV?$allocator@UD3DXVECTOR3@@@0@0U_Nonscalar_ptr_iterator_tag@0@@Z PROC ; std::_Uninit_move<D3DXVECTOR3 *,D3DXVECTOR3 *,std::allocator<D3DXVECTOR3>,D3DXVECTOR3>, COMDAT

; 424  : 	{	// move [_First, _Last) to raw _Dest, using _Al, arbitrary type

  00000	55		 push	 ebp
  00001	8b ec		 mov	 ebp, esp
  00003	56		 push	 esi

; 425  : 	_DEBUG_RANGE(_First, _Last);
; 426  : 	_DEBUG_POINTER(_Dest);
; 427  : 	_FwdIt _Next = _Dest;
; 428  : 
; 429  : 	_TRY_BEGIN
; 430  : 	for (; _First != _Last; ++_Dest, ++_First)

  00004	8b 75 08	 mov	 esi, DWORD PTR __First$[ebp]
  00007	eb 16		 jmp	 SHORT $LN24@Uninit_mov
$LL6@Uninit_mov:

; 431  : 		_Cons_val(_Al, _Dest, (_Valty &&)*_First);

  00009	56		 push	 esi
  0000a	ff 75 10	 push	 DWORD PTR __Dest$[ebp]
  0000d	ff 75 14	 push	 DWORD PTR __Al$[ebp]
  00010	e8 00 00 00 00	 call	 ??$_Cons_val@V?$allocator@UD3DXVECTOR3@@@std@@UD3DXVECTOR3@@U3@@std@@YAXAAV?$allocator@UD3DXVECTOR3@@@0@PAUD3DXVECTOR3@@$$QAU2@@Z ; std::_Cons_val<std::allocator<D3DXVECTOR3>,D3DXVECTOR3,D3DXVECTOR3>
  00015	83 45 10 0c	 add	 DWORD PTR __Dest$[ebp], 12 ; 0000000cH
  00019	83 c4 0c	 add	 esp, 12			; 0000000cH
  0001c	83 c6 0c	 add	 esi, 12			; 0000000cH
$LN24@Uninit_mov:

; 425  : 	_DEBUG_RANGE(_First, _Last);
; 426  : 	_DEBUG_POINTER(_Dest);
; 427  : 	_FwdIt _Next = _Dest;
; 428  : 
; 429  : 	_TRY_BEGIN
; 430  : 	for (; _First != _Last; ++_Dest, ++_First)

  0001f	3b 75 0c	 cmp	 esi, DWORD PTR __Last$[ebp]
  00022	75 e5		 jne	 SHORT $LL6@Uninit_mov

; 432  : 	_CATCH_ALL
; 433  : 	for (; _Next != _Dest; ++_Next)
; 434  : 		_Dest_val(_Al, _Next);
; 435  : 	_RERAISE;
; 436  : 	_CATCH_END
; 437  : 	return (_Dest);

  00024	8b 45 10	 mov	 eax, DWORD PTR __Dest$[ebp]
  00027	5e		 pop	 esi

; 438  : 	}

  00028	5d		 pop	 ebp
  00029	c3		 ret	 0
??$_Uninit_move@PAUD3DXVECTOR3@@PAU1@V?$allocator@UD3DXVECTOR3@@@std@@U1@@std@@YAPAUD3DXVECTOR3@@PAU1@00AAV?$allocator@UD3DXVECTOR3@@@0@0U_Nonscalar_ptr_iterator_tag@0@@Z ENDP ; std::_Uninit_move<D3DXVECTOR3 *,D3DXVECTOR3 *,std::allocator<D3DXVECTOR3>,D3DXVECTOR3>
_TEXT	ENDS
PUBLIC	??$_Destroy_range@V?$allocator@UD3DXVECTOR3@@@std@@@std@@YAXPAUD3DXVECTOR3@@0AAV?$allocator@UD3DXVECTOR3@@@0@@Z ; std::_Destroy_range<std::allocator<D3DXVECTOR3> >
; Function compile flags: /Ogsp
; File c:\program files (x86)\microsoft visual studio 10.0\vc\include\xmemory
;	COMDAT ??$_Destroy_range@V?$allocator@UD3DXVECTOR3@@@std@@@std@@YAXPAUD3DXVECTOR3@@0AAV?$allocator@UD3DXVECTOR3@@@0@@Z
_TEXT	SEGMENT
__First$ = 8						; size = 4
__Last$ = 12						; size = 4
__Al$ = 16						; size = 4
??$_Destroy_range@V?$allocator@UD3DXVECTOR3@@@std@@@std@@YAXPAUD3DXVECTOR3@@0AAV?$allocator@UD3DXVECTOR3@@@0@@Z PROC ; std::_Destroy_range<std::allocator<D3DXVECTOR3> >, COMDAT

; 88   : 	_Destroy_range(_First, _Last, _Al, _Ptr_cat(_First, _Last));
; 89   : 	}

  00000	c3		 ret	 0
??$_Destroy_range@V?$allocator@UD3DXVECTOR3@@@std@@@std@@YAXPAUD3DXVECTOR3@@0AAV?$allocator@UD3DXVECTOR3@@@0@@Z ENDP ; std::_Destroy_range<std::allocator<D3DXVECTOR3> >
_TEXT	ENDS
PUBLIC	??$_Uninitialized_move@PAUD3DXVECTOR3@@PAU1@V?$allocator@UD3DXVECTOR3@@@std@@@std@@YAPAUD3DXVECTOR3@@PAU1@00AAV?$allocator@UD3DXVECTOR3@@@0@@Z ; std::_Uninitialized_move<D3DXVECTOR3 *,D3DXVECTOR3 *,std::allocator<D3DXVECTOR3> >
; Function compile flags: /Ogsp
; File c:\program files (x86)\microsoft visual studio 10.0\vc\include\memory
;	COMDAT ??$_Uninitialized_move@PAUD3DXVECTOR3@@PAU1@V?$allocator@UD3DXVECTOR3@@@std@@@std@@YAPAUD3DXVECTOR3@@PAU1@00AAV?$allocator@UD3DXVECTOR3@@@0@@Z
_TEXT	SEGMENT
__Cat$534793 = -4					; size = 1
__First$ = 8						; size = 4
__Last$ = 12						; size = 4
__Dest$ = 16						; size = 4
__Al$ = 20						; size = 4
??$_Uninitialized_move@PAUD3DXVECTOR3@@PAU1@V?$allocator@UD3DXVECTOR3@@@std@@@std@@YAPAUD3DXVECTOR3@@PAU1@00AAV?$allocator@UD3DXVECTOR3@@@0@@Z PROC ; std::_Uninitialized_move<D3DXVECTOR3 *,D3DXVECTOR3 *,std::allocator<D3DXVECTOR3> >, COMDAT

; 469  : 	{	// move [_First, _Last) to raw _Dest, using _Al

  00000	55		 push	 ebp
  00001	8b ec		 mov	 ebp, esp
  00003	51		 push	 ecx

; 470  : 	return (_Uninit_move(_First, _Last, _Dest, _Al,
; 471  : 		_Val_type(_First), _Ptr_cat(_First, _Dest)));

  00004	ff 75 fc	 push	 DWORD PTR __Cat$534793[ebp]
  00007	6a 00		 push	 0
  00009	ff 75 14	 push	 DWORD PTR __Al$[ebp]
  0000c	ff 75 10	 push	 DWORD PTR __Dest$[ebp]
  0000f	ff 75 0c	 push	 DWORD PTR __Last$[ebp]
  00012	ff 75 08	 push	 DWORD PTR __First$[ebp]
  00015	e8 00 00 00 00	 call	 ??$_Uninit_move@PAUD3DXVECTOR3@@PAU1@V?$allocator@UD3DXVECTOR3@@@std@@U1@@std@@YAPAUD3DXVECTOR3@@PAU1@00AAV?$allocator@UD3DXVECTOR3@@@0@0U_Nonscalar_ptr_iterator_tag@0@@Z ; std::_Uninit_move<D3DXVECTOR3 *,D3DXVECTOR3 *,std::allocator<D3DXVECTOR3>,D3DXVECTOR3>
  0001a	83 c4 18	 add	 esp, 24			; 00000018H

; 472  : 	}

  0001d	c9		 leave
  0001e	c3		 ret	 0
??$_Uninitialized_move@PAUD3DXVECTOR3@@PAU1@V?$allocator@UD3DXVECTOR3@@@std@@@std@@YAPAUD3DXVECTOR3@@PAU1@00AAV?$allocator@UD3DXVECTOR3@@@0@@Z ENDP ; std::_Uninitialized_move<D3DXVECTOR3 *,D3DXVECTOR3 *,std::allocator<D3DXVECTOR3> >
_TEXT	ENDS
PUBLIC	?_Destroy@?$vector@UD3DXVECTOR3@@V?$allocator@UD3DXVECTOR3@@@std@@@std@@IAEXPAUD3DXVECTOR3@@0@Z ; std::vector<D3DXVECTOR3,std::allocator<D3DXVECTOR3> >::_Destroy
; Function compile flags: /Ogsp
; File c:\program files (x86)\microsoft visual studio 10.0\vc\include\vector
;	COMDAT ?_Destroy@?$vector@UD3DXVECTOR3@@V?$allocator@UD3DXVECTOR3@@@std@@@std@@IAEXPAUD3DXVECTOR3@@0@Z
_TEXT	SEGMENT
__First$ = 8						; size = 4
__Last$ = 12						; size = 4
?_Destroy@?$vector@UD3DXVECTOR3@@V?$allocator@UD3DXVECTOR3@@@std@@@std@@IAEXPAUD3DXVECTOR3@@0@Z PROC ; std::vector<D3DXVECTOR3,std::allocator<D3DXVECTOR3> >::_Destroy, COMDAT
; _this$ = ecx

; 1270 : 		_Destroy_range(_First, _Last, this->_Alval);
; 1271 : 		}

  00000	c2 08 00	 ret	 8
?_Destroy@?$vector@UD3DXVECTOR3@@V?$allocator@UD3DXVECTOR3@@@std@@@std@@IAEXPAUD3DXVECTOR3@@0@Z ENDP ; std::vector<D3DXVECTOR3,std::allocator<D3DXVECTOR3> >::_Destroy
_TEXT	ENDS
PUBLIC	?_Tidy@?$vector@UD3DXVECTOR3@@V?$allocator@UD3DXVECTOR3@@@std@@@std@@IAEXXZ ; std::vector<D3DXVECTOR3,std::allocator<D3DXVECTOR3> >::_Tidy
EXTRN	__imp_?_Orphan_all@_Container_base0@std@@QAEXXZ:PROC
; Function compile flags: /Ogsp
;	COMDAT ?_Tidy@?$vector@UD3DXVECTOR3@@V?$allocator@UD3DXVECTOR3@@@std@@@std@@IAEXXZ
_TEXT	SEGMENT
?_Tidy@?$vector@UD3DXVECTOR3@@V?$allocator@UD3DXVECTOR3@@@std@@@std@@IAEXXZ PROC ; std::vector<D3DXVECTOR3,std::allocator<D3DXVECTOR3> >::_Tidy, COMDAT
; _this$ = ecx

; 1301 : 		{	// free all storage

  00000	56		 push	 esi
  00001	8b f1		 mov	 esi, ecx

; 1302 : 		if (this->_Myfirst != 0)

  00003	83 3e 00	 cmp	 DWORD PTR [esi], 0
  00006	74 0e		 je	 SHORT $LN21@Tidy

; 1303 : 			{	// something to free, destroy and deallocate it
; 1304 : 			this->_Orphan_all();

  00008	ff 15 00 00 00
	00		 call	 DWORD PTR __imp_?_Orphan_all@_Container_base0@std@@QAEXXZ

; 1305 : 			_Destroy(this->_Myfirst, this->_Mylast);
; 1306 : 			this->_Alval.deallocate(this->_Myfirst,
; 1307 : 				this->_Myend - this->_Myfirst);

  0000e	ff 36		 push	 DWORD PTR [esi]
  00010	e8 00 00 00 00	 call	 ??3@YAXPAX@Z		; operator delete
  00015	59		 pop	 ecx
$LN21@Tidy:

; 1308 : 			}
; 1309 : 		this->_Myfirst = 0;

  00016	83 26 00	 and	 DWORD PTR [esi], 0

; 1310 : 		this->_Mylast = 0;

  00019	83 66 04 00	 and	 DWORD PTR [esi+4], 0

; 1311 : 		this->_Myend = 0;

  0001d	83 66 08 00	 and	 DWORD PTR [esi+8], 0
  00021	5e		 pop	 esi

; 1312 : 		}

  00022	c3		 ret	 0
?_Tidy@?$vector@UD3DXVECTOR3@@V?$allocator@UD3DXVECTOR3@@@std@@@std@@IAEXXZ ENDP ; std::vector<D3DXVECTOR3,std::allocator<D3DXVECTOR3> >::_Tidy
_TEXT	ENDS
PUBLIC	??$_Umove@PAUD3DXVECTOR3@@@?$vector@UD3DXVECTOR3@@V?$allocator@UD3DXVECTOR3@@@std@@@std@@IAEPAUD3DXVECTOR3@@PAU2@00@Z ; std::vector<D3DXVECTOR3,std::allocator<D3DXVECTOR3> >::_Umove<D3DXVECTOR3 *>
; Function compile flags: /Ogsp
;	COMDAT ??$_Umove@PAUD3DXVECTOR3@@@?$vector@UD3DXVECTOR3@@V?$allocator@UD3DXVECTOR3@@@std@@@std@@IAEPAUD3DXVECTOR3@@PAU2@00@Z
_TEXT	SEGMENT
__First$ = 8						; size = 4
__Last$ = 12						; size = 4
__Ptr$ = 16						; size = 4
??$_Umove@PAUD3DXVECTOR3@@@?$vector@UD3DXVECTOR3@@V?$allocator@UD3DXVECTOR3@@@std@@@std@@IAEPAUD3DXVECTOR3@@PAU2@00@Z PROC ; std::vector<D3DXVECTOR3,std::allocator<D3DXVECTOR3> >::_Umove<D3DXVECTOR3 *>, COMDAT
; _this$ = ecx

; 1322 : 		pointer _Umove(_Iter _First, _Iter _Last, pointer _Ptr)

  00000	55		 push	 ebp
  00001	8b ec		 mov	 ebp, esp

; 1323 : 		{	// move initializing [_First, _Last), using allocator
; 1324 : 		return (_Uninitialized_move(_First, _Last,
; 1325 : 			_Ptr, this->_Alval));

  00003	83 c1 0c	 add	 ecx, 12			; 0000000cH
  00006	51		 push	 ecx
  00007	ff 75 10	 push	 DWORD PTR __Ptr$[ebp]
  0000a	ff 75 0c	 push	 DWORD PTR __Last$[ebp]
  0000d	ff 75 08	 push	 DWORD PTR __First$[ebp]
  00010	e8 00 00 00 00	 call	 ??$_Uninitialized_move@PAUD3DXVECTOR3@@PAU1@V?$allocator@UD3DXVECTOR3@@@std@@@std@@YAPAUD3DXVECTOR3@@PAU1@00AAV?$allocator@UD3DXVECTOR3@@@0@@Z ; std::_Uninitialized_move<D3DXVECTOR3 *,D3DXVECTOR3 *,std::allocator<D3DXVECTOR3> >
  00015	83 c4 10	 add	 esp, 16			; 00000010H

; 1326 : 		}

  00018	5d		 pop	 ebp
  00019	c2 0c 00	 ret	 12			; 0000000cH
??$_Umove@PAUD3DXVECTOR3@@@?$vector@UD3DXVECTOR3@@V?$allocator@UD3DXVECTOR3@@@std@@@std@@IAEPAUD3DXVECTOR3@@PAU2@00@Z ENDP ; std::vector<D3DXVECTOR3,std::allocator<D3DXVECTOR3> >::_Umove<D3DXVECTOR3 *>
_TEXT	ENDS
PUBLIC	??1?$vector@UD3DXVECTOR3@@V?$allocator@UD3DXVECTOR3@@@std@@@std@@QAE@XZ ; std::vector<D3DXVECTOR3,std::allocator<D3DXVECTOR3> >::~vector<D3DXVECTOR3,std::allocator<D3DXVECTOR3> >
; Function compile flags: /Ogsp
;	COMDAT ??1?$vector@UD3DXVECTOR3@@V?$allocator@UD3DXVECTOR3@@@std@@@std@@QAE@XZ
_TEXT	SEGMENT
??1?$vector@UD3DXVECTOR3@@V?$allocator@UD3DXVECTOR3@@@std@@@std@@QAE@XZ PROC ; std::vector<D3DXVECTOR3,std::allocator<D3DXVECTOR3> >::~vector<D3DXVECTOR3,std::allocator<D3DXVECTOR3> >, COMDAT
; _this$ = ecx

; 705  : 		_Tidy();

  00000	e9 00 00 00 00	 jmp	 ?_Tidy@?$vector@UD3DXVECTOR3@@V?$allocator@UD3DXVECTOR3@@@std@@@std@@IAEXXZ ; std::vector<D3DXVECTOR3,std::allocator<D3DXVECTOR3> >::_Tidy
??1?$vector@UD3DXVECTOR3@@V?$allocator@UD3DXVECTOR3@@@std@@@std@@QAE@XZ ENDP ; std::vector<D3DXVECTOR3,std::allocator<D3DXVECTOR3> >::~vector<D3DXVECTOR3,std::allocator<D3DXVECTOR3> >
_TEXT	ENDS
PUBLIC	?reserve@?$vector@UD3DXVECTOR3@@V?$allocator@UD3DXVECTOR3@@@std@@@std@@QAEXI@Z ; std::vector<D3DXVECTOR3,std::allocator<D3DXVECTOR3> >::reserve
EXTRN	__EH_epilog3:PROC
EXTRN	__EH_prolog3_catch:PROC
;	COMDAT xdata$x
; File c:\program files (x86)\microsoft visual studio 10.0\vc\include\xmemory
xdata$x	SEGMENT
__catchsym$?reserve@?$vector@UD3DXVECTOR3@@V?$allocator@UD3DXVECTOR3@@@std@@@std@@QAEXI@Z$2 DD 040H
	DD	00H
	DD	00H
	DD	FLAT:__catch$?reserve@?$vector@UD3DXVECTOR3@@V?$allocator@UD3DXVECTOR3@@@std@@@std@@QAEXI@Z$0
__unwindtable$?reserve@?$vector@UD3DXVECTOR3@@V?$allocator@UD3DXVECTOR3@@@std@@@std@@QAEXI@Z DD 0ffffffffH
	DD	00H
	DD	0ffffffffH
	DD	00H
__tryblocktable$?reserve@?$vector@UD3DXVECTOR3@@V?$allocator@UD3DXVECTOR3@@@std@@@std@@QAEXI@Z DD 00H
	DD	00H
	DD	01H
	DD	01H
	DD	FLAT:__catchsym$?reserve@?$vector@UD3DXVECTOR3@@V?$allocator@UD3DXVECTOR3@@@std@@@std@@QAEXI@Z$2
__ehfuncinfo$?reserve@?$vector@UD3DXVECTOR3@@V?$allocator@UD3DXVECTOR3@@@std@@@std@@QAEXI@Z DD 019930522H
	DD	02H
	DD	FLAT:__unwindtable$?reserve@?$vector@UD3DXVECTOR3@@V?$allocator@UD3DXVECTOR3@@@std@@@std@@QAEXI@Z
	DD	01H
	DD	FLAT:__tryblocktable$?reserve@?$vector@UD3DXVECTOR3@@V?$allocator@UD3DXVECTOR3@@@std@@@std@@QAEXI@Z
	DD	2 DUP(00H)
	DD	00H
	DD	01H
; Function compile flags: /Ogsp
; File c:\program files (x86)\microsoft visual studio 10.0\vc\include\vector
xdata$x	ENDS
;	COMDAT ?reserve@?$vector@UD3DXVECTOR3@@V?$allocator@UD3DXVECTOR3@@@std@@@std@@QAEXI@Z
_TEXT	SEGMENT
__$EHRec$ = -16						; size = 16
__Ptr$532177 = 8					; size = 4
__Count$ = 8						; size = 4
?reserve@?$vector@UD3DXVECTOR3@@V?$allocator@UD3DXVECTOR3@@@std@@@std@@QAEXI@Z PROC ; std::vector<D3DXVECTOR3,std::allocator<D3DXVECTOR3> >::reserve, COMDAT
; _this$ = ecx

; 746  : 		{	// determine new minimum length of allocated storage

  00000	6a 04		 push	 4
  00002	b8 00 00 00 00	 mov	 eax, __ehhandler$?reserve@?$vector@UD3DXVECTOR3@@V?$allocator@UD3DXVECTOR3@@@std@@@std@@QAEXI@Z
  00007	e8 00 00 00 00	 call	 __EH_prolog3_catch
  0000c	8b f1		 mov	 esi, ecx

; 747  : 		if (max_size() < _Count)

  0000e	8b 5d 08	 mov	 ebx, DWORD PTR __Count$[ebp]
  00011	81 fb 55 55 55
	15		 cmp	 ebx, 357913941		; 15555555H
  00017	76 0b		 jbe	 SHORT $LN5@reserve

; 748  : 			_Xlen();	// result too long

  00019	68 00 00 00 00	 push	 OFFSET ??_C@_0BD@OLBABOEK@vector?$DMT?$DO?5too?5long?$AA@
  0001e	ff 15 00 00 00
	00		 call	 DWORD PTR __imp_?_Xlength_error@std@@YAXPBD@Z
$LN56@reserve:
$LN5@reserve:

; 749  : 		else if (capacity() < _Count)

  00024	8b 46 08	 mov	 eax, DWORD PTR [esi+8]
  00027	2b 06		 sub	 eax, DWORD PTR [esi]
  00029	6a 0c		 push	 12			; 0000000cH
  0002b	99		 cdq
  0002c	59		 pop	 ecx
  0002d	f7 f9		 idiv	 ecx
  0002f	3b c3		 cmp	 eax, ebx
  00031	73 6b		 jae	 SHORT $LN3@reserve

; 750  : 			{	// not enough room, reallocate
; 751  : 			pointer _Ptr = this->_Alval.allocate(_Count);

  00033	6a 00		 push	 0
  00035	53		 push	 ebx
  00036	e8 00 00 00 00	 call	 ??$_Allocate@UD3DXVECTOR3@@@std@@YAPAUD3DXVECTOR3@@IPAU1@@Z ; std::_Allocate<D3DXVECTOR3>

; 752  : 
; 753  : 			_TRY_BEGIN
; 754  : 			_Umove(this->_Myfirst, this->_Mylast, _Ptr);

  0003b	8b 0e		 mov	 ecx, DWORD PTR [esi]
  0003d	83 65 fc 00	 and	 DWORD PTR __$EHRec$[ebp+12], 0
  00041	8d 56 0c	 lea	 edx, DWORD PTR [esi+12]
  00044	52		 push	 edx
  00045	89 45 08	 mov	 DWORD PTR __Ptr$532177[ebp], eax
  00048	ff 75 08	 push	 DWORD PTR __Ptr$532177[ebp]
  0004b	8b 46 04	 mov	 eax, DWORD PTR [esi+4]
  0004e	50		 push	 eax
  0004f	51		 push	 ecx
  00050	e8 00 00 00 00	 call	 ??$_Uninitialized_move@PAUD3DXVECTOR3@@PAU1@V?$allocator@UD3DXVECTOR3@@@std@@@std@@YAPAUD3DXVECTOR3@@PAU1@00AAV?$allocator@UD3DXVECTOR3@@@0@@Z ; std::_Uninitialized_move<D3DXVECTOR3 *,D3DXVECTOR3 *,std::allocator<D3DXVECTOR3> >

; 758  : 			_CATCH_END
; 759  : 
; 760  : 			size_type _Size = size();

  00055	8b 0e		 mov	 ecx, DWORD PTR [esi]
  00057	8b 46 04	 mov	 eax, DWORD PTR [esi+4]
  0005a	83 c4 18	 add	 esp, 24			; 00000018H
  0005d	2b c1		 sub	 eax, ecx
  0005f	6a 0c		 push	 12			; 0000000cH
  00061	99		 cdq
  00062	5f		 pop	 edi
  00063	f7 ff		 idiv	 edi
  00065	83 4d fc ff	 or	 DWORD PTR __$EHRec$[ebp+12], -1
  00069	8b f8		 mov	 edi, eax
  0006b	85 c9		 test	 ecx, ecx
  0006d	74 12		 je	 SHORT $LN48@reserve

; 761  : 			if (this->_Myfirst != 0)

  0006f	eb 03		 jmp	 SHORT $LN55@reserve

; 762  : 				{	// destroy and deallocate old array
; 763  : 				_Destroy(this->_Myfirst, this->_Mylast);

$LL39@reserve:
  00071	83 c1 0c	 add	 ecx, 12			; 0000000cH
$LN55@reserve:
  00074	3b 4e 04	 cmp	 ecx, DWORD PTR [esi+4]
  00077	75 f8		 jne	 SHORT $LL39@reserve

; 764  : 				this->_Alval.deallocate(this->_Myfirst,
; 765  : 					this->_Myend - this->_Myfirst);

  00079	ff 36		 push	 DWORD PTR [esi]
  0007b	e8 00 00 00 00	 call	 ??3@YAXPAX@Z		; operator delete
  00080	59		 pop	 ecx
$LN48@reserve:

; 766  : 				}
; 767  : 
; 768  : 			this->_Orphan_all();

  00081	8b ce		 mov	 ecx, esi
  00083	ff 15 00 00 00
	00		 call	 DWORD PTR __imp_?_Orphan_all@_Container_base0@std@@QAEXXZ

; 769  : 			this->_Myend = _Ptr + _Count;

  00089	6b db 0c	 imul	 ebx, 12			; 0000000cH

; 770  : 			this->_Mylast = _Ptr + _Size;

  0008c	6b ff 0c	 imul	 edi, 12			; 0000000cH
  0008f	8b 45 08	 mov	 eax, DWORD PTR __Ptr$532177[ebp]
  00092	03 d8		 add	 ebx, eax
  00094	03 f8		 add	 edi, eax
  00096	89 5e 08	 mov	 DWORD PTR [esi+8], ebx
  00099	89 7e 04	 mov	 DWORD PTR [esi+4], edi

; 771  : 			this->_Myfirst = _Ptr;

  0009c	89 06		 mov	 DWORD PTR [esi], eax
$LN3@reserve:

; 772  : 			}
; 773  : 		}

  0009e	e8 00 00 00 00	 call	 __EH_epilog3
  000a3	c2 04 00	 ret	 4
__catch$?reserve@?$vector@UD3DXVECTOR3@@V?$allocator@UD3DXVECTOR3@@@std@@@std@@QAEXI@Z$0:

; 755  : 			_CATCH_ALL
; 756  : 			this->_Alval.deallocate(_Ptr, _Count);

  000a6	ff 75 08	 push	 DWORD PTR __Ptr$532177[ebp]
  000a9	e8 00 00 00 00	 call	 ??3@YAXPAX@Z		; operator delete
  000ae	59		 pop	 ecx

; 757  : 			_RERAISE;

  000af	6a 00		 push	 0
  000b1	6a 00		 push	 0
  000b3	e8 00 00 00 00	 call	 __CxxThrowException@8
$LN57@reserve:
$LN54@reserve:
  000b8	cc		 int	 3
_TEXT	ENDS
;	COMDAT text$x
text$x	SEGMENT
__ehhandler$?reserve@?$vector@UD3DXVECTOR3@@V?$allocator@UD3DXVECTOR3@@@std@@@std@@QAEXI@Z:
  00000	8b 54 24 08	 mov	 edx, DWORD PTR [esp+8]
  00004	8d 42 0c	 lea	 eax, DWORD PTR [edx+12]
  00007	8b 4a ec	 mov	 ecx, DWORD PTR [edx-20]
  0000a	33 c8		 xor	 ecx, eax
  0000c	e8 00 00 00 00	 call	 @__security_check_cookie@4
  00011	b8 00 00 00 00	 mov	 eax, OFFSET __ehfuncinfo$?reserve@?$vector@UD3DXVECTOR3@@V?$allocator@UD3DXVECTOR3@@@std@@@std@@QAEXI@Z
  00016	e9 00 00 00 00	 jmp	 ___CxxFrameHandler3
text$x	ENDS
?reserve@?$vector@UD3DXVECTOR3@@V?$allocator@UD3DXVECTOR3@@@std@@@std@@QAEXI@Z ENDP ; std::vector<D3DXVECTOR3,std::allocator<D3DXVECTOR3> >::reserve
PUBLIC	?_Reserve@?$vector@UD3DXVECTOR3@@V?$allocator@UD3DXVECTOR3@@@std@@@std@@IAEXI@Z ; std::vector<D3DXVECTOR3,std::allocator<D3DXVECTOR3> >::_Reserve
; Function compile flags: /Ogsp
;	COMDAT ?_Reserve@?$vector@UD3DXVECTOR3@@V?$allocator@UD3DXVECTOR3@@@std@@@std@@IAEXI@Z
_TEXT	SEGMENT
__Count$ = 8						; size = 4
?_Reserve@?$vector@UD3DXVECTOR3@@V?$allocator@UD3DXVECTOR3@@@std@@@std@@IAEXI@Z PROC ; std::vector<D3DXVECTOR3,std::allocator<D3DXVECTOR3> >::_Reserve, COMDAT
; _this$ = ecx

; 1290 : 		{	// ensure room for _Count new elements, grow exponentially

  00000	55		 push	 ebp
  00001	8b ec		 mov	 ebp, esp
  00003	56		 push	 esi
  00004	8b f1		 mov	 esi, ecx

; 1291 : 		size_type _Size = size();

  00006	8b 0e		 mov	 ecx, DWORD PTR [esi]
  00008	8b 46 04	 mov	 eax, DWORD PTR [esi+4]
  0000b	2b c1		 sub	 eax, ecx
  0000d	57		 push	 edi
  0000e	99		 cdq
  0000f	6a 0c		 push	 12			; 0000000cH
  00011	5f		 pop	 edi
  00012	f7 ff		 idiv	 edi
  00014	8b f8		 mov	 edi, eax

; 1292 : 		if (max_size() - _Count < _Size)

  00016	b8 55 55 55 15	 mov	 eax, 357913941		; 15555555H
  0001b	2b 45 08	 sub	 eax, DWORD PTR __Count$[ebp]
  0001e	3b c7		 cmp	 eax, edi
  00020	73 0b		 jae	 SHORT $LN4@Reserve

; 1293 : 			_Xlen();

  00022	68 00 00 00 00	 push	 OFFSET ??_C@_0BD@OLBABOEK@vector?$DMT?$DO?5too?5long?$AA@
  00027	ff 15 00 00 00
	00		 call	 DWORD PTR __imp_?_Xlength_error@std@@YAXPBD@Z
$LN21@Reserve:
$LN4@Reserve:

; 1294 : 		else if ((_Size += _Count) <= capacity())

  0002d	8b 46 08	 mov	 eax, DWORD PTR [esi+8]
  00030	2b c1		 sub	 eax, ecx
  00032	6a 0c		 push	 12			; 0000000cH
  00034	99		 cdq
  00035	59		 pop	 ecx
  00036	f7 f9		 idiv	 ecx
  00038	03 7d 08	 add	 edi, DWORD PTR __Count$[ebp]
  0003b	3b f8		 cmp	 edi, eax
  0003d	76 10		 jbe	 SHORT $LN1@Reserve

; 1295 : 			;
; 1296 : 		else
; 1297 : 			reserve(_Grow_to(_Size));

  0003f	57		 push	 edi
  00040	8b ce		 mov	 ecx, esi
  00042	e8 00 00 00 00	 call	 ?_Grow_to@?$vector@UD3DXVECTOR3@@V?$allocator@UD3DXVECTOR3@@@std@@@std@@IBEII@Z ; std::vector<D3DXVECTOR3,std::allocator<D3DXVECTOR3> >::_Grow_to
  00047	50		 push	 eax
  00048	8b ce		 mov	 ecx, esi
  0004a	e8 00 00 00 00	 call	 ?reserve@?$vector@UD3DXVECTOR3@@V?$allocator@UD3DXVECTOR3@@@std@@@std@@QAEXI@Z ; std::vector<D3DXVECTOR3,std::allocator<D3DXVECTOR3> >::reserve
$LN1@Reserve:
  0004f	5f		 pop	 edi
  00050	5e		 pop	 esi

; 1298 : 		}

  00051	5d		 pop	 ebp
  00052	c2 04 00	 ret	 4
$LN20@Reserve:
?_Reserve@?$vector@UD3DXVECTOR3@@V?$allocator@UD3DXVECTOR3@@@std@@@std@@IAEXI@Z ENDP ; std::vector<D3DXVECTOR3,std::allocator<D3DXVECTOR3> >::_Reserve
_TEXT	ENDS
PUBLIC	?push_back@?$vector@UD3DXVECTOR3@@V?$allocator@UD3DXVECTOR3@@@std@@@std@@QAEXABUD3DXVECTOR3@@@Z ; std::vector<D3DXVECTOR3,std::allocator<D3DXVECTOR3> >::push_back
; Function compile flags: /Ogsp
;	COMDAT ?push_back@?$vector@UD3DXVECTOR3@@V?$allocator@UD3DXVECTOR3@@@std@@@std@@QAEXABUD3DXVECTOR3@@@Z
_TEXT	SEGMENT
__Val$ = 8						; size = 4
?push_back@?$vector@UD3DXVECTOR3@@V?$allocator@UD3DXVECTOR3@@@std@@@std@@QAEXABUD3DXVECTOR3@@@Z PROC ; std::vector<D3DXVECTOR3,std::allocator<D3DXVECTOR3> >::push_back, COMDAT
; _this$ = ecx

; 976  : 		{	// insert element at end

  00000	55		 push	 ebp
  00001	8b ec		 mov	 ebp, esp
  00003	56		 push	 esi
  00004	8b f1		 mov	 esi, ecx

; 977  : 		if (_Inside(_STD addressof(_Val)))

  00006	8b 4e 04	 mov	 ecx, DWORD PTR [esi+4]
  00009	57		 push	 edi
  0000a	8b 7d 08	 mov	 edi, DWORD PTR __Val$[ebp]
  0000d	3b f9		 cmp	 edi, ecx
  0000f	73 34		 jae	 SHORT $LN4@push_back
  00011	8b 16		 mov	 edx, DWORD PTR [esi]
  00013	3b d7		 cmp	 edx, edi
  00015	77 2e		 ja	 SHORT $LN4@push_back

; 978  : 			{	// push back an element
; 979  : 			size_type _Idx = _STD addressof(_Val) - this->_Myfirst;

  00017	8b c7		 mov	 eax, edi
  00019	2b c2		 sub	 eax, edx
  0001b	6a 0c		 push	 12			; 0000000cH
  0001d	99		 cdq
  0001e	5f		 pop	 edi
  0001f	f7 ff		 idiv	 edi
  00021	8b f8		 mov	 edi, eax

; 980  : 			if (this->_Mylast == this->_Myend)

  00023	3b 4e 08	 cmp	 ecx, DWORD PTR [esi+8]
  00026	75 09		 jne	 SHORT $LN3@push_back

; 981  : 				_Reserve(1);

  00028	6a 01		 push	 1
  0002a	8b ce		 mov	 ecx, esi
  0002c	e8 00 00 00 00	 call	 ?_Reserve@?$vector@UD3DXVECTOR3@@V?$allocator@UD3DXVECTOR3@@@std@@@std@@IAEXI@Z ; std::vector<D3DXVECTOR3,std::allocator<D3DXVECTOR3> >::_Reserve
$LN3@push_back:

; 982  : 			_Orphan_range(this->_Mylast, this->_Mylast);
; 983  : 			_Cons_val(this->_Alval,
; 984  : 				this->_Mylast,
; 985  : 				this->_Myfirst[_Idx]);

  00031	6b ff 0c	 imul	 edi, 12			; 0000000cH
  00034	03 3e		 add	 edi, DWORD PTR [esi]
  00036	8d 46 0c	 lea	 eax, DWORD PTR [esi+12]
  00039	57		 push	 edi
  0003a	ff 76 04	 push	 DWORD PTR [esi+4]
  0003d	50		 push	 eax
  0003e	e8 00 00 00 00	 call	 ??$_Cons_val@V?$allocator@UD3DXVECTOR3@@@std@@UD3DXVECTOR3@@AAU3@@std@@YAXAAV?$allocator@UD3DXVECTOR3@@@0@PAUD3DXVECTOR3@@AAU2@@Z ; std::_Cons_val<std::allocator<D3DXVECTOR3>,D3DXVECTOR3,D3DXVECTOR3 &>

; 986  : 			++this->_Mylast;
; 987  : 			}
; 988  : 		else

  00043	eb 1b		 jmp	 SHORT $LN20@push_back
$LN4@push_back:

; 989  : 			{	// push back a non-element
; 990  : 			if (this->_Mylast == this->_Myend)

  00045	3b 4e 08	 cmp	 ecx, DWORD PTR [esi+8]
  00048	75 09		 jne	 SHORT $LN1@push_back

; 991  : 				_Reserve(1);

  0004a	6a 01		 push	 1
  0004c	8b ce		 mov	 ecx, esi
  0004e	e8 00 00 00 00	 call	 ?_Reserve@?$vector@UD3DXVECTOR3@@V?$allocator@UD3DXVECTOR3@@@std@@@std@@IAEXI@Z ; std::vector<D3DXVECTOR3,std::allocator<D3DXVECTOR3> >::_Reserve
$LN1@push_back:

; 992  : 			_Orphan_range(this->_Mylast, this->_Mylast);
; 993  : 			_Cons_val(this->_Alval,
; 994  : 				this->_Mylast,
; 995  : 				_Val);

  00053	57		 push	 edi
  00054	ff 76 04	 push	 DWORD PTR [esi+4]
  00057	8d 46 0c	 lea	 eax, DWORD PTR [esi+12]
  0005a	50		 push	 eax
  0005b	e8 00 00 00 00	 call	 ??$_Cons_val@V?$allocator@UD3DXVECTOR3@@@std@@UD3DXVECTOR3@@ABU3@@std@@YAXAAV?$allocator@UD3DXVECTOR3@@@0@PAUD3DXVECTOR3@@ABU2@@Z ; std::_Cons_val<std::allocator<D3DXVECTOR3>,D3DXVECTOR3,D3DXVECTOR3 const &>
$LN20@push_back:
  00060	83 c4 0c	 add	 esp, 12			; 0000000cH

; 996  : 			++this->_Mylast;

  00063	83 46 04 0c	 add	 DWORD PTR [esi+4], 12	; 0000000cH
  00067	5f		 pop	 edi
  00068	5e		 pop	 esi

; 997  : 			}
; 998  : 		}

  00069	5d		 pop	 ebp
  0006a	c2 04 00	 ret	 4
?push_back@?$vector@UD3DXVECTOR3@@V?$allocator@UD3DXVECTOR3@@@std@@@std@@QAEXABUD3DXVECTOR3@@@Z ENDP ; std::vector<D3DXVECTOR3,std::allocator<D3DXVECTOR3> >::push_back
_TEXT	ENDS
PUBLIC	__real@3f800000
PUBLIC	__real@3feb333340000000
PUBLIC	__real@00000000
PUBLIC	__real@4f800000
PUBLIC	_pShapeWorldMat$GSCopy$
PUBLIC	_kMoveBox$GSCopy$
PUBLIC	_pEntity$GSCopy$
PUBLIC	_bCol$GSCopy$
PUBLIC	_pMove$GSCopy$
PUBLIC	?ReCalculateMoveVectorByWorldMesh@ioMapCollisionHelper@@YA_NPAVioPlayEntity@@ABVioOrientBox@@PAVioOpcodeShape@@PBUD3DXMATRIX@@MABUD3DXVECTOR3@@_NPAU6@AA_N@Z ; ioMapCollisionHelper::ReCalculateMoveVectorByWorldMesh
EXTRN	__imp_?UNIT_Y@ioMath@@2UD3DXVECTOR3@@A:BYTE
EXTRN	__imp_?FindIntersection@ioMath@@SA_NABUD3DXVECTOR3@@00ABVioOrientBox@@AAHQAU2@@Z:PROC
EXTRN	?GetMidHeightByRate@ioGameEntity@@QBEMM@Z:PROC	; ioGameEntity::GetMidHeightByRate
EXTRN	__imp_?Transform@ioOrientBox@@QAEXPBUD3DXMATRIX@@@Z:PROC
EXTRN	_D3DXMatrixInverse@12:PROC
;	COMDAT __real@3f800000
CONST	SEGMENT
__real@3f800000 DD 03f800000r			; 1
CONST	ENDS
;	COMDAT __real@3feb333340000000
CONST	SEGMENT
__real@3feb333340000000 DQ 03feb333340000000r	; 0.85
CONST	ENDS
;	COMDAT __real@00000000
CONST	SEGMENT
__real@00000000 DD 000000000r			; 0
CONST	ENDS
;	COMDAT __real@4f800000
CONST	SEGMENT
__real@4f800000 DD 04f800000r			; 4.29497e+009
CONST	ENDS
;	COMDAT xdata$x
xdata$x	SEGMENT
__unwindtable$?ReCalculateMoveVectorByWorldMesh@ioMapCollisionHelper@@YA_NPAVioPlayEntity@@ABVioOrientBox@@PAVioOpcodeShape@@PBUD3DXMATRIX@@MABUD3DXVECTOR3@@_NPAU6@AA_N@Z DD 0ffffffffH
	DD	FLAT:__unwindfunclet$?ReCalculateMoveVectorByWorldMesh@ioMapCollisionHelper@@YA_NPAVioPlayEntity@@ABVioOrientBox@@PAVioOpcodeShape@@PBUD3DXMATRIX@@MABUD3DXVECTOR3@@_NPAU6@AA_N@Z$0
	DD	00H
	DD	FLAT:__unwindfunclet$?ReCalculateMoveVectorByWorldMesh@ioMapCollisionHelper@@YA_NPAVioPlayEntity@@ABVioOrientBox@@PAVioOpcodeShape@@PBUD3DXMATRIX@@MABUD3DXVECTOR3@@_NPAU6@AA_N@Z$1
__ehfuncinfo$?ReCalculateMoveVectorByWorldMesh@ioMapCollisionHelper@@YA_NPAVioPlayEntity@@ABVioOrientBox@@PAVioOpcodeShape@@PBUD3DXMATRIX@@MABUD3DXVECTOR3@@_NPAU6@AA_N@Z DD 019930522H
	DD	02H
	DD	FLAT:__unwindtable$?ReCalculateMoveVectorByWorldMesh@ioMapCollisionHelper@@YA_NPAVioPlayEntity@@ABVioOrientBox@@PAVioOpcodeShape@@PBUD3DXMATRIX@@MABUD3DXVECTOR3@@_NPAU6@AA_N@Z
	DD	2 DUP(00H)
	DD	2 DUP(00H)
	DD	00H
	DD	01H
; Function compile flags: /Ogsp
; File d:\lost saga for developer\youtube\tutorial\source\src\lsclient\iomapcollisionhelper.cpp
xdata$x	ENDS
;	COMDAT ?ReCalculateMoveVectorByWorldMesh@ioMapCollisionHelper@@YA_NPAVioPlayEntity@@ABVioOrientBox@@PAVioOpcodeShape@@PBUD3DXMATRIX@@MABUD3DXVECTOR3@@_NPAU6@AA_N@Z
_TEXT	SEGMENT
$T532010 = -308						; size = 12
_bCol$GSCopy$ = -296					; size = 4
_pMove$GSCopy$ = -292					; size = 4
_kMoveBox$GSCopy$ = -288				; size = 4
_pShapeWorldMat$GSCopy$ = -284				; size = 4
_iQuantity$531973 = -280				; size = 4
_fCharMidHeight$ = -276					; size = 4
tv1181 = -272						; size = 4
tv1177 = -272						; size = 4
_iSlidingNrmCount$531991 = -272				; size = 4
_vSlidingNrmList$ = -268				; size = 16
tv1250 = -252						; size = 4
_pEntity$GSCopy$ = -252					; size = 4
tv1173 = -248						; size = 4
_k$531992 = -248					; size = 4
_iFaceIndex$531968 = -248				; size = 4
_i$531964 = -244					; size = 4
_kCharInvBox$ = -240					; size = 68
_v3$531972 = -172					; size = 12
_v2$531971 = -160					; size = 12
_v1$531970 = -148					; size = 12
_vFaceNrm$531987 = -136					; size = 12
_vTotalNrm$ = -124					; size = 12
_akP$531974 = -112					; size = 96
_matInvModel$531956 = -80				; size = 64
__$EHRec$ = -12						; size = 12
_pEntity$ = 8						; size = 4
_kMoveBox$ = 12						; size = 4
_pShape$ = 16						; size = 4
_pShapeWorldMat$ = 20					; size = 4
_fInverseMapHeight$ = 24				; size = 4
_vMoveDir$ = 28						; size = 4
_bFloating$ = 32					; size = 1
_pMove$ = 36						; size = 4
_bCol$ = 40						; size = 4
?ReCalculateMoveVectorByWorldMesh@ioMapCollisionHelper@@YA_NPAVioPlayEntity@@ABVioOrientBox@@PAVioOpcodeShape@@PBUD3DXMATRIX@@MABUD3DXVECTOR3@@_NPAU6@AA_N@Z PROC ; ioMapCollisionHelper::ReCalculateMoveVectorByWorldMesh, COMDAT

; 261  : 	{

  00000	68 28 01 00 00	 push	 296			; 00000128H
  00005	b8 00 00 00 00	 mov	 eax, __ehhandler$?ReCalculateMoveVectorByWorldMesh@ioMapCollisionHelper@@YA_NPAVioPlayEntity@@ABVioOrientBox@@PAVioOpcodeShape@@PBUD3DXMATRIX@@MABUD3DXVECTOR3@@_NPAU6@AA_N@Z
  0000a	e8 00 00 00 00	 call	 __EH_prolog3_GS
  0000f	8b 4d 24	 mov	 ecx, DWORD PTR _pMove$[ebp]
  00012	8b 45 08	 mov	 eax, DWORD PTR _pEntity$[ebp]
  00015	8b 75 0c	 mov	 esi, DWORD PTR _kMoveBox$[ebp]
  00018	8b 5d 10	 mov	 ebx, DWORD PTR _pShape$[ebp]

; 288  : 		for( int i = 0 ; i < iColFaceCount ; ++i )

  0001b	89 8d dc fe ff
	ff		 mov	 DWORD PTR _pMove$GSCopy$[ebp], ecx
  00021	8b 4d 28	 mov	 ecx, DWORD PTR _bCol$[ebp]
  00024	89 8d d8 fe ff
	ff		 mov	 DWORD PTR _bCol$GSCopy$[ebp], ecx
  0002a	6a 11		 push	 17			; 00000011H
  0002c	89 85 04 ff ff
	ff		 mov	 DWORD PTR _pEntity$GSCopy$[ebp], eax
  00032	8b 45 14	 mov	 eax, DWORD PTR _pShapeWorldMat$[ebp]
  00035	59		 pop	 ecx
  00036	8d bd 10 ff ff
	ff		 lea	 edi, DWORD PTR _kCharInvBox$[ebp]
  0003c	89 b5 e0 fe ff
	ff		 mov	 DWORD PTR _kMoveBox$GSCopy$[ebp], esi
  00042	89 85 e4 fe ff
	ff		 mov	 DWORD PTR _pShapeWorldMat$GSCopy$[ebp], eax
  00048	f3 a5		 rep movsd
  0004a	33 f6		 xor	 esi, esi
  0004c	89 75 fc	 mov	 DWORD PTR __$EHRec$[ebp+8], esi
  0004f	3b c6		 cmp	 eax, esi
  00051	74 1b		 je	 SHORT $LN30@ReCalculat@3

; 262  : 
; 263  : 
; 264  : 		//ioOpcodeShape   
; 265  : 		ioOrientBox kCharInvBox = kMoveBox;
; 266  : 		if( pShapeWorldMat )
; 267  : 		{
; 268  : 			D3DXMATRIX matInvModel;
; 269  : 			D3DXMatrixInverse( &matInvModel, NULL, pShapeWorldMat );

  00053	50		 push	 eax
  00054	56		 push	 esi
  00055	8d 45 b0	 lea	 eax, DWORD PTR _matInvModel$531956[ebp]
  00058	50		 push	 eax
  00059	e8 00 00 00 00	 call	 _D3DXMatrixInverse@12

; 270  : 			kCharInvBox.Transform( &matInvModel );

  0005e	8d 45 b0	 lea	 eax, DWORD PTR _matInvModel$531956[ebp]
  00061	50		 push	 eax
  00062	8d 8d 10 ff ff
	ff		 lea	 ecx, DWORD PTR _kCharInvBox$[ebp]
  00068	ff 15 00 00 00
	00		 call	 DWORD PTR __imp_?Transform@ioOrientBox@@QAEXPBUD3DXMATRIX@@@Z
$LN30@ReCalculat@3:

; 271  : 		}
; 272  : 
; 273  : 		if( !pShape->FindIntersection( pShapeWorldMat, kMoveBox, NULL ) )

  0006e	8b 03		 mov	 eax, DWORD PTR [ebx]
  00070	56		 push	 esi
  00071	ff b5 e0 fe ff
	ff		 push	 DWORD PTR _kMoveBox$GSCopy$[ebp]
  00077	8b cb		 mov	 ecx, ebx
  00079	ff b5 e4 fe ff
	ff		 push	 DWORD PTR _pShapeWorldMat$GSCopy$[ebp]
  0007f	ff 50 30	 call	 DWORD PTR [eax+48]
  00082	84 c0		 test	 al, al
  00084	75 18		 jne	 SHORT $LN29@ReCalculat@3
$LN160@ReCalculat@3:

; 274  : 			return true;

  00086	83 4d fc ff	 or	 DWORD PTR __$EHRec$[ebp+8], -1
  0008a	8d 8d 10 ff ff
	ff		 lea	 ecx, DWORD PTR _kCharInvBox$[ebp]
  00090	ff 15 00 00 00
	00		 call	 DWORD PTR __imp_??1ioOrientBox@@QAE@XZ
  00096	b0 01		 mov	 al, 1
$LN31@ReCalculat@3:

; 369  : 			return false;
; 370  : 
; 371  : 		return true;
; 372  : 	}

  00098	e8 00 00 00 00	 call	 __EH_epilog3_GS
  0009d	c3		 ret	 0
$LN29@ReCalculat@3:

; 275  : 
; 276  : 		const IntVec &rkColFaceList = pShape->GetFindIntersectionFaceList();

  0009e	8b 03		 mov	 eax, DWORD PTR [ebx]
  000a0	8b cb		 mov	 ecx, ebx
  000a2	ff 50 40	 call	 DWORD PTR [eax+64]
  000a5	8b f8		 mov	 edi, eax

; 277  : 
; 278  : 		Vector3Vec vSlidingNrmList;

  000a7	89 b5 f4 fe ff
	ff		 mov	 DWORD PTR _vSlidingNrmList$[ebp], esi
  000ad	89 b5 f8 fe ff
	ff		 mov	 DWORD PTR _vSlidingNrmList$[ebp+4], esi
  000b3	89 b5 fc fe ff
	ff		 mov	 DWORD PTR _vSlidingNrmList$[ebp+8], esi

; 279  : 		vSlidingNrmList.reserve( rkColFaceList.size() );

  000b9	8b 47 04	 mov	 eax, DWORD PTR [edi+4]
  000bc	2b 07		 sub	 eax, DWORD PTR [edi]
  000be	8d 8d f4 fe ff
	ff		 lea	 ecx, DWORD PTR _vSlidingNrmList$[ebp]
  000c4	c1 f8 02	 sar	 eax, 2
  000c7	50		 push	 eax
  000c8	c6 45 fc 01	 mov	 BYTE PTR __$EHRec$[ebp+8], 1
  000cc	e8 00 00 00 00	 call	 ?reserve@?$vector@UD3DXVECTOR3@@V?$allocator@UD3DXVECTOR3@@@std@@@std@@QAEXI@Z ; std::vector<D3DXVECTOR3,std::allocator<D3DXVECTOR3> >::reserve

; 280  : 
; 281  : 		float fCharMidHeight = pEntity->GetMidHeightByRate();

  000d1	b8 05 00 00 00	 mov	 eax, 5
  000d6	8b c8		 mov	 ecx, eax
  000d8	b8 0a 00 00 00	 mov	 eax, 10			; 0000000aH
  000dd	89 8d f0 fe ff
	ff		 mov	 DWORD PTR tv1181[ebp], ecx
  000e3	db 85 f0 fe ff
	ff		 fild	 DWORD PTR tv1181[ebp]
  000e9	85 c9		 test	 ecx, ecx
  000eb	79 06		 jns	 SHORT $LN155@ReCalculat@3
  000ed	d8 05 00 00 00
	00		 fadd	 DWORD PTR __real@4f800000
$LN155@ReCalculat@3:
  000f3	89 85 f0 fe ff
	ff		 mov	 DWORD PTR tv1177[ebp], eax
  000f9	db 85 f0 fe ff
	ff		 fild	 DWORD PTR tv1177[ebp]
  000ff	85 c0		 test	 eax, eax
  00101	79 06		 jns	 SHORT $LN156@ReCalculat@3
  00103	d8 05 00 00 00
	00		 fadd	 DWORD PTR __real@4f800000
$LN156@ReCalculat@3:
  00109	de f9		 fdivp	 ST(1), ST(0)
  0010b	51		 push	 ecx
  0010c	8b 8d 04 ff ff
	ff		 mov	 ecx, DWORD PTR _pEntity$GSCopy$[ebp]
  00112	d9 9d 08 ff ff
	ff		 fstp	 DWORD PTR tv1173[ebp]
  00118	d9 85 08 ff ff
	ff		 fld	 DWORD PTR tv1173[ebp]
  0011e	d9 1c 24	 fstp	 DWORD PTR [esp]
  00121	e8 00 00 00 00	 call	 ?GetMidHeightByRate@ioGameEntity@@QBEMM@Z ; ioGameEntity::GetMidHeightByRate
  00126	d9 9d ec fe ff
	ff		 fstp	 DWORD PTR _fCharMidHeight$[ebp]

; 282  : 
; 283  : 		//     
; 284  : 		if( fInverseMapHeight != 0.0f )

  0012c	f3 0f 10 45 18	 movss	 xmm0, DWORD PTR _fInverseMapHeight$[ebp]
  00131	0f 2e 05 00 00
	00 00		 ucomiss xmm0, DWORD PTR __real@00000000
  00138	9f		 lahf
  00139	f6 c4 44	 test	 ah, 68			; 00000044H
  0013c	7b 21		 jnp	 SHORT $LN28@ReCalculat@3

; 285  : 			fCharMidHeight -= fInverseMapHeight;

  0013e	f3 0f 10 8d ec
	fe ff ff	 movss	 xmm1, DWORD PTR _fCharMidHeight$[ebp]
  00146	0f 5a c0	 cvtps2pd xmm0, xmm0
  00149	0f 5a c9	 cvtps2pd xmm1, xmm1
  0014c	f2 0f 5c c8	 subsd	 xmm1, xmm0
  00150	0f 57 c0	 xorps	 xmm0, xmm0
  00153	66 0f 5a c1	 cvtpd2ps xmm0, xmm1
  00157	f3 0f 11 85 ec
	fe ff ff	 movss	 DWORD PTR _fCharMidHeight$[ebp], xmm0
$LN28@ReCalculat@3:

; 286  : 
; 287  : 		int iColFaceCount = rkColFaceList.size();

  0015f	8b 77 04	 mov	 esi, DWORD PTR [edi+4]
  00162	2b 37		 sub	 esi, DWORD PTR [edi]

; 288  : 		for( int i = 0 ; i < iColFaceCount ; ++i )

  00164	83 a5 0c ff ff
	ff 00		 and	 DWORD PTR _i$531964[ebp], 0
  0016b	c1 fe 02	 sar	 esi, 2
  0016e	85 f6		 test	 esi, esi
  00170	0f 8e 2a 02 00
	00		 jle	 $LN25@ReCalculat@3
$LN27@ReCalculat@3:

; 289  : 		{
; 290  : 			int iFaceIndex = rkColFaceList[i];
; 291  : 
; 292  : 			if( !bFloating )

  00176	80 7d 20 00	 cmp	 BYTE PTR _bFloating$[ebp], 0
  0017a	8b 07		 mov	 eax, DWORD PTR [edi]
  0017c	8b 8d 0c ff ff
	ff		 mov	 ecx, DWORD PTR _i$531964[ebp]
  00182	8b 04 88	 mov	 eax, DWORD PTR [eax+ecx*4]
  00185	89 85 08 ff ff
	ff		 mov	 DWORD PTR _iFaceIndex$531968[ebp], eax
  0018b	0f 85 a0 00 00
	00		 jne	 $LN138@ReCalculat@3

; 293  : 			{
; 294  : 				D3DXVECTOR3 v1, v2, v3;
; 295  : 				pShape->GetTriVertexInModelSpace( iFaceIndex, v1, v2, v3 );

  00191	8b 13		 mov	 edx, DWORD PTR [ebx]
  00193	8d 8d 54 ff ff
	ff		 lea	 ecx, DWORD PTR _v3$531972[ebp]
  00199	51		 push	 ecx
  0019a	8d 8d 60 ff ff
	ff		 lea	 ecx, DWORD PTR _v2$531971[ebp]
  001a0	51		 push	 ecx
  001a1	8d 8d 6c ff ff
	ff		 lea	 ecx, DWORD PTR _v1$531970[ebp]
  001a7	51		 push	 ecx
  001a8	50		 push	 eax
  001a9	8b cb		 mov	 ecx, ebx
  001ab	ff 52 34	 call	 DWORD PTR [edx+52]

; 296  : 
; 297  : 				int iQuantity;
; 298  : 				D3DXVECTOR3 akP[8];
; 299  : 				if( pShapeWorldMat )

  001ae	83 bd e4 fe ff
	ff 00		 cmp	 DWORD PTR _pShapeWorldMat$GSCopy$[ebp], 0

; 300  : 				{
; 301  : 					if( !ioMath::FindIntersection( v1, v2, v3, kCharInvBox, iQuantity, akP ) )

  001b5	8d 45 90	 lea	 eax, DWORD PTR _akP$531974[ebp]
  001b8	50		 push	 eax
  001b9	8d 85 e8 fe ff
	ff		 lea	 eax, DWORD PTR _iQuantity$531973[ebp]
  001bf	50		 push	 eax
  001c0	74 09		 je	 SHORT $LN23@ReCalculat@3
  001c2	8d 85 10 ff ff
	ff		 lea	 eax, DWORD PTR _kCharInvBox$[ebp]
  001c8	50		 push	 eax

; 302  : 						continue;
; 303  : 				}
; 304  : 				else

  001c9	eb 06		 jmp	 SHORT $LN157@ReCalculat@3
$LN23@ReCalculat@3:

; 305  : 				{
; 306  : 					if( !ioMath::FindIntersection( v1, v2, v3, kMoveBox, iQuantity, akP ) )

  001cb	ff b5 e0 fe ff
	ff		 push	 DWORD PTR _kMoveBox$GSCopy$[ebp]
$LN157@ReCalculat@3:
  001d1	8d 85 54 ff ff
	ff		 lea	 eax, DWORD PTR _v3$531972[ebp]
  001d7	50		 push	 eax
  001d8	8d 85 60 ff ff
	ff		 lea	 eax, DWORD PTR _v2$531971[ebp]
  001de	50		 push	 eax
  001df	8d 85 6c ff ff
	ff		 lea	 eax, DWORD PTR _v1$531970[ebp]
  001e5	50		 push	 eax
  001e6	ff 15 00 00 00
	00		 call	 DWORD PTR __imp_?FindIntersection@ioMath@@SA_NABUD3DXVECTOR3@@00ABVioOrientBox@@AAHQAU2@@Z
  001ec	83 c4 18	 add	 esp, 24			; 00000018H
  001ef	84 c0		 test	 al, al
  001f1	0f 84 97 01 00
	00		 je	 $LN26@ReCalculat@3

; 307  : 						continue;
; 308  : 				}
; 309  : 
; 310  : 				bool bSkipCheck = true;
; 311  : 				for( int j = 0 ; j < iQuantity ; ++j )

  001f7	33 c9		 xor	 ecx, ecx
  001f9	39 8d e8 fe ff
	ff		 cmp	 DWORD PTR _iQuantity$531973[ebp], ecx
  001ff	0f 8e 89 01 00
	00		 jle	 $LN26@ReCalculat@3
  00205	8d 45 94	 lea	 eax, DWORD PTR _akP$531974[ebp+4]
$LL19@ReCalculat@3:

; 312  : 				{
; 313  : 					if( akP[j].y >= fCharMidHeight )

  00208	f3 0f 10 00	 movss	 xmm0, DWORD PTR [eax]
  0020c	f3 0f 10 8d ec
	fe ff ff	 movss	 xmm1, DWORD PTR _fCharMidHeight$[ebp]
  00214	0f 5a c0	 cvtps2pd xmm0, xmm0
  00217	0f 5a c9	 cvtps2pd xmm1, xmm1
  0021a	66 0f 2f c1	 comisd	 xmm0, xmm1
  0021e	73 11		 jae	 SHORT $LN138@ReCalculat@3

; 307  : 						continue;
; 308  : 				}
; 309  : 
; 310  : 				bool bSkipCheck = true;
; 311  : 				for( int j = 0 ; j < iQuantity ; ++j )

  00220	41		 inc	 ecx
  00221	83 c0 0c	 add	 eax, 12			; 0000000cH
  00224	3b 8d e8 fe ff
	ff		 cmp	 ecx, DWORD PTR _iQuantity$531973[ebp]
  0022a	7c dc		 jl	 SHORT $LL19@ReCalculat@3

; 335  : 			{
; 336  : 				if( ioMath::IsEqual( vFaceNrm, vSlidingNrmList[k] ) )	//    

  0022c	e9 5d 01 00 00	 jmp	 $LN26@ReCalculat@3
$LN138@ReCalculat@3:

; 314  : 					{
; 315  : 						bSkipCheck = false;
; 316  : 						break;
; 317  : 					}
; 318  : 				}
; 319  : 
; 320  : 				if( bSkipCheck )
; 321  : 					continue;
; 322  : 			}
; 323  : 
; 324  : 			D3DXVECTOR3 vFaceNrm;
; 325  : 			pShape->GetTriNormalInModelSpace( iFaceIndex, vFaceNrm );

  00231	8b 03		 mov	 eax, DWORD PTR [ebx]
  00233	8d 8d 78 ff ff
	ff		 lea	 ecx, DWORD PTR _vFaceNrm$531987[ebp]
  00239	51		 push	 ecx
  0023a	ff b5 08 ff ff
	ff		 push	 DWORD PTR _iFaceIndex$531968[ebp]
  00240	8b cb		 mov	 ecx, ebx
  00242	ff 50 38	 call	 DWORD PTR [eax+56]

; 326  : 			if( D3DXVec3Dot( &vFaceNrm, &ioMath::UNIT_Y ) > 0.85f )	// 

  00245	a1 00 00 00 00	 mov	 eax, DWORD PTR __imp_?UNIT_Y@ioMath@@2UD3DXVECTOR3@@A
  0024a	f3 0f 10 8d 7c
	ff ff ff	 movss	 xmm1, DWORD PTR _vFaceNrm$531987[ebp+4]
  00252	f3 0f 10 40 04	 movss	 xmm0, DWORD PTR [eax+4]
  00257	f3 0f 10 10	 movss	 xmm2, DWORD PTR [eax]
  0025b	0f 5a c9	 cvtps2pd xmm1, xmm1
  0025e	0f 5a c0	 cvtps2pd xmm0, xmm0
  00261	f2 0f 59 c1	 mulsd	 xmm0, xmm1
  00265	f3 0f 10 8d 78
	ff ff ff	 movss	 xmm1, DWORD PTR _vFaceNrm$531987[ebp]
  0026d	0f 5a c9	 cvtps2pd xmm1, xmm1
  00270	0f 5a d2	 cvtps2pd xmm2, xmm2
  00273	f2 0f 59 ca	 mulsd	 xmm1, xmm2
  00277	f3 0f 10 55 80	 movss	 xmm2, DWORD PTR _vFaceNrm$531987[ebp+8]
  0027c	f2 0f 58 c1	 addsd	 xmm0, xmm1
  00280	f3 0f 10 48 08	 movss	 xmm1, DWORD PTR [eax+8]
  00285	0f 5a c9	 cvtps2pd xmm1, xmm1
  00288	0f 5a d2	 cvtps2pd xmm2, xmm2
  0028b	f2 0f 59 ca	 mulsd	 xmm1, xmm2
  0028f	f2 0f 58 c1	 addsd	 xmm0, xmm1
  00293	66 0f 5a c0	 cvtpd2ps xmm0, xmm0
  00297	f3 0f 5a c0	 cvtss2sd xmm0, xmm0
  0029b	66 0f 2f 05 00
	00 00 00	 comisd	 xmm0, QWORD PTR __real@3feb333340000000
  002a3	0f 87 e5 00 00
	00		 ja	 $LN26@ReCalculat@3

; 327  : 				continue;
; 328  : 
; 329  : 			if( D3DXVec3Dot( &vFaceNrm, &vMoveDir ) > 0.0f )

  002a9	8b 45 1c	 mov	 eax, DWORD PTR _vMoveDir$[ebp]
  002ac	f3 0f 10 40 04	 movss	 xmm0, DWORD PTR [eax+4]
  002b1	f3 0f 10 8d 7c
	ff ff ff	 movss	 xmm1, DWORD PTR _vFaceNrm$531987[ebp+4]
  002b9	f3 0f 10 95 78
	ff ff ff	 movss	 xmm2, DWORD PTR _vFaceNrm$531987[ebp]
  002c1	0f 5a c9	 cvtps2pd xmm1, xmm1
  002c4	0f 5a c0	 cvtps2pd xmm0, xmm0
  002c7	f2 0f 59 c1	 mulsd	 xmm0, xmm1
  002cb	f3 0f 10 08	 movss	 xmm1, DWORD PTR [eax]
  002cf	0f 5a c9	 cvtps2pd xmm1, xmm1
  002d2	0f 5a d2	 cvtps2pd xmm2, xmm2
  002d5	f2 0f 59 ca	 mulsd	 xmm1, xmm2
  002d9	f3 0f 10 55 80	 movss	 xmm2, DWORD PTR _vFaceNrm$531987[ebp+8]
  002de	f2 0f 58 c1	 addsd	 xmm0, xmm1
  002e2	f3 0f 10 48 08	 movss	 xmm1, DWORD PTR [eax+8]
  002e7	0f 5a c9	 cvtps2pd xmm1, xmm1
  002ea	0f 5a d2	 cvtps2pd xmm2, xmm2
  002ed	f2 0f 59 ca	 mulsd	 xmm1, xmm2
  002f1	f2 0f 58 c1	 addsd	 xmm0, xmm1
  002f5	66 0f 5a c0	 cvtpd2ps xmm0, xmm0
  002f9	0f 2f 05 00 00
	00 00		 comiss	 xmm0, DWORD PTR __real@00000000
  00300	0f 87 88 00 00
	00		 ja	 $LN26@ReCalculat@3

; 330  : 				continue;
; 331  : 
; 332  : 			bool bExistFaceNrm = false;
; 333  : 			int iSlidingNrmCount = vSlidingNrmList.size();

  00306	8b 85 f8 fe ff
	ff		 mov	 eax, DWORD PTR _vSlidingNrmList$[ebp+4]
  0030c	2b 85 f4 fe ff
	ff		 sub	 eax, DWORD PTR _vSlidingNrmList$[ebp]
  00312	6a 0c		 push	 12			; 0000000cH
  00314	99		 cdq
  00315	59		 pop	 ecx
  00316	f7 f9		 idiv	 ecx

; 334  : 			for( int k = 0 ; k < iSlidingNrmCount ; ++k )

  00318	83 a5 08 ff ff
	ff 00		 and	 DWORD PTR _k$531992[ebp], 0
  0031f	89 85 f0 fe ff
	ff		 mov	 DWORD PTR _iSlidingNrmCount$531991[ebp], eax
  00325	85 c0		 test	 eax, eax
  00327	7e 53		 jle	 SHORT $LN145@ReCalculat@3

; 330  : 				continue;
; 331  : 
; 332  : 			bool bExistFaceNrm = false;
; 333  : 			int iSlidingNrmCount = vSlidingNrmList.size();

  00329	83 a5 04 ff ff
	ff 00		 and	 DWORD PTR tv1250[ebp], 0
$LN12@ReCalculat@3:

; 335  : 			{
; 336  : 				if( ioMath::IsEqual( vFaceNrm, vSlidingNrmList[k] ) )	//    

  00330	8b 8d 04 ff ff
	ff		 mov	 ecx, DWORD PTR tv1250[ebp]
  00336	8b 85 f4 fe ff
	ff		 mov	 eax, DWORD PTR _vSlidingNrmList$[ebp]
  0033c	f3 0f 10 05 00
	00 00 00	 movss	 xmm0, DWORD PTR __real@38d1b717
  00344	51		 push	 ecx
  00345	03 c1		 add	 eax, ecx
  00347	f3 0f 11 04 24	 movss	 DWORD PTR [esp], xmm0
  0034c	50		 push	 eax
  0034d	8d 85 78 ff ff
	ff		 lea	 eax, DWORD PTR _vFaceNrm$531987[ebp]
  00353	50		 push	 eax
  00354	ff 15 00 00 00
	00		 call	 DWORD PTR __imp_?IsEqual@ioMath@@SA_NABUD3DXVECTOR3@@0M@Z
  0035a	83 c4 0c	 add	 esp, 12			; 0000000cH
  0035d	84 c0		 test	 al, al
  0035f	75 2d		 jne	 SHORT $LN26@ReCalculat@3

; 334  : 			for( int k = 0 ; k < iSlidingNrmCount ; ++k )

  00361	ff 85 08 ff ff
	ff		 inc	 DWORD PTR _k$531992[ebp]
  00367	8b 85 08 ff ff
	ff		 mov	 eax, DWORD PTR _k$531992[ebp]
  0036d	83 85 04 ff ff
	ff 0c		 add	 DWORD PTR tv1250[ebp], 12 ; 0000000cH
  00374	3b 85 f0 fe ff
	ff		 cmp	 eax, DWORD PTR _iSlidingNrmCount$531991[ebp]
  0037a	7c b4		 jl	 SHORT $LN12@ReCalculat@3
$LN145@ReCalculat@3:

; 337  : 				{
; 338  : 					bExistFaceNrm = true;
; 339  : 					break;
; 340  : 				}
; 341  : 			}
; 342  : 
; 343  : 			if( !bExistFaceNrm )
; 344  : 			{
; 345  : 				vSlidingNrmList.push_back( vFaceNrm );

  0037c	8d 85 78 ff ff
	ff		 lea	 eax, DWORD PTR _vFaceNrm$531987[ebp]
  00382	50		 push	 eax
  00383	8d 8d f4 fe ff
	ff		 lea	 ecx, DWORD PTR _vSlidingNrmList$[ebp]
  00389	e8 00 00 00 00	 call	 ?push_back@?$vector@UD3DXVECTOR3@@V?$allocator@UD3DXVECTOR3@@@std@@@std@@QAEXABUD3DXVECTOR3@@@Z ; std::vector<D3DXVECTOR3,std::allocator<D3DXVECTOR3> >::push_back
$LN26@ReCalculat@3:

; 288  : 		for( int i = 0 ; i < iColFaceCount ; ++i )

  0038e	ff 85 0c ff ff
	ff		 inc	 DWORD PTR _i$531964[ebp]
  00394	39 b5 0c ff ff
	ff		 cmp	 DWORD PTR _i$531964[ebp], esi
  0039a	0f 8c d6 fd ff
	ff		 jl	 $LN27@ReCalculat@3
$LN25@ReCalculat@3:

; 346  : 			}
; 347  : 		}
; 348  : 
; 349  : 		// Sliding Vector....
; 350  : 		if( vSlidingNrmList.empty() )

  003a0	8b 8d f4 fe ff
	ff		 mov	 ecx, DWORD PTR _vSlidingNrmList$[ebp]
  003a6	8b 85 f8 fe ff
	ff		 mov	 eax, DWORD PTR _vSlidingNrmList$[ebp+4]
  003ac	3b c8		 cmp	 ecx, eax
  003ae	75 14		 jne	 SHORT $LN7@ReCalculat@3

; 351  : 			return true;

  003b0	8d 8d f4 fe ff
	ff		 lea	 ecx, DWORD PTR _vSlidingNrmList$[ebp]
  003b6	c6 45 fc 00	 mov	 BYTE PTR __$EHRec$[ebp+8], 0
  003ba	e8 00 00 00 00	 call	 ?_Tidy@?$vector@UD3DXVECTOR3@@V?$allocator@UD3DXVECTOR3@@@std@@@std@@IAEXXZ ; std::vector<D3DXVECTOR3,std::allocator<D3DXVECTOR3> >::_Tidy
  003bf	e9 c2 fc ff ff	 jmp	 $LN160@ReCalculat@3
$LN7@ReCalculat@3:

; 352  : 
; 353  : 		bCol = true;

  003c4	8b 95 d8 fe ff
	ff		 mov	 edx, DWORD PTR _bCol$GSCopy$[ebp]
  003ca	c6 02 01	 mov	 BYTE PTR [edx], 1

; 354  : 		D3DXVECTOR3 vTotalNrm = vSlidingNrmList.front();

  003cd	8b f1		 mov	 esi, ecx
  003cf	8d 7d 84	 lea	 edi, DWORD PTR _vTotalNrm$[ebp]
  003d2	a5		 movsd
  003d3	a5		 movsd
  003d4	a5		 movsd

; 355  : 		for( i = 1; i < (int)vSlidingNrmList.size(); ++i )

  003d5	2b c1		 sub	 eax, ecx
  003d7	6a 0c		 push	 12			; 0000000cH
  003d9	5f		 pop	 edi
  003da	99		 cdq
  003db	8b df		 mov	 ebx, edi
  003dd	f7 fb		 idiv	 ebx
  003df	33 f6		 xor	 esi, esi
  003e1	46		 inc	 esi
  003e2	89 b5 0c ff ff
	ff		 mov	 DWORD PTR _i$531964[ebp], esi
  003e8	3b c6		 cmp	 eax, esi
  003ea	0f 8e 8c 00 00
	00		 jle	 $LN4@ReCalculat@3

; 352  : 
; 353  : 		bCol = true;

  003f0	8b f7		 mov	 esi, edi
$LL6@ReCalculat@3:

; 356  : 		{
; 357  : 			vTotalNrm += vSlidingNrmList[i];

  003f2	f3 0f 10 4d 84	 movss	 xmm1, DWORD PTR _vTotalNrm$[ebp]
  003f7	8d 04 0e	 lea	 eax, DWORD PTR [esi+ecx]
  003fa	f3 0f 10 00	 movss	 xmm0, DWORD PTR [eax]
  003fe	0f 5a c0	 cvtps2pd xmm0, xmm0
  00401	0f 5a c9	 cvtps2pd xmm1, xmm1
  00404	f2 0f 58 c1	 addsd	 xmm0, xmm1
  00408	f3 0f 10 4d 88	 movss	 xmm1, DWORD PTR _vTotalNrm$[ebp+4]
  0040d	66 0f 5a c0	 cvtpd2ps xmm0, xmm0
  00411	f3 0f 11 45 84	 movss	 DWORD PTR _vTotalNrm$[ebp], xmm0
  00416	f3 0f 10 40 04	 movss	 xmm0, DWORD PTR [eax+4]
  0041b	0f 5a c0	 cvtps2pd xmm0, xmm0
  0041e	0f 5a c9	 cvtps2pd xmm1, xmm1
  00421	f2 0f 58 c1	 addsd	 xmm0, xmm1
  00425	f3 0f 10 4d 8c	 movss	 xmm1, DWORD PTR _vTotalNrm$[ebp+8]
  0042a	66 0f 5a c0	 cvtpd2ps xmm0, xmm0
  0042e	f3 0f 11 45 88	 movss	 DWORD PTR _vTotalNrm$[ebp+4], xmm0
  00433	f3 0f 10 40 08	 movss	 xmm0, DWORD PTR [eax+8]

; 358  : 			D3DXVec3Normalize( &vTotalNrm, &vTotalNrm );

  00438	8d 45 84	 lea	 eax, DWORD PTR _vTotalNrm$[ebp]
  0043b	0f 5a c0	 cvtps2pd xmm0, xmm0
  0043e	0f 5a c9	 cvtps2pd xmm1, xmm1
  00441	50		 push	 eax
  00442	f2 0f 58 c1	 addsd	 xmm0, xmm1
  00446	66 0f 5a c0	 cvtpd2ps xmm0, xmm0
  0044a	50		 push	 eax
  0044b	f3 0f 11 45 8c	 movss	 DWORD PTR _vTotalNrm$[ebp+8], xmm0
  00450	e8 00 00 00 00	 call	 _D3DXVec3Normalize@8
  00455	8b 85 f8 fe ff
	ff		 mov	 eax, DWORD PTR _vSlidingNrmList$[ebp+4]
  0045b	8b 8d f4 fe ff
	ff		 mov	 ecx, DWORD PTR _vSlidingNrmList$[ebp]
  00461	2b c1		 sub	 eax, ecx
  00463	99		 cdq
  00464	8b df		 mov	 ebx, edi
  00466	f7 fb		 idiv	 ebx
  00468	ff 85 0c ff ff
	ff		 inc	 DWORD PTR _i$531964[ebp]
  0046e	03 f7		 add	 esi, edi
  00470	39 85 0c ff ff
	ff		 cmp	 DWORD PTR _i$531964[ebp], eax
  00476	0f 8c 76 ff ff
	ff		 jl	 $LL6@ReCalculat@3
$LN4@ReCalculat@3:

; 359  : 		}
; 360  : 
; 361  : 		if( D3DXVec3Dot( &vMoveDir, &vTotalNrm ) >= 0.0f )

  0047c	8b 45 1c	 mov	 eax, DWORD PTR _vMoveDir$[ebp]
  0047f	f3 0f 10 40 04	 movss	 xmm0, DWORD PTR [eax+4]
  00484	f3 0f 10 4d 88	 movss	 xmm1, DWORD PTR _vTotalNrm$[ebp+4]
  00489	f3 0f 10 55 84	 movss	 xmm2, DWORD PTR _vTotalNrm$[ebp]
  0048e	0f 5a c9	 cvtps2pd xmm1, xmm1
  00491	0f 5a c0	 cvtps2pd xmm0, xmm0
  00494	f2 0f 59 c1	 mulsd	 xmm0, xmm1
  00498	f3 0f 10 08	 movss	 xmm1, DWORD PTR [eax]
  0049c	0f 5a c9	 cvtps2pd xmm1, xmm1
  0049f	0f 5a d2	 cvtps2pd xmm2, xmm2
  004a2	f2 0f 59 ca	 mulsd	 xmm1, xmm2
  004a6	f3 0f 10 55 8c	 movss	 xmm2, DWORD PTR _vTotalNrm$[ebp+8]
  004ab	f2 0f 58 c1	 addsd	 xmm0, xmm1
  004af	f3 0f 10 48 08	 movss	 xmm1, DWORD PTR [eax+8]
  004b4	0f 5a c9	 cvtps2pd xmm1, xmm1
  004b7	0f 5a d2	 cvtps2pd xmm2, xmm2
  004ba	f2 0f 59 ca	 mulsd	 xmm1, xmm2
  004be	f2 0f 58 c1	 addsd	 xmm0, xmm1
  004c2	66 0f 5a c0	 cvtpd2ps xmm0, xmm0
  004c6	0f 2f 05 00 00
	00 00		 comiss	 xmm0, DWORD PTR __real@00000000
  004cd	72 28		 jb	 SHORT $LN3@ReCalculat@3
$LN159@ReCalculat@3:
  004cf	b3 01		 mov	 bl, 1
$LN146@ReCalculat@3:

; 362  : 			return true;

  004d1	8d 8d f4 fe ff
	ff		 lea	 ecx, DWORD PTR _vSlidingNrmList$[ebp]
  004d7	c6 45 fc 00	 mov	 BYTE PTR __$EHRec$[ebp+8], 0
  004db	e8 00 00 00 00	 call	 ?_Tidy@?$vector@UD3DXVECTOR3@@V?$allocator@UD3DXVECTOR3@@@std@@@std@@IAEXXZ ; std::vector<D3DXVECTOR3,std::allocator<D3DXVECTOR3> >::_Tidy
  004e0	83 4d fc ff	 or	 DWORD PTR __$EHRec$[ebp+8], -1
  004e4	8d 8d 10 ff ff
	ff		 lea	 ecx, DWORD PTR _kCharInvBox$[ebp]
  004ea	ff 15 00 00 00
	00		 call	 DWORD PTR __imp_??1ioOrientBox@@QAE@XZ
  004f0	8a c3		 mov	 al, bl
  004f2	e9 a1 fb ff ff	 jmp	 $LN31@ReCalculat@3
$LN3@ReCalculat@3:

; 363  : 
; 364  : 		if( bFloating )

  004f7	80 7d 20 00	 cmp	 BYTE PTR _bFloating$[ebp], 0
  004fb	74 04		 je	 SHORT $LN2@ReCalculat@3
$LN158@ReCalculat@3:
  004fd	32 db		 xor	 bl, bl
  004ff	eb d0		 jmp	 SHORT $LN146@ReCalculat@3
$LN2@ReCalculat@3:

; 365  : 			return false;
; 366  : 
; 367  : 		*pMove = *pMove - D3DXVec3Dot( pMove, &vTotalNrm ) * vTotalNrm;

  00501	8b 85 dc fe ff
	ff		 mov	 eax, DWORD PTR _pMove$GSCopy$[ebp]
  00507	f3 0f 10 10	 movss	 xmm2, DWORD PTR [eax]
  0050b	f3 0f 10 48 04	 movss	 xmm1, DWORD PTR [eax+4]
  00510	f3 0f 10 45 88	 movss	 xmm0, DWORD PTR _vTotalNrm$[ebp+4]
  00515	f3 0f 10 58 08	 movss	 xmm3, DWORD PTR [eax+8]
  0051a	0f 5a e1	 cvtps2pd xmm4, xmm1
  0051d	0f 5a ea	 cvtps2pd xmm5, xmm2
  00520	0f 5a c0	 cvtps2pd xmm0, xmm0
  00523	f2 0f 59 c4	 mulsd	 xmm0, xmm4
  00527	f3 0f 10 65 84	 movss	 xmm4, DWORD PTR _vTotalNrm$[ebp]
  0052c	0f 5a e4	 cvtps2pd xmm4, xmm4
  0052f	f2 0f 59 e5	 mulsd	 xmm4, xmm5
  00533	f2 0f 58 c4	 addsd	 xmm0, xmm4
  00537	f3 0f 10 65 8c	 movss	 xmm4, DWORD PTR _vTotalNrm$[ebp+8]
  0053c	0f 5a eb	 cvtps2pd xmm5, xmm3
  0053f	0f 5a e4	 cvtps2pd xmm4, xmm4
  00542	f2 0f 59 e5	 mulsd	 xmm4, xmm5
  00546	f3 0f 10 6d 84	 movss	 xmm5, DWORD PTR _vTotalNrm$[ebp]
  0054b	f2 0f 58 c4	 addsd	 xmm0, xmm4
  0054f	f2 0f 5a c0	 cvtsd2ss xmm0, xmm0
  00553	0f 57 f6	 xorps	 xmm6, xmm6
  00556	f3 0f 5a f0	 cvtss2sd xmm6, xmm0
  0055a	0f 5a ed	 cvtps2pd xmm5, xmm5
  0055d	0f 57 e4	 xorps	 xmm4, xmm4
  00560	f3 0f 5a e0	 cvtss2sd xmm4, xmm0
  00564	f3 0f 5a c0	 cvtss2sd xmm0, xmm0
  00568	f2 0f 59 e5	 mulsd	 xmm4, xmm5
  0056c	f3 0f 10 6d 88	 movss	 xmm5, DWORD PTR _vTotalNrm$[ebp+4]
  00571	0f 5a ed	 cvtps2pd xmm5, xmm5
  00574	f2 0f 59 ee	 mulsd	 xmm5, xmm6
  00578	f3 0f 10 75 8c	 movss	 xmm6, DWORD PTR _vTotalNrm$[ebp+8]
  0057d	0f 5a f6	 cvtps2pd xmm6, xmm6
  00580	f2 0f 59 f0	 mulsd	 xmm6, xmm0
  00584	0f 5a c2	 cvtps2pd xmm0, xmm2
  00587	0f 57 d2	 xorps	 xmm2, xmm2
  0058a	66 0f 5a e4	 cvtpd2ps xmm4, xmm4
  0058e	f3 0f 5a d4	 cvtss2sd xmm2, xmm4
  00592	f2 0f 5c c2	 subsd	 xmm0, xmm2
  00596	0f 57 d2	 xorps	 xmm2, xmm2
  00599	0f 5a c9	 cvtps2pd xmm1, xmm1
  0059c	f2 0f 5a ed	 cvtsd2ss xmm5, xmm5
  005a0	f3 0f 5a d5	 cvtss2sd xmm2, xmm5
  005a4	f2 0f 5c ca	 subsd	 xmm1, xmm2
  005a8	66 0f 5a c9	 cvtpd2ps xmm1, xmm1
  005ac	f3 0f 11 8d d0
	fe ff ff	 movss	 DWORD PTR $T532010[ebp+4], xmm1
  005b4	66 0f 5a c0	 cvtpd2ps xmm0, xmm0
  005b8	f3 0f 11 85 cc
	fe ff ff	 movss	 DWORD PTR $T532010[ebp], xmm0
  005c0	0f 5a d3	 cvtps2pd xmm2, xmm3
  005c3	f2 0f 5a f6	 cvtsd2ss xmm6, xmm6
  005c7	0f 57 db	 xorps	 xmm3, xmm3
  005ca	f3 0f 5a de	 cvtss2sd xmm3, xmm6
  005ce	f2 0f 5c d3	 subsd	 xmm2, xmm3
  005d2	66 0f 5a d2	 cvtpd2ps xmm2, xmm2
  005d6	f3 0f 11 95 d4
	fe ff ff	 movss	 DWORD PTR $T532010[ebp+8], xmm2
  005de	8d b5 cc fe ff
	ff		 lea	 esi, DWORD PTR $T532010[ebp]
  005e4	8b f8		 mov	 edi, eax
  005e6	a5		 movsd
  005e7	a5		 movsd
  005e8	a5		 movsd

; 368  : 		if( D3DXVec3LengthSq( pMove ) < 1.0f )

  005e9	f3 0f 10 40 04	 movss	 xmm0, DWORD PTR [eax+4]
  005ee	f3 0f 10 08	 movss	 xmm1, DWORD PTR [eax]
  005f2	f3 0f 10 50 08	 movss	 xmm2, DWORD PTR [eax+8]
  005f7	0f 5a c0	 cvtps2pd xmm0, xmm0
  005fa	f2 0f 59 c0	 mulsd	 xmm0, xmm0
  005fe	0f 5a c9	 cvtps2pd xmm1, xmm1
  00601	f2 0f 59 c9	 mulsd	 xmm1, xmm1
  00605	f2 0f 58 c8	 addsd	 xmm1, xmm0
  00609	0f 5a d2	 cvtps2pd xmm2, xmm2
  0060c	f2 0f 59 d2	 mulsd	 xmm2, xmm2
  00610	f2 0f 58 ca	 addsd	 xmm1, xmm2
  00614	66 0f 5a c1	 cvtpd2ps xmm0, xmm1
  00618	f3 0f 10 0d 00
	00 00 00	 movss	 xmm1, DWORD PTR __real@3f800000
  00620	0f 2f c8	 comiss	 xmm1, xmm0
  00623	0f 87 d4 fe ff
	ff		 ja	 $LN158@ReCalculat@3
  00629	e9 a1 fe ff ff	 jmp	 $LN159@ReCalculat@3
_TEXT	ENDS
;	COMDAT text$x
text$x	SEGMENT
__unwindfunclet$?ReCalculateMoveVectorByWorldMesh@ioMapCollisionHelper@@YA_NPAVioPlayEntity@@ABVioOrientBox@@PAVioOpcodeShape@@PBUD3DXMATRIX@@MABUD3DXVECTOR3@@_NPAU6@AA_N@Z$0:
  00000	8d 8d 10 ff ff
	ff		 lea	 ecx, DWORD PTR _kCharInvBox$[ebp]
  00006	ff 25 00 00 00
	00		 jmp	 DWORD PTR __imp_??1ioOrientBox@@QAE@XZ
__unwindfunclet$?ReCalculateMoveVectorByWorldMesh@ioMapCollisionHelper@@YA_NPAVioPlayEntity@@ABVioOrientBox@@PAVioOpcodeShape@@PBUD3DXMATRIX@@MABUD3DXVECTOR3@@_NPAU6@AA_N@Z$1:
  0000c	8d 8d f4 fe ff
	ff		 lea	 ecx, DWORD PTR _vSlidingNrmList$[ebp]
  00012	e9 00 00 00 00	 jmp	 ??1?$vector@UD3DXVECTOR3@@V?$allocator@UD3DXVECTOR3@@@std@@@std@@QAE@XZ ; std::vector<D3DXVECTOR3,std::allocator<D3DXVECTOR3> >::~vector<D3DXVECTOR3,std::allocator<D3DXVECTOR3> >
__ehhandler$?ReCalculateMoveVectorByWorldMesh@ioMapCollisionHelper@@YA_NPAVioPlayEntity@@ABVioOrientBox@@PAVioOpcodeShape@@PBUD3DXMATRIX@@MABUD3DXVECTOR3@@_NPAU6@AA_N@Z:
  00017	8b 54 24 08	 mov	 edx, DWORD PTR [esp+8]
  0001b	8d 42 0c	 lea	 eax, DWORD PTR [edx+12]
  0001e	8b 8a c8 fe ff
	ff		 mov	 ecx, DWORD PTR [edx-312]
  00024	33 c8		 xor	 ecx, eax
  00026	e8 00 00 00 00	 call	 @__security_check_cookie@4
  0002b	8b 4a fc	 mov	 ecx, DWORD PTR [edx-4]
  0002e	33 c8		 xor	 ecx, eax
  00030	e8 00 00 00 00	 call	 @__security_check_cookie@4
  00035	b8 00 00 00 00	 mov	 eax, OFFSET __ehfuncinfo$?ReCalculateMoveVectorByWorldMesh@ioMapCollisionHelper@@YA_NPAVioPlayEntity@@ABVioOrientBox@@PAVioOpcodeShape@@PBUD3DXMATRIX@@MABUD3DXVECTOR3@@_NPAU6@AA_N@Z
  0003a	e9 00 00 00 00	 jmp	 ___CxxFrameHandler3
text$x	ENDS
?ReCalculateMoveVectorByWorldMesh@ioMapCollisionHelper@@YA_NPAVioPlayEntity@@ABVioOrientBox@@PAVioOpcodeShape@@PBUD3DXMATRIX@@MABUD3DXVECTOR3@@_NPAU6@AA_N@Z ENDP ; ioMapCollisionHelper::ReCalculateMoveVectorByWorldMesh
PUBLIC	??_C@_00CNPNBAHC@?$AA@				; `string'
PUBLIC	__real@0000000000000000
PUBLIC	__real@3fd0000000000000
PUBLIC	__real@3fe0000000000000
PUBLIC	_pShapeWorldMat$GSCopy$
PUBLIC	_pEntity$GSCopy$
PUBLIC	_pStage$GSCopy$
PUBLIC	?CheckPlayEntityMapCollision@ioMapCollisionHelper@@YA_NPAVioPlayStage@@PAVioGameEntity@@PAVioOpcodeShape@@HPBUD3DXMATRIX@@@Z ; ioMapCollisionHelper::CheckPlayEntityMapCollision
EXTRN	?CheckMapCollision@ioDummyChar@@QAEXPAVioPlayStage@@@Z:PROC ; ioDummyChar::CheckMapCollision
EXTRN	?CheckAxisLimit@ioPlayStage@@QAE_NPAUD3DXVECTOR3@@@Z:PROC ; ioPlayStage::CheckAxisLimit
EXTRN	?IsAxisLimit@ioBaseChar@@QAE_NXZ:PROC		; ioBaseChar::IsAxisLimit
EXTRN	?CheckAdhesiveStateCol@ioBaseChar@@QAEXXZ:PROC	; ioBaseChar::CheckAdhesiveStateCol
EXTRN	?CheckSkillGrapplingCancelBuff@ioBaseChar@@QAEXVioHashString@@_N@Z:PROC ; ioBaseChar::CheckSkillGrapplingCancelBuff
EXTRN	?CheckGrapplingSwingCollision@ioBaseChar@@QAE_NXZ:PROC ; ioBaseChar::CheckGrapplingSwingCollision
EXTRN	?CheckGrapplingSkillCollision@ioBaseChar@@QAE_NXZ:PROC ; ioBaseChar::CheckGrapplingSkillCollision
EXTRN	?CheckWoundGrapplingPushedBuff@ioBaseChar@@QAEXXZ:PROC ; ioBaseChar::CheckWoundGrapplingPushedBuff
EXTRN	?CheckGrapplingPushedBuffCollision@ioBaseChar@@QAE_NXZ:PROC ; ioBaseChar::CheckGrapplingPushedBuffCollision
EXTRN	?CheckWoundGrapplingBuff@ioBaseChar@@QAEXVioHashString@@@Z:PROC ; ioBaseChar::CheckWoundGrapplingBuff
EXTRN	__imp_??0ioHashString@@QAE@PBD@Z:PROC
EXTRN	?CheckGrapplingPushedCollision@ioBaseChar@@QAE_NXZ:PROC ; ioBaseChar::CheckGrapplingPushedCollision
EXTRN	?CheckWallCollisionBuff@ioBaseChar@@QAEXXZ:PROC	; ioBaseChar::CheckWallCollisionBuff
EXTRN	?HasBuff@ioBaseChar@@QBE_NH@Z:PROC		; ioBaseChar::HasBuff
EXTRN	_D3DXVec3TransformNormal@12:PROC
EXTRN	__imp_??1ioAxisAlignBox@@UAE@XZ:PROC
EXTRN	__imp_?SetMinPos@ioAxisAlignBox@@QAEXABUD3DXVECTOR3@@@Z:PROC
EXTRN	__imp_??_7ioAxisAlignBox@@6B@:QWORD
EXTRN	__imp_?SetExtents@ioOrientBox@@QAEXHM@Z:PROC
EXTRN	__imp_?GetCenter@ioOrientBox@@QBEABUD3DXVECTOR3@@XZ:PROC
EXTRN	__imp_?GetAxis@ioOrientBox@@QBEABUD3DXVECTOR3@@H@Z:PROC
EXTRN	__imp_?GetExtents@ioOrientBox@@QBEMH@Z:PROC
;	COMDAT ??_C@_00CNPNBAHC@?$AA@
; File c:\program files (x86)\microsoft visual studio 10.0\vc\include\vector
CONST	SEGMENT
??_C@_00CNPNBAHC@?$AA@ DB 00H				; `string'
CONST	ENDS
;	COMDAT __real@0000000000000000
CONST	SEGMENT
__real@0000000000000000 DQ 00000000000000000r	; 0
CONST	ENDS
;	COMDAT __real@3fd0000000000000
CONST	SEGMENT
__real@3fd0000000000000 DQ 03fd0000000000000r	; 0.25
CONST	ENDS
;	COMDAT __real@3fe0000000000000
CONST	SEGMENT
__real@3fe0000000000000 DQ 03fe0000000000000r	; 0.5
CONST	ENDS
;	COMDAT xdata$x
xdata$x	SEGMENT
__unwindtable$?CheckPlayEntityMapCollision@ioMapCollisionHelper@@YA_NPAVioPlayStage@@PAVioGameEntity@@PAVioOpcodeShape@@HPBUD3DXMATRIX@@@Z DD 0ffffffffH
	DD	FLAT:__unwindfunclet$?CheckPlayEntityMapCollision@ioMapCollisionHelper@@YA_NPAVioPlayStage@@PAVioGameEntity@@PAVioOpcodeShape@@HPBUD3DXMATRIX@@@Z$0
	DD	00H
	DD	FLAT:__unwindfunclet$?CheckPlayEntityMapCollision@ioMapCollisionHelper@@YA_NPAVioPlayStage@@PAVioGameEntity@@PAVioOpcodeShape@@HPBUD3DXMATRIX@@@Z$1
	DD	01H
	DD	FLAT:__unwindfunclet$?CheckPlayEntityMapCollision@ioMapCollisionHelper@@YA_NPAVioPlayStage@@PAVioGameEntity@@PAVioOpcodeShape@@HPBUD3DXMATRIX@@@Z$2
	DD	02H
	DD	FLAT:__unwindfunclet$?CheckPlayEntityMapCollision@ioMapCollisionHelper@@YA_NPAVioPlayStage@@PAVioGameEntity@@PAVioOpcodeShape@@HPBUD3DXMATRIX@@@Z$3
__ehfuncinfo$?CheckPlayEntityMapCollision@ioMapCollisionHelper@@YA_NPAVioPlayStage@@PAVioGameEntity@@PAVioOpcodeShape@@HPBUD3DXMATRIX@@@Z DD 019930522H
	DD	04H
	DD	FLAT:__unwindtable$?CheckPlayEntityMapCollision@ioMapCollisionHelper@@YA_NPAVioPlayStage@@PAVioGameEntity@@PAVioOpcodeShape@@HPBUD3DXMATRIX@@@Z
	DD	2 DUP(00H)
	DD	2 DUP(00H)
	DD	00H
	DD	01H
; Function compile flags: /Ogsp
; File d:\lost saga for developer\youtube\tutorial\source\src\lsclient\iomapcollisionhelper.cpp
xdata$x	ENDS
;	COMDAT ?CheckPlayEntityMapCollision@ioMapCollisionHelper@@YA_NPAVioPlayStage@@PAVioGameEntity@@PAVioOpcodeShape@@HPBUD3DXMATRIX@@@Z
_TEXT	SEGMENT
_pDummyChar$ = -292					; size = 4
_vDiff$ = -288						; size = 12
tv516 = -284						; size = 8
$T535423 = -280						; size = 4
_iPushNrmCount$532046 = -280				; size = 4
_pStage$GSCopy$ = -276					; size = 4
_vPushNrmList$ = -272					; size = 16
_pEntity$GSCopy$ = -256					; size = 4
$T535410 = -256						; size = 4
$T535408 = -256						; size = 4
tv1510 = -252						; size = 4
$T535424 = -252						; size = 4
_pShapeWorldMat$GSCopy$ = -248				; size = 4
$T535425 = -244						; size = 4
_j$532047 = -244					; size = 4
_i$532039 = -240					; size = 4
_fNewExtents$ = -240					; size = 4
_kMovingBox$ = -236					; size = 68
_kEntityBox$ = -168					; size = 68
_kAxisBox$ = -100					; size = 48
_vMoveAmt$ = -52					; size = 12
_vPushDir$ = -40					; size = 12
_vPos$532083 = -28					; size = 12
$T532067 = -28						; size = 12
_vPlaneNrm$532043 = -28					; size = 12
$T532035 = -28						; size = 12
$T532030 = -28						; size = 12
__$EHRec$ = -12						; size = 12
_pStage$ = 8						; size = 4
_pEntity$ = 12						; size = 4
_pShape$ = 16						; size = 4
_nMoveCount$ = 20					; size = 4
_pShapeWorldMat$ = 24					; size = 4
?CheckPlayEntityMapCollision@ioMapCollisionHelper@@YA_NPAVioPlayStage@@PAVioGameEntity@@PAVioOpcodeShape@@HPBUD3DXMATRIX@@@Z PROC ; ioMapCollisionHelper::CheckPlayEntityMapCollision, COMDAT

; 380  : 	{

  00000	68 18 01 00 00	 push	 280			; 00000118H
  00005	b8 00 00 00 00	 mov	 eax, __ehhandler$?CheckPlayEntityMapCollision@ioMapCollisionHelper@@YA_NPAVioPlayStage@@PAVioGameEntity@@PAVioOpcodeShape@@HPBUD3DXMATRIX@@@Z
  0000a	e8 00 00 00 00	 call	 __EH_prolog3_GS
  0000f	8b 7d 08	 mov	 edi, DWORD PTR _pStage$[ebp]
  00012	8b 75 0c	 mov	 esi, DWORD PTR _pEntity$[ebp]

; 405  : 
; 406  : 		if( !pShape->FindIntersection( pShapeWorldMat, kEntityBox, NULL ) )

  00015	8b 45 18	 mov	 eax, DWORD PTR _pShapeWorldMat$[ebp]
  00018	8b 5d 10	 mov	 ebx, DWORD PTR _pShape$[ebp]

; 473  : 				break;
; 474  : 
; 475  : 			iMoveCount++;

  0001b	89 bd ec fe ff
	ff		 mov	 DWORD PTR _pStage$GSCopy$[ebp], edi
  00021	89 b5 00 ff ff
	ff		 mov	 DWORD PTR _pEntity$GSCopy$[ebp], esi
  00027	89 85 08 ff ff
	ff		 mov	 DWORD PTR _pShapeWorldMat$GSCopy$[ebp], eax
  0002d	85 ff		 test	 edi, edi
  0002f	0f 84 c6 01 00
	00		 je	 $LN34@CheckPlayE

; 381  : 		if( !pStage || !pEntity || !pShape )

  00035	85 f6		 test	 esi, esi
  00037	0f 84 be 01 00
	00		 je	 $LN34@CheckPlayE
  0003d	85 db		 test	 ebx, ebx
  0003f	0f 84 b6 01 00
	00		 je	 $LN34@CheckPlayE

; 383  : 
; 384  : 		ioDummyChar *pDummyChar = ToDummyChar( pEntity );

  00045	56		 push	 esi
  00046	e8 00 00 00 00	 call	 ?ToDummyChar@@YAPAVioDummyChar@@PAVioGameEntity@@@Z ; ToDummyChar
  0004b	59		 pop	 ecx
  0004c	89 85 dc fe ff
	ff		 mov	 DWORD PTR _pDummyChar$[ebp], eax

; 385  : 
; 386  : 		//        IsNeedCheckMapCollision   
; 387  : 		if( pDummyChar )

  00052	85 c0		 test	 eax, eax
  00054	74 12		 je	 SHORT $LN33@CheckPlayE

; 388  : 		{
; 389  : 			pDummyChar->TestMapCollision( pShape, pStage, pShapeWorldMat );

  00056	ff b5 08 ff ff
	ff		 push	 DWORD PTR _pShapeWorldMat$GSCopy$[ebp]
  0005c	8b 10		 mov	 edx, DWORD PTR [eax]
  0005e	57		 push	 edi
  0005f	53		 push	 ebx
  00060	8b c8		 mov	 ecx, eax
  00062	ff 92 e4 00 00
	00		 call	 DWORD PTR [edx+228]
$LN33@CheckPlayE:

; 390  : 		}
; 391  : 
; 392  : 		if( !pEntity->IsNeedCheckMapCollision() )

  00068	8b 06		 mov	 eax, DWORD PTR [esi]
  0006a	8b ce		 mov	 ecx, esi
  0006c	ff 50 14	 call	 DWORD PTR [eax+20]
  0006f	84 c0		 test	 al, al

; 393  : 			return false;

  00071	0f 84 84 01 00
	00		 je	 $LN34@CheckPlayE

; 394  : 
; 395  : 		// Ball  
; 396  : 		if( ToBallStruct( pEntity ) )

  00077	56		 push	 esi
  00078	e8 00 00 00 00	 call	 ?ToBallStruct@@YAPAVioBall@@PAVioGameEntity@@@Z ; ToBallStruct
  0007d	59		 pop	 ecx
  0007e	85 c0		 test	 eax, eax

; 397  : 			return false;

  00080	0f 85 75 01 00
	00		 jne	 $LN34@CheckPlayE

; 398  : 
; 399  : 		ioOrientBox kEntityBox;

  00086	8d 8d 58 ff ff
	ff		 lea	 ecx, DWORD PTR _kEntityBox$[ebp]
  0008c	ff 15 00 00 00
	00		 call	 DWORD PTR __imp_??0ioOrientBox@@QAE@XZ
  00092	83 65 fc 00	 and	 DWORD PTR __$EHRec$[ebp+8], 0

; 400  : 		kEntityBox.SetByAxisBox( pEntity->GetWorldAxisBox() );

  00096	8b ce		 mov	 ecx, esi
  00098	e8 00 00 00 00	 call	 ?GetWorldAxisBox@ioGameEntity@@QBEABVioAxisAlignBox@@XZ ; ioGameEntity::GetWorldAxisBox
  0009d	50		 push	 eax
  0009e	8d 8d 58 ff ff
	ff		 lea	 ecx, DWORD PTR _kEntityBox$[ebp]
  000a4	ff 15 00 00 00
	00		 call	 DWORD PTR __imp_?SetByAxisBox@ioOrientBox@@QAEXABVioAxisAlignBox@@@Z

; 401  : 
; 402  : 		float fNewExtents = kEntityBox.GetExtents(1) * 0.5f;

  000aa	6a 01		 push	 1
  000ac	8d 8d 58 ff ff
	ff		 lea	 ecx, DWORD PTR _kEntityBox$[ebp]
  000b2	ff 15 00 00 00
	00		 call	 DWORD PTR __imp_?GetExtents@ioOrientBox@@QBEMH@Z
  000b8	dc 0d 00 00 00
	00		 fmul	 QWORD PTR __real@3fe0000000000000

; 403  : 		kEntityBox.SetCenter( kEntityBox.GetCenter() + kEntityBox.GetAxis(1) * fNewExtents );

  000be	6a 01		 push	 1
  000c0	8d 8d 58 ff ff
	ff		 lea	 ecx, DWORD PTR _kEntityBox$[ebp]
  000c6	d9 9d 10 ff ff
	ff		 fstp	 DWORD PTR _fNewExtents$[ebp]
  000cc	ff 15 00 00 00
	00		 call	 DWORD PTR __imp_?GetAxis@ioOrientBox@@QBEABUD3DXVECTOR3@@H@Z
  000d2	f3 0f 10 8d 10
	ff ff ff	 movss	 xmm1, DWORD PTR _fNewExtents$[ebp]
  000da	f3 0f 10 00	 movss	 xmm0, DWORD PTR [eax]
  000de	0f 5a c0	 cvtps2pd xmm0, xmm0
  000e1	0f 5a c9	 cvtps2pd xmm1, xmm1
  000e4	f2 0f 59 c1	 mulsd	 xmm0, xmm1
  000e8	f3 0f 10 8d 10
	ff ff ff	 movss	 xmm1, DWORD PTR _fNewExtents$[ebp]
  000f0	66 0f 5a c0	 cvtpd2ps xmm0, xmm0
  000f4	f3 0f 11 85 0c
	ff ff ff	 movss	 DWORD PTR $T535425[ebp], xmm0
  000fc	f3 0f 10 40 04	 movss	 xmm0, DWORD PTR [eax+4]
  00101	0f 5a c0	 cvtps2pd xmm0, xmm0
  00104	0f 5a c9	 cvtps2pd xmm1, xmm1
  00107	f2 0f 59 c1	 mulsd	 xmm0, xmm1
  0010b	f3 0f 10 8d 10
	ff ff ff	 movss	 xmm1, DWORD PTR _fNewExtents$[ebp]
  00113	66 0f 5a c0	 cvtpd2ps xmm0, xmm0
  00117	f3 0f 11 85 04
	ff ff ff	 movss	 DWORD PTR $T535424[ebp], xmm0
  0011f	f3 0f 10 40 08	 movss	 xmm0, DWORD PTR [eax+8]
  00124	0f 5a c0	 cvtps2pd xmm0, xmm0
  00127	0f 5a c9	 cvtps2pd xmm1, xmm1
  0012a	f2 0f 59 c1	 mulsd	 xmm0, xmm1
  0012e	66 0f 5a c0	 cvtpd2ps xmm0, xmm0
  00132	8d 8d 58 ff ff
	ff		 lea	 ecx, DWORD PTR _kEntityBox$[ebp]
  00138	f3 0f 11 85 e8
	fe ff ff	 movss	 DWORD PTR $T535423[ebp], xmm0
  00140	ff 15 00 00 00
	00		 call	 DWORD PTR __imp_?GetCenter@ioOrientBox@@QBEABUD3DXVECTOR3@@XZ
  00146	f3 0f 10 00	 movss	 xmm0, DWORD PTR [eax]
  0014a	f3 0f 10 8d 0c
	ff ff ff	 movss	 xmm1, DWORD PTR $T535425[ebp]
  00152	f3 0f 10 95 04
	ff ff ff	 movss	 xmm2, DWORD PTR $T535424[ebp]
  0015a	f3 0f 10 9d e8
	fe ff ff	 movss	 xmm3, DWORD PTR $T535423[ebp]
  00162	0f 5a c9	 cvtps2pd xmm1, xmm1
  00165	0f 5a c0	 cvtps2pd xmm0, xmm0
  00168	f2 0f 58 c1	 addsd	 xmm0, xmm1
  0016c	f3 0f 10 48 04	 movss	 xmm1, DWORD PTR [eax+4]
  00171	0f 5a d2	 cvtps2pd xmm2, xmm2
  00174	0f 5a c9	 cvtps2pd xmm1, xmm1
  00177	f2 0f 58 ca	 addsd	 xmm1, xmm2
  0017b	f3 0f 10 50 08	 movss	 xmm2, DWORD PTR [eax+8]
  00180	0f 5a d2	 cvtps2pd xmm2, xmm2
  00183	0f 5a db	 cvtps2pd xmm3, xmm3
  00186	8d 45 e4	 lea	 eax, DWORD PTR $T532030[ebp]
  00189	f2 0f 58 d3	 addsd	 xmm2, xmm3
  0018d	66 0f 5a c0	 cvtpd2ps xmm0, xmm0
  00191	66 0f 5a c9	 cvtpd2ps xmm1, xmm1
  00195	66 0f 5a d2	 cvtpd2ps xmm2, xmm2
  00199	50		 push	 eax
  0019a	8d 8d 58 ff ff
	ff		 lea	 ecx, DWORD PTR _kEntityBox$[ebp]
  001a0	f3 0f 11 45 e4	 movss	 DWORD PTR $T532030[ebp], xmm0
  001a5	f3 0f 11 4d e8	 movss	 DWORD PTR $T532030[ebp+4], xmm1
  001aa	f3 0f 11 55 ec	 movss	 DWORD PTR $T532030[ebp+8], xmm2
  001af	ff 15 00 00 00
	00		 call	 DWORD PTR __imp_?SetCenter@ioOrientBox@@QAEXABUD3DXVECTOR3@@@Z

; 404  : 		kEntityBox.SetExtents( 1, fNewExtents );

  001b5	f3 0f 10 85 10
	ff ff ff	 movss	 xmm0, DWORD PTR _fNewExtents$[ebp]
  001bd	51		 push	 ecx
  001be	f3 0f 11 04 24	 movss	 DWORD PTR [esp], xmm0
  001c3	6a 01		 push	 1
  001c5	8d 8d 58 ff ff
	ff		 lea	 ecx, DWORD PTR _kEntityBox$[ebp]
  001cb	ff 15 00 00 00
	00		 call	 DWORD PTR __imp_?SetExtents@ioOrientBox@@QAEXHM@Z

; 405  : 
; 406  : 		if( !pShape->FindIntersection( pShapeWorldMat, kEntityBox, NULL ) )

  001d1	8b 03		 mov	 eax, DWORD PTR [ebx]
  001d3	6a 00		 push	 0
  001d5	8d 8d 58 ff ff
	ff		 lea	 ecx, DWORD PTR _kEntityBox$[ebp]
  001db	51		 push	 ecx
  001dc	ff b5 08 ff ff
	ff		 push	 DWORD PTR _pShapeWorldMat$GSCopy$[ebp]
  001e2	8b cb		 mov	 ecx, ebx
  001e4	ff 50 30	 call	 DWORD PTR [eax+48]
  001e7	84 c0		 test	 al, al
  001e9	75 18		 jne	 SHORT $LN30@CheckPlayE
$LN139@CheckPlayE:

; 407  : 			return false;

  001eb	83 4d fc ff	 or	 DWORD PTR __$EHRec$[ebp+8], -1
  001ef	8d 8d 58 ff ff
	ff		 lea	 ecx, DWORD PTR _kEntityBox$[ebp]
  001f5	ff 15 00 00 00
	00		 call	 DWORD PTR __imp_??1ioOrientBox@@QAE@XZ
$LN34@CheckPlayE:

; 382  : 			return false;

  001fb	32 c0		 xor	 al, al
$LN36@CheckPlayE:

; 522  : 	}

  001fd	e8 00 00 00 00	 call	 __EH_epilog3_GS
  00202	c3		 ret	 0
$LN30@CheckPlayE:

; 408  : 
; 409  : 		ioAxisAlignBox kAxisBox = pEntity->GetWorldAxisBox();

  00203	8b ce		 mov	 ecx, esi
  00205	e8 00 00 00 00	 call	 ?GetWorldAxisBox@ioGameEntity@@QBEABVioAxisAlignBox@@XZ ; ioGameEntity::GetWorldAxisBox
  0020a	8b 0d 00 00 00
	00		 mov	 ecx, DWORD PTR __imp_??_7ioAxisAlignBox@@6B@
  00210	89 4d 9c	 mov	 DWORD PTR _kAxisBox$[ebp], ecx
  00213	8d 70 04	 lea	 esi, DWORD PTR [eax+4]
  00216	8d 7d a0	 lea	 edi, DWORD PTR _kAxisBox$[ebp+4]
  00219	a5		 movsd
  0021a	a5		 movsd
  0021b	a5		 movsd
  0021c	8d 70 10	 lea	 esi, DWORD PTR [eax+16]
  0021f	8d 7d ac	 lea	 edi, DWORD PTR _kAxisBox$[ebp+16]
  00222	a5		 movsd
  00223	a5		 movsd
  00224	a5		 movsd
  00225	8d 70 1c	 lea	 esi, DWORD PTR [eax+28]
  00228	8d 7d b8	 lea	 edi, DWORD PTR _kAxisBox$[ebp+28]
  0022b	a5		 movsd
  0022c	a5		 movsd
  0022d	a5		 movsd
  0022e	f3 0f 10 40 28	 movss	 xmm0, DWORD PTR [eax+40]
  00233	f3 0f 11 45 c4	 movss	 DWORD PTR _kAxisBox$[ebp+40], xmm0
  00238	8a 40 2c	 mov	 al, BYTE PTR [eax+44]
  0023b	88 45 c8	 mov	 BYTE PTR _kAxisBox$[ebp+44], al

; 410  : 
; 411  : 		D3DXVECTOR3 vDiff( 0.0f, 0.0f, 0.0f );
; 412  : 		vDiff.y = ( kAxisBox.GetMaxPos().y - kAxisBox.GetMinPos().y ) * 0.25f;

  0023e	8d 4d 9c	 lea	 ecx, DWORD PTR _kAxisBox$[ebp]
  00241	c6 45 fc 01	 mov	 BYTE PTR __$EHRec$[ebp+8], 1
  00245	ff 15 00 00 00
	00		 call	 DWORD PTR __imp_?GetMaxPos@ioAxisAlignBox@@QBEABUD3DXVECTOR3@@XZ
  0024b	f3 0f 10 40 04	 movss	 xmm0, DWORD PTR [eax+4]
  00250	0f 5a c0	 cvtps2pd xmm0, xmm0
  00253	8d 4d 9c	 lea	 ecx, DWORD PTR _kAxisBox$[ebp]
  00256	f2 0f 11 85 e4
	fe ff ff	 movsd	 QWORD PTR tv516[ebp], xmm0
  0025e	ff 15 00 00 00
	00		 call	 DWORD PTR __imp_?GetMinPos@ioAxisAlignBox@@QBEABUD3DXVECTOR3@@XZ
  00264	f3 0f 10 40 04	 movss	 xmm0, DWORD PTR [eax+4]
  00269	0f 5a c8	 cvtps2pd xmm1, xmm0
  0026c	f2 0f 10 85 e4
	fe ff ff	 movsd	 xmm0, QWORD PTR tv516[ebp]
  00274	f2 0f 5c c1	 subsd	 xmm0, xmm1
  00278	f2 0f 59 05 00
	00 00 00	 mulsd	 xmm0, QWORD PTR __real@3fd0000000000000
  00280	66 0f 5a c0	 cvtpd2ps xmm0, xmm0

; 413  : 		kAxisBox.SetMinPos( kAxisBox.GetMinPos() + vDiff );

  00284	8d 4d 9c	 lea	 ecx, DWORD PTR _kAxisBox$[ebp]
  00287	f3 0f 11 85 e4
	fe ff ff	 movss	 DWORD PTR _vDiff$[ebp+4], xmm0
  0028f	ff 15 00 00 00
	00		 call	 DWORD PTR __imp_?GetMinPos@ioAxisAlignBox@@QBEABUD3DXVECTOR3@@XZ
  00295	f3 0f 10 50 04	 movss	 xmm2, DWORD PTR [eax+4]
  0029a	f3 0f 10 00	 movss	 xmm0, DWORD PTR [eax]
  0029e	f3 0f 10 9d e4
	fe ff ff	 movss	 xmm3, DWORD PTR _vDiff$[ebp+4]
  002a6	0f 5a db	 cvtps2pd xmm3, xmm3
  002a9	0f 5a d2	 cvtps2pd xmm2, xmm2
  002ac	f2 0f 58 d3	 addsd	 xmm2, xmm3
  002b0	f3 0f 10 58 08	 movss	 xmm3, DWORD PTR [eax+8]
  002b5	0f 5a c8	 cvtps2pd xmm1, xmm0
  002b8	f2 0f 58 0d 00
	00 00 00	 addsd	 xmm1, QWORD PTR __real@0000000000000000
  002c0	0f 5a db	 cvtps2pd xmm3, xmm3
  002c3	f2 0f 58 1d 00
	00 00 00	 addsd	 xmm3, QWORD PTR __real@0000000000000000
  002cb	8d 45 e4	 lea	 eax, DWORD PTR $T532035[ebp]
  002ce	0f 57 c0	 xorps	 xmm0, xmm0
  002d1	66 0f 5a c9	 cvtpd2ps xmm1, xmm1
  002d5	66 0f 5a d2	 cvtpd2ps xmm2, xmm2
  002d9	66 0f 5a c3	 cvtpd2ps xmm0, xmm3
  002dd	50		 push	 eax
  002de	8d 4d 9c	 lea	 ecx, DWORD PTR _kAxisBox$[ebp]
  002e1	f3 0f 11 4d e4	 movss	 DWORD PTR $T532035[ebp], xmm1
  002e6	f3 0f 11 55 e8	 movss	 DWORD PTR $T532035[ebp+4], xmm2
  002eb	f3 0f 11 45 ec	 movss	 DWORD PTR $T532035[ebp+8], xmm0
  002f0	ff 15 00 00 00
	00		 call	 DWORD PTR __imp_?SetMinPos@ioAxisAlignBox@@QAEXABUD3DXVECTOR3@@@Z

; 414  : 
; 415  : 		const IntVec &rkFaceList = pShape->GetFindIntersectionFaceList();

  002f6	8b 03		 mov	 eax, DWORD PTR [ebx]
  002f8	8b cb		 mov	 ecx, ebx
  002fa	ff 50 40	 call	 DWORD PTR [eax+64]
  002fd	8b f8		 mov	 edi, eax

; 416  : 		Vector3Vec vPushNrmList;

  002ff	33 c0		 xor	 eax, eax
  00301	89 85 f0 fe ff
	ff		 mov	 DWORD PTR _vPushNrmList$[ebp], eax
  00307	89 85 f4 fe ff
	ff		 mov	 DWORD PTR _vPushNrmList$[ebp+4], eax
  0030d	89 85 f8 fe ff
	ff		 mov	 DWORD PTR _vPushNrmList$[ebp+8], eax

; 417  : 		vPushNrmList.reserve( rkFaceList.size() );

  00313	8b 47 04	 mov	 eax, DWORD PTR [edi+4]
  00316	2b 07		 sub	 eax, DWORD PTR [edi]
  00318	8d 8d f0 fe ff
	ff		 lea	 ecx, DWORD PTR _vPushNrmList$[ebp]
  0031e	c1 f8 02	 sar	 eax, 2
  00321	50		 push	 eax
  00322	c6 45 fc 02	 mov	 BYTE PTR __$EHRec$[ebp+8], 2
  00326	e8 00 00 00 00	 call	 ?reserve@?$vector@UD3DXVECTOR3@@V?$allocator@UD3DXVECTOR3@@@std@@@std@@QAEXI@Z ; std::vector<D3DXVECTOR3,std::allocator<D3DXVECTOR3> >::reserve

; 418  : 
; 419  : 		int iFaceCount = rkFaceList.size();

  0032b	8b 77 04	 mov	 esi, DWORD PTR [edi+4]
  0032e	2b 37		 sub	 esi, DWORD PTR [edi]

; 420  : 		for( int i=0 ; i<iFaceCount ; i++ )

  00330	83 a5 10 ff ff
	ff 00		 and	 DWORD PTR _i$532039[ebp], 0
  00337	c1 fe 02	 sar	 esi, 2
  0033a	85 f6		 test	 esi, esi
  0033c	0f 8e 08 01 00
	00		 jle	 $LN27@CheckPlayE
$LN29@CheckPlayE:

; 421  : 		{
; 422  : 			D3DXVECTOR3 vPlaneNrm;
; 423  : 			pShape->GetTriNormalInModelSpace( rkFaceList[i], vPlaneNrm );

  00342	8b 95 10 ff ff
	ff		 mov	 edx, DWORD PTR _i$532039[ebp]
  00348	8b 03		 mov	 eax, DWORD PTR [ebx]
  0034a	8d 4d e4	 lea	 ecx, DWORD PTR _vPlaneNrm$532043[ebp]
  0034d	51		 push	 ecx
  0034e	8b 0f		 mov	 ecx, DWORD PTR [edi]
  00350	ff 34 91	 push	 DWORD PTR [ecx+edx*4]
  00353	8b cb		 mov	 ecx, ebx
  00355	ff 50 38	 call	 DWORD PTR [eax+56]

; 424  : 
; 425  : 			if( D3DXVec3Dot( &ioMath::UNIT_Y, &vPlaneNrm ) > 0.9f )

  00358	a1 00 00 00 00	 mov	 eax, DWORD PTR __imp_?UNIT_Y@ioMath@@2UD3DXVECTOR3@@A
  0035d	f3 0f 10 40 04	 movss	 xmm0, DWORD PTR [eax+4]
  00362	f3 0f 10 4d e8	 movss	 xmm1, DWORD PTR _vPlaneNrm$532043[ebp+4]
  00367	f3 0f 10 10	 movss	 xmm2, DWORD PTR [eax]
  0036b	0f 5a c9	 cvtps2pd xmm1, xmm1
  0036e	0f 5a c0	 cvtps2pd xmm0, xmm0
  00371	f2 0f 59 c1	 mulsd	 xmm0, xmm1
  00375	f3 0f 10 4d e4	 movss	 xmm1, DWORD PTR _vPlaneNrm$532043[ebp]
  0037a	0f 5a c9	 cvtps2pd xmm1, xmm1
  0037d	0f 5a d2	 cvtps2pd xmm2, xmm2
  00380	f2 0f 59 ca	 mulsd	 xmm1, xmm2
  00384	f3 0f 10 55 ec	 movss	 xmm2, DWORD PTR _vPlaneNrm$532043[ebp+8]
  00389	f2 0f 58 c1	 addsd	 xmm0, xmm1
  0038d	f3 0f 10 48 08	 movss	 xmm1, DWORD PTR [eax+8]
  00392	0f 5a c9	 cvtps2pd xmm1, xmm1
  00395	0f 5a d2	 cvtps2pd xmm2, xmm2
  00398	f2 0f 59 ca	 mulsd	 xmm1, xmm2
  0039c	f2 0f 58 c1	 addsd	 xmm0, xmm1
  003a0	66 0f 5a c0	 cvtpd2ps xmm0, xmm0
  003a4	f3 0f 5a c0	 cvtss2sd xmm0, xmm0
  003a8	66 0f 2f 05 00
	00 00 00	 comisd	 xmm0, QWORD PTR __real@3fecccccc0000000
  003b0	0f 87 82 00 00
	00		 ja	 $LN28@CheckPlayE

; 426  : 				continue;
; 427  : 
; 428  : 			bool bSameNrmExist = false;
; 429  : 			int iPushNrmCount = vPushNrmList.size();

  003b6	8b 85 f4 fe ff
	ff		 mov	 eax, DWORD PTR _vPushNrmList$[ebp+4]
  003bc	2b 85 f0 fe ff
	ff		 sub	 eax, DWORD PTR _vPushNrmList$[ebp]
  003c2	6a 0c		 push	 12			; 0000000cH
  003c4	99		 cdq
  003c5	59		 pop	 ecx
  003c6	f7 f9		 idiv	 ecx

; 430  : 			for( int j=0 ; j<iPushNrmCount ; j++ )

  003c8	83 a5 0c ff ff
	ff 00		 and	 DWORD PTR _j$532047[ebp], 0
  003cf	89 85 e8 fe ff
	ff		 mov	 DWORD PTR _iPushNrmCount$532046[ebp], eax
  003d5	85 c0		 test	 eax, eax
  003d7	7e 50		 jle	 SHORT $LN131@CheckPlayE

; 426  : 				continue;
; 427  : 
; 428  : 			bool bSameNrmExist = false;
; 429  : 			int iPushNrmCount = vPushNrmList.size();

  003d9	83 a5 04 ff ff
	ff 00		 and	 DWORD PTR tv1510[ebp], 0
$LN25@CheckPlayE:

; 431  : 			{
; 432  : 				if( ioMath::IsEqual( vPlaneNrm, vPushNrmList[j] ) )

  003e0	8b 8d 04 ff ff
	ff		 mov	 ecx, DWORD PTR tv1510[ebp]
  003e6	8b 85 f0 fe ff
	ff		 mov	 eax, DWORD PTR _vPushNrmList$[ebp]
  003ec	f3 0f 10 05 00
	00 00 00	 movss	 xmm0, DWORD PTR __real@38d1b717
  003f4	51		 push	 ecx
  003f5	03 c1		 add	 eax, ecx
  003f7	f3 0f 11 04 24	 movss	 DWORD PTR [esp], xmm0
  003fc	50		 push	 eax
  003fd	8d 45 e4	 lea	 eax, DWORD PTR _vPlaneNrm$532043[ebp]
  00400	50		 push	 eax
  00401	ff 15 00 00 00
	00		 call	 DWORD PTR __imp_?IsEqual@ioMath@@SA_NABUD3DXVECTOR3@@0M@Z
  00407	83 c4 0c	 add	 esp, 12			; 0000000cH
  0040a	84 c0		 test	 al, al
  0040c	75 2a		 jne	 SHORT $LN28@CheckPlayE

; 430  : 			for( int j=0 ; j<iPushNrmCount ; j++ )

  0040e	ff 85 0c ff ff
	ff		 inc	 DWORD PTR _j$532047[ebp]
  00414	8b 85 0c ff ff
	ff		 mov	 eax, DWORD PTR _j$532047[ebp]
  0041a	83 85 04 ff ff
	ff 0c		 add	 DWORD PTR tv1510[ebp], 12 ; 0000000cH
  00421	3b 85 e8 fe ff
	ff		 cmp	 eax, DWORD PTR _iPushNrmCount$532046[ebp]
  00427	7c b7		 jl	 SHORT $LN25@CheckPlayE
$LN131@CheckPlayE:

; 433  : 				{
; 434  : 					bSameNrmExist = true;
; 435  : 					break;
; 436  : 				}
; 437  : 			}
; 438  : 
; 439  : 			if( !bSameNrmExist )
; 440  : 			{
; 441  : 				vPushNrmList.push_back( vPlaneNrm );

  00429	8d 45 e4	 lea	 eax, DWORD PTR _vPlaneNrm$532043[ebp]
  0042c	50		 push	 eax
  0042d	8d 8d f0 fe ff
	ff		 lea	 ecx, DWORD PTR _vPushNrmList$[ebp]
  00433	e8 00 00 00 00	 call	 ?push_back@?$vector@UD3DXVECTOR3@@V?$allocator@UD3DXVECTOR3@@@std@@@std@@QAEXABUD3DXVECTOR3@@@Z ; std::vector<D3DXVECTOR3,std::allocator<D3DXVECTOR3> >::push_back
$LN28@CheckPlayE:

; 420  : 		for( int i=0 ; i<iFaceCount ; i++ )

  00438	ff 85 10 ff ff
	ff		 inc	 DWORD PTR _i$532039[ebp]
  0043e	39 b5 10 ff ff
	ff		 cmp	 DWORD PTR _i$532039[ebp], esi
  00444	0f 8c f8 fe ff
	ff		 jl	 $LN29@CheckPlayE
$LN27@CheckPlayE:

; 442  : 			}
; 443  : 		}
; 444  : 
; 445  : 		if( vPushNrmList.empty() )

  0044a	8b 8d f0 fe ff
	ff		 mov	 ecx, DWORD PTR _vPushNrmList$[ebp]
  00450	8b 85 f4 fe ff
	ff		 mov	 eax, DWORD PTR _vPushNrmList$[ebp+4]
  00456	3b c8		 cmp	 ecx, eax
  00458	75 21		 jne	 SHORT $LN20@CheckPlayE

; 446  : 			return false;

  0045a	8d 8d f0 fe ff
	ff		 lea	 ecx, DWORD PTR _vPushNrmList$[ebp]
  00460	c6 45 fc 01	 mov	 BYTE PTR __$EHRec$[ebp+8], 1
  00464	e8 00 00 00 00	 call	 ?_Tidy@?$vector@UD3DXVECTOR3@@V?$allocator@UD3DXVECTOR3@@@std@@@std@@IAEXXZ ; std::vector<D3DXVECTOR3,std::allocator<D3DXVECTOR3> >::_Tidy
  00469	8d 4d 9c	 lea	 ecx, DWORD PTR _kAxisBox$[ebp]
  0046c	c6 45 fc 00	 mov	 BYTE PTR __$EHRec$[ebp+8], 0
  00470	ff 15 00 00 00
	00		 call	 DWORD PTR __imp_??1ioAxisAlignBox@@UAE@XZ
  00476	e9 70 fd ff ff	 jmp	 $LN139@CheckPlayE
$LN20@CheckPlayE:

; 447  : 
; 448  : 		D3DXVECTOR3 vPushDir = vPushNrmList.front();

  0047b	8b f1		 mov	 esi, ecx
  0047d	8d 7d d8	 lea	 edi, DWORD PTR _vPushDir$[ebp]
  00480	a5		 movsd
  00481	a5		 movsd

; 449  : 		for( i=1 ; i<(int)vPushNrmList.size() ; i++ )

  00482	2b c1		 sub	 eax, ecx
  00484	a5		 movsd
  00485	6a 0c		 push	 12			; 0000000cH
  00487	99		 cdq
  00488	5f		 pop	 edi
  00489	f7 ff		 idiv	 edi
  0048b	33 f6		 xor	 esi, esi
  0048d	46		 inc	 esi
  0048e	89 b5 10 ff ff
	ff		 mov	 DWORD PTR _i$532039[ebp], esi
  00494	3b c6		 cmp	 eax, esi
  00496	0f 8e 8e 00 00
	00		 jle	 $LN17@CheckPlayE

; 447  : 
; 448  : 		D3DXVECTOR3 vPushDir = vPushNrmList.front();

  0049c	57		 push	 edi
  0049d	5e		 pop	 esi
$LN19@CheckPlayE:

; 450  : 		{
; 451  : 			vPushDir += vPushNrmList[i];

  0049e	f3 0f 10 4d d8	 movss	 xmm1, DWORD PTR _vPushDir$[ebp]
  004a3	8d 04 0e	 lea	 eax, DWORD PTR [esi+ecx]
  004a6	f3 0f 10 00	 movss	 xmm0, DWORD PTR [eax]
  004aa	0f 5a c0	 cvtps2pd xmm0, xmm0
  004ad	0f 5a c9	 cvtps2pd xmm1, xmm1
  004b0	f2 0f 58 c1	 addsd	 xmm0, xmm1
  004b4	f3 0f 10 4d dc	 movss	 xmm1, DWORD PTR _vPushDir$[ebp+4]
  004b9	66 0f 5a c0	 cvtpd2ps xmm0, xmm0
  004bd	f3 0f 11 45 d8	 movss	 DWORD PTR _vPushDir$[ebp], xmm0
  004c2	f3 0f 10 40 04	 movss	 xmm0, DWORD PTR [eax+4]
  004c7	0f 5a c0	 cvtps2pd xmm0, xmm0
  004ca	0f 5a c9	 cvtps2pd xmm1, xmm1
  004cd	f2 0f 58 c1	 addsd	 xmm0, xmm1
  004d1	f3 0f 10 4d e0	 movss	 xmm1, DWORD PTR _vPushDir$[ebp+8]
  004d6	66 0f 5a c0	 cvtpd2ps xmm0, xmm0
  004da	f3 0f 11 45 dc	 movss	 DWORD PTR _vPushDir$[ebp+4], xmm0
  004df	f3 0f 10 40 08	 movss	 xmm0, DWORD PTR [eax+8]

; 452  : 			D3DXVec3Normalize( &vPushDir, &vPushDir );

  004e4	8d 45 d8	 lea	 eax, DWORD PTR _vPushDir$[ebp]
  004e7	0f 5a c0	 cvtps2pd xmm0, xmm0
  004ea	0f 5a c9	 cvtps2pd xmm1, xmm1
  004ed	50		 push	 eax
  004ee	f2 0f 58 c1	 addsd	 xmm0, xmm1
  004f2	66 0f 5a c0	 cvtpd2ps xmm0, xmm0
  004f6	50		 push	 eax
  004f7	f3 0f 11 45 e0	 movss	 DWORD PTR _vPushDir$[ebp+8], xmm0
  004fc	e8 00 00 00 00	 call	 _D3DXVec3Normalize@8
  00501	8b 85 f4 fe ff
	ff		 mov	 eax, DWORD PTR _vPushNrmList$[ebp+4]
  00507	8b 8d f0 fe ff
	ff		 mov	 ecx, DWORD PTR _vPushNrmList$[ebp]
  0050d	2b c1		 sub	 eax, ecx
  0050f	6a 0c		 push	 12			; 0000000cH
  00511	99		 cdq
  00512	5f		 pop	 edi
  00513	f7 ff		 idiv	 edi
  00515	ff 85 10 ff ff
	ff		 inc	 DWORD PTR _i$532039[ebp]
  0051b	83 c6 0c	 add	 esi, 12			; 0000000cH
  0051e	39 85 10 ff ff
	ff		 cmp	 DWORD PTR _i$532039[ebp], eax
  00524	0f 8c 74 ff ff
	ff		 jl	 $LN19@CheckPlayE
$LN17@CheckPlayE:

; 453  : 		}
; 454  : 
; 455  : 		if( pShapeWorldMat )

  0052a	83 bd 08 ff ff
	ff 00		 cmp	 DWORD PTR _pShapeWorldMat$GSCopy$[ebp], 0
  00531	74 1a		 je	 SHORT $LN16@CheckPlayE

; 456  : 		{
; 457  : 			D3DXVec3TransformNormal( &vPushDir, &vPushDir, pShapeWorldMat );

  00533	ff b5 08 ff ff
	ff		 push	 DWORD PTR _pShapeWorldMat$GSCopy$[ebp]
  00539	8d 45 d8	 lea	 eax, DWORD PTR _vPushDir$[ebp]
  0053c	50		 push	 eax
  0053d	50		 push	 eax
  0053e	e8 00 00 00 00	 call	 _D3DXVec3TransformNormal@12

; 458  : 			D3DXVec3Normalize( &vPushDir, &vPushDir );

  00543	8d 45 d8	 lea	 eax, DWORD PTR _vPushDir$[ebp]
  00546	50		 push	 eax
  00547	50		 push	 eax
  00548	e8 00 00 00 00	 call	 _D3DXVec3Normalize@8
$LN16@CheckPlayE:

; 459  : 		}
; 460  : 
; 461  : 		ioOrientBox kMovingBox;

  0054d	8d 8d 14 ff ff
	ff		 lea	 ecx, DWORD PTR _kMovingBox$[ebp]
  00553	ff 15 00 00 00
	00		 call	 DWORD PTR __imp_??0ioOrientBox@@QAE@XZ

; 462  : 		kMovingBox.SetByAxisBox( kAxisBox );

  00559	8d 45 9c	 lea	 eax, DWORD PTR _kAxisBox$[ebp]
  0055c	50		 push	 eax
  0055d	8d 8d 14 ff ff
	ff		 lea	 ecx, DWORD PTR _kMovingBox$[ebp]
  00563	c6 45 fc 03	 mov	 BYTE PTR __$EHRec$[ebp+8], 3
  00567	ff 15 00 00 00
	00		 call	 DWORD PTR __imp_?SetByAxisBox@ioOrientBox@@QAEXABVioAxisAlignBox@@@Z

; 463  : 
; 464  : 		int iMoveCount = 0;
; 465  : 		D3DXVECTOR3 vMoveAmt( 0.0f, 0.0f, 0.0f );

  0056d	0f 57 c0	 xorps	 xmm0, xmm0
  00570	33 f6		 xor	 esi, esi
  00572	f3 0f 11 45 cc	 movss	 DWORD PTR _vMoveAmt$[ebp], xmm0
  00577	f3 0f 11 45 d0	 movss	 DWORD PTR _vMoveAmt$[ebp+4], xmm0
  0057c	f3 0f 11 45 d4	 movss	 DWORD PTR _vMoveAmt$[ebp+8], xmm0

; 466  : 
; 467  : 		while( iMoveCount < nMoveCount )	//  

  00581	39 75 14	 cmp	 DWORD PTR _nMoveCount$[ebp], esi
  00584	0f 8e eb 00 00
	00		 jle	 $LN126@CheckPlayE
$LL15@CheckPlayE:

; 468  : 		{
; 469  : 			kMovingBox.SetCenter( kMovingBox.GetCenter() + vPushDir );

  0058a	8d 8d 14 ff ff
	ff		 lea	 ecx, DWORD PTR _kMovingBox$[ebp]
  00590	ff 15 00 00 00
	00		 call	 DWORD PTR __imp_?GetCenter@ioOrientBox@@QBEABUD3DXVECTOR3@@XZ
  00596	f3 0f 10 00	 movss	 xmm0, DWORD PTR [eax]
  0059a	f3 0f 10 4d d8	 movss	 xmm1, DWORD PTR _vPushDir$[ebp]
  0059f	f3 0f 10 55 dc	 movss	 xmm2, DWORD PTR _vPushDir$[ebp+4]
  005a4	f3 0f 10 5d e0	 movss	 xmm3, DWORD PTR _vPushDir$[ebp+8]
  005a9	0f 5a c9	 cvtps2pd xmm1, xmm1
  005ac	0f 5a c0	 cvtps2pd xmm0, xmm0
  005af	f2 0f 58 c1	 addsd	 xmm0, xmm1
  005b3	f3 0f 10 48 04	 movss	 xmm1, DWORD PTR [eax+4]
  005b8	0f 5a d2	 cvtps2pd xmm2, xmm2
  005bb	0f 5a c9	 cvtps2pd xmm1, xmm1
  005be	f2 0f 58 ca	 addsd	 xmm1, xmm2
  005c2	f3 0f 10 50 08	 movss	 xmm2, DWORD PTR [eax+8]
  005c7	0f 5a d2	 cvtps2pd xmm2, xmm2
  005ca	0f 5a db	 cvtps2pd xmm3, xmm3
  005cd	8d 45 e4	 lea	 eax, DWORD PTR $T532067[ebp]
  005d0	f2 0f 58 d3	 addsd	 xmm2, xmm3
  005d4	66 0f 5a c0	 cvtpd2ps xmm0, xmm0
  005d8	66 0f 5a c9	 cvtpd2ps xmm1, xmm1
  005dc	66 0f 5a d2	 cvtpd2ps xmm2, xmm2
  005e0	50		 push	 eax
  005e1	8d 8d 14 ff ff
	ff		 lea	 ecx, DWORD PTR _kMovingBox$[ebp]
  005e7	f3 0f 11 45 e4	 movss	 DWORD PTR $T532067[ebp], xmm0
  005ec	f3 0f 11 4d e8	 movss	 DWORD PTR $T532067[ebp+4], xmm1
  005f1	f3 0f 11 55 ec	 movss	 DWORD PTR $T532067[ebp+8], xmm2
  005f6	ff 15 00 00 00
	00		 call	 DWORD PTR __imp_?SetCenter@ioOrientBox@@QAEXABUD3DXVECTOR3@@@Z

; 470  : 			vMoveAmt += vPushDir;

  005fc	f3 0f 10 45 cc	 movss	 xmm0, DWORD PTR _vMoveAmt$[ebp]
  00601	f3 0f 10 4d d8	 movss	 xmm1, DWORD PTR _vPushDir$[ebp]

; 471  : 
; 472  : 			if( !pShape->TestIntersection( pShapeWorldMat, kMovingBox ) )

  00606	8b 03		 mov	 eax, DWORD PTR [ebx]
  00608	0f 5a c0	 cvtps2pd xmm0, xmm0
  0060b	0f 5a c9	 cvtps2pd xmm1, xmm1
  0060e	f2 0f 58 c1	 addsd	 xmm0, xmm1
  00612	f3 0f 10 4d dc	 movss	 xmm1, DWORD PTR _vPushDir$[ebp+4]
  00617	66 0f 5a c0	 cvtpd2ps xmm0, xmm0
  0061b	f3 0f 11 45 cc	 movss	 DWORD PTR _vMoveAmt$[ebp], xmm0
  00620	f3 0f 10 45 d0	 movss	 xmm0, DWORD PTR _vMoveAmt$[ebp+4]
  00625	0f 5a c0	 cvtps2pd xmm0, xmm0
  00628	0f 5a c9	 cvtps2pd xmm1, xmm1
  0062b	f2 0f 58 c1	 addsd	 xmm0, xmm1
  0062f	f3 0f 10 4d e0	 movss	 xmm1, DWORD PTR _vPushDir$[ebp+8]
  00634	66 0f 5a c0	 cvtpd2ps xmm0, xmm0
  00638	f3 0f 11 45 d0	 movss	 DWORD PTR _vMoveAmt$[ebp+4], xmm0
  0063d	f3 0f 10 45 d4	 movss	 xmm0, DWORD PTR _vMoveAmt$[ebp+8]
  00642	8d 8d 14 ff ff
	ff		 lea	 ecx, DWORD PTR _kMovingBox$[ebp]
  00648	51		 push	 ecx
  00649	ff b5 08 ff ff
	ff		 push	 DWORD PTR _pShapeWorldMat$GSCopy$[ebp]
  0064f	0f 5a c0	 cvtps2pd xmm0, xmm0
  00652	0f 5a c9	 cvtps2pd xmm1, xmm1
  00655	f2 0f 58 c1	 addsd	 xmm0, xmm1
  00659	66 0f 5a c0	 cvtpd2ps xmm0, xmm0
  0065d	8b cb		 mov	 ecx, ebx
  0065f	f3 0f 11 45 d4	 movss	 DWORD PTR _vMoveAmt$[ebp+8], xmm0
  00664	ff 50 24	 call	 DWORD PTR [eax+36]
  00667	84 c0		 test	 al, al
  00669	74 0a		 je	 SHORT $LN126@CheckPlayE

; 473  : 				break;
; 474  : 
; 475  : 			iMoveCount++;

  0066b	46		 inc	 esi
  0066c	3b 75 14	 cmp	 esi, DWORD PTR _nMoveCount$[ebp]
  0066f	0f 8c 15 ff ff
	ff		 jl	 $LL15@CheckPlayE
$LN126@CheckPlayE:

; 476  : 		}
; 477  : 
; 478  : 		pEntity->MapCollisionPushingTranslate( vMoveAmt );

  00675	8b b5 00 ff ff
	ff		 mov	 esi, DWORD PTR _pEntity$GSCopy$[ebp]
  0067b	8b 06		 mov	 eax, DWORD PTR [esi]
  0067d	8d 4d cc	 lea	 ecx, DWORD PTR _vMoveAmt$[ebp]
  00680	51		 push	 ecx
  00681	8b ce		 mov	 ecx, esi
  00683	ff 50 5c	 call	 DWORD PTR [eax+92]

; 479  : 
; 480  : 		ioBaseChar *pCheckChar = ToBaseChar( pEntity );

  00686	56		 push	 esi
  00687	e8 00 00 00 00	 call	 ?ToBaseChar@@YAPAVioBaseChar@@PAVioGameEntity@@@Z ; ToBaseChar
  0068c	8b d8		 mov	 ebx, eax
  0068e	59		 pop	 ecx

; 481  : 		if( pCheckChar )

  0068f	85 db		 test	 ebx, ebx
  00691	0f 84 d0 00 00
	00		 je	 $LN2@CheckPlayE

; 482  : 		{
; 483  : 			if( pCheckChar->HasBuff( BT_WALL_COLLISION ) || pCheckChar->HasBuff( BT_ATTACHED_DUMMY ) )

  00697	6a 64		 push	 100			; 00000064H
  00699	8b cb		 mov	 ecx, ebx
  0069b	e8 00 00 00 00	 call	 ?HasBuff@ioBaseChar@@QBE_NH@Z ; ioBaseChar::HasBuff
  006a0	84 c0		 test	 al, al
  006a2	75 10		 jne	 SHORT $LN10@CheckPlayE
  006a4	68 c2 00 00 00	 push	 194			; 000000c2H
  006a9	8b cb		 mov	 ecx, ebx
  006ab	e8 00 00 00 00	 call	 ?HasBuff@ioBaseChar@@QBE_NH@Z ; ioBaseChar::HasBuff
  006b0	84 c0		 test	 al, al
  006b2	74 07		 je	 SHORT $LN11@CheckPlayE
$LN10@CheckPlayE:

; 484  : 				pCheckChar->CheckWallCollisionBuff();

  006b4	8b cb		 mov	 ecx, ebx
  006b6	e8 00 00 00 00	 call	 ?CheckWallCollisionBuff@ioBaseChar@@QAEXXZ ; ioBaseChar::CheckWallCollisionBuff
$LN11@CheckPlayE:

; 485  : 
; 486  : 			// Grappling Check
; 487  : 			if( pCheckChar->CheckGrapplingPushedCollision() )

  006bb	8b cb		 mov	 ecx, ebx
  006bd	e8 00 00 00 00	 call	 ?CheckGrapplingPushedCollision@ioBaseChar@@QAE_NXZ ; ioBaseChar::CheckGrapplingPushedCollision
  006c2	84 c0		 test	 al, al
  006c4	74 1f		 je	 SHORT $LN9@CheckPlayE

; 488  : 			{
; 489  : 				pCheckChar->CheckWoundGrapplingBuff( "" );

  006c6	83 ec 10	 sub	 esp, 16			; 00000010H
  006c9	8b cc		 mov	 ecx, esp
  006cb	89 a5 00 ff ff
	ff		 mov	 DWORD PTR $T535408[ebp], esp
  006d1	68 00 00 00 00	 push	 OFFSET ??_C@_00CNPNBAHC@?$AA@
  006d6	ff 15 00 00 00
	00		 call	 DWORD PTR __imp_??0ioHashString@@QAE@PBD@Z
  006dc	8b cb		 mov	 ecx, ebx
  006de	e8 00 00 00 00	 call	 ?CheckWoundGrapplingBuff@ioBaseChar@@QAEXVioHashString@@@Z ; ioBaseChar::CheckWoundGrapplingBuff
  006e3	eb 47		 jmp	 SHORT $LN3@CheckPlayE
$LN9@CheckPlayE:

; 490  : 			}
; 491  : 			else if( pCheckChar->CheckGrapplingPushedBuffCollision() )

  006e5	8b cb		 mov	 ecx, ebx
  006e7	e8 00 00 00 00	 call	 ?CheckGrapplingPushedBuffCollision@ioBaseChar@@QAE_NXZ ; ioBaseChar::CheckGrapplingPushedBuffCollision

; 492  : 			{
; 493  : 				pCheckChar->CheckWoundGrapplingPushedBuff();

  006ec	8b cb		 mov	 ecx, ebx
  006ee	84 c0		 test	 al, al
  006f0	74 07		 je	 SHORT $LN7@CheckPlayE
  006f2	e8 00 00 00 00	 call	 ?CheckWoundGrapplingPushedBuff@ioBaseChar@@QAEXXZ ; ioBaseChar::CheckWoundGrapplingPushedBuff
  006f7	eb 33		 jmp	 SHORT $LN3@CheckPlayE
$LN7@CheckPlayE:

; 494  : 			}
; 495  : 			else if( pCheckChar->CheckGrapplingSkillCollision() )

  006f9	e8 00 00 00 00	 call	 ?CheckGrapplingSkillCollision@ioBaseChar@@QAE_NXZ ; ioBaseChar::CheckGrapplingSkillCollision
  006fe	84 c0		 test	 al, al

; 496  : 			{
; 497  : 				pCheckChar->CheckSkillGrapplingCancelBuff( "", true );

  00700	75 0b		 jne	 SHORT $LN138@CheckPlayE

; 498  : 			}
; 499  : 			else if( pCheckChar->CheckGrapplingSwingCollision() )

  00702	8b cb		 mov	 ecx, ebx
  00704	e8 00 00 00 00	 call	 ?CheckGrapplingSwingCollision@ioBaseChar@@QAE_NXZ ; ioBaseChar::CheckGrapplingSwingCollision
  00709	84 c0		 test	 al, al
  0070b	74 1f		 je	 SHORT $LN3@CheckPlayE
$LN138@CheckPlayE:

; 500  : 			{
; 501  : 				pCheckChar->CheckSkillGrapplingCancelBuff( "", true );

  0070d	6a 01		 push	 1
  0070f	83 ec 10	 sub	 esp, 16			; 00000010H
  00712	8b cc		 mov	 ecx, esp
  00714	89 a5 00 ff ff
	ff		 mov	 DWORD PTR $T535410[ebp], esp
  0071a	68 00 00 00 00	 push	 OFFSET ??_C@_00CNPNBAHC@?$AA@
  0071f	ff 15 00 00 00
	00		 call	 DWORD PTR __imp_??0ioHashString@@QAE@PBD@Z
  00725	8b cb		 mov	 ecx, ebx
  00727	e8 00 00 00 00	 call	 ?CheckSkillGrapplingCancelBuff@ioBaseChar@@QAEXVioHashString@@_N@Z ; ioBaseChar::CheckSkillGrapplingCancelBuff
$LN3@CheckPlayE:

; 502  : 			}
; 503  : 
; 504  : 			// AdhesiveBuff Check
; 505  : 			pCheckChar->CheckAdhesiveStateCol();

  0072c	8b cb		 mov	 ecx, ebx
  0072e	e8 00 00 00 00	 call	 ?CheckAdhesiveStateCol@ioBaseChar@@QAEXXZ ; ioBaseChar::CheckAdhesiveStateCol

; 506  : 
; 507  : 			// check axis limit
; 508  : 			D3DXVECTOR3 vPos = pCheckChar->GetWorldPosition();

  00733	8b 03		 mov	 eax, DWORD PTR [ebx]
  00735	8b cb		 mov	 ecx, ebx
  00737	ff 50 70	 call	 DWORD PTR [eax+112]
  0073a	8b f0		 mov	 esi, eax
  0073c	8d 7d e4	 lea	 edi, DWORD PTR _vPos$532083[ebp]
  0073f	a5		 movsd
  00740	a5		 movsd

; 509  : 			if( pCheckChar->IsAxisLimit() )

  00741	8b cb		 mov	 ecx, ebx
  00743	a5		 movsd
  00744	e8 00 00 00 00	 call	 ?IsAxisLimit@ioBaseChar@@QAE_NXZ ; ioBaseChar::IsAxisLimit
  00749	84 c0		 test	 al, al
  0074b	74 1a		 je	 SHORT $LN2@CheckPlayE

; 510  : 			{
; 511  : 				pStage->CheckAxisLimit( &vPos );

  0074d	8b 8d ec fe ff
	ff		 mov	 ecx, DWORD PTR _pStage$GSCopy$[ebp]
  00753	8d 45 e4	 lea	 eax, DWORD PTR _vPos$532083[ebp]
  00756	50		 push	 eax
  00757	e8 00 00 00 00	 call	 ?CheckAxisLimit@ioPlayStage@@QAE_NPAUD3DXVECTOR3@@@Z ; ioPlayStage::CheckAxisLimit

; 512  : 				pCheckChar->SetWorldPosition( vPos );

  0075c	8b 03		 mov	 eax, DWORD PTR [ebx]
  0075e	8d 4d e4	 lea	 ecx, DWORD PTR _vPos$532083[ebp]
  00761	51		 push	 ecx
  00762	8b cb		 mov	 ecx, ebx
  00764	ff 50 44	 call	 DWORD PTR [eax+68]
$LN2@CheckPlayE:

; 513  : 			}
; 514  : 		}
; 515  : 
; 516  : 		if( pDummyChar )

  00767	8b 8d dc fe ff
	ff		 mov	 ecx, DWORD PTR _pDummyChar$[ebp]
  0076d	85 c9		 test	 ecx, ecx
  0076f	74 0b		 je	 SHORT $LN1@CheckPlayE

; 517  : 		{
; 518  : 			pDummyChar->CheckMapCollision( pStage );

  00771	ff b5 ec fe ff
	ff		 push	 DWORD PTR _pStage$GSCopy$[ebp]
  00777	e8 00 00 00 00	 call	 ?CheckMapCollision@ioDummyChar@@QAEXPAVioPlayStage@@@Z ; ioDummyChar::CheckMapCollision
$LN1@CheckPlayE:

; 519  : 		}
; 520  : 
; 521  : 		return true;

  0077c	8b 35 00 00 00
	00		 mov	 esi, DWORD PTR __imp_??1ioOrientBox@@QAE@XZ
  00782	8d 8d 14 ff ff
	ff		 lea	 ecx, DWORD PTR _kMovingBox$[ebp]
  00788	c6 45 fc 02	 mov	 BYTE PTR __$EHRec$[ebp+8], 2
  0078c	ff d6		 call	 esi
  0078e	8d 8d f0 fe ff
	ff		 lea	 ecx, DWORD PTR _vPushNrmList$[ebp]
  00794	c6 45 fc 01	 mov	 BYTE PTR __$EHRec$[ebp+8], 1
  00798	e8 00 00 00 00	 call	 ?_Tidy@?$vector@UD3DXVECTOR3@@V?$allocator@UD3DXVECTOR3@@@std@@@std@@IAEXXZ ; std::vector<D3DXVECTOR3,std::allocator<D3DXVECTOR3> >::_Tidy
  0079d	8d 4d 9c	 lea	 ecx, DWORD PTR _kAxisBox$[ebp]
  007a0	c6 45 fc 00	 mov	 BYTE PTR __$EHRec$[ebp+8], 0
  007a4	ff 15 00 00 00
	00		 call	 DWORD PTR __imp_??1ioAxisAlignBox@@UAE@XZ
  007aa	83 4d fc ff	 or	 DWORD PTR __$EHRec$[ebp+8], -1
  007ae	8d 8d 58 ff ff
	ff		 lea	 ecx, DWORD PTR _kEntityBox$[ebp]
  007b4	ff d6		 call	 esi
  007b6	b0 01		 mov	 al, 1
  007b8	e9 40 fa ff ff	 jmp	 $LN36@CheckPlayE
_TEXT	ENDS
;	COMDAT text$x
text$x	SEGMENT
__unwindfunclet$?CheckPlayEntityMapCollision@ioMapCollisionHelper@@YA_NPAVioPlayStage@@PAVioGameEntity@@PAVioOpcodeShape@@HPBUD3DXMATRIX@@@Z$0:
  00000	8d 8d 58 ff ff
	ff		 lea	 ecx, DWORD PTR _kEntityBox$[ebp]
  00006	ff 25 00 00 00
	00		 jmp	 DWORD PTR __imp_??1ioOrientBox@@QAE@XZ
__unwindfunclet$?CheckPlayEntityMapCollision@ioMapCollisionHelper@@YA_NPAVioPlayStage@@PAVioGameEntity@@PAVioOpcodeShape@@HPBUD3DXMATRIX@@@Z$1:
  0000c	8d 4d 9c	 lea	 ecx, DWORD PTR _kAxisBox$[ebp]
  0000f	ff 25 00 00 00
	00		 jmp	 DWORD PTR __imp_??1ioAxisAlignBox@@UAE@XZ
__unwindfunclet$?CheckPlayEntityMapCollision@ioMapCollisionHelper@@YA_NPAVioPlayStage@@PAVioGameEntity@@PAVioOpcodeShape@@HPBUD3DXMATRIX@@@Z$2:
  00015	8d 8d f0 fe ff
	ff		 lea	 ecx, DWORD PTR _vPushNrmList$[ebp]
  0001b	e9 00 00 00 00	 jmp	 ??1?$vector@UD3DXVECTOR3@@V?$allocator@UD3DXVECTOR3@@@std@@@std@@QAE@XZ ; std::vector<D3DXVECTOR3,std::allocator<D3DXVECTOR3> >::~vector<D3DXVECTOR3,std::allocator<D3DXVECTOR3> >
__unwindfunclet$?CheckPlayEntityMapCollision@ioMapCollisionHelper@@YA_NPAVioPlayStage@@PAVioGameEntity@@PAVioOpcodeShape@@HPBUD3DXMATRIX@@@Z$3:
  00020	8d 8d 14 ff ff
	ff		 lea	 ecx, DWORD PTR _kMovingBox$[ebp]
  00026	ff 25 00 00 00
	00		 jmp	 DWORD PTR __imp_??1ioOrientBox@@QAE@XZ
__ehhandler$?CheckPlayEntityMapCollision@ioMapCollisionHelper@@YA_NPAVioPlayStage@@PAVioGameEntity@@PAVioOpcodeShape@@HPBUD3DXMATRIX@@@Z:
  0002c	8b 54 24 08	 mov	 edx, DWORD PTR [esp+8]
  00030	8d 42 0c	 lea	 eax, DWORD PTR [edx+12]
  00033	8b 8a d8 fe ff
	ff		 mov	 ecx, DWORD PTR [edx-296]
  00039	33 c8		 xor	 ecx, eax
  0003b	e8 00 00 00 00	 call	 @__security_check_cookie@4
  00040	8b 4a fc	 mov	 ecx, DWORD PTR [edx-4]
  00043	33 c8		 xor	 ecx, eax
  00045	e8 00 00 00 00	 call	 @__security_check_cookie@4
  0004a	b8 00 00 00 00	 mov	 eax, OFFSET __ehfuncinfo$?CheckPlayEntityMapCollision@ioMapCollisionHelper@@YA_NPAVioPlayStage@@PAVioGameEntity@@PAVioOpcodeShape@@HPBUD3DXMATRIX@@@Z
  0004f	e9 00 00 00 00	 jmp	 ___CxxFrameHandler3
text$x	ENDS
?CheckPlayEntityMapCollision@ioMapCollisionHelper@@YA_NPAVioPlayStage@@PAVioGameEntity@@PAVioOpcodeShape@@HPBUD3DXMATRIX@@@Z ENDP ; ioMapCollisionHelper::CheckPlayEntityMapCollision
END
