; Listing generated by Microsoft (R) Optimizing Compiler Version 16.00.30319.01 

	TITLE	D:\Lost Saga For Developer\Youtube\Tutorial\Source\src\LSClient\ioMapEffect.cpp
	.686P
	.XMM
	include listing.inc
	.model	flat

INCLUDELIB MSVCRT
INCLUDELIB OLDNAMES

PUBLIC	??_7ioMapEffect@@6B@				; ioMapEffect::`vftable'
PUBLIC	??0ioMapEffect@@QAE@PAVioEffect@@@Z		; ioMapEffect::ioMapEffect
PUBLIC	??_R4ioMapEffect@@6B@				; ioMapEffect::`RTTI Complete Object Locator'
PUBLIC	??_R0?AVioMapEffect@@@8				; ioMapEffect `RTTI Type Descriptor'
PUBLIC	??_R3ioMapEffect@@8				; ioMapEffect::`RTTI Class Hierarchy Descriptor'
PUBLIC	??_R2ioMapEffect@@8				; ioMapEffect::`RTTI Base Class Array'
PUBLIC	??_R1A@?0A@EA@ioMapEffect@@8			; ioMapEffect::`RTTI Base Class Descriptor at (0,-1,0,64)'
PUBLIC	?Update@ioMapEffect@@UAEXM@Z			; ioMapEffect::Update
PUBLIC	?IsLive@ioMapEffect@@UBE_NXZ			; ioMapEffect::IsLive
EXTRN	??_7type_info@@6B@:QWORD			; type_info::`vftable'
EXTRN	??_EioMapEffect@@UAEPAXI@Z:PROC			; ioMapEffect::`vector deleting destructor'
;	COMDAT ??_R1A@?0A@EA@ioMapEffect@@8
; File d:\lost saga for developer\youtube\tutorial\source\src\lsclient\iomapeffect.cpp
rdata$r	SEGMENT
??_R1A@?0A@EA@ioMapEffect@@8 DD FLAT:??_R0?AVioMapEffect@@@8 ; ioMapEffect::`RTTI Base Class Descriptor at (0,-1,0,64)'
	DD	00H
	DD	00H
	DD	0ffffffffH
	DD	00H
	DD	040H
	DD	FLAT:??_R3ioMapEffect@@8
rdata$r	ENDS
;	COMDAT ??_R2ioMapEffect@@8
rdata$r	SEGMENT
??_R2ioMapEffect@@8 DD FLAT:??_R1A@?0A@EA@ioMapEffect@@8 ; ioMapEffect::`RTTI Base Class Array'
rdata$r	ENDS
;	COMDAT ??_R3ioMapEffect@@8
rdata$r	SEGMENT
??_R3ioMapEffect@@8 DD 00H				; ioMapEffect::`RTTI Class Hierarchy Descriptor'
	DD	00H
	DD	01H
	DD	FLAT:??_R2ioMapEffect@@8
rdata$r	ENDS
;	COMDAT ??_R0?AVioMapEffect@@@8
_DATA	SEGMENT
??_R0?AVioMapEffect@@@8 DD FLAT:??_7type_info@@6B@	; ioMapEffect `RTTI Type Descriptor'
	DD	00H
	DB	'.?AVioMapEffect@@', 00H
_DATA	ENDS
;	COMDAT ??_R4ioMapEffect@@6B@
rdata$r	SEGMENT
??_R4ioMapEffect@@6B@ DD 00H				; ioMapEffect::`RTTI Complete Object Locator'
	DD	00H
	DD	00H
	DD	FLAT:??_R0?AVioMapEffect@@@8
	DD	FLAT:??_R3ioMapEffect@@8
rdata$r	ENDS
;	COMDAT ??_7ioMapEffect@@6B@
CONST	SEGMENT
??_7ioMapEffect@@6B@ DD FLAT:??_R4ioMapEffect@@6B@	; ioMapEffect::`vftable'
	DD	FLAT:?Update@ioMapEffect@@UAEXM@Z
	DD	FLAT:?IsLive@ioMapEffect@@UBE_NXZ
	DD	FLAT:??_EioMapEffect@@UAEPAXI@Z
; Function compile flags: /Ogsp
CONST	ENDS
;	COMDAT ??0ioMapEffect@@QAE@PAVioEffect@@@Z
_TEXT	SEGMENT
_pEffect$ = 8						; size = 4
??0ioMapEffect@@QAE@PAVioEffect@@@Z PROC		; ioMapEffect::ioMapEffect, COMDAT
; _this$ = ecx

; 8    : {

  00000	55		 push	 ebp
  00001	8b ec		 mov	 ebp, esp
  00003	8b c1		 mov	 eax, ecx

; 9    : 	m_pEffect = pEffect;

  00005	8b 4d 08	 mov	 ecx, DWORD PTR _pEffect$[ebp]
  00008	c7 00 00 00 00
	00		 mov	 DWORD PTR [eax], OFFSET ??_7ioMapEffect@@6B@
  0000e	89 48 04	 mov	 DWORD PTR [eax+4], ecx

; 10   : }

  00011	5d		 pop	 ebp
  00012	c2 04 00	 ret	 4
??0ioMapEffect@@QAE@PAVioEffect@@@Z ENDP		; ioMapEffect::ioMapEffect
_TEXT	ENDS
PUBLIC	??1ioMapEffect@@UAE@XZ				; ioMapEffect::~ioMapEffect
EXTRN	__imp_?DestroyEffect@ioEffectFactory@@QAEXPAVioEffect@@@Z:PROC
EXTRN	__imp_?GetSingleton@ioEffectFactory@@SAAAV1@XZ:PROC
EXTRN	__imp_?GetUniqueID@ioNode@@QBEKXZ:PROC
EXTRN	__imp_?GetSceneMgr@ioSceneNode@@QAEPAVioSceneManager@@XZ:PROC
; Function compile flags: /Ogsp
;	COMDAT ??1ioMapEffect@@UAE@XZ
_TEXT	SEGMENT
_pSceneMgr$505083 = -4					; size = 4
??1ioMapEffect@@UAE@XZ PROC				; ioMapEffect::~ioMapEffect, COMDAT
; _this$ = ecx

; 13   : {

  00000	55		 push	 ebp
  00001	8b ec		 mov	 ebp, esp
  00003	51		 push	 ecx
  00004	57		 push	 edi
  00005	8b f9		 mov	 edi, ecx

; 14   : 	if( m_pEffect )

  00007	8b 47 04	 mov	 eax, DWORD PTR [edi+4]
  0000a	c7 07 00 00 00
	00		 mov	 DWORD PTR [edi], OFFSET ??_7ioMapEffect@@6B@
  00010	85 c0		 test	 eax, eax
  00012	74 51		 je	 SHORT $LN3@ioMapEffec

; 15   : 	{
; 16   : 		ioSceneNode *pScene = m_pEffect->GetParentSceneNode();

  00014	8d 48 14	 lea	 ecx, DWORD PTR [eax+20]
  00017	8b 01		 mov	 eax, DWORD PTR [ecx]
  00019	56		 push	 esi
  0001a	ff 50 34	 call	 DWORD PTR [eax+52]
  0001d	8b f0		 mov	 esi, eax

; 17   : 		if( pScene )

  0001f	85 f6		 test	 esi, esi
  00021	74 2c		 je	 SHORT $LN1@ioMapEffec

; 18   : 		{
; 19   : 			pScene->RemoveAndDestroyAllChildren();

  00023	8b 06		 mov	 eax, DWORD PTR [esi]
  00025	8b ce		 mov	 ecx, esi
  00027	ff 90 d0 00 00
	00		 call	 DWORD PTR [eax+208]

; 20   : 
; 21   : 			ioSceneManager *pSceneMgr = pScene->GetSceneMgr();

  0002d	8b ce		 mov	 ecx, esi
  0002f	ff 15 00 00 00
	00		 call	 DWORD PTR __imp_?GetSceneMgr@ioSceneNode@@QAEPAVioSceneManager@@XZ
  00035	89 45 fc	 mov	 DWORD PTR _pSceneMgr$505083[ebp], eax

; 22   : 			if( pSceneMgr )

  00038	85 c0		 test	 eax, eax
  0003a	74 13		 je	 SHORT $LN1@ioMapEffec

; 23   : 			{
; 24   : 				pSceneMgr->DestroySceneNode( pScene->GetUniqueID() );

  0003c	53		 push	 ebx
  0003d	8b 18		 mov	 ebx, DWORD PTR [eax]
  0003f	8b ce		 mov	 ecx, esi
  00041	ff 15 00 00 00
	00		 call	 DWORD PTR __imp_?GetUniqueID@ioNode@@QBEKXZ
  00047	8b 4d fc	 mov	 ecx, DWORD PTR _pSceneMgr$505083[ebp]
  0004a	50		 push	 eax
  0004b	ff 53 24	 call	 DWORD PTR [ebx+36]
  0004e	5b		 pop	 ebx
$LN1@ioMapEffec:

; 25   : 			}
; 26   : 		}
; 27   : 
; 28   : 		g_EffectFactory.DestroyEffect( m_pEffect );

  0004f	ff 77 04	 push	 DWORD PTR [edi+4]
  00052	ff 15 00 00 00
	00		 call	 DWORD PTR __imp_?GetSingleton@ioEffectFactory@@SAAAV1@XZ
  00058	8b c8		 mov	 ecx, eax
  0005a	ff 15 00 00 00
	00		 call	 DWORD PTR __imp_?DestroyEffect@ioEffectFactory@@QAEXPAVioEffect@@@Z

; 29   : 		m_pEffect = NULL;

  00060	83 67 04 00	 and	 DWORD PTR [edi+4], 0
  00064	5e		 pop	 esi
$LN3@ioMapEffec:
  00065	5f		 pop	 edi

; 30   : 	}
; 31   : }

  00066	c9		 leave
  00067	c3		 ret	 0
??1ioMapEffect@@UAE@XZ ENDP				; ioMapEffect::~ioMapEffect
_TEXT	ENDS
PUBLIC	?SetWorldPosition@ioMapEffect@@QAEXABUD3DXVECTOR3@@@Z ; ioMapEffect::SetWorldPosition
; Function compile flags: /Ogsp
;	COMDAT ?SetWorldPosition@ioMapEffect@@QAEXABUD3DXVECTOR3@@@Z
_TEXT	SEGMENT
_vPos$ = 8						; size = 4
?SetWorldPosition@ioMapEffect@@QAEXABUD3DXVECTOR3@@@Z PROC ; ioMapEffect::SetWorldPosition, COMDAT
; _this$ = ecx

; 34   : {

  00000	55		 push	 ebp
  00001	8b ec		 mov	 ebp, esp

; 35   : 	if( m_pEffect )

  00003	83 79 04 00	 cmp	 DWORD PTR [ecx+4], 0
  00007	74 13		 je	 SHORT $LN1@SetWorldPo

; 36   : 	{
; 37   : 		m_pEffect->GetParentNode()->SetPosition( vPos );

  00009	8b 49 04	 mov	 ecx, DWORD PTR [ecx+4]
  0000c	83 c1 14	 add	 ecx, 20			; 00000014H
  0000f	8b 01		 mov	 eax, DWORD PTR [ecx]
  00011	ff 50 30	 call	 DWORD PTR [eax+48]
  00014	8b 10		 mov	 edx, DWORD PTR [eax]
  00016	8b c8		 mov	 ecx, eax

; 38   : 	}
; 39   : }

  00018	5d		 pop	 ebp

; 36   : 	{
; 37   : 		m_pEffect->GetParentNode()->SetPosition( vPos );

  00019	ff 62 14	 jmp	 DWORD PTR [edx+20]
$LN1@SetWorldPo:

; 38   : 	}
; 39   : }

  0001c	5d		 pop	 ebp
  0001d	c2 04 00	 ret	 4
?SetWorldPosition@ioMapEffect@@QAEXABUD3DXVECTOR3@@@Z ENDP ; ioMapEffect::SetWorldPosition
_TEXT	ENDS
PUBLIC	?SetWorldOrientation@ioMapEffect@@QAEXABUD3DXQUATERNION@@@Z ; ioMapEffect::SetWorldOrientation
; Function compile flags: /Ogsp
;	COMDAT ?SetWorldOrientation@ioMapEffect@@QAEXABUD3DXQUATERNION@@@Z
_TEXT	SEGMENT
_qtRot$ = 8						; size = 4
?SetWorldOrientation@ioMapEffect@@QAEXABUD3DXQUATERNION@@@Z PROC ; ioMapEffect::SetWorldOrientation, COMDAT
; _this$ = ecx

; 42   : {

  00000	55		 push	 ebp
  00001	8b ec		 mov	 ebp, esp

; 43   : 	if( m_pEffect )

  00003	83 79 04 00	 cmp	 DWORD PTR [ecx+4], 0
  00007	74 13		 je	 SHORT $LN1@SetWorldOr

; 44   : 	{
; 45   : 		m_pEffect->GetParentNode()->SetOrientation( qtRot );

  00009	8b 49 04	 mov	 ecx, DWORD PTR [ecx+4]
  0000c	83 c1 14	 add	 ecx, 20			; 00000014H
  0000f	8b 01		 mov	 eax, DWORD PTR [ecx]
  00011	ff 50 30	 call	 DWORD PTR [eax+48]
  00014	8b 10		 mov	 edx, DWORD PTR [eax]
  00016	8b c8		 mov	 ecx, eax

; 46   : 	}
; 47   : }

  00018	5d		 pop	 ebp

; 44   : 	{
; 45   : 		m_pEffect->GetParentNode()->SetOrientation( qtRot );

  00019	ff 62 08	 jmp	 DWORD PTR [edx+8]
$LN1@SetWorldOr:

; 46   : 	}
; 47   : }

  0001c	5d		 pop	 ebp
  0001d	c2 04 00	 ret	 4
?SetWorldOrientation@ioMapEffect@@QAEXABUD3DXQUATERNION@@@Z ENDP ; ioMapEffect::SetWorldOrientation
_TEXT	ENDS
PUBLIC	?Rotate@ioMapEffect@@QAEXABUD3DXVECTOR3@@M@Z	; ioMapEffect::Rotate
EXTRN	__fltused:DWORD
; Function compile flags: /Ogsp
;	COMDAT ?Rotate@ioMapEffect@@QAEXABUD3DXVECTOR3@@M@Z
_TEXT	SEGMENT
_vAxis$ = 8						; size = 4
_fDegrees$ = 12						; size = 4
?Rotate@ioMapEffect@@QAEXABUD3DXVECTOR3@@M@Z PROC	; ioMapEffect::Rotate, COMDAT
; _this$ = ecx

; 50   : {

  00000	55		 push	 ebp
  00001	8b ec		 mov	 ebp, esp

; 51   : 	if( m_pEffect )

  00003	83 79 04 00	 cmp	 DWORD PTR [ecx+4], 0
  00007	74 22		 je	 SHORT $LN1@Rotate

; 52   : 	{
; 53   : 		m_pEffect->GetParentNode()->Rotate( vAxis, fDegrees );

  00009	8b 49 04	 mov	 ecx, DWORD PTR [ecx+4]
  0000c	83 c1 14	 add	 ecx, 20			; 00000014H
  0000f	8b 01		 mov	 eax, DWORD PTR [ecx]
  00011	ff 50 30	 call	 DWORD PTR [eax+48]
  00014	f3 0f 10 45 0c	 movss	 xmm0, DWORD PTR _fDegrees$[ebp]
  00019	8b 10		 mov	 edx, DWORD PTR [eax]
  0001b	6a 01		 push	 1
  0001d	51		 push	 ecx
  0001e	f3 0f 11 04 24	 movss	 DWORD PTR [esp], xmm0
  00023	ff 75 08	 push	 DWORD PTR _vAxis$[ebp]
  00026	8b c8		 mov	 ecx, eax
  00028	ff 52 50	 call	 DWORD PTR [edx+80]
$LN1@Rotate:

; 54   : 	}
; 55   : }

  0002b	5d		 pop	 ebp
  0002c	c2 08 00	 ret	 8
?Rotate@ioMapEffect@@QAEXABUD3DXVECTOR3@@M@Z ENDP	; ioMapEffect::Rotate
_TEXT	ENDS
PUBLIC	?SetEffectDirection@ioMapEffect@@QAEXABUD3DXVECTOR3@@@Z ; ioMapEffect::SetEffectDirection
EXTRN	__imp_?ChangeEffectDirection@ioEffect@@QAEXABUD3DXVECTOR3@@_N@Z:PROC
; Function compile flags: /Ogsp
;	COMDAT ?SetEffectDirection@ioMapEffect@@QAEXABUD3DXVECTOR3@@@Z
_TEXT	SEGMENT
_vDir$ = 8						; size = 4
?SetEffectDirection@ioMapEffect@@QAEXABUD3DXVECTOR3@@@Z PROC ; ioMapEffect::SetEffectDirection, COMDAT
; _this$ = ecx

; 58   : {

  00000	55		 push	 ebp
  00001	8b ec		 mov	 ebp, esp

; 59   : 	if( m_pEffect )

  00003	8b 49 04	 mov	 ecx, DWORD PTR [ecx+4]
  00006	85 c9		 test	 ecx, ecx
  00008	74 0b		 je	 SHORT $LN1@SetEffectD

; 60   : 	{
; 61   : 		m_pEffect->ChangeEffectDirection( vDir, false );

  0000a	6a 00		 push	 0
  0000c	ff 75 08	 push	 DWORD PTR _vDir$[ebp]
  0000f	ff 15 00 00 00
	00		 call	 DWORD PTR __imp_?ChangeEffectDirection@ioEffect@@QAEXABUD3DXVECTOR3@@_N@Z
$LN1@SetEffectD:

; 62   : 	}
; 63   : }

  00015	5d		 pop	 ebp
  00016	c2 04 00	 ret	 4
?SetEffectDirection@ioMapEffect@@QAEXABUD3DXVECTOR3@@@Z ENDP ; ioMapEffect::SetEffectDirection
_TEXT	ENDS
PUBLIC	?SetVisible@ioMapEffect@@QAEX_N@Z		; ioMapEffect::SetVisible
; Function compile flags: /Ogsp
;	COMDAT ?SetVisible@ioMapEffect@@QAEX_N@Z
_TEXT	SEGMENT
_bVisible$ = 8						; size = 1
?SetVisible@ioMapEffect@@QAEX_N@Z PROC			; ioMapEffect::SetVisible, COMDAT
; _this$ = ecx

; 66   : {

  00000	55		 push	 ebp
  00001	8b ec		 mov	 ebp, esp

; 67   : 	if( m_pEffect )

  00003	83 79 04 00	 cmp	 DWORD PTR [ecx+4], 0
  00007	74 0b		 je	 SHORT $LN1@SetVisible

; 68   : 	{
; 69   : 		m_pEffect->SetVisible( bVisible );

  00009	8b 49 04	 mov	 ecx, DWORD PTR [ecx+4]
  0000c	83 c1 14	 add	 ecx, 20			; 00000014H
  0000f	8b 01		 mov	 eax, DWORD PTR [ecx]

; 70   : 	}
; 71   : }

  00011	5d		 pop	 ebp

; 68   : 	{
; 69   : 		m_pEffect->SetVisible( bVisible );

  00012	ff 20		 jmp	 DWORD PTR [eax]
$LN1@SetVisible:

; 70   : 	}
; 71   : }

  00014	5d		 pop	 ebp
  00015	c2 04 00	 ret	 4
?SetVisible@ioMapEffect@@QAEX_N@Z ENDP			; ioMapEffect::SetVisible
_TEXT	ENDS
PUBLIC	__real@406fe00000000000
PUBLIC	?SetAlphaRate@ioMapEffect@@QAEXH@Z		; ioMapEffect::SetAlphaRate
EXTRN	__imp_?SetExtendColorRate@ioEffect@@QAEXM_N@Z:PROC
;	COMDAT __real@406fe00000000000
CONST	SEGMENT
__real@406fe00000000000 DQ 0406fe00000000000r	; 255
; Function compile flags: /Ogsp
CONST	ENDS
;	COMDAT ?SetAlphaRate@ioMapEffect@@QAEXH@Z
_TEXT	SEGMENT
_iAlpha$ = 8						; size = 4
?SetAlphaRate@ioMapEffect@@QAEXH@Z PROC			; ioMapEffect::SetAlphaRate, COMDAT
; _this$ = ecx

; 74   : {

  00000	55		 push	 ebp
  00001	8b ec		 mov	 ebp, esp

; 75   : 	if( m_pEffect )

  00003	8b 49 04	 mov	 ecx, DWORD PTR [ecx+4]
  00006	85 c9		 test	 ecx, ecx
  00008	74 26		 je	 SHORT $LN1@SetAlphaRa

; 76   : 	{
; 77   : 		m_pEffect->SetExtendColorRate( (float)iAlpha / 255.0f );

  0000a	66 0f 6e 45 08	 movd	 xmm0, DWORD PTR _iAlpha$[ebp]
  0000f	0f 5b c0	 cvtdq2ps xmm0, xmm0
  00012	6a 00		 push	 0
  00014	f3 0f 5a c0	 cvtss2sd xmm0, xmm0
  00018	f2 0f 5e 05 00
	00 00 00	 divsd	 xmm0, QWORD PTR __real@406fe00000000000
  00020	51		 push	 ecx
  00021	f2 0f 5a c0	 cvtsd2ss xmm0, xmm0
  00025	f3 0f 11 04 24	 movss	 DWORD PTR [esp], xmm0
  0002a	ff 15 00 00 00
	00		 call	 DWORD PTR __imp_?SetExtendColorRate@ioEffect@@QAEXM_N@Z
$LN1@SetAlphaRa:

; 78   : 	}
; 79   : }

  00030	5d		 pop	 ebp
  00031	c2 04 00	 ret	 4
?SetAlphaRate@ioMapEffect@@QAEXH@Z ENDP			; ioMapEffect::SetAlphaRate
_TEXT	ENDS
PUBLIC	?SetRenderQueueGroup@ioMapEffect@@QAEXW4RenderGroupID@@@Z ; ioMapEffect::SetRenderQueueGroup
; Function compile flags: /Ogsp
;	COMDAT ?SetRenderQueueGroup@ioMapEffect@@QAEXW4RenderGroupID@@@Z
_TEXT	SEGMENT
_eGroup$ = 8						; size = 4
?SetRenderQueueGroup@ioMapEffect@@QAEXW4RenderGroupID@@@Z PROC ; ioMapEffect::SetRenderQueueGroup, COMDAT
; _this$ = ecx

; 82   : {

  00000	55		 push	 ebp
  00001	8b ec		 mov	 ebp, esp

; 83   : 	if( m_pEffect )

  00003	83 79 04 00	 cmp	 DWORD PTR [ecx+4], 0
  00007	74 0c		 je	 SHORT $LN1@SetRenderQ

; 84   : 	{
; 85   : 		m_pEffect->SetRenderQueueGroup( eGroup );

  00009	8b 49 04	 mov	 ecx, DWORD PTR [ecx+4]
  0000c	83 c1 14	 add	 ecx, 20			; 00000014H
  0000f	8b 01		 mov	 eax, DWORD PTR [ecx]

; 86   : 	}
; 87   : }

  00011	5d		 pop	 ebp

; 84   : 	{
; 85   : 		m_pEffect->SetRenderQueueGroup( eGroup );

  00012	ff 60 24	 jmp	 DWORD PTR [eax+36]
$LN1@SetRenderQ:

; 86   : 	}
; 87   : }

  00015	5d		 pop	 ebp
  00016	c2 04 00	 ret	 4
?SetRenderQueueGroup@ioMapEffect@@QAEXW4RenderGroupID@@@Z ENDP ; ioMapEffect::SetRenderQueueGroup
_TEXT	ENDS
PUBLIC	?ReserveEffectStop@ioMapEffect@@QAEXMM@Z	; ioMapEffect::ReserveEffectStop
EXTRN	__imp_?ReserveEffectStop@ioEffect@@QAEXMMM@Z:PROC
; Function compile flags: /Ogsp
;	COMDAT ?ReserveEffectStop@ioMapEffect@@QAEXMM@Z
_TEXT	SEGMENT
_fStopDuration$ = 8					; size = 4
_fStopLooseRate$ = 12					; size = 4
?ReserveEffectStop@ioMapEffect@@QAEXMM@Z PROC		; ioMapEffect::ReserveEffectStop, COMDAT
; _this$ = ecx

; 90   : {

  00000	55		 push	 ebp
  00001	8b ec		 mov	 ebp, esp

; 91   : 	if( m_pEffect )

  00003	8b 49 04	 mov	 ecx, DWORD PTR [ecx+4]
  00006	85 c9		 test	 ecx, ecx
  00008	74 27		 je	 SHORT $LN1@ReserveEff

; 92   : 	{
; 93   : 		m_pEffect->ReserveEffectStop( 0.0f, fStopDuration, fStopLooseRate );

  0000a	f3 0f 10 45 0c	 movss	 xmm0, DWORD PTR _fStopLooseRate$[ebp]
  0000f	83 ec 0c	 sub	 esp, 12			; 0000000cH
  00012	f3 0f 11 44 24
	08		 movss	 DWORD PTR [esp+8], xmm0
  00018	f3 0f 10 45 08	 movss	 xmm0, DWORD PTR _fStopDuration$[ebp]
  0001d	f3 0f 11 44 24
	04		 movss	 DWORD PTR [esp+4], xmm0
  00023	0f 57 c0	 xorps	 xmm0, xmm0
  00026	f3 0f 11 04 24	 movss	 DWORD PTR [esp], xmm0
  0002b	ff 15 00 00 00
	00		 call	 DWORD PTR __imp_?ReserveEffectStop@ioEffect@@QAEXMMM@Z
$LN1@ReserveEff:

; 94   : 	}
; 95   : }

  00031	5d		 pop	 ebp
  00032	c2 08 00	 ret	 8
?ReserveEffectStop@ioMapEffect@@QAEXMM@Z ENDP		; ioMapEffect::ReserveEffectStop
_TEXT	ENDS
PUBLIC	?EndEffectForce@ioMapEffect@@QAEXXZ		; ioMapEffect::EndEffectForce
EXTRN	__imp_?EndEffectForce@ioEffect@@QAEXXZ:PROC
; Function compile flags: /Ogsp
;	COMDAT ?EndEffectForce@ioMapEffect@@QAEXXZ
_TEXT	SEGMENT
?EndEffectForce@ioMapEffect@@QAEXXZ PROC		; ioMapEffect::EndEffectForce, COMDAT
; _this$ = ecx

; 99   : 	if( m_pEffect )

  00000	8b 49 04	 mov	 ecx, DWORD PTR [ecx+4]
  00003	85 c9		 test	 ecx, ecx
  00005	74 06		 je	 SHORT $LN1@EndEffectF

; 100  : 	{
; 101  : 		m_pEffect->EndEffectForce();

  00007	ff 25 00 00 00
	00		 jmp	 DWORD PTR __imp_?EndEffectForce@ioEffect@@QAEXXZ
$LN1@EndEffectF:

; 102  : 	}
; 103  : }

  0000d	c3		 ret	 0
?EndEffectForce@ioMapEffect@@QAEXXZ ENDP		; ioMapEffect::EndEffectForce
_TEXT	ENDS
PUBLIC	?EndEffectGrace@ioMapEffect@@QAEXXZ		; ioMapEffect::EndEffectGrace
EXTRN	__imp_?EndEffectGrace@ioEffect@@QAEXXZ:PROC
; Function compile flags: /Ogsp
;	COMDAT ?EndEffectGrace@ioMapEffect@@QAEXXZ
_TEXT	SEGMENT
?EndEffectGrace@ioMapEffect@@QAEXXZ PROC		; ioMapEffect::EndEffectGrace, COMDAT
; _this$ = ecx

; 107  : 	if( m_pEffect )

  00000	8b 49 04	 mov	 ecx, DWORD PTR [ecx+4]
  00003	85 c9		 test	 ecx, ecx
  00005	74 06		 je	 SHORT $LN1@EndEffectG

; 108  : 	{
; 109  : 		m_pEffect->EndEffectGrace();

  00007	ff 25 00 00 00
	00		 jmp	 DWORD PTR __imp_?EndEffectGrace@ioEffect@@QAEXXZ
$LN1@EndEffectG:

; 110  : 	}
; 111  : }

  0000d	c3		 ret	 0
?EndEffectGrace@ioMapEffect@@QAEXXZ ENDP		; ioMapEffect::EndEffectGrace
_TEXT	ENDS
PUBLIC	?GetUniqueID@ioMapEffect@@QBEKXZ		; ioMapEffect::GetUniqueID
EXTRN	__imp_?GetUniqueID@ioMovableObject@@QBEKXZ:PROC
; Function compile flags: /Ogsp
;	COMDAT ?GetUniqueID@ioMapEffect@@QBEKXZ
_TEXT	SEGMENT
?GetUniqueID@ioMapEffect@@QBEKXZ PROC			; ioMapEffect::GetUniqueID, COMDAT
; _this$ = ecx

; 115  : 	if( m_pEffect )

  00000	8b 41 04	 mov	 eax, DWORD PTR [ecx+4]
  00003	85 c0		 test	 eax, eax
  00005	74 09		 je	 SHORT $LN1@GetUniqueI

; 116  : 		return m_pEffect->GetUniqueID();

  00007	8d 48 14	 lea	 ecx, DWORD PTR [eax+20]
  0000a	ff 25 00 00 00
	00		 jmp	 DWORD PTR __imp_?GetUniqueID@ioMovableObject@@QBEKXZ
$LN1@GetUniqueI:

; 117  : 
; 118  : 	return -1;

  00010	83 c8 ff	 or	 eax, -1

; 119  : }

  00013	c3		 ret	 0
?GetUniqueID@ioMapEffect@@QBEKXZ ENDP			; ioMapEffect::GetUniqueID
_TEXT	ENDS
PUBLIC	?GetWorldPosition@ioMapEffect@@QBEABUD3DXVECTOR3@@XZ ; ioMapEffect::GetWorldPosition
; Function compile flags: /Ogsp
;	COMDAT ?GetWorldPosition@ioMapEffect@@QBEABUD3DXVECTOR3@@XZ
_TEXT	SEGMENT
?GetWorldPosition@ioMapEffect@@QBEABUD3DXVECTOR3@@XZ PROC ; ioMapEffect::GetWorldPosition, COMDAT
; _this$ = ecx

; 123  : 	return m_pEffect->GetParentNode()->GetDerivedPosition();

  00000	8b 49 04	 mov	 ecx, DWORD PTR [ecx+4]
  00003	83 c1 14	 add	 ecx, 20			; 00000014H
  00006	8b 01		 mov	 eax, DWORD PTR [ecx]
  00008	ff 50 30	 call	 DWORD PTR [eax+48]
  0000b	8b 10		 mov	 edx, DWORD PTR [eax]
  0000d	8b c8		 mov	 ecx, eax
  0000f	ff 62 7c	 jmp	 DWORD PTR [edx+124]
?GetWorldPosition@ioMapEffect@@QBEABUD3DXVECTOR3@@XZ ENDP ; ioMapEffect::GetWorldPosition
_TEXT	ENDS
PUBLIC	?GetWorldOrientation@ioMapEffect@@QBEABUD3DXQUATERNION@@XZ ; ioMapEffect::GetWorldOrientation
; Function compile flags: /Ogsp
;	COMDAT ?GetWorldOrientation@ioMapEffect@@QBEABUD3DXQUATERNION@@XZ
_TEXT	SEGMENT
?GetWorldOrientation@ioMapEffect@@QBEABUD3DXQUATERNION@@XZ PROC ; ioMapEffect::GetWorldOrientation, COMDAT
; _this$ = ecx

; 128  : 	return m_pEffect->GetParentNode()->GetDerivedOrientation();

  00000	8b 49 04	 mov	 ecx, DWORD PTR [ecx+4]
  00003	83 c1 14	 add	 ecx, 20			; 00000014H
  00006	8b 01		 mov	 eax, DWORD PTR [ecx]
  00008	ff 50 30	 call	 DWORD PTR [eax+48]
  0000b	8b 10		 mov	 edx, DWORD PTR [eax]
  0000d	8b c8		 mov	 ecx, eax
  0000f	ff 62 78	 jmp	 DWORD PTR [edx+120]
?GetWorldOrientation@ioMapEffect@@QBEABUD3DXQUATERNION@@XZ ENDP ; ioMapEffect::GetWorldOrientation
_TEXT	ENDS
PUBLIC	?Translate@ioMapEffect@@QAEXABUD3DXVECTOR3@@@Z	; ioMapEffect::Translate
; Function compile flags: /Ogsp
;	COMDAT ?Translate@ioMapEffect@@QAEXABUD3DXVECTOR3@@@Z
_TEXT	SEGMENT
_vMove$ = 8						; size = 4
?Translate@ioMapEffect@@QAEXABUD3DXVECTOR3@@@Z PROC	; ioMapEffect::Translate, COMDAT
; _this$ = ecx

; 132  : {

  00000	55		 push	 ebp
  00001	8b ec		 mov	 ebp, esp

; 133  : 	if( m_pEffect )

  00003	83 79 04 00	 cmp	 DWORD PTR [ecx+4], 0
  00007	74 17		 je	 SHORT $LN1@Translate

; 134  : 		m_pEffect->GetParentNode()->Translate( vMove );

  00009	8b 49 04	 mov	 ecx, DWORD PTR [ecx+4]
  0000c	83 c1 14	 add	 ecx, 20			; 00000014H
  0000f	8b 01		 mov	 eax, DWORD PTR [ecx]
  00011	ff 50 30	 call	 DWORD PTR [eax+48]
  00014	8b 10		 mov	 edx, DWORD PTR [eax]
  00016	6a 01		 push	 1
  00018	ff 75 08	 push	 DWORD PTR _vMove$[ebp]
  0001b	8b c8		 mov	 ecx, eax
  0001d	ff 52 3c	 call	 DWORD PTR [edx+60]
$LN1@Translate:

; 135  : }

  00020	5d		 pop	 ebp
  00021	c2 04 00	 ret	 4
?Translate@ioMapEffect@@QAEXABUD3DXVECTOR3@@@Z ENDP	; ioMapEffect::Translate
; Function compile flags: /Ogsp
_TEXT	ENDS
;	COMDAT ?Update@ioMapEffect@@UAEXM@Z
_TEXT	SEGMENT
_fTimeGap$ = 8						; size = 4
?Update@ioMapEffect@@UAEXM@Z PROC			; ioMapEffect::Update, COMDAT
; _this$ = ecx

; 138  : {

  00000	55		 push	 ebp
  00001	8b ec		 mov	 ebp, esp

; 139  : 	if( m_pEffect )

  00003	83 79 04 00	 cmp	 DWORD PTR [ecx+4], 0
  00007	74 16		 je	 SHORT $LN1@Update

; 140  : 	{
; 141  : 		m_pEffect->Update( fTimeGap );

  00009	8b 49 04	 mov	 ecx, DWORD PTR [ecx+4]
  0000c	f3 0f 10 45 08	 movss	 xmm0, DWORD PTR _fTimeGap$[ebp]
  00011	83 c1 14	 add	 ecx, 20			; 00000014H
  00014	8b 01		 mov	 eax, DWORD PTR [ecx]
  00016	51		 push	 ecx
  00017	f3 0f 11 04 24	 movss	 DWORD PTR [esp], xmm0
  0001c	ff 50 40	 call	 DWORD PTR [eax+64]
$LN1@Update:

; 142  : 	}
; 143  : }

  0001f	5d		 pop	 ebp
  00020	c2 04 00	 ret	 4
?Update@ioMapEffect@@UAEXM@Z ENDP			; ioMapEffect::Update
_TEXT	ENDS
EXTRN	__imp_?IsLive@ioEffect@@QBE_NXZ:PROC
; Function compile flags: /Ogsp
;	COMDAT ?IsLive@ioMapEffect@@UBE_NXZ
_TEXT	SEGMENT
?IsLive@ioMapEffect@@UBE_NXZ PROC			; ioMapEffect::IsLive, COMDAT
; _this$ = ecx

; 147  : 	if( m_pEffect )

  00000	8b 49 04	 mov	 ecx, DWORD PTR [ecx+4]
  00003	85 c9		 test	 ecx, ecx
  00005	74 06		 je	 SHORT $LN1@IsLive

; 148  : 		return m_pEffect->IsLive();

  00007	ff 25 00 00 00
	00		 jmp	 DWORD PTR __imp_?IsLive@ioEffect@@QBE_NXZ
$LN1@IsLive:

; 149  : 
; 150  : 	return false;

  0000d	32 c0		 xor	 al, al

; 151  : }

  0000f	c3		 ret	 0
?IsLive@ioMapEffect@@UBE_NXZ ENDP			; ioMapEffect::IsLive
_TEXT	ENDS
EXTRN	??3@YAXPAX@Z:PROC				; operator delete
; Function compile flags: /Ogsp
;	COMDAT ??_GioMapEffect@@UAEPAXI@Z
_TEXT	SEGMENT
___flags$ = 8						; size = 4
??_GioMapEffect@@UAEPAXI@Z PROC				; ioMapEffect::`scalar deleting destructor', COMDAT
; _this$ = ecx
  00000	55		 push	 ebp
  00001	8b ec		 mov	 ebp, esp
  00003	56		 push	 esi
  00004	8b f1		 mov	 esi, ecx
  00006	e8 00 00 00 00	 call	 ??1ioMapEffect@@UAE@XZ	; ioMapEffect::~ioMapEffect
  0000b	f6 45 08 01	 test	 BYTE PTR ___flags$[ebp], 1
  0000f	74 07		 je	 SHORT $LN1@scalar
  00011	56		 push	 esi
  00012	e8 00 00 00 00	 call	 ??3@YAXPAX@Z		; operator delete
  00017	59		 pop	 ecx
$LN1@scalar:
  00018	8b c6		 mov	 eax, esi
  0001a	5e		 pop	 esi
  0001b	5d		 pop	 ebp
  0001c	c2 04 00	 ret	 4
??_GioMapEffect@@UAEPAXI@Z ENDP				; ioMapEffect::`scalar deleting destructor'
_TEXT	ENDS
END
