; Listing generated by Microsoft (R) Optimizing Compiler Version 16.00.30319.01 

	TITLE	D:\Lost Saga For Developer\Youtube\Tutorial\Source\src\LSClient\GUI\ioMessageBox.cpp
	.686P
	.XMM
	include listing.inc
	.model	flat

INCLUDELIB MSVCRT
INCLUDELIB OLDNAMES

PUBLIC	??_7ioMessageBoxBtn@@6B@			; ioMessageBoxBtn::`vftable'
PUBLIC	??0ioMessageBoxBtn@@QAE@XZ			; ioMessageBoxBtn::ioMessageBoxBtn
PUBLIC	??_R4ioMessageBoxBtn@@6B@			; ioMessageBoxBtn::`RTTI Complete Object Locator'
PUBLIC	??_R0?AVioMessageBoxBtn@@@8			; ioMessageBoxBtn `RTTI Type Descriptor'
PUBLIC	??_R3ioMessageBoxBtn@@8				; ioMessageBoxBtn::`RTTI Class Hierarchy Descriptor'
PUBLIC	??_R2ioMessageBoxBtn@@8				; ioMessageBoxBtn::`RTTI Base Class Array'
PUBLIC	??_R1A@?0A@EA@ioMessageBoxBtn@@8		; ioMessageBoxBtn::`RTTI Base Class Descriptor at (0,-1,0,64)'
PUBLIC	??_R1A@?0A@EA@ioButton@@8			; ioButton::`RTTI Base Class Descriptor at (0,-1,0,64)'
PUBLIC	??_R0?AVioButton@@@8				; ioButton `RTTI Type Descriptor'
PUBLIC	??_R3ioButton@@8				; ioButton::`RTTI Class Hierarchy Descriptor'
PUBLIC	??_R2ioButton@@8				; ioButton::`RTTI Base Class Array'
PUBLIC	??_R1A@?0A@EA@ioWnd@@8				; ioWnd::`RTTI Base Class Descriptor at (0,-1,0,64)'
PUBLIC	??_R0?AVioWnd@@@8				; ioWnd `RTTI Type Descriptor'
PUBLIC	??_R3ioWnd@@8					; ioWnd::`RTTI Class Hierarchy Descriptor'
PUBLIC	??_R2ioWnd@@8					; ioWnd::`RTTI Base Class Array'
PUBLIC	?ParseExtraInfo@ioMessageBoxBtn@@UAEXAAVioXMLElement@@@Z ; ioMessageBoxBtn::ParseExtraInfo
EXTRN	__imp_??1ioHashString@@QAE@XZ:PROC
EXTRN	__imp_??1ioButton@@UAE@XZ:PROC
EXTRN	__imp_??0ioHashString@@QAE@XZ:PROC
EXTRN	__imp_??0ioButton@@QAE@XZ:PROC
EXTRN	___CxxFrameHandler3:PROC
EXTRN	@__security_check_cookie@4:PROC
EXTRN	__EH_epilog3:PROC
EXTRN	__EH_prolog3:PROC
EXTRN	??_7type_info@@6B@:QWORD			; type_info::`vftable'
EXTRN	?AddRenderFrame@ioButton@@UAEXABVioHashString@@PAVioUIRenderFrame@@@Z:PROC ; ioButton::AddRenderFrame
EXTRN	?AddRenderImage@ioButton@@UAEXABVioHashString@@PAVioUIRenderImage@@@Z:PROC ; ioButton::AddRenderImage
EXTRN	?AddTooltipHelp@ioWnd@@UAEXABVioHashString@@00@Z:PROC ; ioWnd::AddTooltipHelp
EXTRN	?AddNamedRenderImage@ioWnd@@UAEXABVioHashString@@PAVioUIRenderImage@@@Z:PROC ; ioWnd::AddNamedRenderImage
EXTRN	?RemoveNamedRenderImage@ioWnd@@UAEXABVioHashString@@@Z:PROC ; ioWnd::RemoveNamedRenderImage
EXTRN	?GetNamedRenderImage@ioWnd@@UBEPAVioUIRenderImage@@ABVioHashString@@@Z:PROC ; ioWnd::GetNamedRenderImage
EXTRN	?SetWindowAlpha@ioButton@@UAEXH@Z:PROC		; ioButton::SetWindowAlpha
EXTRN	?SetActive@ioWnd@@UAEXXZ:PROC			; ioWnd::SetActive
EXTRN	?SetInActive@ioWnd@@UAEXXZ:PROC			; ioWnd::SetInActive
EXTRN	?ClearElementImageList@ioWnd@@UAEXXZ:PROC	; ioWnd::ClearElementImageList
EXTRN	?SetSize@ioWnd@@UAEXHH@Z:PROC			; ioWnd::SetSize
EXTRN	?SetPositionToDefault@ioWnd@@UAEXHH_N0@Z:PROC	; ioWnd::SetPositionToDefault
EXTRN	?IsNeedProcess@ioWnd@@UBE_NXZ:PROC		; ioWnd::IsNeedProcess
EXTRN	?IsCanMouseReaction@ioWnd@@UBE_NXZ:PROC		; ioWnd::IsCanMouseReaction
EXTRN	?AddChild@ioWnd@@UAEXPAV1@@Z:PROC		; ioWnd::AddChild
EXTRN	?DeleteChild@ioWnd@@UAEXK@Z:PROC		; ioWnd::DeleteChild
EXTRN	?DeleteAllChild@ioWnd@@UAEXXZ:PROC		; ioWnd::DeleteAllChild
EXTRN	?OnRenderShowAndHide@ioWnd@@MAE_NXZ:PROC	; ioWnd::OnRenderShowAndHide
EXTRN	?OnRenderShowAndHideByDefault@ioWnd@@MAE_NK@Z:PROC ; ioWnd::OnRenderShowAndHideByDefault
EXTRN	?OnRenderShowAndHideByTop@ioWnd@@MAE_NK@Z:PROC	; ioWnd::OnRenderShowAndHideByTop
EXTRN	?OnRenderShowAndHideByDown@ioWnd@@MAE_NK@Z:PROC	; ioWnd::OnRenderShowAndHideByDown
EXTRN	?OnRender@ioButton@@MAEXXZ:PROC			; ioButton::OnRender
EXTRN	?OnRenderAfterChild@ioWnd@@MAEXXZ:PROC		; ioWnd::OnRenderAfterChild
EXTRN	?OnProcess@ioWnd@@MAEXM@Z:PROC			; ioWnd::OnProcess
EXTRN	?OnMouseProcess@ioWnd@@MAEXABVioMouse@@@Z:PROC	; ioWnd::OnMouseProcess
EXTRN	?CheckFrameReSize@ioButton@@MAEXHHHH@Z:PROC	; ioButton::CheckFrameReSize
EXTRN	?RenderImageList@ioWnd@@MAEXHHW4UIRenderType@@@Z:PROC ; ioWnd::RenderImageList
EXTRN	?iwm_create@ioWnd@@UAEXXZ:PROC			; ioWnd::iwm_create
EXTRN	?iwm_destroy@ioWnd@@UAEXXZ:PROC			; ioWnd::iwm_destroy
EXTRN	?iwm_lbuttondown@ioButton@@UAEXABVioMouse@@@Z:PROC ; ioButton::iwm_lbuttondown
EXTRN	?iwm_lbuttonup@ioButton@@UAEXABVioMouse@@@Z:PROC ; ioButton::iwm_lbuttonup
EXTRN	?iwm_lbuttonDBLCLK@ioButton@@UAEXABVioMouse@@@Z:PROC ; ioButton::iwm_lbuttonDBLCLK
EXTRN	?iwm_rbuttondown@ioButton@@UAEXABVioMouse@@@Z:PROC ; ioButton::iwm_rbuttondown
EXTRN	?iwm_rbuttonup@ioButton@@UAEXABVioMouse@@@Z:PROC ; ioButton::iwm_rbuttonup
EXTRN	?iwm_command@ioWnd@@UAEXPAV1@HK@Z:PROC		; ioWnd::iwm_command
EXTRN	?iwm_mouseover@ioButton@@UAEXABVioMouse@@@Z:PROC ; ioButton::iwm_mouseover
EXTRN	?iwm_mousemove@ioWnd@@UAEXABVioMouse@@@Z:PROC	; ioWnd::iwm_mousemove
EXTRN	?iwm_mouseleave@ioWnd@@UAEXABVioMouse@@@Z:PROC	; ioWnd::iwm_mouseleave
EXTRN	?iwm_vscroll@ioWnd@@UAEXKH@Z:PROC		; ioWnd::iwm_vscroll
EXTRN	?iwm_wheel@ioWnd@@UAEXH@Z:PROC			; ioWnd::iwm_wheel
EXTRN	?iwm_show@ioWnd@@UAEXXZ:PROC			; ioWnd::iwm_show
EXTRN	?iwm_hide@ioWnd@@UAEXXZ:PROC			; ioWnd::iwm_hide
EXTRN	?iwm_esc@ioWnd@@UAE_NXZ:PROC			; ioWnd::iwm_esc
EXTRN	?iwm_spacebar@ioWnd@@UAE_NXZ:PROC		; ioWnd::iwm_spacebar
EXTRN	?iwm_gototop@ioWnd@@UAEXXZ:PROC			; ioWnd::iwm_gototop
EXTRN	?iwm_dragenter@ioWnd@@UAE?AW4IWDropEffect@@PAVioDragItem@@ABVioMouse@@@Z:PROC ; ioWnd::iwm_dragenter
EXTRN	?iwm_dragover@ioWnd@@UAE?AW4IWDropEffect@@PAVioDragItem@@ABVioMouse@@@Z:PROC ; ioWnd::iwm_dragover
EXTRN	?iwm_dragleave@ioWnd@@UAEXXZ:PROC		; ioWnd::iwm_dragleave
EXTRN	?iwm_dropitem@ioWnd@@UAE_NPAVioDragItem@@ABVioMouse@@PAV1@@Z:PROC ; ioWnd::iwm_dropitem
EXTRN	?iwm_dropdone@ioWnd@@UAEXPAVioDragItem@@PAV1@_N@Z:PROC ; ioWnd::iwm_dropdone
EXTRN	?IsEXType@ioWnd@@UBE_NXZ:PROC			; ioWnd::IsEXType
EXTRN	?GetWndType@ioButton@@UBEKXZ:PROC		; ioButton::GetWndType
EXTRN	?RenderWnd@ioWnd@@UAEXXZ:PROC			; ioWnd::RenderWnd
EXTRN	?SetIDEX@ioWnd@@UAEXAAK_N@Z:PROC		; ioWnd::SetIDEX
EXTRN	?ParseXML@ioWnd@@UAEXAAVioXMLElement@@@Z:PROC	; ioWnd::ParseXML
EXTRN	?GetHeaderFileName@ioButton@@UAEPBDXZ:PROC	; ioButton::GetHeaderFileName
EXTRN	?GetTemplateName@ioButton@@UAEPBDXZ:PROC	; ioButton::GetTemplateName
EXTRN	?GetDefClassName@ioButton@@UBEPBDXZ:PROC	; ioButton::GetDefClassName
EXTRN	?_Clone@ioButton@@UAEPAVioWnd@@XZ:PROC		; ioButton::_Clone
EXTRN	?Copy@ioButton@@UAEXPAVioWnd@@@Z:PROC		; ioButton::Copy
EXTRN	?Save@ioWnd@@UAE_NAAVioXMLElement@@@Z:PROC	; ioWnd::Save
EXTRN	?SetSaveData@ioButton@@UAEXAAVioXMLElement@@@Z:PROC ; ioButton::SetSaveData
EXTRN	?SetPosX@ioWnd@@UAEXH@Z:PROC			; ioWnd::SetPosX
EXTRN	?SetPosY@ioWnd@@UAEXH@Z:PROC			; ioWnd::SetPosY
EXTRN	?SetWidth@ioWnd@@UAEXH@Z:PROC			; ioWnd::SetWidth
EXTRN	?SetHeight@ioWnd@@UAEXH@Z:PROC			; ioWnd::SetHeight
EXTRN	?GetNumFixedRenderFrame@ioButton@@UBEHXZ:PROC	; ioButton::GetNumFixedRenderFrame
EXTRN	?GetFixedRenderFrameType@ioButton@@UAEPBDH@Z:PROC ; ioButton::GetFixedRenderFrameType
EXTRN	?GetRenderFrame@ioButton@@UAEPAPAVioUIRenderElement@@PBD@Z:PROC ; ioButton::GetRenderFrame
EXTRN	?GetNumFixedRenderImage@ioButton@@UBEHXZ:PROC	; ioButton::GetNumFixedRenderImage
EXTRN	?GetFixedRenderImageType@ioButton@@UAEPBDH@Z:PROC ; ioButton::GetFixedRenderImageType
EXTRN	?GetRenderImage@ioButton@@UAEPAPAVioUIRenderElement@@PBD@Z:PROC ; ioButton::GetRenderImage
EXTRN	?AddEffect@ioWnd@@UAEXABVioHashString@@PAVioUI3DEffectRender@@@Z:PROC ; ioWnd::AddEffect
EXTRN	?GetEffect@ioWnd@@UAEPAVioUI3DEffectRender@@VioHashString@@@Z:PROC ; ioWnd::GetEffect
EXTRN	??_EioMessageBoxBtn@@UAEPAXI@Z:PROC		; ioMessageBoxBtn::`vector deleting destructor'
EXTRN	?OnDrawNormal@ioButton@@MAEXHH@Z:PROC		; ioButton::OnDrawNormal
EXTRN	?OnDrawOvered@ioButton@@MAEXHH@Z:PROC		; ioButton::OnDrawOvered
EXTRN	?OnDrawOveredAdd@ioButton@@MAEXHH@Z:PROC	; ioButton::OnDrawOveredAdd
EXTRN	?OnDrawPushed@ioButton@@MAEXHH@Z:PROC		; ioButton::OnDrawPushed
EXTRN	?OnDrawDisabled@ioButton@@MAEXHH@Z:PROC		; ioButton::OnDrawDisabled
EXTRN	?OnDrawExDisabledNormal@ioButton@@MAEXHH@Z:PROC	; ioButton::OnDrawExDisabledNormal
EXTRN	?OnDrawExDisabledOvered@ioButton@@MAEXHH@Z:PROC	; ioButton::OnDrawExDisabledOvered
EXTRN	?OnDrawExDisabledPushed@ioButton@@MAEXHH@Z:PROC	; ioButton::OnDrawExDisabledPushed
EXTRN	?OnDrawBack@ioButton@@MAEXHH@Z:PROC		; ioButton::OnDrawBack
EXTRN	?OnDrawNormalList@ioButton@@MAEXHH@Z:PROC	; ioButton::OnDrawNormalList
EXTRN	?OnDrawDisableList@ioButton@@MAEXHH@Z:PROC	; ioButton::OnDrawDisableList
;	COMDAT ??_R2ioWnd@@8
; File d:\lost saga for developer\youtube\tutorial\source\src\lsclient\gui\iomessagebox.cpp
rdata$r	SEGMENT
??_R2ioWnd@@8 DD FLAT:??_R1A@?0A@EA@ioWnd@@8		; ioWnd::`RTTI Base Class Array'
rdata$r	ENDS
;	COMDAT ??_R3ioWnd@@8
rdata$r	SEGMENT
??_R3ioWnd@@8 DD 00H					; ioWnd::`RTTI Class Hierarchy Descriptor'
	DD	00H
	DD	01H
	DD	FLAT:??_R2ioWnd@@8
rdata$r	ENDS
;	COMDAT ??_R0?AVioWnd@@@8
_DATA	SEGMENT
??_R0?AVioWnd@@@8 DD FLAT:??_7type_info@@6B@		; ioWnd `RTTI Type Descriptor'
	DD	00H
	DB	'.?AVioWnd@@', 00H
_DATA	ENDS
;	COMDAT ??_R1A@?0A@EA@ioWnd@@8
rdata$r	SEGMENT
??_R1A@?0A@EA@ioWnd@@8 DD FLAT:??_R0?AVioWnd@@@8	; ioWnd::`RTTI Base Class Descriptor at (0,-1,0,64)'
	DD	00H
	DD	00H
	DD	0ffffffffH
	DD	00H
	DD	040H
	DD	FLAT:??_R3ioWnd@@8
rdata$r	ENDS
;	COMDAT ??_R2ioButton@@8
rdata$r	SEGMENT
??_R2ioButton@@8 DD FLAT:??_R1A@?0A@EA@ioButton@@8	; ioButton::`RTTI Base Class Array'
	DD	FLAT:??_R1A@?0A@EA@ioWnd@@8
rdata$r	ENDS
;	COMDAT ??_R3ioButton@@8
rdata$r	SEGMENT
??_R3ioButton@@8 DD 00H					; ioButton::`RTTI Class Hierarchy Descriptor'
	DD	00H
	DD	02H
	DD	FLAT:??_R2ioButton@@8
rdata$r	ENDS
;	COMDAT ??_R0?AVioButton@@@8
_DATA	SEGMENT
??_R0?AVioButton@@@8 DD FLAT:??_7type_info@@6B@		; ioButton `RTTI Type Descriptor'
	DD	00H
	DB	'.?AVioButton@@', 00H
_DATA	ENDS
;	COMDAT ??_R1A@?0A@EA@ioButton@@8
rdata$r	SEGMENT
??_R1A@?0A@EA@ioButton@@8 DD FLAT:??_R0?AVioButton@@@8	; ioButton::`RTTI Base Class Descriptor at (0,-1,0,64)'
	DD	01H
	DD	00H
	DD	0ffffffffH
	DD	00H
	DD	040H
	DD	FLAT:??_R3ioButton@@8
rdata$r	ENDS
;	COMDAT ??_R1A@?0A@EA@ioMessageBoxBtn@@8
rdata$r	SEGMENT
??_R1A@?0A@EA@ioMessageBoxBtn@@8 DD FLAT:??_R0?AVioMessageBoxBtn@@@8 ; ioMessageBoxBtn::`RTTI Base Class Descriptor at (0,-1,0,64)'
	DD	02H
	DD	00H
	DD	0ffffffffH
	DD	00H
	DD	040H
	DD	FLAT:??_R3ioMessageBoxBtn@@8
rdata$r	ENDS
;	COMDAT ??_R2ioMessageBoxBtn@@8
rdata$r	SEGMENT
??_R2ioMessageBoxBtn@@8 DD FLAT:??_R1A@?0A@EA@ioMessageBoxBtn@@8 ; ioMessageBoxBtn::`RTTI Base Class Array'
	DD	FLAT:??_R1A@?0A@EA@ioButton@@8
	DD	FLAT:??_R1A@?0A@EA@ioWnd@@8
rdata$r	ENDS
;	COMDAT ??_R3ioMessageBoxBtn@@8
rdata$r	SEGMENT
??_R3ioMessageBoxBtn@@8 DD 00H				; ioMessageBoxBtn::`RTTI Class Hierarchy Descriptor'
	DD	00H
	DD	03H
	DD	FLAT:??_R2ioMessageBoxBtn@@8
rdata$r	ENDS
;	COMDAT ??_R0?AVioMessageBoxBtn@@@8
_DATA	SEGMENT
??_R0?AVioMessageBoxBtn@@@8 DD FLAT:??_7type_info@@6B@	; ioMessageBoxBtn `RTTI Type Descriptor'
	DD	00H
	DB	'.?AVioMessageBoxBtn@@', 00H
_DATA	ENDS
;	COMDAT ??_R4ioMessageBoxBtn@@6B@
rdata$r	SEGMENT
??_R4ioMessageBoxBtn@@6B@ DD 00H			; ioMessageBoxBtn::`RTTI Complete Object Locator'
	DD	00H
	DD	00H
	DD	FLAT:??_R0?AVioMessageBoxBtn@@@8
	DD	FLAT:??_R3ioMessageBoxBtn@@8
rdata$r	ENDS
;	COMDAT ??_7ioMessageBoxBtn@@6B@
CONST	SEGMENT
??_7ioMessageBoxBtn@@6B@ DD FLAT:??_R4ioMessageBoxBtn@@6B@ ; ioMessageBoxBtn::`vftable'
	DD	FLAT:?AddRenderFrame@ioButton@@UAEXABVioHashString@@PAVioUIRenderFrame@@@Z
	DD	FLAT:?AddRenderImage@ioButton@@UAEXABVioHashString@@PAVioUIRenderImage@@@Z
	DD	FLAT:?AddTooltipHelp@ioWnd@@UAEXABVioHashString@@00@Z
	DD	FLAT:?ParseExtraInfo@ioMessageBoxBtn@@UAEXAAVioXMLElement@@@Z
	DD	FLAT:?AddNamedRenderImage@ioWnd@@UAEXABVioHashString@@PAVioUIRenderImage@@@Z
	DD	FLAT:?RemoveNamedRenderImage@ioWnd@@UAEXABVioHashString@@@Z
	DD	FLAT:?GetNamedRenderImage@ioWnd@@UBEPAVioUIRenderImage@@ABVioHashString@@@Z
	DD	FLAT:?SetWindowAlpha@ioButton@@UAEXH@Z
	DD	FLAT:?SetActive@ioWnd@@UAEXXZ
	DD	FLAT:?SetInActive@ioWnd@@UAEXXZ
	DD	FLAT:?ClearElementImageList@ioWnd@@UAEXXZ
	DD	FLAT:?SetSize@ioWnd@@UAEXHH@Z
	DD	FLAT:?SetPositionToDefault@ioWnd@@UAEXHH_N0@Z
	DD	FLAT:?IsNeedProcess@ioWnd@@UBE_NXZ
	DD	FLAT:?IsCanMouseReaction@ioWnd@@UBE_NXZ
	DD	FLAT:?AddChild@ioWnd@@UAEXPAV1@@Z
	DD	FLAT:?DeleteChild@ioWnd@@UAEXK@Z
	DD	FLAT:?DeleteAllChild@ioWnd@@UAEXXZ
	DD	FLAT:?OnRenderShowAndHide@ioWnd@@MAE_NXZ
	DD	FLAT:?OnRenderShowAndHideByDefault@ioWnd@@MAE_NK@Z
	DD	FLAT:?OnRenderShowAndHideByTop@ioWnd@@MAE_NK@Z
	DD	FLAT:?OnRenderShowAndHideByDown@ioWnd@@MAE_NK@Z
	DD	FLAT:?OnRender@ioButton@@MAEXXZ
	DD	FLAT:?OnRenderAfterChild@ioWnd@@MAEXXZ
	DD	FLAT:?OnProcess@ioWnd@@MAEXM@Z
	DD	FLAT:?OnMouseProcess@ioWnd@@MAEXABVioMouse@@@Z
	DD	FLAT:?CheckFrameReSize@ioButton@@MAEXHHHH@Z
	DD	FLAT:?RenderImageList@ioWnd@@MAEXHHW4UIRenderType@@@Z
	DD	FLAT:?iwm_create@ioWnd@@UAEXXZ
	DD	FLAT:?iwm_destroy@ioWnd@@UAEXXZ
	DD	FLAT:?iwm_lbuttondown@ioButton@@UAEXABVioMouse@@@Z
	DD	FLAT:?iwm_lbuttonup@ioButton@@UAEXABVioMouse@@@Z
	DD	FLAT:?iwm_lbuttonDBLCLK@ioButton@@UAEXABVioMouse@@@Z
	DD	FLAT:?iwm_rbuttondown@ioButton@@UAEXABVioMouse@@@Z
	DD	FLAT:?iwm_rbuttonup@ioButton@@UAEXABVioMouse@@@Z
	DD	FLAT:?iwm_command@ioWnd@@UAEXPAV1@HK@Z
	DD	FLAT:?iwm_mouseover@ioButton@@UAEXABVioMouse@@@Z
	DD	FLAT:?iwm_mousemove@ioWnd@@UAEXABVioMouse@@@Z
	DD	FLAT:?iwm_mouseleave@ioWnd@@UAEXABVioMouse@@@Z
	DD	FLAT:?iwm_vscroll@ioWnd@@UAEXKH@Z
	DD	FLAT:?iwm_wheel@ioWnd@@UAEXH@Z
	DD	FLAT:?iwm_show@ioWnd@@UAEXXZ
	DD	FLAT:?iwm_hide@ioWnd@@UAEXXZ
	DD	FLAT:?iwm_esc@ioWnd@@UAE_NXZ
	DD	FLAT:?iwm_spacebar@ioWnd@@UAE_NXZ
	DD	FLAT:?iwm_gototop@ioWnd@@UAEXXZ
	DD	FLAT:?iwm_dragenter@ioWnd@@UAE?AW4IWDropEffect@@PAVioDragItem@@ABVioMouse@@@Z
	DD	FLAT:?iwm_dragover@ioWnd@@UAE?AW4IWDropEffect@@PAVioDragItem@@ABVioMouse@@@Z
	DD	FLAT:?iwm_dragleave@ioWnd@@UAEXXZ
	DD	FLAT:?iwm_dropitem@ioWnd@@UAE_NPAVioDragItem@@ABVioMouse@@PAV1@@Z
	DD	FLAT:?iwm_dropdone@ioWnd@@UAEXPAVioDragItem@@PAV1@_N@Z
	DD	FLAT:?IsEXType@ioWnd@@UBE_NXZ
	DD	FLAT:?GetWndType@ioButton@@UBEKXZ
	DD	FLAT:?RenderWnd@ioWnd@@UAEXXZ
	DD	FLAT:?SetIDEX@ioWnd@@UAEXAAK_N@Z
	DD	FLAT:?ParseXML@ioWnd@@UAEXAAVioXMLElement@@@Z
	DD	FLAT:?GetHeaderFileName@ioButton@@UAEPBDXZ
	DD	FLAT:?GetTemplateName@ioButton@@UAEPBDXZ
	DD	FLAT:?GetDefClassName@ioButton@@UBEPBDXZ
	DD	FLAT:?_Clone@ioButton@@UAEPAVioWnd@@XZ
	DD	FLAT:?Copy@ioButton@@UAEXPAVioWnd@@@Z
	DD	FLAT:?Save@ioWnd@@UAE_NAAVioXMLElement@@@Z
	DD	FLAT:?SetSaveData@ioButton@@UAEXAAVioXMLElement@@@Z
	DD	FLAT:?SetPosX@ioWnd@@UAEXH@Z
	DD	FLAT:?SetPosY@ioWnd@@UAEXH@Z
	DD	FLAT:?SetWidth@ioWnd@@UAEXH@Z
	DD	FLAT:?SetHeight@ioWnd@@UAEXH@Z
	DD	FLAT:?GetNumFixedRenderFrame@ioButton@@UBEHXZ
	DD	FLAT:?GetFixedRenderFrameType@ioButton@@UAEPBDH@Z
	DD	FLAT:?GetRenderFrame@ioButton@@UAEPAPAVioUIRenderElement@@PBD@Z
	DD	FLAT:?GetNumFixedRenderImage@ioButton@@UBEHXZ
	DD	FLAT:?GetFixedRenderImageType@ioButton@@UAEPBDH@Z
	DD	FLAT:?GetRenderImage@ioButton@@UAEPAPAVioUIRenderElement@@PBD@Z
	DD	FLAT:?AddEffect@ioWnd@@UAEXABVioHashString@@PAVioUI3DEffectRender@@@Z
	DD	FLAT:?GetEffect@ioWnd@@UAEPAVioUI3DEffectRender@@VioHashString@@@Z
	DD	FLAT:??_EioMessageBoxBtn@@UAEPAXI@Z
	DD	FLAT:?OnDrawNormal@ioButton@@MAEXHH@Z
	DD	FLAT:?OnDrawOvered@ioButton@@MAEXHH@Z
	DD	FLAT:?OnDrawOveredAdd@ioButton@@MAEXHH@Z
	DD	FLAT:?OnDrawPushed@ioButton@@MAEXHH@Z
	DD	FLAT:?OnDrawDisabled@ioButton@@MAEXHH@Z
	DD	FLAT:?OnDrawExDisabledNormal@ioButton@@MAEXHH@Z
	DD	FLAT:?OnDrawExDisabledOvered@ioButton@@MAEXHH@Z
	DD	FLAT:?OnDrawExDisabledPushed@ioButton@@MAEXHH@Z
	DD	FLAT:?OnDrawBack@ioButton@@MAEXHH@Z
	DD	FLAT:?OnDrawNormalList@ioButton@@MAEXHH@Z
	DD	FLAT:?OnDrawDisableList@ioButton@@MAEXHH@Z
CONST	ENDS
;	COMDAT xdata$x
xdata$x	SEGMENT
__unwindtable$??0ioMessageBoxBtn@@QAE@XZ DD 0ffffffffH
	DD	FLAT:__unwindfunclet$??0ioMessageBoxBtn@@QAE@XZ$0
	DD	00H
	DD	FLAT:__unwindfunclet$??0ioMessageBoxBtn@@QAE@XZ$1
__ehfuncinfo$??0ioMessageBoxBtn@@QAE@XZ DD 019930522H
	DD	02H
	DD	FLAT:__unwindtable$??0ioMessageBoxBtn@@QAE@XZ
	DD	2 DUP(00H)
	DD	2 DUP(00H)
	DD	00H
	DD	01H
; Function compile flags: /Ogsp
xdata$x	ENDS
;	COMDAT ??0ioMessageBoxBtn@@QAE@XZ
_TEXT	SEGMENT
_this$ = -16						; size = 4
__$EHRec$ = -12						; size = 12
??0ioMessageBoxBtn@@QAE@XZ PROC				; ioMessageBoxBtn::ioMessageBoxBtn, COMDAT
; _this$ = ecx

; 34   : {

  00000	6a 04		 push	 4
  00002	b8 00 00 00 00	 mov	 eax, __ehhandler$??0ioMessageBoxBtn@@QAE@XZ
  00007	e8 00 00 00 00	 call	 __EH_prolog3
  0000c	8b f1		 mov	 esi, ecx
  0000e	89 75 f0	 mov	 DWORD PTR _this$[ebp], esi
  00011	ff 15 00 00 00
	00		 call	 DWORD PTR __imp_??0ioButton@@QAE@XZ
  00017	8b 3d 00 00 00
	00		 mov	 edi, DWORD PTR __imp_??0ioHashString@@QAE@XZ
  0001d	83 65 fc 00	 and	 DWORD PTR __$EHRec$[ebp+8], 0
  00021	8d 8e fc 01 00
	00		 lea	 ecx, DWORD PTR [esi+508]
  00027	c7 06 00 00 00
	00		 mov	 DWORD PTR [esi], OFFSET ??_7ioMessageBoxBtn@@6B@
  0002d	ff d7		 call	 edi
  0002f	8d 8e 0c 02 00
	00		 lea	 ecx, DWORD PTR [esi+524]
  00035	c6 45 fc 01	 mov	 BYTE PTR __$EHRec$[ebp+8], 1
  00039	ff d7		 call	 edi

; 35   : }

  0003b	8b c6		 mov	 eax, esi
  0003d	e8 00 00 00 00	 call	 __EH_epilog3
  00042	c3		 ret	 0
_TEXT	ENDS
;	COMDAT text$x
text$x	SEGMENT
__unwindfunclet$??0ioMessageBoxBtn@@QAE@XZ$0:
  00000	8b 4d f0	 mov	 ecx, DWORD PTR _this$[ebp]
  00003	ff 25 00 00 00
	00		 jmp	 DWORD PTR __imp_??1ioButton@@UAE@XZ
__unwindfunclet$??0ioMessageBoxBtn@@QAE@XZ$1:
  00009	8b 4d f0	 mov	 ecx, DWORD PTR _this$[ebp]
  0000c	81 c1 fc 01 00
	00		 add	 ecx, 508		; 000001fcH
  00012	ff 25 00 00 00
	00		 jmp	 DWORD PTR __imp_??1ioHashString@@QAE@XZ
__ehhandler$??0ioMessageBoxBtn@@QAE@XZ:
  00018	8b 54 24 08	 mov	 edx, DWORD PTR [esp+8]
  0001c	8d 42 0c	 lea	 eax, DWORD PTR [edx+12]
  0001f	8b 4a ec	 mov	 ecx, DWORD PTR [edx-20]
  00022	33 c8		 xor	 ecx, eax
  00024	e8 00 00 00 00	 call	 @__security_check_cookie@4
  00029	b8 00 00 00 00	 mov	 eax, OFFSET __ehfuncinfo$??0ioMessageBoxBtn@@QAE@XZ
  0002e	e9 00 00 00 00	 jmp	 ___CxxFrameHandler3
text$x	ENDS
??0ioMessageBoxBtn@@QAE@XZ ENDP				; ioMessageBoxBtn::ioMessageBoxBtn
PUBLIC	??1ioMessageBoxBtn@@UAE@XZ			; ioMessageBoxBtn::~ioMessageBoxBtn
;	COMDAT xdata$x
xdata$x	SEGMENT
__unwindtable$??1ioMessageBoxBtn@@UAE@XZ DD 0ffffffffH
	DD	FLAT:__unwindfunclet$??1ioMessageBoxBtn@@UAE@XZ$0
	DD	00H
	DD	FLAT:__unwindfunclet$??1ioMessageBoxBtn@@UAE@XZ$1
__ehfuncinfo$??1ioMessageBoxBtn@@UAE@XZ DD 019930522H
	DD	02H
	DD	FLAT:__unwindtable$??1ioMessageBoxBtn@@UAE@XZ
	DD	2 DUP(00H)
	DD	2 DUP(00H)
	DD	00H
	DD	01H
; Function compile flags: /Ogsp
xdata$x	ENDS
;	COMDAT ??1ioMessageBoxBtn@@UAE@XZ
_TEXT	SEGMENT
_this$ = -16						; size = 4
__$EHRec$ = -12						; size = 12
??1ioMessageBoxBtn@@UAE@XZ PROC				; ioMessageBoxBtn::~ioMessageBoxBtn, COMDAT
; _this$ = ecx

; 38   : {

  00000	6a 04		 push	 4
  00002	b8 00 00 00 00	 mov	 eax, __ehhandler$??1ioMessageBoxBtn@@UAE@XZ
  00007	e8 00 00 00 00	 call	 __EH_prolog3
  0000c	8b f1		 mov	 esi, ecx
  0000e	89 75 f0	 mov	 DWORD PTR _this$[ebp], esi
  00011	c7 06 00 00 00
	00		 mov	 DWORD PTR [esi], OFFSET ??_7ioMessageBoxBtn@@6B@

; 39   : }

  00017	8b 3d 00 00 00
	00		 mov	 edi, DWORD PTR __imp_??1ioHashString@@QAE@XZ
  0001d	8d 8e 0c 02 00
	00		 lea	 ecx, DWORD PTR [esi+524]
  00023	c7 45 fc 01 00
	00 00		 mov	 DWORD PTR __$EHRec$[ebp+8], 1
  0002a	ff d7		 call	 edi
  0002c	8d 8e fc 01 00
	00		 lea	 ecx, DWORD PTR [esi+508]
  00032	c6 45 fc 00	 mov	 BYTE PTR __$EHRec$[ebp+8], 0
  00036	ff d7		 call	 edi
  00038	83 4d fc ff	 or	 DWORD PTR __$EHRec$[ebp+8], -1
  0003c	8b ce		 mov	 ecx, esi
  0003e	ff 15 00 00 00
	00		 call	 DWORD PTR __imp_??1ioButton@@UAE@XZ
  00044	e8 00 00 00 00	 call	 __EH_epilog3
  00049	c3		 ret	 0
_TEXT	ENDS
;	COMDAT text$x
text$x	SEGMENT
__unwindfunclet$??1ioMessageBoxBtn@@UAE@XZ$0:
  00000	8b 4d f0	 mov	 ecx, DWORD PTR _this$[ebp]
  00003	ff 25 00 00 00
	00		 jmp	 DWORD PTR __imp_??1ioButton@@UAE@XZ
__unwindfunclet$??1ioMessageBoxBtn@@UAE@XZ$1:
  00009	8b 4d f0	 mov	 ecx, DWORD PTR _this$[ebp]
  0000c	81 c1 fc 01 00
	00		 add	 ecx, 508		; 000001fcH
  00012	ff 25 00 00 00
	00		 jmp	 DWORD PTR __imp_??1ioHashString@@QAE@XZ
__ehhandler$??1ioMessageBoxBtn@@UAE@XZ:
  00018	8b 54 24 08	 mov	 edx, DWORD PTR [esp+8]
  0001c	8d 42 0c	 lea	 eax, DWORD PTR [edx+12]
  0001f	8b 4a ec	 mov	 ecx, DWORD PTR [edx-20]
  00022	33 c8		 xor	 ecx, eax
  00024	e8 00 00 00 00	 call	 @__security_check_cookie@4
  00029	b8 00 00 00 00	 mov	 eax, OFFSET __ehfuncinfo$??1ioMessageBoxBtn@@UAE@XZ
  0002e	e9 00 00 00 00	 jmp	 ___CxxFrameHandler3
text$x	ENDS
??1ioMessageBoxBtn@@UAE@XZ ENDP				; ioMessageBoxBtn::~ioMessageBoxBtn
PUBLIC	?SetTitleName@ioMessageBoxBtn@@QAEXPBD@Z	; ioMessageBoxBtn::SetTitleName
EXTRN	__imp_??4ioHashString@@QAEAAV0@PBD@Z:PROC
; Function compile flags: /Ogsp
;	COMDAT ?SetTitleName@ioMessageBoxBtn@@QAEXPBD@Z
_TEXT	SEGMENT
_szTitleName$ = 8					; size = 4
?SetTitleName@ioMessageBoxBtn@@QAEXPBD@Z PROC		; ioMessageBoxBtn::SetTitleName, COMDAT
; _this$ = ecx

; 50   : {

  00000	55		 push	 ebp
  00001	8b ec		 mov	 ebp, esp

; 51   : 	m_szTitleName = szTitleName;

  00003	81 c1 fc 01 00
	00		 add	 ecx, 508		; 000001fcH

; 52   : }

  00009	5d		 pop	 ebp

; 51   : 	m_szTitleName = szTitleName;

  0000a	ff 25 00 00 00
	00		 jmp	 DWORD PTR __imp_??4ioHashString@@QAEAAV0@PBD@Z
?SetTitleName@ioMessageBoxBtn@@QAEXPBD@Z ENDP		; ioMessageBoxBtn::SetTitleName
_TEXT	ENDS
PUBLIC	?SetHotKey@ioMessageBoxBtn@@QAEXPBD@Z		; ioMessageBoxBtn::SetHotKey
; Function compile flags: /Ogsp
;	COMDAT ?SetHotKey@ioMessageBoxBtn@@QAEXPBD@Z
_TEXT	SEGMENT
_szHotKey$ = 8						; size = 4
?SetHotKey@ioMessageBoxBtn@@QAEXPBD@Z PROC		; ioMessageBoxBtn::SetHotKey, COMDAT
; _this$ = ecx

; 55   : {

  00000	55		 push	 ebp
  00001	8b ec		 mov	 ebp, esp

; 56   : 	m_szHotKey = szHotKey;

  00003	81 c1 0c 02 00
	00		 add	 ecx, 524		; 0000020cH

; 57   : }

  00009	5d		 pop	 ebp

; 56   : 	m_szHotKey = szHotKey;

  0000a	ff 25 00 00 00
	00		 jmp	 DWORD PTR __imp_??4ioHashString@@QAEAAV0@PBD@Z
?SetHotKey@ioMessageBoxBtn@@QAEXPBD@Z ENDP		; ioMessageBoxBtn::SetHotKey
_TEXT	ENDS
PUBLIC	??_7bad_alloc@std@@6B@				; std::bad_alloc::`vftable'
PUBLIC	??0bad_alloc@std@@QAE@PBD@Z			; std::bad_alloc::bad_alloc
PUBLIC	??_R4bad_alloc@std@@6B@				; std::bad_alloc::`RTTI Complete Object Locator'
PUBLIC	??_R0?AVbad_alloc@std@@@8			; std::bad_alloc `RTTI Type Descriptor'
PUBLIC	??_R3bad_alloc@std@@8				; std::bad_alloc::`RTTI Class Hierarchy Descriptor'
PUBLIC	??_R2bad_alloc@std@@8				; std::bad_alloc::`RTTI Base Class Array'
PUBLIC	??_R1A@?0A@EA@bad_alloc@std@@8			; std::bad_alloc::`RTTI Base Class Descriptor at (0,-1,0,64)'
PUBLIC	??_R1A@?0A@EA@exception@std@@8			; std::exception::`RTTI Base Class Descriptor at (0,-1,0,64)'
PUBLIC	??_R0?AVexception@std@@@8			; std::exception `RTTI Type Descriptor'
PUBLIC	??_R3exception@std@@8				; std::exception::`RTTI Class Hierarchy Descriptor'
PUBLIC	??_R2exception@std@@8				; std::exception::`RTTI Base Class Array'
EXTRN	__imp_??0exception@std@@QAE@ABQBD@Z:PROC
EXTRN	??_Ebad_alloc@std@@UAEPAXI@Z:PROC		; std::bad_alloc::`vector deleting destructor'
EXTRN	?what@exception@std@@UBEPBDXZ:PROC		; std::exception::what
;	COMDAT ??_R2exception@std@@8
; File c:\program files (x86)\microsoft visual studio 10.0\vc\include\exception
rdata$r	SEGMENT
??_R2exception@std@@8 DD FLAT:??_R1A@?0A@EA@exception@std@@8 ; std::exception::`RTTI Base Class Array'
rdata$r	ENDS
;	COMDAT ??_R3exception@std@@8
rdata$r	SEGMENT
??_R3exception@std@@8 DD 00H				; std::exception::`RTTI Class Hierarchy Descriptor'
	DD	00H
	DD	01H
	DD	FLAT:??_R2exception@std@@8
rdata$r	ENDS
;	COMDAT ??_R0?AVexception@std@@@8
_DATA	SEGMENT
??_R0?AVexception@std@@@8 DD FLAT:??_7type_info@@6B@	; std::exception `RTTI Type Descriptor'
	DD	00H
	DB	'.?AVexception@std@@', 00H
_DATA	ENDS
;	COMDAT ??_R1A@?0A@EA@exception@std@@8
rdata$r	SEGMENT
??_R1A@?0A@EA@exception@std@@8 DD FLAT:??_R0?AVexception@std@@@8 ; std::exception::`RTTI Base Class Descriptor at (0,-1,0,64)'
	DD	00H
	DD	00H
	DD	0ffffffffH
	DD	00H
	DD	040H
	DD	FLAT:??_R3exception@std@@8
rdata$r	ENDS
;	COMDAT ??_R1A@?0A@EA@bad_alloc@std@@8
rdata$r	SEGMENT
??_R1A@?0A@EA@bad_alloc@std@@8 DD FLAT:??_R0?AVbad_alloc@std@@@8 ; std::bad_alloc::`RTTI Base Class Descriptor at (0,-1,0,64)'
	DD	01H
	DD	00H
	DD	0ffffffffH
	DD	00H
	DD	040H
	DD	FLAT:??_R3bad_alloc@std@@8
rdata$r	ENDS
;	COMDAT ??_R2bad_alloc@std@@8
rdata$r	SEGMENT
??_R2bad_alloc@std@@8 DD FLAT:??_R1A@?0A@EA@bad_alloc@std@@8 ; std::bad_alloc::`RTTI Base Class Array'
	DD	FLAT:??_R1A@?0A@EA@exception@std@@8
rdata$r	ENDS
;	COMDAT ??_R3bad_alloc@std@@8
rdata$r	SEGMENT
??_R3bad_alloc@std@@8 DD 00H				; std::bad_alloc::`RTTI Class Hierarchy Descriptor'
	DD	00H
	DD	02H
	DD	FLAT:??_R2bad_alloc@std@@8
rdata$r	ENDS
;	COMDAT ??_R0?AVbad_alloc@std@@@8
_DATA	SEGMENT
??_R0?AVbad_alloc@std@@@8 DD FLAT:??_7type_info@@6B@	; std::bad_alloc `RTTI Type Descriptor'
	DD	00H
	DB	'.?AVbad_alloc@std@@', 00H
_DATA	ENDS
;	COMDAT ??_R4bad_alloc@std@@6B@
rdata$r	SEGMENT
??_R4bad_alloc@std@@6B@ DD 00H				; std::bad_alloc::`RTTI Complete Object Locator'
	DD	00H
	DD	00H
	DD	FLAT:??_R0?AVbad_alloc@std@@@8
	DD	FLAT:??_R3bad_alloc@std@@8
rdata$r	ENDS
;	COMDAT ??_7bad_alloc@std@@6B@
CONST	SEGMENT
??_7bad_alloc@std@@6B@ DD FLAT:??_R4bad_alloc@std@@6B@	; std::bad_alloc::`vftable'
	DD	FLAT:??_Ebad_alloc@std@@UAEPAXI@Z
	DD	FLAT:?what@exception@std@@UBEPBDXZ
; Function compile flags: /Ogsp
CONST	ENDS
;	COMDAT ??0bad_alloc@std@@QAE@PBD@Z
_TEXT	SEGMENT
__Message$ = 8						; size = 4
??0bad_alloc@std@@QAE@PBD@Z PROC			; std::bad_alloc::bad_alloc, COMDAT
; _this$ = ecx

; 345  : 		{	// construct from message string

  00000	55		 push	 ebp
  00001	8b ec		 mov	 ebp, esp
  00003	56		 push	 esi
  00004	8d 45 08	 lea	 eax, DWORD PTR __Message$[ebp]
  00007	50		 push	 eax
  00008	8b f1		 mov	 esi, ecx
  0000a	ff 15 00 00 00
	00		 call	 DWORD PTR __imp_??0exception@std@@QAE@ABQBD@Z
  00010	c7 06 00 00 00
	00		 mov	 DWORD PTR [esi], OFFSET ??_7bad_alloc@std@@6B@

; 346  : 		}

  00016	8b c6		 mov	 eax, esi
  00018	5e		 pop	 esi
  00019	5d		 pop	 ebp
  0001a	c2 04 00	 ret	 4
??0bad_alloc@std@@QAE@PBD@Z ENDP			; std::bad_alloc::bad_alloc
_TEXT	ENDS
PUBLIC	??1bad_alloc@std@@UAE@XZ			; std::bad_alloc::~bad_alloc
EXTRN	__imp_??1exception@std@@UAE@XZ:PROC
; Function compile flags: /Ogsp
;	COMDAT ??1bad_alloc@std@@UAE@XZ
_TEXT	SEGMENT
??1bad_alloc@std@@UAE@XZ PROC				; std::bad_alloc::~bad_alloc, COMDAT
; _this$ = ecx

; 354  : 		{	// destroy the object

  00000	c7 01 00 00 00
	00		 mov	 DWORD PTR [ecx], OFFSET ??_7bad_alloc@std@@6B@

; 355  : 		}

  00006	ff 25 00 00 00
	00		 jmp	 DWORD PTR __imp_??1exception@std@@UAE@XZ
??1bad_alloc@std@@UAE@XZ ENDP				; std::bad_alloc::~bad_alloc
_TEXT	ENDS
EXTRN	??3@YAXPAX@Z:PROC				; operator delete
; Function compile flags: /Ogsp
;	COMDAT ??_Gbad_alloc@std@@UAEPAXI@Z
_TEXT	SEGMENT
___flags$ = 8						; size = 4
??_Gbad_alloc@std@@UAEPAXI@Z PROC			; std::bad_alloc::`scalar deleting destructor', COMDAT
; _this$ = ecx
  00000	55		 push	 ebp
  00001	8b ec		 mov	 ebp, esp
  00003	56		 push	 esi
  00004	8b f1		 mov	 esi, ecx
  00006	c7 06 00 00 00
	00		 mov	 DWORD PTR [esi], OFFSET ??_7bad_alloc@std@@6B@
  0000c	ff 15 00 00 00
	00		 call	 DWORD PTR __imp_??1exception@std@@UAE@XZ
  00012	f6 45 08 01	 test	 BYTE PTR ___flags$[ebp], 1
  00016	74 07		 je	 SHORT $LN1@scalar
  00018	56		 push	 esi
  00019	e8 00 00 00 00	 call	 ??3@YAXPAX@Z		; operator delete
  0001e	59		 pop	 ecx
$LN1@scalar:
  0001f	8b c6		 mov	 eax, esi
  00021	5e		 pop	 esi
  00022	5d		 pop	 ebp
  00023	c2 04 00	 ret	 4
??_Gbad_alloc@std@@UAEPAXI@Z ENDP			; std::bad_alloc::`scalar deleting destructor'
_TEXT	ENDS
PUBLIC	?iwm_command@ioMessageBox@@UAEXPAVioWnd@@HK@Z	; ioMessageBox::iwm_command
EXTRN	__imp_?HideWnd@ioWnd@@QAEXXZ:PROC
EXTRN	__imp_?GetID@ioWnd@@QBEKXZ:PROC
; Function compile flags: /Ogsp
; File d:\lost saga for developer\youtube\tutorial\source\src\lsclient\gui\iomessagebox.cpp
;	COMDAT ?iwm_command@ioMessageBox@@UAEXPAVioWnd@@HK@Z
_TEXT	SEGMENT
_pWnd$ = 8						; size = 4
_cmd$ = 12						; size = 4
_param$ = 16						; size = 4
?iwm_command@ioMessageBox@@UAEXPAVioWnd@@HK@Z PROC	; ioMessageBox::iwm_command, COMDAT
; _this$ = ecx

; 177  : {

  00000	55		 push	 ebp
  00001	8b ec		 mov	 ebp, esp
  00003	56		 push	 esi
  00004	8b f1		 mov	 esi, ecx

; 178  : 	DWORD dwID = pWnd->GetID();

  00006	8b 4d 08	 mov	 ecx, DWORD PTR _pWnd$[ebp]
  00009	ff 15 00 00 00
	00		 call	 DWORD PTR __imp_?GetID@ioWnd@@QBEKXZ

; 179  : 
; 180  : 	switch( dwID )

  0000f	83 f8 01	 cmp	 eax, 1
  00012	74 0c		 je	 SHORT $LN3@iwm_comman
  00014	83 f8 02	 cmp	 eax, 2
  00017	74 36		 je	 SHORT $LN6@iwm_comman
  00019	76 2f		 jbe	 SHORT $LN1@iwm_comman
  0001b	83 f8 04	 cmp	 eax, 4
  0001e	77 2a		 ja	 SHORT $LN1@iwm_comman
$LN3@iwm_comman:

; 193  : 	case ID_NO:
; 194  : 	case ID_X:
; 195  : 	case ID_OK:
; 196  : 		if( cmd == IOBN_BTNUP )

  00020	83 7d 0c 11	 cmp	 DWORD PTR _cmd$[ebp], 17 ; 00000011H
  00024	75 24		 jne	 SHORT $LN1@iwm_comman

; 197  : 		{
; 198  : 			HideWnd();

  00026	8b ce		 mov	 ecx, esi
  00028	ff 15 00 00 00
	00		 call	 DWORD PTR __imp_?HideWnd@ioWnd@@QAEXXZ

; 199  : 
; 200  : 			if( m_pReturnWnd )

  0002e	83 be 6c 01 00
	00 00		 cmp	 DWORD PTR [esi+364], 0
  00035	74 13		 je	 SHORT $LN1@iwm_comman

; 201  : 			{
; 202  : 				m_pReturnWnd->iwm_command( this, cmd, IDNO );

  00037	6a 07		 push	 7
$LN11@iwm_comman:
  00039	8b 8e 6c 01 00
	00		 mov	 ecx, DWORD PTR [esi+364]
  0003f	8b 01		 mov	 eax, DWORD PTR [ecx]
  00041	6a 11		 push	 17			; 00000011H
  00043	56		 push	 esi
  00044	ff 90 8c 00 00
	00		 call	 DWORD PTR [eax+140]
$LN1@iwm_comman:
  0004a	5e		 pop	 esi

; 203  : 			}
; 204  : 		}
; 205  : 		break;
; 206  : 	}
; 207  : }

  0004b	5d		 pop	 ebp
  0004c	c2 0c 00	 ret	 12			; 0000000cH
$LN6@iwm_comman:

; 181  : 	{
; 182  : 	case ID_YES:
; 183  : 		if( cmd == IOBN_BTNUP )

  0004f	83 7d 0c 11	 cmp	 DWORD PTR _cmd$[ebp], 17 ; 00000011H
  00053	75 f5		 jne	 SHORT $LN1@iwm_comman

; 184  : 		{
; 185  : 			HideWnd();

  00055	8b ce		 mov	 ecx, esi
  00057	ff 15 00 00 00
	00		 call	 DWORD PTR __imp_?HideWnd@ioWnd@@QAEXXZ

; 186  : 
; 187  : 			if( m_pReturnWnd )

  0005d	83 be 6c 01 00
	00 00		 cmp	 DWORD PTR [esi+364], 0
  00064	74 e4		 je	 SHORT $LN1@iwm_comman

; 188  : 			{
; 189  : 				m_pReturnWnd->iwm_command( this, cmd, IDYES );

  00066	6a 06		 push	 6

; 190  : 			}
; 191  : 		}
; 192  : 		break;

  00068	eb cf		 jmp	 SHORT $LN11@iwm_comman
?iwm_command@ioMessageBox@@UAEXPAVioWnd@@HK@Z ENDP	; ioMessageBox::iwm_command
_TEXT	ENDS
PUBLIC	?iwm_hide@ioMessageBox@@UAEXXZ			; ioMessageBox::iwm_hide
EXTRN	__imp_?ShowWnd@ioWnd@@QAEXXZ:PROC
EXTRN	__imp_?IsShow@ioWnd@@QBE_NXZ:PROC
; Function compile flags: /Ogsp
;	COMDAT ?iwm_hide@ioMessageBox@@UAEXXZ
_TEXT	SEGMENT
?iwm_hide@ioMessageBox@@UAEXXZ PROC			; ioMessageBox::iwm_hide, COMDAT
; _this$ = ecx

; 210  : {

  00000	56		 push	 esi

; 211  : 	if( m_pPrevWnd && !m_pPrevWnd->IsShow() )

  00001	8d b1 68 01 00
	00		 lea	 esi, DWORD PTR [ecx+360]
  00007	8b 0e		 mov	 ecx, DWORD PTR [esi]
  00009	85 c9		 test	 ecx, ecx
  0000b	74 13		 je	 SHORT $LN1@iwm_hide
  0000d	ff 15 00 00 00
	00		 call	 DWORD PTR __imp_?IsShow@ioWnd@@QBE_NXZ
  00013	84 c0		 test	 al, al
  00015	75 09		 jne	 SHORT $LN1@iwm_hide

; 212  : 		m_pPrevWnd->ShowWnd();

  00017	8b 0e		 mov	 ecx, DWORD PTR [esi]
  00019	5e		 pop	 esi
  0001a	ff 25 00 00 00
	00		 jmp	 DWORD PTR __imp_?ShowWnd@ioWnd@@QAEXXZ
$LN1@iwm_hide:
  00020	5e		 pop	 esi

; 213  : }

  00021	c3		 ret	 0
?iwm_hide@ioMessageBox@@UAEXXZ ENDP			; ioMessageBox::iwm_hide
_TEXT	ENDS
PUBLIC	?iwm_esc@ioMessageBox@@UAE_NXZ			; ioMessageBox::iwm_esc
EXTRN	__imp_?FindChildWnd@ioWnd@@QAEPAV1@K@Z:PROC
; Function compile flags: /Ogsp
;	COMDAT ?iwm_esc@ioMessageBox@@UAE_NXZ
_TEXT	SEGMENT
?iwm_esc@ioMessageBox@@UAE_NXZ PROC			; ioMessageBox::iwm_esc, COMDAT
; _this$ = ecx

; 216  : {

  00000	56		 push	 esi
  00001	57		 push	 edi

; 217  : 	ioMessageBoxBtn *pXBtn = (ioMessageBoxBtn*)FindChildWnd( ID_X );

  00002	6a 01		 push	 1
  00004	8b f1		 mov	 esi, ecx
  00006	ff 15 00 00 00
	00		 call	 DWORD PTR __imp_?FindChildWnd@ioWnd@@QAEPAV1@K@Z
  0000c	8b f8		 mov	 edi, eax

; 218  : 	if( !pXBtn ) return false;

  0000e	85 ff		 test	 edi, edi
  00010	75 04		 jne	 SHORT $LN2@iwm_esc
$LN5@iwm_esc:
  00012	32 c0		 xor	 al, al
  00014	eb 1d		 jmp	 SHORT $LN3@iwm_esc
$LN2@iwm_esc:

; 219  : 	if( !pXBtn->IsShow() ) return false;

  00016	8b cf		 mov	 ecx, edi
  00018	ff 15 00 00 00
	00		 call	 DWORD PTR __imp_?IsShow@ioWnd@@QBE_NXZ
  0001e	84 c0		 test	 al, al
  00020	74 f0		 je	 SHORT $LN5@iwm_esc

; 220  : 
; 221  : 	iwm_command( pXBtn, IOBN_BTNUP, 0 );

  00022	8b 06		 mov	 eax, DWORD PTR [esi]
  00024	6a 00		 push	 0
  00026	6a 11		 push	 17			; 00000011H
  00028	57		 push	 edi
  00029	8b ce		 mov	 ecx, esi
  0002b	ff 90 8c 00 00
	00		 call	 DWORD PTR [eax+140]

; 222  : 	return true;

  00031	b0 01		 mov	 al, 1
$LN3@iwm_esc:

; 223  : }

  00033	5f		 pop	 edi
  00034	5e		 pop	 esi
  00035	c3		 ret	 0
?iwm_esc@ioMessageBox@@UAE_NXZ ENDP			; ioMessageBox::iwm_esc
_TEXT	ENDS
PUBLIC	?iwm_spacebar@ioMessageBox@@UAE_NXZ		; ioMessageBox::iwm_spacebar
; Function compile flags: /Ogsp
;	COMDAT ?iwm_spacebar@ioMessageBox@@UAE_NXZ
_TEXT	SEGMENT
?iwm_spacebar@ioMessageBox@@UAE_NXZ PROC		; ioMessageBox::iwm_spacebar, COMDAT
; _this$ = ecx

; 226  : {

  00000	56		 push	 esi
  00001	57		 push	 edi

; 227  : 	ioMessageBoxBtn *pYesBtn = (ioMessageBoxBtn*)FindChildWnd( ID_YES );

  00002	6a 02		 push	 2
  00004	8b f1		 mov	 esi, ecx
  00006	ff 15 00 00 00
	00		 call	 DWORD PTR __imp_?FindChildWnd@ioWnd@@QAEPAV1@K@Z
  0000c	8b f8		 mov	 edi, eax

; 228  : 	if( !pYesBtn ) return false;

  0000e	85 ff		 test	 edi, edi
  00010	75 04		 jne	 SHORT $LN2@iwm_spaceb
$LN5@iwm_spaceb:
  00012	32 c0		 xor	 al, al
  00014	eb 1d		 jmp	 SHORT $LN3@iwm_spaceb
$LN2@iwm_spaceb:

; 229  : 	if( !pYesBtn->IsShow() ) return false;

  00016	8b cf		 mov	 ecx, edi
  00018	ff 15 00 00 00
	00		 call	 DWORD PTR __imp_?IsShow@ioWnd@@QBE_NXZ
  0001e	84 c0		 test	 al, al
  00020	74 f0		 je	 SHORT $LN5@iwm_spaceb

; 230  : 
; 231  : 	iwm_command( pYesBtn, IOBN_BTNUP, 0 );

  00022	8b 06		 mov	 eax, DWORD PTR [esi]
  00024	6a 00		 push	 0
  00026	6a 11		 push	 17			; 00000011H
  00028	57		 push	 edi
  00029	8b ce		 mov	 ecx, esi
  0002b	ff 90 8c 00 00
	00		 call	 DWORD PTR [eax+140]

; 232  : 	return true;

  00031	b0 01		 mov	 al, 1
$LN3@iwm_spaceb:

; 233  : }

  00033	5f		 pop	 edi
  00034	5e		 pop	 esi
  00035	c3		 ret	 0
?iwm_spacebar@ioMessageBox@@UAE_NXZ ENDP		; ioMessageBox::iwm_spacebar
_TEXT	ENDS
PUBLIC	??2@YAPAXIPAX@Z					; operator new
; Function compile flags: /Ogsp
; File c:\program files (x86)\microsoft visual studio 10.0\vc\include\new
;	COMDAT ??2@YAPAXIPAX@Z
_TEXT	SEGMENT
___formal$ = 8						; size = 4
__Where$ = 12						; size = 4
??2@YAPAXIPAX@Z PROC					; operator new, COMDAT

; 56   : 	{	// construct array with placement at _Where

  00000	55		 push	 ebp
  00001	8b ec		 mov	 ebp, esp

; 57   : 	return (_Where);

  00003	8b 45 0c	 mov	 eax, DWORD PTR __Where$[ebp]

; 58   : 	}

  00006	5d		 pop	 ebp
  00007	c3		 ret	 0
??2@YAPAXIPAX@Z ENDP					; operator new
_TEXT	ENDS
PUBLIC	??3@YAXPAX0@Z					; operator delete
; Function compile flags: /Ogsp
;	COMDAT ??3@YAXPAX0@Z
_TEXT	SEGMENT
___formal$ = 8						; size = 4
___formal$ = 12						; size = 4
??3@YAXPAX0@Z PROC					; operator delete, COMDAT

; 62   : 	}

  00000	c3		 ret	 0
??3@YAXPAX0@Z ENDP					; operator delete
_TEXT	ENDS
PUBLIC	?ClearList@ioMessageBox3@@IAEXXZ		; ioMessageBox3::ClearList
EXTRN	?ClearList@ioComplexStringPrinter@@QAEXXZ:PROC	; ioComplexStringPrinter::ClearList
; Function compile flags: /Ogsp
; File d:\lost saga for developer\youtube\tutorial\source\src\lsclient\gui\iomessagebox.cpp
;	COMDAT ?ClearList@ioMessageBox3@@IAEXXZ
_TEXT	SEGMENT
?ClearList@ioMessageBox3@@IAEXXZ PROC			; ioMessageBox3::ClearList, COMDAT
; _this$ = ecx

; 298  : {

  00000	56		 push	 esi
  00001	57		 push	 edi

; 299  : 	for( int i=0; i<MAX_MSG_LIST_SIZE; i++ )

  00002	6a 0c		 push	 12			; 0000000cH
  00004	8d b1 80 01 00
	00		 lea	 esi, DWORD PTR [ecx+384]
  0000a	5f		 pop	 edi
$LL3@ClearList:

; 300  : 	{
; 301  : 		m_PrinterList[i].ClearList();

  0000b	8b ce		 mov	 ecx, esi
  0000d	e8 00 00 00 00	 call	 ?ClearList@ioComplexStringPrinter@@QAEXXZ ; ioComplexStringPrinter::ClearList
  00012	83 c6 20	 add	 esi, 32			; 00000020H
  00015	4f		 dec	 edi
  00016	75 f3		 jne	 SHORT $LL3@ClearList

; 302  : 	}
; 303  : }

  00018	5f		 pop	 edi
  00019	5e		 pop	 esi
  0001a	c3		 ret	 0
?ClearList@ioMessageBox3@@IAEXXZ ENDP			; ioMessageBox3::ClearList
_TEXT	ENDS
PUBLIC	?length@?$char_traits@D@std@@SAIPBD@Z		; std::char_traits<char>::length
; Function compile flags: /Ogsp
; File c:\program files (x86)\microsoft visual studio 10.0\vc\include\iosfwd
;	COMDAT ?length@?$char_traits@D@std@@SAIPBD@Z
_TEXT	SEGMENT
__First$ = 8						; size = 4
?length@?$char_traits@D@std@@SAIPBD@Z PROC		; std::char_traits<char>::length, COMDAT

; 490  : 		{	// find length of null-terminated string

  00000	55		 push	 ebp
  00001	8b ec		 mov	 ebp, esp

; 491  : 		return (_CSTD strlen(_First));

  00003	8b 45 08	 mov	 eax, DWORD PTR __First$[ebp]
  00006	8d 50 01	 lea	 edx, DWORD PTR [eax+1]
$LL3@length:
  00009	8a 08		 mov	 cl, BYTE PTR [eax]
  0000b	40		 inc	 eax
  0000c	84 c9		 test	 cl, cl
  0000e	75 f9		 jne	 SHORT $LL3@length
  00010	2b c2		 sub	 eax, edx

; 492  : 		}

  00012	5d		 pop	 ebp
  00013	c3		 ret	 0
?length@?$char_traits@D@std@@SAIPBD@Z ENDP		; std::char_traits<char>::length
_TEXT	ENDS
PUBLIC	?copy@?$char_traits@D@std@@SAPADPADPBDI@Z	; std::char_traits<char>::copy
EXTRN	_memcpy:PROC
; Function compile flags: /Ogsp
;	COMDAT ?copy@?$char_traits@D@std@@SAPADPADPBDI@Z
_TEXT	SEGMENT
__First1$ = 8						; size = 4
__First2$ = 12						; size = 4
__Count$ = 16						; size = 4
?copy@?$char_traits@D@std@@SAPADPADPBDI@Z PROC		; std::char_traits<char>::copy, COMDAT

; 496  : 		{	// copy [_First1, _First1 + _Count) to [_First2, ...)

  00000	55		 push	 ebp
  00001	8b ec		 mov	 ebp, esp

; 498  : 		}

  00003	5d		 pop	 ebp

; 497  : 		return ((_Elem *)_CSTD memcpy(_First1, _First2, _Count));

  00004	e9 00 00 00 00	 jmp	 _memcpy
?copy@?$char_traits@D@std@@SAPADPADPBDI@Z ENDP		; std::char_traits<char>::copy
_TEXT	ENDS
PUBLIC	?empty@?$basic_string@DU?$char_traits@D@std@@V?$allocator@D@2@@std@@QBE_NXZ ; std::basic_string<char,std::char_traits<char>,std::allocator<char> >::empty
; Function compile flags: /Ogsp
; File c:\program files (x86)\microsoft visual studio 10.0\vc\include\xstring
;	COMDAT ?empty@?$basic_string@DU?$char_traits@D@std@@V?$allocator@D@2@@std@@QBE_NXZ
_TEXT	SEGMENT
?empty@?$basic_string@DU?$char_traits@D@std@@V?$allocator@D@2@@std@@QBE_NXZ PROC ; std::basic_string<char,std::char_traits<char>,std::allocator<char> >::empty, COMDAT
; _this$ = ecx

; 1551 : 		return (this->_Mysize == 0);

  00000	33 c0		 xor	 eax, eax
  00002	39 41 10	 cmp	 DWORD PTR [ecx+16], eax
  00005	0f 94 c0	 sete	 al

; 1552 : 		}

  00008	c3		 ret	 0
?empty@?$basic_string@DU?$char_traits@D@std@@V?$allocator@D@2@@std@@QBE_NXZ ENDP ; std::basic_string<char,std::char_traits<char>,std::allocator<char> >::empty
_TEXT	ENDS
PUBLIC	?move@?$char_traits@D@std@@SAPADPADPBDI@Z	; std::char_traits<char>::move
EXTRN	__imp__memmove:PROC
; Function compile flags: /Ogsp
; File c:\program files (x86)\microsoft visual studio 10.0\vc\include\iosfwd
;	COMDAT ?move@?$char_traits@D@std@@SAPADPADPBDI@Z
_TEXT	SEGMENT
__First1$ = 8						; size = 4
__First2$ = 12						; size = 4
__Count$ = 16						; size = 4
?move@?$char_traits@D@std@@SAPADPADPBDI@Z PROC		; std::char_traits<char>::move, COMDAT

; 516  : 		{	// copy [_First1, _First1 + _Count) to [_First2, ...)

  00000	55		 push	 ebp
  00001	8b ec		 mov	 ebp, esp

; 518  : 		}

  00003	5d		 pop	 ebp

; 517  : 		return ((_Elem *)_CSTD memmove(_First1, _First2, _Count));

  00004	ff 25 00 00 00
	00		 jmp	 DWORD PTR __imp__memmove
?move@?$char_traits@D@std@@SAPADPADPBDI@Z ENDP		; std::char_traits<char>::move
_TEXT	ENDS
PUBLIC	?assign@?$char_traits@D@std@@SAXAADABD@Z	; std::char_traits<char>::assign
; Function compile flags: /Ogsp
;	COMDAT ?assign@?$char_traits@D@std@@SAXAADABD@Z
_TEXT	SEGMENT
__Left$ = 8						; size = 4
__Right$ = 12						; size = 4
?assign@?$char_traits@D@std@@SAXAADABD@Z PROC		; std::char_traits<char>::assign, COMDAT

; 526  : 		{	// assign an element

  00000	55		 push	 ebp
  00001	8b ec		 mov	 ebp, esp

; 527  : 		_Left = _Right;

  00003	8b 45 0c	 mov	 eax, DWORD PTR __Right$[ebp]
  00006	8a 00		 mov	 al, BYTE PTR [eax]
  00008	8b 4d 08	 mov	 ecx, DWORD PTR __Left$[ebp]
  0000b	88 01		 mov	 BYTE PTR [ecx], al

; 528  : 		}

  0000d	5d		 pop	 ebp
  0000e	c3		 ret	 0
?assign@?$char_traits@D@std@@SAXAADABD@Z ENDP		; std::char_traits<char>::assign
_TEXT	ENDS
PUBLIC	?size@?$vector@V?$basic_string@DU?$char_traits@D@std@@V?$allocator@D@2@@std@@V?$allocator@V?$basic_string@DU?$char_traits@D@std@@V?$allocator@D@2@@std@@@2@@std@@QBEIXZ ; std::vector<std::basic_string<char,std::char_traits<char>,std::allocator<char> >,std::allocator<std::basic_string<char,std::char_traits<char>,std::allocator<char> > > >::size
; Function compile flags: /Ogsp
; File c:\program files (x86)\microsoft visual studio 10.0\vc\include\vector
;	COMDAT ?size@?$vector@V?$basic_string@DU?$char_traits@D@std@@V?$allocator@D@2@@std@@V?$allocator@V?$basic_string@DU?$char_traits@D@std@@V?$allocator@D@2@@std@@@2@@std@@QBEIXZ
_TEXT	SEGMENT
?size@?$vector@V?$basic_string@DU?$char_traits@D@std@@V?$allocator@D@2@@std@@V?$allocator@V?$basic_string@DU?$char_traits@D@std@@V?$allocator@D@2@@std@@@2@@std@@QBEIXZ PROC ; std::vector<std::basic_string<char,std::char_traits<char>,std::allocator<char> >,std::allocator<std::basic_string<char,std::char_traits<char>,std::allocator<char> > > >::size, COMDAT
; _this$ = ecx

; 879  : 		return (this->_Mylast - this->_Myfirst);

  00000	8b 41 04	 mov	 eax, DWORD PTR [ecx+4]
  00003	2b 01		 sub	 eax, DWORD PTR [ecx]
  00005	6a 1c		 push	 28			; 0000001cH
  00007	99		 cdq
  00008	59		 pop	 ecx
  00009	f7 f9		 idiv	 ecx

; 880  : 		}

  0000b	c3		 ret	 0
?size@?$vector@V?$basic_string@DU?$char_traits@D@std@@V?$allocator@D@2@@std@@V?$allocator@V?$basic_string@DU?$char_traits@D@std@@V?$allocator@D@2@@std@@@2@@std@@QBEIXZ ENDP ; std::vector<std::basic_string<char,std::char_traits<char>,std::allocator<char> >,std::allocator<std::basic_string<char,std::char_traits<char>,std::allocator<char> > > >::size
_TEXT	ENDS
PUBLIC	??A?$vector@V?$basic_string@DU?$char_traits@D@std@@V?$allocator@D@2@@std@@V?$allocator@V?$basic_string@DU?$char_traits@D@std@@V?$allocator@D@2@@std@@@2@@std@@QAEAAV?$basic_string@DU?$char_traits@D@std@@V?$allocator@D@2@@1@I@Z ; std::vector<std::basic_string<char,std::char_traits<char>,std::allocator<char> >,std::allocator<std::basic_string<char,std::char_traits<char>,std::allocator<char> > > >::operator[]
; Function compile flags: /Ogsp
;	COMDAT ??A?$vector@V?$basic_string@DU?$char_traits@D@std@@V?$allocator@D@2@@std@@V?$allocator@V?$basic_string@DU?$char_traits@D@std@@V?$allocator@D@2@@std@@@2@@std@@QAEAAV?$basic_string@DU?$char_traits@D@std@@V?$allocator@D@2@@1@I@Z
_TEXT	SEGMENT
__Pos$ = 8						; size = 4
??A?$vector@V?$basic_string@DU?$char_traits@D@std@@V?$allocator@D@2@@std@@V?$allocator@V?$basic_string@DU?$char_traits@D@std@@V?$allocator@D@2@@std@@@2@@std@@QAEAAV?$basic_string@DU?$char_traits@D@std@@V?$allocator@D@2@@1@I@Z PROC ; std::vector<std::basic_string<char,std::char_traits<char>,std::allocator<char> >,std::allocator<std::basic_string<char,std::char_traits<char>,std::allocator<char> > > >::operator[], COMDAT
; _this$ = ecx

; 928  : 		{	// subscript mutable sequence

  00000	55		 push	 ebp
  00001	8b ec		 mov	 ebp, esp

; 929  :  #if _ITERATOR_DEBUG_LEVEL == 2
; 930  : 		if (size() <= _Pos)
; 931  : 			{	// report error
; 932  : 			_DEBUG_ERROR("vector subscript out of range");
; 933  : 			_SCL_SECURE_OUT_OF_RANGE;
; 934  : 			}
; 935  : 
; 936  :  #elif _ITERATOR_DEBUG_LEVEL == 1
; 937  : 		_SCL_SECURE_VALIDATE_RANGE(_Pos < size());
; 938  :  #endif /* _ITERATOR_DEBUG_LEVEL */
; 939  : 
; 940  : 		return (*(this->_Myfirst + _Pos));

  00003	8b 45 08	 mov	 eax, DWORD PTR __Pos$[ebp]
  00006	6b c0 1c	 imul	 eax, 28			; 0000001cH
  00009	03 01		 add	 eax, DWORD PTR [ecx]

; 941  : 		}

  0000b	5d		 pop	 ebp
  0000c	c2 04 00	 ret	 4
??A?$vector@V?$basic_string@DU?$char_traits@D@std@@V?$allocator@D@2@@std@@V?$allocator@V?$basic_string@DU?$char_traits@D@std@@V?$allocator@D@2@@std@@@2@@std@@QAEAAV?$basic_string@DU?$char_traits@D@std@@V?$allocator@D@2@@1@I@Z ENDP ; std::vector<std::basic_string<char,std::char_traits<char>,std::allocator<char> >,std::allocator<std::basic_string<char,std::char_traits<char>,std::allocator<char> > > >::operator[]
_TEXT	ENDS
PUBLIC	?capacity@?$vector@V?$basic_string@DU?$char_traits@D@std@@V?$allocator@D@2@@std@@V?$allocator@V?$basic_string@DU?$char_traits@D@std@@V?$allocator@D@2@@std@@@2@@std@@QBEIXZ ; std::vector<std::basic_string<char,std::char_traits<char>,std::allocator<char> >,std::allocator<std::basic_string<char,std::char_traits<char>,std::allocator<char> > > >::capacity
; Function compile flags: /Ogsp
;	COMDAT ?capacity@?$vector@V?$basic_string@DU?$char_traits@D@std@@V?$allocator@D@2@@std@@V?$allocator@V?$basic_string@DU?$char_traits@D@std@@V?$allocator@D@2@@std@@@2@@std@@QBEIXZ
_TEXT	SEGMENT
?capacity@?$vector@V?$basic_string@DU?$char_traits@D@std@@V?$allocator@D@2@@std@@V?$allocator@V?$basic_string@DU?$char_traits@D@std@@V?$allocator@D@2@@std@@@2@@std@@QBEIXZ PROC ; std::vector<std::basic_string<char,std::char_traits<char>,std::allocator<char> >,std::allocator<std::basic_string<char,std::char_traits<char>,std::allocator<char> > > >::capacity, COMDAT
; _this$ = ecx

; 777  : 		return (this->_Myend - this->_Myfirst);

  00000	8b 41 08	 mov	 eax, DWORD PTR [ecx+8]
  00003	2b 01		 sub	 eax, DWORD PTR [ecx]
  00005	6a 1c		 push	 28			; 0000001cH
  00007	99		 cdq
  00008	59		 pop	 ecx
  00009	f7 f9		 idiv	 ecx

; 778  : 		}

  0000b	c3		 ret	 0
?capacity@?$vector@V?$basic_string@DU?$char_traits@D@std@@V?$allocator@D@2@@std@@V?$allocator@V?$basic_string@DU?$char_traits@D@std@@V?$allocator@D@2@@std@@@2@@std@@QBEIXZ ENDP ; std::vector<std::basic_string<char,std::char_traits<char>,std::allocator<char> >,std::allocator<std::basic_string<char,std::char_traits<char>,std::allocator<char> > > >::capacity
_TEXT	ENDS
PUBLIC	??0?$allocator@V?$basic_string@DU?$char_traits@D@std@@V?$allocator@D@2@@std@@@std@@QAE@XZ ; std::allocator<std::basic_string<char,std::char_traits<char>,std::allocator<char> > >::allocator<std::basic_string<char,std::char_traits<char>,std::allocator<char> > >
; Function compile flags: /Ogsp
; File c:\program files (x86)\microsoft visual studio 10.0\vc\include\xmemory
;	COMDAT ??0?$allocator@V?$basic_string@DU?$char_traits@D@std@@V?$allocator@D@2@@std@@@std@@QAE@XZ
_TEXT	SEGMENT
??0?$allocator@V?$basic_string@DU?$char_traits@D@std@@V?$allocator@D@2@@std@@@std@@QAE@XZ PROC ; std::allocator<std::basic_string<char,std::char_traits<char>,std::allocator<char> > >::allocator<std::basic_string<char,std::char_traits<char>,std::allocator<char> > >, COMDAT
; _this$ = ecx

; 161  : 	_ALLOCATOR() _THROW0()

  00000	8b c1		 mov	 eax, ecx

; 162  : 		{	// construct default allocator (do nothing)
; 163  : 		}

  00002	c3		 ret	 0
??0?$allocator@V?$basic_string@DU?$char_traits@D@std@@V?$allocator@D@2@@std@@@std@@QAE@XZ ENDP ; std::allocator<std::basic_string<char,std::char_traits<char>,std::allocator<char> > >::allocator<std::basic_string<char,std::char_traits<char>,std::allocator<char> > >
_TEXT	ENDS
PUBLIC	??0?$_Vector_const_iterator@V?$_Vector_val@V?$basic_string@DU?$char_traits@D@std@@V?$allocator@D@2@@std@@V?$allocator@V?$basic_string@DU?$char_traits@D@std@@V?$allocator@D@2@@std@@@2@@std@@@std@@QAE@XZ ; std::_Vector_const_iterator<std::_Vector_val<std::basic_string<char,std::char_traits<char>,std::allocator<char> >,std::allocator<std::basic_string<char,std::char_traits<char>,std::allocator<char> > > > >::_Vector_const_iterator<std::_Vector_val<std::basic_string<char,std::char_traits<char>,std::allocator<char> >,std::allocator<std::basic_string<char,std::char_traits<char>,std::allocator<char> > > > >
; Function compile flags: /Ogsp
; File c:\program files (x86)\microsoft visual studio 10.0\vc\include\vector
;	COMDAT ??0?$_Vector_const_iterator@V?$_Vector_val@V?$basic_string@DU?$char_traits@D@std@@V?$allocator@D@2@@std@@V?$allocator@V?$basic_string@DU?$char_traits@D@std@@V?$allocator@D@2@@std@@@2@@std@@@std@@QAE@XZ
_TEXT	SEGMENT
??0?$_Vector_const_iterator@V?$_Vector_val@V?$basic_string@DU?$char_traits@D@std@@V?$allocator@D@2@@std@@V?$allocator@V?$basic_string@DU?$char_traits@D@std@@V?$allocator@D@2@@std@@@2@@std@@@std@@QAE@XZ PROC ; std::_Vector_const_iterator<std::_Vector_val<std::basic_string<char,std::char_traits<char>,std::allocator<char> >,std::allocator<std::basic_string<char,std::char_traits<char>,std::allocator<char> > > > >::_Vector_const_iterator<std::_Vector_val<std::basic_string<char,std::char_traits<char>,std::allocator<char> >,std::allocator<std::basic_string<char,std::char_traits<char>,std::allocator<char> > > > >, COMDAT
; _this$ = ecx

; 40   : 		{	// construct with null pointer

  00000	8b c1		 mov	 eax, ecx
  00002	83 20 00	 and	 DWORD PTR [eax], 0

; 41   : 		}

  00005	c3		 ret	 0
??0?$_Vector_const_iterator@V?$_Vector_val@V?$basic_string@DU?$char_traits@D@std@@V?$allocator@D@2@@std@@V?$allocator@V?$basic_string@DU?$char_traits@D@std@@V?$allocator@D@2@@std@@@2@@std@@@std@@QAE@XZ ENDP ; std::_Vector_const_iterator<std::_Vector_val<std::basic_string<char,std::char_traits<char>,std::allocator<char> >,std::allocator<std::basic_string<char,std::char_traits<char>,std::allocator<char> > > > >::_Vector_const_iterator<std::_Vector_val<std::basic_string<char,std::char_traits<char>,std::allocator<char> >,std::allocator<std::basic_string<char,std::char_traits<char>,std::allocator<char> > > > >
_TEXT	ENDS
PUBLIC	??E?$_Vector_const_iterator@V?$_Vector_val@V?$basic_string@DU?$char_traits@D@std@@V?$allocator@D@2@@std@@V?$allocator@V?$basic_string@DU?$char_traits@D@std@@V?$allocator@D@2@@std@@@2@@std@@@std@@QAEAAV01@XZ ; std::_Vector_const_iterator<std::_Vector_val<std::basic_string<char,std::char_traits<char>,std::allocator<char> >,std::allocator<std::basic_string<char,std::char_traits<char>,std::allocator<char> > > > >::operator++
; Function compile flags: /Ogsp
;	COMDAT ??E?$_Vector_const_iterator@V?$_Vector_val@V?$basic_string@DU?$char_traits@D@std@@V?$allocator@D@2@@std@@V?$allocator@V?$basic_string@DU?$char_traits@D@std@@V?$allocator@D@2@@std@@@2@@std@@@std@@QAEAAV01@XZ
_TEXT	SEGMENT
??E?$_Vector_const_iterator@V?$_Vector_val@V?$basic_string@DU?$char_traits@D@std@@V?$allocator@D@2@@std@@V?$allocator@V?$basic_string@DU?$char_traits@D@std@@V?$allocator@D@2@@std@@@2@@std@@@std@@QAEAAV01@XZ PROC ; std::_Vector_const_iterator<std::_Vector_val<std::basic_string<char,std::char_traits<char>,std::allocator<char> >,std::allocator<std::basic_string<char,std::char_traits<char>,std::allocator<char> > > > >::operator++, COMDAT
; _this$ = ecx

; 93   : 		{	// preincrement

  00000	8b c1		 mov	 eax, ecx

; 94   :  #if _ITERATOR_DEBUG_LEVEL == 2
; 95   : 		if (this->_Getcont() == 0
; 96   : 			|| this->_Ptr == 0
; 97   : 			|| ((_Myvec *)this->_Getcont())->_Mylast <= this->_Ptr)
; 98   : 			{	// report error
; 99   : 			_DEBUG_ERROR("vector iterator not incrementable");
; 100  : 			_SCL_SECURE_OUT_OF_RANGE;
; 101  : 			}
; 102  : 
; 103  :  #elif _ITERATOR_DEBUG_LEVEL == 1
; 104  : 		_SCL_SECURE_VALIDATE(this->_Getcont() != 0);
; 105  : 		_SCL_SECURE_VALIDATE_RANGE(
; 106  : 			this->_Ptr != 0
; 107  : 			&& this->_Ptr < ((_Myvec *)this->_Getcont())->_Mylast);
; 108  :  #endif /* _ITERATOR_DEBUG_LEVEL */
; 109  : 
; 110  : 		++this->_Ptr;

  00002	83 00 1c	 add	 DWORD PTR [eax], 28	; 0000001cH

; 111  : 		return (*this);
; 112  : 		}

  00005	c3		 ret	 0
??E?$_Vector_const_iterator@V?$_Vector_val@V?$basic_string@DU?$char_traits@D@std@@V?$allocator@D@2@@std@@V?$allocator@V?$basic_string@DU?$char_traits@D@std@@V?$allocator@D@2@@std@@@2@@std@@@std@@QAEAAV01@XZ ENDP ; std::_Vector_const_iterator<std::_Vector_val<std::basic_string<char,std::char_traits<char>,std::allocator<char> >,std::allocator<std::basic_string<char,std::char_traits<char>,std::allocator<char> > > > >::operator++
_TEXT	ENDS
PUBLIC	??_C@_0BD@OLBABOEK@vector?$DMT?$DO?5too?5long?$AA@ ; `string'
PUBLIC	?_Xlen@?$vector@V?$basic_string@DU?$char_traits@D@std@@V?$allocator@D@2@@std@@V?$allocator@V?$basic_string@DU?$char_traits@D@std@@V?$allocator@D@2@@std@@@2@@std@@IBEXXZ ; std::vector<std::basic_string<char,std::char_traits<char>,std::allocator<char> >,std::allocator<std::basic_string<char,std::char_traits<char>,std::allocator<char> > > >::_Xlen
EXTRN	__imp_?_Xlength_error@std@@YAXPBD@Z:PROC
;	COMDAT ??_C@_0BD@OLBABOEK@vector?$DMT?$DO?5too?5long?$AA@
CONST	SEGMENT
??_C@_0BD@OLBABOEK@vector?$DMT?$DO?5too?5long?$AA@ DB 'vector<T> too long'
	DB	00H						; `string'
; Function compile flags: /Ogsp
CONST	ENDS
;	COMDAT ?_Xlen@?$vector@V?$basic_string@DU?$char_traits@D@std@@V?$allocator@D@2@@std@@V?$allocator@V?$basic_string@DU?$char_traits@D@std@@V?$allocator@D@2@@std@@@2@@std@@IBEXXZ
_TEXT	SEGMENT
?_Xlen@?$vector@V?$basic_string@DU?$char_traits@D@std@@V?$allocator@D@2@@std@@V?$allocator@V?$basic_string@DU?$char_traits@D@std@@V?$allocator@D@2@@std@@@2@@std@@IBEXXZ PROC ; std::vector<std::basic_string<char,std::char_traits<char>,std::allocator<char> >,std::allocator<std::basic_string<char,std::char_traits<char>,std::allocator<char> > > >::_Xlen, COMDAT
; _this$ = ecx

; 1427 : 		_Xlength_error("vector<T> too long");

  00000	68 00 00 00 00	 push	 OFFSET ??_C@_0BD@OLBABOEK@vector?$DMT?$DO?5too?5long?$AA@
  00005	ff 15 00 00 00
	00		 call	 DWORD PTR __imp_?_Xlength_error@std@@YAXPBD@Z
$LN4@Xlen:
$LN3@Xlen:
  0000b	cc		 int	 3
?_Xlen@?$vector@V?$basic_string@DU?$char_traits@D@std@@V?$allocator@D@2@@std@@V?$allocator@V?$basic_string@DU?$char_traits@D@std@@V?$allocator@D@2@@std@@@2@@std@@IBEXXZ ENDP ; std::vector<std::basic_string<char,std::char_traits<char>,std::allocator<char> >,std::allocator<std::basic_string<char,std::char_traits<char>,std::allocator<char> > > >::_Xlen
_TEXT	ENDS
PUBLIC	??0?$allocator@V?$basic_string@DU?$char_traits@D@std@@V?$allocator@D@2@@std@@@std@@QAE@ABV01@@Z ; std::allocator<std::basic_string<char,std::char_traits<char>,std::allocator<char> > >::allocator<std::basic_string<char,std::char_traits<char>,std::allocator<char> > >
; Function compile flags: /Ogsp
; File c:\program files (x86)\microsoft visual studio 10.0\vc\include\xmemory
;	COMDAT ??0?$allocator@V?$basic_string@DU?$char_traits@D@std@@V?$allocator@D@2@@std@@@std@@QAE@ABV01@@Z
_TEXT	SEGMENT
___formal$ = 8						; size = 4
??0?$allocator@V?$basic_string@DU?$char_traits@D@std@@V?$allocator@D@2@@std@@@std@@QAE@ABV01@@Z PROC ; std::allocator<std::basic_string<char,std::char_traits<char>,std::allocator<char> > >::allocator<std::basic_string<char,std::char_traits<char>,std::allocator<char> > >, COMDAT
; _this$ = ecx

; 165  : 	_ALLOCATOR(const _ALLOCATOR<_Ty>&) _THROW0()

  00000	8b c1		 mov	 eax, ecx

; 166  : 		{	// construct by copying (do nothing)
; 167  : 		}

  00002	c2 04 00	 ret	 4
??0?$allocator@V?$basic_string@DU?$char_traits@D@std@@V?$allocator@D@2@@std@@@std@@QAE@ABV01@@Z ENDP ; std::allocator<std::basic_string<char,std::char_traits<char>,std::allocator<char> > >::allocator<std::basic_string<char,std::char_traits<char>,std::allocator<char> > >
_TEXT	ENDS
PUBLIC	??D?$_Vector_const_iterator@V?$_Vector_val@V?$basic_string@DU?$char_traits@D@std@@V?$allocator@D@2@@std@@V?$allocator@V?$basic_string@DU?$char_traits@D@std@@V?$allocator@D@2@@std@@@2@@std@@@std@@QBEABV?$basic_string@DU?$char_traits@D@std@@V?$allocator@D@2@@1@XZ ; std::_Vector_const_iterator<std::_Vector_val<std::basic_string<char,std::char_traits<char>,std::allocator<char> >,std::allocator<std::basic_string<char,std::char_traits<char>,std::allocator<char> > > > >::operator*
; Function compile flags: /Ogsp
; File c:\program files (x86)\microsoft visual studio 10.0\vc\include\vector
;	COMDAT ??D?$_Vector_const_iterator@V?$_Vector_val@V?$basic_string@DU?$char_traits@D@std@@V?$allocator@D@2@@std@@V?$allocator@V?$basic_string@DU?$char_traits@D@std@@V?$allocator@D@2@@std@@@2@@std@@@std@@QBEABV?$basic_string@DU?$char_traits@D@std@@V?$allocator@D@2@@1@XZ
_TEXT	SEGMENT
??D?$_Vector_const_iterator@V?$_Vector_val@V?$basic_string@DU?$char_traits@D@std@@V?$allocator@D@2@@std@@V?$allocator@V?$basic_string@DU?$char_traits@D@std@@V?$allocator@D@2@@std@@@2@@std@@@std@@QBEABV?$basic_string@DU?$char_traits@D@std@@V?$allocator@D@2@@1@XZ PROC ; std::_Vector_const_iterator<std::_Vector_val<std::basic_string<char,std::char_traits<char>,std::allocator<char> >,std::allocator<std::basic_string<char,std::char_traits<char>,std::allocator<char> > > > >::operator*, COMDAT
; _this$ = ecx

; 64   :  #if _ITERATOR_DEBUG_LEVEL == 2
; 65   : 		if (this->_Getcont() == 0
; 66   : 			|| this->_Ptr == 0
; 67   : 			|| this->_Ptr < ((_Myvec *)this->_Getcont())->_Myfirst
; 68   : 			|| ((_Myvec *)this->_Getcont())->_Mylast <= this->_Ptr)
; 69   : 			{	// report error
; 70   : 			_DEBUG_ERROR("vector iterator not dereferencable");
; 71   : 			_SCL_SECURE_OUT_OF_RANGE;
; 72   : 			}
; 73   : 
; 74   :  #elif _ITERATOR_DEBUG_LEVEL == 1
; 75   : 		_SCL_SECURE_VALIDATE(this->_Getcont() != 0);
; 76   : 		_SCL_SECURE_VALIDATE_RANGE(
; 77   : 			this->_Ptr != 0
; 78   : 			&& ((_Myvec *)this->_Getcont())->_Myfirst <= this->_Ptr
; 79   : 			&& this->_Ptr < ((_Myvec *)this->_Getcont())->_Mylast);
; 80   :  #endif /* _ITERATOR_DEBUG_LEVEL */
; 81   : 
; 82   : 		__analysis_assume(this->_Ptr != 0);
; 83   : 
; 84   : 		return (*this->_Ptr);

  00000	8b 01		 mov	 eax, DWORD PTR [ecx]

; 85   : 		}

  00002	c3		 ret	 0
??D?$_Vector_const_iterator@V?$_Vector_val@V?$basic_string@DU?$char_traits@D@std@@V?$allocator@D@2@@std@@V?$allocator@V?$basic_string@DU?$char_traits@D@std@@V?$allocator@D@2@@std@@@2@@std@@@std@@QBEABV?$basic_string@DU?$char_traits@D@std@@V?$allocator@D@2@@1@XZ ENDP ; std::_Vector_const_iterator<std::_Vector_val<std::basic_string<char,std::char_traits<char>,std::allocator<char> >,std::allocator<std::basic_string<char,std::char_traits<char>,std::allocator<char> > > > >::operator*
_TEXT	ENDS
PUBLIC	?_Compat@?$_Vector_const_iterator@V?$_Vector_val@V?$basic_string@DU?$char_traits@D@std@@V?$allocator@D@2@@std@@V?$allocator@V?$basic_string@DU?$char_traits@D@std@@V?$allocator@D@2@@std@@@2@@std@@@std@@QBEXABV12@@Z ; std::_Vector_const_iterator<std::_Vector_val<std::basic_string<char,std::char_traits<char>,std::allocator<char> >,std::allocator<std::basic_string<char,std::char_traits<char>,std::allocator<char> > > > >::_Compat
; Function compile flags: /Ogsp
;	COMDAT ?_Compat@?$_Vector_const_iterator@V?$_Vector_val@V?$basic_string@DU?$char_traits@D@std@@V?$allocator@D@2@@std@@V?$allocator@V?$basic_string@DU?$char_traits@D@std@@V?$allocator@D@2@@std@@@2@@std@@@std@@QBEXABV12@@Z
_TEXT	SEGMENT
___formal$ = 8						; size = 4
?_Compat@?$_Vector_const_iterator@V?$_Vector_val@V?$basic_string@DU?$char_traits@D@std@@V?$allocator@D@2@@std@@V?$allocator@V?$basic_string@DU?$char_traits@D@std@@V?$allocator@D@2@@std@@@2@@std@@@std@@QBEXABV12@@Z PROC ; std::_Vector_const_iterator<std::_Vector_val<std::basic_string<char,std::char_traits<char>,std::allocator<char> >,std::allocator<std::basic_string<char,std::char_traits<char>,std::allocator<char> > > > >::_Compat, COMDAT
; _this$ = ecx

; 253  : 		}

  00000	c2 04 00	 ret	 4
?_Compat@?$_Vector_const_iterator@V?$_Vector_val@V?$basic_string@DU?$char_traits@D@std@@V?$allocator@D@2@@std@@V?$allocator@V?$basic_string@DU?$char_traits@D@std@@V?$allocator@D@2@@std@@@2@@std@@@std@@QBEXABV12@@Z ENDP ; std::_Vector_const_iterator<std::_Vector_val<std::basic_string<char,std::char_traits<char>,std::allocator<char> >,std::allocator<std::basic_string<char,std::char_traits<char>,std::allocator<char> > > > >::_Compat
_TEXT	ENDS
PUBLIC	?max_size@?$allocator@V?$basic_string@DU?$char_traits@D@std@@V?$allocator@D@2@@std@@@std@@QBEIXZ ; std::allocator<std::basic_string<char,std::char_traits<char>,std::allocator<char> > >::max_size
; Function compile flags: /Ogsp
; File c:\program files (x86)\microsoft visual studio 10.0\vc\include\xmemory
;	COMDAT ?max_size@?$allocator@V?$basic_string@DU?$char_traits@D@std@@V?$allocator@D@2@@std@@@std@@QBEIXZ
_TEXT	SEGMENT
?max_size@?$allocator@V?$basic_string@DU?$char_traits@D@std@@V?$allocator@D@2@@std@@@std@@QBEIXZ PROC ; std::allocator<std::basic_string<char,std::char_traits<char>,std::allocator<char> > >::max_size, COMDAT
; _this$ = ecx

; 218  : 		_SIZT _Count = (_SIZT)(-1) / sizeof (_Ty);
; 219  : 		return (0 < _Count ? _Count : 1);

  00000	b8 49 92 24 09	 mov	 eax, 153391689		; 09249249H

; 220  : 		}

  00005	c3		 ret	 0
?max_size@?$allocator@V?$basic_string@DU?$char_traits@D@std@@V?$allocator@D@2@@std@@@std@@QBEIXZ ENDP ; std::allocator<std::basic_string<char,std::char_traits<char>,std::allocator<char> > >::max_size
_TEXT	ENDS
PUBLIC	?_Adopt@_Iterator_base0@std@@QAEXPBX@Z		; std::_Iterator_base0::_Adopt
; Function compile flags: /Ogsp
; File c:\program files (x86)\microsoft visual studio 10.0\vc\include\xutility
;	COMDAT ?_Adopt@_Iterator_base0@std@@QAEXPBX@Z
_TEXT	SEGMENT
___formal$ = 8						; size = 4
?_Adopt@_Iterator_base0@std@@QAEXPBX@Z PROC		; std::_Iterator_base0::_Adopt, COMDAT
; _this$ = ecx

; 49   : 		}

  00000	c2 04 00	 ret	 4
?_Adopt@_Iterator_base0@std@@QAEXPBX@Z ENDP		; std::_Iterator_base0::_Adopt
_TEXT	ENDS
PUBLIC	__TI2?AVbad_alloc@std@@
PUBLIC	??$_Allocate@V?$basic_string@DU?$char_traits@D@std@@V?$allocator@D@2@@std@@@std@@YAPAV?$basic_string@DU?$char_traits@D@std@@V?$allocator@D@2@@0@IPAV10@@Z ; std::_Allocate<std::basic_string<char,std::char_traits<char>,std::allocator<char> > >
PUBLIC	__CTA2?AVbad_alloc@std@@
PUBLIC	__CT??_R0?AVbad_alloc@std@@@8??0bad_alloc@std@@QAE@ABV01@@Z12
PUBLIC	??0bad_alloc@std@@QAE@ABV01@@Z			; std::bad_alloc::bad_alloc
PUBLIC	__CT??_R0?AVexception@std@@@8??0exception@std@@QAE@ABV01@@Z12
EXTRN	??2@YAPAXI@Z:PROC				; operator new
EXTRN	__CxxThrowException@8:PROC
EXTRN	??0exception@std@@QAE@ABV01@@Z:PROC		; std::exception::exception
;	COMDAT __CT??_R0?AVexception@std@@@8??0exception@std@@QAE@ABV01@@Z12
; File c:\program files (x86)\microsoft visual studio 10.0\vc\include\exception
xdata$x	SEGMENT
__CT??_R0?AVexception@std@@@8??0exception@std@@QAE@ABV01@@Z12 DD 00H
	DD	FLAT:??_R0?AVexception@std@@@8
	DD	00H
	DD	0ffffffffH
	ORG $+4
	DD	0cH
	DD	FLAT:??0exception@std@@QAE@ABV01@@Z
xdata$x	ENDS
;	COMDAT __CT??_R0?AVbad_alloc@std@@@8??0bad_alloc@std@@QAE@ABV01@@Z12
xdata$x	SEGMENT
__CT??_R0?AVbad_alloc@std@@@8??0bad_alloc@std@@QAE@ABV01@@Z12 DD 00H
	DD	FLAT:??_R0?AVbad_alloc@std@@@8
	DD	00H
	DD	0ffffffffH
	ORG $+4
	DD	0cH
	DD	FLAT:??0bad_alloc@std@@QAE@ABV01@@Z
xdata$x	ENDS
;	COMDAT __CTA2?AVbad_alloc@std@@
xdata$x	SEGMENT
__CTA2?AVbad_alloc@std@@ DD 02H
	DD	FLAT:__CT??_R0?AVbad_alloc@std@@@8??0bad_alloc@std@@QAE@ABV01@@Z12
	DD	FLAT:__CT??_R0?AVexception@std@@@8??0exception@std@@QAE@ABV01@@Z12
xdata$x	ENDS
;	COMDAT __TI2?AVbad_alloc@std@@
xdata$x	SEGMENT
__TI2?AVbad_alloc@std@@ DD 00H
	DD	FLAT:??1bad_alloc@std@@UAE@XZ
	DD	00H
	DD	FLAT:__CTA2?AVbad_alloc@std@@
; Function compile flags: /Ogsp
; File c:\program files (x86)\microsoft visual studio 10.0\vc\include\xmemory
xdata$x	ENDS
;	COMDAT ??$_Allocate@V?$basic_string@DU?$char_traits@D@std@@V?$allocator@D@2@@std@@@std@@YAPAV?$basic_string@DU?$char_traits@D@std@@V?$allocator@D@2@@0@IPAV10@@Z
_TEXT	SEGMENT
$T508706 = -12						; size = 12
$T508711 = 8						; size = 4
__Count$ = 8						; size = 4
___formal$ = 12						; size = 4
??$_Allocate@V?$basic_string@DU?$char_traits@D@std@@V?$allocator@D@2@@std@@@std@@YAPAV?$basic_string@DU?$char_traits@D@std@@V?$allocator@D@2@@0@IPAV10@@Z PROC ; std::_Allocate<std::basic_string<char,std::char_traits<char>,std::allocator<char> > >, COMDAT

; 30   : 	{	// allocate storage for _Count elements of type _Ty

  00000	55		 push	 ebp
  00001	8b ec		 mov	 ebp, esp

; 31   : 	void *_Ptr = 0;
; 32   : 
; 33   : 	if (_Count <= 0)

  00003	8b 4d 08	 mov	 ecx, DWORD PTR __Count$[ebp]
  00006	83 ec 0c	 sub	 esp, 12			; 0000000cH
  00009	33 c0		 xor	 eax, eax
  0000b	85 c9		 test	 ecx, ecx

; 34   : 		_Count = 0;
; 35   : 	else if (((_SIZT)(-1) / sizeof (_Ty) < _Count)

  0000d	74 3c		 je	 SHORT $LN5@Allocate

; 36   : 		|| (_Ptr = ::operator new(_Count * sizeof (_Ty))) == 0)

  0000f	81 f9 49 92 24
	09		 cmp	 ecx, 153391689		; 09249249H
  00015	77 0e		 ja	 SHORT $LN1@Allocate
  00017	6b c9 1c	 imul	 ecx, 28			; 0000001cH
  0001a	51		 push	 ecx
  0001b	e8 00 00 00 00	 call	 ??2@YAPAXI@Z		; operator new
  00020	59		 pop	 ecx
  00021	85 c0		 test	 eax, eax

; 38   : 
; 39   : 	return ((_Ty _FARQ *)_Ptr);

  00023	75 26		 jne	 SHORT $LN5@Allocate
$LN1@Allocate:

; 37   : 		_THROW_NCEE(bad_alloc, 0);

  00025	83 65 08 00	 and	 DWORD PTR $T508711[ebp], 0
  00029	8d 45 08	 lea	 eax, DWORD PTR $T508711[ebp]
  0002c	50		 push	 eax
  0002d	8d 4d f4	 lea	 ecx, DWORD PTR $T508706[ebp]
  00030	ff 15 00 00 00
	00		 call	 DWORD PTR __imp_??0exception@std@@QAE@ABQBD@Z
  00036	68 00 00 00 00	 push	 OFFSET __TI2?AVbad_alloc@std@@
  0003b	8d 45 f4	 lea	 eax, DWORD PTR $T508706[ebp]
  0003e	50		 push	 eax
  0003f	c7 45 f4 00 00
	00 00		 mov	 DWORD PTR $T508706[ebp], OFFSET ??_7bad_alloc@std@@6B@
  00046	e8 00 00 00 00	 call	 __CxxThrowException@8
$LN10@Allocate:
$LN5@Allocate:

; 40   : 	}

  0004b	c9		 leave
  0004c	c3		 ret	 0
$LN9@Allocate:
??$_Allocate@V?$basic_string@DU?$char_traits@D@std@@V?$allocator@D@2@@std@@@std@@YAPAV?$basic_string@DU?$char_traits@D@std@@V?$allocator@D@2@@0@IPAV10@@Z ENDP ; std::_Allocate<std::basic_string<char,std::char_traits<char>,std::allocator<char> > >
_TEXT	ENDS
PUBLIC	??$forward@AAV?$basic_string@DU?$char_traits@D@std@@V?$allocator@D@2@@std@@@std@@YAAAV?$basic_string@DU?$char_traits@D@std@@V?$allocator@D@2@@0@AAV10@@Z ; std::forward<std::basic_string<char,std::char_traits<char>,std::allocator<char> > &>
; Function compile flags: /Ogsp
; File c:\program files (x86)\microsoft visual studio 10.0\vc\include\utility
;	COMDAT ??$forward@AAV?$basic_string@DU?$char_traits@D@std@@V?$allocator@D@2@@std@@@std@@YAAAV?$basic_string@DU?$char_traits@D@std@@V?$allocator@D@2@@0@AAV10@@Z
_TEXT	SEGMENT
__Arg$ = 8						; size = 4
??$forward@AAV?$basic_string@DU?$char_traits@D@std@@V?$allocator@D@2@@std@@@std@@YAAAV?$basic_string@DU?$char_traits@D@std@@V?$allocator@D@2@@0@AAV10@@Z PROC ; std::forward<std::basic_string<char,std::char_traits<char>,std::allocator<char> > &>, COMDAT

; 78   : 	{	// forward _Arg, given explicitly specified type parameter

  00000	55		 push	 ebp
  00001	8b ec		 mov	 ebp, esp

; 79   : 	return ((_Ty&&)_Arg);

  00003	8b 45 08	 mov	 eax, DWORD PTR __Arg$[ebp]

; 80   : 	}

  00006	5d		 pop	 ebp
  00007	c3		 ret	 0
??$forward@AAV?$basic_string@DU?$char_traits@D@std@@V?$allocator@D@2@@std@@@std@@YAAAV?$basic_string@DU?$char_traits@D@std@@V?$allocator@D@2@@0@AAV10@@Z ENDP ; std::forward<std::basic_string<char,std::char_traits<char>,std::allocator<char> > &>
_TEXT	ENDS
PUBLIC	?_DECSTR@@YAXPADH@Z				; _DECSTR
; Function compile flags: /Ogsp
; File d:\lost saga for developer\youtube\tutorial\source\src\lsclient\stringprotect.h
;	COMDAT ?_DECSTR@@YAXPADH@Z
_TEXT	SEGMENT
_s$ = 8							; size = 4
_l$ = 12						; size = 4
?_DECSTR@@YAXPADH@Z PROC				; _DECSTR, COMDAT

; 40   : __forceinline void _DECSTR(char* s, int l){int i=0,l4=(l-1)/4,*p=(int*)s;s[l-1]=0;for(;i<l4;++i)*(p++)^=0xEAEBECED;for(i=l4*4;i<l-1;++i)s[i]^=0xED-i%4;}

  00000	55		 push	 ebp
  00001	8b ec		 mov	 ebp, esp
  00003	8b 4d 0c	 mov	 ecx, DWORD PTR _l$[ebp]
  00006	56		 push	 esi
  00007	8b 75 08	 mov	 esi, DWORD PTR _s$[ebp]
  0000a	57		 push	 edi
  0000b	8d 79 ff	 lea	 edi, DWORD PTR [ecx-1]
  0000e	8b c7		 mov	 eax, edi
  00010	99		 cdq
  00011	83 e2 03	 and	 edx, 3
  00014	03 c2		 add	 eax, edx
  00016	c1 f8 02	 sar	 eax, 2
  00019	8b d6		 mov	 edx, esi
  0001b	c6 44 0e ff 00	 mov	 BYTE PTR [esi+ecx-1], 0
  00020	85 c0		 test	 eax, eax
  00022	7e 0e		 jle	 SHORT $LN4@DECSTR
  00024	8b c8		 mov	 ecx, eax
$LL6@DECSTR:
  00026	81 32 ed ec eb
	ea		 xor	 DWORD PTR [edx], -353637139 ; eaebecedH
  0002c	83 c2 04	 add	 edx, 4
  0002f	49		 dec	 ecx
  00030	75 f4		 jne	 SHORT $LL6@DECSTR
$LN4@DECSTR:
  00032	c1 e0 02	 shl	 eax, 2
  00035	eb 17		 jmp	 SHORT $LN14@DECSTR
$LL3@DECSTR:
  00037	8b c8		 mov	 ecx, eax
  00039	81 e1 03 00 00
	80		 and	 ecx, -2147483645	; 80000003H
  0003f	79 05		 jns	 SHORT $LN13@DECSTR
  00041	49		 dec	 ecx
  00042	83 c9 fc	 or	 ecx, -4			; fffffffcH
  00045	41		 inc	 ecx
$LN13@DECSTR:
  00046	b2 ed		 mov	 dl, -19			; ffffffedH
  00048	2a d1		 sub	 dl, cl
  0004a	30 14 30	 xor	 BYTE PTR [eax+esi], dl
  0004d	40		 inc	 eax
$LN14@DECSTR:
  0004e	3b c7		 cmp	 eax, edi
  00050	7c e5		 jl	 SHORT $LL3@DECSTR
  00052	5f		 pop	 edi
  00053	5e		 pop	 esi
  00054	5d		 pop	 ebp
  00055	c3		 ret	 0
?_DECSTR@@YAXPADH@Z ENDP				; _DECSTR
_TEXT	ENDS
PUBLIC	?GetFullWidth@ioComplexStringPrinter@@QBEMXZ	; ioComplexStringPrinter::GetFullWidth
EXTRN	__fltused:DWORD
; Function compile flags: /Ogsp
; File d:\lost saga for developer\youtube\tutorial\source\src\lsclient\iocomplexstringprinter.h
;	COMDAT ?GetFullWidth@ioComplexStringPrinter@@QBEMXZ
_TEXT	SEGMENT
?GetFullWidth@ioComplexStringPrinter@@QBEMXZ PROC	; ioComplexStringPrinter::GetFullWidth, COMDAT
; _this$ = ecx

; 125  : 	inline float GetFullWidth() const { return m_fFullWidth; }

  00000	d9 41 1c	 fld	 DWORD PTR [ecx+28]
  00003	c3		 ret	 0
?GetFullWidth@ioComplexStringPrinter@@QBEMXZ ENDP	; ioComplexStringPrinter::GetFullWidth
_TEXT	ENDS
PUBLIC	?size@?$basic_string@DU?$char_traits@D@std@@V?$allocator@D@2@@std@@QBEIXZ ; std::basic_string<char,std::char_traits<char>,std::allocator<char> >::size
; Function compile flags: /Ogsp
; File c:\program files (x86)\microsoft visual studio 10.0\vc\include\xstring
;	COMDAT ?size@?$basic_string@DU?$char_traits@D@std@@V?$allocator@D@2@@std@@QBEIXZ
_TEXT	SEGMENT
?size@?$basic_string@DU?$char_traits@D@std@@V?$allocator@D@2@@std@@QBEIXZ PROC ; std::basic_string<char,std::char_traits<char>,std::allocator<char> >::size, COMDAT
; _this$ = ecx

; 1512 : 		return (this->_Mysize);

  00000	8b 41 10	 mov	 eax, DWORD PTR [ecx+16]

; 1513 : 		}

  00003	c3		 ret	 0
?size@?$basic_string@DU?$char_traits@D@std@@V?$allocator@D@2@@std@@QBEIXZ ENDP ; std::basic_string<char,std::char_traits<char>,std::allocator<char> >::size
_TEXT	ENDS
PUBLIC	?empty@?$vector@UtagTextPiece@ioComplexStringPrinter@@V?$allocator@UtagTextPiece@ioComplexStringPrinter@@@std@@@std@@QBE_NXZ ; std::vector<ioComplexStringPrinter::tagTextPiece,std::allocator<ioComplexStringPrinter::tagTextPiece> >::empty
; Function compile flags: /Ogsp
; File c:\program files (x86)\microsoft visual studio 10.0\vc\include\vector
;	COMDAT ?empty@?$vector@UtagTextPiece@ioComplexStringPrinter@@V?$allocator@UtagTextPiece@ioComplexStringPrinter@@@std@@@std@@QBE_NXZ
_TEXT	SEGMENT
?empty@?$vector@UtagTextPiece@ioComplexStringPrinter@@V?$allocator@UtagTextPiece@ioComplexStringPrinter@@@std@@@std@@QBE_NXZ PROC ; std::vector<ioComplexStringPrinter::tagTextPiece,std::allocator<ioComplexStringPrinter::tagTextPiece> >::empty, COMDAT
; _this$ = ecx

; 889  : 		return (this->_Myfirst == this->_Mylast);

  00000	8b 01		 mov	 eax, DWORD PTR [ecx]
  00002	2b 41 04	 sub	 eax, DWORD PTR [ecx+4]
  00005	f7 d8		 neg	 eax
  00007	1b c0		 sbb	 eax, eax
  00009	40		 inc	 eax

; 890  : 		}

  0000a	c3		 ret	 0
?empty@?$vector@UtagTextPiece@ioComplexStringPrinter@@V?$allocator@UtagTextPiece@ioComplexStringPrinter@@@std@@@std@@QBE_NXZ ENDP ; std::vector<ioComplexStringPrinter::tagTextPiece,std::allocator<ioComplexStringPrinter::tagTextPiece> >::empty
_TEXT	ENDS
PUBLIC	?_Myptr@?$basic_string@DU?$char_traits@D@std@@V?$allocator@D@2@@std@@QBEPBDXZ ; std::basic_string<char,std::char_traits<char>,std::allocator<char> >::_Myptr
; Function compile flags: /Ogsp
; File c:\program files (x86)\microsoft visual studio 10.0\vc\include\xstring
;	COMDAT ?_Myptr@?$basic_string@DU?$char_traits@D@std@@V?$allocator@D@2@@std@@QBEPBDXZ
_TEXT	SEGMENT
?_Myptr@?$basic_string@DU?$char_traits@D@std@@V?$allocator@D@2@@std@@QBEPBDXZ PROC ; std::basic_string<char,std::char_traits<char>,std::allocator<char> >::_Myptr, COMDAT
; _this$ = ecx

; 2010 : 		return (this->_BUF_SIZE <= this->_Myres ? this->_Bx._Ptr
; 2011 : 			: this->_Bx._Buf);

  00000	83 79 14 10	 cmp	 DWORD PTR [ecx+20], 16	; 00000010H
  00004	72 03		 jb	 SHORT $LN3@Myptr
  00006	8b 01		 mov	 eax, DWORD PTR [ecx]

; 2012 : 		}

  00008	c3		 ret	 0
$LN3@Myptr:

; 2010 : 		return (this->_BUF_SIZE <= this->_Myres ? this->_Bx._Ptr
; 2011 : 			: this->_Bx._Buf);

  00009	8b c1		 mov	 eax, ecx

; 2012 : 		}

  0000b	c3		 ret	 0
?_Myptr@?$basic_string@DU?$char_traits@D@std@@V?$allocator@D@2@@std@@QBEPBDXZ ENDP ; std::basic_string<char,std::char_traits<char>,std::allocator<char> >::_Myptr
_TEXT	ENDS
PUBLIC	??1?$_String_val@DV?$allocator@D@std@@@std@@QAE@XZ ; std::_String_val<char,std::allocator<char> >::~_String_val<char,std::allocator<char> >
; Function compile flags: /Ogsp
;	COMDAT ??1?$_String_val@DV?$allocator@D@std@@@std@@QAE@XZ
_TEXT	SEGMENT
??1?$_String_val@DV?$allocator@D@std@@@std@@QAE@XZ PROC	; std::_String_val<char,std::allocator<char> >::~_String_val<char,std::allocator<char> >, COMDAT
; _this$ = ecx

; 459  : 		}

  00000	c3		 ret	 0
??1?$_String_val@DV?$allocator@D@std@@@std@@QAE@XZ ENDP	; std::_String_val<char,std::allocator<char> >::~_String_val<char,std::allocator<char> >
_TEXT	ENDS
PUBLIC	??0?$allocator@D@std@@QAE@XZ			; std::allocator<char>::allocator<char>
; Function compile flags: /Ogsp
; File c:\program files (x86)\microsoft visual studio 10.0\vc\include\xmemory
;	COMDAT ??0?$allocator@D@std@@QAE@XZ
_TEXT	SEGMENT
??0?$allocator@D@std@@QAE@XZ PROC			; std::allocator<char>::allocator<char>, COMDAT
; _this$ = ecx

; 161  : 	_ALLOCATOR() _THROW0()

  00000	8b c1		 mov	 eax, ecx

; 162  : 		{	// construct default allocator (do nothing)
; 163  : 		}

  00002	c3		 ret	 0
??0?$allocator@D@std@@QAE@XZ ENDP			; std::allocator<char>::allocator<char>
_TEXT	ENDS
PUBLIC	??0?$allocator@D@std@@QAE@ABV01@@Z		; std::allocator<char>::allocator<char>
; Function compile flags: /Ogsp
;	COMDAT ??0?$allocator@D@std@@QAE@ABV01@@Z
_TEXT	SEGMENT
___formal$ = 8						; size = 4
??0?$allocator@D@std@@QAE@ABV01@@Z PROC			; std::allocator<char>::allocator<char>, COMDAT
; _this$ = ecx

; 165  : 	_ALLOCATOR(const _ALLOCATOR<_Ty>&) _THROW0()

  00000	8b c1		 mov	 eax, ecx

; 166  : 		{	// construct by copying (do nothing)
; 167  : 		}

  00002	c2 04 00	 ret	 4
??0?$allocator@D@std@@QAE@ABV01@@Z ENDP			; std::allocator<char>::allocator<char>
_TEXT	ENDS
PUBLIC	?get_allocator@?$basic_string@DU?$char_traits@D@std@@V?$allocator@D@2@@std@@QBE?AV?$allocator@D@2@XZ ; std::basic_string<char,std::char_traits<char>,std::allocator<char> >::get_allocator
; Function compile flags: /Ogsp
; File c:\program files (x86)\microsoft visual studio 10.0\vc\include\xstring
;	COMDAT ?get_allocator@?$basic_string@DU?$char_traits@D@std@@V?$allocator@D@2@@std@@QBE?AV?$allocator@D@2@XZ
_TEXT	SEGMENT
___$ReturnUdt$ = 8					; size = 4
?get_allocator@?$basic_string@DU?$char_traits@D@std@@V?$allocator@D@2@@std@@QBE?AV?$allocator@D@2@XZ PROC ; std::basic_string<char,std::char_traits<char>,std::allocator<char> >::get_allocator, COMDAT
; _this$ = ecx

; 1906 : 		{	// return allocator object for values

  00000	55		 push	 ebp
  00001	8b ec		 mov	 ebp, esp

; 1907 : 		return (this->_Alval);

  00003	8b 45 08	 mov	 eax, DWORD PTR ___$ReturnUdt$[ebp]

; 1908 : 		}

  00006	5d		 pop	 ebp
  00007	c2 04 00	 ret	 4
?get_allocator@?$basic_string@DU?$char_traits@D@std@@V?$allocator@D@2@@std@@QBE?AV?$allocator@D@2@XZ ENDP ; std::basic_string<char,std::char_traits<char>,std::allocator<char> >::get_allocator
_TEXT	ENDS
PUBLIC	?_Myptr@?$basic_string@DU?$char_traits@D@std@@V?$allocator@D@2@@std@@QAEPADXZ ; std::basic_string<char,std::char_traits<char>,std::allocator<char> >::_Myptr
; Function compile flags: /Ogsp
;	COMDAT ?_Myptr@?$basic_string@DU?$char_traits@D@std@@V?$allocator@D@2@@std@@QAEPADXZ
_TEXT	SEGMENT
?_Myptr@?$basic_string@DU?$char_traits@D@std@@V?$allocator@D@2@@std@@QAEPADXZ PROC ; std::basic_string<char,std::char_traits<char>,std::allocator<char> >::_Myptr, COMDAT
; _this$ = ecx

; 2004 : 		return (this->_BUF_SIZE <= this->_Myres ? this->_Bx._Ptr
; 2005 : 			: this->_Bx._Buf);

  00000	83 79 14 10	 cmp	 DWORD PTR [ecx+20], 16	; 00000010H
  00004	72 03		 jb	 SHORT $LN3@Myptr@2
  00006	8b 01		 mov	 eax, DWORD PTR [ecx]

; 2006 : 		}

  00008	c3		 ret	 0
$LN3@Myptr@2:

; 2004 : 		return (this->_BUF_SIZE <= this->_Myres ? this->_Bx._Ptr
; 2005 : 			: this->_Bx._Buf);

  00009	8b c1		 mov	 eax, ecx

; 2006 : 		}

  0000b	c3		 ret	 0
?_Myptr@?$basic_string@DU?$char_traits@D@std@@V?$allocator@D@2@@std@@QAEPADXZ ENDP ; std::basic_string<char,std::char_traits<char>,std::allocator<char> >::_Myptr
_TEXT	ENDS
PUBLIC	??_C@_0BA@JFNIOLAK@string?5too?5long?$AA@	; `string'
PUBLIC	?_Xlen@?$basic_string@DU?$char_traits@D@std@@V?$allocator@D@2@@std@@QBEXXZ ; std::basic_string<char,std::char_traits<char>,std::allocator<char> >::_Xlen
;	COMDAT ??_C@_0BA@JFNIOLAK@string?5too?5long?$AA@
CONST	SEGMENT
??_C@_0BA@JFNIOLAK@string?5too?5long?$AA@ DB 'string too long', 00H ; `string'
; Function compile flags: /Ogsp
CONST	ENDS
;	COMDAT ?_Xlen@?$basic_string@DU?$char_traits@D@std@@V?$allocator@D@2@@std@@QBEXXZ
_TEXT	SEGMENT
?_Xlen@?$basic_string@DU?$char_traits@D@std@@V?$allocator@D@2@@std@@QBEXXZ PROC ; std::basic_string<char,std::char_traits<char>,std::allocator<char> >::_Xlen, COMDAT
; _this$ = ecx

; 2016 : 		_Xlength_error("string too long");

  00000	68 00 00 00 00	 push	 OFFSET ??_C@_0BA@JFNIOLAK@string?5too?5long?$AA@
  00005	ff 15 00 00 00
	00		 call	 DWORD PTR __imp_?_Xlength_error@std@@YAXPBD@Z
$LN4@Xlen@2:
$LN3@Xlen@2:
  0000b	cc		 int	 3
?_Xlen@?$basic_string@DU?$char_traits@D@std@@V?$allocator@D@2@@std@@QBEXXZ ENDP ; std::basic_string<char,std::char_traits<char>,std::allocator<char> >::_Xlen
_TEXT	ENDS
PUBLIC	??_C@_0BI@CFPLBAOH@invalid?5string?5position?$AA@ ; `string'
PUBLIC	?_Xran@?$basic_string@DU?$char_traits@D@std@@V?$allocator@D@2@@std@@QBEXXZ ; std::basic_string<char,std::char_traits<char>,std::allocator<char> >::_Xran
EXTRN	__imp_?_Xout_of_range@std@@YAXPBD@Z:PROC
;	COMDAT ??_C@_0BI@CFPLBAOH@invalid?5string?5position?$AA@
CONST	SEGMENT
??_C@_0BI@CFPLBAOH@invalid?5string?5position?$AA@ DB 'invalid string posi'
	DB	'tion', 00H					; `string'
; Function compile flags: /Ogsp
CONST	ENDS
;	COMDAT ?_Xran@?$basic_string@DU?$char_traits@D@std@@V?$allocator@D@2@@std@@QBEXXZ
_TEXT	SEGMENT
?_Xran@?$basic_string@DU?$char_traits@D@std@@V?$allocator@D@2@@std@@QBEXXZ PROC ; std::basic_string<char,std::char_traits<char>,std::allocator<char> >::_Xran, COMDAT
; _this$ = ecx

; 2021 : 		_Xout_of_range("invalid string position");

  00000	68 00 00 00 00	 push	 OFFSET ??_C@_0BI@CFPLBAOH@invalid?5string?5position?$AA@
  00005	ff 15 00 00 00
	00		 call	 DWORD PTR __imp_?_Xout_of_range@std@@YAXPBD@Z
$LN4@Xran:
$LN3@Xran:
  0000b	cc		 int	 3
?_Xran@?$basic_string@DU?$char_traits@D@std@@V?$allocator@D@2@@std@@QBEXXZ ENDP ; std::basic_string<char,std::char_traits<char>,std::allocator<char> >::_Xran
_TEXT	ENDS
PUBLIC	?deallocate@?$allocator@D@std@@QAEXPADI@Z	; std::allocator<char>::deallocate
; Function compile flags: /Ogsp
; File c:\program files (x86)\microsoft visual studio 10.0\vc\include\xmemory
;	COMDAT ?deallocate@?$allocator@D@std@@QAEXPADI@Z
_TEXT	SEGMENT
__Ptr$ = 8						; size = 4
___formal$ = 12						; size = 4
?deallocate@?$allocator@D@std@@QAEXPADI@Z PROC		; std::allocator<char>::deallocate, COMDAT
; _this$ = ecx

; 181  : 		{	// deallocate object at _Ptr, ignore size

  00000	55		 push	 ebp
  00001	8b ec		 mov	 ebp, esp

; 182  : 		::operator delete(_Ptr);

  00003	ff 75 08	 push	 DWORD PTR __Ptr$[ebp]
  00006	e8 00 00 00 00	 call	 ??3@YAXPAX@Z		; operator delete
  0000b	59		 pop	 ecx

; 183  : 		}

  0000c	5d		 pop	 ebp
  0000d	c2 08 00	 ret	 8
?deallocate@?$allocator@D@std@@QAEXPADI@Z ENDP		; std::allocator<char>::deallocate
_TEXT	ENDS
PUBLIC	?_Inside@?$basic_string@DU?$char_traits@D@std@@V?$allocator@D@2@@std@@QAE_NPBD@Z ; std::basic_string<char,std::char_traits<char>,std::allocator<char> >::_Inside
; Function compile flags: /Ogsp
; File c:\program files (x86)\microsoft visual studio 10.0\vc\include\xstring
;	COMDAT ?_Inside@?$basic_string@DU?$char_traits@D@std@@V?$allocator@D@2@@std@@QAE_NPBD@Z
_TEXT	SEGMENT
__Ptr$ = 8						; size = 4
?_Inside@?$basic_string@DU?$char_traits@D@std@@V?$allocator@D@2@@std@@QAE_NPBD@Z PROC ; std::basic_string<char,std::char_traits<char>,std::allocator<char> >::_Inside, COMDAT
; _this$ = ecx

; 1973 : 		{	// test if _Ptr points inside string

  00000	55		 push	 ebp
  00001	8b ec		 mov	 ebp, esp

; 1974 : 		if (_Ptr == 0 || _Ptr < _Myptr() || _Myptr() + this->_Mysize <= _Ptr)

  00003	83 7d 08 00	 cmp	 DWORD PTR __Ptr$[ebp], 0
  00007	74 2c		 je	 SHORT $LN2@Inside
  00009	8b 51 14	 mov	 edx, DWORD PTR [ecx+20]
  0000c	83 fa 10	 cmp	 edx, 16			; 00000010H
  0000f	72 04		 jb	 SHORT $LN8@Inside
  00011	8b 01		 mov	 eax, DWORD PTR [ecx]
  00013	eb 02		 jmp	 SHORT $LN9@Inside
$LN8@Inside:
  00015	8b c1		 mov	 eax, ecx
$LN9@Inside:
  00017	39 45 08	 cmp	 DWORD PTR __Ptr$[ebp], eax
  0001a	72 19		 jb	 SHORT $LN2@Inside
  0001c	83 fa 10	 cmp	 edx, 16			; 00000010H
  0001f	72 04		 jb	 SHORT $LN12@Inside
  00021	8b 01		 mov	 eax, DWORD PTR [ecx]
  00023	eb 02		 jmp	 SHORT $LN13@Inside
$LN12@Inside:
  00025	8b c1		 mov	 eax, ecx
$LN13@Inside:
  00027	8b 49 10	 mov	 ecx, DWORD PTR [ecx+16]
  0002a	03 c8		 add	 ecx, eax
  0002c	3b 4d 08	 cmp	 ecx, DWORD PTR __Ptr$[ebp]
  0002f	76 04		 jbe	 SHORT $LN2@Inside

; 1976 : 		else
; 1977 : 			return (true);

  00031	b0 01		 mov	 al, 1
  00033	eb 02		 jmp	 SHORT $LN1@Inside
$LN2@Inside:

; 1975 : 			return (false);	// don't ask

  00035	32 c0		 xor	 al, al
$LN1@Inside:

; 1978 : 		}

  00037	5d		 pop	 ebp
  00038	c2 04 00	 ret	 4
?_Inside@?$basic_string@DU?$char_traits@D@std@@V?$allocator@D@2@@std@@QAE_NPBD@Z ENDP ; std::basic_string<char,std::char_traits<char>,std::allocator<char> >::_Inside
_TEXT	ENDS
PUBLIC	?max_size@?$allocator@D@std@@QBEIXZ		; std::allocator<char>::max_size
; Function compile flags: /Ogsp
; File c:\program files (x86)\microsoft visual studio 10.0\vc\include\xmemory
;	COMDAT ?max_size@?$allocator@D@std@@QBEIXZ
_TEXT	SEGMENT
?max_size@?$allocator@D@std@@QBEIXZ PROC		; std::allocator<char>::max_size, COMDAT
; _this$ = ecx

; 218  : 		_SIZT _Count = (_SIZT)(-1) / sizeof (_Ty);
; 219  : 		return (0 < _Count ? _Count : 1);

  00000	83 c8 ff	 or	 eax, -1

; 220  : 		}

  00003	c3		 ret	 0
?max_size@?$allocator@D@std@@QBEIXZ ENDP		; std::allocator<char>::max_size
_TEXT	ENDS
PUBLIC	??$forward@V?$basic_string@DU?$char_traits@D@std@@V?$allocator@D@2@@std@@@std@@YA$$QAV?$basic_string@DU?$char_traits@D@std@@V?$allocator@D@2@@0@AAV10@@Z ; std::forward<std::basic_string<char,std::char_traits<char>,std::allocator<char> > >
; Function compile flags: /Ogsp
; File c:\program files (x86)\microsoft visual studio 10.0\vc\include\utility
;	COMDAT ??$forward@V?$basic_string@DU?$char_traits@D@std@@V?$allocator@D@2@@std@@@std@@YA$$QAV?$basic_string@DU?$char_traits@D@std@@V?$allocator@D@2@@0@AAV10@@Z
_TEXT	SEGMENT
__Arg$ = 8						; size = 4
??$forward@V?$basic_string@DU?$char_traits@D@std@@V?$allocator@D@2@@std@@@std@@YA$$QAV?$basic_string@DU?$char_traits@D@std@@V?$allocator@D@2@@0@AAV10@@Z PROC ; std::forward<std::basic_string<char,std::char_traits<char>,std::allocator<char> > >, COMDAT

; 78   : 	{	// forward _Arg, given explicitly specified type parameter

  00000	55		 push	 ebp
  00001	8b ec		 mov	 ebp, esp

; 79   : 	return ((_Ty&&)_Arg);

  00003	8b 45 08	 mov	 eax, DWORD PTR __Arg$[ebp]

; 80   : 	}

  00006	5d		 pop	 ebp
  00007	c3		 ret	 0
??$forward@V?$basic_string@DU?$char_traits@D@std@@V?$allocator@D@2@@std@@@std@@YA$$QAV?$basic_string@DU?$char_traits@D@std@@V?$allocator@D@2@@0@AAV10@@Z ENDP ; std::forward<std::basic_string<char,std::char_traits<char>,std::allocator<char> > >
_TEXT	ENDS
PUBLIC	??$_Allocate@D@std@@YAPADIPAD@Z			; std::_Allocate<char>
; Function compile flags: /Ogsp
; File c:\program files (x86)\microsoft visual studio 10.0\vc\include\xmemory
;	COMDAT ??$_Allocate@D@std@@YAPADIPAD@Z
_TEXT	SEGMENT
$T508795 = -12						; size = 12
$T508799 = 8						; size = 4
__Count$ = 8						; size = 4
___formal$ = 12						; size = 4
??$_Allocate@D@std@@YAPADIPAD@Z PROC			; std::_Allocate<char>, COMDAT

; 30   : 	{	// allocate storage for _Count elements of type _Ty

  00000	55		 push	 ebp
  00001	8b ec		 mov	 ebp, esp

; 31   : 	void *_Ptr = 0;

  00003	33 c0		 xor	 eax, eax
  00005	83 ec 0c	 sub	 esp, 12			; 0000000cH

; 32   : 
; 33   : 	if (_Count <= 0)

  00008	39 45 08	 cmp	 DWORD PTR __Count$[ebp], eax

; 34   : 		_Count = 0;
; 35   : 	else if (((_SIZT)(-1) / sizeof (_Ty) < _Count)

  0000b	76 39		 jbe	 SHORT $LN5@Allocate@2

; 36   : 		|| (_Ptr = ::operator new(_Count * sizeof (_Ty))) == 0)

  0000d	83 7d 08 ff	 cmp	 DWORD PTR __Count$[ebp], -1
  00011	77 0d		 ja	 SHORT $LN1@Allocate@2
  00013	ff 75 08	 push	 DWORD PTR __Count$[ebp]
  00016	e8 00 00 00 00	 call	 ??2@YAPAXI@Z		; operator new
  0001b	59		 pop	 ecx
  0001c	85 c0		 test	 eax, eax

; 38   : 
; 39   : 	return ((_Ty _FARQ *)_Ptr);

  0001e	75 26		 jne	 SHORT $LN5@Allocate@2
$LN1@Allocate@2:

; 37   : 		_THROW_NCEE(bad_alloc, 0);

  00020	83 65 08 00	 and	 DWORD PTR $T508799[ebp], 0
  00024	8d 45 08	 lea	 eax, DWORD PTR $T508799[ebp]
  00027	50		 push	 eax
  00028	8d 4d f4	 lea	 ecx, DWORD PTR $T508795[ebp]
  0002b	ff 15 00 00 00
	00		 call	 DWORD PTR __imp_??0exception@std@@QAE@ABQBD@Z
  00031	68 00 00 00 00	 push	 OFFSET __TI2?AVbad_alloc@std@@
  00036	8d 45 f4	 lea	 eax, DWORD PTR $T508795[ebp]
  00039	50		 push	 eax
  0003a	c7 45 f4 00 00
	00 00		 mov	 DWORD PTR $T508795[ebp], OFFSET ??_7bad_alloc@std@@6B@
  00041	e8 00 00 00 00	 call	 __CxxThrowException@8
$LN10@Allocate@2:
$LN5@Allocate@2:

; 40   : 	}

  00046	c9		 leave
  00047	c3		 ret	 0
$LN9@Allocate@2:
??$_Allocate@D@std@@YAPADIPAD@Z ENDP			; std::_Allocate<char>
_TEXT	ENDS
EXTRN	__imp_??0exception@std@@QAE@ABV01@@Z:PROC
; Function compile flags: /Ogsp
;	COMDAT ??0bad_alloc@std@@QAE@ABV01@@Z
_TEXT	SEGMENT
___that$ = 8						; size = 4
??0bad_alloc@std@@QAE@ABV01@@Z PROC			; std::bad_alloc::bad_alloc, COMDAT
; _this$ = ecx
  00000	55		 push	 ebp
  00001	8b ec		 mov	 ebp, esp
  00003	56		 push	 esi
  00004	ff 75 08	 push	 DWORD PTR ___that$[ebp]
  00007	8b f1		 mov	 esi, ecx
  00009	ff 15 00 00 00
	00		 call	 DWORD PTR __imp_??0exception@std@@QAE@ABV01@@Z
  0000f	c7 06 00 00 00
	00		 mov	 DWORD PTR [esi], OFFSET ??_7bad_alloc@std@@6B@
  00015	8b c6		 mov	 eax, esi
  00017	5e		 pop	 esi
  00018	5d		 pop	 ebp
  00019	c2 04 00	 ret	 4
??0bad_alloc@std@@QAE@ABV01@@Z ENDP			; std::bad_alloc::bad_alloc
_TEXT	ENDS
PUBLIC	??$move@AAV?$basic_string@DU?$char_traits@D@std@@V?$allocator@D@2@@std@@@std@@YA$$QAV?$basic_string@DU?$char_traits@D@std@@V?$allocator@D@2@@0@AAV10@@Z ; std::move<std::basic_string<char,std::char_traits<char>,std::allocator<char> > &>
; Function compile flags: /Ogsp
; File c:\program files (x86)\microsoft visual studio 10.0\vc\include\utility
;	COMDAT ??$move@AAV?$basic_string@DU?$char_traits@D@std@@V?$allocator@D@2@@std@@@std@@YA$$QAV?$basic_string@DU?$char_traits@D@std@@V?$allocator@D@2@@0@AAV10@@Z
_TEXT	SEGMENT
__Arg$ = 8						; size = 4
??$move@AAV?$basic_string@DU?$char_traits@D@std@@V?$allocator@D@2@@std@@@std@@YA$$QAV?$basic_string@DU?$char_traits@D@std@@V?$allocator@D@2@@0@AAV10@@Z PROC ; std::move<std::basic_string<char,std::char_traits<char>,std::allocator<char> > &>, COMDAT

; 86   : 	{	// forward _Arg as movable

  00000	55		 push	 ebp
  00001	8b ec		 mov	 ebp, esp

; 87   : 	return ((typename tr1::_Remove_reference<_Ty>::_Type&&)_Arg);

  00003	8b 45 08	 mov	 eax, DWORD PTR __Arg$[ebp]

; 88   : 	}

  00006	5d		 pop	 ebp
  00007	c3		 ret	 0
??$move@AAV?$basic_string@DU?$char_traits@D@std@@V?$allocator@D@2@@std@@@std@@YA$$QAV?$basic_string@DU?$char_traits@D@std@@V?$allocator@D@2@@0@AAV10@@Z ENDP ; std::move<std::basic_string<char,std::char_traits<char>,std::allocator<char> > &>
_TEXT	ENDS
PUBLIC	??$?8DD@std@@YA_NABV?$allocator@D@0@0@Z		; std::operator==<char,char>
; Function compile flags: /Ogsp
; File c:\program files (x86)\microsoft visual studio 10.0\vc\include\xmemory
;	COMDAT ??$?8DD@std@@YA_NABV?$allocator@D@0@0@Z
_TEXT	SEGMENT
___formal$ = 8						; size = 4
___formal$ = 12						; size = 4
??$?8DD@std@@YA_NABV?$allocator@D@0@0@Z PROC		; std::operator==<char,char>, COMDAT

; 263  : 	return (true);

  00000	b0 01		 mov	 al, 1

; 264  : 	}

  00002	c3		 ret	 0
??$?8DD@std@@YA_NABV?$allocator@D@0@0@Z ENDP		; std::operator==<char,char>
_TEXT	ENDS
PUBLIC	??1?$_Vector_val@V?$basic_string@DU?$char_traits@D@std@@V?$allocator@D@2@@std@@V?$allocator@V?$basic_string@DU?$char_traits@D@std@@V?$allocator@D@2@@std@@@2@@std@@QAE@XZ ; std::_Vector_val<std::basic_string<char,std::char_traits<char>,std::allocator<char> >,std::allocator<std::basic_string<char,std::char_traits<char>,std::allocator<char> > > >::~_Vector_val<std::basic_string<char,std::char_traits<char>,std::allocator<char> >,std::allocator<std::basic_string<char,std::char_traits<char>,std::allocator<char> > > >
; Function compile flags: /Ogsp
; File c:\program files (x86)\microsoft visual studio 10.0\vc\include\vector
;	COMDAT ??1?$_Vector_val@V?$basic_string@DU?$char_traits@D@std@@V?$allocator@D@2@@std@@V?$allocator@V?$basic_string@DU?$char_traits@D@std@@V?$allocator@D@2@@std@@@2@@std@@QAE@XZ
_TEXT	SEGMENT
??1?$_Vector_val@V?$basic_string@DU?$char_traits@D@std@@V?$allocator@D@2@@std@@V?$allocator@V?$basic_string@DU?$char_traits@D@std@@V?$allocator@D@2@@std@@@2@@std@@QAE@XZ PROC ; std::_Vector_val<std::basic_string<char,std::char_traits<char>,std::allocator<char> >,std::allocator<std::basic_string<char,std::char_traits<char>,std::allocator<char> > > >::~_Vector_val<std::basic_string<char,std::char_traits<char>,std::allocator<char> >,std::allocator<std::basic_string<char,std::char_traits<char>,std::allocator<char> > > >, COMDAT
; _this$ = ecx

; 434  : 		}

  00000	c3		 ret	 0
??1?$_Vector_val@V?$basic_string@DU?$char_traits@D@std@@V?$allocator@D@2@@std@@V?$allocator@V?$basic_string@DU?$char_traits@D@std@@V?$allocator@D@2@@std@@@2@@std@@QAE@XZ ENDP ; std::_Vector_val<std::basic_string<char,std::char_traits<char>,std::allocator<char> >,std::allocator<std::basic_string<char,std::char_traits<char>,std::allocator<char> > > >::~_Vector_val<std::basic_string<char,std::char_traits<char>,std::allocator<char> >,std::allocator<std::basic_string<char,std::char_traits<char>,std::allocator<char> > > >
_TEXT	ENDS
PUBLIC	?deallocate@?$allocator@V?$basic_string@DU?$char_traits@D@std@@V?$allocator@D@2@@std@@@std@@QAEXPAV?$basic_string@DU?$char_traits@D@std@@V?$allocator@D@2@@2@I@Z ; std::allocator<std::basic_string<char,std::char_traits<char>,std::allocator<char> > >::deallocate
; Function compile flags: /Ogsp
; File c:\program files (x86)\microsoft visual studio 10.0\vc\include\xmemory
;	COMDAT ?deallocate@?$allocator@V?$basic_string@DU?$char_traits@D@std@@V?$allocator@D@2@@std@@@std@@QAEXPAV?$basic_string@DU?$char_traits@D@std@@V?$allocator@D@2@@2@I@Z
_TEXT	SEGMENT
__Ptr$ = 8						; size = 4
___formal$ = 12						; size = 4
?deallocate@?$allocator@V?$basic_string@DU?$char_traits@D@std@@V?$allocator@D@2@@std@@@std@@QAEXPAV?$basic_string@DU?$char_traits@D@std@@V?$allocator@D@2@@2@I@Z PROC ; std::allocator<std::basic_string<char,std::char_traits<char>,std::allocator<char> > >::deallocate, COMDAT
; _this$ = ecx

; 181  : 		{	// deallocate object at _Ptr, ignore size

  00000	55		 push	 ebp
  00001	8b ec		 mov	 ebp, esp

; 182  : 		::operator delete(_Ptr);

  00003	ff 75 08	 push	 DWORD PTR __Ptr$[ebp]
  00006	e8 00 00 00 00	 call	 ??3@YAXPAX@Z		; operator delete
  0000b	59		 pop	 ecx

; 183  : 		}

  0000c	5d		 pop	 ebp
  0000d	c2 08 00	 ret	 8
?deallocate@?$allocator@V?$basic_string@DU?$char_traits@D@std@@V?$allocator@D@2@@std@@@std@@QAEXPAV?$basic_string@DU?$char_traits@D@std@@V?$allocator@D@2@@2@I@Z ENDP ; std::allocator<std::basic_string<char,std::char_traits<char>,std::allocator<char> > >::deallocate
_TEXT	ENDS
PUBLIC	??$_Ptr_cat@V?$basic_string@DU?$char_traits@D@std@@V?$allocator@D@2@@std@@V12@@std@@YA?AU_Nonscalar_ptr_iterator_tag@0@PAV?$basic_string@DU?$char_traits@D@std@@V?$allocator@D@2@@0@0@Z ; std::_Ptr_cat<std::basic_string<char,std::char_traits<char>,std::allocator<char> >,std::basic_string<char,std::char_traits<char>,std::allocator<char> > >
; Function compile flags: /Ogsp
; File c:\program files (x86)\microsoft visual studio 10.0\vc\include\xutility
;	COMDAT ??$_Ptr_cat@V?$basic_string@DU?$char_traits@D@std@@V?$allocator@D@2@@std@@V12@@std@@YA?AU_Nonscalar_ptr_iterator_tag@0@PAV?$basic_string@DU?$char_traits@D@std@@V?$allocator@D@2@@0@0@Z
_TEXT	SEGMENT
__Cat$ = -1						; size = 1
___formal$ = 8						; size = 4
___formal$ = 12						; size = 4
??$_Ptr_cat@V?$basic_string@DU?$char_traits@D@std@@V?$allocator@D@2@@std@@V12@@std@@YA?AU_Nonscalar_ptr_iterator_tag@0@PAV?$basic_string@DU?$char_traits@D@std@@V?$allocator@D@2@@0@0@Z PROC ; std::_Ptr_cat<std::basic_string<char,std::char_traits<char>,std::allocator<char> >,std::basic_string<char,std::char_traits<char>,std::allocator<char> > >, COMDAT

; 516  : 	{	// return pointer category from pointers

  00000	55		 push	 ebp
  00001	8b ec		 mov	 ebp, esp
  00003	51		 push	 ecx

; 517  : 	typename _Ptr_cat_helper<_Elem1, _Elem2>::_Type _Cat;
; 518  : 	return (_Cat);

  00004	8a 45 ff	 mov	 al, BYTE PTR __Cat$[ebp]

; 519  : 	}

  00007	c9		 leave
  00008	c3		 ret	 0
??$_Ptr_cat@V?$basic_string@DU?$char_traits@D@std@@V?$allocator@D@2@@std@@V12@@std@@YA?AU_Nonscalar_ptr_iterator_tag@0@PAV?$basic_string@DU?$char_traits@D@std@@V?$allocator@D@2@@0@0@Z ENDP ; std::_Ptr_cat<std::basic_string<char,std::char_traits<char>,std::allocator<char> >,std::basic_string<char,std::char_traits<char>,std::allocator<char> > >
; Function compile flags: /Ogsp
_TEXT	ENDS
;	COMDAT ??_GioMessageBoxBtn@@UAEPAXI@Z
_TEXT	SEGMENT
___flags$ = 8						; size = 4
??_GioMessageBoxBtn@@UAEPAXI@Z PROC			; ioMessageBoxBtn::`scalar deleting destructor', COMDAT
; _this$ = ecx
  00000	55		 push	 ebp
  00001	8b ec		 mov	 ebp, esp
  00003	56		 push	 esi
  00004	8b f1		 mov	 esi, ecx
  00006	e8 00 00 00 00	 call	 ??1ioMessageBoxBtn@@UAE@XZ ; ioMessageBoxBtn::~ioMessageBoxBtn
  0000b	f6 45 08 01	 test	 BYTE PTR ___flags$[ebp], 1
  0000f	74 07		 je	 SHORT $LN1@scalar@2
  00011	56		 push	 esi
  00012	e8 00 00 00 00	 call	 ??3@YAXPAX@Z		; operator delete
  00017	59		 pop	 ecx
$LN1@scalar@2:
  00018	8b c6		 mov	 eax, esi
  0001a	5e		 pop	 esi
  0001b	5d		 pop	 ebp
  0001c	c2 04 00	 ret	 4
??_GioMessageBoxBtn@@UAEPAXI@Z ENDP			; ioMessageBoxBtn::`scalar deleting destructor'
_TEXT	ENDS
PUBLIC	??_C@_00CNPNBAHC@?$AA@				; `string'
PUBLIC	__$ArrayPad$
PUBLIC	?AttachTitle@ioMessageBoxBtn@@QAEXXZ		; ioMessageBoxBtn::AttachTitle
EXTRN	__imp_?SetOffset@ioUITitle@@QAEXHH@Z:PROC
EXTRN	__imp_?GetWidth@ioWnd@@QBEHXZ:PROC
EXTRN	__imp_?GetTextYOffSet@ioUITitle@@QBEHXZ:PROC
EXTRN	__imp_?SetTitleText@ioWnd@@QAEXPBD0H@Z:PROC
EXTRN	__imp__sprintf:PROC
EXTRN	__imp_?c_str@ioHashString@@QBEPBDXZ:PROC
EXTRN	__imp_?IsEmpty@ioHashString@@QBE_NXZ:PROC
EXTRN	__imp_?GetTitle@ioWnd@@QBEPAVioUITitle@@XZ:PROC
EXTRN	___security_cookie:DWORD
EXTRN	_memset:PROC
;	COMDAT ??_C@_00CNPNBAHC@?$AA@
; File d:\lost saga for developer\youtube\tutorial\source\src\lsclient\stringprotect.h
CONST	SEGMENT
??_C@_00CNPNBAHC@?$AA@ DB 00H				; `string'
; Function compile flags: /Ogsp
; File d:\lost saga for developer\youtube\tutorial\source\src\lsclient\gui\iomessagebox.cpp
CONST	ENDS
;	COMDAT ?AttachTitle@ioMessageBoxBtn@@QAEXXZ
_TEXT	SEGMENT
_pTitle$ = -280						; size = 4
_szTitle$506783 = -276					; size = 260
___encStr$506788 = -16					; size = 8
___encStr$506942 = -12					; size = 3
__$ArrayPad$ = -4					; size = 4
?AttachTitle@ioMessageBoxBtn@@QAEXXZ PROC		; ioMessageBoxBtn::AttachTitle, COMDAT
; _this$ = ecx

; 60   : {	

  00000	55		 push	 ebp
  00001	8b ec		 mov	 ebp, esp
  00003	81 ec 18 01 00
	00		 sub	 esp, 280		; 00000118H
  00009	a1 00 00 00 00	 mov	 eax, DWORD PTR ___security_cookie
  0000e	33 c5		 xor	 eax, ebp
  00010	89 45 fc	 mov	 DWORD PTR __$ArrayPad$[ebp], eax
  00013	53		 push	 ebx
  00014	56		 push	 esi
  00015	8b f1		 mov	 esi, ecx

; 61   : 	ioUITitle *pTitle = GetTitle();

  00017	ff 15 00 00 00
	00		 call	 DWORD PTR __imp_?GetTitle@ioWnd@@QBEPAVioUITitle@@XZ

; 62   : 	if( pTitle )

  0001d	33 db		 xor	 ebx, ebx
  0001f	89 85 e8 fe ff
	ff		 mov	 DWORD PTR _pTitle$[ebp], eax
  00025	3b c3		 cmp	 eax, ebx
  00027	0f 84 09 01 00
	00		 je	 $LN201@AttachTitl

; 63   : 	{
; 64   : 		char szTitle[MAX_PATH] = "";

  0002d	57		 push	 edi
  0002e	68 03 01 00 00	 push	 259			; 00000103H
  00033	8d 85 ed fe ff
	ff		 lea	 eax, DWORD PTR _szTitle$506783[ebp+1]
  00039	53		 push	 ebx
  0003a	50		 push	 eax
  0003b	88 9d ec fe ff
	ff		 mov	 BYTE PTR _szTitle$506783[ebp], bl
  00041	e8 00 00 00 00	 call	 _memset
  00046	83 c4 0c	 add	 esp, 12			; 0000000cH

; 65   : 		if( !m_szHotKey.IsEmpty() )

  00049	8d 8e 0c 02 00
	00		 lea	 ecx, DWORD PTR [esi+524]
  0004f	ff 15 00 00 00
	00		 call	 DWORD PTR __imp_?IsEmpty@ioHashString@@QBE_NXZ
  00055	84 c0		 test	 al, al
  00057	75 65		 jne	 SHORT $LN99@AttachTitl

; 66   : 			sprintf_e( szTitle, "%s (%s)", m_szTitleName.c_str(), m_szHotKey.c_str() );

  00059	6a 04		 push	 4
  0005b	c7 45 f0 c8 9f
	cb c2		 mov	 DWORD PTR ___encStr$506788[ebp], -1026842680 ; c2cb9fc8H
  00062	81 75 f0 ed ec
	eb ea		 xor	 DWORD PTR ___encStr$506788[ebp], -353637139 ; eaebecedH
  00069	c7 45 f4 c8 9f
	c2 00		 mov	 DWORD PTR ___encStr$506788[ebp+4], 12754888 ; 00c29fc8H
  00070	58		 pop	 eax
$LL206@AttachTitl:
  00071	8b c8		 mov	 ecx, eax
  00073	81 e1 03 00 00
	80		 and	 ecx, -2147483645	; 80000003H
  00079	79 05		 jns	 SHORT $LN228@AttachTitl
  0007b	49		 dec	 ecx
  0007c	83 c9 fc	 or	 ecx, -4			; fffffffcH
  0007f	41		 inc	 ecx
$LN228@AttachTitl:
  00080	b2 ed		 mov	 dl, -19			; ffffffedH
  00082	2a d1		 sub	 dl, cl
  00084	30 54 05 f0	 xor	 BYTE PTR ___encStr$506788[ebp+eax], dl
  00088	40		 inc	 eax
  00089	83 f8 07	 cmp	 eax, 7
  0008c	7c e3		 jl	 SHORT $LL206@AttachTitl
  0008e	8d 8e 0c 02 00
	00		 lea	 ecx, DWORD PTR [esi+524]
  00094	ff 15 00 00 00
	00		 call	 DWORD PTR __imp_?c_str@ioHashString@@QBEPBDXZ
  0009a	50		 push	 eax
  0009b	8d 8e fc 01 00
	00		 lea	 ecx, DWORD PTR [esi+508]
  000a1	ff 15 00 00 00
	00		 call	 DWORD PTR __imp_?c_str@ioHashString@@QBEPBDXZ
  000a7	50		 push	 eax
  000a8	8d 45 f0	 lea	 eax, DWORD PTR ___encStr$506788[ebp]
  000ab	50		 push	 eax
  000ac	8d 85 ec fe ff
	ff		 lea	 eax, DWORD PTR _szTitle$506783[ebp]
  000b2	50		 push	 eax
  000b3	ff 15 00 00 00
	00		 call	 DWORD PTR __imp__sprintf
  000b9	83 c4 10	 add	 esp, 16			; 00000010H

; 67   : 		else

  000bc	eb 3b		 jmp	 SHORT $LN97@AttachTitl
$LN99@AttachTitl:

; 68   : 			sprintf_e( szTitle, "%s" );

  000be	66 c7 45 f4 c8
	9f		 mov	 WORD PTR ___encStr$506942[ebp], 40904 ; 00009fc8H
  000c4	88 5d f6	 mov	 BYTE PTR ___encStr$506942[ebp+2], bl
  000c7	33 c0		 xor	 eax, eax
$LL214@AttachTitl:
  000c9	8b c8		 mov	 ecx, eax
  000cb	81 e1 03 00 00
	80		 and	 ecx, -2147483645	; 80000003H
  000d1	79 05		 jns	 SHORT $LN229@AttachTitl
  000d3	49		 dec	 ecx
  000d4	83 c9 fc	 or	 ecx, -4			; fffffffcH
  000d7	41		 inc	 ecx
$LN229@AttachTitl:
  000d8	b2 ed		 mov	 dl, -19			; ffffffedH
  000da	2a d1		 sub	 dl, cl
  000dc	30 54 05 f4	 xor	 BYTE PTR ___encStr$506942[ebp+eax], dl
  000e0	40		 inc	 eax
  000e1	83 f8 02	 cmp	 eax, 2
  000e4	7c e3		 jl	 SHORT $LL214@AttachTitl
  000e6	8d 45 f4	 lea	 eax, DWORD PTR ___encStr$506942[ebp]
  000e9	50		 push	 eax
  000ea	8d 85 ec fe ff
	ff		 lea	 eax, DWORD PTR _szTitle$506783[ebp]
  000f0	50		 push	 eax
  000f1	ff 15 00 00 00
	00		 call	 DWORD PTR __imp__sprintf
  000f7	59		 pop	 ecx
  000f8	59		 pop	 ecx
$LN97@AttachTitl:

; 69   : 		SetTitleText( szTitle );

  000f9	53		 push	 ebx
  000fa	68 00 00 00 00	 push	 OFFSET ??_C@_00CNPNBAHC@?$AA@
  000ff	8d 85 ec fe ff
	ff		 lea	 eax, DWORD PTR _szTitle$506783[ebp]
  00105	50		 push	 eax
  00106	8b ce		 mov	 ecx, esi
  00108	ff 15 00 00 00
	00		 call	 DWORD PTR __imp_?SetTitleText@ioWnd@@QAEXPBD0H@Z

; 70   : 		pTitle->SetOffset( GetWidth() / 2, pTitle->GetTextYOffSet() );	

  0010e	8b 8d e8 fe ff
	ff		 mov	 ecx, DWORD PTR _pTitle$[ebp]
  00114	ff 15 00 00 00
	00		 call	 DWORD PTR __imp_?GetTextYOffSet@ioUITitle@@QBEHXZ
  0011a	50		 push	 eax
  0011b	8b ce		 mov	 ecx, esi
  0011d	ff 15 00 00 00
	00		 call	 DWORD PTR __imp_?GetWidth@ioWnd@@QBEHXZ
  00123	8b 8d e8 fe ff
	ff		 mov	 ecx, DWORD PTR _pTitle$[ebp]
  00129	99		 cdq
  0012a	2b c2		 sub	 eax, edx
  0012c	d1 f8		 sar	 eax, 1
  0012e	50		 push	 eax
  0012f	ff 15 00 00 00
	00		 call	 DWORD PTR __imp_?SetOffset@ioUITitle@@QAEXHH@Z
  00135	5f		 pop	 edi
$LN201@AttachTitl:

; 71   : 	}
; 72   : }

  00136	8b 4d fc	 mov	 ecx, DWORD PTR __$ArrayPad$[ebp]
  00139	5e		 pop	 esi
  0013a	33 cd		 xor	 ecx, ebp
  0013c	5b		 pop	 ebx
  0013d	e8 00 00 00 00	 call	 @__security_check_cookie@4
  00142	c9		 leave
  00143	c3		 ret	 0
?AttachTitle@ioMessageBoxBtn@@QAEXXZ ENDP		; ioMessageBoxBtn::AttachTitle
_TEXT	ENDS
PUBLIC	?ReBatchButton@ioMessageBox@@MAEXH@Z		; ioMessageBox::ReBatchButton
EXTRN	__imp_?HideChildWnd@ioWnd@@QAEXK_N@Z:PROC
EXTRN	__imp_?ShowChildWnd@ioWnd@@QAEXK_N@Z:PROC
EXTRN	__imp_?GetYPos@ioWnd@@QBEHXZ:PROC
EXTRN	__imp_?SetWndPos@ioWnd@@QAEXHH@Z:PROC
EXTRN	__imp_?GetHeight@ioWnd@@QBEHXZ:PROC
; Function compile flags: /Ogsp
;	COMDAT ?ReBatchButton@ioMessageBox@@MAEXH@Z
_TEXT	SEGMENT
tv430 = -8						; size = 4
_pXBtn$507301 = -4					; size = 4
_pNoBtn$507299 = 8					; size = 4
_pXBtn$507293 = 8					; size = 4
_iType$ = 8						; size = 4
?ReBatchButton@ioMessageBox@@MAEXH@Z PROC		; ioMessageBox::ReBatchButton, COMDAT
; _this$ = ecx

; 132  : {

  00000	55		 push	 ebp
  00001	8b ec		 mov	 ebp, esp
  00003	51		 push	 ecx
  00004	51		 push	 ecx

; 133  : 	if( iType == MB_OK )

  00005	83 7d 08 00	 cmp	 DWORD PTR _iType$[ebp], 0
  00009	53		 push	 ebx
  0000a	56		 push	 esi
  0000b	57		 push	 edi
  0000c	8b f1		 mov	 esi, ecx
  0000e	0f 85 9e 00 00
	00		 jne	 $LN5@ReBatchBut

; 134  : 	{
; 135  : 		ioMessageBoxBtn *pOkBtn = (ioMessageBoxBtn*)FindChildWnd( ID_OK );

  00014	8b 3d 00 00 00
	00		 mov	 edi, DWORD PTR __imp_?FindChildWnd@ioWnd@@QAEPAV1@K@Z
  0001a	6a 04		 push	 4
  0001c	ff d7		 call	 edi

; 136  : 		ioWnd *pXBtn = FindChildWnd( ID_X );

  0001e	6a 01		 push	 1
  00020	8b ce		 mov	 ecx, esi
  00022	8b d8		 mov	 ebx, eax
  00024	ff d7		 call	 edi
  00026	89 45 08	 mov	 DWORD PTR _pXBtn$507293[ebp], eax

; 137  : 		if( pOkBtn && pXBtn )

  00029	85 db		 test	 ebx, ebx
  0002b	74 5a		 je	 SHORT $LN4@ReBatchBut
  0002d	85 c0		 test	 eax, eax
  0002f	74 56		 je	 SHORT $LN4@ReBatchBut

; 138  : 		{
; 139  : 			pOkBtn->SetSize( GetWidth() - SIDE_TEXT_GAP, pOkBtn->GetHeight() );

  00031	8b 3b		 mov	 edi, DWORD PTR [ebx]
  00033	8b cb		 mov	 ecx, ebx
  00035	ff 15 00 00 00
	00		 call	 DWORD PTR __imp_?GetHeight@ioWnd@@QBEHXZ
  0003b	50		 push	 eax
  0003c	8b ce		 mov	 ecx, esi
  0003e	ff 15 00 00 00
	00		 call	 DWORD PTR __imp_?GetWidth@ioWnd@@QBEHXZ
  00044	83 e8 22	 sub	 eax, 34			; 00000022H
  00047	50		 push	 eax
  00048	8b cb		 mov	 ecx, ebx
  0004a	ff 57 2c	 call	 DWORD PTR [edi+44]

; 140  : 			pOkBtn->SetWndPos( BTN_LEFT_XPOS, GetHeight() - BTN_BOTTOM_YPOS );

  0004d	8b ce		 mov	 ecx, esi
  0004f	ff 15 00 00 00
	00		 call	 DWORD PTR __imp_?GetHeight@ioWnd@@QBEHXZ
  00055	8b 3d 00 00 00
	00		 mov	 edi, DWORD PTR __imp_?SetWndPos@ioWnd@@QAEXHH@Z
  0005b	83 e8 30	 sub	 eax, 48			; 00000030H
  0005e	50		 push	 eax
  0005f	6a 11		 push	 17			; 00000011H
  00061	8b cb		 mov	 ecx, ebx
  00063	ff d7		 call	 edi

; 141  : 			pOkBtn->AttachTitle();

  00065	8b cb		 mov	 ecx, ebx
  00067	e8 00 00 00 00	 call	 ?AttachTitle@ioMessageBoxBtn@@QAEXXZ ; ioMessageBoxBtn::AttachTitle

; 142  : 
; 143  : 			pXBtn->SetWndPos( GetWidth() - XBTN_RIGHT_XPOS, pXBtn->GetYPos() );

  0006c	8b 4d 08	 mov	 ecx, DWORD PTR _pXBtn$507293[ebp]
  0006f	ff 15 00 00 00
	00		 call	 DWORD PTR __imp_?GetYPos@ioWnd@@QBEHXZ
  00075	50		 push	 eax
  00076	8b ce		 mov	 ecx, esi
  00078	ff 15 00 00 00
	00		 call	 DWORD PTR __imp_?GetWidth@ioWnd@@QBEHXZ
  0007e	8b 4d 08	 mov	 ecx, DWORD PTR _pXBtn$507293[ebp]
  00081	83 e8 22	 sub	 eax, 34			; 00000022H
  00084	50		 push	 eax
  00085	ff d7		 call	 edi
$LN4@ReBatchBut:

; 144  : 		}
; 145  : 
; 146  : 		ShowChildWnd( ID_OK );

  00087	8b 1d 00 00 00
	00		 mov	 ebx, DWORD PTR __imp_?ShowChildWnd@ioWnd@@QAEXK_N@Z
  0008d	6a 00		 push	 0
  0008f	6a 04		 push	 4
  00091	8b ce		 mov	 ecx, esi
  00093	ff d3		 call	 ebx

; 147  : 		HideChildWnd( ID_YES );

  00095	8b 3d 00 00 00
	00		 mov	 edi, DWORD PTR __imp_?HideChildWnd@ioWnd@@QAEXK_N@Z
  0009b	6a 00		 push	 0
  0009d	6a 02		 push	 2
  0009f	8b ce		 mov	 ecx, esi
  000a1	ff d7		 call	 edi

; 148  : 		HideChildWnd( ID_NO );

  000a3	6a 00		 push	 0
  000a5	6a 03		 push	 3
  000a7	8b ce		 mov	 ecx, esi
  000a9	ff d7		 call	 edi

; 149  : 		ShowChildWnd( ID_X );

  000ab	6a 00		 push	 0
  000ad	e9 0e 01 00 00	 jmp	 $LN8@ReBatchBut
$LN5@ReBatchBut:

; 150  : 	}
; 151  : 	else if( iType == MB_YESNO )

  000b2	83 7d 08 04	 cmp	 DWORD PTR _iType$[ebp], 4
  000b6	0f 85 0a 01 00
	00		 jne	 $LN2@ReBatchBut

; 152  : 	{
; 153  : 		ioMessageBoxBtn *pYesBtn = (ioMessageBoxBtn*)FindChildWnd( ID_YES );

  000bc	8b 3d 00 00 00
	00		 mov	 edi, DWORD PTR __imp_?FindChildWnd@ioWnd@@QAEPAV1@K@Z
  000c2	6a 02		 push	 2
  000c4	ff d7		 call	 edi

; 154  : 		ioMessageBoxBtn *pNoBtn  = (ioMessageBoxBtn*)FindChildWnd( ID_NO );

  000c6	6a 03		 push	 3
  000c8	8b ce		 mov	 ecx, esi
  000ca	8b d8		 mov	 ebx, eax
  000cc	ff d7		 call	 edi

; 155  : 		ioWnd *pXBtn = FindChildWnd( ID_X );

  000ce	6a 01		 push	 1
  000d0	8b ce		 mov	 ecx, esi
  000d2	89 45 08	 mov	 DWORD PTR _pNoBtn$507299[ebp], eax
  000d5	ff d7		 call	 edi

; 156  : 		if( pYesBtn && pNoBtn && pXBtn )

  000d7	33 ff		 xor	 edi, edi
  000d9	89 45 fc	 mov	 DWORD PTR _pXBtn$507301[ebp], eax
  000dc	3b df		 cmp	 ebx, edi
  000de	0f 84 bc 00 00
	00		 je	 $LN1@ReBatchBut
  000e4	39 7d 08	 cmp	 DWORD PTR _pNoBtn$507299[ebp], edi
  000e7	0f 84 b3 00 00
	00		 je	 $LN1@ReBatchBut
  000ed	3b c7		 cmp	 eax, edi
  000ef	0f 84 ab 00 00
	00		 je	 $LN1@ReBatchBut

; 157  : 		{
; 158  : 			pYesBtn->SetSize( ( GetWidth()/2 - 18 ), pYesBtn->GetHeight() );

  000f5	8b 3b		 mov	 edi, DWORD PTR [ebx]
  000f7	8b cb		 mov	 ecx, ebx
  000f9	ff 15 00 00 00
	00		 call	 DWORD PTR __imp_?GetHeight@ioWnd@@QBEHXZ
  000ff	50		 push	 eax
  00100	8b ce		 mov	 ecx, esi
  00102	ff 15 00 00 00
	00		 call	 DWORD PTR __imp_?GetWidth@ioWnd@@QBEHXZ
  00108	99		 cdq
  00109	2b c2		 sub	 eax, edx
  0010b	d1 f8		 sar	 eax, 1
  0010d	83 e8 12	 sub	 eax, 18			; 00000012H
  00110	50		 push	 eax
  00111	8b cb		 mov	 ecx, ebx
  00113	ff 57 2c	 call	 DWORD PTR [edi+44]

; 159  : 			pYesBtn->SetWndPos( BTN_LEFT_XPOS, GetHeight() - BTN_BOTTOM_YPOS );

  00116	8b ce		 mov	 ecx, esi
  00118	ff 15 00 00 00
	00		 call	 DWORD PTR __imp_?GetHeight@ioWnd@@QBEHXZ
  0011e	8b 3d 00 00 00
	00		 mov	 edi, DWORD PTR __imp_?SetWndPos@ioWnd@@QAEXHH@Z
  00124	83 e8 30	 sub	 eax, 48			; 00000030H
  00127	50		 push	 eax
  00128	6a 11		 push	 17			; 00000011H
  0012a	8b cb		 mov	 ecx, ebx
  0012c	ff d7		 call	 edi

; 160  : 			pYesBtn->AttachTitle();

  0012e	8b cb		 mov	 ecx, ebx
  00130	e8 00 00 00 00	 call	 ?AttachTitle@ioMessageBoxBtn@@QAEXXZ ; ioMessageBoxBtn::AttachTitle

; 161  : 			
; 162  : 			pNoBtn->SetSize( ( GetWidth()/2 - 18 ), pNoBtn->GetHeight() );

  00135	8b 4d 08	 mov	 ecx, DWORD PTR _pNoBtn$507299[ebp]
  00138	8b 01		 mov	 eax, DWORD PTR [ecx]
  0013a	89 45 f8	 mov	 DWORD PTR tv430[ebp], eax
  0013d	ff 15 00 00 00
	00		 call	 DWORD PTR __imp_?GetHeight@ioWnd@@QBEHXZ
  00143	50		 push	 eax
  00144	8b ce		 mov	 ecx, esi
  00146	ff 15 00 00 00
	00		 call	 DWORD PTR __imp_?GetWidth@ioWnd@@QBEHXZ
  0014c	8b 4d 08	 mov	 ecx, DWORD PTR _pNoBtn$507299[ebp]
  0014f	99		 cdq
  00150	2b c2		 sub	 eax, edx
  00152	d1 f8		 sar	 eax, 1
  00154	83 e8 12	 sub	 eax, 18			; 00000012H
  00157	50		 push	 eax
  00158	8b 45 f8	 mov	 eax, DWORD PTR tv430[ebp]
  0015b	ff 50 2c	 call	 DWORD PTR [eax+44]

; 163  : 			pNoBtn->SetWndPos( pYesBtn->GetWidth() + 19, GetHeight() - BTN_BOTTOM_YPOS );

  0015e	8b ce		 mov	 ecx, esi
  00160	ff 15 00 00 00
	00		 call	 DWORD PTR __imp_?GetHeight@ioWnd@@QBEHXZ
  00166	83 e8 30	 sub	 eax, 48			; 00000030H
  00169	50		 push	 eax
  0016a	8b cb		 mov	 ecx, ebx
  0016c	ff 15 00 00 00
	00		 call	 DWORD PTR __imp_?GetWidth@ioWnd@@QBEHXZ
  00172	8b 4d 08	 mov	 ecx, DWORD PTR _pNoBtn$507299[ebp]
  00175	83 c0 13	 add	 eax, 19			; 00000013H
  00178	50		 push	 eax
  00179	ff d7		 call	 edi

; 164  : 			pNoBtn->AttachTitle();

  0017b	8b 4d 08	 mov	 ecx, DWORD PTR _pNoBtn$507299[ebp]
  0017e	e8 00 00 00 00	 call	 ?AttachTitle@ioMessageBoxBtn@@QAEXXZ ; ioMessageBoxBtn::AttachTitle

; 165  : 
; 166  : 			pXBtn->SetWndPos( GetWidth() - XBTN_RIGHT_XPOS, pXBtn->GetYPos() );

  00183	8b 4d fc	 mov	 ecx, DWORD PTR _pXBtn$507301[ebp]
  00186	ff 15 00 00 00
	00		 call	 DWORD PTR __imp_?GetYPos@ioWnd@@QBEHXZ
  0018c	50		 push	 eax
  0018d	8b ce		 mov	 ecx, esi
  0018f	ff 15 00 00 00
	00		 call	 DWORD PTR __imp_?GetWidth@ioWnd@@QBEHXZ
  00195	8b 4d fc	 mov	 ecx, DWORD PTR _pXBtn$507301[ebp]
  00198	83 e8 22	 sub	 eax, 34			; 00000022H
  0019b	50		 push	 eax
  0019c	ff d7		 call	 edi
  0019e	33 ff		 xor	 edi, edi
$LN1@ReBatchBut:

; 167  : 		}
; 168  : 
; 169  : 		HideChildWnd( ID_OK );

  001a0	57		 push	 edi
  001a1	6a 04		 push	 4
  001a3	8b ce		 mov	 ecx, esi
  001a5	ff 15 00 00 00
	00		 call	 DWORD PTR __imp_?HideChildWnd@ioWnd@@QAEXK_N@Z

; 170  : 		ShowChildWnd( ID_YES );

  001ab	8b 1d 00 00 00
	00		 mov	 ebx, DWORD PTR __imp_?ShowChildWnd@ioWnd@@QAEXK_N@Z
  001b1	57		 push	 edi
  001b2	6a 02		 push	 2
  001b4	8b ce		 mov	 ecx, esi
  001b6	ff d3		 call	 ebx

; 171  : 		ShowChildWnd( ID_NO );

  001b8	57		 push	 edi
  001b9	6a 03		 push	 3
  001bb	8b ce		 mov	 ecx, esi
  001bd	ff d3		 call	 ebx

; 172  : 		ShowChildWnd( ID_X );

  001bf	57		 push	 edi
$LN8@ReBatchBut:
  001c0	6a 01		 push	 1
  001c2	8b ce		 mov	 ecx, esi
  001c4	ff d3		 call	 ebx
$LN2@ReBatchBut:
  001c6	5f		 pop	 edi
  001c7	5e		 pop	 esi
  001c8	5b		 pop	 ebx

; 173  : 	}
; 174  : }

  001c9	c9		 leave
  001ca	c2 04 00	 ret	 4
?ReBatchButton@ioMessageBox@@MAEXH@Z ENDP		; ioMessageBox::ReBatchButton
_TEXT	ENDS
PUBLIC	?SetBtnTitle@ioMessageBox@@QAEXPBD00@Z		; ioMessageBox::SetBtnTitle
EXTRN	___RTDynamicCast:PROC
; Function compile flags: /Ogsp
;	COMDAT ?SetBtnTitle@ioMessageBox@@QAEXPBD00@Z
_TEXT	SEGMENT
_this$ = -8						; size = 4
_pBtn$ = -4						; size = 4
_szOKTitle$ = 8						; size = 4
_szYesTitle$ = 12					; size = 4
_szNoTitle$ = 16					; size = 4
?SetBtnTitle@ioMessageBox@@QAEXPBD00@Z PROC		; ioMessageBox::SetBtnTitle, COMDAT
; _this$ = ecx

; 264  : {

  00000	55		 push	 ebp
  00001	8b ec		 mov	 ebp, esp
  00003	51		 push	 ecx
  00004	51		 push	 ecx
  00005	53		 push	 ebx
  00006	56		 push	 esi

; 265  : 	ioMessageBoxBtn *pBtn = dynamic_cast< ioMessageBoxBtn* > ( FindChildWnd( ID_OK ) );

  00007	8b 35 00 00 00
	00		 mov	 esi, DWORD PTR __imp_?FindChildWnd@ioWnd@@QAEPAV1@K@Z
  0000d	57		 push	 edi
  0000e	6a 00		 push	 0
  00010	bb 00 00 00 00	 mov	 ebx, OFFSET ??_R0?AVioMessageBoxBtn@@@8
  00015	53		 push	 ebx
  00016	bf 00 00 00 00	 mov	 edi, OFFSET ??_R0?AVioWnd@@@8
  0001b	57		 push	 edi
  0001c	6a 00		 push	 0
  0001e	6a 04		 push	 4
  00020	89 4d f8	 mov	 DWORD PTR _this$[ebp], ecx
  00023	ff d6		 call	 esi
  00025	50		 push	 eax
  00026	e8 00 00 00 00	 call	 ___RTDynamicCast
  0002b	83 c4 14	 add	 esp, 20			; 00000014H
  0002e	89 45 fc	 mov	 DWORD PTR _pBtn$[ebp], eax

; 266  : 	if( pBtn )

  00031	85 c0		 test	 eax, eax
  00033	74 17		 je	 SHORT $LN3@SetBtnTitl

; 267  : 	{
; 268  : 		pBtn->SetTitleName( szOKTitle );

  00035	ff 75 08	 push	 DWORD PTR _szOKTitle$[ebp]
  00038	8d 88 fc 01 00
	00		 lea	 ecx, DWORD PTR [eax+508]
  0003e	ff 15 00 00 00
	00		 call	 DWORD PTR __imp_??4ioHashString@@QAEAAV0@PBD@Z

; 269  : 		pBtn->AttachTitle();

  00044	8b 4d fc	 mov	 ecx, DWORD PTR _pBtn$[ebp]
  00047	e8 00 00 00 00	 call	 ?AttachTitle@ioMessageBoxBtn@@QAEXXZ ; ioMessageBoxBtn::AttachTitle
$LN3@SetBtnTitl:

; 270  : 	}
; 271  : 
; 272  : 	pBtn = dynamic_cast< ioMessageBoxBtn* > ( FindChildWnd( ID_YES ) );

  0004c	8b 4d f8	 mov	 ecx, DWORD PTR _this$[ebp]
  0004f	6a 00		 push	 0
  00051	53		 push	 ebx
  00052	57		 push	 edi
  00053	6a 00		 push	 0
  00055	6a 02		 push	 2
  00057	ff d6		 call	 esi
  00059	50		 push	 eax
  0005a	e8 00 00 00 00	 call	 ___RTDynamicCast
  0005f	83 c4 14	 add	 esp, 20			; 00000014H
  00062	89 45 fc	 mov	 DWORD PTR _pBtn$[ebp], eax

; 273  : 	if( pBtn )

  00065	85 c0		 test	 eax, eax
  00067	74 17		 je	 SHORT $LN2@SetBtnTitl

; 274  : 	{
; 275  : 		pBtn->SetTitleName( szYesTitle );

  00069	ff 75 0c	 push	 DWORD PTR _szYesTitle$[ebp]
  0006c	8d 88 fc 01 00
	00		 lea	 ecx, DWORD PTR [eax+508]
  00072	ff 15 00 00 00
	00		 call	 DWORD PTR __imp_??4ioHashString@@QAEAAV0@PBD@Z

; 276  : 		pBtn->AttachTitle();

  00078	8b 4d fc	 mov	 ecx, DWORD PTR _pBtn$[ebp]
  0007b	e8 00 00 00 00	 call	 ?AttachTitle@ioMessageBoxBtn@@QAEXXZ ; ioMessageBoxBtn::AttachTitle
$LN2@SetBtnTitl:

; 277  : 	}
; 278  : 
; 279  : 	pBtn = dynamic_cast< ioMessageBoxBtn* > ( FindChildWnd( ID_NO ) );

  00080	8b 4d f8	 mov	 ecx, DWORD PTR _this$[ebp]
  00083	6a 00		 push	 0
  00085	53		 push	 ebx
  00086	57		 push	 edi
  00087	6a 00		 push	 0
  00089	6a 03		 push	 3
  0008b	ff d6		 call	 esi
  0008d	50		 push	 eax
  0008e	e8 00 00 00 00	 call	 ___RTDynamicCast
  00093	8b f0		 mov	 esi, eax
  00095	83 c4 14	 add	 esp, 20			; 00000014H

; 280  : 	if( pBtn )

  00098	85 f6		 test	 esi, esi
  0009a	74 16		 je	 SHORT $LN1@SetBtnTitl

; 281  : 	{
; 282  : 		pBtn->SetTitleName( szNoTitle );

  0009c	ff 75 10	 push	 DWORD PTR _szNoTitle$[ebp]
  0009f	8d 8e fc 01 00
	00		 lea	 ecx, DWORD PTR [esi+508]
  000a5	ff 15 00 00 00
	00		 call	 DWORD PTR __imp_??4ioHashString@@QAEAAV0@PBD@Z

; 283  : 		pBtn->AttachTitle();

  000ab	8b ce		 mov	 ecx, esi
  000ad	e8 00 00 00 00	 call	 ?AttachTitle@ioMessageBoxBtn@@QAEXXZ ; ioMessageBoxBtn::AttachTitle
$LN1@SetBtnTitl:
  000b2	5f		 pop	 edi
  000b3	5e		 pop	 esi
  000b4	5b		 pop	 ebx

; 284  : 	}
; 285  : }

  000b5	c9		 leave
  000b6	c2 0c 00	 ret	 12			; 0000000cH
?SetBtnTitle@ioMessageBox@@QAEXPBD00@Z ENDP		; ioMessageBox::SetBtnTitle
_TEXT	ENDS
PUBLIC	??0?$_Vector_iterator@V?$_Vector_val@V?$basic_string@DU?$char_traits@D@std@@V?$allocator@D@2@@std@@V?$allocator@V?$basic_string@DU?$char_traits@D@std@@V?$allocator@D@2@@std@@@2@@std@@@std@@QAE@XZ ; std::_Vector_iterator<std::_Vector_val<std::basic_string<char,std::char_traits<char>,std::allocator<char> >,std::allocator<std::basic_string<char,std::char_traits<char>,std::allocator<char> > > > >::_Vector_iterator<std::_Vector_val<std::basic_string<char,std::char_traits<char>,std::allocator<char> >,std::allocator<std::basic_string<char,std::char_traits<char>,std::allocator<char> > > > >
; Function compile flags: /Ogsp
; File c:\program files (x86)\microsoft visual studio 10.0\vc\include\vector
;	COMDAT ??0?$_Vector_iterator@V?$_Vector_val@V?$basic_string@DU?$char_traits@D@std@@V?$allocator@D@2@@std@@V?$allocator@V?$basic_string@DU?$char_traits@D@std@@V?$allocator@D@2@@std@@@2@@std@@@std@@QAE@XZ
_TEXT	SEGMENT
??0?$_Vector_iterator@V?$_Vector_val@V?$basic_string@DU?$char_traits@D@std@@V?$allocator@D@2@@std@@V?$allocator@V?$basic_string@DU?$char_traits@D@std@@V?$allocator@D@2@@std@@@2@@std@@@std@@QAE@XZ PROC ; std::_Vector_iterator<std::_Vector_val<std::basic_string<char,std::char_traits<char>,std::allocator<char> >,std::allocator<std::basic_string<char,std::char_traits<char>,std::allocator<char> > > > >::_Vector_iterator<std::_Vector_val<std::basic_string<char,std::char_traits<char>,std::allocator<char> >,std::allocator<std::basic_string<char,std::char_traits<char>,std::allocator<char> > > > >, COMDAT
; _this$ = ecx

; 298  : 	_Vector_iterator()

  00000	8b c1		 mov	 eax, ecx
  00002	83 20 00	 and	 DWORD PTR [eax], 0

; 299  : 		{	// construct with null vector pointer
; 300  : 		}

  00005	c3		 ret	 0
??0?$_Vector_iterator@V?$_Vector_val@V?$basic_string@DU?$char_traits@D@std@@V?$allocator@D@2@@std@@V?$allocator@V?$basic_string@DU?$char_traits@D@std@@V?$allocator@D@2@@std@@@2@@std@@@std@@QAE@XZ ENDP ; std::_Vector_iterator<std::_Vector_val<std::basic_string<char,std::char_traits<char>,std::allocator<char> >,std::allocator<std::basic_string<char,std::char_traits<char>,std::allocator<char> > > > >::_Vector_iterator<std::_Vector_val<std::basic_string<char,std::char_traits<char>,std::allocator<char> >,std::allocator<std::basic_string<char,std::char_traits<char>,std::allocator<char> > > > >
_TEXT	ENDS
PUBLIC	??E?$_Vector_iterator@V?$_Vector_val@V?$basic_string@DU?$char_traits@D@std@@V?$allocator@D@2@@std@@V?$allocator@V?$basic_string@DU?$char_traits@D@std@@V?$allocator@D@2@@std@@@2@@std@@@std@@QAEAAV01@XZ ; std::_Vector_iterator<std::_Vector_val<std::basic_string<char,std::char_traits<char>,std::allocator<char> >,std::allocator<std::basic_string<char,std::char_traits<char>,std::allocator<char> > > > >::operator++
; Function compile flags: /Ogsp
;	COMDAT ??E?$_Vector_iterator@V?$_Vector_val@V?$basic_string@DU?$char_traits@D@std@@V?$allocator@D@2@@std@@V?$allocator@V?$basic_string@DU?$char_traits@D@std@@V?$allocator@D@2@@std@@@2@@std@@@std@@QAEAAV01@XZ
_TEXT	SEGMENT
??E?$_Vector_iterator@V?$_Vector_val@V?$basic_string@DU?$char_traits@D@std@@V?$allocator@D@2@@std@@V?$allocator@V?$basic_string@DU?$char_traits@D@std@@V?$allocator@D@2@@std@@@2@@std@@@std@@QAEAAV01@XZ PROC ; std::_Vector_iterator<std::_Vector_val<std::basic_string<char,std::char_traits<char>,std::allocator<char> >,std::allocator<std::basic_string<char,std::char_traits<char>,std::allocator<char> > > > >::operator++, COMDAT
; _this$ = ecx

; 331  : 		{	// preincrement

  00000	8b c1		 mov	 eax, ecx

; 332  : 		++*(_Mybase *)this;

  00002	83 00 1c	 add	 DWORD PTR [eax], 28	; 0000001cH

; 333  : 		return (*this);
; 334  : 		}

  00005	c3		 ret	 0
??E?$_Vector_iterator@V?$_Vector_val@V?$basic_string@DU?$char_traits@D@std@@V?$allocator@D@2@@std@@V?$allocator@V?$basic_string@DU?$char_traits@D@std@@V?$allocator@D@2@@std@@@2@@std@@@std@@QAEAAV01@XZ ENDP ; std::_Vector_iterator<std::_Vector_val<std::basic_string<char,std::char_traits<char>,std::allocator<char> >,std::allocator<std::basic_string<char,std::char_traits<char>,std::allocator<char> > > > >::operator++
_TEXT	ENDS
PUBLIC	??0?$_Vector_val@V?$basic_string@DU?$char_traits@D@std@@V?$allocator@D@2@@std@@V?$allocator@V?$basic_string@DU?$char_traits@D@std@@V?$allocator@D@2@@std@@@2@@std@@QAE@V?$allocator@V?$basic_string@DU?$char_traits@D@std@@V?$allocator@D@2@@std@@@1@@Z ; std::_Vector_val<std::basic_string<char,std::char_traits<char>,std::allocator<char> >,std::allocator<std::basic_string<char,std::char_traits<char>,std::allocator<char> > > >::_Vector_val<std::basic_string<char,std::char_traits<char>,std::allocator<char> >,std::allocator<std::basic_string<char,std::char_traits<char>,std::allocator<char> > > >
; Function compile flags: /Ogsp
;	COMDAT ??0?$_Vector_val@V?$basic_string@DU?$char_traits@D@std@@V?$allocator@D@2@@std@@V?$allocator@V?$basic_string@DU?$char_traits@D@std@@V?$allocator@D@2@@std@@@2@@std@@QAE@V?$allocator@V?$basic_string@DU?$char_traits@D@std@@V?$allocator@D@2@@std@@@1@@Z
_TEXT	SEGMENT
__Al$ = 8						; size = 1
??0?$_Vector_val@V?$basic_string@DU?$char_traits@D@std@@V?$allocator@D@2@@std@@V?$allocator@V?$basic_string@DU?$char_traits@D@std@@V?$allocator@D@2@@std@@@2@@std@@QAE@V?$allocator@V?$basic_string@DU?$char_traits@D@std@@V?$allocator@D@2@@std@@@1@@Z PROC ; std::_Vector_val<std::basic_string<char,std::char_traits<char>,std::allocator<char> >,std::allocator<std::basic_string<char,std::char_traits<char>,std::allocator<char> > > >::_Vector_val<std::basic_string<char,std::char_traits<char>,std::allocator<char> >,std::allocator<std::basic_string<char,std::char_traits<char>,std::allocator<char> > > >, COMDAT
; _this$ = ecx

; 426  : 		{	// construct allocator from _Al

  00000	8b c1		 mov	 eax, ecx

; 427  : 		_Myfirst = 0;

  00002	33 c9		 xor	 ecx, ecx
  00004	89 08		 mov	 DWORD PTR [eax], ecx

; 428  : 		_Mylast = 0;

  00006	89 48 04	 mov	 DWORD PTR [eax+4], ecx

; 429  : 		_Myend = 0;

  00009	89 48 08	 mov	 DWORD PTR [eax+8], ecx

; 430  : 		}

  0000c	c2 04 00	 ret	 4
??0?$_Vector_val@V?$basic_string@DU?$char_traits@D@std@@V?$allocator@D@2@@std@@V?$allocator@V?$basic_string@DU?$char_traits@D@std@@V?$allocator@D@2@@std@@@2@@std@@QAE@V?$allocator@V?$basic_string@DU?$char_traits@D@std@@V?$allocator@D@2@@std@@@1@@Z ENDP ; std::_Vector_val<std::basic_string<char,std::char_traits<char>,std::allocator<char> >,std::allocator<std::basic_string<char,std::char_traits<char>,std::allocator<char> > > >::_Vector_val<std::basic_string<char,std::char_traits<char>,std::allocator<char> >,std::allocator<std::basic_string<char,std::char_traits<char>,std::allocator<char> > > >
_TEXT	ENDS
PUBLIC	??D?$_Vector_iterator@V?$_Vector_val@V?$basic_string@DU?$char_traits@D@std@@V?$allocator@D@2@@std@@V?$allocator@V?$basic_string@DU?$char_traits@D@std@@V?$allocator@D@2@@std@@@2@@std@@@std@@QBEAAV?$basic_string@DU?$char_traits@D@std@@V?$allocator@D@2@@1@XZ ; std::_Vector_iterator<std::_Vector_val<std::basic_string<char,std::char_traits<char>,std::allocator<char> >,std::allocator<std::basic_string<char,std::char_traits<char>,std::allocator<char> > > > >::operator*
; Function compile flags: /Ogsp
;	COMDAT ??D?$_Vector_iterator@V?$_Vector_val@V?$basic_string@DU?$char_traits@D@std@@V?$allocator@D@2@@std@@V?$allocator@V?$basic_string@DU?$char_traits@D@std@@V?$allocator@D@2@@std@@@2@@std@@@std@@QBEAAV?$basic_string@DU?$char_traits@D@std@@V?$allocator@D@2@@1@XZ
_TEXT	SEGMENT
??D?$_Vector_iterator@V?$_Vector_val@V?$basic_string@DU?$char_traits@D@std@@V?$allocator@D@2@@std@@V?$allocator@V?$basic_string@DU?$char_traits@D@std@@V?$allocator@D@2@@std@@@2@@std@@@std@@QBEAAV?$basic_string@DU?$char_traits@D@std@@V?$allocator@D@2@@1@XZ PROC ; std::_Vector_iterator<std::_Vector_val<std::basic_string<char,std::char_traits<char>,std::allocator<char> >,std::allocator<std::basic_string<char,std::char_traits<char>,std::allocator<char> > > > >::operator*, COMDAT
; _this$ = ecx

; 322  : 		return ((reference)**(_Mybase *)this);

  00000	8b 01		 mov	 eax, DWORD PTR [ecx]

; 323  : 		}

  00002	c3		 ret	 0
??D?$_Vector_iterator@V?$_Vector_val@V?$basic_string@DU?$char_traits@D@std@@V?$allocator@D@2@@std@@V?$allocator@V?$basic_string@DU?$char_traits@D@std@@V?$allocator@D@2@@std@@@2@@std@@@std@@QBEAAV?$basic_string@DU?$char_traits@D@std@@V?$allocator@D@2@@1@XZ ENDP ; std::_Vector_iterator<std::_Vector_val<std::basic_string<char,std::char_traits<char>,std::allocator<char> >,std::allocator<std::basic_string<char,std::char_traits<char>,std::allocator<char> > > > >::operator*
_TEXT	ENDS
PUBLIC	??8?$_Vector_const_iterator@V?$_Vector_val@V?$basic_string@DU?$char_traits@D@std@@V?$allocator@D@2@@std@@V?$allocator@V?$basic_string@DU?$char_traits@D@std@@V?$allocator@D@2@@std@@@2@@std@@@std@@QBE_NABV01@@Z ; std::_Vector_const_iterator<std::_Vector_val<std::basic_string<char,std::char_traits<char>,std::allocator<char> >,std::allocator<std::basic_string<char,std::char_traits<char>,std::allocator<char> > > > >::operator==
; Function compile flags: /Ogsp
;	COMDAT ??8?$_Vector_const_iterator@V?$_Vector_val@V?$basic_string@DU?$char_traits@D@std@@V?$allocator@D@2@@std@@V?$allocator@V?$basic_string@DU?$char_traits@D@std@@V?$allocator@D@2@@std@@@2@@std@@@std@@QBE_NABV01@@Z
_TEXT	SEGMENT
__Right$ = 8						; size = 4
??8?$_Vector_const_iterator@V?$_Vector_val@V?$basic_string@DU?$char_traits@D@std@@V?$allocator@D@2@@std@@V?$allocator@V?$basic_string@DU?$char_traits@D@std@@V?$allocator@D@2@@std@@@2@@std@@@std@@QBE_NABV01@@Z PROC ; std::_Vector_const_iterator<std::_Vector_val<std::basic_string<char,std::char_traits<char>,std::allocator<char> >,std::allocator<std::basic_string<char,std::char_traits<char>,std::allocator<char> > > > >::operator==, COMDAT
; _this$ = ecx

; 201  : 		{	// test for iterator equality

  00000	55		 push	 ebp
  00001	8b ec		 mov	 ebp, esp

; 202  : 		_Compat(_Right);
; 203  : 		return (this->_Ptr == _Right._Ptr);

  00003	8b 01		 mov	 eax, DWORD PTR [ecx]
  00005	8b 4d 08	 mov	 ecx, DWORD PTR __Right$[ebp]
  00008	2b 01		 sub	 eax, DWORD PTR [ecx]
  0000a	f7 d8		 neg	 eax
  0000c	1b c0		 sbb	 eax, eax
  0000e	40		 inc	 eax

; 204  : 		}

  0000f	5d		 pop	 ebp
  00010	c2 04 00	 ret	 4
??8?$_Vector_const_iterator@V?$_Vector_val@V?$basic_string@DU?$char_traits@D@std@@V?$allocator@D@2@@std@@V?$allocator@V?$basic_string@DU?$char_traits@D@std@@V?$allocator@D@2@@std@@@2@@std@@@std@@QBE_NABV01@@Z ENDP ; std::_Vector_const_iterator<std::_Vector_val<std::basic_string<char,std::char_traits<char>,std::allocator<char> >,std::allocator<std::basic_string<char,std::char_traits<char>,std::allocator<char> > > > >::operator==
_TEXT	ENDS
PUBLIC	?max_size@?$vector@V?$basic_string@DU?$char_traits@D@std@@V?$allocator@D@2@@std@@V?$allocator@V?$basic_string@DU?$char_traits@D@std@@V?$allocator@D@2@@std@@@2@@std@@QBEIXZ ; std::vector<std::basic_string<char,std::char_traits<char>,std::allocator<char> >,std::allocator<std::basic_string<char,std::char_traits<char>,std::allocator<char> > > >::max_size
; Function compile flags: /Ogsp
;	COMDAT ?max_size@?$vector@V?$basic_string@DU?$char_traits@D@std@@V?$allocator@D@2@@std@@V?$allocator@V?$basic_string@DU?$char_traits@D@std@@V?$allocator@D@2@@std@@@2@@std@@QBEIXZ
_TEXT	SEGMENT
?max_size@?$vector@V?$basic_string@DU?$char_traits@D@std@@V?$allocator@D@2@@std@@V?$allocator@V?$basic_string@DU?$char_traits@D@std@@V?$allocator@D@2@@std@@@2@@std@@QBEIXZ PROC ; std::vector<std::basic_string<char,std::char_traits<char>,std::allocator<char> >,std::allocator<std::basic_string<char,std::char_traits<char>,std::allocator<char> > > >::max_size, COMDAT
; _this$ = ecx

; 884  : 		return (this->_Alval.max_size());

  00000	b8 49 92 24 09	 mov	 eax, 153391689		; 09249249H

; 885  : 		}

  00005	c3		 ret	 0
?max_size@?$vector@V?$basic_string@DU?$char_traits@D@std@@V?$allocator@D@2@@std@@V?$allocator@V?$basic_string@DU?$char_traits@D@std@@V?$allocator@D@2@@std@@@2@@std@@QBEIXZ ENDP ; std::vector<std::basic_string<char,std::char_traits<char>,std::allocator<char> >,std::allocator<std::basic_string<char,std::char_traits<char>,std::allocator<char> > > >::max_size
_TEXT	ENDS
PUBLIC	?allocate@?$allocator@V?$basic_string@DU?$char_traits@D@std@@V?$allocator@D@2@@std@@@std@@QAEPAV?$basic_string@DU?$char_traits@D@std@@V?$allocator@D@2@@2@I@Z ; std::allocator<std::basic_string<char,std::char_traits<char>,std::allocator<char> > >::allocate
; Function compile flags: /Ogsp
; File c:\program files (x86)\microsoft visual studio 10.0\vc\include\xmemory
;	COMDAT ?allocate@?$allocator@V?$basic_string@DU?$char_traits@D@std@@V?$allocator@D@2@@std@@@std@@QAEPAV?$basic_string@DU?$char_traits@D@std@@V?$allocator@D@2@@2@I@Z
_TEXT	SEGMENT
__Count$ = 8						; size = 4
?allocate@?$allocator@V?$basic_string@DU?$char_traits@D@std@@V?$allocator@D@2@@std@@@std@@QAEPAV?$basic_string@DU?$char_traits@D@std@@V?$allocator@D@2@@2@I@Z PROC ; std::allocator<std::basic_string<char,std::char_traits<char>,std::allocator<char> > >::allocate, COMDAT
; _this$ = ecx

; 186  : 		{	// allocate array of _Count elements

  00000	55		 push	 ebp
  00001	8b ec		 mov	 ebp, esp

; 187  : 		return (_Allocate(_Count, (pointer)0));

  00003	6a 00		 push	 0
  00005	ff 75 08	 push	 DWORD PTR __Count$[ebp]
  00008	e8 00 00 00 00	 call	 ??$_Allocate@V?$basic_string@DU?$char_traits@D@std@@V?$allocator@D@2@@std@@@std@@YAPAV?$basic_string@DU?$char_traits@D@std@@V?$allocator@D@2@@0@IPAV10@@Z ; std::_Allocate<std::basic_string<char,std::char_traits<char>,std::allocator<char> > >
  0000d	59		 pop	 ecx
  0000e	59		 pop	 ecx

; 188  : 		}

  0000f	5d		 pop	 ebp
  00010	c2 04 00	 ret	 4
?allocate@?$allocator@V?$basic_string@DU?$char_traits@D@std@@V?$allocator@D@2@@std@@@std@@QAEPAV?$basic_string@DU?$char_traits@D@std@@V?$allocator@D@2@@2@I@Z ENDP ; std::allocator<std::basic_string<char,std::char_traits<char>,std::allocator<char> > >::allocate
_TEXT	ENDS
PUBLIC	??0?$_Vector_const_iterator@V?$_Vector_val@V?$basic_string@DU?$char_traits@D@std@@V?$allocator@D@2@@std@@V?$allocator@V?$basic_string@DU?$char_traits@D@std@@V?$allocator@D@2@@std@@@2@@std@@@std@@QAE@PAV?$basic_string@DU?$char_traits@D@std@@V?$allocator@D@2@@1@PBU_Container_base0@1@@Z ; std::_Vector_const_iterator<std::_Vector_val<std::basic_string<char,std::char_traits<char>,std::allocator<char> >,std::allocator<std::basic_string<char,std::char_traits<char>,std::allocator<char> > > > >::_Vector_const_iterator<std::_Vector_val<std::basic_string<char,std::char_traits<char>,std::allocator<char> >,std::allocator<std::basic_string<char,std::char_traits<char>,std::allocator<char> > > > >
; Function compile flags: /Ogsp
; File c:\program files (x86)\microsoft visual studio 10.0\vc\include\vector
;	COMDAT ??0?$_Vector_const_iterator@V?$_Vector_val@V?$basic_string@DU?$char_traits@D@std@@V?$allocator@D@2@@std@@V?$allocator@V?$basic_string@DU?$char_traits@D@std@@V?$allocator@D@2@@std@@@2@@std@@@std@@QAE@PAV?$basic_string@DU?$char_traits@D@std@@V?$allocator@D@2@@1@PBU_Container_base0@1@@Z
_TEXT	SEGMENT
__Parg$ = 8						; size = 4
__Pvector$ = 12						; size = 4
??0?$_Vector_const_iterator@V?$_Vector_val@V?$basic_string@DU?$char_traits@D@std@@V?$allocator@D@2@@std@@V?$allocator@V?$basic_string@DU?$char_traits@D@std@@V?$allocator@D@2@@std@@@2@@std@@@std@@QAE@PAV?$basic_string@DU?$char_traits@D@std@@V?$allocator@D@2@@1@PBU_Container_base0@1@@Z PROC ; std::_Vector_const_iterator<std::_Vector_val<std::basic_string<char,std::char_traits<char>,std::allocator<char> >,std::allocator<std::basic_string<char,std::char_traits<char>,std::allocator<char> > > > >::_Vector_const_iterator<std::_Vector_val<std::basic_string<char,std::char_traits<char>,std::allocator<char> >,std::allocator<std::basic_string<char,std::char_traits<char>,std::allocator<char> > > > >, COMDAT
; _this$ = ecx

; 45   : 		{	// construct with pointer _Parg

  00000	55		 push	 ebp
  00001	8b ec		 mov	 ebp, esp
  00003	8b c1		 mov	 eax, ecx
  00005	8b 4d 08	 mov	 ecx, DWORD PTR __Parg$[ebp]
  00008	89 08		 mov	 DWORD PTR [eax], ecx

; 46   : 		this->_Adopt(_Pvector);
; 47   : 		}

  0000a	5d		 pop	 ebp
  0000b	c2 08 00	 ret	 8
??0?$_Vector_const_iterator@V?$_Vector_val@V?$basic_string@DU?$char_traits@D@std@@V?$allocator@D@2@@std@@V?$allocator@V?$basic_string@DU?$char_traits@D@std@@V?$allocator@D@2@@std@@@2@@std@@@std@@QAE@PAV?$basic_string@DU?$char_traits@D@std@@V?$allocator@D@2@@1@PBU_Container_base0@1@@Z ENDP ; std::_Vector_const_iterator<std::_Vector_val<std::basic_string<char,std::char_traits<char>,std::allocator<char> >,std::allocator<std::basic_string<char,std::char_traits<char>,std::allocator<char> > > > >::_Vector_const_iterator<std::_Vector_val<std::basic_string<char,std::char_traits<char>,std::allocator<char> >,std::allocator<std::basic_string<char,std::char_traits<char>,std::allocator<char> > > > >
_TEXT	ENDS
PUBLIC	__$ArrayPad$
PUBLIC	??$GetStringAttribute_e@$09@ioXMLElement@@QBEPBDAAY09$$CBD@Z ; ioXMLElement::GetStringAttribute_e<10>
EXTRN	__imp_?GetStringAttribute@ioXMLElement@@QBEPBDPBD@Z:PROC
; Function compile flags: /Ogsp
; File d:\lost saga for developer\youtube\tutorial\source\src\io3dengine\ioxmlelement.h
;	COMDAT ??$GetStringAttribute_e@$09@ioXMLElement@@QBEPBDAAY09$$CBD@Z
_TEXT	SEGMENT
__k$ = -20						; size = 10
__$ArrayPad$ = -4					; size = 4
_k$ = 8							; size = 4
??$GetStringAttribute_e@$09@ioXMLElement@@QBEPBDAAY09$$CBD@Z PROC ; ioXMLElement::GetStringAttribute_e<10>, COMDAT
; _this$ = ecx

; 107  : 	{

  00000	55		 push	 ebp
  00001	8b ec		 mov	 ebp, esp
  00003	83 ec 14	 sub	 esp, 20			; 00000014H
  00006	a1 00 00 00 00	 mov	 eax, DWORD PTR ___security_cookie
  0000b	33 c5		 xor	 eax, ebp
  0000d	89 45 fc	 mov	 DWORD PTR __$ArrayPad$[ebp], eax
  00010	8b 45 08	 mov	 eax, DWORD PTR _k$[ebp]

; 108  : 		_ENCSTR(k, _k);

  00013	8a 10		 mov	 dl, BYTE PTR [eax]
  00015	84 d2		 test	 dl, dl
  00017	0f 84 0d 01 00
	00		 je	 $LN96@GetStringA
  0001d	80 f2 ed	 xor	 dl, -19			; ffffffedH
  00020	88 55 ec	 mov	 BYTE PTR __k$[ebp], dl
  00023	8a 50 01	 mov	 dl, BYTE PTR [eax+1]
  00026	84 d2		 test	 dl, dl
  00028	0f 84 f6 00 00
	00		 je	 $LN95@GetStringA
  0002e	80 f2 ec	 xor	 dl, -20			; ffffffecH
  00031	88 55 ed	 mov	 BYTE PTR __k$[ebp+1], dl
  00034	8a 50 02	 mov	 dl, BYTE PTR [eax+2]
  00037	84 d2		 test	 dl, dl
  00039	0f 84 df 00 00
	00		 je	 $LN94@GetStringA
  0003f	80 f2 eb	 xor	 dl, -21			; ffffffebH
  00042	88 55 ee	 mov	 BYTE PTR __k$[ebp+2], dl
  00045	8a 50 03	 mov	 dl, BYTE PTR [eax+3]
  00048	84 d2		 test	 dl, dl
  0004a	0f 84 c8 00 00
	00		 je	 $LN93@GetStringA
  00050	80 f2 ea	 xor	 dl, -22			; ffffffeaH
  00053	88 55 ef	 mov	 BYTE PTR __k$[ebp+3], dl
  00056	8a 50 04	 mov	 dl, BYTE PTR [eax+4]
  00059	84 d2		 test	 dl, dl
  0005b	0f 84 b1 00 00
	00		 je	 $LN92@GetStringA
  00061	80 f2 ed	 xor	 dl, -19			; ffffffedH
  00064	88 55 f0	 mov	 BYTE PTR __k$[ebp+4], dl
  00067	8a 50 05	 mov	 dl, BYTE PTR [eax+5]
  0006a	84 d2		 test	 dl, dl
  0006c	0f 84 9a 00 00
	00		 je	 $LN91@GetStringA
  00072	80 f2 ec	 xor	 dl, -20			; ffffffecH
  00075	88 55 f1	 mov	 BYTE PTR __k$[ebp+5], dl
  00078	8a 50 06	 mov	 dl, BYTE PTR [eax+6]
  0007b	84 d2		 test	 dl, dl
  0007d	0f 84 83 00 00
	00		 je	 $LN90@GetStringA
  00083	80 f2 eb	 xor	 dl, -21			; ffffffebH
  00086	88 55 f2	 mov	 BYTE PTR __k$[ebp+6], dl
  00089	8a 50 07	 mov	 dl, BYTE PTR [eax+7]
  0008c	84 d2		 test	 dl, dl
  0008e	74 70		 je	 SHORT $LN89@GetStringA
  00090	80 f2 ea	 xor	 dl, -22			; ffffffeaH
  00093	88 55 f3	 mov	 BYTE PTR __k$[ebp+7], dl
  00096	8a 50 08	 mov	 dl, BYTE PTR [eax+8]
  00099	84 d2		 test	 dl, dl
  0009b	74 5d		 je	 SHORT $LN88@GetStringA
  0009d	80 f2 ed	 xor	 dl, -19			; ffffffedH
  000a0	80 78 09 00	 cmp	 BYTE PTR [eax+9], 0
  000a4	88 55 f4	 mov	 BYTE PTR __k$[ebp+8], dl
  000a7	0f 84 81 00 00
	00		 je	 $LN1@GetStringA
  000ad	8a 50 0a	 mov	 dl, BYTE PTR [eax+10]
  000b0	84 d2		 test	 dl, dl
  000b2	74 40		 je	 SHORT $LN86@GetStringA
  000b4	80 f2 eb	 xor	 dl, -21			; ffffffebH
  000b7	88 55 f6	 mov	 BYTE PTR __k$[ebp+10], dl
  000ba	8a 50 0b	 mov	 dl, BYTE PTR [eax+11]
  000bd	84 d2		 test	 dl, dl
  000bf	74 2d		 je	 SHORT $LN85@GetStringA
  000c1	80 f2 ea	 xor	 dl, -22			; ffffffeaH
  000c4	88 55 f7	 mov	 BYTE PTR __k$[ebp+11], dl
  000c7	8a 50 0c	 mov	 dl, BYTE PTR [eax+12]
  000ca	84 d2		 test	 dl, dl
  000cc	74 1a		 je	 SHORT $LN84@GetStringA
  000ce	8a 40 0d	 mov	 al, BYTE PTR [eax+13]
  000d1	80 f2 ed	 xor	 dl, -19			; ffffffedH
  000d4	88 55 f8	 mov	 BYTE PTR __k$[ebp+12], dl
  000d7	84 c0		 test	 al, al
  000d9	74 07		 je	 SHORT $LN83@GetStringA
  000db	34 ec		 xor	 al, -20			; ffffffecH
  000dd	88 45 f9	 mov	 BYTE PTR __k$[ebp+13], al
  000e0	eb 4c		 jmp	 SHORT $LN1@GetStringA
$LN83@GetStringA:
  000e2	c6 45 f9 ec	 mov	 BYTE PTR __k$[ebp+13], -20 ; ffffffecH
  000e6	eb 46		 jmp	 SHORT $LN1@GetStringA
$LN84@GetStringA:
  000e8	c6 45 f8 ed	 mov	 BYTE PTR __k$[ebp+12], -19 ; ffffffedH
  000ec	eb 40		 jmp	 SHORT $LN1@GetStringA
$LN85@GetStringA:
  000ee	c6 45 f7 ea	 mov	 BYTE PTR __k$[ebp+11], -22 ; ffffffeaH
  000f2	eb 3a		 jmp	 SHORT $LN1@GetStringA
$LN86@GetStringA:
  000f4	c6 45 f6 eb	 mov	 BYTE PTR __k$[ebp+10], -21 ; ffffffebH
  000f8	eb 34		 jmp	 SHORT $LN1@GetStringA
$LN88@GetStringA:
  000fa	c6 45 f4 ed	 mov	 BYTE PTR __k$[ebp+8], -19 ; ffffffedH
  000fe	eb 2e		 jmp	 SHORT $LN1@GetStringA
$LN89@GetStringA:
  00100	c6 45 f3 ea	 mov	 BYTE PTR __k$[ebp+7], -22 ; ffffffeaH
  00104	eb 28		 jmp	 SHORT $LN1@GetStringA
$LN90@GetStringA:
  00106	c6 45 f2 eb	 mov	 BYTE PTR __k$[ebp+6], -21 ; ffffffebH
  0010a	eb 22		 jmp	 SHORT $LN1@GetStringA
$LN91@GetStringA:
  0010c	c6 45 f1 ec	 mov	 BYTE PTR __k$[ebp+5], -20 ; ffffffecH
  00110	eb 1c		 jmp	 SHORT $LN1@GetStringA
$LN92@GetStringA:
  00112	c6 45 f0 ed	 mov	 BYTE PTR __k$[ebp+4], -19 ; ffffffedH
  00116	eb 16		 jmp	 SHORT $LN1@GetStringA
$LN93@GetStringA:
  00118	c6 45 ef ea	 mov	 BYTE PTR __k$[ebp+3], -22 ; ffffffeaH
  0011c	eb 10		 jmp	 SHORT $LN1@GetStringA
$LN94@GetStringA:
  0011e	c6 45 ee eb	 mov	 BYTE PTR __k$[ebp+2], -21 ; ffffffebH
  00122	eb 0a		 jmp	 SHORT $LN1@GetStringA
$LN95@GetStringA:
  00124	c6 45 ed ec	 mov	 BYTE PTR __k$[ebp+1], -20 ; ffffffecH
  00128	eb 04		 jmp	 SHORT $LN1@GetStringA
$LN96@GetStringA:
  0012a	c6 45 ec ed	 mov	 BYTE PTR __k$[ebp], -19	; ffffffedH
$LN1@GetStringA:
  0012e	6a 02		 push	 2
  00130	8d 45 ec	 lea	 eax, DWORD PTR __k$[ebp]
  00133	c6 45 f5 00	 mov	 BYTE PTR __k$[ebp+9], 0
  00137	5a		 pop	 edx
$LL104@GetStringA:
  00138	81 30 ed ec eb
	ea		 xor	 DWORD PTR [eax], -353637139 ; eaebecedH
  0013e	83 c0 04	 add	 eax, 4
  00141	4a		 dec	 edx
  00142	75 f4		 jne	 SHORT $LL104@GetStringA
  00144	80 75 f4 ed	 xor	 BYTE PTR __k$[ebp+8], -19 ; ffffffedH

; 109  : 		return GetStringAttribute(_k);

  00148	8d 45 ec	 lea	 eax, DWORD PTR __k$[ebp]
  0014b	50		 push	 eax
  0014c	ff 15 00 00 00
	00		 call	 DWORD PTR __imp_?GetStringAttribute@ioXMLElement@@QBEPBDPBD@Z

; 110  : 	}

  00152	8b 4d fc	 mov	 ecx, DWORD PTR __$ArrayPad$[ebp]
  00155	33 cd		 xor	 ecx, ebp
  00157	e8 00 00 00 00	 call	 @__security_check_cookie@4
  0015c	c9		 leave
  0015d	c2 04 00	 ret	 4
??$GetStringAttribute_e@$09@ioXMLElement@@QBEPBDAAY09$$CBD@Z ENDP ; ioXMLElement::GetStringAttribute_e<10>
_TEXT	ENDS
PUBLIC	__$ArrayPad$
PUBLIC	??$GetStringAttribute_e@$06@ioXMLElement@@QBEPBDAAY06$$CBD@Z ; ioXMLElement::GetStringAttribute_e<7>
; Function compile flags: /Ogsp
;	COMDAT ??$GetStringAttribute_e@$06@ioXMLElement@@QBEPBDAAY06$$CBD@Z
_TEXT	SEGMENT
__k$ = -16						; size = 7
__$ArrayPad$ = -4					; size = 4
_k$ = 8							; size = 4
??$GetStringAttribute_e@$06@ioXMLElement@@QBEPBDAAY06$$CBD@Z PROC ; ioXMLElement::GetStringAttribute_e<7>, COMDAT
; _this$ = ecx

; 107  : 	{

  00000	55		 push	 ebp
  00001	8b ec		 mov	 ebp, esp
  00003	83 ec 10	 sub	 esp, 16			; 00000010H
  00006	a1 00 00 00 00	 mov	 eax, DWORD PTR ___security_cookie
  0000b	33 c5		 xor	 eax, ebp
  0000d	89 45 fc	 mov	 DWORD PTR __$ArrayPad$[ebp], eax
  00010	8b 45 08	 mov	 eax, DWORD PTR _k$[ebp]

; 108  : 		_ENCSTR(k, _k);

  00013	8a 10		 mov	 dl, BYTE PTR [eax]
  00015	56		 push	 esi
  00016	8b f1		 mov	 esi, ecx
  00018	84 d2		 test	 dl, dl
  0001a	0f 84 c0 00 00
	00		 je	 $LN96@GetStringA@2
  00020	80 f2 ed	 xor	 dl, -19			; ffffffedH
  00023	88 55 f0	 mov	 BYTE PTR __k$[ebp], dl
  00026	8a 50 01	 mov	 dl, BYTE PTR [eax+1]
  00029	84 d2		 test	 dl, dl
  0002b	0f 84 a9 00 00
	00		 je	 $LN95@GetStringA@2
  00031	80 f2 ec	 xor	 dl, -20			; ffffffecH
  00034	88 55 f1	 mov	 BYTE PTR __k$[ebp+1], dl
  00037	8a 50 02	 mov	 dl, BYTE PTR [eax+2]
  0003a	84 d2		 test	 dl, dl
  0003c	0f 84 92 00 00
	00		 je	 $LN94@GetStringA@2
  00042	80 f2 eb	 xor	 dl, -21			; ffffffebH
  00045	88 55 f2	 mov	 BYTE PTR __k$[ebp+2], dl
  00048	8a 50 03	 mov	 dl, BYTE PTR [eax+3]
  0004b	84 d2		 test	 dl, dl
  0004d	74 7f		 je	 SHORT $LN93@GetStringA@2
  0004f	80 f2 ea	 xor	 dl, -22			; ffffffeaH
  00052	88 55 f3	 mov	 BYTE PTR __k$[ebp+3], dl
  00055	8a 50 04	 mov	 dl, BYTE PTR [eax+4]
  00058	84 d2		 test	 dl, dl
  0005a	74 6c		 je	 SHORT $LN92@GetStringA@2
  0005c	80 f2 ed	 xor	 dl, -19			; ffffffedH
  0005f	88 55 f4	 mov	 BYTE PTR __k$[ebp+4], dl
  00062	8a 50 05	 mov	 dl, BYTE PTR [eax+5]
  00065	84 d2		 test	 dl, dl
  00067	74 59		 je	 SHORT $LN91@GetStringA@2
  00069	80 f2 ec	 xor	 dl, -20			; ffffffecH
  0006c	80 78 06 00	 cmp	 BYTE PTR [eax+6], 0
  00070	88 55 f5	 mov	 BYTE PTR __k$[ebp+5], dl
  00073	74 6f		 je	 SHORT $LN1@GetStringA@2
  00075	8a 50 07	 mov	 dl, BYTE PTR [eax+7]
  00078	84 d2		 test	 dl, dl
  0007a	74 40		 je	 SHORT $LN89@GetStringA@2
  0007c	80 f2 ea	 xor	 dl, -22			; ffffffeaH
  0007f	88 55 f7	 mov	 BYTE PTR __k$[ebp+7], dl
  00082	8a 50 08	 mov	 dl, BYTE PTR [eax+8]
  00085	84 d2		 test	 dl, dl
  00087	74 2d		 je	 SHORT $LN88@GetStringA@2
  00089	80 f2 ed	 xor	 dl, -19			; ffffffedH
  0008c	88 55 f8	 mov	 BYTE PTR __k$[ebp+8], dl
  0008f	8a 50 09	 mov	 dl, BYTE PTR [eax+9]
  00092	84 d2		 test	 dl, dl
  00094	74 1a		 je	 SHORT $LN87@GetStringA@2
  00096	8a 40 0a	 mov	 al, BYTE PTR [eax+10]
  00099	80 f2 ec	 xor	 dl, -20			; ffffffecH
  0009c	88 55 f9	 mov	 BYTE PTR __k$[ebp+9], dl
  0009f	84 c0		 test	 al, al
  000a1	74 07		 je	 SHORT $LN86@GetStringA@2
  000a3	34 eb		 xor	 al, -21			; ffffffebH
  000a5	88 45 fa	 mov	 BYTE PTR __k$[ebp+10], al
  000a8	eb 3a		 jmp	 SHORT $LN1@GetStringA@2
$LN86@GetStringA@2:
  000aa	c6 45 fa eb	 mov	 BYTE PTR __k$[ebp+10], -21 ; ffffffebH
  000ae	eb 34		 jmp	 SHORT $LN1@GetStringA@2
$LN87@GetStringA@2:
  000b0	c6 45 f9 ec	 mov	 BYTE PTR __k$[ebp+9], -20 ; ffffffecH
  000b4	eb 2e		 jmp	 SHORT $LN1@GetStringA@2
$LN88@GetStringA@2:
  000b6	c6 45 f8 ed	 mov	 BYTE PTR __k$[ebp+8], -19 ; ffffffedH
  000ba	eb 28		 jmp	 SHORT $LN1@GetStringA@2
$LN89@GetStringA@2:
  000bc	c6 45 f7 ea	 mov	 BYTE PTR __k$[ebp+7], -22 ; ffffffeaH
  000c0	eb 22		 jmp	 SHORT $LN1@GetStringA@2
$LN91@GetStringA@2:
  000c2	c6 45 f5 ec	 mov	 BYTE PTR __k$[ebp+5], -20 ; ffffffecH
  000c6	eb 1c		 jmp	 SHORT $LN1@GetStringA@2
$LN92@GetStringA@2:
  000c8	c6 45 f4 ed	 mov	 BYTE PTR __k$[ebp+4], -19 ; ffffffedH
  000cc	eb 16		 jmp	 SHORT $LN1@GetStringA@2
$LN93@GetStringA@2:
  000ce	c6 45 f3 ea	 mov	 BYTE PTR __k$[ebp+3], -22 ; ffffffeaH
  000d2	eb 10		 jmp	 SHORT $LN1@GetStringA@2
$LN94@GetStringA@2:
  000d4	c6 45 f2 eb	 mov	 BYTE PTR __k$[ebp+2], -21 ; ffffffebH
  000d8	eb 0a		 jmp	 SHORT $LN1@GetStringA@2
$LN95@GetStringA@2:
  000da	c6 45 f1 ec	 mov	 BYTE PTR __k$[ebp+1], -20 ; ffffffecH
  000de	eb 04		 jmp	 SHORT $LN1@GetStringA@2
$LN96@GetStringA@2:
  000e0	c6 45 f0 ed	 mov	 BYTE PTR __k$[ebp], -19	; ffffffedH
$LN1@GetStringA@2:
  000e4	81 75 f0 ed ec
	eb ea		 xor	 DWORD PTR __k$[ebp], -353637139 ; eaebecedH
  000eb	6a 04		 push	 4
  000ed	c6 45 f6 00	 mov	 BYTE PTR __k$[ebp+6], 0
  000f1	58		 pop	 eax
$LL101@GetStringA@2:
  000f2	8b c8		 mov	 ecx, eax
  000f4	81 e1 03 00 00
	80		 and	 ecx, -2147483645	; 80000003H
  000fa	79 05		 jns	 SHORT $LN111@GetStringA@2
  000fc	49		 dec	 ecx
  000fd	83 c9 fc	 or	 ecx, -4			; fffffffcH
  00100	41		 inc	 ecx
$LN111@GetStringA@2:
  00101	b2 ed		 mov	 dl, -19			; ffffffedH
  00103	2a d1		 sub	 dl, cl
  00105	30 54 05 f0	 xor	 BYTE PTR __k$[ebp+eax], dl
  00109	40		 inc	 eax
  0010a	83 f8 06	 cmp	 eax, 6
  0010d	7c e3		 jl	 SHORT $LL101@GetStringA@2

; 109  : 		return GetStringAttribute(_k);

  0010f	8d 45 f0	 lea	 eax, DWORD PTR __k$[ebp]
  00112	50		 push	 eax
  00113	8b ce		 mov	 ecx, esi
  00115	ff 15 00 00 00
	00		 call	 DWORD PTR __imp_?GetStringAttribute@ioXMLElement@@QBEPBDPBD@Z

; 110  : 	}

  0011b	8b 4d fc	 mov	 ecx, DWORD PTR __$ArrayPad$[ebp]
  0011e	33 cd		 xor	 ecx, ebp
  00120	5e		 pop	 esi
  00121	e8 00 00 00 00	 call	 @__security_check_cookie@4
  00126	c9		 leave
  00127	c2 04 00	 ret	 4
??$GetStringAttribute_e@$06@ioXMLElement@@QBEPBDAAY06$$CBD@Z ENDP ; ioXMLElement::GetStringAttribute_e<7>
_TEXT	ENDS
PUBLIC	__$ArrayPad$
PUBLIC	??$?8$09@@YA_NABVioHashString@@AAY09$$CBD@Z	; operator==<10>
; Function compile flags: /Ogsp
; File d:\lost saga for developer\youtube\tutorial\source\src\io3dengine\iohashstring.h
;	COMDAT ??$?8$09@@YA_NABVioHashString@@AAY09$$CBD@Z
_TEXT	SEGMENT
__t$ = -20						; size = 10
__$ArrayPad$ = -4					; size = 4
_lhs$ = 8						; size = 4
_t$ = 12						; size = 4
??$?8$09@@YA_NABVioHashString@@AAY09$$CBD@Z PROC	; operator==<10>, COMDAT

; 146  : {

  00000	55		 push	 ebp
  00001	8b ec		 mov	 ebp, esp
  00003	83 ec 14	 sub	 esp, 20			; 00000014H
  00006	a1 00 00 00 00	 mov	 eax, DWORD PTR ___security_cookie
  0000b	33 c5		 xor	 eax, ebp
  0000d	89 45 fc	 mov	 DWORD PTR __$ArrayPad$[ebp], eax
  00010	8b 45 0c	 mov	 eax, DWORD PTR _t$[ebp]

; 147  : 	_ENCSTR(t, _t); return ( strcmp( lhs.c_str(), _t ) == 0 );

  00013	8a 10		 mov	 dl, BYTE PTR [eax]
  00015	8b 4d 08	 mov	 ecx, DWORD PTR _lhs$[ebp]
  00018	84 d2		 test	 dl, dl
  0001a	0f 84 0d 01 00
	00		 je	 $LN96@operator
  00020	80 f2 ed	 xor	 dl, -19			; ffffffedH
  00023	88 55 ec	 mov	 BYTE PTR __t$[ebp], dl
  00026	8a 50 01	 mov	 dl, BYTE PTR [eax+1]
  00029	84 d2		 test	 dl, dl
  0002b	0f 84 f6 00 00
	00		 je	 $LN95@operator
  00031	80 f2 ec	 xor	 dl, -20			; ffffffecH
  00034	88 55 ed	 mov	 BYTE PTR __t$[ebp+1], dl
  00037	8a 50 02	 mov	 dl, BYTE PTR [eax+2]
  0003a	84 d2		 test	 dl, dl
  0003c	0f 84 df 00 00
	00		 je	 $LN94@operator
  00042	80 f2 eb	 xor	 dl, -21			; ffffffebH
  00045	88 55 ee	 mov	 BYTE PTR __t$[ebp+2], dl
  00048	8a 50 03	 mov	 dl, BYTE PTR [eax+3]
  0004b	84 d2		 test	 dl, dl
  0004d	0f 84 c8 00 00
	00		 je	 $LN93@operator
  00053	80 f2 ea	 xor	 dl, -22			; ffffffeaH
  00056	88 55 ef	 mov	 BYTE PTR __t$[ebp+3], dl
  00059	8a 50 04	 mov	 dl, BYTE PTR [eax+4]
  0005c	84 d2		 test	 dl, dl
  0005e	0f 84 b1 00 00
	00		 je	 $LN92@operator
  00064	80 f2 ed	 xor	 dl, -19			; ffffffedH
  00067	88 55 f0	 mov	 BYTE PTR __t$[ebp+4], dl
  0006a	8a 50 05	 mov	 dl, BYTE PTR [eax+5]
  0006d	84 d2		 test	 dl, dl
  0006f	0f 84 9a 00 00
	00		 je	 $LN91@operator
  00075	80 f2 ec	 xor	 dl, -20			; ffffffecH
  00078	88 55 f1	 mov	 BYTE PTR __t$[ebp+5], dl
  0007b	8a 50 06	 mov	 dl, BYTE PTR [eax+6]
  0007e	84 d2		 test	 dl, dl
  00080	0f 84 83 00 00
	00		 je	 $LN90@operator
  00086	80 f2 eb	 xor	 dl, -21			; ffffffebH
  00089	88 55 f2	 mov	 BYTE PTR __t$[ebp+6], dl
  0008c	8a 50 07	 mov	 dl, BYTE PTR [eax+7]
  0008f	84 d2		 test	 dl, dl
  00091	74 70		 je	 SHORT $LN89@operator
  00093	80 f2 ea	 xor	 dl, -22			; ffffffeaH
  00096	88 55 f3	 mov	 BYTE PTR __t$[ebp+7], dl
  00099	8a 50 08	 mov	 dl, BYTE PTR [eax+8]
  0009c	84 d2		 test	 dl, dl
  0009e	74 5d		 je	 SHORT $LN88@operator
  000a0	80 f2 ed	 xor	 dl, -19			; ffffffedH
  000a3	80 78 09 00	 cmp	 BYTE PTR [eax+9], 0
  000a7	88 55 f4	 mov	 BYTE PTR __t$[ebp+8], dl
  000aa	0f 84 81 00 00
	00		 je	 $LN1@operator
  000b0	8a 50 0a	 mov	 dl, BYTE PTR [eax+10]
  000b3	84 d2		 test	 dl, dl
  000b5	74 40		 je	 SHORT $LN86@operator
  000b7	80 f2 eb	 xor	 dl, -21			; ffffffebH
  000ba	88 55 f6	 mov	 BYTE PTR __t$[ebp+10], dl
  000bd	8a 50 0b	 mov	 dl, BYTE PTR [eax+11]
  000c0	84 d2		 test	 dl, dl
  000c2	74 2d		 je	 SHORT $LN85@operator
  000c4	80 f2 ea	 xor	 dl, -22			; ffffffeaH
  000c7	88 55 f7	 mov	 BYTE PTR __t$[ebp+11], dl
  000ca	8a 50 0c	 mov	 dl, BYTE PTR [eax+12]
  000cd	84 d2		 test	 dl, dl
  000cf	74 1a		 je	 SHORT $LN84@operator
  000d1	8a 40 0d	 mov	 al, BYTE PTR [eax+13]
  000d4	80 f2 ed	 xor	 dl, -19			; ffffffedH
  000d7	88 55 f8	 mov	 BYTE PTR __t$[ebp+12], dl
  000da	84 c0		 test	 al, al
  000dc	74 07		 je	 SHORT $LN83@operator
  000de	34 ec		 xor	 al, -20			; ffffffecH
  000e0	88 45 f9	 mov	 BYTE PTR __t$[ebp+13], al
  000e3	eb 4c		 jmp	 SHORT $LN1@operator
$LN83@operator:
  000e5	c6 45 f9 ec	 mov	 BYTE PTR __t$[ebp+13], -20 ; ffffffecH
  000e9	eb 46		 jmp	 SHORT $LN1@operator
$LN84@operator:
  000eb	c6 45 f8 ed	 mov	 BYTE PTR __t$[ebp+12], -19 ; ffffffedH
  000ef	eb 40		 jmp	 SHORT $LN1@operator
$LN85@operator:
  000f1	c6 45 f7 ea	 mov	 BYTE PTR __t$[ebp+11], -22 ; ffffffeaH
  000f5	eb 3a		 jmp	 SHORT $LN1@operator
$LN86@operator:
  000f7	c6 45 f6 eb	 mov	 BYTE PTR __t$[ebp+10], -21 ; ffffffebH
  000fb	eb 34		 jmp	 SHORT $LN1@operator
$LN88@operator:
  000fd	c6 45 f4 ed	 mov	 BYTE PTR __t$[ebp+8], -19 ; ffffffedH
  00101	eb 2e		 jmp	 SHORT $LN1@operator
$LN89@operator:
  00103	c6 45 f3 ea	 mov	 BYTE PTR __t$[ebp+7], -22 ; ffffffeaH
  00107	eb 28		 jmp	 SHORT $LN1@operator
$LN90@operator:
  00109	c6 45 f2 eb	 mov	 BYTE PTR __t$[ebp+6], -21 ; ffffffebH
  0010d	eb 22		 jmp	 SHORT $LN1@operator
$LN91@operator:
  0010f	c6 45 f1 ec	 mov	 BYTE PTR __t$[ebp+5], -20 ; ffffffecH
  00113	eb 1c		 jmp	 SHORT $LN1@operator
$LN92@operator:
  00115	c6 45 f0 ed	 mov	 BYTE PTR __t$[ebp+4], -19 ; ffffffedH
  00119	eb 16		 jmp	 SHORT $LN1@operator
$LN93@operator:
  0011b	c6 45 ef ea	 mov	 BYTE PTR __t$[ebp+3], -22 ; ffffffeaH
  0011f	eb 10		 jmp	 SHORT $LN1@operator
$LN94@operator:
  00121	c6 45 ee eb	 mov	 BYTE PTR __t$[ebp+2], -21 ; ffffffebH
  00125	eb 0a		 jmp	 SHORT $LN1@operator
$LN95@operator:
  00127	c6 45 ed ec	 mov	 BYTE PTR __t$[ebp+1], -20 ; ffffffecH
  0012b	eb 04		 jmp	 SHORT $LN1@operator
$LN96@operator:
  0012d	c6 45 ec ed	 mov	 BYTE PTR __t$[ebp], -19	; ffffffedH
$LN1@operator:
  00131	6a 02		 push	 2
  00133	8d 45 ec	 lea	 eax, DWORD PTR __t$[ebp]
  00136	c6 45 f5 00	 mov	 BYTE PTR __t$[ebp+9], 0
  0013a	5a		 pop	 edx
$LL104@operator:
  0013b	81 30 ed ec eb
	ea		 xor	 DWORD PTR [eax], -353637139 ; eaebecedH
  00141	83 c0 04	 add	 eax, 4
  00144	4a		 dec	 edx
  00145	75 f4		 jne	 SHORT $LL104@operator
  00147	80 75 f4 ed	 xor	 BYTE PTR __t$[ebp+8], -19 ; ffffffedH
  0014b	56		 push	 esi
  0014c	8d 75 ec	 lea	 esi, DWORD PTR __t$[ebp]
  0014f	ff 15 00 00 00
	00		 call	 DWORD PTR __imp_?c_str@ioHashString@@QBEPBDXZ
$LL111@operator:
  00155	8a 08		 mov	 cl, BYTE PTR [eax]
  00157	3a 0e		 cmp	 cl, BYTE PTR [esi]
  00159	75 1a		 jne	 SHORT $LN112@operator
  0015b	84 c9		 test	 cl, cl
  0015d	74 12		 je	 SHORT $LN113@operator
  0015f	8a 48 01	 mov	 cl, BYTE PTR [eax+1]
  00162	3a 4e 01	 cmp	 cl, BYTE PTR [esi+1]
  00165	75 0e		 jne	 SHORT $LN112@operator
  00167	83 c0 02	 add	 eax, 2
  0016a	83 c6 02	 add	 esi, 2
  0016d	84 c9		 test	 cl, cl
  0016f	75 e4		 jne	 SHORT $LL111@operator
$LN113@operator:
  00171	33 c0		 xor	 eax, eax
  00173	eb 05		 jmp	 SHORT $LN114@operator
$LN112@operator:
  00175	1b c0		 sbb	 eax, eax
  00177	83 d8 ff	 sbb	 eax, -1
$LN114@operator:
  0017a	33 c9		 xor	 ecx, ecx
  0017c	85 c0		 test	 eax, eax
  0017e	0f 94 c0	 sete	 al

; 148  : }

  00181	8b 4d fc	 mov	 ecx, DWORD PTR __$ArrayPad$[ebp]
  00184	33 cd		 xor	 ecx, ebp
  00186	5e		 pop	 esi
  00187	e8 00 00 00 00	 call	 @__security_check_cookie@4
  0018c	c9		 leave
  0018d	c3		 ret	 0
??$?8$09@@YA_NABVioHashString@@AAY09$$CBD@Z ENDP	; operator==<10>
_TEXT	ENDS
PUBLIC	?IsEmpty@ioComplexStringPrinter@@QBE_NXZ	; ioComplexStringPrinter::IsEmpty
; Function compile flags: /Ogsp
; File d:\lost saga for developer\youtube\tutorial\source\src\lsclient\iocomplexstringprinter.h
;	COMDAT ?IsEmpty@ioComplexStringPrinter@@QBE_NXZ
_TEXT	SEGMENT
?IsEmpty@ioComplexStringPrinter@@QBE_NXZ PROC		; ioComplexStringPrinter::IsEmpty, COMDAT
; _this$ = ecx

; 124  : 	inline bool IsEmpty() const { return m_vPieceList.empty(); }

  00000	8b 41 0c	 mov	 eax, DWORD PTR [ecx+12]
  00003	2b 41 10	 sub	 eax, DWORD PTR [ecx+16]
  00006	f7 d8		 neg	 eax
  00008	1b c0		 sbb	 eax, eax
  0000a	40		 inc	 eax
  0000b	c3		 ret	 0
?IsEmpty@ioComplexStringPrinter@@QBE_NXZ ENDP		; ioComplexStringPrinter::IsEmpty
_TEXT	ENDS
PUBLIC	?c_str@?$basic_string@DU?$char_traits@D@std@@V?$allocator@D@2@@std@@QBEPBDXZ ; std::basic_string<char,std::char_traits<char>,std::allocator<char> >::c_str
; Function compile flags: /Ogsp
; File c:\program files (x86)\microsoft visual studio 10.0\vc\include\xstring
;	COMDAT ?c_str@?$basic_string@DU?$char_traits@D@std@@V?$allocator@D@2@@std@@QBEPBDXZ
_TEXT	SEGMENT
?c_str@?$basic_string@DU?$char_traits@D@std@@V?$allocator@D@2@@std@@QBEPBDXZ PROC ; std::basic_string<char,std::char_traits<char>,std::allocator<char> >::c_str, COMDAT
; _this$ = ecx

; 1497 : 		return (_Myptr());

  00000	83 79 14 10	 cmp	 DWORD PTR [ecx+20], 16	; 00000010H
  00004	72 03		 jb	 SHORT $LN5@c_str
  00006	8b 01		 mov	 eax, DWORD PTR [ecx]

; 1498 : 		}

  00008	c3		 ret	 0

; 1497 : 		return (_Myptr());

$LN5@c_str:
  00009	8b c1		 mov	 eax, ecx

; 1498 : 		}

  0000b	c3		 ret	 0
?c_str@?$basic_string@DU?$char_traits@D@std@@V?$allocator@D@2@@std@@QBEPBDXZ ENDP ; std::basic_string<char,std::char_traits<char>,std::allocator<char> >::c_str
_TEXT	ENDS
PUBLIC	??0?$_String_val@DV?$allocator@D@std@@@std@@QAE@V?$allocator@D@1@@Z ; std::_String_val<char,std::allocator<char> >::_String_val<char,std::allocator<char> >
; Function compile flags: /Ogsp
;	COMDAT ??0?$_String_val@DV?$allocator@D@std@@@std@@QAE@V?$allocator@D@1@@Z
_TEXT	SEGMENT
__Al$ = 8						; size = 1
??0?$_String_val@DV?$allocator@D@std@@@std@@QAE@V?$allocator@D@1@@Z PROC ; std::_String_val<char,std::allocator<char> >::_String_val<char,std::allocator<char> >, COMDAT
; _this$ = ecx

; 454  : 		{	// construct allocator from _Al

  00000	8b c1		 mov	 eax, ecx

; 455  : 		}

  00002	c2 04 00	 ret	 4
??0?$_String_val@DV?$allocator@D@std@@@std@@QAE@V?$allocator@D@1@@Z ENDP ; std::_String_val<char,std::allocator<char> >::_String_val<char,std::allocator<char> >
_TEXT	ENDS
PUBLIC	?_Eos@?$basic_string@DU?$char_traits@D@std@@V?$allocator@D@2@@std@@QAEXI@Z ; std::basic_string<char,std::char_traits<char>,std::allocator<char> >::_Eos
; Function compile flags: /Ogsp
;	COMDAT ?_Eos@?$basic_string@DU?$char_traits@D@std@@V?$allocator@D@2@@std@@QAEXI@Z
_TEXT	SEGMENT
__Newsize$ = 8						; size = 4
?_Eos@?$basic_string@DU?$char_traits@D@std@@V?$allocator@D@2@@std@@QAEXI@Z PROC ; std::basic_string<char,std::char_traits<char>,std::allocator<char> >::_Eos, COMDAT
; _this$ = ecx

; 1953 : 		{	// set new length and null terminator

  00000	55		 push	 ebp
  00001	8b ec		 mov	 ebp, esp

; 1954 : 		_Traits::assign(_Myptr()[this->_Mysize = _Newsize], _Elem());

  00003	83 79 14 10	 cmp	 DWORD PTR [ecx+20], 16	; 00000010H
  00007	8b 45 08	 mov	 eax, DWORD PTR __Newsize$[ebp]
  0000a	89 41 10	 mov	 DWORD PTR [ecx+16], eax
  0000d	72 02		 jb	 SHORT $LN5@Eos
  0000f	8b 09		 mov	 ecx, DWORD PTR [ecx]
$LN5@Eos:
  00011	c6 04 01 00	 mov	 BYTE PTR [ecx+eax], 0

; 1955 : 		}

  00015	5d		 pop	 ebp
  00016	c2 04 00	 ret	 4
?_Eos@?$basic_string@DU?$char_traits@D@std@@V?$allocator@D@2@@std@@QAEXI@Z ENDP ; std::basic_string<char,std::char_traits<char>,std::allocator<char> >::_Eos
_TEXT	ENDS
PUBLIC	?max_size@?$basic_string@DU?$char_traits@D@std@@V?$allocator@D@2@@std@@QBEIXZ ; std::basic_string<char,std::char_traits<char>,std::allocator<char> >::max_size
; Function compile flags: /Ogsp
;	COMDAT ?max_size@?$basic_string@DU?$char_traits@D@std@@V?$allocator@D@2@@std@@QBEIXZ
_TEXT	SEGMENT
?max_size@?$basic_string@DU?$char_traits@D@std@@V?$allocator@D@2@@std@@QBEIXZ PROC ; std::basic_string<char,std::char_traits<char>,std::allocator<char> >::max_size, COMDAT
; _this$ = ecx

; 1517 : 		size_type _Num = this->_Alval.max_size();
; 1518 : 		return (_Num <= 1 ? 1 : _Num - 1);

  00000	6a fe		 push	 -2			; fffffffeH
  00002	58		 pop	 eax

; 1519 : 		}

  00003	c3		 ret	 0
?max_size@?$basic_string@DU?$char_traits@D@std@@V?$allocator@D@2@@std@@QBEIXZ ENDP ; std::basic_string<char,std::char_traits<char>,std::allocator<char> >::max_size
_TEXT	ENDS
PUBLIC	?allocate@?$allocator@D@std@@QAEPADI@Z		; std::allocator<char>::allocate
; Function compile flags: /Ogsp
; File c:\program files (x86)\microsoft visual studio 10.0\vc\include\xmemory
;	COMDAT ?allocate@?$allocator@D@std@@QAEPADI@Z
_TEXT	SEGMENT
__Count$ = 8						; size = 4
?allocate@?$allocator@D@std@@QAEPADI@Z PROC		; std::allocator<char>::allocate, COMDAT
; _this$ = ecx

; 186  : 		{	// allocate array of _Count elements

  00000	55		 push	 ebp
  00001	8b ec		 mov	 ebp, esp

; 187  : 		return (_Allocate(_Count, (pointer)0));

  00003	6a 00		 push	 0
  00005	ff 75 08	 push	 DWORD PTR __Count$[ebp]
  00008	e8 00 00 00 00	 call	 ??$_Allocate@D@std@@YAPADIPAD@Z ; std::_Allocate<char>
  0000d	59		 pop	 ecx
  0000e	59		 pop	 ecx

; 188  : 		}

  0000f	5d		 pop	 ebp
  00010	c2 04 00	 ret	 4
?allocate@?$allocator@D@std@@QAEPADI@Z ENDP		; std::allocator<char>::allocate
_TEXT	ENDS
PUBLIC	??$?9DD@std@@YA_NABV?$allocator@D@0@0@Z		; std::operator!=<char,char>
; Function compile flags: /Ogsp
;	COMDAT ??$?9DD@std@@YA_NABV?$allocator@D@0@0@Z
_TEXT	SEGMENT
__Left$ = 8						; size = 4
__Right$ = 12						; size = 4
??$?9DD@std@@YA_NABV?$allocator@D@0@0@Z PROC		; std::operator!=<char,char>, COMDAT

; 271  : 	return (!(_Left == _Right));

  00000	32 c0		 xor	 al, al

; 272  : 	}

  00002	c3		 ret	 0
??$?9DD@std@@YA_NABV?$allocator@D@0@0@Z ENDP		; std::operator!=<char,char>
_TEXT	ENDS
PUBLIC	_xElement$GSCopy$
PUBLIC	_this$GSCopy$
PUBLIC	__$ArrayPad$
EXTRN	__imp_?ParseExtraInfo@ioButton@@UAEXAAVioXMLElement@@@Z:PROC
; Function compile flags: /Ogsp
; File d:\lost saga for developer\youtube\tutorial\source\src\lsclient\gui\iomessagebox.cpp
;	COMDAT ?ParseExtraInfo@ioMessageBoxBtn@@UAEXAAVioXMLElement@@@Z
_TEXT	SEGMENT
_this$GSCopy$ = -28					; size = 4
_xElement$GSCopy$ = -24					; size = 4
__k$509202 = -20					; size = 7
__k$509077 = -20					; size = 10
__$ArrayPad$ = -4					; size = 4
_xElement$ = 8						; size = 4
?ParseExtraInfo@ioMessageBoxBtn@@UAEXAAVioXMLElement@@@Z PROC ; ioMessageBoxBtn::ParseExtraInfo, COMDAT
; _this$ = ecx

; 42   : {

  00000	55		 push	 ebp
  00001	8b ec		 mov	 ebp, esp
  00003	83 ec 1c	 sub	 esp, 28			; 0000001cH
  00006	a1 00 00 00 00	 mov	 eax, DWORD PTR ___security_cookie
  0000b	33 c5		 xor	 eax, ebp
  0000d	89 45 fc	 mov	 DWORD PTR __$ArrayPad$[ebp], eax
  00010	53		 push	 ebx
  00011	56		 push	 esi
  00012	57		 push	 edi
  00013	8b d9		 mov	 ebx, ecx
  00015	8b 4d 08	 mov	 ecx, DWORD PTR _xElement$[ebp]

; 43   : 	m_szTitleName  = xElement.GetStringAttribute_e( "TitleName" );

  00018	6a 02		 push	 2

; 44   : 	m_szHotKey     = xElement.GetStringAttribute_e( "HotKey" );

  0001a	89 5d e4	 mov	 DWORD PTR _this$GSCopy$[ebp], ebx
  0001d	89 4d e8	 mov	 DWORD PTR _xElement$GSCopy$[ebp], ecx
  00020	c7 45 ec b9 85
	9f 86		 mov	 DWORD PTR __k$509077[ebp], -2036365895 ; 869f85b9H
  00027	c7 45 f0 88 a2
	8a 87		 mov	 DWORD PTR __k$509077[ebp+4], -2020957560 ; 878aa288H
  0002e	8d 45 ec	 lea	 eax, DWORD PTR __k$509077[ebp]
  00031	66 c7 45 f4 88
	00		 mov	 WORD PTR __k$509077[ebp+8], 136 ; 00000088H
  00037	5a		 pop	 edx
  00038	be ed ec eb ea	 mov	 esi, -353637139		; eaebecedH
$LL106@ParseExtra:

; 43   : 	m_szTitleName  = xElement.GetStringAttribute_e( "TitleName" );

  0003d	31 30		 xor	 DWORD PTR [eax], esi
  0003f	83 c0 04	 add	 eax, 4
  00042	4a		 dec	 edx
  00043	75 f8		 jne	 SHORT $LL106@ParseExtra
  00045	8b 3d 00 00 00
	00		 mov	 edi, DWORD PTR __imp_?GetStringAttribute@ioXMLElement@@QBEPBDPBD@Z
  0004b	80 75 f4 ed	 xor	 BYTE PTR __k$509077[ebp+8], -19 ; ffffffedH
  0004f	8d 45 ec	 lea	 eax, DWORD PTR __k$509077[ebp]
  00052	50		 push	 eax
  00053	ff d7		 call	 edi
  00055	8d 8b fc 01 00
	00		 lea	 ecx, DWORD PTR [ebx+508]
  0005b	8b 1d 00 00 00
	00		 mov	 ebx, DWORD PTR __imp_??4ioHashString@@QAEAAV0@PBD@Z
  00061	50		 push	 eax
  00062	ff d3		 call	 ebx

; 44   : 	m_szHotKey     = xElement.GetStringAttribute_e( "HotKey" );

  00064	c7 45 ec a5 83
	9f a1		 mov	 DWORD PTR __k$509202[ebp], -1583381595 ; a19f83a5H
  0006b	31 75 ec	 xor	 DWORD PTR __k$509202[ebp], esi
  0006e	6a 04		 push	 4
  00070	66 c7 45 f0 88
	95		 mov	 WORD PTR __k$509202[ebp+4], 38280 ; 00009588H
  00076	c6 45 f2 00	 mov	 BYTE PTR __k$509202[ebp+6], 0
  0007a	5e		 pop	 esi
$LL209@ParseExtra:
  0007b	8b c6		 mov	 eax, esi
  0007d	25 03 00 00 80	 and	 eax, -2147483645	; 80000003H
  00082	79 05		 jns	 SHORT $LN223@ParseExtra
  00084	48		 dec	 eax
  00085	83 c8 fc	 or	 eax, -4			; fffffffcH
  00088	40		 inc	 eax
$LN223@ParseExtra:
  00089	b1 ed		 mov	 cl, -19			; ffffffedH
  0008b	2a c8		 sub	 cl, al
  0008d	30 4c 35 ec	 xor	 BYTE PTR __k$509202[ebp+esi], cl
  00091	46		 inc	 esi
  00092	83 fe 06	 cmp	 esi, 6
  00095	7c e4		 jl	 SHORT $LL209@ParseExtra
  00097	8b 4d e8	 mov	 ecx, DWORD PTR _xElement$GSCopy$[ebp]
  0009a	8d 45 ec	 lea	 eax, DWORD PTR __k$509202[ebp]
  0009d	50		 push	 eax
  0009e	ff d7		 call	 edi
  000a0	8b 75 e4	 mov	 esi, DWORD PTR _this$GSCopy$[ebp]
  000a3	50		 push	 eax
  000a4	8d 8e 0c 02 00
	00		 lea	 ecx, DWORD PTR [esi+524]
  000aa	ff d3		 call	 ebx

; 45   : 
; 46   : 	ioButton::ParseExtraInfo( xElement );

  000ac	ff 75 e8	 push	 DWORD PTR _xElement$GSCopy$[ebp]
  000af	8b ce		 mov	 ecx, esi
  000b1	ff 15 00 00 00
	00		 call	 DWORD PTR __imp_?ParseExtraInfo@ioButton@@UAEXAAVioXMLElement@@@Z

; 47   : }

  000b7	8b 4d fc	 mov	 ecx, DWORD PTR __$ArrayPad$[ebp]
  000ba	5f		 pop	 edi
  000bb	5e		 pop	 esi
  000bc	33 cd		 xor	 ecx, ebp
  000be	5b		 pop	 ebx
  000bf	e8 00 00 00 00	 call	 @__security_check_cookie@4
  000c4	c9		 leave
  000c5	c2 04 00	 ret	 4
?ParseExtraInfo@ioMessageBoxBtn@@UAEXAAVioXMLElement@@@Z ENDP ; ioMessageBoxBtn::ParseExtraInfo
_TEXT	ENDS
PUBLIC	_this$GSCopy$
PUBLIC	__$ArrayPad$
PUBLIC	?AddRenderFrame@ioMessageBox@@UAEXABVioHashString@@PAVioUIRenderFrame@@@Z ; ioMessageBox::AddRenderFrame
EXTRN	__imp_?AddRenderFrame@ioWnd@@UAEXABVioHashString@@PAVioUIRenderFrame@@@Z:PROC
; Function compile flags: /Ogsp
;	COMDAT ?AddRenderFrame@ioMessageBox@@UAEXABVioHashString@@PAVioUIRenderFrame@@@Z
_TEXT	SEGMENT
_this$GSCopy$ = -24					; size = 4
__t$509415 = -20					; size = 10
__$ArrayPad$ = -4					; size = 4
_szType$ = 8						; size = 4
_pFrame$ = 12						; size = 4
?AddRenderFrame@ioMessageBox@@UAEXABVioHashString@@PAVioUIRenderFrame@@@Z PROC ; ioMessageBox::AddRenderFrame, COMDAT
; _this$ = ecx

; 88   : {

  00000	55		 push	 ebp
  00001	8b ec		 mov	 ebp, esp
  00003	83 ec 18	 sub	 esp, 24			; 00000018H
  00006	a1 00 00 00 00	 mov	 eax, DWORD PTR ___security_cookie
  0000b	33 c5		 xor	 eax, ebp
  0000d	89 45 fc	 mov	 DWORD PTR __$ArrayPad$[ebp], eax
  00010	53		 push	 ebx
  00011	8b 5d 0c	 mov	 ebx, DWORD PTR _pFrame$[ebp]
  00014	57		 push	 edi
  00015	8b 7d 08	 mov	 edi, DWORD PTR _szType$[ebp]
  00018	89 4d e8	 mov	 DWORD PTR _this$GSCopy$[ebp], ecx

; 89   : 	if( pFrame )

  0001b	85 db		 test	 ebx, ebx
  0001d	0f 84 8e 00 00
	00		 je	 $LN1@AddRenderF

; 90   : 	{
; 91   : 		if( szType == "BottomFrm" )

  00023	6a 02		 push	 2
  00025	c7 45 ec af 83
	9f 9e		 mov	 DWORD PTR __t$509415[ebp], -1633713233 ; 9e9f83afH
  0002c	c7 45 f0 82 81
	ad 98		 mov	 DWORD PTR __t$509415[ebp+4], -1733459582 ; 98ad8182H
  00033	8d 45 ec	 lea	 eax, DWORD PTR __t$509415[ebp]
  00036	66 c7 45 f4 80
	00		 mov	 WORD PTR __t$509415[ebp+8], 128 ; 00000080H
  0003c	59		 pop	 ecx
$LL112@AddRenderF:
  0003d	81 30 ed ec eb
	ea		 xor	 DWORD PTR [eax], -353637139 ; eaebecedH
  00043	83 c0 04	 add	 eax, 4
  00046	49		 dec	 ecx
  00047	75 f4		 jne	 SHORT $LL112@AddRenderF
  00049	80 75 f4 ed	 xor	 BYTE PTR __t$509415[ebp+8], -19 ; ffffffedH
  0004d	56		 push	 esi
  0004e	8b cf		 mov	 ecx, edi
  00050	8d 75 ec	 lea	 esi, DWORD PTR __t$509415[ebp]
  00053	ff 15 00 00 00
	00		 call	 DWORD PTR __imp_?c_str@ioHashString@@QBEPBDXZ
$LL119@AddRenderF:
  00059	8a 08		 mov	 cl, BYTE PTR [eax]
  0005b	3a 0e		 cmp	 cl, BYTE PTR [esi]
  0005d	75 1a		 jne	 SHORT $LN120@AddRenderF
  0005f	84 c9		 test	 cl, cl
  00061	74 12		 je	 SHORT $LN121@AddRenderF
  00063	8a 48 01	 mov	 cl, BYTE PTR [eax+1]
  00066	3a 4e 01	 cmp	 cl, BYTE PTR [esi+1]
  00069	75 0e		 jne	 SHORT $LN120@AddRenderF
  0006b	83 c0 02	 add	 eax, 2
  0006e	83 c6 02	 add	 esi, 2
  00071	84 c9		 test	 cl, cl
  00073	75 e4		 jne	 SHORT $LL119@AddRenderF
$LN121@AddRenderF:
  00075	33 c0		 xor	 eax, eax
  00077	eb 05		 jmp	 SHORT $LN122@AddRenderF
$LN120@AddRenderF:
  00079	1b c0		 sbb	 eax, eax
  0007b	83 d8 ff	 sbb	 eax, -1
$LN122@AddRenderF:
  0007e	85 c0		 test	 eax, eax
  00080	75 23		 jne	 SHORT $LN3@AddRenderF

; 92   : 		{
; 93   : 			SAFEDELETE( m_pBottomFrm );

  00082	8b 75 e8	 mov	 esi, DWORD PTR _this$GSCopy$[ebp]
  00085	8b 8e 60 01 00
	00		 mov	 ecx, DWORD PTR [esi+352]
  0008b	85 c9		 test	 ecx, ecx
  0008d	74 0e		 je	 SHORT $LN2@AddRenderF
  0008f	8b 01		 mov	 eax, DWORD PTR [ecx]
  00091	6a 01		 push	 1
  00093	ff 50 40	 call	 DWORD PTR [eax+64]
  00096	83 a6 60 01 00
	00 00		 and	 DWORD PTR [esi+352], 0
$LN2@AddRenderF:

; 94   : 			m_pBottomFrm = pFrame;

  0009d	89 9e 60 01 00
	00		 mov	 DWORD PTR [esi+352], ebx

; 95   : 		}
; 96   : 		else

  000a3	eb 0b		 jmp	 SHORT $LN123@AddRenderF
$LN3@AddRenderF:

; 97   : 			ioWnd::AddRenderFrame( szType, pFrame );

  000a5	8b 4d e8	 mov	 ecx, DWORD PTR _this$GSCopy$[ebp]
  000a8	53		 push	 ebx
  000a9	57		 push	 edi
  000aa	ff 15 00 00 00
	00		 call	 DWORD PTR __imp_?AddRenderFrame@ioWnd@@UAEXABVioHashString@@PAVioUIRenderFrame@@@Z
$LN123@AddRenderF:
  000b0	5e		 pop	 esi
$LN1@AddRenderF:

; 98   : 	}
; 99   : }

  000b1	8b 4d fc	 mov	 ecx, DWORD PTR __$ArrayPad$[ebp]
  000b4	5f		 pop	 edi
  000b5	33 cd		 xor	 ecx, ebp
  000b7	5b		 pop	 ebx
  000b8	e8 00 00 00 00	 call	 @__security_check_cookie@4
  000bd	c9		 leave
  000be	c2 08 00	 ret	 8
?AddRenderFrame@ioMessageBox@@UAEXABVioHashString@@PAVioUIRenderFrame@@@Z ENDP ; ioMessageBox::AddRenderFrame
_TEXT	ENDS
PUBLIC	__real@3f266666
PUBLIC	?OnRender@ioMessageBox@@MAEXXZ			; ioMessageBox::OnRender
EXTRN	__imp_?PrintText@ioFontManager@@QAAXMMMPBDZZ:PROC
EXTRN	__imp_?SetAlignType@ioFontManager@@QAEXW4TextAlignType@@@Z:PROC
EXTRN	__imp_?SetTextColor@ioFontManager@@QAEXK@Z:PROC
EXTRN	__imp_?SetBkColor@ioFontManager@@QAEXK@Z:PROC
EXTRN	__imp_?SetTextStyle@ioFontManager@@QAEXW4TextStyle@@@Z:PROC
EXTRN	__imp_?GetSingleton@ioFontManager@@SAAAV1@XZ:PROC
EXTRN	__imp_?GetDerivedPosY@ioWnd@@QBEHXZ:PROC
EXTRN	__imp_?GetDerivedPosX@ioWnd@@QBEHXZ:PROC
EXTRN	__imp_?OnRender@ioWnd@@MAEXXZ:PROC
;	COMDAT __real@3f266666
; File c:\program files (x86)\microsoft visual studio 10.0\vc\include\xstring
CONST	SEGMENT
__real@3f266666 DD 03f266666r			; 0.65
; Function compile flags: /Ogsp
; File d:\lost saga for developer\youtube\tutorial\source\src\lsclient\gui\iomessagebox.cpp
CONST	ENDS
;	COMDAT ?OnRender@ioMessageBox@@MAEXXZ
_TEXT	SEGMENT
_iXPos$ = -12						; size = 4
tv252 = -8						; size = 4
_iYPos$ = -8						; size = 4
tv401 = -4						; size = 4
?OnRender@ioMessageBox@@MAEXXZ PROC			; ioMessageBox::OnRender, COMDAT
; _this$ = ecx

; 236  : {

  00000	55		 push	 ebp
  00001	8b ec		 mov	 ebp, esp
  00003	83 ec 0c	 sub	 esp, 12			; 0000000cH
  00006	53		 push	 ebx
  00007	56		 push	 esi
  00008	57		 push	 edi
  00009	8b f1		 mov	 esi, ecx

; 237  : 	ioWnd::OnRender();

  0000b	ff 15 00 00 00
	00		 call	 DWORD PTR __imp_?OnRender@ioWnd@@MAEXXZ

; 238  : 
; 239  : 	int iXPos = GetDerivedPosX() + GetWidth() / 2;

  00011	8b ce		 mov	 ecx, esi
  00013	ff 15 00 00 00
	00		 call	 DWORD PTR __imp_?GetWidth@ioWnd@@QBEHXZ
  00019	99		 cdq
  0001a	2b c2		 sub	 eax, edx
  0001c	8b f8		 mov	 edi, eax
  0001e	8b ce		 mov	 ecx, esi
  00020	d1 ff		 sar	 edi, 1
  00022	ff 15 00 00 00
	00		 call	 DWORD PTR __imp_?GetDerivedPosX@ioWnd@@QBEHXZ
  00028	03 c7		 add	 eax, edi

; 240  : 	int iYPos = GetDerivedPosY() + 53;

  0002a	8b ce		 mov	 ecx, esi
  0002c	89 45 f4	 mov	 DWORD PTR _iXPos$[ebp], eax
  0002f	ff 15 00 00 00
	00		 call	 DWORD PTR __imp_?GetDerivedPosY@ioWnd@@QBEHXZ

; 241  : 
; 242  : 	g_FontMgr.SetTextStyle( TS_NORMAL );

  00035	8b 3d 00 00 00
	00		 mov	 edi, DWORD PTR __imp_?GetSingleton@ioFontManager@@SAAAV1@XZ
  0003b	83 c0 35	 add	 eax, 53			; 00000035H
  0003e	6a 00		 push	 0
  00040	89 45 f8	 mov	 DWORD PTR _iYPos$[ebp], eax
  00043	ff d7		 call	 edi
  00045	8b c8		 mov	 ecx, eax
  00047	ff 15 00 00 00
	00		 call	 DWORD PTR __imp_?SetTextStyle@ioFontManager@@QAEXW4TextStyle@@@Z

; 243  : 	g_FontMgr.SetBkColor( TCT_DEFAULT_DARKGRAY );

  0004d	bb 3a 3a 3a ff	 mov	 ebx, -12961222		; ff3a3a3aH
  00052	53		 push	 ebx
  00053	ff d7		 call	 edi
  00055	8b c8		 mov	 ecx, eax
  00057	ff 15 00 00 00
	00		 call	 DWORD PTR __imp_?SetBkColor@ioFontManager@@QAEXK@Z

; 244  : 	g_FontMgr.SetTextColor( TCT_DEFAULT_DARKGRAY );

  0005d	53		 push	 ebx
  0005e	ff d7		 call	 edi
  00060	8b c8		 mov	 ecx, eax
  00062	ff 15 00 00 00
	00		 call	 DWORD PTR __imp_?SetTextColor@ioFontManager@@QAEXK@Z

; 245  : 	g_FontMgr.SetAlignType( TAT_CENTER );

  00068	6a 01		 push	 1
  0006a	ff d7		 call	 edi
  0006c	8b c8		 mov	 ecx, eax
  0006e	ff 15 00 00 00
	00		 call	 DWORD PTR __imp_?SetAlignType@ioFontManager@@QAEXW4TextAlignType@@@Z

; 246  : 
; 247  : 	int iLineCnt = m_MessageList.size();

  00074	8b 86 74 01 00
	00		 mov	 eax, DWORD PTR [esi+372]
  0007a	2b 86 70 01 00
	00		 sub	 eax, DWORD PTR [esi+368]
  00080	6a 1c		 push	 28			; 0000001cH
  00082	99		 cdq
  00083	59		 pop	 ecx
  00084	f7 f9		 idiv	 ecx

; 248  : 	for( int i=0 ; i<iLineCnt ; i++ )

  00086	85 c0		 test	 eax, eax
  00088	7e 66		 jle	 SHORT $LN3@OnRender

; 237  : 	ioWnd::OnRender();

  0008a	8b 4d f8	 mov	 ecx, DWORD PTR _iYPos$[ebp]
  0008d	33 db		 xor	 ebx, ebx
  0008f	89 4d fc	 mov	 DWORD PTR tv401[ebp], ecx
  00092	89 45 f8	 mov	 DWORD PTR tv252[ebp], eax
$LL24@OnRender:

; 249  : 	{
; 250  : 		if( !m_MessageList[i].empty() )

  00095	8b 86 70 01 00
	00		 mov	 eax, DWORD PTR [esi+368]
  0009b	03 c3		 add	 eax, ebx
  0009d	83 78 10 00	 cmp	 DWORD PTR [eax+16], 0
  000a1	74 41		 je	 SHORT $LN4@OnRender

; 251  : 		{
; 252  : 			g_FontMgr.PrintText( iXPos, iYPos + TEXT_LINE_GAP * i, FONT_SIZE_13, m_MessageList[i].c_str() );

  000a3	83 78 14 10	 cmp	 DWORD PTR [eax+20], 16	; 00000010H
  000a7	72 02		 jb	 SHORT $LN20@OnRender
  000a9	8b 00		 mov	 eax, DWORD PTR [eax]
$LN20@OnRender:
  000ab	f3 0f 10 05 00
	00 00 00	 movss	 xmm0, DWORD PTR __real@3f266666
  000b3	50		 push	 eax
  000b4	83 ec 0c	 sub	 esp, 12			; 0000000cH
  000b7	f3 0f 11 44 24
	08		 movss	 DWORD PTR [esp+8], xmm0
  000bd	66 0f 6e 45 fc	 movd	 xmm0, DWORD PTR tv401[ebp]
  000c2	0f 5b c0	 cvtdq2ps xmm0, xmm0
  000c5	f3 0f 11 44 24
	04		 movss	 DWORD PTR [esp+4], xmm0
  000cb	66 0f 6e 45 f4	 movd	 xmm0, DWORD PTR _iXPos$[ebp]
  000d0	0f 5b c0	 cvtdq2ps xmm0, xmm0
  000d3	f3 0f 11 04 24	 movss	 DWORD PTR [esp], xmm0
  000d8	ff d7		 call	 edi
  000da	50		 push	 eax
  000db	ff 15 00 00 00
	00		 call	 DWORD PTR __imp_?PrintText@ioFontManager@@QAAXMMMPBDZZ
  000e1	83 c4 14	 add	 esp, 20			; 00000014H
$LN4@OnRender:

; 248  : 	for( int i=0 ; i<iLineCnt ; i++ )

  000e4	83 45 fc 14	 add	 DWORD PTR tv401[ebp], 20 ; 00000014H
  000e8	83 c3 1c	 add	 ebx, 28			; 0000001cH
  000eb	ff 4d f8	 dec	 DWORD PTR tv252[ebp]
  000ee	75 a5		 jne	 SHORT $LL24@OnRender
$LN3@OnRender:

; 253  : 		}
; 254  : 	}	
; 255  : 
; 256  : 	if( m_pBottomFrm )

  000f0	83 be 60 01 00
	00 00		 cmp	 DWORD PTR [esi+352], 0
  000f7	74 6a		 je	 SHORT $LN1@OnRender

; 257  : 	{
; 258  : 		m_pBottomFrm->SetSize( GetWidth(), BOTTOM_MULTIPLY_H );

  000f9	8b 86 60 01 00
	00		 mov	 eax, DWORD PTR [esi+352]
  000ff	8b 38		 mov	 edi, DWORD PTR [eax]
  00101	6a 41		 push	 65			; 00000041H
  00103	8b ce		 mov	 ecx, esi
  00105	ff 15 00 00 00
	00		 call	 DWORD PTR __imp_?GetWidth@ioWnd@@QBEHXZ
  0010b	8b 8e 60 01 00
	00		 mov	 ecx, DWORD PTR [esi+352]
  00111	50		 push	 eax
  00112	ff 57 10	 call	 DWORD PTR [edi+16]

; 259  : 		m_pBottomFrm->Render( GetDerivedPosX(), GetDerivedPosY() + ( GetHeight() - BOTTOM_MULTIPLY_H ), UI_RENDER_MULTIPLY );

  00115	8b 86 60 01 00
	00		 mov	 eax, DWORD PTR [esi+352]
  0011b	8b 38		 mov	 edi, DWORD PTR [eax]
  0011d	8b ce		 mov	 ecx, esi
  0011f	ff 15 00 00 00
	00		 call	 DWORD PTR __imp_?GetDerivedPosY@ioWnd@@QBEHXZ
  00125	8d 58 bf	 lea	 ebx, DWORD PTR [eax-65]
  00128	33 c0		 xor	 eax, eax
  0012a	50		 push	 eax
  0012b	50		 push	 eax
  0012c	50		 push	 eax
  0012d	6a 08		 push	 8
  0012f	8b ce		 mov	 ecx, esi
  00131	ff 15 00 00 00
	00		 call	 DWORD PTR __imp_?GetHeight@ioWnd@@QBEHXZ
  00137	03 c3		 add	 eax, ebx
  00139	51		 push	 ecx
  0013a	0f 57 c0	 xorps	 xmm0, xmm0
  0013d	f3 0f 2a c0	 cvtsi2ss xmm0, eax
  00141	8b ce		 mov	 ecx, esi
  00143	f3 0f 11 04 24	 movss	 DWORD PTR [esp], xmm0
  00148	ff 15 00 00 00
	00		 call	 DWORD PTR __imp_?GetDerivedPosX@ioWnd@@QBEHXZ
  0014e	51		 push	 ecx
  0014f	8b 8e 60 01 00
	00		 mov	 ecx, DWORD PTR [esi+352]
  00155	0f 57 c0	 xorps	 xmm0, xmm0
  00158	f3 0f 2a c0	 cvtsi2ss xmm0, eax
  0015c	f3 0f 11 04 24	 movss	 DWORD PTR [esp], xmm0
  00161	ff 17		 call	 DWORD PTR [edi]
$LN1@OnRender:
  00163	5f		 pop	 edi
  00164	5e		 pop	 esi
  00165	5b		 pop	 ebx

; 260  : 	}
; 261  : }

  00166	c9		 leave
  00167	c3		 ret	 0
?OnRender@ioMessageBox@@MAEXXZ ENDP			; ioMessageBox::OnRender
_TEXT	ENDS
PUBLIC	__real@4041000000000000
PUBLIC	?SetPrintMessage@ioMessageBox3@@QAEXHPAVioComplexStringPrinter@@PAVioWnd@@1@Z ; ioMessageBox3::SetPrintMessage
EXTRN	?Width@Setting@@SAHXZ:PROC			; Setting::Width
EXTRN	?Height@Setting@@SAHXZ:PROC			; Setting::Height
EXTRN	?CopyFullText@ioComplexStringPrinter@@QBEXAAV1@@Z:PROC ; ioComplexStringPrinter::CopyFullText
;	COMDAT __real@4041000000000000
; File d:\lost saga for developer\youtube\tutorial\source\src\lsclient\iocomplexstringprinter.h
CONST	SEGMENT
__real@4041000000000000 DQ 04041000000000000r	; 34
; Function compile flags: /Ogsp
; File d:\lost saga for developer\youtube\tutorial\source\src\lsclient\gui\iomessagebox.cpp
CONST	ENDS
;	COMDAT ?SetPrintMessage@ioMessageBox3@@QAEXHPAVioComplexStringPrinter@@PAVioWnd@@1@Z
_TEXT	SEGMENT
_iType$ = 8						; size = 4
_MsgPrinter$ = 12					; size = 4
_i$ = 16						; size = 4
_pPrevWnd$ = 16						; size = 4
_pReturnWnd$ = 20					; size = 4
?SetPrintMessage@ioMessageBox3@@QAEXHPAVioComplexStringPrinter@@PAVioWnd@@1@Z PROC ; ioMessageBox3::SetPrintMessage, COMDAT
; _this$ = ecx

; 306  : {

  00000	55		 push	 ebp
  00001	8b ec		 mov	 ebp, esp

; 307  : 	m_pPrevWnd = pPrevWnd;

  00003	8b 45 10	 mov	 eax, DWORD PTR _pPrevWnd$[ebp]
  00006	53		 push	 ebx
  00007	56		 push	 esi
  00008	8b f1		 mov	 esi, ecx
  0000a	89 86 68 01 00
	00		 mov	 DWORD PTR [esi+360], eax

; 308  : 	m_pReturnWnd = pReturnWnd;

  00010	8b 45 14	 mov	 eax, DWORD PTR _pReturnWnd$[ebp]
  00013	57		 push	 edi
  00014	89 86 6c 01 00
	00		 mov	 DWORD PTR [esi+364], eax

; 309  : 
; 310  : 	ClearList();

  0001a	e8 00 00 00 00	 call	 ?ClearList@ioMessageBox3@@IAEXXZ ; ioMessageBox3::ClearList
  0001f	8b 7d 0c	 mov	 edi, DWORD PTR _MsgPrinter$[ebp]

; 311  : 	int i = 0;
; 312  : 	for(i = 0;i < MAX_MSG_LIST_SIZE;i++)

  00022	83 65 10 00	 and	 DWORD PTR _i$[ebp], 0
  00026	8d 9e 80 01 00
	00		 lea	 ebx, DWORD PTR [esi+384]
  0002c	83 c7 0c	 add	 edi, 12			; 0000000cH
$LL29@SetPrintMe:

; 313  : 	{
; 314  : 		if( MsgPrinter[i].IsEmpty() )

  0002f	8b 07		 mov	 eax, DWORD PTR [edi]
  00031	3b 47 04	 cmp	 eax, DWORD PTR [edi+4]
  00034	74 18		 je	 SHORT $LN25@SetPrintMe

; 315  : 			break;
; 316  : 		
; 317  : 		MsgPrinter[i].CopyFullText( m_PrinterList[i] );

  00036	53		 push	 ebx
  00037	8d 4f f4	 lea	 ecx, DWORD PTR [edi-12]
  0003a	e8 00 00 00 00	 call	 ?CopyFullText@ioComplexStringPrinter@@QBEXAAV1@@Z ; ioComplexStringPrinter::CopyFullText
  0003f	ff 45 10	 inc	 DWORD PTR _i$[ebp]
  00042	83 c3 20	 add	 ebx, 32			; 00000020H
  00045	83 c7 20	 add	 edi, 32			; 00000020H
  00048	83 7d 10 0c	 cmp	 DWORD PTR _i$[ebp], 12	; 0000000cH
  0004c	7c e1		 jl	 SHORT $LL29@SetPrintMe
$LN25@SetPrintMe:

; 318  : 	}	
; 319  : 
; 320  : 	int iMinWidth  = MIN_WIDTH;

  0004e	bf fa 00 00 00	 mov	 edi, 250		; 000000faH

; 321  : 	int iMinHeight = MIN_HEIGHT;
; 322  : 	int iMaxLine   = 0;

  00053	33 c0		 xor	 eax, eax
  00055	8d 8e 8c 01 00
	00		 lea	 ecx, DWORD PTR [esi+396]
$LL6@SetPrintMe:

; 323  : 	for(i = 0;i < MAX_MSG_LIST_SIZE;i++)
; 324  : 	{
; 325  : 		if( m_PrinterList[i].IsEmpty() )

  0005b	8b 11		 mov	 edx, DWORD PTR [ecx]
  0005d	3b 51 04	 cmp	 edx, DWORD PTR [ecx+4]
  00060	74 22		 je	 SHORT $LN26@SetPrintMe

; 326  : 			break;
; 327  : 		
; 328  : 		int iCurLineWidth = m_PrinterList[i].GetFullWidth() + SIDE_TEXT_GAP;

  00062	f3 0f 10 41 10	 movss	 xmm0, DWORD PTR [ecx+16]
  00067	0f 5a c0	 cvtps2pd xmm0, xmm0
  0006a	f2 0f 58 05 00
	00 00 00	 addsd	 xmm0, QWORD PTR __real@4041000000000000
  00072	f2 0f 2c d0	 cvttsd2si edx, xmm0

; 329  : 		if( iMinWidth < iCurLineWidth )

  00076	3b fa		 cmp	 edi, edx

; 330  : 			iMinWidth = iCurLineWidth;

  00078	0f 4c fa	 cmovl	 edi, edx

; 331  : 		iMaxLine++;

  0007b	40		 inc	 eax
  0007c	83 c1 20	 add	 ecx, 32			; 00000020H
  0007f	83 f8 0c	 cmp	 eax, 12			; 0000000cH
  00082	7c d7		 jl	 SHORT $LL6@SetPrintMe
$LN26@SetPrintMe:

; 332  : 	}
; 333  : 	iMinHeight += ( TEXT_LINE_GAP * (iMaxLine - 1) );
; 334  : 
; 335  : 	SetSize( iMinWidth, iMinHeight );

  00084	8b 16		 mov	 edx, DWORD PTR [esi]
  00086	6b c0 14	 imul	 eax, 20			; 00000014H
  00089	83 c0 7f	 add	 eax, 127		; 0000007fH
  0008c	50		 push	 eax
  0008d	57		 push	 edi
  0008e	8b ce		 mov	 ecx, esi
  00090	ff 52 2c	 call	 DWORD PTR [edx+44]

; 336  : 	SetWndPos( (Setting::Width() - GetWidth() ) / 2, ( (Setting::Height() - GetHeight() ) / 2 ) - 20 );

  00093	8b ce		 mov	 ecx, esi
  00095	ff 15 00 00 00
	00		 call	 DWORD PTR __imp_?GetHeight@ioWnd@@QBEHXZ
  0009b	8b f8		 mov	 edi, eax
  0009d	e8 00 00 00 00	 call	 ?Height@Setting@@SAHXZ	; Setting::Height
  000a2	2b c7		 sub	 eax, edi
  000a4	99		 cdq
  000a5	2b c2		 sub	 eax, edx
  000a7	d1 f8		 sar	 eax, 1
  000a9	83 e8 14	 sub	 eax, 20			; 00000014H
  000ac	50		 push	 eax
  000ad	8b ce		 mov	 ecx, esi
  000af	ff 15 00 00 00
	00		 call	 DWORD PTR __imp_?GetWidth@ioWnd@@QBEHXZ
  000b5	8b f8		 mov	 edi, eax
  000b7	e8 00 00 00 00	 call	 ?Width@Setting@@SAHXZ	; Setting::Width
  000bc	2b c7		 sub	 eax, edi
  000be	99		 cdq
  000bf	2b c2		 sub	 eax, edx
  000c1	d1 f8		 sar	 eax, 1
  000c3	50		 push	 eax
  000c4	8b ce		 mov	 ecx, esi
  000c6	ff 15 00 00 00
	00		 call	 DWORD PTR __imp_?SetWndPos@ioWnd@@QAEXHH@Z

; 337  : 
; 338  : 	m_iBoxType = iType;

  000cc	8b 45 08	 mov	 eax, DWORD PTR _iType$[ebp]

; 339  : 	ReBatchButton( iType );

  000cf	8b 16		 mov	 edx, DWORD PTR [esi]
  000d1	50		 push	 eax
  000d2	8b ce		 mov	 ecx, esi
  000d4	89 86 64 01 00
	00		 mov	 DWORD PTR [esi+356], eax
  000da	ff 92 30 01 00
	00		 call	 DWORD PTR [edx+304]

; 340  : 
; 341  : 	if( !IsShow() )

  000e0	8b ce		 mov	 ecx, esi
  000e2	ff 15 00 00 00
	00		 call	 DWORD PTR __imp_?IsShow@ioWnd@@QBE_NXZ
  000e8	84 c0		 test	 al, al
  000ea	75 08		 jne	 SHORT $LN1@SetPrintMe

; 342  : 		ShowWnd();

  000ec	8b ce		 mov	 ecx, esi
  000ee	ff 15 00 00 00
	00		 call	 DWORD PTR __imp_?ShowWnd@ioWnd@@QAEXXZ
$LN1@SetPrintMe:
  000f4	5f		 pop	 edi
  000f5	5e		 pop	 esi
  000f6	5b		 pop	 ebx

; 343  : }

  000f7	5d		 pop	 ebp
  000f8	c2 10 00	 ret	 16			; 00000010H
?SetPrintMessage@ioMessageBox3@@QAEXHPAVioComplexStringPrinter@@PAVioWnd@@1@Z ENDP ; ioMessageBox3::SetPrintMessage
_TEXT	ENDS
PUBLIC	?OnRender@ioMessageBox3@@MAEXXZ			; ioMessageBox3::OnRender
EXTRN	?PrintFullText@ioComplexStringPrinter@@QAEXMMW4TextAlignType@@E@Z:PROC ; ioComplexStringPrinter::PrintFullText
; Function compile flags: /Ogsp
;	COMDAT ?OnRender@ioMessageBox3@@MAEXXZ
_TEXT	SEGMENT
_iXPos$ = -12						; size = 4
_i$507416 = -8						; size = 4
tv349 = -4						; size = 4
?OnRender@ioMessageBox3@@MAEXXZ PROC			; ioMessageBox3::OnRender, COMDAT
; _this$ = ecx

; 346  : {

  00000	55		 push	 ebp
  00001	8b ec		 mov	 ebp, esp
  00003	83 ec 0c	 sub	 esp, 12			; 0000000cH
  00006	53		 push	 ebx
  00007	56		 push	 esi
  00008	57		 push	 edi
  00009	8b f1		 mov	 esi, ecx

; 347  : 	ioWnd::OnRender();

  0000b	ff 15 00 00 00
	00		 call	 DWORD PTR __imp_?OnRender@ioWnd@@MAEXXZ

; 348  : 
; 349  : 	int iXPos = 0; 
; 350  : 	
; 351  : 	if( m_AlignType == TAT_CENTER )

  00011	83 be 00 03 00
	00 01		 cmp	 DWORD PTR [esi+768], 1

; 352  : 		iXPos = GetDerivedPosX() + GetWidth() / 2;

  00018	8b ce		 mov	 ecx, esi
  0001a	75 19		 jne	 SHORT $LN7@OnRender@2
  0001c	ff 15 00 00 00
	00		 call	 DWORD PTR __imp_?GetWidth@ioWnd@@QBEHXZ
  00022	99		 cdq
  00023	2b c2		 sub	 eax, edx
  00025	8b f8		 mov	 edi, eax
  00027	8b ce		 mov	 ecx, esi
  00029	d1 ff		 sar	 edi, 1
  0002b	ff 15 00 00 00
	00		 call	 DWORD PTR __imp_?GetDerivedPosX@ioWnd@@QBEHXZ
  00031	03 c7		 add	 eax, edi

; 353  : 	else

  00033	eb 09		 jmp	 SHORT $LN18@OnRender@2
$LN7@OnRender@2:

; 354  : 		iXPos = GetDerivedPosX() + SIDE_TEXT_GAP / 2;

  00035	ff 15 00 00 00
	00		 call	 DWORD PTR __imp_?GetDerivedPosX@ioWnd@@QBEHXZ
  0003b	83 c0 11	 add	 eax, 17			; 00000011H
$LN18@OnRender@2:

; 355  : 
; 356  : 	int iYPos = GetDerivedPosY() + 53;

  0003e	8b 1d 00 00 00
	00		 mov	 ebx, DWORD PTR __imp_?GetDerivedPosY@ioWnd@@QBEHXZ
  00044	8b ce		 mov	 ecx, esi
  00046	89 45 f4	 mov	 DWORD PTR _iXPos$[ebp], eax
  00049	ff d3		 call	 ebx
  0004b	83 c0 35	 add	 eax, 53			; 00000035H

; 357  : 
; 358  : 	for( int i=0 ; i<MAX_MSG_LIST_SIZE ; i++ )

  0004e	83 65 f8 00	 and	 DWORD PTR _i$507416[ebp], 0
  00052	89 45 fc	 mov	 DWORD PTR tv349[ebp], eax
  00055	8d be 8c 01 00
	00		 lea	 edi, DWORD PTR [esi+396]
$LL17@OnRender@2:

; 359  : 	{
; 360  : 		if( m_PrinterList[i].IsEmpty() )

  0005b	8b 07		 mov	 eax, DWORD PTR [edi]
  0005d	3b 47 04	 cmp	 eax, DWORD PTR [edi+4]
  00060	74 40		 je	 SHORT $LN15@OnRender@2

; 361  : 			break;
; 362  : 
; 363  : 		m_PrinterList[i].PrintFullText( iXPos, iYPos + TEXT_LINE_GAP * i, m_AlignType );

  00062	66 0f 6e 45 fc	 movd	 xmm0, DWORD PTR tv349[ebp]
  00067	68 ff 00 00 00	 push	 255			; 000000ffH
  0006c	ff b6 00 03 00
	00		 push	 DWORD PTR [esi+768]
  00072	0f 5b c0	 cvtdq2ps xmm0, xmm0
  00075	51		 push	 ecx
  00076	51		 push	 ecx
  00077	f3 0f 11 44 24
	04		 movss	 DWORD PTR [esp+4], xmm0
  0007d	66 0f 6e 45 f4	 movd	 xmm0, DWORD PTR _iXPos$[ebp]
  00082	0f 5b c0	 cvtdq2ps xmm0, xmm0
  00085	8d 4f f4	 lea	 ecx, DWORD PTR [edi-12]
  00088	f3 0f 11 04 24	 movss	 DWORD PTR [esp], xmm0
  0008d	e8 00 00 00 00	 call	 ?PrintFullText@ioComplexStringPrinter@@QAEXMMW4TextAlignType@@E@Z ; ioComplexStringPrinter::PrintFullText
  00092	ff 45 f8	 inc	 DWORD PTR _i$507416[ebp]
  00095	83 45 fc 14	 add	 DWORD PTR tv349[ebp], 20 ; 00000014H
  00099	83 c7 20	 add	 edi, 32			; 00000020H
  0009c	83 7d f8 0c	 cmp	 DWORD PTR _i$507416[ebp], 12 ; 0000000cH
  000a0	7c b9		 jl	 SHORT $LL17@OnRender@2
$LN15@OnRender@2:

; 364  : 	}
; 365  : 
; 366  : 	if( m_pBottomFrm )

  000a2	83 be 60 01 00
	00 00		 cmp	 DWORD PTR [esi+352], 0
  000a9	74 66		 je	 SHORT $LN1@OnRender@2

; 367  : 	{
; 368  : 		m_pBottomFrm->SetSize( GetWidth(), BOTTOM_MULTIPLY_H );

  000ab	8b 86 60 01 00
	00		 mov	 eax, DWORD PTR [esi+352]
  000b1	8b 38		 mov	 edi, DWORD PTR [eax]
  000b3	6a 41		 push	 65			; 00000041H
  000b5	8b ce		 mov	 ecx, esi
  000b7	ff 15 00 00 00
	00		 call	 DWORD PTR __imp_?GetWidth@ioWnd@@QBEHXZ
  000bd	8b 8e 60 01 00
	00		 mov	 ecx, DWORD PTR [esi+352]
  000c3	50		 push	 eax
  000c4	ff 57 10	 call	 DWORD PTR [edi+16]

; 369  : 		m_pBottomFrm->Render( GetDerivedPosX(), GetDerivedPosY() + ( GetHeight() - BOTTOM_MULTIPLY_H ), UI_RENDER_MULTIPLY );

  000c7	8b 86 60 01 00
	00		 mov	 eax, DWORD PTR [esi+352]
  000cd	8b 38		 mov	 edi, DWORD PTR [eax]
  000cf	8b ce		 mov	 ecx, esi
  000d1	ff d3		 call	 ebx
  000d3	8d 58 bf	 lea	 ebx, DWORD PTR [eax-65]
  000d6	33 c0		 xor	 eax, eax
  000d8	50		 push	 eax
  000d9	50		 push	 eax
  000da	50		 push	 eax
  000db	6a 08		 push	 8
  000dd	8b ce		 mov	 ecx, esi
  000df	ff 15 00 00 00
	00		 call	 DWORD PTR __imp_?GetHeight@ioWnd@@QBEHXZ
  000e5	03 c3		 add	 eax, ebx
  000e7	51		 push	 ecx
  000e8	0f 57 c0	 xorps	 xmm0, xmm0
  000eb	f3 0f 2a c0	 cvtsi2ss xmm0, eax
  000ef	8b ce		 mov	 ecx, esi
  000f1	f3 0f 11 04 24	 movss	 DWORD PTR [esp], xmm0
  000f6	ff 15 00 00 00
	00		 call	 DWORD PTR __imp_?GetDerivedPosX@ioWnd@@QBEHXZ
  000fc	51		 push	 ecx
  000fd	8b 8e 60 01 00
	00		 mov	 ecx, DWORD PTR [esi+352]
  00103	0f 57 c0	 xorps	 xmm0, xmm0
  00106	f3 0f 2a c0	 cvtsi2ss xmm0, eax
  0010a	f3 0f 11 04 24	 movss	 DWORD PTR [esp], xmm0
  0010f	ff 17		 call	 DWORD PTR [edi]
$LN1@OnRender@2:
  00111	5f		 pop	 edi
  00112	5e		 pop	 esi
  00113	5b		 pop	 ebx

; 370  : 	}
; 371  : }

  00114	c9		 leave
  00115	c3		 ret	 0
?OnRender@ioMessageBox3@@MAEXXZ ENDP			; ioMessageBox3::OnRender
_TEXT	ENDS
PUBLIC	??0?$vector@V?$basic_string@DU?$char_traits@D@std@@V?$allocator@D@2@@std@@V?$allocator@V?$basic_string@DU?$char_traits@D@std@@V?$allocator@D@2@@std@@@2@@std@@QAE@XZ ; std::vector<std::basic_string<char,std::char_traits<char>,std::allocator<char> >,std::allocator<std::basic_string<char,std::char_traits<char>,std::allocator<char> > > >::vector<std::basic_string<char,std::char_traits<char>,std::allocator<char> >,std::allocator<std::basic_string<char,std::char_traits<char>,std::allocator<char> > > >
; Function compile flags: /Ogsp
; File c:\program files (x86)\microsoft visual studio 10.0\vc\include\vector
;	COMDAT ??0?$vector@V?$basic_string@DU?$char_traits@D@std@@V?$allocator@D@2@@std@@V?$allocator@V?$basic_string@DU?$char_traits@D@std@@V?$allocator@D@2@@std@@@2@@std@@QAE@XZ
_TEXT	SEGMENT
??0?$vector@V?$basic_string@DU?$char_traits@D@std@@V?$allocator@D@2@@std@@V?$allocator@V?$basic_string@DU?$char_traits@D@std@@V?$allocator@D@2@@std@@@2@@std@@QAE@XZ PROC ; std::vector<std::basic_string<char,std::char_traits<char>,std::allocator<char> >,std::allocator<std::basic_string<char,std::char_traits<char>,std::allocator<char> > > >::vector<std::basic_string<char,std::char_traits<char>,std::allocator<char> >,std::allocator<std::basic_string<char,std::char_traits<char>,std::allocator<char> > > >, COMDAT
; _this$ = ecx

; 507  : 		{	// construct empty vector

  00000	8b c1		 mov	 eax, ecx
  00002	33 c9		 xor	 ecx, ecx
  00004	89 08		 mov	 DWORD PTR [eax], ecx
  00006	89 48 04	 mov	 DWORD PTR [eax+4], ecx
  00009	89 48 08	 mov	 DWORD PTR [eax+8], ecx

; 508  : 		}

  0000c	c3		 ret	 0
??0?$vector@V?$basic_string@DU?$char_traits@D@std@@V?$allocator@D@2@@std@@V?$allocator@V?$basic_string@DU?$char_traits@D@std@@V?$allocator@D@2@@std@@@2@@std@@QAE@XZ ENDP ; std::vector<std::basic_string<char,std::char_traits<char>,std::allocator<char> >,std::allocator<std::basic_string<char,std::char_traits<char>,std::allocator<char> > > >::vector<std::basic_string<char,std::char_traits<char>,std::allocator<char> >,std::allocator<std::basic_string<char,std::char_traits<char>,std::allocator<char> > > >
_TEXT	ENDS
PUBLIC	??C?$_Vector_iterator@V?$_Vector_val@V?$basic_string@DU?$char_traits@D@std@@V?$allocator@D@2@@std@@V?$allocator@V?$basic_string@DU?$char_traits@D@std@@V?$allocator@D@2@@std@@@2@@std@@@std@@QBEPAV?$basic_string@DU?$char_traits@D@std@@V?$allocator@D@2@@1@XZ ; std::_Vector_iterator<std::_Vector_val<std::basic_string<char,std::char_traits<char>,std::allocator<char> >,std::allocator<std::basic_string<char,std::char_traits<char>,std::allocator<char> > > > >::operator->
; Function compile flags: /Ogsp
;	COMDAT ??C?$_Vector_iterator@V?$_Vector_val@V?$basic_string@DU?$char_traits@D@std@@V?$allocator@D@2@@std@@V?$allocator@V?$basic_string@DU?$char_traits@D@std@@V?$allocator@D@2@@std@@@2@@std@@@std@@QBEPAV?$basic_string@DU?$char_traits@D@std@@V?$allocator@D@2@@1@XZ
_TEXT	SEGMENT
??C?$_Vector_iterator@V?$_Vector_val@V?$basic_string@DU?$char_traits@D@std@@V?$allocator@D@2@@std@@V?$allocator@V?$basic_string@DU?$char_traits@D@std@@V?$allocator@D@2@@std@@@2@@std@@@std@@QBEPAV?$basic_string@DU?$char_traits@D@std@@V?$allocator@D@2@@1@XZ PROC ; std::_Vector_iterator<std::_Vector_val<std::basic_string<char,std::char_traits<char>,std::allocator<char> >,std::allocator<std::basic_string<char,std::char_traits<char>,std::allocator<char> > > > >::operator->, COMDAT
; _this$ = ecx

; 327  : 		return (&**this);

  00000	8b 01		 mov	 eax, DWORD PTR [ecx]

; 328  : 		}

  00002	c3		 ret	 0
??C?$_Vector_iterator@V?$_Vector_val@V?$basic_string@DU?$char_traits@D@std@@V?$allocator@D@2@@std@@V?$allocator@V?$basic_string@DU?$char_traits@D@std@@V?$allocator@D@2@@std@@@2@@std@@@std@@QBEPAV?$basic_string@DU?$char_traits@D@std@@V?$allocator@D@2@@1@XZ ENDP ; std::_Vector_iterator<std::_Vector_val<std::basic_string<char,std::char_traits<char>,std::allocator<char> >,std::allocator<std::basic_string<char,std::char_traits<char>,std::allocator<char> > > > >::operator->
_TEXT	ENDS
PUBLIC	??9?$_Vector_const_iterator@V?$_Vector_val@V?$basic_string@DU?$char_traits@D@std@@V?$allocator@D@2@@std@@V?$allocator@V?$basic_string@DU?$char_traits@D@std@@V?$allocator@D@2@@std@@@2@@std@@@std@@QBE_NABV01@@Z ; std::_Vector_const_iterator<std::_Vector_val<std::basic_string<char,std::char_traits<char>,std::allocator<char> >,std::allocator<std::basic_string<char,std::char_traits<char>,std::allocator<char> > > > >::operator!=
; Function compile flags: /Ogsp
;	COMDAT ??9?$_Vector_const_iterator@V?$_Vector_val@V?$basic_string@DU?$char_traits@D@std@@V?$allocator@D@2@@std@@V?$allocator@V?$basic_string@DU?$char_traits@D@std@@V?$allocator@D@2@@std@@@2@@std@@@std@@QBE_NABV01@@Z
_TEXT	SEGMENT
__Right$ = 8						; size = 4
??9?$_Vector_const_iterator@V?$_Vector_val@V?$basic_string@DU?$char_traits@D@std@@V?$allocator@D@2@@std@@V?$allocator@V?$basic_string@DU?$char_traits@D@std@@V?$allocator@D@2@@std@@@2@@std@@@std@@QBE_NABV01@@Z PROC ; std::_Vector_const_iterator<std::_Vector_val<std::basic_string<char,std::char_traits<char>,std::allocator<char> >,std::allocator<std::basic_string<char,std::char_traits<char>,std::allocator<char> > > > >::operator!=, COMDAT
; _this$ = ecx

; 207  : 		{	// test for iterator inequality

  00000	55		 push	 ebp
  00001	8b ec		 mov	 ebp, esp

; 208  : 		return (!(*this == _Right));

  00003	8b 01		 mov	 eax, DWORD PTR [ecx]
  00005	8b 55 08	 mov	 edx, DWORD PTR __Right$[ebp]
  00008	33 c9		 xor	 ecx, ecx
  0000a	3b 02		 cmp	 eax, DWORD PTR [edx]
  0000c	0f 95 c0	 setne	 al

; 209  : 		}

  0000f	5d		 pop	 ebp
  00010	c2 04 00	 ret	 4
??9?$_Vector_const_iterator@V?$_Vector_val@V?$basic_string@DU?$char_traits@D@std@@V?$allocator@D@2@@std@@V?$allocator@V?$basic_string@DU?$char_traits@D@std@@V?$allocator@D@2@@std@@@2@@std@@@std@@QBE_NABV01@@Z ENDP ; std::_Vector_const_iterator<std::_Vector_val<std::basic_string<char,std::char_traits<char>,std::allocator<char> >,std::allocator<std::basic_string<char,std::char_traits<char>,std::allocator<char> > > > >::operator!=
_TEXT	ENDS
PUBLIC	?_Buy@?$vector@V?$basic_string@DU?$char_traits@D@std@@V?$allocator@D@2@@std@@V?$allocator@V?$basic_string@DU?$char_traits@D@std@@V?$allocator@D@2@@std@@@2@@std@@IAE_NI@Z ; std::vector<std::basic_string<char,std::char_traits<char>,std::allocator<char> >,std::allocator<std::basic_string<char,std::char_traits<char>,std::allocator<char> > > >::_Buy
; Function compile flags: /Ogsp
;	COMDAT ?_Buy@?$vector@V?$basic_string@DU?$char_traits@D@std@@V?$allocator@D@2@@std@@V?$allocator@V?$basic_string@DU?$char_traits@D@std@@V?$allocator@D@2@@std@@@2@@std@@IAE_NI@Z
_TEXT	SEGMENT
__Capacity$ = 8						; size = 4
?_Buy@?$vector@V?$basic_string@DU?$char_traits@D@std@@V?$allocator@D@2@@std@@V?$allocator@V?$basic_string@DU?$char_traits@D@std@@V?$allocator@D@2@@std@@@2@@std@@IAE_NI@Z PROC ; std::vector<std::basic_string<char,std::char_traits<char>,std::allocator<char> >,std::allocator<std::basic_string<char,std::char_traits<char>,std::allocator<char> > > >::_Buy, COMDAT
; _this$ = ecx

; 1250 : 		{	// allocate array with _Capacity elements

  00000	55		 push	 ebp
  00001	8b ec		 mov	 ebp, esp
  00003	56		 push	 esi

; 1251 : 		this->_Myfirst = 0;

  00004	33 c0		 xor	 eax, eax
  00006	57		 push	 edi

; 1252 : 		this->_Mylast = 0;
; 1253 : 		this->_Myend = 0;
; 1254 : 
; 1255 : 		if (_Capacity == 0)

  00007	8b 7d 08	 mov	 edi, DWORD PTR __Capacity$[ebp]
  0000a	8b f1		 mov	 esi, ecx
  0000c	89 06		 mov	 DWORD PTR [esi], eax
  0000e	89 46 04	 mov	 DWORD PTR [esi+4], eax
  00011	89 46 08	 mov	 DWORD PTR [esi+8], eax
  00014	3b f8		 cmp	 edi, eax
  00016	75 04		 jne	 SHORT $LN4@Buy

; 1256 : 			return (false);

  00018	32 c0		 xor	 al, al
  0001a	eb 2b		 jmp	 SHORT $LN5@Buy
$LN4@Buy:

; 1257 : 		else if (max_size() < _Capacity)

  0001c	81 ff 49 92 24
	09		 cmp	 edi, 153391689		; 09249249H
  00022	76 0b		 jbe	 SHORT $LN2@Buy

; 1258 : 			_Xlen();	// result too long

  00024	68 00 00 00 00	 push	 OFFSET ??_C@_0BD@OLBABOEK@vector?$DMT?$DO?5too?5long?$AA@
  00029	ff 15 00 00 00
	00		 call	 DWORD PTR __imp_?_Xlength_error@std@@YAXPBD@Z
$LN19@Buy:
$LN2@Buy:

; 1259 : 		else
; 1260 : 			{	// nonempty array, allocate storage
; 1261 : 			this->_Myfirst = this->_Alval.allocate(_Capacity);

  0002f	50		 push	 eax
  00030	57		 push	 edi
  00031	e8 00 00 00 00	 call	 ??$_Allocate@V?$basic_string@DU?$char_traits@D@std@@V?$allocator@D@2@@std@@@std@@YAPAV?$basic_string@DU?$char_traits@D@std@@V?$allocator@D@2@@0@IPAV10@@Z ; std::_Allocate<std::basic_string<char,std::char_traits<char>,std::allocator<char> > >

; 1262 : 			this->_Mylast = this->_Myfirst;
; 1263 : 			this->_Myend = this->_Myfirst + _Capacity;

  00036	6b ff 1c	 imul	 edi, 28			; 0000001cH
  00039	03 f8		 add	 edi, eax
  0003b	59		 pop	 ecx
  0003c	89 06		 mov	 DWORD PTR [esi], eax
  0003e	89 46 04	 mov	 DWORD PTR [esi+4], eax
  00041	59		 pop	 ecx
  00042	89 7e 08	 mov	 DWORD PTR [esi+8], edi

; 1264 : 			}
; 1265 : 		return (true);

  00045	b0 01		 mov	 al, 1
$LN5@Buy:
  00047	5f		 pop	 edi
  00048	5e		 pop	 esi

; 1266 : 		}

  00049	5d		 pop	 ebp
  0004a	c2 04 00	 ret	 4
$LN18@Buy:
?_Buy@?$vector@V?$basic_string@DU?$char_traits@D@std@@V?$allocator@D@2@@std@@V?$allocator@V?$basic_string@DU?$char_traits@D@std@@V?$allocator@D@2@@std@@@2@@std@@IAE_NI@Z ENDP ; std::vector<std::basic_string<char,std::char_traits<char>,std::allocator<char> >,std::allocator<std::basic_string<char,std::char_traits<char>,std::allocator<char> > > >::_Buy
_TEXT	ENDS
PUBLIC	??0?$_Vector_iterator@V?$_Vector_val@V?$basic_string@DU?$char_traits@D@std@@V?$allocator@D@2@@std@@V?$allocator@V?$basic_string@DU?$char_traits@D@std@@V?$allocator@D@2@@std@@@2@@std@@@std@@QAE@PAV?$basic_string@DU?$char_traits@D@std@@V?$allocator@D@2@@1@PBU_Container_base0@1@@Z ; std::_Vector_iterator<std::_Vector_val<std::basic_string<char,std::char_traits<char>,std::allocator<char> >,std::allocator<std::basic_string<char,std::char_traits<char>,std::allocator<char> > > > >::_Vector_iterator<std::_Vector_val<std::basic_string<char,std::char_traits<char>,std::allocator<char> >,std::allocator<std::basic_string<char,std::char_traits<char>,std::allocator<char> > > > >
; Function compile flags: /Ogsp
;	COMDAT ??0?$_Vector_iterator@V?$_Vector_val@V?$basic_string@DU?$char_traits@D@std@@V?$allocator@D@2@@std@@V?$allocator@V?$basic_string@DU?$char_traits@D@std@@V?$allocator@D@2@@std@@@2@@std@@@std@@QAE@PAV?$basic_string@DU?$char_traits@D@std@@V?$allocator@D@2@@1@PBU_Container_base0@1@@Z
_TEXT	SEGMENT
__Parg$ = 8						; size = 4
__Pvector$ = 12						; size = 4
??0?$_Vector_iterator@V?$_Vector_val@V?$basic_string@DU?$char_traits@D@std@@V?$allocator@D@2@@std@@V?$allocator@V?$basic_string@DU?$char_traits@D@std@@V?$allocator@D@2@@std@@@2@@std@@@std@@QAE@PAV?$basic_string@DU?$char_traits@D@std@@V?$allocator@D@2@@1@PBU_Container_base0@1@@Z PROC ; std::_Vector_iterator<std::_Vector_val<std::basic_string<char,std::char_traits<char>,std::allocator<char> >,std::allocator<std::basic_string<char,std::char_traits<char>,std::allocator<char> > > > >::_Vector_iterator<std::_Vector_val<std::basic_string<char,std::char_traits<char>,std::allocator<char> >,std::allocator<std::basic_string<char,std::char_traits<char>,std::allocator<char> > > > >, COMDAT
; _this$ = ecx

; 304  : 		{	// construct with pointer _Parg

  00000	55		 push	 ebp
  00001	8b ec		 mov	 ebp, esp
  00003	8b c1		 mov	 eax, ecx
  00005	8b 4d 08	 mov	 ecx, DWORD PTR __Parg$[ebp]
  00008	89 08		 mov	 DWORD PTR [eax], ecx

; 305  : 		}

  0000a	5d		 pop	 ebp
  0000b	c2 08 00	 ret	 8
??0?$_Vector_iterator@V?$_Vector_val@V?$basic_string@DU?$char_traits@D@std@@V?$allocator@D@2@@std@@V?$allocator@V?$basic_string@DU?$char_traits@D@std@@V?$allocator@D@2@@std@@@2@@std@@@std@@QAE@PAV?$basic_string@DU?$char_traits@D@std@@V?$allocator@D@2@@1@PBU_Container_base0@1@@Z ENDP ; std::_Vector_iterator<std::_Vector_val<std::basic_string<char,std::char_traits<char>,std::allocator<char> >,std::allocator<std::basic_string<char,std::char_traits<char>,std::allocator<char> > > > >::_Vector_iterator<std::_Vector_val<std::basic_string<char,std::char_traits<char>,std::allocator<char> >,std::allocator<std::basic_string<char,std::char_traits<char>,std::allocator<char> > > > >
_TEXT	ENDS
PUBLIC	?_Make_iter@?$vector@V?$basic_string@DU?$char_traits@D@std@@V?$allocator@D@2@@std@@V?$allocator@V?$basic_string@DU?$char_traits@D@std@@V?$allocator@D@2@@std@@@2@@std@@QBE?AV?$_Vector_iterator@V?$_Vector_val@V?$basic_string@DU?$char_traits@D@std@@V?$allocator@D@2@@std@@V?$allocator@V?$basic_string@DU?$char_traits@D@std@@V?$allocator@D@2@@std@@@2@@std@@@2@V?$_Vector_const_iterator@V?$_Vector_val@V?$basic_string@DU?$char_traits@D@std@@V?$allocator@D@2@@std@@V?$allocator@V?$basic_string@DU?$char_traits@D@std@@V?$allocator@D@2@@std@@@2@@std@@@2@@Z ; std::vector<std::basic_string<char,std::char_traits<char>,std::allocator<char> >,std::allocator<std::basic_string<char,std::char_traits<char>,std::allocator<char> > > >::_Make_iter
; Function compile flags: /Ogsp
;	COMDAT ?_Make_iter@?$vector@V?$basic_string@DU?$char_traits@D@std@@V?$allocator@D@2@@std@@V?$allocator@V?$basic_string@DU?$char_traits@D@std@@V?$allocator@D@2@@std@@@2@@std@@QBE?AV?$_Vector_iterator@V?$_Vector_val@V?$basic_string@DU?$char_traits@D@std@@V?$allocator@D@2@@std@@V?$allocator@V?$basic_string@DU?$char_traits@D@std@@V?$allocator@D@2@@std@@@2@@std@@@2@V?$_Vector_const_iterator@V?$_Vector_val@V?$basic_string@DU?$char_traits@D@std@@V?$allocator@D@2@@std@@V?$allocator@V?$basic_string@DU?$char_traits@D@std@@V?$allocator@D@2@@std@@@2@@std@@@2@@Z
_TEXT	SEGMENT
___$ReturnUdt$ = 8					; size = 4
__Where$ = 12						; size = 4
?_Make_iter@?$vector@V?$basic_string@DU?$char_traits@D@std@@V?$allocator@D@2@@std@@V?$allocator@V?$basic_string@DU?$char_traits@D@std@@V?$allocator@D@2@@std@@@2@@std@@QBE?AV?$_Vector_iterator@V?$_Vector_val@V?$basic_string@DU?$char_traits@D@std@@V?$allocator@D@2@@std@@V?$allocator@V?$basic_string@DU?$char_traits@D@std@@V?$allocator@D@2@@std@@@2@@std@@@2@V?$_Vector_const_iterator@V?$_Vector_val@V?$basic_string@DU?$char_traits@D@std@@V?$allocator@D@2@@std@@V?$allocator@V?$basic_string@DU?$char_traits@D@std@@V?$allocator@D@2@@std@@@2@@std@@@2@@Z PROC ; std::vector<std::basic_string<char,std::char_traits<char>,std::allocator<char> >,std::allocator<std::basic_string<char,std::char_traits<char>,std::allocator<char> > > >::_Make_iter, COMDAT
; _this$ = ecx

; 801  : 		{	// make iterator from const_iterator

  00000	55		 push	 ebp
  00001	8b ec		 mov	 ebp, esp

; 802  : 		return (iterator(_Where._Ptr, this));

  00003	8b 45 08	 mov	 eax, DWORD PTR ___$ReturnUdt$[ebp]
  00006	8b 4d 0c	 mov	 ecx, DWORD PTR __Where$[ebp]
  00009	89 08		 mov	 DWORD PTR [eax], ecx

; 803  : 		}

  0000b	5d		 pop	 ebp
  0000c	c2 08 00	 ret	 8
?_Make_iter@?$vector@V?$basic_string@DU?$char_traits@D@std@@V?$allocator@D@2@@std@@V?$allocator@V?$basic_string@DU?$char_traits@D@std@@V?$allocator@D@2@@std@@@2@@std@@QBE?AV?$_Vector_iterator@V?$_Vector_val@V?$basic_string@DU?$char_traits@D@std@@V?$allocator@D@2@@std@@V?$allocator@V?$basic_string@DU?$char_traits@D@std@@V?$allocator@D@2@@std@@@2@@std@@@2@V?$_Vector_const_iterator@V?$_Vector_val@V?$basic_string@DU?$char_traits@D@std@@V?$allocator@D@2@@std@@V?$allocator@V?$basic_string@DU?$char_traits@D@std@@V?$allocator@D@2@@std@@@2@@std@@@2@@Z ENDP ; std::vector<std::basic_string<char,std::char_traits<char>,std::allocator<char> >,std::allocator<std::basic_string<char,std::char_traits<char>,std::allocator<char> > > >::_Make_iter
_TEXT	ENDS
PUBLIC	?_Tidy@?$basic_string@DU?$char_traits@D@std@@V?$allocator@D@2@@std@@QAEX_NI@Z ; std::basic_string<char,std::char_traits<char>,std::allocator<char> >::_Tidy
; Function compile flags: /Ogsp
; File c:\program files (x86)\microsoft visual studio 10.0\vc\include\xstring
;	COMDAT ?_Tidy@?$basic_string@DU?$char_traits@D@std@@V?$allocator@D@2@@std@@QAEX_NI@Z
_TEXT	SEGMENT
__Built$ = 8						; size = 1
__Newsize$ = 12						; size = 4
?_Tidy@?$basic_string@DU?$char_traits@D@std@@V?$allocator@D@2@@std@@QAEX_NI@Z PROC ; std::basic_string<char,std::char_traits<char>,std::allocator<char> >::_Tidy, COMDAT
; _this$ = ecx

; 1988 : 		{	// initialize buffer, deallocating any storage

  00000	55		 push	 ebp
  00001	8b ec		 mov	 ebp, esp

; 1989 : 		if (!_Built)

  00003	80 7d 08 00	 cmp	 BYTE PTR __Built$[ebp], 0
  00007	56		 push	 esi
  00008	57		 push	 edi
  00009	8b 7d 0c	 mov	 edi, DWORD PTR __Newsize$[ebp]
  0000c	8b f1		 mov	 esi, ecx
  0000e	74 20		 je	 SHORT $LN9@Tidy

; 1990 : 			;
; 1991 : 		else if (this->_BUF_SIZE <= this->_Myres)

  00010	83 7e 14 10	 cmp	 DWORD PTR [esi+20], 16	; 00000010H
  00014	72 1a		 jb	 SHORT $LN9@Tidy

; 1992 : 			{	// copy any leftovers to small buffer and deallocate
; 1993 : 			_Elem *_Ptr = this->_Bx._Ptr;

  00016	53		 push	 ebx
  00017	8b 1e		 mov	 ebx, DWORD PTR [esi]

; 1994 : 			if (0 < _Newsize)

  00019	85 ff		 test	 edi, edi
  0001b	74 0b		 je	 SHORT $LN7@Tidy

; 1995 : 				_Traits::copy(this->_Bx._Buf, _Ptr, _Newsize);

  0001d	57		 push	 edi
  0001e	53		 push	 ebx
  0001f	56		 push	 esi
  00020	e8 00 00 00 00	 call	 _memcpy
  00025	83 c4 0c	 add	 esp, 12			; 0000000cH
$LN7@Tidy:

; 1996 : 			this->_Alval.deallocate(_Ptr, this->_Myres + 1);

  00028	53		 push	 ebx
  00029	e8 00 00 00 00	 call	 ??3@YAXPAX@Z		; operator delete
  0002e	59		 pop	 ecx
  0002f	5b		 pop	 ebx
$LN9@Tidy:

; 1997 : 			}
; 1998 : 		this->_Myres = this->_BUF_SIZE - 1;
; 1999 : 		_Eos(_Newsize);

  00030	89 7e 10	 mov	 DWORD PTR [esi+16], edi
  00033	c7 46 14 0f 00
	00 00		 mov	 DWORD PTR [esi+20], 15	; 0000000fH
  0003a	c6 04 37 00	 mov	 BYTE PTR [edi+esi], 0
  0003e	5f		 pop	 edi
  0003f	5e		 pop	 esi

; 2000 : 		}

  00040	5d		 pop	 ebp
  00041	c2 08 00	 ret	 8
?_Tidy@?$basic_string@DU?$char_traits@D@std@@V?$allocator@D@2@@std@@QAEX_NI@Z ENDP ; std::basic_string<char,std::char_traits<char>,std::allocator<char> >::_Tidy
_TEXT	ENDS
PUBLIC	?erase@?$basic_string@DU?$char_traits@D@std@@V?$allocator@D@2@@std@@QAEAAV12@II@Z ; std::basic_string<char,std::char_traits<char>,std::allocator<char> >::erase
; Function compile flags: /Ogsp
;	COMDAT ?erase@?$basic_string@DU?$char_traits@D@std@@V?$allocator@D@2@@std@@QAEAAV12@II@Z
_TEXT	SEGMENT
__Off$ = 8						; size = 4
__Count$ = 12						; size = 4
?erase@?$basic_string@DU?$char_traits@D@std@@V?$allocator@D@2@@std@@QAEAAV12@II@Z PROC ; std::basic_string<char,std::char_traits<char>,std::allocator<char> >::erase, COMDAT
; _this$ = ecx

; 1109 : 		{	// erase elements [_Off, _Off + _Count)

  00000	55		 push	 ebp
  00001	8b ec		 mov	 ebp, esp
  00003	53		 push	 ebx
  00004	56		 push	 esi
  00005	8b f1		 mov	 esi, ecx

; 1110 : 		if (this->_Mysize < _Off)

  00007	8b 46 10	 mov	 eax, DWORD PTR [esi+16]
  0000a	8b 4d 08	 mov	 ecx, DWORD PTR __Off$[ebp]
  0000d	3b c1		 cmp	 eax, ecx
  0000f	73 0b		 jae	 SHORT $LN3@erase

; 1111 : 			_Xran();	// _Off off end

  00011	68 00 00 00 00	 push	 OFFSET ??_C@_0BI@CFPLBAOH@invalid?5string?5position?$AA@
  00016	ff 15 00 00 00
	00		 call	 DWORD PTR __imp_?_Xout_of_range@std@@YAXPBD@Z
$LN28@erase:
$LN3@erase:

; 1112 : 		if (this->_Mysize - _Off < _Count)

  0001c	8b 5d 0c	 mov	 ebx, DWORD PTR __Count$[ebp]
  0001f	2b c1		 sub	 eax, ecx
  00021	3b c3		 cmp	 eax, ebx

; 1113 : 			_Count = this->_Mysize - _Off;	// trim _Count

  00023	0f 42 d8	 cmovb	 ebx, eax

; 1114 : 		if (0 < _Count)

  00026	85 db		 test	 ebx, ebx
  00028	74 47		 je	 SHORT $LN25@erase

; 1115 : 			{	// move elements down
; 1116 : 			_Traits::move(_Myptr() + _Off, _Myptr() + _Off + _Count,
; 1117 : 				this->_Mysize - _Off - _Count);

  0002a	8b 56 14	 mov	 edx, DWORD PTR [esi+20]
  0002d	57		 push	 edi
  0002e	83 fa 10	 cmp	 edx, 16			; 00000010H
  00031	72 04		 jb	 SHORT $LN11@erase
  00033	8b 3e		 mov	 edi, DWORD PTR [esi]
  00035	eb 02		 jmp	 SHORT $LN12@erase
$LN11@erase:
  00037	8b fe		 mov	 edi, esi
$LN12@erase:
  00039	83 fa 10	 cmp	 edx, 16			; 00000010H
  0003c	72 04		 jb	 SHORT $LN15@erase
  0003e	8b 16		 mov	 edx, DWORD PTR [esi]
  00040	eb 02		 jmp	 SHORT $LN16@erase
$LN15@erase:
  00042	8b d6		 mov	 edx, esi
$LN16@erase:
  00044	2b c3		 sub	 eax, ebx
  00046	03 f9		 add	 edi, ecx
  00048	50		 push	 eax
  00049	03 fb		 add	 edi, ebx
  0004b	03 d1		 add	 edx, ecx
  0004d	57		 push	 edi
  0004e	52		 push	 edx
  0004f	ff 15 00 00 00
	00		 call	 DWORD PTR __imp__memmove

; 1118 : 			size_type _Newsize = this->_Mysize - _Count;

  00055	8b 46 10	 mov	 eax, DWORD PTR [esi+16]
  00058	83 c4 0c	 add	 esp, 12			; 0000000cH
  0005b	2b c3		 sub	 eax, ebx

; 1119 : 			_Eos(_Newsize);

  0005d	83 7e 14 10	 cmp	 DWORD PTR [esi+20], 16	; 00000010H
  00061	89 46 10	 mov	 DWORD PTR [esi+16], eax
  00064	5f		 pop	 edi
  00065	72 04		 jb	 SHORT $LN23@erase
  00067	8b 0e		 mov	 ecx, DWORD PTR [esi]
  00069	eb 02		 jmp	 SHORT $LN24@erase
$LN23@erase:
  0006b	8b ce		 mov	 ecx, esi
$LN24@erase:
  0006d	c6 04 01 00	 mov	 BYTE PTR [ecx+eax], 0
$LN25@erase:

; 1120 : 			}
; 1121 : 		return (*this);

  00071	8b c6		 mov	 eax, esi
  00073	5e		 pop	 esi
  00074	5b		 pop	 ebx

; 1122 : 		}

  00075	5d		 pop	 ebp
  00076	c2 08 00	 ret	 8
$LN27@erase:
?erase@?$basic_string@DU?$char_traits@D@std@@V?$allocator@D@2@@std@@QAEAAV12@II@Z ENDP ; std::basic_string<char,std::char_traits<char>,std::allocator<char> >::erase
_TEXT	ENDS
PUBLIC	?_Copy@?$basic_string@DU?$char_traits@D@std@@V?$allocator@D@2@@std@@QAEXII@Z ; std::basic_string<char,std::char_traits<char>,std::allocator<char> >::_Copy
EXTRN	__EH_prolog3_catch:PROC
;	COMDAT xdata$x
; File c:\program files (x86)\microsoft visual studio 10.0\vc\include\iosfwd
xdata$x	SEGMENT
__catchsym$?_Copy@?$basic_string@DU?$char_traits@D@std@@V?$allocator@D@2@@std@@QAEXII@Z$5 DD 040H
	DD	00H
	DD	00H
	DD	FLAT:__catch$?_Copy@?$basic_string@DU?$char_traits@D@std@@V?$allocator@D@2@@std@@QAEXII@Z$0
__catchsym$?_Copy@?$basic_string@DU?$char_traits@D@std@@V?$allocator@D@2@@std@@QAEXII@Z$4 DD 040H
	DD	00H
	DD	00H
	DD	FLAT:__catch$?_Copy@?$basic_string@DU?$char_traits@D@std@@V?$allocator@D@2@@std@@QAEXII@Z$1
__unwindtable$?_Copy@?$basic_string@DU?$char_traits@D@std@@V?$allocator@D@2@@std@@QAEXII@Z DD 0ffffffffH
	DD	00H
	DD	0ffffffffH
	DD	00H
	DD	01H
	DD	00H
	DD	01H
	DD	00H
__ehfuncinfo$?_Copy@?$basic_string@DU?$char_traits@D@std@@V?$allocator@D@2@@std@@QAEXII@Z DD 019930522H
	DD	04H
	DD	FLAT:__unwindtable$?_Copy@?$basic_string@DU?$char_traits@D@std@@V?$allocator@D@2@@std@@QAEXII@Z
	DD	02H
	DD	FLAT:__tryblocktable$?_Copy@?$basic_string@DU?$char_traits@D@std@@V?$allocator@D@2@@std@@QAEXII@Z
	DD	2 DUP(00H)
	DD	00H
	DD	01H
__tryblocktable$?_Copy@?$basic_string@DU?$char_traits@D@std@@V?$allocator@D@2@@std@@QAEXII@Z DD 02H
	DD	02H
	DD	03H
	DD	01H
	DD	FLAT:__catchsym$?_Copy@?$basic_string@DU?$char_traits@D@std@@V?$allocator@D@2@@std@@QAEXII@Z$4
	DD	00H
	DD	00H
	DD	03H
	DD	01H
	DD	FLAT:__catchsym$?_Copy@?$basic_string@DU?$char_traits@D@std@@V?$allocator@D@2@@std@@QAEXII@Z$5
; Function compile flags: /Ogsp
; File c:\program files (x86)\microsoft visual studio 10.0\vc\include\xstring
xdata$x	ENDS
;	COMDAT ?_Copy@?$basic_string@DU?$char_traits@D@std@@V?$allocator@D@2@@std@@QAEXII@Z
_TEXT	SEGMENT
_this$ = -24						; size = 4
tv296 = -20						; size = 4
__Newres$ = -20						; size = 4
__$EHRec$ = -16						; size = 16
__Ptr$ = 8						; size = 4
__Newsize$ = 8						; size = 4
__Oldlen$ = 12						; size = 4
?_Copy@?$basic_string@DU?$char_traits@D@std@@V?$allocator@D@2@@std@@QAEXII@Z PROC ; std::basic_string<char,std::char_traits<char>,std::allocator<char> >::_Copy, COMDAT
; _this$ = ecx

; 1919 : 		{	// copy _Oldlen elements to newly allocated buffer

  00000	6a 0c		 push	 12			; 0000000cH
  00002	b8 00 00 00 00	 mov	 eax, __ehhandler$?_Copy@?$basic_string@DU?$char_traits@D@std@@V?$allocator@D@2@@std@@QAEXII@Z
  00007	e8 00 00 00 00	 call	 __EH_prolog3_catch
  0000c	8b f1		 mov	 esi, ecx
  0000e	89 75 e8	 mov	 DWORD PTR _this$[ebp], esi

; 1920 : 		size_type _Newres = _Newsize | this->_ALLOC_MASK;

  00011	8b 7d 08	 mov	 edi, DWORD PTR __Newsize$[ebp]
  00014	83 cf 0f	 or	 edi, 15			; 0000000fH

; 1921 : 		if (max_size() < _Newres)

  00017	83 ff fe	 cmp	 edi, -2			; fffffffeH
  0001a	76 05		 jbe	 SHORT $LN9@Copy

; 1922 : 			_Newres = _Newsize;	// undo roundup if too big

  0001c	8b 7d 08	 mov	 edi, DWORD PTR __Newsize$[ebp]
  0001f	eb 27		 jmp	 SHORT $LN5@Copy
$LN9@Copy:

; 1923 : 		else if (this->_Myres / 2 <= _Newres / 3)

  00021	33 d2		 xor	 edx, edx
  00023	6a 03		 push	 3
  00025	8b c7		 mov	 eax, edi
  00027	5b		 pop	 ebx
  00028	f7 f3		 div	 ebx
  0002a	8b 4e 14	 mov	 ecx, DWORD PTR [esi+20]
  0002d	89 4d ec	 mov	 DWORD PTR tv296[ebp], ecx
  00030	d1 6d ec	 shr	 DWORD PTR tv296[ebp], 1
  00033	8b 55 ec	 mov	 edx, DWORD PTR tv296[ebp]
  00036	3b d0		 cmp	 edx, eax
  00038	76 0e		 jbe	 SHORT $LN5@Copy

; 1924 : 			;
; 1925 : 		else if (this->_Myres <= max_size() - this->_Myres / 2)

  0003a	6a fe		 push	 -2			; fffffffeH
  0003c	5f		 pop	 edi
  0003d	8b c7		 mov	 eax, edi
  0003f	2b c2		 sub	 eax, edx
  00041	3b c8		 cmp	 ecx, eax
  00043	77 03		 ja	 SHORT $LN5@Copy

; 1926 : 			_Newres = this->_Myres
; 1927 : 				+ this->_Myres / 2;	// grow exponentially if possible

  00045	8d 3c 0a	 lea	 edi, DWORD PTR [edx+ecx]
$LN5@Copy:

; 1928 : 		else
; 1929 : 			_Newres = max_size();	// settle for max_size()
; 1930 : 
; 1931 : 		_Elem *_Ptr;
; 1932 : 		_TRY_BEGIN

  00048	83 65 fc 00	 and	 DWORD PTR __$EHRec$[ebp+12], 0

; 1933 : 			_Ptr = this->_Alval.allocate(_Newres + 1);

  0004c	8d 47 01	 lea	 eax, DWORD PTR [edi+1]
  0004f	6a 00		 push	 0
  00051	50		 push	 eax
  00052	e8 00 00 00 00	 call	 ??$_Allocate@D@std@@YAPADIPAD@Z ; std::_Allocate<char>
  00057	59		 pop	 ecx
  00058	59		 pop	 ecx
  00059	89 45 08	 mov	 DWORD PTR __Ptr$[ebp], eax
  0005c	eb 27		 jmp	 SHORT $LN19@Copy
__catch$?_Copy@?$basic_string@DU?$char_traits@D@std@@V?$allocator@D@2@@std@@QAEXII@Z$0:

; 1934 : 		_CATCH_ALL
; 1935 : 			_Newres = _Newsize;	// allocation failed, undo roundup and retry

  0005e	8b 45 08	 mov	 eax, DWORD PTR __Newsize$[ebp]
  00061	89 65 f0	 mov	 DWORD PTR __$EHRec$[ebp], esp
  00064	89 45 ec	 mov	 DWORD PTR __Newres$[ebp], eax

; 1936 : 			_TRY_BEGIN
; 1937 : 				_Ptr = this->_Alval.allocate(_Newres + 1);

  00067	40		 inc	 eax
  00068	6a 00		 push	 0
  0006a	50		 push	 eax
  0006b	c6 45 fc 02	 mov	 BYTE PTR __$EHRec$[ebp+12], 2
  0006f	e8 00 00 00 00	 call	 ??$_Allocate@D@std@@YAPADIPAD@Z ; std::_Allocate<char>
  00074	59		 pop	 ecx
  00075	89 45 08	 mov	 DWORD PTR __Ptr$[ebp], eax
  00078	59		 pop	 ecx

; 1941 : 			_CATCH_END
; 1942 : 		_CATCH_END

  00079	b8 00 00 00 00	 mov	 eax, $LN63@Copy
  0007e	c3		 ret	 0
$LN63@Copy:
  0007f	8b 75 e8	 mov	 esi, DWORD PTR _this$[ebp]
  00082	8b 7d ec	 mov	 edi, DWORD PTR __Newres$[ebp]
$LN19@Copy:

; 1943 : 
; 1944 : 		if (0 < _Oldlen)

  00085	8b 5d 0c	 mov	 ebx, DWORD PTR __Oldlen$[ebp]
  00088	85 db		 test	 ebx, ebx
  0008a	74 19		 je	 SHORT $LN52@Copy

; 1945 : 			_Traits::copy(_Ptr, _Myptr(), _Oldlen);	// copy existing elements

  0008c	83 7e 14 10	 cmp	 DWORD PTR [esi+20], 16	; 00000010H
  00090	72 04		 jb	 SHORT $LN50@Copy
  00092	8b 06		 mov	 eax, DWORD PTR [esi]
  00094	eb 02		 jmp	 SHORT $LN51@Copy
$LN50@Copy:
  00096	8b c6		 mov	 eax, esi
$LN51@Copy:
  00098	53		 push	 ebx
  00099	50		 push	 eax
  0009a	ff 75 08	 push	 DWORD PTR __Ptr$[ebp]
  0009d	e8 00 00 00 00	 call	 _memcpy
  000a2	83 c4 0c	 add	 esp, 12			; 0000000cH
$LN52@Copy:

; 1946 : 		_Tidy(true);

  000a5	6a 00		 push	 0
  000a7	6a 01		 push	 1
  000a9	8b ce		 mov	 ecx, esi
  000ab	e8 00 00 00 00	 call	 ?_Tidy@?$basic_string@DU?$char_traits@D@std@@V?$allocator@D@2@@std@@QAEX_NI@Z ; std::basic_string<char,std::char_traits<char>,std::allocator<char> >::_Tidy

; 1947 : 		this->_Bx._Ptr = _Ptr;

  000b0	8b 45 08	 mov	 eax, DWORD PTR __Ptr$[ebp]
  000b3	89 06		 mov	 DWORD PTR [esi], eax

; 1948 : 		this->_Myres = _Newres;
; 1949 : 		_Eos(_Oldlen);

  000b5	83 ff 10	 cmp	 edi, 16			; 00000010H
  000b8	89 7e 14	 mov	 DWORD PTR [esi+20], edi
  000bb	89 5e 10	 mov	 DWORD PTR [esi+16], ebx
  000be	0f 42 c6	 cmovb	 eax, esi
  000c1	c6 04 18 00	 mov	 BYTE PTR [eax+ebx], 0

; 1950 : 		}

  000c5	e8 00 00 00 00	 call	 __EH_epilog3
  000ca	c2 08 00	 ret	 8
__catch$?_Copy@?$basic_string@DU?$char_traits@D@std@@V?$allocator@D@2@@std@@QAEXII@Z$1:

; 1938 : 			_CATCH_ALL
; 1939 : 			_Tidy(true);	// failed again, discard storage and reraise

  000cd	8b 4d e8	 mov	 ecx, DWORD PTR _this$[ebp]
  000d0	33 f6		 xor	 esi, esi
  000d2	56		 push	 esi
  000d3	6a 01		 push	 1
  000d5	e8 00 00 00 00	 call	 ?_Tidy@?$basic_string@DU?$char_traits@D@std@@V?$allocator@D@2@@std@@QAEX_NI@Z ; std::basic_string<char,std::char_traits<char>,std::allocator<char> >::_Tidy

; 1940 : 			_RERAISE;

  000da	56		 push	 esi
  000db	56		 push	 esi
  000dc	e8 00 00 00 00	 call	 __CxxThrowException@8
$LN67@Copy:
$LN66@Copy:
  000e1	cc		 int	 3
_TEXT	ENDS
;	COMDAT text$x
text$x	SEGMENT
__ehhandler$?_Copy@?$basic_string@DU?$char_traits@D@std@@V?$allocator@D@2@@std@@QAEXII@Z:
  00000	8b 54 24 08	 mov	 edx, DWORD PTR [esp+8]
  00004	8d 42 0c	 lea	 eax, DWORD PTR [edx+12]
  00007	8b 4a e4	 mov	 ecx, DWORD PTR [edx-28]
  0000a	33 c8		 xor	 ecx, eax
  0000c	e8 00 00 00 00	 call	 @__security_check_cookie@4
  00011	b8 00 00 00 00	 mov	 eax, OFFSET __ehfuncinfo$?_Copy@?$basic_string@DU?$char_traits@D@std@@V?$allocator@D@2@@std@@QAEXII@Z
  00016	e9 00 00 00 00	 jmp	 ___CxxFrameHandler3
text$x	ENDS
?_Copy@?$basic_string@DU?$char_traits@D@std@@V?$allocator@D@2@@std@@QAEXII@Z ENDP ; std::basic_string<char,std::char_traits<char>,std::allocator<char> >::_Copy
PUBLIC	?begin@?$vector@V?$basic_string@DU?$char_traits@D@std@@V?$allocator@D@2@@std@@V?$allocator@V?$basic_string@DU?$char_traits@D@std@@V?$allocator@D@2@@std@@@2@@std@@QAE?AV?$_Vector_iterator@V?$_Vector_val@V?$basic_string@DU?$char_traits@D@std@@V?$allocator@D@2@@std@@V?$allocator@V?$basic_string@DU?$char_traits@D@std@@V?$allocator@D@2@@std@@@2@@std@@@2@XZ ; std::vector<std::basic_string<char,std::char_traits<char>,std::allocator<char> >,std::allocator<std::basic_string<char,std::char_traits<char>,std::allocator<char> > > >::begin
; Function compile flags: /Ogsp
; File c:\program files (x86)\microsoft visual studio 10.0\vc\include\vector
;	COMDAT ?begin@?$vector@V?$basic_string@DU?$char_traits@D@std@@V?$allocator@D@2@@std@@V?$allocator@V?$basic_string@DU?$char_traits@D@std@@V?$allocator@D@2@@std@@@2@@std@@QAE?AV?$_Vector_iterator@V?$_Vector_val@V?$basic_string@DU?$char_traits@D@std@@V?$allocator@D@2@@std@@V?$allocator@V?$basic_string@DU?$char_traits@D@std@@V?$allocator@D@2@@std@@@2@@std@@@2@XZ
_TEXT	SEGMENT
___$ReturnUdt$ = 8					; size = 4
?begin@?$vector@V?$basic_string@DU?$char_traits@D@std@@V?$allocator@D@2@@std@@V?$allocator@V?$basic_string@DU?$char_traits@D@std@@V?$allocator@D@2@@std@@@2@@std@@QAE?AV?$_Vector_iterator@V?$_Vector_val@V?$basic_string@DU?$char_traits@D@std@@V?$allocator@D@2@@std@@V?$allocator@V?$basic_string@DU?$char_traits@D@std@@V?$allocator@D@2@@std@@@2@@std@@@2@XZ PROC ; std::vector<std::basic_string<char,std::char_traits<char>,std::allocator<char> >,std::allocator<std::basic_string<char,std::char_traits<char>,std::allocator<char> > > >::begin, COMDAT
; _this$ = ecx

; 781  : 		{	// return iterator for beginning of mutable sequence

  00000	55		 push	 ebp
  00001	8b ec		 mov	 ebp, esp

; 782  : 		return (iterator(this->_Myfirst, this));

  00003	8b 09		 mov	 ecx, DWORD PTR [ecx]
  00005	8b 45 08	 mov	 eax, DWORD PTR ___$ReturnUdt$[ebp]
  00008	89 08		 mov	 DWORD PTR [eax], ecx

; 783  : 		}

  0000a	5d		 pop	 ebp
  0000b	c2 04 00	 ret	 4
?begin@?$vector@V?$basic_string@DU?$char_traits@D@std@@V?$allocator@D@2@@std@@V?$allocator@V?$basic_string@DU?$char_traits@D@std@@V?$allocator@D@2@@std@@@2@@std@@QAE?AV?$_Vector_iterator@V?$_Vector_val@V?$basic_string@DU?$char_traits@D@std@@V?$allocator@D@2@@std@@V?$allocator@V?$basic_string@DU?$char_traits@D@std@@V?$allocator@D@2@@std@@@2@@std@@@2@XZ ENDP ; std::vector<std::basic_string<char,std::char_traits<char>,std::allocator<char> >,std::allocator<std::basic_string<char,std::char_traits<char>,std::allocator<char> > > >::begin
_TEXT	ENDS
PUBLIC	?end@?$vector@V?$basic_string@DU?$char_traits@D@std@@V?$allocator@D@2@@std@@V?$allocator@V?$basic_string@DU?$char_traits@D@std@@V?$allocator@D@2@@std@@@2@@std@@QAE?AV?$_Vector_iterator@V?$_Vector_val@V?$basic_string@DU?$char_traits@D@std@@V?$allocator@D@2@@std@@V?$allocator@V?$basic_string@DU?$char_traits@D@std@@V?$allocator@D@2@@std@@@2@@std@@@2@XZ ; std::vector<std::basic_string<char,std::char_traits<char>,std::allocator<char> >,std::allocator<std::basic_string<char,std::char_traits<char>,std::allocator<char> > > >::end
; Function compile flags: /Ogsp
;	COMDAT ?end@?$vector@V?$basic_string@DU?$char_traits@D@std@@V?$allocator@D@2@@std@@V?$allocator@V?$basic_string@DU?$char_traits@D@std@@V?$allocator@D@2@@std@@@2@@std@@QAE?AV?$_Vector_iterator@V?$_Vector_val@V?$basic_string@DU?$char_traits@D@std@@V?$allocator@D@2@@std@@V?$allocator@V?$basic_string@DU?$char_traits@D@std@@V?$allocator@D@2@@std@@@2@@std@@@2@XZ
_TEXT	SEGMENT
___$ReturnUdt$ = 8					; size = 4
?end@?$vector@V?$basic_string@DU?$char_traits@D@std@@V?$allocator@D@2@@std@@V?$allocator@V?$basic_string@DU?$char_traits@D@std@@V?$allocator@D@2@@std@@@2@@std@@QAE?AV?$_Vector_iterator@V?$_Vector_val@V?$basic_string@DU?$char_traits@D@std@@V?$allocator@D@2@@std@@V?$allocator@V?$basic_string@DU?$char_traits@D@std@@V?$allocator@D@2@@std@@@2@@std@@@2@XZ PROC ; std::vector<std::basic_string<char,std::char_traits<char>,std::allocator<char> >,std::allocator<std::basic_string<char,std::char_traits<char>,std::allocator<char> > > >::end, COMDAT
; _this$ = ecx

; 791  : 		{	// return iterator for end of mutable sequence

  00000	55		 push	 ebp
  00001	8b ec		 mov	 ebp, esp

; 792  : 		return (iterator(this->_Mylast, this));

  00003	8b 49 04	 mov	 ecx, DWORD PTR [ecx+4]
  00006	8b 45 08	 mov	 eax, DWORD PTR ___$ReturnUdt$[ebp]
  00009	89 08		 mov	 DWORD PTR [eax], ecx

; 793  : 		}

  0000b	5d		 pop	 ebp
  0000c	c2 04 00	 ret	 4
?end@?$vector@V?$basic_string@DU?$char_traits@D@std@@V?$allocator@D@2@@std@@V?$allocator@V?$basic_string@DU?$char_traits@D@std@@V?$allocator@D@2@@std@@@2@@std@@QAE?AV?$_Vector_iterator@V?$_Vector_val@V?$basic_string@DU?$char_traits@D@std@@V?$allocator@D@2@@std@@V?$allocator@V?$basic_string@DU?$char_traits@D@std@@V?$allocator@D@2@@std@@@2@@std@@@2@XZ ENDP ; std::vector<std::basic_string<char,std::char_traits<char>,std::allocator<char> >,std::allocator<std::basic_string<char,std::char_traits<char>,std::allocator<char> > > >::end
_TEXT	ENDS
PUBLIC	??1?$basic_string@DU?$char_traits@D@std@@V?$allocator@D@2@@std@@QAE@XZ ; std::basic_string<char,std::char_traits<char>,std::allocator<char> >::~basic_string<char,std::char_traits<char>,std::allocator<char> >
; Function compile flags: /Ogsp
; File c:\program files (x86)\microsoft visual studio 10.0\vc\include\xstring
;	COMDAT ??1?$basic_string@DU?$char_traits@D@std@@V?$allocator@D@2@@std@@QAE@XZ
_TEXT	SEGMENT
??1?$basic_string@DU?$char_traits@D@std@@V?$allocator@D@2@@std@@QAE@XZ PROC ; std::basic_string<char,std::char_traits<char>,std::allocator<char> >::~basic_string<char,std::char_traits<char>,std::allocator<char> >, COMDAT
; _this$ = ecx

; 754  : 		_Tidy(true);

  00000	6a 00		 push	 0
  00002	6a 01		 push	 1
  00004	e8 00 00 00 00	 call	 ?_Tidy@?$basic_string@DU?$char_traits@D@std@@V?$allocator@D@2@@std@@QAEX_NI@Z ; std::basic_string<char,std::char_traits<char>,std::allocator<char> >::_Tidy

; 755  : 		}

  00009	c3		 ret	 0
??1?$basic_string@DU?$char_traits@D@std@@V?$allocator@D@2@@std@@QAE@XZ ENDP ; std::basic_string<char,std::char_traits<char>,std::allocator<char> >::~basic_string<char,std::char_traits<char>,std::allocator<char> >
_TEXT	ENDS
PUBLIC	?_Grow@?$basic_string@DU?$char_traits@D@std@@V?$allocator@D@2@@std@@QAE_NI_N@Z ; std::basic_string<char,std::char_traits<char>,std::allocator<char> >::_Grow
; Function compile flags: /Ogsp
;	COMDAT ?_Grow@?$basic_string@DU?$char_traits@D@std@@V?$allocator@D@2@@std@@QAE_NI_N@Z
_TEXT	SEGMENT
__Newsize$ = 8						; size = 4
__Trim$ = 12						; size = 1
?_Grow@?$basic_string@DU?$char_traits@D@std@@V?$allocator@D@2@@std@@QAE_NI_N@Z PROC ; std::basic_string<char,std::char_traits<char>,std::allocator<char> >::_Grow, COMDAT
; _this$ = ecx

; 1959 : 		{	// ensure buffer is big enough, trim to size if _Trim is true

  00000	55		 push	 ebp
  00001	8b ec		 mov	 ebp, esp
  00003	56		 push	 esi

; 1960 : 		if (max_size() < _Newsize)

  00004	8b 75 08	 mov	 esi, DWORD PTR __Newsize$[ebp]
  00007	83 fe fe	 cmp	 esi, -2			; fffffffeH
  0000a	76 0b		 jbe	 SHORT $LN6@Grow

; 1961 : 			_Xlen();	// result too long

  0000c	68 00 00 00 00	 push	 OFFSET ??_C@_0BA@JFNIOLAK@string?5too?5long?$AA@
  00011	ff 15 00 00 00
	00		 call	 DWORD PTR __imp_?_Xlength_error@std@@YAXPBD@Z
$LN31@Grow:
$LN6@Grow:

; 1962 : 		if (this->_Myres < _Newsize)

  00017	8b 41 14	 mov	 eax, DWORD PTR [ecx+20]
  0001a	3b c6		 cmp	 eax, esi
  0001c	73 0b		 jae	 SHORT $LN5@Grow

; 1963 : 			_Copy(_Newsize, this->_Mysize);	// reallocate to grow

  0001e	ff 71 10	 push	 DWORD PTR [ecx+16]
  00021	56		 push	 esi
  00022	e8 00 00 00 00	 call	 ?_Copy@?$basic_string@DU?$char_traits@D@std@@V?$allocator@D@2@@std@@QAEXII@Z ; std::basic_string<char,std::char_traits<char>,std::allocator<char> >::_Copy
  00027	eb 2e		 jmp	 SHORT $LN28@Grow
$LN5@Grow:

; 1964 : 		else if (_Trim && _Newsize < this->_BUF_SIZE)

  00029	33 d2		 xor	 edx, edx
  0002b	38 55 0c	 cmp	 BYTE PTR __Trim$[ebp], dl
  0002e	74 17		 je	 SHORT $LN3@Grow
  00030	83 fe 10	 cmp	 esi, 16			; 00000010H
  00033	73 12		 jae	 SHORT $LN3@Grow

; 1965 : 			_Tidy(true,	// copy and deallocate if trimming to small string
; 1966 : 				_Newsize < this->_Mysize ? _Newsize : this->_Mysize);

  00035	8b 41 10	 mov	 eax, DWORD PTR [ecx+16]
  00038	3b f0		 cmp	 esi, eax
  0003a	0f 42 c6	 cmovb	 eax, esi
  0003d	50		 push	 eax
  0003e	6a 01		 push	 1
  00040	e8 00 00 00 00	 call	 ?_Tidy@?$basic_string@DU?$char_traits@D@std@@V?$allocator@D@2@@std@@QAEX_NI@Z ; std::basic_string<char,std::char_traits<char>,std::allocator<char> >::_Tidy
  00045	eb 10		 jmp	 SHORT $LN28@Grow
$LN3@Grow:

; 1967 : 		else if (_Newsize == 0)

  00047	3b f2		 cmp	 esi, edx
  00049	75 0c		 jne	 SHORT $LN28@Grow

; 1968 : 			_Eos(0);	// new size is zero, just null terminate

  0004b	89 51 10	 mov	 DWORD PTR [ecx+16], edx
  0004e	83 f8 10	 cmp	 eax, 16			; 00000010H
  00051	72 02		 jb	 SHORT $LN26@Grow
  00053	8b 09		 mov	 ecx, DWORD PTR [ecx]
$LN26@Grow:
  00055	88 11		 mov	 BYTE PTR [ecx], dl
$LN28@Grow:

; 1969 : 		return (0 < _Newsize);	// return true only if more work to do

  00057	33 c0		 xor	 eax, eax
  00059	3b c6		 cmp	 eax, esi
  0005b	1b c0		 sbb	 eax, eax
  0005d	f7 d8		 neg	 eax
  0005f	5e		 pop	 esi

; 1970 : 		}

  00060	5d		 pop	 ebp
  00061	c2 08 00	 ret	 8
$LN30@Grow:
?_Grow@?$basic_string@DU?$char_traits@D@std@@V?$allocator@D@2@@std@@QAE_NI_N@Z ENDP ; std::basic_string<char,std::char_traits<char>,std::allocator<char> >::_Grow
_TEXT	ENDS
PUBLIC	??_G?$basic_string@DU?$char_traits@D@std@@V?$allocator@D@2@@std@@QAEPAXI@Z ; std::basic_string<char,std::char_traits<char>,std::allocator<char> >::`scalar deleting destructor'
; Function compile flags: /Ogsp
;	COMDAT ??_G?$basic_string@DU?$char_traits@D@std@@V?$allocator@D@2@@std@@QAEPAXI@Z
_TEXT	SEGMENT
___flags$ = 8						; size = 4
??_G?$basic_string@DU?$char_traits@D@std@@V?$allocator@D@2@@std@@QAEPAXI@Z PROC ; std::basic_string<char,std::char_traits<char>,std::allocator<char> >::`scalar deleting destructor', COMDAT
; _this$ = ecx
  00000	55		 push	 ebp
  00001	8b ec		 mov	 ebp, esp
  00003	56		 push	 esi
  00004	6a 00		 push	 0
  00006	6a 01		 push	 1
  00008	8b f1		 mov	 esi, ecx
  0000a	e8 00 00 00 00	 call	 ?_Tidy@?$basic_string@DU?$char_traits@D@std@@V?$allocator@D@2@@std@@QAEX_NI@Z ; std::basic_string<char,std::char_traits<char>,std::allocator<char> >::_Tidy
  0000f	f6 45 08 01	 test	 BYTE PTR ___flags$[ebp], 1
  00013	74 07		 je	 SHORT $LN1@scalar@3
  00015	56		 push	 esi
  00016	e8 00 00 00 00	 call	 ??3@YAXPAX@Z		; operator delete
  0001b	59		 pop	 ecx
$LN1@scalar@3:
  0001c	8b c6		 mov	 eax, esi
  0001e	5e		 pop	 esi
  0001f	5d		 pop	 ebp
  00020	c2 04 00	 ret	 4
??_G?$basic_string@DU?$char_traits@D@std@@V?$allocator@D@2@@std@@QAEPAXI@Z ENDP ; std::basic_string<char,std::char_traits<char>,std::allocator<char> >::`scalar deleting destructor'
_TEXT	ENDS
PUBLIC	?assign@?$basic_string@DU?$char_traits@D@std@@V?$allocator@D@2@@std@@QAEAAV12@ABV12@II@Z ; std::basic_string<char,std::char_traits<char>,std::allocator<char> >::assign
; Function compile flags: /Ogsp
;	COMDAT ?assign@?$basic_string@DU?$char_traits@D@std@@V?$allocator@D@2@@std@@QAEAAV12@ABV12@II@Z
_TEXT	SEGMENT
__Right$ = 8						; size = 4
__Roff$ = 12						; size = 4
__Count$ = 16						; size = 4
?assign@?$basic_string@DU?$char_traits@D@std@@V?$allocator@D@2@@std@@QAEAAV12@ABV12@II@Z PROC ; std::basic_string<char,std::char_traits<char>,std::allocator<char> >::assign, COMDAT
; _this$ = ecx

; 893  : 		{	// assign _Right [_Roff, _Roff + _Count)

  00000	55		 push	 ebp
  00001	8b ec		 mov	 ebp, esp
  00003	53		 push	 ebx

; 894  : 		if (_Right.size() < _Roff)

  00004	8b 5d 08	 mov	 ebx, DWORD PTR __Right$[ebp]
  00007	8b 43 10	 mov	 eax, DWORD PTR [ebx+16]
  0000a	56		 push	 esi
  0000b	8b f1		 mov	 esi, ecx
  0000d	8b 4d 0c	 mov	 ecx, DWORD PTR __Roff$[ebp]
  00010	57		 push	 edi
  00011	3b c1		 cmp	 eax, ecx
  00013	73 0b		 jae	 SHORT $LN5@assign

; 895  : 			_Xran();	// _Roff off end

  00015	68 00 00 00 00	 push	 OFFSET ??_C@_0BI@CFPLBAOH@invalid?5string?5position?$AA@
  0001a	ff 15 00 00 00
	00		 call	 DWORD PTR __imp_?_Xout_of_range@std@@YAXPBD@Z
$LN34@assign:
$LN5@assign:

; 896  : 		size_type _Num = _Right.size() - _Roff;

  00020	2b c1		 sub	 eax, ecx
  00022	8b f8		 mov	 edi, eax

; 897  : 		if (_Count < _Num)

  00024	39 7d 10	 cmp	 DWORD PTR __Count$[ebp], edi

; 898  : 			_Num = _Count;	// trim _Num to size

  00027	0f 42 7d 10	 cmovb	 edi, DWORD PTR __Count$[ebp]

; 899  : 
; 900  : 		if (this == &_Right)

  0002b	3b f3		 cmp	 esi, ebx
  0002d	75 1a		 jne	 SHORT $LN3@assign

; 901  : 			erase((size_type)(_Roff + _Num)), erase(0, _Roff);	// substring

  0002f	03 f9		 add	 edi, ecx
  00031	6a ff		 push	 -1
  00033	57		 push	 edi
  00034	8b ce		 mov	 ecx, esi
  00036	e8 00 00 00 00	 call	 ?erase@?$basic_string@DU?$char_traits@D@std@@V?$allocator@D@2@@std@@QAEAAV12@II@Z ; std::basic_string<char,std::char_traits<char>,std::allocator<char> >::erase
  0003b	ff 75 0c	 push	 DWORD PTR __Roff$[ebp]
  0003e	8b ce		 mov	 ecx, esi
  00040	6a 00		 push	 0
  00042	e8 00 00 00 00	 call	 ?erase@?$basic_string@DU?$char_traits@D@std@@V?$allocator@D@2@@std@@QAEAAV12@II@Z ; std::basic_string<char,std::char_traits<char>,std::allocator<char> >::erase
  00047	eb 47		 jmp	 SHORT $LN31@assign
$LN3@assign:

; 902  : 		else if (_Grow(_Num))

  00049	6a 00		 push	 0
  0004b	57		 push	 edi
  0004c	8b ce		 mov	 ecx, esi
  0004e	e8 00 00 00 00	 call	 ?_Grow@?$basic_string@DU?$char_traits@D@std@@V?$allocator@D@2@@std@@QAE_NI_N@Z ; std::basic_string<char,std::char_traits<char>,std::allocator<char> >::_Grow
  00053	84 c0		 test	 al, al
  00055	74 39		 je	 SHORT $LN31@assign

; 903  : 			{	// make room and assign new stuff
; 904  : 			_Traits::copy(_Myptr(), _Right._Myptr() + _Roff, _Num);

  00057	83 7b 14 10	 cmp	 DWORD PTR [ebx+20], 16	; 00000010H
  0005b	72 04		 jb	 SHORT $LN17@assign
  0005d	8b 03		 mov	 eax, DWORD PTR [ebx]
  0005f	eb 02		 jmp	 SHORT $LN18@assign
$LN17@assign:
  00061	8b c3		 mov	 eax, ebx
$LN18@assign:
  00063	83 7e 14 10	 cmp	 DWORD PTR [esi+20], 16	; 00000010H
  00067	72 04		 jb	 SHORT $LN21@assign
  00069	8b 0e		 mov	 ecx, DWORD PTR [esi]
  0006b	eb 02		 jmp	 SHORT $LN22@assign
$LN21@assign:
  0006d	8b ce		 mov	 ecx, esi
$LN22@assign:
  0006f	03 45 0c	 add	 eax, DWORD PTR __Roff$[ebp]
  00072	57		 push	 edi
  00073	50		 push	 eax
  00074	51		 push	 ecx
  00075	e8 00 00 00 00	 call	 _memcpy
  0007a	83 c4 0c	 add	 esp, 12			; 0000000cH

; 905  : 			_Eos(_Num);

  0007d	83 7e 14 10	 cmp	 DWORD PTR [esi+20], 16	; 00000010H
  00081	89 7e 10	 mov	 DWORD PTR [esi+16], edi
  00084	72 04		 jb	 SHORT $LN29@assign
  00086	8b 06		 mov	 eax, DWORD PTR [esi]
  00088	eb 02		 jmp	 SHORT $LN30@assign
$LN29@assign:
  0008a	8b c6		 mov	 eax, esi
$LN30@assign:
  0008c	c6 04 38 00	 mov	 BYTE PTR [eax+edi], 0
$LN31@assign:

; 906  : 			}
; 907  : 		return (*this);

  00090	5f		 pop	 edi
  00091	8b c6		 mov	 eax, esi
  00093	5e		 pop	 esi
  00094	5b		 pop	 ebx

; 908  : 		}

  00095	5d		 pop	 ebp
  00096	c2 0c 00	 ret	 12			; 0000000cH
$LN33@assign:
?assign@?$basic_string@DU?$char_traits@D@std@@V?$allocator@D@2@@std@@QAEAAV12@ABV12@II@Z ENDP ; std::basic_string<char,std::char_traits<char>,std::allocator<char> >::assign
_TEXT	ENDS
PUBLIC	?assign@?$basic_string@DU?$char_traits@D@std@@V?$allocator@D@2@@std@@QAEAAV12@PBDI@Z ; std::basic_string<char,std::char_traits<char>,std::allocator<char> >::assign
; Function compile flags: /Ogsp
;	COMDAT ?assign@?$basic_string@DU?$char_traits@D@std@@V?$allocator@D@2@@std@@QAEAAV12@PBDI@Z
_TEXT	SEGMENT
__Ptr$ = 8						; size = 4
__Count$ = 12						; size = 4
?assign@?$basic_string@DU?$char_traits@D@std@@V?$allocator@D@2@@std@@QAEAAV12@PBDI@Z PROC ; std::basic_string<char,std::char_traits<char>,std::allocator<char> >::assign, COMDAT
; _this$ = ecx

; 911  : 		{	// assign [_Ptr, _Ptr + _Count)

  00000	55		 push	 ebp
  00001	8b ec		 mov	 ebp, esp
  00003	53		 push	 ebx

; 912  :  #if _ITERATOR_DEBUG_LEVEL == 2
; 913  : 		if (_Count != 0)
; 914  : 			_DEBUG_POINTER(_Ptr);
; 915  :  #endif /* _ITERATOR_DEBUG_LEVEL == 2 */
; 916  : 
; 917  : 		if (_Inside(_Ptr))

  00004	8b 5d 08	 mov	 ebx, DWORD PTR __Ptr$[ebp]
  00007	56		 push	 esi
  00008	53		 push	 ebx
  00009	8b f1		 mov	 esi, ecx
  0000b	e8 00 00 00 00	 call	 ?_Inside@?$basic_string@DU?$char_traits@D@std@@V?$allocator@D@2@@std@@QAE_NPBD@Z ; std::basic_string<char,std::char_traits<char>,std::allocator<char> >::_Inside
  00010	84 c0		 test	 al, al
  00012	74 1c		 je	 SHORT $LN2@assign@2

; 918  : 			return (assign(*this, _Ptr - _Myptr(), _Count));	// substring

  00014	83 7e 14 10	 cmp	 DWORD PTR [esi+20], 16	; 00000010H
  00018	72 04		 jb	 SHORT $LN7@assign@2
  0001a	8b 06		 mov	 eax, DWORD PTR [esi]
  0001c	eb 02		 jmp	 SHORT $LN8@assign@2
$LN7@assign@2:
  0001e	8b c6		 mov	 eax, esi
$LN8@assign@2:
  00020	ff 75 0c	 push	 DWORD PTR __Count$[ebp]
  00023	2b d8		 sub	 ebx, eax
  00025	53		 push	 ebx
  00026	56		 push	 esi
  00027	8b ce		 mov	 ecx, esi
  00029	e8 00 00 00 00	 call	 ?assign@?$basic_string@DU?$char_traits@D@std@@V?$allocator@D@2@@std@@QAEAAV12@ABV12@II@Z ; std::basic_string<char,std::char_traits<char>,std::allocator<char> >::assign
  0002e	eb 3f		 jmp	 SHORT $LN3@assign@2
$LN2@assign@2:
  00030	57		 push	 edi

; 919  : 
; 920  : 		if (_Grow(_Count))

  00031	8b 7d 0c	 mov	 edi, DWORD PTR __Count$[ebp]
  00034	6a 00		 push	 0
  00036	57		 push	 edi
  00037	8b ce		 mov	 ecx, esi
  00039	e8 00 00 00 00	 call	 ?_Grow@?$basic_string@DU?$char_traits@D@std@@V?$allocator@D@2@@std@@QAE_NI_N@Z ; std::basic_string<char,std::char_traits<char>,std::allocator<char> >::_Grow
  0003e	84 c0		 test	 al, al
  00040	74 2a		 je	 SHORT $LN21@assign@2

; 921  : 			{	// make room and assign new stuff
; 922  : 			_Traits::copy(_Myptr(), _Ptr, _Count);

  00042	83 7e 14 10	 cmp	 DWORD PTR [esi+20], 16	; 00000010H
  00046	72 04		 jb	 SHORT $LN11@assign@2
  00048	8b 06		 mov	 eax, DWORD PTR [esi]
  0004a	eb 02		 jmp	 SHORT $LN12@assign@2
$LN11@assign@2:
  0004c	8b c6		 mov	 eax, esi
$LN12@assign@2:
  0004e	57		 push	 edi
  0004f	53		 push	 ebx
  00050	50		 push	 eax
  00051	e8 00 00 00 00	 call	 _memcpy
  00056	83 c4 0c	 add	 esp, 12			; 0000000cH

; 923  : 			_Eos(_Count);

  00059	83 7e 14 10	 cmp	 DWORD PTR [esi+20], 16	; 00000010H
  0005d	89 7e 10	 mov	 DWORD PTR [esi+16], edi
  00060	72 04		 jb	 SHORT $LN19@assign@2
  00062	8b 06		 mov	 eax, DWORD PTR [esi]
  00064	eb 02		 jmp	 SHORT $LN20@assign@2
$LN19@assign@2:
  00066	8b c6		 mov	 eax, esi
$LN20@assign@2:
  00068	c6 04 38 00	 mov	 BYTE PTR [eax+edi], 0
$LN21@assign@2:

; 924  : 			}
; 925  : 		return (*this);

  0006c	8b c6		 mov	 eax, esi
  0006e	5f		 pop	 edi
$LN3@assign@2:
  0006f	5e		 pop	 esi
  00070	5b		 pop	 ebx

; 926  : 		}

  00071	5d		 pop	 ebp
  00072	c2 08 00	 ret	 8
?assign@?$basic_string@DU?$char_traits@D@std@@V?$allocator@D@2@@std@@QAEAAV12@PBDI@Z ENDP ; std::basic_string<char,std::char_traits<char>,std::allocator<char> >::assign
_TEXT	ENDS
PUBLIC	??$_Destroy@V?$basic_string@DU?$char_traits@D@std@@V?$allocator@D@2@@std@@@std@@YAXPAV?$basic_string@DU?$char_traits@D@std@@V?$allocator@D@2@@0@@Z ; std::_Destroy<std::basic_string<char,std::char_traits<char>,std::allocator<char> > >
; Function compile flags: /Ogsp
; File c:\program files (x86)\microsoft visual studio 10.0\vc\include\xmemory
;	COMDAT ??$_Destroy@V?$basic_string@DU?$char_traits@D@std@@V?$allocator@D@2@@std@@@std@@YAXPAV?$basic_string@DU?$char_traits@D@std@@V?$allocator@D@2@@0@@Z
_TEXT	SEGMENT
__Ptr$ = 8						; size = 4
??$_Destroy@V?$basic_string@DU?$char_traits@D@std@@V?$allocator@D@2@@std@@@std@@YAXPAV?$basic_string@DU?$char_traits@D@std@@V?$allocator@D@2@@0@@Z PROC ; std::_Destroy<std::basic_string<char,std::char_traits<char>,std::allocator<char> > >, COMDAT

; 62   : 	{	// destroy object at _Ptr

  00000	55		 push	 ebp
  00001	8b ec		 mov	 ebp, esp

; 63   : 	_Ptr->~_Ty();

  00003	8b 4d 08	 mov	 ecx, DWORD PTR __Ptr$[ebp]
  00006	6a 00		 push	 0
  00008	6a 01		 push	 1
  0000a	e8 00 00 00 00	 call	 ?_Tidy@?$basic_string@DU?$char_traits@D@std@@V?$allocator@D@2@@std@@QAEX_NI@Z ; std::basic_string<char,std::char_traits<char>,std::allocator<char> >::_Tidy

; 64   : 	}

  0000f	5d		 pop	 ebp
  00010	c3		 ret	 0
??$_Destroy@V?$basic_string@DU?$char_traits@D@std@@V?$allocator@D@2@@std@@@std@@YAXPAV?$basic_string@DU?$char_traits@D@std@@V?$allocator@D@2@@0@@Z ENDP ; std::_Destroy<std::basic_string<char,std::char_traits<char>,std::allocator<char> > >
_TEXT	ENDS
PUBLIC	??0?$basic_string@DU?$char_traits@D@std@@V?$allocator@D@2@@std@@QAE@ABV01@@Z ; std::basic_string<char,std::char_traits<char>,std::allocator<char> >::basic_string<char,std::char_traits<char>,std::allocator<char> >
; Function compile flags: /Ogsp
; File c:\program files (x86)\microsoft visual studio 10.0\vc\include\xstring
;	COMDAT ??0?$basic_string@DU?$char_traits@D@std@@V?$allocator@D@2@@std@@QAE@ABV01@@Z
_TEXT	SEGMENT
__Right$ = 8						; size = 4
??0?$basic_string@DU?$char_traits@D@std@@V?$allocator@D@2@@std@@QAE@ABV01@@Z PROC ; std::basic_string<char,std::char_traits<char>,std::allocator<char> >::basic_string<char,std::char_traits<char>,std::allocator<char> >, COMDAT
; _this$ = ecx

; 543  : 		{	// construct by copying _Right

  00000	55		 push	 ebp
  00001	8b ec		 mov	 ebp, esp
  00003	56		 push	 esi

; 544  : 		_Tidy();

  00004	33 c0		 xor	 eax, eax

; 545  : 		assign(_Right, 0, npos);

  00006	6a ff		 push	 -1
  00008	8b f1		 mov	 esi, ecx
  0000a	50		 push	 eax
  0000b	ff 75 08	 push	 DWORD PTR __Right$[ebp]
  0000e	c7 46 14 0f 00
	00 00		 mov	 DWORD PTR [esi+20], 15	; 0000000fH
  00015	89 46 10	 mov	 DWORD PTR [esi+16], eax
  00018	88 06		 mov	 BYTE PTR [esi], al
  0001a	e8 00 00 00 00	 call	 ?assign@?$basic_string@DU?$char_traits@D@std@@V?$allocator@D@2@@std@@QAEAAV12@ABV12@II@Z ; std::basic_string<char,std::char_traits<char>,std::allocator<char> >::assign

; 546  : 		}

  0001f	8b c6		 mov	 eax, esi
  00021	5e		 pop	 esi
  00022	5d		 pop	 ebp
  00023	c2 04 00	 ret	 4
??0?$basic_string@DU?$char_traits@D@std@@V?$allocator@D@2@@std@@QAE@ABV01@@Z ENDP ; std::basic_string<char,std::char_traits<char>,std::allocator<char> >::basic_string<char,std::char_traits<char>,std::allocator<char> >
_TEXT	ENDS
PUBLIC	?assign@?$basic_string@DU?$char_traits@D@std@@V?$allocator@D@2@@std@@QAEAAV12@ABV12@@Z ; std::basic_string<char,std::char_traits<char>,std::allocator<char> >::assign
; Function compile flags: /Ogsp
;	COMDAT ?assign@?$basic_string@DU?$char_traits@D@std@@V?$allocator@D@2@@std@@QAEAAV12@ABV12@@Z
_TEXT	SEGMENT
__Right$ = 8						; size = 4
?assign@?$basic_string@DU?$char_traits@D@std@@V?$allocator@D@2@@std@@QAEAAV12@ABV12@@Z PROC ; std::basic_string<char,std::char_traits<char>,std::allocator<char> >::assign, COMDAT
; _this$ = ecx

; 887  : 		{	// assign _Right

  00000	55		 push	 ebp
  00001	8b ec		 mov	 ebp, esp

; 888  : 		return (assign(_Right, 0, npos));

  00003	6a ff		 push	 -1
  00005	6a 00		 push	 0
  00007	ff 75 08	 push	 DWORD PTR __Right$[ebp]
  0000a	e8 00 00 00 00	 call	 ?assign@?$basic_string@DU?$char_traits@D@std@@V?$allocator@D@2@@std@@QAEAAV12@ABV12@II@Z ; std::basic_string<char,std::char_traits<char>,std::allocator<char> >::assign

; 889  : 		}

  0000f	5d		 pop	 ebp
  00010	c2 04 00	 ret	 4
?assign@?$basic_string@DU?$char_traits@D@std@@V?$allocator@D@2@@std@@QAEAAV12@ABV12@@Z ENDP ; std::basic_string<char,std::char_traits<char>,std::allocator<char> >::assign
_TEXT	ENDS
PUBLIC	?assign@?$basic_string@DU?$char_traits@D@std@@V?$allocator@D@2@@std@@QAEAAV12@PBD@Z ; std::basic_string<char,std::char_traits<char>,std::allocator<char> >::assign
; Function compile flags: /Ogsp
;	COMDAT ?assign@?$basic_string@DU?$char_traits@D@std@@V?$allocator@D@2@@std@@QAEAAV12@PBD@Z
_TEXT	SEGMENT
__Ptr$ = 8						; size = 4
?assign@?$basic_string@DU?$char_traits@D@std@@V?$allocator@D@2@@std@@QAEAAV12@PBD@Z PROC ; std::basic_string<char,std::char_traits<char>,std::allocator<char> >::assign, COMDAT
; _this$ = ecx

; 929  : 		{	// assign [_Ptr, <null>)

  00000	55		 push	 ebp
  00001	8b ec		 mov	 ebp, esp

; 930  : 		_DEBUG_POINTER(_Ptr);
; 931  : 		return (assign(_Ptr, _Traits::length(_Ptr)));

  00003	8b 45 08	 mov	 eax, DWORD PTR __Ptr$[ebp]
  00006	8d 50 01	 lea	 edx, DWORD PTR [eax+1]
  00009	53		 push	 ebx
$LL5@assign@3:
  0000a	8a 18		 mov	 bl, BYTE PTR [eax]
  0000c	40		 inc	 eax
  0000d	84 db		 test	 bl, bl
  0000f	75 f9		 jne	 SHORT $LL5@assign@3
  00011	2b c2		 sub	 eax, edx
  00013	50		 push	 eax
  00014	ff 75 08	 push	 DWORD PTR __Ptr$[ebp]
  00017	e8 00 00 00 00	 call	 ?assign@?$basic_string@DU?$char_traits@D@std@@V?$allocator@D@2@@std@@QAEAAV12@PBDI@Z ; std::basic_string<char,std::char_traits<char>,std::allocator<char> >::assign
  0001c	5b		 pop	 ebx

; 932  : 		}

  0001d	5d		 pop	 ebp
  0001e	c2 04 00	 ret	 4
?assign@?$basic_string@DU?$char_traits@D@std@@V?$allocator@D@2@@std@@QAEAAV12@PBD@Z ENDP ; std::basic_string<char,std::char_traits<char>,std::allocator<char> >::assign
_TEXT	ENDS
PUBLIC	?destroy@?$allocator@V?$basic_string@DU?$char_traits@D@std@@V?$allocator@D@2@@std@@@std@@QAEXPAV?$basic_string@DU?$char_traits@D@std@@V?$allocator@D@2@@2@@Z ; std::allocator<std::basic_string<char,std::char_traits<char>,std::allocator<char> > >::destroy
; Function compile flags: /Ogsp
; File c:\program files (x86)\microsoft visual studio 10.0\vc\include\xmemory
;	COMDAT ?destroy@?$allocator@V?$basic_string@DU?$char_traits@D@std@@V?$allocator@D@2@@std@@@std@@QAEXPAV?$basic_string@DU?$char_traits@D@std@@V?$allocator@D@2@@2@@Z
_TEXT	SEGMENT
__Ptr$ = 8						; size = 4
?destroy@?$allocator@V?$basic_string@DU?$char_traits@D@std@@V?$allocator@D@2@@std@@@std@@QAEXPAV?$basic_string@DU?$char_traits@D@std@@V?$allocator@D@2@@2@@Z PROC ; std::allocator<std::basic_string<char,std::char_traits<char>,std::allocator<char> > >::destroy, COMDAT
; _this$ = ecx

; 212  : 		{	// destroy object at _Ptr

  00000	55		 push	 ebp
  00001	8b ec		 mov	 ebp, esp

; 213  : 		_Destroy(_Ptr);

  00003	8b 4d 08	 mov	 ecx, DWORD PTR __Ptr$[ebp]
  00006	6a 00		 push	 0
  00008	6a 01		 push	 1
  0000a	e8 00 00 00 00	 call	 ?_Tidy@?$basic_string@DU?$char_traits@D@std@@V?$allocator@D@2@@std@@QAEX_NI@Z ; std::basic_string<char,std::char_traits<char>,std::allocator<char> >::_Tidy

; 214  : 		}

  0000f	5d		 pop	 ebp
  00010	c2 04 00	 ret	 4
?destroy@?$allocator@V?$basic_string@DU?$char_traits@D@std@@V?$allocator@D@2@@std@@@std@@QAEXPAV?$basic_string@DU?$char_traits@D@std@@V?$allocator@D@2@@2@@Z ENDP ; std::allocator<std::basic_string<char,std::char_traits<char>,std::allocator<char> > >::destroy
_TEXT	ENDS
PUBLIC	??$construct@AAV?$basic_string@DU?$char_traits@D@std@@V?$allocator@D@2@@std@@@?$allocator@V?$basic_string@DU?$char_traits@D@std@@V?$allocator@D@2@@std@@@std@@QAEXPAV?$basic_string@DU?$char_traits@D@std@@V?$allocator@D@2@@1@AAV21@@Z ; std::allocator<std::basic_string<char,std::char_traits<char>,std::allocator<char> > >::construct<std::basic_string<char,std::char_traits<char>,std::allocator<char> > &>
;	COMDAT xdata$x
; File c:\program files (x86)\microsoft visual studio 10.0\vc\include\utility
xdata$x	SEGMENT
__unwindtable$??$construct@AAV?$basic_string@DU?$char_traits@D@std@@V?$allocator@D@2@@std@@@?$allocator@V?$basic_string@DU?$char_traits@D@std@@V?$allocator@D@2@@std@@@std@@QAEXPAV?$basic_string@DU?$char_traits@D@std@@V?$allocator@D@2@@1@AAV21@@Z DD 0ffffffffH
	DD	FLAT:__unwindfunclet$??$construct@AAV?$basic_string@DU?$char_traits@D@std@@V?$allocator@D@2@@std@@@?$allocator@V?$basic_string@DU?$char_traits@D@std@@V?$allocator@D@2@@std@@@std@@QAEXPAV?$basic_string@DU?$char_traits@D@std@@V?$allocator@D@2@@1@AAV21@@Z$0
__ehfuncinfo$??$construct@AAV?$basic_string@DU?$char_traits@D@std@@V?$allocator@D@2@@std@@@?$allocator@V?$basic_string@DU?$char_traits@D@std@@V?$allocator@D@2@@std@@@std@@QAEXPAV?$basic_string@DU?$char_traits@D@std@@V?$allocator@D@2@@1@AAV21@@Z DD 019930522H
	DD	01H
	DD	FLAT:__unwindtable$??$construct@AAV?$basic_string@DU?$char_traits@D@std@@V?$allocator@D@2@@std@@@?$allocator@V?$basic_string@DU?$char_traits@D@std@@V?$allocator@D@2@@std@@@std@@QAEXPAV?$basic_string@DU?$char_traits@D@std@@V?$allocator@D@2@@1@AAV21@@Z
	DD	2 DUP(00H)
	DD	2 DUP(00H)
	DD	00H
	DD	01H
; Function compile flags: /Ogsp
; File c:\program files (x86)\microsoft visual studio 10.0\vc\include\xmemory
xdata$x	ENDS
;	COMDAT ??$construct@AAV?$basic_string@DU?$char_traits@D@std@@V?$allocator@D@2@@std@@@?$allocator@V?$basic_string@DU?$char_traits@D@std@@V?$allocator@D@2@@std@@@std@@QAEXPAV?$basic_string@DU?$char_traits@D@std@@V?$allocator@D@2@@1@AAV21@@Z
_TEXT	SEGMENT
$T510155 = -16						; size = 4
__$EHRec$ = -12						; size = 12
__Ptr$ = 8						; size = 4
__Val$ = 12						; size = 4
??$construct@AAV?$basic_string@DU?$char_traits@D@std@@V?$allocator@D@2@@std@@@?$allocator@V?$basic_string@DU?$char_traits@D@std@@V?$allocator@D@2@@std@@@std@@QAEXPAV?$basic_string@DU?$char_traits@D@std@@V?$allocator@D@2@@1@AAV21@@Z PROC ; std::allocator<std::basic_string<char,std::char_traits<char>,std::allocator<char> > >::construct<std::basic_string<char,std::char_traits<char>,std::allocator<char> > &>, COMDAT
; _this$ = ecx

; 206  : 		void construct(pointer _Ptr, _Other&& _Val)

  00000	6a 04		 push	 4
  00002	b8 00 00 00 00	 mov	 eax, __ehhandler$??$construct@AAV?$basic_string@DU?$char_traits@D@std@@V?$allocator@D@2@@std@@@?$allocator@V?$basic_string@DU?$char_traits@D@std@@V?$allocator@D@2@@std@@@std@@QAEXPAV?$basic_string@DU?$char_traits@D@std@@V?$allocator@D@2@@1@AAV21@@Z
  00007	e8 00 00 00 00	 call	 __EH_prolog3

; 207  : 		{	// construct object at _Ptr with value _Val
; 208  : 		::new ((void _FARQ *)_Ptr) _Ty(_STD forward<_Other>(_Val));

  0000c	8b 4d 08	 mov	 ecx, DWORD PTR __Ptr$[ebp]
  0000f	89 4d f0	 mov	 DWORD PTR $T510155[ebp], ecx
  00012	83 65 fc 00	 and	 DWORD PTR __$EHRec$[ebp+8], 0
  00016	85 c9		 test	 ecx, ecx
  00018	74 08		 je	 SHORT $LN3@construct
  0001a	ff 75 0c	 push	 DWORD PTR __Val$[ebp]
  0001d	e8 00 00 00 00	 call	 ??0?$basic_string@DU?$char_traits@D@std@@V?$allocator@D@2@@std@@QAE@ABV01@@Z ; std::basic_string<char,std::char_traits<char>,std::allocator<char> >::basic_string<char,std::char_traits<char>,std::allocator<char> >
$LN3@construct:

; 209  : 		}

  00022	e8 00 00 00 00	 call	 __EH_epilog3
  00027	c2 08 00	 ret	 8
_TEXT	ENDS
;	COMDAT text$x
text$x	SEGMENT
__unwindfunclet$??$construct@AAV?$basic_string@DU?$char_traits@D@std@@V?$allocator@D@2@@std@@@?$allocator@V?$basic_string@DU?$char_traits@D@std@@V?$allocator@D@2@@std@@@std@@QAEXPAV?$basic_string@DU?$char_traits@D@std@@V?$allocator@D@2@@1@AAV21@@Z$0:
  00000	ff 75 08	 push	 DWORD PTR __Ptr$[ebp]
  00003	ff 75 f0	 push	 DWORD PTR $T510155[ebp]
  00006	e8 00 00 00 00	 call	 ??3@YAXPAX0@Z		; operator delete
  0000b	59		 pop	 ecx
  0000c	59		 pop	 ecx
  0000d	c3		 ret	 0
__ehhandler$??$construct@AAV?$basic_string@DU?$char_traits@D@std@@V?$allocator@D@2@@std@@@?$allocator@V?$basic_string@DU?$char_traits@D@std@@V?$allocator@D@2@@std@@@std@@QAEXPAV?$basic_string@DU?$char_traits@D@std@@V?$allocator@D@2@@1@AAV21@@Z:
  0000e	8b 54 24 08	 mov	 edx, DWORD PTR [esp+8]
  00012	8d 42 0c	 lea	 eax, DWORD PTR [edx+12]
  00015	8b 4a ec	 mov	 ecx, DWORD PTR [edx-20]
  00018	33 c8		 xor	 ecx, eax
  0001a	e8 00 00 00 00	 call	 @__security_check_cookie@4
  0001f	b8 00 00 00 00	 mov	 eax, OFFSET __ehfuncinfo$??$construct@AAV?$basic_string@DU?$char_traits@D@std@@V?$allocator@D@2@@std@@@?$allocator@V?$basic_string@DU?$char_traits@D@std@@V?$allocator@D@2@@std@@@std@@QAEXPAV?$basic_string@DU?$char_traits@D@std@@V?$allocator@D@2@@1@AAV21@@Z
  00024	e9 00 00 00 00	 jmp	 ___CxxFrameHandler3
text$x	ENDS
??$construct@AAV?$basic_string@DU?$char_traits@D@std@@V?$allocator@D@2@@std@@@?$allocator@V?$basic_string@DU?$char_traits@D@std@@V?$allocator@D@2@@std@@@std@@QAEXPAV?$basic_string@DU?$char_traits@D@std@@V?$allocator@D@2@@1@AAV21@@Z ENDP ; std::allocator<std::basic_string<char,std::char_traits<char>,std::allocator<char> > >::construct<std::basic_string<char,std::char_traits<char>,std::allocator<char> > &>
PUBLIC	??0?$basic_string@DU?$char_traits@D@std@@V?$allocator@D@2@@std@@QAE@PBD@Z ; std::basic_string<char,std::char_traits<char>,std::allocator<char> >::basic_string<char,std::char_traits<char>,std::allocator<char> >
; Function compile flags: /Ogsp
; File c:\program files (x86)\microsoft visual studio 10.0\vc\include\xstring
;	COMDAT ??0?$basic_string@DU?$char_traits@D@std@@V?$allocator@D@2@@std@@QAE@PBD@Z
_TEXT	SEGMENT
__Ptr$ = 8						; size = 4
??0?$basic_string@DU?$char_traits@D@std@@V?$allocator@D@2@@std@@QAE@PBD@Z PROC ; std::basic_string<char,std::char_traits<char>,std::allocator<char> >::basic_string<char,std::char_traits<char>,std::allocator<char> >, COMDAT
; _this$ = ecx

; 592  : 		{	// construct from [_Ptr, <null>)

  00000	55		 push	 ebp
  00001	8b ec		 mov	 ebp, esp
  00003	56		 push	 esi

; 593  : 		_Tidy();
; 594  : 		assign(_Ptr);

  00004	ff 75 08	 push	 DWORD PTR __Ptr$[ebp]
  00007	8b f1		 mov	 esi, ecx
  00009	83 66 10 00	 and	 DWORD PTR [esi+16], 0
  0000d	c7 46 14 0f 00
	00 00		 mov	 DWORD PTR [esi+20], 15	; 0000000fH
  00014	c6 06 00	 mov	 BYTE PTR [esi], 0
  00017	e8 00 00 00 00	 call	 ?assign@?$basic_string@DU?$char_traits@D@std@@V?$allocator@D@2@@std@@QAEAAV12@PBD@Z ; std::basic_string<char,std::char_traits<char>,std::allocator<char> >::assign

; 595  : 		}

  0001c	8b c6		 mov	 eax, esi
  0001e	5e		 pop	 esi
  0001f	5d		 pop	 ebp
  00020	c2 04 00	 ret	 4
??0?$basic_string@DU?$char_traits@D@std@@V?$allocator@D@2@@std@@QAE@PBD@Z ENDP ; std::basic_string<char,std::char_traits<char>,std::allocator<char> >::basic_string<char,std::char_traits<char>,std::allocator<char> >
_TEXT	ENDS
PUBLIC	??4?$basic_string@DU?$char_traits@D@std@@V?$allocator@D@2@@std@@QAEAAV01@ABV01@@Z ; std::basic_string<char,std::char_traits<char>,std::allocator<char> >::operator=
; Function compile flags: /Ogsp
;	COMDAT ??4?$basic_string@DU?$char_traits@D@std@@V?$allocator@D@2@@std@@QAEAAV01@ABV01@@Z
_TEXT	SEGMENT
__Right$ = 8						; size = 4
??4?$basic_string@DU?$char_traits@D@std@@V?$allocator@D@2@@std@@QAEAAV01@ABV01@@Z PROC ; std::basic_string<char,std::char_traits<char>,std::allocator<char> >::operator=, COMDAT
; _this$ = ecx

; 763  : 		{	// assign _Right

  00000	55		 push	 ebp
  00001	8b ec		 mov	 ebp, esp

; 764  : 		return (assign(_Right));

  00003	6a ff		 push	 -1
  00005	6a 00		 push	 0
  00007	ff 75 08	 push	 DWORD PTR __Right$[ebp]
  0000a	e8 00 00 00 00	 call	 ?assign@?$basic_string@DU?$char_traits@D@std@@V?$allocator@D@2@@std@@QAEAAV12@ABV12@II@Z ; std::basic_string<char,std::char_traits<char>,std::allocator<char> >::assign

; 765  : 		}

  0000f	5d		 pop	 ebp
  00010	c2 04 00	 ret	 4
??4?$basic_string@DU?$char_traits@D@std@@V?$allocator@D@2@@std@@QAEAAV01@ABV01@@Z ENDP ; std::basic_string<char,std::char_traits<char>,std::allocator<char> >::operator=
_TEXT	ENDS
PUBLIC	?assign@?$basic_string@DU?$char_traits@D@std@@V?$allocator@D@2@@std@@QAEAAV12@$$QAV12@@Z ; std::basic_string<char,std::char_traits<char>,std::allocator<char> >::assign
; Function compile flags: /Ogsp
;	COMDAT ?assign@?$basic_string@DU?$char_traits@D@std@@V?$allocator@D@2@@std@@QAEAAV12@$$QAV12@@Z
_TEXT	SEGMENT
__Right$ = 8						; size = 4
?assign@?$basic_string@DU?$char_traits@D@std@@V?$allocator@D@2@@std@@QAEAAV12@$$QAV12@@Z PROC ; std::basic_string<char,std::char_traits<char>,std::allocator<char> >::assign, COMDAT
; _this$ = ecx

; 713  : 		{	// assign by moving _Right

  00000	55		 push	 ebp
  00001	8b ec		 mov	 ebp, esp
  00003	56		 push	 esi

; 714  : 		if (this == &_Right)

  00004	8b 75 08	 mov	 esi, DWORD PTR __Right$[ebp]
  00007	57		 push	 edi
  00008	8b f9		 mov	 edi, ecx
  0000a	3b fe		 cmp	 edi, esi
  0000c	74 3c		 je	 SHORT $LN3@assign@4

; 715  : 			;
; 716  : 		else if (get_allocator() != _Right.get_allocator()
; 717  : 			&& this->_BUF_SIZE <= _Right._Myres)
; 718  : 			*this = _Right;
; 719  : 		else
; 720  : 			{	// not same, clear this and steal from _Right
; 721  : 			_Tidy(true);

  0000e	6a 00		 push	 0
  00010	6a 01		 push	 1
  00012	e8 00 00 00 00	 call	 ?_Tidy@?$basic_string@DU?$char_traits@D@std@@V?$allocator@D@2@@std@@QAEX_NI@Z ; std::basic_string<char,std::char_traits<char>,std::allocator<char> >::_Tidy

; 722  : 			if (_Right._Myres < this->_BUF_SIZE)

  00017	83 7e 14 10	 cmp	 DWORD PTR [esi+20], 16	; 00000010H
  0001b	73 12		 jae	 SHORT $LN2@assign@4

; 723  : 				_Traits::move(this->_Bx._Buf, _Right._Bx._Buf,
; 724  : 					_Right._Mysize + 1);

  0001d	8b 46 10	 mov	 eax, DWORD PTR [esi+16]
  00020	40		 inc	 eax
  00021	50		 push	 eax
  00022	56		 push	 esi
  00023	57		 push	 edi
  00024	ff 15 00 00 00
	00		 call	 DWORD PTR __imp__memmove
  0002a	83 c4 0c	 add	 esp, 12			; 0000000cH

; 725  : 			else

  0002d	eb 07		 jmp	 SHORT $LN1@assign@4
$LN2@assign@4:

; 726  : 				{	// copy pointer
; 727  : 				this->_Bx._Ptr = _Right._Bx._Ptr;

  0002f	8b 06		 mov	 eax, DWORD PTR [esi]
  00031	89 07		 mov	 DWORD PTR [edi], eax

; 728  : 				_Right._Bx._Ptr = 0;

  00033	83 26 00	 and	 DWORD PTR [esi], 0
$LN1@assign@4:

; 729  : 				}
; 730  : 			this->_Mysize = _Right._Mysize;

  00036	8b 46 10	 mov	 eax, DWORD PTR [esi+16]
  00039	89 47 10	 mov	 DWORD PTR [edi+16], eax

; 731  : 			this->_Myres = _Right._Myres;

  0003c	8b 46 14	 mov	 eax, DWORD PTR [esi+20]
  0003f	89 47 14	 mov	 DWORD PTR [edi+20], eax

; 732  : 
; 733  : 			_Right._Mysize = 0;

  00042	83 66 10 00	 and	 DWORD PTR [esi+16], 0

; 734  : 			_Right._Myres = 0;

  00046	83 66 14 00	 and	 DWORD PTR [esi+20], 0
$LN3@assign@4:

; 735  : 			}
; 736  : 		return (*this);

  0004a	8b c7		 mov	 eax, edi
  0004c	5f		 pop	 edi
  0004d	5e		 pop	 esi

; 737  : 		}

  0004e	5d		 pop	 ebp
  0004f	c2 04 00	 ret	 4
?assign@?$basic_string@DU?$char_traits@D@std@@V?$allocator@D@2@@std@@QAEAAV12@$$QAV12@@Z ENDP ; std::basic_string<char,std::char_traits<char>,std::allocator<char> >::assign
_TEXT	ENDS
PUBLIC	??$_Dest_val@V?$allocator@V?$basic_string@DU?$char_traits@D@std@@V?$allocator@D@2@@std@@@std@@V?$basic_string@DU?$char_traits@D@std@@V?$allocator@D@2@@2@@std@@YAXAAV?$allocator@V?$basic_string@DU?$char_traits@D@std@@V?$allocator@D@2@@std@@@0@PAV?$basic_string@DU?$char_traits@D@std@@V?$allocator@D@2@@0@@Z ; std::_Dest_val<std::allocator<std::basic_string<char,std::char_traits<char>,std::allocator<char> > >,std::basic_string<char,std::char_traits<char>,std::allocator<char> > >
; Function compile flags: /Ogsp
; File c:\program files (x86)\microsoft visual studio 10.0\vc\include\xmemory
;	COMDAT ??$_Dest_val@V?$allocator@V?$basic_string@DU?$char_traits@D@std@@V?$allocator@D@2@@std@@@std@@V?$basic_string@DU?$char_traits@D@std@@V?$allocator@D@2@@2@@std@@YAXAAV?$allocator@V?$basic_string@DU?$char_traits@D@std@@V?$allocator@D@2@@std@@@0@PAV?$basic_string@DU?$char_traits@D@std@@V?$allocator@D@2@@0@@Z
_TEXT	SEGMENT
__Alval$ = 8						; size = 4
__Pdest$ = 12						; size = 4
??$_Dest_val@V?$allocator@V?$basic_string@DU?$char_traits@D@std@@V?$allocator@D@2@@std@@@std@@V?$basic_string@DU?$char_traits@D@std@@V?$allocator@D@2@@2@@std@@YAXAAV?$allocator@V?$basic_string@DU?$char_traits@D@std@@V?$allocator@D@2@@std@@@0@PAV?$basic_string@DU?$char_traits@D@std@@V?$allocator@D@2@@0@@Z PROC ; std::_Dest_val<std::allocator<std::basic_string<char,std::char_traits<char>,std::allocator<char> > >,std::basic_string<char,std::char_traits<char>,std::allocator<char> > >, COMDAT

; 286  : 	{	// destroy using allocator

  00000	55		 push	 ebp
  00001	8b ec		 mov	 ebp, esp

; 287  : 	_Alval.destroy(_Pdest);

  00003	8b 4d 0c	 mov	 ecx, DWORD PTR __Pdest$[ebp]
  00006	6a 00		 push	 0
  00008	6a 01		 push	 1
  0000a	e8 00 00 00 00	 call	 ?_Tidy@?$basic_string@DU?$char_traits@D@std@@V?$allocator@D@2@@std@@QAEX_NI@Z ; std::basic_string<char,std::char_traits<char>,std::allocator<char> >::_Tidy

; 288  : 	}

  0000f	5d		 pop	 ebp
  00010	c3		 ret	 0
??$_Dest_val@V?$allocator@V?$basic_string@DU?$char_traits@D@std@@V?$allocator@D@2@@std@@@std@@V?$basic_string@DU?$char_traits@D@std@@V?$allocator@D@2@@2@@std@@YAXAAV?$allocator@V?$basic_string@DU?$char_traits@D@std@@V?$allocator@D@2@@std@@@0@PAV?$basic_string@DU?$char_traits@D@std@@V?$allocator@D@2@@0@@Z ENDP ; std::_Dest_val<std::allocator<std::basic_string<char,std::char_traits<char>,std::allocator<char> > >,std::basic_string<char,std::char_traits<char>,std::allocator<char> > >
_TEXT	ENDS
PUBLIC	??$_Copy_impl@PAV?$basic_string@DU?$char_traits@D@std@@V?$allocator@D@2@@std@@PAV12@@std@@YAPAV?$basic_string@DU?$char_traits@D@std@@V?$allocator@D@2@@0@PAV10@00U_Nonscalar_ptr_iterator_tag@0@@Z ; std::_Copy_impl<std::basic_string<char,std::char_traits<char>,std::allocator<char> > *,std::basic_string<char,std::char_traits<char>,std::allocator<char> > *>
; Function compile flags: /Ogsp
; File c:\program files (x86)\microsoft visual studio 10.0\vc\include\xutility
;	COMDAT ??$_Copy_impl@PAV?$basic_string@DU?$char_traits@D@std@@V?$allocator@D@2@@std@@PAV12@@std@@YAPAV?$basic_string@DU?$char_traits@D@std@@V?$allocator@D@2@@0@PAV10@00U_Nonscalar_ptr_iterator_tag@0@@Z
_TEXT	SEGMENT
__First$ = 8						; size = 4
__Last$ = 12						; size = 4
__Dest$ = 16						; size = 4
___formal$ = 20						; size = 1
??$_Copy_impl@PAV?$basic_string@DU?$char_traits@D@std@@V?$allocator@D@2@@std@@PAV12@@std@@YAPAV?$basic_string@DU?$char_traits@D@std@@V?$allocator@D@2@@0@PAV10@00U_Nonscalar_ptr_iterator_tag@0@@Z PROC ; std::_Copy_impl<std::basic_string<char,std::char_traits<char>,std::allocator<char> > *,std::basic_string<char,std::char_traits<char>,std::allocator<char> > *>, COMDAT

; 2142 : 	{	// copy [_First, _Last) to [_Dest, ...), arbitrary iterators

  00000	55		 push	 ebp
  00001	8b ec		 mov	 ebp, esp
  00003	56		 push	 esi

; 2143 : 	for (; _First != _Last; ++_Dest, ++_First)

  00004	8b 75 08	 mov	 esi, DWORD PTR __First$[ebp]
  00007	eb 14		 jmp	 SHORT $LN13@Copy_impl
$LL3@Copy_impl:

; 2144 : 		*_Dest = *_First;

  00009	8b 4d 10	 mov	 ecx, DWORD PTR __Dest$[ebp]
  0000c	6a ff		 push	 -1
  0000e	6a 00		 push	 0
  00010	56		 push	 esi
  00011	e8 00 00 00 00	 call	 ?assign@?$basic_string@DU?$char_traits@D@std@@V?$allocator@D@2@@std@@QAEAAV12@ABV12@II@Z ; std::basic_string<char,std::char_traits<char>,std::allocator<char> >::assign
  00016	83 45 10 1c	 add	 DWORD PTR __Dest$[ebp], 28 ; 0000001cH
  0001a	83 c6 1c	 add	 esi, 28			; 0000001cH
$LN13@Copy_impl:

; 2143 : 	for (; _First != _Last; ++_Dest, ++_First)

  0001d	3b 75 0c	 cmp	 esi, DWORD PTR __Last$[ebp]
  00020	75 e7		 jne	 SHORT $LL3@Copy_impl

; 2145 : 	return (_Dest);

  00022	8b 45 10	 mov	 eax, DWORD PTR __Dest$[ebp]
  00025	5e		 pop	 esi

; 2146 : 	}

  00026	5d		 pop	 ebp
  00027	c3		 ret	 0
??$_Copy_impl@PAV?$basic_string@DU?$char_traits@D@std@@V?$allocator@D@2@@std@@PAV12@@std@@YAPAV?$basic_string@DU?$char_traits@D@std@@V?$allocator@D@2@@0@PAV10@00U_Nonscalar_ptr_iterator_tag@0@@Z ENDP ; std::_Copy_impl<std::basic_string<char,std::char_traits<char>,std::allocator<char> > *,std::basic_string<char,std::char_traits<char>,std::allocator<char> > *>
_TEXT	ENDS
PUBLIC	??$_Cons_val@V?$allocator@V?$basic_string@DU?$char_traits@D@std@@V?$allocator@D@2@@std@@@std@@V?$basic_string@DU?$char_traits@D@std@@V?$allocator@D@2@@2@AAV32@@std@@YAXAAV?$allocator@V?$basic_string@DU?$char_traits@D@std@@V?$allocator@D@2@@std@@@0@PAV?$basic_string@DU?$char_traits@D@std@@V?$allocator@D@2@@0@AAV20@@Z ; std::_Cons_val<std::allocator<std::basic_string<char,std::char_traits<char>,std::allocator<char> > >,std::basic_string<char,std::char_traits<char>,std::allocator<char> >,std::basic_string<char,std::char_traits<char>,std::allocator<char> > &>
;	COMDAT xdata$x
; File c:\program files (x86)\microsoft visual studio 10.0\vc\include\utility
xdata$x	SEGMENT
__unwindtable$??$_Cons_val@V?$allocator@V?$basic_string@DU?$char_traits@D@std@@V?$allocator@D@2@@std@@@std@@V?$basic_string@DU?$char_traits@D@std@@V?$allocator@D@2@@2@AAV32@@std@@YAXAAV?$allocator@V?$basic_string@DU?$char_traits@D@std@@V?$allocator@D@2@@std@@@0@PAV?$basic_string@DU?$char_traits@D@std@@V?$allocator@D@2@@0@AAV20@@Z DD 0ffffffffH
	DD	FLAT:__unwindfunclet$??$_Cons_val@V?$allocator@V?$basic_string@DU?$char_traits@D@std@@V?$allocator@D@2@@std@@@std@@V?$basic_string@DU?$char_traits@D@std@@V?$allocator@D@2@@2@AAV32@@std@@YAXAAV?$allocator@V?$basic_string@DU?$char_traits@D@std@@V?$allocator@D@2@@std@@@0@PAV?$basic_string@DU?$char_traits@D@std@@V?$allocator@D@2@@0@AAV20@@Z$0
__ehfuncinfo$??$_Cons_val@V?$allocator@V?$basic_string@DU?$char_traits@D@std@@V?$allocator@D@2@@std@@@std@@V?$basic_string@DU?$char_traits@D@std@@V?$allocator@D@2@@2@AAV32@@std@@YAXAAV?$allocator@V?$basic_string@DU?$char_traits@D@std@@V?$allocator@D@2@@std@@@0@PAV?$basic_string@DU?$char_traits@D@std@@V?$allocator@D@2@@0@AAV20@@Z DD 019930522H
	DD	01H
	DD	FLAT:__unwindtable$??$_Cons_val@V?$allocator@V?$basic_string@DU?$char_traits@D@std@@V?$allocator@D@2@@std@@@std@@V?$basic_string@DU?$char_traits@D@std@@V?$allocator@D@2@@2@AAV32@@std@@YAXAAV?$allocator@V?$basic_string@DU?$char_traits@D@std@@V?$allocator@D@2@@std@@@0@PAV?$basic_string@DU?$char_traits@D@std@@V?$allocator@D@2@@0@AAV20@@Z
	DD	2 DUP(00H)
	DD	2 DUP(00H)
	DD	00H
	DD	01H
; Function compile flags: /Ogsp
; File c:\program files (x86)\microsoft visual studio 10.0\vc\include\xmemory
xdata$x	ENDS
;	COMDAT ??$_Cons_val@V?$allocator@V?$basic_string@DU?$char_traits@D@std@@V?$allocator@D@2@@std@@@std@@V?$basic_string@DU?$char_traits@D@std@@V?$allocator@D@2@@2@AAV32@@std@@YAXAAV?$allocator@V?$basic_string@DU?$char_traits@D@std@@V?$allocator@D@2@@std@@@0@PAV?$basic_string@DU?$char_traits@D@std@@V?$allocator@D@2@@0@AAV20@@Z
_TEXT	SEGMENT
$T510355 = -16						; size = 4
__$EHRec$ = -12						; size = 12
__Alval$ = 8						; size = 4
__Pdest$ = 12						; size = 4
__Src$ = 16						; size = 4
??$_Cons_val@V?$allocator@V?$basic_string@DU?$char_traits@D@std@@V?$allocator@D@2@@std@@@std@@V?$basic_string@DU?$char_traits@D@std@@V?$allocator@D@2@@2@AAV32@@std@@YAXAAV?$allocator@V?$basic_string@DU?$char_traits@D@std@@V?$allocator@D@2@@std@@@0@PAV?$basic_string@DU?$char_traits@D@std@@V?$allocator@D@2@@0@AAV20@@Z PROC ; std::_Cons_val<std::allocator<std::basic_string<char,std::char_traits<char>,std::allocator<char> > >,std::basic_string<char,std::char_traits<char>,std::allocator<char> >,std::basic_string<char,std::char_traits<char>,std::allocator<char> > &>, COMDAT

; 279  : 	{	// construct using allocator

  00000	6a 04		 push	 4
  00002	b8 00 00 00 00	 mov	 eax, __ehhandler$??$_Cons_val@V?$allocator@V?$basic_string@DU?$char_traits@D@std@@V?$allocator@D@2@@std@@@std@@V?$basic_string@DU?$char_traits@D@std@@V?$allocator@D@2@@2@AAV32@@std@@YAXAAV?$allocator@V?$basic_string@DU?$char_traits@D@std@@V?$allocator@D@2@@std@@@0@PAV?$basic_string@DU?$char_traits@D@std@@V?$allocator@D@2@@0@AAV20@@Z
  00007	e8 00 00 00 00	 call	 __EH_prolog3

; 280  : 	_Alval.construct(_Pdest, _STD forward<_Ty2>(_Src));

  0000c	8b 4d 0c	 mov	 ecx, DWORD PTR __Pdest$[ebp]
  0000f	89 4d f0	 mov	 DWORD PTR $T510355[ebp], ecx
  00012	83 65 fc 00	 and	 DWORD PTR __$EHRec$[ebp+8], 0
  00016	85 c9		 test	 ecx, ecx
  00018	74 08		 je	 SHORT $LN7@Cons_val
  0001a	ff 75 10	 push	 DWORD PTR __Src$[ebp]
  0001d	e8 00 00 00 00	 call	 ??0?$basic_string@DU?$char_traits@D@std@@V?$allocator@D@2@@std@@QAE@ABV01@@Z ; std::basic_string<char,std::char_traits<char>,std::allocator<char> >::basic_string<char,std::char_traits<char>,std::allocator<char> >
$LN7@Cons_val:

; 281  : 	}

  00022	e8 00 00 00 00	 call	 __EH_epilog3
  00027	c3		 ret	 0
_TEXT	ENDS
;	COMDAT text$x
text$x	SEGMENT
__unwindfunclet$??$_Cons_val@V?$allocator@V?$basic_string@DU?$char_traits@D@std@@V?$allocator@D@2@@std@@@std@@V?$basic_string@DU?$char_traits@D@std@@V?$allocator@D@2@@2@AAV32@@std@@YAXAAV?$allocator@V?$basic_string@DU?$char_traits@D@std@@V?$allocator@D@2@@std@@@0@PAV?$basic_string@DU?$char_traits@D@std@@V?$allocator@D@2@@0@AAV20@@Z$0:
  00000	ff 75 0c	 push	 DWORD PTR __Pdest$[ebp]
  00003	ff 75 f0	 push	 DWORD PTR $T510355[ebp]
  00006	e8 00 00 00 00	 call	 ??3@YAXPAX0@Z		; operator delete
  0000b	59		 pop	 ecx
  0000c	59		 pop	 ecx
  0000d	c3		 ret	 0
__ehhandler$??$_Cons_val@V?$allocator@V?$basic_string@DU?$char_traits@D@std@@V?$allocator@D@2@@std@@@std@@V?$basic_string@DU?$char_traits@D@std@@V?$allocator@D@2@@2@AAV32@@std@@YAXAAV?$allocator@V?$basic_string@DU?$char_traits@D@std@@V?$allocator@D@2@@std@@@0@PAV?$basic_string@DU?$char_traits@D@std@@V?$allocator@D@2@@0@AAV20@@Z:
  0000e	8b 54 24 08	 mov	 edx, DWORD PTR [esp+8]
  00012	8d 42 0c	 lea	 eax, DWORD PTR [edx+12]
  00015	8b 4a ec	 mov	 ecx, DWORD PTR [edx-20]
  00018	33 c8		 xor	 ecx, eax
  0001a	e8 00 00 00 00	 call	 @__security_check_cookie@4
  0001f	b8 00 00 00 00	 mov	 eax, OFFSET __ehfuncinfo$??$_Cons_val@V?$allocator@V?$basic_string@DU?$char_traits@D@std@@V?$allocator@D@2@@std@@@std@@V?$basic_string@DU?$char_traits@D@std@@V?$allocator@D@2@@2@AAV32@@std@@YAXAAV?$allocator@V?$basic_string@DU?$char_traits@D@std@@V?$allocator@D@2@@std@@@0@PAV?$basic_string@DU?$char_traits@D@std@@V?$allocator@D@2@@0@AAV20@@Z
  00024	e9 00 00 00 00	 jmp	 ___CxxFrameHandler3
text$x	ENDS
??$_Cons_val@V?$allocator@V?$basic_string@DU?$char_traits@D@std@@V?$allocator@D@2@@std@@@std@@V?$basic_string@DU?$char_traits@D@std@@V?$allocator@D@2@@2@AAV32@@std@@YAXAAV?$allocator@V?$basic_string@DU?$char_traits@D@std@@V?$allocator@D@2@@std@@@0@PAV?$basic_string@DU?$char_traits@D@std@@V?$allocator@D@2@@0@AAV20@@Z ENDP ; std::_Cons_val<std::allocator<std::basic_string<char,std::char_traits<char>,std::allocator<char> > >,std::basic_string<char,std::char_traits<char>,std::allocator<char> >,std::basic_string<char,std::char_traits<char>,std::allocator<char> > &>
PUBLIC	??4?$basic_string@DU?$char_traits@D@std@@V?$allocator@D@2@@std@@QAEAAV01@$$QAV01@@Z ; std::basic_string<char,std::char_traits<char>,std::allocator<char> >::operator=
; Function compile flags: /Ogsp
; File c:\program files (x86)\microsoft visual studio 10.0\vc\include\xstring
;	COMDAT ??4?$basic_string@DU?$char_traits@D@std@@V?$allocator@D@2@@std@@QAEAAV01@$$QAV01@@Z
_TEXT	SEGMENT
__Right$ = 8						; size = 4
??4?$basic_string@DU?$char_traits@D@std@@V?$allocator@D@2@@std@@QAEAAV01@$$QAV01@@Z PROC ; std::basic_string<char,std::char_traits<char>,std::allocator<char> >::operator=, COMDAT
; _this$ = ecx

; 708  : 		{	// assign by moving _Right

  00000	55		 push	 ebp
  00001	8b ec		 mov	 ebp, esp

; 710  : 		}

  00003	5d		 pop	 ebp

; 709  : 		return (assign(_STD forward<_Myt>(_Right)));

  00004	e9 00 00 00 00	 jmp	 ?assign@?$basic_string@DU?$char_traits@D@std@@V?$allocator@D@2@@std@@QAEAAV12@$$QAV12@@Z ; std::basic_string<char,std::char_traits<char>,std::allocator<char> >::assign
??4?$basic_string@DU?$char_traits@D@std@@V?$allocator@D@2@@std@@QAEAAV01@$$QAV01@@Z ENDP ; std::basic_string<char,std::char_traits<char>,std::allocator<char> >::operator=
_TEXT	ENDS
PUBLIC	??$_Destroy_range@V?$allocator@V?$basic_string@DU?$char_traits@D@std@@V?$allocator@D@2@@std@@@std@@@std@@YAXPAV?$basic_string@DU?$char_traits@D@std@@V?$allocator@D@2@@0@0AAV?$allocator@V?$basic_string@DU?$char_traits@D@std@@V?$allocator@D@2@@std@@@0@U_Nonscalar_ptr_iterator_tag@0@@Z ; std::_Destroy_range<std::allocator<std::basic_string<char,std::char_traits<char>,std::allocator<char> > > >
; Function compile flags: /Ogsp
; File c:\program files (x86)\microsoft visual studio 10.0\vc\include\xmemory
;	COMDAT ??$_Destroy_range@V?$allocator@V?$basic_string@DU?$char_traits@D@std@@V?$allocator@D@2@@std@@@std@@@std@@YAXPAV?$basic_string@DU?$char_traits@D@std@@V?$allocator@D@2@@0@0AAV?$allocator@V?$basic_string@DU?$char_traits@D@std@@V?$allocator@D@2@@std@@@0@U_Nonscalar_ptr_iterator_tag@0@@Z
_TEXT	SEGMENT
__First$ = 8						; size = 4
__Last$ = 12						; size = 4
__Al$ = 16						; size = 4
___formal$ = 20						; size = 1
??$_Destroy_range@V?$allocator@V?$basic_string@DU?$char_traits@D@std@@V?$allocator@D@2@@std@@@std@@@std@@YAXPAV?$basic_string@DU?$char_traits@D@std@@V?$allocator@D@2@@0@0AAV?$allocator@V?$basic_string@DU?$char_traits@D@std@@V?$allocator@D@2@@std@@@0@U_Nonscalar_ptr_iterator_tag@0@@Z PROC ; std::_Destroy_range<std::allocator<std::basic_string<char,std::char_traits<char>,std::allocator<char> > > >, COMDAT

; 95   : 	{	// destroy [_First, _Last), arbitrary type

  00000	55		 push	 ebp
  00001	8b ec		 mov	 ebp, esp
  00003	56		 push	 esi

; 96   : 	for (; _First != _Last; ++_First)

  00004	8b 75 08	 mov	 esi, DWORD PTR __First$[ebp]
  00007	eb 0e		 jmp	 SHORT $LN21@Destroy_ra
$LL3@Destroy_ra:

; 97   : 		_Dest_val(_Al, _First);

  00009	6a 00		 push	 0
  0000b	6a 01		 push	 1
  0000d	8b ce		 mov	 ecx, esi
  0000f	e8 00 00 00 00	 call	 ?_Tidy@?$basic_string@DU?$char_traits@D@std@@V?$allocator@D@2@@std@@QAEX_NI@Z ; std::basic_string<char,std::char_traits<char>,std::allocator<char> >::_Tidy
  00014	83 c6 1c	 add	 esi, 28			; 0000001cH
$LN21@Destroy_ra:

; 96   : 	for (; _First != _Last; ++_First)

  00017	3b 75 0c	 cmp	 esi, DWORD PTR __Last$[ebp]
  0001a	75 ed		 jne	 SHORT $LL3@Destroy_ra
  0001c	5e		 pop	 esi

; 98   : 	}

  0001d	5d		 pop	 ebp
  0001e	c3		 ret	 0
??$_Destroy_range@V?$allocator@V?$basic_string@DU?$char_traits@D@std@@V?$allocator@D@2@@std@@@std@@@std@@YAXPAV?$basic_string@DU?$char_traits@D@std@@V?$allocator@D@2@@0@0AAV?$allocator@V?$basic_string@DU?$char_traits@D@std@@V?$allocator@D@2@@std@@@0@U_Nonscalar_ptr_iterator_tag@0@@Z ENDP ; std::_Destroy_range<std::allocator<std::basic_string<char,std::char_traits<char>,std::allocator<char> > > >
_TEXT	ENDS
PUBLIC	??$_Copy_impl@PAV?$basic_string@DU?$char_traits@D@std@@V?$allocator@D@2@@std@@PAV12@@std@@YAPAV?$basic_string@DU?$char_traits@D@std@@V?$allocator@D@2@@0@PAV10@00@Z ; std::_Copy_impl<std::basic_string<char,std::char_traits<char>,std::allocator<char> > *,std::basic_string<char,std::char_traits<char>,std::allocator<char> > *>
; Function compile flags: /Ogsp
; File c:\program files (x86)\microsoft visual studio 10.0\vc\include\xutility
;	COMDAT ??$_Copy_impl@PAV?$basic_string@DU?$char_traits@D@std@@V?$allocator@D@2@@std@@PAV12@@std@@YAPAV?$basic_string@DU?$char_traits@D@std@@V?$allocator@D@2@@0@PAV10@00@Z
_TEXT	SEGMENT
__Cat$510437 = -4					; size = 1
__First$ = 8						; size = 4
__Last$ = 12						; size = 4
__Dest$ = 16						; size = 4
??$_Copy_impl@PAV?$basic_string@DU?$char_traits@D@std@@V?$allocator@D@2@@std@@PAV12@@std@@YAPAV?$basic_string@DU?$char_traits@D@std@@V?$allocator@D@2@@0@PAV10@00@Z PROC ; std::_Copy_impl<std::basic_string<char,std::char_traits<char>,std::allocator<char> > *,std::basic_string<char,std::char_traits<char>,std::allocator<char> > *>, COMDAT

; 2163 : 	{	// copy [_First, _Last) to [_Dest, ...)

  00000	55		 push	 ebp
  00001	8b ec		 mov	 ebp, esp
  00003	51		 push	 ecx

; 2164 : 	return (_Copy_impl(_First, _Last,
; 2165 : 		_Dest, _Ptr_cat(_First, _Dest)));

  00004	ff 75 fc	 push	 DWORD PTR __Cat$510437[ebp]
  00007	ff 75 10	 push	 DWORD PTR __Dest$[ebp]
  0000a	ff 75 0c	 push	 DWORD PTR __Last$[ebp]
  0000d	ff 75 08	 push	 DWORD PTR __First$[ebp]
  00010	e8 00 00 00 00	 call	 ??$_Copy_impl@PAV?$basic_string@DU?$char_traits@D@std@@V?$allocator@D@2@@std@@PAV12@@std@@YAPAV?$basic_string@DU?$char_traits@D@std@@V?$allocator@D@2@@0@PAV10@00U_Nonscalar_ptr_iterator_tag@0@@Z ; std::_Copy_impl<std::basic_string<char,std::char_traits<char>,std::allocator<char> > *,std::basic_string<char,std::char_traits<char>,std::allocator<char> > *>
  00015	83 c4 10	 add	 esp, 16			; 00000010H

; 2166 : 	}

  00018	c9		 leave
  00019	c3		 ret	 0
??$_Copy_impl@PAV?$basic_string@DU?$char_traits@D@std@@V?$allocator@D@2@@std@@PAV12@@std@@YAPAV?$basic_string@DU?$char_traits@D@std@@V?$allocator@D@2@@0@PAV10@00@Z ENDP ; std::_Copy_impl<std::basic_string<char,std::char_traits<char>,std::allocator<char> > *,std::basic_string<char,std::char_traits<char>,std::allocator<char> > *>
_TEXT	ENDS
PUBLIC	??$_Move@PAV?$basic_string@DU?$char_traits@D@std@@V?$allocator@D@2@@std@@PAV12@@std@@YAPAV?$basic_string@DU?$char_traits@D@std@@V?$allocator@D@2@@0@PAV10@00U_Nonscalar_ptr_iterator_tag@0@@Z ; std::_Move<std::basic_string<char,std::char_traits<char>,std::allocator<char> > *,std::basic_string<char,std::char_traits<char>,std::allocator<char> > *>
; Function compile flags: /Ogsp
;	COMDAT ??$_Move@PAV?$basic_string@DU?$char_traits@D@std@@V?$allocator@D@2@@std@@PAV12@@std@@YAPAV?$basic_string@DU?$char_traits@D@std@@V?$allocator@D@2@@0@PAV10@00U_Nonscalar_ptr_iterator_tag@0@@Z
_TEXT	SEGMENT
__First$ = 8						; size = 4
__Last$ = 12						; size = 4
__Dest$ = 16						; size = 4
___formal$ = 20						; size = 1
??$_Move@PAV?$basic_string@DU?$char_traits@D@std@@V?$allocator@D@2@@std@@PAV12@@std@@YAPAV?$basic_string@DU?$char_traits@D@std@@V?$allocator@D@2@@0@PAV10@00U_Nonscalar_ptr_iterator_tag@0@@Z PROC ; std::_Move<std::basic_string<char,std::char_traits<char>,std::allocator<char> > *,std::basic_string<char,std::char_traits<char>,std::allocator<char> > *>, COMDAT

; 2512 : 	{	// move [_First, _Last) to [_Dest, ...), arbitrary iterators

  00000	55		 push	 ebp
  00001	8b ec		 mov	 ebp, esp
  00003	56		 push	 esi

; 2513 : 	for (; _First != _Last; ++_Dest, ++_First)

  00004	8b 75 08	 mov	 esi, DWORD PTR __First$[ebp]
  00007	eb 10		 jmp	 SHORT $LN15@Move
$LL3@Move:

; 2514 : 		*_Dest = _STD move(*_First);

  00009	8b 4d 10	 mov	 ecx, DWORD PTR __Dest$[ebp]
  0000c	56		 push	 esi
  0000d	e8 00 00 00 00	 call	 ?assign@?$basic_string@DU?$char_traits@D@std@@V?$allocator@D@2@@std@@QAEAAV12@$$QAV12@@Z ; std::basic_string<char,std::char_traits<char>,std::allocator<char> >::assign
  00012	83 45 10 1c	 add	 DWORD PTR __Dest$[ebp], 28 ; 0000001cH
  00016	83 c6 1c	 add	 esi, 28			; 0000001cH
$LN15@Move:

; 2513 : 	for (; _First != _Last; ++_Dest, ++_First)

  00019	3b 75 0c	 cmp	 esi, DWORD PTR __Last$[ebp]
  0001c	75 eb		 jne	 SHORT $LL3@Move

; 2515 : 	return (_Dest);

  0001e	8b 45 10	 mov	 eax, DWORD PTR __Dest$[ebp]
  00021	5e		 pop	 esi

; 2516 : 	}

  00022	5d		 pop	 ebp
  00023	c3		 ret	 0
??$_Move@PAV?$basic_string@DU?$char_traits@D@std@@V?$allocator@D@2@@std@@PAV12@@std@@YAPAV?$basic_string@DU?$char_traits@D@std@@V?$allocator@D@2@@0@PAV10@00U_Nonscalar_ptr_iterator_tag@0@@Z ENDP ; std::_Move<std::basic_string<char,std::char_traits<char>,std::allocator<char> > *,std::basic_string<char,std::char_traits<char>,std::allocator<char> > *>
_TEXT	ENDS
PUBLIC	??$_Uninit_copy@PAV?$basic_string@DU?$char_traits@D@std@@V?$allocator@D@2@@std@@PAV12@V?$allocator@V?$basic_string@DU?$char_traits@D@std@@V?$allocator@D@2@@std@@@2@@std@@YAPAV?$basic_string@DU?$char_traits@D@std@@V?$allocator@D@2@@0@PAV10@00AAV?$allocator@V?$basic_string@DU?$char_traits@D@std@@V?$allocator@D@2@@std@@@0@U_Nonscalar_ptr_iterator_tag@0@@Z ; std::_Uninit_copy<std::basic_string<char,std::char_traits<char>,std::allocator<char> > *,std::basic_string<char,std::char_traits<char>,std::allocator<char> > *,std::allocator<std::basic_string<char,std::char_traits<char>,std::allocator<char> > > >
;	COMDAT xdata$x
; File c:\program files (x86)\microsoft visual studio 10.0\vc\include\xstring
xdata$x	SEGMENT
__catchsym$??$_Uninit_copy@PAV?$basic_string@DU?$char_traits@D@std@@V?$allocator@D@2@@std@@PAV12@V?$allocator@V?$basic_string@DU?$char_traits@D@std@@V?$allocator@D@2@@std@@@2@@std@@YAPAV?$basic_string@DU?$char_traits@D@std@@V?$allocator@D@2@@0@PAV10@00AAV?$allocator@V?$basic_string@DU?$char_traits@D@std@@V?$allocator@D@2@@std@@@0@U_Nonscalar_ptr_iterator_tag@0@@Z$2 DD 040H
	DD	00H
	DD	00H
	DD	FLAT:__catch$??$_Uninit_copy@PAV?$basic_string@DU?$char_traits@D@std@@V?$allocator@D@2@@std@@PAV12@V?$allocator@V?$basic_string@DU?$char_traits@D@std@@V?$allocator@D@2@@std@@@2@@std@@YAPAV?$basic_string@DU?$char_traits@D@std@@V?$allocator@D@2@@0@PAV10@00AAV?$allocator@V?$basic_string@DU?$char_traits@D@std@@V?$allocator@D@2@@std@@@0@U_Nonscalar_ptr_iterator_tag@0@@Z$0
__unwindtable$??$_Uninit_copy@PAV?$basic_string@DU?$char_traits@D@std@@V?$allocator@D@2@@std@@PAV12@V?$allocator@V?$basic_string@DU?$char_traits@D@std@@V?$allocator@D@2@@std@@@2@@std@@YAPAV?$basic_string@DU?$char_traits@D@std@@V?$allocator@D@2@@0@PAV10@00AAV?$allocator@V?$basic_string@DU?$char_traits@D@std@@V?$allocator@D@2@@std@@@0@U_Nonscalar_ptr_iterator_tag@0@@Z DD 0ffffffffH
	DD	00H
	DD	0ffffffffH
	DD	00H
__tryblocktable$??$_Uninit_copy@PAV?$basic_string@DU?$char_traits@D@std@@V?$allocator@D@2@@std@@PAV12@V?$allocator@V?$basic_string@DU?$char_traits@D@std@@V?$allocator@D@2@@std@@@2@@std@@YAPAV?$basic_string@DU?$char_traits@D@std@@V?$allocator@D@2@@0@PAV10@00AAV?$allocator@V?$basic_string@DU?$char_traits@D@std@@V?$allocator@D@2@@std@@@0@U_Nonscalar_ptr_iterator_tag@0@@Z DD 00H
	DD	00H
	DD	01H
	DD	01H
	DD	FLAT:__catchsym$??$_Uninit_copy@PAV?$basic_string@DU?$char_traits@D@std@@V?$allocator@D@2@@std@@PAV12@V?$allocator@V?$basic_string@DU?$char_traits@D@std@@V?$allocator@D@2@@std@@@2@@std@@YAPAV?$basic_string@DU?$char_traits@D@std@@V?$allocator@D@2@@0@PAV10@00AAV?$allocator@V?$basic_string@DU?$char_traits@D@std@@V?$allocator@D@2@@std@@@0@U_Nonscalar_ptr_iterator_tag@0@@Z$2
__ehfuncinfo$??$_Uninit_copy@PAV?$basic_string@DU?$char_traits@D@std@@V?$allocator@D@2@@std@@PAV12@V?$allocator@V?$basic_string@DU?$char_traits@D@std@@V?$allocator@D@2@@std@@@2@@std@@YAPAV?$basic_string@DU?$char_traits@D@std@@V?$allocator@D@2@@0@PAV10@00AAV?$allocator@V?$basic_string@DU?$char_traits@D@std@@V?$allocator@D@2@@std@@@0@U_Nonscalar_ptr_iterator_tag@0@@Z DD 019930522H
	DD	02H
	DD	FLAT:__unwindtable$??$_Uninit_copy@PAV?$basic_string@DU?$char_traits@D@std@@V?$allocator@D@2@@std@@PAV12@V?$allocator@V?$basic_string@DU?$char_traits@D@std@@V?$allocator@D@2@@std@@@2@@std@@YAPAV?$basic_string@DU?$char_traits@D@std@@V?$allocator@D@2@@0@PAV10@00AAV?$allocator@V?$basic_string@DU?$char_traits@D@std@@V?$allocator@D@2@@std@@@0@U_Nonscalar_ptr_iterator_tag@0@@Z
	DD	01H
	DD	FLAT:__tryblocktable$??$_Uninit_copy@PAV?$basic_string@DU?$char_traits@D@std@@V?$allocator@D@2@@std@@PAV12@V?$allocator@V?$basic_string@DU?$char_traits@D@std@@V?$allocator@D@2@@std@@@2@@std@@YAPAV?$basic_string@DU?$char_traits@D@std@@V?$allocator@D@2@@0@PAV10@00AAV?$allocator@V?$basic_string@DU?$char_traits@D@std@@V?$allocator@D@2@@std@@@0@U_Nonscalar_ptr_iterator_tag@0@@Z
	DD	2 DUP(00H)
	DD	00H
	DD	01H
; Function compile flags: /Ogsp
; File c:\program files (x86)\microsoft visual studio 10.0\vc\include\memory
xdata$x	ENDS
;	COMDAT ??$_Uninit_copy@PAV?$basic_string@DU?$char_traits@D@std@@V?$allocator@D@2@@std@@PAV12@V?$allocator@V?$basic_string@DU?$char_traits@D@std@@V?$allocator@D@2@@std@@@2@@std@@YAPAV?$basic_string@DU?$char_traits@D@std@@V?$allocator@D@2@@0@PAV10@00AAV?$allocator@V?$basic_string@DU?$char_traits@D@std@@V?$allocator@D@2@@std@@@0@U_Nonscalar_ptr_iterator_tag@0@@Z
_TEXT	SEGMENT
__Next$ = -20						; size = 4
__$EHRec$ = -16						; size = 16
__First$ = 8						; size = 4
__Last$ = 12						; size = 4
__Dest$ = 16						; size = 4
__Al$ = 20						; size = 4
___formal$ = 24						; size = 1
??$_Uninit_copy@PAV?$basic_string@DU?$char_traits@D@std@@V?$allocator@D@2@@std@@PAV12@V?$allocator@V?$basic_string@DU?$char_traits@D@std@@V?$allocator@D@2@@std@@@2@@std@@YAPAV?$basic_string@DU?$char_traits@D@std@@V?$allocator@D@2@@0@PAV10@00AAV?$allocator@V?$basic_string@DU?$char_traits@D@std@@V?$allocator@D@2@@std@@@0@U_Nonscalar_ptr_iterator_tag@0@@Z PROC ; std::_Uninit_copy<std::basic_string<char,std::char_traits<char>,std::allocator<char> > *,std::basic_string<char,std::char_traits<char>,std::allocator<char> > *,std::allocator<std::basic_string<char,std::char_traits<char>,std::allocator<char> > > >, COMDAT

; 369  : 	{	// copy [_First, _Last) to raw _Dest, using _Al, arbitrary type

  00000	6a 08		 push	 8
  00002	b8 00 00 00 00	 mov	 eax, __ehhandler$??$_Uninit_copy@PAV?$basic_string@DU?$char_traits@D@std@@V?$allocator@D@2@@std@@PAV12@V?$allocator@V?$basic_string@DU?$char_traits@D@std@@V?$allocator@D@2@@std@@@2@@std@@YAPAV?$basic_string@DU?$char_traits@D@std@@V?$allocator@D@2@@0@PAV10@00AAV?$allocator@V?$basic_string@DU?$char_traits@D@std@@V?$allocator@D@2@@std@@@0@U_Nonscalar_ptr_iterator_tag@0@@Z
  00007	e8 00 00 00 00	 call	 __EH_prolog3_catch

; 370  : 	_DEBUG_RANGE(_First, _Last);
; 371  : 	_DEBUG_POINTER(_Dest);
; 372  : 	_FwdIt _Next = _Dest;

  0000c	8b 45 10	 mov	 eax, DWORD PTR __Dest$[ebp]

; 373  : 
; 374  : 	_TRY_BEGIN

  0000f	83 65 fc 00	 and	 DWORD PTR __$EHRec$[ebp+12], 0
  00013	8b 75 08	 mov	 esi, DWORD PTR __First$[ebp]
  00016	89 45 ec	 mov	 DWORD PTR __Next$[ebp], eax
$LL6@Uninit_cop:

; 375  : 	for (; _First != _Last; ++_Dest, ++_First)

  00019	3b 75 0c	 cmp	 esi, DWORD PTR __Last$[ebp]
  0001c	74 37		 je	 SHORT $LN4@Uninit_cop

; 376  : 		_Cons_val(_Al, _Dest, *_First);

  0001e	56		 push	 esi
  0001f	ff 75 10	 push	 DWORD PTR __Dest$[ebp]
  00022	ff 75 14	 push	 DWORD PTR __Al$[ebp]
  00025	e8 00 00 00 00	 call	 ??$_Cons_val@V?$allocator@V?$basic_string@DU?$char_traits@D@std@@V?$allocator@D@2@@std@@@std@@V?$basic_string@DU?$char_traits@D@std@@V?$allocator@D@2@@2@AAV32@@std@@YAXAAV?$allocator@V?$basic_string@DU?$char_traits@D@std@@V?$allocator@D@2@@std@@@0@PAV?$basic_string@DU?$char_traits@D@std@@V?$allocator@D@2@@0@AAV20@@Z ; std::_Cons_val<std::allocator<std::basic_string<char,std::char_traits<char>,std::allocator<char> > >,std::basic_string<char,std::char_traits<char>,std::allocator<char> >,std::basic_string<char,std::char_traits<char>,std::allocator<char> > &>
  0002a	83 45 10 1c	 add	 DWORD PTR __Dest$[ebp], 28 ; 0000001cH
  0002e	83 c4 0c	 add	 esp, 12			; 0000000cH
  00031	83 c6 1c	 add	 esi, 28			; 0000001cH
  00034	eb e3		 jmp	 SHORT $LL6@Uninit_cop
__catch$??$_Uninit_copy@PAV?$basic_string@DU?$char_traits@D@std@@V?$allocator@D@2@@std@@PAV12@V?$allocator@V?$basic_string@DU?$char_traits@D@std@@V?$allocator@D@2@@std@@@2@@std@@YAPAV?$basic_string@DU?$char_traits@D@std@@V?$allocator@D@2@@0@PAV10@00AAV?$allocator@V?$basic_string@DU?$char_traits@D@std@@V?$allocator@D@2@@std@@@0@U_Nonscalar_ptr_iterator_tag@0@@Z$0:

; 377  : 	_CATCH_ALL
; 378  : 	for (; _Next != _Dest; ++_Next)

  00036	8b 75 ec	 mov	 esi, DWORD PTR __Next$[ebp]
  00039	eb 0c		 jmp	 SHORT $LN34@Uninit_cop
$LL3@Uninit_cop:

; 379  : 		_Dest_val(_Al, _Next);

  0003b	6a 01		 push	 1
  0003d	8b ce		 mov	 ecx, esi
  0003f	e8 00 00 00 00	 call	 ?_Tidy@?$basic_string@DU?$char_traits@D@std@@V?$allocator@D@2@@std@@QAEX_NI@Z ; std::basic_string<char,std::char_traits<char>,std::allocator<char> >::_Tidy
  00044	83 c6 1c	 add	 esi, 28			; 0000001cH
$LN34@Uninit_cop:

; 380  : 	_RERAISE;

  00047	6a 00		 push	 0
  00049	3b 75 10	 cmp	 esi, DWORD PTR __Dest$[ebp]
  0004c	75 ed		 jne	 SHORT $LL3@Uninit_cop
  0004e	6a 00		 push	 0
  00050	e8 00 00 00 00	 call	 __CxxThrowException@8
$LN35@Uninit_cop:
$LN4@Uninit_cop:

; 381  : 	_CATCH_END
; 382  : 	return (_Dest);

  00055	8b 45 10	 mov	 eax, DWORD PTR __Dest$[ebp]

; 383  : 	}

  00058	e8 00 00 00 00	 call	 __EH_epilog3
  0005d	c3		 ret	 0
$LN33@Uninit_cop:
_TEXT	ENDS
;	COMDAT text$x
text$x	SEGMENT
__ehhandler$??$_Uninit_copy@PAV?$basic_string@DU?$char_traits@D@std@@V?$allocator@D@2@@std@@PAV12@V?$allocator@V?$basic_string@DU?$char_traits@D@std@@V?$allocator@D@2@@std@@@2@@std@@YAPAV?$basic_string@DU?$char_traits@D@std@@V?$allocator@D@2@@0@PAV10@00AAV?$allocator@V?$basic_string@DU?$char_traits@D@std@@V?$allocator@D@2@@std@@@0@U_Nonscalar_ptr_iterator_tag@0@@Z:
  00000	8b 54 24 08	 mov	 edx, DWORD PTR [esp+8]
  00004	8d 42 0c	 lea	 eax, DWORD PTR [edx+12]
  00007	8b 4a e8	 mov	 ecx, DWORD PTR [edx-24]
  0000a	33 c8		 xor	 ecx, eax
  0000c	e8 00 00 00 00	 call	 @__security_check_cookie@4
  00011	b8 00 00 00 00	 mov	 eax, OFFSET __ehfuncinfo$??$_Uninit_copy@PAV?$basic_string@DU?$char_traits@D@std@@V?$allocator@D@2@@std@@PAV12@V?$allocator@V?$basic_string@DU?$char_traits@D@std@@V?$allocator@D@2@@std@@@2@@std@@YAPAV?$basic_string@DU?$char_traits@D@std@@V?$allocator@D@2@@0@PAV10@00AAV?$allocator@V?$basic_string@DU?$char_traits@D@std@@V?$allocator@D@2@@std@@@0@U_Nonscalar_ptr_iterator_tag@0@@Z
  00016	e9 00 00 00 00	 jmp	 ___CxxFrameHandler3
text$x	ENDS
??$_Uninit_copy@PAV?$basic_string@DU?$char_traits@D@std@@V?$allocator@D@2@@std@@PAV12@V?$allocator@V?$basic_string@DU?$char_traits@D@std@@V?$allocator@D@2@@std@@@2@@std@@YAPAV?$basic_string@DU?$char_traits@D@std@@V?$allocator@D@2@@0@PAV10@00AAV?$allocator@V?$basic_string@DU?$char_traits@D@std@@V?$allocator@D@2@@std@@@0@U_Nonscalar_ptr_iterator_tag@0@@Z ENDP ; std::_Uninit_copy<std::basic_string<char,std::char_traits<char>,std::allocator<char> > *,std::basic_string<char,std::char_traits<char>,std::allocator<char> > *,std::allocator<std::basic_string<char,std::char_traits<char>,std::allocator<char> > > >
PUBLIC	??$_Destroy_range@V?$allocator@V?$basic_string@DU?$char_traits@D@std@@V?$allocator@D@2@@std@@@std@@@std@@YAXPAV?$basic_string@DU?$char_traits@D@std@@V?$allocator@D@2@@0@0AAV?$allocator@V?$basic_string@DU?$char_traits@D@std@@V?$allocator@D@2@@std@@@0@@Z ; std::_Destroy_range<std::allocator<std::basic_string<char,std::char_traits<char>,std::allocator<char> > > >
; Function compile flags: /Ogsp
; File c:\program files (x86)\microsoft visual studio 10.0\vc\include\xmemory
;	COMDAT ??$_Destroy_range@V?$allocator@V?$basic_string@DU?$char_traits@D@std@@V?$allocator@D@2@@std@@@std@@@std@@YAXPAV?$basic_string@DU?$char_traits@D@std@@V?$allocator@D@2@@0@0AAV?$allocator@V?$basic_string@DU?$char_traits@D@std@@V?$allocator@D@2@@std@@@0@@Z
_TEXT	SEGMENT
__Cat$510535 = -4					; size = 1
__First$ = 8						; size = 4
__Last$ = 12						; size = 4
__Al$ = 16						; size = 4
??$_Destroy_range@V?$allocator@V?$basic_string@DU?$char_traits@D@std@@V?$allocator@D@2@@std@@@std@@@std@@YAXPAV?$basic_string@DU?$char_traits@D@std@@V?$allocator@D@2@@0@0AAV?$allocator@V?$basic_string@DU?$char_traits@D@std@@V?$allocator@D@2@@std@@@0@@Z PROC ; std::_Destroy_range<std::allocator<std::basic_string<char,std::char_traits<char>,std::allocator<char> > > >, COMDAT

; 87   : 	{	// destroy [_First, _Last)

  00000	55		 push	 ebp
  00001	8b ec		 mov	 ebp, esp
  00003	51		 push	 ecx

; 88   : 	_Destroy_range(_First, _Last, _Al, _Ptr_cat(_First, _Last));

  00004	ff 75 fc	 push	 DWORD PTR __Cat$510535[ebp]
  00007	ff 75 10	 push	 DWORD PTR __Al$[ebp]
  0000a	ff 75 0c	 push	 DWORD PTR __Last$[ebp]
  0000d	ff 75 08	 push	 DWORD PTR __First$[ebp]
  00010	e8 00 00 00 00	 call	 ??$_Destroy_range@V?$allocator@V?$basic_string@DU?$char_traits@D@std@@V?$allocator@D@2@@std@@@std@@@std@@YAXPAV?$basic_string@DU?$char_traits@D@std@@V?$allocator@D@2@@0@0AAV?$allocator@V?$basic_string@DU?$char_traits@D@std@@V?$allocator@D@2@@std@@@0@U_Nonscalar_ptr_iterator_tag@0@@Z ; std::_Destroy_range<std::allocator<std::basic_string<char,std::char_traits<char>,std::allocator<char> > > >
  00015	83 c4 10	 add	 esp, 16			; 00000010H

; 89   : 	}

  00018	c9		 leave
  00019	c3		 ret	 0
??$_Destroy_range@V?$allocator@V?$basic_string@DU?$char_traits@D@std@@V?$allocator@D@2@@std@@@std@@@std@@YAXPAV?$basic_string@DU?$char_traits@D@std@@V?$allocator@D@2@@0@0AAV?$allocator@V?$basic_string@DU?$char_traits@D@std@@V?$allocator@D@2@@std@@@0@@Z ENDP ; std::_Destroy_range<std::allocator<std::basic_string<char,std::char_traits<char>,std::allocator<char> > > >
_TEXT	ENDS
PUBLIC	??$_Move@PAV?$basic_string@DU?$char_traits@D@std@@V?$allocator@D@2@@std@@PAV12@@std@@YAPAV?$basic_string@DU?$char_traits@D@std@@V?$allocator@D@2@@0@PAV10@00@Z ; std::_Move<std::basic_string<char,std::char_traits<char>,std::allocator<char> > *,std::basic_string<char,std::char_traits<char>,std::allocator<char> > *>
; Function compile flags: /Ogsp
; File c:\program files (x86)\microsoft visual studio 10.0\vc\include\xutility
;	COMDAT ??$_Move@PAV?$basic_string@DU?$char_traits@D@std@@V?$allocator@D@2@@std@@PAV12@@std@@YAPAV?$basic_string@DU?$char_traits@D@std@@V?$allocator@D@2@@0@PAV10@00@Z
_TEXT	SEGMENT
__Cat$510542 = -4					; size = 1
__First$ = 8						; size = 4
__Last$ = 12						; size = 4
__Dest$ = 16						; size = 4
??$_Move@PAV?$basic_string@DU?$char_traits@D@std@@V?$allocator@D@2@@std@@PAV12@@std@@YAPAV?$basic_string@DU?$char_traits@D@std@@V?$allocator@D@2@@0@PAV10@00@Z PROC ; std::_Move<std::basic_string<char,std::char_traits<char>,std::allocator<char> > *,std::basic_string<char,std::char_traits<char>,std::allocator<char> > *>, COMDAT

; 2533 : 	{	// move [_First, _Last) to [_Dest, ...), unchecked

  00000	55		 push	 ebp
  00001	8b ec		 mov	 ebp, esp
  00003	51		 push	 ecx

; 2534 : 	return (_Move(_First, _Last,
; 2535 : 		_Dest, _Ptr_cat(_First, _Dest)));

  00004	ff 75 fc	 push	 DWORD PTR __Cat$510542[ebp]
  00007	ff 75 10	 push	 DWORD PTR __Dest$[ebp]
  0000a	ff 75 0c	 push	 DWORD PTR __Last$[ebp]
  0000d	ff 75 08	 push	 DWORD PTR __First$[ebp]
  00010	e8 00 00 00 00	 call	 ??$_Move@PAV?$basic_string@DU?$char_traits@D@std@@V?$allocator@D@2@@std@@PAV12@@std@@YAPAV?$basic_string@DU?$char_traits@D@std@@V?$allocator@D@2@@0@PAV10@00U_Nonscalar_ptr_iterator_tag@0@@Z ; std::_Move<std::basic_string<char,std::char_traits<char>,std::allocator<char> > *,std::basic_string<char,std::char_traits<char>,std::allocator<char> > *>
  00015	83 c4 10	 add	 esp, 16			; 00000010H

; 2536 : 	}

  00018	c9		 leave
  00019	c3		 ret	 0
??$_Move@PAV?$basic_string@DU?$char_traits@D@std@@V?$allocator@D@2@@std@@PAV12@@std@@YAPAV?$basic_string@DU?$char_traits@D@std@@V?$allocator@D@2@@0@PAV10@00@Z ENDP ; std::_Move<std::basic_string<char,std::char_traits<char>,std::allocator<char> > *,std::basic_string<char,std::char_traits<char>,std::allocator<char> > *>
_TEXT	ENDS
PUBLIC	??$_Uninitialized_copy@PAV?$basic_string@DU?$char_traits@D@std@@V?$allocator@D@2@@std@@PAV12@V?$allocator@V?$basic_string@DU?$char_traits@D@std@@V?$allocator@D@2@@std@@@2@@std@@YAPAV?$basic_string@DU?$char_traits@D@std@@V?$allocator@D@2@@0@PAV10@00AAV?$allocator@V?$basic_string@DU?$char_traits@D@std@@V?$allocator@D@2@@std@@@0@@Z ; std::_Uninitialized_copy<std::basic_string<char,std::char_traits<char>,std::allocator<char> > *,std::basic_string<char,std::char_traits<char>,std::allocator<char> > *,std::allocator<std::basic_string<char,std::char_traits<char>,std::allocator<char> > > >
; Function compile flags: /Ogsp
; File c:\program files (x86)\microsoft visual studio 10.0\vc\include\memory
;	COMDAT ??$_Uninitialized_copy@PAV?$basic_string@DU?$char_traits@D@std@@V?$allocator@D@2@@std@@PAV12@V?$allocator@V?$basic_string@DU?$char_traits@D@std@@V?$allocator@D@2@@std@@@2@@std@@YAPAV?$basic_string@DU?$char_traits@D@std@@V?$allocator@D@2@@0@PAV10@00AAV?$allocator@V?$basic_string@DU?$char_traits@D@std@@V?$allocator@D@2@@std@@@0@@Z
_TEXT	SEGMENT
__Cat$510549 = -4					; size = 1
__First$ = 8						; size = 4
__Last$ = 12						; size = 4
__Dest$ = 16						; size = 4
__Al$ = 20						; size = 4
??$_Uninitialized_copy@PAV?$basic_string@DU?$char_traits@D@std@@V?$allocator@D@2@@std@@PAV12@V?$allocator@V?$basic_string@DU?$char_traits@D@std@@V?$allocator@D@2@@std@@@2@@std@@YAPAV?$basic_string@DU?$char_traits@D@std@@V?$allocator@D@2@@0@PAV10@00AAV?$allocator@V?$basic_string@DU?$char_traits@D@std@@V?$allocator@D@2@@std@@@0@@Z PROC ; std::_Uninitialized_copy<std::basic_string<char,std::char_traits<char>,std::allocator<char> > *,std::basic_string<char,std::char_traits<char>,std::allocator<char> > *,std::allocator<std::basic_string<char,std::char_traits<char>,std::allocator<char> > > >, COMDAT

; 412  : 	{	// copy [_First, _Last) to raw _Dest, using _Al

  00000	55		 push	 ebp
  00001	8b ec		 mov	 ebp, esp
  00003	51		 push	 ecx

; 413  : 	return (_Uninit_copy(_First, _Last, _Dest, _Al,
; 414  : 		_Ptr_cat(_First, _Dest)));

  00004	ff 75 fc	 push	 DWORD PTR __Cat$510549[ebp]
  00007	ff 75 14	 push	 DWORD PTR __Al$[ebp]
  0000a	ff 75 10	 push	 DWORD PTR __Dest$[ebp]
  0000d	ff 75 0c	 push	 DWORD PTR __Last$[ebp]
  00010	ff 75 08	 push	 DWORD PTR __First$[ebp]
  00013	e8 00 00 00 00	 call	 ??$_Uninit_copy@PAV?$basic_string@DU?$char_traits@D@std@@V?$allocator@D@2@@std@@PAV12@V?$allocator@V?$basic_string@DU?$char_traits@D@std@@V?$allocator@D@2@@std@@@2@@std@@YAPAV?$basic_string@DU?$char_traits@D@std@@V?$allocator@D@2@@0@PAV10@00AAV?$allocator@V?$basic_string@DU?$char_traits@D@std@@V?$allocator@D@2@@std@@@0@U_Nonscalar_ptr_iterator_tag@0@@Z ; std::_Uninit_copy<std::basic_string<char,std::char_traits<char>,std::allocator<char> > *,std::basic_string<char,std::char_traits<char>,std::allocator<char> > *,std::allocator<std::basic_string<char,std::char_traits<char>,std::allocator<char> > > >
  00018	83 c4 14	 add	 esp, 20			; 00000014H

; 415  : 	}

  0001b	c9		 leave
  0001c	c3		 ret	 0
??$_Uninitialized_copy@PAV?$basic_string@DU?$char_traits@D@std@@V?$allocator@D@2@@std@@PAV12@V?$allocator@V?$basic_string@DU?$char_traits@D@std@@V?$allocator@D@2@@std@@@2@@std@@YAPAV?$basic_string@DU?$char_traits@D@std@@V?$allocator@D@2@@0@PAV10@00AAV?$allocator@V?$basic_string@DU?$char_traits@D@std@@V?$allocator@D@2@@std@@@0@@Z ENDP ; std::_Uninitialized_copy<std::basic_string<char,std::char_traits<char>,std::allocator<char> > *,std::basic_string<char,std::char_traits<char>,std::allocator<char> > *,std::allocator<std::basic_string<char,std::char_traits<char>,std::allocator<char> > > >
_TEXT	ENDS
PUBLIC	?_Destroy@?$vector@V?$basic_string@DU?$char_traits@D@std@@V?$allocator@D@2@@std@@V?$allocator@V?$basic_string@DU?$char_traits@D@std@@V?$allocator@D@2@@std@@@2@@std@@IAEXPAV?$basic_string@DU?$char_traits@D@std@@V?$allocator@D@2@@2@0@Z ; std::vector<std::basic_string<char,std::char_traits<char>,std::allocator<char> >,std::allocator<std::basic_string<char,std::char_traits<char>,std::allocator<char> > > >::_Destroy
; Function compile flags: /Ogsp
; File c:\program files (x86)\microsoft visual studio 10.0\vc\include\vector
;	COMDAT ?_Destroy@?$vector@V?$basic_string@DU?$char_traits@D@std@@V?$allocator@D@2@@std@@V?$allocator@V?$basic_string@DU?$char_traits@D@std@@V?$allocator@D@2@@std@@@2@@std@@IAEXPAV?$basic_string@DU?$char_traits@D@std@@V?$allocator@D@2@@2@0@Z
_TEXT	SEGMENT
__First$ = 8						; size = 4
__Cat$510563 = 12					; size = 1
__Last$ = 12						; size = 4
?_Destroy@?$vector@V?$basic_string@DU?$char_traits@D@std@@V?$allocator@D@2@@std@@V?$allocator@V?$basic_string@DU?$char_traits@D@std@@V?$allocator@D@2@@std@@@2@@std@@IAEXPAV?$basic_string@DU?$char_traits@D@std@@V?$allocator@D@2@@2@0@Z PROC ; std::vector<std::basic_string<char,std::char_traits<char>,std::allocator<char> >,std::allocator<std::basic_string<char,std::char_traits<char>,std::allocator<char> > > >::_Destroy, COMDAT
; _this$ = ecx

; 1269 : 		{	// destroy [_First, _Last) using allocator

  00000	55		 push	 ebp
  00001	8b ec		 mov	 ebp, esp

; 1270 : 		_Destroy_range(_First, _Last, this->_Alval);

  00003	ff 75 0c	 push	 DWORD PTR __Cat$510563[ebp]
  00006	83 c1 0c	 add	 ecx, 12			; 0000000cH
  00009	51		 push	 ecx
  0000a	ff 75 0c	 push	 DWORD PTR __Last$[ebp]
  0000d	ff 75 08	 push	 DWORD PTR __First$[ebp]
  00010	e8 00 00 00 00	 call	 ??$_Destroy_range@V?$allocator@V?$basic_string@DU?$char_traits@D@std@@V?$allocator@D@2@@std@@@std@@@std@@YAXPAV?$basic_string@DU?$char_traits@D@std@@V?$allocator@D@2@@0@0AAV?$allocator@V?$basic_string@DU?$char_traits@D@std@@V?$allocator@D@2@@std@@@0@U_Nonscalar_ptr_iterator_tag@0@@Z ; std::_Destroy_range<std::allocator<std::basic_string<char,std::char_traits<char>,std::allocator<char> > > >
  00015	83 c4 10	 add	 esp, 16			; 00000010H

; 1271 : 		}

  00018	5d		 pop	 ebp
  00019	c2 08 00	 ret	 8
?_Destroy@?$vector@V?$basic_string@DU?$char_traits@D@std@@V?$allocator@D@2@@std@@V?$allocator@V?$basic_string@DU?$char_traits@D@std@@V?$allocator@D@2@@std@@@2@@std@@IAEXPAV?$basic_string@DU?$char_traits@D@std@@V?$allocator@D@2@@2@0@Z ENDP ; std::vector<std::basic_string<char,std::char_traits<char>,std::allocator<char> >,std::allocator<std::basic_string<char,std::char_traits<char>,std::allocator<char> > > >::_Destroy
_TEXT	ENDS
PUBLIC	?erase@?$vector@V?$basic_string@DU?$char_traits@D@std@@V?$allocator@D@2@@std@@V?$allocator@V?$basic_string@DU?$char_traits@D@std@@V?$allocator@D@2@@std@@@2@@std@@QAE?AV?$_Vector_iterator@V?$_Vector_val@V?$basic_string@DU?$char_traits@D@std@@V?$allocator@D@2@@std@@V?$allocator@V?$basic_string@DU?$char_traits@D@std@@V?$allocator@D@2@@std@@@2@@std@@@2@V?$_Vector_const_iterator@V?$_Vector_val@V?$basic_string@DU?$char_traits@D@std@@V?$allocator@D@2@@std@@V?$allocator@V?$basic_string@DU?$char_traits@D@std@@V?$allocator@D@2@@std@@@2@@std@@@2@0@Z ; std::vector<std::basic_string<char,std::char_traits<char>,std::allocator<char> >,std::allocator<std::basic_string<char,std::char_traits<char>,std::allocator<char> > > >::erase
; Function compile flags: /Ogsp
;	COMDAT ?erase@?$vector@V?$basic_string@DU?$char_traits@D@std@@V?$allocator@D@2@@std@@V?$allocator@V?$basic_string@DU?$char_traits@D@std@@V?$allocator@D@2@@std@@@2@@std@@QAE?AV?$_Vector_iterator@V?$_Vector_val@V?$basic_string@DU?$char_traits@D@std@@V?$allocator@D@2@@std@@V?$allocator@V?$basic_string@DU?$char_traits@D@std@@V?$allocator@D@2@@std@@@2@@std@@@2@V?$_Vector_const_iterator@V?$_Vector_val@V?$basic_string@DU?$char_traits@D@std@@V?$allocator@D@2@@std@@V?$allocator@V?$basic_string@DU?$char_traits@D@std@@V?$allocator@D@2@@std@@@2@@std@@@2@0@Z
_TEXT	SEGMENT
___$ReturnUdt$ = 8					; size = 4
__First_arg$ = 12					; size = 4
__Cat$510664 = 16					; size = 1
__Cat$510640 = 16					; size = 1
__Last_arg$ = 16					; size = 4
?erase@?$vector@V?$basic_string@DU?$char_traits@D@std@@V?$allocator@D@2@@std@@V?$allocator@V?$basic_string@DU?$char_traits@D@std@@V?$allocator@D@2@@std@@@2@@std@@QAE?AV?$_Vector_iterator@V?$_Vector_val@V?$basic_string@DU?$char_traits@D@std@@V?$allocator@D@2@@std@@V?$allocator@V?$basic_string@DU?$char_traits@D@std@@V?$allocator@D@2@@std@@@2@@std@@@2@V?$_Vector_const_iterator@V?$_Vector_val@V?$basic_string@DU?$char_traits@D@std@@V?$allocator@D@2@@std@@V?$allocator@V?$basic_string@DU?$char_traits@D@std@@V?$allocator@D@2@@std@@@2@@std@@@2@0@Z PROC ; std::vector<std::basic_string<char,std::char_traits<char>,std::allocator<char> >,std::allocator<std::basic_string<char,std::char_traits<char>,std::allocator<char> > > >::erase, COMDAT
; _this$ = ecx

; 1190 : 		{	// erase [_First, _Last)

  00000	55		 push	 ebp
  00001	8b ec		 mov	 ebp, esp

; 1191 : 		iterator _First = _Make_iter(_First_arg);

  00003	8b 45 0c	 mov	 eax, DWORD PTR __First_arg$[ebp]
  00006	53		 push	 ebx
  00007	8b 5d 08	 mov	 ebx, DWORD PTR ___$ReturnUdt$[ebp]
  0000a	56		 push	 esi
  0000b	8b f1		 mov	 esi, ecx
  0000d	89 03		 mov	 DWORD PTR [ebx], eax

; 1192 : 		iterator _Last = _Make_iter(_Last_arg);
; 1193 : 
; 1194 : 		if (_First != _Last)

  0000f	3b 45 10	 cmp	 eax, DWORD PTR __Last_arg$[ebp]
  00012	74 2a		 je	 SHORT $LN1@erase@2

; 1195 : 			{	// worth doing, copy down over hole
; 1196 :  #if _ITERATOR_DEBUG_LEVEL == 2
; 1197 : 			if (_Last < _First || _VICONT(_First) != this
; 1198 : 				|| _VIPTR(_First) < this->_Myfirst
; 1199 : 				|| this->_Mylast < _VIPTR(_Last))
; 1200 : 				_DEBUG_ERROR("vector erase iterator outside range");
; 1201 : 			pointer _Ptr = _Move(_VIPTR(_Last), this->_Mylast,
; 1202 : 				_VIPTR(_First));
; 1203 : 			_Orphan_range(_VIPTR(_First), this->_Mylast);
; 1204 : 
; 1205 :  #else /* _ITERATOR_DEBUG_LEVEL == 2 */
; 1206 : 			pointer _Ptr = _Move(_VIPTR(_Last), this->_Mylast,
; 1207 : 				_VIPTR(_First));

  00014	8b 4e 04	 mov	 ecx, DWORD PTR [esi+4]
  00017	57		 push	 edi
  00018	ff 75 10	 push	 DWORD PTR __Cat$510640[ebp]
  0001b	50		 push	 eax
  0001c	51		 push	 ecx
  0001d	ff 75 10	 push	 DWORD PTR __Last_arg$[ebp]
  00020	e8 00 00 00 00	 call	 ??$_Move@PAV?$basic_string@DU?$char_traits@D@std@@V?$allocator@D@2@@std@@PAV12@@std@@YAPAV?$basic_string@DU?$char_traits@D@std@@V?$allocator@D@2@@0@PAV10@00U_Nonscalar_ptr_iterator_tag@0@@Z ; std::_Move<std::basic_string<char,std::char_traits<char>,std::allocator<char> > *,std::basic_string<char,std::char_traits<char>,std::allocator<char> > *>

; 1208 :  #endif /* _ITERATOR_DEBUG_LEVEL == 2 */
; 1209 : 
; 1210 : 			_Destroy(_Ptr, this->_Mylast);

  00025	ff 75 10	 push	 DWORD PTR __Cat$510664[ebp]
  00028	8b f8		 mov	 edi, eax
  0002a	8d 46 0c	 lea	 eax, DWORD PTR [esi+12]
  0002d	50		 push	 eax
  0002e	ff 76 04	 push	 DWORD PTR [esi+4]
  00031	57		 push	 edi
  00032	e8 00 00 00 00	 call	 ??$_Destroy_range@V?$allocator@V?$basic_string@DU?$char_traits@D@std@@V?$allocator@D@2@@std@@@std@@@std@@YAXPAV?$basic_string@DU?$char_traits@D@std@@V?$allocator@D@2@@0@0AAV?$allocator@V?$basic_string@DU?$char_traits@D@std@@V?$allocator@D@2@@std@@@0@U_Nonscalar_ptr_iterator_tag@0@@Z ; std::_Destroy_range<std::allocator<std::basic_string<char,std::char_traits<char>,std::allocator<char> > > >
  00037	83 c4 20	 add	 esp, 32			; 00000020H

; 1211 : 			this->_Mylast = _Ptr;

  0003a	89 7e 04	 mov	 DWORD PTR [esi+4], edi
  0003d	5f		 pop	 edi
$LN1@erase@2:

; 1212 : 			}
; 1213 : 		return (_First);

  0003e	5e		 pop	 esi
  0003f	8b c3		 mov	 eax, ebx
  00041	5b		 pop	 ebx

; 1214 : 		}

  00042	5d		 pop	 ebp
  00043	c2 0c 00	 ret	 12			; 0000000cH
?erase@?$vector@V?$basic_string@DU?$char_traits@D@std@@V?$allocator@D@2@@std@@V?$allocator@V?$basic_string@DU?$char_traits@D@std@@V?$allocator@D@2@@std@@@2@@std@@QAE?AV?$_Vector_iterator@V?$_Vector_val@V?$basic_string@DU?$char_traits@D@std@@V?$allocator@D@2@@std@@V?$allocator@V?$basic_string@DU?$char_traits@D@std@@V?$allocator@D@2@@std@@@2@@std@@@2@V?$_Vector_const_iterator@V?$_Vector_val@V?$basic_string@DU?$char_traits@D@std@@V?$allocator@D@2@@std@@V?$allocator@V?$basic_string@DU?$char_traits@D@std@@V?$allocator@D@2@@std@@@2@@std@@@2@0@Z ENDP ; std::vector<std::basic_string<char,std::char_traits<char>,std::allocator<char> >,std::allocator<std::basic_string<char,std::char_traits<char>,std::allocator<char> > > >::erase
_TEXT	ENDS
PUBLIC	??$_Ucopy@PAV?$basic_string@DU?$char_traits@D@std@@V?$allocator@D@2@@std@@@?$vector@V?$basic_string@DU?$char_traits@D@std@@V?$allocator@D@2@@std@@V?$allocator@V?$basic_string@DU?$char_traits@D@std@@V?$allocator@D@2@@std@@@2@@std@@IAEPAV?$basic_string@DU?$char_traits@D@std@@V?$allocator@D@2@@1@PAV21@00@Z ; std::vector<std::basic_string<char,std::char_traits<char>,std::allocator<char> >,std::allocator<std::basic_string<char,std::char_traits<char>,std::allocator<char> > > >::_Ucopy<std::basic_string<char,std::char_traits<char>,std::allocator<char> > *>
; Function compile flags: /Ogsp
;	COMDAT ??$_Ucopy@PAV?$basic_string@DU?$char_traits@D@std@@V?$allocator@D@2@@std@@@?$vector@V?$basic_string@DU?$char_traits@D@std@@V?$allocator@D@2@@std@@V?$allocator@V?$basic_string@DU?$char_traits@D@std@@V?$allocator@D@2@@std@@@2@@std@@IAEPAV?$basic_string@DU?$char_traits@D@std@@V?$allocator@D@2@@1@PAV21@00@Z
_TEXT	SEGMENT
__First$ = 8						; size = 4
__Last$ = 12						; size = 4
__Cat$510679 = 16					; size = 1
__Ptr$ = 16						; size = 4
??$_Ucopy@PAV?$basic_string@DU?$char_traits@D@std@@V?$allocator@D@2@@std@@@?$vector@V?$basic_string@DU?$char_traits@D@std@@V?$allocator@D@2@@std@@V?$allocator@V?$basic_string@DU?$char_traits@D@std@@V?$allocator@D@2@@std@@@2@@std@@IAEPAV?$basic_string@DU?$char_traits@D@std@@V?$allocator@D@2@@1@PAV21@00@Z PROC ; std::vector<std::basic_string<char,std::char_traits<char>,std::allocator<char> >,std::allocator<std::basic_string<char,std::char_traits<char>,std::allocator<char> > > >::_Ucopy<std::basic_string<char,std::char_traits<char>,std::allocator<char> > *>, COMDAT
; _this$ = ecx

; 1315 : 		pointer _Ucopy(_Iter _First, _Iter _Last, pointer _Ptr)

  00000	55		 push	 ebp
  00001	8b ec		 mov	 ebp, esp

; 1316 : 		{	// copy initializing [_First, _Last), using allocator
; 1317 : 		return (_Uninitialized_copy(_First, _Last,
; 1318 : 			_Ptr, this->_Alval));

  00003	ff 75 10	 push	 DWORD PTR __Cat$510679[ebp]
  00006	83 c1 0c	 add	 ecx, 12			; 0000000cH
  00009	51		 push	 ecx
  0000a	ff 75 10	 push	 DWORD PTR __Ptr$[ebp]
  0000d	ff 75 0c	 push	 DWORD PTR __Last$[ebp]
  00010	ff 75 08	 push	 DWORD PTR __First$[ebp]
  00013	e8 00 00 00 00	 call	 ??$_Uninit_copy@PAV?$basic_string@DU?$char_traits@D@std@@V?$allocator@D@2@@std@@PAV12@V?$allocator@V?$basic_string@DU?$char_traits@D@std@@V?$allocator@D@2@@std@@@2@@std@@YAPAV?$basic_string@DU?$char_traits@D@std@@V?$allocator@D@2@@0@PAV10@00AAV?$allocator@V?$basic_string@DU?$char_traits@D@std@@V?$allocator@D@2@@std@@@0@U_Nonscalar_ptr_iterator_tag@0@@Z ; std::_Uninit_copy<std::basic_string<char,std::char_traits<char>,std::allocator<char> > *,std::basic_string<char,std::char_traits<char>,std::allocator<char> > *,std::allocator<std::basic_string<char,std::char_traits<char>,std::allocator<char> > > >
  00018	83 c4 14	 add	 esp, 20			; 00000014H

; 1319 : 		}

  0001b	5d		 pop	 ebp
  0001c	c2 0c 00	 ret	 12			; 0000000cH
??$_Ucopy@PAV?$basic_string@DU?$char_traits@D@std@@V?$allocator@D@2@@std@@@?$vector@V?$basic_string@DU?$char_traits@D@std@@V?$allocator@D@2@@std@@V?$allocator@V?$basic_string@DU?$char_traits@D@std@@V?$allocator@D@2@@std@@@2@@std@@IAEPAV?$basic_string@DU?$char_traits@D@std@@V?$allocator@D@2@@1@PAV21@00@Z ENDP ; std::vector<std::basic_string<char,std::char_traits<char>,std::allocator<char> >,std::allocator<std::basic_string<char,std::char_traits<char>,std::allocator<char> > > >::_Ucopy<std::basic_string<char,std::char_traits<char>,std::allocator<char> > *>
_TEXT	ENDS
PUBLIC	?_Tidy@?$vector@V?$basic_string@DU?$char_traits@D@std@@V?$allocator@D@2@@std@@V?$allocator@V?$basic_string@DU?$char_traits@D@std@@V?$allocator@D@2@@std@@@2@@std@@IAEXXZ ; std::vector<std::basic_string<char,std::char_traits<char>,std::allocator<char> >,std::allocator<std::basic_string<char,std::char_traits<char>,std::allocator<char> > > >::_Tidy
EXTRN	__imp_?_Orphan_all@_Container_base0@std@@QAEXXZ:PROC
; Function compile flags: /Ogsp
;	COMDAT ?_Tidy@?$vector@V?$basic_string@DU?$char_traits@D@std@@V?$allocator@D@2@@std@@V?$allocator@V?$basic_string@DU?$char_traits@D@std@@V?$allocator@D@2@@std@@@2@@std@@IAEXXZ
_TEXT	SEGMENT
__Cat$510702 = -4					; size = 1
?_Tidy@?$vector@V?$basic_string@DU?$char_traits@D@std@@V?$allocator@D@2@@std@@V?$allocator@V?$basic_string@DU?$char_traits@D@std@@V?$allocator@D@2@@std@@@2@@std@@IAEXXZ PROC ; std::vector<std::basic_string<char,std::char_traits<char>,std::allocator<char> >,std::allocator<std::basic_string<char,std::char_traits<char>,std::allocator<char> > > >::_Tidy, COMDAT
; _this$ = ecx

; 1301 : 		{	// free all storage

  00000	55		 push	 ebp
  00001	8b ec		 mov	 ebp, esp
  00003	51		 push	 ecx
  00004	56		 push	 esi
  00005	8b f1		 mov	 esi, ecx

; 1302 : 		if (this->_Myfirst != 0)

  00007	83 3e 00	 cmp	 DWORD PTR [esi], 0
  0000a	74 21		 je	 SHORT $LN10@Tidy@2

; 1303 : 			{	// something to free, destroy and deallocate it
; 1304 : 			this->_Orphan_all();

  0000c	ff 15 00 00 00
	00		 call	 DWORD PTR __imp_?_Orphan_all@_Container_base0@std@@QAEXXZ

; 1305 : 			_Destroy(this->_Myfirst, this->_Mylast);

  00012	ff 75 fc	 push	 DWORD PTR __Cat$510702[ebp]
  00015	8d 46 0c	 lea	 eax, DWORD PTR [esi+12]
  00018	50		 push	 eax
  00019	ff 76 04	 push	 DWORD PTR [esi+4]
  0001c	ff 36		 push	 DWORD PTR [esi]
  0001e	e8 00 00 00 00	 call	 ??$_Destroy_range@V?$allocator@V?$basic_string@DU?$char_traits@D@std@@V?$allocator@D@2@@std@@@std@@@std@@YAXPAV?$basic_string@DU?$char_traits@D@std@@V?$allocator@D@2@@0@0AAV?$allocator@V?$basic_string@DU?$char_traits@D@std@@V?$allocator@D@2@@std@@@0@U_Nonscalar_ptr_iterator_tag@0@@Z ; std::_Destroy_range<std::allocator<std::basic_string<char,std::char_traits<char>,std::allocator<char> > > >

; 1306 : 			this->_Alval.deallocate(this->_Myfirst,
; 1307 : 				this->_Myend - this->_Myfirst);

  00023	ff 36		 push	 DWORD PTR [esi]
  00025	e8 00 00 00 00	 call	 ??3@YAXPAX@Z		; operator delete
  0002a	83 c4 14	 add	 esp, 20			; 00000014H
$LN10@Tidy@2:

; 1308 : 			}
; 1309 : 		this->_Myfirst = 0;

  0002d	83 26 00	 and	 DWORD PTR [esi], 0

; 1310 : 		this->_Mylast = 0;

  00030	83 66 04 00	 and	 DWORD PTR [esi+4], 0

; 1311 : 		this->_Myend = 0;

  00034	83 66 08 00	 and	 DWORD PTR [esi+8], 0
  00038	5e		 pop	 esi

; 1312 : 		}

  00039	c9		 leave
  0003a	c3		 ret	 0
?_Tidy@?$vector@V?$basic_string@DU?$char_traits@D@std@@V?$allocator@D@2@@std@@V?$allocator@V?$basic_string@DU?$char_traits@D@std@@V?$allocator@D@2@@std@@@2@@std@@IAEXXZ ENDP ; std::vector<std::basic_string<char,std::char_traits<char>,std::allocator<char> >,std::allocator<std::basic_string<char,std::char_traits<char>,std::allocator<char> > > >::_Tidy
_TEXT	ENDS
PUBLIC	?clear@?$vector@V?$basic_string@DU?$char_traits@D@std@@V?$allocator@D@2@@std@@V?$allocator@V?$basic_string@DU?$char_traits@D@std@@V?$allocator@D@2@@std@@@2@@std@@QAEXXZ ; std::vector<std::basic_string<char,std::char_traits<char>,std::allocator<char> >,std::allocator<std::basic_string<char,std::char_traits<char>,std::allocator<char> > > >::clear
; Function compile flags: /Ogsp
;	COMDAT ?clear@?$vector@V?$basic_string@DU?$char_traits@D@std@@V?$allocator@D@2@@std@@V?$allocator@V?$basic_string@DU?$char_traits@D@std@@V?$allocator@D@2@@std@@@2@@std@@QAEXXZ
_TEXT	SEGMENT
$T510717 = -4						; size = 4
?clear@?$vector@V?$basic_string@DU?$char_traits@D@std@@V?$allocator@D@2@@std@@V?$allocator@V?$basic_string@DU?$char_traits@D@std@@V?$allocator@D@2@@std@@@2@@std@@QAEXXZ PROC ; std::vector<std::basic_string<char,std::char_traits<char>,std::allocator<char> >,std::allocator<std::basic_string<char,std::char_traits<char>,std::allocator<char> > > >::clear, COMDAT
; _this$ = ecx

; 1217 : 		{	// erase all

  00000	55		 push	 ebp
  00001	8b ec		 mov	 ebp, esp
  00003	51		 push	 ecx

; 1218 : 		erase(begin(), end());

  00004	8b 41 04	 mov	 eax, DWORD PTR [ecx+4]
  00007	8b 11		 mov	 edx, DWORD PTR [ecx]
  00009	50		 push	 eax
  0000a	52		 push	 edx
  0000b	8d 45 fc	 lea	 eax, DWORD PTR $T510717[ebp]
  0000e	50		 push	 eax
  0000f	e8 00 00 00 00	 call	 ?erase@?$vector@V?$basic_string@DU?$char_traits@D@std@@V?$allocator@D@2@@std@@V?$allocator@V?$basic_string@DU?$char_traits@D@std@@V?$allocator@D@2@@std@@@2@@std@@QAE?AV?$_Vector_iterator@V?$_Vector_val@V?$basic_string@DU?$char_traits@D@std@@V?$allocator@D@2@@std@@V?$allocator@V?$basic_string@DU?$char_traits@D@std@@V?$allocator@D@2@@std@@@2@@std@@@2@V?$_Vector_const_iterator@V?$_Vector_val@V?$basic_string@DU?$char_traits@D@std@@V?$allocator@D@2@@std@@V?$allocator@V?$basic_string@DU?$char_traits@D@std@@V?$allocator@D@2@@std@@@2@@std@@@2@0@Z ; std::vector<std::basic_string<char,std::char_traits<char>,std::allocator<char> >,std::allocator<std::basic_string<char,std::char_traits<char>,std::allocator<char> > > >::erase

; 1219 : 		}

  00014	c9		 leave
  00015	c3		 ret	 0
?clear@?$vector@V?$basic_string@DU?$char_traits@D@std@@V?$allocator@D@2@@std@@V?$allocator@V?$basic_string@DU?$char_traits@D@std@@V?$allocator@D@2@@std@@@2@@std@@QAEXXZ ENDP ; std::vector<std::basic_string<char,std::char_traits<char>,std::allocator<char> >,std::allocator<std::basic_string<char,std::char_traits<char>,std::allocator<char> > > >::clear
_TEXT	ENDS
PUBLIC	??1?$vector@V?$basic_string@DU?$char_traits@D@std@@V?$allocator@D@2@@std@@V?$allocator@V?$basic_string@DU?$char_traits@D@std@@V?$allocator@D@2@@std@@@2@@std@@QAE@XZ ; std::vector<std::basic_string<char,std::char_traits<char>,std::allocator<char> >,std::allocator<std::basic_string<char,std::char_traits<char>,std::allocator<char> > > >::~vector<std::basic_string<char,std::char_traits<char>,std::allocator<char> >,std::allocator<std::basic_string<char,std::char_traits<char>,std::allocator<char> > > >
; Function compile flags: /Ogsp
;	COMDAT ??1?$vector@V?$basic_string@DU?$char_traits@D@std@@V?$allocator@D@2@@std@@V?$allocator@V?$basic_string@DU?$char_traits@D@std@@V?$allocator@D@2@@std@@@2@@std@@QAE@XZ
_TEXT	SEGMENT
??1?$vector@V?$basic_string@DU?$char_traits@D@std@@V?$allocator@D@2@@std@@V?$allocator@V?$basic_string@DU?$char_traits@D@std@@V?$allocator@D@2@@std@@@2@@std@@QAE@XZ PROC ; std::vector<std::basic_string<char,std::char_traits<char>,std::allocator<char> >,std::allocator<std::basic_string<char,std::char_traits<char>,std::allocator<char> > > >::~vector<std::basic_string<char,std::char_traits<char>,std::allocator<char> >,std::allocator<std::basic_string<char,std::char_traits<char>,std::allocator<char> > > >, COMDAT
; _this$ = ecx

; 705  : 		_Tidy();

  00000	e9 00 00 00 00	 jmp	 ?_Tidy@?$vector@V?$basic_string@DU?$char_traits@D@std@@V?$allocator@D@2@@std@@V?$allocator@V?$basic_string@DU?$char_traits@D@std@@V?$allocator@D@2@@std@@@2@@std@@IAEXXZ ; std::vector<std::basic_string<char,std::char_traits<char>,std::allocator<char> >,std::allocator<std::basic_string<char,std::char_traits<char>,std::allocator<char> > > >::_Tidy
??1?$vector@V?$basic_string@DU?$char_traits@D@std@@V?$allocator@D@2@@std@@V?$allocator@V?$basic_string@DU?$char_traits@D@std@@V?$allocator@D@2@@std@@@2@@std@@QAE@XZ ENDP ; std::vector<std::basic_string<char,std::char_traits<char>,std::allocator<char> >,std::allocator<std::basic_string<char,std::char_traits<char>,std::allocator<char> > > >::~vector<std::basic_string<char,std::char_traits<char>,std::allocator<char> >,std::allocator<std::basic_string<char,std::char_traits<char>,std::allocator<char> > > >
_TEXT	ENDS
PUBLIC	??_7ioMessageBox@@6B@				; ioMessageBox::`vftable'
PUBLIC	??0ioMessageBox@@QAE@XZ				; ioMessageBox::ioMessageBox
PUBLIC	??_R4ioMessageBox@@6B@				; ioMessageBox::`RTTI Complete Object Locator'
PUBLIC	??_R0?AVioMessageBox@@@8			; ioMessageBox `RTTI Type Descriptor'
PUBLIC	??_R3ioMessageBox@@8				; ioMessageBox::`RTTI Class Hierarchy Descriptor'
PUBLIC	??_R2ioMessageBox@@8				; ioMessageBox::`RTTI Base Class Array'
PUBLIC	??_R1A@?0A@EA@ioMessageBox@@8			; ioMessageBox::`RTTI Base Class Descriptor at (0,-1,0,64)'
EXTRN	__imp_??0ioWnd@@QAE@XZ:PROC
EXTRN	?AddRenderImage@ioWnd@@UAEXABVioHashString@@PAVioUIRenderImage@@@Z:PROC ; ioWnd::AddRenderImage
EXTRN	?ParseExtraInfo@ioWnd@@UAEXAAVioXMLElement@@@Z:PROC ; ioWnd::ParseExtraInfo
EXTRN	?SetWindowAlpha@ioWnd@@UAEXH@Z:PROC		; ioWnd::SetWindowAlpha
EXTRN	?CheckFrameReSize@ioWnd@@MAEXHHHH@Z:PROC	; ioWnd::CheckFrameReSize
EXTRN	?iwm_lbuttondown@ioWnd@@UAEXABVioMouse@@@Z:PROC	; ioWnd::iwm_lbuttondown
EXTRN	?iwm_lbuttonup@ioWnd@@UAEXABVioMouse@@@Z:PROC	; ioWnd::iwm_lbuttonup
EXTRN	?iwm_lbuttonDBLCLK@ioWnd@@UAEXABVioMouse@@@Z:PROC ; ioWnd::iwm_lbuttonDBLCLK
EXTRN	?iwm_rbuttondown@ioWnd@@UAEXABVioMouse@@@Z:PROC	; ioWnd::iwm_rbuttondown
EXTRN	?iwm_rbuttonup@ioWnd@@UAEXABVioMouse@@@Z:PROC	; ioWnd::iwm_rbuttonup
EXTRN	?iwm_mouseover@ioWnd@@UAEXABVioMouse@@@Z:PROC	; ioWnd::iwm_mouseover
EXTRN	?GetWndType@ioWnd@@UBEKXZ:PROC			; ioWnd::GetWndType
EXTRN	?GetHeaderFileName@ioWnd@@UAEPBDXZ:PROC		; ioWnd::GetHeaderFileName
EXTRN	?GetTemplateName@ioWnd@@UAEPBDXZ:PROC		; ioWnd::GetTemplateName
EXTRN	?GetDefClassName@ioWnd@@UBEPBDXZ:PROC		; ioWnd::GetDefClassName
EXTRN	?_Clone@ioWnd@@UAEPAV1@XZ:PROC			; ioWnd::_Clone
EXTRN	?Copy@ioWnd@@UAEXPAV1@@Z:PROC			; ioWnd::Copy
EXTRN	?SetSaveData@ioWnd@@UAEXAAVioXMLElement@@@Z:PROC ; ioWnd::SetSaveData
EXTRN	?GetNumFixedRenderFrame@ioWnd@@UBEHXZ:PROC	; ioWnd::GetNumFixedRenderFrame
EXTRN	?GetFixedRenderFrameType@ioWnd@@UAEPBDH@Z:PROC	; ioWnd::GetFixedRenderFrameType
EXTRN	?GetRenderFrame@ioWnd@@UAEPAPAVioUIRenderElement@@PBD@Z:PROC ; ioWnd::GetRenderFrame
EXTRN	?GetNumFixedRenderImage@ioWnd@@UBEHXZ:PROC	; ioWnd::GetNumFixedRenderImage
EXTRN	?GetFixedRenderImageType@ioWnd@@UAEPBDH@Z:PROC	; ioWnd::GetFixedRenderImageType
EXTRN	?GetRenderImage@ioWnd@@UAEPAPAVioUIRenderElement@@PBD@Z:PROC ; ioWnd::GetRenderImage
EXTRN	??_EioMessageBox@@UAEPAXI@Z:PROC		; ioMessageBox::`vector deleting destructor'
;	COMDAT ??_R1A@?0A@EA@ioMessageBox@@8
; File c:\program files (x86)\microsoft visual studio 10.0\vc\include\xmemory
rdata$r	SEGMENT
??_R1A@?0A@EA@ioMessageBox@@8 DD FLAT:??_R0?AVioMessageBox@@@8 ; ioMessageBox::`RTTI Base Class Descriptor at (0,-1,0,64)'
	DD	01H
	DD	00H
	DD	0ffffffffH
	DD	00H
	DD	040H
	DD	FLAT:??_R3ioMessageBox@@8
rdata$r	ENDS
;	COMDAT ??_R2ioMessageBox@@8
rdata$r	SEGMENT
??_R2ioMessageBox@@8 DD FLAT:??_R1A@?0A@EA@ioMessageBox@@8 ; ioMessageBox::`RTTI Base Class Array'
	DD	FLAT:??_R1A@?0A@EA@ioWnd@@8
rdata$r	ENDS
;	COMDAT ??_R3ioMessageBox@@8
rdata$r	SEGMENT
??_R3ioMessageBox@@8 DD 00H				; ioMessageBox::`RTTI Class Hierarchy Descriptor'
	DD	00H
	DD	02H
	DD	FLAT:??_R2ioMessageBox@@8
rdata$r	ENDS
;	COMDAT ??_R0?AVioMessageBox@@@8
_DATA	SEGMENT
??_R0?AVioMessageBox@@@8 DD FLAT:??_7type_info@@6B@	; ioMessageBox `RTTI Type Descriptor'
	DD	00H
	DB	'.?AVioMessageBox@@', 00H
_DATA	ENDS
;	COMDAT ??_R4ioMessageBox@@6B@
rdata$r	SEGMENT
??_R4ioMessageBox@@6B@ DD 00H				; ioMessageBox::`RTTI Complete Object Locator'
	DD	00H
	DD	00H
	DD	FLAT:??_R0?AVioMessageBox@@@8
	DD	FLAT:??_R3ioMessageBox@@8
rdata$r	ENDS
;	COMDAT ??_7ioMessageBox@@6B@
CONST	SEGMENT
??_7ioMessageBox@@6B@ DD FLAT:??_R4ioMessageBox@@6B@	; ioMessageBox::`vftable'
	DD	FLAT:?AddRenderFrame@ioMessageBox@@UAEXABVioHashString@@PAVioUIRenderFrame@@@Z
	DD	FLAT:?AddRenderImage@ioWnd@@UAEXABVioHashString@@PAVioUIRenderImage@@@Z
	DD	FLAT:?AddTooltipHelp@ioWnd@@UAEXABVioHashString@@00@Z
	DD	FLAT:?ParseExtraInfo@ioWnd@@UAEXAAVioXMLElement@@@Z
	DD	FLAT:?AddNamedRenderImage@ioWnd@@UAEXABVioHashString@@PAVioUIRenderImage@@@Z
	DD	FLAT:?RemoveNamedRenderImage@ioWnd@@UAEXABVioHashString@@@Z
	DD	FLAT:?GetNamedRenderImage@ioWnd@@UBEPAVioUIRenderImage@@ABVioHashString@@@Z
	DD	FLAT:?SetWindowAlpha@ioWnd@@UAEXH@Z
	DD	FLAT:?SetActive@ioWnd@@UAEXXZ
	DD	FLAT:?SetInActive@ioWnd@@UAEXXZ
	DD	FLAT:?ClearElementImageList@ioWnd@@UAEXXZ
	DD	FLAT:?SetSize@ioWnd@@UAEXHH@Z
	DD	FLAT:?SetPositionToDefault@ioWnd@@UAEXHH_N0@Z
	DD	FLAT:?IsNeedProcess@ioWnd@@UBE_NXZ
	DD	FLAT:?IsCanMouseReaction@ioWnd@@UBE_NXZ
	DD	FLAT:?AddChild@ioWnd@@UAEXPAV1@@Z
	DD	FLAT:?DeleteChild@ioWnd@@UAEXK@Z
	DD	FLAT:?DeleteAllChild@ioWnd@@UAEXXZ
	DD	FLAT:?OnRenderShowAndHide@ioWnd@@MAE_NXZ
	DD	FLAT:?OnRenderShowAndHideByDefault@ioWnd@@MAE_NK@Z
	DD	FLAT:?OnRenderShowAndHideByTop@ioWnd@@MAE_NK@Z
	DD	FLAT:?OnRenderShowAndHideByDown@ioWnd@@MAE_NK@Z
	DD	FLAT:?OnRender@ioMessageBox@@MAEXXZ
	DD	FLAT:?OnRenderAfterChild@ioWnd@@MAEXXZ
	DD	FLAT:?OnProcess@ioWnd@@MAEXM@Z
	DD	FLAT:?OnMouseProcess@ioWnd@@MAEXABVioMouse@@@Z
	DD	FLAT:?CheckFrameReSize@ioWnd@@MAEXHHHH@Z
	DD	FLAT:?RenderImageList@ioWnd@@MAEXHHW4UIRenderType@@@Z
	DD	FLAT:?iwm_create@ioWnd@@UAEXXZ
	DD	FLAT:?iwm_destroy@ioWnd@@UAEXXZ
	DD	FLAT:?iwm_lbuttondown@ioWnd@@UAEXABVioMouse@@@Z
	DD	FLAT:?iwm_lbuttonup@ioWnd@@UAEXABVioMouse@@@Z
	DD	FLAT:?iwm_lbuttonDBLCLK@ioWnd@@UAEXABVioMouse@@@Z
	DD	FLAT:?iwm_rbuttondown@ioWnd@@UAEXABVioMouse@@@Z
	DD	FLAT:?iwm_rbuttonup@ioWnd@@UAEXABVioMouse@@@Z
	DD	FLAT:?iwm_command@ioMessageBox@@UAEXPAVioWnd@@HK@Z
	DD	FLAT:?iwm_mouseover@ioWnd@@UAEXABVioMouse@@@Z
	DD	FLAT:?iwm_mousemove@ioWnd@@UAEXABVioMouse@@@Z
	DD	FLAT:?iwm_mouseleave@ioWnd@@UAEXABVioMouse@@@Z
	DD	FLAT:?iwm_vscroll@ioWnd@@UAEXKH@Z
	DD	FLAT:?iwm_wheel@ioWnd@@UAEXH@Z
	DD	FLAT:?iwm_show@ioWnd@@UAEXXZ
	DD	FLAT:?iwm_hide@ioMessageBox@@UAEXXZ
	DD	FLAT:?iwm_esc@ioMessageBox@@UAE_NXZ
	DD	FLAT:?iwm_spacebar@ioMessageBox@@UAE_NXZ
	DD	FLAT:?iwm_gototop@ioWnd@@UAEXXZ
	DD	FLAT:?iwm_dragenter@ioWnd@@UAE?AW4IWDropEffect@@PAVioDragItem@@ABVioMouse@@@Z
	DD	FLAT:?iwm_dragover@ioWnd@@UAE?AW4IWDropEffect@@PAVioDragItem@@ABVioMouse@@@Z
	DD	FLAT:?iwm_dragleave@ioWnd@@UAEXXZ
	DD	FLAT:?iwm_dropitem@ioWnd@@UAE_NPAVioDragItem@@ABVioMouse@@PAV1@@Z
	DD	FLAT:?iwm_dropdone@ioWnd@@UAEXPAVioDragItem@@PAV1@_N@Z
	DD	FLAT:?IsEXType@ioWnd@@UBE_NXZ
	DD	FLAT:?GetWndType@ioWnd@@UBEKXZ
	DD	FLAT:?RenderWnd@ioWnd@@UAEXXZ
	DD	FLAT:?SetIDEX@ioWnd@@UAEXAAK_N@Z
	DD	FLAT:?ParseXML@ioWnd@@UAEXAAVioXMLElement@@@Z
	DD	FLAT:?GetHeaderFileName@ioWnd@@UAEPBDXZ
	DD	FLAT:?GetTemplateName@ioWnd@@UAEPBDXZ
	DD	FLAT:?GetDefClassName@ioWnd@@UBEPBDXZ
	DD	FLAT:?_Clone@ioWnd@@UAEPAV1@XZ
	DD	FLAT:?Copy@ioWnd@@UAEXPAV1@@Z
	DD	FLAT:?Save@ioWnd@@UAE_NAAVioXMLElement@@@Z
	DD	FLAT:?SetSaveData@ioWnd@@UAEXAAVioXMLElement@@@Z
	DD	FLAT:?SetPosX@ioWnd@@UAEXH@Z
	DD	FLAT:?SetPosY@ioWnd@@UAEXH@Z
	DD	FLAT:?SetWidth@ioWnd@@UAEXH@Z
	DD	FLAT:?SetHeight@ioWnd@@UAEXH@Z
	DD	FLAT:?GetNumFixedRenderFrame@ioWnd@@UBEHXZ
	DD	FLAT:?GetFixedRenderFrameType@ioWnd@@UAEPBDH@Z
	DD	FLAT:?GetRenderFrame@ioWnd@@UAEPAPAVioUIRenderElement@@PBD@Z
	DD	FLAT:?GetNumFixedRenderImage@ioWnd@@UBEHXZ
	DD	FLAT:?GetFixedRenderImageType@ioWnd@@UAEPBDH@Z
	DD	FLAT:?GetRenderImage@ioWnd@@UAEPAPAVioUIRenderElement@@PBD@Z
	DD	FLAT:?AddEffect@ioWnd@@UAEXABVioHashString@@PAVioUI3DEffectRender@@@Z
	DD	FLAT:?GetEffect@ioWnd@@UAEPAVioUI3DEffectRender@@VioHashString@@@Z
	DD	FLAT:??_EioMessageBox@@UAEPAXI@Z
	DD	FLAT:?ReBatchButton@ioMessageBox@@MAEXH@Z
; Function compile flags: /Ogsp
; File d:\lost saga for developer\youtube\tutorial\source\src\lsclient\gui\iomessagebox.cpp
CONST	ENDS
;	COMDAT ??0ioMessageBox@@QAE@XZ
_TEXT	SEGMENT
??0ioMessageBox@@QAE@XZ PROC				; ioMessageBox::ioMessageBox, COMDAT
; _this$ = ecx

; 75   : {

  00000	56		 push	 esi
  00001	8b f1		 mov	 esi, ecx
  00003	ff 15 00 00 00
	00		 call	 DWORD PTR __imp_??0ioWnd@@QAE@XZ
  00009	33 c9		 xor	 ecx, ecx
  0000b	c7 06 00 00 00
	00		 mov	 DWORD PTR [esi], OFFSET ??_7ioMessageBox@@6B@
  00011	89 8e 70 01 00
	00		 mov	 DWORD PTR [esi+368], ecx
  00017	89 8e 74 01 00
	00		 mov	 DWORD PTR [esi+372], ecx
  0001d	89 8e 78 01 00
	00		 mov	 DWORD PTR [esi+376], ecx

; 76   : 	m_iBoxType = MB_YESNO;

  00023	c7 86 64 01 00
	00 04 00 00 00	 mov	 DWORD PTR [esi+356], 4

; 77   : 	m_pPrevWnd = NULL;

  0002d	89 8e 68 01 00
	00		 mov	 DWORD PTR [esi+360], ecx

; 78   : 	m_pReturnWnd = NULL;

  00033	89 8e 6c 01 00
	00		 mov	 DWORD PTR [esi+364], ecx

; 79   : 	m_pBottomFrm = NULL;

  00039	89 8e 60 01 00
	00		 mov	 DWORD PTR [esi+352], ecx

; 80   : }

  0003f	8b c6		 mov	 eax, esi
  00041	5e		 pop	 esi
  00042	c3		 ret	 0
??0ioMessageBox@@QAE@XZ ENDP				; ioMessageBox::ioMessageBox
_TEXT	ENDS
PUBLIC	??1ioMessageBox@@UAE@XZ				; ioMessageBox::~ioMessageBox
EXTRN	__imp_??1ioWnd@@UAE@XZ:PROC
;	COMDAT xdata$x
; File c:\program files (x86)\microsoft visual studio 10.0\vc\include\vector
xdata$x	SEGMENT
__unwindtable$??1ioMessageBox@@UAE@XZ DD 0ffffffffH
	DD	FLAT:__unwindfunclet$??1ioMessageBox@@UAE@XZ$0
	DD	00H
	DD	FLAT:__unwindfunclet$??1ioMessageBox@@UAE@XZ$1
__ehfuncinfo$??1ioMessageBox@@UAE@XZ DD 019930522H
	DD	02H
	DD	FLAT:__unwindtable$??1ioMessageBox@@UAE@XZ
	DD	2 DUP(00H)
	DD	2 DUP(00H)
	DD	00H
	DD	01H
; Function compile flags: /Ogsp
; File d:\lost saga for developer\youtube\tutorial\source\src\lsclient\gui\iomessagebox.cpp
xdata$x	ENDS
;	COMDAT ??1ioMessageBox@@UAE@XZ
_TEXT	SEGMENT
_this$ = -16						; size = 4
__$EHRec$ = -12						; size = 12
??1ioMessageBox@@UAE@XZ PROC				; ioMessageBox::~ioMessageBox, COMDAT
; _this$ = ecx

; 83   : {

  00000	6a 04		 push	 4
  00002	b8 00 00 00 00	 mov	 eax, __ehhandler$??1ioMessageBox@@UAE@XZ
  00007	e8 00 00 00 00	 call	 __EH_prolog3
  0000c	8b f9		 mov	 edi, ecx
  0000e	89 7d f0	 mov	 DWORD PTR _this$[ebp], edi
  00011	c7 07 00 00 00
	00		 mov	 DWORD PTR [edi], OFFSET ??_7ioMessageBox@@6B@

; 84   : 	SAFEDELETE( m_pBottomFrm );

  00017	8b 8f 60 01 00
	00		 mov	 ecx, DWORD PTR [edi+352]
  0001d	33 c0		 xor	 eax, eax
  0001f	40		 inc	 eax
  00020	89 45 fc	 mov	 DWORD PTR __$EHRec$[ebp+8], eax
  00023	85 c9		 test	 ecx, ecx
  00025	74 0d		 je	 SHORT $LN1@ioMessageB
  00027	8b 11		 mov	 edx, DWORD PTR [ecx]
  00029	50		 push	 eax
  0002a	ff 52 40	 call	 DWORD PTR [edx+64]
  0002d	83 a7 60 01 00
	00 00		 and	 DWORD PTR [edi+352], 0
$LN1@ioMessageB:

; 85   : }

  00034	8d 8f 70 01 00
	00		 lea	 ecx, DWORD PTR [edi+368]
  0003a	c6 45 fc 00	 mov	 BYTE PTR __$EHRec$[ebp+8], 0
  0003e	e8 00 00 00 00	 call	 ?_Tidy@?$vector@V?$basic_string@DU?$char_traits@D@std@@V?$allocator@D@2@@std@@V?$allocator@V?$basic_string@DU?$char_traits@D@std@@V?$allocator@D@2@@std@@@2@@std@@IAEXXZ ; std::vector<std::basic_string<char,std::char_traits<char>,std::allocator<char> >,std::allocator<std::basic_string<char,std::char_traits<char>,std::allocator<char> > > >::_Tidy
  00043	83 4d fc ff	 or	 DWORD PTR __$EHRec$[ebp+8], -1
  00047	8b cf		 mov	 ecx, edi
  00049	ff 15 00 00 00
	00		 call	 DWORD PTR __imp_??1ioWnd@@UAE@XZ
  0004f	e8 00 00 00 00	 call	 __EH_epilog3
  00054	c3		 ret	 0
_TEXT	ENDS
;	COMDAT text$x
text$x	SEGMENT
__unwindfunclet$??1ioMessageBox@@UAE@XZ$0:
  00000	8b 4d f0	 mov	 ecx, DWORD PTR _this$[ebp]
  00003	ff 25 00 00 00
	00		 jmp	 DWORD PTR __imp_??1ioWnd@@UAE@XZ
__unwindfunclet$??1ioMessageBox@@UAE@XZ$1:
  00009	8b 4d f0	 mov	 ecx, DWORD PTR _this$[ebp]
  0000c	81 c1 70 01 00
	00		 add	 ecx, 368		; 00000170H
  00012	e9 00 00 00 00	 jmp	 ??1?$vector@V?$basic_string@DU?$char_traits@D@std@@V?$allocator@D@2@@std@@V?$allocator@V?$basic_string@DU?$char_traits@D@std@@V?$allocator@D@2@@std@@@2@@std@@QAE@XZ ; std::vector<std::basic_string<char,std::char_traits<char>,std::allocator<char> >,std::allocator<std::basic_string<char,std::char_traits<char>,std::allocator<char> > > >::~vector<std::basic_string<char,std::char_traits<char>,std::allocator<char> >,std::allocator<std::basic_string<char,std::char_traits<char>,std::allocator<char> > > >
__ehhandler$??1ioMessageBox@@UAE@XZ:
  00017	8b 54 24 08	 mov	 edx, DWORD PTR [esp+8]
  0001b	8d 42 0c	 lea	 eax, DWORD PTR [edx+12]
  0001e	8b 4a ec	 mov	 ecx, DWORD PTR [edx-20]
  00021	33 c8		 xor	 ecx, eax
  00023	e8 00 00 00 00	 call	 @__security_check_cookie@4
  00028	b8 00 00 00 00	 mov	 eax, OFFSET __ehfuncinfo$??1ioMessageBox@@UAE@XZ
  0002d	e9 00 00 00 00	 jmp	 ___CxxFrameHandler3
text$x	ENDS
??1ioMessageBox@@UAE@XZ ENDP				; ioMessageBox::~ioMessageBox
PUBLIC	??_7ioMessageBox3@@6B@				; ioMessageBox3::`vftable'
PUBLIC	??0ioMessageBox3@@QAE@XZ			; ioMessageBox3::ioMessageBox3
PUBLIC	??_R4ioMessageBox3@@6B@				; ioMessageBox3::`RTTI Complete Object Locator'
PUBLIC	??_R0?AVioMessageBox3@@@8			; ioMessageBox3 `RTTI Type Descriptor'
PUBLIC	??_R3ioMessageBox3@@8				; ioMessageBox3::`RTTI Class Hierarchy Descriptor'
PUBLIC	??_R2ioMessageBox3@@8				; ioMessageBox3::`RTTI Base Class Array'
PUBLIC	??_R1A@?0A@EA@ioMessageBox3@@8			; ioMessageBox3::`RTTI Base Class Descriptor at (0,-1,0,64)'
EXTRN	??_L@YGXPAXIHP6EX0@Z1@Z:PROC			; `eh vector constructor iterator'
EXTRN	??0ioComplexStringPrinter@@QAE@XZ:PROC		; ioComplexStringPrinter::ioComplexStringPrinter
EXTRN	??1ioComplexStringPrinter@@QAE@XZ:PROC		; ioComplexStringPrinter::~ioComplexStringPrinter
EXTRN	??_EioMessageBox3@@UAEPAXI@Z:PROC		; ioMessageBox3::`vector deleting destructor'
;	COMDAT ??_R1A@?0A@EA@ioMessageBox3@@8
rdata$r	SEGMENT
??_R1A@?0A@EA@ioMessageBox3@@8 DD FLAT:??_R0?AVioMessageBox3@@@8 ; ioMessageBox3::`RTTI Base Class Descriptor at (0,-1,0,64)'
	DD	02H
	DD	00H
	DD	0ffffffffH
	DD	00H
	DD	040H
	DD	FLAT:??_R3ioMessageBox3@@8
rdata$r	ENDS
;	COMDAT ??_R2ioMessageBox3@@8
rdata$r	SEGMENT
??_R2ioMessageBox3@@8 DD FLAT:??_R1A@?0A@EA@ioMessageBox3@@8 ; ioMessageBox3::`RTTI Base Class Array'
	DD	FLAT:??_R1A@?0A@EA@ioMessageBox@@8
	DD	FLAT:??_R1A@?0A@EA@ioWnd@@8
rdata$r	ENDS
;	COMDAT ??_R3ioMessageBox3@@8
rdata$r	SEGMENT
??_R3ioMessageBox3@@8 DD 00H				; ioMessageBox3::`RTTI Class Hierarchy Descriptor'
	DD	00H
	DD	03H
	DD	FLAT:??_R2ioMessageBox3@@8
rdata$r	ENDS
;	COMDAT ??_R0?AVioMessageBox3@@@8
_DATA	SEGMENT
??_R0?AVioMessageBox3@@@8 DD FLAT:??_7type_info@@6B@	; ioMessageBox3 `RTTI Type Descriptor'
	DD	00H
	DB	'.?AVioMessageBox3@@', 00H
_DATA	ENDS
;	COMDAT ??_R4ioMessageBox3@@6B@
rdata$r	SEGMENT
??_R4ioMessageBox3@@6B@ DD 00H				; ioMessageBox3::`RTTI Complete Object Locator'
	DD	00H
	DD	00H
	DD	FLAT:??_R0?AVioMessageBox3@@@8
	DD	FLAT:??_R3ioMessageBox3@@8
rdata$r	ENDS
;	COMDAT ??_7ioMessageBox3@@6B@
CONST	SEGMENT
??_7ioMessageBox3@@6B@ DD FLAT:??_R4ioMessageBox3@@6B@	; ioMessageBox3::`vftable'
	DD	FLAT:?AddRenderFrame@ioMessageBox@@UAEXABVioHashString@@PAVioUIRenderFrame@@@Z
	DD	FLAT:?AddRenderImage@ioWnd@@UAEXABVioHashString@@PAVioUIRenderImage@@@Z
	DD	FLAT:?AddTooltipHelp@ioWnd@@UAEXABVioHashString@@00@Z
	DD	FLAT:?ParseExtraInfo@ioWnd@@UAEXAAVioXMLElement@@@Z
	DD	FLAT:?AddNamedRenderImage@ioWnd@@UAEXABVioHashString@@PAVioUIRenderImage@@@Z
	DD	FLAT:?RemoveNamedRenderImage@ioWnd@@UAEXABVioHashString@@@Z
	DD	FLAT:?GetNamedRenderImage@ioWnd@@UBEPAVioUIRenderImage@@ABVioHashString@@@Z
	DD	FLAT:?SetWindowAlpha@ioWnd@@UAEXH@Z
	DD	FLAT:?SetActive@ioWnd@@UAEXXZ
	DD	FLAT:?SetInActive@ioWnd@@UAEXXZ
	DD	FLAT:?ClearElementImageList@ioWnd@@UAEXXZ
	DD	FLAT:?SetSize@ioWnd@@UAEXHH@Z
	DD	FLAT:?SetPositionToDefault@ioWnd@@UAEXHH_N0@Z
	DD	FLAT:?IsNeedProcess@ioWnd@@UBE_NXZ
	DD	FLAT:?IsCanMouseReaction@ioWnd@@UBE_NXZ
	DD	FLAT:?AddChild@ioWnd@@UAEXPAV1@@Z
	DD	FLAT:?DeleteChild@ioWnd@@UAEXK@Z
	DD	FLAT:?DeleteAllChild@ioWnd@@UAEXXZ
	DD	FLAT:?OnRenderShowAndHide@ioWnd@@MAE_NXZ
	DD	FLAT:?OnRenderShowAndHideByDefault@ioWnd@@MAE_NK@Z
	DD	FLAT:?OnRenderShowAndHideByTop@ioWnd@@MAE_NK@Z
	DD	FLAT:?OnRenderShowAndHideByDown@ioWnd@@MAE_NK@Z
	DD	FLAT:?OnRender@ioMessageBox3@@MAEXXZ
	DD	FLAT:?OnRenderAfterChild@ioWnd@@MAEXXZ
	DD	FLAT:?OnProcess@ioWnd@@MAEXM@Z
	DD	FLAT:?OnMouseProcess@ioWnd@@MAEXABVioMouse@@@Z
	DD	FLAT:?CheckFrameReSize@ioWnd@@MAEXHHHH@Z
	DD	FLAT:?RenderImageList@ioWnd@@MAEXHHW4UIRenderType@@@Z
	DD	FLAT:?iwm_create@ioWnd@@UAEXXZ
	DD	FLAT:?iwm_destroy@ioWnd@@UAEXXZ
	DD	FLAT:?iwm_lbuttondown@ioWnd@@UAEXABVioMouse@@@Z
	DD	FLAT:?iwm_lbuttonup@ioWnd@@UAEXABVioMouse@@@Z
	DD	FLAT:?iwm_lbuttonDBLCLK@ioWnd@@UAEXABVioMouse@@@Z
	DD	FLAT:?iwm_rbuttondown@ioWnd@@UAEXABVioMouse@@@Z
	DD	FLAT:?iwm_rbuttonup@ioWnd@@UAEXABVioMouse@@@Z
	DD	FLAT:?iwm_command@ioMessageBox@@UAEXPAVioWnd@@HK@Z
	DD	FLAT:?iwm_mouseover@ioWnd@@UAEXABVioMouse@@@Z
	DD	FLAT:?iwm_mousemove@ioWnd@@UAEXABVioMouse@@@Z
	DD	FLAT:?iwm_mouseleave@ioWnd@@UAEXABVioMouse@@@Z
	DD	FLAT:?iwm_vscroll@ioWnd@@UAEXKH@Z
	DD	FLAT:?iwm_wheel@ioWnd@@UAEXH@Z
	DD	FLAT:?iwm_show@ioWnd@@UAEXXZ
	DD	FLAT:?iwm_hide@ioMessageBox@@UAEXXZ
	DD	FLAT:?iwm_esc@ioMessageBox@@UAE_NXZ
	DD	FLAT:?iwm_spacebar@ioMessageBox@@UAE_NXZ
	DD	FLAT:?iwm_gototop@ioWnd@@UAEXXZ
	DD	FLAT:?iwm_dragenter@ioWnd@@UAE?AW4IWDropEffect@@PAVioDragItem@@ABVioMouse@@@Z
	DD	FLAT:?iwm_dragover@ioWnd@@UAE?AW4IWDropEffect@@PAVioDragItem@@ABVioMouse@@@Z
	DD	FLAT:?iwm_dragleave@ioWnd@@UAEXXZ
	DD	FLAT:?iwm_dropitem@ioWnd@@UAE_NPAVioDragItem@@ABVioMouse@@PAV1@@Z
	DD	FLAT:?iwm_dropdone@ioWnd@@UAEXPAVioDragItem@@PAV1@_N@Z
	DD	FLAT:?IsEXType@ioWnd@@UBE_NXZ
	DD	FLAT:?GetWndType@ioWnd@@UBEKXZ
	DD	FLAT:?RenderWnd@ioWnd@@UAEXXZ
	DD	FLAT:?SetIDEX@ioWnd@@UAEXAAK_N@Z
	DD	FLAT:?ParseXML@ioWnd@@UAEXAAVioXMLElement@@@Z
	DD	FLAT:?GetHeaderFileName@ioWnd@@UAEPBDXZ
	DD	FLAT:?GetTemplateName@ioWnd@@UAEPBDXZ
	DD	FLAT:?GetDefClassName@ioWnd@@UBEPBDXZ
	DD	FLAT:?_Clone@ioWnd@@UAEPAV1@XZ
	DD	FLAT:?Copy@ioWnd@@UAEXPAV1@@Z
	DD	FLAT:?Save@ioWnd@@UAE_NAAVioXMLElement@@@Z
	DD	FLAT:?SetSaveData@ioWnd@@UAEXAAVioXMLElement@@@Z
	DD	FLAT:?SetPosX@ioWnd@@UAEXH@Z
	DD	FLAT:?SetPosY@ioWnd@@UAEXH@Z
	DD	FLAT:?SetWidth@ioWnd@@UAEXH@Z
	DD	FLAT:?SetHeight@ioWnd@@UAEXH@Z
	DD	FLAT:?GetNumFixedRenderFrame@ioWnd@@UBEHXZ
	DD	FLAT:?GetFixedRenderFrameType@ioWnd@@UAEPBDH@Z
	DD	FLAT:?GetRenderFrame@ioWnd@@UAEPAPAVioUIRenderElement@@PBD@Z
	DD	FLAT:?GetNumFixedRenderImage@ioWnd@@UBEHXZ
	DD	FLAT:?GetFixedRenderImageType@ioWnd@@UAEPBDH@Z
	DD	FLAT:?GetRenderImage@ioWnd@@UAEPAPAVioUIRenderElement@@PBD@Z
	DD	FLAT:?AddEffect@ioWnd@@UAEXABVioHashString@@PAVioUI3DEffectRender@@@Z
	DD	FLAT:?GetEffect@ioWnd@@UAEPAVioUI3DEffectRender@@VioHashString@@@Z
	DD	FLAT:??_EioMessageBox3@@UAEPAXI@Z
	DD	FLAT:?ReBatchButton@ioMessageBox@@MAEXH@Z
CONST	ENDS
;	COMDAT xdata$x
xdata$x	SEGMENT
__unwindtable$??0ioMessageBox3@@QAE@XZ DD 0ffffffffH
	DD	FLAT:__unwindfunclet$??0ioMessageBox3@@QAE@XZ$0
__ehfuncinfo$??0ioMessageBox3@@QAE@XZ DD 019930522H
	DD	01H
	DD	FLAT:__unwindtable$??0ioMessageBox3@@QAE@XZ
	DD	2 DUP(00H)
	DD	2 DUP(00H)
	DD	00H
	DD	01H
; Function compile flags: /Ogsp
xdata$x	ENDS
;	COMDAT ??0ioMessageBox3@@QAE@XZ
_TEXT	SEGMENT
_this$ = -16						; size = 4
__$EHRec$ = -12						; size = 12
??0ioMessageBox3@@QAE@XZ PROC				; ioMessageBox3::ioMessageBox3, COMDAT
; _this$ = ecx

; 288  : {

  00000	6a 04		 push	 4
  00002	b8 00 00 00 00	 mov	 eax, __ehhandler$??0ioMessageBox3@@QAE@XZ
  00007	e8 00 00 00 00	 call	 __EH_prolog3
  0000c	8b f1		 mov	 esi, ecx
  0000e	89 75 f0	 mov	 DWORD PTR _this$[ebp], esi
  00011	e8 00 00 00 00	 call	 ??0ioMessageBox@@QAE@XZ	; ioMessageBox::ioMessageBox
  00016	83 65 fc 00	 and	 DWORD PTR __$EHRec$[ebp+8], 0
  0001a	68 00 00 00 00	 push	 OFFSET ??1ioComplexStringPrinter@@QAE@XZ ; ioComplexStringPrinter::~ioComplexStringPrinter
  0001f	68 00 00 00 00	 push	 OFFSET ??0ioComplexStringPrinter@@QAE@XZ ; ioComplexStringPrinter::ioComplexStringPrinter
  00024	6a 0c		 push	 12			; 0000000cH
  00026	6a 20		 push	 32			; 00000020H
  00028	8d 86 80 01 00
	00		 lea	 eax, DWORD PTR [esi+384]
  0002e	50		 push	 eax
  0002f	c7 06 00 00 00
	00		 mov	 DWORD PTR [esi], OFFSET ??_7ioMessageBox3@@6B@
  00035	e8 00 00 00 00	 call	 ??_L@YGXPAXIHP6EX0@Z1@Z

; 289  : 	m_AlignType = TAT_CENTER;

  0003a	c7 86 00 03 00
	00 01 00 00 00	 mov	 DWORD PTR [esi+768], 1

; 290  : }

  00044	8b c6		 mov	 eax, esi
  00046	e8 00 00 00 00	 call	 __EH_epilog3
  0004b	c3		 ret	 0
_TEXT	ENDS
;	COMDAT text$x
text$x	SEGMENT
__unwindfunclet$??0ioMessageBox3@@QAE@XZ$0:
  00000	8b 4d f0	 mov	 ecx, DWORD PTR _this$[ebp]
  00003	e9 00 00 00 00	 jmp	 ??1ioMessageBox@@UAE@XZ	; ioMessageBox::~ioMessageBox
__ehhandler$??0ioMessageBox3@@QAE@XZ:
  00008	8b 54 24 08	 mov	 edx, DWORD PTR [esp+8]
  0000c	8d 42 0c	 lea	 eax, DWORD PTR [edx+12]
  0000f	8b 4a ec	 mov	 ecx, DWORD PTR [edx-20]
  00012	33 c8		 xor	 ecx, eax
  00014	e8 00 00 00 00	 call	 @__security_check_cookie@4
  00019	b8 00 00 00 00	 mov	 eax, OFFSET __ehfuncinfo$??0ioMessageBox3@@QAE@XZ
  0001e	e9 00 00 00 00	 jmp	 ___CxxFrameHandler3
text$x	ENDS
??0ioMessageBox3@@QAE@XZ ENDP				; ioMessageBox3::ioMessageBox3
PUBLIC	??1ioMessageBox3@@UAE@XZ			; ioMessageBox3::~ioMessageBox3
EXTRN	??_M@YGXPAXIHP6EX0@Z@Z:PROC			; `eh vector destructor iterator'
;	COMDAT xdata$x
xdata$x	SEGMENT
__unwindtable$??1ioMessageBox3@@UAE@XZ DD 0ffffffffH
	DD	FLAT:__unwindfunclet$??1ioMessageBox3@@UAE@XZ$0
	DD	00H
	DD	FLAT:__unwindfunclet$??1ioMessageBox3@@UAE@XZ$1
__ehfuncinfo$??1ioMessageBox3@@UAE@XZ DD 019930522H
	DD	02H
	DD	FLAT:__unwindtable$??1ioMessageBox3@@UAE@XZ
	DD	2 DUP(00H)
	DD	2 DUP(00H)
	DD	00H
	DD	01H
; Function compile flags: /Ogsp
xdata$x	ENDS
;	COMDAT ??1ioMessageBox3@@UAE@XZ
_TEXT	SEGMENT
_this$ = -16						; size = 4
__$EHRec$ = -12						; size = 12
??1ioMessageBox3@@UAE@XZ PROC				; ioMessageBox3::~ioMessageBox3, COMDAT
; _this$ = ecx

; 293  : {

  00000	6a 04		 push	 4
  00002	b8 00 00 00 00	 mov	 eax, __ehhandler$??1ioMessageBox3@@UAE@XZ
  00007	e8 00 00 00 00	 call	 __EH_prolog3
  0000c	8b f1		 mov	 esi, ecx
  0000e	89 75 f0	 mov	 DWORD PTR _this$[ebp], esi
  00011	c7 06 00 00 00
	00		 mov	 DWORD PTR [esi], OFFSET ??_7ioMessageBox3@@6B@
  00017	c7 45 fc 01 00
	00 00		 mov	 DWORD PTR __$EHRec$[ebp+8], 1

; 294  : 	ClearList();

  0001e	e8 00 00 00 00	 call	 ?ClearList@ioMessageBox3@@IAEXXZ ; ioMessageBox3::ClearList

; 295  : }

  00023	68 00 00 00 00	 push	 OFFSET ??1ioComplexStringPrinter@@QAE@XZ ; ioComplexStringPrinter::~ioComplexStringPrinter
  00028	6a 0c		 push	 12			; 0000000cH
  0002a	6a 20		 push	 32			; 00000020H
  0002c	8d 86 80 01 00
	00		 lea	 eax, DWORD PTR [esi+384]
  00032	50		 push	 eax
  00033	c6 45 fc 00	 mov	 BYTE PTR __$EHRec$[ebp+8], 0
  00037	e8 00 00 00 00	 call	 ??_M@YGXPAXIHP6EX0@Z@Z
  0003c	83 4d fc ff	 or	 DWORD PTR __$EHRec$[ebp+8], -1
  00040	8b ce		 mov	 ecx, esi
  00042	e8 00 00 00 00	 call	 ??1ioMessageBox@@UAE@XZ	; ioMessageBox::~ioMessageBox
  00047	e8 00 00 00 00	 call	 __EH_epilog3
  0004c	c3		 ret	 0
_TEXT	ENDS
;	COMDAT text$x
text$x	SEGMENT
__unwindfunclet$??1ioMessageBox3@@UAE@XZ$0:
  00000	8b 4d f0	 mov	 ecx, DWORD PTR _this$[ebp]
  00003	e9 00 00 00 00	 jmp	 ??1ioMessageBox@@UAE@XZ	; ioMessageBox::~ioMessageBox
__unwindfunclet$??1ioMessageBox3@@UAE@XZ$1:
  00008	68 00 00 00 00	 push	 OFFSET ??1ioComplexStringPrinter@@QAE@XZ ; ioComplexStringPrinter::~ioComplexStringPrinter
  0000d	6a 0c		 push	 12			; 0000000cH
  0000f	6a 20		 push	 32			; 00000020H
  00011	8b 45 f0	 mov	 eax, DWORD PTR _this$[ebp]
  00014	05 80 01 00 00	 add	 eax, 384		; 00000180H
  00019	50		 push	 eax
  0001a	e8 00 00 00 00	 call	 ??_M@YGXPAXIHP6EX0@Z@Z
  0001f	c3		 ret	 0
__ehhandler$??1ioMessageBox3@@UAE@XZ:
  00020	8b 54 24 08	 mov	 edx, DWORD PTR [esp+8]
  00024	8d 42 0c	 lea	 eax, DWORD PTR [edx+12]
  00027	8b 4a ec	 mov	 ecx, DWORD PTR [edx-20]
  0002a	33 c8		 xor	 ecx, eax
  0002c	e8 00 00 00 00	 call	 @__security_check_cookie@4
  00031	b8 00 00 00 00	 mov	 eax, OFFSET __ehfuncinfo$??1ioMessageBox3@@UAE@XZ
  00036	e9 00 00 00 00	 jmp	 ___CxxFrameHandler3
text$x	ENDS
??1ioMessageBox3@@UAE@XZ ENDP				; ioMessageBox3::~ioMessageBox3
PUBLIC	??4?$vector@V?$basic_string@DU?$char_traits@D@std@@V?$allocator@D@2@@std@@V?$allocator@V?$basic_string@DU?$char_traits@D@std@@V?$allocator@D@2@@std@@@2@@std@@QAEAAV01@ABV01@@Z ; std::vector<std::basic_string<char,std::char_traits<char>,std::allocator<char> >,std::allocator<std::basic_string<char,std::char_traits<char>,std::allocator<char> > > >::operator=
; Function compile flags: /Ogsp
; File c:\program files (x86)\microsoft visual studio 10.0\vc\include\vector
;	COMDAT ??4?$vector@V?$basic_string@DU?$char_traits@D@std@@V?$allocator@D@2@@std@@V?$allocator@V?$basic_string@DU?$char_traits@D@std@@V?$allocator@D@2@@std@@@2@@std@@QAEAAV01@ABV01@@Z
_TEXT	SEGMENT
tv551 = 8						; size = 4
__Cat$511072 = 8					; size = 1
__Cat$511040 = 8					; size = 1
__Cat$511018 = 8					; size = 1
__Cat$510996 = 8					; size = 1
__Cat$510971 = 8					; size = 1
__Cat$510947 = 8					; size = 1
$T510914 = 8						; size = 4
__Right$ = 8						; size = 4
??4?$vector@V?$basic_string@DU?$char_traits@D@std@@V?$allocator@D@2@@std@@V?$allocator@V?$basic_string@DU?$char_traits@D@std@@V?$allocator@D@2@@std@@@2@@std@@QAEAAV01@ABV01@@Z PROC ; std::vector<std::basic_string<char,std::char_traits<char>,std::allocator<char> >,std::allocator<std::basic_string<char,std::char_traits<char>,std::allocator<char> > > >::operator=, COMDAT
; _this$ = ecx

; 709  : 		{	// assign _Right

  00000	55		 push	 ebp
  00001	8b ec		 mov	 ebp, esp
  00003	56		 push	 esi
  00004	57		 push	 edi

; 710  : 		if (this != &_Right)

  00005	8b 7d 08	 mov	 edi, DWORD PTR __Right$[ebp]
  00008	8b f1		 mov	 esi, ecx
  0000a	3b f7		 cmp	 esi, edi
  0000c	0f 84 09 01 00
	00		 je	 $LN1@operator@2

; 711  : 			{	// worth doing
; 712  : 			this->_Orphan_all();

  00012	ff 15 00 00 00
	00		 call	 DWORD PTR __imp_?_Orphan_all@_Container_base0@std@@QAEXXZ

; 713  : 
; 714  : 			if (_Right.size() == 0)

  00018	8b 47 04	 mov	 eax, DWORD PTR [edi+4]
  0001b	2b 07		 sub	 eax, DWORD PTR [edi]
  0001d	6a 1c		 push	 28			; 0000001cH
  0001f	99		 cdq
  00020	59		 pop	 ecx
  00021	f7 f9		 idiv	 ecx
  00023	89 45 08	 mov	 DWORD PTR tv551[ebp], eax
  00026	85 c0		 test	 eax, eax

; 715  : 				clear();	// new sequence empty, erase existing sequence

  00028	8b 46 04	 mov	 eax, DWORD PTR [esi+4]
  0002b	75 14		 jne	 SHORT $LN8@operator@2
  0002d	8b 0e		 mov	 ecx, DWORD PTR [esi]
  0002f	50		 push	 eax
  00030	51		 push	 ecx
  00031	8d 45 08	 lea	 eax, DWORD PTR $T510914[ebp]
  00034	50		 push	 eax
  00035	8b ce		 mov	 ecx, esi
  00037	e8 00 00 00 00	 call	 ?erase@?$vector@V?$basic_string@DU?$char_traits@D@std@@V?$allocator@D@2@@std@@V?$allocator@V?$basic_string@DU?$char_traits@D@std@@V?$allocator@D@2@@std@@@2@@std@@QAE?AV?$_Vector_iterator@V?$_Vector_val@V?$basic_string@DU?$char_traits@D@std@@V?$allocator@D@2@@std@@V?$allocator@V?$basic_string@DU?$char_traits@D@std@@V?$allocator@D@2@@std@@@2@@std@@@2@V?$_Vector_const_iterator@V?$_Vector_val@V?$basic_string@DU?$char_traits@D@std@@V?$allocator@D@2@@std@@V?$allocator@V?$basic_string@DU?$char_traits@D@std@@V?$allocator@D@2@@std@@@2@@std@@@2@0@Z ; std::vector<std::basic_string<char,std::char_traits<char>,std::allocator<char> >,std::allocator<std::basic_string<char,std::char_traits<char>,std::allocator<char> > > >::erase

; 716  : 			else if (_Right.size() <= size())

  0003c	e9 da 00 00 00	 jmp	 $LN1@operator@2
$LN8@operator@2:
  00041	53		 push	 ebx
  00042	8b 1e		 mov	 ebx, DWORD PTR [esi]
  00044	2b c3		 sub	 eax, ebx
  00046	6a 1c		 push	 28			; 0000001cH
  00048	99		 cdq
  00049	59		 pop	 ecx
  0004a	f7 f9		 idiv	 ecx
  0004c	8b c8		 mov	 ecx, eax
  0004e	39 4d 08	 cmp	 DWORD PTR tv551[ebp], ecx
  00051	77 36		 ja	 SHORT $LN6@operator@2

; 717  : 				{	// enough elements, copy new and destroy old
; 718  : 				pointer _Ptr = _STD _Copy_impl(_Right._Myfirst, _Right._Mylast,
; 719  : 					this->_Myfirst);	// copy new

  00053	ff 75 08	 push	 DWORD PTR __Cat$510947[ebp]
  00056	53		 push	 ebx
  00057	ff 77 04	 push	 DWORD PTR [edi+4]
  0005a	ff 37		 push	 DWORD PTR [edi]
  0005c	e8 00 00 00 00	 call	 ??$_Copy_impl@PAV?$basic_string@DU?$char_traits@D@std@@V?$allocator@D@2@@std@@PAV12@@std@@YAPAV?$basic_string@DU?$char_traits@D@std@@V?$allocator@D@2@@0@PAV10@00U_Nonscalar_ptr_iterator_tag@0@@Z ; std::_Copy_impl<std::basic_string<char,std::char_traits<char>,std::allocator<char> > *,std::basic_string<char,std::char_traits<char>,std::allocator<char> > *>

; 720  : 				_Destroy(_Ptr, this->_Mylast);	// destroy old

  00061	ff 75 08	 push	 DWORD PTR __Cat$510971[ebp]
  00064	8d 4e 0c	 lea	 ecx, DWORD PTR [esi+12]
  00067	51		 push	 ecx
  00068	ff 76 04	 push	 DWORD PTR [esi+4]
  0006b	50		 push	 eax
  0006c	e8 00 00 00 00	 call	 ??$_Destroy_range@V?$allocator@V?$basic_string@DU?$char_traits@D@std@@V?$allocator@D@2@@std@@@std@@@std@@YAXPAV?$basic_string@DU?$char_traits@D@std@@V?$allocator@D@2@@0@0AAV?$allocator@V?$basic_string@DU?$char_traits@D@std@@V?$allocator@D@2@@std@@@0@U_Nonscalar_ptr_iterator_tag@0@@Z ; std::_Destroy_range<std::allocator<std::basic_string<char,std::char_traits<char>,std::allocator<char> > > >

; 721  : 				this->_Mylast = this->_Myfirst + _Right.size();

  00071	8b 47 04	 mov	 eax, DWORD PTR [edi+4]
  00074	2b 07		 sub	 eax, DWORD PTR [edi]
  00076	83 c4 20	 add	 esp, 32			; 00000020H
  00079	99		 cdq
  0007a	6a 1c		 push	 28			; 0000001cH
  0007c	59		 pop	 ecx
  0007d	f7 f9		 idiv	 ecx
  0007f	6b c0 1c	 imul	 eax, 28			; 0000001cH
  00082	03 06		 add	 eax, DWORD PTR [esi]

; 722  : 				}
; 723  : 			else if (_Right.size() <= capacity())

  00084	e9 8e 00 00 00	 jmp	 $LN81@operator@2
$LN6@operator@2:
  00089	8b 46 08	 mov	 eax, DWORD PTR [esi+8]
  0008c	2b c3		 sub	 eax, ebx
  0008e	6a 1c		 push	 28			; 0000001cH
  00090	99		 cdq
  00091	5b		 pop	 ebx
  00092	f7 fb		 idiv	 ebx
  00094	39 45 08	 cmp	 DWORD PTR tv551[ebp], eax
  00097	77 2e		 ja	 SHORT $LN4@operator@2

; 724  : 				{	// enough room, copy and construct new
; 725  : 				pointer _Ptr = _Right._Myfirst + size();
; 726  : 				_STD _Copy_impl(_Right._Myfirst, _Ptr, this->_Myfirst);

  00099	ff 75 08	 push	 DWORD PTR __Cat$510996[ebp]
  0009c	6b c9 1c	 imul	 ecx, 28			; 0000001cH
  0009f	8b 07		 mov	 eax, DWORD PTR [edi]
  000a1	ff 36		 push	 DWORD PTR [esi]
  000a3	8d 1c 08	 lea	 ebx, DWORD PTR [eax+ecx]
  000a6	53		 push	 ebx
  000a7	50		 push	 eax
  000a8	e8 00 00 00 00	 call	 ??$_Copy_impl@PAV?$basic_string@DU?$char_traits@D@std@@V?$allocator@D@2@@std@@PAV12@@std@@YAPAV?$basic_string@DU?$char_traits@D@std@@V?$allocator@D@2@@0@PAV10@00U_Nonscalar_ptr_iterator_tag@0@@Z ; std::_Copy_impl<std::basic_string<char,std::char_traits<char>,std::allocator<char> > *,std::basic_string<char,std::char_traits<char>,std::allocator<char> > *>

; 727  : 				this->_Mylast = _Ucopy(_Ptr, _Right._Mylast, this->_Mylast);

  000ad	ff 75 08	 push	 DWORD PTR __Cat$511018[ebp]
  000b0	8b 46 04	 mov	 eax, DWORD PTR [esi+4]
  000b3	8b 7f 04	 mov	 edi, DWORD PTR [edi+4]
  000b6	8d 4e 0c	 lea	 ecx, DWORD PTR [esi+12]
  000b9	51		 push	 ecx
  000ba	50		 push	 eax
  000bb	57		 push	 edi
  000bc	53		 push	 ebx
  000bd	e8 00 00 00 00	 call	 ??$_Uninit_copy@PAV?$basic_string@DU?$char_traits@D@std@@V?$allocator@D@2@@std@@PAV12@V?$allocator@V?$basic_string@DU?$char_traits@D@std@@V?$allocator@D@2@@std@@@2@@std@@YAPAV?$basic_string@DU?$char_traits@D@std@@V?$allocator@D@2@@0@PAV10@00AAV?$allocator@V?$basic_string@DU?$char_traits@D@std@@V?$allocator@D@2@@std@@@0@U_Nonscalar_ptr_iterator_tag@0@@Z ; std::_Uninit_copy<std::basic_string<char,std::char_traits<char>,std::allocator<char> > *,std::basic_string<char,std::char_traits<char>,std::allocator<char> > *,std::allocator<std::basic_string<char,std::char_traits<char>,std::allocator<char> > > >
  000c2	83 c4 24	 add	 esp, 36			; 00000024H

; 728  : 				}
; 729  : 			else

  000c5	eb 50		 jmp	 SHORT $LN81@operator@2
$LN4@operator@2:

; 730  : 				{	// not enough room, allocate new array and construct new
; 731  : 				if (this->_Myfirst != 0)

  000c7	8b 06		 mov	 eax, DWORD PTR [esi]
  000c9	85 c0		 test	 eax, eax
  000cb	74 1a		 je	 SHORT $LN70@operator@2

; 732  : 					{	// discard old array
; 733  : 					_Destroy(this->_Myfirst, this->_Mylast);

  000cd	ff 75 08	 push	 DWORD PTR __Cat$511040[ebp]
  000d0	8d 4e 0c	 lea	 ecx, DWORD PTR [esi+12]
  000d3	51		 push	 ecx
  000d4	ff 76 04	 push	 DWORD PTR [esi+4]
  000d7	50		 push	 eax
  000d8	e8 00 00 00 00	 call	 ??$_Destroy_range@V?$allocator@V?$basic_string@DU?$char_traits@D@std@@V?$allocator@D@2@@std@@@std@@@std@@YAXPAV?$basic_string@DU?$char_traits@D@std@@V?$allocator@D@2@@0@0AAV?$allocator@V?$basic_string@DU?$char_traits@D@std@@V?$allocator@D@2@@std@@@0@U_Nonscalar_ptr_iterator_tag@0@@Z ; std::_Destroy_range<std::allocator<std::basic_string<char,std::char_traits<char>,std::allocator<char> > > >

; 734  : 					this->_Alval.deallocate(this->_Myfirst,
; 735  : 						this->_Myend - this->_Myfirst);

  000dd	ff 36		 push	 DWORD PTR [esi]
  000df	e8 00 00 00 00	 call	 ??3@YAXPAX@Z		; operator delete
  000e4	83 c4 14	 add	 esp, 20			; 00000014H
$LN70@operator@2:

; 736  : 					}
; 737  : 				if (_Buy(_Right.size()))

  000e7	8b 47 04	 mov	 eax, DWORD PTR [edi+4]
  000ea	2b 07		 sub	 eax, DWORD PTR [edi]
  000ec	6a 1c		 push	 28			; 0000001cH
  000ee	59		 pop	 ecx
  000ef	99		 cdq
  000f0	f7 f9		 idiv	 ecx
  000f2	8b ce		 mov	 ecx, esi
  000f4	50		 push	 eax
  000f5	e8 00 00 00 00	 call	 ?_Buy@?$vector@V?$basic_string@DU?$char_traits@D@std@@V?$allocator@D@2@@std@@V?$allocator@V?$basic_string@DU?$char_traits@D@std@@V?$allocator@D@2@@std@@@2@@std@@IAE_NI@Z ; std::vector<std::basic_string<char,std::char_traits<char>,std::allocator<char> >,std::allocator<std::basic_string<char,std::char_traits<char>,std::allocator<char> > > >::_Buy
  000fa	84 c0		 test	 al, al
  000fc	74 1c		 je	 SHORT $LN80@operator@2

; 738  : 					this->_Mylast = _Ucopy(_Right._Myfirst, _Right._Mylast,
; 739  : 						this->_Myfirst);

  000fe	ff 75 08	 push	 DWORD PTR __Cat$511072[ebp]
  00101	8b 06		 mov	 eax, DWORD PTR [esi]
  00103	8b 4f 04	 mov	 ecx, DWORD PTR [edi+4]
  00106	8b 3f		 mov	 edi, DWORD PTR [edi]
  00108	8d 56 0c	 lea	 edx, DWORD PTR [esi+12]
  0010b	52		 push	 edx
  0010c	50		 push	 eax
  0010d	51		 push	 ecx
  0010e	57		 push	 edi
  0010f	e8 00 00 00 00	 call	 ??$_Uninit_copy@PAV?$basic_string@DU?$char_traits@D@std@@V?$allocator@D@2@@std@@PAV12@V?$allocator@V?$basic_string@DU?$char_traits@D@std@@V?$allocator@D@2@@std@@@2@@std@@YAPAV?$basic_string@DU?$char_traits@D@std@@V?$allocator@D@2@@0@PAV10@00AAV?$allocator@V?$basic_string@DU?$char_traits@D@std@@V?$allocator@D@2@@std@@@0@U_Nonscalar_ptr_iterator_tag@0@@Z ; std::_Uninit_copy<std::basic_string<char,std::char_traits<char>,std::allocator<char> > *,std::basic_string<char,std::char_traits<char>,std::allocator<char> > *,std::allocator<std::basic_string<char,std::char_traits<char>,std::allocator<char> > > >
  00114	83 c4 14	 add	 esp, 20			; 00000014H
$LN81@operator@2:
  00117	89 46 04	 mov	 DWORD PTR [esi+4], eax
$LN80@operator@2:
  0011a	5b		 pop	 ebx
$LN1@operator@2:
  0011b	5f		 pop	 edi

; 740  : 				}
; 741  : 			}
; 742  : 		return (*this);

  0011c	8b c6		 mov	 eax, esi
  0011e	5e		 pop	 esi

; 743  : 		}

  0011f	5d		 pop	 ebp
  00120	c2 04 00	 ret	 4
??4?$vector@V?$basic_string@DU?$char_traits@D@std@@V?$allocator@D@2@@std@@V?$allocator@V?$basic_string@DU?$char_traits@D@std@@V?$allocator@D@2@@std@@@2@@std@@QAEAAV01@ABV01@@Z ENDP ; std::vector<std::basic_string<char,std::char_traits<char>,std::allocator<char> >,std::allocator<std::basic_string<char,std::char_traits<char>,std::allocator<char> > > >::operator=
; Function compile flags: /Ogsp
_TEXT	ENDS
;	COMDAT ??_GioMessageBox@@UAEPAXI@Z
_TEXT	SEGMENT
___flags$ = 8						; size = 4
??_GioMessageBox@@UAEPAXI@Z PROC			; ioMessageBox::`scalar deleting destructor', COMDAT
; _this$ = ecx
  00000	55		 push	 ebp
  00001	8b ec		 mov	 ebp, esp
  00003	56		 push	 esi
  00004	8b f1		 mov	 esi, ecx
  00006	e8 00 00 00 00	 call	 ??1ioMessageBox@@UAE@XZ	; ioMessageBox::~ioMessageBox
  0000b	f6 45 08 01	 test	 BYTE PTR ___flags$[ebp], 1
  0000f	74 07		 je	 SHORT $LN1@scalar@4
  00011	56		 push	 esi
  00012	e8 00 00 00 00	 call	 ??3@YAXPAX@Z		; operator delete
  00017	59		 pop	 ecx
$LN1@scalar@4:
  00018	8b c6		 mov	 eax, esi
  0001a	5e		 pop	 esi
  0001b	5d		 pop	 ebp
  0001c	c2 04 00	 ret	 4
??_GioMessageBox@@UAEPAXI@Z ENDP			; ioMessageBox::`scalar deleting destructor'
_TEXT	ENDS
PUBLIC	??_C@_01IPJKGB@?$CD?$AA@			; `string'
PUBLIC	_szBuf$GSCopy$
PUBLIC	?SetMessage@ioMessageBox@@QAEXHPBDPAVioWnd@@1@Z	; ioMessageBox::SetMessage
EXTRN	__imp_?GetTextWidth@ioFontManager@@QAEMPBDW4TextStyle@@MH@Z:PROC
EXTRN	__imp_?Split@ioStringConverter@@SAABV?$vector@V?$basic_string@DU?$char_traits@D@std@@V?$allocator@D@2@@std@@V?$allocator@V?$basic_string@DU?$char_traits@D@std@@V?$allocator@D@2@@std@@@2@@std@@ABV?$basic_string@DU?$char_traits@D@std@@V?$allocator@D@2@@3@0H@Z:PROC
EXTRN	__EH_epilog3_GS:PROC
EXTRN	__EH_prolog3_GS:PROC
EXTRN	__ftol2_sse:PROC
;	COMDAT ??_C@_01IPJKGB@?$CD?$AA@
CONST	SEGMENT
??_C@_01IPJKGB@?$CD?$AA@ DB '#', 00H			; `string'
CONST	ENDS
;	COMDAT xdata$x
xdata$x	SEGMENT
__unwindtable$?SetMessage@ioMessageBox@@QAEXHPBDPAVioWnd@@1@Z DD 0ffffffffH
	DD	FLAT:__unwindfunclet$?SetMessage@ioMessageBox@@QAEXHPBDPAVioWnd@@1@Z$0
	DD	00H
	DD	FLAT:__unwindfunclet$?SetMessage@ioMessageBox@@QAEXHPBDPAVioWnd@@1@Z$1
__ehfuncinfo$?SetMessage@ioMessageBox@@QAEXHPBDPAVioWnd@@1@Z DD 019930522H
	DD	02H
	DD	FLAT:__unwindtable$?SetMessage@ioMessageBox@@QAEXHPBDPAVioWnd@@1@Z
	DD	2 DUP(00H)
	DD	2 DUP(00H)
	DD	00H
	DD	01H
; Function compile flags: /Ogsp
; File d:\lost saga for developer\youtube\tutorial\source\src\lsclient\gui\iomessagebox.cpp
xdata$x	ENDS
;	COMDAT ?SetMessage@ioMessageBox@@QAEXHPBDPAVioWnd@@1@Z
_TEXT	SEGMENT
$T511151 = -80						; size = 4
_iter$ = -80						; size = 4
_szBuf$GSCopy$ = -76					; size = 4
_iMinWidth$ = -76					; size = 4
$T507132 = -72						; size = 28
$T507131 = -44						; size = 28
__$EHRec$ = -12						; size = 12
_iType$ = 8						; size = 4
_szBuf$ = 12						; size = 4
_pPrevWnd$ = 16						; size = 4
_pReturnWnd$ = 20					; size = 4
?SetMessage@ioMessageBox@@QAEXHPBDPAVioWnd@@1@Z PROC	; ioMessageBox::SetMessage, COMDAT
; _this$ = ecx

; 102  : {

  00000	6a 44		 push	 68			; 00000044H
  00002	b8 00 00 00 00	 mov	 eax, __ehhandler$?SetMessage@ioMessageBox@@QAEXHPBDPAVioWnd@@1@Z
  00007	e8 00 00 00 00	 call	 __EH_prolog3_GS
  0000c	8b 45 0c	 mov	 eax, DWORD PTR _szBuf$[ebp]
  0000f	8b f1		 mov	 esi, ecx

; 103  : 	m_pPrevWnd		= pPrevWnd;
; 104  : 	m_pReturnWnd = pReturnWnd;
; 105  : 
; 106  : 	m_MessageList.clear();
; 107  : 	m_MessageList = ioStringConverter::Split( szBuf, "#" );
; 108  : 
; 109  : 	int iMinWidth  = MIN_WIDTH;

  00011	89 45 b4	 mov	 DWORD PTR _szBuf$GSCopy$[ebp], eax
  00014	8b 45 10	 mov	 eax, DWORD PTR _pPrevWnd$[ebp]
  00017	89 86 68 01 00
	00		 mov	 DWORD PTR [esi+360], eax
  0001d	8b 45 14	 mov	 eax, DWORD PTR _pReturnWnd$[ebp]
  00020	89 86 6c 01 00
	00		 mov	 DWORD PTR [esi+364], eax
  00026	8b 86 74 01 00
	00		 mov	 eax, DWORD PTR [esi+372]
  0002c	8b 8e 70 01 00
	00		 mov	 ecx, DWORD PTR [esi+368]
  00032	50		 push	 eax
  00033	51		 push	 ecx
  00034	8d 45 b0	 lea	 eax, DWORD PTR $T511151[ebp]
  00037	50		 push	 eax
  00038	8d 8e 70 01 00
	00		 lea	 ecx, DWORD PTR [esi+368]
  0003e	e8 00 00 00 00	 call	 ?erase@?$vector@V?$basic_string@DU?$char_traits@D@std@@V?$allocator@D@2@@std@@V?$allocator@V?$basic_string@DU?$char_traits@D@std@@V?$allocator@D@2@@std@@@2@@std@@QAE?AV?$_Vector_iterator@V?$_Vector_val@V?$basic_string@DU?$char_traits@D@std@@V?$allocator@D@2@@std@@V?$allocator@V?$basic_string@DU?$char_traits@D@std@@V?$allocator@D@2@@std@@@2@@std@@@2@V?$_Vector_const_iterator@V?$_Vector_val@V?$basic_string@DU?$char_traits@D@std@@V?$allocator@D@2@@std@@V?$allocator@V?$basic_string@DU?$char_traits@D@std@@V?$allocator@D@2@@std@@@2@@std@@@2@0@Z ; std::vector<std::basic_string<char,std::char_traits<char>,std::allocator<char> >,std::allocator<std::basic_string<char,std::char_traits<char>,std::allocator<char> > > >::erase
  00043	6a 01		 push	 1
  00045	33 db		 xor	 ebx, ebx
  00047	68 00 00 00 00	 push	 OFFSET ??_C@_01IPJKGB@?$CD?$AA@
  0004c	8d 4d d4	 lea	 ecx, DWORD PTR $T507131[ebp]
  0004f	c7 45 e8 0f 00
	00 00		 mov	 DWORD PTR $T507131[ebp+20], 15 ; 0000000fH
  00056	89 5d e4	 mov	 DWORD PTR $T507131[ebp+16], ebx
  00059	88 5d d4	 mov	 BYTE PTR $T507131[ebp], bl
  0005c	e8 00 00 00 00	 call	 ?assign@?$basic_string@DU?$char_traits@D@std@@V?$allocator@D@2@@std@@QAEAAV12@PBDI@Z ; std::basic_string<char,std::char_traits<char>,std::allocator<char> >::assign
  00061	ff 75 b4	 push	 DWORD PTR _szBuf$GSCopy$[ebp]
  00064	8d 4d b8	 lea	 ecx, DWORD PTR $T507132[ebp]
  00067	89 5d fc	 mov	 DWORD PTR __$EHRec$[ebp+8], ebx
  0006a	c7 45 cc 0f 00
	00 00		 mov	 DWORD PTR $T507132[ebp+20], 15 ; 0000000fH
  00071	89 5d c8	 mov	 DWORD PTR $T507132[ebp+16], ebx
  00074	88 5d b8	 mov	 BYTE PTR $T507132[ebp], bl
  00077	e8 00 00 00 00	 call	 ?assign@?$basic_string@DU?$char_traits@D@std@@V?$allocator@D@2@@std@@QAEAAV12@PBD@Z ; std::basic_string<char,std::char_traits<char>,std::allocator<char> >::assign
  0007c	53		 push	 ebx
  0007d	8d 45 d4	 lea	 eax, DWORD PTR $T507131[ebp]
  00080	50		 push	 eax
  00081	8d 45 b8	 lea	 eax, DWORD PTR $T507132[ebp]
  00084	50		 push	 eax
  00085	c6 45 fc 01	 mov	 BYTE PTR __$EHRec$[ebp+8], 1
  00089	ff 15 00 00 00
	00		 call	 DWORD PTR __imp_?Split@ioStringConverter@@SAABV?$vector@V?$basic_string@DU?$char_traits@D@std@@V?$allocator@D@2@@std@@V?$allocator@V?$basic_string@DU?$char_traits@D@std@@V?$allocator@D@2@@std@@@2@@std@@ABV?$basic_string@DU?$char_traits@D@std@@V?$allocator@D@2@@3@0H@Z
  0008f	83 c4 0c	 add	 esp, 12			; 0000000cH
  00092	50		 push	 eax
  00093	8d 8e 70 01 00
	00		 lea	 ecx, DWORD PTR [esi+368]
  00099	e8 00 00 00 00	 call	 ??4?$vector@V?$basic_string@DU?$char_traits@D@std@@V?$allocator@D@2@@std@@V?$allocator@V?$basic_string@DU?$char_traits@D@std@@V?$allocator@D@2@@std@@@2@@std@@QAEAAV01@ABV01@@Z ; std::vector<std::basic_string<char,std::char_traits<char>,std::allocator<char> >,std::allocator<std::basic_string<char,std::char_traits<char>,std::allocator<char> > > >::operator=
  0009e	53		 push	 ebx
  0009f	6a 01		 push	 1
  000a1	8d 4d b8	 lea	 ecx, DWORD PTR $T507132[ebp]
  000a4	e8 00 00 00 00	 call	 ?_Tidy@?$basic_string@DU?$char_traits@D@std@@V?$allocator@D@2@@std@@QAEX_NI@Z ; std::basic_string<char,std::char_traits<char>,std::allocator<char> >::_Tidy
  000a9	83 4d fc ff	 or	 DWORD PTR __$EHRec$[ebp+8], -1
  000ad	53		 push	 ebx
  000ae	6a 01		 push	 1
  000b0	8d 4d d4	 lea	 ecx, DWORD PTR $T507131[ebp]
  000b3	e8 00 00 00 00	 call	 ?_Tidy@?$basic_string@DU?$char_traits@D@std@@V?$allocator@D@2@@std@@QAEX_NI@Z ; std::basic_string<char,std::char_traits<char>,std::allocator<char> >::_Tidy

; 110  : 	int iMinHeight = MIN_HEIGHT;
; 111  : 
; 112  : 	StringVector::iterator iter;
; 113  : 	for( iter = m_MessageList.begin() ; iter!=m_MessageList.end() ; ++iter )

  000b8	8b 86 70 01 00
	00		 mov	 eax, DWORD PTR [esi+368]
  000be	c7 45 b4 fa 00
	00 00		 mov	 DWORD PTR _iMinWidth$[ebp], 250 ; 000000faH
  000c5	89 45 b0	 mov	 DWORD PTR _iter$[ebp], eax
  000c8	3b 86 74 01 00
	00		 cmp	 eax, DWORD PTR [esi+372]
  000ce	74 4e		 je	 SHORT $LN3@SetMessage
  000d0	eb 03		 jmp	 SHORT $LN106@SetMessage
$LL138@SetMessage:
  000d2	8b 45 b0	 mov	 eax, DWORD PTR _iter$[ebp]
$LN106@SetMessage:

; 114  : 	{
; 115  : 		int iCurLineWidth = g_FontMgr.GetTextWidth( iter->c_str(), TS_NORMAL, FONT_SIZE_13  ) + SIDE_TEXT_GAP;

  000d5	83 78 14 10	 cmp	 DWORD PTR [eax+20], 16	; 00000010H
  000d9	72 02		 jb	 SHORT $LN132@SetMessage
  000db	8b 00		 mov	 eax, DWORD PTR [eax]
$LN132@SetMessage:
  000dd	f3 0f 10 05 00
	00 00 00	 movss	 xmm0, DWORD PTR __real@3f266666
  000e5	53		 push	 ebx
  000e6	51		 push	 ecx
  000e7	f3 0f 11 04 24	 movss	 DWORD PTR [esp], xmm0
  000ec	53		 push	 ebx
  000ed	50		 push	 eax
  000ee	ff 15 00 00 00
	00		 call	 DWORD PTR __imp_?GetSingleton@ioFontManager@@SAAAV1@XZ
  000f4	8b c8		 mov	 ecx, eax
  000f6	ff 15 00 00 00
	00		 call	 DWORD PTR __imp_?GetTextWidth@ioFontManager@@QAEMPBDW4TextStyle@@MH@Z
  000fc	dc 05 00 00 00
	00		 fadd	 QWORD PTR __real@4041000000000000
  00102	e8 00 00 00 00	 call	 __ftol2_sse

; 116  : 		if( iMinWidth < iCurLineWidth )

  00107	39 45 b4	 cmp	 DWORD PTR _iMinWidth$[ebp], eax
  0010a	7d 03		 jge	 SHORT $LN4@SetMessage

; 117  : 			iMinWidth = iCurLineWidth;

  0010c	89 45 b4	 mov	 DWORD PTR _iMinWidth$[ebp], eax
$LN4@SetMessage:

; 110  : 	int iMinHeight = MIN_HEIGHT;
; 111  : 
; 112  : 	StringVector::iterator iter;
; 113  : 	for( iter = m_MessageList.begin() ; iter!=m_MessageList.end() ; ++iter )

  0010f	83 45 b0 1c	 add	 DWORD PTR _iter$[ebp], 28 ; 0000001cH
  00113	8b 45 b0	 mov	 eax, DWORD PTR _iter$[ebp]
  00116	3b 86 74 01 00
	00		 cmp	 eax, DWORD PTR [esi+372]
  0011c	75 b4		 jne	 SHORT $LL138@SetMessage
$LN3@SetMessage:

; 118  : 	}
; 119  : 	iMinHeight += ( TEXT_LINE_GAP * (m_MessageList.size() - 1) );

  0011e	8b 86 74 01 00
	00		 mov	 eax, DWORD PTR [esi+372]
  00124	2b 86 70 01 00
	00		 sub	 eax, DWORD PTR [esi+368]
  0012a	6a 1c		 push	 28			; 0000001cH
  0012c	99		 cdq
  0012d	59		 pop	 ecx
  0012e	f7 f9		 idiv	 ecx

; 120  : 
; 121  : 	SetSize( iMinWidth, iMinHeight );

  00130	8b 1e		 mov	 ebx, DWORD PTR [esi]
  00132	8b ce		 mov	 ecx, esi
  00134	6b c0 14	 imul	 eax, 20			; 00000014H
  00137	83 c0 7f	 add	 eax, 127		; 0000007fH
  0013a	50		 push	 eax
  0013b	ff 75 b4	 push	 DWORD PTR _iMinWidth$[ebp]
  0013e	ff 53 2c	 call	 DWORD PTR [ebx+44]

; 122  : 	SetWndPos( (Setting::Width() - GetWidth() ) / 2, ( (Setting::Height() - GetHeight() ) / 2 ) - 20 );

  00141	8b ce		 mov	 ecx, esi
  00143	ff 15 00 00 00
	00		 call	 DWORD PTR __imp_?GetHeight@ioWnd@@QBEHXZ
  00149	8b f8		 mov	 edi, eax
  0014b	e8 00 00 00 00	 call	 ?Height@Setting@@SAHXZ	; Setting::Height
  00150	2b c7		 sub	 eax, edi
  00152	99		 cdq
  00153	2b c2		 sub	 eax, edx
  00155	d1 f8		 sar	 eax, 1
  00157	83 e8 14	 sub	 eax, 20			; 00000014H
  0015a	50		 push	 eax
  0015b	8b ce		 mov	 ecx, esi
  0015d	ff 15 00 00 00
	00		 call	 DWORD PTR __imp_?GetWidth@ioWnd@@QBEHXZ
  00163	8b f8		 mov	 edi, eax
  00165	e8 00 00 00 00	 call	 ?Width@Setting@@SAHXZ	; Setting::Width
  0016a	2b c7		 sub	 eax, edi
  0016c	99		 cdq
  0016d	2b c2		 sub	 eax, edx
  0016f	d1 f8		 sar	 eax, 1
  00171	50		 push	 eax
  00172	8b ce		 mov	 ecx, esi
  00174	ff 15 00 00 00
	00		 call	 DWORD PTR __imp_?SetWndPos@ioWnd@@QAEXHH@Z

; 123  : 
; 124  : 	m_iBoxType = iType;

  0017a	8b 45 08	 mov	 eax, DWORD PTR _iType$[ebp]

; 125  : 	ReBatchButton( iType );

  0017d	8b 16		 mov	 edx, DWORD PTR [esi]
  0017f	50		 push	 eax
  00180	8b ce		 mov	 ecx, esi
  00182	89 86 64 01 00
	00		 mov	 DWORD PTR [esi+356], eax
  00188	ff 92 30 01 00
	00		 call	 DWORD PTR [edx+304]

; 126  : 
; 127  : 	if( !IsShow() )

  0018e	8b ce		 mov	 ecx, esi
  00190	ff 15 00 00 00
	00		 call	 DWORD PTR __imp_?IsShow@ioWnd@@QBE_NXZ
  00196	84 c0		 test	 al, al
  00198	75 08		 jne	 SHORT $LN1@SetMessage

; 128  : 		ShowWnd();

  0019a	8b ce		 mov	 ecx, esi
  0019c	ff 15 00 00 00
	00		 call	 DWORD PTR __imp_?ShowWnd@ioWnd@@QAEXXZ
$LN1@SetMessage:

; 129  : }

  001a2	e8 00 00 00 00	 call	 __EH_epilog3_GS
  001a7	c2 10 00	 ret	 16			; 00000010H
_TEXT	ENDS
;	COMDAT text$x
text$x	SEGMENT
__unwindfunclet$?SetMessage@ioMessageBox@@QAEXHPBDPAVioWnd@@1@Z$0:
  00000	8d 4d d4	 lea	 ecx, DWORD PTR $T507131[ebp]
  00003	e9 00 00 00 00	 jmp	 ??1?$basic_string@DU?$char_traits@D@std@@V?$allocator@D@2@@std@@QAE@XZ ; std::basic_string<char,std::char_traits<char>,std::allocator<char> >::~basic_string<char,std::char_traits<char>,std::allocator<char> >
__unwindfunclet$?SetMessage@ioMessageBox@@QAEXHPBDPAVioWnd@@1@Z$1:
  00008	8d 4d b8	 lea	 ecx, DWORD PTR $T507132[ebp]
  0000b	e9 00 00 00 00	 jmp	 ??1?$basic_string@DU?$char_traits@D@std@@V?$allocator@D@2@@std@@QAE@XZ ; std::basic_string<char,std::char_traits<char>,std::allocator<char> >::~basic_string<char,std::char_traits<char>,std::allocator<char> >
__ehhandler$?SetMessage@ioMessageBox@@QAEXHPBDPAVioWnd@@1@Z:
  00010	8b 54 24 08	 mov	 edx, DWORD PTR [esp+8]
  00014	8d 42 0c	 lea	 eax, DWORD PTR [edx+12]
  00017	8b 4a ac	 mov	 ecx, DWORD PTR [edx-84]
  0001a	33 c8		 xor	 ecx, eax
  0001c	e8 00 00 00 00	 call	 @__security_check_cookie@4
  00021	8b 4a fc	 mov	 ecx, DWORD PTR [edx-4]
  00024	33 c8		 xor	 ecx, eax
  00026	e8 00 00 00 00	 call	 @__security_check_cookie@4
  0002b	b8 00 00 00 00	 mov	 eax, OFFSET __ehfuncinfo$?SetMessage@ioMessageBox@@QAEXHPBDPAVioWnd@@1@Z
  00030	e9 00 00 00 00	 jmp	 ___CxxFrameHandler3
text$x	ENDS
?SetMessage@ioMessageBox@@QAEXHPBDPAVioWnd@@1@Z ENDP	; ioMessageBox::SetMessage
; Function compile flags: /Ogsp
;	COMDAT ??_GioMessageBox3@@UAEPAXI@Z
_TEXT	SEGMENT
___flags$ = 8						; size = 4
??_GioMessageBox3@@UAEPAXI@Z PROC			; ioMessageBox3::`scalar deleting destructor', COMDAT
; _this$ = ecx
  00000	55		 push	 ebp
  00001	8b ec		 mov	 ebp, esp
  00003	56		 push	 esi
  00004	8b f1		 mov	 esi, ecx
  00006	e8 00 00 00 00	 call	 ??1ioMessageBox3@@UAE@XZ ; ioMessageBox3::~ioMessageBox3
  0000b	f6 45 08 01	 test	 BYTE PTR ___flags$[ebp], 1
  0000f	74 07		 je	 SHORT $LN1@scalar@5
  00011	56		 push	 esi
  00012	e8 00 00 00 00	 call	 ??3@YAXPAX@Z		; operator delete
  00017	59		 pop	 ecx
$LN1@scalar@5:
  00018	8b c6		 mov	 eax, esi
  0001a	5e		 pop	 esi
  0001b	5d		 pop	 ebp
  0001c	c2 04 00	 ret	 4
??_GioMessageBox3@@UAEPAXI@Z ENDP			; ioMessageBox3::`scalar deleting destructor'
_TEXT	ENDS
END
