; Listing generated by Microsoft (R) Optimizing Compiler Version 16.00.30319.01 

	TITLE	D:\Lost Saga For Developer\Youtube\Tutorial\Source\src\LSClient\GUI\ioMessageBox4.cpp
	.686P
	.XMM
	include listing.inc
	.model	flat

INCLUDELIB MSVCRT
INCLUDELIB OLDNAMES

PUBLIC	??0ExpandSlotItemInfo@ioMessageBox4@@QAE@XZ	; ioMessageBox4::ExpandSlotItemInfo::ExpandSlotItemInfo
EXTRN	__imp_??1ioHashString@@QAE@XZ:PROC
EXTRN	__imp_?Clear@ioHashString@@QAEXXZ:PROC
EXTRN	__imp_??0ioHashString@@QAE@XZ:PROC
EXTRN	___CxxFrameHandler3:PROC
EXTRN	@__security_check_cookie@4:PROC
EXTRN	__EH_epilog3:PROC
EXTRN	__EH_prolog3:PROC
;	COMDAT xdata$x
; File d:\lost saga for developer\youtube\tutorial\source\src\lsclient\gui\iomessagebox4.h
xdata$x	SEGMENT
__unwindtable$??0ExpandSlotItemInfo@ioMessageBox4@@QAE@XZ DD 0ffffffffH
	DD	FLAT:__unwindfunclet$??0ExpandSlotItemInfo@ioMessageBox4@@QAE@XZ$0
__ehfuncinfo$??0ExpandSlotItemInfo@ioMessageBox4@@QAE@XZ DD 019930522H
	DD	01H
	DD	FLAT:__unwindtable$??0ExpandSlotItemInfo@ioMessageBox4@@QAE@XZ
	DD	2 DUP(00H)
	DD	2 DUP(00H)
	DD	00H
	DD	01H
; Function compile flags: /Ogsp
xdata$x	ENDS
;	COMDAT ??0ExpandSlotItemInfo@ioMessageBox4@@QAE@XZ
_TEXT	SEGMENT
_this$ = -16						; size = 4
__$EHRec$ = -12						; size = 12
??0ExpandSlotItemInfo@ioMessageBox4@@QAE@XZ PROC	; ioMessageBox4::ExpandSlotItemInfo::ExpandSlotItemInfo, COMDAT
; _this$ = ecx

; 67   : 		ExpandSlotItemInfo()

  00000	6a 04		 push	 4
  00002	b8 00 00 00 00	 mov	 eax, __ehhandler$??0ExpandSlotItemInfo@ioMessageBox4@@QAE@XZ
  00007	e8 00 00 00 00	 call	 __EH_prolog3
  0000c	8b f1		 mov	 esi, ecx
  0000e	89 75 f0	 mov	 DWORD PTR _this$[ebp], esi
  00011	8d 4e 04	 lea	 ecx, DWORD PTR [esi+4]
  00014	ff 15 00 00 00
	00		 call	 DWORD PTR __imp_??0ioHashString@@QAE@XZ
  0001a	83 65 fc 00	 and	 DWORD PTR __$EHRec$[ebp+8], 0

; 68   : 		{
; 69   : 			m_dwID = 0;

  0001e	83 26 00	 and	 DWORD PTR [esi], 0

; 70   : 			m_szItemName.Clear();

  00021	8d 4e 04	 lea	 ecx, DWORD PTR [esi+4]
  00024	ff 15 00 00 00
	00		 call	 DWORD PTR __imp_?Clear@ioHashString@@QAEXXZ

; 71   : 			m_dwLimitTime = 0;

  0002a	83 66 14 00	 and	 DWORD PTR [esi+20], 0

; 72   : 		}

  0002e	8b c6		 mov	 eax, esi
  00030	e8 00 00 00 00	 call	 __EH_epilog3
  00035	c3		 ret	 0
_TEXT	ENDS
;	COMDAT text$x
text$x	SEGMENT
__unwindfunclet$??0ExpandSlotItemInfo@ioMessageBox4@@QAE@XZ$0:
  00000	8b 4d f0	 mov	 ecx, DWORD PTR _this$[ebp]
  00003	83 c1 04	 add	 ecx, 4
  00006	ff 25 00 00 00
	00		 jmp	 DWORD PTR __imp_??1ioHashString@@QAE@XZ
__ehhandler$??0ExpandSlotItemInfo@ioMessageBox4@@QAE@XZ:
  0000c	8b 54 24 08	 mov	 edx, DWORD PTR [esp+8]
  00010	8d 42 0c	 lea	 eax, DWORD PTR [edx+12]
  00013	8b 4a ec	 mov	 ecx, DWORD PTR [edx-20]
  00016	33 c8		 xor	 ecx, eax
  00018	e8 00 00 00 00	 call	 @__security_check_cookie@4
  0001d	b8 00 00 00 00	 mov	 eax, OFFSET __ehfuncinfo$??0ExpandSlotItemInfo@ioMessageBox4@@QAE@XZ
  00022	e9 00 00 00 00	 jmp	 ___CxxFrameHandler3
text$x	ENDS
??0ExpandSlotItemInfo@ioMessageBox4@@QAE@XZ ENDP	; ioMessageBox4::ExpandSlotItemInfo::ExpandSlotItemInfo
PUBLIC	??_7ioMessageBox4Btn@@6B@			; ioMessageBox4Btn::`vftable'
PUBLIC	??0ioMessageBox4Btn@@QAE@XZ			; ioMessageBox4Btn::ioMessageBox4Btn
PUBLIC	??_R4ioMessageBox4Btn@@6B@			; ioMessageBox4Btn::`RTTI Complete Object Locator'
PUBLIC	??_R0?AVioMessageBox4Btn@@@8			; ioMessageBox4Btn `RTTI Type Descriptor'
PUBLIC	??_R3ioMessageBox4Btn@@8			; ioMessageBox4Btn::`RTTI Class Hierarchy Descriptor'
PUBLIC	??_R2ioMessageBox4Btn@@8			; ioMessageBox4Btn::`RTTI Base Class Array'
PUBLIC	??_R1A@?0A@EA@ioMessageBox4Btn@@8		; ioMessageBox4Btn::`RTTI Base Class Descriptor at (0,-1,0,64)'
PUBLIC	??_R1A@?0A@EA@ioButton@@8			; ioButton::`RTTI Base Class Descriptor at (0,-1,0,64)'
PUBLIC	??_R0?AVioButton@@@8				; ioButton `RTTI Type Descriptor'
PUBLIC	??_R3ioButton@@8				; ioButton::`RTTI Class Hierarchy Descriptor'
PUBLIC	??_R2ioButton@@8				; ioButton::`RTTI Base Class Array'
PUBLIC	??_R1A@?0A@EA@ioWnd@@8				; ioWnd::`RTTI Base Class Descriptor at (0,-1,0,64)'
PUBLIC	??_R0?AVioWnd@@@8				; ioWnd `RTTI Type Descriptor'
PUBLIC	??_R3ioWnd@@8					; ioWnd::`RTTI Class Hierarchy Descriptor'
PUBLIC	??_R2ioWnd@@8					; ioWnd::`RTTI Base Class Array'
PUBLIC	?ParseExtraInfo@ioMessageBox4Btn@@UAEXAAVioXMLElement@@@Z ; ioMessageBox4Btn::ParseExtraInfo
EXTRN	__imp_??1ioButton@@UAE@XZ:PROC
EXTRN	__imp_??0ioButton@@QAE@XZ:PROC
EXTRN	??_7type_info@@6B@:QWORD			; type_info::`vftable'
EXTRN	?AddRenderFrame@ioButton@@UAEXABVioHashString@@PAVioUIRenderFrame@@@Z:PROC ; ioButton::AddRenderFrame
EXTRN	?AddRenderImage@ioButton@@UAEXABVioHashString@@PAVioUIRenderImage@@@Z:PROC ; ioButton::AddRenderImage
EXTRN	?AddTooltipHelp@ioWnd@@UAEXABVioHashString@@00@Z:PROC ; ioWnd::AddTooltipHelp
EXTRN	?AddNamedRenderImage@ioWnd@@UAEXABVioHashString@@PAVioUIRenderImage@@@Z:PROC ; ioWnd::AddNamedRenderImage
EXTRN	?RemoveNamedRenderImage@ioWnd@@UAEXABVioHashString@@@Z:PROC ; ioWnd::RemoveNamedRenderImage
EXTRN	?GetNamedRenderImage@ioWnd@@UBEPAVioUIRenderImage@@ABVioHashString@@@Z:PROC ; ioWnd::GetNamedRenderImage
EXTRN	?SetWindowAlpha@ioButton@@UAEXH@Z:PROC		; ioButton::SetWindowAlpha
EXTRN	?SetActive@ioWnd@@UAEXXZ:PROC			; ioWnd::SetActive
EXTRN	?SetInActive@ioWnd@@UAEXXZ:PROC			; ioWnd::SetInActive
EXTRN	?ClearElementImageList@ioWnd@@UAEXXZ:PROC	; ioWnd::ClearElementImageList
EXTRN	?SetSize@ioWnd@@UAEXHH@Z:PROC			; ioWnd::SetSize
EXTRN	?SetPositionToDefault@ioWnd@@UAEXHH_N0@Z:PROC	; ioWnd::SetPositionToDefault
EXTRN	?IsNeedProcess@ioWnd@@UBE_NXZ:PROC		; ioWnd::IsNeedProcess
EXTRN	?IsCanMouseReaction@ioWnd@@UBE_NXZ:PROC		; ioWnd::IsCanMouseReaction
EXTRN	?AddChild@ioWnd@@UAEXPAV1@@Z:PROC		; ioWnd::AddChild
EXTRN	?DeleteChild@ioWnd@@UAEXK@Z:PROC		; ioWnd::DeleteChild
EXTRN	?DeleteAllChild@ioWnd@@UAEXXZ:PROC		; ioWnd::DeleteAllChild
EXTRN	?OnRenderShowAndHide@ioWnd@@MAE_NXZ:PROC	; ioWnd::OnRenderShowAndHide
EXTRN	?OnRenderShowAndHideByDefault@ioWnd@@MAE_NK@Z:PROC ; ioWnd::OnRenderShowAndHideByDefault
EXTRN	?OnRenderShowAndHideByTop@ioWnd@@MAE_NK@Z:PROC	; ioWnd::OnRenderShowAndHideByTop
EXTRN	?OnRenderShowAndHideByDown@ioWnd@@MAE_NK@Z:PROC	; ioWnd::OnRenderShowAndHideByDown
EXTRN	?OnRender@ioButton@@MAEXXZ:PROC			; ioButton::OnRender
EXTRN	?OnRenderAfterChild@ioWnd@@MAEXXZ:PROC		; ioWnd::OnRenderAfterChild
EXTRN	?OnProcess@ioWnd@@MAEXM@Z:PROC			; ioWnd::OnProcess
EXTRN	?OnMouseProcess@ioWnd@@MAEXABVioMouse@@@Z:PROC	; ioWnd::OnMouseProcess
EXTRN	?CheckFrameReSize@ioButton@@MAEXHHHH@Z:PROC	; ioButton::CheckFrameReSize
EXTRN	?RenderImageList@ioWnd@@MAEXHHW4UIRenderType@@@Z:PROC ; ioWnd::RenderImageList
EXTRN	?iwm_create@ioWnd@@UAEXXZ:PROC			; ioWnd::iwm_create
EXTRN	?iwm_destroy@ioWnd@@UAEXXZ:PROC			; ioWnd::iwm_destroy
EXTRN	?iwm_lbuttondown@ioButton@@UAEXABVioMouse@@@Z:PROC ; ioButton::iwm_lbuttondown
EXTRN	?iwm_lbuttonup@ioButton@@UAEXABVioMouse@@@Z:PROC ; ioButton::iwm_lbuttonup
EXTRN	?iwm_lbuttonDBLCLK@ioButton@@UAEXABVioMouse@@@Z:PROC ; ioButton::iwm_lbuttonDBLCLK
EXTRN	?iwm_rbuttondown@ioButton@@UAEXABVioMouse@@@Z:PROC ; ioButton::iwm_rbuttondown
EXTRN	?iwm_rbuttonup@ioButton@@UAEXABVioMouse@@@Z:PROC ; ioButton::iwm_rbuttonup
EXTRN	?iwm_command@ioWnd@@UAEXPAV1@HK@Z:PROC		; ioWnd::iwm_command
EXTRN	?iwm_mouseover@ioButton@@UAEXABVioMouse@@@Z:PROC ; ioButton::iwm_mouseover
EXTRN	?iwm_mousemove@ioWnd@@UAEXABVioMouse@@@Z:PROC	; ioWnd::iwm_mousemove
EXTRN	?iwm_mouseleave@ioWnd@@UAEXABVioMouse@@@Z:PROC	; ioWnd::iwm_mouseleave
EXTRN	?iwm_vscroll@ioWnd@@UAEXKH@Z:PROC		; ioWnd::iwm_vscroll
EXTRN	?iwm_wheel@ioWnd@@UAEXH@Z:PROC			; ioWnd::iwm_wheel
EXTRN	?iwm_show@ioWnd@@UAEXXZ:PROC			; ioWnd::iwm_show
EXTRN	?iwm_hide@ioWnd@@UAEXXZ:PROC			; ioWnd::iwm_hide
EXTRN	?iwm_esc@ioWnd@@UAE_NXZ:PROC			; ioWnd::iwm_esc
EXTRN	?iwm_spacebar@ioWnd@@UAE_NXZ:PROC		; ioWnd::iwm_spacebar
EXTRN	?iwm_gototop@ioWnd@@UAEXXZ:PROC			; ioWnd::iwm_gototop
EXTRN	?iwm_dragenter@ioWnd@@UAE?AW4IWDropEffect@@PAVioDragItem@@ABVioMouse@@@Z:PROC ; ioWnd::iwm_dragenter
EXTRN	?iwm_dragover@ioWnd@@UAE?AW4IWDropEffect@@PAVioDragItem@@ABVioMouse@@@Z:PROC ; ioWnd::iwm_dragover
EXTRN	?iwm_dragleave@ioWnd@@UAEXXZ:PROC		; ioWnd::iwm_dragleave
EXTRN	?iwm_dropitem@ioWnd@@UAE_NPAVioDragItem@@ABVioMouse@@PAV1@@Z:PROC ; ioWnd::iwm_dropitem
EXTRN	?iwm_dropdone@ioWnd@@UAEXPAVioDragItem@@PAV1@_N@Z:PROC ; ioWnd::iwm_dropdone
EXTRN	?IsEXType@ioWnd@@UBE_NXZ:PROC			; ioWnd::IsEXType
EXTRN	?GetWndType@ioButton@@UBEKXZ:PROC		; ioButton::GetWndType
EXTRN	?RenderWnd@ioWnd@@UAEXXZ:PROC			; ioWnd::RenderWnd
EXTRN	?SetIDEX@ioWnd@@UAEXAAK_N@Z:PROC		; ioWnd::SetIDEX
EXTRN	?ParseXML@ioWnd@@UAEXAAVioXMLElement@@@Z:PROC	; ioWnd::ParseXML
EXTRN	?GetHeaderFileName@ioButton@@UAEPBDXZ:PROC	; ioButton::GetHeaderFileName
EXTRN	?GetTemplateName@ioButton@@UAEPBDXZ:PROC	; ioButton::GetTemplateName
EXTRN	?GetDefClassName@ioButton@@UBEPBDXZ:PROC	; ioButton::GetDefClassName
EXTRN	?_Clone@ioButton@@UAEPAVioWnd@@XZ:PROC		; ioButton::_Clone
EXTRN	?Copy@ioButton@@UAEXPAVioWnd@@@Z:PROC		; ioButton::Copy
EXTRN	?Save@ioWnd@@UAE_NAAVioXMLElement@@@Z:PROC	; ioWnd::Save
EXTRN	?SetSaveData@ioButton@@UAEXAAVioXMLElement@@@Z:PROC ; ioButton::SetSaveData
EXTRN	?SetPosX@ioWnd@@UAEXH@Z:PROC			; ioWnd::SetPosX
EXTRN	?SetPosY@ioWnd@@UAEXH@Z:PROC			; ioWnd::SetPosY
EXTRN	?SetWidth@ioWnd@@UAEXH@Z:PROC			; ioWnd::SetWidth
EXTRN	?SetHeight@ioWnd@@UAEXH@Z:PROC			; ioWnd::SetHeight
EXTRN	?GetNumFixedRenderFrame@ioButton@@UBEHXZ:PROC	; ioButton::GetNumFixedRenderFrame
EXTRN	?GetFixedRenderFrameType@ioButton@@UAEPBDH@Z:PROC ; ioButton::GetFixedRenderFrameType
EXTRN	?GetRenderFrame@ioButton@@UAEPAPAVioUIRenderElement@@PBD@Z:PROC ; ioButton::GetRenderFrame
EXTRN	?GetNumFixedRenderImage@ioButton@@UBEHXZ:PROC	; ioButton::GetNumFixedRenderImage
EXTRN	?GetFixedRenderImageType@ioButton@@UAEPBDH@Z:PROC ; ioButton::GetFixedRenderImageType
EXTRN	?GetRenderImage@ioButton@@UAEPAPAVioUIRenderElement@@PBD@Z:PROC ; ioButton::GetRenderImage
EXTRN	?AddEffect@ioWnd@@UAEXABVioHashString@@PAVioUI3DEffectRender@@@Z:PROC ; ioWnd::AddEffect
EXTRN	?GetEffect@ioWnd@@UAEPAVioUI3DEffectRender@@VioHashString@@@Z:PROC ; ioWnd::GetEffect
EXTRN	??_EioMessageBox4Btn@@UAEPAXI@Z:PROC		; ioMessageBox4Btn::`vector deleting destructor'
EXTRN	?OnDrawNormal@ioButton@@MAEXHH@Z:PROC		; ioButton::OnDrawNormal
EXTRN	?OnDrawOvered@ioButton@@MAEXHH@Z:PROC		; ioButton::OnDrawOvered
EXTRN	?OnDrawOveredAdd@ioButton@@MAEXHH@Z:PROC	; ioButton::OnDrawOveredAdd
EXTRN	?OnDrawPushed@ioButton@@MAEXHH@Z:PROC		; ioButton::OnDrawPushed
EXTRN	?OnDrawDisabled@ioButton@@MAEXHH@Z:PROC		; ioButton::OnDrawDisabled
EXTRN	?OnDrawExDisabledNormal@ioButton@@MAEXHH@Z:PROC	; ioButton::OnDrawExDisabledNormal
EXTRN	?OnDrawExDisabledOvered@ioButton@@MAEXHH@Z:PROC	; ioButton::OnDrawExDisabledOvered
EXTRN	?OnDrawExDisabledPushed@ioButton@@MAEXHH@Z:PROC	; ioButton::OnDrawExDisabledPushed
EXTRN	?OnDrawBack@ioButton@@MAEXHH@Z:PROC		; ioButton::OnDrawBack
EXTRN	?OnDrawNormalList@ioButton@@MAEXHH@Z:PROC	; ioButton::OnDrawNormalList
EXTRN	?OnDrawDisableList@ioButton@@MAEXHH@Z:PROC	; ioButton::OnDrawDisableList
;	COMDAT ??_R2ioWnd@@8
; File d:\lost saga for developer\youtube\tutorial\source\src\lsclient\gui\iomessagebox4.cpp
rdata$r	SEGMENT
??_R2ioWnd@@8 DD FLAT:??_R1A@?0A@EA@ioWnd@@8		; ioWnd::`RTTI Base Class Array'
rdata$r	ENDS
;	COMDAT ??_R3ioWnd@@8
rdata$r	SEGMENT
??_R3ioWnd@@8 DD 00H					; ioWnd::`RTTI Class Hierarchy Descriptor'
	DD	00H
	DD	01H
	DD	FLAT:??_R2ioWnd@@8
rdata$r	ENDS
;	COMDAT ??_R0?AVioWnd@@@8
_DATA	SEGMENT
??_R0?AVioWnd@@@8 DD FLAT:??_7type_info@@6B@		; ioWnd `RTTI Type Descriptor'
	DD	00H
	DB	'.?AVioWnd@@', 00H
_DATA	ENDS
;	COMDAT ??_R1A@?0A@EA@ioWnd@@8
rdata$r	SEGMENT
??_R1A@?0A@EA@ioWnd@@8 DD FLAT:??_R0?AVioWnd@@@8	; ioWnd::`RTTI Base Class Descriptor at (0,-1,0,64)'
	DD	00H
	DD	00H
	DD	0ffffffffH
	DD	00H
	DD	040H
	DD	FLAT:??_R3ioWnd@@8
rdata$r	ENDS
;	COMDAT ??_R2ioButton@@8
rdata$r	SEGMENT
??_R2ioButton@@8 DD FLAT:??_R1A@?0A@EA@ioButton@@8	; ioButton::`RTTI Base Class Array'
	DD	FLAT:??_R1A@?0A@EA@ioWnd@@8
rdata$r	ENDS
;	COMDAT ??_R3ioButton@@8
rdata$r	SEGMENT
??_R3ioButton@@8 DD 00H					; ioButton::`RTTI Class Hierarchy Descriptor'
	DD	00H
	DD	02H
	DD	FLAT:??_R2ioButton@@8
rdata$r	ENDS
;	COMDAT ??_R0?AVioButton@@@8
_DATA	SEGMENT
??_R0?AVioButton@@@8 DD FLAT:??_7type_info@@6B@		; ioButton `RTTI Type Descriptor'
	DD	00H
	DB	'.?AVioButton@@', 00H
_DATA	ENDS
;	COMDAT ??_R1A@?0A@EA@ioButton@@8
rdata$r	SEGMENT
??_R1A@?0A@EA@ioButton@@8 DD FLAT:??_R0?AVioButton@@@8	; ioButton::`RTTI Base Class Descriptor at (0,-1,0,64)'
	DD	01H
	DD	00H
	DD	0ffffffffH
	DD	00H
	DD	040H
	DD	FLAT:??_R3ioButton@@8
rdata$r	ENDS
;	COMDAT ??_R1A@?0A@EA@ioMessageBox4Btn@@8
rdata$r	SEGMENT
??_R1A@?0A@EA@ioMessageBox4Btn@@8 DD FLAT:??_R0?AVioMessageBox4Btn@@@8 ; ioMessageBox4Btn::`RTTI Base Class Descriptor at (0,-1,0,64)'
	DD	02H
	DD	00H
	DD	0ffffffffH
	DD	00H
	DD	040H
	DD	FLAT:??_R3ioMessageBox4Btn@@8
rdata$r	ENDS
;	COMDAT ??_R2ioMessageBox4Btn@@8
rdata$r	SEGMENT
??_R2ioMessageBox4Btn@@8 DD FLAT:??_R1A@?0A@EA@ioMessageBox4Btn@@8 ; ioMessageBox4Btn::`RTTI Base Class Array'
	DD	FLAT:??_R1A@?0A@EA@ioButton@@8
	DD	FLAT:??_R1A@?0A@EA@ioWnd@@8
rdata$r	ENDS
;	COMDAT ??_R3ioMessageBox4Btn@@8
rdata$r	SEGMENT
??_R3ioMessageBox4Btn@@8 DD 00H				; ioMessageBox4Btn::`RTTI Class Hierarchy Descriptor'
	DD	00H
	DD	03H
	DD	FLAT:??_R2ioMessageBox4Btn@@8
rdata$r	ENDS
;	COMDAT ??_R0?AVioMessageBox4Btn@@@8
_DATA	SEGMENT
??_R0?AVioMessageBox4Btn@@@8 DD FLAT:??_7type_info@@6B@	; ioMessageBox4Btn `RTTI Type Descriptor'
	DD	00H
	DB	'.?AVioMessageBox4Btn@@', 00H
_DATA	ENDS
;	COMDAT ??_R4ioMessageBox4Btn@@6B@
rdata$r	SEGMENT
??_R4ioMessageBox4Btn@@6B@ DD 00H			; ioMessageBox4Btn::`RTTI Complete Object Locator'
	DD	00H
	DD	00H
	DD	FLAT:??_R0?AVioMessageBox4Btn@@@8
	DD	FLAT:??_R3ioMessageBox4Btn@@8
rdata$r	ENDS
;	COMDAT ??_7ioMessageBox4Btn@@6B@
CONST	SEGMENT
??_7ioMessageBox4Btn@@6B@ DD FLAT:??_R4ioMessageBox4Btn@@6B@ ; ioMessageBox4Btn::`vftable'
	DD	FLAT:?AddRenderFrame@ioButton@@UAEXABVioHashString@@PAVioUIRenderFrame@@@Z
	DD	FLAT:?AddRenderImage@ioButton@@UAEXABVioHashString@@PAVioUIRenderImage@@@Z
	DD	FLAT:?AddTooltipHelp@ioWnd@@UAEXABVioHashString@@00@Z
	DD	FLAT:?ParseExtraInfo@ioMessageBox4Btn@@UAEXAAVioXMLElement@@@Z
	DD	FLAT:?AddNamedRenderImage@ioWnd@@UAEXABVioHashString@@PAVioUIRenderImage@@@Z
	DD	FLAT:?RemoveNamedRenderImage@ioWnd@@UAEXABVioHashString@@@Z
	DD	FLAT:?GetNamedRenderImage@ioWnd@@UBEPAVioUIRenderImage@@ABVioHashString@@@Z
	DD	FLAT:?SetWindowAlpha@ioButton@@UAEXH@Z
	DD	FLAT:?SetActive@ioWnd@@UAEXXZ
	DD	FLAT:?SetInActive@ioWnd@@UAEXXZ
	DD	FLAT:?ClearElementImageList@ioWnd@@UAEXXZ
	DD	FLAT:?SetSize@ioWnd@@UAEXHH@Z
	DD	FLAT:?SetPositionToDefault@ioWnd@@UAEXHH_N0@Z
	DD	FLAT:?IsNeedProcess@ioWnd@@UBE_NXZ
	DD	FLAT:?IsCanMouseReaction@ioWnd@@UBE_NXZ
	DD	FLAT:?AddChild@ioWnd@@UAEXPAV1@@Z
	DD	FLAT:?DeleteChild@ioWnd@@UAEXK@Z
	DD	FLAT:?DeleteAllChild@ioWnd@@UAEXXZ
	DD	FLAT:?OnRenderShowAndHide@ioWnd@@MAE_NXZ
	DD	FLAT:?OnRenderShowAndHideByDefault@ioWnd@@MAE_NK@Z
	DD	FLAT:?OnRenderShowAndHideByTop@ioWnd@@MAE_NK@Z
	DD	FLAT:?OnRenderShowAndHideByDown@ioWnd@@MAE_NK@Z
	DD	FLAT:?OnRender@ioButton@@MAEXXZ
	DD	FLAT:?OnRenderAfterChild@ioWnd@@MAEXXZ
	DD	FLAT:?OnProcess@ioWnd@@MAEXM@Z
	DD	FLAT:?OnMouseProcess@ioWnd@@MAEXABVioMouse@@@Z
	DD	FLAT:?CheckFrameReSize@ioButton@@MAEXHHHH@Z
	DD	FLAT:?RenderImageList@ioWnd@@MAEXHHW4UIRenderType@@@Z
	DD	FLAT:?iwm_create@ioWnd@@UAEXXZ
	DD	FLAT:?iwm_destroy@ioWnd@@UAEXXZ
	DD	FLAT:?iwm_lbuttondown@ioButton@@UAEXABVioMouse@@@Z
	DD	FLAT:?iwm_lbuttonup@ioButton@@UAEXABVioMouse@@@Z
	DD	FLAT:?iwm_lbuttonDBLCLK@ioButton@@UAEXABVioMouse@@@Z
	DD	FLAT:?iwm_rbuttondown@ioButton@@UAEXABVioMouse@@@Z
	DD	FLAT:?iwm_rbuttonup@ioButton@@UAEXABVioMouse@@@Z
	DD	FLAT:?iwm_command@ioWnd@@UAEXPAV1@HK@Z
	DD	FLAT:?iwm_mouseover@ioButton@@UAEXABVioMouse@@@Z
	DD	FLAT:?iwm_mousemove@ioWnd@@UAEXABVioMouse@@@Z
	DD	FLAT:?iwm_mouseleave@ioWnd@@UAEXABVioMouse@@@Z
	DD	FLAT:?iwm_vscroll@ioWnd@@UAEXKH@Z
	DD	FLAT:?iwm_wheel@ioWnd@@UAEXH@Z
	DD	FLAT:?iwm_show@ioWnd@@UAEXXZ
	DD	FLAT:?iwm_hide@ioWnd@@UAEXXZ
	DD	FLAT:?iwm_esc@ioWnd@@UAE_NXZ
	DD	FLAT:?iwm_spacebar@ioWnd@@UAE_NXZ
	DD	FLAT:?iwm_gototop@ioWnd@@UAEXXZ
	DD	FLAT:?iwm_dragenter@ioWnd@@UAE?AW4IWDropEffect@@PAVioDragItem@@ABVioMouse@@@Z
	DD	FLAT:?iwm_dragover@ioWnd@@UAE?AW4IWDropEffect@@PAVioDragItem@@ABVioMouse@@@Z
	DD	FLAT:?iwm_dragleave@ioWnd@@UAEXXZ
	DD	FLAT:?iwm_dropitem@ioWnd@@UAE_NPAVioDragItem@@ABVioMouse@@PAV1@@Z
	DD	FLAT:?iwm_dropdone@ioWnd@@UAEXPAVioDragItem@@PAV1@_N@Z
	DD	FLAT:?IsEXType@ioWnd@@UBE_NXZ
	DD	FLAT:?GetWndType@ioButton@@UBEKXZ
	DD	FLAT:?RenderWnd@ioWnd@@UAEXXZ
	DD	FLAT:?SetIDEX@ioWnd@@UAEXAAK_N@Z
	DD	FLAT:?ParseXML@ioWnd@@UAEXAAVioXMLElement@@@Z
	DD	FLAT:?GetHeaderFileName@ioButton@@UAEPBDXZ
	DD	FLAT:?GetTemplateName@ioButton@@UAEPBDXZ
	DD	FLAT:?GetDefClassName@ioButton@@UBEPBDXZ
	DD	FLAT:?_Clone@ioButton@@UAEPAVioWnd@@XZ
	DD	FLAT:?Copy@ioButton@@UAEXPAVioWnd@@@Z
	DD	FLAT:?Save@ioWnd@@UAE_NAAVioXMLElement@@@Z
	DD	FLAT:?SetSaveData@ioButton@@UAEXAAVioXMLElement@@@Z
	DD	FLAT:?SetPosX@ioWnd@@UAEXH@Z
	DD	FLAT:?SetPosY@ioWnd@@UAEXH@Z
	DD	FLAT:?SetWidth@ioWnd@@UAEXH@Z
	DD	FLAT:?SetHeight@ioWnd@@UAEXH@Z
	DD	FLAT:?GetNumFixedRenderFrame@ioButton@@UBEHXZ
	DD	FLAT:?GetFixedRenderFrameType@ioButton@@UAEPBDH@Z
	DD	FLAT:?GetRenderFrame@ioButton@@UAEPAPAVioUIRenderElement@@PBD@Z
	DD	FLAT:?GetNumFixedRenderImage@ioButton@@UBEHXZ
	DD	FLAT:?GetFixedRenderImageType@ioButton@@UAEPBDH@Z
	DD	FLAT:?GetRenderImage@ioButton@@UAEPAPAVioUIRenderElement@@PBD@Z
	DD	FLAT:?AddEffect@ioWnd@@UAEXABVioHashString@@PAVioUI3DEffectRender@@@Z
	DD	FLAT:?GetEffect@ioWnd@@UAEPAVioUI3DEffectRender@@VioHashString@@@Z
	DD	FLAT:??_EioMessageBox4Btn@@UAEPAXI@Z
	DD	FLAT:?OnDrawNormal@ioButton@@MAEXHH@Z
	DD	FLAT:?OnDrawOvered@ioButton@@MAEXHH@Z
	DD	FLAT:?OnDrawOveredAdd@ioButton@@MAEXHH@Z
	DD	FLAT:?OnDrawPushed@ioButton@@MAEXHH@Z
	DD	FLAT:?OnDrawDisabled@ioButton@@MAEXHH@Z
	DD	FLAT:?OnDrawExDisabledNormal@ioButton@@MAEXHH@Z
	DD	FLAT:?OnDrawExDisabledOvered@ioButton@@MAEXHH@Z
	DD	FLAT:?OnDrawExDisabledPushed@ioButton@@MAEXHH@Z
	DD	FLAT:?OnDrawBack@ioButton@@MAEXHH@Z
	DD	FLAT:?OnDrawNormalList@ioButton@@MAEXHH@Z
	DD	FLAT:?OnDrawDisableList@ioButton@@MAEXHH@Z
CONST	ENDS
;	COMDAT xdata$x
xdata$x	SEGMENT
__unwindtable$??0ioMessageBox4Btn@@QAE@XZ DD 0ffffffffH
	DD	FLAT:__unwindfunclet$??0ioMessageBox4Btn@@QAE@XZ$0
__ehfuncinfo$??0ioMessageBox4Btn@@QAE@XZ DD 019930522H
	DD	01H
	DD	FLAT:__unwindtable$??0ioMessageBox4Btn@@QAE@XZ
	DD	2 DUP(00H)
	DD	2 DUP(00H)
	DD	00H
	DD	01H
; Function compile flags: /Ogsp
xdata$x	ENDS
;	COMDAT ??0ioMessageBox4Btn@@QAE@XZ
_TEXT	SEGMENT
_this$ = -16						; size = 4
__$EHRec$ = -12						; size = 12
??0ioMessageBox4Btn@@QAE@XZ PROC			; ioMessageBox4Btn::ioMessageBox4Btn, COMDAT
; _this$ = ecx

; 37   : {

  00000	6a 04		 push	 4
  00002	b8 00 00 00 00	 mov	 eax, __ehhandler$??0ioMessageBox4Btn@@QAE@XZ
  00007	e8 00 00 00 00	 call	 __EH_prolog3
  0000c	8b f1		 mov	 esi, ecx
  0000e	89 75 f0	 mov	 DWORD PTR _this$[ebp], esi
  00011	ff 15 00 00 00
	00		 call	 DWORD PTR __imp_??0ioButton@@QAE@XZ
  00017	83 65 fc 00	 and	 DWORD PTR __$EHRec$[ebp+8], 0
  0001b	8d 8e fc 01 00
	00		 lea	 ecx, DWORD PTR [esi+508]
  00021	c7 06 00 00 00
	00		 mov	 DWORD PTR [esi], OFFSET ??_7ioMessageBox4Btn@@6B@
  00027	ff 15 00 00 00
	00		 call	 DWORD PTR __imp_??0ioHashString@@QAE@XZ

; 38   : }

  0002d	8b c6		 mov	 eax, esi
  0002f	e8 00 00 00 00	 call	 __EH_epilog3
  00034	c3		 ret	 0
_TEXT	ENDS
;	COMDAT text$x
text$x	SEGMENT
__unwindfunclet$??0ioMessageBox4Btn@@QAE@XZ$0:
  00000	8b 4d f0	 mov	 ecx, DWORD PTR _this$[ebp]
  00003	ff 25 00 00 00
	00		 jmp	 DWORD PTR __imp_??1ioButton@@UAE@XZ
__ehhandler$??0ioMessageBox4Btn@@QAE@XZ:
  00009	8b 54 24 08	 mov	 edx, DWORD PTR [esp+8]
  0000d	8d 42 0c	 lea	 eax, DWORD PTR [edx+12]
  00010	8b 4a ec	 mov	 ecx, DWORD PTR [edx-20]
  00013	33 c8		 xor	 ecx, eax
  00015	e8 00 00 00 00	 call	 @__security_check_cookie@4
  0001a	b8 00 00 00 00	 mov	 eax, OFFSET __ehfuncinfo$??0ioMessageBox4Btn@@QAE@XZ
  0001f	e9 00 00 00 00	 jmp	 ___CxxFrameHandler3
text$x	ENDS
??0ioMessageBox4Btn@@QAE@XZ ENDP			; ioMessageBox4Btn::ioMessageBox4Btn
PUBLIC	??1ioMessageBox4Btn@@UAE@XZ			; ioMessageBox4Btn::~ioMessageBox4Btn
;	COMDAT xdata$x
xdata$x	SEGMENT
__unwindtable$??1ioMessageBox4Btn@@UAE@XZ DD 0ffffffffH
	DD	FLAT:__unwindfunclet$??1ioMessageBox4Btn@@UAE@XZ$0
__ehfuncinfo$??1ioMessageBox4Btn@@UAE@XZ DD 019930522H
	DD	01H
	DD	FLAT:__unwindtable$??1ioMessageBox4Btn@@UAE@XZ
	DD	2 DUP(00H)
	DD	2 DUP(00H)
	DD	00H
	DD	01H
; Function compile flags: /Ogsp
xdata$x	ENDS
;	COMDAT ??1ioMessageBox4Btn@@UAE@XZ
_TEXT	SEGMENT
_this$ = -16						; size = 4
__$EHRec$ = -12						; size = 12
??1ioMessageBox4Btn@@UAE@XZ PROC			; ioMessageBox4Btn::~ioMessageBox4Btn, COMDAT
; _this$ = ecx

; 41   : {

  00000	6a 04		 push	 4
  00002	b8 00 00 00 00	 mov	 eax, __ehhandler$??1ioMessageBox4Btn@@UAE@XZ
  00007	e8 00 00 00 00	 call	 __EH_prolog3
  0000c	8b f1		 mov	 esi, ecx
  0000e	89 75 f0	 mov	 DWORD PTR _this$[ebp], esi
  00011	c7 06 00 00 00
	00		 mov	 DWORD PTR [esi], OFFSET ??_7ioMessageBox4Btn@@6B@
  00017	83 65 fc 00	 and	 DWORD PTR __$EHRec$[ebp+8], 0

; 42   : }

  0001b	8d 8e fc 01 00
	00		 lea	 ecx, DWORD PTR [esi+508]
  00021	ff 15 00 00 00
	00		 call	 DWORD PTR __imp_??1ioHashString@@QAE@XZ
  00027	83 4d fc ff	 or	 DWORD PTR __$EHRec$[ebp+8], -1
  0002b	8b ce		 mov	 ecx, esi
  0002d	ff 15 00 00 00
	00		 call	 DWORD PTR __imp_??1ioButton@@UAE@XZ
  00033	e8 00 00 00 00	 call	 __EH_epilog3
  00038	c3		 ret	 0
_TEXT	ENDS
;	COMDAT text$x
text$x	SEGMENT
__unwindfunclet$??1ioMessageBox4Btn@@UAE@XZ$0:
  00000	8b 4d f0	 mov	 ecx, DWORD PTR _this$[ebp]
  00003	ff 25 00 00 00
	00		 jmp	 DWORD PTR __imp_??1ioButton@@UAE@XZ
__ehhandler$??1ioMessageBox4Btn@@UAE@XZ:
  00009	8b 54 24 08	 mov	 edx, DWORD PTR [esp+8]
  0000d	8d 42 0c	 lea	 eax, DWORD PTR [edx+12]
  00010	8b 4a ec	 mov	 ecx, DWORD PTR [edx-20]
  00013	33 c8		 xor	 ecx, eax
  00015	e8 00 00 00 00	 call	 @__security_check_cookie@4
  0001a	b8 00 00 00 00	 mov	 eax, OFFSET __ehfuncinfo$??1ioMessageBox4Btn@@UAE@XZ
  0001f	e9 00 00 00 00	 jmp	 ___CxxFrameHandler3
text$x	ENDS
??1ioMessageBox4Btn@@UAE@XZ ENDP			; ioMessageBox4Btn::~ioMessageBox4Btn
PUBLIC	?SetTitleName@ioMessageBox4Btn@@QAEXPBD@Z	; ioMessageBox4Btn::SetTitleName
EXTRN	__imp_??4ioHashString@@QAEAAV0@PBD@Z:PROC
; Function compile flags: /Ogsp
;	COMDAT ?SetTitleName@ioMessageBox4Btn@@QAEXPBD@Z
_TEXT	SEGMENT
_szTitleName$ = 8					; size = 4
?SetTitleName@ioMessageBox4Btn@@QAEXPBD@Z PROC		; ioMessageBox4Btn::SetTitleName, COMDAT
; _this$ = ecx

; 52   : {

  00000	55		 push	 ebp
  00001	8b ec		 mov	 ebp, esp

; 53   : 	m_szTitleName = szTitleName;

  00003	81 c1 fc 01 00
	00		 add	 ecx, 508		; 000001fcH

; 54   : }

  00009	5d		 pop	 ebp

; 53   : 	m_szTitleName = szTitleName;

  0000a	ff 25 00 00 00
	00		 jmp	 DWORD PTR __imp_??4ioHashString@@QAEAAV0@PBD@Z
?SetTitleName@ioMessageBox4Btn@@QAEXPBD@Z ENDP		; ioMessageBox4Btn::SetTitleName
_TEXT	ENDS
PUBLIC	?ClearList@ioMessageBox4@@IAEXXZ		; ioMessageBox4::ClearList
EXTRN	?ClearList@ioComplexStringPrinter@@QAEXXZ:PROC	; ioComplexStringPrinter::ClearList
; Function compile flags: /Ogsp
;	COMDAT ?ClearList@ioMessageBox4@@IAEXXZ
_TEXT	SEGMENT
?ClearList@ioMessageBox4@@IAEXXZ PROC			; ioMessageBox4::ClearList, COMDAT
; _this$ = ecx

; 108  : {

  00000	56		 push	 esi
  00001	57		 push	 edi

; 109  : 	for( int i=0; i<MAX_MSG_LIST_SIZE; i++ )

  00002	6a 0c		 push	 12			; 0000000cH
  00004	8d b1 80 01 00
	00		 lea	 esi, DWORD PTR [ecx+384]
  0000a	5f		 pop	 edi
$LL3@ClearList:

; 110  : 	{
; 111  : 		m_PrinterList[i].ClearList();

  0000b	8b ce		 mov	 ecx, esi
  0000d	e8 00 00 00 00	 call	 ?ClearList@ioComplexStringPrinter@@QAEXXZ ; ioComplexStringPrinter::ClearList
  00012	83 c6 20	 add	 esi, 32			; 00000020H
  00015	4f		 dec	 edi
  00016	75 f3		 jne	 SHORT $LL3@ClearList

; 112  : 	}
; 113  : }

  00018	5f		 pop	 edi
  00019	5e		 pop	 esi
  0001a	c3		 ret	 0
?ClearList@ioMessageBox4@@IAEXXZ ENDP			; ioMessageBox4::ClearList
_TEXT	ENDS
PUBLIC	??_7bad_alloc@std@@6B@				; std::bad_alloc::`vftable'
PUBLIC	??0bad_alloc@std@@QAE@PBD@Z			; std::bad_alloc::bad_alloc
PUBLIC	??_R4bad_alloc@std@@6B@				; std::bad_alloc::`RTTI Complete Object Locator'
PUBLIC	??_R0?AVbad_alloc@std@@@8			; std::bad_alloc `RTTI Type Descriptor'
PUBLIC	??_R3bad_alloc@std@@8				; std::bad_alloc::`RTTI Class Hierarchy Descriptor'
PUBLIC	??_R2bad_alloc@std@@8				; std::bad_alloc::`RTTI Base Class Array'
PUBLIC	??_R1A@?0A@EA@bad_alloc@std@@8			; std::bad_alloc::`RTTI Base Class Descriptor at (0,-1,0,64)'
PUBLIC	??_R1A@?0A@EA@exception@std@@8			; std::exception::`RTTI Base Class Descriptor at (0,-1,0,64)'
PUBLIC	??_R0?AVexception@std@@@8			; std::exception `RTTI Type Descriptor'
PUBLIC	??_R3exception@std@@8				; std::exception::`RTTI Class Hierarchy Descriptor'
PUBLIC	??_R2exception@std@@8				; std::exception::`RTTI Base Class Array'
EXTRN	__imp_??0exception@std@@QAE@ABQBD@Z:PROC
EXTRN	??_Ebad_alloc@std@@UAEPAXI@Z:PROC		; std::bad_alloc::`vector deleting destructor'
EXTRN	?what@exception@std@@UBEPBDXZ:PROC		; std::exception::what
;	COMDAT ??_R2exception@std@@8
; File c:\program files (x86)\microsoft visual studio 10.0\vc\include\exception
rdata$r	SEGMENT
??_R2exception@std@@8 DD FLAT:??_R1A@?0A@EA@exception@std@@8 ; std::exception::`RTTI Base Class Array'
rdata$r	ENDS
;	COMDAT ??_R3exception@std@@8
rdata$r	SEGMENT
??_R3exception@std@@8 DD 00H				; std::exception::`RTTI Class Hierarchy Descriptor'
	DD	00H
	DD	01H
	DD	FLAT:??_R2exception@std@@8
rdata$r	ENDS
;	COMDAT ??_R0?AVexception@std@@@8
_DATA	SEGMENT
??_R0?AVexception@std@@@8 DD FLAT:??_7type_info@@6B@	; std::exception `RTTI Type Descriptor'
	DD	00H
	DB	'.?AVexception@std@@', 00H
_DATA	ENDS
;	COMDAT ??_R1A@?0A@EA@exception@std@@8
rdata$r	SEGMENT
??_R1A@?0A@EA@exception@std@@8 DD FLAT:??_R0?AVexception@std@@@8 ; std::exception::`RTTI Base Class Descriptor at (0,-1,0,64)'
	DD	00H
	DD	00H
	DD	0ffffffffH
	DD	00H
	DD	040H
	DD	FLAT:??_R3exception@std@@8
rdata$r	ENDS
;	COMDAT ??_R1A@?0A@EA@bad_alloc@std@@8
rdata$r	SEGMENT
??_R1A@?0A@EA@bad_alloc@std@@8 DD FLAT:??_R0?AVbad_alloc@std@@@8 ; std::bad_alloc::`RTTI Base Class Descriptor at (0,-1,0,64)'
	DD	01H
	DD	00H
	DD	0ffffffffH
	DD	00H
	DD	040H
	DD	FLAT:??_R3bad_alloc@std@@8
rdata$r	ENDS
;	COMDAT ??_R2bad_alloc@std@@8
rdata$r	SEGMENT
??_R2bad_alloc@std@@8 DD FLAT:??_R1A@?0A@EA@bad_alloc@std@@8 ; std::bad_alloc::`RTTI Base Class Array'
	DD	FLAT:??_R1A@?0A@EA@exception@std@@8
rdata$r	ENDS
;	COMDAT ??_R3bad_alloc@std@@8
rdata$r	SEGMENT
??_R3bad_alloc@std@@8 DD 00H				; std::bad_alloc::`RTTI Class Hierarchy Descriptor'
	DD	00H
	DD	02H
	DD	FLAT:??_R2bad_alloc@std@@8
rdata$r	ENDS
;	COMDAT ??_R0?AVbad_alloc@std@@@8
_DATA	SEGMENT
??_R0?AVbad_alloc@std@@@8 DD FLAT:??_7type_info@@6B@	; std::bad_alloc `RTTI Type Descriptor'
	DD	00H
	DB	'.?AVbad_alloc@std@@', 00H
_DATA	ENDS
;	COMDAT ??_R4bad_alloc@std@@6B@
rdata$r	SEGMENT
??_R4bad_alloc@std@@6B@ DD 00H				; std::bad_alloc::`RTTI Complete Object Locator'
	DD	00H
	DD	00H
	DD	FLAT:??_R0?AVbad_alloc@std@@@8
	DD	FLAT:??_R3bad_alloc@std@@8
rdata$r	ENDS
;	COMDAT ??_7bad_alloc@std@@6B@
CONST	SEGMENT
??_7bad_alloc@std@@6B@ DD FLAT:??_R4bad_alloc@std@@6B@	; std::bad_alloc::`vftable'
	DD	FLAT:??_Ebad_alloc@std@@UAEPAXI@Z
	DD	FLAT:?what@exception@std@@UBEPBDXZ
; Function compile flags: /Ogsp
CONST	ENDS
;	COMDAT ??0bad_alloc@std@@QAE@PBD@Z
_TEXT	SEGMENT
__Message$ = 8						; size = 4
??0bad_alloc@std@@QAE@PBD@Z PROC			; std::bad_alloc::bad_alloc, COMDAT
; _this$ = ecx

; 345  : 		{	// construct from message string

  00000	55		 push	 ebp
  00001	8b ec		 mov	 ebp, esp
  00003	56		 push	 esi
  00004	8d 45 08	 lea	 eax, DWORD PTR __Message$[ebp]
  00007	50		 push	 eax
  00008	8b f1		 mov	 esi, ecx
  0000a	ff 15 00 00 00
	00		 call	 DWORD PTR __imp_??0exception@std@@QAE@ABQBD@Z
  00010	c7 06 00 00 00
	00		 mov	 DWORD PTR [esi], OFFSET ??_7bad_alloc@std@@6B@

; 346  : 		}

  00016	8b c6		 mov	 eax, esi
  00018	5e		 pop	 esi
  00019	5d		 pop	 ebp
  0001a	c2 04 00	 ret	 4
??0bad_alloc@std@@QAE@PBD@Z ENDP			; std::bad_alloc::bad_alloc
_TEXT	ENDS
PUBLIC	??1bad_alloc@std@@UAE@XZ			; std::bad_alloc::~bad_alloc
EXTRN	__imp_??1exception@std@@UAE@XZ:PROC
; Function compile flags: /Ogsp
;	COMDAT ??1bad_alloc@std@@UAE@XZ
_TEXT	SEGMENT
??1bad_alloc@std@@UAE@XZ PROC				; std::bad_alloc::~bad_alloc, COMDAT
; _this$ = ecx

; 354  : 		{	// destroy the object

  00000	c7 01 00 00 00
	00		 mov	 DWORD PTR [ecx], OFFSET ??_7bad_alloc@std@@6B@

; 355  : 		}

  00006	ff 25 00 00 00
	00		 jmp	 DWORD PTR __imp_??1exception@std@@UAE@XZ
??1bad_alloc@std@@UAE@XZ ENDP				; std::bad_alloc::~bad_alloc
_TEXT	ENDS
EXTRN	??3@YAXPAX@Z:PROC				; operator delete
; Function compile flags: /Ogsp
;	COMDAT ??_Gbad_alloc@std@@UAEPAXI@Z
_TEXT	SEGMENT
___flags$ = 8						; size = 4
??_Gbad_alloc@std@@UAEPAXI@Z PROC			; std::bad_alloc::`scalar deleting destructor', COMDAT
; _this$ = ecx
  00000	55		 push	 ebp
  00001	8b ec		 mov	 ebp, esp
  00003	56		 push	 esi
  00004	8b f1		 mov	 esi, ecx
  00006	c7 06 00 00 00
	00		 mov	 DWORD PTR [esi], OFFSET ??_7bad_alloc@std@@6B@
  0000c	ff 15 00 00 00
	00		 call	 DWORD PTR __imp_??1exception@std@@UAE@XZ
  00012	f6 45 08 01	 test	 BYTE PTR ___flags$[ebp], 1
  00016	74 07		 je	 SHORT $LN1@scalar
  00018	56		 push	 esi
  00019	e8 00 00 00 00	 call	 ??3@YAXPAX@Z		; operator delete
  0001e	59		 pop	 ecx
$LN1@scalar:
  0001f	8b c6		 mov	 eax, esi
  00021	5e		 pop	 esi
  00022	5d		 pop	 ebp
  00023	c2 04 00	 ret	 4
??_Gbad_alloc@std@@UAEPAXI@Z ENDP			; std::bad_alloc::`scalar deleting destructor'
_TEXT	ENDS
PUBLIC	??2@YAPAXIPAX@Z					; operator new
; Function compile flags: /Ogsp
; File c:\program files (x86)\microsoft visual studio 10.0\vc\include\new
;	COMDAT ??2@YAPAXIPAX@Z
_TEXT	SEGMENT
___formal$ = 8						; size = 4
__Where$ = 12						; size = 4
??2@YAPAXIPAX@Z PROC					; operator new, COMDAT

; 56   : 	{	// construct array with placement at _Where

  00000	55		 push	 ebp
  00001	8b ec		 mov	 ebp, esp

; 57   : 	return (_Where);

  00003	8b 45 0c	 mov	 eax, DWORD PTR __Where$[ebp]

; 58   : 	}

  00006	5d		 pop	 ebp
  00007	c3		 ret	 0
??2@YAPAXIPAX@Z ENDP					; operator new
_TEXT	ENDS
PUBLIC	??3@YAXPAX0@Z					; operator delete
; Function compile flags: /Ogsp
;	COMDAT ??3@YAXPAX0@Z
_TEXT	SEGMENT
___formal$ = 8						; size = 4
___formal$ = 12						; size = 4
??3@YAXPAX0@Z PROC					; operator delete, COMDAT

; 62   : 	}

  00000	c3		 ret	 0
??3@YAXPAX0@Z ENDP					; operator delete
_TEXT	ENDS
PUBLIC	?iwm_esc@ioMessageBox4@@UAE_NXZ			; ioMessageBox4::iwm_esc
EXTRN	__imp_?IsShow@ioWnd@@QBE_NXZ:PROC
EXTRN	__imp_?FindChildWnd@ioWnd@@QAEPAV1@K@Z:PROC
EXTRN	___RTDynamicCast:PROC
; Function compile flags: /Ogsp
; File d:\lost saga for developer\youtube\tutorial\source\src\lsclient\gui\iomessagebox4.cpp
;	COMDAT ?iwm_esc@ioMessageBox4@@UAE_NXZ
_TEXT	SEGMENT
?iwm_esc@ioMessageBox4@@UAE_NXZ PROC			; ioMessageBox4::iwm_esc, COMDAT
; _this$ = ecx

; 407  : {

  00000	56		 push	 esi
  00001	57		 push	 edi

; 408  : 	ioButton *pXBtn = dynamic_cast< ioButton* >( FindChildWnd( ID_X ) );

  00002	6a 00		 push	 0
  00004	68 00 00 00 00	 push	 OFFSET ??_R0?AVioButton@@@8
  00009	68 00 00 00 00	 push	 OFFSET ??_R0?AVioWnd@@@8
  0000e	6a 00		 push	 0
  00010	6a 01		 push	 1
  00012	8b f1		 mov	 esi, ecx
  00014	ff 15 00 00 00
	00		 call	 DWORD PTR __imp_?FindChildWnd@ioWnd@@QAEPAV1@K@Z
  0001a	50		 push	 eax
  0001b	e8 00 00 00 00	 call	 ___RTDynamicCast
  00020	8b f8		 mov	 edi, eax
  00022	83 c4 14	 add	 esp, 20			; 00000014H

; 409  : 	if( !pXBtn ) return false;

  00025	85 ff		 test	 edi, edi
  00027	75 04		 jne	 SHORT $LN2@iwm_esc
$LN5@iwm_esc:
  00029	32 c0		 xor	 al, al
  0002b	eb 1d		 jmp	 SHORT $LN3@iwm_esc
$LN2@iwm_esc:

; 410  : 	if( !pXBtn->IsShow() ) return false;

  0002d	8b cf		 mov	 ecx, edi
  0002f	ff 15 00 00 00
	00		 call	 DWORD PTR __imp_?IsShow@ioWnd@@QBE_NXZ
  00035	84 c0		 test	 al, al
  00037	74 f0		 je	 SHORT $LN5@iwm_esc

; 411  : 
; 412  : 	iwm_command( pXBtn, IOBN_BTNUP, 0 );

  00039	8b 06		 mov	 eax, DWORD PTR [esi]
  0003b	6a 00		 push	 0
  0003d	6a 11		 push	 17			; 00000011H
  0003f	57		 push	 edi
  00040	8b ce		 mov	 ecx, esi
  00042	ff 90 8c 00 00
	00		 call	 DWORD PTR [eax+140]

; 413  : 	return true;

  00048	b0 01		 mov	 al, 1
$LN3@iwm_esc:

; 414  : }

  0004a	5f		 pop	 edi
  0004b	5e		 pop	 esi
  0004c	c3		 ret	 0
?iwm_esc@ioMessageBox4@@UAE_NXZ ENDP			; ioMessageBox4::iwm_esc
_TEXT	ENDS
PUBLIC	??1ExpandSlotItemInfo@ioMessageBox4@@QAE@XZ	; ioMessageBox4::ExpandSlotItemInfo::~ExpandSlotItemInfo
; Function compile flags: /Ogsp
;	COMDAT ??1ExpandSlotItemInfo@ioMessageBox4@@QAE@XZ
_TEXT	SEGMENT
??1ExpandSlotItemInfo@ioMessageBox4@@QAE@XZ PROC	; ioMessageBox4::ExpandSlotItemInfo::~ExpandSlotItemInfo, COMDAT
; _this$ = ecx
  00000	83 c1 04	 add	 ecx, 4
  00003	ff 25 00 00 00
	00		 jmp	 DWORD PTR __imp_??1ioHashString@@QAE@XZ
??1ExpandSlotItemInfo@ioMessageBox4@@QAE@XZ ENDP	; ioMessageBox4::ExpandSlotItemInfo::~ExpandSlotItemInfo
_TEXT	ENDS
PUBLIC	?GetSingleton@?$Singleton@VioEtcItemManager@@@@SAAAVioEtcItemManager@@XZ ; Singleton<ioEtcItemManager>::GetSingleton
EXTRN	?ms_Singleton@?$Singleton@VioEtcItemManager@@@@1PAVioEtcItemManager@@A:DWORD ; Singleton<ioEtcItemManager>::ms_Singleton
; Function compile flags: /Ogsp
; File d:\lost saga for developer\youtube\tutorial\source\src\io3dengine\iosingleton.h
;	COMDAT ?GetSingleton@?$Singleton@VioEtcItemManager@@@@SAAAVioEtcItemManager@@XZ
_TEXT	SEGMENT
?GetSingleton@?$Singleton@VioEtcItemManager@@@@SAAAVioEtcItemManager@@XZ PROC ; Singleton<ioEtcItemManager>::GetSingleton, COMDAT

; 42   : 		assert( ms_Singleton );
; 43   : 		return (*ms_Singleton);

  00000	a1 00 00 00 00	 mov	 eax, DWORD PTR ?ms_Singleton@?$Singleton@VioEtcItemManager@@@@1PAVioEtcItemManager@@A ; Singleton<ioEtcItemManager>::ms_Singleton

; 44   : 	}

  00005	c3		 ret	 0
?GetSingleton@?$Singleton@VioEtcItemManager@@@@SAAAVioEtcItemManager@@XZ ENDP ; Singleton<ioEtcItemManager>::GetSingleton
_TEXT	ENDS
PUBLIC	?size@?$vector@UExpandSlotItemInfo@ioMessageBox4@@V?$allocator@UExpandSlotItemInfo@ioMessageBox4@@@std@@@std@@QBEIXZ ; std::vector<ioMessageBox4::ExpandSlotItemInfo,std::allocator<ioMessageBox4::ExpandSlotItemInfo> >::size
; Function compile flags: /Ogsp
; File c:\program files (x86)\microsoft visual studio 10.0\vc\include\vector
;	COMDAT ?size@?$vector@UExpandSlotItemInfo@ioMessageBox4@@V?$allocator@UExpandSlotItemInfo@ioMessageBox4@@@std@@@std@@QBEIXZ
_TEXT	SEGMENT
?size@?$vector@UExpandSlotItemInfo@ioMessageBox4@@V?$allocator@UExpandSlotItemInfo@ioMessageBox4@@@std@@@std@@QBEIXZ PROC ; std::vector<ioMessageBox4::ExpandSlotItemInfo,std::allocator<ioMessageBox4::ExpandSlotItemInfo> >::size, COMDAT
; _this$ = ecx

; 879  : 		return (this->_Mylast - this->_Myfirst);

  00000	8b 41 04	 mov	 eax, DWORD PTR [ecx+4]
  00003	2b 01		 sub	 eax, DWORD PTR [ecx]
  00005	6a 18		 push	 24			; 00000018H
  00007	99		 cdq
  00008	59		 pop	 ecx
  00009	f7 f9		 idiv	 ecx

; 880  : 		}

  0000b	c3		 ret	 0
?size@?$vector@UExpandSlotItemInfo@ioMessageBox4@@V?$allocator@UExpandSlotItemInfo@ioMessageBox4@@@std@@@std@@QBEIXZ ENDP ; std::vector<ioMessageBox4::ExpandSlotItemInfo,std::allocator<ioMessageBox4::ExpandSlotItemInfo> >::size
_TEXT	ENDS
PUBLIC	?empty@?$vector@UExpandSlotItemInfo@ioMessageBox4@@V?$allocator@UExpandSlotItemInfo@ioMessageBox4@@@std@@@std@@QBE_NXZ ; std::vector<ioMessageBox4::ExpandSlotItemInfo,std::allocator<ioMessageBox4::ExpandSlotItemInfo> >::empty
; Function compile flags: /Ogsp
;	COMDAT ?empty@?$vector@UExpandSlotItemInfo@ioMessageBox4@@V?$allocator@UExpandSlotItemInfo@ioMessageBox4@@@std@@@std@@QBE_NXZ
_TEXT	SEGMENT
?empty@?$vector@UExpandSlotItemInfo@ioMessageBox4@@V?$allocator@UExpandSlotItemInfo@ioMessageBox4@@@std@@@std@@QBE_NXZ PROC ; std::vector<ioMessageBox4::ExpandSlotItemInfo,std::allocator<ioMessageBox4::ExpandSlotItemInfo> >::empty, COMDAT
; _this$ = ecx

; 889  : 		return (this->_Myfirst == this->_Mylast);

  00000	8b 01		 mov	 eax, DWORD PTR [ecx]
  00002	2b 41 04	 sub	 eax, DWORD PTR [ecx+4]
  00005	f7 d8		 neg	 eax
  00007	1b c0		 sbb	 eax, eax
  00009	40		 inc	 eax

; 890  : 		}

  0000a	c3		 ret	 0
?empty@?$vector@UExpandSlotItemInfo@ioMessageBox4@@V?$allocator@UExpandSlotItemInfo@ioMessageBox4@@@std@@@std@@QBE_NXZ ENDP ; std::vector<ioMessageBox4::ExpandSlotItemInfo,std::allocator<ioMessageBox4::ExpandSlotItemInfo> >::empty
_TEXT	ENDS
PUBLIC	??A?$vector@UExpandSlotItemInfo@ioMessageBox4@@V?$allocator@UExpandSlotItemInfo@ioMessageBox4@@@std@@@std@@QAEAAUExpandSlotItemInfo@ioMessageBox4@@I@Z ; std::vector<ioMessageBox4::ExpandSlotItemInfo,std::allocator<ioMessageBox4::ExpandSlotItemInfo> >::operator[]
; Function compile flags: /Ogsp
;	COMDAT ??A?$vector@UExpandSlotItemInfo@ioMessageBox4@@V?$allocator@UExpandSlotItemInfo@ioMessageBox4@@@std@@@std@@QAEAAUExpandSlotItemInfo@ioMessageBox4@@I@Z
_TEXT	SEGMENT
__Pos$ = 8						; size = 4
??A?$vector@UExpandSlotItemInfo@ioMessageBox4@@V?$allocator@UExpandSlotItemInfo@ioMessageBox4@@@std@@@std@@QAEAAUExpandSlotItemInfo@ioMessageBox4@@I@Z PROC ; std::vector<ioMessageBox4::ExpandSlotItemInfo,std::allocator<ioMessageBox4::ExpandSlotItemInfo> >::operator[], COMDAT
; _this$ = ecx

; 928  : 		{	// subscript mutable sequence

  00000	55		 push	 ebp
  00001	8b ec		 mov	 ebp, esp

; 929  :  #if _ITERATOR_DEBUG_LEVEL == 2
; 930  : 		if (size() <= _Pos)
; 931  : 			{	// report error
; 932  : 			_DEBUG_ERROR("vector subscript out of range");
; 933  : 			_SCL_SECURE_OUT_OF_RANGE;
; 934  : 			}
; 935  : 
; 936  :  #elif _ITERATOR_DEBUG_LEVEL == 1
; 937  : 		_SCL_SECURE_VALIDATE_RANGE(_Pos < size());
; 938  :  #endif /* _ITERATOR_DEBUG_LEVEL */
; 939  : 
; 940  : 		return (*(this->_Myfirst + _Pos));

  00003	8b 45 08	 mov	 eax, DWORD PTR __Pos$[ebp]
  00006	6b c0 18	 imul	 eax, 24			; 00000018H
  00009	03 01		 add	 eax, DWORD PTR [ecx]

; 941  : 		}

  0000b	5d		 pop	 ebp
  0000c	c2 04 00	 ret	 4
??A?$vector@UExpandSlotItemInfo@ioMessageBox4@@V?$allocator@UExpandSlotItemInfo@ioMessageBox4@@@std@@@std@@QAEAAUExpandSlotItemInfo@ioMessageBox4@@I@Z ENDP ; std::vector<ioMessageBox4::ExpandSlotItemInfo,std::allocator<ioMessageBox4::ExpandSlotItemInfo> >::operator[]
_TEXT	ENDS
PUBLIC	?_Inside@?$vector@UExpandSlotItemInfo@ioMessageBox4@@V?$allocator@UExpandSlotItemInfo@ioMessageBox4@@@std@@@std@@IBE_NPBUExpandSlotItemInfo@ioMessageBox4@@@Z ; std::vector<ioMessageBox4::ExpandSlotItemInfo,std::allocator<ioMessageBox4::ExpandSlotItemInfo> >::_Inside
; Function compile flags: /Ogsp
;	COMDAT ?_Inside@?$vector@UExpandSlotItemInfo@ioMessageBox4@@V?$allocator@UExpandSlotItemInfo@ioMessageBox4@@@std@@@std@@IBE_NPBUExpandSlotItemInfo@ioMessageBox4@@@Z
_TEXT	SEGMENT
__Ptr$ = 8						; size = 4
?_Inside@?$vector@UExpandSlotItemInfo@ioMessageBox4@@V?$allocator@UExpandSlotItemInfo@ioMessageBox4@@@std@@@std@@IBE_NPBUExpandSlotItemInfo@ioMessageBox4@@@Z PROC ; std::vector<ioMessageBox4::ExpandSlotItemInfo,std::allocator<ioMessageBox4::ExpandSlotItemInfo> >::_Inside, COMDAT
; _this$ = ecx

; 1285 : 		{	// test if _Ptr points inside vector

  00000	55		 push	 ebp
  00001	8b ec		 mov	 ebp, esp

; 1286 : 		return (_Ptr < this->_Mylast && this->_Myfirst <= _Ptr);

  00003	8b 45 08	 mov	 eax, DWORD PTR __Ptr$[ebp]
  00006	3b 41 04	 cmp	 eax, DWORD PTR [ecx+4]
  00009	73 09		 jae	 SHORT $LN3@Inside
  0000b	39 01		 cmp	 DWORD PTR [ecx], eax
  0000d	77 05		 ja	 SHORT $LN3@Inside
  0000f	33 c0		 xor	 eax, eax
  00011	40		 inc	 eax
  00012	eb 02		 jmp	 SHORT $LN4@Inside
$LN3@Inside:
  00014	33 c0		 xor	 eax, eax
$LN4@Inside:

; 1287 : 		}

  00016	5d		 pop	 ebp
  00017	c2 04 00	 ret	 4
?_Inside@?$vector@UExpandSlotItemInfo@ioMessageBox4@@V?$allocator@UExpandSlotItemInfo@ioMessageBox4@@@std@@@std@@IBE_NPBUExpandSlotItemInfo@ioMessageBox4@@@Z ENDP ; std::vector<ioMessageBox4::ExpandSlotItemInfo,std::allocator<ioMessageBox4::ExpandSlotItemInfo> >::_Inside
_TEXT	ENDS
PUBLIC	?_Orphan_range@?$vector@UExpandSlotItemInfo@ioMessageBox4@@V?$allocator@UExpandSlotItemInfo@ioMessageBox4@@@std@@@std@@IBEXPAUExpandSlotItemInfo@ioMessageBox4@@0@Z ; std::vector<ioMessageBox4::ExpandSlotItemInfo,std::allocator<ioMessageBox4::ExpandSlotItemInfo> >::_Orphan_range
; Function compile flags: /Ogsp
;	COMDAT ?_Orphan_range@?$vector@UExpandSlotItemInfo@ioMessageBox4@@V?$allocator@UExpandSlotItemInfo@ioMessageBox4@@@std@@@std@@IBEXPAUExpandSlotItemInfo@ioMessageBox4@@0@Z
_TEXT	SEGMENT
___formal$ = 8						; size = 4
___formal$ = 12						; size = 4
?_Orphan_range@?$vector@UExpandSlotItemInfo@ioMessageBox4@@V?$allocator@UExpandSlotItemInfo@ioMessageBox4@@@std@@@std@@IBEXPAUExpandSlotItemInfo@ioMessageBox4@@0@Z PROC ; std::vector<ioMessageBox4::ExpandSlotItemInfo,std::allocator<ioMessageBox4::ExpandSlotItemInfo> >::_Orphan_range, COMDAT
; _this$ = ecx

; 1454 : 		}

  00000	c2 08 00	 ret	 8
?_Orphan_range@?$vector@UExpandSlotItemInfo@ioMessageBox4@@V?$allocator@UExpandSlotItemInfo@ioMessageBox4@@@std@@@std@@IBEXPAUExpandSlotItemInfo@ioMessageBox4@@0@Z ENDP ; std::vector<ioMessageBox4::ExpandSlotItemInfo,std::allocator<ioMessageBox4::ExpandSlotItemInfo> >::_Orphan_range
_TEXT	ENDS
PUBLIC	??1?$_Vector_val@UExpandSlotItemInfo@ioMessageBox4@@V?$allocator@UExpandSlotItemInfo@ioMessageBox4@@@std@@@std@@QAE@XZ ; std::_Vector_val<ioMessageBox4::ExpandSlotItemInfo,std::allocator<ioMessageBox4::ExpandSlotItemInfo> >::~_Vector_val<ioMessageBox4::ExpandSlotItemInfo,std::allocator<ioMessageBox4::ExpandSlotItemInfo> >
; Function compile flags: /Ogsp
;	COMDAT ??1?$_Vector_val@UExpandSlotItemInfo@ioMessageBox4@@V?$allocator@UExpandSlotItemInfo@ioMessageBox4@@@std@@@std@@QAE@XZ
_TEXT	SEGMENT
??1?$_Vector_val@UExpandSlotItemInfo@ioMessageBox4@@V?$allocator@UExpandSlotItemInfo@ioMessageBox4@@@std@@@std@@QAE@XZ PROC ; std::_Vector_val<ioMessageBox4::ExpandSlotItemInfo,std::allocator<ioMessageBox4::ExpandSlotItemInfo> >::~_Vector_val<ioMessageBox4::ExpandSlotItemInfo,std::allocator<ioMessageBox4::ExpandSlotItemInfo> >, COMDAT
; _this$ = ecx

; 434  : 		}

  00000	c3		 ret	 0
??1?$_Vector_val@UExpandSlotItemInfo@ioMessageBox4@@V?$allocator@UExpandSlotItemInfo@ioMessageBox4@@@std@@@std@@QAE@XZ ENDP ; std::_Vector_val<ioMessageBox4::ExpandSlotItemInfo,std::allocator<ioMessageBox4::ExpandSlotItemInfo> >::~_Vector_val<ioMessageBox4::ExpandSlotItemInfo,std::allocator<ioMessageBox4::ExpandSlotItemInfo> >
_TEXT	ENDS
PUBLIC	??0?$allocator@UExpandSlotItemInfo@ioMessageBox4@@@std@@QAE@XZ ; std::allocator<ioMessageBox4::ExpandSlotItemInfo>::allocator<ioMessageBox4::ExpandSlotItemInfo>
; Function compile flags: /Ogsp
; File c:\program files (x86)\microsoft visual studio 10.0\vc\include\xmemory
;	COMDAT ??0?$allocator@UExpandSlotItemInfo@ioMessageBox4@@@std@@QAE@XZ
_TEXT	SEGMENT
??0?$allocator@UExpandSlotItemInfo@ioMessageBox4@@@std@@QAE@XZ PROC ; std::allocator<ioMessageBox4::ExpandSlotItemInfo>::allocator<ioMessageBox4::ExpandSlotItemInfo>, COMDAT
; _this$ = ecx

; 161  : 	_ALLOCATOR() _THROW0()

  00000	8b c1		 mov	 eax, ecx

; 162  : 		{	// construct default allocator (do nothing)
; 163  : 		}

  00002	c3		 ret	 0
??0?$allocator@UExpandSlotItemInfo@ioMessageBox4@@@std@@QAE@XZ ENDP ; std::allocator<ioMessageBox4::ExpandSlotItemInfo>::allocator<ioMessageBox4::ExpandSlotItemInfo>
_TEXT	ENDS
PUBLIC	?capacity@?$vector@UExpandSlotItemInfo@ioMessageBox4@@V?$allocator@UExpandSlotItemInfo@ioMessageBox4@@@std@@@std@@QBEIXZ ; std::vector<ioMessageBox4::ExpandSlotItemInfo,std::allocator<ioMessageBox4::ExpandSlotItemInfo> >::capacity
; Function compile flags: /Ogsp
; File c:\program files (x86)\microsoft visual studio 10.0\vc\include\vector
;	COMDAT ?capacity@?$vector@UExpandSlotItemInfo@ioMessageBox4@@V?$allocator@UExpandSlotItemInfo@ioMessageBox4@@@std@@@std@@QBEIXZ
_TEXT	SEGMENT
?capacity@?$vector@UExpandSlotItemInfo@ioMessageBox4@@V?$allocator@UExpandSlotItemInfo@ioMessageBox4@@@std@@@std@@QBEIXZ PROC ; std::vector<ioMessageBox4::ExpandSlotItemInfo,std::allocator<ioMessageBox4::ExpandSlotItemInfo> >::capacity, COMDAT
; _this$ = ecx

; 777  : 		return (this->_Myend - this->_Myfirst);

  00000	8b 41 08	 mov	 eax, DWORD PTR [ecx+8]
  00003	2b 01		 sub	 eax, DWORD PTR [ecx]
  00005	6a 18		 push	 24			; 00000018H
  00007	99		 cdq
  00008	59		 pop	 ecx
  00009	f7 f9		 idiv	 ecx

; 778  : 		}

  0000b	c3		 ret	 0
?capacity@?$vector@UExpandSlotItemInfo@ioMessageBox4@@V?$allocator@UExpandSlotItemInfo@ioMessageBox4@@@std@@@std@@QBEIXZ ENDP ; std::vector<ioMessageBox4::ExpandSlotItemInfo,std::allocator<ioMessageBox4::ExpandSlotItemInfo> >::capacity
_TEXT	ENDS
PUBLIC	??_C@_0BD@OLBABOEK@vector?$DMT?$DO?5too?5long?$AA@ ; `string'
PUBLIC	?_Xlen@?$vector@UExpandSlotItemInfo@ioMessageBox4@@V?$allocator@UExpandSlotItemInfo@ioMessageBox4@@@std@@@std@@IBEXXZ ; std::vector<ioMessageBox4::ExpandSlotItemInfo,std::allocator<ioMessageBox4::ExpandSlotItemInfo> >::_Xlen
EXTRN	__imp_?_Xlength_error@std@@YAXPBD@Z:PROC
;	COMDAT ??_C@_0BD@OLBABOEK@vector?$DMT?$DO?5too?5long?$AA@
CONST	SEGMENT
??_C@_0BD@OLBABOEK@vector?$DMT?$DO?5too?5long?$AA@ DB 'vector<T> too long'
	DB	00H						; `string'
; Function compile flags: /Ogsp
CONST	ENDS
;	COMDAT ?_Xlen@?$vector@UExpandSlotItemInfo@ioMessageBox4@@V?$allocator@UExpandSlotItemInfo@ioMessageBox4@@@std@@@std@@IBEXXZ
_TEXT	SEGMENT
?_Xlen@?$vector@UExpandSlotItemInfo@ioMessageBox4@@V?$allocator@UExpandSlotItemInfo@ioMessageBox4@@@std@@@std@@IBEXXZ PROC ; std::vector<ioMessageBox4::ExpandSlotItemInfo,std::allocator<ioMessageBox4::ExpandSlotItemInfo> >::_Xlen, COMDAT
; _this$ = ecx

; 1427 : 		_Xlength_error("vector<T> too long");

  00000	68 00 00 00 00	 push	 OFFSET ??_C@_0BD@OLBABOEK@vector?$DMT?$DO?5too?5long?$AA@
  00005	ff 15 00 00 00
	00		 call	 DWORD PTR __imp_?_Xlength_error@std@@YAXPBD@Z
$LN4@Xlen:
$LN3@Xlen:
  0000b	cc		 int	 3
?_Xlen@?$vector@UExpandSlotItemInfo@ioMessageBox4@@V?$allocator@UExpandSlotItemInfo@ioMessageBox4@@@std@@@std@@IBEXXZ ENDP ; std::vector<ioMessageBox4::ExpandSlotItemInfo,std::allocator<ioMessageBox4::ExpandSlotItemInfo> >::_Xlen
_TEXT	ENDS
PUBLIC	??0?$allocator@UExpandSlotItemInfo@ioMessageBox4@@@std@@QAE@ABV01@@Z ; std::allocator<ioMessageBox4::ExpandSlotItemInfo>::allocator<ioMessageBox4::ExpandSlotItemInfo>
; Function compile flags: /Ogsp
; File c:\program files (x86)\microsoft visual studio 10.0\vc\include\xmemory
;	COMDAT ??0?$allocator@UExpandSlotItemInfo@ioMessageBox4@@@std@@QAE@ABV01@@Z
_TEXT	SEGMENT
___formal$ = 8						; size = 4
??0?$allocator@UExpandSlotItemInfo@ioMessageBox4@@@std@@QAE@ABV01@@Z PROC ; std::allocator<ioMessageBox4::ExpandSlotItemInfo>::allocator<ioMessageBox4::ExpandSlotItemInfo>, COMDAT
; _this$ = ecx

; 165  : 	_ALLOCATOR(const _ALLOCATOR<_Ty>&) _THROW0()

  00000	8b c1		 mov	 eax, ecx

; 166  : 		{	// construct by copying (do nothing)
; 167  : 		}

  00002	c2 04 00	 ret	 4
??0?$allocator@UExpandSlotItemInfo@ioMessageBox4@@@std@@QAE@ABV01@@Z ENDP ; std::allocator<ioMessageBox4::ExpandSlotItemInfo>::allocator<ioMessageBox4::ExpandSlotItemInfo>
_TEXT	ENDS
PUBLIC	?deallocate@?$allocator@UExpandSlotItemInfo@ioMessageBox4@@@std@@QAEXPAUExpandSlotItemInfo@ioMessageBox4@@I@Z ; std::allocator<ioMessageBox4::ExpandSlotItemInfo>::deallocate
; Function compile flags: /Ogsp
;	COMDAT ?deallocate@?$allocator@UExpandSlotItemInfo@ioMessageBox4@@@std@@QAEXPAUExpandSlotItemInfo@ioMessageBox4@@I@Z
_TEXT	SEGMENT
__Ptr$ = 8						; size = 4
___formal$ = 12						; size = 4
?deallocate@?$allocator@UExpandSlotItemInfo@ioMessageBox4@@@std@@QAEXPAUExpandSlotItemInfo@ioMessageBox4@@I@Z PROC ; std::allocator<ioMessageBox4::ExpandSlotItemInfo>::deallocate, COMDAT
; _this$ = ecx

; 181  : 		{	// deallocate object at _Ptr, ignore size

  00000	55		 push	 ebp
  00001	8b ec		 mov	 ebp, esp

; 182  : 		::operator delete(_Ptr);

  00003	ff 75 08	 push	 DWORD PTR __Ptr$[ebp]
  00006	e8 00 00 00 00	 call	 ??3@YAXPAX@Z		; operator delete
  0000b	59		 pop	 ecx

; 183  : 		}

  0000c	5d		 pop	 ebp
  0000d	c2 08 00	 ret	 8
?deallocate@?$allocator@UExpandSlotItemInfo@ioMessageBox4@@@std@@QAEXPAUExpandSlotItemInfo@ioMessageBox4@@I@Z ENDP ; std::allocator<ioMessageBox4::ExpandSlotItemInfo>::deallocate
_TEXT	ENDS
PUBLIC	?max_size@?$allocator@UExpandSlotItemInfo@ioMessageBox4@@@std@@QBEIXZ ; std::allocator<ioMessageBox4::ExpandSlotItemInfo>::max_size
; Function compile flags: /Ogsp
;	COMDAT ?max_size@?$allocator@UExpandSlotItemInfo@ioMessageBox4@@@std@@QBEIXZ
_TEXT	SEGMENT
?max_size@?$allocator@UExpandSlotItemInfo@ioMessageBox4@@@std@@QBEIXZ PROC ; std::allocator<ioMessageBox4::ExpandSlotItemInfo>::max_size, COMDAT
; _this$ = ecx

; 218  : 		_SIZT _Count = (_SIZT)(-1) / sizeof (_Ty);
; 219  : 		return (0 < _Count ? _Count : 1);

  00000	b8 aa aa aa 0a	 mov	 eax, 178956970		; 0aaaaaaaH

; 220  : 		}

  00005	c3		 ret	 0
?max_size@?$allocator@UExpandSlotItemInfo@ioMessageBox4@@@std@@QBEIXZ ENDP ; std::allocator<ioMessageBox4::ExpandSlotItemInfo>::max_size
_TEXT	ENDS
PUBLIC	?_Adopt@_Iterator_base0@std@@QAEXPBX@Z		; std::_Iterator_base0::_Adopt
; Function compile flags: /Ogsp
; File c:\program files (x86)\microsoft visual studio 10.0\vc\include\xutility
;	COMDAT ?_Adopt@_Iterator_base0@std@@QAEXPBX@Z
_TEXT	SEGMENT
___formal$ = 8						; size = 4
?_Adopt@_Iterator_base0@std@@QAEXPBX@Z PROC		; std::_Iterator_base0::_Adopt, COMDAT
; _this$ = ecx

; 49   : 		}

  00000	c2 04 00	 ret	 4
?_Adopt@_Iterator_base0@std@@QAEXPBX@Z ENDP		; std::_Iterator_base0::_Adopt
_TEXT	ENDS
PUBLIC	?_Compat@?$_Vector_const_iterator@V?$_Vector_val@UExpandSlotItemInfo@ioMessageBox4@@V?$allocator@UExpandSlotItemInfo@ioMessageBox4@@@std@@@std@@@std@@QBEXABV12@@Z ; std::_Vector_const_iterator<std::_Vector_val<ioMessageBox4::ExpandSlotItemInfo,std::allocator<ioMessageBox4::ExpandSlotItemInfo> > >::_Compat
; Function compile flags: /Ogsp
; File c:\program files (x86)\microsoft visual studio 10.0\vc\include\vector
;	COMDAT ?_Compat@?$_Vector_const_iterator@V?$_Vector_val@UExpandSlotItemInfo@ioMessageBox4@@V?$allocator@UExpandSlotItemInfo@ioMessageBox4@@@std@@@std@@@std@@QBEXABV12@@Z
_TEXT	SEGMENT
___formal$ = 8						; size = 4
?_Compat@?$_Vector_const_iterator@V?$_Vector_val@UExpandSlotItemInfo@ioMessageBox4@@V?$allocator@UExpandSlotItemInfo@ioMessageBox4@@@std@@@std@@@std@@QBEXABV12@@Z PROC ; std::_Vector_const_iterator<std::_Vector_val<ioMessageBox4::ExpandSlotItemInfo,std::allocator<ioMessageBox4::ExpandSlotItemInfo> > >::_Compat, COMDAT
; _this$ = ecx

; 253  : 		}

  00000	c2 04 00	 ret	 4
?_Compat@?$_Vector_const_iterator@V?$_Vector_val@UExpandSlotItemInfo@ioMessageBox4@@V?$allocator@UExpandSlotItemInfo@ioMessageBox4@@@std@@@std@@@std@@QBEXABV12@@Z ENDP ; std::_Vector_const_iterator<std::_Vector_val<ioMessageBox4::ExpandSlotItemInfo,std::allocator<ioMessageBox4::ExpandSlotItemInfo> > >::_Compat
_TEXT	ENDS
PUBLIC	??$addressof@$$CBUExpandSlotItemInfo@ioMessageBox4@@@std@@YAPBUExpandSlotItemInfo@ioMessageBox4@@ABU12@@Z ; std::addressof<ioMessageBox4::ExpandSlotItemInfo const >
; Function compile flags: /Ogsp
; File c:\program files (x86)\microsoft visual studio 10.0\vc\include\xmemory
;	COMDAT ??$addressof@$$CBUExpandSlotItemInfo@ioMessageBox4@@@std@@YAPBUExpandSlotItemInfo@ioMessageBox4@@ABU12@@Z
_TEXT	SEGMENT
__Val$ = 8						; size = 4
??$addressof@$$CBUExpandSlotItemInfo@ioMessageBox4@@@std@@YAPBUExpandSlotItemInfo@ioMessageBox4@@ABU12@@Z PROC ; std::addressof<ioMessageBox4::ExpandSlotItemInfo const >, COMDAT

; 110  : 	{	// return address of _Val

  00000	55		 push	 ebp
  00001	8b ec		 mov	 ebp, esp

; 111  : 	return ((_Ty *) &(char&)_Val);

  00003	8b 45 08	 mov	 eax, DWORD PTR __Val$[ebp]

; 112  : 	}

  00006	5d		 pop	 ebp
  00007	c3		 ret	 0
??$addressof@$$CBUExpandSlotItemInfo@ioMessageBox4@@@std@@YAPBUExpandSlotItemInfo@ioMessageBox4@@ABU12@@Z ENDP ; std::addressof<ioMessageBox4::ExpandSlotItemInfo const >
_TEXT	ENDS
PUBLIC	__TI2?AVbad_alloc@std@@
PUBLIC	??$_Allocate@UExpandSlotItemInfo@ioMessageBox4@@@std@@YAPAUExpandSlotItemInfo@ioMessageBox4@@IPAU12@@Z ; std::_Allocate<ioMessageBox4::ExpandSlotItemInfo>
PUBLIC	__CTA2?AVbad_alloc@std@@
PUBLIC	__CT??_R0?AVbad_alloc@std@@@8??0bad_alloc@std@@QAE@ABV01@@Z12
PUBLIC	??0bad_alloc@std@@QAE@ABV01@@Z			; std::bad_alloc::bad_alloc
PUBLIC	__CT??_R0?AVexception@std@@@8??0exception@std@@QAE@ABV01@@Z12
EXTRN	??2@YAPAXI@Z:PROC				; operator new
EXTRN	__CxxThrowException@8:PROC
EXTRN	??0exception@std@@QAE@ABV01@@Z:PROC		; std::exception::exception
;	COMDAT __CT??_R0?AVexception@std@@@8??0exception@std@@QAE@ABV01@@Z12
; File c:\program files (x86)\microsoft visual studio 10.0\vc\include\exception
xdata$x	SEGMENT
__CT??_R0?AVexception@std@@@8??0exception@std@@QAE@ABV01@@Z12 DD 00H
	DD	FLAT:??_R0?AVexception@std@@@8
	DD	00H
	DD	0ffffffffH
	ORG $+4
	DD	0cH
	DD	FLAT:??0exception@std@@QAE@ABV01@@Z
xdata$x	ENDS
;	COMDAT __CT??_R0?AVbad_alloc@std@@@8??0bad_alloc@std@@QAE@ABV01@@Z12
xdata$x	SEGMENT
__CT??_R0?AVbad_alloc@std@@@8??0bad_alloc@std@@QAE@ABV01@@Z12 DD 00H
	DD	FLAT:??_R0?AVbad_alloc@std@@@8
	DD	00H
	DD	0ffffffffH
	ORG $+4
	DD	0cH
	DD	FLAT:??0bad_alloc@std@@QAE@ABV01@@Z
xdata$x	ENDS
;	COMDAT __CTA2?AVbad_alloc@std@@
xdata$x	SEGMENT
__CTA2?AVbad_alloc@std@@ DD 02H
	DD	FLAT:__CT??_R0?AVbad_alloc@std@@@8??0bad_alloc@std@@QAE@ABV01@@Z12
	DD	FLAT:__CT??_R0?AVexception@std@@@8??0exception@std@@QAE@ABV01@@Z12
xdata$x	ENDS
;	COMDAT __TI2?AVbad_alloc@std@@
xdata$x	SEGMENT
__TI2?AVbad_alloc@std@@ DD 00H
	DD	FLAT:??1bad_alloc@std@@UAE@XZ
	DD	00H
	DD	FLAT:__CTA2?AVbad_alloc@std@@
; Function compile flags: /Ogsp
; File c:\program files (x86)\microsoft visual studio 10.0\vc\include\xmemory
xdata$x	ENDS
;	COMDAT ??$_Allocate@UExpandSlotItemInfo@ioMessageBox4@@@std@@YAPAUExpandSlotItemInfo@ioMessageBox4@@IPAU12@@Z
_TEXT	SEGMENT
$T508958 = -12						; size = 12
$T508963 = 8						; size = 4
__Count$ = 8						; size = 4
___formal$ = 12						; size = 4
??$_Allocate@UExpandSlotItemInfo@ioMessageBox4@@@std@@YAPAUExpandSlotItemInfo@ioMessageBox4@@IPAU12@@Z PROC ; std::_Allocate<ioMessageBox4::ExpandSlotItemInfo>, COMDAT

; 30   : 	{	// allocate storage for _Count elements of type _Ty

  00000	55		 push	 ebp
  00001	8b ec		 mov	 ebp, esp

; 31   : 	void *_Ptr = 0;
; 32   : 
; 33   : 	if (_Count <= 0)

  00003	8b 4d 08	 mov	 ecx, DWORD PTR __Count$[ebp]
  00006	83 ec 0c	 sub	 esp, 12			; 0000000cH
  00009	33 c0		 xor	 eax, eax
  0000b	85 c9		 test	 ecx, ecx

; 34   : 		_Count = 0;
; 35   : 	else if (((_SIZT)(-1) / sizeof (_Ty) < _Count)

  0000d	74 3c		 je	 SHORT $LN5@Allocate

; 36   : 		|| (_Ptr = ::operator new(_Count * sizeof (_Ty))) == 0)

  0000f	81 f9 aa aa aa
	0a		 cmp	 ecx, 178956970		; 0aaaaaaaH
  00015	77 0e		 ja	 SHORT $LN1@Allocate
  00017	6b c9 18	 imul	 ecx, 24			; 00000018H
  0001a	51		 push	 ecx
  0001b	e8 00 00 00 00	 call	 ??2@YAPAXI@Z		; operator new
  00020	59		 pop	 ecx
  00021	85 c0		 test	 eax, eax

; 38   : 
; 39   : 	return ((_Ty _FARQ *)_Ptr);

  00023	75 26		 jne	 SHORT $LN5@Allocate
$LN1@Allocate:

; 37   : 		_THROW_NCEE(bad_alloc, 0);

  00025	83 65 08 00	 and	 DWORD PTR $T508963[ebp], 0
  00029	8d 45 08	 lea	 eax, DWORD PTR $T508963[ebp]
  0002c	50		 push	 eax
  0002d	8d 4d f4	 lea	 ecx, DWORD PTR $T508958[ebp]
  00030	ff 15 00 00 00
	00		 call	 DWORD PTR __imp_??0exception@std@@QAE@ABQBD@Z
  00036	68 00 00 00 00	 push	 OFFSET __TI2?AVbad_alloc@std@@
  0003b	8d 45 f4	 lea	 eax, DWORD PTR $T508958[ebp]
  0003e	50		 push	 eax
  0003f	c7 45 f4 00 00
	00 00		 mov	 DWORD PTR $T508958[ebp], OFFSET ??_7bad_alloc@std@@6B@
  00046	e8 00 00 00 00	 call	 __CxxThrowException@8
$LN10@Allocate:
$LN5@Allocate:

; 40   : 	}

  0004b	c9		 leave
  0004c	c3		 ret	 0
$LN9@Allocate:
??$_Allocate@UExpandSlotItemInfo@ioMessageBox4@@@std@@YAPAUExpandSlotItemInfo@ioMessageBox4@@IPAU12@@Z ENDP ; std::_Allocate<ioMessageBox4::ExpandSlotItemInfo>
_TEXT	ENDS
PUBLIC	??$forward@AAUExpandSlotItemInfo@ioMessageBox4@@@std@@YAAAUExpandSlotItemInfo@ioMessageBox4@@AAU12@@Z ; std::forward<ioMessageBox4::ExpandSlotItemInfo &>
; Function compile flags: /Ogsp
; File c:\program files (x86)\microsoft visual studio 10.0\vc\include\utility
;	COMDAT ??$forward@AAUExpandSlotItemInfo@ioMessageBox4@@@std@@YAAAUExpandSlotItemInfo@ioMessageBox4@@AAU12@@Z
_TEXT	SEGMENT
__Arg$ = 8						; size = 4
??$forward@AAUExpandSlotItemInfo@ioMessageBox4@@@std@@YAAAUExpandSlotItemInfo@ioMessageBox4@@AAU12@@Z PROC ; std::forward<ioMessageBox4::ExpandSlotItemInfo &>, COMDAT

; 78   : 	{	// forward _Arg, given explicitly specified type parameter

  00000	55		 push	 ebp
  00001	8b ec		 mov	 ebp, esp

; 79   : 	return ((_Ty&&)_Arg);

  00003	8b 45 08	 mov	 eax, DWORD PTR __Arg$[ebp]

; 80   : 	}

  00006	5d		 pop	 ebp
  00007	c3		 ret	 0
??$forward@AAUExpandSlotItemInfo@ioMessageBox4@@@std@@YAAAUExpandSlotItemInfo@ioMessageBox4@@AAU12@@Z ENDP ; std::forward<ioMessageBox4::ExpandSlotItemInfo &>
_TEXT	ENDS
PUBLIC	??$forward@ABUExpandSlotItemInfo@ioMessageBox4@@@std@@YAABUExpandSlotItemInfo@ioMessageBox4@@ABU12@@Z ; std::forward<ioMessageBox4::ExpandSlotItemInfo const &>
; Function compile flags: /Ogsp
;	COMDAT ??$forward@ABUExpandSlotItemInfo@ioMessageBox4@@@std@@YAABUExpandSlotItemInfo@ioMessageBox4@@ABU12@@Z
_TEXT	SEGMENT
__Arg$ = 8						; size = 4
??$forward@ABUExpandSlotItemInfo@ioMessageBox4@@@std@@YAABUExpandSlotItemInfo@ioMessageBox4@@ABU12@@Z PROC ; std::forward<ioMessageBox4::ExpandSlotItemInfo const &>, COMDAT

; 78   : 	{	// forward _Arg, given explicitly specified type parameter

  00000	55		 push	 ebp
  00001	8b ec		 mov	 ebp, esp

; 79   : 	return ((_Ty&&)_Arg);

  00003	8b 45 08	 mov	 eax, DWORD PTR __Arg$[ebp]

; 80   : 	}

  00006	5d		 pop	 ebp
  00007	c3		 ret	 0
??$forward@ABUExpandSlotItemInfo@ioMessageBox4@@@std@@YAABUExpandSlotItemInfo@ioMessageBox4@@ABU12@@Z ENDP ; std::forward<ioMessageBox4::ExpandSlotItemInfo const &>
_TEXT	ENDS
PUBLIC	??$_Ptr_cat@UExpandSlotItemInfo@ioMessageBox4@@U12@@std@@YA?AU_Nonscalar_ptr_iterator_tag@0@PAUExpandSlotItemInfo@ioMessageBox4@@0@Z ; std::_Ptr_cat<ioMessageBox4::ExpandSlotItemInfo,ioMessageBox4::ExpandSlotItemInfo>
; Function compile flags: /Ogsp
; File c:\program files (x86)\microsoft visual studio 10.0\vc\include\xutility
;	COMDAT ??$_Ptr_cat@UExpandSlotItemInfo@ioMessageBox4@@U12@@std@@YA?AU_Nonscalar_ptr_iterator_tag@0@PAUExpandSlotItemInfo@ioMessageBox4@@0@Z
_TEXT	SEGMENT
__Cat$ = -1						; size = 1
___formal$ = 8						; size = 4
___formal$ = 12						; size = 4
??$_Ptr_cat@UExpandSlotItemInfo@ioMessageBox4@@U12@@std@@YA?AU_Nonscalar_ptr_iterator_tag@0@PAUExpandSlotItemInfo@ioMessageBox4@@0@Z PROC ; std::_Ptr_cat<ioMessageBox4::ExpandSlotItemInfo,ioMessageBox4::ExpandSlotItemInfo>, COMDAT

; 516  : 	{	// return pointer category from pointers

  00000	55		 push	 ebp
  00001	8b ec		 mov	 ebp, esp
  00003	51		 push	 ecx

; 517  : 	typename _Ptr_cat_helper<_Elem1, _Elem2>::_Type _Cat;
; 518  : 	return (_Cat);

  00004	8a 45 ff	 mov	 al, BYTE PTR __Cat$[ebp]

; 519  : 	}

  00007	c9		 leave
  00008	c3		 ret	 0
??$_Ptr_cat@UExpandSlotItemInfo@ioMessageBox4@@U12@@std@@YA?AU_Nonscalar_ptr_iterator_tag@0@PAUExpandSlotItemInfo@ioMessageBox4@@0@Z ENDP ; std::_Ptr_cat<ioMessageBox4::ExpandSlotItemInfo,ioMessageBox4::ExpandSlotItemInfo>
_TEXT	ENDS
PUBLIC	??0ExpandSlotItemInfo@ioMessageBox4@@QAE@ABU01@@Z ; ioMessageBox4::ExpandSlotItemInfo::ExpandSlotItemInfo
EXTRN	__imp_??0ioHashString@@QAE@ABV0@@Z:PROC
; Function compile flags: /Ogsp
;	COMDAT ??0ExpandSlotItemInfo@ioMessageBox4@@QAE@ABU01@@Z
_TEXT	SEGMENT
___that$ = 8						; size = 4
??0ExpandSlotItemInfo@ioMessageBox4@@QAE@ABU01@@Z PROC	; ioMessageBox4::ExpandSlotItemInfo::ExpandSlotItemInfo, COMDAT
; _this$ = ecx
  00000	55		 push	 ebp
  00001	8b ec		 mov	 ebp, esp
  00003	56		 push	 esi
  00004	57		 push	 edi
  00005	8b 7d 08	 mov	 edi, DWORD PTR ___that$[ebp]
  00008	8b 07		 mov	 eax, DWORD PTR [edi]
  0000a	8b f1		 mov	 esi, ecx
  0000c	89 06		 mov	 DWORD PTR [esi], eax
  0000e	8d 47 04	 lea	 eax, DWORD PTR [edi+4]
  00011	50		 push	 eax
  00012	8d 4e 04	 lea	 ecx, DWORD PTR [esi+4]
  00015	ff 15 00 00 00
	00		 call	 DWORD PTR __imp_??0ioHashString@@QAE@ABV0@@Z
  0001b	8b 47 14	 mov	 eax, DWORD PTR [edi+20]
  0001e	89 46 14	 mov	 DWORD PTR [esi+20], eax
  00021	5f		 pop	 edi
  00022	8b c6		 mov	 eax, esi
  00024	5e		 pop	 esi
  00025	5d		 pop	 ebp
  00026	c2 04 00	 ret	 4
??0ExpandSlotItemInfo@ioMessageBox4@@QAE@ABU01@@Z ENDP	; ioMessageBox4::ExpandSlotItemInfo::ExpandSlotItemInfo
_TEXT	ENDS
PUBLIC	??4ExpandSlotItemInfo@ioMessageBox4@@QAEAAU01@ABU01@@Z ; ioMessageBox4::ExpandSlotItemInfo::operator=
EXTRN	__imp_??4ioHashString@@QAEAAV0@ABV0@@Z:PROC
; Function compile flags: /Ogsp
;	COMDAT ??4ExpandSlotItemInfo@ioMessageBox4@@QAEAAU01@ABU01@@Z
_TEXT	SEGMENT
___that$ = 8						; size = 4
??4ExpandSlotItemInfo@ioMessageBox4@@QAEAAU01@ABU01@@Z PROC ; ioMessageBox4::ExpandSlotItemInfo::operator=, COMDAT
; _this$ = ecx
  00000	55		 push	 ebp
  00001	8b ec		 mov	 ebp, esp
  00003	56		 push	 esi
  00004	57		 push	 edi
  00005	8b 7d 08	 mov	 edi, DWORD PTR ___that$[ebp]
  00008	8b 07		 mov	 eax, DWORD PTR [edi]
  0000a	8b f1		 mov	 esi, ecx
  0000c	89 06		 mov	 DWORD PTR [esi], eax
  0000e	8d 47 04	 lea	 eax, DWORD PTR [edi+4]
  00011	50		 push	 eax
  00012	8d 4e 04	 lea	 ecx, DWORD PTR [esi+4]
  00015	ff 15 00 00 00
	00		 call	 DWORD PTR __imp_??4ioHashString@@QAEAAV0@ABV0@@Z
  0001b	8b 47 14	 mov	 eax, DWORD PTR [edi+20]
  0001e	89 46 14	 mov	 DWORD PTR [esi+20], eax
  00021	5f		 pop	 edi
  00022	8b c6		 mov	 eax, esi
  00024	5e		 pop	 esi
  00025	5d		 pop	 ebp
  00026	c2 04 00	 ret	 4
??4ExpandSlotItemInfo@ioMessageBox4@@QAEAAU01@ABU01@@Z ENDP ; ioMessageBox4::ExpandSlotItemInfo::operator=
_TEXT	ENDS
PUBLIC	??$move@AAUExpandSlotItemInfo@ioMessageBox4@@@std@@YA$$QAUExpandSlotItemInfo@ioMessageBox4@@AAU12@@Z ; std::move<ioMessageBox4::ExpandSlotItemInfo &>
; Function compile flags: /Ogsp
; File c:\program files (x86)\microsoft visual studio 10.0\vc\include\utility
;	COMDAT ??$move@AAUExpandSlotItemInfo@ioMessageBox4@@@std@@YA$$QAUExpandSlotItemInfo@ioMessageBox4@@AAU12@@Z
_TEXT	SEGMENT
__Arg$ = 8						; size = 4
??$move@AAUExpandSlotItemInfo@ioMessageBox4@@@std@@YA$$QAUExpandSlotItemInfo@ioMessageBox4@@AAU12@@Z PROC ; std::move<ioMessageBox4::ExpandSlotItemInfo &>, COMDAT

; 86   : 	{	// forward _Arg as movable

  00000	55		 push	 ebp
  00001	8b ec		 mov	 ebp, esp

; 87   : 	return ((typename tr1::_Remove_reference<_Ty>::_Type&&)_Arg);

  00003	8b 45 08	 mov	 eax, DWORD PTR __Arg$[ebp]

; 88   : 	}

  00006	5d		 pop	 ebp
  00007	c3		 ret	 0
??$move@AAUExpandSlotItemInfo@ioMessageBox4@@@std@@YA$$QAUExpandSlotItemInfo@ioMessageBox4@@AAU12@@Z ENDP ; std::move<ioMessageBox4::ExpandSlotItemInfo &>
_TEXT	ENDS
PUBLIC	??$_Val_type@PAUExpandSlotItemInfo@ioMessageBox4@@@std@@YAPAUExpandSlotItemInfo@ioMessageBox4@@PAU12@@Z ; std::_Val_type<ioMessageBox4::ExpandSlotItemInfo *>
; Function compile flags: /Ogsp
; File c:\program files (x86)\microsoft visual studio 10.0\vc\include\xutility
;	COMDAT ??$_Val_type@PAUExpandSlotItemInfo@ioMessageBox4@@@std@@YAPAUExpandSlotItemInfo@ioMessageBox4@@PAU12@@Z
_TEXT	SEGMENT
___formal$ = 8						; size = 4
??$_Val_type@PAUExpandSlotItemInfo@ioMessageBox4@@@std@@YAPAUExpandSlotItemInfo@ioMessageBox4@@PAU12@@Z PROC ; std::_Val_type<ioMessageBox4::ExpandSlotItemInfo *>, COMDAT

; 790  : 	return (0);

  00000	33 c0		 xor	 eax, eax

; 791  : 	}

  00002	c3		 ret	 0
??$_Val_type@PAUExpandSlotItemInfo@ioMessageBox4@@@std@@YAPAUExpandSlotItemInfo@ioMessageBox4@@PAU12@@Z ENDP ; std::_Val_type<ioMessageBox4::ExpandSlotItemInfo *>
_TEXT	ENDS
PUBLIC	??_GExpandSlotItemInfo@ioMessageBox4@@QAEPAXI@Z	; ioMessageBox4::ExpandSlotItemInfo::`scalar deleting destructor'
; Function compile flags: /Ogsp
;	COMDAT ??_GExpandSlotItemInfo@ioMessageBox4@@QAEPAXI@Z
_TEXT	SEGMENT
___flags$ = 8						; size = 4
??_GExpandSlotItemInfo@ioMessageBox4@@QAEPAXI@Z PROC	; ioMessageBox4::ExpandSlotItemInfo::`scalar deleting destructor', COMDAT
; _this$ = ecx
  00000	55		 push	 ebp
  00001	8b ec		 mov	 ebp, esp
  00003	56		 push	 esi
  00004	8b f1		 mov	 esi, ecx
  00006	8d 4e 04	 lea	 ecx, DWORD PTR [esi+4]
  00009	ff 15 00 00 00
	00		 call	 DWORD PTR __imp_??1ioHashString@@QAE@XZ
  0000f	f6 45 08 01	 test	 BYTE PTR ___flags$[ebp], 1
  00013	74 07		 je	 SHORT $LN1@scalar@2
  00015	56		 push	 esi
  00016	e8 00 00 00 00	 call	 ??3@YAXPAX@Z		; operator delete
  0001b	59		 pop	 ecx
$LN1@scalar@2:
  0001c	8b c6		 mov	 eax, esi
  0001e	5e		 pop	 esi
  0001f	5d		 pop	 ebp
  00020	c2 04 00	 ret	 4
??_GExpandSlotItemInfo@ioMessageBox4@@QAEPAXI@Z ENDP	; ioMessageBox4::ExpandSlotItemInfo::`scalar deleting destructor'
_TEXT	ENDS
PUBLIC	??$forward@UExpandSlotItemInfo@ioMessageBox4@@@std@@YA$$QAUExpandSlotItemInfo@ioMessageBox4@@AAU12@@Z ; std::forward<ioMessageBox4::ExpandSlotItemInfo>
; Function compile flags: /Ogsp
; File c:\program files (x86)\microsoft visual studio 10.0\vc\include\utility
;	COMDAT ??$forward@UExpandSlotItemInfo@ioMessageBox4@@@std@@YA$$QAUExpandSlotItemInfo@ioMessageBox4@@AAU12@@Z
_TEXT	SEGMENT
__Arg$ = 8						; size = 4
??$forward@UExpandSlotItemInfo@ioMessageBox4@@@std@@YA$$QAUExpandSlotItemInfo@ioMessageBox4@@AAU12@@Z PROC ; std::forward<ioMessageBox4::ExpandSlotItemInfo>, COMDAT

; 78   : 	{	// forward _Arg, given explicitly specified type parameter

  00000	55		 push	 ebp
  00001	8b ec		 mov	 ebp, esp

; 79   : 	return ((_Ty&&)_Arg);

  00003	8b 45 08	 mov	 eax, DWORD PTR __Arg$[ebp]

; 80   : 	}

  00006	5d		 pop	 ebp
  00007	c3		 ret	 0
??$forward@UExpandSlotItemInfo@ioMessageBox4@@@std@@YA$$QAUExpandSlotItemInfo@ioMessageBox4@@AAU12@@Z ENDP ; std::forward<ioMessageBox4::ExpandSlotItemInfo>
_TEXT	ENDS
PUBLIC	?_DECSTR@@YAXPADH@Z				; _DECSTR
; Function compile flags: /Ogsp
; File d:\lost saga for developer\youtube\tutorial\source\src\lsclient\stringprotect.h
;	COMDAT ?_DECSTR@@YAXPADH@Z
_TEXT	SEGMENT
_s$ = 8							; size = 4
_l$ = 12						; size = 4
?_DECSTR@@YAXPADH@Z PROC				; _DECSTR, COMDAT

; 40   : __forceinline void _DECSTR(char* s, int l){int i=0,l4=(l-1)/4,*p=(int*)s;s[l-1]=0;for(;i<l4;++i)*(p++)^=0xEAEBECED;for(i=l4*4;i<l-1;++i)s[i]^=0xED-i%4;}

  00000	55		 push	 ebp
  00001	8b ec		 mov	 ebp, esp
  00003	8b 4d 0c	 mov	 ecx, DWORD PTR _l$[ebp]
  00006	56		 push	 esi
  00007	8b 75 08	 mov	 esi, DWORD PTR _s$[ebp]
  0000a	57		 push	 edi
  0000b	8d 79 ff	 lea	 edi, DWORD PTR [ecx-1]
  0000e	8b c7		 mov	 eax, edi
  00010	99		 cdq
  00011	83 e2 03	 and	 edx, 3
  00014	03 c2		 add	 eax, edx
  00016	c1 f8 02	 sar	 eax, 2
  00019	8b d6		 mov	 edx, esi
  0001b	c6 44 0e ff 00	 mov	 BYTE PTR [esi+ecx-1], 0
  00020	85 c0		 test	 eax, eax
  00022	7e 0e		 jle	 SHORT $LN4@DECSTR
  00024	8b c8		 mov	 ecx, eax
$LL6@DECSTR:
  00026	81 32 ed ec eb
	ea		 xor	 DWORD PTR [edx], -353637139 ; eaebecedH
  0002c	83 c2 04	 add	 edx, 4
  0002f	49		 dec	 ecx
  00030	75 f4		 jne	 SHORT $LL6@DECSTR
$LN4@DECSTR:
  00032	c1 e0 02	 shl	 eax, 2
  00035	eb 17		 jmp	 SHORT $LN14@DECSTR
$LL3@DECSTR:
  00037	8b c8		 mov	 ecx, eax
  00039	81 e1 03 00 00
	80		 and	 ecx, -2147483645	; 80000003H
  0003f	79 05		 jns	 SHORT $LN13@DECSTR
  00041	49		 dec	 ecx
  00042	83 c9 fc	 or	 ecx, -4			; fffffffcH
  00045	41		 inc	 ecx
$LN13@DECSTR:
  00046	b2 ed		 mov	 dl, -19			; ffffffedH
  00048	2a d1		 sub	 dl, cl
  0004a	30 14 30	 xor	 BYTE PTR [eax+esi], dl
  0004d	40		 inc	 eax
$LN14@DECSTR:
  0004e	3b c7		 cmp	 eax, edi
  00050	7c e5		 jl	 SHORT $LL3@DECSTR
  00052	5f		 pop	 edi
  00053	5e		 pop	 esi
  00054	5d		 pop	 ebp
  00055	c3		 ret	 0
?_DECSTR@@YAXPADH@Z ENDP				; _DECSTR
_TEXT	ENDS
PUBLIC	??0ETCITEMSLOT@ioUserEtcItem@@QAE@XZ		; ioUserEtcItem::ETCITEMSLOT::ETCITEMSLOT
; Function compile flags: /Ogsp
; File d:\lost saga for developer\youtube\tutorial\source\src\lsclient\iouseretcitem.h
;	COMDAT ??0ETCITEMSLOT@ioUserEtcItem@@QAE@XZ
_TEXT	SEGMENT
??0ETCITEMSLOT@ioUserEtcItem@@QAE@XZ PROC		; ioUserEtcItem::ETCITEMSLOT::ETCITEMSLOT, COMDAT
; _this$ = ecx

; 22   : 		ETCITEMSLOT()

  00000	8b c1		 mov	 eax, ecx

; 23   : 		{
; 24   : 			m_iType   = 0;

  00002	33 c9		 xor	 ecx, ecx
  00004	89 08		 mov	 DWORD PTR [eax], ecx

; 25   : 			m_iValue1 = 0;

  00006	89 48 04	 mov	 DWORD PTR [eax+4], ecx

; 26   : 			m_iValue2 = 0;

  00009	89 48 08	 mov	 DWORD PTR [eax+8], ecx

; 27   : 		}

  0000c	c3		 ret	 0
??0ETCITEMSLOT@ioUserEtcItem@@QAE@XZ ENDP		; ioUserEtcItem::ETCITEMSLOT::ETCITEMSLOT
_TEXT	ENDS
PUBLIC	?GetName@ioEtcItem@@QBEABVioHashString@@XZ	; ioEtcItem::GetName
; Function compile flags: /Ogsp
; File d:\lost saga for developer\youtube\tutorial\source\src\lsclient\ioetcitem.h
;	COMDAT ?GetName@ioEtcItem@@QBEABVioHashString@@XZ
_TEXT	SEGMENT
?GetName@ioEtcItem@@QBEABVioHashString@@XZ PROC		; ioEtcItem::GetName, COMDAT
; _this$ = ecx

; 465  : 	inline const ioHashString& GetName() const { return m_Name; }

  00000	8d 41 04	 lea	 eax, DWORD PTR [ecx+4]
  00003	c3		 ret	 0
?GetName@ioEtcItem@@QBEABVioHashString@@XZ ENDP		; ioEtcItem::GetName
_TEXT	ENDS
PUBLIC	?GetIconName@ioEtcItem@@QBEABVioHashString@@XZ	; ioEtcItem::GetIconName
; Function compile flags: /Ogsp
;	COMDAT ?GetIconName@ioEtcItem@@QBEABVioHashString@@XZ
_TEXT	SEGMENT
?GetIconName@ioEtcItem@@QBEABVioHashString@@XZ PROC	; ioEtcItem::GetIconName, COMDAT
; _this$ = ecx

; 467  : 	inline const ioHashString& GetIconName() const { return m_IconName; }

  00000	8d 81 60 01 00
	00		 lea	 eax, DWORD PTR [ecx+352]
  00006	c3		 ret	 0
?GetIconName@ioEtcItem@@QBEABVioHashString@@XZ ENDP	; ioEtcItem::GetIconName
_TEXT	ENDS
PUBLIC	?GetUseSlotNumber@ioEtcItemExpandMedalSlot@@QBE?BHXZ ; ioEtcItemExpandMedalSlot::GetUseSlotNumber
; Function compile flags: /Ogsp
;	COMDAT ?GetUseSlotNumber@ioEtcItemExpandMedalSlot@@QBE?BHXZ
_TEXT	SEGMENT
?GetUseSlotNumber@ioEtcItemExpandMedalSlot@@QBE?BHXZ PROC ; ioEtcItemExpandMedalSlot::GetUseSlotNumber, COMDAT
; _this$ = ecx

; 1617 : 	inline const int GetUseSlotNumber() const { return m_iSlotNumber; }

  00000	0f b6 81 e8 01
	00 00		 movzx	 eax, BYTE PTR [ecx+488]
  00007	c3		 ret	 0
?GetUseSlotNumber@ioEtcItemExpandMedalSlot@@QBE?BHXZ ENDP ; ioEtcItemExpandMedalSlot::GetUseSlotNumber
_TEXT	ENDS
PUBLIC	?GetUserEtcItem@ioMyInfo@@QAEPAVioUserEtcItem@@XZ ; ioMyInfo::GetUserEtcItem
; Function compile flags: /Ogsp
; File d:\lost saga for developer\youtube\tutorial\source\src\lsclient\iomyinfo.h
;	COMDAT ?GetUserEtcItem@ioMyInfo@@QAEPAVioUserEtcItem@@XZ
_TEXT	SEGMENT
?GetUserEtcItem@ioMyInfo@@QAEPAVioUserEtcItem@@XZ PROC	; ioMyInfo::GetUserEtcItem, COMDAT
; _this$ = ecx

; 635  : 	ioUserEtcItem* GetUserEtcItem() { return &m_UserEtcItem; }

  00000	8d 81 44 01 00
	00		 lea	 eax, DWORD PTR [ecx+324]
  00006	c3		 ret	 0
?GetUserEtcItem@ioMyInfo@@QAEPAVioUserEtcItem@@XZ ENDP	; ioMyInfo::GetUserEtcItem
_TEXT	ENDS
PUBLIC	?empty@?$vector@UtagTextPiece@ioComplexStringPrinter@@V?$allocator@UtagTextPiece@ioComplexStringPrinter@@@std@@@std@@QBE_NXZ ; std::vector<ioComplexStringPrinter::tagTextPiece,std::allocator<ioComplexStringPrinter::tagTextPiece> >::empty
; Function compile flags: /Ogsp
; File c:\program files (x86)\microsoft visual studio 10.0\vc\include\vector
;	COMDAT ?empty@?$vector@UtagTextPiece@ioComplexStringPrinter@@V?$allocator@UtagTextPiece@ioComplexStringPrinter@@@std@@@std@@QBE_NXZ
_TEXT	SEGMENT
?empty@?$vector@UtagTextPiece@ioComplexStringPrinter@@V?$allocator@UtagTextPiece@ioComplexStringPrinter@@@std@@@std@@QBE_NXZ PROC ; std::vector<ioComplexStringPrinter::tagTextPiece,std::allocator<ioComplexStringPrinter::tagTextPiece> >::empty, COMDAT
; _this$ = ecx

; 889  : 		return (this->_Myfirst == this->_Mylast);

  00000	8b 01		 mov	 eax, DWORD PTR [ecx]
  00002	2b 41 04	 sub	 eax, DWORD PTR [ecx+4]
  00005	f7 d8		 neg	 eax
  00007	1b c0		 sbb	 eax, eax
  00009	40		 inc	 eax

; 890  : 		}

  0000a	c3		 ret	 0
?empty@?$vector@UtagTextPiece@ioComplexStringPrinter@@V?$allocator@UtagTextPiece@ioComplexStringPrinter@@@std@@@std@@QBE_NXZ ENDP ; std::vector<ioComplexStringPrinter::tagTextPiece,std::allocator<ioComplexStringPrinter::tagTextPiece> >::empty
_TEXT	ENDS
PUBLIC	?DecryptValueToPool@?$CEncrypt@K@@QAEXPAK@Z	; CEncrypt<unsigned long>::DecryptValueToPool
EXTRN	?DecryptByte@ccddaabb@@QBEXPBDPADH@Z:PROC	; ccddaabb::DecryptByte
; Function compile flags: /Ogsp
; File d:\lost saga for developer\youtube\tutorial\source\src\lsclient\encryptvalue.h
;	COMDAT ?DecryptValueToPool@?$CEncrypt@K@@QAEXPAK@Z
_TEXT	SEGMENT
_value$ = 8						; size = 4
?DecryptValueToPool@?$CEncrypt@K@@QAEXPAK@Z PROC	; CEncrypt<unsigned long>::DecryptValueToPool, COMDAT
; _this$ = ecx

; 1256 : 	{

  00000	55		 push	 ebp
  00001	8b ec		 mov	 ebp, esp
  00003	56		 push	 esi

; 1257 : 		m_RC5.DecryptByte( m_MemPool, m_TempMem, 4 );

  00004	8d 71 28	 lea	 esi, DWORD PTR [ecx+40]
  00007	6a 04		 push	 4
  00009	8d 41 1c	 lea	 eax, DWORD PTR [ecx+28]
  0000c	56		 push	 esi
  0000d	50		 push	 eax
  0000e	83 c1 0c	 add	 ecx, 12			; 0000000cH
  00011	e8 00 00 00 00	 call	 ?DecryptByte@ccddaabb@@QBEXPBDPADH@Z ; ccddaabb::DecryptByte

; 1258 : 		*value = *((DWORD*)m_TempMem);

  00016	8b 06		 mov	 eax, DWORD PTR [esi]
  00018	8b 4d 08	 mov	 ecx, DWORD PTR _value$[ebp]
  0001b	89 01		 mov	 DWORD PTR [ecx], eax
  0001d	5e		 pop	 esi

; 1259 : 	}

  0001e	5d		 pop	 ebp
  0001f	c2 04 00	 ret	 4
?DecryptValueToPool@?$CEncrypt@K@@QAEXPAK@Z ENDP	; CEncrypt<unsigned long>::DecryptValueToPool
_TEXT	ENDS
EXTRN	__imp_??0exception@std@@QAE@ABV01@@Z:PROC
; Function compile flags: /Ogsp
;	COMDAT ??0bad_alloc@std@@QAE@ABV01@@Z
_TEXT	SEGMENT
___that$ = 8						; size = 4
??0bad_alloc@std@@QAE@ABV01@@Z PROC			; std::bad_alloc::bad_alloc, COMDAT
; _this$ = ecx
  00000	55		 push	 ebp
  00001	8b ec		 mov	 ebp, esp
  00003	56		 push	 esi
  00004	ff 75 08	 push	 DWORD PTR ___that$[ebp]
  00007	8b f1		 mov	 esi, ecx
  00009	ff 15 00 00 00
	00		 call	 DWORD PTR __imp_??0exception@std@@QAE@ABV01@@Z
  0000f	c7 06 00 00 00
	00		 mov	 DWORD PTR [esi], OFFSET ??_7bad_alloc@std@@6B@
  00015	8b c6		 mov	 eax, esi
  00017	5e		 pop	 esi
  00018	5d		 pop	 ebp
  00019	c2 04 00	 ret	 4
??0bad_alloc@std@@QAE@ABV01@@Z ENDP			; std::bad_alloc::bad_alloc
; Function compile flags: /Ogsp
_TEXT	ENDS
;	COMDAT ??_GioMessageBox4Btn@@UAEPAXI@Z
_TEXT	SEGMENT
___flags$ = 8						; size = 4
??_GioMessageBox4Btn@@UAEPAXI@Z PROC			; ioMessageBox4Btn::`scalar deleting destructor', COMDAT
; _this$ = ecx
  00000	55		 push	 ebp
  00001	8b ec		 mov	 ebp, esp
  00003	56		 push	 esi
  00004	8b f1		 mov	 esi, ecx
  00006	e8 00 00 00 00	 call	 ??1ioMessageBox4Btn@@UAE@XZ ; ioMessageBox4Btn::~ioMessageBox4Btn
  0000b	f6 45 08 01	 test	 BYTE PTR ___flags$[ebp], 1
  0000f	74 07		 je	 SHORT $LN1@scalar@3
  00011	56		 push	 esi
  00012	e8 00 00 00 00	 call	 ??3@YAXPAX@Z		; operator delete
  00017	59		 pop	 ecx
$LN1@scalar@3:
  00018	8b c6		 mov	 eax, esi
  0001a	5e		 pop	 esi
  0001b	5d		 pop	 ebp
  0001c	c2 04 00	 ret	 4
??_GioMessageBox4Btn@@UAEPAXI@Z ENDP			; ioMessageBox4Btn::`scalar deleting destructor'
_TEXT	ENDS
PUBLIC	??_C@_00CNPNBAHC@?$AA@				; `string'
PUBLIC	__$ArrayPad$
PUBLIC	?AttachTitle@ioMessageBox4Btn@@QAEXXZ		; ioMessageBox4Btn::AttachTitle
EXTRN	__imp_?SetOffset@ioUITitle@@QAEXHH@Z:PROC
EXTRN	__imp_?GetWidth@ioWnd@@QBEHXZ:PROC
EXTRN	__imp_?GetTextYOffSet@ioUITitle@@QBEHXZ:PROC
EXTRN	__imp_?SetTitleText@ioWnd@@QAEXPBD0H@Z:PROC
EXTRN	__imp__sprintf:PROC
EXTRN	__imp_?c_str@ioHashString@@QBEPBDXZ:PROC
EXTRN	__imp_?GetTitle@ioWnd@@QBEPAVioUITitle@@XZ:PROC
EXTRN	___security_cookie:DWORD
EXTRN	_memset:PROC
;	COMDAT ??_C@_00CNPNBAHC@?$AA@
; File d:\lost saga for developer\youtube\tutorial\source\src\lsclient\stringprotect.h
CONST	SEGMENT
??_C@_00CNPNBAHC@?$AA@ DB 00H				; `string'
; Function compile flags: /Ogsp
; File d:\lost saga for developer\youtube\tutorial\source\src\lsclient\gui\iomessagebox4.cpp
CONST	ENDS
;	COMDAT ?AttachTitle@ioMessageBox4Btn@@QAEXXZ
_TEXT	SEGMENT
___encStr$506434 = -272					; size = 3
_szTitle$506430 = -264					; size = 260
__$ArrayPad$ = -4					; size = 4
?AttachTitle@ioMessageBox4Btn@@QAEXXZ PROC		; ioMessageBox4Btn::AttachTitle, COMDAT
; _this$ = ecx

; 57   : {	

  00000	55		 push	 ebp
  00001	8b ec		 mov	 ebp, esp
  00003	81 ec 10 01 00
	00		 sub	 esp, 272		; 00000110H
  00009	a1 00 00 00 00	 mov	 eax, DWORD PTR ___security_cookie
  0000e	33 c5		 xor	 eax, ebp
  00010	89 45 fc	 mov	 DWORD PTR __$ArrayPad$[ebp], eax
  00013	56		 push	 esi
  00014	57		 push	 edi
  00015	8b f1		 mov	 esi, ecx

; 58   : 	ioUITitle *pTitle = GetTitle();

  00017	ff 15 00 00 00
	00		 call	 DWORD PTR __imp_?GetTitle@ioWnd@@QBEPAVioUITitle@@XZ
  0001d	8b f8		 mov	 edi, eax

; 59   : 	if( pTitle )

  0001f	85 ff		 test	 edi, edi
  00021	0f 84 a8 00 00
	00		 je	 $LN100@AttachTitl

; 60   : 	{
; 61   : 		char szTitle[MAX_PATH] = "";

  00027	68 03 01 00 00	 push	 259			; 00000103H
  0002c	8d 85 f9 fe ff
	ff		 lea	 eax, DWORD PTR _szTitle$506430[ebp+1]
  00032	6a 00		 push	 0
  00034	50		 push	 eax
  00035	c6 85 f8 fe ff
	ff 00		 mov	 BYTE PTR _szTitle$506430[ebp], 0
  0003c	e8 00 00 00 00	 call	 _memset
  00041	83 c4 0c	 add	 esp, 12			; 0000000cH

; 62   : 		sprintf_e( szTitle, "%s", m_szTitleName.c_str() );

  00044	66 c7 85 f0 fe
	ff ff c8 9f	 mov	 WORD PTR ___encStr$506434[ebp], 40904 ; 00009fc8H
  0004d	c6 85 f2 fe ff
	ff 00		 mov	 BYTE PTR ___encStr$506434[ebp+2], 0
  00054	33 c0		 xor	 eax, eax
$LL105@AttachTitl:
  00056	8b c8		 mov	 ecx, eax
  00058	81 e1 03 00 00
	80		 and	 ecx, -2147483645	; 80000003H
  0005e	79 05		 jns	 SHORT $LN115@AttachTitl
  00060	49		 dec	 ecx
  00061	83 c9 fc	 or	 ecx, -4			; fffffffcH
  00064	41		 inc	 ecx
$LN115@AttachTitl:
  00065	b2 ed		 mov	 dl, -19			; ffffffedH
  00067	2a d1		 sub	 dl, cl
  00069	30 94 05 f0 fe
	ff ff		 xor	 BYTE PTR ___encStr$506434[ebp+eax], dl
  00070	40		 inc	 eax
  00071	83 f8 02	 cmp	 eax, 2
  00074	7c e0		 jl	 SHORT $LL105@AttachTitl
  00076	8d 8e fc 01 00
	00		 lea	 ecx, DWORD PTR [esi+508]
  0007c	ff 15 00 00 00
	00		 call	 DWORD PTR __imp_?c_str@ioHashString@@QBEPBDXZ
  00082	50		 push	 eax
  00083	8d 85 f0 fe ff
	ff		 lea	 eax, DWORD PTR ___encStr$506434[ebp]
  00089	50		 push	 eax
  0008a	8d 85 f8 fe ff
	ff		 lea	 eax, DWORD PTR _szTitle$506430[ebp]
  00090	50		 push	 eax
  00091	ff 15 00 00 00
	00		 call	 DWORD PTR __imp__sprintf
  00097	83 c4 0c	 add	 esp, 12			; 0000000cH

; 63   : 		SetTitleText( szTitle );

  0009a	6a 00		 push	 0
  0009c	68 00 00 00 00	 push	 OFFSET ??_C@_00CNPNBAHC@?$AA@
  000a1	8d 85 f8 fe ff
	ff		 lea	 eax, DWORD PTR _szTitle$506430[ebp]
  000a7	50		 push	 eax
  000a8	8b ce		 mov	 ecx, esi
  000aa	ff 15 00 00 00
	00		 call	 DWORD PTR __imp_?SetTitleText@ioWnd@@QAEXPBD0H@Z

; 64   : 		pTitle->SetOffset( GetWidth() / 2, pTitle->GetTextYOffSet() );	

  000b0	8b cf		 mov	 ecx, edi
  000b2	ff 15 00 00 00
	00		 call	 DWORD PTR __imp_?GetTextYOffSet@ioUITitle@@QBEHXZ
  000b8	50		 push	 eax
  000b9	8b ce		 mov	 ecx, esi
  000bb	ff 15 00 00 00
	00		 call	 DWORD PTR __imp_?GetWidth@ioWnd@@QBEHXZ
  000c1	99		 cdq
  000c2	2b c2		 sub	 eax, edx
  000c4	d1 f8		 sar	 eax, 1
  000c6	50		 push	 eax
  000c7	8b cf		 mov	 ecx, edi
  000c9	ff 15 00 00 00
	00		 call	 DWORD PTR __imp_?SetOffset@ioUITitle@@QAEXHH@Z
$LN100@AttachTitl:

; 65   : 	}
; 66   : }

  000cf	8b 4d fc	 mov	 ecx, DWORD PTR __$ArrayPad$[ebp]
  000d2	5f		 pop	 edi
  000d3	33 cd		 xor	 ecx, ebp
  000d5	5e		 pop	 esi
  000d6	e8 00 00 00 00	 call	 @__security_check_cookie@4
  000db	c9		 leave
  000dc	c3		 ret	 0
?AttachTitle@ioMessageBox4Btn@@QAEXXZ ENDP		; ioMessageBox4Btn::AttachTitle
_TEXT	ENDS
PUBLIC	?SetBtnTitle@ioMessageBox4@@QAEXPBD0@Z		; ioMessageBox4::SetBtnTitle
; Function compile flags: /Ogsp
;	COMDAT ?SetBtnTitle@ioMessageBox4@@QAEXPBD0@Z
_TEXT	SEGMENT
_this$ = -8						; size = 4
_pYesBtn$ = -4						; size = 4
_szYesTitle$ = 8					; size = 4
_szNoTitle$ = 12					; size = 4
?SetBtnTitle@ioMessageBox4@@QAEXPBD0@Z PROC		; ioMessageBox4::SetBtnTitle, COMDAT
; _this$ = ecx

; 494  : {

  00000	55		 push	 ebp
  00001	8b ec		 mov	 ebp, esp
  00003	51		 push	 ecx
  00004	51		 push	 ecx
  00005	53		 push	 ebx
  00006	56		 push	 esi

; 495  : 	ioMessageBox4Btn *pYesBtn = dynamic_cast< ioMessageBox4Btn* > ( FindChildWnd( ID_YES ) );

  00007	8b 35 00 00 00
	00		 mov	 esi, DWORD PTR __imp_?FindChildWnd@ioWnd@@QAEPAV1@K@Z
  0000d	57		 push	 edi
  0000e	6a 00		 push	 0
  00010	bb 00 00 00 00	 mov	 ebx, OFFSET ??_R0?AVioMessageBox4Btn@@@8
  00015	53		 push	 ebx
  00016	bf 00 00 00 00	 mov	 edi, OFFSET ??_R0?AVioWnd@@@8
  0001b	57		 push	 edi
  0001c	6a 00		 push	 0
  0001e	6a 02		 push	 2
  00020	89 4d f8	 mov	 DWORD PTR _this$[ebp], ecx
  00023	ff d6		 call	 esi
  00025	50		 push	 eax
  00026	e8 00 00 00 00	 call	 ___RTDynamicCast
  0002b	83 c4 14	 add	 esp, 20			; 00000014H
  0002e	89 45 fc	 mov	 DWORD PTR _pYesBtn$[ebp], eax

; 496  : 	if( pYesBtn )

  00031	85 c0		 test	 eax, eax
  00033	74 17		 je	 SHORT $LN2@SetBtnTitl

; 497  : 	{
; 498  : 		pYesBtn->SetTitleName( szYesTitle );

  00035	ff 75 08	 push	 DWORD PTR _szYesTitle$[ebp]
  00038	8d 88 fc 01 00
	00		 lea	 ecx, DWORD PTR [eax+508]
  0003e	ff 15 00 00 00
	00		 call	 DWORD PTR __imp_??4ioHashString@@QAEAAV0@PBD@Z

; 499  : 		pYesBtn->AttachTitle();

  00044	8b 4d fc	 mov	 ecx, DWORD PTR _pYesBtn$[ebp]
  00047	e8 00 00 00 00	 call	 ?AttachTitle@ioMessageBox4Btn@@QAEXXZ ; ioMessageBox4Btn::AttachTitle
$LN2@SetBtnTitl:

; 500  : 	}
; 501  : 
; 502  : 	ioMessageBox4Btn *pNoBtn = dynamic_cast< ioMessageBox4Btn* > ( FindChildWnd( ID_NO ) );

  0004c	8b 4d f8	 mov	 ecx, DWORD PTR _this$[ebp]
  0004f	6a 00		 push	 0
  00051	53		 push	 ebx
  00052	57		 push	 edi
  00053	6a 00		 push	 0
  00055	6a 03		 push	 3
  00057	ff d6		 call	 esi
  00059	50		 push	 eax
  0005a	e8 00 00 00 00	 call	 ___RTDynamicCast
  0005f	8b f0		 mov	 esi, eax
  00061	83 c4 14	 add	 esp, 20			; 00000014H

; 503  : 	if( pNoBtn )

  00064	85 f6		 test	 esi, esi
  00066	74 16		 je	 SHORT $LN1@SetBtnTitl

; 504  : 	{
; 505  : 		pNoBtn->SetTitleName( szNoTitle );

  00068	ff 75 0c	 push	 DWORD PTR _szNoTitle$[ebp]
  0006b	8d 8e fc 01 00
	00		 lea	 ecx, DWORD PTR [esi+508]
  00071	ff 15 00 00 00
	00		 call	 DWORD PTR __imp_??4ioHashString@@QAEAAV0@PBD@Z

; 506  : 		pNoBtn->AttachTitle();

  00077	8b ce		 mov	 ecx, esi
  00079	e8 00 00 00 00	 call	 ?AttachTitle@ioMessageBox4Btn@@QAEXXZ ; ioMessageBox4Btn::AttachTitle
$LN1@SetBtnTitl:
  0007e	5f		 pop	 edi
  0007f	5e		 pop	 esi
  00080	5b		 pop	 ebx

; 507  : 	}
; 508  : }

  00081	c9		 leave
  00082	c2 08 00	 ret	 8
?SetBtnTitle@ioMessageBox4@@QAEXPBD0@Z ENDP		; ioMessageBox4::SetBtnTitle
_TEXT	ENDS
PUBLIC	??0?$_Vector_val@UExpandSlotItemInfo@ioMessageBox4@@V?$allocator@UExpandSlotItemInfo@ioMessageBox4@@@std@@@std@@QAE@V?$allocator@UExpandSlotItemInfo@ioMessageBox4@@@1@@Z ; std::_Vector_val<ioMessageBox4::ExpandSlotItemInfo,std::allocator<ioMessageBox4::ExpandSlotItemInfo> >::_Vector_val<ioMessageBox4::ExpandSlotItemInfo,std::allocator<ioMessageBox4::ExpandSlotItemInfo> >
; Function compile flags: /Ogsp
; File c:\program files (x86)\microsoft visual studio 10.0\vc\include\vector
;	COMDAT ??0?$_Vector_val@UExpandSlotItemInfo@ioMessageBox4@@V?$allocator@UExpandSlotItemInfo@ioMessageBox4@@@std@@@std@@QAE@V?$allocator@UExpandSlotItemInfo@ioMessageBox4@@@1@@Z
_TEXT	SEGMENT
__Al$ = 8						; size = 1
??0?$_Vector_val@UExpandSlotItemInfo@ioMessageBox4@@V?$allocator@UExpandSlotItemInfo@ioMessageBox4@@@std@@@std@@QAE@V?$allocator@UExpandSlotItemInfo@ioMessageBox4@@@1@@Z PROC ; std::_Vector_val<ioMessageBox4::ExpandSlotItemInfo,std::allocator<ioMessageBox4::ExpandSlotItemInfo> >::_Vector_val<ioMessageBox4::ExpandSlotItemInfo,std::allocator<ioMessageBox4::ExpandSlotItemInfo> >, COMDAT
; _this$ = ecx

; 426  : 		{	// construct allocator from _Al

  00000	8b c1		 mov	 eax, ecx

; 427  : 		_Myfirst = 0;

  00002	33 c9		 xor	 ecx, ecx
  00004	89 08		 mov	 DWORD PTR [eax], ecx

; 428  : 		_Mylast = 0;

  00006	89 48 04	 mov	 DWORD PTR [eax+4], ecx

; 429  : 		_Myend = 0;

  00009	89 48 08	 mov	 DWORD PTR [eax+8], ecx

; 430  : 		}

  0000c	c2 04 00	 ret	 4
??0?$_Vector_val@UExpandSlotItemInfo@ioMessageBox4@@V?$allocator@UExpandSlotItemInfo@ioMessageBox4@@@std@@@std@@QAE@V?$allocator@UExpandSlotItemInfo@ioMessageBox4@@@1@@Z ENDP ; std::_Vector_val<ioMessageBox4::ExpandSlotItemInfo,std::allocator<ioMessageBox4::ExpandSlotItemInfo> >::_Vector_val<ioMessageBox4::ExpandSlotItemInfo,std::allocator<ioMessageBox4::ExpandSlotItemInfo> >
_TEXT	ENDS
PUBLIC	?max_size@?$vector@UExpandSlotItemInfo@ioMessageBox4@@V?$allocator@UExpandSlotItemInfo@ioMessageBox4@@@std@@@std@@QBEIXZ ; std::vector<ioMessageBox4::ExpandSlotItemInfo,std::allocator<ioMessageBox4::ExpandSlotItemInfo> >::max_size
; Function compile flags: /Ogsp
;	COMDAT ?max_size@?$vector@UExpandSlotItemInfo@ioMessageBox4@@V?$allocator@UExpandSlotItemInfo@ioMessageBox4@@@std@@@std@@QBEIXZ
_TEXT	SEGMENT
?max_size@?$vector@UExpandSlotItemInfo@ioMessageBox4@@V?$allocator@UExpandSlotItemInfo@ioMessageBox4@@@std@@@std@@QBEIXZ PROC ; std::vector<ioMessageBox4::ExpandSlotItemInfo,std::allocator<ioMessageBox4::ExpandSlotItemInfo> >::max_size, COMDAT
; _this$ = ecx

; 884  : 		return (this->_Alval.max_size());

  00000	b8 aa aa aa 0a	 mov	 eax, 178956970		; 0aaaaaaaH

; 885  : 		}

  00005	c3		 ret	 0
?max_size@?$vector@UExpandSlotItemInfo@ioMessageBox4@@V?$allocator@UExpandSlotItemInfo@ioMessageBox4@@@std@@@std@@QBEIXZ ENDP ; std::vector<ioMessageBox4::ExpandSlotItemInfo,std::allocator<ioMessageBox4::ExpandSlotItemInfo> >::max_size
_TEXT	ENDS
PUBLIC	?_Grow_to@?$vector@UExpandSlotItemInfo@ioMessageBox4@@V?$allocator@UExpandSlotItemInfo@ioMessageBox4@@@std@@@std@@IBEII@Z ; std::vector<ioMessageBox4::ExpandSlotItemInfo,std::allocator<ioMessageBox4::ExpandSlotItemInfo> >::_Grow_to
; Function compile flags: /Ogsp
;	COMDAT ?_Grow_to@?$vector@UExpandSlotItemInfo@ioMessageBox4@@V?$allocator@UExpandSlotItemInfo@ioMessageBox4@@@std@@@std@@IBEII@Z
_TEXT	SEGMENT
__Count$ = 8						; size = 4
?_Grow_to@?$vector@UExpandSlotItemInfo@ioMessageBox4@@V?$allocator@UExpandSlotItemInfo@ioMessageBox4@@@std@@@std@@IBEII@Z PROC ; std::vector<ioMessageBox4::ExpandSlotItemInfo,std::allocator<ioMessageBox4::ExpandSlotItemInfo> >::_Grow_to, COMDAT
; _this$ = ecx

; 1274 : 		{	// grow by 50% or at least to _Count

  00000	55		 push	 ebp
  00001	8b ec		 mov	 ebp, esp

; 1275 : 		size_type _Capacity = capacity();

  00003	8b 41 08	 mov	 eax, DWORD PTR [ecx+8]
  00006	2b 01		 sub	 eax, DWORD PTR [ecx]
  00008	6a 18		 push	 24			; 00000018H
  0000a	99		 cdq
  0000b	59		 pop	 ecx
  0000c	f7 f9		 idiv	 ecx

; 1276 : 
; 1277 : 		_Capacity = max_size() - _Capacity / 2 < _Capacity
; 1278 : 			? 0 : _Capacity + _Capacity / 2;	// try to grow by 50%

  0000e	ba aa aa aa 0a	 mov	 edx, 178956970		; 0aaaaaaaH
  00013	8b c8		 mov	 ecx, eax
  00015	d1 e9		 shr	 ecx, 1
  00017	2b d1		 sub	 edx, ecx
  00019	3b d0		 cmp	 edx, eax
  0001b	73 04		 jae	 SHORT $LN4@Grow_to
  0001d	33 c0		 xor	 eax, eax
  0001f	eb 02		 jmp	 SHORT $LN5@Grow_to
$LN4@Grow_to:
  00021	03 c1		 add	 eax, ecx
$LN5@Grow_to:

; 1279 : 		if (_Capacity < _Count)

  00023	3b 45 08	 cmp	 eax, DWORD PTR __Count$[ebp]

; 1280 : 			_Capacity = _Count;

  00026	0f 42 45 08	 cmovb	 eax, DWORD PTR __Count$[ebp]

; 1281 : 		return (_Capacity);
; 1282 : 		}

  0002a	5d		 pop	 ebp
  0002b	c2 04 00	 ret	 4
?_Grow_to@?$vector@UExpandSlotItemInfo@ioMessageBox4@@V?$allocator@UExpandSlotItemInfo@ioMessageBox4@@@std@@@std@@IBEII@Z ENDP ; std::vector<ioMessageBox4::ExpandSlotItemInfo,std::allocator<ioMessageBox4::ExpandSlotItemInfo> >::_Grow_to
_TEXT	ENDS
PUBLIC	?allocate@?$allocator@UExpandSlotItemInfo@ioMessageBox4@@@std@@QAEPAUExpandSlotItemInfo@ioMessageBox4@@I@Z ; std::allocator<ioMessageBox4::ExpandSlotItemInfo>::allocate
; Function compile flags: /Ogsp
; File c:\program files (x86)\microsoft visual studio 10.0\vc\include\xmemory
;	COMDAT ?allocate@?$allocator@UExpandSlotItemInfo@ioMessageBox4@@@std@@QAEPAUExpandSlotItemInfo@ioMessageBox4@@I@Z
_TEXT	SEGMENT
__Count$ = 8						; size = 4
?allocate@?$allocator@UExpandSlotItemInfo@ioMessageBox4@@@std@@QAEPAUExpandSlotItemInfo@ioMessageBox4@@I@Z PROC ; std::allocator<ioMessageBox4::ExpandSlotItemInfo>::allocate, COMDAT
; _this$ = ecx

; 186  : 		{	// allocate array of _Count elements

  00000	55		 push	 ebp
  00001	8b ec		 mov	 ebp, esp

; 187  : 		return (_Allocate(_Count, (pointer)0));

  00003	6a 00		 push	 0
  00005	ff 75 08	 push	 DWORD PTR __Count$[ebp]
  00008	e8 00 00 00 00	 call	 ??$_Allocate@UExpandSlotItemInfo@ioMessageBox4@@@std@@YAPAUExpandSlotItemInfo@ioMessageBox4@@IPAU12@@Z ; std::_Allocate<ioMessageBox4::ExpandSlotItemInfo>
  0000d	59		 pop	 ecx
  0000e	59		 pop	 ecx

; 188  : 		}

  0000f	5d		 pop	 ebp
  00010	c2 04 00	 ret	 4
?allocate@?$allocator@UExpandSlotItemInfo@ioMessageBox4@@@std@@QAEPAUExpandSlotItemInfo@ioMessageBox4@@I@Z ENDP ; std::allocator<ioMessageBox4::ExpandSlotItemInfo>::allocate
_TEXT	ENDS
PUBLIC	??0?$_Vector_const_iterator@V?$_Vector_val@UExpandSlotItemInfo@ioMessageBox4@@V?$allocator@UExpandSlotItemInfo@ioMessageBox4@@@std@@@std@@@std@@QAE@PAUExpandSlotItemInfo@ioMessageBox4@@PBU_Container_base0@1@@Z ; std::_Vector_const_iterator<std::_Vector_val<ioMessageBox4::ExpandSlotItemInfo,std::allocator<ioMessageBox4::ExpandSlotItemInfo> > >::_Vector_const_iterator<std::_Vector_val<ioMessageBox4::ExpandSlotItemInfo,std::allocator<ioMessageBox4::ExpandSlotItemInfo> > >
; Function compile flags: /Ogsp
; File c:\program files (x86)\microsoft visual studio 10.0\vc\include\vector
;	COMDAT ??0?$_Vector_const_iterator@V?$_Vector_val@UExpandSlotItemInfo@ioMessageBox4@@V?$allocator@UExpandSlotItemInfo@ioMessageBox4@@@std@@@std@@@std@@QAE@PAUExpandSlotItemInfo@ioMessageBox4@@PBU_Container_base0@1@@Z
_TEXT	SEGMENT
__Parg$ = 8						; size = 4
__Pvector$ = 12						; size = 4
??0?$_Vector_const_iterator@V?$_Vector_val@UExpandSlotItemInfo@ioMessageBox4@@V?$allocator@UExpandSlotItemInfo@ioMessageBox4@@@std@@@std@@@std@@QAE@PAUExpandSlotItemInfo@ioMessageBox4@@PBU_Container_base0@1@@Z PROC ; std::_Vector_const_iterator<std::_Vector_val<ioMessageBox4::ExpandSlotItemInfo,std::allocator<ioMessageBox4::ExpandSlotItemInfo> > >::_Vector_const_iterator<std::_Vector_val<ioMessageBox4::ExpandSlotItemInfo,std::allocator<ioMessageBox4::ExpandSlotItemInfo> > >, COMDAT
; _this$ = ecx

; 45   : 		{	// construct with pointer _Parg

  00000	55		 push	 ebp
  00001	8b ec		 mov	 ebp, esp
  00003	8b c1		 mov	 eax, ecx
  00005	8b 4d 08	 mov	 ecx, DWORD PTR __Parg$[ebp]
  00008	89 08		 mov	 DWORD PTR [eax], ecx

; 46   : 		this->_Adopt(_Pvector);
; 47   : 		}

  0000a	5d		 pop	 ebp
  0000b	c2 08 00	 ret	 8
??0?$_Vector_const_iterator@V?$_Vector_val@UExpandSlotItemInfo@ioMessageBox4@@V?$allocator@UExpandSlotItemInfo@ioMessageBox4@@@std@@@std@@@std@@QAE@PAUExpandSlotItemInfo@ioMessageBox4@@PBU_Container_base0@1@@Z ENDP ; std::_Vector_const_iterator<std::_Vector_val<ioMessageBox4::ExpandSlotItemInfo,std::allocator<ioMessageBox4::ExpandSlotItemInfo> > >::_Vector_const_iterator<std::_Vector_val<ioMessageBox4::ExpandSlotItemInfo,std::allocator<ioMessageBox4::ExpandSlotItemInfo> > >
_TEXT	ENDS
PUBLIC	??8?$_Vector_const_iterator@V?$_Vector_val@UExpandSlotItemInfo@ioMessageBox4@@V?$allocator@UExpandSlotItemInfo@ioMessageBox4@@@std@@@std@@@std@@QBE_NABV01@@Z ; std::_Vector_const_iterator<std::_Vector_val<ioMessageBox4::ExpandSlotItemInfo,std::allocator<ioMessageBox4::ExpandSlotItemInfo> > >::operator==
; Function compile flags: /Ogsp
;	COMDAT ??8?$_Vector_const_iterator@V?$_Vector_val@UExpandSlotItemInfo@ioMessageBox4@@V?$allocator@UExpandSlotItemInfo@ioMessageBox4@@@std@@@std@@@std@@QBE_NABV01@@Z
_TEXT	SEGMENT
__Right$ = 8						; size = 4
??8?$_Vector_const_iterator@V?$_Vector_val@UExpandSlotItemInfo@ioMessageBox4@@V?$allocator@UExpandSlotItemInfo@ioMessageBox4@@@std@@@std@@@std@@QBE_NABV01@@Z PROC ; std::_Vector_const_iterator<std::_Vector_val<ioMessageBox4::ExpandSlotItemInfo,std::allocator<ioMessageBox4::ExpandSlotItemInfo> > >::operator==, COMDAT
; _this$ = ecx

; 201  : 		{	// test for iterator equality

  00000	55		 push	 ebp
  00001	8b ec		 mov	 ebp, esp

; 202  : 		_Compat(_Right);
; 203  : 		return (this->_Ptr == _Right._Ptr);

  00003	8b 01		 mov	 eax, DWORD PTR [ecx]
  00005	8b 4d 08	 mov	 ecx, DWORD PTR __Right$[ebp]
  00008	2b 01		 sub	 eax, DWORD PTR [ecx]
  0000a	f7 d8		 neg	 eax
  0000c	1b c0		 sbb	 eax, eax
  0000e	40		 inc	 eax

; 204  : 		}

  0000f	5d		 pop	 ebp
  00010	c2 04 00	 ret	 4
??8?$_Vector_const_iterator@V?$_Vector_val@UExpandSlotItemInfo@ioMessageBox4@@V?$allocator@UExpandSlotItemInfo@ioMessageBox4@@@std@@@std@@@std@@QBE_NABV01@@Z ENDP ; std::_Vector_const_iterator<std::_Vector_val<ioMessageBox4::ExpandSlotItemInfo,std::allocator<ioMessageBox4::ExpandSlotItemInfo> > >::operator==
_TEXT	ENDS
PUBLIC	__$ArrayPad$
PUBLIC	??$GetStringAttribute_e@$09@ioXMLElement@@QBEPBDAAY09$$CBD@Z ; ioXMLElement::GetStringAttribute_e<10>
EXTRN	__imp_?GetStringAttribute@ioXMLElement@@QBEPBDPBD@Z:PROC
; Function compile flags: /Ogsp
; File d:\lost saga for developer\youtube\tutorial\source\src\io3dengine\ioxmlelement.h
;	COMDAT ??$GetStringAttribute_e@$09@ioXMLElement@@QBEPBDAAY09$$CBD@Z
_TEXT	SEGMENT
__k$ = -20						; size = 10
__$ArrayPad$ = -4					; size = 4
_k$ = 8							; size = 4
??$GetStringAttribute_e@$09@ioXMLElement@@QBEPBDAAY09$$CBD@Z PROC ; ioXMLElement::GetStringAttribute_e<10>, COMDAT
; _this$ = ecx

; 107  : 	{

  00000	55		 push	 ebp
  00001	8b ec		 mov	 ebp, esp
  00003	83 ec 14	 sub	 esp, 20			; 00000014H
  00006	a1 00 00 00 00	 mov	 eax, DWORD PTR ___security_cookie
  0000b	33 c5		 xor	 eax, ebp
  0000d	89 45 fc	 mov	 DWORD PTR __$ArrayPad$[ebp], eax
  00010	8b 45 08	 mov	 eax, DWORD PTR _k$[ebp]

; 108  : 		_ENCSTR(k, _k);

  00013	8a 10		 mov	 dl, BYTE PTR [eax]
  00015	84 d2		 test	 dl, dl
  00017	0f 84 0d 01 00
	00		 je	 $LN96@GetStringA
  0001d	80 f2 ed	 xor	 dl, -19			; ffffffedH
  00020	88 55 ec	 mov	 BYTE PTR __k$[ebp], dl
  00023	8a 50 01	 mov	 dl, BYTE PTR [eax+1]
  00026	84 d2		 test	 dl, dl
  00028	0f 84 f6 00 00
	00		 je	 $LN95@GetStringA
  0002e	80 f2 ec	 xor	 dl, -20			; ffffffecH
  00031	88 55 ed	 mov	 BYTE PTR __k$[ebp+1], dl
  00034	8a 50 02	 mov	 dl, BYTE PTR [eax+2]
  00037	84 d2		 test	 dl, dl
  00039	0f 84 df 00 00
	00		 je	 $LN94@GetStringA
  0003f	80 f2 eb	 xor	 dl, -21			; ffffffebH
  00042	88 55 ee	 mov	 BYTE PTR __k$[ebp+2], dl
  00045	8a 50 03	 mov	 dl, BYTE PTR [eax+3]
  00048	84 d2		 test	 dl, dl
  0004a	0f 84 c8 00 00
	00		 je	 $LN93@GetStringA
  00050	80 f2 ea	 xor	 dl, -22			; ffffffeaH
  00053	88 55 ef	 mov	 BYTE PTR __k$[ebp+3], dl
  00056	8a 50 04	 mov	 dl, BYTE PTR [eax+4]
  00059	84 d2		 test	 dl, dl
  0005b	0f 84 b1 00 00
	00		 je	 $LN92@GetStringA
  00061	80 f2 ed	 xor	 dl, -19			; ffffffedH
  00064	88 55 f0	 mov	 BYTE PTR __k$[ebp+4], dl
  00067	8a 50 05	 mov	 dl, BYTE PTR [eax+5]
  0006a	84 d2		 test	 dl, dl
  0006c	0f 84 9a 00 00
	00		 je	 $LN91@GetStringA
  00072	80 f2 ec	 xor	 dl, -20			; ffffffecH
  00075	88 55 f1	 mov	 BYTE PTR __k$[ebp+5], dl
  00078	8a 50 06	 mov	 dl, BYTE PTR [eax+6]
  0007b	84 d2		 test	 dl, dl
  0007d	0f 84 83 00 00
	00		 je	 $LN90@GetStringA
  00083	80 f2 eb	 xor	 dl, -21			; ffffffebH
  00086	88 55 f2	 mov	 BYTE PTR __k$[ebp+6], dl
  00089	8a 50 07	 mov	 dl, BYTE PTR [eax+7]
  0008c	84 d2		 test	 dl, dl
  0008e	74 70		 je	 SHORT $LN89@GetStringA
  00090	80 f2 ea	 xor	 dl, -22			; ffffffeaH
  00093	88 55 f3	 mov	 BYTE PTR __k$[ebp+7], dl
  00096	8a 50 08	 mov	 dl, BYTE PTR [eax+8]
  00099	84 d2		 test	 dl, dl
  0009b	74 5d		 je	 SHORT $LN88@GetStringA
  0009d	80 f2 ed	 xor	 dl, -19			; ffffffedH
  000a0	80 78 09 00	 cmp	 BYTE PTR [eax+9], 0
  000a4	88 55 f4	 mov	 BYTE PTR __k$[ebp+8], dl
  000a7	0f 84 81 00 00
	00		 je	 $LN1@GetStringA
  000ad	8a 50 0a	 mov	 dl, BYTE PTR [eax+10]
  000b0	84 d2		 test	 dl, dl
  000b2	74 40		 je	 SHORT $LN86@GetStringA
  000b4	80 f2 eb	 xor	 dl, -21			; ffffffebH
  000b7	88 55 f6	 mov	 BYTE PTR __k$[ebp+10], dl
  000ba	8a 50 0b	 mov	 dl, BYTE PTR [eax+11]
  000bd	84 d2		 test	 dl, dl
  000bf	74 2d		 je	 SHORT $LN85@GetStringA
  000c1	80 f2 ea	 xor	 dl, -22			; ffffffeaH
  000c4	88 55 f7	 mov	 BYTE PTR __k$[ebp+11], dl
  000c7	8a 50 0c	 mov	 dl, BYTE PTR [eax+12]
  000ca	84 d2		 test	 dl, dl
  000cc	74 1a		 je	 SHORT $LN84@GetStringA
  000ce	8a 40 0d	 mov	 al, BYTE PTR [eax+13]
  000d1	80 f2 ed	 xor	 dl, -19			; ffffffedH
  000d4	88 55 f8	 mov	 BYTE PTR __k$[ebp+12], dl
  000d7	84 c0		 test	 al, al
  000d9	74 07		 je	 SHORT $LN83@GetStringA
  000db	34 ec		 xor	 al, -20			; ffffffecH
  000dd	88 45 f9	 mov	 BYTE PTR __k$[ebp+13], al
  000e0	eb 4c		 jmp	 SHORT $LN1@GetStringA
$LN83@GetStringA:
  000e2	c6 45 f9 ec	 mov	 BYTE PTR __k$[ebp+13], -20 ; ffffffecH
  000e6	eb 46		 jmp	 SHORT $LN1@GetStringA
$LN84@GetStringA:
  000e8	c6 45 f8 ed	 mov	 BYTE PTR __k$[ebp+12], -19 ; ffffffedH
  000ec	eb 40		 jmp	 SHORT $LN1@GetStringA
$LN85@GetStringA:
  000ee	c6 45 f7 ea	 mov	 BYTE PTR __k$[ebp+11], -22 ; ffffffeaH
  000f2	eb 3a		 jmp	 SHORT $LN1@GetStringA
$LN86@GetStringA:
  000f4	c6 45 f6 eb	 mov	 BYTE PTR __k$[ebp+10], -21 ; ffffffebH
  000f8	eb 34		 jmp	 SHORT $LN1@GetStringA
$LN88@GetStringA:
  000fa	c6 45 f4 ed	 mov	 BYTE PTR __k$[ebp+8], -19 ; ffffffedH
  000fe	eb 2e		 jmp	 SHORT $LN1@GetStringA
$LN89@GetStringA:
  00100	c6 45 f3 ea	 mov	 BYTE PTR __k$[ebp+7], -22 ; ffffffeaH
  00104	eb 28		 jmp	 SHORT $LN1@GetStringA
$LN90@GetStringA:
  00106	c6 45 f2 eb	 mov	 BYTE PTR __k$[ebp+6], -21 ; ffffffebH
  0010a	eb 22		 jmp	 SHORT $LN1@GetStringA
$LN91@GetStringA:
  0010c	c6 45 f1 ec	 mov	 BYTE PTR __k$[ebp+5], -20 ; ffffffecH
  00110	eb 1c		 jmp	 SHORT $LN1@GetStringA
$LN92@GetStringA:
  00112	c6 45 f0 ed	 mov	 BYTE PTR __k$[ebp+4], -19 ; ffffffedH
  00116	eb 16		 jmp	 SHORT $LN1@GetStringA
$LN93@GetStringA:
  00118	c6 45 ef ea	 mov	 BYTE PTR __k$[ebp+3], -22 ; ffffffeaH
  0011c	eb 10		 jmp	 SHORT $LN1@GetStringA
$LN94@GetStringA:
  0011e	c6 45 ee eb	 mov	 BYTE PTR __k$[ebp+2], -21 ; ffffffebH
  00122	eb 0a		 jmp	 SHORT $LN1@GetStringA
$LN95@GetStringA:
  00124	c6 45 ed ec	 mov	 BYTE PTR __k$[ebp+1], -20 ; ffffffecH
  00128	eb 04		 jmp	 SHORT $LN1@GetStringA
$LN96@GetStringA:
  0012a	c6 45 ec ed	 mov	 BYTE PTR __k$[ebp], -19	; ffffffedH
$LN1@GetStringA:
  0012e	6a 02		 push	 2
  00130	8d 45 ec	 lea	 eax, DWORD PTR __k$[ebp]
  00133	c6 45 f5 00	 mov	 BYTE PTR __k$[ebp+9], 0
  00137	5a		 pop	 edx
$LL104@GetStringA:
  00138	81 30 ed ec eb
	ea		 xor	 DWORD PTR [eax], -353637139 ; eaebecedH
  0013e	83 c0 04	 add	 eax, 4
  00141	4a		 dec	 edx
  00142	75 f4		 jne	 SHORT $LL104@GetStringA
  00144	80 75 f4 ed	 xor	 BYTE PTR __k$[ebp+8], -19 ; ffffffedH

; 109  : 		return GetStringAttribute(_k);

  00148	8d 45 ec	 lea	 eax, DWORD PTR __k$[ebp]
  0014b	50		 push	 eax
  0014c	ff 15 00 00 00
	00		 call	 DWORD PTR __imp_?GetStringAttribute@ioXMLElement@@QBEPBDPBD@Z

; 110  : 	}

  00152	8b 4d fc	 mov	 ecx, DWORD PTR __$ArrayPad$[ebp]
  00155	33 cd		 xor	 ecx, ebp
  00157	e8 00 00 00 00	 call	 @__security_check_cookie@4
  0015c	c9		 leave
  0015d	c2 04 00	 ret	 4
??$GetStringAttribute_e@$09@ioXMLElement@@QBEPBDAAY09$$CBD@Z ENDP ; ioXMLElement::GetStringAttribute_e<10>
_TEXT	ENDS
PUBLIC	__$ArrayPad$
PUBLIC	??$?8$0P@@@YA_NABVioHashString@@AAY0P@$$CBD@Z	; operator==<15>
; Function compile flags: /Ogsp
; File d:\lost saga for developer\youtube\tutorial\source\src\io3dengine\iohashstring.h
;	COMDAT ??$?8$0P@@@YA_NABVioHashString@@AAY0P@$$CBD@Z
_TEXT	SEGMENT
__t$ = -24						; size = 15
__$ArrayPad$ = -4					; size = 4
_lhs$ = 8						; size = 4
_t$ = 12						; size = 4
??$?8$0P@@@YA_NABVioHashString@@AAY0P@$$CBD@Z PROC	; operator==<15>, COMDAT

; 146  : {

  00000	55		 push	 ebp
  00001	8b ec		 mov	 ebp, esp
  00003	83 ec 18	 sub	 esp, 24			; 00000018H
  00006	a1 00 00 00 00	 mov	 eax, DWORD PTR ___security_cookie
  0000b	33 c5		 xor	 eax, ebp
  0000d	89 45 fc	 mov	 DWORD PTR __$ArrayPad$[ebp], eax
  00010	8b 45 0c	 mov	 eax, DWORD PTR _t$[ebp]

; 147  : 	_ENCSTR(t, _t); return ( strcmp( lhs.c_str(), _t ) == 0 );

  00013	8a 10		 mov	 dl, BYTE PTR [eax]
  00015	56		 push	 esi
  00016	57		 push	 edi
  00017	8b 7d 08	 mov	 edi, DWORD PTR _lhs$[ebp]
  0001a	84 d2		 test	 dl, dl
  0001c	0f 84 75 01 00
	00		 je	 $LN96@operator
  00022	80 f2 ed	 xor	 dl, -19			; ffffffedH
  00025	88 55 e8	 mov	 BYTE PTR __t$[ebp], dl
  00028	8a 50 01	 mov	 dl, BYTE PTR [eax+1]
  0002b	84 d2		 test	 dl, dl
  0002d	0f 84 5e 01 00
	00		 je	 $LN95@operator
  00033	b1 ec		 mov	 cl, -20			; ffffffecH
  00035	32 d1		 xor	 dl, cl
  00037	88 55 e9	 mov	 BYTE PTR __t$[ebp+1], dl
  0003a	8a 50 02	 mov	 dl, BYTE PTR [eax+2]
  0003d	84 d2		 test	 dl, dl
  0003f	0f 84 46 01 00
	00		 je	 $LN94@operator
  00045	80 f2 eb	 xor	 dl, -21			; ffffffebH
  00048	88 55 ea	 mov	 BYTE PTR __t$[ebp+2], dl
  0004b	8a 50 03	 mov	 dl, BYTE PTR [eax+3]
  0004e	84 d2		 test	 dl, dl
  00050	0f 84 2f 01 00
	00		 je	 $LN93@operator
  00056	80 f2 ea	 xor	 dl, -22			; ffffffeaH
  00059	88 55 eb	 mov	 BYTE PTR __t$[ebp+3], dl
  0005c	8a 50 04	 mov	 dl, BYTE PTR [eax+4]
  0005f	84 d2		 test	 dl, dl
  00061	0f 84 18 01 00
	00		 je	 $LN92@operator
  00067	80 f2 ed	 xor	 dl, -19			; ffffffedH
  0006a	88 55 ec	 mov	 BYTE PTR __t$[ebp+4], dl
  0006d	8a 50 05	 mov	 dl, BYTE PTR [eax+5]
  00070	84 d2		 test	 dl, dl
  00072	0f 84 02 01 00
	00		 je	 $LN91@operator
  00078	32 d1		 xor	 dl, cl
  0007a	88 55 ed	 mov	 BYTE PTR __t$[ebp+5], dl
  0007d	8a 50 06	 mov	 dl, BYTE PTR [eax+6]
  00080	84 d2		 test	 dl, dl
  00082	0f 84 ec 00 00
	00		 je	 $LN90@operator
  00088	80 f2 eb	 xor	 dl, -21			; ffffffebH
  0008b	88 55 ee	 mov	 BYTE PTR __t$[ebp+6], dl
  0008e	8a 50 07	 mov	 dl, BYTE PTR [eax+7]
  00091	84 d2		 test	 dl, dl
  00093	0f 84 d5 00 00
	00		 je	 $LN89@operator
  00099	80 f2 ea	 xor	 dl, -22			; ffffffeaH
  0009c	88 55 ef	 mov	 BYTE PTR __t$[ebp+7], dl
  0009f	8a 50 08	 mov	 dl, BYTE PTR [eax+8]
  000a2	84 d2		 test	 dl, dl
  000a4	0f 84 be 00 00
	00		 je	 $LN88@operator
  000aa	80 f2 ed	 xor	 dl, -19			; ffffffedH
  000ad	88 55 f0	 mov	 BYTE PTR __t$[ebp+8], dl
  000b0	8a 50 09	 mov	 dl, BYTE PTR [eax+9]
  000b3	84 d2		 test	 dl, dl
  000b5	0f 84 a8 00 00
	00		 je	 $LN87@operator
  000bb	32 d1		 xor	 dl, cl
  000bd	88 55 f1	 mov	 BYTE PTR __t$[ebp+9], dl
  000c0	8a 50 0a	 mov	 dl, BYTE PTR [eax+10]
  000c3	84 d2		 test	 dl, dl
  000c5	0f 84 92 00 00
	00		 je	 $LN86@operator
  000cb	80 f2 eb	 xor	 dl, -21			; ffffffebH
  000ce	88 55 f2	 mov	 BYTE PTR __t$[ebp+10], dl
  000d1	8a 50 0b	 mov	 dl, BYTE PTR [eax+11]
  000d4	84 d2		 test	 dl, dl
  000d6	74 7f		 je	 SHORT $LN85@operator
  000d8	80 f2 ea	 xor	 dl, -22			; ffffffeaH
  000db	88 55 f3	 mov	 BYTE PTR __t$[ebp+11], dl
  000de	8a 50 0c	 mov	 dl, BYTE PTR [eax+12]
  000e1	84 d2		 test	 dl, dl
  000e3	74 6c		 je	 SHORT $LN84@operator
  000e5	80 f2 ed	 xor	 dl, -19			; ffffffedH
  000e8	88 55 f4	 mov	 BYTE PTR __t$[ebp+12], dl
  000eb	8a 50 0d	 mov	 dl, BYTE PTR [eax+13]
  000ee	84 d2		 test	 dl, dl
  000f0	74 5a		 je	 SHORT $LN83@operator
  000f2	32 d1		 xor	 dl, cl
  000f4	80 78 0e 00	 cmp	 BYTE PTR [eax+14], 0
  000f8	88 55 f5	 mov	 BYTE PTR __t$[ebp+13], dl
  000fb	0f 84 9a 00 00
	00		 je	 $LN1@operator
  00101	8a 50 0f	 mov	 dl, BYTE PTR [eax+15]
  00104	84 d2		 test	 dl, dl
  00106	74 3e		 je	 SHORT $LN81@operator
  00108	80 f2 ea	 xor	 dl, -22			; ffffffeaH
  0010b	88 55 f7	 mov	 BYTE PTR __t$[ebp+15], dl
  0010e	8a 50 10	 mov	 dl, BYTE PTR [eax+16]
  00111	84 d2		 test	 dl, dl
  00113	74 2b		 je	 SHORT $LN80@operator
  00115	80 f2 ed	 xor	 dl, -19			; ffffffedH
  00118	88 55 f8	 mov	 BYTE PTR __t$[ebp+16], dl
  0011b	8a 50 11	 mov	 dl, BYTE PTR [eax+17]
  0011e	84 d2		 test	 dl, dl
  00120	74 19		 je	 SHORT $LN79@operator
  00122	8a 40 12	 mov	 al, BYTE PTR [eax+18]
  00125	32 d1		 xor	 dl, cl
  00127	88 55 f9	 mov	 BYTE PTR __t$[ebp+17], dl
  0012a	84 c0		 test	 al, al
  0012c	74 07		 je	 SHORT $LN78@operator
  0012e	34 eb		 xor	 al, -21			; ffffffebH
  00130	88 45 fa	 mov	 BYTE PTR __t$[ebp+18], al
  00133	eb 66		 jmp	 SHORT $LN1@operator
$LN78@operator:
  00135	c6 45 fa eb	 mov	 BYTE PTR __t$[ebp+18], -21 ; ffffffebH
  00139	eb 60		 jmp	 SHORT $LN1@operator
$LN79@operator:
  0013b	88 4d f9	 mov	 BYTE PTR __t$[ebp+17], cl
  0013e	eb 5b		 jmp	 SHORT $LN1@operator
$LN80@operator:
  00140	c6 45 f8 ed	 mov	 BYTE PTR __t$[ebp+16], -19 ; ffffffedH
  00144	eb 55		 jmp	 SHORT $LN1@operator
$LN81@operator:
  00146	c6 45 f7 ea	 mov	 BYTE PTR __t$[ebp+15], -22 ; ffffffeaH
  0014a	eb 4f		 jmp	 SHORT $LN1@operator
$LN83@operator:
  0014c	88 4d f5	 mov	 BYTE PTR __t$[ebp+13], cl
  0014f	eb 4a		 jmp	 SHORT $LN1@operator
$LN84@operator:
  00151	c6 45 f4 ed	 mov	 BYTE PTR __t$[ebp+12], -19 ; ffffffedH
  00155	eb 44		 jmp	 SHORT $LN1@operator
$LN85@operator:
  00157	c6 45 f3 ea	 mov	 BYTE PTR __t$[ebp+11], -22 ; ffffffeaH
  0015b	eb 3e		 jmp	 SHORT $LN1@operator
$LN86@operator:
  0015d	c6 45 f2 eb	 mov	 BYTE PTR __t$[ebp+10], -21 ; ffffffebH
  00161	eb 38		 jmp	 SHORT $LN1@operator
$LN87@operator:
  00163	88 4d f1	 mov	 BYTE PTR __t$[ebp+9], cl
  00166	eb 33		 jmp	 SHORT $LN1@operator
$LN88@operator:
  00168	c6 45 f0 ed	 mov	 BYTE PTR __t$[ebp+8], -19 ; ffffffedH
  0016c	eb 2d		 jmp	 SHORT $LN1@operator
$LN89@operator:
  0016e	c6 45 ef ea	 mov	 BYTE PTR __t$[ebp+7], -22 ; ffffffeaH
  00172	eb 27		 jmp	 SHORT $LN1@operator
$LN90@operator:
  00174	c6 45 ee eb	 mov	 BYTE PTR __t$[ebp+6], -21 ; ffffffebH
  00178	eb 21		 jmp	 SHORT $LN1@operator
$LN91@operator:
  0017a	88 4d ed	 mov	 BYTE PTR __t$[ebp+5], cl
  0017d	eb 1c		 jmp	 SHORT $LN1@operator
$LN92@operator:
  0017f	c6 45 ec ed	 mov	 BYTE PTR __t$[ebp+4], -19 ; ffffffedH
  00183	eb 16		 jmp	 SHORT $LN1@operator
$LN93@operator:
  00185	c6 45 eb ea	 mov	 BYTE PTR __t$[ebp+3], -22 ; ffffffeaH
  00189	eb 10		 jmp	 SHORT $LN1@operator
$LN94@operator:
  0018b	c6 45 ea eb	 mov	 BYTE PTR __t$[ebp+2], -21 ; ffffffebH
  0018f	eb 0a		 jmp	 SHORT $LN1@operator
$LN95@operator:
  00191	c6 45 e9 ec	 mov	 BYTE PTR __t$[ebp+1], -20 ; ffffffecH
  00195	eb 04		 jmp	 SHORT $LN1@operator
$LN96@operator:
  00197	c6 45 e8 ed	 mov	 BYTE PTR __t$[ebp], -19	; ffffffedH
$LN1@operator:
  0019b	6a 03		 push	 3
  0019d	8d 45 e8	 lea	 eax, DWORD PTR __t$[ebp]
  001a0	c6 45 f6 00	 mov	 BYTE PTR __t$[ebp+14], 0
  001a4	5a		 pop	 edx
$LL104@operator:
  001a5	81 30 ed ec eb
	ea		 xor	 DWORD PTR [eax], -353637139 ; eaebecedH
  001ab	83 c0 04	 add	 eax, 4
  001ae	4a		 dec	 edx
  001af	75 f4		 jne	 SHORT $LL104@operator
  001b1	6a 0c		 push	 12			; 0000000cH
  001b3	58		 pop	 eax
$LL101@operator:
  001b4	8b c8		 mov	 ecx, eax
  001b6	81 e1 03 00 00
	80		 and	 ecx, -2147483645	; 80000003H
  001bc	79 05		 jns	 SHORT $LN115@operator
  001be	49		 dec	 ecx
  001bf	83 c9 fc	 or	 ecx, -4			; fffffffcH
  001c2	41		 inc	 ecx
$LN115@operator:
  001c3	b2 ed		 mov	 dl, -19			; ffffffedH
  001c5	2a d1		 sub	 dl, cl
  001c7	30 54 05 e8	 xor	 BYTE PTR __t$[ebp+eax], dl
  001cb	40		 inc	 eax
  001cc	83 f8 0e	 cmp	 eax, 14			; 0000000eH
  001cf	7c e3		 jl	 SHORT $LL101@operator
  001d1	8b cf		 mov	 ecx, edi
  001d3	8d 75 e8	 lea	 esi, DWORD PTR __t$[ebp]
  001d6	ff 15 00 00 00
	00		 call	 DWORD PTR __imp_?c_str@ioHashString@@QBEPBDXZ
$LL111@operator:
  001dc	8a 08		 mov	 cl, BYTE PTR [eax]
  001de	3a 0e		 cmp	 cl, BYTE PTR [esi]
  001e0	75 1a		 jne	 SHORT $LN112@operator
  001e2	84 c9		 test	 cl, cl
  001e4	74 12		 je	 SHORT $LN113@operator
  001e6	8a 48 01	 mov	 cl, BYTE PTR [eax+1]
  001e9	3a 4e 01	 cmp	 cl, BYTE PTR [esi+1]
  001ec	75 0e		 jne	 SHORT $LN112@operator
  001ee	83 c0 02	 add	 eax, 2
  001f1	83 c6 02	 add	 esi, 2
  001f4	84 c9		 test	 cl, cl
  001f6	75 e4		 jne	 SHORT $LL111@operator
$LN113@operator:
  001f8	33 c0		 xor	 eax, eax
  001fa	eb 05		 jmp	 SHORT $LN114@operator
$LN112@operator:
  001fc	1b c0		 sbb	 eax, eax
  001fe	83 d8 ff	 sbb	 eax, -1
$LN114@operator:
  00201	33 c9		 xor	 ecx, ecx
  00203	85 c0		 test	 eax, eax
  00205	0f 94 c0	 sete	 al

; 148  : }

  00208	8b 4d fc	 mov	 ecx, DWORD PTR __$ArrayPad$[ebp]
  0020b	5f		 pop	 edi
  0020c	33 cd		 xor	 ecx, ebp
  0020e	5e		 pop	 esi
  0020f	e8 00 00 00 00	 call	 @__security_check_cookie@4
  00214	c9		 leave
  00215	c3		 ret	 0
??$?8$0P@@@YA_NABVioHashString@@AAY0P@$$CBD@Z ENDP	; operator==<15>
_TEXT	ENDS
PUBLIC	__$ArrayPad$
PUBLIC	??$?8$0BA@@@YA_NABVioHashString@@AAY0BA@$$CBD@Z	; operator==<16>
; Function compile flags: /Ogsp
;	COMDAT ??$?8$0BA@@@YA_NABVioHashString@@AAY0BA@$$CBD@Z
_TEXT	SEGMENT
__t$ = -24						; size = 16
__$ArrayPad$ = -4					; size = 4
_lhs$ = 8						; size = 4
_t$ = 12						; size = 4
??$?8$0BA@@@YA_NABVioHashString@@AAY0BA@$$CBD@Z PROC	; operator==<16>, COMDAT

; 146  : {

  00000	55		 push	 ebp
  00001	8b ec		 mov	 ebp, esp
  00003	83 ec 18	 sub	 esp, 24			; 00000018H
  00006	a1 00 00 00 00	 mov	 eax, DWORD PTR ___security_cookie
  0000b	33 c5		 xor	 eax, ebp
  0000d	89 45 fc	 mov	 DWORD PTR __$ArrayPad$[ebp], eax
  00010	8b 45 0c	 mov	 eax, DWORD PTR _t$[ebp]

; 147  : 	_ENCSTR(t, _t); return ( strcmp( lhs.c_str(), _t ) == 0 );

  00013	8a 10		 mov	 dl, BYTE PTR [eax]
  00015	56		 push	 esi
  00016	57		 push	 edi
  00017	8b 7d 08	 mov	 edi, DWORD PTR _lhs$[ebp]
  0001a	84 d2		 test	 dl, dl
  0001c	0f 84 8c 01 00
	00		 je	 $LN96@operator@2
  00022	80 f2 ed	 xor	 dl, -19			; ffffffedH
  00025	88 55 e8	 mov	 BYTE PTR __t$[ebp], dl
  00028	8a 50 01	 mov	 dl, BYTE PTR [eax+1]
  0002b	84 d2		 test	 dl, dl
  0002d	0f 84 75 01 00
	00		 je	 $LN95@operator@2
  00033	80 f2 ec	 xor	 dl, -20			; ffffffecH
  00036	88 55 e9	 mov	 BYTE PTR __t$[ebp+1], dl
  00039	8a 50 02	 mov	 dl, BYTE PTR [eax+2]
  0003c	84 d2		 test	 dl, dl
  0003e	0f 84 5e 01 00
	00		 je	 $LN94@operator@2
  00044	b1 eb		 mov	 cl, -21			; ffffffebH
  00046	32 d1		 xor	 dl, cl
  00048	88 55 ea	 mov	 BYTE PTR __t$[ebp+2], dl
  0004b	8a 50 03	 mov	 dl, BYTE PTR [eax+3]
  0004e	84 d2		 test	 dl, dl
  00050	0f 84 46 01 00
	00		 je	 $LN93@operator@2
  00056	80 f2 ea	 xor	 dl, -22			; ffffffeaH
  00059	88 55 eb	 mov	 BYTE PTR __t$[ebp+3], dl
  0005c	8a 50 04	 mov	 dl, BYTE PTR [eax+4]
  0005f	84 d2		 test	 dl, dl
  00061	0f 84 2f 01 00
	00		 je	 $LN92@operator@2
  00067	80 f2 ed	 xor	 dl, -19			; ffffffedH
  0006a	88 55 ec	 mov	 BYTE PTR __t$[ebp+4], dl
  0006d	8a 50 05	 mov	 dl, BYTE PTR [eax+5]
  00070	84 d2		 test	 dl, dl
  00072	0f 84 18 01 00
	00		 je	 $LN91@operator@2
  00078	80 f2 ec	 xor	 dl, -20			; ffffffecH
  0007b	88 55 ed	 mov	 BYTE PTR __t$[ebp+5], dl
  0007e	8a 50 06	 mov	 dl, BYTE PTR [eax+6]
  00081	84 d2		 test	 dl, dl
  00083	0f 84 02 01 00
	00		 je	 $LN90@operator@2
  00089	32 d1		 xor	 dl, cl
  0008b	88 55 ee	 mov	 BYTE PTR __t$[ebp+6], dl
  0008e	8a 50 07	 mov	 dl, BYTE PTR [eax+7]
  00091	84 d2		 test	 dl, dl
  00093	0f 84 ec 00 00
	00		 je	 $LN89@operator@2
  00099	80 f2 ea	 xor	 dl, -22			; ffffffeaH
  0009c	88 55 ef	 mov	 BYTE PTR __t$[ebp+7], dl
  0009f	8a 50 08	 mov	 dl, BYTE PTR [eax+8]
  000a2	84 d2		 test	 dl, dl
  000a4	0f 84 d5 00 00
	00		 je	 $LN88@operator@2
  000aa	80 f2 ed	 xor	 dl, -19			; ffffffedH
  000ad	88 55 f0	 mov	 BYTE PTR __t$[ebp+8], dl
  000b0	8a 50 09	 mov	 dl, BYTE PTR [eax+9]
  000b3	84 d2		 test	 dl, dl
  000b5	0f 84 be 00 00
	00		 je	 $LN87@operator@2
  000bb	80 f2 ec	 xor	 dl, -20			; ffffffecH
  000be	88 55 f1	 mov	 BYTE PTR __t$[ebp+9], dl
  000c1	8a 50 0a	 mov	 dl, BYTE PTR [eax+10]
  000c4	84 d2		 test	 dl, dl
  000c6	0f 84 a8 00 00
	00		 je	 $LN86@operator@2
  000cc	32 d1		 xor	 dl, cl
  000ce	88 55 f2	 mov	 BYTE PTR __t$[ebp+10], dl
  000d1	8a 50 0b	 mov	 dl, BYTE PTR [eax+11]
  000d4	84 d2		 test	 dl, dl
  000d6	0f 84 92 00 00
	00		 je	 $LN85@operator@2
  000dc	80 f2 ea	 xor	 dl, -22			; ffffffeaH
  000df	88 55 f3	 mov	 BYTE PTR __t$[ebp+11], dl
  000e2	8a 50 0c	 mov	 dl, BYTE PTR [eax+12]
  000e5	84 d2		 test	 dl, dl
  000e7	74 7f		 je	 SHORT $LN84@operator@2
  000e9	80 f2 ed	 xor	 dl, -19			; ffffffedH
  000ec	88 55 f4	 mov	 BYTE PTR __t$[ebp+12], dl
  000ef	8a 50 0d	 mov	 dl, BYTE PTR [eax+13]
  000f2	84 d2		 test	 dl, dl
  000f4	74 6c		 je	 SHORT $LN83@operator@2
  000f6	80 f2 ec	 xor	 dl, -20			; ffffffecH
  000f9	88 55 f5	 mov	 BYTE PTR __t$[ebp+13], dl
  000fc	8a 50 0e	 mov	 dl, BYTE PTR [eax+14]
  000ff	84 d2		 test	 dl, dl
  00101	74 5a		 je	 SHORT $LN82@operator@2
  00103	32 d1		 xor	 dl, cl
  00105	80 78 0f 00	 cmp	 BYTE PTR [eax+15], 0
  00109	88 55 f6	 mov	 BYTE PTR __t$[ebp+14], dl
  0010c	0f 84 a0 00 00
	00		 je	 $LN1@operator@2
  00112	8a 50 10	 mov	 dl, BYTE PTR [eax+16]
  00115	84 d2		 test	 dl, dl
  00117	74 3e		 je	 SHORT $LN80@operator@2
  00119	80 f2 ed	 xor	 dl, -19			; ffffffedH
  0011c	88 55 f8	 mov	 BYTE PTR __t$[ebp+16], dl
  0011f	8a 50 11	 mov	 dl, BYTE PTR [eax+17]
  00122	84 d2		 test	 dl, dl
  00124	74 2b		 je	 SHORT $LN79@operator@2
  00126	80 f2 ec	 xor	 dl, -20			; ffffffecH
  00129	88 55 f9	 mov	 BYTE PTR __t$[ebp+17], dl
  0012c	8a 50 12	 mov	 dl, BYTE PTR [eax+18]
  0012f	84 d2		 test	 dl, dl
  00131	74 19		 je	 SHORT $LN78@operator@2
  00133	8a 40 13	 mov	 al, BYTE PTR [eax+19]
  00136	32 d1		 xor	 dl, cl
  00138	88 55 fa	 mov	 BYTE PTR __t$[ebp+18], dl
  0013b	84 c0		 test	 al, al
  0013d	74 07		 je	 SHORT $LN77@operator@2
  0013f	34 ea		 xor	 al, -22			; ffffffeaH
  00141	88 45 fb	 mov	 BYTE PTR __t$[ebp+19], al
  00144	eb 6c		 jmp	 SHORT $LN1@operator@2
$LN77@operator@2:
  00146	c6 45 fb ea	 mov	 BYTE PTR __t$[ebp+19], -22 ; ffffffeaH
  0014a	eb 66		 jmp	 SHORT $LN1@operator@2
$LN78@operator@2:
  0014c	88 4d fa	 mov	 BYTE PTR __t$[ebp+18], cl
  0014f	eb 61		 jmp	 SHORT $LN1@operator@2
$LN79@operator@2:
  00151	c6 45 f9 ec	 mov	 BYTE PTR __t$[ebp+17], -20 ; ffffffecH
  00155	eb 5b		 jmp	 SHORT $LN1@operator@2
$LN80@operator@2:
  00157	c6 45 f8 ed	 mov	 BYTE PTR __t$[ebp+16], -19 ; ffffffedH
  0015b	eb 55		 jmp	 SHORT $LN1@operator@2
$LN82@operator@2:
  0015d	88 4d f6	 mov	 BYTE PTR __t$[ebp+14], cl
  00160	eb 50		 jmp	 SHORT $LN1@operator@2
$LN83@operator@2:
  00162	c6 45 f5 ec	 mov	 BYTE PTR __t$[ebp+13], -20 ; ffffffecH
  00166	eb 4a		 jmp	 SHORT $LN1@operator@2
$LN84@operator@2:
  00168	c6 45 f4 ed	 mov	 BYTE PTR __t$[ebp+12], -19 ; ffffffedH
  0016c	eb 44		 jmp	 SHORT $LN1@operator@2
$LN85@operator@2:
  0016e	c6 45 f3 ea	 mov	 BYTE PTR __t$[ebp+11], -22 ; ffffffeaH
  00172	eb 3e		 jmp	 SHORT $LN1@operator@2
$LN86@operator@2:
  00174	88 4d f2	 mov	 BYTE PTR __t$[ebp+10], cl
  00177	eb 39		 jmp	 SHORT $LN1@operator@2
$LN87@operator@2:
  00179	c6 45 f1 ec	 mov	 BYTE PTR __t$[ebp+9], -20 ; ffffffecH
  0017d	eb 33		 jmp	 SHORT $LN1@operator@2
$LN88@operator@2:
  0017f	c6 45 f0 ed	 mov	 BYTE PTR __t$[ebp+8], -19 ; ffffffedH
  00183	eb 2d		 jmp	 SHORT $LN1@operator@2
$LN89@operator@2:
  00185	c6 45 ef ea	 mov	 BYTE PTR __t$[ebp+7], -22 ; ffffffeaH
  00189	eb 27		 jmp	 SHORT $LN1@operator@2
$LN90@operator@2:
  0018b	88 4d ee	 mov	 BYTE PTR __t$[ebp+6], cl
  0018e	eb 22		 jmp	 SHORT $LN1@operator@2
$LN91@operator@2:
  00190	c6 45 ed ec	 mov	 BYTE PTR __t$[ebp+5], -20 ; ffffffecH
  00194	eb 1c		 jmp	 SHORT $LN1@operator@2
$LN92@operator@2:
  00196	c6 45 ec ed	 mov	 BYTE PTR __t$[ebp+4], -19 ; ffffffedH
  0019a	eb 16		 jmp	 SHORT $LN1@operator@2
$LN93@operator@2:
  0019c	c6 45 eb ea	 mov	 BYTE PTR __t$[ebp+3], -22 ; ffffffeaH
  001a0	eb 10		 jmp	 SHORT $LN1@operator@2
$LN94@operator@2:
  001a2	c6 45 ea eb	 mov	 BYTE PTR __t$[ebp+2], -21 ; ffffffebH
  001a6	eb 0a		 jmp	 SHORT $LN1@operator@2
$LN95@operator@2:
  001a8	c6 45 e9 ec	 mov	 BYTE PTR __t$[ebp+1], -20 ; ffffffecH
  001ac	eb 04		 jmp	 SHORT $LN1@operator@2
$LN96@operator@2:
  001ae	c6 45 e8 ed	 mov	 BYTE PTR __t$[ebp], -19	; ffffffedH
$LN1@operator@2:
  001b2	6a 03		 push	 3
  001b4	8d 45 e8	 lea	 eax, DWORD PTR __t$[ebp]
  001b7	c6 45 f7 00	 mov	 BYTE PTR __t$[ebp+15], 0
  001bb	5a		 pop	 edx
$LL104@operator@2:
  001bc	81 30 ed ec eb
	ea		 xor	 DWORD PTR [eax], -353637139 ; eaebecedH
  001c2	83 c0 04	 add	 eax, 4
  001c5	4a		 dec	 edx
  001c6	75 f4		 jne	 SHORT $LL104@operator@2
  001c8	6a 0c		 push	 12			; 0000000cH
  001ca	58		 pop	 eax
$LL101@operator@2:
  001cb	8b c8		 mov	 ecx, eax
  001cd	81 e1 03 00 00
	80		 and	 ecx, -2147483645	; 80000003H
  001d3	79 05		 jns	 SHORT $LN115@operator@2
  001d5	49		 dec	 ecx
  001d6	83 c9 fc	 or	 ecx, -4			; fffffffcH
  001d9	41		 inc	 ecx
$LN115@operator@2:
  001da	b2 ed		 mov	 dl, -19			; ffffffedH
  001dc	2a d1		 sub	 dl, cl
  001de	30 54 05 e8	 xor	 BYTE PTR __t$[ebp+eax], dl
  001e2	40		 inc	 eax
  001e3	83 f8 0f	 cmp	 eax, 15			; 0000000fH
  001e6	7c e3		 jl	 SHORT $LL101@operator@2
  001e8	8b cf		 mov	 ecx, edi
  001ea	8d 75 e8	 lea	 esi, DWORD PTR __t$[ebp]
  001ed	ff 15 00 00 00
	00		 call	 DWORD PTR __imp_?c_str@ioHashString@@QBEPBDXZ
$LL111@operator@2:
  001f3	8a 08		 mov	 cl, BYTE PTR [eax]
  001f5	3a 0e		 cmp	 cl, BYTE PTR [esi]
  001f7	75 1a		 jne	 SHORT $LN112@operator@2
  001f9	84 c9		 test	 cl, cl
  001fb	74 12		 je	 SHORT $LN113@operator@2
  001fd	8a 48 01	 mov	 cl, BYTE PTR [eax+1]
  00200	3a 4e 01	 cmp	 cl, BYTE PTR [esi+1]
  00203	75 0e		 jne	 SHORT $LN112@operator@2
  00205	83 c0 02	 add	 eax, 2
  00208	83 c6 02	 add	 esi, 2
  0020b	84 c9		 test	 cl, cl
  0020d	75 e4		 jne	 SHORT $LL111@operator@2
$LN113@operator@2:
  0020f	33 c0		 xor	 eax, eax
  00211	eb 05		 jmp	 SHORT $LN114@operator@2
$LN112@operator@2:
  00213	1b c0		 sbb	 eax, eax
  00215	83 d8 ff	 sbb	 eax, -1
$LN114@operator@2:
  00218	33 c9		 xor	 ecx, ecx
  0021a	85 c0		 test	 eax, eax
  0021c	0f 94 c0	 sete	 al

; 148  : }

  0021f	8b 4d fc	 mov	 ecx, DWORD PTR __$ArrayPad$[ebp]
  00222	5f		 pop	 edi
  00223	33 cd		 xor	 ecx, ebp
  00225	5e		 pop	 esi
  00226	e8 00 00 00 00	 call	 @__security_check_cookie@4
  0022b	c9		 leave
  0022c	c3		 ret	 0
??$?8$0BA@@@YA_NABVioHashString@@AAY0BA@$$CBD@Z ENDP	; operator==<16>
_TEXT	ENDS
PUBLIC	__$ArrayPad$
PUBLIC	??$?8$0O@@@YA_NABVioHashString@@AAY0O@$$CBD@Z	; operator==<14>
; Function compile flags: /Ogsp
;	COMDAT ??$?8$0O@@@YA_NABVioHashString@@AAY0O@$$CBD@Z
_TEXT	SEGMENT
__t$ = -24						; size = 14
__$ArrayPad$ = -4					; size = 4
_lhs$ = 8						; size = 4
_t$ = 12						; size = 4
??$?8$0O@@@YA_NABVioHashString@@AAY0O@$$CBD@Z PROC	; operator==<14>, COMDAT

; 146  : {

  00000	55		 push	 ebp
  00001	8b ec		 mov	 ebp, esp
  00003	83 ec 18	 sub	 esp, 24			; 00000018H
  00006	a1 00 00 00 00	 mov	 eax, DWORD PTR ___security_cookie
  0000b	33 c5		 xor	 eax, ebp
  0000d	89 45 fc	 mov	 DWORD PTR __$ArrayPad$[ebp], eax
  00010	8b 45 0c	 mov	 eax, DWORD PTR _t$[ebp]

; 147  : 	_ENCSTR(t, _t); return ( strcmp( lhs.c_str(), _t ) == 0 );

  00013	8a 10		 mov	 dl, BYTE PTR [eax]
  00015	56		 push	 esi
  00016	57		 push	 edi
  00017	8b 7d 08	 mov	 edi, DWORD PTR _lhs$[ebp]
  0001a	84 d2		 test	 dl, dl
  0001c	0f 84 64 01 00
	00		 je	 $LN96@operator@3
  00022	80 f2 ed	 xor	 dl, -19			; ffffffedH
  00025	88 55 e8	 mov	 BYTE PTR __t$[ebp], dl
  00028	8a 50 01	 mov	 dl, BYTE PTR [eax+1]
  0002b	84 d2		 test	 dl, dl
  0002d	0f 84 4d 01 00
	00		 je	 $LN95@operator@3
  00033	80 f2 ec	 xor	 dl, -20			; ffffffecH
  00036	88 55 e9	 mov	 BYTE PTR __t$[ebp+1], dl
  00039	8a 50 02	 mov	 dl, BYTE PTR [eax+2]
  0003c	84 d2		 test	 dl, dl
  0003e	0f 84 36 01 00
	00		 je	 $LN94@operator@3
  00044	b1 eb		 mov	 cl, -21			; ffffffebH
  00046	32 d1		 xor	 dl, cl
  00048	88 55 ea	 mov	 BYTE PTR __t$[ebp+2], dl
  0004b	8a 50 03	 mov	 dl, BYTE PTR [eax+3]
  0004e	84 d2		 test	 dl, dl
  00050	0f 84 1e 01 00
	00		 je	 $LN93@operator@3
  00056	80 f2 ea	 xor	 dl, -22			; ffffffeaH
  00059	88 55 eb	 mov	 BYTE PTR __t$[ebp+3], dl
  0005c	8a 50 04	 mov	 dl, BYTE PTR [eax+4]
  0005f	84 d2		 test	 dl, dl
  00061	0f 84 07 01 00
	00		 je	 $LN92@operator@3
  00067	80 f2 ed	 xor	 dl, -19			; ffffffedH
  0006a	88 55 ec	 mov	 BYTE PTR __t$[ebp+4], dl
  0006d	8a 50 05	 mov	 dl, BYTE PTR [eax+5]
  00070	84 d2		 test	 dl, dl
  00072	0f 84 f0 00 00
	00		 je	 $LN91@operator@3
  00078	80 f2 ec	 xor	 dl, -20			; ffffffecH
  0007b	88 55 ed	 mov	 BYTE PTR __t$[ebp+5], dl
  0007e	8a 50 06	 mov	 dl, BYTE PTR [eax+6]
  00081	84 d2		 test	 dl, dl
  00083	0f 84 da 00 00
	00		 je	 $LN90@operator@3
  00089	32 d1		 xor	 dl, cl
  0008b	88 55 ee	 mov	 BYTE PTR __t$[ebp+6], dl
  0008e	8a 50 07	 mov	 dl, BYTE PTR [eax+7]
  00091	84 d2		 test	 dl, dl
  00093	0f 84 c4 00 00
	00		 je	 $LN89@operator@3
  00099	80 f2 ea	 xor	 dl, -22			; ffffffeaH
  0009c	88 55 ef	 mov	 BYTE PTR __t$[ebp+7], dl
  0009f	8a 50 08	 mov	 dl, BYTE PTR [eax+8]
  000a2	84 d2		 test	 dl, dl
  000a4	0f 84 ad 00 00
	00		 je	 $LN88@operator@3
  000aa	80 f2 ed	 xor	 dl, -19			; ffffffedH
  000ad	88 55 f0	 mov	 BYTE PTR __t$[ebp+8], dl
  000b0	8a 50 09	 mov	 dl, BYTE PTR [eax+9]
  000b3	84 d2		 test	 dl, dl
  000b5	0f 84 96 00 00
	00		 je	 $LN87@operator@3
  000bb	80 f2 ec	 xor	 dl, -20			; ffffffecH
  000be	88 55 f1	 mov	 BYTE PTR __t$[ebp+9], dl
  000c1	8a 50 0a	 mov	 dl, BYTE PTR [eax+10]
  000c4	84 d2		 test	 dl, dl
  000c6	0f 84 80 00 00
	00		 je	 $LN86@operator@3
  000cc	32 d1		 xor	 dl, cl
  000ce	88 55 f2	 mov	 BYTE PTR __t$[ebp+10], dl
  000d1	8a 50 0b	 mov	 dl, BYTE PTR [eax+11]
  000d4	84 d2		 test	 dl, dl
  000d6	74 6e		 je	 SHORT $LN85@operator@3
  000d8	80 f2 ea	 xor	 dl, -22			; ffffffeaH
  000db	88 55 f3	 mov	 BYTE PTR __t$[ebp+11], dl
  000de	8a 50 0c	 mov	 dl, BYTE PTR [eax+12]
  000e1	84 d2		 test	 dl, dl
  000e3	74 5b		 je	 SHORT $LN84@operator@3
  000e5	80 f2 ed	 xor	 dl, -19			; ffffffedH
  000e8	80 78 0d 00	 cmp	 BYTE PTR [eax+13], 0
  000ec	88 55 f4	 mov	 BYTE PTR __t$[ebp+12], dl
  000ef	0f 84 95 00 00
	00		 je	 $LN1@operator@3
  000f5	8a 50 0e	 mov	 dl, BYTE PTR [eax+14]
  000f8	84 d2		 test	 dl, dl
  000fa	74 3f		 je	 SHORT $LN82@operator@3
  000fc	32 d1		 xor	 dl, cl
  000fe	88 55 f6	 mov	 BYTE PTR __t$[ebp+14], dl
  00101	8a 50 0f	 mov	 dl, BYTE PTR [eax+15]
  00104	84 d2		 test	 dl, dl
  00106	74 2d		 je	 SHORT $LN81@operator@3
  00108	80 f2 ea	 xor	 dl, -22			; ffffffeaH
  0010b	88 55 f7	 mov	 BYTE PTR __t$[ebp+15], dl
  0010e	8a 50 10	 mov	 dl, BYTE PTR [eax+16]
  00111	84 d2		 test	 dl, dl
  00113	74 1a		 je	 SHORT $LN80@operator@3
  00115	8a 40 11	 mov	 al, BYTE PTR [eax+17]
  00118	80 f2 ed	 xor	 dl, -19			; ffffffedH
  0011b	88 55 f8	 mov	 BYTE PTR __t$[ebp+16], dl
  0011e	84 c0		 test	 al, al
  00120	74 07		 je	 SHORT $LN79@operator@3
  00122	34 ec		 xor	 al, -20			; ffffffecH
  00124	88 45 f9	 mov	 BYTE PTR __t$[ebp+17], al
  00127	eb 61		 jmp	 SHORT $LN1@operator@3
$LN79@operator@3:
  00129	c6 45 f9 ec	 mov	 BYTE PTR __t$[ebp+17], -20 ; ffffffecH
  0012d	eb 5b		 jmp	 SHORT $LN1@operator@3
$LN80@operator@3:
  0012f	c6 45 f8 ed	 mov	 BYTE PTR __t$[ebp+16], -19 ; ffffffedH
  00133	eb 55		 jmp	 SHORT $LN1@operator@3
$LN81@operator@3:
  00135	c6 45 f7 ea	 mov	 BYTE PTR __t$[ebp+15], -22 ; ffffffeaH
  00139	eb 4f		 jmp	 SHORT $LN1@operator@3
$LN82@operator@3:
  0013b	88 4d f6	 mov	 BYTE PTR __t$[ebp+14], cl
  0013e	eb 4a		 jmp	 SHORT $LN1@operator@3
$LN84@operator@3:
  00140	c6 45 f4 ed	 mov	 BYTE PTR __t$[ebp+12], -19 ; ffffffedH
  00144	eb 44		 jmp	 SHORT $LN1@operator@3
$LN85@operator@3:
  00146	c6 45 f3 ea	 mov	 BYTE PTR __t$[ebp+11], -22 ; ffffffeaH
  0014a	eb 3e		 jmp	 SHORT $LN1@operator@3
$LN86@operator@3:
  0014c	88 4d f2	 mov	 BYTE PTR __t$[ebp+10], cl
  0014f	eb 39		 jmp	 SHORT $LN1@operator@3
$LN87@operator@3:
  00151	c6 45 f1 ec	 mov	 BYTE PTR __t$[ebp+9], -20 ; ffffffecH
  00155	eb 33		 jmp	 SHORT $LN1@operator@3
$LN88@operator@3:
  00157	c6 45 f0 ed	 mov	 BYTE PTR __t$[ebp+8], -19 ; ffffffedH
  0015b	eb 2d		 jmp	 SHORT $LN1@operator@3
$LN89@operator@3:
  0015d	c6 45 ef ea	 mov	 BYTE PTR __t$[ebp+7], -22 ; ffffffeaH
  00161	eb 27		 jmp	 SHORT $LN1@operator@3
$LN90@operator@3:
  00163	88 4d ee	 mov	 BYTE PTR __t$[ebp+6], cl
  00166	eb 22		 jmp	 SHORT $LN1@operator@3
$LN91@operator@3:
  00168	c6 45 ed ec	 mov	 BYTE PTR __t$[ebp+5], -20 ; ffffffecH
  0016c	eb 1c		 jmp	 SHORT $LN1@operator@3
$LN92@operator@3:
  0016e	c6 45 ec ed	 mov	 BYTE PTR __t$[ebp+4], -19 ; ffffffedH
  00172	eb 16		 jmp	 SHORT $LN1@operator@3
$LN93@operator@3:
  00174	c6 45 eb ea	 mov	 BYTE PTR __t$[ebp+3], -22 ; ffffffeaH
  00178	eb 10		 jmp	 SHORT $LN1@operator@3
$LN94@operator@3:
  0017a	c6 45 ea eb	 mov	 BYTE PTR __t$[ebp+2], -21 ; ffffffebH
  0017e	eb 0a		 jmp	 SHORT $LN1@operator@3
$LN95@operator@3:
  00180	c6 45 e9 ec	 mov	 BYTE PTR __t$[ebp+1], -20 ; ffffffecH
  00184	eb 04		 jmp	 SHORT $LN1@operator@3
$LN96@operator@3:
  00186	c6 45 e8 ed	 mov	 BYTE PTR __t$[ebp], -19	; ffffffedH
$LN1@operator@3:
  0018a	6a 03		 push	 3
  0018c	8d 45 e8	 lea	 eax, DWORD PTR __t$[ebp]
  0018f	c6 45 f5 00	 mov	 BYTE PTR __t$[ebp+13], 0
  00193	5a		 pop	 edx
$LL104@operator@3:
  00194	81 30 ed ec eb
	ea		 xor	 DWORD PTR [eax], -353637139 ; eaebecedH
  0019a	83 c0 04	 add	 eax, 4
  0019d	4a		 dec	 edx
  0019e	75 f4		 jne	 SHORT $LL104@operator@3
  001a0	80 75 f4 ed	 xor	 BYTE PTR __t$[ebp+12], -19 ; ffffffedH
  001a4	8b cf		 mov	 ecx, edi
  001a6	8d 75 e8	 lea	 esi, DWORD PTR __t$[ebp]
  001a9	ff 15 00 00 00
	00		 call	 DWORD PTR __imp_?c_str@ioHashString@@QBEPBDXZ
$LL111@operator@3:
  001af	8a 08		 mov	 cl, BYTE PTR [eax]
  001b1	3a 0e		 cmp	 cl, BYTE PTR [esi]
  001b3	75 1a		 jne	 SHORT $LN112@operator@3
  001b5	84 c9		 test	 cl, cl
  001b7	74 12		 je	 SHORT $LN113@operator@3
  001b9	8a 48 01	 mov	 cl, BYTE PTR [eax+1]
  001bc	3a 4e 01	 cmp	 cl, BYTE PTR [esi+1]
  001bf	75 0e		 jne	 SHORT $LN112@operator@3
  001c1	83 c0 02	 add	 eax, 2
  001c4	83 c6 02	 add	 esi, 2
  001c7	84 c9		 test	 cl, cl
  001c9	75 e4		 jne	 SHORT $LL111@operator@3
$LN113@operator@3:
  001cb	33 c0		 xor	 eax, eax
  001cd	eb 05		 jmp	 SHORT $LN114@operator@3
$LN112@operator@3:
  001cf	1b c0		 sbb	 eax, eax
  001d1	83 d8 ff	 sbb	 eax, -1
$LN114@operator@3:
  001d4	33 c9		 xor	 ecx, ecx
  001d6	85 c0		 test	 eax, eax
  001d8	0f 94 c0	 sete	 al

; 148  : }

  001db	8b 4d fc	 mov	 ecx, DWORD PTR __$ArrayPad$[ebp]
  001de	5f		 pop	 edi
  001df	33 cd		 xor	 ecx, ebp
  001e1	5e		 pop	 esi
  001e2	e8 00 00 00 00	 call	 @__security_check_cookie@4
  001e7	c9		 leave
  001e8	c3		 ret	 0
??$?8$0O@@@YA_NABVioHashString@@AAY0O@$$CBD@Z ENDP	; operator==<14>
_TEXT	ENDS
PUBLIC	__$ArrayPad$
PUBLIC	??$?8$09@@YA_NABVioHashString@@AAY09$$CBD@Z	; operator==<10>
; Function compile flags: /Ogsp
;	COMDAT ??$?8$09@@YA_NABVioHashString@@AAY09$$CBD@Z
_TEXT	SEGMENT
__t$ = -20						; size = 10
__$ArrayPad$ = -4					; size = 4
_lhs$ = 8						; size = 4
_t$ = 12						; size = 4
??$?8$09@@YA_NABVioHashString@@AAY09$$CBD@Z PROC	; operator==<10>, COMDAT

; 146  : {

  00000	55		 push	 ebp
  00001	8b ec		 mov	 ebp, esp
  00003	83 ec 14	 sub	 esp, 20			; 00000014H
  00006	a1 00 00 00 00	 mov	 eax, DWORD PTR ___security_cookie
  0000b	33 c5		 xor	 eax, ebp
  0000d	89 45 fc	 mov	 DWORD PTR __$ArrayPad$[ebp], eax
  00010	8b 45 0c	 mov	 eax, DWORD PTR _t$[ebp]

; 147  : 	_ENCSTR(t, _t); return ( strcmp( lhs.c_str(), _t ) == 0 );

  00013	8a 10		 mov	 dl, BYTE PTR [eax]
  00015	8b 4d 08	 mov	 ecx, DWORD PTR _lhs$[ebp]
  00018	84 d2		 test	 dl, dl
  0001a	0f 84 0d 01 00
	00		 je	 $LN96@operator@4
  00020	80 f2 ed	 xor	 dl, -19			; ffffffedH
  00023	88 55 ec	 mov	 BYTE PTR __t$[ebp], dl
  00026	8a 50 01	 mov	 dl, BYTE PTR [eax+1]
  00029	84 d2		 test	 dl, dl
  0002b	0f 84 f6 00 00
	00		 je	 $LN95@operator@4
  00031	80 f2 ec	 xor	 dl, -20			; ffffffecH
  00034	88 55 ed	 mov	 BYTE PTR __t$[ebp+1], dl
  00037	8a 50 02	 mov	 dl, BYTE PTR [eax+2]
  0003a	84 d2		 test	 dl, dl
  0003c	0f 84 df 00 00
	00		 je	 $LN94@operator@4
  00042	80 f2 eb	 xor	 dl, -21			; ffffffebH
  00045	88 55 ee	 mov	 BYTE PTR __t$[ebp+2], dl
  00048	8a 50 03	 mov	 dl, BYTE PTR [eax+3]
  0004b	84 d2		 test	 dl, dl
  0004d	0f 84 c8 00 00
	00		 je	 $LN93@operator@4
  00053	80 f2 ea	 xor	 dl, -22			; ffffffeaH
  00056	88 55 ef	 mov	 BYTE PTR __t$[ebp+3], dl
  00059	8a 50 04	 mov	 dl, BYTE PTR [eax+4]
  0005c	84 d2		 test	 dl, dl
  0005e	0f 84 b1 00 00
	00		 je	 $LN92@operator@4
  00064	80 f2 ed	 xor	 dl, -19			; ffffffedH
  00067	88 55 f0	 mov	 BYTE PTR __t$[ebp+4], dl
  0006a	8a 50 05	 mov	 dl, BYTE PTR [eax+5]
  0006d	84 d2		 test	 dl, dl
  0006f	0f 84 9a 00 00
	00		 je	 $LN91@operator@4
  00075	80 f2 ec	 xor	 dl, -20			; ffffffecH
  00078	88 55 f1	 mov	 BYTE PTR __t$[ebp+5], dl
  0007b	8a 50 06	 mov	 dl, BYTE PTR [eax+6]
  0007e	84 d2		 test	 dl, dl
  00080	0f 84 83 00 00
	00		 je	 $LN90@operator@4
  00086	80 f2 eb	 xor	 dl, -21			; ffffffebH
  00089	88 55 f2	 mov	 BYTE PTR __t$[ebp+6], dl
  0008c	8a 50 07	 mov	 dl, BYTE PTR [eax+7]
  0008f	84 d2		 test	 dl, dl
  00091	74 70		 je	 SHORT $LN89@operator@4
  00093	80 f2 ea	 xor	 dl, -22			; ffffffeaH
  00096	88 55 f3	 mov	 BYTE PTR __t$[ebp+7], dl
  00099	8a 50 08	 mov	 dl, BYTE PTR [eax+8]
  0009c	84 d2		 test	 dl, dl
  0009e	74 5d		 je	 SHORT $LN88@operator@4
  000a0	80 f2 ed	 xor	 dl, -19			; ffffffedH
  000a3	80 78 09 00	 cmp	 BYTE PTR [eax+9], 0
  000a7	88 55 f4	 mov	 BYTE PTR __t$[ebp+8], dl
  000aa	0f 84 81 00 00
	00		 je	 $LN1@operator@4
  000b0	8a 50 0a	 mov	 dl, BYTE PTR [eax+10]
  000b3	84 d2		 test	 dl, dl
  000b5	74 40		 je	 SHORT $LN86@operator@4
  000b7	80 f2 eb	 xor	 dl, -21			; ffffffebH
  000ba	88 55 f6	 mov	 BYTE PTR __t$[ebp+10], dl
  000bd	8a 50 0b	 mov	 dl, BYTE PTR [eax+11]
  000c0	84 d2		 test	 dl, dl
  000c2	74 2d		 je	 SHORT $LN85@operator@4
  000c4	80 f2 ea	 xor	 dl, -22			; ffffffeaH
  000c7	88 55 f7	 mov	 BYTE PTR __t$[ebp+11], dl
  000ca	8a 50 0c	 mov	 dl, BYTE PTR [eax+12]
  000cd	84 d2		 test	 dl, dl
  000cf	74 1a		 je	 SHORT $LN84@operator@4
  000d1	8a 40 0d	 mov	 al, BYTE PTR [eax+13]
  000d4	80 f2 ed	 xor	 dl, -19			; ffffffedH
  000d7	88 55 f8	 mov	 BYTE PTR __t$[ebp+12], dl
  000da	84 c0		 test	 al, al
  000dc	74 07		 je	 SHORT $LN83@operator@4
  000de	34 ec		 xor	 al, -20			; ffffffecH
  000e0	88 45 f9	 mov	 BYTE PTR __t$[ebp+13], al
  000e3	eb 4c		 jmp	 SHORT $LN1@operator@4
$LN83@operator@4:
  000e5	c6 45 f9 ec	 mov	 BYTE PTR __t$[ebp+13], -20 ; ffffffecH
  000e9	eb 46		 jmp	 SHORT $LN1@operator@4
$LN84@operator@4:
  000eb	c6 45 f8 ed	 mov	 BYTE PTR __t$[ebp+12], -19 ; ffffffedH
  000ef	eb 40		 jmp	 SHORT $LN1@operator@4
$LN85@operator@4:
  000f1	c6 45 f7 ea	 mov	 BYTE PTR __t$[ebp+11], -22 ; ffffffeaH
  000f5	eb 3a		 jmp	 SHORT $LN1@operator@4
$LN86@operator@4:
  000f7	c6 45 f6 eb	 mov	 BYTE PTR __t$[ebp+10], -21 ; ffffffebH
  000fb	eb 34		 jmp	 SHORT $LN1@operator@4
$LN88@operator@4:
  000fd	c6 45 f4 ed	 mov	 BYTE PTR __t$[ebp+8], -19 ; ffffffedH
  00101	eb 2e		 jmp	 SHORT $LN1@operator@4
$LN89@operator@4:
  00103	c6 45 f3 ea	 mov	 BYTE PTR __t$[ebp+7], -22 ; ffffffeaH
  00107	eb 28		 jmp	 SHORT $LN1@operator@4
$LN90@operator@4:
  00109	c6 45 f2 eb	 mov	 BYTE PTR __t$[ebp+6], -21 ; ffffffebH
  0010d	eb 22		 jmp	 SHORT $LN1@operator@4
$LN91@operator@4:
  0010f	c6 45 f1 ec	 mov	 BYTE PTR __t$[ebp+5], -20 ; ffffffecH
  00113	eb 1c		 jmp	 SHORT $LN1@operator@4
$LN92@operator@4:
  00115	c6 45 f0 ed	 mov	 BYTE PTR __t$[ebp+4], -19 ; ffffffedH
  00119	eb 16		 jmp	 SHORT $LN1@operator@4
$LN93@operator@4:
  0011b	c6 45 ef ea	 mov	 BYTE PTR __t$[ebp+3], -22 ; ffffffeaH
  0011f	eb 10		 jmp	 SHORT $LN1@operator@4
$LN94@operator@4:
  00121	c6 45 ee eb	 mov	 BYTE PTR __t$[ebp+2], -21 ; ffffffebH
  00125	eb 0a		 jmp	 SHORT $LN1@operator@4
$LN95@operator@4:
  00127	c6 45 ed ec	 mov	 BYTE PTR __t$[ebp+1], -20 ; ffffffecH
  0012b	eb 04		 jmp	 SHORT $LN1@operator@4
$LN96@operator@4:
  0012d	c6 45 ec ed	 mov	 BYTE PTR __t$[ebp], -19	; ffffffedH
$LN1@operator@4:
  00131	6a 02		 push	 2
  00133	8d 45 ec	 lea	 eax, DWORD PTR __t$[ebp]
  00136	c6 45 f5 00	 mov	 BYTE PTR __t$[ebp+9], 0
  0013a	5a		 pop	 edx
$LL104@operator@4:
  0013b	81 30 ed ec eb
	ea		 xor	 DWORD PTR [eax], -353637139 ; eaebecedH
  00141	83 c0 04	 add	 eax, 4
  00144	4a		 dec	 edx
  00145	75 f4		 jne	 SHORT $LL104@operator@4
  00147	80 75 f4 ed	 xor	 BYTE PTR __t$[ebp+8], -19 ; ffffffedH
  0014b	56		 push	 esi
  0014c	8d 75 ec	 lea	 esi, DWORD PTR __t$[ebp]
  0014f	ff 15 00 00 00
	00		 call	 DWORD PTR __imp_?c_str@ioHashString@@QBEPBDXZ
$LL111@operator@4:
  00155	8a 08		 mov	 cl, BYTE PTR [eax]
  00157	3a 0e		 cmp	 cl, BYTE PTR [esi]
  00159	75 1a		 jne	 SHORT $LN112@operator@4
  0015b	84 c9		 test	 cl, cl
  0015d	74 12		 je	 SHORT $LN113@operator@4
  0015f	8a 48 01	 mov	 cl, BYTE PTR [eax+1]
  00162	3a 4e 01	 cmp	 cl, BYTE PTR [esi+1]
  00165	75 0e		 jne	 SHORT $LN112@operator@4
  00167	83 c0 02	 add	 eax, 2
  0016a	83 c6 02	 add	 esi, 2
  0016d	84 c9		 test	 cl, cl
  0016f	75 e4		 jne	 SHORT $LL111@operator@4
$LN113@operator@4:
  00171	33 c0		 xor	 eax, eax
  00173	eb 05		 jmp	 SHORT $LN114@operator@4
$LN112@operator@4:
  00175	1b c0		 sbb	 eax, eax
  00177	83 d8 ff	 sbb	 eax, -1
$LN114@operator@4:
  0017a	33 c9		 xor	 ecx, ecx
  0017c	85 c0		 test	 eax, eax
  0017e	0f 94 c0	 sete	 al

; 148  : }

  00181	8b 4d fc	 mov	 ecx, DWORD PTR __$ArrayPad$[ebp]
  00184	33 cd		 xor	 ecx, ebp
  00186	5e		 pop	 esi
  00187	e8 00 00 00 00	 call	 @__security_check_cookie@4
  0018c	c9		 leave
  0018d	c3		 ret	 0
??$?8$09@@YA_NABVioHashString@@AAY09$$CBD@Z ENDP	; operator==<10>
_TEXT	ENDS
PUBLIC	??$construct@AAUExpandSlotItemInfo@ioMessageBox4@@@?$allocator@UExpandSlotItemInfo@ioMessageBox4@@@std@@QAEXPAUExpandSlotItemInfo@ioMessageBox4@@AAU23@@Z ; std::allocator<ioMessageBox4::ExpandSlotItemInfo>::construct<ioMessageBox4::ExpandSlotItemInfo &>
;	COMDAT xdata$x
; File c:\program files (x86)\microsoft visual studio 10.0\vc\include\utility
xdata$x	SEGMENT
__unwindtable$??$construct@AAUExpandSlotItemInfo@ioMessageBox4@@@?$allocator@UExpandSlotItemInfo@ioMessageBox4@@@std@@QAEXPAUExpandSlotItemInfo@ioMessageBox4@@AAU23@@Z DD 0ffffffffH
	DD	FLAT:__unwindfunclet$??$construct@AAUExpandSlotItemInfo@ioMessageBox4@@@?$allocator@UExpandSlotItemInfo@ioMessageBox4@@@std@@QAEXPAUExpandSlotItemInfo@ioMessageBox4@@AAU23@@Z$0
__ehfuncinfo$??$construct@AAUExpandSlotItemInfo@ioMessageBox4@@@?$allocator@UExpandSlotItemInfo@ioMessageBox4@@@std@@QAEXPAUExpandSlotItemInfo@ioMessageBox4@@AAU23@@Z DD 019930522H
	DD	01H
	DD	FLAT:__unwindtable$??$construct@AAUExpandSlotItemInfo@ioMessageBox4@@@?$allocator@UExpandSlotItemInfo@ioMessageBox4@@@std@@QAEXPAUExpandSlotItemInfo@ioMessageBox4@@AAU23@@Z
	DD	2 DUP(00H)
	DD	2 DUP(00H)
	DD	00H
	DD	01H
; Function compile flags: /Ogsp
; File c:\program files (x86)\microsoft visual studio 10.0\vc\include\xmemory
xdata$x	ENDS
;	COMDAT ??$construct@AAUExpandSlotItemInfo@ioMessageBox4@@@?$allocator@UExpandSlotItemInfo@ioMessageBox4@@@std@@QAEXPAUExpandSlotItemInfo@ioMessageBox4@@AAU23@@Z
_TEXT	SEGMENT
$T509232 = -16						; size = 4
__$EHRec$ = -12						; size = 12
__Ptr$ = 8						; size = 4
__Val$ = 12						; size = 4
??$construct@AAUExpandSlotItemInfo@ioMessageBox4@@@?$allocator@UExpandSlotItemInfo@ioMessageBox4@@@std@@QAEXPAUExpandSlotItemInfo@ioMessageBox4@@AAU23@@Z PROC ; std::allocator<ioMessageBox4::ExpandSlotItemInfo>::construct<ioMessageBox4::ExpandSlotItemInfo &>, COMDAT
; _this$ = ecx

; 206  : 		void construct(pointer _Ptr, _Other&& _Val)

  00000	6a 04		 push	 4
  00002	b8 00 00 00 00	 mov	 eax, __ehhandler$??$construct@AAUExpandSlotItemInfo@ioMessageBox4@@@?$allocator@UExpandSlotItemInfo@ioMessageBox4@@@std@@QAEXPAUExpandSlotItemInfo@ioMessageBox4@@AAU23@@Z
  00007	e8 00 00 00 00	 call	 __EH_prolog3

; 207  : 		{	// construct object at _Ptr with value _Val
; 208  : 		::new ((void _FARQ *)_Ptr) _Ty(_STD forward<_Other>(_Val));

  0000c	8b 4d 08	 mov	 ecx, DWORD PTR __Ptr$[ebp]
  0000f	89 4d f0	 mov	 DWORD PTR $T509232[ebp], ecx
  00012	83 65 fc 00	 and	 DWORD PTR __$EHRec$[ebp+8], 0
  00016	85 c9		 test	 ecx, ecx
  00018	74 08		 je	 SHORT $LN3@construct
  0001a	ff 75 0c	 push	 DWORD PTR __Val$[ebp]
  0001d	e8 00 00 00 00	 call	 ??0ExpandSlotItemInfo@ioMessageBox4@@QAE@ABU01@@Z
$LN3@construct:

; 209  : 		}

  00022	e8 00 00 00 00	 call	 __EH_epilog3
  00027	c2 08 00	 ret	 8
_TEXT	ENDS
;	COMDAT text$x
text$x	SEGMENT
__unwindfunclet$??$construct@AAUExpandSlotItemInfo@ioMessageBox4@@@?$allocator@UExpandSlotItemInfo@ioMessageBox4@@@std@@QAEXPAUExpandSlotItemInfo@ioMessageBox4@@AAU23@@Z$0:
  00000	ff 75 08	 push	 DWORD PTR __Ptr$[ebp]
  00003	ff 75 f0	 push	 DWORD PTR $T509232[ebp]
  00006	e8 00 00 00 00	 call	 ??3@YAXPAX0@Z		; operator delete
  0000b	59		 pop	 ecx
  0000c	59		 pop	 ecx
  0000d	c3		 ret	 0
__ehhandler$??$construct@AAUExpandSlotItemInfo@ioMessageBox4@@@?$allocator@UExpandSlotItemInfo@ioMessageBox4@@@std@@QAEXPAUExpandSlotItemInfo@ioMessageBox4@@AAU23@@Z:
  0000e	8b 54 24 08	 mov	 edx, DWORD PTR [esp+8]
  00012	8d 42 0c	 lea	 eax, DWORD PTR [edx+12]
  00015	8b 4a ec	 mov	 ecx, DWORD PTR [edx-20]
  00018	33 c8		 xor	 ecx, eax
  0001a	e8 00 00 00 00	 call	 @__security_check_cookie@4
  0001f	b8 00 00 00 00	 mov	 eax, OFFSET __ehfuncinfo$??$construct@AAUExpandSlotItemInfo@ioMessageBox4@@@?$allocator@UExpandSlotItemInfo@ioMessageBox4@@@std@@QAEXPAUExpandSlotItemInfo@ioMessageBox4@@AAU23@@Z
  00024	e9 00 00 00 00	 jmp	 ___CxxFrameHandler3
text$x	ENDS
??$construct@AAUExpandSlotItemInfo@ioMessageBox4@@@?$allocator@UExpandSlotItemInfo@ioMessageBox4@@@std@@QAEXPAUExpandSlotItemInfo@ioMessageBox4@@AAU23@@Z ENDP ; std::allocator<ioMessageBox4::ExpandSlotItemInfo>::construct<ioMessageBox4::ExpandSlotItemInfo &>
PUBLIC	??$_Move@PAUExpandSlotItemInfo@ioMessageBox4@@PAU12@@std@@YAPAUExpandSlotItemInfo@ioMessageBox4@@PAU12@00U_Nonscalar_ptr_iterator_tag@0@@Z ; std::_Move<ioMessageBox4::ExpandSlotItemInfo *,ioMessageBox4::ExpandSlotItemInfo *>
; Function compile flags: /Ogsp
; File c:\program files (x86)\microsoft visual studio 10.0\vc\include\xutility
;	COMDAT ??$_Move@PAUExpandSlotItemInfo@ioMessageBox4@@PAU12@@std@@YAPAUExpandSlotItemInfo@ioMessageBox4@@PAU12@00U_Nonscalar_ptr_iterator_tag@0@@Z
_TEXT	SEGMENT
__First$ = 8						; size = 4
__Last$ = 12						; size = 4
__Dest$ = 16						; size = 4
___formal$ = 20						; size = 1
??$_Move@PAUExpandSlotItemInfo@ioMessageBox4@@PAU12@@std@@YAPAUExpandSlotItemInfo@ioMessageBox4@@PAU12@00U_Nonscalar_ptr_iterator_tag@0@@Z PROC ; std::_Move<ioMessageBox4::ExpandSlotItemInfo *,ioMessageBox4::ExpandSlotItemInfo *>, COMDAT

; 2512 : 	{	// move [_First, _Last) to [_Dest, ...), arbitrary iterators

  00000	55		 push	 ebp
  00001	8b ec		 mov	 ebp, esp
  00003	56		 push	 esi

; 2513 : 	for (; _First != _Last; ++_Dest, ++_First)

  00004	8b 75 08	 mov	 esi, DWORD PTR __First$[ebp]
  00007	eb 10		 jmp	 SHORT $LN11@Move
$LL3@Move:

; 2514 : 		*_Dest = _STD move(*_First);

  00009	8b 4d 10	 mov	 ecx, DWORD PTR __Dest$[ebp]
  0000c	56		 push	 esi
  0000d	e8 00 00 00 00	 call	 ??4ExpandSlotItemInfo@ioMessageBox4@@QAEAAU01@ABU01@@Z
  00012	83 45 10 18	 add	 DWORD PTR __Dest$[ebp], 24 ; 00000018H
  00016	83 c6 18	 add	 esi, 24			; 00000018H
$LN11@Move:

; 2513 : 	for (; _First != _Last; ++_Dest, ++_First)

  00019	3b 75 0c	 cmp	 esi, DWORD PTR __Last$[ebp]
  0001c	75 eb		 jne	 SHORT $LL3@Move

; 2515 : 	return (_Dest);

  0001e	8b 45 10	 mov	 eax, DWORD PTR __Dest$[ebp]
  00021	5e		 pop	 esi

; 2516 : 	}

  00022	5d		 pop	 ebp
  00023	c3		 ret	 0
??$_Move@PAUExpandSlotItemInfo@ioMessageBox4@@PAU12@@std@@YAPAUExpandSlotItemInfo@ioMessageBox4@@PAU12@00U_Nonscalar_ptr_iterator_tag@0@@Z ENDP ; std::_Move<ioMessageBox4::ExpandSlotItemInfo *,ioMessageBox4::ExpandSlotItemInfo *>
_TEXT	ENDS
PUBLIC	??$_Construct@UExpandSlotItemInfo@ioMessageBox4@@ABU12@@std@@YAXPAUExpandSlotItemInfo@ioMessageBox4@@ABU12@@Z ; std::_Construct<ioMessageBox4::ExpandSlotItemInfo,ioMessageBox4::ExpandSlotItemInfo const &>
;	COMDAT xdata$x
; File c:\program files (x86)\microsoft visual studio 10.0\vc\include\utility
xdata$x	SEGMENT
__unwindtable$??$_Construct@UExpandSlotItemInfo@ioMessageBox4@@ABU12@@std@@YAXPAUExpandSlotItemInfo@ioMessageBox4@@ABU12@@Z DD 0ffffffffH
	DD	FLAT:__unwindfunclet$??$_Construct@UExpandSlotItemInfo@ioMessageBox4@@ABU12@@std@@YAXPAUExpandSlotItemInfo@ioMessageBox4@@ABU12@@Z$0
__ehfuncinfo$??$_Construct@UExpandSlotItemInfo@ioMessageBox4@@ABU12@@std@@YAXPAUExpandSlotItemInfo@ioMessageBox4@@ABU12@@Z DD 019930522H
	DD	01H
	DD	FLAT:__unwindtable$??$_Construct@UExpandSlotItemInfo@ioMessageBox4@@ABU12@@std@@YAXPAUExpandSlotItemInfo@ioMessageBox4@@ABU12@@Z
	DD	2 DUP(00H)
	DD	2 DUP(00H)
	DD	00H
	DD	01H
; Function compile flags: /Ogsp
; File c:\program files (x86)\microsoft visual studio 10.0\vc\include\xmemory
xdata$x	ENDS
;	COMDAT ??$_Construct@UExpandSlotItemInfo@ioMessageBox4@@ABU12@@std@@YAXPAUExpandSlotItemInfo@ioMessageBox4@@ABU12@@Z
_TEXT	SEGMENT
$T509260 = -16						; size = 4
__$EHRec$ = -12						; size = 12
__Vptr$ = 8						; size = 4
__Ptr$ = 8						; size = 4
__Val$ = 12						; size = 4
??$_Construct@UExpandSlotItemInfo@ioMessageBox4@@ABU12@@std@@YAXPAUExpandSlotItemInfo@ioMessageBox4@@ABU12@@Z PROC ; std::_Construct<ioMessageBox4::ExpandSlotItemInfo,ioMessageBox4::ExpandSlotItemInfo const &>, COMDAT

; 46   : 	{	// construct object at _Ptr with value _Val

  00000	6a 04		 push	 4
  00002	b8 00 00 00 00	 mov	 eax, __ehhandler$??$_Construct@UExpandSlotItemInfo@ioMessageBox4@@ABU12@@std@@YAXPAUExpandSlotItemInfo@ioMessageBox4@@ABU12@@Z
  00007	e8 00 00 00 00	 call	 __EH_prolog3

; 47   : 	void _FARQ *_Vptr = _Ptr;

  0000c	8b 4d 08	 mov	 ecx, DWORD PTR __Ptr$[ebp]
  0000f	89 4d 08	 mov	 DWORD PTR __Vptr$[ebp], ecx

; 48   : 	::new (_Vptr) _Ty1(_STD forward<_Ty2>(_Val));

  00012	89 4d f0	 mov	 DWORD PTR $T509260[ebp], ecx
  00015	83 65 fc 00	 and	 DWORD PTR __$EHRec$[ebp+8], 0
  00019	85 c9		 test	 ecx, ecx
  0001b	74 08		 je	 SHORT $LN3@Construct
  0001d	ff 75 0c	 push	 DWORD PTR __Val$[ebp]
  00020	e8 00 00 00 00	 call	 ??0ExpandSlotItemInfo@ioMessageBox4@@QAE@ABU01@@Z
$LN3@Construct:

; 49   : 	}

  00025	e8 00 00 00 00	 call	 __EH_epilog3
  0002a	c3		 ret	 0
_TEXT	ENDS
;	COMDAT text$x
text$x	SEGMENT
__unwindfunclet$??$_Construct@UExpandSlotItemInfo@ioMessageBox4@@ABU12@@std@@YAXPAUExpandSlotItemInfo@ioMessageBox4@@ABU12@@Z$0:
  00000	ff 75 08	 push	 DWORD PTR __Vptr$[ebp]
  00003	ff 75 f0	 push	 DWORD PTR $T509260[ebp]
  00006	e8 00 00 00 00	 call	 ??3@YAXPAX0@Z		; operator delete
  0000b	59		 pop	 ecx
  0000c	59		 pop	 ecx
  0000d	c3		 ret	 0
__ehhandler$??$_Construct@UExpandSlotItemInfo@ioMessageBox4@@ABU12@@std@@YAXPAUExpandSlotItemInfo@ioMessageBox4@@ABU12@@Z:
  0000e	8b 54 24 08	 mov	 edx, DWORD PTR [esp+8]
  00012	8d 42 0c	 lea	 eax, DWORD PTR [edx+12]
  00015	8b 4a ec	 mov	 ecx, DWORD PTR [edx-20]
  00018	33 c8		 xor	 ecx, eax
  0001a	e8 00 00 00 00	 call	 @__security_check_cookie@4
  0001f	b8 00 00 00 00	 mov	 eax, OFFSET __ehfuncinfo$??$_Construct@UExpandSlotItemInfo@ioMessageBox4@@ABU12@@std@@YAXPAUExpandSlotItemInfo@ioMessageBox4@@ABU12@@Z
  00024	e9 00 00 00 00	 jmp	 ___CxxFrameHandler3
text$x	ENDS
??$_Construct@UExpandSlotItemInfo@ioMessageBox4@@ABU12@@std@@YAXPAUExpandSlotItemInfo@ioMessageBox4@@ABU12@@Z ENDP ; std::_Construct<ioMessageBox4::ExpandSlotItemInfo,ioMessageBox4::ExpandSlotItemInfo const &>
PUBLIC	??$_Destroy@UExpandSlotItemInfo@ioMessageBox4@@@std@@YAXPAUExpandSlotItemInfo@ioMessageBox4@@@Z ; std::_Destroy<ioMessageBox4::ExpandSlotItemInfo>
; Function compile flags: /Ogsp
;	COMDAT ??$_Destroy@UExpandSlotItemInfo@ioMessageBox4@@@std@@YAXPAUExpandSlotItemInfo@ioMessageBox4@@@Z
_TEXT	SEGMENT
__Ptr$ = 8						; size = 4
??$_Destroy@UExpandSlotItemInfo@ioMessageBox4@@@std@@YAXPAUExpandSlotItemInfo@ioMessageBox4@@@Z PROC ; std::_Destroy<ioMessageBox4::ExpandSlotItemInfo>, COMDAT

; 62   : 	{	// destroy object at _Ptr

  00000	55		 push	 ebp
  00001	8b ec		 mov	 ebp, esp

; 63   : 	_Ptr->~_Ty();

  00003	8b 4d 08	 mov	 ecx, DWORD PTR __Ptr$[ebp]
  00006	83 c1 04	 add	 ecx, 4

; 64   : 	}

  00009	5d		 pop	 ebp

; 63   : 	_Ptr->~_Ty();

  0000a	ff 25 00 00 00
	00		 jmp	 DWORD PTR __imp_??1ioHashString@@QAE@XZ
??$_Destroy@UExpandSlotItemInfo@ioMessageBox4@@@std@@YAXPAUExpandSlotItemInfo@ioMessageBox4@@@Z ENDP ; std::_Destroy<ioMessageBox4::ExpandSlotItemInfo>
_TEXT	ENDS
PUBLIC	?construct@?$allocator@UExpandSlotItemInfo@ioMessageBox4@@@std@@QAEXPAUExpandSlotItemInfo@ioMessageBox4@@$$QAU34@@Z ; std::allocator<ioMessageBox4::ExpandSlotItemInfo>::construct
;	COMDAT xdata$x
; File c:\program files (x86)\microsoft visual studio 10.0\vc\include\utility
xdata$x	SEGMENT
__unwindtable$?construct@?$allocator@UExpandSlotItemInfo@ioMessageBox4@@@std@@QAEXPAUExpandSlotItemInfo@ioMessageBox4@@$$QAU34@@Z DD 0ffffffffH
	DD	FLAT:__unwindfunclet$?construct@?$allocator@UExpandSlotItemInfo@ioMessageBox4@@@std@@QAEXPAUExpandSlotItemInfo@ioMessageBox4@@$$QAU34@@Z$0
__ehfuncinfo$?construct@?$allocator@UExpandSlotItemInfo@ioMessageBox4@@@std@@QAEXPAUExpandSlotItemInfo@ioMessageBox4@@$$QAU34@@Z DD 019930522H
	DD	01H
	DD	FLAT:__unwindtable$?construct@?$allocator@UExpandSlotItemInfo@ioMessageBox4@@@std@@QAEXPAUExpandSlotItemInfo@ioMessageBox4@@$$QAU34@@Z
	DD	2 DUP(00H)
	DD	2 DUP(00H)
	DD	00H
	DD	01H
; Function compile flags: /Ogsp
; File c:\program files (x86)\microsoft visual studio 10.0\vc\include\xmemory
xdata$x	ENDS
;	COMDAT ?construct@?$allocator@UExpandSlotItemInfo@ioMessageBox4@@@std@@QAEXPAUExpandSlotItemInfo@ioMessageBox4@@$$QAU34@@Z
_TEXT	SEGMENT
$T509292 = -16						; size = 4
__$EHRec$ = -12						; size = 12
__Ptr$ = 8						; size = 4
__Val$ = 12						; size = 4
?construct@?$allocator@UExpandSlotItemInfo@ioMessageBox4@@@std@@QAEXPAUExpandSlotItemInfo@ioMessageBox4@@$$QAU34@@Z PROC ; std::allocator<ioMessageBox4::ExpandSlotItemInfo>::construct, COMDAT
; _this$ = ecx

; 201  : 		{	// construct object at _Ptr with value _Val

  00000	6a 04		 push	 4
  00002	b8 00 00 00 00	 mov	 eax, __ehhandler$?construct@?$allocator@UExpandSlotItemInfo@ioMessageBox4@@@std@@QAEXPAUExpandSlotItemInfo@ioMessageBox4@@$$QAU34@@Z
  00007	e8 00 00 00 00	 call	 __EH_prolog3

; 202  : 		::new ((void _FARQ *)_Ptr) _Ty(_STD forward<_Ty>(_Val));

  0000c	8b 4d 08	 mov	 ecx, DWORD PTR __Ptr$[ebp]
  0000f	89 4d f0	 mov	 DWORD PTR $T509292[ebp], ecx
  00012	83 65 fc 00	 and	 DWORD PTR __$EHRec$[ebp+8], 0
  00016	85 c9		 test	 ecx, ecx
  00018	74 08		 je	 SHORT $LN3@construct@2
  0001a	ff 75 0c	 push	 DWORD PTR __Val$[ebp]
  0001d	e8 00 00 00 00	 call	 ??0ExpandSlotItemInfo@ioMessageBox4@@QAE@ABU01@@Z
$LN3@construct@2:

; 203  : 		}

  00022	e8 00 00 00 00	 call	 __EH_epilog3
  00027	c2 08 00	 ret	 8
_TEXT	ENDS
;	COMDAT text$x
text$x	SEGMENT
__unwindfunclet$?construct@?$allocator@UExpandSlotItemInfo@ioMessageBox4@@@std@@QAEXPAUExpandSlotItemInfo@ioMessageBox4@@$$QAU34@@Z$0:
  00000	ff 75 08	 push	 DWORD PTR __Ptr$[ebp]
  00003	ff 75 f0	 push	 DWORD PTR $T509292[ebp]
  00006	e8 00 00 00 00	 call	 ??3@YAXPAX0@Z		; operator delete
  0000b	59		 pop	 ecx
  0000c	59		 pop	 ecx
  0000d	c3		 ret	 0
__ehhandler$?construct@?$allocator@UExpandSlotItemInfo@ioMessageBox4@@@std@@QAEXPAUExpandSlotItemInfo@ioMessageBox4@@$$QAU34@@Z:
  0000e	8b 54 24 08	 mov	 edx, DWORD PTR [esp+8]
  00012	8d 42 0c	 lea	 eax, DWORD PTR [edx+12]
  00015	8b 4a ec	 mov	 ecx, DWORD PTR [edx-20]
  00018	33 c8		 xor	 ecx, eax
  0001a	e8 00 00 00 00	 call	 @__security_check_cookie@4
  0001f	b8 00 00 00 00	 mov	 eax, OFFSET __ehfuncinfo$?construct@?$allocator@UExpandSlotItemInfo@ioMessageBox4@@@std@@QAEXPAUExpandSlotItemInfo@ioMessageBox4@@$$QAU34@@Z
  00024	e9 00 00 00 00	 jmp	 ___CxxFrameHandler3
text$x	ENDS
?construct@?$allocator@UExpandSlotItemInfo@ioMessageBox4@@@std@@QAEXPAUExpandSlotItemInfo@ioMessageBox4@@$$QAU34@@Z ENDP ; std::allocator<ioMessageBox4::ExpandSlotItemInfo>::construct
PUBLIC	?IsEmpty@ioComplexStringPrinter@@QBE_NXZ	; ioComplexStringPrinter::IsEmpty
; Function compile flags: /Ogsp
; File d:\lost saga for developer\youtube\tutorial\source\src\lsclient\iocomplexstringprinter.h
;	COMDAT ?IsEmpty@ioComplexStringPrinter@@QBE_NXZ
_TEXT	SEGMENT
?IsEmpty@ioComplexStringPrinter@@QBE_NXZ PROC		; ioComplexStringPrinter::IsEmpty, COMDAT
; _this$ = ecx

; 124  : 	inline bool IsEmpty() const { return m_vPieceList.empty(); }

  00000	8b 41 0c	 mov	 eax, DWORD PTR [ecx+12]
  00003	2b 41 10	 sub	 eax, DWORD PTR [ecx+16]
  00006	f7 d8		 neg	 eax
  00008	1b c0		 sbb	 eax, eax
  0000a	40		 inc	 eax
  0000b	c3		 ret	 0
?IsEmpty@ioComplexStringPrinter@@QBE_NXZ ENDP		; ioComplexStringPrinter::IsEmpty
_TEXT	ENDS
PUBLIC	??B?$CEncrypt@K@@QBEKXZ				; CEncrypt<unsigned long>::operator unsigned long
; Function compile flags: /Ogsp
; File d:\lost saga for developer\youtube\tutorial\source\src\lsclient\encryptvalue.h
;	COMDAT ??B?$CEncrypt@K@@QBEKXZ
_TEXT	SEGMENT
_value$ = -4						; size = 4
??B?$CEncrypt@K@@QBEKXZ PROC				; CEncrypt<unsigned long>::operator unsigned long, COMDAT
; _this$ = ecx

; 145  : 	{

  00000	55		 push	 ebp
  00001	8b ec		 mov	 ebp, esp
  00003	51		 push	 ecx

; 146  : 		//UJ 130829, const    --start
; 147  : 		type value;
; 148  : 		CEncrypt<type>* pThis = const_cast<CEncrypt<type>*>(this);
; 149  : 		pThis->DecryptValueToPool(&value);

  00004	8d 45 fc	 lea	 eax, DWORD PTR _value$[ebp]
  00007	50		 push	 eax
  00008	e8 00 00 00 00	 call	 ?DecryptValueToPool@?$CEncrypt@K@@QAEXPAK@Z ; CEncrypt<unsigned long>::DecryptValueToPool

; 150  : 		//// const DecryptValueToPool     .
; 151  :  		//type value;
; 152  : 		//char szTempMem[MAX_ENCRYPT];
; 153  : 		//m_RC5.DecryptByte( m_MemPool, szTempMem, max(m_ValueSize, DEFAULT_ENCRYPT) );
; 154  : 		//memcpy( &value, szTempMem, m_ValueSize );
; 155  : 		//UJ --end
; 156  : 
; 157  : #ifdef _NOTUSE
; 158  : 		Debug();
; 159  : #endif
; 160  : 		return value;

  0000d	8b 45 fc	 mov	 eax, DWORD PTR _value$[ebp]

; 161  : 	}

  00010	c9		 leave
  00011	c3		 ret	 0
??B?$CEncrypt@K@@QBEKXZ ENDP				; CEncrypt<unsigned long>::operator unsigned long
_TEXT	ENDS
PUBLIC	__$ArrayPad$
EXTRN	__imp_?ParseExtraInfo@ioButton@@UAEXAAVioXMLElement@@@Z:PROC
; Function compile flags: /Ogsp
; File d:\lost saga for developer\youtube\tutorial\source\src\lsclient\gui\iomessagebox4.cpp
;	COMDAT ?ParseExtraInfo@ioMessageBox4Btn@@UAEXAAVioXMLElement@@@Z
_TEXT	SEGMENT
__k$509334 = -20					; size = 10
__$ArrayPad$ = -4					; size = 4
_xElement$ = 8						; size = 4
?ParseExtraInfo@ioMessageBox4Btn@@UAEXAAVioXMLElement@@@Z PROC ; ioMessageBox4Btn::ParseExtraInfo, COMDAT
; _this$ = ecx

; 45   : {

  00000	55		 push	 ebp
  00001	8b ec		 mov	 ebp, esp
  00003	83 ec 14	 sub	 esp, 20			; 00000014H
  00006	a1 00 00 00 00	 mov	 eax, DWORD PTR ___security_cookie
  0000b	33 c5		 xor	 eax, ebp
  0000d	89 45 fc	 mov	 DWORD PTR __$ArrayPad$[ebp], eax
  00010	56		 push	 esi
  00011	8b 75 08	 mov	 esi, DWORD PTR _xElement$[ebp]
  00014	57		 push	 edi

; 46   : 	m_szTitleName  = xElement.GetStringAttribute_e( "TitleName" );

  00015	6a 02		 push	 2
  00017	8b f9		 mov	 edi, ecx
  00019	c7 45 ec b9 85
	9f 86		 mov	 DWORD PTR __k$509334[ebp], -2036365895 ; 869f85b9H
  00020	c7 45 f0 88 a2
	8a 87		 mov	 DWORD PTR __k$509334[ebp+4], -2020957560 ; 878aa288H
  00027	8d 45 ec	 lea	 eax, DWORD PTR __k$509334[ebp]
  0002a	66 c7 45 f4 88
	00		 mov	 WORD PTR __k$509334[ebp+8], 136 ; 00000088H
  00030	59		 pop	 ecx
$LL106@ParseExtra:
  00031	81 30 ed ec eb
	ea		 xor	 DWORD PTR [eax], -353637139 ; eaebecedH
  00037	83 c0 04	 add	 eax, 4
  0003a	49		 dec	 ecx
  0003b	75 f4		 jne	 SHORT $LL106@ParseExtra
  0003d	80 75 f4 ed	 xor	 BYTE PTR __k$509334[ebp+8], -19 ; ffffffedH
  00041	8d 45 ec	 lea	 eax, DWORD PTR __k$509334[ebp]
  00044	50		 push	 eax
  00045	8b ce		 mov	 ecx, esi
  00047	ff 15 00 00 00
	00		 call	 DWORD PTR __imp_?GetStringAttribute@ioXMLElement@@QBEPBDPBD@Z
  0004d	50		 push	 eax
  0004e	8d 8f fc 01 00
	00		 lea	 ecx, DWORD PTR [edi+508]
  00054	ff 15 00 00 00
	00		 call	 DWORD PTR __imp_??4ioHashString@@QAEAAV0@PBD@Z

; 47   : 
; 48   : 	ioButton::ParseExtraInfo( xElement );

  0005a	56		 push	 esi
  0005b	8b cf		 mov	 ecx, edi
  0005d	ff 15 00 00 00
	00		 call	 DWORD PTR __imp_?ParseExtraInfo@ioButton@@UAEXAAVioXMLElement@@@Z

; 49   : }

  00063	8b 4d fc	 mov	 ecx, DWORD PTR __$ArrayPad$[ebp]
  00066	5f		 pop	 edi
  00067	33 cd		 xor	 ecx, ebp
  00069	5e		 pop	 esi
  0006a	e8 00 00 00 00	 call	 @__security_check_cookie@4
  0006f	c9		 leave
  00070	c2 04 00	 ret	 4
?ParseExtraInfo@ioMessageBox4Btn@@UAEXAAVioXMLElement@@@Z ENDP ; ioMessageBox4Btn::ParseExtraInfo
_TEXT	ENDS
PUBLIC	_pImage$GSCopy$
PUBLIC	_this$GSCopy$
PUBLIC	_szType$GSCopy$
PUBLIC	__$ArrayPad$
PUBLIC	?AddRenderImage@ioMessageBox4@@UAEXABVioHashString@@PAVioUIRenderImage@@@Z ; ioMessageBox4::AddRenderImage
EXTRN	__imp_?AddRenderImage@ioWnd@@UAEXABVioHashString@@PAVioUIRenderImage@@@Z:PROC
; Function compile flags: /Ogsp
;	COMDAT ?AddRenderImage@ioMessageBox4@@UAEXABVioHashString@@PAVioUIRenderImage@@@Z
_TEXT	SEGMENT
_pImage$GSCopy$ = -36					; size = 4
_this$GSCopy$ = -32					; size = 4
_szType$GSCopy$ = -28					; size = 4
__t$509858 = -24					; size = 15
__t$509736 = -24					; size = 14
__t$509608 = -24					; size = 16
__t$509483 = -24					; size = 15
__$ArrayPad$ = -4					; size = 4
_szType$ = 8						; size = 4
_pImage$ = 12						; size = 4
?AddRenderImage@ioMessageBox4@@UAEXABVioHashString@@PAVioUIRenderImage@@@Z PROC ; ioMessageBox4::AddRenderImage, COMDAT
; _this$ = ecx

; 116  : {

  00000	55		 push	 ebp
  00001	8b ec		 mov	 ebp, esp
  00003	83 ec 24	 sub	 esp, 36			; 00000024H
  00006	a1 00 00 00 00	 mov	 eax, DWORD PTR ___security_cookie
  0000b	33 c5		 xor	 eax, ebp
  0000d	89 45 fc	 mov	 DWORD PTR __$ArrayPad$[ebp], eax
  00010	8b 45 08	 mov	 eax, DWORD PTR _szType$[ebp]
  00013	53		 push	 ebx

; 133  : 		}
; 134  : 		else if( szType == "StripGrayLight" )

  00014	89 45 e4	 mov	 DWORD PTR _szType$GSCopy$[ebp], eax
  00017	8b 45 0c	 mov	 eax, DWORD PTR _pImage$[ebp]
  0001a	33 db		 xor	 ebx, ebx
  0001c	89 4d e0	 mov	 DWORD PTR _this$GSCopy$[ebp], ecx
  0001f	89 45 dc	 mov	 DWORD PTR _pImage$GSCopy$[ebp], eax
  00022	3b c3		 cmp	 eax, ebx
  00024	0f 84 a1 02 00
	00		 je	 $LN1@AddRenderI

; 117  : 	if( pImage )
; 118  : 	{
; 119  : 		if( szType == "IconBackEnable" )

  0002a	6a 03		 push	 3
  0002c	c7 45 e8 a4 8f
	84 84		 mov	 DWORD PTR __t$509483[ebp], -2071687260 ; 84848fa4H
  00033	c7 45 ec af 8d
	88 81		 mov	 DWORD PTR __t$509483[ebp+4], -2121757265 ; 81888dafH
  0003a	c7 45 f0 a8 82
	8a 88		 mov	 DWORD PTR __t$509483[ebp+8], -2004188504 ; 888a82a8H
  00041	66 c7 45 f4 81
	89		 mov	 WORD PTR __t$509483[ebp+12], 35201 ; 00008981H
  00047	8d 45 e8	 lea	 eax, DWORD PTR __t$509483[ebp]
  0004a	88 5d f6	 mov	 BYTE PTR __t$509483[ebp+14], bl
  0004d	59		 pop	 ecx
$LL127@AddRenderI:
  0004e	81 30 ed ec eb
	ea		 xor	 DWORD PTR [eax], -353637139 ; eaebecedH
  00054	83 c0 04	 add	 eax, 4
  00057	49		 dec	 ecx
  00058	75 f4		 jne	 SHORT $LL127@AddRenderI
  0005a	6a 0c		 push	 12			; 0000000cH
  0005c	58		 pop	 eax
$LL124@AddRenderI:
  0005d	8b c8		 mov	 ecx, eax
  0005f	81 e1 03 00 00
	80		 and	 ecx, -2147483645	; 80000003H
  00065	79 05		 jns	 SHORT $LN484@AddRenderI
  00067	49		 dec	 ecx
  00068	83 c9 fc	 or	 ecx, -4			; fffffffcH
  0006b	41		 inc	 ecx
$LN484@AddRenderI:
  0006c	b2 ed		 mov	 dl, -19			; ffffffedH
  0006e	2a d1		 sub	 dl, cl
  00070	30 54 05 e8	 xor	 BYTE PTR __t$509483[ebp+eax], dl
  00074	40		 inc	 eax
  00075	83 f8 0e	 cmp	 eax, 14			; 0000000eH
  00078	7c e3		 jl	 SHORT $LL124@AddRenderI
  0007a	8b 4d e4	 mov	 ecx, DWORD PTR _szType$GSCopy$[ebp]
  0007d	56		 push	 esi
  0007e	8d 75 e8	 lea	 esi, DWORD PTR __t$509483[ebp]
  00081	ff 15 00 00 00
	00		 call	 DWORD PTR __imp_?c_str@ioHashString@@QBEPBDXZ
$LL467@AddRenderI:
  00087	8a 08		 mov	 cl, BYTE PTR [eax]
  00089	3a 0e		 cmp	 cl, BYTE PTR [esi]
  0008b	75 1a		 jne	 SHORT $LN468@AddRenderI
  0008d	3a cb		 cmp	 cl, bl
  0008f	74 12		 je	 SHORT $LN469@AddRenderI
  00091	8a 48 01	 mov	 cl, BYTE PTR [eax+1]
  00094	3a 4e 01	 cmp	 cl, BYTE PTR [esi+1]
  00097	75 0e		 jne	 SHORT $LN468@AddRenderI
  00099	83 c0 02	 add	 eax, 2
  0009c	83 c6 02	 add	 esi, 2
  0009f	3a cb		 cmp	 cl, bl
  000a1	75 e4		 jne	 SHORT $LL467@AddRenderI
$LN469@AddRenderI:
  000a3	33 c0		 xor	 eax, eax
  000a5	eb 05		 jmp	 SHORT $LN470@AddRenderI
$LN468@AddRenderI:
  000a7	1b c0		 sbb	 eax, eax
  000a9	83 d8 ff	 sbb	 eax, -1
$LN470@AddRenderI:
  000ac	3b c3		 cmp	 eax, ebx
  000ae	75 28		 jne	 SHORT $LN464@AddRenderI

; 120  : 		{
; 121  : 			SAFEDELETE( m_pIconBackEnable );

  000b0	8b 75 e0	 mov	 esi, DWORD PTR _this$GSCopy$[ebp]
  000b3	8b 8e 64 01 00
	00		 mov	 ecx, DWORD PTR [esi+356]
  000b9	3b cb		 cmp	 ecx, ebx
  000bb	74 0d		 je	 SHORT $LN11@AddRenderI
  000bd	8b 01		 mov	 eax, DWORD PTR [ecx]
  000bf	6a 01		 push	 1
  000c1	ff 50 40	 call	 DWORD PTR [eax+64]
  000c4	89 9e 64 01 00
	00		 mov	 DWORD PTR [esi+356], ebx
$LN11@AddRenderI:

; 122  : 			m_pIconBackEnable = pImage;

  000ca	8b 45 dc	 mov	 eax, DWORD PTR _pImage$GSCopy$[ebp]
  000cd	89 86 64 01 00
	00		 mov	 DWORD PTR [esi+356], eax
  000d3	e9 f2 01 00 00	 jmp	 $LN483@AddRenderI
$LN464@AddRenderI:

; 123  : 		}
; 124  : 		else if( szType == "IconBackDisable" )

  000d8	6a 03		 push	 3
  000da	c7 45 e8 a4 8f
	84 84		 mov	 DWORD PTR __t$509608[ebp], -2071687260 ; 84848fa4H
  000e1	c7 45 ec af 8d
	88 81		 mov	 DWORD PTR __t$509608[ebp+4], -2121757265 ; 81888dafH
  000e8	c7 45 f0 a9 85
	98 8b		 mov	 DWORD PTR __t$509608[ebp+8], -1952938583 ; 8b9885a9H
  000ef	8d 45 e8	 lea	 eax, DWORD PTR __t$509608[ebp]
  000f2	c7 45 f4 8f 80
	8e 00		 mov	 DWORD PTR __t$509608[ebp+12], 9339023 ; 008e808fH
  000f9	59		 pop	 ecx
$LL233@AddRenderI:
  000fa	81 30 ed ec eb
	ea		 xor	 DWORD PTR [eax], -353637139 ; eaebecedH
  00100	83 c0 04	 add	 eax, 4
  00103	49		 dec	 ecx
  00104	75 f4		 jne	 SHORT $LL233@AddRenderI
  00106	6a 0c		 push	 12			; 0000000cH
  00108	58		 pop	 eax
$LL230@AddRenderI:
  00109	8b c8		 mov	 ecx, eax
  0010b	81 e1 03 00 00
	80		 and	 ecx, -2147483645	; 80000003H
  00111	79 05		 jns	 SHORT $LN485@AddRenderI
  00113	49		 dec	 ecx
  00114	83 c9 fc	 or	 ecx, -4			; fffffffcH
  00117	41		 inc	 ecx
$LN485@AddRenderI:
  00118	b2 ed		 mov	 dl, -19			; ffffffedH
  0011a	2a d1		 sub	 dl, cl
  0011c	30 54 05 e8	 xor	 BYTE PTR __t$509608[ebp+eax], dl
  00120	40		 inc	 eax
  00121	83 f8 0f	 cmp	 eax, 15			; 0000000fH
  00124	7c e3		 jl	 SHORT $LL230@AddRenderI
  00126	8b 4d e4	 mov	 ecx, DWORD PTR _szType$GSCopy$[ebp]
  00129	8d 75 e8	 lea	 esi, DWORD PTR __t$509608[ebp]
  0012c	ff 15 00 00 00
	00		 call	 DWORD PTR __imp_?c_str@ioHashString@@QBEPBDXZ
$LL471@AddRenderI:
  00132	8a 08		 mov	 cl, BYTE PTR [eax]
  00134	3a 0e		 cmp	 cl, BYTE PTR [esi]
  00136	75 1a		 jne	 SHORT $LN472@AddRenderI
  00138	3a cb		 cmp	 cl, bl
  0013a	74 12		 je	 SHORT $LN473@AddRenderI
  0013c	8a 48 01	 mov	 cl, BYTE PTR [eax+1]
  0013f	3a 4e 01	 cmp	 cl, BYTE PTR [esi+1]
  00142	75 0e		 jne	 SHORT $LN472@AddRenderI
  00144	83 c0 02	 add	 eax, 2
  00147	83 c6 02	 add	 esi, 2
  0014a	3a cb		 cmp	 cl, bl
  0014c	75 e4		 jne	 SHORT $LL471@AddRenderI
$LN473@AddRenderI:
  0014e	33 c0		 xor	 eax, eax
  00150	eb 05		 jmp	 SHORT $LN474@AddRenderI
$LN472@AddRenderI:
  00152	1b c0		 sbb	 eax, eax
  00154	83 d8 ff	 sbb	 eax, -1
$LN474@AddRenderI:
  00157	3b c3		 cmp	 eax, ebx
  00159	75 28		 jne	 SHORT $LN465@AddRenderI

; 125  : 		{
; 126  : 			SAFEDELETE( m_pIconBackDisable );

  0015b	8b 75 e0	 mov	 esi, DWORD PTR _this$GSCopy$[ebp]
  0015e	8b 8e 68 01 00
	00		 mov	 ecx, DWORD PTR [esi+360]
  00164	3b cb		 cmp	 ecx, ebx
  00166	74 0d		 je	 SHORT $LN8@AddRenderI
  00168	8b 01		 mov	 eax, DWORD PTR [ecx]
  0016a	6a 01		 push	 1
  0016c	ff 50 40	 call	 DWORD PTR [eax+64]
  0016f	89 9e 68 01 00
	00		 mov	 DWORD PTR [esi+360], ebx
$LN8@AddRenderI:

; 127  : 			m_pIconBackDisable = pImage;

  00175	8b 45 dc	 mov	 eax, DWORD PTR _pImage$GSCopy$[ebp]
  00178	89 86 68 01 00
	00		 mov	 DWORD PTR [esi+360], eax
  0017e	e9 47 01 00 00	 jmp	 $LN483@AddRenderI
$LN465@AddRenderI:

; 128  : 		}
; 129  : 		else if( szType == "StripGrayDark" )

  00183	6a 03		 push	 3
  00185	c7 45 e8 be 98
	99 83		 mov	 DWORD PTR __t$509736[ebp], -2087085890 ; 839998beH
  0018c	c7 45 ec 9d ab
	99 8b		 mov	 DWORD PTR __t$509736[ebp+4], -1952863331 ; 8b99ab9dH
  00193	c7 45 f0 94 a8
	8a 98		 mov	 DWORD PTR __t$509736[ebp+8], -1735743340 ; 988aa894H
  0019a	8d 45 e8	 lea	 eax, DWORD PTR __t$509736[ebp]
  0019d	66 c7 45 f4 86
	00		 mov	 WORD PTR __t$509736[ebp+12], 134 ; 00000086H
  001a3	59		 pop	 ecx
$LL339@AddRenderI:
  001a4	81 30 ed ec eb
	ea		 xor	 DWORD PTR [eax], -353637139 ; eaebecedH
  001aa	83 c0 04	 add	 eax, 4
  001ad	49		 dec	 ecx
  001ae	75 f4		 jne	 SHORT $LL339@AddRenderI
  001b0	8b 4d e4	 mov	 ecx, DWORD PTR _szType$GSCopy$[ebp]
  001b3	80 75 f4 ed	 xor	 BYTE PTR __t$509736[ebp+12], -19 ; ffffffedH
  001b7	8d 75 e8	 lea	 esi, DWORD PTR __t$509736[ebp]
  001ba	ff 15 00 00 00
	00		 call	 DWORD PTR __imp_?c_str@ioHashString@@QBEPBDXZ
$LL475@AddRenderI:
  001c0	8a 08		 mov	 cl, BYTE PTR [eax]
  001c2	3a 0e		 cmp	 cl, BYTE PTR [esi]
  001c4	75 1a		 jne	 SHORT $LN476@AddRenderI
  001c6	3a cb		 cmp	 cl, bl
  001c8	74 12		 je	 SHORT $LN477@AddRenderI
  001ca	8a 48 01	 mov	 cl, BYTE PTR [eax+1]
  001cd	3a 4e 01	 cmp	 cl, BYTE PTR [esi+1]
  001d0	75 0e		 jne	 SHORT $LN476@AddRenderI
  001d2	83 c0 02	 add	 eax, 2
  001d5	83 c6 02	 add	 esi, 2
  001d8	3a cb		 cmp	 cl, bl
  001da	75 e4		 jne	 SHORT $LL475@AddRenderI
$LN477@AddRenderI:
  001dc	33 c0		 xor	 eax, eax
  001de	eb 05		 jmp	 SHORT $LN478@AddRenderI
$LN476@AddRenderI:
  001e0	1b c0		 sbb	 eax, eax
  001e2	83 d8 ff	 sbb	 eax, -1
$LN478@AddRenderI:
  001e5	3b c3		 cmp	 eax, ebx
  001e7	75 28		 jne	 SHORT $LN466@AddRenderI

; 130  : 		{
; 131  : 			SAFEDELETE( m_pDarkLine );

  001e9	8b 75 e0	 mov	 esi, DWORD PTR _this$GSCopy$[ebp]
  001ec	8b 8e 70 01 00
	00		 mov	 ecx, DWORD PTR [esi+368]
  001f2	3b cb		 cmp	 ecx, ebx
  001f4	74 0d		 je	 SHORT $LN5@AddRenderI
  001f6	8b 01		 mov	 eax, DWORD PTR [ecx]
  001f8	6a 01		 push	 1
  001fa	ff 50 40	 call	 DWORD PTR [eax+64]
  001fd	89 9e 70 01 00
	00		 mov	 DWORD PTR [esi+368], ebx
$LN5@AddRenderI:

; 132  : 			m_pDarkLine = pImage;

  00203	8b 45 dc	 mov	 eax, DWORD PTR _pImage$GSCopy$[ebp]
  00206	89 86 70 01 00
	00		 mov	 DWORD PTR [esi+368], eax
  0020c	e9 b9 00 00 00	 jmp	 $LN483@AddRenderI
$LN466@AddRenderI:

; 133  : 		}
; 134  : 		else if( szType == "StripGrayLight" )

  00211	6a 03		 push	 3
  00213	c7 45 e8 be 98
	99 83		 mov	 DWORD PTR __t$509858[ebp], -2087085890 ; 839998beH
  0021a	c7 45 ec 9d ab
	99 8b		 mov	 DWORD PTR __t$509858[ebp+4], -1952863331 ; 8b99ab9dH
  00221	c7 45 f0 94 a0
	82 8d		 mov	 DWORD PTR __t$509858[ebp+8], -1920819052 ; 8d82a094H
  00228	66 c7 45 f4 85
	98		 mov	 WORD PTR __t$509858[ebp+12], 39045 ; 00009885H
  0022e	8d 45 e8	 lea	 eax, DWORD PTR __t$509858[ebp]
  00231	88 5d f6	 mov	 BYTE PTR __t$509858[ebp+14], bl
  00234	59		 pop	 ecx
$LL445@AddRenderI:
  00235	81 30 ed ec eb
	ea		 xor	 DWORD PTR [eax], -353637139 ; eaebecedH
  0023b	83 c0 04	 add	 eax, 4
  0023e	49		 dec	 ecx
  0023f	75 f4		 jne	 SHORT $LL445@AddRenderI
  00241	6a 0c		 push	 12			; 0000000cH
  00243	58		 pop	 eax
$LL442@AddRenderI:
  00244	8b c8		 mov	 ecx, eax
  00246	81 e1 03 00 00
	80		 and	 ecx, -2147483645	; 80000003H
  0024c	79 05		 jns	 SHORT $LN486@AddRenderI
  0024e	49		 dec	 ecx
  0024f	83 c9 fc	 or	 ecx, -4			; fffffffcH
  00252	41		 inc	 ecx
$LN486@AddRenderI:
  00253	b2 ed		 mov	 dl, -19			; ffffffedH
  00255	2a d1		 sub	 dl, cl
  00257	30 54 05 e8	 xor	 BYTE PTR __t$509858[ebp+eax], dl
  0025b	40		 inc	 eax
  0025c	83 f8 0e	 cmp	 eax, 14			; 0000000eH
  0025f	7c e3		 jl	 SHORT $LL442@AddRenderI
  00261	8b 4d e4	 mov	 ecx, DWORD PTR _szType$GSCopy$[ebp]
  00264	8d 75 e8	 lea	 esi, DWORD PTR __t$509858[ebp]
  00267	ff 15 00 00 00
	00		 call	 DWORD PTR __imp_?c_str@ioHashString@@QBEPBDXZ
$LL479@AddRenderI:
  0026d	8a 08		 mov	 cl, BYTE PTR [eax]
  0026f	3a 0e		 cmp	 cl, BYTE PTR [esi]
  00271	75 1a		 jne	 SHORT $LN480@AddRenderI
  00273	3a cb		 cmp	 cl, bl
  00275	74 12		 je	 SHORT $LN481@AddRenderI
  00277	8a 48 01	 mov	 cl, BYTE PTR [eax+1]
  0027a	3a 4e 01	 cmp	 cl, BYTE PTR [esi+1]
  0027d	75 0e		 jne	 SHORT $LN480@AddRenderI
  0027f	83 c0 02	 add	 eax, 2
  00282	83 c6 02	 add	 esi, 2
  00285	3a cb		 cmp	 cl, bl
  00287	75 e4		 jne	 SHORT $LL479@AddRenderI
$LN481@AddRenderI:
  00289	33 c0		 xor	 eax, eax
  0028b	eb 05		 jmp	 SHORT $LN482@AddRenderI
$LN480@AddRenderI:
  0028d	1b c0		 sbb	 eax, eax
  0028f	83 d8 ff	 sbb	 eax, -1
$LN482@AddRenderI:
  00292	3b c3		 cmp	 eax, ebx
  00294	75 25		 jne	 SHORT $LN3@AddRenderI

; 135  : 		{
; 136  : 			SAFEDELETE( m_pLightLine );

  00296	8b 75 e0	 mov	 esi, DWORD PTR _this$GSCopy$[ebp]
  00299	8b 8e 74 01 00
	00		 mov	 ecx, DWORD PTR [esi+372]
  0029f	3b cb		 cmp	 ecx, ebx
  002a1	74 0d		 je	 SHORT $LN2@AddRenderI
  002a3	8b 01		 mov	 eax, DWORD PTR [ecx]
  002a5	6a 01		 push	 1
  002a7	ff 50 40	 call	 DWORD PTR [eax+64]
  002aa	89 9e 74 01 00
	00		 mov	 DWORD PTR [esi+372], ebx
$LN2@AddRenderI:

; 137  : 			m_pLightLine = pImage;

  002b0	8b 45 dc	 mov	 eax, DWORD PTR _pImage$GSCopy$[ebp]
  002b3	89 86 74 01 00
	00		 mov	 DWORD PTR [esi+372], eax

; 138  : 		}
; 139  : 		else

  002b9	eb 0f		 jmp	 SHORT $LN483@AddRenderI
$LN3@AddRenderI:

; 140  : 			ioWnd::AddRenderImage( szType, pImage );

  002bb	ff 75 dc	 push	 DWORD PTR _pImage$GSCopy$[ebp]
  002be	8b 4d e0	 mov	 ecx, DWORD PTR _this$GSCopy$[ebp]
  002c1	ff 75 e4	 push	 DWORD PTR _szType$GSCopy$[ebp]
  002c4	ff 15 00 00 00
	00		 call	 DWORD PTR __imp_?AddRenderImage@ioWnd@@UAEXABVioHashString@@PAVioUIRenderImage@@@Z
$LN483@AddRenderI:
  002ca	5e		 pop	 esi
$LN1@AddRenderI:

; 141  : 	}
; 142  : }

  002cb	8b 4d fc	 mov	 ecx, DWORD PTR __$ArrayPad$[ebp]
  002ce	33 cd		 xor	 ecx, ebp
  002d0	5b		 pop	 ebx
  002d1	e8 00 00 00 00	 call	 @__security_check_cookie@4
  002d6	c9		 leave
  002d7	c2 08 00	 ret	 8
?AddRenderImage@ioMessageBox4@@UAEXABVioHashString@@PAVioUIRenderImage@@@Z ENDP ; ioMessageBox4::AddRenderImage
_TEXT	ENDS
PUBLIC	_this$GSCopy$
PUBLIC	__$ArrayPad$
PUBLIC	?AddRenderFrame@ioMessageBox4@@UAEXABVioHashString@@PAVioUIRenderFrame@@@Z ; ioMessageBox4::AddRenderFrame
EXTRN	__imp_?AddRenderFrame@ioWnd@@UAEXABVioHashString@@PAVioUIRenderFrame@@@Z:PROC
; Function compile flags: /Ogsp
;	COMDAT ?AddRenderFrame@ioMessageBox4@@UAEXABVioHashString@@PAVioUIRenderFrame@@@Z
_TEXT	SEGMENT
_this$GSCopy$ = -24					; size = 4
__t$510077 = -20					; size = 10
__$ArrayPad$ = -4					; size = 4
_szType$ = 8						; size = 4
_pFrame$ = 12						; size = 4
?AddRenderFrame@ioMessageBox4@@UAEXABVioHashString@@PAVioUIRenderFrame@@@Z PROC ; ioMessageBox4::AddRenderFrame, COMDAT
; _this$ = ecx

; 145  : {

  00000	55		 push	 ebp
  00001	8b ec		 mov	 ebp, esp
  00003	83 ec 18	 sub	 esp, 24			; 00000018H
  00006	a1 00 00 00 00	 mov	 eax, DWORD PTR ___security_cookie
  0000b	33 c5		 xor	 eax, ebp
  0000d	89 45 fc	 mov	 DWORD PTR __$ArrayPad$[ebp], eax
  00010	53		 push	 ebx
  00011	8b 5d 0c	 mov	 ebx, DWORD PTR _pFrame$[ebp]
  00014	57		 push	 edi
  00015	8b 7d 08	 mov	 edi, DWORD PTR _szType$[ebp]
  00018	89 4d e8	 mov	 DWORD PTR _this$GSCopy$[ebp], ecx

; 146  : 	if( pFrame )

  0001b	85 db		 test	 ebx, ebx
  0001d	0f 84 8e 00 00
	00		 je	 $LN1@AddRenderF

; 147  : 	{
; 148  : 		if( szType == "BottomFrm" )

  00023	6a 02		 push	 2
  00025	c7 45 ec af 83
	9f 9e		 mov	 DWORD PTR __t$510077[ebp], -1633713233 ; 9e9f83afH
  0002c	c7 45 f0 82 81
	ad 98		 mov	 DWORD PTR __t$510077[ebp+4], -1733459582 ; 98ad8182H
  00033	8d 45 ec	 lea	 eax, DWORD PTR __t$510077[ebp]
  00036	66 c7 45 f4 80
	00		 mov	 WORD PTR __t$510077[ebp+8], 128 ; 00000080H
  0003c	59		 pop	 ecx
$LL112@AddRenderF:
  0003d	81 30 ed ec eb
	ea		 xor	 DWORD PTR [eax], -353637139 ; eaebecedH
  00043	83 c0 04	 add	 eax, 4
  00046	49		 dec	 ecx
  00047	75 f4		 jne	 SHORT $LL112@AddRenderF
  00049	80 75 f4 ed	 xor	 BYTE PTR __t$510077[ebp+8], -19 ; ffffffedH
  0004d	56		 push	 esi
  0004e	8b cf		 mov	 ecx, edi
  00050	8d 75 ec	 lea	 esi, DWORD PTR __t$510077[ebp]
  00053	ff 15 00 00 00
	00		 call	 DWORD PTR __imp_?c_str@ioHashString@@QBEPBDXZ
$LL119@AddRenderF:
  00059	8a 08		 mov	 cl, BYTE PTR [eax]
  0005b	3a 0e		 cmp	 cl, BYTE PTR [esi]
  0005d	75 1a		 jne	 SHORT $LN120@AddRenderF
  0005f	84 c9		 test	 cl, cl
  00061	74 12		 je	 SHORT $LN121@AddRenderF
  00063	8a 48 01	 mov	 cl, BYTE PTR [eax+1]
  00066	3a 4e 01	 cmp	 cl, BYTE PTR [esi+1]
  00069	75 0e		 jne	 SHORT $LN120@AddRenderF
  0006b	83 c0 02	 add	 eax, 2
  0006e	83 c6 02	 add	 esi, 2
  00071	84 c9		 test	 cl, cl
  00073	75 e4		 jne	 SHORT $LL119@AddRenderF
$LN121@AddRenderF:
  00075	33 c0		 xor	 eax, eax
  00077	eb 05		 jmp	 SHORT $LN122@AddRenderF
$LN120@AddRenderF:
  00079	1b c0		 sbb	 eax, eax
  0007b	83 d8 ff	 sbb	 eax, -1
$LN122@AddRenderF:
  0007e	85 c0		 test	 eax, eax
  00080	75 23		 jne	 SHORT $LN3@AddRenderF

; 149  : 		{
; 150  : 			SAFEDELETE( m_pBottomFrm );

  00082	8b 75 e8	 mov	 esi, DWORD PTR _this$GSCopy$[ebp]
  00085	8b 8e 6c 01 00
	00		 mov	 ecx, DWORD PTR [esi+364]
  0008b	85 c9		 test	 ecx, ecx
  0008d	74 0e		 je	 SHORT $LN2@AddRenderF
  0008f	8b 01		 mov	 eax, DWORD PTR [ecx]
  00091	6a 01		 push	 1
  00093	ff 50 40	 call	 DWORD PTR [eax+64]
  00096	83 a6 6c 01 00
	00 00		 and	 DWORD PTR [esi+364], 0
$LN2@AddRenderF:

; 151  : 			m_pBottomFrm = pFrame;

  0009d	89 9e 6c 01 00
	00		 mov	 DWORD PTR [esi+364], ebx

; 152  : 		}
; 153  : 		else

  000a3	eb 0b		 jmp	 SHORT $LN123@AddRenderF
$LN3@AddRenderF:

; 154  : 			ioWnd::AddRenderFrame( szType, pFrame );

  000a5	8b 4d e8	 mov	 ecx, DWORD PTR _this$GSCopy$[ebp]
  000a8	53		 push	 ebx
  000a9	57		 push	 edi
  000aa	ff 15 00 00 00
	00		 call	 DWORD PTR __imp_?AddRenderFrame@ioWnd@@UAEXABVioHashString@@PAVioUIRenderFrame@@@Z
$LN123@AddRenderF:
  000b0	5e		 pop	 esi
$LN1@AddRenderF:

; 155  : 	}
; 156  : }

  000b1	8b 4d fc	 mov	 ecx, DWORD PTR __$ArrayPad$[ebp]
  000b4	5f		 pop	 edi
  000b5	33 cd		 xor	 ecx, ebp
  000b7	5b		 pop	 ebx
  000b8	e8 00 00 00 00	 call	 @__security_check_cookie@4
  000bd	c9		 leave
  000be	c2 08 00	 ret	 8
?AddRenderFrame@ioMessageBox4@@UAEXABVioHashString@@PAVioUIRenderFrame@@@Z ENDP ; ioMessageBox4::AddRenderFrame
_TEXT	ENDS
PUBLIC	??_C@_0BN@NKGIDBPH@ioMessageBox4?3?3ReBatchButton?$AA@ ; `string'
PUBLIC	_this$GSCopy$
PUBLIC	??_R0?AVioEtcItem@@@8				; ioEtcItem `RTTI Type Descriptor'
PUBLIC	??_R0?AVioEtcItemExpandMedalSlot@@@8		; ioEtcItemExpandMedalSlot `RTTI Type Descriptor'
PUBLIC	__$ArrayPad$
PUBLIC	?ReBatchButton@ioMessageBox4@@MAEXXZ		; ioMessageBox4::ReBatchButton
EXTRN	__imp_?ShowChildWnd@ioWnd@@QAEXK_N@Z:PROC
EXTRN	__imp_?GetYPos@ioWnd@@QBEHXZ:PROC
EXTRN	__imp_?SetWndPos@ioWnd@@QAEXHH@Z:PROC
EXTRN	__imp_?GetHeight@ioWnd@@QBEHXZ:PROC
EXTRN	__imp_?SafeSprintf@@YAXPADHPBD1@Z:PROC
EXTRN	__imp_?GetString@ioStringManager@@QAEPADPBD0HW4FileNamePrefix@1@@Z:PROC
EXTRN	__imp_?GetSingleton@ioStringManager@@SAAAV1@XZ:PROC
EXTRN	?FindEtcItem@ioEtcItemManager@@QAEPAVioEtcItem@@K@Z:PROC ; ioEtcItemManager::FindEtcItem
;	COMDAT ??_C@_0BN@NKGIDBPH@ioMessageBox4?3?3ReBatchButton?$AA@
; File d:\lost saga for developer\youtube\tutorial\source\src\lsclient\ioetcitem.h
CONST	SEGMENT
??_C@_0BN@NKGIDBPH@ioMessageBox4?3?3ReBatchButton?$AA@ DB 'ioMessageBox4:'
	DB	':ReBatchButton', 00H			; `string'
CONST	ENDS
;	COMDAT ??_R0?AVioEtcItem@@@8
_DATA	SEGMENT
??_R0?AVioEtcItem@@@8 DD FLAT:??_7type_info@@6B@	; ioEtcItem `RTTI Type Descriptor'
	DD	00H
	DB	'.?AVioEtcItem@@', 00H
_DATA	ENDS
;	COMDAT ??_R0?AVioEtcItemExpandMedalSlot@@@8
_DATA	SEGMENT
??_R0?AVioEtcItemExpandMedalSlot@@@8 DD FLAT:??_7type_info@@6B@ ; ioEtcItemExpandMedalSlot `RTTI Type Descriptor'
	DD	00H
	DB	'.?AVioEtcItemExpandMedalSlot@@', 00H
; Function compile flags: /Ogsp
; File d:\lost saga for developer\youtube\tutorial\source\src\lsclient\gui\iomessagebox4.cpp
_DATA	ENDS
;	COMDAT ?ReBatchButton@ioMessageBox4@@MAEXXZ
_TEXT	SEGMENT
tv431 = -280						; size = 4
_pXBtn$ = -276						; size = 4
_pNoBtn$ = -272						; size = 4
_this$GSCopy$ = -268					; size = 4
_pYesBtn$ = -268					; size = 4
_szTitle$506791 = -264					; size = 260
_szTitle$506785 = -264					; size = 260
__$ArrayPad$ = -4					; size = 4
?ReBatchButton@ioMessageBox4@@MAEXXZ PROC		; ioMessageBox4::ReBatchButton, COMDAT
; _this$ = ecx

; 302  : {

  00000	55		 push	 ebp
  00001	8b ec		 mov	 ebp, esp
  00003	81 ec 18 01 00
	00		 sub	 esp, 280		; 00000118H
  00009	a1 00 00 00 00	 mov	 eax, DWORD PTR ___security_cookie
  0000e	33 c5		 xor	 eax, ebp
  00010	89 45 fc	 mov	 DWORD PTR __$ArrayPad$[ebp], eax
  00013	53		 push	 ebx
  00014	56		 push	 esi
  00015	57		 push	 edi

; 303  : 	if( m_bHasItem )

  00016	33 db		 xor	 ebx, ebx

; 304  : 	{
; 305  : 		ioEtcItemExpandMedalSlot *pItem = dynamic_cast<ioEtcItemExpandMedalSlot*> ( g_EtcItemMgr.FindEtcItem(m_dwSelectItemType) );

  00018	53		 push	 ebx
  00019	68 00 00 00 00	 push	 OFFSET ??_R0?AVioEtcItemExpandMedalSlot@@@8
  0001e	8b f9		 mov	 edi, ecx
  00020	8b 0d 00 00 00
	00		 mov	 ecx, DWORD PTR ?ms_Singleton@?$Singleton@VioEtcItemManager@@@@1PAVioEtcItemManager@@A ; Singleton<ioEtcItemManager>::ms_Singleton
  00026	68 00 00 00 00	 push	 OFFSET ??_R0?AVioEtcItem@@@8
  0002b	53		 push	 ebx
  0002c	ff b7 0c 03 00
	00		 push	 DWORD PTR [edi+780]

; 340  : 	}
; 341  : 
; 342  : 	ShowChildWnd( ID_YES );

  00032	89 bd f4 fe ff
	ff		 mov	 DWORD PTR _this$GSCopy$[ebp], edi
  00038	38 9f 04 03 00
	00		 cmp	 BYTE PTR [edi+772], bl
  0003e	0f 84 a1 00 00
	00		 je	 $LN5@ReBatchBut

; 304  : 	{
; 305  : 		ioEtcItemExpandMedalSlot *pItem = dynamic_cast<ioEtcItemExpandMedalSlot*> ( g_EtcItemMgr.FindEtcItem(m_dwSelectItemType) );

  00044	e8 00 00 00 00	 call	 ?FindEtcItem@ioEtcItemManager@@QAEPAVioEtcItem@@K@Z ; ioEtcItemManager::FindEtcItem
  00049	50		 push	 eax
  0004a	e8 00 00 00 00	 call	 ___RTDynamicCast
  0004f	8b f0		 mov	 esi, eax
  00051	83 c4 14	 add	 esp, 20			; 00000014H

; 306  : 		if( pItem )

  00054	3b f3		 cmp	 esi, ebx
  00056	0f 84 47 01 00
	00		 je	 $LN2@ReBatchBut

; 307  : 		{
; 308  : 			char szTitle[MAX_PATH] = "";

  0005c	68 03 01 00 00	 push	 259			; 00000103H
  00061	8d 85 f9 fe ff
	ff		 lea	 eax, DWORD PTR _szTitle$506785[ebp+1]
  00067	53		 push	 ebx
  00068	50		 push	 eax
  00069	88 9d f8 fe ff
	ff		 mov	 BYTE PTR _szTitle$506785[ebp], bl
  0006f	e8 00 00 00 00	 call	 _memset
  00074	83 c4 0c	 add	 esp, 12			; 0000000cH

; 309  : 			SafeSprintf( szTitle, sizeof(szTitle), STR(1), pItem->GetName().c_str() );

  00077	8d 4e 04	 lea	 ecx, DWORD PTR [esi+4]
  0007a	ff 15 00 00 00
	00		 call	 DWORD PTR __imp_?c_str@ioHashString@@QBEPBDXZ
  00080	50		 push	 eax
  00081	53		 push	 ebx
  00082	6a 01		 push	 1
  00084	be 00 00 00 00	 mov	 esi, OFFSET ??_C@_00CNPNBAHC@?$AA@
  00089	56		 push	 esi
  0008a	bf 00 00 00 00	 mov	 edi, OFFSET ??_C@_0BN@NKGIDBPH@ioMessageBox4?3?3ReBatchButton?$AA@
  0008f	57		 push	 edi
  00090	ff 15 00 00 00
	00		 call	 DWORD PTR __imp_?GetSingleton@ioStringManager@@SAAAV1@XZ
  00096	8b c8		 mov	 ecx, eax
  00098	ff 15 00 00 00
	00		 call	 DWORD PTR __imp_?GetString@ioStringManager@@QAEPADPBD0HW4FileNamePrefix@1@@Z
  0009e	50		 push	 eax
  0009f	8d 85 f8 fe ff
	ff		 lea	 eax, DWORD PTR _szTitle$506785[ebp]
  000a5	68 04 01 00 00	 push	 260			; 00000104H
  000aa	50		 push	 eax
  000ab	ff 15 00 00 00
	00		 call	 DWORD PTR __imp_?SafeSprintf@@YAXPADHPBD1@Z

; 310  : 			SetTitleText( szTitle );

  000b1	8b 8d f4 fe ff
	ff		 mov	 ecx, DWORD PTR _this$GSCopy$[ebp]
  000b7	83 c4 10	 add	 esp, 16			; 00000010H
  000ba	53		 push	 ebx
  000bb	56		 push	 esi
  000bc	8d 85 f8 fe ff
	ff		 lea	 eax, DWORD PTR _szTitle$506785[ebp]
  000c2	50		 push	 eax
  000c3	ff 15 00 00 00
	00		 call	 DWORD PTR __imp_?SetTitleText@ioWnd@@QAEXPBD0H@Z

; 311  : 			SetBtnTitle( STR(2), STR(3) );

  000c9	53		 push	 ebx
  000ca	6a 03		 push	 3
  000cc	56		 push	 esi
  000cd	57		 push	 edi
  000ce	ff 15 00 00 00
	00		 call	 DWORD PTR __imp_?GetSingleton@ioStringManager@@SAAAV1@XZ
  000d4	8b c8		 mov	 ecx, eax
  000d6	ff 15 00 00 00
	00		 call	 DWORD PTR __imp_?GetString@ioStringManager@@QAEPADPBD0HW4FileNamePrefix@1@@Z
  000dc	50		 push	 eax
  000dd	53		 push	 ebx
  000de	6a 02		 push	 2

; 312  : 		}
; 313  : 	}
; 314  : 	else

  000e0	e9 9c 00 00 00	 jmp	 $LN16@ReBatchBut
$LN5@ReBatchBut:

; 315  : 	{
; 316  : 		ioEtcItemExpandMedalSlot *pItem = dynamic_cast<ioEtcItemExpandMedalSlot*> ( g_EtcItemMgr.FindEtcItem(m_dwSelectItemType) );

  000e5	e8 00 00 00 00	 call	 ?FindEtcItem@ioEtcItemManager@@QAEPAVioEtcItem@@K@Z ; ioEtcItemManager::FindEtcItem
  000ea	50		 push	 eax
  000eb	e8 00 00 00 00	 call	 ___RTDynamicCast
  000f0	8b f0		 mov	 esi, eax
  000f2	83 c4 14	 add	 esp, 20			; 00000014H

; 317  : 		if( pItem )

  000f5	3b f3		 cmp	 esi, ebx
  000f7	0f 84 a6 00 00
	00		 je	 $LN2@ReBatchBut

; 318  : 		{
; 319  : 			char szTitle[MAX_PATH] = "";

  000fd	68 03 01 00 00	 push	 259			; 00000103H
  00102	8d 85 f9 fe ff
	ff		 lea	 eax, DWORD PTR _szTitle$506791[ebp+1]
  00108	53		 push	 ebx
  00109	50		 push	 eax
  0010a	88 9d f8 fe ff
	ff		 mov	 BYTE PTR _szTitle$506791[ebp], bl
  00110	e8 00 00 00 00	 call	 _memset
  00115	83 c4 0c	 add	 esp, 12			; 0000000cH

; 320  : 			SafeSprintf( szTitle, sizeof(szTitle), STR(4), pItem->GetName().c_str() );

  00118	8d 4e 04	 lea	 ecx, DWORD PTR [esi+4]
  0011b	ff 15 00 00 00
	00		 call	 DWORD PTR __imp_?c_str@ioHashString@@QBEPBDXZ
  00121	50		 push	 eax
  00122	53		 push	 ebx
  00123	6a 04		 push	 4
  00125	be 00 00 00 00	 mov	 esi, OFFSET ??_C@_00CNPNBAHC@?$AA@
  0012a	56		 push	 esi
  0012b	bf 00 00 00 00	 mov	 edi, OFFSET ??_C@_0BN@NKGIDBPH@ioMessageBox4?3?3ReBatchButton?$AA@
  00130	57		 push	 edi
  00131	ff 15 00 00 00
	00		 call	 DWORD PTR __imp_?GetSingleton@ioStringManager@@SAAAV1@XZ
  00137	8b c8		 mov	 ecx, eax
  00139	ff 15 00 00 00
	00		 call	 DWORD PTR __imp_?GetString@ioStringManager@@QAEPADPBD0HW4FileNamePrefix@1@@Z
  0013f	50		 push	 eax
  00140	8d 85 f8 fe ff
	ff		 lea	 eax, DWORD PTR _szTitle$506791[ebp]
  00146	68 04 01 00 00	 push	 260			; 00000104H
  0014b	50		 push	 eax
  0014c	ff 15 00 00 00
	00		 call	 DWORD PTR __imp_?SafeSprintf@@YAXPADHPBD1@Z

; 321  : 			SetTitleText( szTitle );

  00152	8b 8d f4 fe ff
	ff		 mov	 ecx, DWORD PTR _this$GSCopy$[ebp]
  00158	83 c4 10	 add	 esp, 16			; 00000010H
  0015b	53		 push	 ebx
  0015c	56		 push	 esi
  0015d	8d 85 f8 fe ff
	ff		 lea	 eax, DWORD PTR _szTitle$506791[ebp]
  00163	50		 push	 eax
  00164	ff 15 00 00 00
	00		 call	 DWORD PTR __imp_?SetTitleText@ioWnd@@QAEXPBD0H@Z

; 322  : 			SetBtnTitle( STR(5), STR(6) );

  0016a	53		 push	 ebx
  0016b	6a 06		 push	 6
  0016d	56		 push	 esi
  0016e	57		 push	 edi
  0016f	ff 15 00 00 00
	00		 call	 DWORD PTR __imp_?GetSingleton@ioStringManager@@SAAAV1@XZ
  00175	8b c8		 mov	 ecx, eax
  00177	ff 15 00 00 00
	00		 call	 DWORD PTR __imp_?GetString@ioStringManager@@QAEPADPBD0HW4FileNamePrefix@1@@Z
  0017d	50		 push	 eax
  0017e	53		 push	 ebx
  0017f	6a 05		 push	 5
$LN16@ReBatchBut:
  00181	56		 push	 esi
  00182	57		 push	 edi
  00183	ff 15 00 00 00
	00		 call	 DWORD PTR __imp_?GetSingleton@ioStringManager@@SAAAV1@XZ
  00189	8b c8		 mov	 ecx, eax
  0018b	ff 15 00 00 00
	00		 call	 DWORD PTR __imp_?GetString@ioStringManager@@QAEPADPBD0HW4FileNamePrefix@1@@Z
  00191	8b 8d f4 fe ff
	ff		 mov	 ecx, DWORD PTR _this$GSCopy$[ebp]
  00197	50		 push	 eax
  00198	e8 00 00 00 00	 call	 ?SetBtnTitle@ioMessageBox4@@QAEXPBD0@Z ; ioMessageBox4::SetBtnTitle
  0019d	8b bd f4 fe ff
	ff		 mov	 edi, DWORD PTR _this$GSCopy$[ebp]
$LN2@ReBatchBut:

; 323  : 		}
; 324  : 	}
; 325  : 
; 326  : 	ioMessageBox4Btn *pYesBtn = dynamic_cast< ioMessageBox4Btn* >( FindChildWnd( ID_YES ) );

  001a3	8b 35 00 00 00
	00		 mov	 esi, DWORD PTR __imp_?FindChildWnd@ioWnd@@QAEPAV1@K@Z
  001a9	53		 push	 ebx
  001aa	68 00 00 00 00	 push	 OFFSET ??_R0?AVioMessageBox4Btn@@@8
  001af	68 00 00 00 00	 push	 OFFSET ??_R0?AVioWnd@@@8
  001b4	53		 push	 ebx
  001b5	6a 02		 push	 2
  001b7	8b cf		 mov	 ecx, edi
  001b9	ff d6		 call	 esi
  001bb	50		 push	 eax
  001bc	e8 00 00 00 00	 call	 ___RTDynamicCast
  001c1	83 c4 14	 add	 esp, 20			; 00000014H

; 327  : 	ioMessageBox4Btn *pNoBtn  = dynamic_cast< ioMessageBox4Btn* >( FindChildWnd( ID_NO ) );

  001c4	53		 push	 ebx
  001c5	68 00 00 00 00	 push	 OFFSET ??_R0?AVioMessageBox4Btn@@@8
  001ca	68 00 00 00 00	 push	 OFFSET ??_R0?AVioWnd@@@8
  001cf	53		 push	 ebx
  001d0	6a 03		 push	 3
  001d2	8b cf		 mov	 ecx, edi
  001d4	89 85 f4 fe ff
	ff		 mov	 DWORD PTR _pYesBtn$[ebp], eax
  001da	ff d6		 call	 esi
  001dc	50		 push	 eax
  001dd	e8 00 00 00 00	 call	 ___RTDynamicCast
  001e2	83 c4 14	 add	 esp, 20			; 00000014H

; 328  : 	ioWnd *pXBtn = FindChildWnd( ID_X );

  001e5	6a 01		 push	 1
  001e7	8b cf		 mov	 ecx, edi
  001e9	89 85 f0 fe ff
	ff		 mov	 DWORD PTR _pNoBtn$[ebp], eax
  001ef	ff d6		 call	 esi

; 329  : 	if( pYesBtn && pNoBtn && pXBtn )

  001f1	8b 8d f4 fe ff
	ff		 mov	 ecx, DWORD PTR _pYesBtn$[ebp]
  001f7	89 85 ec fe ff
	ff		 mov	 DWORD PTR _pXBtn$[ebp], eax
  001fd	3b cb		 cmp	 ecx, ebx
  001ff	0f 84 db 00 00
	00		 je	 $LN1@ReBatchBut
  00205	39 9d f0 fe ff
	ff		 cmp	 DWORD PTR _pNoBtn$[ebp], ebx
  0020b	0f 84 cf 00 00
	00		 je	 $LN1@ReBatchBut
  00211	3b c3		 cmp	 eax, ebx
  00213	0f 84 c7 00 00
	00		 je	 $LN1@ReBatchBut

; 330  : 	{
; 331  : 		pYesBtn->SetSize( pYesBtn->GetWidth(), pYesBtn->GetHeight() );

  00219	8b 31		 mov	 esi, DWORD PTR [ecx]
  0021b	ff 15 00 00 00
	00		 call	 DWORD PTR __imp_?GetHeight@ioWnd@@QBEHXZ
  00221	8b 8d f4 fe ff
	ff		 mov	 ecx, DWORD PTR _pYesBtn$[ebp]
  00227	50		 push	 eax
  00228	ff 15 00 00 00
	00		 call	 DWORD PTR __imp_?GetWidth@ioWnd@@QBEHXZ
  0022e	8b 8d f4 fe ff
	ff		 mov	 ecx, DWORD PTR _pYesBtn$[ebp]
  00234	50		 push	 eax
  00235	ff 56 2c	 call	 DWORD PTR [esi+44]

; 332  : 		pYesBtn->SetWndPos( BTN_LEFT_XPOS, GetHeight() - BTN_BOTTOM_YPOS );

  00238	8b cf		 mov	 ecx, edi
  0023a	ff 15 00 00 00
	00		 call	 DWORD PTR __imp_?GetHeight@ioWnd@@QBEHXZ
  00240	8b 8d f4 fe ff
	ff		 mov	 ecx, DWORD PTR _pYesBtn$[ebp]
  00246	8b 35 00 00 00
	00		 mov	 esi, DWORD PTR __imp_?SetWndPos@ioWnd@@QAEXHH@Z
  0024c	83 e8 30	 sub	 eax, 48			; 00000030H
  0024f	50		 push	 eax
  00250	6a 11		 push	 17			; 00000011H
  00252	ff d6		 call	 esi

; 333  : 		pYesBtn->AttachTitle();

  00254	8b 8d f4 fe ff
	ff		 mov	 ecx, DWORD PTR _pYesBtn$[ebp]
  0025a	e8 00 00 00 00	 call	 ?AttachTitle@ioMessageBox4Btn@@QAEXXZ ; ioMessageBox4Btn::AttachTitle

; 334  : 
; 335  : 		pNoBtn->SetSize( pNoBtn->GetWidth(), pNoBtn->GetHeight() );

  0025f	8b 8d f0 fe ff
	ff		 mov	 ecx, DWORD PTR _pNoBtn$[ebp]
  00265	8b 01		 mov	 eax, DWORD PTR [ecx]
  00267	89 85 e8 fe ff
	ff		 mov	 DWORD PTR tv431[ebp], eax
  0026d	ff 15 00 00 00
	00		 call	 DWORD PTR __imp_?GetHeight@ioWnd@@QBEHXZ
  00273	8b 8d f0 fe ff
	ff		 mov	 ecx, DWORD PTR _pNoBtn$[ebp]
  00279	50		 push	 eax
  0027a	ff 15 00 00 00
	00		 call	 DWORD PTR __imp_?GetWidth@ioWnd@@QBEHXZ
  00280	8b 8d f0 fe ff
	ff		 mov	 ecx, DWORD PTR _pNoBtn$[ebp]
  00286	50		 push	 eax
  00287	8b 85 e8 fe ff
	ff		 mov	 eax, DWORD PTR tv431[ebp]
  0028d	ff 50 2c	 call	 DWORD PTR [eax+44]

; 336  : 		pNoBtn->SetWndPos( pYesBtn->GetWidth() + 19, GetHeight() - BTN_BOTTOM_YPOS );

  00290	8b cf		 mov	 ecx, edi
  00292	ff 15 00 00 00
	00		 call	 DWORD PTR __imp_?GetHeight@ioWnd@@QBEHXZ
  00298	8b 8d f4 fe ff
	ff		 mov	 ecx, DWORD PTR _pYesBtn$[ebp]
  0029e	83 e8 30	 sub	 eax, 48			; 00000030H
  002a1	50		 push	 eax
  002a2	ff 15 00 00 00
	00		 call	 DWORD PTR __imp_?GetWidth@ioWnd@@QBEHXZ
  002a8	8b 8d f0 fe ff
	ff		 mov	 ecx, DWORD PTR _pNoBtn$[ebp]
  002ae	83 c0 13	 add	 eax, 19			; 00000013H
  002b1	50		 push	 eax
  002b2	ff d6		 call	 esi

; 337  : 		pNoBtn->AttachTitle();

  002b4	8b 8d f0 fe ff
	ff		 mov	 ecx, DWORD PTR _pNoBtn$[ebp]
  002ba	e8 00 00 00 00	 call	 ?AttachTitle@ioMessageBox4Btn@@QAEXXZ ; ioMessageBox4Btn::AttachTitle

; 338  : 
; 339  : 		pXBtn->SetWndPos( GetWidth() - XBTN_RIGHT_XPOS, pXBtn->GetYPos() );

  002bf	8b 8d ec fe ff
	ff		 mov	 ecx, DWORD PTR _pXBtn$[ebp]
  002c5	ff 15 00 00 00
	00		 call	 DWORD PTR __imp_?GetYPos@ioWnd@@QBEHXZ
  002cb	50		 push	 eax
  002cc	8b cf		 mov	 ecx, edi
  002ce	ff 15 00 00 00
	00		 call	 DWORD PTR __imp_?GetWidth@ioWnd@@QBEHXZ
  002d4	8b 8d ec fe ff
	ff		 mov	 ecx, DWORD PTR _pXBtn$[ebp]
  002da	83 e8 22	 sub	 eax, 34			; 00000022H
  002dd	50		 push	 eax
  002de	ff d6		 call	 esi
$LN1@ReBatchBut:

; 340  : 	}
; 341  : 
; 342  : 	ShowChildWnd( ID_YES );

  002e0	8b 35 00 00 00
	00		 mov	 esi, DWORD PTR __imp_?ShowChildWnd@ioWnd@@QAEXK_N@Z
  002e6	53		 push	 ebx
  002e7	6a 02		 push	 2
  002e9	8b cf		 mov	 ecx, edi
  002eb	ff d6		 call	 esi

; 343  : 	ShowChildWnd( ID_NO );

  002ed	53		 push	 ebx
  002ee	6a 03		 push	 3
  002f0	8b cf		 mov	 ecx, edi
  002f2	ff d6		 call	 esi

; 344  : 	ShowChildWnd( ID_X );

  002f4	53		 push	 ebx
  002f5	6a 01		 push	 1
  002f7	8b cf		 mov	 ecx, edi
  002f9	ff d6		 call	 esi

; 345  : }

  002fb	8b 4d fc	 mov	 ecx, DWORD PTR __$ArrayPad$[ebp]
  002fe	5f		 pop	 edi
  002ff	5e		 pop	 esi
  00300	33 cd		 xor	 ecx, ebp
  00302	5b		 pop	 ebx
  00303	e8 00 00 00 00	 call	 @__security_check_cookie@4
  00308	c9		 leave
  00309	c3		 ret	 0
?ReBatchButton@ioMessageBox4@@MAEXXZ ENDP		; ioMessageBox4::ReBatchButton
_TEXT	ENDS
PUBLIC	__real@3f266666
PUBLIC	??_C@_0BI@MACKHOIN@ioMessageBox4?3?3OnRender?$AA@ ; `string'
PUBLIC	?OnRender@ioMessageBox4@@MAEXXZ			; ioMessageBox4::OnRender
EXTRN	__imp_?GetDerivedPosX@ioWnd@@QBEHXZ:PROC
EXTRN	__imp_?GetDerivedPosY@ioWnd@@QBEHXZ:PROC
EXTRN	__imp_?PrintText@ioFontManager@@QAAXMMMPBDZZ:PROC
EXTRN	__imp_?SetTextColor@ioFontManager@@QAEXK@Z:PROC
EXTRN	__imp_?SetAlignType@ioFontManager@@QAEXW4TextAlignType@@@Z:PROC
EXTRN	__imp_?GetSingleton@ioFontManager@@SAAAV1@XZ:PROC
EXTRN	__imp_?SafeSprintf@@YAXPADHPBD11@Z:PROC
EXTRN	?GetUseInfo@ioUserEtcItem@@QAEXHAAVioHashString@@0AAK1@Z:PROC ; ioUserEtcItem::GetUseInfo
EXTRN	?GetSingleton@ioMyInfo@@SAAAV1@XZ:PROC		; ioMyInfo::GetSingleton
EXTRN	?PrintFullText@ioComplexStringPrinter@@QAEXMMW4TextAlignType@@E@Z:PROC ; ioComplexStringPrinter::PrintFullText
EXTRN	__imp_?GetXPos@ioWnd@@QBEHXZ:PROC
EXTRN	__imp_?OnRender@ioWnd@@MAEXXZ:PROC
EXTRN	__fltused:DWORD
EXTRN	__EH_epilog3_GS:PROC
EXTRN	__EH_prolog3_GS:PROC
;	COMDAT __real@3f266666
; File c:\program files (x86)\microsoft visual studio 10.0\vc\include\vector
CONST	SEGMENT
__real@3f266666 DD 03f266666r			; 0.65
CONST	ENDS
;	COMDAT ??_C@_0BI@MACKHOIN@ioMessageBox4?3?3OnRender?$AA@
CONST	SEGMENT
??_C@_0BI@MACKHOIN@ioMessageBox4?3?3OnRender?$AA@ DB 'ioMessageBox4::OnRe'
	DB	'nder', 00H					; `string'
CONST	ENDS
;	COMDAT xdata$x
xdata$x	SEGMENT
__unwindtable$?OnRender@ioMessageBox4@@MAEXXZ DD 0ffffffffH
	DD	FLAT:__unwindfunclet$?OnRender@ioMessageBox4@@MAEXXZ$0
	DD	00H
	DD	FLAT:__unwindfunclet$?OnRender@ioMessageBox4@@MAEXXZ$1
__ehfuncinfo$?OnRender@ioMessageBox4@@MAEXXZ DD 019930522H
	DD	02H
	DD	FLAT:__unwindtable$?OnRender@ioMessageBox4@@MAEXXZ
	DD	2 DUP(00H)
	DD	2 DUP(00H)
	DD	00H
	DD	01H
; Function compile flags: /Ogsp
; File d:\lost saga for developer\youtube\tutorial\source\src\lsclient\gui\iomessagebox4.cpp
xdata$x	ENDS
;	COMDAT ?OnRender@ioMessageBox4@@MAEXXZ
_TEXT	SEGMENT
_szDummy$506862 = -340					; size = 16
_szItemCnt$506861 = -324				; size = 16
_iXPos$ = -308						; size = 4
tv624 = -304						; size = 4
_pUserEtcItem$506858 = -300				; size = 4
tv184 = -296						; size = 4
_iSize$ = -296						; size = 4
_dwDummy$506860 = -292					; size = 4
_i$506842 = -292					; size = 4
tv746 = -288						; size = 4
_i$506848 = -288					; size = 4
tv780 = -284						; size = 4
tv744 = -284						; size = 4
tv815 = -280						; size = 4
_iYPos$ = -280						; size = 4
_szPrintMessage$506856 = -276				; size = 260
__$EHRec$ = -12						; size = 12
?OnRender@ioMessageBox4@@MAEXXZ PROC			; ioMessageBox4::OnRender, COMDAT
; _this$ = ecx

; 417  : {

  00000	68 48 01 00 00	 push	 328			; 00000148H
  00005	b8 00 00 00 00	 mov	 eax, __ehhandler$?OnRender@ioMessageBox4@@MAEXXZ
  0000a	e8 00 00 00 00	 call	 __EH_prolog3_GS
  0000f	8b f1		 mov	 esi, ecx

; 418  : 	ioWnd::OnRender();

  00011	ff 15 00 00 00
	00		 call	 DWORD PTR __imp_?OnRender@ioWnd@@MAEXXZ

; 419  : 
; 420  : 	int iXPos = GetXPos();

  00017	8b ce		 mov	 ecx, esi
  00019	ff 15 00 00 00
	00		 call	 DWORD PTR __imp_?GetXPos@ioWnd@@QBEHXZ
  0001f	8b f8		 mov	 edi, eax

; 421  : 	int iYPos = GetYPos();

  00021	8b ce		 mov	 ecx, esi
  00023	89 bd cc fe ff
	ff		 mov	 DWORD PTR _iXPos$[ebp], edi
  00029	ff 15 00 00 00
	00		 call	 DWORD PTR __imp_?GetYPos@ioWnd@@QBEHXZ

; 422  : 
; 423  : 	if( m_bHasItem )

  0002f	33 db		 xor	 ebx, ebx
  00031	89 85 e8 fe ff
	ff		 mov	 DWORD PTR _iYPos$[ebp], eax
  00037	38 9e 04 03 00
	00		 cmp	 BYTE PTR [esi+772], bl
  0003d	74 10		 je	 SHORT $LN19@OnRender

; 424  : 	{
; 425  : 		if( m_pIconBackEnable )

  0003f	39 9e 64 01 00
	00		 cmp	 DWORD PTR [esi+356], ebx
  00045	74 3e		 je	 SHORT $LN16@OnRender

; 426  : 			m_pIconBackEnable->Render( iXPos, iYPos, UI_RENDER_MULTIPLY );

  00047	8b 8e 64 01 00
	00		 mov	 ecx, DWORD PTR [esi+356]

; 427  : 	}
; 428  : 	else

  0004d	eb 0e		 jmp	 SHORT $LN50@OnRender
$LN19@OnRender:

; 429  : 	{
; 430  : 		if( m_pIconBackDisable )

  0004f	39 9e 68 01 00
	00		 cmp	 DWORD PTR [esi+360], ebx
  00055	74 2e		 je	 SHORT $LN16@OnRender

; 431  : 			m_pIconBackDisable->Render( iXPos, iYPos, UI_RENDER_MULTIPLY );

  00057	8b 8e 68 01 00
	00		 mov	 ecx, DWORD PTR [esi+360]
$LN50@OnRender:
  0005d	66 0f 6e 85 e8
	fe ff ff	 movd	 xmm0, DWORD PTR _iYPos$[ebp]
  00065	8b 01		 mov	 eax, DWORD PTR [ecx]
  00067	53		 push	 ebx
  00068	53		 push	 ebx
  00069	53		 push	 ebx
  0006a	6a 08		 push	 8
  0006c	51		 push	 ecx
  0006d	51		 push	 ecx
  0006e	0f 5b c0	 cvtdq2ps xmm0, xmm0
  00071	f3 0f 11 44 24
	04		 movss	 DWORD PTR [esp+4], xmm0
  00077	0f 57 c0	 xorps	 xmm0, xmm0
  0007a	f3 0f 2a c7	 cvtsi2ss xmm0, edi
  0007e	f3 0f 11 04 24	 movss	 DWORD PTR [esp], xmm0
  00083	ff 10		 call	 DWORD PTR [eax]
$LN16@OnRender:

; 432  : 	}
; 433  : 
; 434  : 	if( m_pIcon )

  00085	39 9e 60 01 00
	00		 cmp	 DWORD PTR [esi+352], ebx
  0008b	74 38		 je	 SHORT $LN15@OnRender

; 435  : 	{
; 436  : 		m_pIcon->Render( iXPos + 151, iYPos + 98 );

  0008d	8b 8e 60 01 00
	00		 mov	 ecx, DWORD PTR [esi+352]
  00093	8b 95 e8 fe ff
	ff		 mov	 edx, DWORD PTR _iYPos$[ebp]
  00099	8b 01		 mov	 eax, DWORD PTR [ecx]
  0009b	53		 push	 ebx
  0009c	53		 push	 ebx
  0009d	53		 push	 ebx
  0009e	53		 push	 ebx
  0009f	83 c2 62	 add	 edx, 98			; 00000062H
  000a2	0f 57 c0	 xorps	 xmm0, xmm0
  000a5	f3 0f 2a c2	 cvtsi2ss xmm0, edx
  000a9	51		 push	 ecx
  000aa	51		 push	 ecx
  000ab	f3 0f 11 44 24
	04		 movss	 DWORD PTR [esp+4], xmm0
  000b1	8d 97 97 00 00
	00		 lea	 edx, DWORD PTR [edi+151]
  000b7	0f 57 c0	 xorps	 xmm0, xmm0
  000ba	f3 0f 2a c2	 cvtsi2ss xmm0, edx
  000be	f3 0f 11 04 24	 movss	 DWORD PTR [esp], xmm0
  000c3	ff 10		 call	 DWORD PTR [eax]
$LN15@OnRender:

; 437  : 	}
; 438  : 
; 439  : 	// Message
; 440  : 	for( int i=0 ; i<MAX_MSG_LIST_SIZE ; i++ )

  000c5	8b 85 e8 fe ff
	ff		 mov	 eax, DWORD PTR _iYPos$[ebp]
  000cb	05 90 00 00 00	 add	 eax, 144		; 00000090H
  000d0	89 85 e4 fe ff
	ff		 mov	 DWORD PTR tv744[ebp], eax
  000d6	8d 86 8c 01 00
	00		 lea	 eax, DWORD PTR [esi+396]
  000dc	89 9d dc fe ff
	ff		 mov	 DWORD PTR _i$506842[ebp], ebx
  000e2	89 85 e0 fe ff
	ff		 mov	 DWORD PTR tv746[ebp], eax
  000e8	eb 06		 jmp	 SHORT $LN14@OnRender
$LL47@OnRender:
  000ea	8b 85 e0 fe ff
	ff		 mov	 eax, DWORD PTR tv746[ebp]
$LN14@OnRender:

; 441  : 	{
; 442  : 		if( m_PrinterList[i].IsEmpty() )

  000f0	8b 08		 mov	 ecx, DWORD PTR [eax]
  000f2	3b 48 04	 cmp	 ecx, DWORD PTR [eax+4]
  000f5	74 55		 je	 SHORT $LN42@OnRender

; 443  : 			break;
; 444  : 
; 445  : 		m_PrinterList[i].PrintFullText( iXPos+TEXT_XPOS, iYPos+TEXT_YPOS+ TEXT_LINE_GAP * i, m_AlignType );

  000f7	66 0f 6e 85 e4
	fe ff ff	 movd	 xmm0, DWORD PTR tv744[ebp]
  000ff	68 ff 00 00 00	 push	 255			; 000000ffH
  00104	ff b6 00 03 00
	00		 push	 DWORD PTR [esi+768]
  0010a	0f 5b c0	 cvtdq2ps xmm0, xmm0
  0010d	51		 push	 ecx
  0010e	51		 push	 ecx
  0010f	f3 0f 11 44 24
	04		 movss	 DWORD PTR [esp+4], xmm0
  00115	8d 8f 97 00 00
	00		 lea	 ecx, DWORD PTR [edi+151]
  0011b	0f 57 c0	 xorps	 xmm0, xmm0
  0011e	f3 0f 2a c1	 cvtsi2ss xmm0, ecx
  00122	8d 48 f4	 lea	 ecx, DWORD PTR [eax-12]
  00125	f3 0f 11 04 24	 movss	 DWORD PTR [esp], xmm0
  0012a	e8 00 00 00 00	 call	 ?PrintFullText@ioComplexStringPrinter@@QAEXMMW4TextAlignType@@E@Z ; ioComplexStringPrinter::PrintFullText
  0012f	ff 85 dc fe ff
	ff		 inc	 DWORD PTR _i$506842[ebp]
  00135	83 85 e0 fe ff
	ff 20		 add	 DWORD PTR tv746[ebp], 32 ; 00000020H
  0013c	83 85 e4 fe ff
	ff 14		 add	 DWORD PTR tv744[ebp], 20 ; 00000014H
  00143	83 bd dc fe ff
	ff 0c		 cmp	 DWORD PTR _i$506842[ebp], 12 ; 0000000cH
  0014a	7c 9e		 jl	 SHORT $LL47@OnRender
$LN42@OnRender:

; 446  : 	}
; 447  : 
; 448  : 	// RadioBtn Text
; 449  : 	int iSize = m_vExpandSlotItemInfoList.size();

  0014c	8b 86 20 03 00
	00		 mov	 eax, DWORD PTR [esi+800]
  00152	2b 86 1c 03 00
	00		 sub	 eax, DWORD PTR [esi+796]
  00158	6a 18		 push	 24			; 00000018H
  0015a	99		 cdq
  0015b	59		 pop	 ecx
  0015c	f7 f9		 idiv	 ecx

; 450  : 	for( int i=0; i<iSize; ++i )

  0015e	89 9d e0 fe ff
	ff		 mov	 DWORD PTR _i$506848[ebp], ebx
  00164	89 85 d8 fe ff
	ff		 mov	 DWORD PTR _iSize$[ebp], eax
  0016a	3b c3		 cmp	 eax, ebx
  0016c	0f 8e 55 02 00
	00		 jle	 $LN8@OnRender
  00172	8d 47 27	 lea	 eax, DWORD PTR [edi+39]
  00175	0f 57 c0	 xorps	 xmm0, xmm0
  00178	f3 0f 2a c0	 cvtsi2ss xmm0, eax
  0017c	8b 85 e8 fe ff
	ff		 mov	 eax, DWORD PTR _iYPos$[ebp]
  00182	05 d5 00 00 00	 add	 eax, 213		; 000000d5H
  00187	f3 0f 11 85 d0
	fe ff ff	 movss	 DWORD PTR tv624[ebp], xmm0
  0018f	89 9d e4 fe ff
	ff		 mov	 DWORD PTR tv780[ebp], ebx
  00195	89 85 e8 fe ff
	ff		 mov	 DWORD PTR tv815[ebp], eax
  0019b	eb 06		 jmp	 SHORT $LN10@OnRender
$LL46@OnRender:

; 446  : 	}
; 447  : 
; 448  : 	// RadioBtn Text
; 449  : 	int iSize = m_vExpandSlotItemInfoList.size();

  0019d	8b bd cc fe ff
	ff		 mov	 edi, DWORD PTR _iXPos$[ebp]
$LN10@OnRender:

; 451  : 	{
; 452  : 		if( i%2 == 0 )

  001a3	8b 85 e0 fe ff
	ff		 mov	 eax, DWORD PTR _i$506848[ebp]
  001a9	25 01 00 00 80	 and	 eax, -2147483647	; 80000001H
  001ae	79 05		 jns	 SHORT $LN49@OnRender
  001b0	48		 dec	 eax
  001b1	83 c8 fe	 or	 eax, -2			; fffffffeH
  001b4	40		 inc	 eax
$LN49@OnRender:
  001b5	75 10		 jne	 SHORT $LN7@OnRender

; 453  : 		{
; 454  : 			if( m_pDarkLine )

  001b7	39 9e 70 01 00
	00		 cmp	 DWORD PTR [esi+368], ebx
  001bd	74 41		 je	 SHORT $LN4@OnRender

; 455  : 				m_pDarkLine->Render( iXPos + 17, iYPos + 213 + TEXT_LINE_GAP * i, UI_RENDER_MULTIPLY );

  001bf	8b 8e 70 01 00
	00		 mov	 ecx, DWORD PTR [esi+368]

; 456  : 		}
; 457  : 		else

  001c5	eb 0e		 jmp	 SHORT $LN51@OnRender
$LN7@OnRender:

; 458  : 		{
; 459  : 			if( m_pLightLine )

  001c7	39 9e 74 01 00
	00		 cmp	 DWORD PTR [esi+372], ebx
  001cd	74 31		 je	 SHORT $LN4@OnRender

; 460  : 				m_pLightLine->Render( iXPos + 17, iYPos + 213 + TEXT_LINE_GAP * i, UI_RENDER_MULTIPLY );

  001cf	8b 8e 74 01 00
	00		 mov	 ecx, DWORD PTR [esi+372]
$LN51@OnRender:
  001d5	66 0f 6e 85 e8
	fe ff ff	 movd	 xmm0, DWORD PTR tv815[ebp]
  001dd	8b 01		 mov	 eax, DWORD PTR [ecx]
  001df	53		 push	 ebx
  001e0	53		 push	 ebx
  001e1	53		 push	 ebx
  001e2	6a 08		 push	 8
  001e4	51		 push	 ecx
  001e5	51		 push	 ecx
  001e6	0f 5b c0	 cvtdq2ps xmm0, xmm0
  001e9	f3 0f 11 44 24
	04		 movss	 DWORD PTR [esp+4], xmm0
  001ef	83 c7 11	 add	 edi, 17			; 00000011H
  001f2	0f 57 c0	 xorps	 xmm0, xmm0
  001f5	f3 0f 2a c7	 cvtsi2ss xmm0, edi
  001f9	f3 0f 11 04 24	 movss	 DWORD PTR [esp], xmm0
  001fe	ff 10		 call	 DWORD PTR [eax]
$LN4@OnRender:

; 461  : 		}
; 462  : 		
; 463  : 		char szPrintMessage[MAX_PATH]="";

  00200	68 03 01 00 00	 push	 259			; 00000103H
  00205	8d 85 ed fe ff
	ff		 lea	 eax, DWORD PTR _szPrintMessage$506856[ebp+1]
  0020b	53		 push	 ebx
  0020c	50		 push	 eax
  0020d	88 9d ec fe ff
	ff		 mov	 BYTE PTR _szPrintMessage$506856[ebp], bl
  00213	e8 00 00 00 00	 call	 _memset
  00218	83 c4 0c	 add	 esp, 12			; 0000000cH

; 464  : 		ioHashString &rsName = m_vExpandSlotItemInfoList[i].m_szItemName;
; 465  : 		ioUserEtcItem *pUserEtcItem = g_MyInfo.GetUserEtcItem();

  0021b	e8 00 00 00 00	 call	 ?GetSingleton@ioMyInfo@@SAAAV1@XZ ; ioMyInfo::GetSingleton
  00220	05 44 01 00 00	 add	 eax, 324		; 00000144H
  00225	89 85 d4 fe ff
	ff		 mov	 DWORD PTR _pUserEtcItem$506858[ebp], eax

; 466  : 		if( pUserEtcItem )

  0022b	3b c3		 cmp	 eax, ebx
  0022d	0f 84 c0 00 00
	00		 je	 $LN3@OnRender

; 467  : 		{
; 468  : 			DWORD dwDummy;
; 469  : 			ioHashString szItemCnt;

  00233	8b 3d 00 00 00
	00		 mov	 edi, DWORD PTR __imp_??0ioHashString@@QAE@XZ
  00239	8d 8d bc fe ff
	ff		 lea	 ecx, DWORD PTR _szItemCnt$506861[ebp]
  0023f	ff d7		 call	 edi

; 470  : 			ioHashString szDummy;

  00241	8d 8d ac fe ff
	ff		 lea	 ecx, DWORD PTR _szDummy$506862[ebp]
  00247	89 5d fc	 mov	 DWORD PTR __$EHRec$[ebp+8], ebx
  0024a	ff d7		 call	 edi

; 471  : 
; 472  : 			pUserEtcItem->GetUseInfo( m_vExpandSlotItemInfoList[i].m_dwID, szItemCnt, szDummy, dwDummy, dwDummy );

  0024c	8b 8d e4 fe ff
	ff		 mov	 ecx, DWORD PTR tv780[ebp]
  00252	8d 85 dc fe ff
	ff		 lea	 eax, DWORD PTR _dwDummy$506860[ebp]
  00258	50		 push	 eax
  00259	50		 push	 eax
  0025a	8d 85 ac fe ff
	ff		 lea	 eax, DWORD PTR _szDummy$506862[ebp]
  00260	50		 push	 eax
  00261	8d 85 bc fe ff
	ff		 lea	 eax, DWORD PTR _szItemCnt$506861[ebp]
  00267	50		 push	 eax
  00268	8b 86 1c 03 00
	00		 mov	 eax, DWORD PTR [esi+796]
  0026e	ff 34 01	 push	 DWORD PTR [ecx+eax]
  00271	8b 8d d4 fe ff
	ff		 mov	 ecx, DWORD PTR _pUserEtcItem$506858[ebp]
  00277	c6 45 fc 01	 mov	 BYTE PTR __$EHRec$[ebp+8], 1
  0027b	e8 00 00 00 00	 call	 ?GetUseInfo@ioUserEtcItem@@QAEXHAAVioHashString@@0AAK1@Z ; ioUserEtcItem::GetUseInfo

; 473  : 
; 474  : 			SafeSprintf( szPrintMessage, sizeof(szPrintMessage), STR(1), m_vExpandSlotItemInfoList[i].m_szItemName.c_str(), szItemCnt.c_str() );

  00280	8b be 1c 03 00
	00		 mov	 edi, DWORD PTR [esi+796]
  00286	03 bd e4 fe ff
	ff		 add	 edi, DWORD PTR tv780[ebp]
  0028c	8d 8d bc fe ff
	ff		 lea	 ecx, DWORD PTR _szItemCnt$506861[ebp]
  00292	ff 15 00 00 00
	00		 call	 DWORD PTR __imp_?c_str@ioHashString@@QBEPBDXZ
  00298	50		 push	 eax
  00299	8d 4f 04	 lea	 ecx, DWORD PTR [edi+4]
  0029c	ff 15 00 00 00
	00		 call	 DWORD PTR __imp_?c_str@ioHashString@@QBEPBDXZ
  002a2	50		 push	 eax
  002a3	53		 push	 ebx
  002a4	6a 01		 push	 1
  002a6	68 00 00 00 00	 push	 OFFSET ??_C@_00CNPNBAHC@?$AA@
  002ab	68 00 00 00 00	 push	 OFFSET ??_C@_0BI@MACKHOIN@ioMessageBox4?3?3OnRender?$AA@
  002b0	ff 15 00 00 00
	00		 call	 DWORD PTR __imp_?GetSingleton@ioStringManager@@SAAAV1@XZ
  002b6	8b c8		 mov	 ecx, eax
  002b8	ff 15 00 00 00
	00		 call	 DWORD PTR __imp_?GetString@ioStringManager@@QAEPADPBD0HW4FileNamePrefix@1@@Z
  002be	50		 push	 eax
  002bf	8d 85 ec fe ff
	ff		 lea	 eax, DWORD PTR _szPrintMessage$506856[ebp]
  002c5	68 04 01 00 00	 push	 260			; 00000104H
  002ca	50		 push	 eax
  002cb	ff 15 00 00 00
	00		 call	 DWORD PTR __imp_?SafeSprintf@@YAXPADHPBD11@Z

; 475  : 		}

  002d1	8b 3d 00 00 00
	00		 mov	 edi, DWORD PTR __imp_??1ioHashString@@QAE@XZ
  002d7	83 c4 14	 add	 esp, 20			; 00000014H
  002da	8d 8d ac fe ff
	ff		 lea	 ecx, DWORD PTR _szDummy$506862[ebp]
  002e0	88 5d fc	 mov	 BYTE PTR __$EHRec$[ebp+8], bl
  002e3	ff d7		 call	 edi
  002e5	83 4d fc ff	 or	 DWORD PTR __$EHRec$[ebp+8], -1
  002e9	8d 8d bc fe ff
	ff		 lea	 ecx, DWORD PTR _szItemCnt$506861[ebp]
  002ef	ff d7		 call	 edi

; 476  : 		else

  002f1	eb 47		 jmp	 SHORT $LN2@OnRender
$LN3@OnRender:

; 477  : 		{
; 478  : 			SafeSprintf( szPrintMessage, sizeof(szPrintMessage), STR(2), m_vExpandSlotItemInfoList[i].m_szItemName.c_str() );

  002f3	8b 8e 1c 03 00
	00		 mov	 ecx, DWORD PTR [esi+796]
  002f9	03 8d e4 fe ff
	ff		 add	 ecx, DWORD PTR tv780[ebp]
  002ff	8d 49 04	 lea	 ecx, DWORD PTR [ecx+4]
  00302	ff 15 00 00 00
	00		 call	 DWORD PTR __imp_?c_str@ioHashString@@QBEPBDXZ
  00308	50		 push	 eax
  00309	53		 push	 ebx
  0030a	6a 02		 push	 2
  0030c	68 00 00 00 00	 push	 OFFSET ??_C@_00CNPNBAHC@?$AA@
  00311	68 00 00 00 00	 push	 OFFSET ??_C@_0BI@MACKHOIN@ioMessageBox4?3?3OnRender?$AA@
  00316	ff 15 00 00 00
	00		 call	 DWORD PTR __imp_?GetSingleton@ioStringManager@@SAAAV1@XZ
  0031c	8b c8		 mov	 ecx, eax
  0031e	ff 15 00 00 00
	00		 call	 DWORD PTR __imp_?GetString@ioStringManager@@QAEPADPBD0HW4FileNamePrefix@1@@Z
  00324	50		 push	 eax
  00325	8d 85 ec fe ff
	ff		 lea	 eax, DWORD PTR _szPrintMessage$506856[ebp]
  0032b	68 04 01 00 00	 push	 260			; 00000104H
  00330	50		 push	 eax
  00331	ff 15 00 00 00
	00		 call	 DWORD PTR __imp_?SafeSprintf@@YAXPADHPBD1@Z
  00337	83 c4 10	 add	 esp, 16			; 00000010H
$LN2@OnRender:

; 479  : 		}
; 480  : 		
; 481  : 		g_FontMgr.SetAlignType( TAT_LEFT );

  0033a	8b 3d 00 00 00
	00		 mov	 edi, DWORD PTR __imp_?GetSingleton@ioFontManager@@SAAAV1@XZ
  00340	53		 push	 ebx
  00341	ff d7		 call	 edi
  00343	8b c8		 mov	 ecx, eax
  00345	ff 15 00 00 00
	00		 call	 DWORD PTR __imp_?SetAlignType@ioFontManager@@QAEXW4TextAlignType@@@Z

; 482  : 		g_FontMgr.SetTextColor( TCT_DEFAULT_DARKGRAY );

  0034b	68 3a 3a 3a ff	 push	 -12961222		; ff3a3a3aH
  00350	ff d7		 call	 edi
  00352	8b c8		 mov	 ecx, eax
  00354	ff 15 00 00 00
	00		 call	 DWORD PTR __imp_?SetTextColor@ioFontManager@@QAEXK@Z

; 483  : 		g_FontMgr.PrintText( iXPos + 39, iYPos + 215 + TEXT_LINE_GAP*i, FONT_SIZE_13, szPrintMessage );

  0035a	f3 0f 10 05 00
	00 00 00	 movss	 xmm0, DWORD PTR __real@3f266666
  00362	8d 85 ec fe ff
	ff		 lea	 eax, DWORD PTR _szPrintMessage$506856[ebp]
  00368	50		 push	 eax
  00369	8b 85 e8 fe ff
	ff		 mov	 eax, DWORD PTR tv815[ebp]
  0036f	83 ec 0c	 sub	 esp, 12			; 0000000cH
  00372	f3 0f 11 44 24
	08		 movss	 DWORD PTR [esp+8], xmm0
  00378	83 c0 02	 add	 eax, 2
  0037b	0f 57 c0	 xorps	 xmm0, xmm0
  0037e	f3 0f 2a c0	 cvtsi2ss xmm0, eax
  00382	f3 0f 11 44 24
	04		 movss	 DWORD PTR [esp+4], xmm0
  00388	f3 0f 10 85 d0
	fe ff ff	 movss	 xmm0, DWORD PTR tv624[ebp]
  00390	f3 0f 11 04 24	 movss	 DWORD PTR [esp], xmm0
  00395	ff d7		 call	 edi
  00397	50		 push	 eax
  00398	ff 15 00 00 00
	00		 call	 DWORD PTR __imp_?PrintText@ioFontManager@@QAAXMMMPBDZZ
  0039e	83 85 e4 fe ff
	ff 18		 add	 DWORD PTR tv780[ebp], 24 ; 00000018H
  003a5	83 85 e8 fe ff
	ff 14		 add	 DWORD PTR tv815[ebp], 20 ; 00000014H
  003ac	83 c4 14	 add	 esp, 20			; 00000014H
  003af	ff 85 e0 fe ff
	ff		 inc	 DWORD PTR _i$506848[ebp]
  003b5	8b 85 e0 fe ff
	ff		 mov	 eax, DWORD PTR _i$506848[ebp]
  003bb	3b 85 d8 fe ff
	ff		 cmp	 eax, DWORD PTR _iSize$[ebp]
  003c1	0f 8c d6 fd ff
	ff		 jl	 $LL46@OnRender
$LN8@OnRender:

; 484  : 	}
; 485  : 	
; 486  : 	if( m_pBottomFrm )

  003c7	39 9e 6c 01 00
	00		 cmp	 DWORD PTR [esi+364], ebx
  003cd	74 72		 je	 SHORT $LN1@OnRender

; 487  : 	{
; 488  : 		m_pBottomFrm->SetSize( GetWidth(), BOTTOM_MULTIPLY_H );

  003cf	8b 86 6c 01 00
	00		 mov	 eax, DWORD PTR [esi+364]
  003d5	8b 38		 mov	 edi, DWORD PTR [eax]
  003d7	6a 41		 push	 65			; 00000041H
  003d9	8b ce		 mov	 ecx, esi
  003db	ff 15 00 00 00
	00		 call	 DWORD PTR __imp_?GetWidth@ioWnd@@QBEHXZ
  003e1	8b 8e 6c 01 00
	00		 mov	 ecx, DWORD PTR [esi+364]
  003e7	50		 push	 eax
  003e8	ff 57 10	 call	 DWORD PTR [edi+16]

; 489  : 		m_pBottomFrm->Render( GetDerivedPosX(), GetDerivedPosY() + ( GetHeight() - BOTTOM_MULTIPLY_H ), UI_RENDER_MULTIPLY );

  003eb	8b 86 6c 01 00
	00		 mov	 eax, DWORD PTR [esi+364]
  003f1	8b 38		 mov	 edi, DWORD PTR [eax]
  003f3	8b ce		 mov	 ecx, esi
  003f5	ff 15 00 00 00
	00		 call	 DWORD PTR __imp_?GetDerivedPosY@ioWnd@@QBEHXZ
  003fb	53		 push	 ebx
  003fc	53		 push	 ebx
  003fd	53		 push	 ebx
  003fe	83 c0 bf	 add	 eax, -65		; ffffffbfH
  00401	6a 08		 push	 8
  00403	8b ce		 mov	 ecx, esi
  00405	89 85 d8 fe ff
	ff		 mov	 DWORD PTR tv184[ebp], eax
  0040b	ff 15 00 00 00
	00		 call	 DWORD PTR __imp_?GetHeight@ioWnd@@QBEHXZ
  00411	03 85 d8 fe ff
	ff		 add	 eax, DWORD PTR tv184[ebp]
  00417	51		 push	 ecx
  00418	0f 57 c0	 xorps	 xmm0, xmm0
  0041b	f3 0f 2a c0	 cvtsi2ss xmm0, eax
  0041f	8b ce		 mov	 ecx, esi
  00421	f3 0f 11 04 24	 movss	 DWORD PTR [esp], xmm0
  00426	ff 15 00 00 00
	00		 call	 DWORD PTR __imp_?GetDerivedPosX@ioWnd@@QBEHXZ
  0042c	51		 push	 ecx
  0042d	8b 8e 6c 01 00
	00		 mov	 ecx, DWORD PTR [esi+364]
  00433	0f 57 c0	 xorps	 xmm0, xmm0
  00436	f3 0f 2a c0	 cvtsi2ss xmm0, eax
  0043a	f3 0f 11 04 24	 movss	 DWORD PTR [esp], xmm0
  0043f	ff 17		 call	 DWORD PTR [edi]
$LN1@OnRender:

; 490  : 	}
; 491  : }

  00441	e8 00 00 00 00	 call	 __EH_epilog3_GS
  00446	c3		 ret	 0
_TEXT	ENDS
;	COMDAT text$x
text$x	SEGMENT
__unwindfunclet$?OnRender@ioMessageBox4@@MAEXXZ$0:
  00000	8d 8d bc fe ff
	ff		 lea	 ecx, DWORD PTR _szItemCnt$506861[ebp]
  00006	ff 25 00 00 00
	00		 jmp	 DWORD PTR __imp_??1ioHashString@@QAE@XZ
__unwindfunclet$?OnRender@ioMessageBox4@@MAEXXZ$1:
  0000c	8d 8d ac fe ff
	ff		 lea	 ecx, DWORD PTR _szDummy$506862[ebp]
  00012	ff 25 00 00 00
	00		 jmp	 DWORD PTR __imp_??1ioHashString@@QAE@XZ
__ehhandler$?OnRender@ioMessageBox4@@MAEXXZ:
  00018	8b 54 24 08	 mov	 edx, DWORD PTR [esp+8]
  0001c	8d 42 0c	 lea	 eax, DWORD PTR [edx+12]
  0001f	8b 8a a8 fe ff
	ff		 mov	 ecx, DWORD PTR [edx-344]
  00025	33 c8		 xor	 ecx, eax
  00027	e8 00 00 00 00	 call	 @__security_check_cookie@4
  0002c	8b 4a fc	 mov	 ecx, DWORD PTR [edx-4]
  0002f	33 c8		 xor	 ecx, eax
  00031	e8 00 00 00 00	 call	 @__security_check_cookie@4
  00036	b8 00 00 00 00	 mov	 eax, OFFSET __ehfuncinfo$?OnRender@ioMessageBox4@@MAEXXZ
  0003b	e9 00 00 00 00	 jmp	 ___CxxFrameHandler3
text$x	ENDS
?OnRender@ioMessageBox4@@MAEXXZ ENDP			; ioMessageBox4::OnRender
PUBLIC	??0?$vector@UExpandSlotItemInfo@ioMessageBox4@@V?$allocator@UExpandSlotItemInfo@ioMessageBox4@@@std@@@std@@QAE@XZ ; std::vector<ioMessageBox4::ExpandSlotItemInfo,std::allocator<ioMessageBox4::ExpandSlotItemInfo> >::vector<ioMessageBox4::ExpandSlotItemInfo,std::allocator<ioMessageBox4::ExpandSlotItemInfo> >
; Function compile flags: /Ogsp
; File c:\program files (x86)\microsoft visual studio 10.0\vc\include\vector
;	COMDAT ??0?$vector@UExpandSlotItemInfo@ioMessageBox4@@V?$allocator@UExpandSlotItemInfo@ioMessageBox4@@@std@@@std@@QAE@XZ
_TEXT	SEGMENT
??0?$vector@UExpandSlotItemInfo@ioMessageBox4@@V?$allocator@UExpandSlotItemInfo@ioMessageBox4@@@std@@@std@@QAE@XZ PROC ; std::vector<ioMessageBox4::ExpandSlotItemInfo,std::allocator<ioMessageBox4::ExpandSlotItemInfo> >::vector<ioMessageBox4::ExpandSlotItemInfo,std::allocator<ioMessageBox4::ExpandSlotItemInfo> >, COMDAT
; _this$ = ecx

; 507  : 		{	// construct empty vector

  00000	8b c1		 mov	 eax, ecx
  00002	33 c9		 xor	 ecx, ecx
  00004	89 08		 mov	 DWORD PTR [eax], ecx
  00006	89 48 04	 mov	 DWORD PTR [eax+4], ecx
  00009	89 48 08	 mov	 DWORD PTR [eax+8], ecx

; 508  : 		}

  0000c	c3		 ret	 0
??0?$vector@UExpandSlotItemInfo@ioMessageBox4@@V?$allocator@UExpandSlotItemInfo@ioMessageBox4@@@std@@@std@@QAE@XZ ENDP ; std::vector<ioMessageBox4::ExpandSlotItemInfo,std::allocator<ioMessageBox4::ExpandSlotItemInfo> >::vector<ioMessageBox4::ExpandSlotItemInfo,std::allocator<ioMessageBox4::ExpandSlotItemInfo> >
_TEXT	ENDS
PUBLIC	??0?$_Vector_iterator@V?$_Vector_val@UExpandSlotItemInfo@ioMessageBox4@@V?$allocator@UExpandSlotItemInfo@ioMessageBox4@@@std@@@std@@@std@@QAE@PAUExpandSlotItemInfo@ioMessageBox4@@PBU_Container_base0@1@@Z ; std::_Vector_iterator<std::_Vector_val<ioMessageBox4::ExpandSlotItemInfo,std::allocator<ioMessageBox4::ExpandSlotItemInfo> > >::_Vector_iterator<std::_Vector_val<ioMessageBox4::ExpandSlotItemInfo,std::allocator<ioMessageBox4::ExpandSlotItemInfo> > >
; Function compile flags: /Ogsp
;	COMDAT ??0?$_Vector_iterator@V?$_Vector_val@UExpandSlotItemInfo@ioMessageBox4@@V?$allocator@UExpandSlotItemInfo@ioMessageBox4@@@std@@@std@@@std@@QAE@PAUExpandSlotItemInfo@ioMessageBox4@@PBU_Container_base0@1@@Z
_TEXT	SEGMENT
__Parg$ = 8						; size = 4
__Pvector$ = 12						; size = 4
??0?$_Vector_iterator@V?$_Vector_val@UExpandSlotItemInfo@ioMessageBox4@@V?$allocator@UExpandSlotItemInfo@ioMessageBox4@@@std@@@std@@@std@@QAE@PAUExpandSlotItemInfo@ioMessageBox4@@PBU_Container_base0@1@@Z PROC ; std::_Vector_iterator<std::_Vector_val<ioMessageBox4::ExpandSlotItemInfo,std::allocator<ioMessageBox4::ExpandSlotItemInfo> > >::_Vector_iterator<std::_Vector_val<ioMessageBox4::ExpandSlotItemInfo,std::allocator<ioMessageBox4::ExpandSlotItemInfo> > >, COMDAT
; _this$ = ecx

; 304  : 		{	// construct with pointer _Parg

  00000	55		 push	 ebp
  00001	8b ec		 mov	 ebp, esp
  00003	8b c1		 mov	 eax, ecx
  00005	8b 4d 08	 mov	 ecx, DWORD PTR __Parg$[ebp]
  00008	89 08		 mov	 DWORD PTR [eax], ecx

; 305  : 		}

  0000a	5d		 pop	 ebp
  0000b	c2 08 00	 ret	 8
??0?$_Vector_iterator@V?$_Vector_val@UExpandSlotItemInfo@ioMessageBox4@@V?$allocator@UExpandSlotItemInfo@ioMessageBox4@@@std@@@std@@@std@@QAE@PAUExpandSlotItemInfo@ioMessageBox4@@PBU_Container_base0@1@@Z ENDP ; std::_Vector_iterator<std::_Vector_val<ioMessageBox4::ExpandSlotItemInfo,std::allocator<ioMessageBox4::ExpandSlotItemInfo> > >::_Vector_iterator<std::_Vector_val<ioMessageBox4::ExpandSlotItemInfo,std::allocator<ioMessageBox4::ExpandSlotItemInfo> > >
_TEXT	ENDS
PUBLIC	??9?$_Vector_const_iterator@V?$_Vector_val@UExpandSlotItemInfo@ioMessageBox4@@V?$allocator@UExpandSlotItemInfo@ioMessageBox4@@@std@@@std@@@std@@QBE_NABV01@@Z ; std::_Vector_const_iterator<std::_Vector_val<ioMessageBox4::ExpandSlotItemInfo,std::allocator<ioMessageBox4::ExpandSlotItemInfo> > >::operator!=
; Function compile flags: /Ogsp
;	COMDAT ??9?$_Vector_const_iterator@V?$_Vector_val@UExpandSlotItemInfo@ioMessageBox4@@V?$allocator@UExpandSlotItemInfo@ioMessageBox4@@@std@@@std@@@std@@QBE_NABV01@@Z
_TEXT	SEGMENT
__Right$ = 8						; size = 4
??9?$_Vector_const_iterator@V?$_Vector_val@UExpandSlotItemInfo@ioMessageBox4@@V?$allocator@UExpandSlotItemInfo@ioMessageBox4@@@std@@@std@@@std@@QBE_NABV01@@Z PROC ; std::_Vector_const_iterator<std::_Vector_val<ioMessageBox4::ExpandSlotItemInfo,std::allocator<ioMessageBox4::ExpandSlotItemInfo> > >::operator!=, COMDAT
; _this$ = ecx

; 207  : 		{	// test for iterator inequality

  00000	55		 push	 ebp
  00001	8b ec		 mov	 ebp, esp

; 208  : 		return (!(*this == _Right));

  00003	8b 01		 mov	 eax, DWORD PTR [ecx]
  00005	8b 55 08	 mov	 edx, DWORD PTR __Right$[ebp]
  00008	33 c9		 xor	 ecx, ecx
  0000a	3b 02		 cmp	 eax, DWORD PTR [edx]
  0000c	0f 95 c0	 setne	 al

; 209  : 		}

  0000f	5d		 pop	 ebp
  00010	c2 04 00	 ret	 4
??9?$_Vector_const_iterator@V?$_Vector_val@UExpandSlotItemInfo@ioMessageBox4@@V?$allocator@UExpandSlotItemInfo@ioMessageBox4@@@std@@@std@@@std@@QBE_NABV01@@Z ENDP ; std::_Vector_const_iterator<std::_Vector_val<ioMessageBox4::ExpandSlotItemInfo,std::allocator<ioMessageBox4::ExpandSlotItemInfo> > >::operator!=
_TEXT	ENDS
PUBLIC	??$_Cons_val@V?$allocator@UExpandSlotItemInfo@ioMessageBox4@@@std@@UExpandSlotItemInfo@ioMessageBox4@@AAU34@@std@@YAXAAV?$allocator@UExpandSlotItemInfo@ioMessageBox4@@@0@PAUExpandSlotItemInfo@ioMessageBox4@@AAU23@@Z ; std::_Cons_val<std::allocator<ioMessageBox4::ExpandSlotItemInfo>,ioMessageBox4::ExpandSlotItemInfo,ioMessageBox4::ExpandSlotItemInfo &>
;	COMDAT xdata$x
; File c:\program files (x86)\microsoft visual studio 10.0\vc\include\utility
xdata$x	SEGMENT
__unwindtable$??$_Cons_val@V?$allocator@UExpandSlotItemInfo@ioMessageBox4@@@std@@UExpandSlotItemInfo@ioMessageBox4@@AAU34@@std@@YAXAAV?$allocator@UExpandSlotItemInfo@ioMessageBox4@@@0@PAUExpandSlotItemInfo@ioMessageBox4@@AAU23@@Z DD 0ffffffffH
	DD	FLAT:__unwindfunclet$??$_Cons_val@V?$allocator@UExpandSlotItemInfo@ioMessageBox4@@@std@@UExpandSlotItemInfo@ioMessageBox4@@AAU34@@std@@YAXAAV?$allocator@UExpandSlotItemInfo@ioMessageBox4@@@0@PAUExpandSlotItemInfo@ioMessageBox4@@AAU23@@Z$0
__ehfuncinfo$??$_Cons_val@V?$allocator@UExpandSlotItemInfo@ioMessageBox4@@@std@@UExpandSlotItemInfo@ioMessageBox4@@AAU34@@std@@YAXAAV?$allocator@UExpandSlotItemInfo@ioMessageBox4@@@0@PAUExpandSlotItemInfo@ioMessageBox4@@AAU23@@Z DD 019930522H
	DD	01H
	DD	FLAT:__unwindtable$??$_Cons_val@V?$allocator@UExpandSlotItemInfo@ioMessageBox4@@@std@@UExpandSlotItemInfo@ioMessageBox4@@AAU34@@std@@YAXAAV?$allocator@UExpandSlotItemInfo@ioMessageBox4@@@0@PAUExpandSlotItemInfo@ioMessageBox4@@AAU23@@Z
	DD	2 DUP(00H)
	DD	2 DUP(00H)
	DD	00H
	DD	01H
; Function compile flags: /Ogsp
; File c:\program files (x86)\microsoft visual studio 10.0\vc\include\xmemory
xdata$x	ENDS
;	COMDAT ??$_Cons_val@V?$allocator@UExpandSlotItemInfo@ioMessageBox4@@@std@@UExpandSlotItemInfo@ioMessageBox4@@AAU34@@std@@YAXAAV?$allocator@UExpandSlotItemInfo@ioMessageBox4@@@0@PAUExpandSlotItemInfo@ioMessageBox4@@AAU23@@Z
_TEXT	SEGMENT
$T510287 = -16						; size = 4
__$EHRec$ = -12						; size = 12
__Alval$ = 8						; size = 4
__Pdest$ = 12						; size = 4
__Src$ = 16						; size = 4
??$_Cons_val@V?$allocator@UExpandSlotItemInfo@ioMessageBox4@@@std@@UExpandSlotItemInfo@ioMessageBox4@@AAU34@@std@@YAXAAV?$allocator@UExpandSlotItemInfo@ioMessageBox4@@@0@PAUExpandSlotItemInfo@ioMessageBox4@@AAU23@@Z PROC ; std::_Cons_val<std::allocator<ioMessageBox4::ExpandSlotItemInfo>,ioMessageBox4::ExpandSlotItemInfo,ioMessageBox4::ExpandSlotItemInfo &>, COMDAT

; 279  : 	{	// construct using allocator

  00000	6a 04		 push	 4
  00002	b8 00 00 00 00	 mov	 eax, __ehhandler$??$_Cons_val@V?$allocator@UExpandSlotItemInfo@ioMessageBox4@@@std@@UExpandSlotItemInfo@ioMessageBox4@@AAU34@@std@@YAXAAV?$allocator@UExpandSlotItemInfo@ioMessageBox4@@@0@PAUExpandSlotItemInfo@ioMessageBox4@@AAU23@@Z
  00007	e8 00 00 00 00	 call	 __EH_prolog3

; 280  : 	_Alval.construct(_Pdest, _STD forward<_Ty2>(_Src));

  0000c	8b 4d 0c	 mov	 ecx, DWORD PTR __Pdest$[ebp]
  0000f	89 4d f0	 mov	 DWORD PTR $T510287[ebp], ecx
  00012	83 65 fc 00	 and	 DWORD PTR __$EHRec$[ebp+8], 0
  00016	85 c9		 test	 ecx, ecx
  00018	74 08		 je	 SHORT $LN7@Cons_val
  0001a	ff 75 10	 push	 DWORD PTR __Src$[ebp]
  0001d	e8 00 00 00 00	 call	 ??0ExpandSlotItemInfo@ioMessageBox4@@QAE@ABU01@@Z
$LN7@Cons_val:

; 281  : 	}

  00022	e8 00 00 00 00	 call	 __EH_epilog3
  00027	c3		 ret	 0
_TEXT	ENDS
;	COMDAT text$x
text$x	SEGMENT
__unwindfunclet$??$_Cons_val@V?$allocator@UExpandSlotItemInfo@ioMessageBox4@@@std@@UExpandSlotItemInfo@ioMessageBox4@@AAU34@@std@@YAXAAV?$allocator@UExpandSlotItemInfo@ioMessageBox4@@@0@PAUExpandSlotItemInfo@ioMessageBox4@@AAU23@@Z$0:
  00000	ff 75 0c	 push	 DWORD PTR __Pdest$[ebp]
  00003	ff 75 f0	 push	 DWORD PTR $T510287[ebp]
  00006	e8 00 00 00 00	 call	 ??3@YAXPAX0@Z		; operator delete
  0000b	59		 pop	 ecx
  0000c	59		 pop	 ecx
  0000d	c3		 ret	 0
__ehhandler$??$_Cons_val@V?$allocator@UExpandSlotItemInfo@ioMessageBox4@@@std@@UExpandSlotItemInfo@ioMessageBox4@@AAU34@@std@@YAXAAV?$allocator@UExpandSlotItemInfo@ioMessageBox4@@@0@PAUExpandSlotItemInfo@ioMessageBox4@@AAU23@@Z:
  0000e	8b 54 24 08	 mov	 edx, DWORD PTR [esp+8]
  00012	8d 42 0c	 lea	 eax, DWORD PTR [edx+12]
  00015	8b 4a ec	 mov	 ecx, DWORD PTR [edx-20]
  00018	33 c8		 xor	 ecx, eax
  0001a	e8 00 00 00 00	 call	 @__security_check_cookie@4
  0001f	b8 00 00 00 00	 mov	 eax, OFFSET __ehfuncinfo$??$_Cons_val@V?$allocator@UExpandSlotItemInfo@ioMessageBox4@@@std@@UExpandSlotItemInfo@ioMessageBox4@@AAU34@@std@@YAXAAV?$allocator@UExpandSlotItemInfo@ioMessageBox4@@@0@PAUExpandSlotItemInfo@ioMessageBox4@@AAU23@@Z
  00024	e9 00 00 00 00	 jmp	 ___CxxFrameHandler3
text$x	ENDS
??$_Cons_val@V?$allocator@UExpandSlotItemInfo@ioMessageBox4@@@std@@UExpandSlotItemInfo@ioMessageBox4@@AAU34@@std@@YAXAAV?$allocator@UExpandSlotItemInfo@ioMessageBox4@@@0@PAUExpandSlotItemInfo@ioMessageBox4@@AAU23@@Z ENDP ; std::_Cons_val<std::allocator<ioMessageBox4::ExpandSlotItemInfo>,ioMessageBox4::ExpandSlotItemInfo,ioMessageBox4::ExpandSlotItemInfo &>
PUBLIC	??$_Move@PAUExpandSlotItemInfo@ioMessageBox4@@PAU12@@std@@YAPAUExpandSlotItemInfo@ioMessageBox4@@PAU12@00@Z ; std::_Move<ioMessageBox4::ExpandSlotItemInfo *,ioMessageBox4::ExpandSlotItemInfo *>
; Function compile flags: /Ogsp
; File c:\program files (x86)\microsoft visual studio 10.0\vc\include\xutility
;	COMDAT ??$_Move@PAUExpandSlotItemInfo@ioMessageBox4@@PAU12@@std@@YAPAUExpandSlotItemInfo@ioMessageBox4@@PAU12@00@Z
_TEXT	SEGMENT
__Cat$510307 = -4					; size = 1
__First$ = 8						; size = 4
__Last$ = 12						; size = 4
__Dest$ = 16						; size = 4
??$_Move@PAUExpandSlotItemInfo@ioMessageBox4@@PAU12@@std@@YAPAUExpandSlotItemInfo@ioMessageBox4@@PAU12@00@Z PROC ; std::_Move<ioMessageBox4::ExpandSlotItemInfo *,ioMessageBox4::ExpandSlotItemInfo *>, COMDAT

; 2533 : 	{	// move [_First, _Last) to [_Dest, ...), unchecked

  00000	55		 push	 ebp
  00001	8b ec		 mov	 ebp, esp
  00003	51		 push	 ecx

; 2534 : 	return (_Move(_First, _Last,
; 2535 : 		_Dest, _Ptr_cat(_First, _Dest)));

  00004	ff 75 fc	 push	 DWORD PTR __Cat$510307[ebp]
  00007	ff 75 10	 push	 DWORD PTR __Dest$[ebp]
  0000a	ff 75 0c	 push	 DWORD PTR __Last$[ebp]
  0000d	ff 75 08	 push	 DWORD PTR __First$[ebp]
  00010	e8 00 00 00 00	 call	 ??$_Move@PAUExpandSlotItemInfo@ioMessageBox4@@PAU12@@std@@YAPAUExpandSlotItemInfo@ioMessageBox4@@PAU12@00U_Nonscalar_ptr_iterator_tag@0@@Z ; std::_Move<ioMessageBox4::ExpandSlotItemInfo *,ioMessageBox4::ExpandSlotItemInfo *>
  00015	83 c4 10	 add	 esp, 16			; 00000010H

; 2536 : 	}

  00018	c9		 leave
  00019	c3		 ret	 0
??$_Move@PAUExpandSlotItemInfo@ioMessageBox4@@PAU12@@std@@YAPAUExpandSlotItemInfo@ioMessageBox4@@PAU12@00@Z ENDP ; std::_Move<ioMessageBox4::ExpandSlotItemInfo *,ioMessageBox4::ExpandSlotItemInfo *>
_TEXT	ENDS
PUBLIC	?construct@?$allocator@UExpandSlotItemInfo@ioMessageBox4@@@std@@QAEXPAUExpandSlotItemInfo@ioMessageBox4@@ABU34@@Z ; std::allocator<ioMessageBox4::ExpandSlotItemInfo>::construct
; Function compile flags: /Ogsp
; File c:\program files (x86)\microsoft visual studio 10.0\vc\include\xmemory
;	COMDAT ?construct@?$allocator@UExpandSlotItemInfo@ioMessageBox4@@@std@@QAEXPAUExpandSlotItemInfo@ioMessageBox4@@ABU34@@Z
_TEXT	SEGMENT
__Ptr$ = 8						; size = 4
__Val$ = 12						; size = 4
?construct@?$allocator@UExpandSlotItemInfo@ioMessageBox4@@@std@@QAEXPAUExpandSlotItemInfo@ioMessageBox4@@ABU34@@Z PROC ; std::allocator<ioMessageBox4::ExpandSlotItemInfo>::construct, COMDAT
; _this$ = ecx

; 196  : 		{	// construct object at _Ptr with value _Val

  00000	55		 push	 ebp
  00001	8b ec		 mov	 ebp, esp

; 197  : 		_Construct(_Ptr, _Val);

  00003	ff 75 0c	 push	 DWORD PTR __Val$[ebp]
  00006	ff 75 08	 push	 DWORD PTR __Ptr$[ebp]
  00009	e8 00 00 00 00	 call	 ??$_Construct@UExpandSlotItemInfo@ioMessageBox4@@ABU12@@std@@YAXPAUExpandSlotItemInfo@ioMessageBox4@@ABU12@@Z ; std::_Construct<ioMessageBox4::ExpandSlotItemInfo,ioMessageBox4::ExpandSlotItemInfo const &>
  0000e	59		 pop	 ecx
  0000f	59		 pop	 ecx

; 198  : 		}

  00010	5d		 pop	 ebp
  00011	c2 08 00	 ret	 8
?construct@?$allocator@UExpandSlotItemInfo@ioMessageBox4@@@std@@QAEXPAUExpandSlotItemInfo@ioMessageBox4@@ABU34@@Z ENDP ; std::allocator<ioMessageBox4::ExpandSlotItemInfo>::construct
_TEXT	ENDS
PUBLIC	?destroy@?$allocator@UExpandSlotItemInfo@ioMessageBox4@@@std@@QAEXPAUExpandSlotItemInfo@ioMessageBox4@@@Z ; std::allocator<ioMessageBox4::ExpandSlotItemInfo>::destroy
; Function compile flags: /Ogsp
;	COMDAT ?destroy@?$allocator@UExpandSlotItemInfo@ioMessageBox4@@@std@@QAEXPAUExpandSlotItemInfo@ioMessageBox4@@@Z
_TEXT	SEGMENT
__Ptr$ = 8						; size = 4
?destroy@?$allocator@UExpandSlotItemInfo@ioMessageBox4@@@std@@QAEXPAUExpandSlotItemInfo@ioMessageBox4@@@Z PROC ; std::allocator<ioMessageBox4::ExpandSlotItemInfo>::destroy, COMDAT
; _this$ = ecx

; 212  : 		{	// destroy object at _Ptr

  00000	55		 push	 ebp
  00001	8b ec		 mov	 ebp, esp

; 213  : 		_Destroy(_Ptr);

  00003	8b 4d 08	 mov	 ecx, DWORD PTR __Ptr$[ebp]
  00006	83 c1 04	 add	 ecx, 4
  00009	ff 15 00 00 00
	00		 call	 DWORD PTR __imp_??1ioHashString@@QAE@XZ

; 214  : 		}

  0000f	5d		 pop	 ebp
  00010	c2 04 00	 ret	 4
?destroy@?$allocator@UExpandSlotItemInfo@ioMessageBox4@@@std@@QAEXPAUExpandSlotItemInfo@ioMessageBox4@@@Z ENDP ; std::allocator<ioMessageBox4::ExpandSlotItemInfo>::destroy
_TEXT	ENDS
PUBLIC	??$_Cons_val@V?$allocator@UExpandSlotItemInfo@ioMessageBox4@@@std@@UExpandSlotItemInfo@ioMessageBox4@@U34@@std@@YAXAAV?$allocator@UExpandSlotItemInfo@ioMessageBox4@@@0@PAUExpandSlotItemInfo@ioMessageBox4@@$$QAU23@@Z ; std::_Cons_val<std::allocator<ioMessageBox4::ExpandSlotItemInfo>,ioMessageBox4::ExpandSlotItemInfo,ioMessageBox4::ExpandSlotItemInfo>
;	COMDAT xdata$x
; File c:\program files (x86)\microsoft visual studio 10.0\vc\include\utility
xdata$x	SEGMENT
__unwindtable$??$_Cons_val@V?$allocator@UExpandSlotItemInfo@ioMessageBox4@@@std@@UExpandSlotItemInfo@ioMessageBox4@@U34@@std@@YAXAAV?$allocator@UExpandSlotItemInfo@ioMessageBox4@@@0@PAUExpandSlotItemInfo@ioMessageBox4@@$$QAU23@@Z DD 0ffffffffH
	DD	FLAT:__unwindfunclet$??$_Cons_val@V?$allocator@UExpandSlotItemInfo@ioMessageBox4@@@std@@UExpandSlotItemInfo@ioMessageBox4@@U34@@std@@YAXAAV?$allocator@UExpandSlotItemInfo@ioMessageBox4@@@0@PAUExpandSlotItemInfo@ioMessageBox4@@$$QAU23@@Z$0
__ehfuncinfo$??$_Cons_val@V?$allocator@UExpandSlotItemInfo@ioMessageBox4@@@std@@UExpandSlotItemInfo@ioMessageBox4@@U34@@std@@YAXAAV?$allocator@UExpandSlotItemInfo@ioMessageBox4@@@0@PAUExpandSlotItemInfo@ioMessageBox4@@$$QAU23@@Z DD 019930522H
	DD	01H
	DD	FLAT:__unwindtable$??$_Cons_val@V?$allocator@UExpandSlotItemInfo@ioMessageBox4@@@std@@UExpandSlotItemInfo@ioMessageBox4@@U34@@std@@YAXAAV?$allocator@UExpandSlotItemInfo@ioMessageBox4@@@0@PAUExpandSlotItemInfo@ioMessageBox4@@$$QAU23@@Z
	DD	2 DUP(00H)
	DD	2 DUP(00H)
	DD	00H
	DD	01H
; Function compile flags: /Ogsp
; File c:\program files (x86)\microsoft visual studio 10.0\vc\include\xmemory
xdata$x	ENDS
;	COMDAT ??$_Cons_val@V?$allocator@UExpandSlotItemInfo@ioMessageBox4@@@std@@UExpandSlotItemInfo@ioMessageBox4@@U34@@std@@YAXAAV?$allocator@UExpandSlotItemInfo@ioMessageBox4@@@0@PAUExpandSlotItemInfo@ioMessageBox4@@$$QAU23@@Z
_TEXT	SEGMENT
$T510349 = -16						; size = 4
__$EHRec$ = -12						; size = 12
__Alval$ = 8						; size = 4
__Pdest$ = 12						; size = 4
__Src$ = 16						; size = 4
??$_Cons_val@V?$allocator@UExpandSlotItemInfo@ioMessageBox4@@@std@@UExpandSlotItemInfo@ioMessageBox4@@U34@@std@@YAXAAV?$allocator@UExpandSlotItemInfo@ioMessageBox4@@@0@PAUExpandSlotItemInfo@ioMessageBox4@@$$QAU23@@Z PROC ; std::_Cons_val<std::allocator<ioMessageBox4::ExpandSlotItemInfo>,ioMessageBox4::ExpandSlotItemInfo,ioMessageBox4::ExpandSlotItemInfo>, COMDAT

; 279  : 	{	// construct using allocator

  00000	6a 04		 push	 4
  00002	b8 00 00 00 00	 mov	 eax, __ehhandler$??$_Cons_val@V?$allocator@UExpandSlotItemInfo@ioMessageBox4@@@std@@UExpandSlotItemInfo@ioMessageBox4@@U34@@std@@YAXAAV?$allocator@UExpandSlotItemInfo@ioMessageBox4@@@0@PAUExpandSlotItemInfo@ioMessageBox4@@$$QAU23@@Z
  00007	e8 00 00 00 00	 call	 __EH_prolog3

; 280  : 	_Alval.construct(_Pdest, _STD forward<_Ty2>(_Src));

  0000c	8b 4d 0c	 mov	 ecx, DWORD PTR __Pdest$[ebp]
  0000f	89 4d f0	 mov	 DWORD PTR $T510349[ebp], ecx
  00012	83 65 fc 00	 and	 DWORD PTR __$EHRec$[ebp+8], 0
  00016	85 c9		 test	 ecx, ecx
  00018	74 08		 je	 SHORT $LN7@Cons_val@2
  0001a	ff 75 10	 push	 DWORD PTR __Src$[ebp]
  0001d	e8 00 00 00 00	 call	 ??0ExpandSlotItemInfo@ioMessageBox4@@QAE@ABU01@@Z
$LN7@Cons_val@2:

; 281  : 	}

  00022	e8 00 00 00 00	 call	 __EH_epilog3
  00027	c3		 ret	 0
_TEXT	ENDS
;	COMDAT text$x
text$x	SEGMENT
__unwindfunclet$??$_Cons_val@V?$allocator@UExpandSlotItemInfo@ioMessageBox4@@@std@@UExpandSlotItemInfo@ioMessageBox4@@U34@@std@@YAXAAV?$allocator@UExpandSlotItemInfo@ioMessageBox4@@@0@PAUExpandSlotItemInfo@ioMessageBox4@@$$QAU23@@Z$0:
  00000	ff 75 0c	 push	 DWORD PTR __Pdest$[ebp]
  00003	ff 75 f0	 push	 DWORD PTR $T510349[ebp]
  00006	e8 00 00 00 00	 call	 ??3@YAXPAX0@Z		; operator delete
  0000b	59		 pop	 ecx
  0000c	59		 pop	 ecx
  0000d	c3		 ret	 0
__ehhandler$??$_Cons_val@V?$allocator@UExpandSlotItemInfo@ioMessageBox4@@@std@@UExpandSlotItemInfo@ioMessageBox4@@U34@@std@@YAXAAV?$allocator@UExpandSlotItemInfo@ioMessageBox4@@@0@PAUExpandSlotItemInfo@ioMessageBox4@@$$QAU23@@Z:
  0000e	8b 54 24 08	 mov	 edx, DWORD PTR [esp+8]
  00012	8d 42 0c	 lea	 eax, DWORD PTR [edx+12]
  00015	8b 4a ec	 mov	 ecx, DWORD PTR [edx-20]
  00018	33 c8		 xor	 ecx, eax
  0001a	e8 00 00 00 00	 call	 @__security_check_cookie@4
  0001f	b8 00 00 00 00	 mov	 eax, OFFSET __ehfuncinfo$??$_Cons_val@V?$allocator@UExpandSlotItemInfo@ioMessageBox4@@@std@@UExpandSlotItemInfo@ioMessageBox4@@U34@@std@@YAXAAV?$allocator@UExpandSlotItemInfo@ioMessageBox4@@@0@PAUExpandSlotItemInfo@ioMessageBox4@@$$QAU23@@Z
  00024	e9 00 00 00 00	 jmp	 ___CxxFrameHandler3
text$x	ENDS
??$_Cons_val@V?$allocator@UExpandSlotItemInfo@ioMessageBox4@@@std@@UExpandSlotItemInfo@ioMessageBox4@@U34@@std@@YAXAAV?$allocator@UExpandSlotItemInfo@ioMessageBox4@@@0@PAUExpandSlotItemInfo@ioMessageBox4@@$$QAU23@@Z ENDP ; std::_Cons_val<std::allocator<ioMessageBox4::ExpandSlotItemInfo>,ioMessageBox4::ExpandSlotItemInfo,ioMessageBox4::ExpandSlotItemInfo>
PUBLIC	?GetLimitTime@ioEtcItemExpandMedalSlot@@QBE?BKXZ ; ioEtcItemExpandMedalSlot::GetLimitTime
; Function compile flags: /Ogsp
; File d:\lost saga for developer\youtube\tutorial\source\src\lsclient\ioetcitem.h
;	COMDAT ?GetLimitTime@ioEtcItemExpandMedalSlot@@QBE?BKXZ
_TEXT	SEGMENT
_value$510368 = -4					; size = 4
?GetLimitTime@ioEtcItemExpandMedalSlot@@QBE?BKXZ PROC	; ioEtcItemExpandMedalSlot::GetLimitTime, COMDAT
; _this$ = ecx

; 1616 : 	inline const DWORD GetLimitTime() const { return m_dwLimitTime; }

  00000	55		 push	 ebp
  00001	8b ec		 mov	 ebp, esp
  00003	51		 push	 ecx
  00004	8d 45 fc	 lea	 eax, DWORD PTR _value$510368[ebp]
  00007	50		 push	 eax
  00008	81 c1 b8 01 00
	00		 add	 ecx, 440		; 000001b8H
  0000e	e8 00 00 00 00	 call	 ?DecryptValueToPool@?$CEncrypt@K@@QAEXPAK@Z ; CEncrypt<unsigned long>::DecryptValueToPool
  00013	8b 45 fc	 mov	 eax, DWORD PTR _value$510368[ebp]
  00016	c9		 leave
  00017	c3		 ret	 0
?GetLimitTime@ioEtcItemExpandMedalSlot@@QBE?BKXZ ENDP	; ioEtcItemExpandMedalSlot::GetLimitTime
_TEXT	ENDS
PUBLIC	??_R0?AVMyInventoryInfoWnd@@@8			; MyInventoryInfoWnd `RTTI Type Descriptor'
PUBLIC	??_R0?AVMyInventoryWnd@@@8			; MyInventoryWnd `RTTI Type Descriptor'
PUBLIC	??_C@_0BN@MHEOPCJP@ioMessageBox4?3?3UpdateMessage?$AA@ ; `string'
PUBLIC	_this$GSCopy$
PUBLIC	?UpdateMessage@ioMessageBox4@@QAEXXZ		; ioMessageBox4::UpdateMessage
EXTRN	?SetExpandMedalSlotItemData@MyInventoryInfoWnd@@QAEXK@Z:PROC ; MyInventoryInfoWnd::SetExpandMedalSlotItemData
EXTRN	__imp_?FindWnd@ioGUIManager@@QAEPAVioWnd@@K@Z:PROC
EXTRN	?GetSingleton@ioSP2GUIManager@@SAAAV1@XZ:PROC	; ioSP2GUIManager::GetSingleton
EXTRN	?GetEtcItem@ioUserEtcItem@@QAE_NHAAUETCITEMSLOT@1@@Z:PROC ; ioUserEtcItem::GetEtcItem
EXTRN	??_M@YGXPAXIHP6EX0@Z@Z:PROC			; `eh vector destructor iterator'
EXTRN	?CopyFullText@ioComplexStringPrinter@@QBEXAAV1@@Z:PROC ; ioComplexStringPrinter::CopyFullText
EXTRN	?AddTextPiece@ioComplexStringPrinter@@QAAXMPBDZZ:PROC ; ioComplexStringPrinter::AddTextPiece
EXTRN	?SetTextColor@ioComplexStringPrinter@@QAEXK@Z:PROC ; ioComplexStringPrinter::SetTextColor
EXTRN	?SetBkColor@ioComplexStringPrinter@@QAEXHHH@Z:PROC ; ioComplexStringPrinter::SetBkColor
EXTRN	?SetTextStyle@ioComplexStringPrinter@@QAEXW4TextStyle@@@Z:PROC ; ioComplexStringPrinter::SetTextStyle
EXTRN	??_L@YGXPAXIHP6EX0@Z1@Z:PROC			; `eh vector constructor iterator'
EXTRN	??0ioComplexStringPrinter@@QAE@XZ:PROC		; ioComplexStringPrinter::ioComplexStringPrinter
EXTRN	??1ioComplexStringPrinter@@QAE@XZ:PROC		; ioComplexStringPrinter::~ioComplexStringPrinter
EXTRN	__imp_?CreateImageByFullName@ioUIImageSetManager@@QAEPAVioUIRenderImage@@ABVioHashString@@_N@Z:PROC
EXTRN	__imp_?GetSingleton@ioUIImageSetManager@@SAAAV1@XZ:PROC
EXTRN	__imp_??0ioHashString@@QAE@PBD@Z:PROC
;	COMDAT ??_R0?AVMyInventoryInfoWnd@@@8
; File c:\program files (x86)\microsoft visual studio 10.0\vc\include\vector
_DATA	SEGMENT
??_R0?AVMyInventoryInfoWnd@@@8 DD FLAT:??_7type_info@@6B@ ; MyInventoryInfoWnd `RTTI Type Descriptor'
	DD	00H
	DB	'.?AVMyInventoryInfoWnd@@', 00H
_DATA	ENDS
;	COMDAT ??_R0?AVMyInventoryWnd@@@8
_DATA	SEGMENT
??_R0?AVMyInventoryWnd@@@8 DD FLAT:??_7type_info@@6B@	; MyInventoryWnd `RTTI Type Descriptor'
	DD	00H
	DB	'.?AVMyInventoryWnd@@', 00H
_DATA	ENDS
;	COMDAT ??_C@_0BN@MHEOPCJP@ioMessageBox4?3?3UpdateMessage?$AA@
CONST	SEGMENT
??_C@_0BN@MHEOPCJP@ioMessageBox4?3?3UpdateMessage?$AA@ DB 'ioMessageBox4:'
	DB	':UpdateMessage', 00H			; `string'
CONST	ENDS
;	COMDAT xdata$x
xdata$x	SEGMENT
__unwindtable$?UpdateMessage@ioMessageBox4@@QAEXXZ DD 0ffffffffH
	DD	FLAT:__unwindfunclet$?UpdateMessage@ioMessageBox4@@QAEXXZ$0
	DD	00H
	DD	FLAT:__unwindfunclet$?UpdateMessage@ioMessageBox4@@QAEXXZ$1
	DD	0ffffffffH
	DD	FLAT:__unwindfunclet$?UpdateMessage@ioMessageBox4@@QAEXXZ$2
__ehfuncinfo$?UpdateMessage@ioMessageBox4@@QAEXXZ DD 019930522H
	DD	03H
	DD	FLAT:__unwindtable$?UpdateMessage@ioMessageBox4@@QAEXXZ
	DD	2 DUP(00H)
	DD	2 DUP(00H)
	DD	00H
	DD	01H
; Function compile flags: /Ogsp
; File d:\lost saga for developer\youtube\tutorial\source\src\lsclient\gui\iomessagebox4.cpp
xdata$x	ENDS
;	COMDAT ?UpdateMessage@ioMessageBox4@@QAEXXZ
_TEXT	SEGMENT
_szName$506717 = -1616					; size = 16
_kItemSlot$506747 = -1600				; size = 12
_pUserEtcItem$ = -1588					; size = 4
tv837 = -1584						; size = 4
tv822 = -1580						; size = 4
tv679 = -1576						; size = 4
_value$510405 = -1576					; size = 4
_i$506765 = -1576					; size = 4
_pItem$506749 = -1576					; size = 4
_this$GSCopy$ = -1572					; size = 4
_i$506743 = -1568					; size = 4
_i$506738 = -1568					; size = 4
_i$506718 = -1568					; size = 4
_MsgPrinter$506729 = -1564				; size = 384
_MsgPrinter$506757 = -1180				; size = 384
_szTitle$506734 = -796					; size = 260
_szWindowTitle$506756 = -536				; size = 260
_szTitle$506762 = -276					; size = 260
__$EHRec$ = -12						; size = 12
?UpdateMessage@ioMessageBox4@@QAEXXZ PROC		; ioMessageBox4::UpdateMessage, COMDAT
; _this$ = ecx

; 190  : {

  00000	68 44 06 00 00	 push	 1604			; 00000644H
  00005	b8 00 00 00 00	 mov	 eax, __ehhandler$?UpdateMessage@ioMessageBox4@@QAEXXZ
  0000a	e8 00 00 00 00	 call	 __EH_prolog3_GS
  0000f	8b f1		 mov	 esi, ecx

; 191  : 	ioUserEtcItem *pUserEtcItem =  g_MyInfo.GetUserEtcItem();

  00011	89 b5 dc f9 ff
	ff		 mov	 DWORD PTR _this$GSCopy$[ebp], esi
  00017	e8 00 00 00 00	 call	 ?GetSingleton@ioMyInfo@@SAAAV1@XZ ; ioMyInfo::GetSingleton
  0001c	05 44 01 00 00	 add	 eax, 324		; 00000144H

; 192  : 	if( !pUserEtcItem )

  00021	33 db		 xor	 ebx, ebx
  00023	89 85 cc f9 ff
	ff		 mov	 DWORD PTR _pUserEtcItem$[ebp], eax
  00029	3b c3		 cmp	 eax, ebx
  0002b	0f 84 a5 06 00
	00		 je	 $LN1@UpdateMess

; 193  : 	{
; 194  : 		return;
; 195  : 	}
; 196  : 
; 197  : 	if( !m_bHasItem )

  00031	38 9e 04 03 00
	00		 cmp	 BYTE PTR [esi+772], bl

; 198  : 	{
; 199  : 		ioHashString szName = "";

  00037	be 00 00 00 00	 mov	 esi, OFFSET ??_C@_00CNPNBAHC@?$AA@
  0003c	0f 85 e4 02 00
	00		 jne	 $LN23@UpdateMess
  00042	56		 push	 esi
  00043	8d 8d b0 f9 ff
	ff		 lea	 ecx, DWORD PTR _szName$506717[ebp]
  00049	ff 15 00 00 00
	00		 call	 DWORD PTR __imp_??0ioHashString@@QAE@PBD@Z
  0004f	89 5d fc	 mov	 DWORD PTR __$EHRec$[ebp+8], ebx

; 200  : 		for( int i=ioEtcItem::EIT_ETC_EXPAND_MEDAL_SLOT01; i<ioEtcItem::EIT_ETC_EXPAND_MEDAL_SLOT20 + 1; ++i )

  00052	c7 85 e0 f9 ff
	ff aa 47 0f 00	 mov	 DWORD PTR _i$506718[ebp], 1001386 ; 000f47aaH
$LN22@UpdateMess:

; 201  : 		{
; 202  : 			ioEtcItemExpandMedalSlot *pItem = dynamic_cast<ioEtcItemExpandMedalSlot*> ( g_EtcItemMgr.FindEtcItem(i) );

  0005c	8b 0d 00 00 00
	00		 mov	 ecx, DWORD PTR ?ms_Singleton@?$Singleton@VioEtcItemManager@@@@1PAVioEtcItemManager@@A ; Singleton<ioEtcItemManager>::ms_Singleton
  00062	53		 push	 ebx
  00063	68 00 00 00 00	 push	 OFFSET ??_R0?AVioEtcItemExpandMedalSlot@@@8
  00068	68 00 00 00 00	 push	 OFFSET ??_R0?AVioEtcItem@@@8
  0006d	53		 push	 ebx
  0006e	ff b5 e0 f9 ff
	ff		 push	 DWORD PTR _i$506718[ebp]
  00074	e8 00 00 00 00	 call	 ?FindEtcItem@ioEtcItemManager@@QAEPAVioEtcItem@@K@Z ; ioEtcItemManager::FindEtcItem
  00079	50		 push	 eax
  0007a	e8 00 00 00 00	 call	 ___RTDynamicCast
  0007f	8b f8		 mov	 edi, eax
  00081	83 c4 14	 add	 esp, 20			; 00000014H

; 203  : 			if( pItem &&
; 204  : 				pItem->GetUseSlotNumber() == m_iSelectSlot &&
; 205  : 				pItem->GetLimitTime() > 0 )

  00084	3b fb		 cmp	 edi, ebx
  00086	0f 84 9b 00 00
	00		 je	 $LN21@UpdateMess
  0008c	0f b6 87 e8 01
	00 00		 movzx	 eax, BYTE PTR [edi+488]
  00093	8b 8d dc f9 ff
	ff		 mov	 ecx, DWORD PTR _this$GSCopy$[ebp]
  00099	3b 81 08 03 00
	00		 cmp	 eax, DWORD PTR [ecx+776]
  0009f	0f 85 82 00 00
	00		 jne	 $LN21@UpdateMess
  000a5	8d 85 d8 f9 ff
	ff		 lea	 eax, DWORD PTR _value$510405[ebp]
  000ab	8d 8f b8 01 00
	00		 lea	 ecx, DWORD PTR [edi+440]
  000b1	50		 push	 eax
  000b2	e8 00 00 00 00	 call	 ?DecryptValueToPool@?$CEncrypt@K@@QAEXPAK@Z ; CEncrypt<unsigned long>::DecryptValueToPool
  000b7	39 9d d8 f9 ff
	ff		 cmp	 DWORD PTR _value$510405[ebp], ebx
  000bd	76 68		 jbe	 SHORT $LN21@UpdateMess

; 206  : 			{
; 207  : 				SAFEDELETE( m_pIcon );

  000bf	8b 85 dc f9 ff
	ff		 mov	 eax, DWORD PTR _this$GSCopy$[ebp]
  000c5	8b 88 60 01 00
	00		 mov	 ecx, DWORD PTR [eax+352]
  000cb	3b cb		 cmp	 ecx, ebx
  000cd	74 13		 je	 SHORT $LN18@UpdateMess
  000cf	8b 01		 mov	 eax, DWORD PTR [ecx]
  000d1	6a 01		 push	 1
  000d3	ff 50 40	 call	 DWORD PTR [eax+64]
  000d6	8b 85 dc f9 ff
	ff		 mov	 eax, DWORD PTR _this$GSCopy$[ebp]
  000dc	89 98 60 01 00
	00		 mov	 DWORD PTR [eax+352], ebx
$LN18@UpdateMess:

; 208  : 				m_pIcon = g_UIImageSetMgr.CreateImageByFullName( pItem->GetIconName() );

  000e2	8d 87 60 01 00
	00		 lea	 eax, DWORD PTR [edi+352]
  000e8	53		 push	 ebx
  000e9	50		 push	 eax
  000ea	ff 15 00 00 00
	00		 call	 DWORD PTR __imp_?GetSingleton@ioUIImageSetManager@@SAAAV1@XZ
  000f0	8b c8		 mov	 ecx, eax
  000f2	ff 15 00 00 00
	00		 call	 DWORD PTR __imp_?CreateImageByFullName@ioUIImageSetManager@@QAEPAVioUIRenderImage@@ABVioHashString@@_N@Z
  000f8	8b 8d dc f9 ff
	ff		 mov	 ecx, DWORD PTR _this$GSCopy$[ebp]
  000fe	89 81 60 01 00
	00		 mov	 DWORD PTR [ecx+352], eax

; 209  : 				szName = pItem->GetName();

  00104	8d 47 04	 lea	 eax, DWORD PTR [edi+4]
  00107	50		 push	 eax
  00108	8d 8d b0 f9 ff
	ff		 lea	 ecx, DWORD PTR _szName$506717[ebp]
  0010e	ff 15 00 00 00
	00		 call	 DWORD PTR __imp_??4ioHashString@@QAEAAV0@ABV0@@Z

; 210  : 				m_dwSelectItemType = pItem->GetType();

  00114	8b 07		 mov	 eax, DWORD PTR [edi]
  00116	8b cf		 mov	 ecx, edi
  00118	ff 50 40	 call	 DWORD PTR [eax+64]
  0011b	8b 8d dc f9 ff
	ff		 mov	 ecx, DWORD PTR _this$GSCopy$[ebp]
  00121	89 81 0c 03 00
	00		 mov	 DWORD PTR [ecx+780], eax
$LN21@UpdateMess:

; 200  : 		for( int i=ioEtcItem::EIT_ETC_EXPAND_MEDAL_SLOT01; i<ioEtcItem::EIT_ETC_EXPAND_MEDAL_SLOT20 + 1; ++i )

  00127	ff 85 e0 f9 ff
	ff		 inc	 DWORD PTR _i$506718[ebp]
  0012d	81 bd e0 f9 ff
	ff be 47 0f 00	 cmp	 DWORD PTR _i$506718[ebp], 1001406 ; 000f47beH
  00137	0f 8c 1f ff ff
	ff		 jl	 $LN22@UpdateMess

; 211  : 			}
; 212  : 		}
; 213  : 		ioComplexStringPrinter MsgPrinter[MAX_MSG_LIST_SIZE];

  0013d	68 00 00 00 00	 push	 OFFSET ??1ioComplexStringPrinter@@QAE@XZ ; ioComplexStringPrinter::~ioComplexStringPrinter
  00142	68 00 00 00 00	 push	 OFFSET ??0ioComplexStringPrinter@@QAE@XZ ; ioComplexStringPrinter::ioComplexStringPrinter
  00147	6a 0c		 push	 12			; 0000000cH
  00149	6a 20		 push	 32			; 00000020H
  0014b	8d 85 e4 f9 ff
	ff		 lea	 eax, DWORD PTR _MsgPrinter$506729[ebp]
  00151	50		 push	 eax
  00152	e8 00 00 00 00	 call	 ??_L@YGXPAXIHP6EX0@Z1@Z

; 214  : 		MsgPrinter[0].SetTextStyle( TS_NORMAL );

  00157	53		 push	 ebx
  00158	8d 8d e4 f9 ff
	ff		 lea	 ecx, DWORD PTR _MsgPrinter$506729[ebp]
  0015e	c6 45 fc 01	 mov	 BYTE PTR __$EHRec$[ebp+8], 1
  00162	e8 00 00 00 00	 call	 ?SetTextStyle@ioComplexStringPrinter@@QAEXW4TextStyle@@@Z ; ioComplexStringPrinter::SetTextStyle

; 215  : 		MsgPrinter[0].SetBkColor( 0, 0, 0 );

  00167	53		 push	 ebx
  00168	53		 push	 ebx
  00169	53		 push	 ebx
  0016a	8d 8d e4 f9 ff
	ff		 lea	 ecx, DWORD PTR _MsgPrinter$506729[ebp]
  00170	e8 00 00 00 00	 call	 ?SetBkColor@ioComplexStringPrinter@@QAEXHHH@Z ; ioComplexStringPrinter::SetBkColor

; 216  : 		MsgPrinter[0].SetTextColor( TCT_DEFAULT_DARKGRAY );

  00175	68 3a 3a 3a ff	 push	 -12961222		; ff3a3a3aH
  0017a	8d 8d e4 f9 ff
	ff		 lea	 ecx, DWORD PTR _MsgPrinter$506729[ebp]
  00180	e8 00 00 00 00	 call	 ?SetTextColor@ioComplexStringPrinter@@QAEXK@Z ; ioComplexStringPrinter::SetTextColor

; 217  : 		char szTitle[MAX_PATH] = "";

  00185	68 03 01 00 00	 push	 259			; 00000103H
  0018a	8d 85 e5 fc ff
	ff		 lea	 eax, DWORD PTR _szTitle$506734[ebp+1]
  00190	53		 push	 ebx
  00191	50		 push	 eax
  00192	88 9d e4 fc ff
	ff		 mov	 BYTE PTR _szTitle$506734[ebp], bl
  00198	e8 00 00 00 00	 call	 _memset
  0019d	83 c4 0c	 add	 esp, 12			; 0000000cH

; 218  : 		SafeSprintf( szTitle, sizeof(szTitle), STR(1), szName.c_str() );

  001a0	8d 8d b0 f9 ff
	ff		 lea	 ecx, DWORD PTR _szName$506717[ebp]
  001a6	ff 15 00 00 00
	00		 call	 DWORD PTR __imp_?c_str@ioHashString@@QBEPBDXZ
  001ac	50		 push	 eax
  001ad	53		 push	 ebx
  001ae	6a 01		 push	 1
  001b0	56		 push	 esi
  001b1	bf 00 00 00 00	 mov	 edi, OFFSET ??_C@_0BN@MHEOPCJP@ioMessageBox4?3?3UpdateMessage?$AA@
  001b6	57		 push	 edi
  001b7	ff 15 00 00 00
	00		 call	 DWORD PTR __imp_?GetSingleton@ioStringManager@@SAAAV1@XZ
  001bd	8b c8		 mov	 ecx, eax
  001bf	ff 15 00 00 00
	00		 call	 DWORD PTR __imp_?GetString@ioStringManager@@QAEPADPBD0HW4FileNamePrefix@1@@Z
  001c5	50		 push	 eax
  001c6	8d 85 e4 fc ff
	ff		 lea	 eax, DWORD PTR _szTitle$506734[ebp]
  001cc	68 04 01 00 00	 push	 260			; 00000104H
  001d1	50		 push	 eax
  001d2	ff 15 00 00 00
	00		 call	 DWORD PTR __imp_?SafeSprintf@@YAXPADHPBD1@Z

; 219  : 		MsgPrinter[0].AddTextPiece( FONT_SIZE_13, szTitle );

  001d8	f3 0f 10 05 00
	00 00 00	 movss	 xmm0, DWORD PTR __real@3f266666
  001e0	83 c4 10	 add	 esp, 16			; 00000010H
  001e3	8d 85 e4 fc ff
	ff		 lea	 eax, DWORD PTR _szTitle$506734[ebp]
  001e9	50		 push	 eax
  001ea	51		 push	 ecx
  001eb	8d 85 e4 f9 ff
	ff		 lea	 eax, DWORD PTR _MsgPrinter$506729[ebp]
  001f1	f3 0f 11 04 24	 movss	 DWORD PTR [esp], xmm0
  001f6	50		 push	 eax
  001f7	e8 00 00 00 00	 call	 ?AddTextPiece@ioComplexStringPrinter@@QAAXMPBDZZ ; ioComplexStringPrinter::AddTextPiece
  001fc	83 c4 0c	 add	 esp, 12			; 0000000cH

; 220  : 
; 221  : 		MsgPrinter[1].SetTextStyle( TS_NORMAL );

  001ff	53		 push	 ebx
  00200	8d 8d 04 fa ff
	ff		 lea	 ecx, DWORD PTR _MsgPrinter$506729[ebp+32]
  00206	e8 00 00 00 00	 call	 ?SetTextStyle@ioComplexStringPrinter@@QAEXW4TextStyle@@@Z ; ioComplexStringPrinter::SetTextStyle

; 222  : 		MsgPrinter[1].SetBkColor( 0, 0, 0 );

  0020b	53		 push	 ebx
  0020c	53		 push	 ebx
  0020d	53		 push	 ebx
  0020e	8d 8d 04 fa ff
	ff		 lea	 ecx, DWORD PTR _MsgPrinter$506729[ebp+32]
  00214	e8 00 00 00 00	 call	 ?SetBkColor@ioComplexStringPrinter@@QAEXHHH@Z ; ioComplexStringPrinter::SetBkColor

; 223  : 		MsgPrinter[1].SetTextColor( TCT_DEFAULT_DARKGRAY );

  00219	68 3a 3a 3a ff	 push	 -12961222		; ff3a3a3aH
  0021e	8d 8d 04 fa ff
	ff		 lea	 ecx, DWORD PTR _MsgPrinter$506729[ebp+32]
  00224	e8 00 00 00 00	 call	 ?SetTextColor@ioComplexStringPrinter@@QAEXK@Z ; ioComplexStringPrinter::SetTextColor

; 224  : 		MsgPrinter[1].AddTextPiece( FONT_SIZE_13, STR(2) );

  00229	53		 push	 ebx
  0022a	6a 02		 push	 2
  0022c	56		 push	 esi
  0022d	57		 push	 edi
  0022e	ff 15 00 00 00
	00		 call	 DWORD PTR __imp_?GetSingleton@ioStringManager@@SAAAV1@XZ
  00234	8b c8		 mov	 ecx, eax
  00236	ff 15 00 00 00
	00		 call	 DWORD PTR __imp_?GetString@ioStringManager@@QAEPADPBD0HW4FileNamePrefix@1@@Z
  0023c	f3 0f 10 05 00
	00 00 00	 movss	 xmm0, DWORD PTR __real@3f266666
  00244	50		 push	 eax
  00245	51		 push	 ecx
  00246	8d 85 04 fa ff
	ff		 lea	 eax, DWORD PTR _MsgPrinter$506729[ebp+32]
  0024c	f3 0f 11 04 24	 movss	 DWORD PTR [esp], xmm0
  00251	50		 push	 eax
  00252	e8 00 00 00 00	 call	 ?AddTextPiece@ioComplexStringPrinter@@QAAXMPBDZZ ; ioComplexStringPrinter::AddTextPiece
  00257	83 c4 0c	 add	 esp, 12			; 0000000cH

; 225  : 
; 226  : 		MsgPrinter[2].SetTextStyle( TS_NORMAL );

  0025a	53		 push	 ebx
  0025b	8d 8d 24 fa ff
	ff		 lea	 ecx, DWORD PTR _MsgPrinter$506729[ebp+64]
  00261	e8 00 00 00 00	 call	 ?SetTextStyle@ioComplexStringPrinter@@QAEXW4TextStyle@@@Z ; ioComplexStringPrinter::SetTextStyle

; 227  : 		MsgPrinter[2].SetBkColor( 0, 0, 0 );

  00266	53		 push	 ebx
  00267	53		 push	 ebx
  00268	53		 push	 ebx
  00269	8d 8d 24 fa ff
	ff		 lea	 ecx, DWORD PTR _MsgPrinter$506729[ebp+64]
  0026f	e8 00 00 00 00	 call	 ?SetBkColor@ioComplexStringPrinter@@QAEXHHH@Z ; ioComplexStringPrinter::SetBkColor

; 228  : 		MsgPrinter[2].SetTextColor( TCT_DEFAULT_GRAY );

  00274	68 6e 6e 6e ff	 push	 -9539986		; ff6e6e6eH
  00279	8d 8d 24 fa ff
	ff		 lea	 ecx, DWORD PTR _MsgPrinter$506729[ebp+64]
  0027f	e8 00 00 00 00	 call	 ?SetTextColor@ioComplexStringPrinter@@QAEXK@Z ; ioComplexStringPrinter::SetTextColor

; 229  : 		MsgPrinter[2].AddTextPiece( FONT_SIZE_13, STR(3) );

  00284	53		 push	 ebx
  00285	6a 03		 push	 3
  00287	56		 push	 esi
  00288	57		 push	 edi
  00289	ff 15 00 00 00
	00		 call	 DWORD PTR __imp_?GetSingleton@ioStringManager@@SAAAV1@XZ
  0028f	8b c8		 mov	 ecx, eax
  00291	ff 15 00 00 00
	00		 call	 DWORD PTR __imp_?GetString@ioStringManager@@QAEPADPBD0HW4FileNamePrefix@1@@Z
  00297	f3 0f 10 05 00
	00 00 00	 movss	 xmm0, DWORD PTR __real@3f266666
  0029f	50		 push	 eax
  002a0	51		 push	 ecx
  002a1	8d 85 24 fa ff
	ff		 lea	 eax, DWORD PTR _MsgPrinter$506729[ebp+64]
  002a7	f3 0f 11 04 24	 movss	 DWORD PTR [esp], xmm0
  002ac	50		 push	 eax
  002ad	e8 00 00 00 00	 call	 ?AddTextPiece@ioComplexStringPrinter@@QAAXMPBDZZ ; ioComplexStringPrinter::AddTextPiece

; 230  : 
; 231  : 		ClearList();

  002b2	8b bd dc f9 ff
	ff		 mov	 edi, DWORD PTR _this$GSCopy$[ebp]
  002b8	83 c4 0c	 add	 esp, 12			; 0000000cH
  002bb	8b cf		 mov	 ecx, edi
  002bd	e8 00 00 00 00	 call	 ?ClearList@ioMessageBox4@@IAEXXZ ; ioMessageBox4::ClearList

; 232  : 		for( int i=0; i<MAX_MSG_LIST_SIZE; ++i )

  002c2	89 9d e0 f9 ff
	ff		 mov	 DWORD PTR _i$506738[ebp], ebx
  002c8	8d b5 f0 f9 ff
	ff		 lea	 esi, DWORD PTR _MsgPrinter$506729[ebp+12]
  002ce	81 c7 80 01 00
	00		 add	 edi, 384		; 00000180H
$LL17@UpdateMess:

; 233  : 		{
; 234  : 			if( MsgPrinter[i].IsEmpty() )

  002d4	8b 06		 mov	 eax, DWORD PTR [esi]
  002d6	3b 46 04	 cmp	 eax, DWORD PTR [esi+4]
  002d9	74 1e		 je	 SHORT $LN70@UpdateMess

; 235  : 				break;
; 236  : 
; 237  : 			MsgPrinter[i].CopyFullText( m_PrinterList[i] );

  002db	57		 push	 edi
  002dc	8d 4e f4	 lea	 ecx, DWORD PTR [esi-12]
  002df	e8 00 00 00 00	 call	 ?CopyFullText@ioComplexStringPrinter@@QBEXAAV1@@Z ; ioComplexStringPrinter::CopyFullText
  002e4	ff 85 e0 f9 ff
	ff		 inc	 DWORD PTR _i$506738[ebp]
  002ea	83 c6 20	 add	 esi, 32			; 00000020H
  002ed	83 c7 20	 add	 edi, 32			; 00000020H
  002f0	83 bd e0 f9 ff
	ff 0c		 cmp	 DWORD PTR _i$506738[ebp], 12 ; 0000000cH
  002f7	7c db		 jl	 SHORT $LL17@UpdateMess
$LN70@UpdateMess:

; 238  : 		}
; 239  : 		return;

  002f9	68 00 00 00 00	 push	 OFFSET ??1ioComplexStringPrinter@@QAE@XZ ; ioComplexStringPrinter::~ioComplexStringPrinter
  002fe	6a 0c		 push	 12			; 0000000cH
  00300	6a 20		 push	 32			; 00000020H
  00302	8d 85 e4 f9 ff
	ff		 lea	 eax, DWORD PTR _MsgPrinter$506729[ebp]
  00308	50		 push	 eax
  00309	88 5d fc	 mov	 BYTE PTR __$EHRec$[ebp+8], bl
  0030c	e8 00 00 00 00	 call	 ??_M@YGXPAXIHP6EX0@Z@Z
  00311	83 4d fc ff	 or	 DWORD PTR __$EHRec$[ebp+8], -1
  00315	8d 8d b0 f9 ff
	ff		 lea	 ecx, DWORD PTR _szName$506717[ebp]
  0031b	ff 15 00 00 00
	00		 call	 DWORD PTR __imp_??1ioHashString@@QAE@XZ
  00321	e9 b0 03 00 00	 jmp	 $LN1@UpdateMess
$LN23@UpdateMess:

; 240  : 	}
; 241  : 
; 242  : 	for( int i=ioEtcItem::EIT_ETC_EXPAND_MEDAL_SLOT01; i<ioEtcItem::EIT_ETC_EXPAND_MEDAL_SLOT20+1; ++i )

  00326	c7 85 e0 f9 ff
	ff aa 47 0f 00	 mov	 DWORD PTR _i$506743[ebp], 1001386 ; 000f47aaH
  00330	bf 00 00 00 00	 mov	 edi, OFFSET ??_C@_0BN@MHEOPCJP@ioMessageBox4?3?3UpdateMessage?$AA@
$LN13@UpdateMess:

; 243  : 	{
; 244  : 		ioUserEtcItem::ETCITEMSLOT kItemSlot;
; 245  : 		if( !pUserEtcItem->GetEtcItem( i, kItemSlot ) )

  00335	8b 8d cc f9 ff
	ff		 mov	 ecx, DWORD PTR _pUserEtcItem$[ebp]
  0033b	8d 85 c0 f9 ff
	ff		 lea	 eax, DWORD PTR _kItemSlot$506747[ebp]
  00341	50		 push	 eax
  00342	ff b5 e0 f9 ff
	ff		 push	 DWORD PTR _i$506743[ebp]
  00348	89 9d c0 f9 ff
	ff		 mov	 DWORD PTR _kItemSlot$506747[ebp], ebx
  0034e	89 9d c4 f9 ff
	ff		 mov	 DWORD PTR _kItemSlot$506747[ebp+4], ebx
  00354	89 9d c8 f9 ff
	ff		 mov	 DWORD PTR _kItemSlot$506747[ebp+8], ebx
  0035a	e8 00 00 00 00	 call	 ?GetEtcItem@ioUserEtcItem@@QAE_NHAAUETCITEMSLOT@1@@Z ; ioUserEtcItem::GetEtcItem
  0035f	84 c0		 test	 al, al
  00361	0f 84 f8 02 00
	00		 je	 $LN12@UpdateMess

; 246  : 			continue;
; 247  : 
; 248  : 		ioEtcItemExpandMedalSlot *pItem = dynamic_cast<ioEtcItemExpandMedalSlot*> ( g_EtcItemMgr.FindEtcItem(i) );

  00367	8b 0d 00 00 00
	00		 mov	 ecx, DWORD PTR ?ms_Singleton@?$Singleton@VioEtcItemManager@@@@1PAVioEtcItemManager@@A ; Singleton<ioEtcItemManager>::ms_Singleton
  0036d	53		 push	 ebx
  0036e	68 00 00 00 00	 push	 OFFSET ??_R0?AVioEtcItemExpandMedalSlot@@@8
  00373	68 00 00 00 00	 push	 OFFSET ??_R0?AVioEtcItem@@@8
  00378	53		 push	 ebx
  00379	ff b5 e0 f9 ff
	ff		 push	 DWORD PTR _i$506743[ebp]
  0037f	e8 00 00 00 00	 call	 ?FindEtcItem@ioEtcItemManager@@QAEPAVioEtcItem@@K@Z ; ioEtcItemManager::FindEtcItem
  00384	50		 push	 eax
  00385	e8 00 00 00 00	 call	 ___RTDynamicCast
  0038a	83 c4 14	 add	 esp, 20			; 00000014H
  0038d	89 85 d8 f9 ff
	ff		 mov	 DWORD PTR _pItem$506749[ebp], eax

; 249  : 		
; 250  : 		if( pItem )

  00393	3b c3		 cmp	 eax, ebx
  00395	0f 84 c4 02 00
	00		 je	 $LN12@UpdateMess

; 251  : 		{
; 252  : 			if( pItem->GetType() == m_dwSelectItemType )

  0039b	8b 10		 mov	 edx, DWORD PTR [eax]
  0039d	8b c8		 mov	 ecx, eax
  0039f	ff 52 40	 call	 DWORD PTR [edx+64]
  003a2	8b 8d dc f9 ff
	ff		 mov	 ecx, DWORD PTR _this$GSCopy$[ebp]
  003a8	3b 81 0c 03 00
	00		 cmp	 eax, DWORD PTR [ecx+780]
  003ae	0f 85 ab 02 00
	00		 jne	 $LN12@UpdateMess

; 253  : 			{
; 254  : 				SAFEDELETE( m_pIcon );

  003b4	8b 89 60 01 00
	00		 mov	 ecx, DWORD PTR [ecx+352]
  003ba	3b cb		 cmp	 ecx, ebx
  003bc	74 13		 je	 SHORT $LN7@UpdateMess
  003be	8b 01		 mov	 eax, DWORD PTR [ecx]
  003c0	6a 01		 push	 1
  003c2	ff 50 40	 call	 DWORD PTR [eax+64]
  003c5	8b 85 dc f9 ff
	ff		 mov	 eax, DWORD PTR _this$GSCopy$[ebp]
  003cb	89 98 60 01 00
	00		 mov	 DWORD PTR [eax+352], ebx
$LN7@UpdateMess:

; 255  : 				m_pIcon = g_UIImageSetMgr.CreateImageByFullName( pItem->GetIconName() );

  003d1	8b 85 d8 f9 ff
	ff		 mov	 eax, DWORD PTR _pItem$506749[ebp]
  003d7	05 60 01 00 00	 add	 eax, 352		; 00000160H
  003dc	53		 push	 ebx
  003dd	50		 push	 eax
  003de	ff 15 00 00 00
	00		 call	 DWORD PTR __imp_?GetSingleton@ioUIImageSetManager@@SAAAV1@XZ
  003e4	8b c8		 mov	 ecx, eax
  003e6	ff 15 00 00 00
	00		 call	 DWORD PTR __imp_?CreateImageByFullName@ioUIImageSetManager@@QAEPAVioUIRenderImage@@ABVioHashString@@_N@Z
  003ec	8b 8d dc f9 ff
	ff		 mov	 ecx, DWORD PTR _this$GSCopy$[ebp]

; 256  : 
; 257  : 				char szWindowTitle[MAX_PATH] = "";

  003f2	68 03 01 00 00	 push	 259			; 00000103H
  003f7	89 81 60 01 00
	00		 mov	 DWORD PTR [ecx+352], eax
  003fd	8d 85 e9 fd ff
	ff		 lea	 eax, DWORD PTR _szWindowTitle$506756[ebp+1]
  00403	53		 push	 ebx
  00404	50		 push	 eax
  00405	88 9d e8 fd ff
	ff		 mov	 BYTE PTR _szWindowTitle$506756[ebp], bl
  0040b	e8 00 00 00 00	 call	 _memset

; 258  : 				SafeSprintf( szWindowTitle, sizeof(szWindowTitle), STR(4), pItem->GetName().c_str() );

  00410	8b 8d d8 f9 ff
	ff		 mov	 ecx, DWORD PTR _pItem$506749[ebp]
  00416	83 c1 04	 add	 ecx, 4
  00419	83 c4 0c	 add	 esp, 12			; 0000000cH
  0041c	89 8d d8 f9 ff
	ff		 mov	 DWORD PTR tv679[ebp], ecx
  00422	ff 15 00 00 00
	00		 call	 DWORD PTR __imp_?c_str@ioHashString@@QBEPBDXZ
  00428	50		 push	 eax
  00429	53		 push	 ebx
  0042a	6a 04		 push	 4
  0042c	56		 push	 esi
  0042d	57		 push	 edi
  0042e	ff 15 00 00 00
	00		 call	 DWORD PTR __imp_?GetSingleton@ioStringManager@@SAAAV1@XZ
  00434	8b c8		 mov	 ecx, eax
  00436	ff 15 00 00 00
	00		 call	 DWORD PTR __imp_?GetString@ioStringManager@@QAEPADPBD0HW4FileNamePrefix@1@@Z
  0043c	50		 push	 eax
  0043d	8d 85 e8 fd ff
	ff		 lea	 eax, DWORD PTR _szWindowTitle$506756[ebp]
  00443	68 04 01 00 00	 push	 260			; 00000104H
  00448	50		 push	 eax
  00449	ff 15 00 00 00
	00		 call	 DWORD PTR __imp_?SafeSprintf@@YAXPADHPBD1@Z

; 259  : 				SetTitleText( szWindowTitle );

  0044f	8b 8d dc f9 ff
	ff		 mov	 ecx, DWORD PTR _this$GSCopy$[ebp]
  00455	83 c4 10	 add	 esp, 16			; 00000010H
  00458	53		 push	 ebx
  00459	56		 push	 esi
  0045a	8d 85 e8 fd ff
	ff		 lea	 eax, DWORD PTR _szWindowTitle$506756[ebp]
  00460	50		 push	 eax
  00461	ff 15 00 00 00
	00		 call	 DWORD PTR __imp_?SetTitleText@ioWnd@@QAEXPBD0H@Z

; 260  : 
; 261  : 				ioComplexStringPrinter MsgPrinter[MAX_MSG_LIST_SIZE];

  00467	68 00 00 00 00	 push	 OFFSET ??1ioComplexStringPrinter@@QAE@XZ ; ioComplexStringPrinter::~ioComplexStringPrinter
  0046c	68 00 00 00 00	 push	 OFFSET ??0ioComplexStringPrinter@@QAE@XZ ; ioComplexStringPrinter::ioComplexStringPrinter
  00471	6a 0c		 push	 12			; 0000000cH
  00473	6a 20		 push	 32			; 00000020H
  00475	8d 85 64 fb ff
	ff		 lea	 eax, DWORD PTR _MsgPrinter$506757[ebp]
  0047b	50		 push	 eax
  0047c	e8 00 00 00 00	 call	 ??_L@YGXPAXIHP6EX0@Z1@Z

; 262  : 				MsgPrinter[0].SetTextStyle( TS_NORMAL );

  00481	53		 push	 ebx
  00482	8d 8d 64 fb ff
	ff		 lea	 ecx, DWORD PTR _MsgPrinter$506757[ebp]
  00488	c7 45 fc 02 00
	00 00		 mov	 DWORD PTR __$EHRec$[ebp+8], 2
  0048f	e8 00 00 00 00	 call	 ?SetTextStyle@ioComplexStringPrinter@@QAEXW4TextStyle@@@Z ; ioComplexStringPrinter::SetTextStyle

; 263  : 				MsgPrinter[0].SetBkColor( 0, 0, 0 );

  00494	53		 push	 ebx
  00495	53		 push	 ebx
  00496	53		 push	 ebx
  00497	8d 8d 64 fb ff
	ff		 lea	 ecx, DWORD PTR _MsgPrinter$506757[ebp]
  0049d	e8 00 00 00 00	 call	 ?SetBkColor@ioComplexStringPrinter@@QAEXHHH@Z ; ioComplexStringPrinter::SetBkColor

; 264  : 				MsgPrinter[0].SetTextColor( TCT_DEFAULT_DARKGRAY );

  004a2	68 3a 3a 3a ff	 push	 -12961222		; ff3a3a3aH
  004a7	8d 8d 64 fb ff
	ff		 lea	 ecx, DWORD PTR _MsgPrinter$506757[ebp]
  004ad	e8 00 00 00 00	 call	 ?SetTextColor@ioComplexStringPrinter@@QAEXK@Z ; ioComplexStringPrinter::SetTextColor

; 265  : 
; 266  : 				char szTitle[MAX_PATH] = "";

  004b2	68 03 01 00 00	 push	 259			; 00000103H
  004b7	8d 85 ed fe ff
	ff		 lea	 eax, DWORD PTR _szTitle$506762[ebp+1]
  004bd	53		 push	 ebx
  004be	50		 push	 eax
  004bf	88 9d ec fe ff
	ff		 mov	 BYTE PTR _szTitle$506762[ebp], bl
  004c5	e8 00 00 00 00	 call	 _memset

; 267  : 				SafeSprintf( szTitle, sizeof(szTitle), STR(5), pItem->GetName().c_str() );

  004ca	8b 8d d8 f9 ff
	ff		 mov	 ecx, DWORD PTR tv679[ebp]
  004d0	83 c4 0c	 add	 esp, 12			; 0000000cH
  004d3	ff 15 00 00 00
	00		 call	 DWORD PTR __imp_?c_str@ioHashString@@QBEPBDXZ
  004d9	50		 push	 eax
  004da	53		 push	 ebx
  004db	6a 05		 push	 5
  004dd	56		 push	 esi
  004de	57		 push	 edi
