; Listing generated by Microsoft (R) Optimizing Compiler Version 16.00.30319.01 

	TITLE	D:\Lost Saga For Developer\Youtube\Tutorial\Source\src\LSClient\ioMission.cpp
	.686P
	.XMM
	include listing.inc
	.model	flat

INCLUDELIB MSVCRT
INCLUDELIB OLDNAMES

PUBLIC	??0ColorText@ioMission@@QAE@XZ			; ioMission::ColorText::ColorText
EXTRN	__imp_??0ioHashString@@QAE@XZ:PROC
; Function compile flags: /Ogsp
; File d:\lost saga for developer\youtube\tutorial\source\src\lsclient\iomission.h
;	COMDAT ??0ColorText@ioMission@@QAE@XZ
_TEXT	SEGMENT
??0ColorText@ioMission@@QAE@XZ PROC			; ioMission::ColorText::ColorText, COMDAT
; _this$ = ecx

; 58   : 		ColorText()

  00000	56		 push	 esi
  00001	8b f1		 mov	 esi, ecx
  00003	8d 4e 04	 lea	 ecx, DWORD PTR [esi+4]
  00006	ff 15 00 00 00
	00		 call	 DWORD PTR __imp_??0ioHashString@@QAE@XZ

; 59   : 		{
; 60   : 			m_dwColor = 0;

  0000c	83 26 00	 and	 DWORD PTR [esi], 0

; 61   : 		}

  0000f	8b c6		 mov	 eax, esi
  00011	5e		 pop	 esi
  00012	c3		 ret	 0
??0ColorText@ioMission@@QAE@XZ ENDP			; ioMission::ColorText::ColorText
_TEXT	ENDS
PUBLIC	?Clear@ColorText@ioMission@@QAEXXZ		; ioMission::ColorText::Clear
EXTRN	__imp_?Clear@ioHashString@@QAEXXZ:PROC
; Function compile flags: /Ogsp
;	COMDAT ?Clear@ColorText@ioMission@@QAEXXZ
_TEXT	SEGMENT
?Clear@ColorText@ioMission@@QAEXXZ PROC			; ioMission::ColorText::Clear, COMDAT
; _this$ = ecx

; 65   : 			m_dwColor = 0;

  00000	83 21 00	 and	 DWORD PTR [ecx], 0

; 66   : 			m_szText.Clear();

  00003	83 c1 04	 add	 ecx, 4
  00006	ff 25 00 00 00
	00		 jmp	 DWORD PTR __imp_?Clear@ioHashString@@QAEXXZ
?Clear@ColorText@ioMission@@QAEXXZ ENDP			; ioMission::ColorText::Clear
_TEXT	ENDS
PUBLIC	??_7bad_alloc@std@@6B@				; std::bad_alloc::`vftable'
PUBLIC	??0bad_alloc@std@@QAE@PBD@Z			; std::bad_alloc::bad_alloc
PUBLIC	??_R4bad_alloc@std@@6B@				; std::bad_alloc::`RTTI Complete Object Locator'
PUBLIC	??_R0?AVbad_alloc@std@@@8			; std::bad_alloc `RTTI Type Descriptor'
PUBLIC	??_R3bad_alloc@std@@8				; std::bad_alloc::`RTTI Class Hierarchy Descriptor'
PUBLIC	??_R2bad_alloc@std@@8				; std::bad_alloc::`RTTI Base Class Array'
PUBLIC	??_R1A@?0A@EA@bad_alloc@std@@8			; std::bad_alloc::`RTTI Base Class Descriptor at (0,-1,0,64)'
PUBLIC	??_R1A@?0A@EA@exception@std@@8			; std::exception::`RTTI Base Class Descriptor at (0,-1,0,64)'
PUBLIC	??_R0?AVexception@std@@@8			; std::exception `RTTI Type Descriptor'
PUBLIC	??_R3exception@std@@8				; std::exception::`RTTI Class Hierarchy Descriptor'
PUBLIC	??_R2exception@std@@8				; std::exception::`RTTI Base Class Array'
EXTRN	__imp_??0exception@std@@QAE@ABQBD@Z:PROC
EXTRN	??_7type_info@@6B@:QWORD			; type_info::`vftable'
EXTRN	??_Ebad_alloc@std@@UAEPAXI@Z:PROC		; std::bad_alloc::`vector deleting destructor'
EXTRN	?what@exception@std@@UBEPBDXZ:PROC		; std::exception::what
;	COMDAT ??_R2exception@std@@8
; File c:\program files (x86)\microsoft visual studio 10.0\vc\include\exception
rdata$r	SEGMENT
??_R2exception@std@@8 DD FLAT:??_R1A@?0A@EA@exception@std@@8 ; std::exception::`RTTI Base Class Array'
rdata$r	ENDS
;	COMDAT ??_R3exception@std@@8
rdata$r	SEGMENT
??_R3exception@std@@8 DD 00H				; std::exception::`RTTI Class Hierarchy Descriptor'
	DD	00H
	DD	01H
	DD	FLAT:??_R2exception@std@@8
rdata$r	ENDS
;	COMDAT ??_R0?AVexception@std@@@8
_DATA	SEGMENT
??_R0?AVexception@std@@@8 DD FLAT:??_7type_info@@6B@	; std::exception `RTTI Type Descriptor'
	DD	00H
	DB	'.?AVexception@std@@', 00H
_DATA	ENDS
;	COMDAT ??_R1A@?0A@EA@exception@std@@8
rdata$r	SEGMENT
??_R1A@?0A@EA@exception@std@@8 DD FLAT:??_R0?AVexception@std@@@8 ; std::exception::`RTTI Base Class Descriptor at (0,-1,0,64)'
	DD	00H
	DD	00H
	DD	0ffffffffH
	DD	00H
	DD	040H
	DD	FLAT:??_R3exception@std@@8
rdata$r	ENDS
;	COMDAT ??_R1A@?0A@EA@bad_alloc@std@@8
rdata$r	SEGMENT
??_R1A@?0A@EA@bad_alloc@std@@8 DD FLAT:??_R0?AVbad_alloc@std@@@8 ; std::bad_alloc::`RTTI Base Class Descriptor at (0,-1,0,64)'
	DD	01H
	DD	00H
	DD	0ffffffffH
	DD	00H
	DD	040H
	DD	FLAT:??_R3bad_alloc@std@@8
rdata$r	ENDS
;	COMDAT ??_R2bad_alloc@std@@8
rdata$r	SEGMENT
??_R2bad_alloc@std@@8 DD FLAT:??_R1A@?0A@EA@bad_alloc@std@@8 ; std::bad_alloc::`RTTI Base Class Array'
	DD	FLAT:??_R1A@?0A@EA@exception@std@@8
rdata$r	ENDS
;	COMDAT ??_R3bad_alloc@std@@8
rdata$r	SEGMENT
??_R3bad_alloc@std@@8 DD 00H				; std::bad_alloc::`RTTI Class Hierarchy Descriptor'
	DD	00H
	DD	02H
	DD	FLAT:??_R2bad_alloc@std@@8
rdata$r	ENDS
;	COMDAT ??_R0?AVbad_alloc@std@@@8
_DATA	SEGMENT
??_R0?AVbad_alloc@std@@@8 DD FLAT:??_7type_info@@6B@	; std::bad_alloc `RTTI Type Descriptor'
	DD	00H
	DB	'.?AVbad_alloc@std@@', 00H
_DATA	ENDS
;	COMDAT ??_R4bad_alloc@std@@6B@
rdata$r	SEGMENT
??_R4bad_alloc@std@@6B@ DD 00H				; std::bad_alloc::`RTTI Complete Object Locator'
	DD	00H
	DD	00H
	DD	FLAT:??_R0?AVbad_alloc@std@@@8
	DD	FLAT:??_R3bad_alloc@std@@8
rdata$r	ENDS
;	COMDAT ??_7bad_alloc@std@@6B@
CONST	SEGMENT
??_7bad_alloc@std@@6B@ DD FLAT:??_R4bad_alloc@std@@6B@	; std::bad_alloc::`vftable'
	DD	FLAT:??_Ebad_alloc@std@@UAEPAXI@Z
	DD	FLAT:?what@exception@std@@UBEPBDXZ
; Function compile flags: /Ogsp
CONST	ENDS
;	COMDAT ??0bad_alloc@std@@QAE@PBD@Z
_TEXT	SEGMENT
__Message$ = 8						; size = 4
??0bad_alloc@std@@QAE@PBD@Z PROC			; std::bad_alloc::bad_alloc, COMDAT
; _this$ = ecx

; 345  : 		{	// construct from message string

  00000	55		 push	 ebp
  00001	8b ec		 mov	 ebp, esp
  00003	56		 push	 esi
  00004	8d 45 08	 lea	 eax, DWORD PTR __Message$[ebp]
  00007	50		 push	 eax
  00008	8b f1		 mov	 esi, ecx
  0000a	ff 15 00 00 00
	00		 call	 DWORD PTR __imp_??0exception@std@@QAE@ABQBD@Z
  00010	c7 06 00 00 00
	00		 mov	 DWORD PTR [esi], OFFSET ??_7bad_alloc@std@@6B@

; 346  : 		}

  00016	8b c6		 mov	 eax, esi
  00018	5e		 pop	 esi
  00019	5d		 pop	 ebp
  0001a	c2 04 00	 ret	 4
??0bad_alloc@std@@QAE@PBD@Z ENDP			; std::bad_alloc::bad_alloc
_TEXT	ENDS
PUBLIC	??1bad_alloc@std@@UAE@XZ			; std::bad_alloc::~bad_alloc
EXTRN	__imp_??1exception@std@@UAE@XZ:PROC
; Function compile flags: /Ogsp
;	COMDAT ??1bad_alloc@std@@UAE@XZ
_TEXT	SEGMENT
??1bad_alloc@std@@UAE@XZ PROC				; std::bad_alloc::~bad_alloc, COMDAT
; _this$ = ecx

; 354  : 		{	// destroy the object

  00000	c7 01 00 00 00
	00		 mov	 DWORD PTR [ecx], OFFSET ??_7bad_alloc@std@@6B@

; 355  : 		}

  00006	ff 25 00 00 00
	00		 jmp	 DWORD PTR __imp_??1exception@std@@UAE@XZ
??1bad_alloc@std@@UAE@XZ ENDP				; std::bad_alloc::~bad_alloc
_TEXT	ENDS
EXTRN	??3@YAXPAX@Z:PROC				; operator delete
; Function compile flags: /Ogsp
;	COMDAT ??_Gbad_alloc@std@@UAEPAXI@Z
_TEXT	SEGMENT
___flags$ = 8						; size = 4
??_Gbad_alloc@std@@UAEPAXI@Z PROC			; std::bad_alloc::`scalar deleting destructor', COMDAT
; _this$ = ecx
  00000	55		 push	 ebp
  00001	8b ec		 mov	 ebp, esp
  00003	56		 push	 esi
  00004	8b f1		 mov	 esi, ecx
  00006	c7 06 00 00 00
	00		 mov	 DWORD PTR [esi], OFFSET ??_7bad_alloc@std@@6B@
  0000c	ff 15 00 00 00
	00		 call	 DWORD PTR __imp_??1exception@std@@UAE@XZ
  00012	f6 45 08 01	 test	 BYTE PTR ___flags$[ebp], 1
  00016	74 07		 je	 SHORT $LN1@scalar
  00018	56		 push	 esi
  00019	e8 00 00 00 00	 call	 ??3@YAXPAX@Z		; operator delete
  0001e	59		 pop	 ecx
$LN1@scalar:
  0001f	8b c6		 mov	 eax, esi
  00021	5e		 pop	 esi
  00022	5d		 pop	 ebp
  00023	c2 04 00	 ret	 4
??_Gbad_alloc@std@@UAEPAXI@Z ENDP			; std::bad_alloc::`scalar deleting destructor'
_TEXT	ENDS
PUBLIC	??2@YAPAXIPAX@Z					; operator new
; Function compile flags: /Ogsp
; File c:\program files (x86)\microsoft visual studio 10.0\vc\include\new
;	COMDAT ??2@YAPAXIPAX@Z
_TEXT	SEGMENT
___formal$ = 8						; size = 4
__Where$ = 12						; size = 4
??2@YAPAXIPAX@Z PROC					; operator new, COMDAT

; 56   : 	{	// construct array with placement at _Where

  00000	55		 push	 ebp
  00001	8b ec		 mov	 ebp, esp

; 57   : 	return (_Where);

  00003	8b 45 0c	 mov	 eax, DWORD PTR __Where$[ebp]

; 58   : 	}

  00006	5d		 pop	 ebp
  00007	c3		 ret	 0
??2@YAPAXIPAX@Z ENDP					; operator new
_TEXT	ENDS
PUBLIC	??3@YAXPAX0@Z					; operator delete
; Function compile flags: /Ogsp
;	COMDAT ??3@YAXPAX0@Z
_TEXT	SEGMENT
___formal$ = 8						; size = 4
___formal$ = 12						; size = 4
??3@YAXPAX0@Z PROC					; operator delete, COMDAT

; 62   : 	}

  00000	c3		 ret	 0
??3@YAXPAX0@Z ENDP					; operator delete
_TEXT	ENDS
PUBLIC	?length@?$char_traits@D@std@@SAIPBD@Z		; std::char_traits<char>::length
; Function compile flags: /Ogsp
; File c:\program files (x86)\microsoft visual studio 10.0\vc\include\iosfwd
;	COMDAT ?length@?$char_traits@D@std@@SAIPBD@Z
_TEXT	SEGMENT
__First$ = 8						; size = 4
?length@?$char_traits@D@std@@SAIPBD@Z PROC		; std::char_traits<char>::length, COMDAT

; 490  : 		{	// find length of null-terminated string

  00000	55		 push	 ebp
  00001	8b ec		 mov	 ebp, esp

; 491  : 		return (_CSTD strlen(_First));

  00003	8b 45 08	 mov	 eax, DWORD PTR __First$[ebp]
  00006	8d 50 01	 lea	 edx, DWORD PTR [eax+1]
$LL3@length:
  00009	8a 08		 mov	 cl, BYTE PTR [eax]
  0000b	40		 inc	 eax
  0000c	84 c9		 test	 cl, cl
  0000e	75 f9		 jne	 SHORT $LL3@length
  00010	2b c2		 sub	 eax, edx

; 492  : 		}

  00012	5d		 pop	 ebp
  00013	c3		 ret	 0
?length@?$char_traits@D@std@@SAIPBD@Z ENDP		; std::char_traits<char>::length
_TEXT	ENDS
PUBLIC	?copy@?$char_traits@D@std@@SAPADPADPBDI@Z	; std::char_traits<char>::copy
EXTRN	_memcpy:PROC
; Function compile flags: /Ogsp
;	COMDAT ?copy@?$char_traits@D@std@@SAPADPADPBDI@Z
_TEXT	SEGMENT
__First1$ = 8						; size = 4
__First2$ = 12						; size = 4
__Count$ = 16						; size = 4
?copy@?$char_traits@D@std@@SAPADPADPBDI@Z PROC		; std::char_traits<char>::copy, COMDAT

; 496  : 		{	// copy [_First1, _First1 + _Count) to [_First2, ...)

  00000	55		 push	 ebp
  00001	8b ec		 mov	 ebp, esp

; 498  : 		}

  00003	5d		 pop	 ebp

; 497  : 		return ((_Elem *)_CSTD memcpy(_First1, _First2, _Count));

  00004	e9 00 00 00 00	 jmp	 _memcpy
?copy@?$char_traits@D@std@@SAPADPADPBDI@Z ENDP		; std::char_traits<char>::copy
_TEXT	ENDS
PUBLIC	?move@?$char_traits@D@std@@SAPADPADPBDI@Z	; std::char_traits<char>::move
EXTRN	__imp__memmove:PROC
; Function compile flags: /Ogsp
;	COMDAT ?move@?$char_traits@D@std@@SAPADPADPBDI@Z
_TEXT	SEGMENT
__First1$ = 8						; size = 4
__First2$ = 12						; size = 4
__Count$ = 16						; size = 4
?move@?$char_traits@D@std@@SAPADPADPBDI@Z PROC		; std::char_traits<char>::move, COMDAT

; 516  : 		{	// copy [_First1, _First1 + _Count) to [_First2, ...)

  00000	55		 push	 ebp
  00001	8b ec		 mov	 ebp, esp

; 518  : 		}

  00003	5d		 pop	 ebp

; 517  : 		return ((_Elem *)_CSTD memmove(_First1, _First2, _Count));

  00004	ff 25 00 00 00
	00		 jmp	 DWORD PTR __imp__memmove
?move@?$char_traits@D@std@@SAPADPADPBDI@Z ENDP		; std::char_traits<char>::move
_TEXT	ENDS
PUBLIC	?assign@?$char_traits@D@std@@SAXAADABD@Z	; std::char_traits<char>::assign
; Function compile flags: /Ogsp
;	COMDAT ?assign@?$char_traits@D@std@@SAXAADABD@Z
_TEXT	SEGMENT
__Left$ = 8						; size = 4
__Right$ = 12						; size = 4
?assign@?$char_traits@D@std@@SAXAADABD@Z PROC		; std::char_traits<char>::assign, COMDAT

; 526  : 		{	// assign an element

  00000	55		 push	 ebp
  00001	8b ec		 mov	 ebp, esp

; 527  : 		_Left = _Right;

  00003	8b 45 0c	 mov	 eax, DWORD PTR __Right$[ebp]
  00006	8a 00		 mov	 al, BYTE PTR [eax]
  00008	8b 4d 08	 mov	 ecx, DWORD PTR __Left$[ebp]
  0000b	88 01		 mov	 BYTE PTR [ecx], al

; 528  : 		}

  0000d	5d		 pop	 ebp
  0000e	c3		 ret	 0
?assign@?$char_traits@D@std@@SAXAADABD@Z ENDP		; std::char_traits<char>::assign
_TEXT	ENDS
PUBLIC	?_Adopt@_Iterator_base0@std@@QAEXPBX@Z		; std::_Iterator_base0::_Adopt
; Function compile flags: /Ogsp
; File c:\program files (x86)\microsoft visual studio 10.0\vc\include\xutility
;	COMDAT ?_Adopt@_Iterator_base0@std@@QAEXPBX@Z
_TEXT	SEGMENT
___formal$ = 8						; size = 4
?_Adopt@_Iterator_base0@std@@QAEXPBX@Z PROC		; std::_Iterator_base0::_Adopt, COMDAT
; _this$ = ecx

; 49   : 		}

  00000	c2 04 00	 ret	 4
?_Adopt@_Iterator_base0@std@@QAEXPBX@Z ENDP		; std::_Iterator_base0::_Adopt
_TEXT	ENDS
PUBLIC	??1ColorText@ioMission@@QAE@XZ			; ioMission::ColorText::~ColorText
EXTRN	__imp_??1ioHashString@@QAE@XZ:PROC
; Function compile flags: /Ogsp
;	COMDAT ??1ColorText@ioMission@@QAE@XZ
_TEXT	SEGMENT
??1ColorText@ioMission@@QAE@XZ PROC			; ioMission::ColorText::~ColorText, COMDAT
; _this$ = ecx
  00000	83 c1 04	 add	 ecx, 4
  00003	ff 25 00 00 00
	00		 jmp	 DWORD PTR __imp_??1ioHashString@@QAE@XZ
??1ColorText@ioMission@@QAE@XZ ENDP			; ioMission::ColorText::~ColorText
_TEXT	ENDS
PUBLIC	?Process@ioMission@@UAE_NXZ			; ioMission::Process
; Function compile flags: /Ogsp
; File d:\lost saga for developer\youtube\tutorial\source\src\lsclient\iomission.cpp
;	COMDAT ?Process@ioMission@@UAE_NXZ
_TEXT	SEGMENT
?Process@ioMission@@UAE_NXZ PROC			; ioMission::Process, COMDAT
; _this$ = ecx

; 191  : 	return false;

  00000	32 c0		 xor	 al, al

; 192  : }

  00002	c3		 ret	 0
?Process@ioMission@@UAE_NXZ ENDP			; ioMission::Process
_TEXT	ENDS
PUBLIC	?SetCurAchieveValue@ioMission@@IAEXH@Z		; ioMission::SetCurAchieveValue
; Function compile flags: /Ogsp
;	COMDAT ?SetCurAchieveValue@ioMission@@IAEXH@Z
_TEXT	SEGMENT
_iCurAchieveValue$ = 8					; size = 4
?SetCurAchieveValue@ioMission@@IAEXH@Z PROC		; ioMission::SetCurAchieveValue, COMDAT
; _this$ = ecx

; 195  : {

  00000	55		 push	 ebp
  00001	8b ec		 mov	 ebp, esp
  00003	56		 push	 esi
  00004	8b f1		 mov	 esi, ecx

; 196  : 	if ( iCurAchieveValue > GetMaxAchieveValue() )

  00006	8b 06		 mov	 eax, DWORD PTR [esi]
  00008	ff 10		 call	 DWORD PTR [eax]
  0000a	8b 4d 08	 mov	 ecx, DWORD PTR _iCurAchieveValue$[ebp]
  0000d	3b 08		 cmp	 ecx, DWORD PTR [eax]
  0000f	7e 08		 jle	 SHORT $LN1@SetCurAchi

; 197  : 		iCurAchieveValue = GetMaxAchieveValue();

  00011	8b 06		 mov	 eax, DWORD PTR [esi]
  00013	8b ce		 mov	 ecx, esi
  00015	ff 10		 call	 DWORD PTR [eax]
  00017	8b 08		 mov	 ecx, DWORD PTR [eax]
$LN1@SetCurAchi:

; 198  : 	m_iCurAchieveValue = iCurAchieveValue;

  00019	89 4e 34	 mov	 DWORD PTR [esi+52], ecx
  0001c	5e		 pop	 esi

; 199  : }

  0001d	5d		 pop	 ebp
  0001e	c2 04 00	 ret	 4
?SetCurAchieveValue@ioMission@@IAEXH@Z ENDP		; ioMission::SetCurAchieveValue
_TEXT	ENDS
PUBLIC	??_C@_0EA@IPJPPHFC@ioMissionManager?3?3SetClearMissio@ ; `string'
PUBLIC	?SetClearMissionType@ioMission@@IAEXE@Z		; ioMission::SetClearMissionType
EXTRN	__imp_?PrintTimeAndLog@CLog@@QAAXHPADZZ:PROC
EXTRN	__imp_?LOG@@3VCLog@@A:BYTE
;	COMDAT ??_C@_0EA@IPJPPHFC@ioMissionManager?3?3SetClearMissio@
CONST	SEGMENT
??_C@_0EA@IPJPPHFC@ioMissionManager?3?3SetClearMissio@ DB 'ioMissionManag'
	DB	'er::SetClearMissionType : Wrong Mission Type : %d', 00H ; `string'
; Function compile flags: /Ogsp
CONST	ENDS
;	COMDAT ?SetClearMissionType@ioMission@@IAEXE@Z
_TEXT	SEGMENT
_byCurAchieveValue$ = 8					; size = 1
?SetClearMissionType@ioMission@@IAEXE@Z PROC		; ioMission::SetClearMissionType, COMDAT
; _this$ = ecx

; 202  : {

  00000	55		 push	 ebp
  00001	8b ec		 mov	 ebp, esp

; 203  : 	if ( COMPARE( byCurAchieveValue, MIS_PROGRESS, (MIS_COMPLETE + 1) ) )

  00003	8a 45 08	 mov	 al, BYTE PTR _byCurAchieveValue$[ebp]
  00006	8d 50 ff	 lea	 edx, DWORD PTR [eax-1]
  00009	80 fa 02	 cmp	 dl, 2
  0000c	77 05		 ja	 SHORT $LN2@SetClearMi

; 204  : 		m_byClearMissionType = byCurAchieveValue;

  0000e	88 41 30	 mov	 BYTE PTR [ecx+48], al

; 205  : 	else

  00011	eb 1a		 jmp	 SHORT $LN1@SetClearMi
$LN2@SetClearMi:

; 206  : 		LOG.PrintTimeAndLog( 0, "ioMissionManager::SetClearMissionType : Wrong Mission Type : %d", byCurAchieveValue );

  00013	0f b6 c0	 movzx	 eax, al
  00016	50		 push	 eax
  00017	68 00 00 00 00	 push	 OFFSET ??_C@_0EA@IPJPPHFC@ioMissionManager?3?3SetClearMissio@
  0001c	6a 00		 push	 0
  0001e	ff 35 00 00 00
	00		 push	 DWORD PTR __imp_?LOG@@3VCLog@@A
  00024	ff 15 00 00 00
	00		 call	 DWORD PTR __imp_?PrintTimeAndLog@CLog@@QAAXHPADZZ
  0002a	83 c4 10	 add	 esp, 16			; 00000010H
$LN1@SetClearMi:

; 207  : }

  0002d	5d		 pop	 ebp
  0002e	c2 04 00	 ret	 4
?SetClearMissionType@ioMission@@IAEXE@Z ENDP		; ioMission::SetClearMissionType
_TEXT	ENDS
PUBLIC	?SetSortType@ioMission@@IAEXXZ			; ioMission::SetSortType
; Function compile flags: /Ogsp
;	COMDAT ?SetSortType@ioMission@@IAEXXZ
_TEXT	SEGMENT
?SetSortType@ioMission@@IAEXXZ PROC			; ioMission::SetSortType, COMDAT
; _this$ = ecx

; 218  : 	if ( m_iMissionType == MISSION_CLASS_DAILY_ALL_CLEAR || m_iMissionType == MISSION_CLASS_WEEKLY_ALL_CLEAR ||
; 219  : 		 m_iMissionType == MISSION_CLASS_MONTHLY_ALL_CLEAR )

  00000	8b 41 0c	 mov	 eax, DWORD PTR [ecx+12]
  00003	83 f8 0c	 cmp	 eax, 12			; 0000000cH
  00006	74 30		 je	 SHORT $LN7@SetSortTyp
  00008	83 f8 0e	 cmp	 eax, 14			; 0000000eH
  0000b	74 2b		 je	 SHORT $LN7@SetSortTyp
  0000d	83 f8 0f	 cmp	 eax, 15			; 0000000fH
  00010	74 26		 je	 SHORT $LN7@SetSortTyp

; 221  : 	else if ( m_byClearMissionType == MIS_PROGRESS )

  00012	8a 41 30	 mov	 al, BYTE PTR [ecx+48]
  00015	3c 01		 cmp	 al, 1
  00017	75 08		 jne	 SHORT $LN5@SetSortTyp

; 222  : 		m_MissionSortType = MSORT_PROGRESS;

  00019	c7 41 64 03 00
	00 00		 mov	 DWORD PTR [ecx+100], 3

; 227  : }

  00020	c3		 ret	 0
$LN5@SetSortTyp:

; 223  : 	else if ( m_byClearMissionType == MIS_ATTAIN )

  00021	6a 02		 push	 2
  00023	5a		 pop	 edx
  00024	3a c2		 cmp	 al, dl
  00026	75 04		 jne	 SHORT $LN3@SetSortTyp

; 224  : 		m_MissionSortType = MSORT_ATTAIN;

  00028	89 51 64	 mov	 DWORD PTR [ecx+100], edx

; 227  : }

  0002b	c3		 ret	 0
$LN3@SetSortTyp:

; 225  : 	else if ( m_byClearMissionType == MIS_COMPLETE )

  0002c	3c 03		 cmp	 al, 3
  0002e	75 0f		 jne	 SHORT $LN1@SetSortTyp

; 226  : 		m_MissionSortType = MSORT_COMPLETE;

  00030	c7 41 64 04 00
	00 00		 mov	 DWORD PTR [ecx+100], 4

; 227  : }

  00037	c3		 ret	 0
$LN7@SetSortTyp:

; 220  : 		m_MissionSortType = MSORT_ALL_CLEAR;

  00038	c7 41 64 01 00
	00 00		 mov	 DWORD PTR [ecx+100], 1
$LN1@SetSortTyp:

; 227  : }

  0003f	c3		 ret	 0
?SetSortType@ioMission@@IAEXXZ ENDP			; ioMission::SetSortType
_TEXT	ENDS
PUBLIC	?Init@ioLoginTimeMission@@UAEXPBDAAVioINILoader@@@Z ; ioLoginTimeMission::Init
EXTRN	__imp_?GetLoopSec@ioFrameTimer@@QBEKXZ:PROC
EXTRN	__imp_?GetSingleton@ioFrameTimer@@SAAAV1@XZ:PROC
; Function compile flags: /Ogsp
;	COMDAT ?Init@ioLoginTimeMission@@UAEXPBDAAVioINILoader@@@Z
_TEXT	SEGMENT
_szINIKeyName$ = 8					; size = 4
_kLoader$ = 12						; size = 4
?Init@ioLoginTimeMission@@UAEXPBDAAVioINILoader@@@Z PROC ; ioLoginTimeMission::Init, COMDAT
; _this$ = ecx

; 251  : {

  00000	56		 push	 esi
  00001	8b f1		 mov	 esi, ecx

; 252  : 	m_dwProcessTime = FRAMEGETTIME();

  00003	ff 15 00 00 00
	00		 call	 DWORD PTR __imp_?GetSingleton@ioFrameTimer@@SAAAV1@XZ
  00009	8b c8		 mov	 ecx, eax
  0000b	ff 15 00 00 00
	00		 call	 DWORD PTR __imp_?GetLoopSec@ioFrameTimer@@QBEKXZ

; 253  : 	m_iGapMinute = 0;

  00011	83 66 7c 00	 and	 DWORD PTR [esi+124], 0
  00015	89 46 78	 mov	 DWORD PTR [esi+120], eax
  00018	5e		 pop	 esi

; 254  : }

  00019	c2 08 00	 ret	 8
?Init@ioLoginTimeMission@@UAEXPBDAAVioINILoader@@@Z ENDP ; ioLoginTimeMission::Init
_TEXT	ENDS
PUBLIC	?size@?$vector@V?$basic_string@DU?$char_traits@D@std@@V?$allocator@D@2@@std@@V?$allocator@V?$basic_string@DU?$char_traits@D@std@@V?$allocator@D@2@@std@@@2@@std@@QBEIXZ ; std::vector<std::basic_string<char,std::char_traits<char>,std::allocator<char> >,std::allocator<std::basic_string<char,std::char_traits<char>,std::allocator<char> > > >::size
; Function compile flags: /Ogsp
; File c:\program files (x86)\microsoft visual studio 10.0\vc\include\vector
;	COMDAT ?size@?$vector@V?$basic_string@DU?$char_traits@D@std@@V?$allocator@D@2@@std@@V?$allocator@V?$basic_string@DU?$char_traits@D@std@@V?$allocator@D@2@@std@@@2@@std@@QBEIXZ
_TEXT	SEGMENT
?size@?$vector@V?$basic_string@DU?$char_traits@D@std@@V?$allocator@D@2@@std@@V?$allocator@V?$basic_string@DU?$char_traits@D@std@@V?$allocator@D@2@@std@@@2@@std@@QBEIXZ PROC ; std::vector<std::basic_string<char,std::char_traits<char>,std::allocator<char> >,std::allocator<std::basic_string<char,std::char_traits<char>,std::allocator<char> > > >::size, COMDAT
; _this$ = ecx

; 879  : 		return (this->_Mylast - this->_Myfirst);

  00000	8b 41 04	 mov	 eax, DWORD PTR [ecx+4]
  00003	2b 01		 sub	 eax, DWORD PTR [ecx]
  00005	6a 1c		 push	 28			; 0000001cH
  00007	99		 cdq
  00008	59		 pop	 ecx
  00009	f7 f9		 idiv	 ecx

; 880  : 		}

  0000b	c3		 ret	 0
?size@?$vector@V?$basic_string@DU?$char_traits@D@std@@V?$allocator@D@2@@std@@V?$allocator@V?$basic_string@DU?$char_traits@D@std@@V?$allocator@D@2@@std@@@2@@std@@QBEIXZ ENDP ; std::vector<std::basic_string<char,std::char_traits<char>,std::allocator<char> >,std::allocator<std::basic_string<char,std::char_traits<char>,std::allocator<char> > > >::size
_TEXT	ENDS
PUBLIC	??A?$vector@V?$basic_string@DU?$char_traits@D@std@@V?$allocator@D@2@@std@@V?$allocator@V?$basic_string@DU?$char_traits@D@std@@V?$allocator@D@2@@std@@@2@@std@@QAEAAV?$basic_string@DU?$char_traits@D@std@@V?$allocator@D@2@@1@I@Z ; std::vector<std::basic_string<char,std::char_traits<char>,std::allocator<char> >,std::allocator<std::basic_string<char,std::char_traits<char>,std::allocator<char> > > >::operator[]
; Function compile flags: /Ogsp
;	COMDAT ??A?$vector@V?$basic_string@DU?$char_traits@D@std@@V?$allocator@D@2@@std@@V?$allocator@V?$basic_string@DU?$char_traits@D@std@@V?$allocator@D@2@@std@@@2@@std@@QAEAAV?$basic_string@DU?$char_traits@D@std@@V?$allocator@D@2@@1@I@Z
_TEXT	SEGMENT
__Pos$ = 8						; size = 4
??A?$vector@V?$basic_string@DU?$char_traits@D@std@@V?$allocator@D@2@@std@@V?$allocator@V?$basic_string@DU?$char_traits@D@std@@V?$allocator@D@2@@std@@@2@@std@@QAEAAV?$basic_string@DU?$char_traits@D@std@@V?$allocator@D@2@@1@I@Z PROC ; std::vector<std::basic_string<char,std::char_traits<char>,std::allocator<char> >,std::allocator<std::basic_string<char,std::char_traits<char>,std::allocator<char> > > >::operator[], COMDAT
; _this$ = ecx

; 928  : 		{	// subscript mutable sequence

  00000	55		 push	 ebp
  00001	8b ec		 mov	 ebp, esp

; 929  :  #if _ITERATOR_DEBUG_LEVEL == 2
; 930  : 		if (size() <= _Pos)
; 931  : 			{	// report error
; 932  : 			_DEBUG_ERROR("vector subscript out of range");
; 933  : 			_SCL_SECURE_OUT_OF_RANGE;
; 934  : 			}
; 935  : 
; 936  :  #elif _ITERATOR_DEBUG_LEVEL == 1
; 937  : 		_SCL_SECURE_VALIDATE_RANGE(_Pos < size());
; 938  :  #endif /* _ITERATOR_DEBUG_LEVEL */
; 939  : 
; 940  : 		return (*(this->_Myfirst + _Pos));

  00003	8b 45 08	 mov	 eax, DWORD PTR __Pos$[ebp]
  00006	6b c0 1c	 imul	 eax, 28			; 0000001cH
  00009	03 01		 add	 eax, DWORD PTR [ecx]

; 941  : 		}

  0000b	5d		 pop	 ebp
  0000c	c2 04 00	 ret	 4
??A?$vector@V?$basic_string@DU?$char_traits@D@std@@V?$allocator@D@2@@std@@V?$allocator@V?$basic_string@DU?$char_traits@D@std@@V?$allocator@D@2@@std@@@2@@std@@QAEAAV?$basic_string@DU?$char_traits@D@std@@V?$allocator@D@2@@1@I@Z ENDP ; std::vector<std::basic_string<char,std::char_traits<char>,std::allocator<char> >,std::allocator<std::basic_string<char,std::char_traits<char>,std::allocator<char> > > >::operator[]
_TEXT	ENDS
PUBLIC	?empty@?$vector@UColorText@ioMission@@V?$allocator@UColorText@ioMission@@@std@@@std@@QBE_NXZ ; std::vector<ioMission::ColorText,std::allocator<ioMission::ColorText> >::empty
; Function compile flags: /Ogsp
;	COMDAT ?empty@?$vector@UColorText@ioMission@@V?$allocator@UColorText@ioMission@@@std@@@std@@QBE_NXZ
_TEXT	SEGMENT
?empty@?$vector@UColorText@ioMission@@V?$allocator@UColorText@ioMission@@@std@@@std@@QBE_NXZ PROC ; std::vector<ioMission::ColorText,std::allocator<ioMission::ColorText> >::empty, COMDAT
; _this$ = ecx

; 889  : 		return (this->_Myfirst == this->_Mylast);

  00000	8b 01		 mov	 eax, DWORD PTR [ecx]
  00002	2b 41 04	 sub	 eax, DWORD PTR [ecx+4]
  00005	f7 d8		 neg	 eax
  00007	1b c0		 sbb	 eax, eax
  00009	40		 inc	 eax

; 890  : 		}

  0000a	c3		 ret	 0
?empty@?$vector@UColorText@ioMission@@V?$allocator@UColorText@ioMission@@@std@@@std@@QBE_NXZ ENDP ; std::vector<ioMission::ColorText,std::allocator<ioMission::ColorText> >::empty
_TEXT	ENDS
PUBLIC	?_Inside@?$vector@VioHashString@@V?$allocator@VioHashString@@@std@@@std@@IBE_NPBVioHashString@@@Z ; std::vector<ioHashString,std::allocator<ioHashString> >::_Inside
; Function compile flags: /Ogsp
;	COMDAT ?_Inside@?$vector@VioHashString@@V?$allocator@VioHashString@@@std@@@std@@IBE_NPBVioHashString@@@Z
_TEXT	SEGMENT
__Ptr$ = 8						; size = 4
?_Inside@?$vector@VioHashString@@V?$allocator@VioHashString@@@std@@@std@@IBE_NPBVioHashString@@@Z PROC ; std::vector<ioHashString,std::allocator<ioHashString> >::_Inside, COMDAT
; _this$ = ecx

; 1285 : 		{	// test if _Ptr points inside vector

  00000	55		 push	 ebp
  00001	8b ec		 mov	 ebp, esp

; 1286 : 		return (_Ptr < this->_Mylast && this->_Myfirst <= _Ptr);

  00003	8b 45 08	 mov	 eax, DWORD PTR __Ptr$[ebp]
  00006	3b 41 04	 cmp	 eax, DWORD PTR [ecx+4]
  00009	73 09		 jae	 SHORT $LN3@Inside
  0000b	39 01		 cmp	 DWORD PTR [ecx], eax
  0000d	77 05		 ja	 SHORT $LN3@Inside
  0000f	33 c0		 xor	 eax, eax
  00011	40		 inc	 eax
  00012	eb 02		 jmp	 SHORT $LN4@Inside
$LN3@Inside:
  00014	33 c0		 xor	 eax, eax
$LN4@Inside:

; 1287 : 		}

  00016	5d		 pop	 ebp
  00017	c2 04 00	 ret	 4
?_Inside@?$vector@VioHashString@@V?$allocator@VioHashString@@@std@@@std@@IBE_NPBVioHashString@@@Z ENDP ; std::vector<ioHashString,std::allocator<ioHashString> >::_Inside
_TEXT	ENDS
PUBLIC	?_Orphan_range@?$vector@VioHashString@@V?$allocator@VioHashString@@@std@@@std@@IBEXPAVioHashString@@0@Z ; std::vector<ioHashString,std::allocator<ioHashString> >::_Orphan_range
; Function compile flags: /Ogsp
;	COMDAT ?_Orphan_range@?$vector@VioHashString@@V?$allocator@VioHashString@@@std@@@std@@IBEXPAVioHashString@@0@Z
_TEXT	SEGMENT
___formal$ = 8						; size = 4
___formal$ = 12						; size = 4
?_Orphan_range@?$vector@VioHashString@@V?$allocator@VioHashString@@@std@@@std@@IBEXPAVioHashString@@0@Z PROC ; std::vector<ioHashString,std::allocator<ioHashString> >::_Orphan_range, COMDAT
; _this$ = ecx

; 1454 : 		}

  00000	c2 08 00	 ret	 8
?_Orphan_range@?$vector@VioHashString@@V?$allocator@VioHashString@@@std@@@std@@IBEXPAVioHashString@@0@Z ENDP ; std::vector<ioHashString,std::allocator<ioHashString> >::_Orphan_range
_TEXT	ENDS
PUBLIC	??0?$allocator@V?$basic_string@DU?$char_traits@D@std@@V?$allocator@D@2@@std@@@std@@QAE@ABV01@@Z ; std::allocator<std::basic_string<char,std::char_traits<char>,std::allocator<char> > >::allocator<std::basic_string<char,std::char_traits<char>,std::allocator<char> > >
; Function compile flags: /Ogsp
; File c:\program files (x86)\microsoft visual studio 10.0\vc\include\xmemory
;	COMDAT ??0?$allocator@V?$basic_string@DU?$char_traits@D@std@@V?$allocator@D@2@@std@@@std@@QAE@ABV01@@Z
_TEXT	SEGMENT
___formal$ = 8						; size = 4
??0?$allocator@V?$basic_string@DU?$char_traits@D@std@@V?$allocator@D@2@@std@@@std@@QAE@ABV01@@Z PROC ; std::allocator<std::basic_string<char,std::char_traits<char>,std::allocator<char> > >::allocator<std::basic_string<char,std::char_traits<char>,std::allocator<char> > >, COMDAT
; _this$ = ecx

; 165  : 	_ALLOCATOR(const _ALLOCATOR<_Ty>&) _THROW0()

  00000	8b c1		 mov	 eax, ecx

; 166  : 		{	// construct by copying (do nothing)
; 167  : 		}

  00002	c2 04 00	 ret	 4
??0?$allocator@V?$basic_string@DU?$char_traits@D@std@@V?$allocator@D@2@@std@@@std@@QAE@ABV01@@Z ENDP ; std::allocator<std::basic_string<char,std::char_traits<char>,std::allocator<char> > >::allocator<std::basic_string<char,std::char_traits<char>,std::allocator<char> > >
_TEXT	ENDS
PUBLIC	?size@?$vector@V?$vector@UColorText@ioMission@@V?$allocator@UColorText@ioMission@@@std@@@std@@V?$allocator@V?$vector@UColorText@ioMission@@V?$allocator@UColorText@ioMission@@@std@@@std@@@2@@std@@QBEIXZ ; std::vector<std::vector<ioMission::ColorText,std::allocator<ioMission::ColorText> >,std::allocator<std::vector<ioMission::ColorText,std::allocator<ioMission::ColorText> > > >::size
; Function compile flags: /Ogsp
; File c:\program files (x86)\microsoft visual studio 10.0\vc\include\vector
;	COMDAT ?size@?$vector@V?$vector@UColorText@ioMission@@V?$allocator@UColorText@ioMission@@@std@@@std@@V?$allocator@V?$vector@UColorText@ioMission@@V?$allocator@UColorText@ioMission@@@std@@@std@@@2@@std@@QBEIXZ
_TEXT	SEGMENT
?size@?$vector@V?$vector@UColorText@ioMission@@V?$allocator@UColorText@ioMission@@@std@@@std@@V?$allocator@V?$vector@UColorText@ioMission@@V?$allocator@UColorText@ioMission@@@std@@@std@@@2@@std@@QBEIXZ PROC ; std::vector<std::vector<ioMission::ColorText,std::allocator<ioMission::ColorText> >,std::allocator<std::vector<ioMission::ColorText,std::allocator<ioMission::ColorText> > > >::size, COMDAT
; _this$ = ecx

; 879  : 		return (this->_Mylast - this->_Myfirst);

  00000	8b 41 04	 mov	 eax, DWORD PTR [ecx+4]
  00003	2b 01		 sub	 eax, DWORD PTR [ecx]
  00005	c1 f8 04	 sar	 eax, 4

; 880  : 		}

  00008	c3		 ret	 0
?size@?$vector@V?$vector@UColorText@ioMission@@V?$allocator@UColorText@ioMission@@@std@@@std@@V?$allocator@V?$vector@UColorText@ioMission@@V?$allocator@UColorText@ioMission@@@std@@@std@@@2@@std@@QBEIXZ ENDP ; std::vector<std::vector<ioMission::ColorText,std::allocator<ioMission::ColorText> >,std::allocator<std::vector<ioMission::ColorText,std::allocator<ioMission::ColorText> > > >::size
_TEXT	ENDS
PUBLIC	?_Inside@?$vector@V?$vector@UColorText@ioMission@@V?$allocator@UColorText@ioMission@@@std@@@std@@V?$allocator@V?$vector@UColorText@ioMission@@V?$allocator@UColorText@ioMission@@@std@@@std@@@2@@std@@IBE_NPBV?$vector@UColorText@ioMission@@V?$allocator@UColorText@ioMission@@@std@@@2@@Z ; std::vector<std::vector<ioMission::ColorText,std::allocator<ioMission::ColorText> >,std::allocator<std::vector<ioMission::ColorText,std::allocator<ioMission::ColorText> > > >::_Inside
; Function compile flags: /Ogsp
;	COMDAT ?_Inside@?$vector@V?$vector@UColorText@ioMission@@V?$allocator@UColorText@ioMission@@@std@@@std@@V?$allocator@V?$vector@UColorText@ioMission@@V?$allocator@UColorText@ioMission@@@std@@@std@@@2@@std@@IBE_NPBV?$vector@UColorText@ioMission@@V?$allocator@UColorText@ioMission@@@std@@@2@@Z
_TEXT	SEGMENT
__Ptr$ = 8						; size = 4
?_Inside@?$vector@V?$vector@UColorText@ioMission@@V?$allocator@UColorText@ioMission@@@std@@@std@@V?$allocator@V?$vector@UColorText@ioMission@@V?$allocator@UColorText@ioMission@@@std@@@std@@@2@@std@@IBE_NPBV?$vector@UColorText@ioMission@@V?$allocator@UColorText@ioMission@@@std@@@2@@Z PROC ; std::vector<std::vector<ioMission::ColorText,std::allocator<ioMission::ColorText> >,std::allocator<std::vector<ioMission::ColorText,std::allocator<ioMission::ColorText> > > >::_Inside, COMDAT
; _this$ = ecx

; 1285 : 		{	// test if _Ptr points inside vector

  00000	55		 push	 ebp
  00001	8b ec		 mov	 ebp, esp

; 1286 : 		return (_Ptr < this->_Mylast && this->_Myfirst <= _Ptr);

  00003	8b 45 08	 mov	 eax, DWORD PTR __Ptr$[ebp]
  00006	3b 41 04	 cmp	 eax, DWORD PTR [ecx+4]
  00009	73 09		 jae	 SHORT $LN3@Inside@2
  0000b	39 01		 cmp	 DWORD PTR [ecx], eax
  0000d	77 05		 ja	 SHORT $LN3@Inside@2
  0000f	33 c0		 xor	 eax, eax
  00011	40		 inc	 eax
  00012	eb 02		 jmp	 SHORT $LN4@Inside@2
$LN3@Inside@2:
  00014	33 c0		 xor	 eax, eax
$LN4@Inside@2:

; 1287 : 		}

  00016	5d		 pop	 ebp
  00017	c2 04 00	 ret	 4
?_Inside@?$vector@V?$vector@UColorText@ioMission@@V?$allocator@UColorText@ioMission@@@std@@@std@@V?$allocator@V?$vector@UColorText@ioMission@@V?$allocator@UColorText@ioMission@@@std@@@std@@@2@@std@@IBE_NPBV?$vector@UColorText@ioMission@@V?$allocator@UColorText@ioMission@@@std@@@2@@Z ENDP ; std::vector<std::vector<ioMission::ColorText,std::allocator<ioMission::ColorText> >,std::allocator<std::vector<ioMission::ColorText,std::allocator<ioMission::ColorText> > > >::_Inside
_TEXT	ENDS
PUBLIC	?_Orphan_range@?$vector@V?$vector@UColorText@ioMission@@V?$allocator@UColorText@ioMission@@@std@@@std@@V?$allocator@V?$vector@UColorText@ioMission@@V?$allocator@UColorText@ioMission@@@std@@@std@@@2@@std@@IBEXPAV?$vector@UColorText@ioMission@@V?$allocator@UColorText@ioMission@@@std@@@2@0@Z ; std::vector<std::vector<ioMission::ColorText,std::allocator<ioMission::ColorText> >,std::allocator<std::vector<ioMission::ColorText,std::allocator<ioMission::ColorText> > > >::_Orphan_range
; Function compile flags: /Ogsp
;	COMDAT ?_Orphan_range@?$vector@V?$vector@UColorText@ioMission@@V?$allocator@UColorText@ioMission@@@std@@@std@@V?$allocator@V?$vector@UColorText@ioMission@@V?$allocator@UColorText@ioMission@@@std@@@std@@@2@@std@@IBEXPAV?$vector@UColorText@ioMission@@V?$allocator@UColorText@ioMission@@@std@@@2@0@Z
_TEXT	SEGMENT
___formal$ = 8						; size = 4
___formal$ = 12						; size = 4
?_Orphan_range@?$vector@V?$vector@UColorText@ioMission@@V?$allocator@UColorText@ioMission@@@std@@@std@@V?$allocator@V?$vector@UColorText@ioMission@@V?$allocator@UColorText@ioMission@@@std@@@std@@@2@@std@@IBEXPAV?$vector@UColorText@ioMission@@V?$allocator@UColorText@ioMission@@@std@@@2@0@Z PROC ; std::vector<std::vector<ioMission::ColorText,std::allocator<ioMission::ColorText> >,std::allocator<std::vector<ioMission::ColorText,std::allocator<ioMission::ColorText> > > >::_Orphan_range, COMDAT
; _this$ = ecx

; 1454 : 		}

  00000	c2 08 00	 ret	 8
?_Orphan_range@?$vector@V?$vector@UColorText@ioMission@@V?$allocator@UColorText@ioMission@@@std@@@std@@V?$allocator@V?$vector@UColorText@ioMission@@V?$allocator@UColorText@ioMission@@@std@@@std@@@2@@std@@IBEXPAV?$vector@UColorText@ioMission@@V?$allocator@UColorText@ioMission@@@std@@@2@0@Z ENDP ; std::vector<std::vector<ioMission::ColorText,std::allocator<ioMission::ColorText> >,std::allocator<std::vector<ioMission::ColorText,std::allocator<ioMission::ColorText> > > >::_Orphan_range
_TEXT	ENDS
PUBLIC	??1?$_Vector_val@V?$vector@UColorText@ioMission@@V?$allocator@UColorText@ioMission@@@std@@@std@@V?$allocator@V?$vector@UColorText@ioMission@@V?$allocator@UColorText@ioMission@@@std@@@std@@@2@@std@@QAE@XZ ; std::_Vector_val<std::vector<ioMission::ColorText,std::allocator<ioMission::ColorText> >,std::allocator<std::vector<ioMission::ColorText,std::allocator<ioMission::ColorText> > > >::~_Vector_val<std::vector<ioMission::ColorText,std::allocator<ioMission::ColorText> >,std::allocator<std::vector<ioMission::ColorText,std::allocator<ioMission::ColorText> > > >
; Function compile flags: /Ogsp
;	COMDAT ??1?$_Vector_val@V?$vector@UColorText@ioMission@@V?$allocator@UColorText@ioMission@@@std@@@std@@V?$allocator@V?$vector@UColorText@ioMission@@V?$allocator@UColorText@ioMission@@@std@@@std@@@2@@std@@QAE@XZ
_TEXT	SEGMENT
??1?$_Vector_val@V?$vector@UColorText@ioMission@@V?$allocator@UColorText@ioMission@@@std@@@std@@V?$allocator@V?$vector@UColorText@ioMission@@V?$allocator@UColorText@ioMission@@@std@@@std@@@2@@std@@QAE@XZ PROC ; std::_Vector_val<std::vector<ioMission::ColorText,std::allocator<ioMission::ColorText> >,std::allocator<std::vector<ioMission::ColorText,std::allocator<ioMission::ColorText> > > >::~_Vector_val<std::vector<ioMission::ColorText,std::allocator<ioMission::ColorText> >,std::allocator<std::vector<ioMission::ColorText,std::allocator<ioMission::ColorText> > > >, COMDAT
; _this$ = ecx

; 434  : 		}

  00000	c3		 ret	 0
??1?$_Vector_val@V?$vector@UColorText@ioMission@@V?$allocator@UColorText@ioMission@@@std@@@std@@V?$allocator@V?$vector@UColorText@ioMission@@V?$allocator@UColorText@ioMission@@@std@@@std@@@2@@std@@QAE@XZ ENDP ; std::_Vector_val<std::vector<ioMission::ColorText,std::allocator<ioMission::ColorText> >,std::allocator<std::vector<ioMission::ColorText,std::allocator<ioMission::ColorText> > > >::~_Vector_val<std::vector<ioMission::ColorText,std::allocator<ioMission::ColorText> >,std::allocator<std::vector<ioMission::ColorText,std::allocator<ioMission::ColorText> > > >
_TEXT	ENDS
PUBLIC	??0?$allocator@V?$vector@UColorText@ioMission@@V?$allocator@UColorText@ioMission@@@std@@@std@@@std@@QAE@XZ ; std::allocator<std::vector<ioMission::ColorText,std::allocator<ioMission::ColorText> > >::allocator<std::vector<ioMission::ColorText,std::allocator<ioMission::ColorText> > >
; Function compile flags: /Ogsp
; File c:\program files (x86)\microsoft visual studio 10.0\vc\include\xmemory
;	COMDAT ??0?$allocator@V?$vector@UColorText@ioMission@@V?$allocator@UColorText@ioMission@@@std@@@std@@@std@@QAE@XZ
_TEXT	SEGMENT
??0?$allocator@V?$vector@UColorText@ioMission@@V?$allocator@UColorText@ioMission@@@std@@@std@@@std@@QAE@XZ PROC ; std::allocator<std::vector<ioMission::ColorText,std::allocator<ioMission::ColorText> > >::allocator<std::vector<ioMission::ColorText,std::allocator<ioMission::ColorText> > >, COMDAT
; _this$ = ecx

; 161  : 	_ALLOCATOR() _THROW0()

  00000	8b c1		 mov	 eax, ecx

; 162  : 		{	// construct default allocator (do nothing)
; 163  : 		}

  00002	c3		 ret	 0
??0?$allocator@V?$vector@UColorText@ioMission@@V?$allocator@UColorText@ioMission@@@std@@@std@@@std@@QAE@XZ ENDP ; std::allocator<std::vector<ioMission::ColorText,std::allocator<ioMission::ColorText> > >::allocator<std::vector<ioMission::ColorText,std::allocator<ioMission::ColorText> > >
_TEXT	ENDS
PUBLIC	??0?$allocator@V?$vector@UColorText@ioMission@@V?$allocator@UColorText@ioMission@@@std@@@std@@@std@@QAE@ABV01@@Z ; std::allocator<std::vector<ioMission::ColorText,std::allocator<ioMission::ColorText> > >::allocator<std::vector<ioMission::ColorText,std::allocator<ioMission::ColorText> > >
; Function compile flags: /Ogsp
;	COMDAT ??0?$allocator@V?$vector@UColorText@ioMission@@V?$allocator@UColorText@ioMission@@@std@@@std@@@std@@QAE@ABV01@@Z
_TEXT	SEGMENT
___formal$ = 8						; size = 4
??0?$allocator@V?$vector@UColorText@ioMission@@V?$allocator@UColorText@ioMission@@@std@@@std@@@std@@QAE@ABV01@@Z PROC ; std::allocator<std::vector<ioMission::ColorText,std::allocator<ioMission::ColorText> > >::allocator<std::vector<ioMission::ColorText,std::allocator<ioMission::ColorText> > >, COMDAT
; _this$ = ecx

; 165  : 	_ALLOCATOR(const _ALLOCATOR<_Ty>&) _THROW0()

  00000	8b c1		 mov	 eax, ecx

; 166  : 		{	// construct by copying (do nothing)
; 167  : 		}

  00002	c2 04 00	 ret	 4
??0?$allocator@V?$vector@UColorText@ioMission@@V?$allocator@UColorText@ioMission@@@std@@@std@@@std@@QAE@ABV01@@Z ENDP ; std::allocator<std::vector<ioMission::ColorText,std::allocator<ioMission::ColorText> > >::allocator<std::vector<ioMission::ColorText,std::allocator<ioMission::ColorText> > >
_TEXT	ENDS
PUBLIC	?_Inside@?$vector@UColorText@ioMission@@V?$allocator@UColorText@ioMission@@@std@@@std@@IBE_NPBUColorText@ioMission@@@Z ; std::vector<ioMission::ColorText,std::allocator<ioMission::ColorText> >::_Inside
; Function compile flags: /Ogsp
; File c:\program files (x86)\microsoft visual studio 10.0\vc\include\vector
;	COMDAT ?_Inside@?$vector@UColorText@ioMission@@V?$allocator@UColorText@ioMission@@@std@@@std@@IBE_NPBUColorText@ioMission@@@Z
_TEXT	SEGMENT
__Ptr$ = 8						; size = 4
?_Inside@?$vector@UColorText@ioMission@@V?$allocator@UColorText@ioMission@@@std@@@std@@IBE_NPBUColorText@ioMission@@@Z PROC ; std::vector<ioMission::ColorText,std::allocator<ioMission::ColorText> >::_Inside, COMDAT
; _this$ = ecx

; 1285 : 		{	// test if _Ptr points inside vector

  00000	55		 push	 ebp
  00001	8b ec		 mov	 ebp, esp

; 1286 : 		return (_Ptr < this->_Mylast && this->_Myfirst <= _Ptr);

  00003	8b 45 08	 mov	 eax, DWORD PTR __Ptr$[ebp]
  00006	3b 41 04	 cmp	 eax, DWORD PTR [ecx+4]
  00009	73 09		 jae	 SHORT $LN3@Inside@3
  0000b	39 01		 cmp	 DWORD PTR [ecx], eax
  0000d	77 05		 ja	 SHORT $LN3@Inside@3
  0000f	33 c0		 xor	 eax, eax
  00011	40		 inc	 eax
  00012	eb 02		 jmp	 SHORT $LN4@Inside@3
$LN3@Inside@3:
  00014	33 c0		 xor	 eax, eax
$LN4@Inside@3:

; 1287 : 		}

  00016	5d		 pop	 ebp
  00017	c2 04 00	 ret	 4
?_Inside@?$vector@UColorText@ioMission@@V?$allocator@UColorText@ioMission@@@std@@@std@@IBE_NPBUColorText@ioMission@@@Z ENDP ; std::vector<ioMission::ColorText,std::allocator<ioMission::ColorText> >::_Inside
_TEXT	ENDS
PUBLIC	?_Orphan_range@?$vector@UColorText@ioMission@@V?$allocator@UColorText@ioMission@@@std@@@std@@IBEXPAUColorText@ioMission@@0@Z ; std::vector<ioMission::ColorText,std::allocator<ioMission::ColorText> >::_Orphan_range
; Function compile flags: /Ogsp
;	COMDAT ?_Orphan_range@?$vector@UColorText@ioMission@@V?$allocator@UColorText@ioMission@@@std@@@std@@IBEXPAUColorText@ioMission@@0@Z
_TEXT	SEGMENT
___formal$ = 8						; size = 4
___formal$ = 12						; size = 4
?_Orphan_range@?$vector@UColorText@ioMission@@V?$allocator@UColorText@ioMission@@@std@@@std@@IBEXPAUColorText@ioMission@@0@Z PROC ; std::vector<ioMission::ColorText,std::allocator<ioMission::ColorText> >::_Orphan_range, COMDAT
; _this$ = ecx

; 1454 : 		}

  00000	c2 08 00	 ret	 8
?_Orphan_range@?$vector@UColorText@ioMission@@V?$allocator@UColorText@ioMission@@@std@@@std@@IBEXPAUColorText@ioMission@@0@Z ENDP ; std::vector<ioMission::ColorText,std::allocator<ioMission::ColorText> >::_Orphan_range
_TEXT	ENDS
PUBLIC	??1?$_Vector_val@UColorText@ioMission@@V?$allocator@UColorText@ioMission@@@std@@@std@@QAE@XZ ; std::_Vector_val<ioMission::ColorText,std::allocator<ioMission::ColorText> >::~_Vector_val<ioMission::ColorText,std::allocator<ioMission::ColorText> >
; Function compile flags: /Ogsp
;	COMDAT ??1?$_Vector_val@UColorText@ioMission@@V?$allocator@UColorText@ioMission@@@std@@@std@@QAE@XZ
_TEXT	SEGMENT
??1?$_Vector_val@UColorText@ioMission@@V?$allocator@UColorText@ioMission@@@std@@@std@@QAE@XZ PROC ; std::_Vector_val<ioMission::ColorText,std::allocator<ioMission::ColorText> >::~_Vector_val<ioMission::ColorText,std::allocator<ioMission::ColorText> >, COMDAT
; _this$ = ecx

; 434  : 		}

  00000	c3		 ret	 0
??1?$_Vector_val@UColorText@ioMission@@V?$allocator@UColorText@ioMission@@@std@@@std@@QAE@XZ ENDP ; std::_Vector_val<ioMission::ColorText,std::allocator<ioMission::ColorText> >::~_Vector_val<ioMission::ColorText,std::allocator<ioMission::ColorText> >
_TEXT	ENDS
PUBLIC	??0?$allocator@UColorText@ioMission@@@std@@QAE@XZ ; std::allocator<ioMission::ColorText>::allocator<ioMission::ColorText>
; Function compile flags: /Ogsp
; File c:\program files (x86)\microsoft visual studio 10.0\vc\include\xmemory
;	COMDAT ??0?$allocator@UColorText@ioMission@@@std@@QAE@XZ
_TEXT	SEGMENT
??0?$allocator@UColorText@ioMission@@@std@@QAE@XZ PROC	; std::allocator<ioMission::ColorText>::allocator<ioMission::ColorText>, COMDAT
; _this$ = ecx

; 161  : 	_ALLOCATOR() _THROW0()

  00000	8b c1		 mov	 eax, ecx

; 162  : 		{	// construct default allocator (do nothing)
; 163  : 		}

  00002	c3		 ret	 0
??0?$allocator@UColorText@ioMission@@@std@@QAE@XZ ENDP	; std::allocator<ioMission::ColorText>::allocator<ioMission::ColorText>
_TEXT	ENDS
PUBLIC	?capacity@?$vector@VioHashString@@V?$allocator@VioHashString@@@std@@@std@@QBEIXZ ; std::vector<ioHashString,std::allocator<ioHashString> >::capacity
; Function compile flags: /Ogsp
; File c:\program files (x86)\microsoft visual studio 10.0\vc\include\vector
;	COMDAT ?capacity@?$vector@VioHashString@@V?$allocator@VioHashString@@@std@@@std@@QBEIXZ
_TEXT	SEGMENT
?capacity@?$vector@VioHashString@@V?$allocator@VioHashString@@@std@@@std@@QBEIXZ PROC ; std::vector<ioHashString,std::allocator<ioHashString> >::capacity, COMDAT
; _this$ = ecx

; 777  : 		return (this->_Myend - this->_Myfirst);

  00000	8b 41 08	 mov	 eax, DWORD PTR [ecx+8]
  00003	2b 01		 sub	 eax, DWORD PTR [ecx]
  00005	c1 f8 04	 sar	 eax, 4

; 778  : 		}

  00008	c3		 ret	 0
?capacity@?$vector@VioHashString@@V?$allocator@VioHashString@@@std@@@std@@QBEIXZ ENDP ; std::vector<ioHashString,std::allocator<ioHashString> >::capacity
_TEXT	ENDS
PUBLIC	??_C@_0BD@OLBABOEK@vector?$DMT?$DO?5too?5long?$AA@ ; `string'
PUBLIC	?_Xlen@?$vector@V?$basic_string@DU?$char_traits@D@std@@V?$allocator@D@2@@std@@V?$allocator@V?$basic_string@DU?$char_traits@D@std@@V?$allocator@D@2@@std@@@2@@std@@IBEXXZ ; std::vector<std::basic_string<char,std::char_traits<char>,std::allocator<char> >,std::allocator<std::basic_string<char,std::char_traits<char>,std::allocator<char> > > >::_Xlen
EXTRN	__imp_?_Xlength_error@std@@YAXPBD@Z:PROC
;	COMDAT ??_C@_0BD@OLBABOEK@vector?$DMT?$DO?5too?5long?$AA@
CONST	SEGMENT
??_C@_0BD@OLBABOEK@vector?$DMT?$DO?5too?5long?$AA@ DB 'vector<T> too long'
	DB	00H						; `string'
; Function compile flags: /Ogsp
CONST	ENDS
;	COMDAT ?_Xlen@?$vector@V?$basic_string@DU?$char_traits@D@std@@V?$allocator@D@2@@std@@V?$allocator@V?$basic_string@DU?$char_traits@D@std@@V?$allocator@D@2@@std@@@2@@std@@IBEXXZ
_TEXT	SEGMENT
?_Xlen@?$vector@V?$basic_string@DU?$char_traits@D@std@@V?$allocator@D@2@@std@@V?$allocator@V?$basic_string@DU?$char_traits@D@std@@V?$allocator@D@2@@std@@@2@@std@@IBEXXZ PROC ; std::vector<std::basic_string<char,std::char_traits<char>,std::allocator<char> >,std::allocator<std::basic_string<char,std::char_traits<char>,std::allocator<char> > > >::_Xlen, COMDAT
; _this$ = ecx

; 1427 : 		_Xlength_error("vector<T> too long");

  00000	68 00 00 00 00	 push	 OFFSET ??_C@_0BD@OLBABOEK@vector?$DMT?$DO?5too?5long?$AA@
  00005	ff 15 00 00 00
	00		 call	 DWORD PTR __imp_?_Xlength_error@std@@YAXPBD@Z
$LN4@Xlen:
$LN3@Xlen:
  0000b	cc		 int	 3
?_Xlen@?$vector@V?$basic_string@DU?$char_traits@D@std@@V?$allocator@D@2@@std@@V?$allocator@V?$basic_string@DU?$char_traits@D@std@@V?$allocator@D@2@@std@@@2@@std@@IBEXXZ ENDP ; std::vector<std::basic_string<char,std::char_traits<char>,std::allocator<char> >,std::allocator<std::basic_string<char,std::char_traits<char>,std::allocator<char> > > >::_Xlen
_TEXT	ENDS
PUBLIC	?capacity@?$vector@V?$vector@UColorText@ioMission@@V?$allocator@UColorText@ioMission@@@std@@@std@@V?$allocator@V?$vector@UColorText@ioMission@@V?$allocator@UColorText@ioMission@@@std@@@std@@@2@@std@@QBEIXZ ; std::vector<std::vector<ioMission::ColorText,std::allocator<ioMission::ColorText> >,std::allocator<std::vector<ioMission::ColorText,std::allocator<ioMission::ColorText> > > >::capacity
; Function compile flags: /Ogsp
;	COMDAT ?capacity@?$vector@V?$vector@UColorText@ioMission@@V?$allocator@UColorText@ioMission@@@std@@@std@@V?$allocator@V?$vector@UColorText@ioMission@@V?$allocator@UColorText@ioMission@@@std@@@std@@@2@@std@@QBEIXZ
_TEXT	SEGMENT
?capacity@?$vector@V?$vector@UColorText@ioMission@@V?$allocator@UColorText@ioMission@@@std@@@std@@V?$allocator@V?$vector@UColorText@ioMission@@V?$allocator@UColorText@ioMission@@@std@@@std@@@2@@std@@QBEIXZ PROC ; std::vector<std::vector<ioMission::ColorText,std::allocator<ioMission::ColorText> >,std::allocator<std::vector<ioMission::ColorText,std::allocator<ioMission::ColorText> > > >::capacity, COMDAT
; _this$ = ecx

; 777  : 		return (this->_Myend - this->_Myfirst);

  00000	8b 41 08	 mov	 eax, DWORD PTR [ecx+8]
  00003	2b 01		 sub	 eax, DWORD PTR [ecx]
  00005	c1 f8 04	 sar	 eax, 4

; 778  : 		}

  00008	c3		 ret	 0
?capacity@?$vector@V?$vector@UColorText@ioMission@@V?$allocator@UColorText@ioMission@@@std@@@std@@V?$allocator@V?$vector@UColorText@ioMission@@V?$allocator@UColorText@ioMission@@@std@@@std@@@2@@std@@QBEIXZ ENDP ; std::vector<std::vector<ioMission::ColorText,std::allocator<ioMission::ColorText> >,std::allocator<std::vector<ioMission::ColorText,std::allocator<ioMission::ColorText> > > >::capacity
_TEXT	ENDS
PUBLIC	?_Xlen@?$vector@V?$vector@UColorText@ioMission@@V?$allocator@UColorText@ioMission@@@std@@@std@@V?$allocator@V?$vector@UColorText@ioMission@@V?$allocator@UColorText@ioMission@@@std@@@std@@@2@@std@@IBEXXZ ; std::vector<std::vector<ioMission::ColorText,std::allocator<ioMission::ColorText> >,std::allocator<std::vector<ioMission::ColorText,std::allocator<ioMission::ColorText> > > >::_Xlen
; Function compile flags: /Ogsp
;	COMDAT ?_Xlen@?$vector@V?$vector@UColorText@ioMission@@V?$allocator@UColorText@ioMission@@@std@@@std@@V?$allocator@V?$vector@UColorText@ioMission@@V?$allocator@UColorText@ioMission@@@std@@@std@@@2@@std@@IBEXXZ
_TEXT	SEGMENT
?_Xlen@?$vector@V?$vector@UColorText@ioMission@@V?$allocator@UColorText@ioMission@@@std@@@std@@V?$allocator@V?$vector@UColorText@ioMission@@V?$allocator@UColorText@ioMission@@@std@@@std@@@2@@std@@IBEXXZ PROC ; std::vector<std::vector<ioMission::ColorText,std::allocator<ioMission::ColorText> >,std::allocator<std::vector<ioMission::ColorText,std::allocator<ioMission::ColorText> > > >::_Xlen, COMDAT
; _this$ = ecx

; 1427 : 		_Xlength_error("vector<T> too long");

  00000	68 00 00 00 00	 push	 OFFSET ??_C@_0BD@OLBABOEK@vector?$DMT?$DO?5too?5long?$AA@
  00005	ff 15 00 00 00
	00		 call	 DWORD PTR __imp_?_Xlength_error@std@@YAXPBD@Z
$LN4@Xlen@2:
$LN3@Xlen@2:
  0000b	cc		 int	 3
?_Xlen@?$vector@V?$vector@UColorText@ioMission@@V?$allocator@UColorText@ioMission@@@std@@@std@@V?$allocator@V?$vector@UColorText@ioMission@@V?$allocator@UColorText@ioMission@@@std@@@std@@@2@@std@@IBEXXZ ENDP ; std::vector<std::vector<ioMission::ColorText,std::allocator<ioMission::ColorText> >,std::allocator<std::vector<ioMission::ColorText,std::allocator<ioMission::ColorText> > > >::_Xlen
_TEXT	ENDS
PUBLIC	?deallocate@?$allocator@V?$vector@UColorText@ioMission@@V?$allocator@UColorText@ioMission@@@std@@@std@@@std@@QAEXPAV?$vector@UColorText@ioMission@@V?$allocator@UColorText@ioMission@@@std@@@2@I@Z ; std::allocator<std::vector<ioMission::ColorText,std::allocator<ioMission::ColorText> > >::deallocate
; Function compile flags: /Ogsp
; File c:\program files (x86)\microsoft visual studio 10.0\vc\include\xmemory
;	COMDAT ?deallocate@?$allocator@V?$vector@UColorText@ioMission@@V?$allocator@UColorText@ioMission@@@std@@@std@@@std@@QAEXPAV?$vector@UColorText@ioMission@@V?$allocator@UColorText@ioMission@@@std@@@2@I@Z
_TEXT	SEGMENT
__Ptr$ = 8						; size = 4
___formal$ = 12						; size = 4
?deallocate@?$allocator@V?$vector@UColorText@ioMission@@V?$allocator@UColorText@ioMission@@@std@@@std@@@std@@QAEXPAV?$vector@UColorText@ioMission@@V?$allocator@UColorText@ioMission@@@std@@@2@I@Z PROC ; std::allocator<std::vector<ioMission::ColorText,std::allocator<ioMission::ColorText> > >::deallocate, COMDAT
; _this$ = ecx

; 181  : 		{	// deallocate object at _Ptr, ignore size

  00000	55		 push	 ebp
  00001	8b ec		 mov	 ebp, esp

; 182  : 		::operator delete(_Ptr);

  00003	ff 75 08	 push	 DWORD PTR __Ptr$[ebp]
  00006	e8 00 00 00 00	 call	 ??3@YAXPAX@Z		; operator delete
  0000b	59		 pop	 ecx

; 183  : 		}

  0000c	5d		 pop	 ebp
  0000d	c2 08 00	 ret	 8
?deallocate@?$allocator@V?$vector@UColorText@ioMission@@V?$allocator@UColorText@ioMission@@@std@@@std@@@std@@QAEXPAV?$vector@UColorText@ioMission@@V?$allocator@UColorText@ioMission@@@std@@@2@I@Z ENDP ; std::allocator<std::vector<ioMission::ColorText,std::allocator<ioMission::ColorText> > >::deallocate
_TEXT	ENDS
PUBLIC	?capacity@?$vector@UColorText@ioMission@@V?$allocator@UColorText@ioMission@@@std@@@std@@QBEIXZ ; std::vector<ioMission::ColorText,std::allocator<ioMission::ColorText> >::capacity
; Function compile flags: /Ogsp
; File c:\program files (x86)\microsoft visual studio 10.0\vc\include\vector
;	COMDAT ?capacity@?$vector@UColorText@ioMission@@V?$allocator@UColorText@ioMission@@@std@@@std@@QBEIXZ
_TEXT	SEGMENT
?capacity@?$vector@UColorText@ioMission@@V?$allocator@UColorText@ioMission@@@std@@@std@@QBEIXZ PROC ; std::vector<ioMission::ColorText,std::allocator<ioMission::ColorText> >::capacity, COMDAT
; _this$ = ecx

; 777  : 		return (this->_Myend - this->_Myfirst);

  00000	8b 41 08	 mov	 eax, DWORD PTR [ecx+8]
  00003	2b 01		 sub	 eax, DWORD PTR [ecx]
  00005	6a 14		 push	 20			; 00000014H
  00007	99		 cdq
  00008	59		 pop	 ecx
  00009	f7 f9		 idiv	 ecx

; 778  : 		}

  0000b	c3		 ret	 0
?capacity@?$vector@UColorText@ioMission@@V?$allocator@UColorText@ioMission@@@std@@@std@@QBEIXZ ENDP ; std::vector<ioMission::ColorText,std::allocator<ioMission::ColorText> >::capacity
_TEXT	ENDS
PUBLIC	?size@?$vector@UColorText@ioMission@@V?$allocator@UColorText@ioMission@@@std@@@std@@QBEIXZ ; std::vector<ioMission::ColorText,std::allocator<ioMission::ColorText> >::size
; Function compile flags: /Ogsp
;	COMDAT ?size@?$vector@UColorText@ioMission@@V?$allocator@UColorText@ioMission@@@std@@@std@@QBEIXZ
_TEXT	SEGMENT
?size@?$vector@UColorText@ioMission@@V?$allocator@UColorText@ioMission@@@std@@@std@@QBEIXZ PROC ; std::vector<ioMission::ColorText,std::allocator<ioMission::ColorText> >::size, COMDAT
; _this$ = ecx

; 879  : 		return (this->_Mylast - this->_Myfirst);

  00000	8b 41 04	 mov	 eax, DWORD PTR [ecx+4]
  00003	2b 01		 sub	 eax, DWORD PTR [ecx]
  00005	6a 14		 push	 20			; 00000014H
  00007	99		 cdq
  00008	59		 pop	 ecx
  00009	f7 f9		 idiv	 ecx

; 880  : 		}

  0000b	c3		 ret	 0
?size@?$vector@UColorText@ioMission@@V?$allocator@UColorText@ioMission@@@std@@@std@@QBEIXZ ENDP ; std::vector<ioMission::ColorText,std::allocator<ioMission::ColorText> >::size
_TEXT	ENDS
PUBLIC	?_Xlen@?$vector@UColorText@ioMission@@V?$allocator@UColorText@ioMission@@@std@@@std@@IBEXXZ ; std::vector<ioMission::ColorText,std::allocator<ioMission::ColorText> >::_Xlen
; Function compile flags: /Ogsp
;	COMDAT ?_Xlen@?$vector@UColorText@ioMission@@V?$allocator@UColorText@ioMission@@@std@@@std@@IBEXXZ
_TEXT	SEGMENT
?_Xlen@?$vector@UColorText@ioMission@@V?$allocator@UColorText@ioMission@@@std@@@std@@IBEXXZ PROC ; std::vector<ioMission::ColorText,std::allocator<ioMission::ColorText> >::_Xlen, COMDAT
; _this$ = ecx

; 1427 : 		_Xlength_error("vector<T> too long");

  00000	68 00 00 00 00	 push	 OFFSET ??_C@_0BD@OLBABOEK@vector?$DMT?$DO?5too?5long?$AA@
  00005	ff 15 00 00 00
	00		 call	 DWORD PTR __imp_?_Xlength_error@std@@YAXPBD@Z
$LN4@Xlen@3:
$LN3@Xlen@3:
  0000b	cc		 int	 3
?_Xlen@?$vector@UColorText@ioMission@@V?$allocator@UColorText@ioMission@@@std@@@std@@IBEXXZ ENDP ; std::vector<ioMission::ColorText,std::allocator<ioMission::ColorText> >::_Xlen
_TEXT	ENDS
PUBLIC	??0?$allocator@UColorText@ioMission@@@std@@QAE@ABV01@@Z ; std::allocator<ioMission::ColorText>::allocator<ioMission::ColorText>
; Function compile flags: /Ogsp
; File c:\program files (x86)\microsoft visual studio 10.0\vc\include\xmemory
;	COMDAT ??0?$allocator@UColorText@ioMission@@@std@@QAE@ABV01@@Z
_TEXT	SEGMENT
___formal$ = 8						; size = 4
??0?$allocator@UColorText@ioMission@@@std@@QAE@ABV01@@Z PROC ; std::allocator<ioMission::ColorText>::allocator<ioMission::ColorText>, COMDAT
; _this$ = ecx

; 165  : 	_ALLOCATOR(const _ALLOCATOR<_Ty>&) _THROW0()

  00000	8b c1		 mov	 eax, ecx

; 166  : 		{	// construct by copying (do nothing)
; 167  : 		}

  00002	c2 04 00	 ret	 4
??0?$allocator@UColorText@ioMission@@@std@@QAE@ABV01@@Z ENDP ; std::allocator<ioMission::ColorText>::allocator<ioMission::ColorText>
_TEXT	ENDS
PUBLIC	?deallocate@?$allocator@UColorText@ioMission@@@std@@QAEXPAUColorText@ioMission@@I@Z ; std::allocator<ioMission::ColorText>::deallocate
; Function compile flags: /Ogsp
;	COMDAT ?deallocate@?$allocator@UColorText@ioMission@@@std@@QAEXPAUColorText@ioMission@@I@Z
_TEXT	SEGMENT
__Ptr$ = 8						; size = 4
___formal$ = 12						; size = 4
?deallocate@?$allocator@UColorText@ioMission@@@std@@QAEXPAUColorText@ioMission@@I@Z PROC ; std::allocator<ioMission::ColorText>::deallocate, COMDAT
; _this$ = ecx

; 181  : 		{	// deallocate object at _Ptr, ignore size

  00000	55		 push	 ebp
  00001	8b ec		 mov	 ebp, esp

; 182  : 		::operator delete(_Ptr);

  00003	ff 75 08	 push	 DWORD PTR __Ptr$[ebp]
  00006	e8 00 00 00 00	 call	 ??3@YAXPAX@Z		; operator delete
  0000b	59		 pop	 ecx

; 183  : 		}

  0000c	5d		 pop	 ebp
  0000d	c2 08 00	 ret	 8
?deallocate@?$allocator@UColorText@ioMission@@@std@@QAEXPAUColorText@ioMission@@I@Z ENDP ; std::allocator<ioMission::ColorText>::deallocate
_TEXT	ENDS
PUBLIC	??0?$_Vector_const_iterator@V?$_Vector_val@V?$basic_string@DU?$char_traits@D@std@@V?$allocator@D@2@@std@@V?$allocator@V?$basic_string@DU?$char_traits@D@std@@V?$allocator@D@2@@std@@@2@@std@@@std@@QAE@PAV?$basic_string@DU?$char_traits@D@std@@V?$allocator@D@2@@1@PBU_Container_base0@1@@Z ; std::_Vector_const_iterator<std::_Vector_val<std::basic_string<char,std::char_traits<char>,std::allocator<char> >,std::allocator<std::basic_string<char,std::char_traits<char>,std::allocator<char> > > > >::_Vector_const_iterator<std::_Vector_val<std::basic_string<char,std::char_traits<char>,std::allocator<char> >,std::allocator<std::basic_string<char,std::char_traits<char>,std::allocator<char> > > > >
; Function compile flags: /Ogsp
; File c:\program files (x86)\microsoft visual studio 10.0\vc\include\vector
;	COMDAT ??0?$_Vector_const_iterator@V?$_Vector_val@V?$basic_string@DU?$char_traits@D@std@@V?$allocator@D@2@@std@@V?$allocator@V?$basic_string@DU?$char_traits@D@std@@V?$allocator@D@2@@std@@@2@@std@@@std@@QAE@PAV?$basic_string@DU?$char_traits@D@std@@V?$allocator@D@2@@1@PBU_Container_base0@1@@Z
_TEXT	SEGMENT
__Parg$ = 8						; size = 4
__Pvector$ = 12						; size = 4
??0?$_Vector_const_iterator@V?$_Vector_val@V?$basic_string@DU?$char_traits@D@std@@V?$allocator@D@2@@std@@V?$allocator@V?$basic_string@DU?$char_traits@D@std@@V?$allocator@D@2@@std@@@2@@std@@@std@@QAE@PAV?$basic_string@DU?$char_traits@D@std@@V?$allocator@D@2@@1@PBU_Container_base0@1@@Z PROC ; std::_Vector_const_iterator<std::_Vector_val<std::basic_string<char,std::char_traits<char>,std::allocator<char> >,std::allocator<std::basic_string<char,std::char_traits<char>,std::allocator<char> > > > >::_Vector_const_iterator<std::_Vector_val<std::basic_string<char,std::char_traits<char>,std::allocator<char> >,std::allocator<std::basic_string<char,std::char_traits<char>,std::allocator<char> > > > >, COMDAT
; _this$ = ecx

; 45   : 		{	// construct with pointer _Parg

  00000	55		 push	 ebp
  00001	8b ec		 mov	 ebp, esp
  00003	8b c1		 mov	 eax, ecx
  00005	8b 4d 08	 mov	 ecx, DWORD PTR __Parg$[ebp]
  00008	89 08		 mov	 DWORD PTR [eax], ecx

; 46   : 		this->_Adopt(_Pvector);
; 47   : 		}

  0000a	5d		 pop	 ebp
  0000b	c2 08 00	 ret	 8
??0?$_Vector_const_iterator@V?$_Vector_val@V?$basic_string@DU?$char_traits@D@std@@V?$allocator@D@2@@std@@V?$allocator@V?$basic_string@DU?$char_traits@D@std@@V?$allocator@D@2@@std@@@2@@std@@@std@@QAE@PAV?$basic_string@DU?$char_traits@D@std@@V?$allocator@D@2@@1@PBU_Container_base0@1@@Z ENDP ; std::_Vector_const_iterator<std::_Vector_val<std::basic_string<char,std::char_traits<char>,std::allocator<char> >,std::allocator<std::basic_string<char,std::char_traits<char>,std::allocator<char> > > > >::_Vector_const_iterator<std::_Vector_val<std::basic_string<char,std::char_traits<char>,std::allocator<char> >,std::allocator<std::basic_string<char,std::char_traits<char>,std::allocator<char> > > > >
_TEXT	ENDS
PUBLIC	??0?$_Vector_const_iterator@V?$_Vector_val@V?$vector@UColorText@ioMission@@V?$allocator@UColorText@ioMission@@@std@@@std@@V?$allocator@V?$vector@UColorText@ioMission@@V?$allocator@UColorText@ioMission@@@std@@@std@@@2@@std@@@std@@QAE@PAV?$vector@UColorText@ioMission@@V?$allocator@UColorText@ioMission@@@std@@@1@PBU_Container_base0@1@@Z ; std::_Vector_const_iterator<std::_Vector_val<std::vector<ioMission::ColorText,std::allocator<ioMission::ColorText> >,std::allocator<std::vector<ioMission::ColorText,std::allocator<ioMission::ColorText> > > > >::_Vector_const_iterator<std::_Vector_val<std::vector<ioMission::ColorText,std::allocator<ioMission::ColorText> >,std::allocator<std::vector<ioMission::ColorText,std::allocator<ioMission::ColorText> > > > >
; Function compile flags: /Ogsp
;	COMDAT ??0?$_Vector_const_iterator@V?$_Vector_val@V?$vector@UColorText@ioMission@@V?$allocator@UColorText@ioMission@@@std@@@std@@V?$allocator@V?$vector@UColorText@ioMission@@V?$allocator@UColorText@ioMission@@@std@@@std@@@2@@std@@@std@@QAE@PAV?$vector@UColorText@ioMission@@V?$allocator@UColorText@ioMission@@@std@@@1@PBU_Container_base0@1@@Z
_TEXT	SEGMENT
__Parg$ = 8						; size = 4
__Pvector$ = 12						; size = 4
??0?$_Vector_const_iterator@V?$_Vector_val@V?$vector@UColorText@ioMission@@V?$allocator@UColorText@ioMission@@@std@@@std@@V?$allocator@V?$vector@UColorText@ioMission@@V?$allocator@UColorText@ioMission@@@std@@@std@@@2@@std@@@std@@QAE@PAV?$vector@UColorText@ioMission@@V?$allocator@UColorText@ioMission@@@std@@@1@PBU_Container_base0@1@@Z PROC ; std::_Vector_const_iterator<std::_Vector_val<std::vector<ioMission::ColorText,std::allocator<ioMission::ColorText> >,std::allocator<std::vector<ioMission::ColorText,std::allocator<ioMission::ColorText> > > > >::_Vector_const_iterator<std::_Vector_val<std::vector<ioMission::ColorText,std::allocator<ioMission::ColorText> >,std::allocator<std::vector<ioMission::ColorText,std::allocator<ioMission::ColorText> > > > >, COMDAT
; _this$ = ecx

; 45   : 		{	// construct with pointer _Parg

  00000	55		 push	 ebp
  00001	8b ec		 mov	 ebp, esp
  00003	8b c1		 mov	 eax, ecx
  00005	8b 4d 08	 mov	 ecx, DWORD PTR __Parg$[ebp]
  00008	89 08		 mov	 DWORD PTR [eax], ecx

; 46   : 		this->_Adopt(_Pvector);
; 47   : 		}

  0000a	5d		 pop	 ebp
  0000b	c2 08 00	 ret	 8
??0?$_Vector_const_iterator@V?$_Vector_val@V?$vector@UColorText@ioMission@@V?$allocator@UColorText@ioMission@@@std@@@std@@V?$allocator@V?$vector@UColorText@ioMission@@V?$allocator@UColorText@ioMission@@@std@@@std@@@2@@std@@@std@@QAE@PAV?$vector@UColorText@ioMission@@V?$allocator@UColorText@ioMission@@@std@@@1@PBU_Container_base0@1@@Z ENDP ; std::_Vector_const_iterator<std::_Vector_val<std::vector<ioMission::ColorText,std::allocator<ioMission::ColorText> >,std::allocator<std::vector<ioMission::ColorText,std::allocator<ioMission::ColorText> > > > >::_Vector_const_iterator<std::_Vector_val<std::vector<ioMission::ColorText,std::allocator<ioMission::ColorText> >,std::allocator<std::vector<ioMission::ColorText,std::allocator<ioMission::ColorText> > > > >
_TEXT	ENDS
PUBLIC	?max_size@?$allocator@V?$basic_string@DU?$char_traits@D@std@@V?$allocator@D@2@@std@@@std@@QBEIXZ ; std::allocator<std::basic_string<char,std::char_traits<char>,std::allocator<char> > >::max_size
; Function compile flags: /Ogsp
; File c:\program files (x86)\microsoft visual studio 10.0\vc\include\xmemory
;	COMDAT ?max_size@?$allocator@V?$basic_string@DU?$char_traits@D@std@@V?$allocator@D@2@@std@@@std@@QBEIXZ
_TEXT	SEGMENT
?max_size@?$allocator@V?$basic_string@DU?$char_traits@D@std@@V?$allocator@D@2@@std@@@std@@QBEIXZ PROC ; std::allocator<std::basic_string<char,std::char_traits<char>,std::allocator<char> > >::max_size, COMDAT
; _this$ = ecx

; 218  : 		_SIZT _Count = (_SIZT)(-1) / sizeof (_Ty);
; 219  : 		return (0 < _Count ? _Count : 1);

  00000	b8 49 92 24 09	 mov	 eax, 153391689		; 09249249H

; 220  : 		}

  00005	c3		 ret	 0
?max_size@?$allocator@V?$basic_string@DU?$char_traits@D@std@@V?$allocator@D@2@@std@@@std@@QBEIXZ ENDP ; std::allocator<std::basic_string<char,std::char_traits<char>,std::allocator<char> > >::max_size
_TEXT	ENDS
PUBLIC	?max_size@?$allocator@V?$vector@UColorText@ioMission@@V?$allocator@UColorText@ioMission@@@std@@@std@@@std@@QBEIXZ ; std::allocator<std::vector<ioMission::ColorText,std::allocator<ioMission::ColorText> > >::max_size
; Function compile flags: /Ogsp
;	COMDAT ?max_size@?$allocator@V?$vector@UColorText@ioMission@@V?$allocator@UColorText@ioMission@@@std@@@std@@@std@@QBEIXZ
_TEXT	SEGMENT
?max_size@?$allocator@V?$vector@UColorText@ioMission@@V?$allocator@UColorText@ioMission@@@std@@@std@@@std@@QBEIXZ PROC ; std::allocator<std::vector<ioMission::ColorText,std::allocator<ioMission::ColorText> > >::max_size, COMDAT
; _this$ = ecx

; 218  : 		_SIZT _Count = (_SIZT)(-1) / sizeof (_Ty);
; 219  : 		return (0 < _Count ? _Count : 1);

  00000	b8 ff ff ff 0f	 mov	 eax, 268435455		; 0fffffffH

; 220  : 		}

  00005	c3		 ret	 0
?max_size@?$allocator@V?$vector@UColorText@ioMission@@V?$allocator@UColorText@ioMission@@@std@@@std@@@std@@QBEIXZ ENDP ; std::allocator<std::vector<ioMission::ColorText,std::allocator<ioMission::ColorText> > >::max_size
_TEXT	ENDS
PUBLIC	?max_size@?$allocator@UColorText@ioMission@@@std@@QBEIXZ ; std::allocator<ioMission::ColorText>::max_size
; Function compile flags: /Ogsp
;	COMDAT ?max_size@?$allocator@UColorText@ioMission@@@std@@QBEIXZ
_TEXT	SEGMENT
?max_size@?$allocator@UColorText@ioMission@@@std@@QBEIXZ PROC ; std::allocator<ioMission::ColorText>::max_size, COMDAT
; _this$ = ecx

; 218  : 		_SIZT _Count = (_SIZT)(-1) / sizeof (_Ty);
; 219  : 		return (0 < _Count ? _Count : 1);

  00000	b8 cc cc cc 0c	 mov	 eax, 214748364		; 0cccccccH

; 220  : 		}

  00005	c3		 ret	 0
?max_size@?$allocator@UColorText@ioMission@@@std@@QBEIXZ ENDP ; std::allocator<ioMission::ColorText>::max_size
_TEXT	ENDS
PUBLIC	??$sprintf_s@$0BAE@@@YAHAAY0BAE@DPBDZZ		; sprintf_s<260>
EXTRN	__imp__vsprintf_s:PROC
; Function compile flags: /Ogsp
; File c:\program files (x86)\microsoft visual studio 10.0\vc\include\stdio.h
;	COMDAT ??$sprintf_s@$0BAE@@@YAHAAY0BAE@DPBDZZ
_TEXT	SEGMENT
__Dest$ = 8						; size = 4
__Format$ = 12						; size = 4
??$sprintf_s@$0BAE@@@YAHAAY0BAE@DPBDZZ PROC		; sprintf_s<260>, COMDAT

; 323  : __DEFINE_CPP_OVERLOAD_SECURE_FUNC_0_1_ARGLIST(int, sprintf_s, vsprintf_s, _Deref_post_z_ char, _Dest, _In_z_ _Printf_format_string_ const char *, _Format)

  00000	55		 push	 ebp
  00001	8b ec		 mov	 ebp, esp
  00003	8d 45 10	 lea	 eax, DWORD PTR __Format$[ebp+4]
  00006	50		 push	 eax
  00007	ff 75 0c	 push	 DWORD PTR __Format$[ebp]
  0000a	68 04 01 00 00	 push	 260			; 00000104H
  0000f	ff 75 08	 push	 DWORD PTR __Dest$[ebp]
  00012	ff 15 00 00 00
	00		 call	 DWORD PTR __imp__vsprintf_s
  00018	83 c4 10	 add	 esp, 16			; 00000010H
  0001b	5d		 pop	 ebp
  0001c	c3		 ret	 0
??$sprintf_s@$0BAE@@@YAHAAY0BAE@DPBDZZ ENDP		; sprintf_s<260>
_TEXT	ENDS
PUBLIC	??$addressof@$$CBVioHashString@@@std@@YAPBVioHashString@@ABV1@@Z ; std::addressof<ioHashString const >
; Function compile flags: /Ogsp
; File c:\program files (x86)\microsoft visual studio 10.0\vc\include\xmemory
;	COMDAT ??$addressof@$$CBVioHashString@@@std@@YAPBVioHashString@@ABV1@@Z
_TEXT	SEGMENT
__Val$ = 8						; size = 4
??$addressof@$$CBVioHashString@@@std@@YAPBVioHashString@@ABV1@@Z PROC ; std::addressof<ioHashString const >, COMDAT

; 110  : 	{	// return address of _Val

  00000	55		 push	 ebp
  00001	8b ec		 mov	 ebp, esp

; 111  : 	return ((_Ty *) &(char&)_Val);

  00003	8b 45 08	 mov	 eax, DWORD PTR __Val$[ebp]

; 112  : 	}

  00006	5d		 pop	 ebp
  00007	c3		 ret	 0
??$addressof@$$CBVioHashString@@@std@@YAPBVioHashString@@ABV1@@Z ENDP ; std::addressof<ioHashString const >
_TEXT	ENDS
PUBLIC	??$addressof@$$CBV?$vector@UColorText@ioMission@@V?$allocator@UColorText@ioMission@@@std@@@std@@@std@@YAPBV?$vector@UColorText@ioMission@@V?$allocator@UColorText@ioMission@@@std@@@0@ABV10@@Z ; std::addressof<std::vector<ioMission::ColorText,std::allocator<ioMission::ColorText> > const >
; Function compile flags: /Ogsp
;	COMDAT ??$addressof@$$CBV?$vector@UColorText@ioMission@@V?$allocator@UColorText@ioMission@@@std@@@std@@@std@@YAPBV?$vector@UColorText@ioMission@@V?$allocator@UColorText@ioMission@@@std@@@0@ABV10@@Z
_TEXT	SEGMENT
__Val$ = 8						; size = 4
??$addressof@$$CBV?$vector@UColorText@ioMission@@V?$allocator@UColorText@ioMission@@@std@@@std@@@std@@YAPBV?$vector@UColorText@ioMission@@V?$allocator@UColorText@ioMission@@@std@@@0@ABV10@@Z PROC ; std::addressof<std::vector<ioMission::ColorText,std::allocator<ioMission::ColorText> > const >, COMDAT

; 110  : 	{	// return address of _Val

  00000	55		 push	 ebp
  00001	8b ec		 mov	 ebp, esp

; 111  : 	return ((_Ty *) &(char&)_Val);

  00003	8b 45 08	 mov	 eax, DWORD PTR __Val$[ebp]

; 112  : 	}

  00006	5d		 pop	 ebp
  00007	c3		 ret	 0
??$addressof@$$CBV?$vector@UColorText@ioMission@@V?$allocator@UColorText@ioMission@@@std@@@std@@@std@@YAPBV?$vector@UColorText@ioMission@@V?$allocator@UColorText@ioMission@@@std@@@0@ABV10@@Z ENDP ; std::addressof<std::vector<ioMission::ColorText,std::allocator<ioMission::ColorText> > const >
_TEXT	ENDS
PUBLIC	??$addressof@$$CBUColorText@ioMission@@@std@@YAPBUColorText@ioMission@@ABU12@@Z ; std::addressof<ioMission::ColorText const >
; Function compile flags: /Ogsp
;	COMDAT ??$addressof@$$CBUColorText@ioMission@@@std@@YAPBUColorText@ioMission@@ABU12@@Z
_TEXT	SEGMENT
__Val$ = 8						; size = 4
??$addressof@$$CBUColorText@ioMission@@@std@@YAPBUColorText@ioMission@@ABU12@@Z PROC ; std::addressof<ioMission::ColorText const >, COMDAT

; 110  : 	{	// return address of _Val

  00000	55		 push	 ebp
  00001	8b ec		 mov	 ebp, esp

; 111  : 	return ((_Ty *) &(char&)_Val);

  00003	8b 45 08	 mov	 eax, DWORD PTR __Val$[ebp]

; 112  : 	}

  00006	5d		 pop	 ebp
  00007	c3		 ret	 0
??$addressof@$$CBUColorText@ioMission@@@std@@YAPBUColorText@ioMission@@ABU12@@Z ENDP ; std::addressof<ioMission::ColorText const >
_TEXT	ENDS
PUBLIC	__TI2?AVbad_alloc@std@@
PUBLIC	??$_Allocate@V?$basic_string@DU?$char_traits@D@std@@V?$allocator@D@2@@std@@@std@@YAPAV?$basic_string@DU?$char_traits@D@std@@V?$allocator@D@2@@0@IPAV10@@Z ; std::_Allocate<std::basic_string<char,std::char_traits<char>,std::allocator<char> > >
PUBLIC	__CTA2?AVbad_alloc@std@@
PUBLIC	__CT??_R0?AVbad_alloc@std@@@8??0bad_alloc@std@@QAE@ABV01@@Z12
PUBLIC	??0bad_alloc@std@@QAE@ABV01@@Z			; std::bad_alloc::bad_alloc
PUBLIC	__CT??_R0?AVexception@std@@@8??0exception@std@@QAE@ABV01@@Z12
EXTRN	??2@YAPAXI@Z:PROC				; operator new
EXTRN	__CxxThrowException@8:PROC
EXTRN	??0exception@std@@QAE@ABV01@@Z:PROC		; std::exception::exception
;	COMDAT __CT??_R0?AVexception@std@@@8??0exception@std@@QAE@ABV01@@Z12
; File c:\program files (x86)\microsoft visual studio 10.0\vc\include\exception
xdata$x	SEGMENT
__CT??_R0?AVexception@std@@@8??0exception@std@@QAE@ABV01@@Z12 DD 00H
	DD	FLAT:??_R0?AVexception@std@@@8
	DD	00H
	DD	0ffffffffH
	ORG $+4
	DD	0cH
	DD	FLAT:??0exception@std@@QAE@ABV01@@Z
xdata$x	ENDS
;	COMDAT __CT??_R0?AVbad_alloc@std@@@8??0bad_alloc@std@@QAE@ABV01@@Z12
xdata$x	SEGMENT
__CT??_R0?AVbad_alloc@std@@@8??0bad_alloc@std@@QAE@ABV01@@Z12 DD 00H
	DD	FLAT:??_R0?AVbad_alloc@std@@@8
	DD	00H
	DD	0ffffffffH
	ORG $+4
	DD	0cH
	DD	FLAT:??0bad_alloc@std@@QAE@ABV01@@Z
xdata$x	ENDS
;	COMDAT __CTA2?AVbad_alloc@std@@
xdata$x	SEGMENT
__CTA2?AVbad_alloc@std@@ DD 02H
	DD	FLAT:__CT??_R0?AVbad_alloc@std@@@8??0bad_alloc@std@@QAE@ABV01@@Z12
	DD	FLAT:__CT??_R0?AVexception@std@@@8??0exception@std@@QAE@ABV01@@Z12
xdata$x	ENDS
;	COMDAT __TI2?AVbad_alloc@std@@
xdata$x	SEGMENT
__TI2?AVbad_alloc@std@@ DD 00H
	DD	FLAT:??1bad_alloc@std@@UAE@XZ
	DD	00H
	DD	FLAT:__CTA2?AVbad_alloc@std@@
; Function compile flags: /Ogsp
; File c:\program files (x86)\microsoft visual studio 10.0\vc\include\xmemory
xdata$x	ENDS
;	COMDAT ??$_Allocate@V?$basic_string@DU?$char_traits@D@std@@V?$allocator@D@2@@std@@@std@@YAPAV?$basic_string@DU?$char_traits@D@std@@V?$allocator@D@2@@0@IPAV10@@Z
_TEXT	SEGMENT
$T511975 = -12						; size = 12
$T511980 = 8						; size = 4
__Count$ = 8						; size = 4
___formal$ = 12						; size = 4
??$_Allocate@V?$basic_string@DU?$char_traits@D@std@@V?$allocator@D@2@@std@@@std@@YAPAV?$basic_string@DU?$char_traits@D@std@@V?$allocator@D@2@@0@IPAV10@@Z PROC ; std::_Allocate<std::basic_string<char,std::char_traits<char>,std::allocator<char> > >, COMDAT

; 30   : 	{	// allocate storage for _Count elements of type _Ty

  00000	55		 push	 ebp
  00001	8b ec		 mov	 ebp, esp

; 31   : 	void *_Ptr = 0;
; 32   : 
; 33   : 	if (_Count <= 0)

  00003	8b 4d 08	 mov	 ecx, DWORD PTR __Count$[ebp]
  00006	83 ec 0c	 sub	 esp, 12			; 0000000cH
  00009	33 c0		 xor	 eax, eax
  0000b	85 c9		 test	 ecx, ecx

; 34   : 		_Count = 0;
; 35   : 	else if (((_SIZT)(-1) / sizeof (_Ty) < _Count)

  0000d	74 3c		 je	 SHORT $LN5@Allocate

; 36   : 		|| (_Ptr = ::operator new(_Count * sizeof (_Ty))) == 0)

  0000f	81 f9 49 92 24
	09		 cmp	 ecx, 153391689		; 09249249H
  00015	77 0e		 ja	 SHORT $LN1@Allocate
  00017	6b c9 1c	 imul	 ecx, 28			; 0000001cH
  0001a	51		 push	 ecx
  0001b	e8 00 00 00 00	 call	 ??2@YAPAXI@Z		; operator new
  00020	59		 pop	 ecx
  00021	85 c0		 test	 eax, eax

; 38   : 
; 39   : 	return ((_Ty _FARQ *)_Ptr);

  00023	75 26		 jne	 SHORT $LN5@Allocate
$LN1@Allocate:

; 37   : 		_THROW_NCEE(bad_alloc, 0);

  00025	83 65 08 00	 and	 DWORD PTR $T511980[ebp], 0
  00029	8d 45 08	 lea	 eax, DWORD PTR $T511980[ebp]
  0002c	50		 push	 eax
  0002d	8d 4d f4	 lea	 ecx, DWORD PTR $T511975[ebp]
  00030	ff 15 00 00 00
	00		 call	 DWORD PTR __imp_??0exception@std@@QAE@ABQBD@Z
  00036	68 00 00 00 00	 push	 OFFSET __TI2?AVbad_alloc@std@@
  0003b	8d 45 f4	 lea	 eax, DWORD PTR $T511975[ebp]
  0003e	50		 push	 eax
  0003f	c7 45 f4 00 00
	00 00		 mov	 DWORD PTR $T511975[ebp], OFFSET ??_7bad_alloc@std@@6B@
  00046	e8 00 00 00 00	 call	 __CxxThrowException@8
$LN10@Allocate:
$LN5@Allocate:

; 40   : 	}

  0004b	c9		 leave
  0004c	c3		 ret	 0
$LN9@Allocate:
??$_Allocate@V?$basic_string@DU?$char_traits@D@std@@V?$allocator@D@2@@std@@@std@@YAPAV?$basic_string@DU?$char_traits@D@std@@V?$allocator@D@2@@0@IPAV10@@Z ENDP ; std::_Allocate<std::basic_string<char,std::char_traits<char>,std::allocator<char> > >
_TEXT	ENDS
PUBLIC	??$_Allocate@V?$vector@UColorText@ioMission@@V?$allocator@UColorText@ioMission@@@std@@@std@@@std@@YAPAV?$vector@UColorText@ioMission@@V?$allocator@UColorText@ioMission@@@std@@@0@IPAV10@@Z ; std::_Allocate<std::vector<ioMission::ColorText,std::allocator<ioMission::ColorText> > >
; Function compile flags: /Ogsp
;	COMDAT ??$_Allocate@V?$vector@UColorText@ioMission@@V?$allocator@UColorText@ioMission@@@std@@@std@@@std@@YAPAV?$vector@UColorText@ioMission@@V?$allocator@UColorText@ioMission@@@std@@@0@IPAV10@@Z
_TEXT	SEGMENT
$T511985 = -12						; size = 12
$T511989 = 8						; size = 4
__Count$ = 8						; size = 4
___formal$ = 12						; size = 4
??$_Allocate@V?$vector@UColorText@ioMission@@V?$allocator@UColorText@ioMission@@@std@@@std@@@std@@YAPAV?$vector@UColorText@ioMission@@V?$allocator@UColorText@ioMission@@@std@@@0@IPAV10@@Z PROC ; std::_Allocate<std::vector<ioMission::ColorText,std::allocator<ioMission::ColorText> > >, COMDAT

; 30   : 	{	// allocate storage for _Count elements of type _Ty

  00000	55		 push	 ebp
  00001	8b ec		 mov	 ebp, esp

; 31   : 	void *_Ptr = 0;
; 32   : 
; 33   : 	if (_Count <= 0)

  00003	8b 4d 08	 mov	 ecx, DWORD PTR __Count$[ebp]
  00006	83 ec 0c	 sub	 esp, 12			; 0000000cH
  00009	33 c0		 xor	 eax, eax
  0000b	85 c9		 test	 ecx, ecx

; 34   : 		_Count = 0;
; 35   : 	else if (((_SIZT)(-1) / sizeof (_Ty) < _Count)

  0000d	74 3c		 je	 SHORT $LN5@Allocate@2

; 36   : 		|| (_Ptr = ::operator new(_Count * sizeof (_Ty))) == 0)

  0000f	81 f9 ff ff ff
	0f		 cmp	 ecx, 268435455		; 0fffffffH
  00015	77 0e		 ja	 SHORT $LN1@Allocate@2
  00017	c1 e1 04	 shl	 ecx, 4
  0001a	51		 push	 ecx
  0001b	e8 00 00 00 00	 call	 ??2@YAPAXI@Z		; operator new
  00020	59		 pop	 ecx
  00021	85 c0		 test	 eax, eax

; 38   : 
; 39   : 	return ((_Ty _FARQ *)_Ptr);

  00023	75 26		 jne	 SHORT $LN5@Allocate@2
$LN1@Allocate@2:

; 37   : 		_THROW_NCEE(bad_alloc, 0);

  00025	83 65 08 00	 and	 DWORD PTR $T511989[ebp], 0
  00029	8d 45 08	 lea	 eax, DWORD PTR $T511989[ebp]
  0002c	50		 push	 eax
  0002d	8d 4d f4	 lea	 ecx, DWORD PTR $T511985[ebp]
  00030	ff 15 00 00 00
	00		 call	 DWORD PTR __imp_??0exception@std@@QAE@ABQBD@Z
  00036	68 00 00 00 00	 push	 OFFSET __TI2?AVbad_alloc@std@@
  0003b	8d 45 f4	 lea	 eax, DWORD PTR $T511985[ebp]
  0003e	50		 push	 eax
  0003f	c7 45 f4 00 00
	00 00		 mov	 DWORD PTR $T511985[ebp], OFFSET ??_7bad_alloc@std@@6B@
  00046	e8 00 00 00 00	 call	 __CxxThrowException@8
$LN10@Allocate@2:
$LN5@Allocate@2:

; 40   : 	}

  0004b	c9		 leave
  0004c	c3		 ret	 0
$LN9@Allocate@2:
??$_Allocate@V?$vector@UColorText@ioMission@@V?$allocator@UColorText@ioMission@@@std@@@std@@@std@@YAPAV?$vector@UColorText@ioMission@@V?$allocator@UColorText@ioMission@@@std@@@0@IPAV10@@Z ENDP ; std::_Allocate<std::vector<ioMission::ColorText,std::allocator<ioMission::ColorText> > >
_TEXT	ENDS
PUBLIC	??$_Allocate@UColorText@ioMission@@@std@@YAPAUColorText@ioMission@@IPAU12@@Z ; std::_Allocate<ioMission::ColorText>
; Function compile flags: /Ogsp
;	COMDAT ??$_Allocate@UColorText@ioMission@@@std@@YAPAUColorText@ioMission@@IPAU12@@Z
_TEXT	SEGMENT
$T511994 = -12						; size = 12
$T511998 = 8						; size = 4
__Count$ = 8						; size = 4
___formal$ = 12						; size = 4
??$_Allocate@UColorText@ioMission@@@std@@YAPAUColorText@ioMission@@IPAU12@@Z PROC ; std::_Allocate<ioMission::ColorText>, COMDAT

; 30   : 	{	// allocate storage for _Count elements of type _Ty

  00000	55		 push	 ebp
  00001	8b ec		 mov	 ebp, esp

; 31   : 	void *_Ptr = 0;
; 32   : 
; 33   : 	if (_Count <= 0)

  00003	8b 4d 08	 mov	 ecx, DWORD PTR __Count$[ebp]
  00006	83 ec 0c	 sub	 esp, 12			; 0000000cH
  00009	33 c0		 xor	 eax, eax
  0000b	85 c9		 test	 ecx, ecx

; 34   : 		_Count = 0;
; 35   : 	else if (((_SIZT)(-1) / sizeof (_Ty) < _Count)

  0000d	74 3c		 je	 SHORT $LN5@Allocate@3

; 36   : 		|| (_Ptr = ::operator new(_Count * sizeof (_Ty))) == 0)

  0000f	81 f9 cc cc cc
	0c		 cmp	 ecx, 214748364		; 0cccccccH
  00015	77 0e		 ja	 SHORT $LN1@Allocate@3
  00017	6b c9 14	 imul	 ecx, 20			; 00000014H
  0001a	51		 push	 ecx
  0001b	e8 00 00 00 00	 call	 ??2@YAPAXI@Z		; operator new
  00020	59		 pop	 ecx
  00021	85 c0		 test	 eax, eax

; 38   : 
; 39   : 	return ((_Ty _FARQ *)_Ptr);

  00023	75 26		 jne	 SHORT $LN5@Allocate@3
$LN1@Allocate@3:

; 37   : 		_THROW_NCEE(bad_alloc, 0);

  00025	83 65 08 00	 and	 DWORD PTR $T511998[ebp], 0
  00029	8d 45 08	 lea	 eax, DWORD PTR $T511998[ebp]
  0002c	50		 push	 eax
  0002d	8d 4d f4	 lea	 ecx, DWORD PTR $T511994[ebp]
  00030	ff 15 00 00 00
	00		 call	 DWORD PTR __imp_??0exception@std@@QAE@ABQBD@Z
  00036	68 00 00 00 00	 push	 OFFSET __TI2?AVbad_alloc@std@@
  0003b	8d 45 f4	 lea	 eax, DWORD PTR $T511994[ebp]
  0003e	50		 push	 eax
  0003f	c7 45 f4 00 00
	00 00		 mov	 DWORD PTR $T511994[ebp], OFFSET ??_7bad_alloc@std@@6B@
  00046	e8 00 00 00 00	 call	 __CxxThrowException@8
$LN10@Allocate@3:
$LN5@Allocate@3:

; 40   : 	}

  0004b	c9		 leave
  0004c	c3		 ret	 0
$LN9@Allocate@3:
??$_Allocate@UColorText@ioMission@@@std@@YAPAUColorText@ioMission@@IPAU12@@Z ENDP ; std::_Allocate<ioMission::ColorText>
_TEXT	ENDS
PUBLIC	??$forward@AAV?$vector@UColorText@ioMission@@V?$allocator@UColorText@ioMission@@@std@@@std@@@std@@YAAAV?$vector@UColorText@ioMission@@V?$allocator@UColorText@ioMission@@@std@@@0@AAV10@@Z ; std::forward<std::vector<ioMission::ColorText,std::allocator<ioMission::ColorText> > &>
; Function compile flags: /Ogsp
; File c:\program files (x86)\microsoft visual studio 10.0\vc\include\utility
;	COMDAT ??$forward@AAV?$vector@UColorText@ioMission@@V?$allocator@UColorText@ioMission@@@std@@@std@@@std@@YAAAV?$vector@UColorText@ioMission@@V?$allocator@UColorText@ioMission@@@std@@@0@AAV10@@Z
_TEXT	SEGMENT
__Arg$ = 8						; size = 4
??$forward@AAV?$vector@UColorText@ioMission@@V?$allocator@UColorText@ioMission@@@std@@@std@@@std@@YAAAV?$vector@UColorText@ioMission@@V?$allocator@UColorText@ioMission@@@std@@@0@AAV10@@Z PROC ; std::forward<std::vector<ioMission::ColorText,std::allocator<ioMission::ColorText> > &>, COMDAT

; 78   : 	{	// forward _Arg, given explicitly specified type parameter

  00000	55		 push	 ebp
  00001	8b ec		 mov	 ebp, esp

; 79   : 	return ((_Ty&&)_Arg);

  00003	8b 45 08	 mov	 eax, DWORD PTR __Arg$[ebp]

; 80   : 	}

  00006	5d		 pop	 ebp
  00007	c3		 ret	 0
??$forward@AAV?$vector@UColorText@ioMission@@V?$allocator@UColorText@ioMission@@@std@@@std@@@std@@YAAAV?$vector@UColorText@ioMission@@V?$allocator@UColorText@ioMission@@@std@@@0@AAV10@@Z ENDP ; std::forward<std::vector<ioMission::ColorText,std::allocator<ioMission::ColorText> > &>
_TEXT	ENDS
PUBLIC	??$forward@ABV?$vector@UColorText@ioMission@@V?$allocator@UColorText@ioMission@@@std@@@std@@@std@@YAABV?$vector@UColorText@ioMission@@V?$allocator@UColorText@ioMission@@@std@@@0@ABV10@@Z ; std::forward<std::vector<ioMission::ColorText,std::allocator<ioMission::ColorText> > const &>
; Function compile flags: /Ogsp
;	COMDAT ??$forward@ABV?$vector@UColorText@ioMission@@V?$allocator@UColorText@ioMission@@@std@@@std@@@std@@YAABV?$vector@UColorText@ioMission@@V?$allocator@UColorText@ioMission@@@std@@@0@ABV10@@Z
_TEXT	SEGMENT
__Arg$ = 8						; size = 4
??$forward@ABV?$vector@UColorText@ioMission@@V?$allocator@UColorText@ioMission@@@std@@@std@@@std@@YAABV?$vector@UColorText@ioMission@@V?$allocator@UColorText@ioMission@@@std@@@0@ABV10@@Z PROC ; std::forward<std::vector<ioMission::ColorText,std::allocator<ioMission::ColorText> > const &>, COMDAT

; 78   : 	{	// forward _Arg, given explicitly specified type parameter

  00000	55		 push	 ebp
  00001	8b ec		 mov	 ebp, esp

; 79   : 	return ((_Ty&&)_Arg);

  00003	8b 45 08	 mov	 eax, DWORD PTR __Arg$[ebp]

; 80   : 	}

  00006	5d		 pop	 ebp
  00007	c3		 ret	 0
??$forward@ABV?$vector@UColorText@ioMission@@V?$allocator@UColorText@ioMission@@@std@@@std@@@std@@YAABV?$vector@UColorText@ioMission@@V?$allocator@UColorText@ioMission@@@std@@@0@ABV10@@Z ENDP ; std::forward<std::vector<ioMission::ColorText,std::allocator<ioMission::ColorText> > const &>
_TEXT	ENDS
PUBLIC	??$forward@AAUColorText@ioMission@@@std@@YAAAUColorText@ioMission@@AAU12@@Z ; std::forward<ioMission::ColorText &>
; Function compile flags: /Ogsp
;	COMDAT ??$forward@AAUColorText@ioMission@@@std@@YAAAUColorText@ioMission@@AAU12@@Z
_TEXT	SEGMENT
__Arg$ = 8						; size = 4
??$forward@AAUColorText@ioMission@@@std@@YAAAUColorText@ioMission@@AAU12@@Z PROC ; std::forward<ioMission::ColorText &>, COMDAT

; 78   : 	{	// forward _Arg, given explicitly specified type parameter

  00000	55		 push	 ebp
  00001	8b ec		 mov	 ebp, esp

; 79   : 	return ((_Ty&&)_Arg);

  00003	8b 45 08	 mov	 eax, DWORD PTR __Arg$[ebp]

; 80   : 	}

  00006	5d		 pop	 ebp
  00007	c3		 ret	 0
??$forward@AAUColorText@ioMission@@@std@@YAAAUColorText@ioMission@@AAU12@@Z ENDP ; std::forward<ioMission::ColorText &>
_TEXT	ENDS
PUBLIC	??$forward@ABUColorText@ioMission@@@std@@YAABUColorText@ioMission@@ABU12@@Z ; std::forward<ioMission::ColorText const &>
; Function compile flags: /Ogsp
;	COMDAT ??$forward@ABUColorText@ioMission@@@std@@YAABUColorText@ioMission@@ABU12@@Z
_TEXT	SEGMENT
__Arg$ = 8						; size = 4
??$forward@ABUColorText@ioMission@@@std@@YAABUColorText@ioMission@@ABU12@@Z PROC ; std::forward<ioMission::ColorText const &>, COMDAT

; 78   : 	{	// forward _Arg, given explicitly specified type parameter

  00000	55		 push	 ebp
  00001	8b ec		 mov	 ebp, esp

; 79   : 	return ((_Ty&&)_Arg);

  00003	8b 45 08	 mov	 eax, DWORD PTR __Arg$[ebp]

; 80   : 	}

  00006	5d		 pop	 ebp
  00007	c3		 ret	 0
??$forward@ABUColorText@ioMission@@@std@@YAABUColorText@ioMission@@ABU12@@Z ENDP ; std::forward<ioMission::ColorText const &>
_TEXT	ENDS
PUBLIC	??$_Ptr_cat@V?$vector@UColorText@ioMission@@V?$allocator@UColorText@ioMission@@@std@@@std@@V12@@std@@YA?AU_Nonscalar_ptr_iterator_tag@0@PAV?$vector@UColorText@ioMission@@V?$allocator@UColorText@ioMission@@@std@@@0@0@Z ; std::_Ptr_cat<std::vector<ioMission::ColorText,std::allocator<ioMission::ColorText> >,std::vector<ioMission::ColorText,std::allocator<ioMission::ColorText> > >
; Function compile flags: /Ogsp
; File c:\program files (x86)\microsoft visual studio 10.0\vc\include\xutility
;	COMDAT ??$_Ptr_cat@V?$vector@UColorText@ioMission@@V?$allocator@UColorText@ioMission@@@std@@@std@@V12@@std@@YA?AU_Nonscalar_ptr_iterator_tag@0@PAV?$vector@UColorText@ioMission@@V?$allocator@UColorText@ioMission@@@std@@@0@0@Z
_TEXT	SEGMENT
__Cat$ = -1						; size = 1
___formal$ = 8						; size = 4
___formal$ = 12						; size = 4
??$_Ptr_cat@V?$vector@UColorText@ioMission@@V?$allocator@UColorText@ioMission@@@std@@@std@@V12@@std@@YA?AU_Nonscalar_ptr_iterator_tag@0@PAV?$vector@UColorText@ioMission@@V?$allocator@UColorText@ioMission@@@std@@@0@0@Z PROC ; std::_Ptr_cat<std::vector<ioMission::ColorText,std::allocator<ioMission::ColorText> >,std::vector<ioMission::ColorText,std::allocator<ioMission::ColorText> > >, COMDAT

; 516  : 	{	// return pointer category from pointers

  00000	55		 push	 ebp
  00001	8b ec		 mov	 ebp, esp
  00003	51		 push	 ecx

; 517  : 	typename _Ptr_cat_helper<_Elem1, _Elem2>::_Type _Cat;
; 518  : 	return (_Cat);

  00004	8a 45 ff	 mov	 al, BYTE PTR __Cat$[ebp]

; 519  : 	}

  00007	c9		 leave
  00008	c3		 ret	 0
??$_Ptr_cat@V?$vector@UColorText@ioMission@@V?$allocator@UColorText@ioMission@@@std@@@std@@V12@@std@@YA?AU_Nonscalar_ptr_iterator_tag@0@PAV?$vector@UColorText@ioMission@@V?$allocator@UColorText@ioMission@@@std@@@0@0@Z ENDP ; std::_Ptr_cat<std::vector<ioMission::ColorText,std::allocator<ioMission::ColorText> >,std::vector<ioMission::ColorText,std::allocator<ioMission::ColorText> > >
_TEXT	ENDS
PUBLIC	??$_Ptr_cat@UColorText@ioMission@@U12@@std@@YA?AU_Nonscalar_ptr_iterator_tag@0@PAUColorText@ioMission@@0@Z ; std::_Ptr_cat<ioMission::ColorText,ioMission::ColorText>
; Function compile flags: /Ogsp
;	COMDAT ??$_Ptr_cat@UColorText@ioMission@@U12@@std@@YA?AU_Nonscalar_ptr_iterator_tag@0@PAUColorText@ioMission@@0@Z
_TEXT	SEGMENT
__Cat$ = -1						; size = 1
___formal$ = 8						; size = 4
___formal$ = 12						; size = 4
??$_Ptr_cat@UColorText@ioMission@@U12@@std@@YA?AU_Nonscalar_ptr_iterator_tag@0@PAUColorText@ioMission@@0@Z PROC ; std::_Ptr_cat<ioMission::ColorText,ioMission::ColorText>, COMDAT

; 516  : 	{	// return pointer category from pointers

  00000	55		 push	 ebp
  00001	8b ec		 mov	 ebp, esp
  00003	51		 push	 ecx

; 517  : 	typename _Ptr_cat_helper<_Elem1, _Elem2>::_Type _Cat;
; 518  : 	return (_Cat);

  00004	8a 45 ff	 mov	 al, BYTE PTR __Cat$[ebp]

; 519  : 	}

  00007	c9		 leave
  00008	c3		 ret	 0
??$_Ptr_cat@UColorText@ioMission@@U12@@std@@YA?AU_Nonscalar_ptr_iterator_tag@0@PAUColorText@ioMission@@0@Z ENDP ; std::_Ptr_cat<ioMission::ColorText,ioMission::ColorText>
_TEXT	ENDS
PUBLIC	??0ColorText@ioMission@@QAE@ABU01@@Z		; ioMission::ColorText::ColorText
EXTRN	__imp_??0ioHashString@@QAE@ABV0@@Z:PROC
; Function compile flags: /Ogsp
;	COMDAT ??0ColorText@ioMission@@QAE@ABU01@@Z
_TEXT	SEGMENT
___that$ = 8						; size = 4
??0ColorText@ioMission@@QAE@ABU01@@Z PROC		; ioMission::ColorText::ColorText, COMDAT
; _this$ = ecx
  00000	55		 push	 ebp
  00001	8b ec		 mov	 ebp, esp
  00003	8b 45 08	 mov	 eax, DWORD PTR ___that$[ebp]
  00006	56		 push	 esi
  00007	8b f1		 mov	 esi, ecx
  00009	8b 08		 mov	 ecx, DWORD PTR [eax]
  0000b	83 c0 04	 add	 eax, 4
  0000e	89 0e		 mov	 DWORD PTR [esi], ecx
  00010	50		 push	 eax
  00011	8d 4e 04	 lea	 ecx, DWORD PTR [esi+4]
  00014	ff 15 00 00 00
	00		 call	 DWORD PTR __imp_??0ioHashString@@QAE@ABV0@@Z
  0001a	8b c6		 mov	 eax, esi
  0001c	5e		 pop	 esi
  0001d	5d		 pop	 ebp
  0001e	c2 04 00	 ret	 4
??0ColorText@ioMission@@QAE@ABU01@@Z ENDP		; ioMission::ColorText::ColorText
_TEXT	ENDS
PUBLIC	??0?$_Vector_const_iterator@V?$_Vector_val@UColorText@ioMission@@V?$allocator@UColorText@ioMission@@@std@@@std@@@std@@QAE@PAUColorText@ioMission@@PBU_Container_base0@1@@Z ; std::_Vector_const_iterator<std::_Vector_val<ioMission::ColorText,std::allocator<ioMission::ColorText> > >::_Vector_const_iterator<std::_Vector_val<ioMission::ColorText,std::allocator<ioMission::ColorText> > >
; Function compile flags: /Ogsp
; File c:\program files (x86)\microsoft visual studio 10.0\vc\include\vector
;	COMDAT ??0?$_Vector_const_iterator@V?$_Vector_val@UColorText@ioMission@@V?$allocator@UColorText@ioMission@@@std@@@std@@@std@@QAE@PAUColorText@ioMission@@PBU_Container_base0@1@@Z
_TEXT	SEGMENT
__Parg$ = 8						; size = 4
__Pvector$ = 12						; size = 4
??0?$_Vector_const_iterator@V?$_Vector_val@UColorText@ioMission@@V?$allocator@UColorText@ioMission@@@std@@@std@@@std@@QAE@PAUColorText@ioMission@@PBU_Container_base0@1@@Z PROC ; std::_Vector_const_iterator<std::_Vector_val<ioMission::ColorText,std::allocator<ioMission::ColorText> > >::_Vector_const_iterator<std::_Vector_val<ioMission::ColorText,std::allocator<ioMission::ColorText> > >, COMDAT
; _this$ = ecx

; 45   : 		{	// construct with pointer _Parg

  00000	55		 push	 ebp
  00001	8b ec		 mov	 ebp, esp
  00003	8b c1		 mov	 eax, ecx
  00005	8b 4d 08	 mov	 ecx, DWORD PTR __Parg$[ebp]
  00008	89 08		 mov	 DWORD PTR [eax], ecx

; 46   : 		this->_Adopt(_Pvector);
; 47   : 		}

  0000a	5d		 pop	 ebp
  0000b	c2 08 00	 ret	 8
??0?$_Vector_const_iterator@V?$_Vector_val@UColorText@ioMission@@V?$allocator@UColorText@ioMission@@@std@@@std@@@std@@QAE@PAUColorText@ioMission@@PBU_Container_base0@1@@Z ENDP ; std::_Vector_const_iterator<std::_Vector_val<ioMission::ColorText,std::allocator<ioMission::ColorText> > >::_Vector_const_iterator<std::_Vector_val<ioMission::ColorText,std::allocator<ioMission::ColorText> > >
_TEXT	ENDS
PUBLIC	??$_Ptr_cat@V?$_Vector_const_iterator@V?$_Vector_val@V?$basic_string@DU?$char_traits@D@std@@V?$allocator@D@2@@std@@V?$allocator@V?$basic_string@DU?$char_traits@D@std@@V?$allocator@D@2@@std@@@2@@std@@@std@@PAV?$basic_string@DU?$char_traits@D@std@@V?$allocator@D@2@@2@@std@@YA?AU_Nonscalar_ptr_iterator_tag@0@AAV?$_Vector_const_iterator@V?$_Vector_val@V?$basic_string@DU?$char_traits@D@std@@V?$allocator@D@2@@std@@V?$allocator@V?$basic_string@DU?$char_traits@D@std@@V?$allocator@D@2@@std@@@2@@std@@@0@AAPAV?$basic_string@DU?$char_traits@D@std@@V?$allocator@D@2@@0@@Z ; std::_Ptr_cat<std::_Vector_const_iterator<std::_Vector_val<std::basic_string<char,std::char_traits<char>,std::allocator<char> >,std::allocator<std::basic_string<char,std::char_traits<char>,std::allocator<char> > > > >,std::basic_string<char,std::char_traits<char>,std::allocator<char> > *>
; Function compile flags: /Ogsp
; File c:\program files (x86)\microsoft visual studio 10.0\vc\include\xutility
;	COMDAT ??$_Ptr_cat@V?$_Vector_const_iterator@V?$_Vector_val@V?$basic_string@DU?$char_traits@D@std@@V?$allocator@D@2@@std@@V?$allocator@V?$basic_string@DU?$char_traits@D@std@@V?$allocator@D@2@@std@@@2@@std@@@std@@PAV?$basic_string@DU?$char_traits@D@std@@V?$allocator@D@2@@2@@std@@YA?AU_Nonscalar_ptr_iterator_tag@0@AAV?$_Vector_const_iterator@V?$_Vector_val@V?$basic_string@DU?$char_traits@D@std@@V?$allocator@D@2@@std@@V?$allocator@V?$basic_string@DU?$char_traits@D@std@@V?$allocator@D@2@@std@@@2@@std@@@0@AAPAV?$basic_string@DU?$char_traits@D@std@@V?$allocator@D@2@@0@@Z
_TEXT	SEGMENT
__Cat$ = -1						; size = 1
___formal$ = 8						; size = 4
___formal$ = 12						; size = 4
??$_Ptr_cat@V?$_Vector_const_iterator@V?$_Vector_val@V?$basic_string@DU?$char_traits@D@std@@V?$allocator@D@2@@std@@V?$allocator@V?$basic_string@DU?$char_traits@D@std@@V?$allocator@D@2@@std@@@2@@std@@@std@@PAV?$basic_string@DU?$char_traits@D@std@@V?$allocator@D@2@@2@@std@@YA?AU_Nonscalar_ptr_iterator_tag@0@AAV?$_Vector_const_iterator@V?$_Vector_val@V?$basic_string@DU?$char_traits@D@std@@V?$allocator@D@2@@std@@V?$allocator@V?$basic_string@DU?$char_traits@D@std@@V?$allocator@D@2@@std@@@2@@std@@@0@AAPAV?$basic_string@DU?$char_traits@D@std@@V?$allocator@D@2@@0@@Z PROC ; std::_Ptr_cat<std::_Vector_const_iterator<std::_Vector_val<std::basic_string<char,std::char_traits<char>,std::allocator<char> >,std::allocator<std::basic_string<char,std::char_traits<char>,std::allocator<char> > > > >,std::basic_string<char,std::char_traits<char>,std::allocator<char> > *>, COMDAT

; 485  : 	{	// return pointer category from arbitrary arguments

  00000	55		 push	 ebp
  00001	8b ec		 mov	 ebp, esp
  00003	51		 push	 ecx

; 486  : 	_Nonscalar_ptr_iterator_tag _Cat;
; 487  : 	return (_Cat);

  00004	8a 45 ff	 mov	 al, BYTE PTR __Cat$[ebp]

; 488  : 	}

  00007	c9		 leave
  00008	c3		 ret	 0
??$_Ptr_cat@V?$_Vector_const_iterator@V?$_Vector_val@V?$basic_string@DU?$char_traits@D@std@@V?$allocator@D@2@@std@@V?$allocator@V?$basic_string@DU?$char_traits@D@std@@V?$allocator@D@2@@std@@@2@@std@@@std@@PAV?$basic_string@DU?$char_traits@D@std@@V?$allocator@D@2@@2@@std@@YA?AU_Nonscalar_ptr_iterator_tag@0@AAV?$_Vector_const_iterator@V?$_Vector_val@V?$basic_string@DU?$char_traits@D@std@@V?$allocator@D@2@@std@@V?$allocator@V?$basic_string@DU?$char_traits@D@std@@V?$allocator@D@2@@std@@@2@@std@@@0@AAPAV?$basic_string@DU?$char_traits@D@std@@V?$allocator@D@2@@0@@Z ENDP ; std::_Ptr_cat<std::_Vector_const_iterator<std::_Vector_val<std::basic_string<char,std::char_traits<char>,std::allocator<char> >,std::allocator<std::basic_string<char,std::char_traits<char>,std::allocator<char> > > > >,std::basic_string<char,std::char_traits<char>,std::allocator<char> > *>
_TEXT	ENDS
PUBLIC	??$_Ptr_cat@V?$_Vector_const_iterator@V?$_Vector_val@V?$vector@UColorText@ioMission@@V?$allocator@UColorText@ioMission@@@std@@@std@@V?$allocator@V?$vector@UColorText@ioMission@@V?$allocator@UColorText@ioMission@@@std@@@std@@@2@@std@@@std@@PAV?$vector@UColorText@ioMission@@V?$allocator@UColorText@ioMission@@@std@@@2@@std@@YA?AU_Nonscalar_ptr_iterator_tag@0@AAV?$_Vector_const_iterator@V?$_Vector_val@V?$vector@UColorText@ioMission@@V?$allocator@UColorText@ioMission@@@std@@@std@@V?$allocator@V?$vector@UColorText@ioMission@@V?$allocator@UColorText@ioMission@@@std@@@std@@@2@@std@@@0@AAPAV?$vector@UColorText@ioMission@@V?$allocator@UColorText@ioMission@@@std@@@0@@Z ; std::_Ptr_cat<std::_Vector_const_iterator<std::_Vector_val<std::vector<ioMission::ColorText,std::allocator<ioMission::ColorText> >,std::allocator<std::vector<ioMission::ColorText,std::allocator<ioMission::ColorText> > > > >,std::vector<ioMission::ColorText,std::allocator<ioMission::ColorText> > *>
; Function compile flags: /Ogsp
;	COMDAT ??$_Ptr_cat@V?$_Vector_const_iterator@V?$_Vector_val@V?$vector@UColorText@ioMission@@V?$allocator@UColorText@ioMission@@@std@@@std@@V?$allocator@V?$vector@UColorText@ioMission@@V?$allocator@UColorText@ioMission@@@std@@@std@@@2@@std@@@std@@PAV?$vector@UColorText@ioMission@@V?$allocator@UColorText@ioMission@@@std@@@2@@std@@YA?AU_Nonscalar_ptr_iterator_tag@0@AAV?$_Vector_const_iterator@V?$_Vector_val@V?$vector@UColorText@ioMission@@V?$allocator@UColorText@ioMission@@@std@@@std@@V?$allocator@V?$vector@UColorText@ioMission@@V?$allocator@UColorText@ioMission@@@std@@@std@@@2@@std@@@0@AAPAV?$vector@UColorText@ioMission@@V?$allocator@UColorText@ioMission@@@std@@@0@@Z
_TEXT	SEGMENT
__Cat$ = -1						; size = 1
___formal$ = 8						; size = 4
___formal$ = 12						; size = 4
??$_Ptr_cat@V?$_Vector_const_iterator@V?$_Vector_val@V?$vector@UColorText@ioMission@@V?$allocator@UColorText@ioMission@@@std@@@std@@V?$allocator@V?$vector@UColorText@ioMission@@V?$allocator@UColorText@ioMission@@@std@@@std@@@2@@std@@@std@@PAV?$vector@UColorText@ioMission@@V?$allocator@UColorText@ioMission@@@std@@@2@@std@@YA?AU_Nonscalar_ptr_iterator_tag@0@AAV?$_Vector_const_iterator@V?$_Vector_val@V?$vector@UColorText@ioMission@@V?$allocator@UColorText@ioMission@@@std@@@std@@V?$allocator@V?$vector@UColorText@ioMission@@V?$allocator@UColorText@ioMission@@@std@@@std@@@2@@std@@@0@AAPAV?$vector@UColorText@ioMission@@V?$allocator@UColorText@ioMission@@@std@@@0@@Z PROC ; std::_Ptr_cat<std::_Vector_const_iterator<std::_Vector_val<std::vector<ioMission::ColorText,std::allocator<ioMission::ColorText> >,std::allocator<std::vector<ioMission::ColorText,std::allocator<ioMission::ColorText> > > > >,std::vector<ioMission::ColorText,std::allocator<ioMission::ColorText> > *>, COMDAT

; 485  : 	{	// return pointer category from arbitrary arguments

  00000	55		 push	 ebp
  00001	8b ec		 mov	 ebp, esp
  00003	51		 push	 ecx

; 486  : 	_Nonscalar_ptr_iterator_tag _Cat;
; 487  : 	return (_Cat);

  00004	8a 45 ff	 mov	 al, BYTE PTR __Cat$[ebp]

; 488  : 	}

  00007	c9		 leave
  00008	c3		 ret	 0
??$_Ptr_cat@V?$_Vector_const_iterator@V?$_Vector_val@V?$vector@UColorText@ioMission@@V?$allocator@UColorText@ioMission@@@std@@@std@@V?$allocator@V?$vector@UColorText@ioMission@@V?$allocator@UColorText@ioMission@@@std@@@std@@@2@@std@@@std@@PAV?$vector@UColorText@ioMission@@V?$allocator@UColorText@ioMission@@@std@@@2@@std@@YA?AU_Nonscalar_ptr_iterator_tag@0@AAV?$_Vector_const_iterator@V?$_Vector_val@V?$vector@UColorText@ioMission@@V?$allocator@UColorText@ioMission@@@std@@@std@@V?$allocator@V?$vector@UColorText@ioMission@@V?$allocator@UColorText@ioMission@@@std@@@std@@@2@@std@@@0@AAPAV?$vector@UColorText@ioMission@@V?$allocator@UColorText@ioMission@@@std@@@0@@Z ENDP ; std::_Ptr_cat<std::_Vector_const_iterator<std::_Vector_val<std::vector<ioMission::ColorText,std::allocator<ioMission::ColorText> >,std::allocator<std::vector<ioMission::ColorText,std::allocator<ioMission::ColorText> > > > >,std::vector<ioMission::ColorText,std::allocator<ioMission::ColorText> > *>
_TEXT	ENDS
PUBLIC	??$_Val_type@PAVioHashString@@@std@@YAPAVioHashString@@PAV1@@Z ; std::_Val_type<ioHashString *>
; Function compile flags: /Ogsp
;	COMDAT ??$_Val_type@PAVioHashString@@@std@@YAPAVioHashString@@PAV1@@Z
_TEXT	SEGMENT
___formal$ = 8						; size = 4
??$_Val_type@PAVioHashString@@@std@@YAPAVioHashString@@PAV1@@Z PROC ; std::_Val_type<ioHashString *>, COMDAT

; 790  : 	return (0);

  00000	33 c0		 xor	 eax, eax

; 791  : 	}

  00002	c3		 ret	 0
??$_Val_type@PAVioHashString@@@std@@YAPAVioHashString@@PAV1@@Z ENDP ; std::_Val_type<ioHashString *>
_TEXT	ENDS
PUBLIC	??$_Val_type@PAV?$vector@UColorText@ioMission@@V?$allocator@UColorText@ioMission@@@std@@@std@@@std@@YAPAV?$vector@UColorText@ioMission@@V?$allocator@UColorText@ioMission@@@std@@@0@PAV10@@Z ; std::_Val_type<std::vector<ioMission::ColorText,std::allocator<ioMission::ColorText> > *>
; Function compile flags: /Ogsp
;	COMDAT ??$_Val_type@PAV?$vector@UColorText@ioMission@@V?$allocator@UColorText@ioMission@@@std@@@std@@@std@@YAPAV?$vector@UColorText@ioMission@@V?$allocator@UColorText@ioMission@@@std@@@0@PAV10@@Z
_TEXT	SEGMENT
___formal$ = 8						; size = 4
??$_Val_type@PAV?$vector@UColorText@ioMission@@V?$allocator@UColorText@ioMission@@@std@@@std@@@std@@YAPAV?$vector@UColorText@ioMission@@V?$allocator@UColorText@ioMission@@@std@@@0@PAV10@@Z PROC ; std::_Val_type<std::vector<ioMission::ColorText,std::allocator<ioMission::ColorText> > *>, COMDAT

; 790  : 	return (0);

  00000	33 c0		 xor	 eax, eax

; 791  : 	}

  00002	c3		 ret	 0
??$_Val_type@PAV?$vector@UColorText@ioMission@@V?$allocator@UColorText@ioMission@@@std@@@std@@@std@@YAPAV?$vector@UColorText@ioMission@@V?$allocator@UColorText@ioMission@@@std@@@0@PAV10@@Z ENDP ; std::_Val_type<std::vector<ioMission::ColorText,std::allocator<ioMission::ColorText> > *>
_TEXT	ENDS
PUBLIC	??$_Val_type@PAUColorText@ioMission@@@std@@YAPAUColorText@ioMission@@PAU12@@Z ; std::_Val_type<ioMission::ColorText *>
; Function compile flags: /Ogsp
;	COMDAT ??$_Val_type@PAUColorText@ioMission@@@std@@YAPAUColorText@ioMission@@PAU12@@Z
_TEXT	SEGMENT
___formal$ = 8						; size = 4
??$_Val_type@PAUColorText@ioMission@@@std@@YAPAUColorText@ioMission@@PAU12@@Z PROC ; std::_Val_type<ioMission::ColorText *>, COMDAT

; 790  : 	return (0);

  00000	33 c0		 xor	 eax, eax

; 791  : 	}

  00002	c3		 ret	 0
??$_Val_type@PAUColorText@ioMission@@@std@@YAPAUColorText@ioMission@@PAU12@@Z ENDP ; std::_Val_type<ioMission::ColorText *>
_TEXT	ENDS
PUBLIC	??D?$_Vector_const_iterator@V?$_Vector_val@V?$basic_string@DU?$char_traits@D@std@@V?$allocator@D@2@@std@@V?$allocator@V?$basic_string@DU?$char_traits@D@std@@V?$allocator@D@2@@std@@@2@@std@@@std@@QBEABV?$basic_string@DU?$char_traits@D@std@@V?$allocator@D@2@@1@XZ ; std::_Vector_const_iterator<std::_Vector_val<std::basic_string<char,std::char_traits<char>,std::allocator<char> >,std::allocator<std::basic_string<char,std::char_traits<char>,std::allocator<char> > > > >::operator*
; Function compile flags: /Ogsp
; File c:\program files (x86)\microsoft visual studio 10.0\vc\include\vector
;	COMDAT ??D?$_Vector_const_iterator@V?$_Vector_val@V?$basic_string@DU?$char_traits@D@std@@V?$allocator@D@2@@std@@V?$allocator@V?$basic_string@DU?$char_traits@D@std@@V?$allocator@D@2@@std@@@2@@std@@@std@@QBEABV?$basic_string@DU?$char_traits@D@std@@V?$allocator@D@2@@1@XZ
_TEXT	SEGMENT
??D?$_Vector_const_iterator@V?$_Vector_val@V?$basic_string@DU?$char_traits@D@std@@V?$allocator@D@2@@std@@V?$allocator@V?$basic_string@DU?$char_traits@D@std@@V?$allocator@D@2@@std@@@2@@std@@@std@@QBEABV?$basic_string@DU?$char_traits@D@std@@V?$allocator@D@2@@1@XZ PROC ; std::_Vector_const_iterator<std::_Vector_val<std::basic_string<char,std::char_traits<char>,std::allocator<char> >,std::allocator<std::basic_string<char,std::char_traits<char>,std::allocator<char> > > > >::operator*, COMDAT
; _this$ = ecx

; 64   :  #if _ITERATOR_DEBUG_LEVEL == 2
; 65   : 		if (this->_Getcont() == 0
; 66   : 			|| this->_Ptr == 0
; 67   : 			|| this->_Ptr < ((_Myvec *)this->_Getcont())->_Myfirst
; 68   : 			|| ((_Myvec *)this->_Getcont())->_Mylast <= this->_Ptr)
; 69   : 			{	// report error
; 70   : 			_DEBUG_ERROR("vector iterator not dereferencable");
; 71   : 			_SCL_SECURE_OUT_OF_RANGE;
; 72   : 			}
; 73   : 
; 74   :  #elif _ITERATOR_DEBUG_LEVEL == 1
; 75   : 		_SCL_SECURE_VALIDATE(this->_Getcont() != 0);
; 76   : 		_SCL_SECURE_VALIDATE_RANGE(
; 77   : 			this->_Ptr != 0
; 78   : 			&& ((_Myvec *)this->_Getcont())->_Myfirst <= this->_Ptr
; 79   : 			&& this->_Ptr < ((_Myvec *)this->_Getcont())->_Mylast);
; 80   :  #endif /* _ITERATOR_DEBUG_LEVEL */
; 81   : 
; 82   : 		__analysis_assume(this->_Ptr != 0);
; 83   : 
; 84   : 		return (*this->_Ptr);

  00000	8b 01		 mov	 eax, DWORD PTR [ecx]

; 85   : 		}

  00002	c3		 ret	 0
??D?$_Vector_const_iterator@V?$_Vector_val@V?$basic_string@DU?$char_traits@D@std@@V?$allocator@D@2@@std@@V?$allocator@V?$basic_string@DU?$char_traits@D@std@@V?$allocator@D@2@@std@@@2@@std@@@std@@QBEABV?$basic_string@DU?$char_traits@D@std@@V?$allocator@D@2@@1@XZ ENDP ; std::_Vector_const_iterator<std::_Vector_val<std::basic_string<char,std::char_traits<char>,std::allocator<char> >,std::allocator<std::basic_string<char,std::char_traits<char>,std::allocator<char> > > > >::operator*
_TEXT	ENDS
PUBLIC	??E?$_Vector_const_iterator@V?$_Vector_val@V?$basic_string@DU?$char_traits@D@std@@V?$allocator@D@2@@std@@V?$allocator@V?$basic_string@DU?$char_traits@D@std@@V?$allocator@D@2@@std@@@2@@std@@@std@@QAEAAV01@XZ ; std::_Vector_const_iterator<std::_Vector_val<std::basic_string<char,std::char_traits<char>,std::allocator<char> >,std::allocator<std::basic_string<char,std::char_traits<char>,std::allocator<char> > > > >::operator++
; Function compile flags: /Ogsp
;	COMDAT ??E?$_Vector_const_iterator@V?$_Vector_val@V?$basic_string@DU?$char_traits@D@std@@V?$allocator@D@2@@std@@V?$allocator@V?$basic_string@DU?$char_traits@D@std@@V?$allocator@D@2@@std@@@2@@std@@@std@@QAEAAV01@XZ
_TEXT	SEGMENT
??E?$_Vector_const_iterator@V?$_Vector_val@V?$basic_string@DU?$char_traits@D@std@@V?$allocator@D@2@@std@@V?$allocator@V?$basic_string@DU?$char_traits@D@std@@V?$allocator@D@2@@std@@@2@@std@@@std@@QAEAAV01@XZ PROC ; std::_Vector_const_iterator<std::_Vector_val<std::basic_string<char,std::char_traits<char>,std::allocator<char> >,std::allocator<std::basic_string<char,std::char_traits<char>,std::allocator<char> > > > >::operator++, COMDAT
; _this$ = ecx

; 93   : 		{	// preincrement

  00000	8b c1		 mov	 eax, ecx

; 94   :  #if _ITERATOR_DEBUG_LEVEL == 2
; 95   : 		if (this->_Getcont() == 0
; 96   : 			|| this->_Ptr == 0
; 97   : 			|| ((_Myvec *)this->_Getcont())->_Mylast <= this->_Ptr)
; 98   : 			{	// report error
; 99   : 			_DEBUG_ERROR("vector iterator not incrementable");
; 100  : 			_SCL_SECURE_OUT_OF_RANGE;
; 101  : 			}
; 102  : 
; 103  :  #elif _ITERATOR_DEBUG_LEVEL == 1
; 104  : 		_SCL_SECURE_VALIDATE(this->_Getcont() != 0);
; 105  : 		_SCL_SECURE_VALIDATE_RANGE(
; 106  : 			this->_Ptr != 0
; 107  : 			&& this->_Ptr < ((_Myvec *)this->_Getcont())->_Mylast);
; 108  :  #endif /* _ITERATOR_DEBUG_LEVEL */
; 109  : 
; 110  : 		++this->_Ptr;

  00002	83 00 1c	 add	 DWORD PTR [eax], 28	; 0000001cH

; 111  : 		return (*this);
; 112  : 		}

  00005	c3		 ret	 0
??E?$_Vector_const_iterator@V?$_Vector_val@V?$basic_string@DU?$char_traits@D@std@@V?$allocator@D@2@@std@@V?$allocator@V?$basic_string@DU?$char_traits@D@std@@V?$allocator@D@2@@std@@@2@@std@@@std@@QAEAAV01@XZ ENDP ; std::_Vector_const_iterator<std::_Vector_val<std::basic_string<char,std::char_traits<char>,std::allocator<char> >,std::allocator<std::basic_string<char,std::char_traits<char>,std::allocator<char> > > > >::operator++
_TEXT	ENDS
PUBLIC	??D?$_Vector_const_iterator@V?$_Vector_val@V?$vector@UColorText@ioMission@@V?$allocator@UColorText@ioMission@@@std@@@std@@V?$allocator@V?$vector@UColorText@ioMission@@V?$allocator@UColorText@ioMission@@@std@@@std@@@2@@std@@@std@@QBEABV?$vector@UColorText@ioMission@@V?$allocator@UColorText@ioMission@@@std@@@1@XZ ; std::_Vector_const_iterator<std::_Vector_val<std::vector<ioMission::ColorText,std::allocator<ioMission::ColorText> >,std::allocator<std::vector<ioMission::ColorText,std::allocator<ioMission::ColorText> > > > >::operator*
; Function compile flags: /Ogsp
;	COMDAT ??D?$_Vector_const_iterator@V?$_Vector_val@V?$vector@UColorText@ioMission@@V?$allocator@UColorText@ioMission@@@std@@@std@@V?$allocator@V?$vector@UColorText@ioMission@@V?$allocator@UColorText@ioMission@@@std@@@std@@@2@@std@@@std@@QBEABV?$vector@UColorText@ioMission@@V?$allocator@UColorText@ioMission@@@std@@@1@XZ
_TEXT	SEGMENT
??D?$_Vector_const_iterator@V?$_Vector_val@V?$vector@UColorText@ioMission@@V?$allocator@UColorText@ioMission@@@std@@@std@@V?$allocator@V?$vector@UColorText@ioMission@@V?$allocator@UColorText@ioMission@@@std@@@std@@@2@@std@@@std@@QBEABV?$vector@UColorText@ioMission@@V?$allocator@UColorText@ioMission@@@std@@@1@XZ PROC ; std::_Vector_const_iterator<std::_Vector_val<std::vector<ioMission::ColorText,std::allocator<ioMission::ColorText> >,std::allocator<std::vector<ioMission::ColorText,std::allocator<ioMission::ColorText> > > > >::operator*, COMDAT
; _this$ = ecx

; 64   :  #if _ITERATOR_DEBUG_LEVEL == 2
; 65   : 		if (this->_Getcont() == 0
; 66   : 			|| this->_Ptr == 0
; 67   : 			|| this->_Ptr < ((_Myvec *)this->_Getcont())->_Myfirst
; 68   : 			|| ((_Myvec *)this->_Getcont())->_Mylast <= this->_Ptr)
; 69   : 			{	// report error
; 70   : 			_DEBUG_ERROR("vector iterator not dereferencable");
; 71   : 			_SCL_SECURE_OUT_OF_RANGE;
; 72   : 			}
; 73   : 
; 74   :  #elif _ITERATOR_DEBUG_LEVEL == 1
; 75   : 		_SCL_SECURE_VALIDATE(this->_Getcont() != 0);
; 76   : 		_SCL_SECURE_VALIDATE_RANGE(
; 77   : 			this->_Ptr != 0
; 78   : 			&& ((_Myvec *)this->_Getcont())->_Myfirst <= this->_Ptr
; 79   : 			&& this->_Ptr < ((_Myvec *)this->_Getcont())->_Mylast);
; 80   :  #endif /* _ITERATOR_DEBUG_LEVEL */
; 81   : 
; 82   : 		__analysis_assume(this->_Ptr != 0);
; 83   : 
; 84   : 		return (*this->_Ptr);

  00000	8b 01		 mov	 eax, DWORD PTR [ecx]

; 85   : 		}

  00002	c3		 ret	 0
??D?$_Vector_const_iterator@V?$_Vector_val@V?$vector@UColorText@ioMission@@V?$allocator@UColorText@ioMission@@@std@@@std@@V?$allocator@V?$vector@UColorText@ioMission@@V?$allocator@UColorText@ioMission@@@std@@@std@@@2@@std@@@std@@QBEABV?$vector@UColorText@ioMission@@V?$allocator@UColorText@ioMission@@@std@@@1@XZ ENDP ; std::_Vector_const_iterator<std::_Vector_val<std::vector<ioMission::ColorText,std::allocator<ioMission::ColorText> >,std::allocator<std::vector<ioMission::ColorText,std::allocator<ioMission::ColorText> > > > >::operator*
_TEXT	ENDS
PUBLIC	??E?$_Vector_const_iterator@V?$_Vector_val@V?$vector@UColorText@ioMission@@V?$allocator@UColorText@ioMission@@@std@@@std@@V?$allocator@V?$vector@UColorText@ioMission@@V?$allocator@UColorText@ioMission@@@std@@@std@@@2@@std@@@std@@QAEAAV01@XZ ; std::_Vector_const_iterator<std::_Vector_val<std::vector<ioMission::ColorText,std::allocator<ioMission::ColorText> >,std::allocator<std::vector<ioMission::ColorText,std::allocator<ioMission::ColorText> > > > >::operator++
; Function compile flags: /Ogsp
;	COMDAT ??E?$_Vector_const_iterator@V?$_Vector_val@V?$vector@UColorText@ioMission@@V?$allocator@UColorText@ioMission@@@std@@@std@@V?$allocator@V?$vector@UColorText@ioMission@@V?$allocator@UColorText@ioMission@@@std@@@std@@@2@@std@@@std@@QAEAAV01@XZ
_TEXT	SEGMENT
??E?$_Vector_const_iterator@V?$_Vector_val@V?$vector@UColorText@ioMission@@V?$allocator@UColorText@ioMission@@@std@@@std@@V?$allocator@V?$vector@UColorText@ioMission@@V?$allocator@UColorText@ioMission@@@std@@@std@@@2@@std@@@std@@QAEAAV01@XZ PROC ; std::_Vector_const_iterator<std::_Vector_val<std::vector<ioMission::ColorText,std::allocator<ioMission::ColorText> >,std::allocator<std::vector<ioMission::ColorText,std::allocator<ioMission::ColorText> > > > >::operator++, COMDAT
; _this$ = ecx

; 93   : 		{	// preincrement

  00000	8b c1		 mov	 eax, ecx

; 94   :  #if _ITERATOR_DEBUG_LEVEL == 2
; 95   : 		if (this->_Getcont() == 0
; 96   : 			|| this->_Ptr == 0
; 97   : 			|| ((_Myvec *)this->_Getcont())->_Mylast <= this->_Ptr)
; 98   : 			{	// report error
; 99   : 			_DEBUG_ERROR("vector iterator not incrementable");
; 100  : 			_SCL_SECURE_OUT_OF_RANGE;
; 101  : 			}
; 102  : 
; 103  :  #elif _ITERATOR_DEBUG_LEVEL == 1
; 104  : 		_SCL_SECURE_VALIDATE(this->_Getcont() != 0);
; 105  : 		_SCL_SECURE_VALIDATE_RANGE(
; 106  : 			this->_Ptr != 0
; 107  : 			&& this->_Ptr < ((_Myvec *)this->_Getcont())->_Mylast);
; 108  :  #endif /* _ITERATOR_DEBUG_LEVEL */
; 109  : 
; 110  : 		++this->_Ptr;

  00002	83 00 10	 add	 DWORD PTR [eax], 16	; 00000010H

; 111  : 		return (*this);
; 112  : 		}

  00005	c3		 ret	 0
??E?$_Vector_const_iterator@V?$_Vector_val@V?$vector@UColorText@ioMission@@V?$allocator@UColorText@ioMission@@@std@@@std@@V?$allocator@V?$vector@UColorText@ioMission@@V?$allocator@UColorText@ioMission@@@std@@@std@@@2@@std@@@std@@QAEAAV01@XZ ENDP ; std::_Vector_const_iterator<std::_Vector_val<std::vector<ioMission::ColorText,std::allocator<ioMission::ColorText> >,std::allocator<std::vector<ioMission::ColorText,std::allocator<ioMission::ColorText> > > > >::operator++
_TEXT	ENDS
PUBLIC	?_Compat@?$_Vector_const_iterator@V?$_Vector_val@V?$basic_string@DU?$char_traits@D@std@@V?$allocator@D@2@@std@@V?$allocator@V?$basic_string@DU?$char_traits@D@std@@V?$allocator@D@2@@std@@@2@@std@@@std@@QBEXABV12@@Z ; std::_Vector_const_iterator<std::_Vector_val<std::basic_string<char,std::char_traits<char>,std::allocator<char> >,std::allocator<std::basic_string<char,std::char_traits<char>,std::allocator<char> > > > >::_Compat
; Function compile flags: /Ogsp
;	COMDAT ?_Compat@?$_Vector_const_iterator@V?$_Vector_val@V?$basic_string@DU?$char_traits@D@std@@V?$allocator@D@2@@std@@V?$allocator@V?$basic_string@DU?$char_traits@D@std@@V?$allocator@D@2@@std@@@2@@std@@@std@@QBEXABV12@@Z
_TEXT	SEGMENT
___formal$ = 8						; size = 4
?_Compat@?$_Vector_const_iterator@V?$_Vector_val@V?$basic_string@DU?$char_traits@D@std@@V?$allocator@D@2@@std@@V?$allocator@V?$basic_string@DU?$char_traits@D@std@@V?$allocator@D@2@@std@@@2@@std@@@std@@QBEXABV12@@Z PROC ; std::_Vector_const_iterator<std::_Vector_val<std::basic_string<char,std::char_traits<char>,std::allocator<char> >,std::allocator<std::basic_string<char,std::char_traits<char>,std::allocator<char> > > > >::_Compat, COMDAT
; _this$ = ecx

; 253  : 		}

  00000	c2 04 00	 ret	 4
?_Compat@?$_Vector_const_iterator@V?$_Vector_val@V?$basic_string@DU?$char_traits@D@std@@V?$allocator@D@2@@std@@V?$allocator@V?$basic_string@DU?$char_traits@D@std@@V?$allocator@D@2@@std@@@2@@std@@@std@@QBEXABV12@@Z ENDP ; std::_Vector_const_iterator<std::_Vector_val<std::basic_string<char,std::char_traits<char>,std::allocator<char> >,std::allocator<std::basic_string<char,std::char_traits<char>,std::allocator<char> > > > >::_Compat
_TEXT	ENDS
PUBLIC	?_Compat@?$_Vector_const_iterator@V?$_Vector_val@V?$vector@UColorText@ioMission@@V?$allocator@UColorText@ioMission@@@std@@@std@@V?$allocator@V?$vector@UColorText@ioMission@@V?$allocator@UColorText@ioMission@@@std@@@std@@@2@@std@@@std@@QBEXABV12@@Z ; std::_Vector_const_iterator<std::_Vector_val<std::vector<ioMission::ColorText,std::allocator<ioMission::ColorText> >,std::allocator<std::vector<ioMission::ColorText,std::allocator<ioMission::ColorText> > > > >::_Compat
; Function compile flags: /Ogsp
;	COMDAT ?_Compat@?$_Vector_const_iterator@V?$_Vector_val@V?$vector@UColorText@ioMission@@V?$allocator@UColorText@ioMission@@@std@@@std@@V?$allocator@V?$vector@UColorText@ioMission@@V?$allocator@UColorText@ioMission@@@std@@@std@@@2@@std@@@std@@QBEXABV12@@Z
_TEXT	SEGMENT
___formal$ = 8						; size = 4
?_Compat@?$_Vector_const_iterator@V?$_Vector_val@V?$vector@UColorText@ioMission@@V?$allocator@UColorText@ioMission@@@std@@@std@@V?$allocator@V?$vector@UColorText@ioMission@@V?$allocator@UColorText@ioMission@@@std@@@std@@@2@@std@@@std@@QBEXABV12@@Z PROC ; std::_Vector_const_iterator<std::_Vector_val<std::vector<ioMission::ColorText,std::allocator<ioMission::ColorText> >,std::allocator<std::vector<ioMission::ColorText,std::allocator<ioMission::ColorText> > > > >::_Compat, COMDAT
; _this$ = ecx

; 253  : 		}

  00000	c2 04 00	 ret	 4
?_Compat@?$_Vector_const_iterator@V?$_Vector_val@V?$vector@UColorText@ioMission@@V?$allocator@UColorText@ioMission@@@std@@@std@@V?$allocator@V?$vector@UColorText@ioMission@@V?$allocator@UColorText@ioMission@@@std@@@std@@@2@@std@@@std@@QBEXABV12@@Z ENDP ; std::_Vector_const_iterator<std::_Vector_val<std::vector<ioMission::ColorText,std::allocator<ioMission::ColorText> >,std::allocator<std::vector<ioMission::ColorText,std::allocator<ioMission::ColorText> > > > >::_Compat
_TEXT	ENDS
PUBLIC	??_GColorText@ioMission@@QAEPAXI@Z		; ioMission::ColorText::`scalar deleting destructor'
; Function compile flags: /Ogsp
;	COMDAT ??_GColorText@ioMission@@QAEPAXI@Z
_TEXT	SEGMENT
___flags$ = 8						; size = 4
??_GColorText@ioMission@@QAEPAXI@Z PROC			; ioMission::ColorText::`scalar deleting destructor', COMDAT
; _this$ = ecx
  00000	55		 push	 ebp
  00001	8b ec		 mov	 ebp, esp
  00003	56		 push	 esi
  00004	8b f1		 mov	 esi, ecx
  00006	8d 4e 04	 lea	 ecx, DWORD PTR [esi+4]
  00009	ff 15 00 00 00
	00		 call	 DWORD PTR __imp_??1ioHashString@@QAE@XZ
  0000f	f6 45 08 01	 test	 BYTE PTR ___flags$[ebp], 1
  00013	74 07		 je	 SHORT $LN1@scalar@2
  00015	56		 push	 esi
  00016	e8 00 00 00 00	 call	 ??3@YAXPAX@Z		; operator delete
  0001b	59		 pop	 ecx
$LN1@scalar@2:
  0001c	8b c6		 mov	 eax, esi
  0001e	5e		 pop	 esi
  0001f	5d		 pop	 ebp
  00020	c2 04 00	 ret	 4
??_GColorText@ioMission@@QAEPAXI@Z ENDP			; ioMission::ColorText::`scalar deleting destructor'
_TEXT	ENDS
PUBLIC	?get_allocator@?$vector@UColorText@ioMission@@V?$allocator@UColorText@ioMission@@@std@@@std@@QBE?AV?$allocator@UColorText@ioMission@@@2@XZ ; std::vector<ioMission::ColorText,std::allocator<ioMission::ColorText> >::get_allocator
; Function compile flags: /Ogsp
;	COMDAT ?get_allocator@?$vector@UColorText@ioMission@@V?$allocator@UColorText@ioMission@@@std@@@std@@QBE?AV?$allocator@UColorText@ioMission@@@2@XZ
_TEXT	SEGMENT
___$ReturnUdt$ = 8					; size = 4
?get_allocator@?$vector@UColorText@ioMission@@V?$allocator@UColorText@ioMission@@@std@@@std@@QBE?AV?$allocator@UColorText@ioMission@@@2@XZ PROC ; std::vector<ioMission::ColorText,std::allocator<ioMission::ColorText> >::get_allocator, COMDAT
; _this$ = ecx

; 893  : 		{	// return allocator object for values

  00000	55		 push	 ebp
  00001	8b ec		 mov	 ebp, esp

; 894  : 		return (this->_Alval);

  00003	8b 45 08	 mov	 eax, DWORD PTR ___$ReturnUdt$[ebp]

; 895  : 		}

  00006	5d		 pop	 ebp
  00007	c2 04 00	 ret	 4
?get_allocator@?$vector@UColorText@ioMission@@V?$allocator@UColorText@ioMission@@@std@@@std@@QBE?AV?$allocator@UColorText@ioMission@@@2@XZ ENDP ; std::vector<ioMission::ColorText,std::allocator<ioMission::ColorText> >::get_allocator
_TEXT	ENDS
PUBLIC	??D?$_Vector_const_iterator@V?$_Vector_val@UColorText@ioMission@@V?$allocator@UColorText@ioMission@@@std@@@std@@@std@@QBEABUColorText@ioMission@@XZ ; std::_Vector_const_iterator<std::_Vector_val<ioMission::ColorText,std::allocator<ioMission::ColorText> > >::operator*
; Function compile flags: /Ogsp
;	COMDAT ??D?$_Vector_const_iterator@V?$_Vector_val@UColorText@ioMission@@V?$allocator@UColorText@ioMission@@@std@@@std@@@std@@QBEABUColorText@ioMission@@XZ
_TEXT	SEGMENT
??D?$_Vector_const_iterator@V?$_Vector_val@UColorText@ioMission@@V?$allocator@UColorText@ioMission@@@std@@@std@@@std@@QBEABUColorText@ioMission@@XZ PROC ; std::_Vector_const_iterator<std::_Vector_val<ioMission::ColorText,std::allocator<ioMission::ColorText> > >::operator*, COMDAT
; _this$ = ecx

; 64   :  #if _ITERATOR_DEBUG_LEVEL == 2
; 65   : 		if (this->_Getcont() == 0
; 66   : 			|| this->_Ptr == 0
; 67   : 			|| this->_Ptr < ((_Myvec *)this->_Getcont())->_Myfirst
; 68   : 			|| ((_Myvec *)this->_Getcont())->_Mylast <= this->_Ptr)
; 69   : 			{	// report error
; 70   : 			_DEBUG_ERROR("vector iterator not dereferencable");
; 71   : 			_SCL_SECURE_OUT_OF_RANGE;
; 72   : 			}
; 73   : 
; 74   :  #elif _ITERATOR_DEBUG_LEVEL == 1
; 75   : 		_SCL_SECURE_VALIDATE(this->_Getcont() != 0);
; 76   : 		_SCL_SECURE_VALIDATE_RANGE(
; 77   : 			this->_Ptr != 0
; 78   : 			&& ((_Myvec *)this->_Getcont())->_Myfirst <= this->_Ptr
; 79   : 			&& this->_Ptr < ((_Myvec *)this->_Getcont())->_Mylast);
; 80   :  #endif /* _ITERATOR_DEBUG_LEVEL */
; 81   : 
; 82   : 		__analysis_assume(this->_Ptr != 0);
; 83   : 
; 84   : 		return (*this->_Ptr);

  00000	8b 01		 mov	 eax, DWORD PTR [ecx]

; 85   : 		}

  00002	c3		 ret	 0
??D?$_Vector_const_iterator@V?$_Vector_val@UColorText@ioMission@@V?$allocator@UColorText@ioMission@@@std@@@std@@@std@@QBEABUColorText@ioMission@@XZ ENDP ; std::_Vector_const_iterator<std::_Vector_val<ioMission::ColorText,std::allocator<ioMission::ColorText> > >::operator*
_TEXT	ENDS
PUBLIC	??E?$_Vector_const_iterator@V?$_Vector_val@UColorText@ioMission@@V?$allocator@UColorText@ioMission@@@std@@@std@@@std@@QAEAAV01@XZ ; std::_Vector_const_iterator<std::_Vector_val<ioMission::ColorText,std::allocator<ioMission::ColorText> > >::operator++
; Function compile flags: /Ogsp
;	COMDAT ??E?$_Vector_const_iterator@V?$_Vector_val@UColorText@ioMission@@V?$allocator@UColorText@ioMission@@@std@@@std@@@std@@QAEAAV01@XZ
_TEXT	SEGMENT
??E?$_Vector_const_iterator@V?$_Vector_val@UColorText@ioMission@@V?$allocator@UColorText@ioMission@@@std@@@std@@@std@@QAEAAV01@XZ PROC ; std::_Vector_const_iterator<std::_Vector_val<ioMission::ColorText,std::allocator<ioMission::ColorText> > >::operator++, COMDAT
; _this$ = ecx

; 93   : 		{	// preincrement

  00000	8b c1		 mov	 eax, ecx

; 94   :  #if _ITERATOR_DEBUG_LEVEL == 2
; 95   : 		if (this->_Getcont() == 0
; 96   : 			|| this->_Ptr == 0
; 97   : 			|| ((_Myvec *)this->_Getcont())->_Mylast <= this->_Ptr)
; 98   : 			{	// report error
; 99   : 			_DEBUG_ERROR("vector iterator not incrementable");
; 100  : 			_SCL_SECURE_OUT_OF_RANGE;
; 101  : 			}
; 102  : 
; 103  :  #elif _ITERATOR_DEBUG_LEVEL == 1
; 104  : 		_SCL_SECURE_VALIDATE(this->_Getcont() != 0);
; 105  : 		_SCL_SECURE_VALIDATE_RANGE(
; 106  : 			this->_Ptr != 0
; 107  : 			&& this->_Ptr < ((_Myvec *)this->_Getcont())->_Mylast);
; 108  :  #endif /* _ITERATOR_DEBUG_LEVEL */
; 109  : 
; 110  : 		++this->_Ptr;

  00002	83 00 14	 add	 DWORD PTR [eax], 20	; 00000014H

; 111  : 		return (*this);
; 112  : 		}

  00005	c3		 ret	 0
??E?$_Vector_const_iterator@V?$_Vector_val@UColorText@ioMission@@V?$allocator@UColorText@ioMission@@@std@@@std@@@std@@QAEAAV01@XZ ENDP ; std::_Vector_const_iterator<std::_Vector_val<ioMission::ColorText,std::allocator<ioMission::ColorText> > >::operator++
_TEXT	ENDS
PUBLIC	??0?$_Vector_iterator@V?$_Vector_val@UColorText@ioMission@@V?$allocator@UColorText@ioMission@@@std@@@std@@@std@@QAE@PAUColorText@ioMission@@PBU_Container_base0@1@@Z ; std::_Vector_iterator<std::_Vector_val<ioMission::ColorText,std::allocator<ioMission::ColorText> > >::_Vector_iterator<std::_Vector_val<ioMission::ColorText,std::allocator<ioMission::ColorText> > >
; Function compile flags: /Ogsp
;	COMDAT ??0?$_Vector_iterator@V?$_Vector_val@UColorText@ioMission@@V?$allocator@UColorText@ioMission@@@std@@@std@@@std@@QAE@PAUColorText@ioMission@@PBU_Container_base0@1@@Z
_TEXT	SEGMENT
__Parg$ = 8						; size = 4
__Pvector$ = 12						; size = 4
??0?$_Vector_iterator@V?$_Vector_val@UColorText@ioMission@@V?$allocator@UColorText@ioMission@@@std@@@std@@@std@@QAE@PAUColorText@ioMission@@PBU_Container_base0@1@@Z PROC ; std::_Vector_iterator<std::_Vector_val<ioMission::ColorText,std::allocator<ioMission::ColorText> > >::_Vector_iterator<std::_Vector_val<ioMission::ColorText,std::allocator<ioMission::ColorText> > >, COMDAT
; _this$ = ecx

; 304  : 		{	// construct with pointer _Parg

  00000	55		 push	 ebp
  00001	8b ec		 mov	 ebp, esp
  00003	8b c1		 mov	 eax, ecx
  00005	8b 4d 08	 mov	 ecx, DWORD PTR __Parg$[ebp]
  00008	89 08		 mov	 DWORD PTR [eax], ecx

; 305  : 		}

  0000a	5d		 pop	 ebp
  0000b	c2 08 00	 ret	 8
??0?$_Vector_iterator@V?$_Vector_val@UColorText@ioMission@@V?$allocator@UColorText@ioMission@@@std@@@std@@@std@@QAE@PAUColorText@ioMission@@PBU_Container_base0@1@@Z ENDP ; std::_Vector_iterator<std::_Vector_val<ioMission::ColorText,std::allocator<ioMission::ColorText> > >::_Vector_iterator<std::_Vector_val<ioMission::ColorText,std::allocator<ioMission::ColorText> > >
_TEXT	ENDS
PUBLIC	?_Make_iter@?$vector@UColorText@ioMission@@V?$allocator@UColorText@ioMission@@@std@@@std@@QBE?AV?$_Vector_iterator@V?$_Vector_val@UColorText@ioMission@@V?$allocator@UColorText@ioMission@@@std@@@std@@@2@V?$_Vector_const_iterator@V?$_Vector_val@UColorText@ioMission@@V?$allocator@UColorText@ioMission@@@std@@@std@@@2@@Z ; std::vector<ioMission::ColorText,std::allocator<ioMission::ColorText> >::_Make_iter
; Function compile flags: /Ogsp
;	COMDAT ?_Make_iter@?$vector@UColorText@ioMission@@V?$allocator@UColorText@ioMission@@@std@@@std@@QBE?AV?$_Vector_iterator@V?$_Vector_val@UColorText@ioMission@@V?$allocator@UColorText@ioMission@@@std@@@std@@@2@V?$_Vector_const_iterator@V?$_Vector_val@UColorText@ioMission@@V?$allocator@UColorText@ioMission@@@std@@@std@@@2@@Z
_TEXT	SEGMENT
___$ReturnUdt$ = 8					; size = 4
__Where$ = 12						; size = 4
?_Make_iter@?$vector@UColorText@ioMission@@V?$allocator@UColorText@ioMission@@@std@@@std@@QBE?AV?$_Vector_iterator@V?$_Vector_val@UColorText@ioMission@@V?$allocator@UColorText@ioMission@@@std@@@std@@@2@V?$_Vector_const_iterator@V?$_Vector_val@UColorText@ioMission@@V?$allocator@UColorText@ioMission@@@std@@@std@@@2@@Z PROC ; std::vector<ioMission::ColorText,std::allocator<ioMission::ColorText> >::_Make_iter, COMDAT
; _this$ = ecx

; 801  : 		{	// make iterator from const_iterator

  00000	55		 push	 ebp
  00001	8b ec		 mov	 ebp, esp

; 802  : 		return (iterator(_Where._Ptr, this));

  00003	8b 45 08	 mov	 eax, DWORD PTR ___$ReturnUdt$[ebp]
  00006	8b 4d 0c	 mov	 ecx, DWORD PTR __Where$[ebp]
  00009	89 08		 mov	 DWORD PTR [eax], ecx

; 803  : 		}

  0000b	5d		 pop	 ebp
  0000c	c2 08 00	 ret	 8
?_Make_iter@?$vector@UColorText@ioMission@@V?$allocator@UColorText@ioMission@@@std@@@std@@QBE?AV?$_Vector_iterator@V?$_Vector_val@UColorText@ioMission@@V?$allocator@UColorText@ioMission@@@std@@@std@@@2@V?$_Vector_const_iterator@V?$_Vector_val@UColorText@ioMission@@V?$allocator@UColorText@ioMission@@@std@@@std@@@2@@Z ENDP ; std::vector<ioMission::ColorText,std::allocator<ioMission::ColorText> >::_Make_iter
_TEXT	ENDS
PUBLIC	?_Compat@?$_Vector_const_iterator@V?$_Vector_val@UColorText@ioMission@@V?$allocator@UColorText@ioMission@@@std@@@std@@@std@@QBEXABV12@@Z ; std::_Vector_const_iterator<std::_Vector_val<ioMission::ColorText,std::allocator<ioMission::ColorText> > >::_Compat
; Function compile flags: /Ogsp
;	COMDAT ?_Compat@?$_Vector_const_iterator@V?$_Vector_val@UColorText@ioMission@@V?$allocator@UColorText@ioMission@@@std@@@std@@@std@@QBEXABV12@@Z
_TEXT	SEGMENT
___formal$ = 8						; size = 4
?_Compat@?$_Vector_const_iterator@V?$_Vector_val@UColorText@ioMission@@V?$allocator@UColorText@ioMission@@@std@@@std@@@std@@QBEXABV12@@Z PROC ; std::_Vector_const_iterator<std::_Vector_val<ioMission::ColorText,std::allocator<ioMission::ColorText> > >::_Compat, COMDAT
; _this$ = ecx

; 253  : 		}

  00000	c2 04 00	 ret	 4
?_Compat@?$_Vector_const_iterator@V?$_Vector_val@UColorText@ioMission@@V?$allocator@UColorText@ioMission@@@std@@@std@@@std@@QBEXABV12@@Z ENDP ; std::_Vector_const_iterator<std::_Vector_val<ioMission::ColorText,std::allocator<ioMission::ColorText> > >::_Compat
_TEXT	ENDS
PUBLIC	??$forward@ABV?$basic_string@DU?$char_traits@D@std@@V?$allocator@D@2@@std@@@std@@YAABV?$basic_string@DU?$char_traits@D@std@@V?$allocator@D@2@@0@ABV10@@Z ; std::forward<std::basic_string<char,std::char_traits<char>,std::allocator<char> > const &>
; Function compile flags: /Ogsp
; File c:\program files (x86)\microsoft visual studio 10.0\vc\include\utility
;	COMDAT ??$forward@ABV?$basic_string@DU?$char_traits@D@std@@V?$allocator@D@2@@std@@@std@@YAABV?$basic_string@DU?$char_traits@D@std@@V?$allocator@D@2@@0@ABV10@@Z
_TEXT	SEGMENT
__Arg$ = 8						; size = 4
??$forward@ABV?$basic_string@DU?$char_traits@D@std@@V?$allocator@D@2@@std@@@std@@YAABV?$basic_string@DU?$char_traits@D@std@@V?$allocator@D@2@@0@ABV10@@Z PROC ; std::forward<std::basic_string<char,std::char_traits<char>,std::allocator<char> > const &>, COMDAT

; 78   : 	{	// forward _Arg, given explicitly specified type parameter

  00000	55		 push	 ebp
  00001	8b ec		 mov	 ebp, esp

; 79   : 	return ((_Ty&&)_Arg);

  00003	8b 45 08	 mov	 eax, DWORD PTR __Arg$[ebp]

; 80   : 	}

  00006	5d		 pop	 ebp
  00007	c3		 ret	 0
??$forward@ABV?$basic_string@DU?$char_traits@D@std@@V?$allocator@D@2@@std@@@std@@YAABV?$basic_string@DU?$char_traits@D@std@@V?$allocator@D@2@@0@ABV10@@Z ENDP ; std::forward<std::basic_string<char,std::char_traits<char>,std::allocator<char> > const &>
_TEXT	ENDS
PUBLIC	??$forward@VioHashString@@@std@@YA$$QAVioHashString@@AAV1@@Z ; std::forward<ioHashString>
; Function compile flags: /Ogsp
;	COMDAT ??$forward@VioHashString@@@std@@YA$$QAVioHashString@@AAV1@@Z
_TEXT	SEGMENT
__Arg$ = 8						; size = 4
??$forward@VioHashString@@@std@@YA$$QAVioHashString@@AAV1@@Z PROC ; std::forward<ioHashString>, COMDAT

; 78   : 	{	// forward _Arg, given explicitly specified type parameter

  00000	55		 push	 ebp
  00001	8b ec		 mov	 ebp, esp

; 79   : 	return ((_Ty&&)_Arg);

  00003	8b 45 08	 mov	 eax, DWORD PTR __Arg$[ebp]

; 80   : 	}

  00006	5d		 pop	 ebp
  00007	c3		 ret	 0
??$forward@VioHashString@@@std@@YA$$QAVioHashString@@AAV1@@Z ENDP ; std::forward<ioHashString>
_TEXT	ENDS
PUBLIC	??$forward@V?$vector@UColorText@ioMission@@V?$allocator@UColorText@ioMission@@@std@@@std@@@std@@YA$$QAV?$vector@UColorText@ioMission@@V?$allocator@UColorText@ioMission@@@std@@@0@AAV10@@Z ; std::forward<std::vector<ioMission::ColorText,std::allocator<ioMission::ColorText> > >
; Function compile flags: /Ogsp
;	COMDAT ??$forward@V?$vector@UColorText@ioMission@@V?$allocator@UColorText@ioMission@@@std@@@std@@@std@@YA$$QAV?$vector@UColorText@ioMission@@V?$allocator@UColorText@ioMission@@@std@@@0@AAV10@@Z
_TEXT	SEGMENT
__Arg$ = 8						; size = 4
??$forward@V?$vector@UColorText@ioMission@@V?$allocator@UColorText@ioMission@@@std@@@std@@@std@@YA$$QAV?$vector@UColorText@ioMission@@V?$allocator@UColorText@ioMission@@@std@@@0@AAV10@@Z PROC ; std::forward<std::vector<ioMission::ColorText,std::allocator<ioMission::ColorText> > >, COMDAT

; 78   : 	{	// forward _Arg, given explicitly specified type parameter

  00000	55		 push	 ebp
  00001	8b ec		 mov	 ebp, esp

; 79   : 	return ((_Ty&&)_Arg);

  00003	8b 45 08	 mov	 eax, DWORD PTR __Arg$[ebp]

; 80   : 	}

  00006	5d		 pop	 ebp
  00007	c3		 ret	 0
??$forward@V?$vector@UColorText@ioMission@@V?$allocator@UColorText@ioMission@@@std@@@std@@@std@@YA$$QAV?$vector@UColorText@ioMission@@V?$allocator@UColorText@ioMission@@@std@@@0@AAV10@@Z ENDP ; std::forward<std::vector<ioMission::ColorText,std::allocator<ioMission::ColorText> > >
_TEXT	ENDS
PUBLIC	??$forward@UColorText@ioMission@@@std@@YA$$QAUColorText@ioMission@@AAU12@@Z ; std::forward<ioMission::ColorText>
; Function compile flags: /Ogsp
;	COMDAT ??$forward@UColorText@ioMission@@@std@@YA$$QAUColorText@ioMission@@AAU12@@Z
_TEXT	SEGMENT
__Arg$ = 8						; size = 4
??$forward@UColorText@ioMission@@@std@@YA$$QAUColorText@ioMission@@AAU12@@Z PROC ; std::forward<ioMission::ColorText>, COMDAT

; 78   : 	{	// forward _Arg, given explicitly specified type parameter

  00000	55		 push	 ebp
  00001	8b ec		 mov	 ebp, esp

; 79   : 	return ((_Ty&&)_Arg);

  00003	8b 45 08	 mov	 eax, DWORD PTR __Arg$[ebp]

; 80   : 	}

  00006	5d		 pop	 ebp
  00007	c3		 ret	 0
??$forward@UColorText@ioMission@@@std@@YA$$QAUColorText@ioMission@@AAU12@@Z ENDP ; std::forward<ioMission::ColorText>
_TEXT	ENDS
PUBLIC	??$_Ptr_cat@V?$_Vector_const_iterator@V?$_Vector_val@UColorText@ioMission@@V?$allocator@UColorText@ioMission@@@std@@@std@@@std@@PAUColorText@ioMission@@@std@@YA?AU_Nonscalar_ptr_iterator_tag@0@AAV?$_Vector_const_iterator@V?$_Vector_val@UColorText@ioMission@@V?$allocator@UColorText@ioMission@@@std@@@std@@@0@AAPAUColorText@ioMission@@@Z ; std::_Ptr_cat<std::_Vector_const_iterator<std::_Vector_val<ioMission::ColorText,std::allocator<ioMission::ColorText> > >,ioMission::ColorText *>
; Function compile flags: /Ogsp
; File c:\program files (x86)\microsoft visual studio 10.0\vc\include\xutility
;	COMDAT ??$_Ptr_cat@V?$_Vector_const_iterator@V?$_Vector_val@UColorText@ioMission@@V?$allocator@UColorText@ioMission@@@std@@@std@@@std@@PAUColorText@ioMission@@@std@@YA?AU_Nonscalar_ptr_iterator_tag@0@AAV?$_Vector_const_iterator@V?$_Vector_val@UColorText@ioMission@@V?$allocator@UColorText@ioMission@@@std@@@std@@@0@AAPAUColorText@ioMission@@@Z
_TEXT	SEGMENT
__Cat$ = -1						; size = 1
___formal$ = 8						; size = 4
___formal$ = 12						; size = 4
??$_Ptr_cat@V?$_Vector_const_iterator@V?$_Vector_val@UColorText@ioMission@@V?$allocator@UColorText@ioMission@@@std@@@std@@@std@@PAUColorText@ioMission@@@std@@YA?AU_Nonscalar_ptr_iterator_tag@0@AAV?$_Vector_const_iterator@V?$_Vector_val@UColorText@ioMission@@V?$allocator@UColorText@ioMission@@@std@@@std@@@0@AAPAUColorText@ioMission@@@Z PROC ; std::_Ptr_cat<std::_Vector_const_iterator<std::_Vector_val<ioMission::ColorText,std::allocator<ioMission::ColorText> > >,ioMission::ColorText *>, COMDAT

; 485  : 	{	// return pointer category from arbitrary arguments

  00000	55		 push	 ebp
  00001	8b ec		 mov	 ebp, esp
  00003	51		 push	 ecx

; 486  : 	_Nonscalar_ptr_iterator_tag _Cat;
; 487  : 	return (_Cat);

  00004	8a 45 ff	 mov	 al, BYTE PTR __Cat$[ebp]

; 488  : 	}

  00007	c9		 leave
  00008	c3		 ret	 0
??$_Ptr_cat@V?$_Vector_const_iterator@V?$_Vector_val@UColorText@ioMission@@V?$allocator@UColorText@ioMission@@@std@@@std@@@std@@PAUColorText@ioMission@@@std@@YA?AU_Nonscalar_ptr_iterator_tag@0@AAV?$_Vector_const_iterator@V?$_Vector_val@UColorText@ioMission@@V?$allocator@UColorText@ioMission@@@std@@@std@@@0@AAPAUColorText@ioMission@@@Z ENDP ; std::_Ptr_cat<std::_Vector_const_iterator<std::_Vector_val<ioMission::ColorText,std::allocator<ioMission::ColorText> > >,ioMission::ColorText *>
_TEXT	ENDS
PUBLIC	??$addressof@UColorText@ioMission@@@std@@YAPAUColorText@ioMission@@AAU12@@Z ; std::addressof<ioMission::ColorText>
; Function compile flags: /Ogsp
; File c:\program files (x86)\microsoft visual studio 10.0\vc\include\xmemory
;	COMDAT ??$addressof@UColorText@ioMission@@@std@@YAPAUColorText@ioMission@@AAU12@@Z
_TEXT	SEGMENT
__Val$ = 8						; size = 4
??$addressof@UColorText@ioMission@@@std@@YAPAUColorText@ioMission@@AAU12@@Z PROC ; std::addressof<ioMission::ColorText>, COMDAT

; 110  : 	{	// return address of _Val

  00000	55		 push	 ebp
  00001	8b ec		 mov	 ebp, esp

; 111  : 	return ((_Ty *) &(char&)_Val);

  00003	8b 45 08	 mov	 eax, DWORD PTR __Val$[ebp]

; 112  : 	}

  00006	5d		 pop	 ebp
  00007	c3		 ret	 0
??$addressof@UColorText@ioMission@@@std@@YAPAUColorText@ioMission@@AAU12@@Z ENDP ; std::addressof<ioMission::ColorText>
_TEXT	ENDS
PUBLIC	??$?8UColorText@ioMission@@U01@@std@@YA_NABV?$allocator@UColorText@ioMission@@@0@0@Z ; std::operator==<ioMission::ColorText,ioMission::ColorText>
; Function compile flags: /Ogsp
;	COMDAT ??$?8UColorText@ioMission@@U01@@std@@YA_NABV?$allocator@UColorText@ioMission@@@0@0@Z
_TEXT	SEGMENT
___formal$ = 8						; size = 4
___formal$ = 12						; size = 4
??$?8UColorText@ioMission@@U01@@std@@YA_NABV?$allocator@UColorText@ioMission@@@0@0@Z PROC ; std::operator==<ioMission::ColorText,ioMission::ColorText>, COMDAT

; 263  : 	return (true);

  00000	b0 01		 mov	 al, 1

; 264  : 	}

  00002	c3		 ret	 0
??$?8UColorText@ioMission@@U01@@std@@YA_NABV?$allocator@UColorText@ioMission@@@0@0@Z ENDP ; std::operator==<ioMission::ColorText,ioMission::ColorText>
_TEXT	ENDS
PUBLIC	??4ColorText@ioMission@@QAEAAU01@ABU01@@Z	; ioMission::ColorText::operator=
EXTRN	__imp_??4ioHashString@@QAEAAV0@ABV0@@Z:PROC
; Function compile flags: /Ogsp
;	COMDAT ??4ColorText@ioMission@@QAEAAU01@ABU01@@Z
_TEXT	SEGMENT
___that$ = 8						; size = 4
??4ColorText@ioMission@@QAEAAU01@ABU01@@Z PROC		; ioMission::ColorText::operator=, COMDAT
; _this$ = ecx
  00000	55		 push	 ebp
  00001	8b ec		 mov	 ebp, esp
  00003	8b 45 08	 mov	 eax, DWORD PTR ___that$[ebp]
  00006	56		 push	 esi
  00007	8b f1		 mov	 esi, ecx
  00009	8b 08		 mov	 ecx, DWORD PTR [eax]
  0000b	83 c0 04	 add	 eax, 4
  0000e	89 0e		 mov	 DWORD PTR [esi], ecx
  00010	50		 push	 eax
  00011	8d 4e 04	 lea	 ecx, DWORD PTR [esi+4]
  00014	ff 15 00 00 00
	00		 call	 DWORD PTR __imp_??4ioHashString@@QAEAAV0@ABV0@@Z
  0001a	8b c6		 mov	 eax, esi
  0001c	5e		 pop	 esi
  0001d	5d		 pop	 ebp
  0001e	c2 04 00	 ret	 4
??4ColorText@ioMission@@QAEAAU01@ABU01@@Z ENDP		; ioMission::ColorText::operator=
_TEXT	ENDS
PUBLIC	??$move@AAUColorText@ioMission@@@std@@YA$$QAUColorText@ioMission@@AAU12@@Z ; std::move<ioMission::ColorText &>
; Function compile flags: /Ogsp
; File c:\program files (x86)\microsoft visual studio 10.0\vc\include\utility
;	COMDAT ??$move@AAUColorText@ioMission@@@std@@YA$$QAUColorText@ioMission@@AAU12@@Z
_TEXT	SEGMENT
__Arg$ = 8						; size = 4
??$move@AAUColorText@ioMission@@@std@@YA$$QAUColorText@ioMission@@AAU12@@Z PROC ; std::move<ioMission::ColorText &>, COMDAT

; 86   : 	{	// forward _Arg as movable

  00000	55		 push	 ebp
  00001	8b ec		 mov	 ebp, esp

; 87   : 	return ((typename tr1::_Remove_reference<_Ty>::_Type&&)_Arg);

  00003	8b 45 08	 mov	 eax, DWORD PTR __Arg$[ebp]

; 88   : 	}

  00006	5d		 pop	 ebp
  00007	c3		 ret	 0
??$move@AAUColorText@ioMission@@@std@@YA$$QAUColorText@ioMission@@AAU12@@Z ENDP ; std::move<ioMission::ColorText &>
; Function compile flags: /Ogsp
; File c:\program files (x86)\microsoft sdks\windows\v7.0a\include\strsafe.h
_TEXT	ENDS
;	COMDAT ?StringValidateDestA@@YGJPBDII@Z
_TEXT	SEGMENT
_cchMax$ = 8						; size = 4
?StringValidateDestA@@YGJPBDII@Z PROC			; StringValidateDestA, COMDAT
; _cchDest$ = ecx

; 8721 : {

  00000	55		 push	 ebp
  00001	8b ec		 mov	 ebp, esp

; 8722 :     HRESULT hr = S_OK;

  00003	33 c0		 xor	 eax, eax

; 8723 : 
; 8724 :     if ((cchDest == 0) || (cchDest > cchMax))

  00005	85 c9		 test	 ecx, ecx
  00007	74 05		 je	 SHORT $LN1@StringVali
  00009	3b 4d 08	 cmp	 ecx, DWORD PTR _cchMax$[ebp]
  0000c	76 05		 jbe	 SHORT $LN2@StringVali
$LN1@StringVali:

; 8725 :     {
; 8726 :         hr = STRSAFE_E_INVALID_PARAMETER;

  0000e	b8 57 00 07 80	 mov	 eax, -2147024809	; 80070057H
$LN2@StringVali:

; 8727 :     }
; 8728 : 
; 8729 :     return hr;
; 8730 : }

  00013	5d		 pop	 ebp
  00014	c2 04 00	 ret	 4
?StringValidateDestA@@YGJPBDII@Z ENDP			; StringValidateDestA
_TEXT	ENDS
EXTRN	__imp___vsnprintf:PROC
; Function compile flags: /Ogsp
;	COMDAT ?StringVPrintfWorkerA@@YGJPADIPAIPBD0@Z
_TEXT	SEGMENT
_pcchNewDestLength$ = 8					; size = 4
_pszFormat$ = 12					; size = 4
_argList$ = 16						; size = 4
?StringVPrintfWorkerA@@YGJPADIPAIPBD0@Z PROC		; StringVPrintfWorkerA, COMDAT
; _pszDest$ = edi
; _cchDest$ = eax

; 9029 : {

  00000	55		 push	 ebp
  00001	8b ec		 mov	 ebp, esp
  00003	53		 push	 ebx
  00004	56		 push	 esi

; 9030 :     HRESULT hr = S_OK;
; 9031 :     int iRet;
; 9032 :     size_t cchMax;
; 9033 :     size_t cchNewDestLength = 0;
; 9034 : 
; 9035 :     // leave the last space for the null terminator
; 9036 :     cchMax = cchDest - 1;
; 9037 : 
; 9038 : #if (STRSAFE_USE_SECURE_CRT == 1) && !defined(STRSAFE_LIB_IMPL)
; 9039 :     iRet = _vsnprintf_s(pszDest, cchDest, cchMax, pszFormat, argList);
; 9040 : #else
; 9041 :     #pragma warning(push)
; 9042 :     #pragma warning(disable: __WARNING_BANNED_API_USAGE)// "STRSAFE not included"
; 9043 :     iRet = _vsnprintf(pszDest, cchMax, pszFormat, argList);

  00005	ff 75 10	 push	 DWORD PTR _argList$[ebp]
  00008	8d 70 ff	 lea	 esi, DWORD PTR [eax-1]
  0000b	ff 75 0c	 push	 DWORD PTR _pszFormat$[ebp]
  0000e	33 db		 xor	 ebx, ebx
  00010	56		 push	 esi
  00011	57		 push	 edi
  00012	ff 15 00 00 00
	00		 call	 DWORD PTR __imp___vsnprintf
  00018	83 c4 10	 add	 esp, 16			; 00000010H

; 9044 :     #pragma warning(pop)
; 9045 : #endif
; 9046 :     // ASSERT((iRet < 0) || (((size_t)iRet) <= cchMax));
; 9047 : 
; 9048 :     if ((iRet < 0) || (((size_t)iRet) > cchMax))

  0001b	85 c0		 test	 eax, eax
  0001d	78 0b		 js	 SHORT $LN5@StringVPri
  0001f	3b c6		 cmp	 eax, esi
  00021	77 07		 ja	 SHORT $LN5@StringVPri

; 9058 :     }
; 9059 :     else if (((size_t)iRet) == cchMax)

  00023	75 0f		 jne	 SHORT $LN2@StringVPri

; 9060 :     {
; 9061 :         // need to null terminate the string
; 9062 :         pszDest += cchMax;
; 9063 :         *pszDest = '\0';

  00025	88 1c 3e	 mov	 BYTE PTR [esi+edi], bl

; 9064 : 
; 9065 :         cchNewDestLength = cchMax;
; 9066 :     }
; 9067 :     else

  00028	eb 08		 jmp	 SHORT $LN9@StringVPri
$LN5@StringVPri:

; 9049 :     {
; 9050 :         // need to null terminate the string
; 9051 :         pszDest += cchMax;
; 9052 :         *pszDest = '\0';

  0002a	88 1c 3e	 mov	 BYTE PTR [esi+edi], bl

; 9055 : 
; 9056 :         // we have truncated pszDest
; 9057 :         hr = STRSAFE_E_INSUFFICIENT_BUFFER;

  0002d	bb 7a 00 07 80	 mov	 ebx, -2147024774	; 8007007aH
$LN9@StringVPri:

; 9053 : 
; 9054 :         cchNewDestLength = cchMax;

  00032	8b c6		 mov	 eax, esi
$LN2@StringVPri:

; 9068 :     {
; 9069 :         cchNewDestLength = (size_t)iRet;
; 9070 :     }
; 9071 : 
; 9072 :     if (pcchNewDestLength)

  00034	8b 4d 08	 mov	 ecx, DWORD PTR _pcchNewDestLength$[ebp]
  00037	85 c9		 test	 ecx, ecx
  00039	74 02		 je	 SHORT $LN1@StringVPri

; 9073 :     {
; 9074 :         *pcchNewDestLength = cchNewDestLength;

  0003b	89 01		 mov	 DWORD PTR [ecx], eax
$LN1@StringVPri:
  0003d	5e		 pop	 esi

; 9075 :     }
; 9076 : 
; 9077 :     return hr;

  0003e	8b c3		 mov	 eax, ebx
  00040	5b		 pop	 ebx

; 9078 : }

  00041	5d		 pop	 ebp
  00042	c2 0c 00	 ret	 12			; 0000000cH
?StringVPrintfWorkerA@@YGJPADIPAIPBD0@Z ENDP		; StringVPrintfWorkerA
_TEXT	ENDS
PUBLIC	??0CAtlException@ATL@@QAE@J@Z			; ATL::CAtlException::CAtlException
; Function compile flags: /Ogsp
; File c:\program files (x86)\microsoft visual studio 10.0\vc\atlmfc\include\atlexcept.h
;	COMDAT ??0CAtlException@ATL@@QAE@J@Z
_TEXT	SEGMENT
_hr$ = 8						; size = 4
??0CAtlException@ATL@@QAE@J@Z PROC			; ATL::CAtlException::CAtlException, COMDAT
; _this$ = ecx

; 44   : 	{

  00000	55		 push	 ebp
  00001	8b ec		 mov	 ebp, esp
  00003	8b c1		 mov	 eax, ecx
  00005	8b 4d 08	 mov	 ecx, DWORD PTR _hr$[ebp]
  00008	89 08		 mov	 DWORD PTR [eax], ecx

; 45   : 	}

  0000a	5d		 pop	 ebp
  0000b	c2 04 00	 ret	 4
??0CAtlException@ATL@@QAE@J@Z ENDP			; ATL::CAtlException::CAtlException
_TEXT	ENDS
PUBLIC	__TI1?AVCAtlException@ATL@@
PUBLIC	?AtlThrowImpl@ATL@@YGXJ@Z			; ATL::AtlThrowImpl
PUBLIC	__CTA1?AVCAtlException@ATL@@
PUBLIC	__CT??_R0?AVCAtlException@ATL@@@84
PUBLIC	??_R0?AVCAtlException@ATL@@@8			; ATL::CAtlException `RTTI Type Descriptor'
;	COMDAT ??_R0?AVCAtlException@ATL@@@8
_DATA	SEGMENT
??_R0?AVCAtlException@ATL@@@8 DD FLAT:??_7type_info@@6B@ ; ATL::CAtlException `RTTI Type Descriptor'
	DD	00H
	DB	'.?AVCAtlException@ATL@@', 00H
_DATA	ENDS
;	COMDAT __CT??_R0?AVCAtlException@ATL@@@84
xdata$x	SEGMENT
__CT??_R0?AVCAtlException@ATL@@@84 DD 00H
	DD	FLAT:??_R0?AVCAtlException@ATL@@@8
	DD	00H
	DD	0ffffffffH
	ORG $+4
	DD	04H
	DD	00H
xdata$x	ENDS
;	COMDAT __CTA1?AVCAtlException@ATL@@
xdata$x	SEGMENT
__CTA1?AVCAtlException@ATL@@ DD 01H
	DD	FLAT:__CT??_R0?AVCAtlException@ATL@@@84
xdata$x	ENDS
;	COMDAT __TI1?AVCAtlException@ATL@@
xdata$x	SEGMENT
__TI1?AVCAtlException@ATL@@ DD 00H
	DD	00H
	DD	00H
	DD	FLAT:__CTA1?AVCAtlException@ATL@@
; Function compile flags: /Ogsp
xdata$x	ENDS
;	COMDAT ?AtlThrowImpl@ATL@@YGXJ@Z
_TEXT	SEGMENT
$T512127 = 8						; size = 4
_hr$ = 8						; size = 4
?AtlThrowImpl@ATL@@YGXJ@Z PROC				; ATL::AtlThrowImpl, COMDAT

; 65   : {

  00000	55		 push	 ebp
  00001	8b ec		 mov	 ebp, esp

; 66   : 	ATLTRACE(atlTraceException, 0, _T("AtlThrow: hr = 0x%x\n"), hr );
; 67   : #ifdef _AFX
; 68   : 	if( hr == E_OUTOFMEMORY )
; 69   : 	{
; 70   : 		AfxThrowMemoryException();
; 71   : 	}
; 72   : 	else
; 73   : 	{
; 74   : 		AfxThrowOleException( hr );
; 75   : 	}
; 76   : #else
; 77   : 	throw CAtlException( hr );

  00003	8b 45 08	 mov	 eax, DWORD PTR _hr$[ebp]
  00006	89 45 08	 mov	 DWORD PTR $T512127[ebp], eax
  00009	68 00 00 00 00	 push	 OFFSET __TI1?AVCAtlException@ATL@@
  0000e	8d 45 08	 lea	 eax, DWORD PTR $T512127[ebp]
  00011	50		 push	 eax
  00012	e8 00 00 00 00	 call	 __CxxThrowException@8
$LN6@AtlThrowIm:
$LN5@AtlThrowIm:
  00017	cc		 int	 3
?AtlThrowImpl@ATL@@YGXJ@Z ENDP				; ATL::AtlThrowImpl
_TEXT	ENDS
PUBLIC	??0CTimeSpan@ATL@@QAE@_J@Z			; ATL::CTimeSpan::CTimeSpan
; Function compile flags: /Ogsp
; File c:\program files (x86)\microsoft visual studio 10.0\vc\atlmfc\include\atltime.inl
;	COMDAT ??0CTimeSpan@ATL@@QAE@_J@Z
_TEXT	SEGMENT
_time$ = 8						; size = 8
??0CTimeSpan@ATL@@QAE@_J@Z PROC				; ATL::CTimeSpan::CTimeSpan, COMDAT
; _this$ = ecx

; 33   : {

  00000	55		 push	 ebp
  00001	8b ec		 mov	 ebp, esp
  00003	8b c1		 mov	 eax, ecx
  00005	8b 4d 08	 mov	 ecx, DWORD PTR _time$[ebp]
  00008	89 08		 mov	 DWORD PTR [eax], ecx
  0000a	8b 4d 0c	 mov	 ecx, DWORD PTR _time$[ebp+4]
  0000d	89 48 04	 mov	 DWORD PTR [eax+4], ecx

; 34   : }

  00010	5d		 pop	 ebp
  00011	c2 08 00	 ret	 8
??0CTimeSpan@ATL@@QAE@_J@Z ENDP				; ATL::CTimeSpan::CTimeSpan
_TEXT	ENDS
PUBLIC	?GetTotalMinutes@CTimeSpan@ATL@@QBE_JXZ		; ATL::CTimeSpan::GetTotalMinutes
EXTRN	__alldiv:PROC
; Function compile flags: /Ogsp
;	COMDAT ?GetTotalMinutes@CTimeSpan@ATL@@QBE_JXZ
_TEXT	SEGMENT
?GetTotalMinutes@CTimeSpan@ATL@@QBE_JXZ PROC		; ATL::CTimeSpan::GetTotalMinutes, COMDAT
; _this$ = ecx

; 62   : 	return( m_timeSpan/60 );

  00000	6a 00		 push	 0
  00002	6a 3c		 push	 60			; 0000003cH
  00004	ff 71 04	 push	 DWORD PTR [ecx+4]
  00007	ff 31		 push	 DWORD PTR [ecx]
  00009	e8 00 00 00 00	 call	 __alldiv

; 63   : }

  0000e	c3		 ret	 0
?GetTotalMinutes@CTimeSpan@ATL@@QBE_JXZ ENDP		; ATL::CTimeSpan::GetTotalMinutes
_TEXT	ENDS
PUBLIC	??0CTime@ATL@@QAE@XZ				; ATL::CTime::CTime
; Function compile flags: /Ogsp
;	COMDAT ??0CTime@ATL@@QAE@XZ
_TEXT	SEGMENT
??0CTime@ATL@@QAE@XZ PROC				; ATL::CTime::CTime, COMDAT
; _this$ = ecx

; 166  : {

  00000	8b c1		 mov	 eax, ecx
  00002	83 20 00	 and	 DWORD PTR [eax], 0
  00005	83 60 04 00	 and	 DWORD PTR [eax+4], 0

; 167  : }

  00009	c3		 ret	 0
??0CTime@ATL@@QAE@XZ ENDP				; ATL::CTime::CTime
_TEXT	ENDS
PUBLIC	__$ArrayPad$
PUBLIC	??0CTime@ATL@@QAE@HHHHHHH@Z			; ATL::CTime::CTime
EXTRN	__imp___mktime64:PROC
EXTRN	___security_cookie:DWORD
EXTRN	@__security_check_cookie@4:PROC
; Function compile flags: /Ogsp
;	COMDAT ??0CTime@ATL@@QAE@HHHHHHH@Z
_TEXT	SEGMENT
_atm$ = -40						; size = 36
__$ArrayPad$ = -4					; size = 4
_nYear$ = 8						; size = 4
_nMonth$ = 12						; size = 4
_nDay$ = 16						; size = 4
_nHour$ = 20						; size = 4
_nMin$ = 24						; size = 4
_nSec$ = 28						; size = 4
_nDST$ = 32						; size = 4
??0CTime@ATL@@QAE@HHHHHHH@Z PROC			; ATL::CTime::CTime, COMDAT
; _this$ = ecx

; 182  : {

  00000	55		 push	 ebp
  00001	8b ec		 mov	 ebp, esp
  00003	83 ec 28	 sub	 esp, 40			; 00000028H
  00006	a1 00 00 00 00	 mov	 eax, DWORD PTR ___security_cookie
  0000b	33 c5		 xor	 eax, ebp
  0000d	89 45 fc	 mov	 DWORD PTR __$ArrayPad$[ebp], eax

; 183  : #pragma warning (push)
; 184  : #pragma warning (disable: 4127)  // conditional expression constant
; 185  : 
; 186  : 	ATLENSURE( nYear >= 1900 );

  00010	81 7d 08 6c 07
	00 00		 cmp	 DWORD PTR _nYear$[ebp], 1900 ; 0000076cH
  00017	56		 push	 esi
  00018	8b f1		 mov	 esi, ecx
  0001a	7d 0a		 jge	 SHORT $LN66@CTime
$LN81@CTime:
  0001c	68 05 40 00 80	 push	 -2147467259		; 80004005H
$LN82@CTime:
  00021	e8 00 00 00 00	 call	 ?AtlThrowImpl@ATL@@YGXJ@Z ; ATL::AtlThrowImpl
$LN83@CTime:
$LN66@CTime:
  00026	53		 push	 ebx

; 187  : 	ATLENSURE( nMonth >= 1 && nMonth <= 12 );

  00027	8b 5d 0c	 mov	 ebx, DWORD PTR _nMonth$[ebp]
  0002a	8d 43 ff	 lea	 eax, DWORD PTR [ebx-1]
  0002d	57		 push	 edi
  0002e	83 f8 0b	 cmp	 eax, 11			; 0000000bH
  00031	77 e9		 ja	 SHORT $LN81@CTime

; 188  : 	ATLENSURE( nDay >= 1 && nDay <= 31 );

  00033	8b 55 10	 mov	 edx, DWORD PTR _nDay$[ebp]
  00036	8d 42 ff	 lea	 eax, DWORD PTR [edx-1]
  00039	83 f8 1e	 cmp	 eax, 30			; 0000001eH
  0003c	77 de		 ja	 SHORT $LN81@CTime

; 189  : 	ATLENSURE( nHour >= 0 && nHour <= 23 );

  0003e	8b 7d 14	 mov	 edi, DWORD PTR _nHour$[ebp]
  00041	83 ff 17	 cmp	 edi, 23			; 00000017H
  00044	77 d6		 ja	 SHORT $LN81@CTime

; 190  : 	ATLENSURE( nMin >= 0 && nMin <= 59 );

  00046	8b 4d 18	 mov	 ecx, DWORD PTR _nMin$[ebp]
  00049	83 f9 3b	 cmp	 ecx, 59			; 0000003bH
  0004c	77 ce		 ja	 SHORT $LN81@CTime

; 191  : 	ATLENSURE( nSec >= 0 && nSec <= 59 );

  0004e	8b 45 1c	 mov	 eax, DWORD PTR _nSec$[ebp]
  00051	83 f8 3b	 cmp	 eax, 59			; 0000003bH
  00054	77 c6		 ja	 SHORT $LN81@CTime

; 192  : 
; 193  : #pragma warning (pop)
; 194  : 
; 195  : 	struct tm atm;
; 196  : 
; 197  : 	atm.tm_sec = nSec;

  00056	89 45 d8	 mov	 DWORD PTR _atm$[ebp], eax

; 198  : 	atm.tm_min = nMin;
; 199  : 	atm.tm_hour = nHour;
; 200  : 	atm.tm_mday = nDay;
; 201  : 	atm.tm_mon = nMonth - 1;        // tm_mon is 0 based
; 202  : 	atm.tm_year = nYear - 1900;     // tm_year is 1900 based

  00059	8b 45 08	 mov	 eax, DWORD PTR _nYear$[ebp]
  0005c	05 94 f8 ff ff	 add	 eax, -1900		; fffff894H
  00061	89 45 ec	 mov	 DWORD PTR _atm$[ebp+20], eax

; 203  : 	atm.tm_isdst = nDST;

  00064	8b 45 20	 mov	 eax, DWORD PTR _nDST$[ebp]
  00067	89 45 f8	 mov	 DWORD PTR _atm$[ebp+32], eax

; 204  : 
; 205  : 	m_time = _mktime64(&atm);

  0006a	8d 45 d8	 lea	 eax, DWORD PTR _atm$[ebp]
  0006d	4b		 dec	 ebx
  0006e	50		 push	 eax
  0006f	89 4d dc	 mov	 DWORD PTR _atm$[ebp+4], ecx
  00072	89 7d e0	 mov	 DWORD PTR _atm$[ebp+8], edi
  00075	89 55 e4	 mov	 DWORD PTR _atm$[ebp+12], edx
  00078	89 5d e8	 mov	 DWORD PTR _atm$[ebp+16], ebx
  0007b	ff 15 00 00 00
	00		 call	 DWORD PTR __imp___mktime64
  00081	59		 pop	 ecx
  00082	89 06		 mov	 DWORD PTR [esi], eax

; 206  : 	ATLASSUME(m_time != -1);       // indicates an illegal input time
; 207  : 	if(m_time == -1)

  00084	23 c2		 and	 eax, edx
  00086	5f		 pop	 edi
  00087	89 56 04	 mov	 DWORD PTR [esi+4], edx
  0008a	5b		 pop	 ebx
  0008b	83 f8 ff	 cmp	 eax, -1
  0008e	75 07		 jne	 SHORT $LN1@CTime

; 208  : 	{
; 209  : 		AtlThrow(E_INVALIDARG);

  00090	68 57 00 07 80	 push	 -2147024809		; 80070057H
  00095	eb 8a		 jmp	 SHORT $LN82@CTime
$LN1@CTime:

; 210  : 	}
; 211  : }

  00097	8b 4d fc	 mov	 ecx, DWORD PTR __$ArrayPad$[ebp]
  0009a	8b c6		 mov	 eax, esi
  0009c	33 cd		 xor	 ecx, ebp
  0009e	5e		 pop	 esi
  0009f	e8 00 00 00 00	 call	 @__security_check_cookie@4
  000a4	c9		 leave
  000a5	c2 1c 00	 ret	 28			; 0000001cH
$LN80@CTime:
??0CTime@ATL@@QAE@HHHHHHH@Z ENDP			; ATL::CTime::CTime
_TEXT	ENDS
PUBLIC	??GCTime@ATL@@QBE?AVCTimeSpan@1@V01@@Z		; ATL::CTime::operator-
; Function compile flags: /Ogsp
;	COMDAT ??GCTime@ATL@@QBE?AVCTimeSpan@1@V01@@Z
_TEXT	SEGMENT
___$ReturnUdt$ = 8					; size = 4
_time$ = 12						; size = 8
??GCTime@ATL@@QBE?AVCTimeSpan@1@V01@@Z PROC		; ATL::CTime::operator-, COMDAT
; _this$ = ecx

; 304  : {

  00000	55		 push	 ebp
  00001	8b ec		 mov	 ebp, esp

; 305  : 	return( CTimeSpan( m_time-time.m_time ) );

  00003	8b 11		 mov	 edx, DWORD PTR [ecx]
  00005	2b 55 0c	 sub	 edx, DWORD PTR _time$[ebp]
  00008	8b 49 04	 mov	 ecx, DWORD PTR [ecx+4]
  0000b	1b 4d 10	 sbb	 ecx, DWORD PTR _time$[ebp+4]
  0000e	8b 45 08	 mov	 eax, DWORD PTR ___$ReturnUdt$[ebp]
  00011	89 10		 mov	 DWORD PTR [eax], edx
  00013	89 48 04	 mov	 DWORD PTR [eax+4], ecx

; 306  : }

  00016	5d		 pop	 ebp
  00017	c2 0c 00	 ret	 12			; 0000000cH
??GCTime@ATL@@QBE?AVCTimeSpan@1@V01@@Z ENDP		; ATL::CTime::operator-
_TEXT	ENDS
PUBLIC	?_DECSTR@@YAXPADH@Z				; _DECSTR
; Function compile flags: /Ogsp
; File d:\lost saga for developer\youtube\tutorial\source\src\lsclient\stringprotect.h
;	COMDAT ?_DECSTR@@YAXPADH@Z
_TEXT	SEGMENT
_s$ = 8							; size = 4
_l$ = 12						; size = 4
?_DECSTR@@YAXPADH@Z PROC				; _DECSTR, COMDAT

; 40   : __forceinline void _DECSTR(char* s, int l){int i=0,l4=(l-1)/4,*p=(int*)s;s[l-1]=0;for(;i<l4;++i)*(p++)^=0xEAEBECED;for(i=l4*4;i<l-1;++i)s[i]^=0xED-i%4;}

  00000	55		 push	 ebp
  00001	8b ec		 mov	 ebp, esp
  00003	8b 4d 0c	 mov	 ecx, DWORD PTR _l$[ebp]
  00006	56		 push	 esi
  00007	8b 75 08	 mov	 esi, DWORD PTR _s$[ebp]
  0000a	57		 push	 edi
  0000b	8d 79 ff	 lea	 edi, DWORD PTR [ecx-1]
  0000e	8b c7		 mov	 eax, edi
  00010	99		 cdq
  00011	83 e2 03	 and	 edx, 3
  00014	03 c2		 add	 eax, edx
  00016	c1 f8 02	 sar	 eax, 2
  00019	8b d6		 mov	 edx, esi
  0001b	c6 44 0e ff 00	 mov	 BYTE PTR [esi+ecx-1], 0
  00020	85 c0		 test	 eax, eax
  00022	7e 0e		 jle	 SHORT $LN4@DECSTR
  00024	8b c8		 mov	 ecx, eax
$LL6@DECSTR:
  00026	81 32 ed ec eb
	ea		 xor	 DWORD PTR [edx], -353637139 ; eaebecedH
  0002c	83 c2 04	 add	 edx, 4
  0002f	49		 dec	 ecx
  00030	75 f4		 jne	 SHORT $LL6@DECSTR
$LN4@DECSTR:
  00032	c1 e0 02	 shl	 eax, 2
  00035	eb 17		 jmp	 SHORT $LN14@DECSTR
$LL3@DECSTR:
  00037	8b c8		 mov	 ecx, eax
  00039	81 e1 03 00 00
	80		 and	 ecx, -2147483645	; 80000003H
  0003f	79 05		 jns	 SHORT $LN13@DECSTR
  00041	49		 dec	 ecx
  00042	83 c9 fc	 or	 ecx, -4			; fffffffcH
  00045	41		 inc	 ecx
$LN13@DECSTR:
  00046	b2 ed		 mov	 dl, -19			; ffffffedH
  00048	2a d1		 sub	 dl, cl
  0004a	30 14 30	 xor	 BYTE PTR [eax+esi], dl
  0004d	40		 inc	 eax
$LN14@DECSTR:
  0004e	3b c7		 cmp	 eax, edi
  00050	7c e5		 jl	 SHORT $LL3@DECSTR
  00052	5f		 pop	 edi
  00053	5e		 pop	 esi
  00054	5d		 pop	 ebp
  00055	c3		 ret	 0
?_DECSTR@@YAXPADH@Z ENDP				; _DECSTR
_TEXT	ENDS
PUBLIC	?size@?$basic_string@DU?$char_traits@D@std@@V?$allocator@D@2@@std@@QBEIXZ ; std::basic_string<char,std::char_traits<char>,std::allocator<char> >::size
; Function compile flags: /Ogsp
; File c:\program files (x86)\microsoft visual studio 10.0\vc\include\xstring
;	COMDAT ?size@?$basic_string@DU?$char_traits@D@std@@V?$allocator@D@2@@std@@QBEIXZ
_TEXT	SEGMENT
?size@?$basic_string@DU?$char_traits@D@std@@V?$allocator@D@2@@std@@QBEIXZ PROC ; std::basic_string<char,std::char_traits<char>,std::allocator<char> >::size, COMDAT
; _this$ = ecx

; 1512 : 		return (this->_Mysize);

  00000	8b 41 10	 mov	 eax, DWORD PTR [ecx+16]

; 1513 : 		}

  00003	c3		 ret	 0
?size@?$basic_string@DU?$char_traits@D@std@@V?$allocator@D@2@@std@@QBEIXZ ENDP ; std::basic_string<char,std::char_traits<char>,std::allocator<char> >::size
_TEXT	ENDS
PUBLIC	?size@?$vector@VioHashString@@V?$allocator@VioHashString@@@std@@@std@@QBEIXZ ; std::vector<ioHashString,std::allocator<ioHashString> >::size
; Function compile flags: /Ogsp
; File c:\program files (x86)\microsoft visual studio 10.0\vc\include\vector
;	COMDAT ?size@?$vector@VioHashString@@V?$allocator@VioHashString@@@std@@@std@@QBEIXZ
_TEXT	SEGMENT
?size@?$vector@VioHashString@@V?$allocator@VioHashString@@@std@@@std@@QBEIXZ PROC ; std::vector<ioHashString,std::allocator<ioHashString> >::size, COMDAT
; _this$ = ecx

; 879  : 		return (this->_Mylast - this->_Myfirst);

  00000	8b 41 04	 mov	 eax, DWORD PTR [ecx+4]
  00003	2b 01		 sub	 eax, DWORD PTR [ecx]
  00005	c1 f8 04	 sar	 eax, 4

; 880  : 		}

  00008	c3		 ret	 0
?size@?$vector@VioHashString@@V?$allocator@VioHashString@@@std@@@std@@QBEIXZ ENDP ; std::vector<ioHashString,std::allocator<ioHashString> >::size
_TEXT	ENDS
PUBLIC	?_Myptr@?$basic_string@DU?$char_traits@D@std@@V?$allocator@D@2@@std@@QBEPBDXZ ; std::basic_string<char,std::char_traits<char>,std::allocator<char> >::_Myptr
; Function compile flags: /Ogsp
; File c:\program files (x86)\microsoft visual studio 10.0\vc\include\xstring
;	COMDAT ?_Myptr@?$basic_string@DU?$char_traits@D@std@@V?$allocator@D@2@@std@@QBEPBDXZ
_TEXT	SEGMENT
?_Myptr@?$basic_string@DU?$char_traits@D@std@@V?$allocator@D@2@@std@@QBEPBDXZ PROC ; std::basic_string<char,std::char_traits<char>,std::allocator<char> >::_Myptr, COMDAT
; _this$ = ecx

; 2010 : 		return (this->_BUF_SIZE <= this->_Myres ? this->_Bx._Ptr
; 2011 : 			: this->_Bx._Buf);

  00000	83 79 14 10	 cmp	 DWORD PTR [ecx+20], 16	; 00000010H
  00004	72 03		 jb	 SHORT $LN3@Myptr
  00006	8b 01		 mov	 eax, DWORD PTR [ecx]

; 2012 : 		}

  00008	c3		 ret	 0
$LN3@Myptr:

; 2010 : 		return (this->_BUF_SIZE <= this->_Myres ? this->_Bx._Ptr
; 2011 : 			: this->_Bx._Buf);

  00009	8b c1		 mov	 eax, ecx

; 2012 : 		}

  0000b	c3		 ret	 0
?_Myptr@?$basic_string@DU?$char_traits@D@std@@V?$allocator@D@2@@std@@QBEPBDXZ ENDP ; std::basic_string<char,std::char_traits<char>,std::allocator<char> >::_Myptr
_TEXT	ENDS
PUBLIC	??1?$_String_val@DV?$allocator@D@std@@@std@@QAE@XZ ; std::_String_val<char,std::allocator<char> >::~_String_val<char,std::allocator<char> >
; Function compile flags: /Ogsp
;	COMDAT ??1?$_String_val@DV?$allocator@D@std@@@std@@QAE@XZ
_TEXT	SEGMENT
??1?$_String_val@DV?$allocator@D@std@@@std@@QAE@XZ PROC	; std::_String_val<char,std::allocator<char> >::~_String_val<char,std::allocator<char> >, COMDAT
; _this$ = ecx

; 459  : 		}

  00000	c3		 ret	 0
??1?$_String_val@DV?$allocator@D@std@@@std@@QAE@XZ ENDP	; std::_String_val<char,std::allocator<char> >::~_String_val<char,std::allocator<char> >
_TEXT	ENDS
PUBLIC	??0?$allocator@D@std@@QAE@XZ			; std::allocator<char>::allocator<char>
; Function compile flags: /Ogsp
; File c:\program files (x86)\microsoft visual studio 10.0\vc\include\xmemory
;	COMDAT ??0?$allocator@D@std@@QAE@XZ
_TEXT	SEGMENT
??0?$allocator@D@std@@QAE@XZ PROC			; std::allocator<char>::allocator<char>, COMDAT
; _this$ = ecx

; 161  : 	_ALLOCATOR() _THROW0()

  00000	8b c1		 mov	 eax, ecx

; 162  : 		{	// construct default allocator (do nothing)
; 163  : 		}

  00002	c3		 ret	 0
??0?$allocator@D@std@@QAE@XZ ENDP			; std::allocator<char>::allocator<char>
_TEXT	ENDS
PUBLIC	??0?$allocator@D@std@@QAE@ABV01@@Z		; std::allocator<char>::allocator<char>
; Function compile flags: /Ogsp
;	COMDAT ??0?$allocator@D@std@@QAE@ABV01@@Z
_TEXT	SEGMENT
___formal$ = 8						; size = 4
??0?$allocator@D@std@@QAE@ABV01@@Z PROC			; std::allocator<char>::allocator<char>, COMDAT
; _this$ = ecx

; 165  : 	_ALLOCATOR(const _ALLOCATOR<_Ty>&) _THROW0()

  00000	8b c1		 mov	 eax, ecx

; 166  : 		{	// construct by copying (do nothing)
; 167  : 		}

  00002	c2 04 00	 ret	 4
??0?$allocator@D@std@@QAE@ABV01@@Z ENDP			; std::allocator<char>::allocator<char>
_TEXT	ENDS
PUBLIC	??1?$_Vector_val@VioHashString@@V?$allocator@VioHashString@@@std@@@std@@QAE@XZ ; std::_Vector_val<ioHashString,std::allocator<ioHashString> >::~_Vector_val<ioHashString,std::allocator<ioHashString> >
; Function compile flags: /Ogsp
; File c:\program files (x86)\microsoft visual studio 10.0\vc\include\vector
;	COMDAT ??1?$_Vector_val@VioHashString@@V?$allocator@VioHashString@@@std@@@std@@QAE@XZ
_TEXT	SEGMENT
??1?$_Vector_val@VioHashString@@V?$allocator@VioHashString@@@std@@@std@@QAE@XZ PROC ; std::_Vector_val<ioHashString,std::allocator<ioHashString> >::~_Vector_val<ioHashString,std::allocator<ioHashString> >, COMDAT
; _this$ = ecx

; 434  : 		}

  00000	c3		 ret	 0
??1?$_Vector_val@VioHashString@@V?$allocator@VioHashString@@@std@@@std@@QAE@XZ ENDP ; std::_Vector_val<ioHashString,std::allocator<ioHashString> >::~_Vector_val<ioHashString,std::allocator<ioHashString> >
_TEXT	ENDS
PUBLIC	??0?$allocator@VioHashString@@@std@@QAE@XZ	; std::allocator<ioHashString>::allocator<ioHashString>
; Function compile flags: /Ogsp
; File c:\program files (x86)\microsoft visual studio 10.0\vc\include\xmemory
;	COMDAT ??0?$allocator@VioHashString@@@std@@QAE@XZ
_TEXT	SEGMENT
??0?$allocator@VioHashString@@@std@@QAE@XZ PROC		; std::allocator<ioHashString>::allocator<ioHashString>, COMDAT
; _this$ = ecx

; 161  : 	_ALLOCATOR() _THROW0()

  00000	8b c1		 mov	 eax, ecx

; 162  : 		{	// construct default allocator (do nothing)
; 163  : 		}

  00002	c3		 ret	 0
??0?$allocator@VioHashString@@@std@@QAE@XZ ENDP		; std::allocator<ioHashString>::allocator<ioHashString>
_TEXT	ENDS
PUBLIC	??0?$allocator@VioHashString@@@std@@QAE@ABV01@@Z ; std::allocator<ioHashString>::allocator<ioHashString>
; Function compile flags: /Ogsp
;	COMDAT ??0?$allocator@VioHashString@@@std@@QAE@ABV01@@Z
_TEXT	SEGMENT
___formal$ = 8						; size = 4
??0?$allocator@VioHashString@@@std@@QAE@ABV01@@Z PROC	; std::allocator<ioHashString>::allocator<ioHashString>, COMDAT
; _this$ = ecx

; 165  : 	_ALLOCATOR(const _ALLOCATOR<_Ty>&) _THROW0()

  00000	8b c1		 mov	 eax, ecx

; 166  : 		{	// construct by copying (do nothing)
; 167  : 		}

  00002	c2 04 00	 ret	 4
??0?$allocator@VioHashString@@@std@@QAE@ABV01@@Z ENDP	; std::allocator<ioHashString>::allocator<ioHashString>
_TEXT	ENDS
PUBLIC	?_Myptr@?$basic_string@DU?$char_traits@D@std@@V?$allocator@D@2@@std@@QAEPADXZ ; std::basic_string<char,std::char_traits<char>,std::allocator<char> >::_Myptr
; Function compile flags: /Ogsp
; File c:\program files (x86)\microsoft visual studio 10.0\vc\include\xstring
;	COMDAT ?_Myptr@?$basic_string@DU?$char_traits@D@std@@V?$allocator@D@2@@std@@QAEPADXZ
_TEXT	SEGMENT
?_Myptr@?$basic_string@DU?$char_traits@D@std@@V?$allocator@D@2@@std@@QAEPADXZ PROC ; std::basic_string<char,std::char_traits<char>,std::allocator<char> >::_Myptr, COMDAT
; _this$ = ecx

; 2004 : 		return (this->_BUF_SIZE <= this->_Myres ? this->_Bx._Ptr
; 2005 : 			: this->_Bx._Buf);

  00000	83 79 14 10	 cmp	 DWORD PTR [ecx+20], 16	; 00000010H
  00004	72 03		 jb	 SHORT $LN3@Myptr@2
  00006	8b 01		 mov	 eax, DWORD PTR [ecx]

; 2006 : 		}

  00008	c3		 ret	 0
$LN3@Myptr@2:

; 2004 : 		return (this->_BUF_SIZE <= this->_Myres ? this->_Bx._Ptr
; 2005 : 			: this->_Bx._Buf);

  00009	8b c1		 mov	 eax, ecx

; 2006 : 		}

  0000b	c3		 ret	 0
?_Myptr@?$basic_string@DU?$char_traits@D@std@@V?$allocator@D@2@@std@@QAEPADXZ ENDP ; std::basic_string<char,std::char_traits<char>,std::allocator<char> >::_Myptr
_TEXT	ENDS
PUBLIC	??_C@_0BA@JFNIOLAK@string?5too?5long?$AA@	; `string'
PUBLIC	?_Xlen@?$basic_string@DU?$char_traits@D@std@@V?$allocator@D@2@@std@@QBEXXZ ; std::basic_string<char,std::char_traits<char>,std::allocator<char> >::_Xlen
;	COMDAT ??_C@_0BA@JFNIOLAK@string?5too?5long?$AA@
CONST	SEGMENT
??_C@_0BA@JFNIOLAK@string?5too?5long?$AA@ DB 'string too long', 00H ; `string'
; Function compile flags: /Ogsp
CONST	ENDS
;	COMDAT ?_Xlen@?$basic_string@DU?$char_traits@D@std@@V?$allocator@D@2@@std@@QBEXXZ
_TEXT	SEGMENT
?_Xlen@?$basic_string@DU?$char_traits@D@std@@V?$allocator@D@2@@std@@QBEXXZ PROC ; std::basic_string<char,std::char_traits<char>,std::allocator<char> >::_Xlen, COMDAT
; _this$ = ecx

; 2016 : 		_Xlength_error("string too long");

  00000	68 00 00 00 00	 push	 OFFSET ??_C@_0BA@JFNIOLAK@string?5too?5long?$AA@
  00005	ff 15 00 00 00
	00		 call	 DWORD PTR __imp_?_Xlength_error@std@@YAXPBD@Z
$LN4@Xlen@4:
$LN3@Xlen@4:
  0000b	cc		 int	 3
?_Xlen@?$basic_string@DU?$char_traits@D@std@@V?$allocator@D@2@@std@@QBEXXZ ENDP ; std::basic_string<char,std::char_traits<char>,std::allocator<char> >::_Xlen
_TEXT	ENDS
PUBLIC	??_C@_0BI@CFPLBAOH@invalid?5string?5position?$AA@ ; `string'
PUBLIC	?_Xran@?$basic_string@DU?$char_traits@D@std@@V?$allocator@D@2@@std@@QBEXXZ ; std::basic_string<char,std::char_traits<char>,std::allocator<char> >::_Xran
EXTRN	__imp_?_Xout_of_range@std@@YAXPBD@Z:PROC
;	COMDAT ??_C@_0BI@CFPLBAOH@invalid?5string?5position?$AA@
CONST	SEGMENT
??_C@_0BI@CFPLBAOH@invalid?5string?5position?$AA@ DB 'invalid string posi'
	DB	'tion', 00H					; `string'
; Function compile flags: /Ogsp
CONST	ENDS
;	COMDAT ?_Xran@?$basic_string@DU?$char_traits@D@std@@V?$allocator@D@2@@std@@QBEXXZ
_TEXT	SEGMENT
?_Xran@?$basic_string@DU?$char_traits@D@std@@V?$allocator@D@2@@std@@QBEXXZ PROC ; std::basic_string<char,std::char_traits<char>,std::allocator<char> >::_Xran, COMDAT
; _this$ = ecx

; 2021 : 		_Xout_of_range("invalid string position");

  00000	68 00 00 00 00	 push	 OFFSET ??_C@_0BI@CFPLBAOH@invalid?5string?5position?$AA@
  00005	ff 15 00 00 00
	00		 call	 DWORD PTR __imp_?_Xout_of_range@std@@YAXPBD@Z
$LN4@Xran:
$LN3@Xran:
  0000b	cc		 int	 3
?_Xran@?$basic_string@DU?$char_traits@D@std@@V?$allocator@D@2@@std@@QBEXXZ ENDP ; std::basic_string<char,std::char_traits<char>,std::allocator<char> >::_Xran
_TEXT	ENDS
PUBLIC	?deallocate@?$allocator@D@std@@QAEXPADI@Z	; std::allocator<char>::deallocate
; Function compile flags: /Ogsp
; File c:\program files (x86)\microsoft visual studio 10.0\vc\include\xmemory
;	COMDAT ?deallocate@?$allocator@D@std@@QAEXPADI@Z
_TEXT	SEGMENT
__Ptr$ = 8						; size = 4
___formal$ = 12						; size = 4
?deallocate@?$allocator@D@std@@QAEXPADI@Z PROC		; std::allocator<char>::deallocate, COMDAT
; _this$ = ecx

; 181  : 		{	// deallocate object at _Ptr, ignore size

  00000	55		 push	 ebp
  00001	8b ec		 mov	 ebp, esp

; 182  : 		::operator delete(_Ptr);

  00003	ff 75 08	 push	 DWORD PTR __Ptr$[ebp]
  00006	e8 00 00 00 00	 call	 ??3@YAXPAX@Z		; operator delete
  0000b	59		 pop	 ecx

; 183  : 		}

  0000c	5d		 pop	 ebp
  0000d	c2 08 00	 ret	 8
?deallocate@?$allocator@D@std@@QAEXPADI@Z ENDP		; std::allocator<char>::deallocate
_TEXT	ENDS
PUBLIC	?_Xlen@?$vector@VioHashString@@V?$allocator@VioHashString@@@std@@@std@@IBEXXZ ; std::vector<ioHashString,std::allocator<ioHashString> >::_Xlen
; Function compile flags: /Ogsp
; File c:\program files (x86)\microsoft visual studio 10.0\vc\include\vector
;	COMDAT ?_Xlen@?$vector@VioHashString@@V?$allocator@VioHashString@@@std@@@std@@IBEXXZ
_TEXT	SEGMENT
?_Xlen@?$vector@VioHashString@@V?$allocator@VioHashString@@@std@@@std@@IBEXXZ PROC ; std::vector<ioHashString,std::allocator<ioHashString> >::_Xlen, COMDAT
; _this$ = ecx

; 1427 : 		_Xlength_error("vector<T> too long");

  00000	68 00 00 00 00	 push	 OFFSET ??_C@_0BD@OLBABOEK@vector?$DMT?$DO?5too?5long?$AA@
  00005	ff 15 00 00 00
	00		 call	 DWORD PTR __imp_?_Xlength_error@std@@YAXPBD@Z
$LN4@Xlen@5:
$LN3@Xlen@5:
  0000b	cc		 int	 3
?_Xlen@?$vector@VioHashString@@V?$allocator@VioHashString@@@std@@@std@@IBEXXZ ENDP ; std::vector<ioHashString,std::allocator<ioHashString> >::_Xlen
_TEXT	ENDS
PUBLIC	?deallocate@?$allocator@VioHashString@@@std@@QAEXPAVioHashString@@I@Z ; std::allocator<ioHashString>::deallocate
; Function compile flags: /Ogsp
; File c:\program files (x86)\microsoft visual studio 10.0\vc\include\xmemory
;	COMDAT ?deallocate@?$allocator@VioHashString@@@std@@QAEXPAVioHashString@@I@Z
_TEXT	SEGMENT
__Ptr$ = 8						; size = 4
___formal$ = 12						; size = 4
?deallocate@?$allocator@VioHashString@@@std@@QAEXPAVioHashString@@I@Z PROC ; std::allocator<ioHashString>::deallocate, COMDAT
; _this$ = ecx

; 181  : 		{	// deallocate object at _Ptr, ignore size

  00000	55		 push	 ebp
  00001	8b ec		 mov	 ebp, esp

; 182  : 		::operator delete(_Ptr);

  00003	ff 75 08	 push	 DWORD PTR __Ptr$[ebp]
  00006	e8 00 00 00 00	 call	 ??3@YAXPAX@Z		; operator delete
  0000b	59		 pop	 ecx

; 183  : 		}

  0000c	5d		 pop	 ebp
  0000d	c2 08 00	 ret	 8
?deallocate@?$allocator@VioHashString@@@std@@QAEXPAVioHashString@@I@Z ENDP ; std::allocator<ioHashString>::deallocate
_TEXT	ENDS
PUBLIC	??0?$_Vector_const_iterator@V?$_Vector_val@VioHashString@@V?$allocator@VioHashString@@@std@@@std@@@std@@QAE@PAVioHashString@@PBU_Container_base0@1@@Z ; std::_Vector_const_iterator<std::_Vector_val<ioHashString,std::allocator<ioHashString> > >::_Vector_const_iterator<std::_Vector_val<ioHashString,std::allocator<ioHashString> > >
; Function compile flags: /Ogsp
; File c:\program files (x86)\microsoft visual studio 10.0\vc\include\vector
;	COMDAT ??0?$_Vector_const_iterator@V?$_Vector_val@VioHashString@@V?$allocator@VioHashString@@@std@@@std@@@std@@QAE@PAVioHashString@@PBU_Container_base0@1@@Z
_TEXT	SEGMENT
__Parg$ = 8						; size = 4
__Pvector$ = 12						; size = 4
??0?$_Vector_const_iterator@V?$_Vector_val@VioHashString@@V?$allocator@VioHashString@@@std@@@std@@@std@@QAE@PAVioHashString@@PBU_Container_base0@1@@Z PROC ; std::_Vector_const_iterator<std::_Vector_val<ioHashString,std::allocator<ioHashString> > >::_Vector_const_iterator<std::_Vector_val<ioHashString,std::allocator<ioHashString> > >, COMDAT
; _this$ = ecx

; 45   : 		{	// construct with pointer _Parg

  00000	55		 push	 ebp
  00001	8b ec		 mov	 ebp, esp
  00003	8b c1		 mov	 eax, ecx
  00005	8b 4d 08	 mov	 ecx, DWORD PTR __Parg$[ebp]
  00008	89 08		 mov	 DWORD PTR [eax], ecx

; 46   : 		this->_Adopt(_Pvector);
; 47   : 		}

  0000a	5d		 pop	 ebp
  0000b	c2 08 00	 ret	 8
??0?$_Vector_const_iterator@V?$_Vector_val@VioHashString@@V?$allocator@VioHashString@@@std@@@std@@@std@@QAE@PAVioHashString@@PBU_Container_base0@1@@Z ENDP ; std::_Vector_const_iterator<std::_Vector_val<ioHashString,std::allocator<ioHashString> > >::_Vector_const_iterator<std::_Vector_val<ioHashString,std::allocator<ioHashString> > >
_TEXT	ENDS
PUBLIC	??0?$_Vector_iterator@V?$_Vector_val@VioHashString@@V?$allocator@VioHashString@@@std@@@std@@@std@@QAE@PAVioHashString@@PBU_Container_base0@1@@Z ; std::_Vector_iterator<std::_Vector_val<ioHashString,std::allocator<ioHashString> > >::_Vector_iterator<std::_Vector_val<ioHashString,std::allocator<ioHashString> > >
; Function compile flags: /Ogsp
;	COMDAT ??0?$_Vector_iterator@V?$_Vector_val@VioHashString@@V?$allocator@VioHashString@@@std@@@std@@@std@@QAE@PAVioHashString@@PBU_Container_base0@1@@Z
_TEXT	SEGMENT
__Parg$ = 8						; size = 4
__Pvector$ = 12						; size = 4
??0?$_Vector_iterator@V?$_Vector_val@VioHashString@@V?$allocator@VioHashString@@@std@@@std@@@std@@QAE@PAVioHashString@@PBU_Container_base0@1@@Z PROC ; std::_Vector_iterator<std::_Vector_val<ioHashString,std::allocator<ioHashString> > >::_Vector_iterator<std::_Vector_val<ioHashString,std::allocator<ioHashString> > >, COMDAT
; _this$ = ecx

; 304  : 		{	// construct with pointer _Parg

  00000	55		 push	 ebp
  00001	8b ec		 mov	 ebp, esp
  00003	8b c1		 mov	 eax, ecx
  00005	8b 4d 08	 mov	 ecx, DWORD PTR __Parg$[ebp]
  00008	89 08		 mov	 DWORD PTR [eax], ecx

; 305  : 		}

  0000a	5d		 pop	 ebp
  0000b	c2 08 00	 ret	 8
??0?$_Vector_iterator@V?$_Vector_val@VioHashString@@V?$allocator@VioHashString@@@std@@@std@@@std@@QAE@PAVioHashString@@PBU_Container_base0@1@@Z ENDP ; std::_Vector_iterator<std::_Vector_val<ioHashString,std::allocator<ioHashString> > >::_Vector_iterator<std::_Vector_val<ioHashString,std::allocator<ioHashString> > >
_TEXT	ENDS
PUBLIC	?_Inside@?$basic_string@DU?$char_traits@D@std@@V?$allocator@D@2@@std@@QAE_NPBD@Z ; std::basic_string<char,std::char_traits<char>,std::allocator<char> >::_Inside
; Function compile flags: /Ogsp
; File c:\program files (x86)\microsoft visual studio 10.0\vc\include\xstring
;	COMDAT ?_Inside@?$basic_string@DU?$char_traits@D@std@@V?$allocator@D@2@@std@@QAE_NPBD@Z
_TEXT	SEGMENT
__Ptr$ = 8						; size = 4
?_Inside@?$basic_string@DU?$char_traits@D@std@@V?$allocator@D@2@@std@@QAE_NPBD@Z PROC ; std::basic_string<char,std::char_traits<char>,std::allocator<char> >::_Inside, COMDAT
; _this$ = ecx

; 1973 : 		{	// test if _Ptr points inside string

  00000	55		 push	 ebp
  00001	8b ec		 mov	 ebp, esp

; 1974 : 		if (_Ptr == 0 || _Ptr < _Myptr() || _Myptr() + this->_Mysize <= _Ptr)

  00003	83 7d 08 00	 cmp	 DWORD PTR __Ptr$[ebp], 0
  00007	74 2c		 je	 SHORT $LN2@Inside@4
  00009	8b 51 14	 mov	 edx, DWORD PTR [ecx+20]
  0000c	83 fa 10	 cmp	 edx, 16			; 00000010H
  0000f	72 04		 jb	 SHORT $LN8@Inside@4
  00011	8b 01		 mov	 eax, DWORD PTR [ecx]
  00013	eb 02		 jmp	 SHORT $LN9@Inside@4
$LN8@Inside@4:
  00015	8b c1		 mov	 eax, ecx
$LN9@Inside@4:
  00017	39 45 08	 cmp	 DWORD PTR __Ptr$[ebp], eax
  0001a	72 19		 jb	 SHORT $LN2@Inside@4
  0001c	83 fa 10	 cmp	 edx, 16			; 00000010H
  0001f	72 04		 jb	 SHORT $LN12@Inside@4
  00021	8b 01		 mov	 eax, DWORD PTR [ecx]
  00023	eb 02		 jmp	 SHORT $LN13@Inside@4
$LN12@Inside@4:
  00025	8b c1		 mov	 eax, ecx
$LN13@Inside@4:
  00027	8b 49 10	 mov	 ecx, DWORD PTR [ecx+16]
  0002a	03 c8		 add	 ecx, eax
  0002c	3b 4d 08	 cmp	 ecx, DWORD PTR __Ptr$[ebp]
  0002f	76 04		 jbe	 SHORT $LN2@Inside@4

; 1976 : 		else
; 1977 : 			return (true);

  00031	b0 01		 mov	 al, 1
  00033	eb 02		 jmp	 SHORT $LN1@Inside@4
$LN2@Inside@4:

; 1975 : 			return (false);	// don't ask

  00035	32 c0		 xor	 al, al
$LN1@Inside@4:

; 1978 : 		}

  00037	5d		 pop	 ebp
  00038	c2 04 00	 ret	 4
?_Inside@?$basic_string@DU?$char_traits@D@std@@V?$allocator@D@2@@std@@QAE_NPBD@Z ENDP ; std::basic_string<char,std::char_traits<char>,std::allocator<char> >::_Inside
_TEXT	ENDS
PUBLIC	?max_size@?$allocator@VioHashString@@@std@@QBEIXZ ; std::allocator<ioHashString>::max_size
; Function compile flags: /Ogsp
; File c:\program files (x86)\microsoft visual studio 10.0\vc\include\xmemory
;	COMDAT ?max_size@?$allocator@VioHashString@@@std@@QBEIXZ
_TEXT	SEGMENT
?max_size@?$allocator@VioHashString@@@std@@QBEIXZ PROC	; std::allocator<ioHashString>::max_size, COMDAT
; _this$ = ecx

; 218  : 		_SIZT _Count = (_SIZT)(-1) / sizeof (_Ty);
; 219  : 		return (0 < _Count ? _Count : 1);

  00000	b8 ff ff ff 0f	 mov	 eax, 268435455		; 0fffffffH

; 220  : 		}

  00005	c3		 ret	 0
?max_size@?$allocator@VioHashString@@@std@@QBEIXZ ENDP	; std::allocator<ioHashString>::max_size
_TEXT	ENDS
PUBLIC	?max_size@?$allocator@D@std@@QBEIXZ		; std::allocator<char>::max_size
; Function compile flags: /Ogsp
;	COMDAT ?max_size@?$allocator@D@std@@QBEIXZ
_TEXT	SEGMENT
?max_size@?$allocator@D@std@@QBEIXZ PROC		; std::allocator<char>::max_size, COMDAT
; _this$ = ecx

; 218  : 		_SIZT _Count = (_SIZT)(-1) / sizeof (_Ty);
; 219  : 		return (0 < _Count ? _Count : 1);

  00000	83 c8 ff	 or	 eax, -1

; 220  : 		}

  00003	c3		 ret	 0
?max_size@?$allocator@D@std@@QBEIXZ ENDP		; std::allocator<char>::max_size
_TEXT	ENDS
PUBLIC	?_Compat@?$_Vector_const_iterator@V?$_Vector_val@VioHashString@@V?$allocator@VioHashString@@@std@@@std@@@std@@QBEXABV12@@Z ; std::_Vector_const_iterator<std::_Vector_val<ioHashString,std::allocator<ioHashString> > >::_Compat
; Function compile flags: /Ogsp
; File c:\program files (x86)\microsoft visual studio 10.0\vc\include\vector
;	COMDAT ?_Compat@?$_Vector_const_iterator@V?$_Vector_val@VioHashString@@V?$allocator@VioHashString@@@std@@@std@@@std@@QBEXABV12@@Z
_TEXT	SEGMENT
___formal$ = 8						; size = 4
?_Compat@?$_Vector_const_iterator@V?$_Vector_val@VioHashString@@V?$allocator@VioHashString@@@std@@@std@@@std@@QBEXABV12@@Z PROC ; std::_Vector_const_iterator<std::_Vector_val<ioHashString,std::allocator<ioHashString> > >::_Compat, COMDAT
; _this$ = ecx

; 253  : 		}

  00000	c2 04 00	 ret	 4
?_Compat@?$_Vector_const_iterator@V?$_Vector_val@VioHashString@@V?$allocator@VioHashString@@@std@@@std@@@std@@QBEXABV12@@Z ENDP ; std::_Vector_const_iterator<std::_Vector_val<ioHashString,std::allocator<ioHashString> > >::_Compat
_TEXT	ENDS
PUBLIC	??$_Allocate@VioHashString@@@std@@YAPAVioHashString@@IPAV1@@Z ; std::_Allocate<ioHashString>
; Function compile flags: /Ogsp
; File c:\program files (x86)\microsoft visual studio 10.0\vc\include\xmemory
;	COMDAT ??$_Allocate@VioHashString@@@std@@YAPAVioHashString@@IPAV1@@Z
_TEXT	SEGMENT
$T512276 = -12						; size = 12
$T512280 = 8						; size = 4
__Count$ = 8						; size = 4
___formal$ = 12						; size = 4
??$_Allocate@VioHashString@@@std@@YAPAVioHashString@@IPAV1@@Z PROC ; std::_Allocate<ioHashString>, COMDAT

; 30   : 	{	// allocate storage for _Count elements of type _Ty

  00000	55		 push	 ebp
  00001	8b ec		 mov	 ebp, esp

; 31   : 	void *_Ptr = 0;
; 32   : 
; 33   : 	if (_Count <= 0)

  00003	8b 4d 08	 mov	 ecx, DWORD PTR __Count$[ebp]
  00006	83 ec 0c	 sub	 esp, 12			; 0000000cH
  00009	33 c0		 xor	 eax, eax
  0000b	85 c9		 test	 ecx, ecx

; 34   : 		_Count = 0;
; 35   : 	else if (((_SIZT)(-1) / sizeof (_Ty) < _Count)

  0000d	74 3c		 je	 SHORT $LN5@Allocate@4

; 36   : 		|| (_Ptr = ::operator new(_Count * sizeof (_Ty))) == 0)

  0000f	81 f9 ff ff ff
	0f		 cmp	 ecx, 268435455		; 0fffffffH
  00015	77 0e		 ja	 SHORT $LN1@Allocate@4
  00017	c1 e1 04	 shl	 ecx, 4
  0001a	51		 push	 ecx
  0001b	e8 00 00 00 00	 call	 ??2@YAPAXI@Z		; operator new
  00020	59		 pop	 ecx
  00021	85 c0		 test	 eax, eax

; 38   : 
; 39   : 	return ((_Ty _FARQ *)_Ptr);

  00023	75 26		 jne	 SHORT $LN5@Allocate@4
$LN1@Allocate@4:

; 37   : 		_THROW_NCEE(bad_alloc, 0);

  00025	83 65 08 00	 and	 DWORD PTR $T512280[ebp], 0
  00029	8d 45 08	 lea	 eax, DWORD PTR $T512280[ebp]
  0002c	50		 push	 eax
  0002d	8d 4d f4	 lea	 ecx, DWORD PTR $T512276[ebp]
  00030	ff 15 00 00 00
	00		 call	 DWORD PTR __imp_??0exception@std@@QAE@ABQBD@Z
  00036	68 00 00 00 00	 push	 OFFSET __TI2?AVbad_alloc@std@@
  0003b	8d 45 f4	 lea	 eax, DWORD PTR $T512276[ebp]
  0003e	50		 push	 eax
  0003f	c7 45 f4 00 00
	00 00		 mov	 DWORD PTR $T512276[ebp], OFFSET ??_7bad_alloc@std@@6B@
  00046	e8 00 00 00 00	 call	 __CxxThrowException@8
$LN10@Allocate@4:
$LN5@Allocate@4:

; 40   : 	}

  0004b	c9		 leave
  0004c	c3		 ret	 0
$LN9@Allocate@4:
??$_Allocate@VioHashString@@@std@@YAPAVioHashString@@IPAV1@@Z ENDP ; std::_Allocate<ioHashString>
_TEXT	ENDS
PUBLIC	??$_Allocate@D@std@@YAPADIPAD@Z			; std::_Allocate<char>
; Function compile flags: /Ogsp
;	COMDAT ??$_Allocate@D@std@@YAPADIPAD@Z
_TEXT	SEGMENT
$T512285 = -12						; size = 12
$T512289 = 8						; size = 4
__Count$ = 8						; size = 4
___formal$ = 12						; size = 4
??$_Allocate@D@std@@YAPADIPAD@Z PROC			; std::_Allocate<char>, COMDAT

; 30   : 	{	// allocate storage for _Count elements of type _Ty

  00000	55		 push	 ebp
  00001	8b ec		 mov	 ebp, esp

; 31   : 	void *_Ptr = 0;

  00003	33 c0		 xor	 eax, eax
  00005	83 ec 0c	 sub	 esp, 12			; 0000000cH

; 32   : 
; 33   : 	if (_Count <= 0)

  00008	39 45 08	 cmp	 DWORD PTR __Count$[ebp], eax

; 34   : 		_Count = 0;
; 35   : 	else if (((_SIZT)(-1) / sizeof (_Ty) < _Count)

  0000b	76 39		 jbe	 SHORT $LN5@Allocate@5

; 36   : 		|| (_Ptr = ::operator new(_Count * sizeof (_Ty))) == 0)

  0000d	83 7d 08 ff	 cmp	 DWORD PTR __Count$[ebp], -1
  00011	77 0d		 ja	 SHORT $LN1@Allocate@5
  00013	ff 75 08	 push	 DWORD PTR __Count$[ebp]
  00016	e8 00 00 00 00	 call	 ??2@YAPAXI@Z		; operator new
  0001b	59		 pop	 ecx
  0001c	85 c0		 test	 eax, eax

; 38   : 
; 39   : 	return ((_Ty _FARQ *)_Ptr);

  0001e	75 26		 jne	 SHORT $LN5@Allocate@5
$LN1@Allocate@5:

; 37   : 		_THROW_NCEE(bad_alloc, 0);

  00020	83 65 08 00	 and	 DWORD PTR $T512289[ebp], 0
  00024	8d 45 08	 lea	 eax, DWORD PTR $T512289[ebp]
  00027	50		 push	 eax
  00028	8d 4d f4	 lea	 ecx, DWORD PTR $T512285[ebp]
  0002b	ff 15 00 00 00
	00		 call	 DWORD PTR __imp_??0exception@std@@QAE@ABQBD@Z
  00031	68 00 00 00 00	 push	 OFFSET __TI2?AVbad_alloc@std@@
  00036	8d 45 f4	 lea	 eax, DWORD PTR $T512285[ebp]
  00039	50		 push	 eax
  0003a	c7 45 f4 00 00
	00 00		 mov	 DWORD PTR $T512285[ebp], OFFSET ??_7bad_alloc@std@@6B@
  00041	e8 00 00 00 00	 call	 __CxxThrowException@8
$LN10@Allocate@5:
$LN5@Allocate@5:

; 40   : 	}

  00046	c9		 leave
  00047	c3		 ret	 0
$LN9@Allocate@5:
??$_Allocate@D@std@@YAPADIPAD@Z ENDP			; std::_Allocate<char>
_TEXT	ENDS
EXTRN	__imp_??0exception@std@@QAE@ABV01@@Z:PROC
; Function compile flags: /Ogsp
;	COMDAT ??0bad_alloc@std@@QAE@ABV01@@Z
_TEXT	SEGMENT
___that$ = 8						; size = 4
??0bad_alloc@std@@QAE@ABV01@@Z PROC			; std::bad_alloc::bad_alloc, COMDAT
; _this$ = ecx
  00000	55		 push	 ebp
  00001	8b ec		 mov	 ebp, esp
  00003	56		 push	 esi
  00004	ff 75 08	 push	 DWORD PTR ___that$[ebp]
  00007	8b f1		 mov	 esi, ecx
  00009	ff 15 00 00 00
	00		 call	 DWORD PTR __imp_??0exception@std@@QAE@ABV01@@Z
  0000f	c7 06 00 00 00
	00		 mov	 DWORD PTR [esi], OFFSET ??_7bad_alloc@std@@6B@
  00015	8b c6		 mov	 eax, esi
  00017	5e		 pop	 esi
  00018	5d		 pop	 ebp
  00019	c2 04 00	 ret	 4
??0bad_alloc@std@@QAE@ABV01@@Z ENDP			; std::bad_alloc::bad_alloc
_TEXT	ENDS
PUBLIC	??$forward@ABVioHashString@@@std@@YAABVioHashString@@ABV1@@Z ; std::forward<ioHashString const &>
; Function compile flags: /Ogsp
; File c:\program files (x86)\microsoft visual studio 10.0\vc\include\utility
;	COMDAT ??$forward@ABVioHashString@@@std@@YAABVioHashString@@ABV1@@Z
_TEXT	SEGMENT
__Arg$ = 8						; size = 4
??$forward@ABVioHashString@@@std@@YAABVioHashString@@ABV1@@Z PROC ; std::forward<ioHashString const &>, COMDAT

; 78   : 	{	// forward _Arg, given explicitly specified type parameter

  00000	55		 push	 ebp
  00001	8b ec		 mov	 ebp, esp

; 79   : 	return ((_Ty&&)_Arg);

  00003	8b 45 08	 mov	 eax, DWORD PTR __Arg$[ebp]

; 80   : 	}

  00006	5d		 pop	 ebp
  00007	c3		 ret	 0
??$forward@ABVioHashString@@@std@@YAABVioHashString@@ABV1@@Z ENDP ; std::forward<ioHashString const &>
_TEXT	ENDS
PUBLIC	??$forward@AAVioHashString@@@std@@YAAAVioHashString@@AAV1@@Z ; std::forward<ioHashString &>
; Function compile flags: /Ogsp
;	COMDAT ??$forward@AAVioHashString@@@std@@YAAAVioHashString@@AAV1@@Z
_TEXT	SEGMENT
__Arg$ = 8						; size = 4
??$forward@AAVioHashString@@@std@@YAAAVioHashString@@AAV1@@Z PROC ; std::forward<ioHashString &>, COMDAT

; 78   : 	{	// forward _Arg, given explicitly specified type parameter

  00000	55		 push	 ebp
  00001	8b ec		 mov	 ebp, esp

; 79   : 	return ((_Ty&&)_Arg);

  00003	8b 45 08	 mov	 eax, DWORD PTR __Arg$[ebp]

; 80   : 	}

  00006	5d		 pop	 ebp
  00007	c3		 ret	 0
??$forward@AAVioHashString@@@std@@YAAAVioHashString@@AAV1@@Z ENDP ; std::forward<ioHashString &>
_TEXT	ENDS
PUBLIC	??$_Ptr_cat@VioHashString@@V1@@std@@YA?AU_Nonscalar_ptr_iterator_tag@0@PAVioHashString@@0@Z ; std::_Ptr_cat<ioHashString,ioHashString>
; Function compile flags: /Ogsp
; File c:\program files (x86)\microsoft visual studio 10.0\vc\include\xutility
;	COMDAT ??$_Ptr_cat@VioHashString@@V1@@std@@YA?AU_Nonscalar_ptr_iterator_tag@0@PAVioHashString@@0@Z
_TEXT	SEGMENT
__Cat$ = -1						; size = 1
___formal$ = 8						; size = 4
___formal$ = 12						; size = 4
??$_Ptr_cat@VioHashString@@V1@@std@@YA?AU_Nonscalar_ptr_iterator_tag@0@PAVioHashString@@0@Z PROC ; std::_Ptr_cat<ioHashString,ioHashString>, COMDAT

; 516  : 	{	// return pointer category from pointers

  00000	55		 push	 ebp
  00001	8b ec		 mov	 ebp, esp
  00003	51		 push	 ecx

; 517  : 	typename _Ptr_cat_helper<_Elem1, _Elem2>::_Type _Cat;
; 518  : 	return (_Cat);

  00004	8a 45 ff	 mov	 al, BYTE PTR __Cat$[ebp]

; 519  : 	}

  00007	c9		 leave
  00008	c3		 ret	 0
??$_Ptr_cat@VioHashString@@V1@@std@@YA?AU_Nonscalar_ptr_iterator_tag@0@PAVioHashString@@0@Z ENDP ; std::_Ptr_cat<ioHashString,ioHashString>
_TEXT	ENDS
PUBLIC	??$_Ptr_cat@V?$_Vector_const_iterator@V?$_Vector_val@VioHashString@@V?$allocator@VioHashString@@@std@@@std@@@std@@PAVioHashString@@@std@@YA?AU_Nonscalar_ptr_iterator_tag@0@AAV?$_Vector_const_iterator@V?$_Vector_val@VioHashString@@V?$allocator@VioHashString@@@std@@@std@@@0@AAPAVioHashString@@@Z ; std::_Ptr_cat<std::_Vector_const_iterator<std::_Vector_val<ioHashString,std::allocator<ioHashString> > >,ioHashString *>
; Function compile flags: /Ogsp
;	COMDAT ??$_Ptr_cat@V?$_Vector_const_iterator@V?$_Vector_val@VioHashString@@V?$allocator@VioHashString@@@std@@@std@@@std@@PAVioHashString@@@std@@YA?AU_Nonscalar_ptr_iterator_tag@0@AAV?$_Vector_const_iterator@V?$_Vector_val@VioHashString@@V?$allocator@VioHashString@@@std@@@std@@@0@AAPAVioHashString@@@Z
_TEXT	SEGMENT
__Cat$ = -1						; size = 1
___formal$ = 8						; size = 4
___formal$ = 12						; size = 4
??$_Ptr_cat@V?$_Vector_const_iterator@V?$_Vector_val@VioHashString@@V?$allocator@VioHashString@@@std@@@std@@@std@@PAVioHashString@@@std@@YA?AU_Nonscalar_ptr_iterator_tag@0@AAV?$_Vector_const_iterator@V?$_Vector_val@VioHashString@@V?$allocator@VioHashString@@@std@@@std@@@0@AAPAVioHashString@@@Z PROC ; std::_Ptr_cat<std::_Vector_const_iterator<std::_Vector_val<ioHashString,std::allocator<ioHashString> > >,ioHashString *>, COMDAT

; 485  : 	{	// return pointer category from arbitrary arguments

  00000	55		 push	 ebp
  00001	8b ec		 mov	 ebp, esp
  00003	51		 push	 ecx

; 486  : 	_Nonscalar_ptr_iterator_tag _Cat;
; 487  : 	return (_Cat);

  00004	8a 45 ff	 mov	 al, BYTE PTR __Cat$[ebp]

; 488  : 	}

  00007	c9		 leave
  00008	c3		 ret	 0
??$_Ptr_cat@V?$_Vector_const_iterator@V?$_Vector_val@VioHashString@@V?$allocator@VioHashString@@@std@@@std@@@std@@PAVioHashString@@@std@@YA?AU_Nonscalar_ptr_iterator_tag@0@AAV?$_Vector_const_iterator@V?$_Vector_val@VioHashString@@V?$allocator@VioHashString@@@std@@@std@@@0@AAPAVioHashString@@@Z ENDP ; std::_Ptr_cat<std::_Vector_const_iterator<std::_Vector_val<ioHashString,std::allocator<ioHashString> > >,ioHashString *>
_TEXT	ENDS
PUBLIC	??$move@AAVioHashString@@@std@@YA$$QAVioHashString@@AAV1@@Z ; std::move<ioHashString &>
; Function compile flags: /Ogsp
; File c:\program files (x86)\microsoft visual studio 10.0\vc\include\utility
;	COMDAT ??$move@AAVioHashString@@@std@@YA$$QAVioHashString@@AAV1@@Z
_TEXT	SEGMENT
__Arg$ = 8						; size = 4
??$move@AAVioHashString@@@std@@YA$$QAVioHashString@@AAV1@@Z PROC ; std::move<ioHashString &>, COMDAT

; 86   : 	{	// forward _Arg as movable

  00000	55		 push	 ebp
  00001	8b ec		 mov	 ebp, esp

; 87   : 	return ((typename tr1::_Remove_reference<_Ty>::_Type&&)_Arg);

  00003	8b 45 08	 mov	 eax, DWORD PTR __Arg$[ebp]

; 88   : 	}

  00006	5d		 pop	 ebp
  00007	c3		 ret	 0
??$move@AAVioHashString@@@std@@YA$$QAVioHashString@@AAV1@@Z ENDP ; std::move<ioHashString &>
_TEXT	ENDS
PUBLIC	??D?$_Vector_const_iterator@V?$_Vector_val@VioHashString@@V?$allocator@VioHashString@@@std@@@std@@@std@@QBEABVioHashString@@XZ ; std::_Vector_const_iterator<std::_Vector_val<ioHashString,std::allocator<ioHashString> > >::operator*
; Function compile flags: /Ogsp
; File c:\program files (x86)\microsoft visual studio 10.0\vc\include\vector
;	COMDAT ??D?$_Vector_const_iterator@V?$_Vector_val@VioHashString@@V?$allocator@VioHashString@@@std@@@std@@@std@@QBEABVioHashString@@XZ
_TEXT	SEGMENT
??D?$_Vector_const_iterator@V?$_Vector_val@VioHashString@@V?$allocator@VioHashString@@@std@@@std@@@std@@QBEABVioHashString@@XZ PROC ; std::_Vector_const_iterator<std::_Vector_val<ioHashString,std::allocator<ioHashString> > >::operator*, COMDAT
; _this$ = ecx

; 64   :  #if _ITERATOR_DEBUG_LEVEL == 2
; 65   : 		if (this->_Getcont() == 0
; 66   : 			|| this->_Ptr == 0
; 67   : 			|| this->_Ptr < ((_Myvec *)this->_Getcont())->_Myfirst
; 68   : 			|| ((_Myvec *)this->_Getcont())->_Mylast <= this->_Ptr)
; 69   : 			{	// report error
; 70   : 			_DEBUG_ERROR("vector iterator not dereferencable");
; 71   : 			_SCL_SECURE_OUT_OF_RANGE;
; 72   : 			}
; 73   : 
; 74   :  #elif _ITERATOR_DEBUG_LEVEL == 1
; 75   : 		_SCL_SECURE_VALIDATE(this->_Getcont() != 0);
; 76   : 		_SCL_SECURE_VALIDATE_RANGE(
; 77   : 			this->_Ptr != 0
; 78   : 			&& ((_Myvec *)this->_Getcont())->_Myfirst <= this->_Ptr
; 79   : 			&& this->_Ptr < ((_Myvec *)this->_Getcont())->_Mylast);
; 80   :  #endif /* _ITERATOR_DEBUG_LEVEL */
; 81   : 
; 82   : 		__analysis_assume(this->_Ptr != 0);
; 83   : 
; 84   : 		return (*this->_Ptr);

  00000	8b 01		 mov	 eax, DWORD PTR [ecx]

; 85   : 		}

  00002	c3		 ret	 0
??D?$_Vector_const_iterator@V?$_Vector_val@VioHashString@@V?$allocator@VioHashString@@@std@@@std@@@std@@QBEABVioHashString@@XZ ENDP ; std::_Vector_const_iterator<std::_Vector_val<ioHashString,std::allocator<ioHashString> > >::operator*
_TEXT	ENDS
PUBLIC	??E?$_Vector_const_iterator@V?$_Vector_val@VioHashString@@V?$allocator@VioHashString@@@std@@@std@@@std@@QAEAAV01@XZ ; std::_Vector_const_iterator<std::_Vector_val<ioHashString,std::allocator<ioHashString> > >::operator++
; Function compile flags: /Ogsp
;	COMDAT ??E?$_Vector_const_iterator@V?$_Vector_val@VioHashString@@V?$allocator@VioHashString@@@std@@@std@@@std@@QAEAAV01@XZ
_TEXT	SEGMENT
??E?$_Vector_const_iterator@V?$_Vector_val@VioHashString@@V?$allocator@VioHashString@@@std@@@std@@@std@@QAEAAV01@XZ PROC ; std::_Vector_const_iterator<std::_Vector_val<ioHashString,std::allocator<ioHashString> > >::operator++, COMDAT
; _this$ = ecx

; 93   : 		{	// preincrement

  00000	8b c1		 mov	 eax, ecx

; 94   :  #if _ITERATOR_DEBUG_LEVEL == 2
; 95   : 		if (this->_Getcont() == 0
; 96   : 			|| this->_Ptr == 0
; 97   : 			|| ((_Myvec *)this->_Getcont())->_Mylast <= this->_Ptr)
; 98   : 			{	// report error
; 99   : 			_DEBUG_ERROR("vector iterator not incrementable");
; 100  : 			_SCL_SECURE_OUT_OF_RANGE;
; 101  : 			}
; 102  : 
; 103  :  #elif _ITERATOR_DEBUG_LEVEL == 1
; 104  : 		_SCL_SECURE_VALIDATE(this->_Getcont() != 0);
; 105  : 		_SCL_SECURE_VALIDATE_RANGE(
; 106  : 			this->_Ptr != 0
; 107  : 			&& this->_Ptr < ((_Myvec *)this->_Getcont())->_Mylast);
; 108  :  #endif /* _ITERATOR_DEBUG_LEVEL */
; 109  : 
; 110  : 		++this->_Ptr;

  00002	83 00 10	 add	 DWORD PTR [eax], 16	; 00000010H

; 111  : 		return (*this);
; 112  : 		}

  00005	c3		 ret	 0
??E?$_Vector_const_iterator@V?$_Vector_val@VioHashString@@V?$allocator@VioHashString@@@std@@@std@@@std@@QAEAAV01@XZ ENDP ; std::_Vector_const_iterator<std::_Vector_val<ioHashString,std::allocator<ioHashString> > >::operator++
_TEXT	ENDS
PUBLIC	??_GioHashString@@QAEPAXI@Z			; ioHashString::`scalar deleting destructor'
; Function compile flags: /Ogsp
;	COMDAT ??_GioHashString@@QAEPAXI@Z
_TEXT	SEGMENT
___flags$ = 8						; size = 4
??_GioHashString@@QAEPAXI@Z PROC			; ioHashString::`scalar deleting destructor', COMDAT
; _this$ = ecx
  00000	55		 push	 ebp
  00001	8b ec		 mov	 ebp, esp
  00003	56		 push	 esi
  00004	8b f1		 mov	 esi, ecx
  00006	ff 15 00 00 00
	00		 call	 DWORD PTR __imp_??1ioHashString@@QAE@XZ
  0000c	f6 45 08 01	 test	 BYTE PTR ___flags$[ebp], 1
  00010	74 07		 je	 SHORT $LN1@scalar@3
  00012	56		 push	 esi
  00013	e8 00 00 00 00	 call	 ??3@YAXPAX@Z		; operator delete
  00018	59		 pop	 ecx
$LN1@scalar@3:
  00019	8b c6		 mov	 eax, esi
  0001b	5e		 pop	 esi
  0001c	5d		 pop	 ebp
  0001d	c2 04 00	 ret	 4
??_GioHashString@@QAEPAXI@Z ENDP			; ioHashString::`scalar deleting destructor'
_TEXT	ENDS
PUBLIC	??1?$_Vector_val@V?$basic_string@DU?$char_traits@D@std@@V?$allocator@D@2@@std@@V?$allocator@V?$basic_string@DU?$char_traits@D@std@@V?$allocator@D@2@@std@@@2@@std@@QAE@XZ ; std::_Vector_val<std::basic_string<char,std::char_traits<char>,std::allocator<char> >,std::allocator<std::basic_string<char,std::char_traits<char>,std::allocator<char> > > >::~_Vector_val<std::basic_string<char,std::char_traits<char>,std::allocator<char> >,std::allocator<std::basic_string<char,std::char_traits<char>,std::allocator<char> > > >
; Function compile flags: /Ogsp
;	COMDAT ??1?$_Vector_val@V?$basic_string@DU?$char_traits@D@std@@V?$allocator@D@2@@std@@V?$allocator@V?$basic_string@DU?$char_traits@D@std@@V?$allocator@D@2@@std@@@2@@std@@QAE@XZ
_TEXT	SEGMENT
??1?$_Vector_val@V?$basic_string@DU?$char_traits@D@std@@V?$allocator@D@2@@std@@V?$allocator@V?$basic_string@DU?$char_traits@D@std@@V?$allocator@D@2@@std@@@2@@std@@QAE@XZ PROC ; std::_Vector_val<std::basic_string<char,std::char_traits<char>,std::allocator<char> >,std::allocator<std::basic_string<char,std::char_traits<char>,std::allocator<char> > > >::~_Vector_val<std::basic_string<char,std::char_traits<char>,std::allocator<char> >,std::allocator<std::basic_string<char,std::char_traits<char>,std::allocator<char> > > >, COMDAT
; _this$ = ecx

; 434  : 		}

  00000	c3		 ret	 0
??1?$_Vector_val@V?$basic_string@DU?$char_traits@D@std@@V?$allocator@D@2@@std@@V?$allocator@V?$basic_string@DU?$char_traits@D@std@@V?$allocator@D@2@@std@@@2@@std@@QAE@XZ ENDP ; std::_Vector_val<std::basic_string<char,std::char_traits<char>,std::allocator<char> >,std::allocator<std::basic_string<char,std::char_traits<char>,std::allocator<char> > > >::~_Vector_val<std::basic_string<char,std::char_traits<char>,std::allocator<char> >,std::allocator<std::basic_string<char,std::char_traits<char>,std::allocator<char> > > >
_TEXT	ENDS
PUBLIC	?deallocate@?$allocator@V?$basic_string@DU?$char_traits@D@std@@V?$allocator@D@2@@std@@@std@@QAEXPAV?$basic_string@DU?$char_traits@D@std@@V?$allocator@D@2@@2@I@Z ; std::allocator<std::basic_string<char,std::char_traits<char>,std::allocator<char> > >::deallocate
; Function compile flags: /Ogsp
; File c:\program files (x86)\microsoft visual studio 10.0\vc\include\xmemory
;	COMDAT ?deallocate@?$allocator@V?$basic_string@DU?$char_traits@D@std@@V?$allocator@D@2@@std@@@std@@QAEXPAV?$basic_string@DU?$char_traits@D@std@@V?$allocator@D@2@@2@I@Z
_TEXT	SEGMENT
__Ptr$ = 8						; size = 4
___formal$ = 12						; size = 4
?deallocate@?$allocator@V?$basic_string@DU?$char_traits@D@std@@V?$allocator@D@2@@std@@@std@@QAEXPAV?$basic_string@DU?$char_traits@D@std@@V?$allocator@D@2@@2@I@Z PROC ; std::allocator<std::basic_string<char,std::char_traits<char>,std::allocator<char> > >::deallocate, COMDAT
; _this$ = ecx

; 181  : 		{	// deallocate object at _Ptr, ignore size

  00000	55		 push	 ebp
  00001	8b ec		 mov	 ebp, esp

; 182  : 		::operator delete(_Ptr);

  00003	ff 75 08	 push	 DWORD PTR __Ptr$[ebp]
  00006	e8 00 00 00 00	 call	 ??3@YAXPAX@Z		; operator delete
  0000b	59		 pop	 ecx

; 183  : 		}

  0000c	5d		 pop	 ebp
  0000d	c2 08 00	 ret	 8
?deallocate@?$allocator@V?$basic_string@DU?$char_traits@D@std@@V?$allocator@D@2@@std@@@std@@QAEXPAV?$basic_string@DU?$char_traits@D@std@@V?$allocator@D@2@@2@I@Z ENDP ; std::allocator<std::basic_string<char,std::char_traits<char>,std::allocator<char> > >::deallocate
_TEXT	ENDS
PUBLIC	??$_Construct@VioHashString@@ABV1@@std@@YAXPAVioHashString@@ABV1@@Z ; std::_Construct<ioHashString,ioHashString const &>
EXTRN	___CxxFrameHandler3:PROC
EXTRN	__EH_epilog3:PROC
EXTRN	__EH_prolog3:PROC
;	COMDAT xdata$x
; File c:\program files (x86)\microsoft visual studio 10.0\vc\include\utility
xdata$x	SEGMENT
__unwindtable$??$_Construct@VioHashString@@ABV1@@std@@YAXPAVioHashString@@ABV1@@Z DD 0ffffffffH
	DD	FLAT:__unwindfunclet$??$_Construct@VioHashString@@ABV1@@std@@YAXPAVioHashString@@ABV1@@Z$0
__ehfuncinfo$??$_Construct@VioHashString@@ABV1@@std@@YAXPAVioHashString@@ABV1@@Z DD 019930522H
	DD	01H
	DD	FLAT:__unwindtable$??$_Construct@VioHashString@@ABV1@@std@@YAXPAVioHashString@@ABV1@@Z
	DD	2 DUP(00H)
	DD	2 DUP(00H)
	DD	00H
	DD	01H
; Function compile flags: /Ogsp
; File c:\program files (x86)\microsoft visual studio 10.0\vc\include\xmemory
xdata$x	ENDS
;	COMDAT ??$_Construct@VioHashString@@ABV1@@std@@YAXPAVioHashString@@ABV1@@Z
_TEXT	SEGMENT
$T512321 = -16						; size = 4
__$EHRec$ = -12						; size = 12
__Vptr$ = 8						; size = 4
__Ptr$ = 8						; size = 4
__Val$ = 12						; size = 4
??$_Construct@VioHashString@@ABV1@@std@@YAXPAVioHashString@@ABV1@@Z PROC ; std::_Construct<ioHashString,ioHashString const &>, COMDAT

; 46   : 	{	// construct object at _Ptr with value _Val

  00000	6a 04		 push	 4
  00002	b8 00 00 00 00	 mov	 eax, __ehhandler$??$_Construct@VioHashString@@ABV1@@std@@YAXPAVioHashString@@ABV1@@Z
  00007	e8 00 00 00 00	 call	 __EH_prolog3

; 47   : 	void _FARQ *_Vptr = _Ptr;

  0000c	8b 4d 08	 mov	 ecx, DWORD PTR __Ptr$[ebp]
  0000f	89 4d 08	 mov	 DWORD PTR __Vptr$[ebp], ecx

; 48   : 	::new (_Vptr) _Ty1(_STD forward<_Ty2>(_Val));

  00012	89 4d f0	 mov	 DWORD PTR $T512321[ebp], ecx
  00015	83 65 fc 00	 and	 DWORD PTR __$EHRec$[ebp+8], 0
  00019	85 c9		 test	 ecx, ecx
  0001b	74 09		 je	 SHORT $LN3@Construct
  0001d	ff 75 0c	 push	 DWORD PTR __Val$[ebp]
  00020	ff 15 00 00 00
	00		 call	 DWORD PTR __imp_??0ioHashString@@QAE@ABV0@@Z
$LN3@Construct:

; 49   : 	}

  00026	e8 00 00 00 00	 call	 __EH_epilog3
  0002b	c3		 ret	 0
_TEXT	ENDS
;	COMDAT text$x
text$x	SEGMENT
__unwindfunclet$??$_Construct@VioHashString@@ABV1@@std@@YAXPAVioHashString@@ABV1@@Z$0:
  00000	ff 75 08	 push	 DWORD PTR __Vptr$[ebp]
  00003	ff 75 f0	 push	 DWORD PTR $T512321[ebp]
  00006	e8 00 00 00 00	 call	 ??3@YAXPAX0@Z		; operator delete
  0000b	59		 pop	 ecx
  0000c	59		 pop	 ecx
  0000d	c3		 ret	 0
__ehhandler$??$_Construct@VioHashString@@ABV1@@std@@YAXPAVioHashString@@ABV1@@Z:
  0000e	8b 54 24 08	 mov	 edx, DWORD PTR [esp+8]
  00012	8d 42 0c	 lea	 eax, DWORD PTR [edx+12]
  00015	8b 4a ec	 mov	 ecx, DWORD PTR [edx-20]
  00018	33 c8		 xor	 ecx, eax
  0001a	e8 00 00 00 00	 call	 @__security_check_cookie@4
  0001f	b8 00 00 00 00	 mov	 eax, OFFSET __ehfuncinfo$??$_Construct@VioHashString@@ABV1@@std@@YAXPAVioHashString@@ABV1@@Z
  00024	e9 00 00 00 00	 jmp	 ___CxxFrameHandler3
text$x	ENDS
??$_Construct@VioHashString@@ABV1@@std@@YAXPAVioHashString@@ABV1@@Z ENDP ; std::_Construct<ioHashString,ioHashString const &>
PUBLIC	??$_Ptr_cat@V?$basic_string@DU?$char_traits@D@std@@V?$allocator@D@2@@std@@V12@@std@@YA?AU_Nonscalar_ptr_iterator_tag@0@PAV?$basic_string@DU?$char_traits@D@std@@V?$allocator@D@2@@0@0@Z ; std::_Ptr_cat<std::basic_string<char,std::char_traits<char>,std::allocator<char> >,std::basic_string<char,std::char_traits<char>,std::allocator<char> > >
; Function compile flags: /Ogsp
; File c:\program files (x86)\microsoft visual studio 10.0\vc\include\xutility
;	COMDAT ??$_Ptr_cat@V?$basic_string@DU?$char_traits@D@std@@V?$allocator@D@2@@std@@V12@@std@@YA?AU_Nonscalar_ptr_iterator_tag@0@PAV?$basic_string@DU?$char_traits@D@std@@V?$allocator@D@2@@0@0@Z
_TEXT	SEGMENT
__Cat$ = -1						; size = 1
___formal$ = 8						; size = 4
___formal$ = 12						; size = 4
??$_Ptr_cat@V?$basic_string@DU?$char_traits@D@std@@V?$allocator@D@2@@std@@V12@@std@@YA?AU_Nonscalar_ptr_iterator_tag@0@PAV?$basic_string@DU?$char_traits@D@std@@V?$allocator@D@2@@0@0@Z PROC ; std::_Ptr_cat<std::basic_string<char,std::char_traits<char>,std::allocator<char> >,std::basic_string<char,std::char_traits<char>,std::allocator<char> > >, COMDAT

; 516  : 	{	// return pointer category from pointers

  00000	55		 push	 ebp
  00001	8b ec		 mov	 ebp, esp
  00003	51		 push	 ecx

; 517  : 	typename _Ptr_cat_helper<_Elem1, _Elem2>::_Type _Cat;
; 518  : 	return (_Cat);

  00004	8a 45 ff	 mov	 al, BYTE PTR __Cat$[ebp]

; 519  : 	}

  00007	c9		 leave
  00008	c3		 ret	 0
??$_Ptr_cat@V?$basic_string@DU?$char_traits@D@std@@V?$allocator@D@2@@std@@V12@@std@@YA?AU_Nonscalar_ptr_iterator_tag@0@PAV?$basic_string@DU?$char_traits@D@std@@V?$allocator@D@2@@0@0@Z ENDP ; std::_Ptr_cat<std::basic_string<char,std::char_traits<char>,std::allocator<char> >,std::basic_string<char,std::char_traits<char>,std::allocator<char> > >
_TEXT	ENDS
PUBLIC	?SetMissionState@ioMission@@QAEXHE@Z		; ioMission::SetMissionState
; Function compile flags: /Ogsp
; File d:\lost saga for developer\youtube\tutorial\source\src\lsclient\iomission.cpp
;	COMDAT ?SetMissionState@ioMission@@QAEXHE@Z
_TEXT	SEGMENT
_iCurAchieveValue$ = 8					; size = 4
_byCurAchieveValue$ = 12				; size = 1
?SetMissionState@ioMission@@QAEXHE@Z PROC		; ioMission::SetMissionState, COMDAT
; _this$ = ecx

; 210  : {

  00000	55		 push	 ebp
  00001	8b ec		 mov	 ebp, esp
  00003	56		 push	 esi

; 211  : 	SetCurAchieveValue( iCurAchieveValue );

  00004	ff 75 08	 push	 DWORD PTR _iCurAchieveValue$[ebp]
  00007	8b f1		 mov	 esi, ecx
  00009	e8 00 00 00 00	 call	 ?SetCurAchieveValue@ioMission@@IAEXH@Z ; ioMission::SetCurAchieveValue

; 212  : 	SetClearMissionType( byCurAchieveValue );

  0000e	ff 75 0c	 push	 DWORD PTR _byCurAchieveValue$[ebp]
  00011	8b ce		 mov	 ecx, esi
  00013	e8 00 00 00 00	 call	 ?SetClearMissionType@ioMission@@IAEXE@Z ; ioMission::SetClearMissionType

; 213  : 	SetSortType();

  00018	8b ce		 mov	 ecx, esi
  0001a	e8 00 00 00 00	 call	 ?SetSortType@ioMission@@IAEXXZ ; ioMission::SetSortType
  0001f	5e		 pop	 esi

; 214  : }

  00020	5d		 pop	 ebp
  00021	c2 08 00	 ret	 8
?SetMissionState@ioMission@@QAEXHE@Z ENDP		; ioMission::SetMissionState
_TEXT	ENDS
PUBLIC	__$ArrayPad$
PUBLIC	?Process@ioLoginTimeMission@@UAE_NXZ		; ioLoginTimeMission::Process
EXTRN	??1SP2Packet@@UAE@XZ:PROC			; SP2Packet::~SP2Packet
EXTRN	?SendToServer@TCPNetwork@@YAXAAVSP2Packet@@@Z:PROC ; TCPNetwork::SendToServer
EXTRN	??6SP2Packet@@QAEAAV0@H@Z:PROC			; SP2Packet::operator<<
EXTRN	??0SP2Packet@@QAE@K@Z:PROC			; SP2Packet::SP2Packet
EXTRN	?GetServerTime@ioMyInfo@@QAEXAAU_SYSTEMTIME@@@Z:PROC ; ioMyInfo::GetServerTime
EXTRN	?GetSingleton@ioMyInfo@@SAAAV1@XZ:PROC		; ioMyInfo::GetSingleton
EXTRN	__chkstk:PROC
;	COMDAT xdata$x
; File c:\program files (x86)\microsoft visual studio 10.0\vc\atlmfc\include\atltime.inl
xdata$x	SEGMENT
__unwindtable$?Process@ioLoginTimeMission@@UAE_NXZ DD 0ffffffffH
	DD	FLAT:__unwindfunclet$?Process@ioLoginTimeMission@@UAE_NXZ$0
__ehfuncinfo$?Process@ioLoginTimeMission@@UAE_NXZ DD 019930522H
	DD	01H
	DD	FLAT:__unwindtable$?Process@ioLoginTimeMission@@UAE_NXZ
	DD	2 DUP(00H)
	DD	2 DUP(00H)
	DD	00H
	DD	01H
; Function compile flags: /Ogsp
; File d:\lost saga for developer\youtube\tutorial\source\src\lsclient\iomission.cpp
xdata$x	ENDS
;	COMDAT ?Process@ioLoginTimeMission@@UAE_NXZ
_TEXT	SEGMENT
_CurServerTime$508604 = -32832				; size = 8
_kPacket$508609 = -32824				; size = 32792
_rkServerTime$508603 = -32				; size = 16
__$ArrayPad$ = -16					; size = 4
__$EHRec$ = -12						; size = 12
?Process@ioLoginTimeMission@@UAE_NXZ PROC		; ioLoginTimeMission::Process, COMDAT
; _this$ = ecx

; 262  : {

  00000	55		 push	 ebp
  00001	8b ec		 mov	 ebp, esp
  00003	6a ff		 push	 -1
  00005	68 00 00 00 00	 push	 __ehhandler$?Process@ioLoginTimeMission@@UAE_NXZ
  0000a	64 a1 00 00 00
	00		 mov	 eax, DWORD PTR fs:0
  00010	50		 push	 eax
  00011	b8 34 80 00 00	 mov	 eax, 32820		; 00008034H
  00016	e8 00 00 00 00	 call	 __chkstk
  0001b	a1 00 00 00 00	 mov	 eax, DWORD PTR ___security_cookie
  00020	33 c5		 xor	 eax, ebp
  00022	89 45 f0	 mov	 DWORD PTR __$ArrayPad$[ebp], eax
  00025	56		 push	 esi
  00026	50		 push	 eax
  00027	8d 45 f4	 lea	 eax, DWORD PTR __$EHRec$[ebp]
  0002a	64 a3 00 00 00
	00		 mov	 DWORD PTR fs:0, eax
  00030	8b f1		 mov	 esi, ecx

; 263  : 	if ( m_byClearMissionType != MIS_PROGRESS )

  00032	80 7e 30 01	 cmp	 BYTE PTR [esi+48], 1

; 264  : 		return false;

  00036	0f 85 de 00 00
	00		 jne	 $LN2@Process

; 265  : 
; 266  : 	enum { PROCESS_TIC = 30000, };
; 267  : 
; 268  : 	DWORD dwCurTime = FRAMEGETTIME();

  0003c	ff 15 00 00 00
	00		 call	 DWORD PTR __imp_?GetSingleton@ioFrameTimer@@SAAAV1@XZ
  00042	8b c8		 mov	 ecx, eax
  00044	ff 15 00 00 00
	00		 call	 DWORD PTR __imp_?GetLoopSec@ioFrameTimer@@QBEKXZ

; 269  : 	if ( m_dwProcessTime + PROCESS_TIC < dwCurTime )

  0004a	8b 4e 78	 mov	 ecx, DWORD PTR [esi+120]
  0004d	81 c1 30 75 00
	00		 add	 ecx, 30000		; 00007530H
  00053	3b c8		 cmp	 ecx, eax
  00055	0f 83 bf 00 00
	00		 jae	 $LN2@Process

; 270  : 	{
; 271  : 		m_dwProcessTime = dwCurTime;

  0005b	89 46 78	 mov	 DWORD PTR [esi+120], eax

; 272  : 
; 273  : 		SYSTEMTIME rkServerTime;
; 274  : 		g_MyInfo.GetServerTime( rkServerTime );

  0005e	8d 45 e0	 lea	 eax, DWORD PTR _rkServerTime$508603[ebp]
  00061	50		 push	 eax
  00062	e8 00 00 00 00	 call	 ?GetSingleton@ioMyInfo@@SAAAV1@XZ ; ioMyInfo::GetSingleton
  00067	8b c8		 mov	 ecx, eax
  00069	e8 00 00 00 00	 call	 ?GetServerTime@ioMyInfo@@QAEXAAU_SYSTEMTIME@@@Z ; ioMyInfo::GetServerTime

; 275  : 		CTime CurServerTime( rkServerTime.wYear, rkServerTime.wMonth, rkServerTime.wDay, rkServerTime.wHour, rkServerTime.wMinute, rkServerTime.wSecond );

  0006e	0f b7 45 ec	 movzx	 eax, WORD PTR _rkServerTime$508603[ebp+12]
  00072	6a ff		 push	 -1
  00074	50		 push	 eax
  00075	0f b7 45 ea	 movzx	 eax, WORD PTR _rkServerTime$508603[ebp+10]
  00079	50		 push	 eax
  0007a	0f b7 45 e8	 movzx	 eax, WORD PTR _rkServerTime$508603[ebp+8]
  0007e	50		 push	 eax
  0007f	0f b7 45 e6	 movzx	 eax, WORD PTR _rkServerTime$508603[ebp+6]
  00083	50		 push	 eax
  00084	0f b7 45 e2	 movzx	 eax, WORD PTR _rkServerTime$508603[ebp+2]
  00088	50		 push	 eax
  00089	0f b7 45 e0	 movzx	 eax, WORD PTR _rkServerTime$508603[ebp]
  0008d	50		 push	 eax
  0008e	8d 8d c0 7f ff
	ff		 lea	 ecx, DWORD PTR _CurServerTime$508604[ebp]
  00094	e8 00 00 00 00	 call	 ??0CTime@ATL@@QAE@HHHHHHH@Z ; ATL::CTime::CTime

; 276  : 		
; 277  : 		CTimeSpan GapTime = CurServerTime - m_NowTime;

  00099	8b 85 c0 7f ff
	ff		 mov	 eax, DWORD PTR _CurServerTime$508604[ebp]
  0009f	2b 46 6c	 sub	 eax, DWORD PTR [esi+108]
  000a2	8b 8d c4 7f ff
	ff		 mov	 ecx, DWORD PTR _CurServerTime$508604[ebp+4]
  000a8	1b 4e 70	 sbb	 ecx, DWORD PTR [esi+112]

; 278  : 
; 279  : 		int iGapMinute = GapTime.GetTotalMinutes() - m_iGapMinute;

  000ab	6a 00		 push	 0
  000ad	6a 3c		 push	 60			; 0000003cH
  000af	51		 push	 ecx
  000b0	50		 push	 eax
  000b1	e8 00 00 00 00	 call	 __alldiv
  000b6	8b c8		 mov	 ecx, eax
  000b8	2b 4e 7c	 sub	 ecx, DWORD PTR [esi+124]

; 280  : 		m_iGapMinute = GapTime.GetTotalMinutes();

  000bb	89 46 7c	 mov	 DWORD PTR [esi+124], eax

; 281  : 		SetCurAchieveValue( m_iCurAchieveValue + iGapMinute );

  000be	8b 46 34	 mov	 eax, DWORD PTR [esi+52]
  000c1	03 c1		 add	 eax, ecx
  000c3	50		 push	 eax
  000c4	8b ce		 mov	 ecx, esi
  000c6	e8 00 00 00 00	 call	 ?SetCurAchieveValue@ioMission@@IAEXH@Z ; ioMission::SetCurAchieveValue

; 282  : 		  
; 283  : 		if ( m_iCurAchieveValue >= GetMaxAchieveValue() )

  000cb	8b 06		 mov	 eax, DWORD PTR [esi]
  000cd	8b ce		 mov	 ecx, esi
  000cf	ff 10		 call	 DWORD PTR [eax]
  000d1	8b 4e 34	 mov	 ecx, DWORD PTR [esi+52]
  000d4	3b 08		 cmp	 ecx, DWORD PTR [eax]
  000d6	7c 3e		 jl	 SHORT $LN1@Process

; 284  : 		{
; 285  : 			SP2Packet kPacket( CTPK_MISSION_TIME_CHECK );

  000d8	68 45 03 00 00	 push	 837			; 00000345H
  000dd	8d 8d c8 7f ff
	ff		 lea	 ecx, DWORD PTR _kPacket$508609[ebp]
  000e3	e8 00 00 00 00	 call	 ??0SP2Packet@@QAE@K@Z	; SP2Packet::SP2Packet

; 286  : 			kPacket << m_iMagicCode;

  000e8	ff 76 08	 push	 DWORD PTR [esi+8]
  000eb	83 65 fc 00	 and	 DWORD PTR __$EHRec$[ebp+8], 0
  000ef	8d 8d c8 7f ff
	ff		 lea	 ecx, DWORD PTR _kPacket$508609[ebp]
  000f5	e8 00 00 00 00	 call	 ??6SP2Packet@@QAEAAV0@H@Z ; SP2Packet::operator<<

; 287  : 			TCPNetwork::SendToServer( kPacket );

  000fa	8d 85 c8 7f ff
	ff		 lea	 eax, DWORD PTR _kPacket$508609[ebp]
  00100	50		 push	 eax
  00101	e8 00 00 00 00	 call	 ?SendToServer@TCPNetwork@@YAXAAVSP2Packet@@@Z ; TCPNetwork::SendToServer

; 288  : 		}

  00106	83 4d fc ff	 or	 DWORD PTR __$EHRec$[ebp+8], -1
  0010a	59		 pop	 ecx
  0010b	8d 8d c8 7f ff
	ff		 lea	 ecx, DWORD PTR _kPacket$508609[ebp]
  00111	e8 00 00 00 00	 call	 ??1SP2Packet@@UAE@XZ	; SP2Packet::~SP2Packet
$LN1@Process:

; 289  : 		return true;

  00116	b0 01		 mov	 al, 1
  00118	eb 02		 jmp	 SHORT $LN4@Process
$LN2@Process:

; 290  : 	}
; 291  : 
; 292  : 	return false;

  0011a	32 c0		 xor	 al, al
$LN4@Process:

; 293  : }

  0011c	8b 4d f4	 mov	 ecx, DWORD PTR __$EHRec$[ebp]
  0011f	64 89 0d 00 00
	00 00		 mov	 DWORD PTR fs:0, ecx
  00126	59		 pop	 ecx
  00127	5e		 pop	 esi
  00128	8b 4d f0	 mov	 ecx, DWORD PTR __$ArrayPad$[ebp]
  0012b	33 cd		 xor	 ecx, ebp
  0012d	e8 00 00 00 00	 call	 @__security_check_cookie@4
  00132	c9		 leave
  00133	c3		 ret	 0
_TEXT	ENDS
;	COMDAT text$x
text$x	SEGMENT
__unwindfunclet$?Process@ioLoginTimeMission@@UAE_NXZ$0:
  00000	8d 8d c8 7f ff
	ff		 lea	 ecx, DWORD PTR _kPacket$508609[ebp]
  00006	e9 00 00 00 00	 jmp	 ??1SP2Packet@@UAE@XZ	; SP2Packet::~SP2Packet
__ehhandler$?Process@ioLoginTimeMission@@UAE_NXZ:
  0000b	8b 54 24 08	 mov	 edx, DWORD PTR [esp+8]
  0000f	8d 42 0c	 lea	 eax, DWORD PTR [edx+12]
  00012	8b 8a c4 7f ff
	ff		 mov	 ecx, DWORD PTR [edx-32828]
  00018	33 c8		 xor	 ecx, eax
  0001a	e8 00 00 00 00	 call	 @__security_check_cookie@4
  0001f	8b 4a fc	 mov	 ecx, DWORD PTR [edx-4]
  00022	33 c8		 xor	 ecx, eax
  00024	e8 00 00 00 00	 call	 @__security_check_cookie@4
  00029	b8 00 00 00 00	 mov	 eax, OFFSET __ehfuncinfo$?Process@ioLoginTimeMission@@UAE_NXZ
  0002e	e9 00 00 00 00	 jmp	 ___CxxFrameHandler3
text$x	ENDS
?Process@ioLoginTimeMission@@UAE_NXZ ENDP		; ioLoginTimeMission::Process
PUBLIC	?begin@?$vector@V?$basic_string@DU?$char_traits@D@std@@V?$allocator@D@2@@std@@V?$allocator@V?$basic_string@DU?$char_traits@D@std@@V?$allocator@D@2@@std@@@2@@std@@QBE?AV?$_Vector_const_iterator@V?$_Vector_val@V?$basic_string@DU?$char_traits@D@std@@V?$allocator@D@2@@std@@V?$allocator@V?$basic_string@DU?$char_traits@D@std@@V?$allocator@D@2@@std@@@2@@std@@@2@XZ ; std::vector<std::basic_string<char,std::char_traits<char>,std::allocator<char> >,std::allocator<std::basic_string<char,std::char_traits<char>,std::allocator<char> > > >::begin
; Function compile flags: /Ogsp
; File c:\program files (x86)\microsoft visual studio 10.0\vc\include\vector
;	COMDAT ?begin@?$vector@V?$basic_string@DU?$char_traits@D@std@@V?$allocator@D@2@@std@@V?$allocator@V?$basic_string@DU?$char_traits@D@std@@V?$allocator@D@2@@std@@@2@@std@@QBE?AV?$_Vector_const_iterator@V?$_Vector_val@V?$basic_string@DU?$char_traits@D@std@@V?$allocator@D@2@@std@@V?$allocator@V?$basic_string@DU?$char_traits@D@std@@V?$allocator@D@2@@std@@@2@@std@@@2@XZ
_TEXT	SEGMENT
___$ReturnUdt$ = 8					; size = 4
?begin@?$vector@V?$basic_string@DU?$char_traits@D@std@@V?$allocator@D@2@@std@@V?$allocator@V?$basic_string@DU?$char_traits@D@std@@V?$allocator@D@2@@std@@@2@@std@@QBE?AV?$_Vector_const_iterator@V?$_Vector_val@V?$basic_string@DU?$char_traits@D@std@@V?$allocator@D@2@@std@@V?$allocator@V?$basic_string@DU?$char_traits@D@std@@V?$allocator@D@2@@std@@@2@@std@@@2@XZ PROC ; std::vector<std::basic_string<char,std::char_traits<char>,std::allocator<char> >,std::allocator<std::basic_string<char,std::char_traits<char>,std::allocator<char> > > >::begin, COMDAT
; _this$ = ecx

; 786  : 		{	// return iterator for beginning of nonmutable sequence

  00000	55		 push	 ebp
  00001	8b ec		 mov	 ebp, esp

; 787  : 		return (const_iterator(this->_Myfirst, this));

  00003	8b 09		 mov	 ecx, DWORD PTR [ecx]
  00005	8b 45 08	 mov	 eax, DWORD PTR ___$ReturnUdt$[ebp]
  00008	89 08		 mov	 DWORD PTR [eax], ecx

; 788  : 		}

  0000a	5d		 pop	 ebp
  0000b	c2 04 00	 ret	 4
?begin@?$vector@V?$basic_string@DU?$char_traits@D@std@@V?$allocator@D@2@@std@@V?$allocator@V?$basic_string@DU?$char_traits@D@std@@V?$allocator@D@2@@std@@@2@@std@@QBE?AV?$_Vector_const_iterator@V?$_Vector_val@V?$basic_string@DU?$char_traits@D@std@@V?$allocator@D@2@@std@@V?$allocator@V?$basic_string@DU?$char_traits@D@std@@V?$allocator@D@2@@std@@@2@@std@@@2@XZ ENDP ; std::vector<std::basic_string<char,std::char_traits<char>,std::allocator<char> >,std::allocator<std::basic_string<char,std::char_traits<char>,std::allocator<char> > > >::begin
_TEXT	ENDS
PUBLIC	?end@?$vector@V?$basic_string@DU?$char_traits@D@std@@V?$allocator@D@2@@std@@V?$allocator@V?$basic_string@DU?$char_traits@D@std@@V?$allocator@D@2@@std@@@2@@std@@QBE?AV?$_Vector_const_iterator@V?$_Vector_val@V?$basic_string@DU?$char_traits@D@std@@V?$allocator@D@2@@std@@V?$allocator@V?$basic_string@DU?$char_traits@D@std@@V?$allocator@D@2@@std@@@2@@std@@@2@XZ ; std::vector<std::basic_string<char,std::char_traits<char>,std::allocator<char> >,std::allocator<std::basic_string<char,std::char_traits<char>,std::allocator<char> > > >::end
; Function compile flags: /Ogsp
;	COMDAT ?end@?$vector@V?$basic_string@DU?$char_traits@D@std@@V?$allocator@D@2@@std@@V?$allocator@V?$basic_string@DU?$char_traits@D@std@@V?$allocator@D@2@@std@@@2@@std@@QBE?AV?$_Vector_const_iterator@V?$_Vector_val@V?$basic_string@DU?$char_traits@D@std@@V?$allocator@D@2@@std@@V?$allocator@V?$basic_string@DU?$char_traits@D@std@@V?$allocator@D@2@@std@@@2@@std@@@2@XZ
_TEXT	SEGMENT
___$ReturnUdt$ = 8					; size = 4
?end@?$vector@V?$basic_string@DU?$char_traits@D@std@@V?$allocator@D@2@@std@@V?$allocator@V?$basic_string@DU?$char_traits@D@std@@V?$allocator@D@2@@std@@@2@@std@@QBE?AV?$_Vector_const_iterator@V?$_Vector_val@V?$basic_string@DU?$char_traits@D@std@@V?$allocator@D@2@@std@@V?$allocator@V?$basic_string@DU?$char_traits@D@std@@V?$allocator@D@2@@std@@@2@@std@@@2@XZ PROC ; std::vector<std::basic_string<char,std::char_traits<char>,std::allocator<char> >,std::allocator<std::basic_string<char,std::char_traits<char>,std::allocator<char> > > >::end, COMDAT
; _this$ = ecx

; 796  : 		{	// return iterator for end of nonmutable sequence

  00000	55		 push	 ebp
  00001	8b ec		 mov	 ebp, esp

; 797  : 		return (const_iterator(this->_Mylast, this));

  00003	8b 49 04	 mov	 ecx, DWORD PTR [ecx+4]
  00006	8b 45 08	 mov	 eax, DWORD PTR ___$ReturnUdt$[ebp]
  00009	89 08		 mov	 DWORD PTR [eax], ecx

; 798  : 		}

  0000b	5d		 pop	 ebp
  0000c	c2 04 00	 ret	 4
?end@?$vector@V?$basic_string@DU?$char_traits@D@std@@V?$allocator@D@2@@std@@V?$allocator@V?$basic_string@DU?$char_traits@D@std@@V?$allocator@D@2@@std@@@2@@std@@QBE?AV?$_Vector_const_iterator@V?$_Vector_val@V?$basic_string@DU?$char_traits@D@std@@V?$allocator@D@2@@std@@V?$allocator@V?$basic_string@DU?$char_traits@D@std@@V?$allocator@D@2@@std@@@2@@std@@@2@XZ ENDP ; std::vector<std::basic_string<char,std::char_traits<char>,std::allocator<char> >,std::allocator<std::basic_string<char,std::char_traits<char>,std::allocator<char> > > >::end
_TEXT	ENDS
PUBLIC	??0?$_Vector_val@V?$basic_string@DU?$char_traits@D@std@@V?$allocator@D@2@@std@@V?$allocator@V?$basic_string@DU?$char_traits@D@std@@V?$allocator@D@2@@std@@@2@@std@@QAE@V?$allocator@V?$basic_string@DU?$char_traits@D@std@@V?$allocator@D@2@@std@@@1@@Z ; std::_Vector_val<std::basic_string<char,std::char_traits<char>,std::allocator<char> >,std::allocator<std::basic_string<char,std::char_traits<char>,std::allocator<char> > > >::_Vector_val<std::basic_string<char,std::char_traits<char>,std::allocator<char> >,std::allocator<std::basic_string<char,std::char_traits<char>,std::allocator<char> > > >
; Function compile flags: /Ogsp
;	COMDAT ??0?$_Vector_val@V?$basic_string@DU?$char_traits@D@std@@V?$allocator@D@2@@std@@V?$allocator@V?$basic_string@DU?$char_traits@D@std@@V?$allocator@D@2@@std@@@2@@std@@QAE@V?$allocator@V?$basic_string@DU?$char_traits@D@std@@V?$allocator@D@2@@std@@@1@@Z
_TEXT	SEGMENT
__Al$ = 8						; size = 1
??0?$_Vector_val@V?$basic_string@DU?$char_traits@D@std@@V?$allocator@D@2@@std@@V?$allocator@V?$basic_string@DU?$char_traits@D@std@@V?$allocator@D@2@@std@@@2@@std@@QAE@V?$allocator@V?$basic_string@DU?$char_traits@D@std@@V?$allocator@D@2@@std@@@1@@Z PROC ; std::_Vector_val<std::basic_string<char,std::char_traits<char>,std::allocator<char> >,std::allocator<std::basic_string<char,std::char_traits<char>,std::allocator<char> > > >::_Vector_val<std::basic_string<char,std::char_traits<char>,std::allocator<char> >,std::allocator<std::basic_string<char,std::char_traits<char>,std::allocator<char> > > >, COMDAT
; _this$ = ecx

; 426  : 		{	// construct allocator from _Al

  00000	8b c1		 mov	 eax, ecx

; 427  : 		_Myfirst = 0;

  00002	33 c9		 xor	 ecx, ecx
  00004	89 08		 mov	 DWORD PTR [eax], ecx

; 428  : 		_Mylast = 0;

  00006	89 48 04	 mov	 DWORD PTR [eax+4], ecx

; 429  : 		_Myend = 0;

  00009	89 48 08	 mov	 DWORD PTR [eax+8], ecx

; 430  : 		}

  0000c	c2 04 00	 ret	 4
??0?$_Vector_val@V?$basic_string@DU?$char_traits@D@std@@V?$allocator@D@2@@std@@V?$allocator@V?$basic_string@DU?$char_traits@D@std@@V?$allocator@D@2@@std@@@2@@std@@QAE@V?$allocator@V?$basic_string@DU?$char_traits@D@std@@V?$allocator@D@2@@std@@@1@@Z ENDP ; std::_Vector_val<std::basic_string<char,std::char_traits<char>,std::allocator<char> >,std::allocator<std::basic_string<char,std::char_traits<char>,std::allocator<char> > > >::_Vector_val<std::basic_string<char,std::char_traits<char>,std::allocator<char> >,std::allocator<std::basic_string<char,std::char_traits<char>,std::allocator<char> > > >
_TEXT	ENDS
PUBLIC	?begin@?$vector@V?$vector@UColorText@ioMission@@V?$allocator@UColorText@ioMission@@@std@@@std@@V?$allocator@V?$vector@UColorText@ioMission@@V?$allocator@UColorText@ioMission@@@std@@@std@@@2@@std@@QBE?AV?$_Vector_const_iterator@V?$_Vector_val@V?$vector@UColorText@ioMission@@V?$allocator@UColorText@ioMission@@@std@@@std@@V?$allocator@V?$vector@UColorText@ioMission@@V?$allocator@UColorText@ioMission@@@std@@@std@@@2@@std@@@2@XZ ; std::vector<std::vector<ioMission::ColorText,std::allocator<ioMission::ColorText> >,std::allocator<std::vector<ioMission::ColorText,std::allocator<ioMission::ColorText> > > >::begin
; Function compile flags: /Ogsp
;	COMDAT ?begin@?$vector@V?$vector@UColorText@ioMission@@V?$allocator@UColorText@ioMission@@@std@@@std@@V?$allocator@V?$vector@UColorText@ioMission@@V?$allocator@UColorText@ioMission@@@std@@@std@@@2@@std@@QBE?AV?$_Vector_const_iterator@V?$_Vector_val@V?$vector@UColorText@ioMission@@V?$allocator@UColorText@ioMission@@@std@@@std@@V?$allocator@V?$vector@UColorText@ioMission@@V?$allocator@UColorText@ioMission@@@std@@@std@@@2@@std@@@2@XZ
_TEXT	SEGMENT
___$ReturnUdt$ = 8					; size = 4
?begin@?$vector@V?$vector@UColorText@ioMission@@V?$allocator@UColorText@ioMission@@@std@@@std@@V?$allocator@V?$vector@UColorText@ioMission@@V?$allocator@UColorText@ioMission@@@std@@@std@@@2@@std@@QBE?AV?$_Vector_const_iterator@V?$_Vector_val@V?$vector@UColorText@ioMission@@V?$allocator@UColorText@ioMission@@@std@@@std@@V?$allocator@V?$vector@UColorText@ioMission@@V?$allocator@UColorText@ioMission@@@std@@@std@@@2@@std@@@2@XZ PROC ; std::vector<std::vector<ioMission::ColorText,std::allocator<ioMission::ColorText> >,std::allocator<std::vector<ioMission::ColorText,std::allocator<ioMission::ColorText> > > >::begin, COMDAT
; _this$ = ecx

; 786  : 		{	// return iterator for beginning of nonmutable sequence

  00000	55		 push	 ebp
  00001	8b ec		 mov	 ebp, esp

; 787  : 		return (const_iterator(this->_Myfirst, this));

  00003	8b 09		 mov	 ecx, DWORD PTR [ecx]
  00005	8b 45 08	 mov	 eax, DWORD PTR ___$ReturnUdt$[ebp]
  00008	89 08		 mov	 DWORD PTR [eax], ecx

; 788  : 		}

  0000a	5d		 pop	 ebp
  0000b	c2 04 00	 ret	 4
?begin@?$vector@V?$vector@UColorText@ioMission@@V?$allocator@UColorText@ioMission@@@std@@@std@@V?$allocator@V?$vector@UColorText@ioMission@@V?$allocator@UColorText@ioMission@@@std@@@std@@@2@@std@@QBE?AV?$_Vector_const_iterator@V?$_Vector_val@V?$vector@UColorText@ioMission@@V?$allocator@UColorText@ioMission@@@std@@@std@@V?$allocator@V?$vector@UColorText@ioMission@@V?$allocator@UColorText@ioMission@@@std@@@std@@@2@@std@@@2@XZ ENDP ; std::vector<std::vector<ioMission::ColorText,std::allocator<ioMission::ColorText> >,std::allocator<std::vector<ioMission::ColorText,std::allocator<ioMission::ColorText> > > >::begin
_TEXT	ENDS
PUBLIC	?end@?$vector@V?$vector@UColorText@ioMission@@V?$allocator@UColorText@ioMission@@@std@@@std@@V?$allocator@V?$vector@UColorText@ioMission@@V?$allocator@UColorText@ioMission@@@std@@@std@@@2@@std@@QBE?AV?$_Vector_const_iterator@V?$_Vector_val@V?$vector@UColorText@ioMission@@V?$allocator@UColorText@ioMission@@@std@@@std@@V?$allocator@V?$vector@UColorText@ioMission@@V?$allocator@UColorText@ioMission@@@std@@@std@@@2@@std@@@2@XZ ; std::vector<std::vector<ioMission::ColorText,std::allocator<ioMission::ColorText> >,std::allocator<std::vector<ioMission::ColorText,std::allocator<ioMission::ColorText> > > >::end
; Function compile flags: /Ogsp
;	COMDAT ?end@?$vector@V?$vector@UColorText@ioMission@@V?$allocator@UColorText@ioMission@@@std@@@std@@V?$allocator@V?$vector@UColorText@ioMission@@V?$allocator@UColorText@ioMission@@@std@@@std@@@2@@std@@QBE?AV?$_Vector_const_iterator@V?$_Vector_val@V?$vector@UColorText@ioMission@@V?$allocator@UColorText@ioMission@@@std@@@std@@V?$allocator@V?$vector@UColorText@ioMission@@V?$allocator@UColorText@ioMission@@@std@@@std@@@2@@std@@@2@XZ
_TEXT	SEGMENT
___$ReturnUdt$ = 8					; size = 4
?end@?$vector@V?$vector@UColorText@ioMission@@V?$allocator@UColorText@ioMission@@@std@@@std@@V?$allocator@V?$vector@UColorText@ioMission@@V?$allocator@UColorText@ioMission@@@std@@@std@@@2@@std@@QBE?AV?$_Vector_const_iterator@V?$_Vector_val@V?$vector@UColorText@ioMission@@V?$allocator@UColorText@ioMission@@@std@@@std@@V?$allocator@V?$vector@UColorText@ioMission@@V?$allocator@UColorText@ioMission@@@std@@@std@@@2@@std@@@2@XZ PROC ; std::vector<std::vector<ioMission::ColorText,std::allocator<ioMission::ColorText> >,std::allocator<std::vector<ioMission::ColorText,std::allocator<ioMission::ColorText> > > >::end, COMDAT
; _this$ = ecx

; 796  : 		{	// return iterator for end of nonmutable sequence

  00000	55		 push	 ebp
  00001	8b ec		 mov	 ebp, esp

; 797  : 		return (const_iterator(this->_Mylast, this));

  00003	8b 49 04	 mov	 ecx, DWORD PTR [ecx+4]
  00006	8b 45 08	 mov	 eax, DWORD PTR ___$ReturnUdt$[ebp]
  00009	89 08		 mov	 DWORD PTR [eax], ecx

; 798  : 		}

  0000b	5d		 pop	 ebp
  0000c	c2 04 00	 ret	 4
?end@?$vector@V?$vector@UColorText@ioMission@@V?$allocator@UColorText@ioMission@@@std@@@std@@V?$allocator@V?$vector@UColorText@ioMission@@V?$allocator@UColorText@ioMission@@@std@@@std@@@2@@std@@QBE?AV?$_Vector_const_iterator@V?$_Vector_val@V?$vector@UColorText@ioMission@@V?$allocator@UColorText@ioMission@@@std@@@std@@V?$allocator@V?$vector@UColorText@ioMission@@V?$allocator@UColorText@ioMission@@@std@@@std@@@2@@std@@@2@XZ ENDP ; std::vector<std::vector<ioMission::ColorText,std::allocator<ioMission::ColorText> >,std::allocator<std::vector<ioMission::ColorText,std::allocator<ioMission::ColorText> > > >::end
_TEXT	ENDS
PUBLIC	??0?$_Vector_val@V?$vector@UColorText@ioMission@@V?$allocator@UColorText@ioMission@@@std@@@std@@V?$allocator@V?$vector@UColorText@ioMission@@V?$allocator@UColorText@ioMission@@@std@@@std@@@2@@std@@QAE@V?$allocator@V?$vector@UColorText@ioMission@@V?$allocator@UColorText@ioMission@@@std@@@std@@@1@@Z ; std::_Vector_val<std::vector<ioMission::ColorText,std::allocator<ioMission::ColorText> >,std::allocator<std::vector<ioMission::ColorText,std::allocator<ioMission::ColorText> > > >::_Vector_val<std::vector<ioMission::ColorText,std::allocator<ioMission::ColorText> >,std::allocator<std::vector<ioMission::ColorText,std::allocator<ioMission::ColorText> > > >
; Function compile flags: /Ogsp
;	COMDAT ??0?$_Vector_val@V?$vector@UColorText@ioMission@@V?$allocator@UColorText@ioMission@@@std@@@std@@V?$allocator@V?$vector@UColorText@ioMission@@V?$allocator@UColorText@ioMission@@@std@@@std@@@2@@std@@QAE@V?$allocator@V?$vector@UColorText@ioMission@@V?$allocator@UColorText@ioMission@@@std@@@std@@@1@@Z
_TEXT	SEGMENT
__Al$ = 8						; size = 1
??0?$_Vector_val@V?$vector@UColorText@ioMission@@V?$allocator@UColorText@ioMission@@@std@@@std@@V?$allocator@V?$vector@UColorText@ioMission@@V?$allocator@UColorText@ioMission@@@std@@@std@@@2@@std@@QAE@V?$allocator@V?$vector@UColorText@ioMission@@V?$allocator@UColorText@ioMission@@@std@@@std@@@1@@Z PROC ; std::_Vector_val<std::vector<ioMission::ColorText,std::allocator<ioMission::ColorText> >,std::allocator<std::vector<ioMission::ColorText,std::allocator<ioMission::ColorText> > > >::_Vector_val<std::vector<ioMission::ColorText,std::allocator<ioMission::ColorText> >,std::allocator<std::vector<ioMission::ColorText,std::allocator<ioMission::ColorText> > > >, COMDAT
; _this$ = ecx

; 426  : 		{	// construct allocator from _Al

  00000	8b c1		 mov	 eax, ecx

; 427  : 		_Myfirst = 0;

  00002	33 c9		 xor	 ecx, ecx
  00004	89 08		 mov	 DWORD PTR [eax], ecx

; 428  : 		_Mylast = 0;

  00006	89 48 04	 mov	 DWORD PTR [eax+4], ecx

; 429  : 		_Myend = 0;

  00009	89 48 08	 mov	 DWORD PTR [eax+8], ecx

; 430  : 		}

  0000c	c2 04 00	 ret	 4
??0?$_Vector_val@V?$vector@UColorText@ioMission@@V?$allocator@UColorText@ioMission@@@std@@@std@@V?$allocator@V?$vector@UColorText@ioMission@@V?$allocator@UColorText@ioMission@@@std@@@std@@@2@@std@@QAE@V?$allocator@V?$vector@UColorText@ioMission@@V?$allocator@UColorText@ioMission@@@std@@@std@@@1@@Z ENDP ; std::_Vector_val<std::vector<ioMission::ColorText,std::allocator<ioMission::ColorText> >,std::allocator<std::vector<ioMission::ColorText,std::allocator<ioMission::ColorText> > > >::_Vector_val<std::vector<ioMission::ColorText,std::allocator<ioMission::ColorText> >,std::allocator<std::vector<ioMission::ColorText,std::allocator<ioMission::ColorText> > > >
_TEXT	ENDS
PUBLIC	??0?$_Vector_val@UColorText@ioMission@@V?$allocator@UColorText@ioMission@@@std@@@std@@QAE@V?$allocator@UColorText@ioMission@@@1@@Z ; std::_Vector_val<ioMission::ColorText,std::allocator<ioMission::ColorText> >::_Vector_val<ioMission::ColorText,std::allocator<ioMission::ColorText> >
; Function compile flags: /Ogsp
;	COMDAT ??0?$_Vector_val@UColorText@ioMission@@V?$allocator@UColorText@ioMission@@@std@@@std@@QAE@V?$allocator@UColorText@ioMission@@@1@@Z
_TEXT	SEGMENT
__Al$ = 8						; size = 1
??0?$_Vector_val@UColorText@ioMission@@V?$allocator@UColorText@ioMission@@@std@@@std@@QAE@V?$allocator@UColorText@ioMission@@@1@@Z PROC ; std::_Vector_val<ioMission::ColorText,std::allocator<ioMission::ColorText> >::_Vector_val<ioMission::ColorText,std::allocator<ioMission::ColorText> >, COMDAT
; _this$ = ecx

; 426  : 		{	// construct allocator from _Al

  00000	8b c1		 mov	 eax, ecx

; 427  : 		_Myfirst = 0;

  00002	33 c9		 xor	 ecx, ecx
  00004	89 08		 mov	 DWORD PTR [eax], ecx

; 428  : 		_Mylast = 0;

  00006	89 48 04	 mov	 DWORD PTR [eax+4], ecx

; 429  : 		_Myend = 0;

  00009	89 48 08	 mov	 DWORD PTR [eax+8], ecx

; 430  : 		}

  0000c	c2 04 00	 ret	 4
??0?$_Vector_val@UColorText@ioMission@@V?$allocator@UColorText@ioMission@@@std@@@std@@QAE@V?$allocator@UColorText@ioMission@@@1@@Z ENDP ; std::_Vector_val<ioMission::ColorText,std::allocator<ioMission::ColorText> >::_Vector_val<ioMission::ColorText,std::allocator<ioMission::ColorText> >
_TEXT	ENDS
PUBLIC	?max_size@?$vector@V?$basic_string@DU?$char_traits@D@std@@V?$allocator@D@2@@std@@V?$allocator@V?$basic_string@DU?$char_traits@D@std@@V?$allocator@D@2@@std@@@2@@std@@QBEIXZ ; std::vector<std::basic_string<char,std::char_traits<char>,std::allocator<char> >,std::allocator<std::basic_string<char,std::char_traits<char>,std::allocator<char> > > >::max_size
; Function compile flags: /Ogsp
;	COMDAT ?max_size@?$vector@V?$basic_string@DU?$char_traits@D@std@@V?$allocator@D@2@@std@@V?$allocator@V?$basic_string@DU?$char_traits@D@std@@V?$allocator@D@2@@std@@@2@@std@@QBEIXZ
_TEXT	SEGMENT
?max_size@?$vector@V?$basic_string@DU?$char_traits@D@std@@V?$allocator@D@2@@std@@V?$allocator@V?$basic_string@DU?$char_traits@D@std@@V?$allocator@D@2@@std@@@2@@std@@QBEIXZ PROC ; std::vector<std::basic_string<char,std::char_traits<char>,std::allocator<char> >,std::allocator<std::basic_string<char,std::char_traits<char>,std::allocator<char> > > >::max_size, COMDAT
; _this$ = ecx

; 884  : 		return (this->_Alval.max_size());

  00000	b8 49 92 24 09	 mov	 eax, 153391689		; 09249249H

; 885  : 		}

  00005	c3		 ret	 0
?max_size@?$vector@V?$basic_string@DU?$char_traits@D@std@@V?$allocator@D@2@@std@@V?$allocator@V?$basic_string@DU?$char_traits@D@std@@V?$allocator@D@2@@std@@@2@@std@@QBEIXZ ENDP ; std::vector<std::basic_string<char,std::char_traits<char>,std::allocator<char> >,std::allocator<std::basic_string<char,std::char_traits<char>,std::allocator<char> > > >::max_size
_TEXT	ENDS
PUBLIC	?allocate@?$allocator@V?$basic_string@DU?$char_traits@D@std@@V?$allocator@D@2@@std@@@std@@QAEPAV?$basic_string@DU?$char_traits@D@std@@V?$allocator@D@2@@2@I@Z ; std::allocator<std::basic_string<char,std::char_traits<char>,std::allocator<char> > >::allocate
; Function compile flags: /Ogsp
; File c:\program files (x86)\microsoft visual studio 10.0\vc\include\xmemory
;	COMDAT ?allocate@?$allocator@V?$basic_string@DU?$char_traits@D@std@@V?$allocator@D@2@@std@@@std@@QAEPAV?$basic_string@DU?$char_traits@D@std@@V?$allocator@D@2@@2@I@Z
_TEXT	SEGMENT
__Count$ = 8						; size = 4
?allocate@?$allocator@V?$basic_string@DU?$char_traits@D@std@@V?$allocator@D@2@@std@@@std@@QAEPAV?$basic_string@DU?$char_traits@D@std@@V?$allocator@D@2@@2@I@Z PROC ; std::allocator<std::basic_string<char,std::char_traits<char>,std::allocator<char> > >::allocate, COMDAT
; _this$ = ecx

; 186  : 		{	// allocate array of _Count elements

  00000	55		 push	 ebp
  00001	8b ec		 mov	 ebp, esp

; 187  : 		return (_Allocate(_Count, (pointer)0));

  00003	6a 00		 push	 0
  00005	ff 75 08	 push	 DWORD PTR __Count$[ebp]
  00008	e8 00 00 00 00	 call	 ??$_Allocate@V?$basic_string@DU?$char_traits@D@std@@V?$allocator@D@2@@std@@@std@@YAPAV?$basic_string@DU?$char_traits@D@std@@V?$allocator@D@2@@0@IPAV10@@Z ; std::_Allocate<std::basic_string<char,std::char_traits<char>,std::allocator<char> > >
  0000d	59		 pop	 ecx
  0000e	59		 pop	 ecx

; 188  : 		}

  0000f	5d		 pop	 ebp
  00010	c2 04 00	 ret	 4
?allocate@?$allocator@V?$basic_string@DU?$char_traits@D@std@@V?$allocator@D@2@@std@@@std@@QAEPAV?$basic_string@DU?$char_traits@D@std@@V?$allocator@D@2@@2@I@Z ENDP ; std::allocator<std::basic_string<char,std::char_traits<char>,std::allocator<char> > >::allocate
_TEXT	ENDS
PUBLIC	?max_size@?$vector@V?$vector@UColorText@ioMission@@V?$allocator@UColorText@ioMission@@@std@@@std@@V?$allocator@V?$vector@UColorText@ioMission@@V?$allocator@UColorText@ioMission@@@std@@@std@@@2@@std@@QBEIXZ ; std::vector<std::vector<ioMission::ColorText,std::allocator<ioMission::ColorText> >,std::allocator<std::vector<ioMission::ColorText,std::allocator<ioMission::ColorText> > > >::max_size
; Function compile flags: /Ogsp
; File c:\program files (x86)\microsoft visual studio 10.0\vc\include\vector
;	COMDAT ?max_size@?$vector@V?$vector@UColorText@ioMission@@V?$allocator@UColorText@ioMission@@@std@@@std@@V?$allocator@V?$vector@UColorText@ioMission@@V?$allocator@UColorText@ioMission@@@std@@@std@@@2@@std@@QBEIXZ
_TEXT	SEGMENT
?max_size@?$vector@V?$vector@UColorText@ioMission@@V?$allocator@UColorText@ioMission@@@std@@@std@@V?$allocator@V?$vector@UColorText@ioMission@@V?$allocator@UColorText@ioMission@@@std@@@std@@@2@@std@@QBEIXZ PROC ; std::vector<std::vector<ioMission::ColorText,std::allocator<ioMission::ColorText> >,std::allocator<std::vector<ioMission::ColorText,std::allocator<ioMission::ColorText> > > >::max_size, COMDAT
; _this$ = ecx

; 884  : 		return (this->_Alval.max_size());

  00000	b8 ff ff ff 0f	 mov	 eax, 268435455		; 0fffffffH

; 885  : 		}

  00005	c3		 ret	 0
?max_size@?$vector@V?$vector@UColorText@ioMission@@V?$allocator@UColorText@ioMission@@@std@@@std@@V?$allocator@V?$vector@UColorText@ioMission@@V?$allocator@UColorText@ioMission@@@std@@@std@@@2@@std@@QBEIXZ ENDP ; std::vector<std::vector<ioMission::ColorText,std::allocator<ioMission::ColorText> >,std::allocator<std::vector<ioMission::ColorText,std::allocator<ioMission::ColorText> > > >::max_size
_TEXT	ENDS
PUBLIC	?_Grow_to@?$vector@V?$vector@UColorText@ioMission@@V?$allocator@UColorText@ioMission@@@std@@@std@@V?$allocator@V?$vector@UColorText@ioMission@@V?$allocator@UColorText@ioMission@@@std@@@std@@@2@@std@@IBEII@Z ; std::vector<std::vector<ioMission::ColorText,std::allocator<ioMission::ColorText> >,std::allocator<std::vector<ioMission::ColorText,std::allocator<ioMission::ColorText> > > >::_Grow_to
; Function compile flags: /Ogsp
;	COMDAT ?_Grow_to@?$vector@V?$vector@UColorText@ioMission@@V?$allocator@UColorText@ioMission@@@std@@@std@@V?$allocator@V?$vector@UColorText@ioMission@@V?$allocator@UColorText@ioMission@@@std@@@std@@@2@@std@@IBEII@Z
_TEXT	SEGMENT
__Count$ = 8						; size = 4
?_Grow_to@?$vector@V?$vector@UColorText@ioMission@@V?$allocator@UColorText@ioMission@@@std@@@std@@V?$allocator@V?$vector@UColorText@ioMission@@V?$allocator@UColorText@ioMission@@@std@@@std@@@2@@std@@IBEII@Z PROC ; std::vector<std::vector<ioMission::ColorText,std::allocator<ioMission::ColorText> >,std::allocator<std::vector<ioMission::ColorText,std::allocator<ioMission::ColorText> > > >::_Grow_to, COMDAT
; _this$ = ecx

; 1274 : 		{	// grow by 50% or at least to _Count

  00000	55		 push	 ebp
  00001	8b ec		 mov	 ebp, esp

; 1275 : 		size_type _Capacity = capacity();

  00003	8b 41 08	 mov	 eax, DWORD PTR [ecx+8]
  00006	2b 01		 sub	 eax, DWORD PTR [ecx]

; 1276 : 
; 1277 : 		_Capacity = max_size() - _Capacity / 2 < _Capacity
; 1278 : 			? 0 : _Capacity + _Capacity / 2;	// try to grow by 50%

  00008	ba ff ff ff 0f	 mov	 edx, 268435455		; 0fffffffH
  0000d	c1 f8 04	 sar	 eax, 4
  00010	8b c8		 mov	 ecx, eax
  00012	d1 e9		 shr	 ecx, 1
  00014	2b d1		 sub	 edx, ecx
  00016	3b d0		 cmp	 edx, eax
  00018	73 04		 jae	 SHORT $LN4@Grow_to
  0001a	33 c0		 xor	 eax, eax
  0001c	eb 02		 jmp	 SHORT $LN5@Grow_to
$LN4@Grow_to:
  0001e	03 c1		 add	 eax, ecx
$LN5@Grow_to:

; 1279 : 		if (_Capacity < _Count)

  00020	3b 45 08	 cmp	 eax, DWORD PTR __Count$[ebp]

; 1280 : 			_Capacity = _Count;

  00023	0f 42 45 08	 cmovb	 eax, DWORD PTR __Count$[ebp]

; 1281 : 		return (_Capacity);
; 1282 : 		}

  00027	5d		 pop	 ebp
  00028	c2 04 00	 ret	 4
?_Grow_to@?$vector@V?$vector@UColorText@ioMission@@V?$allocator@UColorText@ioMission@@@std@@@std@@V?$allocator@V?$vector@UColorText@ioMission@@V?$allocator@UColorText@ioMission@@@std@@@std@@@2@@std@@IBEII@Z ENDP ; std::vector<std::vector<ioMission::ColorText,std::allocator<ioMission::ColorText> >,std::allocator<std::vector<ioMission::ColorText,std::allocator<ioMission::ColorText> > > >::_Grow_to
_TEXT	ENDS
PUBLIC	?allocate@?$allocator@V?$vector@UColorText@ioMission@@V?$allocator@UColorText@ioMission@@@std@@@std@@@std@@QAEPAV?$vector@UColorText@ioMission@@V?$allocator@UColorText@ioMission@@@std@@@2@I@Z ; std::allocator<std::vector<ioMission::ColorText,std::allocator<ioMission::ColorText> > >::allocate
; Function compile flags: /Ogsp
; File c:\program files (x86)\microsoft visual studio 10.0\vc\include\xmemory
;	COMDAT ?allocate@?$allocator@V?$vector@UColorText@ioMission@@V?$allocator@UColorText@ioMission@@@std@@@std@@@std@@QAEPAV?$vector@UColorText@ioMission@@V?$allocator@UColorText@ioMission@@@std@@@2@I@Z
_TEXT	SEGMENT
__Count$ = 8						; size = 4
?allocate@?$allocator@V?$vector@UColorText@ioMission@@V?$allocator@UColorText@ioMission@@@std@@@std@@@std@@QAEPAV?$vector@UColorText@ioMission@@V?$allocator@UColorText@ioMission@@@std@@@2@I@Z PROC ; std::allocator<std::vector<ioMission::ColorText,std::allocator<ioMission::ColorText> > >::allocate, COMDAT
; _this$ = ecx

; 186  : 		{	// allocate array of _Count elements

  00000	55		 push	 ebp
  00001	8b ec		 mov	 ebp, esp

; 187  : 		return (_Allocate(_Count, (pointer)0));

  00003	6a 00		 push	 0
  00005	ff 75 08	 push	 DWORD PTR __Count$[ebp]
  00008	e8 00 00 00 00	 call	 ??$_Allocate@V?$vector@UColorText@ioMission@@V?$allocator@UColorText@ioMission@@@std@@@std@@@std@@YAPAV?$vector@UColorText@ioMission@@V?$allocator@UColorText@ioMission@@@std@@@0@IPAV10@@Z ; std::_Allocate<std::vector<ioMission::ColorText,std::allocator<ioMission::ColorText> > >
  0000d	59		 pop	 ecx
  0000e	59		 pop	 ecx

; 188  : 		}

  0000f	5d		 pop	 ebp
  00010	c2 04 00	 ret	 4
?allocate@?$allocator@V?$vector@UColorText@ioMission@@V?$allocator@UColorText@ioMission@@@std@@@std@@@std@@QAEPAV?$vector@UColorText@ioMission@@V?$allocator@UColorText@ioMission@@@std@@@2@I@Z ENDP ; std::allocator<std::vector<ioMission::ColorText,std::allocator<ioMission::ColorText> > >::allocate
_TEXT	ENDS
PUBLIC	?max_size@?$vector@UColorText@ioMission@@V?$allocator@UColorText@ioMission@@@std@@@std@@QBEIXZ ; std::vector<ioMission::ColorText,std::allocator<ioMission::ColorText> >::max_size
; Function compile flags: /Ogsp
; File c:\program files (x86)\microsoft visual studio 10.0\vc\include\vector
;	COMDAT ?max_size@?$vector@UColorText@ioMission@@V?$allocator@UColorText@ioMission@@@std@@@std@@QBEIXZ
_TEXT	SEGMENT
?max_size@?$vector@UColorText@ioMission@@V?$allocator@UColorText@ioMission@@@std@@@std@@QBEIXZ PROC ; std::vector<ioMission::ColorText,std::allocator<ioMission::ColorText> >::max_size, COMDAT
; _this$ = ecx

; 884  : 		return (this->_Alval.max_size());

  00000	b8 cc cc cc 0c	 mov	 eax, 214748364		; 0cccccccH

; 885  : 		}

  00005	c3		 ret	 0
?max_size@?$vector@UColorText@ioMission@@V?$allocator@UColorText@ioMission@@@std@@@std@@QBEIXZ ENDP ; std::vector<ioMission::ColorText,std::allocator<ioMission::ColorText> >::max_size
_TEXT	ENDS
PUBLIC	?_Grow_to@?$vector@UColorText@ioMission@@V?$allocator@UColorText@ioMission@@@std@@@std@@IBEII@Z ; std::vector<ioMission::ColorText,std::allocator<ioMission::ColorText> >::_Grow_to
; Function compile flags: /Ogsp
;	COMDAT ?_Grow_to@?$vector@UColorText@ioMission@@V?$allocator@UColorText@ioMission@@@std@@@std@@IBEII@Z
_TEXT	SEGMENT
__Count$ = 8						; size = 4
?_Grow_to@?$vector@UColorText@ioMission@@V?$allocator@UColorText@ioMission@@@std@@@std@@IBEII@Z PROC ; std::vector<ioMission::ColorText,std::allocator<ioMission::ColorText> >::_Grow_to, COMDAT
; _this$ = ecx

; 1274 : 		{	// grow by 50% or at least to _Count

  00000	55		 push	 ebp
  00001	8b ec		 mov	 ebp, esp

; 1275 : 		size_type _Capacity = capacity();

  00003	8b 41 08	 mov	 eax, DWORD PTR [ecx+8]
  00006	2b 01		 sub	 eax, DWORD PTR [ecx]
  00008	6a 14		 push	 20			; 00000014H
  0000a	99		 cdq
  0000b	59		 pop	 ecx
  0000c	f7 f9		 idiv	 ecx

; 1276 : 
; 1277 : 		_Capacity = max_size() - _Capacity / 2 < _Capacity
; 1278 : 			? 0 : _Capacity + _Capacity / 2;	// try to grow by 50%

  0000e	ba cc cc cc 0c	 mov	 edx, 214748364		; 0cccccccH
  00013	8b c8		 mov	 ecx, eax
  00015	d1 e9		 shr	 ecx, 1
  00017	2b d1		 sub	 edx, ecx
  00019	3b d0		 cmp	 edx, eax
  0001b	73 04		 jae	 SHORT $LN4@Grow_to@2
  0001d	33 c0		 xor	 eax, eax
  0001f	eb 02		 jmp	 SHORT $LN5@Grow_to@2
$LN4@Grow_to@2:
  00021	03 c1		 add	 eax, ecx
$LN5@Grow_to@2:

; 1279 : 		if (_Capacity < _Count)

  00023	3b 45 08	 cmp	 eax, DWORD PTR __Count$[ebp]

; 1280 : 			_Capacity = _Count;

  00026	0f 42 45 08	 cmovb	 eax, DWORD PTR __Count$[ebp]

; 1281 : 		return (_Capacity);
; 1282 : 		}

  0002a	5d		 pop	 ebp
  0002b	c2 04 00	 ret	 4
?_Grow_to@?$vector@UColorText@ioMission@@V?$allocator@UColorText@ioMission@@@std@@@std@@IBEII@Z ENDP ; std::vector<ioMission::ColorText,std::allocator<ioMission::ColorText> >::_Grow_to
_TEXT	ENDS
PUBLIC	?allocate@?$allocator@UColorText@ioMission@@@std@@QAEPAUColorText@ioMission@@I@Z ; std::allocator<ioMission::ColorText>::allocate
; Function compile flags: /Ogsp
; File c:\program files (x86)\microsoft visual studio 10.0\vc\include\xmemory
;	COMDAT ?allocate@?$allocator@UColorText@ioMission@@@std@@QAEPAUColorText@ioMission@@I@Z
_TEXT	SEGMENT
__Count$ = 8						; size = 4
?allocate@?$allocator@UColorText@ioMission@@@std@@QAEPAUColorText@ioMission@@I@Z PROC ; std::allocator<ioMission::ColorText>::allocate, COMDAT
; _this$ = ecx

; 186  : 		{	// allocate array of _Count elements

  00000	55		 push	 ebp
  00001	8b ec		 mov	 ebp, esp

; 187  : 		return (_Allocate(_Count, (pointer)0));

  00003	6a 00		 push	 0
  00005	ff 75 08	 push	 DWORD PTR __Count$[ebp]
  00008	e8 00 00 00 00	 call	 ??$_Allocate@UColorText@ioMission@@@std@@YAPAUColorText@ioMission@@IPAU12@@Z ; std::_Allocate<ioMission::ColorText>
  0000d	59		 pop	 ecx
  0000e	59		 pop	 ecx

; 188  : 		}

  0000f	5d		 pop	 ebp
  00010	c2 04 00	 ret	 4
?allocate@?$allocator@UColorText@ioMission@@@std@@QAEPAUColorText@ioMission@@I@Z ENDP ; std::allocator<ioMission::ColorText>::allocate
_TEXT	ENDS
PUBLIC	??$construct@AAVioHashString@@@?$allocator@VioHashString@@@std@@QAEXPAVioHashString@@AAV2@@Z ; std::allocator<ioHashString>::construct<ioHashString &>
;	COMDAT xdata$x
; File c:\program files (x86)\microsoft visual studio 10.0\vc\include\utility
xdata$x	SEGMENT
__unwindtable$??$construct@AAVioHashString@@@?$allocator@VioHashString@@@std@@QAEXPAVioHashString@@AAV2@@Z DD 0ffffffffH
	DD	FLAT:__unwindfunclet$??$construct@AAVioHashString@@@?$allocator@VioHashString@@@std@@QAEXPAVioHashString@@AAV2@@Z$0
__ehfuncinfo$??$construct@AAVioHashString@@@?$allocator@VioHashString@@@std@@QAEXPAVioHashString@@AAV2@@Z DD 019930522H
	DD	01H
	DD	FLAT:__unwindtable$??$construct@AAVioHashString@@@?$allocator@VioHashString@@@std@@QAEXPAVioHashString@@AAV2@@Z
	DD	2 DUP(00H)
	DD	2 DUP(00H)
	DD	00H
	DD	01H
; Function compile flags: /Ogsp
; File c:\program files (x86)\microsoft visual studio 10.0\vc\include\xmemory
xdata$x	ENDS
;	COMDAT ??$construct@AAVioHashString@@@?$allocator@VioHashString@@@std@@QAEXPAVioHashString@@AAV2@@Z
_TEXT	SEGMENT
$T512523 = -16						; size = 4
__$EHRec$ = -12						; size = 12
__Ptr$ = 8						; size = 4
__Val$ = 12						; size = 4
??$construct@AAVioHashString@@@?$allocator@VioHashString@@@std@@QAEXPAVioHashString@@AAV2@@Z PROC ; std::allocator<ioHashString>::construct<ioHashString &>, COMDAT
; _this$ = ecx

; 206  : 		void construct(pointer _Ptr, _Other&& _Val)

  00000	6a 04		 push	 4
  00002	b8 00 00 00 00	 mov	 eax, __ehhandler$??$construct@AAVioHashString@@@?$allocator@VioHashString@@@std@@QAEXPAVioHashString@@AAV2@@Z
  00007	e8 00 00 00 00	 call	 __EH_prolog3

; 207  : 		{	// construct object at _Ptr with value _Val
; 208  : 		::new ((void _FARQ *)_Ptr) _Ty(_STD forward<_Other>(_Val));

  0000c	8b 4d 08	 mov	 ecx, DWORD PTR __Ptr$[ebp]
  0000f	89 4d f0	 mov	 DWORD PTR $T512523[ebp], ecx
  00012	83 65 fc 00	 and	 DWORD PTR __$EHRec$[ebp+8], 0
  00016	85 c9		 test	 ecx, ecx
  00018	74 09		 je	 SHORT $LN3@construct
  0001a	ff 75 0c	 push	 DWORD PTR __Val$[ebp]
  0001d	ff 15 00 00 00
	00		 call	 DWORD PTR __imp_??0ioHashString@@QAE@ABV0@@Z
$LN3@construct:

; 209  : 		}

  00023	e8 00 00 00 00	 call	 __EH_epilog3
  00028	c2 08 00	 ret	 8
_TEXT	ENDS
;	COMDAT text$x
text$x	SEGMENT
__unwindfunclet$??$construct@AAVioHashString@@@?$allocator@VioHashString@@@std@@QAEXPAVioHashString@@AAV2@@Z$0:
  00000	ff 75 08	 push	 DWORD PTR __Ptr$[ebp]
  00003	ff 75 f0	 push	 DWORD PTR $T512523[ebp]
  00006	e8 00 00 00 00	 call	 ??3@YAXPAX0@Z		; operator delete
  0000b	59		 pop	 ecx
  0000c	59		 pop	 ecx
  0000d	c3		 ret	 0
__ehhandler$??$construct@AAVioHashString@@@?$allocator@VioHashString@@@std@@QAEXPAVioHashString@@AAV2@@Z:
  0000e	8b 54 24 08	 mov	 edx, DWORD PTR [esp+8]
  00012	8d 42 0c	 lea	 eax, DWORD PTR [edx+12]
  00015	8b 4a ec	 mov	 ecx, DWORD PTR [edx-20]
  00018	33 c8		 xor	 ecx, eax
  0001a	e8 00 00 00 00	 call	 @__security_check_cookie@4
  0001f	b8 00 00 00 00	 mov	 eax, OFFSET __ehfuncinfo$??$construct@AAVioHashString@@@?$allocator@VioHashString@@@std@@QAEXPAVioHashString@@AAV2@@Z
  00024	e9 00 00 00 00	 jmp	 ___CxxFrameHandler3
text$x	ENDS
??$construct@AAVioHashString@@@?$allocator@VioHashString@@@std@@QAEXPAVioHashString@@AAV2@@Z ENDP ; std::allocator<ioHashString>::construct<ioHashString &>
PUBLIC	??$construct@AAUColorText@ioMission@@@?$allocator@UColorText@ioMission@@@std@@QAEXPAUColorText@ioMission@@AAU23@@Z ; std::allocator<ioMission::ColorText>::construct<ioMission::ColorText &>
;	COMDAT xdata$x
xdata$x	SEGMENT
__unwindtable$??$construct@AAUColorText@ioMission@@@?$allocator@UColorText@ioMission@@@std@@QAEXPAUColorText@ioMission@@AAU23@@Z DD 0ffffffffH
	DD	FLAT:__unwindfunclet$??$construct@AAUColorText@ioMission@@@?$allocator@UColorText@ioMission@@@std@@QAEXPAUColorText@ioMission@@AAU23@@Z$0
__ehfuncinfo$??$construct@AAUColorText@ioMission@@@?$allocator@UColorText@ioMission@@@std@@QAEXPAUColorText@ioMission@@AAU23@@Z DD 019930522H
	DD	01H
	DD	FLAT:__unwindtable$??$construct@AAUColorText@ioMission@@@?$allocator@UColorText@ioMission@@@std@@QAEXPAUColorText@ioMission@@AAU23@@Z
	DD	2 DUP(00H)
	DD	2 DUP(00H)
	DD	00H
	DD	01H
; Function compile flags: /Ogsp
xdata$x	ENDS
;	COMDAT ??$construct@AAUColorText@ioMission@@@?$allocator@UColorText@ioMission@@@std@@QAEXPAUColorText@ioMission@@AAU23@@Z
_TEXT	SEGMENT
$T512542 = -16						; size = 4
__$EHRec$ = -12						; size = 12
__Ptr$ = 8						; size = 4
__Val$ = 12						; size = 4
??$construct@AAUColorText@ioMission@@@?$allocator@UColorText@ioMission@@@std@@QAEXPAUColorText@ioMission@@AAU23@@Z PROC ; std::allocator<ioMission::ColorText>::construct<ioMission::ColorText &>, COMDAT
; _this$ = ecx

; 206  : 		void construct(pointer _Ptr, _Other&& _Val)

  00000	6a 04		 push	 4
  00002	b8 00 00 00 00	 mov	 eax, __ehhandler$??$construct@AAUColorText@ioMission@@@?$allocator@UColorText@ioMission@@@std@@QAEXPAUColorText@ioMission@@AAU23@@Z
  00007	e8 00 00 00 00	 call	 __EH_prolog3

; 207  : 		{	// construct object at _Ptr with value _Val
; 208  : 		::new ((void _FARQ *)_Ptr) _Ty(_STD forward<_Other>(_Val));

  0000c	8b 45 08	 mov	 eax, DWORD PTR __Ptr$[ebp]
  0000f	89 45 f0	 mov	 DWORD PTR $T512542[ebp], eax
  00012	83 65 fc 00	 and	 DWORD PTR __$EHRec$[ebp+8], 0
  00016	85 c0		 test	 eax, eax
  00018	74 14		 je	 SHORT $LN3@construct@2
  0001a	8b 4d 0c	 mov	 ecx, DWORD PTR __Val$[ebp]
  0001d	8b 11		 mov	 edx, DWORD PTR [ecx]
  0001f	83 c1 04	 add	 ecx, 4
  00022	51		 push	 ecx
  00023	8d 48 04	 lea	 ecx, DWORD PTR [eax+4]
  00026	89 10		 mov	 DWORD PTR [eax], edx
  00028	ff 15 00 00 00
	00		 call	 DWORD PTR __imp_??0ioHashString@@QAE@ABV0@@Z
$LN3@construct@2:

; 209  : 		}

  0002e	e8 00 00 00 00	 call	 __EH_epilog3
  00033	c2 08 00	 ret	 8
_TEXT	ENDS
;	COMDAT text$x
text$x	SEGMENT
__unwindfunclet$??$construct@AAUColorText@ioMission@@@?$allocator@UColorText@ioMission@@@std@@QAEXPAUColorText@ioMission@@AAU23@@Z$0:
  00000	ff 75 08	 push	 DWORD PTR __Ptr$[ebp]
  00003	ff 75 f0	 push	 DWORD PTR $T512542[ebp]
  00006	e8 00 00 00 00	 call	 ??3@YAXPAX0@Z		; operator delete
  0000b	59		 pop	 ecx
  0000c	59		 pop	 ecx
  0000d	c3		 ret	 0
__ehhandler$??$construct@AAUColorText@ioMission@@@?$allocator@UColorText@ioMission@@@std@@QAEXPAUColorText@ioMission@@AAU23@@Z:
  0000e	8b 54 24 08	 mov	 edx, DWORD PTR [esp+8]
  00012	8d 42 0c	 lea	 eax, DWORD PTR [edx+12]
  00015	8b 4a ec	 mov	 ecx, DWORD PTR [edx-20]
  00018	33 c8		 xor	 ecx, eax
  0001a	e8 00 00 00 00	 call	 @__security_check_cookie@4
  0001f	b8 00 00 00 00	 mov	 eax, OFFSET __ehfuncinfo$??$construct@AAUColorText@ioMission@@@?$allocator@UColorText@ioMission@@@std@@QAEXPAUColorText@ioMission@@AAU23@@Z
  00024	e9 00 00 00 00	 jmp	 ___CxxFrameHandler3
text$x	ENDS
??$construct@AAUColorText@ioMission@@@?$allocator@UColorText@ioMission@@@std@@QAEXPAUColorText@ioMission@@AAU23@@Z ENDP ; std::allocator<ioMission::ColorText>::construct<ioMission::ColorText &>
PUBLIC	??$_Construct@UColorText@ioMission@@ABU12@@std@@YAXPAUColorText@ioMission@@ABU12@@Z ; std::_Construct<ioMission::ColorText,ioMission::ColorText const &>
;	COMDAT xdata$x
xdata$x	SEGMENT
__unwindtable$??$_Construct@UColorText@ioMission@@ABU12@@std@@YAXPAUColorText@ioMission@@ABU12@@Z DD 0ffffffffH
	DD	FLAT:__unwindfunclet$??$_Construct@UColorText@ioMission@@ABU12@@std@@YAXPAUColorText@ioMission@@ABU12@@Z$0
__ehfuncinfo$??$_Construct@UColorText@ioMission@@ABU12@@std@@YAXPAUColorText@ioMission@@ABU12@@Z DD 019930522H
	DD	01H
	DD	FLAT:__unwindtable$??$_Construct@UColorText@ioMission@@ABU12@@std@@YAXPAUColorText@ioMission@@ABU12@@Z
	DD	2 DUP(00H)
	DD	2 DUP(00H)
	DD	00H
	DD	01H
; Function compile flags: /Ogsp
xdata$x	ENDS
;	COMDAT ??$_Construct@UColorText@ioMission@@ABU12@@std@@YAXPAUColorText@ioMission@@ABU12@@Z
_TEXT	SEGMENT
$T512565 = -16						; size = 4
__$EHRec$ = -12						; size = 12
__Vptr$ = 8						; size = 4
__Ptr$ = 8						; size = 4
__Val$ = 12						; size = 4
??$_Construct@UColorText@ioMission@@ABU12@@std@@YAXPAUColorText@ioMission@@ABU12@@Z PROC ; std::_Construct<ioMission::ColorText,ioMission::ColorText const &>, COMDAT

; 46   : 	{	// construct object at _Ptr with value _Val

  00000	6a 04		 push	 4
  00002	b8 00 00 00 00	 mov	 eax, __ehhandler$??$_Construct@UColorText@ioMission@@ABU12@@std@@YAXPAUColorText@ioMission@@ABU12@@Z
  00007	e8 00 00 00 00	 call	 __EH_prolog3

; 47   : 	void _FARQ *_Vptr = _Ptr;

  0000c	8b 45 08	 mov	 eax, DWORD PTR __Ptr$[ebp]
  0000f	89 45 08	 mov	 DWORD PTR __Vptr$[ebp], eax

; 48   : 	::new (_Vptr) _Ty1(_STD forward<_Ty2>(_Val));

  00012	89 45 f0	 mov	 DWORD PTR $T512565[ebp], eax
  00015	83 65 fc 00	 and	 DWORD PTR __$EHRec$[ebp+8], 0
  00019	85 c0		 test	 eax, eax
  0001b	74 14		 je	 SHORT $LN3@Construct@2
  0001d	8b 4d 0c	 mov	 ecx, DWORD PTR __Val$[ebp]
  00020	8b 11		 mov	 edx, DWORD PTR [ecx]
  00022	83 c1 04	 add	 ecx, 4
  00025	51		 push	 ecx
  00026	8d 48 04	 lea	 ecx, DWORD PTR [eax+4]
  00029	89 10		 mov	 DWORD PTR [eax], edx
  0002b	ff 15 00 00 00
	00		 call	 DWORD PTR __imp_??0ioHashString@@QAE@ABV0@@Z
$LN3@Construct@2:

; 49   : 	}

  00031	e8 00 00 00 00	 call	 __EH_epilog3
  00036	c3		 ret	 0
_TEXT	ENDS
;	COMDAT text$x
text$x	SEGMENT
__unwindfunclet$??$_Construct@UColorText@ioMission@@ABU12@@std@@YAXPAUColorText@ioMission@@ABU12@@Z$0:
  00000	ff 75 08	 push	 DWORD PTR __Vptr$[ebp]
  00003	ff 75 f0	 push	 DWORD PTR $T512565[ebp]
  00006	e8 00 00 00 00	 call	 ??3@YAXPAX0@Z		; operator delete
  0000b	59		 pop	 ecx
  0000c	59		 pop	 ecx
  0000d	c3		 ret	 0
__ehhandler$??$_Construct@UColorText@ioMission@@ABU12@@std@@YAXPAUColorText@ioMission@@ABU12@@Z:
  0000e	8b 54 24 08	 mov	 edx, DWORD PTR [esp+8]
  00012	8d 42 0c	 lea	 eax, DWORD PTR [edx+12]
  00015	8b 4a ec	 mov	 ecx, DWORD PTR [edx-20]
  00018	33 c8		 xor	 ecx, eax
  0001a	e8 00 00 00 00	 call	 @__security_check_cookie@4
  0001f	b8 00 00 00 00	 mov	 eax, OFFSET __ehfuncinfo$??$_Construct@UColorText@ioMission@@ABU12@@std@@YAXPAUColorText@ioMission@@ABU12@@Z
  00024	e9 00 00 00 00	 jmp	 ___CxxFrameHandler3
text$x	ENDS
??$_Construct@UColorText@ioMission@@ABU12@@std@@YAXPAUColorText@ioMission@@ABU12@@Z ENDP ; std::_Construct<ioMission::ColorText,ioMission::ColorText const &>
PUBLIC	?begin@?$vector@UColorText@ioMission@@V?$allocator@UColorText@ioMission@@@std@@@std@@QBE?AV?$_Vector_const_iterator@V?$_Vector_val@UColorText@ioMission@@V?$allocator@UColorText@ioMission@@@std@@@std@@@2@XZ ; std::vector<ioMission::ColorText,std::allocator<ioMission::ColorText> >::begin
; Function compile flags: /Ogsp
; File c:\program files (x86)\microsoft visual studio 10.0\vc\include\vector
;	COMDAT ?begin@?$vector@UColorText@ioMission@@V?$allocator@UColorText@ioMission@@@std@@@std@@QBE?AV?$_Vector_const_iterator@V?$_Vector_val@UColorText@ioMission@@V?$allocator@UColorText@ioMission@@@std@@@std@@@2@XZ
_TEXT	SEGMENT
___$ReturnUdt$ = 8					; size = 4
?begin@?$vector@UColorText@ioMission@@V?$allocator@UColorText@ioMission@@@std@@@std@@QBE?AV?$_Vector_const_iterator@V?$_Vector_val@UColorText@ioMission@@V?$allocator@UColorText@ioMission@@@std@@@std@@@2@XZ PROC ; std::vector<ioMission::ColorText,std::allocator<ioMission::ColorText> >::begin, COMDAT
; _this$ = ecx

; 786  : 		{	// return iterator for beginning of nonmutable sequence

  00000	55		 push	 ebp
  00001	8b ec		 mov	 ebp, esp

; 787  : 		return (const_iterator(this->_Myfirst, this));

  00003	8b 09		 mov	 ecx, DWORD PTR [ecx]
  00005	8b 45 08	 mov	 eax, DWORD PTR ___$ReturnUdt$[ebp]
  00008	89 08		 mov	 DWORD PTR [eax], ecx

; 788  : 		}

  0000a	5d		 pop	 ebp
  0000b	c2 04 00	 ret	 4
?begin@?$vector@UColorText@ioMission@@V?$allocator@UColorText@ioMission@@@std@@@std@@QBE?AV?$_Vector_const_iterator@V?$_Vector_val@UColorText@ioMission@@V?$allocator@UColorText@ioMission@@@std@@@std@@@2@XZ ENDP ; std::vector<ioMission::ColorText,std::allocator<ioMission::ColorText> >::begin
_TEXT	ENDS
PUBLIC	?end@?$vector@UColorText@ioMission@@V?$allocator@UColorText@ioMission@@@std@@@std@@QBE?AV?$_Vector_const_iterator@V?$_Vector_val@UColorText@ioMission@@V?$allocator@UColorText@ioMission@@@std@@@std@@@2@XZ ; std::vector<ioMission::ColorText,std::allocator<ioMission::ColorText> >::end
; Function compile flags: /Ogsp
;	COMDAT ?end@?$vector@UColorText@ioMission@@V?$allocator@UColorText@ioMission@@@std@@@std@@QBE?AV?$_Vector_const_iterator@V?$_Vector_val@UColorText@ioMission@@V?$allocator@UColorText@ioMission@@@std@@@std@@@2@XZ
_TEXT	SEGMENT
___$ReturnUdt$ = 8					; size = 4
?end@?$vector@UColorText@ioMission@@V?$allocator@UColorText@ioMission@@@std@@@std@@QBE?AV?$_Vector_const_iterator@V?$_Vector_val@UColorText@ioMission@@V?$allocator@UColorText@ioMission@@@std@@@std@@@2@XZ PROC ; std::vector<ioMission::ColorText,std::allocator<ioMission::ColorText> >::end, COMDAT
; _this$ = ecx

; 796  : 		{	// return iterator for end of nonmutable sequence

  00000	55		 push	 ebp
  00001	8b ec		 mov	 ebp, esp

; 797  : 		return (const_iterator(this->_Mylast, this));

  00003	8b 49 04	 mov	 ecx, DWORD PTR [ecx+4]
  00006	8b 45 08	 mov	 eax, DWORD PTR ___$ReturnUdt$[ebp]
  00009	89 08		 mov	 DWORD PTR [eax], ecx

; 798  : 		}

  0000b	5d		 pop	 ebp
  0000c	c2 04 00	 ret	 4
?end@?$vector@UColorText@ioMission@@V?$allocator@UColorText@ioMission@@@std@@@std@@QBE?AV?$_Vector_const_iterator@V?$_Vector_val@UColorText@ioMission@@V?$allocator@UColorText@ioMission@@@std@@@std@@@2@XZ ENDP ; std::vector<ioMission::ColorText,std::allocator<ioMission::ColorText> >::end
_TEXT	ENDS
PUBLIC	?_Buy@?$vector@UColorText@ioMission@@V?$allocator@UColorText@ioMission@@@std@@@std@@IAE_NI@Z ; std::vector<ioMission::ColorText,std::allocator<ioMission::ColorText> >::_Buy
; Function compile flags: /Ogsp
;	COMDAT ?_Buy@?$vector@UColorText@ioMission@@V?$allocator@UColorText@ioMission@@@std@@@std@@IAE_NI@Z
_TEXT	SEGMENT
__Capacity$ = 8						; size = 4
?_Buy@?$vector@UColorText@ioMission@@V?$allocator@UColorText@ioMission@@@std@@@std@@IAE_NI@Z PROC ; std::vector<ioMission::ColorText,std::allocator<ioMission::ColorText> >::_Buy, COMDAT
; _this$ = ecx

; 1250 : 		{	// allocate array with _Capacity elements

  00000	55		 push	 ebp
  00001	8b ec		 mov	 ebp, esp
  00003	56		 push	 esi

; 1251 : 		this->_Myfirst = 0;

  00004	33 c0		 xor	 eax, eax
  00006	57		 push	 edi

; 1252 : 		this->_Mylast = 0;
; 1253 : 		this->_Myend = 0;
; 1254 : 
; 1255 : 		if (_Capacity == 0)

  00007	8b 7d 08	 mov	 edi, DWORD PTR __Capacity$[ebp]
  0000a	8b f1		 mov	 esi, ecx
  0000c	89 06		 mov	 DWORD PTR [esi], eax
  0000e	89 46 04	 mov	 DWORD PTR [esi+4], eax
  00011	89 46 08	 mov	 DWORD PTR [esi+8], eax
  00014	3b f8		 cmp	 edi, eax
  00016	75 04		 jne	 SHORT $LN4@Buy

; 1256 : 			return (false);

  00018	32 c0		 xor	 al, al
  0001a	eb 2b		 jmp	 SHORT $LN5@Buy
$LN4@Buy:

; 1257 : 		else if (max_size() < _Capacity)

  0001c	81 ff cc cc cc
	0c		 cmp	 edi, 214748364		; 0cccccccH
  00022	76 0b		 jbe	 SHORT $LN2@Buy

; 1258 : 			_Xlen();	// result too long

  00024	68 00 00 00 00	 push	 OFFSET ??_C@_0BD@OLBABOEK@vector?$DMT?$DO?5too?5long?$AA@
  00029	ff 15 00 00 00
	00		 call	 DWORD PTR __imp_?_Xlength_error@std@@YAXPBD@Z
$LN19@Buy:
$LN2@Buy:

; 1259 : 		else
; 1260 : 			{	// nonempty array, allocate storage
; 1261 : 			this->_Myfirst = this->_Alval.allocate(_Capacity);

  0002f	50		 push	 eax
  00030	57		 push	 edi
  00031	e8 00 00 00 00	 call	 ??$_Allocate@UColorText@ioMission@@@std@@YAPAUColorText@ioMission@@IPAU12@@Z ; std::_Allocate<ioMission::ColorText>

; 1262 : 			this->_Mylast = this->_Myfirst;
; 1263 : 			this->_Myend = this->_Myfirst + _Capacity;

  00036	6b ff 14	 imul	 edi, 20			; 00000014H
  00039	03 f8		 add	 edi, eax
  0003b	59		 pop	 ecx
  0003c	89 06		 mov	 DWORD PTR [esi], eax
  0003e	89 46 04	 mov	 DWORD PTR [esi+4], eax
  00041	59		 pop	 ecx
  00042	89 7e 08	 mov	 DWORD PTR [esi+8], edi

; 1264 : 			}
; 1265 : 		return (true);

  00045	b0 01		 mov	 al, 1
$LN5@Buy:
  00047	5f		 pop	 edi
  00048	5e		 pop	 esi

; 1266 : 		}

  00049	5d		 pop	 ebp
  0004a	c2 04 00	 ret	 4
$LN18@Buy:
?_Buy@?$vector@UColorText@ioMission@@V?$allocator@UColorText@ioMission@@@std@@@std@@IAE_NI@Z ENDP ; std::vector<ioMission::ColorText,std::allocator<ioMission::ColorText> >::_Buy
_TEXT	ENDS
PUBLIC	??8?$_Vector_const_iterator@V?$_Vector_val@V?$basic_string@DU?$char_traits@D@std@@V?$allocator@D@2@@std@@V?$allocator@V?$basic_string@DU?$char_traits@D@std@@V?$allocator@D@2@@std@@@2@@std@@@std@@QBE_NABV01@@Z ; std::_Vector_const_iterator<std::_Vector_val<std::basic_string<char,std::char_traits<char>,std::allocator<char> >,std::allocator<std::basic_string<char,std::char_traits<char>,std::allocator<char> > > > >::operator==
; Function compile flags: /Ogsp
;	COMDAT ??8?$_Vector_const_iterator@V?$_Vector_val@V?$basic_string@DU?$char_traits@D@std@@V?$allocator@D@2@@std@@V?$allocator@V?$basic_string@DU?$char_traits@D@std@@V?$allocator@D@2@@std@@@2@@std@@@std@@QBE_NABV01@@Z
_TEXT	SEGMENT
__Right$ = 8						; size = 4
??8?$_Vector_const_iterator@V?$_Vector_val@V?$basic_string@DU?$char_traits@D@std@@V?$allocator@D@2@@std@@V?$allocator@V?$basic_string@DU?$char_traits@D@std@@V?$allocator@D@2@@std@@@2@@std@@@std@@QBE_NABV01@@Z PROC ; std::_Vector_const_iterator<std::_Vector_val<std::basic_string<char,std::char_traits<char>,std::allocator<char> >,std::allocator<std::basic_string<char,std::char_traits<char>,std::allocator<char> > > > >::operator==, COMDAT
; _this$ = ecx

; 201  : 		{	// test for iterator equality

  00000	55		 push	 ebp
  00001	8b ec		 mov	 ebp, esp

; 202  : 		_Compat(_Right);
; 203  : 		return (this->_Ptr == _Right._Ptr);

  00003	8b 01		 mov	 eax, DWORD PTR [ecx]
  00005	8b 4d 08	 mov	 ecx, DWORD PTR __Right$[ebp]
  00008	2b 01		 sub	 eax, DWORD PTR [ecx]
  0000a	f7 d8		 neg	 eax
  0000c	1b c0		 sbb	 eax, eax
  0000e	40		 inc	 eax

; 204  : 		}

  0000f	5d		 pop	 ebp
  00010	c2 04 00	 ret	 4
??8?$_Vector_const_iterator@V?$_Vector_val@V?$basic_string@DU?$char_traits@D@std@@V?$allocator@D@2@@std@@V?$allocator@V?$basic_string@DU?$char_traits@D@std@@V?$allocator@D@2@@std@@@2@@std@@@std@@QBE_NABV01@@Z ENDP ; std::_Vector_const_iterator<std::_Vector_val<std::basic_string<char,std::char_traits<char>,std::allocator<char> >,std::allocator<std::basic_string<char,std::char_traits<char>,std::allocator<char> > > > >::operator==
_TEXT	ENDS
PUBLIC	??8?$_Vector_const_iterator@V?$_Vector_val@V?$vector@UColorText@ioMission@@V?$allocator@UColorText@ioMission@@@std@@@std@@V?$allocator@V?$vector@UColorText@ioMission@@V?$allocator@UColorText@ioMission@@@std@@@std@@@2@@std@@@std@@QBE_NABV01@@Z ; std::_Vector_const_iterator<std::_Vector_val<std::vector<ioMission::ColorText,std::allocator<ioMission::ColorText> >,std::allocator<std::vector<ioMission::ColorText,std::allocator<ioMission::ColorText> > > > >::operator==
; Function compile flags: /Ogsp
;	COMDAT ??8?$_Vector_const_iterator@V?$_Vector_val@V?$vector@UColorText@ioMission@@V?$allocator@UColorText@ioMission@@@std@@@std@@V?$allocator@V?$vector@UColorText@ioMission@@V?$allocator@UColorText@ioMission@@@std@@@std@@@2@@std@@@std@@QBE_NABV01@@Z
_TEXT	SEGMENT
__Right$ = 8						; size = 4
??8?$_Vector_const_iterator@V?$_Vector_val@V?$vector@UColorText@ioMission@@V?$allocator@UColorText@ioMission@@@std@@@std@@V?$allocator@V?$vector@UColorText@ioMission@@V?$allocator@UColorText@ioMission@@@std@@@std@@@2@@std@@@std@@QBE_NABV01@@Z PROC ; std::_Vector_const_iterator<std::_Vector_val<std::vector<ioMission::ColorText,std::allocator<ioMission::ColorText> >,std::allocator<std::vector<ioMission::ColorText,std::allocator<ioMission::ColorText> > > > >::operator==, COMDAT
; _this$ = ecx

; 201  : 		{	// test for iterator equality

  00000	55		 push	 ebp
  00001	8b ec		 mov	 ebp, esp

; 202  : 		_Compat(_Right);
; 203  : 		return (this->_Ptr == _Right._Ptr);

  00003	8b 01		 mov	 eax, DWORD PTR [ecx]
  00005	8b 4d 08	 mov	 ecx, DWORD PTR __Right$[ebp]
  00008	2b 01		 sub	 eax, DWORD PTR [ecx]
  0000a	f7 d8		 neg	 eax
  0000c	1b c0		 sbb	 eax, eax
  0000e	40		 inc	 eax

; 204  : 		}

  0000f	5d		 pop	 ebp
  00010	c2 04 00	 ret	 4
??8?$_Vector_const_iterator@V?$_Vector_val@V?$vector@UColorText@ioMission@@V?$allocator@UColorText@ioMission@@@std@@@std@@V?$allocator@V?$vector@UColorText@ioMission@@V?$allocator@UColorText@ioMission@@@std@@@std@@@2@@std@@@std@@QBE_NABV01@@Z ENDP ; std::_Vector_const_iterator<std::_Vector_val<std::vector<ioMission::ColorText,std::allocator<ioMission::ColorText> >,std::allocator<std::vector<ioMission::ColorText,std::allocator<ioMission::ColorText> > > > >::operator==
_TEXT	ENDS
PUBLIC	??$_Destroy@UColorText@ioMission@@@std@@YAXPAUColorText@ioMission@@@Z ; std::_Destroy<ioMission::ColorText>
; Function compile flags: /Ogsp
; File c:\program files (x86)\microsoft visual studio 10.0\vc\include\xmemory
;	COMDAT ??$_Destroy@UColorText@ioMission@@@std@@YAXPAUColorText@ioMission@@@Z
_TEXT	SEGMENT
__Ptr$ = 8						; size = 4
??$_Destroy@UColorText@ioMission@@@std@@YAXPAUColorText@ioMission@@@Z PROC ; std::_Destroy<ioMission::ColorText>, COMDAT

; 62   : 	{	// destroy object at _Ptr

  00000	55		 push	 ebp
  00001	8b ec		 mov	 ebp, esp

; 63   : 	_Ptr->~_Ty();

  00003	8b 4d 08	 mov	 ecx, DWORD PTR __Ptr$[ebp]
  00006	83 c1 04	 add	 ecx, 4

; 64   : 	}

  00009	5d		 pop	 ebp

; 63   : 	_Ptr->~_Ty();

  0000a	ff 25 00 00 00
	00		 jmp	 DWORD PTR __imp_??1ioHashString@@QAE@XZ
??$_Destroy@UColorText@ioMission@@@std@@YAXPAUColorText@ioMission@@@Z ENDP ; std::_Destroy<ioMission::ColorText>
_TEXT	ENDS
PUBLIC	?construct@?$allocator@VioHashString@@@std@@QAEXPAVioHashString@@$$QAV3@@Z ; std::allocator<ioHashString>::construct
;	COMDAT xdata$x
; File c:\program files (x86)\microsoft visual studio 10.0\vc\include\utility
xdata$x	SEGMENT
__unwindtable$?construct@?$allocator@VioHashString@@@std@@QAEXPAVioHashString@@$$QAV3@@Z DD 0ffffffffH
	DD	FLAT:__unwindfunclet$?construct@?$allocator@VioHashString@@@std@@QAEXPAVioHashString@@$$QAV3@@Z$0
__ehfuncinfo$?construct@?$allocator@VioHashString@@@std@@QAEXPAVioHashString@@$$QAV3@@Z DD 019930522H
	DD	01H
	DD	FLAT:__unwindtable$?construct@?$allocator@VioHashString@@@std@@QAEXPAVioHashString@@$$QAV3@@Z
	DD	2 DUP(00H)
	DD	2 DUP(00H)
	DD	00H
	DD	01H
; Function compile flags: /Ogsp
; File c:\program files (x86)\microsoft visual studio 10.0\vc\include\xmemory
xdata$x	ENDS
;	COMDAT ?construct@?$allocator@VioHashString@@@std@@QAEXPAVioHashString@@$$QAV3@@Z
_TEXT	SEGMENT
$T512660 = -16						; size = 4
__$EHRec$ = -12						; size = 12
__Ptr$ = 8						; size = 4
__Val$ = 12						; size = 4
?construct@?$allocator@VioHashString@@@std@@QAEXPAVioHashString@@$$QAV3@@Z PROC ; std::allocator<ioHashString>::construct, COMDAT
; _this$ = ecx

; 201  : 		{	// construct object at _Ptr with value _Val

  00000	6a 04		 push	 4
  00002	b8 00 00 00 00	 mov	 eax, __ehhandler$?construct@?$allocator@VioHashString@@@std@@QAEXPAVioHashString@@$$QAV3@@Z
  00007	e8 00 00 00 00	 call	 __EH_prolog3

; 202  : 		::new ((void _FARQ *)_Ptr) _Ty(_STD forward<_Ty>(_Val));

  0000c	8b 4d 08	 mov	 ecx, DWORD PTR __Ptr$[ebp]
  0000f	89 4d f0	 mov	 DWORD PTR $T512660[ebp], ecx
  00012	83 65 fc 00	 and	 DWORD PTR __$EHRec$[ebp+8], 0
  00016	85 c9		 test	 ecx, ecx
  00018	74 09		 je	 SHORT $LN3@construct@3
  0001a	ff 75 0c	 push	 DWORD PTR __Val$[ebp]
  0001d	ff 15 00 00 00
	00		 call	 DWORD PTR __imp_??0ioHashString@@QAE@ABV0@@Z
$LN3@construct@3:

; 203  : 		}

  00023	e8 00 00 00 00	 call	 __EH_epilog3
  00028	c2 08 00	 ret	 8
_TEXT	ENDS
;	COMDAT text$x
text$x	SEGMENT
__unwindfunclet$?construct@?$allocator@VioHashString@@@std@@QAEXPAVioHashString@@$$QAV3@@Z$0:
  00000	ff 75 08	 push	 DWORD PTR __Ptr$[ebp]
  00003	ff 75 f0	 push	 DWORD PTR $T512660[ebp]
  00006	e8 00 00 00 00	 call	 ??3@YAXPAX0@Z		; operator delete
  0000b	59		 pop	 ecx
  0000c	59		 pop	 ecx
  0000d	c3		 ret	 0
__ehhandler$?construct@?$allocator@VioHashString@@@std@@QAEXPAVioHashString@@$$QAV3@@Z:
  0000e	8b 54 24 08	 mov	 edx, DWORD PTR [esp+8]
  00012	8d 42 0c	 lea	 eax, DWORD PTR [edx+12]
  00015	8b 4a ec	 mov	 ecx, DWORD PTR [edx-20]
  00018	33 c8		 xor	 ecx, eax
  0001a	e8 00 00 00 00	 call	 @__security_check_cookie@4
  0001f	b8 00 00 00 00	 mov	 eax, OFFSET __ehfuncinfo$?construct@?$allocator@VioHashString@@@std@@QAEXPAVioHashString@@$$QAV3@@Z
  00024	e9 00 00 00 00	 jmp	 ___CxxFrameHandler3
text$x	ENDS
?construct@?$allocator@VioHashString@@@std@@QAEXPAVioHashString@@$$QAV3@@Z ENDP ; std::allocator<ioHashString>::construct
PUBLIC	?construct@?$allocator@UColorText@ioMission@@@std@@QAEXPAUColorText@ioMission@@$$QAU34@@Z ; std::allocator<ioMission::ColorText>::construct
;	COMDAT xdata$x
xdata$x	SEGMENT
__unwindtable$?construct@?$allocator@UColorText@ioMission@@@std@@QAEXPAUColorText@ioMission@@$$QAU34@@Z DD 0ffffffffH
	DD	FLAT:__unwindfunclet$?construct@?$allocator@UColorText@ioMission@@@std@@QAEXPAUColorText@ioMission@@$$QAU34@@Z$0
__ehfuncinfo$?construct@?$allocator@UColorText@ioMission@@@std@@QAEXPAUColorText@ioMission@@$$QAU34@@Z DD 019930522H
	DD	01H
	DD	FLAT:__unwindtable$?construct@?$allocator@UColorText@ioMission@@@std@@QAEXPAUColorText@ioMission@@$$QAU34@@Z
	DD	2 DUP(00H)
	DD	2 DUP(00H)
	DD	00H
	DD	01H
; Function compile flags: /Ogsp
xdata$x	ENDS
;	COMDAT ?construct@?$allocator@UColorText@ioMission@@@std@@QAEXPAUColorText@ioMission@@$$QAU34@@Z
_TEXT	SEGMENT
$T512679 = -16						; size = 4
__$EHRec$ = -12						; size = 12
__Ptr$ = 8						; size = 4
__Val$ = 12						; size = 4
?construct@?$allocator@UColorText@ioMission@@@std@@QAEXPAUColorText@ioMission@@$$QAU34@@Z PROC ; std::allocator<ioMission::ColorText>::construct, COMDAT
; _this$ = ecx

; 201  : 		{	// construct object at _Ptr with value _Val

  00000	6a 04		 push	 4
  00002	b8 00 00 00 00	 mov	 eax, __ehhandler$?construct@?$allocator@UColorText@ioMission@@@std@@QAEXPAUColorText@ioMission@@$$QAU34@@Z
  00007	e8 00 00 00 00	 call	 __EH_prolog3

; 202  : 		::new ((void _FARQ *)_Ptr) _Ty(_STD forward<_Ty>(_Val));

  0000c	8b 45 08	 mov	 eax, DWORD PTR __Ptr$[ebp]
  0000f	89 45 f0	 mov	 DWORD PTR $T512679[ebp], eax
  00012	83 65 fc 00	 and	 DWORD PTR __$EHRec$[ebp+8], 0
  00016	85 c0		 test	 eax, eax
  00018	74 14		 je	 SHORT $LN3@construct@4
  0001a	8b 4d 0c	 mov	 ecx, DWORD PTR __Val$[ebp]
  0001d	8b 11		 mov	 edx, DWORD PTR [ecx]
  0001f	83 c1 04	 add	 ecx, 4
  00022	51		 push	 ecx
  00023	8d 48 04	 lea	 ecx, DWORD PTR [eax+4]
  00026	89 10		 mov	 DWORD PTR [eax], edx
  00028	ff 15 00 00 00
	00		 call	 DWORD PTR __imp_??0ioHashString@@QAE@ABV0@@Z
$LN3@construct@4:

; 203  : 		}

  0002e	e8 00 00 00 00	 call	 __EH_epilog3
  00033	c2 08 00	 ret	 8
_TEXT	ENDS
;	COMDAT text$x
text$x	SEGMENT
__unwindfunclet$?construct@?$allocator@UColorText@ioMission@@@std@@QAEXPAUColorText@ioMission@@$$QAU34@@Z$0:
  00000	ff 75 08	 push	 DWORD PTR __Ptr$[ebp]
  00003	ff 75 f0	 push	 DWORD PTR $T512679[ebp]
  00006	e8 00 00 00 00	 call	 ??3@YAXPAX0@Z		; operator delete
  0000b	59		 pop	 ecx
  0000c	59		 pop	 ecx
  0000d	c3		 ret	 0
__ehhandler$?construct@?$allocator@UColorText@ioMission@@@std@@QAEXPAUColorText@ioMission@@$$QAU34@@Z:
  0000e	8b 54 24 08	 mov	 edx, DWORD PTR [esp+8]
  00012	8d 42 0c	 lea	 eax, DWORD PTR [edx+12]
  00015	8b 4a ec	 mov	 ecx, DWORD PTR [edx-20]
  00018	33 c8		 xor	 ecx, eax
  0001a	e8 00 00 00 00	 call	 @__security_check_cookie@4
  0001f	b8 00 00 00 00	 mov	 eax, OFFSET __ehfuncinfo$?construct@?$allocator@UColorText@ioMission@@@std@@QAEXPAUColorText@ioMission@@$$QAU34@@Z
  00024	e9 00 00 00 00	 jmp	 ___CxxFrameHandler3
text$x	ENDS
?construct@?$allocator@UColorText@ioMission@@@std@@QAEXPAUColorText@ioMission@@$$QAU34@@Z ENDP ; std::allocator<ioMission::ColorText>::construct
PUBLIC	?begin@?$vector@UColorText@ioMission@@V?$allocator@UColorText@ioMission@@@std@@@std@@QAE?AV?$_Vector_iterator@V?$_Vector_val@UColorText@ioMission@@V?$allocator@UColorText@ioMission@@@std@@@std@@@2@XZ ; std::vector<ioMission::ColorText,std::allocator<ioMission::ColorText> >::begin
; Function compile flags: /Ogsp
; File c:\program files (x86)\microsoft visual studio 10.0\vc\include\vector
;	COMDAT ?begin@?$vector@UColorText@ioMission@@V?$allocator@UColorText@ioMission@@@std@@@std@@QAE?AV?$_Vector_iterator@V?$_Vector_val@UColorText@ioMission@@V?$allocator@UColorText@ioMission@@@std@@@std@@@2@XZ
_TEXT	SEGMENT
___$ReturnUdt$ = 8					; size = 4
?begin@?$vector@UColorText@ioMission@@V?$allocator@UColorText@ioMission@@@std@@@std@@QAE?AV?$_Vector_iterator@V?$_Vector_val@UColorText@ioMission@@V?$allocator@UColorText@ioMission@@@std@@@std@@@2@XZ PROC ; std::vector<ioMission::ColorText,std::allocator<ioMission::ColorText> >::begin, COMDAT
; _this$ = ecx

; 781  : 		{	// return iterator for beginning of mutable sequence

  00000	55		 push	 ebp
  00001	8b ec		 mov	 ebp, esp

; 782  : 		return (iterator(this->_Myfirst, this));

  00003	8b 09		 mov	 ecx, DWORD PTR [ecx]
  00005	8b 45 08	 mov	 eax, DWORD PTR ___$ReturnUdt$[ebp]
  00008	89 08		 mov	 DWORD PTR [eax], ecx

; 783  : 		}

  0000a	5d		 pop	 ebp
  0000b	c2 04 00	 ret	 4
?begin@?$vector@UColorText@ioMission@@V?$allocator@UColorText@ioMission@@@std@@@std@@QAE?AV?$_Vector_iterator@V?$_Vector_val@UColorText@ioMission@@V?$allocator@UColorText@ioMission@@@std@@@std@@@2@XZ ENDP ; std::vector<ioMission::ColorText,std::allocator<ioMission::ColorText> >::begin
_TEXT	ENDS
PUBLIC	?end@?$vector@UColorText@ioMission@@V?$allocator@UColorText@ioMission@@@std@@@std@@QAE?AV?$_Vector_iterator@V?$_Vector_val@UColorText@ioMission@@V?$allocator@UColorText@ioMission@@@std@@@std@@@2@XZ ; std::vector<ioMission::ColorText,std::allocator<ioMission::ColorText> >::end
; Function compile flags: /Ogsp
;	COMDAT ?end@?$vector@UColorText@ioMission@@V?$allocator@UColorText@ioMission@@@std@@@std@@QAE?AV?$_Vector_iterator@V?$_Vector_val@UColorText@ioMission@@V?$allocator@UColorText@ioMission@@@std@@@std@@@2@XZ
_TEXT	SEGMENT
___$ReturnUdt$ = 8					; size = 4
?end@?$vector@UColorText@ioMission@@V?$allocator@UColorText@ioMission@@@std@@@std@@QAE?AV?$_Vector_iterator@V?$_Vector_val@UColorText@ioMission@@V?$allocator@UColorText@ioMission@@@std@@@std@@@2@XZ PROC ; std::vector<ioMission::ColorText,std::allocator<ioMission::ColorText> >::end, COMDAT
; _this$ = ecx

; 791  : 		{	// return iterator for end of mutable sequence

  00000	55		 push	 ebp
  00001	8b ec		 mov	 ebp, esp

; 792  : 		return (iterator(this->_Mylast, this));

  00003	8b 49 04	 mov	 ecx, DWORD PTR [ecx+4]
  00006	8b 45 08	 mov	 eax, DWORD PTR ___$ReturnUdt$[ebp]
  00009	89 08		 mov	 DWORD PTR [eax], ecx

; 793  : 		}

  0000b	5d		 pop	 ebp
  0000c	c2 04 00	 ret	 4
?end@?$vector@UColorText@ioMission@@V?$allocator@UColorText@ioMission@@@std@@@std@@QAE?AV?$_Vector_iterator@V?$_Vector_val@UColorText@ioMission@@V?$allocator@UColorText@ioMission@@@std@@@std@@@2@XZ ENDP ; std::vector<ioMission::ColorText,std::allocator<ioMission::ColorText> >::end
_TEXT	ENDS
PUBLIC	??D?$_Vector_iterator@V?$_Vector_val@UColorText@ioMission@@V?$allocator@UColorText@ioMission@@@std@@@std@@@std@@QBEAAUColorText@ioMission@@XZ ; std::_Vector_iterator<std::_Vector_val<ioMission::ColorText,std::allocator<ioMission::ColorText> > >::operator*
; Function compile flags: /Ogsp
;	COMDAT ??D?$_Vector_iterator@V?$_Vector_val@UColorText@ioMission@@V?$allocator@UColorText@ioMission@@@std@@@std@@@std@@QBEAAUColorText@ioMission@@XZ
_TEXT	SEGMENT
??D?$_Vector_iterator@V?$_Vector_val@UColorText@ioMission@@V?$allocator@UColorText@ioMission@@@std@@@std@@@std@@QBEAAUColorText@ioMission@@XZ PROC ; std::_Vector_iterator<std::_Vector_val<ioMission::ColorText,std::allocator<ioMission::ColorText> > >::operator*, COMDAT
; _this$ = ecx

; 322  : 		return ((reference)**(_Mybase *)this);

  00000	8b 01		 mov	 eax, DWORD PTR [ecx]

; 323  : 		}

  00002	c3		 ret	 0
??D?$_Vector_iterator@V?$_Vector_val@UColorText@ioMission@@V?$allocator@UColorText@ioMission@@@std@@@std@@@std@@QBEAAUColorText@ioMission@@XZ ENDP ; std::_Vector_iterator<std::_Vector_val<ioMission::ColorText,std::allocator<ioMission::ColorText> > >::operator*
_TEXT	ENDS
PUBLIC	??E?$_Vector_iterator@V?$_Vector_val@UColorText@ioMission@@V?$allocator@UColorText@ioMission@@@std@@@std@@@std@@QAEAAV01@XZ ; std::_Vector_iterator<std::_Vector_val<ioMission::ColorText,std::allocator<ioMission::ColorText> > >::operator++
; Function compile flags: /Ogsp
;	COMDAT ??E?$_Vector_iterator@V?$_Vector_val@UColorText@ioMission@@V?$allocator@UColorText@ioMission@@@std@@@std@@@std@@QAEAAV01@XZ
_TEXT	SEGMENT
??E?$_Vector_iterator@V?$_Vector_val@UColorText@ioMission@@V?$allocator@UColorText@ioMission@@@std@@@std@@@std@@QAEAAV01@XZ PROC ; std::_Vector_iterator<std::_Vector_val<ioMission::ColorText,std::allocator<ioMission::ColorText> > >::operator++, COMDAT
; _this$ = ecx

; 331  : 		{	// preincrement

  00000	8b c1		 mov	 eax, ecx

; 332  : 		++*(_Mybase *)this;

  00002	83 00 14	 add	 DWORD PTR [eax], 20	; 00000014H

; 333  : 		return (*this);
; 334  : 		}

  00005	c3		 ret	 0
??E?$_Vector_iterator@V?$_Vector_val@UColorText@ioMission@@V?$allocator@UColorText@ioMission@@@std@@@std@@@std@@QAEAAV01@XZ ENDP ; std::_Vector_iterator<std::_Vector_val<ioMission::ColorText,std::allocator<ioMission::ColorText> > >::operator++
_TEXT	ENDS
PUBLIC	??8?$_Vector_const_iterator@V?$_Vector_val@UColorText@ioMission@@V?$allocator@UColorText@ioMission@@@std@@@std@@@std@@QBE_NABV01@@Z ; std::_Vector_const_iterator<std::_Vector_val<ioMission::ColorText,std::allocator<ioMission::ColorText> > >::operator==
; Function compile flags: /Ogsp
;	COMDAT ??8?$_Vector_const_iterator@V?$_Vector_val@UColorText@ioMission@@V?$allocator@UColorText@ioMission@@@std@@@std@@@std@@QBE_NABV01@@Z
_TEXT	SEGMENT
__Right$ = 8						; size = 4
??8?$_Vector_const_iterator@V?$_Vector_val@UColorText@ioMission@@V?$allocator@UColorText@ioMission@@@std@@@std@@@std@@QBE_NABV01@@Z PROC ; std::_Vector_const_iterator<std::_Vector_val<ioMission::ColorText,std::allocator<ioMission::ColorText> > >::operator==, COMDAT
; _this$ = ecx

; 201  : 		{	// test for iterator equality

  00000	55		 push	 ebp
  00001	8b ec		 mov	 ebp, esp

; 202  : 		_Compat(_Right);
; 203  : 		return (this->_Ptr == _Right._Ptr);

  00003	8b 01		 mov	 eax, DWORD PTR [ecx]
  00005	8b 4d 08	 mov	 ecx, DWORD PTR __Right$[ebp]
  00008	2b 01		 sub	 eax, DWORD PTR [ecx]
  0000a	f7 d8		 neg	 eax
  0000c	1b c0		 sbb	 eax, eax
  0000e	40		 inc	 eax

; 204  : 		}

  0000f	5d		 pop	 ebp
  00010	c2 04 00	 ret	 4
??8?$_Vector_const_iterator@V?$_Vector_val@UColorText@ioMission@@V?$allocator@UColorText@ioMission@@@std@@@std@@@std@@QBE_NABV01@@Z ENDP ; std::_Vector_const_iterator<std::_Vector_val<ioMission::ColorText,std::allocator<ioMission::ColorText> > >::operator==
_TEXT	ENDS
PUBLIC	??$?9UColorText@ioMission@@U01@@std@@YA_NABV?$allocator@UColorText@ioMission@@@0@0@Z ; std::operator!=<ioMission::ColorText,ioMission::ColorText>
; Function compile flags: /Ogsp
; File c:\program files (x86)\microsoft visual studio 10.0\vc\include\xmemory
;	COMDAT ??$?9UColorText@ioMission@@U01@@std@@YA_NABV?$allocator@UColorText@ioMission@@@0@0@Z
_TEXT	SEGMENT
__Left$ = 8						; size = 4
__Right$ = 12						; size = 4
??$?9UColorText@ioMission@@U01@@std@@YA_NABV?$allocator@UColorText@ioMission@@@0@0@Z PROC ; std::operator!=<ioMission::ColorText,ioMission::ColorText>, COMDAT

; 271  : 	return (!(_Left == _Right));

  00000	32 c0		 xor	 al, al

; 272  : 	}

  00002	c3		 ret	 0
??$?9UColorText@ioMission@@U01@@std@@YA_NABV?$allocator@UColorText@ioMission@@@0@0@Z ENDP ; std::operator!=<ioMission::ColorText,ioMission::ColorText>
_TEXT	ENDS
PUBLIC	??$_Move@PAUColorText@ioMission@@PAU12@@std@@YAPAUColorText@ioMission@@PAU12@00U_Nonscalar_ptr_iterator_tag@0@@Z ; std::_Move<ioMission::ColorText *,ioMission::ColorText *>
; Function compile flags: /Ogsp
; File c:\program files (x86)\microsoft visual studio 10.0\vc\include\xutility
;	COMDAT ??$_Move@PAUColorText@ioMission@@PAU12@@std@@YAPAUColorText@ioMission@@PAU12@00U_Nonscalar_ptr_iterator_tag@0@@Z
_TEXT	SEGMENT
__First$ = 8						; size = 4
__Last$ = 12						; size = 4
__Dest$ = 16						; size = 4
___formal$ = 20						; size = 1
??$_Move@PAUColorText@ioMission@@PAU12@@std@@YAPAUColorText@ioMission@@PAU12@00U_Nonscalar_ptr_iterator_tag@0@@Z PROC ; std::_Move<ioMission::ColorText *,ioMission::ColorText *>, COMDAT

; 2512 : 	{	// move [_First, _Last) to [_Dest, ...), arbitrary iterators

  00000	55		 push	 ebp
  00001	8b ec		 mov	 ebp, esp
  00003	56		 push	 esi

; 2513 : 	for (; _First != _Last; ++_Dest, ++_First)

  00004	8b 75 08	 mov	 esi, DWORD PTR __First$[ebp]
  00007	57		 push	 edi
  00008	8b 7d 10	 mov	 edi, DWORD PTR __Dest$[ebp]
$LN13@Move:
  0000b	3b 75 0c	 cmp	 esi, DWORD PTR __Last$[ebp]
  0000e	74 19		 je	 SHORT $LN1@Move

; 2514 : 		*_Dest = _STD move(*_First);

  00010	8b 06		 mov	 eax, DWORD PTR [esi]
  00012	89 07		 mov	 DWORD PTR [edi], eax
  00014	8d 46 04	 lea	 eax, DWORD PTR [esi+4]
  00017	50		 push	 eax
  00018	8d 4f 04	 lea	 ecx, DWORD PTR [edi+4]
  0001b	ff 15 00 00 00
	00		 call	 DWORD PTR __imp_??4ioHashString@@QAEAAV0@ABV0@@Z
  00021	83 c7 14	 add	 edi, 20			; 00000014H
  00024	83 c6 14	 add	 esi, 20			; 00000014H
  00027	eb e2		 jmp	 SHORT $LN13@Move
$LN1@Move:

; 2515 : 	return (_Dest);

  00029	8b c7		 mov	 eax, edi
  0002b	5f		 pop	 edi
  0002c	5e		 pop	 esi

; 2516 : 	}

  0002d	5d		 pop	 ebp
  0002e	c3		 ret	 0
??$_Move@PAUColorText@ioMission@@PAU12@@std@@YAPAUColorText@ioMission@@PAU12@00U_Nonscalar_ptr_iterator_tag@0@@Z ENDP ; std::_Move<ioMission::ColorText *,ioMission::ColorText *>
_TEXT	ENDS
PUBLIC	?StringCbPrintfA@@YAJPADIPBDZZ			; StringCbPrintfA
; Function compile flags: /Ogsp
; File c:\program files (x86)\microsoft sdks\windows\v7.0a\include\strsafe.h
;	COMDAT ?StringCbPrintfA@@YAJPADIPBDZZ
_TEXT	SEGMENT
_pszDest$ = 8						; size = 4
_cbDest$ = 12						; size = 4
_pszFormat$ = 16					; size = 4
?StringCbPrintfA@@YAJPADIPBDZZ PROC			; StringCbPrintfA, COMDAT

; 4767 : {

  00000	55		 push	 ebp
  00001	8b ec		 mov	 ebp, esp

; 4768 :     HRESULT hr;
; 4769 :     size_t cchDest = cbDest / sizeof(char);
; 4770 : 
; 4771 :     hr = StringValidateDestA(pszDest, cchDest, STRSAFE_MAX_CCH);

  00003	8b 4d 0c	 mov	 ecx, DWORD PTR _cbDest$[ebp]
  00006	33 c0		 xor	 eax, eax
  00008	85 c9		 test	 ecx, ecx
  0000a	74 08		 je	 SHORT $LN4@StringCbPr
  0000c	81 f9 ff ff ff
	7f		 cmp	 ecx, 2147483647		; 7fffffffH
  00012	76 05		 jbe	 SHORT $LN5@StringCbPr
$LN4@StringCbPr:
  00014	b8 57 00 07 80	 mov	 eax, -2147024809	; 80070057H
$LN5@StringCbPr:

; 4772 :     
; 4773 :     if (SUCCEEDED(hr))

  00019	85 c0		 test	 eax, eax
  0001b	78 39		 js	 SHORT $LN1@StringCbPr

; 4774 :     {
; 4775 :         va_list argList;
; 4776 : 
; 4777 :         va_start(argList, pszFormat);
; 4778 : 
; 4779 :         hr = StringVPrintfWorkerA(pszDest,
; 4780 :                                   cchDest,
; 4781 :                                   NULL,
; 4782 :                                   pszFormat,
; 4783 :                                   argList);

  0001d	53		 push	 ebx
  0001e	56		 push	 esi
  0001f	57		 push	 edi
  00020	8b 7d 08	 mov	 edi, DWORD PTR _pszDest$[ebp]
  00023	8d 45 14	 lea	 eax, DWORD PTR _pszFormat$[ebp+4]
  00026	50		 push	 eax
  00027	ff 75 10	 push	 DWORD PTR _pszFormat$[ebp]
  0002a	8d 71 ff	 lea	 esi, DWORD PTR [ecx-1]
  0002d	56		 push	 esi
  0002e	57		 push	 edi
  0002f	33 db		 xor	 ebx, ebx
  00031	ff 15 00 00 00
	00		 call	 DWORD PTR __imp___vsnprintf
  00037	83 c4 10	 add	 esp, 16			; 00000010H
  0003a	85 c0		 test	 eax, eax
  0003c	78 0b		 js	 SHORT $LN12@StringCbPr
  0003e	3b c6		 cmp	 eax, esi
  00040	77 07		 ja	 SHORT $LN12@StringCbPr
  00042	75 0d		 jne	 SHORT $LN9@StringCbPr
  00044	88 1c 3e	 mov	 BYTE PTR [esi+edi], bl
  00047	eb 08		 jmp	 SHORT $LN9@StringCbPr
$LN12@StringCbPr:
  00049	88 1c 3e	 mov	 BYTE PTR [esi+edi], bl
  0004c	bb 7a 00 07 80	 mov	 ebx, -2147024774	; 8007007aH
$LN9@StringCbPr:
  00051	5f		 pop	 edi
  00052	5e		 pop	 esi
  00053	8b c3		 mov	 eax, ebx
  00055	5b		 pop	 ebx
$LN1@StringCbPr:

; 4784 : 
; 4785 :         va_end(argList);
; 4786 :     }
; 4787 : 
; 4788 :     return hr;
; 4789 : }

  00056	5d		 pop	 ebp
  00057	c3		 ret	 0
?StringCbPrintfA@@YAJPADIPBDZZ ENDP			; StringCbPrintfA
_TEXT	ENDS
PUBLIC	?c_str@?$basic_string@DU?$char_traits@D@std@@V?$allocator@D@2@@std@@QBEPBDXZ ; std::basic_string<char,std::char_traits<char>,std::allocator<char> >::c_str
; Function compile flags: /Ogsp
; File c:\program files (x86)\microsoft visual studio 10.0\vc\include\xstring
;	COMDAT ?c_str@?$basic_string@DU?$char_traits@D@std@@V?$allocator@D@2@@std@@QBEPBDXZ
_TEXT	SEGMENT
?c_str@?$basic_string@DU?$char_traits@D@std@@V?$allocator@D@2@@std@@QBEPBDXZ PROC ; std::basic_string<char,std::char_traits<char>,std::allocator<char> >::c_str, COMDAT
; _this$ = ecx

; 1497 : 		return (_Myptr());

  00000	83 79 14 10	 cmp	 DWORD PTR [ecx+20], 16	; 00000010H
  00004	72 03		 jb	 SHORT $LN5@c_str
  00006	8b 01		 mov	 eax, DWORD PTR [ecx]

; 1498 : 		}

  00008	c3		 ret	 0

; 1497 : 		return (_Myptr());

$LN5@c_str:
  00009	8b c1		 mov	 eax, ecx

; 1498 : 		}

  0000b	c3		 ret	 0
?c_str@?$basic_string@DU?$char_traits@D@std@@V?$allocator@D@2@@std@@QBEPBDXZ ENDP ; std::basic_string<char,std::char_traits<char>,std::allocator<char> >::c_str
_TEXT	ENDS
PUBLIC	??0?$_String_val@DV?$allocator@D@std@@@std@@QAE@V?$allocator@D@1@@Z ; std::_String_val<char,std::allocator<char> >::_String_val<char,std::allocator<char> >
; Function compile flags: /Ogsp
;	COMDAT ??0?$_String_val@DV?$allocator@D@std@@@std@@QAE@V?$allocator@D@1@@Z
_TEXT	SEGMENT
__Al$ = 8						; size = 1
??0?$_String_val@DV?$allocator@D@std@@@std@@QAE@V?$allocator@D@1@@Z PROC ; std::_String_val<char,std::allocator<char> >::_String_val<char,std::allocator<char> >, COMDAT
; _this$ = ecx

; 454  : 		{	// construct allocator from _Al

  00000	8b c1		 mov	 eax, ecx

; 455  : 		}

  00002	c2 04 00	 ret	 4
??0?$_String_val@DV?$allocator@D@std@@@std@@QAE@V?$allocator@D@1@@Z ENDP ; std::_String_val<char,std::allocator<char> >::_String_val<char,std::allocator<char> >
_TEXT	ENDS
PUBLIC	?begin@?$vector@VioHashString@@V?$allocator@VioHashString@@@std@@@std@@QAE?AV?$_Vector_iterator@V?$_Vector_val@VioHashString@@V?$allocator@VioHashString@@@std@@@std@@@2@XZ ; std::vector<ioHashString,std::allocator<ioHashString> >::begin
; Function compile flags: /Ogsp
; File c:\program files (x86)\microsoft visual studio 10.0\vc\include\vector
;	COMDAT ?begin@?$vector@VioHashString@@V?$allocator@VioHashString@@@std@@@std@@QAE?AV?$_Vector_iterator@V?$_Vector_val@VioHashString@@V?$allocator@VioHashString@@@std@@@std@@@2@XZ
_TEXT	SEGMENT
___$ReturnUdt$ = 8					; size = 4
?begin@?$vector@VioHashString@@V?$allocator@VioHashString@@@std@@@std@@QAE?AV?$_Vector_iterator@V?$_Vector_val@VioHashString@@V?$allocator@VioHashString@@@std@@@std@@@2@XZ PROC ; std::vector<ioHashString,std::allocator<ioHashString> >::begin, COMDAT
; _this$ = ecx

; 781  : 		{	// return iterator for beginning of mutable sequence

  00000	55		 push	 ebp
  00001	8b ec		 mov	 ebp, esp

; 782  : 		return (iterator(this->_Myfirst, this));

  00003	8b 09		 mov	 ecx, DWORD PTR [ecx]
  00005	8b 45 08	 mov	 eax, DWORD PTR ___$ReturnUdt$[ebp]
  00008	89 08		 mov	 DWORD PTR [eax], ecx

; 783  : 		}

  0000a	5d		 pop	 ebp
  0000b	c2 04 00	 ret	 4
?begin@?$vector@VioHashString@@V?$allocator@VioHashString@@@std@@@std@@QAE?AV?$_Vector_iterator@V?$_Vector_val@VioHashString@@V?$allocator@VioHashString@@@std@@@std@@@2@XZ ENDP ; std::vector<ioHashString,std::allocator<ioHashString> >::begin
_TEXT	ENDS
PUBLIC	?begin@?$vector@VioHashString@@V?$allocator@VioHashString@@@std@@@std@@QBE?AV?$_Vector_const_iterator@V?$_Vector_val@VioHashString@@V?$allocator@VioHashString@@@std@@@std@@@2@XZ ; std::vector<ioHashString,std::allocator<ioHashString> >::begin
; Function compile flags: /Ogsp
;	COMDAT ?begin@?$vector@VioHashString@@V?$allocator@VioHashString@@@std@@@std@@QBE?AV?$_Vector_const_iterator@V?$_Vector_val@VioHashString@@V?$allocator@VioHashString@@@std@@@std@@@2@XZ
_TEXT	SEGMENT
___$ReturnUdt$ = 8					; size = 4
?begin@?$vector@VioHashString@@V?$allocator@VioHashString@@@std@@@std@@QBE?AV?$_Vector_const_iterator@V?$_Vector_val@VioHashString@@V?$allocator@VioHashString@@@std@@@std@@@2@XZ PROC ; std::vector<ioHashString,std::allocator<ioHashString> >::begin, COMDAT
; _this$ = ecx

; 786  : 		{	// return iterator for beginning of nonmutable sequence

  00000	55		 push	 ebp
  00001	8b ec		 mov	 ebp, esp

; 787  : 		return (const_iterator(this->_Myfirst, this));

  00003	8b 09		 mov	 ecx, DWORD PTR [ecx]
  00005	8b 45 08	 mov	 eax, DWORD PTR ___$ReturnUdt$[ebp]
  00008	89 08		 mov	 DWORD PTR [eax], ecx

; 788  : 		}

  0000a	5d		 pop	 ebp
  0000b	c2 04 00	 ret	 4
?begin@?$vector@VioHashString@@V?$allocator@VioHashString@@@std@@@std@@QBE?AV?$_Vector_const_iterator@V?$_Vector_val@VioHashString@@V?$allocator@VioHashString@@@std@@@std@@@2@XZ ENDP ; std::vector<ioHashString,std::allocator<ioHashString> >::begin
_TEXT	ENDS
PUBLIC	?end@?$vector@VioHashString@@V?$allocator@VioHashString@@@std@@@std@@QAE?AV?$_Vector_iterator@V?$_Vector_val@VioHashString@@V?$allocator@VioHashString@@@std@@@std@@@2@XZ ; std::vector<ioHashString,std::allocator<ioHashString> >::end
; Function compile flags: /Ogsp
;	COMDAT ?end@?$vector@VioHashString@@V?$allocator@VioHashString@@@std@@@std@@QAE?AV?$_Vector_iterator@V?$_Vector_val@VioHashString@@V?$allocator@VioHashString@@@std@@@std@@@2@XZ
_TEXT	SEGMENT
___$ReturnUdt$ = 8					; size = 4
?end@?$vector@VioHashString@@V?$allocator@VioHashString@@@std@@@std@@QAE?AV?$_Vector_iterator@V?$_Vector_val@VioHashString@@V?$allocator@VioHashString@@@std@@@std@@@2@XZ PROC ; std::vector<ioHashString,std::allocator<ioHashString> >::end, COMDAT
; _this$ = ecx

; 791  : 		{	// return iterator for end of mutable sequence

  00000	55		 push	 ebp
  00001	8b ec		 mov	 ebp, esp

; 792  : 		return (iterator(this->_Mylast, this));

  00003	8b 49 04	 mov	 ecx, DWORD PTR [ecx+4]
  00006	8b 45 08	 mov	 eax, DWORD PTR ___$ReturnUdt$[ebp]
  00009	89 08		 mov	 DWORD PTR [eax], ecx

; 793  : 		}

  0000b	5d		 pop	 ebp
  0000c	c2 04 00	 ret	 4
?end@?$vector@VioHashString@@V?$allocator@VioHashString@@@std@@@std@@QAE?AV?$_Vector_iterator@V?$_Vector_val@VioHashString@@V?$allocator@VioHashString@@@std@@@std@@@2@XZ ENDP ; std::vector<ioHashString,std::allocator<ioHashString> >::end
_TEXT	ENDS
PUBLIC	?end@?$vector@VioHashString@@V?$allocator@VioHashString@@@std@@@std@@QBE?AV?$_Vector_const_iterator@V?$_Vector_val@VioHashString@@V?$allocator@VioHashString@@@std@@@std@@@2@XZ ; std::vector<ioHashString,std::allocator<ioHashString> >::end
; Function compile flags: /Ogsp
;	COMDAT ?end@?$vector@VioHashString@@V?$allocator@VioHashString@@@std@@@std@@QBE?AV?$_Vector_const_iterator@V?$_Vector_val@VioHashString@@V?$allocator@VioHashString@@@std@@@std@@@2@XZ
_TEXT	SEGMENT
___$ReturnUdt$ = 8					; size = 4
?end@?$vector@VioHashString@@V?$allocator@VioHashString@@@std@@@std@@QBE?AV?$_Vector_const_iterator@V?$_Vector_val@VioHashString@@V?$allocator@VioHashString@@@std@@@std@@@2@XZ PROC ; std::vector<ioHashString,std::allocator<ioHashString> >::end, COMDAT
; _this$ = ecx

; 796  : 		{	// return iterator for end of nonmutable sequence

  00000	55		 push	 ebp
  00001	8b ec		 mov	 ebp, esp

; 797  : 		return (const_iterator(this->_Mylast, this));

  00003	8b 49 04	 mov	 ecx, DWORD PTR [ecx+4]
  00006	8b 45 08	 mov	 eax, DWORD PTR ___$ReturnUdt$[ebp]
  00009	89 08		 mov	 DWORD PTR [eax], ecx

; 798  : 		}

  0000b	5d		 pop	 ebp
  0000c	c2 04 00	 ret	 4
?end@?$vector@VioHashString@@V?$allocator@VioHashString@@@std@@@std@@QBE?AV?$_Vector_const_iterator@V?$_Vector_val@VioHashString@@V?$allocator@VioHashString@@@std@@@std@@@2@XZ ENDP ; std::vector<ioHashString,std::allocator<ioHashString> >::end
_TEXT	ENDS
PUBLIC	??0?$_Vector_val@VioHashString@@V?$allocator@VioHashString@@@std@@@std@@QAE@V?$allocator@VioHashString@@@1@@Z ; std::_Vector_val<ioHashString,std::allocator<ioHashString> >::_Vector_val<ioHashString,std::allocator<ioHashString> >
; Function compile flags: /Ogsp
;	COMDAT ??0?$_Vector_val@VioHashString@@V?$allocator@VioHashString@@@std@@@std@@QAE@V?$allocator@VioHashString@@@1@@Z
_TEXT	SEGMENT
__Al$ = 8						; size = 1
??0?$_Vector_val@VioHashString@@V?$allocator@VioHashString@@@std@@@std@@QAE@V?$allocator@VioHashString@@@1@@Z PROC ; std::_Vector_val<ioHashString,std::allocator<ioHashString> >::_Vector_val<ioHashString,std::allocator<ioHashString> >, COMDAT
; _this$ = ecx

; 426  : 		{	// construct allocator from _Al

  00000	8b c1		 mov	 eax, ecx

; 427  : 		_Myfirst = 0;

  00002	33 c9		 xor	 ecx, ecx
  00004	89 08		 mov	 DWORD PTR [eax], ecx

; 428  : 		_Mylast = 0;

  00006	89 48 04	 mov	 DWORD PTR [eax+4], ecx

; 429  : 		_Myend = 0;

  00009	89 48 08	 mov	 DWORD PTR [eax+8], ecx

; 430  : 		}

  0000c	c2 04 00	 ret	 4
??0?$_Vector_val@VioHashString@@V?$allocator@VioHashString@@@std@@@std@@QAE@V?$allocator@VioHashString@@@1@@Z ENDP ; std::_Vector_val<ioHashString,std::allocator<ioHashString> >::_Vector_val<ioHashString,std::allocator<ioHashString> >
_TEXT	ENDS
PUBLIC	?_Eos@?$basic_string@DU?$char_traits@D@std@@V?$allocator@D@2@@std@@QAEXI@Z ; std::basic_string<char,std::char_traits<char>,std::allocator<char> >::_Eos
; Function compile flags: /Ogsp
; File c:\program files (x86)\microsoft visual studio 10.0\vc\include\xstring
;	COMDAT ?_Eos@?$basic_string@DU?$char_traits@D@std@@V?$allocator@D@2@@std@@QAEXI@Z
_TEXT	SEGMENT
__Newsize$ = 8						; size = 4
?_Eos@?$basic_string@DU?$char_traits@D@std@@V?$allocator@D@2@@std@@QAEXI@Z PROC ; std::basic_string<char,std::char_traits<char>,std::allocator<char> >::_Eos, COMDAT
; _this$ = ecx

; 1953 : 		{	// set new length and null terminator

  00000	55		 push	 ebp
  00001	8b ec		 mov	 ebp, esp

; 1954 : 		_Traits::assign(_Myptr()[this->_Mysize = _Newsize], _Elem());

  00003	83 79 14 10	 cmp	 DWORD PTR [ecx+20], 16	; 00000010H
  00007	8b 45 08	 mov	 eax, DWORD PTR __Newsize$[ebp]
  0000a	89 41 10	 mov	 DWORD PTR [ecx+16], eax
  0000d	72 02		 jb	 SHORT $LN5@Eos
  0000f	8b 09		 mov	 ecx, DWORD PTR [ecx]
$LN5@Eos:
  00011	c6 04 01 00	 mov	 BYTE PTR [ecx+eax], 0

; 1955 : 		}

  00015	5d		 pop	 ebp
  00016	c2 04 00	 ret	 4
?_Eos@?$basic_string@DU?$char_traits@D@std@@V?$allocator@D@2@@std@@QAEXI@Z ENDP ; std::basic_string<char,std::char_traits<char>,std::allocator<char> >::_Eos
_TEXT	ENDS
PUBLIC	?_Make_iter@?$vector@VioHashString@@V?$allocator@VioHashString@@@std@@@std@@QBE?AV?$_Vector_iterator@V?$_Vector_val@VioHashString@@V?$allocator@VioHashString@@@std@@@std@@@2@V?$_Vector_const_iterator@V?$_Vector_val@VioHashString@@V?$allocator@VioHashString@@@std@@@std@@@2@@Z ; std::vector<ioHashString,std::allocator<ioHashString> >::_Make_iter
; Function compile flags: /Ogsp
; File c:\program files (x86)\microsoft visual studio 10.0\vc\include\vector
;	COMDAT ?_Make_iter@?$vector@VioHashString@@V?$allocator@VioHashString@@@std@@@std@@QBE?AV?$_Vector_iterator@V?$_Vector_val@VioHashString@@V?$allocator@VioHashString@@@std@@@std@@@2@V?$_Vector_const_iterator@V?$_Vector_val@VioHashString@@V?$allocator@VioHashString@@@std@@@std@@@2@@Z
_TEXT	SEGMENT
___$ReturnUdt$ = 8					; size = 4
__Where$ = 12						; size = 4
?_Make_iter@?$vector@VioHashString@@V?$allocator@VioHashString@@@std@@@std@@QBE?AV?$_Vector_iterator@V?$_Vector_val@VioHashString@@V?$allocator@VioHashString@@@std@@@std@@@2@V?$_Vector_const_iterator@V?$_Vector_val@VioHashString@@V?$allocator@VioHashString@@@std@@@std@@@2@@Z PROC ; std::vector<ioHashString,std::allocator<ioHashString> >::_Make_iter, COMDAT
; _this$ = ecx

; 801  : 		{	// make iterator from const_iterator

  00000	55		 push	 ebp
  00001	8b ec		 mov	 ebp, esp

; 802  : 		return (iterator(_Where._Ptr, this));

  00003	8b 45 08	 mov	 eax, DWORD PTR ___$ReturnUdt$[ebp]
  00006	8b 4d 0c	 mov	 ecx, DWORD PTR __Where$[ebp]
  00009	89 08		 mov	 DWORD PTR [eax], ecx

; 803  : 		}

  0000b	5d		 pop	 ebp
  0000c	c2 08 00	 ret	 8
?_Make_iter@?$vector@VioHashString@@V?$allocator@VioHashString@@@std@@@std@@QBE?AV?$_Vector_iterator@V?$_Vector_val@VioHashString@@V?$allocator@VioHashString@@@std@@@std@@@2@V?$_Vector_const_iterator@V?$_Vector_val@VioHashString@@V?$allocator@VioHashString@@@std@@@std@@@2@@Z ENDP ; std::vector<ioHashString,std::allocator<ioHashString> >::_Make_iter
_TEXT	ENDS
PUBLIC	?max_size@?$vector@VioHashString@@V?$allocator@VioHashString@@@std@@@std@@QBEIXZ ; std::vector<ioHashString,std::allocator<ioHashString> >::max_size
; Function compile flags: /Ogsp
;	COMDAT ?max_size@?$vector@VioHashString@@V?$allocator@VioHashString@@@std@@@std@@QBEIXZ
_TEXT	SEGMENT
?max_size@?$vector@VioHashString@@V?$allocator@VioHashString@@@std@@@std@@QBEIXZ PROC ; std::vector<ioHashString,std::allocator<ioHashString> >::max_size, COMDAT
; _this$ = ecx

; 884  : 		return (this->_Alval.max_size());

  00000	b8 ff ff ff 0f	 mov	 eax, 268435455		; 0fffffffH

; 885  : 		}

  00005	c3		 ret	 0
?max_size@?$vector@VioHashString@@V?$allocator@VioHashString@@@std@@@std@@QBEIXZ ENDP ; std::vector<ioHashString,std::allocator<ioHashString> >::max_size
_TEXT	ENDS
PUBLIC	?allocate@?$allocator@VioHashString@@@std@@QAEPAVioHashString@@I@Z ; std::allocator<ioHashString>::allocate
; Function compile flags: /Ogsp
; File c:\program files (x86)\microsoft visual studio 10.0\vc\include\xmemory
;	COMDAT ?allocate@?$allocator@VioHashString@@@std@@QAEPAVioHashString@@I@Z
_TEXT	SEGMENT
__Count$ = 8						; size = 4
?allocate@?$allocator@VioHashString@@@std@@QAEPAVioHashString@@I@Z PROC ; std::allocator<ioHashString>::allocate, COMDAT
; _this$ = ecx

; 186  : 		{	// allocate array of _Count elements

  00000	55		 push	 ebp
  00001	8b ec		 mov	 ebp, esp

; 187  : 		return (_Allocate(_Count, (pointer)0));

  00003	6a 00		 push	 0
  00005	ff 75 08	 push	 DWORD PTR __Count$[ebp]
  00008	e8 00 00 00 00	 call	 ??$_Allocate@VioHashString@@@std@@YAPAVioHashString@@IPAV1@@Z ; std::_Allocate<ioHashString>
  0000d	59		 pop	 ecx
  0000e	59		 pop	 ecx

; 188  : 		}

  0000f	5d		 pop	 ebp
  00010	c2 04 00	 ret	 4
?allocate@?$allocator@VioHashString@@@std@@QAEPAVioHashString@@I@Z ENDP ; std::allocator<ioHashString>::allocate
_TEXT	ENDS
PUBLIC	?max_size@?$basic_string@DU?$char_traits@D@std@@V?$allocator@D@2@@std@@QBEIXZ ; std::basic_string<char,std::char_traits<char>,std::allocator<char> >::max_size
; Function compile flags: /Ogsp
; File c:\program files (x86)\microsoft visual studio 10.0\vc\include\xstring
;	COMDAT ?max_size@?$basic_string@DU?$char_traits@D@std@@V?$allocator@D@2@@std@@QBEIXZ
_TEXT	SEGMENT
?max_size@?$basic_string@DU?$char_traits@D@std@@V?$allocator@D@2@@std@@QBEIXZ PROC ; std::basic_string<char,std::char_traits<char>,std::allocator<char> >::max_size, COMDAT
; _this$ = ecx

; 1517 : 		size_type _Num = this->_Alval.max_size();
; 1518 : 		return (_Num <= 1 ? 1 : _Num - 1);

  00000	6a fe		 push	 -2			; fffffffeH
  00002	58		 pop	 eax

; 1519 : 		}

  00003	c3		 ret	 0
?max_size@?$basic_string@DU?$char_traits@D@std@@V?$allocator@D@2@@std@@QBEIXZ ENDP ; std::basic_string<char,std::char_traits<char>,std::allocator<char> >::max_size
_TEXT	ENDS
PUBLIC	??8?$_Vector_const_iterator@V?$_Vector_val@VioHashString@@V?$allocator@VioHashString@@@std@@@std@@@std@@QBE_NABV01@@Z ; std::_Vector_const_iterator<std::_Vector_val<ioHashString,std::allocator<ioHashString> > >::operator==
; Function compile flags: /Ogsp
; File c:\program files (x86)\microsoft visual studio 10.0\vc\include\vector
;	COMDAT ??8?$_Vector_const_iterator@V?$_Vector_val@VioHashString@@V?$allocator@VioHashString@@@std@@@std@@@std@@QBE_NABV01@@Z
_TEXT	SEGMENT
__Right$ = 8						; size = 4
??8?$_Vector_const_iterator@V?$_Vector_val@VioHashString@@V?$allocator@VioHashString@@@std@@@std@@@std@@QBE_NABV01@@Z PROC ; std::_Vector_const_iterator<std::_Vector_val<ioHashString,std::allocator<ioHashString> > >::operator==, COMDAT
; _this$ = ecx

; 201  : 		{	// test for iterator equality

  00000	55		 push	 ebp
  00001	8b ec		 mov	 ebp, esp

; 202  : 		_Compat(_Right);
; 203  : 		return (this->_Ptr == _Right._Ptr);

  00003	8b 01		 mov	 eax, DWORD PTR [ecx]
  00005	8b 4d 08	 mov	 ecx, DWORD PTR __Right$[ebp]
  00008	2b 01		 sub	 eax, DWORD PTR [ecx]
  0000a	f7 d8		 neg	 eax
  0000c	1b c0		 sbb	 eax, eax
  0000e	40		 inc	 eax

; 204  : 		}

  0000f	5d		 pop	 ebp
  00010	c2 04 00	 ret	 4
??8?$_Vector_const_iterator@V?$_Vector_val@VioHashString@@V?$allocator@VioHashString@@@std@@@std@@@std@@QBE_NABV01@@Z ENDP ; std::_Vector_const_iterator<std::_Vector_val<ioHashString,std::allocator<ioHashString> > >::operator==
_TEXT	ENDS
PUBLIC	?allocate@?$allocator@D@std@@QAEPADI@Z		; std::allocator<char>::allocate
; Function compile flags: /Ogsp
; File c:\program files (x86)\microsoft visual studio 10.0\vc\include\xmemory
;	COMDAT ?allocate@?$allocator@D@std@@QAEPADI@Z
_TEXT	SEGMENT
__Count$ = 8						; size = 4
?allocate@?$allocator@D@std@@QAEPADI@Z PROC		; std::allocator<char>::allocate, COMDAT
; _this$ = ecx

; 186  : 		{	// allocate array of _Count elements

  00000	55		 push	 ebp
  00001	8b ec		 mov	 ebp, esp

; 187  : 		return (_Allocate(_Count, (pointer)0));

  00003	6a 00		 push	 0
  00005	ff 75 08	 push	 DWORD PTR __Count$[ebp]
  00008	e8 00 00 00 00	 call	 ??$_Allocate@D@std@@YAPADIPAD@Z ; std::_Allocate<char>
  0000d	59		 pop	 ecx
  0000e	59		 pop	 ecx

; 188  : 		}

  0000f	5d		 pop	 ebp
  00010	c2 04 00	 ret	 4
?allocate@?$allocator@D@std@@QAEPADI@Z ENDP		; std::allocator<char>::allocate
_TEXT	ENDS
PUBLIC	??$_Move@PAVioHashString@@PAV1@@std@@YAPAVioHashString@@PAV1@00U_Nonscalar_ptr_iterator_tag@0@@Z ; std::_Move<ioHashString *,ioHashString *>
; Function compile flags: /Ogsp
; File c:\program files (x86)\microsoft visual studio 10.0\vc\include\xutility
;	COMDAT ??$_Move@PAVioHashString@@PAV1@@std@@YAPAVioHashString@@PAV1@00U_Nonscalar_ptr_iterator_tag@0@@Z
_TEXT	SEGMENT
__First$ = 8						; size = 4
__Last$ = 12						; size = 4
__Dest$ = 16						; size = 4
___formal$ = 20						; size = 1
??$_Move@PAVioHashString@@PAV1@@std@@YAPAVioHashString@@PAV1@00U_Nonscalar_ptr_iterator_tag@0@@Z PROC ; std::_Move<ioHashString *,ioHashString *>, COMDAT

; 2512 : 	{	// move [_First, _Last) to [_Dest, ...), arbitrary iterators

  00000	55		 push	 ebp
  00001	8b ec		 mov	 ebp, esp
  00003	56		 push	 esi

; 2513 : 	for (; _First != _Last; ++_Dest, ++_First)

  00004	8b 75 08	 mov	 esi, DWORD PTR __First$[ebp]
  00007	eb 11		 jmp	 SHORT $LN11@Move@2
$LL3@Move@2:

; 2514 : 		*_Dest = _STD move(*_First);

  00009	8b 4d 10	 mov	 ecx, DWORD PTR __Dest$[ebp]
  0000c	56		 push	 esi
  0000d	ff 15 00 00 00
	00		 call	 DWORD PTR __imp_??4ioHashString@@QAEAAV0@ABV0@@Z
  00013	83 45 10 10	 add	 DWORD PTR __Dest$[ebp], 16 ; 00000010H
  00017	83 c6 10	 add	 esi, 16			; 00000010H
$LN11@Move@2:

; 2513 : 	for (; _First != _Last; ++_Dest, ++_First)

  0001a	3b 75 0c	 cmp	 esi, DWORD PTR __Last$[ebp]
  0001d	75 ea		 jne	 SHORT $LL3@Move@2

; 2515 : 	return (_Dest);

  0001f	8b 45 10	 mov	 eax, DWORD PTR __Dest$[ebp]
  00022	5e		 pop	 esi

; 2516 : 	}

  00023	5d		 pop	 ebp
  00024	c3		 ret	 0
??$_Move@PAVioHashString@@PAV1@@std@@YAPAVioHashString@@PAV1@00U_Nonscalar_ptr_iterator_tag@0@@Z ENDP ; std::_Move<ioHashString *,ioHashString *>
_TEXT	ENDS
PUBLIC	??$_Destroy@VioHashString@@@std@@YAXPAVioHashString@@@Z ; std::_Destroy<ioHashString>
; Function compile flags: /Ogsp
; File c:\program files (x86)\microsoft visual studio 10.0\vc\include\xmemory
;	COMDAT ??$_Destroy@VioHashString@@@std@@YAXPAVioHashString@@@Z
_TEXT	SEGMENT
__Ptr$ = 8						; size = 4
??$_Destroy@VioHashString@@@std@@YAXPAVioHashString@@@Z PROC ; std::_Destroy<ioHashString>, COMDAT

; 62   : 	{	// destroy object at _Ptr

  00000	55		 push	 ebp
  00001	8b ec		 mov	 ebp, esp

; 63   : 	_Ptr->~_Ty();

  00003	8b 4d 08	 mov	 ecx, DWORD PTR __Ptr$[ebp]

; 64   : 	}

  00006	5d		 pop	 ebp

; 63   : 	_Ptr->~_Ty();

  00007	ff 25 00 00 00
	00		 jmp	 DWORD PTR __imp_??1ioHashString@@QAE@XZ
??$_Destroy@VioHashString@@@std@@YAXPAVioHashString@@@Z ENDP ; std::_Destroy<ioHashString>
_TEXT	ENDS
PUBLIC	?construct@?$allocator@VioHashString@@@std@@QAEXPAVioHashString@@ABV3@@Z ; std::allocator<ioHashString>::construct
; Function compile flags: /Ogsp
;	COMDAT ?construct@?$allocator@VioHashString@@@std@@QAEXPAVioHashString@@ABV3@@Z
_TEXT	SEGMENT
__Ptr$ = 8						; size = 4
__Val$ = 12						; size = 4
?construct@?$allocator@VioHashString@@@std@@QAEXPAVioHashString@@ABV3@@Z PROC ; std::allocator<ioHashString>::construct, COMDAT
; _this$ = ecx

; 196  : 		{	// construct object at _Ptr with value _Val

  00000	55		 push	 ebp
  00001	8b ec		 mov	 ebp, esp

; 197  : 		_Construct(_Ptr, _Val);

  00003	ff 75 0c	 push	 DWORD PTR __Val$[ebp]
  00006	ff 75 08	 push	 DWORD PTR __Ptr$[ebp]
  00009	e8 00 00 00 00	 call	 ??$_Construct@VioHashString@@ABV1@@std@@YAXPAVioHashString@@ABV1@@Z ; std::_Construct<ioHashString,ioHashString const &>
  0000e	59		 pop	 ecx
  0000f	59		 pop	 ecx

; 198  : 		}

  00010	5d		 pop	 ebp
  00011	c2 08 00	 ret	 8
?construct@?$allocator@VioHashString@@@std@@QAEXPAVioHashString@@ABV3@@Z ENDP ; std::allocator<ioHashString>::construct
_TEXT	ENDS
PUBLIC	??0?$vector@V?$vector@UColorText@ioMission@@V?$allocator@UColorText@ioMission@@@std@@@std@@V?$allocator@V?$vector@UColorText@ioMission@@V?$allocator@UColorText@ioMission@@@std@@@std@@@2@@std@@QAE@XZ ; std::vector<std::vector<ioMission::ColorText,std::allocator<ioMission::ColorText> >,std::allocator<std::vector<ioMission::ColorText,std::allocator<ioMission::ColorText> > > >::vector<std::vector<ioMission::ColorText,std::allocator<ioMission::ColorText> >,std::allocator<std::vector<ioMission::ColorText,std::allocator<ioMission::ColorText> > > >
; Function compile flags: /Ogsp
; File c:\program files (x86)\microsoft visual studio 10.0\vc\include\vector
;	COMDAT ??0?$vector@V?$vector@UColorText@ioMission@@V?$allocator@UColorText@ioMission@@@std@@@std@@V?$allocator@V?$vector@UColorText@ioMission@@V?$allocator@UColorText@ioMission@@@std@@@std@@@2@@std@@QAE@XZ
_TEXT	SEGMENT
??0?$vector@V?$vector@UColorText@ioMission@@V?$allocator@UColorText@ioMission@@@std@@@std@@V?$allocator@V?$vector@UColorText@ioMission@@V?$allocator@UColorText@ioMission@@@std@@@std@@@2@@std@@QAE@XZ PROC ; std::vector<std::vector<ioMission::ColorText,std::allocator<ioMission::ColorText> >,std::allocator<std::vector<ioMission::ColorText,std::allocator<ioMission::ColorText> > > >::vector<std::vector<ioMission::ColorText,std::allocator<ioMission::ColorText> >,std::allocator<std::vector<ioMission::ColorText,std::allocator<ioMission::ColorText> > > >, COMDAT
; _this$ = ecx

; 507  : 		{	// construct empty vector

  00000	8b c1		 mov	 eax, ecx
  00002	33 c9		 xor	 ecx, ecx
  00004	89 08		 mov	 DWORD PTR [eax], ecx
  00006	89 48 04	 mov	 DWORD PTR [eax+4], ecx
  00009	89 48 08	 mov	 DWORD PTR [eax+8], ecx

; 508  : 		}

  0000c	c3		 ret	 0
??0?$vector@V?$vector@UColorText@ioMission@@V?$allocator@UColorText@ioMission@@@std@@@std@@V?$allocator@V?$vector@UColorText@ioMission@@V?$allocator@UColorText@ioMission@@@std@@@std@@@2@@std@@QAE@XZ ENDP ; std::vector<std::vector<ioMission::ColorText,std::allocator<ioMission::ColorText> >,std::allocator<std::vector<ioMission::ColorText,std::allocator<ioMission::ColorText> > > >::vector<std::vector<ioMission::ColorText,std::allocator<ioMission::ColorText> >,std::allocator<std::vector<ioMission::ColorText,std::allocator<ioMission::ColorText> > > >
_TEXT	ENDS
PUBLIC	??0?$vector@UColorText@ioMission@@V?$allocator@UColorText@ioMission@@@std@@@std@@QAE@XZ ; std::vector<ioMission::ColorText,std::allocator<ioMission::ColorText> >::vector<ioMission::ColorText,std::allocator<ioMission::ColorText> >
; Function compile flags: /Ogsp
;	COMDAT ??0?$vector@UColorText@ioMission@@V?$allocator@UColorText@ioMission@@@std@@@std@@QAE@XZ
_TEXT	SEGMENT
??0?$vector@UColorText@ioMission@@V?$allocator@UColorText@ioMission@@@std@@@std@@QAE@XZ PROC ; std::vector<ioMission::ColorText,std::allocator<ioMission::ColorText> >::vector<ioMission::ColorText,std::allocator<ioMission::ColorText> >, COMDAT
; _this$ = ecx

; 507  : 		{	// construct empty vector

  00000	8b c1		 mov	 eax, ecx
  00002	33 c9		 xor	 ecx, ecx
  00004	89 08		 mov	 DWORD PTR [eax], ecx
  00006	89 48 04	 mov	 DWORD PTR [eax+4], ecx
  00009	89 48 08	 mov	 DWORD PTR [eax+8], ecx

; 508  : 		}

  0000c	c3		 ret	 0
??0?$vector@UColorText@ioMission@@V?$allocator@UColorText@ioMission@@@std@@@std@@QAE@XZ ENDP ; std::vector<ioMission::ColorText,std::allocator<ioMission::ColorText> >::vector<ioMission::ColorText,std::allocator<ioMission::ColorText> >
_TEXT	ENDS
PUBLIC	?_Buy@?$vector@V?$basic_string@DU?$char_traits@D@std@@V?$allocator@D@2@@std@@V?$allocator@V?$basic_string@DU?$char_traits@D@std@@V?$allocator@D@2@@std@@@2@@std@@IAE_NI@Z ; std::vector<std::basic_string<char,std::char_traits<char>,std::allocator<char> >,std::allocator<std::basic_string<char,std::char_traits<char>,std::allocator<char> > > >::_Buy
; Function compile flags: /Ogsp
;	COMDAT ?_Buy@?$vector@V?$basic_string@DU?$char_traits@D@std@@V?$allocator@D@2@@std@@V?$allocator@V?$basic_string@DU?$char_traits@D@std@@V?$allocator@D@2@@std@@@2@@std@@IAE_NI@Z
_TEXT	SEGMENT
__Capacity$ = 8						; size = 4
?_Buy@?$vector@V?$basic_string@DU?$char_traits@D@std@@V?$allocator@D@2@@std@@V?$allocator@V?$basic_string@DU?$char_traits@D@std@@V?$allocator@D@2@@std@@@2@@std@@IAE_NI@Z PROC ; std::vector<std::basic_string<char,std::char_traits<char>,std::allocator<char> >,std::allocator<std::basic_string<char,std::char_traits<char>,std::allocator<char> > > >::_Buy, COMDAT
; _this$ = ecx

; 1250 : 		{	// allocate array with _Capacity elements

  00000	55		 push	 ebp
  00001	8b ec		 mov	 ebp, esp
  00003	56		 push	 esi

; 1251 : 		this->_Myfirst = 0;

  00004	33 c0		 xor	 eax, eax
  00006	57		 push	 edi

; 1252 : 		this->_Mylast = 0;
; 1253 : 		this->_Myend = 0;
; 1254 : 
; 1255 : 		if (_Capacity == 0)

  00007	8b 7d 08	 mov	 edi, DWORD PTR __Capacity$[ebp]
  0000a	8b f1		 mov	 esi, ecx
  0000c	89 06		 mov	 DWORD PTR [esi], eax
  0000e	89 46 04	 mov	 DWORD PTR [esi+4], eax
  00011	89 46 08	 mov	 DWORD PTR [esi+8], eax
  00014	3b f8		 cmp	 edi, eax
  00016	75 04		 jne	 SHORT $LN4@Buy@2

; 1256 : 			return (false);

  00018	32 c0		 xor	 al, al
  0001a	eb 2b		 jmp	 SHORT $LN5@Buy@2
$LN4@Buy@2:

; 1257 : 		else if (max_size() < _Capacity)

  0001c	81 ff 49 92 24
	09		 cmp	 edi, 153391689		; 09249249H
  00022	76 0b		 jbe	 SHORT $LN2@Buy@2

; 1258 : 			_Xlen();	// result too long

  00024	68 00 00 00 00	 push	 OFFSET ??_C@_0BD@OLBABOEK@vector?$DMT?$DO?5too?5long?$AA@
  00029	ff 15 00 00 00
	00		 call	 DWORD PTR __imp_?_Xlength_error@std@@YAXPBD@Z
$LN19@Buy@2:
$LN2@Buy@2:

; 1259 : 		else
; 1260 : 			{	// nonempty array, allocate storage
; 1261 : 			this->_Myfirst = this->_Alval.allocate(_Capacity);

  0002f	50		 push	 eax
  00030	57		 push	 edi
  00031	e8 00 00 00 00	 call	 ??$_Allocate@V?$basic_string@DU?$char_traits@D@std@@V?$allocator@D@2@@std@@@std@@YAPAV?$basic_string@DU?$char_traits@D@std@@V?$allocator@D@2@@0@IPAV10@@Z ; std::_Allocate<std::basic_string<char,std::char_traits<char>,std::allocator<char> > >

; 1262 : 			this->_Mylast = this->_Myfirst;
; 1263 : 			this->_Myend = this->_Myfirst + _Capacity;

  00036	6b ff 1c	 imul	 edi, 28			; 0000001cH
  00039	03 f8		 add	 edi, eax
  0003b	59		 pop	 ecx
  0003c	89 06		 mov	 DWORD PTR [esi], eax
  0003e	89 46 04	 mov	 DWORD PTR [esi+4], eax
  00041	59		 pop	 ecx
  00042	89 7e 08	 mov	 DWORD PTR [esi+8], edi

; 1264 : 			}
; 1265 : 		return (true);

  00045	b0 01		 mov	 al, 1
$LN5@Buy@2:
  00047	5f		 pop	 edi
  00048	5e		 pop	 esi

; 1266 : 		}

  00049	5d		 pop	 ebp
  0004a	c2 04 00	 ret	 4
$LN18@Buy@2:
?_Buy@?$vector@V?$basic_string@DU?$char_traits@D@std@@V?$allocator@D@2@@std@@V?$allocator@V?$basic_string@DU?$char_traits@D@std@@V?$allocator@D@2@@std@@@2@@std@@IAE_NI@Z ENDP ; std::vector<std::basic_string<char,std::char_traits<char>,std::allocator<char> >,std::allocator<std::basic_string<char,std::char_traits<char>,std::allocator<char> > > >::_Buy
_TEXT	ENDS
PUBLIC	?_Buy@?$vector@V?$vector@UColorText@ioMission@@V?$allocator@UColorText@ioMission@@@std@@@std@@V?$allocator@V?$vector@UColorText@ioMission@@V?$allocator@UColorText@ioMission@@@std@@@std@@@2@@std@@IAE_NI@Z ; std::vector<std::vector<ioMission::ColorText,std::allocator<ioMission::ColorText> >,std::allocator<std::vector<ioMission::ColorText,std::allocator<ioMission::ColorText> > > >::_Buy
; Function compile flags: /Ogsp
;	COMDAT ?_Buy@?$vector@V?$vector@UColorText@ioMission@@V?$allocator@UColorText@ioMission@@@std@@@std@@V?$allocator@V?$vector@UColorText@ioMission@@V?$allocator@UColorText@ioMission@@@std@@@std@@@2@@std@@IAE_NI@Z
_TEXT	SEGMENT
__Capacity$ = 8						; size = 4
?_Buy@?$vector@V?$vector@UColorText@ioMission@@V?$allocator@UColorText@ioMission@@@std@@@std@@V?$allocator@V?$vector@UColorText@ioMission@@V?$allocator@UColorText@ioMission@@@std@@@std@@@2@@std@@IAE_NI@Z PROC ; std::vector<std::vector<ioMission::ColorText,std::allocator<ioMission::ColorText> >,std::allocator<std::vector<ioMission::ColorText,std::allocator<ioMission::ColorText> > > >::_Buy, COMDAT
; _this$ = ecx

; 1250 : 		{	// allocate array with _Capacity elements

  00000	55		 push	 ebp
  00001	8b ec		 mov	 ebp, esp
  00003	56		 push	 esi

; 1251 : 		this->_Myfirst = 0;

  00004	33 c0		 xor	 eax, eax
  00006	57		 push	 edi

; 1252 : 		this->_Mylast = 0;
; 1253 : 		this->_Myend = 0;
; 1254 : 
; 1255 : 		if (_Capacity == 0)

  00007	8b 7d 08	 mov	 edi, DWORD PTR __Capacity$[ebp]
  0000a	8b f1		 mov	 esi, ecx
  0000c	89 06		 mov	 DWORD PTR [esi], eax
  0000e	89 46 04	 mov	 DWORD PTR [esi+4], eax
  00011	89 46 08	 mov	 DWORD PTR [esi+8], eax
  00014	3b f8		 cmp	 edi, eax
  00016	75 04		 jne	 SHORT $LN4@Buy@3

; 1256 : 			return (false);

  00018	32 c0		 xor	 al, al
  0001a	eb 2b		 jmp	 SHORT $LN5@Buy@3
$LN4@Buy@3:

; 1257 : 		else if (max_size() < _Capacity)

  0001c	81 ff ff ff ff
	0f		 cmp	 edi, 268435455		; 0fffffffH
  00022	76 0b		 jbe	 SHORT $LN2@Buy@3

; 1258 : 			_Xlen();	// result too long

  00024	68 00 00 00 00	 push	 OFFSET ??_C@_0BD@OLBABOEK@vector?$DMT?$DO?5too?5long?$AA@
  00029	ff 15 00 00 00
	00		 call	 DWORD PTR __imp_?_Xlength_error@std@@YAXPBD@Z
$LN19@Buy@3:
$LN2@Buy@3:

; 1259 : 		else
; 1260 : 			{	// nonempty array, allocate storage
; 1261 : 			this->_Myfirst = this->_Alval.allocate(_Capacity);

  0002f	50		 push	 eax
  00030	57		 push	 edi
  00031	e8 00 00 00 00	 call	 ??$_Allocate@V?$vector@UColorText@ioMission@@V?$allocator@UColorText@ioMission@@@std@@@std@@@std@@YAPAV?$vector@UColorText@ioMission@@V?$allocator@UColorText@ioMission@@@std@@@0@IPAV10@@Z ; std::_Allocate<std::vector<ioMission::ColorText,std::allocator<ioMission::ColorText> > >

; 1262 : 			this->_Mylast = this->_Myfirst;
; 1263 : 			this->_Myend = this->_Myfirst + _Capacity;

  00036	c1 e7 04	 shl	 edi, 4
  00039	03 f8		 add	 edi, eax
  0003b	59		 pop	 ecx
  0003c	89 06		 mov	 DWORD PTR [esi], eax
  0003e	89 46 04	 mov	 DWORD PTR [esi+4], eax
  00041	59		 pop	 ecx
  00042	89 7e 08	 mov	 DWORD PTR [esi+8], edi

; 1264 : 			}
; 1265 : 		return (true);

  00045	b0 01		 mov	 al, 1
$LN5@Buy@3:
  00047	5f		 pop	 edi
  00048	5e		 pop	 esi

; 1266 : 		}

  00049	5d		 pop	 ebp
  0004a	c2 04 00	 ret	 4
$LN18@Buy@3:
?_Buy@?$vector@V?$vector@UColorText@ioMission@@V?$allocator@UColorText@ioMission@@@std@@@std@@V?$allocator@V?$vector@UColorText@ioMission@@V?$allocator@UColorText@ioMission@@@std@@@std@@@2@@std@@IAE_NI@Z ENDP ; std::vector<std::vector<ioMission::ColorText,std::allocator<ioMission::ColorText> >,std::allocator<std::vector<ioMission::ColorText,std::allocator<ioMission::ColorText> > > >::_Buy
_TEXT	ENDS
PUBLIC	?_Grow_to@?$vector@VioHashString@@V?$allocator@VioHashString@@@std@@@std@@IBEII@Z ; std::vector<ioHashString,std::allocator<ioHashString> >::_Grow_to
; Function compile flags: /Ogsp
;	COMDAT ?_Grow_to@?$vector@VioHashString@@V?$allocator@VioHashString@@@std@@@std@@IBEII@Z
_TEXT	SEGMENT
__Count$ = 8						; size = 4
?_Grow_to@?$vector@VioHashString@@V?$allocator@VioHashString@@@std@@@std@@IBEII@Z PROC ; std::vector<ioHashString,std::allocator<ioHashString> >::_Grow_to, COMDAT
; _this$ = ecx

; 1274 : 		{	// grow by 50% or at least to _Count

  00000	55		 push	 ebp
  00001	8b ec		 mov	 ebp, esp

; 1275 : 		size_type _Capacity = capacity();

  00003	8b 41 08	 mov	 eax, DWORD PTR [ecx+8]
  00006	2b 01		 sub	 eax, DWORD PTR [ecx]

; 1276 : 
; 1277 : 		_Capacity = max_size() - _Capacity / 2 < _Capacity
; 1278 : 			? 0 : _Capacity + _Capacity / 2;	// try to grow by 50%

  00008	ba ff ff ff 0f	 mov	 edx, 268435455		; 0fffffffH
  0000d	c1 f8 04	 sar	 eax, 4
  00010	8b c8		 mov	 ecx, eax
  00012	d1 e9		 shr	 ecx, 1
  00014	2b d1		 sub	 edx, ecx
  00016	3b d0		 cmp	 edx, eax
  00018	73 04		 jae	 SHORT $LN4@Grow_to@3
  0001a	33 c0		 xor	 eax, eax
  0001c	eb 02		 jmp	 SHORT $LN5@Grow_to@3
$LN4@Grow_to@3:
  0001e	03 c1		 add	 eax, ecx
$LN5@Grow_to@3:

; 1279 : 		if (_Capacity < _Count)

  00020	3b 45 08	 cmp	 eax, DWORD PTR __Count$[ebp]

; 1280 : 			_Capacity = _Count;

  00023	0f 42 45 08	 cmovb	 eax, DWORD PTR __Count$[ebp]

; 1281 : 		return (_Capacity);
; 1282 : 		}

  00027	5d		 pop	 ebp
  00028	c2 04 00	 ret	 4
?_Grow_to@?$vector@VioHashString@@V?$allocator@VioHashString@@@std@@@std@@IBEII@Z ENDP ; std::vector<ioHashString,std::allocator<ioHashString> >::_Grow_to
_TEXT	ENDS
PUBLIC	??$_Cons_val@V?$allocator@VioHashString@@@std@@VioHashString@@AAV3@@std@@YAXAAV?$allocator@VioHashString@@@0@PAVioHashString@@AAV2@@Z ; std::_Cons_val<std::allocator<ioHashString>,ioHashString,ioHashString &>
; Function compile flags: /Ogsp
; File c:\program files (x86)\microsoft visual studio 10.0\vc\include\xmemory
;	COMDAT ??$_Cons_val@V?$allocator@VioHashString@@@std@@VioHashString@@AAV3@@std@@YAXAAV?$allocator@VioHashString@@@0@PAVioHashString@@AAV2@@Z
_TEXT	SEGMENT
__Alval$ = 8						; size = 4
__Pdest$ = 12						; size = 4
__Src$ = 16						; size = 4
??$_Cons_val@V?$allocator@VioHashString@@@std@@VioHashString@@AAV3@@std@@YAXAAV?$allocator@VioHashString@@@0@PAVioHashString@@AAV2@@Z PROC ; std::_Cons_val<std::allocator<ioHashString>,ioHashString,ioHashString &>, COMDAT

; 279  : 	{	// construct using allocator

  00000	55		 push	 ebp
  00001	8b ec		 mov	 ebp, esp

; 280  : 	_Alval.construct(_Pdest, _STD forward<_Ty2>(_Src));

  00003	ff 75 10	 push	 DWORD PTR __Src$[ebp]
  00006	8b 4d 08	 mov	 ecx, DWORD PTR __Alval$[ebp]
  00009	ff 75 0c	 push	 DWORD PTR __Pdest$[ebp]
  0000c	e8 00 00 00 00	 call	 ??$construct@AAVioHashString@@@?$allocator@VioHashString@@@std@@QAEXPAVioHashString@@AAV2@@Z ; std::allocator<ioHashString>::construct<ioHashString &>

; 281  : 	}

  00011	5d		 pop	 ebp
  00012	c3		 ret	 0
??$_Cons_val@V?$allocator@VioHashString@@@std@@VioHashString@@AAV3@@std@@YAXAAV?$allocator@VioHashString@@@0@PAVioHashString@@AAV2@@Z ENDP ; std::_Cons_val<std::allocator<ioHashString>,ioHashString,ioHashString &>
_TEXT	ENDS
PUBLIC	??$_Cons_val@V?$allocator@UColorText@ioMission@@@std@@UColorText@ioMission@@AAU34@@std@@YAXAAV?$allocator@UColorText@ioMission@@@0@PAUColorText@ioMission@@AAU23@@Z ; std::_Cons_val<std::allocator<ioMission::ColorText>,ioMission::ColorText,ioMission::ColorText &>
; Function compile flags: /Ogsp
;	COMDAT ??$_Cons_val@V?$allocator@UColorText@ioMission@@@std@@UColorText@ioMission@@AAU34@@std@@YAXAAV?$allocator@UColorText@ioMission@@@0@PAUColorText@ioMission@@AAU23@@Z
_TEXT	SEGMENT
__Alval$ = 8						; size = 4
__Pdest$ = 12						; size = 4
__Src$ = 16						; size = 4
??$_Cons_val@V?$allocator@UColorText@ioMission@@@std@@UColorText@ioMission@@AAU34@@std@@YAXAAV?$allocator@UColorText@ioMission@@@0@PAUColorText@ioMission@@AAU23@@Z PROC ; std::_Cons_val<std::allocator<ioMission::ColorText>,ioMission::ColorText,ioMission::ColorText &>, COMDAT

; 279  : 	{	// construct using allocator

  00000	55		 push	 ebp
  00001	8b ec		 mov	 ebp, esp

; 280  : 	_Alval.construct(_Pdest, _STD forward<_Ty2>(_Src));

  00003	ff 75 10	 push	 DWORD PTR __Src$[ebp]
  00006	8b 4d 08	 mov	 ecx, DWORD PTR __Alval$[ebp]
  00009	ff 75 0c	 push	 DWORD PTR __Pdest$[ebp]
  0000c	e8 00 00 00 00	 call	 ??$construct@AAUColorText@ioMission@@@?$allocator@UColorText@ioMission@@@std@@QAEXPAUColorText@ioMission@@AAU23@@Z ; std::allocator<ioMission::ColorText>::construct<ioMission::ColorText &>

; 281  : 	}

  00011	5d		 pop	 ebp
  00012	c3		 ret	 0
??$_Cons_val@V?$allocator@UColorText@ioMission@@@std@@UColorText@ioMission@@AAU34@@std@@YAXAAV?$allocator@UColorText@ioMission@@@0@PAUColorText@ioMission@@AAU23@@Z ENDP ; std::_Cons_val<std::allocator<ioMission::ColorText>,ioMission::ColorText,ioMission::ColorText &>
_TEXT	ENDS
PUBLIC	?construct@?$allocator@UColorText@ioMission@@@std@@QAEXPAUColorText@ioMission@@ABU34@@Z ; std::allocator<ioMission::ColorText>::construct
; Function compile flags: /Ogsp
;	COMDAT ?construct@?$allocator@UColorText@ioMission@@@std@@QAEXPAUColorText@ioMission@@ABU34@@Z
_TEXT	SEGMENT
__Ptr$ = 8						; size = 4
__Val$ = 12						; size = 4
?construct@?$allocator@UColorText@ioMission@@@std@@QAEXPAUColorText@ioMission@@ABU34@@Z PROC ; std::allocator<ioMission::ColorText>::construct, COMDAT
; _this$ = ecx

; 196  : 		{	// construct object at _Ptr with value _Val

  00000	55		 push	 ebp
  00001	8b ec		 mov	 ebp, esp

; 197  : 		_Construct(_Ptr, _Val);

  00003	ff 75 0c	 push	 DWORD PTR __Val$[ebp]
  00006	ff 75 08	 push	 DWORD PTR __Ptr$[ebp]
  00009	e8 00 00 00 00	 call	 ??$_Construct@UColorText@ioMission@@ABU12@@std@@YAXPAUColorText@ioMission@@ABU12@@Z ; std::_Construct<ioMission::ColorText,ioMission::ColorText const &>
  0000e	59		 pop	 ecx
  0000f	59		 pop	 ecx

; 198  : 		}

  00010	5d		 pop	 ebp
  00011	c2 08 00	 ret	 8
?construct@?$allocator@UColorText@ioMission@@@std@@QAEXPAUColorText@ioMission@@ABU34@@Z ENDP ; std::allocator<ioMission::ColorText>::construct
_TEXT	ENDS
PUBLIC	?destroy@?$allocator@UColorText@ioMission@@@std@@QAEXPAUColorText@ioMission@@@Z ; std::allocator<ioMission::ColorText>::destroy
; Function compile flags: /Ogsp
;	COMDAT ?destroy@?$allocator@UColorText@ioMission@@@std@@QAEXPAUColorText@ioMission@@@Z
_TEXT	SEGMENT
__Ptr$ = 8						; size = 4
?destroy@?$allocator@UColorText@ioMission@@@std@@QAEXPAUColorText@ioMission@@@Z PROC ; std::allocator<ioMission::ColorText>::destroy, COMDAT
; _this$ = ecx

; 212  : 		{	// destroy object at _Ptr

  00000	55		 push	 ebp
  00001	8b ec		 mov	 ebp, esp

; 213  : 		_Destroy(_Ptr);

  00003	8b 4d 08	 mov	 ecx, DWORD PTR __Ptr$[ebp]
  00006	83 c1 04	 add	 ecx, 4
  00009	ff 15 00 00 00
	00		 call	 DWORD PTR __imp_??1ioHashString@@QAE@XZ

; 214  : 		}

  0000f	5d		 pop	 ebp
  00010	c2 04 00	 ret	 4
?destroy@?$allocator@UColorText@ioMission@@@std@@QAEXPAUColorText@ioMission@@@Z ENDP ; std::allocator<ioMission::ColorText>::destroy
_TEXT	ENDS
PUBLIC	??9?$_Vector_const_iterator@V?$_Vector_val@V?$basic_string@DU?$char_traits@D@std@@V?$allocator@D@2@@std@@V?$allocator@V?$basic_string@DU?$char_traits@D@std@@V?$allocator@D@2@@std@@@2@@std@@@std@@QBE_NABV01@@Z ; std::_Vector_const_iterator<std::_Vector_val<std::basic_string<char,std::char_traits<char>,std::allocator<char> >,std::allocator<std::basic_string<char,std::char_traits<char>,std::allocator<char> > > > >::operator!=
; Function compile flags: /Ogsp
; File c:\program files (x86)\microsoft visual studio 10.0\vc\include\vector
;	COMDAT ??9?$_Vector_const_iterator@V?$_Vector_val@V?$basic_string@DU?$char_traits@D@std@@V?$allocator@D@2@@std@@V?$allocator@V?$basic_string@DU?$char_traits@D@std@@V?$allocator@D@2@@std@@@2@@std@@@std@@QBE_NABV01@@Z
_TEXT	SEGMENT
__Right$ = 8						; size = 4
??9?$_Vector_const_iterator@V?$_Vector_val@V?$basic_string@DU?$char_traits@D@std@@V?$allocator@D@2@@std@@V?$allocator@V?$basic_string@DU?$char_traits@D@std@@V?$allocator@D@2@@std@@@2@@std@@@std@@QBE_NABV01@@Z PROC ; std::_Vector_const_iterator<std::_Vector_val<std::basic_string<char,std::char_traits<char>,std::allocator<char> >,std::allocator<std::basic_string<char,std::char_traits<char>,std::allocator<char> > > > >::operator!=, COMDAT
; _this$ = ecx

; 207  : 		{	// test for iterator inequality

  00000	55		 push	 ebp
  00001	8b ec		 mov	 ebp, esp

; 208  : 		return (!(*this == _Right));

  00003	8b 01		 mov	 eax, DWORD PTR [ecx]
  00005	8b 55 08	 mov	 edx, DWORD PTR __Right$[ebp]
  00008	33 c9		 xor	 ecx, ecx
  0000a	3b 02		 cmp	 eax, DWORD PTR [edx]
  0000c	0f 95 c0	 setne	 al

; 209  : 		}

  0000f	5d		 pop	 ebp
  00010	c2 04 00	 ret	 4
??9?$_Vector_const_iterator@V?$_Vector_val@V?$basic_string@DU?$char_traits@D@std@@V?$allocator@D@2@@std@@V?$allocator@V?$basic_string@DU?$char_traits@D@std@@V?$allocator@D@2@@std@@@2@@std@@@std@@QBE_NABV01@@Z ENDP ; std::_Vector_const_iterator<std::_Vector_val<std::basic_string<char,std::char_traits<char>,std::allocator<char> >,std::allocator<std::basic_string<char,std::char_traits<char>,std::allocator<char> > > > >::operator!=
_TEXT	ENDS
PUBLIC	??9?$_Vector_const_iterator@V?$_Vector_val@V?$vector@UColorText@ioMission@@V?$allocator@UColorText@ioMission@@@std@@@std@@V?$allocator@V?$vector@UColorText@ioMission@@V?$allocator@UColorText@ioMission@@@std@@@std@@@2@@std@@@std@@QBE_NABV01@@Z ; std::_Vector_const_iterator<std::_Vector_val<std::vector<ioMission::ColorText,std::allocator<ioMission::ColorText> >,std::allocator<std::vector<ioMission::ColorText,std::allocator<ioMission::ColorText> > > > >::operator!=
; Function compile flags: /Ogsp
;	COMDAT ??9?$_Vector_const_iterator@V?$_Vector_val@V?$vector@UColorText@ioMission@@V?$allocator@UColorText@ioMission@@@std@@@std@@V?$allocator@V?$vector@UColorText@ioMission@@V?$allocator@UColorText@ioMission@@@std@@@std@@@2@@std@@@std@@QBE_NABV01@@Z
_TEXT	SEGMENT
__Right$ = 8						; size = 4
??9?$_Vector_const_iterator@V?$_Vector_val@V?$vector@UColorText@ioMission@@V?$allocator@UColorText@ioMission@@@std@@@std@@V?$allocator@V?$vector@UColorText@ioMission@@V?$allocator@UColorText@ioMission@@@std@@@std@@@2@@std@@@std@@QBE_NABV01@@Z PROC ; std::_Vector_const_iterator<std::_Vector_val<std::vector<ioMission::ColorText,std::allocator<ioMission::ColorText> >,std::allocator<std::vector<ioMission::ColorText,std::allocator<ioMission::ColorText> > > > >::operator!=, COMDAT
; _this$ = ecx

; 207  : 		{	// test for iterator inequality

  00000	55		 push	 ebp
  00001	8b ec		 mov	 ebp, esp

; 208  : 		return (!(*this == _Right));

  00003	8b 01		 mov	 eax, DWORD PTR [ecx]
  00005	8b 55 08	 mov	 edx, DWORD PTR __Right$[ebp]
  00008	33 c9		 xor	 ecx, ecx
  0000a	3b 02		 cmp	 eax, DWORD PTR [edx]
  0000c	0f 95 c0	 setne	 al

; 209  : 		}

  0000f	5d		 pop	 ebp
  00010	c2 04 00	 ret	 4
??9?$_Vector_const_iterator@V?$_Vector_val@V?$vector@UColorText@ioMission@@V?$allocator@UColorText@ioMission@@@std@@@std@@V?$allocator@V?$vector@UColorText@ioMission@@V?$allocator@UColorText@ioMission@@@std@@@std@@@2@@std@@@std@@QBE_NABV01@@Z ENDP ; std::_Vector_const_iterator<std::_Vector_val<std::vector<ioMission::ColorText,std::allocator<ioMission::ColorText> >,std::allocator<std::vector<ioMission::ColorText,std::allocator<ioMission::ColorText> > > > >::operator!=
_TEXT	ENDS
PUBLIC	??$_Cons_val@V?$allocator@VioHashString@@@std@@VioHashString@@V3@@std@@YAXAAV?$allocator@VioHashString@@@0@PAVioHashString@@$$QAV2@@Z ; std::_Cons_val<std::allocator<ioHashString>,ioHashString,ioHashString>
; Function compile flags: /Ogsp
; File c:\program files (x86)\microsoft visual studio 10.0\vc\include\xmemory
;	COMDAT ??$_Cons_val@V?$allocator@VioHashString@@@std@@VioHashString@@V3@@std@@YAXAAV?$allocator@VioHashString@@@0@PAVioHashString@@$$QAV2@@Z
_TEXT	SEGMENT
__Alval$ = 8						; size = 4
__Pdest$ = 12						; size = 4
__Src$ = 16						; size = 4
??$_Cons_val@V?$allocator@VioHashString@@@std@@VioHashString@@V3@@std@@YAXAAV?$allocator@VioHashString@@@0@PAVioHashString@@$$QAV2@@Z PROC ; std::_Cons_val<std::allocator<ioHashString>,ioHashString,ioHashString>, COMDAT

; 279  : 	{	// construct using allocator

  00000	55		 push	 ebp
  00001	8b ec		 mov	 ebp, esp

; 280  : 	_Alval.construct(_Pdest, _STD forward<_Ty2>(_Src));

  00003	ff 75 10	 push	 DWORD PTR __Src$[ebp]
  00006	8b 4d 08	 mov	 ecx, DWORD PTR __Alval$[ebp]
  00009	ff 75 0c	 push	 DWORD PTR __Pdest$[ebp]
  0000c	e8 00 00 00 00	 call	 ?construct@?$allocator@VioHashString@@@std@@QAEXPAVioHashString@@$$QAV3@@Z ; std::allocator<ioHashString>::construct

; 281  : 	}

  00011	5d		 pop	 ebp
  00012	c3		 ret	 0
??$_Cons_val@V?$allocator@VioHashString@@@std@@VioHashString@@V3@@std@@YAXAAV?$allocator@VioHashString@@@0@PAVioHashString@@$$QAV2@@Z ENDP ; std::_Cons_val<std::allocator<ioHashString>,ioHashString,ioHashString>
_TEXT	ENDS
PUBLIC	??$_Cons_val@V?$allocator@UColorText@ioMission@@@std@@UColorText@ioMission@@U34@@std@@YAXAAV?$allocator@UColorText@ioMission@@@0@PAUColorText@ioMission@@$$QAU23@@Z ; std::_Cons_val<std::allocator<ioMission::ColorText>,ioMission::ColorText,ioMission::ColorText>
; Function compile flags: /Ogsp
;	COMDAT ??$_Cons_val@V?$allocator@UColorText@ioMission@@@std@@UColorText@ioMission@@U34@@std@@YAXAAV?$allocator@UColorText@ioMission@@@0@PAUColorText@ioMission@@$$QAU23@@Z
_TEXT	SEGMENT
__Alval$ = 8						; size = 4
__Pdest$ = 12						; size = 4
__Src$ = 16						; size = 4
??$_Cons_val@V?$allocator@UColorText@ioMission@@@std@@UColorText@ioMission@@U34@@std@@YAXAAV?$allocator@UColorText@ioMission@@@0@PAUColorText@ioMission@@$$QAU23@@Z PROC ; std::_Cons_val<std::allocator<ioMission::ColorText>,ioMission::ColorText,ioMission::ColorText>, COMDAT

; 279  : 	{	// construct using allocator

  00000	55		 push	 ebp
  00001	8b ec		 mov	 ebp, esp

; 280  : 	_Alval.construct(_Pdest, _STD forward<_Ty2>(_Src));

  00003	ff 75 10	 push	 DWORD PTR __Src$[ebp]
  00006	8b 4d 08	 mov	 ecx, DWORD PTR __Alval$[ebp]
  00009	ff 75 0c	 push	 DWORD PTR __Pdest$[ebp]
  0000c	e8 00 00 00 00	 call	 ?construct@?$allocator@UColorText@ioMission@@@std@@QAEXPAUColorText@ioMission@@$$QAU34@@Z ; std::allocator<ioMission::ColorText>::construct

; 281  : 	}

  00011	5d		 pop	 ebp
  00012	c3		 ret	 0
??$_Cons_val@V?$allocator@UColorText@ioMission@@@std@@UColorText@ioMission@@U34@@std@@YAXAAV?$allocator@UColorText@ioMission@@@0@PAUColorText@ioMission@@$$QAU23@@Z ENDP ; std::_Cons_val<std::allocator<ioMission::ColorText>,ioMission::ColorText,ioMission::ColorText>
_TEXT	ENDS
PUBLIC	??9?$_Vector_const_iterator@V?$_Vector_val@UColorText@ioMission@@V?$allocator@UColorText@ioMission@@@std@@@std@@@std@@QBE_NABV01@@Z ; std::_Vector_const_iterator<std::_Vector_val<ioMission::ColorText,std::allocator<ioMission::ColorText> > >::operator!=
; Function compile flags: /Ogsp
; File c:\program files (x86)\microsoft visual studio 10.0\vc\include\vector
;	COMDAT ??9?$_Vector_const_iterator@V?$_Vector_val@UColorText@ioMission@@V?$allocator@UColorText@ioMission@@@std@@@std@@@std@@QBE_NABV01@@Z
_TEXT	SEGMENT
__Right$ = 8						; size = 4
??9?$_Vector_const_iterator@V?$_Vector_val@UColorText@ioMission@@V?$allocator@UColorText@ioMission@@@std@@@std@@@std@@QBE_NABV01@@Z PROC ; std::_Vector_const_iterator<std::_Vector_val<ioMission::ColorText,std::allocator<ioMission::ColorText> > >::operator!=, COMDAT
; _this$ = ecx

; 207  : 		{	// test for iterator inequality

  00000	55		 push	 ebp
  00001	8b ec		 mov	 ebp, esp

; 208  : 		return (!(*this == _Right));

  00003	8b 01		 mov	 eax, DWORD PTR [ecx]
  00005	8b 55 08	 mov	 edx, DWORD PTR __Right$[ebp]
  00008	33 c9		 xor	 ecx, ecx
  0000a	3b 02		 cmp	 eax, DWORD PTR [edx]
  0000c	0f 95 c0	 setne	 al

; 209  : 		}

  0000f	5d		 pop	 ebp
  00010	c2 04 00	 ret	 4
??9?$_Vector_const_iterator@V?$_Vector_val@UColorText@ioMission@@V?$allocator@UColorText@ioMission@@@std@@@std@@@std@@QBE_NABV01@@Z ENDP ; std::_Vector_const_iterator<std::_Vector_val<ioMission::ColorText,std::allocator<ioMission::ColorText> > >::operator!=
_TEXT	ENDS
PUBLIC	??$_Move@PAUColorText@ioMission@@PAU12@@std@@YAPAUColorText@ioMission@@PAU12@00@Z ; std::_Move<ioMission::ColorText *,ioMission::ColorText *>
; Function compile flags: /Ogsp
; File c:\program files (x86)\microsoft visual studio 10.0\vc\include\xutility
;	COMDAT ??$_Move@PAUColorText@ioMission@@PAU12@@std@@YAPAUColorText@ioMission@@PAU12@00@Z
_TEXT	SEGMENT
__Cat$513144 = -4					; size = 1
__First$ = 8						; size = 4
__Last$ = 12						; size = 4
__Dest$ = 16						; size = 4
??$_Move@PAUColorText@ioMission@@PAU12@@std@@YAPAUColorText@ioMission@@PAU12@00@Z PROC ; std::_Move<ioMission::ColorText *,ioMission::ColorText *>, COMDAT

; 2533 : 	{	// move [_First, _Last) to [_Dest, ...), unchecked

  00000	55		 push	 ebp
  00001	8b ec		 mov	 ebp, esp
  00003	51		 push	 ecx

; 2534 : 	return (_Move(_First, _Last,
; 2535 : 		_Dest, _Ptr_cat(_First, _Dest)));

  00004	ff 75 fc	 push	 DWORD PTR __Cat$513144[ebp]
  00007	ff 75 10	 push	 DWORD PTR __Dest$[ebp]
  0000a	ff 75 0c	 push	 DWORD PTR __Last$[ebp]
  0000d	ff 75 08	 push	 DWORD PTR __First$[ebp]
  00010	e8 00 00 00 00	 call	 ??$_Move@PAUColorText@ioMission@@PAU12@@std@@YAPAUColorText@ioMission@@PAU12@00U_Nonscalar_ptr_iterator_tag@0@@Z ; std::_Move<ioMission::ColorText *,ioMission::ColorText *>
  00015	83 c4 10	 add	 esp, 16			; 00000010H

; 2536 : 	}

  00018	c9		 leave
  00019	c3		 ret	 0
??$_Move@PAUColorText@ioMission@@PAU12@@std@@YAPAUColorText@ioMission@@PAU12@00@Z ENDP ; std::_Move<ioMission::ColorText *,ioMission::ColorText *>
_TEXT	ENDS
PUBLIC	??0?$vector@VioHashString@@V?$allocator@VioHashString@@@std@@@std@@QAE@XZ ; std::vector<ioHashString,std::allocator<ioHashString> >::vector<ioHashString,std::allocator<ioHashString> >
; Function compile flags: /Ogsp
; File c:\program files (x86)\microsoft visual studio 10.0\vc\include\vector
;	COMDAT ??0?$vector@VioHashString@@V?$allocator@VioHashString@@@std@@@std@@QAE@XZ
_TEXT	SEGMENT
??0?$vector@VioHashString@@V?$allocator@VioHashString@@@std@@@std@@QAE@XZ PROC ; std::vector<ioHashString,std::allocator<ioHashString> >::vector<ioHashString,std::allocator<ioHashString> >, COMDAT
; _this$ = ecx

; 507  : 		{	// construct empty vector

  00000	8b c1		 mov	 eax, ecx
  00002	33 c9		 xor	 ecx, ecx
  00004	89 08		 mov	 DWORD PTR [eax], ecx
  00006	89 48 04	 mov	 DWORD PTR [eax+4], ecx
  00009	89 48 08	 mov	 DWORD PTR [eax+8], ecx

; 508  : 		}

  0000c	c3		 ret	 0
??0?$vector@VioHashString@@V?$allocator@VioHashString@@@std@@@std@@QAE@XZ ENDP ; std::vector<ioHashString,std::allocator<ioHashString> >::vector<ioHashString,std::allocator<ioHashString> >
_TEXT	ENDS
PUBLIC	?_Tidy@?$basic_string@DU?$char_traits@D@std@@V?$allocator@D@2@@std@@QAEX_NI@Z ; std::basic_string<char,std::char_traits<char>,std::allocator<char> >::_Tidy
; Function compile flags: /Ogsp
; File c:\program files (x86)\microsoft visual studio 10.0\vc\include\xstring
;	COMDAT ?_Tidy@?$basic_string@DU?$char_traits@D@std@@V?$allocator@D@2@@std@@QAEX_NI@Z
_TEXT	SEGMENT
__Built$ = 8						; size = 1
__Newsize$ = 12						; size = 4
?_Tidy@?$basic_string@DU?$char_traits@D@std@@V?$allocator@D@2@@std@@QAEX_NI@Z PROC ; std::basic_string<char,std::char_traits<char>,std::allocator<char> >::_Tidy, COMDAT
; _this$ = ecx

; 1988 : 		{	// initialize buffer, deallocating any storage

  00000	55		 push	 ebp
  00001	8b ec		 mov	 ebp, esp

; 1989 : 		if (!_Built)

  00003	80 7d 08 00	 cmp	 BYTE PTR __Built$[ebp], 0
  00007	56		 push	 esi
  00008	57		 push	 edi
  00009	8b 7d 0c	 mov	 edi, DWORD PTR __Newsize$[ebp]
  0000c	8b f1		 mov	 esi, ecx
  0000e	74 20		 je	 SHORT $LN9@Tidy

; 1990 : 			;
; 1991 : 		else if (this->_BUF_SIZE <= this->_Myres)

  00010	83 7e 14 10	 cmp	 DWORD PTR [esi+20], 16	; 00000010H
  00014	72 1a		 jb	 SHORT $LN9@Tidy

; 1992 : 			{	// copy any leftovers to small buffer and deallocate
; 1993 : 			_Elem *_Ptr = this->_Bx._Ptr;

  00016	53		 push	 ebx
  00017	8b 1e		 mov	 ebx, DWORD PTR [esi]

; 1994 : 			if (0 < _Newsize)

  00019	85 ff		 test	 edi, edi
  0001b	74 0b		 je	 SHORT $LN7@Tidy

; 1995 : 				_Traits::copy(this->_Bx._Buf, _Ptr, _Newsize);

  0001d	57		 push	 edi
  0001e	53		 push	 ebx
  0001f	56		 push	 esi
  00020	e8 00 00 00 00	 call	 _memcpy
  00025	83 c4 0c	 add	 esp, 12			; 0000000cH
$LN7@Tidy:

; 1996 : 			this->_Alval.deallocate(_Ptr, this->_Myres + 1);

  00028	53		 push	 ebx
  00029	e8 00 00 00 00	 call	 ??3@YAXPAX@Z		; operator delete
  0002e	59		 pop	 ecx
  0002f	5b		 pop	 ebx
$LN9@Tidy:

; 1997 : 			}
; 1998 : 		this->_Myres = this->_BUF_SIZE - 1;
; 1999 : 		_Eos(_Newsize);

  00030	89 7e 10	 mov	 DWORD PTR [esi+16], edi
  00033	c7 46 14 0f 00
	00 00		 mov	 DWORD PTR [esi+20], 15	; 0000000fH
  0003a	c6 04 37 00	 mov	 BYTE PTR [edi+esi], 0
  0003e	5f		 pop	 edi
  0003f	5e		 pop	 esi

; 2000 : 		}

  00040	5d		 pop	 ebp
  00041	c2 08 00	 ret	 8
?_Tidy@?$basic_string@DU?$char_traits@D@std@@V?$allocator@D@2@@std@@QAEX_NI@Z ENDP ; std::basic_string<char,std::char_traits<char>,std::allocator<char> >::_Tidy
_TEXT	ENDS
PUBLIC	?_Buy@?$vector@VioHashString@@V?$allocator@VioHashString@@@std@@@std@@IAE_NI@Z ; std::vector<ioHashString,std::allocator<ioHashString> >::_Buy
; Function compile flags: /Ogsp
; File c:\program files (x86)\microsoft visual studio 10.0\vc\include\vector
;	COMDAT ?_Buy@?$vector@VioHashString@@V?$allocator@VioHashString@@@std@@@std@@IAE_NI@Z
_TEXT	SEGMENT
__Capacity$ = 8						; size = 4
?_Buy@?$vector@VioHashString@@V?$allocator@VioHashString@@@std@@@std@@IAE_NI@Z PROC ; std::vector<ioHashString,std::allocator<ioHashString> >::_Buy, COMDAT
; _this$ = ecx

; 1250 : 		{	// allocate array with _Capacity elements

  00000	55		 push	 ebp
  00001	8b ec		 mov	 ebp, esp
  00003	56		 push	 esi

; 1251 : 		this->_Myfirst = 0;

  00004	33 c0		 xor	 eax, eax
  00006	57		 push	 edi

; 1252 : 		this->_Mylast = 0;
; 1253 : 		this->_Myend = 0;
; 1254 : 
; 1255 : 		if (_Capacity == 0)

  00007	8b 7d 08	 mov	 edi, DWORD PTR __Capacity$[ebp]
  0000a	8b f1		 mov	 esi, ecx
  0000c	89 06		 mov	 DWORD PTR [esi], eax
  0000e	89 46 04	 mov	 DWORD PTR [esi+4], eax
  00011	89 46 08	 mov	 DWORD PTR [esi+8], eax
  00014	3b f8		 cmp	 edi, eax
  00016	75 04		 jne	 SHORT $LN4@Buy@4

; 1256 : 			return (false);

  00018	32 c0		 xor	 al, al
  0001a	eb 2b		 jmp	 SHORT $LN5@Buy@4
$LN4@Buy@4:

; 1257 : 		else if (max_size() < _Capacity)

  0001c	81 ff ff ff ff
	0f		 cmp	 edi, 268435455		; 0fffffffH
  00022	76 0b		 jbe	 SHORT $LN2@Buy@4

; 1258 : 			_Xlen();	// result too long

  00024	68 00 00 00 00	 push	 OFFSET ??_C@_0BD@OLBABOEK@vector?$DMT?$DO?5too?5long?$AA@
  00029	ff 15 00 00 00
	00		 call	 DWORD PTR __imp_?_Xlength_error@std@@YAXPBD@Z
$LN19@Buy@4:
$LN2@Buy@4:

; 1259 : 		else
; 1260 : 			{	// nonempty array, allocate storage
; 1261 : 			this->_Myfirst = this->_Alval.allocate(_Capacity);

  0002f	50		 push	 eax
  00030	57		 push	 edi
  00031	e8 00 00 00 00	 call	 ??$_Allocate@VioHashString@@@std@@YAPAVioHashString@@IPAV1@@Z ; std::_Allocate<ioHashString>

; 1262 : 			this->_Mylast = this->_Myfirst;
; 1263 : 			this->_Myend = this->_Myfirst + _Capacity;

  00036	c1 e7 04	 shl	 edi, 4
  00039	03 f8		 add	 edi, eax
  0003b	59		 pop	 ecx
  0003c	89 06		 mov	 DWORD PTR [esi], eax
  0003e	89 46 04	 mov	 DWORD PTR [esi+4], eax
  00041	59		 pop	 ecx
  00042	89 7e 08	 mov	 DWORD PTR [esi+8], edi

; 1264 : 			}
; 1265 : 		return (true);

  00045	b0 01		 mov	 al, 1
$LN5@Buy@4:
  00047	5f		 pop	 edi
  00048	5e		 pop	 esi

; 1266 : 		}

  00049	5d		 pop	 ebp
  0004a	c2 04 00	 ret	 4
$LN18@Buy@4:
?_Buy@?$vector@VioHashString@@V?$allocator@VioHashString@@@std@@@std@@IAE_NI@Z ENDP ; std::vector<ioHashString,std::allocator<ioHashString> >::_Buy
_TEXT	ENDS
PUBLIC	?erase@?$basic_string@DU?$char_traits@D@std@@V?$allocator@D@2@@std@@QAEAAV12@II@Z ; std::basic_string<char,std::char_traits<char>,std::allocator<char> >::erase
; Function compile flags: /Ogsp
; File c:\program files (x86)\microsoft visual studio 10.0\vc\include\xstring
;	COMDAT ?erase@?$basic_string@DU?$char_traits@D@std@@V?$allocator@D@2@@std@@QAEAAV12@II@Z
_TEXT	SEGMENT
__Off$ = 8						; size = 4
__Count$ = 12						; size = 4
?erase@?$basic_string@DU?$char_traits@D@std@@V?$allocator@D@2@@std@@QAEAAV12@II@Z PROC ; std::basic_string<char,std::char_traits<char>,std::allocator<char> >::erase, COMDAT
; _this$ = ecx

; 1109 : 		{	// erase elements [_Off, _Off + _Count)

  00000	55		 push	 ebp
  00001	8b ec		 mov	 ebp, esp
  00003	53		 push	 ebx
  00004	56		 push	 esi
  00005	8b f1		 mov	 esi, ecx

; 1110 : 		if (this->_Mysize < _Off)

  00007	8b 46 10	 mov	 eax, DWORD PTR [esi+16]
  0000a	8b 4d 08	 mov	 ecx, DWORD PTR __Off$[ebp]
  0000d	3b c1		 cmp	 eax, ecx
  0000f	73 0b		 jae	 SHORT $LN3@erase

; 1111 : 			_Xran();	// _Off off end

  00011	68 00 00 00 00	 push	 OFFSET ??_C@_0BI@CFPLBAOH@invalid?5string?5position?$AA@
  00016	ff 15 00 00 00
	00		 call	 DWORD PTR __imp_?_Xout_of_range@std@@YAXPBD@Z
$LN28@erase:
$LN3@erase:

; 1112 : 		if (this->_Mysize - _Off < _Count)

  0001c	8b 5d 0c	 mov	 ebx, DWORD PTR __Count$[ebp]
  0001f	2b c1		 sub	 eax, ecx
  00021	3b c3		 cmp	 eax, ebx

; 1113 : 			_Count = this->_Mysize - _Off;	// trim _Count

  00023	0f 42 d8	 cmovb	 ebx, eax

; 1114 : 		if (0 < _Count)

  00026	85 db		 test	 ebx, ebx
  00028	74 47		 je	 SHORT $LN25@erase

; 1115 : 			{	// move elements down
; 1116 : 			_Traits::move(_Myptr() + _Off, _Myptr() + _Off + _Count,
; 1117 : 				this->_Mysize - _Off - _Count);

  0002a	8b 56 14	 mov	 edx, DWORD PTR [esi+20]
  0002d	57		 push	 edi
  0002e	83 fa 10	 cmp	 edx, 16			; 00000010H
  00031	72 04		 jb	 SHORT $LN11@erase
  00033	8b 3e		 mov	 edi, DWORD PTR [esi]
  00035	eb 02		 jmp	 SHORT $LN12@erase
$LN11@erase:
  00037	8b fe		 mov	 edi, esi
$LN12@erase:
  00039	83 fa 10	 cmp	 edx, 16			; 00000010H
  0003c	72 04		 jb	 SHORT $LN15@erase
  0003e	8b 16		 mov	 edx, DWORD PTR [esi]
  00040	eb 02		 jmp	 SHORT $LN16@erase
$LN15@erase:
  00042	8b d6		 mov	 edx, esi
$LN16@erase:
  00044	2b c3		 sub	 eax, ebx
  00046	03 f9		 add	 edi, ecx
  00048	50		 push	 eax
  00049	03 fb		 add	 edi, ebx
  0004b	03 d1		 add	 edx, ecx
  0004d	57		 push	 edi
  0004e	52		 push	 edx
  0004f	ff 15 00 00 00
	00		 call	 DWORD PTR __imp__memmove

; 1118 : 			size_type _Newsize = this->_Mysize - _Count;

  00055	8b 46 10	 mov	 eax, DWORD PTR [esi+16]
  00058	83 c4 0c	 add	 esp, 12			; 0000000cH
  0005b	2b c3		 sub	 eax, ebx

; 1119 : 			_Eos(_Newsize);

  0005d	83 7e 14 10	 cmp	 DWORD PTR [esi+20], 16	; 00000010H
  00061	89 46 10	 mov	 DWORD PTR [esi+16], eax
  00064	5f		 pop	 edi
  00065	72 04		 jb	 SHORT $LN23@erase
  00067	8b 0e		 mov	 ecx, DWORD PTR [esi]
  00069	eb 02		 jmp	 SHORT $LN24@erase
$LN23@erase:
  0006b	8b ce		 mov	 ecx, esi
$LN24@erase:
  0006d	c6 04 01 00	 mov	 BYTE PTR [ecx+eax], 0
$LN25@erase:

; 1120 : 			}
; 1121 : 		return (*this);

  00071	8b c6		 mov	 eax, esi
  00073	5e		 pop	 esi
  00074	5b		 pop	 ebx

; 1122 : 		}

  00075	5d		 pop	 ebp
  00076	c2 08 00	 ret	 8
$LN27@erase:
?erase@?$basic_string@DU?$char_traits@D@std@@V?$allocator@D@2@@std@@QAEAAV12@II@Z ENDP ; std::basic_string<char,std::char_traits<char>,std::allocator<char> >::erase
_TEXT	ENDS
PUBLIC	??9?$_Vector_const_iterator@V?$_Vector_val@VioHashString@@V?$allocator@VioHashString@@@std@@@std@@@std@@QBE_NABV01@@Z ; std::_Vector_const_iterator<std::_Vector_val<ioHashString,std::allocator<ioHashString> > >::operator!=
; Function compile flags: /Ogsp
; File c:\program files (x86)\microsoft visual studio 10.0\vc\include\vector
;	COMDAT ??9?$_Vector_const_iterator@V?$_Vector_val@VioHashString@@V?$allocator@VioHashString@@@std@@@std@@@std@@QBE_NABV01@@Z
_TEXT	SEGMENT
__Right$ = 8						; size = 4
??9?$_Vector_const_iterator@V?$_Vector_val@VioHashString@@V?$allocator@VioHashString@@@std@@@std@@@std@@QBE_NABV01@@Z PROC ; std::_Vector_const_iterator<std::_Vector_val<ioHashString,std::allocator<ioHashString> > >::operator!=, COMDAT
; _this$ = ecx

; 207  : 		{	// test for iterator inequality

  00000	55		 push	 ebp
  00001	8b ec		 mov	 ebp, esp

; 208  : 		return (!(*this == _Right));

  00003	8b 01		 mov	 eax, DWORD PTR [ecx]
  00005	8b 55 08	 mov	 edx, DWORD PTR __Right$[ebp]
  00008	33 c9		 xor	 ecx, ecx
  0000a	3b 02		 cmp	 eax, DWORD PTR [edx]
  0000c	0f 95 c0	 setne	 al

; 209  : 		}

  0000f	5d		 pop	 ebp
  00010	c2 04 00	 ret	 4
??9?$_Vector_const_iterator@V?$_Vector_val@VioHashString@@V?$allocator@VioHashString@@@std@@@std@@@std@@QBE_NABV01@@Z ENDP ; std::_Vector_const_iterator<std::_Vector_val<ioHashString,std::allocator<ioHashString> > >::operator!=
_TEXT	ENDS
PUBLIC	?_Copy@?$basic_string@DU?$char_traits@D@std@@V?$allocator@D@2@@std@@QAEXII@Z ; std::basic_string<char,std::char_traits<char>,std::allocator<char> >::_Copy
EXTRN	__EH_prolog3_catch:PROC
;	COMDAT xdata$x
; File c:\program files (x86)\microsoft visual studio 10.0\vc\include\iosfwd
xdata$x	SEGMENT
__catchsym$?_Copy@?$basic_string@DU?$char_traits@D@std@@V?$allocator@D@2@@std@@QAEXII@Z$5 DD 040H
	DD	00H
	DD	00H
	DD	FLAT:__catch$?_Copy@?$basic_string@DU?$char_traits@D@std@@V?$allocator@D@2@@std@@QAEXII@Z$0
__catchsym$?_Copy@?$basic_string@DU?$char_traits@D@std@@V?$allocator@D@2@@std@@QAEXII@Z$4 DD 040H
	DD	00H
	DD	00H
	DD	FLAT:__catch$?_Copy@?$basic_string@DU?$char_traits@D@std@@V?$allocator@D@2@@std@@QAEXII@Z$1
__unwindtable$?_Copy@?$basic_string@DU?$char_traits@D@std@@V?$allocator@D@2@@std@@QAEXII@Z DD 0ffffffffH
	DD	00H
	DD	0ffffffffH
	DD	00H
	DD	01H
	DD	00H
	DD	01H
	DD	00H
__ehfuncinfo$?_Copy@?$basic_string@DU?$char_traits@D@std@@V?$allocator@D@2@@std@@QAEXII@Z DD 019930522H
	DD	04H
	DD	FLAT:__unwindtable$?_Copy@?$basic_string@DU?$char_traits@D@std@@V?$allocator@D@2@@std@@QAEXII@Z
	DD	02H
	DD	FLAT:__tryblocktable$?_Copy@?$basic_string@DU?$char_traits@D@std@@V?$allocator@D@2@@std@@QAEXII@Z
	DD	2 DUP(00H)
	DD	00H
	DD	01H
__tryblocktable$?_Copy@?$basic_string@DU?$char_traits@D@std@@V?$allocator@D@2@@std@@QAEXII@Z DD 02H
	DD	02H
	DD	03H
	DD	01H
	DD	FLAT:__catchsym$?_Copy@?$basic_string@DU?$char_traits@D@std@@V?$allocator@D@2@@std@@QAEXII@Z$4
	DD	00H
	DD	00H
	DD	03H
	DD	01H
	DD	FLAT:__catchsym$?_Copy@?$basic_string@DU?$char_traits@D@std@@V?$allocator@D@2@@std@@QAEXII@Z$5
; Function compile flags: /Ogsp
; File c:\program files (x86)\microsoft visual studio 10.0\vc\include\xstring
xdata$x	ENDS
;	COMDAT ?_Copy@?$basic_string@DU?$char_traits@D@std@@V?$allocator@D@2@@std@@QAEXII@Z
_TEXT	SEGMENT
_this$ = -24						; size = 4
tv296 = -20						; size = 4
__Newres$ = -20						; size = 4
__$EHRec$ = -16						; size = 16
__Ptr$ = 8						; size = 4
__Newsize$ = 8						; size = 4
__Oldlen$ = 12						; size = 4
?_Copy@?$basic_string@DU?$char_traits@D@std@@V?$allocator@D@2@@std@@QAEXII@Z PROC ; std::basic_string<char,std::char_traits<char>,std::allocator<char> >::_Copy, COMDAT
; _this$ = ecx

; 1919 : 		{	// copy _Oldlen elements to newly allocated buffer

  00000	6a 0c		 push	 12			; 0000000cH
  00002	b8 00 00 00 00	 mov	 eax, __ehhandler$?_Copy@?$basic_string@DU?$char_traits@D@std@@V?$allocator@D@2@@std@@QAEXII@Z
  00007	e8 00 00 00 00	 call	 __EH_prolog3_catch
  0000c	8b f1		 mov	 esi, ecx
  0000e	89 75 e8	 mov	 DWORD PTR _this$[ebp], esi

; 1920 : 		size_type _Newres = _Newsize | this->_ALLOC_MASK;

  00011	8b 7d 08	 mov	 edi, DWORD PTR __Newsize$[ebp]
  00014	83 cf 0f	 or	 edi, 15			; 0000000fH

; 1921 : 		if (max_size() < _Newres)

  00017	83 ff fe	 cmp	 edi, -2			; fffffffeH
  0001a	76 05		 jbe	 SHORT $LN9@Copy

; 1922 : 			_Newres = _Newsize;	// undo roundup if too big

  0001c	8b 7d 08	 mov	 edi, DWORD PTR __Newsize$[ebp]
  0001f	eb 27		 jmp	 SHORT $LN5@Copy
$LN9@Copy:

; 1923 : 		else if (this->_Myres / 2 <= _Newres / 3)

  00021	33 d2		 xor	 edx, edx
  00023	6a 03		 push	 3
  00025	8b c7		 mov	 eax, edi
  00027	5b		 pop	 ebx
  00028	f7 f3		 div	 ebx
  0002a	8b 4e 14	 mov	 ecx, DWORD PTR [esi+20]
  0002d	89 4d ec	 mov	 DWORD PTR tv296[ebp], ecx
  00030	d1 6d ec	 shr	 DWORD PTR tv296[ebp], 1
  00033	8b 55 ec	 mov	 edx, DWORD PTR tv296[ebp]
  00036	3b d0		 cmp	 edx, eax
  00038	76 0e		 jbe	 SHORT $LN5@Copy

; 1924 : 			;
; 1925 : 		else if (this->_Myres <= max_size() - this->_Myres / 2)

  0003a	6a fe		 push	 -2			; fffffffeH
  0003c	5f		 pop	 edi
  0003d	8b c7		 mov	 eax, edi
  0003f	2b c2		 sub	 eax, edx
  00041	3b c8		 cmp	 ecx, eax
  00043	77 03		 ja	 SHORT $LN5@Copy

; 1926 : 			_Newres = this->_Myres
; 1927 : 				+ this->_Myres / 2;	// grow exponentially if possible

  00045	8d 3c 0a	 lea	 edi, DWORD PTR [edx+ecx]
$LN5@Copy:

; 1928 : 		else
; 1929 : 			_Newres = max_size();	// settle for max_size()
; 1930 : 
; 1931 : 		_Elem *_Ptr;
; 1932 : 		_TRY_BEGIN

  00048	83 65 fc 00	 and	 DWORD PTR __$EHRec$[ebp+12], 0

; 1933 : 			_Ptr = this->_Alval.allocate(_Newres + 1);

  0004c	8d 47 01	 lea	 eax, DWORD PTR [edi+1]
  0004f	6a 00		 push	 0
  00051	50		 push	 eax
  00052	e8 00 00 00 00	 call	 ??$_Allocate@D@std@@YAPADIPAD@Z ; std::_Allocate<char>
  00057	59		 pop	 ecx
  00058	59		 pop	 ecx
  00059	89 45 08	 mov	 DWORD PTR __Ptr$[ebp], eax
  0005c	eb 27		 jmp	 SHORT $LN19@Copy
__catch$?_Copy@?$basic_string@DU?$char_traits@D@std@@V?$allocator@D@2@@std@@QAEXII@Z$0:

; 1934 : 		_CATCH_ALL
; 1935 : 			_Newres = _Newsize;	// allocation failed, undo roundup and retry

  0005e	8b 45 08	 mov	 eax, DWORD PTR __Newsize$[ebp]
  00061	89 65 f0	 mov	 DWORD PTR __$EHRec$[ebp], esp
  00064	89 45 ec	 mov	 DWORD PTR __Newres$[ebp], eax

; 1936 : 			_TRY_BEGIN
; 1937 : 				_Ptr = this->_Alval.allocate(_Newres + 1);

  00067	40		 inc	 eax
  00068	6a 00		 push	 0
  0006a	50		 push	 eax
  0006b	c6 45 fc 02	 mov	 BYTE PTR __$EHRec$[ebp+12], 2
  0006f	e8 00 00 00 00	 call	 ??$_Allocate@D@std@@YAPADIPAD@Z ; std::_Allocate<char>
  00074	59		 pop	 ecx
  00075	89 45 08	 mov	 DWORD PTR __Ptr$[ebp], eax
  00078	59		 pop	 ecx

; 1941 : 			_CATCH_END
; 1942 : 		_CATCH_END

  00079	b8 00 00 00 00	 mov	 eax, $LN63@Copy
  0007e	c3		 ret	 0
$LN63@Copy:
  0007f	8b 75 e8	 mov	 esi, DWORD PTR _this$[ebp]
  00082	8b 7d ec	 mov	 edi, DWORD PTR __Newres$[ebp]
$LN19@Copy:

; 1943 : 
; 1944 : 		if (0 < _Oldlen)

  00085	8b 5d 0c	 mov	 ebx, DWORD PTR __Oldlen$[ebp]
  00088	85 db		 test	 ebx, ebx
  0008a	74 19		 je	 SHORT $LN52@Copy

; 1945 : 			_Traits::copy(_Ptr, _Myptr(), _Oldlen);	// copy existing elements

  0008c	83 7e 14 10	 cmp	 DWORD PTR [esi+20], 16	; 00000010H
  00090	72 04		 jb	 SHORT $LN50@Copy
  00092	8b 06		 mov	 eax, DWORD PTR [esi]
  00094	eb 02		 jmp	 SHORT $LN51@Copy
$LN50@Copy:
  00096	8b c6		 mov	 eax, esi
$LN51@Copy:
  00098	53		 push	 ebx
  00099	50		 push	 eax
  0009a	ff 75 08	 push	 DWORD PTR __Ptr$[ebp]
  0009d	e8 00 00 00 00	 call	 _memcpy
  000a2	83 c4 0c	 add	 esp, 12			; 0000000cH
$LN52@Copy:

; 1946 : 		_Tidy(true);

  000a5	6a 00		 push	 0
  000a7	6a 01		 push	 1
  000a9	8b ce		 mov	 ecx, esi
  000ab	e8 00 00 00 00	 call	 ?_Tidy@?$basic_string@DU?$char_traits@D@std@@V?$allocator@D@2@@std@@QAEX_NI@Z ; std::basic_string<char,std::char_traits<char>,std::allocator<char> >::_Tidy

; 1947 : 		this->_Bx._Ptr = _Ptr;

  000b0	8b 45 08	 mov	 eax, DWORD PTR __Ptr$[ebp]
  000b3	89 06		 mov	 DWORD PTR [esi], eax

; 1948 : 		this->_Myres = _Newres;
; 1949 : 		_Eos(_Oldlen);

  000b5	83 ff 10	 cmp	 edi, 16			; 00000010H
  000b8	89 7e 14	 mov	 DWORD PTR [esi+20], edi
  000bb	89 5e 10	 mov	 DWORD PTR [esi+16], ebx
  000be	0f 42 c6	 cmovb	 eax, esi
  000c1	c6 04 18 00	 mov	 BYTE PTR [eax+ebx], 0

; 1950 : 		}

  000c5	e8 00 00 00 00	 call	 __EH_epilog3
  000ca	c2 08 00	 ret	 8
__catch$?_Copy@?$basic_string@DU?$char_traits@D@std@@V?$allocator@D@2@@std@@QAEXII@Z$1:

; 1938 : 			_CATCH_ALL
; 1939 : 			_Tidy(true);	// failed again, discard storage and reraise

  000cd	8b 4d e8	 mov	 ecx, DWORD PTR _this$[ebp]
  000d0	33 f6		 xor	 esi, esi
  000d2	56		 push	 esi
  000d3	6a 01		 push	 1
  000d5	e8 00 00 00 00	 call	 ?_Tidy@?$basic_string@DU?$char_traits@D@std@@V?$allocator@D@2@@std@@QAEX_NI@Z ; std::basic_string<char,std::char_traits<char>,std::allocator<char> >::_Tidy

; 1940 : 			_RERAISE;

  000da	56		 push	 esi
  000db	56		 push	 esi
  000dc	e8 00 00 00 00	 call	 __CxxThrowException@8
$LN67@Copy:
$LN66@Copy:
  000e1	cc		 int	 3
_TEXT	ENDS
;	COMDAT text$x
text$x	SEGMENT
__ehhandler$?_Copy@?$basic_string@DU?$char_traits@D@std@@V?$allocator@D@2@@std@@QAEXII@Z:
  00000	8b 54 24 08	 mov	 edx, DWORD PTR [esp+8]
  00004	8d 42 0c	 lea	 eax, DWORD PTR [edx+12]
  00007	8b 4a e4	 mov	 ecx, DWORD PTR [edx-28]
  0000a	33 c8		 xor	 ecx, eax
  0000c	e8 00 00 00 00	 call	 @__security_check_cookie@4
  00011	b8 00 00 00 00	 mov	 eax, OFFSET __ehfuncinfo$?_Copy@?$basic_string@DU?$char_traits@D@std@@V?$allocator@D@2@@std@@QAEXII@Z
  00016	e9 00 00 00 00	 jmp	 ___CxxFrameHandler3
text$x	ENDS
?_Copy@?$basic_string@DU?$char_traits@D@std@@V?$allocator@D@2@@std@@QAEXII@Z ENDP ; std::basic_string<char,std::char_traits<char>,std::allocator<char> >::_Copy
PUBLIC	??$_Move@PAVioHashString@@PAV1@@std@@YAPAVioHashString@@PAV1@00@Z ; std::_Move<ioHashString *,ioHashString *>
; Function compile flags: /Ogsp
; File c:\program files (x86)\microsoft visual studio 10.0\vc\include\xutility
;	COMDAT ??$_Move@PAVioHashString@@PAV1@@std@@YAPAVioHashString@@PAV1@00@Z
_TEXT	SEGMENT
__Cat$513408 = -4					; size = 1
__First$ = 8						; size = 4
__Last$ = 12						; size = 4
__Dest$ = 16						; size = 4
??$_Move@PAVioHashString@@PAV1@@std@@YAPAVioHashString@@PAV1@00@Z PROC ; std::_Move<ioHashString *,ioHashString *>, COMDAT

; 2533 : 	{	// move [_First, _Last) to [_Dest, ...), unchecked

  00000	55		 push	 ebp
  00001	8b ec		 mov	 ebp, esp
  00003	51		 push	 ecx

; 2534 : 	return (_Move(_First, _Last,
; 2535 : 		_Dest, _Ptr_cat(_First, _Dest)));

  00004	ff 75 fc	 push	 DWORD PTR __Cat$513408[ebp]
  00007	ff 75 10	 push	 DWORD PTR __Dest$[ebp]
  0000a	ff 75 0c	 push	 DWORD PTR __Last$[ebp]
  0000d	ff 75 08	 push	 DWORD PTR __First$[ebp]
  00010	e8 00 00 00 00	 call	 ??$_Move@PAVioHashString@@PAV1@@std@@YAPAVioHashString@@PAV1@00U_Nonscalar_ptr_iterator_tag@0@@Z ; std::_Move<ioHashString *,ioHashString *>
  00015	83 c4 10	 add	 esp, 16			; 00000010H

; 2536 : 	}

  00018	c9		 leave
  00019	c3		 ret	 0
??$_Move@PAVioHashString@@PAV1@@std@@YAPAVioHashString@@PAV1@00@Z ENDP ; std::_Move<ioHashString *,ioHashString *>
_TEXT	ENDS
PUBLIC	?destroy@?$allocator@VioHashString@@@std@@QAEXPAVioHashString@@@Z ; std::allocator<ioHashString>::destroy
; Function compile flags: /Ogsp
; File c:\program files (x86)\microsoft visual studio 10.0\vc\include\xmemory
;	COMDAT ?destroy@?$allocator@VioHashString@@@std@@QAEXPAVioHashString@@@Z
_TEXT	SEGMENT
__Ptr$ = 8						; size = 4
?destroy@?$allocator@VioHashString@@@std@@QAEXPAVioHashString@@@Z PROC ; std::allocator<ioHashString>::destroy, COMDAT
; _this$ = ecx

; 212  : 		{	// destroy object at _Ptr

  00000	55		 push	 ebp
  00001	8b ec		 mov	 ebp, esp

; 213  : 		_Destroy(_Ptr);

  00003	8b 4d 08	 mov	 ecx, DWORD PTR __Ptr$[ebp]
  00006	ff 15 00 00 00
	00		 call	 DWORD PTR __imp_??1ioHashString@@QAE@XZ

; 214  : 		}

  0000c	5d		 pop	 ebp
  0000d	c2 04 00	 ret	 4
?destroy@?$allocator@VioHashString@@@std@@QAEXPAVioHashString@@@Z ENDP ; std::allocator<ioHashString>::destroy
_TEXT	ENDS
PUBLIC	??$_Cons_val@V?$allocator@VioHashString@@@std@@VioHashString@@ABV3@@std@@YAXAAV?$allocator@VioHashString@@@0@PAVioHashString@@ABV2@@Z ; std::_Cons_val<std::allocator<ioHashString>,ioHashString,ioHashString const &>
; Function compile flags: /Ogsp
;	COMDAT ??$_Cons_val@V?$allocator@VioHashString@@@std@@VioHashString@@ABV3@@std@@YAXAAV?$allocator@VioHashString@@@0@PAVioHashString@@ABV2@@Z
_TEXT	SEGMENT
__Alval$ = 8						; size = 4
__Pdest$ = 12						; size = 4
__Src$ = 16						; size = 4
??$_Cons_val@V?$allocator@VioHashString@@@std@@VioHashString@@ABV3@@std@@YAXAAV?$allocator@VioHashString@@@0@PAVioHashString@@ABV2@@Z PROC ; std::_Cons_val<std::allocator<ioHashString>,ioHashString,ioHashString const &>, COMDAT

; 279  : 	{	// construct using allocator

  00000	55		 push	 ebp
  00001	8b ec		 mov	 ebp, esp

; 280  : 	_Alval.construct(_Pdest, _STD forward<_Ty2>(_Src));

  00003	ff 75 10	 push	 DWORD PTR __Src$[ebp]
  00006	ff 75 0c	 push	 DWORD PTR __Pdest$[ebp]
  00009	e8 00 00 00 00	 call	 ??$_Construct@VioHashString@@ABV1@@std@@YAXPAVioHashString@@ABV1@@Z ; std::_Construct<ioHashString,ioHashString const &>
  0000e	59		 pop	 ecx
  0000f	59		 pop	 ecx

; 281  : 	}

  00010	5d		 pop	 ebp
  00011	c3		 ret	 0
??$_Cons_val@V?$allocator@VioHashString@@@std@@VioHashString@@ABV3@@std@@YAXAAV?$allocator@VioHashString@@@0@PAVioHashString@@ABV2@@Z ENDP ; std::_Cons_val<std::allocator<ioHashString>,ioHashString,ioHashString const &>
_TEXT	ENDS
PUBLIC	??$_Cons_val@V?$allocator@UColorText@ioMission@@@std@@UColorText@ioMission@@ABU34@@std@@YAXAAV?$allocator@UColorText@ioMission@@@0@PAUColorText@ioMission@@ABU23@@Z ; std::_Cons_val<std::allocator<ioMission::ColorText>,ioMission::ColorText,ioMission::ColorText const &>
; Function compile flags: /Ogsp
;	COMDAT ??$_Cons_val@V?$allocator@UColorText@ioMission@@@std@@UColorText@ioMission@@ABU34@@std@@YAXAAV?$allocator@UColorText@ioMission@@@0@PAUColorText@ioMission@@ABU23@@Z
_TEXT	SEGMENT
__Alval$ = 8						; size = 4
__Pdest$ = 12						; size = 4
__Src$ = 16						; size = 4
??$_Cons_val@V?$allocator@UColorText@ioMission@@@std@@UColorText@ioMission@@ABU34@@std@@YAXAAV?$allocator@UColorText@ioMission@@@0@PAUColorText@ioMission@@ABU23@@Z PROC ; std::_Cons_val<std::allocator<ioMission::ColorText>,ioMission::ColorText,ioMission::ColorText const &>, COMDAT

; 279  : 	{	// construct using allocator

  00000	55		 push	 ebp
  00001	8b ec		 mov	 ebp, esp

; 280  : 	_Alval.construct(_Pdest, _STD forward<_Ty2>(_Src));

  00003	ff 75 10	 push	 DWORD PTR __Src$[ebp]
  00006	ff 75 0c	 push	 DWORD PTR __Pdest$[ebp]
  00009	e8 00 00 00 00	 call	 ??$_Construct@UColorText@ioMission@@ABU12@@std@@YAXPAUColorText@ioMission@@ABU12@@Z ; std::_Construct<ioMission::ColorText,ioMission::ColorText const &>
  0000e	59		 pop	 ecx
  0000f	59		 pop	 ecx

; 281  : 	}

  00010	5d		 pop	 ebp
  00011	c3		 ret	 0
??$_Cons_val@V?$allocator@UColorText@ioMission@@@std@@UColorText@ioMission@@ABU34@@std@@YAXAAV?$allocator@UColorText@ioMission@@@0@PAUColorText@ioMission@@ABU23@@Z ENDP ; std::_Cons_val<std::allocator<ioMission::ColorText>,ioMission::ColorText,ioMission::ColorText const &>
_TEXT	ENDS
PUBLIC	??$_Dest_val@V?$allocator@UColorText@ioMission@@@std@@UColorText@ioMission@@@std@@YAXAAV?$allocator@UColorText@ioMission@@@0@PAUColorText@ioMission@@@Z ; std::_Dest_val<std::allocator<ioMission::ColorText>,ioMission::ColorText>
; Function compile flags: /Ogsp
;	COMDAT ??$_Dest_val@V?$allocator@UColorText@ioMission@@@std@@UColorText@ioMission@@@std@@YAXAAV?$allocator@UColorText@ioMission@@@0@PAUColorText@ioMission@@@Z
_TEXT	SEGMENT
__Alval$ = 8						; size = 4
__Pdest$ = 12						; size = 4
??$_Dest_val@V?$allocator@UColorText@ioMission@@@std@@UColorText@ioMission@@@std@@YAXAAV?$allocator@UColorText@ioMission@@@0@PAUColorText@ioMission@@@Z PROC ; std::_Dest_val<std::allocator<ioMission::ColorText>,ioMission::ColorText>, COMDAT

; 286  : 	{	// destroy using allocator

  00000	55		 push	 ebp
  00001	8b ec		 mov	 ebp, esp

; 287  : 	_Alval.destroy(_Pdest);

  00003	8b 4d 0c	 mov	 ecx, DWORD PTR __Pdest$[ebp]
  00006	83 c1 04	 add	 ecx, 4

; 288  : 	}

  00009	5d		 pop	 ebp

; 287  : 	_Alval.destroy(_Pdest);

  0000a	ff 25 00 00 00
	00		 jmp	 DWORD PTR __imp_??1ioHashString@@QAE@XZ
??$_Dest_val@V?$allocator@UColorText@ioMission@@@std@@UColorText@ioMission@@@std@@YAXAAV?$allocator@UColorText@ioMission@@@0@PAUColorText@ioMission@@@Z ENDP ; std::_Dest_val<std::allocator<ioMission::ColorText>,ioMission::ColorText>
_TEXT	ENDS
PUBLIC	??$_Uninit_copy@V?$_Vector_const_iterator@V?$_Vector_val@UColorText@ioMission@@V?$allocator@UColorText@ioMission@@@std@@@std@@@std@@PAUColorText@ioMission@@V?$allocator@UColorText@ioMission@@@2@@std@@YAPAUColorText@ioMission@@V?$_Vector_const_iterator@V?$_Vector_val@UColorText@ioMission@@V?$allocator@UColorText@ioMission@@@std@@@std@@@0@0PAU12@AAV?$allocator@UColorText@ioMission@@@0@U_Nonscalar_ptr_iterator_tag@0@@Z ; std::_Uninit_copy<std::_Vector_const_iterator<std::_Vector_val<ioMission::ColorText,std::allocator<ioMission::ColorText> > >,ioMission::ColorText *,std::allocator<ioMission::ColorText> >
;	COMDAT xdata$x
; File d:\lost saga for developer\youtube\tutorial\source\src\lsclient\iomission.cpp
xdata$x	SEGMENT
__catchsym$??$_Uninit_copy@V?$_Vector_const_iterator@V?$_Vector_val@UColorText@ioMission@@V?$allocator@UColorText@ioMission@@@std@@@std@@@std@@PAUColorText@ioMission@@V?$allocator@UColorText@ioMission@@@2@@std@@YAPAUColorText@ioMission@@V?$_Vector_const_iterator@V?$_Vector_val@UColorText@ioMission@@V?$allocator@UColorText@ioMission@@@std@@@std@@@0@0PAU12@AAV?$allocator@UColorText@ioMission@@@0@U_Nonscalar_ptr_iterator_tag@0@@Z$3 DD 040H
	DD	00H
	DD	00H
	DD	FLAT:__catch$??$_Uninit_copy@V?$_Vector_const_iterator@V?$_Vector_val@UColorText@ioMission@@V?$allocator@UColorText@ioMission@@@std@@@std@@@std@@PAUColorText@ioMission@@V?$allocator@UColorText@ioMission@@@2@@std@@YAPAUColorText@ioMission@@V?$_Vector_const_iterator@V?$_Vector_val@UColorText@ioMission@@V?$allocator@UColorText@ioMission@@@std@@@std@@@0@0PAU12@AAV?$allocator@UColorText@ioMission@@@0@U_Nonscalar_ptr_iterator_tag@0@@Z$0
__unwindtable$??$_Uninit_copy@V?$_Vector_const_iterator@V?$_Vector_val@UColorText@ioMission@@V?$allocator@UColorText@ioMission@@@std@@@std@@@std@@PAUColorText@ioMission@@V?$allocator@UColorText@ioMission@@@2@@std@@YAPAUColorText@ioMission@@V?$_Vector_const_iterator@V?$_Vector_val@UColorText@ioMission@@V?$allocator@UColorText@ioMission@@@std@@@std@@@0@0PAU12@AAV?$allocator@UColorText@ioMission@@@0@U_Nonscalar_ptr_iterator_tag@0@@Z DD 0ffffffffH
	DD	00H
	DD	0ffffffffH
	DD	00H
__tryblocktable$??$_Uninit_copy@V?$_Vector_const_iterator@V?$_Vector_val@UColorText@ioMission@@V?$allocator@UColorText@ioMission@@@std@@@std@@@std@@PAUColorText@ioMission@@V?$allocator@UColorText@ioMission@@@2@@std@@YAPAUColorText@ioMission@@V?$_Vector_const_iterator@V?$_Vector_val@UColorText@ioMission@@V?$allocator@UColorText@ioMission@@@std@@@std@@@0@0PAU12@AAV?$allocator@UColorText@ioMission@@@0@U_Nonscalar_ptr_iterator_tag@0@@Z DD 00H
	DD	00H
	DD	01H
	DD	01H
	DD	FLAT:__catchsym$??$_Uninit_copy@V?$_Vector_const_iterator@V?$_Vector_val@UColorText@ioMission@@V?$allocator@UColorText@ioMission@@@std@@@std@@@std@@PAUColorText@ioMission@@V?$allocator@UColorText@ioMission@@@2@@std@@YAPAUColorText@ioMission@@V?$_Vector_const_iterator@V?$_Vector_val@UColorText@ioMission@@V?$allocator@UColorText@ioMission@@@std@@@std@@@0@0PAU12@AAV?$allocator@UColorText@ioMission@@@0@U_Nonscalar_ptr_iterator_tag@0@@Z$3
__ehfuncinfo$??$_Uninit_copy@V?$_Vector_const_iterator@V?$_Vector_val@UColorText@ioMission@@V?$allocator@UColorText@ioMission@@@std@@@std@@@std@@PAUColorText@ioMission@@V?$allocator@UColorText@ioMission@@@2@@std@@YAPAUColorText@ioMission@@V?$_Vector_const_iterator@V?$_Vector_val@UColorText@ioMission@@V?$allocator@UColorText@ioMission@@@std@@@std@@@0@0PAU12@AAV?$allocator@UColorText@ioMission@@@0@U_Nonscalar_ptr_iterator_tag@0@@Z DD 019930522H
	DD	02H
	DD	FLAT:__unwindtable$??$_Uninit_copy@V?$_Vector_const_iterator@V?$_Vector_val@UColorText@ioMission@@V?$allocator@UColorText@ioMission@@@std@@@std@@@std@@PAUColorText@ioMission@@V?$allocator@UColorText@ioMission@@@2@@std@@YAPAUColorText@ioMission@@V?$_Vector_const_iterator@V?$_Vector_val@UColorText@ioMission@@V?$allocator@UColorText@ioMission@@@std@@@std@@@0@0PAU12@AAV?$allocator@UColorText@ioMission@@@0@U_Nonscalar_ptr_iterator_tag@0@@Z
	DD	01H
	DD	FLAT:__tryblocktable$??$_Uninit_copy@V?$_Vector_const_iterator@V?$_Vector_val@UColorText@ioMission@@V?$allocator@UColorText@ioMission@@@std@@@std@@@std@@PAUColorText@ioMission@@V?$allocator@UColorText@ioMission@@@2@@std@@YAPAUColorText@ioMission@@V?$_Vector_const_iterator@V?$_Vector_val@UColorText@ioMission@@V?$allocator@UColorText@ioMission@@@std@@@std@@@0@0PAU12@AAV?$allocator@UColorText@ioMission@@@0@U_Nonscalar_ptr_iterator_tag@0@@Z
	DD	2 DUP(00H)
	DD	00H
	DD	01H
; Function compile flags: /Ogsp
; File c:\program files (x86)\microsoft visual studio 10.0\vc\include\memory
xdata$x	ENDS
;	COMDAT ??$_Uninit_copy@V?$_Vector_const_iterator@V?$_Vector_val@UColorText@ioMission@@V?$allocator@UColorText@ioMission@@@std@@@std@@@std@@PAUColorText@ioMission@@V?$allocator@UColorText@ioMission@@@2@@std@@YAPAUColorText@ioMission@@V?$_Vector_const_iterator@V?$_Vector_val@UColorText@ioMission@@V?$allocator@UColorText@ioMission@@@std@@@std@@@0@0PAU12@AAV?$allocator@UColorText@ioMission@@@0@U_Nonscalar_ptr_iterator_tag@0@@Z
_TEXT	SEGMENT
__Next$ = -20						; size = 4
__$EHRec$ = -16						; size = 16
__First$ = 8						; size = 4
__Last$ = 12						; size = 4
__Dest$ = 16						; size = 4
__Al$ = 20						; size = 4
___formal$ = 24						; size = 1
??$_Uninit_copy@V?$_Vector_const_iterator@V?$_Vector_val@UColorText@ioMission@@V?$allocator@UColorText@ioMission@@@std@@@std@@@std@@PAUColorText@ioMission@@V?$allocator@UColorText@ioMission@@@2@@std@@YAPAUColorText@ioMission@@V?$_Vector_const_iterator@V?$_Vector_val@UColorText@ioMission@@V?$allocator@UColorText@ioMission@@@std@@@std@@@0@0PAU12@AAV?$allocator@UColorText@ioMission@@@0@U_Nonscalar_ptr_iterator_tag@0@@Z PROC ; std::_Uninit_copy<std::_Vector_const_iterator<std::_Vector_val<ioMission::ColorText,std::allocator<ioMission::ColorText> > >,ioMission::ColorText *,std::allocator<ioMission::ColorText> >, COMDAT

; 369  : 	{	// copy [_First, _Last) to raw _Dest, using _Al, arbitrary type

  00000	6a 08		 push	 8
  00002	b8 00 00 00 00	 mov	 eax, __ehhandler$??$_Uninit_copy@V?$_Vector_const_iterator@V?$_Vector_val@UColorText@ioMission@@V?$allocator@UColorText@ioMission@@@std@@@std@@@std@@PAUColorText@ioMission@@V?$allocator@UColorText@ioMission@@@2@@std@@YAPAUColorText@ioMission@@V?$_Vector_const_iterator@V?$_Vector_val@UColorText@ioMission@@V?$allocator@UColorText@ioMission@@@std@@@std@@@0@0PAU12@AAV?$allocator@UColorText@ioMission@@@0@U_Nonscalar_ptr_iterator_tag@0@@Z
  00007	e8 00 00 00 00	 call	 __EH_prolog3_catch

; 370  : 	_DEBUG_RANGE(_First, _Last);
; 371  : 	_DEBUG_POINTER(_Dest);
; 372  : 	_FwdIt _Next = _Dest;

  0000c	8b 45 10	 mov	 eax, DWORD PTR __Dest$[ebp]

; 373  : 
; 374  : 	_TRY_BEGIN

  0000f	83 65 fc 00	 and	 DWORD PTR __$EHRec$[ebp+12], 0
  00013	89 45 ec	 mov	 DWORD PTR __Next$[ebp], eax

; 375  : 	for (; _First != _Last; ++_Dest, ++_First)

$LL14@Uninit_cop:
  00016	8b 45 08	 mov	 eax, DWORD PTR __First$[ebp]
  00019	3b 45 0c	 cmp	 eax, DWORD PTR __Last$[ebp]
  0001c	74 34		 je	 SHORT $LN4@Uninit_cop

; 376  : 		_Cons_val(_Al, _Dest, *_First);

  0001e	50		 push	 eax
  0001f	ff 75 10	 push	 DWORD PTR __Dest$[ebp]
  00022	e8 00 00 00 00	 call	 ??$_Construct@UColorText@ioMission@@ABU12@@std@@YAXPAUColorText@ioMission@@ABU12@@Z ; std::_Construct<ioMission::ColorText,ioMission::ColorText const &>
  00027	83 45 10 14	 add	 DWORD PTR __Dest$[ebp], 20 ; 00000014H
  0002b	83 45 08 14	 add	 DWORD PTR __First$[ebp], 20 ; 00000014H
  0002f	59		 pop	 ecx
  00030	59		 pop	 ecx
  00031	eb e3		 jmp	 SHORT $LL14@Uninit_cop
__catch$??$_Uninit_copy@V?$_Vector_const_iterator@V?$_Vector_val@UColorText@ioMission@@V?$allocator@UColorText@ioMission@@@std@@@std@@@std@@PAUColorText@ioMission@@V?$allocator@UColorText@ioMission@@@2@@std@@YAPAUColorText@ioMission@@V?$_Vector_const_iterator@V?$_Vector_val@UColorText@ioMission@@V?$allocator@UColorText@ioMission@@@std@@@std@@@0@0PAU12@AAV?$allocator@UColorText@ioMission@@@0@U_Nonscalar_ptr_iterator_tag@0@@Z$0:

; 377  : 	_CATCH_ALL
; 378  : 	for (; _Next != _Dest; ++_Next)

  00033	8b 75 ec	 mov	 esi, DWORD PTR __Next$[ebp]
  00036	eb 0c		 jmp	 SHORT $LN48@Uninit_cop
$LL3@Uninit_cop:

; 379  : 		_Dest_val(_Al, _Next);

  00038	8d 4e 04	 lea	 ecx, DWORD PTR [esi+4]
  0003b	ff 15 00 00 00
	00		 call	 DWORD PTR __imp_??1ioHashString@@QAE@XZ
  00041	83 c6 14	 add	 esi, 20			; 00000014H
$LN48@Uninit_cop:

; 377  : 	_CATCH_ALL
; 378  : 	for (; _Next != _Dest; ++_Next)

  00044	3b 75 10	 cmp	 esi, DWORD PTR __Dest$[ebp]
  00047	75 ef		 jne	 SHORT $LL3@Uninit_cop

; 380  : 	_RERAISE;

  00049	6a 00		 push	 0
  0004b	6a 00		 push	 0
  0004d	e8 00 00 00 00	 call	 __CxxThrowException@8
$LN49@Uninit_cop:
$LN4@Uninit_cop:

; 381  : 	_CATCH_END
; 382  : 	return (_Dest);

  00052	8b 45 10	 mov	 eax, DWORD PTR __Dest$[ebp]

; 383  : 	}

  00055	e8 00 00 00 00	 call	 __EH_epilog3
  0005a	c3		 ret	 0
$LN47@Uninit_cop:
_TEXT	ENDS
;	COMDAT text$x
text$x	SEGMENT
__ehhandler$??$_Uninit_copy@V?$_Vector_const_iterator@V?$_Vector_val@UColorText@ioMission@@V?$allocator@UColorText@ioMission@@@std@@@std@@@std@@PAUColorText@ioMission@@V?$allocator@UColorText@ioMission@@@2@@std@@YAPAUColorText@ioMission@@V?$_Vector_const_iterator@V?$_Vector_val@UColorText@ioMission@@V?$allocator@UColorText@ioMission@@@std@@@std@@@0@0PAU12@AAV?$allocator@UColorText@ioMission@@@0@U_Nonscalar_ptr_iterator_tag@0@@Z:
  00000	8b 54 24 08	 mov	 edx, DWORD PTR [esp+8]
  00004	8d 42 0c	 lea	 eax, DWORD PTR [edx+12]
  00007	8b 4a e8	 mov	 ecx, DWORD PTR [edx-24]
  0000a	33 c8		 xor	 ecx, eax
  0000c	e8 00 00 00 00	 call	 @__security_check_cookie@4
  00011	b8 00 00 00 00	 mov	 eax, OFFSET __ehfuncinfo$??$_Uninit_copy@V?$_Vector_const_iterator@V?$_Vector_val@UColorText@ioMission@@V?$allocator@UColorText@ioMission@@@std@@@std@@@std@@PAUColorText@ioMission@@V?$allocator@UColorText@ioMission@@@2@@std@@YAPAUColorText@ioMission@@V?$_Vector_const_iterator@V?$_Vector_val@UColorText@ioMission@@V?$allocator@UColorText@ioMission@@@std@@@std@@@0@0PAU12@AAV?$allocator@UColorText@ioMission@@@0@U_Nonscalar_ptr_iterator_tag@0@@Z
  00016	e9 00 00 00 00	 jmp	 ___CxxFrameHandler3
text$x	ENDS
??$_Uninit_copy@V?$_Vector_const_iterator@V?$_Vector_val@UColorText@ioMission@@V?$allocator@UColorText@ioMission@@@std@@@std@@@std@@PAUColorText@ioMission@@V?$allocator@UColorText@ioMission@@@2@@std@@YAPAUColorText@ioMission@@V?$_Vector_const_iterator@V?$_Vector_val@UColorText@ioMission@@V?$allocator@UColorText@ioMission@@@std@@@std@@@0@0PAU12@AAV?$allocator@UColorText@ioMission@@@0@U_Nonscalar_ptr_iterator_tag@0@@Z ENDP ; std::_Uninit_copy<std::_Vector_const_iterator<std::_Vector_val<ioMission::ColorText,std::allocator<ioMission::ColorText> > >,ioMission::ColorText *,std::allocator<ioMission::ColorText> >
PUBLIC	??1?$basic_string@DU?$char_traits@D@std@@V?$allocator@D@2@@std@@QAE@XZ ; std::basic_string<char,std::char_traits<char>,std::allocator<char> >::~basic_string<char,std::char_traits<char>,std::allocator<char> >
; Function compile flags: /Ogsp
; File c:\program files (x86)\microsoft visual studio 10.0\vc\include\xstring
;	COMDAT ??1?$basic_string@DU?$char_traits@D@std@@V?$allocator@D@2@@std@@QAE@XZ
_TEXT	SEGMENT
??1?$basic_string@DU?$char_traits@D@std@@V?$allocator@D@2@@std@@QAE@XZ PROC ; std::basic_string<char,std::char_traits<char>,std::allocator<char> >::~basic_string<char,std::char_traits<char>,std::allocator<char> >, COMDAT
; _this$ = ecx

; 754  : 		_Tidy(true);

  00000	6a 00		 push	 0
  00002	6a 01		 push	 1
  00004	e8 00 00 00 00	 call	 ?_Tidy@?$basic_string@DU?$char_traits@D@std@@V?$allocator@D@2@@std@@QAEX_NI@Z ; std::basic_string<char,std::char_traits<char>,std::allocator<char> >::_Tidy

; 755  : 		}

  00009	c3		 ret	 0
??1?$basic_string@DU?$char_traits@D@std@@V?$allocator@D@2@@std@@QAE@XZ ENDP ; std::basic_string<char,std::char_traits<char>,std::allocator<char> >::~basic_string<char,std::char_traits<char>,std::allocator<char> >
_TEXT	ENDS
PUBLIC	?_Grow@?$basic_string@DU?$char_traits@D@std@@V?$allocator@D@2@@std@@QAE_NI_N@Z ; std::basic_string<char,std::char_traits<char>,std::allocator<char> >::_Grow
; Function compile flags: /Ogsp
;	COMDAT ?_Grow@?$basic_string@DU?$char_traits@D@std@@V?$allocator@D@2@@std@@QAE_NI_N@Z
_TEXT	SEGMENT
__Newsize$ = 8						; size = 4
__Trim$ = 12						; size = 1
?_Grow@?$basic_string@DU?$char_traits@D@std@@V?$allocator@D@2@@std@@QAE_NI_N@Z PROC ; std::basic_string<char,std::char_traits<char>,std::allocator<char> >::_Grow, COMDAT
; _this$ = ecx

; 1959 : 		{	// ensure buffer is big enough, trim to size if _Trim is true

  00000	55		 push	 ebp
  00001	8b ec		 mov	 ebp, esp
  00003	56		 push	 esi

; 1960 : 		if (max_size() < _Newsize)

  00004	8b 75 08	 mov	 esi, DWORD PTR __Newsize$[ebp]
  00007	83 fe fe	 cmp	 esi, -2			; fffffffeH
  0000a	76 0b		 jbe	 SHORT $LN6@Grow

; 1961 : 			_Xlen();	// result too long

  0000c	68 00 00 00 00	 push	 OFFSET ??_C@_0BA@JFNIOLAK@string?5too?5long?$AA@
  00011	ff 15 00 00 00
	00		 call	 DWORD PTR __imp_?_Xlength_error@std@@YAXPBD@Z
$LN31@Grow:
$LN6@Grow:

; 1962 : 		if (this->_Myres < _Newsize)

  00017	8b 41 14	 mov	 eax, DWORD PTR [ecx+20]
  0001a	3b c6		 cmp	 eax, esi
  0001c	73 0b		 jae	 SHORT $LN5@Grow

; 1963 : 			_Copy(_Newsize, this->_Mysize);	// reallocate to grow

  0001e	ff 71 10	 push	 DWORD PTR [ecx+16]
  00021	56		 push	 esi
  00022	e8 00 00 00 00	 call	 ?_Copy@?$basic_string@DU?$char_traits@D@std@@V?$allocator@D@2@@std@@QAEXII@Z ; std::basic_string<char,std::char_traits<char>,std::allocator<char> >::_Copy
  00027	eb 2e		 jmp	 SHORT $LN28@Grow
$LN5@Grow:

; 1964 : 		else if (_Trim && _Newsize < this->_BUF_SIZE)

  00029	33 d2		 xor	 edx, edx
  0002b	38 55 0c	 cmp	 BYTE PTR __Trim$[ebp], dl
  0002e	74 17		 je	 SHORT $LN3@Grow
  00030	83 fe 10	 cmp	 esi, 16			; 00000010H
  00033	73 12		 jae	 SHORT $LN3@Grow

; 1965 : 			_Tidy(true,	// copy and deallocate if trimming to small string
; 1966 : 				_Newsize < this->_Mysize ? _Newsize : this->_Mysize);

  00035	8b 41 10	 mov	 eax, DWORD PTR [ecx+16]
  00038	3b f0		 cmp	 esi, eax
  0003a	0f 42 c6	 cmovb	 eax, esi
  0003d	50		 push	 eax
  0003e	6a 01		 push	 1
  00040	e8 00 00 00 00	 call	 ?_Tidy@?$basic_string@DU?$char_traits@D@std@@V?$allocator@D@2@@std@@QAEX_NI@Z ; std::basic_string<char,std::char_traits<char>,std::allocator<char> >::_Tidy
  00045	eb 10		 jmp	 SHORT $LN28@Grow
$LN3@Grow:

; 1967 : 		else if (_Newsize == 0)

  00047	3b f2		 cmp	 esi, edx
  00049	75 0c		 jne	 SHORT $LN28@Grow

; 1968 : 			_Eos(0);	// new size is zero, just null terminate

  0004b	89 51 10	 mov	 DWORD PTR [ecx+16], edx
  0004e	83 f8 10	 cmp	 eax, 16			; 00000010H
  00051	72 02		 jb	 SHORT $LN26@Grow
  00053	8b 09		 mov	 ecx, DWORD PTR [ecx]
$LN26@Grow:
  00055	88 11		 mov	 BYTE PTR [ecx], dl
$LN28@Grow:

; 1969 : 		return (0 < _Newsize);	// return true only if more work to do

  00057	33 c0		 xor	 eax, eax
  00059	3b c6		 cmp	 eax, esi
  0005b	1b c0		 sbb	 eax, eax
  0005d	f7 d8		 neg	 eax
  0005f	5e		 pop	 esi

; 1970 : 		}

  00060	5d		 pop	 ebp
  00061	c2 08 00	 ret	 8
$LN30@Grow:
?_Grow@?$basic_string@DU?$char_traits@D@std@@V?$allocator@D@2@@std@@QAE_NI_N@Z ENDP ; std::basic_string<char,std::char_traits<char>,std::allocator<char> >::_Grow
_TEXT	ENDS
PUBLIC	??$_Dest_val@V?$allocator@VioHashString@@@std@@VioHashString@@@std@@YAXAAV?$allocator@VioHashString@@@0@PAVioHashString@@@Z ; std::_Dest_val<std::allocator<ioHashString>,ioHashString>
; Function compile flags: /Ogsp
; File c:\program files (x86)\microsoft visual studio 10.0\vc\include\xmemory
;	COMDAT ??$_Dest_val@V?$allocator@VioHashString@@@std@@VioHashString@@@std@@YAXAAV?$allocator@VioHashString@@@0@PAVioHashString@@@Z
_TEXT	SEGMENT
__Alval$ = 8						; size = 4
__Pdest$ = 12						; size = 4
??$_Dest_val@V?$allocator@VioHashString@@@std@@VioHashString@@@std@@YAXAAV?$allocator@VioHashString@@@0@PAVioHashString@@@Z PROC ; std::_Dest_val<std::allocator<ioHashString>,ioHashString>, COMDAT

; 286  : 	{	// destroy using allocator

  00000	55		 push	 ebp
  00001	8b ec		 mov	 ebp, esp

; 287  : 	_Alval.destroy(_Pdest);

  00003	8b 4d 0c	 mov	 ecx, DWORD PTR __Pdest$[ebp]

; 288  : 	}

  00006	5d		 pop	 ebp

; 287  : 	_Alval.destroy(_Pdest);

  00007	ff 25 00 00 00
	00		 jmp	 DWORD PTR __imp_??1ioHashString@@QAE@XZ
??$_Dest_val@V?$allocator@VioHashString@@@std@@VioHashString@@@std@@YAXAAV?$allocator@VioHashString@@@0@PAVioHashString@@@Z ENDP ; std::_Dest_val<std::allocator<ioHashString>,ioHashString>
_TEXT	ENDS
PUBLIC	??_G?$basic_string@DU?$char_traits@D@std@@V?$allocator@D@2@@std@@QAEPAXI@Z ; std::basic_string<char,std::char_traits<char>,std::allocator<char> >::`scalar deleting destructor'
; Function compile flags: /Ogsp
;	COMDAT ??_G?$basic_string@DU?$char_traits@D@std@@V?$allocator@D@2@@std@@QAEPAXI@Z
_TEXT	SEGMENT
___flags$ = 8						; size = 4
??_G?$basic_string@DU?$char_traits@D@std@@V?$allocator@D@2@@std@@QAEPAXI@Z PROC ; std::basic_string<char,std::char_traits<char>,std::allocator<char> >::`scalar deleting destructor', COMDAT
; _this$ = ecx
  00000	55		 push	 ebp
  00001	8b ec		 mov	 ebp, esp
  00003	56		 push	 esi
  00004	6a 00		 push	 0
  00006	6a 01		 push	 1
  00008	8b f1		 mov	 esi, ecx
  0000a	e8 00 00 00 00	 call	 ?_Tidy@?$basic_string@DU?$char_traits@D@std@@V?$allocator@D@2@@std@@QAEX_NI@Z ; std::basic_string<char,std::char_traits<char>,std::allocator<char> >::_Tidy
  0000f	f6 45 08 01	 test	 BYTE PTR ___flags$[ebp], 1
  00013	74 07		 je	 SHORT $LN1@scalar@4
  00015	56		 push	 esi
  00016	e8 00 00 00 00	 call	 ??3@YAXPAX@Z		; operator delete
  0001b	59		 pop	 ecx
$LN1@scalar@4:
  0001c	8b c6		 mov	 eax, esi
  0001e	5e		 pop	 esi
  0001f	5d		 pop	 ebp
  00020	c2 04 00	 ret	 4
??_G?$basic_string@DU?$char_traits@D@std@@V?$allocator@D@2@@std@@QAEPAXI@Z ENDP ; std::basic_string<char,std::char_traits<char>,std::allocator<char> >::`scalar deleting destructor'
_TEXT	ENDS
PUBLIC	??$_Destroy_range@V?$allocator@UColorText@ioMission@@@std@@@std@@YAXPAUColorText@ioMission@@0AAV?$allocator@UColorText@ioMission@@@0@U_Nonscalar_ptr_iterator_tag@0@@Z ; std::_Destroy_range<std::allocator<ioMission::ColorText> >
; Function compile flags: /Ogsp
;	COMDAT ??$_Destroy_range@V?$allocator@UColorText@ioMission@@@std@@@std@@YAXPAUColorText@ioMission@@0AAV?$allocator@UColorText@ioMission@@@0@U_Nonscalar_ptr_iterator_tag@0@@Z
_TEXT	SEGMENT
__First$ = 8						; size = 4
__Last$ = 12						; size = 4
__Al$ = 16						; size = 4
___formal$ = 20						; size = 1
??$_Destroy_range@V?$allocator@UColorText@ioMission@@@std@@@std@@YAXPAUColorText@ioMission@@0AAV?$allocator@UColorText@ioMission@@@0@U_Nonscalar_ptr_iterator_tag@0@@Z PROC ; std::_Destroy_range<std::allocator<ioMission::ColorText> >, COMDAT

; 95   : 	{	// destroy [_First, _Last), arbitrary type

  00000	55		 push	 ebp
  00001	8b ec		 mov	 ebp, esp
  00003	56		 push	 esi

; 96   : 	for (; _First != _Last; ++_First)

  00004	8b 75 08	 mov	 esi, DWORD PTR __First$[ebp]
  00007	eb 0c		 jmp	 SHORT $LN20@Destroy_ra
$LL3@Destroy_ra:

; 97   : 		_Dest_val(_Al, _First);

  00009	8d 4e 04	 lea	 ecx, DWORD PTR [esi+4]
  0000c	ff 15 00 00 00
	00		 call	 DWORD PTR __imp_??1ioHashString@@QAE@XZ
  00012	83 c6 14	 add	 esi, 20			; 00000014H
$LN20@Destroy_ra:

; 96   : 	for (; _First != _Last; ++_First)

  00015	3b 75 0c	 cmp	 esi, DWORD PTR __Last$[ebp]
  00018	75 ef		 jne	 SHORT $LL3@Destroy_ra
  0001a	5e		 pop	 esi

; 98   : 	}

  0001b	5d		 pop	 ebp
  0001c	c3		 ret	 0
??$_Destroy_range@V?$allocator@UColorText@ioMission@@@std@@@std@@YAXPAUColorText@ioMission@@0AAV?$allocator@UColorText@ioMission@@@0@U_Nonscalar_ptr_iterator_tag@0@@Z ENDP ; std::_Destroy_range<std::allocator<ioMission::ColorText> >
_TEXT	ENDS
PUBLIC	??$_Uninit_move@PAVioHashString@@PAV1@V?$allocator@VioHashString@@@std@@V1@@std@@YAPAVioHashString@@PAV1@00AAV?$allocator@VioHashString@@@0@0U_Nonscalar_ptr_iterator_tag@0@@Z ; std::_Uninit_move<ioHashString *,ioHashString *,std::allocator<ioHashString>,ioHashString>
;	COMDAT xdata$x
; File c:\program files (x86)\microsoft visual studio 10.0\vc\include\vector
xdata$x	SEGMENT
__catchsym$??$_Uninit_move@PAVioHashString@@PAV1@V?$allocator@VioHashString@@@std@@V1@@std@@YAPAVioHashString@@PAV1@00AAV?$allocator@VioHashString@@@0@0U_Nonscalar_ptr_iterator_tag@0@@Z$2 DD 040H
	DD	00H
	DD	00H
	DD	FLAT:__catch$??$_Uninit_move@PAVioHashString@@PAV1@V?$allocator@VioHashString@@@std@@V1@@std@@YAPAVioHashString@@PAV1@00AAV?$allocator@VioHashString@@@0@0U_Nonscalar_ptr_iterator_tag@0@@Z$0
__unwindtable$??$_Uninit_move@PAVioHashString@@PAV1@V?$allocator@VioHashString@@@std@@V1@@std@@YAPAVioHashString@@PAV1@00AAV?$allocator@VioHashString@@@0@0U_Nonscalar_ptr_iterator_tag@0@@Z DD 0ffffffffH
	DD	00H
	DD	0ffffffffH
	DD	00H
__tryblocktable$??$_Uninit_move@PAVioHashString@@PAV1@V?$allocator@VioHashString@@@std@@V1@@std@@YAPAVioHashString@@PAV1@00AAV?$allocator@VioHashString@@@0@0U_Nonscalar_ptr_iterator_tag@0@@Z DD 00H
	DD	00H
	DD	01H
	DD	01H
	DD	FLAT:__catchsym$??$_Uninit_move@PAVioHashString@@PAV1@V?$allocator@VioHashString@@@std@@V1@@std@@YAPAVioHashString@@PAV1@00AAV?$allocator@VioHashString@@@0@0U_Nonscalar_ptr_iterator_tag@0@@Z$2
__ehfuncinfo$??$_Uninit_move@PAVioHashString@@PAV1@V?$allocator@VioHashString@@@std@@V1@@std@@YAPAVioHashString@@PAV1@00AAV?$allocator@VioHashString@@@0@0U_Nonscalar_ptr_iterator_tag@0@@Z DD 019930522H
	DD	02H
	DD	FLAT:__unwindtable$??$_Uninit_move@PAVioHashString@@PAV1@V?$allocator@VioHashString@@@std@@V1@@std@@YAPAVioHashString@@PAV1@00AAV?$allocator@VioHashString@@@0@0U_Nonscalar_ptr_iterator_tag@0@@Z
	DD	01H
	DD	FLAT:__tryblocktable$??$_Uninit_move@PAVioHashString@@PAV1@V?$allocator@VioHashString@@@std@@V1@@std@@YAPAVioHashString@@PAV1@00AAV?$allocator@VioHashString@@@0@0U_Nonscalar_ptr_iterator_tag@0@@Z
	DD	2 DUP(00H)
	DD	00H
	DD	01H
; Function compile flags: /Ogsp
; File c:\program files (x86)\microsoft visual studio 10.0\vc\include\memory
xdata$x	ENDS
;	COMDAT ??$_Uninit_move@PAVioHashString@@PAV1@V?$allocator@VioHashString@@@std@@V1@@std@@YAPAVioHashString@@PAV1@00AAV?$allocator@VioHashString@@@0@0U_Nonscalar_ptr_iterator_tag@0@@Z
_TEXT	SEGMENT
__Next$ = -20						; size = 4
__$EHRec$ = -16						; size = 16
__First$ = 8						; size = 4
__Last$ = 12						; size = 4
__Dest$ = 16						; size = 4
__Al$ = 20						; size = 4
___formal$ = 24						; size = 4
___formal$ = 28						; size = 1
??$_Uninit_move@PAVioHashString@@PAV1@V?$allocator@VioHashString@@@std@@V1@@std@@YAPAVioHashString@@PAV1@00AAV?$allocator@VioHashString@@@0@0U_Nonscalar_ptr_iterator_tag@0@@Z PROC ; std::_Uninit_move<ioHashString *,ioHashString *,std::allocator<ioHashString>,ioHashString>, COMDAT

; 424  : 	{	// move [_First, _Last) to raw _Dest, using _Al, arbitrary type

  00000	6a 08		 push	 8
  00002	b8 00 00 00 00	 mov	 eax, __ehhandler$??$_Uninit_move@PAVioHashString@@PAV1@V?$allocator@VioHashString@@@std@@V1@@std@@YAPAVioHashString@@PAV1@00AAV?$allocator@VioHashString@@@0@0U_Nonscalar_ptr_iterator_tag@0@@Z
  00007	e8 00 00 00 00	 call	 __EH_prolog3_catch

; 425  : 	_DEBUG_RANGE(_First, _Last);
; 426  : 	_DEBUG_POINTER(_Dest);
; 427  : 	_FwdIt _Next = _Dest;

  0000c	8b 45 10	 mov	 eax, DWORD PTR __Dest$[ebp]

; 428  : 
; 429  : 	_TRY_BEGIN

  0000f	83 65 fc 00	 and	 DWORD PTR __$EHRec$[ebp+12], 0
  00013	8b 75 08	 mov	 esi, DWORD PTR __First$[ebp]
  00016	89 45 ec	 mov	 DWORD PTR __Next$[ebp], eax
$LL6@Uninit_mov:

; 430  : 	for (; _First != _Last; ++_Dest, ++_First)

  00019	3b 75 0c	 cmp	 esi, DWORD PTR __Last$[ebp]
  0001c	74 33		 je	 SHORT $LN4@Uninit_mov

; 431  : 		_Cons_val(_Al, _Dest, (_Valty &&)*_First);

  0001e	8b 4d 14	 mov	 ecx, DWORD PTR __Al$[ebp]
  00021	56		 push	 esi
  00022	ff 75 10	 push	 DWORD PTR __Dest$[ebp]
  00025	e8 00 00 00 00	 call	 ?construct@?$allocator@VioHashString@@@std@@QAEXPAVioHashString@@$$QAV3@@Z ; std::allocator<ioHashString>::construct
  0002a	83 45 10 10	 add	 DWORD PTR __Dest$[ebp], 16 ; 00000010H
  0002e	83 c6 10	 add	 esi, 16			; 00000010H
  00031	eb e6		 jmp	 SHORT $LL6@Uninit_mov
__catch$??$_Uninit_move@PAVioHashString@@PAV1@V?$allocator@VioHashString@@@std@@V1@@std@@YAPAVioHashString@@PAV1@00AAV?$allocator@VioHashString@@@0@0U_Nonscalar_ptr_iterator_tag@0@@Z$0:

; 432  : 	_CATCH_ALL
; 433  : 	for (; _Next != _Dest; ++_Next)

  00033	8b 75 ec	 mov	 esi, DWORD PTR __Next$[ebp]
  00036	eb 0b		 jmp	 SHORT $LN33@Uninit_mov
$LL3@Uninit_mov:

; 434  : 		_Dest_val(_Al, _Next);

  00038	8b ce		 mov	 ecx, esi
  0003a	ff 15 00 00 00
	00		 call	 DWORD PTR __imp_??1ioHashString@@QAE@XZ
  00040	83 c6 10	 add	 esi, 16			; 00000010H
$LN33@Uninit_mov:

; 432  : 	_CATCH_ALL
; 433  : 	for (; _Next != _Dest; ++_Next)

  00043	3b 75 10	 cmp	 esi, DWORD PTR __Dest$[ebp]
  00046	75 f0		 jne	 SHORT $LL3@Uninit_mov

; 435  : 	_RERAISE;

  00048	6a 00		 push	 0
  0004a	6a 00		 push	 0
  0004c	e8 00 00 00 00	 call	 __CxxThrowException@8
$LN34@Uninit_mov:
$LN4@Uninit_mov:

; 436  : 	_CATCH_END
; 437  : 	return (_Dest);

  00051	8b 45 10	 mov	 eax, DWORD PTR __Dest$[ebp]

; 438  : 	}

  00054	e8 00 00 00 00	 call	 __EH_epilog3
  00059	c3		 ret	 0
$LN32@Uninit_mov:
_TEXT	ENDS
;	COMDAT text$x
text$x	SEGMENT
__ehhandler$??$_Uninit_move@PAVioHashString@@PAV1@V?$allocator@VioHashString@@@std@@V1@@std@@YAPAVioHashString@@PAV1@00AAV?$allocator@VioHashString@@@0@0U_Nonscalar_ptr_iterator_tag@0@@Z:
  00000	8b 54 24 08	 mov	 edx, DWORD PTR [esp+8]
  00004	8d 42 0c	 lea	 eax, DWORD PTR [edx+12]
  00007	8b 4a e8	 mov	 ecx, DWORD PTR [edx-24]
  0000a	33 c8		 xor	 ecx, eax
  0000c	e8 00 00 00 00	 call	 @__security_check_cookie@4
  00011	b8 00 00 00 00	 mov	 eax, OFFSET __ehfuncinfo$??$_Uninit_move@PAVioHashString@@PAV1@V?$allocator@VioHashString@@@std@@V1@@std@@YAPAVioHashString@@PAV1@00AAV?$allocator@VioHashString@@@0@0U_Nonscalar_ptr_iterator_tag@0@@Z
  00016	e9 00 00 00 00	 jmp	 ___CxxFrameHandler3
text$x	ENDS
??$_Uninit_move@PAVioHashString@@PAV1@V?$allocator@VioHashString@@@std@@V1@@std@@YAPAVioHashString@@PAV1@00AAV?$allocator@VioHashString@@@0@0U_Nonscalar_ptr_iterator_tag@0@@Z ENDP ; std::_Uninit_move<ioHashString *,ioHashString *,std::allocator<ioHashString>,ioHashString>
PUBLIC	??$_Uninit_move@PAUColorText@ioMission@@PAU12@V?$allocator@UColorText@ioMission@@@std@@U12@@std@@YAPAUColorText@ioMission@@PAU12@00AAV?$allocator@UColorText@ioMission@@@0@0U_Nonscalar_ptr_iterator_tag@0@@Z ; std::_Uninit_move<ioMission::ColorText *,ioMission::ColorText *,std::allocator<ioMission::ColorText>,ioMission::ColorText>
;	COMDAT xdata$x
; File d:\lost saga for developer\youtube\tutorial\source\src\lsclient\iomission.cpp
xdata$x	SEGMENT
__catchsym$??$_Uninit_move@PAUColorText@ioMission@@PAU12@V?$allocator@UColorText@ioMission@@@std@@U12@@std@@YAPAUColorText@ioMission@@PAU12@00AAV?$allocator@UColorText@ioMission@@@0@0U_Nonscalar_ptr_iterator_tag@0@@Z$3 DD 040H
	DD	00H
	DD	00H
	DD	FLAT:__catch$??$_Uninit_move@PAUColorText@ioMission@@PAU12@V?$allocator@UColorText@ioMission@@@std@@U12@@std@@YAPAUColorText@ioMission@@PAU12@00AAV?$allocator@UColorText@ioMission@@@0@0U_Nonscalar_ptr_iterator_tag@0@@Z$0
__unwindtable$??$_Uninit_move@PAUColorText@ioMission@@PAU12@V?$allocator@UColorText@ioMission@@@std@@U12@@std@@YAPAUColorText@ioMission@@PAU12@00AAV?$allocator@UColorText@ioMission@@@0@0U_Nonscalar_ptr_iterator_tag@0@@Z DD 0ffffffffH
	DD	00H
	DD	0ffffffffH
	DD	00H
__tryblocktable$??$_Uninit_move@PAUColorText@ioMission@@PAU12@V?$allocator@UColorText@ioMission@@@std@@U12@@std@@YAPAUColorText@ioMission@@PAU12@00AAV?$allocator@UColorText@ioMission@@@0@0U_Nonscalar_ptr_iterator_tag@0@@Z DD 00H
	DD	00H
	DD	01H
	DD	01H
	DD	FLAT:__catchsym$??$_Uninit_move@PAUColorText@ioMission@@PAU12@V?$allocator@UColorText@ioMission@@@std@@U12@@std@@YAPAUColorText@ioMission@@PAU12@00AAV?$allocator@UColorText@ioMission@@@0@0U_Nonscalar_ptr_iterator_tag@0@@Z$3
__ehfuncinfo$??$_Uninit_move@PAUColorText@ioMission@@PAU12@V?$allocator@UColorText@ioMission@@@std@@U12@@std@@YAPAUColorText@ioMission@@PAU12@00AAV?$allocator@UColorText@ioMission@@@0@0U_Nonscalar_ptr_iterator_tag@0@@Z DD 019930522H
	DD	02H
	DD	FLAT:__unwindtable$??$_Uninit_move@PAUColorText@ioMission@@PAU12@V?$allocator@UColorText@ioMission@@@std@@U12@@std@@YAPAUColorText@ioMission@@PAU12@00AAV?$allocator@UColorText@ioMission@@@0@0U_Nonscalar_ptr_iterator_tag@0@@Z
	DD	01H
	DD	FLAT:__tryblocktable$??$_Uninit_move@PAUColorText@ioMission@@PAU12@V?$allocator@UColorText@ioMission@@@std@@U12@@std@@YAPAUColorText@ioMission@@PAU12@00AAV?$allocator@UColorText@ioMission@@@0@0U_Nonscalar_ptr_iterator_tag@0@@Z
	DD	2 DUP(00H)
	DD	00H
	DD	01H
; Function compile flags: /Ogsp
; File c:\program files (x86)\microsoft visual studio 10.0\vc\include\memory
xdata$x	ENDS
;	COMDAT ??$_Uninit_move@PAUColorText@ioMission@@PAU12@V?$allocator@UColorText@ioMission@@@std@@U12@@std@@YAPAUColorText@ioMission@@PAU12@00AAV?$allocator@UColorText@ioMission@@@0@0U_Nonscalar_ptr_iterator_tag@0@@Z
_TEXT	SEGMENT
__Next$ = -20						; size = 4
__$EHRec$ = -16						; size = 16
__First$ = 8						; size = 4
__Last$ = 12						; size = 4
__Dest$ = 16						; size = 4
__Al$ = 20						; size = 4
___formal$ = 24						; size = 4
___formal$ = 28						; size = 1
??$_Uninit_move@PAUColorText@ioMission@@PAU12@V?$allocator@UColorText@ioMission@@@std@@U12@@std@@YAPAUColorText@ioMission@@PAU12@00AAV?$allocator@UColorText@ioMission@@@0@0U_Nonscalar_ptr_iterator_tag@0@@Z PROC ; std::_Uninit_move<ioMission::ColorText *,ioMission::ColorText *,std::allocator<ioMission::ColorText>,ioMission::ColorText>, COMDAT

; 424  : 	{	// move [_First, _Last) to raw _Dest, using _Al, arbitrary type

  00000	6a 08		 push	 8
  00002	b8 00 00 00 00	 mov	 eax, __ehhandler$??$_Uninit_move@PAUColorText@ioMission@@PAU12@V?$allocator@UColorText@ioMission@@@std@@U12@@std@@YAPAUColorText@ioMission@@PAU12@00AAV?$allocator@UColorText@ioMission@@@0@0U_Nonscalar_ptr_iterator_tag@0@@Z
  00007	e8 00 00 00 00	 call	 __EH_prolog3_catch

; 425  : 	_DEBUG_RANGE(_First, _Last);
; 426  : 	_DEBUG_POINTER(_Dest);
; 427  : 	_FwdIt _Next = _Dest;

  0000c	8b 45 10	 mov	 eax, DWORD PTR __Dest$[ebp]

; 428  : 
; 429  : 	_TRY_BEGIN

  0000f	83 65 fc 00	 and	 DWORD PTR __$EHRec$[ebp+12], 0
  00013	8b 75 08	 mov	 esi, DWORD PTR __First$[ebp]
  00016	89 45 ec	 mov	 DWORD PTR __Next$[ebp], eax
$LL6@Uninit_mov@2:

; 430  : 	for (; _First != _Last; ++_Dest, ++_First)

  00019	3b 75 0c	 cmp	 esi, DWORD PTR __Last$[ebp]
  0001c	74 34		 je	 SHORT $LN4@Uninit_mov@2

; 431  : 		_Cons_val(_Al, _Dest, (_Valty &&)*_First);

  0001e	8b 4d 14	 mov	 ecx, DWORD PTR __Al$[ebp]
  00021	56		 push	 esi
  00022	ff 75 10	 push	 DWORD PTR __Dest$[ebp]
  00025	e8 00 00 00 00	 call	 ?construct@?$allocator@UColorText@ioMission@@@std@@QAEXPAUColorText@ioMission@@$$QAU34@@Z ; std::allocator<ioMission::ColorText>::construct
  0002a	83 45 10 14	 add	 DWORD PTR __Dest$[ebp], 20 ; 00000014H
  0002e	83 c6 14	 add	 esi, 20			; 00000014H
  00031	eb e6		 jmp	 SHORT $LL6@Uninit_mov@2
__catch$??$_Uninit_move@PAUColorText@ioMission@@PAU12@V?$allocator@UColorText@ioMission@@@std@@U12@@std@@YAPAUColorText@ioMission@@PAU12@00AAV?$allocator@UColorText@ioMission@@@0@0U_Nonscalar_ptr_iterator_tag@0@@Z$0:

; 432  : 	_CATCH_ALL
; 433  : 	for (; _Next != _Dest; ++_Next)

  00033	8b 75 ec	 mov	 esi, DWORD PTR __Next$[ebp]
  00036	eb 0c		 jmp	 SHORT $LN36@Uninit_mov@2
$LL3@Uninit_mov@2:

; 434  : 		_Dest_val(_Al, _Next);

  00038	8d 4e 04	 lea	 ecx, DWORD PTR [esi+4]
  0003b	ff 15 00 00 00
	00		 call	 DWORD PTR __imp_??1ioHashString@@QAE@XZ
  00041	83 c6 14	 add	 esi, 20			; 00000014H
$LN36@Uninit_mov@2:

; 432  : 	_CATCH_ALL
; 433  : 	for (; _Next != _Dest; ++_Next)

  00044	3b 75 10	 cmp	 esi, DWORD PTR __Dest$[ebp]
  00047	75 ef		 jne	 SHORT $LL3@Uninit_mov@2

; 435  : 	_RERAISE;

  00049	6a 00		 push	 0
  0004b	6a 00		 push	 0
  0004d	e8 00 00 00 00	 call	 __CxxThrowException@8
$LN37@Uninit_mov@2:
$LN4@Uninit_mov@2:

; 436  : 	_CATCH_END
; 437  : 	return (_Dest);

  00052	8b 45 10	 mov	 eax, DWORD PTR __Dest$[ebp]

; 438  : 	}

  00055	e8 00 00 00 00	 call	 __EH_epilog3
  0005a	c3		 ret	 0
$LN35@Uninit_mov@2:
_TEXT	ENDS
;	COMDAT text$x
text$x	SEGMENT
__ehhandler$??$_Uninit_move@PAUColorText@ioMission@@PAU12@V?$allocator@UColorText@ioMission@@@std@@U12@@std@@YAPAUColorText@ioMission@@PAU12@00AAV?$allocator@UColorText@ioMission@@@0@0U_Nonscalar_ptr_iterator_tag@0@@Z:
  00000	8b 54 24 08	 mov	 edx, DWORD PTR [esp+8]
  00004	8d 42 0c	 lea	 eax, DWORD PTR [edx+12]
  00007	8b 4a e8	 mov	 ecx, DWORD PTR [edx-24]
  0000a	33 c8		 xor	 ecx, eax
  0000c	e8 00 00 00 00	 call	 @__security_check_cookie@4
  00011	b8 00 00 00 00	 mov	 eax, OFFSET __ehfuncinfo$??$_Uninit_move@PAUColorText@ioMission@@PAU12@V?$allocator@UColorText@ioMission@@@std@@U12@@std@@YAPAUColorText@ioMission@@PAU12@00AAV?$allocator@UColorText@ioMission@@@0@0U_Nonscalar_ptr_iterator_tag@0@@Z
  00016	e9 00 00 00 00	 jmp	 ___CxxFrameHandler3
text$x	ENDS
??$_Uninit_move@PAUColorText@ioMission@@PAU12@V?$allocator@UColorText@ioMission@@@std@@U12@@std@@YAPAUColorText@ioMission@@PAU12@00AAV?$allocator@UColorText@ioMission@@@0@0U_Nonscalar_ptr_iterator_tag@0@@Z ENDP ; std::_Uninit_move<ioMission::ColorText *,ioMission::ColorText *,std::allocator<ioMission::ColorText>,ioMission::ColorText>
PUBLIC	??$_Uninitialized_copy@V?$_Vector_const_iterator@V?$_Vector_val@UColorText@ioMission@@V?$allocator@UColorText@ioMission@@@std@@@std@@@std@@PAUColorText@ioMission@@V?$allocator@UColorText@ioMission@@@2@@std@@YAPAUColorText@ioMission@@V?$_Vector_const_iterator@V?$_Vector_val@UColorText@ioMission@@V?$allocator@UColorText@ioMission@@@std@@@std@@@0@0PAU12@AAV?$allocator@UColorText@ioMission@@@0@@Z ; std::_Uninitialized_copy<std::_Vector_const_iterator<std::_Vector_val<ioMission::ColorText,std::allocator<ioMission::ColorText> > >,ioMission::ColorText *,std::allocator<ioMission::ColorText> >
; Function compile flags: /Ogsp
;	COMDAT ??$_Uninitialized_copy@V?$_Vector_const_iterator@V?$_Vector_val@UColorText@ioMission@@V?$allocator@UColorText@ioMission@@@std@@@std@@@std@@PAUColorText@ioMission@@V?$allocator@UColorText@ioMission@@@2@@std@@YAPAUColorText@ioMission@@V?$_Vector_const_iterator@V?$_Vector_val@UColorText@ioMission@@V?$allocator@UColorText@ioMission@@@std@@@std@@@0@0PAU12@AAV?$allocator@UColorText@ioMission@@@0@@Z
_TEXT	SEGMENT
__Cat$513829 = -4					; size = 1
__First$ = 8						; size = 4
__Last$ = 12						; size = 4
__Dest$ = 16						; size = 4
__Al$ = 20						; size = 4
??$_Uninitialized_copy@V?$_Vector_const_iterator@V?$_Vector_val@UColorText@ioMission@@V?$allocator@UColorText@ioMission@@@std@@@std@@@std@@PAUColorText@ioMission@@V?$allocator@UColorText@ioMission@@@2@@std@@YAPAUColorText@ioMission@@V?$_Vector_const_iterator@V?$_Vector_val@UColorText@ioMission@@V?$allocator@UColorText@ioMission@@@std@@@std@@@0@0PAU12@AAV?$allocator@UColorText@ioMission@@@0@@Z PROC ; std::_Uninitialized_copy<std::_Vector_const_iterator<std::_Vector_val<ioMission::ColorText,std::allocator<ioMission::ColorText> > >,ioMission::ColorText *,std::allocator<ioMission::ColorText> >, COMDAT

; 412  : 	{	// copy [_First, _Last) to raw _Dest, using _Al

  00000	55		 push	 ebp
  00001	8b ec		 mov	 ebp, esp
  00003	51		 push	 ecx

; 413  : 	return (_Uninit_copy(_First, _Last, _Dest, _Al,
; 414  : 		_Ptr_cat(_First, _Dest)));

  00004	ff 75 fc	 push	 DWORD PTR __Cat$513829[ebp]
  00007	ff 75 14	 push	 DWORD PTR __Al$[ebp]
  0000a	ff 75 10	 push	 DWORD PTR __Dest$[ebp]
  0000d	ff 75 0c	 push	 DWORD PTR __Last$[ebp]
  00010	ff 75 08	 push	 DWORD PTR __First$[ebp]
  00013	e8 00 00 00 00	 call	 ??$_Uninit_copy@V?$_Vector_const_iterator@V?$_Vector_val@UColorText@ioMission@@V?$allocator@UColorText@ioMission@@@std@@@std@@@std@@PAUColorText@ioMission@@V?$allocator@UColorText@ioMission@@@2@@std@@YAPAUColorText@ioMission@@V?$_Vector_const_iterator@V?$_Vector_val@UColorText@ioMission@@V?$allocator@UColorText@ioMission@@@std@@@std@@@0@0PAU12@AAV?$allocator@UColorText@ioMission@@@0@U_Nonscalar_ptr_iterator_tag@0@@Z ; std::_Uninit_copy<std::_Vector_const_iterator<std::_Vector_val<ioMission::ColorText,std::allocator<ioMission::ColorText> > >,ioMission::ColorText *,std::allocator<ioMission::ColorText> >
  00018	83 c4 14	 add	 esp, 20			; 00000014H

; 415  : 	}

  0001b	c9		 leave
  0001c	c3		 ret	 0
??$_Uninitialized_copy@V?$_Vector_const_iterator@V?$_Vector_val@UColorText@ioMission@@V?$allocator@UColorText@ioMission@@@std@@@std@@@std@@PAUColorText@ioMission@@V?$allocator@UColorText@ioMission@@@2@@std@@YAPAUColorText@ioMission@@V?$_Vector_const_iterator@V?$_Vector_val@UColorText@ioMission@@V?$allocator@UColorText@ioMission@@@std@@@std@@@0@0PAU12@AAV?$allocator@UColorText@ioMission@@@0@@Z ENDP ; std::_Uninitialized_copy<std::_Vector_const_iterator<std::_Vector_val<ioMission::ColorText,std::allocator<ioMission::ColorText> > >,ioMission::ColorText *,std::allocator<ioMission::ColorText> >
_TEXT	ENDS
PUBLIC	?assign@?$basic_string@DU?$char_traits@D@std@@V?$allocator@D@2@@std@@QAEAAV12@ABV12@II@Z ; std::basic_string<char,std::char_traits<char>,std::allocator<char> >::assign
; Function compile flags: /Ogsp
; File c:\program files (x86)\microsoft visual studio 10.0\vc\include\xstring
;	COMDAT ?assign@?$basic_string@DU?$char_traits@D@std@@V?$allocator@D@2@@std@@QAEAAV12@ABV12@II@Z
_TEXT	SEGMENT
__Right$ = 8						; size = 4
__Roff$ = 12						; size = 4
__Count$ = 16						; size = 4
?assign@?$basic_string@DU?$char_traits@D@std@@V?$allocator@D@2@@std@@QAEAAV12@ABV12@II@Z PROC ; std::basic_string<char,std::char_traits<char>,std::allocator<char> >::assign, COMDAT
; _this$ = ecx

; 893  : 		{	// assign _Right [_Roff, _Roff + _Count)

  00000	55		 push	 ebp
  00001	8b ec		 mov	 ebp, esp
  00003	53		 push	 ebx

; 894  : 		if (_Right.size() < _Roff)

  00004	8b 5d 08	 mov	 ebx, DWORD PTR __Right$[ebp]
  00007	8b 43 10	 mov	 eax, DWORD PTR [ebx+16]
  0000a	56		 push	 esi
  0000b	8b f1		 mov	 esi, ecx
  0000d	8b 4d 0c	 mov	 ecx, DWORD PTR __Roff$[ebp]
  00010	57		 push	 edi
  00011	3b c1		 cmp	 eax, ecx
  00013	73 0b		 jae	 SHORT $LN5@assign

; 895  : 			_Xran();	// _Roff off end

  00015	68 00 00 00 00	 push	 OFFSET ??_C@_0BI@CFPLBAOH@invalid?5string?5position?$AA@
  0001a	ff 15 00 00 00
	00		 call	 DWORD PTR __imp_?_Xout_of_range@std@@YAXPBD@Z
$LN34@assign:
$LN5@assign:

; 896  : 		size_type _Num = _Right.size() - _Roff;

  00020	2b c1		 sub	 eax, ecx
  00022	8b f8		 mov	 edi, eax

; 897  : 		if (_Count < _Num)

  00024	39 7d 10	 cmp	 DWORD PTR __Count$[ebp], edi

; 898  : 			_Num = _Count;	// trim _Num to size

  00027	0f 42 7d 10	 cmovb	 edi, DWORD PTR __Count$[ebp]

; 899  : 
; 900  : 		if (this == &_Right)

  0002b	3b f3		 cmp	 esi, ebx
  0002d	75 1a		 jne	 SHORT $LN3@assign

; 901  : 			erase((size_type)(_Roff + _Num)), erase(0, _Roff);	// substring

  0002f	03 f9		 add	 edi, ecx
  00031	6a ff		 push	 -1
  00033	57		 push	 edi
  00034	8b ce		 mov	 ecx, esi
  00036	e8 00 00 00 00	 call	 ?erase@?$basic_string@DU?$char_traits@D@std@@V?$allocator@D@2@@std@@QAEAAV12@II@Z ; std::basic_string<char,std::char_traits<char>,std::allocator<char> >::erase
  0003b	ff 75 0c	 push	 DWORD PTR __Roff$[ebp]
  0003e	8b ce		 mov	 ecx, esi
  00040	6a 00		 push	 0
  00042	e8 00 00 00 00	 call	 ?erase@?$basic_string@DU?$char_traits@D@std@@V?$allocator@D@2@@std@@QAEAAV12@II@Z ; std::basic_string<char,std::char_traits<char>,std::allocator<char> >::erase
  00047	eb 47		 jmp	 SHORT $LN31@assign
$LN3@assign:

; 902  : 		else if (_Grow(_Num))

  00049	6a 00		 push	 0
  0004b	57		 push	 edi
  0004c	8b ce		 mov	 ecx, esi
  0004e	e8 00 00 00 00	 call	 ?_Grow@?$basic_string@DU?$char_traits@D@std@@V?$allocator@D@2@@std@@QAE_NI_N@Z ; std::basic_string<char,std::char_traits<char>,std::allocator<char> >::_Grow
  00053	84 c0		 test	 al, al
  00055	74 39		 je	 SHORT $LN31@assign

; 903  : 			{	// make room and assign new stuff
; 904  : 			_Traits::copy(_Myptr(), _Right._Myptr() + _Roff, _Num);

  00057	83 7b 14 10	 cmp	 DWORD PTR [ebx+20], 16	; 00000010H
  0005b	72 04		 jb	 SHORT $LN17@assign
  0005d	8b 03		 mov	 eax, DWORD PTR [ebx]
  0005f	eb 02		 jmp	 SHORT $LN18@assign
$LN17@assign:
  00061	8b c3		 mov	 eax, ebx
$LN18@assign:
  00063	83 7e 14 10	 cmp	 DWORD PTR [esi+20], 16	; 00000010H
  00067	72 04		 jb	 SHORT $LN21@assign
  00069	8b 0e		 mov	 ecx, DWORD PTR [esi]
  0006b	eb 02		 jmp	 SHORT $LN22@assign
$LN21@assign:
  0006d	8b ce		 mov	 ecx, esi
$LN22@assign:
  0006f	03 45 0c	 add	 eax, DWORD PTR __Roff$[ebp]
  00072	57		 push	 edi
  00073	50		 push	 eax
  00074	51		 push	 ecx
  00075	e8 00 00 00 00	 call	 _memcpy
  0007a	83 c4 0c	 add	 esp, 12			; 0000000cH

; 905  : 			_Eos(_Num);

  0007d	83 7e 14 10	 cmp	 DWORD PTR [esi+20], 16	; 00000010H
  00081	89 7e 10	 mov	 DWORD PTR [esi+16], edi
  00084	72 04		 jb	 SHORT $LN29@assign
  00086	8b 06		 mov	 eax, DWORD PTR [esi]
  00088	eb 02		 jmp	 SHORT $LN30@assign
$LN29@assign:
  0008a	8b c6		 mov	 eax, esi
$LN30@assign:
  0008c	c6 04 38 00	 mov	 BYTE PTR [eax+edi], 0
$LN31@assign:

; 906  : 			}
; 907  : 		return (*this);

  00090	5f		 pop	 edi
  00091	8b c6		 mov	 eax, esi
  00093	5e		 pop	 esi
  00094	5b		 pop	 ebx

; 908  : 		}

  00095	5d		 pop	 ebp
  00096	c2 0c 00	 ret	 12			; 0000000cH
$LN33@assign:
?assign@?$basic_string@DU?$char_traits@D@std@@V?$allocator@D@2@@std@@QAEAAV12@ABV12@II@Z ENDP ; std::basic_string<char,std::char_traits<char>,std::allocator<char> >::assign
_TEXT	ENDS
PUBLIC	?assign@?$basic_string@DU?$char_traits@D@std@@V?$allocator@D@2@@std@@QAEAAV12@PBDI@Z ; std::basic_string<char,std::char_traits<char>,std::allocator<char> >::assign
; Function compile flags: /Ogsp
;	COMDAT ?assign@?$basic_string@DU?$char_traits@D@std@@V?$allocator@D@2@@std@@QAEAAV12@PBDI@Z
_TEXT	SEGMENT
__Ptr$ = 8						; size = 4
__Count$ = 12						; size = 4
?assign@?$basic_string@DU?$char_traits@D@std@@V?$allocator@D@2@@std@@QAEAAV12@PBDI@Z PROC ; std::basic_string<char,std::char_traits<char>,std::allocator<char> >::assign, COMDAT
; _this$ = ecx

; 911  : 		{	// assign [_Ptr, _Ptr + _Count)

  00000	55		 push	 ebp
  00001	8b ec		 mov	 ebp, esp
  00003	53		 push	 ebx

; 912  :  #if _ITERATOR_DEBUG_LEVEL == 2
; 913  : 		if (_Count != 0)
; 914  : 			_DEBUG_POINTER(_Ptr);
; 915  :  #endif /* _ITERATOR_DEBUG_LEVEL == 2 */
; 916  : 
; 917  : 		if (_Inside(_Ptr))

  00004	8b 5d 08	 mov	 ebx, DWORD PTR __Ptr$[ebp]
  00007	56		 push	 esi
  00008	53		 push	 ebx
  00009	8b f1		 mov	 esi, ecx
  0000b	e8 00 00 00 00	 call	 ?_Inside@?$basic_string@DU?$char_traits@D@std@@V?$allocator@D@2@@std@@QAE_NPBD@Z ; std::basic_string<char,std::char_traits<char>,std::allocator<char> >::_Inside
  00010	84 c0		 test	 al, al
  00012	74 1c		 je	 SHORT $LN2@assign@2

; 918  : 			return (assign(*this, _Ptr - _Myptr(), _Count));	// substring

  00014	83 7e 14 10	 cmp	 DWORD PTR [esi+20], 16	; 00000010H
  00018	72 04		 jb	 SHORT $LN7@assign@2
  0001a	8b 06		 mov	 eax, DWORD PTR [esi]
  0001c	eb 02		 jmp	 SHORT $LN8@assign@2
$LN7@assign@2:
  0001e	8b c6		 mov	 eax, esi
$LN8@assign@2:
  00020	ff 75 0c	 push	 DWORD PTR __Count$[ebp]
  00023	2b d8		 sub	 ebx, eax
  00025	53		 push	 ebx
  00026	56		 push	 esi
  00027	8b ce		 mov	 ecx, esi
  00029	e8 00 00 00 00	 call	 ?assign@?$basic_string@DU?$char_traits@D@std@@V?$allocator@D@2@@std@@QAEAAV12@ABV12@II@Z ; std::basic_string<char,std::char_traits<char>,std::allocator<char> >::assign
  0002e	eb 3f		 jmp	 SHORT $LN3@assign@2
$LN2@assign@2:
  00030	57		 push	 edi

; 919  : 
; 920  : 		if (_Grow(_Count))

  00031	8b 7d 0c	 mov	 edi, DWORD PTR __Count$[ebp]
  00034	6a 00		 push	 0
  00036	57		 push	 edi
  00037	8b ce		 mov	 ecx, esi
  00039	e8 00 00 00 00	 call	 ?_Grow@?$basic_string@DU?$char_traits@D@std@@V?$allocator@D@2@@std@@QAE_NI_N@Z ; std::basic_string<char,std::char_traits<char>,std::allocator<char> >::_Grow
  0003e	84 c0		 test	 al, al
  00040	74 2a		 je	 SHORT $LN21@assign@2

; 921  : 			{	// make room and assign new stuff
; 922  : 			_Traits::copy(_Myptr(), _Ptr, _Count);

  00042	83 7e 14 10	 cmp	 DWORD PTR [esi+20], 16	; 00000010H
  00046	72 04		 jb	 SHORT $LN11@assign@2
  00048	8b 06		 mov	 eax, DWORD PTR [esi]
  0004a	eb 02		 jmp	 SHORT $LN12@assign@2
$LN11@assign@2:
  0004c	8b c6		 mov	 eax, esi
$LN12@assign@2:
  0004e	57		 push	 edi
  0004f	53		 push	 ebx
  00050	50		 push	 eax
  00051	e8 00 00 00 00	 call	 _memcpy
  00056	83 c4 0c	 add	 esp, 12			; 0000000cH

; 923  : 			_Eos(_Count);

  00059	83 7e 14 10	 cmp	 DWORD PTR [esi+20], 16	; 00000010H
  0005d	89 7e 10	 mov	 DWORD PTR [esi+16], edi
  00060	72 04		 jb	 SHORT $LN19@assign@2
  00062	8b 06		 mov	 eax, DWORD PTR [esi]
  00064	eb 02		 jmp	 SHORT $LN20@assign@2
$LN19@assign@2:
  00066	8b c6		 mov	 eax, esi
$LN20@assign@2:
  00068	c6 04 38 00	 mov	 BYTE PTR [eax+edi], 0
$LN21@assign@2:

; 924  : 			}
; 925  : 		return (*this);

  0006c	8b c6		 mov	 eax, esi
  0006e	5f		 pop	 edi
$LN3@assign@2:
  0006f	5e		 pop	 esi
  00070	5b		 pop	 ebx

; 926  : 		}

  00071	5d		 pop	 ebp
  00072	c2 08 00	 ret	 8
?assign@?$basic_string@DU?$char_traits@D@std@@V?$allocator@D@2@@std@@QAEAAV12@PBDI@Z ENDP ; std::basic_string<char,std::char_traits<char>,std::allocator<char> >::assign
_TEXT	ENDS
PUBLIC	??$_Destroy_range@V?$allocator@VioHashString@@@std@@@std@@YAXPAVioHashString@@0AAV?$allocator@VioHashString@@@0@U_Nonscalar_ptr_iterator_tag@0@@Z ; std::_Destroy_range<std::allocator<ioHashString> >
; Function compile flags: /Ogsp
; File c:\program files (x86)\microsoft visual studio 10.0\vc\include\xmemory
;	COMDAT ??$_Destroy_range@V?$allocator@VioHashString@@@std@@@std@@YAXPAVioHashString@@0AAV?$allocator@VioHashString@@@0@U_Nonscalar_ptr_iterator_tag@0@@Z
_TEXT	SEGMENT
__First$ = 8						; size = 4
__Last$ = 12						; size = 4
__Al$ = 16						; size = 4
___formal$ = 20						; size = 1
??$_Destroy_range@V?$allocator@VioHashString@@@std@@@std@@YAXPAVioHashString@@0AAV?$allocator@VioHashString@@@0@U_Nonscalar_ptr_iterator_tag@0@@Z PROC ; std::_Destroy_range<std::allocator<ioHashString> >, COMDAT

; 95   : 	{	// destroy [_First, _Last), arbitrary type

  00000	55		 push	 ebp
  00001	8b ec		 mov	 ebp, esp
  00003	56		 push	 esi

; 96   : 	for (; _First != _Last; ++_First)

  00004	8b 75 08	 mov	 esi, DWORD PTR __First$[ebp]
  00007	eb 0b		 jmp	 SHORT $LN17@Destroy_ra@2
$LL3@Destroy_ra@2:

; 97   : 		_Dest_val(_Al, _First);

  00009	8b ce		 mov	 ecx, esi
  0000b	ff 15 00 00 00
	00		 call	 DWORD PTR __imp_??1ioHashString@@QAE@XZ
  00011	83 c6 10	 add	 esi, 16			; 00000010H
$LN17@Destroy_ra@2:

; 96   : 	for (; _First != _Last; ++_First)

  00014	3b 75 0c	 cmp	 esi, DWORD PTR __Last$[ebp]
  00017	75 f0		 jne	 SHORT $LL3@Destroy_ra@2
  00019	5e		 pop	 esi

; 98   : 	}

  0001a	5d		 pop	 ebp
  0001b	c3		 ret	 0
??$_Destroy_range@V?$allocator@VioHashString@@@std@@@std@@YAXPAVioHashString@@0AAV?$allocator@VioHashString@@@0@U_Nonscalar_ptr_iterator_tag@0@@Z ENDP ; std::_Destroy_range<std::allocator<ioHashString> >
_TEXT	ENDS
PUBLIC	??$_Uninit_copy@V?$_Vector_const_iterator@V?$_Vector_val@VioHashString@@V?$allocator@VioHashString@@@std@@@std@@@std@@PAVioHashString@@V?$allocator@VioHashString@@@2@@std@@YAPAVioHashString@@V?$_Vector_const_iterator@V?$_Vector_val@VioHashString@@V?$allocator@VioHashString@@@std@@@std@@@0@0PAV1@AAV?$allocator@VioHashString@@@0@U_Nonscalar_ptr_iterator_tag@0@@Z ; std::_Uninit_copy<std::_Vector_const_iterator<std::_Vector_val<ioHashString,std::allocator<ioHashString> > >,ioHashString *,std::allocator<ioHashString> >
;	COMDAT xdata$x
; File c:\program files (x86)\microsoft visual studio 10.0\vc\include\vector
xdata$x	SEGMENT
__catchsym$??$_Uninit_copy@V?$_Vector_const_iterator@V?$_Vector_val@VioHashString@@V?$allocator@VioHashString@@@std@@@std@@@std@@PAVioHashString@@V?$allocator@VioHashString@@@2@@std@@YAPAVioHashString@@V?$_Vector_const_iterator@V?$_Vector_val@VioHashString@@V?$allocator@VioHashString@@@std@@@std@@@0@0PAV1@AAV?$allocator@VioHashString@@@0@U_Nonscalar_ptr_iterator_tag@0@@Z$2 DD 040H
	DD	00H
	DD	00H
	DD	FLAT:__catch$??$_Uninit_copy@V?$_Vector_const_iterator@V?$_Vector_val@VioHashString@@V?$allocator@VioHashString@@@std@@@std@@@std@@PAVioHashString@@V?$allocator@VioHashString@@@2@@std@@YAPAVioHashString@@V?$_Vector_const_iterator@V?$_Vector_val@VioHashString@@V?$allocator@VioHashString@@@std@@@std@@@0@0PAV1@AAV?$allocator@VioHashString@@@0@U_Nonscalar_ptr_iterator_tag@0@@Z$0
__unwindtable$??$_Uninit_copy@V?$_Vector_const_iterator@V?$_Vector_val@VioHashString@@V?$allocator@VioHashString@@@std@@@std@@@std@@PAVioHashString@@V?$allocator@VioHashString@@@2@@std@@YAPAVioHashString@@V?$_Vector_const_iterator@V?$_Vector_val@VioHashString@@V?$allocator@VioHashString@@@std@@@std@@@0@0PAV1@AAV?$allocator@VioHashString@@@0@U_Nonscalar_ptr_iterator_tag@0@@Z DD 0ffffffffH
	DD	00H
	DD	0ffffffffH
	DD	00H
__tryblocktable$??$_Uninit_copy@V?$_Vector_const_iterator@V?$_Vector_val@VioHashString@@V?$allocator@VioHashString@@@std@@@std@@@std@@PAVioHashString@@V?$allocator@VioHashString@@@2@@std@@YAPAVioHashString@@V?$_Vector_const_iterator@V?$_Vector_val@VioHashString@@V?$allocator@VioHashString@@@std@@@std@@@0@0PAV1@AAV?$allocator@VioHashString@@@0@U_Nonscalar_ptr_iterator_tag@0@@Z DD 00H
	DD	00H
	DD	01H
	DD	01H
	DD	FLAT:__catchsym$??$_Uninit_copy@V?$_Vector_const_iterator@V?$_Vector_val@VioHashString@@V?$allocator@VioHashString@@@std@@@std@@@std@@PAVioHashString@@V?$allocator@VioHashString@@@2@@std@@YAPAVioHashString@@V?$_Vector_const_iterator@V?$_Vector_val@VioHashString@@V?$allocator@VioHashString@@@std@@@std@@@0@0PAV1@AAV?$allocator@VioHashString@@@0@U_Nonscalar_ptr_iterator_tag@0@@Z$2
__ehfuncinfo$??$_Uninit_copy@V?$_Vector_const_iterator@V?$_Vector_val@VioHashString@@V?$allocator@VioHashString@@@std@@@std@@@std@@PAVioHashString@@V?$allocator@VioHashString@@@2@@std@@YAPAVioHashString@@V?$_Vector_const_iterator@V?$_Vector_val@VioHashString@@V?$allocator@VioHashString@@@std@@@std@@@0@0PAV1@AAV?$allocator@VioHashString@@@0@U_Nonscalar_ptr_iterator_tag@0@@Z DD 019930522H
	DD	02H
	DD	FLAT:__unwindtable$??$_Uninit_copy@V?$_Vector_const_iterator@V?$_Vector_val@VioHashString@@V?$allocator@VioHashString@@@std@@@std@@@std@@PAVioHashString@@V?$allocator@VioHashString@@@2@@std@@YAPAVioHashString@@V?$_Vector_const_iterator@V?$_Vector_val@VioHashString@@V?$allocator@VioHashString@@@std@@@std@@@0@0PAV1@AAV?$allocator@VioHashString@@@0@U_Nonscalar_ptr_iterator_tag@0@@Z
	DD	01H
	DD	FLAT:__tryblocktable$??$_Uninit_copy@V?$_Vector_const_iterator@V?$_Vector_val@VioHashString@@V?$allocator@VioHashString@@@std@@@std@@@std@@PAVioHashString@@V?$allocator@VioHashString@@@2@@std@@YAPAVioHashString@@V?$_Vector_const_iterator@V?$_Vector_val@VioHashString@@V?$allocator@VioHashString@@@std@@@std@@@0@0PAV1@AAV?$allocator@VioHashString@@@0@U_Nonscalar_ptr_iterator_tag@0@@Z
	DD	2 DUP(00H)
	DD	00H
	DD	01H
; Function compile flags: /Ogsp
; File c:\program files (x86)\microsoft visual studio 10.0\vc\include\memory
xdata$x	ENDS
;	COMDAT ??$_Uninit_copy@V?$_Vector_const_iterator@V?$_Vector_val@VioHashString@@V?$allocator@VioHashString@@@std@@@std@@@std@@PAVioHashString@@V?$allocator@VioHashString@@@2@@std@@YAPAVioHashString@@V?$_Vector_const_iterator@V?$_Vector_val@VioHashString@@V?$allocator@VioHashString@@@std@@@std@@@0@0PAV1@AAV?$allocator@VioHashString@@@0@U_Nonscalar_ptr_iterator_tag@0@@Z
_TEXT	SEGMENT
__Next$ = -20						; size = 4
__$EHRec$ = -16						; size = 16
__First$ = 8						; size = 4
__Last$ = 12						; size = 4
__Dest$ = 16						; size = 4
__Al$ = 20						; size = 4
___formal$ = 24						; size = 1
??$_Uninit_copy@V?$_Vector_const_iterator@V?$_Vector_val@VioHashString@@V?$allocator@VioHashString@@@std@@@std@@@std@@PAVioHashString@@V?$allocator@VioHashString@@@2@@std@@YAPAVioHashString@@V?$_Vector_const_iterator@V?$_Vector_val@VioHashString@@V?$allocator@VioHashString@@@std@@@std@@@0@0PAV1@AAV?$allocator@VioHashString@@@0@U_Nonscalar_ptr_iterator_tag@0@@Z PROC ; std::_Uninit_copy<std::_Vector_const_iterator<std::_Vector_val<ioHashString,std::allocator<ioHashString> > >,ioHashString *,std::allocator<ioHashString> >, COMDAT

; 369  : 	{	// copy [_First, _Last) to raw _Dest, using _Al, arbitrary type

  00000	6a 08		 push	 8
  00002	b8 00 00 00 00	 mov	 eax, __ehhandler$??$_Uninit_copy@V?$_Vector_const_iterator@V?$_Vector_val@VioHashString@@V?$allocator@VioHashString@@@std@@@std@@@std@@PAVioHashString@@V?$allocator@VioHashString@@@2@@std@@YAPAVioHashString@@V?$_Vector_const_iterator@V?$_Vector_val@VioHashString@@V?$allocator@VioHashString@@@std@@@std@@@0@0PAV1@AAV?$allocator@VioHashString@@@0@U_Nonscalar_ptr_iterator_tag@0@@Z
  00007	e8 00 00 00 00	 call	 __EH_prolog3_catch

; 370  : 	_DEBUG_RANGE(_First, _Last);
; 371  : 	_DEBUG_POINTER(_Dest);
; 372  : 	_FwdIt _Next = _Dest;

  0000c	8b 45 10	 mov	 eax, DWORD PTR __Dest$[ebp]

; 373  : 
; 374  : 	_TRY_BEGIN

  0000f	83 65 fc 00	 and	 DWORD PTR __$EHRec$[ebp+12], 0
  00013	89 45 ec	 mov	 DWORD PTR __Next$[ebp], eax

; 375  : 	for (; _First != _Last; ++_Dest, ++_First)

$LL14@Uninit_cop@2:
  00016	8b 45 08	 mov	 eax, DWORD PTR __First$[ebp]
  00019	3b 45 0c	 cmp	 eax, DWORD PTR __Last$[ebp]
  0001c	74 33		 je	 SHORT $LN4@Uninit_cop@2

; 376  : 		_Cons_val(_Al, _Dest, *_First);

  0001e	50		 push	 eax
  0001f	ff 75 10	 push	 DWORD PTR __Dest$[ebp]
  00022	e8 00 00 00 00	 call	 ??$_Construct@VioHashString@@ABV1@@std@@YAXPAVioHashString@@ABV1@@Z ; std::_Construct<ioHashString,ioHashString const &>
  00027	83 45 10 10	 add	 DWORD PTR __Dest$[ebp], 16 ; 00000010H
  0002b	83 45 08 10	 add	 DWORD PTR __First$[ebp], 16 ; 00000010H
  0002f	59		 pop	 ecx
  00030	59		 pop	 ecx
  00031	eb e3		 jmp	 SHORT $LL14@Uninit_cop@2
__catch$??$_Uninit_copy@V?$_Vector_const_iterator@V?$_Vector_val@VioHashString@@V?$allocator@VioHashString@@@std@@@std@@@std@@PAVioHashString@@V?$allocator@VioHashString@@@2@@std@@YAPAVioHashString@@V?$_Vector_const_iterator@V?$_Vector_val@VioHashString@@V?$allocator@VioHashString@@@std@@@std@@@0@0PAV1@AAV?$allocator@VioHashString@@@0@U_Nonscalar_ptr_iterator_tag@0@@Z$0:

; 377  : 	_CATCH_ALL
; 378  : 	for (; _Next != _Dest; ++_Next)

  00033	8b 75 ec	 mov	 esi, DWORD PTR __Next$[ebp]
  00036	eb 0b		 jmp	 SHORT $LN45@Uninit_cop@2
$LL3@Uninit_cop@2:

; 379  : 		_Dest_val(_Al, _Next);

  00038	8b ce		 mov	 ecx, esi
  0003a	ff 15 00 00 00
	00		 call	 DWORD PTR __imp_??1ioHashString@@QAE@XZ
  00040	83 c6 10	 add	 esi, 16			; 00000010H
$LN45@Uninit_cop@2:

; 377  : 	_CATCH_ALL
; 378  : 	for (; _Next != _Dest; ++_Next)

  00043	3b 75 10	 cmp	 esi, DWORD PTR __Dest$[ebp]
  00046	75 f0		 jne	 SHORT $LL3@Uninit_cop@2

; 380  : 	_RERAISE;

  00048	6a 00		 push	 0
  0004a	6a 00		 push	 0
  0004c	e8 00 00 00 00	 call	 __CxxThrowException@8
$LN46@Uninit_cop@2:
$LN4@Uninit_cop@2:

; 381  : 	_CATCH_END
; 382  : 	return (_Dest);

  00051	8b 45 10	 mov	 eax, DWORD PTR __Dest$[ebp]

; 383  : 	}

  00054	e8 00 00 00 00	 call	 __EH_epilog3
  00059	c3		 ret	 0
$LN44@Uninit_cop@2:
_TEXT	ENDS
;	COMDAT text$x
text$x	SEGMENT
__ehhandler$??$_Uninit_copy@V?$_Vector_const_iterator@V?$_Vector_val@VioHashString@@V?$allocator@VioHashString@@@std@@@std@@@std@@PAVioHashString@@V?$allocator@VioHashString@@@2@@std@@YAPAVioHashString@@V?$_Vector_const_iterator@V?$_Vector_val@VioHashString@@V?$allocator@VioHashString@@@std@@@std@@@0@0PAV1@AAV?$allocator@VioHashString@@@0@U_Nonscalar_ptr_iterator_tag@0@@Z:
  00000	8b 54 24 08	 mov	 edx, DWORD PTR [esp+8]
  00004	8d 42 0c	 lea	 eax, DWORD PTR [edx+12]
  00007	8b 4a e8	 mov	 ecx, DWORD PTR [edx-24]
  0000a	33 c8		 xor	 ecx, eax
  0000c	e8 00 00 00 00	 call	 @__security_check_cookie@4
  00011	b8 00 00 00 00	 mov	 eax, OFFSET __ehfuncinfo$??$_Uninit_copy@V?$_Vector_const_iterator@V?$_Vector_val@VioHashString@@V?$allocator@VioHashString@@@std@@@std@@@std@@PAVioHashString@@V?$allocator@VioHashString@@@2@@std@@YAPAVioHashString@@V?$_Vector_const_iterator@V?$_Vector_val@VioHashString@@V?$allocator@VioHashString@@@std@@@std@@@0@0PAV1@AAV?$allocator@VioHashString@@@0@U_Nonscalar_ptr_iterator_tag@0@@Z
  00016	e9 00 00 00 00	 jmp	 ___CxxFrameHandler3
text$x	ENDS
??$_Uninit_copy@V?$_Vector_const_iterator@V?$_Vector_val@VioHashString@@V?$allocator@VioHashString@@@std@@@std@@@std@@PAVioHashString@@V?$allocator@VioHashString@@@2@@std@@YAPAVioHashString@@V?$_Vector_const_iterator@V?$_Vector_val@VioHashString@@V?$allocator@VioHashString@@@std@@@std@@@0@0PAV1@AAV?$allocator@VioHashString@@@0@U_Nonscalar_ptr_iterator_tag@0@@Z ENDP ; std::_Uninit_copy<std::_Vector_const_iterator<std::_Vector_val<ioHashString,std::allocator<ioHashString> > >,ioHashString *,std::allocator<ioHashString> >
PUBLIC	??$_Destroy@V?$basic_string@DU?$char_traits@D@std@@V?$allocator@D@2@@std@@@std@@YAXPAV?$basic_string@DU?$char_traits@D@std@@V?$allocator@D@2@@0@@Z ; std::_Destroy<std::basic_string<char,std::char_traits<char>,std::allocator<char> > >
; Function compile flags: /Ogsp
; File c:\program files (x86)\microsoft visual studio 10.0\vc\include\xmemory
;	COMDAT ??$_Destroy@V?$basic_string@DU?$char_traits@D@std@@V?$allocator@D@2@@std@@@std@@YAXPAV?$basic_string@DU?$char_traits@D@std@@V?$allocator@D@2@@0@@Z
_TEXT	SEGMENT
__Ptr$ = 8						; size = 4
??$_Destroy@V?$basic_string@DU?$char_traits@D@std@@V?$allocator@D@2@@std@@@std@@YAXPAV?$basic_string@DU?$char_traits@D@std@@V?$allocator@D@2@@0@@Z PROC ; std::_Destroy<std::basic_string<char,std::char_traits<char>,std::allocator<char> > >, COMDAT

; 62   : 	{	// destroy object at _Ptr

  00000	55		 push	 ebp
  00001	8b ec		 mov	 ebp, esp

; 63   : 	_Ptr->~_Ty();

  00003	8b 4d 08	 mov	 ecx, DWORD PTR __Ptr$[ebp]
  00006	6a 00		 push	 0
  00008	6a 01		 push	 1
  0000a	e8 00 00 00 00	 call	 ?_Tidy@?$basic_string@DU?$char_traits@D@std@@V?$allocator@D@2@@std@@QAEX_NI@Z ; std::basic_string<char,std::char_traits<char>,std::allocator<char> >::_Tidy

; 64   : 	}

  0000f	5d		 pop	 ebp
  00010	c3		 ret	 0
??$_Destroy@V?$basic_string@DU?$char_traits@D@std@@V?$allocator@D@2@@std@@@std@@YAXPAV?$basic_string@DU?$char_traits@D@std@@V?$allocator@D@2@@0@@Z ENDP ; std::_Destroy<std::basic_string<char,std::char_traits<char>,std::allocator<char> > >
_TEXT	ENDS
PUBLIC	??$_Destroy_range@V?$allocator@UColorText@ioMission@@@std@@@std@@YAXPAUColorText@ioMission@@0AAV?$allocator@UColorText@ioMission@@@0@@Z ; std::_Destroy_range<std::allocator<ioMission::ColorText> >
; Function compile flags: /Ogsp
;	COMDAT ??$_Destroy_range@V?$allocator@UColorText@ioMission@@@std@@@std@@YAXPAUColorText@ioMission@@0AAV?$allocator@UColorText@ioMission@@@0@@Z
_TEXT	SEGMENT
__First$ = 8						; size = 4
__Last$ = 12						; size = 4
__Al$ = 16						; size = 4
??$_Destroy_range@V?$allocator@UColorText@ioMission@@@std@@@std@@YAXPAUColorText@ioMission@@0AAV?$allocator@UColorText@ioMission@@@0@@Z PROC ; std::_Destroy_range<std::allocator<ioMission::ColorText> >, COMDAT

; 87   : 	{	// destroy [_First, _Last)

  00000	55		 push	 ebp
  00001	8b ec		 mov	 ebp, esp
  00003	56		 push	 esi

; 88   : 	_Destroy_range(_First, _Last, _Al, _Ptr_cat(_First, _Last));

  00004	8b 75 08	 mov	 esi, DWORD PTR __First$[ebp]
  00007	eb 0c		 jmp	 SHORT $LN24@Destroy_ra@3
$LL7@Destroy_ra@3:
  00009	8d 4e 04	 lea	 ecx, DWORD PTR [esi+4]
  0000c	ff 15 00 00 00
	00		 call	 DWORD PTR __imp_??1ioHashString@@QAE@XZ
  00012	83 c6 14	 add	 esi, 20			; 00000014H
$LN24@Destroy_ra@3:
  00015	3b 75 0c	 cmp	 esi, DWORD PTR __Last$[ebp]
  00018	75 ef		 jne	 SHORT $LL7@Destroy_ra@3
  0001a	5e		 pop	 esi

; 89   : 	}

  0001b	5d		 pop	 ebp
  0001c	c3		 ret	 0
??$_Destroy_range@V?$allocator@UColorText@ioMission@@@std@@@std@@YAXPAUColorText@ioMission@@0AAV?$allocator@UColorText@ioMission@@@0@@Z ENDP ; std::_Destroy_range<std::allocator<ioMission::ColorText> >
_TEXT	ENDS
PUBLIC	??$_Uninitialized_move@PAVioHashString@@PAV1@V?$allocator@VioHashString@@@std@@@std@@YAPAVioHashString@@PAV1@00AAV?$allocator@VioHashString@@@0@@Z ; std::_Uninitialized_move<ioHashString *,ioHashString *,std::allocator<ioHashString> >
; Function compile flags: /Ogsp
; File c:\program files (x86)\microsoft visual studio 10.0\vc\include\memory
;	COMDAT ??$_Uninitialized_move@PAVioHashString@@PAV1@V?$allocator@VioHashString@@@std@@@std@@YAPAVioHashString@@PAV1@00AAV?$allocator@VioHashString@@@0@@Z
_TEXT	SEGMENT
__Cat$514136 = -4					; size = 1
__First$ = 8						; size = 4
__Last$ = 12						; size = 4
__Dest$ = 16						; size = 4
__Al$ = 20						; size = 4
??$_Uninitialized_move@PAVioHashString@@PAV1@V?$allocator@VioHashString@@@std@@@std@@YAPAVioHashString@@PAV1@00AAV?$allocator@VioHashString@@@0@@Z PROC ; std::_Uninitialized_move<ioHashString *,ioHashString *,std::allocator<ioHashString> >, COMDAT

; 469  : 	{	// move [_First, _Last) to raw _Dest, using _Al

  00000	55		 push	 ebp
  00001	8b ec		 mov	 ebp, esp
  00003	51		 push	 ecx

; 470  : 	return (_Uninit_move(_First, _Last, _Dest, _Al,
; 471  : 		_Val_type(_First), _Ptr_cat(_First, _Dest)));

  00004	ff 75 fc	 push	 DWORD PTR __Cat$514136[ebp]
  00007	6a 00		 push	 0
  00009	ff 75 14	 push	 DWORD PTR __Al$[ebp]
  0000c	ff 75 10	 push	 DWORD PTR __Dest$[ebp]
  0000f	ff 75 0c	 push	 DWORD PTR __Last$[ebp]
  00012	ff 75 08	 push	 DWORD PTR __First$[ebp]
  00015	e8 00 00 00 00	 call	 ??$_Uninit_move@PAVioHashString@@PAV1@V?$allocator@VioHashString@@@std@@V1@@std@@YAPAVioHashString@@PAV1@00AAV?$allocator@VioHashString@@@0@0U_Nonscalar_ptr_iterator_tag@0@@Z ; std::_Uninit_move<ioHashString *,ioHashString *,std::allocator<ioHashString>,ioHashString>
  0001a	83 c4 18	 add	 esp, 24			; 00000018H

; 472  : 	}

  0001d	c9		 leave
  0001e	c3		 ret	 0
??$_Uninitialized_move@PAVioHashString@@PAV1@V?$allocator@VioHashString@@@std@@@std@@YAPAVioHashString@@PAV1@00AAV?$allocator@VioHashString@@@0@@Z ENDP ; std::_Uninitialized_move<ioHashString *,ioHashString *,std::allocator<ioHashString> >
_TEXT	ENDS
PUBLIC	??$_Uninitialized_move@PAUColorText@ioMission@@PAU12@V?$allocator@UColorText@ioMission@@@std@@@std@@YAPAUColorText@ioMission@@PAU12@00AAV?$allocator@UColorText@ioMission@@@0@@Z ; std::_Uninitialized_move<ioMission::ColorText *,ioMission::ColorText *,std::allocator<ioMission::ColorText> >
; Function compile flags: /Ogsp
;	COMDAT ??$_Uninitialized_move@PAUColorText@ioMission@@PAU12@V?$allocator@UColorText@ioMission@@@std@@@std@@YAPAUColorText@ioMission@@PAU12@00AAV?$allocator@UColorText@ioMission@@@0@@Z
_TEXT	SEGMENT
__Cat$514146 = -4					; size = 1
__First$ = 8						; size = 4
__Last$ = 12						; size = 4
__Dest$ = 16						; size = 4
__Al$ = 20						; size = 4
??$_Uninitialized_move@PAUColorText@ioMission@@PAU12@V?$allocator@UColorText@ioMission@@@std@@@std@@YAPAUColorText@ioMission@@PAU12@00AAV?$allocator@UColorText@ioMission@@@0@@Z PROC ; std::_Uninitialized_move<ioMission::ColorText *,ioMission::ColorText *,std::allocator<ioMission::ColorText> >, COMDAT

; 469  : 	{	// move [_First, _Last) to raw _Dest, using _Al

  00000	55		 push	 ebp
  00001	8b ec		 mov	 ebp, esp
  00003	51		 push	 ecx

; 470  : 	return (_Uninit_move(_First, _Last, _Dest, _Al,
; 471  : 		_Val_type(_First), _Ptr_cat(_First, _Dest)));

  00004	ff 75 fc	 push	 DWORD PTR __Cat$514146[ebp]
  00007	6a 00		 push	 0
  00009	ff 75 14	 push	 DWORD PTR __Al$[ebp]
  0000c	ff 75 10	 push	 DWORD PTR __Dest$[ebp]
  0000f	ff 75 0c	 push	 DWORD PTR __Last$[ebp]
  00012	ff 75 08	 push	 DWORD PTR __First$[ebp]
  00015	e8 00 00 00 00	 call	 ??$_Uninit_move@PAUColorText@ioMission@@PAU12@V?$allocator@UColorText@ioMission@@@std@@U12@@std@@YAPAUColorText@ioMission@@PAU12@00AAV?$allocator@UColorText@ioMission@@@0@0U_Nonscalar_ptr_iterator_tag@0@@Z ; std::_Uninit_move<ioMission::ColorText *,ioMission::ColorText *,std::allocator<ioMission::ColorText>,ioMission::ColorText>
  0001a	83 c4 18	 add	 esp, 24			; 00000018H

; 472  : 	}

  0001d	c9		 leave
  0001e	c3		 ret	 0
??$_Uninitialized_move@PAUColorText@ioMission@@PAU12@V?$allocator@UColorText@ioMission@@@std@@@std@@YAPAUColorText@ioMission@@PAU12@00AAV?$allocator@UColorText@ioMission@@@0@@Z ENDP ; std::_Uninitialized_move<ioMission::ColorText *,ioMission::ColorText *,std::allocator<ioMission::ColorText> >
_TEXT	ENDS
PUBLIC	??$_Ucopy@V?$_Vector_const_iterator@V?$_Vector_val@UColorText@ioMission@@V?$allocator@UColorText@ioMission@@@std@@@std@@@std@@@?$vector@UColorText@ioMission@@V?$allocator@UColorText@ioMission@@@std@@@std@@IAEPAUColorText@ioMission@@V?$_Vector_const_iterator@V?$_Vector_val@UColorText@ioMission@@V?$allocator@UColorText@ioMission@@@std@@@std@@@1@0PAU23@@Z ; std::vector<ioMission::ColorText,std::allocator<ioMission::ColorText> >::_Ucopy<std::_Vector_const_iterator<std::_Vector_val<ioMission::ColorText,std::allocator<ioMission::ColorText> > > >
; Function compile flags: /Ogsp
; File c:\program files (x86)\microsoft visual studio 10.0\vc\include\vector
;	COMDAT ??$_Ucopy@V?$_Vector_const_iterator@V?$_Vector_val@UColorText@ioMission@@V?$allocator@UColorText@ioMission@@@std@@@std@@@std@@@?$vector@UColorText@ioMission@@V?$allocator@UColorText@ioMission@@@std@@@std@@IAEPAUColorText@ioMission@@V?$_Vector_const_iterator@V?$_Vector_val@UColorText@ioMission@@V?$allocator@UColorText@ioMission@@@std@@@std@@@1@0PAU23@@Z
_TEXT	SEGMENT
__First$ = 8						; size = 4
__Last$ = 12						; size = 4
__Cat$514161 = 16					; size = 1
__Ptr$ = 16						; size = 4
??$_Ucopy@V?$_Vector_const_iterator@V?$_Vector_val@UColorText@ioMission@@V?$allocator@UColorText@ioMission@@@std@@@std@@@std@@@?$vector@UColorText@ioMission@@V?$allocator@UColorText@ioMission@@@std@@@std@@IAEPAUColorText@ioMission@@V?$_Vector_const_iterator@V?$_Vector_val@UColorText@ioMission@@V?$allocator@UColorText@ioMission@@@std@@@std@@@1@0PAU23@@Z PROC ; std::vector<ioMission::ColorText,std::allocator<ioMission::ColorText> >::_Ucopy<std::_Vector_const_iterator<std::_Vector_val<ioMission::ColorText,std::allocator<ioMission::ColorText> > > >, COMDAT
; _this$ = ecx

; 1315 : 		pointer _Ucopy(_Iter _First, _Iter _Last, pointer _Ptr)

  00000	55		 push	 ebp
  00001	8b ec		 mov	 ebp, esp

; 1316 : 		{	// copy initializing [_First, _Last), using allocator
; 1317 : 		return (_Uninitialized_copy(_First, _Last,
; 1318 : 			_Ptr, this->_Alval));

  00003	ff 75 10	 push	 DWORD PTR __Cat$514161[ebp]
  00006	83 c1 0c	 add	 ecx, 12			; 0000000cH
  00009	51		 push	 ecx
  0000a	ff 75 10	 push	 DWORD PTR __Ptr$[ebp]
  0000d	ff 75 0c	 push	 DWORD PTR __Last$[ebp]
  00010	ff 75 08	 push	 DWORD PTR __First$[ebp]
  00013	e8 00 00 00 00	 call	 ??$_Uninit_copy@V?$_Vector_const_iterator@V?$_Vector_val@UColorText@ioMission@@V?$allocator@UColorText@ioMission@@@std@@@std@@@std@@PAUColorText@ioMission@@V?$allocator@UColorText@ioMission@@@2@@std@@YAPAUColorText@ioMission@@V?$_Vector_const_iterator@V?$_Vector_val@UColorText@ioMission@@V?$allocator@UColorText@ioMission@@@std@@@std@@@0@0PAU12@AAV?$allocator@UColorText@ioMission@@@0@U_Nonscalar_ptr_iterator_tag@0@@Z ; std::_Uninit_copy<std::_Vector_const_iterator<std::_Vector_val<ioMission::ColorText,std::allocator<ioMission::ColorText> > >,ioMission::ColorText *,std::allocator<ioMission::ColorText> >
  00018	83 c4 14	 add	 esp, 20			; 00000014H

; 1319 : 		}

  0001b	5d		 pop	 ebp
  0001c	c2 0c 00	 ret	 12			; 0000000cH
??$_Ucopy@V?$_Vector_const_iterator@V?$_Vector_val@UColorText@ioMission@@V?$allocator@UColorText@ioMission@@@std@@@std@@@std@@@?$vector@UColorText@ioMission@@V?$allocator@UColorText@ioMission@@@std@@@std@@IAEPAUColorText@ioMission@@V?$_Vector_const_iterator@V?$_Vector_val@UColorText@ioMission@@V?$allocator@UColorText@ioMission@@@std@@@std@@@1@0PAU23@@Z ENDP ; std::vector<ioMission::ColorText,std::allocator<ioMission::ColorText> >::_Ucopy<std::_Vector_const_iterator<std::_Vector_val<ioMission::ColorText,std::allocator<ioMission::ColorText> > > >
_TEXT	ENDS
PUBLIC	??0?$basic_string@DU?$char_traits@D@std@@V?$allocator@D@2@@std@@QAE@ABV01@@Z ; std::basic_string<char,std::char_traits<char>,std::allocator<char> >::basic_string<char,std::char_traits<char>,std::allocator<char> >
; Function compile flags: /Ogsp
; File c:\program files (x86)\microsoft visual studio 10.0\vc\include\xstring
;	COMDAT ??0?$basic_string@DU?$char_traits@D@std@@V?$allocator@D@2@@std@@QAE@ABV01@@Z
_TEXT	SEGMENT
__Right$ = 8						; size = 4
??0?$basic_string@DU?$char_traits@D@std@@V?$allocator@D@2@@std@@QAE@ABV01@@Z PROC ; std::basic_string<char,std::char_traits<char>,std::allocator<char> >::basic_string<char,std::char_traits<char>,std::allocator<char> >, COMDAT
; _this$ = ecx

; 543  : 		{	// construct by copying _Right

  00000	55		 push	 ebp
  00001	8b ec		 mov	 ebp, esp
  00003	56		 push	 esi

; 544  : 		_Tidy();

  00004	33 c0		 xor	 eax, eax

; 545  : 		assign(_Right, 0, npos);

  00006	6a ff		 push	 -1
  00008	8b f1		 mov	 esi, ecx
  0000a	50		 push	 eax
  0000b	ff 75 08	 push	 DWORD PTR __Right$[ebp]
  0000e	c7 46 14 0f 00
	00 00		 mov	 DWORD PTR [esi+20], 15	; 0000000fH
  00015	89 46 10	 mov	 DWORD PTR [esi+16], eax
  00018	88 06		 mov	 BYTE PTR [esi], al
  0001a	e8 00 00 00 00	 call	 ?assign@?$basic_string@DU?$char_traits@D@std@@V?$allocator@D@2@@std@@QAEAAV12@ABV12@II@Z ; std::basic_string<char,std::char_traits<char>,std::allocator<char> >::assign

; 546  : 		}

  0001f	8b c6		 mov	 eax, esi
  00021	5e		 pop	 esi
  00022	5d		 pop	 ebp
  00023	c2 04 00	 ret	 4
??0?$basic_string@DU?$char_traits@D@std@@V?$allocator@D@2@@std@@QAE@ABV01@@Z ENDP ; std::basic_string<char,std::char_traits<char>,std::allocator<char> >::basic_string<char,std::char_traits<char>,std::allocator<char> >
_TEXT	ENDS
PUBLIC	?assign@?$basic_string@DU?$char_traits@D@std@@V?$allocator@D@2@@std@@QAEAAV12@PBD@Z ; std::basic_string<char,std::char_traits<char>,std::allocator<char> >::assign
; Function compile flags: /Ogsp
;	COMDAT ?assign@?$basic_string@DU?$char_traits@D@std@@V?$allocator@D@2@@std@@QAEAAV12@PBD@Z
_TEXT	SEGMENT
__Ptr$ = 8						; size = 4
?assign@?$basic_string@DU?$char_traits@D@std@@V?$allocator@D@2@@std@@QAEAAV12@PBD@Z PROC ; std::basic_string<char,std::char_traits<char>,std::allocator<char> >::assign, COMDAT
; _this$ = ecx

; 929  : 		{	// assign [_Ptr, <null>)

  00000	55		 push	 ebp
  00001	8b ec		 mov	 ebp, esp

; 930  : 		_DEBUG_POINTER(_Ptr);
; 931  : 		return (assign(_Ptr, _Traits::length(_Ptr)));

  00003	8b 45 08	 mov	 eax, DWORD PTR __Ptr$[ebp]
  00006	8d 50 01	 lea	 edx, DWORD PTR [eax+1]
  00009	53		 push	 ebx
$LL5@assign@3:
  0000a	8a 18		 mov	 bl, BYTE PTR [eax]
  0000c	40		 inc	 eax
  0000d	84 db		 test	 bl, bl
  0000f	75 f9		 jne	 SHORT $LL5@assign@3
  00011	2b c2		 sub	 eax, edx
  00013	50		 push	 eax
  00014	ff 75 08	 push	 DWORD PTR __Ptr$[ebp]
  00017	e8 00 00 00 00	 call	 ?assign@?$basic_string@DU?$char_traits@D@std@@V?$allocator@D@2@@std@@QAEAAV12@PBDI@Z ; std::basic_string<char,std::char_traits<char>,std::allocator<char> >::assign
  0001c	5b		 pop	 ebx

; 932  : 		}

  0001d	5d		 pop	 ebp
  0001e	c2 04 00	 ret	 4
?assign@?$basic_string@DU?$char_traits@D@std@@V?$allocator@D@2@@std@@QAEAAV12@PBD@Z ENDP ; std::basic_string<char,std::char_traits<char>,std::allocator<char> >::assign
_TEXT	ENDS
PUBLIC	??$_Destroy_range@V?$allocator@VioHashString@@@std@@@std@@YAXPAVioHashString@@0AAV?$allocator@VioHashString@@@0@@Z ; std::_Destroy_range<std::allocator<ioHashString> >
; Function compile flags: /Ogsp
; File c:\program files (x86)\microsoft visual studio 10.0\vc\include\xmemory
;	COMDAT ??$_Destroy_range@V?$allocator@VioHashString@@@std@@@std@@YAXPAVioHashString@@0AAV?$allocator@VioHashString@@@0@@Z
_TEXT	SEGMENT
__First$ = 8						; size = 4
__Last$ = 12						; size = 4
__Al$ = 16						; size = 4
??$_Destroy_range@V?$allocator@VioHashString@@@std@@@std@@YAXPAVioHashString@@0AAV?$allocator@VioHashString@@@0@@Z PROC ; std::_Destroy_range<std::allocator<ioHashString> >, COMDAT

; 87   : 	{	// destroy [_First, _Last)

  00000	55		 push	 ebp
  00001	8b ec		 mov	 ebp, esp
  00003	56		 push	 esi

; 88   : 	_Destroy_range(_First, _Last, _Al, _Ptr_cat(_First, _Last));

  00004	8b 75 08	 mov	 esi, DWORD PTR __First$[ebp]
  00007	eb 0b		 jmp	 SHORT $LN21@Destroy_ra@4
$LL7@Destroy_ra@4:
  00009	8b ce		 mov	 ecx, esi
  0000b	ff 15 00 00 00
	00		 call	 DWORD PTR __imp_??1ioHashString@@QAE@XZ
  00011	83 c6 10	 add	 esi, 16			; 00000010H
$LN21@Destroy_ra@4:
  00014	3b 75 0c	 cmp	 esi, DWORD PTR __Last$[ebp]
  00017	75 f0		 jne	 SHORT $LL7@Destroy_ra@4
  00019	5e		 pop	 esi

; 89   : 	}

  0001a	5d		 pop	 ebp
  0001b	c3		 ret	 0
??$_Destroy_range@V?$allocator@VioHashString@@@std@@@std@@YAXPAVioHashString@@0AAV?$allocator@VioHashString@@@0@@Z ENDP ; std::_Destroy_range<std::allocator<ioHashString> >
_TEXT	ENDS
PUBLIC	??$_Uninitialized_copy@V?$_Vector_const_iterator@V?$_Vector_val@VioHashString@@V?$allocator@VioHashString@@@std@@@std@@@std@@PAVioHashString@@V?$allocator@VioHashString@@@2@@std@@YAPAVioHashString@@V?$_Vector_const_iterator@V?$_Vector_val@VioHashString@@V?$allocator@VioHashString@@@std@@@std@@@0@0PAV1@AAV?$allocator@VioHashString@@@0@@Z ; std::_Uninitialized_copy<std::_Vector_const_iterator<std::_Vector_val<ioHashString,std::allocator<ioHashString> > >,ioHashString *,std::allocator<ioHashString> >
; Function compile flags: /Ogsp
; File c:\program files (x86)\microsoft visual studio 10.0\vc\include\memory
;	COMDAT ??$_Uninitialized_copy@V?$_Vector_const_iterator@V?$_Vector_val@VioHashString@@V?$allocator@VioHashString@@@std@@@std@@@std@@PAVioHashString@@V?$allocator@VioHashString@@@2@@std@@YAPAVioHashString@@V?$_Vector_const_iterator@V?$_Vector_val@VioHashString@@V?$allocator@VioHashString@@@std@@@std@@@0@0PAV1@AAV?$allocator@VioHashString@@@0@@Z
_TEXT	SEGMENT
__Cat$514296 = -4					; size = 1
__First$ = 8						; size = 4
__Last$ = 12						; size = 4
__Dest$ = 16						; size = 4
__Al$ = 20						; size = 4
??$_Uninitialized_copy@V?$_Vector_const_iterator@V?$_Vector_val@VioHashString@@V?$allocator@VioHashString@@@std@@@std@@@std@@PAVioHashString@@V?$allocator@VioHashString@@@2@@std@@YAPAVioHashString@@V?$_Vector_const_iterator@V?$_Vector_val@VioHashString@@V?$allocator@VioHashString@@@std@@@std@@@0@0PAV1@AAV?$allocator@VioHashString@@@0@@Z PROC ; std::_Uninitialized_copy<std::_Vector_const_iterator<std::_Vector_val<ioHashString,std::allocator<ioHashString> > >,ioHashString *,std::allocator<ioHashString> >, COMDAT

; 412  : 	{	// copy [_First, _Last) to raw _Dest, using _Al

  00000	55		 push	 ebp
  00001	8b ec		 mov	 ebp, esp
  00003	51		 push	 ecx

; 413  : 	return (_Uninit_copy(_First, _Last, _Dest, _Al,
; 414  : 		_Ptr_cat(_First, _Dest)));

  00004	ff 75 fc	 push	 DWORD PTR __Cat$514296[ebp]
  00007	ff 75 14	 push	 DWORD PTR __Al$[ebp]
  0000a	ff 75 10	 push	 DWORD PTR __Dest$[ebp]
  0000d	ff 75 0c	 push	 DWORD PTR __Last$[ebp]
  00010	ff 75 08	 push	 DWORD PTR __First$[ebp]
  00013	e8 00 00 00 00	 call	 ??$_Uninit_copy@V?$_Vector_const_iterator@V?$_Vector_val@VioHashString@@V?$allocator@VioHashString@@@std@@@std@@@std@@PAVioHashString@@V?$allocator@VioHashString@@@2@@std@@YAPAVioHashString@@V?$_Vector_const_iterator@V?$_Vector_val@VioHashString@@V?$allocator@VioHashString@@@std@@@std@@@0@0PAV1@AAV?$allocator@VioHashString@@@0@U_Nonscalar_ptr_iterator_tag@0@@Z ; std::_Uninit_copy<std::_Vector_const_iterator<std::_Vector_val<ioHashString,std::allocator<ioHashString> > >,ioHashString *,std::allocator<ioHashString> >
  00018	83 c4 14	 add	 esp, 20			; 00000014H

; 415  : 	}

  0001b	c9		 leave
  0001c	c3		 ret	 0
??$_Uninitialized_copy@V?$_Vector_const_iterator@V?$_Vector_val@VioHashString@@V?$allocator@VioHashString@@@std@@@std@@@std@@PAVioHashString@@V?$allocator@VioHashString@@@2@@std@@YAPAVioHashString@@V?$_Vector_const_iterator@V?$_Vector_val@VioHashString@@V?$allocator@VioHashString@@@std@@@std@@@0@0PAV1@AAV?$allocator@VioHashString@@@0@@Z ENDP ; std::_Uninitialized_copy<std::_Vector_const_iterator<std::_Vector_val<ioHashString,std::allocator<ioHashString> > >,ioHashString *,std::allocator<ioHashString> >
_TEXT	ENDS
PUBLIC	?destroy@?$allocator@V?$basic_string@DU?$char_traits@D@std@@V?$allocator@D@2@@std@@@std@@QAEXPAV?$basic_string@DU?$char_traits@D@std@@V?$allocator@D@2@@2@@Z ; std::allocator<std::basic_string<char,std::char_traits<char>,std::allocator<char> > >::destroy
; Function compile flags: /Ogsp
; File c:\program files (x86)\microsoft visual studio 10.0\vc\include\xmemory
;	COMDAT ?destroy@?$allocator@V?$basic_string@DU?$char_traits@D@std@@V?$allocator@D@2@@std@@@std@@QAEXPAV?$basic_string@DU?$char_traits@D@std@@V?$allocator@D@2@@2@@Z
_TEXT	SEGMENT
__Ptr$ = 8						; size = 4
?destroy@?$allocator@V?$basic_string@DU?$char_traits@D@std@@V?$allocator@D@2@@std@@@std@@QAEXPAV?$basic_string@DU?$char_traits@D@std@@V?$allocator@D@2@@2@@Z PROC ; std::allocator<std::basic_string<char,std::char_traits<char>,std::allocator<char> > >::destroy, COMDAT
; _this$ = ecx

; 212  : 		{	// destroy object at _Ptr

  00000	55		 push	 ebp
  00001	8b ec		 mov	 ebp, esp

; 213  : 		_Destroy(_Ptr);

  00003	8b 4d 08	 mov	 ecx, DWORD PTR __Ptr$[ebp]
  00006	6a 00		 push	 0
  00008	6a 01		 push	 1
  0000a	e8 00 00 00 00	 call	 ?_Tidy@?$basic_string@DU?$char_traits@D@std@@V?$allocator@D@2@@std@@QAEX_NI@Z ; std::basic_string<char,std::char_traits<char>,std::allocator<char> >::_Tidy

; 214  : 		}

  0000f	5d		 pop	 ebp
  00010	c2 04 00	 ret	 4
?destroy@?$allocator@V?$basic_string@DU?$char_traits@D@std@@V?$allocator@D@2@@std@@@std@@QAEXPAV?$basic_string@DU?$char_traits@D@std@@V?$allocator@D@2@@2@@Z ENDP ; std::allocator<std::basic_string<char,std::char_traits<char>,std::allocator<char> > >::destroy
_TEXT	ENDS
PUBLIC	?_Destroy@?$vector@UColorText@ioMission@@V?$allocator@UColorText@ioMission@@@std@@@std@@IAEXPAUColorText@ioMission@@0@Z ; std::vector<ioMission::ColorText,std::allocator<ioMission::ColorText> >::_Destroy
; Function compile flags: /Ogsp
; File c:\program files (x86)\microsoft visual studio 10.0\vc\include\vector
;	COMDAT ?_Destroy@?$vector@UColorText@ioMission@@V?$allocator@UColorText@ioMission@@@std@@@std@@IAEXPAUColorText@ioMission@@0@Z
_TEXT	SEGMENT
__First$ = 8						; size = 4
__Last$ = 12						; size = 4
?_Destroy@?$vector@UColorText@ioMission@@V?$allocator@UColorText@ioMission@@@std@@@std@@IAEXPAUColorText@ioMission@@0@Z PROC ; std::vector<ioMission::ColorText,std::allocator<ioMission::ColorText> >::_Destroy, COMDAT
; _this$ = ecx

; 1269 : 		{	// destroy [_First, _Last) using allocator

  00000	55		 push	 ebp
  00001	8b ec		 mov	 ebp, esp

; 1270 : 		_Destroy_range(_First, _Last, this->_Alval);

  00003	83 c1 0c	 add	 ecx, 12			; 0000000cH
  00006	51		 push	 ecx
  00007	ff 75 0c	 push	 DWORD PTR __Last$[ebp]
  0000a	ff 75 08	 push	 DWORD PTR __First$[ebp]
  0000d	e8 00 00 00 00	 call	 ??$_Destroy_range@V?$allocator@UColorText@ioMission@@@std@@@std@@YAXPAUColorText@ioMission@@0AAV?$allocator@UColorText@ioMission@@@0@@Z ; std::_Destroy_range<std::allocator<ioMission::ColorText> >
  00012	83 c4 0c	 add	 esp, 12			; 0000000cH

; 1271 : 		}

  00015	5d		 pop	 ebp
  00016	c2 08 00	 ret	 8
?_Destroy@?$vector@UColorText@ioMission@@V?$allocator@UColorText@ioMission@@@std@@@std@@IAEXPAUColorText@ioMission@@0@Z ENDP ; std::vector<ioMission::ColorText,std::allocator<ioMission::ColorText> >::_Destroy
_TEXT	ENDS
PUBLIC	??$_Umove@PAVioHashString@@@?$vector@VioHashString@@V?$allocator@VioHashString@@@std@@@std@@IAEPAVioHashString@@PAV2@00@Z ; std::vector<ioHashString,std::allocator<ioHashString> >::_Umove<ioHashString *>
; Function compile flags: /Ogsp
;	COMDAT ??$_Umove@PAVioHashString@@@?$vector@VioHashString@@V?$allocator@VioHashString@@@std@@@std@@IAEPAVioHashString@@PAV2@00@Z
_TEXT	SEGMENT
__First$ = 8						; size = 4
__Last$ = 12						; size = 4
__Ptr$ = 16						; size = 4
??$_Umove@PAVioHashString@@@?$vector@VioHashString@@V?$allocator@VioHashString@@@std@@@std@@IAEPAVioHashString@@PAV2@00@Z PROC ; std::vector<ioHashString,std::allocator<ioHashString> >::_Umove<ioHashString *>, COMDAT
; _this$ = ecx

; 1322 : 		pointer _Umove(_Iter _First, _Iter _Last, pointer _Ptr)

  00000	55		 push	 ebp
  00001	8b ec		 mov	 ebp, esp

; 1323 : 		{	// move initializing [_First, _Last), using allocator
; 1324 : 		return (_Uninitialized_move(_First, _Last,
; 1325 : 			_Ptr, this->_Alval));

  00003	83 c1 0c	 add	 ecx, 12			; 0000000cH
  00006	51		 push	 ecx
  00007	ff 75 10	 push	 DWORD PTR __Ptr$[ebp]
  0000a	ff 75 0c	 push	 DWORD PTR __Last$[ebp]
  0000d	ff 75 08	 push	 DWORD PTR __First$[ebp]
  00010	e8 00 00 00 00	 call	 ??$_Uninitialized_move@PAVioHashString@@PAV1@V?$allocator@VioHashString@@@std@@@std@@YAPAVioHashString@@PAV1@00AAV?$allocator@VioHashString@@@0@@Z ; std::_Uninitialized_move<ioHashString *,ioHashString *,std::allocator<ioHashString> >
  00015	83 c4 10	 add	 esp, 16			; 00000010H

; 1326 : 		}

  00018	5d		 pop	 ebp
  00019	c2 0c 00	 ret	 12			; 0000000cH
??$_Umove@PAVioHashString@@@?$vector@VioHashString@@V?$allocator@VioHashString@@@std@@@std@@IAEPAVioHashString@@PAV2@00@Z ENDP ; std::vector<ioHashString,std::allocator<ioHashString> >::_Umove<ioHashString *>
_TEXT	ENDS
PUBLIC	??$_Umove@PAUColorText@ioMission@@@?$vector@UColorText@ioMission@@V?$allocator@UColorText@ioMission@@@std@@@std@@IAEPAUColorText@ioMission@@PAU23@00@Z ; std::vector<ioMission::ColorText,std::allocator<ioMission::ColorText> >::_Umove<ioMission::ColorText *>
; Function compile flags: /Ogsp
;	COMDAT ??$_Umove@PAUColorText@ioMission@@@?$vector@UColorText@ioMission@@V?$allocator@UColorText@ioMission@@@std@@@std@@IAEPAUColorText@ioMission@@PAU23@00@Z
_TEXT	SEGMENT
__First$ = 8						; size = 4
__Last$ = 12						; size = 4
__Ptr$ = 16						; size = 4
??$_Umove@PAUColorText@ioMission@@@?$vector@UColorText@ioMission@@V?$allocator@UColorText@ioMission@@@std@@@std@@IAEPAUColorText@ioMission@@PAU23@00@Z PROC ; std::vector<ioMission::ColorText,std::allocator<ioMission::ColorText> >::_Umove<ioMission::ColorText *>, COMDAT
; _this$ = ecx

; 1322 : 		pointer _Umove(_Iter _First, _Iter _Last, pointer _Ptr)

  00000	55		 push	 ebp
  00001	8b ec		 mov	 ebp, esp

; 1323 : 		{	// move initializing [_First, _Last), using allocator
; 1324 : 		return (_Uninitialized_move(_First, _Last,
; 1325 : 			_Ptr, this->_Alval));

  00003	83 c1 0c	 add	 ecx, 12			; 0000000cH
  00006	51		 push	 ecx
  00007	ff 75 10	 push	 DWORD PTR __Ptr$[ebp]
  0000a	ff 75 0c	 push	 DWORD PTR __Last$[ebp]
  0000d	ff 75 08	 push	 DWORD PTR __First$[ebp]
  00010	e8 00 00 00 00	 call	 ??$_Uninitialized_move@PAUColorText@ioMission@@PAU12@V?$allocator@UColorText@ioMission@@@std@@@std@@YAPAUColorText@ioMission@@PAU12@00AAV?$allocator@UColorText@ioMission@@@0@@Z ; std::_Uninitialized_move<ioMission::ColorText *,ioMission::ColorText *,std::allocator<ioMission::ColorText> >
  00015	83 c4 10	 add	 esp, 16			; 00000010H

; 1326 : 		}

  00018	5d		 pop	 ebp
  00019	c2 0c 00	 ret	 12			; 0000000cH
??$_Umove@PAUColorText@ioMission@@@?$vector@UColorText@ioMission@@V?$allocator@UColorText@ioMission@@@std@@@std@@IAEPAUColorText@ioMission@@PAU23@00@Z ENDP ; std::vector<ioMission::ColorText,std::allocator<ioMission::ColorText> >::_Umove<ioMission::ColorText *>
_TEXT	ENDS
PUBLIC	?erase@?$vector@UColorText@ioMission@@V?$allocator@UColorText@ioMission@@@std@@@std@@QAE?AV?$_Vector_iterator@V?$_Vector_val@UColorText@ioMission@@V?$allocator@UColorText@ioMission@@@std@@@std@@@2@V?$_Vector_const_iterator@V?$_Vector_val@UColorText@ioMission@@V?$allocator@UColorText@ioMission@@@std@@@std@@@2@0@Z ; std::vector<ioMission::ColorText,std::allocator<ioMission::ColorText> >::erase
; Function compile flags: /Ogsp
;	COMDAT ?erase@?$vector@UColorText@ioMission@@V?$allocator@UColorText@ioMission@@@std@@@std@@QAE?AV?$_Vector_iterator@V?$_Vector_val@UColorText@ioMission@@V?$allocator@UColorText@ioMission@@@std@@@std@@@2@V?$_Vector_const_iterator@V?$_Vector_val@UColorText@ioMission@@V?$allocator@UColorText@ioMission@@@std@@@std@@@2@0@Z
_TEXT	SEGMENT
___$ReturnUdt$ = 8					; size = 4
__First_arg$ = 12					; size = 4
__Cat$514408 = 16					; size = 1
__Last_arg$ = 16					; size = 4
?erase@?$vector@UColorText@ioMission@@V?$allocator@UColorText@ioMission@@@std@@@std@@QAE?AV?$_Vector_iterator@V?$_Vector_val@UColorText@ioMission@@V?$allocator@UColorText@ioMission@@@std@@@std@@@2@V?$_Vector_const_iterator@V?$_Vector_val@UColorText@ioMission@@V?$allocator@UColorText@ioMission@@@std@@@std@@@2@0@Z PROC ; std::vector<ioMission::ColorText,std::allocator<ioMission::ColorText> >::erase, COMDAT
; _this$ = ecx

; 1190 : 		{	// erase [_First, _Last)

  00000	55		 push	 ebp
  00001	8b ec		 mov	 ebp, esp

; 1191 : 		iterator _First = _Make_iter(_First_arg);

  00003	8b 45 0c	 mov	 eax, DWORD PTR __First_arg$[ebp]
  00006	53		 push	 ebx
  00007	8b 5d 08	 mov	 ebx, DWORD PTR ___$ReturnUdt$[ebp]
  0000a	56		 push	 esi
  0000b	8b f1		 mov	 esi, ecx
  0000d	89 03		 mov	 DWORD PTR [ebx], eax

; 1192 : 		iterator _Last = _Make_iter(_Last_arg);
; 1193 : 
; 1194 : 		if (_First != _Last)

  0000f	3b 45 10	 cmp	 eax, DWORD PTR __Last_arg$[ebp]
  00012	74 27		 je	 SHORT $LN1@erase@2

; 1195 : 			{	// worth doing, copy down over hole
; 1196 :  #if _ITERATOR_DEBUG_LEVEL == 2
; 1197 : 			if (_Last < _First || _VICONT(_First) != this
; 1198 : 				|| _VIPTR(_First) < this->_Myfirst
; 1199 : 				|| this->_Mylast < _VIPTR(_Last))
; 1200 : 				_DEBUG_ERROR("vector erase iterator outside range");
; 1201 : 			pointer _Ptr = _Move(_VIPTR(_Last), this->_Mylast,
; 1202 : 				_VIPTR(_First));
; 1203 : 			_Orphan_range(_VIPTR(_First), this->_Mylast);
; 1204 : 
; 1205 :  #else /* _ITERATOR_DEBUG_LEVEL == 2 */
; 1206 : 			pointer _Ptr = _Move(_VIPTR(_Last), this->_Mylast,
; 1207 : 				_VIPTR(_First));

  00014	8b 4e 04	 mov	 ecx, DWORD PTR [esi+4]
  00017	57		 push	 edi
  00018	ff 75 10	 push	 DWORD PTR __Cat$514408[ebp]
  0001b	50		 push	 eax
  0001c	51		 push	 ecx
  0001d	ff 75 10	 push	 DWORD PTR __Last_arg$[ebp]
  00020	e8 00 00 00 00	 call	 ??$_Move@PAUColorText@ioMission@@PAU12@@std@@YAPAUColorText@ioMission@@PAU12@00U_Nonscalar_ptr_iterator_tag@0@@Z ; std::_Move<ioMission::ColorText *,ioMission::ColorText *>
  00025	8b f8		 mov	 edi, eax

; 1208 :  #endif /* _ITERATOR_DEBUG_LEVEL == 2 */
; 1209 : 
; 1210 : 			_Destroy(_Ptr, this->_Mylast);

  00027	8d 46 0c	 lea	 eax, DWORD PTR [esi+12]
  0002a	50		 push	 eax
  0002b	ff 76 04	 push	 DWORD PTR [esi+4]
  0002e	57		 push	 edi
  0002f	e8 00 00 00 00	 call	 ??$_Destroy_range@V?$allocator@UColorText@ioMission@@@std@@@std@@YAXPAUColorText@ioMission@@0AAV?$allocator@UColorText@ioMission@@@0@@Z ; std::_Destroy_range<std::allocator<ioMission::ColorText> >
  00034	83 c4 1c	 add	 esp, 28			; 0000001cH

; 1211 : 			this->_Mylast = _Ptr;

  00037	89 7e 04	 mov	 DWORD PTR [esi+4], edi
  0003a	5f		 pop	 edi
$LN1@erase@2:

; 1212 : 			}
; 1213 : 		return (_First);

  0003b	5e		 pop	 esi
  0003c	8b c3		 mov	 eax, ebx
  0003e	5b		 pop	 ebx

; 1214 : 		}

  0003f	5d		 pop	 ebp
  00040	c2 0c 00	 ret	 12			; 0000000cH
?erase@?$vector@UColorText@ioMission@@V?$allocator@UColorText@ioMission@@@std@@@std@@QAE?AV?$_Vector_iterator@V?$_Vector_val@UColorText@ioMission@@V?$allocator@UColorText@ioMission@@@std@@@std@@@2@V?$_Vector_const_iterator@V?$_Vector_val@UColorText@ioMission@@V?$allocator@UColorText@ioMission@@@std@@@std@@@2@0@Z ENDP ; std::vector<ioMission::ColorText,std::allocator<ioMission::ColorText> >::erase
_TEXT	ENDS
PUBLIC	??$_Construct@V?$basic_string@DU?$char_traits@D@std@@V?$allocator@D@2@@std@@ABV12@@std@@YAXPAV?$basic_string@DU?$char_traits@D@std@@V?$allocator@D@2@@0@ABV10@@Z ; std::_Construct<std::basic_string<char,std::char_traits<char>,std::allocator<char> >,std::basic_string<char,std::char_traits<char>,std::allocator<char> > const &>
;	COMDAT xdata$x
; File c:\program files (x86)\microsoft visual studio 10.0\vc\include\utility
xdata$x	SEGMENT
__unwindtable$??$_Construct@V?$basic_string@DU?$char_traits@D@std@@V?$allocator@D@2@@std@@ABV12@@std@@YAXPAV?$basic_string@DU?$char_traits@D@std@@V?$allocator@D@2@@0@ABV10@@Z DD 0ffffffffH
	DD	FLAT:__unwindfunclet$??$_Construct@V?$basic_string@DU?$char_traits@D@std@@V?$allocator@D@2@@std@@ABV12@@std@@YAXPAV?$basic_string@DU?$char_traits@D@std@@V?$allocator@D@2@@0@ABV10@@Z$0
__ehfuncinfo$??$_Construct@V?$basic_string@DU?$char_traits@D@std@@V?$allocator@D@2@@std@@ABV12@@std@@YAXPAV?$basic_string@DU?$char_traits@D@std@@V?$allocator@D@2@@0@ABV10@@Z DD 019930522H
	DD	01H
	DD	FLAT:__unwindtable$??$_Construct@V?$basic_string@DU?$char_traits@D@std@@V?$allocator@D@2@@std@@ABV12@@std@@YAXPAV?$basic_string@DU?$char_traits@D@std@@V?$allocator@D@2@@0@ABV10@@Z
	DD	2 DUP(00H)
	DD	2 DUP(00H)
	DD	00H
	DD	01H
; Function compile flags: /Ogsp
; File c:\program files (x86)\microsoft visual studio 10.0\vc\include\xmemory
xdata$x	ENDS
;	COMDAT ??$_Construct@V?$basic_string@DU?$char_traits@D@std@@V?$allocator@D@2@@std@@ABV12@@std@@YAXPAV?$basic_string@DU?$char_traits@D@std@@V?$allocator@D@2@@0@ABV10@@Z
_TEXT	SEGMENT
$T514419 = -16						; size = 4
__$EHRec$ = -12						; size = 12
__Vptr$ = 8						; size = 4
__Ptr$ = 8						; size = 4
__Val$ = 12						; size = 4
??$_Construct@V?$basic_string@DU?$char_traits@D@std@@V?$allocator@D@2@@std@@ABV12@@std@@YAXPAV?$basic_string@DU?$char_traits@D@std@@V?$allocator@D@2@@0@ABV10@@Z PROC ; std::_Construct<std::basic_string<char,std::char_traits<char>,std::allocator<char> >,std::basic_string<char,std::char_traits<char>,std::allocator<char> > const &>, COMDAT

; 46   : 	{	// construct object at _Ptr with value _Val

  00000	6a 04		 push	 4
  00002	b8 00 00 00 00	 mov	 eax, __ehhandler$??$_Construct@V?$basic_string@DU?$char_traits@D@std@@V?$allocator@D@2@@std@@ABV12@@std@@YAXPAV?$basic_string@DU?$char_traits@D@std@@V?$allocator@D@2@@0@ABV10@@Z
  00007	e8 00 00 00 00	 call	 __EH_prolog3

; 47   : 	void _FARQ *_Vptr = _Ptr;

  0000c	8b 4d 08	 mov	 ecx, DWORD PTR __Ptr$[ebp]
  0000f	89 4d 08	 mov	 DWORD PTR __Vptr$[ebp], ecx

; 48   : 	::new (_Vptr) _Ty1(_STD forward<_Ty2>(_Val));

  00012	89 4d f0	 mov	 DWORD PTR $T514419[ebp], ecx
  00015	83 65 fc 00	 and	 DWORD PTR __$EHRec$[ebp+8], 0
  00019	85 c9		 test	 ecx, ecx
  0001b	74 08		 je	 SHORT $LN3@Construct@3
  0001d	ff 75 0c	 push	 DWORD PTR __Val$[ebp]
  00020	e8 00 00 00 00	 call	 ??0?$basic_string@DU?$char_traits@D@std@@V?$allocator@D@2@@std@@QAE@ABV01@@Z ; std::basic_string<char,std::char_traits<char>,std::allocator<char> >::basic_string<char,std::char_traits<char>,std::allocator<char> >
$LN3@Construct@3:

; 49   : 	}

  00025	e8 00 00 00 00	 call	 __EH_epilog3
  0002a	c3		 ret	 0
_TEXT	ENDS
;	COMDAT text$x
text$x	SEGMENT
__unwindfunclet$??$_Construct@V?$basic_string@DU?$char_traits@D@std@@V?$allocator@D@2@@std@@ABV12@@std@@YAXPAV?$basic_string@DU?$char_traits@D@std@@V?$allocator@D@2@@0@ABV10@@Z$0:
  00000	ff 75 08	 push	 DWORD PTR __Vptr$[ebp]
  00003	ff 75 f0	 push	 DWORD PTR $T514419[ebp]
  00006	e8 00 00 00 00	 call	 ??3@YAXPAX0@Z		; operator delete
  0000b	59		 pop	 ecx
  0000c	59		 pop	 ecx
  0000d	c3		 ret	 0
__ehhandler$??$_Construct@V?$basic_string@DU?$char_traits@D@std@@V?$allocator@D@2@@std@@ABV12@@std@@YAXPAV?$basic_string@DU?$char_traits@D@std@@V?$allocator@D@2@@0@ABV10@@Z:
  0000e	8b 54 24 08	 mov	 edx, DWORD PTR [esp+8]
  00012	8d 42 0c	 lea	 eax, DWORD PTR [edx+12]
  00015	8b 4a ec	 mov	 ecx, DWORD PTR [edx-20]
  00018	33 c8		 xor	 ecx, eax
  0001a	e8 00 00 00 00	 call	 @__security_check_cookie@4
  0001f	b8 00 00 00 00	 mov	 eax, OFFSET __ehfuncinfo$??$_Construct@V?$basic_string@DU?$char_traits@D@std@@V?$allocator@D@2@@std@@ABV12@@std@@YAXPAV?$basic_string@DU?$char_traits@D@std@@V?$allocator@D@2@@0@ABV10@@Z
  00024	e9 00 00 00 00	 jmp	 ___CxxFrameHandler3
text$x	ENDS
??$_Construct@V?$basic_string@DU?$char_traits@D@std@@V?$allocator@D@2@@std@@ABV12@@std@@YAXPAV?$basic_string@DU?$char_traits@D@std@@V?$allocator@D@2@@0@ABV10@@Z ENDP ; std::_Construct<std::basic_string<char,std::char_traits<char>,std::allocator<char> >,std::basic_string<char,std::char_traits<char>,std::allocator<char> > const &>
PUBLIC	??0?$basic_string@DU?$char_traits@D@std@@V?$allocator@D@2@@std@@QAE@PBD@Z ; std::basic_string<char,std::char_traits<char>,std::allocator<char> >::basic_string<char,std::char_traits<char>,std::allocator<char> >
; Function compile flags: /Ogsp
; File c:\program files (x86)\microsoft visual studio 10.0\vc\include\xstring
;	COMDAT ??0?$basic_string@DU?$char_traits@D@std@@V?$allocator@D@2@@std@@QAE@PBD@Z
_TEXT	SEGMENT
__Ptr$ = 8						; size = 4
??0?$basic_string@DU?$char_traits@D@std@@V?$allocator@D@2@@std@@QAE@PBD@Z PROC ; std::basic_string<char,std::char_traits<char>,std::allocator<char> >::basic_string<char,std::char_traits<char>,std::allocator<char> >, COMDAT
; _this$ = ecx

; 592  : 		{	// construct from [_Ptr, <null>)

  00000	55		 push	 ebp
  00001	8b ec		 mov	 ebp, esp
  00003	56		 push	 esi

; 593  : 		_Tidy();
; 594  : 		assign(_Ptr);

  00004	ff 75 08	 push	 DWORD PTR __Ptr$[ebp]
  00007	8b f1		 mov	 esi, ecx
  00009	83 66 10 00	 and	 DWORD PTR [esi+16], 0
  0000d	c7 46 14 0f 00
	00 00		 mov	 DWORD PTR [esi+20], 15	; 0000000fH
  00014	c6 06 00	 mov	 BYTE PTR [esi], 0
  00017	e8 00 00 00 00	 call	 ?assign@?$basic_string@DU?$char_traits@D@std@@V?$allocator@D@2@@std@@QAEAAV12@PBD@Z ; std::basic_string<char,std::char_traits<char>,std::allocator<char> >::assign

; 595  : 		}

  0001c	8b c6		 mov	 eax, esi
  0001e	5e		 pop	 esi
  0001f	5d		 pop	 ebp
  00020	c2 04 00	 ret	 4
??0?$basic_string@DU?$char_traits@D@std@@V?$allocator@D@2@@std@@QAE@PBD@Z ENDP ; std::basic_string<char,std::char_traits<char>,std::allocator<char> >::basic_string<char,std::char_traits<char>,std::allocator<char> >
_TEXT	ENDS
PUBLIC	?_Destroy@?$vector@VioHashString@@V?$allocator@VioHashString@@@std@@@std@@IAEXPAVioHashString@@0@Z ; std::vector<ioHashString,std::allocator<ioHashString> >::_Destroy
; Function compile flags: /Ogsp
; File c:\program files (x86)\microsoft visual studio 10.0\vc\include\vector
;	COMDAT ?_Destroy@?$vector@VioHashString@@V?$allocator@VioHashString@@@std@@@std@@IAEXPAVioHashString@@0@Z
_TEXT	SEGMENT
__First$ = 8						; size = 4
__Last$ = 12						; size = 4
?_Destroy@?$vector@VioHashString@@V?$allocator@VioHashString@@@std@@@std@@IAEXPAVioHashString@@0@Z PROC ; std::vector<ioHashString,std::allocator<ioHashString> >::_Destroy, COMDAT
; _this$ = ecx

; 1269 : 		{	// destroy [_First, _Last) using allocator

  00000	55		 push	 ebp
  00001	8b ec		 mov	 ebp, esp
  00003	56		 push	 esi

; 1270 : 		_Destroy_range(_First, _Last, this->_Alval);

  00004	8b 75 08	 mov	 esi, DWORD PTR __First$[ebp]
  00007	eb 0b		 jmp	 SHORT $LN23@Destroy
$LL9@Destroy:
  00009	8b ce		 mov	 ecx, esi
  0000b	ff 15 00 00 00
	00		 call	 DWORD PTR __imp_??1ioHashString@@QAE@XZ
  00011	83 c6 10	 add	 esi, 16			; 00000010H
$LN23@Destroy:
  00014	3b 75 0c	 cmp	 esi, DWORD PTR __Last$[ebp]
  00017	75 f0		 jne	 SHORT $LL9@Destroy
  00019	5e		 pop	 esi

; 1271 : 		}

  0001a	5d		 pop	 ebp
  0001b	c2 08 00	 ret	 8
?_Destroy@?$vector@VioHashString@@V?$allocator@VioHashString@@@std@@@std@@IAEXPAVioHashString@@0@Z ENDP ; std::vector<ioHashString,std::allocator<ioHashString> >::_Destroy
_TEXT	ENDS
PUBLIC	??$_Ucopy@V?$_Vector_const_iterator@V?$_Vector_val@VioHashString@@V?$allocator@VioHashString@@@std@@@std@@@std@@@?$vector@VioHashString@@V?$allocator@VioHashString@@@std@@@std@@IAEPAVioHashString@@V?$_Vector_const_iterator@V?$_Vector_val@VioHashString@@V?$allocator@VioHashString@@@std@@@std@@@1@0PAV2@@Z ; std::vector<ioHashString,std::allocator<ioHashString> >::_Ucopy<std::_Vector_const_iterator<std::_Vector_val<ioHashString,std::allocator<ioHashString> > > >
; Function compile flags: /Ogsp
;	COMDAT ??$_Ucopy@V?$_Vector_const_iterator@V?$_Vector_val@VioHashString@@V?$allocator@VioHashString@@@std@@@std@@@std@@@?$vector@VioHashString@@V?$allocator@VioHashString@@@std@@@std@@IAEPAVioHashString@@V?$_Vector_const_iterator@V?$_Vector_val@VioHashString@@V?$allocator@VioHashString@@@std@@@std@@@1@0PAV2@@Z
_TEXT	SEGMENT
__First$ = 8						; size = 4
__Last$ = 12						; size = 4
__Cat$514587 = 16					; size = 1
__Ptr$ = 16						; size = 4
??$_Ucopy@V?$_Vector_const_iterator@V?$_Vector_val@VioHashString@@V?$allocator@VioHashString@@@std@@@std@@@std@@@?$vector@VioHashString@@V?$allocator@VioHashString@@@std@@@std@@IAEPAVioHashString@@V?$_Vector_const_iterator@V?$_Vector_val@VioHashString@@V?$allocator@VioHashString@@@std@@@std@@@1@0PAV2@@Z PROC ; std::vector<ioHashString,std::allocator<ioHashString> >::_Ucopy<std::_Vector_const_iterator<std::_Vector_val<ioHashString,std::allocator<ioHashString> > > >, COMDAT
; _this$ = ecx

; 1315 : 		pointer _Ucopy(_Iter _First, _Iter _Last, pointer _Ptr)

  00000	55		 push	 ebp
  00001	8b ec		 mov	 ebp, esp

; 1316 : 		{	// copy initializing [_First, _Last), using allocator
; 1317 : 		return (_Uninitialized_copy(_First, _Last,
; 1318 : 			_Ptr, this->_Alval));

  00003	ff 75 10	 push	 DWORD PTR __Cat$514587[ebp]
  00006	83 c1 0c	 add	 ecx, 12			; 0000000cH
  00009	51		 push	 ecx
  0000a	ff 75 10	 push	 DWORD PTR __Ptr$[ebp]
  0000d	ff 75 0c	 push	 DWORD PTR __Last$[ebp]
  00010	ff 75 08	 push	 DWORD PTR __First$[ebp]
  00013	e8 00 00 00 00	 call	 ??$_Uninit_copy@V?$_Vector_const_iterator@V?$_Vector_val@VioHashString@@V?$allocator@VioHashString@@@std@@@std@@@std@@PAVioHashString@@V?$allocator@VioHashString@@@2@@std@@YAPAVioHashString@@V?$_Vector_const_iterator@V?$_Vector_val@VioHashString@@V?$allocator@VioHashString@@@std@@@std@@@0@0PAV1@AAV?$allocator@VioHashString@@@0@U_Nonscalar_ptr_iterator_tag@0@@Z ; std::_Uninit_copy<std::_Vector_const_iterator<std::_Vector_val<ioHashString,std::allocator<ioHashString> > >,ioHashString *,std::allocator<ioHashString> >
  00018	83 c4 14	 add	 esp, 20			; 00000014H

; 1319 : 		}

  0001b	5d		 pop	 ebp
  0001c	c2 0c 00	 ret	 12			; 0000000cH
??$_Ucopy@V?$_Vector_const_iterator@V?$_Vector_val@VioHashString@@V?$allocator@VioHashString@@@std@@@std@@@std@@@?$vector@VioHashString@@V?$allocator@VioHashString@@@std@@@std@@IAEPAVioHashString@@V?$_Vector_const_iterator@V?$_Vector_val@VioHashString@@V?$allocator@VioHashString@@@std@@@std@@@1@0PAV2@@Z ENDP ; std::vector<ioHashString,std::allocator<ioHashString> >::_Ucopy<std::_Vector_const_iterator<std::_Vector_val<ioHashString,std::allocator<ioHashString> > > >
_TEXT	ENDS
PUBLIC	??$_Dest_val@V?$allocator@V?$basic_string@DU?$char_traits@D@std@@V?$allocator@D@2@@std@@@std@@V?$basic_string@DU?$char_traits@D@std@@V?$allocator@D@2@@2@@std@@YAXAAV?$allocator@V?$basic_string@DU?$char_traits@D@std@@V?$allocator@D@2@@std@@@0@PAV?$basic_string@DU?$char_traits@D@std@@V?$allocator@D@2@@0@@Z ; std::_Dest_val<std::allocator<std::basic_string<char,std::char_traits<char>,std::allocator<char> > >,std::basic_string<char,std::char_traits<char>,std::allocator<char> > >
; Function compile flags: /Ogsp
; File c:\program files (x86)\microsoft visual studio 10.0\vc\include\xmemory
;	COMDAT ??$_Dest_val@V?$allocator@V?$basic_string@DU?$char_traits@D@std@@V?$allocator@D@2@@std@@@std@@V?$basic_string@DU?$char_traits@D@std@@V?$allocator@D@2@@2@@std@@YAXAAV?$allocator@V?$basic_string@DU?$char_traits@D@std@@V?$allocator@D@2@@std@@@0@PAV?$basic_string@DU?$char_traits@D@std@@V?$allocator@D@2@@0@@Z
_TEXT	SEGMENT
__Alval$ = 8						; size = 4
__Pdest$ = 12						; size = 4
??$_Dest_val@V?$allocator@V?$basic_string@DU?$char_traits@D@std@@V?$allocator@D@2@@std@@@std@@V?$basic_string@DU?$char_traits@D@std@@V?$allocator@D@2@@2@@std@@YAXAAV?$allocator@V?$basic_string@DU?$char_traits@D@std@@V?$allocator@D@2@@std@@@0@PAV?$basic_string@DU?$char_traits@D@std@@V?$allocator@D@2@@0@@Z PROC ; std::_Dest_val<std::allocator<std::basic_string<char,std::char_traits<char>,std::allocator<char> > >,std::basic_string<char,std::char_traits<char>,std::allocator<char> > >, COMDAT

; 286  : 	{	// destroy using allocator

  00000	55		 push	 ebp
  00001	8b ec		 mov	 ebp, esp

; 287  : 	_Alval.destroy(_Pdest);

  00003	8b 4d 0c	 mov	 ecx, DWORD PTR __Pdest$[ebp]
  00006	6a 00		 push	 0
  00008	6a 01		 push	 1
  0000a	e8 00 00 00 00	 call	 ?_Tidy@?$basic_string@DU?$char_traits@D@std@@V?$allocator@D@2@@std@@QAEX_NI@Z ; std::basic_string<char,std::char_traits<char>,std::allocator<char> >::_Tidy

; 288  : 	}

  0000f	5d		 pop	 ebp
  00010	c3		 ret	 0
??$_Dest_val@V?$allocator@V?$basic_string@DU?$char_traits@D@std@@V?$allocator@D@2@@std@@@std@@V?$basic_string@DU?$char_traits@D@std@@V?$allocator@D@2@@2@@std@@YAXAAV?$allocator@V?$basic_string@DU?$char_traits@D@std@@V?$allocator@D@2@@std@@@0@PAV?$basic_string@DU?$char_traits@D@std@@V?$allocator@D@2@@0@@Z ENDP ; std::_Dest_val<std::allocator<std::basic_string<char,std::char_traits<char>,std::allocator<char> > >,std::basic_string<char,std::char_traits<char>,std::allocator<char> > >
_TEXT	ENDS
PUBLIC	?_Tidy@?$vector@UColorText@ioMission@@V?$allocator@UColorText@ioMission@@@std@@@std@@IAEXXZ ; std::vector<ioMission::ColorText,std::allocator<ioMission::ColorText> >::_Tidy
EXTRN	__imp_?_Orphan_all@_Container_base0@std@@QAEXXZ:PROC
; Function compile flags: /Ogsp
; File c:\program files (x86)\microsoft visual studio 10.0\vc\include\vector
;	COMDAT ?_Tidy@?$vector@UColorText@ioMission@@V?$allocator@UColorText@ioMission@@@std@@@std@@IAEXXZ
_TEXT	SEGMENT
?_Tidy@?$vector@UColorText@ioMission@@V?$allocator@UColorText@ioMission@@@std@@@std@@IAEXXZ PROC ; std::vector<ioMission::ColorText,std::allocator<ioMission::ColorText> >::_Tidy, COMDAT
; _this$ = ecx

; 1301 : 		{	// free all storage

  00000	56		 push	 esi
  00001	8b f1		 mov	 esi, ecx

; 1302 : 		if (this->_Myfirst != 0)

  00003	83 3e 00	 cmp	 DWORD PTR [esi], 0
  00006	74 1e		 je	 SHORT $LN6@Tidy@2

; 1303 : 			{	// something to free, destroy and deallocate it
; 1304 : 			this->_Orphan_all();

  00008	ff 15 00 00 00
	00		 call	 DWORD PTR __imp_?_Orphan_all@_Container_base0@std@@QAEXXZ

; 1305 : 			_Destroy(this->_Myfirst, this->_Mylast);

  0000e	8d 46 0c	 lea	 eax, DWORD PTR [esi+12]
  00011	50		 push	 eax
  00012	ff 76 04	 push	 DWORD PTR [esi+4]
  00015	ff 36		 push	 DWORD PTR [esi]
  00017	e8 00 00 00 00	 call	 ??$_Destroy_range@V?$allocator@UColorText@ioMission@@@std@@@std@@YAXPAUColorText@ioMission@@0AAV?$allocator@UColorText@ioMission@@@0@@Z ; std::_Destroy_range<std::allocator<ioMission::ColorText> >

; 1306 : 			this->_Alval.deallocate(this->_Myfirst,
; 1307 : 				this->_Myend - this->_Myfirst);

  0001c	ff 36		 push	 DWORD PTR [esi]
  0001e	e8 00 00 00 00	 call	 ??3@YAXPAX@Z		; operator delete
  00023	83 c4 10	 add	 esp, 16			; 00000010H
$LN6@Tidy@2:

; 1308 : 			}
; 1309 : 		this->_Myfirst = 0;

  00026	83 26 00	 and	 DWORD PTR [esi], 0

; 1310 : 		this->_Mylast = 0;

  00029	83 66 04 00	 and	 DWORD PTR [esi+4], 0

; 1311 : 		this->_Myend = 0;

  0002d	83 66 08 00	 and	 DWORD PTR [esi+8], 0
  00031	5e		 pop	 esi

; 1312 : 		}

  00032	c3		 ret	 0
?_Tidy@?$vector@UColorText@ioMission@@V?$allocator@UColorText@ioMission@@@std@@@std@@IAEXXZ ENDP ; std::vector<ioMission::ColorText,std::allocator<ioMission::ColorText> >::_Tidy
_TEXT	ENDS
PUBLIC	?reserve@?$vector@VioHashString@@V?$allocator@VioHashString@@@std@@@std@@QAEXI@Z ; std::vector<ioHashString,std::allocator<ioHashString> >::reserve
;	COMDAT xdata$x
; File c:\program files (x86)\microsoft visual studio 10.0\vc\include\xmemory
xdata$x	SEGMENT
__catchsym$?reserve@?$vector@VioHashString@@V?$allocator@VioHashString@@@std@@@std@@QAEXI@Z$2 DD 040H
	DD	00H
	DD	00H
	DD	FLAT:__catch$?reserve@?$vector@VioHashString@@V?$allocator@VioHashString@@@std@@@std@@QAEXI@Z$0
__unwindtable$?reserve@?$vector@VioHashString@@V?$allocator@VioHashString@@@std@@@std@@QAEXI@Z DD 0ffffffffH
	DD	00H
	DD	0ffffffffH
	DD	00H
__tryblocktable$?reserve@?$vector@VioHashString@@V?$allocator@VioHashString@@@std@@@std@@QAEXI@Z DD 00H
	DD	00H
	DD	01H
	DD	01H
	DD	FLAT:__catchsym$?reserve@?$vector@VioHashString@@V?$allocator@VioHashString@@@std@@@std@@QAEXI@Z$2
__ehfuncinfo$?reserve@?$vector@VioHashString@@V?$allocator@VioHashString@@@std@@@std@@QAEXI@Z DD 019930522H
	DD	02H
	DD	FLAT:__unwindtable$?reserve@?$vector@VioHashString@@V?$allocator@VioHashString@@@std@@@std@@QAEXI@Z
	DD	01H
	DD	FLAT:__tryblocktable$?reserve@?$vector@VioHashString@@V?$allocator@VioHashString@@@std@@@std@@QAEXI@Z
	DD	2 DUP(00H)
	DD	00H
	DD	01H
; Function compile flags: /Ogsp
; File c:\program files (x86)\microsoft visual studio 10.0\vc\include\vector
xdata$x	ENDS
;	COMDAT ?reserve@?$vector@VioHashString@@V?$allocator@VioHashString@@@std@@@std@@QAEXI@Z
_TEXT	SEGMENT
tv300 = -24						; size = 4
__Ptr$509350 = -20					; size = 4
__$EHRec$ = -16						; size = 16
$T514737 = 8						; size = 4
__Count$ = 8						; size = 4
?reserve@?$vector@VioHashString@@V?$allocator@VioHashString@@@std@@@std@@QAEXI@Z PROC ; std::vector<ioHashString,std::allocator<ioHashString> >::reserve, COMDAT
; _this$ = ecx

; 746  : 		{	// determine new minimum length of allocated storage

  00000	6a 0c		 push	 12			; 0000000cH
  00002	b8 00 00 00 00	 mov	 eax, __ehhandler$?reserve@?$vector@VioHashString@@V?$allocator@VioHashString@@@std@@@std@@QAEXI@Z
  00007	e8 00 00 00 00	 call	 __EH_prolog3_catch
  0000c	8b f1		 mov	 esi, ecx

; 747  : 		if (max_size() < _Count)

  0000e	8b 5d 08	 mov	 ebx, DWORD PTR __Count$[ebp]
  00011	81 fb ff ff ff
	0f		 cmp	 ebx, 268435455		; 0fffffffH
  00017	76 0b		 jbe	 SHORT $LN5@reserve

; 748  : 			_Xlen();	// result too long

  00019	68 00 00 00 00	 push	 OFFSET ??_C@_0BD@OLBABOEK@vector?$DMT?$DO?5too?5long?$AA@
  0001e	ff 15 00 00 00
	00		 call	 DWORD PTR __imp_?_Xlength_error@std@@YAXPBD@Z
$LN59@reserve:
$LN5@reserve:

; 749  : 		else if (capacity() < _Count)

  00024	8b 46 08	 mov	 eax, DWORD PTR [esi+8]
  00027	2b 06		 sub	 eax, DWORD PTR [esi]
  00029	c1 f8 04	 sar	 eax, 4
  0002c	3b c3		 cmp	 eax, ebx
  0002e	73 7a		 jae	 SHORT $LN3@reserve

; 750  : 			{	// not enough room, reallocate
; 751  : 			pointer _Ptr = this->_Alval.allocate(_Count);

  00030	6a 00		 push	 0
  00032	53		 push	 ebx
  00033	e8 00 00 00 00	 call	 ??$_Allocate@VioHashString@@@std@@YAPAVioHashString@@IPAV1@@Z ; std::_Allocate<ioHashString>

; 752  : 
; 753  : 			_TRY_BEGIN
; 754  : 			_Umove(this->_Myfirst, this->_Mylast, _Ptr);

  00038	8b 0e		 mov	 ecx, DWORD PTR [esi]
  0003a	83 65 fc 00	 and	 DWORD PTR __$EHRec$[ebp+12], 0
  0003e	8d 56 0c	 lea	 edx, DWORD PTR [esi+12]
  00041	52		 push	 edx
  00042	89 45 ec	 mov	 DWORD PTR __Ptr$509350[ebp], eax
  00045	ff 75 ec	 push	 DWORD PTR __Ptr$509350[ebp]
  00048	8b 46 04	 mov	 eax, DWORD PTR [esi+4]
  0004b	50		 push	 eax
  0004c	51		 push	 ecx
  0004d	e8 00 00 00 00	 call	 ??$_Uninitialized_move@PAVioHashString@@PAV1@V?$allocator@VioHashString@@@std@@@std@@YAPAVioHashString@@PAV1@00AAV?$allocator@VioHashString@@@0@@Z ; std::_Uninitialized_move<ioHashString *,ioHashString *,std::allocator<ioHashString> >

; 758  : 			_CATCH_END
; 759  : 
; 760  : 			size_type _Size = size();

  00052	8b 4e 04	 mov	 ecx, DWORD PTR [esi+4]
  00055	8b 06		 mov	 eax, DWORD PTR [esi]
  00057	83 4d fc ff	 or	 DWORD PTR __$EHRec$[ebp+12], -1
  0005b	8b f9		 mov	 edi, ecx
  0005d	83 c4 18	 add	 esp, 24			; 00000018H
  00060	2b f8		 sub	 edi, eax
  00062	89 4d e8	 mov	 DWORD PTR tv300[ebp], ecx
  00065	85 c0		 test	 eax, eax
  00067	74 24		 je	 SHORT $LN51@reserve

; 761  : 			if (this->_Myfirst != 0)
; 762  : 				{	// destroy and deallocate old array
; 763  : 				_Destroy(this->_Myfirst, this->_Mylast);

  00069	89 45 08	 mov	 DWORD PTR $T514737[ebp], eax
  0006c	3b c1		 cmp	 eax, ecx
  0006e	74 15		 je	 SHORT $LN37@reserve
$LN39@reserve:
  00070	8b 4d 08	 mov	 ecx, DWORD PTR $T514737[ebp]
  00073	ff 15 00 00 00
	00		 call	 DWORD PTR __imp_??1ioHashString@@QAE@XZ
  00079	83 45 08 10	 add	 DWORD PTR $T514737[ebp], 16 ; 00000010H
  0007d	8b 45 08	 mov	 eax, DWORD PTR $T514737[ebp]
  00080	3b 45 e8	 cmp	 eax, DWORD PTR tv300[ebp]
  00083	75 eb		 jne	 SHORT $LN39@reserve
$LN37@reserve:

; 764  : 				this->_Alval.deallocate(this->_Myfirst,
; 765  : 					this->_Myend - this->_Myfirst);

  00085	ff 36		 push	 DWORD PTR [esi]
  00087	e8 00 00 00 00	 call	 ??3@YAXPAX@Z		; operator delete
  0008c	59		 pop	 ecx
$LN51@reserve:

; 766  : 				}
; 767  : 
; 768  : 			this->_Orphan_all();

  0008d	8b ce		 mov	 ecx, esi
  0008f	ff 15 00 00 00
	00		 call	 DWORD PTR __imp_?_Orphan_all@_Container_base0@std@@QAEXXZ

; 769  : 			this->_Myend = _Ptr + _Count;

  00095	8b 45 ec	 mov	 eax, DWORD PTR __Ptr$509350[ebp]
  00098	c1 e3 04	 shl	 ebx, 4
  0009b	03 d8		 add	 ebx, eax

; 770  : 			this->_Mylast = _Ptr + _Size;

  0009d	83 e7 f0	 and	 edi, -16		; fffffff0H
  000a0	03 f8		 add	 edi, eax
  000a2	89 5e 08	 mov	 DWORD PTR [esi+8], ebx
  000a5	89 7e 04	 mov	 DWORD PTR [esi+4], edi

; 771  : 			this->_Myfirst = _Ptr;

  000a8	89 06		 mov	 DWORD PTR [esi], eax
$LN3@reserve:

; 772  : 			}
; 773  : 		}

  000aa	e8 00 00 00 00	 call	 __EH_epilog3
  000af	c2 04 00	 ret	 4
__catch$?reserve@?$vector@VioHashString@@V?$allocator@VioHashString@@@std@@@std@@QAEXI@Z$0:

; 755  : 			_CATCH_ALL
; 756  : 			this->_Alval.deallocate(_Ptr, _Count);

  000b2	ff 75 ec	 push	 DWORD PTR __Ptr$509350[ebp]
  000b5	e8 00 00 00 00	 call	 ??3@YAXPAX@Z		; operator delete
  000ba	59		 pop	 ecx

; 757  : 			_RERAISE;

  000bb	6a 00		 push	 0
  000bd	6a 00		 push	 0
  000bf	e8 00 00 00 00	 call	 __CxxThrowException@8
$LN60@reserve:
$LN58@reserve:
  000c4	cc		 int	 3
_TEXT	ENDS
;	COMDAT text$x
text$x	SEGMENT
__ehhandler$?reserve@?$vector@VioHashString@@V?$allocator@VioHashString@@@std@@@std@@QAEXI@Z:
  00000	8b 54 24 08	 mov	 edx, DWORD PTR [esp+8]
  00004	8d 42 0c	 lea	 eax, DWORD PTR [edx+12]
  00007	8b 4a e4	 mov	 ecx, DWORD PTR [edx-28]
  0000a	33 c8		 xor	 ecx, eax
  0000c	e8 00 00 00 00	 call	 @__security_check_cookie@4
  00011	b8 00 00 00 00	 mov	 eax, OFFSET __ehfuncinfo$?reserve@?$vector@VioHashString@@V?$allocator@VioHashString@@@std@@@std@@QAEXI@Z
  00016	e9 00 00 00 00	 jmp	 ___CxxFrameHandler3
text$x	ENDS
?reserve@?$vector@VioHashString@@V?$allocator@VioHashString@@@std@@@std@@QAEXI@Z ENDP ; std::vector<ioHashString,std::allocator<ioHashString> >::reserve
PUBLIC	?reserve@?$vector@UColorText@ioMission@@V?$allocator@UColorText@ioMission@@@std@@@std@@QAEXI@Z ; std::vector<ioMission::ColorText,std::allocator<ioMission::ColorText> >::reserve
;	COMDAT xdata$x
; File c:\program files (x86)\microsoft visual studio 10.0\vc\include\xmemory
xdata$x	SEGMENT
__catchsym$?reserve@?$vector@UColorText@ioMission@@V?$allocator@UColorText@ioMission@@@std@@@std@@QAEXI@Z$2 DD 040H
	DD	00H
	DD	00H
	DD	FLAT:__catch$?reserve@?$vector@UColorText@ioMission@@V?$allocator@UColorText@ioMission@@@std@@@std@@QAEXI@Z$0
__unwindtable$?reserve@?$vector@UColorText@ioMission@@V?$allocator@UColorText@ioMission@@@std@@@std@@QAEXI@Z DD 0ffffffffH
	DD	00H
	DD	0ffffffffH
	DD	00H
__tryblocktable$?reserve@?$vector@UColorText@ioMission@@V?$allocator@UColorText@ioMission@@@std@@@std@@QAEXI@Z DD 00H
	DD	00H
	DD	01H
	DD	01H
	DD	FLAT:__catchsym$?reserve@?$vector@UColorText@ioMission@@V?$allocator@UColorText@ioMission@@@std@@@std@@QAEXI@Z$2
__ehfuncinfo$?reserve@?$vector@UColorText@ioMission@@V?$allocator@UColorText@ioMission@@@std@@@std@@QAEXI@Z DD 019930522H
	DD	02H
	DD	FLAT:__unwindtable$?reserve@?$vector@UColorText@ioMission@@V?$allocator@UColorText@ioMission@@@std@@@std@@QAEXI@Z
	DD	01H
	DD	FLAT:__tryblocktable$?reserve@?$vector@UColorText@ioMission@@V?$allocator@UColorText@ioMission@@@std@@@std@@QAEXI@Z
	DD	2 DUP(00H)
	DD	00H
	DD	01H
; Function compile flags: /Ogsp
; File c:\program files (x86)\microsoft visual studio 10.0\vc\include\vector
xdata$x	ENDS
;	COMDAT ?reserve@?$vector@UColorText@ioMission@@V?$allocator@UColorText@ioMission@@@std@@@std@@QAEXI@Z
_TEXT	SEGMENT
__$EHRec$ = -16						; size = 16
__Ptr$509424 = 8					; size = 4
__Count$ = 8						; size = 4
?reserve@?$vector@UColorText@ioMission@@V?$allocator@UColorText@ioMission@@@std@@@std@@QAEXI@Z PROC ; std::vector<ioMission::ColorText,std::allocator<ioMission::ColorText> >::reserve, COMDAT
; _this$ = ecx

; 746  : 		{	// determine new minimum length of allocated storage

  00000	6a 04		 push	 4
  00002	b8 00 00 00 00	 mov	 eax, __ehhandler$?reserve@?$vector@UColorText@ioMission@@V?$allocator@UColorText@ioMission@@@std@@@std@@QAEXI@Z
  00007	e8 00 00 00 00	 call	 __EH_prolog3_catch
  0000c	8b f1		 mov	 esi, ecx

; 747  : 		if (max_size() < _Count)

  0000e	8b 5d 08	 mov	 ebx, DWORD PTR __Count$[ebp]
  00011	81 fb cc cc cc
	0c		 cmp	 ebx, 214748364		; 0cccccccH
  00017	76 0b		 jbe	 SHORT $LN5@reserve@2

; 748  : 			_Xlen();	// result too long

  00019	68 00 00 00 00	 push	 OFFSET ??_C@_0BD@OLBABOEK@vector?$DMT?$DO?5too?5long?$AA@
  0001e	ff 15 00 00 00
	00		 call	 DWORD PTR __imp_?_Xlength_error@std@@YAXPBD@Z
$LN38@reserve@2:
$LN5@reserve@2:

; 749  : 		else if (capacity() < _Count)

  00024	8b 46 08	 mov	 eax, DWORD PTR [esi+8]
  00027	2b 06		 sub	 eax, DWORD PTR [esi]
  00029	6a 14		 push	 20			; 00000014H
  0002b	99		 cdq
  0002c	59		 pop	 ecx
  0002d	f7 f9		 idiv	 ecx
  0002f	3b c3		 cmp	 eax, ebx
  00031	73 70		 jae	 SHORT $LN3@reserve@2

; 750  : 			{	// not enough room, reallocate
; 751  : 			pointer _Ptr = this->_Alval.allocate(_Count);

  00033	6a 00		 push	 0
  00035	53		 push	 ebx
  00036	e8 00 00 00 00	 call	 ??$_Allocate@UColorText@ioMission@@@std@@YAPAUColorText@ioMission@@IPAU12@@Z ; std::_Allocate<ioMission::ColorText>

; 752  : 
; 753  : 			_TRY_BEGIN
; 754  : 			_Umove(this->_Myfirst, this->_Mylast, _Ptr);

  0003b	8b 0e		 mov	 ecx, DWORD PTR [esi]
  0003d	83 65 fc 00	 and	 DWORD PTR __$EHRec$[ebp+12], 0
  00041	8d 56 0c	 lea	 edx, DWORD PTR [esi+12]
  00044	52		 push	 edx
  00045	89 45 08	 mov	 DWORD PTR __Ptr$509424[ebp], eax
  00048	ff 75 08	 push	 DWORD PTR __Ptr$509424[ebp]
  0004b	8b 46 04	 mov	 eax, DWORD PTR [esi+4]
  0004e	50		 push	 eax
  0004f	51		 push	 ecx
  00050	e8 00 00 00 00	 call	 ??$_Uninitialized_move@PAUColorText@ioMission@@PAU12@V?$allocator@UColorText@ioMission@@@std@@@std@@YAPAUColorText@ioMission@@PAU12@00AAV?$allocator@UColorText@ioMission@@@0@@Z ; std::_Uninitialized_move<ioMission::ColorText *,ioMission::ColorText *,std::allocator<ioMission::ColorText> >

; 758  : 			_CATCH_END
; 759  : 
; 760  : 			size_type _Size = size();

  00055	8b 0e		 mov	 ecx, DWORD PTR [esi]
  00057	8b 46 04	 mov	 eax, DWORD PTR [esi+4]
  0005a	83 c4 18	 add	 esp, 24			; 00000018H
  0005d	2b c1		 sub	 eax, ecx
  0005f	6a 14		 push	 20			; 00000014H
  00061	99		 cdq
  00062	5f		 pop	 edi
  00063	f7 ff		 idiv	 edi
  00065	83 4d fc ff	 or	 DWORD PTR __$EHRec$[ebp+12], -1
  00069	8b f8		 mov	 edi, eax
  0006b	85 c9		 test	 ecx, ecx
  0006d	74 17		 je	 SHORT $LN33@reserve@2

; 761  : 			if (this->_Myfirst != 0)
; 762  : 				{	// destroy and deallocate old array
; 763  : 				_Destroy(this->_Myfirst, this->_Mylast);

  0006f	8d 46 0c	 lea	 eax, DWORD PTR [esi+12]
  00072	50		 push	 eax
  00073	ff 76 04	 push	 DWORD PTR [esi+4]
  00076	51		 push	 ecx
  00077	e8 00 00 00 00	 call	 ??$_Destroy_range@V?$allocator@UColorText@ioMission@@@std@@@std@@YAXPAUColorText@ioMission@@0AAV?$allocator@UColorText@ioMission@@@0@@Z ; std::_Destroy_range<std::allocator<ioMission::ColorText> >

; 764  : 				this->_Alval.deallocate(this->_Myfirst,
; 765  : 					this->_Myend - this->_Myfirst);

  0007c	ff 36		 push	 DWORD PTR [esi]
  0007e	e8 00 00 00 00	 call	 ??3@YAXPAX@Z		; operator delete
  00083	83 c4 10	 add	 esp, 16			; 00000010H
$LN33@reserve@2:

; 766  : 				}
; 767  : 
; 768  : 			this->_Orphan_all();

  00086	8b ce		 mov	 ecx, esi
  00088	ff 15 00 00 00
	00		 call	 DWORD PTR __imp_?_Orphan_all@_Container_base0@std@@QAEXXZ

; 769  : 			this->_Myend = _Ptr + _Count;

  0008e	6b db 14	 imul	 ebx, 20			; 00000014H

; 770  : 			this->_Mylast = _Ptr + _Size;

  00091	6b ff 14	 imul	 edi, 20			; 00000014H
  00094	8b 45 08	 mov	 eax, DWORD PTR __Ptr$509424[ebp]
  00097	03 d8		 add	 ebx, eax
  00099	03 f8		 add	 edi, eax
  0009b	89 5e 08	 mov	 DWORD PTR [esi+8], ebx
  0009e	89 7e 04	 mov	 DWORD PTR [esi+4], edi

; 771  : 			this->_Myfirst = _Ptr;

  000a1	89 06		 mov	 DWORD PTR [esi], eax
$LN3@reserve@2:

; 772  : 			}
; 773  : 		}

  000a3	e8 00 00 00 00	 call	 __EH_epilog3
  000a8	c2 04 00	 ret	 4
__catch$?reserve@?$vector@UColorText@ioMission@@V?$allocator@UColorText@ioMission@@@std@@@std@@QAEXI@Z$0:

; 755  : 			_CATCH_ALL
; 756  : 			this->_Alval.deallocate(_Ptr, _Count);

  000ab	ff 75 08	 push	 DWORD PTR __Ptr$509424[ebp]
  000ae	e8 00 00 00 00	 call	 ??3@YAXPAX@Z		; operator delete
  000b3	59		 pop	 ecx

; 757  : 			_RERAISE;

  000b4	6a 00		 push	 0
  000b6	6a 00		 push	 0
  000b8	e8 00 00 00 00	 call	 __CxxThrowException@8
$LN39@reserve@2:
$LN37@reserve@2:
  000bd	cc		 int	 3
_TEXT	ENDS
;	COMDAT text$x
text$x	SEGMENT
__ehhandler$?reserve@?$vector@UColorText@ioMission@@V?$allocator@UColorText@ioMission@@@std@@@std@@QAEXI@Z:
  00000	8b 54 24 08	 mov	 edx, DWORD PTR [esp+8]
  00004	8d 42 0c	 lea	 eax, DWORD PTR [edx+12]
  00007	8b 4a ec	 mov	 ecx, DWORD PTR [edx-20]
  0000a	33 c8		 xor	 ecx, eax
  0000c	e8 00 00 00 00	 call	 @__security_check_cookie@4
  00011	b8 00 00 00 00	 mov	 eax, OFFSET __ehfuncinfo$?reserve@?$vector@UColorText@ioMission@@V?$allocator@UColorText@ioMission@@@std@@@std@@QAEXI@Z
  00016	e9 00 00 00 00	 jmp	 ___CxxFrameHandler3
text$x	ENDS
?reserve@?$vector@UColorText@ioMission@@V?$allocator@UColorText@ioMission@@@std@@@std@@QAEXI@Z ENDP ; std::vector<ioMission::ColorText,std::allocator<ioMission::ColorText> >::reserve
PUBLIC	??0?$vector@UColorText@ioMission@@V?$allocator@UColorText@ioMission@@@std@@@std@@QAE@ABV01@@Z ; std::vector<ioMission::ColorText,std::allocator<ioMission::ColorText> >::vector<ioMission::ColorText,std::allocator<ioMission::ColorText> >
;	COMDAT xdata$x
; File c:\program files (x86)\microsoft visual studio 10.0\vc\include\xutility
xdata$x	SEGMENT
__catchsym$??0?$vector@UColorText@ioMission@@V?$allocator@UColorText@ioMission@@@std@@@std@@QAE@ABV01@@Z$2 DD 040H
	DD	00H
	DD	00H
	DD	FLAT:__catch$??0?$vector@UColorText@ioMission@@V?$allocator@UColorText@ioMission@@@std@@@std@@QAE@ABV01@@Z$0
__unwindtable$??0?$vector@UColorText@ioMission@@V?$allocator@UColorText@ioMission@@@std@@@std@@QAE@ABV01@@Z DD 0ffffffffH
	DD	00H
	DD	0ffffffffH
	DD	00H
__tryblocktable$??0?$vector@UColorText@ioMission@@V?$allocator@UColorText@ioMission@@@std@@@std@@QAE@ABV01@@Z DD 00H
	DD	00H
	DD	01H
	DD	01H
	DD	FLAT:__catchsym$??0?$vector@UColorText@ioMission@@V?$allocator@UColorText@ioMission@@@std@@@std@@QAE@ABV01@@Z$2
__ehfuncinfo$??0?$vector@UColorText@ioMission@@V?$allocator@UColorText@ioMission@@@std@@@std@@QAE@ABV01@@Z DD 019930522H
	DD	02H
	DD	FLAT:__unwindtable$??0?$vector@UColorText@ioMission@@V?$allocator@UColorText@ioMission@@@std@@@std@@QAE@ABV01@@Z
	DD	01H
	DD	FLAT:__tryblocktable$??0?$vector@UColorText@ioMission@@V?$allocator@UColorText@ioMission@@@std@@@std@@QAE@ABV01@@Z
	DD	2 DUP(00H)
	DD	00H
	DD	01H
; Function compile flags: /Ogsp
; File c:\program files (x86)\microsoft visual studio 10.0\vc\include\vector
xdata$x	ENDS
;	COMDAT ??0?$vector@UColorText@ioMission@@V?$allocator@UColorText@ioMission@@@std@@@std@@QAE@ABV01@@Z
_TEXT	SEGMENT
_this$ = -20						; size = 4
__$EHRec$ = -16						; size = 16
__Cat$514946 = 8					; size = 1
__Right$ = 8						; size = 4
??0?$vector@UColorText@ioMission@@V?$allocator@UColorText@ioMission@@@std@@@std@@QAE@ABV01@@Z PROC ; std::vector<ioMission::ColorText,std::allocator<ioMission::ColorText> >::vector<ioMission::ColorText,std::allocator<ioMission::ColorText> >, COMDAT
; _this$ = ecx

; 535  : 		{	// construct by copying _Right

  00000	6a 08		 push	 8
  00002	b8 00 00 00 00	 mov	 eax, __ehhandler$??0?$vector@UColorText@ioMission@@V?$allocator@UColorText@ioMission@@@std@@@std@@QAE@ABV01@@Z
  00007	e8 00 00 00 00	 call	 __EH_prolog3_catch
  0000c	8b f1		 mov	 esi, ecx
  0000e	89 75 ec	 mov	 DWORD PTR _this$[ebp], esi

; 536  : 		if (_Buy(_Right.size()))

  00011	8b 7d 08	 mov	 edi, DWORD PTR __Right$[ebp]
  00014	33 db		 xor	 ebx, ebx
  00016	89 1e		 mov	 DWORD PTR [esi], ebx
  00018	89 5e 04	 mov	 DWORD PTR [esi+4], ebx
  0001b	89 5e 08	 mov	 DWORD PTR [esi+8], ebx
  0001e	8b 47 04	 mov	 eax, DWORD PTR [edi+4]
  00021	2b 07		 sub	 eax, DWORD PTR [edi]
  00023	6a 14		 push	 20			; 00000014H
  00025	59		 pop	 ecx
  00026	99		 cdq
  00027	f7 f9		 idiv	 ecx
  00029	8b ce		 mov	 ecx, esi
  0002b	50		 push	 eax
  0002c	e8 00 00 00 00	 call	 ?_Buy@?$vector@UColorText@ioMission@@V?$allocator@UColorText@ioMission@@@std@@@std@@IAE_NI@Z ; std::vector<ioMission::ColorText,std::allocator<ioMission::ColorText> >::_Buy
  00031	84 c0		 test	 al, al
  00033	74 1f		 je	 SHORT $LN7@vector

; 537  : 			_TRY_BEGIN
; 538  : 			this->_Mylast = _Ucopy(_Right.begin(), _Right.end(),
; 539  : 				this->_Myfirst);

  00035	ff 75 08	 push	 DWORD PTR __Cat$514946[ebp]
  00038	8b 0e		 mov	 ecx, DWORD PTR [esi]
  0003a	8b 47 04	 mov	 eax, DWORD PTR [edi+4]
  0003d	8b 3f		 mov	 edi, DWORD PTR [edi]
  0003f	8d 56 0c	 lea	 edx, DWORD PTR [esi+12]
  00042	52		 push	 edx
  00043	51		 push	 ecx
  00044	50		 push	 eax
  00045	57		 push	 edi
  00046	89 5d fc	 mov	 DWORD PTR __$EHRec$[ebp+12], ebx
  00049	e8 00 00 00 00	 call	 ??$_Uninit_copy@V?$_Vector_const_iterator@V?$_Vector_val@UColorText@ioMission@@V?$allocator@UColorText@ioMission@@@std@@@std@@@std@@PAUColorText@ioMission@@V?$allocator@UColorText@ioMission@@@2@@std@@YAPAUColorText@ioMission@@V?$_Vector_const_iterator@V?$_Vector_val@UColorText@ioMission@@V?$allocator@UColorText@ioMission@@@std@@@std@@@0@0PAU12@AAV?$allocator@UColorText@ioMission@@@0@U_Nonscalar_ptr_iterator_tag@0@@Z ; std::_Uninit_copy<std::_Vector_const_iterator<std::_Vector_val<ioMission::ColorText,std::allocator<ioMission::ColorText> > >,ioMission::ColorText *,std::allocator<ioMission::ColorText> >
  0004e	83 c4 14	 add	 esp, 20			; 00000014H
  00051	89 46 04	 mov	 DWORD PTR [esi+4], eax
$LN7@vector:

; 543  : 			_CATCH_END
; 544  : 		}

  00054	8b c6		 mov	 eax, esi
  00056	e8 00 00 00 00	 call	 __EH_epilog3
  0005b	c2 04 00	 ret	 4
__catch$??0?$vector@UColorText@ioMission@@V?$allocator@UColorText@ioMission@@@std@@@std@@QAE@ABV01@@Z$0:

; 540  : 			_CATCH_ALL
; 541  : 			_Tidy();

  0005e	8b 4d ec	 mov	 ecx, DWORD PTR _this$[ebp]
  00061	e8 00 00 00 00	 call	 ?_Tidy@?$vector@UColorText@ioMission@@V?$allocator@UColorText@ioMission@@@std@@@std@@IAEXXZ ; std::vector<ioMission::ColorText,std::allocator<ioMission::ColorText> >::_Tidy

; 542  : 			_RERAISE;

  00066	33 db		 xor	 ebx, ebx
  00068	53		 push	 ebx
  00069	53		 push	 ebx
  0006a	e8 00 00 00 00	 call	 __CxxThrowException@8
$LN38@vector:
$LN37@vector:
  0006f	cc		 int	 3
_TEXT	ENDS
;	COMDAT text$x
text$x	SEGMENT
__ehhandler$??0?$vector@UColorText@ioMission@@V?$allocator@UColorText@ioMission@@@std@@@std@@QAE@ABV01@@Z:
  00000	8b 54 24 08	 mov	 edx, DWORD PTR [esp+8]
  00004	8d 42 0c	 lea	 eax, DWORD PTR [edx+12]
  00007	8b 4a e8	 mov	 ecx, DWORD PTR [edx-24]
  0000a	33 c8		 xor	 ecx, eax
  0000c	e8 00 00 00 00	 call	 @__security_check_cookie@4
  00011	b8 00 00 00 00	 mov	 eax, OFFSET __ehfuncinfo$??0?$vector@UColorText@ioMission@@V?$allocator@UColorText@ioMission@@@std@@@std@@QAE@ABV01@@Z
  00016	e9 00 00 00 00	 jmp	 ___CxxFrameHandler3
text$x	ENDS
??0?$vector@UColorText@ioMission@@V?$allocator@UColorText@ioMission@@@std@@@std@@QAE@ABV01@@Z ENDP ; std::vector<ioMission::ColorText,std::allocator<ioMission::ColorText> >::vector<ioMission::ColorText,std::allocator<ioMission::ColorText> >
PUBLIC	?construct@?$allocator@V?$basic_string@DU?$char_traits@D@std@@V?$allocator@D@2@@std@@@std@@QAEXPAV?$basic_string@DU?$char_traits@D@std@@V?$allocator@D@2@@2@ABV32@@Z ; std::allocator<std::basic_string<char,std::char_traits<char>,std::allocator<char> > >::construct
; Function compile flags: /Ogsp
; File c:\program files (x86)\microsoft visual studio 10.0\vc\include\xmemory
;	COMDAT ?construct@?$allocator@V?$basic_string@DU?$char_traits@D@std@@V?$allocator@D@2@@std@@@std@@QAEXPAV?$basic_string@DU?$char_traits@D@std@@V?$allocator@D@2@@2@ABV32@@Z
_TEXT	SEGMENT
__Ptr$ = 8						; size = 4
__Val$ = 12						; size = 4
?construct@?$allocator@V?$basic_string@DU?$char_traits@D@std@@V?$allocator@D@2@@std@@@std@@QAEXPAV?$basic_string@DU?$char_traits@D@std@@V?$allocator@D@2@@2@ABV32@@Z PROC ; std::allocator<std::basic_string<char,std::char_traits<char>,std::allocator<char> > >::construct, COMDAT
; _this$ = ecx

; 196  : 		{	// construct object at _Ptr with value _Val

  00000	55		 push	 ebp
  00001	8b ec		 mov	 ebp, esp

; 197  : 		_Construct(_Ptr, _Val);

  00003	ff 75 0c	 push	 DWORD PTR __Val$[ebp]
  00006	ff 75 08	 push	 DWORD PTR __Ptr$[ebp]
  00009	e8 00 00 00 00	 call	 ??$_Construct@V?$basic_string@DU?$char_traits@D@std@@V?$allocator@D@2@@std@@ABV12@@std@@YAXPAV?$basic_string@DU?$char_traits@D@std@@V?$allocator@D@2@@0@ABV10@@Z ; std::_Construct<std::basic_string<char,std::char_traits<char>,std::allocator<char> >,std::basic_string<char,std::char_traits<char>,std::allocator<char> > const &>
  0000e	59		 pop	 ecx
  0000f	59		 pop	 ecx

; 198  : 		}

  00010	5d		 pop	 ebp
  00011	c2 08 00	 ret	 8
?construct@?$allocator@V?$basic_string@DU?$char_traits@D@std@@V?$allocator@D@2@@std@@@std@@QAEXPAV?$basic_string@DU?$char_traits@D@std@@V?$allocator@D@2@@2@ABV32@@Z ENDP ; std::allocator<std::basic_string<char,std::char_traits<char>,std::allocator<char> > >::construct
_TEXT	ENDS
PUBLIC	?clear@?$vector@UColorText@ioMission@@V?$allocator@UColorText@ioMission@@@std@@@std@@QAEXXZ ; std::vector<ioMission::ColorText,std::allocator<ioMission::ColorText> >::clear
; Function compile flags: /Ogsp
; File c:\program files (x86)\microsoft visual studio 10.0\vc\include\vector
;	COMDAT ?clear@?$vector@UColorText@ioMission@@V?$allocator@UColorText@ioMission@@@std@@@std@@QAEXXZ
_TEXT	SEGMENT
$T514970 = -4						; size = 4
?clear@?$vector@UColorText@ioMission@@V?$allocator@UColorText@ioMission@@@std@@@std@@QAEXXZ PROC ; std::vector<ioMission::ColorText,std::allocator<ioMission::ColorText> >::clear, COMDAT
; _this$ = ecx

; 1217 : 		{	// erase all

  00000	55		 push	 ebp
  00001	8b ec		 mov	 ebp, esp
  00003	51		 push	 ecx

; 1218 : 		erase(begin(), end());

  00004	8b 41 04	 mov	 eax, DWORD PTR [ecx+4]
  00007	8b 11		 mov	 edx, DWORD PTR [ecx]
  00009	50		 push	 eax
  0000a	52		 push	 edx
  0000b	8d 45 fc	 lea	 eax, DWORD PTR $T514970[ebp]
  0000e	50		 push	 eax
  0000f	e8 00 00 00 00	 call	 ?erase@?$vector@UColorText@ioMission@@V?$allocator@UColorText@ioMission@@@std@@@std@@QAE?AV?$_Vector_iterator@V?$_Vector_val@UColorText@ioMission@@V?$allocator@UColorText@ioMission@@@std@@@std@@@2@V?$_Vector_const_iterator@V?$_Vector_val@UColorText@ioMission@@V?$allocator@UColorText@ioMission@@@std@@@std@@@2@0@Z ; std::vector<ioMission::ColorText,std::allocator<ioMission::ColorText> >::erase

; 1219 : 		}

  00014	c9		 leave
  00015	c3		 ret	 0
?clear@?$vector@UColorText@ioMission@@V?$allocator@UColorText@ioMission@@@std@@@std@@QAEXXZ ENDP ; std::vector<ioMission::ColorText,std::allocator<ioMission::ColorText> >::clear
_TEXT	ENDS
PUBLIC	?erase@?$vector@VioHashString@@V?$allocator@VioHashString@@@std@@@std@@QAE?AV?$_Vector_iterator@V?$_Vector_val@VioHashString@@V?$allocator@VioHashString@@@std@@@std@@@2@V?$_Vector_const_iterator@V?$_Vector_val@VioHashString@@V?$allocator@VioHashString@@@std@@@std@@@2@0@Z ; std::vector<ioHashString,std::allocator<ioHashString> >::erase
; Function compile flags: /Ogsp
;	COMDAT ?erase@?$vector@VioHashString@@V?$allocator@VioHashString@@@std@@@std@@QAE?AV?$_Vector_iterator@V?$_Vector_val@VioHashString@@V?$allocator@VioHashString@@@std@@@std@@@2@V?$_Vector_const_iterator@V?$_Vector_val@VioHashString@@V?$allocator@VioHashString@@@std@@@std@@@2@0@Z
_TEXT	SEGMENT
$T515151 = -4						; size = 4
___$ReturnUdt$ = 8					; size = 4
__First_arg$ = 12					; size = 4
__Cat$515096 = 16					; size = 1
__Last_arg$ = 16					; size = 4
?erase@?$vector@VioHashString@@V?$allocator@VioHashString@@@std@@@std@@QAE?AV?$_Vector_iterator@V?$_Vector_val@VioHashString@@V?$allocator@VioHashString@@@std@@@std@@@2@V?$_Vector_const_iterator@V?$_Vector_val@VioHashString@@V?$allocator@VioHashString@@@std@@@std@@@2@0@Z PROC ; std::vector<ioHashString,std::allocator<ioHashString> >::erase, COMDAT
; _this$ = ecx

; 1190 : 		{	// erase [_First, _Last)

  00000	55		 push	 ebp
  00001	8b ec		 mov	 ebp, esp
  00003	51		 push	 ecx

; 1191 : 		iterator _First = _Make_iter(_First_arg);

  00004	8b 45 08	 mov	 eax, DWORD PTR ___$ReturnUdt$[ebp]
  00007	56		 push	 esi
  00008	8b f1		 mov	 esi, ecx
  0000a	8b 4d 0c	 mov	 ecx, DWORD PTR __First_arg$[ebp]
  0000d	89 08		 mov	 DWORD PTR [eax], ecx

; 1192 : 		iterator _Last = _Make_iter(_Last_arg);
; 1193 : 
; 1194 : 		if (_First != _Last)

  0000f	3b 4d 10	 cmp	 ecx, DWORD PTR __Last_arg$[ebp]
  00012	74 38		 je	 SHORT $LN1@erase@3

; 1195 : 			{	// worth doing, copy down over hole
; 1196 :  #if _ITERATOR_DEBUG_LEVEL == 2
; 1197 : 			if (_Last < _First || _VICONT(_First) != this
; 1198 : 				|| _VIPTR(_First) < this->_Myfirst
; 1199 : 				|| this->_Mylast < _VIPTR(_Last))
; 1200 : 				_DEBUG_ERROR("vector erase iterator outside range");
; 1201 : 			pointer _Ptr = _Move(_VIPTR(_Last), this->_Mylast,
; 1202 : 				_VIPTR(_First));
; 1203 : 			_Orphan_range(_VIPTR(_First), this->_Mylast);
; 1204 : 
; 1205 :  #else /* _ITERATOR_DEBUG_LEVEL == 2 */
; 1206 : 			pointer _Ptr = _Move(_VIPTR(_Last), this->_Mylast,
; 1207 : 				_VIPTR(_First));

  00014	8b 46 04	 mov	 eax, DWORD PTR [esi+4]
  00017	53		 push	 ebx
  00018	57		 push	 edi
  00019	ff 75 10	 push	 DWORD PTR __Cat$515096[ebp]
  0001c	51		 push	 ecx
  0001d	50		 push	 eax
  0001e	ff 75 10	 push	 DWORD PTR __Last_arg$[ebp]
  00021	e8 00 00 00 00	 call	 ??$_Move@PAVioHashString@@PAV1@@std@@YAPAVioHashString@@PAV1@00U_Nonscalar_ptr_iterator_tag@0@@Z ; std::_Move<ioHashString *,ioHashString *>

; 1208 :  #endif /* _ITERATOR_DEBUG_LEVEL == 2 */
; 1209 : 
; 1210 : 			_Destroy(_Ptr, this->_Mylast);

  00026	8b 7e 04	 mov	 edi, DWORD PTR [esi+4]
  00029	8b d8		 mov	 ebx, eax
  0002b	83 c4 10	 add	 esp, 16			; 00000010H
  0002e	89 5d fc	 mov	 DWORD PTR $T515151[ebp], ebx
  00031	3b df		 cmp	 ebx, edi
  00033	74 12		 je	 SHORT $LN36@erase@3
$LL52@erase@3:
  00035	8b 4d fc	 mov	 ecx, DWORD PTR $T515151[ebp]
  00038	ff 15 00 00 00
	00		 call	 DWORD PTR __imp_??1ioHashString@@QAE@XZ
  0003e	83 45 fc 10	 add	 DWORD PTR $T515151[ebp], 16 ; 00000010H
  00042	39 7d fc	 cmp	 DWORD PTR $T515151[ebp], edi
  00045	75 ee		 jne	 SHORT $LL52@erase@3
$LN36@erase@3:

; 1211 : 			this->_Mylast = _Ptr;

  00047	5f		 pop	 edi
  00048	89 5e 04	 mov	 DWORD PTR [esi+4], ebx
  0004b	5b		 pop	 ebx
$LN1@erase@3:

; 1212 : 			}
; 1213 : 		return (_First);

  0004c	8b 45 08	 mov	 eax, DWORD PTR ___$ReturnUdt$[ebp]
  0004f	5e		 pop	 esi

; 1214 : 		}

  00050	c9		 leave
  00051	c2 0c 00	 ret	 12			; 0000000cH
?erase@?$vector@VioHashString@@V?$allocator@VioHashString@@@std@@@std@@QAE?AV?$_Vector_iterator@V?$_Vector_val@VioHashString@@V?$allocator@VioHashString@@@std@@@std@@@2@V?$_Vector_const_iterator@V?$_Vector_val@VioHashString@@V?$allocator@VioHashString@@@std@@@std@@@2@0@Z ENDP ; std::vector<ioHashString,std::allocator<ioHashString> >::erase
_TEXT	ENDS
PUBLIC	?_Tidy@?$vector@VioHashString@@V?$allocator@VioHashString@@@std@@@std@@IAEXXZ ; std::vector<ioHashString,std::allocator<ioHashString> >::_Tidy
; Function compile flags: /Ogsp
;	COMDAT ?_Tidy@?$vector@VioHashString@@V?$allocator@VioHashString@@@std@@@std@@IAEXXZ
_TEXT	SEGMENT
?_Tidy@?$vector@VioHashString@@V?$allocator@VioHashString@@@std@@@std@@IAEXXZ PROC ; std::vector<ioHashString,std::allocator<ioHashString> >::_Tidy, COMDAT
; _this$ = ecx

; 1301 : 		{	// free all storage

  00000	56		 push	 esi
  00001	8b f1		 mov	 esi, ecx

; 1302 : 		if (this->_Myfirst != 0)

  00003	83 3e 00	 cmp	 DWORD PTR [esi], 0
  00006	74 28		 je	 SHORT $LN24@Tidy@3

; 1303 : 			{	// something to free, destroy and deallocate it
; 1304 : 			this->_Orphan_all();

  00008	53		 push	 ebx
  00009	57		 push	 edi
  0000a	ff 15 00 00 00
	00		 call	 DWORD PTR __imp_?_Orphan_all@_Container_base0@std@@QAEXXZ

; 1305 : 			_Destroy(this->_Myfirst, this->_Mylast);

  00010	8b 5e 04	 mov	 ebx, DWORD PTR [esi+4]
  00013	8b 3e		 mov	 edi, DWORD PTR [esi]
  00015	eb 0b		 jmp	 SHORT $LN28@Tidy@3
$LL12@Tidy@3:
  00017	8b cf		 mov	 ecx, edi
  00019	ff 15 00 00 00
	00		 call	 DWORD PTR __imp_??1ioHashString@@QAE@XZ
  0001f	83 c7 10	 add	 edi, 16			; 00000010H
$LN28@Tidy@3:
  00022	3b fb		 cmp	 edi, ebx
  00024	75 f1		 jne	 SHORT $LL12@Tidy@3

; 1306 : 			this->_Alval.deallocate(this->_Myfirst,
; 1307 : 				this->_Myend - this->_Myfirst);

  00026	ff 36		 push	 DWORD PTR [esi]
  00028	e8 00 00 00 00	 call	 ??3@YAXPAX@Z		; operator delete
  0002d	59		 pop	 ecx
  0002e	5f		 pop	 edi
  0002f	5b		 pop	 ebx
$LN24@Tidy@3:

; 1308 : 			}
; 1309 : 		this->_Myfirst = 0;

  00030	33 c0		 xor	 eax, eax
  00032	89 06		 mov	 DWORD PTR [esi], eax

; 1310 : 		this->_Mylast = 0;

  00034	89 46 04	 mov	 DWORD PTR [esi+4], eax

; 1311 : 		this->_Myend = 0;

  00037	89 46 08	 mov	 DWORD PTR [esi+8], eax
  0003a	5e		 pop	 esi

; 1312 : 		}

  0003b	c3		 ret	 0
?_Tidy@?$vector@VioHashString@@V?$allocator@VioHashString@@@std@@@std@@IAEXXZ ENDP ; std::vector<ioHashString,std::allocator<ioHashString> >::_Tidy
_TEXT	ENDS
PUBLIC	??$_Destroy_range@V?$allocator@V?$basic_string@DU?$char_traits@D@std@@V?$allocator@D@2@@std@@@std@@@std@@YAXPAV?$basic_string@DU?$char_traits@D@std@@V?$allocator@D@2@@0@0AAV?$allocator@V?$basic_string@DU?$char_traits@D@std@@V?$allocator@D@2@@std@@@0@U_Nonscalar_ptr_iterator_tag@0@@Z ; std::_Destroy_range<std::allocator<std::basic_string<char,std::char_traits<char>,std::allocator<char> > > >
; Function compile flags: /Ogsp
; File c:\program files (x86)\microsoft visual studio 10.0\vc\include\xmemory
;	COMDAT ??$_Destroy_range@V?$allocator@V?$basic_string@DU?$char_traits@D@std@@V?$allocator@D@2@@std@@@std@@@std@@YAXPAV?$basic_string@DU?$char_traits@D@std@@V?$allocator@D@2@@0@0AAV?$allocator@V?$basic_string@DU?$char_traits@D@std@@V?$allocator@D@2@@std@@@0@U_Nonscalar_ptr_iterator_tag@0@@Z
_TEXT	SEGMENT
__First$ = 8						; size = 4
__Last$ = 12						; size = 4
__Al$ = 16						; size = 4
___formal$ = 20						; size = 1
??$_Destroy_range@V?$allocator@V?$basic_string@DU?$char_traits@D@std@@V?$allocator@D@2@@std@@@std@@@std@@YAXPAV?$basic_string@DU?$char_traits@D@std@@V?$allocator@D@2@@0@0AAV?$allocator@V?$basic_string@DU?$char_traits@D@std@@V?$allocator@D@2@@std@@@0@U_Nonscalar_ptr_iterator_tag@0@@Z PROC ; std::_Destroy_range<std::allocator<std::basic_string<char,std::char_traits<char>,std::allocator<char> > > >, COMDAT

; 95   : 	{	// destroy [_First, _Last), arbitrary type

  00000	55		 push	 ebp
  00001	8b ec		 mov	 ebp, esp
  00003	56		 push	 esi

; 96   : 	for (; _First != _Last; ++_First)

  00004	8b 75 08	 mov	 esi, DWORD PTR __First$[ebp]
  00007	eb 0e		 jmp	 SHORT $LN21@Destroy_ra@5
$LL3@Destroy_ra@5:

; 97   : 		_Dest_val(_Al, _First);

  00009	6a 00		 push	 0
  0000b	6a 01		 push	 1
  0000d	8b ce		 mov	 ecx, esi
  0000f	e8 00 00 00 00	 call	 ?_Tidy@?$basic_string@DU?$char_traits@D@std@@V?$allocator@D@2@@std@@QAEX_NI@Z ; std::basic_string<char,std::char_traits<char>,std::allocator<char> >::_Tidy
  00014	83 c6 1c	 add	 esi, 28			; 0000001cH
$LN21@Destroy_ra@5:

; 96   : 	for (; _First != _Last; ++_First)

  00017	3b 75 0c	 cmp	 esi, DWORD PTR __Last$[ebp]
  0001a	75 ed		 jne	 SHORT $LL3@Destroy_ra@5
  0001c	5e		 pop	 esi

; 98   : 	}

  0001d	5d		 pop	 ebp
  0001e	c3		 ret	 0
??$_Destroy_range@V?$allocator@V?$basic_string@DU?$char_traits@D@std@@V?$allocator@D@2@@std@@@std@@@std@@YAXPAV?$basic_string@DU?$char_traits@D@std@@V?$allocator@D@2@@0@0AAV?$allocator@V?$basic_string@DU?$char_traits@D@std@@V?$allocator@D@2@@std@@@0@U_Nonscalar_ptr_iterator_tag@0@@Z ENDP ; std::_Destroy_range<std::allocator<std::basic_string<char,std::char_traits<char>,std::allocator<char> > > >
_TEXT	ENDS
PUBLIC	??1?$vector@UColorText@ioMission@@V?$allocator@UColorText@ioMission@@@std@@@std@@QAE@XZ ; std::vector<ioMission::ColorText,std::allocator<ioMission::ColorText> >::~vector<ioMission::ColorText,std::allocator<ioMission::ColorText> >
; Function compile flags: /Ogsp
; File c:\program files (x86)\microsoft visual studio 10.0\vc\include\vector
;	COMDAT ??1?$vector@UColorText@ioMission@@V?$allocator@UColorText@ioMission@@@std@@@std@@QAE@XZ
_TEXT	SEGMENT
??1?$vector@UColorText@ioMission@@V?$allocator@UColorText@ioMission@@@std@@@std@@QAE@XZ PROC ; std::vector<ioMission::ColorText,std::allocator<ioMission::ColorText> >::~vector<ioMission::ColorText,std::allocator<ioMission::ColorText> >, COMDAT
; _this$ = ecx

; 705  : 		_Tidy();

  00000	e9 00 00 00 00	 jmp	 ?_Tidy@?$vector@UColorText@ioMission@@V?$allocator@UColorText@ioMission@@@std@@@std@@IAEXXZ ; std::vector<ioMission::ColorText,std::allocator<ioMission::ColorText> >::_Tidy
??1?$vector@UColorText@ioMission@@V?$allocator@UColorText@ioMission@@@std@@@std@@QAE@XZ ENDP ; std::vector<ioMission::ColorText,std::allocator<ioMission::ColorText> >::~vector<ioMission::ColorText,std::allocator<ioMission::ColorText> >
_TEXT	ENDS
PUBLIC	?_Reserve@?$vector@VioHashString@@V?$allocator@VioHashString@@@std@@@std@@IAEXI@Z ; std::vector<ioHashString,std::allocator<ioHashString> >::_Reserve
; Function compile flags: /Ogsp
;	COMDAT ?_Reserve@?$vector@VioHashString@@V?$allocator@VioHashString@@@std@@@std@@IAEXI@Z
_TEXT	SEGMENT
__Count$ = 8						; size = 4
?_Reserve@?$vector@VioHashString@@V?$allocator@VioHashString@@@std@@@std@@IAEXI@Z PROC ; std::vector<ioHashString,std::allocator<ioHashString> >::_Reserve, COMDAT
; _this$ = ecx

; 1290 : 		{	// ensure room for _Count new elements, grow exponentially

  00000	55		 push	 ebp
  00001	8b ec		 mov	 ebp, esp
  00003	56		 push	 esi
  00004	8b f1		 mov	 esi, ecx

; 1291 : 		size_type _Size = size();

  00006	8b 0e		 mov	 ecx, DWORD PTR [esi]
  00008	8b 46 04	 mov	 eax, DWORD PTR [esi+4]
  0000b	2b c1		 sub	 eax, ecx

; 1292 : 		if (max_size() - _Count < _Size)

  0000d	ba ff ff ff 0f	 mov	 edx, 268435455		; 0fffffffH
  00012	2b 55 08	 sub	 edx, DWORD PTR __Count$[ebp]
  00015	c1 f8 04	 sar	 eax, 4
  00018	3b d0		 cmp	 edx, eax
  0001a	73 0b		 jae	 SHORT $LN4@Reserve

; 1293 : 			_Xlen();

  0001c	68 00 00 00 00	 push	 OFFSET ??_C@_0BD@OLBABOEK@vector?$DMT?$DO?5too?5long?$AA@
  00021	ff 15 00 00 00
	00		 call	 DWORD PTR __imp_?_Xlength_error@std@@YAXPBD@Z
$LN21@Reserve:
$LN4@Reserve:

; 1294 : 		else if ((_Size += _Count) <= capacity())

  00027	8b 56 08	 mov	 edx, DWORD PTR [esi+8]
  0002a	03 45 08	 add	 eax, DWORD PTR __Count$[ebp]
  0002d	2b d1		 sub	 edx, ecx
  0002f	c1 fa 04	 sar	 edx, 4
  00032	3b c2		 cmp	 eax, edx
  00034	76 10		 jbe	 SHORT $LN1@Reserve

; 1295 : 			;
; 1296 : 		else
; 1297 : 			reserve(_Grow_to(_Size));

  00036	50		 push	 eax
  00037	8b ce		 mov	 ecx, esi
  00039	e8 00 00 00 00	 call	 ?_Grow_to@?$vector@VioHashString@@V?$allocator@VioHashString@@@std@@@std@@IBEII@Z ; std::vector<ioHashString,std::allocator<ioHashString> >::_Grow_to
  0003e	50		 push	 eax
  0003f	8b ce		 mov	 ecx, esi
  00041	e8 00 00 00 00	 call	 ?reserve@?$vector@VioHashString@@V?$allocator@VioHashString@@@std@@@std@@QAEXI@Z ; std::vector<ioHashString,std::allocator<ioHashString> >::reserve
$LN1@Reserve:
  00046	5e		 pop	 esi

; 1298 : 		}

  00047	5d		 pop	 ebp
  00048	c2 04 00	 ret	 4
$LN20@Reserve:
?_Reserve@?$vector@VioHashString@@V?$allocator@VioHashString@@@std@@@std@@IAEXI@Z ENDP ; std::vector<ioHashString,std::allocator<ioHashString> >::_Reserve
_TEXT	ENDS
PUBLIC	?_Reserve@?$vector@UColorText@ioMission@@V?$allocator@UColorText@ioMission@@@std@@@std@@IAEXI@Z ; std::vector<ioMission::ColorText,std::allocator<ioMission::ColorText> >::_Reserve
; Function compile flags: /Ogsp
;	COMDAT ?_Reserve@?$vector@UColorText@ioMission@@V?$allocator@UColorText@ioMission@@@std@@@std@@IAEXI@Z
_TEXT	SEGMENT
__Count$ = 8						; size = 4
?_Reserve@?$vector@UColorText@ioMission@@V?$allocator@UColorText@ioMission@@@std@@@std@@IAEXI@Z PROC ; std::vector<ioMission::ColorText,std::allocator<ioMission::ColorText> >::_Reserve, COMDAT
; _this$ = ecx

; 1290 : 		{	// ensure room for _Count new elements, grow exponentially

  00000	55		 push	 ebp
  00001	8b ec		 mov	 ebp, esp
  00003	56		 push	 esi
  00004	8b f1		 mov	 esi, ecx

; 1291 : 		size_type _Size = size();

  00006	8b 0e		 mov	 ecx, DWORD PTR [esi]
  00008	8b 46 04	 mov	 eax, DWORD PTR [esi+4]
  0000b	2b c1		 sub	 eax, ecx
  0000d	57		 push	 edi
  0000e	99		 cdq
  0000f	6a 14		 push	 20			; 00000014H
  00011	5f		 pop	 edi
  00012	f7 ff		 idiv	 edi
  00014	8b f8		 mov	 edi, eax

; 1292 : 		if (max_size() - _Count < _Size)

  00016	b8 cc cc cc 0c	 mov	 eax, 214748364		; 0cccccccH
  0001b	2b 45 08	 sub	 eax, DWORD PTR __Count$[ebp]
  0001e	3b c7		 cmp	 eax, edi
  00020	73 0b		 jae	 SHORT $LN4@Reserve@2

; 1293 : 			_Xlen();

  00022	68 00 00 00 00	 push	 OFFSET ??_C@_0BD@OLBABOEK@vector?$DMT?$DO?5too?5long?$AA@
  00027	ff 15 00 00 00
	00		 call	 DWORD PTR __imp_?_Xlength_error@std@@YAXPBD@Z
$LN21@Reserve@2:
$LN4@Reserve@2:

; 1294 : 		else if ((_Size += _Count) <= capacity())

  0002d	8b 46 08	 mov	 eax, DWORD PTR [esi+8]
  00030	2b c1		 sub	 eax, ecx
  00032	6a 14		 push	 20			; 00000014H
  00034	99		 cdq
  00035	59		 pop	 ecx
  00036	f7 f9		 idiv	 ecx
  00038	03 7d 08	 add	 edi, DWORD PTR __Count$[ebp]
  0003b	3b f8		 cmp	 edi, eax
  0003d	76 10		 jbe	 SHORT $LN1@Reserve@2

; 1295 : 			;
; 1296 : 		else
; 1297 : 			reserve(_Grow_to(_Size));

  0003f	57		 push	 edi
  00040	8b ce		 mov	 ecx, esi
  00042	e8 00 00 00 00	 call	 ?_Grow_to@?$vector@UColorText@ioMission@@V?$allocator@UColorText@ioMission@@@std@@@std@@IBEII@Z ; std::vector<ioMission::ColorText,std::allocator<ioMission::ColorText> >::_Grow_to
  00047	50		 push	 eax
  00048	8b ce		 mov	 ecx, esi
  0004a	e8 00 00 00 00	 call	 ?reserve@?$vector@UColorText@ioMission@@V?$allocator@UColorText@ioMission@@@std@@@std@@QAEXI@Z ; std::vector<ioMission::ColorText,std::allocator<ioMission::ColorText> >::reserve
$LN1@Reserve@2:
  0004f	5f		 pop	 edi
  00050	5e		 pop	 esi

; 1298 : 		}

  00051	5d		 pop	 ebp
  00052	c2 04 00	 ret	 4
$LN20@Reserve@2:
?_Reserve@?$vector@UColorText@ioMission@@V?$allocator@UColorText@ioMission@@@std@@@std@@IAEXI@Z ENDP ; std::vector<ioMission::ColorText,std::allocator<ioMission::ColorText> >::_Reserve
_TEXT	ENDS
PUBLIC	??$construct@AAV?$vector@UColorText@ioMission@@V?$allocator@UColorText@ioMission@@@std@@@std@@@?$allocator@V?$vector@UColorText@ioMission@@V?$allocator@UColorText@ioMission@@@std@@@std@@@std@@QAEXPAV?$vector@UColorText@ioMission@@V?$allocator@UColorText@ioMission@@@std@@@1@AAV21@@Z ; std::allocator<std::vector<ioMission::ColorText,std::allocator<ioMission::ColorText> > >::construct<std::vector<ioMission::ColorText,std::allocator<ioMission::ColorText> > &>
;	COMDAT xdata$x
; File c:\program files (x86)\microsoft visual studio 10.0\vc\include\utility
xdata$x	SEGMENT
__unwindtable$??$construct@AAV?$vector@UColorText@ioMission@@V?$allocator@UColorText@ioMission@@@std@@@std@@@?$allocator@V?$vector@UColorText@ioMission@@V?$allocator@UColorText@ioMission@@@std@@@std@@@std@@QAEXPAV?$vector@UColorText@ioMission@@V?$allocator@UColorText@ioMission@@@std@@@1@AAV21@@Z DD 0ffffffffH
	DD	FLAT:__unwindfunclet$??$construct@AAV?$vector@UColorText@ioMission@@V?$allocator@UColorText@ioMission@@@std@@@std@@@?$allocator@V?$vector@UColorText@ioMission@@V?$allocator@UColorText@ioMission@@@std@@@std@@@std@@QAEXPAV?$vector@UColorText@ioMission@@V?$allocator@UColorText@ioMission@@@std@@@1@AAV21@@Z$0
__ehfuncinfo$??$construct@AAV?$vector@UColorText@ioMission@@V?$allocator@UColorText@ioMission@@@std@@@std@@@?$allocator@V?$vector@UColorText@ioMission@@V?$allocator@UColorText@ioMission@@@std@@@std@@@std@@QAEXPAV?$vector@UColorText@ioMission@@V?$allocator@UColorText@ioMission@@@std@@@1@AAV21@@Z DD 019930522H
	DD	01H
	DD	FLAT:__unwindtable$??$construct@AAV?$vector@UColorText@ioMission@@V?$allocator@UColorText@ioMission@@@std@@@std@@@?$allocator@V?$vector@UColorText@ioMission@@V?$allocator@UColorText@ioMission@@@std@@@std@@@std@@QAEXPAV?$vector@UColorText@ioMission@@V?$allocator@UColorText@ioMission@@@std@@@1@AAV21@@Z
	DD	2 DUP(00H)
	DD	2 DUP(00H)
	DD	00H
	DD	01H
; Function compile flags: /Ogsp
; File c:\program files (x86)\microsoft visual studio 10.0\vc\include\xmemory
xdata$x	ENDS
;	COMDAT ??$construct@AAV?$vector@UColorText@ioMission@@V?$allocator@UColorText@ioMission@@@std@@@std@@@?$allocator@V?$vector@UColorText@ioMission@@V?$allocator@UColorText@ioMission@@@std@@@std@@@std@@QAEXPAV?$vector@UColorText@ioMission@@V?$allocator@UColorText@ioMission@@@std@@@1@AAV21@@Z
_TEXT	SEGMENT
$T515431 = -16						; size = 4
__$EHRec$ = -12						; size = 12
__Ptr$ = 8						; size = 4
__Val$ = 12						; size = 4
??$construct@AAV?$vector@UColorText@ioMission@@V?$allocator@UColorText@ioMission@@@std@@@std@@@?$allocator@V?$vector@UColorText@ioMission@@V?$allocator@UColorText@ioMission@@@std@@@std@@@std@@QAEXPAV?$vector@UColorText@ioMission@@V?$allocator@UColorText@ioMission@@@std@@@1@AAV21@@Z PROC ; std::allocator<std::vector<ioMission::ColorText,std::allocator<ioMission::ColorText> > >::construct<std::vector<ioMission::ColorText,std::allocator<ioMission::ColorText> > &>, COMDAT
; _this$ = ecx

; 206  : 		void construct(pointer _Ptr, _Other&& _Val)

  00000	6a 04		 push	 4
  00002	b8 00 00 00 00	 mov	 eax, __ehhandler$??$construct@AAV?$vector@UColorText@ioMission@@V?$allocator@UColorText@ioMission@@@std@@@std@@@?$allocator@V?$vector@UColorText@ioMission@@V?$allocator@UColorText@ioMission@@@std@@@std@@@std@@QAEXPAV?$vector@UColorText@ioMission@@V?$allocator@UColorText@ioMission@@@std@@@1@AAV21@@Z
  00007	e8 00 00 00 00	 call	 __EH_prolog3

; 207  : 		{	// construct object at _Ptr with value _Val
; 208  : 		::new ((void _FARQ *)_Ptr) _Ty(_STD forward<_Other>(_Val));

  0000c	8b 4d 08	 mov	 ecx, DWORD PTR __Ptr$[ebp]
  0000f	89 4d f0	 mov	 DWORD PTR $T515431[ebp], ecx
  00012	83 65 fc 00	 and	 DWORD PTR __$EHRec$[ebp+8], 0
  00016	85 c9		 test	 ecx, ecx
  00018	74 08		 je	 SHORT $LN3@construct@5
  0001a	ff 75 0c	 push	 DWORD PTR __Val$[ebp]
  0001d	e8 00 00 00 00	 call	 ??0?$vector@UColorText@ioMission@@V?$allocator@UColorText@ioMission@@@std@@@std@@QAE@ABV01@@Z ; std::vector<ioMission::ColorText,std::allocator<ioMission::ColorText> >::vector<ioMission::ColorText,std::allocator<ioMission::ColorText> >
$LN3@construct@5:

; 209  : 		}

  00022	e8 00 00 00 00	 call	 __EH_epilog3
  00027	c2 08 00	 ret	 8
_TEXT	ENDS
;	COMDAT text$x
text$x	SEGMENT
__unwindfunclet$??$construct@AAV?$vector@UColorText@ioMission@@V?$allocator@UColorText@ioMission@@@std@@@std@@@?$allocator@V?$vector@UColorText@ioMission@@V?$allocator@UColorText@ioMission@@@std@@@std@@@std@@QAEXPAV?$vector@UColorText@ioMission@@V?$allocator@UColorText@ioMission@@@std@@@1@AAV21@@Z$0:
  00000	ff 75 08	 push	 DWORD PTR __Ptr$[ebp]
  00003	ff 75 f0	 push	 DWORD PTR $T515431[ebp]
  00006	e8 00 00 00 00	 call	 ??3@YAXPAX0@Z		; operator delete
  0000b	59		 pop	 ecx
  0000c	59		 pop	 ecx
  0000d	c3		 ret	 0
__ehhandler$??$construct@AAV?$vector@UColorText@ioMission@@V?$allocator@UColorText@ioMission@@@std@@@std@@@?$allocator@V?$vector@UColorText@ioMission@@V?$allocator@UColorText@ioMission@@@std@@@std@@@std@@QAEXPAV?$vector@UColorText@ioMission@@V?$allocator@UColorText@ioMission@@@std@@@1@AAV21@@Z:
  0000e	8b 54 24 08	 mov	 edx, DWORD PTR [esp+8]
  00012	8d 42 0c	 lea	 eax, DWORD PTR [edx+12]
  00015	8b 4a ec	 mov	 ecx, DWORD PTR [edx-20]
  00018	33 c8		 xor	 ecx, eax
  0001a	e8 00 00 00 00	 call	 @__security_check_cookie@4
  0001f	b8 00 00 00 00	 mov	 eax, OFFSET __ehfuncinfo$??$construct@AAV?$vector@UColorText@ioMission@@V?$allocator@UColorText@ioMission@@@std@@@std@@@?$allocator@V?$vector@UColorText@ioMission@@V?$allocator@UColorText@ioMission@@@std@@@std@@@std@@QAEXPAV?$vector@UColorText@ioMission@@V?$allocator@UColorText@ioMission@@@std@@@1@AAV21@@Z
  00024	e9 00 00 00 00	 jmp	 ___CxxFrameHandler3
text$x	ENDS
??$construct@AAV?$vector@UColorText@ioMission@@V?$allocator@UColorText@ioMission@@@std@@@std@@@?$allocator@V?$vector@UColorText@ioMission@@V?$allocator@UColorText@ioMission@@@std@@@std@@@std@@QAEXPAV?$vector@UColorText@ioMission@@V?$allocator@UColorText@ioMission@@@std@@@1@AAV21@@Z ENDP ; std::allocator<std::vector<ioMission::ColorText,std::allocator<ioMission::ColorText> > >::construct<std::vector<ioMission::ColorText,std::allocator<ioMission::ColorText> > &>
PUBLIC	??$_Construct@V?$vector@UColorText@ioMission@@V?$allocator@UColorText@ioMission@@@std@@@std@@ABV12@@std@@YAXPAV?$vector@UColorText@ioMission@@V?$allocator@UColorText@ioMission@@@std@@@0@ABV10@@Z ; std::_Construct<std::vector<ioMission::ColorText,std::allocator<ioMission::ColorText> >,std::vector<ioMission::ColorText,std::allocator<ioMission::ColorText> > const &>
;	COMDAT xdata$x
; File c:\program files (x86)\microsoft visual studio 10.0\vc\include\utility
xdata$x	SEGMENT
__unwindtable$??$_Construct@V?$vector@UColorText@ioMission@@V?$allocator@UColorText@ioMission@@@std@@@std@@ABV12@@std@@YAXPAV?$vector@UColorText@ioMission@@V?$allocator@UColorText@ioMission@@@std@@@0@ABV10@@Z DD 0ffffffffH
	DD	FLAT:__unwindfunclet$??$_Construct@V?$vector@UColorText@ioMission@@V?$allocator@UColorText@ioMission@@@std@@@std@@ABV12@@std@@YAXPAV?$vector@UColorText@ioMission@@V?$allocator@UColorText@ioMission@@@std@@@0@ABV10@@Z$0
__ehfuncinfo$??$_Construct@V?$vector@UColorText@ioMission@@V?$allocator@UColorText@ioMission@@@std@@@std@@ABV12@@std@@YAXPAV?$vector@UColorText@ioMission@@V?$allocator@UColorText@ioMission@@@std@@@0@ABV10@@Z DD 019930522H
	DD	01H
	DD	FLAT:__unwindtable$??$_Construct@V?$vector@UColorText@ioMission@@V?$allocator@UColorText@ioMission@@@std@@@std@@ABV12@@std@@YAXPAV?$vector@UColorText@ioMission@@V?$allocator@UColorText@ioMission@@@std@@@0@ABV10@@Z
	DD	2 DUP(00H)
	DD	2 DUP(00H)
	DD	00H
	DD	01H
; Function compile flags: /Ogsp
; File c:\program files (x86)\microsoft visual studio 10.0\vc\include\xmemory
xdata$x	ENDS
;	COMDAT ??$_Construct@V?$vector@UColorText@ioMission@@V?$allocator@UColorText@ioMission@@@std@@@std@@ABV12@@std@@YAXPAV?$vector@UColorText@ioMission@@V?$allocator@UColorText@ioMission@@@std@@@0@ABV10@@Z
_TEXT	SEGMENT
$T515450 = -16						; size = 4
__$EHRec$ = -12						; size = 12
__Vptr$ = 8						; size = 4
__Ptr$ = 8						; size = 4
__Val$ = 12						; size = 4
??$_Construct@V?$vector@UColorText@ioMission@@V?$allocator@UColorText@ioMission@@@std@@@std@@ABV12@@std@@YAXPAV?$vector@UColorText@ioMission@@V?$allocator@UColorText@ioMission@@@std@@@0@ABV10@@Z PROC ; std::_Construct<std::vector<ioMission::ColorText,std::allocator<ioMission::ColorText> >,std::vector<ioMission::ColorText,std::allocator<ioMission::ColorText> > const &>, COMDAT

; 46   : 	{	// construct object at _Ptr with value _Val

  00000	6a 04		 push	 4
  00002	b8 00 00 00 00	 mov	 eax, __ehhandler$??$_Construct@V?$vector@UColorText@ioMission@@V?$allocator@UColorText@ioMission@@@std@@@std@@ABV12@@std@@YAXPAV?$vector@UColorText@ioMission@@V?$allocator@UColorText@ioMission@@@std@@@0@ABV10@@Z
  00007	e8 00 00 00 00	 call	 __EH_prolog3

; 47   : 	void _FARQ *_Vptr = _Ptr;

  0000c	8b 4d 08	 mov	 ecx, DWORD PTR __Ptr$[ebp]
  0000f	89 4d 08	 mov	 DWORD PTR __Vptr$[ebp], ecx

; 48   : 	::new (_Vptr) _Ty1(_STD forward<_Ty2>(_Val));

  00012	89 4d f0	 mov	 DWORD PTR $T515450[ebp], ecx
  00015	83 65 fc 00	 and	 DWORD PTR __$EHRec$[ebp+8], 0
  00019	85 c9		 test	 ecx, ecx
  0001b	74 08		 je	 SHORT $LN3@Construct@4
  0001d	ff 75 0c	 push	 DWORD PTR __Val$[ebp]
  00020	e8 00 00 00 00	 call	 ??0?$vector@UColorText@ioMission@@V?$allocator@UColorText@ioMission@@@std@@@std@@QAE@ABV01@@Z ; std::vector<ioMission::ColorText,std::allocator<ioMission::ColorText> >::vector<ioMission::ColorText,std::allocator<ioMission::ColorText> >
$LN3@Construct@4:

; 49   : 	}

  00025	e8 00 00 00 00	 call	 __EH_epilog3
  0002a	c3		 ret	 0
_TEXT	ENDS
;	COMDAT text$x
text$x	SEGMENT
__unwindfunclet$??$_Construct@V?$vector@UColorText@ioMission@@V?$allocator@UColorText@ioMission@@@std@@@std@@ABV12@@std@@YAXPAV?$vector@UColorText@ioMission@@V?$allocator@UColorText@ioMission@@@std@@@0@ABV10@@Z$0:
  00000	ff 75 08	 push	 DWORD PTR __Vptr$[ebp]
  00003	ff 75 f0	 push	 DWORD PTR $T515450[ebp]
  00006	e8 00 00 00 00	 call	 ??3@YAXPAX0@Z		; operator delete
  0000b	59		 pop	 ecx
  0000c	59		 pop	 ecx
  0000d	c3		 ret	 0
__ehhandler$??$_Construct@V?$vector@UColorText@ioMission@@V?$allocator@UColorText@ioMission@@@std@@@std@@ABV12@@std@@YAXPAV?$vector@UColorText@ioMission@@V?$allocator@UColorText@ioMission@@@std@@@0@ABV10@@Z:
  0000e	8b 54 24 08	 mov	 edx, DWORD PTR [esp+8]
  00012	8d 42 0c	 lea	 eax, DWORD PTR [edx+12]
  00015	8b 4a ec	 mov	 ecx, DWORD PTR [edx-20]
  00018	33 c8		 xor	 ecx, eax
  0001a	e8 00 00 00 00	 call	 @__security_check_cookie@4
  0001f	b8 00 00 00 00	 mov	 eax, OFFSET __ehfuncinfo$??$_Construct@V?$vector@UColorText@ioMission@@V?$allocator@UColorText@ioMission@@@std@@@std@@ABV12@@std@@YAXPAV?$vector@UColorText@ioMission@@V?$allocator@UColorText@ioMission@@@std@@@0@ABV10@@Z
  00024	e9 00 00 00 00	 jmp	 ___CxxFrameHandler3
text$x	ENDS
??$_Construct@V?$vector@UColorText@ioMission@@V?$allocator@UColorText@ioMission@@@std@@@std@@ABV12@@std@@YAXPAV?$vector@UColorText@ioMission@@V?$allocator@UColorText@ioMission@@@std@@@0@ABV10@@Z ENDP ; std::_Construct<std::vector<ioMission::ColorText,std::allocator<ioMission::ColorText> >,std::vector<ioMission::ColorText,std::allocator<ioMission::ColorText> > const &>
PUBLIC	??$_Cons_val@V?$allocator@V?$basic_string@DU?$char_traits@D@std@@V?$allocator@D@2@@std@@@std@@V?$basic_string@DU?$char_traits@D@std@@V?$allocator@D@2@@2@ABV32@@std@@YAXAAV?$allocator@V?$basic_string@DU?$char_traits@D@std@@V?$allocator@D@2@@std@@@0@PAV?$basic_string@DU?$char_traits@D@std@@V?$allocator@D@2@@0@ABV20@@Z ; std::_Cons_val<std::allocator<std::basic_string<char,std::char_traits<char>,std::allocator<char> > >,std::basic_string<char,std::char_traits<char>,std::allocator<char> >,std::basic_string<char,std::char_traits<char>,std::allocator<char> > const &>
; Function compile flags: /Ogsp
;	COMDAT ??$_Cons_val@V?$allocator@V?$basic_string@DU?$char_traits@D@std@@V?$allocator@D@2@@std@@@std@@V?$basic_string@DU?$char_traits@D@std@@V?$allocator@D@2@@2@ABV32@@std@@YAXAAV?$allocator@V?$basic_string@DU?$char_traits@D@std@@V?$allocator@D@2@@std@@@0@PAV?$basic_string@DU?$char_traits@D@std@@V?$allocator@D@2@@0@ABV20@@Z
_TEXT	SEGMENT
__Alval$ = 8						; size = 4
__Pdest$ = 12						; size = 4
__Src$ = 16						; size = 4
??$_Cons_val@V?$allocator@V?$basic_string@DU?$char_traits@D@std@@V?$allocator@D@2@@std@@@std@@V?$basic_string@DU?$char_traits@D@std@@V?$allocator@D@2@@2@ABV32@@std@@YAXAAV?$allocator@V?$basic_string@DU?$char_traits@D@std@@V?$allocator@D@2@@std@@@0@PAV?$basic_string@DU?$char_traits@D@std@@V?$allocator@D@2@@0@ABV20@@Z PROC ; std::_Cons_val<std::allocator<std::basic_string<char,std::char_traits<char>,std::allocator<char> > >,std::basic_string<char,std::char_traits<char>,std::allocator<char> >,std::basic_string<char,std::char_traits<char>,std::allocator<char> > const &>, COMDAT

; 279  : 	{	// construct using allocator

  00000	55		 push	 ebp
  00001	8b ec		 mov	 ebp, esp

; 280  : 	_Alval.construct(_Pdest, _STD forward<_Ty2>(_Src));

  00003	ff 75 10	 push	 DWORD PTR __Src$[ebp]
  00006	ff 75 0c	 push	 DWORD PTR __Pdest$[ebp]
  00009	e8 00 00 00 00	 call	 ??$_Construct@V?$basic_string@DU?$char_traits@D@std@@V?$allocator@D@2@@std@@ABV12@@std@@YAXPAV?$basic_string@DU?$char_traits@D@std@@V?$allocator@D@2@@0@ABV10@@Z ; std::_Construct<std::basic_string<char,std::char_traits<char>,std::allocator<char> >,std::basic_string<char,std::char_traits<char>,std::allocator<char> > const &>
  0000e	59		 pop	 ecx
  0000f	59		 pop	 ecx

; 281  : 	}

  00010	5d		 pop	 ebp
  00011	c3		 ret	 0
??$_Cons_val@V?$allocator@V?$basic_string@DU?$char_traits@D@std@@V?$allocator@D@2@@std@@@std@@V?$basic_string@DU?$char_traits@D@std@@V?$allocator@D@2@@2@ABV32@@std@@YAXAAV?$allocator@V?$basic_string@DU?$char_traits@D@std@@V?$allocator@D@2@@std@@@0@PAV?$basic_string@DU?$char_traits@D@std@@V?$allocator@D@2@@0@ABV20@@Z ENDP ; std::_Cons_val<std::allocator<std::basic_string<char,std::char_traits<char>,std::allocator<char> > >,std::basic_string<char,std::char_traits<char>,std::allocator<char> >,std::basic_string<char,std::char_traits<char>,std::allocator<char> > const &>
_TEXT	ENDS
PUBLIC	??_G?$vector@UColorText@ioMission@@V?$allocator@UColorText@ioMission@@@std@@@std@@QAEPAXI@Z ; std::vector<ioMission::ColorText,std::allocator<ioMission::ColorText> >::`scalar deleting destructor'
; Function compile flags: /Ogsp
;	COMDAT ??_G?$vector@UColorText@ioMission@@V?$allocator@UColorText@ioMission@@@std@@@std@@QAEPAXI@Z
_TEXT	SEGMENT
___flags$ = 8						; size = 4
??_G?$vector@UColorText@ioMission@@V?$allocator@UColorText@ioMission@@@std@@@std@@QAEPAXI@Z PROC ; std::vector<ioMission::ColorText,std::allocator<ioMission::ColorText> >::`scalar deleting destructor', COMDAT
; _this$ = ecx
  00000	55		 push	 ebp
  00001	8b ec		 mov	 ebp, esp
  00003	56		 push	 esi
  00004	8b f1		 mov	 esi, ecx
  00006	e8 00 00 00 00	 call	 ?_Tidy@?$vector@UColorText@ioMission@@V?$allocator@UColorText@ioMission@@@std@@@std@@IAEXXZ ; std::vector<ioMission::ColorText,std::allocator<ioMission::ColorText> >::_Tidy
  0000b	f6 45 08 01	 test	 BYTE PTR ___flags$[ebp], 1
  0000f	74 07		 je	 SHORT $LN1@scalar@5
  00011	56		 push	 esi
  00012	e8 00 00 00 00	 call	 ??3@YAXPAX@Z		; operator delete
  00017	59		 pop	 ecx
$LN1@scalar@5:
  00018	8b c6		 mov	 eax, esi
  0001a	5e		 pop	 esi
  0001b	5d		 pop	 ebp
  0001c	c2 04 00	 ret	 4
??_G?$vector@UColorText@ioMission@@V?$allocator@UColorText@ioMission@@@std@@@std@@QAEPAXI@Z ENDP ; std::vector<ioMission::ColorText,std::allocator<ioMission::ColorText> >::`scalar deleting destructor'
_TEXT	ENDS
PUBLIC	?push_back@?$vector@UColorText@ioMission@@V?$allocator@UColorText@ioMission@@@std@@@std@@QAEX$$QAUColorText@ioMission@@@Z ; std::vector<ioMission::ColorText,std::allocator<ioMission::ColorText> >::push_back
; Function compile flags: /Ogsp
; File c:\program files (x86)\microsoft visual studio 10.0\vc\include\vector
;	COMDAT ?push_back@?$vector@UColorText@ioMission@@V?$allocator@UColorText@ioMission@@@std@@@std@@QAEX$$QAUColorText@ioMission@@@Z
_TEXT	SEGMENT
__Val$ = 8						; size = 4
?push_back@?$vector@UColorText@ioMission@@V?$allocator@UColorText@ioMission@@@std@@@std@@QAEX$$QAUColorText@ioMission@@@Z PROC ; std::vector<ioMission::ColorText,std::allocator<ioMission::ColorText> >::push_back, COMDAT
; _this$ = ecx

; 631  : 		{	// insert element at end

  00000	55		 push	 ebp
  00001	8b ec		 mov	 ebp, esp
  00003	56		 push	 esi
  00004	8b f1		 mov	 esi, ecx

; 632  : 		if (_Inside(_STD addressof(_Val)))

  00006	8b 4e 04	 mov	 ecx, DWORD PTR [esi+4]
  00009	57		 push	 edi
  0000a	8b 7d 08	 mov	 edi, DWORD PTR __Val$[ebp]
  0000d	3b f9		 cmp	 edi, ecx
  0000f	73 27		 jae	 SHORT $LN4@push_back
  00011	8b 16		 mov	 edx, DWORD PTR [esi]
  00013	3b d7		 cmp	 edx, edi
  00015	77 21		 ja	 SHORT $LN4@push_back

; 633  : 			{	// push back an element
; 634  : 			size_type _Idx = _STD addressof(_Val) - this->_Myfirst;

  00017	8b c7		 mov	 eax, edi
  00019	2b c2		 sub	 eax, edx
  0001b	6a 14		 push	 20			; 00000014H
  0001d	99		 cdq
  0001e	5f		 pop	 edi
  0001f	f7 ff		 idiv	 edi
  00021	8b f8		 mov	 edi, eax

; 635  : 			if (this->_Mylast == this->_Myend)

  00023	3b 4e 08	 cmp	 ecx, DWORD PTR [esi+8]
  00026	75 09		 jne	 SHORT $LN3@push_back

; 636  : 				_Reserve(1);

  00028	6a 01		 push	 1
  0002a	8b ce		 mov	 ecx, esi
  0002c	e8 00 00 00 00	 call	 ?_Reserve@?$vector@UColorText@ioMission@@V?$allocator@UColorText@ioMission@@@std@@@std@@IAEXI@Z ; std::vector<ioMission::ColorText,std::allocator<ioMission::ColorText> >::_Reserve
$LN3@push_back:

; 637  : 			_Orphan_range(this->_Mylast, this->_Mylast);
; 638  : 			_Cons_val(this->_Alval,
; 639  : 				this->_Mylast,
; 640  : 				_STD forward<_Ty>(this->_Myfirst[_Idx]));

  00031	6b ff 14	 imul	 edi, 20			; 00000014H
  00034	03 3e		 add	 edi, DWORD PTR [esi]

; 641  : 			++this->_Mylast;
; 642  : 			}
; 643  : 		else

  00036	eb 0e		 jmp	 SHORT $LN1@push_back
$LN4@push_back:

; 644  : 			{	// push back a non-element
; 645  : 			if (this->_Mylast == this->_Myend)

  00038	3b 4e 08	 cmp	 ecx, DWORD PTR [esi+8]
  0003b	75 09		 jne	 SHORT $LN1@push_back

; 646  : 				_Reserve(1);

  0003d	6a 01		 push	 1
  0003f	8b ce		 mov	 ecx, esi
  00041	e8 00 00 00 00	 call	 ?_Reserve@?$vector@UColorText@ioMission@@V?$allocator@UColorText@ioMission@@@std@@@std@@IAEXI@Z ; std::vector<ioMission::ColorText,std::allocator<ioMission::ColorText> >::_Reserve
$LN1@push_back:

; 647  : 			_Orphan_range(this->_Mylast, this->_Mylast);
; 648  : 			_Cons_val(this->_Alval,
; 649  : 				this->_Mylast,
; 650  : 				_STD forward<_Ty>(_Val));

  00046	57		 push	 edi
  00047	ff 76 04	 push	 DWORD PTR [esi+4]
  0004a	8d 4e 0c	 lea	 ecx, DWORD PTR [esi+12]
  0004d	e8 00 00 00 00	 call	 ?construct@?$allocator@UColorText@ioMission@@@std@@QAEXPAUColorText@ioMission@@$$QAU34@@Z ; std::allocator<ioMission::ColorText>::construct

; 651  : 			++this->_Mylast;

  00052	83 46 04 14	 add	 DWORD PTR [esi+4], 20	; 00000014H
  00056	5f		 pop	 edi
  00057	5e		 pop	 esi

; 652  : 			}
; 653  : 		}

  00058	5d		 pop	 ebp
  00059	c2 04 00	 ret	 4
?push_back@?$vector@UColorText@ioMission@@V?$allocator@UColorText@ioMission@@@std@@@std@@QAEX$$QAUColorText@ioMission@@@Z ENDP ; std::vector<ioMission::ColorText,std::allocator<ioMission::ColorText> >::push_back
_TEXT	ENDS
PUBLIC	??0?$vector@VioHashString@@V?$allocator@VioHashString@@@std@@@std@@QAE@ABV01@@Z ; std::vector<ioHashString,std::allocator<ioHashString> >::vector<ioHashString,std::allocator<ioHashString> >
;	COMDAT xdata$x
; File c:\program files (x86)\microsoft visual studio 10.0\vc\include\xutility
xdata$x	SEGMENT
__catchsym$??0?$vector@VioHashString@@V?$allocator@VioHashString@@@std@@@std@@QAE@ABV01@@Z$2 DD 040H
	DD	00H
	DD	00H
	DD	FLAT:__catch$??0?$vector@VioHashString@@V?$allocator@VioHashString@@@std@@@std@@QAE@ABV01@@Z$0
__unwindtable$??0?$vector@VioHashString@@V?$allocator@VioHashString@@@std@@@std@@QAE@ABV01@@Z DD 0ffffffffH
	DD	00H
	DD	0ffffffffH
	DD	00H
__tryblocktable$??0?$vector@VioHashString@@V?$allocator@VioHashString@@@std@@@std@@QAE@ABV01@@Z DD 00H
	DD	00H
	DD	01H
	DD	01H
	DD	FLAT:__catchsym$??0?$vector@VioHashString@@V?$allocator@VioHashString@@@std@@@std@@QAE@ABV01@@Z$2
__ehfuncinfo$??0?$vector@VioHashString@@V?$allocator@VioHashString@@@std@@@std@@QAE@ABV01@@Z DD 019930522H
	DD	02H
	DD	FLAT:__unwindtable$??0?$vector@VioHashString@@V?$allocator@VioHashString@@@std@@@std@@QAE@ABV01@@Z
	DD	01H
	DD	FLAT:__tryblocktable$??0?$vector@VioHashString@@V?$allocator@VioHashString@@@std@@@std@@QAE@ABV01@@Z
	DD	2 DUP(00H)
	DD	00H
	DD	01H
; Function compile flags: /Ogsp
; File c:\program files (x86)\microsoft visual studio 10.0\vc\include\vector
xdata$x	ENDS
;	COMDAT ??0?$vector@VioHashString@@V?$allocator@VioHashString@@@std@@@std@@QAE@ABV01@@Z
_TEXT	SEGMENT
_this$ = -20						; size = 4
__$EHRec$ = -16						; size = 16
__Cat$515609 = 8					; size = 1
__Right$ = 8						; size = 4
??0?$vector@VioHashString@@V?$allocator@VioHashString@@@std@@@std@@QAE@ABV01@@Z PROC ; std::vector<ioHashString,std::allocator<ioHashString> >::vector<ioHashString,std::allocator<ioHashString> >, COMDAT
; _this$ = ecx

; 535  : 		{	// construct by copying _Right

  00000	6a 08		 push	 8
  00002	b8 00 00 00 00	 mov	 eax, __ehhandler$??0?$vector@VioHashString@@V?$allocator@VioHashString@@@std@@@std@@QAE@ABV01@@Z
  00007	e8 00 00 00 00	 call	 __EH_prolog3_catch
  0000c	8b f1		 mov	 esi, ecx
  0000e	89 75 ec	 mov	 DWORD PTR _this$[ebp], esi

; 536  : 		if (_Buy(_Right.size()))

  00011	8b 7d 08	 mov	 edi, DWORD PTR __Right$[ebp]
  00014	33 db		 xor	 ebx, ebx
  00016	89 1e		 mov	 DWORD PTR [esi], ebx
  00018	89 5e 04	 mov	 DWORD PTR [esi+4], ebx
  0001b	89 5e 08	 mov	 DWORD PTR [esi+8], ebx
  0001e	8b 47 04	 mov	 eax, DWORD PTR [edi+4]
  00021	2b 07		 sub	 eax, DWORD PTR [edi]
  00023	c1 f8 04	 sar	 eax, 4
  00026	50		 push	 eax
  00027	e8 00 00 00 00	 call	 ?_Buy@?$vector@VioHashString@@V?$allocator@VioHashString@@@std@@@std@@IAE_NI@Z ; std::vector<ioHashString,std::allocator<ioHashString> >::_Buy
  0002c	84 c0		 test	 al, al
  0002e	74 1f		 je	 SHORT $LN7@vector@2

; 537  : 			_TRY_BEGIN
; 538  : 			this->_Mylast = _Ucopy(_Right.begin(), _Right.end(),
; 539  : 				this->_Myfirst);

  00030	ff 75 08	 push	 DWORD PTR __Cat$515609[ebp]
  00033	8b 0e		 mov	 ecx, DWORD PTR [esi]
  00035	8b 47 04	 mov	 eax, DWORD PTR [edi+4]
  00038	8b 3f		 mov	 edi, DWORD PTR [edi]
  0003a	8d 56 0c	 lea	 edx, DWORD PTR [esi+12]
  0003d	52		 push	 edx
  0003e	51		 push	 ecx
  0003f	50		 push	 eax
  00040	57		 push	 edi
  00041	89 5d fc	 mov	 DWORD PTR __$EHRec$[ebp+12], ebx
  00044	e8 00 00 00 00	 call	 ??$_Uninit_copy@V?$_Vector_const_iterator@V?$_Vector_val@VioHashString@@V?$allocator@VioHashString@@@std@@@std@@@std@@PAVioHashString@@V?$allocator@VioHashString@@@2@@std@@YAPAVioHashString@@V?$_Vector_const_iterator@V?$_Vector_val@VioHashString@@V?$allocator@VioHashString@@@std@@@std@@@0@0PAV1@AAV?$allocator@VioHashString@@@0@U_Nonscalar_ptr_iterator_tag@0@@Z ; std::_Uninit_copy<std::_Vector_const_iterator<std::_Vector_val<ioHashString,std::allocator<ioHashString> > >,ioHashString *,std::allocator<ioHashString> >
  00049	83 c4 14	 add	 esp, 20			; 00000014H
  0004c	89 46 04	 mov	 DWORD PTR [esi+4], eax
$LN7@vector@2:

; 543  : 			_CATCH_END
; 544  : 		}

  0004f	8b c6		 mov	 eax, esi
  00051	e8 00 00 00 00	 call	 __EH_epilog3
  00056	c2 04 00	 ret	 4
__catch$??0?$vector@VioHashString@@V?$allocator@VioHashString@@@std@@@std@@QAE@ABV01@@Z$0:

; 540  : 			_CATCH_ALL
; 541  : 			_Tidy();

  00059	8b 4d ec	 mov	 ecx, DWORD PTR _this$[ebp]
  0005c	e8 00 00 00 00	 call	 ?_Tidy@?$vector@VioHashString@@V?$allocator@VioHashString@@@std@@@std@@IAEXXZ ; std::vector<ioHashString,std::allocator<ioHashString> >::_Tidy

; 542  : 			_RERAISE;

  00061	33 db		 xor	 ebx, ebx
  00063	53		 push	 ebx
  00064	53		 push	 ebx
  00065	e8 00 00 00 00	 call	 __CxxThrowException@8
$LN38@vector@2:
$LN37@vector@2:
  0006a	cc		 int	 3
_TEXT	ENDS
;	COMDAT text$x
text$x	SEGMENT
__ehhandler$??0?$vector@VioHashString@@V?$allocator@VioHashString@@@std@@@std@@QAE@ABV01@@Z:
  00000	8b 54 24 08	 mov	 edx, DWORD PTR [esp+8]
  00004	8d 42 0c	 lea	 eax, DWORD PTR [edx+12]
  00007	8b 4a e8	 mov	 ecx, DWORD PTR [edx-24]
  0000a	33 c8		 xor	 ecx, eax
  0000c	e8 00 00 00 00	 call	 @__security_check_cookie@4
  00011	b8 00 00 00 00	 mov	 eax, OFFSET __ehfuncinfo$??0?$vector@VioHashString@@V?$allocator@VioHashString@@@std@@@std@@QAE@ABV01@@Z
  00016	e9 00 00 00 00	 jmp	 ___CxxFrameHandler3
text$x	ENDS
??0?$vector@VioHashString@@V?$allocator@VioHashString@@@std@@@std@@QAE@ABV01@@Z ENDP ; std::vector<ioHashString,std::allocator<ioHashString> >::vector<ioHashString,std::allocator<ioHashString> >
PUBLIC	??1?$vector@VioHashString@@V?$allocator@VioHashString@@@std@@@std@@QAE@XZ ; std::vector<ioHashString,std::allocator<ioHashString> >::~vector<ioHashString,std::allocator<ioHashString> >
; Function compile flags: /Ogsp
;	COMDAT ??1?$vector@VioHashString@@V?$allocator@VioHashString@@@std@@@std@@QAE@XZ
_TEXT	SEGMENT
??1?$vector@VioHashString@@V?$allocator@VioHashString@@@std@@@std@@QAE@XZ PROC ; std::vector<ioHashString,std::allocator<ioHashString> >::~vector<ioHashString,std::allocator<ioHashString> >, COMDAT
; _this$ = ecx

; 705  : 		_Tidy();

  00000	e9 00 00 00 00	 jmp	 ?_Tidy@?$vector@VioHashString@@V?$allocator@VioHashString@@@std@@@std@@IAEXXZ ; std::vector<ioHashString,std::allocator<ioHashString> >::_Tidy
??1?$vector@VioHashString@@V?$allocator@VioHashString@@@std@@@std@@QAE@XZ ENDP ; std::vector<ioHashString,std::allocator<ioHashString> >::~vector<ioHashString,std::allocator<ioHashString> >
_TEXT	ENDS
PUBLIC	?clear@?$vector@VioHashString@@V?$allocator@VioHashString@@@std@@@std@@QAEXXZ ; std::vector<ioHashString,std::allocator<ioHashString> >::clear
; Function compile flags: /Ogsp
;	COMDAT ?clear@?$vector@VioHashString@@V?$allocator@VioHashString@@@std@@@std@@QAEXXZ
_TEXT	SEGMENT
$T515639 = -4						; size = 4
?clear@?$vector@VioHashString@@V?$allocator@VioHashString@@@std@@@std@@QAEXXZ PROC ; std::vector<ioHashString,std::allocator<ioHashString> >::clear, COMDAT
; _this$ = ecx

; 1217 : 		{	// erase all

  00000	55		 push	 ebp
  00001	8b ec		 mov	 ebp, esp
  00003	51		 push	 ecx

; 1218 : 		erase(begin(), end());

  00004	8b 41 04	 mov	 eax, DWORD PTR [ecx+4]
  00007	8b 11		 mov	 edx, DWORD PTR [ecx]
  00009	50		 push	 eax
  0000a	52		 push	 edx
  0000b	8d 45 fc	 lea	 eax, DWORD PTR $T515639[ebp]
  0000e	50		 push	 eax
  0000f	e8 00 00 00 00	 call	 ?erase@?$vector@VioHashString@@V?$allocator@VioHashString@@@std@@@std@@QAE?AV?$_Vector_iterator@V?$_Vector_val@VioHashString@@V?$allocator@VioHashString@@@std@@@std@@@2@V?$_Vector_const_iterator@V?$_Vector_val@VioHashString@@V?$allocator@VioHashString@@@std@@@std@@@2@0@Z ; std::vector<ioHashString,std::allocator<ioHashString> >::erase

; 1219 : 		}

  00014	c9		 leave
  00015	c3		 ret	 0
?clear@?$vector@VioHashString@@V?$allocator@VioHashString@@@std@@@std@@QAEXXZ ENDP ; std::vector<ioHashString,std::allocator<ioHashString> >::clear
_TEXT	ENDS
PUBLIC	??$_Destroy_range@V?$allocator@V?$basic_string@DU?$char_traits@D@std@@V?$allocator@D@2@@std@@@std@@@std@@YAXPAV?$basic_string@DU?$char_traits@D@std@@V?$allocator@D@2@@0@0AAV?$allocator@V?$basic_string@DU?$char_traits@D@std@@V?$allocator@D@2@@std@@@0@@Z ; std::_Destroy_range<std::allocator<std::basic_string<char,std::char_traits<char>,std::allocator<char> > > >
; Function compile flags: /Ogsp
; File c:\program files (x86)\microsoft visual studio 10.0\vc\include\xmemory
;	COMDAT ??$_Destroy_range@V?$allocator@V?$basic_string@DU?$char_traits@D@std@@V?$allocator@D@2@@std@@@std@@@std@@YAXPAV?$basic_string@DU?$char_traits@D@std@@V?$allocator@D@2@@0@0AAV?$allocator@V?$basic_string@DU?$char_traits@D@std@@V?$allocator@D@2@@std@@@0@@Z
_TEXT	SEGMENT
__Cat$515695 = -4					; size = 1
__First$ = 8						; size = 4
__Last$ = 12						; size = 4
__Al$ = 16						; size = 4
??$_Destroy_range@V?$allocator@V?$basic_string@DU?$char_traits@D@std@@V?$allocator@D@2@@std@@@std@@@std@@YAXPAV?$basic_string@DU?$char_traits@D@std@@V?$allocator@D@2@@0@0AAV?$allocator@V?$basic_string@DU?$char_traits@D@std@@V?$allocator@D@2@@std@@@0@@Z PROC ; std::_Destroy_range<std::allocator<std::basic_string<char,std::char_traits<char>,std::allocator<char> > > >, COMDAT

; 87   : 	{	// destroy [_First, _Last)

  00000	55		 push	 ebp
  00001	8b ec		 mov	 ebp, esp
  00003	51		 push	 ecx

; 88   : 	_Destroy_range(_First, _Last, _Al, _Ptr_cat(_First, _Last));

  00004	ff 75 fc	 push	 DWORD PTR __Cat$515695[ebp]
  00007	ff 75 10	 push	 DWORD PTR __Al$[ebp]
  0000a	ff 75 0c	 push	 DWORD PTR __Last$[ebp]
  0000d	ff 75 08	 push	 DWORD PTR __First$[ebp]
  00010	e8 00 00 00 00	 call	 ??$_Destroy_range@V?$allocator@V?$basic_string@DU?$char_traits@D@std@@V?$allocator@D@2@@std@@@std@@@std@@YAXPAV?$basic_string@DU?$char_traits@D@std@@V?$allocator@D@2@@0@0AAV?$allocator@V?$basic_string@DU?$char_traits@D@std@@V?$allocator@D@2@@std@@@0@U_Nonscalar_ptr_iterator_tag@0@@Z ; std::_Destroy_range<std::allocator<std::basic_string<char,std::char_traits<char>,std::allocator<char> > > >
  00015	83 c4 10	 add	 esp, 16			; 00000010H

; 89   : 	}

  00018	c9		 leave
  00019	c3		 ret	 0
??$_Destroy_range@V?$allocator@V?$basic_string@DU?$char_traits@D@std@@V?$allocator@D@2@@std@@@std@@@std@@YAXPAV?$basic_string@DU?$char_traits@D@std@@V?$allocator@D@2@@0@0AAV?$allocator@V?$basic_string@DU?$char_traits@D@std@@V?$allocator@D@2@@std@@@0@@Z ENDP ; std::_Destroy_range<std::allocator<std::basic_string<char,std::char_traits<char>,std::allocator<char> > > >
_TEXT	ENDS
PUBLIC	?push_back@?$vector@VioHashString@@V?$allocator@VioHashString@@@std@@@std@@QAEXABVioHashString@@@Z ; std::vector<ioHashString,std::allocator<ioHashString> >::push_back
; Function compile flags: /Ogsp
; File c:\program files (x86)\microsoft visual studio 10.0\vc\include\vector
;	COMDAT ?push_back@?$vector@VioHashString@@V?$allocator@VioHashString@@@std@@@std@@QAEXABVioHashString@@@Z
_TEXT	SEGMENT
__Val$ = 8						; size = 4
?push_back@?$vector@VioHashString@@V?$allocator@VioHashString@@@std@@@std@@QAEXABVioHashString@@@Z PROC ; std::vector<ioHashString,std::allocator<ioHashString> >::push_back, COMDAT
; _this$ = ecx

; 976  : 		{	// insert element at end

  00000	55		 push	 ebp
  00001	8b ec		 mov	 ebp, esp
  00003	56		 push	 esi
  00004	8b f1		 mov	 esi, ecx

; 977  : 		if (_Inside(_STD addressof(_Val)))

  00006	8b 46 04	 mov	 eax, DWORD PTR [esi+4]
  00009	57		 push	 edi
  0000a	8b 7d 08	 mov	 edi, DWORD PTR __Val$[ebp]
  0000d	3b f8		 cmp	 edi, eax
  0000f	73 29		 jae	 SHORT $LN4@push_back@2
  00011	8b 0e		 mov	 ecx, DWORD PTR [esi]
  00013	3b cf		 cmp	 ecx, edi
  00015	77 23		 ja	 SHORT $LN4@push_back@2

; 978  : 			{	// push back an element
; 979  : 			size_type _Idx = _STD addressof(_Val) - this->_Myfirst;

  00017	2b f9		 sub	 edi, ecx

; 980  : 			if (this->_Mylast == this->_Myend)

  00019	3b 46 08	 cmp	 eax, DWORD PTR [esi+8]
  0001c	75 09		 jne	 SHORT $LN3@push_back@2

; 981  : 				_Reserve(1);

  0001e	6a 01		 push	 1
  00020	8b ce		 mov	 ecx, esi
  00022	e8 00 00 00 00	 call	 ?_Reserve@?$vector@VioHashString@@V?$allocator@VioHashString@@@std@@@std@@IAEXI@Z ; std::vector<ioHashString,std::allocator<ioHashString> >::_Reserve
$LN3@push_back@2:

; 982  : 			_Orphan_range(this->_Mylast, this->_Mylast);
; 983  : 			_Cons_val(this->_Alval,
; 984  : 				this->_Mylast,
; 985  : 				this->_Myfirst[_Idx]);

  00027	83 e7 f0	 and	 edi, -16		; fffffff0H
  0002a	03 3e		 add	 edi, DWORD PTR [esi]
  0002c	8d 4e 0c	 lea	 ecx, DWORD PTR [esi+12]
  0002f	57		 push	 edi
  00030	ff 76 04	 push	 DWORD PTR [esi+4]
  00033	e8 00 00 00 00	 call	 ??$construct@AAVioHashString@@@?$allocator@VioHashString@@@std@@QAEXPAVioHashString@@AAV2@@Z ; std::allocator<ioHashString>::construct<ioHashString &>

; 986  : 			++this->_Mylast;
; 987  : 			}
; 988  : 		else

  00038	eb 19		 jmp	 SHORT $LN30@push_back@2
$LN4@push_back@2:

; 989  : 			{	// push back a non-element
; 990  : 			if (this->_Mylast == this->_Myend)

  0003a	3b 46 08	 cmp	 eax, DWORD PTR [esi+8]
  0003d	75 09		 jne	 SHORT $LN1@push_back@2

; 991  : 				_Reserve(1);

  0003f	6a 01		 push	 1
  00041	8b ce		 mov	 ecx, esi
  00043	e8 00 00 00 00	 call	 ?_Reserve@?$vector@VioHashString@@V?$allocator@VioHashString@@@std@@@std@@IAEXI@Z ; std::vector<ioHashString,std::allocator<ioHashString> >::_Reserve
$LN1@push_back@2:

; 992  : 			_Orphan_range(this->_Mylast, this->_Mylast);
; 993  : 			_Cons_val(this->_Alval,
; 994  : 				this->_Mylast,
; 995  : 				_Val);

  00048	57		 push	 edi
  00049	ff 76 04	 push	 DWORD PTR [esi+4]
  0004c	e8 00 00 00 00	 call	 ??$_Construct@VioHashString@@ABV1@@std@@YAXPAVioHashString@@ABV1@@Z ; std::_Construct<ioHashString,ioHashString const &>
  00051	59		 pop	 ecx
  00052	59		 pop	 ecx
$LN30@push_back@2:

; 996  : 			++this->_Mylast;

  00053	83 46 04 10	 add	 DWORD PTR [esi+4], 16	; 00000010H
  00057	5f		 pop	 edi
  00058	5e		 pop	 esi

; 997  : 			}
; 998  : 		}

  00059	5d		 pop	 ebp
  0005a	c2 04 00	 ret	 4
?push_back@?$vector@VioHashString@@V?$allocator@VioHashString@@@std@@@std@@QAEXABVioHashString@@@Z ENDP ; std::vector<ioHashString,std::allocator<ioHashString> >::push_back
_TEXT	ENDS
PUBLIC	?push_back@?$vector@UColorText@ioMission@@V?$allocator@UColorText@ioMission@@@std@@@std@@QAEXABUColorText@ioMission@@@Z ; std::vector<ioMission::ColorText,std::allocator<ioMission::ColorText> >::push_back
; Function compile flags: /Ogsp
;	COMDAT ?push_back@?$vector@UColorText@ioMission@@V?$allocator@UColorText@ioMission@@@std@@@std@@QAEXABUColorText@ioMission@@@Z
_TEXT	SEGMENT
__Val$ = 8						; size = 4
?push_back@?$vector@UColorText@ioMission@@V?$allocator@UColorText@ioMission@@@std@@@std@@QAEXABUColorText@ioMission@@@Z PROC ; std::vector<ioMission::ColorText,std::allocator<ioMission::ColorText> >::push_back, COMDAT
; _this$ = ecx

; 976  : 		{	// insert element at end

  00000	55		 push	 ebp
  00001	8b ec		 mov	 ebp, esp
  00003	56		 push	 esi
  00004	8b f1		 mov	 esi, ecx

; 977  : 		if (_Inside(_STD addressof(_Val)))

  00006	8b 4e 04	 mov	 ecx, DWORD PTR [esi+4]
  00009	57		 push	 edi
  0000a	8b 7d 08	 mov	 edi, DWORD PTR __Val$[ebp]
  0000d	3b f9		 cmp	 edi, ecx
  0000f	73 33		 jae	 SHORT $LN4@push_back@3
  00011	8b 16		 mov	 edx, DWORD PTR [esi]
  00013	3b d7		 cmp	 edx, edi
  00015	77 2d		 ja	 SHORT $LN4@push_back@3

; 978  : 			{	// push back an element
; 979  : 			size_type _Idx = _STD addressof(_Val) - this->_Myfirst;

  00017	8b c7		 mov	 eax, edi
  00019	2b c2		 sub	 eax, edx
  0001b	6a 14		 push	 20			; 00000014H
  0001d	99		 cdq
  0001e	5f		 pop	 edi
  0001f	f7 ff		 idiv	 edi
  00021	8b f8		 mov	 edi, eax

; 980  : 			if (this->_Mylast == this->_Myend)

  00023	3b 4e 08	 cmp	 ecx, DWORD PTR [esi+8]
  00026	75 09		 jne	 SHORT $LN3@push_back@3

; 981  : 				_Reserve(1);

  00028	6a 01		 push	 1
  0002a	8b ce		 mov	 ecx, esi
  0002c	e8 00 00 00 00	 call	 ?_Reserve@?$vector@UColorText@ioMission@@V?$allocator@UColorText@ioMission@@@std@@@std@@IAEXI@Z ; std::vector<ioMission::ColorText,std::allocator<ioMission::ColorText> >::_Reserve
$LN3@push_back@3:

; 982  : 			_Orphan_range(this->_Mylast, this->_Mylast);
; 983  : 			_Cons_val(this->_Alval,
; 984  : 				this->_Mylast,
; 985  : 				this->_Myfirst[_Idx]);

  00031	6b ff 14	 imul	 edi, 20			; 00000014H
  00034	03 3e		 add	 edi, DWORD PTR [esi]
  00036	8d 4e 0c	 lea	 ecx, DWORD PTR [esi+12]
  00039	57		 push	 edi
  0003a	ff 76 04	 push	 DWORD PTR [esi+4]
  0003d	e8 00 00 00 00	 call	 ??$construct@AAUColorText@ioMission@@@?$allocator@UColorText@ioMission@@@std@@QAEXPAUColorText@ioMission@@AAU23@@Z ; std::allocator<ioMission::ColorText>::construct<ioMission::ColorText &>

; 986  : 			++this->_Mylast;
; 987  : 			}
; 988  : 		else

  00042	eb 19		 jmp	 SHORT $LN30@push_back@3
$LN4@push_back@3:

; 989  : 			{	// push back a non-element
; 990  : 			if (this->_Mylast == this->_Myend)

  00044	3b 4e 08	 cmp	 ecx, DWORD PTR [esi+8]
  00047	75 09		 jne	 SHORT $LN1@push_back@3

; 991  : 				_Reserve(1);

  00049	6a 01		 push	 1
  0004b	8b ce		 mov	 ecx, esi
  0004d	e8 00 00 00 00	 call	 ?_Reserve@?$vector@UColorText@ioMission@@V?$allocator@UColorText@ioMission@@@std@@@std@@IAEXI@Z ; std::vector<ioMission::ColorText,std::allocator<ioMission::ColorText> >::_Reserve
$LN1@push_back@3:

; 992  : 			_Orphan_range(this->_Mylast, this->_Mylast);
; 993  : 			_Cons_val(this->_Alval,
; 994  : 				this->_Mylast,
; 995  : 				_Val);

  00052	57		 push	 edi
  00053	ff 76 04	 push	 DWORD PTR [esi+4]
  00056	e8 00 00 00 00	 call	 ??$_Construct@UColorText@ioMission@@ABU12@@std@@YAXPAUColorText@ioMission@@ABU12@@Z ; std::_Construct<ioMission::ColorText,ioMission::ColorText const &>
  0005b	59		 pop	 ecx
  0005c	59		 pop	 ecx
$LN30@push_back@3:

; 996  : 			++this->_Mylast;

  0005d	83 46 04 14	 add	 DWORD PTR [esi+4], 20	; 00000014H
  00061	5f		 pop	 edi
  00062	5e		 pop	 esi

; 997  : 			}
; 998  : 		}

  00063	5d		 pop	 ebp
  00064	c2 04 00	 ret	 4
?push_back@?$vector@UColorText@ioMission@@V?$allocator@UColorText@ioMission@@@std@@@std@@QAEXABUColorText@ioMission@@@Z ENDP ; std::vector<ioMission::ColorText,std::allocator<ioMission::ColorText> >::push_back
_TEXT	ENDS
PUBLIC	??$_Cons_val@V?$allocator@V?$vector@UColorText@ioMission@@V?$allocator@UColorText@ioMission@@@std@@@std@@@std@@V?$vector@UColorText@ioMission@@V?$allocator@UColorText@ioMission@@@std@@@2@AAV32@@std@@YAXAAV?$allocator@V?$vector@UColorText@ioMission@@V?$allocator@UColorText@ioMission@@@std@@@std@@@0@PAV?$vector@UColorText@ioMission@@V?$allocator@UColorText@ioMission@@@std@@@0@AAV20@@Z ; std::_Cons_val<std::allocator<std::vector<ioMission::ColorText,std::allocator<ioMission::ColorText> > >,std::vector<ioMission::ColorText,std::allocator<ioMission::ColorText> >,std::vector<ioMission::ColorText,std::allocator<ioMission::ColorText> > &>
;	COMDAT xdata$x
; File c:\program files (x86)\microsoft visual studio 10.0\vc\include\utility
xdata$x	SEGMENT
__unwindtable$??$_Cons_val@V?$allocator@V?$vector@UColorText@ioMission@@V?$allocator@UColorText@ioMission@@@std@@@std@@@std@@V?$vector@UColorText@ioMission@@V?$allocator@UColorText@ioMission@@@std@@@2@AAV32@@std@@YAXAAV?$allocator@V?$vector@UColorText@ioMission@@V?$allocator@UColorText@ioMission@@@std@@@std@@@0@PAV?$vector@UColorText@ioMission@@V?$allocator@UColorText@ioMission@@@std@@@0@AAV20@@Z DD 0ffffffffH
	DD	FLAT:__unwindfunclet$??$_Cons_val@V?$allocator@V?$vector@UColorText@ioMission@@V?$allocator@UColorText@ioMission@@@std@@@std@@@std@@V?$vector@UColorText@ioMission@@V?$allocator@UColorText@ioMission@@@std@@@2@AAV32@@std@@YAXAAV?$allocator@V?$vector@UColorText@ioMission@@V?$allocator@UColorText@ioMission@@@std@@@std@@@0@PAV?$vector@UColorText@ioMission@@V?$allocator@UColorText@ioMission@@@std@@@0@AAV20@@Z$0
__ehfuncinfo$??$_Cons_val@V?$allocator@V?$vector@UColorText@ioMission@@V?$allocator@UColorText@ioMission@@@std@@@std@@@std@@V?$vector@UColorText@ioMission@@V?$allocator@UColorText@ioMission@@@std@@@2@AAV32@@std@@YAXAAV?$allocator@V?$vector@UColorText@ioMission@@V?$allocator@UColorText@ioMission@@@std@@@std@@@0@PAV?$vector@UColorText@ioMission@@V?$allocator@UColorText@ioMission@@@std@@@0@AAV20@@Z DD 019930522H
	DD	01H
	DD	FLAT:__unwindtable$??$_Cons_val@V?$allocator@V?$vector@UColorText@ioMission@@V?$allocator@UColorText@ioMission@@@std@@@std@@@std@@V?$vector@UColorText@ioMission@@V?$allocator@UColorText@ioMission@@@std@@@2@AAV32@@std@@YAXAAV?$allocator@V?$vector@UColorText@ioMission@@V?$allocator@UColorText@ioMission@@@std@@@std@@@0@PAV?$vector@UColorText@ioMission@@V?$allocator@UColorText@ioMission@@@std@@@0@AAV20@@Z
	DD	2 DUP(00H)
	DD	2 DUP(00H)
	DD	00H
	DD	01H
; Function compile flags: /Ogsp
; File c:\program files (x86)\microsoft visual studio 10.0\vc\include\xmemory
xdata$x	ENDS
;	COMDAT ??$_Cons_val@V?$allocator@V?$vector@UColorText@ioMission@@V?$allocator@UColorText@ioMission@@@std@@@std@@@std@@V?$vector@UColorText@ioMission@@V?$allocator@UColorText@ioMission@@@std@@@2@AAV32@@std@@YAXAAV?$allocator@V?$vector@UColorText@ioMission@@V?$allocator@UColorText@ioMission@@@std@@@std@@@0@PAV?$vector@UColorText@ioMission@@V?$allocator@UColorText@ioMission@@@std@@@0@AAV20@@Z
_TEXT	SEGMENT
$T515811 = -16						; size = 4
__$EHRec$ = -12						; size = 12
__Alval$ = 8						; size = 4
__Pdest$ = 12						; size = 4
__Src$ = 16						; size = 4
??$_Cons_val@V?$allocator@V?$vector@UColorText@ioMission@@V?$allocator@UColorText@ioMission@@@std@@@std@@@std@@V?$vector@UColorText@ioMission@@V?$allocator@UColorText@ioMission@@@std@@@2@AAV32@@std@@YAXAAV?$allocator@V?$vector@UColorText@ioMission@@V?$allocator@UColorText@ioMission@@@std@@@std@@@0@PAV?$vector@UColorText@ioMission@@V?$allocator@UColorText@ioMission@@@std@@@0@AAV20@@Z PROC ; std::_Cons_val<std::allocator<std::vector<ioMission::ColorText,std::allocator<ioMission::ColorText> > >,std::vector<ioMission::ColorText,std::allocator<ioMission::ColorText> >,std::vector<ioMission::ColorText,std::allocator<ioMission::ColorText> > &>, COMDAT

; 279  : 	{	// construct using allocator

  00000	6a 04		 push	 4
  00002	b8 00 00 00 00	 mov	 eax, __ehhandler$??$_Cons_val@V?$allocator@V?$vector@UColorText@ioMission@@V?$allocator@UColorText@ioMission@@@std@@@std@@@std@@V?$vector@UColorText@ioMission@@V?$allocator@UColorText@ioMission@@@std@@@2@AAV32@@std@@YAXAAV?$allocator@V?$vector@UColorText@ioMission@@V?$allocator@UColorText@ioMission@@@std@@@std@@@0@PAV?$vector@UColorText@ioMission@@V?$allocator@UColorText@ioMission@@@std@@@0@AAV20@@Z
  00007	e8 00 00 00 00	 call	 __EH_prolog3

; 280  : 	_Alval.construct(_Pdest, _STD forward<_Ty2>(_Src));

  0000c	8b 4d 0c	 mov	 ecx, DWORD PTR __Pdest$[ebp]
  0000f	89 4d f0	 mov	 DWORD PTR $T515811[ebp], ecx
  00012	83 65 fc 00	 and	 DWORD PTR __$EHRec$[ebp+8], 0
  00016	85 c9		 test	 ecx, ecx
  00018	74 08		 je	 SHORT $LN7@Cons_val
  0001a	ff 75 10	 push	 DWORD PTR __Src$[ebp]
  0001d	e8 00 00 00 00	 call	 ??0?$vector@UColorText@ioMission@@V?$allocator@UColorText@ioMission@@@std@@@std@@QAE@ABV01@@Z ; std::vector<ioMission::ColorText,std::allocator<ioMission::ColorText> >::vector<ioMission::ColorText,std::allocator<ioMission::ColorText> >
$LN7@Cons_val:

; 281  : 	}

  00022	e8 00 00 00 00	 call	 __EH_epilog3
  00027	c3		 ret	 0
_TEXT	ENDS
;	COMDAT text$x
text$x	SEGMENT
__unwindfunclet$??$_Cons_val@V?$allocator@V?$vector@UColorText@ioMission@@V?$allocator@UColorText@ioMission@@@std@@@std@@@std@@V?$vector@UColorText@ioMission@@V?$allocator@UColorText@ioMission@@@std@@@2@AAV32@@std@@YAXAAV?$allocator@V?$vector@UColorText@ioMission@@V?$allocator@UColorText@ioMission@@@std@@@std@@@0@PAV?$vector@UColorText@ioMission@@V?$allocator@UColorText@ioMission@@@std@@@0@AAV20@@Z$0:
  00000	ff 75 0c	 push	 DWORD PTR __Pdest$[ebp]
  00003	ff 75 f0	 push	 DWORD PTR $T515811[ebp]
  00006	e8 00 00 00 00	 call	 ??3@YAXPAX0@Z		; operator delete
  0000b	59		 pop	 ecx
  0000c	59		 pop	 ecx
  0000d	c3		 ret	 0
__ehhandler$??$_Cons_val@V?$allocator@V?$vector@UColorText@ioMission@@V?$allocator@UColorText@ioMission@@@std@@@std@@@std@@V?$vector@UColorText@ioMission@@V?$allocator@UColorText@ioMission@@@std@@@2@AAV32@@std@@YAXAAV?$allocator@V?$vector@UColorText@ioMission@@V?$allocator@UColorText@ioMission@@@std@@@std@@@0@PAV?$vector@UColorText@ioMission@@V?$allocator@UColorText@ioMission@@@std@@@0@AAV20@@Z:
  0000e	8b 54 24 08	 mov	 edx, DWORD PTR [esp+8]
  00012	8d 42 0c	 lea	 eax, DWORD PTR [edx+12]
  00015	8b 4a ec	 mov	 ecx, DWORD PTR [edx-20]
  00018	33 c8		 xor	 ecx, eax
  0001a	e8 00 00 00 00	 call	 @__security_check_cookie@4
  0001f	b8 00 00 00 00	 mov	 eax, OFFSET __ehfuncinfo$??$_Cons_val@V?$allocator@V?$vector@UColorText@ioMission@@V?$allocator@UColorText@ioMission@@@std@@@std@@@std@@V?$vector@UColorText@ioMission@@V?$allocator@UColorText@ioMission@@@std@@@2@AAV32@@std@@YAXAAV?$allocator@V?$vector@UColorText@ioMission@@V?$allocator@UColorText@ioMission@@@std@@@std@@@0@PAV?$vector@UColorText@ioMission@@V?$allocator@UColorText@ioMission@@@std@@@0@AAV20@@Z
  00024	e9 00 00 00 00	 jmp	 ___CxxFrameHandler3
text$x	ENDS
??$_Cons_val@V?$allocator@V?$vector@UColorText@ioMission@@V?$allocator@UColorText@ioMission@@@std@@@std@@@std@@V?$vector@UColorText@ioMission@@V?$allocator@UColorText@ioMission@@@std@@@2@AAV32@@std@@YAXAAV?$allocator@V?$vector@UColorText@ioMission@@V?$allocator@UColorText@ioMission@@@std@@@std@@@0@PAV?$vector@UColorText@ioMission@@V?$allocator@UColorText@ioMission@@@std@@@0@AAV20@@Z ENDP ; std::_Cons_val<std::allocator<std::vector<ioMission::ColorText,std::allocator<ioMission::ColorText> > >,std::vector<ioMission::ColorText,std::allocator<ioMission::ColorText> >,std::vector<ioMission::ColorText,std::allocator<ioMission::ColorText> > &>
PUBLIC	?construct@?$allocator@V?$vector@UColorText@ioMission@@V?$allocator@UColorText@ioMission@@@std@@@std@@@std@@QAEXPAV?$vector@UColorText@ioMission@@V?$allocator@UColorText@ioMission@@@std@@@2@ABV32@@Z ; std::allocator<std::vector<ioMission::ColorText,std::allocator<ioMission::ColorText> > >::construct
; Function compile flags: /Ogsp
;	COMDAT ?construct@?$allocator@V?$vector@UColorText@ioMission@@V?$allocator@UColorText@ioMission@@@std@@@std@@@std@@QAEXPAV?$vector@UColorText@ioMission@@V?$allocator@UColorText@ioMission@@@std@@@2@ABV32@@Z
_TEXT	SEGMENT
__Ptr$ = 8						; size = 4
__Val$ = 12						; size = 4
?construct@?$allocator@V?$vector@UColorText@ioMission@@V?$allocator@UColorText@ioMission@@@std@@@std@@@std@@QAEXPAV?$vector@UColorText@ioMission@@V?$allocator@UColorText@ioMission@@@std@@@2@ABV32@@Z PROC ; std::allocator<std::vector<ioMission::ColorText,std::allocator<ioMission::ColorText> > >::construct, COMDAT
; _this$ = ecx

; 196  : 		{	// construct object at _Ptr with value _Val

  00000	55		 push	 ebp
  00001	8b ec		 mov	 ebp, esp

; 197  : 		_Construct(_Ptr, _Val);

  00003	ff 75 0c	 push	 DWORD PTR __Val$[ebp]
  00006	ff 75 08	 push	 DWORD PTR __Ptr$[ebp]
  00009	e8 00 00 00 00	 call	 ??$_Construct@V?$vector@UColorText@ioMission@@V?$allocator@UColorText@ioMission@@@std@@@std@@ABV12@@std@@YAXPAV?$vector@UColorText@ioMission@@V?$allocator@UColorText@ioMission@@@std@@@0@ABV10@@Z ; std::_Construct<std::vector<ioMission::ColorText,std::allocator<ioMission::ColorText> >,std::vector<ioMission::ColorText,std::allocator<ioMission::ColorText> > const &>
  0000e	59		 pop	 ecx
  0000f	59		 pop	 ecx

; 198  : 		}

  00010	5d		 pop	 ebp
  00011	c2 08 00	 ret	 8
?construct@?$allocator@V?$vector@UColorText@ioMission@@V?$allocator@UColorText@ioMission@@@std@@@std@@@std@@QAEXPAV?$vector@UColorText@ioMission@@V?$allocator@UColorText@ioMission@@@std@@@2@ABV32@@Z ENDP ; std::allocator<std::vector<ioMission::ColorText,std::allocator<ioMission::ColorText> > >::construct
_TEXT	ENDS
PUBLIC	??$_Uninit_copy@V?$_Vector_const_iterator@V?$_Vector_val@V?$basic_string@DU?$char_traits@D@std@@V?$allocator@D@2@@std@@V?$allocator@V?$basic_string@DU?$char_traits@D@std@@V?$allocator@D@2@@std@@@2@@std@@@std@@PAV?$basic_string@DU?$char_traits@D@std@@V?$allocator@D@2@@2@V?$allocator@V?$basic_string@DU?$char_traits@D@std@@V?$allocator@D@2@@std@@@2@@std@@YAPAV?$basic_string@DU?$char_traits@D@std@@V?$allocator@D@2@@0@V?$_Vector_const_iterator@V?$_Vector_val@V?$basic_string@DU?$char_traits@D@std@@V?$allocator@D@2@@std@@V?$allocator@V?$basic_string@DU?$char_traits@D@std@@V?$allocator@D@2@@std@@@2@@std@@@0@0PAV10@AAV?$allocator@V?$basic_string@DU?$char_traits@D@std@@V?$allocator@D@2@@std@@@0@U_Nonscalar_ptr_iterator_tag@0@@Z ; std::_Uninit_copy<std::_Vector_const_iterator<std::_Vector_val<std::basic_string<char,std::char_traits<char>,std::allocator<char> >,std::allocator<std::basic_string<char,std::char_traits<char>,std::allocator<char> > > > >,std::basic_string<char,std::char_traits<char>,std::allocator<char> > *,std::allocator<std::basic_string<char,std::char_traits<char>,std::allocator<char> > > >
;	COMDAT xdata$x
; File c:\program files (x86)\microsoft visual studio 10.0\vc\include\xstring
xdata$x	SEGMENT
__catchsym$??$_Uninit_copy@V?$_Vector_const_iterator@V?$_Vector_val@V?$basic_string@DU?$char_traits@D@std@@V?$allocator@D@2@@std@@V?$allocator@V?$basic_string@DU?$char_traits@D@std@@V?$allocator@D@2@@std@@@2@@std@@@std@@PAV?$basic_string@DU?$char_traits@D@std@@V?$allocator@D@2@@2@V?$allocator@V?$basic_string@DU?$char_traits@D@std@@V?$allocator@D@2@@std@@@2@@std@@YAPAV?$basic_string@DU?$char_traits@D@std@@V?$allocator@D@2@@0@V?$_Vector_const_iterator@V?$_Vector_val@V?$basic_string@DU?$char_traits@D@std@@V?$allocator@D@2@@std@@V?$allocator@V?$basic_string@DU?$char_traits@D@std@@V?$allocator@D@2@@std@@@2@@std@@@0@0PAV10@AAV?$allocator@V?$basic_string@DU?$char_traits@D@std@@V?$allocator@D@2@@std@@@0@U_Nonscalar_ptr_iterator_tag@0@@Z$2 DD 040H
	DD	00H
	DD	00H
	DD	FLAT:__catch$??$_Uninit_copy@V?$_Vector_const_iterator@V?$_Vector_val@V?$basic_string@DU?$char_traits@D@std@@V?$allocator@D@2@@std@@V?$allocator@V?$basic_string@DU?$char_traits@D@std@@V?$allocator@D@2@@std@@@2@@std@@@std@@PAV?$basic_string@DU?$char_traits@D@std@@V?$allocator@D@2@@2@V?$allocator@V?$basic_string@DU?$char_traits@D@std@@V?$allocator@D@2@@std@@@2@@std@@YAPAV?$basic_string@DU?$char_traits@D@std@@V?$allocator@D@2@@0@V?$_Vector_const_iterator@V?$_Vector_val@V?$basic_string@DU?$char_traits@D@std@@V?$allocator@D@2@@std@@V?$allocator@V?$basic_string@DU?$char_traits@D@std@@V?$allocator@D@2@@std@@@2@@std@@@0@0PAV10@AAV?$allocator@V?$basic_string@DU?$char_traits@D@std@@V?$allocator@D@2@@std@@@0@U_Nonscalar_ptr_iterator_tag@0@@Z$0
__unwindtable$??$_Uninit_copy@V?$_Vector_const_iterator@V?$_Vector_val@V?$basic_string@DU?$char_traits@D@std@@V?$allocator@D@2@@std@@V?$allocator@V?$basic_string@DU?$char_traits@D@std@@V?$allocator@D@2@@std@@@2@@std@@@std@@PAV?$basic_string@DU?$char_traits@D@std@@V?$allocator@D@2@@2@V?$allocator@V?$basic_string@DU?$char_traits@D@std@@V?$allocator@D@2@@std@@@2@@std@@YAPAV?$basic_string@DU?$char_traits@D@std@@V?$allocator@D@2@@0@V?$_Vector_const_iterator@V?$_Vector_val@V?$basic_string@DU?$char_traits@D@std@@V?$allocator@D@2@@std@@V?$allocator@V?$basic_string@DU?$char_traits@D@std@@V?$allocator@D@2@@std@@@2@@std@@@0@0PAV10@AAV?$allocator@V?$basic_string@DU?$char_traits@D@std@@V?$allocator@D@2@@std@@@0@U_Nonscalar_ptr_iterator_tag@0@@Z DD 0ffffffffH
	DD	00H
	DD	0ffffffffH
	DD	00H
__tryblocktable$??$_Uninit_copy@V?$_Vector_const_iterator@V?$_Vector_val@V?$basic_string@DU?$char_traits@D@std@@V?$allocator@D@2@@std@@V?$allocator@V?$basic_string@DU?$char_traits@D@std@@V?$allocator@D@2@@std@@@2@@std@@@std@@PAV?$basic_string@DU?$char_traits@D@std@@V?$allocator@D@2@@2@V?$allocator@V?$basic_string@DU?$char_traits@D@std@@V?$allocator@D@2@@std@@@2@@std@@YAPAV?$basic_string@DU?$char_traits@D@std@@V?$allocator@D@2@@0@V?$_Vector_const_iterator@V?$_Vector_val@V?$basic_string@DU?$char_traits@D@std@@V?$allocator@D@2@@std@@V?$allocator@V?$basic_string@DU?$char_traits@D@std@@V?$allocator@D@2@@std@@@2@@std@@@0@0PAV10@AAV?$allocator@V?$basic_string@DU?$char_traits@D@std@@V?$allocator@D@2@@std@@@0@U_Nonscalar_ptr_iterator_tag@0@@Z DD 00H
	DD	00H
	DD	01H
	DD	01H
	DD	FLAT:__catchsym$??$_Uninit_copy@V?$_Vector_const_iterator@V?$_Vector_val@V?$basic_string@DU?$char_traits@D@std@@V?$allocator@D@2@@std@@V?$allocator@V?$basic_string@DU?$char_traits@D@std@@V?$allocator@D@2@@std@@@2@@std@@@std@@PAV?$basic_string@DU?$char_traits@D@std@@V?$allocator@D@2@@2@V?$allocator@V?$basic_string@DU?$char_traits@D@std@@V?$allocator@D@2@@std@@@2@@std@@YAPAV?$basic_string@DU?$char_traits@D@std@@V?$allocator@D@2@@0@V?$_Vector_const_iterator@V?$_Vector_val@V?$basic_string@DU?$char_traits@D@std@@V?$allocator@D@2@@std@@V?$allocator@V?$basic_string@DU?$char_traits@D@std@@V?$allocator@D@2@@std@@@2@@std@@@0@0PAV10@AAV?$allocator@V?$basic_string@DU?$char_traits@D@std@@V?$allocator@D@2@@std@@@0@U_Nonscalar_ptr_iterator_tag@0@@Z$2
__ehfuncinfo$??$_Uninit_copy@V?$_Vector_const_iterator@V?$_Vector_val@V?$basic_string@DU?$char_traits@D@std@@V?$allocator@D@2@@std@@V?$allocator@V?$basic_string@DU?$char_traits@D@std@@V?$allocator@D@2@@std@@@2@@std@@@std@@PAV?$basic_string@DU?$char_traits@D@std@@V?$allocator@D@2@@2@V?$allocator@V?$basic_string@DU?$char_traits@D@std@@V?$allocator@D@2@@std@@@2@@std@@YAPAV?$basic_string@DU?$char_traits@D@std@@V?$allocator@D@2@@0@V?$_Vector_const_iterator@V?$_Vector_val@V?$basic_string@DU?$char_traits@D@std@@V?$allocator@D@2@@std@@V?$allocator@V?$basic_string@DU?$char_traits@D@std@@V?$allocator@D@2@@std@@@2@@std@@@0@0PAV10@AAV?$allocator@V?$basic_string@DU?$char_traits@D@std@@V?$allocator@D@2@@std@@@0@U_Nonscalar_ptr_iterator_tag@0@@Z DD 019930522H
	DD	02H
	DD	FLAT:__unwindtable$??$_Uninit_copy@V?$_Vector_const_iterator@V?$_Vector_val@V?$basic_string@DU?$char_traits@D@std@@V?$allocator@D@2@@std@@V?$allocator@V?$basic_string@DU?$char_traits@D@std@@V?$allocator@D@2@@std@@@2@@std@@@std@@PAV?$basic_string@DU?$char_traits@D@std@@V?$allocator@D@2@@2@V?$allocator@V?$basic_string@DU?$char_traits@D@std@@V?$allocator@D@2@@std@@@2@@std@@YAPAV?$basic_string@DU?$char_traits@D@std@@V?$allocator@D@2@@0@V?$_Vector_const_iterator@V?$_Vector_val@V?$basic_string@DU?$char_traits@D@std@@V?$allocator@D@2@@std@@V?$allocator@V?$basic_string@DU?$char_traits@D@std@@V?$allocator@D@2@@std@@@2@@std@@@0@0PAV10@AAV?$allocator@V?$basic_string@DU?$char_traits@D@std@@V?$allocator@D@2@@std@@@0@U_Nonscalar_ptr_iterator_tag@0@@Z
	DD	01H
	DD	FLAT:__tryblocktable$??$_Uninit_copy@V?$_Vector_const_iterator@V?$_Vector_val@V?$basic_string@DU?$char_traits@D@std@@V?$allocator@D@2@@std@@V?$allocator@V?$basic_string@DU?$char_traits@D@std@@V?$allocator@D@2@@std@@@2@@std@@@std@@PAV?$basic_string@DU?$char_traits@D@std@@V?$allocator@D@2@@2@V?$allocator@V?$basic_string@DU?$char_traits@D@std@@V?$allocator@D@2@@std@@@2@@std@@YAPAV?$basic_string@DU?$char_traits@D@std@@V?$allocator@D@2@@0@V?$_Vector_const_iterator@V?$_Vector_val@V?$basic_string@DU?$char_traits@D@std@@V?$allocator@D@2@@std@@V?$allocator@V?$basic_string@DU?$char_traits@D@std@@V?$allocator@D@2@@std@@@2@@std@@@0@0PAV10@AAV?$allocator@V?$basic_string@DU?$char_traits@D@std@@V?$allocator@D@2@@std@@@0@U_Nonscalar_ptr_iterator_tag@0@@Z
	DD	2 DUP(00H)
	DD	00H
	DD	01H
; Function compile flags: /Ogsp
; File c:\program files (x86)\microsoft visual studio 10.0\vc\include\memory
xdata$x	ENDS
;	COMDAT ??$_Uninit_copy@V?$_Vector_const_iterator@V?$_Vector_val@V?$basic_string@DU?$char_traits@D@std@@V?$allocator@D@2@@std@@V?$allocator@V?$basic_string@DU?$char_traits@D@std@@V?$allocator@D@2@@std@@@2@@std@@@std@@PAV?$basic_string@DU?$char_traits@D@std@@V?$allocator@D@2@@2@V?$allocator@V?$basic_string@DU?$char_traits@D@std@@V?$allocator@D@2@@std@@@2@@std@@YAPAV?$basic_string@DU?$char_traits@D@std@@V?$allocator@D@2@@0@V?$_Vector_const_iterator@V?$_Vector_val@V?$basic_string@DU?$char_traits@D@std@@V?$allocator@D@2@@std@@V?$allocator@V?$basic_string@DU?$char_traits@D@std@@V?$allocator@D@2@@std@@@2@@std@@@0@0PAV10@AAV?$allocator@V?$basic_string@DU?$char_traits@D@std@@V?$allocator@D@2@@std@@@0@U_Nonscalar_ptr_iterator_tag@0@@Z
_TEXT	SEGMENT
__Next$ = -20						; size = 4
__$EHRec$ = -16						; size = 16
__First$ = 8						; size = 4
__Last$ = 12						; size = 4
__Dest$ = 16						; size = 4
__Al$ = 20						; size = 4
___formal$ = 24						; size = 1
??$_Uninit_copy@V?$_Vector_const_iterator@V?$_Vector_val@V?$basic_string@DU?$char_traits@D@std@@V?$allocator@D@2@@std@@V?$allocator@V?$basic_string@DU?$char_traits@D@std@@V?$allocator@D@2@@std@@@2@@std@@@std@@PAV?$basic_string@DU?$char_traits@D@std@@V?$allocator@D@2@@2@V?$allocator@V?$basic_string@DU?$char_traits@D@std@@V?$allocator@D@2@@std@@@2@@std@@YAPAV?$basic_string@DU?$char_traits@D@std@@V?$allocator@D@2@@0@V?$_Vector_const_iterator@V?$_Vector_val@V?$basic_string@DU?$char_traits@D@std@@V?$allocator@D@2@@std@@V?$allocator@V?$basic_string@DU?$char_traits@D@std@@V?$allocator@D@2@@std@@@2@@std@@@0@0PAV10@AAV?$allocator@V?$basic_string@DU?$char_traits@D@std@@V?$allocator@D@2@@std@@@0@U_Nonscalar_ptr_iterator_tag@0@@Z PROC ; std::_Uninit_copy<std::_Vector_const_iterator<std::_Vector_val<std::basic_string<char,std::char_traits<char>,std::allocator<char> >,std::allocator<std::basic_string<char,std::char_traits<char>,std::allocator<char> > > > >,std::basic_string<char,std::char_traits<char>,std::allocator<char> > *,std::allocator<std::basic_string<char,std::char_traits<char>,std::allocator<char> > > >, COMDAT

; 369  : 	{	// copy [_First, _Last) to raw _Dest, using _Al, arbitrary type

  00000	6a 08		 push	 8
  00002	b8 00 00 00 00	 mov	 eax, __ehhandler$??$_Uninit_copy@V?$_Vector_const_iterator@V?$_Vector_val@V?$basic_string@DU?$char_traits@D@std@@V?$allocator@D@2@@std@@V?$allocator@V?$basic_string@DU?$char_traits@D@std@@V?$allocator@D@2@@std@@@2@@std@@@std@@PAV?$basic_string@DU?$char_traits@D@std@@V?$allocator@D@2@@2@V?$allocator@V?$basic_string@DU?$char_traits@D@std@@V?$allocator@D@2@@std@@@2@@std@@YAPAV?$basic_string@DU?$char_traits@D@std@@V?$allocator@D@2@@0@V?$_Vector_const_iterator@V?$_Vector_val@V?$basic_string@DU?$char_traits@D@std@@V?$allocator@D@2@@std@@V?$allocator@V?$basic_string@DU?$char_traits@D@std@@V?$allocator@D@2@@std@@@2@@std@@@0@0PAV10@AAV?$allocator@V?$basic_string@DU?$char_traits@D@std@@V?$allocator@D@2@@std@@@0@U_Nonscalar_ptr_iterator_tag@0@@Z
  00007	e8 00 00 00 00	 call	 __EH_prolog3_catch

; 370  : 	_DEBUG_RANGE(_First, _Last);
; 371  : 	_DEBUG_POINTER(_Dest);
; 372  : 	_FwdIt _Next = _Dest;

  0000c	8b 45 10	 mov	 eax, DWORD PTR __Dest$[ebp]

; 373  : 
; 374  : 	_TRY_BEGIN

  0000f	83 65 fc 00	 and	 DWORD PTR __$EHRec$[ebp+12], 0
  00013	89 45 ec	 mov	 DWORD PTR __Next$[ebp], eax

; 375  : 	for (; _First != _Last; ++_Dest, ++_First)

$LL14@Uninit_cop@3:
  00016	8b 45 08	 mov	 eax, DWORD PTR __First$[ebp]
  00019	3b 45 0c	 cmp	 eax, DWORD PTR __Last$[ebp]
  0001c	74 34		 je	 SHORT $LN4@Uninit_cop@3

; 376  : 		_Cons_val(_Al, _Dest, *_First);

  0001e	50		 push	 eax
  0001f	ff 75 10	 push	 DWORD PTR __Dest$[ebp]
  00022	e8 00 00 00 00	 call	 ??$_Construct@V?$basic_string@DU?$char_traits@D@std@@V?$allocator@D@2@@std@@ABV12@@std@@YAXPAV?$basic_string@DU?$char_traits@D@std@@V?$allocator@D@2@@0@ABV10@@Z ; std::_Construct<std::basic_string<char,std::char_traits<char>,std::allocator<char> >,std::basic_string<char,std::char_traits<char>,std::allocator<char> > const &>
  00027	83 45 10 1c	 add	 DWORD PTR __Dest$[ebp], 28 ; 0000001cH
  0002b	83 45 08 1c	 add	 DWORD PTR __First$[ebp], 28 ; 0000001cH
  0002f	59		 pop	 ecx
  00030	59		 pop	 ecx
  00031	eb e3		 jmp	 SHORT $LL14@Uninit_cop@3
__catch$??$_Uninit_copy@V?$_Vector_const_iterator@V?$_Vector_val@V?$basic_string@DU?$char_traits@D@std@@V?$allocator@D@2@@std@@V?$allocator@V?$basic_string@DU?$char_traits@D@std@@V?$allocator@D@2@@std@@@2@@std@@@std@@PAV?$basic_string@DU?$char_traits@D@std@@V?$allocator@D@2@@2@V?$allocator@V?$basic_string@DU?$char_traits@D@std@@V?$allocator@D@2@@std@@@2@@std@@YAPAV?$basic_string@DU?$char_traits@D@std@@V?$allocator@D@2@@0@V?$_Vector_const_iterator@V?$_Vector_val@V?$basic_string@DU?$char_traits@D@std@@V?$allocator@D@2@@std@@V?$allocator@V?$basic_string@DU?$char_traits@D@std@@V?$allocator@D@2@@std@@@2@@std@@@0@0PAV10@AAV?$allocator@V?$basic_string@DU?$char_traits@D@std@@V?$allocator@D@2@@std@@@0@U_Nonscalar_ptr_iterator_tag@0@@Z$0:

; 377  : 	_CATCH_ALL
; 378  : 	for (; _Next != _Dest; ++_Next)

  00033	8b 75 ec	 mov	 esi, DWORD PTR __Next$[ebp]
  00036	eb 0c		 jmp	 SHORT $LN50@Uninit_cop@3
$LL3@Uninit_cop@3:

; 379  : 		_Dest_val(_Al, _Next);

  00038	6a 01		 push	 1
  0003a	8b ce		 mov	 ecx, esi
  0003c	e8 00 00 00 00	 call	 ?_Tidy@?$basic_string@DU?$char_traits@D@std@@V?$allocator@D@2@@std@@QAEX_NI@Z ; std::basic_string<char,std::char_traits<char>,std::allocator<char> >::_Tidy
  00041	83 c6 1c	 add	 esi, 28			; 0000001cH
$LN50@Uninit_cop@3:

; 380  : 	_RERAISE;

  00044	6a 00		 push	 0
  00046	3b 75 10	 cmp	 esi, DWORD PTR __Dest$[ebp]
  00049	75 ed		 jne	 SHORT $LL3@Uninit_cop@3
  0004b	6a 00		 push	 0
  0004d	e8 00 00 00 00	 call	 __CxxThrowException@8
$LN51@Uninit_cop@3:
$LN4@Uninit_cop@3:

; 381  : 	_CATCH_END
; 382  : 	return (_Dest);

  00052	8b 45 10	 mov	 eax, DWORD PTR __Dest$[ebp]

; 383  : 	}

  00055	e8 00 00 00 00	 call	 __EH_epilog3
  0005a	c3		 ret	 0
$LN49@Uninit_cop@3:
_TEXT	ENDS
;	COMDAT text$x
text$x	SEGMENT
__ehhandler$??$_Uninit_copy@V?$_Vector_const_iterator@V?$_Vector_val@V?$basic_string@DU?$char_traits@D@std@@V?$allocator@D@2@@std@@V?$allocator@V?$basic_string@DU?$char_traits@D@std@@V?$allocator@D@2@@std@@@2@@std@@@std@@PAV?$basic_string@DU?$char_traits@D@std@@V?$allocator@D@2@@2@V?$allocator@V?$basic_string@DU?$char_traits@D@std@@V?$allocator@D@2@@std@@@2@@std@@YAPAV?$basic_string@DU?$char_traits@D@std@@V?$allocator@D@2@@0@V?$_Vector_const_iterator@V?$_Vector_val@V?$basic_string@DU?$char_traits@D@std@@V?$allocator@D@2@@std@@V?$allocator@V?$basic_string@DU?$char_traits@D@std@@V?$allocator@D@2@@std@@@2@@std@@@0@0PAV10@AAV?$allocator@V?$basic_string@DU?$char_traits@D@std@@V?$allocator@D@2@@std@@@0@U_Nonscalar_ptr_iterator_tag@0@@Z:
  00000	8b 54 24 08	 mov	 edx, DWORD PTR [esp+8]
  00004	8d 42 0c	 lea	 eax, DWORD PTR [edx+12]
  00007	8b 4a e8	 mov	 ecx, DWORD PTR [edx-24]
  0000a	33 c8		 xor	 ecx, eax
  0000c	e8 00 00 00 00	 call	 @__security_check_cookie@4
  00011	b8 00 00 00 00	 mov	 eax, OFFSET __ehfuncinfo$??$_Uninit_copy@V?$_Vector_const_iterator@V?$_Vector_val@V?$basic_string@DU?$char_traits@D@std@@V?$allocator@D@2@@std@@V?$allocator@V?$basic_string@DU?$char_traits@D@std@@V?$allocator@D@2@@std@@@2@@std@@@std@@PAV?$basic_string@DU?$char_traits@D@std@@V?$allocator@D@2@@2@V?$allocator@V?$basic_string@DU?$char_traits@D@std@@V?$allocator@D@2@@std@@@2@@std@@YAPAV?$basic_string@DU?$char_traits@D@std@@V?$allocator@D@2@@0@V?$_Vector_const_iterator@V?$_Vector_val@V?$basic_string@DU?$char_traits@D@std@@V?$allocator@D@2@@std@@V?$allocator@V?$basic_string@DU?$char_traits@D@std@@V?$allocator@D@2@@std@@@2@@std@@@0@0PAV10@AAV?$allocator@V?$basic_string@DU?$char_traits@D@std@@V?$allocator@D@2@@std@@@0@U_Nonscalar_ptr_iterator_tag@0@@Z
  00016	e9 00 00 00 00	 jmp	 ___CxxFrameHandler3
text$x	ENDS
??$_Uninit_copy@V?$_Vector_const_iterator@V?$_Vector_val@V?$basic_string@DU?$char_traits@D@std@@V?$allocator@D@2@@std@@V?$allocator@V?$basic_string@DU?$char_traits@D@std@@V?$allocator@D@2@@std@@@2@@std@@@std@@PAV?$basic_string@DU?$char_traits@D@std@@V?$allocator@D@2@@2@V?$allocator@V?$basic_string@DU?$char_traits@D@std@@V?$allocator@D@2@@std@@@2@@std@@YAPAV?$basic_string@DU?$char_traits@D@std@@V?$allocator@D@2@@0@V?$_Vector_const_iterator@V?$_Vector_val@V?$basic_string@DU?$char_traits@D@std@@V?$allocator@D@2@@std@@V?$allocator@V?$basic_string@DU?$char_traits@D@std@@V?$allocator@D@2@@std@@@2@@std@@@0@0PAV10@AAV?$allocator@V?$basic_string@DU?$char_traits@D@std@@V?$allocator@D@2@@std@@@0@U_Nonscalar_ptr_iterator_tag@0@@Z ENDP ; std::_Uninit_copy<std::_Vector_const_iterator<std::_Vector_val<std::basic_string<char,std::char_traits<char>,std::allocator<char> >,std::allocator<std::basic_string<char,std::char_traits<char>,std::allocator<char> > > > >,std::basic_string<char,std::char_traits<char>,std::allocator<char> > *,std::allocator<std::basic_string<char,std::char_traits<char>,std::allocator<char> > > >
PUBLIC	??$_Destroy@V?$vector@UColorText@ioMission@@V?$allocator@UColorText@ioMission@@@std@@@std@@@std@@YAXPAV?$vector@UColorText@ioMission@@V?$allocator@UColorText@ioMission@@@std@@@0@@Z ; std::_Destroy<std::vector<ioMission::ColorText,std::allocator<ioMission::ColorText> > >
; Function compile flags: /Ogsp
; File c:\program files (x86)\microsoft visual studio 10.0\vc\include\xmemory
;	COMDAT ??$_Destroy@V?$vector@UColorText@ioMission@@V?$allocator@UColorText@ioMission@@@std@@@std@@@std@@YAXPAV?$vector@UColorText@ioMission@@V?$allocator@UColorText@ioMission@@@std@@@0@@Z
_TEXT	SEGMENT
__Ptr$ = 8						; size = 4
??$_Destroy@V?$vector@UColorText@ioMission@@V?$allocator@UColorText@ioMission@@@std@@@std@@@std@@YAXPAV?$vector@UColorText@ioMission@@V?$allocator@UColorText@ioMission@@@std@@@0@@Z PROC ; std::_Destroy<std::vector<ioMission::ColorText,std::allocator<ioMission::ColorText> > >, COMDAT

; 62   : 	{	// destroy object at _Ptr

  00000	55		 push	 ebp
  00001	8b ec		 mov	 ebp, esp

; 63   : 	_Ptr->~_Ty();

  00003	8b 4d 08	 mov	 ecx, DWORD PTR __Ptr$[ebp]

; 64   : 	}

  00006	5d		 pop	 ebp

; 63   : 	_Ptr->~_Ty();

  00007	e9 00 00 00 00	 jmp	 ?_Tidy@?$vector@UColorText@ioMission@@V?$allocator@UColorText@ioMission@@@std@@@std@@IAEXXZ ; std::vector<ioMission::ColorText,std::allocator<ioMission::ColorText> >::_Tidy
??$_Destroy@V?$vector@UColorText@ioMission@@V?$allocator@UColorText@ioMission@@@std@@@std@@@std@@YAXPAV?$vector@UColorText@ioMission@@V?$allocator@UColorText@ioMission@@@std@@@0@@Z ENDP ; std::_Destroy<std::vector<ioMission::ColorText,std::allocator<ioMission::ColorText> > >
_TEXT	ENDS
PUBLIC	?_Assign_rv@?$vector@UColorText@ioMission@@V?$allocator@UColorText@ioMission@@@std@@@std@@QAEX$$QAV12@@Z ; std::vector<ioMission::ColorText,std::allocator<ioMission::ColorText> >::_Assign_rv
EXTRN	__imp_?_Swap_all@_Container_base0@std@@QAEXAAU12@@Z:PROC
; Function compile flags: /Ogsp
; File c:\program files (x86)\microsoft visual studio 10.0\vc\include\vector
;	COMDAT ?_Assign_rv@?$vector@UColorText@ioMission@@V?$allocator@UColorText@ioMission@@@std@@@std@@QAEX$$QAV12@@Z
_TEXT	SEGMENT
__Right$ = 8						; size = 4
?_Assign_rv@?$vector@UColorText@ioMission@@V?$allocator@UColorText@ioMission@@@std@@@std@@QAEX$$QAV12@@Z PROC ; std::vector<ioMission::ColorText,std::allocator<ioMission::ColorText> >::_Assign_rv, COMDAT
; _this$ = ecx

; 606  : 		{	// assign by moving _Right

  00000	55		 push	 ebp
  00001	8b ec		 mov	 ebp, esp
  00003	56		 push	 esi

; 607  : 		if (this == &_Right)

  00004	8b 75 08	 mov	 esi, DWORD PTR __Right$[ebp]
  00007	57		 push	 edi
  00008	8b f9		 mov	 edi, ecx
  0000a	3b fe		 cmp	 edi, esi
  0000c	74 28		 je	 SHORT $LN1@Assign_rv

; 608  : 			;
; 609  : 		else if (get_allocator() != _Right.get_allocator())
; 610  : 			{	// move construct a copy
; 611  : 			clear();
; 612  : 			for (iterator _Next = _Right.begin(); _Next != _Right.end();
; 613  : 				++_Next)
; 614  : 				push_back(_STD forward<_Ty>(*_Next));
; 615  : 			}
; 616  : 		else
; 617  : 			{	// clear this and steal from _Right
; 618  : 			_Tidy();

  0000e	e8 00 00 00 00	 call	 ?_Tidy@?$vector@UColorText@ioMission@@V?$allocator@UColorText@ioMission@@@std@@@std@@IAEXXZ ; std::vector<ioMission::ColorText,std::allocator<ioMission::ColorText> >::_Tidy

; 619  : 			this->_Swap_all((_Myt&)_Right);

  00013	56		 push	 esi
  00014	8b cf		 mov	 ecx, edi
  00016	ff 15 00 00 00
	00		 call	 DWORD PTR __imp_?_Swap_all@_Container_base0@std@@QAEXAAU12@@Z

; 620  : 			this->_Myfirst = _Right._Myfirst;

  0001c	8b 06		 mov	 eax, DWORD PTR [esi]
  0001e	89 07		 mov	 DWORD PTR [edi], eax

; 621  : 			this->_Mylast = _Right._Mylast;

  00020	8b 46 04	 mov	 eax, DWORD PTR [esi+4]
  00023	89 47 04	 mov	 DWORD PTR [edi+4], eax

; 622  : 			this->_Myend = _Right._Myend;

  00026	8b 46 08	 mov	 eax, DWORD PTR [esi+8]
  00029	89 47 08	 mov	 DWORD PTR [edi+8], eax

; 623  : 
; 624  : 			_Right._Myfirst = 0;

  0002c	33 c0		 xor	 eax, eax
  0002e	89 06		 mov	 DWORD PTR [esi], eax

; 625  : 			_Right._Mylast = 0;

  00030	89 46 04	 mov	 DWORD PTR [esi+4], eax

; 626  : 			_Right._Myend = 0;

  00033	89 46 08	 mov	 DWORD PTR [esi+8], eax
$LN1@Assign_rv:
  00036	5f		 pop	 edi
  00037	5e		 pop	 esi

; 627  : 			}
; 628  : 		}

  00038	5d		 pop	 ebp
  00039	c2 04 00	 ret	 4
?_Assign_rv@?$vector@UColorText@ioMission@@V?$allocator@UColorText@ioMission@@@std@@@std@@QAEX$$QAV12@@Z ENDP ; std::vector<ioMission::ColorText,std::allocator<ioMission::ColorText> >::_Assign_rv
_TEXT	ENDS
PUBLIC	?_Destroy@?$vector@V?$basic_string@DU?$char_traits@D@std@@V?$allocator@D@2@@std@@V?$allocator@V?$basic_string@DU?$char_traits@D@std@@V?$allocator@D@2@@std@@@2@@std@@IAEXPAV?$basic_string@DU?$char_traits@D@std@@V?$allocator@D@2@@2@0@Z ; std::vector<std::basic_string<char,std::char_traits<char>,std::allocator<char> >,std::allocator<std::basic_string<char,std::char_traits<char>,std::allocator<char> > > >::_Destroy
; Function compile flags: /Ogsp
;	COMDAT ?_Destroy@?$vector@V?$basic_string@DU?$char_traits@D@std@@V?$allocator@D@2@@std@@V?$allocator@V?$basic_string@DU?$char_traits@D@std@@V?$allocator@D@2@@std@@@2@@std@@IAEXPAV?$basic_string@DU?$char_traits@D@std@@V?$allocator@D@2@@2@0@Z
_TEXT	SEGMENT
__First$ = 8						; size = 4
__Cat$516160 = 12					; size = 1
__Last$ = 12						; size = 4
?_Destroy@?$vector@V?$basic_string@DU?$char_traits@D@std@@V?$allocator@D@2@@std@@V?$allocator@V?$basic_string@DU?$char_traits@D@std@@V?$allocator@D@2@@std@@@2@@std@@IAEXPAV?$basic_string@DU?$char_traits@D@std@@V?$allocator@D@2@@2@0@Z PROC ; std::vector<std::basic_string<char,std::char_traits<char>,std::allocator<char> >,std::allocator<std::basic_string<char,std::char_traits<char>,std::allocator<char> > > >::_Destroy, COMDAT
; _this$ = ecx

; 1269 : 		{	// destroy [_First, _Last) using allocator

  00000	55		 push	 ebp
  00001	8b ec		 mov	 ebp, esp

; 1270 : 		_Destroy_range(_First, _Last, this->_Alval);

  00003	ff 75 0c	 push	 DWORD PTR __Cat$516160[ebp]
  00006	83 c1 0c	 add	 ecx, 12			; 0000000cH
  00009	51		 push	 ecx
  0000a	ff 75 0c	 push	 DWORD PTR __Last$[ebp]
  0000d	ff 75 08	 push	 DWORD PTR __First$[ebp]
  00010	e8 00 00 00 00	 call	 ??$_Destroy_range@V?$allocator@V?$basic_string@DU?$char_traits@D@std@@V?$allocator@D@2@@std@@@std@@@std@@YAXPAV?$basic_string@DU?$char_traits@D@std@@V?$allocator@D@2@@0@0AAV?$allocator@V?$basic_string@DU?$char_traits@D@std@@V?$allocator@D@2@@std@@@0@U_Nonscalar_ptr_iterator_tag@0@@Z ; std::_Destroy_range<std::allocator<std::basic_string<char,std::char_traits<char>,std::allocator<char> > > >
  00015	83 c4 10	 add	 esp, 16			; 00000010H

; 1271 : 		}

  00018	5d		 pop	 ebp
  00019	c2 08 00	 ret	 8
?_Destroy@?$vector@V?$basic_string@DU?$char_traits@D@std@@V?$allocator@D@2@@std@@V?$allocator@V?$basic_string@DU?$char_traits@D@std@@V?$allocator@D@2@@std@@@2@@std@@IAEXPAV?$basic_string@DU?$char_traits@D@std@@V?$allocator@D@2@@2@0@Z ENDP ; std::vector<std::basic_string<char,std::char_traits<char>,std::allocator<char> >,std::allocator<std::basic_string<char,std::char_traits<char>,std::allocator<char> > > >::_Destroy
_TEXT	ENDS
PUBLIC	??$_Cons_val@V?$allocator@V?$vector@UColorText@ioMission@@V?$allocator@UColorText@ioMission@@@std@@@std@@@std@@V?$vector@UColorText@ioMission@@V?$allocator@UColorText@ioMission@@@std@@@2@ABV32@@std@@YAXAAV?$allocator@V?$vector@UColorText@ioMission@@V?$allocator@UColorText@ioMission@@@std@@@std@@@0@PAV?$vector@UColorText@ioMission@@V?$allocator@UColorText@ioMission@@@std@@@0@ABV20@@Z ; std::_Cons_val<std::allocator<std::vector<ioMission::ColorText,std::allocator<ioMission::ColorText> > >,std::vector<ioMission::ColorText,std::allocator<ioMission::ColorText> >,std::vector<ioMission::ColorText,std::allocator<ioMission::ColorText> > const &>
; Function compile flags: /Ogsp
; File c:\program files (x86)\microsoft visual studio 10.0\vc\include\xmemory
;	COMDAT ??$_Cons_val@V?$allocator@V?$vector@UColorText@ioMission@@V?$allocator@UColorText@ioMission@@@std@@@std@@@std@@V?$vector@UColorText@ioMission@@V?$allocator@UColorText@ioMission@@@std@@@2@ABV32@@std@@YAXAAV?$allocator@V?$vector@UColorText@ioMission@@V?$allocator@UColorText@ioMission@@@std@@@std@@@0@PAV?$vector@UColorText@ioMission@@V?$allocator@UColorText@ioMission@@@std@@@0@ABV20@@Z
_TEXT	SEGMENT
__Alval$ = 8						; size = 4
__Pdest$ = 12						; size = 4
__Src$ = 16						; size = 4
??$_Cons_val@V?$allocator@V?$vector@UColorText@ioMission@@V?$allocator@UColorText@ioMission@@@std@@@std@@@std@@V?$vector@UColorText@ioMission@@V?$allocator@UColorText@ioMission@@@std@@@2@ABV32@@std@@YAXAAV?$allocator@V?$vector@UColorText@ioMission@@V?$allocator@UColorText@ioMission@@@std@@@std@@@0@PAV?$vector@UColorText@ioMission@@V?$allocator@UColorText@ioMission@@@std@@@0@ABV20@@Z PROC ; std::_Cons_val<std::allocator<std::vector<ioMission::ColorText,std::allocator<ioMission::ColorText> > >,std::vector<ioMission::ColorText,std::allocator<ioMission::ColorText> >,std::vector<ioMission::ColorText,std::allocator<ioMission::ColorText> > const &>, COMDAT

; 279  : 	{	// construct using allocator

  00000	55		 push	 ebp
  00001	8b ec		 mov	 ebp, esp

; 280  : 	_Alval.construct(_Pdest, _STD forward<_Ty2>(_Src));

  00003	ff 75 10	 push	 DWORD PTR __Src$[ebp]
  00006	ff 75 0c	 push	 DWORD PTR __Pdest$[ebp]
  00009	e8 00 00 00 00	 call	 ??$_Construct@V?$vector@UColorText@ioMission@@V?$allocator@UColorText@ioMission@@@std@@@std@@ABV12@@std@@YAXPAV?$vector@UColorText@ioMission@@V?$allocator@UColorText@ioMission@@@std@@@0@ABV10@@Z ; std::_Construct<std::vector<ioMission::ColorText,std::allocator<ioMission::ColorText> >,std::vector<ioMission::ColorText,std::allocator<ioMission::ColorText> > const &>
  0000e	59		 pop	 ecx
  0000f	59		 pop	 ecx

; 281  : 	}

  00010	5d		 pop	 ebp
  00011	c3		 ret	 0
??$_Cons_val@V?$allocator@V?$vector@UColorText@ioMission@@V?$allocator@UColorText@ioMission@@@std@@@std@@@std@@V?$vector@UColorText@ioMission@@V?$allocator@UColorText@ioMission@@@std@@@2@ABV32@@std@@YAXAAV?$allocator@V?$vector@UColorText@ioMission@@V?$allocator@UColorText@ioMission@@@std@@@std@@@0@PAV?$vector@UColorText@ioMission@@V?$allocator@UColorText@ioMission@@@std@@@0@ABV20@@Z ENDP ; std::_Cons_val<std::allocator<std::vector<ioMission::ColorText,std::allocator<ioMission::ColorText> > >,std::vector<ioMission::ColorText,std::allocator<ioMission::ColorText> >,std::vector<ioMission::ColorText,std::allocator<ioMission::ColorText> > const &>
_TEXT	ENDS
PUBLIC	??$_Uninitialized_copy@V?$_Vector_const_iterator@V?$_Vector_val@V?$basic_string@DU?$char_traits@D@std@@V?$allocator@D@2@@std@@V?$allocator@V?$basic_string@DU?$char_traits@D@std@@V?$allocator@D@2@@std@@@2@@std@@@std@@PAV?$basic_string@DU?$char_traits@D@std@@V?$allocator@D@2@@2@V?$allocator@V?$basic_string@DU?$char_traits@D@std@@V?$allocator@D@2@@std@@@2@@std@@YAPAV?$basic_string@DU?$char_traits@D@std@@V?$allocator@D@2@@0@V?$_Vector_const_iterator@V?$_Vector_val@V?$basic_string@DU?$char_traits@D@std@@V?$allocator@D@2@@std@@V?$allocator@V?$basic_string@DU?$char_traits@D@std@@V?$allocator@D@2@@std@@@2@@std@@@0@0PAV10@AAV?$allocator@V?$basic_string@DU?$char_traits@D@std@@V?$allocator@D@2@@std@@@0@@Z ; std::_Uninitialized_copy<std::_Vector_const_iterator<std::_Vector_val<std::basic_string<char,std::char_traits<char>,std::allocator<char> >,std::allocator<std::basic_string<char,std::char_traits<char>,std::allocator<char> > > > >,std::basic_string<char,std::char_traits<char>,std::allocator<char> > *,std::allocator<std::basic_string<char,std::char_traits<char>,std::allocator<char> > > >
; Function compile flags: /Ogsp
; File c:\program files (x86)\microsoft visual studio 10.0\vc\include\memory
;	COMDAT ??$_Uninitialized_copy@V?$_Vector_const_iterator@V?$_Vector_val@V?$basic_string@DU?$char_traits@D@std@@V?$allocator@D@2@@std@@V?$allocator@V?$basic_string@DU?$char_traits@D@std@@V?$allocator@D@2@@std@@@2@@std@@@std@@PAV?$basic_string@DU?$char_traits@D@std@@V?$allocator@D@2@@2@V?$allocator@V?$basic_string@DU?$char_traits@D@std@@V?$allocator@D@2@@std@@@2@@std@@YAPAV?$basic_string@DU?$char_traits@D@std@@V?$allocator@D@2@@0@V?$_Vector_const_iterator@V?$_Vector_val@V?$basic_string@DU?$char_traits@D@std@@V?$allocator@D@2@@std@@V?$allocator@V?$basic_string@DU?$char_traits@D@std@@V?$allocator@D@2@@std@@@2@@std@@@0@0PAV10@AAV?$allocator@V?$basic_string@DU?$char_traits@D@std@@V?$allocator@D@2@@std@@@0@@Z
_TEXT	SEGMENT
__Cat$516177 = -4					; size = 1
__First$ = 8						; size = 4
__Last$ = 12						; size = 4
__Dest$ = 16						; size = 4
__Al$ = 20						; size = 4
??$_Uninitialized_copy@V?$_Vector_const_iterator@V?$_Vector_val@V?$basic_string@DU?$char_traits@D@std@@V?$allocator@D@2@@std@@V?$allocator@V?$basic_string@DU?$char_traits@D@std@@V?$allocator@D@2@@std@@@2@@std@@@std@@PAV?$basic_string@DU?$char_traits@D@std@@V?$allocator@D@2@@2@V?$allocator@V?$basic_string@DU?$char_traits@D@std@@V?$allocator@D@2@@std@@@2@@std@@YAPAV?$basic_string@DU?$char_traits@D@std@@V?$allocator@D@2@@0@V?$_Vector_const_iterator@V?$_Vector_val@V?$basic_string@DU?$char_traits@D@std@@V?$allocator@D@2@@std@@V?$allocator@V?$basic_string@DU?$char_traits@D@std@@V?$allocator@D@2@@std@@@2@@std@@@0@0PAV10@AAV?$allocator@V?$basic_string@DU?$char_traits@D@std@@V?$allocator@D@2@@std@@@0@@Z PROC ; std::_Uninitialized_copy<std::_Vector_const_iterator<std::_Vector_val<std::basic_string<char,std::char_traits<char>,std::allocator<char> >,std::allocator<std::basic_string<char,std::char_traits<char>,std::allocator<char> > > > >,std::basic_string<char,std::char_traits<char>,std::allocator<char> > *,std::allocator<std::basic_string<char,std::char_traits<char>,std::allocator<char> > > >, COMDAT

; 412  : 	{	// copy [_First, _Last) to raw _Dest, using _Al

  00000	55		 push	 ebp
  00001	8b ec		 mov	 ebp, esp
  00003	51		 push	 ecx

; 413  : 	return (_Uninit_copy(_First, _Last, _Dest, _Al,
; 414  : 		_Ptr_cat(_First, _Dest)));

  00004	ff 75 fc	 push	 DWORD PTR __Cat$516177[ebp]
  00007	ff 75 14	 push	 DWORD PTR __Al$[ebp]
  0000a	ff 75 10	 push	 DWORD PTR __Dest$[ebp]
  0000d	ff 75 0c	 push	 DWORD PTR __Last$[ebp]
  00010	ff 75 08	 push	 DWORD PTR __First$[ebp]
  00013	e8 00 00 00 00	 call	 ??$_Uninit_copy@V?$_Vector_const_iterator@V?$_Vector_val@V?$basic_string@DU?$char_traits@D@std@@V?$allocator@D@2@@std@@V?$allocator@V?$basic_string@DU?$char_traits@D@std@@V?$allocator@D@2@@std@@@2@@std@@@std@@PAV?$basic_string@DU?$char_traits@D@std@@V?$allocator@D@2@@2@V?$allocator@V?$basic_string@DU?$char_traits@D@std@@V?$allocator@D@2@@std@@@2@@std@@YAPAV?$basic_string@DU?$char_traits@D@std@@V?$allocator@D@2@@0@V?$_Vector_const_iterator@V?$_Vector_val@V?$basic_string@DU?$char_traits@D@std@@V?$allocator@D@2@@std@@V?$allocator@V?$basic_string@DU?$char_traits@D@std@@V?$allocator@D@2@@std@@@2@@std@@@0@0PAV10@AAV?$allocator@V?$basic_string@DU?$char_traits@D@std@@V?$allocator@D@2@@std@@@0@U_Nonscalar_ptr_iterator_tag@0@@Z ; std::_Uninit_copy<std::_Vector_const_iterator<std::_Vector_val<std::basic_string<char,std::char_traits<char>,std::allocator<char> >,std::allocator<std::basic_string<char,std::char_traits<char>,std::allocator<char> > > > >,std::basic_string<char,std::char_traits<char>,std::allocator<char> > *,std::allocator<std::basic_string<char,std::char_traits<char>,std::allocator<char> > > >
  00018	83 c4 14	 add	 esp, 20			; 00000014H

; 415  : 	}

  0001b	c9		 leave
  0001c	c3		 ret	 0
??$_Uninitialized_copy@V?$_Vector_const_iterator@V?$_Vector_val@V?$basic_string@DU?$char_traits@D@std@@V?$allocator@D@2@@std@@V?$allocator@V?$basic_string@DU?$char_traits@D@std@@V?$allocator@D@2@@std@@@2@@std@@@std@@PAV?$basic_string@DU?$char_traits@D@std@@V?$allocator@D@2@@2@V?$allocator@V?$basic_string@DU?$char_traits@D@std@@V?$allocator@D@2@@std@@@2@@std@@YAPAV?$basic_string@DU?$char_traits@D@std@@V?$allocator@D@2@@0@V?$_Vector_const_iterator@V?$_Vector_val@V?$basic_string@DU?$char_traits@D@std@@V?$allocator@D@2@@std@@V?$allocator@V?$basic_string@DU?$char_traits@D@std@@V?$allocator@D@2@@std@@@2@@std@@@0@0PAV10@AAV?$allocator@V?$basic_string@DU?$char_traits@D@std@@V?$allocator@D@2@@std@@@0@@Z ENDP ; std::_Uninitialized_copy<std::_Vector_const_iterator<std::_Vector_val<std::basic_string<char,std::char_traits<char>,std::allocator<char> >,std::allocator<std::basic_string<char,std::char_traits<char>,std::allocator<char> > > > >,std::basic_string<char,std::char_traits<char>,std::allocator<char> > *,std::allocator<std::basic_string<char,std::char_traits<char>,std::allocator<char> > > >
_TEXT	ENDS
PUBLIC	?destroy@?$allocator@V?$vector@UColorText@ioMission@@V?$allocator@UColorText@ioMission@@@std@@@std@@@std@@QAEXPAV?$vector@UColorText@ioMission@@V?$allocator@UColorText@ioMission@@@std@@@2@@Z ; std::allocator<std::vector<ioMission::ColorText,std::allocator<ioMission::ColorText> > >::destroy
; Function compile flags: /Ogsp
; File c:\program files (x86)\microsoft visual studio 10.0\vc\include\xmemory
;	COMDAT ?destroy@?$allocator@V?$vector@UColorText@ioMission@@V?$allocator@UColorText@ioMission@@@std@@@std@@@std@@QAEXPAV?$vector@UColorText@ioMission@@V?$allocator@UColorText@ioMission@@@std@@@2@@Z
_TEXT	SEGMENT
__Ptr$ = 8						; size = 4
?destroy@?$allocator@V?$vector@UColorText@ioMission@@V?$allocator@UColorText@ioMission@@@std@@@std@@@std@@QAEXPAV?$vector@UColorText@ioMission@@V?$allocator@UColorText@ioMission@@@std@@@2@@Z PROC ; std::allocator<std::vector<ioMission::ColorText,std::allocator<ioMission::ColorText> > >::destroy, COMDAT
; _this$ = ecx

; 212  : 		{	// destroy object at _Ptr

  00000	55		 push	 ebp
  00001	8b ec		 mov	 ebp, esp

; 213  : 		_Destroy(_Ptr);

  00003	8b 4d 08	 mov	 ecx, DWORD PTR __Ptr$[ebp]
  00006	e8 00 00 00 00	 call	 ?_Tidy@?$vector@UColorText@ioMission@@V?$allocator@UColorText@ioMission@@@std@@@std@@IAEXXZ ; std::vector<ioMission::ColorText,std::allocator<ioMission::ColorText> >::_Tidy

; 214  : 		}

  0000b	5d		 pop	 ebp
  0000c	c2 04 00	 ret	 4
?destroy@?$allocator@V?$vector@UColorText@ioMission@@V?$allocator@UColorText@ioMission@@@std@@@std@@@std@@QAEXPAV?$vector@UColorText@ioMission@@V?$allocator@UColorText@ioMission@@@std@@@2@@Z ENDP ; std::allocator<std::vector<ioMission::ColorText,std::allocator<ioMission::ColorText> > >::destroy
_TEXT	ENDS
PUBLIC	??0?$vector@UColorText@ioMission@@V?$allocator@UColorText@ioMission@@@std@@@std@@QAE@$$QAV01@@Z ; std::vector<ioMission::ColorText,std::allocator<ioMission::ColorText> >::vector<ioMission::ColorText,std::allocator<ioMission::ColorText> >
; Function compile flags: /Ogsp
; File c:\program files (x86)\microsoft visual studio 10.0\vc\include\vector
;	COMDAT ??0?$vector@UColorText@ioMission@@V?$allocator@UColorText@ioMission@@@std@@@std@@QAE@$$QAV01@@Z
_TEXT	SEGMENT
__Right$ = 8						; size = 4
??0?$vector@UColorText@ioMission@@V?$allocator@UColorText@ioMission@@@std@@@std@@QAE@$$QAV01@@Z PROC ; std::vector<ioMission::ColorText,std::allocator<ioMission::ColorText> >::vector<ioMission::ColorText,std::allocator<ioMission::ColorText> >, COMDAT
; _this$ = ecx

; 595  : 		{	// construct by moving _Right

  00000	55		 push	 ebp
  00001	8b ec		 mov	 ebp, esp
  00003	56		 push	 esi

; 596  : 		_Assign_rv(_STD forward<_Myt>(_Right));

  00004	ff 75 08	 push	 DWORD PTR __Right$[ebp]
  00007	8b f1		 mov	 esi, ecx
  00009	33 c0		 xor	 eax, eax
  0000b	89 06		 mov	 DWORD PTR [esi], eax
  0000d	89 46 04	 mov	 DWORD PTR [esi+4], eax
  00010	89 46 08	 mov	 DWORD PTR [esi+8], eax
  00013	e8 00 00 00 00	 call	 ?_Assign_rv@?$vector@UColorText@ioMission@@V?$allocator@UColorText@ioMission@@@std@@@std@@QAEX$$QAV12@@Z ; std::vector<ioMission::ColorText,std::allocator<ioMission::ColorText> >::_Assign_rv

; 597  : 		}

  00018	8b c6		 mov	 eax, esi
  0001a	5e		 pop	 esi
  0001b	5d		 pop	 ebp
  0001c	c2 04 00	 ret	 4
??0?$vector@UColorText@ioMission@@V?$allocator@UColorText@ioMission@@@std@@@std@@QAE@$$QAV01@@Z ENDP ; std::vector<ioMission::ColorText,std::allocator<ioMission::ColorText> >::vector<ioMission::ColorText,std::allocator<ioMission::ColorText> >
_TEXT	ENDS
PUBLIC	?_Tidy@?$vector@V?$basic_string@DU?$char_traits@D@std@@V?$allocator@D@2@@std@@V?$allocator@V?$basic_string@DU?$char_traits@D@std@@V?$allocator@D@2@@std@@@2@@std@@IAEXXZ ; std::vector<std::basic_string<char,std::char_traits<char>,std::allocator<char> >,std::allocator<std::basic_string<char,std::char_traits<char>,std::allocator<char> > > >::_Tidy
; Function compile flags: /Ogsp
;	COMDAT ?_Tidy@?$vector@V?$basic_string@DU?$char_traits@D@std@@V?$allocator@D@2@@std@@V?$allocator@V?$basic_string@DU?$char_traits@D@std@@V?$allocator@D@2@@std@@@2@@std@@IAEXXZ
_TEXT	SEGMENT
__Cat$516244 = -4					; size = 1
?_Tidy@?$vector@V?$basic_string@DU?$char_traits@D@std@@V?$allocator@D@2@@std@@V?$allocator@V?$basic_string@DU?$char_traits@D@std@@V?$allocator@D@2@@std@@@2@@std@@IAEXXZ PROC ; std::vector<std::basic_string<char,std::char_traits<char>,std::allocator<char> >,std::allocator<std::basic_string<char,std::char_traits<char>,std::allocator<char> > > >::_Tidy, COMDAT
; _this$ = ecx

; 1301 : 		{	// free all storage

  00000	55		 push	 ebp
  00001	8b ec		 mov	 ebp, esp
  00003	51		 push	 ecx
  00004	56		 push	 esi
  00005	8b f1		 mov	 esi, ecx

; 1302 : 		if (this->_Myfirst != 0)

  00007	83 3e 00	 cmp	 DWORD PTR [esi], 0
  0000a	74 21		 je	 SHORT $LN10@Tidy@4

; 1303 : 			{	// something to free, destroy and deallocate it
; 1304 : 			this->_Orphan_all();

  0000c	ff 15 00 00 00
	00		 call	 DWORD PTR __imp_?_Orphan_all@_Container_base0@std@@QAEXXZ

; 1305 : 			_Destroy(this->_Myfirst, this->_Mylast);

  00012	ff 75 fc	 push	 DWORD PTR __Cat$516244[ebp]
  00015	8d 46 0c	 lea	 eax, DWORD PTR [esi+12]
  00018	50		 push	 eax
  00019	ff 76 04	 push	 DWORD PTR [esi+4]
  0001c	ff 36		 push	 DWORD PTR [esi]
  0001e	e8 00 00 00 00	 call	 ??$_Destroy_range@V?$allocator@V?$basic_string@DU?$char_traits@D@std@@V?$allocator@D@2@@std@@@std@@@std@@YAXPAV?$basic_string@DU?$char_traits@D@std@@V?$allocator@D@2@@0@0AAV?$allocator@V?$basic_string@DU?$char_traits@D@std@@V?$allocator@D@2@@std@@@0@U_Nonscalar_ptr_iterator_tag@0@@Z ; std::_Destroy_range<std::allocator<std::basic_string<char,std::char_traits<char>,std::allocator<char> > > >

; 1306 : 			this->_Alval.deallocate(this->_Myfirst,
; 1307 : 				this->_Myend - this->_Myfirst);

  00023	ff 36		 push	 DWORD PTR [esi]
  00025	e8 00 00 00 00	 call	 ??3@YAXPAX@Z		; operator delete
  0002a	83 c4 14	 add	 esp, 20			; 00000014H
$LN10@Tidy@4:

; 1308 : 			}
; 1309 : 		this->_Myfirst = 0;

  0002d	83 26 00	 and	 DWORD PTR [esi], 0

; 1310 : 		this->_Mylast = 0;

  00030	83 66 04 00	 and	 DWORD PTR [esi+4], 0

; 1311 : 		this->_Myend = 0;

  00034	83 66 08 00	 and	 DWORD PTR [esi+8], 0
  00038	5e		 pop	 esi

; 1312 : 		}

  00039	c9		 leave
  0003a	c3		 ret	 0
?_Tidy@?$vector@V?$basic_string@DU?$char_traits@D@std@@V?$allocator@D@2@@std@@V?$allocator@V?$basic_string@DU?$char_traits@D@std@@V?$allocator@D@2@@std@@@2@@std@@IAEXXZ ENDP ; std::vector<std::basic_string<char,std::char_traits<char>,std::allocator<char> >,std::allocator<std::basic_string<char,std::char_traits<char>,std::allocator<char> > > >::_Tidy
_TEXT	ENDS
PUBLIC	??$_Ucopy@V?$_Vector_const_iterator@V?$_Vector_val@V?$basic_string@DU?$char_traits@D@std@@V?$allocator@D@2@@std@@V?$allocator@V?$basic_string@DU?$char_traits@D@std@@V?$allocator@D@2@@std@@@2@@std@@@std@@@?$vector@V?$basic_string@DU?$char_traits@D@std@@V?$allocator@D@2@@std@@V?$allocator@V?$basic_string@DU?$char_traits@D@std@@V?$allocator@D@2@@std@@@2@@std@@IAEPAV?$basic_string@DU?$char_traits@D@std@@V?$allocator@D@2@@1@V?$_Vector_const_iterator@V?$_Vector_val@V?$basic_string@DU?$char_traits@D@std@@V?$allocator@D@2@@std@@V?$allocator@V?$basic_string@DU?$char_traits@D@std@@V?$allocator@D@2@@std@@@2@@std@@@1@0PAV21@@Z ; std::vector<std::basic_string<char,std::char_traits<char>,std::allocator<char> >,std::allocator<std::basic_string<char,std::char_traits<char>,std::allocator<char> > > >::_Ucopy<std::_Vector_const_iterator<std::_Vector_val<std::basic_string<char,std::char_traits<char>,std::allocator<char> >,std::allocator<std::basic_string<char,std::char_traits<char>,std::allocator<char> > > > > >
; Function compile flags: /Ogsp
;	COMDAT ??$_Ucopy@V?$_Vector_const_iterator@V?$_Vector_val@V?$basic_string@DU?$char_traits@D@std@@V?$allocator@D@2@@std@@V?$allocator@V?$basic_string@DU?$char_traits@D@std@@V?$allocator@D@2@@std@@@2@@std@@@std@@@?$vector@V?$basic_string@DU?$char_traits@D@std@@V?$allocator@D@2@@std@@V?$allocator@V?$basic_string@DU?$char_traits@D@std@@V?$allocator@D@2@@std@@@2@@std@@IAEPAV?$basic_string@DU?$char_traits@D@std@@V?$allocator@D@2@@1@V?$_Vector_const_iterator@V?$_Vector_val@V?$basic_string@DU?$char_traits@D@std@@V?$allocator@D@2@@std@@V?$allocator@V?$basic_string@DU?$char_traits@D@std@@V?$allocator@D@2@@std@@@2@@std@@@1@0PAV21@@Z
_TEXT	SEGMENT
__First$ = 8						; size = 4
__Last$ = 12						; size = 4
__Cat$516267 = 16					; size = 1
__Ptr$ = 16						; size = 4
??$_Ucopy@V?$_Vector_const_iterator@V?$_Vector_val@V?$basic_string@DU?$char_traits@D@std@@V?$allocator@D@2@@std@@V?$allocator@V?$basic_string@DU?$char_traits@D@std@@V?$allocator@D@2@@std@@@2@@std@@@std@@@?$vector@V?$basic_string@DU?$char_traits@D@std@@V?$allocator@D@2@@std@@V?$allocator@V?$basic_string@DU?$char_traits@D@std@@V?$allocator@D@2@@std@@@2@@std@@IAEPAV?$basic_string@DU?$char_traits@D@std@@V?$allocator@D@2@@1@V?$_Vector_const_iterator@V?$_Vector_val@V?$basic_string@DU?$char_traits@D@std@@V?$allocator@D@2@@std@@V?$allocator@V?$basic_string@DU?$char_traits@D@std@@V?$allocator@D@2@@std@@@2@@std@@@1@0PAV21@@Z PROC ; std::vector<std::basic_string<char,std::char_traits<char>,std::allocator<char> >,std::allocator<std::basic_string<char,std::char_traits<char>,std::allocator<char> > > >::_Ucopy<std::_Vector_const_iterator<std::_Vector_val<std::basic_string<char,std::char_traits<char>,std::allocator<char> >,std::allocator<std::basic_string<char,std::char_traits<char>,std::allocator<char> > > > > >, COMDAT
; _this$ = ecx

; 1315 : 		pointer _Ucopy(_Iter _First, _Iter _Last, pointer _Ptr)

  00000	55		 push	 ebp
  00001	8b ec		 mov	 ebp, esp

; 1316 : 		{	// copy initializing [_First, _Last), using allocator
; 1317 : 		return (_Uninitialized_copy(_First, _Last,
; 1318 : 			_Ptr, this->_Alval));

  00003	ff 75 10	 push	 DWORD PTR __Cat$516267[ebp]
  00006	83 c1 0c	 add	 ecx, 12			; 0000000cH
  00009	51		 push	 ecx
  0000a	ff 75 10	 push	 DWORD PTR __Ptr$[ebp]
  0000d	ff 75 0c	 push	 DWORD PTR __Last$[ebp]
  00010	ff 75 08	 push	 DWORD PTR __First$[ebp]
  00013	e8 00 00 00 00	 call	 ??$_Uninit_copy@V?$_Vector_const_iterator@V?$_Vector_val@V?$basic_string@DU?$char_traits@D@std@@V?$allocator@D@2@@std@@V?$allocator@V?$basic_string@DU?$char_traits@D@std@@V?$allocator@D@2@@std@@@2@@std@@@std@@PAV?$basic_string@DU?$char_traits@D@std@@V?$allocator@D@2@@2@V?$allocator@V?$basic_string@DU?$char_traits@D@std@@V?$allocator@D@2@@std@@@2@@std@@YAPAV?$basic_string@DU?$char_traits@D@std@@V?$allocator@D@2@@0@V?$_Vector_const_iterator@V?$_Vector_val@V?$basic_string@DU?$char_traits@D@std@@V?$allocator@D@2@@std@@V?$allocator@V?$basic_string@DU?$char_traits@D@std@@V?$allocator@D@2@@std@@@2@@std@@@0@0PAV10@AAV?$allocator@V?$basic_string@DU?$char_traits@D@std@@V?$allocator@D@2@@std@@@0@U_Nonscalar_ptr_iterator_tag@0@@Z ; std::_Uninit_copy<std::_Vector_const_iterator<std::_Vector_val<std::basic_string<char,std::char_traits<char>,std::allocator<char> >,std::allocator<std::basic_string<char,std::char_traits<char>,std::allocator<char> > > > >,std::basic_string<char,std::char_traits<char>,std::allocator<char> > *,std::allocator<std::basic_string<char,std::char_traits<char>,std::allocator<char> > > >
  00018	83 c4 14	 add	 esp, 20			; 00000014H

; 1319 : 		}

  0001b	5d		 pop	 ebp
  0001c	c2 0c 00	 ret	 12			; 0000000cH
??$_Ucopy@V?$_Vector_const_iterator@V?$_Vector_val@V?$basic_string@DU?$char_traits@D@std@@V?$allocator@D@2@@std@@V?$allocator@V?$basic_string@DU?$char_traits@D@std@@V?$allocator@D@2@@std@@@2@@std@@@std@@@?$vector@V?$basic_string@DU?$char_traits@D@std@@V?$allocator@D@2@@std@@V?$allocator@V?$basic_string@DU?$char_traits@D@std@@V?$allocator@D@2@@std@@@2@@std@@IAEPAV?$basic_string@DU?$char_traits@D@std@@V?$allocator@D@2@@1@V?$_Vector_const_iterator@V?$_Vector_val@V?$basic_string@DU?$char_traits@D@std@@V?$allocator@D@2@@std@@V?$allocator@V?$basic_string@DU?$char_traits@D@std@@V?$allocator@D@2@@std@@@2@@std@@@1@0PAV21@@Z ENDP ; std::vector<std::basic_string<char,std::char_traits<char>,std::allocator<char> >,std::allocator<std::basic_string<char,std::char_traits<char>,std::allocator<char> > > >::_Ucopy<std::_Vector_const_iterator<std::_Vector_val<std::basic_string<char,std::char_traits<char>,std::allocator<char> >,std::allocator<std::basic_string<char,std::char_traits<char>,std::allocator<char> > > > > >
_TEXT	ENDS
PUBLIC	??$_Dest_val@V?$allocator@V?$vector@UColorText@ioMission@@V?$allocator@UColorText@ioMission@@@std@@@std@@@std@@V?$vector@UColorText@ioMission@@V?$allocator@UColorText@ioMission@@@std@@@2@@std@@YAXAAV?$allocator@V?$vector@UColorText@ioMission@@V?$allocator@UColorText@ioMission@@@std@@@std@@@0@PAV?$vector@UColorText@ioMission@@V?$allocator@UColorText@ioMission@@@std@@@0@@Z ; std::_Dest_val<std::allocator<std::vector<ioMission::ColorText,std::allocator<ioMission::ColorText> > >,std::vector<ioMission::ColorText,std::allocator<ioMission::ColorText> > >
; Function compile flags: /Ogsp
; File c:\program files (x86)\microsoft visual studio 10.0\vc\include\xmemory
;	COMDAT ??$_Dest_val@V?$allocator@V?$vector@UColorText@ioMission@@V?$allocator@UColorText@ioMission@@@std@@@std@@@std@@V?$vector@UColorText@ioMission@@V?$allocator@UColorText@ioMission@@@std@@@2@@std@@YAXAAV?$allocator@V?$vector@UColorText@ioMission@@V?$allocator@UColorText@ioMission@@@std@@@std@@@0@PAV?$vector@UColorText@ioMission@@V?$allocator@UColorText@ioMission@@@std@@@0@@Z
_TEXT	SEGMENT
__Alval$ = 8						; size = 4
__Pdest$ = 12						; size = 4
??$_Dest_val@V?$allocator@V?$vector@UColorText@ioMission@@V?$allocator@UColorText@ioMission@@@std@@@std@@@std@@V?$vector@UColorText@ioMission@@V?$allocator@UColorText@ioMission@@@std@@@2@@std@@YAXAAV?$allocator@V?$vector@UColorText@ioMission@@V?$allocator@UColorText@ioMission@@@std@@@std@@@0@PAV?$vector@UColorText@ioMission@@V?$allocator@UColorText@ioMission@@@std@@@0@@Z PROC ; std::_Dest_val<std::allocator<std::vector<ioMission::ColorText,std::allocator<ioMission::ColorText> > >,std::vector<ioMission::ColorText,std::allocator<ioMission::ColorText> > >, COMDAT

; 286  : 	{	// destroy using allocator

  00000	55		 push	 ebp
  00001	8b ec		 mov	 ebp, esp

; 287  : 	_Alval.destroy(_Pdest);

  00003	8b 4d 0c	 mov	 ecx, DWORD PTR __Pdest$[ebp]

; 288  : 	}

  00006	5d		 pop	 ebp

; 287  : 	_Alval.destroy(_Pdest);

  00007	e9 00 00 00 00	 jmp	 ?_Tidy@?$vector@UColorText@ioMission@@V?$allocator@UColorText@ioMission@@@std@@@std@@IAEXXZ ; std::vector<ioMission::ColorText,std::allocator<ioMission::ColorText> >::_Tidy
??$_Dest_val@V?$allocator@V?$vector@UColorText@ioMission@@V?$allocator@UColorText@ioMission@@@std@@@std@@@std@@V?$vector@UColorText@ioMission@@V?$allocator@UColorText@ioMission@@@std@@@2@@std@@YAXAAV?$allocator@V?$vector@UColorText@ioMission@@V?$allocator@UColorText@ioMission@@@std@@@std@@@0@PAV?$vector@UColorText@ioMission@@V?$allocator@UColorText@ioMission@@@std@@@0@@Z ENDP ; std::_Dest_val<std::allocator<std::vector<ioMission::ColorText,std::allocator<ioMission::ColorText> > >,std::vector<ioMission::ColorText,std::allocator<ioMission::ColorText> > >
_TEXT	ENDS
PUBLIC	?construct@?$allocator@V?$vector@UColorText@ioMission@@V?$allocator@UColorText@ioMission@@@std@@@std@@@std@@QAEXPAV?$vector@UColorText@ioMission@@V?$allocator@UColorText@ioMission@@@std@@@2@$$QAV32@@Z ; std::allocator<std::vector<ioMission::ColorText,std::allocator<ioMission::ColorText> > >::construct
;	COMDAT xdata$x
; File c:\program files (x86)\microsoft visual studio 10.0\vc\include\utility
xdata$x	SEGMENT
__unwindtable$?construct@?$allocator@V?$vector@UColorText@ioMission@@V?$allocator@UColorText@ioMission@@@std@@@std@@@std@@QAEXPAV?$vector@UColorText@ioMission@@V?$allocator@UColorText@ioMission@@@std@@@2@$$QAV32@@Z DD 0ffffffffH
	DD	FLAT:__unwindfunclet$?construct@?$allocator@V?$vector@UColorText@ioMission@@V?$allocator@UColorText@ioMission@@@std@@@std@@@std@@QAEXPAV?$vector@UColorText@ioMission@@V?$allocator@UColorText@ioMission@@@std@@@2@$$QAV32@@Z$0
__ehfuncinfo$?construct@?$allocator@V?$vector@UColorText@ioMission@@V?$allocator@UColorText@ioMission@@@std@@@std@@@std@@QAEXPAV?$vector@UColorText@ioMission@@V?$allocator@UColorText@ioMission@@@std@@@2@$$QAV32@@Z DD 019930522H
	DD	01H
	DD	FLAT:__unwindtable$?construct@?$allocator@V?$vector@UColorText@ioMission@@V?$allocator@UColorText@ioMission@@@std@@@std@@@std@@QAEXPAV?$vector@UColorText@ioMission@@V?$allocator@UColorText@ioMission@@@std@@@2@$$QAV32@@Z
	DD	2 DUP(00H)
	DD	2 DUP(00H)
	DD	00H
	DD	01H
; Function compile flags: /Ogsp
; File c:\program files (x86)\microsoft visual studio 10.0\vc\include\xmemory
xdata$x	ENDS
;	COMDAT ?construct@?$allocator@V?$vector@UColorText@ioMission@@V?$allocator@UColorText@ioMission@@@std@@@std@@@std@@QAEXPAV?$vector@UColorText@ioMission@@V?$allocator@UColorText@ioMission@@@std@@@2@$$QAV32@@Z
_TEXT	SEGMENT
$T516316 = -16						; size = 4
__$EHRec$ = -12						; size = 12
__Ptr$ = 8						; size = 4
__Val$ = 12						; size = 4
?construct@?$allocator@V?$vector@UColorText@ioMission@@V?$allocator@UColorText@ioMission@@@std@@@std@@@std@@QAEXPAV?$vector@UColorText@ioMission@@V?$allocator@UColorText@ioMission@@@std@@@2@$$QAV32@@Z PROC ; std::allocator<std::vector<ioMission::ColorText,std::allocator<ioMission::ColorText> > >::construct, COMDAT
; _this$ = ecx

; 201  : 		{	// construct object at _Ptr with value _Val

  00000	6a 04		 push	 4
  00002	b8 00 00 00 00	 mov	 eax, __ehhandler$?construct@?$allocator@V?$vector@UColorText@ioMission@@V?$allocator@UColorText@ioMission@@@std@@@std@@@std@@QAEXPAV?$vector@UColorText@ioMission@@V?$allocator@UColorText@ioMission@@@std@@@2@$$QAV32@@Z
  00007	e8 00 00 00 00	 call	 __EH_prolog3

; 202  : 		::new ((void _FARQ *)_Ptr) _Ty(_STD forward<_Ty>(_Val));

  0000c	8b 4d 08	 mov	 ecx, DWORD PTR __Ptr$[ebp]
  0000f	89 4d f0	 mov	 DWORD PTR $T516316[ebp], ecx
  00012	33 c0		 xor	 eax, eax
  00014	89 45 fc	 mov	 DWORD PTR __$EHRec$[ebp+8], eax
  00017	3b c8		 cmp	 ecx, eax
  00019	74 10		 je	 SHORT $LN3@construct@6
  0001b	ff 75 0c	 push	 DWORD PTR __Val$[ebp]
  0001e	89 01		 mov	 DWORD PTR [ecx], eax
  00020	89 41 04	 mov	 DWORD PTR [ecx+4], eax
  00023	89 41 08	 mov	 DWORD PTR [ecx+8], eax
  00026	e8 00 00 00 00	 call	 ?_Assign_rv@?$vector@UColorText@ioMission@@V?$allocator@UColorText@ioMission@@@std@@@std@@QAEX$$QAV12@@Z ; std::vector<ioMission::ColorText,std::allocator<ioMission::ColorText> >::_Assign_rv
$LN3@construct@6:

; 203  : 		}

  0002b	e8 00 00 00 00	 call	 __EH_epilog3
  00030	c2 08 00	 ret	 8
_TEXT	ENDS
;	COMDAT text$x
text$x	SEGMENT
__unwindfunclet$?construct@?$allocator@V?$vector@UColorText@ioMission@@V?$allocator@UColorText@ioMission@@@std@@@std@@@std@@QAEXPAV?$vector@UColorText@ioMission@@V?$allocator@UColorText@ioMission@@@std@@@2@$$QAV32@@Z$0:
  00000	ff 75 08	 push	 DWORD PTR __Ptr$[ebp]
  00003	ff 75 f0	 push	 DWORD PTR $T516316[ebp]
  00006	e8 00 00 00 00	 call	 ??3@YAXPAX0@Z		; operator delete
  0000b	59		 pop	 ecx
  0000c	59		 pop	 ecx
  0000d	c3		 ret	 0
__ehhandler$?construct@?$allocator@V?$vector@UColorText@ioMission@@V?$allocator@UColorText@ioMission@@@std@@@std@@@std@@QAEXPAV?$vector@UColorText@ioMission@@V?$allocator@UColorText@ioMission@@@std@@@2@$$QAV32@@Z:
  0000e	8b 54 24 08	 mov	 edx, DWORD PTR [esp+8]
  00012	8d 42 0c	 lea	 eax, DWORD PTR [edx+12]
  00015	8b 4a ec	 mov	 ecx, DWORD PTR [edx-20]
  00018	33 c8		 xor	 ecx, eax
  0001a	e8 00 00 00 00	 call	 @__security_check_cookie@4
  0001f	b8 00 00 00 00	 mov	 eax, OFFSET __ehfuncinfo$?construct@?$allocator@V?$vector@UColorText@ioMission@@V?$allocator@UColorText@ioMission@@@std@@@std@@@std@@QAEXPAV?$vector@UColorText@ioMission@@V?$allocator@UColorText@ioMission@@@std@@@2@$$QAV32@@Z
  00024	e9 00 00 00 00	 jmp	 ___CxxFrameHandler3
text$x	ENDS
?construct@?$allocator@V?$vector@UColorText@ioMission@@V?$allocator@UColorText@ioMission@@@std@@@std@@@std@@QAEXPAV?$vector@UColorText@ioMission@@V?$allocator@UColorText@ioMission@@@std@@@2@$$QAV32@@Z ENDP ; std::allocator<std::vector<ioMission::ColorText,std::allocator<ioMission::ColorText> > >::construct
PUBLIC	??1?$vector@V?$basic_string@DU?$char_traits@D@std@@V?$allocator@D@2@@std@@V?$allocator@V?$basic_string@DU?$char_traits@D@std@@V?$allocator@D@2@@std@@@2@@std@@QAE@XZ ; std::vector<std::basic_string<char,std::char_traits<char>,std::allocator<char> >,std::allocator<std::basic_string<char,std::char_traits<char>,std::allocator<char> > > >::~vector<std::basic_string<char,std::char_traits<char>,std::allocator<char> >,std::allocator<std::basic_string<char,std::char_traits<char>,std::allocator<char> > > >
; Function compile flags: /Ogsp
; File c:\program files (x86)\microsoft visual studio 10.0\vc\include\vector
;	COMDAT ??1?$vector@V?$basic_string@DU?$char_traits@D@std@@V?$allocator@D@2@@std@@V?$allocator@V?$basic_string@DU?$char_traits@D@std@@V?$allocator@D@2@@std@@@2@@std@@QAE@XZ
_TEXT	SEGMENT
??1?$vector@V?$basic_string@DU?$char_traits@D@std@@V?$allocator@D@2@@std@@V?$allocator@V?$basic_string@DU?$char_traits@D@std@@V?$allocator@D@2@@std@@@2@@std@@QAE@XZ PROC ; std::vector<std::basic_string<char,std::char_traits<char>,std::allocator<char> >,std::allocator<std::basic_string<char,std::char_traits<char>,std::allocator<char> > > >::~vector<std::basic_string<char,std::char_traits<char>,std::allocator<char> >,std::allocator<std::basic_string<char,std::char_traits<char>,std::allocator<char> > > >, COMDAT
; _this$ = ecx

; 705  : 		_Tidy();

  00000	e9 00 00 00 00	 jmp	 ?_Tidy@?$vector@V?$basic_string@DU?$char_traits@D@std@@V?$allocator@D@2@@std@@V?$allocator@V?$basic_string@DU?$char_traits@D@std@@V?$allocator@D@2@@std@@@2@@std@@IAEXXZ ; std::vector<std::basic_string<char,std::char_traits<char>,std::allocator<char> >,std::allocator<std::basic_string<char,std::char_traits<char>,std::allocator<char> > > >::_Tidy
??1?$vector@V?$basic_string@DU?$char_traits@D@std@@V?$allocator@D@2@@std@@V?$allocator@V?$basic_string@DU?$char_traits@D@std@@V?$allocator@D@2@@std@@@2@@std@@QAE@XZ ENDP ; std::vector<std::basic_string<char,std::char_traits<char>,std::allocator<char> >,std::allocator<std::basic_string<char,std::char_traits<char>,std::allocator<char> > > >::~vector<std::basic_string<char,std::char_traits<char>,std::allocator<char> >,std::allocator<std::basic_string<char,std::char_traits<char>,std::allocator<char> > > >
_TEXT	ENDS
PUBLIC	??0?$vector@V?$basic_string@DU?$char_traits@D@std@@V?$allocator@D@2@@std@@V?$allocator@V?$basic_string@DU?$char_traits@D@std@@V?$allocator@D@2@@std@@@2@@std@@QAE@ABV01@@Z ; std::vector<std::basic_string<char,std::char_traits<char>,std::allocator<char> >,std::allocator<std::basic_string<char,std::char_traits<char>,std::allocator<char> > > >::vector<std::basic_string<char,std::char_traits<char>,std::allocator<char> >,std::allocator<std::basic_string<char,std::char_traits<char>,std::allocator<char> > > >
;	COMDAT xdata$x
; File c:\program files (x86)\microsoft visual studio 10.0\vc\include\xutility
xdata$x	SEGMENT
__catchsym$??0?$vector@V?$basic_string@DU?$char_traits@D@std@@V?$allocator@D@2@@std@@V?$allocator@V?$basic_string@DU?$char_traits@D@std@@V?$allocator@D@2@@std@@@2@@std@@QAE@ABV01@@Z$2 DD 040H
	DD	00H
	DD	00H
	DD	FLAT:__catch$??0?$vector@V?$basic_string@DU?$char_traits@D@std@@V?$allocator@D@2@@std@@V?$allocator@V?$basic_string@DU?$char_traits@D@std@@V?$allocator@D@2@@std@@@2@@std@@QAE@ABV01@@Z$0
__unwindtable$??0?$vector@V?$basic_string@DU?$char_traits@D@std@@V?$allocator@D@2@@std@@V?$allocator@V?$basic_string@DU?$char_traits@D@std@@V?$allocator@D@2@@std@@@2@@std@@QAE@ABV01@@Z DD 0ffffffffH
	DD	00H
	DD	0ffffffffH
	DD	00H
__tryblocktable$??0?$vector@V?$basic_string@DU?$char_traits@D@std@@V?$allocator@D@2@@std@@V?$allocator@V?$basic_string@DU?$char_traits@D@std@@V?$allocator@D@2@@std@@@2@@std@@QAE@ABV01@@Z DD 00H
	DD	00H
	DD	01H
	DD	01H
	DD	FLAT:__catchsym$??0?$vector@V?$basic_string@DU?$char_traits@D@std@@V?$allocator@D@2@@std@@V?$allocator@V?$basic_string@DU?$char_traits@D@std@@V?$allocator@D@2@@std@@@2@@std@@QAE@ABV01@@Z$2
__ehfuncinfo$??0?$vector@V?$basic_string@DU?$char_traits@D@std@@V?$allocator@D@2@@std@@V?$allocator@V?$basic_string@DU?$char_traits@D@std@@V?$allocator@D@2@@std@@@2@@std@@QAE@ABV01@@Z DD 019930522H
	DD	02H
	DD	FLAT:__unwindtable$??0?$vector@V?$basic_string@DU?$char_traits@D@std@@V?$allocator@D@2@@std@@V?$allocator@V?$basic_string@DU?$char_traits@D@std@@V?$allocator@D@2@@std@@@2@@std@@QAE@ABV01@@Z
	DD	01H
	DD	FLAT:__tryblocktable$??0?$vector@V?$basic_string@DU?$char_traits@D@std@@V?$allocator@D@2@@std@@V?$allocator@V?$basic_string@DU?$char_traits@D@std@@V?$allocator@D@2@@std@@@2@@std@@QAE@ABV01@@Z
	DD	2 DUP(00H)
	DD	00H
	DD	01H
; Function compile flags: /Ogsp
; File c:\program files (x86)\microsoft visual studio 10.0\vc\include\vector
xdata$x	ENDS
;	COMDAT ??0?$vector@V?$basic_string@DU?$char_traits@D@std@@V?$allocator@D@2@@std@@V?$allocator@V?$basic_string@DU?$char_traits@D@std@@V?$allocator@D@2@@std@@@2@@std@@QAE@ABV01@@Z
_TEXT	SEGMENT
_this$ = -20						; size = 4
__$EHRec$ = -16						; size = 16
__Cat$516447 = 8					; size = 1
__Right$ = 8						; size = 4
??0?$vector@V?$basic_string@DU?$char_traits@D@std@@V?$allocator@D@2@@std@@V?$allocator@V?$basic_string@DU?$char_traits@D@std@@V?$allocator@D@2@@std@@@2@@std@@QAE@ABV01@@Z PROC ; std::vector<std::basic_string<char,std::char_traits<char>,std::allocator<char> >,std::allocator<std::basic_string<char,std::char_traits<char>,std::allocator<char> > > >::vector<std::basic_string<char,std::char_traits<char>,std::allocator<char> >,std::allocator<std::basic_string<char,std::char_traits<char>,std::allocator<char> > > >, COMDAT
; _this$ = ecx

; 535  : 		{	// construct by copying _Right

  00000	6a 08		 push	 8
  00002	b8 00 00 00 00	 mov	 eax, __ehhandler$??0?$vector@V?$basic_string@DU?$char_traits@D@std@@V?$allocator@D@2@@std@@V?$allocator@V?$basic_string@DU?$char_traits@D@std@@V?$allocator@D@2@@std@@@2@@std@@QAE@ABV01@@Z
  00007	e8 00 00 00 00	 call	 __EH_prolog3_catch
  0000c	8b f1		 mov	 esi, ecx
  0000e	89 75 ec	 mov	 DWORD PTR _this$[ebp], esi

; 536  : 		if (_Buy(_Right.size()))

  00011	8b 7d 08	 mov	 edi, DWORD PTR __Right$[ebp]
  00014	33 db		 xor	 ebx, ebx
  00016	89 1e		 mov	 DWORD PTR [esi], ebx
  00018	89 5e 04	 mov	 DWORD PTR [esi+4], ebx
  0001b	89 5e 08	 mov	 DWORD PTR [esi+8], ebx
  0001e	8b 47 04	 mov	 eax, DWORD PTR [edi+4]
  00021	2b 07		 sub	 eax, DWORD PTR [edi]
  00023	6a 1c		 push	 28			; 0000001cH
  00025	59		 pop	 ecx
  00026	99		 cdq
  00027	f7 f9		 idiv	 ecx
  00029	8b ce		 mov	 ecx, esi
  0002b	50		 push	 eax
  0002c	e8 00 00 00 00	 call	 ?_Buy@?$vector@V?$basic_string@DU?$char_traits@D@std@@V?$allocator@D@2@@std@@V?$allocator@V?$basic_string@DU?$char_traits@D@std@@V?$allocator@D@2@@std@@@2@@std@@IAE_NI@Z ; std::vector<std::basic_string<char,std::char_traits<char>,std::allocator<char> >,std::allocator<std::basic_string<char,std::char_traits<char>,std::allocator<char> > > >::_Buy
  00031	84 c0		 test	 al, al
  00033	74 1f		 je	 SHORT $LN7@vector@3

; 537  : 			_TRY_BEGIN
; 538  : 			this->_Mylast = _Ucopy(_Right.begin(), _Right.end(),
; 539  : 				this->_Myfirst);

  00035	ff 75 08	 push	 DWORD PTR __Cat$516447[ebp]
  00038	8b 0e		 mov	 ecx, DWORD PTR [esi]
  0003a	8b 47 04	 mov	 eax, DWORD PTR [edi+4]
  0003d	8b 3f		 mov	 edi, DWORD PTR [edi]
  0003f	8d 56 0c	 lea	 edx, DWORD PTR [esi+12]
  00042	52		 push	 edx
  00043	51		 push	 ecx
  00044	50		 push	 eax
  00045	57		 push	 edi
  00046	89 5d fc	 mov	 DWORD PTR __$EHRec$[ebp+12], ebx
  00049	e8 00 00 00 00	 call	 ??$_Uninit_copy@V?$_Vector_const_iterator@V?$_Vector_val@V?$basic_string@DU?$char_traits@D@std@@V?$allocator@D@2@@std@@V?$allocator@V?$basic_string@DU?$char_traits@D@std@@V?$allocator@D@2@@std@@@2@@std@@@std@@PAV?$basic_string@DU?$char_traits@D@std@@V?$allocator@D@2@@2@V?$allocator@V?$basic_string@DU?$char_traits@D@std@@V?$allocator@D@2@@std@@@2@@std@@YAPAV?$basic_string@DU?$char_traits@D@std@@V?$allocator@D@2@@0@V?$_Vector_const_iterator@V?$_Vector_val@V?$basic_string@DU?$char_traits@D@std@@V?$allocator@D@2@@std@@V?$allocator@V?$basic_string@DU?$char_traits@D@std@@V?$allocator@D@2@@std@@@2@@std@@@0@0PAV10@AAV?$allocator@V?$basic_string@DU?$char_traits@D@std@@V?$allocator@D@2@@std@@@0@U_Nonscalar_ptr_iterator_tag@0@@Z ; std::_Uninit_copy<std::_Vector_const_iterator<std::_Vector_val<std::basic_string<char,std::char_traits<char>,std::allocator<char> >,std::allocator<std::basic_string<char,std::char_traits<char>,std::allocator<char> > > > >,std::basic_string<char,std::char_traits<char>,std::allocator<char> > *,std::allocator<std::basic_string<char,std::char_traits<char>,std::allocator<char> > > >
  0004e	83 c4 14	 add	 esp, 20			; 00000014H
  00051	89 46 04	 mov	 DWORD PTR [esi+4], eax
$LN7@vector@3:

; 543  : 			_CATCH_END
; 544  : 		}

  00054	8b c6		 mov	 eax, esi
  00056	e8 00 00 00 00	 call	 __EH_epilog3
  0005b	c2 04 00	 ret	 4
__catch$??0?$vector@V?$basic_string@DU?$char_traits@D@std@@V?$allocator@D@2@@std@@V?$allocator@V?$basic_string@DU?$char_traits@D@std@@V?$allocator@D@2@@std@@@2@@std@@QAE@ABV01@@Z$0:

; 540  : 			_CATCH_ALL
; 541  : 			_Tidy();

  0005e	8b 4d ec	 mov	 ecx, DWORD PTR _this$[ebp]
  00061	e8 00 00 00 00	 call	 ?_Tidy@?$vector@V?$basic_string@DU?$char_traits@D@std@@V?$allocator@D@2@@std@@V?$allocator@V?$basic_string@DU?$char_traits@D@std@@V?$allocator@D@2@@std@@@2@@std@@IAEXXZ ; std::vector<std::basic_string<char,std::char_traits<char>,std::allocator<char> >,std::allocator<std::basic_string<char,std::char_traits<char>,std::allocator<char> > > >::_Tidy

; 542  : 			_RERAISE;

  00066	33 db		 xor	 ebx, ebx
  00068	53		 push	 ebx
  00069	53		 push	 ebx
  0006a	e8 00 00 00 00	 call	 __CxxThrowException@8
$LN38@vector@3:
$LN37@vector@3:
  0006f	cc		 int	 3
_TEXT	ENDS
;	COMDAT text$x
text$x	SEGMENT
__ehhandler$??0?$vector@V?$basic_string@DU?$char_traits@D@std@@V?$allocator@D@2@@std@@V?$allocator@V?$basic_string@DU?$char_traits@D@std@@V?$allocator@D@2@@std@@@2@@std@@QAE@ABV01@@Z:
  00000	8b 54 24 08	 mov	 edx, DWORD PTR [esp+8]
  00004	8d 42 0c	 lea	 eax, DWORD PTR [edx+12]
  00007	8b 4a e8	 mov	 ecx, DWORD PTR [edx-24]
  0000a	33 c8		 xor	 ecx, eax
  0000c	e8 00 00 00 00	 call	 @__security_check_cookie@4
  00011	b8 00 00 00 00	 mov	 eax, OFFSET __ehfuncinfo$??0?$vector@V?$basic_string@DU?$char_traits@D@std@@V?$allocator@D@2@@std@@V?$allocator@V?$basic_string@DU?$char_traits@D@std@@V?$allocator@D@2@@std@@@2@@std@@QAE@ABV01@@Z
  00016	e9 00 00 00 00	 jmp	 ___CxxFrameHandler3
text$x	ENDS
??0?$vector@V?$basic_string@DU?$char_traits@D@std@@V?$allocator@D@2@@std@@V?$allocator@V?$basic_string@DU?$char_traits@D@std@@V?$allocator@D@2@@std@@@2@@std@@QAE@ABV01@@Z ENDP ; std::vector<std::basic_string<char,std::char_traits<char>,std::allocator<char> >,std::allocator<std::basic_string<char,std::char_traits<char>,std::allocator<char> > > >::vector<std::basic_string<char,std::char_traits<char>,std::allocator<char> >,std::allocator<std::basic_string<char,std::char_traits<char>,std::allocator<char> > > >
PUBLIC	??$_Destroy_range@V?$allocator@V?$vector@UColorText@ioMission@@V?$allocator@UColorText@ioMission@@@std@@@std@@@std@@@std@@YAXPAV?$vector@UColorText@ioMission@@V?$allocator@UColorText@ioMission@@@std@@@0@0AAV?$allocator@V?$vector@UColorText@ioMission@@V?$allocator@UColorText@ioMission@@@std@@@std@@@0@U_Nonscalar_ptr_iterator_tag@0@@Z ; std::_Destroy_range<std::allocator<std::vector<ioMission::ColorText,std::allocator<ioMission::ColorText> > > >
; Function compile flags: /Ogsp
; File c:\program files (x86)\microsoft visual studio 10.0\vc\include\xmemory
;	COMDAT ??$_Destroy_range@V?$allocator@V?$vector@UColorText@ioMission@@V?$allocator@UColorText@ioMission@@@std@@@std@@@std@@@std@@YAXPAV?$vector@UColorText@ioMission@@V?$allocator@UColorText@ioMission@@@std@@@0@0AAV?$allocator@V?$vector@UColorText@ioMission@@V?$allocator@UColorText@ioMission@@@std@@@std@@@0@U_Nonscalar_ptr_iterator_tag@0@@Z
_TEXT	SEGMENT
__First$ = 8						; size = 4
__Last$ = 12						; size = 4
__Al$ = 16						; size = 4
___formal$ = 20						; size = 1
??$_Destroy_range@V?$allocator@V?$vector@UColorText@ioMission@@V?$allocator@UColorText@ioMission@@@std@@@std@@@std@@@std@@YAXPAV?$vector@UColorText@ioMission@@V?$allocator@UColorText@ioMission@@@std@@@0@0AAV?$allocator@V?$vector@UColorText@ioMission@@V?$allocator@UColorText@ioMission@@@std@@@std@@@0@U_Nonscalar_ptr_iterator_tag@0@@Z PROC ; std::_Destroy_range<std::allocator<std::vector<ioMission::ColorText,std::allocator<ioMission::ColorText> > > >, COMDAT

; 95   : 	{	// destroy [_First, _Last), arbitrary type

  00000	55		 push	 ebp
  00001	8b ec		 mov	 ebp, esp
  00003	56		 push	 esi

; 96   : 	for (; _First != _Last; ++_First)

  00004	8b 75 08	 mov	 esi, DWORD PTR __First$[ebp]
  00007	eb 0a		 jmp	 SHORT $LN21@Destroy_ra@6
$LL3@Destroy_ra@6:

; 97   : 		_Dest_val(_Al, _First);

  00009	8b ce		 mov	 ecx, esi
  0000b	e8 00 00 00 00	 call	 ?_Tidy@?$vector@UColorText@ioMission@@V?$allocator@UColorText@ioMission@@@std@@@std@@IAEXXZ ; std::vector<ioMission::ColorText,std::allocator<ioMission::ColorText> >::_Tidy
  00010	83 c6 10	 add	 esi, 16			; 00000010H
$LN21@Destroy_ra@6:

; 96   : 	for (; _First != _Last; ++_First)

  00013	3b 75 0c	 cmp	 esi, DWORD PTR __Last$[ebp]
  00016	75 f1		 jne	 SHORT $LL3@Destroy_ra@6
  00018	5e		 pop	 esi

; 98   : 	}

  00019	5d		 pop	 ebp
  0001a	c3		 ret	 0
??$_Destroy_range@V?$allocator@V?$vector@UColorText@ioMission@@V?$allocator@UColorText@ioMission@@@std@@@std@@@std@@@std@@YAXPAV?$vector@UColorText@ioMission@@V?$allocator@UColorText@ioMission@@@std@@@0@0AAV?$allocator@V?$vector@UColorText@ioMission@@V?$allocator@UColorText@ioMission@@@std@@@std@@@0@U_Nonscalar_ptr_iterator_tag@0@@Z ENDP ; std::_Destroy_range<std::allocator<std::vector<ioMission::ColorText,std::allocator<ioMission::ColorText> > > >
_TEXT	ENDS
PUBLIC	??$_Uninit_copy@V?$_Vector_const_iterator@V?$_Vector_val@V?$vector@UColorText@ioMission@@V?$allocator@UColorText@ioMission@@@std@@@std@@V?$allocator@V?$vector@UColorText@ioMission@@V?$allocator@UColorText@ioMission@@@std@@@std@@@2@@std@@@std@@PAV?$vector@UColorText@ioMission@@V?$allocator@UColorText@ioMission@@@std@@@2@V?$allocator@V?$vector@UColorText@ioMission@@V?$allocator@UColorText@ioMission@@@std@@@std@@@2@@std@@YAPAV?$vector@UColorText@ioMission@@V?$allocator@UColorText@ioMission@@@std@@@0@V?$_Vector_const_iterator@V?$_Vector_val@V?$vector@UColorText@ioMission@@V?$allocator@UColorText@ioMission@@@std@@@std@@V?$allocator@V?$vector@UColorText@ioMission@@V?$allocator@UColorText@ioMission@@@std@@@std@@@2@@std@@@0@0PAV10@AAV?$allocator@V?$vector@UColorText@ioMission@@V?$allocator@UColorText@ioMission@@@std@@@std@@@0@U_Nonscalar_ptr_iterator_tag@0@@Z ; std::_Uninit_copy<std::_Vector_const_iterator<std::_Vector_val<std::vector<ioMission::ColorText,std::allocator<ioMission::ColorText> >,std::allocator<std::vector<ioMission::ColorText,std::allocator<ioMission::ColorText> > > > >,std::vector<ioMission::ColorText,std::allocator<ioMission::ColorText> > *,std::allocator<std::vector<ioMission::ColorText,std::allocator<ioMission::ColorText> > > >
;	COMDAT xdata$x
; File c:\program files (x86)\microsoft visual studio 10.0\vc\include\vector
xdata$x	SEGMENT
__catchsym$??$_Uninit_copy@V?$_Vector_const_iterator@V?$_Vector_val@V?$vector@UColorText@ioMission@@V?$allocator@UColorText@ioMission@@@std@@@std@@V?$allocator@V?$vector@UColorText@ioMission@@V?$allocator@UColorText@ioMission@@@std@@@std@@@2@@std@@@std@@PAV?$vector@UColorText@ioMission@@V?$allocator@UColorText@ioMission@@@std@@@2@V?$allocator@V?$vector@UColorText@ioMission@@V?$allocator@UColorText@ioMission@@@std@@@std@@@2@@std@@YAPAV?$vector@UColorText@ioMission@@V?$allocator@UColorText@ioMission@@@std@@@0@V?$_Vector_const_iterator@V?$_Vector_val@V?$vector@UColorText@ioMission@@V?$allocator@UColorText@ioMission@@@std@@@std@@V?$allocator@V?$vector@UColorText@ioMission@@V?$allocator@UColorText@ioMission@@@std@@@std@@@2@@std@@@0@0PAV10@AAV?$allocator@V?$vector@UColorText@ioMission@@V?$allocator@UColorText@ioMission@@@std@@@std@@@0@U_Nonscalar_ptr_iterator_tag@0@@Z$2 DD 040H
	DD	00H
	DD	00H
	DD	FLAT:__catch$??$_Uninit_copy@V?$_Vector_const_iterator@V?$_Vector_val@V?$vector@UColorText@ioMission@@V?$allocator@UColorText@ioMission@@@std@@@std@@V?$allocator@V?$vector@UColorText@ioMission@@V?$allocator@UColorText@ioMission@@@std@@@std@@@2@@std@@@std@@PAV?$vector@UColorText@ioMission@@V?$allocator@UColorText@ioMission@@@std@@@2@V?$allocator@V?$vector@UColorText@ioMission@@V?$allocator@UColorText@ioMission@@@std@@@std@@@2@@std@@YAPAV?$vector@UColorText@ioMission@@V?$allocator@UColorText@ioMission@@@std@@@0@V?$_Vector_const_iterator@V?$_Vector_val@V?$vector@UColorText@ioMission@@V?$allocator@UColorText@ioMission@@@std@@@std@@V?$allocator@V?$vector@UColorText@ioMission@@V?$allocator@UColorText@ioMission@@@std@@@std@@@2@@std@@@0@0PAV10@AAV?$allocator@V?$vector@UColorText@ioMission@@V?$allocator@UColorText@ioMission@@@std@@@std@@@0@U_Nonscalar_ptr_iterator_tag@0@@Z$0
__unwindtable$??$_Uninit_copy@V?$_Vector_const_iterator@V?$_Vector_val@V?$vector@UColorText@ioMission@@V?$allocator@UColorText@ioMission@@@std@@@std@@V?$allocator@V?$vector@UColorText@ioMission@@V?$allocator@UColorText@ioMission@@@std@@@std@@@2@@std@@@std@@PAV?$vector@UColorText@ioMission@@V?$allocator@UColorText@ioMission@@@std@@@2@V?$allocator@V?$vector@UColorText@ioMission@@V?$allocator@UColorText@ioMission@@@std@@@std@@@2@@std@@YAPAV?$vector@UColorText@ioMission@@V?$allocator@UColorText@ioMission@@@std@@@0@V?$_Vector_const_iterator@V?$_Vector_val@V?$vector@UColorText@ioMission@@V?$allocator@UColorText@ioMission@@@std@@@std@@V?$allocator@V?$vector@UColorText@ioMission@@V?$allocator@UColorText@ioMission@@@std@@@std@@@2@@std@@@0@0PAV10@AAV?$allocator@V?$vector@UColorText@ioMission@@V?$allocator@UColorText@ioMission@@@std@@@std@@@0@U_Nonscalar_ptr_iterator_tag@0@@Z DD 0ffffffffH
	DD	00H
	DD	0ffffffffH
	DD	00H
__tryblocktable$??$_Uninit_copy@V?$_Vector_const_iterator@V?$_Vector_val@V?$vector@UColorText@ioMission@@V?$allocator@UColorText@ioMission@@@std@@@std@@V?$allocator@V?$vector@UColorText@ioMission@@V?$allocator@UColorText@ioMission@@@std@@@std@@@2@@std@@@std@@PAV?$vector@UColorText@ioMission@@V?$allocator@UColorText@ioMission@@@std@@@2@V?$allocator@V?$vector@UColorText@ioMission@@V?$allocator@UColorText@ioMission@@@std@@@std@@@2@@std@@YAPAV?$vector@UColorText@ioMission@@V?$allocator@UColorText@ioMission@@@std@@@0@V?$_Vector_const_iterator@V?$_Vector_val@V?$vector@UColorText@ioMission@@V?$allocator@UColorText@ioMission@@@std@@@std@@V?$allocator@V?$vector@UColorText@ioMission@@V?$allocator@UColorText@ioMission@@@std@@@std@@@2@@std@@@0@0PAV10@AAV?$allocator@V?$vector@UColorText@ioMission@@V?$allocator@UColorText@ioMission@@@std@@@std@@@0@U_Nonscalar_ptr_iterator_tag@0@@Z DD 00H
	DD	00H
	DD	01H
	DD	01H
	DD	FLAT:__catchsym$??$_Uninit_copy@V?$_Vector_const_iterator@V?$_Vector_val@V?$vector@UColorText@ioMission@@V?$allocator@UColorText@ioMission@@@std@@@std@@V?$allocator@V?$vector@UColorText@ioMission@@V?$allocator@UColorText@ioMission@@@std@@@std@@@2@@std@@@std@@PAV?$vector@UColorText@ioMission@@V?$allocator@UColorText@ioMission@@@std@@@2@V?$allocator@V?$vector@UColorText@ioMission@@V?$allocator@UColorText@ioMission@@@std@@@std@@@2@@std@@YAPAV?$vector@UColorText@ioMission@@V?$allocator@UColorText@ioMission@@@std@@@0@V?$_Vector_const_iterator@V?$_Vector_val@V?$vector@UColorText@ioMission@@V?$allocator@UColorText@ioMission@@@std@@@std@@V?$allocator@V?$vector@UColorText@ioMission@@V?$allocator@UColorText@ioMission@@@std@@@std@@@2@@std@@@0@0PAV10@AAV?$allocator@V?$vector@UColorText@ioMission@@V?$allocator@UColorText@ioMission@@@std@@@std@@@0@U_Nonscalar_ptr_iterator_tag@0@@Z$2
__ehfuncinfo$??$_Uninit_copy@V?$_Vector_const_iterator@V?$_Vector_val@V?$vector@UColorText@ioMission@@V?$allocator@UColorText@ioMission@@@std@@@std@@V?$allocator@V?$vector@UColorText@ioMission@@V?$allocator@UColorText@ioMission@@@std@@@std@@@2@@std@@@std@@PAV?$vector@UColorText@ioMission@@V?$allocator@UColorText@ioMission@@@std@@@2@V?$allocator@V?$vector@UColorText@ioMission@@V?$allocator@UColorText@ioMission@@@std@@@std@@@2@@std@@YAPAV?$vector@UColorText@ioMission@@V?$allocator@UColorText@ioMission@@@std@@@0@V?$_Vector_const_iterator@V?$_Vector_val@V?$vector@UColorText@ioMission@@V?$allocator@UColorText@ioMission@@@std@@@std@@V?$allocator@V?$vector@UColorText@ioMission@@V?$allocator@UColorText@ioMission@@@std@@@std@@@2@@std@@@0@0PAV10@AAV?$allocator@V?$vector@UColorText@ioMission@@V?$allocator@UColorText@ioMission@@@std@@@std@@@0@U_Nonscalar_ptr_iterator_tag@0@@Z DD 019930522H
	DD	02H
	DD	FLAT:__unwindtable$??$_Uninit_copy@V?$_Vector_const_iterator@V?$_Vector_val@V?$vector@UColorText@ioMission@@V?$allocator@UColorText@ioMission@@@std@@@std@@V?$allocator@V?$vector@UColorText@ioMission@@V?$allocator@UColorText@ioMission@@@std@@@std@@@2@@std@@@std@@PAV?$vector@UColorText@ioMission@@V?$allocator@UColorText@ioMission@@@std@@@2@V?$allocator@V?$vector@UColorText@ioMission@@V?$allocator@UColorText@ioMission@@@std@@@std@@@2@@std@@YAPAV?$vector@UColorText@ioMission@@V?$allocator@UColorText@ioMission@@@std@@@0@V?$_Vector_const_iterator@V?$_Vector_val@V?$vector@UColorText@ioMission@@V?$allocator@UColorText@ioMission@@@std@@@std@@V?$allocator@V?$vector@UColorText@ioMission@@V?$allocator@UColorText@ioMission@@@std@@@std@@@2@@std@@@0@0PAV10@AAV?$allocator@V?$vector@UColorText@ioMission@@V?$allocator@UColorText@ioMission@@@std@@@std@@@0@U_Nonscalar_ptr_iterator_tag@0@@Z
	DD	01H
	DD	FLAT:__tryblocktable$??$_Uninit_copy@V?$_Vector_const_iterator@V?$_Vector_val@V?$vector@UColorText@ioMission@@V?$allocator@UColorText@ioMission@@@std@@@std@@V?$allocator@V?$vector@UColorText@ioMission@@V?$allocator@UColorText@ioMission@@@std@@@std@@@2@@std@@@std@@PAV?$vector@UColorText@ioMission@@V?$allocator@UColorText@ioMission@@@std@@@2@V?$allocator@V?$vector@UColorText@ioMission@@V?$allocator@UColorText@ioMission@@@std@@@std@@@2@@std@@YAPAV?$vector@UColorText@ioMission@@V?$allocator@UColorText@ioMission@@@std@@@0@V?$_Vector_const_iterator@V?$_Vector_val@V?$vector@UColorText@ioMission@@V?$allocator@UColorText@ioMission@@@std@@@std@@V?$allocator@V?$vector@UColorText@ioMission@@V?$allocator@UColorText@ioMission@@@std@@@std@@@2@@std@@@0@0PAV10@AAV?$allocator@V?$vector@UColorText@ioMission@@V?$allocator@UColorText@ioMission@@@std@@@std@@@0@U_Nonscalar_ptr_iterator_tag@0@@Z
	DD	2 DUP(00H)
	DD	00H
	DD	01H
; Function compile flags: /Ogsp
; File c:\program files (x86)\microsoft visual studio 10.0\vc\include\memory
xdata$x	ENDS
;	COMDAT ??$_Uninit_copy@V?$_Vector_const_iterator@V?$_Vector_val@V?$vector@UColorText@ioMission@@V?$allocator@UColorText@ioMission@@@std@@@std@@V?$allocator@V?$vector@UColorText@ioMission@@V?$allocator@UColorText@ioMission@@@std@@@std@@@2@@std@@@std@@PAV?$vector@UColorText@ioMission@@V?$allocator@UColorText@ioMission@@@std@@@2@V?$allocator@V?$vector@UColorText@ioMission@@V?$allocator@UColorText@ioMission@@@std@@@std@@@2@@std@@YAPAV?$vector@UColorText@ioMission@@V?$allocator@UColorText@ioMission@@@std@@@0@V?$_Vector_const_iterator@V?$_Vector_val@V?$vector@UColorText@ioMission@@V?$allocator@UColorText@ioMission@@@std@@@std@@V?$allocator@V?$vector@UColorText@ioMission@@V?$allocator@UColorText@ioMission@@@std@@@std@@@2@@std@@@0@0PAV10@AAV?$allocator@V?$vector@UColorText@ioMission@@V?$allocator@UColorText@ioMission@@@std@@@std@@@0@U_Nonscalar_ptr_iterator_tag@0@@Z
_TEXT	SEGMENT
__Next$ = -20						; size = 4
__$EHRec$ = -16						; size = 16
__First$ = 8						; size = 4
__Last$ = 12						; size = 4
__Dest$ = 16						; size = 4
__Al$ = 20						; size = 4
___formal$ = 24						; size = 1
??$_Uninit_copy@V?$_Vector_const_iterator@V?$_Vector_val@V?$vector@UColorText@ioMission@@V?$allocator@UColorText@ioMission@@@std@@@std@@V?$allocator@V?$vector@UColorText@ioMission@@V?$allocator@UColorText@ioMission@@@std@@@std@@@2@@std@@@std@@PAV?$vector@UColorText@ioMission@@V?$allocator@UColorText@ioMission@@@std@@@2@V?$allocator@V?$vector@UColorText@ioMission@@V?$allocator@UColorText@ioMission@@@std@@@std@@@2@@std@@YAPAV?$vector@UColorText@ioMission@@V?$allocator@UColorText@ioMission@@@std@@@0@V?$_Vector_const_iterator@V?$_Vector_val@V?$vector@UColorText@ioMission@@V?$allocator@UColorText@ioMission@@@std@@@std@@V?$allocator@V?$vector@UColorText@ioMission@@V?$allocator@UColorText@ioMission@@@std@@@std@@@2@@std@@@0@0PAV10@AAV?$allocator@V?$vector@UColorText@ioMission@@V?$allocator@UColorText@ioMission@@@std@@@std@@@0@U_Nonscalar_ptr_iterator_tag@0@@Z PROC ; std::_Uninit_copy<std::_Vector_const_iterator<std::_Vector_val<std::vector<ioMission::ColorText,std::allocator<ioMission::ColorText> >,std::allocator<std::vector<ioMission::ColorText,std::allocator<ioMission::ColorText> > > > >,std::vector<ioMission::ColorText,std::allocator<ioMission::ColorText> > *,std::allocator<std::vector<ioMission::ColorText,std::allocator<ioMission::ColorText> > > >, COMDAT

; 369  : 	{	// copy [_First, _Last) to raw _Dest, using _Al, arbitrary type

  00000	6a 08		 push	 8
  00002	b8 00 00 00 00	 mov	 eax, __ehhandler$??$_Uninit_copy@V?$_Vector_const_iterator@V?$_Vector_val@V?$vector@UColorText@ioMission@@V?$allocator@UColorText@ioMission@@@std@@@std@@V?$allocator@V?$vector@UColorText@ioMission@@V?$allocator@UColorText@ioMission@@@std@@@std@@@2@@std@@@std@@PAV?$vector@UColorText@ioMission@@V?$allocator@UColorText@ioMission@@@std@@@2@V?$allocator@V?$vector@UColorText@ioMission@@V?$allocator@UColorText@ioMission@@@std@@@std@@@2@@std@@YAPAV?$vector@UColorText@ioMission@@V?$allocator@UColorText@ioMission@@@std@@@0@V?$_Vector_const_iterator@V?$_Vector_val@V?$vector@UColorText@ioMission@@V?$allocator@UColorText@ioMission@@@std@@@std@@V?$allocator@V?$vector@UColorText@ioMission@@V?$allocator@UColorText@ioMission@@@std@@@std@@@2@@std@@@0@0PAV10@AAV?$allocator@V?$vector@UColorText@ioMission@@V?$allocator@UColorText@ioMission@@@std@@@std@@@0@U_Nonscalar_ptr_iterator_tag@0@@Z
  00007	e8 00 00 00 00	 call	 __EH_prolog3_catch

; 370  : 	_DEBUG_RANGE(_First, _Last);
; 371  : 	_DEBUG_POINTER(_Dest);
; 372  : 	_FwdIt _Next = _Dest;

  0000c	8b 45 10	 mov	 eax, DWORD PTR __Dest$[ebp]

; 373  : 
; 374  : 	_TRY_BEGIN

  0000f	83 65 fc 00	 and	 DWORD PTR __$EHRec$[ebp+12], 0
  00013	89 45 ec	 mov	 DWORD PTR __Next$[ebp], eax

; 375  : 	for (; _First != _Last; ++_Dest, ++_First)

$LL14@Uninit_cop@4:
  00016	8b 45 08	 mov	 eax, DWORD PTR __First$[ebp]
  00019	3b 45 0c	 cmp	 eax, DWORD PTR __Last$[ebp]
  0001c	74 32		 je	 SHORT $LN4@Uninit_cop@4

; 376  : 		_Cons_val(_Al, _Dest, *_First);

  0001e	50		 push	 eax
  0001f	ff 75 10	 push	 DWORD PTR __Dest$[ebp]
  00022	e8 00 00 00 00	 call	 ??$_Construct@V?$vector@UColorText@ioMission@@V?$allocator@UColorText@ioMission@@@std@@@std@@ABV12@@std@@YAXPAV?$vector@UColorText@ioMission@@V?$allocator@UColorText@ioMission@@@std@@@0@ABV10@@Z ; std::_Construct<std::vector<ioMission::ColorText,std::allocator<ioMission::ColorText> >,std::vector<ioMission::ColorText,std::allocator<ioMission::ColorText> > const &>
  00027	83 45 10 10	 add	 DWORD PTR __Dest$[ebp], 16 ; 00000010H
  0002b	83 45 08 10	 add	 DWORD PTR __First$[ebp], 16 ; 00000010H
  0002f	59		 pop	 ecx
  00030	59		 pop	 ecx
  00031	eb e3		 jmp	 SHORT $LL14@Uninit_cop@4
__catch$??$_Uninit_copy@V?$_Vector_const_iterator@V?$_Vector_val@V?$vector@UColorText@ioMission@@V?$allocator@UColorText@ioMission@@@std@@@std@@V?$allocator@V?$vector@UColorText@ioMission@@V?$allocator@UColorText@ioMission@@@std@@@std@@@2@@std@@@std@@PAV?$vector@UColorText@ioMission@@V?$allocator@UColorText@ioMission@@@std@@@2@V?$allocator@V?$vector@UColorText@ioMission@@V?$allocator@UColorText@ioMission@@@std@@@std@@@2@@std@@YAPAV?$vector@UColorText@ioMission@@V?$allocator@UColorText@ioMission@@@std@@@0@V?$_Vector_const_iterator@V?$_Vector_val@V?$vector@UColorText@ioMission@@V?$allocator@UColorText@ioMission@@@std@@@std@@V?$allocator@V?$vector@UColorText@ioMission@@V?$allocator@UColorText@ioMission@@@std@@@std@@@2@@std@@@0@0PAV10@AAV?$allocator@V?$vector@UColorText@ioMission@@V?$allocator@UColorText@ioMission@@@std@@@std@@@0@U_Nonscalar_ptr_iterator_tag@0@@Z$0:

; 377  : 	_CATCH_ALL
; 378  : 	for (; _Next != _Dest; ++_Next)

  00033	8b 75 ec	 mov	 esi, DWORD PTR __Next$[ebp]
  00036	eb 0a		 jmp	 SHORT $LN49@Uninit_cop@4
$LL3@Uninit_cop@4:

; 379  : 		_Dest_val(_Al, _Next);

  00038	8b ce		 mov	 ecx, esi
  0003a	e8 00 00 00 00	 call	 ?_Tidy@?$vector@UColorText@ioMission@@V?$allocator@UColorText@ioMission@@@std@@@std@@IAEXXZ ; std::vector<ioMission::ColorText,std::allocator<ioMission::ColorText> >::_Tidy
  0003f	83 c6 10	 add	 esi, 16			; 00000010H
$LN49@Uninit_cop@4:

; 377  : 	_CATCH_ALL
; 378  : 	for (; _Next != _Dest; ++_Next)

  00042	3b 75 10	 cmp	 esi, DWORD PTR __Dest$[ebp]
  00045	75 f1		 jne	 SHORT $LL3@Uninit_cop@4

; 380  : 	_RERAISE;

  00047	6a 00		 push	 0
  00049	6a 00		 push	 0
  0004b	e8 00 00 00 00	 call	 __CxxThrowException@8
$LN50@Uninit_cop@4:
$LN4@Uninit_cop@4:

; 381  : 	_CATCH_END
; 382  : 	return (_Dest);

  00050	8b 45 10	 mov	 eax, DWORD PTR __Dest$[ebp]

; 383  : 	}

  00053	e8 00 00 00 00	 call	 __EH_epilog3
  00058	c3		 ret	 0
$LN48@Uninit_cop@4:
_TEXT	ENDS
;	COMDAT text$x
text$x	SEGMENT
__ehhandler$??$_Uninit_copy@V?$_Vector_const_iterator@V?$_Vector_val@V?$vector@UColorText@ioMission@@V?$allocator@UColorText@ioMission@@@std@@@std@@V?$allocator@V?$vector@UColorText@ioMission@@V?$allocator@UColorText@ioMission@@@std@@@std@@@2@@std@@@std@@PAV?$vector@UColorText@ioMission@@V?$allocator@UColorText@ioMission@@@std@@@2@V?$allocator@V?$vector@UColorText@ioMission@@V?$allocator@UColorText@ioMission@@@std@@@std@@@2@@std@@YAPAV?$vector@UColorText@ioMission@@V?$allocator@UColorText@ioMission@@@std@@@0@V?$_Vector_const_iterator@V?$_Vector_val@V?$vector@UColorText@ioMission@@V?$allocator@UColorText@ioMission@@@std@@@std@@V?$allocator@V?$vector@UColorText@ioMission@@V?$allocator@UColorText@ioMission@@@std@@@std@@@2@@std@@@0@0PAV10@AAV?$allocator@V?$vector@UColorText@ioMission@@V?$allocator@UColorText@ioMission@@@std@@@std@@@0@U_Nonscalar_ptr_iterator_tag@0@@Z:
  00000	8b 54 24 08	 mov	 edx, DWORD PTR [esp+8]
  00004	8d 42 0c	 lea	 eax, DWORD PTR [edx+12]
  00007	8b 4a e8	 mov	 ecx, DWORD PTR [edx-24]
  0000a	33 c8		 xor	 ecx, eax
  0000c	e8 00 00 00 00	 call	 @__security_check_cookie@4
  00011	b8 00 00 00 00	 mov	 eax, OFFSET __ehfuncinfo$??$_Uninit_copy@V?$_Vector_const_iterator@V?$_Vector_val@V?$vector@UColorText@ioMission@@V?$allocator@UColorText@ioMission@@@std@@@std@@V?$allocator@V?$vector@UColorText@ioMission@@V?$allocator@UColorText@ioMission@@@std@@@std@@@2@@std@@@std@@PAV?$vector@UColorText@ioMission@@V?$allocator@UColorText@ioMission@@@std@@@2@V?$allocator@V?$vector@UColorText@ioMission@@V?$allocator@UColorText@ioMission@@@std@@@std@@@2@@std@@YAPAV?$vector@UColorText@ioMission@@V?$allocator@UColorText@ioMission@@@std@@@0@V?$_Vector_const_iterator@V?$_Vector_val@V?$vector@UColorText@ioMission@@V?$allocator@UColorText@ioMission@@@std@@@std@@V?$allocator@V?$vector@UColorText@ioMission@@V?$allocator@UColorText@ioMission@@@std@@@std@@@2@@std@@@0@0PAV10@AAV?$allocator@V?$vector@UColorText@ioMission@@V?$allocator@UColorText@ioMission@@@std@@@std@@@0@U_Nonscalar_ptr_iterator_tag@0@@Z
  00016	e9 00 00 00 00	 jmp	 ___CxxFrameHandler3
text$x	ENDS
??$_Uninit_copy@V?$_Vector_const_iterator@V?$_Vector_val@V?$vector@UColorText@ioMission@@V?$allocator@UColorText@ioMission@@@std@@@std@@V?$allocator@V?$vector@UColorText@ioMission@@V?$allocator@UColorText@ioMission@@@std@@@std@@@2@@std@@@std@@PAV?$vector@UColorText@ioMission@@V?$allocator@UColorText@ioMission@@@std@@@2@V?$allocator@V?$vector@UColorText@ioMission@@V?$allocator@UColorText@ioMission@@@std@@@std@@@2@@std@@YAPAV?$vector@UColorText@ioMission@@V?$allocator@UColorText@ioMission@@@std@@@0@V?$_Vector_const_iterator@V?$_Vector_val@V?$vector@UColorText@ioMission@@V?$allocator@UColorText@ioMission@@@std@@@std@@V?$allocator@V?$vector@UColorText@ioMission@@V?$allocator@UColorText@ioMission@@@std@@@std@@@2@@std@@@0@0PAV10@AAV?$allocator@V?$vector@UColorText@ioMission@@V?$allocator@UColorText@ioMission@@@std@@@std@@@0@U_Nonscalar_ptr_iterator_tag@0@@Z ENDP ; std::_Uninit_copy<std::_Vector_const_iterator<std::_Vector_val<std::vector<ioMission::ColorText,std::allocator<ioMission::ColorText> >,std::allocator<std::vector<ioMission::ColorText,std::allocator<ioMission::ColorText> > > > >,std::vector<ioMission::ColorText,std::allocator<ioMission::ColorText> > *,std::allocator<std::vector<ioMission::ColorText,std::allocator<ioMission::ColorText> > > >
PUBLIC	??$_Cons_val@V?$allocator@V?$vector@UColorText@ioMission@@V?$allocator@UColorText@ioMission@@@std@@@std@@@std@@V?$vector@UColorText@ioMission@@V?$allocator@UColorText@ioMission@@@std@@@2@V32@@std@@YAXAAV?$allocator@V?$vector@UColorText@ioMission@@V?$allocator@UColorText@ioMission@@@std@@@std@@@0@PAV?$vector@UColorText@ioMission@@V?$allocator@UColorText@ioMission@@@std@@@0@$$QAV20@@Z ; std::_Cons_val<std::allocator<std::vector<ioMission::ColorText,std::allocator<ioMission::ColorText> > >,std::vector<ioMission::ColorText,std::allocator<ioMission::ColorText> >,std::vector<ioMission::ColorText,std::allocator<ioMission::ColorText> > >
; Function compile flags: /Ogsp
; File c:\program files (x86)\microsoft visual studio 10.0\vc\include\xmemory
;	COMDAT ??$_Cons_val@V?$allocator@V?$vector@UColorText@ioMission@@V?$allocator@UColorText@ioMission@@@std@@@std@@@std@@V?$vector@UColorText@ioMission@@V?$allocator@UColorText@ioMission@@@std@@@2@V32@@std@@YAXAAV?$allocator@V?$vector@UColorText@ioMission@@V?$allocator@UColorText@ioMission@@@std@@@std@@@0@PAV?$vector@UColorText@ioMission@@V?$allocator@UColorText@ioMission@@@std@@@0@$$QAV20@@Z
_TEXT	SEGMENT
__Alval$ = 8						; size = 4
__Pdest$ = 12						; size = 4
__Src$ = 16						; size = 4
??$_Cons_val@V?$allocator@V?$vector@UColorText@ioMission@@V?$allocator@UColorText@ioMission@@@std@@@std@@@std@@V?$vector@UColorText@ioMission@@V?$allocator@UColorText@ioMission@@@std@@@2@V32@@std@@YAXAAV?$allocator@V?$vector@UColorText@ioMission@@V?$allocator@UColorText@ioMission@@@std@@@std@@@0@PAV?$vector@UColorText@ioMission@@V?$allocator@UColorText@ioMission@@@std@@@0@$$QAV20@@Z PROC ; std::_Cons_val<std::allocator<std::vector<ioMission::ColorText,std::allocator<ioMission::ColorText> > >,std::vector<ioMission::ColorText,std::allocator<ioMission::ColorText> >,std::vector<ioMission::ColorText,std::allocator<ioMission::ColorText> > >, COMDAT

; 279  : 	{	// construct using allocator

  00000	55		 push	 ebp
  00001	8b ec		 mov	 ebp, esp

; 280  : 	_Alval.construct(_Pdest, _STD forward<_Ty2>(_Src));

  00003	ff 75 10	 push	 DWORD PTR __Src$[ebp]
  00006	8b 4d 08	 mov	 ecx, DWORD PTR __Alval$[ebp]
  00009	ff 75 0c	 push	 DWORD PTR __Pdest$[ebp]
  0000c	e8 00 00 00 00	 call	 ?construct@?$allocator@V?$vector@UColorText@ioMission@@V?$allocator@UColorText@ioMission@@@std@@@std@@@std@@QAEXPAV?$vector@UColorText@ioMission@@V?$allocator@UColorText@ioMission@@@std@@@2@$$QAV32@@Z ; std::allocator<std::vector<ioMission::ColorText,std::allocator<ioMission::ColorText> > >::construct

; 281  : 	}

  00011	5d		 pop	 ebp
  00012	c3		 ret	 0
??$_Cons_val@V?$allocator@V?$vector@UColorText@ioMission@@V?$allocator@UColorText@ioMission@@@std@@@std@@@std@@V?$vector@UColorText@ioMission@@V?$allocator@UColorText@ioMission@@@std@@@2@V32@@std@@YAXAAV?$allocator@V?$vector@UColorText@ioMission@@V?$allocator@UColorText@ioMission@@@std@@@std@@@0@PAV?$vector@UColorText@ioMission@@V?$allocator@UColorText@ioMission@@@std@@@0@$$QAV20@@Z ENDP ; std::_Cons_val<std::allocator<std::vector<ioMission::ColorText,std::allocator<ioMission::ColorText> > >,std::vector<ioMission::ColorText,std::allocator<ioMission::ColorText> >,std::vector<ioMission::ColorText,std::allocator<ioMission::ColorText> > >
_TEXT	ENDS
PUBLIC	??$_Destroy_range@V?$allocator@V?$vector@UColorText@ioMission@@V?$allocator@UColorText@ioMission@@@std@@@std@@@std@@@std@@YAXPAV?$vector@UColorText@ioMission@@V?$allocator@UColorText@ioMission@@@std@@@0@0AAV?$allocator@V?$vector@UColorText@ioMission@@V?$allocator@UColorText@ioMission@@@std@@@std@@@0@@Z ; std::_Destroy_range<std::allocator<std::vector<ioMission::ColorText,std::allocator<ioMission::ColorText> > > >
; Function compile flags: /Ogsp
;	COMDAT ??$_Destroy_range@V?$allocator@V?$vector@UColorText@ioMission@@V?$allocator@UColorText@ioMission@@@std@@@std@@@std@@@std@@YAXPAV?$vector@UColorText@ioMission@@V?$allocator@UColorText@ioMission@@@std@@@0@0AAV?$allocator@V?$vector@UColorText@ioMission@@V?$allocator@UColorText@ioMission@@@std@@@std@@@0@@Z
_TEXT	SEGMENT
__First$ = 8						; size = 4
__Last$ = 12						; size = 4
__Al$ = 16						; size = 4
??$_Destroy_range@V?$allocator@V?$vector@UColorText@ioMission@@V?$allocator@UColorText@ioMission@@@std@@@std@@@std@@@std@@YAXPAV?$vector@UColorText@ioMission@@V?$allocator@UColorText@ioMission@@@std@@@0@0AAV?$allocator@V?$vector@UColorText@ioMission@@V?$allocator@UColorText@ioMission@@@std@@@std@@@0@@Z PROC ; std::_Destroy_range<std::allocator<std::vector<ioMission::ColorText,std::allocator<ioMission::ColorText> > > >, COMDAT

; 87   : 	{	// destroy [_First, _Last)

  00000	55		 push	 ebp
  00001	8b ec		 mov	 ebp, esp
  00003	56		 push	 esi

; 88   : 	_Destroy_range(_First, _Last, _Al, _Ptr_cat(_First, _Last));

  00004	8b 75 08	 mov	 esi, DWORD PTR __First$[ebp]
  00007	eb 0a		 jmp	 SHORT $LN25@Destroy_ra@7
$LL7@Destroy_ra@7:
  00009	8b ce		 mov	 ecx, esi
  0000b	e8 00 00 00 00	 call	 ?_Tidy@?$vector@UColorText@ioMission@@V?$allocator@UColorText@ioMission@@@std@@@std@@IAEXXZ ; std::vector<ioMission::ColorText,std::allocator<ioMission::ColorText> >::_Tidy
  00010	83 c6 10	 add	 esi, 16			; 00000010H
$LN25@Destroy_ra@7:
  00013	3b 75 0c	 cmp	 esi, DWORD PTR __Last$[ebp]
  00016	75 f1		 jne	 SHORT $LL7@Destroy_ra@7
  00018	5e		 pop	 esi

; 89   : 	}

  00019	5d		 pop	 ebp
  0001a	c3		 ret	 0
??$_Destroy_range@V?$allocator@V?$vector@UColorText@ioMission@@V?$allocator@UColorText@ioMission@@@std@@@std@@@std@@@std@@YAXPAV?$vector@UColorText@ioMission@@V?$allocator@UColorText@ioMission@@@std@@@0@0AAV?$allocator@V?$vector@UColorText@ioMission@@V?$allocator@UColorText@ioMission@@@std@@@std@@@0@@Z ENDP ; std::_Destroy_range<std::allocator<std::vector<ioMission::ColorText,std::allocator<ioMission::ColorText> > > >
_TEXT	ENDS
PUBLIC	??$_Uninitialized_copy@V?$_Vector_const_iterator@V?$_Vector_val@V?$vector@UColorText@ioMission@@V?$allocator@UColorText@ioMission@@@std@@@std@@V?$allocator@V?$vector@UColorText@ioMission@@V?$allocator@UColorText@ioMission@@@std@@@std@@@2@@std@@@std@@PAV?$vector@UColorText@ioMission@@V?$allocator@UColorText@ioMission@@@std@@@2@V?$allocator@V?$vector@UColorText@ioMission@@V?$allocator@UColorText@ioMission@@@std@@@std@@@2@@std@@YAPAV?$vector@UColorText@ioMission@@V?$allocator@UColorText@ioMission@@@std@@@0@V?$_Vector_const_iterator@V?$_Vector_val@V?$vector@UColorText@ioMission@@V?$allocator@UColorText@ioMission@@@std@@@std@@V?$allocator@V?$vector@UColorText@ioMission@@V?$allocator@UColorText@ioMission@@@std@@@std@@@2@@std@@@0@0PAV10@AAV?$allocator@V?$vector@UColorText@ioMission@@V?$allocator@UColorText@ioMission@@@std@@@std@@@0@@Z ; std::_Uninitialized_copy<std::_Vector_const_iterator<std::_Vector_val<std::vector<ioMission::ColorText,std::allocator<ioMission::ColorText> >,std::allocator<std::vector<ioMission::ColorText,std::allocator<ioMission::ColorText> > > > >,std::vector<ioMission::ColorText,std::allocator<ioMission::ColorText> > *,std::allocator<std::vector<ioMission::ColorText,std::allocator<ioMission::ColorText> > > >
; Function compile flags: /Ogsp
; File c:\program files (x86)\microsoft visual studio 10.0\vc\include\memory
;	COMDAT ??$_Uninitialized_copy@V?$_Vector_const_iterator@V?$_Vector_val@V?$vector@UColorText@ioMission@@V?$allocator@UColorText@ioMission@@@std@@@std@@V?$allocator@V?$vector@UColorText@ioMission@@V?$allocator@UColorText@ioMission@@@std@@@std@@@2@@std@@@std@@PAV?$vector@UColorText@ioMission@@V?$allocator@UColorText@ioMission@@@std@@@2@V?$allocator@V?$vector@UColorText@ioMission@@V?$allocator@UColorText@ioMission@@@std@@@std@@@2@@std@@YAPAV?$vector@UColorText@ioMission@@V?$allocator@UColorText@ioMission@@@std@@@0@V?$_Vector_const_iterator@V?$_Vector_val@V?$vector@UColorText@ioMission@@V?$allocator@UColorText@ioMission@@@std@@@std@@V?$allocator@V?$vector@UColorText@ioMission@@V?$allocator@UColorText@ioMission@@@std@@@std@@@2@@std@@@0@0PAV10@AAV?$allocator@V?$vector@UColorText@ioMission@@V?$allocator@UColorText@ioMission@@@std@@@std@@@0@@Z
_TEXT	SEGMENT
__Cat$516720 = -4					; size = 1
__First$ = 8						; size = 4
__Last$ = 12						; size = 4
__Dest$ = 16						; size = 4
__Al$ = 20						; size = 4
??$_Uninitialized_copy@V?$_Vector_const_iterator@V?$_Vector_val@V?$vector@UColorText@ioMission@@V?$allocator@UColorText@ioMission@@@std@@@std@@V?$allocator@V?$vector@UColorText@ioMission@@V?$allocator@UColorText@ioMission@@@std@@@std@@@2@@std@@@std@@PAV?$vector@UColorText@ioMission@@V?$allocator@UColorText@ioMission@@@std@@@2@V?$allocator@V?$vector@UColorText@ioMission@@V?$allocator@UColorText@ioMission@@@std@@@std@@@2@@std@@YAPAV?$vector@UColorText@ioMission@@V?$allocator@UColorText@ioMission@@@std@@@0@V?$_Vector_const_iterator@V?$_Vector_val@V?$vector@UColorText@ioMission@@V?$allocator@UColorText@ioMission@@@std@@@std@@V?$allocator@V?$vector@UColorText@ioMission@@V?$allocator@UColorText@ioMission@@@std@@@std@@@2@@std@@@0@0PAV10@AAV?$allocator@V?$vector@UColorText@ioMission@@V?$allocator@UColorText@ioMission@@@std@@@std@@@0@@Z PROC ; std::_Uninitialized_copy<std::_Vector_const_iterator<std::_Vector_val<std::vector<ioMission::ColorText,std::allocator<ioMission::ColorText> >,std::allocator<std::vector<ioMission::ColorText,std::allocator<ioMission::ColorText> > > > >,std::vector<ioMission::ColorText,std::allocator<ioMission::ColorText> > *,std::allocator<std::vector<ioMission::ColorText,std::allocator<ioMission::ColorText> > > >, COMDAT

; 412  : 	{	// copy [_First, _Last) to raw _Dest, using _Al

  00000	55		 push	 ebp
  00001	8b ec		 mov	 ebp, esp
  00003	51		 push	 ecx

; 413  : 	return (_Uninit_copy(_First, _Last, _Dest, _Al,
; 414  : 		_Ptr_cat(_First, _Dest)));

  00004	ff 75 fc	 push	 DWORD PTR __Cat$516720[ebp]
  00007	ff 75 14	 push	 DWORD PTR __Al$[ebp]
  0000a	ff 75 10	 push	 DWORD PTR __Dest$[ebp]
  0000d	ff 75 0c	 push	 DWORD PTR __Last$[ebp]
  00010	ff 75 08	 push	 DWORD PTR __First$[ebp]
  00013	e8 00 00 00 00	 call	 ??$_Uninit_copy@V?$_Vector_const_iterator@V?$_Vector_val@V?$vector@UColorText@ioMission@@V?$allocator@UColorText@ioMission@@@std@@@std@@V?$allocator@V?$vector@UColorText@ioMission@@V?$allocator@UColorText@ioMission@@@std@@@std@@@2@@std@@@std@@PAV?$vector@UColorText@ioMission@@V?$allocator@UColorText@ioMission@@@std@@@2@V?$allocator@V?$vector@UColorText@ioMission@@V?$allocator@UColorText@ioMission@@@std@@@std@@@2@@std@@YAPAV?$vector@UColorText@ioMission@@V?$allocator@UColorText@ioMission@@@std@@@0@V?$_Vector_const_iterator@V?$_Vector_val@V?$vector@UColorText@ioMission@@V?$allocator@UColorText@ioMission@@@std@@@std@@V?$allocator@V?$vector@UColorText@ioMission@@V?$allocator@UColorText@ioMission@@@std@@@std@@@2@@std@@@0@0PAV10@AAV?$allocator@V?$vector@UColorText@ioMission@@V?$allocator@UColorText@ioMission@@@std@@@std@@@0@U_Nonscalar_ptr_iterator_tag@0@@Z ; std::_Uninit_copy<std::_Vector_const_iterator<std::_Vector_val<std::vector<ioMission::ColorText,std::allocator<ioMission::ColorText> >,std::allocator<std::vector<ioMission::ColorText,std::allocator<ioMission::ColorText> > > > >,std::vector<ioMission::ColorText,std::allocator<ioMission::ColorText> > *,std::allocator<std::vector<ioMission::ColorText,std::allocator<ioMission::ColorText> > > >
  00018	83 c4 14	 add	 esp, 20			; 00000014H

; 415  : 	}

  0001b	c9		 leave
  0001c	c3		 ret	 0
??$_Uninitialized_copy@V?$_Vector_const_iterator@V?$_Vector_val@V?$vector@UColorText@ioMission@@V?$allocator@UColorText@ioMission@@@std@@@std@@V?$allocator@V?$vector@UColorText@ioMission@@V?$allocator@UColorText@ioMission@@@std@@@std@@@2@@std@@@std@@PAV?$vector@UColorText@ioMission@@V?$allocator@UColorText@ioMission@@@std@@@2@V?$allocator@V?$vector@UColorText@ioMission@@V?$allocator@UColorText@ioMission@@@std@@@std@@@2@@std@@YAPAV?$vector@UColorText@ioMission@@V?$allocator@UColorText@ioMission@@@std@@@0@V?$_Vector_const_iterator@V?$_Vector_val@V?$vector@UColorText@ioMission@@V?$allocator@UColorText@ioMission@@@std@@@std@@V?$allocator@V?$vector@UColorText@ioMission@@V?$allocator@UColorText@ioMission@@@std@@@std@@@2@@std@@@0@0PAV10@AAV?$allocator@V?$vector@UColorText@ioMission@@V?$allocator@UColorText@ioMission@@@std@@@std@@@0@@Z ENDP ; std::_Uninitialized_copy<std::_Vector_const_iterator<std::_Vector_val<std::vector<ioMission::ColorText,std::allocator<ioMission::ColorText> >,std::allocator<std::vector<ioMission::ColorText,std::allocator<ioMission::ColorText> > > > >,std::vector<ioMission::ColorText,std::allocator<ioMission::ColorText> > *,std::allocator<std::vector<ioMission::ColorText,std::allocator<ioMission::ColorText> > > >
_TEXT	ENDS
PUBLIC	??$_Uninit_move@PAV?$vector@UColorText@ioMission@@V?$allocator@UColorText@ioMission@@@std@@@std@@PAV12@V?$allocator@V?$vector@UColorText@ioMission@@V?$allocator@UColorText@ioMission@@@std@@@std@@@2@V12@@std@@YAPAV?$vector@UColorText@ioMission@@V?$allocator@UColorText@ioMission@@@std@@@0@PAV10@00AAV?$allocator@V?$vector@UColorText@ioMission@@V?$allocator@UColorText@ioMission@@@std@@@std@@@0@0U_Nonscalar_ptr_iterator_tag@0@@Z ; std::_Uninit_move<std::vector<ioMission::ColorText,std::allocator<ioMission::ColorText> > *,std::vector<ioMission::ColorText,std::allocator<ioMission::ColorText> > *,std::allocator<std::vector<ioMission::ColorText,std::allocator<ioMission::ColorText> > >,std::vector<ioMission::ColorText,std::allocator<ioMission::ColorText> > >
;	COMDAT xdata$x
; File c:\program files (x86)\microsoft visual studio 10.0\vc\include\vector
xdata$x	SEGMENT
__catchsym$??$_Uninit_move@PAV?$vector@UColorText@ioMission@@V?$allocator@UColorText@ioMission@@@std@@@std@@PAV12@V?$allocator@V?$vector@UColorText@ioMission@@V?$allocator@UColorText@ioMission@@@std@@@std@@@2@V12@@std@@YAPAV?$vector@UColorText@ioMission@@V?$allocator@UColorText@ioMission@@@std@@@0@PAV10@00AAV?$allocator@V?$vector@UColorText@ioMission@@V?$allocator@UColorText@ioMission@@@std@@@std@@@0@0U_Nonscalar_ptr_iterator_tag@0@@Z$2 DD 040H
	DD	00H
	DD	00H
	DD	FLAT:__catch$??$_Uninit_move@PAV?$vector@UColorText@ioMission@@V?$allocator@UColorText@ioMission@@@std@@@std@@PAV12@V?$allocator@V?$vector@UColorText@ioMission@@V?$allocator@UColorText@ioMission@@@std@@@std@@@2@V12@@std@@YAPAV?$vector@UColorText@ioMission@@V?$allocator@UColorText@ioMission@@@std@@@0@PAV10@00AAV?$allocator@V?$vector@UColorText@ioMission@@V?$allocator@UColorText@ioMission@@@std@@@std@@@0@0U_Nonscalar_ptr_iterator_tag@0@@Z$0
__unwindtable$??$_Uninit_move@PAV?$vector@UColorText@ioMission@@V?$allocator@UColorText@ioMission@@@std@@@std@@PAV12@V?$allocator@V?$vector@UColorText@ioMission@@V?$allocator@UColorText@ioMission@@@std@@@std@@@2@V12@@std@@YAPAV?$vector@UColorText@ioMission@@V?$allocator@UColorText@ioMission@@@std@@@0@PAV10@00AAV?$allocator@V?$vector@UColorText@ioMission@@V?$allocator@UColorText@ioMission@@@std@@@std@@@0@0U_Nonscalar_ptr_iterator_tag@0@@Z DD 0ffffffffH
	DD	00H
	DD	0ffffffffH
	DD	00H
__tryblocktable$??$_Uninit_move@PAV?$vector@UColorText@ioMission@@V?$allocator@UColorText@ioMission@@@std@@@std@@PAV12@V?$allocator@V?$vector@UColorText@ioMission@@V?$allocator@UColorText@ioMission@@@std@@@std@@@2@V12@@std@@YAPAV?$vector@UColorText@ioMission@@V?$allocator@UColorText@ioMission@@@std@@@0@PAV10@00AAV?$allocator@V?$vector@UColorText@ioMission@@V?$allocator@UColorText@ioMission@@@std@@@std@@@0@0U_Nonscalar_ptr_iterator_tag@0@@Z DD 00H
	DD	00H
	DD	01H
	DD	01H
	DD	FLAT:__catchsym$??$_Uninit_move@PAV?$vector@UColorText@ioMission@@V?$allocator@UColorText@ioMission@@@std@@@std@@PAV12@V?$allocator@V?$vector@UColorText@ioMission@@V?$allocator@UColorText@ioMission@@@std@@@std@@@2@V12@@std@@YAPAV?$vector@UColorText@ioMission@@V?$allocator@UColorText@ioMission@@@std@@@0@PAV10@00AAV?$allocator@V?$vector@UColorText@ioMission@@V?$allocator@UColorText@ioMission@@@std@@@std@@@0@0U_Nonscalar_ptr_iterator_tag@0@@Z$2
__ehfuncinfo$??$_Uninit_move@PAV?$vector@UColorText@ioMission@@V?$allocator@UColorText@ioMission@@@std@@@std@@PAV12@V?$allocator@V?$vector@UColorText@ioMission@@V?$allocator@UColorText@ioMission@@@std@@@std@@@2@V12@@std@@YAPAV?$vector@UColorText@ioMission@@V?$allocator@UColorText@ioMission@@@std@@@0@PAV10@00AAV?$allocator@V?$vector@UColorText@ioMission@@V?$allocator@UColorText@ioMission@@@std@@@std@@@0@0U_Nonscalar_ptr_iterator_tag@0@@Z DD 019930522H
	DD	02H
	DD	FLAT:__unwindtable$??$_Uninit_move@PAV?$vector@UColorText@ioMission@@V?$allocator@UColorText@ioMission@@@std@@@std@@PAV12@V?$allocator@V?$vector@UColorText@ioMission@@V?$allocator@UColorText@ioMission@@@std@@@std@@@2@V12@@std@@YAPAV?$vector@UColorText@ioMission@@V?$allocator@UColorText@ioMission@@@std@@@0@PAV10@00AAV?$allocator@V?$vector@UColorText@ioMission@@V?$allocator@UColorText@ioMission@@@std@@@std@@@0@0U_Nonscalar_ptr_iterator_tag@0@@Z
	DD	01H
	DD	FLAT:__tryblocktable$??$_Uninit_move@PAV?$vector@UColorText@ioMission@@V?$allocator@UColorText@ioMission@@@std@@@std@@PAV12@V?$allocator@V?$vector@UColorText@ioMission@@V?$allocator@UColorText@ioMission@@@std@@@std@@@2@V12@@std@@YAPAV?$vector@UColorText@ioMission@@V?$allocator@UColorText@ioMission@@@std@@@0@PAV10@00AAV?$allocator@V?$vector@UColorText@ioMission@@V?$allocator@UColorText@ioMission@@@std@@@std@@@0@0U_Nonscalar_ptr_iterator_tag@0@@Z
	DD	2 DUP(00H)
	DD	00H
	DD	01H
; Function compile flags: /Ogsp
; File c:\program files (x86)\microsoft visual studio 10.0\vc\include\memory
xdata$x	ENDS
;	COMDAT ??$_Uninit_move@PAV?$vector@UColorText@ioMission@@V?$allocator@UColorText@ioMission@@@std@@@std@@PAV12@V?$allocator@V?$vector@UColorText@ioMission@@V?$allocator@UColorText@ioMission@@@std@@@std@@@2@V12@@std@@YAPAV?$vector@UColorText@ioMission@@V?$allocator@UColorText@ioMission@@@std@@@0@PAV10@00AAV?$allocator@V?$vector@UColorText@ioMission@@V?$allocator@UColorText@ioMission@@@std@@@std@@@0@0U_Nonscalar_ptr_iterator_tag@0@@Z
_TEXT	SEGMENT
__Next$ = -20						; size = 4
__$EHRec$ = -16						; size = 16
__First$ = 8						; size = 4
__Last$ = 12						; size = 4
__Dest$ = 16						; size = 4
__Al$ = 20						; size = 4
___formal$ = 24						; size = 4
___formal$ = 28						; size = 1
??$_Uninit_move@PAV?$vector@UColorText@ioMission@@V?$allocator@UColorText@ioMission@@@std@@@std@@PAV12@V?$allocator@V?$vector@UColorText@ioMission@@V?$allocator@UColorText@ioMission@@@std@@@std@@@2@V12@@std@@YAPAV?$vector@UColorText@ioMission@@V?$allocator@UColorText@ioMission@@@std@@@0@PAV10@00AAV?$allocator@V?$vector@UColorText@ioMission@@V?$allocator@UColorText@ioMission@@@std@@@std@@@0@0U_Nonscalar_ptr_iterator_tag@0@@Z PROC ; std::_Uninit_move<std::vector<ioMission::ColorText,std::allocator<ioMission::ColorText> > *,std::vector<ioMission::ColorText,std::allocator<ioMission::ColorText> > *,std::allocator<std::vector<ioMission::ColorText,std::allocator<ioMission::ColorText> > >,std::vector<ioMission::ColorText,std::allocator<ioMission::ColorText> > >, COMDAT

; 424  : 	{	// move [_First, _Last) to raw _Dest, using _Al, arbitrary type

  00000	6a 08		 push	 8
  00002	b8 00 00 00 00	 mov	 eax, __ehhandler$??$_Uninit_move@PAV?$vector@UColorText@ioMission@@V?$allocator@UColorText@ioMission@@@std@@@std@@PAV12@V?$allocator@V?$vector@UColorText@ioMission@@V?$allocator@UColorText@ioMission@@@std@@@std@@@2@V12@@std@@YAPAV?$vector@UColorText@ioMission@@V?$allocator@UColorText@ioMission@@@std@@@0@PAV10@00AAV?$allocator@V?$vector@UColorText@ioMission@@V?$allocator@UColorText@ioMission@@@std@@@std@@@0@0U_Nonscalar_ptr_iterator_tag@0@@Z
  00007	e8 00 00 00 00	 call	 __EH_prolog3_catch

; 425  : 	_DEBUG_RANGE(_First, _Last);
; 426  : 	_DEBUG_POINTER(_Dest);
; 427  : 	_FwdIt _Next = _Dest;

  0000c	8b 45 10	 mov	 eax, DWORD PTR __Dest$[ebp]

; 428  : 
; 429  : 	_TRY_BEGIN

  0000f	83 65 fc 00	 and	 DWORD PTR __$EHRec$[ebp+12], 0
  00013	8b 75 08	 mov	 esi, DWORD PTR __First$[ebp]
  00016	89 45 ec	 mov	 DWORD PTR __Next$[ebp], eax
$LL6@Uninit_mov@3:

; 430  : 	for (; _First != _Last; ++_Dest, ++_First)

  00019	3b 75 0c	 cmp	 esi, DWORD PTR __Last$[ebp]
  0001c	74 32		 je	 SHORT $LN4@Uninit_mov@3

; 431  : 		_Cons_val(_Al, _Dest, (_Valty &&)*_First);

  0001e	8b 4d 14	 mov	 ecx, DWORD PTR __Al$[ebp]
  00021	56		 push	 esi
  00022	ff 75 10	 push	 DWORD PTR __Dest$[ebp]
  00025	e8 00 00 00 00	 call	 ?construct@?$allocator@V?$vector@UColorText@ioMission@@V?$allocator@UColorText@ioMission@@@std@@@std@@@std@@QAEXPAV?$vector@UColorText@ioMission@@V?$allocator@UColorText@ioMission@@@std@@@2@$$QAV32@@Z ; std::allocator<std::vector<ioMission::ColorText,std::allocator<ioMission::ColorText> > >::construct
  0002a	83 45 10 10	 add	 DWORD PTR __Dest$[ebp], 16 ; 00000010H
  0002e	83 c6 10	 add	 esi, 16			; 00000010H
  00031	eb e6		 jmp	 SHORT $LL6@Uninit_mov@3
__catch$??$_Uninit_move@PAV?$vector@UColorText@ioMission@@V?$allocator@UColorText@ioMission@@@std@@@std@@PAV12@V?$allocator@V?$vector@UColorText@ioMission@@V?$allocator@UColorText@ioMission@@@std@@@std@@@2@V12@@std@@YAPAV?$vector@UColorText@ioMission@@V?$allocator@UColorText@ioMission@@@std@@@0@PAV10@00AAV?$allocator@V?$vector@UColorText@ioMission@@V?$allocator@UColorText@ioMission@@@std@@@std@@@0@0U_Nonscalar_ptr_iterator_tag@0@@Z$0:

; 432  : 	_CATCH_ALL
; 433  : 	for (; _Next != _Dest; ++_Next)

  00033	8b 75 ec	 mov	 esi, DWORD PTR __Next$[ebp]
  00036	eb 0a		 jmp	 SHORT $LN37@Uninit_mov@3
$LL3@Uninit_mov@3:

; 434  : 		_Dest_val(_Al, _Next);

  00038	8b ce		 mov	 ecx, esi
  0003a	e8 00 00 00 00	 call	 ?_Tidy@?$vector@UColorText@ioMission@@V?$allocator@UColorText@ioMission@@@std@@@std@@IAEXXZ ; std::vector<ioMission::ColorText,std::allocator<ioMission::ColorText> >::_Tidy
  0003f	83 c6 10	 add	 esi, 16			; 00000010H
$LN37@Uninit_mov@3:

; 432  : 	_CATCH_ALL
; 433  : 	for (; _Next != _Dest; ++_Next)

  00042	3b 75 10	 cmp	 esi, DWORD PTR __Dest$[ebp]
  00045	75 f1		 jne	 SHORT $LL3@Uninit_mov@3

; 435  : 	_RERAISE;

  00047	6a 00		 push	 0
  00049	6a 00		 push	 0
  0004b	e8 00 00 00 00	 call	 __CxxThrowException@8
$LN38@Uninit_mov@3:
$LN4@Uninit_mov@3:

; 436  : 	_CATCH_END
; 437  : 	return (_Dest);

  00050	8b 45 10	 mov	 eax, DWORD PTR __Dest$[ebp]

; 438  : 	}

  00053	e8 00 00 00 00	 call	 __EH_epilog3
  00058	c3		 ret	 0
$LN36@Uninit_mov@3:
_TEXT	ENDS
;	COMDAT text$x
text$x	SEGMENT
__ehhandler$??$_Uninit_move@PAV?$vector@UColorText@ioMission@@V?$allocator@UColorText@ioMission@@@std@@@std@@PAV12@V?$allocator@V?$vector@UColorText@ioMission@@V?$allocator@UColorText@ioMission@@@std@@@std@@@2@V12@@std@@YAPAV?$vector@UColorText@ioMission@@V?$allocator@UColorText@ioMission@@@std@@@0@PAV10@00AAV?$allocator@V?$vector@UColorText@ioMission@@V?$allocator@UColorText@ioMission@@@std@@@std@@@0@0U_Nonscalar_ptr_iterator_tag@0@@Z:
  00000	8b 54 24 08	 mov	 edx, DWORD PTR [esp+8]
  00004	8d 42 0c	 lea	 eax, DWORD PTR [edx+12]
  00007	8b 4a e8	 mov	 ecx, DWORD PTR [edx-24]
  0000a	33 c8		 xor	 ecx, eax
  0000c	e8 00 00 00 00	 call	 @__security_check_cookie@4
  00011	b8 00 00 00 00	 mov	 eax, OFFSET __ehfuncinfo$??$_Uninit_move@PAV?$vector@UColorText@ioMission@@V?$allocator@UColorText@ioMission@@@std@@@std@@PAV12@V?$allocator@V?$vector@UColorText@ioMission@@V?$allocator@UColorText@ioMission@@@std@@@std@@@2@V12@@std@@YAPAV?$vector@UColorText@ioMission@@V?$allocator@UColorText@ioMission@@@std@@@0@PAV10@00AAV?$allocator@V?$vector@UColorText@ioMission@@V?$allocator@UColorText@ioMission@@@std@@@std@@@0@0U_Nonscalar_ptr_iterator_tag@0@@Z
  00016	e9 00 00 00 00	 jmp	 ___CxxFrameHandler3
text$x	ENDS
??$_Uninit_move@PAV?$vector@UColorText@ioMission@@V?$allocator@UColorText@ioMission@@@std@@@std@@PAV12@V?$allocator@V?$vector@UColorText@ioMission@@V?$allocator@UColorText@ioMission@@@std@@@std@@@2@V12@@std@@YAPAV?$vector@UColorText@ioMission@@V?$allocator@UColorText@ioMission@@@std@@@0@PAV10@00AAV?$allocator@V?$vector@UColorText@ioMission@@V?$allocator@UColorText@ioMission@@@std@@@std@@@0@0U_Nonscalar_ptr_iterator_tag@0@@Z ENDP ; std::_Uninit_move<std::vector<ioMission::ColorText,std::allocator<ioMission::ColorText> > *,std::vector<ioMission::ColorText,std::allocator<ioMission::ColorText> > *,std::allocator<std::vector<ioMission::ColorText,std::allocator<ioMission::ColorText> > >,std::vector<ioMission::ColorText,std::allocator<ioMission::ColorText> > >
PUBLIC	?_Destroy@?$vector@V?$vector@UColorText@ioMission@@V?$allocator@UColorText@ioMission@@@std@@@std@@V?$allocator@V?$vector@UColorText@ioMission@@V?$allocator@UColorText@ioMission@@@std@@@std@@@2@@std@@IAEXPAV?$vector@UColorText@ioMission@@V?$allocator@UColorText@ioMission@@@std@@@2@0@Z ; std::vector<std::vector<ioMission::ColorText,std::allocator<ioMission::ColorText> >,std::allocator<std::vector<ioMission::ColorText,std::allocator<ioMission::ColorText> > > >::_Destroy
; Function compile flags: /Ogsp
; File c:\program files (x86)\microsoft visual studio 10.0\vc\include\vector
;	COMDAT ?_Destroy@?$vector@V?$vector@UColorText@ioMission@@V?$allocator@UColorText@ioMission@@@std@@@std@@V?$allocator@V?$vector@UColorText@ioMission@@V?$allocator@UColorText@ioMission@@@std@@@std@@@2@@std@@IAEXPAV?$vector@UColorText@ioMission@@V?$allocator@UColorText@ioMission@@@std@@@2@0@Z
_TEXT	SEGMENT
__First$ = 8						; size = 4
__Last$ = 12						; size = 4
?_Destroy@?$vector@V?$vector@UColorText@ioMission@@V?$allocator@UColorText@ioMission@@@std@@@std@@V?$allocator@V?$vector@UColorText@ioMission@@V?$allocator@UColorText@ioMission@@@std@@@std@@@2@@std@@IAEXPAV?$vector@UColorText@ioMission@@V?$allocator@UColorText@ioMission@@@std@@@2@0@Z PROC ; std::vector<std::vector<ioMission::ColorText,std::allocator<ioMission::ColorText> >,std::allocator<std::vector<ioMission::ColorText,std::allocator<ioMission::ColorText> > > >::_Destroy, COMDAT
; _this$ = ecx

; 1269 : 		{	// destroy [_First, _Last) using allocator

  00000	55		 push	 ebp
  00001	8b ec		 mov	 ebp, esp
  00003	56		 push	 esi

; 1270 : 		_Destroy_range(_First, _Last, this->_Alval);

  00004	8b 75 08	 mov	 esi, DWORD PTR __First$[ebp]
  00007	eb 0a		 jmp	 SHORT $LN27@Destroy@2
$LL9@Destroy@2:
  00009	8b ce		 mov	 ecx, esi
  0000b	e8 00 00 00 00	 call	 ?_Tidy@?$vector@UColorText@ioMission@@V?$allocator@UColorText@ioMission@@@std@@@std@@IAEXXZ ; std::vector<ioMission::ColorText,std::allocator<ioMission::ColorText> >::_Tidy
  00010	83 c6 10	 add	 esi, 16			; 00000010H
$LN27@Destroy@2:
  00013	3b 75 0c	 cmp	 esi, DWORD PTR __Last$[ebp]
  00016	75 f1		 jne	 SHORT $LL9@Destroy@2
  00018	5e		 pop	 esi

; 1271 : 		}

  00019	5d		 pop	 ebp
  0001a	c2 08 00	 ret	 8
?_Destroy@?$vector@V?$vector@UColorText@ioMission@@V?$allocator@UColorText@ioMission@@@std@@@std@@V?$allocator@V?$vector@UColorText@ioMission@@V?$allocator@UColorText@ioMission@@@std@@@std@@@2@@std@@IAEXPAV?$vector@UColorText@ioMission@@V?$allocator@UColorText@ioMission@@@std@@@2@0@Z ENDP ; std::vector<std::vector<ioMission::ColorText,std::allocator<ioMission::ColorText> >,std::allocator<std::vector<ioMission::ColorText,std::allocator<ioMission::ColorText> > > >::_Destroy
_TEXT	ENDS
PUBLIC	??$_Ucopy@V?$_Vector_const_iterator@V?$_Vector_val@V?$vector@UColorText@ioMission@@V?$allocator@UColorText@ioMission@@@std@@@std@@V?$allocator@V?$vector@UColorText@ioMission@@V?$allocator@UColorText@ioMission@@@std@@@std@@@2@@std@@@std@@@?$vector@V?$vector@UColorText@ioMission@@V?$allocator@UColorText@ioMission@@@std@@@std@@V?$allocator@V?$vector@UColorText@ioMission@@V?$allocator@UColorText@ioMission@@@std@@@std@@@2@@std@@IAEPAV?$vector@UColorText@ioMission@@V?$allocator@UColorText@ioMission@@@std@@@1@V?$_Vector_const_iterator@V?$_Vector_val@V?$vector@UColorText@ioMission@@V?$allocator@UColorText@ioMission@@@std@@@std@@V?$allocator@V?$vector@UColorText@ioMission@@V?$allocator@UColorText@ioMission@@@std@@@std@@@2@@std@@@1@0PAV21@@Z ; std::vector<std::vector<ioMission::ColorText,std::allocator<ioMission::ColorText> >,std::allocator<std::vector<ioMission::ColorText,std::allocator<ioMission::ColorText> > > >::_Ucopy<std::_Vector_const_iterator<std::_Vector_val<std::vector<ioMission::ColorText,std::allocator<ioMission::ColorText> >,std::allocator<std::vector<ioMission::ColorText,std::allocator<ioMission::ColorText> > > > > >
; Function compile flags: /Ogsp
;	COMDAT ??$_Ucopy@V?$_Vector_const_iterator@V?$_Vector_val@V?$vector@UColorText@ioMission@@V?$allocator@UColorText@ioMission@@@std@@@std@@V?$allocator@V?$vector@UColorText@ioMission@@V?$allocator@UColorText@ioMission@@@std@@@std@@@2@@std@@@std@@@?$vector@V?$vector@UColorText@ioMission@@V?$allocator@UColorText@ioMission@@@std@@@std@@V?$allocator@V?$vector@UColorText@ioMission@@V?$allocator@UColorText@ioMission@@@std@@@std@@@2@@std@@IAEPAV?$vector@UColorText@ioMission@@V?$allocator@UColorText@ioMission@@@std@@@1@V?$_Vector_const_iterator@V?$_Vector_val@V?$vector@UColorText@ioMission@@V?$allocator@UColorText@ioMission@@@std@@@std@@V?$allocator@V?$vector@UColorText@ioMission@@V?$allocator@UColorText@ioMission@@@std@@@std@@@2@@std@@@1@0PAV21@@Z
_TEXT	SEGMENT
__First$ = 8						; size = 4
__Last$ = 12						; size = 4
__Cat$516922 = 16					; size = 1
__Ptr$ = 16						; size = 4
??$_Ucopy@V?$_Vector_const_iterator@V?$_Vector_val@V?$vector@UColorText@ioMission@@V?$allocator@UColorText@ioMission@@@std@@@std@@V?$allocator@V?$vector@UColorText@ioMission@@V?$allocator@UColorText@ioMission@@@std@@@std@@@2@@std@@@std@@@?$vector@V?$vector@UColorText@ioMission@@V?$allocator@UColorText@ioMission@@@std@@@std@@V?$allocator@V?$vector@UColorText@ioMission@@V?$allocator@UColorText@ioMission@@@std@@@std@@@2@@std@@IAEPAV?$vector@UColorText@ioMission@@V?$allocator@UColorText@ioMission@@@std@@@1@V?$_Vector_const_iterator@V?$_Vector_val@V?$vector@UColorText@ioMission@@V?$allocator@UColorText@ioMission@@@std@@@std@@V?$allocator@V?$vector@UColorText@ioMission@@V?$allocator@UColorText@ioMission@@@std@@@std@@@2@@std@@@1@0PAV21@@Z PROC ; std::vector<std::vector<ioMission::ColorText,std::allocator<ioMission::ColorText> >,std::allocator<std::vector<ioMission::ColorText,std::allocator<ioMission::ColorText> > > >::_Ucopy<std::_Vector_const_iterator<std::_Vector_val<std::vector<ioMission::ColorText,std::allocator<ioMission::ColorText> >,std::allocator<std::vector<ioMission::ColorText,std::allocator<ioMission::ColorText> > > > > >, COMDAT
; _this$ = ecx

; 1315 : 		pointer _Ucopy(_Iter _First, _Iter _Last, pointer _Ptr)

  00000	55		 push	 ebp
  00001	8b ec		 mov	 ebp, esp

; 1316 : 		{	// copy initializing [_First, _Last), using allocator
; 1317 : 		return (_Uninitialized_copy(_First, _Last,
; 1318 : 			_Ptr, this->_Alval));

  00003	ff 75 10	 push	 DWORD PTR __Cat$516922[ebp]
  00006	83 c1 0c	 add	 ecx, 12			; 0000000cH
  00009	51		 push	 ecx
  0000a	ff 75 10	 push	 DWORD PTR __Ptr$[ebp]
  0000d	ff 75 0c	 push	 DWORD PTR __Last$[ebp]
  00010	ff 75 08	 push	 DWORD PTR __First$[ebp]
  00013	e8 00 00 00 00	 call	 ??$_Uninit_copy@V?$_Vector_const_iterator@V?$_Vector_val@V?$vector@UColorText@ioMission@@V?$allocator@UColorText@ioMission@@@std@@@std@@V?$allocator@V?$vector@UColorText@ioMission@@V?$allocator@UColorText@ioMission@@@std@@@std@@@2@@std@@@std@@PAV?$vector@UColorText@ioMission@@V?$allocator@UColorText@ioMission@@@std@@@2@V?$allocator@V?$vector@UColorText@ioMission@@V?$allocator@UColorText@ioMission@@@std@@@std@@@2@@std@@YAPAV?$vector@UColorText@ioMission@@V?$allocator@UColorText@ioMission@@@std@@@0@V?$_Vector_const_iterator@V?$_Vector_val@V?$vector@UColorText@ioMission@@V?$allocator@UColorText@ioMission@@@std@@@std@@V?$allocator@V?$vector@UColorText@ioMission@@V?$allocator@UColorText@ioMission@@@std@@@std@@@2@@std@@@0@0PAV10@AAV?$allocator@V?$vector@UColorText@ioMission@@V?$allocator@UColorText@ioMission@@@std@@@std@@@0@U_Nonscalar_ptr_iterator_tag@0@@Z ; std::_Uninit_copy<std::_Vector_const_iterator<std::_Vector_val<std::vector<ioMission::ColorText,std::allocator<ioMission::ColorText> >,std::allocator<std::vector<ioMission::ColorText,std::allocator<ioMission::ColorText> > > > >,std::vector<ioMission::ColorText,std::allocator<ioMission::ColorText> > *,std::allocator<std::vector<ioMission::ColorText,std::allocator<ioMission::ColorText> > > >
  00018	83 c4 14	 add	 esp, 20			; 00000014H

; 1319 : 		}

  0001b	5d		 pop	 ebp
  0001c	c2 0c 00	 ret	 12			; 0000000cH
??$_Ucopy@V?$_Vector_const_iterator@V?$_Vector_val@V?$vector@UColorText@ioMission@@V?$allocator@UColorText@ioMission@@@std@@@std@@V?$allocator@V?$vector@UColorText@ioMission@@V?$allocator@UColorText@ioMission@@@std@@@std@@@2@@std@@@std@@@?$vector@V?$vector@UColorText@ioMission@@V?$allocator@UColorText@ioMission@@@std@@@std@@V?$allocator@V?$vector@UColorText@ioMission@@V?$allocator@UColorText@ioMission@@@std@@@std@@@2@@std@@IAEPAV?$vector@UColorText@ioMission@@V?$allocator@UColorText@ioMission@@@std@@@1@V?$_Vector_const_iterator@V?$_Vector_val@V?$vector@UColorText@ioMission@@V?$allocator@UColorText@ioMission@@@std@@@std@@V?$allocator@V?$vector@UColorText@ioMission@@V?$allocator@UColorText@ioMission@@@std@@@std@@@2@@std@@@1@0PAV21@@Z ENDP ; std::vector<std::vector<ioMission::ColorText,std::allocator<ioMission::ColorText> >,std::allocator<std::vector<ioMission::ColorText,std::allocator<ioMission::ColorText> > > >::_Ucopy<std::_Vector_const_iterator<std::_Vector_val<std::vector<ioMission::ColorText,std::allocator<ioMission::ColorText> >,std::allocator<std::vector<ioMission::ColorText,std::allocator<ioMission::ColorText> > > > > >
_TEXT	ENDS
PUBLIC	??$_Uninitialized_move@PAV?$vector@UColorText@ioMission@@V?$allocator@UColorText@ioMission@@@std@@@std@@PAV12@V?$allocator@V?$vector@UColorText@ioMission@@V?$allocator@UColorText@ioMission@@@std@@@std@@@2@@std@@YAPAV?$vector@UColorText@ioMission@@V?$allocator@UColorText@ioMission@@@std@@@0@PAV10@00AAV?$allocator@V?$vector@UColorText@ioMission@@V?$allocator@UColorText@ioMission@@@std@@@std@@@0@@Z ; std::_Uninitialized_move<std::vector<ioMission::ColorText,std::allocator<ioMission::ColorText> > *,std::vector<ioMission::ColorText,std::allocator<ioMission::ColorText> > *,std::allocator<std::vector<ioMission::ColorText,std::allocator<ioMission::ColorText> > > >
; Function compile flags: /Ogsp
; File c:\program files (x86)\microsoft visual studio 10.0\vc\include\memory
;	COMDAT ??$_Uninitialized_move@PAV?$vector@UColorText@ioMission@@V?$allocator@UColorText@ioMission@@@std@@@std@@PAV12@V?$allocator@V?$vector@UColorText@ioMission@@V?$allocator@UColorText@ioMission@@@std@@@std@@@2@@std@@YAPAV?$vector@UColorText@ioMission@@V?$allocator@UColorText@ioMission@@@std@@@0@PAV10@00AAV?$allocator@V?$vector@UColorText@ioMission@@V?$allocator@UColorText@ioMission@@@std@@@std@@@0@@Z
_TEXT	SEGMENT
__Cat$516931 = -4					; size = 1
__First$ = 8						; size = 4
__Last$ = 12						; size = 4
__Dest$ = 16						; size = 4
__Al$ = 20						; size = 4
??$_Uninitialized_move@PAV?$vector@UColorText@ioMission@@V?$allocator@UColorText@ioMission@@@std@@@std@@PAV12@V?$allocator@V?$vector@UColorText@ioMission@@V?$allocator@UColorText@ioMission@@@std@@@std@@@2@@std@@YAPAV?$vector@UColorText@ioMission@@V?$allocator@UColorText@ioMission@@@std@@@0@PAV10@00AAV?$allocator@V?$vector@UColorText@ioMission@@V?$allocator@UColorText@ioMission@@@std@@@std@@@0@@Z PROC ; std::_Uninitialized_move<std::vector<ioMission::ColorText,std::allocator<ioMission::ColorText> > *,std::vector<ioMission::ColorText,std::allocator<ioMission::ColorText> > *,std::allocator<std::vector<ioMission::ColorText,std::allocator<ioMission::ColorText> > > >, COMDAT

; 469  : 	{	// move [_First, _Last) to raw _Dest, using _Al

  00000	55		 push	 ebp
  00001	8b ec		 mov	 ebp, esp
  00003	51		 push	 ecx

; 470  : 	return (_Uninit_move(_First, _Last, _Dest, _Al,
; 471  : 		_Val_type(_First), _Ptr_cat(_First, _Dest)));

  00004	ff 75 fc	 push	 DWORD PTR __Cat$516931[ebp]
  00007	6a 00		 push	 0
  00009	ff 75 14	 push	 DWORD PTR __Al$[ebp]
  0000c	ff 75 10	 push	 DWORD PTR __Dest$[ebp]
  0000f	ff 75 0c	 push	 DWORD PTR __Last$[ebp]
  00012	ff 75 08	 push	 DWORD PTR __First$[ebp]
  00015	e8 00 00 00 00	 call	 ??$_Uninit_move@PAV?$vector@UColorText@ioMission@@V?$allocator@UColorText@ioMission@@@std@@@std@@PAV12@V?$allocator@V?$vector@UColorText@ioMission@@V?$allocator@UColorText@ioMission@@@std@@@std@@@2@V12@@std@@YAPAV?$vector@UColorText@ioMission@@V?$allocator@UColorText@ioMission@@@std@@@0@PAV10@00AAV?$allocator@V?$vector@UColorText@ioMission@@V?$allocator@UColorText@ioMission@@@std@@@std@@@0@0U_Nonscalar_ptr_iterator_tag@0@@Z ; std::_Uninit_move<std::vector<ioMission::ColorText,std::allocator<ioMission::ColorText> > *,std::vector<ioMission::ColorText,std::allocator<ioMission::ColorText> > *,std::allocator<std::vector<ioMission::ColorText,std::allocator<ioMission::ColorText> > >,std::vector<ioMission::ColorText,std::allocator<ioMission::ColorText> > >
  0001a	83 c4 18	 add	 esp, 24			; 00000018H

; 472  : 	}

  0001d	c9		 leave
  0001e	c3		 ret	 0
??$_Uninitialized_move@PAV?$vector@UColorText@ioMission@@V?$allocator@UColorText@ioMission@@@std@@@std@@PAV12@V?$allocator@V?$vector@UColorText@ioMission@@V?$allocator@UColorText@ioMission@@@std@@@std@@@2@@std@@YAPAV?$vector@UColorText@ioMission@@V?$allocator@UColorText@ioMission@@@std@@@0@PAV10@00AAV?$allocator@V?$vector@UColorText@ioMission@@V?$allocator@UColorText@ioMission@@@std@@@std@@@0@@Z ENDP ; std::_Uninitialized_move<std::vector<ioMission::ColorText,std::allocator<ioMission::ColorText> > *,std::vector<ioMission::ColorText,std::allocator<ioMission::ColorText> > *,std::allocator<std::vector<ioMission::ColorText,std::allocator<ioMission::ColorText> > > >
_TEXT	ENDS
PUBLIC	?_Tidy@?$vector@V?$vector@UColorText@ioMission@@V?$allocator@UColorText@ioMission@@@std@@@std@@V?$allocator@V?$vector@UColorText@ioMission@@V?$allocator@UColorText@ioMission@@@std@@@std@@@2@@std@@IAEXXZ ; std::vector<std::vector<ioMission::ColorText,std::allocator<ioMission::ColorText> >,std::allocator<std::vector<ioMission::ColorText,std::allocator<ioMission::ColorText> > > >::_Tidy
; Function compile flags: /Ogsp
; File c:\program files (x86)\microsoft visual studio 10.0\vc\include\vector
;	COMDAT ?_Tidy@?$vector@V?$vector@UColorText@ioMission@@V?$allocator@UColorText@ioMission@@@std@@@std@@V?$allocator@V?$vector@UColorText@ioMission@@V?$allocator@UColorText@ioMission@@@std@@@std@@@2@@std@@IAEXXZ
_TEXT	SEGMENT
?_Tidy@?$vector@V?$vector@UColorText@ioMission@@V?$allocator@UColorText@ioMission@@@std@@@std@@V?$allocator@V?$vector@UColorText@ioMission@@V?$allocator@UColorText@ioMission@@@std@@@std@@@2@@std@@IAEXXZ PROC ; std::vector<std::vector<ioMission::ColorText,std::allocator<ioMission::ColorText> >,std::allocator<std::vector<ioMission::ColorText,std::allocator<ioMission::ColorText> > > >::_Tidy, COMDAT
; _this$ = ecx

; 1301 : 		{	// free all storage

  00000	56		 push	 esi
  00001	8b f1		 mov	 esi, ecx

; 1302 : 		if (this->_Myfirst != 0)

  00003	83 3e 00	 cmp	 DWORD PTR [esi], 0
  00006	74 27		 je	 SHORT $LN28@Tidy@5

; 1303 : 			{	// something to free, destroy and deallocate it
; 1304 : 			this->_Orphan_all();

  00008	53		 push	 ebx
  00009	57		 push	 edi
  0000a	ff 15 00 00 00
	00		 call	 DWORD PTR __imp_?_Orphan_all@_Container_base0@std@@QAEXXZ

; 1305 : 			_Destroy(this->_Myfirst, this->_Mylast);

  00010	8b 5e 04	 mov	 ebx, DWORD PTR [esi+4]
  00013	8b 3e		 mov	 edi, DWORD PTR [esi]
  00015	eb 0a		 jmp	 SHORT $LN32@Tidy@5
$LL12@Tidy@5:
  00017	8b cf		 mov	 ecx, edi
  00019	e8 00 00 00 00	 call	 ?_Tidy@?$vector@UColorText@ioMission@@V?$allocator@UColorText@ioMission@@@std@@@std@@IAEXXZ ; std::vector<ioMission::ColorText,std::allocator<ioMission::ColorText> >::_Tidy
  0001e	83 c7 10	 add	 edi, 16			; 00000010H
$LN32@Tidy@5:
  00021	3b fb		 cmp	 edi, ebx
  00023	75 f2		 jne	 SHORT $LL12@Tidy@5

; 1306 : 			this->_Alval.deallocate(this->_Myfirst,
; 1307 : 				this->_Myend - this->_Myfirst);

  00025	ff 36		 push	 DWORD PTR [esi]
  00027	e8 00 00 00 00	 call	 ??3@YAXPAX@Z		; operator delete
  0002c	59		 pop	 ecx
  0002d	5f		 pop	 edi
  0002e	5b		 pop	 ebx
$LN28@Tidy@5:

; 1308 : 			}
; 1309 : 		this->_Myfirst = 0;

  0002f	33 c0		 xor	 eax, eax
  00031	89 06		 mov	 DWORD PTR [esi], eax

; 1310 : 		this->_Mylast = 0;

  00033	89 46 04	 mov	 DWORD PTR [esi+4], eax

; 1311 : 		this->_Myend = 0;

  00036	89 46 08	 mov	 DWORD PTR [esi+8], eax
  00039	5e		 pop	 esi

; 1312 : 		}

  0003a	c3		 ret	 0
?_Tidy@?$vector@V?$vector@UColorText@ioMission@@V?$allocator@UColorText@ioMission@@@std@@@std@@V?$allocator@V?$vector@UColorText@ioMission@@V?$allocator@UColorText@ioMission@@@std@@@std@@@2@@std@@IAEXXZ ENDP ; std::vector<std::vector<ioMission::ColorText,std::allocator<ioMission::ColorText> >,std::allocator<std::vector<ioMission::ColorText,std::allocator<ioMission::ColorText> > > >::_Tidy
_TEXT	ENDS
PUBLIC	??$_Umove@PAV?$vector@UColorText@ioMission@@V?$allocator@UColorText@ioMission@@@std@@@std@@@?$vector@V?$vector@UColorText@ioMission@@V?$allocator@UColorText@ioMission@@@std@@@std@@V?$allocator@V?$vector@UColorText@ioMission@@V?$allocator@UColorText@ioMission@@@std@@@std@@@2@@std@@IAEPAV?$vector@UColorText@ioMission@@V?$allocator@UColorText@ioMission@@@std@@@1@PAV21@00@Z ; std::vector<std::vector<ioMission::ColorText,std::allocator<ioMission::ColorText> >,std::allocator<std::vector<ioMission::ColorText,std::allocator<ioMission::ColorText> > > >::_Umove<std::vector<ioMission::ColorText,std::allocator<ioMission::ColorText> > *>
; Function compile flags: /Ogsp
;	COMDAT ??$_Umove@PAV?$vector@UColorText@ioMission@@V?$allocator@UColorText@ioMission@@@std@@@std@@@?$vector@V?$vector@UColorText@ioMission@@V?$allocator@UColorText@ioMission@@@std@@@std@@V?$allocator@V?$vector@UColorText@ioMission@@V?$allocator@UColorText@ioMission@@@std@@@std@@@2@@std@@IAEPAV?$vector@UColorText@ioMission@@V?$allocator@UColorText@ioMission@@@std@@@1@PAV21@00@Z
_TEXT	SEGMENT
__First$ = 8						; size = 4
__Last$ = 12						; size = 4
__Ptr$ = 16						; size = 4
??$_Umove@PAV?$vector@UColorText@ioMission@@V?$allocator@UColorText@ioMission@@@std@@@std@@@?$vector@V?$vector@UColorText@ioMission@@V?$allocator@UColorText@ioMission@@@std@@@std@@V?$allocator@V?$vector@UColorText@ioMission@@V?$allocator@UColorText@ioMission@@@std@@@std@@@2@@std@@IAEPAV?$vector@UColorText@ioMission@@V?$allocator@UColorText@ioMission@@@std@@@1@PAV21@00@Z PROC ; std::vector<std::vector<ioMission::ColorText,std::allocator<ioMission::ColorText> >,std::allocator<std::vector<ioMission::ColorText,std::allocator<ioMission::ColorText> > > >::_Umove<std::vector<ioMission::ColorText,std::allocator<ioMission::ColorText> > *>, COMDAT
; _this$ = ecx

; 1322 : 		pointer _Umove(_Iter _First, _Iter _Last, pointer _Ptr)

  00000	55		 push	 ebp
  00001	8b ec		 mov	 ebp, esp

; 1323 : 		{	// move initializing [_First, _Last), using allocator
; 1324 : 		return (_Uninitialized_move(_First, _Last,
; 1325 : 			_Ptr, this->_Alval));

  00003	83 c1 0c	 add	 ecx, 12			; 0000000cH
  00006	51		 push	 ecx
  00007	ff 75 10	 push	 DWORD PTR __Ptr$[ebp]
  0000a	ff 75 0c	 push	 DWORD PTR __Last$[ebp]
  0000d	ff 75 08	 push	 DWORD PTR __First$[ebp]
  00010	e8 00 00 00 00	 call	 ??$_Uninitialized_move@PAV?$vector@UColorText@ioMission@@V?$allocator@UColorText@ioMission@@@std@@@std@@PAV12@V?$allocator@V?$vector@UColorText@ioMission@@V?$allocator@UColorText@ioMission@@@std@@@std@@@2@@std@@YAPAV?$vector@UColorText@ioMission@@V?$allocator@UColorText@ioMission@@@std@@@0@PAV10@00AAV?$allocator@V?$vector@UColorText@ioMission@@V?$allocator@UColorText@ioMission@@@std@@@std@@@0@@Z ; std::_Uninitialized_move<std::vector<ioMission::ColorText,std::allocator<ioMission::ColorText> > *,std::vector<ioMission::ColorText,std::allocator<ioMission::ColorText> > *,std::allocator<std::vector<ioMission::ColorText,std::allocator<ioMission::ColorText> > > >
  00015	83 c4 10	 add	 esp, 16			; 00000010H

; 1326 : 		}

  00018	5d		 pop	 ebp
  00019	c2 0c 00	 ret	 12			; 0000000cH
??$_Umove@PAV?$vector@UColorText@ioMission@@V?$allocator@UColorText@ioMission@@@std@@@std@@@?$vector@V?$vector@UColorText@ioMission@@V?$allocator@UColorText@ioMission@@@std@@@std@@V?$allocator@V?$vector@UColorText@ioMission@@V?$allocator@UColorText@ioMission@@@std@@@std@@@2@@std@@IAEPAV?$vector@UColorText@ioMission@@V?$allocator@UColorText@ioMission@@@std@@@1@PAV21@00@Z ENDP ; std::vector<std::vector<ioMission::ColorText,std::allocator<ioMission::ColorText> >,std::allocator<std::vector<ioMission::ColorText,std::allocator<ioMission::ColorText> > > >::_Umove<std::vector<ioMission::ColorText,std::allocator<ioMission::ColorText> > *>
_TEXT	ENDS
PUBLIC	??0?$vector@V?$vector@UColorText@ioMission@@V?$allocator@UColorText@ioMission@@@std@@@std@@V?$allocator@V?$vector@UColorText@ioMission@@V?$allocator@UColorText@ioMission@@@std@@@std@@@2@@std@@QAE@ABV01@@Z ; std::vector<std::vector<ioMission::ColorText,std::allocator<ioMission::ColorText> >,std::allocator<std::vector<ioMission::ColorText,std::allocator<ioMission::ColorText> > > >::vector<std::vector<ioMission::ColorText,std::allocator<ioMission::ColorText> >,std::allocator<std::vector<ioMission::ColorText,std::allocator<ioMission::ColorText> > > >
;	COMDAT xdata$x
; File c:\program files (x86)\microsoft visual studio 10.0\vc\include\xutility
xdata$x	SEGMENT
__catchsym$??0?$vector@V?$vector@UColorText@ioMission@@V?$allocator@UColorText@ioMission@@@std@@@std@@V?$allocator@V?$vector@UColorText@ioMission@@V?$allocator@UColorText@ioMission@@@std@@@std@@@2@@std@@QAE@ABV01@@Z$2 DD 040H
	DD	00H
	DD	00H
	DD	FLAT:__catch$??0?$vector@V?$vector@UColorText@ioMission@@V?$allocator@UColorText@ioMission@@@std@@@std@@V?$allocator@V?$vector@UColorText@ioMission@@V?$allocator@UColorText@ioMission@@@std@@@std@@@2@@std@@QAE@ABV01@@Z$0
__unwindtable$??0?$vector@V?$vector@UColorText@ioMission@@V?$allocator@UColorText@ioMission@@@std@@@std@@V?$allocator@V?$vector@UColorText@ioMission@@V?$allocator@UColorText@ioMission@@@std@@@std@@@2@@std@@QAE@ABV01@@Z DD 0ffffffffH
	DD	00H
	DD	0ffffffffH
	DD	00H
__tryblocktable$??0?$vector@V?$vector@UColorText@ioMission@@V?$allocator@UColorText@ioMission@@@std@@@std@@V?$allocator@V?$vector@UColorText@ioMission@@V?$allocator@UColorText@ioMission@@@std@@@std@@@2@@std@@QAE@ABV01@@Z DD 00H
	DD	00H
	DD	01H
	DD	01H
	DD	FLAT:__catchsym$??0?$vector@V?$vector@UColorText@ioMission@@V?$allocator@UColorText@ioMission@@@std@@@std@@V?$allocator@V?$vector@UColorText@ioMission@@V?$allocator@UColorText@ioMission@@@std@@@std@@@2@@std@@QAE@ABV01@@Z$2
__ehfuncinfo$??0?$vector@V?$vector@UColorText@ioMission@@V?$allocator@UColorText@ioMission@@@std@@@std@@V?$allocator@V?$vector@UColorText@ioMission@@V?$allocator@UColorText@ioMission@@@std@@@std@@@2@@std@@QAE@ABV01@@Z DD 019930522H
	DD	02H
	DD	FLAT:__unwindtable$??0?$vector@V?$vector@UColorText@ioMission@@V?$allocator@UColorText@ioMission@@@std@@@std@@V?$allocator@V?$vector@UColorText@ioMission@@V?$allocator@UColorText@ioMission@@@std@@@std@@@2@@std@@QAE@ABV01@@Z
	DD	01H
	DD	FLAT:__tryblocktable$??0?$vector@V?$vector@UColorText@ioMission@@V?$allocator@UColorText@ioMission@@@std@@@std@@V?$allocator@V?$vector@UColorText@ioMission@@V?$allocator@UColorText@ioMission@@@std@@@std@@@2@@std@@QAE@ABV01@@Z
	DD	2 DUP(00H)
	DD	00H
	DD	01H
; Function compile flags: /Ogsp
; File c:\program files (x86)\microsoft visual studio 10.0\vc\include\vector
xdata$x	ENDS
;	COMDAT ??0?$vector@V?$vector@UColorText@ioMission@@V?$allocator@UColorText@ioMission@@@std@@@std@@V?$allocator@V?$vector@UColorText@ioMission@@V?$allocator@UColorText@ioMission@@@std@@@std@@@2@@std@@QAE@ABV01@@Z
_TEXT	SEGMENT
_this$ = -20						; size = 4
__$EHRec$ = -16						; size = 16
__Cat$517158 = 8					; size = 1
__Right$ = 8						; size = 4
??0?$vector@V?$vector@UColorText@ioMission@@V?$allocator@UColorText@ioMission@@@std@@@std@@V?$allocator@V?$vector@UColorText@ioMission@@V?$allocator@UColorText@ioMission@@@std@@@std@@@2@@std@@QAE@ABV01@@Z PROC ; std::vector<std::vector<ioMission::ColorText,std::allocator<ioMission::ColorText> >,std::allocator<std::vector<ioMission::ColorText,std::allocator<ioMission::ColorText> > > >::vector<std::vector<ioMission::ColorText,std::allocator<ioMission::ColorText> >,std::allocator<std::vector<ioMission::ColorText,std::allocator<ioMission::ColorText> > > >, COMDAT
; _this$ = ecx

; 535  : 		{	// construct by copying _Right

  00000	6a 08		 push	 8
  00002	b8 00 00 00 00	 mov	 eax, __ehhandler$??0?$vector@V?$vector@UColorText@ioMission@@V?$allocator@UColorText@ioMission@@@std@@@std@@V?$allocator@V?$vector@UColorText@ioMission@@V?$allocator@UColorText@ioMission@@@std@@@std@@@2@@std@@QAE@ABV01@@Z
  00007	e8 00 00 00 00	 call	 __EH_prolog3_catch
  0000c	8b f1		 mov	 esi, ecx
  0000e	89 75 ec	 mov	 DWORD PTR _this$[ebp], esi

; 536  : 		if (_Buy(_Right.size()))

  00011	8b 7d 08	 mov	 edi, DWORD PTR __Right$[ebp]
  00014	33 db		 xor	 ebx, ebx
  00016	89 1e		 mov	 DWORD PTR [esi], ebx
  00018	89 5e 04	 mov	 DWORD PTR [esi+4], ebx
  0001b	89 5e 08	 mov	 DWORD PTR [esi+8], ebx
  0001e	8b 47 04	 mov	 eax, DWORD PTR [edi+4]
  00021	2b 07		 sub	 eax, DWORD PTR [edi]
  00023	c1 f8 04	 sar	 eax, 4
  00026	50		 push	 eax
  00027	e8 00 00 00 00	 call	 ?_Buy@?$vector@V?$vector@UColorText@ioMission@@V?$allocator@UColorText@ioMission@@@std@@@std@@V?$allocator@V?$vector@UColorText@ioMission@@V?$allocator@UColorText@ioMission@@@std@@@std@@@2@@std@@IAE_NI@Z ; std::vector<std::vector<ioMission::ColorText,std::allocator<ioMission::ColorText> >,std::allocator<std::vector<ioMission::ColorText,std::allocator<ioMission::ColorText> > > >::_Buy
  0002c	84 c0		 test	 al, al
  0002e	74 1f		 je	 SHORT $LN7@vector@4

; 537  : 			_TRY_BEGIN
; 538  : 			this->_Mylast = _Ucopy(_Right.begin(), _Right.end(),
; 539  : 				this->_Myfirst);

  00030	ff 75 08	 push	 DWORD PTR __Cat$517158[ebp]
  00033	8b 0e		 mov	 ecx, DWORD PTR [esi]
  00035	8b 47 04	 mov	 eax, DWORD PTR [edi+4]
  00038	8b 3f		 mov	 edi, DWORD PTR [edi]
  0003a	8d 56 0c	 lea	 edx, DWORD PTR [esi+12]
  0003d	52		 push	 edx
  0003e	51		 push	 ecx
  0003f	50		 push	 eax
  00040	57		 push	 edi
  00041	89 5d fc	 mov	 DWORD PTR __$EHRec$[ebp+12], ebx
  00044	e8 00 00 00 00	 call	 ??$_Uninit_copy@V?$_Vector_const_iterator@V?$_Vector_val@V?$vector@UColorText@ioMission@@V?$allocator@UColorText@ioMission@@@std@@@std@@V?$allocator@V?$vector@UColorText@ioMission@@V?$allocator@UColorText@ioMission@@@std@@@std@@@2@@std@@@std@@PAV?$vector@UColorText@ioMission@@V?$allocator@UColorText@ioMission@@@std@@@2@V?$allocator@V?$vector@UColorText@ioMission@@V?$allocator@UColorText@ioMission@@@std@@@std@@@2@@std@@YAPAV?$vector@UColorText@ioMission@@V?$allocator@UColorText@ioMission@@@std@@@0@V?$_Vector_const_iterator@V?$_Vector_val@V?$vector@UColorText@ioMission@@V?$allocator@UColorText@ioMission@@@std@@@std@@V?$allocator@V?$vector@UColorText@ioMission@@V?$allocator@UColorText@ioMission@@@std@@@std@@@2@@std@@@0@0PAV10@AAV?$allocator@V?$vector@UColorText@ioMission@@V?$allocator@UColorText@ioMission@@@std@@@std@@@0@U_Nonscalar_ptr_iterator_tag@0@@Z ; std::_Uninit_copy<std::_Vector_const_iterator<std::_Vector_val<std::vector<ioMission::ColorText,std::allocator<ioMission::ColorText> >,std::allocator<std::vector<ioMission::ColorText,std::allocator<ioMission::ColorText> > > > >,std::vector<ioMission::ColorText,std::allocator<ioMission::ColorText> > *,std::allocator<std::vector<ioMission::ColorText,std::allocator<ioMission::ColorText> > > >
  00049	83 c4 14	 add	 esp, 20			; 00000014H
  0004c	89 46 04	 mov	 DWORD PTR [esi+4], eax
$LN7@vector@4:

; 543  : 			_CATCH_END
; 544  : 		}

  0004f	8b c6		 mov	 eax, esi
  00051	e8 00 00 00 00	 call	 __EH_epilog3
  00056	c2 04 00	 ret	 4
__catch$??0?$vector@V?$vector@UColorText@ioMission@@V?$allocator@UColorText@ioMission@@@std@@@std@@V?$allocator@V?$vector@UColorText@ioMission@@V?$allocator@UColorText@ioMission@@@std@@@std@@@2@@std@@QAE@ABV01@@Z$0:

; 540  : 			_CATCH_ALL
; 541  : 			_Tidy();

  00059	8b 4d ec	 mov	 ecx, DWORD PTR _this$[ebp]
  0005c	e8 00 00 00 00	 call	 ?_Tidy@?$vector@V?$vector@UColorText@ioMission@@V?$allocator@UColorText@ioMission@@@std@@@std@@V?$allocator@V?$vector@UColorText@ioMission@@V?$allocator@UColorText@ioMission@@@std@@@std@@@2@@std@@IAEXXZ ; std::vector<std::vector<ioMission::ColorText,std::allocator<ioMission::ColorText> >,std::allocator<std::vector<ioMission::ColorText,std::allocator<ioMission::ColorText> > > >::_Tidy

; 542  : 			_RERAISE;

  00061	33 db		 xor	 ebx, ebx
  00063	53		 push	 ebx
  00064	53		 push	 ebx
  00065	e8 00 00 00 00	 call	 __CxxThrowException@8
$LN38@vector@4:
$LN37@vector@4:
  0006a	cc		 int	 3
_TEXT	ENDS
;	COMDAT text$x
text$x	SEGMENT
__ehhandler$??0?$vector@V?$vector@UColorText@ioMission@@V?$allocator@UColorText@ioMission@@@std@@@std@@V?$allocator@V?$vector@UColorText@ioMission@@V?$allocator@UColorText@ioMission@@@std@@@std@@@2@@std@@QAE@ABV01@@Z:
  00000	8b 54 24 08	 mov	 edx, DWORD PTR [esp+8]
  00004	8d 42 0c	 lea	 eax, DWORD PTR [edx+12]
  00007	8b 4a e8	 mov	 ecx, DWORD PTR [edx-24]
  0000a	33 c8		 xor	 ecx, eax
  0000c	e8 00 00 00 00	 call	 @__security_check_cookie@4
  00011	b8 00 00 00 00	 mov	 eax, OFFSET __ehfuncinfo$??0?$vector@V?$vector@UColorText@ioMission@@V?$allocator@UColorText@ioMission@@@std@@@std@@V?$allocator@V?$vector@UColorText@ioMission@@V?$allocator@UColorText@ioMission@@@std@@@std@@@2@@std@@QAE@ABV01@@Z
  00016	e9 00 00 00 00	 jmp	 ___CxxFrameHandler3
text$x	ENDS
??0?$vector@V?$vector@UColorText@ioMission@@V?$allocator@UColorText@ioMission@@@std@@@std@@V?$allocator@V?$vector@UColorText@ioMission@@V?$allocator@UColorText@ioMission@@@std@@@std@@@2@@std@@QAE@ABV01@@Z ENDP ; std::vector<std::vector<ioMission::ColorText,std::allocator<ioMission::ColorText> >,std::allocator<std::vector<ioMission::ColorText,std::allocator<ioMission::ColorText> > > >::vector<std::vector<ioMission::ColorText,std::allocator<ioMission::ColorText> >,std::allocator<std::vector<ioMission::ColorText,std::allocator<ioMission::ColorText> > > >
PUBLIC	??1?$vector@V?$vector@UColorText@ioMission@@V?$allocator@UColorText@ioMission@@@std@@@std@@V?$allocator@V?$vector@UColorText@ioMission@@V?$allocator@UColorText@ioMission@@@std@@@std@@@2@@std@@QAE@XZ ; std::vector<std::vector<ioMission::ColorText,std::allocator<ioMission::ColorText> >,std::allocator<std::vector<ioMission::ColorText,std::allocator<ioMission::ColorText> > > >::~vector<std::vector<ioMission::ColorText,std::allocator<ioMission::ColorText> >,std::allocator<std::vector<ioMission::ColorText,std::allocator<ioMission::ColorText> > > >
; Function compile flags: /Ogsp
;	COMDAT ??1?$vector@V?$vector@UColorText@ioMission@@V?$allocator@UColorText@ioMission@@@std@@@std@@V?$allocator@V?$vector@UColorText@ioMission@@V?$allocator@UColorText@ioMission@@@std@@@std@@@2@@std@@QAE@XZ
_TEXT	SEGMENT
??1?$vector@V?$vector@UColorText@ioMission@@V?$allocator@UColorText@ioMission@@@std@@@std@@V?$allocator@V?$vector@UColorText@ioMission@@V?$allocator@UColorText@ioMission@@@std@@@std@@@2@@std@@QAE@XZ PROC ; std::vector<std::vector<ioMission::ColorText,std::allocator<ioMission::ColorText> >,std::allocator<std::vector<ioMission::ColorText,std::allocator<ioMission::ColorText> > > >::~vector<std::vector<ioMission::ColorText,std::allocator<ioMission::ColorText> >,std::allocator<std::vector<ioMission::ColorText,std::allocator<ioMission::ColorText> > > >, COMDAT
; _this$ = ecx

; 705  : 		_Tidy();

  00000	e9 00 00 00 00	 jmp	 ?_Tidy@?$vector@V?$vector@UColorText@ioMission@@V?$allocator@UColorText@ioMission@@@std@@@std@@V?$allocator@V?$vector@UColorText@ioMission@@V?$allocator@UColorText@ioMission@@@std@@@std@@@2@@std@@IAEXXZ ; std::vector<std::vector<ioMission::ColorText,std::allocator<ioMission::ColorText> >,std::allocator<std::vector<ioMission::ColorText,std::allocator<ioMission::ColorText> > > >::_Tidy
??1?$vector@V?$vector@UColorText@ioMission@@V?$allocator@UColorText@ioMission@@@std@@@std@@V?$allocator@V?$vector@UColorText@ioMission@@V?$allocator@UColorText@ioMission@@@std@@@std@@@2@@std@@QAE@XZ ENDP ; std::vector<std::vector<ioMission::ColorText,std::allocator<ioMission::ColorText> >,std::allocator<std::vector<ioMission::ColorText,std::allocator<ioMission::ColorText> > > >::~vector<std::vector<ioMission::ColorText,std::allocator<ioMission::ColorText> >,std::allocator<std::vector<ioMission::ColorText,std::allocator<ioMission::ColorText> > > >
_TEXT	ENDS
PUBLIC	?reserve@?$vector@V?$vector@UColorText@ioMission@@V?$allocator@UColorText@ioMission@@@std@@@std@@V?$allocator@V?$vector@UColorText@ioMission@@V?$allocator@UColorText@ioMission@@@std@@@std@@@2@@std@@QAEXI@Z ; std::vector<std::vector<ioMission::ColorText,std::allocator<ioMission::ColorText> >,std::allocator<std::vector<ioMission::ColorText,std::allocator<ioMission::ColorText> > > >::reserve
;	COMDAT xdata$x
; File c:\program files (x86)\microsoft visual studio 10.0\vc\include\xmemory
xdata$x	SEGMENT
__catchsym$?reserve@?$vector@V?$vector@UColorText@ioMission@@V?$allocator@UColorText@ioMission@@@std@@@std@@V?$allocator@V?$vector@UColorText@ioMission@@V?$allocator@UColorText@ioMission@@@std@@@std@@@2@@std@@QAEXI@Z$2 DD 040H
	DD	00H
	DD	00H
	DD	FLAT:__catch$?reserve@?$vector@V?$vector@UColorText@ioMission@@V?$allocator@UColorText@ioMission@@@std@@@std@@V?$allocator@V?$vector@UColorText@ioMission@@V?$allocator@UColorText@ioMission@@@std@@@std@@@2@@std@@QAEXI@Z$0
__unwindtable$?reserve@?$vector@V?$vector@UColorText@ioMission@@V?$allocator@UColorText@ioMission@@@std@@@std@@V?$allocator@V?$vector@UColorText@ioMission@@V?$allocator@UColorText@ioMission@@@std@@@std@@@2@@std@@QAEXI@Z DD 0ffffffffH
	DD	00H
	DD	0ffffffffH
	DD	00H
__tryblocktable$?reserve@?$vector@V?$vector@UColorText@ioMission@@V?$allocator@UColorText@ioMission@@@std@@@std@@V?$allocator@V?$vector@UColorText@ioMission@@V?$allocator@UColorText@ioMission@@@std@@@std@@@2@@std@@QAEXI@Z DD 00H
	DD	00H
	DD	01H
	DD	01H
	DD	FLAT:__catchsym$?reserve@?$vector@V?$vector@UColorText@ioMission@@V?$allocator@UColorText@ioMission@@@std@@@std@@V?$allocator@V?$vector@UColorText@ioMission@@V?$allocator@UColorText@ioMission@@@std@@@std@@@2@@std@@QAEXI@Z$2
__ehfuncinfo$?reserve@?$vector@V?$vector@UColorText@ioMission@@V?$allocator@UColorText@ioMission@@@std@@@std@@V?$allocator@V?$vector@UColorText@ioMission@@V?$allocator@UColorText@ioMission@@@std@@@std@@@2@@std@@QAEXI@Z DD 019930522H
	DD	02H
	DD	FLAT:__unwindtable$?reserve@?$vector@V?$vector@UColorText@ioMission@@V?$allocator@UColorText@ioMission@@@std@@@std@@V?$allocator@V?$vector@UColorText@ioMission@@V?$allocator@UColorText@ioMission@@@std@@@std@@@2@@std@@QAEXI@Z
	DD	01H
	DD	FLAT:__tryblocktable$?reserve@?$vector@V?$vector@UColorText@ioMission@@V?$allocator@UColorText@ioMission@@@std@@@std@@V?$allocator@V?$vector@UColorText@ioMission@@V?$allocator@UColorText@ioMission@@@std@@@std@@@2@@std@@QAEXI@Z
	DD	2 DUP(00H)
	DD	00H
	DD	01H
; Function compile flags: /Ogsp
; File c:\program files (x86)\microsoft visual studio 10.0\vc\include\vector
xdata$x	ENDS
;	COMDAT ?reserve@?$vector@V?$vector@UColorText@ioMission@@V?$allocator@UColorText@ioMission@@@std@@@std@@V?$allocator@V?$vector@UColorText@ioMission@@V?$allocator@UColorText@ioMission@@@std@@@std@@@2@@std@@QAEXI@Z
_TEXT	SEGMENT
tv300 = -24						; size = 4
__Ptr$509382 = -20					; size = 4
__$EHRec$ = -16						; size = 16
$T517303 = 8						; size = 4
__Count$ = 8						; size = 4
?reserve@?$vector@V?$vector@UColorText@ioMission@@V?$allocator@UColorText@ioMission@@@std@@@std@@V?$allocator@V?$vector@UColorText@ioMission@@V?$allocator@UColorText@ioMission@@@std@@@std@@@2@@std@@QAEXI@Z PROC ; std::vector<std::vector<ioMission::ColorText,std::allocator<ioMission::ColorText> >,std::allocator<std::vector<ioMission::ColorText,std::allocator<ioMission::ColorText> > > >::reserve, COMDAT
; _this$ = ecx

; 746  : 		{	// determine new minimum length of allocated storage

  00000	6a 0c		 push	 12			; 0000000cH
  00002	b8 00 00 00 00	 mov	 eax, __ehhandler$?reserve@?$vector@V?$vector@UColorText@ioMission@@V?$allocator@UColorText@ioMission@@@std@@@std@@V?$allocator@V?$vector@UColorText@ioMission@@V?$allocator@UColorText@ioMission@@@std@@@std@@@2@@std@@QAEXI@Z
  00007	e8 00 00 00 00	 call	 __EH_prolog3_catch
  0000c	8b f1		 mov	 esi, ecx

; 747  : 		if (max_size() < _Count)

  0000e	8b 5d 08	 mov	 ebx, DWORD PTR __Count$[ebp]
  00011	81 fb ff ff ff
	0f		 cmp	 ebx, 268435455		; 0fffffffH
  00017	76 0b		 jbe	 SHORT $LN5@reserve@3

; 748  : 			_Xlen();	// result too long

  00019	68 00 00 00 00	 push	 OFFSET ??_C@_0BD@OLBABOEK@vector?$DMT?$DO?5too?5long?$AA@
  0001e	ff 15 00 00 00
	00		 call	 DWORD PTR __imp_?_Xlength_error@std@@YAXPBD@Z
$LN63@reserve@3:
$LN5@reserve@3:

; 749  : 		else if (capacity() < _Count)

  00024	8b 46 08	 mov	 eax, DWORD PTR [esi+8]
  00027	2b 06		 sub	 eax, DWORD PTR [esi]
  00029	c1 f8 04	 sar	 eax, 4
  0002c	3b c3		 cmp	 eax, ebx
  0002e	73 79		 jae	 SHORT $LN3@reserve@3

; 750  : 			{	// not enough room, reallocate
; 751  : 			pointer _Ptr = this->_Alval.allocate(_Count);

  00030	6a 00		 push	 0
  00032	53		 push	 ebx
  00033	e8 00 00 00 00	 call	 ??$_Allocate@V?$vector@UColorText@ioMission@@V?$allocator@UColorText@ioMission@@@std@@@std@@@std@@YAPAV?$vector@UColorText@ioMission@@V?$allocator@UColorText@ioMission@@@std@@@0@IPAV10@@Z ; std::_Allocate<std::vector<ioMission::ColorText,std::allocator<ioMission::ColorText> > >

; 752  : 
; 753  : 			_TRY_BEGIN
; 754  : 			_Umove(this->_Myfirst, this->_Mylast, _Ptr);

  00038	8b 0e		 mov	 ecx, DWORD PTR [esi]
  0003a	83 65 fc 00	 and	 DWORD PTR __$EHRec$[ebp+12], 0
  0003e	8d 56 0c	 lea	 edx, DWORD PTR [esi+12]
  00041	52		 push	 edx
  00042	89 45 ec	 mov	 DWORD PTR __Ptr$509382[ebp], eax
  00045	ff 75 ec	 push	 DWORD PTR __Ptr$509382[ebp]
  00048	8b 46 04	 mov	 eax, DWORD PTR [esi+4]
  0004b	50		 push	 eax
  0004c	51		 push	 ecx
  0004d	e8 00 00 00 00	 call	 ??$_Uninitialized_move@PAV?$vector@UColorText@ioMission@@V?$allocator@UColorText@ioMission@@@std@@@std@@PAV12@V?$allocator@V?$vector@UColorText@ioMission@@V?$allocator@UColorText@ioMission@@@std@@@std@@@2@@std@@YAPAV?$vector@UColorText@ioMission@@V?$allocator@UColorText@ioMission@@@std@@@0@PAV10@00AAV?$allocator@V?$vector@UColorText@ioMission@@V?$allocator@UColorText@ioMission@@@std@@@std@@@0@@Z ; std::_Uninitialized_move<std::vector<ioMission::ColorText,std::allocator<ioMission::ColorText> > *,std::vector<ioMission::ColorText,std::allocator<ioMission::ColorText> > *,std::allocator<std::vector<ioMission::ColorText,std::allocator<ioMission::ColorText> > > >

; 758  : 			_CATCH_END
; 759  : 
; 760  : 			size_type _Size = size();

  00052	8b 4e 04	 mov	 ecx, DWORD PTR [esi+4]
  00055	8b 06		 mov	 eax, DWORD PTR [esi]
  00057	83 4d fc ff	 or	 DWORD PTR __$EHRec$[ebp+12], -1
  0005b	8b f9		 mov	 edi, ecx
  0005d	83 c4 18	 add	 esp, 24			; 00000018H
  00060	2b f8		 sub	 edi, eax
  00062	89 4d e8	 mov	 DWORD PTR tv300[ebp], ecx
  00065	85 c0		 test	 eax, eax
  00067	74 23		 je	 SHORT $LN55@reserve@3

; 761  : 			if (this->_Myfirst != 0)
; 762  : 				{	// destroy and deallocate old array
; 763  : 				_Destroy(this->_Myfirst, this->_Mylast);

  00069	89 45 08	 mov	 DWORD PTR $T517303[ebp], eax
  0006c	3b c1		 cmp	 eax, ecx
  0006e	74 14		 je	 SHORT $LN37@reserve@3
$LN39@reserve@3:
  00070	8b 4d 08	 mov	 ecx, DWORD PTR $T517303[ebp]
  00073	e8 00 00 00 00	 call	 ?_Tidy@?$vector@UColorText@ioMission@@V?$allocator@UColorText@ioMission@@@std@@@std@@IAEXXZ ; std::vector<ioMission::ColorText,std::allocator<ioMission::ColorText> >::_Tidy
  00078	83 45 08 10	 add	 DWORD PTR $T517303[ebp], 16 ; 00000010H
  0007c	8b 45 08	 mov	 eax, DWORD PTR $T517303[ebp]
  0007f	3b 45 e8	 cmp	 eax, DWORD PTR tv300[ebp]
  00082	75 ec		 jne	 SHORT $LN39@reserve@3
$LN37@reserve@3:

; 764  : 				this->_Alval.deallocate(this->_Myfirst,
; 765  : 					this->_Myend - this->_Myfirst);

  00084	ff 36		 push	 DWORD PTR [esi]
  00086	e8 00 00 00 00	 call	 ??3@YAXPAX@Z		; operator delete
  0008b	59		 pop	 ecx
$LN55@reserve@3:

; 766  : 				}
; 767  : 
; 768  : 			this->_Orphan_all();

  0008c	8b ce		 mov	 ecx, esi
  0008e	ff 15 00 00 00
	00		 call	 DWORD PTR __imp_?_Orphan_all@_Container_base0@std@@QAEXXZ

; 769  : 			this->_Myend = _Ptr + _Count;

  00094	8b 45 ec	 mov	 eax, DWORD PTR __Ptr$509382[ebp]
  00097	c1 e3 04	 shl	 ebx, 4
  0009a	03 d8		 add	 ebx, eax

; 770  : 			this->_Mylast = _Ptr + _Size;

  0009c	83 e7 f0	 and	 edi, -16		; fffffff0H
  0009f	03 f8		 add	 edi, eax
  000a1	89 5e 08	 mov	 DWORD PTR [esi+8], ebx
  000a4	89 7e 04	 mov	 DWORD PTR [esi+4], edi

; 771  : 			this->_Myfirst = _Ptr;

  000a7	89 06		 mov	 DWORD PTR [esi], eax
$LN3@reserve@3:

; 772  : 			}
; 773  : 		}

  000a9	e8 00 00 00 00	 call	 __EH_epilog3
  000ae	c2 04 00	 ret	 4
__catch$?reserve@?$vector@V?$vector@UColorText@ioMission@@V?$allocator@UColorText@ioMission@@@std@@@std@@V?$allocator@V?$vector@UColorText@ioMission@@V?$allocator@UColorText@ioMission@@@std@@@std@@@2@@std@@QAEXI@Z$0:

; 755  : 			_CATCH_ALL
; 756  : 			this->_Alval.deallocate(_Ptr, _Count);

  000b1	ff 75 ec	 push	 DWORD PTR __Ptr$509382[ebp]
  000b4	e8 00 00 00 00	 call	 ??3@YAXPAX@Z		; operator delete
  000b9	59		 pop	 ecx

; 757  : 			_RERAISE;

  000ba	6a 00		 push	 0
  000bc	6a 00		 push	 0
  000be	e8 00 00 00 00	 call	 __CxxThrowException@8
$LN64@reserve@3:
$LN62@reserve@3:
  000c3	cc		 int	 3
_TEXT	ENDS
;	COMDAT text$x
text$x	SEGMENT
__ehhandler$?reserve@?$vector@V?$vector@UColorText@ioMission@@V?$allocator@UColorText@ioMission@@@std@@@std@@V?$allocator@V?$vector@UColorText@ioMission@@V?$allocator@UColorText@ioMission@@@std@@@std@@@2@@std@@QAEXI@Z:
  00000	8b 54 24 08	 mov	 edx, DWORD PTR [esp+8]
  00004	8d 42 0c	 lea	 eax, DWORD PTR [edx+12]
  00007	8b 4a e4	 mov	 ecx, DWORD PTR [edx-28]
  0000a	33 c8		 xor	 ecx, eax
  0000c	e8 00 00 00 00	 call	 @__security_check_cookie@4
  00011	b8 00 00 00 00	 mov	 eax, OFFSET __ehfuncinfo$?reserve@?$vector@V?$vector@UColorText@ioMission@@V?$allocator@UColorText@ioMission@@@std@@@std@@V?$allocator@V?$vector@UColorText@ioMission@@V?$allocator@UColorText@ioMission@@@std@@@std@@@2@@std@@QAEXI@Z
  00016	e9 00 00 00 00	 jmp	 ___CxxFrameHandler3
text$x	ENDS
?reserve@?$vector@V?$vector@UColorText@ioMission@@V?$allocator@UColorText@ioMission@@@std@@@std@@V?$allocator@V?$vector@UColorText@ioMission@@V?$allocator@UColorText@ioMission@@@std@@@std@@@2@@std@@QAEXI@Z ENDP ; std::vector<std::vector<ioMission::ColorText,std::allocator<ioMission::ColorText> >,std::allocator<std::vector<ioMission::ColorText,std::allocator<ioMission::ColorText> > > >::reserve
PUBLIC	??_7ioMission@@6B@				; ioMission::`vftable'
PUBLIC	??0ioMission@@QAE@XZ				; ioMission::ioMission
PUBLIC	??_R4ioMission@@6B@				; ioMission::`RTTI Complete Object Locator'
PUBLIC	??_R0?AVioMission@@@8				; ioMission `RTTI Type Descriptor'
PUBLIC	??_R3ioMission@@8				; ioMission::`RTTI Class Hierarchy Descriptor'
PUBLIC	??_R2ioMission@@8				; ioMission::`RTTI Base Class Array'
PUBLIC	??_R1A@?0A@EA@ioMission@@8			; ioMission::`RTTI Base Class Descriptor at (0,-1,0,64)'
PUBLIC	?Init@ioMission@@UAEXPBDAAVioINILoader@@@Z	; ioMission::Init
EXTRN	__purecall:PROC
;	COMDAT ??_R1A@?0A@EA@ioMission@@8
; File c:\program files (x86)\microsoft visual studio 10.0\vc\include\xutility
rdata$r	SEGMENT
??_R1A@?0A@EA@ioMission@@8 DD FLAT:??_R0?AVioMission@@@8 ; ioMission::`RTTI Base Class Descriptor at (0,-1,0,64)'
	DD	00H
	DD	00H
	DD	0ffffffffH
	DD	00H
	DD	040H
	DD	FLAT:??_R3ioMission@@8
rdata$r	ENDS
;	COMDAT ??_R2ioMission@@8
rdata$r	SEGMENT
??_R2ioMission@@8 DD FLAT:??_R1A@?0A@EA@ioMission@@8	; ioMission::`RTTI Base Class Array'
rdata$r	ENDS
;	COMDAT ??_R3ioMission@@8
rdata$r	SEGMENT
??_R3ioMission@@8 DD 00H				; ioMission::`RTTI Class Hierarchy Descriptor'
	DD	00H
	DD	01H
	DD	FLAT:??_R2ioMission@@8
rdata$r	ENDS
;	COMDAT ??_R0?AVioMission@@@8
_DATA	SEGMENT
??_R0?AVioMission@@@8 DD FLAT:??_7type_info@@6B@	; ioMission `RTTI Type Descriptor'
	DD	00H
	DB	'.?AVioMission@@', 00H
_DATA	ENDS
;	COMDAT ??_R4ioMission@@6B@
rdata$r	SEGMENT
??_R4ioMission@@6B@ DD 00H				; ioMission::`RTTI Complete Object Locator'
	DD	00H
	DD	00H
	DD	FLAT:??_R0?AVioMission@@@8
	DD	FLAT:??_R3ioMission@@8
rdata$r	ENDS
;	COMDAT ??_7ioMission@@6B@
CONST	SEGMENT
??_7ioMission@@6B@ DD FLAT:??_R4ioMission@@6B@		; ioMission::`vftable'
	DD	FLAT:__purecall
	DD	FLAT:?Init@ioMission@@UAEXPBDAAVioINILoader@@@Z
	DD	FLAT:?Process@ioMission@@UAE_NXZ
	DD	FLAT:__purecall
CONST	ENDS
;	COMDAT xdata$x
xdata$x	SEGMENT
__unwindtable$??0ioMission@@QAE@XZ DD 0ffffffffH
	DD	FLAT:__unwindfunclet$??0ioMission@@QAE@XZ$0
	DD	00H
	DD	FLAT:__unwindfunclet$??0ioMission@@QAE@XZ$1
	DD	01H
	DD	FLAT:__unwindfunclet$??0ioMission@@QAE@XZ$2
__ehfuncinfo$??0ioMission@@QAE@XZ DD 019930522H
	DD	03H
	DD	FLAT:__unwindtable$??0ioMission@@QAE@XZ
	DD	2 DUP(00H)
	DD	2 DUP(00H)
	DD	00H
	DD	01H
; Function compile flags: /Ogsp
; File d:\lost saga for developer\youtube\tutorial\source\src\lsclient\iomission.cpp
xdata$x	ENDS
;	COMDAT ??0ioMission@@QAE@XZ
_TEXT	SEGMENT
$T517493 = -20						; size = 4
_this$ = -16						; size = 4
__$EHRec$ = -12						; size = 12
??0ioMission@@QAE@XZ PROC				; ioMission::ioMission, COMDAT
; _this$ = ecx

; 22   : {

  00000	6a 08		 push	 8
  00002	b8 00 00 00 00	 mov	 eax, __ehhandler$??0ioMission@@QAE@XZ
  00007	e8 00 00 00 00	 call	 __EH_prolog3
  0000c	8b f1		 mov	 esi, ecx
  0000e	89 75 f0	 mov	 DWORD PTR _this$[ebp], esi
  00011	33 db		 xor	 ebx, ebx
  00013	8d 4e 20	 lea	 ecx, DWORD PTR [esi+32]
  00016	c7 06 00 00 00
	00		 mov	 DWORD PTR [esi], OFFSET ??_7ioMission@@6B@
  0001c	89 5e 04	 mov	 DWORD PTR [esi+4], ebx
  0001f	89 5e 08	 mov	 DWORD PTR [esi+8], ebx
  00022	89 5e 0c	 mov	 DWORD PTR [esi+12], ebx
  00025	89 5e 10	 mov	 DWORD PTR [esi+16], ebx
  00028	89 5e 14	 mov	 DWORD PTR [esi+20], ebx
  0002b	89 5e 18	 mov	 DWORD PTR [esi+24], ebx
  0002e	89 5e 1c	 mov	 DWORD PTR [esi+28], ebx
  00031	ff 15 00 00 00
	00		 call	 DWORD PTR __imp_??0ioHashString@@QAE@XZ
  00037	88 5e 30	 mov	 BYTE PTR [esi+48], bl
  0003a	89 5e 34	 mov	 DWORD PTR [esi+52], ebx
  0003d	89 5e 38	 mov	 DWORD PTR [esi+56], ebx
  00040	89 5e 3c	 mov	 DWORD PTR [esi+60], ebx
  00043	89 5e 40	 mov	 DWORD PTR [esi+64], ebx
  00046	89 5d fc	 mov	 DWORD PTR __$EHRec$[ebp+8], ebx
  00049	89 5e 44	 mov	 DWORD PTR [esi+68], ebx
  0004c	89 5e 48	 mov	 DWORD PTR [esi+72], ebx
  0004f	89 5e 4c	 mov	 DWORD PTR [esi+76], ebx
  00052	89 5e 54	 mov	 DWORD PTR [esi+84], ebx
  00055	89 5e 58	 mov	 DWORD PTR [esi+88], ebx
  00058	89 5e 5c	 mov	 DWORD PTR [esi+92], ebx

; 23   : 	m_IconName.Clear();

  0005b	8d 4e 20	 lea	 ecx, DWORD PTR [esi+32]
  0005e	c6 45 fc 02	 mov	 BYTE PTR __$EHRec$[ebp+8], 2
  00062	89 5e 64	 mov	 DWORD PTR [esi+100], ebx
  00065	66 89 5e 68	 mov	 WORD PTR [esi+104], bx
  00069	ff 15 00 00 00
	00		 call	 DWORD PTR __imp_?Clear@ioHashString@@QAEXXZ

; 24   : 	m_szRewardTextVec.clear();

  0006f	8b 46 48	 mov	 eax, DWORD PTR [esi+72]
  00072	8b 4e 44	 mov	 ecx, DWORD PTR [esi+68]
  00075	50		 push	 eax
  00076	51		 push	 ecx
  00077	8d 45 ec	 lea	 eax, DWORD PTR $T517493[ebp]
  0007a	50		 push	 eax
  0007b	8d 4e 44	 lea	 ecx, DWORD PTR [esi+68]
  0007e	e8 00 00 00 00	 call	 ?erase@?$vector@VioHashString@@V?$allocator@VioHashString@@@std@@@std@@QAE?AV?$_Vector_iterator@V?$_Vector_val@VioHashString@@V?$allocator@VioHashString@@@std@@@std@@@2@V?$_Vector_const_iterator@V?$_Vector_val@VioHashString@@V?$allocator@VioHashString@@@std@@@std@@@2@0@Z ; std::vector<ioHashString,std::allocator<ioHashString> >::erase

; 25   : }

  00083	8b c6		 mov	 eax, esi
  00085	e8 00 00 00 00	 call	 __EH_epilog3
  0008a	c3		 ret	 0
_TEXT	ENDS
;	COMDAT text$x
text$x	SEGMENT
__unwindfunclet$??0ioMission@@QAE@XZ$0:
  00000	8b 4d f0	 mov	 ecx, DWORD PTR _this$[ebp]
  00003	83 c1 20	 add	 ecx, 32			; 00000020H
  00006	ff 25 00 00 00
	00		 jmp	 DWORD PTR __imp_??1ioHashString@@QAE@XZ
__unwindfunclet$??0ioMission@@QAE@XZ$1:
  0000c	8b 4d f0	 mov	 ecx, DWORD PTR _this$[ebp]
  0000f	83 c1 44	 add	 ecx, 68			; 00000044H
  00012	e9 00 00 00 00	 jmp	 ??1?$vector@VioHashString@@V?$allocator@VioHashString@@@std@@@std@@QAE@XZ ; std::vector<ioHashString,std::allocator<ioHashString> >::~vector<ioHashString,std::allocator<ioHashString> >
__unwindfunclet$??0ioMission@@QAE@XZ$2:
  00017	8b 4d f0	 mov	 ecx, DWORD PTR _this$[ebp]
  0001a	83 c1 54	 add	 ecx, 84			; 00000054H
  0001d	e9 00 00 00 00	 jmp	 ??1?$vector@V?$vector@UColorText@ioMission@@V?$allocator@UColorText@ioMission@@@std@@@std@@V?$allocator@V?$vector@UColorText@ioMission@@V?$allocator@UColorText@ioMission@@@std@@@std@@@2@@std@@QAE@XZ ; std::vector<std::vector<ioMission::ColorText,std::allocator<ioMission::ColorText> >,std::allocator<std::vector<ioMission::ColorText,std::allocator<ioMission::ColorText> > > >::~vector<std::vector<ioMission::ColorText,std::allocator<ioMission::ColorText> >,std::allocator<std::vector<ioMission::ColorText,std::allocator<ioMission::ColorText> > > >
__ehhandler$??0ioMission@@QAE@XZ:
  00022	8b 54 24 08	 mov	 edx, DWORD PTR [esp+8]
  00026	8d 42 0c	 lea	 eax, DWORD PTR [edx+12]
  00029	8b 4a e8	 mov	 ecx, DWORD PTR [edx-24]
  0002c	33 c8		 xor	 ecx, eax
  0002e	e8 00 00 00 00	 call	 @__security_check_cookie@4
  00033	b8 00 00 00 00	 mov	 eax, OFFSET __ehfuncinfo$??0ioMission@@QAE@XZ
  00038	e9 00 00 00 00	 jmp	 ___CxxFrameHandler3
text$x	ENDS
??0ioMission@@QAE@XZ ENDP				; ioMission::ioMission
PUBLIC	??0ioMission@@QAE@ABV0@@Z			; ioMission::ioMission
;	COMDAT xdata$x
xdata$x	SEGMENT
__unwindtable$??0ioMission@@QAE@ABV0@@Z DD 0ffffffffH
	DD	FLAT:__unwindfunclet$??0ioMission@@QAE@ABV0@@Z$0
	DD	00H
	DD	FLAT:__unwindfunclet$??0ioMission@@QAE@ABV0@@Z$1
__ehfuncinfo$??0ioMission@@QAE@ABV0@@Z DD 019930522H
	DD	02H
	DD	FLAT:__unwindtable$??0ioMission@@QAE@ABV0@@Z
	DD	2 DUP(00H)
	DD	2 DUP(00H)
	DD	00H
	DD	01H
; Function compile flags: /Ogsp
xdata$x	ENDS
;	COMDAT ??0ioMission@@QAE@ABV0@@Z
_TEXT	SEGMENT
_this$ = -16						; size = 4
__$EHRec$ = -12						; size = 12
_rhs$ = 8						; size = 4
??0ioMission@@QAE@ABV0@@Z PROC				; ioMission::ioMission, COMDAT
; _this$ = ecx

; 46   : {

  00000	6a 04		 push	 4
  00002	b8 00 00 00 00	 mov	 eax, __ehhandler$??0ioMission@@QAE@ABV0@@Z
  00007	e8 00 00 00 00	 call	 __EH_prolog3
  0000c	8b f1		 mov	 esi, ecx
  0000e	89 75 f0	 mov	 DWORD PTR _this$[ebp], esi
  00011	8b 7d 08	 mov	 edi, DWORD PTR _rhs$[ebp]
  00014	c7 06 00 00 00
	00		 mov	 DWORD PTR [esi], OFFSET ??_7ioMission@@6B@
  0001a	8b 47 04	 mov	 eax, DWORD PTR [edi+4]
  0001d	89 46 04	 mov	 DWORD PTR [esi+4], eax
  00020	8b 47 08	 mov	 eax, DWORD PTR [edi+8]
  00023	89 46 08	 mov	 DWORD PTR [esi+8], eax
  00026	8b 47 0c	 mov	 eax, DWORD PTR [edi+12]
  00029	89 46 0c	 mov	 DWORD PTR [esi+12], eax
  0002c	8b 47 10	 mov	 eax, DWORD PTR [edi+16]
  0002f	89 46 10	 mov	 DWORD PTR [esi+16], eax
  00032	8b 47 14	 mov	 eax, DWORD PTR [edi+20]
  00035	89 46 14	 mov	 DWORD PTR [esi+20], eax
  00038	8b 47 18	 mov	 eax, DWORD PTR [edi+24]
  0003b	89 46 18	 mov	 DWORD PTR [esi+24], eax
  0003e	8b 47 1c	 mov	 eax, DWORD PTR [edi+28]
  00041	89 46 1c	 mov	 DWORD PTR [esi+28], eax
  00044	8d 47 20	 lea	 eax, DWORD PTR [edi+32]
  00047	50		 push	 eax
  00048	8d 4e 20	 lea	 ecx, DWORD PTR [esi+32]
  0004b	ff 15 00 00 00
	00		 call	 DWORD PTR __imp_??0ioHashString@@QAE@ABV0@@Z
  00051	8a 47 30	 mov	 al, BYTE PTR [edi+48]
  00054	83 65 fc 00	 and	 DWORD PTR __$EHRec$[ebp+8], 0
  00058	88 46 30	 mov	 BYTE PTR [esi+48], al
  0005b	8b 47 34	 mov	 eax, DWORD PTR [edi+52]
  0005e	89 46 34	 mov	 DWORD PTR [esi+52], eax
  00061	8b 47 38	 mov	 eax, DWORD PTR [edi+56]
  00064	89 46 38	 mov	 DWORD PTR [esi+56], eax
  00067	8b 47 3c	 mov	 eax, DWORD PTR [edi+60]
  0006a	89 46 3c	 mov	 DWORD PTR [esi+60], eax
  0006d	8b 47 40	 mov	 eax, DWORD PTR [edi+64]
  00070	89 46 40	 mov	 DWORD PTR [esi+64], eax
  00073	8d 47 44	 lea	 eax, DWORD PTR [edi+68]
  00076	50		 push	 eax
  00077	8d 4e 44	 lea	 ecx, DWORD PTR [esi+68]
  0007a	e8 00 00 00 00	 call	 ??0?$vector@VioHashString@@V?$allocator@VioHashString@@@std@@@std@@QAE@ABV01@@Z ; std::vector<ioHashString,std::allocator<ioHashString> >::vector<ioHashString,std::allocator<ioHashString> >
  0007f	8d 47 54	 lea	 eax, DWORD PTR [edi+84]
  00082	50		 push	 eax
  00083	8d 4e 54	 lea	 ecx, DWORD PTR [esi+84]
  00086	c6 45 fc 01	 mov	 BYTE PTR __$EHRec$[ebp+8], 1
  0008a	e8 00 00 00 00	 call	 ??0?$vector@V?$vector@UColorText@ioMission@@V?$allocator@UColorText@ioMission@@@std@@@std@@V?$allocator@V?$vector@UColorText@ioMission@@V?$allocator@UColorText@ioMission@@@std@@@std@@@2@@std@@QAE@ABV01@@Z ; std::vector<std::vector<ioMission::ColorText,std::allocator<ioMission::ColorText> >,std::allocator<std::vector<ioMission::ColorText,std::allocator<ioMission::ColorText> > > >::vector<std::vector<ioMission::ColorText,std::allocator<ioMission::ColorText> >,std::allocator<std::vector<ioMission::ColorText,std::allocator<ioMission::ColorText> > > >
  0008f	8b 47 64	 mov	 eax, DWORD PTR [edi+100]
  00092	89 46 64	 mov	 DWORD PTR [esi+100], eax
  00095	8a 47 68	 mov	 al, BYTE PTR [edi+104]
  00098	88 46 68	 mov	 BYTE PTR [esi+104], al
  0009b	8a 47 69	 mov	 al, BYTE PTR [edi+105]
  0009e	88 46 69	 mov	 BYTE PTR [esi+105], al

; 47   : 
; 48   : }

  000a1	8b c6		 mov	 eax, esi
  000a3	e8 00 00 00 00	 call	 __EH_epilog3
  000a8	c2 04 00	 ret	 4
_TEXT	ENDS
;	COMDAT text$x
text$x	SEGMENT
__unwindfunclet$??0ioMission@@QAE@ABV0@@Z$0:
  00000	8b 4d f0	 mov	 ecx, DWORD PTR _this$[ebp]
  00003	83 c1 20	 add	 ecx, 32			; 00000020H
  00006	ff 25 00 00 00
	00		 jmp	 DWORD PTR __imp_??1ioHashString@@QAE@XZ
__unwindfunclet$??0ioMission@@QAE@ABV0@@Z$1:
  0000c	8b 4d f0	 mov	 ecx, DWORD PTR _this$[ebp]
  0000f	83 c1 44	 add	 ecx, 68			; 00000044H
  00012	e9 00 00 00 00	 jmp	 ??1?$vector@VioHashString@@V?$allocator@VioHashString@@@std@@@std@@QAE@XZ ; std::vector<ioHashString,std::allocator<ioHashString> >::~vector<ioHashString,std::allocator<ioHashString> >
__ehhandler$??0ioMission@@QAE@ABV0@@Z:
  00017	8b 54 24 08	 mov	 edx, DWORD PTR [esp+8]
  0001b	8d 42 0c	 lea	 eax, DWORD PTR [edx+12]
  0001e	8b 4a ec	 mov	 ecx, DWORD PTR [edx-20]
  00021	33 c8		 xor	 ecx, eax
  00023	e8 00 00 00 00	 call	 @__security_check_cookie@4
  00028	b8 00 00 00 00	 mov	 eax, OFFSET __ehfuncinfo$??0ioMission@@QAE@ABV0@@Z
  0002d	e9 00 00 00 00	 jmp	 ___CxxFrameHandler3
text$x	ENDS
??0ioMission@@QAE@ABV0@@Z ENDP				; ioMission::ioMission
PUBLIC	??1ioMission@@QAE@XZ				; ioMission::~ioMission
;	COMDAT xdata$x
; File c:\program files (x86)\microsoft visual studio 10.0\vc\include\vector
xdata$x	SEGMENT
__unwindtable$??1ioMission@@QAE@XZ DD 0ffffffffH
	DD	FLAT:__unwindfunclet$??1ioMission@@QAE@XZ$0
	DD	00H
	DD	FLAT:__unwindfunclet$??1ioMission@@QAE@XZ$1
__ehfuncinfo$??1ioMission@@QAE@XZ DD 019930522H
	DD	02H
	DD	FLAT:__unwindtable$??1ioMission@@QAE@XZ
	DD	2 DUP(00H)
	DD	2 DUP(00H)
	DD	00H
	DD	01H
; Function compile flags: /Ogsp
; File d:\lost saga for developer\youtube\tutorial\source\src\lsclient\iomission.cpp
xdata$x	ENDS
;	COMDAT ??1ioMission@@QAE@XZ
_TEXT	SEGMENT
_this$ = -16						; size = 4
__$EHRec$ = -12						; size = 12
??1ioMission@@QAE@XZ PROC				; ioMission::~ioMission, COMDAT
; _this$ = ecx

; 51   : {

  00000	6a 04		 push	 4
  00002	b8 00 00 00 00	 mov	 eax, __ehhandler$??1ioMission@@QAE@XZ
  00007	e8 00 00 00 00	 call	 __EH_prolog3
  0000c	8b f1		 mov	 esi, ecx
  0000e	89 75 f0	 mov	 DWORD PTR _this$[ebp], esi
  00011	c7 06 00 00 00
	00		 mov	 DWORD PTR [esi], OFFSET ??_7ioMission@@6B@

; 52   : }

  00017	8d 4e 54	 lea	 ecx, DWORD PTR [esi+84]
  0001a	c7 45 fc 01 00
	00 00		 mov	 DWORD PTR __$EHRec$[ebp+8], 1
  00021	e8 00 00 00 00	 call	 ?_Tidy@?$vector@V?$vector@UColorText@ioMission@@V?$allocator@UColorText@ioMission@@@std@@@std@@V?$allocator@V?$vector@UColorText@ioMission@@V?$allocator@UColorText@ioMission@@@std@@@std@@@2@@std@@IAEXXZ ; std::vector<std::vector<ioMission::ColorText,std::allocator<ioMission::ColorText> >,std::allocator<std::vector<ioMission::ColorText,std::allocator<ioMission::ColorText> > > >::_Tidy
  00026	8d 4e 44	 lea	 ecx, DWORD PTR [esi+68]
  00029	c6 45 fc 00	 mov	 BYTE PTR __$EHRec$[ebp+8], 0
  0002d	e8 00 00 00 00	 call	 ?_Tidy@?$vector@VioHashString@@V?$allocator@VioHashString@@@std@@@std@@IAEXXZ ; std::vector<ioHashString,std::allocator<ioHashString> >::_Tidy
  00032	83 4d fc ff	 or	 DWORD PTR __$EHRec$[ebp+8], -1
  00036	8d 4e 20	 lea	 ecx, DWORD PTR [esi+32]
  00039	ff 15 00 00 00
	00		 call	 DWORD PTR __imp_??1ioHashString@@QAE@XZ
  0003f	e8 00 00 00 00	 call	 __EH_epilog3
  00044	c3		 ret	 0
_TEXT	ENDS
;	COMDAT text$x
text$x	SEGMENT
__unwindfunclet$??1ioMission@@QAE@XZ$0:
  00000	8b 4d f0	 mov	 ecx, DWORD PTR _this$[ebp]
  00003	83 c1 20	 add	 ecx, 32			; 00000020H
  00006	ff 25 00 00 00
	00		 jmp	 DWORD PTR __imp_??1ioHashString@@QAE@XZ
__unwindfunclet$??1ioMission@@QAE@XZ$1:
  0000c	8b 4d f0	 mov	 ecx, DWORD PTR _this$[ebp]
  0000f	83 c1 44	 add	 ecx, 68			; 00000044H
  00012	e9 00 00 00 00	 jmp	 ??1?$vector@VioHashString@@V?$allocator@VioHashString@@@std@@@std@@QAE@XZ ; std::vector<ioHashString,std::allocator<ioHashString> >::~vector<ioHashString,std::allocator<ioHashString> >
__ehhandler$??1ioMission@@QAE@XZ:
  00017	8b 54 24 08	 mov	 edx, DWORD PTR [esp+8]
  0001b	8d 42 0c	 lea	 eax, DWORD PTR [edx+12]
  0001e	8b 4a ec	 mov	 ecx, DWORD PTR [edx-20]
  00021	33 c8		 xor	 ecx, eax
  00023	e8 00 00 00 00	 call	 @__security_check_cookie@4
  00028	b8 00 00 00 00	 mov	 eax, OFFSET __ehfuncinfo$??1ioMission@@QAE@XZ
  0002d	e9 00 00 00 00	 jmp	 ___CxxFrameHandler3
text$x	ENDS
??1ioMission@@QAE@XZ ENDP				; ioMission::~ioMission
PUBLIC	??_7ioLoginTimeMission@@6B@			; ioLoginTimeMission::`vftable'
PUBLIC	??0ioLoginTimeMission@@QAE@XZ			; ioLoginTimeMission::ioLoginTimeMission
PUBLIC	??_R4ioLoginTimeMission@@6B@			; ioLoginTimeMission::`RTTI Complete Object Locator'
PUBLIC	??_R0?AVioLoginTimeMission@@@8			; ioLoginTimeMission `RTTI Type Descriptor'
PUBLIC	??_R3ioLoginTimeMission@@8			; ioLoginTimeMission::`RTTI Class Hierarchy Descriptor'
PUBLIC	??_R2ioLoginTimeMission@@8			; ioLoginTimeMission::`RTTI Base Class Array'
PUBLIC	??_R1A@?0A@EA@ioLoginTimeMission@@8		; ioLoginTimeMission::`RTTI Base Class Descriptor at (0,-1,0,64)'
PUBLIC	?GetMaxAchieveValue@ioLoginTimeMission@@UBEABHXZ ; ioLoginTimeMission::GetMaxAchieveValue
PUBLIC	?Clone@ioLoginTimeMission@@UAEPAVioMission@@XZ	; ioLoginTimeMission::Clone
EXTRN	??_EioLoginTimeMission@@UAEPAXI@Z:PROC		; ioLoginTimeMission::`vector deleting destructor'
;	COMDAT ??_R1A@?0A@EA@ioLoginTimeMission@@8
; File c:\program files (x86)\microsoft visual studio 10.0\vc\atlmfc\include\atltime.inl
rdata$r	SEGMENT
??_R1A@?0A@EA@ioLoginTimeMission@@8 DD FLAT:??_R0?AVioLoginTimeMission@@@8 ; ioLoginTimeMission::`RTTI Base Class Descriptor at (0,-1,0,64)'
	DD	01H
	DD	00H
	DD	0ffffffffH
	DD	00H
	DD	040H
	DD	FLAT:??_R3ioLoginTimeMission@@8
rdata$r	ENDS
;	COMDAT ??_R2ioLoginTimeMission@@8
rdata$r	SEGMENT
??_R2ioLoginTimeMission@@8 DD FLAT:??_R1A@?0A@EA@ioLoginTimeMission@@8 ; ioLoginTimeMission::`RTTI Base Class Array'
	DD	FLAT:??_R1A@?0A@EA@ioMission@@8
rdata$r	ENDS
;	COMDAT ??_R3ioLoginTimeMission@@8
rdata$r	SEGMENT
??_R3ioLoginTimeMission@@8 DD 00H			; ioLoginTimeMission::`RTTI Class Hierarchy Descriptor'
	DD	00H
	DD	02H
	DD	FLAT:??_R2ioLoginTimeMission@@8
rdata$r	ENDS
;	COMDAT ??_R0?AVioLoginTimeMission@@@8
_DATA	SEGMENT
??_R0?AVioLoginTimeMission@@@8 DD FLAT:??_7type_info@@6B@ ; ioLoginTimeMission `RTTI Type Descriptor'
	DD	00H
	DB	'.?AVioLoginTimeMission@@', 00H
_DATA	ENDS
;	COMDAT ??_R4ioLoginTimeMission@@6B@
rdata$r	SEGMENT
??_R4ioLoginTimeMission@@6B@ DD 00H			; ioLoginTimeMission::`RTTI Complete Object Locator'
	DD	00H
	DD	00H
	DD	FLAT:??_R0?AVioLoginTimeMission@@@8
	DD	FLAT:??_R3ioLoginTimeMission@@8
rdata$r	ENDS
;	COMDAT ??_7ioLoginTimeMission@@6B@
CONST	SEGMENT
??_7ioLoginTimeMission@@6B@ DD FLAT:??_R4ioLoginTimeMission@@6B@ ; ioLoginTimeMission::`vftable'
	DD	FLAT:?GetMaxAchieveValue@ioLoginTimeMission@@UBEABHXZ
	DD	FLAT:?Init@ioLoginTimeMission@@UAEXPBDAAVioINILoader@@@Z
	DD	FLAT:?Process@ioLoginTimeMission@@UAE_NXZ
	DD	FLAT:?Clone@ioLoginTimeMission@@UAEPAVioMission@@XZ
	DD	FLAT:??_EioLoginTimeMission@@UAEPAXI@Z
; Function compile flags: /Ogsp
; File d:\lost saga for developer\youtube\tutorial\source\src\lsclient\iomission.cpp
CONST	ENDS
;	COMDAT ??0ioLoginTimeMission@@QAE@XZ
_TEXT	SEGMENT
??0ioLoginTimeMission@@QAE@XZ PROC			; ioLoginTimeMission::ioLoginTimeMission, COMDAT
; _this$ = ecx

; 235  : {

  00000	56		 push	 esi
  00001	8b f1		 mov	 esi, ecx
  00003	e8 00 00 00 00	 call	 ??0ioMission@@QAE@XZ	; ioMission::ioMission
  00008	33 c0		 xor	 eax, eax
  0000a	c7 06 00 00 00
	00		 mov	 DWORD PTR [esi], OFFSET ??_7ioLoginTimeMission@@6B@
  00010	89 46 6c	 mov	 DWORD PTR [esi+108], eax
  00013	89 46 70	 mov	 DWORD PTR [esi+112], eax
  00016	89 46 74	 mov	 DWORD PTR [esi+116], eax
  00019	89 46 78	 mov	 DWORD PTR [esi+120], eax
  0001c	89 46 7c	 mov	 DWORD PTR [esi+124], eax

; 236  : 
; 237  : }

  0001f	8b c6		 mov	 eax, esi
  00021	5e		 pop	 esi
  00022	c3		 ret	 0
??0ioLoginTimeMission@@QAE@XZ ENDP			; ioLoginTimeMission::ioLoginTimeMission
; Function compile flags: /Ogsp
; File d:\lost saga for developer\youtube\tutorial\source\src\lsclient\iomission.h
_TEXT	ENDS
;	COMDAT ?GetMaxAchieveValue@ioLoginTimeMission@@UBEABHXZ
_TEXT	SEGMENT
?GetMaxAchieveValue@ioLoginTimeMission@@UBEABHXZ PROC	; ioLoginTimeMission::GetMaxAchieveValue, COMDAT
; _this$ = ecx

; 150  : 	virtual const int&  GetMaxAchieveValue() const { return m_iValue1; }

  00000	8d 41 10	 lea	 eax, DWORD PTR [ecx+16]
  00003	c3		 ret	 0
?GetMaxAchieveValue@ioLoginTimeMission@@UBEABHXZ ENDP	; ioLoginTimeMission::GetMaxAchieveValue
_TEXT	ENDS
PUBLIC	_this$GSCopy$
PUBLIC	??0ioLoginTimeMission@@QAE@ABV0@@Z		; ioLoginTimeMission::ioLoginTimeMission
EXTRN	__EH_epilog3_GS:PROC
EXTRN	__EH_prolog3_GS:PROC
;	COMDAT xdata$x
; File c:\program files (x86)\microsoft visual studio 10.0\vc\atlmfc\include\atltime.inl
xdata$x	SEGMENT
__unwindtable$??0ioLoginTimeMission@@QAE@ABV0@@Z DD 0ffffffffH
	DD	FLAT:__unwindfunclet$??0ioLoginTimeMission@@QAE@ABV0@@Z$0
__ehfuncinfo$??0ioLoginTimeMission@@QAE@ABV0@@Z DD 019930522H
	DD	01H
	DD	FLAT:__unwindtable$??0ioLoginTimeMission@@QAE@ABV0@@Z
	DD	2 DUP(00H)
	DD	2 DUP(00H)
	DD	00H
	DD	01H
; Function compile flags: /Ogsp
; File d:\lost saga for developer\youtube\tutorial\source\src\lsclient\iomission.cpp
xdata$x	ENDS
;	COMDAT ??0ioLoginTimeMission@@QAE@ABV0@@Z
_TEXT	SEGMENT
$T517569 = -44						; size = 8
_this$GSCopy$ = -36					; size = 4
_rkServerTime$ = -32					; size = 16
__$EHRec$ = -12						; size = 12
_rhs$ = 8						; size = 4
??0ioLoginTimeMission@@QAE@ABV0@@Z PROC			; ioLoginTimeMission::ioLoginTimeMission, COMDAT
; _this$ = ecx

; 244  : {

  00000	6a 20		 push	 32			; 00000020H
  00002	b8 00 00 00 00	 mov	 eax, __ehhandler$??0ioLoginTimeMission@@QAE@ABV0@@Z
  00007	e8 00 00 00 00	 call	 __EH_prolog3_GS
  0000c	8b 7d 08	 mov	 edi, DWORD PTR _rhs$[ebp]
  0000f	8b f1		 mov	 esi, ecx
  00011	57		 push	 edi
  00012	89 75 dc	 mov	 DWORD PTR _this$GSCopy$[ebp], esi
  00015	e8 00 00 00 00	 call	 ??0ioMission@@QAE@ABV0@@Z ; ioMission::ioMission
  0001a	33 c0		 xor	 eax, eax
  0001c	c7 06 00 00 00
	00		 mov	 DWORD PTR [esi], OFFSET ??_7ioLoginTimeMission@@6B@
  00022	89 46 6c	 mov	 DWORD PTR [esi+108], eax
  00025	89 46 70	 mov	 DWORD PTR [esi+112], eax
  00028	89 45 fc	 mov	 DWORD PTR __$EHRec$[ebp+8], eax
  0002b	8b 47 74	 mov	 eax, DWORD PTR [edi+116]
  0002e	89 46 74	 mov	 DWORD PTR [esi+116], eax
  00031	8b 47 78	 mov	 eax, DWORD PTR [edi+120]
  00034	89 46 78	 mov	 DWORD PTR [esi+120], eax
  00037	8b 47 7c	 mov	 eax, DWORD PTR [edi+124]
  0003a	89 46 7c	 mov	 DWORD PTR [esi+124], eax

; 245  : 	SYSTEMTIME rkServerTime;
; 246  : 	g_MyInfo.GetServerTime( rkServerTime );

  0003d	8d 45 e0	 lea	 eax, DWORD PTR _rkServerTime$[ebp]
  00040	50		 push	 eax
  00041	e8 00 00 00 00	 call	 ?GetSingleton@ioMyInfo@@SAAAV1@XZ ; ioMyInfo::GetSingleton
  00046	8b c8		 mov	 ecx, eax
  00048	e8 00 00 00 00	 call	 ?GetServerTime@ioMyInfo@@QAEXAAU_SYSTEMTIME@@@Z ; ioMyInfo::GetServerTime

; 247  : 	m_NowTime = CTime( rkServerTime.wYear, rkServerTime.wMonth, rkServerTime.wDay, rkServerTime.wHour, rkServerTime.wMinute, rkServerTime.wSecond );

  0004d	0f b7 45 ec	 movzx	 eax, WORD PTR _rkServerTime$[ebp+12]
  00051	6a ff		 push	 -1
  00053	50		 push	 eax
  00054	0f b7 45 ea	 movzx	 eax, WORD PTR _rkServerTime$[ebp+10]
  00058	50		 push	 eax
  00059	0f b7 45 e8	 movzx	 eax, WORD PTR _rkServerTime$[ebp+8]
  0005d	50		 push	 eax
  0005e	0f b7 45 e6	 movzx	 eax, WORD PTR _rkServerTime$[ebp+6]
  00062	50		 push	 eax
  00063	0f b7 45 e2	 movzx	 eax, WORD PTR _rkServerTime$[ebp+2]
  00067	50		 push	 eax
  00068	0f b7 45 e0	 movzx	 eax, WORD PTR _rkServerTime$[ebp]
  0006c	50		 push	 eax
  0006d	8d 4d d4	 lea	 ecx, DWORD PTR $T517569[ebp]
  00070	e8 00 00 00 00	 call	 ??0CTime@ATL@@QAE@HHHHHHH@Z ; ATL::CTime::CTime
  00075	8b 08		 mov	 ecx, DWORD PTR [eax]
  00077	89 4e 6c	 mov	 DWORD PTR [esi+108], ecx
  0007a	8b 40 04	 mov	 eax, DWORD PTR [eax+4]
  0007d	89 46 70	 mov	 DWORD PTR [esi+112], eax

; 248  : }

  00080	8b c6		 mov	 eax, esi
  00082	e8 00 00 00 00	 call	 __EH_epilog3_GS
  00087	c2 04 00	 ret	 4
_TEXT	ENDS
;	COMDAT text$x
text$x	SEGMENT
__unwindfunclet$??0ioLoginTimeMission@@QAE@ABV0@@Z$0:
  00000	8b 4d dc	 mov	 ecx, DWORD PTR _this$GSCopy$[ebp]
  00003	e9 00 00 00 00	 jmp	 ??1ioMission@@QAE@XZ	; ioMission::~ioMission
__ehhandler$??0ioLoginTimeMission@@QAE@ABV0@@Z:
  00008	8b 54 24 08	 mov	 edx, DWORD PTR [esp+8]
  0000c	8d 42 0c	 lea	 eax, DWORD PTR [edx+12]
  0000f	8b 4a d0	 mov	 ecx, DWORD PTR [edx-48]
  00012	33 c8		 xor	 ecx, eax
  00014	e8 00 00 00 00	 call	 @__security_check_cookie@4
  00019	8b 4a fc	 mov	 ecx, DWORD PTR [edx-4]
  0001c	33 c8		 xor	 ecx, eax
  0001e	e8 00 00 00 00	 call	 @__security_check_cookie@4
  00023	b8 00 00 00 00	 mov	 eax, OFFSET __ehfuncinfo$??0ioLoginTimeMission@@QAE@ABV0@@Z
  00028	e9 00 00 00 00	 jmp	 ___CxxFrameHandler3
text$x	ENDS
??0ioLoginTimeMission@@QAE@ABV0@@Z ENDP			; ioLoginTimeMission::ioLoginTimeMission
PUBLIC	??1ioLoginTimeMission@@UAE@XZ			; ioLoginTimeMission::~ioLoginTimeMission
; Function compile flags: /Ogsp
;	COMDAT ??1ioLoginTimeMission@@UAE@XZ
_TEXT	SEGMENT
??1ioLoginTimeMission@@UAE@XZ PROC			; ioLoginTimeMission::~ioLoginTimeMission, COMDAT
; _this$ = ecx

; 257  : {

  00000	c7 01 00 00 00
	00		 mov	 DWORD PTR [ecx], OFFSET ??_7ioLoginTimeMission@@6B@

; 258  : 
; 259  : }

  00006	e9 00 00 00 00	 jmp	 ??1ioMission@@QAE@XZ	; ioMission::~ioMission
??1ioLoginTimeMission@@UAE@XZ ENDP			; ioLoginTimeMission::~ioLoginTimeMission
_TEXT	ENDS
;	COMDAT xdata$x
xdata$x	SEGMENT
__unwindtable$?Clone@ioLoginTimeMission@@UAEPAVioMission@@XZ DD 0ffffffffH
	DD	FLAT:__unwindfunclet$?Clone@ioLoginTimeMission@@UAEPAVioMission@@XZ$0
__ehfuncinfo$?Clone@ioLoginTimeMission@@UAEPAVioMission@@XZ DD 019930522H
	DD	01H
	DD	FLAT:__unwindtable$?Clone@ioLoginTimeMission@@UAEPAVioMission@@XZ
	DD	2 DUP(00H)
	DD	2 DUP(00H)
	DD	00H
	DD	01H
; Function compile flags: /Ogsp
xdata$x	ENDS
;	COMDAT ?Clone@ioLoginTimeMission@@UAEPAVioMission@@XZ
_TEXT	SEGMENT
$T517593 = -16						; size = 4
__$EHRec$ = -12						; size = 12
?Clone@ioLoginTimeMission@@UAEPAVioMission@@XZ PROC	; ioLoginTimeMission::Clone, COMDAT
; _this$ = ecx

; 296  : {

  00000	6a 04		 push	 4
  00002	b8 00 00 00 00	 mov	 eax, __ehhandler$?Clone@ioLoginTimeMission@@UAEPAVioMission@@XZ
  00007	e8 00 00 00 00	 call	 __EH_prolog3
  0000c	8b f1		 mov	 esi, ecx

; 297  : 	return new ioLoginTimeMission( *this );

  0000e	68 80 00 00 00	 push	 128			; 00000080H
  00013	e8 00 00 00 00	 call	 ??2@YAPAXI@Z		; operator new
  00018	59		 pop	 ecx
  00019	8b c8		 mov	 ecx, eax
  0001b	89 4d f0	 mov	 DWORD PTR $T517593[ebp], ecx
  0001e	33 c0		 xor	 eax, eax
  00020	89 45 fc	 mov	 DWORD PTR __$EHRec$[ebp+8], eax
  00023	3b c8		 cmp	 ecx, eax
  00025	74 06		 je	 SHORT $LN3@Clone
  00027	56		 push	 esi
  00028	e8 00 00 00 00	 call	 ??0ioLoginTimeMission@@QAE@ABV0@@Z ; ioLoginTimeMission::ioLoginTimeMission
$LN3@Clone:

; 298  : }

  0002d	e8 00 00 00 00	 call	 __EH_epilog3
  00032	c3		 ret	 0
_TEXT	ENDS
;	COMDAT text$x
text$x	SEGMENT
__unwindfunclet$?Clone@ioLoginTimeMission@@UAEPAVioMission@@XZ$0:
  00000	ff 75 f0	 push	 DWORD PTR $T517593[ebp]
  00003	e8 00 00 00 00	 call	 ??3@YAXPAX@Z		; operator delete
  00008	59		 pop	 ecx
  00009	c3		 ret	 0
__ehhandler$?Clone@ioLoginTimeMission@@UAEPAVioMission@@XZ:
  0000a	8b 54 24 08	 mov	 edx, DWORD PTR [esp+8]
  0000e	8d 42 0c	 lea	 eax, DWORD PTR [edx+12]
  00011	8b 4a ec	 mov	 ecx, DWORD PTR [edx-20]
  00014	33 c8		 xor	 ecx, eax
  00016	e8 00 00 00 00	 call	 @__security_check_cookie@4
  0001b	b8 00 00 00 00	 mov	 eax, OFFSET __ehfuncinfo$?Clone@ioLoginTimeMission@@UAEPAVioMission@@XZ
  00020	e9 00 00 00 00	 jmp	 ___CxxFrameHandler3
text$x	ENDS
?Clone@ioLoginTimeMission@@UAEPAVioMission@@XZ ENDP	; ioLoginTimeMission::Clone
PUBLIC	??_7ioFishingMission@@6B@			; ioFishingMission::`vftable'
PUBLIC	??0ioFishingMission@@QAE@XZ			; ioFishingMission::ioFishingMission
PUBLIC	??_R4ioFishingMission@@6B@			; ioFishingMission::`RTTI Complete Object Locator'
PUBLIC	??_R0?AVioFishingMission@@@8			; ioFishingMission `RTTI Type Descriptor'
PUBLIC	??_R3ioFishingMission@@8			; ioFishingMission::`RTTI Class Hierarchy Descriptor'
PUBLIC	??_R2ioFishingMission@@8			; ioFishingMission::`RTTI Base Class Array'
PUBLIC	??_R1A@?0A@EA@ioFishingMission@@8		; ioFishingMission::`RTTI Base Class Descriptor at (0,-1,0,64)'
PUBLIC	?GetMaxAchieveValue@ioFishingMission@@UBEABHXZ	; ioFishingMission::GetMaxAchieveValue
PUBLIC	?Clone@ioFishingMission@@UAEPAVioMission@@XZ	; ioFishingMission::Clone
EXTRN	??_EioFishingMission@@UAEPAXI@Z:PROC		; ioFishingMission::`vector deleting destructor'
;	COMDAT ??_R1A@?0A@EA@ioFishingMission@@8
rdata$r	SEGMENT
??_R1A@?0A@EA@ioFishingMission@@8 DD FLAT:??_R0?AVioFishingMission@@@8 ; ioFishingMission::`RTTI Base Class Descriptor at (0,-1,0,64)'
	DD	01H
	DD	00H
	DD	0ffffffffH
	DD	00H
	DD	040H
	DD	FLAT:??_R3ioFishingMission@@8
rdata$r	ENDS
;	COMDAT ??_R2ioFishingMission@@8
rdata$r	SEGMENT
??_R2ioFishingMission@@8 DD FLAT:??_R1A@?0A@EA@ioFishingMission@@8 ; ioFishingMission::`RTTI Base Class Array'
	DD	FLAT:??_R1A@?0A@EA@ioMission@@8
rdata$r	ENDS
;	COMDAT ??_R3ioFishingMission@@8
rdata$r	SEGMENT
??_R3ioFishingMission@@8 DD 00H				; ioFishingMission::`RTTI Class Hierarchy Descriptor'
	DD	00H
	DD	02H
	DD	FLAT:??_R2ioFishingMission@@8
rdata$r	ENDS
;	COMDAT ??_R0?AVioFishingMission@@@8
_DATA	SEGMENT
??_R0?AVioFishingMission@@@8 DD FLAT:??_7type_info@@6B@	; ioFishingMission `RTTI Type Descriptor'
	DD	00H
	DB	'.?AVioFishingMission@@', 00H
_DATA	ENDS
;	COMDAT ??_R4ioFishingMission@@6B@
rdata$r	SEGMENT
??_R4ioFishingMission@@6B@ DD 00H			; ioFishingMission::`RTTI Complete Object Locator'
	DD	00H
	DD	00H
	DD	FLAT:??_R0?AVioFishingMission@@@8
	DD	FLAT:??_R3ioFishingMission@@8
rdata$r	ENDS
;	COMDAT ??_7ioFishingMission@@6B@
CONST	SEGMENT
??_7ioFishingMission@@6B@ DD FLAT:??_R4ioFishingMission@@6B@ ; ioFishingMission::`vftable'
	DD	FLAT:?GetMaxAchieveValue@ioFishingMission@@UBEABHXZ
	DD	FLAT:?Init@ioMission@@UAEXPBDAAVioINILoader@@@Z
	DD	FLAT:?Process@ioMission@@UAE_NXZ
	DD	FLAT:?Clone@ioFishingMission@@UAEPAVioMission@@XZ
	DD	FLAT:??_EioFishingMission@@UAEPAXI@Z
; Function compile flags: /Ogsp
CONST	ENDS
;	COMDAT ??0ioFishingMission@@QAE@XZ
_TEXT	SEGMENT
??0ioFishingMission@@QAE@XZ PROC			; ioFishingMission::ioFishingMission, COMDAT
; _this$ = ecx

; 302  : {

  00000	56		 push	 esi
  00001	8b f1		 mov	 esi, ecx
  00003	e8 00 00 00 00	 call	 ??0ioMission@@QAE@XZ	; ioMission::ioMission
  00008	c7 06 00 00 00
	00		 mov	 DWORD PTR [esi], OFFSET ??_7ioFishingMission@@6B@

; 303  : 
; 304  : }

  0000e	8b c6		 mov	 eax, esi
  00010	5e		 pop	 esi
  00011	c3		 ret	 0
??0ioFishingMission@@QAE@XZ ENDP			; ioFishingMission::ioFishingMission
; Function compile flags: /Ogsp
; File d:\lost saga for developer\youtube\tutorial\source\src\lsclient\iomission.h
_TEXT	ENDS
;	COMDAT ?GetMaxAchieveValue@ioFishingMission@@UBEABHXZ
_TEXT	SEGMENT
?GetMaxAchieveValue@ioFishingMission@@UBEABHXZ PROC	; ioFishingMission::GetMaxAchieveValue, COMDAT
; _this$ = ecx

; 164  : 	virtual const int&  GetMaxAchieveValue() const { return m_iValue1; }

  00000	8d 41 10	 lea	 eax, DWORD PTR [ecx+16]
  00003	c3		 ret	 0
?GetMaxAchieveValue@ioFishingMission@@UBEABHXZ ENDP	; ioFishingMission::GetMaxAchieveValue
_TEXT	ENDS
PUBLIC	??0ioFishingMission@@QAE@ABV0@@Z		; ioFishingMission::ioFishingMission
; Function compile flags: /Ogsp
; File d:\lost saga for developer\youtube\tutorial\source\src\lsclient\iomission.cpp
;	COMDAT ??0ioFishingMission@@QAE@ABV0@@Z
_TEXT	SEGMENT
_rhs$ = 8						; size = 4
??0ioFishingMission@@QAE@ABV0@@Z PROC			; ioFishingMission::ioFishingMission, COMDAT
; _this$ = ecx

; 308  : {

  00000	55		 push	 ebp
  00001	8b ec		 mov	 ebp, esp
  00003	56		 push	 esi
  00004	ff 75 08	 push	 DWORD PTR _rhs$[ebp]
  00007	8b f1		 mov	 esi, ecx
  00009	e8 00 00 00 00	 call	 ??0ioMission@@QAE@ABV0@@Z ; ioMission::ioMission
  0000e	c7 06 00 00 00
	00		 mov	 DWORD PTR [esi], OFFSET ??_7ioFishingMission@@6B@

; 309  : 
; 310  : }

  00014	8b c6		 mov	 eax, esi
  00016	5e		 pop	 esi
  00017	5d		 pop	 ebp
  00018	c2 04 00	 ret	 4
??0ioFishingMission@@QAE@ABV0@@Z ENDP			; ioFishingMission::ioFishingMission
_TEXT	ENDS
PUBLIC	??1ioFishingMission@@UAE@XZ			; ioFishingMission::~ioFishingMission
; Function compile flags: /Ogsp
;	COMDAT ??1ioFishingMission@@UAE@XZ
_TEXT	SEGMENT
??1ioFishingMission@@UAE@XZ PROC			; ioFishingMission::~ioFishingMission, COMDAT
; _this$ = ecx

; 313  : {

  00000	c7 01 00 00 00
	00		 mov	 DWORD PTR [ecx], OFFSET ??_7ioFishingMission@@6B@

; 314  : 
; 315  : }

  00006	e9 00 00 00 00	 jmp	 ??1ioMission@@QAE@XZ	; ioMission::~ioMission
??1ioFishingMission@@UAE@XZ ENDP			; ioFishingMission::~ioFishingMission
_TEXT	ENDS
;	COMDAT xdata$x
xdata$x	SEGMENT
__unwindtable$?Clone@ioFishingMission@@UAEPAVioMission@@XZ DD 0ffffffffH
	DD	FLAT:__unwindfunclet$?Clone@ioFishingMission@@UAEPAVioMission@@XZ$0
__ehfuncinfo$?Clone@ioFishingMission@@UAEPAVioMission@@XZ DD 019930522H
	DD	01H
	DD	FLAT:__unwindtable$?Clone@ioFishingMission@@UAEPAVioMission@@XZ
	DD	2 DUP(00H)
	DD	2 DUP(00H)
	DD	00H
	DD	01H
; Function compile flags: /Ogsp
xdata$x	ENDS
;	COMDAT ?Clone@ioFishingMission@@UAEPAVioMission@@XZ
_TEXT	SEGMENT
$T517621 = -16						; size = 4
__$EHRec$ = -12						; size = 12
?Clone@ioFishingMission@@UAEPAVioMission@@XZ PROC	; ioFishingMission::Clone, COMDAT
; _this$ = ecx

; 318  : {

  00000	6a 04		 push	 4
  00002	b8 00 00 00 00	 mov	 eax, __ehhandler$?Clone@ioFishingMission@@UAEPAVioMission@@XZ
  00007	e8 00 00 00 00	 call	 __EH_prolog3
  0000c	8b f1		 mov	 esi, ecx

; 319  : 	return new ioFishingMission( *this );

  0000e	6a 6c		 push	 108			; 0000006cH
  00010	e8 00 00 00 00	 call	 ??2@YAPAXI@Z		; operator new
  00015	59		 pop	 ecx
  00016	8b c8		 mov	 ecx, eax
  00018	89 4d f0	 mov	 DWORD PTR $T517621[ebp], ecx
  0001b	33 c0		 xor	 eax, eax
  0001d	89 45 fc	 mov	 DWORD PTR __$EHRec$[ebp+8], eax
  00020	3b c8		 cmp	 ecx, eax
  00022	74 06		 je	 SHORT $LN3@Clone@2
  00024	56		 push	 esi
  00025	e8 00 00 00 00	 call	 ??0ioFishingMission@@QAE@ABV0@@Z ; ioFishingMission::ioFishingMission
$LN3@Clone@2:

; 320  : }

  0002a	e8 00 00 00 00	 call	 __EH_epilog3
  0002f	c3		 ret	 0
_TEXT	ENDS
;	COMDAT text$x
text$x	SEGMENT
__unwindfunclet$?Clone@ioFishingMission@@UAEPAVioMission@@XZ$0:
  00000	ff 75 f0	 push	 DWORD PTR $T517621[ebp]
  00003	e8 00 00 00 00	 call	 ??3@YAXPAX@Z		; operator delete
  00008	59		 pop	 ecx
  00009	c3		 ret	 0
__ehhandler$?Clone@ioFishingMission@@UAEPAVioMission@@XZ:
  0000a	8b 54 24 08	 mov	 edx, DWORD PTR [esp+8]
  0000e	8d 42 0c	 lea	 eax, DWORD PTR [edx+12]
  00011	8b 4a ec	 mov	 ecx, DWORD PTR [edx-20]
  00014	33 c8		 xor	 ecx, eax
  00016	e8 00 00 00 00	 call	 @__security_check_cookie@4
  0001b	b8 00 00 00 00	 mov	 eax, OFFSET __ehfuncinfo$?Clone@ioFishingMission@@UAEPAVioMission@@XZ
  00020	e9 00 00 00 00	 jmp	 ___CxxFrameHandler3
text$x	ENDS
?Clone@ioFishingMission@@UAEPAVioMission@@XZ ENDP	; ioFishingMission::Clone
PUBLIC	??_7ioPesoCollectMission@@6B@			; ioPesoCollectMission::`vftable'
PUBLIC	??0ioPesoCollectMission@@QAE@XZ			; ioPesoCollectMission::ioPesoCollectMission
PUBLIC	??_R4ioPesoCollectMission@@6B@			; ioPesoCollectMission::`RTTI Complete Object Locator'
PUBLIC	??_R0?AVioPesoCollectMission@@@8		; ioPesoCollectMission `RTTI Type Descriptor'
PUBLIC	??_R3ioPesoCollectMission@@8			; ioPesoCollectMission::`RTTI Class Hierarchy Descriptor'
PUBLIC	??_R2ioPesoCollectMission@@8			; ioPesoCollectMission::`RTTI Base Class Array'
PUBLIC	??_R1A@?0A@EA@ioPesoCollectMission@@8		; ioPesoCollectMission::`RTTI Base Class Descriptor at (0,-1,0,64)'
PUBLIC	?GetMaxAchieveValue@ioPesoCollectMission@@UBEABHXZ ; ioPesoCollectMission::GetMaxAchieveValue
PUBLIC	?Clone@ioPesoCollectMission@@UAEPAVioMission@@XZ ; ioPesoCollectMission::Clone
EXTRN	??_EioPesoCollectMission@@UAEPAXI@Z:PROC	; ioPesoCollectMission::`vector deleting destructor'
;	COMDAT ??_R1A@?0A@EA@ioPesoCollectMission@@8
rdata$r	SEGMENT
??_R1A@?0A@EA@ioPesoCollectMission@@8 DD FLAT:??_R0?AVioPesoCollectMission@@@8 ; ioPesoCollectMission::`RTTI Base Class Descriptor at (0,-1,0,64)'
	DD	01H
	DD	00H
	DD	0ffffffffH
	DD	00H
	DD	040H
	DD	FLAT:??_R3ioPesoCollectMission@@8
rdata$r	ENDS
;	COMDAT ??_R2ioPesoCollectMission@@8
rdata$r	SEGMENT
??_R2ioPesoCollectMission@@8 DD FLAT:??_R1A@?0A@EA@ioPesoCollectMission@@8 ; ioPesoCollectMission::`RTTI Base Class Array'
	DD	FLAT:??_R1A@?0A@EA@ioMission@@8
rdata$r	ENDS
;	COMDAT ??_R3ioPesoCollectMission@@8
rdata$r	SEGMENT
??_R3ioPesoCollectMission@@8 DD 00H			; ioPesoCollectMission::`RTTI Class Hierarchy Descriptor'
	DD	00H
	DD	02H
	DD	FLAT:??_R2ioPesoCollectMission@@8
rdata$r	ENDS
;	COMDAT ??_R0?AVioPesoCollectMission@@@8
_DATA	SEGMENT
??_R0?AVioPesoCollectMission@@@8 DD FLAT:??_7type_info@@6B@ ; ioPesoCollectMission `RTTI Type Descriptor'
	DD	00H
	DB	'.?AVioPesoCollectMission@@', 00H
_DATA	ENDS
;	COMDAT ??_R4ioPesoCollectMission@@6B@
rdata$r	SEGMENT
??_R4ioPesoCollectMission@@6B@ DD 00H			; ioPesoCollectMission::`RTTI Complete Object Locator'
	DD	00H
	DD	00H
	DD	FLAT:??_R0?AVioPesoCollectMission@@@8
	DD	FLAT:??_R3ioPesoCollectMission@@8
rdata$r	ENDS
;	COMDAT ??_7ioPesoCollectMission@@6B@
CONST	SEGMENT
??_7ioPesoCollectMission@@6B@ DD FLAT:??_R4ioPesoCollectMission@@6B@ ; ioPesoCollectMission::`vftable'
	DD	FLAT:?GetMaxAchieveValue@ioPesoCollectMission@@UBEABHXZ
	DD	FLAT:?Init@ioMission@@UAEXPBDAAVioINILoader@@@Z
	DD	FLAT:?Process@ioMission@@UAE_NXZ
	DD	FLAT:?Clone@ioPesoCollectMission@@UAEPAVioMission@@XZ
	DD	FLAT:??_EioPesoCollectMission@@UAEPAXI@Z
; Function compile flags: /Ogsp
CONST	ENDS
;	COMDAT ??0ioPesoCollectMission@@QAE@XZ
_TEXT	SEGMENT
??0ioPesoCollectMission@@QAE@XZ PROC			; ioPesoCollectMission::ioPesoCollectMission, COMDAT
; _this$ = ecx

; 324  : {

  00000	56		 push	 esi
  00001	8b f1		 mov	 esi, ecx
  00003	e8 00 00 00 00	 call	 ??0ioMission@@QAE@XZ	; ioMission::ioMission
  00008	c7 06 00 00 00
	00		 mov	 DWORD PTR [esi], OFFSET ??_7ioPesoCollectMission@@6B@

; 325  : 
; 326  : }

  0000e	8b c6		 mov	 eax, esi
  00010	5e		 pop	 esi
  00011	c3		 ret	 0
??0ioPesoCollectMission@@QAE@XZ ENDP			; ioPesoCollectMission::ioPesoCollectMission
; Function compile flags: /Ogsp
; File d:\lost saga for developer\youtube\tutorial\source\src\lsclient\iomission.h
_TEXT	ENDS
;	COMDAT ?GetMaxAchieveValue@ioPesoCollectMission@@UBEABHXZ
_TEXT	SEGMENT
?GetMaxAchieveValue@ioPesoCollectMission@@UBEABHXZ PROC	; ioPesoCollectMission::GetMaxAchieveValue, COMDAT
; _this$ = ecx

; 177  : 	virtual const int&  GetMaxAchieveValue() const { return m_iValue1; }

  00000	8d 41 10	 lea	 eax, DWORD PTR [ecx+16]
  00003	c3		 ret	 0
?GetMaxAchieveValue@ioPesoCollectMission@@UBEABHXZ ENDP	; ioPesoCollectMission::GetMaxAchieveValue
_TEXT	ENDS
PUBLIC	??0ioPesoCollectMission@@QAE@ABV0@@Z		; ioPesoCollectMission::ioPesoCollectMission
; Function compile flags: /Ogsp
; File d:\lost saga for developer\youtube\tutorial\source\src\lsclient\iomission.cpp
;	COMDAT ??0ioPesoCollectMission@@QAE@ABV0@@Z
_TEXT	SEGMENT
_rhs$ = 8						; size = 4
??0ioPesoCollectMission@@QAE@ABV0@@Z PROC		; ioPesoCollectMission::ioPesoCollectMission, COMDAT
; _this$ = ecx

; 330  : {

  00000	55		 push	 ebp
  00001	8b ec		 mov	 ebp, esp
  00003	56		 push	 esi
  00004	ff 75 08	 push	 DWORD PTR _rhs$[ebp]
  00007	8b f1		 mov	 esi, ecx
  00009	e8 00 00 00 00	 call	 ??0ioMission@@QAE@ABV0@@Z ; ioMission::ioMission
  0000e	c7 06 00 00 00
	00		 mov	 DWORD PTR [esi], OFFSET ??_7ioPesoCollectMission@@6B@

; 331  : 
; 332  : }

  00014	8b c6		 mov	 eax, esi
  00016	5e		 pop	 esi
  00017	5d		 pop	 ebp
  00018	c2 04 00	 ret	 4
??0ioPesoCollectMission@@QAE@ABV0@@Z ENDP		; ioPesoCollectMission::ioPesoCollectMission
_TEXT	ENDS
PUBLIC	??1ioPesoCollectMission@@UAE@XZ			; ioPesoCollectMission::~ioPesoCollectMission
; Function compile flags: /Ogsp
;	COMDAT ??1ioPesoCollectMission@@UAE@XZ
_TEXT	SEGMENT
??1ioPesoCollectMission@@UAE@XZ PROC			; ioPesoCollectMission::~ioPesoCollectMission, COMDAT
; _this$ = ecx

; 335  : {

  00000	c7 01 00 00 00
	00		 mov	 DWORD PTR [ecx], OFFSET ??_7ioPesoCollectMission@@6B@

; 336  : 
; 337  : }

  00006	e9 00 00 00 00	 jmp	 ??1ioMission@@QAE@XZ	; ioMission::~ioMission
??1ioPesoCollectMission@@UAE@XZ ENDP			; ioPesoCollectMission::~ioPesoCollectMission
_TEXT	ENDS
;	COMDAT xdata$x
xdata$x	SEGMENT
__unwindtable$?Clone@ioPesoCollectMission@@UAEPAVioMission@@XZ DD 0ffffffffH
	DD	FLAT:__unwindfunclet$?Clone@ioPesoCollectMission@@UAEPAVioMission@@XZ$0
__ehfuncinfo$?Clone@ioPesoCollectMission@@UAEPAVioMission@@XZ DD 019930522H
	DD	01H
	DD	FLAT:__unwindtable$?Clone@ioPesoCollectMission@@UAEPAVioMission@@XZ
	DD	2 DUP(00H)
	DD	2 DUP(00H)
	DD	00H
	DD	01H
; Function compile flags: /Ogsp
xdata$x	ENDS
;	COMDAT ?Clone@ioPesoCollectMission@@UAEPAVioMission@@XZ
_TEXT	SEGMENT
$T517649 = -16						; size = 4
__$EHRec$ = -12						; size = 12
?Clone@ioPesoCollectMission@@UAEPAVioMission@@XZ PROC	; ioPesoCollectMission::Clone, COMDAT
; _this$ = ecx

; 340  : {

  00000	6a 04		 push	 4
  00002	b8 00 00 00 00	 mov	 eax, __ehhandler$?Clone@ioPesoCollectMission@@UAEPAVioMission@@XZ
  00007	e8 00 00 00 00	 call	 __EH_prolog3
  0000c	8b f1		 mov	 esi, ecx

; 341  : 	return new ioPesoCollectMission( *this );

  0000e	6a 6c		 push	 108			; 0000006cH
  00010	e8 00 00 00 00	 call	 ??2@YAPAXI@Z		; operator new
  00015	59		 pop	 ecx
  00016	8b c8		 mov	 ecx, eax
  00018	89 4d f0	 mov	 DWORD PTR $T517649[ebp], ecx
  0001b	33 c0		 xor	 eax, eax
  0001d	89 45 fc	 mov	 DWORD PTR __$EHRec$[ebp+8], eax
  00020	3b c8		 cmp	 ecx, eax
  00022	74 06		 je	 SHORT $LN3@Clone@3
  00024	56		 push	 esi
  00025	e8 00 00 00 00	 call	 ??0ioPesoCollectMission@@QAE@ABV0@@Z ; ioPesoCollectMission::ioPesoCollectMission
$LN3@Clone@3:

; 342  : }

  0002a	e8 00 00 00 00	 call	 __EH_epilog3
  0002f	c3		 ret	 0
_TEXT	ENDS
;	COMDAT text$x
text$x	SEGMENT
__unwindfunclet$?Clone@ioPesoCollectMission@@UAEPAVioMission@@XZ$0:
  00000	ff 75 f0	 push	 DWORD PTR $T517649[ebp]
  00003	e8 00 00 00 00	 call	 ??3@YAXPAX@Z		; operator delete
  00008	59		 pop	 ecx
  00009	c3		 ret	 0
__ehhandler$?Clone@ioPesoCollectMission@@UAEPAVioMission@@XZ:
  0000a	8b 54 24 08	 mov	 edx, DWORD PTR [esp+8]
  0000e	8d 42 0c	 lea	 eax, DWORD PTR [edx+12]
  00011	8b 4a ec	 mov	 ecx, DWORD PTR [edx-20]
  00014	33 c8		 xor	 ecx, eax
  00016	e8 00 00 00 00	 call	 @__security_check_cookie@4
  0001b	b8 00 00 00 00	 mov	 eax, OFFSET __ehfuncinfo$?Clone@ioPesoCollectMission@@UAEPAVioMission@@XZ
  00020	e9 00 00 00 00	 jmp	 ___CxxFrameHandler3
text$x	ENDS
?Clone@ioPesoCollectMission@@UAEPAVioMission@@XZ ENDP	; ioPesoCollectMission::Clone
PUBLIC	??_7ioMonsterKillMission@@6B@			; ioMonsterKillMission::`vftable'
PUBLIC	??0ioMonsterKillMission@@QAE@XZ			; ioMonsterKillMission::ioMonsterKillMission
PUBLIC	??_R4ioMonsterKillMission@@6B@			; ioMonsterKillMission::`RTTI Complete Object Locator'
PUBLIC	??_R0?AVioMonsterKillMission@@@8		; ioMonsterKillMission `RTTI Type Descriptor'
PUBLIC	??_R3ioMonsterKillMission@@8			; ioMonsterKillMission::`RTTI Class Hierarchy Descriptor'
PUBLIC	??_R2ioMonsterKillMission@@8			; ioMonsterKillMission::`RTTI Base Class Array'
PUBLIC	??_R1A@?0A@EA@ioMonsterKillMission@@8		; ioMonsterKillMission::`RTTI Base Class Descriptor at (0,-1,0,64)'
PUBLIC	?GetMaxAchieveValue@ioMonsterKillMission@@UBEABHXZ ; ioMonsterKillMission::GetMaxAchieveValue
PUBLIC	?Clone@ioMonsterKillMission@@UAEPAVioMission@@XZ ; ioMonsterKillMission::Clone
EXTRN	??_EioMonsterKillMission@@UAEPAXI@Z:PROC	; ioMonsterKillMission::`vector deleting destructor'
;	COMDAT ??_R1A@?0A@EA@ioMonsterKillMission@@8
rdata$r	SEGMENT
??_R1A@?0A@EA@ioMonsterKillMission@@8 DD FLAT:??_R0?AVioMonsterKillMission@@@8 ; ioMonsterKillMission::`RTTI Base Class Descriptor at (0,-1,0,64)'
	DD	01H
	DD	00H
	DD	0ffffffffH
	DD	00H
	DD	040H
	DD	FLAT:??_R3ioMonsterKillMission@@8
rdata$r	ENDS
;	COMDAT ??_R2ioMonsterKillMission@@8
rdata$r	SEGMENT
??_R2ioMonsterKillMission@@8 DD FLAT:??_R1A@?0A@EA@ioMonsterKillMission@@8 ; ioMonsterKillMission::`RTTI Base Class Array'
	DD	FLAT:??_R1A@?0A@EA@ioMission@@8
rdata$r	ENDS
;	COMDAT ??_R3ioMonsterKillMission@@8
rdata$r	SEGMENT
??_R3ioMonsterKillMission@@8 DD 00H			; ioMonsterKillMission::`RTTI Class Hierarchy Descriptor'
	DD	00H
	DD	02H
	DD	FLAT:??_R2ioMonsterKillMission@@8
rdata$r	ENDS
;	COMDAT ??_R0?AVioMonsterKillMission@@@8
_DATA	SEGMENT
??_R0?AVioMonsterKillMission@@@8 DD FLAT:??_7type_info@@6B@ ; ioMonsterKillMission `RTTI Type Descriptor'
	DD	00H
	DB	'.?AVioMonsterKillMission@@', 00H
_DATA	ENDS
;	COMDAT ??_R4ioMonsterKillMission@@6B@
rdata$r	SEGMENT
??_R4ioMonsterKillMission@@6B@ DD 00H			; ioMonsterKillMission::`RTTI Complete Object Locator'
	DD	00H
	DD	00H
	DD	FLAT:??_R0?AVioMonsterKillMission@@@8
	DD	FLAT:??_R3ioMonsterKillMission@@8
rdata$r	ENDS
;	COMDAT ??_7ioMonsterKillMission@@6B@
CONST	SEGMENT
??_7ioMonsterKillMission@@6B@ DD FLAT:??_R4ioMonsterKillMission@@6B@ ; ioMonsterKillMission::`vftable'
	DD	FLAT:?GetMaxAchieveValue@ioMonsterKillMission@@UBEABHXZ
	DD	FLAT:?Init@ioMission@@UAEXPBDAAVioINILoader@@@Z
	DD	FLAT:?Process@ioMission@@UAE_NXZ
	DD	FLAT:?Clone@ioMonsterKillMission@@UAEPAVioMission@@XZ
	DD	FLAT:??_EioMonsterKillMission@@UAEPAXI@Z
; Function compile flags: /Ogsp
CONST	ENDS
;	COMDAT ??0ioMonsterKillMission@@QAE@XZ
_TEXT	SEGMENT
??0ioMonsterKillMission@@QAE@XZ PROC			; ioMonsterKillMission::ioMonsterKillMission, COMDAT
; _this$ = ecx

; 346  : {

  00000	56		 push	 esi
  00001	8b f1		 mov	 esi, ecx
  00003	e8 00 00 00 00	 call	 ??0ioMission@@QAE@XZ	; ioMission::ioMission
  00008	c7 06 00 00 00
	00		 mov	 DWORD PTR [esi], OFFSET ??_7ioMonsterKillMission@@6B@

; 347  : 
; 348  : }

  0000e	8b c6		 mov	 eax, esi
  00010	5e		 pop	 esi
  00011	c3		 ret	 0
??0ioMonsterKillMission@@QAE@XZ ENDP			; ioMonsterKillMission::ioMonsterKillMission
; Function compile flags: /Ogsp
; File d:\lost saga for developer\youtube\tutorial\source\src\lsclient\iomission.h
_TEXT	ENDS
;	COMDAT ?GetMaxAchieveValue@ioMonsterKillMission@@UBEABHXZ
_TEXT	SEGMENT
?GetMaxAchieveValue@ioMonsterKillMission@@UBEABHXZ PROC	; ioMonsterKillMission::GetMaxAchieveValue, COMDAT
; _this$ = ecx

; 190  : 	virtual const int&  GetMaxAchieveValue() const { return m_iValue1; }

  00000	8d 41 10	 lea	 eax, DWORD PTR [ecx+16]
  00003	c3		 ret	 0
?GetMaxAchieveValue@ioMonsterKillMission@@UBEABHXZ ENDP	; ioMonsterKillMission::GetMaxAchieveValue
_TEXT	ENDS
PUBLIC	??0ioMonsterKillMission@@QAE@ABV0@@Z		; ioMonsterKillMission::ioMonsterKillMission
; Function compile flags: /Ogsp
; File d:\lost saga for developer\youtube\tutorial\source\src\lsclient\iomission.cpp
;	COMDAT ??0ioMonsterKillMission@@QAE@ABV0@@Z
_TEXT	SEGMENT
_rhs$ = 8						; size = 4
??0ioMonsterKillMission@@QAE@ABV0@@Z PROC		; ioMonsterKillMission::ioMonsterKillMission, COMDAT
; _this$ = ecx

; 352  : {

  00000	55		 push	 ebp
  00001	8b ec		 mov	 ebp, esp
  00003	56		 push	 esi
  00004	ff 75 08	 push	 DWORD PTR _rhs$[ebp]
  00007	8b f1		 mov	 esi, ecx
  00009	e8 00 00 00 00	 call	 ??0ioMission@@QAE@ABV0@@Z ; ioMission::ioMission
  0000e	c7 06 00 00 00
	00		 mov	 DWORD PTR [esi], OFFSET ??_7ioMonsterKillMission@@6B@

; 353  : 
; 354  : }

  00014	8b c6		 mov	 eax, esi
  00016	5e		 pop	 esi
  00017	5d		 pop	 ebp
  00018	c2 04 00	 ret	 4
??0ioMonsterKillMission@@QAE@ABV0@@Z ENDP		; ioMonsterKillMission::ioMonsterKillMission
_TEXT	ENDS
PUBLIC	??1ioMonsterKillMission@@UAE@XZ			; ioMonsterKillMission::~ioMonsterKillMission
; Function compile flags: /Ogsp
;	COMDAT ??1ioMonsterKillMission@@UAE@XZ
_TEXT	SEGMENT
??1ioMonsterKillMission@@UAE@XZ PROC			; ioMonsterKillMission::~ioMonsterKillMission, COMDAT
; _this$ = ecx

; 357  : {

  00000	c7 01 00 00 00
	00		 mov	 DWORD PTR [ecx], OFFSET ??_7ioMonsterKillMission@@6B@

; 358  : 
; 359  : }

  00006	e9 00 00 00 00	 jmp	 ??1ioMission@@QAE@XZ	; ioMission::~ioMission
??1ioMonsterKillMission@@UAE@XZ ENDP			; ioMonsterKillMission::~ioMonsterKillMission
_TEXT	ENDS
;	COMDAT xdata$x
xdata$x	SEGMENT
__unwindtable$?Clone@ioMonsterKillMission@@UAEPAVioMission@@XZ DD 0ffffffffH
	DD	FLAT:__unwindfunclet$?Clone@ioMonsterKillMission@@UAEPAVioMission@@XZ$0
__ehfuncinfo$?Clone@ioMonsterKillMission@@UAEPAVioMission@@XZ DD 019930522H
	DD	01H
	DD	FLAT:__unwindtable$?Clone@ioMonsterKillMission@@UAEPAVioMission@@XZ
	DD	2 DUP(00H)
	DD	2 DUP(00H)
	DD	00H
	DD	01H
; Function compile flags: /Ogsp
xdata$x	ENDS
;	COMDAT ?Clone@ioMonsterKillMission@@UAEPAVioMission@@XZ
_TEXT	SEGMENT
$T517677 = -16						; size = 4
__$EHRec$ = -12						; size = 12
?Clone@ioMonsterKillMission@@UAEPAVioMission@@XZ PROC	; ioMonsterKillMission::Clone, COMDAT
; _this$ = ecx

; 362  : {

  00000	6a 04		 push	 4
  00002	b8 00 00 00 00	 mov	 eax, __ehhandler$?Clone@ioMonsterKillMission@@UAEPAVioMission@@XZ
  00007	e8 00 00 00 00	 call	 __EH_prolog3
  0000c	8b f1		 mov	 esi, ecx

; 363  : 	return new ioMonsterKillMission( *this );

  0000e	6a 6c		 push	 108			; 0000006cH
  00010	e8 00 00 00 00	 call	 ??2@YAPAXI@Z		; operator new
  00015	59		 pop	 ecx
  00016	8b c8		 mov	 ecx, eax
  00018	89 4d f0	 mov	 DWORD PTR $T517677[ebp], ecx
  0001b	33 c0		 xor	 eax, eax
  0001d	89 45 fc	 mov	 DWORD PTR __$EHRec$[ebp+8], eax
  00020	3b c8		 cmp	 ecx, eax
  00022	74 06		 je	 SHORT $LN3@Clone@4
  00024	56		 push	 esi
  00025	e8 00 00 00 00	 call	 ??0ioMonsterKillMission@@QAE@ABV0@@Z ; ioMonsterKillMission::ioMonsterKillMission
$LN3@Clone@4:

; 364  : }

  0002a	e8 00 00 00 00	 call	 __EH_epilog3
  0002f	c3		 ret	 0
_TEXT	ENDS
;	COMDAT text$x
text$x	SEGMENT
__unwindfunclet$?Clone@ioMonsterKillMission@@UAEPAVioMission@@XZ$0:
  00000	ff 75 f0	 push	 DWORD PTR $T517677[ebp]
  00003	e8 00 00 00 00	 call	 ??3@YAXPAX@Z		; operator delete
  00008	59		 pop	 ecx
  00009	c3		 ret	 0
__ehhandler$?Clone@ioMonsterKillMission@@UAEPAVioMission@@XZ:
  0000a	8b 54 24 08	 mov	 edx, DWORD PTR [esp+8]
  0000e	8d 42 0c	 lea	 eax, DWORD PTR [edx+12]
  00011	8b 4a ec	 mov	 ecx, DWORD PTR [edx-20]
  00014	33 c8		 xor	 ecx, eax
  00016	e8 00 00 00 00	 call	 @__security_check_cookie@4
  0001b	b8 00 00 00 00	 mov	 eax, OFFSET __ehfuncinfo$?Clone@ioMonsterKillMission@@UAEPAVioMission@@XZ
  00020	e9 00 00 00 00	 jmp	 ___CxxFrameHandler3
text$x	ENDS
?Clone@ioMonsterKillMission@@UAEPAVioMission@@XZ ENDP	; ioMonsterKillMission::Clone
PUBLIC	??_7ioItemBuyMission@@6B@			; ioItemBuyMission::`vftable'
PUBLIC	??0ioItemBuyMission@@QAE@XZ			; ioItemBuyMission::ioItemBuyMission
PUBLIC	??_R4ioItemBuyMission@@6B@			; ioItemBuyMission::`RTTI Complete Object Locator'
PUBLIC	??_R0?AVioItemBuyMission@@@8			; ioItemBuyMission `RTTI Type Descriptor'
PUBLIC	??_R3ioItemBuyMission@@8			; ioItemBuyMission::`RTTI Class Hierarchy Descriptor'
PUBLIC	??_R2ioItemBuyMission@@8			; ioItemBuyMission::`RTTI Base Class Array'
PUBLIC	??_R1A@?0A@EA@ioItemBuyMission@@8		; ioItemBuyMission::`RTTI Base Class Descriptor at (0,-1,0,64)'
PUBLIC	?GetMaxAchieveValue@ioItemBuyMission@@UBEABHXZ	; ioItemBuyMission::GetMaxAchieveValue
PUBLIC	?Clone@ioItemBuyMission@@UAEPAVioMission@@XZ	; ioItemBuyMission::Clone
EXTRN	??_EioItemBuyMission@@UAEPAXI@Z:PROC		; ioItemBuyMission::`vector deleting destructor'
;	COMDAT ??_R1A@?0A@EA@ioItemBuyMission@@8
rdata$r	SEGMENT
??_R1A@?0A@EA@ioItemBuyMission@@8 DD FLAT:??_R0?AVioItemBuyMission@@@8 ; ioItemBuyMission::`RTTI Base Class Descriptor at (0,-1,0,64)'
	DD	01H
	DD	00H
	DD	0ffffffffH
	DD	00H
	DD	040H
	DD	FLAT:??_R3ioItemBuyMission@@8
rdata$r	ENDS
;	COMDAT ??_R2ioItemBuyMission@@8
rdata$r	SEGMENT
??_R2ioItemBuyMission@@8 DD FLAT:??_R1A@?0A@EA@ioItemBuyMission@@8 ; ioItemBuyMission::`RTTI Base Class Array'
	DD	FLAT:??_R1A@?0A@EA@ioMission@@8
rdata$r	ENDS
;	COMDAT ??_R3ioItemBuyMission@@8
rdata$r	SEGMENT
??_R3ioItemBuyMission@@8 DD 00H				; ioItemBuyMission::`RTTI Class Hierarchy Descriptor'
	DD	00H
	DD	02H
	DD	FLAT:??_R2ioItemBuyMission@@8
rdata$r	ENDS
;	COMDAT ??_R0?AVioItemBuyMission@@@8
_DATA	SEGMENT
??_R0?AVioItemBuyMission@@@8 DD FLAT:??_7type_info@@6B@	; ioItemBuyMission `RTTI Type Descriptor'
	DD	00H
	DB	'.?AVioItemBuyMission@@', 00H
_DATA	ENDS
;	COMDAT ??_R4ioItemBuyMission@@6B@
rdata$r	SEGMENT
??_R4ioItemBuyMission@@6B@ DD 00H			; ioItemBuyMission::`RTTI Complete Object Locator'
	DD	00H
	DD	00H
	DD	FLAT:??_R0?AVioItemBuyMission@@@8
	DD	FLAT:??_R3ioItemBuyMission@@8
rdata$r	ENDS
;	COMDAT ??_7ioItemBuyMission@@6B@
CONST	SEGMENT
??_7ioItemBuyMission@@6B@ DD FLAT:??_R4ioItemBuyMission@@6B@ ; ioItemBuyMission::`vftable'
	DD	FLAT:?GetMaxAchieveValue@ioItemBuyMission@@UBEABHXZ
	DD	FLAT:?Init@ioMission@@UAEXPBDAAVioINILoader@@@Z
	DD	FLAT:?Process@ioMission@@UAE_NXZ
	DD	FLAT:?Clone@ioItemBuyMission@@UAEPAVioMission@@XZ
	DD	FLAT:??_EioItemBuyMission@@UAEPAXI@Z
; Function compile flags: /Ogsp
CONST	ENDS
;	COMDAT ??0ioItemBuyMission@@QAE@XZ
_TEXT	SEGMENT
??0ioItemBuyMission@@QAE@XZ PROC			; ioItemBuyMission::ioItemBuyMission, COMDAT
; _this$ = ecx

; 368  : {

  00000	56		 push	 esi
  00001	8b f1		 mov	 esi, ecx
  00003	e8 00 00 00 00	 call	 ??0ioMission@@QAE@XZ	; ioMission::ioMission
  00008	c7 06 00 00 00
	00		 mov	 DWORD PTR [esi], OFFSET ??_7ioItemBuyMission@@6B@

; 369  : 
; 370  : }

  0000e	8b c6		 mov	 eax, esi
  00010	5e		 pop	 esi
  00011	c3		 ret	 0
??0ioItemBuyMission@@QAE@XZ ENDP			; ioItemBuyMission::ioItemBuyMission
; Function compile flags: /Ogsp
; File d:\lost saga for developer\youtube\tutorial\source\src\lsclient\iomission.h
_TEXT	ENDS
;	COMDAT ?GetMaxAchieveValue@ioItemBuyMission@@UBEABHXZ
_TEXT	SEGMENT
?GetMaxAchieveValue@ioItemBuyMission@@UBEABHXZ PROC	; ioItemBuyMission::GetMaxAchieveValue, COMDAT
; _this$ = ecx

; 203  : 	virtual const int&  GetMaxAchieveValue() const { return m_iValue3; }

  00000	8d 41 18	 lea	 eax, DWORD PTR [ecx+24]
  00003	c3		 ret	 0
?GetMaxAchieveValue@ioItemBuyMission@@UBEABHXZ ENDP	; ioItemBuyMission::GetMaxAchieveValue
_TEXT	ENDS
PUBLIC	??0ioItemBuyMission@@QAE@ABV0@@Z		; ioItemBuyMission::ioItemBuyMission
; Function compile flags: /Ogsp
; File d:\lost saga for developer\youtube\tutorial\source\src\lsclient\iomission.cpp
;	COMDAT ??0ioItemBuyMission@@QAE@ABV0@@Z
_TEXT	SEGMENT
_rhs$ = 8						; size = 4
??0ioItemBuyMission@@QAE@ABV0@@Z PROC			; ioItemBuyMission::ioItemBuyMission, COMDAT
; _this$ = ecx

; 374  : {

  00000	55		 push	 ebp
  00001	8b ec		 mov	 ebp, esp
  00003	56		 push	 esi
  00004	ff 75 08	 push	 DWORD PTR _rhs$[ebp]
  00007	8b f1		 mov	 esi, ecx
  00009	e8 00 00 00 00	 call	 ??0ioMission@@QAE@ABV0@@Z ; ioMission::ioMission
  0000e	c7 06 00 00 00
	00		 mov	 DWORD PTR [esi], OFFSET ??_7ioItemBuyMission@@6B@

; 375  : 
; 376  : }

  00014	8b c6		 mov	 eax, esi
  00016	5e		 pop	 esi
  00017	5d		 pop	 ebp
  00018	c2 04 00	 ret	 4
??0ioItemBuyMission@@QAE@ABV0@@Z ENDP			; ioItemBuyMission::ioItemBuyMission
_TEXT	ENDS
PUBLIC	??1ioItemBuyMission@@UAE@XZ			; ioItemBuyMission::~ioItemBuyMission
; Function compile flags: /Ogsp
;	COMDAT ??1ioItemBuyMission@@UAE@XZ
_TEXT	SEGMENT
??1ioItemBuyMission@@UAE@XZ PROC			; ioItemBuyMission::~ioItemBuyMission, COMDAT
; _this$ = ecx

; 379  : {

  00000	c7 01 00 00 00
	00		 mov	 DWORD PTR [ecx], OFFSET ??_7ioItemBuyMission@@6B@

; 380  : 
; 381  : }

  00006	e9 00 00 00 00	 jmp	 ??1ioMission@@QAE@XZ	; ioMission::~ioMission
??1ioItemBuyMission@@UAE@XZ ENDP			; ioItemBuyMission::~ioItemBuyMission
_TEXT	ENDS
;	COMDAT xdata$x
xdata$x	SEGMENT
__unwindtable$?Clone@ioItemBuyMission@@UAEPAVioMission@@XZ DD 0ffffffffH
	DD	FLAT:__unwindfunclet$?Clone@ioItemBuyMission@@UAEPAVioMission@@XZ$0
__ehfuncinfo$?Clone@ioItemBuyMission@@UAEPAVioMission@@XZ DD 019930522H
	DD	01H
	DD	FLAT:__unwindtable$?Clone@ioItemBuyMission@@UAEPAVioMission@@XZ
	DD	2 DUP(00H)
	DD	2 DUP(00H)
	DD	00H
	DD	01H
; Function compile flags: /Ogsp
xdata$x	ENDS
;	COMDAT ?Clone@ioItemBuyMission@@UAEPAVioMission@@XZ
_TEXT	SEGMENT
$T517705 = -16						; size = 4
__$EHRec$ = -12						; size = 12
?Clone@ioItemBuyMission@@UAEPAVioMission@@XZ PROC	; ioItemBuyMission::Clone, COMDAT
; _this$ = ecx

; 384  : {

  00000	6a 04		 push	 4
  00002	b8 00 00 00 00	 mov	 eax, __ehhandler$?Clone@ioItemBuyMission@@UAEPAVioMission@@XZ
  00007	e8 00 00 00 00	 call	 __EH_prolog3
  0000c	8b f1		 mov	 esi, ecx

; 385  : 	return new ioItemBuyMission( *this );

  0000e	6a 6c		 push	 108			; 0000006cH
  00010	e8 00 00 00 00	 call	 ??2@YAPAXI@Z		; operator new
  00015	59		 pop	 ecx
  00016	8b c8		 mov	 ecx, eax
  00018	89 4d f0	 mov	 DWORD PTR $T517705[ebp], ecx
  0001b	33 c0		 xor	 eax, eax
  0001d	89 45 fc	 mov	 DWORD PTR __$EHRec$[ebp+8], eax
  00020	3b c8		 cmp	 ecx, eax
  00022	74 06		 je	 SHORT $LN3@Clone@5
  00024	56		 push	 esi
  00025	e8 00 00 00 00	 call	 ??0ioItemBuyMission@@QAE@ABV0@@Z ; ioItemBuyMission::ioItemBuyMission
$LN3@Clone@5:

; 386  : }

  0002a	e8 00 00 00 00	 call	 __EH_epilog3
  0002f	c3		 ret	 0
_TEXT	ENDS
;	COMDAT text$x
text$x	SEGMENT
__unwindfunclet$?Clone@ioItemBuyMission@@UAEPAVioMission@@XZ$0:
  00000	ff 75 f0	 push	 DWORD PTR $T517705[ebp]
  00003	e8 00 00 00 00	 call	 ??3@YAXPAX@Z		; operator delete
  00008	59		 pop	 ecx
  00009	c3		 ret	 0
__ehhandler$?Clone@ioItemBuyMission@@UAEPAVioMission@@XZ:
  0000a	8b 54 24 08	 mov	 edx, DWORD PTR [esp+8]
  0000e	8d 42 0c	 lea	 eax, DWORD PTR [edx+12]
  00011	8b 4a ec	 mov	 ecx, DWORD PTR [edx-20]
  00014	33 c8		 xor	 ecx, eax
  00016	e8 00 00 00 00	 call	 @__security_check_cookie@4
  0001b	b8 00 00 00 00	 mov	 eax, OFFSET __ehfuncinfo$?Clone@ioItemBuyMission@@UAEPAVioMission@@XZ
  00020	e9 00 00 00 00	 jmp	 ___CxxFrameHandler3
text$x	ENDS
?Clone@ioItemBuyMission@@UAEPAVioMission@@XZ ENDP	; ioItemBuyMission::Clone
PUBLIC	??_7ioCloverMission@@6B@			; ioCloverMission::`vftable'
PUBLIC	??0ioCloverMission@@QAE@XZ			; ioCloverMission::ioCloverMission
PUBLIC	??_R4ioCloverMission@@6B@			; ioCloverMission::`RTTI Complete Object Locator'
PUBLIC	??_R0?AVioCloverMission@@@8			; ioCloverMission `RTTI Type Descriptor'
PUBLIC	??_R3ioCloverMission@@8				; ioCloverMission::`RTTI Class Hierarchy Descriptor'
PUBLIC	??_R2ioCloverMission@@8				; ioCloverMission::`RTTI Base Class Array'
PUBLIC	??_R1A@?0A@EA@ioCloverMission@@8		; ioCloverMission::`RTTI Base Class Descriptor at (0,-1,0,64)'
PUBLIC	?GetMaxAchieveValue@ioCloverMission@@UBEABHXZ	; ioCloverMission::GetMaxAchieveValue
PUBLIC	?Clone@ioCloverMission@@UAEPAVioMission@@XZ	; ioCloverMission::Clone
EXTRN	??_EioCloverMission@@UAEPAXI@Z:PROC		; ioCloverMission::`vector deleting destructor'
;	COMDAT ??_R1A@?0A@EA@ioCloverMission@@8
rdata$r	SEGMENT
??_R1A@?0A@EA@ioCloverMission@@8 DD FLAT:??_R0?AVioCloverMission@@@8 ; ioCloverMission::`RTTI Base Class Descriptor at (0,-1,0,64)'
	DD	01H
	DD	00H
	DD	0ffffffffH
	DD	00H
	DD	040H
	DD	FLAT:??_R3ioCloverMission@@8
rdata$r	ENDS
;	COMDAT ??_R2ioCloverMission@@8
rdata$r	SEGMENT
??_R2ioCloverMission@@8 DD FLAT:??_R1A@?0A@EA@ioCloverMission@@8 ; ioCloverMission::`RTTI Base Class Array'
	DD	FLAT:??_R1A@?0A@EA@ioMission@@8
rdata$r	ENDS
;	COMDAT ??_R3ioCloverMission@@8
rdata$r	SEGMENT
??_R3ioCloverMission@@8 DD 00H				; ioCloverMission::`RTTI Class Hierarchy Descriptor'
	DD	00H
	DD	02H
	DD	FLAT:??_R2ioCloverMission@@8
rdata$r	ENDS
;	COMDAT ??_R0?AVioCloverMission@@@8
_DATA	SEGMENT
??_R0?AVioCloverMission@@@8 DD FLAT:??_7type_info@@6B@	; ioCloverMission `RTTI Type Descriptor'
	DD	00H
	DB	'.?AVioCloverMission@@', 00H
_DATA	ENDS
;	COMDAT ??_R4ioCloverMission@@6B@
rdata$r	SEGMENT
??_R4ioCloverMission@@6B@ DD 00H			; ioCloverMission::`RTTI Complete Object Locator'
	DD	00H
	DD	00H
	DD	FLAT:??_R0?AVioCloverMission@@@8
	DD	FLAT:??_R3ioCloverMission@@8
rdata$r	ENDS
;	COMDAT ??_7ioCloverMission@@6B@
CONST	SEGMENT
??_7ioCloverMission@@6B@ DD FLAT:??_R4ioCloverMission@@6B@ ; ioCloverMission::`vftable'
	DD	FLAT:?GetMaxAchieveValue@ioCloverMission@@UBEABHXZ
	DD	FLAT:?Init@ioMission@@UAEXPBDAAVioINILoader@@@Z
	DD	FLAT:?Process@ioMission@@UAE_NXZ
	DD	FLAT:?Clone@ioCloverMission@@UAEPAVioMission@@XZ
	DD	FLAT:??_EioCloverMission@@UAEPAXI@Z
; Function compile flags: /Ogsp
CONST	ENDS
;	COMDAT ??0ioCloverMission@@QAE@XZ
_TEXT	SEGMENT
??0ioCloverMission@@QAE@XZ PROC				; ioCloverMission::ioCloverMission, COMDAT
; _this$ = ecx

; 390  : {

  00000	56		 push	 esi
  00001	8b f1		 mov	 esi, ecx
  00003	e8 00 00 00 00	 call	 ??0ioMission@@QAE@XZ	; ioMission::ioMission
  00008	c7 06 00 00 00
	00		 mov	 DWORD PTR [esi], OFFSET ??_7ioCloverMission@@6B@

; 391  : 
; 392  : }

  0000e	8b c6		 mov	 eax, esi
  00010	5e		 pop	 esi
  00011	c3		 ret	 0
??0ioCloverMission@@QAE@XZ ENDP				; ioCloverMission::ioCloverMission
; Function compile flags: /Ogsp
; File d:\lost saga for developer\youtube\tutorial\source\src\lsclient\iomission.h
_TEXT	ENDS
;	COMDAT ?GetMaxAchieveValue@ioCloverMission@@UBEABHXZ
_TEXT	SEGMENT
?GetMaxAchieveValue@ioCloverMission@@UBEABHXZ PROC	; ioCloverMission::GetMaxAchieveValue, COMDAT
; _this$ = ecx

; 216  : 	virtual const int&  GetMaxAchieveValue() const { return m_iValue1; }

  00000	8d 41 10	 lea	 eax, DWORD PTR [ecx+16]
  00003	c3		 ret	 0
?GetMaxAchieveValue@ioCloverMission@@UBEABHXZ ENDP	; ioCloverMission::GetMaxAchieveValue
_TEXT	ENDS
PUBLIC	??0ioCloverMission@@QAE@ABV0@@Z			; ioCloverMission::ioCloverMission
; Function compile flags: /Ogsp
; File d:\lost saga for developer\youtube\tutorial\source\src\lsclient\iomission.cpp
;	COMDAT ??0ioCloverMission@@QAE@ABV0@@Z
_TEXT	SEGMENT
_rhs$ = 8						; size = 4
??0ioCloverMission@@QAE@ABV0@@Z PROC			; ioCloverMission::ioCloverMission, COMDAT
; _this$ = ecx

; 396  : {

  00000	55		 push	 ebp
  00001	8b ec		 mov	 ebp, esp
  00003	56		 push	 esi
  00004	ff 75 08	 push	 DWORD PTR _rhs$[ebp]
  00007	8b f1		 mov	 esi, ecx
  00009	e8 00 00 00 00	 call	 ??0ioMission@@QAE@ABV0@@Z ; ioMission::ioMission
  0000e	c7 06 00 00 00
	00		 mov	 DWORD PTR [esi], OFFSET ??_7ioCloverMission@@6B@

; 397  : 
; 398  : }

  00014	8b c6		 mov	 eax, esi
  00016	5e		 pop	 esi
  00017	5d		 pop	 ebp
  00018	c2 04 00	 ret	 4
??0ioCloverMission@@QAE@ABV0@@Z ENDP			; ioCloverMission::ioCloverMission
_TEXT	ENDS
PUBLIC	??1ioCloverMission@@UAE@XZ			; ioCloverMission::~ioCloverMission
; Function compile flags: /Ogsp
;	COMDAT ??1ioCloverMission@@UAE@XZ
_TEXT	SEGMENT
??1ioCloverMission@@UAE@XZ PROC				; ioCloverMission::~ioCloverMission, COMDAT
; _this$ = ecx

; 401  : {

  00000	c7 01 00 00 00
	00		 mov	 DWORD PTR [ecx], OFFSET ??_7ioCloverMission@@6B@

; 402  : 
; 403  : }

  00006	e9 00 00 00 00	 jmp	 ??1ioMission@@QAE@XZ	; ioMission::~ioMission
??1ioCloverMission@@UAE@XZ ENDP				; ioCloverMission::~ioCloverMission
_TEXT	ENDS
;	COMDAT xdata$x
xdata$x	SEGMENT
__unwindtable$?Clone@ioCloverMission@@UAEPAVioMission@@XZ DD 0ffffffffH
	DD	FLAT:__unwindfunclet$?Clone@ioCloverMission@@UAEPAVioMission@@XZ$0
__ehfuncinfo$?Clone@ioCloverMission@@UAEPAVioMission@@XZ DD 019930522H
	DD	01H
	DD	FLAT:__unwindtable$?Clone@ioCloverMission@@UAEPAVioMission@@XZ
	DD	2 DUP(00H)
	DD	2 DUP(00H)
	DD	00H
	DD	01H
; Function compile flags: /Ogsp
xdata$x	ENDS
;	COMDAT ?Clone@ioCloverMission@@UAEPAVioMission@@XZ
_TEXT	SEGMENT
$T517733 = -16						; size = 4
__$EHRec$ = -12						; size = 12
?Clone@ioCloverMission@@UAEPAVioMission@@XZ PROC	; ioCloverMission::Clone, COMDAT
; _this$ = ecx

; 406  : {

  00000	6a 04		 push	 4
  00002	b8 00 00 00 00	 mov	 eax, __ehhandler$?Clone@ioCloverMission@@UAEPAVioMission@@XZ
  00007	e8 00 00 00 00	 call	 __EH_prolog3
  0000c	8b f1		 mov	 esi, ecx

; 407  : 	return new ioCloverMission( *this );

  0000e	6a 6c		 push	 108			; 0000006cH
  00010	e8 00 00 00 00	 call	 ??2@YAPAXI@Z		; operator new
  00015	59		 pop	 ecx
  00016	8b c8		 mov	 ecx, eax
  00018	89 4d f0	 mov	 DWORD PTR $T517733[ebp], ecx
  0001b	33 c0		 xor	 eax, eax
  0001d	89 45 fc	 mov	 DWORD PTR __$EHRec$[ebp+8], eax
  00020	3b c8		 cmp	 ecx, eax
  00022	74 06		 je	 SHORT $LN3@Clone@6
  00024	56		 push	 esi
  00025	e8 00 00 00 00	 call	 ??0ioCloverMission@@QAE@ABV0@@Z ; ioCloverMission::ioCloverMission
$LN3@Clone@6:

; 408  : }

  0002a	e8 00 00 00 00	 call	 __EH_epilog3
  0002f	c3		 ret	 0
_TEXT	ENDS
;	COMDAT text$x
text$x	SEGMENT
__unwindfunclet$?Clone@ioCloverMission@@UAEPAVioMission@@XZ$0:
  00000	ff 75 f0	 push	 DWORD PTR $T517733[ebp]
  00003	e8 00 00 00 00	 call	 ??3@YAXPAX@Z		; operator delete
  00008	59		 pop	 ecx
  00009	c3		 ret	 0
__ehhandler$?Clone@ioCloverMission@@UAEPAVioMission@@XZ:
  0000a	8b 54 24 08	 mov	 edx, DWORD PTR [esp+8]
  0000e	8d 42 0c	 lea	 eax, DWORD PTR [edx+12]
  00011	8b 4a ec	 mov	 ecx, DWORD PTR [edx-20]
  00014	33 c8		 xor	 ecx, eax
  00016	e8 00 00 00 00	 call	 @__security_check_cookie@4
  0001b	b8 00 00 00 00	 mov	 eax, OFFSET __ehfuncinfo$?Clone@ioCloverMission@@UAEPAVioMission@@XZ
  00020	e9 00 00 00 00	 jmp	 ___CxxFrameHandler3
text$x	ENDS
?Clone@ioCloverMission@@UAEPAVioMission@@XZ ENDP	; ioCloverMission::Clone
PUBLIC	??_7ioExcavationMission@@6B@			; ioExcavationMission::`vftable'
PUBLIC	??0ioExcavationMission@@QAE@XZ			; ioExcavationMission::ioExcavationMission
PUBLIC	??_R4ioExcavationMission@@6B@			; ioExcavationMission::`RTTI Complete Object Locator'
PUBLIC	??_R0?AVioExcavationMission@@@8			; ioExcavationMission `RTTI Type Descriptor'
PUBLIC	??_R3ioExcavationMission@@8			; ioExcavationMission::`RTTI Class Hierarchy Descriptor'
PUBLIC	??_R2ioExcavationMission@@8			; ioExcavationMission::`RTTI Base Class Array'
PUBLIC	??_R1A@?0A@EA@ioExcavationMission@@8		; ioExcavationMission::`RTTI Base Class Descriptor at (0,-1,0,64)'
PUBLIC	?GetMaxAchieveValue@ioExcavationMission@@UBEABHXZ ; ioExcavationMission::GetMaxAchieveValue
PUBLIC	?Clone@ioExcavationMission@@UAEPAVioMission@@XZ	; ioExcavationMission::Clone
EXTRN	??_EioExcavationMission@@UAEPAXI@Z:PROC		; ioExcavationMission::`vector deleting destructor'
;	COMDAT ??_R1A@?0A@EA@ioExcavationMission@@8
rdata$r	SEGMENT
??_R1A@?0A@EA@ioExcavationMission@@8 DD FLAT:??_R0?AVioExcavationMission@@@8 ; ioExcavationMission::`RTTI Base Class Descriptor at (0,-1,0,64)'
	DD	01H
	DD	00H
	DD	0ffffffffH
	DD	00H
	DD	040H
	DD	FLAT:??_R3ioExcavationMission@@8
rdata$r	ENDS
;	COMDAT ??_R2ioExcavationMission@@8
rdata$r	SEGMENT
??_R2ioExcavationMission@@8 DD FLAT:??_R1A@?0A@EA@ioExcavationMission@@8 ; ioExcavationMission::`RTTI Base Class Array'
	DD	FLAT:??_R1A@?0A@EA@ioMission@@8
rdata$r	ENDS
;	COMDAT ??_R3ioExcavationMission@@8
rdata$r	SEGMENT
??_R3ioExcavationMission@@8 DD 00H			; ioExcavationMission::`RTTI Class Hierarchy Descriptor'
	DD	00H
	DD	02H
	DD	FLAT:??_R2ioExcavationMission@@8
rdata$r	ENDS
;	COMDAT ??_R0?AVioExcavationMission@@@8
_DATA	SEGMENT
??_R0?AVioExcavationMission@@@8 DD FLAT:??_7type_info@@6B@ ; ioExcavationMission `RTTI Type Descriptor'
	DD	00H
	DB	'.?AVioExcavationMission@@', 00H
_DATA	ENDS
;	COMDAT ??_R4ioExcavationMission@@6B@
rdata$r	SEGMENT
??_R4ioExcavationMission@@6B@ DD 00H			; ioExcavationMission::`RTTI Complete Object Locator'
	DD	00H
	DD	00H
	DD	FLAT:??_R0?AVioExcavationMission@@@8
	DD	FLAT:??_R3ioExcavationMission@@8
rdata$r	ENDS
;	COMDAT ??_7ioExcavationMission@@6B@
CONST	SEGMENT
??_7ioExcavationMission@@6B@ DD FLAT:??_R4ioExcavationMission@@6B@ ; ioExcavationMission::`vftable'
	DD	FLAT:?GetMaxAchieveValue@ioExcavationMission@@UBEABHXZ
	DD	FLAT:?Init@ioMission@@UAEXPBDAAVioINILoader@@@Z
	DD	FLAT:?Process@ioMission@@UAE_NXZ
	DD	FLAT:?Clone@ioExcavationMission@@UAEPAVioMission@@XZ
	DD	FLAT:??_EioExcavationMission@@UAEPAXI@Z
; Function compile flags: /Ogsp
CONST	ENDS
;	COMDAT ??0ioExcavationMission@@QAE@XZ
_TEXT	SEGMENT
??0ioExcavationMission@@QAE@XZ PROC			; ioExcavationMission::ioExcavationMission, COMDAT
; _this$ = ecx

; 412  : {

  00000	56		 push	 esi
  00001	8b f1		 mov	 esi, ecx
  00003	e8 00 00 00 00	 call	 ??0ioMission@@QAE@XZ	; ioMission::ioMission
  00008	c7 06 00 00 00
	00		 mov	 DWORD PTR [esi], OFFSET ??_7ioExcavationMission@@6B@

; 413  : 
; 414  : }

  0000e	8b c6		 mov	 eax, esi
  00010	5e		 pop	 esi
  00011	c3		 ret	 0
??0ioExcavationMission@@QAE@XZ ENDP			; ioExcavationMission::ioExcavationMission
; Function compile flags: /Ogsp
; File d:\lost saga for developer\youtube\tutorial\source\src\lsclient\iomission.h
_TEXT	ENDS
;	COMDAT ?GetMaxAchieveValue@ioExcavationMission@@UBEABHXZ
_TEXT	SEGMENT
?GetMaxAchieveValue@ioExcavationMission@@UBEABHXZ PROC	; ioExcavationMission::GetMaxAchieveValue, COMDAT
; _this$ = ecx

; 229  : 	virtual const int&  GetMaxAchieveValue() const { return m_iValue1; }

  00000	8d 41 10	 lea	 eax, DWORD PTR [ecx+16]
  00003	c3		 ret	 0
?GetMaxAchieveValue@ioExcavationMission@@UBEABHXZ ENDP	; ioExcavationMission::GetMaxAchieveValue
_TEXT	ENDS
PUBLIC	??0ioExcavationMission@@QAE@ABV0@@Z		; ioExcavationMission::ioExcavationMission
; Function compile flags: /Ogsp
; File d:\lost saga for developer\youtube\tutorial\source\src\lsclient\iomission.cpp
;	COMDAT ??0ioExcavationMission@@QAE@ABV0@@Z
_TEXT	SEGMENT
_rhs$ = 8						; size = 4
??0ioExcavationMission@@QAE@ABV0@@Z PROC		; ioExcavationMission::ioExcavationMission, COMDAT
; _this$ = ecx

; 418  : {

  00000	55		 push	 ebp
  00001	8b ec		 mov	 ebp, esp
  00003	56		 push	 esi
  00004	ff 75 08	 push	 DWORD PTR _rhs$[ebp]
  00007	8b f1		 mov	 esi, ecx
  00009	e8 00 00 00 00	 call	 ??0ioMission@@QAE@ABV0@@Z ; ioMission::ioMission
  0000e	c7 06 00 00 00
	00		 mov	 DWORD PTR [esi], OFFSET ??_7ioExcavationMission@@6B@

; 419  : 
; 420  : }

  00014	8b c6		 mov	 eax, esi
  00016	5e		 pop	 esi
  00017	5d		 pop	 ebp
  00018	c2 04 00	 ret	 4
??0ioExcavationMission@@QAE@ABV0@@Z ENDP		; ioExcavationMission::ioExcavationMission
_TEXT	ENDS
PUBLIC	??1ioExcavationMission@@UAE@XZ			; ioExcavationMission::~ioExcavationMission
; Function compile flags: /Ogsp
;	COMDAT ??1ioExcavationMission@@UAE@XZ
_TEXT	SEGMENT
??1ioExcavationMission@@UAE@XZ PROC			; ioExcavationMission::~ioExcavationMission, COMDAT
; _this$ = ecx

; 423  : {

  00000	c7 01 00 00 00
	00		 mov	 DWORD PTR [ecx], OFFSET ??_7ioExcavationMission@@6B@

; 424  : 
; 425  : }

  00006	e9 00 00 00 00	 jmp	 ??1ioMission@@QAE@XZ	; ioMission::~ioMission
??1ioExcavationMission@@UAE@XZ ENDP			; ioExcavationMission::~ioExcavationMission
_TEXT	ENDS
;	COMDAT xdata$x
xdata$x	SEGMENT
__unwindtable$?Clone@ioExcavationMission@@UAEPAVioMission@@XZ DD 0ffffffffH
	DD	FLAT:__unwindfunclet$?Clone@ioExcavationMission@@UAEPAVioMission@@XZ$0
__ehfuncinfo$?Clone@ioExcavationMission@@UAEPAVioMission@@XZ DD 019930522H
	DD	01H
	DD	FLAT:__unwindtable$?Clone@ioExcavationMission@@UAEPAVioMission@@XZ
	DD	2 DUP(00H)
	DD	2 DUP(00H)
	DD	00H
	DD	01H
; Function compile flags: /Ogsp
xdata$x	ENDS
;	COMDAT ?Clone@ioExcavationMission@@UAEPAVioMission@@XZ
_TEXT	SEGMENT
$T517761 = -16						; size = 4
__$EHRec$ = -12						; size = 12
?Clone@ioExcavationMission@@UAEPAVioMission@@XZ PROC	; ioExcavationMission::Clone, COMDAT
; _this$ = ecx

; 428  : {

  00000	6a 04		 push	 4
  00002	b8 00 00 00 00	 mov	 eax, __ehhandler$?Clone@ioExcavationMission@@UAEPAVioMission@@XZ
  00007	e8 00 00 00 00	 call	 __EH_prolog3
  0000c	8b f1		 mov	 esi, ecx

; 429  : 	return new ioExcavationMission( *this );

  0000e	6a 6c		 push	 108			; 0000006cH
  00010	e8 00 00 00 00	 call	 ??2@YAPAXI@Z		; operator new
  00015	59		 pop	 ecx
  00016	8b c8		 mov	 ecx, eax
  00018	89 4d f0	 mov	 DWORD PTR $T517761[ebp], ecx
  0001b	33 c0		 xor	 eax, eax
  0001d	89 45 fc	 mov	 DWORD PTR __$EHRec$[ebp+8], eax
  00020	3b c8		 cmp	 ecx, eax
  00022	74 06		 je	 SHORT $LN3@Clone@7
  00024	56		 push	 esi
  00025	e8 00 00 00 00	 call	 ??0ioExcavationMission@@QAE@ABV0@@Z ; ioExcavationMission::ioExcavationMission
$LN3@Clone@7:

; 430  : }

  0002a	e8 00 00 00 00	 call	 __EH_epilog3
  0002f	c3		 ret	 0
_TEXT	ENDS
;	COMDAT text$x
text$x	SEGMENT
__unwindfunclet$?Clone@ioExcavationMission@@UAEPAVioMission@@XZ$0:
  00000	ff 75 f0	 push	 DWORD PTR $T517761[ebp]
  00003	e8 00 00 00 00	 call	 ??3@YAXPAX@Z		; operator delete
  00008	59		 pop	 ecx
  00009	c3		 ret	 0
__ehhandler$?Clone@ioExcavationMission@@UAEPAVioMission@@XZ:
  0000a	8b 54 24 08	 mov	 edx, DWORD PTR [esp+8]
  0000e	8d 42 0c	 lea	 eax, DWORD PTR [edx+12]
  00011	8b 4a ec	 mov	 ecx, DWORD PTR [edx-20]
  00014	33 c8		 xor	 ecx, eax
  00016	e8 00 00 00 00	 call	 @__security_check_cookie@4
  0001b	b8 00 00 00 00	 mov	 eax, OFFSET __ehfuncinfo$?Clone@ioExcavationMission@@UAEPAVioMission@@XZ
  00020	e9 00 00 00 00	 jmp	 ___CxxFrameHandler3
text$x	ENDS
?Clone@ioExcavationMission@@UAEPAVioMission@@XZ ENDP	; ioExcavationMission::Clone
PUBLIC	??_7ioItemUseMission@@6B@			; ioItemUseMission::`vftable'
PUBLIC	??0ioItemUseMission@@QAE@XZ			; ioItemUseMission::ioItemUseMission
PUBLIC	??_R4ioItemUseMission@@6B@			; ioItemUseMission::`RTTI Complete Object Locator'
PUBLIC	??_R0?AVioItemUseMission@@@8			; ioItemUseMission `RTTI Type Descriptor'
PUBLIC	??_R3ioItemUseMission@@8			; ioItemUseMission::`RTTI Class Hierarchy Descriptor'
PUBLIC	??_R2ioItemUseMission@@8			; ioItemUseMission::`RTTI Base Class Array'
PUBLIC	??_R1A@?0A@EA@ioItemUseMission@@8		; ioItemUseMission::`RTTI Base Class Descriptor at (0,-1,0,64)'
PUBLIC	?GetMaxAchieveValue@ioItemUseMission@@UBEABHXZ	; ioItemUseMission::GetMaxAchieveValue
PUBLIC	?Clone@ioItemUseMission@@UAEPAVioMission@@XZ	; ioItemUseMission::Clone
EXTRN	??_EioItemUseMission@@UAEPAXI@Z:PROC		; ioItemUseMission::`vector deleting destructor'
;	COMDAT ??_R1A@?0A@EA@ioItemUseMission@@8
rdata$r	SEGMENT
??_R1A@?0A@EA@ioItemUseMission@@8 DD FLAT:??_R0?AVioItemUseMission@@@8 ; ioItemUseMission::`RTTI Base Class Descriptor at (0,-1,0,64)'
	DD	01H
	DD	00H
	DD	0ffffffffH
	DD	00H
	DD	040H
	DD	FLAT:??_R3ioItemUseMission@@8
rdata$r	ENDS
;	COMDAT ??_R2ioItemUseMission@@8
rdata$r	SEGMENT
??_R2ioItemUseMission@@8 DD FLAT:??_R1A@?0A@EA@ioItemUseMission@@8 ; ioItemUseMission::`RTTI Base Class Array'
	DD	FLAT:??_R1A@?0A@EA@ioMission@@8
rdata$r	ENDS
;	COMDAT ??_R3ioItemUseMission@@8
rdata$r	SEGMENT
??_R3ioItemUseMission@@8 DD 00H				; ioItemUseMission::`RTTI Class Hierarchy Descriptor'
	DD	00H
	DD	02H
	DD	FLAT:??_R2ioItemUseMission@@8
rdata$r	ENDS
;	COMDAT ??_R0?AVioItemUseMission@@@8
_DATA	SEGMENT
??_R0?AVioItemUseMission@@@8 DD FLAT:??_7type_info@@6B@	; ioItemUseMission `RTTI Type Descriptor'
	DD	00H
	DB	'.?AVioItemUseMission@@', 00H
_DATA	ENDS
;	COMDAT ??_R4ioItemUseMission@@6B@
rdata$r	SEGMENT
??_R4ioItemUseMission@@6B@ DD 00H			; ioItemUseMission::`RTTI Complete Object Locator'
	DD	00H
	DD	00H
	DD	FLAT:??_R0?AVioItemUseMission@@@8
	DD	FLAT:??_R3ioItemUseMission@@8
rdata$r	ENDS
;	COMDAT ??_7ioItemUseMission@@6B@
CONST	SEGMENT
??_7ioItemUseMission@@6B@ DD FLAT:??_R4ioItemUseMission@@6B@ ; ioItemUseMission::`vftable'
	DD	FLAT:?GetMaxAchieveValue@ioItemUseMission@@UBEABHXZ
	DD	FLAT:?Init@ioMission@@UAEXPBDAAVioINILoader@@@Z
	DD	FLAT:?Process@ioMission@@UAE_NXZ
	DD	FLAT:?Clone@ioItemUseMission@@UAEPAVioMission@@XZ
	DD	FLAT:??_EioItemUseMission@@UAEPAXI@Z
; Function compile flags: /Ogsp
CONST	ENDS
;	COMDAT ??0ioItemUseMission@@QAE@XZ
_TEXT	SEGMENT
??0ioItemUseMission@@QAE@XZ PROC			; ioItemUseMission::ioItemUseMission, COMDAT
; _this$ = ecx

; 434  : {

  00000	56		 push	 esi
  00001	8b f1		 mov	 esi, ecx
  00003	e8 00 00 00 00	 call	 ??0ioMission@@QAE@XZ	; ioMission::ioMission
  00008	c7 06 00 00 00
	00		 mov	 DWORD PTR [esi], OFFSET ??_7ioItemUseMission@@6B@

; 435  : 
; 436  : }

  0000e	8b c6		 mov	 eax, esi
  00010	5e		 pop	 esi
  00011	c3		 ret	 0
??0ioItemUseMission@@QAE@XZ ENDP			; ioItemUseMission::ioItemUseMission
; Function compile flags: /Ogsp
; File d:\lost saga for developer\youtube\tutorial\source\src\lsclient\iomission.h
_TEXT	ENDS
;	COMDAT ?GetMaxAchieveValue@ioItemUseMission@@UBEABHXZ
_TEXT	SEGMENT
?GetMaxAchieveValue@ioItemUseMission@@UBEABHXZ PROC	; ioItemUseMission::GetMaxAchieveValue, COMDAT
; _this$ = ecx

; 242  : 	virtual const int&  GetMaxAchieveValue() const { return m_iValue3; }

  00000	8d 41 18	 lea	 eax, DWORD PTR [ecx+24]
  00003	c3		 ret	 0
?GetMaxAchieveValue@ioItemUseMission@@UBEABHXZ ENDP	; ioItemUseMission::GetMaxAchieveValue
_TEXT	ENDS
PUBLIC	??0ioItemUseMission@@QAE@ABV0@@Z		; ioItemUseMission::ioItemUseMission
; Function compile flags: /Ogsp
; File d:\lost saga for developer\youtube\tutorial\source\src\lsclient\iomission.cpp
;	COMDAT ??0ioItemUseMission@@QAE@ABV0@@Z
_TEXT	SEGMENT
_rhs$ = 8						; size = 4
??0ioItemUseMission@@QAE@ABV0@@Z PROC			; ioItemUseMission::ioItemUseMission, COMDAT
; _this$ = ecx

; 440  : {

  00000	55		 push	 ebp
  00001	8b ec		 mov	 ebp, esp
  00003	56		 push	 esi
  00004	ff 75 08	 push	 DWORD PTR _rhs$[ebp]
  00007	8b f1		 mov	 esi, ecx
  00009	e8 00 00 00 00	 call	 ??0ioMission@@QAE@ABV0@@Z ; ioMission::ioMission
  0000e	c7 06 00 00 00
	00		 mov	 DWORD PTR [esi], OFFSET ??_7ioItemUseMission@@6B@

; 441  : 
; 442  : }

  00014	8b c6		 mov	 eax, esi
  00016	5e		 pop	 esi
  00017	5d		 pop	 ebp
  00018	c2 04 00	 ret	 4
??0ioItemUseMission@@QAE@ABV0@@Z ENDP			; ioItemUseMission::ioItemUseMission
_TEXT	ENDS
PUBLIC	??1ioItemUseMission@@UAE@XZ			; ioItemUseMission::~ioItemUseMission
; Function compile flags: /Ogsp
;	COMDAT ??1ioItemUseMission@@UAE@XZ
_TEXT	SEGMENT
??1ioItemUseMission@@UAE@XZ PROC			; ioItemUseMission::~ioItemUseMission, COMDAT
; _this$ = ecx

; 445  : {

  00000	c7 01 00 00 00
	00		 mov	 DWORD PTR [ecx], OFFSET ??_7ioItemUseMission@@6B@

; 446  : 
; 447  : }

  00006	e9 00 00 00 00	 jmp	 ??1ioMission@@QAE@XZ	; ioMission::~ioMission
??1ioItemUseMission@@UAE@XZ ENDP			; ioItemUseMission::~ioItemUseMission
_TEXT	ENDS
;	COMDAT xdata$x
xdata$x	SEGMENT
__unwindtable$?Clone@ioItemUseMission@@UAEPAVioMission@@XZ DD 0ffffffffH
	DD	FLAT:__unwindfunclet$?Clone@ioItemUseMission@@UAEPAVioMission@@XZ$0
__ehfuncinfo$?Clone@ioItemUseMission@@UAEPAVioMission@@XZ DD 019930522H
	DD	01H
	DD	FLAT:__unwindtable$?Clone@ioItemUseMission@@UAEPAVioMission@@XZ
	DD	2 DUP(00H)
	DD	2 DUP(00H)
	DD	00H
	DD	01H
; Function compile flags: /Ogsp
xdata$x	ENDS
;	COMDAT ?Clone@ioItemUseMission@@UAEPAVioMission@@XZ
_TEXT	SEGMENT
$T517789 = -16						; size = 4
__$EHRec$ = -12						; size = 12
?Clone@ioItemUseMission@@UAEPAVioMission@@XZ PROC	; ioItemUseMission::Clone, COMDAT
; _this$ = ecx

; 450  : {

  00000	6a 04		 push	 4
  00002	b8 00 00 00 00	 mov	 eax, __ehhandler$?Clone@ioItemUseMission@@UAEPAVioMission@@XZ
  00007	e8 00 00 00 00	 call	 __EH_prolog3
  0000c	8b f1		 mov	 esi, ecx

; 451  : 	return new ioItemUseMission( *this );

  0000e	6a 6c		 push	 108			; 0000006cH
  00010	e8 00 00 00 00	 call	 ??2@YAPAXI@Z		; operator new
  00015	59		 pop	 ecx
  00016	8b c8		 mov	 ecx, eax
  00018	89 4d f0	 mov	 DWORD PTR $T517789[ebp], ecx
  0001b	33 c0		 xor	 eax, eax
  0001d	89 45 fc	 mov	 DWORD PTR __$EHRec$[ebp+8], eax
  00020	3b c8		 cmp	 ecx, eax
  00022	74 06		 je	 SHORT $LN3@Clone@8
  00024	56		 push	 esi
  00025	e8 00 00 00 00	 call	 ??0ioItemUseMission@@QAE@ABV0@@Z ; ioItemUseMission::ioItemUseMission
$LN3@Clone@8:

; 452  : }

  0002a	e8 00 00 00 00	 call	 __EH_epilog3
  0002f	c3		 ret	 0
_TEXT	ENDS
;	COMDAT text$x
text$x	SEGMENT
__unwindfunclet$?Clone@ioItemUseMission@@UAEPAVioMission@@XZ$0:
  00000	ff 75 f0	 push	 DWORD PTR $T517789[ebp]
  00003	e8 00 00 00 00	 call	 ??3@YAXPAX@Z		; operator delete
  00008	59		 pop	 ecx
  00009	c3		 ret	 0
__ehhandler$?Clone@ioItemUseMission@@UAEPAVioMission@@XZ:
  0000a	8b 54 24 08	 mov	 edx, DWORD PTR [esp+8]
  0000e	8d 42 0c	 lea	 eax, DWORD PTR [edx+12]
  00011	8b 4a ec	 mov	 ecx, DWORD PTR [edx-20]
  00014	33 c8		 xor	 ecx, eax
  00016	e8 00 00 00 00	 call	 @__security_check_cookie@4
  0001b	b8 00 00 00 00	 mov	 eax, OFFSET __ehfuncinfo$?Clone@ioItemUseMission@@UAEPAVioMission@@XZ
  00020	e9 00 00 00 00	 jmp	 ___CxxFrameHandler3
text$x	ENDS
?Clone@ioItemUseMission@@UAEPAVioMission@@XZ ENDP	; ioItemUseMission::Clone
PUBLIC	??_7ioItemReinforceMission@@6B@			; ioItemReinforceMission::`vftable'
PUBLIC	??0ioItemReinforceMission@@QAE@XZ		; ioItemReinforceMission::ioItemReinforceMission
PUBLIC	??_R4ioItemReinforceMission@@6B@		; ioItemReinforceMission::`RTTI Complete Object Locator'
PUBLIC	??_R0?AVioItemReinforceMission@@@8		; ioItemReinforceMission `RTTI Type Descriptor'
PUBLIC	??_R3ioItemReinforceMission@@8			; ioItemReinforceMission::`RTTI Class Hierarchy Descriptor'
PUBLIC	??_R2ioItemReinforceMission@@8			; ioItemReinforceMission::`RTTI Base Class Array'
PUBLIC	??_R1A@?0A@EA@ioItemReinforceMission@@8		; ioItemReinforceMission::`RTTI Base Class Descriptor at (0,-1,0,64)'
PUBLIC	?GetMaxAchieveValue@ioItemReinforceMission@@UBEABHXZ ; ioItemReinforceMission::GetMaxAchieveValue
PUBLIC	?Clone@ioItemReinforceMission@@UAEPAVioMission@@XZ ; ioItemReinforceMission::Clone
EXTRN	??_EioItemReinforceMission@@UAEPAXI@Z:PROC	; ioItemReinforceMission::`vector deleting destructor'
;	COMDAT ??_R1A@?0A@EA@ioItemReinforceMission@@8
rdata$r	SEGMENT
??_R1A@?0A@EA@ioItemReinforceMission@@8 DD FLAT:??_R0?AVioItemReinforceMission@@@8 ; ioItemReinforceMission::`RTTI Base Class Descriptor at (0,-1,0,64)'
	DD	01H
	DD	00H
	DD	0ffffffffH
	DD	00H
	DD	040H
	DD	FLAT:??_R3ioItemReinforceMission@@8
rdata$r	ENDS
;	COMDAT ??_R2ioItemReinforceMission@@8
rdata$r	SEGMENT
??_R2ioItemReinforceMission@@8 DD FLAT:??_R1A@?0A@EA@ioItemReinforceMission@@8 ; ioItemReinforceMission::`RTTI Base Class Array'
	DD	FLAT:??_R1A@?0A@EA@ioMission@@8
rdata$r	ENDS
;	COMDAT ??_R3ioItemReinforceMission@@8
rdata$r	SEGMENT
??_R3ioItemReinforceMission@@8 DD 00H			; ioItemReinforceMission::`RTTI Class Hierarchy Descriptor'
	DD	00H
	DD	02H
	DD	FLAT:??_R2ioItemReinforceMission@@8
rdata$r	ENDS
;	COMDAT ??_R0?AVioItemReinforceMission@@@8
_DATA	SEGMENT
??_R0?AVioItemReinforceMission@@@8 DD FLAT:??_7type_info@@6B@ ; ioItemReinforceMission `RTTI Type Descriptor'
	DD	00H
	DB	'.?AVioItemReinforceMission@@', 00H
_DATA	ENDS
;	COMDAT ??_R4ioItemReinforceMission@@6B@
rdata$r	SEGMENT
??_R4ioItemReinforceMission@@6B@ DD 00H			; ioItemReinforceMission::`RTTI Complete Object Locator'
	DD	00H
	DD	00H
	DD	FLAT:??_R0?AVioItemReinforceMission@@@8
	DD	FLAT:??_R3ioItemReinforceMission@@8
rdata$r	ENDS
;	COMDAT ??_7ioItemReinforceMission@@6B@
CONST	SEGMENT
??_7ioItemReinforceMission@@6B@ DD FLAT:??_R4ioItemReinforceMission@@6B@ ; ioItemReinforceMission::`vftable'
	DD	FLAT:?GetMaxAchieveValue@ioItemReinforceMission@@UBEABHXZ
	DD	FLAT:?Init@ioMission@@UAEXPBDAAVioINILoader@@@Z
	DD	FLAT:?Process@ioMission@@UAE_NXZ
	DD	FLAT:?Clone@ioItemReinforceMission@@UAEPAVioMission@@XZ
	DD	FLAT:??_EioItemReinforceMission@@UAEPAXI@Z
; Function compile flags: /Ogsp
CONST	ENDS
;	COMDAT ??0ioItemReinforceMission@@QAE@XZ
_TEXT	SEGMENT
??0ioItemReinforceMission@@QAE@XZ PROC			; ioItemReinforceMission::ioItemReinforceMission, COMDAT
; _this$ = ecx

; 456  : {

  00000	56		 push	 esi
  00001	8b f1		 mov	 esi, ecx
  00003	e8 00 00 00 00	 call	 ??0ioMission@@QAE@XZ	; ioMission::ioMission
  00008	c7 06 00 00 00
	00		 mov	 DWORD PTR [esi], OFFSET ??_7ioItemReinforceMission@@6B@

; 457  : 
; 458  : }

  0000e	8b c6		 mov	 eax, esi
  00010	5e		 pop	 esi
  00011	c3		 ret	 0
??0ioItemReinforceMission@@QAE@XZ ENDP			; ioItemReinforceMission::ioItemReinforceMission
; Function compile flags: /Ogsp
; File d:\lost saga for developer\youtube\tutorial\source\src\lsclient\iomission.h
_TEXT	ENDS
;	COMDAT ?GetMaxAchieveValue@ioItemReinforceMission@@UBEABHXZ
_TEXT	SEGMENT
?GetMaxAchieveValue@ioItemReinforceMission@@UBEABHXZ PROC ; ioItemReinforceMission::GetMaxAchieveValue, COMDAT
; _this$ = ecx

; 255  : 	virtual const int&  GetMaxAchieveValue() const { return m_iValue1; }

  00000	8d 41 10	 lea	 eax, DWORD PTR [ecx+16]
  00003	c3		 ret	 0
?GetMaxAchieveValue@ioItemReinforceMission@@UBEABHXZ ENDP ; ioItemReinforceMission::GetMaxAchieveValue
_TEXT	ENDS
PUBLIC	??0ioItemReinforceMission@@QAE@ABV0@@Z		; ioItemReinforceMission::ioItemReinforceMission
; Function compile flags: /Ogsp
; File d:\lost saga for developer\youtube\tutorial\source\src\lsclient\iomission.cpp
;	COMDAT ??0ioItemReinforceMission@@QAE@ABV0@@Z
_TEXT	SEGMENT
_rhs$ = 8						; size = 4
??0ioItemReinforceMission@@QAE@ABV0@@Z PROC		; ioItemReinforceMission::ioItemReinforceMission, COMDAT
; _this$ = ecx

; 462  : {

  00000	55		 push	 ebp
  00001	8b ec		 mov	 ebp, esp
  00003	56		 push	 esi
  00004	ff 75 08	 push	 DWORD PTR _rhs$[ebp]
  00007	8b f1		 mov	 esi, ecx
  00009	e8 00 00 00 00	 call	 ??0ioMission@@QAE@ABV0@@Z ; ioMission::ioMission
  0000e	c7 06 00 00 00
	00		 mov	 DWORD PTR [esi], OFFSET ??_7ioItemReinforceMission@@6B@

; 463  : 
; 464  : }

  00014	8b c6		 mov	 eax, esi
  00016	5e		 pop	 esi
  00017	5d		 pop	 ebp
  00018	c2 04 00	 ret	 4
??0ioItemReinforceMission@@QAE@ABV0@@Z ENDP		; ioItemReinforceMission::ioItemReinforceMission
_TEXT	ENDS
PUBLIC	??1ioItemReinforceMission@@UAE@XZ		; ioItemReinforceMission::~ioItemReinforceMission
; Function compile flags: /Ogsp
;	COMDAT ??1ioItemReinforceMission@@UAE@XZ
_TEXT	SEGMENT
??1ioItemReinforceMission@@UAE@XZ PROC			; ioItemReinforceMission::~ioItemReinforceMission, COMDAT
; _this$ = ecx

; 467  : {

  00000	c7 01 00 00 00
	00		 mov	 DWORD PTR [ecx], OFFSET ??_7ioItemReinforceMission@@6B@

; 468  : 
; 469  : }

  00006	e9 00 00 00 00	 jmp	 ??1ioMission@@QAE@XZ	; ioMission::~ioMission
??1ioItemReinforceMission@@UAE@XZ ENDP			; ioItemReinforceMission::~ioItemReinforceMission
_TEXT	ENDS
;	COMDAT xdata$x
xdata$x	SEGMENT
__unwindtable$?Clone@ioItemReinforceMission@@UAEPAVioMission@@XZ DD 0ffffffffH
	DD	FLAT:__unwindfunclet$?Clone@ioItemReinforceMission@@UAEPAVioMission@@XZ$0
__ehfuncinfo$?Clone@ioItemReinforceMission@@UAEPAVioMission@@XZ DD 019930522H
	DD	01H
	DD	FLAT:__unwindtable$?Clone@ioItemReinforceMission@@UAEPAVioMission@@XZ
	DD	2 DUP(00H)
	DD	2 DUP(00H)
	DD	00H
	DD	01H
; Function compile flags: /Ogsp
xdata$x	ENDS
;	COMDAT ?Clone@ioItemReinforceMission@@UAEPAVioMission@@XZ
_TEXT	SEGMENT
$T517817 = -16						; size = 4
__$EHRec$ = -12						; size = 12
?Clone@ioItemReinforceMission@@UAEPAVioMission@@XZ PROC	; ioItemReinforceMission::Clone, COMDAT
; _this$ = ecx

; 472  : {

  00000	6a 04		 push	 4
  00002	b8 00 00 00 00	 mov	 eax, __ehhandler$?Clone@ioItemReinforceMission@@UAEPAVioMission@@XZ
  00007	e8 00 00 00 00	 call	 __EH_prolog3
  0000c	8b f1		 mov	 esi, ecx

; 473  : 	return new ioItemReinforceMission( *this );

  0000e	6a 6c		 push	 108			; 0000006cH
  00010	e8 00 00 00 00	 call	 ??2@YAPAXI@Z		; operator new
  00015	59		 pop	 ecx
  00016	8b c8		 mov	 ecx, eax
  00018	89 4d f0	 mov	 DWORD PTR $T517817[ebp], ecx
  0001b	33 c0		 xor	 eax, eax
  0001d	89 45 fc	 mov	 DWORD PTR __$EHRec$[ebp+8], eax
  00020	3b c8		 cmp	 ecx, eax
  00022	74 06		 je	 SHORT $LN3@Clone@9
  00024	56		 push	 esi
  00025	e8 00 00 00 00	 call	 ??0ioItemReinforceMission@@QAE@ABV0@@Z ; ioItemReinforceMission::ioItemReinforceMission
$LN3@Clone@9:

; 474  : }

  0002a	e8 00 00 00 00	 call	 __EH_epilog3
  0002f	c3		 ret	 0
_TEXT	ENDS
;	COMDAT text$x
text$x	SEGMENT
__unwindfunclet$?Clone@ioItemReinforceMission@@UAEPAVioMission@@XZ$0:
  00000	ff 75 f0	 push	 DWORD PTR $T517817[ebp]
  00003	e8 00 00 00 00	 call	 ??3@YAXPAX@Z		; operator delete
  00008	59		 pop	 ecx
  00009	c3		 ret	 0
__ehhandler$?Clone@ioItemReinforceMission@@UAEPAVioMission@@XZ:
  0000a	8b 54 24 08	 mov	 edx, DWORD PTR [esp+8]
  0000e	8d 42 0c	 lea	 eax, DWORD PTR [edx+12]
  00011	8b 4a ec	 mov	 ecx, DWORD PTR [edx-20]
  00014	33 c8		 xor	 ecx, eax
  00016	e8 00 00 00 00	 call	 @__security_check_cookie@4
  0001b	b8 00 00 00 00	 mov	 eax, OFFSET __ehfuncinfo$?Clone@ioItemReinforceMission@@UAEPAVioMission@@XZ
  00020	e9 00 00 00 00	 jmp	 ___CxxFrameHandler3
text$x	ENDS
?Clone@ioItemReinforceMission@@UAEPAVioMission@@XZ ENDP	; ioItemReinforceMission::Clone
PUBLIC	??_7ioModePlayMission@@6B@			; ioModePlayMission::`vftable'
PUBLIC	??0ioModePlayMission@@QAE@XZ			; ioModePlayMission::ioModePlayMission
PUBLIC	??_R4ioModePlayMission@@6B@			; ioModePlayMission::`RTTI Complete Object Locator'
PUBLIC	??_R0?AVioModePlayMission@@@8			; ioModePlayMission `RTTI Type Descriptor'
PUBLIC	??_R3ioModePlayMission@@8			; ioModePlayMission::`RTTI Class Hierarchy Descriptor'
PUBLIC	??_R2ioModePlayMission@@8			; ioModePlayMission::`RTTI Base Class Array'
PUBLIC	??_R1A@?0A@EA@ioModePlayMission@@8		; ioModePlayMission::`RTTI Base Class Descriptor at (0,-1,0,64)'
PUBLIC	?GetMaxAchieveValue@ioModePlayMission@@UBEABHXZ	; ioModePlayMission::GetMaxAchieveValue
PUBLIC	?Clone@ioModePlayMission@@UAEPAVioMission@@XZ	; ioModePlayMission::Clone
EXTRN	??_EioModePlayMission@@UAEPAXI@Z:PROC		; ioModePlayMission::`vector deleting destructor'
;	COMDAT ??_R1A@?0A@EA@ioModePlayMission@@8
rdata$r	SEGMENT
??_R1A@?0A@EA@ioModePlayMission@@8 DD FLAT:??_R0?AVioModePlayMission@@@8 ; ioModePlayMission::`RTTI Base Class Descriptor at (0,-1,0,64)'
	DD	01H
	DD	00H
	DD	0ffffffffH
	DD	00H
	DD	040H
	DD	FLAT:??_R3ioModePlayMission@@8
rdata$r	ENDS
;	COMDAT ??_R2ioModePlayMission@@8
rdata$r	SEGMENT
??_R2ioModePlayMission@@8 DD FLAT:??_R1A@?0A@EA@ioModePlayMission@@8 ; ioModePlayMission::`RTTI Base Class Array'
	DD	FLAT:??_R1A@?0A@EA@ioMission@@8
rdata$r	ENDS
;	COMDAT ??_R3ioModePlayMission@@8
rdata$r	SEGMENT
??_R3ioModePlayMission@@8 DD 00H			; ioModePlayMission::`RTTI Class Hierarchy Descriptor'
	DD	00H
	DD	02H
	DD	FLAT:??_R2ioModePlayMission@@8
rdata$r	ENDS
;	COMDAT ??_R0?AVioModePlayMission@@@8
_DATA	SEGMENT
??_R0?AVioModePlayMission@@@8 DD FLAT:??_7type_info@@6B@ ; ioModePlayMission `RTTI Type Descriptor'
	DD	00H
	DB	'.?AVioModePlayMission@@', 00H
_DATA	ENDS
;	COMDAT ??_R4ioModePlayMission@@6B@
rdata$r	SEGMENT
??_R4ioModePlayMission@@6B@ DD 00H			; ioModePlayMission::`RTTI Complete Object Locator'
	DD	00H
	DD	00H
	DD	FLAT:??_R0?AVioModePlayMission@@@8
	DD	FLAT:??_R3ioModePlayMission@@8
rdata$r	ENDS
;	COMDAT ??_7ioModePlayMission@@6B@
CONST	SEGMENT
??_7ioModePlayMission@@6B@ DD FLAT:??_R4ioModePlayMission@@6B@ ; ioModePlayMission::`vftable'
	DD	FLAT:?GetMaxAchieveValue@ioModePlayMission@@UBEABHXZ
	DD	FLAT:?Init@ioMission@@UAEXPBDAAVioINILoader@@@Z
	DD	FLAT:?Process@ioMission@@UAE_NXZ
	DD	FLAT:?Clone@ioModePlayMission@@UAEPAVioMission@@XZ
	DD	FLAT:??_EioModePlayMission@@UAEPAXI@Z
; Function compile flags: /Ogsp
CONST	ENDS
;	COMDAT ??0ioModePlayMission@@QAE@XZ
_TEXT	SEGMENT
??0ioModePlayMission@@QAE@XZ PROC			; ioModePlayMission::ioModePlayMission, COMDAT
; _this$ = ecx

; 478  : {

  00000	56		 push	 esi
  00001	8b f1		 mov	 esi, ecx
  00003	e8 00 00 00 00	 call	 ??0ioMission@@QAE@XZ	; ioMission::ioMission
  00008	c7 06 00 00 00
	00		 mov	 DWORD PTR [esi], OFFSET ??_7ioModePlayMission@@6B@

; 479  : 
; 480  : }

  0000e	8b c6		 mov	 eax, esi
  00010	5e		 pop	 esi
  00011	c3		 ret	 0
??0ioModePlayMission@@QAE@XZ ENDP			; ioModePlayMission::ioModePlayMission
; Function compile flags: /Ogsp
; File d:\lost saga for developer\youtube\tutorial\source\src\lsclient\iomission.h
_TEXT	ENDS
;	COMDAT ?GetMaxAchieveValue@ioModePlayMission@@UBEABHXZ
_TEXT	SEGMENT
?GetMaxAchieveValue@ioModePlayMission@@UBEABHXZ PROC	; ioModePlayMission::GetMaxAchieveValue, COMDAT
; _this$ = ecx

; 268  : 	virtual const int&  GetMaxAchieveValue() const { return m_iValue1; }

  00000	8d 41 10	 lea	 eax, DWORD PTR [ecx+16]
  00003	c3		 ret	 0
?GetMaxAchieveValue@ioModePlayMission@@UBEABHXZ ENDP	; ioModePlayMission::GetMaxAchieveValue
_TEXT	ENDS
PUBLIC	??0ioModePlayMission@@QAE@ABV0@@Z		; ioModePlayMission::ioModePlayMission
; Function compile flags: /Ogsp
; File d:\lost saga for developer\youtube\tutorial\source\src\lsclient\iomission.cpp
;	COMDAT ??0ioModePlayMission@@QAE@ABV0@@Z
_TEXT	SEGMENT
_rhs$ = 8						; size = 4
??0ioModePlayMission@@QAE@ABV0@@Z PROC			; ioModePlayMission::ioModePlayMission, COMDAT
; _this$ = ecx

; 484  : {

  00000	55		 push	 ebp
  00001	8b ec		 mov	 ebp, esp
  00003	56		 push	 esi
  00004	ff 75 08	 push	 DWORD PTR _rhs$[ebp]
  00007	8b f1		 mov	 esi, ecx
  00009	e8 00 00 00 00	 call	 ??0ioMission@@QAE@ABV0@@Z ; ioMission::ioMission
  0000e	c7 06 00 00 00
	00		 mov	 DWORD PTR [esi], OFFSET ??_7ioModePlayMission@@6B@

; 485  : 
; 486  : }

  00014	8b c6		 mov	 eax, esi
  00016	5e		 pop	 esi
  00017	5d		 pop	 ebp
  00018	c2 04 00	 ret	 4
??0ioModePlayMission@@QAE@ABV0@@Z ENDP			; ioModePlayMission::ioModePlayMission
_TEXT	ENDS
PUBLIC	??1ioModePlayMission@@UAE@XZ			; ioModePlayMission::~ioModePlayMission
; Function compile flags: /Ogsp
;	COMDAT ??1ioModePlayMission@@UAE@XZ
_TEXT	SEGMENT
??1ioModePlayMission@@UAE@XZ PROC			; ioModePlayMission::~ioModePlayMission, COMDAT
; _this$ = ecx

; 489  : {

  00000	c7 01 00 00 00
	00		 mov	 DWORD PTR [ecx], OFFSET ??_7ioModePlayMission@@6B@

; 490  : 
; 491  : }

  00006	e9 00 00 00 00	 jmp	 ??1ioMission@@QAE@XZ	; ioMission::~ioMission
??1ioModePlayMission@@UAE@XZ ENDP			; ioModePlayMission::~ioModePlayMission
_TEXT	ENDS
;	COMDAT xdata$x
xdata$x	SEGMENT
__unwindtable$?Clone@ioModePlayMission@@UAEPAVioMission@@XZ DD 0ffffffffH
	DD	FLAT:__unwindfunclet$?Clone@ioModePlayMission@@UAEPAVioMission@@XZ$0
__ehfuncinfo$?Clone@ioModePlayMission@@UAEPAVioMission@@XZ DD 019930522H
	DD	01H
	DD	FLAT:__unwindtable$?Clone@ioModePlayMission@@UAEPAVioMission@@XZ
	DD	2 DUP(00H)
	DD	2 DUP(00H)
	DD	00H
	DD	01H
; Function compile flags: /Ogsp
xdata$x	ENDS
;	COMDAT ?Clone@ioModePlayMission@@UAEPAVioMission@@XZ
_TEXT	SEGMENT
$T517845 = -16						; size = 4
__$EHRec$ = -12						; size = 12
?Clone@ioModePlayMission@@UAEPAVioMission@@XZ PROC	; ioModePlayMission::Clone, COMDAT
; _this$ = ecx

; 494  : {

  00000	6a 04		 push	 4
  00002	b8 00 00 00 00	 mov	 eax, __ehhandler$?Clone@ioModePlayMission@@UAEPAVioMission@@XZ
  00007	e8 00 00 00 00	 call	 __EH_prolog3
  0000c	8b f1		 mov	 esi, ecx

; 495  : 	return new ioModePlayMission( *this );

  0000e	6a 6c		 push	 108			; 0000006cH
  00010	e8 00 00 00 00	 call	 ??2@YAPAXI@Z		; operator new
  00015	59		 pop	 ecx
  00016	8b c8		 mov	 ecx, eax
  00018	89 4d f0	 mov	 DWORD PTR $T517845[ebp], ecx
  0001b	33 c0		 xor	 eax, eax
  0001d	89 45 fc	 mov	 DWORD PTR __$EHRec$[ebp+8], eax
  00020	3b c8		 cmp	 ecx, eax
  00022	74 06		 je	 SHORT $LN3@Clone@10
  00024	56		 push	 esi
  00025	e8 00 00 00 00	 call	 ??0ioModePlayMission@@QAE@ABV0@@Z ; ioModePlayMission::ioModePlayMission
$LN3@Clone@10:

; 496  : }

  0002a	e8 00 00 00 00	 call	 __EH_epilog3
  0002f	c3		 ret	 0
_TEXT	ENDS
;	COMDAT text$x
text$x	SEGMENT
__unwindfunclet$?Clone@ioModePlayMission@@UAEPAVioMission@@XZ$0:
  00000	ff 75 f0	 push	 DWORD PTR $T517845[ebp]
  00003	e8 00 00 00 00	 call	 ??3@YAXPAX@Z		; operator delete
  00008	59		 pop	 ecx
  00009	c3		 ret	 0
__ehhandler$?Clone@ioModePlayMission@@UAEPAVioMission@@XZ:
  0000a	8b 54 24 08	 mov	 edx, DWORD PTR [esp+8]
  0000e	8d 42 0c	 lea	 eax, DWORD PTR [edx+12]
  00011	8b 4a ec	 mov	 ecx, DWORD PTR [edx-20]
  00014	33 c8		 xor	 ecx, eax
  00016	e8 00 00 00 00	 call	 @__security_check_cookie@4
  0001b	b8 00 00 00 00	 mov	 eax, OFFSET __ehfuncinfo$?Clone@ioModePlayMission@@UAEPAVioMission@@XZ
  00020	e9 00 00 00 00	 jmp	 ___CxxFrameHandler3
text$x	ENDS
?Clone@ioModePlayMission@@UAEPAVioMission@@XZ ENDP	; ioModePlayMission::Clone
PUBLIC	??_7ioDailyCompleteMisson@@6B@			; ioDailyCompleteMisson::`vftable'
PUBLIC	??0ioDailyCompleteMisson@@QAE@XZ		; ioDailyCompleteMisson::ioDailyCompleteMisson
PUBLIC	??_R4ioDailyCompleteMisson@@6B@			; ioDailyCompleteMisson::`RTTI Complete Object Locator'
PUBLIC	??_R0?AVioDailyCompleteMisson@@@8		; ioDailyCompleteMisson `RTTI Type Descriptor'
PUBLIC	??_R3ioDailyCompleteMisson@@8			; ioDailyCompleteMisson::`RTTI Class Hierarchy Descriptor'
PUBLIC	??_R2ioDailyCompleteMisson@@8			; ioDailyCompleteMisson::`RTTI Base Class Array'
PUBLIC	??_R1A@?0A@EA@ioDailyCompleteMisson@@8		; ioDailyCompleteMisson::`RTTI Base Class Descriptor at (0,-1,0,64)'
PUBLIC	?GetMaxAchieveValue@ioDailyCompleteMisson@@UBEABHXZ ; ioDailyCompleteMisson::GetMaxAchieveValue
PUBLIC	?Clone@ioDailyCompleteMisson@@UAEPAVioMission@@XZ ; ioDailyCompleteMisson::Clone
EXTRN	??_EioDailyCompleteMisson@@UAEPAXI@Z:PROC	; ioDailyCompleteMisson::`vector deleting destructor'
;	COMDAT ??_R1A@?0A@EA@ioDailyCompleteMisson@@8
rdata$r	SEGMENT
??_R1A@?0A@EA@ioDailyCompleteMisson@@8 DD FLAT:??_R0?AVioDailyCompleteMisson@@@8 ; ioDailyCompleteMisson::`RTTI Base Class Descriptor at (0,-1,0,64)'
	DD	01H
	DD	00H
	DD	0ffffffffH
	DD	00H
	DD	040H
	DD	FLAT:??_R3ioDailyCompleteMisson@@8
rdata$r	ENDS
;	COMDAT ??_R2ioDailyCompleteMisson@@8
rdata$r	SEGMENT
??_R2ioDailyCompleteMisson@@8 DD FLAT:??_R1A@?0A@EA@ioDailyCompleteMisson@@8 ; ioDailyCompleteMisson::`RTTI Base Class Array'
	DD	FLAT:??_R1A@?0A@EA@ioMission@@8
rdata$r	ENDS
;	COMDAT ??_R3ioDailyCompleteMisson@@8
rdata$r	SEGMENT
??_R3ioDailyCompleteMisson@@8 DD 00H			; ioDailyCompleteMisson::`RTTI Class Hierarchy Descriptor'
	DD	00H
	DD	02H
	DD	FLAT:??_R2ioDailyCompleteMisson@@8
rdata$r	ENDS
;	COMDAT ??_R0?AVioDailyCompleteMisson@@@8
_DATA	SEGMENT
??_R0?AVioDailyCompleteMisson@@@8 DD FLAT:??_7type_info@@6B@ ; ioDailyCompleteMisson `RTTI Type Descriptor'
	DD	00H
	DB	'.?AVioDailyCompleteMisson@@', 00H
_DATA	ENDS
;	COMDAT ??_R4ioDailyCompleteMisson@@6B@
rdata$r	SEGMENT
??_R4ioDailyCompleteMisson@@6B@ DD 00H			; ioDailyCompleteMisson::`RTTI Complete Object Locator'
	DD	00H
	DD	00H
	DD	FLAT:??_R0?AVioDailyCompleteMisson@@@8
	DD	FLAT:??_R3ioDailyCompleteMisson@@8
rdata$r	ENDS
;	COMDAT ??_7ioDailyCompleteMisson@@6B@
CONST	SEGMENT
??_7ioDailyCompleteMisson@@6B@ DD FLAT:??_R4ioDailyCompleteMisson@@6B@ ; ioDailyCompleteMisson::`vftable'
	DD	FLAT:?GetMaxAchieveValue@ioDailyCompleteMisson@@UBEABHXZ
	DD	FLAT:?Init@ioMission@@UAEXPBDAAVioINILoader@@@Z
	DD	FLAT:?Process@ioMission@@UAE_NXZ
	DD	FLAT:?Clone@ioDailyCompleteMisson@@UAEPAVioMission@@XZ
	DD	FLAT:??_EioDailyCompleteMisson@@UAEPAXI@Z
; Function compile flags: /Ogsp
CONST	ENDS
;	COMDAT ??0ioDailyCompleteMisson@@QAE@XZ
_TEXT	SEGMENT
??0ioDailyCompleteMisson@@QAE@XZ PROC			; ioDailyCompleteMisson::ioDailyCompleteMisson, COMDAT
; _this$ = ecx

; 500  : {

  00000	56		 push	 esi
  00001	8b f1		 mov	 esi, ecx
  00003	e8 00 00 00 00	 call	 ??0ioMission@@QAE@XZ	; ioMission::ioMission
  00008	c7 06 00 00 00
	00		 mov	 DWORD PTR [esi], OFFSET ??_7ioDailyCompleteMisson@@6B@

; 501  : 
; 502  : }

  0000e	8b c6		 mov	 eax, esi
  00010	5e		 pop	 esi
  00011	c3		 ret	 0
??0ioDailyCompleteMisson@@QAE@XZ ENDP			; ioDailyCompleteMisson::ioDailyCompleteMisson
; Function compile flags: /Ogsp
; File d:\lost saga for developer\youtube\tutorial\source\src\lsclient\iomission.h
_TEXT	ENDS
;	COMDAT ?GetMaxAchieveValue@ioDailyCompleteMisson@@UBEABHXZ
_TEXT	SEGMENT
?GetMaxAchieveValue@ioDailyCompleteMisson@@UBEABHXZ PROC ; ioDailyCompleteMisson::GetMaxAchieveValue, COMDAT
; _this$ = ecx

; 281  : 	virtual const int&  GetMaxAchieveValue() const { return m_iValue1; }

  00000	8d 41 10	 lea	 eax, DWORD PTR [ecx+16]
  00003	c3		 ret	 0
?GetMaxAchieveValue@ioDailyCompleteMisson@@UBEABHXZ ENDP ; ioDailyCompleteMisson::GetMaxAchieveValue
_TEXT	ENDS
PUBLIC	??0ioDailyCompleteMisson@@QAE@ABV0@@Z		; ioDailyCompleteMisson::ioDailyCompleteMisson
; Function compile flags: /Ogsp
; File d:\lost saga for developer\youtube\tutorial\source\src\lsclient\iomission.cpp
;	COMDAT ??0ioDailyCompleteMisson@@QAE@ABV0@@Z
_TEXT	SEGMENT
_rhs$ = 8						; size = 4
??0ioDailyCompleteMisson@@QAE@ABV0@@Z PROC		; ioDailyCompleteMisson::ioDailyCompleteMisson, COMDAT
; _this$ = ecx

; 506  : {

  00000	55		 push	 ebp
  00001	8b ec		 mov	 ebp, esp
  00003	56		 push	 esi
  00004	ff 75 08	 push	 DWORD PTR _rhs$[ebp]
  00007	8b f1		 mov	 esi, ecx
  00009	e8 00 00 00 00	 call	 ??0ioMission@@QAE@ABV0@@Z ; ioMission::ioMission
  0000e	c7 06 00 00 00
	00		 mov	 DWORD PTR [esi], OFFSET ??_7ioDailyCompleteMisson@@6B@

; 507  : 	
; 508  : }

  00014	8b c6		 mov	 eax, esi
  00016	5e		 pop	 esi
  00017	5d		 pop	 ebp
  00018	c2 04 00	 ret	 4
??0ioDailyCompleteMisson@@QAE@ABV0@@Z ENDP		; ioDailyCompleteMisson::ioDailyCompleteMisson
_TEXT	ENDS
PUBLIC	??1ioDailyCompleteMisson@@UAE@XZ		; ioDailyCompleteMisson::~ioDailyCompleteMisson
; Function compile flags: /Ogsp
;	COMDAT ??1ioDailyCompleteMisson@@UAE@XZ
_TEXT	SEGMENT
??1ioDailyCompleteMisson@@UAE@XZ PROC			; ioDailyCompleteMisson::~ioDailyCompleteMisson, COMDAT
; _this$ = ecx

; 511  : {

  00000	c7 01 00 00 00
	00		 mov	 DWORD PTR [ecx], OFFSET ??_7ioDailyCompleteMisson@@6B@

; 512  : 
; 513  : }

  00006	e9 00 00 00 00	 jmp	 ??1ioMission@@QAE@XZ	; ioMission::~ioMission
??1ioDailyCompleteMisson@@UAE@XZ ENDP			; ioDailyCompleteMisson::~ioDailyCompleteMisson
_TEXT	ENDS
;	COMDAT xdata$x
xdata$x	SEGMENT
__unwindtable$?Clone@ioDailyCompleteMisson@@UAEPAVioMission@@XZ DD 0ffffffffH
	DD	FLAT:__unwindfunclet$?Clone@ioDailyCompleteMisson@@UAEPAVioMission@@XZ$0
__ehfuncinfo$?Clone@ioDailyCompleteMisson@@UAEPAVioMission@@XZ DD 019930522H
	DD	01H
	DD	FLAT:__unwindtable$?Clone@ioDailyCompleteMisson@@UAEPAVioMission@@XZ
	DD	2 DUP(00H)
	DD	2 DUP(00H)
	DD	00H
	DD	01H
; Function compile flags: /Ogsp
xdata$x	ENDS
;	COMDAT ?Clone@ioDailyCompleteMisson@@UAEPAVioMission@@XZ
_TEXT	SEGMENT
$T517873 = -16						; size = 4
__$EHRec$ = -12						; size = 12
?Clone@ioDailyCompleteMisson@@UAEPAVioMission@@XZ PROC	; ioDailyCompleteMisson::Clone, COMDAT
; _this$ = ecx

; 516  : {

  00000	6a 04		 push	 4
  00002	b8 00 00 00 00	 mov	 eax, __ehhandler$?Clone@ioDailyCompleteMisson@@UAEPAVioMission@@XZ
  00007	e8 00 00 00 00	 call	 __EH_prolog3
  0000c	8b f1		 mov	 esi, ecx

; 517  : 	return new ioDailyCompleteMisson( *this );

  0000e	6a 6c		 push	 108			; 0000006cH
  00010	e8 00 00 00 00	 call	 ??2@YAPAXI@Z		; operator new
  00015	59		 pop	 ecx
  00016	8b c8		 mov	 ecx, eax
  00018	89 4d f0	 mov	 DWORD PTR $T517873[ebp], ecx
  0001b	33 c0		 xor	 eax, eax
  0001d	89 45 fc	 mov	 DWORD PTR __$EHRec$[ebp+8], eax
  00020	3b c8		 cmp	 ecx, eax
  00022	74 06		 je	 SHORT $LN3@Clone@11
  00024	56		 push	 esi
  00025	e8 00 00 00 00	 call	 ??0ioDailyCompleteMisson@@QAE@ABV0@@Z ; ioDailyCompleteMisson::ioDailyCompleteMisson
$LN3@Clone@11:

; 518  : }

  0002a	e8 00 00 00 00	 call	 __EH_epilog3
  0002f	c3		 ret	 0
_TEXT	ENDS
;	COMDAT text$x
text$x	SEGMENT
__unwindfunclet$?Clone@ioDailyCompleteMisson@@UAEPAVioMission@@XZ$0:
  00000	ff 75 f0	 push	 DWORD PTR $T517873[ebp]
  00003	e8 00 00 00 00	 call	 ??3@YAXPAX@Z		; operator delete
  00008	59		 pop	 ecx
  00009	c3		 ret	 0
__ehhandler$?Clone@ioDailyCompleteMisson@@UAEPAVioMission@@XZ:
  0000a	8b 54 24 08	 mov	 edx, DWORD PTR [esp+8]
  0000e	8d 42 0c	 lea	 eax, DWORD PTR [edx+12]
  00011	8b 4a ec	 mov	 ecx, DWORD PTR [edx-20]
  00014	33 c8		 xor	 ecx, eax
  00016	e8 00 00 00 00	 call	 @__security_check_cookie@4
  0001b	b8 00 00 00 00	 mov	 eax, OFFSET __ehfuncinfo$?Clone@ioDailyCompleteMisson@@UAEPAVioMission@@XZ
  00020	e9 00 00 00 00	 jmp	 ___CxxFrameHandler3
text$x	ENDS
?Clone@ioDailyCompleteMisson@@UAEPAVioMission@@XZ ENDP	; ioDailyCompleteMisson::Clone
PUBLIC	??_7ioDailyAllClearMisson@@6B@			; ioDailyAllClearMisson::`vftable'
PUBLIC	??0ioDailyAllClearMisson@@QAE@XZ		; ioDailyAllClearMisson::ioDailyAllClearMisson
PUBLIC	??_R4ioDailyAllClearMisson@@6B@			; ioDailyAllClearMisson::`RTTI Complete Object Locator'
PUBLIC	??_R0?AVioDailyAllClearMisson@@@8		; ioDailyAllClearMisson `RTTI Type Descriptor'
PUBLIC	??_R3ioDailyAllClearMisson@@8			; ioDailyAllClearMisson::`RTTI Class Hierarchy Descriptor'
PUBLIC	??_R2ioDailyAllClearMisson@@8			; ioDailyAllClearMisson::`RTTI Base Class Array'
PUBLIC	??_R1A@?0A@EA@ioDailyAllClearMisson@@8		; ioDailyAllClearMisson::`RTTI Base Class Descriptor at (0,-1,0,64)'
PUBLIC	?GetMaxAchieveValue@ioDailyAllClearMisson@@UBEABHXZ ; ioDailyAllClearMisson::GetMaxAchieveValue
PUBLIC	?Clone@ioDailyAllClearMisson@@UAEPAVioMission@@XZ ; ioDailyAllClearMisson::Clone
EXTRN	??_EioDailyAllClearMisson@@UAEPAXI@Z:PROC	; ioDailyAllClearMisson::`vector deleting destructor'
;	COMDAT ??_R1A@?0A@EA@ioDailyAllClearMisson@@8
rdata$r	SEGMENT
??_R1A@?0A@EA@ioDailyAllClearMisson@@8 DD FLAT:??_R0?AVioDailyAllClearMisson@@@8 ; ioDailyAllClearMisson::`RTTI Base Class Descriptor at (0,-1,0,64)'
	DD	01H
	DD	00H
	DD	0ffffffffH
	DD	00H
	DD	040H
	DD	FLAT:??_R3ioDailyAllClearMisson@@8
rdata$r	ENDS
;	COMDAT ??_R2ioDailyAllClearMisson@@8
rdata$r	SEGMENT
??_R2ioDailyAllClearMisson@@8 DD FLAT:??_R1A@?0A@EA@ioDailyAllClearMisson@@8 ; ioDailyAllClearMisson::`RTTI Base Class Array'
	DD	FLAT:??_R1A@?0A@EA@ioMission@@8
rdata$r	ENDS
;	COMDAT ??_R3ioDailyAllClearMisson@@8
rdata$r	SEGMENT
??_R3ioDailyAllClearMisson@@8 DD 00H			; ioDailyAllClearMisson::`RTTI Class Hierarchy Descriptor'
	DD	00H
	DD	02H
	DD	FLAT:??_R2ioDailyAllClearMisson@@8
rdata$r	ENDS
;	COMDAT ??_R0?AVioDailyAllClearMisson@@@8
_DATA	SEGMENT
??_R0?AVioDailyAllClearMisson@@@8 DD FLAT:??_7type_info@@6B@ ; ioDailyAllClearMisson `RTTI Type Descriptor'
	DD	00H
	DB	'.?AVioDailyAllClearMisson@@', 00H
_DATA	ENDS
;	COMDAT ??_R4ioDailyAllClearMisson@@6B@
rdata$r	SEGMENT
??_R4ioDailyAllClearMisson@@6B@ DD 00H			; ioDailyAllClearMisson::`RTTI Complete Object Locator'
	DD	00H
	DD	00H
	DD	FLAT:??_R0?AVioDailyAllClearMisson@@@8
	DD	FLAT:??_R3ioDailyAllClearMisson@@8
rdata$r	ENDS
;	COMDAT ??_7ioDailyAllClearMisson@@6B@
CONST	SEGMENT
??_7ioDailyAllClearMisson@@6B@ DD FLAT:??_R4ioDailyAllClearMisson@@6B@ ; ioDailyAllClearMisson::`vftable'
	DD	FLAT:?GetMaxAchieveValue@ioDailyAllClearMisson@@UBEABHXZ
	DD	FLAT:?Init@ioMission@@UAEXPBDAAVioINILoader@@@Z
	DD	FLAT:?Process@ioMission@@UAE_NXZ
	DD	FLAT:?Clone@ioDailyAllClearMisson@@UAEPAVioMission@@XZ
	DD	FLAT:??_EioDailyAllClearMisson@@UAEPAXI@Z
; Function compile flags: /Ogsp
CONST	ENDS
;	COMDAT ??0ioDailyAllClearMisson@@QAE@XZ
_TEXT	SEGMENT
??0ioDailyAllClearMisson@@QAE@XZ PROC			; ioDailyAllClearMisson::ioDailyAllClearMisson, COMDAT
; _this$ = ecx

; 522  : {

  00000	56		 push	 esi
  00001	8b f1		 mov	 esi, ecx
  00003	e8 00 00 00 00	 call	 ??0ioMission@@QAE@XZ	; ioMission::ioMission
  00008	c7 06 00 00 00
	00		 mov	 DWORD PTR [esi], OFFSET ??_7ioDailyAllClearMisson@@6B@

; 523  : 
; 524  : }

  0000e	8b c6		 mov	 eax, esi
  00010	5e		 pop	 esi
  00011	c3		 ret	 0
??0ioDailyAllClearMisson@@QAE@XZ ENDP			; ioDailyAllClearMisson::ioDailyAllClearMisson
; Function compile flags: /Ogsp
; File d:\lost saga for developer\youtube\tutorial\source\src\lsclient\iomission.h
_TEXT	ENDS
;	COMDAT ?GetMaxAchieveValue@ioDailyAllClearMisson@@UBEABHXZ
_TEXT	SEGMENT
?GetMaxAchieveValue@ioDailyAllClearMisson@@UBEABHXZ PROC ; ioDailyAllClearMisson::GetMaxAchieveValue, COMDAT
; _this$ = ecx

; 294  : 	virtual const int&  GetMaxAchieveValue() const { return m_iValue1; }

  00000	8d 41 10	 lea	 eax, DWORD PTR [ecx+16]
  00003	c3		 ret	 0
?GetMaxAchieveValue@ioDailyAllClearMisson@@UBEABHXZ ENDP ; ioDailyAllClearMisson::GetMaxAchieveValue
_TEXT	ENDS
PUBLIC	??1ioDailyAllClearMisson@@UAE@XZ		; ioDailyAllClearMisson::~ioDailyAllClearMisson
; Function compile flags: /Ogsp
; File d:\lost saga for developer\youtube\tutorial\source\src\lsclient\iomission.cpp
;	COMDAT ??1ioDailyAllClearMisson@@UAE@XZ
_TEXT	SEGMENT
??1ioDailyAllClearMisson@@UAE@XZ PROC			; ioDailyAllClearMisson::~ioDailyAllClearMisson, COMDAT
; _this$ = ecx

; 527  : {

  00000	c7 01 00 00 00
	00		 mov	 DWORD PTR [ecx], OFFSET ??_7ioDailyAllClearMisson@@6B@

; 528  : 
; 529  : }

  00006	e9 00 00 00 00	 jmp	 ??1ioMission@@QAE@XZ	; ioMission::~ioMission
??1ioDailyAllClearMisson@@UAE@XZ ENDP			; ioDailyAllClearMisson::~ioDailyAllClearMisson
_TEXT	ENDS
PUBLIC	??0ioDailyAllClearMisson@@QAE@ABV0@@Z		; ioDailyAllClearMisson::ioDailyAllClearMisson
; Function compile flags: /Ogsp
;	COMDAT ??0ioDailyAllClearMisson@@QAE@ABV0@@Z
_TEXT	SEGMENT
_rhs$ = 8						; size = 4
??0ioDailyAllClearMisson@@QAE@ABV0@@Z PROC		; ioDailyAllClearMisson::ioDailyAllClearMisson, COMDAT
; _this$ = ecx

; 538  : {

  00000	55		 push	 ebp
  00001	8b ec		 mov	 ebp, esp
  00003	56		 push	 esi
  00004	ff 75 08	 push	 DWORD PTR _rhs$[ebp]
  00007	8b f1		 mov	 esi, ecx
  00009	e8 00 00 00 00	 call	 ??0ioMission@@QAE@ABV0@@Z ; ioMission::ioMission
  0000e	c7 06 00 00 00
	00		 mov	 DWORD PTR [esi], OFFSET ??_7ioDailyAllClearMisson@@6B@

; 539  : 
; 540  : }

  00014	8b c6		 mov	 eax, esi
  00016	5e		 pop	 esi
  00017	5d		 pop	 ebp
  00018	c2 04 00	 ret	 4
??0ioDailyAllClearMisson@@QAE@ABV0@@Z ENDP		; ioDailyAllClearMisson::ioDailyAllClearMisson
_TEXT	ENDS
PUBLIC	??_7ioWeeklyCompleteMission@@6B@		; ioWeeklyCompleteMission::`vftable'
PUBLIC	??0ioWeeklyCompleteMission@@QAE@XZ		; ioWeeklyCompleteMission::ioWeeklyCompleteMission
PUBLIC	??_R4ioWeeklyCompleteMission@@6B@		; ioWeeklyCompleteMission::`RTTI Complete Object Locator'
PUBLIC	??_R0?AVioWeeklyCompleteMission@@@8		; ioWeeklyCompleteMission `RTTI Type Descriptor'
PUBLIC	??_R3ioWeeklyCompleteMission@@8			; ioWeeklyCompleteMission::`RTTI Class Hierarchy Descriptor'
PUBLIC	??_R2ioWeeklyCompleteMission@@8			; ioWeeklyCompleteMission::`RTTI Base Class Array'
PUBLIC	??_R1A@?0A@EA@ioWeeklyCompleteMission@@8	; ioWeeklyCompleteMission::`RTTI Base Class Descriptor at (0,-1,0,64)'
PUBLIC	?GetMaxAchieveValue@ioWeeklyCompleteMission@@UBEABHXZ ; ioWeeklyCompleteMission::GetMaxAchieveValue
PUBLIC	?Clone@ioWeeklyCompleteMission@@UAEPAVioMission@@XZ ; ioWeeklyCompleteMission::Clone
EXTRN	??_EioWeeklyCompleteMission@@UAEPAXI@Z:PROC	; ioWeeklyCompleteMission::`vector deleting destructor'
;	COMDAT ??_R1A@?0A@EA@ioWeeklyCompleteMission@@8
rdata$r	SEGMENT
??_R1A@?0A@EA@ioWeeklyCompleteMission@@8 DD FLAT:??_R0?AVioWeeklyCompleteMission@@@8 ; ioWeeklyCompleteMission::`RTTI Base Class Descriptor at (0,-1,0,64)'
	DD	01H
	DD	00H
	DD	0ffffffffH
	DD	00H
	DD	040H
	DD	FLAT:??_R3ioWeeklyCompleteMission@@8
rdata$r	ENDS
;	COMDAT ??_R2ioWeeklyCompleteMission@@8
rdata$r	SEGMENT
??_R2ioWeeklyCompleteMission@@8 DD FLAT:??_R1A@?0A@EA@ioWeeklyCompleteMission@@8 ; ioWeeklyCompleteMission::`RTTI Base Class Array'
	DD	FLAT:??_R1A@?0A@EA@ioMission@@8
rdata$r	ENDS
;	COMDAT ??_R3ioWeeklyCompleteMission@@8
rdata$r	SEGMENT
??_R3ioWeeklyCompleteMission@@8 DD 00H			; ioWeeklyCompleteMission::`RTTI Class Hierarchy Descriptor'
	DD	00H
	DD	02H
	DD	FLAT:??_R2ioWeeklyCompleteMission@@8
rdata$r	ENDS
;	COMDAT ??_R0?AVioWeeklyCompleteMission@@@8
_DATA	SEGMENT
??_R0?AVioWeeklyCompleteMission@@@8 DD FLAT:??_7type_info@@6B@ ; ioWeeklyCompleteMission `RTTI Type Descriptor'
	DD	00H
	DB	'.?AVioWeeklyCompleteMission@@', 00H
_DATA	ENDS
;	COMDAT ??_R4ioWeeklyCompleteMission@@6B@
rdata$r	SEGMENT
??_R4ioWeeklyCompleteMission@@6B@ DD 00H		; ioWeeklyCompleteMission::`RTTI Complete Object Locator'
	DD	00H
	DD	00H
	DD	FLAT:??_R0?AVioWeeklyCompleteMission@@@8
	DD	FLAT:??_R3ioWeeklyCompleteMission@@8
rdata$r	ENDS
;	COMDAT ??_7ioWeeklyCompleteMission@@6B@
CONST	SEGMENT
??_7ioWeeklyCompleteMission@@6B@ DD FLAT:??_R4ioWeeklyCompleteMission@@6B@ ; ioWeeklyCompleteMission::`vftable'
	DD	FLAT:?GetMaxAchieveValue@ioWeeklyCompleteMission@@UBEABHXZ
	DD	FLAT:?Init@ioMission@@UAEXPBDAAVioINILoader@@@Z
	DD	FLAT:?Process@ioMission@@UAE_NXZ
	DD	FLAT:?Clone@ioWeeklyCompleteMission@@UAEPAVioMission@@XZ
	DD	FLAT:??_EioWeeklyCompleteMission@@UAEPAXI@Z
; Function compile flags: /Ogsp
CONST	ENDS
;	COMDAT ??0ioWeeklyCompleteMission@@QAE@XZ
_TEXT	SEGMENT
??0ioWeeklyCompleteMission@@QAE@XZ PROC			; ioWeeklyCompleteMission::ioWeeklyCompleteMission, COMDAT
; _this$ = ecx

; 544  : {

  00000	56		 push	 esi
  00001	8b f1		 mov	 esi, ecx
  00003	e8 00 00 00 00	 call	 ??0ioMission@@QAE@XZ	; ioMission::ioMission
  00008	c7 06 00 00 00
	00		 mov	 DWORD PTR [esi], OFFSET ??_7ioWeeklyCompleteMission@@6B@

; 545  : 
; 546  : }

  0000e	8b c6		 mov	 eax, esi
  00010	5e		 pop	 esi
  00011	c3		 ret	 0
??0ioWeeklyCompleteMission@@QAE@XZ ENDP			; ioWeeklyCompleteMission::ioWeeklyCompleteMission
; Function compile flags: /Ogsp
; File d:\lost saga for developer\youtube\tutorial\source\src\lsclient\iomission.h
_TEXT	ENDS
;	COMDAT ?GetMaxAchieveValue@ioWeeklyCompleteMission@@UBEABHXZ
_TEXT	SEGMENT
?GetMaxAchieveValue@ioWeeklyCompleteMission@@UBEABHXZ PROC ; ioWeeklyCompleteMission::GetMaxAchieveValue, COMDAT
; _this$ = ecx

; 307  : 	virtual const int&  GetMaxAchieveValue() const { return m_iValue1; }

  00000	8d 41 10	 lea	 eax, DWORD PTR [ecx+16]
  00003	c3		 ret	 0
?GetMaxAchieveValue@ioWeeklyCompleteMission@@UBEABHXZ ENDP ; ioWeeklyCompleteMission::GetMaxAchieveValue
_TEXT	ENDS
PUBLIC	??0ioWeeklyCompleteMission@@QAE@ABV0@@Z		; ioWeeklyCompleteMission::ioWeeklyCompleteMission
; Function compile flags: /Ogsp
; File d:\lost saga for developer\youtube\tutorial\source\src\lsclient\iomission.cpp
;	COMDAT ??0ioWeeklyCompleteMission@@QAE@ABV0@@Z
_TEXT	SEGMENT
_rhs$ = 8						; size = 4
??0ioWeeklyCompleteMission@@QAE@ABV0@@Z PROC		; ioWeeklyCompleteMission::ioWeeklyCompleteMission, COMDAT
; _this$ = ecx

; 550  : {

  00000	55		 push	 ebp
  00001	8b ec		 mov	 ebp, esp
  00003	56		 push	 esi
  00004	ff 75 08	 push	 DWORD PTR _rhs$[ebp]
  00007	8b f1		 mov	 esi, ecx
  00009	e8 00 00 00 00	 call	 ??0ioMission@@QAE@ABV0@@Z ; ioMission::ioMission
  0000e	c7 06 00 00 00
	00		 mov	 DWORD PTR [esi], OFFSET ??_7ioWeeklyCompleteMission@@6B@

; 551  : 
; 552  : }

  00014	8b c6		 mov	 eax, esi
  00016	5e		 pop	 esi
  00017	5d		 pop	 ebp
  00018	c2 04 00	 ret	 4
??0ioWeeklyCompleteMission@@QAE@ABV0@@Z ENDP		; ioWeeklyCompleteMission::ioWeeklyCompleteMission
_TEXT	ENDS
PUBLIC	??1ioWeeklyCompleteMission@@UAE@XZ		; ioWeeklyCompleteMission::~ioWeeklyCompleteMission
; Function compile flags: /Ogsp
;	COMDAT ??1ioWeeklyCompleteMission@@UAE@XZ
_TEXT	SEGMENT
??1ioWeeklyCompleteMission@@UAE@XZ PROC			; ioWeeklyCompleteMission::~ioWeeklyCompleteMission, COMDAT
; _this$ = ecx

; 555  : {

  00000	c7 01 00 00 00
	00		 mov	 DWORD PTR [ecx], OFFSET ??_7ioWeeklyCompleteMission@@6B@

; 556  : 
; 557  : }

  00006	e9 00 00 00 00	 jmp	 ??1ioMission@@QAE@XZ	; ioMission::~ioMission
??1ioWeeklyCompleteMission@@UAE@XZ ENDP			; ioWeeklyCompleteMission::~ioWeeklyCompleteMission
_TEXT	ENDS
;	COMDAT xdata$x
xdata$x	SEGMENT
__unwindtable$?Clone@ioWeeklyCompleteMission@@UAEPAVioMission@@XZ DD 0ffffffffH
	DD	FLAT:__unwindfunclet$?Clone@ioWeeklyCompleteMission@@UAEPAVioMission@@XZ$0
__ehfuncinfo$?Clone@ioWeeklyCompleteMission@@UAEPAVioMission@@XZ DD 019930522H
	DD	01H
	DD	FLAT:__unwindtable$?Clone@ioWeeklyCompleteMission@@UAEPAVioMission@@XZ
	DD	2 DUP(00H)
	DD	2 DUP(00H)
	DD	00H
	DD	01H
; Function compile flags: /Ogsp
xdata$x	ENDS
;	COMDAT ?Clone@ioWeeklyCompleteMission@@UAEPAVioMission@@XZ
_TEXT	SEGMENT
$T517916 = -16						; size = 4
__$EHRec$ = -12						; size = 12
?Clone@ioWeeklyCompleteMission@@UAEPAVioMission@@XZ PROC ; ioWeeklyCompleteMission::Clone, COMDAT
; _this$ = ecx

; 560  : {

  00000	6a 04		 push	 4
  00002	b8 00 00 00 00	 mov	 eax, __ehhandler$?Clone@ioWeeklyCompleteMission@@UAEPAVioMission@@XZ
  00007	e8 00 00 00 00	 call	 __EH_prolog3
  0000c	8b f1		 mov	 esi, ecx

; 561  : 	return new ioWeeklyCompleteMission( *this );

  0000e	6a 6c		 push	 108			; 0000006cH
  00010	e8 00 00 00 00	 call	 ??2@YAPAXI@Z		; operator new
  00015	59		 pop	 ecx
  00016	8b c8		 mov	 ecx, eax
  00018	89 4d f0	 mov	 DWORD PTR $T517916[ebp], ecx
  0001b	33 c0		 xor	 eax, eax
  0001d	89 45 fc	 mov	 DWORD PTR __$EHRec$[ebp+8], eax
  00020	3b c8		 cmp	 ecx, eax
  00022	74 06		 je	 SHORT $LN3@Clone@12
  00024	56		 push	 esi
  00025	e8 00 00 00 00	 call	 ??0ioWeeklyCompleteMission@@QAE@ABV0@@Z ; ioWeeklyCompleteMission::ioWeeklyCompleteMission
$LN3@Clone@12:

; 562  : }

  0002a	e8 00 00 00 00	 call	 __EH_epilog3
  0002f	c3		 ret	 0
_TEXT	ENDS
;	COMDAT text$x
text$x	SEGMENT
__unwindfunclet$?Clone@ioWeeklyCompleteMission@@UAEPAVioMission@@XZ$0:
  00000	ff 75 f0	 push	 DWORD PTR $T517916[ebp]
  00003	e8 00 00 00 00	 call	 ??3@YAXPAX@Z		; operator delete
  00008	59		 pop	 ecx
  00009	c3		 ret	 0
__ehhandler$?Clone@ioWeeklyCompleteMission@@UAEPAVioMission@@XZ:
  0000a	8b 54 24 08	 mov	 edx, DWORD PTR [esp+8]
  0000e	8d 42 0c	 lea	 eax, DWORD PTR [edx+12]
  00011	8b 4a ec	 mov	 ecx, DWORD PTR [edx-20]
  00014	33 c8		 xor	 ecx, eax
  00016	e8 00 00 00 00	 call	 @__security_check_cookie@4
  0001b	b8 00 00 00 00	 mov	 eax, OFFSET __ehfuncinfo$?Clone@ioWeeklyCompleteMission@@UAEPAVioMission@@XZ
  00020	e9 00 00 00 00	 jmp	 ___CxxFrameHandler3
text$x	ENDS
?Clone@ioWeeklyCompleteMission@@UAEPAVioMission@@XZ ENDP ; ioWeeklyCompleteMission::Clone
PUBLIC	??_7ioWeeklyAllClearMission@@6B@		; ioWeeklyAllClearMission::`vftable'
PUBLIC	??0ioWeeklyAllClearMission@@QAE@XZ		; ioWeeklyAllClearMission::ioWeeklyAllClearMission
PUBLIC	??_R4ioWeeklyAllClearMission@@6B@		; ioWeeklyAllClearMission::`RTTI Complete Object Locator'
PUBLIC	??_R0?AVioWeeklyAllClearMission@@@8		; ioWeeklyAllClearMission `RTTI Type Descriptor'
PUBLIC	??_R3ioWeeklyAllClearMission@@8			; ioWeeklyAllClearMission::`RTTI Class Hierarchy Descriptor'
PUBLIC	??_R2ioWeeklyAllClearMission@@8			; ioWeeklyAllClearMission::`RTTI Base Class Array'
PUBLIC	??_R1A@?0A@EA@ioWeeklyAllClearMission@@8	; ioWeeklyAllClearMission::`RTTI Base Class Descriptor at (0,-1,0,64)'
PUBLIC	?GetMaxAchieveValue@ioWeeklyAllClearMission@@UBEABHXZ ; ioWeeklyAllClearMission::GetMaxAchieveValue
PUBLIC	?Clone@ioWeeklyAllClearMission@@UAEPAVioMission@@XZ ; ioWeeklyAllClearMission::Clone
EXTRN	??_EioWeeklyAllClearMission@@UAEPAXI@Z:PROC	; ioWeeklyAllClearMission::`vector deleting destructor'
;	COMDAT ??_R1A@?0A@EA@ioWeeklyAllClearMission@@8
rdata$r	SEGMENT
??_R1A@?0A@EA@ioWeeklyAllClearMission@@8 DD FLAT:??_R0?AVioWeeklyAllClearMission@@@8 ; ioWeeklyAllClearMission::`RTTI Base Class Descriptor at (0,-1,0,64)'
	DD	01H
	DD	00H
	DD	0ffffffffH
	DD	00H
	DD	040H
	DD	FLAT:??_R3ioWeeklyAllClearMission@@8
rdata$r	ENDS
;	COMDAT ??_R2ioWeeklyAllClearMission@@8
rdata$r	SEGMENT
??_R2ioWeeklyAllClearMission@@8 DD FLAT:??_R1A@?0A@EA@ioWeeklyAllClearMission@@8 ; ioWeeklyAllClearMission::`RTTI Base Class Array'
	DD	FLAT:??_R1A@?0A@EA@ioMission@@8
rdata$r	ENDS
;	COMDAT ??_R3ioWeeklyAllClearMission@@8
rdata$r	SEGMENT
??_R3ioWeeklyAllClearMission@@8 DD 00H			; ioWeeklyAllClearMission::`RTTI Class Hierarchy Descriptor'
	DD	00H
	DD	02H
	DD	FLAT:??_R2ioWeeklyAllClearMission@@8
rdata$r	ENDS
;	COMDAT ??_R0?AVioWeeklyAllClearMission@@@8
_DATA	SEGMENT
??_R0?AVioWeeklyAllClearMission@@@8 DD FLAT:??_7type_info@@6B@ ; ioWeeklyAllClearMission `RTTI Type Descriptor'
	DD	00H
	DB	'.?AVioWeeklyAllClearMission@@', 00H
_DATA	ENDS
;	COMDAT ??_R4ioWeeklyAllClearMission@@6B@
rdata$r	SEGMENT
??_R4ioWeeklyAllClearMission@@6B@ DD 00H		; ioWeeklyAllClearMission::`RTTI Complete Object Locator'
	DD	00H
	DD	00H
	DD	FLAT:??_R0?AVioWeeklyAllClearMission@@@8
	DD	FLAT:??_R3ioWeeklyAllClearMission@@8
rdata$r	ENDS
;	COMDAT ??_7ioWeeklyAllClearMission@@6B@
CONST	SEGMENT
??_7ioWeeklyAllClearMission@@6B@ DD FLAT:??_R4ioWeeklyAllClearMission@@6B@ ; ioWeeklyAllClearMission::`vftable'
	DD	FLAT:?GetMaxAchieveValue@ioWeeklyAllClearMission@@UBEABHXZ
	DD	FLAT:?Init@ioMission@@UAEXPBDAAVioINILoader@@@Z
	DD	FLAT:?Process@ioMission@@UAE_NXZ
	DD	FLAT:?Clone@ioWeeklyAllClearMission@@UAEPAVioMission@@XZ
	DD	FLAT:??_EioWeeklyAllClearMission@@UAEPAXI@Z
; Function compile flags: /Ogsp
CONST	ENDS
;	COMDAT ??0ioWeeklyAllClearMission@@QAE@XZ
_TEXT	SEGMENT
??0ioWeeklyAllClearMission@@QAE@XZ PROC			; ioWeeklyAllClearMission::ioWeeklyAllClearMission, COMDAT
; _this$ = ecx

; 566  : {

  00000	56		 push	 esi
  00001	8b f1		 mov	 esi, ecx
  00003	e8 00 00 00 00	 call	 ??0ioMission@@QAE@XZ	; ioMission::ioMission
  00008	c7 06 00 00 00
	00		 mov	 DWORD PTR [esi], OFFSET ??_7ioWeeklyAllClearMission@@6B@

; 567  : 
; 568  : }

  0000e	8b c6		 mov	 eax, esi
  00010	5e		 pop	 esi
  00011	c3		 ret	 0
??0ioWeeklyAllClearMission@@QAE@XZ ENDP			; ioWeeklyAllClearMission::ioWeeklyAllClearMission
; Function compile flags: /Ogsp
; File d:\lost saga for developer\youtube\tutorial\source\src\lsclient\iomission.h
_TEXT	ENDS
;	COMDAT ?GetMaxAchieveValue@ioWeeklyAllClearMission@@UBEABHXZ
_TEXT	SEGMENT
?GetMaxAchieveValue@ioWeeklyAllClearMission@@UBEABHXZ PROC ; ioWeeklyAllClearMission::GetMaxAchieveValue, COMDAT
; _this$ = ecx

; 320  : 	virtual const int&  GetMaxAchieveValue() const { return m_iValue1; }

  00000	8d 41 10	 lea	 eax, DWORD PTR [ecx+16]
  00003	c3		 ret	 0
?GetMaxAchieveValue@ioWeeklyAllClearMission@@UBEABHXZ ENDP ; ioWeeklyAllClearMission::GetMaxAchieveValue
_TEXT	ENDS
PUBLIC	??0ioWeeklyAllClearMission@@QAE@ABV0@@Z		; ioWeeklyAllClearMission::ioWeeklyAllClearMission
; Function compile flags: /Ogsp
; File d:\lost saga for developer\youtube\tutorial\source\src\lsclient\iomission.cpp
;	COMDAT ??0ioWeeklyAllClearMission@@QAE@ABV0@@Z
_TEXT	SEGMENT
_rhs$ = 8						; size = 4
??0ioWeeklyAllClearMission@@QAE@ABV0@@Z PROC		; ioWeeklyAllClearMission::ioWeeklyAllClearMission, COMDAT
; _this$ = ecx

; 572  : {

  00000	55		 push	 ebp
  00001	8b ec		 mov	 ebp, esp
  00003	56		 push	 esi
  00004	ff 75 08	 push	 DWORD PTR _rhs$[ebp]
  00007	8b f1		 mov	 esi, ecx
  00009	e8 00 00 00 00	 call	 ??0ioMission@@QAE@ABV0@@Z ; ioMission::ioMission
  0000e	c7 06 00 00 00
	00		 mov	 DWORD PTR [esi], OFFSET ??_7ioWeeklyAllClearMission@@6B@

; 573  : 
; 574  : }

  00014	8b c6		 mov	 eax, esi
  00016	5e		 pop	 esi
  00017	5d		 pop	 ebp
  00018	c2 04 00	 ret	 4
??0ioWeeklyAllClearMission@@QAE@ABV0@@Z ENDP		; ioWeeklyAllClearMission::ioWeeklyAllClearMission
_TEXT	ENDS
PUBLIC	??1ioWeeklyAllClearMission@@UAE@XZ		; ioWeeklyAllClearMission::~ioWeeklyAllClearMission
; Function compile flags: /Ogsp
;	COMDAT ??1ioWeeklyAllClearMission@@UAE@XZ
_TEXT	SEGMENT
??1ioWeeklyAllClearMission@@UAE@XZ PROC			; ioWeeklyAllClearMission::~ioWeeklyAllClearMission, COMDAT
; _this$ = ecx

; 577  : {

  00000	c7 01 00 00 00
	00		 mov	 DWORD PTR [ecx], OFFSET ??_7ioWeeklyAllClearMission@@6B@

; 578  : 
; 579  : }

  00006	e9 00 00 00 00	 jmp	 ??1ioMission@@QAE@XZ	; ioMission::~ioMission
??1ioWeeklyAllClearMission@@UAE@XZ ENDP			; ioWeeklyAllClearMission::~ioWeeklyAllClearMission
_TEXT	ENDS
;	COMDAT xdata$x
xdata$x	SEGMENT
__unwindtable$?Clone@ioWeeklyAllClearMission@@UAEPAVioMission@@XZ DD 0ffffffffH
	DD	FLAT:__unwindfunclet$?Clone@ioWeeklyAllClearMission@@UAEPAVioMission@@XZ$0
__ehfuncinfo$?Clone@ioWeeklyAllClearMission@@UAEPAVioMission@@XZ DD 019930522H
	DD	01H
	DD	FLAT:__unwindtable$?Clone@ioWeeklyAllClearMission@@UAEPAVioMission@@XZ
	DD	2 DUP(00H)
	DD	2 DUP(00H)
	DD	00H
	DD	01H
; Function compile flags: /Ogsp
xdata$x	ENDS
;	COMDAT ?Clone@ioWeeklyAllClearMission@@UAEPAVioMission@@XZ
_TEXT	SEGMENT
$T517944 = -16						; size = 4
__$EHRec$ = -12						; size = 12
?Clone@ioWeeklyAllClearMission@@UAEPAVioMission@@XZ PROC ; ioWeeklyAllClearMission::Clone, COMDAT
; _this$ = ecx

; 582  : {

  00000	6a 04		 push	 4
  00002	b8 00 00 00 00	 mov	 eax, __ehhandler$?Clone@ioWeeklyAllClearMission@@UAEPAVioMission@@XZ
  00007	e8 00 00 00 00	 call	 __EH_prolog3
  0000c	8b f1		 mov	 esi, ecx

; 583  : 	return new ioWeeklyAllClearMission( *this );

  0000e	6a 6c		 push	 108			; 0000006cH
  00010	e8 00 00 00 00	 call	 ??2@YAPAXI@Z		; operator new
  00015	59		 pop	 ecx
  00016	8b c8		 mov	 ecx, eax
  00018	89 4d f0	 mov	 DWORD PTR $T517944[ebp], ecx
  0001b	33 c0		 xor	 eax, eax
  0001d	89 45 fc	 mov	 DWORD PTR __$EHRec$[ebp+8], eax
  00020	3b c8		 cmp	 ecx, eax
  00022	74 06		 je	 SHORT $LN3@Clone@13
  00024	56		 push	 esi
  00025	e8 00 00 00 00	 call	 ??0ioWeeklyAllClearMission@@QAE@ABV0@@Z ; ioWeeklyAllClearMission::ioWeeklyAllClearMission
$LN3@Clone@13:

; 584  : }

  0002a	e8 00 00 00 00	 call	 __EH_epilog3
  0002f	c3		 ret	 0
_TEXT	ENDS
;	COMDAT text$x
text$x	SEGMENT
__unwindfunclet$?Clone@ioWeeklyAllClearMission@@UAEPAVioMission@@XZ$0:
  00000	ff 75 f0	 push	 DWORD PTR $T517944[ebp]
  00003	e8 00 00 00 00	 call	 ??3@YAXPAX@Z		; operator delete
  00008	59		 pop	 ecx
  00009	c3		 ret	 0
__ehhandler$?Clone@ioWeeklyAllClearMission@@UAEPAVioMission@@XZ:
  0000a	8b 54 24 08	 mov	 edx, DWORD PTR [esp+8]
  0000e	8d 42 0c	 lea	 eax, DWORD PTR [edx+12]
  00011	8b 4a ec	 mov	 ecx, DWORD PTR [edx-20]
  00014	33 c8		 xor	 ecx, eax
  00016	e8 00 00 00 00	 call	 @__security_check_cookie@4
  0001b	b8 00 00 00 00	 mov	 eax, OFFSET __ehfuncinfo$?Clone@ioWeeklyAllClearMission@@UAEPAVioMission@@XZ
  00020	e9 00 00 00 00	 jmp	 ___CxxFrameHandler3
text$x	ENDS
?Clone@ioWeeklyAllClearMission@@UAEPAVioMission@@XZ ENDP ; ioWeeklyAllClearMission::Clone
PUBLIC	??_7ioMonthlyAllClearMission@@6B@		; ioMonthlyAllClearMission::`vftable'
PUBLIC	??0ioMonthlyAllClearMission@@QAE@XZ		; ioMonthlyAllClearMission::ioMonthlyAllClearMission
PUBLIC	??_R4ioMonthlyAllClearMission@@6B@		; ioMonthlyAllClearMission::`RTTI Complete Object Locator'
PUBLIC	??_R0?AVioMonthlyAllClearMission@@@8		; ioMonthlyAllClearMission `RTTI Type Descriptor'
PUBLIC	??_R3ioMonthlyAllClearMission@@8		; ioMonthlyAllClearMission::`RTTI Class Hierarchy Descriptor'
PUBLIC	??_R2ioMonthlyAllClearMission@@8		; ioMonthlyAllClearMission::`RTTI Base Class Array'
PUBLIC	??_R1A@?0A@EA@ioMonthlyAllClearMission@@8	; ioMonthlyAllClearMission::`RTTI Base Class Descriptor at (0,-1,0,64)'
PUBLIC	?GetMaxAchieveValue@ioMonthlyAllClearMission@@UBEABHXZ ; ioMonthlyAllClearMission::GetMaxAchieveValue
PUBLIC	?Clone@ioMonthlyAllClearMission@@UAEPAVioMission@@XZ ; ioMonthlyAllClearMission::Clone
EXTRN	??_EioMonthlyAllClearMission@@UAEPAXI@Z:PROC	; ioMonthlyAllClearMission::`vector deleting destructor'
;	COMDAT ??_R1A@?0A@EA@ioMonthlyAllClearMission@@8
rdata$r	SEGMENT
??_R1A@?0A@EA@ioMonthlyAllClearMission@@8 DD FLAT:??_R0?AVioMonthlyAllClearMission@@@8 ; ioMonthlyAllClearMission::`RTTI Base Class Descriptor at (0,-1,0,64)'
	DD	01H
	DD	00H
	DD	0ffffffffH
	DD	00H
	DD	040H
	DD	FLAT:??_R3ioMonthlyAllClearMission@@8
rdata$r	ENDS
;	COMDAT ??_R2ioMonthlyAllClearMission@@8
rdata$r	SEGMENT
??_R2ioMonthlyAllClearMission@@8 DD FLAT:??_R1A@?0A@EA@ioMonthlyAllClearMission@@8 ; ioMonthlyAllClearMission::`RTTI Base Class Array'
	DD	FLAT:??_R1A@?0A@EA@ioMission@@8
rdata$r	ENDS
;	COMDAT ??_R3ioMonthlyAllClearMission@@8
rdata$r	SEGMENT
??_R3ioMonthlyAllClearMission@@8 DD 00H			; ioMonthlyAllClearMission::`RTTI Class Hierarchy Descriptor'
	DD	00H
	DD	02H
	DD	FLAT:??_R2ioMonthlyAllClearMission@@8
rdata$r	ENDS
;	COMDAT ??_R0?AVioMonthlyAllClearMission@@@8
_DATA	SEGMENT
??_R0?AVioMonthlyAllClearMission@@@8 DD FLAT:??_7type_info@@6B@ ; ioMonthlyAllClearMission `RTTI Type Descriptor'
	DD	00H
	DB	'.?AVioMonthlyAllClearMission@@', 00H
_DATA	ENDS
;	COMDAT ??_R4ioMonthlyAllClearMission@@6B@
rdata$r	SEGMENT
??_R4ioMonthlyAllClearMission@@6B@ DD 00H		; ioMonthlyAllClearMission::`RTTI Complete Object Locator'
	DD	00H
	DD	00H
	DD	FLAT:??_R0?AVioMonthlyAllClearMission@@@8
	DD	FLAT:??_R3ioMonthlyAllClearMission@@8
rdata$r	ENDS
;	COMDAT ??_7ioMonthlyAllClearMission@@6B@
CONST	SEGMENT
??_7ioMonthlyAllClearMission@@6B@ DD FLAT:??_R4ioMonthlyAllClearMission@@6B@ ; ioMonthlyAllClearMission::`vftable'
	DD	FLAT:?GetMaxAchieveValue@ioMonthlyAllClearMission@@UBEABHXZ
	DD	FLAT:?Init@ioMission@@UAEXPBDAAVioINILoader@@@Z
	DD	FLAT:?Process@ioMission@@UAE_NXZ
	DD	FLAT:?Clone@ioMonthlyAllClearMission@@UAEPAVioMission@@XZ
	DD	FLAT:??_EioMonthlyAllClearMission@@UAEPAXI@Z
; Function compile flags: /Ogsp
CONST	ENDS
;	COMDAT ??0ioMonthlyAllClearMission@@QAE@XZ
_TEXT	SEGMENT
??0ioMonthlyAllClearMission@@QAE@XZ PROC		; ioMonthlyAllClearMission::ioMonthlyAllClearMission, COMDAT
; _this$ = ecx

; 588  : {

  00000	56		 push	 esi
  00001	8b f1		 mov	 esi, ecx
  00003	e8 00 00 00 00	 call	 ??0ioMission@@QAE@XZ	; ioMission::ioMission
  00008	c7 06 00 00 00
	00		 mov	 DWORD PTR [esi], OFFSET ??_7ioMonthlyAllClearMission@@6B@

; 589  : 
; 590  : }

  0000e	8b c6		 mov	 eax, esi
  00010	5e		 pop	 esi
  00011	c3		 ret	 0
??0ioMonthlyAllClearMission@@QAE@XZ ENDP		; ioMonthlyAllClearMission::ioMonthlyAllClearMission
; Function compile flags: /Ogsp
; File d:\lost saga for developer\youtube\tutorial\source\src\lsclient\iomission.h
_TEXT	ENDS
;	COMDAT ?GetMaxAchieveValue@ioMonthlyAllClearMission@@UBEABHXZ
_TEXT	SEGMENT
?GetMaxAchieveValue@ioMonthlyAllClearMission@@UBEABHXZ PROC ; ioMonthlyAllClearMission::GetMaxAchieveValue, COMDAT
; _this$ = ecx

; 333  : 	virtual const int&  GetMaxAchieveValue() const { return m_iValue1; }

  00000	8d 41 10	 lea	 eax, DWORD PTR [ecx+16]
  00003	c3		 ret	 0
?GetMaxAchieveValue@ioMonthlyAllClearMission@@UBEABHXZ ENDP ; ioMonthlyAllClearMission::GetMaxAchieveValue
_TEXT	ENDS
PUBLIC	??0ioMonthlyAllClearMission@@QAE@ABV0@@Z	; ioMonthlyAllClearMission::ioMonthlyAllClearMission
; Function compile flags: /Ogsp
; File d:\lost saga for developer\youtube\tutorial\source\src\lsclient\iomission.cpp
;	COMDAT ??0ioMonthlyAllClearMission@@QAE@ABV0@@Z
_TEXT	SEGMENT
_rhs$ = 8						; size = 4
??0ioMonthlyAllClearMission@@QAE@ABV0@@Z PROC		; ioMonthlyAllClearMission::ioMonthlyAllClearMission, COMDAT
; _this$ = ecx

; 594  : {

  00000	55		 push	 ebp
  00001	8b ec		 mov	 ebp, esp
  00003	56		 push	 esi
  00004	ff 75 08	 push	 DWORD PTR _rhs$[ebp]
  00007	8b f1		 mov	 esi, ecx
  00009	e8 00 00 00 00	 call	 ??0ioMission@@QAE@ABV0@@Z ; ioMission::ioMission
  0000e	c7 06 00 00 00
	00		 mov	 DWORD PTR [esi], OFFSET ??_7ioMonthlyAllClearMission@@6B@

; 595  : 
; 596  : }

  00014	8b c6		 mov	 eax, esi
  00016	5e		 pop	 esi
  00017	5d		 pop	 ebp
  00018	c2 04 00	 ret	 4
??0ioMonthlyAllClearMission@@QAE@ABV0@@Z ENDP		; ioMonthlyAllClearMission::ioMonthlyAllClearMission
_TEXT	ENDS
PUBLIC	??1ioMonthlyAllClearMission@@UAE@XZ		; ioMonthlyAllClearMission::~ioMonthlyAllClearMission
; Function compile flags: /Ogsp
;	COMDAT ??1ioMonthlyAllClearMission@@UAE@XZ
_TEXT	SEGMENT
??1ioMonthlyAllClearMission@@UAE@XZ PROC		; ioMonthlyAllClearMission::~ioMonthlyAllClearMission, COMDAT
; _this$ = ecx

; 599  : {

  00000	c7 01 00 00 00
	00		 mov	 DWORD PTR [ecx], OFFSET ??_7ioMonthlyAllClearMission@@6B@

; 600  : 
; 601  : }

  00006	e9 00 00 00 00	 jmp	 ??1ioMission@@QAE@XZ	; ioMission::~ioMission
??1ioMonthlyAllClearMission@@UAE@XZ ENDP		; ioMonthlyAllClearMission::~ioMonthlyAllClearMission
_TEXT	ENDS
;	COMDAT xdata$x
xdata$x	SEGMENT
__unwindtable$?Clone@ioMonthlyAllClearMission@@UAEPAVioMission@@XZ DD 0ffffffffH
	DD	FLAT:__unwindfunclet$?Clone@ioMonthlyAllClearMission@@UAEPAVioMission@@XZ$0
__ehfuncinfo$?Clone@ioMonthlyAllClearMission@@UAEPAVioMission@@XZ DD 019930522H
	DD	01H
	DD	FLAT:__unwindtable$?Clone@ioMonthlyAllClearMission@@UAEPAVioMission@@XZ
	DD	2 DUP(00H)
	DD	2 DUP(00H)
	DD	00H
	DD	01H
; Function compile flags: /Ogsp
xdata$x	ENDS
;	COMDAT ?Clone@ioMonthlyAllClearMission@@UAEPAVioMission@@XZ
_TEXT	SEGMENT
$T517972 = -16						; size = 4
__$EHRec$ = -12						; size = 12
?Clone@ioMonthlyAllClearMission@@UAEPAVioMission@@XZ PROC ; ioMonthlyAllClearMission::Clone, COMDAT
; _this$ = ecx

; 604  : {

  00000	6a 04		 push	 4
  00002	b8 00 00 00 00	 mov	 eax, __ehhandler$?Clone@ioMonthlyAllClearMission@@UAEPAVioMission@@XZ
  00007	e8 00 00 00 00	 call	 __EH_prolog3
  0000c	8b f1		 mov	 esi, ecx

; 605  : 	return new ioMonthlyAllClearMission( *this );

  0000e	6a 6c		 push	 108			; 0000006cH
  00010	e8 00 00 00 00	 call	 ??2@YAPAXI@Z		; operator new
  00015	59		 pop	 ecx
  00016	8b c8		 mov	 ecx, eax
  00018	89 4d f0	 mov	 DWORD PTR $T517972[ebp], ecx
  0001b	33 c0		 xor	 eax, eax
  0001d	89 45 fc	 mov	 DWORD PTR __$EHRec$[ebp+8], eax
  00020	3b c8		 cmp	 ecx, eax
  00022	74 06		 je	 SHORT $LN3@Clone@14
  00024	56		 push	 esi
  00025	e8 00 00 00 00	 call	 ??0ioMonthlyAllClearMission@@QAE@ABV0@@Z ; ioMonthlyAllClearMission::ioMonthlyAllClearMission
$LN3@Clone@14:

; 606  : }

  0002a	e8 00 00 00 00	 call	 __EH_epilog3
  0002f	c3		 ret	 0
_TEXT	ENDS
;	COMDAT text$x
text$x	SEGMENT
__unwindfunclet$?Clone@ioMonthlyAllClearMission@@UAEPAVioMission@@XZ$0:
  00000	ff 75 f0	 push	 DWORD PTR $T517972[ebp]
  00003	e8 00 00 00 00	 call	 ??3@YAXPAX@Z		; operator delete
  00008	59		 pop	 ecx
  00009	c3		 ret	 0
__ehhandler$?Clone@ioMonthlyAllClearMission@@UAEPAVioMission@@XZ:
  0000a	8b 54 24 08	 mov	 edx, DWORD PTR [esp+8]
  0000e	8d 42 0c	 lea	 eax, DWORD PTR [edx+12]
  00011	8b 4a ec	 mov	 ecx, DWORD PTR [edx-20]
  00014	33 c8		 xor	 ecx, eax
  00016	e8 00 00 00 00	 call	 @__security_check_cookie@4
  0001b	b8 00 00 00 00	 mov	 eax, OFFSET __ehfuncinfo$?Clone@ioMonthlyAllClearMission@@UAEPAVioMission@@XZ
  00020	e9 00 00 00 00	 jmp	 ___CxxFrameHandler3
text$x	ENDS
?Clone@ioMonthlyAllClearMission@@UAEPAVioMission@@XZ ENDP ; ioMonthlyAllClearMission::Clone
PUBLIC	??_7ioAdditiveUseMission@@6B@			; ioAdditiveUseMission::`vftable'
PUBLIC	??0ioAdditiveUseMission@@QAE@XZ			; ioAdditiveUseMission::ioAdditiveUseMission
PUBLIC	??_R4ioAdditiveUseMission@@6B@			; ioAdditiveUseMission::`RTTI Complete Object Locator'
PUBLIC	??_R0?AVioAdditiveUseMission@@@8		; ioAdditiveUseMission `RTTI Type Descriptor'
PUBLIC	??_R3ioAdditiveUseMission@@8			; ioAdditiveUseMission::`RTTI Class Hierarchy Descriptor'
PUBLIC	??_R2ioAdditiveUseMission@@8			; ioAdditiveUseMission::`RTTI Base Class Array'
PUBLIC	??_R1A@?0A@EA@ioAdditiveUseMission@@8		; ioAdditiveUseMission::`RTTI Base Class Descriptor at (0,-1,0,64)'
PUBLIC	?GetMaxAchieveValue@ioAdditiveUseMission@@UBEABHXZ ; ioAdditiveUseMission::GetMaxAchieveValue
PUBLIC	?Clone@ioAdditiveUseMission@@UAEPAVioMission@@XZ ; ioAdditiveUseMission::Clone
EXTRN	??_EioAdditiveUseMission@@UAEPAXI@Z:PROC	; ioAdditiveUseMission::`vector deleting destructor'
;	COMDAT ??_R1A@?0A@EA@ioAdditiveUseMission@@8
rdata$r	SEGMENT
??_R1A@?0A@EA@ioAdditiveUseMission@@8 DD FLAT:??_R0?AVioAdditiveUseMission@@@8 ; ioAdditiveUseMission::`RTTI Base Class Descriptor at (0,-1,0,64)'
	DD	01H
	DD	00H
	DD	0ffffffffH
	DD	00H
	DD	040H
	DD	FLAT:??_R3ioAdditiveUseMission@@8
rdata$r	ENDS
;	COMDAT ??_R2ioAdditiveUseMission@@8
rdata$r	SEGMENT
??_R2ioAdditiveUseMission@@8 DD FLAT:??_R1A@?0A@EA@ioAdditiveUseMission@@8 ; ioAdditiveUseMission::`RTTI Base Class Array'
	DD	FLAT:??_R1A@?0A@EA@ioMission@@8
rdata$r	ENDS
;	COMDAT ??_R3ioAdditiveUseMission@@8
rdata$r	SEGMENT
??_R3ioAdditiveUseMission@@8 DD 00H			; ioAdditiveUseMission::`RTTI Class Hierarchy Descriptor'
	DD	00H
	DD	02H
	DD	FLAT:??_R2ioAdditiveUseMission@@8
rdata$r	ENDS
;	COMDAT ??_R0?AVioAdditiveUseMission@@@8
_DATA	SEGMENT
??_R0?AVioAdditiveUseMission@@@8 DD FLAT:??_7type_info@@6B@ ; ioAdditiveUseMission `RTTI Type Descriptor'
	DD	00H
	DB	'.?AVioAdditiveUseMission@@', 00H
_DATA	ENDS
;	COMDAT ??_R4ioAdditiveUseMission@@6B@
rdata$r	SEGMENT
??_R4ioAdditiveUseMission@@6B@ DD 00H			; ioAdditiveUseMission::`RTTI Complete Object Locator'
	DD	00H
	DD	00H
	DD	FLAT:??_R0?AVioAdditiveUseMission@@@8
	DD	FLAT:??_R3ioAdditiveUseMission@@8
rdata$r	ENDS
;	COMDAT ??_7ioAdditiveUseMission@@6B@
CONST	SEGMENT
??_7ioAdditiveUseMission@@6B@ DD FLAT:??_R4ioAdditiveUseMission@@6B@ ; ioAdditiveUseMission::`vftable'
	DD	FLAT:?GetMaxAchieveValue@ioAdditiveUseMission@@UBEABHXZ
	DD	FLAT:?Init@ioMission@@UAEXPBDAAVioINILoader@@@Z
	DD	FLAT:?Process@ioMission@@UAE_NXZ
	DD	FLAT:?Clone@ioAdditiveUseMission@@UAEPAVioMission@@XZ
	DD	FLAT:??_EioAdditiveUseMission@@UAEPAXI@Z
; Function compile flags: /Ogsp
CONST	ENDS
;	COMDAT ??0ioAdditiveUseMission@@QAE@XZ
_TEXT	SEGMENT
??0ioAdditiveUseMission@@QAE@XZ PROC			; ioAdditiveUseMission::ioAdditiveUseMission, COMDAT
; _this$ = ecx

; 610  : {

  00000	56		 push	 esi
  00001	8b f1		 mov	 esi, ecx
  00003	e8 00 00 00 00	 call	 ??0ioMission@@QAE@XZ	; ioMission::ioMission
  00008	c7 06 00 00 00
	00		 mov	 DWORD PTR [esi], OFFSET ??_7ioAdditiveUseMission@@6B@

; 611  : 
; 612  : }

  0000e	8b c6		 mov	 eax, esi
  00010	5e		 pop	 esi
  00011	c3		 ret	 0
??0ioAdditiveUseMission@@QAE@XZ ENDP			; ioAdditiveUseMission::ioAdditiveUseMission
; Function compile flags: /Ogsp
; File d:\lost saga for developer\youtube\tutorial\source\src\lsclient\iomission.h
_TEXT	ENDS
;	COMDAT ?GetMaxAchieveValue@ioAdditiveUseMission@@UBEABHXZ
_TEXT	SEGMENT
?GetMaxAchieveValue@ioAdditiveUseMission@@UBEABHXZ PROC	; ioAdditiveUseMission::GetMaxAchieveValue, COMDAT
; _this$ = ecx

; 346  : 	virtual const int&  GetMaxAchieveValue() const { return m_iValue1; }

  00000	8d 41 10	 lea	 eax, DWORD PTR [ecx+16]
  00003	c3		 ret	 0
?GetMaxAchieveValue@ioAdditiveUseMission@@UBEABHXZ ENDP	; ioAdditiveUseMission::GetMaxAchieveValue
_TEXT	ENDS
PUBLIC	??0ioAdditiveUseMission@@QAE@ABV0@@Z		; ioAdditiveUseMission::ioAdditiveUseMission
; Function compile flags: /Ogsp
; File d:\lost saga for developer\youtube\tutorial\source\src\lsclient\iomission.cpp
;	COMDAT ??0ioAdditiveUseMission@@QAE@ABV0@@Z
_TEXT	SEGMENT
_rhs$ = 8						; size = 4
??0ioAdditiveUseMission@@QAE@ABV0@@Z PROC		; ioAdditiveUseMission::ioAdditiveUseMission, COMDAT
; _this$ = ecx

; 616  : {

  00000	55		 push	 ebp
  00001	8b ec		 mov	 ebp, esp
  00003	56		 push	 esi
  00004	ff 75 08	 push	 DWORD PTR _rhs$[ebp]
  00007	8b f1		 mov	 esi, ecx
  00009	e8 00 00 00 00	 call	 ??0ioMission@@QAE@ABV0@@Z ; ioMission::ioMission
  0000e	c7 06 00 00 00
	00		 mov	 DWORD PTR [esi], OFFSET ??_7ioAdditiveUseMission@@6B@

; 617  : 
; 618  : }

  00014	8b c6		 mov	 eax, esi
  00016	5e		 pop	 esi
  00017	5d		 pop	 ebp
  00018	c2 04 00	 ret	 4
??0ioAdditiveUseMission@@QAE@ABV0@@Z ENDP		; ioAdditiveUseMission::ioAdditiveUseMission
_TEXT	ENDS
PUBLIC	??1ioAdditiveUseMission@@UAE@XZ			; ioAdditiveUseMission::~ioAdditiveUseMission
; Function compile flags: /Ogsp
;	COMDAT ??1ioAdditiveUseMission@@UAE@XZ
_TEXT	SEGMENT
??1ioAdditiveUseMission@@UAE@XZ PROC			; ioAdditiveUseMission::~ioAdditiveUseMission, COMDAT
; _this$ = ecx

; 621  : {

  00000	c7 01 00 00 00
	00		 mov	 DWORD PTR [ecx], OFFSET ??_7ioAdditiveUseMission@@6B@

; 622  : 
; 623  : }

  00006	e9 00 00 00 00	 jmp	 ??1ioMission@@QAE@XZ	; ioMission::~ioMission
??1ioAdditiveUseMission@@UAE@XZ ENDP			; ioAdditiveUseMission::~ioAdditiveUseMission
_TEXT	ENDS
;	COMDAT xdata$x
xdata$x	SEGMENT
__unwindtable$?Clone@ioAdditiveUseMission@@UAEPAVioMission@@XZ DD 0ffffffffH
	DD	FLAT:__unwindfunclet$?Clone@ioAdditiveUseMission@@UAEPAVioMission@@XZ$0
__ehfuncinfo$?Clone@ioAdditiveUseMission@@UAEPAVioMission@@XZ DD 019930522H
	DD	01H
	DD	FLAT:__unwindtable$?Clone@ioAdditiveUseMission@@UAEPAVioMission@@XZ
	DD	2 DUP(00H)
	DD	2 DUP(00H)
	DD	00H
	DD	01H
; Function compile flags: /Ogsp
xdata$x	ENDS
;	COMDAT ?Clone@ioAdditiveUseMission@@UAEPAVioMission@@XZ
_TEXT	SEGMENT
$T518000 = -16						; size = 4
__$EHRec$ = -12						; size = 12
?Clone@ioAdditiveUseMission@@UAEPAVioMission@@XZ PROC	; ioAdditiveUseMission::Clone, COMDAT
; _this$ = ecx

; 626  : {

  00000	6a 04		 push	 4
  00002	b8 00 00 00 00	 mov	 eax, __ehhandler$?Clone@ioAdditiveUseMission@@UAEPAVioMission@@XZ
  00007	e8 00 00 00 00	 call	 __EH_prolog3
  0000c	8b f1		 mov	 esi, ecx

; 627  : 	return new ioAdditiveUseMission( *this );

  0000e	6a 6c		 push	 108			; 0000006cH
  00010	e8 00 00 00 00	 call	 ??2@YAPAXI@Z		; operator new
  00015	59		 pop	 ecx
  00016	8b c8		 mov	 ecx, eax
  00018	89 4d f0	 mov	 DWORD PTR $T518000[ebp], ecx
  0001b	33 c0		 xor	 eax, eax
  0001d	89 45 fc	 mov	 DWORD PTR __$EHRec$[ebp+8], eax
  00020	3b c8		 cmp	 ecx, eax
  00022	74 06		 je	 SHORT $LN3@Clone@15
  00024	56		 push	 esi
  00025	e8 00 00 00 00	 call	 ??0ioAdditiveUseMission@@QAE@ABV0@@Z ; ioAdditiveUseMission::ioAdditiveUseMission
$LN3@Clone@15:

; 628  : }

  0002a	e8 00 00 00 00	 call	 __EH_epilog3
  0002f	c3		 ret	 0
_TEXT	ENDS
;	COMDAT text$x
text$x	SEGMENT
__unwindfunclet$?Clone@ioAdditiveUseMission@@UAEPAVioMission@@XZ$0:
  00000	ff 75 f0	 push	 DWORD PTR $T518000[ebp]
  00003	e8 00 00 00 00	 call	 ??3@YAXPAX@Z		; operator delete
  00008	59		 pop	 ecx
  00009	c3		 ret	 0
__ehhandler$?Clone@ioAdditiveUseMission@@UAEPAVioMission@@XZ:
  0000a	8b 54 24 08	 mov	 edx, DWORD PTR [esp+8]
  0000e	8d 42 0c	 lea	 eax, DWORD PTR [edx+12]
  00011	8b 4a ec	 mov	 ecx, DWORD PTR [edx-20]
  00014	33 c8		 xor	 ecx, eax
  00016	e8 00 00 00 00	 call	 @__security_check_cookie@4
  0001b	b8 00 00 00 00	 mov	 eax, OFFSET __ehfuncinfo$?Clone@ioAdditiveUseMission@@UAEPAVioMission@@XZ
  00020	e9 00 00 00 00	 jmp	 ___CxxFrameHandler3
text$x	ENDS
?Clone@ioAdditiveUseMission@@UAEPAVioMission@@XZ ENDP	; ioAdditiveUseMission::Clone
PUBLIC	?_Reserve@?$vector@V?$vector@UColorText@ioMission@@V?$allocator@UColorText@ioMission@@@std@@@std@@V?$allocator@V?$vector@UColorText@ioMission@@V?$allocator@UColorText@ioMission@@@std@@@std@@@2@@std@@IAEXI@Z ; std::vector<std::vector<ioMission::ColorText,std::allocator<ioMission::ColorText> >,std::allocator<std::vector<ioMission::ColorText,std::allocator<ioMission::ColorText> > > >::_Reserve
; Function compile flags: /Ogsp
; File c:\program files (x86)\microsoft visual studio 10.0\vc\include\vector
;	COMDAT ?_Reserve@?$vector@V?$vector@UColorText@ioMission@@V?$allocator@UColorText@ioMission@@@std@@@std@@V?$allocator@V?$vector@UColorText@ioMission@@V?$allocator@UColorText@ioMission@@@std@@@std@@@2@@std@@IAEXI@Z
_TEXT	SEGMENT
__Count$ = 8						; size = 4
?_Reserve@?$vector@V?$vector@UColorText@ioMission@@V?$allocator@UColorText@ioMission@@@std@@@std@@V?$allocator@V?$vector@UColorText@ioMission@@V?$allocator@UColorText@ioMission@@@std@@@std@@@2@@std@@IAEXI@Z PROC ; std::vector<std::vector<ioMission::ColorText,std::allocator<ioMission::ColorText> >,std::allocator<std::vector<ioMission::ColorText,std::allocator<ioMission::ColorText> > > >::_Reserve, COMDAT
; _this$ = ecx

; 1290 : 		{	// ensure room for _Count new elements, grow exponentially

  00000	55		 push	 ebp
  00001	8b ec		 mov	 ebp, esp
  00003	56		 push	 esi
  00004	8b f1		 mov	 esi, ecx

; 1291 : 		size_type _Size = size();

  00006	8b 0e		 mov	 ecx, DWORD PTR [esi]
  00008	8b 46 04	 mov	 eax, DWORD PTR [esi+4]
  0000b	2b c1		 sub	 eax, ecx

; 1292 : 		if (max_size() - _Count < _Size)

  0000d	ba ff ff ff 0f	 mov	 edx, 268435455		; 0fffffffH
  00012	2b 55 08	 sub	 edx, DWORD PTR __Count$[ebp]
  00015	c1 f8 04	 sar	 eax, 4
  00018	3b d0		 cmp	 edx, eax
  0001a	73 0b		 jae	 SHORT $LN4@Reserve@3

; 1293 : 			_Xlen();

  0001c	68 00 00 00 00	 push	 OFFSET ??_C@_0BD@OLBABOEK@vector?$DMT?$DO?5too?5long?$AA@
  00021	ff 15 00 00 00
	00		 call	 DWORD PTR __imp_?_Xlength_error@std@@YAXPBD@Z
$LN21@Reserve@3:
$LN4@Reserve@3:

; 1294 : 		else if ((_Size += _Count) <= capacity())

  00027	8b 56 08	 mov	 edx, DWORD PTR [esi+8]
  0002a	03 45 08	 add	 eax, DWORD PTR __Count$[ebp]
  0002d	2b d1		 sub	 edx, ecx
  0002f	c1 fa 04	 sar	 edx, 4
  00032	3b c2		 cmp	 eax, edx
  00034	76 10		 jbe	 SHORT $LN1@Reserve@3

; 1295 : 			;
; 1296 : 		else
; 1297 : 			reserve(_Grow_to(_Size));

  00036	50		 push	 eax
  00037	8b ce		 mov	 ecx, esi
  00039	e8 00 00 00 00	 call	 ?_Grow_to@?$vector@V?$vector@UColorText@ioMission@@V?$allocator@UColorText@ioMission@@@std@@@std@@V?$allocator@V?$vector@UColorText@ioMission@@V?$allocator@UColorText@ioMission@@@std@@@std@@@2@@std@@IBEII@Z ; std::vector<std::vector<ioMission::ColorText,std::allocator<ioMission::ColorText> >,std::allocator<std::vector<ioMission::ColorText,std::allocator<ioMission::ColorText> > > >::_Grow_to
  0003e	50		 push	 eax
  0003f	8b ce		 mov	 ecx, esi
  00041	e8 00 00 00 00	 call	 ?reserve@?$vector@V?$vector@UColorText@ioMission@@V?$allocator@UColorText@ioMission@@@std@@@std@@V?$allocator@V?$vector@UColorText@ioMission@@V?$allocator@UColorText@ioMission@@@std@@@std@@@2@@std@@QAEXI@Z ; std::vector<std::vector<ioMission::ColorText,std::allocator<ioMission::ColorText> >,std::allocator<std::vector<ioMission::ColorText,std::allocator<ioMission::ColorText> > > >::reserve
$LN1@Reserve@3:
  00046	5e		 pop	 esi

; 1298 : 		}

  00047	5d		 pop	 ebp
  00048	c2 04 00	 ret	 4
$LN20@Reserve@3:
?_Reserve@?$vector@V?$vector@UColorText@ioMission@@V?$allocator@UColorText@ioMission@@@std@@@std@@V?$allocator@V?$vector@UColorText@ioMission@@V?$allocator@UColorText@ioMission@@@std@@@std@@@2@@std@@IAEXI@Z ENDP ; std::vector<std::vector<ioMission::ColorText,std::allocator<ioMission::ColorText> >,std::allocator<std::vector<ioMission::ColorText,std::allocator<ioMission::ColorText> > > >::_Reserve
; Function compile flags: /Ogsp
_TEXT	ENDS
;	COMDAT ??_GioLoginTimeMission@@UAEPAXI@Z
_TEXT	SEGMENT
___flags$ = 8						; size = 4
??_GioLoginTimeMission@@UAEPAXI@Z PROC			; ioLoginTimeMission::`scalar deleting destructor', COMDAT
; _this$ = ecx
  00000	55		 push	 ebp
  00001	8b ec		 mov	 ebp, esp
  00003	56		 push	 esi
  00004	8b f1		 mov	 esi, ecx
  00006	c7 06 00 00 00
	00		 mov	 DWORD PTR [esi], OFFSET ??_7ioLoginTimeMission@@6B@
  0000c	e8 00 00 00 00	 call	 ??1ioMission@@QAE@XZ	; ioMission::~ioMission
  00011	f6 45 08 01	 test	 BYTE PTR ___flags$[ebp], 1
  00015	74 07		 je	 SHORT $LN1@scalar@6
  00017	56		 push	 esi
  00018	e8 00 00 00 00	 call	 ??3@YAXPAX@Z		; operator delete
  0001d	59		 pop	 ecx
$LN1@scalar@6:
  0001e	8b c6		 mov	 eax, esi
  00020	5e		 pop	 esi
  00021	5d		 pop	 ebp
  00022	c2 04 00	 ret	 4
??_GioLoginTimeMission@@UAEPAXI@Z ENDP			; ioLoginTimeMission::`scalar deleting destructor'
; Function compile flags: /Ogsp
_TEXT	ENDS
;	COMDAT ??_GioFishingMission@@UAEPAXI@Z
_TEXT	SEGMENT
___flags$ = 8						; size = 4
??_GioFishingMission@@UAEPAXI@Z PROC			; ioFishingMission::`scalar deleting destructor', COMDAT
; _this$ = ecx
  00000	55		 push	 ebp
  00001	8b ec		 mov	 ebp, esp
  00003	56		 push	 esi
  00004	8b f1		 mov	 esi, ecx
  00006	c7 06 00 00 00
	00		 mov	 DWORD PTR [esi], OFFSET ??_7ioFishingMission@@6B@
  0000c	e8 00 00 00 00	 call	 ??1ioMission@@QAE@XZ	; ioMission::~ioMission
  00011	f6 45 08 01	 test	 BYTE PTR ___flags$[ebp], 1
  00015	74 07		 je	 SHORT $LN1@scalar@7
  00017	56		 push	 esi
  00018	e8 00 00 00 00	 call	 ??3@YAXPAX@Z		; operator delete
  0001d	59		 pop	 ecx
$LN1@scalar@7:
  0001e	8b c6		 mov	 eax, esi
  00020	5e		 pop	 esi
  00021	5d		 pop	 ebp
  00022	c2 04 00	 ret	 4
??_GioFishingMission@@UAEPAXI@Z ENDP			; ioFishingMission::`scalar deleting destructor'
; Function compile flags: /Ogsp
_TEXT	ENDS
;	COMDAT ??_GioPesoCollectMission@@UAEPAXI@Z
_TEXT	SEGMENT
___flags$ = 8						; size = 4
??_GioPesoCollectMission@@UAEPAXI@Z PROC		; ioPesoCollectMission::`scalar deleting destructor', COMDAT
; _this$ = ecx
  00000	55		 push	 ebp
  00001	8b ec		 mov	 ebp, esp
  00003	56		 push	 esi
  00004	8b f1		 mov	 esi, ecx
  00006	c7 06 00 00 00
	00		 mov	 DWORD PTR [esi], OFFSET ??_7ioPesoCollectMission@@6B@
  0000c	e8 00 00 00 00	 call	 ??1ioMission@@QAE@XZ	; ioMission::~ioMission
  00011	f6 45 08 01	 test	 BYTE PTR ___flags$[ebp], 1
  00015	74 07		 je	 SHORT $LN1@scalar@8
  00017	56		 push	 esi
  00018	e8 00 00 00 00	 call	 ??3@YAXPAX@Z		; operator delete
  0001d	59		 pop	 ecx
$LN1@scalar@8:
  0001e	8b c6		 mov	 eax, esi
  00020	5e		 pop	 esi
  00021	5d		 pop	 ebp
  00022	c2 04 00	 ret	 4
??_GioPesoCollectMission@@UAEPAXI@Z ENDP		; ioPesoCollectMission::`scalar deleting destructor'
; Function compile flags: /Ogsp
_TEXT	ENDS
;	COMDAT ??_GioMonsterKillMission@@UAEPAXI@Z
_TEXT	SEGMENT
___flags$ = 8						; size = 4
??_GioMonsterKillMission@@UAEPAXI@Z PROC		; ioMonsterKillMission::`scalar deleting destructor', COMDAT
; _this$ = ecx
  00000	55		 push	 ebp
  00001	8b ec		 mov	 ebp, esp
  00003	56		 push	 esi
  00004	8b f1		 mov	 esi, ecx
  00006	c7 06 00 00 00
	00		 mov	 DWORD PTR [esi], OFFSET ??_7ioMonsterKillMission@@6B@
  0000c	e8 00 00 00 00	 call	 ??1ioMission@@QAE@XZ	; ioMission::~ioMission
  00011	f6 45 08 01	 test	 BYTE PTR ___flags$[ebp], 1
  00015	74 07		 je	 SHORT $LN1@scalar@9
  00017	56		 push	 esi
  00018	e8 00 00 00 00	 call	 ??3@YAXPAX@Z		; operator delete
  0001d	59		 pop	 ecx
$LN1@scalar@9:
  0001e	8b c6		 mov	 eax, esi
  00020	5e		 pop	 esi
  00021	5d		 pop	 ebp
  00022	c2 04 00	 ret	 4
??_GioMonsterKillMission@@UAEPAXI@Z ENDP		; ioMonsterKillMission::`scalar deleting destructor'
; Function compile flags: /Ogsp
_TEXT	ENDS
;	COMDAT ??_GioItemBuyMission@@UAEPAXI@Z
_TEXT	SEGMENT
___flags$ = 8						; size = 4
??_GioItemBuyMission@@UAEPAXI@Z PROC			; ioItemBuyMission::`scalar deleting destructor', COMDAT
; _this$ = ecx
  00000	55		 push	 ebp
  00001	8b ec		 mov	 ebp, esp
  00003	56		 push	 esi
  00004	8b f1		 mov	 esi, ecx
  00006	c7 06 00 00 00
	00		 mov	 DWORD PTR [esi], OFFSET ??_7ioItemBuyMission@@6B@
  0000c	e8 00 00 00 00	 call	 ??1ioMission@@QAE@XZ	; ioMission::~ioMission
  00011	f6 45 08 01	 test	 BYTE PTR ___flags$[ebp], 1
  00015	74 07		 je	 SHORT $LN1@scalar@10
  00017	56		 push	 esi
  00018	e8 00 00 00 00	 call	 ??3@YAXPAX@Z		; operator delete
  0001d	59		 pop	 ecx
$LN1@scalar@10:
  0001e	8b c6		 mov	 eax, esi
  00020	5e		 pop	 esi
  00021	5d		 pop	 ebp
  00022	c2 04 00	 ret	 4
??_GioItemBuyMission@@UAEPAXI@Z ENDP			; ioItemBuyMission::`scalar deleting destructor'
; Function compile flags: /Ogsp
_TEXT	ENDS
;	COMDAT ??_GioCloverMission@@UAEPAXI@Z
_TEXT	SEGMENT
___flags$ = 8						; size = 4
??_GioCloverMission@@UAEPAXI@Z PROC			; ioCloverMission::`scalar deleting destructor', COMDAT
; _this$ = ecx
  00000	55		 push	 ebp
  00001	8b ec		 mov	 ebp, esp
  00003	56		 push	 esi
  00004	8b f1		 mov	 esi, ecx
  00006	c7 06 00 00 00
	00		 mov	 DWORD PTR [esi], OFFSET ??_7ioCloverMission@@6B@
  0000c	e8 00 00 00 00	 call	 ??1ioMission@@QAE@XZ	; ioMission::~ioMission
  00011	f6 45 08 01	 test	 BYTE PTR ___flags$[ebp], 1
  00015	74 07		 je	 SHORT $LN1@scalar@11
  00017	56		 push	 esi
  00018	e8 00 00 00 00	 call	 ??3@YAXPAX@Z		; operator delete
  0001d	59		 pop	 ecx
$LN1@scalar@11:
  0001e	8b c6		 mov	 eax, esi
  00020	5e		 pop	 esi
  00021	5d		 pop	 ebp
  00022	c2 04 00	 ret	 4
??_GioCloverMission@@UAEPAXI@Z ENDP			; ioCloverMission::`scalar deleting destructor'
; Function compile flags: /Ogsp
_TEXT	ENDS
;	COMDAT ??_GioExcavationMission@@UAEPAXI@Z
_TEXT	SEGMENT
___flags$ = 8						; size = 4
??_GioExcavationMission@@UAEPAXI@Z PROC			; ioExcavationMission::`scalar deleting destructor', COMDAT
; _this$ = ecx
  00000	55		 push	 ebp
  00001	8b ec		 mov	 ebp, esp
  00003	56		 push	 esi
  00004	8b f1		 mov	 esi, ecx
  00006	c7 06 00 00 00
	00		 mov	 DWORD PTR [esi], OFFSET ??_7ioExcavationMission@@6B@
  0000c	e8 00 00 00 00	 call	 ??1ioMission@@QAE@XZ	; ioMission::~ioMission
  00011	f6 45 08 01	 test	 BYTE PTR ___flags$[ebp], 1
  00015	74 07		 je	 SHORT $LN1@scalar@12
  00017	56		 push	 esi
  00018	e8 00 00 00 00	 call	 ??3@YAXPAX@Z		; operator delete
  0001d	59		 pop	 ecx
$LN1@scalar@12:
  0001e	8b c6		 mov	 eax, esi
  00020	5e		 pop	 esi
  00021	5d		 pop	 ebp
  00022	c2 04 00	 ret	 4
??_GioExcavationMission@@UAEPAXI@Z ENDP			; ioExcavationMission::`scalar deleting destructor'
; Function compile flags: /Ogsp
_TEXT	ENDS
;	COMDAT ??_GioItemUseMission@@UAEPAXI@Z
_TEXT	SEGMENT
___flags$ = 8						; size = 4
??_GioItemUseMission@@UAEPAXI@Z PROC			; ioItemUseMission::`scalar deleting destructor', COMDAT
; _this$ = ecx
  00000	55		 push	 ebp
  00001	8b ec		 mov	 ebp, esp
  00003	56		 push	 esi
  00004	8b f1		 mov	 esi, ecx
  00006	c7 06 00 00 00
	00		 mov	 DWORD PTR [esi], OFFSET ??_7ioItemUseMission@@6B@
  0000c	e8 00 00 00 00	 call	 ??1ioMission@@QAE@XZ	; ioMission::~ioMission
  00011	f6 45 08 01	 test	 BYTE PTR ___flags$[ebp], 1
  00015	74 07		 je	 SHORT $LN1@scalar@13
  00017	56		 push	 esi
  00018	e8 00 00 00 00	 call	 ??3@YAXPAX@Z		; operator delete
  0001d	59		 pop	 ecx
$LN1@scalar@13:
  0001e	8b c6		 mov	 eax, esi
  00020	5e		 pop	 esi
  00021	5d		 pop	 ebp
  00022	c2 04 00	 ret	 4
??_GioItemUseMission@@UAEPAXI@Z ENDP			; ioItemUseMission::`scalar deleting destructor'
; Function compile flags: /Ogsp
_TEXT	ENDS
;	COMDAT ??_GioItemReinforceMission@@UAEPAXI@Z
_TEXT	SEGMENT
___flags$ = 8						; size = 4
??_GioItemReinforceMission@@UAEPAXI@Z PROC		; ioItemReinforceMission::`scalar deleting destructor', COMDAT
; _this$ = ecx
  00000	55		 push	 ebp
  00001	8b ec		 mov	 ebp, esp
  00003	56		 push	 esi
  00004	8b f1		 mov	 esi, ecx
  00006	c7 06 00 00 00
	00		 mov	 DWORD PTR [esi], OFFSET ??_7ioItemReinforceMission@@6B@
  0000c	e8 00 00 00 00	 call	 ??1ioMission@@QAE@XZ	; ioMission::~ioMission
  00011	f6 45 08 01	 test	 BYTE PTR ___flags$[ebp], 1
  00015	74 07		 je	 SHORT $LN1@scalar@14
  00017	56		 push	 esi
  00018	e8 00 00 00 00	 call	 ??3@YAXPAX@Z		; operator delete
  0001d	59		 pop	 ecx
$LN1@scalar@14:
  0001e	8b c6		 mov	 eax, esi
  00020	5e		 pop	 esi
  00021	5d		 pop	 ebp
  00022	c2 04 00	 ret	 4
??_GioItemReinforceMission@@UAEPAXI@Z ENDP		; ioItemReinforceMission::`scalar deleting destructor'
; Function compile flags: /Ogsp
_TEXT	ENDS
;	COMDAT ??_GioModePlayMission@@UAEPAXI@Z
_TEXT	SEGMENT
___flags$ = 8						; size = 4
??_GioModePlayMission@@UAEPAXI@Z PROC			; ioModePlayMission::`scalar deleting destructor', COMDAT
; _this$ = ecx
  00000	55		 push	 ebp
  00001	8b ec		 mov	 ebp, esp
  00003	56		 push	 esi
  00004	8b f1		 mov	 esi, ecx
  00006	c7 06 00 00 00
	00		 mov	 DWORD PTR [esi], OFFSET ??_7ioModePlayMission@@6B@
  0000c	e8 00 00 00 00	 call	 ??1ioMission@@QAE@XZ	; ioMission::~ioMission
  00011	f6 45 08 01	 test	 BYTE PTR ___flags$[ebp], 1
  00015	74 07		 je	 SHORT $LN1@scalar@15
  00017	56		 push	 esi
  00018	e8 00 00 00 00	 call	 ??3@YAXPAX@Z		; operator delete
  0001d	59		 pop	 ecx
$LN1@scalar@15:
  0001e	8b c6		 mov	 eax, esi
  00020	5e		 pop	 esi
  00021	5d		 pop	 ebp
  00022	c2 04 00	 ret	 4
??_GioModePlayMission@@UAEPAXI@Z ENDP			; ioModePlayMission::`scalar deleting destructor'
; Function compile flags: /Ogsp
_TEXT	ENDS
;	COMDAT ??_GioDailyCompleteMisson@@UAEPAXI@Z
_TEXT	SEGMENT
___flags$ = 8						; size = 4
??_GioDailyCompleteMisson@@UAEPAXI@Z PROC		; ioDailyCompleteMisson::`scalar deleting destructor', COMDAT
; _this$ = ecx
  00000	55		 push	 ebp
  00001	8b ec		 mov	 ebp, esp
  00003	56		 push	 esi
  00004	8b f1		 mov	 esi, ecx
  00006	c7 06 00 00 00
	00		 mov	 DWORD PTR [esi], OFFSET ??_7ioDailyCompleteMisson@@6B@
  0000c	e8 00 00 00 00	 call	 ??1ioMission@@QAE@XZ	; ioMission::~ioMission
  00011	f6 45 08 01	 test	 BYTE PTR ___flags$[ebp], 1
  00015	74 07		 je	 SHORT $LN1@scalar@16
  00017	56		 push	 esi
  00018	e8 00 00 00 00	 call	 ??3@YAXPAX@Z		; operator delete
  0001d	59		 pop	 ecx
$LN1@scalar@16:
  0001e	8b c6		 mov	 eax, esi
  00020	5e		 pop	 esi
  00021	5d		 pop	 ebp
  00022	c2 04 00	 ret	 4
??_GioDailyCompleteMisson@@UAEPAXI@Z ENDP		; ioDailyCompleteMisson::`scalar deleting destructor'
; Function compile flags: /Ogsp
_TEXT	ENDS
;	COMDAT ??_GioDailyAllClearMisson@@UAEPAXI@Z
_TEXT	SEGMENT
___flags$ = 8						; size = 4
??_GioDailyAllClearMisson@@UAEPAXI@Z PROC		; ioDailyAllClearMisson::`scalar deleting destructor', COMDAT
; _this$ = ecx
  00000	55		 push	 ebp
  00001	8b ec		 mov	 ebp, esp
  00003	56		 push	 esi
  00004	8b f1		 mov	 esi, ecx
  00006	c7 06 00 00 00
	00		 mov	 DWORD PTR [esi], OFFSET ??_7ioDailyAllClearMisson@@6B@
  0000c	e8 00 00 00 00	 call	 ??1ioMission@@QAE@XZ	; ioMission::~ioMission
  00011	f6 45 08 01	 test	 BYTE PTR ___flags$[ebp], 1
  00015	74 07		 je	 SHORT $LN1@scalar@17
  00017	56		 push	 esi
  00018	e8 00 00 00 00	 call	 ??3@YAXPAX@Z		; operator delete
  0001d	59		 pop	 ecx
$LN1@scalar@17:
  0001e	8b c6		 mov	 eax, esi
  00020	5e		 pop	 esi
  00021	5d		 pop	 ebp
  00022	c2 04 00	 ret	 4
??_GioDailyAllClearMisson@@UAEPAXI@Z ENDP		; ioDailyAllClearMisson::`scalar deleting destructor'
_TEXT	ENDS
;	COMDAT xdata$x
; File d:\lost saga for developer\youtube\tutorial\source\src\lsclient\iomission.cpp
xdata$x	SEGMENT
__unwindtable$?Clone@ioDailyAllClearMisson@@UAEPAVioMission@@XZ DD 0ffffffffH
	DD	FLAT:__unwindfunclet$?Clone@ioDailyAllClearMisson@@UAEPAVioMission@@XZ$0
__ehfuncinfo$?Clone@ioDailyAllClearMisson@@UAEPAVioMission@@XZ DD 019930522H
	DD	01H
	DD	FLAT:__unwindtable$?Clone@ioDailyAllClearMisson@@UAEPAVioMission@@XZ
	DD	2 DUP(00H)
	DD	2 DUP(00H)
	DD	00H
	DD	01H
; Function compile flags: /Ogsp
xdata$x	ENDS
;	COMDAT ?Clone@ioDailyAllClearMisson@@UAEPAVioMission@@XZ
_TEXT	SEGMENT
$T518115 = -16						; size = 4
__$EHRec$ = -12						; size = 12
?Clone@ioDailyAllClearMisson@@UAEPAVioMission@@XZ PROC	; ioDailyAllClearMisson::Clone, COMDAT
; _this$ = ecx

; 532  : {

  00000	6a 04		 push	 4
  00002	b8 00 00 00 00	 mov	 eax, __ehhandler$?Clone@ioDailyAllClearMisson@@UAEPAVioMission@@XZ
  00007	e8 00 00 00 00	 call	 __EH_prolog3
  0000c	8b f1		 mov	 esi, ecx

; 533  : 	return new ioDailyAllClearMisson( *this );

  0000e	6a 6c		 push	 108			; 0000006cH
  00010	e8 00 00 00 00	 call	 ??2@YAPAXI@Z		; operator new
  00015	59		 pop	 ecx
  00016	8b c8		 mov	 ecx, eax
  00018	89 4d f0	 mov	 DWORD PTR $T518115[ebp], ecx
  0001b	33 c0		 xor	 eax, eax
  0001d	89 45 fc	 mov	 DWORD PTR __$EHRec$[ebp+8], eax
  00020	3b c8		 cmp	 ecx, eax
  00022	74 06		 je	 SHORT $LN3@Clone@16
  00024	56		 push	 esi
  00025	e8 00 00 00 00	 call	 ??0ioDailyAllClearMisson@@QAE@ABV0@@Z ; ioDailyAllClearMisson::ioDailyAllClearMisson
$LN3@Clone@16:

; 534  : }

  0002a	e8 00 00 00 00	 call	 __EH_epilog3
  0002f	c3		 ret	 0
_TEXT	ENDS
;	COMDAT text$x
text$x	SEGMENT
__unwindfunclet$?Clone@ioDailyAllClearMisson@@UAEPAVioMission@@XZ$0:
  00000	ff 75 f0	 push	 DWORD PTR $T518115[ebp]
  00003	e8 00 00 00 00	 call	 ??3@YAXPAX@Z		; operator delete
  00008	59		 pop	 ecx
  00009	c3		 ret	 0
__ehhandler$?Clone@ioDailyAllClearMisson@@UAEPAVioMission@@XZ:
  0000a	8b 54 24 08	 mov	 edx, DWORD PTR [esp+8]
  0000e	8d 42 0c	 lea	 eax, DWORD PTR [edx+12]
  00011	8b 4a ec	 mov	 ecx, DWORD PTR [edx-20]
  00014	33 c8		 xor	 ecx, eax
  00016	e8 00 00 00 00	 call	 @__security_check_cookie@4
  0001b	b8 00 00 00 00	 mov	 eax, OFFSET __ehfuncinfo$?Clone@ioDailyAllClearMisson@@UAEPAVioMission@@XZ
  00020	e9 00 00 00 00	 jmp	 ___CxxFrameHandler3
text$x	ENDS
?Clone@ioDailyAllClearMisson@@UAEPAVioMission@@XZ ENDP	; ioDailyAllClearMisson::Clone
; Function compile flags: /Ogsp
;	COMDAT ??_GioWeeklyCompleteMission@@UAEPAXI@Z
_TEXT	SEGMENT
___flags$ = 8						; size = 4
??_GioWeeklyCompleteMission@@UAEPAXI@Z PROC		; ioWeeklyCompleteMission::`scalar deleting destructor', COMDAT
; _this$ = ecx
  00000	55		 push	 ebp
  00001	8b ec		 mov	 ebp, esp
  00003	56		 push	 esi
  00004	8b f1		 mov	 esi, ecx
  00006	c7 06 00 00 00
	00		 mov	 DWORD PTR [esi], OFFSET ??_7ioWeeklyCompleteMission@@6B@
  0000c	e8 00 00 00 00	 call	 ??1ioMission@@QAE@XZ	; ioMission::~ioMission
  00011	f6 45 08 01	 test	 BYTE PTR ___flags$[ebp], 1
  00015	74 07		 je	 SHORT $LN1@scalar@18
  00017	56		 push	 esi
  00018	e8 00 00 00 00	 call	 ??3@YAXPAX@Z		; operator delete
  0001d	59		 pop	 ecx
$LN1@scalar@18:
  0001e	8b c6		 mov	 eax, esi
  00020	5e		 pop	 esi
  00021	5d		 pop	 ebp
  00022	c2 04 00	 ret	 4
??_GioWeeklyCompleteMission@@UAEPAXI@Z ENDP		; ioWeeklyCompleteMission::`scalar deleting destructor'
; Function compile flags: /Ogsp
_TEXT	ENDS
;	COMDAT ??_GioWeeklyAllClearMission@@UAEPAXI@Z
_TEXT	SEGMENT
___flags$ = 8						; size = 4
??_GioWeeklyAllClearMission@@UAEPAXI@Z PROC		; ioWeeklyAllClearMission::`scalar deleting destructor', COMDAT
; _this$ = ecx
  00000	55		 push	 ebp
  00001	8b ec		 mov	 ebp, esp
  00003	56		 push	 esi
  00004	8b f1		 mov	 esi, ecx
  00006	c7 06 00 00 00
	00		 mov	 DWORD PTR [esi], OFFSET ??_7ioWeeklyAllClearMission@@6B@
  0000c	e8 00 00 00 00	 call	 ??1ioMission@@QAE@XZ	; ioMission::~ioMission
  00011	f6 45 08 01	 test	 BYTE PTR ___flags$[ebp], 1
  00015	74 07		 je	 SHORT $LN1@scalar@19
  00017	56		 push	 esi
  00018	e8 00 00 00 00	 call	 ??3@YAXPAX@Z		; operator delete
  0001d	59		 pop	 ecx
$LN1@scalar@19:
  0001e	8b c6		 mov	 eax, esi
  00020	5e		 pop	 esi
  00021	5d		 pop	 ebp
  00022	c2 04 00	 ret	 4
??_GioWeeklyAllClearMission@@UAEPAXI@Z ENDP		; ioWeeklyAllClearMission::`scalar deleting destructor'
; Function compile flags: /Ogsp
_TEXT	ENDS
;	COMDAT ??_GioMonthlyAllClearMission@@UAEPAXI@Z
_TEXT	SEGMENT
___flags$ = 8						; size = 4
??_GioMonthlyAllClearMission@@UAEPAXI@Z PROC		; ioMonthlyAllClearMission::`scalar deleting destructor', COMDAT
; _this$ = ecx
  00000	55		 push	 ebp
  00001	8b ec		 mov	 ebp, esp
  00003	56		 push	 esi
  00004	8b f1		 mov	 esi, ecx
  00006	c7 06 00 00 00
	00		 mov	 DWORD PTR [esi], OFFSET ??_7ioMonthlyAllClearMission@@6B@
  0000c	e8 00 00 00 00	 call	 ??1ioMission@@QAE@XZ	; ioMission::~ioMission
  00011	f6 45 08 01	 test	 BYTE PTR ___flags$[ebp], 1
  00015	74 07		 je	 SHORT $LN1@scalar@20
  00017	56		 push	 esi
  00018	e8 00 00 00 00	 call	 ??3@YAXPAX@Z		; operator delete
  0001d	59		 pop	 ecx
$LN1@scalar@20:
  0001e	8b c6		 mov	 eax, esi
  00020	5e		 pop	 esi
  00021	5d		 pop	 ebp
  00022	c2 04 00	 ret	 4
??_GioMonthlyAllClearMission@@UAEPAXI@Z ENDP		; ioMonthlyAllClearMission::`scalar deleting destructor'
; Function compile flags: /Ogsp
_TEXT	ENDS
;	COMDAT ??_GioAdditiveUseMission@@UAEPAXI@Z
_TEXT	SEGMENT
___flags$ = 8						; size = 4
??_GioAdditiveUseMission@@UAEPAXI@Z PROC		; ioAdditiveUseMission::`scalar deleting destructor', COMDAT
; _this$ = ecx
  00000	55		 push	 ebp
  00001	8b ec		 mov	 ebp, esp
  00003	56		 push	 esi
  00004	8b f1		 mov	 esi, ecx
  00006	c7 06 00 00 00
	00		 mov	 DWORD PTR [esi], OFFSET ??_7ioAdditiveUseMission@@6B@
  0000c	e8 00 00 00 00	 call	 ??1ioMission@@QAE@XZ	; ioMission::~ioMission
  00011	f6 45 08 01	 test	 BYTE PTR ___flags$[ebp], 1
  00015	74 07		 je	 SHORT $LN1@scalar@21
  00017	56		 push	 esi
  00018	e8 00 00 00 00	 call	 ??3@YAXPAX@Z		; operator delete
  0001d	59		 pop	 ecx
$LN1@scalar@21:
  0001e	8b c6		 mov	 eax, esi
  00020	5e		 pop	 esi
  00021	5d		 pop	 ebp
  00022	c2 04 00	 ret	 4
??_GioAdditiveUseMission@@UAEPAXI@Z ENDP		; ioAdditiveUseMission::`scalar deleting destructor'
_TEXT	ENDS
PUBLIC	?push_back@?$vector@V?$vector@UColorText@ioMission@@V?$allocator@UColorText@ioMission@@@std@@@std@@V?$allocator@V?$vector@UColorText@ioMission@@V?$allocator@UColorText@ioMission@@@std@@@std@@@2@@std@@QAEXABV?$vector@UColorText@ioMission@@V?$allocator@UColorText@ioMission@@@std@@@2@@Z ; std::vector<std::vector<ioMission::ColorText,std::allocator<ioMission::ColorText> >,std::allocator<std::vector<ioMission::ColorText,std::allocator<ioMission::ColorText> > > >::push_back
; Function compile flags: /Ogsp
; File c:\program files (x86)\microsoft visual studio 10.0\vc\include\vector
;	COMDAT ?push_back@?$vector@V?$vector@UColorText@ioMission@@V?$allocator@UColorText@ioMission@@@std@@@std@@V?$allocator@V?$vector@UColorText@ioMission@@V?$allocator@UColorText@ioMission@@@std@@@std@@@2@@std@@QAEXABV?$vector@UColorText@ioMission@@V?$allocator@UColorText@ioMission@@@std@@@2@@Z
_TEXT	SEGMENT
__Val$ = 8						; size = 4
?push_back@?$vector@V?$vector@UColorText@ioMission@@V?$allocator@UColorText@ioMission@@@std@@@std@@V?$allocator@V?$vector@UColorText@ioMission@@V?$allocator@UColorText@ioMission@@@std@@@std@@@2@@std@@QAEXABV?$vector@UColorText@ioMission@@V?$allocator@UColorText@ioMission@@@std@@@2@@Z PROC ; std::vector<std::vector<ioMission::ColorText,std::allocator<ioMission::ColorText> >,std::allocator<std::vector<ioMission::ColorText,std::allocator<ioMission::ColorText> > > >::push_back, COMDAT
; _this$ = ecx

; 976  : 		{	// insert element at end

  00000	55		 push	 ebp
  00001	8b ec		 mov	 ebp, esp
  00003	56		 push	 esi
  00004	8b f1		 mov	 esi, ecx

; 977  : 		if (_Inside(_STD addressof(_Val)))

  00006	8b 46 04	 mov	 eax, DWORD PTR [esi+4]
  00009	57		 push	 edi
  0000a	8b 7d 08	 mov	 edi, DWORD PTR __Val$[ebp]
  0000d	3b f8		 cmp	 edi, eax
  0000f	73 2d		 jae	 SHORT $LN4@push_back@4
  00011	8b 0e		 mov	 ecx, DWORD PTR [esi]
  00013	3b cf		 cmp	 ecx, edi
  00015	77 27		 ja	 SHORT $LN4@push_back@4

; 978  : 			{	// push back an element
; 979  : 			size_type _Idx = _STD addressof(_Val) - this->_Myfirst;

  00017	2b f9		 sub	 edi, ecx

; 980  : 			if (this->_Mylast == this->_Myend)

  00019	3b 46 08	 cmp	 eax, DWORD PTR [esi+8]
  0001c	75 09		 jne	 SHORT $LN3@push_back@4

; 981  : 				_Reserve(1);

  0001e	6a 01		 push	 1
  00020	8b ce		 mov	 ecx, esi
  00022	e8 00 00 00 00	 call	 ?_Reserve@?$vector@V?$vector@UColorText@ioMission@@V?$allocator@UColorText@ioMission@@@std@@@std@@V?$allocator@V?$vector@UColorText@ioMission@@V?$allocator@UColorText@ioMission@@@std@@@std@@@2@@std@@IAEXI@Z ; std::vector<std::vector<ioMission::ColorText,std::allocator<ioMission::ColorText> >,std::allocator<std::vector<ioMission::ColorText,std::allocator<ioMission::ColorText> > > >::_Reserve
$LN3@push_back@4:

; 982  : 			_Orphan_range(this->_Mylast, this->_Mylast);
; 983  : 			_Cons_val(this->_Alval,
; 984  : 				this->_Mylast,
; 985  : 				this->_Myfirst[_Idx]);

  00027	83 e7 f0	 and	 edi, -16		; fffffff0H
  0002a	03 3e		 add	 edi, DWORD PTR [esi]
  0002c	8d 46 0c	 lea	 eax, DWORD PTR [esi+12]
  0002f	57		 push	 edi
  00030	ff 76 04	 push	 DWORD PTR [esi+4]
  00033	50		 push	 eax
  00034	e8 00 00 00 00	 call	 ??$_Cons_val@V?$allocator@V?$vector@UColorText@ioMission@@V?$allocator@UColorText@ioMission@@@std@@@std@@@std@@V?$vector@UColorText@ioMission@@V?$allocator@UColorText@ioMission@@@std@@@2@AAV32@@std@@YAXAAV?$allocator@V?$vector@UColorText@ioMission@@V?$allocator@UColorText@ioMission@@@std@@@std@@@0@PAV?$vector@UColorText@ioMission@@V?$allocator@UColorText@ioMission@@@std@@@0@AAV20@@Z ; std::_Cons_val<std::allocator<std::vector<ioMission::ColorText,std::allocator<ioMission::ColorText> > >,std::vector<ioMission::ColorText,std::allocator<ioMission::ColorText> >,std::vector<ioMission::ColorText,std::allocator<ioMission::ColorText> > &>
  00039	83 c4 0c	 add	 esp, 12			; 0000000cH

; 986  : 			++this->_Mylast;
; 987  : 			}
; 988  : 		else

  0003c	eb 19		 jmp	 SHORT $LN26@push_back@4
$LN4@push_back@4:

; 989  : 			{	// push back a non-element
; 990  : 			if (this->_Mylast == this->_Myend)

  0003e	3b 46 08	 cmp	 eax, DWORD PTR [esi+8]
  00041	75 09		 jne	 SHORT $LN1@push_back@4

; 991  : 				_Reserve(1);

  00043	6a 01		 push	 1
  00045	8b ce		 mov	 ecx, esi
  00047	e8 00 00 00 00	 call	 ?_Reserve@?$vector@V?$vector@UColorText@ioMission@@V?$allocator@UColorText@ioMission@@@std@@@std@@V?$allocator@V?$vector@UColorText@ioMission@@V?$allocator@UColorText@ioMission@@@std@@@std@@@2@@std@@IAEXI@Z ; std::vector<std::vector<ioMission::ColorText,std::allocator<ioMission::ColorText> >,std::allocator<std::vector<ioMission::ColorText,std::allocator<ioMission::ColorText> > > >::_Reserve
$LN1@push_back@4:

; 992  : 			_Orphan_range(this->_Mylast, this->_Mylast);
; 993  : 			_Cons_val(this->_Alval,
; 994  : 				this->_Mylast,
; 995  : 				_Val);

  0004c	57		 push	 edi
  0004d	ff 76 04	 push	 DWORD PTR [esi+4]
  00050	e8 00 00 00 00	 call	 ??$_Construct@V?$vector@UColorText@ioMission@@V?$allocator@UColorText@ioMission@@@std@@@std@@ABV12@@std@@YAXPAV?$vector@UColorText@ioMission@@V?$allocator@UColorText@ioMission@@@std@@@0@ABV10@@Z ; std::_Construct<std::vector<ioMission::ColorText,std::allocator<ioMission::ColorText> >,std::vector<ioMission::ColorText,std::allocator<ioMission::ColorText> > const &>
  00055	59		 pop	 ecx
  00056	59		 pop	 ecx
$LN26@push_back@4:

; 996  : 			++this->_Mylast;

  00057	83 46 04 10	 add	 DWORD PTR [esi+4], 16	; 00000010H
  0005b	5f		 pop	 edi
  0005c	5e		 pop	 esi

; 997  : 			}
; 998  : 		}

  0005d	5d		 pop	 ebp
  0005e	c2 04 00	 ret	 4
?push_back@?$vector@V?$vector@UColorText@ioMission@@V?$allocator@UColorText@ioMission@@@std@@@std@@V?$allocator@V?$vector@UColorText@ioMission@@V?$allocator@UColorText@ioMission@@@std@@@std@@@2@@std@@QAEXABV?$vector@UColorText@ioMission@@V?$allocator@UColorText@ioMission@@@std@@@2@@Z ENDP ; std::vector<std::vector<ioMission::ColorText,std::allocator<ioMission::ColorText> >,std::allocator<std::vector<ioMission::ColorText,std::allocator<ioMission::ColorText> > > >::push_back
_TEXT	ENDS
PUBLIC	??_C@_08OBKBFOJH@Untitled?$AA@			; `string'
PUBLIC	??_C@_00CNPNBAHC@?$AA@				; `string'
PUBLIC	_this$GSCopy$
PUBLIC	_kLoader$GSCopy$
PUBLIC	_szINIKeyName$GSCopy$
PUBLIC	?LoadTitleInfo@ioMission@@IAEXPBDAAVioINILoader@@@Z ; ioMission::LoadTitleInfo
EXTRN	__imp_??4ioHashString@@QAEAAV0@PBD@Z:PROC
EXTRN	?ChangeCharSet@Help@@YAXPADDD@Z:PROC		; Help::ChangeCharSet
EXTRN	__imp__strtoul:PROC
EXTRN	__imp_?LoadStringA@ioINILoader@@QAEXPBD0PADH@Z:PROC
EXTRN	_memset:PROC
;	COMDAT ??_C@_08OBKBFOJH@Untitled?$AA@
CONST	SEGMENT
??_C@_08OBKBFOJH@Untitled?$AA@ DB 'Untitled', 00H	; `string'
CONST	ENDS
;	COMDAT ??_C@_00CNPNBAHC@?$AA@
CONST	SEGMENT
??_C@_00CNPNBAHC@?$AA@ DB 00H				; `string'
CONST	ENDS
;	COMDAT xdata$x
xdata$x	SEGMENT
__unwindtable$?LoadTitleInfo@ioMission@@IAEXPBDAAVioINILoader@@@Z DD 0ffffffffH
	DD	FLAT:__unwindfunclet$?LoadTitleInfo@ioMission@@IAEXPBDAAVioINILoader@@@Z$0
	DD	00H
	DD	FLAT:__unwindfunclet$?LoadTitleInfo@ioMission@@IAEXPBDAAVioINILoader@@@Z$1
	DD	01H
	DD	FLAT:__unwindfunclet$?LoadTitleInfo@ioMission@@IAEXPBDAAVioINILoader@@@Z$2
__ehfuncinfo$?LoadTitleInfo@ioMission@@IAEXPBDAAVioINILoader@@@Z DD 019930522H
	DD	03H
	DD	FLAT:__unwindtable$?LoadTitleInfo@ioMission@@IAEXPBDAAVioINILoader@@@Z
	DD	2 DUP(00H)
	DD	2 DUP(00H)
	DD	00H
	DD	01H
; Function compile flags: /Ogsp
; File d:\lost saga for developer\youtube\tutorial\source\src\lsclient\iomission.cpp
xdata$x	ENDS
;	COMDAT ?LoadTitleInfo@ioMission@@IAEXPBDAAVioINILoader@@@Z
_TEXT	SEGMENT
_vItemGrade$ = -1156					; size = 16
_this$GSCopy$ = -1140					; size = 4
_pTemp$508533 = -1136					; size = 4
_kColorText$507904 = -1132				; size = 20
_vColorTextLine$508223 = -1112				; size = 16
_szINIKeyName$GSCopy$ = -1096				; size = 4
_kLoader$GSCopy$ = -1092				; size = 4
_iSentence$508224 = -1088				; size = 4
_iLine$507900 = -1084					; size = 4
_szTextKeyName$ = -1080					; size = 260
_szColorKeyName$ = -820					; size = 260
_szColorValue$ = -560					; size = 260
_szTextValue$ = -300					; size = 260
___encStr$508383 = -40					; size = 18
___encStr$508231 = -40					; size = 19
__$EHRec$ = -12						; size = 12
_szINIKeyName$ = 8					; size = 4
_kLoader$ = 12						; size = 4
?LoadTitleInfo@ioMission@@IAEXPBDAAVioINILoader@@@Z PROC ; ioMission::LoadTitleInfo, COMDAT
; _this$ = ecx

; 131  : {

  00000	68 78 04 00 00	 push	 1144			; 00000478H
  00005	b8 00 00 00 00	 mov	 eax, __ehhandler$?LoadTitleInfo@ioMission@@IAEXPBDAAVioINILoader@@@Z
  0000a	e8 00 00 00 00	 call	 __EH_prolog3_GS

; 158  : 			if( strcmp( szColorValue, "" ) == 0) 

  0000f	8b 45 08	 mov	 eax, DWORD PTR _szINIKeyName$[ebp]
  00012	89 85 b8 fb ff
	ff		 mov	 DWORD PTR _szINIKeyName$GSCopy$[ebp], eax
  00018	8b 45 0c	 mov	 eax, DWORD PTR _kLoader$[ebp]
  0001b	be 03 01 00 00	 mov	 esi, 259		; 00000103H
  00020	56		 push	 esi
  00021	89 85 bc fb ff
	ff		 mov	 DWORD PTR _kLoader$GSCopy$[ebp], eax
  00027	33 ff		 xor	 edi, edi
  00029	8d 85 cd fc ff
	ff		 lea	 eax, DWORD PTR _szColorKeyName$[ebp+1]
  0002f	57		 push	 edi
  00030	50		 push	 eax
  00031	89 8d 8c fb ff
	ff		 mov	 DWORD PTR _this$GSCopy$[ebp], ecx
  00037	c6 85 cc fc ff
	ff 00		 mov	 BYTE PTR _szColorKeyName$[ebp], 0
  0003e	e8 00 00 00 00	 call	 _memset
  00043	56		 push	 esi
  00044	8d 85 c9 fb ff
	ff		 lea	 eax, DWORD PTR _szTextKeyName$[ebp+1]
  0004a	57		 push	 edi
  0004b	50		 push	 eax
  0004c	c6 85 c8 fb ff
	ff 00		 mov	 BYTE PTR _szTextKeyName$[ebp], 0
  00053	e8 00 00 00 00	 call	 _memset
  00058	56		 push	 esi
  00059	8d 85 d1 fd ff
	ff		 lea	 eax, DWORD PTR _szColorValue$[ebp+1]
  0005f	57		 push	 edi
  00060	50		 push	 eax
  00061	c6 85 d0 fd ff
	ff 00		 mov	 BYTE PTR _szColorValue$[ebp], 0
  00068	e8 00 00 00 00	 call	 _memset
  0006d	56		 push	 esi
  0006e	8d 85 d5 fe ff
	ff		 lea	 eax, DWORD PTR _szTextValue$[ebp+1]
  00074	57		 push	 edi
  00075	50		 push	 eax
  00076	c6 85 d4 fe ff
	ff 00		 mov	 BYTE PTR _szTextValue$[ebp], 0
  0007d	e8 00 00 00 00	 call	 _memset
  00082	83 c4 30	 add	 esp, 48			; 00000030H
  00085	89 bd 7c fb ff
	ff		 mov	 DWORD PTR _vItemGrade$[ebp], edi
  0008b	89 bd 80 fb ff
	ff		 mov	 DWORD PTR _vItemGrade$[ebp+4], edi
  00091	89 bd 84 fb ff
	ff		 mov	 DWORD PTR _vItemGrade$[ebp+8], edi
  00097	89 7d fc	 mov	 DWORD PTR __$EHRec$[ebp+8], edi
  0009a	c7 85 c4 fb ff
	ff 01 00 00 00	 mov	 DWORD PTR _iLine$507900[ebp], 1
  000a4	8d 5e 01	 lea	 ebx, DWORD PTR [esi+1]
  000a7	eb 02		 jmp	 SHORT $LN209@LoadTitleI
$LL286@LoadTitleI:

; 132  : 	enum { TITLE_LINE = 2, MAX_TEXT_COLOR = 10, };
; 133  : 	char szColorKeyName[MAX_PATH] = "";
; 134  : 	char szTextKeyName[MAX_PATH] = "";
; 135  : 
; 136  : 	char szColorValue[MAX_PATH]="";
; 137  : 	char szTextValue[MAX_PATH]="";
; 138  : 
; 139  : 	vTitleText			vItemGrade;
; 140  : 
; 141  : 	for(int iLine = 1; iLine < TITLE_LINE + 1; ++iLine )

  000a9	33 ff		 xor	 edi, edi
$LN209@LoadTitleI:

; 142  : 	{
; 143  : 		ColorText kColorText;

  000ab	8d 8d 98 fb ff
	ff		 lea	 ecx, DWORD PTR _kColorText$507904[ebp+4]
  000b1	ff 15 00 00 00
	00		 call	 DWORD PTR __imp_??0ioHashString@@QAE@XZ
  000b7	89 bd 94 fb ff
	ff		 mov	 DWORD PTR _kColorText$507904[ebp], edi

; 144  : 		vTitleLine vColorTextLine;

  000bd	89 bd a8 fb ff
	ff		 mov	 DWORD PTR _vColorTextLine$508223[ebp], edi
  000c3	89 bd ac fb ff
	ff		 mov	 DWORD PTR _vColorTextLine$508223[ebp+4], edi
  000c9	89 bd b0 fb ff
	ff		 mov	 DWORD PTR _vColorTextLine$508223[ebp+8], edi
  000cf	c6 45 fc 02	 mov	 BYTE PTR __$EHRec$[ebp+8], 2

; 145  : 
; 146  : 		for( int iSentence = 1 ; iSentence<MAX_TEXT_COLOR ; ++iSentence )

  000d3	c7 85 c0 fb ff
	ff 01 00 00 00	 mov	 DWORD PTR _iSentence$508224[ebp], 1
  000dd	eb 02		 jmp	 SHORT $LN206@LoadTitleI
$LL287@LoadTitleI:
  000df	33 ff		 xor	 edi, edi
$LN206@LoadTitleI:

; 147  : 		{
; 148  : 			memset(szColorKeyName, 0, sizeof(szColorKeyName));

  000e1	53		 push	 ebx
  000e2	8d 85 cc fc ff
	ff		 lea	 eax, DWORD PTR _szColorKeyName$[ebp]
  000e8	57		 push	 edi
  000e9	50		 push	 eax
  000ea	e8 00 00 00 00	 call	 _memset

; 149  : 			memset(szTextKeyName, 0, sizeof(szTextKeyName));

  000ef	53		 push	 ebx
  000f0	8d 85 c8 fb ff
	ff		 lea	 eax, DWORD PTR _szTextKeyName$[ebp]
  000f6	57		 push	 edi
  000f7	50		 push	 eax
  000f8	e8 00 00 00 00	 call	 _memset

; 150  : 			memset(szColorValue, 0, sizeof(szColorValue));

  000fd	53		 push	 ebx
  000fe	8d 85 d0 fd ff
	ff		 lea	 eax, DWORD PTR _szColorValue$[ebp]
  00104	57		 push	 edi
  00105	50		 push	 eax
  00106	e8 00 00 00 00	 call	 _memset

; 151  : 			memset(szTextValue, 0, sizeof(szTextValue));

  0010b	53		 push	 ebx
  0010c	8d 85 d4 fe ff
	ff		 lea	 eax, DWORD PTR _szTextValue$[ebp]
  00112	57		 push	 edi
  00113	50		 push	 eax
  00114	e8 00 00 00 00	 call	 _memset
  00119	83 c4 30	 add	 esp, 48			; 00000030H
  0011c	6a 04		 push	 4
  0011e	5f		 pop	 edi

; 152  : 
; 153  : 			//color, text
; 154  : 			StringCbPrintf_e( szColorKeyName, sizeof(szColorKeyName), "%s_title%d_color%d" ,szINIKeyName, iLine, iSentence  );

  0011f	c7 45 d8 c8 9f
	b4 9e		 mov	 DWORD PTR ___encStr$508231[ebp], -1632329784 ; 9eb49fc8H
  00126	c7 45 dc 84 98
	87 8f		 mov	 DWORD PTR ___encStr$508231[ebp+4], -1886939004 ; 8f879884H
  0012d	c7 45 e0 c8 88
	b4 89		 mov	 DWORD PTR ___encStr$508231[ebp+8], -1984657208 ; 89b488c8H
  00134	c7 45 e4 82 80
	84 98		 mov	 DWORD PTR ___encStr$508231[ebp+12], -1736146814 ; 98848082H
  0013b	66 c7 45 e8 c8
	88		 mov	 WORD PTR ___encStr$508231[ebp+16], 35016 ; 000088c8H
  00141	8d 45 d8	 lea	 eax, DWORD PTR ___encStr$508231[ebp]
  00144	c6 45 ea 00	 mov	 BYTE PTR ___encStr$508231[ebp+18], 0
  00148	8b cf		 mov	 ecx, edi
$LL239@LoadTitleI:
  0014a	81 30 ed ec eb
	ea		 xor	 DWORD PTR [eax], -353637139 ; eaebecedH
  00150	03 c7		 add	 eax, edi
  00152	49		 dec	 ecx
  00153	75 f5		 jne	 SHORT $LL239@LoadTitleI
  00155	6a 10		 push	 16			; 00000010H
  00157	5e		 pop	 esi
$LL236@LoadTitleI:
  00158	8b c6		 mov	 eax, esi
  0015a	25 03 00 00 80	 and	 eax, -2147483645	; 80000003H
  0015f	79 05		 jns	 SHORT $LN291@LoadTitleI
  00161	48		 dec	 eax
  00162	83 c8 fc	 or	 eax, -4			; fffffffcH
  00165	40		 inc	 eax
$LN291@LoadTitleI:
  00166	b1 ed		 mov	 cl, -19			; ffffffedH
  00168	2a c8		 sub	 cl, al
  0016a	30 4c 35 d8	 xor	 BYTE PTR ___encStr$508231[ebp+esi], cl
  0016e	46		 inc	 esi
  0016f	83 fe 12	 cmp	 esi, 18			; 00000012H
  00172	7c e4		 jl	 SHORT $LL236@LoadTitleI
  00174	ff b5 c0 fb ff
	ff		 push	 DWORD PTR _iSentence$508224[ebp]
  0017a	8d 45 d8	 lea	 eax, DWORD PTR ___encStr$508231[ebp]
  0017d	ff b5 c4 fb ff
	ff		 push	 DWORD PTR _iLine$507900[ebp]
  00183	ff b5 b8 fb ff
	ff		 push	 DWORD PTR _szINIKeyName$GSCopy$[ebp]
  00189	50		 push	 eax
  0018a	8d 85 cc fc ff
	ff		 lea	 eax, DWORD PTR _szColorKeyName$[ebp]
  00190	53		 push	 ebx
  00191	50		 push	 eax
  00192	e8 00 00 00 00	 call	 ?StringCbPrintfA@@YAJPADIPBDZZ ; StringCbPrintfA
  00197	83 c4 18	 add	 esp, 24			; 00000018H

; 155  : 			StringCbPrintf_e( szTextKeyName, sizeof(szTextKeyName), "%s_title%d_text%d",szINIKeyName, iLine, iSentence );

  0019a	c7 45 d8 c8 9f
	b4 9e		 mov	 DWORD PTR ___encStr$508383[ebp], -1632329784 ; 9eb49fc8H
  001a1	c7 45 dc 84 98
	87 8f		 mov	 DWORD PTR ___encStr$508383[ebp+4], -1886939004 ; 8f879884H
  001a8	c7 45 e0 c8 88
	b4 9e		 mov	 DWORD PTR ___encStr$508383[ebp+8], -1632335672 ; 9eb488c8H
  001af	c7 45 e4 88 94
	9f cf		 mov	 DWORD PTR ___encStr$508383[ebp+12], -811625336 ; cf9f9488H
  001b6	8d 45 d8	 lea	 eax, DWORD PTR ___encStr$508383[ebp]
  001b9	66 c7 45 e8 89
	00		 mov	 WORD PTR ___encStr$508383[ebp+16], 137 ; 00000089H
  001bf	8b cf		 mov	 ecx, edi
$LL247@LoadTitleI:
  001c1	81 30 ed ec eb
	ea		 xor	 DWORD PTR [eax], -353637139 ; eaebecedH
  001c7	03 c7		 add	 eax, edi
  001c9	49		 dec	 ecx
  001ca	75 f5		 jne	 SHORT $LL247@LoadTitleI
  001cc	ff b5 c0 fb ff
	ff		 push	 DWORD PTR _iSentence$508224[ebp]
  001d2	80 75 e8 ed	 xor	 BYTE PTR ___encStr$508383[ebp+16], -19 ; ffffffedH
  001d6	ff b5 c4 fb ff
	ff		 push	 DWORD PTR _iLine$507900[ebp]
  001dc	8d 45 d8	 lea	 eax, DWORD PTR ___encStr$508383[ebp]
  001df	ff b5 b8 fb ff
	ff		 push	 DWORD PTR _szINIKeyName$GSCopy$[ebp]
  001e5	50		 push	 eax
  001e6	8d 85 c8 fb ff
	ff		 lea	 eax, DWORD PTR _szTextKeyName$[ebp]
  001ec	53		 push	 ebx
  001ed	50		 push	 eax
  001ee	e8 00 00 00 00	 call	 ?StringCbPrintfA@@YAJPADIPBDZZ ; StringCbPrintfA

; 156  : 			//color, text value
; 157  : 			kLoader.LoadString(szColorKeyName, "", szColorValue, MAX_PATH);

  001f3	8b 8d bc fb ff
	ff		 mov	 ecx, DWORD PTR _kLoader$GSCopy$[ebp]
  001f9	83 c4 18	 add	 esp, 24			; 00000018H
  001fc	53		 push	 ebx
  001fd	8d 85 d0 fd ff
	ff		 lea	 eax, DWORD PTR _szColorValue$[ebp]
  00203	50		 push	 eax
  00204	bf 00 00 00 00	 mov	 edi, OFFSET ??_C@_00CNPNBAHC@?$AA@
  00209	57		 push	 edi
  0020a	8d 85 cc fc ff
	ff		 lea	 eax, DWORD PTR _szColorKeyName$[ebp]
  00210	50		 push	 eax
  00211	ff 15 00 00 00
	00		 call	 DWORD PTR __imp_?LoadStringA@ioINILoader@@QAEXPBD0PADH@Z

; 158  : 			if( strcmp( szColorValue, "" ) == 0) 

  00217	33 c9		 xor	 ecx, ecx
  00219	41		 inc	 ecx
  0021a	8d b5 d0 fd ff
	ff		 lea	 esi, DWORD PTR _szColorValue$[ebp]
  00220	33 c0		 xor	 eax, eax
  00222	f3 a6		 repe cmpsb
  00224	0f 84 b3 00 00
	00		 je	 $LN275@LoadTitleI

; 159  : 				break;
; 160  : 			char *pTemp = NULL;	

  0022a	21 85 90 fb ff
	ff		 and	 DWORD PTR _pTemp$508533[ebp], eax

; 161  : 			kColorText.m_dwColor = strtoul(szColorValue, &pTemp, 16);

  00230	6a 10		 push	 16			; 00000010H
  00232	8d 85 90 fb ff
	ff		 lea	 eax, DWORD PTR _pTemp$508533[ebp]
  00238	50		 push	 eax
  00239	8d 85 d0 fd ff
	ff		 lea	 eax, DWORD PTR _szColorValue$[ebp]
  0023f	50		 push	 eax
  00240	ff 15 00 00 00
	00		 call	 DWORD PTR __imp__strtoul

; 162  : 
; 163  : 			kLoader.LoadString( szTextKeyName, "", szTextValue, MAX_PATH );	

  00246	8b 8d bc fb ff
	ff		 mov	 ecx, DWORD PTR _kLoader$GSCopy$[ebp]
  0024c	83 c4 0c	 add	 esp, 12			; 0000000cH
  0024f	89 85 94 fb ff
	ff		 mov	 DWORD PTR _kColorText$507904[ebp], eax
  00255	53		 push	 ebx
  00256	8d 85 d4 fe ff
	ff		 lea	 eax, DWORD PTR _szTextValue$[ebp]
  0025c	50		 push	 eax
  0025d	bf 00 00 00 00	 mov	 edi, OFFSET ??_C@_00CNPNBAHC@?$AA@
  00262	57		 push	 edi
  00263	8d 85 c8 fb ff
	ff		 lea	 eax, DWORD PTR _szTextKeyName$[ebp]
  00269	50		 push	 eax
  0026a	ff 15 00 00 00
	00		 call	 DWORD PTR __imp_?LoadStringA@ioINILoader@@QAEXPBD0PADH@Z

; 164  : 			if( strcmp( szTextValue, "" ) == 0) 

  00270	33 c9		 xor	 ecx, ecx
  00272	41		 inc	 ecx
  00273	8d b5 d4 fe ff
	ff		 lea	 esi, DWORD PTR _szTextValue$[ebp]
  00279	33 c0		 xor	 eax, eax
  0027b	f3 a6		 repe cmpsb
  0027d	74 5e		 je	 SHORT $LN275@LoadTitleI

; 165  : 				break;
; 166  : 
; 167  : 			Help::ChangeCharSet( szTextValue, '#', ' ' );

  0027f	6a 20		 push	 32			; 00000020H
  00281	8d 85 d4 fe ff
	ff		 lea	 eax, DWORD PTR _szTextValue$[ebp]
  00287	6a 23		 push	 35			; 00000023H
  00289	50		 push	 eax
  0028a	e8 00 00 00 00	 call	 ?ChangeCharSet@Help@@YAXPADDD@Z ; Help::ChangeCharSet
  0028f	83 c4 0c	 add	 esp, 12			; 0000000cH

; 168  : 
; 169  : 			kColorText.m_szText = szTextValue;

  00292	8d 85 d4 fe ff
	ff		 lea	 eax, DWORD PTR _szTextValue$[ebp]
  00298	50		 push	 eax
  00299	8d 8d 98 fb ff
	ff		 lea	 ecx, DWORD PTR _kColorText$507904[ebp+4]
  0029f	ff 15 00 00 00
	00		 call	 DWORD PTR __imp_??4ioHashString@@QAEAAV0@PBD@Z

; 170  : 			vColorTextLine.push_back(kColorText);

  002a5	8d 85 94 fb ff
	ff		 lea	 eax, DWORD PTR _kColorText$507904[ebp]
  002ab	50		 push	 eax
  002ac	8d 8d a8 fb ff
	ff		 lea	 ecx, DWORD PTR _vColorTextLine$508223[ebp]
  002b2	e8 00 00 00 00	 call	 ?push_back@?$vector@UColorText@ioMission@@V?$allocator@UColorText@ioMission@@@std@@@std@@QAEXABUColorText@ioMission@@@Z ; std::vector<ioMission::ColorText,std::allocator<ioMission::ColorText> >::push_back

; 171  : 			kColorText.Clear();

  002b7	83 a5 94 fb ff
	ff 00		 and	 DWORD PTR _kColorText$507904[ebp], 0
  002be	8d 8d 98 fb ff
	ff		 lea	 ecx, DWORD PTR _kColorText$507904[ebp+4]
  002c4	ff 15 00 00 00
	00		 call	 DWORD PTR __imp_?Clear@ioHashString@@QAEXXZ
  002ca	ff 85 c0 fb ff
	ff		 inc	 DWORD PTR _iSentence$508224[ebp]
  002d0	83 bd c0 fb ff
	ff 0a		 cmp	 DWORD PTR _iSentence$508224[ebp], 10 ; 0000000aH
  002d7	0f 8c 02 fe ff
	ff		 jl	 $LL287@LoadTitleI
$LN275@LoadTitleI:

; 172  : 		}
; 173  : 
; 174  : 		if( vColorTextLine.empty() ) 

  002dd	8b 85 a8 fb ff
	ff		 mov	 eax, DWORD PTR _vColorTextLine$508223[ebp]
  002e3	3b 85 ac fb ff
	ff		 cmp	 eax, DWORD PTR _vColorTextLine$508223[ebp+4]
  002e9	75 54		 jne	 SHORT $LN283@LoadTitleI

; 175  : 		{
; 176  : 			if( iLine == 1 )

  002eb	83 bd c4 fb ff
	ff 01		 cmp	 DWORD PTR _iLine$507900[ebp], 1
  002f2	75 3d		 jne	 SHORT $LN254@LoadTitleI

; 177  : 			{
; 178  : 				kColorText.m_dwColor = 0;

  002f4	83 a5 94 fb ff
	ff 00		 and	 DWORD PTR _kColorText$507904[ebp], 0

; 179  : 				kColorText.m_szText  = "Untitled";

  002fb	68 00 00 00 00	 push	 OFFSET ??_C@_08OBKBFOJH@Untitled?$AA@
  00300	8d 8d 98 fb ff
	ff		 lea	 ecx, DWORD PTR _kColorText$507904[ebp+4]
  00306	ff 15 00 00 00
	00		 call	 DWORD PTR __imp_??4ioHashString@@QAEAAV0@PBD@Z

; 180  : 				vColorTextLine.push_back( kColorText ); 

  0030c	8d 85 94 fb ff
	ff		 lea	 eax, DWORD PTR _kColorText$507904[ebp]
  00312	50		 push	 eax
  00313	8d 8d a8 fb ff
	ff		 lea	 ecx, DWORD PTR _vColorTextLine$508223[ebp]
  00319	e8 00 00 00 00	 call	 ?push_back@?$vector@UColorText@ioMission@@V?$allocator@UColorText@ioMission@@@std@@@std@@QAEXABUColorText@ioMission@@@Z ; std::vector<ioMission::ColorText,std::allocator<ioMission::ColorText> >::push_back

; 181  : 				kColorText.Clear();

  0031e	83 a5 94 fb ff
	ff 00		 and	 DWORD PTR _kColorText$507904[ebp], 0
  00325	8d 8d 98 fb ff
	ff		 lea	 ecx, DWORD PTR _kColorText$507904[ebp+4]
  0032b	ff 15 00 00 00
	00		 call	 DWORD PTR __imp_?Clear@ioHashString@@QAEXXZ
$LN254@LoadTitleI:

; 182  : 			}
; 183  : 		}
; 184  : 		if( !vColorTextLine.empty() ) 

  00331	8b 85 ac fb ff
	ff		 mov	 eax, DWORD PTR _vColorTextLine$508223[ebp+4]
  00337	39 85 a8 fb ff
	ff		 cmp	 DWORD PTR _vColorTextLine$508223[ebp], eax
  0033d	74 15		 je	 SHORT $LN1@LoadTitleI
$LN283@LoadTitleI:

; 185  : 			m_vTitle.push_back( vColorTextLine );

  0033f	8b 8d 8c fb ff
	ff		 mov	 ecx, DWORD PTR _this$GSCopy$[ebp]
  00345	8d 85 a8 fb ff
	ff		 lea	 eax, DWORD PTR _vColorTextLine$508223[ebp]
  0034b	50		 push	 eax
  0034c	83 c1 54	 add	 ecx, 84			; 00000054H
  0034f	e8 00 00 00 00	 call	 ?push_back@?$vector@V?$vector@UColorText@ioMission@@V?$allocator@UColorText@ioMission@@@std@@@std@@V?$allocator@V?$vector@UColorText@ioMission@@V?$allocator@UColorText@ioMission@@@std@@@std@@@2@@std@@QAEXABV?$vector@UColorText@ioMission@@V?$allocator@UColorText@ioMission@@@std@@@2@@Z ; std::vector<std::vector<ioMission::ColorText,std::allocator<ioMission::ColorText> >,std::allocator<std::vector<ioMission::ColorText,std::allocator<ioMission::ColorText> > > >::push_back
$LN1@LoadTitleI:

; 186  : 	}

  00354	8d 8d a8 fb ff
	ff		 lea	 ecx, DWORD PTR _vColorTextLine$508223[ebp]
  0035a	c6 45 fc 01	 mov	 BYTE PTR __$EHRec$[ebp+8], 1
  0035e	e8 00 00 00 00	 call	 ?_Tidy@?$vector@UColorText@ioMission@@V?$allocator@UColorText@ioMission@@@std@@@std@@IAEXXZ ; std::vector<ioMission::ColorText,std::allocator<ioMission::ColorText> >::_Tidy
  00363	8d 8d 98 fb ff
	ff		 lea	 ecx, DWORD PTR _kColorText$507904[ebp+4]
  00369	c6 45 fc 00	 mov	 BYTE PTR __$EHRec$[ebp+8], 0
  0036d	ff 15 00 00 00
	00		 call	 DWORD PTR __imp_??1ioHashString@@QAE@XZ
  00373	ff 85 c4 fb ff
	ff		 inc	 DWORD PTR _iLine$507900[ebp]
  00379	83 bd c4 fb ff
	ff 03		 cmp	 DWORD PTR _iLine$507900[ebp], 3
  00380	0f 8c 23 fd ff
	ff		 jl	 $LL286@LoadTitleI

; 187  : }

  00386	83 4d fc ff	 or	 DWORD PTR __$EHRec$[ebp+8], -1
  0038a	8d 8d 7c fb ff
	ff		 lea	 ecx, DWORD PTR _vItemGrade$[ebp]
  00390	e8 00 00 00 00	 call	 ?_Tidy@?$vector@V?$vector@UColorText@ioMission@@V?$allocator@UColorText@ioMission@@@std@@@std@@V?$allocator@V?$vector@UColorText@ioMission@@V?$allocator@UColorText@ioMission@@@std@@@std@@@2@@std@@IAEXXZ ; std::vector<std::vector<ioMission::ColorText,std::allocator<ioMission::ColorText> >,std::allocator<std::vector<ioMission::ColorText,std::allocator<ioMission::ColorText> > > >::_Tidy
  00395	e8 00 00 00 00	 call	 __EH_epilog3_GS
  0039a	c2 08 00	 ret	 8
_TEXT	ENDS
;	COMDAT text$x
text$x	SEGMENT
__unwindfunclet$?LoadTitleInfo@ioMission@@IAEXPBDAAVioINILoader@@@Z$0:
  00000	8d 8d 7c fb ff
	ff		 lea	 ecx, DWORD PTR _vItemGrade$[ebp]
  00006	e9 00 00 00 00	 jmp	 ??1?$vector@V?$vector@UColorText@ioMission@@V?$allocator@UColorText@ioMission@@@std@@@std@@V?$allocator@V?$vector@UColorText@ioMission@@V?$allocator@UColorText@ioMission@@@std@@@std@@@2@@std@@QAE@XZ ; std::vector<std::vector<ioMission::ColorText,std::allocator<ioMission::ColorText> >,std::allocator<std::vector<ioMission::ColorText,std::allocator<ioMission::ColorText> > > >::~vector<std::vector<ioMission::ColorText,std::allocator<ioMission::ColorText> >,std::allocator<std::vector<ioMission::ColorText,std::allocator<ioMission::ColorText> > > >
__unwindfunclet$?LoadTitleInfo@ioMission@@IAEXPBDAAVioINILoader@@@Z$1:
  0000b	8d 8d 94 fb ff
	ff		 lea	 ecx, DWORD PTR _kColorText$507904[ebp]
  00011	e9 00 00 00 00	 jmp	 ??1ColorText@ioMission@@QAE@XZ
__unwindfunclet$?LoadTitleInfo@ioMission@@IAEXPBDAAVioINILoader@@@Z$2:
  00016	8d 8d a8 fb ff
	ff		 lea	 ecx, DWORD PTR _vColorTextLine$508223[ebp]
  0001c	e9 00 00 00 00	 jmp	 ??1?$vector@UColorText@ioMission@@V?$allocator@UColorText@ioMission@@@std@@@std@@QAE@XZ ; std::vector<ioMission::ColorText,std::allocator<ioMission::ColorText> >::~vector<ioMission::ColorText,std::allocator<ioMission::ColorText> >
__ehhandler$?LoadTitleInfo@ioMission@@IAEXPBDAAVioINILoader@@@Z:
  00021	8b 54 24 08	 mov	 edx, DWORD PTR [esp+8]
  00025	8d 42 0c	 lea	 eax, DWORD PTR [edx+12]
  00028	8b 8a 78 fb ff
	ff		 mov	 ecx, DWORD PTR [edx-1160]
  0002e	33 c8		 xor	 ecx, eax
  00030	e8 00 00 00 00	 call	 @__security_check_cookie@4
  00035	8b 4a fc	 mov	 ecx, DWORD PTR [edx-4]
  00038	33 c8		 xor	 ecx, eax
  0003a	e8 00 00 00 00	 call	 @__security_check_cookie@4
  0003f	b8 00 00 00 00	 mov	 eax, OFFSET __ehfuncinfo$?LoadTitleInfo@ioMission@@IAEXPBDAAVioINILoader@@@Z
  00044	e9 00 00 00 00	 jmp	 ___CxxFrameHandler3
text$x	ENDS
?LoadTitleInfo@ioMission@@IAEXPBDAAVioINILoader@@@Z ENDP ; ioMission::LoadTitleInfo
PUBLIC	??_C@_01LFCBOECM@?4?$AA@			; `string'
PUBLIC	??_C@_0L@OINCAMJG@start_date?$AA@		; `string'
PUBLIC	_this$GSCopy$
PUBLIC	_kLoader$GSCopy$
PUBLIC	_szINIKeyName$GSCopy$
EXTRN	__imp_?LoadBool@ioINILoader@@QAE_NPBD_N@Z:PROC
EXTRN	__imp__atoi:PROC
EXTRN	__imp_?Split@ioStringConverter@@SAABV?$vector@V?$basic_string@DU?$char_traits@D@std@@V?$allocator@D@2@@std@@V?$allocator@V?$basic_string@DU?$char_traits@D@std@@V?$allocator@D@2@@std@@@2@@std@@ABV?$basic_string@DU?$char_traits@D@std@@V?$allocator@D@2@@3@0H@Z:PROC
EXTRN	__imp_?LoadInt@ioINILoader@@QAEHPBDH@Z:PROC
;	COMDAT ??_C@_01LFCBOECM@?4?$AA@
; File c:\program files (x86)\microsoft visual studio 10.0\vc\include\vector
CONST	SEGMENT
??_C@_01LFCBOECM@?4?$AA@ DB '.', 00H			; `string'
CONST	ENDS
;	COMDAT ??_C@_0L@OINCAMJG@start_date?$AA@
CONST	SEGMENT
??_C@_0L@OINCAMJG@start_date?$AA@ DB 'start_date', 00H	; `string'
CONST	ENDS
;	COMDAT xdata$x
xdata$x	SEGMENT
__ehfuncinfo$?Init@ioMission@@UAEXPBDAAVioINILoader@@@Z DD 019930522H
	DD	06H
	DD	FLAT:__unwindtable$?Init@ioMission@@UAEXPBDAAVioINILoader@@@Z
	DD	2 DUP(00H)
	DD	2 DUP(00H)
	DD	00H
	DD	01H
__unwindtable$?Init@ioMission@@UAEXPBDAAVioINILoader@@@Z DD 0ffffffffH
	DD	FLAT:__unwindfunclet$?Init@ioMission@@UAEXPBDAAVioINILoader@@@Z$0
	DD	00H
	DD	FLAT:__unwindfunclet$?Init@ioMission@@UAEXPBDAAVioINILoader@@@Z$1
	DD	01H
	DD	FLAT:__unwindfunclet$?Init@ioMission@@UAEXPBDAAVioINILoader@@@Z$2
	DD	00H
	DD	FLAT:__unwindfunclet$?Init@ioMission@@UAEXPBDAAVioINILoader@@@Z$2
	DD	0ffffffffH
	DD	FLAT:__unwindfunclet$?Init@ioMission@@UAEXPBDAAVioINILoader@@@Z$2
	DD	04H
	DD	FLAT:__unwindfunclet$?Init@ioMission@@UAEXPBDAAVioINILoader@@@Z$3
; Function compile flags: /Ogsp
; File d:\lost saga for developer\youtube\tutorial\source\src\lsclient\iomission.cpp
xdata$x	ENDS
;	COMDAT ?Init@ioMission@@UAEXPBDAAVioINILoader@@@Z
_TEXT	SEGMENT
_kString$ = -676					; size = 16
_this$GSCopy$ = -660					; size = 4
_szINIKeyName$GSCopy$ = -656				; size = 4
_iRewardCnt$507425 = -652				; size = 4
_i$506958 = -652					; size = 4
_kLoader$GSCopy$ = -648					; size = 4
$T506955 = -644						; size = 28
$T506956 = -616						; size = 28
_szValue$ = -588					; size = 260
_szBuf$ = -328						; size = 260
___encStr$507586 = -68					; size = 23
___encStr$507275 = -68					; size = 20
___encStr$507122 = -64					; size = 19
_szRewardText$507429 = -60				; size = 16
___encStr$507738 = -56					; size = 11
___encStr$507433 = -40					; size = 18
___encStr$506970 = -36					; size = 11
___encStr$506805 = -32					; size = 10
___encStr$506653 = -32					; size = 8
___encStr$506501 = -32					; size = 8
___encStr$506343 = -32					; size = 8
__$EHRec$ = -12						; size = 12
_szINIKeyName$ = 8					; size = 4
_kLoader$ = 12						; size = 4
?Init@ioMission@@UAEXPBDAAVioINILoader@@@Z PROC		; ioMission::Init, COMDAT
; _this$ = ecx

; 55   : {

  00000	68 98 02 00 00	 push	 664			; 00000298H
  00005	b8 00 00 00 00	 mov	 eax, __ehhandler$?Init@ioMission@@UAEXPBDAAVioINILoader@@@Z
  0000a	e8 00 00 00 00	 call	 __EH_prolog3_GS

; 83   : 	for ( int i=0 ; i<(int)kString.size() ; ++i )

  0000f	8b 45 08	 mov	 eax, DWORD PTR _szINIKeyName$[ebp]
  00012	89 85 70 fd ff
	ff		 mov	 DWORD PTR _szINIKeyName$GSCopy$[ebp], eax
  00018	8b 45 0c	 mov	 eax, DWORD PTR _kLoader$[ebp]
  0001b	be 03 01 00 00	 mov	 esi, 259		; 00000103H
  00020	33 db		 xor	 ebx, ebx
  00022	56		 push	 esi
  00023	89 85 78 fd ff
	ff		 mov	 DWORD PTR _kLoader$GSCopy$[ebp], eax
  00029	8d 85 b9 fe ff
	ff		 lea	 eax, DWORD PTR _szBuf$[ebp+1]
  0002f	8b f9		 mov	 edi, ecx
  00031	53		 push	 ebx
  00032	50		 push	 eax

; 125  : 
; 126  : 	sprintf_s_e( szBuf, "%s_costume", szINIKeyName );

  00033	89 bd 6c fd ff
	ff		 mov	 DWORD PTR _this$GSCopy$[ebp], edi
  00039	88 9d b8 fe ff
	ff		 mov	 BYTE PTR _szBuf$[ebp], bl
  0003f	e8 00 00 00 00	 call	 _memset
  00044	56		 push	 esi
  00045	8d 85 b5 fd ff
	ff		 lea	 eax, DWORD PTR _szValue$[ebp+1]
  0004b	53		 push	 ebx
  0004c	50		 push	 eax
  0004d	88 9d b4 fd ff
	ff		 mov	 BYTE PTR _szValue$[ebp], bl
  00053	e8 00 00 00 00	 call	 _memset
  00058	8b 8d 78 fd ff
	ff		 mov	 ecx, DWORD PTR _kLoader$GSCopy$[ebp]
  0005e	8b 35 00 00 00
	00		 mov	 esi, DWORD PTR __imp_?LoadInt@ioINILoader@@QAEHPBDH@Z
  00064	83 c4 18	 add	 esp, 24			; 00000018H
  00067	53		 push	 ebx
  00068	68 00 00 00 00	 push	 OFFSET ??_C@_0L@OINCAMJG@start_date?$AA@
  0006d	ff d6		 call	 esi
  0006f	6a 04		 push	 4
  00071	89 47 04	 mov	 DWORD PTR [edi+4], eax
  00074	c7 45 e0 c8 9f
	b4 89		 mov	 DWORD PTR ___encStr$506343[ebp], -1984651320 ; 89b49fc8H
  0007b	81 75 e0 ed ec
	eb ea		 xor	 DWORD PTR ___encStr$506343[ebp], -353637139 ; eaebecedH
  00082	c7 45 e4 82 88
	8e 00		 mov	 DWORD PTR ___encStr$506343[ebp+4], 9341058 ; 008e8882H
  00089	58		 pop	 eax
$LL1010@Init:

; 56   : 	char szBuf[MAX_PATH] = "",szValue[MAX_PATH] = "";
; 57   : 	enum { MAX_PRESENT_TEXT_LINE = 4 };
; 58   : 	//StartDay
; 59   : 	m_dwStartDay = (DWORD)kLoader.LoadInt( "start_date", 0 );
; 60   : 
; 61   : 	//Code
; 62   : 	sprintf_s_e( szBuf, "%s_code", szINIKeyName );

  0008a	8b c8		 mov	 ecx, eax
  0008c	81 e1 03 00 00
	80		 and	 ecx, -2147483645	; 80000003H
  00092	79 05		 jns	 SHORT $LN1244@Init
  00094	49		 dec	 ecx
  00095	83 c9 fc	 or	 ecx, -4			; fffffffcH
  00098	41		 inc	 ecx
$LN1244@Init:
  00099	b2 ed		 mov	 dl, -19			; ffffffedH
  0009b	2a d1		 sub	 dl, cl
  0009d	30 54 05 e0	 xor	 BYTE PTR ___encStr$506343[ebp+eax], dl
  000a1	40		 inc	 eax
  000a2	83 f8 07	 cmp	 eax, 7
  000a5	7c e3		 jl	 SHORT $LL1010@Init
  000a7	ff b5 70 fd ff
	ff		 push	 DWORD PTR _szINIKeyName$GSCopy$[ebp]
  000ad	8d 45 e0	 lea	 eax, DWORD PTR ___encStr$506343[ebp]
  000b0	50		 push	 eax
  000b1	8d 85 b8 fe ff
	ff		 lea	 eax, DWORD PTR _szBuf$[ebp]
  000b7	50		 push	 eax
  000b8	e8 00 00 00 00	 call	 ??$sprintf_s@$0BAE@@@YAHAAY0BAE@DPBDZZ ; sprintf_s<260>

; 63   : 	m_iMagicCode = kLoader.LoadInt( szBuf, 0 );

  000bd	8b 8d 78 fd ff
	ff		 mov	 ecx, DWORD PTR _kLoader$GSCopy$[ebp]
  000c3	83 c4 0c	 add	 esp, 12			; 0000000cH
  000c6	53		 push	 ebx
  000c7	8d 85 b8 fe ff
	ff		 lea	 eax, DWORD PTR _szBuf$[ebp]
  000cd	50		 push	 eax
  000ce	ff d6		 call	 esi

; 64   : 
; 65   : 	//Type
; 66   : 	sprintf_s_e( szBuf, "%s_type", szINIKeyName );

  000d0	6a 04		 push	 4
  000d2	89 47 08	 mov	 DWORD PTR [edi+8], eax
  000d5	c7 45 e0 c8 9f
	b4 9e		 mov	 DWORD PTR ___encStr$506501[ebp], -1632329784 ; 9eb49fc8H
  000dc	81 75 e0 ed ec
	eb ea		 xor	 DWORD PTR ___encStr$506501[ebp], -353637139 ; eaebecedH
  000e3	c7 45 e4 94 9c
	8e 00		 mov	 DWORD PTR ___encStr$506501[ebp+4], 9346196 ; 008e9c94H
  000ea	58		 pop	 eax
$LL1018@Init:
  000eb	8b c8		 mov	 ecx, eax
  000ed	81 e1 03 00 00
	80		 and	 ecx, -2147483645	; 80000003H
  000f3	79 05		 jns	 SHORT $LN1245@Init
  000f5	49		 dec	 ecx
  000f6	83 c9 fc	 or	 ecx, -4			; fffffffcH
  000f9	41		 inc	 ecx
$LN1245@Init:
  000fa	b2 ed		 mov	 dl, -19			; ffffffedH
  000fc	2a d1		 sub	 dl, cl
  000fe	30 54 05 e0	 xor	 BYTE PTR ___encStr$506501[ebp+eax], dl
  00102	40		 inc	 eax
  00103	83 f8 07	 cmp	 eax, 7
  00106	7c e3		 jl	 SHORT $LL1018@Init
  00108	ff b5 70 fd ff
	ff		 push	 DWORD PTR _szINIKeyName$GSCopy$[ebp]
  0010e	8d 45 e0	 lea	 eax, DWORD PTR ___encStr$506501[ebp]
  00111	50		 push	 eax
  00112	8d 85 b8 fe ff
	ff		 lea	 eax, DWORD PTR _szBuf$[ebp]
  00118	50		 push	 eax
  00119	e8 00 00 00 00	 call	 ??$sprintf_s@$0BAE@@@YAHAAY0BAE@DPBDZZ ; sprintf_s<260>

; 67   : 	m_iMissionType = kLoader.LoadInt( szBuf, 0 );

  0011e	8b 8d 78 fd ff
	ff		 mov	 ecx, DWORD PTR _kLoader$GSCopy$[ebp]
  00124	83 c4 0c	 add	 esp, 12			; 0000000cH
  00127	53		 push	 ebx
  00128	8d 85 b8 fe ff
	ff		 lea	 eax, DWORD PTR _szBuf$[ebp]
  0012e	50		 push	 eax
  0012f	ff d6		 call	 esi

; 68   : 
; 69   : 	//Title
; 70   : 	LoadTitleInfo( szINIKeyName, kLoader );

  00131	ff b5 78 fd ff
	ff		 push	 DWORD PTR _kLoader$GSCopy$[ebp]
  00137	8b cf		 mov	 ecx, edi
  00139	ff b5 70 fd ff
	ff		 push	 DWORD PTR _szINIKeyName$GSCopy$[ebp]
  0013f	89 47 0c	 mov	 DWORD PTR [edi+12], eax
  00142	e8 00 00 00 00	 call	 ?LoadTitleInfo@ioMission@@IAEXPBDAAVioINILoader@@@Z ; ioMission::LoadTitleInfo

; 71   : 	
; 72   : 	//Icon
; 73   : 	ZeroMemory( szValue, sizeof(szValue) );

  00147	68 04 01 00 00	 push	 260			; 00000104H
  0014c	8d 85 b4 fd ff
	ff		 lea	 eax, DWORD PTR _szValue$[ebp]
  00152	53		 push	 ebx
  00153	50		 push	 eax
  00154	e8 00 00 00 00	 call	 _memset
  00159	83 c4 0c	 add	 esp, 12			; 0000000cH

; 74   : 	sprintf_s_e( szBuf, "%s_icon", szINIKeyName );

  0015c	6a 04		 push	 4
  0015e	c7 45 e0 c8 9f
	b4 83		 mov	 DWORD PTR ___encStr$506653[ebp], -2085314616 ; 83b49fc8H
  00165	81 75 e0 ed ec
	eb ea		 xor	 DWORD PTR ___encStr$506653[ebp], -353637139 ; eaebecedH
  0016c	c7 45 e4 8e 83
	85 00		 mov	 DWORD PTR ___encStr$506653[ebp+4], 8749966 ; 0085838eH
  00173	58		 pop	 eax
$LL1026@Init:
  00174	8b c8		 mov	 ecx, eax
  00176	81 e1 03 00 00
	80		 and	 ecx, -2147483645	; 80000003H
  0017c	79 05		 jns	 SHORT $LN1246@Init
  0017e	49		 dec	 ecx
  0017f	83 c9 fc	 or	 ecx, -4			; fffffffcH
  00182	41		 inc	 ecx
$LN1246@Init:
  00183	b2 ed		 mov	 dl, -19			; ffffffedH
  00185	2a d1		 sub	 dl, cl
  00187	30 54 05 e0	 xor	 BYTE PTR ___encStr$506653[ebp+eax], dl
  0018b	40		 inc	 eax
  0018c	83 f8 07	 cmp	 eax, 7
  0018f	7c e3		 jl	 SHORT $LL1026@Init
  00191	ff b5 70 fd ff
	ff		 push	 DWORD PTR _szINIKeyName$GSCopy$[ebp]
  00197	8d 45 e0	 lea	 eax, DWORD PTR ___encStr$506653[ebp]
  0019a	50		 push	 eax
  0019b	8d 85 b8 fe ff
	ff		 lea	 eax, DWORD PTR _szBuf$[ebp]
  001a1	50		 push	 eax
  001a2	e8 00 00 00 00	 call	 ??$sprintf_s@$0BAE@@@YAHAAY0BAE@DPBDZZ ; sprintf_s<260>

; 75   : 	kLoader.LoadString( szBuf, "", szValue, MAX_PATH );

  001a7	8b 8d 78 fd ff
	ff		 mov	 ecx, DWORD PTR _kLoader$GSCopy$[ebp]
  001ad	83 c4 0c	 add	 esp, 12			; 0000000cH
  001b0	68 04 01 00 00	 push	 260			; 00000104H
  001b5	8d 85 b4 fd ff
	ff		 lea	 eax, DWORD PTR _szValue$[ebp]
  001bb	50		 push	 eax
  001bc	68 00 00 00 00	 push	 OFFSET ??_C@_00CNPNBAHC@?$AA@
  001c1	8d 85 b8 fe ff
	ff		 lea	 eax, DWORD PTR _szBuf$[ebp]
  001c7	50		 push	 eax
  001c8	ff 15 00 00 00
	00		 call	 DWORD PTR __imp_?LoadStringA@ioINILoader@@QAEXPBD0PADH@Z

; 76   : 	m_IconName = szValue;

  001ce	8d 85 b4 fd ff
	ff		 lea	 eax, DWORD PTR _szValue$[ebp]
  001d4	50		 push	 eax
  001d5	8d 4f 20	 lea	 ecx, DWORD PTR [edi+32]
  001d8	ff 15 00 00 00
	00		 call	 DWORD PTR __imp_??4ioHashString@@QAEAAV0@PBD@Z

; 77   : 
; 78   : 	//Value
; 79   : 	ZeroMemory( szValue, sizeof(szValue) );

  001de	68 04 01 00 00	 push	 260			; 00000104H
  001e3	8d 85 b4 fd ff
	ff		 lea	 eax, DWORD PTR _szValue$[ebp]
  001e9	53		 push	 ebx
  001ea	50		 push	 eax
  001eb	e8 00 00 00 00	 call	 _memset
  001f0	83 c4 0c	 add	 esp, 12			; 0000000cH
  001f3	6a 02		 push	 2

; 80   : 	sprintf_s_e( szBuf, "%s_values", szINIKeyName );

  001f5	c7 45 e0 c8 9f
	b4 9c		 mov	 DWORD PTR ___encStr$506805[ebp], -1665884216 ; 9cb49fc8H
  001fc	c7 45 e4 8c 80
	9e 8f		 mov	 DWORD PTR ___encStr$506805[ebp+4], -1885437812 ; 8f9e808cH
  00203	8d 45 e0	 lea	 eax, DWORD PTR ___encStr$506805[ebp]
  00206	66 c7 45 e8 9e
	00		 mov	 WORD PTR ___encStr$506805[ebp+8], 158 ; 0000009eH
  0020c	59		 pop	 ecx
$LL1037@Init:
  0020d	81 30 ed ec eb
	ea		 xor	 DWORD PTR [eax], -353637139 ; eaebecedH
  00213	83 c0 04	 add	 eax, 4
  00216	49		 dec	 ecx
  00217	75 f4		 jne	 SHORT $LL1037@Init
  00219	ff b5 70 fd ff
	ff		 push	 DWORD PTR _szINIKeyName$GSCopy$[ebp]
  0021f	80 75 e8 ed	 xor	 BYTE PTR ___encStr$506805[ebp+8], -19 ; ffffffedH
  00223	8d 45 e0	 lea	 eax, DWORD PTR ___encStr$506805[ebp]
  00226	50		 push	 eax
  00227	8d 85 b8 fe ff
	ff		 lea	 eax, DWORD PTR _szBuf$[ebp]
  0022d	50		 push	 eax
  0022e	e8 00 00 00 00	 call	 ??$sprintf_s@$0BAE@@@YAHAAY0BAE@DPBDZZ ; sprintf_s<260>

; 81   : 	kLoader.LoadString( szBuf, "", szValue, MAX_PATH );

  00233	8b 8d 78 fd ff
	ff		 mov	 ecx, DWORD PTR _kLoader$GSCopy$[ebp]
  00239	83 c4 0c	 add	 esp, 12			; 0000000cH
  0023c	68 04 01 00 00	 push	 260			; 00000104H
  00241	8d 85 b4 fd ff
	ff		 lea	 eax, DWORD PTR _szValue$[ebp]
  00247	50		 push	 eax
  00248	68 00 00 00 00	 push	 OFFSET ??_C@_00CNPNBAHC@?$AA@
  0024d	8d 85 b8 fe ff
	ff		 lea	 eax, DWORD PTR _szBuf$[ebp]
  00253	50		 push	 eax
  00254	ff 15 00 00 00
	00		 call	 DWORD PTR __imp_?LoadStringA@ioINILoader@@QAEXPBD0PADH@Z

; 82   : 	StringVector kString = ioStringConverter::Split( szValue, "." );

  0025a	6a 01		 push	 1
  0025c	68 00 00 00 00	 push	 OFFSET ??_C@_01LFCBOECM@?4?$AA@
  00261	8d 8d 7c fd ff
	ff		 lea	 ecx, DWORD PTR $T506955[ebp]
  00267	c7 85 90 fd ff
	ff 0f 00 00 00	 mov	 DWORD PTR $T506955[ebp+20], 15 ; 0000000fH
  00271	89 9d 8c fd ff
	ff		 mov	 DWORD PTR $T506955[ebp+16], ebx
  00277	88 9d 7c fd ff
	ff		 mov	 BYTE PTR $T506955[ebp], bl
  0027d	e8 00 00 00 00	 call	 ?assign@?$basic_string@DU?$char_traits@D@std@@V?$allocator@D@2@@std@@QAEAAV12@PBDI@Z ; std::basic_string<char,std::char_traits<char>,std::allocator<char> >::assign
  00282	8d 85 b4 fd ff
	ff		 lea	 eax, DWORD PTR _szValue$[ebp]
  00288	89 5d fc	 mov	 DWORD PTR __$EHRec$[ebp+8], ebx
  0028b	c7 85 ac fd ff
	ff 0f 00 00 00	 mov	 DWORD PTR $T506956[ebp+20], 15 ; 0000000fH
  00295	89 9d a8 fd ff
	ff		 mov	 DWORD PTR $T506956[ebp+16], ebx
  0029b	88 9d 98 fd ff
	ff		 mov	 BYTE PTR $T506956[ebp], bl
  002a1	8d 48 01	 lea	 ecx, DWORD PTR [eax+1]
$LL1239@Init:
  002a4	8a 10		 mov	 dl, BYTE PTR [eax]
  002a6	40		 inc	 eax
  002a7	3a d3		 cmp	 dl, bl
  002a9	75 f9		 jne	 SHORT $LL1239@Init
  002ab	2b c1		 sub	 eax, ecx
  002ad	50		 push	 eax
  002ae	8d 85 b4 fd ff
	ff		 lea	 eax, DWORD PTR _szValue$[ebp]
  002b4	50		 push	 eax
  002b5	8d 8d 98 fd ff
	ff		 lea	 ecx, DWORD PTR $T506956[ebp]
  002bb	e8 00 00 00 00	 call	 ?assign@?$basic_string@DU?$char_traits@D@std@@V?$allocator@D@2@@std@@QAEAAV12@PBDI@Z ; std::basic_string<char,std::char_traits<char>,std::allocator<char> >::assign
  002c0	53		 push	 ebx
  002c1	8d 85 7c fd ff
	ff		 lea	 eax, DWORD PTR $T506955[ebp]
  002c7	50		 push	 eax
  002c8	8d 85 98 fd ff
	ff		 lea	 eax, DWORD PTR $T506956[ebp]
  002ce	50		 push	 eax
  002cf	c6 45 fc 01	 mov	 BYTE PTR __$EHRec$[ebp+8], 1
  002d3	ff 15 00 00 00
	00		 call	 DWORD PTR __imp_?Split@ioStringConverter@@SAABV?$vector@V?$basic_string@DU?$char_traits@D@std@@V?$allocator@D@2@@std@@V?$allocator@V?$basic_string@DU?$char_traits@D@std@@V?$allocator@D@2@@std@@@2@@std@@ABV?$basic_string@DU?$char_traits@D@std@@V?$allocator@D@2@@3@0H@Z
  002d9	83 c4 0c	 add	 esp, 12			; 0000000cH
  002dc	50		 push	 eax
  002dd	8d 8d 5c fd ff
	ff		 lea	 ecx, DWORD PTR _kString$[ebp]
  002e3	e8 00 00 00 00	 call	 ??0?$vector@V?$basic_string@DU?$char_traits@D@std@@V?$allocator@D@2@@std@@V?$allocator@V?$basic_string@DU?$char_traits@D@std@@V?$allocator@D@2@@std@@@2@@std@@QAE@ABV01@@Z ; std::vector<std::basic_string<char,std::char_traits<char>,std::allocator<char> >,std::allocator<std::basic_string<char,std::char_traits<char>,std::allocator<char> > > >::vector<std::basic_string<char,std::char_traits<char>,std::allocator<char> >,std::allocator<std::basic_string<char,std::char_traits<char>,std::allocator<char> > > >
  002e8	53		 push	 ebx
  002e9	6a 01		 push	 1
  002eb	8d 8d 98 fd ff
	ff		 lea	 ecx, DWORD PTR $T506956[ebp]
  002f1	e8 00 00 00 00	 call	 ?_Tidy@?$basic_string@DU?$char_traits@D@std@@V?$allocator@D@2@@std@@QAEX_NI@Z ; std::basic_string<char,std::char_traits<char>,std::allocator<char> >::_Tidy
  002f6	53		 push	 ebx
  002f7	6a 01		 push	 1
  002f9	8d 8d 7c fd ff
	ff		 lea	 ecx, DWORD PTR $T506955[ebp]
  002ff	c6 45 fc 04	 mov	 BYTE PTR __$EHRec$[ebp+8], 4
  00303	e8 00 00 00 00	 call	 ?_Tidy@?$basic_string@DU?$char_traits@D@std@@V?$allocator@D@2@@std@@QAEX_NI@Z ; std::basic_string<char,std::char_traits<char>,std::allocator<char> >::_Tidy

; 83   : 	for ( int i=0 ; i<(int)kString.size() ; ++i )

  00308	8b 85 60 fd ff
	ff		 mov	 eax, DWORD PTR _kString$[ebp+4]
  0030e	2b 85 5c fd ff
	ff		 sub	 eax, DWORD PTR _kString$[ebp]
  00314	6a 1c		 push	 28			; 0000001cH
  00316	99		 cdq
  00317	59		 pop	 ecx
  00318	f7 f9		 idiv	 ecx
  0031a	89 9d 74 fd ff
	ff		 mov	 DWORD PTR _i$506958[ebp], ebx
  00320	85 c0		 test	 eax, eax
  00322	0f 8e b4 00 00
	00		 jle	 $LN598@Init
$LL605@Init:

; 84   : 	{
; 85   : 		if ( i== 0 )

  00328	39 9d 74 fd ff
	ff		 cmp	 DWORD PTR _i$506958[ebp], ebx
  0032e	75 19		 jne	 SHORT $LN602@Init

; 86   : 			m_iValue1 =atoi( kString[i].c_str() );

  00330	8b 85 5c fd ff
	ff		 mov	 eax, DWORD PTR _kString$[ebp]
  00336	83 78 14 10	 cmp	 DWORD PTR [eax+20], 16	; 00000010H
  0033a	72 02		 jb	 SHORT $LN1116@Init
  0033c	8b 00		 mov	 eax, DWORD PTR [eax]
$LN1116@Init:
  0033e	50		 push	 eax
  0033f	ff 15 00 00 00
	00		 call	 DWORD PTR __imp__atoi
  00345	59		 pop	 ecx
  00346	89 47 10	 mov	 DWORD PTR [edi+16], eax
$LN602@Init:

; 87   : 		if ( i== 1 )

  00349	83 bd 74 fd ff
	ff 01		 cmp	 DWORD PTR _i$506958[ebp], 1
  00350	75 1c		 jne	 SHORT $LN601@Init

; 88   : 			m_iValue2 =atoi( kString[i].c_str() );

  00352	8b 85 5c fd ff
	ff		 mov	 eax, DWORD PTR _kString$[ebp]
  00358	83 c0 1c	 add	 eax, 28			; 0000001cH
  0035b	83 78 14 10	 cmp	 DWORD PTR [eax+20], 16	; 00000010H
  0035f	72 02		 jb	 SHORT $LN1124@Init
  00361	8b 00		 mov	 eax, DWORD PTR [eax]
$LN1124@Init:
  00363	50		 push	 eax
  00364	ff 15 00 00 00
	00		 call	 DWORD PTR __imp__atoi
  0036a	59		 pop	 ecx
  0036b	89 47 14	 mov	 DWORD PTR [edi+20], eax
$LN601@Init:

; 89   : 		if ( i== 2 )

  0036e	83 bd 74 fd ff
	ff 02		 cmp	 DWORD PTR _i$506958[ebp], 2
  00375	75 1c		 jne	 SHORT $LN600@Init

; 90   : 			m_iValue3 =atoi( kString[i].c_str() );

  00377	8b 85 5c fd ff
	ff		 mov	 eax, DWORD PTR _kString$[ebp]
  0037d	83 c0 38	 add	 eax, 56			; 00000038H
  00380	83 78 14 10	 cmp	 DWORD PTR [eax+20], 16	; 00000010H
  00384	72 02		 jb	 SHORT $LN1132@Init
  00386	8b 00		 mov	 eax, DWORD PTR [eax]
$LN1132@Init:
  00388	50		 push	 eax
  00389	ff 15 00 00 00
	00		 call	 DWORD PTR __imp__atoi
  0038f	59		 pop	 ecx
  00390	89 47 18	 mov	 DWORD PTR [edi+24], eax
$LN600@Init:

; 91   : 		if ( i== 3 )

  00393	83 bd 74 fd ff
	ff 03		 cmp	 DWORD PTR _i$506958[ebp], 3
  0039a	75 1c		 jne	 SHORT $LN604@Init

; 92   : 			m_iValue4 =atoi( kString[i].c_str() );

  0039c	8b 85 5c fd ff
	ff		 mov	 eax, DWORD PTR _kString$[ebp]
  003a2	83 c0 54	 add	 eax, 84			; 00000054H
  003a5	83 78 14 10	 cmp	 DWORD PTR [eax+20], 16	; 00000010H
  003a9	72 02		 jb	 SHORT $LN1140@Init
  003ab	8b 00		 mov	 eax, DWORD PTR [eax]
$LN1140@Init:
  003ad	50		 push	 eax
  003ae	ff 15 00 00 00
	00		 call	 DWORD PTR __imp__atoi
  003b4	59		 pop	 ecx
  003b5	89 47 1c	 mov	 DWORD PTR [edi+28], eax
$LN604@Init:

; 83   : 	for ( int i=0 ; i<(int)kString.size() ; ++i )

  003b8	8b 85 60 fd ff
	ff		 mov	 eax, DWORD PTR _kString$[ebp+4]
  003be	2b 85 5c fd ff
	ff		 sub	 eax, DWORD PTR _kString$[ebp]
  003c4	6a 1c		 push	 28			; 0000001cH
  003c6	99		 cdq
  003c7	59		 pop	 ecx
  003c8	f7 f9		 idiv	 ecx
  003ca	ff 85 74 fd ff
	ff		 inc	 DWORD PTR _i$506958[ebp]
  003d0	39 85 74 fd ff
	ff		 cmp	 DWORD PTR _i$506958[ebp], eax
  003d6	0f 8c 4c ff ff
	ff		 jl	 $LL605@Init
$LN598@Init:

; 93   : 	}
; 94   : 
; 95   : 	// 
; 96   : 	sprintf_s_e( szBuf, "%s_present", szINIKeyName );

  003dc	6a 02		 push	 2
  003de	c7 45 dc c8 9f
	b4 9a		 mov	 DWORD PTR ___encStr$506970[ebp], -1699438648 ; 9ab49fc8H
  003e5	c7 45 e0 9f 89
	98 8f		 mov	 DWORD PTR ___encStr$506970[ebp+4], -1885828705 ; 8f98899fH
  003ec	66 c7 45 e4 83
	98		 mov	 WORD PTR ___encStr$506970[ebp+8], 39043 ; 00009883H
  003f2	8d 45 dc	 lea	 eax, DWORD PTR ___encStr$506970[ebp]
  003f5	88 5d e6	 mov	 BYTE PTR ___encStr$506970[ebp+10], bl
  003f8	59		 pop	 ecx
$LL1147@Init:
  003f9	81 30 ed ec eb
	ea		 xor	 DWORD PTR [eax], -353637139 ; eaebecedH
  003ff	83 c0 04	 add	 eax, 4
  00402	49		 dec	 ecx
  00403	75 f4		 jne	 SHORT $LL1147@Init
  00405	6a 08		 push	 8
  00407	58		 pop	 eax
$LL1144@Init:
  00408	8b c8		 mov	 ecx, eax
  0040a	81 e1 03 00 00
	80		 and	 ecx, -2147483645	; 80000003H
  00410	79 05		 jns	 SHORT $LN1247@Init
  00412	49		 dec	 ecx
  00413	83 c9 fc	 or	 ecx, -4			; fffffffcH
  00416	41		 inc	 ecx
$LN1247@Init:
  00417	b2 ed		 mov	 dl, -19			; ffffffedH
  00419	2a d1		 sub	 dl, cl
  0041b	30 54 05 dc	 xor	 BYTE PTR ___encStr$506970[ebp+eax], dl
  0041f	40		 inc	 eax
  00420	83 f8 0a	 cmp	 eax, 10			; 0000000aH
  00423	7c e3		 jl	 SHORT $LL1144@Init
  00425	ff b5 70 fd ff
	ff		 push	 DWORD PTR _szINIKeyName$GSCopy$[ebp]
  0042b	8d 45 dc	 lea	 eax, DWORD PTR ___encStr$506970[ebp]
  0042e	50		 push	 eax
  0042f	8d 85 b8 fe ff
	ff		 lea	 eax, DWORD PTR _szBuf$[ebp]
  00435	50		 push	 eax
  00436	e8 00 00 00 00	 call	 ??$sprintf_s@$0BAE@@@YAHAAY0BAE@DPBDZZ ; sprintf_s<260>

; 97   : 	m_iPresentNum = kLoader.LoadInt( szBuf, 0 );

  0043b	8b 8d 78 fd ff
	ff		 mov	 ecx, DWORD PTR _kLoader$GSCopy$[ebp]
  00441	83 c4 0c	 add	 esp, 12			; 0000000cH
  00444	53		 push	 ebx
  00445	8d 85 b8 fe ff
	ff		 lea	 eax, DWORD PTR _szBuf$[ebp]
  0044b	50		 push	 eax
  0044c	ff d6		 call	 esi
  0044e	6a 04		 push	 4
  00450	89 47 38	 mov	 DWORD PTR [edi+56], eax

; 98   : 
; 99   : 	//frame type
; 100  : 	sprintf_s_e( szBuf, "%s_back_frame_type", szINIKeyName );

  00453	c7 45 c0 c8 9f
	b4 88		 mov	 DWORD PTR ___encStr$507122[ebp], -2001428536 ; 88b49fc8H
  0045a	c7 45 c4 8c 8f
	80 b5		 mov	 DWORD PTR ___encStr$507122[ebp+4], -1249865844 ; b5808f8cH
  00461	c7 45 c8 8b 9e
	8a 87		 mov	 DWORD PTR ___encStr$507122[ebp+8], -2020958581 ; 878a9e8bH
  00468	c7 45 cc 88 b3
	9f 93		 mov	 DWORD PTR ___encStr$507122[ebp+12], -1818250360 ; 939fb388H
  0046f	66 c7 45 d0 9d
	89		 mov	 WORD PTR ___encStr$507122[ebp+16], 35229 ; 0000899dH
  00475	8d 45 c0	 lea	 eax, DWORD PTR ___encStr$507122[ebp]
  00478	88 5d d2	 mov	 BYTE PTR ___encStr$507122[ebp+18], bl
  0047b	59		 pop	 ecx
$LL1155@Init:
  0047c	81 30 ed ec eb
	ea		 xor	 DWORD PTR [eax], -353637139 ; eaebecedH
  00482	83 c0 04	 add	 eax, 4
  00485	49		 dec	 ecx
  00486	75 f4		 jne	 SHORT $LL1155@Init
  00488	6a 10		 push	 16			; 00000010H
  0048a	58		 pop	 eax
$LL1152@Init:
  0048b	8b c8		 mov	 ecx, eax
  0048d	81 e1 03 00 00
	80		 and	 ecx, -2147483645	; 80000003H
  00493	79 05		 jns	 SHORT $LN1248@Init
  00495	49		 dec	 ecx
  00496	83 c9 fc	 or	 ecx, -4			; fffffffcH
  00499	41		 inc	 ecx
$LN1248@Init:
  0049a	b2 ed		 mov	 dl, -19			; ffffffedH
  0049c	2a d1		 sub	 dl, cl
  0049e	30 54 05 c0	 xor	 BYTE PTR ___encStr$507122[ebp+eax], dl
  004a2	40		 inc	 eax
  004a3	83 f8 12	 cmp	 eax, 18			; 00000012H
  004a6	7c e3		 jl	 SHORT $LL1152@Init
  004a8	ff b5 70 fd ff
	ff		 push	 DWORD PTR _szINIKeyName$GSCopy$[ebp]
  004ae	8d 45 c0	 lea	 eax, DWORD PTR ___encStr$507122[ebp]
  004b1	50		 push	 eax
  004b2	8d 85 b8 fe ff
	ff		 lea	 eax, DWORD PTR _szBuf$[ebp]
  004b8	50		 push	 eax
  004b9	e8 00 00 00 00	 call	 ??$sprintf_s@$0BAE@@@YAHAAY0BAE@DPBDZZ ; sprintf_s<260>

; 101  : 	m_BackFrameType = (MissionBackFrameType)kLoader.LoadInt( szBuf, MBFT_NORMAL );

  004be	8b 8d 78 fd ff
	ff		 mov	 ecx, DWORD PTR _kLoader$GSCopy$[ebp]
  004c4	83 c4 0c	 add	 esp, 12			; 0000000cH
  004c7	53		 push	 ebx
  004c8	8d 85 b8 fe ff
	ff		 lea	 eax, DWORD PTR _szBuf$[ebp]
  004ce	50		 push	 eax
  004cf	ff d6		 call	 esi
  004d1	6a 04		 push	 4
  004d3	89 47 3c	 mov	 DWORD PTR [edi+60], eax

; 102  : 
; 103  : 	//Attain Show Style 
; 104  : 	sprintf_s_e( szBuf, "%s_attin_show_style", szINIKeyName );

  004d6	c7 45 bc c8 9f
	b4 8b		 mov	 DWORD PTR ___encStr$507275[ebp], -1951096888 ; 8bb49fc8H
  004dd	c7 45 c0 99 98
	82 84		 mov	 DWORD PTR ___encStr$507275[ebp+4], -2071816039 ; 84829899H
  004e4	c7 45 c4 b2 9f
	83 85		 mov	 DWORD PTR ___encStr$507275[ebp+8], -2054971470 ; 85839fb2H
  004eb	c7 45 c8 9a b3
	98 9e		 mov	 DWORD PTR ___encStr$507275[ebp+12], -1634159718 ; 9e98b39aH
  004f2	8d 45 bc	 lea	 eax, DWORD PTR ___encStr$507275[ebp]
  004f5	c7 45 cc 94 80
	8e 00		 mov	 DWORD PTR ___encStr$507275[ebp+16], 9339028 ; 008e8094H
  004fc	59		 pop	 ecx
$LL1163@Init:
  004fd	81 30 ed ec eb
	ea		 xor	 DWORD PTR [eax], -353637139 ; eaebecedH
  00503	83 c0 04	 add	 eax, 4
  00506	49		 dec	 ecx
  00507	75 f4		 jne	 SHORT $LL1163@Init
  00509	6a 10		 push	 16			; 00000010H
  0050b	58		 pop	 eax
$LL1160@Init:
  0050c	8b c8		 mov	 ecx, eax
  0050e	81 e1 03 00 00
	80		 and	 ecx, -2147483645	; 80000003H
  00514	79 05		 jns	 SHORT $LN1249@Init
  00516	49		 dec	 ecx
  00517	83 c9 fc	 or	 ecx, -4			; fffffffcH
  0051a	41		 inc	 ecx
$LN1249@Init:
  0051b	b2 ed		 mov	 dl, -19			; ffffffedH
  0051d	2a d1		 sub	 dl, cl
  0051f	30 54 05 bc	 xor	 BYTE PTR ___encStr$507275[ebp+eax], dl
  00523	40		 inc	 eax
  00524	83 f8 13	 cmp	 eax, 19			; 00000013H
  00527	7c e3		 jl	 SHORT $LL1160@Init
  00529	ff b5 70 fd ff
	ff		 push	 DWORD PTR _szINIKeyName$GSCopy$[ebp]
  0052f	8d 45 bc	 lea	 eax, DWORD PTR ___encStr$507275[ebp]
  00532	50		 push	 eax
  00533	8d 85 b8 fe ff
	ff		 lea	 eax, DWORD PTR _szBuf$[ebp]
  00539	50		 push	 eax
  0053a	e8 00 00 00 00	 call	 ??$sprintf_s@$0BAE@@@YAHAAY0BAE@DPBDZZ ; sprintf_s<260>

; 105  : 	m_AttainShowStyle = (MissionAttainShowStyle)kLoader.LoadInt( szBuf, MASS_VALUE );

  0053f	8b 8d 78 fd ff
	ff		 mov	 ecx, DWORD PTR _kLoader$GSCopy$[ebp]
  00545	83 c4 0c	 add	 esp, 12			; 0000000cH
  00548	53		 push	 ebx
  00549	8d 85 b8 fe ff
	ff		 lea	 eax, DWORD PTR _szBuf$[ebp]
  0054f	50		 push	 eax
  00550	ff d6		 call	 esi
  00552	89 47 40	 mov	 DWORD PTR [edi+64], eax

; 106  : 
; 107  : 	//Reward
; 108  : 	for ( int iRewardCnt = 1 ; iRewardCnt<MAX_PRESENT_TEXT_LINE+1 ; ++iRewardCnt )

  00555	c7 85 74 fd ff
	ff 01 00 00 00	 mov	 DWORD PTR _iRewardCnt$507425[ebp], 1
$LN301@Init:

; 109  : 	{
; 110  : 		ioHashString szRewardText;

  0055f	8d 4d c4	 lea	 ecx, DWORD PTR _szRewardText$507429[ebp]
  00562	ff 15 00 00 00
	00		 call	 DWORD PTR __imp_??0ioHashString@@QAE@XZ

; 111  : 		szRewardText.Clear();

  00568	8d 4d c4	 lea	 ecx, DWORD PTR _szRewardText$507429[ebp]
  0056b	c6 45 fc 05	 mov	 BYTE PTR __$EHRec$[ebp+8], 5
  0056f	ff 15 00 00 00
	00		 call	 DWORD PTR __imp_?Clear@ioHashString@@QAEXXZ

; 112  : 		ZeroMemory( szValue, sizeof(szValue) );

  00575	be 04 01 00 00	 mov	 esi, 260		; 00000104H
  0057a	56		 push	 esi
  0057b	8d 85 b4 fd ff
	ff		 lea	 eax, DWORD PTR _szValue$[ebp]
  00581	53		 push	 ebx
  00582	50		 push	 eax
  00583	e8 00 00 00 00	 call	 _memset
  00588	83 c4 0c	 add	 esp, 12			; 0000000cH
  0058b	6a 04		 push	 4

; 113  : 		sprintf_s_e( szBuf, "%s_present_text%d", szINIKeyName, iRewardCnt );

  0058d	c7 45 d8 c8 9f
	b4 9a		 mov	 DWORD PTR ___encStr$507433[ebp], -1699438648 ; 9ab49fc8H
  00594	c7 45 dc 9f 89
	98 8f		 mov	 DWORD PTR ___encStr$507433[ebp+4], -1885828705 ; 8f98899fH
  0059b	c7 45 e0 83 98
	b4 9e		 mov	 DWORD PTR ___encStr$507433[ebp+8], -1632331645 ; 9eb49883H
  005a2	c7 45 e4 88 94
	9f cf		 mov	 DWORD PTR ___encStr$507433[ebp+12], -811625336 ; cf9f9488H
  005a9	8d 45 d8	 lea	 eax, DWORD PTR ___encStr$507433[ebp]
  005ac	66 c7 45 e8 89
	00		 mov	 WORD PTR ___encStr$507433[ebp+16], 137 ; 00000089H
  005b2	59		 pop	 ecx
$LL1171@Init:
  005b3	81 30 ed ec eb
	ea		 xor	 DWORD PTR [eax], -353637139 ; eaebecedH
  005b9	83 c0 04	 add	 eax, 4
  005bc	49		 dec	 ecx
  005bd	75 f4		 jne	 SHORT $LL1171@Init
  005bf	ff b5 74 fd ff
	ff		 push	 DWORD PTR _iRewardCnt$507425[ebp]
  005c5	80 75 e8 ed	 xor	 BYTE PTR ___encStr$507433[ebp+16], -19 ; ffffffedH
  005c9	ff b5 70 fd ff
	ff		 push	 DWORD PTR _szINIKeyName$GSCopy$[ebp]
  005cf	8d 45 d8	 lea	 eax, DWORD PTR ___encStr$507433[ebp]
  005d2	50		 push	 eax
  005d3	8d 85 b8 fe ff
	ff		 lea	 eax, DWORD PTR _szBuf$[ebp]
  005d9	50		 push	 eax
  005da	e8 00 00 00 00	 call	 ??$sprintf_s@$0BAE@@@YAHAAY0BAE@DPBDZZ ; sprintf_s<260>

; 114  : 		kLoader.LoadString( szBuf, "", szValue, MAX_PATH );

  005df	8b 8d 78 fd ff
	ff		 mov	 ecx, DWORD PTR _kLoader$GSCopy$[ebp]
  005e5	83 c4 10	 add	 esp, 16			; 00000010H
  005e8	56		 push	 esi
  005e9	8d 85 b4 fd ff
	ff		 lea	 eax, DWORD PTR _szValue$[ebp]
  005ef	50		 push	 eax
  005f0	bf 00 00 00 00	 mov	 edi, OFFSET ??_C@_00CNPNBAHC@?$AA@
  005f5	57		 push	 edi
  005f6	8d 85 b8 fe ff
	ff		 lea	 eax, DWORD PTR _szBuf$[ebp]
  005fc	50		 push	 eax
  005fd	ff 15 00 00 00
	00		 call	 DWORD PTR __imp_?LoadStringA@ioINILoader@@QAEXPBD0PADH@Z

; 115  : 		if( strcmp( szValue, "" ) == 0) 

  00603	33 c9		 xor	 ecx, ecx
  00605	41		 inc	 ecx
  00606	8d b5 b4 fd ff
	ff		 lea	 esi, DWORD PTR _szValue$[ebp]
  0060c	33 c0		 xor	 eax, eax
  0060e	f3 a6		 repe cmpsb

; 117  : 		szRewardText = szValue;

  00610	8d 4d c4	 lea	 ecx, DWORD PTR _szRewardText$507429[ebp]
  00613	74 41		 je	 SHORT $LN1216@Init
  00615	8d 85 b4 fd ff
	ff		 lea	 eax, DWORD PTR _szValue$[ebp]
  0061b	50		 push	 eax
  0061c	ff 15 00 00 00
	00		 call	 DWORD PTR __imp_??4ioHashString@@QAEAAV0@PBD@Z

; 118  : 		m_szRewardTextVec.push_back( szRewardText );

  00622	8b 8d 6c fd ff
	ff		 mov	 ecx, DWORD PTR _this$GSCopy$[ebp]
  00628	8d 45 c4	 lea	 eax, DWORD PTR _szRewardText$507429[ebp]
  0062b	50		 push	 eax
  0062c	83 c1 44	 add	 ecx, 68			; 00000044H
  0062f	e8 00 00 00 00	 call	 ?push_back@?$vector@VioHashString@@V?$allocator@VioHashString@@@std@@@std@@QAEXABVioHashString@@@Z ; std::vector<ioHashString,std::allocator<ioHashString> >::push_back

; 119  : 	}

  00634	8d 4d c4	 lea	 ecx, DWORD PTR _szRewardText$507429[ebp]
  00637	c6 45 fc 04	 mov	 BYTE PTR __$EHRec$[ebp+8], 4
  0063b	ff 15 00 00 00
	00		 call	 DWORD PTR __imp_??1ioHashString@@QAE@XZ
  00641	ff 85 74 fd ff
	ff		 inc	 DWORD PTR _iRewardCnt$507425[ebp]
  00647	83 bd 74 fd ff
	ff 05		 cmp	 DWORD PTR _iRewardCnt$507425[ebp], 5
  0064e	0f 8c 0b ff ff
	ff		 jl	 $LN301@Init

; 115  : 		if( strcmp( szValue, "" ) == 0) 

  00654	eb 0a		 jmp	 SHORT $LN198@Init
$LN1216@Init:

; 116  : 			break;

  00656	c6 45 fc 04	 mov	 BYTE PTR __$EHRec$[ebp+8], 4
  0065a	ff 15 00 00 00
	00		 call	 DWORD PTR __imp_??1ioHashString@@QAE@XZ
$LN198@Init:

; 120  : 
; 121  : 	sprintf_s_e( szBuf, "%s_show_tooltip_reward", szINIKeyName );

  00660	6a 05		 push	 5
  00662	c7 45 bc c8 9f
	b4 99		 mov	 DWORD PTR ___encStr$507586[ebp], -1716215864 ; 99b49fc8H
  00669	c7 45 c0 85 83
	9c b5		 mov	 DWORD PTR ___encStr$507586[ebp+4], -1248033915 ; b59c8385H
  00670	c7 45 c4 99 83
	84 86		 mov	 DWORD PTR ___encStr$507586[ebp+8], -2038135911 ; 86848399H
  00677	c7 45 c8 99 85
	9b b5		 mov	 DWORD PTR ___encStr$507586[ebp+12], -1248098919 ; b59b8599H
  0067e	c7 45 cc 9f 89
	9c 8b		 mov	 DWORD PTR ___encStr$507586[ebp+16], -1952675425 ; 8b9c899fH
  00685	66 c7 45 d0 9f
	88		 mov	 WORD PTR ___encStr$507586[ebp+20], 34975 ; 0000889fH
  0068b	8d 45 bc	 lea	 eax, DWORD PTR ___encStr$507586[ebp]
  0068e	88 5d d2	 mov	 BYTE PTR ___encStr$507586[ebp+22], bl
  00691	59		 pop	 ecx
$LL1179@Init:
  00692	81 30 ed ec eb
	ea		 xor	 DWORD PTR [eax], -353637139 ; eaebecedH
  00698	83 c0 04	 add	 eax, 4
  0069b	49		 dec	 ecx
  0069c	75 f4		 jne	 SHORT $LL1179@Init
  0069e	6a 14		 push	 20			; 00000014H
  006a0	5e		 pop	 esi
$LL1176@Init:
  006a1	8b c6		 mov	 eax, esi
  006a3	25 03 00 00 80	 and	 eax, -2147483645	; 80000003H
  006a8	79 05		 jns	 SHORT $LN1250@Init
  006aa	48		 dec	 eax
  006ab	83 c8 fc	 or	 eax, -4			; fffffffcH
  006ae	40		 inc	 eax
$LN1250@Init:
  006af	b1 ed		 mov	 cl, -19			; ffffffedH
  006b1	2a c8		 sub	 cl, al
  006b3	30 4c 35 bc	 xor	 BYTE PTR ___encStr$507586[ebp+esi], cl
  006b7	46		 inc	 esi
  006b8	83 fe 16	 cmp	 esi, 22			; 00000016H
  006bb	7c e4		 jl	 SHORT $LL1176@Init
  006bd	ff b5 70 fd ff
	ff		 push	 DWORD PTR _szINIKeyName$GSCopy$[ebp]
  006c3	8d 45 bc	 lea	 eax, DWORD PTR ___encStr$507586[ebp]
  006c6	50		 push	 eax
  006c7	8d 85 b8 fe ff
	ff		 lea	 eax, DWORD PTR _szBuf$[ebp]
  006cd	50		 push	 eax
  006ce	e8 00 00 00 00	 call	 ??$sprintf_s@$0BAE@@@YAHAAY0BAE@DPBDZZ ; sprintf_s<260>

; 122  : 	m_bShowToolTipReward = kLoader.LoadBool( szBuf, false );

  006d3	8b 8d 78 fd ff
	ff		 mov	 ecx, DWORD PTR _kLoader$GSCopy$[ebp]
  006d9	8b 35 00 00 00
	00		 mov	 esi, DWORD PTR __imp_?LoadBool@ioINILoader@@QAE_NPBD_N@Z
  006df	83 c4 0c	 add	 esp, 12			; 0000000cH
  006e2	53		 push	 ebx
  006e3	8d 85 b8 fe ff
	ff		 lea	 eax, DWORD PTR _szBuf$[ebp]
  006e9	50		 push	 eax
  006ea	ff d6		 call	 esi
  006ec	8b bd 6c fd ff
	ff		 mov	 edi, DWORD PTR _this$GSCopy$[ebp]
  006f2	6a 02		 push	 2
  006f4	88 47 68	 mov	 BYTE PTR [edi+104], al

; 123  : 
; 124  : 	m_byClearMissionType = MIS_NONE;

  006f7	88 5f 30	 mov	 BYTE PTR [edi+48], bl

; 125  : 
; 126  : 	sprintf_s_e( szBuf, "%s_costume", szINIKeyName );

  006fa	c7 45 c8 c8 9f
	b4 89		 mov	 DWORD PTR ___encStr$507738[ebp], -1984651320 ; 89b49fc8H
  00701	c7 45 cc 82 9f
	9f 9f		 mov	 DWORD PTR ___encStr$507738[ebp+4], -1616928894 ; 9f9f9f82H
  00708	66 c7 45 d0 80
	89		 mov	 WORD PTR ___encStr$507738[ebp+8], 35200 ; 00008980H
  0070e	8d 45 c8	 lea	 eax, DWORD PTR ___encStr$507738[ebp]
  00711	88 5d d2	 mov	 BYTE PTR ___encStr$507738[ebp+10], bl
  00714	59		 pop	 ecx
$LL1187@Init:
  00715	81 30 ed ec eb
	ea		 xor	 DWORD PTR [eax], -353637139 ; eaebecedH
  0071b	83 c0 04	 add	 eax, 4
  0071e	49		 dec	 ecx
  0071f	75 f4		 jne	 SHORT $LL1187@Init
  00721	6a 08		 push	 8
  00723	58		 pop	 eax
$LL1184@Init:
  00724	8b c8		 mov	 ecx, eax
  00726	81 e1 03 00 00
	80		 and	 ecx, -2147483645	; 80000003H
  0072c	79 05		 jns	 SHORT $LN1251@Init
  0072e	49		 dec	 ecx
  0072f	83 c9 fc	 or	 ecx, -4			; fffffffcH
  00732	41		 inc	 ecx
$LN1251@Init:
  00733	b2 ed		 mov	 dl, -19			; ffffffedH
  00735	2a d1		 sub	 dl, cl
  00737	30 54 05 c8	 xor	 BYTE PTR ___encStr$507738[ebp+eax], dl
  0073b	40		 inc	 eax
  0073c	83 f8 0a	 cmp	 eax, 10			; 0000000aH
  0073f	7c e3		 jl	 SHORT $LL1184@Init
  00741	ff b5 70 fd ff
	ff		 push	 DWORD PTR _szINIKeyName$GSCopy$[ebp]
  00747	8d 45 c8	 lea	 eax, DWORD PTR ___encStr$507738[ebp]
  0074a	50		 push	 eax
  0074b	8d 85 b8 fe ff
	ff		 lea	 eax, DWORD PTR _szBuf$[ebp]
  00751	50		 push	 eax
  00752	e8 00 00 00 00	 call	 ??$sprintf_s@$0BAE@@@YAHAAY0BAE@DPBDZZ ; sprintf_s<260>

; 127  : 	m_bIsCostume = kLoader.LoadBool( szBuf, false );

  00757	8b 8d 78 fd ff
	ff		 mov	 ecx, DWORD PTR _kLoader$GSCopy$[ebp]
  0075d	83 c4 0c	 add	 esp, 12			; 0000000cH
  00760	53		 push	 ebx
  00761	8d 85 b8 fe ff
	ff		 lea	 eax, DWORD PTR _szBuf$[ebp]
  00767	50		 push	 eax
  00768	ff d6		 call	 esi

; 128  : }

  0076a	83 4d fc ff	 or	 DWORD PTR __$EHRec$[ebp+8], -1
  0076e	8d 8d 5c fd ff
	ff		 lea	 ecx, DWORD PTR _kString$[ebp]
  00774	88 47 69	 mov	 BYTE PTR [edi+105], al
  00777	e8 00 00 00 00	 call	 ?_Tidy@?$vector@V?$basic_string@DU?$char_traits@D@std@@V?$allocator@D@2@@std@@V?$allocator@V?$basic_string@DU?$char_traits@D@std@@V?$allocator@D@2@@std@@@2@@std@@IAEXXZ ; std::vector<std::basic_string<char,std::char_traits<char>,std::allocator<char> >,std::allocator<std::basic_string<char,std::char_traits<char>,std::allocator<char> > > >::_Tidy
  0077c	e8 00 00 00 00	 call	 __EH_epilog3_GS
  00781	c2 08 00	 ret	 8
_TEXT	ENDS
;	COMDAT text$x
text$x	SEGMENT
__unwindfunclet$?Init@ioMission@@UAEXPBDAAVioINILoader@@@Z$0:
  00000	8d 8d 7c fd ff
	ff		 lea	 ecx, DWORD PTR $T506955[ebp]
  00006	e9 00 00 00 00	 jmp	 ??1?$basic_string@DU?$char_traits@D@std@@V?$allocator@D@2@@std@@QAE@XZ ; std::basic_string<char,std::char_traits<char>,std::allocator<char> >::~basic_string<char,std::char_traits<char>,std::allocator<char> >
__unwindfunclet$?Init@ioMission@@UAEXPBDAAVioINILoader@@@Z$1:
  0000b	8d 8d 98 fd ff
	ff		 lea	 ecx, DWORD PTR $T506956[ebp]
  00011	e9 00 00 00 00	 jmp	 ??1?$basic_string@DU?$char_traits@D@std@@V?$allocator@D@2@@std@@QAE@XZ ; std::basic_string<char,std::char_traits<char>,std::allocator<char> >::~basic_string<char,std::char_traits<char>,std::allocator<char> >
__unwindfunclet$?Init@ioMission@@UAEXPBDAAVioINILoader@@@Z$2:
  00016	8d 8d 5c fd ff
	ff		 lea	 ecx, DWORD PTR _kString$[ebp]
  0001c	e9 00 00 00 00	 jmp	 ??1?$vector@V?$basic_string@DU?$char_traits@D@std@@V?$allocator@D@2@@std@@V?$allocator@V?$basic_string@DU?$char_traits@D@std@@V?$allocator@D@2@@std@@@2@@std@@QAE@XZ ; std::vector<std::basic_string<char,std::char_traits<char>,std::allocator<char> >,std::allocator<std::basic_string<char,std::char_traits<char>,std::allocator<char> > > >::~vector<std::basic_string<char,std::char_traits<char>,std::allocator<char> >,std::allocator<std::basic_string<char,std::char_traits<char>,std::allocator<char> > > >
__unwindfunclet$?Init@ioMission@@UAEXPBDAAVioINILoader@@@Z$3:
  00021	8d 4d c4	 lea	 ecx, DWORD PTR _szRewardText$507429[ebp]
  00024	ff 25 00 00 00
	00		 jmp	 DWORD PTR __imp_??1ioHashString@@QAE@XZ
__ehhandler$?Init@ioMission@@UAEXPBDAAVioINILoader@@@Z:
  0002a	8b 54 24 08	 mov	 edx, DWORD PTR [esp+8]
  0002e	8d 42 0c	 lea	 eax, DWORD PTR [edx+12]
  00031	8b 8a 58 fd ff
	ff		 mov	 ecx, DWORD PTR [edx-680]
  00037	33 c8		 xor	 ecx, eax
  00039	e8 00 00 00 00	 call	 @__security_check_cookie@4
  0003e	8b 4a fc	 mov	 ecx, DWORD PTR [edx-4]
  00041	33 c8		 xor	 ecx, eax
  00043	e8 00 00 00 00	 call	 @__security_check_cookie@4
  00048	b8 00 00 00 00	 mov	 eax, OFFSET __ehfuncinfo$?Init@ioMission@@UAEXPBDAAVioINILoader@@@Z
  0004d	e9 00 00 00 00	 jmp	 ___CxxFrameHandler3
text$x	ENDS
?Init@ioMission@@UAEXPBDAAVioINILoader@@@Z ENDP		; ioMission::Init
END
