; Listing generated by Microsoft (R) Optimizing Compiler Version 16.00.30319.01 

	TITLE	D:\Lost Saga For Developer\Youtube\Tutorial\Source\src\LSClient\ioMissileWeapon2.cpp
	.686P
	.XMM
	include listing.inc
	.model	flat

INCLUDELIB MSVCRT
INCLUDELIB OLDNAMES

PUBLIC	?_EEM_DS@?$deque@UD3DXVECTOR3@@V?$allocator@UD3DXVECTOR3@@@std@@@std@@2HB ; std::deque<D3DXVECTOR3,std::allocator<D3DXVECTOR3> >::_EEM_DS
PUBLIC	?_EEM_DS@?$deque@MV?$allocator@M@std@@@std@@2HB	; std::deque<float,std::allocator<float> >::_EEM_DS
PUBLIC	?_VBITS@?$vector@_NV?$allocator@_N@std@@@std@@2HB ; std::vector<bool,std::allocator<bool> >::_VBITS
PUBLIC	?m_ActionStopType@ioMissileWeapon2@@2W4ActionStopType@@A ; ioMissileWeapon2::m_ActionStopType
PUBLIC	?m_DieActionStopType@ioMissileWeapon2@@2W4ActionStopType@@A ; ioMissileWeapon2::m_DieActionStopType
_BSS	SEGMENT
?m_ActionStopType@ioMissileWeapon2@@2W4ActionStopType@@A DD 01H DUP (?) ; ioMissileWeapon2::m_ActionStopType
?m_DieActionStopType@ioMissileWeapon2@@2W4ActionStopType@@A DD 01H DUP (?) ; ioMissileWeapon2::m_DieActionStopType
_BSS	ENDS
;	COMDAT ?_VBITS@?$vector@_NV?$allocator@_N@std@@@std@@2HB
CONST	SEGMENT
?_VBITS@?$vector@_NV?$allocator@_N@std@@@std@@2HB DD 020H ; std::vector<bool,std::allocator<bool> >::_VBITS
CONST	ENDS
;	COMDAT ?_EEM_DS@?$deque@MV?$allocator@M@std@@@std@@2HB
CONST	SEGMENT
?_EEM_DS@?$deque@MV?$allocator@M@std@@@std@@2HB DD 04H	; std::deque<float,std::allocator<float> >::_EEM_DS
CONST	ENDS
;	COMDAT ?_EEM_DS@?$deque@UD3DXVECTOR3@@V?$allocator@UD3DXVECTOR3@@@std@@@std@@2HB
CONST	SEGMENT
?_EEM_DS@?$deque@UD3DXVECTOR3@@V?$allocator@UD3DXVECTOR3@@@std@@@std@@2HB DD 01H ; std::deque<D3DXVECTOR3,std::allocator<D3DXVECTOR3> >::_EEM_DS
CONST	ENDS
PUBLIC	?return1@@YAIXZ					; return1
; Function compile flags: /Ogsp
; File d:\lost saga for developer\youtube\tutorial\source\src\lsclient\stdafx.h
;	COMDAT ?return1@@YAIXZ
_TEXT	SEGMENT
?return1@@YAIXZ PROC					; return1, COMDAT

; 17   : 	__forceinline unsigned int return1() { __asm mov eax, 1 };

  00000	b8 01 00 00 00	 mov	 eax, 1
  00005	c3		 ret	 0
?return1@@YAIXZ ENDP					; return1
_TEXT	ENDS
PUBLIC	?return1000@@YAIXZ				; return1000
; Function compile flags: /Ogsp
;	COMDAT ?return1000@@YAIXZ
_TEXT	SEGMENT
?return1000@@YAIXZ PROC					; return1000, COMDAT

; 29   : 	__forceinline unsigned int return1000() { __asm mov eax, 1000 };

  00000	b8 e8 03 00 00	 mov	 eax, 1000		; 000003e8H
  00005	c3		 ret	 0
?return1000@@YAIXZ ENDP					; return1000
_TEXT	ENDS
PUBLIC	?GetTargetRot@ioBaseChar@@QBEABUD3DXQUATERNION@@XZ ; ioBaseChar::GetTargetRot
; Function compile flags: /Ogsp
; File d:\lost saga for developer\youtube\tutorial\source\src\lsclient\iobasechar.h
;	COMDAT ?GetTargetRot@ioBaseChar@@QBEABUD3DXQUATERNION@@XZ
_TEXT	SEGMENT
?GetTargetRot@ioBaseChar@@QBEABUD3DXQUATERNION@@XZ PROC	; ioBaseChar::GetTargetRot, COMDAT
; _this$ = ecx

; 2599 : 	inline const D3DXQUATERNION& GetTargetRot() const { return m_qtTargetRot; }

  00000	8d 81 a4 06 00
	00		 lea	 eax, DWORD PTR [ecx+1700]
  00006	c3		 ret	 0
?GetTargetRot@ioBaseChar@@QBEABUD3DXQUATERNION@@XZ ENDP	; ioBaseChar::GetTargetRot
_TEXT	ENDS
PUBLIC	??_7bad_alloc@std@@6B@				; std::bad_alloc::`vftable'
PUBLIC	??0bad_alloc@std@@QAE@PBD@Z			; std::bad_alloc::bad_alloc
PUBLIC	??_R4bad_alloc@std@@6B@				; std::bad_alloc::`RTTI Complete Object Locator'
PUBLIC	??_R0?AVbad_alloc@std@@@8			; std::bad_alloc `RTTI Type Descriptor'
PUBLIC	??_R3bad_alloc@std@@8				; std::bad_alloc::`RTTI Class Hierarchy Descriptor'
PUBLIC	??_R2bad_alloc@std@@8				; std::bad_alloc::`RTTI Base Class Array'
PUBLIC	??_R1A@?0A@EA@bad_alloc@std@@8			; std::bad_alloc::`RTTI Base Class Descriptor at (0,-1,0,64)'
PUBLIC	??_R1A@?0A@EA@exception@std@@8			; std::exception::`RTTI Base Class Descriptor at (0,-1,0,64)'
PUBLIC	??_R0?AVexception@std@@@8			; std::exception `RTTI Type Descriptor'
PUBLIC	??_R3exception@std@@8				; std::exception::`RTTI Class Hierarchy Descriptor'
PUBLIC	??_R2exception@std@@8				; std::exception::`RTTI Base Class Array'
EXTRN	__imp_??0exception@std@@QAE@ABQBD@Z:PROC
EXTRN	??_7type_info@@6B@:QWORD			; type_info::`vftable'
EXTRN	??_Ebad_alloc@std@@UAEPAXI@Z:PROC		; std::bad_alloc::`vector deleting destructor'
EXTRN	?what@exception@std@@UBEPBDXZ:PROC		; std::exception::what
;	COMDAT ??_R2exception@std@@8
; File c:\program files (x86)\microsoft visual studio 10.0\vc\include\exception
rdata$r	SEGMENT
??_R2exception@std@@8 DD FLAT:??_R1A@?0A@EA@exception@std@@8 ; std::exception::`RTTI Base Class Array'
rdata$r	ENDS
;	COMDAT ??_R3exception@std@@8
rdata$r	SEGMENT
??_R3exception@std@@8 DD 00H				; std::exception::`RTTI Class Hierarchy Descriptor'
	DD	00H
	DD	01H
	DD	FLAT:??_R2exception@std@@8
rdata$r	ENDS
;	COMDAT ??_R0?AVexception@std@@@8
_DATA	SEGMENT
??_R0?AVexception@std@@@8 DD FLAT:??_7type_info@@6B@	; std::exception `RTTI Type Descriptor'
	DD	00H
	DB	'.?AVexception@std@@', 00H
_DATA	ENDS
;	COMDAT ??_R1A@?0A@EA@exception@std@@8
rdata$r	SEGMENT
??_R1A@?0A@EA@exception@std@@8 DD FLAT:??_R0?AVexception@std@@@8 ; std::exception::`RTTI Base Class Descriptor at (0,-1,0,64)'
	DD	00H
	DD	00H
	DD	0ffffffffH
	DD	00H
	DD	040H
	DD	FLAT:??_R3exception@std@@8
rdata$r	ENDS
;	COMDAT ??_R1A@?0A@EA@bad_alloc@std@@8
rdata$r	SEGMENT
??_R1A@?0A@EA@bad_alloc@std@@8 DD FLAT:??_R0?AVbad_alloc@std@@@8 ; std::bad_alloc::`RTTI Base Class Descriptor at (0,-1,0,64)'
	DD	01H
	DD	00H
	DD	0ffffffffH
	DD	00H
	DD	040H
	DD	FLAT:??_R3bad_alloc@std@@8
rdata$r	ENDS
;	COMDAT ??_R2bad_alloc@std@@8
rdata$r	SEGMENT
??_R2bad_alloc@std@@8 DD FLAT:??_R1A@?0A@EA@bad_alloc@std@@8 ; std::bad_alloc::`RTTI Base Class Array'
	DD	FLAT:??_R1A@?0A@EA@exception@std@@8
rdata$r	ENDS
;	COMDAT ??_R3bad_alloc@std@@8
rdata$r	SEGMENT
??_R3bad_alloc@std@@8 DD 00H				; std::bad_alloc::`RTTI Class Hierarchy Descriptor'
	DD	00H
	DD	02H
	DD	FLAT:??_R2bad_alloc@std@@8
rdata$r	ENDS
;	COMDAT ??_R0?AVbad_alloc@std@@@8
_DATA	SEGMENT
??_R0?AVbad_alloc@std@@@8 DD FLAT:??_7type_info@@6B@	; std::bad_alloc `RTTI Type Descriptor'
	DD	00H
	DB	'.?AVbad_alloc@std@@', 00H
_DATA	ENDS
;	COMDAT ??_R4bad_alloc@std@@6B@
rdata$r	SEGMENT
??_R4bad_alloc@std@@6B@ DD 00H				; std::bad_alloc::`RTTI Complete Object Locator'
	DD	00H
	DD	00H
	DD	FLAT:??_R0?AVbad_alloc@std@@@8
	DD	FLAT:??_R3bad_alloc@std@@8
rdata$r	ENDS
;	COMDAT ??_7bad_alloc@std@@6B@
CONST	SEGMENT
??_7bad_alloc@std@@6B@ DD FLAT:??_R4bad_alloc@std@@6B@	; std::bad_alloc::`vftable'
	DD	FLAT:??_Ebad_alloc@std@@UAEPAXI@Z
	DD	FLAT:?what@exception@std@@UBEPBDXZ
; Function compile flags: /Ogsp
CONST	ENDS
;	COMDAT ??0bad_alloc@std@@QAE@PBD@Z
_TEXT	SEGMENT
__Message$ = 8						; size = 4
??0bad_alloc@std@@QAE@PBD@Z PROC			; std::bad_alloc::bad_alloc, COMDAT
; _this$ = ecx

; 345  : 		{	// construct from message string

  00000	55		 push	 ebp
  00001	8b ec		 mov	 ebp, esp
  00003	56		 push	 esi
  00004	8d 45 08	 lea	 eax, DWORD PTR __Message$[ebp]
  00007	50		 push	 eax
  00008	8b f1		 mov	 esi, ecx
  0000a	ff 15 00 00 00
	00		 call	 DWORD PTR __imp_??0exception@std@@QAE@ABQBD@Z
  00010	c7 06 00 00 00
	00		 mov	 DWORD PTR [esi], OFFSET ??_7bad_alloc@std@@6B@

; 346  : 		}

  00016	8b c6		 mov	 eax, esi
  00018	5e		 pop	 esi
  00019	5d		 pop	 ebp
  0001a	c2 04 00	 ret	 4
??0bad_alloc@std@@QAE@PBD@Z ENDP			; std::bad_alloc::bad_alloc
_TEXT	ENDS
PUBLIC	??1bad_alloc@std@@UAE@XZ			; std::bad_alloc::~bad_alloc
EXTRN	__imp_??1exception@std@@UAE@XZ:PROC
; Function compile flags: /Ogsp
;	COMDAT ??1bad_alloc@std@@UAE@XZ
_TEXT	SEGMENT
??1bad_alloc@std@@UAE@XZ PROC				; std::bad_alloc::~bad_alloc, COMDAT
; _this$ = ecx

; 354  : 		{	// destroy the object

  00000	c7 01 00 00 00
	00		 mov	 DWORD PTR [ecx], OFFSET ??_7bad_alloc@std@@6B@

; 355  : 		}

  00006	ff 25 00 00 00
	00		 jmp	 DWORD PTR __imp_??1exception@std@@UAE@XZ
??1bad_alloc@std@@UAE@XZ ENDP				; std::bad_alloc::~bad_alloc
_TEXT	ENDS
EXTRN	??3@YAXPAX@Z:PROC				; operator delete
; Function compile flags: /Ogsp
;	COMDAT ??_Gbad_alloc@std@@UAEPAXI@Z
_TEXT	SEGMENT
___flags$ = 8						; size = 4
??_Gbad_alloc@std@@UAEPAXI@Z PROC			; std::bad_alloc::`scalar deleting destructor', COMDAT
; _this$ = ecx
  00000	55		 push	 ebp
  00001	8b ec		 mov	 ebp, esp
  00003	56		 push	 esi
  00004	8b f1		 mov	 esi, ecx
  00006	c7 06 00 00 00
	00		 mov	 DWORD PTR [esi], OFFSET ??_7bad_alloc@std@@6B@
  0000c	ff 15 00 00 00
	00		 call	 DWORD PTR __imp_??1exception@std@@UAE@XZ
  00012	f6 45 08 01	 test	 BYTE PTR ___flags$[ebp], 1
  00016	74 07		 je	 SHORT $LN1@scalar
  00018	56		 push	 esi
  00019	e8 00 00 00 00	 call	 ??3@YAXPAX@Z		; operator delete
  0001e	59		 pop	 ecx
$LN1@scalar:
  0001f	8b c6		 mov	 eax, esi
  00021	5e		 pop	 esi
  00022	5d		 pop	 ebp
  00023	c2 04 00	 ret	 4
??_Gbad_alloc@std@@UAEPAXI@Z ENDP			; std::bad_alloc::`scalar deleting destructor'
_TEXT	ENDS
PUBLIC	??2@YAPAXIPAX@Z					; operator new
; Function compile flags: /Ogsp
; File c:\program files (x86)\microsoft visual studio 10.0\vc\include\new
;	COMDAT ??2@YAPAXIPAX@Z
_TEXT	SEGMENT
___formal$ = 8						; size = 4
__Where$ = 12						; size = 4
??2@YAPAXIPAX@Z PROC					; operator new, COMDAT

; 56   : 	{	// construct array with placement at _Where

  00000	55		 push	 ebp
  00001	8b ec		 mov	 ebp, esp

; 57   : 	return (_Where);

  00003	8b 45 0c	 mov	 eax, DWORD PTR __Where$[ebp]

; 58   : 	}

  00006	5d		 pop	 ebp
  00007	c3		 ret	 0
??2@YAPAXIPAX@Z ENDP					; operator new
_TEXT	ENDS
PUBLIC	??3@YAXPAX0@Z					; operator delete
; Function compile flags: /Ogsp
;	COMDAT ??3@YAXPAX0@Z
_TEXT	SEGMENT
___formal$ = 8						; size = 4
___formal$ = 12						; size = 4
??3@YAXPAX0@Z PROC					; operator delete, COMDAT

; 62   : 	}

  00000	c3		 ret	 0
??3@YAXPAX0@Z ENDP					; operator delete
_TEXT	ENDS
PUBLIC	?_Adopt@_Iterator_base0@std@@QAEXPBX@Z		; std::_Iterator_base0::_Adopt
; Function compile flags: /Ogsp
; File c:\program files (x86)\microsoft visual studio 10.0\vc\include\xutility
;	COMDAT ?_Adopt@_Iterator_base0@std@@QAEXPBX@Z
_TEXT	SEGMENT
___formal$ = 8						; size = 4
?_Adopt@_Iterator_base0@std@@QAEXPBX@Z PROC		; std::_Iterator_base0::_Adopt, COMDAT
; _this$ = ecx

; 49   : 		}

  00000	c2 04 00	 ret	 4
?_Adopt@_Iterator_base0@std@@QAEXPBX@Z ENDP		; std::_Iterator_base0::_Adopt
_TEXT	ENDS
PUBLIC	??0D3DXVECTOR3@@QAE@XZ				; D3DXVECTOR3::D3DXVECTOR3
; Function compile flags: /Ogsp
; File c:\program files (x86)\microsoft directx sdk (june 2010)\include\d3dx9math.h
;	COMDAT ??0D3DXVECTOR3@@QAE@XZ
_TEXT	SEGMENT
??0D3DXVECTOR3@@QAE@XZ PROC				; D3DXVECTOR3::D3DXVECTOR3, COMDAT
; _this$ = ecx

; 165  :     D3DXVECTOR3() {};

  00000	8b c1		 mov	 eax, ecx
  00002	c3		 ret	 0
??0D3DXVECTOR3@@QAE@XZ ENDP				; D3DXVECTOR3::D3DXVECTOR3
_TEXT	ENDS
PUBLIC	??0D3DXQUATERNION@@QAE@XZ			; D3DXQUATERNION::D3DXQUATERNION
; Function compile flags: /Ogsp
;	COMDAT ??0D3DXQUATERNION@@QAE@XZ
_TEXT	SEGMENT
??0D3DXQUATERNION@@QAE@XZ PROC				; D3DXQUATERNION::D3DXQUATERNION, COMDAT
; _this$ = ecx

; 429  :     D3DXQUATERNION() {}

  00000	8b c1		 mov	 eax, ecx
  00002	c3		 ret	 0
??0D3DXQUATERNION@@QAE@XZ ENDP				; D3DXQUATERNION::D3DXQUATERNION
_TEXT	ENDS
PUBLIC	?SetMoveSpeed@ioMissileWeapon2@@UAEXM@Z		; ioMissileWeapon2::SetMoveSpeed
EXTRN	__fltused:DWORD
; Function compile flags: /Ogsp
; File d:\lost saga for developer\youtube\tutorial\source\src\lsclient\iomissileweapon2.cpp
;	COMDAT ?SetMoveSpeed@ioMissileWeapon2@@UAEXM@Z
_TEXT	SEGMENT
_fSpeed$ = 8						; size = 4
?SetMoveSpeed@ioMissileWeapon2@@UAEXM@Z PROC		; ioMissileWeapon2::SetMoveSpeed, COMDAT
; _this$ = ecx

; 162  : {

  00000	55		 push	 ebp
  00001	8b ec		 mov	 ebp, esp

; 163  : 	m_fCurMoveSpeed = fSpeed;

  00003	f3 0f 10 45 08	 movss	 xmm0, DWORD PTR _fSpeed$[ebp]
  00008	f3 0f 11 81 9c
	08 00 00	 movss	 DWORD PTR [ecx+2204], xmm0

; 164  : }

  00010	5d		 pop	 ebp
  00011	c2 04 00	 ret	 4
?SetMoveSpeed@ioMissileWeapon2@@UAEXM@Z ENDP		; ioMissileWeapon2::SetMoveSpeed
_TEXT	ENDS
PUBLIC	?DestroyResource@ioMissileWeapon2@@UAEXPAVioPlayStage@@@Z ; ioMissileWeapon2::DestroyResource
EXTRN	__imp_?DestroyEffect@ioEffectFactory@@QAEXPAVioEffect@@@Z:PROC
EXTRN	__imp_?GetSingleton@ioEffectFactory@@SAAAV1@XZ:PROC
; Function compile flags: /Ogsp
;	COMDAT ?DestroyResource@ioMissileWeapon2@@UAEXPAVioPlayStage@@@Z
_TEXT	SEGMENT
_pStage$ = 8						; size = 4
?DestroyResource@ioMissileWeapon2@@UAEXPAVioPlayStage@@@Z PROC ; ioMissileWeapon2::DestroyResource, COMDAT
; _this$ = ecx

; 274  : {

  00000	56		 push	 esi

; 275  : 	if( m_pFireBall )

  00001	8d b1 98 08 00
	00		 lea	 esi, DWORD PTR [ecx+2200]
  00007	8b 06		 mov	 eax, DWORD PTR [esi]
  00009	85 c0		 test	 eax, eax
  0000b	74 12		 je	 SHORT $LN1@DestroyRes

; 276  : 	{
; 277  : 		g_EffectFactory.DestroyEffect( m_pFireBall );

  0000d	50		 push	 eax
  0000e	ff 15 00 00 00
	00		 call	 DWORD PTR __imp_?GetSingleton@ioEffectFactory@@SAAAV1@XZ
  00014	8b c8		 mov	 ecx, eax
  00016	ff 15 00 00 00
	00		 call	 DWORD PTR __imp_?DestroyEffect@ioEffectFactory@@QAEXPAVioEffect@@@Z

; 278  : 		m_pFireBall = NULL;

  0001c	83 26 00	 and	 DWORD PTR [esi], 0
$LN1@DestroyRes:
  0001f	5e		 pop	 esi

; 279  : 	}
; 280  : }

  00020	c2 04 00	 ret	 4
?DestroyResource@ioMissileWeapon2@@UAEXPAVioPlayStage@@@Z ENDP ; ioMissileWeapon2::DestroyResource
_TEXT	ENDS
PUBLIC	?GetAttackDir@ioMissileWeapon2@@UBE?AUD3DXVECTOR3@@PBVioPlayEntity@@@Z ; ioMissileWeapon2::GetAttackDir
; Function compile flags: /Ogsp
;	COMDAT ?GetAttackDir@ioMissileWeapon2@@UBE?AUD3DXVECTOR3@@PBVioPlayEntity@@@Z
_TEXT	SEGMENT
___$ReturnUdt$ = 8					; size = 4
_pEntity$ = 12						; size = 4
?GetAttackDir@ioMissileWeapon2@@UBE?AUD3DXVECTOR3@@PBVioPlayEntity@@@Z PROC ; ioMissileWeapon2::GetAttackDir, COMDAT
; _this$ = ecx

; 283  : {

  00000	55		 push	 ebp
  00001	8b ec		 mov	 ebp, esp

; 284  : 	return m_vMoveDir;

  00003	8b 45 08	 mov	 eax, DWORD PTR ___$ReturnUdt$[ebp]
  00006	56		 push	 esi
  00007	57		 push	 edi
  00008	8d b1 c0 08 00
	00		 lea	 esi, DWORD PTR [ecx+2240]
  0000e	8b f8		 mov	 edi, eax
  00010	a5		 movsd
  00011	a5		 movsd
  00012	a5		 movsd
  00013	5f		 pop	 edi
  00014	5e		 pop	 esi

; 285  : }

  00015	5d		 pop	 ebp
  00016	c2 08 00	 ret	 8
?GetAttackDir@ioMissileWeapon2@@UBE?AUD3DXVECTOR3@@PBVioPlayEntity@@@Z ENDP ; ioMissileWeapon2::GetAttackDir
_TEXT	ENDS
PUBLIC	??0D3DXVECTOR3@@QAE@MMM@Z			; D3DXVECTOR3::D3DXVECTOR3
; Function compile flags: /Ogsp
; File c:\program files (x86)\microsoft directx sdk (june 2010)\include\d3dx9math.inl
;	COMDAT ??0D3DXVECTOR3@@QAE@MMM@Z
_TEXT	SEGMENT
_fx$ = 8						; size = 4
_fy$ = 12						; size = 4
_fz$ = 16						; size = 4
??0D3DXVECTOR3@@QAE@MMM@Z PROC				; D3DXVECTOR3::D3DXVECTOR3, COMDAT
; _this$ = ecx

; 303  : {

  00000	55		 push	 ebp
  00001	8b ec		 mov	 ebp, esp

; 304  :     x = fx;

  00003	f3 0f 10 45 08	 movss	 xmm0, DWORD PTR _fx$[ebp]
  00008	8b c1		 mov	 eax, ecx
  0000a	f3 0f 11 00	 movss	 DWORD PTR [eax], xmm0

; 305  :     y = fy;

  0000e	f3 0f 10 45 0c	 movss	 xmm0, DWORD PTR _fy$[ebp]
  00013	f3 0f 11 40 04	 movss	 DWORD PTR [eax+4], xmm0

; 306  :     z = fz;

  00018	f3 0f 10 45 10	 movss	 xmm0, DWORD PTR _fz$[ebp]
  0001d	f3 0f 11 40 08	 movss	 DWORD PTR [eax+8], xmm0

; 307  : }

  00022	5d		 pop	 ebp
  00023	c2 0c 00	 ret	 12			; 0000000cH
??0D3DXVECTOR3@@QAE@MMM@Z ENDP				; D3DXVECTOR3::D3DXVECTOR3
_TEXT	ENDS
PUBLIC	?GetLocalAttackBox@ioMissileWeapon2@@UBEABVioOrientBox@@XZ ; ioMissileWeapon2::GetLocalAttackBox
EXTRN	?GetLocalAttackBox@ioWeapon@@UBEABVioOrientBox@@XZ:PROC ; ioWeapon::GetLocalAttackBox
EXTRN	__imp_?GetCollisionBox@ioEffect@@QBEABVioOrientBox@@XZ:PROC
; Function compile flags: /Ogsp
; File d:\lost saga for developer\youtube\tutorial\source\src\lsclient\iomissileweapon2.cpp
;	COMDAT ?GetLocalAttackBox@ioMissileWeapon2@@UBEABVioOrientBox@@XZ
_TEXT	SEGMENT
?GetLocalAttackBox@ioMissileWeapon2@@UBEABVioOrientBox@@XZ PROC ; ioMissileWeapon2::GetLocalAttackBox, COMDAT
; _this$ = ecx

; 289  : 	if( m_pFireBall )

  00000	8b 81 98 08 00
	00		 mov	 eax, DWORD PTR [ecx+2200]
  00006	85 c0		 test	 eax, eax
  00008	74 08		 je	 SHORT $LN1@GetLocalAt

; 290  : 		return m_pFireBall->GetCollisionBox();

  0000a	8b c8		 mov	 ecx, eax
  0000c	ff 25 00 00 00
	00		 jmp	 DWORD PTR __imp_?GetCollisionBox@ioEffect@@QBEABVioOrientBox@@XZ
$LN1@GetLocalAt:

; 291  : 
; 292  : 	return ioWeapon::GetLocalAttackBox();

  00012	e9 00 00 00 00	 jmp	 ?GetLocalAttackBox@ioWeapon@@UBEABVioOrientBox@@XZ ; ioWeapon::GetLocalAttackBox
?GetLocalAttackBox@ioMissileWeapon2@@UBEABVioOrientBox@@XZ ENDP ; ioMissileWeapon2::GetLocalAttackBox
_TEXT	ENDS
PUBLIC	?GetType@ioMissileWeapon2@@UBE?AW4WeaponType@ioWeapon@@XZ ; ioMissileWeapon2::GetType
; Function compile flags: /Ogsp
;	COMDAT ?GetType@ioMissileWeapon2@@UBE?AW4WeaponType@ioWeapon@@XZ
_TEXT	SEGMENT
?GetType@ioMissileWeapon2@@UBE?AW4WeaponType@ioWeapon@@XZ PROC ; ioMissileWeapon2::GetType, COMDAT
; _this$ = ecx

; 297  : 	return WT_MISSILE2;

  00000	6a 32		 push	 50			; 00000032H
  00002	58		 pop	 eax

; 298  : }

  00003	c3		 ret	 0
?GetType@ioMissileWeapon2@@UBE?AW4WeaponType@ioWeapon@@XZ ENDP ; ioMissileWeapon2::GetType
_TEXT	ENDS
PUBLIC	?GetActionStopType@ioMissileWeapon2@@UBE?AW4ActionStopType@@XZ ; ioMissileWeapon2::GetActionStopType
; Function compile flags: /Ogsp
;	COMDAT ?GetActionStopType@ioMissileWeapon2@@UBE?AW4ActionStopType@@XZ
_TEXT	SEGMENT
?GetActionStopType@ioMissileWeapon2@@UBE?AW4ActionStopType@@XZ PROC ; ioMissileWeapon2::GetActionStopType, COMDAT
; _this$ = ecx

; 302  : 	return m_ActionStopType;

  00000	a1 00 00 00 00	 mov	 eax, DWORD PTR ?m_ActionStopType@ioMissileWeapon2@@2W4ActionStopType@@A ; ioMissileWeapon2::m_ActionStopType

; 303  : }

  00005	c3		 ret	 0
?GetActionStopType@ioMissileWeapon2@@UBE?AW4ActionStopType@@XZ ENDP ; ioMissileWeapon2::GetActionStopType
_TEXT	ENDS
PUBLIC	?GetDieActionStopType@ioMissileWeapon2@@UBE?AW4ActionStopType@@XZ ; ioMissileWeapon2::GetDieActionStopType
; Function compile flags: /Ogsp
;	COMDAT ?GetDieActionStopType@ioMissileWeapon2@@UBE?AW4ActionStopType@@XZ
_TEXT	SEGMENT
?GetDieActionStopType@ioMissileWeapon2@@UBE?AW4ActionStopType@@XZ PROC ; ioMissileWeapon2::GetDieActionStopType, COMDAT
; _this$ = ecx

; 307  : 	return m_DieActionStopType;

  00000	a1 00 00 00 00	 mov	 eax, DWORD PTR ?m_DieActionStopType@ioMissileWeapon2@@2W4ActionStopType@@A ; ioMissileWeapon2::m_DieActionStopType

; 308  : }

  00005	c3		 ret	 0
?GetDieActionStopType@ioMissileWeapon2@@UBE?AW4ActionStopType@@XZ ENDP ; ioMissileWeapon2::GetDieActionStopType
_TEXT	ENDS
PUBLIC	??YD3DXVECTOR3@@QAEAAU0@ABU0@@Z			; D3DXVECTOR3::operator+=
; Function compile flags: /Ogsp
; File c:\program files (x86)\microsoft directx sdk (june 2010)\include\d3dx9math.inl
;	COMDAT ??YD3DXVECTOR3@@QAEAAU0@ABU0@@Z
_TEXT	SEGMENT
_v$ = 8							; size = 4
??YD3DXVECTOR3@@QAEAAU0@ABU0@@Z PROC			; D3DXVECTOR3::operator+=, COMDAT
; _this$ = ecx

; 327  : {

  00000	55		 push	 ebp
  00001	8b ec		 mov	 ebp, esp
  00003	8b c1		 mov	 eax, ecx

; 328  :     x += v.x;

  00005	8b 4d 08	 mov	 ecx, DWORD PTR _v$[ebp]
  00008	f3 0f 10 01	 movss	 xmm0, DWORD PTR [ecx]
  0000c	f3 0f 10 08	 movss	 xmm1, DWORD PTR [eax]
  00010	0f 5a c0	 cvtps2pd xmm0, xmm0
  00013	0f 5a c9	 cvtps2pd xmm1, xmm1
  00016	f2 0f 58 c1	 addsd	 xmm0, xmm1

; 329  :     y += v.y;

  0001a	f3 0f 10 48 04	 movss	 xmm1, DWORD PTR [eax+4]
  0001f	66 0f 5a c0	 cvtpd2ps xmm0, xmm0
  00023	f3 0f 11 00	 movss	 DWORD PTR [eax], xmm0
  00027	f3 0f 10 41 04	 movss	 xmm0, DWORD PTR [ecx+4]
  0002c	0f 5a c0	 cvtps2pd xmm0, xmm0
  0002f	0f 5a c9	 cvtps2pd xmm1, xmm1
  00032	f2 0f 58 c1	 addsd	 xmm0, xmm1

; 330  :     z += v.z;

  00036	f3 0f 10 48 08	 movss	 xmm1, DWORD PTR [eax+8]
  0003b	66 0f 5a c0	 cvtpd2ps xmm0, xmm0
  0003f	f3 0f 11 40 04	 movss	 DWORD PTR [eax+4], xmm0
  00044	f3 0f 10 41 08	 movss	 xmm0, DWORD PTR [ecx+8]
  00049	0f 5a c0	 cvtps2pd xmm0, xmm0
  0004c	0f 5a c9	 cvtps2pd xmm1, xmm1
  0004f	f2 0f 58 c1	 addsd	 xmm0, xmm1
  00053	66 0f 5a c0	 cvtpd2ps xmm0, xmm0
  00057	f3 0f 11 40 08	 movss	 DWORD PTR [eax+8], xmm0

; 331  :     return *this;
; 332  : }

  0005c	5d		 pop	 ebp
  0005d	c2 04 00	 ret	 4
??YD3DXVECTOR3@@QAEAAU0@ABU0@@Z ENDP			; D3DXVECTOR3::operator+=
_TEXT	ENDS
PUBLIC	__mask@@NegFloat@
PUBLIC	??GD3DXVECTOR3@@QBE?AU0@XZ			; D3DXVECTOR3::operator-
;	COMDAT __mask@@NegFloat@
CONST	SEGMENT
__mask@@NegFloat@ DB 00H, 00H, 00H, 080H, 00H, 00H, 00H, 080H, 00H, 00H, 00H
	DB	080H, 00H, 00H, 00H, 080H
; Function compile flags: /Ogsp
CONST	ENDS
;	COMDAT ??GD3DXVECTOR3@@QBE?AU0@XZ
_TEXT	SEGMENT
___$ReturnUdt$ = 8					; size = 4
??GD3DXVECTOR3@@QBE?AU0@XZ PROC				; D3DXVECTOR3::operator-, COMDAT
; _this$ = ecx

; 372  : {

  00000	55		 push	 ebp
  00001	8b ec		 mov	 ebp, esp

; 373  :     return D3DXVECTOR3(-x, -y, -z);

  00003	f3 0f 10 05 00
	00 00 00	 movss	 xmm0, DWORD PTR __mask@@NegFloat@
  0000b	8b 45 08	 mov	 eax, DWORD PTR ___$ReturnUdt$[ebp]
  0000e	f3 0f 10 09	 movss	 xmm1, DWORD PTR [ecx]
  00012	0f 57 c8	 xorps	 xmm1, xmm0
  00015	f3 0f 11 08	 movss	 DWORD PTR [eax], xmm1
  00019	f3 0f 10 49 04	 movss	 xmm1, DWORD PTR [ecx+4]
  0001e	0f 57 c8	 xorps	 xmm1, xmm0
  00021	f3 0f 11 48 04	 movss	 DWORD PTR [eax+4], xmm1
  00026	f3 0f 10 49 08	 movss	 xmm1, DWORD PTR [ecx+8]
  0002b	0f 57 c8	 xorps	 xmm1, xmm0
  0002e	f3 0f 11 48 08	 movss	 DWORD PTR [eax+8], xmm1

; 374  : }

  00033	5d		 pop	 ebp
  00034	c2 04 00	 ret	 4
??GD3DXVECTOR3@@QBE?AU0@XZ ENDP				; D3DXVECTOR3::operator-
_TEXT	ENDS
PUBLIC	??HD3DXVECTOR3@@QBE?AU0@ABU0@@Z			; D3DXVECTOR3::operator+
; Function compile flags: /Ogsp
;	COMDAT ??HD3DXVECTOR3@@QBE?AU0@ABU0@@Z
_TEXT	SEGMENT
___$ReturnUdt$ = 8					; size = 4
_v$ = 12						; size = 4
??HD3DXVECTOR3@@QBE?AU0@ABU0@@Z PROC			; D3DXVECTOR3::operator+, COMDAT
; _this$ = ecx

; 380  : {

  00000	55		 push	 ebp
  00001	8b ec		 mov	 ebp, esp

; 381  :     return D3DXVECTOR3(x + v.x, y + v.y, z + v.z);

  00003	8b 55 0c	 mov	 edx, DWORD PTR _v$[ebp]
  00006	f3 0f 10 02	 movss	 xmm0, DWORD PTR [edx]
  0000a	f3 0f 10 09	 movss	 xmm1, DWORD PTR [ecx]
  0000e	8b 45 08	 mov	 eax, DWORD PTR ___$ReturnUdt$[ebp]
  00011	0f 5a c0	 cvtps2pd xmm0, xmm0
  00014	0f 5a c9	 cvtps2pd xmm1, xmm1
  00017	f2 0f 58 c1	 addsd	 xmm0, xmm1
  0001b	f3 0f 10 49 04	 movss	 xmm1, DWORD PTR [ecx+4]
  00020	66 0f 5a c0	 cvtpd2ps xmm0, xmm0
  00024	f3 0f 11 00	 movss	 DWORD PTR [eax], xmm0
  00028	f3 0f 10 42 04	 movss	 xmm0, DWORD PTR [edx+4]
  0002d	0f 5a c0	 cvtps2pd xmm0, xmm0
  00030	0f 5a c9	 cvtps2pd xmm1, xmm1
  00033	f2 0f 58 c1	 addsd	 xmm0, xmm1
  00037	f3 0f 10 49 08	 movss	 xmm1, DWORD PTR [ecx+8]
  0003c	66 0f 5a c0	 cvtpd2ps xmm0, xmm0
  00040	f3 0f 11 40 04	 movss	 DWORD PTR [eax+4], xmm0
  00045	f3 0f 10 42 08	 movss	 xmm0, DWORD PTR [edx+8]
  0004a	0f 5a c0	 cvtps2pd xmm0, xmm0
  0004d	0f 5a c9	 cvtps2pd xmm1, xmm1
  00050	f2 0f 58 c1	 addsd	 xmm0, xmm1
  00054	66 0f 5a c0	 cvtpd2ps xmm0, xmm0
  00058	f3 0f 11 40 08	 movss	 DWORD PTR [eax+8], xmm0

; 382  : }

  0005d	5d		 pop	 ebp
  0005e	c2 08 00	 ret	 8
??HD3DXVECTOR3@@QBE?AU0@ABU0@@Z ENDP			; D3DXVECTOR3::operator+
_TEXT	ENDS
PUBLIC	??DD3DXVECTOR3@@QBE?AU0@M@Z			; D3DXVECTOR3::operator*
; Function compile flags: /Ogsp
;	COMDAT ??DD3DXVECTOR3@@QBE?AU0@M@Z
_TEXT	SEGMENT
___$ReturnUdt$ = 8					; size = 4
_f$ = 12						; size = 4
??DD3DXVECTOR3@@QBE?AU0@M@Z PROC			; D3DXVECTOR3::operator*, COMDAT
; _this$ = ecx

; 392  : {

  00000	55		 push	 ebp
  00001	8b ec		 mov	 ebp, esp

; 393  :     return D3DXVECTOR3(x * f, y * f, z * f);

  00003	f3 0f 10 4d 0c	 movss	 xmm1, DWORD PTR _f$[ebp]
  00008	f3 0f 10 01	 movss	 xmm0, DWORD PTR [ecx]
  0000c	8b 45 08	 mov	 eax, DWORD PTR ___$ReturnUdt$[ebp]
  0000f	0f 5a c0	 cvtps2pd xmm0, xmm0
  00012	0f 5a c9	 cvtps2pd xmm1, xmm1
  00015	f2 0f 59 c1	 mulsd	 xmm0, xmm1
  00019	f3 0f 10 4d 0c	 movss	 xmm1, DWORD PTR _f$[ebp]
  0001e	66 0f 5a c0	 cvtpd2ps xmm0, xmm0
  00022	f3 0f 11 00	 movss	 DWORD PTR [eax], xmm0
  00026	f3 0f 10 41 04	 movss	 xmm0, DWORD PTR [ecx+4]
  0002b	0f 5a c0	 cvtps2pd xmm0, xmm0
  0002e	0f 5a c9	 cvtps2pd xmm1, xmm1
  00031	f2 0f 59 c1	 mulsd	 xmm0, xmm1
  00035	f3 0f 10 4d 0c	 movss	 xmm1, DWORD PTR _f$[ebp]
  0003a	66 0f 5a c0	 cvtpd2ps xmm0, xmm0
  0003e	f3 0f 11 40 04	 movss	 DWORD PTR [eax+4], xmm0
  00043	f3 0f 10 41 08	 movss	 xmm0, DWORD PTR [ecx+8]
  00048	0f 5a c0	 cvtps2pd xmm0, xmm0
  0004b	0f 5a c9	 cvtps2pd xmm1, xmm1
  0004e	f2 0f 59 c1	 mulsd	 xmm0, xmm1
  00052	66 0f 5a c0	 cvtpd2ps xmm0, xmm0
  00056	f3 0f 11 40 08	 movss	 DWORD PTR [eax+8], xmm0

; 394  : }

  0005b	5d		 pop	 ebp
  0005c	c2 08 00	 ret	 8
??DD3DXVECTOR3@@QBE?AU0@M@Z ENDP			; D3DXVECTOR3::operator*
_TEXT	ENDS
PUBLIC	??9D3DXVECTOR3@@QBEHABU0@@Z			; D3DXVECTOR3::operator!=
; Function compile flags: /Ogsp
;	COMDAT ??9D3DXVECTOR3@@QBEHABU0@@Z
_TEXT	SEGMENT
_v$ = 8							; size = 4
??9D3DXVECTOR3@@QBEHABU0@@Z PROC			; D3DXVECTOR3::operator!=, COMDAT
; _this$ = ecx

; 419  : {

  00000	55		 push	 ebp
  00001	8b ec		 mov	 ebp, esp

; 420  :     return x != v.x || y != v.y || z != v.z;

  00003	8b 55 08	 mov	 edx, DWORD PTR _v$[ebp]
  00006	f3 0f 10 01	 movss	 xmm0, DWORD PTR [ecx]
  0000a	f3 0f 10 0a	 movss	 xmm1, DWORD PTR [edx]
  0000e	0f 5a c0	 cvtps2pd xmm0, xmm0
  00011	0f 5a c9	 cvtps2pd xmm1, xmm1
  00014	66 0f 2e c1	 ucomisd xmm0, xmm1
  00018	9f		 lahf
  00019	f6 c4 44	 test	 ah, 68			; 00000044H
  0001c	7a 38		 jp	 SHORT $LN3@operator
  0001e	f3 0f 10 41 04	 movss	 xmm0, DWORD PTR [ecx+4]
  00023	f3 0f 10 4a 04	 movss	 xmm1, DWORD PTR [edx+4]
  00028	0f 5a c0	 cvtps2pd xmm0, xmm0
  0002b	0f 5a c9	 cvtps2pd xmm1, xmm1
  0002e	66 0f 2e c1	 ucomisd xmm0, xmm1
  00032	9f		 lahf
  00033	f6 c4 44	 test	 ah, 68			; 00000044H
  00036	7a 1e		 jp	 SHORT $LN3@operator
  00038	f3 0f 10 41 08	 movss	 xmm0, DWORD PTR [ecx+8]
  0003d	f3 0f 10 4a 08	 movss	 xmm1, DWORD PTR [edx+8]
  00042	0f 5a c0	 cvtps2pd xmm0, xmm0
  00045	0f 5a c9	 cvtps2pd xmm1, xmm1
  00048	66 0f 2e c1	 ucomisd xmm0, xmm1
  0004c	9f		 lahf
  0004d	f6 c4 44	 test	 ah, 68			; 00000044H
  00050	7a 04		 jp	 SHORT $LN3@operator
  00052	33 c0		 xor	 eax, eax
  00054	eb 03		 jmp	 SHORT $LN4@operator
$LN3@operator:
  00056	33 c0		 xor	 eax, eax
  00058	40		 inc	 eax
$LN4@operator:

; 421  : }

  00059	5d		 pop	 ebp
  0005a	c2 04 00	 ret	 4
??9D3DXVECTOR3@@QBEHABU0@@Z ENDP			; D3DXVECTOR3::operator!=
_TEXT	ENDS
PUBLIC	?GetAttribute@ioMissileWeapon2@@MBEPBUWeaponAttribute@@XZ ; ioMissileWeapon2::GetAttribute
; Function compile flags: /Ogsp
; File d:\lost saga for developer\youtube\tutorial\source\src\lsclient\iomissileweapon2.cpp
;	COMDAT ?GetAttribute@ioMissileWeapon2@@MBEPBUWeaponAttribute@@XZ
_TEXT	SEGMENT
?GetAttribute@ioMissileWeapon2@@MBEPBUWeaponAttribute@@XZ PROC ; ioMissileWeapon2::GetAttribute, COMDAT
; _this$ = ecx

; 410  : 	if( m_bResistance )

  00000	80 b9 3c 06 00
	00 00		 cmp	 BYTE PTR [ecx+1596], 0
  00007	74 07		 je	 SHORT $LN2@GetAttribu

; 411  : 	{
; 412  : 		if( m_pResistanceAttr )

  00009	8b 41 0c	 mov	 eax, DWORD PTR [ecx+12]
  0000c	85 c0		 test	 eax, eax

; 413  : 			return m_pResistanceAttr;

  0000e	75 0d		 jne	 SHORT $LN4@GetAttribu
$LN2@GetAttribu:

; 414  : 	}
; 415  : 
; 416  : 	if( m_pSecondAttr )

  00010	8b 81 e0 08 00
	00		 mov	 eax, DWORD PTR [ecx+2272]
  00016	85 c0		 test	 eax, eax

; 417  : 		return m_pSecondAttr;

  00018	75 03		 jne	 SHORT $LN4@GetAttribu

; 418  : 
; 419  : 	return m_pConstAttr;

  0001a	8b 41 08	 mov	 eax, DWORD PTR [ecx+8]
$LN4@GetAttribu:

; 420  : }

  0001d	c3		 ret	 0
?GetAttribute@ioMissileWeapon2@@MBEPBUWeaponAttribute@@XZ ENDP ; ioMissileWeapon2::GetAttribute
_TEXT	ENDS
PUBLIC	?empty@?$vector@UChangeDirInfo@@V?$allocator@UChangeDirInfo@@@std@@@std@@QBE_NXZ ; std::vector<ChangeDirInfo,std::allocator<ChangeDirInfo> >::empty
; Function compile flags: /Ogsp
; File c:\program files (x86)\microsoft visual studio 10.0\vc\include\vector
;	COMDAT ?empty@?$vector@UChangeDirInfo@@V?$allocator@UChangeDirInfo@@@std@@@std@@QBE_NXZ
_TEXT	SEGMENT
?empty@?$vector@UChangeDirInfo@@V?$allocator@UChangeDirInfo@@@std@@@std@@QBE_NXZ PROC ; std::vector<ChangeDirInfo,std::allocator<ChangeDirInfo> >::empty, COMDAT
; _this$ = ecx

; 889  : 		return (this->_Myfirst == this->_Mylast);

  00000	8b 01		 mov	 eax, DWORD PTR [ecx]
  00002	2b 41 04	 sub	 eax, DWORD PTR [ecx+4]
  00005	f7 d8		 neg	 eax
  00007	1b c0		 sbb	 eax, eax
  00009	40		 inc	 eax

; 890  : 		}

  0000a	c3		 ret	 0
?empty@?$vector@UChangeDirInfo@@V?$allocator@UChangeDirInfo@@@std@@@std@@QBE_NXZ ENDP ; std::vector<ChangeDirInfo,std::allocator<ChangeDirInfo> >::empty
_TEXT	ENDS
PUBLIC	??A?$vector@UChangeDirInfo@@V?$allocator@UChangeDirInfo@@@std@@@std@@QAEAAUChangeDirInfo@@I@Z ; std::vector<ChangeDirInfo,std::allocator<ChangeDirInfo> >::operator[]
; Function compile flags: /Ogsp
;	COMDAT ??A?$vector@UChangeDirInfo@@V?$allocator@UChangeDirInfo@@@std@@@std@@QAEAAUChangeDirInfo@@I@Z
_TEXT	SEGMENT
__Pos$ = 8						; size = 4
??A?$vector@UChangeDirInfo@@V?$allocator@UChangeDirInfo@@@std@@@std@@QAEAAUChangeDirInfo@@I@Z PROC ; std::vector<ChangeDirInfo,std::allocator<ChangeDirInfo> >::operator[], COMDAT
; _this$ = ecx

; 928  : 		{	// subscript mutable sequence

  00000	55		 push	 ebp
  00001	8b ec		 mov	 ebp, esp

; 929  :  #if _ITERATOR_DEBUG_LEVEL == 2
; 930  : 		if (size() <= _Pos)
; 931  : 			{	// report error
; 932  : 			_DEBUG_ERROR("vector subscript out of range");
; 933  : 			_SCL_SECURE_OUT_OF_RANGE;
; 934  : 			}
; 935  : 
; 936  :  #elif _ITERATOR_DEBUG_LEVEL == 1
; 937  : 		_SCL_SECURE_VALIDATE_RANGE(_Pos < size());
; 938  :  #endif /* _ITERATOR_DEBUG_LEVEL */
; 939  : 
; 940  : 		return (*(this->_Myfirst + _Pos));

  00003	8b 45 08	 mov	 eax, DWORD PTR __Pos$[ebp]
  00006	6b c0 1c	 imul	 eax, 28			; 0000001cH
  00009	03 01		 add	 eax, DWORD PTR [ecx]

; 941  : 		}

  0000b	5d		 pop	 ebp
  0000c	c2 04 00	 ret	 4
??A?$vector@UChangeDirInfo@@V?$allocator@UChangeDirInfo@@@std@@@std@@QAEAAUChangeDirInfo@@I@Z ENDP ; std::vector<ChangeDirInfo,std::allocator<ChangeDirInfo> >::operator[]
_TEXT	ENDS
PUBLIC	?size@?$vector@USecondAttribute@@V?$allocator@USecondAttribute@@@std@@@std@@QBEIXZ ; std::vector<SecondAttribute,std::allocator<SecondAttribute> >::size
; Function compile flags: /Ogsp
;	COMDAT ?size@?$vector@USecondAttribute@@V?$allocator@USecondAttribute@@@std@@@std@@QBEIXZ
_TEXT	SEGMENT
?size@?$vector@USecondAttribute@@V?$allocator@USecondAttribute@@@std@@@std@@QBEIXZ PROC ; std::vector<SecondAttribute,std::allocator<SecondAttribute> >::size, COMDAT
; _this$ = ecx

; 879  : 		return (this->_Mylast - this->_Myfirst);

  00000	8b 41 04	 mov	 eax, DWORD PTR [ecx+4]
  00003	2b 01		 sub	 eax, DWORD PTR [ecx]
  00005	c1 f8 03	 sar	 eax, 3

; 880  : 		}

  00008	c3		 ret	 0
?size@?$vector@USecondAttribute@@V?$allocator@USecondAttribute@@@std@@@std@@QBEIXZ ENDP ; std::vector<SecondAttribute,std::allocator<SecondAttribute> >::size
_TEXT	ENDS
PUBLIC	??A?$vector@USecondAttribute@@V?$allocator@USecondAttribute@@@std@@@std@@QAEAAUSecondAttribute@@I@Z ; std::vector<SecondAttribute,std::allocator<SecondAttribute> >::operator[]
; Function compile flags: /Ogsp
;	COMDAT ??A?$vector@USecondAttribute@@V?$allocator@USecondAttribute@@@std@@@std@@QAEAAUSecondAttribute@@I@Z
_TEXT	SEGMENT
__Pos$ = 8						; size = 4
??A?$vector@USecondAttribute@@V?$allocator@USecondAttribute@@@std@@@std@@QAEAAUSecondAttribute@@I@Z PROC ; std::vector<SecondAttribute,std::allocator<SecondAttribute> >::operator[], COMDAT
; _this$ = ecx

; 928  : 		{	// subscript mutable sequence

  00000	55		 push	 ebp
  00001	8b ec		 mov	 ebp, esp

; 929  :  #if _ITERATOR_DEBUG_LEVEL == 2
; 930  : 		if (size() <= _Pos)
; 931  : 			{	// report error
; 932  : 			_DEBUG_ERROR("vector subscript out of range");
; 933  : 			_SCL_SECURE_OUT_OF_RANGE;
; 934  : 			}
; 935  : 
; 936  :  #elif _ITERATOR_DEBUG_LEVEL == 1
; 937  : 		_SCL_SECURE_VALIDATE_RANGE(_Pos < size());
; 938  :  #endif /* _ITERATOR_DEBUG_LEVEL */
; 939  : 
; 940  : 		return (*(this->_Myfirst + _Pos));

  00003	8b 01		 mov	 eax, DWORD PTR [ecx]
  00005	8b 4d 08	 mov	 ecx, DWORD PTR __Pos$[ebp]
  00008	8d 04 c8	 lea	 eax, DWORD PTR [eax+ecx*8]

; 941  : 		}

  0000b	5d		 pop	 ebp
  0000c	c2 04 00	 ret	 4
??A?$vector@USecondAttribute@@V?$allocator@USecondAttribute@@@std@@@std@@QAEAAUSecondAttribute@@I@Z ENDP ; std::vector<SecondAttribute,std::allocator<SecondAttribute> >::operator[]
_TEXT	ENDS
PUBLIC	?capacity@?$vector@UChangeDirInfo@@V?$allocator@UChangeDirInfo@@@std@@@std@@QBEIXZ ; std::vector<ChangeDirInfo,std::allocator<ChangeDirInfo> >::capacity
; Function compile flags: /Ogsp
;	COMDAT ?capacity@?$vector@UChangeDirInfo@@V?$allocator@UChangeDirInfo@@@std@@@std@@QBEIXZ
_TEXT	SEGMENT
?capacity@?$vector@UChangeDirInfo@@V?$allocator@UChangeDirInfo@@@std@@@std@@QBEIXZ PROC ; std::vector<ChangeDirInfo,std::allocator<ChangeDirInfo> >::capacity, COMDAT
; _this$ = ecx

; 777  : 		return (this->_Myend - this->_Myfirst);

  00000	8b 41 08	 mov	 eax, DWORD PTR [ecx+8]
  00003	2b 01		 sub	 eax, DWORD PTR [ecx]
  00005	6a 1c		 push	 28			; 0000001cH
  00007	99		 cdq
  00008	59		 pop	 ecx
  00009	f7 f9		 idiv	 ecx

; 778  : 		}

  0000b	c3		 ret	 0
?capacity@?$vector@UChangeDirInfo@@V?$allocator@UChangeDirInfo@@@std@@@std@@QBEIXZ ENDP ; std::vector<ChangeDirInfo,std::allocator<ChangeDirInfo> >::capacity
_TEXT	ENDS
PUBLIC	?size@?$vector@UChangeDirInfo@@V?$allocator@UChangeDirInfo@@@std@@@std@@QBEIXZ ; std::vector<ChangeDirInfo,std::allocator<ChangeDirInfo> >::size
; Function compile flags: /Ogsp
;	COMDAT ?size@?$vector@UChangeDirInfo@@V?$allocator@UChangeDirInfo@@@std@@@std@@QBEIXZ
_TEXT	SEGMENT
?size@?$vector@UChangeDirInfo@@V?$allocator@UChangeDirInfo@@@std@@@std@@QBEIXZ PROC ; std::vector<ChangeDirInfo,std::allocator<ChangeDirInfo> >::size, COMDAT
; _this$ = ecx

; 879  : 		return (this->_Mylast - this->_Myfirst);

  00000	8b 41 04	 mov	 eax, DWORD PTR [ecx+4]
  00003	2b 01		 sub	 eax, DWORD PTR [ecx]
  00005	6a 1c		 push	 28			; 0000001cH
  00007	99		 cdq
  00008	59		 pop	 ecx
  00009	f7 f9		 idiv	 ecx

; 880  : 		}

  0000b	c3		 ret	 0
?size@?$vector@UChangeDirInfo@@V?$allocator@UChangeDirInfo@@@std@@@std@@QBEIXZ ENDP ; std::vector<ChangeDirInfo,std::allocator<ChangeDirInfo> >::size
_TEXT	ENDS
PUBLIC	?_Inside@?$vector@UChangeDirInfo@@V?$allocator@UChangeDirInfo@@@std@@@std@@IBE_NPBUChangeDirInfo@@@Z ; std::vector<ChangeDirInfo,std::allocator<ChangeDirInfo> >::_Inside
; Function compile flags: /Ogsp
;	COMDAT ?_Inside@?$vector@UChangeDirInfo@@V?$allocator@UChangeDirInfo@@@std@@@std@@IBE_NPBUChangeDirInfo@@@Z
_TEXT	SEGMENT
__Ptr$ = 8						; size = 4
?_Inside@?$vector@UChangeDirInfo@@V?$allocator@UChangeDirInfo@@@std@@@std@@IBE_NPBUChangeDirInfo@@@Z PROC ; std::vector<ChangeDirInfo,std::allocator<ChangeDirInfo> >::_Inside, COMDAT
; _this$ = ecx

; 1285 : 		{	// test if _Ptr points inside vector

  00000	55		 push	 ebp
  00001	8b ec		 mov	 ebp, esp

; 1286 : 		return (_Ptr < this->_Mylast && this->_Myfirst <= _Ptr);

  00003	8b 45 08	 mov	 eax, DWORD PTR __Ptr$[ebp]
  00006	3b 41 04	 cmp	 eax, DWORD PTR [ecx+4]
  00009	73 09		 jae	 SHORT $LN3@Inside
  0000b	39 01		 cmp	 DWORD PTR [ecx], eax
  0000d	77 05		 ja	 SHORT $LN3@Inside
  0000f	33 c0		 xor	 eax, eax
  00011	40		 inc	 eax
  00012	eb 02		 jmp	 SHORT $LN4@Inside
$LN3@Inside:
  00014	33 c0		 xor	 eax, eax
$LN4@Inside:

; 1287 : 		}

  00016	5d		 pop	 ebp
  00017	c2 04 00	 ret	 4
?_Inside@?$vector@UChangeDirInfo@@V?$allocator@UChangeDirInfo@@@std@@@std@@IBE_NPBUChangeDirInfo@@@Z ENDP ; std::vector<ChangeDirInfo,std::allocator<ChangeDirInfo> >::_Inside
_TEXT	ENDS
PUBLIC	??_C@_0BD@OLBABOEK@vector?$DMT?$DO?5too?5long?$AA@ ; `string'
PUBLIC	?_Xlen@?$vector@UChangeDirInfo@@V?$allocator@UChangeDirInfo@@@std@@@std@@IBEXXZ ; std::vector<ChangeDirInfo,std::allocator<ChangeDirInfo> >::_Xlen
EXTRN	__imp_?_Xlength_error@std@@YAXPBD@Z:PROC
;	COMDAT ??_C@_0BD@OLBABOEK@vector?$DMT?$DO?5too?5long?$AA@
CONST	SEGMENT
??_C@_0BD@OLBABOEK@vector?$DMT?$DO?5too?5long?$AA@ DB 'vector<T> too long'
	DB	00H						; `string'
; Function compile flags: /Ogsp
CONST	ENDS
;	COMDAT ?_Xlen@?$vector@UChangeDirInfo@@V?$allocator@UChangeDirInfo@@@std@@@std@@IBEXXZ
_TEXT	SEGMENT
?_Xlen@?$vector@UChangeDirInfo@@V?$allocator@UChangeDirInfo@@@std@@@std@@IBEXXZ PROC ; std::vector<ChangeDirInfo,std::allocator<ChangeDirInfo> >::_Xlen, COMDAT
; _this$ = ecx

; 1427 : 		_Xlength_error("vector<T> too long");

  00000	68 00 00 00 00	 push	 OFFSET ??_C@_0BD@OLBABOEK@vector?$DMT?$DO?5too?5long?$AA@
  00005	ff 15 00 00 00
	00		 call	 DWORD PTR __imp_?_Xlength_error@std@@YAXPBD@Z
$LN4@Xlen:
$LN3@Xlen:
  0000b	cc		 int	 3
?_Xlen@?$vector@UChangeDirInfo@@V?$allocator@UChangeDirInfo@@@std@@@std@@IBEXXZ ENDP ; std::vector<ChangeDirInfo,std::allocator<ChangeDirInfo> >::_Xlen
_TEXT	ENDS
PUBLIC	?_Orphan_range@?$vector@UChangeDirInfo@@V?$allocator@UChangeDirInfo@@@std@@@std@@IBEXPAUChangeDirInfo@@0@Z ; std::vector<ChangeDirInfo,std::allocator<ChangeDirInfo> >::_Orphan_range
; Function compile flags: /Ogsp
;	COMDAT ?_Orphan_range@?$vector@UChangeDirInfo@@V?$allocator@UChangeDirInfo@@@std@@@std@@IBEXPAUChangeDirInfo@@0@Z
_TEXT	SEGMENT
___formal$ = 8						; size = 4
___formal$ = 12						; size = 4
?_Orphan_range@?$vector@UChangeDirInfo@@V?$allocator@UChangeDirInfo@@@std@@@std@@IBEXPAUChangeDirInfo@@0@Z PROC ; std::vector<ChangeDirInfo,std::allocator<ChangeDirInfo> >::_Orphan_range, COMDAT
; _this$ = ecx

; 1454 : 		}

  00000	c2 08 00	 ret	 8
?_Orphan_range@?$vector@UChangeDirInfo@@V?$allocator@UChangeDirInfo@@@std@@@std@@IBEXPAUChangeDirInfo@@0@Z ENDP ; std::vector<ChangeDirInfo,std::allocator<ChangeDirInfo> >::_Orphan_range
_TEXT	ENDS
PUBLIC	??1?$_Vector_val@UChangeDirInfo@@V?$allocator@UChangeDirInfo@@@std@@@std@@QAE@XZ ; std::_Vector_val<ChangeDirInfo,std::allocator<ChangeDirInfo> >::~_Vector_val<ChangeDirInfo,std::allocator<ChangeDirInfo> >
; Function compile flags: /Ogsp
;	COMDAT ??1?$_Vector_val@UChangeDirInfo@@V?$allocator@UChangeDirInfo@@@std@@@std@@QAE@XZ
_TEXT	SEGMENT
??1?$_Vector_val@UChangeDirInfo@@V?$allocator@UChangeDirInfo@@@std@@@std@@QAE@XZ PROC ; std::_Vector_val<ChangeDirInfo,std::allocator<ChangeDirInfo> >::~_Vector_val<ChangeDirInfo,std::allocator<ChangeDirInfo> >, COMDAT
; _this$ = ecx

; 434  : 		}

  00000	c3		 ret	 0
??1?$_Vector_val@UChangeDirInfo@@V?$allocator@UChangeDirInfo@@@std@@@std@@QAE@XZ ENDP ; std::_Vector_val<ChangeDirInfo,std::allocator<ChangeDirInfo> >::~_Vector_val<ChangeDirInfo,std::allocator<ChangeDirInfo> >
_TEXT	ENDS
PUBLIC	??0?$allocator@UChangeDirInfo@@@std@@QAE@XZ	; std::allocator<ChangeDirInfo>::allocator<ChangeDirInfo>
; Function compile flags: /Ogsp
; File c:\program files (x86)\microsoft visual studio 10.0\vc\include\xmemory
;	COMDAT ??0?$allocator@UChangeDirInfo@@@std@@QAE@XZ
_TEXT	SEGMENT
??0?$allocator@UChangeDirInfo@@@std@@QAE@XZ PROC	; std::allocator<ChangeDirInfo>::allocator<ChangeDirInfo>, COMDAT
; _this$ = ecx

; 161  : 	_ALLOCATOR() _THROW0()

  00000	8b c1		 mov	 eax, ecx

; 162  : 		{	// construct default allocator (do nothing)
; 163  : 		}

  00002	c3		 ret	 0
??0?$allocator@UChangeDirInfo@@@std@@QAE@XZ ENDP	; std::allocator<ChangeDirInfo>::allocator<ChangeDirInfo>
_TEXT	ENDS
PUBLIC	?deallocate@?$allocator@UChangeDirInfo@@@std@@QAEXPAUChangeDirInfo@@I@Z ; std::allocator<ChangeDirInfo>::deallocate
; Function compile flags: /Ogsp
;	COMDAT ?deallocate@?$allocator@UChangeDirInfo@@@std@@QAEXPAUChangeDirInfo@@I@Z
_TEXT	SEGMENT
__Ptr$ = 8						; size = 4
___formal$ = 12						; size = 4
?deallocate@?$allocator@UChangeDirInfo@@@std@@QAEXPAUChangeDirInfo@@I@Z PROC ; std::allocator<ChangeDirInfo>::deallocate, COMDAT
; _this$ = ecx

; 181  : 		{	// deallocate object at _Ptr, ignore size

  00000	55		 push	 ebp
  00001	8b ec		 mov	 ebp, esp

; 182  : 		::operator delete(_Ptr);

  00003	ff 75 08	 push	 DWORD PTR __Ptr$[ebp]
  00006	e8 00 00 00 00	 call	 ??3@YAXPAX@Z		; operator delete
  0000b	59		 pop	 ecx

; 183  : 		}

  0000c	5d		 pop	 ebp
  0000d	c2 08 00	 ret	 8
?deallocate@?$allocator@UChangeDirInfo@@@std@@QAEXPAUChangeDirInfo@@I@Z ENDP ; std::allocator<ChangeDirInfo>::deallocate
_TEXT	ENDS
PUBLIC	?_Inside@?$vector@USecondAttribute@@V?$allocator@USecondAttribute@@@std@@@std@@IBE_NPBUSecondAttribute@@@Z ; std::vector<SecondAttribute,std::allocator<SecondAttribute> >::_Inside
; Function compile flags: /Ogsp
; File c:\program files (x86)\microsoft visual studio 10.0\vc\include\vector
;	COMDAT ?_Inside@?$vector@USecondAttribute@@V?$allocator@USecondAttribute@@@std@@@std@@IBE_NPBUSecondAttribute@@@Z
_TEXT	SEGMENT
__Ptr$ = 8						; size = 4
?_Inside@?$vector@USecondAttribute@@V?$allocator@USecondAttribute@@@std@@@std@@IBE_NPBUSecondAttribute@@@Z PROC ; std::vector<SecondAttribute,std::allocator<SecondAttribute> >::_Inside, COMDAT
; _this$ = ecx

; 1285 : 		{	// test if _Ptr points inside vector

  00000	55		 push	 ebp
  00001	8b ec		 mov	 ebp, esp

; 1286 : 		return (_Ptr < this->_Mylast && this->_Myfirst <= _Ptr);

  00003	8b 45 08	 mov	 eax, DWORD PTR __Ptr$[ebp]
  00006	3b 41 04	 cmp	 eax, DWORD PTR [ecx+4]
  00009	73 09		 jae	 SHORT $LN3@Inside@2
  0000b	39 01		 cmp	 DWORD PTR [ecx], eax
  0000d	77 05		 ja	 SHORT $LN3@Inside@2
  0000f	33 c0		 xor	 eax, eax
  00011	40		 inc	 eax
  00012	eb 02		 jmp	 SHORT $LN4@Inside@2
$LN3@Inside@2:
  00014	33 c0		 xor	 eax, eax
$LN4@Inside@2:

; 1287 : 		}

  00016	5d		 pop	 ebp
  00017	c2 04 00	 ret	 4
?_Inside@?$vector@USecondAttribute@@V?$allocator@USecondAttribute@@@std@@@std@@IBE_NPBUSecondAttribute@@@Z ENDP ; std::vector<SecondAttribute,std::allocator<SecondAttribute> >::_Inside
_TEXT	ENDS
PUBLIC	?_Orphan_range@?$vector@USecondAttribute@@V?$allocator@USecondAttribute@@@std@@@std@@IBEXPAUSecondAttribute@@0@Z ; std::vector<SecondAttribute,std::allocator<SecondAttribute> >::_Orphan_range
; Function compile flags: /Ogsp
;	COMDAT ?_Orphan_range@?$vector@USecondAttribute@@V?$allocator@USecondAttribute@@@std@@@std@@IBEXPAUSecondAttribute@@0@Z
_TEXT	SEGMENT
___formal$ = 8						; size = 4
___formal$ = 12						; size = 4
?_Orphan_range@?$vector@USecondAttribute@@V?$allocator@USecondAttribute@@@std@@@std@@IBEXPAUSecondAttribute@@0@Z PROC ; std::vector<SecondAttribute,std::allocator<SecondAttribute> >::_Orphan_range, COMDAT
; _this$ = ecx

; 1454 : 		}

  00000	c2 08 00	 ret	 8
?_Orphan_range@?$vector@USecondAttribute@@V?$allocator@USecondAttribute@@@std@@@std@@IBEXPAUSecondAttribute@@0@Z ENDP ; std::vector<SecondAttribute,std::allocator<SecondAttribute> >::_Orphan_range
_TEXT	ENDS
PUBLIC	??1?$_Vector_val@USecondAttribute@@V?$allocator@USecondAttribute@@@std@@@std@@QAE@XZ ; std::_Vector_val<SecondAttribute,std::allocator<SecondAttribute> >::~_Vector_val<SecondAttribute,std::allocator<SecondAttribute> >
; Function compile flags: /Ogsp
;	COMDAT ??1?$_Vector_val@USecondAttribute@@V?$allocator@USecondAttribute@@@std@@@std@@QAE@XZ
_TEXT	SEGMENT
??1?$_Vector_val@USecondAttribute@@V?$allocator@USecondAttribute@@@std@@@std@@QAE@XZ PROC ; std::_Vector_val<SecondAttribute,std::allocator<SecondAttribute> >::~_Vector_val<SecondAttribute,std::allocator<SecondAttribute> >, COMDAT
; _this$ = ecx

; 434  : 		}

  00000	c3		 ret	 0
??1?$_Vector_val@USecondAttribute@@V?$allocator@USecondAttribute@@@std@@@std@@QAE@XZ ENDP ; std::_Vector_val<SecondAttribute,std::allocator<SecondAttribute> >::~_Vector_val<SecondAttribute,std::allocator<SecondAttribute> >
_TEXT	ENDS
PUBLIC	??0?$allocator@USecondAttribute@@@std@@QAE@XZ	; std::allocator<SecondAttribute>::allocator<SecondAttribute>
; Function compile flags: /Ogsp
; File c:\program files (x86)\microsoft visual studio 10.0\vc\include\xmemory
;	COMDAT ??0?$allocator@USecondAttribute@@@std@@QAE@XZ
_TEXT	SEGMENT
??0?$allocator@USecondAttribute@@@std@@QAE@XZ PROC	; std::allocator<SecondAttribute>::allocator<SecondAttribute>, COMDAT
; _this$ = ecx

; 161  : 	_ALLOCATOR() _THROW0()

  00000	8b c1		 mov	 eax, ecx

; 162  : 		{	// construct default allocator (do nothing)
; 163  : 		}

  00002	c3		 ret	 0
??0?$allocator@USecondAttribute@@@std@@QAE@XZ ENDP	; std::allocator<SecondAttribute>::allocator<SecondAttribute>
_TEXT	ENDS
PUBLIC	??0?$allocator@UChangeDirInfo@@@std@@QAE@ABV01@@Z ; std::allocator<ChangeDirInfo>::allocator<ChangeDirInfo>
; Function compile flags: /Ogsp
;	COMDAT ??0?$allocator@UChangeDirInfo@@@std@@QAE@ABV01@@Z
_TEXT	SEGMENT
___formal$ = 8						; size = 4
??0?$allocator@UChangeDirInfo@@@std@@QAE@ABV01@@Z PROC	; std::allocator<ChangeDirInfo>::allocator<ChangeDirInfo>, COMDAT
; _this$ = ecx

; 165  : 	_ALLOCATOR(const _ALLOCATOR<_Ty>&) _THROW0()

  00000	8b c1		 mov	 eax, ecx

; 166  : 		{	// construct by copying (do nothing)
; 167  : 		}

  00002	c2 04 00	 ret	 4
??0?$allocator@UChangeDirInfo@@@std@@QAE@ABV01@@Z ENDP	; std::allocator<ChangeDirInfo>::allocator<ChangeDirInfo>
_TEXT	ENDS
PUBLIC	?max_size@?$allocator@UChangeDirInfo@@@std@@QBEIXZ ; std::allocator<ChangeDirInfo>::max_size
; Function compile flags: /Ogsp
;	COMDAT ?max_size@?$allocator@UChangeDirInfo@@@std@@QBEIXZ
_TEXT	SEGMENT
?max_size@?$allocator@UChangeDirInfo@@@std@@QBEIXZ PROC	; std::allocator<ChangeDirInfo>::max_size, COMDAT
; _this$ = ecx

; 218  : 		_SIZT _Count = (_SIZT)(-1) / sizeof (_Ty);
; 219  : 		return (0 < _Count ? _Count : 1);

  00000	b8 49 92 24 09	 mov	 eax, 153391689		; 09249249H

; 220  : 		}

  00005	c3		 ret	 0
?max_size@?$allocator@UChangeDirInfo@@@std@@QBEIXZ ENDP	; std::allocator<ChangeDirInfo>::max_size
_TEXT	ENDS
PUBLIC	?capacity@?$vector@USecondAttribute@@V?$allocator@USecondAttribute@@@std@@@std@@QBEIXZ ; std::vector<SecondAttribute,std::allocator<SecondAttribute> >::capacity
; Function compile flags: /Ogsp
; File c:\program files (x86)\microsoft visual studio 10.0\vc\include\vector
;	COMDAT ?capacity@?$vector@USecondAttribute@@V?$allocator@USecondAttribute@@@std@@@std@@QBEIXZ
_TEXT	SEGMENT
?capacity@?$vector@USecondAttribute@@V?$allocator@USecondAttribute@@@std@@@std@@QBEIXZ PROC ; std::vector<SecondAttribute,std::allocator<SecondAttribute> >::capacity, COMDAT
; _this$ = ecx

; 777  : 		return (this->_Myend - this->_Myfirst);

  00000	8b 41 08	 mov	 eax, DWORD PTR [ecx+8]
  00003	2b 01		 sub	 eax, DWORD PTR [ecx]
  00005	c1 f8 03	 sar	 eax, 3

; 778  : 		}

  00008	c3		 ret	 0
?capacity@?$vector@USecondAttribute@@V?$allocator@USecondAttribute@@@std@@@std@@QBEIXZ ENDP ; std::vector<SecondAttribute,std::allocator<SecondAttribute> >::capacity
_TEXT	ENDS
PUBLIC	?_Xlen@?$vector@USecondAttribute@@V?$allocator@USecondAttribute@@@std@@@std@@IBEXXZ ; std::vector<SecondAttribute,std::allocator<SecondAttribute> >::_Xlen
; Function compile flags: /Ogsp
;	COMDAT ?_Xlen@?$vector@USecondAttribute@@V?$allocator@USecondAttribute@@@std@@@std@@IBEXXZ
_TEXT	SEGMENT
?_Xlen@?$vector@USecondAttribute@@V?$allocator@USecondAttribute@@@std@@@std@@IBEXXZ PROC ; std::vector<SecondAttribute,std::allocator<SecondAttribute> >::_Xlen, COMDAT
; _this$ = ecx

; 1427 : 		_Xlength_error("vector<T> too long");

  00000	68 00 00 00 00	 push	 OFFSET ??_C@_0BD@OLBABOEK@vector?$DMT?$DO?5too?5long?$AA@
  00005	ff 15 00 00 00
	00		 call	 DWORD PTR __imp_?_Xlength_error@std@@YAXPBD@Z
$LN4@Xlen@2:
$LN3@Xlen@2:
  0000b	cc		 int	 3
?_Xlen@?$vector@USecondAttribute@@V?$allocator@USecondAttribute@@@std@@@std@@IBEXXZ ENDP ; std::vector<SecondAttribute,std::allocator<SecondAttribute> >::_Xlen
_TEXT	ENDS
PUBLIC	??0?$allocator@USecondAttribute@@@std@@QAE@ABV01@@Z ; std::allocator<SecondAttribute>::allocator<SecondAttribute>
; Function compile flags: /Ogsp
; File c:\program files (x86)\microsoft visual studio 10.0\vc\include\xmemory
;	COMDAT ??0?$allocator@USecondAttribute@@@std@@QAE@ABV01@@Z
_TEXT	SEGMENT
___formal$ = 8						; size = 4
??0?$allocator@USecondAttribute@@@std@@QAE@ABV01@@Z PROC ; std::allocator<SecondAttribute>::allocator<SecondAttribute>, COMDAT
; _this$ = ecx

; 165  : 	_ALLOCATOR(const _ALLOCATOR<_Ty>&) _THROW0()

  00000	8b c1		 mov	 eax, ecx

; 166  : 		{	// construct by copying (do nothing)
; 167  : 		}

  00002	c2 04 00	 ret	 4
??0?$allocator@USecondAttribute@@@std@@QAE@ABV01@@Z ENDP ; std::allocator<SecondAttribute>::allocator<SecondAttribute>
_TEXT	ENDS
PUBLIC	?deallocate@?$allocator@USecondAttribute@@@std@@QAEXPAUSecondAttribute@@I@Z ; std::allocator<SecondAttribute>::deallocate
; Function compile flags: /Ogsp
;	COMDAT ?deallocate@?$allocator@USecondAttribute@@@std@@QAEXPAUSecondAttribute@@I@Z
_TEXT	SEGMENT
__Ptr$ = 8						; size = 4
___formal$ = 12						; size = 4
?deallocate@?$allocator@USecondAttribute@@@std@@QAEXPAUSecondAttribute@@I@Z PROC ; std::allocator<SecondAttribute>::deallocate, COMDAT
; _this$ = ecx

; 181  : 		{	// deallocate object at _Ptr, ignore size

  00000	55		 push	 ebp
  00001	8b ec		 mov	 ebp, esp

; 182  : 		::operator delete(_Ptr);

  00003	ff 75 08	 push	 DWORD PTR __Ptr$[ebp]
  00006	e8 00 00 00 00	 call	 ??3@YAXPAX@Z		; operator delete
  0000b	59		 pop	 ecx

; 183  : 		}

  0000c	5d		 pop	 ebp
  0000d	c2 08 00	 ret	 8
?deallocate@?$allocator@USecondAttribute@@@std@@QAEXPAUSecondAttribute@@I@Z ENDP ; std::allocator<SecondAttribute>::deallocate
_TEXT	ENDS
PUBLIC	??0?$_Vector_const_iterator@V?$_Vector_val@UChangeDirInfo@@V?$allocator@UChangeDirInfo@@@std@@@std@@@std@@QAE@PAUChangeDirInfo@@PBU_Container_base0@1@@Z ; std::_Vector_const_iterator<std::_Vector_val<ChangeDirInfo,std::allocator<ChangeDirInfo> > >::_Vector_const_iterator<std::_Vector_val<ChangeDirInfo,std::allocator<ChangeDirInfo> > >
; Function compile flags: /Ogsp
; File c:\program files (x86)\microsoft visual studio 10.0\vc\include\vector
;	COMDAT ??0?$_Vector_const_iterator@V?$_Vector_val@UChangeDirInfo@@V?$allocator@UChangeDirInfo@@@std@@@std@@@std@@QAE@PAUChangeDirInfo@@PBU_Container_base0@1@@Z
_TEXT	SEGMENT
__Parg$ = 8						; size = 4
__Pvector$ = 12						; size = 4
??0?$_Vector_const_iterator@V?$_Vector_val@UChangeDirInfo@@V?$allocator@UChangeDirInfo@@@std@@@std@@@std@@QAE@PAUChangeDirInfo@@PBU_Container_base0@1@@Z PROC ; std::_Vector_const_iterator<std::_Vector_val<ChangeDirInfo,std::allocator<ChangeDirInfo> > >::_Vector_const_iterator<std::_Vector_val<ChangeDirInfo,std::allocator<ChangeDirInfo> > >, COMDAT
; _this$ = ecx

; 45   : 		{	// construct with pointer _Parg

  00000	55		 push	 ebp
  00001	8b ec		 mov	 ebp, esp
  00003	8b c1		 mov	 eax, ecx
  00005	8b 4d 08	 mov	 ecx, DWORD PTR __Parg$[ebp]
  00008	89 08		 mov	 DWORD PTR [eax], ecx

; 46   : 		this->_Adopt(_Pvector);
; 47   : 		}

  0000a	5d		 pop	 ebp
  0000b	c2 08 00	 ret	 8
??0?$_Vector_const_iterator@V?$_Vector_val@UChangeDirInfo@@V?$allocator@UChangeDirInfo@@@std@@@std@@@std@@QAE@PAUChangeDirInfo@@PBU_Container_base0@1@@Z ENDP ; std::_Vector_const_iterator<std::_Vector_val<ChangeDirInfo,std::allocator<ChangeDirInfo> > >::_Vector_const_iterator<std::_Vector_val<ChangeDirInfo,std::allocator<ChangeDirInfo> > >
_TEXT	ENDS
PUBLIC	?max_size@?$allocator@USecondAttribute@@@std@@QBEIXZ ; std::allocator<SecondAttribute>::max_size
; Function compile flags: /Ogsp
; File c:\program files (x86)\microsoft visual studio 10.0\vc\include\xmemory
;	COMDAT ?max_size@?$allocator@USecondAttribute@@@std@@QBEIXZ
_TEXT	SEGMENT
?max_size@?$allocator@USecondAttribute@@@std@@QBEIXZ PROC ; std::allocator<SecondAttribute>::max_size, COMDAT
; _this$ = ecx

; 218  : 		_SIZT _Count = (_SIZT)(-1) / sizeof (_Ty);
; 219  : 		return (0 < _Count ? _Count : 1);

  00000	b8 ff ff ff 1f	 mov	 eax, 536870911		; 1fffffffH

; 220  : 		}

  00005	c3		 ret	 0
?max_size@?$allocator@USecondAttribute@@@std@@QBEIXZ ENDP ; std::allocator<SecondAttribute>::max_size
_TEXT	ENDS
PUBLIC	??0?$_Vector_const_iterator@V?$_Vector_val@USecondAttribute@@V?$allocator@USecondAttribute@@@std@@@std@@@std@@QAE@PAUSecondAttribute@@PBU_Container_base0@1@@Z ; std::_Vector_const_iterator<std::_Vector_val<SecondAttribute,std::allocator<SecondAttribute> > >::_Vector_const_iterator<std::_Vector_val<SecondAttribute,std::allocator<SecondAttribute> > >
; Function compile flags: /Ogsp
; File c:\program files (x86)\microsoft visual studio 10.0\vc\include\vector
;	COMDAT ??0?$_Vector_const_iterator@V?$_Vector_val@USecondAttribute@@V?$allocator@USecondAttribute@@@std@@@std@@@std@@QAE@PAUSecondAttribute@@PBU_Container_base0@1@@Z
_TEXT	SEGMENT
__Parg$ = 8						; size = 4
__Pvector$ = 12						; size = 4
??0?$_Vector_const_iterator@V?$_Vector_val@USecondAttribute@@V?$allocator@USecondAttribute@@@std@@@std@@@std@@QAE@PAUSecondAttribute@@PBU_Container_base0@1@@Z PROC ; std::_Vector_const_iterator<std::_Vector_val<SecondAttribute,std::allocator<SecondAttribute> > >::_Vector_const_iterator<std::_Vector_val<SecondAttribute,std::allocator<SecondAttribute> > >, COMDAT
; _this$ = ecx

; 45   : 		{	// construct with pointer _Parg

  00000	55		 push	 ebp
  00001	8b ec		 mov	 ebp, esp
  00003	8b c1		 mov	 eax, ecx
  00005	8b 4d 08	 mov	 ecx, DWORD PTR __Parg$[ebp]
  00008	89 08		 mov	 DWORD PTR [eax], ecx

; 46   : 		this->_Adopt(_Pvector);
; 47   : 		}

  0000a	5d		 pop	 ebp
  0000b	c2 08 00	 ret	 8
??0?$_Vector_const_iterator@V?$_Vector_val@USecondAttribute@@V?$allocator@USecondAttribute@@@std@@@std@@@std@@QAE@PAUSecondAttribute@@PBU_Container_base0@1@@Z ENDP ; std::_Vector_const_iterator<std::_Vector_val<SecondAttribute,std::allocator<SecondAttribute> > >::_Vector_const_iterator<std::_Vector_val<SecondAttribute,std::allocator<SecondAttribute> > >
_TEXT	ENDS
PUBLIC	?_Compat@?$_Vector_const_iterator@V?$_Vector_val@UChangeDirInfo@@V?$allocator@UChangeDirInfo@@@std@@@std@@@std@@QBEXABV12@@Z ; std::_Vector_const_iterator<std::_Vector_val<ChangeDirInfo,std::allocator<ChangeDirInfo> > >::_Compat
; Function compile flags: /Ogsp
;	COMDAT ?_Compat@?$_Vector_const_iterator@V?$_Vector_val@UChangeDirInfo@@V?$allocator@UChangeDirInfo@@@std@@@std@@@std@@QBEXABV12@@Z
_TEXT	SEGMENT
___formal$ = 8						; size = 4
?_Compat@?$_Vector_const_iterator@V?$_Vector_val@UChangeDirInfo@@V?$allocator@UChangeDirInfo@@@std@@@std@@@std@@QBEXABV12@@Z PROC ; std::_Vector_const_iterator<std::_Vector_val<ChangeDirInfo,std::allocator<ChangeDirInfo> > >::_Compat, COMDAT
; _this$ = ecx

; 253  : 		}

  00000	c2 04 00	 ret	 4
?_Compat@?$_Vector_const_iterator@V?$_Vector_val@UChangeDirInfo@@V?$allocator@UChangeDirInfo@@@std@@@std@@@std@@QBEXABV12@@Z ENDP ; std::_Vector_const_iterator<std::_Vector_val<ChangeDirInfo,std::allocator<ChangeDirInfo> > >::_Compat
_TEXT	ENDS
PUBLIC	?_Compat@?$_Vector_const_iterator@V?$_Vector_val@USecondAttribute@@V?$allocator@USecondAttribute@@@std@@@std@@@std@@QBEXABV12@@Z ; std::_Vector_const_iterator<std::_Vector_val<SecondAttribute,std::allocator<SecondAttribute> > >::_Compat
; Function compile flags: /Ogsp
;	COMDAT ?_Compat@?$_Vector_const_iterator@V?$_Vector_val@USecondAttribute@@V?$allocator@USecondAttribute@@@std@@@std@@@std@@QBEXABV12@@Z
_TEXT	SEGMENT
___formal$ = 8						; size = 4
?_Compat@?$_Vector_const_iterator@V?$_Vector_val@USecondAttribute@@V?$allocator@USecondAttribute@@@std@@@std@@@std@@QBEXABV12@@Z PROC ; std::_Vector_const_iterator<std::_Vector_val<SecondAttribute,std::allocator<SecondAttribute> > >::_Compat, COMDAT
; _this$ = ecx

; 253  : 		}

  00000	c2 04 00	 ret	 4
?_Compat@?$_Vector_const_iterator@V?$_Vector_val@USecondAttribute@@V?$allocator@USecondAttribute@@@std@@@std@@@std@@QBEXABV12@@Z ENDP ; std::_Vector_const_iterator<std::_Vector_val<SecondAttribute,std::allocator<SecondAttribute> > >::_Compat
_TEXT	ENDS
PUBLIC	?D3DXVec3Cross@@YAPAUD3DXVECTOR3@@PAU1@PBU1@1@Z	; D3DXVec3Cross
; Function compile flags: /Ogsp
; File c:\program files (x86)\microsoft directx sdk (june 2010)\include\d3dx9math.inl
;	COMDAT ?D3DXVec3Cross@@YAPAUD3DXVECTOR3@@PAU1@PBU1@1@Z
_TEXT	SEGMENT
_v$ = -12						; size = 12
_pOut$ = 8						; size = 4
_pV1$ = 12						; size = 4
_pV2$ = 16						; size = 4
?D3DXVec3Cross@@YAPAUD3DXVECTOR3@@PAU1@PBU1@1@Z PROC	; D3DXVec3Cross, COMDAT

; 1747 : {

  00000	55		 push	 ebp
  00001	8b ec		 mov	 ebp, esp
  00003	83 ec 0c	 sub	 esp, 12			; 0000000cH

; 1757 :     v.z = pV1->x * pV2->y - pV1->y * pV2->x;
; 1758 : 
; 1759 :     *pOut = v;

  00006	56		 push	 esi
  00007	57		 push	 edi

; 1748 :     D3DXVECTOR3 v;
; 1749 : 
; 1750 : #ifdef D3DX_DEBUG
; 1751 :     if(!pOut || !pV1 || !pV2)
; 1752 :         return NULL;
; 1753 : #endif
; 1754 : 
; 1755 :     v.x = pV1->y * pV2->z - pV1->z * pV2->y;

  00008	8b 45 0c	 mov	 eax, DWORD PTR _pV1$[ebp]
  0000b	f3 0f 10 40 04	 movss	 xmm0, DWORD PTR [eax+4]
  00010	f3 0f 10 50 08	 movss	 xmm2, DWORD PTR [eax+8]
  00015	8b 4d 10	 mov	 ecx, DWORD PTR _pV2$[ebp]
  00018	f3 0f 10 49 08	 movss	 xmm1, DWORD PTR [ecx+8]
  0001d	f3 0f 10 59 04	 movss	 xmm3, DWORD PTR [ecx+4]
  00022	0f 5a e8	 cvtps2pd xmm5, xmm0
  00025	0f 5a e1	 cvtps2pd xmm4, xmm1
  00028	0f 5a f2	 cvtps2pd xmm6, xmm2
  0002b	f2 0f 59 e5	 mulsd	 xmm4, xmm5

; 1756 :     v.y = pV1->z * pV2->x - pV1->x * pV2->z;

  0002f	0f 5a d2	 cvtps2pd xmm2, xmm2
  00032	0f 5a c9	 cvtps2pd xmm1, xmm1
  00035	0f 5a eb	 cvtps2pd xmm5, xmm3
  00038	f2 0f 59 ee	 mulsd	 xmm5, xmm6
  0003c	f2 0f 5c e5	 subsd	 xmm4, xmm5
  00040	f3 0f 10 28	 movss	 xmm5, DWORD PTR [eax]

; 1757 :     v.z = pV1->x * pV2->y - pV1->y * pV2->x;
; 1758 : 
; 1759 :     *pOut = v;

  00044	8b 45 08	 mov	 eax, DWORD PTR _pOut$[ebp]
  00047	66 0f 5a e4	 cvtpd2ps xmm4, xmm4
  0004b	f3 0f 11 65 f4	 movss	 DWORD PTR _v$[ebp], xmm4
  00050	f3 0f 10 21	 movss	 xmm4, DWORD PTR [ecx]
  00054	0f 5a f4	 cvtps2pd xmm6, xmm4
  00057	f2 0f 59 f2	 mulsd	 xmm6, xmm2
  0005b	0f 5a d5	 cvtps2pd xmm2, xmm5
  0005e	f2 0f 59 d1	 mulsd	 xmm2, xmm1
  00062	f2 0f 5c f2	 subsd	 xmm6, xmm2
  00066	66 0f 5a ce	 cvtpd2ps xmm1, xmm6
  0006a	f3 0f 11 4d f8	 movss	 DWORD PTR _v$[ebp+4], xmm1
  0006f	0f 5a c0	 cvtps2pd xmm0, xmm0
  00072	0f 5a d3	 cvtps2pd xmm2, xmm3
  00075	0f 5a cd	 cvtps2pd xmm1, xmm5
  00078	f2 0f 59 ca	 mulsd	 xmm1, xmm2
  0007c	8d 75 f4	 lea	 esi, DWORD PTR _v$[ebp]
  0007f	8b f8		 mov	 edi, eax
  00081	0f 5a d4	 cvtps2pd xmm2, xmm4
  00084	f2 0f 59 d0	 mulsd	 xmm2, xmm0
  00088	f2 0f 5c ca	 subsd	 xmm1, xmm2
  0008c	66 0f 5a c1	 cvtpd2ps xmm0, xmm1
  00090	f3 0f 11 45 fc	 movss	 DWORD PTR _v$[ebp+8], xmm0
  00095	a5		 movsd
  00096	a5		 movsd
  00097	a5		 movsd
  00098	5f		 pop	 edi
  00099	5e		 pop	 esi

; 1760 :     return pOut;
; 1761 : }

  0009a	c9		 leave
  0009b	c3		 ret	 0
?D3DXVec3Cross@@YAPAUD3DXVECTOR3@@PAU1@PBU1@1@Z ENDP	; D3DXVec3Cross
_TEXT	ENDS
PUBLIC	__real@3f91df46a2526c7a
PUBLIC	??$DEGtoRAD@M@@YAMM@Z				; DEGtoRAD<float>
;	COMDAT __real@3f91df46a2526c7a
; File d:\lost saga for developer\youtube\tutorial\source\src\lsclient\veryoftenusedefine.h
CONST	SEGMENT
__real@3f91df46a2526c7a DQ 03f91df46a2526c7ar	; 0.0174533
; Function compile flags: /Ogsp
CONST	ENDS
;	COMDAT ??$DEGtoRAD@M@@YAMM@Z
_TEXT	SEGMENT
tv129 = 8						; size = 4
_val$ = 8						; size = 4
??$DEGtoRAD@M@@YAMM@Z PROC				; DEGtoRAD<float>, COMDAT

; 20   : type  DEGtoRAD (type val) {return (type) (val * 0.0174532925199);}

  00000	55		 push	 ebp
  00001	8b ec		 mov	 ebp, esp
  00003	d9 45 08	 fld	 DWORD PTR _val$[ebp]
  00006	dc 0d 00 00 00
	00		 fmul	 QWORD PTR __real@3f91df46a2526c7a
  0000c	d9 5d 08	 fstp	 DWORD PTR tv129[ebp]
  0000f	d9 45 08	 fld	 DWORD PTR tv129[ebp]
  00012	5d		 pop	 ebp
  00013	c3		 ret	 0
??$DEGtoRAD@M@@YAMM@Z ENDP				; DEGtoRAD<float>
_TEXT	ENDS
PUBLIC	??$addressof@$$CBUChangeDirInfo@@@std@@YAPBUChangeDirInfo@@ABU1@@Z ; std::addressof<ChangeDirInfo const >
; Function compile flags: /Ogsp
; File c:\program files (x86)\microsoft visual studio 10.0\vc\include\xmemory
;	COMDAT ??$addressof@$$CBUChangeDirInfo@@@std@@YAPBUChangeDirInfo@@ABU1@@Z
_TEXT	SEGMENT
__Val$ = 8						; size = 4
??$addressof@$$CBUChangeDirInfo@@@std@@YAPBUChangeDirInfo@@ABU1@@Z PROC ; std::addressof<ChangeDirInfo const >, COMDAT

; 110  : 	{	// return address of _Val

  00000	55		 push	 ebp
  00001	8b ec		 mov	 ebp, esp

; 111  : 	return ((_Ty *) &(char&)_Val);

  00003	8b 45 08	 mov	 eax, DWORD PTR __Val$[ebp]

; 112  : 	}

  00006	5d		 pop	 ebp
  00007	c3		 ret	 0
??$addressof@$$CBUChangeDirInfo@@@std@@YAPBUChangeDirInfo@@ABU1@@Z ENDP ; std::addressof<ChangeDirInfo const >
_TEXT	ENDS
PUBLIC	??$addressof@$$CBUSecondAttribute@@@std@@YAPBUSecondAttribute@@ABU1@@Z ; std::addressof<SecondAttribute const >
; Function compile flags: /Ogsp
;	COMDAT ??$addressof@$$CBUSecondAttribute@@@std@@YAPBUSecondAttribute@@ABU1@@Z
_TEXT	SEGMENT
__Val$ = 8						; size = 4
??$addressof@$$CBUSecondAttribute@@@std@@YAPBUSecondAttribute@@ABU1@@Z PROC ; std::addressof<SecondAttribute const >, COMDAT

; 110  : 	{	// return address of _Val

  00000	55		 push	 ebp
  00001	8b ec		 mov	 ebp, esp

; 111  : 	return ((_Ty *) &(char&)_Val);

  00003	8b 45 08	 mov	 eax, DWORD PTR __Val$[ebp]

; 112  : 	}

  00006	5d		 pop	 ebp
  00007	c3		 ret	 0
??$addressof@$$CBUSecondAttribute@@@std@@YAPBUSecondAttribute@@ABU1@@Z ENDP ; std::addressof<SecondAttribute const >
_TEXT	ENDS
PUBLIC	__TI2?AVbad_alloc@std@@
PUBLIC	??$_Allocate@UChangeDirInfo@@@std@@YAPAUChangeDirInfo@@IPAU1@@Z ; std::_Allocate<ChangeDirInfo>
PUBLIC	__CTA2?AVbad_alloc@std@@
PUBLIC	__CT??_R0?AVbad_alloc@std@@@8??0bad_alloc@std@@QAE@ABV01@@Z12
PUBLIC	??0bad_alloc@std@@QAE@ABV01@@Z			; std::bad_alloc::bad_alloc
PUBLIC	__CT??_R0?AVexception@std@@@8??0exception@std@@QAE@ABV01@@Z12
EXTRN	??2@YAPAXI@Z:PROC				; operator new
EXTRN	__CxxThrowException@8:PROC
EXTRN	??0exception@std@@QAE@ABV01@@Z:PROC		; std::exception::exception
;	COMDAT __CT??_R0?AVexception@std@@@8??0exception@std@@QAE@ABV01@@Z12
; File c:\program files (x86)\microsoft visual studio 10.0\vc\include\exception
xdata$x	SEGMENT
__CT??_R0?AVexception@std@@@8??0exception@std@@QAE@ABV01@@Z12 DD 00H
	DD	FLAT:??_R0?AVexception@std@@@8
	DD	00H
	DD	0ffffffffH
	ORG $+4
	DD	0cH
	DD	FLAT:??0exception@std@@QAE@ABV01@@Z
xdata$x	ENDS
;	COMDAT __CT??_R0?AVbad_alloc@std@@@8??0bad_alloc@std@@QAE@ABV01@@Z12
xdata$x	SEGMENT
__CT??_R0?AVbad_alloc@std@@@8??0bad_alloc@std@@QAE@ABV01@@Z12 DD 00H
	DD	FLAT:??_R0?AVbad_alloc@std@@@8
	DD	00H
	DD	0ffffffffH
	ORG $+4
	DD	0cH
	DD	FLAT:??0bad_alloc@std@@QAE@ABV01@@Z
xdata$x	ENDS
;	COMDAT __CTA2?AVbad_alloc@std@@
xdata$x	SEGMENT
__CTA2?AVbad_alloc@std@@ DD 02H
	DD	FLAT:__CT??_R0?AVbad_alloc@std@@@8??0bad_alloc@std@@QAE@ABV01@@Z12
	DD	FLAT:__CT??_R0?AVexception@std@@@8??0exception@std@@QAE@ABV01@@Z12
xdata$x	ENDS
;	COMDAT __TI2?AVbad_alloc@std@@
xdata$x	SEGMENT
__TI2?AVbad_alloc@std@@ DD 00H
	DD	FLAT:??1bad_alloc@std@@UAE@XZ
	DD	00H
	DD	FLAT:__CTA2?AVbad_alloc@std@@
; Function compile flags: /Ogsp
; File c:\program files (x86)\microsoft visual studio 10.0\vc\include\xmemory
xdata$x	ENDS
;	COMDAT ??$_Allocate@UChangeDirInfo@@@std@@YAPAUChangeDirInfo@@IPAU1@@Z
_TEXT	SEGMENT
$T588321 = -12						; size = 12
$T588326 = 8						; size = 4
__Count$ = 8						; size = 4
___formal$ = 12						; size = 4
??$_Allocate@UChangeDirInfo@@@std@@YAPAUChangeDirInfo@@IPAU1@@Z PROC ; std::_Allocate<ChangeDirInfo>, COMDAT

; 30   : 	{	// allocate storage for _Count elements of type _Ty

  00000	55		 push	 ebp
  00001	8b ec		 mov	 ebp, esp

; 31   : 	void *_Ptr = 0;
; 32   : 
; 33   : 	if (_Count <= 0)

  00003	8b 4d 08	 mov	 ecx, DWORD PTR __Count$[ebp]
  00006	83 ec 0c	 sub	 esp, 12			; 0000000cH
  00009	33 c0		 xor	 eax, eax
  0000b	85 c9		 test	 ecx, ecx

; 34   : 		_Count = 0;
; 35   : 	else if (((_SIZT)(-1) / sizeof (_Ty) < _Count)

  0000d	74 3c		 je	 SHORT $LN5@Allocate

; 36   : 		|| (_Ptr = ::operator new(_Count * sizeof (_Ty))) == 0)

  0000f	81 f9 49 92 24
	09		 cmp	 ecx, 153391689		; 09249249H
  00015	77 0e		 ja	 SHORT $LN1@Allocate
  00017	6b c9 1c	 imul	 ecx, 28			; 0000001cH
  0001a	51		 push	 ecx
  0001b	e8 00 00 00 00	 call	 ??2@YAPAXI@Z		; operator new
  00020	59		 pop	 ecx
  00021	85 c0		 test	 eax, eax

; 38   : 
; 39   : 	return ((_Ty _FARQ *)_Ptr);

  00023	75 26		 jne	 SHORT $LN5@Allocate
$LN1@Allocate:

; 37   : 		_THROW_NCEE(bad_alloc, 0);

  00025	83 65 08 00	 and	 DWORD PTR $T588326[ebp], 0
  00029	8d 45 08	 lea	 eax, DWORD PTR $T588326[ebp]
  0002c	50		 push	 eax
  0002d	8d 4d f4	 lea	 ecx, DWORD PTR $T588321[ebp]
  00030	ff 15 00 00 00
	00		 call	 DWORD PTR __imp_??0exception@std@@QAE@ABQBD@Z
  00036	68 00 00 00 00	 push	 OFFSET __TI2?AVbad_alloc@std@@
  0003b	8d 45 f4	 lea	 eax, DWORD PTR $T588321[ebp]
  0003e	50		 push	 eax
  0003f	c7 45 f4 00 00
	00 00		 mov	 DWORD PTR $T588321[ebp], OFFSET ??_7bad_alloc@std@@6B@
  00046	e8 00 00 00 00	 call	 __CxxThrowException@8
$LN10@Allocate:
$LN5@Allocate:

; 40   : 	}

  0004b	c9		 leave
  0004c	c3		 ret	 0
$LN9@Allocate:
??$_Allocate@UChangeDirInfo@@@std@@YAPAUChangeDirInfo@@IPAU1@@Z ENDP ; std::_Allocate<ChangeDirInfo>
_TEXT	ENDS
PUBLIC	??$_Allocate@USecondAttribute@@@std@@YAPAUSecondAttribute@@IPAU1@@Z ; std::_Allocate<SecondAttribute>
; Function compile flags: /Ogsp
;	COMDAT ??$_Allocate@USecondAttribute@@@std@@YAPAUSecondAttribute@@IPAU1@@Z
_TEXT	SEGMENT
$T588331 = -12						; size = 12
$T588335 = 8						; size = 4
__Count$ = 8						; size = 4
___formal$ = 12						; size = 4
??$_Allocate@USecondAttribute@@@std@@YAPAUSecondAttribute@@IPAU1@@Z PROC ; std::_Allocate<SecondAttribute>, COMDAT

; 30   : 	{	// allocate storage for _Count elements of type _Ty

  00000	55		 push	 ebp
  00001	8b ec		 mov	 ebp, esp

; 31   : 	void *_Ptr = 0;
; 32   : 
; 33   : 	if (_Count <= 0)

  00003	8b 4d 08	 mov	 ecx, DWORD PTR __Count$[ebp]
  00006	83 ec 0c	 sub	 esp, 12			; 0000000cH
  00009	33 c0		 xor	 eax, eax
  0000b	85 c9		 test	 ecx, ecx

; 34   : 		_Count = 0;
; 35   : 	else if (((_SIZT)(-1) / sizeof (_Ty) < _Count)

  0000d	74 3e		 je	 SHORT $LN5@Allocate@2

; 36   : 		|| (_Ptr = ::operator new(_Count * sizeof (_Ty))) == 0)

  0000f	81 f9 ff ff ff
	1f		 cmp	 ecx, 536870911		; 1fffffffH
  00015	77 10		 ja	 SHORT $LN1@Allocate@2
  00017	8b c1		 mov	 eax, ecx
  00019	c1 e0 03	 shl	 eax, 3
  0001c	50		 push	 eax
  0001d	e8 00 00 00 00	 call	 ??2@YAPAXI@Z		; operator new
  00022	59		 pop	 ecx
  00023	85 c0		 test	 eax, eax

; 38   : 
; 39   : 	return ((_Ty _FARQ *)_Ptr);

  00025	75 26		 jne	 SHORT $LN5@Allocate@2
$LN1@Allocate@2:

; 37   : 		_THROW_NCEE(bad_alloc, 0);

  00027	83 65 08 00	 and	 DWORD PTR $T588335[ebp], 0
  0002b	8d 45 08	 lea	 eax, DWORD PTR $T588335[ebp]
  0002e	50		 push	 eax
  0002f	8d 4d f4	 lea	 ecx, DWORD PTR $T588331[ebp]
  00032	ff 15 00 00 00
	00		 call	 DWORD PTR __imp_??0exception@std@@QAE@ABQBD@Z
  00038	68 00 00 00 00	 push	 OFFSET __TI2?AVbad_alloc@std@@
  0003d	8d 45 f4	 lea	 eax, DWORD PTR $T588331[ebp]
  00040	50		 push	 eax
  00041	c7 45 f4 00 00
	00 00		 mov	 DWORD PTR $T588331[ebp], OFFSET ??_7bad_alloc@std@@6B@
  00048	e8 00 00 00 00	 call	 __CxxThrowException@8
$LN10@Allocate@2:
$LN5@Allocate@2:

; 40   : 	}

  0004d	c9		 leave
  0004e	c3		 ret	 0
$LN9@Allocate@2:
??$_Allocate@USecondAttribute@@@std@@YAPAUSecondAttribute@@IPAU1@@Z ENDP ; std::_Allocate<SecondAttribute>
_TEXT	ENDS
PUBLIC	??G?$_Vector_const_iterator@V?$_Vector_val@UChangeDirInfo@@V?$allocator@UChangeDirInfo@@@std@@@std@@@std@@QBEHABV01@@Z ; std::_Vector_const_iterator<std::_Vector_val<ChangeDirInfo,std::allocator<ChangeDirInfo> > >::operator-
; Function compile flags: /Ogsp
; File c:\program files (x86)\microsoft visual studio 10.0\vc\include\vector
;	COMDAT ??G?$_Vector_const_iterator@V?$_Vector_val@UChangeDirInfo@@V?$allocator@UChangeDirInfo@@@std@@@std@@@std@@QBEHABV01@@Z
_TEXT	SEGMENT
__Right$ = 8						; size = 4
??G?$_Vector_const_iterator@V?$_Vector_val@UChangeDirInfo@@V?$allocator@UChangeDirInfo@@@std@@@std@@@std@@QBEHABV01@@Z PROC ; std::_Vector_const_iterator<std::_Vector_val<ChangeDirInfo,std::allocator<ChangeDirInfo> > >::operator-, COMDAT
; _this$ = ecx

; 190  : 		{	// return difference of iterators

  00000	55		 push	 ebp
  00001	8b ec		 mov	 ebp, esp

; 191  : 		_Compat(_Right);
; 192  : 		return (this->_Ptr - _Right._Ptr);

  00003	8b 01		 mov	 eax, DWORD PTR [ecx]
  00005	8b 4d 08	 mov	 ecx, DWORD PTR __Right$[ebp]
  00008	2b 01		 sub	 eax, DWORD PTR [ecx]
  0000a	6a 1c		 push	 28			; 0000001cH
  0000c	99		 cdq
  0000d	59		 pop	 ecx
  0000e	f7 f9		 idiv	 ecx

; 193  : 		}

  00010	5d		 pop	 ebp
  00011	c2 04 00	 ret	 4
??G?$_Vector_const_iterator@V?$_Vector_val@UChangeDirInfo@@V?$allocator@UChangeDirInfo@@@std@@@std@@@std@@QBEHABV01@@Z ENDP ; std::_Vector_const_iterator<std::_Vector_val<ChangeDirInfo,std::allocator<ChangeDirInfo> > >::operator-
_TEXT	ENDS
PUBLIC	??$forward@AAUChangeDirInfo@@@std@@YAAAUChangeDirInfo@@AAU1@@Z ; std::forward<ChangeDirInfo &>
; Function compile flags: /Ogsp
; File c:\program files (x86)\microsoft visual studio 10.0\vc\include\utility
;	COMDAT ??$forward@AAUChangeDirInfo@@@std@@YAAAUChangeDirInfo@@AAU1@@Z
_TEXT	SEGMENT
__Arg$ = 8						; size = 4
??$forward@AAUChangeDirInfo@@@std@@YAAAUChangeDirInfo@@AAU1@@Z PROC ; std::forward<ChangeDirInfo &>, COMDAT

; 78   : 	{	// forward _Arg, given explicitly specified type parameter

  00000	55		 push	 ebp
  00001	8b ec		 mov	 ebp, esp

; 79   : 	return ((_Ty&&)_Arg);

  00003	8b 45 08	 mov	 eax, DWORD PTR __Arg$[ebp]

; 80   : 	}

  00006	5d		 pop	 ebp
  00007	c3		 ret	 0
??$forward@AAUChangeDirInfo@@@std@@YAAAUChangeDirInfo@@AAU1@@Z ENDP ; std::forward<ChangeDirInfo &>
_TEXT	ENDS
PUBLIC	??$construct@AAUChangeDirInfo@@@?$allocator@UChangeDirInfo@@@std@@QAEXPAUChangeDirInfo@@AAU2@@Z ; std::allocator<ChangeDirInfo>::construct<ChangeDirInfo &>
; Function compile flags: /Ogsp
; File c:\program files (x86)\microsoft visual studio 10.0\vc\include\xmemory
;	COMDAT ??$construct@AAUChangeDirInfo@@@?$allocator@UChangeDirInfo@@@std@@QAEXPAUChangeDirInfo@@AAU2@@Z
_TEXT	SEGMENT
__Ptr$ = 8						; size = 4
__Val$ = 12						; size = 4
??$construct@AAUChangeDirInfo@@@?$allocator@UChangeDirInfo@@@std@@QAEXPAUChangeDirInfo@@AAU2@@Z PROC ; std::allocator<ChangeDirInfo>::construct<ChangeDirInfo &>, COMDAT
; _this$ = ecx

; 206  : 		void construct(pointer _Ptr, _Other&& _Val)

  00000	55		 push	 ebp
  00001	8b ec		 mov	 ebp, esp
  00003	57		 push	 edi

; 207  : 		{	// construct object at _Ptr with value _Val
; 208  : 		::new ((void _FARQ *)_Ptr) _Ty(_STD forward<_Other>(_Val));

  00004	8b 7d 08	 mov	 edi, DWORD PTR __Ptr$[ebp]
  00007	85 ff		 test	 edi, edi
  00009	74 0a		 je	 SHORT $LN3@construct
  0000b	56		 push	 esi
  0000c	8b 75 0c	 mov	 esi, DWORD PTR __Val$[ebp]
  0000f	6a 07		 push	 7
  00011	59		 pop	 ecx
  00012	f3 a5		 rep movsd
  00014	5e		 pop	 esi
$LN3@construct:
  00015	5f		 pop	 edi

; 209  : 		}

  00016	5d		 pop	 ebp
  00017	c2 08 00	 ret	 8
??$construct@AAUChangeDirInfo@@@?$allocator@UChangeDirInfo@@@std@@QAEXPAUChangeDirInfo@@AAU2@@Z ENDP ; std::allocator<ChangeDirInfo>::construct<ChangeDirInfo &>
_TEXT	ENDS
PUBLIC	??$forward@ABUChangeDirInfo@@@std@@YAABUChangeDirInfo@@ABU1@@Z ; std::forward<ChangeDirInfo const &>
; Function compile flags: /Ogsp
; File c:\program files (x86)\microsoft visual studio 10.0\vc\include\utility
;	COMDAT ??$forward@ABUChangeDirInfo@@@std@@YAABUChangeDirInfo@@ABU1@@Z
_TEXT	SEGMENT
__Arg$ = 8						; size = 4
??$forward@ABUChangeDirInfo@@@std@@YAABUChangeDirInfo@@ABU1@@Z PROC ; std::forward<ChangeDirInfo const &>, COMDAT

; 78   : 	{	// forward _Arg, given explicitly specified type parameter

  00000	55		 push	 ebp
  00001	8b ec		 mov	 ebp, esp

; 79   : 	return ((_Ty&&)_Arg);

  00003	8b 45 08	 mov	 eax, DWORD PTR __Arg$[ebp]

; 80   : 	}

  00006	5d		 pop	 ebp
  00007	c3		 ret	 0
??$forward@ABUChangeDirInfo@@@std@@YAABUChangeDirInfo@@ABU1@@Z ENDP ; std::forward<ChangeDirInfo const &>
_TEXT	ENDS
PUBLIC	??$_Ptr_cat@UChangeDirInfo@@U1@@std@@YA?AU_Nonscalar_ptr_iterator_tag@0@PAUChangeDirInfo@@0@Z ; std::_Ptr_cat<ChangeDirInfo,ChangeDirInfo>
; Function compile flags: /Ogsp
; File c:\program files (x86)\microsoft visual studio 10.0\vc\include\xutility
;	COMDAT ??$_Ptr_cat@UChangeDirInfo@@U1@@std@@YA?AU_Nonscalar_ptr_iterator_tag@0@PAUChangeDirInfo@@0@Z
_TEXT	SEGMENT
__Cat$ = -1						; size = 1
___formal$ = 8						; size = 4
___formal$ = 12						; size = 4
??$_Ptr_cat@UChangeDirInfo@@U1@@std@@YA?AU_Nonscalar_ptr_iterator_tag@0@PAUChangeDirInfo@@0@Z PROC ; std::_Ptr_cat<ChangeDirInfo,ChangeDirInfo>, COMDAT

; 516  : 	{	// return pointer category from pointers

  00000	55		 push	 ebp
  00001	8b ec		 mov	 ebp, esp
  00003	51		 push	 ecx

; 517  : 	typename _Ptr_cat_helper<_Elem1, _Elem2>::_Type _Cat;
; 518  : 	return (_Cat);

  00004	8a 45 ff	 mov	 al, BYTE PTR __Cat$[ebp]

; 519  : 	}

  00007	c9		 leave
  00008	c3		 ret	 0
??$_Ptr_cat@UChangeDirInfo@@U1@@std@@YA?AU_Nonscalar_ptr_iterator_tag@0@PAUChangeDirInfo@@0@Z ENDP ; std::_Ptr_cat<ChangeDirInfo,ChangeDirInfo>
_TEXT	ENDS
PUBLIC	??$forward@AAUSecondAttribute@@@std@@YAAAUSecondAttribute@@AAU1@@Z ; std::forward<SecondAttribute &>
; Function compile flags: /Ogsp
; File c:\program files (x86)\microsoft visual studio 10.0\vc\include\utility
;	COMDAT ??$forward@AAUSecondAttribute@@@std@@YAAAUSecondAttribute@@AAU1@@Z
_TEXT	SEGMENT
__Arg$ = 8						; size = 4
??$forward@AAUSecondAttribute@@@std@@YAAAUSecondAttribute@@AAU1@@Z PROC ; std::forward<SecondAttribute &>, COMDAT

; 78   : 	{	// forward _Arg, given explicitly specified type parameter

  00000	55		 push	 ebp
  00001	8b ec		 mov	 ebp, esp

; 79   : 	return ((_Ty&&)_Arg);

  00003	8b 45 08	 mov	 eax, DWORD PTR __Arg$[ebp]

; 80   : 	}

  00006	5d		 pop	 ebp
  00007	c3		 ret	 0
??$forward@AAUSecondAttribute@@@std@@YAAAUSecondAttribute@@AAU1@@Z ENDP ; std::forward<SecondAttribute &>
_TEXT	ENDS
PUBLIC	??$construct@AAUSecondAttribute@@@?$allocator@USecondAttribute@@@std@@QAEXPAUSecondAttribute@@AAU2@@Z ; std::allocator<SecondAttribute>::construct<SecondAttribute &>
; Function compile flags: /Ogsp
; File c:\program files (x86)\microsoft visual studio 10.0\vc\include\xmemory
;	COMDAT ??$construct@AAUSecondAttribute@@@?$allocator@USecondAttribute@@@std@@QAEXPAUSecondAttribute@@AAU2@@Z
_TEXT	SEGMENT
__Ptr$ = 8						; size = 4
__Val$ = 12						; size = 4
??$construct@AAUSecondAttribute@@@?$allocator@USecondAttribute@@@std@@QAEXPAUSecondAttribute@@AAU2@@Z PROC ; std::allocator<SecondAttribute>::construct<SecondAttribute &>, COMDAT
; _this$ = ecx

; 206  : 		void construct(pointer _Ptr, _Other&& _Val)

  00000	55		 push	 ebp
  00001	8b ec		 mov	 ebp, esp

; 207  : 		{	// construct object at _Ptr with value _Val
; 208  : 		::new ((void _FARQ *)_Ptr) _Ty(_STD forward<_Other>(_Val));

  00003	8b 45 08	 mov	 eax, DWORD PTR __Ptr$[ebp]
  00006	85 c0		 test	 eax, eax
  00008	74 0d		 je	 SHORT $LN3@construct@2
  0000a	8b 4d 0c	 mov	 ecx, DWORD PTR __Val$[ebp]
  0000d	8b 11		 mov	 edx, DWORD PTR [ecx]
  0000f	89 10		 mov	 DWORD PTR [eax], edx
  00011	8b 49 04	 mov	 ecx, DWORD PTR [ecx+4]
  00014	89 48 04	 mov	 DWORD PTR [eax+4], ecx
$LN3@construct@2:

; 209  : 		}

  00017	5d		 pop	 ebp
  00018	c2 08 00	 ret	 8
??$construct@AAUSecondAttribute@@@?$allocator@USecondAttribute@@@std@@QAEXPAUSecondAttribute@@AAU2@@Z ENDP ; std::allocator<SecondAttribute>::construct<SecondAttribute &>
_TEXT	ENDS
PUBLIC	??$forward@ABUSecondAttribute@@@std@@YAABUSecondAttribute@@ABU1@@Z ; std::forward<SecondAttribute const &>
; Function compile flags: /Ogsp
; File c:\program files (x86)\microsoft visual studio 10.0\vc\include\utility
;	COMDAT ??$forward@ABUSecondAttribute@@@std@@YAABUSecondAttribute@@ABU1@@Z
_TEXT	SEGMENT
__Arg$ = 8						; size = 4
??$forward@ABUSecondAttribute@@@std@@YAABUSecondAttribute@@ABU1@@Z PROC ; std::forward<SecondAttribute const &>, COMDAT

; 78   : 	{	// forward _Arg, given explicitly specified type parameter

  00000	55		 push	 ebp
  00001	8b ec		 mov	 ebp, esp

; 79   : 	return ((_Ty&&)_Arg);

  00003	8b 45 08	 mov	 eax, DWORD PTR __Arg$[ebp]

; 80   : 	}

  00006	5d		 pop	 ebp
  00007	c3		 ret	 0
??$forward@ABUSecondAttribute@@@std@@YAABUSecondAttribute@@ABU1@@Z ENDP ; std::forward<SecondAttribute const &>
_TEXT	ENDS
PUBLIC	??$_Ptr_cat@USecondAttribute@@U1@@std@@YA?AU_Nonscalar_ptr_iterator_tag@0@PAUSecondAttribute@@0@Z ; std::_Ptr_cat<SecondAttribute,SecondAttribute>
; Function compile flags: /Ogsp
; File c:\program files (x86)\microsoft visual studio 10.0\vc\include\xutility
;	COMDAT ??$_Ptr_cat@USecondAttribute@@U1@@std@@YA?AU_Nonscalar_ptr_iterator_tag@0@PAUSecondAttribute@@0@Z
_TEXT	SEGMENT
__Cat$ = -1						; size = 1
___formal$ = 8						; size = 4
___formal$ = 12						; size = 4
??$_Ptr_cat@USecondAttribute@@U1@@std@@YA?AU_Nonscalar_ptr_iterator_tag@0@PAUSecondAttribute@@0@Z PROC ; std::_Ptr_cat<SecondAttribute,SecondAttribute>, COMDAT

; 516  : 	{	// return pointer category from pointers

  00000	55		 push	 ebp
  00001	8b ec		 mov	 ebp, esp
  00003	51		 push	 ecx

; 517  : 	typename _Ptr_cat_helper<_Elem1, _Elem2>::_Type _Cat;
; 518  : 	return (_Cat);

  00004	8a 45 ff	 mov	 al, BYTE PTR __Cat$[ebp]

; 519  : 	}

  00007	c9		 leave
  00008	c3		 ret	 0
??$_Ptr_cat@USecondAttribute@@U1@@std@@YA?AU_Nonscalar_ptr_iterator_tag@0@PAUSecondAttribute@@0@Z ENDP ; std::_Ptr_cat<SecondAttribute,SecondAttribute>
_TEXT	ENDS
PUBLIC	??$_Construct@UChangeDirInfo@@ABU1@@std@@YAXPAUChangeDirInfo@@ABU1@@Z ; std::_Construct<ChangeDirInfo,ChangeDirInfo const &>
; Function compile flags: /Ogsp
; File c:\program files (x86)\microsoft visual studio 10.0\vc\include\xmemory
;	COMDAT ??$_Construct@UChangeDirInfo@@ABU1@@std@@YAXPAUChangeDirInfo@@ABU1@@Z
_TEXT	SEGMENT
__Ptr$ = 8						; size = 4
__Val$ = 12						; size = 4
??$_Construct@UChangeDirInfo@@ABU1@@std@@YAXPAUChangeDirInfo@@ABU1@@Z PROC ; std::_Construct<ChangeDirInfo,ChangeDirInfo const &>, COMDAT

; 46   : 	{	// construct object at _Ptr with value _Val

  00000	55		 push	 ebp
  00001	8b ec		 mov	 ebp, esp
  00003	57		 push	 edi

; 47   : 	void _FARQ *_Vptr = _Ptr;
; 48   : 	::new (_Vptr) _Ty1(_STD forward<_Ty2>(_Val));

  00004	8b 7d 08	 mov	 edi, DWORD PTR __Ptr$[ebp]
  00007	85 ff		 test	 edi, edi
  00009	74 0a		 je	 SHORT $LN3@Construct
  0000b	56		 push	 esi
  0000c	8b 75 0c	 mov	 esi, DWORD PTR __Val$[ebp]
  0000f	6a 07		 push	 7
  00011	59		 pop	 ecx
  00012	f3 a5		 rep movsd
  00014	5e		 pop	 esi
$LN3@Construct:
  00015	5f		 pop	 edi

; 49   : 	}

  00016	5d		 pop	 ebp
  00017	c3		 ret	 0
??$_Construct@UChangeDirInfo@@ABU1@@std@@YAXPAUChangeDirInfo@@ABU1@@Z ENDP ; std::_Construct<ChangeDirInfo,ChangeDirInfo const &>
_TEXT	ENDS
PUBLIC	??$_Construct@USecondAttribute@@ABU1@@std@@YAXPAUSecondAttribute@@ABU1@@Z ; std::_Construct<SecondAttribute,SecondAttribute const &>
; Function compile flags: /Ogsp
;	COMDAT ??$_Construct@USecondAttribute@@ABU1@@std@@YAXPAUSecondAttribute@@ABU1@@Z
_TEXT	SEGMENT
__Ptr$ = 8						; size = 4
__Val$ = 12						; size = 4
??$_Construct@USecondAttribute@@ABU1@@std@@YAXPAUSecondAttribute@@ABU1@@Z PROC ; std::_Construct<SecondAttribute,SecondAttribute const &>, COMDAT

; 46   : 	{	// construct object at _Ptr with value _Val

  00000	55		 push	 ebp
  00001	8b ec		 mov	 ebp, esp

; 47   : 	void _FARQ *_Vptr = _Ptr;
; 48   : 	::new (_Vptr) _Ty1(_STD forward<_Ty2>(_Val));

  00003	8b 45 08	 mov	 eax, DWORD PTR __Ptr$[ebp]
  00006	85 c0		 test	 eax, eax
  00008	74 0d		 je	 SHORT $LN3@Construct@2
  0000a	8b 4d 0c	 mov	 ecx, DWORD PTR __Val$[ebp]
  0000d	8b 11		 mov	 edx, DWORD PTR [ecx]
  0000f	89 10		 mov	 DWORD PTR [eax], edx
  00011	8b 49 04	 mov	 ecx, DWORD PTR [ecx+4]
  00014	89 48 04	 mov	 DWORD PTR [eax+4], ecx
$LN3@Construct@2:

; 49   : 	}

  00017	5d		 pop	 ebp
  00018	c3		 ret	 0
??$_Construct@USecondAttribute@@ABU1@@std@@YAXPAUSecondAttribute@@ABU1@@Z ENDP ; std::_Construct<SecondAttribute,SecondAttribute const &>
_TEXT	ENDS
PUBLIC	?_Unchecked@?$_Vector_iterator@V?$_Vector_val@UChangeDirInfo@@V?$allocator@UChangeDirInfo@@@std@@@std@@@std@@QBEPAUChangeDirInfo@@XZ ; std::_Vector_iterator<std::_Vector_val<ChangeDirInfo,std::allocator<ChangeDirInfo> > >::_Unchecked
; Function compile flags: /Ogsp
; File c:\program files (x86)\microsoft visual studio 10.0\vc\include\vector
;	COMDAT ?_Unchecked@?$_Vector_iterator@V?$_Vector_val@UChangeDirInfo@@V?$allocator@UChangeDirInfo@@@std@@@std@@@std@@QBEPAUChangeDirInfo@@XZ
_TEXT	SEGMENT
?_Unchecked@?$_Vector_iterator@V?$_Vector_val@UChangeDirInfo@@V?$allocator@UChangeDirInfo@@@std@@@std@@@std@@QBEPAUChangeDirInfo@@XZ PROC ; std::_Vector_iterator<std::_Vector_val<ChangeDirInfo,std::allocator<ChangeDirInfo> > >::_Unchecked, COMDAT
; _this$ = ecx

; 317  : 		return (_Unchecked_type(this->_Ptr));

  00000	8b 01		 mov	 eax, DWORD PTR [ecx]

; 318  : 		}

  00002	c3		 ret	 0
?_Unchecked@?$_Vector_iterator@V?$_Vector_val@UChangeDirInfo@@V?$allocator@UChangeDirInfo@@@std@@@std@@@std@@QBEPAUChangeDirInfo@@XZ ENDP ; std::_Vector_iterator<std::_Vector_val<ChangeDirInfo,std::allocator<ChangeDirInfo> > >::_Unchecked
_TEXT	ENDS
PUBLIC	??$_Val_type@PAUChangeDirInfo@@@std@@YAPAUChangeDirInfo@@PAU1@@Z ; std::_Val_type<ChangeDirInfo *>
; Function compile flags: /Ogsp
; File c:\program files (x86)\microsoft visual studio 10.0\vc\include\xutility
;	COMDAT ??$_Val_type@PAUChangeDirInfo@@@std@@YAPAUChangeDirInfo@@PAU1@@Z
_TEXT	SEGMENT
___formal$ = 8						; size = 4
??$_Val_type@PAUChangeDirInfo@@@std@@YAPAUChangeDirInfo@@PAU1@@Z PROC ; std::_Val_type<ChangeDirInfo *>, COMDAT

; 790  : 	return (0);

  00000	33 c0		 xor	 eax, eax

; 791  : 	}

  00002	c3		 ret	 0
??$_Val_type@PAUChangeDirInfo@@@std@@YAPAUChangeDirInfo@@PAU1@@Z ENDP ; std::_Val_type<ChangeDirInfo *>
_TEXT	ENDS
PUBLIC	??$move@AAUChangeDirInfo@@@std@@YA$$QAUChangeDirInfo@@AAU1@@Z ; std::move<ChangeDirInfo &>
; Function compile flags: /Ogsp
; File c:\program files (x86)\microsoft visual studio 10.0\vc\include\utility
;	COMDAT ??$move@AAUChangeDirInfo@@@std@@YA$$QAUChangeDirInfo@@AAU1@@Z
_TEXT	SEGMENT
__Arg$ = 8						; size = 4
??$move@AAUChangeDirInfo@@@std@@YA$$QAUChangeDirInfo@@AAU1@@Z PROC ; std::move<ChangeDirInfo &>, COMDAT

; 86   : 	{	// forward _Arg as movable

  00000	55		 push	 ebp
  00001	8b ec		 mov	 ebp, esp

; 87   : 	return ((typename tr1::_Remove_reference<_Ty>::_Type&&)_Arg);

  00003	8b 45 08	 mov	 eax, DWORD PTR __Arg$[ebp]

; 88   : 	}

  00006	5d		 pop	 ebp
  00007	c3		 ret	 0
??$move@AAUChangeDirInfo@@@std@@YA$$QAUChangeDirInfo@@AAU1@@Z ENDP ; std::move<ChangeDirInfo &>
_TEXT	ENDS
PUBLIC	??$move@AAUSecondAttribute@@@std@@YA$$QAUSecondAttribute@@AAU1@@Z ; std::move<SecondAttribute &>
; Function compile flags: /Ogsp
;	COMDAT ??$move@AAUSecondAttribute@@@std@@YA$$QAUSecondAttribute@@AAU1@@Z
_TEXT	SEGMENT
__Arg$ = 8						; size = 4
??$move@AAUSecondAttribute@@@std@@YA$$QAUSecondAttribute@@AAU1@@Z PROC ; std::move<SecondAttribute &>, COMDAT

; 86   : 	{	// forward _Arg as movable

  00000	55		 push	 ebp
  00001	8b ec		 mov	 ebp, esp

; 87   : 	return ((typename tr1::_Remove_reference<_Ty>::_Type&&)_Arg);

  00003	8b 45 08	 mov	 eax, DWORD PTR __Arg$[ebp]

; 88   : 	}

  00006	5d		 pop	 ebp
  00007	c3		 ret	 0
??$move@AAUSecondAttribute@@@std@@YA$$QAUSecondAttribute@@AAU1@@Z ENDP ; std::move<SecondAttribute &>
_TEXT	ENDS
PUBLIC	??$_Val_type@PAUSecondAttribute@@@std@@YAPAUSecondAttribute@@PAU1@@Z ; std::_Val_type<SecondAttribute *>
; Function compile flags: /Ogsp
; File c:\program files (x86)\microsoft visual studio 10.0\vc\include\xutility
;	COMDAT ??$_Val_type@PAUSecondAttribute@@@std@@YAPAUSecondAttribute@@PAU1@@Z
_TEXT	SEGMENT
___formal$ = 8						; size = 4
??$_Val_type@PAUSecondAttribute@@@std@@YAPAUSecondAttribute@@PAU1@@Z PROC ; std::_Val_type<SecondAttribute *>, COMDAT

; 790  : 	return (0);

  00000	33 c0		 xor	 eax, eax

; 791  : 	}

  00002	c3		 ret	 0
??$_Val_type@PAUSecondAttribute@@@std@@YAPAUSecondAttribute@@PAU1@@Z ENDP ; std::_Val_type<SecondAttribute *>
_TEXT	ENDS
PUBLIC	??$_Unchecked@PAUChangeDirInfo@@@std@@YAPAUChangeDirInfo@@PAU1@@Z ; std::_Unchecked<ChangeDirInfo *>
; Function compile flags: /Ogsp
;	COMDAT ??$_Unchecked@PAUChangeDirInfo@@@std@@YAPAUChangeDirInfo@@PAU1@@Z
_TEXT	SEGMENT
__Src$ = 8						; size = 4
??$_Unchecked@PAUChangeDirInfo@@@std@@YAPAUChangeDirInfo@@PAU1@@Z PROC ; std::_Unchecked<ChangeDirInfo *>, COMDAT

; 266  : 	{	// construct unchecked from checked, generic

  00000	55		 push	 ebp
  00001	8b ec		 mov	 ebp, esp

; 267  : 	return (_Src);

  00003	8b 45 08	 mov	 eax, DWORD PTR __Src$[ebp]

; 268  : 	}

  00006	5d		 pop	 ebp
  00007	c3		 ret	 0
??$_Unchecked@PAUChangeDirInfo@@@std@@YAPAUChangeDirInfo@@PAU1@@Z ENDP ; std::_Unchecked<ChangeDirInfo *>
_TEXT	ENDS
PUBLIC	??$_Dist_type@PAUChangeDirInfo@@@std@@YAPAHPAUChangeDirInfo@@@Z ; std::_Dist_type<ChangeDirInfo *>
; Function compile flags: /Ogsp
;	COMDAT ??$_Dist_type@PAUChangeDirInfo@@@std@@YAPAHPAUChangeDirInfo@@@Z
_TEXT	SEGMENT
___formal$ = 8						; size = 4
??$_Dist_type@PAUChangeDirInfo@@@std@@YAPAHPAUChangeDirInfo@@@Z PROC ; std::_Dist_type<ChangeDirInfo *>, COMDAT

; 850  : 	return (0);

  00000	33 c0		 xor	 eax, eax

; 851  : 	}

  00002	c3		 ret	 0
??$_Dist_type@PAUChangeDirInfo@@@std@@YAPAHPAUChangeDirInfo@@@Z ENDP ; std::_Dist_type<ChangeDirInfo *>
_TEXT	ENDS
PUBLIC	??$_Destroy@UChangeDirInfo@@@std@@YAXPAUChangeDirInfo@@@Z ; std::_Destroy<ChangeDirInfo>
; Function compile flags: /Ogsp
; File c:\program files (x86)\microsoft visual studio 10.0\vc\include\xmemory
;	COMDAT ??$_Destroy@UChangeDirInfo@@@std@@YAXPAUChangeDirInfo@@@Z
_TEXT	SEGMENT
__Ptr$ = 8						; size = 4
??$_Destroy@UChangeDirInfo@@@std@@YAXPAUChangeDirInfo@@@Z PROC ; std::_Destroy<ChangeDirInfo>, COMDAT

; 63   : 	_Ptr->~_Ty();
; 64   : 	}

  00000	c3		 ret	 0
??$_Destroy@UChangeDirInfo@@@std@@YAXPAUChangeDirInfo@@@Z ENDP ; std::_Destroy<ChangeDirInfo>
_TEXT	ENDS
PUBLIC	??$_Destroy@USecondAttribute@@@std@@YAXPAUSecondAttribute@@@Z ; std::_Destroy<SecondAttribute>
; Function compile flags: /Ogsp
;	COMDAT ??$_Destroy@USecondAttribute@@@std@@YAXPAUSecondAttribute@@@Z
_TEXT	SEGMENT
__Ptr$ = 8						; size = 4
??$_Destroy@USecondAttribute@@@std@@YAXPAUSecondAttribute@@@Z PROC ; std::_Destroy<SecondAttribute>, COMDAT

; 63   : 	_Ptr->~_Ty();
; 64   : 	}

  00000	c3		 ret	 0
??$_Destroy@USecondAttribute@@@std@@YAXPAUSecondAttribute@@@Z ENDP ; std::_Destroy<SecondAttribute>
_TEXT	ENDS
PUBLIC	??$forward@AAPAUChangeDirInfo@@@std@@YAAAPAUChangeDirInfo@@AAPAU1@@Z ; std::forward<ChangeDirInfo * &>
; Function compile flags: /Ogsp
; File c:\program files (x86)\microsoft visual studio 10.0\vc\include\utility
;	COMDAT ??$forward@AAPAUChangeDirInfo@@@std@@YAAAPAUChangeDirInfo@@AAPAU1@@Z
_TEXT	SEGMENT
__Arg$ = 8						; size = 4
??$forward@AAPAUChangeDirInfo@@@std@@YAAAPAUChangeDirInfo@@AAPAU1@@Z PROC ; std::forward<ChangeDirInfo * &>, COMDAT

; 78   : 	{	// forward _Arg, given explicitly specified type parameter

  00000	55		 push	 ebp
  00001	8b ec		 mov	 ebp, esp

; 79   : 	return ((_Ty&&)_Arg);

  00003	8b 45 08	 mov	 eax, DWORD PTR __Arg$[ebp]

; 80   : 	}

  00006	5d		 pop	 ebp
  00007	c3		 ret	 0
??$forward@AAPAUChangeDirInfo@@@std@@YAAAPAUChangeDirInfo@@AAPAU1@@Z ENDP ; std::forward<ChangeDirInfo * &>
_TEXT	ENDS
PUBLIC	??$?0AAPAUChangeDirInfo@@AAPAU0@@?$_Pair_base@PAUChangeDirInfo@@PAU1@@std@@QAE@AAPAUChangeDirInfo@@0@Z ; std::_Pair_base<ChangeDirInfo *,ChangeDirInfo *>::_Pair_base<ChangeDirInfo *,ChangeDirInfo *><ChangeDirInfo * &,ChangeDirInfo * &>
; Function compile flags: /Ogsp
;	COMDAT ??$?0AAPAUChangeDirInfo@@AAPAU0@@?$_Pair_base@PAUChangeDirInfo@@PAU1@@std@@QAE@AAPAUChangeDirInfo@@0@Z
_TEXT	SEGMENT
__Val1$ = 8						; size = 4
__Val2$ = 12						; size = 4
??$?0AAPAUChangeDirInfo@@AAPAU0@@?$_Pair_base@PAUChangeDirInfo@@PAU1@@std@@QAE@AAPAUChangeDirInfo@@0@Z PROC ; std::_Pair_base<ChangeDirInfo *,ChangeDirInfo *>::_Pair_base<ChangeDirInfo *,ChangeDirInfo *><ChangeDirInfo * &,ChangeDirInfo * &>, COMDAT
; _this$ = ecx

; 163  : 		{	// construct from moved values

  00000	55		 push	 ebp
  00001	8b ec		 mov	 ebp, esp
  00003	8b c1		 mov	 eax, ecx
  00005	8b 4d 08	 mov	 ecx, DWORD PTR __Val1$[ebp]
  00008	8b 09		 mov	 ecx, DWORD PTR [ecx]
  0000a	89 08		 mov	 DWORD PTR [eax], ecx
  0000c	8b 4d 0c	 mov	 ecx, DWORD PTR __Val2$[ebp]
  0000f	8b 09		 mov	 ecx, DWORD PTR [ecx]
  00011	89 48 04	 mov	 DWORD PTR [eax+4], ecx

; 164  : 		}

  00014	5d		 pop	 ebp
  00015	c2 08 00	 ret	 8
??$?0AAPAUChangeDirInfo@@AAPAU0@@?$_Pair_base@PAUChangeDirInfo@@PAU1@@std@@QAE@AAPAUChangeDirInfo@@0@Z ENDP ; std::_Pair_base<ChangeDirInfo *,ChangeDirInfo *>::_Pair_base<ChangeDirInfo *,ChangeDirInfo *><ChangeDirInfo * &,ChangeDirInfo * &>
_TEXT	ENDS
PUBLIC	??$_Move@AAUChangeDirInfo@@@std@@YA$$QAUChangeDirInfo@@AAU1@@Z ; std::_Move<ChangeDirInfo &>
; Function compile flags: /Ogsp
;	COMDAT ??$_Move@AAUChangeDirInfo@@@std@@YA$$QAUChangeDirInfo@@AAU1@@Z
_TEXT	SEGMENT
__Arg$ = 8						; size = 4
??$_Move@AAUChangeDirInfo@@@std@@YA$$QAUChangeDirInfo@@AAU1@@Z PROC ; std::_Move<ChangeDirInfo &>, COMDAT

; 94   : 	{	// forward _Arg as movable

  00000	55		 push	 ebp
  00001	8b ec		 mov	 ebp, esp

; 95   : 	return ((typename tr1::_Remove_reference<_Ty>::_Type&&)_Arg);

  00003	8b 45 08	 mov	 eax, DWORD PTR __Arg$[ebp]

; 96   : 	}

  00006	5d		 pop	 ebp
  00007	c3		 ret	 0
??$_Move@AAUChangeDirInfo@@@std@@YA$$QAUChangeDirInfo@@AAU1@@Z ENDP ; std::_Move<ChangeDirInfo &>
_TEXT	ENDS
PUBLIC	??$forward@UChangeDirInfo@@@std@@YA$$QAUChangeDirInfo@@AAU1@@Z ; std::forward<ChangeDirInfo>
; Function compile flags: /Ogsp
;	COMDAT ??$forward@UChangeDirInfo@@@std@@YA$$QAUChangeDirInfo@@AAU1@@Z
_TEXT	SEGMENT
__Arg$ = 8						; size = 4
??$forward@UChangeDirInfo@@@std@@YA$$QAUChangeDirInfo@@AAU1@@Z PROC ; std::forward<ChangeDirInfo>, COMDAT

; 78   : 	{	// forward _Arg, given explicitly specified type parameter

  00000	55		 push	 ebp
  00001	8b ec		 mov	 ebp, esp

; 79   : 	return ((_Ty&&)_Arg);

  00003	8b 45 08	 mov	 eax, DWORD PTR __Arg$[ebp]

; 80   : 	}

  00006	5d		 pop	 ebp
  00007	c3		 ret	 0
??$forward@UChangeDirInfo@@@std@@YA$$QAUChangeDirInfo@@AAU1@@Z ENDP ; std::forward<ChangeDirInfo>
_TEXT	ENDS
PUBLIC	??$forward@USecondAttribute@@@std@@YA$$QAUSecondAttribute@@AAU1@@Z ; std::forward<SecondAttribute>
; Function compile flags: /Ogsp
;	COMDAT ??$forward@USecondAttribute@@@std@@YA$$QAUSecondAttribute@@AAU1@@Z
_TEXT	SEGMENT
__Arg$ = 8						; size = 4
??$forward@USecondAttribute@@@std@@YA$$QAUSecondAttribute@@AAU1@@Z PROC ; std::forward<SecondAttribute>, COMDAT

; 78   : 	{	// forward _Arg, given explicitly specified type parameter

  00000	55		 push	 ebp
  00001	8b ec		 mov	 ebp, esp

; 79   : 	return ((_Ty&&)_Arg);

  00003	8b 45 08	 mov	 eax, DWORD PTR __Arg$[ebp]

; 80   : 	}

  00006	5d		 pop	 ebp
  00007	c3		 ret	 0
??$forward@USecondAttribute@@@std@@YA$$QAUSecondAttribute@@AAU1@@Z ENDP ; std::forward<SecondAttribute>
_TEXT	ENDS
PUBLIC	??$_Move_backward@PAUChangeDirInfo@@PAU1@@std@@YAPAUChangeDirInfo@@PAU1@00U_Nonscalar_ptr_iterator_tag@0@@Z ; std::_Move_backward<ChangeDirInfo *,ChangeDirInfo *>
; Function compile flags: /Ogsp
; File c:\program files (x86)\microsoft visual studio 10.0\vc\include\xutility
;	COMDAT ??$_Move_backward@PAUChangeDirInfo@@PAU1@@std@@YAPAUChangeDirInfo@@PAU1@00U_Nonscalar_ptr_iterator_tag@0@@Z
_TEXT	SEGMENT
__First$ = 8						; size = 4
__Last$ = 12						; size = 4
__Dest$ = 16						; size = 4
___formal$ = 20						; size = 1
??$_Move_backward@PAUChangeDirInfo@@PAU1@@std@@YAPAUChangeDirInfo@@PAU1@00U_Nonscalar_ptr_iterator_tag@0@@Z PROC ; std::_Move_backward<ChangeDirInfo *,ChangeDirInfo *>, COMDAT

; 2617 : 	{	// move [_First, _Last) backwards to [..., _Dest), arbitrary iterators

  00000	55		 push	 ebp
  00001	8b ec		 mov	 ebp, esp

; 2618 : 	while (_First != _Last)

  00003	8b 45 0c	 mov	 eax, DWORD PTR __Last$[ebp]
  00006	39 45 08	 cmp	 DWORD PTR __First$[ebp], eax
  00009	74 1a		 je	 SHORT $LN9@Move_backw
  0000b	56		 push	 esi
  0000c	57		 push	 edi
$LL2@Move_backw:

; 2619 : 		*--_Dest = _STD move(*--_Last);

  0000d	83 6d 10 1c	 sub	 DWORD PTR __Dest$[ebp], 28 ; 0000001cH
  00011	8b 7d 10	 mov	 edi, DWORD PTR __Dest$[ebp]
  00014	83 e8 1c	 sub	 eax, 28			; 0000001cH
  00017	6a 07		 push	 7
  00019	59		 pop	 ecx
  0001a	8b f0		 mov	 esi, eax
  0001c	f3 a5		 rep movsd
  0001e	3b 45 08	 cmp	 eax, DWORD PTR __First$[ebp]
  00021	75 ea		 jne	 SHORT $LL2@Move_backw
  00023	5f		 pop	 edi
  00024	5e		 pop	 esi
$LN9@Move_backw:

; 2620 : 	return (_Dest);

  00025	8b 45 10	 mov	 eax, DWORD PTR __Dest$[ebp]

; 2621 : 	}

  00028	5d		 pop	 ebp
  00029	c3		 ret	 0
??$_Move_backward@PAUChangeDirInfo@@PAU1@@std@@YAPAUChangeDirInfo@@PAU1@00U_Nonscalar_ptr_iterator_tag@0@@Z ENDP ; std::_Move_backward<ChangeDirInfo *,ChangeDirInfo *>
_TEXT	ENDS
PUBLIC	?_DECSTR@@YAXPADH@Z				; _DECSTR
; Function compile flags: /Ogsp
; File d:\lost saga for developer\youtube\tutorial\source\src\lsclient\stringprotect.h
;	COMDAT ?_DECSTR@@YAXPADH@Z
_TEXT	SEGMENT
_s$ = 8							; size = 4
_l$ = 12						; size = 4
?_DECSTR@@YAXPADH@Z PROC				; _DECSTR, COMDAT

; 40   : __forceinline void _DECSTR(char* s, int l){int i=0,l4=(l-1)/4,*p=(int*)s;s[l-1]=0;for(;i<l4;++i)*(p++)^=0xEAEBECED;for(i=l4*4;i<l-1;++i)s[i]^=0xED-i%4;}

  00000	55		 push	 ebp
  00001	8b ec		 mov	 ebp, esp
  00003	8b 4d 0c	 mov	 ecx, DWORD PTR _l$[ebp]
  00006	56		 push	 esi
  00007	8b 75 08	 mov	 esi, DWORD PTR _s$[ebp]
  0000a	57		 push	 edi
  0000b	8d 79 ff	 lea	 edi, DWORD PTR [ecx-1]
  0000e	8b c7		 mov	 eax, edi
  00010	99		 cdq
  00011	83 e2 03	 and	 edx, 3
  00014	03 c2		 add	 eax, edx
  00016	c1 f8 02	 sar	 eax, 2
  00019	8b d6		 mov	 edx, esi
  0001b	c6 44 0e ff 00	 mov	 BYTE PTR [esi+ecx-1], 0
  00020	85 c0		 test	 eax, eax
  00022	7e 0e		 jle	 SHORT $LN4@DECSTR
  00024	8b c8		 mov	 ecx, eax
$LL6@DECSTR:
  00026	81 32 ed ec eb
	ea		 xor	 DWORD PTR [edx], -353637139 ; eaebecedH
  0002c	83 c2 04	 add	 edx, 4
  0002f	49		 dec	 ecx
  00030	75 f4		 jne	 SHORT $LL6@DECSTR
$LN4@DECSTR:
  00032	c1 e0 02	 shl	 eax, 2
  00035	eb 17		 jmp	 SHORT $LN14@DECSTR
$LL3@DECSTR:
  00037	8b c8		 mov	 ecx, eax
  00039	81 e1 03 00 00
	80		 and	 ecx, -2147483645	; 80000003H
  0003f	79 05		 jns	 SHORT $LN13@DECSTR
  00041	49		 dec	 ecx
  00042	83 c9 fc	 or	 ecx, -4			; fffffffcH
  00045	41		 inc	 ecx
$LN13@DECSTR:
  00046	b2 ed		 mov	 dl, -19			; ffffffedH
  00048	2a d1		 sub	 dl, cl
  0004a	30 14 30	 xor	 BYTE PTR [eax+esi], dl
  0004d	40		 inc	 eax
$LN14@DECSTR:
  0004e	3b c7		 cmp	 eax, edi
  00050	7c e5		 jl	 SHORT $LL3@DECSTR
  00052	5f		 pop	 edi
  00053	5e		 pop	 esi
  00054	5d		 pop	 ebp
  00055	c3		 ret	 0
?_DECSTR@@YAXPADH@Z ENDP				; _DECSTR
_TEXT	ENDS
PUBLIC	?GetGroup@ioGameEntity@@QBEPAVioEntityGroup@@XZ	; ioGameEntity::GetGroup
; Function compile flags: /Ogsp
; File d:\lost saga for developer\youtube\tutorial\source\src\lsclient\iogameentity.h
;	COMDAT ?GetGroup@ioGameEntity@@QBEPAVioEntityGroup@@XZ
_TEXT	SEGMENT
?GetGroup@ioGameEntity@@QBEPAVioEntityGroup@@XZ PROC	; ioGameEntity::GetGroup, COMDAT
; _this$ = ecx

; 166  : 	inline ioEntityGroup* GetGroup() const { return m_pGroup; }

  00000	8b 41 04	 mov	 eax, DWORD PTR [ecx+4]
  00003	c3		 ret	 0
?GetGroup@ioGameEntity@@QBEPAVioEntityGroup@@XZ ENDP	; ioGameEntity::GetGroup
_TEXT	ENDS
PUBLIC	??_R0?AVioGameEntity@@@8			; ioGameEntity `RTTI Type Descriptor'
PUBLIC	??_R0?AVioPlayEntity@@@8			; ioPlayEntity `RTTI Type Descriptor'
PUBLIC	?ToPlayEntity@@YAPAVioPlayEntity@@PAVioGameEntity@@@Z ; ToPlayEntity
EXTRN	___RTDynamicCast:PROC
;	COMDAT ??_R0?AVioGameEntity@@@8
; File d:\lost saga for developer\youtube\tutorial\source\src\lsclient\ioplayentity.h
_DATA	SEGMENT
??_R0?AVioGameEntity@@@8 DD FLAT:??_7type_info@@6B@	; ioGameEntity `RTTI Type Descriptor'
	DD	00H
	DB	'.?AVioGameEntity@@', 00H
_DATA	ENDS
;	COMDAT ??_R0?AVioPlayEntity@@@8
_DATA	SEGMENT
??_R0?AVioPlayEntity@@@8 DD FLAT:??_7type_info@@6B@	; ioPlayEntity `RTTI Type Descriptor'
	DD	00H
	DB	'.?AVioPlayEntity@@', 00H
; Function compile flags: /Ogsp
_DATA	ENDS
;	COMDAT ?ToPlayEntity@@YAPAVioPlayEntity@@PAVioGameEntity@@@Z
_TEXT	SEGMENT
_pObj$ = 8						; size = 4
?ToPlayEntity@@YAPAVioPlayEntity@@PAVioGameEntity@@@Z PROC ; ToPlayEntity, COMDAT

; 121  : {

  00000	55		 push	 ebp
  00001	8b ec		 mov	 ebp, esp
  00003	56		 push	 esi

; 122  : 	if( !pObj || pObj->GetTypeID() != ioGameEntity::GET_PLAY_ENTITY )

  00004	8b 75 08	 mov	 esi, DWORD PTR _pObj$[ebp]
  00007	85 f6		 test	 esi, esi
  00009	74 25		 je	 SHORT $LN1@ToPlayEnti
  0000b	8b 06		 mov	 eax, DWORD PTR [esi]
  0000d	8b ce		 mov	 ecx, esi
  0000f	ff 50 10	 call	 DWORD PTR [eax+16]
  00012	83 f8 01	 cmp	 eax, 1
  00015	75 19		 jne	 SHORT $LN1@ToPlayEnti

; 124  : 
; 125  : 	return dynamic_cast< ioPlayEntity* >( pObj );

  00017	6a 00		 push	 0
  00019	68 00 00 00 00	 push	 OFFSET ??_R0?AVioPlayEntity@@@8
  0001e	68 00 00 00 00	 push	 OFFSET ??_R0?AVioGameEntity@@@8
  00023	6a 00		 push	 0
  00025	56		 push	 esi
  00026	e8 00 00 00 00	 call	 ___RTDynamicCast
  0002b	83 c4 14	 add	 esp, 20			; 00000014H
  0002e	eb 02		 jmp	 SHORT $LN3@ToPlayEnti
$LN1@ToPlayEnti:

; 123  : 		return NULL;

  00030	33 c0		 xor	 eax, eax
$LN3@ToPlayEnti:
  00032	5e		 pop	 esi

; 126  : }

  00033	5d		 pop	 ebp
  00034	c3		 ret	 0
?ToPlayEntity@@YAPAVioPlayEntity@@PAVioGameEntity@@@Z ENDP ; ToPlayEntity
_TEXT	ENDS
PUBLIC	??_R0?AVioDummyChar@@@8				; ioDummyChar `RTTI Type Descriptor'
PUBLIC	?ToDummyChar@@YAPAVioDummyChar@@PAVioGameEntity@@@Z ; ToDummyChar
;	COMDAT ??_R0?AVioDummyChar@@@8
; File d:\lost saga for developer\youtube\tutorial\source\src\lsclient\iodummychar.h
_DATA	SEGMENT
??_R0?AVioDummyChar@@@8 DD FLAT:??_7type_info@@6B@	; ioDummyChar `RTTI Type Descriptor'
	DD	00H
	DB	'.?AVioDummyChar@@', 00H
; Function compile flags: /Ogsp
_DATA	ENDS
;	COMDAT ?ToDummyChar@@YAPAVioDummyChar@@PAVioGameEntity@@@Z
_TEXT	SEGMENT
_pObj$ = 8						; size = 4
?ToDummyChar@@YAPAVioDummyChar@@PAVioGameEntity@@@Z PROC ; ToDummyChar, COMDAT

; 758  : {

  00000	55		 push	 ebp
  00001	8b ec		 mov	 ebp, esp
  00003	56		 push	 esi

; 759  : 	ioPlayEntity *pPlay = ToPlayEntity( pObj );

  00004	ff 75 08	 push	 DWORD PTR _pObj$[ebp]
  00007	e8 00 00 00 00	 call	 ?ToPlayEntity@@YAPAVioPlayEntity@@PAVioGameEntity@@@Z ; ToPlayEntity
  0000c	8b f0		 mov	 esi, eax
  0000e	59		 pop	 ecx

; 760  : 	if( !pPlay || pPlay->GetSubType() != ioPlayEntity::PST_DUMMY_CHAR )

  0000f	85 f6		 test	 esi, esi
  00011	74 28		 je	 SHORT $LN1@ToDummyCha
  00013	8b 06		 mov	 eax, DWORD PTR [esi]
  00015	8b ce		 mov	 ecx, esi
  00017	ff 90 a4 00 00
	00		 call	 DWORD PTR [eax+164]
  0001d	83 f8 0a	 cmp	 eax, 10			; 0000000aH
  00020	75 19		 jne	 SHORT $LN1@ToDummyCha

; 762  : 
; 763  : 	return dynamic_cast< ioDummyChar* >( pPlay );

  00022	6a 00		 push	 0
  00024	68 00 00 00 00	 push	 OFFSET ??_R0?AVioDummyChar@@@8
  00029	68 00 00 00 00	 push	 OFFSET ??_R0?AVioPlayEntity@@@8
  0002e	6a 00		 push	 0
  00030	56		 push	 esi
  00031	e8 00 00 00 00	 call	 ___RTDynamicCast
  00036	83 c4 14	 add	 esp, 20			; 00000014H
  00039	eb 02		 jmp	 SHORT $LN3@ToDummyCha
$LN1@ToDummyCha:

; 761  : 		return NULL;

  0003b	33 c0		 xor	 eax, eax
$LN3@ToDummyCha:
  0003d	5e		 pop	 esi

; 764  : }

  0003e	5d		 pop	 ebp
  0003f	c3		 ret	 0
?ToDummyChar@@YAPAVioDummyChar@@PAVioGameEntity@@@Z ENDP ; ToDummyChar
_TEXT	ENDS
PUBLIC	??0ChangeDirInfo@@QAE@XZ			; ChangeDirInfo::ChangeDirInfo
EXTRN	__imp_?VEC3_ZERO@ioMath@@2UD3DXVECTOR3@@A:BYTE
; Function compile flags: /Ogsp
; File d:\lost saga for developer\youtube\tutorial\source\src\lsclient\ioweapon.h
;	COMDAT ??0ChangeDirInfo@@QAE@XZ
_TEXT	SEGMENT
??0ChangeDirInfo@@QAE@XZ PROC				; ChangeDirInfo::ChangeDirInfo, COMDAT
; _this$ = ecx

; 34   : 	{
; 35   : 		m_fChangeRange	= 0.0f;

  00000	0f 57 c0	 xorps	 xmm0, xmm0
  00003	56		 push	 esi
  00004	8b c1		 mov	 eax, ecx
  00006	57		 push	 edi
  00007	f3 0f 11 00	 movss	 DWORD PTR [eax], xmm0

; 36   : 		m_fChangeSpeed	= 0.0f;

  0000b	f3 0f 11 40 04	 movss	 DWORD PTR [eax+4], xmm0

; 37   : 		m_fChangeAngleH	= 0.0f;

  00010	f3 0f 11 40 08	 movss	 DWORD PTR [eax+8], xmm0

; 38   : 		m_fChangeAngleV	= 0.0f;

  00015	f3 0f 11 40 0c	 movss	 DWORD PTR [eax+12], xmm0

; 39   : 		m_vFireOffset	= ioMath::VEC3_ZERO;

  0001a	8b 35 00 00 00
	00		 mov	 esi, DWORD PTR __imp_?VEC3_ZERO@ioMath@@2UD3DXVECTOR3@@A
  00020	8d 78 10	 lea	 edi, DWORD PTR [eax+16]
  00023	a5		 movsd
  00024	a5		 movsd
  00025	a5		 movsd
  00026	5f		 pop	 edi
  00027	5e		 pop	 esi

; 40   : 	}

  00028	c3		 ret	 0
??0ChangeDirInfo@@QAE@XZ ENDP				; ChangeDirInfo::ChangeDirInfo
_TEXT	ENDS
PUBLIC	??RChangeDirSort@@QBE_NABUChangeDirInfo@@0@Z	; ChangeDirSort::operator()
; Function compile flags: /Ogsp
;	COMDAT ??RChangeDirSort@@QBE_NABUChangeDirInfo@@0@Z
_TEXT	SEGMENT
_lhs$ = 8						; size = 4
_rhs$ = 12						; size = 4
??RChangeDirSort@@QBE_NABUChangeDirInfo@@0@Z PROC	; ChangeDirSort::operator(), COMDAT
; _this$ = ecx

; 49   : 	{

  00000	55		 push	 ebp
  00001	8b ec		 mov	 ebp, esp

; 50   : 		if( lhs.m_fChangeRange < rhs.m_fChangeRange )

  00003	8b 4d 08	 mov	 ecx, DWORD PTR _lhs$[ebp]
  00006	8b 55 0c	 mov	 edx, DWORD PTR _rhs$[ebp]
  00009	f3 0f 10 01	 movss	 xmm0, DWORD PTR [ecx]
  0000d	f3 0f 10 0a	 movss	 xmm1, DWORD PTR [edx]
  00011	0f 5a d0	 cvtps2pd xmm2, xmm0
  00014	0f 5a d9	 cvtps2pd xmm3, xmm1
  00017	66 0f 2f da	 comisd	 xmm3, xmm2
  0001b	76 04		 jbe	 SHORT $LN4@operator@2
$LN7@operator@2:

; 51   : 		{
; 52   : 			return true;

  0001d	b0 01		 mov	 al, 1
  0001f	eb 28		 jmp	 SHORT $LN5@operator@2
$LN4@operator@2:

; 53   : 		}
; 54   : 		else if( lhs.m_fChangeRange == rhs.m_fChangeRange )

  00021	0f 5a c0	 cvtps2pd xmm0, xmm0
  00024	0f 5a c9	 cvtps2pd xmm1, xmm1
  00027	66 0f 2e c1	 ucomisd xmm0, xmm1
  0002b	9f		 lahf
  0002c	f6 c4 44	 test	 ah, 68			; 00000044H
  0002f	7a 16		 jp	 SHORT $LN1@operator@2

; 55   : 		{
; 56   : 			if( lhs.m_fChangeAngleV < rhs.m_fChangeAngleV )

  00031	f3 0f 10 41 0c	 movss	 xmm0, DWORD PTR [ecx+12]
  00036	f3 0f 10 4a 0c	 movss	 xmm1, DWORD PTR [edx+12]
  0003b	0f 5a c0	 cvtps2pd xmm0, xmm0
  0003e	0f 5a c9	 cvtps2pd xmm1, xmm1
  00041	66 0f 2f c8	 comisd	 xmm1, xmm0

; 57   : 				return true;

  00045	77 d6		 ja	 SHORT $LN7@operator@2
$LN1@operator@2:

; 58   : 		}
; 59   : 		return false;

  00047	32 c0		 xor	 al, al
$LN5@operator@2:

; 60   : 	}

  00049	5d		 pop	 ebp
  0004a	c2 08 00	 ret	 8
??RChangeDirSort@@QBE_NABUChangeDirInfo@@0@Z ENDP	; ChangeDirSort::operator()
_TEXT	ENDS
PUBLIC	?IsLive@ioWeapon@@QBE_NXZ			; ioWeapon::IsLive
; Function compile flags: /Ogsp
;	COMDAT ?IsLive@ioWeapon@@QBE_NXZ
_TEXT	SEGMENT
?IsLive@ioWeapon@@QBE_NXZ PROC				; ioWeapon::IsLive, COMDAT
; _this$ = ecx

; 533  : 	inline bool IsLive() const { return m_bLive; }

  00000	8a 81 82 05 00
	00		 mov	 al, BYTE PTR [ecx+1410]
  00006	c3		 ret	 0
?IsLive@ioWeapon@@QBE_NXZ ENDP				; ioWeapon::IsLive
_TEXT	ENDS
PUBLIC	?GetOwnerName@ioWeapon@@QBEABVioHashString@@XZ	; ioWeapon::GetOwnerName
; Function compile flags: /Ogsp
;	COMDAT ?GetOwnerName@ioWeapon@@QBEABVioHashString@@XZ
_TEXT	SEGMENT
?GetOwnerName@ioWeapon@@QBEABVioHashString@@XZ PROC	; ioWeapon::GetOwnerName, COMDAT
; _this$ = ecx

; 636  : 	inline const ioHashString& GetOwnerName() const { return m_OwnerName; }

  00000	8d 41 10	 lea	 eax, DWORD PTR [ecx+16]
  00003	c3		 ret	 0
?GetOwnerName@ioWeapon@@QBEABVioHashString@@XZ ENDP	; ioWeapon::GetOwnerName
_TEXT	ENDS
PUBLIC	?GetParentSceneNode@ioWeapon@@QBEPAVioSceneNode@@XZ ; ioWeapon::GetParentSceneNode
; Function compile flags: /Ogsp
;	COMDAT ?GetParentSceneNode@ioWeapon@@QBEPAVioSceneNode@@XZ
_TEXT	SEGMENT
?GetParentSceneNode@ioWeapon@@QBEPAVioSceneNode@@XZ PROC ; ioWeapon::GetParentSceneNode, COMDAT
; _this$ = ecx

; 797  : 	ioSceneNode* GetParentSceneNode() const { return m_pSceneNode; }

  00000	8b 41 04	 mov	 eax, DWORD PTR [ecx+4]
  00003	c3		 ret	 0
?GetParentSceneNode@ioWeapon@@QBEPAVioSceneNode@@XZ ENDP ; ioWeapon::GetParentSceneNode
_TEXT	ENDS
PUBLIC	?GetName@ioSkill@@QBEABVioHashString@@XZ	; ioSkill::GetName
; Function compile flags: /Ogsp
; File d:\lost saga for developer\youtube\tutorial\source\src\lsclient\ioskill.h
;	COMDAT ?GetName@ioSkill@@QBEABVioHashString@@XZ
_TEXT	SEGMENT
?GetName@ioSkill@@QBEABVioHashString@@XZ PROC		; ioSkill::GetName, COMDAT
; _this$ = ecx

; 414  : 	inline const ioHashString& GetName() const { return m_Name; }

  00000	8d 41 24	 lea	 eax, DWORD PTR [ecx+36]
  00003	c3		 ret	 0
?GetName@ioSkill@@QBEABVioHashString@@XZ ENDP		; ioSkill::GetName
_TEXT	ENDS
PUBLIC	??_R0?AVioSkill@@@8				; ioSkill `RTTI Type Descriptor'
PUBLIC	??_R0?AVioAttackSkill@@@8			; ioAttackSkill `RTTI Type Descriptor'
PUBLIC	?ToAttackSkill@@YAPAVioAttackSkill@@PAVioSkill@@@Z ; ToAttackSkill
;	COMDAT ??_R0?AVioSkill@@@8
; File d:\lost saga for developer\youtube\tutorial\source\src\lsclient\ioattackskill.h
_DATA	SEGMENT
??_R0?AVioSkill@@@8 DD FLAT:??_7type_info@@6B@		; ioSkill `RTTI Type Descriptor'
	DD	00H
	DB	'.?AVioSkill@@', 00H
_DATA	ENDS
;	COMDAT ??_R0?AVioAttackSkill@@@8
_DATA	SEGMENT
??_R0?AVioAttackSkill@@@8 DD FLAT:??_7type_info@@6B@	; ioAttackSkill `RTTI Type Descriptor'
	DD	00H
	DB	'.?AVioAttackSkill@@', 00H
; Function compile flags: /Ogsp
_DATA	ENDS
;	COMDAT ?ToAttackSkill@@YAPAVioAttackSkill@@PAVioSkill@@@Z
_TEXT	SEGMENT
_pSkill$ = 8						; size = 4
?ToAttackSkill@@YAPAVioAttackSkill@@PAVioSkill@@@Z PROC	; ToAttackSkill, COMDAT

; 103  : {

  00000	55		 push	 ebp
  00001	8b ec		 mov	 ebp, esp
  00003	56		 push	 esi

; 104  : 	if( !pSkill || pSkill->GetTypeID() != ST_ATTACK )

  00004	8b 75 08	 mov	 esi, DWORD PTR _pSkill$[ebp]
  00007	85 f6		 test	 esi, esi
  00009	74 25		 je	 SHORT $LN1@ToAttackSk
  0000b	8b 06		 mov	 eax, DWORD PTR [esi]
  0000d	8b ce		 mov	 ecx, esi
  0000f	ff 50 08	 call	 DWORD PTR [eax+8]
  00012	83 f8 01	 cmp	 eax, 1
  00015	75 19		 jne	 SHORT $LN1@ToAttackSk

; 106  : 
; 107  : 	return dynamic_cast< ioAttackSkill* >( pSkill );

  00017	6a 00		 push	 0
  00019	68 00 00 00 00	 push	 OFFSET ??_R0?AVioAttackSkill@@@8
  0001e	68 00 00 00 00	 push	 OFFSET ??_R0?AVioSkill@@@8
  00023	6a 00		 push	 0
  00025	56		 push	 esi
  00026	e8 00 00 00 00	 call	 ___RTDynamicCast
  0002b	83 c4 14	 add	 esp, 20			; 00000014H
  0002e	eb 02		 jmp	 SHORT $LN3@ToAttackSk
$LN1@ToAttackSk:

; 105  : 		return NULL;

  00030	33 c0		 xor	 eax, eax
$LN3@ToAttackSk:
  00032	5e		 pop	 esi

; 108  : }

  00033	5d		 pop	 ebp
  00034	c3		 ret	 0
?ToAttackSkill@@YAPAVioAttackSkill@@PAVioSkill@@@Z ENDP	; ToAttackSkill
_TEXT	ENDS
PUBLIC	??_R0?AVioWallZone@@@8				; ioWallZone `RTTI Type Descriptor'
PUBLIC	?ToWallZone@@YAPAVioWallZone@@PAVioGameEntity@@@Z ; ToWallZone
;	COMDAT ??_R0?AVioWallZone@@@8
; File d:\lost saga for developer\youtube\tutorial\source\src\lsclient\iowallzone.h
_DATA	SEGMENT
??_R0?AVioWallZone@@@8 DD FLAT:??_7type_info@@6B@	; ioWallZone `RTTI Type Descriptor'
	DD	00H
	DB	'.?AVioWallZone@@', 00H
; Function compile flags: /Ogsp
_DATA	ENDS
;	COMDAT ?ToWallZone@@YAPAVioWallZone@@PAVioGameEntity@@@Z
_TEXT	SEGMENT
_pObj$ = 8						; size = 4
?ToWallZone@@YAPAVioWallZone@@PAVioGameEntity@@@Z PROC	; ToWallZone, COMDAT

; 50   : {

  00000	55		 push	 ebp
  00001	8b ec		 mov	 ebp, esp
  00003	56		 push	 esi

; 51   : 	ioPlayEntity *pPlay = ToPlayEntity( pObj );

  00004	ff 75 08	 push	 DWORD PTR _pObj$[ebp]
  00007	e8 00 00 00 00	 call	 ?ToPlayEntity@@YAPAVioPlayEntity@@PAVioGameEntity@@@Z ; ToPlayEntity
  0000c	8b f0		 mov	 esi, eax
  0000e	59		 pop	 ecx

; 52   : 	if( !pPlay || pPlay->GetSubType() != ioPlayEntity::PST_WALL_ZONE )

  0000f	85 f6		 test	 esi, esi
  00011	74 28		 je	 SHORT $LN1@ToWallZone
  00013	8b 06		 mov	 eax, DWORD PTR [esi]
  00015	8b ce		 mov	 ecx, esi
  00017	ff 90 a4 00 00
	00		 call	 DWORD PTR [eax+164]
  0001d	83 f8 0b	 cmp	 eax, 11			; 0000000bH
  00020	75 19		 jne	 SHORT $LN1@ToWallZone

; 54   : 
; 55   : 	return dynamic_cast< ioWallZone* >( pPlay );

  00022	6a 00		 push	 0
  00024	68 00 00 00 00	 push	 OFFSET ??_R0?AVioWallZone@@@8
  00029	68 00 00 00 00	 push	 OFFSET ??_R0?AVioPlayEntity@@@8
  0002e	6a 00		 push	 0
  00030	56		 push	 esi
  00031	e8 00 00 00 00	 call	 ___RTDynamicCast
  00036	83 c4 14	 add	 esp, 20			; 00000014H
  00039	eb 02		 jmp	 SHORT $LN3@ToWallZone
$LN1@ToWallZone:

; 53   : 		return NULL;

  0003b	33 c0		 xor	 eax, eax
$LN3@ToWallZone:
  0003d	5e		 pop	 esi

; 56   : }

  0003e	5d		 pop	 ebp
  0003f	c3		 ret	 0
?ToWallZone@@YAPAVioWallZone@@PAVioGameEntity@@@Z ENDP	; ToWallZone
_TEXT	ENDS
PUBLIC	??_R0?AVioSymbolStruct@@@8			; ioSymbolStruct `RTTI Type Descriptor'
PUBLIC	?ToSymbolStruct@@YAPAVioSymbolStruct@@PAVioGameEntity@@@Z ; ToSymbolStruct
;	COMDAT ??_R0?AVioSymbolStruct@@@8
; File d:\lost saga for developer\youtube\tutorial\source\src\lsclient\iosymbolstruct.h
_DATA	SEGMENT
??_R0?AVioSymbolStruct@@@8 DD FLAT:??_7type_info@@6B@	; ioSymbolStruct `RTTI Type Descriptor'
	DD	00H
	DB	'.?AVioSymbolStruct@@', 00H
; Function compile flags: /Ogsp
_DATA	ENDS
;	COMDAT ?ToSymbolStruct@@YAPAVioSymbolStruct@@PAVioGameEntity@@@Z
_TEXT	SEGMENT
_pObj$ = 8						; size = 4
?ToSymbolStruct@@YAPAVioSymbolStruct@@PAVioGameEntity@@@Z PROC ; ToSymbolStruct, COMDAT

; 171  : {

  00000	55		 push	 ebp
  00001	8b ec		 mov	 ebp, esp
  00003	56		 push	 esi

; 172  : 	ioPlayEntity *pPlay = ToPlayEntity( pObj );

  00004	ff 75 08	 push	 DWORD PTR _pObj$[ebp]
  00007	e8 00 00 00 00	 call	 ?ToPlayEntity@@YAPAVioPlayEntity@@PAVioGameEntity@@@Z ; ToPlayEntity
  0000c	8b f0		 mov	 esi, eax
  0000e	59		 pop	 ecx

; 173  : 	if( !pPlay || pPlay->GetSubType() != ioPlayEntity::PST_SYMBOL )

  0000f	85 f6		 test	 esi, esi
  00011	74 28		 je	 SHORT $LN1@ToSymbolSt
  00013	8b 06		 mov	 eax, DWORD PTR [esi]
  00015	8b ce		 mov	 ecx, esi
  00017	ff 90 a4 00 00
	00		 call	 DWORD PTR [eax+164]
  0001d	83 f8 01	 cmp	 eax, 1
  00020	75 19		 jne	 SHORT $LN1@ToSymbolSt

; 175  : 
; 176  : 	return dynamic_cast< ioSymbolStruct* >( pPlay );

  00022	6a 00		 push	 0
  00024	68 00 00 00 00	 push	 OFFSET ??_R0?AVioSymbolStruct@@@8
  00029	68 00 00 00 00	 push	 OFFSET ??_R0?AVioPlayEntity@@@8
  0002e	6a 00		 push	 0
  00030	56		 push	 esi
  00031	e8 00 00 00 00	 call	 ___RTDynamicCast
  00036	83 c4 14	 add	 esp, 20			; 00000014H
  00039	eb 02		 jmp	 SHORT $LN3@ToSymbolSt
$LN1@ToSymbolSt:

; 174  : 		return NULL;

  0003b	33 c0		 xor	 eax, eax
$LN3@ToSymbolSt:
  0003d	5e		 pop	 esi

; 177  : }

  0003e	5d		 pop	 ebp
  0003f	c3		 ret	 0
?ToSymbolStruct@@YAPAVioSymbolStruct@@PAVioGameEntity@@@Z ENDP ; ToSymbolStruct
_TEXT	ENDS
PUBLIC	??_R0?AVioBall@@@8				; ioBall `RTTI Type Descriptor'
PUBLIC	?ToBallStruct@@YAPAVioBall@@PAVioGameEntity@@@Z	; ToBallStruct
;	COMDAT ??_R0?AVioBall@@@8
; File d:\lost saga for developer\youtube\tutorial\source\src\lsclient\ioball.h
_DATA	SEGMENT
??_R0?AVioBall@@@8 DD FLAT:??_7type_info@@6B@		; ioBall `RTTI Type Descriptor'
	DD	00H
	DB	'.?AVioBall@@', 00H
; Function compile flags: /Ogsp
_DATA	ENDS
;	COMDAT ?ToBallStruct@@YAPAVioBall@@PAVioGameEntity@@@Z
_TEXT	SEGMENT
_pObj$ = 8						; size = 4
?ToBallStruct@@YAPAVioBall@@PAVioGameEntity@@@Z PROC	; ToBallStruct, COMDAT

; 252  : {

  00000	55		 push	 ebp
  00001	8b ec		 mov	 ebp, esp
  00003	56		 push	 esi

; 253  : 	ioPlayEntity *pPlay = ToPlayEntity( pObj );

  00004	ff 75 08	 push	 DWORD PTR _pObj$[ebp]
  00007	e8 00 00 00 00	 call	 ?ToPlayEntity@@YAPAVioPlayEntity@@PAVioGameEntity@@@Z ; ToPlayEntity
  0000c	8b f0		 mov	 esi, eax
  0000e	59		 pop	 ecx

; 254  : 	if( !pPlay || pPlay->GetSubType() != ioPlayEntity::PST_BALL )

  0000f	85 f6		 test	 esi, esi
  00011	74 28		 je	 SHORT $LN1@ToBallStru
  00013	8b 06		 mov	 eax, DWORD PTR [esi]
  00015	8b ce		 mov	 ecx, esi
  00017	ff 90 a4 00 00
	00		 call	 DWORD PTR [eax+164]
  0001d	83 f8 08	 cmp	 eax, 8
  00020	75 19		 jne	 SHORT $LN1@ToBallStru

; 256  : 
; 257  : 	return dynamic_cast< ioBall* >( pPlay );

  00022	6a 00		 push	 0
  00024	68 00 00 00 00	 push	 OFFSET ??_R0?AVioBall@@@8
  00029	68 00 00 00 00	 push	 OFFSET ??_R0?AVioPlayEntity@@@8
  0002e	6a 00		 push	 0
  00030	56		 push	 esi
  00031	e8 00 00 00 00	 call	 ___RTDynamicCast
  00036	83 c4 14	 add	 esp, 20			; 00000014H
  00039	eb 02		 jmp	 SHORT $LN3@ToBallStru
$LN1@ToBallStru:

; 255  : 		return NULL;

  0003b	33 c0		 xor	 eax, eax
$LN3@ToBallStru:
  0003d	5e		 pop	 esi

; 258  : }

  0003e	5d		 pop	 ebp
  0003f	c3		 ret	 0
?ToBallStruct@@YAPAVioBall@@PAVioGameEntity@@@Z ENDP	; ToBallStruct
_TEXT	ENDS
PUBLIC	??_R0?AVioPushStruct@@@8			; ioPushStruct `RTTI Type Descriptor'
PUBLIC	?ToPushStruct@@YAPAVioPushStruct@@PAVioGameEntity@@@Z ; ToPushStruct
;	COMDAT ??_R0?AVioPushStruct@@@8
; File d:\lost saga for developer\youtube\tutorial\source\src\lsclient\iopushstruct.h
_DATA	SEGMENT
??_R0?AVioPushStruct@@@8 DD FLAT:??_7type_info@@6B@	; ioPushStruct `RTTI Type Descriptor'
	DD	00H
	DB	'.?AVioPushStruct@@', 00H
; Function compile flags: /Ogsp
_DATA	ENDS
;	COMDAT ?ToPushStruct@@YAPAVioPushStruct@@PAVioGameEntity@@@Z
_TEXT	SEGMENT
_pObj$ = 8						; size = 4
?ToPushStruct@@YAPAVioPushStruct@@PAVioGameEntity@@@Z PROC ; ToPushStruct, COMDAT

; 440  : {

  00000	55		 push	 ebp
  00001	8b ec		 mov	 ebp, esp
  00003	56		 push	 esi

; 441  : 	ioPlayEntity *pPlay = ToPlayEntity( pObj );

  00004	ff 75 08	 push	 DWORD PTR _pObj$[ebp]
  00007	e8 00 00 00 00	 call	 ?ToPlayEntity@@YAPAVioPlayEntity@@PAVioGameEntity@@@Z ; ToPlayEntity
  0000c	8b f0		 mov	 esi, eax
  0000e	59		 pop	 ecx

; 442  : 	if( !pPlay || pPlay->GetSubType() != ioPlayEntity::PST_PUSHSTRUCT )

  0000f	85 f6		 test	 esi, esi
  00011	74 28		 je	 SHORT $LN1@ToPushStru
  00013	8b 06		 mov	 eax, DWORD PTR [esi]
  00015	8b ce		 mov	 ecx, esi
  00017	ff 90 a4 00 00
	00		 call	 DWORD PTR [eax+164]
  0001d	83 f8 02	 cmp	 eax, 2
  00020	75 19		 jne	 SHORT $LN1@ToPushStru

; 444  : 
; 445  : 	return dynamic_cast< ioPushStruct* >( pPlay );

  00022	6a 00		 push	 0
  00024	68 00 00 00 00	 push	 OFFSET ??_R0?AVioPushStruct@@@8
  00029	68 00 00 00 00	 push	 OFFSET ??_R0?AVioPlayEntity@@@8
  0002e	6a 00		 push	 0
  00030	56		 push	 esi
  00031	e8 00 00 00 00	 call	 ___RTDynamicCast
  00036	83 c4 14	 add	 esp, 20			; 00000014H
  00039	eb 02		 jmp	 SHORT $LN3@ToPushStru
$LN1@ToPushStru:

; 443  : 		return NULL;

  0003b	33 c0		 xor	 eax, eax
$LN3@ToPushStru:
  0003d	5e		 pop	 esi

; 446  : }

  0003e	5d		 pop	 ebp
  0003f	c3		 ret	 0
?ToPushStruct@@YAPAVioPushStruct@@PAVioGameEntity@@@Z ENDP ; ToPushStruct
_TEXT	ENDS
PUBLIC	?DecryptValueToPool@?$CEncrypt@M@@QAEXPAM@Z	; CEncrypt<float>::DecryptValueToPool
EXTRN	?DecryptByte@ccddaabb@@QBEXPBDPADH@Z:PROC	; ccddaabb::DecryptByte
; Function compile flags: /Ogsp
; File d:\lost saga for developer\youtube\tutorial\source\src\lsclient\encryptvalue.h
;	COMDAT ?DecryptValueToPool@?$CEncrypt@M@@QAEXPAM@Z
_TEXT	SEGMENT
_value$ = 8						; size = 4
?DecryptValueToPool@?$CEncrypt@M@@QAEXPAM@Z PROC	; CEncrypt<float>::DecryptValueToPool, COMDAT
; _this$ = ecx

; 1648 : 	{

  00000	55		 push	 ebp
  00001	8b ec		 mov	 ebp, esp
  00003	56		 push	 esi

; 1649 : 		m_RC5.DecryptByte( m_MemPool, m_TempMem, 4 );

  00004	8d 71 28	 lea	 esi, DWORD PTR [ecx+40]
  00007	6a 04		 push	 4
  00009	8d 41 1c	 lea	 eax, DWORD PTR [ecx+28]
  0000c	56		 push	 esi
  0000d	50		 push	 eax
  0000e	83 c1 0c	 add	 ecx, 12			; 0000000cH
  00011	e8 00 00 00 00	 call	 ?DecryptByte@ccddaabb@@QBEXPBDPADH@Z ; ccddaabb::DecryptByte

; 1650 : 		*value = *((float*)m_TempMem);

  00016	d9 06		 fld	 DWORD PTR [esi]
  00018	8b 45 08	 mov	 eax, DWORD PTR _value$[ebp]
  0001b	d9 18		 fstp	 DWORD PTR [eax]
  0001d	5e		 pop	 esi

; 1651 : 	}

  0001e	5d		 pop	 ebp
  0001f	c2 04 00	 ret	 4
?DecryptValueToPool@?$CEncrypt@M@@QAEXPAM@Z ENDP	; CEncrypt<float>::DecryptValueToPool
_TEXT	ENDS
PUBLIC	?DecryptValueToPool@?$CEncrypt@K@@QAEXPAK@Z	; CEncrypt<unsigned long>::DecryptValueToPool
; Function compile flags: /Ogsp
;	COMDAT ?DecryptValueToPool@?$CEncrypt@K@@QAEXPAK@Z
_TEXT	SEGMENT
_value$ = 8						; size = 4
?DecryptValueToPool@?$CEncrypt@K@@QAEXPAK@Z PROC	; CEncrypt<unsigned long>::DecryptValueToPool, COMDAT
; _this$ = ecx

; 1256 : 	{

  00000	55		 push	 ebp
  00001	8b ec		 mov	 ebp, esp
  00003	56		 push	 esi

; 1257 : 		m_RC5.DecryptByte( m_MemPool, m_TempMem, 4 );

  00004	8d 71 28	 lea	 esi, DWORD PTR [ecx+40]
  00007	6a 04		 push	 4
  00009	8d 41 1c	 lea	 eax, DWORD PTR [ecx+28]
  0000c	56		 push	 esi
  0000d	50		 push	 eax
  0000e	83 c1 0c	 add	 ecx, 12			; 0000000cH
  00011	e8 00 00 00 00	 call	 ?DecryptByte@ccddaabb@@QBEXPBDPADH@Z ; ccddaabb::DecryptByte

; 1258 : 		*value = *((DWORD*)m_TempMem);

  00016	8b 06		 mov	 eax, DWORD PTR [esi]
  00018	8b 4d 08	 mov	 ecx, DWORD PTR _value$[ebp]
  0001b	89 01		 mov	 DWORD PTR [ecx], eax
  0001d	5e		 pop	 esi

; 1259 : 	}

  0001e	5d		 pop	 ebp
  0001f	c2 04 00	 ret	 4
?DecryptValueToPool@?$CEncrypt@K@@QAEXPAK@Z ENDP	; CEncrypt<unsigned long>::DecryptValueToPool
_TEXT	ENDS
PUBLIC	?DecryptValueToPool@?$CEncrypt@H@@QAEXPAH@Z	; CEncrypt<int>::DecryptValueToPool
; Function compile flags: /Ogsp
;	COMDAT ?DecryptValueToPool@?$CEncrypt@H@@QAEXPAH@Z
_TEXT	SEGMENT
_value$ = 8						; size = 4
?DecryptValueToPool@?$CEncrypt@H@@QAEXPAH@Z PROC	; CEncrypt<int>::DecryptValueToPool, COMDAT
; _this$ = ecx

; 837  : 	{

  00000	55		 push	 ebp
  00001	8b ec		 mov	 ebp, esp
  00003	56		 push	 esi

; 838  : 		m_RC5.DecryptByte( m_MemPool, m_TempMem, 4 );

  00004	8d 71 28	 lea	 esi, DWORD PTR [ecx+40]
  00007	6a 04		 push	 4
  00009	8d 41 1c	 lea	 eax, DWORD PTR [ecx+28]
  0000c	56		 push	 esi
  0000d	50		 push	 eax
  0000e	83 c1 0c	 add	 ecx, 12			; 0000000cH
  00011	e8 00 00 00 00	 call	 ?DecryptByte@ccddaabb@@QBEXPBDPADH@Z ; ccddaabb::DecryptByte

; 839  : 		*value = *((int*)m_TempMem);

  00016	8b 06		 mov	 eax, DWORD PTR [esi]
  00018	8b 4d 08	 mov	 ecx, DWORD PTR _value$[ebp]
  0001b	89 01		 mov	 DWORD PTR [ecx], eax
  0001d	5e		 pop	 esi

; 840  : 	}

  0001e	5d		 pop	 ebp
  0001f	c2 04 00	 ret	 4
?DecryptValueToPool@?$CEncrypt@H@@QAEXPAH@Z ENDP	; CEncrypt<int>::DecryptValueToPool
_TEXT	ENDS
EXTRN	__imp_??0exception@std@@QAE@ABV01@@Z:PROC
; Function compile flags: /Ogsp
;	COMDAT ??0bad_alloc@std@@QAE@ABV01@@Z
_TEXT	SEGMENT
___that$ = 8						; size = 4
??0bad_alloc@std@@QAE@ABV01@@Z PROC			; std::bad_alloc::bad_alloc, COMDAT
; _this$ = ecx
  00000	55		 push	 ebp
  00001	8b ec		 mov	 ebp, esp
  00003	56		 push	 esi
  00004	ff 75 08	 push	 DWORD PTR ___that$[ebp]
  00007	8b f1		 mov	 esi, ecx
  00009	ff 15 00 00 00
	00		 call	 DWORD PTR __imp_??0exception@std@@QAE@ABV01@@Z
  0000f	c7 06 00 00 00
	00		 mov	 DWORD PTR [esi], OFFSET ??_7bad_alloc@std@@6B@
  00015	8b c6		 mov	 eax, esi
  00017	5e		 pop	 esi
  00018	5d		 pop	 ebp
  00019	c2 04 00	 ret	 4
??0bad_alloc@std@@QAE@ABV01@@Z ENDP			; std::bad_alloc::bad_alloc
_TEXT	ENDS
PUBLIC	??_R0?AVioBaseChar@@@8				; ioBaseChar `RTTI Type Descriptor'
PUBLIC	?ToBaseChar@@YAPAVioBaseChar@@PAVioGameEntity@@@Z ; ToBaseChar
;	COMDAT ??_R0?AVioBaseChar@@@8
; File d:\lost saga for developer\youtube\tutorial\source\src\lsclient\iobasechar.h
_DATA	SEGMENT
??_R0?AVioBaseChar@@@8 DD FLAT:??_7type_info@@6B@	; ioBaseChar `RTTI Type Descriptor'
	DD	00H
	DB	'.?AVioBaseChar@@', 00H
; Function compile flags: /Ogsp
_DATA	ENDS
;	COMDAT ?ToBaseChar@@YAPAVioBaseChar@@PAVioGameEntity@@@Z
_TEXT	SEGMENT
_pObj$ = 8						; size = 4
?ToBaseChar@@YAPAVioBaseChar@@PAVioGameEntity@@@Z PROC	; ToBaseChar, COMDAT

; 4326 : {

  00000	55		 push	 ebp
  00001	8b ec		 mov	 ebp, esp
  00003	56		 push	 esi

; 4327 : 	ioPlayEntity *pPlay = ToPlayEntity( pObj );

  00004	ff 75 08	 push	 DWORD PTR _pObj$[ebp]
  00007	e8 00 00 00 00	 call	 ?ToPlayEntity@@YAPAVioPlayEntity@@PAVioGameEntity@@@Z ; ToPlayEntity
  0000c	8b f0		 mov	 esi, eax
  0000e	59		 pop	 ecx

; 4328 : 	if( !pPlay || pPlay->GetSubType() != ioPlayEntity::PST_CHAR )

  0000f	85 f6		 test	 esi, esi
  00011	74 25		 je	 SHORT $LN1@ToBaseChar
  00013	8b 06		 mov	 eax, DWORD PTR [esi]
  00015	8b ce		 mov	 ecx, esi
  00017	ff 90 a4 00 00
	00		 call	 DWORD PTR [eax+164]
  0001d	85 c0		 test	 eax, eax
  0001f	75 17		 jne	 SHORT $LN1@ToBaseChar

; 4330 : 
; 4331 : 	return dynamic_cast< ioBaseChar* >( pPlay );

  00021	50		 push	 eax
  00022	68 00 00 00 00	 push	 OFFSET ??_R0?AVioBaseChar@@@8
  00027	68 00 00 00 00	 push	 OFFSET ??_R0?AVioPlayEntity@@@8
  0002c	50		 push	 eax
  0002d	56		 push	 esi
  0002e	e8 00 00 00 00	 call	 ___RTDynamicCast
  00033	83 c4 14	 add	 esp, 20			; 00000014H
  00036	eb 02		 jmp	 SHORT $LN3@ToBaseChar
$LN1@ToBaseChar:

; 4329 : 		return NULL;

  00038	33 c0		 xor	 eax, eax
$LN3@ToBaseChar:
  0003a	5e		 pop	 esi

; 4332 : }

  0003b	5d		 pop	 ebp
  0003c	c3		 ret	 0
?ToBaseChar@@YAPAVioBaseChar@@PAVioGameEntity@@@Z ENDP	; ToBaseChar
_TEXT	ENDS
PUBLIC	__real@4f800000
PUBLIC	?CreateFireBall@ioMissileWeapon2@@IAE_NABVioHashString@@@Z ; ioMissileWeapon2::CreateFireBall
EXTRN	?SetPosition@ioWeapon@@QAEXABUD3DXVECTOR3@@@Z:PROC ; ioWeapon::SetPosition
EXTRN	__imp_??D@YA?AUD3DXVECTOR3@@ABU0@0@Z:PROC
EXTRN	__imp_??D@YA?AUD3DXVECTOR3@@ABUD3DXQUATERNION@@ABU0@@Z:PROC
EXTRN	__imp_?GetBiped@ioEntityGroup@@QAEPAVioBiped@@ABVioHashString@@@Z:PROC
EXTRN	__imp_??1ioHashString@@QAE@XZ:PROC
EXTRN	__imp_?GetFirstLinkOffset@ioEffect@@QAE_NAAVioHashString@@AAUD3DXVECTOR3@@AAUD3DXQUATERNION@@@Z:PROC
EXTRN	__imp_?IsEmpty@ioHashString@@QBE_NXZ:PROC
EXTRN	__imp_?GetSkeletonName@ioEffect@@QBE?AVioHashString@@XZ:PROC
EXTRN	__imp_??0ioHashString@@QAE@XZ:PROC
EXTRN	__imp_?CreateEffect@ioEffectFactory@@QAEPAVioEffect@@ABVioHashString@@@Z:PROC
EXTRN	?GetOwner@ioWeapon@@QBEPAVioBaseChar@@XZ:PROC	; ioWeapon::GetOwner
EXTRN	___CxxFrameHandler3:PROC
EXTRN	@__security_check_cookie@4:PROC
EXTRN	__EH_epilog3_GS:PROC
EXTRN	__EH_prolog3_GS:PROC
;	COMDAT __real@4f800000
; File c:\program files (x86)\microsoft directx sdk (june 2010)\include\d3dx9math.inl
CONST	SEGMENT
__real@4f800000 DD 04f800000r			; 4.29497e+009
CONST	ENDS
;	COMDAT xdata$x
xdata$x	SEGMENT
__unwindtable$?CreateFireBall@ioMissileWeapon2@@IAE_NABVioHashString@@@Z DD 0ffffffffH
	DD	FLAT:__unwindfunclet$?CreateFireBall@ioMissileWeapon2@@IAE_NABVioHashString@@@Z$0
	DD	00H
	DD	FLAT:__unwindfunclet$?CreateFireBall@ioMissileWeapon2@@IAE_NABVioHashString@@@Z$1
__ehfuncinfo$?CreateFireBall@ioMissileWeapon2@@IAE_NABVioHashString@@@Z DD 019930522H
	DD	02H
	DD	FLAT:__unwindtable$?CreateFireBall@ioMissileWeapon2@@IAE_NABVioHashString@@@Z
	DD	2 DUP(00H)
	DD	2 DUP(00H)
	DD	00H
	DD	01H
; Function compile flags: /Ogsp
; File d:\lost saga for developer\youtube\tutorial\source\src\lsclient\iomissileweapon2.cpp
xdata$x	ENDS
;	COMDAT ?CreateFireBall@ioMissileWeapon2@@IAE_NABVioHashString@@@Z
_TEXT	SEGMENT
_qtLinkRotOffset$ = -100				; size = 16
_szLinkBiped$ = -84					; size = 16
_pOwner$ = -68						; size = 4
tv646 = -64						; size = 4
tv644 = -64						; size = 4
tv642 = -64						; size = 4
$T588526 = -64						; size = 4
$T588520 = -57						; size = 1
$T588521 = -56						; size = 16
$T584367 = -52						; size = 12
$T584368 = -40						; size = 12
$T584366 = -40						; size = 12
$T584365 = -40						; size = 12
$T584364 = -40						; size = 12
_vLinkPosOffset$ = -28					; size = 12
__$EHRec$ = -12						; size = 12
_szFileName$ = 8					; size = 4
?CreateFireBall@ioMissileWeapon2@@IAE_NABVioHashString@@@Z PROC ; ioMissileWeapon2::CreateFireBall, COMDAT
; _this$ = ecx

; 95   : {

  00000	6a 58		 push	 88			; 00000058H
  00002	b8 00 00 00 00	 mov	 eax, __ehhandler$?CreateFireBall@ioMissileWeapon2@@IAE_NABVioHashString@@@Z
  00007	e8 00 00 00 00	 call	 __EH_prolog3_GS
  0000c	8b 7d 08	 mov	 edi, DWORD PTR _szFileName$[ebp]
  0000f	83 65 c0 00	 and	 DWORD PTR $T588526[ebp], 0
  00013	8b d9		 mov	 ebx, ecx

; 96   : 	ioBaseChar *pOwner = GetOwner();

  00015	e8 00 00 00 00	 call	 ?GetOwner@ioWeapon@@QBEPAVioBaseChar@@XZ ; ioWeapon::GetOwner
  0001a	89 45 bc	 mov	 DWORD PTR _pOwner$[ebp], eax

; 97   : 	if( !pOwner )	return false;

  0001d	85 c0		 test	 eax, eax
  0001f	75 07		 jne	 SHORT $LN5@CreateFire
$LN44@CreateFire:
  00021	32 c0		 xor	 al, al
  00023	e9 74 02 00 00	 jmp	 $LN6@CreateFire
$LN5@CreateFire:

; 98   : 
; 99   : 	m_pFireBall = g_EffectFactory.CreateEffect( szFileName );

  00028	57		 push	 edi
  00029	ff 15 00 00 00
	00		 call	 DWORD PTR __imp_?GetSingleton@ioEffectFactory@@SAAAV1@XZ
  0002f	8b c8		 mov	 ecx, eax
  00031	ff 15 00 00 00
	00		 call	 DWORD PTR __imp_?CreateEffect@ioEffectFactory@@QAEPAVioEffect@@ABVioHashString@@@Z
  00037	89 83 98 08 00
	00		 mov	 DWORD PTR [ebx+2200], eax

; 100  : 	if( !m_pFireBall )	return false;

  0003d	85 c0		 test	 eax, eax
  0003f	74 e0		 je	 SHORT $LN44@CreateFire

; 101  : 
; 102  : 	GetParentSceneNode()->AttachObject( m_pFireBall );

  00041	8b 4b 04	 mov	 ecx, DWORD PTR [ebx+4]
  00044	8b 11		 mov	 edx, DWORD PTR [ecx]
  00046	83 c0 14	 add	 eax, 20			; 00000014H
  00049	50		 push	 eax
  0004a	ff 92 ac 00 00
	00		 call	 DWORD PTR [edx+172]

; 103  : 
; 104  : 	if( m_bDisableOwnerScale )

  00050	80 bb de 08 00
	00 00		 cmp	 BYTE PTR [ebx+2270], 0
  00057	74 59		 je	 SHORT $LN3@CreateFire

; 105  : 		GetParentSceneNode()->SetScale( FLOAT1, FLOAT1, FLOAT1 );

  00059	8b 4b 04	 mov	 ecx, DWORD PTR [ebx+4]
  0005c	b8 01 00 00 00	 mov	 eax, 1
  00061	8b d0		 mov	 edx, eax
  00063	b8 01 00 00 00	 mov	 eax, 1
  00068	8b f8		 mov	 edi, eax
  0006a	b8 01 00 00 00	 mov	 eax, 1
  0006f	8b 31		 mov	 esi, DWORD PTR [ecx]
  00071	89 55 c0	 mov	 DWORD PTR tv646[ebp], edx
  00074	db 45 c0	 fild	 DWORD PTR tv646[ebp]
  00077	85 d2		 test	 edx, edx
  00079	79 06		 jns	 SHORT $LN41@CreateFire
  0007b	d8 05 00 00 00
	00		 fadd	 DWORD PTR __real@4f800000
$LN41@CreateFire:
  00081	83 ec 0c	 sub	 esp, 12			; 0000000cH
  00084	d9 5c 24 08	 fstp	 DWORD PTR [esp+8]
  00088	89 7d c0	 mov	 DWORD PTR tv644[ebp], edi
  0008b	db 45 c0	 fild	 DWORD PTR tv644[ebp]
  0008e	85 ff		 test	 edi, edi
  00090	79 06		 jns	 SHORT $LN42@CreateFire
  00092	d8 05 00 00 00
	00		 fadd	 DWORD PTR __real@4f800000
$LN42@CreateFire:
  00098	d9 5c 24 04	 fstp	 DWORD PTR [esp+4]
  0009c	89 45 c0	 mov	 DWORD PTR tv642[ebp], eax
  0009f	db 45 c0	 fild	 DWORD PTR tv642[ebp]
  000a2	85 c0		 test	 eax, eax
  000a4	79 06		 jns	 SHORT $LN43@CreateFire
  000a6	d8 05 00 00 00
	00		 fadd	 DWORD PTR __real@4f800000
$LN43@CreateFire:
  000ac	d9 1c 24	 fstp	 DWORD PTR [esp]
  000af	ff 56 1c	 call	 DWORD PTR [esi+28]
$LN3@CreateFire:

; 106  : 
; 107  : 	ioHashString szLinkBiped;

  000b2	8d 4d ac	 lea	 ecx, DWORD PTR _szLinkBiped$[ebp]
  000b5	ff 15 00 00 00
	00		 call	 DWORD PTR __imp_??0ioHashString@@QAE@XZ

; 108  : 	D3DXVECTOR3 vLinkPosOffset;
; 109  : 	D3DXQUATERNION qtLinkRotOffset;
; 110  : 
; 111  : 	if( m_pFireBall->GetSkeletonName().IsEmpty() && m_pFireBall->GetFirstLinkOffset(szLinkBiped, vLinkPosOffset, qtLinkRotOffset ) )

  000bb	8b 8b 98 08 00
	00		 mov	 ecx, DWORD PTR [ebx+2200]
  000c1	83 65 fc 00	 and	 DWORD PTR __$EHRec$[ebp+8], 0
  000c5	8d 45 c8	 lea	 eax, DWORD PTR $T588521[ebp]
  000c8	50		 push	 eax
  000c9	ff 15 00 00 00
	00		 call	 DWORD PTR __imp_?GetSkeletonName@ioEffect@@QBE?AVioHashString@@XZ
  000cf	8b c8		 mov	 ecx, eax
  000d1	c6 45 fc 01	 mov	 BYTE PTR __$EHRec$[ebp+8], 1
  000d5	c7 45 c0 01 00
	00 00		 mov	 DWORD PTR $T588526[ebp], 1
  000dc	ff 15 00 00 00
	00		 call	 DWORD PTR __imp_?IsEmpty@ioHashString@@QBE_NXZ
  000e2	84 c0		 test	 al, al
  000e4	74 20		 je	 SHORT $LN10@CreateFire
  000e6	8b 8b 98 08 00
	00		 mov	 ecx, DWORD PTR [ebx+2200]
  000ec	8d 45 9c	 lea	 eax, DWORD PTR _qtLinkRotOffset$[ebp]
  000ef	50		 push	 eax
  000f0	8d 45 e4	 lea	 eax, DWORD PTR _vLinkPosOffset$[ebp]
  000f3	50		 push	 eax
  000f4	8d 45 ac	 lea	 eax, DWORD PTR _szLinkBiped$[ebp]
  000f7	50		 push	 eax
  000f8	ff 15 00 00 00
	00		 call	 DWORD PTR __imp_?GetFirstLinkOffset@ioEffect@@QAE_NAAVioHashString@@AAUD3DXVECTOR3@@AAUD3DXQUATERNION@@@Z
  000fe	c6 45 c7 01	 mov	 BYTE PTR $T588520[ebp], 1
  00102	84 c0		 test	 al, al
  00104	75 04		 jne	 SHORT $LN11@CreateFire
$LN10@CreateFire:
  00106	c6 45 c7 00	 mov	 BYTE PTR $T588520[ebp], 0
$LN11@CreateFire:
  0010a	83 65 fc 00	 and	 DWORD PTR __$EHRec$[ebp+8], 0
  0010e	8d 4d c8	 lea	 ecx, DWORD PTR $T588521[ebp]
  00111	ff 15 00 00 00
	00		 call	 DWORD PTR __imp_??1ioHashString@@QAE@XZ
  00117	80 7d c7 00	 cmp	 BYTE PTR $T588520[ebp], 0
  0011b	0f 84 4a 01 00
	00		 je	 $LN1@CreateFire

; 112  : 	{
; 113  : 		ioBiped *pLinked = pOwner->GetGroup()->GetBiped( szLinkBiped );

  00121	8b 45 bc	 mov	 eax, DWORD PTR _pOwner$[ebp]
  00124	8b 48 04	 mov	 ecx, DWORD PTR [eax+4]
  00127	8d 45 ac	 lea	 eax, DWORD PTR _szLinkBiped$[ebp]
  0012a	50		 push	 eax
  0012b	ff 15 00 00 00
	00		 call	 DWORD PTR __imp_?GetBiped@ioEntityGroup@@QAEPAVioBiped@@ABVioHashString@@@Z
  00131	8b f8		 mov	 edi, eax

; 114  : 		if( pLinked )

  00133	85 ff		 test	 edi, edi
  00135	0f 84 30 01 00
	00		 je	 $LN1@CreateFire

; 115  : 		{
; 116  : 			vLinkPosOffset = pLinked->GetDerivedOrientation() * vLinkPosOffset + pLinked->GetDerivedPosition();

  0013b	8b 07		 mov	 eax, DWORD PTR [edi]
  0013d	8b cf		 mov	 ecx, edi
  0013f	ff 50 7c	 call	 DWORD PTR [eax+124]
  00142	8b f0		 mov	 esi, eax
  00144	8d 45 e4	 lea	 eax, DWORD PTR _vLinkPosOffset$[ebp]
  00147	50		 push	 eax
  00148	8b 07		 mov	 eax, DWORD PTR [edi]
  0014a	8b cf		 mov	 ecx, edi
  0014c	ff 50 78	 call	 DWORD PTR [eax+120]
  0014f	50		 push	 eax
  00150	8d 45 d8	 lea	 eax, DWORD PTR $T584364[ebp]
  00153	50		 push	 eax
  00154	ff 15 00 00 00
	00		 call	 DWORD PTR __imp_??D@YA?AUD3DXVECTOR3@@ABUD3DXQUATERNION@@ABU0@@Z
  0015a	f3 0f 10 06	 movss	 xmm0, DWORD PTR [esi]
  0015e	f3 0f 10 08	 movss	 xmm1, DWORD PTR [eax]
  00162	f3 0f 10 50 04	 movss	 xmm2, DWORD PTR [eax+4]
  00167	f3 0f 10 58 08	 movss	 xmm3, DWORD PTR [eax+8]

; 117  : 			vLinkPosOffset = vLinkPosOffset * pOwner->GetWorldScale();

  0016c	8b 4d bc	 mov	 ecx, DWORD PTR _pOwner$[ebp]
  0016f	0f 5a c9	 cvtps2pd xmm1, xmm1
  00172	0f 5a c0	 cvtps2pd xmm0, xmm0
  00175	f2 0f 58 c1	 addsd	 xmm0, xmm1
  00179	f3 0f 10 4e 04	 movss	 xmm1, DWORD PTR [esi+4]
  0017e	0f 5a d2	 cvtps2pd xmm2, xmm2
  00181	0f 5a c9	 cvtps2pd xmm1, xmm1
  00184	f2 0f 58 ca	 addsd	 xmm1, xmm2
  00188	f3 0f 10 56 08	 movss	 xmm2, DWORD PTR [esi+8]
  0018d	0f 5a d2	 cvtps2pd xmm2, xmm2
  00190	0f 5a db	 cvtps2pd xmm3, xmm3
  00193	f2 0f 58 d3	 addsd	 xmm2, xmm3
  00197	66 0f 5a c0	 cvtpd2ps xmm0, xmm0
  0019b	f3 0f 11 45 d8	 movss	 DWORD PTR $T584365[ebp], xmm0
  001a0	66 0f 5a c9	 cvtpd2ps xmm1, xmm1
  001a4	f3 0f 11 4d dc	 movss	 DWORD PTR $T584365[ebp+4], xmm1
  001a9	66 0f 5a d2	 cvtpd2ps xmm2, xmm2
  001ad	f3 0f 11 55 e0	 movss	 DWORD PTR $T584365[ebp+8], xmm2
  001b2	8d 75 d8	 lea	 esi, DWORD PTR $T584365[ebp]
  001b5	8d 7d e4	 lea	 edi, DWORD PTR _vLinkPosOffset$[ebp]
  001b8	a5		 movsd
  001b9	a5		 movsd
  001ba	a5		 movsd
  001bb	8b 01		 mov	 eax, DWORD PTR [ecx]
  001bd	83 c4 0c	 add	 esp, 12			; 0000000cH
  001c0	ff 50 78	 call	 DWORD PTR [eax+120]
  001c3	50		 push	 eax
  001c4	8d 45 e4	 lea	 eax, DWORD PTR _vLinkPosOffset$[ebp]
  001c7	50		 push	 eax
  001c8	8d 45 d8	 lea	 eax, DWORD PTR $T584366[ebp]
  001cb	50		 push	 eax
  001cc	ff 15 00 00 00
	00		 call	 DWORD PTR __imp_??D@YA?AUD3DXVECTOR3@@ABU0@0@Z
  001d2	8b f0		 mov	 esi, eax
  001d4	8d 7d e4	 lea	 edi, DWORD PTR _vLinkPosOffset$[ebp]
  001d7	a5		 movsd
  001d8	a5		 movsd
  001d9	a5		 movsd

; 118  : 			vLinkPosOffset = pOwner->GetWorldOrientation() * vLinkPosOffset + pOwner->GetWorldPosition();

  001da	8b 7d bc	 mov	 edi, DWORD PTR _pOwner$[ebp]
  001dd	8b 07		 mov	 eax, DWORD PTR [edi]
  001df	83 c4 0c	 add	 esp, 12			; 0000000cH
  001e2	8b cf		 mov	 ecx, edi
  001e4	ff 50 70	 call	 DWORD PTR [eax+112]
  001e7	8b f0		 mov	 esi, eax
  001e9	8d 45 e4	 lea	 eax, DWORD PTR _vLinkPosOffset$[ebp]
  001ec	50		 push	 eax
  001ed	8b 07		 mov	 eax, DWORD PTR [edi]
  001ef	8b cf		 mov	 ecx, edi
  001f1	ff 50 74	 call	 DWORD PTR [eax+116]
  001f4	50		 push	 eax
  001f5	8d 45 cc	 lea	 eax, DWORD PTR $T584367[ebp]
  001f8	50		 push	 eax
  001f9	ff 15 00 00 00
	00		 call	 DWORD PTR __imp_??D@YA?AUD3DXVECTOR3@@ABUD3DXQUATERNION@@ABU0@@Z
  001ff	f3 0f 10 06	 movss	 xmm0, DWORD PTR [esi]
  00203	f3 0f 10 08	 movss	 xmm1, DWORD PTR [eax]
  00207	f3 0f 10 50 04	 movss	 xmm2, DWORD PTR [eax+4]
  0020c	0f 5a c9	 cvtps2pd xmm1, xmm1
  0020f	0f 5a c0	 cvtps2pd xmm0, xmm0
  00212	f2 0f 58 c1	 addsd	 xmm0, xmm1
  00216	f3 0f 10 4e 04	 movss	 xmm1, DWORD PTR [esi+4]
  0021b	0f 5a c9	 cvtps2pd xmm1, xmm1
  0021e	0f 5a d2	 cvtps2pd xmm2, xmm2
  00221	83 c4 0c	 add	 esp, 12			; 0000000cH
  00224	66 0f 5a c0	 cvtpd2ps xmm0, xmm0
  00228	f2 0f 58 ca	 addsd	 xmm1, xmm2
  0022c	f3 0f 10 56 08	 movss	 xmm2, DWORD PTR [esi+8]
  00231	f3 0f 10 58 08	 movss	 xmm3, DWORD PTR [eax+8]
  00236	0f 5a d2	 cvtps2pd xmm2, xmm2
  00239	0f 5a db	 cvtps2pd xmm3, xmm3
  0023c	f2 0f 58 d3	 addsd	 xmm2, xmm3
  00240	f3 0f 11 45 d8	 movss	 DWORD PTR $T584368[ebp], xmm0
  00245	66 0f 5a c9	 cvtpd2ps xmm1, xmm1
  00249	f3 0f 11 4d dc	 movss	 DWORD PTR $T584368[ebp+4], xmm1
  0024e	66 0f 5a d2	 cvtpd2ps xmm2, xmm2
  00252	f3 0f 11 55 e0	 movss	 DWORD PTR $T584368[ebp+8], xmm2
  00257	8d 75 d8	 lea	 esi, DWORD PTR $T584368[ebp]
  0025a	8d 7d e4	 lea	 edi, DWORD PTR _vLinkPosOffset$[ebp]
  0025d	a5		 movsd
  0025e	a5		 movsd

; 119  : 			SetPosition( vLinkPosOffset );

  0025f	8d 45 e4	 lea	 eax, DWORD PTR _vLinkPosOffset$[ebp]
  00262	50		 push	 eax
  00263	8b cb		 mov	 ecx, ebx
  00265	a5		 movsd
  00266	e8 00 00 00 00	 call	 ?SetPosition@ioWeapon@@QAEXABUD3DXVECTOR3@@@Z ; ioWeapon::SetPosition
$LN1@CreateFire:

; 120  : 		}
; 121  : 	}
; 122  : 
; 123  : 	m_StartPos = GetPosition();

  0026b	8b 03		 mov	 eax, DWORD PTR [ebx]
  0026d	8b cb		 mov	 ecx, ebx
  0026f	ff 50 70	 call	 DWORD PTR [eax+112]

; 124  : 
; 125  : 	AddEffectEvent( m_pFireBall );

  00272	ff b3 98 08 00
	00		 push	 DWORD PTR [ebx+2200]
  00278	8b f0		 mov	 esi, eax
  0027a	8b 03		 mov	 eax, DWORD PTR [ebx]
  0027c	8d bb b4 08 00
	00		 lea	 edi, DWORD PTR [ebx+2228]
  00282	a5		 movsd
  00283	a5		 movsd
  00284	8b cb		 mov	 ecx, ebx
  00286	a5		 movsd
  00287	ff 90 68 01 00
	00		 call	 DWORD PTR [eax+360]

; 126  : 	return true;

  0028d	83 4d fc ff	 or	 DWORD PTR __$EHRec$[ebp+8], -1
  00291	8d 4d ac	 lea	 ecx, DWORD PTR _szLinkBiped$[ebp]
  00294	ff 15 00 00 00
	00		 call	 DWORD PTR __imp_??1ioHashString@@QAE@XZ
  0029a	b0 01		 mov	 al, 1
$LN6@CreateFire:

; 127  : }

  0029c	e8 00 00 00 00	 call	 __EH_epilog3_GS
  002a1	c2 04 00	 ret	 4
_TEXT	ENDS
;	COMDAT text$x
text$x	SEGMENT
__unwindfunclet$?CreateFireBall@ioMissileWeapon2@@IAE_NABVioHashString@@@Z$0:
  00000	8d 4d ac	 lea	 ecx, DWORD PTR _szLinkBiped$[ebp]
  00003	ff 25 00 00 00
	00		 jmp	 DWORD PTR __imp_??1ioHashString@@QAE@XZ
__unwindfunclet$?CreateFireBall@ioMissileWeapon2@@IAE_NABVioHashString@@@Z$1:
  00009	8b 45 c0	 mov	 eax, DWORD PTR $T588526[ebp]
  0000c	83 e0 01	 and	 eax, 1
  0000f	0f 84 0d 00 00
	00		 je	 $LN14@CreateFire
  00015	83 65 c0 fe	 and	 DWORD PTR $T588526[ebp], -2 ; fffffffeH
  00019	8d 4d c8	 lea	 ecx, DWORD PTR $T588521[ebp]
  0001c	ff 25 00 00 00
	00		 jmp	 DWORD PTR __imp_??1ioHashString@@QAE@XZ
$LN14@CreateFire:
  00022	c3		 ret	 0
__ehhandler$?CreateFireBall@ioMissileWeapon2@@IAE_NABVioHashString@@@Z:
  00023	8b 54 24 08	 mov	 edx, DWORD PTR [esp+8]
  00027	8d 42 0c	 lea	 eax, DWORD PTR [edx+12]
  0002a	8b 4a 98	 mov	 ecx, DWORD PTR [edx-104]
  0002d	33 c8		 xor	 ecx, eax
  0002f	e8 00 00 00 00	 call	 @__security_check_cookie@4
  00034	8b 4a fc	 mov	 ecx, DWORD PTR [edx-4]
  00037	33 c8		 xor	 ecx, eax
  00039	e8 00 00 00 00	 call	 @__security_check_cookie@4
  0003e	b8 00 00 00 00	 mov	 eax, OFFSET __ehfuncinfo$?CreateFireBall@ioMissileWeapon2@@IAE_NABVioHashString@@@Z
  00043	e9 00 00 00 00	 jmp	 ___CxxFrameHandler3
text$x	ENDS
?CreateFireBall@ioMissileWeapon2@@IAE_NABVioHashString@@@Z ENDP ; ioMissileWeapon2::CreateFireBall
PUBLIC	?ChangeWeaponEffect@ioMissileWeapon2@@QAE_NABVioHashString@@@Z ; ioMissileWeapon2::ChangeWeaponEffect
; Function compile flags: /Ogsp
;	COMDAT ?ChangeWeaponEffect@ioMissileWeapon2@@QAE_NABVioHashString@@@Z
_TEXT	SEGMENT
_szEffectName$ = 8					; size = 4
?ChangeWeaponEffect@ioMissileWeapon2@@QAE_NABVioHashString@@@Z PROC ; ioMissileWeapon2::ChangeWeaponEffect, COMDAT
; _this$ = ecx

; 130  : {

  00000	55		 push	 ebp
  00001	8b ec		 mov	 ebp, esp
  00003	56		 push	 esi
  00004	8b f1		 mov	 esi, ecx

; 131  : 	ioBaseChar *pOwner = GetOwner();

  00006	e8 00 00 00 00	 call	 ?GetOwner@ioWeapon@@QBEPAVioBaseChar@@XZ ; ioWeapon::GetOwner

; 132  : 	if( !pOwner )	return false;

  0000b	85 c0		 test	 eax, eax
  0000d	75 04		 jne	 SHORT $LN4@ChangeWeap
$LN11@ChangeWeap:
  0000f	32 c0		 xor	 al, al
  00011	eb 69		 jmp	 SHORT $LN5@ChangeWeap
$LN4@ChangeWeap:

; 133  : 
; 134  : 	if( szEffectName.IsEmpty() )

  00013	8b 4d 08	 mov	 ecx, DWORD PTR _szEffectName$[ebp]
  00016	ff 15 00 00 00
	00		 call	 DWORD PTR __imp_?IsEmpty@ioHashString@@QBE_NXZ
  0001c	84 c0		 test	 al, al

; 135  : 		return false;

  0001e	75 ef		 jne	 SHORT $LN11@ChangeWeap

; 136  : 
; 137  : 	if( m_pFireBall )

  00020	8b 86 98 08 00
	00		 mov	 eax, DWORD PTR [esi+2200]
  00026	57		 push	 edi
  00027	8b 3d 00 00 00
	00		 mov	 edi, DWORD PTR __imp_?GetSingleton@ioEffectFactory@@SAAAV1@XZ
  0002d	85 c0		 test	 eax, eax
  0002f	74 12		 je	 SHORT $LN2@ChangeWeap

; 138  : 	{
; 139  : 		g_EffectFactory.DestroyEffect( m_pFireBall );

  00031	50		 push	 eax
  00032	ff d7		 call	 edi
  00034	8b c8		 mov	 ecx, eax
  00036	ff 15 00 00 00
	00		 call	 DWORD PTR __imp_?DestroyEffect@ioEffectFactory@@QAEXPAVioEffect@@@Z

; 140  : 		m_pFireBall = NULL;

  0003c	83 a6 98 08 00
	00 00		 and	 DWORD PTR [esi+2200], 0
$LN2@ChangeWeap:

; 141  : 	}
; 142  : 
; 143  : 	m_pFireBall = g_EffectFactory.CreateEffect( szEffectName );

  00043	ff 75 08	 push	 DWORD PTR _szEffectName$[ebp]
  00046	ff d7		 call	 edi
  00048	8b c8		 mov	 ecx, eax
  0004a	ff 15 00 00 00
	00		 call	 DWORD PTR __imp_?CreateEffect@ioEffectFactory@@QAEPAVioEffect@@ABVioHashString@@@Z
  00050	89 86 98 08 00
	00		 mov	 DWORD PTR [esi+2200], eax
  00056	5f		 pop	 edi

; 144  : 	if( !m_pFireBall )	return false;

  00057	85 c0		 test	 eax, eax
  00059	74 b4		 je	 SHORT $LN11@ChangeWeap

; 145  : 
; 146  : 	GetParentSceneNode()->AttachObject( m_pFireBall );

  0005b	8b 4e 04	 mov	 ecx, DWORD PTR [esi+4]
  0005e	8b 11		 mov	 edx, DWORD PTR [ecx]
  00060	83 c0 14	 add	 eax, 20			; 00000014H
  00063	50		 push	 eax
  00064	ff 92 ac 00 00
	00		 call	 DWORD PTR [edx+172]

; 147  : 
; 148  : 	AddEffectEvent( m_pFireBall );

  0006a	ff b6 98 08 00
	00		 push	 DWORD PTR [esi+2200]
  00070	8b 06		 mov	 eax, DWORD PTR [esi]
  00072	8b ce		 mov	 ecx, esi
  00074	ff 90 68 01 00
	00		 call	 DWORD PTR [eax+360]

; 149  : 	return true;

  0007a	b0 01		 mov	 al, 1
$LN5@ChangeWeap:
  0007c	5e		 pop	 esi

; 150  : }

  0007d	5d		 pop	 ebp
  0007e	c2 04 00	 ret	 4
?ChangeWeaponEffect@ioMissileWeapon2@@QAE_NABVioHashString@@@Z ENDP ; ioMissileWeapon2::ChangeWeaponEffect
_TEXT	ENDS
PUBLIC	__$ArrayPad$
PUBLIC	?SetMoveDir@ioMissileWeapon2@@UAEXABUD3DXVECTOR3@@@Z ; ioMissileWeapon2::SetMoveDir
EXTRN	?SetOrientation@ioWeapon@@QAEXABUD3DXQUATERNION@@@Z:PROC ; ioWeapon::SetOrientation
EXTRN	__imp_?CalcDirectionQuaternion@ioMath@@SAXAAUD3DXQUATERNION@@ABUD3DXVECTOR3@@@Z:PROC
EXTRN	___security_cookie:DWORD
; Function compile flags: /Ogsp
;	COMDAT ?SetMoveDir@ioMissileWeapon2@@UAEXABUD3DXVECTOR3@@@Z
_TEXT	SEGMENT
_qtRot$ = -32						; size = 16
$T584384 = -16						; size = 12
__$ArrayPad$ = -4					; size = 4
_vDir$ = 8						; size = 4
?SetMoveDir@ioMissileWeapon2@@UAEXABUD3DXVECTOR3@@@Z PROC ; ioMissileWeapon2::SetMoveDir, COMDAT
; _this$ = ecx

; 153  : {

  00000	55		 push	 ebp
  00001	8b ec		 mov	 ebp, esp
  00003	83 ec 20	 sub	 esp, 32			; 00000020H
  00006	a1 00 00 00 00	 mov	 eax, DWORD PTR ___security_cookie
  0000b	33 c5		 xor	 eax, ebp
  0000d	89 45 fc	 mov	 DWORD PTR __$ArrayPad$[ebp], eax
  00010	8b 45 08	 mov	 eax, DWORD PTR _vDir$[ebp]
  00013	53		 push	 ebx
  00014	56		 push	 esi
  00015	57		 push	 edi
  00016	8b d9		 mov	 ebx, ecx

; 154  : 	m_vMoveDir = vDir;

  00018	8b f0		 mov	 esi, eax
  0001a	8d bb c0 08 00
	00		 lea	 edi, DWORD PTR [ebx+2240]
  00020	a5		 movsd
  00021	a5		 movsd
  00022	a5		 movsd

; 155  : 
; 156  : 	D3DXQUATERNION qtRot;
; 157  : 	ioMath::CalcDirectionQuaternion( qtRot, -vDir );

  00023	f3 0f 10 08	 movss	 xmm1, DWORD PTR [eax]
  00027	f3 0f 10 05 00
	00 00 00	 movss	 xmm0, DWORD PTR __mask@@NegFloat@
  0002f	0f 57 c8	 xorps	 xmm1, xmm0
  00032	f3 0f 11 4d f0	 movss	 DWORD PTR $T584384[ebp], xmm1
  00037	f3 0f 10 48 04	 movss	 xmm1, DWORD PTR [eax+4]
  0003c	0f 57 c8	 xorps	 xmm1, xmm0
  0003f	f3 0f 11 4d f4	 movss	 DWORD PTR $T584384[ebp+4], xmm1
  00044	f3 0f 10 48 08	 movss	 xmm1, DWORD PTR [eax+8]
  00049	8d 45 f0	 lea	 eax, DWORD PTR $T584384[ebp]
  0004c	50		 push	 eax
  0004d	8d 45 e0	 lea	 eax, DWORD PTR _qtRot$[ebp]
  00050	0f 57 c8	 xorps	 xmm1, xmm0
  00053	50		 push	 eax
  00054	f3 0f 11 4d f8	 movss	 DWORD PTR $T584384[ebp+8], xmm1
  00059	ff 15 00 00 00
	00		 call	 DWORD PTR __imp_?CalcDirectionQuaternion@ioMath@@SAXAAUD3DXQUATERNION@@ABUD3DXVECTOR3@@@Z
  0005f	59		 pop	 ecx
  00060	59		 pop	 ecx

; 158  : 	SetOrientation( qtRot );

  00061	8d 45 e0	 lea	 eax, DWORD PTR _qtRot$[ebp]
  00064	50		 push	 eax
  00065	8b cb		 mov	 ecx, ebx
  00067	e8 00 00 00 00	 call	 ?SetOrientation@ioWeapon@@QAEXABUD3DXQUATERNION@@@Z ; ioWeapon::SetOrientation

; 159  : }

  0006c	8b 4d fc	 mov	 ecx, DWORD PTR __$ArrayPad$[ebp]
  0006f	5f		 pop	 edi
  00070	5e		 pop	 esi
  00071	33 cd		 xor	 ecx, ebp
  00073	5b		 pop	 ebx
  00074	e8 00 00 00 00	 call	 @__security_check_cookie@4
  00079	c9		 leave
  0007a	c2 04 00	 ret	 4
?SetMoveDir@ioMissileWeapon2@@UAEXABUD3DXVECTOR3@@@Z ENDP ; ioMissileWeapon2::SetMoveDir
_TEXT	ENDS
PUBLIC	_this$GSCopy$
PUBLIC	__$ArrayPad$
PUBLIC	?RotateMoveDir@ioMissileWeapon2@@QAEXMM@Z	; ioMissileWeapon2::RotateMoveDir
EXTRN	__imp_?UNIT_Y@ioMath@@2UD3DXVECTOR3@@A:BYTE
EXTRN	_D3DXQuaternionRotationAxis@12:PROC
EXTRN	__imp_?ArrangeHead@ioMath@@SAMM@Z:PROC
; Function compile flags: /Ogsp
;	COMDAT ?RotateMoveDir@ioMissileWeapon2@@QAEXMM@Z
_TEXT	SEGMENT
_qtRot$ = -64						; size = 16
_this$GSCopy$ = -48					; size = 4
tv437 = -44						; size = 4
tv413 = -44						; size = 4
_vAxis$ = -40						; size = 12
$T584413 = -28						; size = 12
$T584412 = -28						; size = 12
$T584406 = -28						; size = 12
_v$588658 = -16						; size = 12
$T584414 = -16						; size = 12
__$ArrayPad$ = -4					; size = 4
_fAngleH$ = 8						; size = 4
_fAngleV$ = 12						; size = 4
?RotateMoveDir@ioMissileWeapon2@@QAEXMM@Z PROC		; ioMissileWeapon2::RotateMoveDir, COMDAT
; _this$ = ecx

; 183  : {

  00000	55		 push	 ebp
  00001	8b ec		 mov	 ebp, esp
  00003	83 ec 40	 sub	 esp, 64			; 00000040H
  00006	a1 00 00 00 00	 mov	 eax, DWORD PTR ___security_cookie
  0000b	33 c5		 xor	 eax, ebp
  0000d	89 45 fc	 mov	 DWORD PTR __$ArrayPad$[ebp], eax

; 184  : 	fAngleH = ioMath::ArrangeHead( fAngleH );

  00010	f3 0f 10 45 08	 movss	 xmm0, DWORD PTR _fAngleH$[ebp]
  00015	53		 push	 ebx
  00016	56		 push	 esi
  00017	57		 push	 edi
  00018	8b d9		 mov	 ebx, ecx
  0001a	51		 push	 ecx
  0001b	89 5d d0	 mov	 DWORD PTR _this$GSCopy$[ebp], ebx
  0001e	f3 0f 11 04 24	 movss	 DWORD PTR [esp], xmm0
  00023	ff 15 00 00 00
	00		 call	 DWORD PTR __imp_?ArrangeHead@ioMath@@SAMM@Z
  00029	d9 5d 08	 fstp	 DWORD PTR _fAngleH$[ebp]

; 185  : 	fAngleV = ioMath::ArrangeHead( fAngleV );

  0002c	f3 0f 10 45 0c	 movss	 xmm0, DWORD PTR _fAngleV$[ebp]
  00031	f3 0f 11 04 24	 movss	 DWORD PTR [esp], xmm0
  00036	ff 15 00 00 00
	00		 call	 DWORD PTR __imp_?ArrangeHead@ioMath@@SAMM@Z
  0003c	d9 5d 0c	 fstp	 DWORD PTR _fAngleV$[ebp]
  0003f	59		 pop	 ecx

; 186  : 
; 187  : 	D3DXVECTOR3 vAxis;
; 188  : 	D3DXVec3Cross( &vAxis, &m_vMoveDir, &D3DXVECTOR3( 0.0f, -FLOAT1, 0.0f ) );

  00040	b8 01 00 00 00	 mov	 eax, 1
  00045	89 45 d4	 mov	 DWORD PTR tv437[ebp], eax
  00048	db 45 d4	 fild	 DWORD PTR tv437[ebp]
  0004b	85 c0		 test	 eax, eax
  0004d	79 06		 jns	 SHORT $LN23@RotateMove
  0004f	d8 05 00 00 00
	00		 fadd	 DWORD PTR __real@4f800000
$LN23@RotateMove:
  00055	f3 0f 10 83 c4
	08 00 00	 movss	 xmm0, DWORD PTR [ebx+2244]
  0005d	d9 e0		 fchs
  0005f	f3 0f 10 93 c8
	08 00 00	 movss	 xmm2, DWORD PTR [ebx+2248]
  00067	d9 5d e8	 fstp	 DWORD PTR $T584406[ebp+4]
  0006a	f3 0f 10 65 e8	 movss	 xmm4, DWORD PTR $T584406[ebp+4]

; 189  : 
; 190  : 	// vertical
; 191  : 	D3DXQUATERNION qtRot;
; 192  : 	D3DXQuaternionRotationAxis( &qtRot, &vAxis, DEGtoRAD(fAngleV) );

  0006f	d9 45 0c	 fld	 DWORD PTR _fAngleV$[ebp]
  00072	dc 0d 00 00 00
	00		 fmul	 QWORD PTR __real@3f91df46a2526c7a
  00078	0f 5a da	 cvtps2pd xmm3, xmm2
  0007b	0f 5a c8	 cvtps2pd xmm1, xmm0
  0007e	0f 57 c0	 xorps	 xmm0, xmm0
  00081	81 c3 c0 08 00
	00		 add	 ebx, 2240		; 000008c0H
  00087	d9 5d d4	 fstp	 DWORD PTR tv413[ebp]
  0008a	f2 0f 59 c8	 mulsd	 xmm1, xmm0
  0008e	d9 45 d4	 fld	 DWORD PTR tv413[ebp]
  00091	0f 5a e4	 cvtps2pd xmm4, xmm4
  00094	f2 0f 59 dc	 mulsd	 xmm3, xmm4
  00098	66 0f 28 e1	 movapd	 xmm4, xmm1
  0009c	f2 0f 5c e3	 subsd	 xmm4, xmm3
  000a0	0f 57 db	 xorps	 xmm3, xmm3
  000a3	f2 0f 5a dc	 cvtsd2ss xmm3, xmm4
  000a7	f3 0f 11 5d f0	 movss	 DWORD PTR _v$588658[ebp], xmm3
  000ac	f3 0f 10 1b	 movss	 xmm3, DWORD PTR [ebx]
  000b0	0f 5a d2	 cvtps2pd xmm2, xmm2
  000b3	f2 0f 59 d0	 mulsd	 xmm2, xmm0
  000b7	0f 5a e3	 cvtps2pd xmm4, xmm3
  000ba	f2 0f 59 e0	 mulsd	 xmm4, xmm0
  000be	f2 0f 5c d4	 subsd	 xmm2, xmm4
  000c2	66 0f 5a c2	 cvtpd2ps xmm0, xmm2
  000c6	f3 0f 10 55 e8	 movss	 xmm2, DWORD PTR $T584406[ebp+4]
  000cb	f3 0f 11 45 f4	 movss	 DWORD PTR _v$588658[ebp+4], xmm0
  000d0	0f 5a d2	 cvtps2pd xmm2, xmm2
  000d3	8d 75 f0	 lea	 esi, DWORD PTR _v$588658[ebp]
  000d6	8d 7d d8	 lea	 edi, DWORD PTR _vAxis$[ebp]
  000d9	0f 5a c3	 cvtps2pd xmm0, xmm3
  000dc	f2 0f 59 c2	 mulsd	 xmm0, xmm2
  000e0	f2 0f 5c c1	 subsd	 xmm0, xmm1
  000e4	66 0f 5a c0	 cvtpd2ps xmm0, xmm0
  000e8	f3 0f 11 45 f8	 movss	 DWORD PTR _v$588658[ebp+8], xmm0
  000ed	a5		 movsd
  000ee	51		 push	 ecx
  000ef	8d 45 d8	 lea	 eax, DWORD PTR _vAxis$[ebp]
  000f2	a5		 movsd
  000f3	d9 1c 24	 fstp	 DWORD PTR [esp]
  000f6	50		 push	 eax
  000f7	8d 45 c0	 lea	 eax, DWORD PTR _qtRot$[ebp]
  000fa	50		 push	 eax
  000fb	a5		 movsd
  000fc	e8 00 00 00 00	 call	 _D3DXQuaternionRotationAxis@12

; 193  : 	m_vMoveDir = qtRot * m_vMoveDir;

  00101	53		 push	 ebx
  00102	8d 45 c0	 lea	 eax, DWORD PTR _qtRot$[ebp]
  00105	50		 push	 eax
  00106	8d 45 e4	 lea	 eax, DWORD PTR $T584412[ebp]
  00109	50		 push	 eax
  0010a	ff 15 00 00 00
	00		 call	 DWORD PTR __imp_??D@YA?AUD3DXVECTOR3@@ABUD3DXQUATERNION@@ABU0@@Z

; 194  : 
; 195  : 	// horizon
; 196  : 	D3DXQuaternionRotationAxis( &qtRot, &ioMath::UNIT_Y, DEGtoRAD(fAngleH) );

  00110	f3 0f 10 45 08	 movss	 xmm0, DWORD PTR _fAngleH$[ebp]
  00115	8b f0		 mov	 esi, eax
  00117	8b fb		 mov	 edi, ebx
  00119	a5		 movsd
  0011a	a5		 movsd
  0011b	0f 5a c0	 cvtps2pd xmm0, xmm0
  0011e	f2 0f 59 05 00
	00 00 00	 mulsd	 xmm0, QWORD PTR __real@3f91df46a2526c7a
  00126	83 c4 08	 add	 esp, 8
  00129	66 0f 5a c0	 cvtpd2ps xmm0, xmm0
  0012d	f3 0f 11 04 24	 movss	 DWORD PTR [esp], xmm0
  00132	a5		 movsd
  00133	ff 35 00 00 00
	00		 push	 DWORD PTR __imp_?UNIT_Y@ioMath@@2UD3DXVECTOR3@@A
  00139	8d 45 c0	 lea	 eax, DWORD PTR _qtRot$[ebp]
  0013c	50		 push	 eax
  0013d	e8 00 00 00 00	 call	 _D3DXQuaternionRotationAxis@12

; 197  : 	m_vMoveDir = qtRot * m_vMoveDir;

  00142	53		 push	 ebx
  00143	8d 45 c0	 lea	 eax, DWORD PTR _qtRot$[ebp]
  00146	50		 push	 eax
  00147	8d 45 e4	 lea	 eax, DWORD PTR $T584413[ebp]
  0014a	50		 push	 eax
  0014b	ff 15 00 00 00
	00		 call	 DWORD PTR __imp_??D@YA?AUD3DXVECTOR3@@ABUD3DXQUATERNION@@ABU0@@Z
  00151	8b f0		 mov	 esi, eax
  00153	8b fb		 mov	 edi, ebx
  00155	a5		 movsd
  00156	a5		 movsd
  00157	a5		 movsd

; 198  : 
; 199  : 	ioMath::CalcDirectionQuaternion( qtRot, -m_vMoveDir );

  00158	f3 0f 10 0b	 movss	 xmm1, DWORD PTR [ebx]
  0015c	f3 0f 10 05 00
	00 00 00	 movss	 xmm0, DWORD PTR __mask@@NegFloat@
  00164	0f 57 c8	 xorps	 xmm1, xmm0
  00167	f3 0f 11 4d f0	 movss	 DWORD PTR $T584414[ebp], xmm1
  0016c	f3 0f 10 4b 04	 movss	 xmm1, DWORD PTR [ebx+4]
  00171	0f 57 c8	 xorps	 xmm1, xmm0
  00174	8d 45 f0	 lea	 eax, DWORD PTR $T584414[ebp]
  00177	50		 push	 eax
  00178	f3 0f 11 4d f4	 movss	 DWORD PTR $T584414[ebp+4], xmm1
  0017d	f3 0f 10 4b 08	 movss	 xmm1, DWORD PTR [ebx+8]
  00182	8d 45 c0	 lea	 eax, DWORD PTR _qtRot$[ebp]
  00185	0f 57 c8	 xorps	 xmm1, xmm0
  00188	50		 push	 eax
  00189	f3 0f 11 4d f8	 movss	 DWORD PTR $T584414[ebp+8], xmm1
  0018e	ff 15 00 00 00
	00		 call	 DWORD PTR __imp_?CalcDirectionQuaternion@ioMath@@SAXAAUD3DXQUATERNION@@ABUD3DXVECTOR3@@@Z

; 200  : 	SetOrientation( qtRot );

  00194	8b 4d d0	 mov	 ecx, DWORD PTR _this$GSCopy$[ebp]
  00197	83 c4 14	 add	 esp, 20			; 00000014H
  0019a	8d 45 c0	 lea	 eax, DWORD PTR _qtRot$[ebp]
  0019d	50		 push	 eax
  0019e	e8 00 00 00 00	 call	 ?SetOrientation@ioWeapon@@QAEXABUD3DXQUATERNION@@@Z ; ioWeapon::SetOrientation

; 201  : }

  001a3	8b 4d fc	 mov	 ecx, DWORD PTR __$ArrayPad$[ebp]
  001a6	5f		 pop	 edi
  001a7	5e		 pop	 esi
  001a8	33 cd		 xor	 ecx, ebp
  001aa	5b		 pop	 ebx
  001ab	e8 00 00 00 00	 call	 @__security_check_cookie@4
  001b0	c9		 leave
  001b1	c2 08 00	 ret	 8
?RotateMoveDir@ioMissileWeapon2@@QAEXMM@Z ENDP		; ioMissileWeapon2::RotateMoveDir
_TEXT	ENDS
PUBLIC	?SetStartPosition@ioMissileWeapon2@@UAEXABUD3DXVECTOR3@@PAVioPlayStage@@@Z ; ioMissileWeapon2::SetStartPosition
EXTRN	__imp_?HasLinkedSystem@ioEffect@@QBE_NXZ:PROC
;	COMDAT xdata$x
; File c:\program files (x86)\microsoft directx sdk (june 2010)\include\d3dx9math.inl
xdata$x	SEGMENT
__unwindtable$?SetStartPosition@ioMissileWeapon2@@UAEXABUD3DXVECTOR3@@PAVioPlayStage@@@Z DD 0ffffffffH
	DD	FLAT:__unwindfunclet$?SetStartPosition@ioMissileWeapon2@@UAEXABUD3DXVECTOR3@@PAVioPlayStage@@@Z$0
__ehfuncinfo$?SetStartPosition@ioMissileWeapon2@@UAEXABUD3DXVECTOR3@@PAVioPlayStage@@@Z DD 019930522H
	DD	01H
	DD	FLAT:__unwindtable$?SetStartPosition@ioMissileWeapon2@@UAEXABUD3DXVECTOR3@@PAVioPlayStage@@@Z
	DD	2 DUP(00H)
	DD	2 DUP(00H)
	DD	00H
	DD	01H
; Function compile flags: /Ogsp
; File d:\lost saga for developer\youtube\tutorial\source\src\lsclient\iomissileweapon2.cpp
xdata$x	ENDS
;	COMDAT ?SetStartPosition@ioMissileWeapon2@@UAEXABUD3DXVECTOR3@@PAVioPlayStage@@@Z
_TEXT	SEGMENT
_qtRot$584426 = -80					; size = 16
$T588689 = -64						; size = 16
$T588692 = -48						; size = 4
_pOwner$ = -48						; size = 4
$T588688 = -41						; size = 1
_vOffSet$584427 = -40					; size = 12
_vNewPos$ = -28						; size = 12
__$EHRec$ = -12						; size = 12
_vPos$ = 8						; size = 4
_pStage$ = 12						; size = 4
?SetStartPosition@ioMissileWeapon2@@UAEXABUD3DXVECTOR3@@PAVioPlayStage@@@Z PROC ; ioMissileWeapon2::SetStartPosition, COMDAT
; _this$ = ecx

; 204  : {

  00000	6a 44		 push	 68			; 00000044H
  00002	b8 00 00 00 00	 mov	 eax, __ehhandler$?SetStartPosition@ioMissileWeapon2@@UAEXABUD3DXVECTOR3@@PAVioPlayStage@@@Z
  00007	e8 00 00 00 00	 call	 __EH_prolog3_GS
  0000c	83 65 d0 00	 and	 DWORD PTR $T588692[ebp], 0
  00010	8b 75 08	 mov	 esi, DWORD PTR _vPos$[ebp]
  00013	8b d9		 mov	 ebx, ecx

; 205  : 	if( m_pFireBall && m_pFireBall->GetSkeletonName().IsEmpty() && m_pFireBall->HasLinkedSystem() )

  00015	8b 8b 98 08 00
	00		 mov	 ecx, DWORD PTR [ebx+2200]
  0001b	85 c9		 test	 ecx, ecx
  0001d	74 35		 je	 SHORT $LN5@SetStartPo
  0001f	8d 45 c0	 lea	 eax, DWORD PTR $T588689[ebp]
  00022	50		 push	 eax
  00023	ff 15 00 00 00
	00		 call	 DWORD PTR __imp_?GetSkeletonName@ioEffect@@QBE?AVioHashString@@XZ
  00029	83 65 fc 00	 and	 DWORD PTR __$EHRec$[ebp+8], 0
  0002d	8b c8		 mov	 ecx, eax
  0002f	c7 45 d0 01 00
	00 00		 mov	 DWORD PTR $T588692[ebp], 1
  00036	ff 15 00 00 00
	00		 call	 DWORD PTR __imp_?IsEmpty@ioHashString@@QBE_NXZ
  0003c	84 c0		 test	 al, al
  0003e	74 14		 je	 SHORT $LN5@SetStartPo
  00040	8b 8b 98 08 00
	00		 mov	 ecx, DWORD PTR [ebx+2200]
  00046	ff 15 00 00 00
	00		 call	 DWORD PTR __imp_?HasLinkedSystem@ioEffect@@QBE_NXZ
  0004c	c6 45 d7 01	 mov	 BYTE PTR $T588688[ebp], 1
  00050	84 c0		 test	 al, al
  00052	75 04		 jne	 SHORT $LN6@SetStartPo
$LN5@SetStartPo:
  00054	c6 45 d7 00	 mov	 BYTE PTR $T588688[ebp], 0
$LN6@SetStartPo:
  00058	83 4d fc ff	 or	 DWORD PTR __$EHRec$[ebp+8], -1
  0005c	f6 45 d0 01	 test	 BYTE PTR $T588692[ebp], 1
  00060	74 09		 je	 SHORT $LN9@SetStartPo
  00062	8d 4d c0	 lea	 ecx, DWORD PTR $T588689[ebp]
  00065	ff 15 00 00 00
	00		 call	 DWORD PTR __imp_??1ioHashString@@QAE@XZ
$LN9@SetStartPo:
  0006b	80 7d d7 00	 cmp	 BYTE PTR $T588688[ebp], 0
  0006f	0f 85 06 01 00
	00		 jne	 $LN3@SetStartPo

; 206  : 		return;
; 207  : 
; 208  : 	ioBaseChar *pOwner = GetOwner();

  00075	8b cb		 mov	 ecx, ebx
  00077	e8 00 00 00 00	 call	 ?GetOwner@ioWeapon@@QBEPAVioBaseChar@@XZ ; ioWeapon::GetOwner

; 209  : 	D3DXVECTOR3 vNewPos = vPos;

  0007c	8d 7d e4	 lea	 edi, DWORD PTR _vNewPos$[ebp]
  0007f	a5		 movsd
  00080	a5		 movsd
  00081	89 45 d0	 mov	 DWORD PTR _pOwner$[ebp], eax
  00084	a5		 movsd

; 210  : 	if( pOwner && m_vStartOffSet != ioMath::VEC3_ZERO )

  00085	85 c0		 test	 eax, eax
  00087	0f 84 d1 00 00
	00		 je	 $LN16@SetStartPo
  0008d	8b 0d 00 00 00
	00		 mov	 ecx, DWORD PTR __imp_?VEC3_ZERO@ioMath@@2UD3DXVECTOR3@@A
  00093	f3 0f 10 09	 movss	 xmm1, DWORD PTR [ecx]
  00097	8d 93 a8 08 00
	00		 lea	 edx, DWORD PTR [ebx+2216]
  0009d	f3 0f 10 02	 movss	 xmm0, DWORD PTR [edx]
  000a1	0f 5a c0	 cvtps2pd xmm0, xmm0
  000a4	0f 5a c9	 cvtps2pd xmm1, xmm1
  000a7	66 0f 2e c1	 ucomisd xmm0, xmm1
  000ab	9f		 lahf
  000ac	f6 c4 44	 test	 ah, 68			; 00000044H
  000af	7a 34		 jp	 SHORT $LN12@SetStartPo
  000b1	f3 0f 10 42 04	 movss	 xmm0, DWORD PTR [edx+4]
  000b6	f3 0f 10 49 04	 movss	 xmm1, DWORD PTR [ecx+4]
  000bb	0f 5a c0	 cvtps2pd xmm0, xmm0
  000be	0f 5a c9	 cvtps2pd xmm1, xmm1
  000c1	66 0f 2e c1	 ucomisd xmm0, xmm1
  000c5	9f		 lahf
  000c6	f6 c4 44	 test	 ah, 68			; 00000044H
  000c9	7a 1a		 jp	 SHORT $LN12@SetStartPo
  000cb	f3 0f 10 42 08	 movss	 xmm0, DWORD PTR [edx+8]
  000d0	f3 0f 10 49 08	 movss	 xmm1, DWORD PTR [ecx+8]
  000d5	0f 5a c0	 cvtps2pd xmm0, xmm0
  000d8	0f 5a c9	 cvtps2pd xmm1, xmm1
  000db	66 0f 2e c1	 ucomisd xmm0, xmm1
  000df	9f		 lahf
  000e0	f6 c4 44	 test	 ah, 68			; 00000044H
  000e3	7b 79		 jnp	 SHORT $LN16@SetStartPo
$LN12@SetStartPo:

; 211  : 	{
; 212  : 		D3DXQUATERNION qtRot = pOwner->GetTargetRot();

  000e5	8b 75 d0	 mov	 esi, DWORD PTR _pOwner$[ebp]
  000e8	81 c6 a4 06 00
	00		 add	 esi, 1700		; 000006a4H
  000ee	8d 7d b0	 lea	 edi, DWORD PTR _qtRot$584426[ebp]
  000f1	a5		 movsd
  000f2	a5		 movsd

; 213  : 		D3DXVECTOR3 vOffSet = qtRot * m_vStartOffSet;

  000f3	52		 push	 edx
  000f4	8d 45 b0	 lea	 eax, DWORD PTR _qtRot$584426[ebp]
  000f7	a5		 movsd
  000f8	50		 push	 eax
  000f9	8d 45 d8	 lea	 eax, DWORD PTR _vOffSet$584427[ebp]
  000fc	50		 push	 eax
  000fd	a5		 movsd
  000fe	ff 15 00 00 00
	00		 call	 DWORD PTR __imp_??D@YA?AUD3DXVECTOR3@@ABUD3DXQUATERNION@@ABU0@@Z

; 214  : 
; 215  : 		vNewPos += vOffSet;

  00104	f3 0f 10 4d e4	 movss	 xmm1, DWORD PTR _vNewPos$[ebp]
  00109	f3 0f 10 45 d8	 movss	 xmm0, DWORD PTR _vOffSet$584427[ebp]
  0010e	0f 5a c0	 cvtps2pd xmm0, xmm0
  00111	0f 5a c9	 cvtps2pd xmm1, xmm1
  00114	f2 0f 58 c1	 addsd	 xmm0, xmm1
  00118	f3 0f 10 4d e8	 movss	 xmm1, DWORD PTR _vNewPos$[ebp+4]
  0011d	66 0f 5a c0	 cvtpd2ps xmm0, xmm0
  00121	f3 0f 11 45 e4	 movss	 DWORD PTR _vNewPos$[ebp], xmm0
  00126	f3 0f 10 45 dc	 movss	 xmm0, DWORD PTR _vOffSet$584427[ebp+4]
  0012b	0f 5a c0	 cvtps2pd xmm0, xmm0
  0012e	0f 5a c9	 cvtps2pd xmm1, xmm1
  00131	f2 0f 58 c1	 addsd	 xmm0, xmm1
  00135	f3 0f 10 4d ec	 movss	 xmm1, DWORD PTR _vNewPos$[ebp+8]
  0013a	66 0f 5a c0	 cvtpd2ps xmm0, xmm0
  0013e	f3 0f 11 45 e8	 movss	 DWORD PTR _vNewPos$[ebp+4], xmm0
  00143	f3 0f 10 45 e0	 movss	 xmm0, DWORD PTR _vOffSet$584427[ebp+8]
  00148	0f 5a c0	 cvtps2pd xmm0, xmm0
  0014b	0f 5a c9	 cvtps2pd xmm1, xmm1
  0014e	f2 0f 58 c1	 addsd	 xmm0, xmm1
  00152	66 0f 5a c0	 cvtpd2ps xmm0, xmm0
  00156	83 c4 0c	 add	 esp, 12			; 0000000cH
  00159	f3 0f 11 45 ec	 movss	 DWORD PTR _vNewPos$[ebp+8], xmm0
$LN16@SetStartPo:

; 216  : 	}
; 217  : 
; 218  : 	SetPosition( vNewPos );

  0015e	8d 45 e4	 lea	 eax, DWORD PTR _vNewPos$[ebp]
  00161	50		 push	 eax
  00162	8b cb		 mov	 ecx, ebx
  00164	e8 00 00 00 00	 call	 ?SetPosition@ioWeapon@@QAEXABUD3DXVECTOR3@@@Z ; ioWeapon::SetPosition

; 219  : 	m_StartPos = GetPosition();

  00169	8b 03		 mov	 eax, DWORD PTR [ebx]
  0016b	8b cb		 mov	 ecx, ebx
  0016d	ff 50 70	 call	 DWORD PTR [eax+112]
  00170	8d bb b4 08 00
	00		 lea	 edi, DWORD PTR [ebx+2228]
  00176	8b f0		 mov	 esi, eax
  00178	a5		 movsd
  00179	a5		 movsd
  0017a	a5		 movsd
$LN3@SetStartPo:

; 220  : }

  0017b	e8 00 00 00 00	 call	 __EH_epilog3_GS
  00180	c2 08 00	 ret	 8
_TEXT	ENDS
;	COMDAT text$x
text$x	SEGMENT
__unwindfunclet$?SetStartPosition@ioMissileWeapon2@@UAEXABUD3DXVECTOR3@@PAVioPlayStage@@@Z$0:
  00000	8b 45 d0	 mov	 eax, DWORD PTR $T588692[ebp]
  00003	83 e0 01	 and	 eax, 1
  00006	0f 84 0d 00 00
	00		 je	 $LN8@SetStartPo
  0000c	83 65 d0 fe	 and	 DWORD PTR $T588692[ebp], -2 ; fffffffeH
  00010	8d 4d c0	 lea	 ecx, DWORD PTR $T588689[ebp]
  00013	ff 25 00 00 00
	00		 jmp	 DWORD PTR __imp_??1ioHashString@@QAE@XZ
$LN8@SetStartPo:
  00019	c3		 ret	 0
__ehhandler$?SetStartPosition@ioMissileWeapon2@@UAEXABUD3DXVECTOR3@@PAVioPlayStage@@@Z:
  0001a	8b 54 24 08	 mov	 edx, DWORD PTR [esp+8]
  0001e	8d 42 0c	 lea	 eax, DWORD PTR [edx+12]
  00021	8b 4a ac	 mov	 ecx, DWORD PTR [edx-84]
  00024	33 c8		 xor	 ecx, eax
  00026	e8 00 00 00 00	 call	 @__security_check_cookie@4
  0002b	8b 4a fc	 mov	 ecx, DWORD PTR [edx-4]
  0002e	33 c8		 xor	 ecx, eax
  00030	e8 00 00 00 00	 call	 @__security_check_cookie@4
  00035	b8 00 00 00 00	 mov	 eax, OFFSET __ehfuncinfo$?SetStartPosition@ioMissileWeapon2@@UAEXABUD3DXVECTOR3@@PAVioPlayStage@@@Z
  0003a	e9 00 00 00 00	 jmp	 ___CxxFrameHandler3
text$x	ENDS
?SetStartPosition@ioMissileWeapon2@@UAEXABUD3DXVECTOR3@@PAVioPlayStage@@@Z ENDP ; ioMissileWeapon2::SetStartPosition
PUBLIC	?UpdateWorldAttackBox@ioMissileWeapon2@@MAEXM_N@Z ; ioMissileWeapon2::UpdateWorldAttackBox
EXTRN	__imp_?SetNull@ioOrientBox@@QAEXXZ:PROC
EXTRN	?GetScale@ioWeapon@@QBEABUD3DXVECTOR3@@XZ:PROC	; ioWeapon::GetScale
EXTRN	__imp_?Transform@ioOrientBox@@QAEXABUD3DXVECTOR3@@0ABUD3DXQUATERNION@@@Z:PROC
EXTRN	__imp_?UNIT_ALL@ioMath@@2UD3DXVECTOR3@@A:BYTE
EXTRN	__imp_?IsNull@ioOrientBox@@QBE_NXZ:PROC
EXTRN	__imp_?SetExtents@ioOrientBox@@QAEXHM@Z:PROC
EXTRN	__imp_?GetExtents@ioOrientBox@@QBEMH@Z:PROC
; Function compile flags: /Ogsp
;	COMDAT ?UpdateWorldAttackBox@ioMissileWeapon2@@MAEXM_N@Z
_TEXT	SEGMENT
tv498 = -8						; size = 4
tv492 = -8						; size = 4
_fMapCollisionRate$ = -4				; size = 4
_fExtentsX$ = -4					; size = 4
_fTimePerSec$ = 8					; size = 4
tv530 = 12						; size = 4
tv504 = 12						; size = 4
tv491 = 12						; size = 4
_fExtentsY$ = 12					; size = 4
_fScaleRate$ = 12					; size = 4
_bSetNull$ = 12						; size = 1
?UpdateWorldAttackBox@ioMissileWeapon2@@MAEXM_N@Z PROC	; ioMissileWeapon2::UpdateWorldAttackBox, COMDAT
; _this$ = ecx

; 328  : {

  00000	55		 push	 ebp
  00001	8b ec		 mov	 ebp, esp
  00003	51		 push	 ecx
  00004	51		 push	 ecx
  00005	53		 push	 ebx
  00006	8b d9		 mov	 ebx, ecx

; 329  : 	if( !IsLive() || bSetNull )

  00008	80 bb 82 05 00
	00 00		 cmp	 BYTE PTR [ebx+1410], 0
  0000f	56		 push	 esi
  00010	57		 push	 edi
  00011	0f 84 c4 01 00
	00		 je	 $LN4@UpdateWorl
  00017	80 7d 0c 00	 cmp	 BYTE PTR _bSetNull$[ebp], 0
  0001b	0f 85 ba 01 00
	00		 jne	 $LN4@UpdateWorl

; 333  : 		return;
; 334  : 	}
; 335  : 
; 336  : 	m_WorldAttackBox = GetLocalAttackBox();

  00021	8b 03		 mov	 eax, DWORD PTR [ebx]
  00023	ff 90 00 01 00
	00		 call	 DWORD PTR [eax+256]
  00029	6a 11		 push	 17			; 00000011H
  0002b	8d bb e8 04 00
	00		 lea	 edi, DWORD PTR [ebx+1256]
  00031	59		 pop	 ecx
  00032	8b f0		 mov	 esi, eax
  00034	f3 a5		 rep movsd

; 337  : 
; 338  : 	float fScaleRate = FLOAT1 + (GetAttribute()->m_fScaleRate * m_fCurMoveRate );

  00036	b8 01 00 00 00	 mov	 eax, 1
  0003b	8b f0		 mov	 esi, eax
  0003d	8b 03		 mov	 eax, DWORD PTR [ebx]
  0003f	8b cb		 mov	 ecx, ebx
  00041	ff 90 3c 01 00
	00		 call	 DWORD PTR [eax+316]
  00047	d9 80 ac 01 00
	00		 fld	 DWORD PTR [eax+428]
  0004d	89 75 0c	 mov	 DWORD PTR tv530[ebp], esi
  00050	d8 8b a4 08 00
	00		 fmul	 DWORD PTR [ebx+2212]
  00056	db 45 0c	 fild	 DWORD PTR tv530[ebp]
  00059	85 f6		 test	 esi, esi
  0005b	79 06		 jns	 SHORT $LN20@UpdateWorl
  0005d	d8 05 00 00 00
	00		 fadd	 DWORD PTR __real@4f800000
$LN20@UpdateWorl:
  00063	de c1		 faddp	 ST(1), ST(0)

; 339  : 	float fExtentsX = m_WorldAttackBox.GetExtents(0) * fScaleRate;

  00065	8d b3 e8 04 00
	00		 lea	 esi, DWORD PTR [ebx+1256]
  0006b	6a 00		 push	 0
  0006d	8b ce		 mov	 ecx, esi
  0006f	d9 5d 0c	 fstp	 DWORD PTR _fScaleRate$[ebp]
  00072	ff 15 00 00 00
	00		 call	 DWORD PTR __imp_?GetExtents@ioOrientBox@@QBEMH@Z
  00078	d8 4d 0c	 fmul	 DWORD PTR _fScaleRate$[ebp]

; 340  : 	float fExtentsY = m_WorldAttackBox.GetExtents(1) * fScaleRate;

  0007b	6a 01		 push	 1
  0007d	8b ce		 mov	 ecx, esi
  0007f	d9 5d fc	 fstp	 DWORD PTR _fExtentsX$[ebp]
  00082	ff 15 00 00 00
	00		 call	 DWORD PTR __imp_?GetExtents@ioOrientBox@@QBEMH@Z
  00088	d8 4d 0c	 fmul	 DWORD PTR _fScaleRate$[ebp]

; 341  : 
; 342  : 	m_WorldAttackBox.SetExtents( 0, fExtentsX );

  0008b	f3 0f 10 45 fc	 movss	 xmm0, DWORD PTR _fExtentsX$[ebp]
  00090	8b 3d 00 00 00
	00		 mov	 edi, DWORD PTR __imp_?SetExtents@ioOrientBox@@QAEXHM@Z
  00096	51		 push	 ecx
  00097	f3 0f 11 04 24	 movss	 DWORD PTR [esp], xmm0
  0009c	d9 5d 0c	 fstp	 DWORD PTR _fExtentsY$[ebp]
  0009f	6a 00		 push	 0
  000a1	8b ce		 mov	 ecx, esi
  000a3	ff d7		 call	 edi

; 343  : 	m_WorldAttackBox.SetExtents( 1, fExtentsY );

  000a5	f3 0f 10 45 0c	 movss	 xmm0, DWORD PTR _fExtentsY$[ebp]
  000aa	51		 push	 ecx
  000ab	f3 0f 11 04 24	 movss	 DWORD PTR [esp], xmm0
  000b0	6a 01		 push	 1
  000b2	8b ce		 mov	 ecx, esi
  000b4	ff d7		 call	 edi

; 344  : 
; 345  : 	float fMapCollisionRate = GetAttribute()->m_fMapCollisionBoxRate;

  000b6	8b 03		 mov	 eax, DWORD PTR [ebx]
  000b8	8b cb		 mov	 ecx, ebx
  000ba	ff 90 3c 01 00
	00		 call	 DWORD PTR [eax+316]
  000c0	d9 80 a8 01 00
	00		 fld	 DWORD PTR [eax+424]

; 346  : 	m_WorldAttackBoxForMap = m_WorldAttackBox;

  000c6	6a 11		 push	 17			; 00000011H
  000c8	d9 5d fc	 fstp	 DWORD PTR _fMapCollisionRate$[ebp]
  000cb	59		 pop	 ecx
  000cc	8d bb 2c 05 00
	00		 lea	 edi, DWORD PTR [ebx+1324]
  000d2	f3 a5		 rep movsd

; 347  : 	m_WorldAttackBoxForMap.SetExtents( 0, m_WorldAttackBox.GetExtents(0)*fMapCollisionRate );

  000d4	6a 00		 push	 0
  000d6	8d 8b e8 04 00
	00		 lea	 ecx, DWORD PTR [ebx+1256]
  000dc	ff 15 00 00 00
	00		 call	 DWORD PTR __imp_?GetExtents@ioOrientBox@@QBEMH@Z
  000e2	8b 35 00 00 00
	00		 mov	 esi, DWORD PTR __imp_?SetExtents@ioOrientBox@@QAEXHM@Z
  000e8	d8 4d fc	 fmul	 DWORD PTR _fMapCollisionRate$[ebp]
  000eb	51		 push	 ecx
  000ec	8d 8b 2c 05 00
	00		 lea	 ecx, DWORD PTR [ebx+1324]
  000f2	d9 5d 0c	 fstp	 DWORD PTR tv504[ebp]
  000f5	d9 45 0c	 fld	 DWORD PTR tv504[ebp]
  000f8	89 4d 0c	 mov	 DWORD PTR tv491[ebp], ecx
  000fb	d9 1c 24	 fstp	 DWORD PTR [esp]
  000fe	6a 00		 push	 0
  00100	ff d6		 call	 esi

; 348  : 	m_WorldAttackBoxForMap.SetExtents( 1, m_WorldAttackBox.GetExtents(1)*fMapCollisionRate );

  00102	6a 01		 push	 1
  00104	8d 8b e8 04 00
	00		 lea	 ecx, DWORD PTR [ebx+1256]
  0010a	ff 15 00 00 00
	00		 call	 DWORD PTR __imp_?GetExtents@ioOrientBox@@QBEMH@Z
  00110	d8 4d fc	 fmul	 DWORD PTR _fMapCollisionRate$[ebp]
  00113	51		 push	 ecx
  00114	8b 4d 0c	 mov	 ecx, DWORD PTR tv491[ebp]
  00117	d9 5d f8	 fstp	 DWORD PTR tv498[ebp]
  0011a	d9 45 f8	 fld	 DWORD PTR tv498[ebp]
  0011d	d9 1c 24	 fstp	 DWORD PTR [esp]
  00120	6a 01		 push	 1
  00122	ff d6		 call	 esi

; 349  : 	m_WorldAttackBoxForMap.SetExtents( 2, m_WorldAttackBox.GetExtents(2)*fMapCollisionRate );

  00124	6a 02		 push	 2
  00126	8d 8b e8 04 00
	00		 lea	 ecx, DWORD PTR [ebx+1256]
  0012c	ff 15 00 00 00
	00		 call	 DWORD PTR __imp_?GetExtents@ioOrientBox@@QBEMH@Z
  00132	d8 4d fc	 fmul	 DWORD PTR _fMapCollisionRate$[ebp]
  00135	51		 push	 ecx
  00136	8b 4d 0c	 mov	 ecx, DWORD PTR tv491[ebp]
  00139	d9 5d f8	 fstp	 DWORD PTR tv492[ebp]
  0013c	d9 45 f8	 fld	 DWORD PTR tv492[ebp]
  0013f	d9 1c 24	 fstp	 DWORD PTR [esp]
  00142	6a 02		 push	 2
  00144	ff d6		 call	 esi

; 350  : 
; 351  : 	if( !m_WorldAttackBox.IsNull() )

  00146	8d 8b e8 04 00
	00		 lea	 ecx, DWORD PTR [ebx+1256]
  0014c	ff 15 00 00 00
	00		 call	 DWORD PTR __imp_?IsNull@ioOrientBox@@QBE_NXZ
  00152	84 c0		 test	 al, al
  00154	0f 85 97 00 00
	00		 jne	 $LN1@UpdateWorl

; 352  : 	{
; 353  : 		if( m_bDisableOwnerScale )

  0015a	80 bb de 08 00
	00 00		 cmp	 BYTE PTR [ebx+2270], 0

; 354  : 		{
; 355  : 			m_WorldAttackBox.Transform( GetPosition(), ioMath::UNIT_ALL, GetParentSceneNode()->GetDerivedOrientation() );

  00161	8b 4b 04	 mov	 ecx, DWORD PTR [ebx+4]
  00164	8b 01		 mov	 eax, DWORD PTR [ecx]
  00166	74 3e		 je	 SHORT $LN2@UpdateWorl
  00168	ff 50 78	 call	 DWORD PTR [eax+120]
  0016b	50		 push	 eax
  0016c	ff 35 00 00 00
	00		 push	 DWORD PTR __imp_?UNIT_ALL@ioMath@@2UD3DXVECTOR3@@A
  00172	8b 03		 mov	 eax, DWORD PTR [ebx]
  00174	8b cb		 mov	 ecx, ebx
  00176	ff 50 70	 call	 DWORD PTR [eax+112]
  00179	8b 35 00 00 00
	00		 mov	 esi, DWORD PTR __imp_?Transform@ioOrientBox@@QAEXABUD3DXVECTOR3@@0ABUD3DXQUATERNION@@@Z
  0017f	50		 push	 eax
  00180	8d 8b e8 04 00
	00		 lea	 ecx, DWORD PTR [ebx+1256]
  00186	ff d6		 call	 esi

; 356  : 
; 357  : 			m_WorldAttackBoxForMap.Transform( GetPosition(), ioMath::UNIT_ALL, GetParentSceneNode()->GetDerivedOrientation() );

  00188	8b 4b 04	 mov	 ecx, DWORD PTR [ebx+4]
  0018b	8b 01		 mov	 eax, DWORD PTR [ecx]
  0018d	ff 50 78	 call	 DWORD PTR [eax+120]
  00190	50		 push	 eax
  00191	ff 35 00 00 00
	00		 push	 DWORD PTR __imp_?UNIT_ALL@ioMath@@2UD3DXVECTOR3@@A
$LN21@UpdateWorl:
  00197	8b 03		 mov	 eax, DWORD PTR [ebx]
  00199	8b cb		 mov	 ecx, ebx
  0019b	ff 50 70	 call	 DWORD PTR [eax+112]
  0019e	8b 4d 0c	 mov	 ecx, DWORD PTR tv491[ebp]
  001a1	50		 push	 eax
  001a2	ff d6		 call	 esi

; 358  : 		}
; 359  : 		else

  001a4	eb 4b		 jmp	 SHORT $LN1@UpdateWorl
$LN2@UpdateWorl:

; 360  : 		{
; 361  : 			m_WorldAttackBox.Transform( GetPosition(),
; 362  : 										GetScale(),
; 363  : 										GetParentSceneNode()->GetDerivedOrientation() );

  001a6	ff 50 78	 call	 DWORD PTR [eax+120]
  001a9	50		 push	 eax
  001aa	8b cb		 mov	 ecx, ebx
  001ac	e8 00 00 00 00	 call	 ?GetScale@ioWeapon@@QBEABUD3DXVECTOR3@@XZ ; ioWeapon::GetScale
  001b1	50		 push	 eax
  001b2	8b 03		 mov	 eax, DWORD PTR [ebx]
  001b4	8b cb		 mov	 ecx, ebx
  001b6	ff 50 70	 call	 DWORD PTR [eax+112]
  001b9	8b 35 00 00 00
	00		 mov	 esi, DWORD PTR __imp_?Transform@ioOrientBox@@QAEXABUD3DXVECTOR3@@0ABUD3DXQUATERNION@@@Z
  001bf	50		 push	 eax
  001c0	8d 8b e8 04 00
	00		 lea	 ecx, DWORD PTR [ebx+1256]
  001c6	ff d6		 call	 esi

; 364  : 
; 365  : 			m_WorldAttackBoxForMap.Transform( GetPosition(),
; 366  : 											  GetScale(),
; 367  : 											  GetParentSceneNode()->GetDerivedOrientation() );

  001c8	8b 4b 04	 mov	 ecx, DWORD PTR [ebx+4]
  001cb	8b 01		 mov	 eax, DWORD PTR [ecx]
  001cd	ff 50 78	 call	 DWORD PTR [eax+120]
  001d0	50		 push	 eax
  001d1	8b cb		 mov	 ecx, ebx
  001d3	e8 00 00 00 00	 call	 ?GetScale@ioWeapon@@QBEABUD3DXVECTOR3@@XZ ; ioWeapon::GetScale
  001d8	50		 push	 eax
  001d9	eb bc		 jmp	 SHORT $LN21@UpdateWorl
$LN4@UpdateWorl:

; 330  : 	{
; 331  : 		m_WorldAttackBox.SetNull();

  001db	8b 35 00 00 00
	00		 mov	 esi, DWORD PTR __imp_?SetNull@ioOrientBox@@QAEXXZ
  001e1	8d 8b e8 04 00
	00		 lea	 ecx, DWORD PTR [ebx+1256]
  001e7	ff d6		 call	 esi

; 332  : 		m_WorldAttackBoxForMap.SetNull();

  001e9	8d 8b 2c 05 00
	00		 lea	 ecx, DWORD PTR [ebx+1324]
  001ef	ff d6		 call	 esi
$LN1@UpdateWorl:
  001f1	5f		 pop	 edi
  001f2	5e		 pop	 esi
  001f3	5b		 pop	 ebx

; 368  : 		}
; 369  : 	}
; 370  : }

  001f4	c9		 leave
  001f5	c2 08 00	 ret	 8
?UpdateWorldAttackBox@ioMissileWeapon2@@MAEXM_N@Z ENDP	; ioMissileWeapon2::UpdateWorldAttackBox
_TEXT	ENDS
PUBLIC	?CheckCurAttribute@ioMissileWeapon2@@UAEXPBVioPlayEntity@@@Z ; ioMissileWeapon2::CheckCurAttribute
EXTRN	?FindAttribute@ioWeaponManager@@QAEPBUWeaponAttribute@@H@Z:PROC ; ioWeaponManager::FindAttribute
EXTRN	?GetSingleton@ioWeaponManager@@SAAAV1@XZ:PROC	; ioWeaponManager::GetSingleton
EXTRN	?CheckCurAttribute@ioWeapon@@UAEXPBVioPlayEntity@@@Z:PROC ; ioWeapon::CheckCurAttribute
; Function compile flags: /Ogsp
;	COMDAT ?CheckCurAttribute@ioMissileWeapon2@@UAEXPBVioPlayEntity@@@Z
_TEXT	SEGMENT
_pTarget$ = 8						; size = 4
?CheckCurAttribute@ioMissileWeapon2@@UAEXPBVioPlayEntity@@@Z PROC ; ioMissileWeapon2::CheckCurAttribute, COMDAT
; _this$ = ecx

; 383  : {

  00000	55		 push	 ebp
  00001	8b ec		 mov	 ebp, esp
  00003	53		 push	 ebx
  00004	56		 push	 esi
  00005	57		 push	 edi

; 384  : 	ioWeapon::CheckCurAttribute( pTarget );

  00006	ff 75 08	 push	 DWORD PTR _pTarget$[ebp]
  00009	8b f1		 mov	 esi, ecx
  0000b	e8 00 00 00 00	 call	 ?CheckCurAttribute@ioWeapon@@UAEXPBVioPlayEntity@@@Z ; ioWeapon::CheckCurAttribute

; 385  : 
; 386  : 	if( m_bResistance ) return;

  00010	33 d2		 xor	 edx, edx
  00012	38 96 3c 06 00
	00		 cmp	 BYTE PTR [esi+1596], dl
  00018	75 72		 jne	 SHORT $LN7@CheckCurAt

; 387  : 
; 388  : 	int iSize = m_vSecondAttrList.size();

  0001a	8b 86 e8 08 00
	00		 mov	 eax, DWORD PTR [esi+2280]
  00020	2b 86 e4 08 00
	00		 sub	 eax, DWORD PTR [esi+2276]
  00026	c1 f8 03	 sar	 eax, 3

; 389  : 	if( iSize > 0 )

  00029	3b c2		 cmp	 eax, edx
  0002b	7e 59		 jle	 SHORT $LN5@CheckCurAt

; 390  : 	{
; 391  : 		for( int i=0; i < iSize-1; ++i )

  0002d	8d 58 ff	 lea	 ebx, DWORD PTR [eax-1]
  00030	3b da		 cmp	 ebx, edx
  00032	7e 2d		 jle	 SHORT $LN2@CheckCurAt
  00034	8b 8e e4 08 00
	00		 mov	 ecx, DWORD PTR [esi+2276]
  0003a	f3 0f 10 86 a0
	08 00 00	 movss	 xmm0, DWORD PTR [esi+2208]
  00042	8d 79 04	 lea	 edi, DWORD PTR [ecx+4]
$LL4@CheckCurAt:

; 392  : 		{
; 393  : 			if( m_fCurMoveRange < m_vSecondAttrList[i].m_fLimiteValue )

  00045	f3 0f 10 17	 movss	 xmm2, DWORD PTR [edi]
  00049	0f 57 c9	 xorps	 xmm1, xmm1
  0004c	f3 0f 5a c8	 cvtss2sd xmm1, xmm0
  00050	0f 5a d2	 cvtps2pd xmm2, xmm2
  00053	66 0f 2f d1	 comisd	 xmm2, xmm1
  00057	77 14		 ja	 SHORT $LN18@CheckCurAt

; 390  : 	{
; 391  : 		for( int i=0; i < iSize-1; ++i )

  00059	42		 inc	 edx
  0005a	83 c7 08	 add	 edi, 8
  0005d	3b d3		 cmp	 edx, ebx
  0005f	7c e4		 jl	 SHORT $LL4@CheckCurAt
$LN2@CheckCurAt:

; 397  : 			}
; 398  : 		}
; 399  : 
; 400  : 		m_pSecondAttr = g_WeaponMgr.FindAttribute( m_vSecondAttrList[iSize-1].m_iAttributeIndex );

  00061	8b 8e e4 08 00
	00		 mov	 ecx, DWORD PTR [esi+2276]
  00067	8d 44 c1 f8	 lea	 eax, DWORD PTR [ecx+eax*8-8]

; 401  : 		return;

  0006b	eb 03		 jmp	 SHORT $LN20@CheckCurAt
$LN18@CheckCurAt:

; 394  : 			{
; 395  : 				m_pSecondAttr = g_WeaponMgr.FindAttribute( m_vSecondAttrList[i].m_iAttributeIndex );

  0006d	8d 04 d1	 lea	 eax, DWORD PTR [ecx+edx*8]
$LN20@CheckCurAt:
  00070	ff 30		 push	 DWORD PTR [eax]
  00072	e8 00 00 00 00	 call	 ?GetSingleton@ioWeaponManager@@SAAAV1@XZ ; ioWeaponManager::GetSingleton
  00077	8b c8		 mov	 ecx, eax
  00079	e8 00 00 00 00	 call	 ?FindAttribute@ioWeaponManager@@QAEPBUWeaponAttribute@@H@Z ; ioWeaponManager::FindAttribute
  0007e	89 86 e0 08 00
	00		 mov	 DWORD PTR [esi+2272], eax

; 396  : 				return;

  00084	eb 06		 jmp	 SHORT $LN7@CheckCurAt
$LN5@CheckCurAt:

; 402  : 	}
; 403  : 
; 404  : 	m_pSecondAttr = NULL;

  00086	89 96 e0 08 00
	00		 mov	 DWORD PTR [esi+2272], edx
$LN7@CheckCurAt:
  0008c	5f		 pop	 edi
  0008d	5e		 pop	 esi
  0008e	5b		 pop	 ebx

; 405  : 	return;
; 406  : }

  0008f	5d		 pop	 ebp
  00090	c2 04 00	 ret	 4
?CheckCurAttribute@ioMissileWeapon2@@UAEXPBVioPlayEntity@@@Z ENDP ; ioMissileWeapon2::CheckCurAttribute
_TEXT	ENDS
PUBLIC	?CheckCollisionLine@ioMissileWeapon2@@IAE_NPAVioPlayEntity@@ABUD3DXVECTOR3@@@Z ; ioMissileWeapon2::CheckCollisionLine
EXTRN	?CheckCollisionLine@ioBaseChar@@QAE_NABUD3DXVECTOR3@@0_N@Z:PROC ; ioBaseChar::CheckCollisionLine
EXTRN	?GetPiercingType@ioWeapon@@QBE?AW4CharPiercingType@@XZ:PROC ; ioWeapon::GetPiercingType
; Function compile flags: /Ogsp
;	COMDAT ?CheckCollisionLine@ioMissileWeapon2@@IAE_NPAVioPlayEntity@@ABUD3DXVECTOR3@@@Z
_TEXT	SEGMENT
_pTarget$ = 8						; size = 4
_vColPoint$ = 12					; size = 4
?CheckCollisionLine@ioMissileWeapon2@@IAE_NPAVioPlayEntity@@ABUD3DXVECTOR3@@@Z PROC ; ioMissileWeapon2::CheckCollisionLine, COMDAT
; _this$ = ecx

; 436  : {

  00000	55		 push	 ebp
  00001	8b ec		 mov	 ebp, esp
  00003	56		 push	 esi
  00004	8b f1		 mov	 esi, ecx

; 437  : 	if( GetPiercingType() == CPT_ALL || GetPiercingType() == CPT_ALL_LIMITE )

  00006	e8 00 00 00 00	 call	 ?GetPiercingType@ioWeapon@@QBE?AW4CharPiercingType@@XZ ; ioWeapon::GetPiercingType
  0000b	83 f8 03	 cmp	 eax, 3
  0000e	74 3d		 je	 SHORT $LN3@CheckColli
  00010	8b ce		 mov	 ecx, esi
  00012	e8 00 00 00 00	 call	 ?GetPiercingType@ioWeapon@@QBE?AW4CharPiercingType@@XZ ; ioWeapon::GetPiercingType
  00017	83 f8 04	 cmp	 eax, 4
  0001a	74 31		 je	 SHORT $LN3@CheckColli

; 439  : 
; 440  : 	//     
; 441  : 	ioBaseChar *pTargetChar = ToBaseChar( pTarget );

  0001c	ff 75 08	 push	 DWORD PTR _pTarget$[ebp]
  0001f	e8 00 00 00 00	 call	 ?ToBaseChar@@YAPAVioBaseChar@@PAVioGameEntity@@@Z ; ToBaseChar
  00024	59		 pop	 ecx

; 442  : 	if( !pTargetChar )	return true;

  00025	85 c0		 test	 eax, eax
  00027	74 24		 je	 SHORT $LN3@CheckColli

; 443  : 
; 444  : 	ioBaseChar *pOwner = GetOwner();

  00029	8b ce		 mov	 ecx, esi
  0002b	e8 00 00 00 00	 call	 ?GetOwner@ioWeapon@@QBEPAVioBaseChar@@XZ ; ioWeapon::GetOwner

; 445  : 	if( pOwner )

  00030	85 c0		 test	 eax, eax
  00032	74 15		 je	 SHORT $LN1@CheckColli

; 446  : 		return pOwner->CheckCollisionLine( m_StartPos, vColPoint );

  00034	6a 01		 push	 1
  00036	ff 75 0c	 push	 DWORD PTR _vColPoint$[ebp]
  00039	81 c6 b4 08 00
	00		 add	 esi, 2228		; 000008b4H
  0003f	56		 push	 esi
  00040	8b c8		 mov	 ecx, eax
  00042	e8 00 00 00 00	 call	 ?CheckCollisionLine@ioBaseChar@@QAE_NABUD3DXVECTOR3@@0_N@Z ; ioBaseChar::CheckCollisionLine
  00047	eb 06		 jmp	 SHORT $LN5@CheckColli
$LN1@CheckColli:

; 447  : 
; 448  : 	return false;	//     

  00049	32 c0		 xor	 al, al
  0004b	eb 02		 jmp	 SHORT $LN5@CheckColli
$LN3@CheckColli:

; 438  : 		return true;

  0004d	b0 01		 mov	 al, 1
$LN5@CheckColli:
  0004f	5e		 pop	 esi

; 449  : }

  00050	5d		 pop	 ebp
  00051	c2 08 00	 ret	 8
?CheckCollisionLine@ioMissileWeapon2@@IAE_NPAVioPlayEntity@@ABUD3DXVECTOR3@@@Z ENDP ; ioMissileWeapon2::CheckCollisionLine
_TEXT	ENDS
PUBLIC	??O?$CEncrypt@K@@QAE_NABH@Z			; CEncrypt<unsigned long>::operator>
; Function compile flags: /Ogsp
; File d:\lost saga for developer\youtube\tutorial\source\src\lsclient\encryptvalue.h
;	COMDAT ??O?$CEncrypt@K@@QAE_NABH@Z
_TEXT	SEGMENT
_value$ = -4						; size = 4
_inValue$ = 8						; size = 4
??O?$CEncrypt@K@@QAE_NABH@Z PROC			; CEncrypt<unsigned long>::operator>, COMDAT
; _this$ = ecx

; 1009 : 	{

  00000	55		 push	 ebp
  00001	8b ec		 mov	 ebp, esp
  00003	51		 push	 ecx

; 1010 : 		
; 1011 : 		type value;
; 1012 : 		DecryptValueToPool(&value);

  00004	8d 45 fc	 lea	 eax, DWORD PTR _value$[ebp]
  00007	50		 push	 eax
  00008	e8 00 00 00 00	 call	 ?DecryptValueToPool@?$CEncrypt@K@@QAEXPAK@Z ; CEncrypt<unsigned long>::DecryptValueToPool

; 1013 : #ifdef _NOTUSE
; 1014 : 		Debug();
; 1015 : #endif
; 1016 : 		return (value > inValue);

  0000d	8b 45 08	 mov	 eax, DWORD PTR _inValue$[ebp]
  00010	8b 00		 mov	 eax, DWORD PTR [eax]
  00012	3b 45 fc	 cmp	 eax, DWORD PTR _value$[ebp]
  00015	1b c0		 sbb	 eax, eax
  00017	f7 d8		 neg	 eax

; 1017 : 	}		

  00019	c9		 leave
  0001a	c2 04 00	 ret	 4
??O?$CEncrypt@K@@QAE_NABH@Z ENDP			; CEncrypt<unsigned long>::operator>
_TEXT	ENDS
PUBLIC	?max_size@?$vector@UChangeDirInfo@@V?$allocator@UChangeDirInfo@@@std@@@std@@QBEIXZ ; std::vector<ChangeDirInfo,std::allocator<ChangeDirInfo> >::max_size
; Function compile flags: /Ogsp
; File c:\program files (x86)\microsoft visual studio 10.0\vc\include\vector
;	COMDAT ?max_size@?$vector@UChangeDirInfo@@V?$allocator@UChangeDirInfo@@@std@@@std@@QBEIXZ
_TEXT	SEGMENT
?max_size@?$vector@UChangeDirInfo@@V?$allocator@UChangeDirInfo@@@std@@@std@@QBEIXZ PROC ; std::vector<ChangeDirInfo,std::allocator<ChangeDirInfo> >::max_size, COMDAT
; _this$ = ecx

; 884  : 		return (this->_Alval.max_size());

  00000	b8 49 92 24 09	 mov	 eax, 153391689		; 09249249H

; 885  : 		}

  00005	c3		 ret	 0
?max_size@?$vector@UChangeDirInfo@@V?$allocator@UChangeDirInfo@@@std@@@std@@QBEIXZ ENDP ; std::vector<ChangeDirInfo,std::allocator<ChangeDirInfo> >::max_size
_TEXT	ENDS
PUBLIC	??0?$_Vector_val@UChangeDirInfo@@V?$allocator@UChangeDirInfo@@@std@@@std@@QAE@V?$allocator@UChangeDirInfo@@@1@@Z ; std::_Vector_val<ChangeDirInfo,std::allocator<ChangeDirInfo> >::_Vector_val<ChangeDirInfo,std::allocator<ChangeDirInfo> >
; Function compile flags: /Ogsp
;	COMDAT ??0?$_Vector_val@UChangeDirInfo@@V?$allocator@UChangeDirInfo@@@std@@@std@@QAE@V?$allocator@UChangeDirInfo@@@1@@Z
_TEXT	SEGMENT
__Al$ = 8						; size = 1
??0?$_Vector_val@UChangeDirInfo@@V?$allocator@UChangeDirInfo@@@std@@@std@@QAE@V?$allocator@UChangeDirInfo@@@1@@Z PROC ; std::_Vector_val<ChangeDirInfo,std::allocator<ChangeDirInfo> >::_Vector_val<ChangeDirInfo,std::allocator<ChangeDirInfo> >, COMDAT
; _this$ = ecx

; 426  : 		{	// construct allocator from _Al

  00000	8b c1		 mov	 eax, ecx

; 427  : 		_Myfirst = 0;

  00002	33 c9		 xor	 ecx, ecx
  00004	89 08		 mov	 DWORD PTR [eax], ecx

; 428  : 		_Mylast = 0;

  00006	89 48 04	 mov	 DWORD PTR [eax+4], ecx

; 429  : 		_Myend = 0;

  00009	89 48 08	 mov	 DWORD PTR [eax+8], ecx

; 430  : 		}

  0000c	c2 04 00	 ret	 4
??0?$_Vector_val@UChangeDirInfo@@V?$allocator@UChangeDirInfo@@@std@@@std@@QAE@V?$allocator@UChangeDirInfo@@@1@@Z ENDP ; std::_Vector_val<ChangeDirInfo,std::allocator<ChangeDirInfo> >::_Vector_val<ChangeDirInfo,std::allocator<ChangeDirInfo> >
_TEXT	ENDS
PUBLIC	?allocate@?$allocator@UChangeDirInfo@@@std@@QAEPAUChangeDirInfo@@I@Z ; std::allocator<ChangeDirInfo>::allocate
; Function compile flags: /Ogsp
; File c:\program files (x86)\microsoft visual studio 10.0\vc\include\xmemory
;	COMDAT ?allocate@?$allocator@UChangeDirInfo@@@std@@QAEPAUChangeDirInfo@@I@Z
_TEXT	SEGMENT
__Count$ = 8						; size = 4
?allocate@?$allocator@UChangeDirInfo@@@std@@QAEPAUChangeDirInfo@@I@Z PROC ; std::allocator<ChangeDirInfo>::allocate, COMDAT
; _this$ = ecx

; 186  : 		{	// allocate array of _Count elements

  00000	55		 push	 ebp
  00001	8b ec		 mov	 ebp, esp

; 187  : 		return (_Allocate(_Count, (pointer)0));

  00003	6a 00		 push	 0
  00005	ff 75 08	 push	 DWORD PTR __Count$[ebp]
  00008	e8 00 00 00 00	 call	 ??$_Allocate@UChangeDirInfo@@@std@@YAPAUChangeDirInfo@@IPAU1@@Z ; std::_Allocate<ChangeDirInfo>
  0000d	59		 pop	 ecx
  0000e	59		 pop	 ecx

; 188  : 		}

  0000f	5d		 pop	 ebp
  00010	c2 04 00	 ret	 4
?allocate@?$allocator@UChangeDirInfo@@@std@@QAEPAUChangeDirInfo@@I@Z ENDP ; std::allocator<ChangeDirInfo>::allocate
_TEXT	ENDS
PUBLIC	??0?$_Vector_val@USecondAttribute@@V?$allocator@USecondAttribute@@@std@@@std@@QAE@V?$allocator@USecondAttribute@@@1@@Z ; std::_Vector_val<SecondAttribute,std::allocator<SecondAttribute> >::_Vector_val<SecondAttribute,std::allocator<SecondAttribute> >
; Function compile flags: /Ogsp
; File c:\program files (x86)\microsoft visual studio 10.0\vc\include\vector
;	COMDAT ??0?$_Vector_val@USecondAttribute@@V?$allocator@USecondAttribute@@@std@@@std@@QAE@V?$allocator@USecondAttribute@@@1@@Z
_TEXT	SEGMENT
__Al$ = 8						; size = 1
??0?$_Vector_val@USecondAttribute@@V?$allocator@USecondAttribute@@@std@@@std@@QAE@V?$allocator@USecondAttribute@@@1@@Z PROC ; std::_Vector_val<SecondAttribute,std::allocator<SecondAttribute> >::_Vector_val<SecondAttribute,std::allocator<SecondAttribute> >, COMDAT
; _this$ = ecx

; 426  : 		{	// construct allocator from _Al

  00000	8b c1		 mov	 eax, ecx

; 427  : 		_Myfirst = 0;

  00002	33 c9		 xor	 ecx, ecx
  00004	89 08		 mov	 DWORD PTR [eax], ecx

; 428  : 		_Mylast = 0;

  00006	89 48 04	 mov	 DWORD PTR [eax+4], ecx

; 429  : 		_Myend = 0;

  00009	89 48 08	 mov	 DWORD PTR [eax+8], ecx

; 430  : 		}

  0000c	c2 04 00	 ret	 4
??0?$_Vector_val@USecondAttribute@@V?$allocator@USecondAttribute@@@std@@@std@@QAE@V?$allocator@USecondAttribute@@@1@@Z ENDP ; std::_Vector_val<SecondAttribute,std::allocator<SecondAttribute> >::_Vector_val<SecondAttribute,std::allocator<SecondAttribute> >
_TEXT	ENDS
PUBLIC	??0?$_Vector_iterator@V?$_Vector_val@UChangeDirInfo@@V?$allocator@UChangeDirInfo@@@std@@@std@@@std@@QAE@PAUChangeDirInfo@@PBU_Container_base0@1@@Z ; std::_Vector_iterator<std::_Vector_val<ChangeDirInfo,std::allocator<ChangeDirInfo> > >::_Vector_iterator<std::_Vector_val<ChangeDirInfo,std::allocator<ChangeDirInfo> > >
; Function compile flags: /Ogsp
;	COMDAT ??0?$_Vector_iterator@V?$_Vector_val@UChangeDirInfo@@V?$allocator@UChangeDirInfo@@@std@@@std@@@std@@QAE@PAUChangeDirInfo@@PBU_Container_base0@1@@Z
_TEXT	SEGMENT
__Parg$ = 8						; size = 4
__Pvector$ = 12						; size = 4
??0?$_Vector_iterator@V?$_Vector_val@UChangeDirInfo@@V?$allocator@UChangeDirInfo@@@std@@@std@@@std@@QAE@PAUChangeDirInfo@@PBU_Container_base0@1@@Z PROC ; std::_Vector_iterator<std::_Vector_val<ChangeDirInfo,std::allocator<ChangeDirInfo> > >::_Vector_iterator<std::_Vector_val<ChangeDirInfo,std::allocator<ChangeDirInfo> > >, COMDAT
; _this$ = ecx

; 304  : 		{	// construct with pointer _Parg

  00000	55		 push	 ebp
  00001	8b ec		 mov	 ebp, esp
  00003	8b c1		 mov	 eax, ecx
  00005	8b 4d 08	 mov	 ecx, DWORD PTR __Parg$[ebp]
  00008	89 08		 mov	 DWORD PTR [eax], ecx

; 305  : 		}

  0000a	5d		 pop	 ebp
  0000b	c2 08 00	 ret	 8
??0?$_Vector_iterator@V?$_Vector_val@UChangeDirInfo@@V?$allocator@UChangeDirInfo@@@std@@@std@@@std@@QAE@PAUChangeDirInfo@@PBU_Container_base0@1@@Z ENDP ; std::_Vector_iterator<std::_Vector_val<ChangeDirInfo,std::allocator<ChangeDirInfo> > >::_Vector_iterator<std::_Vector_val<ChangeDirInfo,std::allocator<ChangeDirInfo> > >
_TEXT	ENDS
PUBLIC	?_Grow_to@?$vector@UChangeDirInfo@@V?$allocator@UChangeDirInfo@@@std@@@std@@IBEII@Z ; std::vector<ChangeDirInfo,std::allocator<ChangeDirInfo> >::_Grow_to
; Function compile flags: /Ogsp
;	COMDAT ?_Grow_to@?$vector@UChangeDirInfo@@V?$allocator@UChangeDirInfo@@@std@@@std@@IBEII@Z
_TEXT	SEGMENT
__Count$ = 8						; size = 4
?_Grow_to@?$vector@UChangeDirInfo@@V?$allocator@UChangeDirInfo@@@std@@@std@@IBEII@Z PROC ; std::vector<ChangeDirInfo,std::allocator<ChangeDirInfo> >::_Grow_to, COMDAT
; _this$ = ecx

; 1274 : 		{	// grow by 50% or at least to _Count

  00000	55		 push	 ebp
  00001	8b ec		 mov	 ebp, esp

; 1275 : 		size_type _Capacity = capacity();

  00003	8b 41 08	 mov	 eax, DWORD PTR [ecx+8]
  00006	2b 01		 sub	 eax, DWORD PTR [ecx]
  00008	6a 1c		 push	 28			; 0000001cH
  0000a	99		 cdq
  0000b	59		 pop	 ecx
  0000c	f7 f9		 idiv	 ecx

; 1276 : 
; 1277 : 		_Capacity = max_size() - _Capacity / 2 < _Capacity
; 1278 : 			? 0 : _Capacity + _Capacity / 2;	// try to grow by 50%

  0000e	ba 49 92 24 09	 mov	 edx, 153391689		; 09249249H
  00013	8b c8		 mov	 ecx, eax
  00015	d1 e9		 shr	 ecx, 1
  00017	2b d1		 sub	 edx, ecx
  00019	3b d0		 cmp	 edx, eax
  0001b	73 04		 jae	 SHORT $LN4@Grow_to
  0001d	33 c0		 xor	 eax, eax
  0001f	eb 02		 jmp	 SHORT $LN5@Grow_to
$LN4@Grow_to:
  00021	03 c1		 add	 eax, ecx
$LN5@Grow_to:

; 1279 : 		if (_Capacity < _Count)

  00023	3b 45 08	 cmp	 eax, DWORD PTR __Count$[ebp]

; 1280 : 			_Capacity = _Count;

  00026	0f 42 45 08	 cmovb	 eax, DWORD PTR __Count$[ebp]

; 1281 : 		return (_Capacity);
; 1282 : 		}

  0002a	5d		 pop	 ebp
  0002b	c2 04 00	 ret	 4
?_Grow_to@?$vector@UChangeDirInfo@@V?$allocator@UChangeDirInfo@@@std@@@std@@IBEII@Z ENDP ; std::vector<ChangeDirInfo,std::allocator<ChangeDirInfo> >::_Grow_to
_TEXT	ENDS
PUBLIC	?max_size@?$vector@USecondAttribute@@V?$allocator@USecondAttribute@@@std@@@std@@QBEIXZ ; std::vector<SecondAttribute,std::allocator<SecondAttribute> >::max_size
; Function compile flags: /Ogsp
;	COMDAT ?max_size@?$vector@USecondAttribute@@V?$allocator@USecondAttribute@@@std@@@std@@QBEIXZ
_TEXT	SEGMENT
?max_size@?$vector@USecondAttribute@@V?$allocator@USecondAttribute@@@std@@@std@@QBEIXZ PROC ; std::vector<SecondAttribute,std::allocator<SecondAttribute> >::max_size, COMDAT
; _this$ = ecx

; 884  : 		return (this->_Alval.max_size());

  00000	b8 ff ff ff 1f	 mov	 eax, 536870911		; 1fffffffH

; 885  : 		}

  00005	c3		 ret	 0
?max_size@?$vector@USecondAttribute@@V?$allocator@USecondAttribute@@@std@@@std@@QBEIXZ ENDP ; std::vector<SecondAttribute,std::allocator<SecondAttribute> >::max_size
_TEXT	ENDS
PUBLIC	?_Grow_to@?$vector@USecondAttribute@@V?$allocator@USecondAttribute@@@std@@@std@@IBEII@Z ; std::vector<SecondAttribute,std::allocator<SecondAttribute> >::_Grow_to
; Function compile flags: /Ogsp
;	COMDAT ?_Grow_to@?$vector@USecondAttribute@@V?$allocator@USecondAttribute@@@std@@@std@@IBEII@Z
_TEXT	SEGMENT
__Count$ = 8						; size = 4
?_Grow_to@?$vector@USecondAttribute@@V?$allocator@USecondAttribute@@@std@@@std@@IBEII@Z PROC ; std::vector<SecondAttribute,std::allocator<SecondAttribute> >::_Grow_to, COMDAT
; _this$ = ecx

; 1274 : 		{	// grow by 50% or at least to _Count

  00000	55		 push	 ebp
  00001	8b ec		 mov	 ebp, esp

; 1275 : 		size_type _Capacity = capacity();

  00003	8b 41 08	 mov	 eax, DWORD PTR [ecx+8]
  00006	2b 01		 sub	 eax, DWORD PTR [ecx]

; 1276 : 
; 1277 : 		_Capacity = max_size() - _Capacity / 2 < _Capacity
; 1278 : 			? 0 : _Capacity + _Capacity / 2;	// try to grow by 50%

  00008	ba ff ff ff 1f	 mov	 edx, 536870911		; 1fffffffH
  0000d	c1 f8 03	 sar	 eax, 3
  00010	8b c8		 mov	 ecx, eax
  00012	d1 e9		 shr	 ecx, 1
  00014	2b d1		 sub	 edx, ecx
  00016	3b d0		 cmp	 edx, eax
  00018	73 04		 jae	 SHORT $LN4@Grow_to@2
  0001a	33 c0		 xor	 eax, eax
  0001c	eb 02		 jmp	 SHORT $LN5@Grow_to@2
$LN4@Grow_to@2:
  0001e	03 c1		 add	 eax, ecx
$LN5@Grow_to@2:

; 1279 : 		if (_Capacity < _Count)

  00020	3b 45 08	 cmp	 eax, DWORD PTR __Count$[ebp]

; 1280 : 			_Capacity = _Count;

  00023	0f 42 45 08	 cmovb	 eax, DWORD PTR __Count$[ebp]

; 1281 : 		return (_Capacity);
; 1282 : 		}

  00027	5d		 pop	 ebp
  00028	c2 04 00	 ret	 4
?_Grow_to@?$vector@USecondAttribute@@V?$allocator@USecondAttribute@@@std@@@std@@IBEII@Z ENDP ; std::vector<SecondAttribute,std::allocator<SecondAttribute> >::_Grow_to
_TEXT	ENDS
PUBLIC	??0?$_Vector_iterator@V?$_Vector_val@USecondAttribute@@V?$allocator@USecondAttribute@@@std@@@std@@@std@@QAE@PAUSecondAttribute@@PBU_Container_base0@1@@Z ; std::_Vector_iterator<std::_Vector_val<SecondAttribute,std::allocator<SecondAttribute> > >::_Vector_iterator<std::_Vector_val<SecondAttribute,std::allocator<SecondAttribute> > >
; Function compile flags: /Ogsp
;	COMDAT ??0?$_Vector_iterator@V?$_Vector_val@USecondAttribute@@V?$allocator@USecondAttribute@@@std@@@std@@@std@@QAE@PAUSecondAttribute@@PBU_Container_base0@1@@Z
_TEXT	SEGMENT
__Parg$ = 8						; size = 4
__Pvector$ = 12						; size = 4
??0?$_Vector_iterator@V?$_Vector_val@USecondAttribute@@V?$allocator@USecondAttribute@@@std@@@std@@@std@@QAE@PAUSecondAttribute@@PBU_Container_base0@1@@Z PROC ; std::_Vector_iterator<std::_Vector_val<SecondAttribute,std::allocator<SecondAttribute> > >::_Vector_iterator<std::_Vector_val<SecondAttribute,std::allocator<SecondAttribute> > >, COMDAT
; _this$ = ecx

; 304  : 		{	// construct with pointer _Parg

  00000	55		 push	 ebp
  00001	8b ec		 mov	 ebp, esp
  00003	8b c1		 mov	 eax, ecx
  00005	8b 4d 08	 mov	 ecx, DWORD PTR __Parg$[ebp]
  00008	89 08		 mov	 DWORD PTR [eax], ecx

; 305  : 		}

  0000a	5d		 pop	 ebp
  0000b	c2 08 00	 ret	 8
??0?$_Vector_iterator@V?$_Vector_val@USecondAttribute@@V?$allocator@USecondAttribute@@@std@@@std@@@std@@QAE@PAUSecondAttribute@@PBU_Container_base0@1@@Z ENDP ; std::_Vector_iterator<std::_Vector_val<SecondAttribute,std::allocator<SecondAttribute> > >::_Vector_iterator<std::_Vector_val<SecondAttribute,std::allocator<SecondAttribute> > >
_TEXT	ENDS
PUBLIC	?allocate@?$allocator@USecondAttribute@@@std@@QAEPAUSecondAttribute@@I@Z ; std::allocator<SecondAttribute>::allocate
; Function compile flags: /Ogsp
; File c:\program files (x86)\microsoft visual studio 10.0\vc\include\xmemory
;	COMDAT ?allocate@?$allocator@USecondAttribute@@@std@@QAEPAUSecondAttribute@@I@Z
_TEXT	SEGMENT
__Count$ = 8						; size = 4
?allocate@?$allocator@USecondAttribute@@@std@@QAEPAUSecondAttribute@@I@Z PROC ; std::allocator<SecondAttribute>::allocate, COMDAT
; _this$ = ecx

; 186  : 		{	// allocate array of _Count elements

  00000	55		 push	 ebp
  00001	8b ec		 mov	 ebp, esp

; 187  : 		return (_Allocate(_Count, (pointer)0));

  00003	6a 00		 push	 0
  00005	ff 75 08	 push	 DWORD PTR __Count$[ebp]
  00008	e8 00 00 00 00	 call	 ??$_Allocate@USecondAttribute@@@std@@YAPAUSecondAttribute@@IPAU1@@Z ; std::_Allocate<SecondAttribute>
  0000d	59		 pop	 ecx
  0000e	59		 pop	 ecx

; 188  : 		}

  0000f	5d		 pop	 ebp
  00010	c2 04 00	 ret	 4
?allocate@?$allocator@USecondAttribute@@@std@@QAEPAUSecondAttribute@@I@Z ENDP ; std::allocator<SecondAttribute>::allocate
_TEXT	ENDS
PUBLIC	??8?$_Vector_const_iterator@V?$_Vector_val@UChangeDirInfo@@V?$allocator@UChangeDirInfo@@@std@@@std@@@std@@QBE_NABV01@@Z ; std::_Vector_const_iterator<std::_Vector_val<ChangeDirInfo,std::allocator<ChangeDirInfo> > >::operator==
; Function compile flags: /Ogsp
; File c:\program files (x86)\microsoft visual studio 10.0\vc\include\vector
;	COMDAT ??8?$_Vector_const_iterator@V?$_Vector_val@UChangeDirInfo@@V?$allocator@UChangeDirInfo@@@std@@@std@@@std@@QBE_NABV01@@Z
_TEXT	SEGMENT
__Right$ = 8						; size = 4
??8?$_Vector_const_iterator@V?$_Vector_val@UChangeDirInfo@@V?$allocator@UChangeDirInfo@@@std@@@std@@@std@@QBE_NABV01@@Z PROC ; std::_Vector_const_iterator<std::_Vector_val<ChangeDirInfo,std::allocator<ChangeDirInfo> > >::operator==, COMDAT
; _this$ = ecx

; 201  : 		{	// test for iterator equality

  00000	55		 push	 ebp
  00001	8b ec		 mov	 ebp, esp

; 202  : 		_Compat(_Right);
; 203  : 		return (this->_Ptr == _Right._Ptr);

  00003	8b 01		 mov	 eax, DWORD PTR [ecx]
  00005	8b 4d 08	 mov	 ecx, DWORD PTR __Right$[ebp]
  00008	2b 01		 sub	 eax, DWORD PTR [ecx]
  0000a	f7 d8		 neg	 eax
  0000c	1b c0		 sbb	 eax, eax
  0000e	40		 inc	 eax

; 204  : 		}

  0000f	5d		 pop	 ebp
  00010	c2 04 00	 ret	 4
??8?$_Vector_const_iterator@V?$_Vector_val@UChangeDirInfo@@V?$allocator@UChangeDirInfo@@@std@@@std@@@std@@QBE_NABV01@@Z ENDP ; std::_Vector_const_iterator<std::_Vector_val<ChangeDirInfo,std::allocator<ChangeDirInfo> > >::operator==
_TEXT	ENDS
PUBLIC	??8?$_Vector_const_iterator@V?$_Vector_val@USecondAttribute@@V?$allocator@USecondAttribute@@@std@@@std@@@std@@QBE_NABV01@@Z ; std::_Vector_const_iterator<std::_Vector_val<SecondAttribute,std::allocator<SecondAttribute> > >::operator==
; Function compile flags: /Ogsp
;	COMDAT ??8?$_Vector_const_iterator@V?$_Vector_val@USecondAttribute@@V?$allocator@USecondAttribute@@@std@@@std@@@std@@QBE_NABV01@@Z
_TEXT	SEGMENT
__Right$ = 8						; size = 4
??8?$_Vector_const_iterator@V?$_Vector_val@USecondAttribute@@V?$allocator@USecondAttribute@@@std@@@std@@@std@@QBE_NABV01@@Z PROC ; std::_Vector_const_iterator<std::_Vector_val<SecondAttribute,std::allocator<SecondAttribute> > >::operator==, COMDAT
; _this$ = ecx

; 201  : 		{	// test for iterator equality

  00000	55		 push	 ebp
  00001	8b ec		 mov	 ebp, esp

; 202  : 		_Compat(_Right);
; 203  : 		return (this->_Ptr == _Right._Ptr);

  00003	8b 01		 mov	 eax, DWORD PTR [ecx]
  00005	8b 4d 08	 mov	 ecx, DWORD PTR __Right$[ebp]
  00008	2b 01		 sub	 eax, DWORD PTR [ecx]
  0000a	f7 d8		 neg	 eax
  0000c	1b c0		 sbb	 eax, eax
  0000e	40		 inc	 eax

; 204  : 		}

  0000f	5d		 pop	 ebp
  00010	c2 04 00	 ret	 4
??8?$_Vector_const_iterator@V?$_Vector_val@USecondAttribute@@V?$allocator@USecondAttribute@@@std@@@std@@@std@@QBE_NABV01@@Z ENDP ; std::_Vector_const_iterator<std::_Vector_val<SecondAttribute,std::allocator<SecondAttribute> > >::operator==
_TEXT	ENDS
PUBLIC	__$ArrayPad$
PUBLIC	??$LoadBool_e@$0BE@@ioINILoader@@QAE_NAAY0BE@$$CBD_N@Z ; ioINILoader::LoadBool_e<20>
EXTRN	__imp_?LoadBool@ioINILoader@@QAE_NPBD_N@Z:PROC
; Function compile flags: /Ogsp
; File d:\lost saga for developer\youtube\tutorial\source\src\io3dengine\ioiniloader.h
;	COMDAT ??$LoadBool_e@$0BE@@ioINILoader@@QAE_NAAY0BE@$$CBD_N@Z
_TEXT	SEGMENT
__k$ = -28						; size = 20
__$ArrayPad$ = -4					; size = 4
_k$ = 8							; size = 4
_b$ = 12						; size = 1
??$LoadBool_e@$0BE@@ioINILoader@@QAE_NAAY0BE@$$CBD_N@Z PROC ; ioINILoader::LoadBool_e<20>, COMDAT
; _this$ = ecx

; 101  : 	{

  00000	55		 push	 ebp
  00001	8b ec		 mov	 ebp, esp
  00003	83 ec 1c	 sub	 esp, 28			; 0000001cH
  00006	a1 00 00 00 00	 mov	 eax, DWORD PTR ___security_cookie
  0000b	33 c5		 xor	 eax, ebp
  0000d	89 45 fc	 mov	 DWORD PTR __$ArrayPad$[ebp], eax
  00010	8b 45 08	 mov	 eax, DWORD PTR _k$[ebp]

; 102  : 		_ENCSTR(k, _k);

  00013	8a 10		 mov	 dl, BYTE PTR [eax]
  00015	53		 push	 ebx
  00016	56		 push	 esi
  00017	8b f1		 mov	 esi, ecx
  00019	84 d2		 test	 dl, dl
  0001b	0f 84 dd 01 00
	00		 je	 $LN96@LoadBool_e
  00021	80 f2 ed	 xor	 dl, -19			; ffffffedH
  00024	88 55 e4	 mov	 BYTE PTR __k$[ebp], dl
  00027	8a 50 01	 mov	 dl, BYTE PTR [eax+1]
  0002a	84 d2		 test	 dl, dl
  0002c	0f 84 c6 01 00
	00		 je	 $LN95@LoadBool_e
  00032	b3 ec		 mov	 bl, -20			; ffffffecH
  00034	32 d3		 xor	 dl, bl
  00036	88 55 e5	 mov	 BYTE PTR __k$[ebp+1], dl
  00039	8a 50 02	 mov	 dl, BYTE PTR [eax+2]
  0003c	84 d2		 test	 dl, dl
  0003e	0f 84 ae 01 00
	00		 je	 $LN94@LoadBool_e
  00044	b1 eb		 mov	 cl, -21			; ffffffebH
  00046	32 d1		 xor	 dl, cl
  00048	88 55 e6	 mov	 BYTE PTR __k$[ebp+2], dl
  0004b	8a 50 03	 mov	 dl, BYTE PTR [eax+3]
  0004e	84 d2		 test	 dl, dl
  00050	0f 84 96 01 00
	00		 je	 $LN93@LoadBool_e
  00056	80 f2 ea	 xor	 dl, -22			; ffffffeaH
  00059	88 55 e7	 mov	 BYTE PTR __k$[ebp+3], dl
  0005c	8a 50 04	 mov	 dl, BYTE PTR [eax+4]
  0005f	84 d2		 test	 dl, dl
  00061	0f 84 7f 01 00
	00		 je	 $LN92@LoadBool_e
  00067	80 f2 ed	 xor	 dl, -19			; ffffffedH
  0006a	88 55 e8	 mov	 BYTE PTR __k$[ebp+4], dl
  0006d	8a 50 05	 mov	 dl, BYTE PTR [eax+5]
  00070	84 d2		 test	 dl, dl
  00072	0f 84 69 01 00
	00		 je	 $LN91@LoadBool_e
  00078	32 d3		 xor	 dl, bl
  0007a	88 55 e9	 mov	 BYTE PTR __k$[ebp+5], dl
  0007d	8a 50 06	 mov	 dl, BYTE PTR [eax+6]
  00080	84 d2		 test	 dl, dl
  00082	0f 84 54 01 00
	00		 je	 $LN90@LoadBool_e
  00088	32 d1		 xor	 dl, cl
  0008a	88 55 ea	 mov	 BYTE PTR __k$[ebp+6], dl
  0008d	8a 50 07	 mov	 dl, BYTE PTR [eax+7]
  00090	84 d2		 test	 dl, dl
  00092	0f 84 3e 01 00
	00		 je	 $LN89@LoadBool_e
  00098	80 f2 ea	 xor	 dl, -22			; ffffffeaH
  0009b	88 55 eb	 mov	 BYTE PTR __k$[ebp+7], dl
  0009e	8a 50 08	 mov	 dl, BYTE PTR [eax+8]
  000a1	84 d2		 test	 dl, dl
  000a3	0f 84 27 01 00
	00		 je	 $LN88@LoadBool_e
  000a9	80 f2 ed	 xor	 dl, -19			; ffffffedH
  000ac	88 55 ec	 mov	 BYTE PTR __k$[ebp+8], dl
  000af	8a 50 09	 mov	 dl, BYTE PTR [eax+9]
  000b2	84 d2		 test	 dl, dl
  000b4	0f 84 11 01 00
	00		 je	 $LN87@LoadBool_e
  000ba	32 d3		 xor	 dl, bl
  000bc	88 55 ed	 mov	 BYTE PTR __k$[ebp+9], dl
  000bf	8a 50 0a	 mov	 dl, BYTE PTR [eax+10]
  000c2	84 d2		 test	 dl, dl
  000c4	0f 84 fc 00 00
	00		 je	 $LN86@LoadBool_e
  000ca	32 d1		 xor	 dl, cl
  000cc	88 55 ee	 mov	 BYTE PTR __k$[ebp+10], dl
  000cf	8a 50 0b	 mov	 dl, BYTE PTR [eax+11]
  000d2	84 d2		 test	 dl, dl
  000d4	0f 84 e6 00 00
	00		 je	 $LN85@LoadBool_e
  000da	80 f2 ea	 xor	 dl, -22			; ffffffeaH
  000dd	88 55 ef	 mov	 BYTE PTR __k$[ebp+11], dl
  000e0	8a 50 0c	 mov	 dl, BYTE PTR [eax+12]
  000e3	84 d2		 test	 dl, dl
  000e5	0f 84 cf 00 00
	00		 je	 $LN84@LoadBool_e
  000eb	80 f2 ed	 xor	 dl, -19			; ffffffedH
  000ee	88 55 f0	 mov	 BYTE PTR __k$[ebp+12], dl
  000f1	8a 50 0d	 mov	 dl, BYTE PTR [eax+13]
  000f4	84 d2		 test	 dl, dl
  000f6	0f 84 b9 00 00
	00		 je	 $LN83@LoadBool_e
  000fc	32 d3		 xor	 dl, bl
  000fe	88 55 f1	 mov	 BYTE PTR __k$[ebp+13], dl
  00101	8a 50 0e	 mov	 dl, BYTE PTR [eax+14]
  00104	84 d2		 test	 dl, dl
  00106	0f 84 a4 00 00
	00		 je	 $LN82@LoadBool_e
  0010c	32 d1		 xor	 dl, cl
  0010e	88 55 f2	 mov	 BYTE PTR __k$[ebp+14], dl
  00111	8a 50 0f	 mov	 dl, BYTE PTR [eax+15]
  00114	84 d2		 test	 dl, dl
  00116	0f 84 8e 00 00
	00		 je	 $LN81@LoadBool_e
  0011c	80 f2 ea	 xor	 dl, -22			; ffffffeaH
  0011f	88 55 f3	 mov	 BYTE PTR __k$[ebp+15], dl
  00122	8a 50 10	 mov	 dl, BYTE PTR [eax+16]
  00125	84 d2		 test	 dl, dl
  00127	74 7b		 je	 SHORT $LN80@LoadBool_e
  00129	80 f2 ed	 xor	 dl, -19			; ffffffedH
  0012c	88 55 f4	 mov	 BYTE PTR __k$[ebp+16], dl
  0012f	8a 50 11	 mov	 dl, BYTE PTR [eax+17]
  00132	84 d2		 test	 dl, dl
  00134	74 69		 je	 SHORT $LN79@LoadBool_e
  00136	32 d3		 xor	 dl, bl
  00138	88 55 f5	 mov	 BYTE PTR __k$[ebp+17], dl
  0013b	8a 50 12	 mov	 dl, BYTE PTR [eax+18]
  0013e	84 d2		 test	 dl, dl
  00140	74 58		 je	 SHORT $LN78@LoadBool_e
  00142	32 d1		 xor	 dl, cl
  00144	80 78 13 00	 cmp	 BYTE PTR [eax+19], 0
  00148	88 55 f6	 mov	 BYTE PTR __k$[ebp+18], dl
  0014b	0f 84 b1 00 00
	00		 je	 $LN1@LoadBool_e
  00151	8a 50 14	 mov	 dl, BYTE PTR [eax+20]
  00154	84 d2		 test	 dl, dl
  00156	74 3c		 je	 SHORT $LN76@LoadBool_e
  00158	80 f2 ed	 xor	 dl, -19			; ffffffedH
  0015b	88 55 f8	 mov	 BYTE PTR __k$[ebp+20], dl
  0015e	8a 50 15	 mov	 dl, BYTE PTR [eax+21]
  00161	84 d2		 test	 dl, dl
  00163	74 2a		 je	 SHORT $LN75@LoadBool_e
  00165	32 d3		 xor	 dl, bl
  00167	88 55 f9	 mov	 BYTE PTR __k$[ebp+21], dl
  0016a	8a 50 16	 mov	 dl, BYTE PTR [eax+22]
  0016d	84 d2		 test	 dl, dl
  0016f	74 19		 je	 SHORT $LN74@LoadBool_e
  00171	8a 40 17	 mov	 al, BYTE PTR [eax+23]
  00174	32 d1		 xor	 dl, cl
  00176	88 55 fa	 mov	 BYTE PTR __k$[ebp+22], dl
  00179	84 c0		 test	 al, al
  0017b	74 07		 je	 SHORT $LN73@LoadBool_e
  0017d	34 ea		 xor	 al, -22			; ffffffeaH
  0017f	88 45 fb	 mov	 BYTE PTR __k$[ebp+23], al
  00182	eb 7e		 jmp	 SHORT $LN1@LoadBool_e
$LN73@LoadBool_e:
  00184	c6 45 fb ea	 mov	 BYTE PTR __k$[ebp+23], -22 ; ffffffeaH
  00188	eb 78		 jmp	 SHORT $LN1@LoadBool_e
$LN74@LoadBool_e:
  0018a	88 4d fa	 mov	 BYTE PTR __k$[ebp+22], cl
  0018d	eb 73		 jmp	 SHORT $LN1@LoadBool_e
$LN75@LoadBool_e:
  0018f	88 5d f9	 mov	 BYTE PTR __k$[ebp+21], bl
  00192	eb 6e		 jmp	 SHORT $LN1@LoadBool_e
$LN76@LoadBool_e:
  00194	c6 45 f8 ed	 mov	 BYTE PTR __k$[ebp+20], -19 ; ffffffedH
  00198	eb 68		 jmp	 SHORT $LN1@LoadBool_e
$LN78@LoadBool_e:
  0019a	88 4d f6	 mov	 BYTE PTR __k$[ebp+18], cl
  0019d	eb 63		 jmp	 SHORT $LN1@LoadBool_e
$LN79@LoadBool_e:
  0019f	88 5d f5	 mov	 BYTE PTR __k$[ebp+17], bl
  001a2	eb 5e		 jmp	 SHORT $LN1@LoadBool_e
$LN80@LoadBool_e:
  001a4	c6 45 f4 ed	 mov	 BYTE PTR __k$[ebp+16], -19 ; ffffffedH
  001a8	eb 58		 jmp	 SHORT $LN1@LoadBool_e
$LN81@LoadBool_e:
  001aa	c6 45 f3 ea	 mov	 BYTE PTR __k$[ebp+15], -22 ; ffffffeaH
  001ae	eb 52		 jmp	 SHORT $LN1@LoadBool_e
$LN82@LoadBool_e:
  001b0	88 4d f2	 mov	 BYTE PTR __k$[ebp+14], cl
  001b3	eb 4d		 jmp	 SHORT $LN1@LoadBool_e
$LN83@LoadBool_e:
  001b5	88 5d f1	 mov	 BYTE PTR __k$[ebp+13], bl
  001b8	eb 48		 jmp	 SHORT $LN1@LoadBool_e
$LN84@LoadBool_e:
  001ba	c6 45 f0 ed	 mov	 BYTE PTR __k$[ebp+12], -19 ; ffffffedH
  001be	eb 42		 jmp	 SHORT $LN1@LoadBool_e
$LN85@LoadBool_e:
  001c0	c6 45 ef ea	 mov	 BYTE PTR __k$[ebp+11], -22 ; ffffffeaH
  001c4	eb 3c		 jmp	 SHORT $LN1@LoadBool_e
$LN86@LoadBool_e:
  001c6	88 4d ee	 mov	 BYTE PTR __k$[ebp+10], cl
  001c9	eb 37		 jmp	 SHORT $LN1@LoadBool_e
$LN87@LoadBool_e:
  001cb	88 5d ed	 mov	 BYTE PTR __k$[ebp+9], bl
  001ce	eb 32		 jmp	 SHORT $LN1@LoadBool_e
$LN88@LoadBool_e:
  001d0	c6 45 ec ed	 mov	 BYTE PTR __k$[ebp+8], -19 ; ffffffedH
  001d4	eb 2c		 jmp	 SHORT $LN1@LoadBool_e
$LN89@LoadBool_e:
  001d6	c6 45 eb ea	 mov	 BYTE PTR __k$[ebp+7], -22 ; ffffffeaH
  001da	eb 26		 jmp	 SHORT $LN1@LoadBool_e
$LN90@LoadBool_e:
  001dc	88 4d ea	 mov	 BYTE PTR __k$[ebp+6], cl
  001df	eb 21		 jmp	 SHORT $LN1@LoadBool_e
$LN91@LoadBool_e:
  001e1	88 5d e9	 mov	 BYTE PTR __k$[ebp+5], bl
  001e4	eb 1c		 jmp	 SHORT $LN1@LoadBool_e
$LN92@LoadBool_e:
  001e6	c6 45 e8 ed	 mov	 BYTE PTR __k$[ebp+4], -19 ; ffffffedH
  001ea	eb 16		 jmp	 SHORT $LN1@LoadBool_e
$LN93@LoadBool_e:
  001ec	c6 45 e7 ea	 mov	 BYTE PTR __k$[ebp+3], -22 ; ffffffeaH
  001f0	eb 10		 jmp	 SHORT $LN1@LoadBool_e
$LN94@LoadBool_e:
  001f2	c6 45 e6 eb	 mov	 BYTE PTR __k$[ebp+2], -21 ; ffffffebH
  001f6	eb 0a		 jmp	 SHORT $LN1@LoadBool_e
$LN95@LoadBool_e:
  001f8	c6 45 e5 ec	 mov	 BYTE PTR __k$[ebp+1], -20 ; ffffffecH
  001fc	eb 04		 jmp	 SHORT $LN1@LoadBool_e
$LN96@LoadBool_e:
  001fe	c6 45 e4 ed	 mov	 BYTE PTR __k$[ebp], -19	; ffffffedH
$LN1@LoadBool_e:
  00202	6a 04		 push	 4
  00204	8d 45 e4	 lea	 eax, DWORD PTR __k$[ebp]
  00207	c6 45 f7 00	 mov	 BYTE PTR __k$[ebp+19], 0
  0020b	5a		 pop	 edx
$LL104@LoadBool_e:
  0020c	81 30 ed ec eb
	ea		 xor	 DWORD PTR [eax], -353637139 ; eaebecedH
  00212	83 c0 04	 add	 eax, 4
  00215	4a		 dec	 edx
  00216	75 f4		 jne	 SHORT $LL104@LoadBool_e
  00218	6a 10		 push	 16			; 00000010H
  0021a	58		 pop	 eax
$LL101@LoadBool_e:
  0021b	8b c8		 mov	 ecx, eax
  0021d	81 e1 03 00 00
	80		 and	 ecx, -2147483645	; 80000003H
  00223	79 05		 jns	 SHORT $LN111@LoadBool_e
  00225	49		 dec	 ecx
  00226	83 c9 fc	 or	 ecx, -4			; fffffffcH
  00229	41		 inc	 ecx
$LN111@LoadBool_e:
  0022a	b2 ed		 mov	 dl, -19			; ffffffedH
  0022c	2a d1		 sub	 dl, cl
  0022e	30 54 05 e4	 xor	 BYTE PTR __k$[ebp+eax], dl
  00232	40		 inc	 eax
  00233	83 f8 13	 cmp	 eax, 19			; 00000013H
  00236	7c e3		 jl	 SHORT $LL101@LoadBool_e

; 103  : 		return LoadBool(_k, b);

  00238	ff 75 0c	 push	 DWORD PTR _b$[ebp]
  0023b	8d 45 e4	 lea	 eax, DWORD PTR __k$[ebp]
  0023e	50		 push	 eax
  0023f	8b ce		 mov	 ecx, esi
  00241	ff 15 00 00 00
	00		 call	 DWORD PTR __imp_?LoadBool@ioINILoader@@QAE_NPBD_N@Z

; 104  : 	}

  00247	8b 4d fc	 mov	 ecx, DWORD PTR __$ArrayPad$[ebp]
  0024a	5e		 pop	 esi
  0024b	33 cd		 xor	 ecx, ebp
  0024d	5b		 pop	 ebx
  0024e	e8 00 00 00 00	 call	 @__security_check_cookie@4
  00253	c9		 leave
  00254	c2 08 00	 ret	 8
??$LoadBool_e@$0BE@@ioINILoader@@QAE_NAAY0BE@$$CBD_N@Z ENDP ; ioINILoader::LoadBool_e<20>
_TEXT	ENDS
PUBLIC	__$ArrayPad$
PUBLIC	??$LoadFloat_e@$0P@@ioINILoader@@QAEMAAY0P@$$CBDM@Z ; ioINILoader::LoadFloat_e<15>
EXTRN	__imp_?LoadFloat@ioINILoader@@QAEMPBDM@Z:PROC
; Function compile flags: /Ogsp
;	COMDAT ??$LoadFloat_e@$0P@@ioINILoader@@QAEMAAY0P@$$CBDM@Z
_TEXT	SEGMENT
__k$ = -24						; size = 15
__$ArrayPad$ = -4					; size = 4
_k$ = 8							; size = 4
_f$ = 12						; size = 4
??$LoadFloat_e@$0P@@ioINILoader@@QAEMAAY0P@$$CBDM@Z PROC ; ioINILoader::LoadFloat_e<15>, COMDAT
; _this$ = ecx

; 135  : 	{

  00000	55		 push	 ebp
  00001	8b ec		 mov	 ebp, esp
  00003	83 ec 18	 sub	 esp, 24			; 00000018H
  00006	a1 00 00 00 00	 mov	 eax, DWORD PTR ___security_cookie
  0000b	33 c5		 xor	 eax, ebp
  0000d	89 45 fc	 mov	 DWORD PTR __$ArrayPad$[ebp], eax
  00010	8b 45 08	 mov	 eax, DWORD PTR _k$[ebp]

; 136  : 		_ENCSTR(k, _k);

  00013	8a 10		 mov	 dl, BYTE PTR [eax]
  00015	56		 push	 esi
  00016	8b f1		 mov	 esi, ecx
  00018	84 d2		 test	 dl, dl
  0001a	0f 84 75 01 00
	00		 je	 $LN96@LoadFloat_
  00020	80 f2 ed	 xor	 dl, -19			; ffffffedH
  00023	88 55 e8	 mov	 BYTE PTR __k$[ebp], dl
  00026	8a 50 01	 mov	 dl, BYTE PTR [eax+1]
  00029	84 d2		 test	 dl, dl
  0002b	0f 84 5e 01 00
	00		 je	 $LN95@LoadFloat_
  00031	b1 ec		 mov	 cl, -20			; ffffffecH
  00033	32 d1		 xor	 dl, cl
  00035	88 55 e9	 mov	 BYTE PTR __k$[ebp+1], dl
  00038	8a 50 02	 mov	 dl, BYTE PTR [eax+2]
  0003b	84 d2		 test	 dl, dl
  0003d	0f 84 46 01 00
	00		 je	 $LN94@LoadFloat_
  00043	80 f2 eb	 xor	 dl, -21			; ffffffebH
  00046	88 55 ea	 mov	 BYTE PTR __k$[ebp+2], dl
  00049	8a 50 03	 mov	 dl, BYTE PTR [eax+3]
  0004c	84 d2		 test	 dl, dl
  0004e	0f 84 2f 01 00
	00		 je	 $LN93@LoadFloat_
  00054	80 f2 ea	 xor	 dl, -22			; ffffffeaH
  00057	88 55 eb	 mov	 BYTE PTR __k$[ebp+3], dl
  0005a	8a 50 04	 mov	 dl, BYTE PTR [eax+4]
  0005d	84 d2		 test	 dl, dl
  0005f	0f 84 18 01 00
	00		 je	 $LN92@LoadFloat_
  00065	80 f2 ed	 xor	 dl, -19			; ffffffedH
  00068	88 55 ec	 mov	 BYTE PTR __k$[ebp+4], dl
  0006b	8a 50 05	 mov	 dl, BYTE PTR [eax+5]
  0006e	84 d2		 test	 dl, dl
  00070	0f 84 02 01 00
	00		 je	 $LN91@LoadFloat_
  00076	32 d1		 xor	 dl, cl
  00078	88 55 ed	 mov	 BYTE PTR __k$[ebp+5], dl
  0007b	8a 50 06	 mov	 dl, BYTE PTR [eax+6]
  0007e	84 d2		 test	 dl, dl
  00080	0f 84 ec 00 00
	00		 je	 $LN90@LoadFloat_
  00086	80 f2 eb	 xor	 dl, -21			; ffffffebH
  00089	88 55 ee	 mov	 BYTE PTR __k$[ebp+6], dl
  0008c	8a 50 07	 mov	 dl, BYTE PTR [eax+7]
  0008f	84 d2		 test	 dl, dl
  00091	0f 84 d5 00 00
	00		 je	 $LN89@LoadFloat_
  00097	80 f2 ea	 xor	 dl, -22			; ffffffeaH
  0009a	88 55 ef	 mov	 BYTE PTR __k$[ebp+7], dl
  0009d	8a 50 08	 mov	 dl, BYTE PTR [eax+8]
  000a0	84 d2		 test	 dl, dl
  000a2	0f 84 be 00 00
	00		 je	 $LN88@LoadFloat_
  000a8	80 f2 ed	 xor	 dl, -19			; ffffffedH
  000ab	88 55 f0	 mov	 BYTE PTR __k$[ebp+8], dl
  000ae	8a 50 09	 mov	 dl, BYTE PTR [eax+9]
  000b1	84 d2		 test	 dl, dl
  000b3	0f 84 a8 00 00
	00		 je	 $LN87@LoadFloat_
  000b9	32 d1		 xor	 dl, cl
  000bb	88 55 f1	 mov	 BYTE PTR __k$[ebp+9], dl
  000be	8a 50 0a	 mov	 dl, BYTE PTR [eax+10]
  000c1	84 d2		 test	 dl, dl
  000c3	0f 84 92 00 00
	00		 je	 $LN86@LoadFloat_
  000c9	80 f2 eb	 xor	 dl, -21			; ffffffebH
  000cc	88 55 f2	 mov	 BYTE PTR __k$[ebp+10], dl
  000cf	8a 50 0b	 mov	 dl, BYTE PTR [eax+11]
  000d2	84 d2		 test	 dl, dl
  000d4	74 7f		 je	 SHORT $LN85@LoadFloat_
  000d6	80 f2 ea	 xor	 dl, -22			; ffffffeaH
  000d9	88 55 f3	 mov	 BYTE PTR __k$[ebp+11], dl
  000dc	8a 50 0c	 mov	 dl, BYTE PTR [eax+12]
  000df	84 d2		 test	 dl, dl
  000e1	74 6c		 je	 SHORT $LN84@LoadFloat_
  000e3	80 f2 ed	 xor	 dl, -19			; ffffffedH
  000e6	88 55 f4	 mov	 BYTE PTR __k$[ebp+12], dl
  000e9	8a 50 0d	 mov	 dl, BYTE PTR [eax+13]
  000ec	84 d2		 test	 dl, dl
  000ee	74 5a		 je	 SHORT $LN83@LoadFloat_
  000f0	32 d1		 xor	 dl, cl
  000f2	80 78 0e 00	 cmp	 BYTE PTR [eax+14], 0
  000f6	88 55 f5	 mov	 BYTE PTR __k$[ebp+13], dl
  000f9	0f 84 9a 00 00
	00		 je	 $LN1@LoadFloat_
  000ff	8a 50 0f	 mov	 dl, BYTE PTR [eax+15]
  00102	84 d2		 test	 dl, dl
  00104	74 3e		 je	 SHORT $LN81@LoadFloat_
  00106	80 f2 ea	 xor	 dl, -22			; ffffffeaH
  00109	88 55 f7	 mov	 BYTE PTR __k$[ebp+15], dl
  0010c	8a 50 10	 mov	 dl, BYTE PTR [eax+16]
  0010f	84 d2		 test	 dl, dl
  00111	74 2b		 je	 SHORT $LN80@LoadFloat_
  00113	80 f2 ed	 xor	 dl, -19			; ffffffedH
  00116	88 55 f8	 mov	 BYTE PTR __k$[ebp+16], dl
  00119	8a 50 11	 mov	 dl, BYTE PTR [eax+17]
  0011c	84 d2		 test	 dl, dl
  0011e	74 19		 je	 SHORT $LN79@LoadFloat_
  00120	8a 40 12	 mov	 al, BYTE PTR [eax+18]
  00123	32 d1		 xor	 dl, cl
  00125	88 55 f9	 mov	 BYTE PTR __k$[ebp+17], dl
  00128	84 c0		 test	 al, al
  0012a	74 07		 je	 SHORT $LN78@LoadFloat_
  0012c	34 eb		 xor	 al, -21			; ffffffebH
  0012e	88 45 fa	 mov	 BYTE PTR __k$[ebp+18], al
  00131	eb 66		 jmp	 SHORT $LN1@LoadFloat_
$LN78@LoadFloat_:
  00133	c6 45 fa eb	 mov	 BYTE PTR __k$[ebp+18], -21 ; ffffffebH
  00137	eb 60		 jmp	 SHORT $LN1@LoadFloat_
$LN79@LoadFloat_:
  00139	88 4d f9	 mov	 BYTE PTR __k$[ebp+17], cl
  0013c	eb 5b		 jmp	 SHORT $LN1@LoadFloat_
$LN80@LoadFloat_:
  0013e	c6 45 f8 ed	 mov	 BYTE PTR __k$[ebp+16], -19 ; ffffffedH
  00142	eb 55		 jmp	 SHORT $LN1@LoadFloat_
$LN81@LoadFloat_:
  00144	c6 45 f7 ea	 mov	 BYTE PTR __k$[ebp+15], -22 ; ffffffeaH
  00148	eb 4f		 jmp	 SHORT $LN1@LoadFloat_
$LN83@LoadFloat_:
  0014a	88 4d f5	 mov	 BYTE PTR __k$[ebp+13], cl
  0014d	eb 4a		 jmp	 SHORT $LN1@LoadFloat_
$LN84@LoadFloat_:
  0014f	c6 45 f4 ed	 mov	 BYTE PTR __k$[ebp+12], -19 ; ffffffedH
  00153	eb 44		 jmp	 SHORT $LN1@LoadFloat_
$LN85@LoadFloat_:
  00155	c6 45 f3 ea	 mov	 BYTE PTR __k$[ebp+11], -22 ; ffffffeaH
  00159	eb 3e		 jmp	 SHORT $LN1@LoadFloat_
$LN86@LoadFloat_:
  0015b	c6 45 f2 eb	 mov	 BYTE PTR __k$[ebp+10], -21 ; ffffffebH
  0015f	eb 38		 jmp	 SHORT $LN1@LoadFloat_
$LN87@LoadFloat_:
  00161	88 4d f1	 mov	 BYTE PTR __k$[ebp+9], cl
  00164	eb 33		 jmp	 SHORT $LN1@LoadFloat_
$LN88@LoadFloat_:
  00166	c6 45 f0 ed	 mov	 BYTE PTR __k$[ebp+8], -19 ; ffffffedH
  0016a	eb 2d		 jmp	 SHORT $LN1@LoadFloat_
$LN89@LoadFloat_:
  0016c	c6 45 ef ea	 mov	 BYTE PTR __k$[ebp+7], -22 ; ffffffeaH
  00170	eb 27		 jmp	 SHORT $LN1@LoadFloat_
$LN90@LoadFloat_:
  00172	c6 45 ee eb	 mov	 BYTE PTR __k$[ebp+6], -21 ; ffffffebH
  00176	eb 21		 jmp	 SHORT $LN1@LoadFloat_
$LN91@LoadFloat_:
  00178	88 4d ed	 mov	 BYTE PTR __k$[ebp+5], cl
  0017b	eb 1c		 jmp	 SHORT $LN1@LoadFloat_
$LN92@LoadFloat_:
  0017d	c6 45 ec ed	 mov	 BYTE PTR __k$[ebp+4], -19 ; ffffffedH
  00181	eb 16		 jmp	 SHORT $LN1@LoadFloat_
$LN93@LoadFloat_:
  00183	c6 45 eb ea	 mov	 BYTE PTR __k$[ebp+3], -22 ; ffffffeaH
  00187	eb 10		 jmp	 SHORT $LN1@LoadFloat_
$LN94@LoadFloat_:
  00189	c6 45 ea eb	 mov	 BYTE PTR __k$[ebp+2], -21 ; ffffffebH
  0018d	eb 0a		 jmp	 SHORT $LN1@LoadFloat_
$LN95@LoadFloat_:
  0018f	c6 45 e9 ec	 mov	 BYTE PTR __k$[ebp+1], -20 ; ffffffecH
  00193	eb 04		 jmp	 SHORT $LN1@LoadFloat_
$LN96@LoadFloat_:
  00195	c6 45 e8 ed	 mov	 BYTE PTR __k$[ebp], -19	; ffffffedH
$LN1@LoadFloat_:
  00199	6a 03		 push	 3
  0019b	8d 45 e8	 lea	 eax, DWORD PTR __k$[ebp]
  0019e	c6 45 f6 00	 mov	 BYTE PTR __k$[ebp+14], 0
  001a2	5a		 pop	 edx
$LL104@LoadFloat_:
  001a3	81 30 ed ec eb
	ea		 xor	 DWORD PTR [eax], -353637139 ; eaebecedH
  001a9	83 c0 04	 add	 eax, 4
  001ac	4a		 dec	 edx
  001ad	75 f4		 jne	 SHORT $LL104@LoadFloat_
  001af	6a 0c		 push	 12			; 0000000cH
  001b1	58		 pop	 eax
$LL101@LoadFloat_:
  001b2	8b c8		 mov	 ecx, eax
  001b4	81 e1 03 00 00
	80		 and	 ecx, -2147483645	; 80000003H
  001ba	79 05		 jns	 SHORT $LN111@LoadFloat_
  001bc	49		 dec	 ecx
  001bd	83 c9 fc	 or	 ecx, -4			; fffffffcH
  001c0	41		 inc	 ecx
$LN111@LoadFloat_:
  001c1	b2 ed		 mov	 dl, -19			; ffffffedH
  001c3	2a d1		 sub	 dl, cl
  001c5	30 54 05 e8	 xor	 BYTE PTR __k$[ebp+eax], dl
  001c9	40		 inc	 eax
  001ca	83 f8 0e	 cmp	 eax, 14			; 0000000eH
  001cd	7c e3		 jl	 SHORT $LL101@LoadFloat_

; 137  : 		return LoadFloat(_k, f);

  001cf	f3 0f 10 45 0c	 movss	 xmm0, DWORD PTR _f$[ebp]
  001d4	51		 push	 ecx
  001d5	8d 45 e8	 lea	 eax, DWORD PTR __k$[ebp]
  001d8	f3 0f 11 04 24	 movss	 DWORD PTR [esp], xmm0
  001dd	50		 push	 eax
  001de	8b ce		 mov	 ecx, esi
  001e0	ff 15 00 00 00
	00		 call	 DWORD PTR __imp_?LoadFloat@ioINILoader@@QAEMPBDM@Z

; 138  : 	}

  001e6	8b 4d fc	 mov	 ecx, DWORD PTR __$ArrayPad$[ebp]
  001e9	33 cd		 xor	 ecx, ebp
  001eb	5e		 pop	 esi
  001ec	e8 00 00 00 00	 call	 @__security_check_cookie@4
  001f1	c9		 leave
  001f2	c2 08 00	 ret	 8
??$LoadFloat_e@$0P@@ioINILoader@@QAEMAAY0P@$$CBDM@Z ENDP ; ioINILoader::LoadFloat_e<15>
_TEXT	ENDS
PUBLIC	__$ArrayPad$
PUBLIC	??$LoadInt_e@$0P@@ioINILoader@@QAEHAAY0P@$$CBDH@Z ; ioINILoader::LoadInt_e<15>
EXTRN	__imp_?LoadInt@ioINILoader@@QAEHPBDH@Z:PROC
; Function compile flags: /Ogsp
;	COMDAT ??$LoadInt_e@$0P@@ioINILoader@@QAEHAAY0P@$$CBDH@Z
_TEXT	SEGMENT
__k$ = -24						; size = 15
__$ArrayPad$ = -4					; size = 4
_k$ = 8							; size = 4
_i$ = 12						; size = 4
??$LoadInt_e@$0P@@ioINILoader@@QAEHAAY0P@$$CBDH@Z PROC	; ioINILoader::LoadInt_e<15>, COMDAT
; _this$ = ecx

; 118  : 	{

  00000	55		 push	 ebp
  00001	8b ec		 mov	 ebp, esp
  00003	83 ec 18	 sub	 esp, 24			; 00000018H
  00006	a1 00 00 00 00	 mov	 eax, DWORD PTR ___security_cookie
  0000b	33 c5		 xor	 eax, ebp
  0000d	89 45 fc	 mov	 DWORD PTR __$ArrayPad$[ebp], eax
  00010	8b 45 08	 mov	 eax, DWORD PTR _k$[ebp]

; 119  : 		_ENCSTR(k, _k);

  00013	8a 10		 mov	 dl, BYTE PTR [eax]
  00015	56		 push	 esi
  00016	8b f1		 mov	 esi, ecx
  00018	84 d2		 test	 dl, dl
  0001a	0f 84 75 01 00
	00		 je	 $LN96@LoadInt_e
  00020	80 f2 ed	 xor	 dl, -19			; ffffffedH
  00023	88 55 e8	 mov	 BYTE PTR __k$[ebp], dl
  00026	8a 50 01	 mov	 dl, BYTE PTR [eax+1]
  00029	84 d2		 test	 dl, dl
  0002b	0f 84 5e 01 00
	00		 je	 $LN95@LoadInt_e
  00031	b1 ec		 mov	 cl, -20			; ffffffecH
  00033	32 d1		 xor	 dl, cl
  00035	88 55 e9	 mov	 BYTE PTR __k$[ebp+1], dl
  00038	8a 50 02	 mov	 dl, BYTE PTR [eax+2]
  0003b	84 d2		 test	 dl, dl
  0003d	0f 84 46 01 00
	00		 je	 $LN94@LoadInt_e
  00043	80 f2 eb	 xor	 dl, -21			; ffffffebH
  00046	88 55 ea	 mov	 BYTE PTR __k$[ebp+2], dl
  00049	8a 50 03	 mov	 dl, BYTE PTR [eax+3]
  0004c	84 d2		 test	 dl, dl
  0004e	0f 84 2f 01 00
	00		 je	 $LN93@LoadInt_e
  00054	80 f2 ea	 xor	 dl, -22			; ffffffeaH
  00057	88 55 eb	 mov	 BYTE PTR __k$[ebp+3], dl
  0005a	8a 50 04	 mov	 dl, BYTE PTR [eax+4]
  0005d	84 d2		 test	 dl, dl
  0005f	0f 84 18 01 00
	00		 je	 $LN92@LoadInt_e
  00065	80 f2 ed	 xor	 dl, -19			; ffffffedH
  00068	88 55 ec	 mov	 BYTE PTR __k$[ebp+4], dl
  0006b	8a 50 05	 mov	 dl, BYTE PTR [eax+5]
  0006e	84 d2		 test	 dl, dl
  00070	0f 84 02 01 00
	00		 je	 $LN91@LoadInt_e
  00076	32 d1		 xor	 dl, cl
  00078	88 55 ed	 mov	 BYTE PTR __k$[ebp+5], dl
  0007b	8a 50 06	 mov	 dl, BYTE PTR [eax+6]
  0007e	84 d2		 test	 dl, dl
  00080	0f 84 ec 00 00
	00		 je	 $LN90@LoadInt_e
  00086	80 f2 eb	 xor	 dl, -21			; ffffffebH
  00089	88 55 ee	 mov	 BYTE PTR __k$[ebp+6], dl
  0008c	8a 50 07	 mov	 dl, BYTE PTR [eax+7]
  0008f	84 d2		 test	 dl, dl
  00091	0f 84 d5 00 00
	00		 je	 $LN89@LoadInt_e
  00097	80 f2 ea	 xor	 dl, -22			; ffffffeaH
  0009a	88 55 ef	 mov	 BYTE PTR __k$[ebp+7], dl
  0009d	8a 50 08	 mov	 dl, BYTE PTR [eax+8]
  000a0	84 d2		 test	 dl, dl
  000a2	0f 84 be 00 00
	00		 je	 $LN88@LoadInt_e
  000a8	80 f2 ed	 xor	 dl, -19			; ffffffedH
  000ab	88 55 f0	 mov	 BYTE PTR __k$[ebp+8], dl
  000ae	8a 50 09	 mov	 dl, BYTE PTR [eax+9]
  000b1	84 d2		 test	 dl, dl
  000b3	0f 84 a8 00 00
	00		 je	 $LN87@LoadInt_e
  000b9	32 d1		 xor	 dl, cl
  000bb	88 55 f1	 mov	 BYTE PTR __k$[ebp+9], dl
  000be	8a 50 0a	 mov	 dl, BYTE PTR [eax+10]
  000c1	84 d2		 test	 dl, dl
  000c3	0f 84 92 00 00
	00		 je	 $LN86@LoadInt_e
  000c9	80 f2 eb	 xor	 dl, -21			; ffffffebH
  000cc	88 55 f2	 mov	 BYTE PTR __k$[ebp+10], dl
  000cf	8a 50 0b	 mov	 dl, BYTE PTR [eax+11]
  000d2	84 d2		 test	 dl, dl
  000d4	74 7f		 je	 SHORT $LN85@LoadInt_e
  000d6	80 f2 ea	 xor	 dl, -22			; ffffffeaH
  000d9	88 55 f3	 mov	 BYTE PTR __k$[ebp+11], dl
  000dc	8a 50 0c	 mov	 dl, BYTE PTR [eax+12]
  000df	84 d2		 test	 dl, dl
  000e1	74 6c		 je	 SHORT $LN84@LoadInt_e
  000e3	80 f2 ed	 xor	 dl, -19			; ffffffedH
  000e6	88 55 f4	 mov	 BYTE PTR __k$[ebp+12], dl
  000e9	8a 50 0d	 mov	 dl, BYTE PTR [eax+13]
  000ec	84 d2		 test	 dl, dl
  000ee	74 5a		 je	 SHORT $LN83@LoadInt_e
  000f0	32 d1		 xor	 dl, cl
  000f2	80 78 0e 00	 cmp	 BYTE PTR [eax+14], 0
  000f6	88 55 f5	 mov	 BYTE PTR __k$[ebp+13], dl
  000f9	0f 84 9a 00 00
	00		 je	 $LN1@LoadInt_e
  000ff	8a 50 0f	 mov	 dl, BYTE PTR [eax+15]
  00102	84 d2		 test	 dl, dl
  00104	74 3e		 je	 SHORT $LN81@LoadInt_e
  00106	80 f2 ea	 xor	 dl, -22			; ffffffeaH
  00109	88 55 f7	 mov	 BYTE PTR __k$[ebp+15], dl
  0010c	8a 50 10	 mov	 dl, BYTE PTR [eax+16]
  0010f	84 d2		 test	 dl, dl
  00111	74 2b		 je	 SHORT $LN80@LoadInt_e
  00113	80 f2 ed	 xor	 dl, -19			; ffffffedH
  00116	88 55 f8	 mov	 BYTE PTR __k$[ebp+16], dl
  00119	8a 50 11	 mov	 dl, BYTE PTR [eax+17]
  0011c	84 d2		 test	 dl, dl
  0011e	74 19		 je	 SHORT $LN79@LoadInt_e
  00120	8a 40 12	 mov	 al, BYTE PTR [eax+18]
  00123	32 d1		 xor	 dl, cl
  00125	88 55 f9	 mov	 BYTE PTR __k$[ebp+17], dl
  00128	84 c0		 test	 al, al
  0012a	74 07		 je	 SHORT $LN78@LoadInt_e
  0012c	34 eb		 xor	 al, -21			; ffffffebH
  0012e	88 45 fa	 mov	 BYTE PTR __k$[ebp+18], al
  00131	eb 66		 jmp	 SHORT $LN1@LoadInt_e
$LN78@LoadInt_e:
  00133	c6 45 fa eb	 mov	 BYTE PTR __k$[ebp+18], -21 ; ffffffebH
  00137	eb 60		 jmp	 SHORT $LN1@LoadInt_e
$LN79@LoadInt_e:
  00139	88 4d f9	 mov	 BYTE PTR __k$[ebp+17], cl
  0013c	eb 5b		 jmp	 SHORT $LN1@LoadInt_e
$LN80@LoadInt_e:
  0013e	c6 45 f8 ed	 mov	 BYTE PTR __k$[ebp+16], -19 ; ffffffedH
  00142	eb 55		 jmp	 SHORT $LN1@LoadInt_e
$LN81@LoadInt_e:
  00144	c6 45 f7 ea	 mov	 BYTE PTR __k$[ebp+15], -22 ; ffffffeaH
  00148	eb 4f		 jmp	 SHORT $LN1@LoadInt_e
$LN83@LoadInt_e:
  0014a	88 4d f5	 mov	 BYTE PTR __k$[ebp+13], cl
  0014d	eb 4a		 jmp	 SHORT $LN1@LoadInt_e
$LN84@LoadInt_e:
  0014f	c6 45 f4 ed	 mov	 BYTE PTR __k$[ebp+12], -19 ; ffffffedH
  00153	eb 44		 jmp	 SHORT $LN1@LoadInt_e
$LN85@LoadInt_e:
  00155	c6 45 f3 ea	 mov	 BYTE PTR __k$[ebp+11], -22 ; ffffffeaH
  00159	eb 3e		 jmp	 SHORT $LN1@LoadInt_e
$LN86@LoadInt_e:
  0015b	c6 45 f2 eb	 mov	 BYTE PTR __k$[ebp+10], -21 ; ffffffebH
  0015f	eb 38		 jmp	 SHORT $LN1@LoadInt_e
$LN87@LoadInt_e:
  00161	88 4d f1	 mov	 BYTE PTR __k$[ebp+9], cl
  00164	eb 33		 jmp	 SHORT $LN1@LoadInt_e
$LN88@LoadInt_e:
  00166	c6 45 f0 ed	 mov	 BYTE PTR __k$[ebp+8], -19 ; ffffffedH
  0016a	eb 2d		 jmp	 SHORT $LN1@LoadInt_e
$LN89@LoadInt_e:
  0016c	c6 45 ef ea	 mov	 BYTE PTR __k$[ebp+7], -22 ; ffffffeaH
  00170	eb 27		 jmp	 SHORT $LN1@LoadInt_e
$LN90@LoadInt_e:
  00172	c6 45 ee eb	 mov	 BYTE PTR __k$[ebp+6], -21 ; ffffffebH
  00176	eb 21		 jmp	 SHORT $LN1@LoadInt_e
$LN91@LoadInt_e:
  00178	88 4d ed	 mov	 BYTE PTR __k$[ebp+5], cl
  0017b	eb 1c		 jmp	 SHORT $LN1@LoadInt_e
$LN92@LoadInt_e:
  0017d	c6 45 ec ed	 mov	 BYTE PTR __k$[ebp+4], -19 ; ffffffedH
  00181	eb 16		 jmp	 SHORT $LN1@LoadInt_e
$LN93@LoadInt_e:
  00183	c6 45 eb ea	 mov	 BYTE PTR __k$[ebp+3], -22 ; ffffffeaH
  00187	eb 10		 jmp	 SHORT $LN1@LoadInt_e
$LN94@LoadInt_e:
  00189	c6 45 ea eb	 mov	 BYTE PTR __k$[ebp+2], -21 ; ffffffebH
  0018d	eb 0a		 jmp	 SHORT $LN1@LoadInt_e
$LN95@LoadInt_e:
  0018f	c6 45 e9 ec	 mov	 BYTE PTR __k$[ebp+1], -20 ; ffffffecH
  00193	eb 04		 jmp	 SHORT $LN1@LoadInt_e
$LN96@LoadInt_e:
  00195	c6 45 e8 ed	 mov	 BYTE PTR __k$[ebp], -19	; ffffffedH
$LN1@LoadInt_e:
  00199	6a 03		 push	 3
  0019b	8d 45 e8	 lea	 eax, DWORD PTR __k$[ebp]
  0019e	c6 45 f6 00	 mov	 BYTE PTR __k$[ebp+14], 0
  001a2	5a		 pop	 edx
$LL104@LoadInt_e:
  001a3	81 30 ed ec eb
	ea		 xor	 DWORD PTR [eax], -353637139 ; eaebecedH
  001a9	83 c0 04	 add	 eax, 4
  001ac	4a		 dec	 edx
  001ad	75 f4		 jne	 SHORT $LL104@LoadInt_e
  001af	6a 0c		 push	 12			; 0000000cH
  001b1	58		 pop	 eax
$LL101@LoadInt_e:
  001b2	8b c8		 mov	 ecx, eax
  001b4	81 e1 03 00 00
	80		 and	 ecx, -2147483645	; 80000003H
  001ba	79 05		 jns	 SHORT $LN111@LoadInt_e
  001bc	49		 dec	 ecx
  001bd	83 c9 fc	 or	 ecx, -4			; fffffffcH
  001c0	41		 inc	 ecx
$LN111@LoadInt_e:
  001c1	b2 ed		 mov	 dl, -19			; ffffffedH
  001c3	2a d1		 sub	 dl, cl
  001c5	30 54 05 e8	 xor	 BYTE PTR __k$[ebp+eax], dl
  001c9	40		 inc	 eax
  001ca	83 f8 0e	 cmp	 eax, 14			; 0000000eH
  001cd	7c e3		 jl	 SHORT $LL101@LoadInt_e

; 120  : 		return LoadInt(_k, i);

  001cf	ff 75 0c	 push	 DWORD PTR _i$[ebp]
  001d2	8d 45 e8	 lea	 eax, DWORD PTR __k$[ebp]
  001d5	50		 push	 eax
  001d6	8b ce		 mov	 ecx, esi
  001d8	ff 15 00 00 00
	00		 call	 DWORD PTR __imp_?LoadInt@ioINILoader@@QAEHPBDH@Z

; 121  : 	}

  001de	8b 4d fc	 mov	 ecx, DWORD PTR __$ArrayPad$[ebp]
  001e1	33 cd		 xor	 ecx, ebp
  001e3	5e		 pop	 esi
  001e4	e8 00 00 00 00	 call	 @__security_check_cookie@4
  001e9	c9		 leave
  001ea	c2 08 00	 ret	 8
??$LoadInt_e@$0P@@ioINILoader@@QAEHAAY0P@$$CBDH@Z ENDP	; ioINILoader::LoadInt_e<15>
_TEXT	ENDS
PUBLIC	??$_Cons_val@V?$allocator@UChangeDirInfo@@@std@@UChangeDirInfo@@AAU3@@std@@YAXAAV?$allocator@UChangeDirInfo@@@0@PAUChangeDirInfo@@AAU2@@Z ; std::_Cons_val<std::allocator<ChangeDirInfo>,ChangeDirInfo,ChangeDirInfo &>
; Function compile flags: /Ogsp
; File c:\program files (x86)\microsoft visual studio 10.0\vc\include\xmemory
;	COMDAT ??$_Cons_val@V?$allocator@UChangeDirInfo@@@std@@UChangeDirInfo@@AAU3@@std@@YAXAAV?$allocator@UChangeDirInfo@@@0@PAUChangeDirInfo@@AAU2@@Z
_TEXT	SEGMENT
__Alval$ = 8						; size = 4
__Pdest$ = 12						; size = 4
__Src$ = 16						; size = 4
??$_Cons_val@V?$allocator@UChangeDirInfo@@@std@@UChangeDirInfo@@AAU3@@std@@YAXAAV?$allocator@UChangeDirInfo@@@0@PAUChangeDirInfo@@AAU2@@Z PROC ; std::_Cons_val<std::allocator<ChangeDirInfo>,ChangeDirInfo,ChangeDirInfo &>, COMDAT

; 279  : 	{	// construct using allocator

  00000	55		 push	 ebp
  00001	8b ec		 mov	 ebp, esp
  00003	57		 push	 edi

; 280  : 	_Alval.construct(_Pdest, _STD forward<_Ty2>(_Src));

  00004	8b 7d 0c	 mov	 edi, DWORD PTR __Pdest$[ebp]
  00007	85 ff		 test	 edi, edi
  00009	74 0a		 je	 SHORT $LN7@Cons_val
  0000b	56		 push	 esi
  0000c	8b 75 10	 mov	 esi, DWORD PTR __Src$[ebp]
  0000f	6a 07		 push	 7
  00011	59		 pop	 ecx
  00012	f3 a5		 rep movsd
  00014	5e		 pop	 esi
$LN7@Cons_val:
  00015	5f		 pop	 edi

; 281  : 	}

  00016	5d		 pop	 ebp
  00017	c3		 ret	 0
??$_Cons_val@V?$allocator@UChangeDirInfo@@@std@@UChangeDirInfo@@AAU3@@std@@YAXAAV?$allocator@UChangeDirInfo@@@0@PAUChangeDirInfo@@AAU2@@Z ENDP ; std::_Cons_val<std::allocator<ChangeDirInfo>,ChangeDirInfo,ChangeDirInfo &>
_TEXT	ENDS
PUBLIC	??$_Cons_val@V?$allocator@USecondAttribute@@@std@@USecondAttribute@@AAU3@@std@@YAXAAV?$allocator@USecondAttribute@@@0@PAUSecondAttribute@@AAU2@@Z ; std::_Cons_val<std::allocator<SecondAttribute>,SecondAttribute,SecondAttribute &>
; Function compile flags: /Ogsp
;	COMDAT ??$_Cons_val@V?$allocator@USecondAttribute@@@std@@USecondAttribute@@AAU3@@std@@YAXAAV?$allocator@USecondAttribute@@@0@PAUSecondAttribute@@AAU2@@Z
_TEXT	SEGMENT
__Alval$ = 8						; size = 4
__Pdest$ = 12						; size = 4
__Src$ = 16						; size = 4
??$_Cons_val@V?$allocator@USecondAttribute@@@std@@USecondAttribute@@AAU3@@std@@YAXAAV?$allocator@USecondAttribute@@@0@PAUSecondAttribute@@AAU2@@Z PROC ; std::_Cons_val<std::allocator<SecondAttribute>,SecondAttribute,SecondAttribute &>, COMDAT

; 279  : 	{	// construct using allocator

  00000	55		 push	 ebp
  00001	8b ec		 mov	 ebp, esp

; 280  : 	_Alval.construct(_Pdest, _STD forward<_Ty2>(_Src));

  00003	8b 45 0c	 mov	 eax, DWORD PTR __Pdest$[ebp]
  00006	85 c0		 test	 eax, eax
  00008	74 0d		 je	 SHORT $LN7@Cons_val@2
  0000a	8b 4d 10	 mov	 ecx, DWORD PTR __Src$[ebp]
  0000d	8b 11		 mov	 edx, DWORD PTR [ecx]
  0000f	89 10		 mov	 DWORD PTR [eax], edx
  00011	8b 49 04	 mov	 ecx, DWORD PTR [ecx+4]
  00014	89 48 04	 mov	 DWORD PTR [eax+4], ecx
$LN7@Cons_val@2:

; 281  : 	}

  00017	5d		 pop	 ebp
  00018	c3		 ret	 0
??$_Cons_val@V?$allocator@USecondAttribute@@@std@@USecondAttribute@@AAU3@@std@@YAXAAV?$allocator@USecondAttribute@@@0@PAUSecondAttribute@@AAU2@@Z ENDP ; std::_Cons_val<std::allocator<SecondAttribute>,SecondAttribute,SecondAttribute &>
_TEXT	ENDS
PUBLIC	?construct@?$allocator@UChangeDirInfo@@@std@@QAEXPAUChangeDirInfo@@ABU3@@Z ; std::allocator<ChangeDirInfo>::construct
; Function compile flags: /Ogsp
;	COMDAT ?construct@?$allocator@UChangeDirInfo@@@std@@QAEXPAUChangeDirInfo@@ABU3@@Z
_TEXT	SEGMENT
__Ptr$ = 8						; size = 4
__Val$ = 12						; size = 4
?construct@?$allocator@UChangeDirInfo@@@std@@QAEXPAUChangeDirInfo@@ABU3@@Z PROC ; std::allocator<ChangeDirInfo>::construct, COMDAT
; _this$ = ecx

; 196  : 		{	// construct object at _Ptr with value _Val

  00000	55		 push	 ebp
  00001	8b ec		 mov	 ebp, esp
  00003	57		 push	 edi

; 197  : 		_Construct(_Ptr, _Val);

  00004	8b 7d 08	 mov	 edi, DWORD PTR __Ptr$[ebp]
  00007	85 ff		 test	 edi, edi
  00009	74 0a		 je	 SHORT $LN5@construct@3
  0000b	56		 push	 esi
  0000c	8b 75 0c	 mov	 esi, DWORD PTR __Val$[ebp]
  0000f	6a 07		 push	 7
  00011	59		 pop	 ecx
  00012	f3 a5		 rep movsd
  00014	5e		 pop	 esi
$LN5@construct@3:
  00015	5f		 pop	 edi

; 198  : 		}

  00016	5d		 pop	 ebp
  00017	c2 08 00	 ret	 8
?construct@?$allocator@UChangeDirInfo@@@std@@QAEXPAUChangeDirInfo@@ABU3@@Z ENDP ; std::allocator<ChangeDirInfo>::construct
_TEXT	ENDS
PUBLIC	?construct@?$allocator@USecondAttribute@@@std@@QAEXPAUSecondAttribute@@ABU3@@Z ; std::allocator<SecondAttribute>::construct
; Function compile flags: /Ogsp
;	COMDAT ?construct@?$allocator@USecondAttribute@@@std@@QAEXPAUSecondAttribute@@ABU3@@Z
_TEXT	SEGMENT
__Ptr$ = 8						; size = 4
__Val$ = 12						; size = 4
?construct@?$allocator@USecondAttribute@@@std@@QAEXPAUSecondAttribute@@ABU3@@Z PROC ; std::allocator<SecondAttribute>::construct, COMDAT
; _this$ = ecx

; 196  : 		{	// construct object at _Ptr with value _Val

  00000	55		 push	 ebp
  00001	8b ec		 mov	 ebp, esp

; 197  : 		_Construct(_Ptr, _Val);

  00003	8b 45 08	 mov	 eax, DWORD PTR __Ptr$[ebp]
  00006	85 c0		 test	 eax, eax
  00008	74 0d		 je	 SHORT $LN5@construct@4
  0000a	8b 4d 0c	 mov	 ecx, DWORD PTR __Val$[ebp]
  0000d	8b 11		 mov	 edx, DWORD PTR [ecx]
  0000f	89 10		 mov	 DWORD PTR [eax], edx
  00011	8b 49 04	 mov	 ecx, DWORD PTR [ecx+4]
  00014	89 48 04	 mov	 DWORD PTR [eax+4], ecx
$LN5@construct@4:

; 198  : 		}

  00017	5d		 pop	 ebp
  00018	c2 08 00	 ret	 8
?construct@?$allocator@USecondAttribute@@@std@@QAEXPAUSecondAttribute@@ABU3@@Z ENDP ; std::allocator<SecondAttribute>::construct
_TEXT	ENDS
PUBLIC	??G?$_Vector_iterator@V?$_Vector_val@UChangeDirInfo@@V?$allocator@UChangeDirInfo@@@std@@@std@@@std@@QBEHABV?$_Vector_const_iterator@V?$_Vector_val@UChangeDirInfo@@V?$allocator@UChangeDirInfo@@@std@@@std@@@1@@Z ; std::_Vector_iterator<std::_Vector_val<ChangeDirInfo,std::allocator<ChangeDirInfo> > >::operator-
; Function compile flags: /Ogsp
; File c:\program files (x86)\microsoft visual studio 10.0\vc\include\vector
;	COMDAT ??G?$_Vector_iterator@V?$_Vector_val@UChangeDirInfo@@V?$allocator@UChangeDirInfo@@@std@@@std@@@std@@QBEHABV?$_Vector_const_iterator@V?$_Vector_val@UChangeDirInfo@@V?$allocator@UChangeDirInfo@@@std@@@std@@@1@@Z
_TEXT	SEGMENT
__Right$ = 8						; size = 4
??G?$_Vector_iterator@V?$_Vector_val@UChangeDirInfo@@V?$allocator@UChangeDirInfo@@@std@@@std@@@std@@QBEHABV?$_Vector_const_iterator@V?$_Vector_val@UChangeDirInfo@@V?$allocator@UChangeDirInfo@@@std@@@std@@@1@@Z PROC ; std::_Vector_iterator<std::_Vector_val<ChangeDirInfo,std::allocator<ChangeDirInfo> > >::operator-, COMDAT
; _this$ = ecx

; 380  : 		{	// return difference of iterators

  00000	55		 push	 ebp
  00001	8b ec		 mov	 ebp, esp

; 381  : 		return (*(_Mybase *)this - _Right);

  00003	8b 01		 mov	 eax, DWORD PTR [ecx]
  00005	8b 4d 08	 mov	 ecx, DWORD PTR __Right$[ebp]
  00008	2b 01		 sub	 eax, DWORD PTR [ecx]
  0000a	6a 1c		 push	 28			; 0000001cH
  0000c	99		 cdq
  0000d	59		 pop	 ecx
  0000e	f7 f9		 idiv	 ecx

; 382  : 		}

  00010	5d		 pop	 ebp
  00011	c2 04 00	 ret	 4
??G?$_Vector_iterator@V?$_Vector_val@UChangeDirInfo@@V?$allocator@UChangeDirInfo@@@std@@@std@@@std@@QBEHABV?$_Vector_const_iterator@V?$_Vector_val@UChangeDirInfo@@V?$allocator@UChangeDirInfo@@@std@@@std@@@1@@Z ENDP ; std::_Vector_iterator<std::_Vector_val<ChangeDirInfo,std::allocator<ChangeDirInfo> > >::operator-
_TEXT	ENDS
PUBLIC	??$_Unchecked@V?$_Vector_val@UChangeDirInfo@@V?$allocator@UChangeDirInfo@@@std@@@std@@@std@@YAPAUChangeDirInfo@@V?$_Vector_iterator@V?$_Vector_val@UChangeDirInfo@@V?$allocator@UChangeDirInfo@@@std@@@std@@@0@@Z ; std::_Unchecked<std::_Vector_val<ChangeDirInfo,std::allocator<ChangeDirInfo> > >
; Function compile flags: /Ogsp
;	COMDAT ??$_Unchecked@V?$_Vector_val@UChangeDirInfo@@V?$allocator@UChangeDirInfo@@@std@@@std@@@std@@YAPAUChangeDirInfo@@V?$_Vector_iterator@V?$_Vector_val@UChangeDirInfo@@V?$allocator@UChangeDirInfo@@@std@@@std@@@0@@Z
_TEXT	SEGMENT
__Iter$ = 8						; size = 4
??$_Unchecked@V?$_Vector_val@UChangeDirInfo@@V?$allocator@UChangeDirInfo@@@std@@@std@@@std@@YAPAUChangeDirInfo@@V?$_Vector_iterator@V?$_Vector_val@UChangeDirInfo@@V?$allocator@UChangeDirInfo@@@std@@@std@@@0@@Z PROC ; std::_Unchecked<std::_Vector_val<ChangeDirInfo,std::allocator<ChangeDirInfo> > >, COMDAT

; 393  : 	{	// convert to unchecked

  00000	55		 push	 ebp
  00001	8b ec		 mov	 ebp, esp

; 394  : 	return (_Iter._Unchecked());

  00003	8b 45 08	 mov	 eax, DWORD PTR __Iter$[ebp]

; 395  : 	}

  00006	5d		 pop	 ebp
  00007	c3		 ret	 0
??$_Unchecked@V?$_Vector_val@UChangeDirInfo@@V?$allocator@UChangeDirInfo@@@std@@@std@@@std@@YAPAUChangeDirInfo@@V?$_Vector_iterator@V?$_Vector_val@UChangeDirInfo@@V?$allocator@UChangeDirInfo@@@std@@@std@@@0@@Z ENDP ; std::_Unchecked<std::_Vector_val<ChangeDirInfo,std::allocator<ChangeDirInfo> > >
_TEXT	ENDS
PUBLIC	??$_Move@PAUChangeDirInfo@@PAU1@@std@@YAPAUChangeDirInfo@@PAU1@00U_Nonscalar_ptr_iterator_tag@0@@Z ; std::_Move<ChangeDirInfo *,ChangeDirInfo *>
; Function compile flags: /Ogsp
; File c:\program files (x86)\microsoft visual studio 10.0\vc\include\xutility
;	COMDAT ??$_Move@PAUChangeDirInfo@@PAU1@@std@@YAPAUChangeDirInfo@@PAU1@00U_Nonscalar_ptr_iterator_tag@0@@Z
_TEXT	SEGMENT
__First$ = 8						; size = 4
__Last$ = 12						; size = 4
__Dest$ = 16						; size = 4
___formal$ = 20						; size = 1
??$_Move@PAUChangeDirInfo@@PAU1@@std@@YAPAUChangeDirInfo@@PAU1@00U_Nonscalar_ptr_iterator_tag@0@@Z PROC ; std::_Move<ChangeDirInfo *,ChangeDirInfo *>, COMDAT

; 2512 : 	{	// move [_First, _Last) to [_Dest, ...), arbitrary iterators

  00000	55		 push	 ebp
  00001	8b ec		 mov	 ebp, esp

; 2513 : 	for (; _First != _Last; ++_Dest, ++_First)

  00003	8b 45 08	 mov	 eax, DWORD PTR __First$[ebp]
  00006	3b 45 0c	 cmp	 eax, DWORD PTR __Last$[ebp]
  00009	74 1a		 je	 SHORT $LN10@Move
  0000b	56		 push	 esi
  0000c	57		 push	 edi
$LL3@Move:

; 2514 : 		*_Dest = _STD move(*_First);

  0000d	8b 7d 10	 mov	 edi, DWORD PTR __Dest$[ebp]
  00010	83 45 10 1c	 add	 DWORD PTR __Dest$[ebp], 28 ; 0000001cH
  00014	8b f0		 mov	 esi, eax
  00016	6a 07		 push	 7
  00018	83 c0 1c	 add	 eax, 28			; 0000001cH
  0001b	59		 pop	 ecx
  0001c	f3 a5		 rep movsd
  0001e	3b 45 0c	 cmp	 eax, DWORD PTR __Last$[ebp]
  00021	75 ea		 jne	 SHORT $LL3@Move
  00023	5f		 pop	 edi
  00024	5e		 pop	 esi
$LN10@Move:

; 2515 : 	return (_Dest);

  00025	8b 45 10	 mov	 eax, DWORD PTR __Dest$[ebp]

; 2516 : 	}

  00028	5d		 pop	 ebp
  00029	c3		 ret	 0
??$_Move@PAUChangeDirInfo@@PAU1@@std@@YAPAUChangeDirInfo@@PAU1@00U_Nonscalar_ptr_iterator_tag@0@@Z ENDP ; std::_Move<ChangeDirInfo *,ChangeDirInfo *>
_TEXT	ENDS
PUBLIC	??$_Move@PAUSecondAttribute@@PAU1@@std@@YAPAUSecondAttribute@@PAU1@00U_Nonscalar_ptr_iterator_tag@0@@Z ; std::_Move<SecondAttribute *,SecondAttribute *>
; Function compile flags: /Ogsp
;	COMDAT ??$_Move@PAUSecondAttribute@@PAU1@@std@@YAPAUSecondAttribute@@PAU1@00U_Nonscalar_ptr_iterator_tag@0@@Z
_TEXT	SEGMENT
__First$ = 8						; size = 4
__Last$ = 12						; size = 4
__Dest$ = 16						; size = 4
___formal$ = 20						; size = 1
??$_Move@PAUSecondAttribute@@PAU1@@std@@YAPAUSecondAttribute@@PAU1@00U_Nonscalar_ptr_iterator_tag@0@@Z PROC ; std::_Move<SecondAttribute *,SecondAttribute *>, COMDAT

; 2512 : 	{	// move [_First, _Last) to [_Dest, ...), arbitrary iterators

  00000	55		 push	 ebp
  00001	8b ec		 mov	 ebp, esp

; 2513 : 	for (; _First != _Last; ++_Dest, ++_First)

  00003	8b 4d 08	 mov	 ecx, DWORD PTR __First$[ebp]
  00006	8b 45 10	 mov	 eax, DWORD PTR __Dest$[ebp]
$LN11@Move@2:
  00009	3b 4d 0c	 cmp	 ecx, DWORD PTR __Last$[ebp]
  0000c	74 12		 je	 SHORT $LN1@Move@2

; 2514 : 		*_Dest = _STD move(*_First);

  0000e	8b 11		 mov	 edx, DWORD PTR [ecx]
  00010	89 10		 mov	 DWORD PTR [eax], edx
  00012	8b 51 04	 mov	 edx, DWORD PTR [ecx+4]
  00015	89 50 04	 mov	 DWORD PTR [eax+4], edx
  00018	83 c0 08	 add	 eax, 8
  0001b	83 c1 08	 add	 ecx, 8
  0001e	eb e9		 jmp	 SHORT $LN11@Move@2
$LN1@Move@2:

; 2515 : 	return (_Dest);
; 2516 : 	}

  00020	5d		 pop	 ebp
  00021	c3		 ret	 0
??$_Move@PAUSecondAttribute@@PAU1@@std@@YAPAUSecondAttribute@@PAU1@00U_Nonscalar_ptr_iterator_tag@0@@Z ENDP ; std::_Move<SecondAttribute *,SecondAttribute *>
_TEXT	ENDS
PUBLIC	?destroy@?$allocator@UChangeDirInfo@@@std@@QAEXPAUChangeDirInfo@@@Z ; std::allocator<ChangeDirInfo>::destroy
; Function compile flags: /Ogsp
; File c:\program files (x86)\microsoft visual studio 10.0\vc\include\xmemory
;	COMDAT ?destroy@?$allocator@UChangeDirInfo@@@std@@QAEXPAUChangeDirInfo@@@Z
_TEXT	SEGMENT
__Ptr$ = 8						; size = 4
?destroy@?$allocator@UChangeDirInfo@@@std@@QAEXPAUChangeDirInfo@@@Z PROC ; std::allocator<ChangeDirInfo>::destroy, COMDAT
; _this$ = ecx

; 213  : 		_Destroy(_Ptr);
; 214  : 		}

  00000	c2 04 00	 ret	 4
?destroy@?$allocator@UChangeDirInfo@@@std@@QAEXPAUChangeDirInfo@@@Z ENDP ; std::allocator<ChangeDirInfo>::destroy
_TEXT	ENDS
PUBLIC	?destroy@?$allocator@USecondAttribute@@@std@@QAEXPAUSecondAttribute@@@Z ; std::allocator<SecondAttribute>::destroy
; Function compile flags: /Ogsp
;	COMDAT ?destroy@?$allocator@USecondAttribute@@@std@@QAEXPAUSecondAttribute@@@Z
_TEXT	SEGMENT
__Ptr$ = 8						; size = 4
?destroy@?$allocator@USecondAttribute@@@std@@QAEXPAUSecondAttribute@@@Z PROC ; std::allocator<SecondAttribute>::destroy, COMDAT
; _this$ = ecx

; 213  : 		_Destroy(_Ptr);
; 214  : 		}

  00000	c2 04 00	 ret	 4
?destroy@?$allocator@USecondAttribute@@@std@@QAEXPAUSecondAttribute@@@Z ENDP ; std::allocator<SecondAttribute>::destroy
_TEXT	ENDS
PUBLIC	??$?0AAPAUChangeDirInfo@@AAPAU0@@?$pair@PAUChangeDirInfo@@PAU1@@std@@QAE@AAPAUChangeDirInfo@@0@Z ; std::pair<ChangeDirInfo *,ChangeDirInfo *>::pair<ChangeDirInfo *,ChangeDirInfo *><ChangeDirInfo * &,ChangeDirInfo * &>
; Function compile flags: /Ogsp
; File c:\program files (x86)\microsoft visual studio 10.0\vc\include\utility
;	COMDAT ??$?0AAPAUChangeDirInfo@@AAPAU0@@?$pair@PAUChangeDirInfo@@PAU1@@std@@QAE@AAPAUChangeDirInfo@@0@Z
_TEXT	SEGMENT
__Val1$ = 8						; size = 4
__Val2$ = 12						; size = 4
??$?0AAPAUChangeDirInfo@@AAPAU0@@?$pair@PAUChangeDirInfo@@PAU1@@std@@QAE@AAPAUChangeDirInfo@@0@Z PROC ; std::pair<ChangeDirInfo *,ChangeDirInfo *>::pair<ChangeDirInfo *,ChangeDirInfo *><ChangeDirInfo * &,ChangeDirInfo * &>, COMDAT
; _this$ = ecx

; 247  : 		{	// construct from moved values

  00000	55		 push	 ebp
  00001	8b ec		 mov	 ebp, esp
  00003	8b c1		 mov	 eax, ecx
  00005	8b 4d 08	 mov	 ecx, DWORD PTR __Val1$[ebp]
  00008	8b 09		 mov	 ecx, DWORD PTR [ecx]
  0000a	89 08		 mov	 DWORD PTR [eax], ecx
  0000c	8b 4d 0c	 mov	 ecx, DWORD PTR __Val2$[ebp]
  0000f	8b 09		 mov	 ecx, DWORD PTR [ecx]
  00011	89 48 04	 mov	 DWORD PTR [eax+4], ecx

; 248  : 		}

  00014	5d		 pop	 ebp
  00015	c2 08 00	 ret	 8
??$?0AAPAUChangeDirInfo@@AAPAU0@@?$pair@PAUChangeDirInfo@@PAU1@@std@@QAE@AAPAUChangeDirInfo@@0@Z ENDP ; std::pair<ChangeDirInfo *,ChangeDirInfo *>::pair<ChangeDirInfo *,ChangeDirInfo *><ChangeDirInfo * &,ChangeDirInfo * &>
_TEXT	ENDS
PUBLIC	?construct@?$allocator@UChangeDirInfo@@@std@@QAEXPAUChangeDirInfo@@$$QAU3@@Z ; std::allocator<ChangeDirInfo>::construct
; Function compile flags: /Ogsp
; File c:\program files (x86)\microsoft visual studio 10.0\vc\include\xmemory
;	COMDAT ?construct@?$allocator@UChangeDirInfo@@@std@@QAEXPAUChangeDirInfo@@$$QAU3@@Z
_TEXT	SEGMENT
__Ptr$ = 8						; size = 4
__Val$ = 12						; size = 4
?construct@?$allocator@UChangeDirInfo@@@std@@QAEXPAUChangeDirInfo@@$$QAU3@@Z PROC ; std::allocator<ChangeDirInfo>::construct, COMDAT
; _this$ = ecx

; 201  : 		{	// construct object at _Ptr with value _Val

  00000	55		 push	 ebp
  00001	8b ec		 mov	 ebp, esp
  00003	57		 push	 edi

; 202  : 		::new ((void _FARQ *)_Ptr) _Ty(_STD forward<_Ty>(_Val));

  00004	8b 7d 08	 mov	 edi, DWORD PTR __Ptr$[ebp]
  00007	85 ff		 test	 edi, edi
  00009	74 0a		 je	 SHORT $LN3@construct@5
  0000b	56		 push	 esi
  0000c	8b 75 0c	 mov	 esi, DWORD PTR __Val$[ebp]
  0000f	6a 07		 push	 7
  00011	59		 pop	 ecx
  00012	f3 a5		 rep movsd
  00014	5e		 pop	 esi
$LN3@construct@5:
  00015	5f		 pop	 edi

; 203  : 		}

  00016	5d		 pop	 ebp
  00017	c2 08 00	 ret	 8
?construct@?$allocator@UChangeDirInfo@@@std@@QAEXPAUChangeDirInfo@@$$QAU3@@Z ENDP ; std::allocator<ChangeDirInfo>::construct
_TEXT	ENDS
PUBLIC	?construct@?$allocator@USecondAttribute@@@std@@QAEXPAUSecondAttribute@@$$QAU3@@Z ; std::allocator<SecondAttribute>::construct
; Function compile flags: /Ogsp
;	COMDAT ?construct@?$allocator@USecondAttribute@@@std@@QAEXPAUSecondAttribute@@$$QAU3@@Z
_TEXT	SEGMENT
__Ptr$ = 8						; size = 4
__Val$ = 12						; size = 4
?construct@?$allocator@USecondAttribute@@@std@@QAEXPAUSecondAttribute@@$$QAU3@@Z PROC ; std::allocator<SecondAttribute>::construct, COMDAT
; _this$ = ecx

; 201  : 		{	// construct object at _Ptr with value _Val

  00000	55		 push	 ebp
  00001	8b ec		 mov	 ebp, esp

; 202  : 		::new ((void _FARQ *)_Ptr) _Ty(_STD forward<_Ty>(_Val));

  00003	8b 45 08	 mov	 eax, DWORD PTR __Ptr$[ebp]
  00006	85 c0		 test	 eax, eax
  00008	74 0d		 je	 SHORT $LN3@construct@6
  0000a	8b 4d 0c	 mov	 ecx, DWORD PTR __Val$[ebp]
  0000d	8b 11		 mov	 edx, DWORD PTR [ecx]
  0000f	89 10		 mov	 DWORD PTR [eax], edx
  00011	8b 49 04	 mov	 ecx, DWORD PTR [ecx+4]
  00014	89 48 04	 mov	 DWORD PTR [eax+4], ecx
$LN3@construct@6:

; 203  : 		}

  00017	5d		 pop	 ebp
  00018	c2 08 00	 ret	 8
?construct@?$allocator@USecondAttribute@@@std@@QAEXPAUSecondAttribute@@$$QAU3@@Z ENDP ; std::allocator<SecondAttribute>::construct
_TEXT	ENDS
PUBLIC	??$swap@UChangeDirInfo@@@std@@YAXAAUChangeDirInfo@@0@Z ; std::swap<ChangeDirInfo>
; Function compile flags: /Ogsp
; File c:\program files (x86)\microsoft visual studio 10.0\vc\include\utility
;	COMDAT ??$swap@UChangeDirInfo@@@std@@YAXAAUChangeDirInfo@@0@Z
_TEXT	SEGMENT
__Tmp$ = -28						; size = 28
__Left$ = 8						; size = 4
__Right$ = 12						; size = 4
??$swap@UChangeDirInfo@@@std@@YAXAAUChangeDirInfo@@0@Z PROC ; std::swap<ChangeDirInfo>, COMDAT

; 101  : 	{	// exchange values stored at _Left and _Right

  00000	55		 push	 ebp
  00001	8b ec		 mov	 ebp, esp
  00003	83 ec 1c	 sub	 esp, 28			; 0000001cH
  00006	56		 push	 esi

; 102  : 	_Ty _Tmp = _Move(_Left);

  00007	8b 75 08	 mov	 esi, DWORD PTR __Left$[ebp]
  0000a	57		 push	 edi
  0000b	6a 07		 push	 7
  0000d	59		 pop	 ecx

; 103  : 	_Left = _Move(_Right);

  0000e	6a 07		 push	 7
  00010	8d 7d e4	 lea	 edi, DWORD PTR __Tmp$[ebp]
  00013	f3 a5		 rep movsd
  00015	8b 75 0c	 mov	 esi, DWORD PTR __Right$[ebp]
  00018	8b 7d 08	 mov	 edi, DWORD PTR __Left$[ebp]
  0001b	59		 pop	 ecx
  0001c	f3 a5		 rep movsd

; 104  : 	_Right = _Move(_Tmp);

  0001e	8b 7d 0c	 mov	 edi, DWORD PTR __Right$[ebp]
  00021	6a 07		 push	 7
  00023	59		 pop	 ecx
  00024	8d 75 e4	 lea	 esi, DWORD PTR __Tmp$[ebp]
  00027	f3 a5		 rep movsd
  00029	5f		 pop	 edi
  0002a	5e		 pop	 esi

; 105  : 	}

  0002b	c9		 leave
  0002c	c3		 ret	 0
??$swap@UChangeDirInfo@@@std@@YAXAAUChangeDirInfo@@0@Z ENDP ; std::swap<ChangeDirInfo>
_TEXT	ENDS
PUBLIC	??$_Move_backward@PAUChangeDirInfo@@PAU1@@std@@YAPAUChangeDirInfo@@PAU1@00@Z ; std::_Move_backward<ChangeDirInfo *,ChangeDirInfo *>
; Function compile flags: /Ogsp
; File c:\program files (x86)\microsoft visual studio 10.0\vc\include\xutility
;	COMDAT ??$_Move_backward@PAUChangeDirInfo@@PAU1@@std@@YAPAUChangeDirInfo@@PAU1@00@Z
_TEXT	SEGMENT
__Cat$589161 = -4					; size = 1
__First$ = 8						; size = 4
__Last$ = 12						; size = 4
__Dest$ = 16						; size = 4
??$_Move_backward@PAUChangeDirInfo@@PAU1@@std@@YAPAUChangeDirInfo@@PAU1@00@Z PROC ; std::_Move_backward<ChangeDirInfo *,ChangeDirInfo *>, COMDAT

; 2638 : 	{	// move [_First, _Last) backwards to [..., _Dest), unchecked

  00000	55		 push	 ebp
  00001	8b ec		 mov	 ebp, esp
  00003	51		 push	 ecx

; 2639 : 	return (_Move_backward(_First, _Last,
; 2640 : 		_Dest, _Ptr_cat(_First, _Dest)));

  00004	ff 75 fc	 push	 DWORD PTR __Cat$589161[ebp]
  00007	ff 75 10	 push	 DWORD PTR __Dest$[ebp]
  0000a	ff 75 0c	 push	 DWORD PTR __Last$[ebp]
  0000d	ff 75 08	 push	 DWORD PTR __First$[ebp]
  00010	e8 00 00 00 00	 call	 ??$_Move_backward@PAUChangeDirInfo@@PAU1@@std@@YAPAUChangeDirInfo@@PAU1@00U_Nonscalar_ptr_iterator_tag@0@@Z ; std::_Move_backward<ChangeDirInfo *,ChangeDirInfo *>
  00015	83 c4 10	 add	 esp, 16			; 00000010H

; 2641 : 	}

  00018	c9		 leave
  00019	c3		 ret	 0
??$_Move_backward@PAUChangeDirInfo@@PAU1@@std@@YAPAUChangeDirInfo@@PAU1@00@Z ENDP ; std::_Move_backward<ChangeDirInfo *,ChangeDirInfo *>
_TEXT	ENDS
PUBLIC	??$_Push_heap@PAUChangeDirInfo@@HU1@VChangeDirSort@@@std@@YAXPAUChangeDirInfo@@HH$$QAU1@VChangeDirSort@@@Z ; std::_Push_heap<ChangeDirInfo *,int,ChangeDirInfo,ChangeDirSort>
; Function compile flags: /Ogsp
; File c:\program files (x86)\microsoft visual studio 10.0\vc\include\algorithm
;	COMDAT ??$_Push_heap@PAUChangeDirInfo@@HU1@VChangeDirSort@@@std@@YAXPAUChangeDirInfo@@HH$$QAU1@VChangeDirSort@@@Z
_TEXT	SEGMENT
__First$ = 8						; size = 4
__Hole$ = 12						; size = 4
__Top$ = 16						; size = 4
__Val$ = 20						; size = 4
__Pred$ = 24						; size = 1
??$_Push_heap@PAUChangeDirInfo@@HU1@VChangeDirSort@@@std@@YAXPAUChangeDirInfo@@HH$$QAU1@VChangeDirSort@@@Z PROC ; std::_Push_heap<ChangeDirInfo *,int,ChangeDirInfo,ChangeDirSort>, COMDAT

; 2455 : 	{	// percolate _Hole to _Top or where _Val belongs, using operator<

  00000	55		 push	 ebp
  00001	8b ec		 mov	 ebp, esp
  00003	53		 push	 ebx

; 2456 : 	for (_Diff _Idx = (_Hole - 1) / 2;
; 2457 : 		_Top < _Hole && _DEBUG_LT_PRED(_Pred, *(_First + _Idx), _Val);
; 2458 : 		_Idx = (_Hole - 1) / 2)

  00004	8b 5d 08	 mov	 ebx, DWORD PTR __First$[ebp]
  00007	56		 push	 esi
  00008	57		 push	 edi
  00009	8b 7d 0c	 mov	 edi, DWORD PTR __Hole$[ebp]
  0000c	8d 47 ff	 lea	 eax, DWORD PTR [edi-1]
  0000f	99		 cdq
  00010	2b c2		 sub	 eax, edx
  00012	8b d0		 mov	 edx, eax
  00014	d1 fa		 sar	 edx, 1
  00016	eb 5a		 jmp	 SHORT $LN19@Push_heap
$LL3@Push_heap:
  00018	8b 4d 14	 mov	 ecx, DWORD PTR __Val$[ebp]
  0001b	f3 0f 10 09	 movss	 xmm1, DWORD PTR [ecx]
  0001f	8b f2		 mov	 esi, edx
  00021	6b f6 1c	 imul	 esi, 28			; 0000001cH
  00024	03 f3		 add	 esi, ebx
  00026	f3 0f 10 06	 movss	 xmm0, DWORD PTR [esi]
  0002a	0f 5a d0	 cvtps2pd xmm2, xmm0
  0002d	0f 5a d9	 cvtps2pd xmm3, xmm1
  00030	66 0f 2f da	 comisd	 xmm3, xmm2
  00034	77 26		 ja	 SHORT $LN18@Push_heap
  00036	0f 5a c0	 cvtps2pd xmm0, xmm0
  00039	0f 5a c9	 cvtps2pd xmm1, xmm1
  0003c	66 0f 2e c1	 ucomisd xmm0, xmm1
  00040	9f		 lahf
  00041	f6 c4 44	 test	 ah, 68			; 00000044H
  00044	7a 31		 jp	 SHORT $LN6@Push_heap
  00046	f3 0f 10 46 0c	 movss	 xmm0, DWORD PTR [esi+12]
  0004b	f3 0f 10 49 0c	 movss	 xmm1, DWORD PTR [ecx+12]
  00050	0f 5a c0	 cvtps2pd xmm0, xmm0
  00053	0f 5a c9	 cvtps2pd xmm1, xmm1
  00056	66 0f 2f c8	 comisd	 xmm1, xmm0
  0005a	76 1b		 jbe	 SHORT $LN6@Push_heap
$LN18@Push_heap:

; 2459 : 		{	// move _Hole up to parent
; 2460 : 		*(_First + _Hole) = _Move(*(_First + _Idx));

  0005c	6b ff 1c	 imul	 edi, 28			; 0000001cH
  0005f	03 fb		 add	 edi, ebx
  00061	6a 07		 push	 7
  00063	59		 pop	 ecx
  00064	8d 42 ff	 lea	 eax, DWORD PTR [edx-1]
  00067	f3 a5		 rep movsd

; 2461 : 		_Hole = _Idx;

  00069	8b fa		 mov	 edi, edx
  0006b	99		 cdq
  0006c	2b c2		 sub	 eax, edx
  0006e	d1 f8		 sar	 eax, 1
  00070	8b d0		 mov	 edx, eax
$LN19@Push_heap:

; 2456 : 	for (_Diff _Idx = (_Hole - 1) / 2;
; 2457 : 		_Top < _Hole && _DEBUG_LT_PRED(_Pred, *(_First + _Idx), _Val);
; 2458 : 		_Idx = (_Hole - 1) / 2)

  00072	39 7d 10	 cmp	 DWORD PTR __Top$[ebp], edi
  00075	7c a1		 jl	 SHORT $LL3@Push_heap
$LN6@Push_heap:

; 2462 : 		}
; 2463 : 
; 2464 : 	*(_First + _Hole) = _Move(_Val);	// drop _Val into final hole

  00077	8b 75 14	 mov	 esi, DWORD PTR __Val$[ebp]
  0007a	6b ff 1c	 imul	 edi, 28			; 0000001cH
  0007d	6a 07		 push	 7
  0007f	59		 pop	 ecx
  00080	03 fb		 add	 edi, ebx
  00082	f3 a5		 rep movsd
  00084	5f		 pop	 edi
  00085	5e		 pop	 esi
  00086	5b		 pop	 ebx

; 2465 : 	}

  00087	5d		 pop	 ebp
  00088	c3		 ret	 0
??$_Push_heap@PAUChangeDirInfo@@HU1@VChangeDirSort@@@std@@YAXPAUChangeDirInfo@@HH$$QAU1@VChangeDirSort@@@Z ENDP ; std::_Push_heap<ChangeDirInfo *,int,ChangeDirInfo,ChangeDirSort>
_TEXT	ENDS
PUBLIC	??B?$CEncrypt@M@@QAEMXZ				; CEncrypt<float>::operator float
; Function compile flags: /Ogsp
; File d:\lost saga for developer\youtube\tutorial\source\src\lsclient\encryptvalue.h
;	COMDAT ??B?$CEncrypt@M@@QAEMXZ
_TEXT	SEGMENT
_value$ = -4						; size = 4
??B?$CEncrypt@M@@QAEMXZ PROC				; CEncrypt<float>::operator float, COMDAT
; _this$ = ecx

; 134  : 	{

  00000	55		 push	 ebp
  00001	8b ec		 mov	 ebp, esp
  00003	51		 push	 ecx

; 135  : 		type value;
; 136  : 		DecryptValueToPool(&value);

  00004	8d 45 fc	 lea	 eax, DWORD PTR _value$[ebp]
  00007	50		 push	 eax
  00008	e8 00 00 00 00	 call	 ?DecryptValueToPool@?$CEncrypt@M@@QAEXPAM@Z ; CEncrypt<float>::DecryptValueToPool

; 137  : 
; 138  : #ifdef _NOTUSE
; 139  : 		Debug();
; 140  : #endif
; 141  : 		return value;

  0000d	d9 45 fc	 fld	 DWORD PTR _value$[ebp]

; 142  : 	}

  00010	c9		 leave
  00011	c3		 ret	 0
??B?$CEncrypt@M@@QAEMXZ ENDP				; CEncrypt<float>::operator float
_TEXT	ENDS
PUBLIC	??B?$CEncrypt@K@@QAEKXZ				; CEncrypt<unsigned long>::operator unsigned long
; Function compile flags: /Ogsp
;	COMDAT ??B?$CEncrypt@K@@QAEKXZ
_TEXT	SEGMENT
_value$ = -4						; size = 4
??B?$CEncrypt@K@@QAEKXZ PROC				; CEncrypt<unsigned long>::operator unsigned long, COMDAT
; _this$ = ecx

; 134  : 	{

  00000	55		 push	 ebp
  00001	8b ec		 mov	 ebp, esp
  00003	51		 push	 ecx

; 135  : 		type value;
; 136  : 		DecryptValueToPool(&value);

  00004	8d 45 fc	 lea	 eax, DWORD PTR _value$[ebp]
  00007	50		 push	 eax
  00008	e8 00 00 00 00	 call	 ?DecryptValueToPool@?$CEncrypt@K@@QAEXPAK@Z ; CEncrypt<unsigned long>::DecryptValueToPool

; 137  : 
; 138  : #ifdef _NOTUSE
; 139  : 		Debug();
; 140  : #endif
; 141  : 		return value;

  0000d	8b 45 fc	 mov	 eax, DWORD PTR _value$[ebp]

; 142  : 	}

  00010	c9		 leave
  00011	c3		 ret	 0
??B?$CEncrypt@K@@QAEKXZ ENDP				; CEncrypt<unsigned long>::operator unsigned long
_TEXT	ENDS
PUBLIC	??B?$CEncrypt@H@@QBEHXZ				; CEncrypt<int>::operator int
; Function compile flags: /Ogsp
;	COMDAT ??B?$CEncrypt@H@@QBEHXZ
_TEXT	SEGMENT
_value$ = -4						; size = 4
??B?$CEncrypt@H@@QBEHXZ PROC				; CEncrypt<int>::operator int, COMDAT
; _this$ = ecx

; 145  : 	{

  00000	55		 push	 ebp
  00001	8b ec		 mov	 ebp, esp
  00003	51		 push	 ecx

; 146  : 		//UJ 130829, const    --start
; 147  : 		type value;
; 148  : 		CEncrypt<type>* pThis = const_cast<CEncrypt<type>*>(this);
; 149  : 		pThis->DecryptValueToPool(&value);

  00004	8d 45 fc	 lea	 eax, DWORD PTR _value$[ebp]
  00007	50		 push	 eax
  00008	e8 00 00 00 00	 call	 ?DecryptValueToPool@?$CEncrypt@H@@QAEXPAH@Z ; CEncrypt<int>::DecryptValueToPool

; 150  : 		//// const DecryptValueToPool     .
; 151  :  		//type value;
; 152  : 		//char szTempMem[MAX_ENCRYPT];
; 153  : 		//m_RC5.DecryptByte( m_MemPool, szTempMem, max(m_ValueSize, DEFAULT_ENCRYPT) );
; 154  : 		//memcpy( &value, szTempMem, m_ValueSize );
; 155  : 		//UJ --end
; 156  : 
; 157  : #ifdef _NOTUSE
; 158  : 		Debug();
; 159  : #endif
; 160  : 		return value;

  0000d	8b 45 fc	 mov	 eax, DWORD PTR _value$[ebp]

; 161  : 	}

  00010	c9		 leave
  00011	c3		 ret	 0
??B?$CEncrypt@H@@QBEHXZ ENDP				; CEncrypt<int>::operator int
_TEXT	ENDS
PUBLIC	?InitResource@ioMissileWeapon2@@UAE_NXZ		; ioMissileWeapon2::InitResource
EXTRN	?InitResource@ioWeapon@@UAE_NXZ:PROC		; ioWeapon::InitResource
; Function compile flags: /Ogsp
; File d:\lost saga for developer\youtube\tutorial\source\src\lsclient\iomissileweapon2.cpp
;	COMDAT ?InitResource@ioMissileWeapon2@@UAE_NXZ
_TEXT	SEGMENT
?InitResource@ioMissileWeapon2@@UAE_NXZ PROC		; ioMissileWeapon2::InitResource, COMDAT
; _this$ = ecx

; 44   : {

  00000	56		 push	 esi
  00001	8b f1		 mov	 esi, ecx

; 45   : 	if( ioWeapon::InitResource() )

  00003	e8 00 00 00 00	 call	 ?InitResource@ioWeapon@@UAE_NXZ ; ioWeapon::InitResource
  00008	84 c0		 test	 al, al
  0000a	74 25		 je	 SHORT $LN1@InitResour

; 46   : 	{
; 47   : 		DestroyResource();

  0000c	8b 06		 mov	 eax, DWORD PTR [esi]
  0000e	6a 00		 push	 0
  00010	8b ce		 mov	 ecx, esi
  00012	ff 90 9c 00 00
	00		 call	 DWORD PTR [eax+156]

; 48   : 		return CreateFireBall( GetAttribute()->m_WeaponEffect );

  00018	8b 06		 mov	 eax, DWORD PTR [esi]
  0001a	8b ce		 mov	 ecx, esi
  0001c	ff 90 3c 01 00
	00		 call	 DWORD PTR [eax+316]
  00022	05 34 01 00 00	 add	 eax, 308		; 00000134H
  00027	50		 push	 eax
  00028	8b ce		 mov	 ecx, esi
  0002a	e8 00 00 00 00	 call	 ?CreateFireBall@ioMissileWeapon2@@IAE_NABVioHashString@@@Z ; ioMissileWeapon2::CreateFireBall
  0002f	5e		 pop	 esi

; 52   : }

  00030	c3		 ret	 0
$LN1@InitResour:

; 49   : 	}
; 50   : 
; 51   : 	return false;

  00031	32 c0		 xor	 al, al
  00033	5e		 pop	 esi

; 52   : }

  00034	c3		 ret	 0
?InitResource@ioMissileWeapon2@@UAE_NXZ ENDP		; ioMissileWeapon2::InitResource
_TEXT	ENDS
PUBLIC	__real@00000000
PUBLIC	?GetMoveSpeed@ioMissileWeapon2@@QAEMXZ		; ioMissileWeapon2::GetMoveSpeed
EXTRN	__imp_?GetLoopSec@ioFrameTimer@@QBEKXZ:PROC
EXTRN	__imp_?GetSingleton@ioFrameTimer@@SAAAV1@XZ:PROC
;	COMDAT __real@00000000
; File d:\lost saga for developer\youtube\tutorial\source\src\lsclient\encryptvalue.h
CONST	SEGMENT
__real@00000000 DD 000000000r			; 0
; Function compile flags: /Ogsp
; File d:\lost saga for developer\youtube\tutorial\source\src\lsclient\iomissileweapon2.cpp
CONST	ENDS
;	COMDAT ?GetMoveSpeed@ioMissileWeapon2@@QAEMXZ
_TEXT	SEGMENT
tv172 = -4						; size = 4
_value$589206 = -4					; size = 4
_value$589198 = -4					; size = 4
_value$589202 = -4					; size = 4
?GetMoveSpeed@ioMissileWeapon2@@QAEMXZ PROC		; ioMissileWeapon2::GetMoveSpeed, COMDAT
; _this$ = ecx

; 311  : {

  00000	55		 push	 ebp
  00001	8b ec		 mov	 ebp, esp
  00003	51		 push	 ecx
  00004	53		 push	 ebx
  00005	56		 push	 esi
  00006	57		 push	 edi
  00007	8b f1		 mov	 esi, ecx

; 312  : 	DWORD dwCurTime = FRAMEGETTIME();

  00009	ff 15 00 00 00
	00		 call	 DWORD PTR __imp_?GetSingleton@ioFrameTimer@@SAAAV1@XZ
  0000f	8b c8		 mov	 ecx, eax
  00011	ff 15 00 00 00
	00		 call	 DWORD PTR __imp_?GetLoopSec@ioFrameTimer@@QBEKXZ
  00017	8b d8		 mov	 ebx, eax

; 313  : 	if( m_dwMoveDelayTime > 0 && m_dwCreatedTime+m_dwMoveDelayTime >= dwCurTime )

  00019	8d 45 fc	 lea	 eax, DWORD PTR _value$589198[ebp]
  0001c	50		 push	 eax
  0001d	8d 8e 28 07 00
	00		 lea	 ecx, DWORD PTR [esi+1832]
  00023	e8 00 00 00 00	 call	 ?DecryptValueToPool@?$CEncrypt@K@@QAEXPAK@Z ; CEncrypt<unsigned long>::DecryptValueToPool
  00028	83 7d fc 00	 cmp	 DWORD PTR _value$589198[ebp], 0
  0002c	76 20		 jbe	 SHORT $LN2@GetMoveSpe
  0002e	8d 45 fc	 lea	 eax, DWORD PTR _value$589202[ebp]
  00031	50		 push	 eax
  00032	8d 8e 28 07 00
	00		 lea	 ecx, DWORD PTR [esi+1832]
  00038	e8 00 00 00 00	 call	 ?DecryptValueToPool@?$CEncrypt@K@@QAEXPAK@Z ; CEncrypt<unsigned long>::DecryptValueToPool
  0003d	8b 86 d4 04 00
	00		 mov	 eax, DWORD PTR [esi+1236]
  00043	03 45 fc	 add	 eax, DWORD PTR _value$589202[ebp]
  00046	3b c3		 cmp	 eax, ebx
  00048	72 04		 jb	 SHORT $LN2@GetMoveSpe

; 314  : 		return 0.0f;

  0004a	d9 ee		 fldz
  0004c	eb 49		 jmp	 SHORT $LN3@GetMoveSpe
$LN2@GetMoveSpe:

; 315  : 
; 316  : 	if( m_fCurMoveSpeed == 0.0f )

  0004e	f3 0f 10 86 9c
	08 00 00	 movss	 xmm0, DWORD PTR [esi+2204]
  00056	0f 2e 05 00 00
	00 00		 ucomiss xmm0, DWORD PTR __real@00000000
  0005d	9f		 lahf
  0005e	f6 c4 44	 test	 ah, 68			; 00000044H
  00061	7a 16		 jp	 SHORT $LN1@GetMoveSpe

; 317  : 		m_fCurMoveSpeed = GetAttribute()->m_fMoveSpeed;

  00063	8b 06		 mov	 eax, DWORD PTR [esi]
  00065	8b ce		 mov	 ecx, esi
  00067	ff 90 3c 01 00
	00		 call	 DWORD PTR [eax+316]
  0006d	d9 80 98 01 00
	00		 fld	 DWORD PTR [eax+408]
  00073	d9 9e 9c 08 00
	00		 fstp	 DWORD PTR [esi+2204]
$LN1@GetMoveSpe:

; 318  : 
; 319  : 	return m_fCurMoveSpeed * m_fOwnerChargeSpeedRate;

  00079	8d 45 fc	 lea	 eax, DWORD PTR _value$589206[ebp]
  0007c	50		 push	 eax
  0007d	8d 8e 20 01 00
	00		 lea	 ecx, DWORD PTR [esi+288]
  00083	e8 00 00 00 00	 call	 ?DecryptValueToPool@?$CEncrypt@M@@QAEXPAM@Z ; CEncrypt<float>::DecryptValueToPool
  00088	d9 86 9c 08 00
	00		 fld	 DWORD PTR [esi+2204]
  0008e	d8 4d fc	 fmul	 DWORD PTR _value$589206[ebp]
  00091	d9 5d fc	 fstp	 DWORD PTR tv172[ebp]
  00094	d9 45 fc	 fld	 DWORD PTR tv172[ebp]
$LN3@GetMoveSpe:
  00097	5f		 pop	 edi
  00098	5e		 pop	 esi
  00099	5b		 pop	 ebx

; 320  : }

  0009a	c9		 leave
  0009b	c3		 ret	 0
?GetMoveSpeed@ioMissileWeapon2@@QAEMXZ ENDP		; ioMissileWeapon2::GetMoveSpeed
_TEXT	ENDS
PUBLIC	?GetMaxRange@ioMissileWeapon2@@QAEMXZ		; ioMissileWeapon2::GetMaxRange
; Function compile flags: /Ogsp
;	COMDAT ?GetMaxRange@ioMissileWeapon2@@QAEMXZ
_TEXT	SEGMENT
tv136 = -4						; size = 4
_value$589212 = -4					; size = 4
?GetMaxRange@ioMissileWeapon2@@QAEMXZ PROC		; ioMissileWeapon2::GetMaxRange, COMDAT
; _this$ = ecx

; 323  : {

  00000	55		 push	 ebp
  00001	8b ec		 mov	 ebp, esp
  00003	51		 push	 ecx
  00004	56		 push	 esi
  00005	8b f1		 mov	 esi, ecx

; 324  : 	return GetAttribute()->m_fMoveRange * m_fOwnerChargeRangeRate;

  00007	8d 45 fc	 lea	 eax, DWORD PTR _value$589212[ebp]
  0000a	50		 push	 eax
  0000b	8d 8e f0 00 00
	00		 lea	 ecx, DWORD PTR [esi+240]
  00011	e8 00 00 00 00	 call	 ?DecryptValueToPool@?$CEncrypt@M@@QAEXPAM@Z ; CEncrypt<float>::DecryptValueToPool
  00016	8b 06		 mov	 eax, DWORD PTR [esi]
  00018	8b ce		 mov	 ecx, esi
  0001a	ff 90 3c 01 00
	00		 call	 DWORD PTR [eax+316]
  00020	d9 80 9c 01 00
	00		 fld	 DWORD PTR [eax+412]
  00026	d8 4d fc	 fmul	 DWORD PTR _value$589212[ebp]
  00029	5e		 pop	 esi
  0002a	d9 5d fc	 fstp	 DWORD PTR tv136[ebp]
  0002d	d9 45 fc	 fld	 DWORD PTR tv136[ebp]

; 325  : }

  00030	c9		 leave
  00031	c3		 ret	 0
?GetMaxRange@ioMissileWeapon2@@QAEMXZ ENDP		; ioMissileWeapon2::GetMaxRange
_TEXT	ENDS
PUBLIC	_bMapCollision$GSCopy$
PUBLIC	__$ArrayPad$
PUBLIC	?IsCollision@ioMissileWeapon2@@UAE_NPAVioPlayEntity@@_N@Z ; ioMissileWeapon2::IsCollision
EXTRN	?GetWorldAttackBox@ioWeapon@@QBEABVioOrientBox@@_N@Z:PROC ; ioWeapon::GetWorldAttackBox
; Function compile flags: /Ogsp
;	COMDAT ?IsCollision@ioMissileWeapon2@@UAE_NPAVioPlayEntity@@_N@Z
_TEXT	SEGMENT
_bMapCollision$GSCopy$ = -24				; size = 1
_bCollision$ = -20					; size = 1
_vColPoint$ = -16					; size = 12
__$ArrayPad$ = -4					; size = 4
_pEntity$ = 8						; size = 4
_bMapCollision$ = 12					; size = 1
?IsCollision@ioMissileWeapon2@@UAE_NPAVioPlayEntity@@_N@Z PROC ; ioMissileWeapon2::IsCollision, COMDAT
; _this$ = ecx

; 423  : {

  00000	55		 push	 ebp
  00001	8b ec		 mov	 ebp, esp
  00003	83 ec 18	 sub	 esp, 24			; 00000018H
  00006	a1 00 00 00 00	 mov	 eax, DWORD PTR ___security_cookie
  0000b	33 c5		 xor	 eax, ebp
  0000d	89 45 fc	 mov	 DWORD PTR __$ArrayPad$[ebp], eax

; 424  : 	bool bCollision = false;
; 425  : 
; 426  : 	D3DXVECTOR3 vColPoint( 0.0f, 0.0f, 0.0f );
; 427  : 	if( pEntity->IsWoundedCollision( GetWorldAttackBox(bMapCollision), &vColPoint ) )

  00010	8a 45 0c	 mov	 al, BYTE PTR _bMapCollision$[ebp]
  00013	0f 57 c0	 xorps	 xmm0, xmm0
  00016	53		 push	 ebx
  00017	56		 push	 esi
  00018	8b 75 08	 mov	 esi, DWORD PTR _pEntity$[ebp]
  0001b	57		 push	 edi
  0001c	8b 3e		 mov	 edi, DWORD PTR [esi]
  0001e	88 45 e8	 mov	 BYTE PTR _bMapCollision$GSCopy$[ebp], al
  00021	8d 45 f0	 lea	 eax, DWORD PTR _vColPoint$[ebp]
  00024	50		 push	 eax
  00025	ff 75 e8	 push	 DWORD PTR _bMapCollision$GSCopy$[ebp]
  00028	8b d9		 mov	 ebx, ecx
  0002a	c6 45 ec 00	 mov	 BYTE PTR _bCollision$[ebp], 0
  0002e	f3 0f 11 45 f0	 movss	 DWORD PTR _vColPoint$[ebp], xmm0
  00033	f3 0f 11 45 f4	 movss	 DWORD PTR _vColPoint$[ebp+4], xmm0
  00038	f3 0f 11 45 f8	 movss	 DWORD PTR _vColPoint$[ebp+8], xmm0
  0003d	e8 00 00 00 00	 call	 ?GetWorldAttackBox@ioWeapon@@QBEABVioOrientBox@@_N@Z ; ioWeapon::GetWorldAttackBox
  00042	50		 push	 eax
  00043	8b ce		 mov	 ecx, esi
  00045	ff 97 90 00 00
	00		 call	 DWORD PTR [edi+144]
  0004b	84 c0		 test	 al, al
  0004d	74 0f		 je	 SHORT $LN1@IsCollisio

; 428  : 		bCollision = CheckCollisionLine( pEntity, vColPoint );

  0004f	8d 45 f0	 lea	 eax, DWORD PTR _vColPoint$[ebp]
  00052	50		 push	 eax
  00053	56		 push	 esi
  00054	8b cb		 mov	 ecx, ebx
  00056	e8 00 00 00 00	 call	 ?CheckCollisionLine@ioMissileWeapon2@@IAE_NPAVioPlayEntity@@ABUD3DXVECTOR3@@@Z ; ioMissileWeapon2::CheckCollisionLine
  0005b	88 45 ec	 mov	 BYTE PTR _bCollision$[ebp], al
$LN1@IsCollisio:

; 429  : 
; 430  : 	CheckPiercing( bCollision );

  0005e	ff 75 ec	 push	 DWORD PTR _bCollision$[ebp]
  00061	8b 03		 mov	 eax, DWORD PTR [ebx]
  00063	8b cb		 mov	 ecx, ebx
  00065	ff 90 48 01 00
	00		 call	 DWORD PTR [eax+328]

; 431  : 
; 432  : 	return bCollision;
; 433  : }

  0006b	8b 4d fc	 mov	 ecx, DWORD PTR __$ArrayPad$[ebp]
  0006e	8a 45 ec	 mov	 al, BYTE PTR _bCollision$[ebp]
  00071	5f		 pop	 edi
  00072	5e		 pop	 esi
  00073	33 cd		 xor	 ecx, ebp
  00075	5b		 pop	 ebx
  00076	e8 00 00 00 00	 call	 @__security_check_cookie@4
  0007b	c9		 leave
  0007c	c2 08 00	 ret	 8
?IsCollision@ioMissileWeapon2@@UAE_NPAVioPlayEntity@@_N@Z ENDP ; ioMissileWeapon2::IsCollision
_TEXT	ENDS
PUBLIC	??0?$vector@UChangeDirInfo@@V?$allocator@UChangeDirInfo@@@std@@@std@@QAE@XZ ; std::vector<ChangeDirInfo,std::allocator<ChangeDirInfo> >::vector<ChangeDirInfo,std::allocator<ChangeDirInfo> >
; Function compile flags: /Ogsp
; File c:\program files (x86)\microsoft visual studio 10.0\vc\include\vector
;	COMDAT ??0?$vector@UChangeDirInfo@@V?$allocator@UChangeDirInfo@@@std@@@std@@QAE@XZ
_TEXT	SEGMENT
??0?$vector@UChangeDirInfo@@V?$allocator@UChangeDirInfo@@@std@@@std@@QAE@XZ PROC ; std::vector<ChangeDirInfo,std::allocator<ChangeDirInfo> >::vector<ChangeDirInfo,std::allocator<ChangeDirInfo> >, COMDAT
; _this$ = ecx

; 507  : 		{	// construct empty vector

  00000	8b c1		 mov	 eax, ecx
  00002	33 c9		 xor	 ecx, ecx
  00004	89 08		 mov	 DWORD PTR [eax], ecx
  00006	89 48 04	 mov	 DWORD PTR [eax+4], ecx
  00009	89 48 08	 mov	 DWORD PTR [eax+8], ecx

; 508  : 		}

  0000c	c3		 ret	 0
??0?$vector@UChangeDirInfo@@V?$allocator@UChangeDirInfo@@@std@@@std@@QAE@XZ ENDP ; std::vector<ChangeDirInfo,std::allocator<ChangeDirInfo> >::vector<ChangeDirInfo,std::allocator<ChangeDirInfo> >
_TEXT	ENDS
PUBLIC	?begin@?$vector@UChangeDirInfo@@V?$allocator@UChangeDirInfo@@@std@@@std@@QAE?AV?$_Vector_iterator@V?$_Vector_val@UChangeDirInfo@@V?$allocator@UChangeDirInfo@@@std@@@std@@@2@XZ ; std::vector<ChangeDirInfo,std::allocator<ChangeDirInfo> >::begin
; Function compile flags: /Ogsp
;	COMDAT ?begin@?$vector@UChangeDirInfo@@V?$allocator@UChangeDirInfo@@@std@@@std@@QAE?AV?$_Vector_iterator@V?$_Vector_val@UChangeDirInfo@@V?$allocator@UChangeDirInfo@@@std@@@std@@@2@XZ
_TEXT	SEGMENT
___$ReturnUdt$ = 8					; size = 4
?begin@?$vector@UChangeDirInfo@@V?$allocator@UChangeDirInfo@@@std@@@std@@QAE?AV?$_Vector_iterator@V?$_Vector_val@UChangeDirInfo@@V?$allocator@UChangeDirInfo@@@std@@@std@@@2@XZ PROC ; std::vector<ChangeDirInfo,std::allocator<ChangeDirInfo> >::begin, COMDAT
; _this$ = ecx

; 781  : 		{	// return iterator for beginning of mutable sequence

  00000	55		 push	 ebp
  00001	8b ec		 mov	 ebp, esp

; 782  : 		return (iterator(this->_Myfirst, this));

  00003	8b 09		 mov	 ecx, DWORD PTR [ecx]
  00005	8b 45 08	 mov	 eax, DWORD PTR ___$ReturnUdt$[ebp]
  00008	89 08		 mov	 DWORD PTR [eax], ecx

; 783  : 		}

  0000a	5d		 pop	 ebp
  0000b	c2 04 00	 ret	 4
?begin@?$vector@UChangeDirInfo@@V?$allocator@UChangeDirInfo@@@std@@@std@@QAE?AV?$_Vector_iterator@V?$_Vector_val@UChangeDirInfo@@V?$allocator@UChangeDirInfo@@@std@@@std@@@2@XZ ENDP ; std::vector<ChangeDirInfo,std::allocator<ChangeDirInfo> >::begin
_TEXT	ENDS
PUBLIC	?end@?$vector@UChangeDirInfo@@V?$allocator@UChangeDirInfo@@@std@@@std@@QAE?AV?$_Vector_iterator@V?$_Vector_val@UChangeDirInfo@@V?$allocator@UChangeDirInfo@@@std@@@std@@@2@XZ ; std::vector<ChangeDirInfo,std::allocator<ChangeDirInfo> >::end
; Function compile flags: /Ogsp
;	COMDAT ?end@?$vector@UChangeDirInfo@@V?$allocator@UChangeDirInfo@@@std@@@std@@QAE?AV?$_Vector_iterator@V?$_Vector_val@UChangeDirInfo@@V?$allocator@UChangeDirInfo@@@std@@@std@@@2@XZ
_TEXT	SEGMENT
___$ReturnUdt$ = 8					; size = 4
?end@?$vector@UChangeDirInfo@@V?$allocator@UChangeDirInfo@@@std@@@std@@QAE?AV?$_Vector_iterator@V?$_Vector_val@UChangeDirInfo@@V?$allocator@UChangeDirInfo@@@std@@@std@@@2@XZ PROC ; std::vector<ChangeDirInfo,std::allocator<ChangeDirInfo> >::end, COMDAT
; _this$ = ecx

; 791  : 		{	// return iterator for end of mutable sequence

  00000	55		 push	 ebp
  00001	8b ec		 mov	 ebp, esp

; 792  : 		return (iterator(this->_Mylast, this));

  00003	8b 49 04	 mov	 ecx, DWORD PTR [ecx+4]
  00006	8b 45 08	 mov	 eax, DWORD PTR ___$ReturnUdt$[ebp]
  00009	89 08		 mov	 DWORD PTR [eax], ecx

; 793  : 		}

  0000b	5d		 pop	 ebp
  0000c	c2 04 00	 ret	 4
?end@?$vector@UChangeDirInfo@@V?$allocator@UChangeDirInfo@@@std@@@std@@QAE?AV?$_Vector_iterator@V?$_Vector_val@UChangeDirInfo@@V?$allocator@UChangeDirInfo@@@std@@@std@@@2@XZ ENDP ; std::vector<ChangeDirInfo,std::allocator<ChangeDirInfo> >::end
_TEXT	ENDS
PUBLIC	??0?$vector@USecondAttribute@@V?$allocator@USecondAttribute@@@std@@@std@@QAE@XZ ; std::vector<SecondAttribute,std::allocator<SecondAttribute> >::vector<SecondAttribute,std::allocator<SecondAttribute> >
; Function compile flags: /Ogsp
;	COMDAT ??0?$vector@USecondAttribute@@V?$allocator@USecondAttribute@@@std@@@std@@QAE@XZ
_TEXT	SEGMENT
??0?$vector@USecondAttribute@@V?$allocator@USecondAttribute@@@std@@@std@@QAE@XZ PROC ; std::vector<SecondAttribute,std::allocator<SecondAttribute> >::vector<SecondAttribute,std::allocator<SecondAttribute> >, COMDAT
; _this$ = ecx

; 507  : 		{	// construct empty vector

  00000	8b c1		 mov	 eax, ecx
  00002	33 c9		 xor	 ecx, ecx
  00004	89 08		 mov	 DWORD PTR [eax], ecx
  00006	89 48 04	 mov	 DWORD PTR [eax+4], ecx
  00009	89 48 08	 mov	 DWORD PTR [eax+8], ecx

; 508  : 		}

  0000c	c3		 ret	 0
??0?$vector@USecondAttribute@@V?$allocator@USecondAttribute@@@std@@@std@@QAE@XZ ENDP ; std::vector<SecondAttribute,std::allocator<SecondAttribute> >::vector<SecondAttribute,std::allocator<SecondAttribute> >
_TEXT	ENDS
PUBLIC	?_Make_iter@?$vector@UChangeDirInfo@@V?$allocator@UChangeDirInfo@@@std@@@std@@QBE?AV?$_Vector_iterator@V?$_Vector_val@UChangeDirInfo@@V?$allocator@UChangeDirInfo@@@std@@@std@@@2@V?$_Vector_const_iterator@V?$_Vector_val@UChangeDirInfo@@V?$allocator@UChangeDirInfo@@@std@@@std@@@2@@Z ; std::vector<ChangeDirInfo,std::allocator<ChangeDirInfo> >::_Make_iter
; Function compile flags: /Ogsp
;	COMDAT ?_Make_iter@?$vector@UChangeDirInfo@@V?$allocator@UChangeDirInfo@@@std@@@std@@QBE?AV?$_Vector_iterator@V?$_Vector_val@UChangeDirInfo@@V?$allocator@UChangeDirInfo@@@std@@@std@@@2@V?$_Vector_const_iterator@V?$_Vector_val@UChangeDirInfo@@V?$allocator@UChangeDirInfo@@@std@@@std@@@2@@Z
_TEXT	SEGMENT
___$ReturnUdt$ = 8					; size = 4
__Where$ = 12						; size = 4
?_Make_iter@?$vector@UChangeDirInfo@@V?$allocator@UChangeDirInfo@@@std@@@std@@QBE?AV?$_Vector_iterator@V?$_Vector_val@UChangeDirInfo@@V?$allocator@UChangeDirInfo@@@std@@@std@@@2@V?$_Vector_const_iterator@V?$_Vector_val@UChangeDirInfo@@V?$allocator@UChangeDirInfo@@@std@@@std@@@2@@Z PROC ; std::vector<ChangeDirInfo,std::allocator<ChangeDirInfo> >::_Make_iter, COMDAT
; _this$ = ecx

; 801  : 		{	// make iterator from const_iterator

  00000	55		 push	 ebp
  00001	8b ec		 mov	 ebp, esp

; 802  : 		return (iterator(_Where._Ptr, this));

  00003	8b 45 08	 mov	 eax, DWORD PTR ___$ReturnUdt$[ebp]
  00006	8b 4d 0c	 mov	 ecx, DWORD PTR __Where$[ebp]
  00009	89 08		 mov	 DWORD PTR [eax], ecx

; 803  : 		}

  0000b	5d		 pop	 ebp
  0000c	c2 08 00	 ret	 8
?_Make_iter@?$vector@UChangeDirInfo@@V?$allocator@UChangeDirInfo@@@std@@@std@@QBE?AV?$_Vector_iterator@V?$_Vector_val@UChangeDirInfo@@V?$allocator@UChangeDirInfo@@@std@@@std@@@2@V?$_Vector_const_iterator@V?$_Vector_val@UChangeDirInfo@@V?$allocator@UChangeDirInfo@@@std@@@std@@@2@@Z ENDP ; std::vector<ChangeDirInfo,std::allocator<ChangeDirInfo> >::_Make_iter
_TEXT	ENDS
PUBLIC	?begin@?$vector@USecondAttribute@@V?$allocator@USecondAttribute@@@std@@@std@@QAE?AV?$_Vector_iterator@V?$_Vector_val@USecondAttribute@@V?$allocator@USecondAttribute@@@std@@@std@@@2@XZ ; std::vector<SecondAttribute,std::allocator<SecondAttribute> >::begin
; Function compile flags: /Ogsp
;	COMDAT ?begin@?$vector@USecondAttribute@@V?$allocator@USecondAttribute@@@std@@@std@@QAE?AV?$_Vector_iterator@V?$_Vector_val@USecondAttribute@@V?$allocator@USecondAttribute@@@std@@@std@@@2@XZ
_TEXT	SEGMENT
___$ReturnUdt$ = 8					; size = 4
?begin@?$vector@USecondAttribute@@V?$allocator@USecondAttribute@@@std@@@std@@QAE?AV?$_Vector_iterator@V?$_Vector_val@USecondAttribute@@V?$allocator@USecondAttribute@@@std@@@std@@@2@XZ PROC ; std::vector<SecondAttribute,std::allocator<SecondAttribute> >::begin, COMDAT
; _this$ = ecx

; 781  : 		{	// return iterator for beginning of mutable sequence

  00000	55		 push	 ebp
  00001	8b ec		 mov	 ebp, esp

; 782  : 		return (iterator(this->_Myfirst, this));

  00003	8b 09		 mov	 ecx, DWORD PTR [ecx]
  00005	8b 45 08	 mov	 eax, DWORD PTR ___$ReturnUdt$[ebp]
  00008	89 08		 mov	 DWORD PTR [eax], ecx

; 783  : 		}

  0000a	5d		 pop	 ebp
  0000b	c2 04 00	 ret	 4
?begin@?$vector@USecondAttribute@@V?$allocator@USecondAttribute@@@std@@@std@@QAE?AV?$_Vector_iterator@V?$_Vector_val@USecondAttribute@@V?$allocator@USecondAttribute@@@std@@@std@@@2@XZ ENDP ; std::vector<SecondAttribute,std::allocator<SecondAttribute> >::begin
_TEXT	ENDS
PUBLIC	?end@?$vector@USecondAttribute@@V?$allocator@USecondAttribute@@@std@@@std@@QAE?AV?$_Vector_iterator@V?$_Vector_val@USecondAttribute@@V?$allocator@USecondAttribute@@@std@@@std@@@2@XZ ; std::vector<SecondAttribute,std::allocator<SecondAttribute> >::end
; Function compile flags: /Ogsp
;	COMDAT ?end@?$vector@USecondAttribute@@V?$allocator@USecondAttribute@@@std@@@std@@QAE?AV?$_Vector_iterator@V?$_Vector_val@USecondAttribute@@V?$allocator@USecondAttribute@@@std@@@std@@@2@XZ
_TEXT	SEGMENT
___$ReturnUdt$ = 8					; size = 4
?end@?$vector@USecondAttribute@@V?$allocator@USecondAttribute@@@std@@@std@@QAE?AV?$_Vector_iterator@V?$_Vector_val@USecondAttribute@@V?$allocator@USecondAttribute@@@std@@@std@@@2@XZ PROC ; std::vector<SecondAttribute,std::allocator<SecondAttribute> >::end, COMDAT
; _this$ = ecx

; 791  : 		{	// return iterator for end of mutable sequence

  00000	55		 push	 ebp
  00001	8b ec		 mov	 ebp, esp

; 792  : 		return (iterator(this->_Mylast, this));

  00003	8b 49 04	 mov	 ecx, DWORD PTR [ecx+4]
  00006	8b 45 08	 mov	 eax, DWORD PTR ___$ReturnUdt$[ebp]
  00009	89 08		 mov	 DWORD PTR [eax], ecx

; 793  : 		}

  0000b	5d		 pop	 ebp
  0000c	c2 04 00	 ret	 4
?end@?$vector@USecondAttribute@@V?$allocator@USecondAttribute@@@std@@@std@@QAE?AV?$_Vector_iterator@V?$_Vector_val@USecondAttribute@@V?$allocator@USecondAttribute@@@std@@@std@@@2@XZ ENDP ; std::vector<SecondAttribute,std::allocator<SecondAttribute> >::end
_TEXT	ENDS
PUBLIC	?_Make_iter@?$vector@USecondAttribute@@V?$allocator@USecondAttribute@@@std@@@std@@QBE?AV?$_Vector_iterator@V?$_Vector_val@USecondAttribute@@V?$allocator@USecondAttribute@@@std@@@std@@@2@V?$_Vector_const_iterator@V?$_Vector_val@USecondAttribute@@V?$allocator@USecondAttribute@@@std@@@std@@@2@@Z ; std::vector<SecondAttribute,std::allocator<SecondAttribute> >::_Make_iter
; Function compile flags: /Ogsp
;	COMDAT ?_Make_iter@?$vector@USecondAttribute@@V?$allocator@USecondAttribute@@@std@@@std@@QBE?AV?$_Vector_iterator@V?$_Vector_val@USecondAttribute@@V?$allocator@USecondAttribute@@@std@@@std@@@2@V?$_Vector_const_iterator@V?$_Vector_val@USecondAttribute@@V?$allocator@USecondAttribute@@@std@@@std@@@2@@Z
_TEXT	SEGMENT
___$ReturnUdt$ = 8					; size = 4
__Where$ = 12						; size = 4
?_Make_iter@?$vector@USecondAttribute@@V?$allocator@USecondAttribute@@@std@@@std@@QBE?AV?$_Vector_iterator@V?$_Vector_val@USecondAttribute@@V?$allocator@USecondAttribute@@@std@@@std@@@2@V?$_Vector_const_iterator@V?$_Vector_val@USecondAttribute@@V?$allocator@USecondAttribute@@@std@@@std@@@2@@Z PROC ; std::vector<SecondAttribute,std::allocator<SecondAttribute> >::_Make_iter, COMDAT
; _this$ = ecx

; 801  : 		{	// make iterator from const_iterator

  00000	55		 push	 ebp
  00001	8b ec		 mov	 ebp, esp

; 802  : 		return (iterator(_Where._Ptr, this));

  00003	8b 45 08	 mov	 eax, DWORD PTR ___$ReturnUdt$[ebp]
  00006	8b 4d 0c	 mov	 ecx, DWORD PTR __Where$[ebp]
  00009	89 08		 mov	 DWORD PTR [eax], ecx

; 803  : 		}

  0000b	5d		 pop	 ebp
  0000c	c2 08 00	 ret	 8
?_Make_iter@?$vector@USecondAttribute@@V?$allocator@USecondAttribute@@@std@@@std@@QBE?AV?$_Vector_iterator@V?$_Vector_val@USecondAttribute@@V?$allocator@USecondAttribute@@@std@@@std@@@2@V?$_Vector_const_iterator@V?$_Vector_val@USecondAttribute@@V?$allocator@USecondAttribute@@@std@@@std@@@2@@Z ENDP ; std::vector<SecondAttribute,std::allocator<SecondAttribute> >::_Make_iter
_TEXT	ENDS
PUBLIC	??9?$_Vector_const_iterator@V?$_Vector_val@UChangeDirInfo@@V?$allocator@UChangeDirInfo@@@std@@@std@@@std@@QBE_NABV01@@Z ; std::_Vector_const_iterator<std::_Vector_val<ChangeDirInfo,std::allocator<ChangeDirInfo> > >::operator!=
; Function compile flags: /Ogsp
;	COMDAT ??9?$_Vector_const_iterator@V?$_Vector_val@UChangeDirInfo@@V?$allocator@UChangeDirInfo@@@std@@@std@@@std@@QBE_NABV01@@Z
_TEXT	SEGMENT
__Right$ = 8						; size = 4
??9?$_Vector_const_iterator@V?$_Vector_val@UChangeDirInfo@@V?$allocator@UChangeDirInfo@@@std@@@std@@@std@@QBE_NABV01@@Z PROC ; std::_Vector_const_iterator<std::_Vector_val<ChangeDirInfo,std::allocator<ChangeDirInfo> > >::operator!=, COMDAT
; _this$ = ecx

; 207  : 		{	// test for iterator inequality

  00000	55		 push	 ebp
  00001	8b ec		 mov	 ebp, esp

; 208  : 		return (!(*this == _Right));

  00003	8b 01		 mov	 eax, DWORD PTR [ecx]
  00005	8b 55 08	 mov	 edx, DWORD PTR __Right$[ebp]
  00008	33 c9		 xor	 ecx, ecx
  0000a	3b 02		 cmp	 eax, DWORD PTR [edx]
  0000c	0f 95 c0	 setne	 al

; 209  : 		}

  0000f	5d		 pop	 ebp
  00010	c2 04 00	 ret	 4
??9?$_Vector_const_iterator@V?$_Vector_val@UChangeDirInfo@@V?$allocator@UChangeDirInfo@@@std@@@std@@@std@@QBE_NABV01@@Z ENDP ; std::_Vector_const_iterator<std::_Vector_val<ChangeDirInfo,std::allocator<ChangeDirInfo> > >::operator!=
_TEXT	ENDS
PUBLIC	??9?$_Vector_const_iterator@V?$_Vector_val@USecondAttribute@@V?$allocator@USecondAttribute@@@std@@@std@@@std@@QBE_NABV01@@Z ; std::_Vector_const_iterator<std::_Vector_val<SecondAttribute,std::allocator<SecondAttribute> > >::operator!=
; Function compile flags: /Ogsp
;	COMDAT ??9?$_Vector_const_iterator@V?$_Vector_val@USecondAttribute@@V?$allocator@USecondAttribute@@@std@@@std@@@std@@QBE_NABV01@@Z
_TEXT	SEGMENT
__Right$ = 8						; size = 4
??9?$_Vector_const_iterator@V?$_Vector_val@USecondAttribute@@V?$allocator@USecondAttribute@@@std@@@std@@@std@@QBE_NABV01@@Z PROC ; std::_Vector_const_iterator<std::_Vector_val<SecondAttribute,std::allocator<SecondAttribute> > >::operator!=, COMDAT
; _this$ = ecx

; 207  : 		{	// test for iterator inequality

  00000	55		 push	 ebp
  00001	8b ec		 mov	 ebp, esp

; 208  : 		return (!(*this == _Right));

  00003	8b 01		 mov	 eax, DWORD PTR [ecx]
  00005	8b 55 08	 mov	 edx, DWORD PTR __Right$[ebp]
  00008	33 c9		 xor	 ecx, ecx
  0000a	3b 02		 cmp	 eax, DWORD PTR [edx]
  0000c	0f 95 c0	 setne	 al

; 209  : 		}

  0000f	5d		 pop	 ebp
  00010	c2 04 00	 ret	 4
??9?$_Vector_const_iterator@V?$_Vector_val@USecondAttribute@@V?$allocator@USecondAttribute@@@std@@@std@@@std@@QBE_NABV01@@Z ENDP ; std::_Vector_const_iterator<std::_Vector_val<SecondAttribute,std::allocator<SecondAttribute> > >::operator!=
_TEXT	ENDS
PUBLIC	??$_Cons_val@V?$allocator@UChangeDirInfo@@@std@@UChangeDirInfo@@ABU3@@std@@YAXAAV?$allocator@UChangeDirInfo@@@0@PAUChangeDirInfo@@ABU2@@Z ; std::_Cons_val<std::allocator<ChangeDirInfo>,ChangeDirInfo,ChangeDirInfo const &>
; Function compile flags: /Ogsp
; File c:\program files (x86)\microsoft visual studio 10.0\vc\include\xmemory
;	COMDAT ??$_Cons_val@V?$allocator@UChangeDirInfo@@@std@@UChangeDirInfo@@ABU3@@std@@YAXAAV?$allocator@UChangeDirInfo@@@0@PAUChangeDirInfo@@ABU2@@Z
_TEXT	SEGMENT
__Alval$ = 8						; size = 4
__Pdest$ = 12						; size = 4
__Src$ = 16						; size = 4
??$_Cons_val@V?$allocator@UChangeDirInfo@@@std@@UChangeDirInfo@@ABU3@@std@@YAXAAV?$allocator@UChangeDirInfo@@@0@PAUChangeDirInfo@@ABU2@@Z PROC ; std::_Cons_val<std::allocator<ChangeDirInfo>,ChangeDirInfo,ChangeDirInfo const &>, COMDAT

; 279  : 	{	// construct using allocator

  00000	55		 push	 ebp
  00001	8b ec		 mov	 ebp, esp
  00003	57		 push	 edi

; 280  : 	_Alval.construct(_Pdest, _STD forward<_Ty2>(_Src));

  00004	8b 7d 0c	 mov	 edi, DWORD PTR __Pdest$[ebp]
  00007	85 ff		 test	 edi, edi
  00009	74 0a		 je	 SHORT $LN9@Cons_val@3
  0000b	56		 push	 esi
  0000c	8b 75 10	 mov	 esi, DWORD PTR __Src$[ebp]
  0000f	6a 07		 push	 7
  00011	59		 pop	 ecx
  00012	f3 a5		 rep movsd
  00014	5e		 pop	 esi
$LN9@Cons_val@3:
  00015	5f		 pop	 edi

; 281  : 	}

  00016	5d		 pop	 ebp
  00017	c3		 ret	 0
??$_Cons_val@V?$allocator@UChangeDirInfo@@@std@@UChangeDirInfo@@ABU3@@std@@YAXAAV?$allocator@UChangeDirInfo@@@0@PAUChangeDirInfo@@ABU2@@Z ENDP ; std::_Cons_val<std::allocator<ChangeDirInfo>,ChangeDirInfo,ChangeDirInfo const &>
_TEXT	ENDS
PUBLIC	??$_Move@PAUChangeDirInfo@@PAU1@@std@@YAPAUChangeDirInfo@@PAU1@00@Z ; std::_Move<ChangeDirInfo *,ChangeDirInfo *>
; Function compile flags: /Ogsp
; File c:\program files (x86)\microsoft visual studio 10.0\vc\include\xutility
;	COMDAT ??$_Move@PAUChangeDirInfo@@PAU1@@std@@YAPAUChangeDirInfo@@PAU1@00@Z
_TEXT	SEGMENT
__Cat$589430 = -4					; size = 1
__First$ = 8						; size = 4
__Last$ = 12						; size = 4
__Dest$ = 16						; size = 4
??$_Move@PAUChangeDirInfo@@PAU1@@std@@YAPAUChangeDirInfo@@PAU1@00@Z PROC ; std::_Move<ChangeDirInfo *,ChangeDirInfo *>, COMDAT

; 2533 : 	{	// move [_First, _Last) to [_Dest, ...), unchecked

  00000	55		 push	 ebp
  00001	8b ec		 mov	 ebp, esp
  00003	51		 push	 ecx

; 2534 : 	return (_Move(_First, _Last,
; 2535 : 		_Dest, _Ptr_cat(_First, _Dest)));

  00004	ff 75 fc	 push	 DWORD PTR __Cat$589430[ebp]
  00007	ff 75 10	 push	 DWORD PTR __Dest$[ebp]
  0000a	ff 75 0c	 push	 DWORD PTR __Last$[ebp]
  0000d	ff 75 08	 push	 DWORD PTR __First$[ebp]
  00010	e8 00 00 00 00	 call	 ??$_Move@PAUChangeDirInfo@@PAU1@@std@@YAPAUChangeDirInfo@@PAU1@00U_Nonscalar_ptr_iterator_tag@0@@Z ; std::_Move<ChangeDirInfo *,ChangeDirInfo *>
  00015	83 c4 10	 add	 esp, 16			; 00000010H

; 2536 : 	}

  00018	c9		 leave
  00019	c3		 ret	 0
??$_Move@PAUChangeDirInfo@@PAU1@@std@@YAPAUChangeDirInfo@@PAU1@00@Z ENDP ; std::_Move<ChangeDirInfo *,ChangeDirInfo *>
_TEXT	ENDS
PUBLIC	??$_Cons_val@V?$allocator@USecondAttribute@@@std@@USecondAttribute@@ABU3@@std@@YAXAAV?$allocator@USecondAttribute@@@0@PAUSecondAttribute@@ABU2@@Z ; std::_Cons_val<std::allocator<SecondAttribute>,SecondAttribute,SecondAttribute const &>
; Function compile flags: /Ogsp
; File c:\program files (x86)\microsoft visual studio 10.0\vc\include\xmemory
;	COMDAT ??$_Cons_val@V?$allocator@USecondAttribute@@@std@@USecondAttribute@@ABU3@@std@@YAXAAV?$allocator@USecondAttribute@@@0@PAUSecondAttribute@@ABU2@@Z
_TEXT	SEGMENT
__Alval$ = 8						; size = 4
__Pdest$ = 12						; size = 4
__Src$ = 16						; size = 4
??$_Cons_val@V?$allocator@USecondAttribute@@@std@@USecondAttribute@@ABU3@@std@@YAXAAV?$allocator@USecondAttribute@@@0@PAUSecondAttribute@@ABU2@@Z PROC ; std::_Cons_val<std::allocator<SecondAttribute>,SecondAttribute,SecondAttribute const &>, COMDAT

; 279  : 	{	// construct using allocator

  00000	55		 push	 ebp
  00001	8b ec		 mov	 ebp, esp

; 280  : 	_Alval.construct(_Pdest, _STD forward<_Ty2>(_Src));

  00003	8b 45 0c	 mov	 eax, DWORD PTR __Pdest$[ebp]
  00006	85 c0		 test	 eax, eax
  00008	74 0d		 je	 SHORT $LN9@Cons_val@4
  0000a	8b 4d 10	 mov	 ecx, DWORD PTR __Src$[ebp]
  0000d	8b 11		 mov	 edx, DWORD PTR [ecx]
  0000f	89 10		 mov	 DWORD PTR [eax], edx
  00011	8b 49 04	 mov	 ecx, DWORD PTR [ecx+4]
  00014	89 48 04	 mov	 DWORD PTR [eax+4], ecx
$LN9@Cons_val@4:

; 281  : 	}

  00017	5d		 pop	 ebp
  00018	c3		 ret	 0
??$_Cons_val@V?$allocator@USecondAttribute@@@std@@USecondAttribute@@ABU3@@std@@YAXAAV?$allocator@USecondAttribute@@@0@PAUSecondAttribute@@ABU2@@Z ENDP ; std::_Cons_val<std::allocator<SecondAttribute>,SecondAttribute,SecondAttribute const &>
_TEXT	ENDS
PUBLIC	??$_Move@PAUSecondAttribute@@PAU1@@std@@YAPAUSecondAttribute@@PAU1@00@Z ; std::_Move<SecondAttribute *,SecondAttribute *>
; Function compile flags: /Ogsp
; File c:\program files (x86)\microsoft visual studio 10.0\vc\include\xutility
;	COMDAT ??$_Move@PAUSecondAttribute@@PAU1@@std@@YAPAUSecondAttribute@@PAU1@00@Z
_TEXT	SEGMENT
__Cat$589478 = -4					; size = 1
__First$ = 8						; size = 4
__Last$ = 12						; size = 4
__Dest$ = 16						; size = 4
??$_Move@PAUSecondAttribute@@PAU1@@std@@YAPAUSecondAttribute@@PAU1@00@Z PROC ; std::_Move<SecondAttribute *,SecondAttribute *>, COMDAT

; 2533 : 	{	// move [_First, _Last) to [_Dest, ...), unchecked

  00000	55		 push	 ebp
  00001	8b ec		 mov	 ebp, esp
  00003	51		 push	 ecx

; 2534 : 	return (_Move(_First, _Last,
; 2535 : 		_Dest, _Ptr_cat(_First, _Dest)));

  00004	ff 75 fc	 push	 DWORD PTR __Cat$589478[ebp]
  00007	ff 75 10	 push	 DWORD PTR __Dest$[ebp]
  0000a	ff 75 0c	 push	 DWORD PTR __Last$[ebp]
  0000d	ff 75 08	 push	 DWORD PTR __First$[ebp]
  00010	e8 00 00 00 00	 call	 ??$_Move@PAUSecondAttribute@@PAU1@@std@@YAPAUSecondAttribute@@PAU1@00U_Nonscalar_ptr_iterator_tag@0@@Z ; std::_Move<SecondAttribute *,SecondAttribute *>
  00015	83 c4 10	 add	 esp, 16			; 00000010H

; 2536 : 	}

  00018	c9		 leave
  00019	c3		 ret	 0
??$_Move@PAUSecondAttribute@@PAU1@@std@@YAPAUSecondAttribute@@PAU1@00@Z ENDP ; std::_Move<SecondAttribute *,SecondAttribute *>
_TEXT	ENDS
PUBLIC	??$_Dest_val@V?$allocator@UChangeDirInfo@@@std@@UChangeDirInfo@@@std@@YAXAAV?$allocator@UChangeDirInfo@@@0@PAUChangeDirInfo@@@Z ; std::_Dest_val<std::allocator<ChangeDirInfo>,ChangeDirInfo>
; Function compile flags: /Ogsp
; File c:\program files (x86)\microsoft visual studio 10.0\vc\include\xmemory
;	COMDAT ??$_Dest_val@V?$allocator@UChangeDirInfo@@@std@@UChangeDirInfo@@@std@@YAXAAV?$allocator@UChangeDirInfo@@@0@PAUChangeDirInfo@@@Z
_TEXT	SEGMENT
__Alval$ = 8						; size = 4
__Pdest$ = 12						; size = 4
??$_Dest_val@V?$allocator@UChangeDirInfo@@@std@@UChangeDirInfo@@@std@@YAXAAV?$allocator@UChangeDirInfo@@@0@PAUChangeDirInfo@@@Z PROC ; std::_Dest_val<std::allocator<ChangeDirInfo>,ChangeDirInfo>, COMDAT

; 287  : 	_Alval.destroy(_Pdest);
; 288  : 	}

  00000	c3		 ret	 0
??$_Dest_val@V?$allocator@UChangeDirInfo@@@std@@UChangeDirInfo@@@std@@YAXAAV?$allocator@UChangeDirInfo@@@0@PAUChangeDirInfo@@@Z ENDP ; std::_Dest_val<std::allocator<ChangeDirInfo>,ChangeDirInfo>
_TEXT	ENDS
PUBLIC	??$_Dest_val@V?$allocator@USecondAttribute@@@std@@USecondAttribute@@@std@@YAXAAV?$allocator@USecondAttribute@@@0@PAUSecondAttribute@@@Z ; std::_Dest_val<std::allocator<SecondAttribute>,SecondAttribute>
; Function compile flags: /Ogsp
;	COMDAT ??$_Dest_val@V?$allocator@USecondAttribute@@@std@@USecondAttribute@@@std@@YAXAAV?$allocator@USecondAttribute@@@0@PAUSecondAttribute@@@Z
_TEXT	SEGMENT
__Alval$ = 8						; size = 4
__Pdest$ = 12						; size = 4
??$_Dest_val@V?$allocator@USecondAttribute@@@std@@USecondAttribute@@@std@@YAXAAV?$allocator@USecondAttribute@@@0@PAUSecondAttribute@@@Z PROC ; std::_Dest_val<std::allocator<SecondAttribute>,SecondAttribute>, COMDAT

; 287  : 	_Alval.destroy(_Pdest);
; 288  : 	}

  00000	c3		 ret	 0
??$_Dest_val@V?$allocator@USecondAttribute@@@std@@USecondAttribute@@@std@@YAXAAV?$allocator@USecondAttribute@@@0@PAUSecondAttribute@@@Z ENDP ; std::_Dest_val<std::allocator<SecondAttribute>,SecondAttribute>
_TEXT	ENDS
PUBLIC	??$iter_swap@PAUChangeDirInfo@@PAU1@@std@@YAXPAUChangeDirInfo@@0@Z ; std::iter_swap<ChangeDirInfo *,ChangeDirInfo *>
; Function compile flags: /Ogsp
; File c:\program files (x86)\microsoft visual studio 10.0\vc\include\xutility
;	COMDAT ??$iter_swap@PAUChangeDirInfo@@PAU1@@std@@YAXPAUChangeDirInfo@@0@Z
_TEXT	SEGMENT
__Left$ = 8						; size = 4
__Right$ = 12						; size = 4
??$iter_swap@PAUChangeDirInfo@@PAU1@@std@@YAXPAUChangeDirInfo@@0@Z PROC ; std::iter_swap<ChangeDirInfo *,ChangeDirInfo *>, COMDAT

; 2133 : 	{	// swap *_Left and *_Right

  00000	55		 push	 ebp
  00001	8b ec		 mov	 ebp, esp

; 2135 : 	}

  00003	5d		 pop	 ebp

; 2134 : 	swap(*_Left, *_Right);

  00004	e9 00 00 00 00	 jmp	 ??$swap@UChangeDirInfo@@@std@@YAXAAUChangeDirInfo@@0@Z ; std::swap<ChangeDirInfo>
??$iter_swap@PAUChangeDirInfo@@PAU1@@std@@YAXPAUChangeDirInfo@@0@Z ENDP ; std::iter_swap<ChangeDirInfo *,ChangeDirInfo *>
_TEXT	ENDS
PUBLIC	??$_Insertion_sort1@PAUChangeDirInfo@@VChangeDirSort@@U1@@std@@YAXPAUChangeDirInfo@@0VChangeDirSort@@0@Z ; std::_Insertion_sort1<ChangeDirInfo *,ChangeDirSort,ChangeDirInfo>
; Function compile flags: /Ogsp
; File c:\program files (x86)\microsoft visual studio 10.0\vc\include\algorithm
;	COMDAT ??$_Insertion_sort1@PAUChangeDirInfo@@VChangeDirSort@@U1@@std@@YAXPAUChangeDirInfo@@0VChangeDirSort@@0@Z
_TEXT	SEGMENT
__Val$586977 = -32					; size = 28
__Next1$586976 = -4					; size = 4
__Cat$589530 = 8					; size = 1
__First$ = 8						; size = 4
__Last$ = 12						; size = 4
__Pred$ = 16						; size = 1
___formal$ = 20						; size = 4
??$_Insertion_sort1@PAUChangeDirInfo@@VChangeDirSort@@U1@@std@@YAXPAUChangeDirInfo@@0VChangeDirSort@@0@Z PROC ; std::_Insertion_sort1<ChangeDirInfo *,ChangeDirSort,ChangeDirInfo>, COMDAT

; 3650 : 	{	// insertion sort [_First, _Last), using _Pred

  00000	55		 push	 ebp
  00001	8b ec		 mov	 ebp, esp

; 3651 : 	if (_First != _Last)

  00003	8b 55 08	 mov	 edx, DWORD PTR __First$[ebp]
  00006	83 ec 20	 sub	 esp, 32			; 00000020H
  00009	3b 55 0c	 cmp	 edx, DWORD PTR __Last$[ebp]
  0000c	0f 84 e1 00 00
	00		 je	 $LN6@Insertion_

; 3652 : 		for (_BidIt _Next = _First; ++_Next != _Last; )

  00012	53		 push	 ebx
  00013	8d 5a 1c	 lea	 ebx, DWORD PTR [edx+28]
  00016	3b 5d 0c	 cmp	 ebx, DWORD PTR __Last$[ebp]
  00019	0f 84 d3 00 00
	00		 je	 $LN40@Insertion_
  0001f	56		 push	 esi
  00020	57		 push	 edi
  00021	eb 03		 jmp	 SHORT $LN7@Insertion_
$LL39@Insertion_:
  00023	8b 55 08	 mov	 edx, DWORD PTR __First$[ebp]
$LN7@Insertion_:

; 3653 : 			{	// order next element
; 3654 : 			_BidIt _Next1 = _Next;
; 3655 : 			_Ty _Val = _Move(*_Next);
; 3656 : 
; 3657 : 			if (_DEBUG_LT_PRED(_Pred, _Val, *_First))

  00026	f3 0f 10 02	 movss	 xmm0, DWORD PTR [edx]
  0002a	6a 07		 push	 7
  0002c	59		 pop	 ecx
  0002d	8b f3		 mov	 esi, ebx
  0002f	8d 7d e0	 lea	 edi, DWORD PTR __Val$586977[ebp]
  00032	f3 a5		 rep movsd
  00034	f3 0f 10 4d e0	 movss	 xmm1, DWORD PTR __Val$586977[ebp]
  00039	0f 5a d1	 cvtps2pd xmm2, xmm1
  0003c	0f 5a d8	 cvtps2pd xmm3, xmm0
  0003f	66 0f 2f da	 comisd	 xmm3, xmm2
  00043	89 5d fc	 mov	 DWORD PTR __Next1$586976[ebp], ebx
  00046	77 29		 ja	 SHORT $LN37@Insertion_
  00048	0f 57 d2	 xorps	 xmm2, xmm2
  0004b	0f 5a d1	 cvtps2pd xmm2, xmm1
  0004e	0f 5a c0	 cvtps2pd xmm0, xmm0
  00051	66 0f 2e d0	 ucomisd xmm2, xmm0
  00055	9f		 lahf
  00056	f6 c4 44	 test	 ah, 68			; 00000044H
  00059	7a 2c		 jp	 SHORT $LN5@Insertion_
  0005b	f3 0f 10 45 ec	 movss	 xmm0, DWORD PTR __Val$586977[ebp+12]
  00060	f3 0f 10 52 0c	 movss	 xmm2, DWORD PTR [edx+12]
  00065	0f 5a c0	 cvtps2pd xmm0, xmm0
  00068	0f 5a d2	 cvtps2pd xmm2, xmm2
  0006b	66 0f 2f d0	 comisd	 xmm2, xmm0
  0006f	76 16		 jbe	 SHORT $LN5@Insertion_
$LN37@Insertion_:

; 3658 : 				{	// found new earliest element, move to front
; 3659 : 				_Move_backward(_First, _Next, ++_Next1);

  00071	ff 75 08	 push	 DWORD PTR __Cat$589530[ebp]
  00074	8d 43 1c	 lea	 eax, DWORD PTR [ebx+28]
  00077	50		 push	 eax
  00078	53		 push	 ebx
  00079	52		 push	 edx
  0007a	e8 00 00 00 00	 call	 ??$_Move_backward@PAUChangeDirInfo@@PAU1@@std@@YAPAUChangeDirInfo@@PAU1@00U_Nonscalar_ptr_iterator_tag@0@@Z ; std::_Move_backward<ChangeDirInfo *,ChangeDirInfo *>

; 3660 : 				*_First = _Move(_Val);

  0007f	8b 7d 08	 mov	 edi, DWORD PTR __First$[ebp]
  00082	83 c4 10	 add	 esp, 16			; 00000010H

; 3661 : 				}
; 3662 : 			else

  00085	eb 55		 jmp	 SHORT $LN42@Insertion_
$LN5@Insertion_:

; 3663 : 				{	// look for insertion point after first
; 3664 : 				for (_BidIt _First1 = _Next1;

  00087	8b d3		 mov	 edx, ebx
$LL3@Insertion_:

; 3665 : 					_DEBUG_LT_PRED(_Pred, _Val, *--_First1);
; 3666 : 					_Next1 = _First1)

  00089	83 ea 1c	 sub	 edx, 28			; 0000001cH
  0008c	f3 0f 10 02	 movss	 xmm0, DWORD PTR [edx]
  00090	0f 57 d2	 xorps	 xmm2, xmm2
  00093	f3 0f 5a d1	 cvtss2sd xmm2, xmm1
  00097	0f 5a d8	 cvtps2pd xmm3, xmm0
  0009a	66 0f 2f da	 comisd	 xmm3, xmm2
  0009e	77 2a		 ja	 SHORT $LN38@Insertion_
  000a0	0f 57 d2	 xorps	 xmm2, xmm2
  000a3	f3 0f 5a d1	 cvtss2sd xmm2, xmm1
  000a7	0f 5a c0	 cvtps2pd xmm0, xmm0
  000aa	66 0f 2e d0	 ucomisd xmm2, xmm0
  000ae	9f		 lahf
  000af	f6 c4 44	 test	 ah, 68			; 00000044H
  000b2	7a 25		 jp	 SHORT $LN25@Insertion_
  000b4	f3 0f 10 45 ec	 movss	 xmm0, DWORD PTR __Val$586977[ebp+12]
  000b9	f3 0f 10 52 0c	 movss	 xmm2, DWORD PTR [edx+12]
  000be	0f 5a c0	 cvtps2pd xmm0, xmm0
  000c1	0f 5a d2	 cvtps2pd xmm2, xmm2
  000c4	66 0f 2f d0	 comisd	 xmm2, xmm0
  000c8	76 0f		 jbe	 SHORT $LN25@Insertion_
$LN38@Insertion_:

; 3667 : 					*_Next1 = _Move(*_First1);	// move hole down

  000ca	8b 7d fc	 mov	 edi, DWORD PTR __Next1$586976[ebp]
  000cd	6a 07		 push	 7
  000cf	59		 pop	 ecx
  000d0	8b f2		 mov	 esi, edx
  000d2	f3 a5		 rep movsd
  000d4	89 55 fc	 mov	 DWORD PTR __Next1$586976[ebp], edx
  000d7	eb b0		 jmp	 SHORT $LL3@Insertion_

; 3665 : 					_DEBUG_LT_PRED(_Pred, _Val, *--_First1);
; 3666 : 					_Next1 = _First1)

$LN25@Insertion_:

; 3668 : 				*_Next1 = _Move(_Val);	// insert element in hole

  000d9	8b 7d fc	 mov	 edi, DWORD PTR __Next1$586976[ebp]
$LN42@Insertion_:
  000dc	6a 07		 push	 7
  000de	83 c3 1c	 add	 ebx, 28			; 0000001cH
  000e1	59		 pop	 ecx
  000e2	8d 75 e0	 lea	 esi, DWORD PTR __Val$586977[ebp]
  000e5	f3 a5		 rep movsd
  000e7	3b 5d 0c	 cmp	 ebx, DWORD PTR __Last$[ebp]
  000ea	0f 85 33 ff ff
	ff		 jne	 $LL39@Insertion_
  000f0	5f		 pop	 edi
  000f1	5e		 pop	 esi
$LN40@Insertion_:
  000f2	5b		 pop	 ebx
$LN6@Insertion_:

; 3669 : 				}
; 3670 : 			}
; 3671 : 	}

  000f3	c9		 leave
  000f4	c3		 ret	 0
??$_Insertion_sort1@PAUChangeDirInfo@@VChangeDirSort@@U1@@std@@YAXPAUChangeDirInfo@@0VChangeDirSort@@0@Z ENDP ; std::_Insertion_sort1<ChangeDirInfo *,ChangeDirSort,ChangeDirInfo>
_TEXT	ENDS
PUBLIC	??$_Cons_val@V?$allocator@UChangeDirInfo@@@std@@UChangeDirInfo@@U3@@std@@YAXAAV?$allocator@UChangeDirInfo@@@0@PAUChangeDirInfo@@$$QAU2@@Z ; std::_Cons_val<std::allocator<ChangeDirInfo>,ChangeDirInfo,ChangeDirInfo>
; Function compile flags: /Ogsp
; File c:\program files (x86)\microsoft visual studio 10.0\vc\include\xmemory
;	COMDAT ??$_Cons_val@V?$allocator@UChangeDirInfo@@@std@@UChangeDirInfo@@U3@@std@@YAXAAV?$allocator@UChangeDirInfo@@@0@PAUChangeDirInfo@@$$QAU2@@Z
_TEXT	SEGMENT
__Alval$ = 8						; size = 4
__Pdest$ = 12						; size = 4
__Src$ = 16						; size = 4
??$_Cons_val@V?$allocator@UChangeDirInfo@@@std@@UChangeDirInfo@@U3@@std@@YAXAAV?$allocator@UChangeDirInfo@@@0@PAUChangeDirInfo@@$$QAU2@@Z PROC ; std::_Cons_val<std::allocator<ChangeDirInfo>,ChangeDirInfo,ChangeDirInfo>, COMDAT

; 279  : 	{	// construct using allocator

  00000	55		 push	 ebp
  00001	8b ec		 mov	 ebp, esp
  00003	57		 push	 edi

; 280  : 	_Alval.construct(_Pdest, _STD forward<_Ty2>(_Src));

  00004	8b 7d 0c	 mov	 edi, DWORD PTR __Pdest$[ebp]
  00007	85 ff		 test	 edi, edi
  00009	74 0a		 je	 SHORT $LN7@Cons_val@5
  0000b	56		 push	 esi
  0000c	8b 75 10	 mov	 esi, DWORD PTR __Src$[ebp]
  0000f	6a 07		 push	 7
  00011	59		 pop	 ecx
  00012	f3 a5		 rep movsd
  00014	5e		 pop	 esi
$LN7@Cons_val@5:
  00015	5f		 pop	 edi

; 281  : 	}

  00016	5d		 pop	 ebp
  00017	c3		 ret	 0
??$_Cons_val@V?$allocator@UChangeDirInfo@@@std@@UChangeDirInfo@@U3@@std@@YAXAAV?$allocator@UChangeDirInfo@@@0@PAUChangeDirInfo@@$$QAU2@@Z ENDP ; std::_Cons_val<std::allocator<ChangeDirInfo>,ChangeDirInfo,ChangeDirInfo>
_TEXT	ENDS
PUBLIC	??$_Cons_val@V?$allocator@USecondAttribute@@@std@@USecondAttribute@@U3@@std@@YAXAAV?$allocator@USecondAttribute@@@0@PAUSecondAttribute@@$$QAU2@@Z ; std::_Cons_val<std::allocator<SecondAttribute>,SecondAttribute,SecondAttribute>
; Function compile flags: /Ogsp
;	COMDAT ??$_Cons_val@V?$allocator@USecondAttribute@@@std@@USecondAttribute@@U3@@std@@YAXAAV?$allocator@USecondAttribute@@@0@PAUSecondAttribute@@$$QAU2@@Z
_TEXT	SEGMENT
__Alval$ = 8						; size = 4
__Pdest$ = 12						; size = 4
__Src$ = 16						; size = 4
??$_Cons_val@V?$allocator@USecondAttribute@@@std@@USecondAttribute@@U3@@std@@YAXAAV?$allocator@USecondAttribute@@@0@PAUSecondAttribute@@$$QAU2@@Z PROC ; std::_Cons_val<std::allocator<SecondAttribute>,SecondAttribute,SecondAttribute>, COMDAT

; 279  : 	{	// construct using allocator

  00000	55		 push	 ebp
  00001	8b ec		 mov	 ebp, esp

; 280  : 	_Alval.construct(_Pdest, _STD forward<_Ty2>(_Src));

  00003	8b 45 0c	 mov	 eax, DWORD PTR __Pdest$[ebp]
  00006	85 c0		 test	 eax, eax
  00008	74 0d		 je	 SHORT $LN7@Cons_val@6
  0000a	8b 4d 10	 mov	 ecx, DWORD PTR __Src$[ebp]
  0000d	8b 11		 mov	 edx, DWORD PTR [ecx]
  0000f	89 10		 mov	 DWORD PTR [eax], edx
  00011	8b 49 04	 mov	 ecx, DWORD PTR [ecx+4]
  00014	89 48 04	 mov	 DWORD PTR [eax+4], ecx
$LN7@Cons_val@6:

; 281  : 	}

  00017	5d		 pop	 ebp
  00018	c3		 ret	 0
??$_Cons_val@V?$allocator@USecondAttribute@@@std@@USecondAttribute@@U3@@std@@YAXAAV?$allocator@USecondAttribute@@@0@PAUSecondAttribute@@$$QAU2@@Z ENDP ; std::_Cons_val<std::allocator<SecondAttribute>,SecondAttribute,SecondAttribute>
_TEXT	ENDS
PUBLIC	??$_Med3@PAUChangeDirInfo@@VChangeDirSort@@@std@@YAXPAUChangeDirInfo@@00VChangeDirSort@@@Z ; std::_Med3<ChangeDirInfo *,ChangeDirSort>
; Function compile flags: /Ogsp
; File c:\program files (x86)\microsoft visual studio 10.0\vc\include\algorithm
;	COMDAT ??$_Med3@PAUChangeDirInfo@@VChangeDirSort@@@std@@YAXPAUChangeDirInfo@@00VChangeDirSort@@@Z
_TEXT	SEGMENT
__First$ = 8						; size = 4
__Mid$ = 12						; size = 4
__Last$ = 16						; size = 4
__Pred$ = 20						; size = 1
??$_Med3@PAUChangeDirInfo@@VChangeDirSort@@@std@@YAXPAUChangeDirInfo@@00VChangeDirSort@@@Z PROC ; std::_Med3<ChangeDirInfo *,ChangeDirSort>, COMDAT

; 3683 : 	{	// sort median of three elements to middle

  00000	55		 push	 ebp
  00001	8b ec		 mov	 ebp, esp
  00003	56		 push	 esi

; 3684 : 	if (_DEBUG_LT_PRED(_Pred, *_Mid, *_First))

  00004	8b 75 0c	 mov	 esi, DWORD PTR __Mid$[ebp]
  00007	f3 0f 10 06	 movss	 xmm0, DWORD PTR [esi]
  0000b	57		 push	 edi
  0000c	8b 7d 08	 mov	 edi, DWORD PTR __First$[ebp]
  0000f	f3 0f 10 0f	 movss	 xmm1, DWORD PTR [edi]
  00013	0f 5a d0	 cvtps2pd xmm2, xmm0
  00016	0f 5a d9	 cvtps2pd xmm3, xmm1
  00019	66 0f 2f da	 comisd	 xmm3, xmm2
  0001d	77 26		 ja	 SHORT $LN30@Med3
  0001f	0f 5a c0	 cvtps2pd xmm0, xmm0
  00022	0f 5a c9	 cvtps2pd xmm1, xmm1
  00025	66 0f 2e c1	 ucomisd xmm0, xmm1
  00029	9f		 lahf
  0002a	f6 c4 44	 test	 ah, 68			; 00000044H
  0002d	7a 1f		 jp	 SHORT $LN12@Med3
  0002f	f3 0f 10 46 0c	 movss	 xmm0, DWORD PTR [esi+12]
  00034	f3 0f 10 4f 0c	 movss	 xmm1, DWORD PTR [edi+12]
  00039	0f 5a c0	 cvtps2pd xmm0, xmm0
  0003c	0f 5a c9	 cvtps2pd xmm1, xmm1
  0003f	66 0f 2f c8	 comisd	 xmm1, xmm0
  00043	76 09		 jbe	 SHORT $LN12@Med3
$LN30@Med3:

; 3685 : 		_STD iter_swap(_Mid, _First);

  00045	57		 push	 edi
  00046	56		 push	 esi
  00047	e8 00 00 00 00	 call	 ??$swap@UChangeDirInfo@@@std@@YAXAAUChangeDirInfo@@0@Z ; std::swap<ChangeDirInfo>
  0004c	59		 pop	 ecx
  0004d	59		 pop	 ecx
$LN12@Med3:

; 3686 : 	if (_DEBUG_LT_PRED(_Pred, *_Last, *_Mid))

  0004e	8b 4d 10	 mov	 ecx, DWORD PTR __Last$[ebp]
  00051	f3 0f 10 01	 movss	 xmm0, DWORD PTR [ecx]
  00055	f3 0f 10 0e	 movss	 xmm1, DWORD PTR [esi]
  00059	0f 5a d0	 cvtps2pd xmm2, xmm0
  0005c	0f 5a d9	 cvtps2pd xmm3, xmm1
  0005f	66 0f 2f da	 comisd	 xmm3, xmm2
  00063	77 26		 ja	 SHORT $LN31@Med3
  00065	0f 5a c0	 cvtps2pd xmm0, xmm0
  00068	0f 5a c9	 cvtps2pd xmm1, xmm1
  0006b	66 0f 2e c1	 ucomisd xmm0, xmm1
  0006f	9f		 lahf
  00070	f6 c4 44	 test	 ah, 68			; 00000044H
  00073	7a 1f		 jp	 SHORT $LN20@Med3
  00075	f3 0f 10 41 0c	 movss	 xmm0, DWORD PTR [ecx+12]
  0007a	f3 0f 10 4e 0c	 movss	 xmm1, DWORD PTR [esi+12]
  0007f	0f 5a c0	 cvtps2pd xmm0, xmm0
  00082	0f 5a c9	 cvtps2pd xmm1, xmm1
  00085	66 0f 2f c8	 comisd	 xmm1, xmm0
  00089	76 09		 jbe	 SHORT $LN20@Med3
$LN31@Med3:

; 3687 : 		_STD iter_swap(_Last, _Mid);

  0008b	56		 push	 esi
  0008c	51		 push	 ecx
  0008d	e8 00 00 00 00	 call	 ??$swap@UChangeDirInfo@@@std@@YAXAAUChangeDirInfo@@0@Z ; std::swap<ChangeDirInfo>
  00092	59		 pop	 ecx
  00093	59		 pop	 ecx
$LN20@Med3:

; 3688 : 	if (_DEBUG_LT_PRED(_Pred, *_Mid, *_First))

  00094	f3 0f 10 06	 movss	 xmm0, DWORD PTR [esi]
  00098	f3 0f 10 0f	 movss	 xmm1, DWORD PTR [edi]
  0009c	0f 5a d0	 cvtps2pd xmm2, xmm0
  0009f	0f 5a d9	 cvtps2pd xmm3, xmm1
  000a2	66 0f 2f da	 comisd	 xmm3, xmm2
  000a6	77 26		 ja	 SHORT $LN32@Med3
  000a8	0f 5a c0	 cvtps2pd xmm0, xmm0
  000ab	0f 5a c9	 cvtps2pd xmm1, xmm1
  000ae	66 0f 2e c1	 ucomisd xmm0, xmm1
  000b2	9f		 lahf
  000b3	f6 c4 44	 test	 ah, 68			; 00000044H
  000b6	7a 1f		 jp	 SHORT $LN28@Med3
  000b8	f3 0f 10 46 0c	 movss	 xmm0, DWORD PTR [esi+12]
  000bd	f3 0f 10 4f 0c	 movss	 xmm1, DWORD PTR [edi+12]
  000c2	0f 5a c0	 cvtps2pd xmm0, xmm0
  000c5	0f 5a c9	 cvtps2pd xmm1, xmm1
  000c8	66 0f 2f c8	 comisd	 xmm1, xmm0
  000cc	76 09		 jbe	 SHORT $LN28@Med3
$LN32@Med3:

; 3689 : 		_STD iter_swap(_Mid, _First);

  000ce	57		 push	 edi
  000cf	56		 push	 esi
  000d0	e8 00 00 00 00	 call	 ??$swap@UChangeDirInfo@@@std@@YAXAAUChangeDirInfo@@0@Z ; std::swap<ChangeDirInfo>
  000d5	59		 pop	 ecx
  000d6	59		 pop	 ecx
$LN28@Med3:
  000d7	5f		 pop	 edi
  000d8	5e		 pop	 esi

; 3690 : 	}

  000d9	5d		 pop	 ebp
  000da	c3		 ret	 0
??$_Med3@PAUChangeDirInfo@@VChangeDirSort@@@std@@YAXPAUChangeDirInfo@@00VChangeDirSort@@@Z ENDP ; std::_Med3<ChangeDirInfo *,ChangeDirSort>
_TEXT	ENDS
PUBLIC	??$_Adjust_heap@PAUChangeDirInfo@@HU1@VChangeDirSort@@@std@@YAXPAUChangeDirInfo@@HH$$QAU1@VChangeDirSort@@@Z ; std::_Adjust_heap<ChangeDirInfo *,int,ChangeDirInfo,ChangeDirSort>
; Function compile flags: /Ogsp
;	COMDAT ??$_Adjust_heap@PAUChangeDirInfo@@HU1@VChangeDirSort@@@std@@YAXPAUChangeDirInfo@@HH$$QAU1@VChangeDirSort@@@Z
_TEXT	SEGMENT
__First$ = 8						; size = 4
__Top$ = 12						; size = 4
__Hole$ = 12						; size = 4
__Bottom$ = 16						; size = 4
__Val$ = 20						; size = 4
__Pred$ = 24						; size = 1
??$_Adjust_heap@PAUChangeDirInfo@@HU1@VChangeDirSort@@@std@@YAXPAUChangeDirInfo@@HH$$QAU1@VChangeDirSort@@@Z PROC ; std::_Adjust_heap<ChangeDirInfo *,int,ChangeDirInfo,ChangeDirSort>, COMDAT

; 2565 : 	{	// percolate _Hole to _Bottom, then push _Val, using _Pred

  00000	55		 push	 ebp
  00001	8b ec		 mov	 ebp, esp
  00003	53		 push	 ebx

; 2566 : 	_Diff _Top = _Hole;
; 2567 : 	_Diff _Idx = 2 * _Hole + 2;
; 2568 : 
; 2569 : 	for (; _Idx < _Bottom; _Idx = 2 * _Idx + 2)

  00004	8b 5d 08	 mov	 ebx, DWORD PTR __First$[ebp]
  00007	56		 push	 esi
  00008	57		 push	 edi
  00009	8b 7d 0c	 mov	 edi, DWORD PTR __Hole$[ebp]
  0000c	89 7d 0c	 mov	 DWORD PTR __Top$[ebp], edi
  0000f	8d 54 3f 02	 lea	 edx, DWORD PTR [edi+edi+2]
  00013	eb 5a		 jmp	 SHORT $LN25@Adjust_hea
$LL5@Adjust_hea:

; 2570 : 		{	// move _Hole down to larger child
; 2571 : 		if (_DEBUG_LT_PRED(_Pred, *(_First + _Idx), *(_First + (_Idx - 1))))

  00015	8b ca		 mov	 ecx, edx
  00017	6b c9 1c	 imul	 ecx, 28			; 0000001cH
  0001a	03 cb		 add	 ecx, ebx
  0001c	f3 0f 10 01	 movss	 xmm0, DWORD PTR [ecx]
  00020	f3 0f 10 49 e4	 movss	 xmm1, DWORD PTR [ecx-28]
  00025	0f 5a d0	 cvtps2pd xmm2, xmm0
  00028	0f 5a d9	 cvtps2pd xmm3, xmm1
  0002b	66 0f 2f da	 comisd	 xmm3, xmm2
  0002f	77 26		 ja	 SHORT $LN22@Adjust_hea
  00031	0f 5a c0	 cvtps2pd xmm0, xmm0
  00034	0f 5a c9	 cvtps2pd xmm1, xmm1
  00037	66 0f 2e c1	 ucomisd xmm0, xmm1
  0003b	9f		 lahf
  0003c	f6 c4 44	 test	 ah, 68			; 00000044H
  0003f	7a 17		 jp	 SHORT $LN23@Adjust_hea
  00041	f3 0f 10 41 0c	 movss	 xmm0, DWORD PTR [ecx+12]
  00046	f3 0f 10 49 f0	 movss	 xmm1, DWORD PTR [ecx-16]
  0004b	0f 5a c0	 cvtps2pd xmm0, xmm0
  0004e	0f 5a c9	 cvtps2pd xmm1, xmm1
  00051	66 0f 2f c8	 comisd	 xmm1, xmm0
  00055	76 01		 jbe	 SHORT $LN23@Adjust_hea
$LN22@Adjust_hea:

; 2572 : 			--_Idx;

  00057	4a		 dec	 edx
$LN23@Adjust_hea:

; 2573 : 		*(_First + _Hole) = _Move(*(_First + _Idx));

  00058	8b f2		 mov	 esi, edx
  0005a	6b ff 1c	 imul	 edi, 28			; 0000001cH
  0005d	6b f6 1c	 imul	 esi, 28			; 0000001cH
  00060	03 f3		 add	 esi, ebx
  00062	6a 07		 push	 7
  00064	03 fb		 add	 edi, ebx
  00066	59		 pop	 ecx
  00067	f3 a5		 rep movsd

; 2574 : 		_Hole = _Idx;

  00069	8b fa		 mov	 edi, edx
  0006b	8d 54 12 02	 lea	 edx, DWORD PTR [edx+edx+2]
$LN25@Adjust_hea:

; 2566 : 	_Diff _Top = _Hole;
; 2567 : 	_Diff _Idx = 2 * _Hole + 2;
; 2568 : 
; 2569 : 	for (; _Idx < _Bottom; _Idx = 2 * _Idx + 2)

  0006f	8b 45 10	 mov	 eax, DWORD PTR __Bottom$[ebp]
  00072	3b d0		 cmp	 edx, eax
  00074	7c 9f		 jl	 SHORT $LL5@Adjust_hea

; 2575 : 		}
; 2576 : 
; 2577 : 	if (_Idx == _Bottom)

  00076	75 16		 jne	 SHORT $LN1@Adjust_hea

; 2578 : 		{	// only child at bottom, move _Hole down to it
; 2579 : 		*(_First + _Hole) = _Move(*(_First + (_Bottom - 1)));

  00078	8b c8		 mov	 ecx, eax
  0007a	6b ff 1c	 imul	 edi, 28			; 0000001cH
  0007d	6b c9 1c	 imul	 ecx, 28			; 0000001cH
  00080	8d 74 19 e4	 lea	 esi, DWORD PTR [ecx+ebx-28]
  00084	6a 07		 push	 7
  00086	03 fb		 add	 edi, ebx
  00088	59		 pop	 ecx
  00089	f3 a5		 rep movsd

; 2580 : 		_Hole = _Bottom - 1;

  0008b	8d 78 ff	 lea	 edi, DWORD PTR [eax-1]
$LN1@Adjust_hea:

; 2581 : 		}
; 2582 : 	_Push_heap(_First, _Hole, _Top, _Move(_Val), _Pred);

  0008e	ff 75 18	 push	 DWORD PTR __Pred$[ebp]
  00091	ff 75 14	 push	 DWORD PTR __Val$[ebp]
  00094	ff 75 0c	 push	 DWORD PTR __Top$[ebp]
  00097	57		 push	 edi
  00098	53		 push	 ebx
  00099	e8 00 00 00 00	 call	 ??$_Push_heap@PAUChangeDirInfo@@HU1@VChangeDirSort@@@std@@YAXPAUChangeDirInfo@@HH$$QAU1@VChangeDirSort@@@Z ; std::_Push_heap<ChangeDirInfo *,int,ChangeDirInfo,ChangeDirSort>
  0009e	83 c4 14	 add	 esp, 20			; 00000014H
  000a1	5f		 pop	 edi
  000a2	5e		 pop	 esi
  000a3	5b		 pop	 ebx

; 2583 : 	}

  000a4	5d		 pop	 ebp
  000a5	c3		 ret	 0
??$_Adjust_heap@PAUChangeDirInfo@@HU1@VChangeDirSort@@@std@@YAXPAUChangeDirInfo@@HH$$QAU1@VChangeDirSort@@@Z ENDP ; std::_Adjust_heap<ChangeDirInfo *,int,ChangeDirInfo,ChangeDirSort>
_TEXT	ENDS
PUBLIC	??$_Pop_heap@PAUChangeDirInfo@@HU1@VChangeDirSort@@@std@@YAXPAUChangeDirInfo@@00$$QAU1@VChangeDirSort@@PAH@Z ; std::_Pop_heap<ChangeDirInfo *,int,ChangeDirInfo,ChangeDirSort>
; Function compile flags: /Ogsp
;	COMDAT ??$_Pop_heap@PAUChangeDirInfo@@HU1@VChangeDirSort@@@std@@YAXPAUChangeDirInfo@@00$$QAU1@VChangeDirSort@@PAH@Z
_TEXT	SEGMENT
__First$ = 8						; size = 4
__Last$ = 12						; size = 4
__Dest$ = 16						; size = 4
__Val$ = 20						; size = 4
__Pred$ = 24						; size = 1
___formal$ = 28						; size = 4
??$_Pop_heap@PAUChangeDirInfo@@HU1@VChangeDirSort@@@std@@YAXPAUChangeDirInfo@@00$$QAU1@VChangeDirSort@@PAH@Z PROC ; std::_Pop_heap<ChangeDirInfo *,int,ChangeDirInfo,ChangeDirSort>, COMDAT

; 2591 : 	{	// pop *_First to *_Dest and reheap, using _Pred

  00000	55		 push	 ebp
  00001	8b ec		 mov	 ebp, esp

; 2592 : 	*_Dest = _Move(*_First);
; 2593 : 	_Adjust_heap(_First, _Diff(0), _Diff(_Last - _First),
; 2594 : 		_Move(_Val), _Pred);

  00003	8b 45 0c	 mov	 eax, DWORD PTR __Last$[ebp]
  00006	2b 45 08	 sub	 eax, DWORD PTR __First$[ebp]
  00009	56		 push	 esi
  0000a	8b 75 08	 mov	 esi, DWORD PTR __First$[ebp]
  0000d	57		 push	 edi
  0000e	8b 7d 10	 mov	 edi, DWORD PTR __Dest$[ebp]
  00011	6a 07		 push	 7
  00013	59		 pop	 ecx
  00014	ff 75 18	 push	 DWORD PTR __Pred$[ebp]
  00017	f3 a5		 rep movsd
  00019	ff 75 14	 push	 DWORD PTR __Val$[ebp]
  0001c	99		 cdq
  0001d	6a 1c		 push	 28			; 0000001cH
  0001f	59		 pop	 ecx
  00020	f7 f9		 idiv	 ecx
  00022	50		 push	 eax
  00023	6a 00		 push	 0
  00025	ff 75 08	 push	 DWORD PTR __First$[ebp]
  00028	e8 00 00 00 00	 call	 ??$_Adjust_heap@PAUChangeDirInfo@@HU1@VChangeDirSort@@@std@@YAXPAUChangeDirInfo@@HH$$QAU1@VChangeDirSort@@@Z ; std::_Adjust_heap<ChangeDirInfo *,int,ChangeDirInfo,ChangeDirSort>
  0002d	83 c4 14	 add	 esp, 20			; 00000014H
  00030	5f		 pop	 edi
  00031	5e		 pop	 esi

; 2595 : 	}

  00032	5d		 pop	 ebp
  00033	c3		 ret	 0
??$_Pop_heap@PAUChangeDirInfo@@HU1@VChangeDirSort@@@std@@YAXPAUChangeDirInfo@@00$$QAU1@VChangeDirSort@@PAH@Z ENDP ; std::_Pop_heap<ChangeDirInfo *,int,ChangeDirInfo,ChangeDirSort>
_TEXT	ENDS
PUBLIC	?GetSubSkillType@ioSkill@@QBEHXZ		; ioSkill::GetSubSkillType
; Function compile flags: /Ogsp
; File d:\lost saga for developer\youtube\tutorial\source\src\lsclient\ioskill.h
;	COMDAT ?GetSubSkillType@ioSkill@@QBEHXZ
_TEXT	SEGMENT
_value$589685 = -4					; size = 4
?GetSubSkillType@ioSkill@@QBEHXZ PROC			; ioSkill::GetSubSkillType, COMDAT
; _this$ = ecx

; 399  : 	inline int GetSubSkillType() const { return m_iSubSkillType; }

  00000	55		 push	 ebp
  00001	8b ec		 mov	 ebp, esp
  00003	51		 push	 ecx
  00004	8d 45 fc	 lea	 eax, DWORD PTR _value$589685[ebp]
  00007	50		 push	 eax
  00008	81 c1 20 03 00
	00		 add	 ecx, 800		; 00000320H
  0000e	e8 00 00 00 00	 call	 ?DecryptValueToPool@?$CEncrypt@H@@QAEXPAH@Z ; CEncrypt<int>::DecryptValueToPool
  00013	8b 45 fc	 mov	 eax, DWORD PTR _value$589685[ebp]
  00016	c9		 leave
  00017	c3		 ret	 0
?GetSubSkillType@ioSkill@@QBEHXZ ENDP			; ioSkill::GetSubSkillType
_TEXT	ENDS
PUBLIC	??_R0?AVioTargetWarpSkill@@@8			; ioTargetWarpSkill `RTTI Type Descriptor'
PUBLIC	?ToTargetWarpSkill@@YAPAVioTargetWarpSkill@@PAVioSkill@@@Z ; ToTargetWarpSkill
;	COMDAT ??_R0?AVioTargetWarpSkill@@@8
; File d:\lost saga for developer\youtube\tutorial\source\src\lsclient\encryptvalue.h
_DATA	SEGMENT
??_R0?AVioTargetWarpSkill@@@8 DD FLAT:??_7type_info@@6B@ ; ioTargetWarpSkill `RTTI Type Descriptor'
	DD	00H
	DB	'.?AVioTargetWarpSkill@@', 00H
; Function compile flags: /Ogsp
; File d:\lost saga for developer\youtube\tutorial\source\src\lsclient\iotargetwarpskill.h
_DATA	ENDS
;	COMDAT ?ToTargetWarpSkill@@YAPAVioTargetWarpSkill@@PAVioSkill@@@Z
_TEXT	SEGMENT
_value$589699 = -4					; size = 4
_pSkill$ = 8						; size = 4
?ToTargetWarpSkill@@YAPAVioTargetWarpSkill@@PAVioSkill@@@Z PROC ; ToTargetWarpSkill, COMDAT

; 64   : {

  00000	55		 push	 ebp
  00001	8b ec		 mov	 ebp, esp
  00003	51		 push	 ecx
  00004	56		 push	 esi

; 65   : 	ioAttackSkill *pAttack = ToAttackSkill( pSkill );

  00005	ff 75 08	 push	 DWORD PTR _pSkill$[ebp]
  00008	e8 00 00 00 00	 call	 ?ToAttackSkill@@YAPAVioAttackSkill@@PAVioSkill@@@Z ; ToAttackSkill
  0000d	8b f0		 mov	 esi, eax
  0000f	59		 pop	 ecx

; 66   : 	if( !pAttack || pAttack->GetSubSkillType() != AST_TARGET_WARP )

  00010	85 f6		 test	 esi, esi
  00012	74 2e		 je	 SHORT $LN1@ToTargetWa
  00014	8d 45 fc	 lea	 eax, DWORD PTR _value$589699[ebp]
  00017	50		 push	 eax
  00018	8d 8e 20 03 00
	00		 lea	 ecx, DWORD PTR [esi+800]
  0001e	e8 00 00 00 00	 call	 ?DecryptValueToPool@?$CEncrypt@H@@QAEXPAH@Z ; CEncrypt<int>::DecryptValueToPool
  00023	83 7d fc 2e	 cmp	 DWORD PTR _value$589699[ebp], 46 ; 0000002eH
  00027	75 19		 jne	 SHORT $LN1@ToTargetWa

; 68   : 
; 69   : 	return dynamic_cast< ioTargetWarpSkill* >(pAttack);

  00029	6a 00		 push	 0
  0002b	68 00 00 00 00	 push	 OFFSET ??_R0?AVioTargetWarpSkill@@@8
  00030	68 00 00 00 00	 push	 OFFSET ??_R0?AVioAttackSkill@@@8
  00035	6a 00		 push	 0
  00037	56		 push	 esi
  00038	e8 00 00 00 00	 call	 ___RTDynamicCast
  0003d	83 c4 14	 add	 esp, 20			; 00000014H
  00040	eb 02		 jmp	 SHORT $LN3@ToTargetWa
$LN1@ToTargetWa:

; 67   : 		return NULL;

  00042	33 c0		 xor	 eax, eax
$LN3@ToTargetWa:
  00044	5e		 pop	 esi

; 70   : }

  00045	c9		 leave
  00046	c3		 ret	 0
?ToTargetWarpSkill@@YAPAVioTargetWarpSkill@@PAVioSkill@@@Z ENDP ; ToTargetWarpSkill
_TEXT	ENDS
PUBLIC	__$ArrayPad$
PUBLIC	?SetEndState@ioMissileWeapon2@@QAEX_N0@Z	; ioMissileWeapon2::SetEndState
EXTRN	??1SP2Packet@@UAE@XZ:PROC			; SP2Packet::~SP2Packet
EXTRN	?SendToAllPlayingUser@P2PNetwork@@YAXAAVSP2Packet@@PAVioBaseChar@@@Z:PROC ; P2PNetwork::SendToAllPlayingUser
EXTRN	??6SP2Packet@@QAEAAV0@_N@Z:PROC			; SP2Packet::operator<<
EXTRN	??6SP2Packet@@QAEAAV0@H@Z:PROC			; SP2Packet::operator<<
EXTRN	??6SP2Packet@@QAEAAV0@K@Z:PROC			; SP2Packet::operator<<
EXTRN	??6SP2Packet@@QAEAAV0@ABVioHashString@@@Z:PROC	; SP2Packet::operator<<
EXTRN	??0SP2Packet@@QAE@K@Z:PROC			; SP2Packet::SP2Packet
EXTRN	__imp_?EndEffectGrace@ioEffect@@QAEXXZ:PROC
EXTRN	?SetWarpMotionState@ioTargetWarpSkill@@QAEXPAVioBaseChar@@PAVioWeapon@@@Z:PROC ; ioTargetWarpSkill::SetWarpMotionState
EXTRN	__imp_??8ioHashString@@QBE_NABV0@@Z:PROC
EXTRN	?GetWeaponBySkillName@ioWeapon@@QBEABVioHashString@@XZ:PROC ; ioWeapon::GetWeaponBySkillName
EXTRN	?GetCurActiveSkill@ioBaseChar@@QAEPAVioSkill@@XZ:PROC ; ioBaseChar::GetCurActiveSkill
EXTRN	__chkstk:PROC
;	COMDAT xdata$x
; File d:\lost saga for developer\youtube\tutorial\source\src\lsclient\ioweapon.h
xdata$x	SEGMENT
__unwindtable$?SetEndState@ioMissileWeapon2@@QAEX_N0@Z DD 0ffffffffH
	DD	FLAT:__unwindfunclet$?SetEndState@ioMissileWeapon2@@QAEX_N0@Z$0
__ehfuncinfo$?SetEndState@ioMissileWeapon2@@QAEX_N0@Z DD 019930522H
	DD	01H
	DD	FLAT:__unwindtable$?SetEndState@ioMissileWeapon2@@QAEX_N0@Z
	DD	2 DUP(00H)
	DD	2 DUP(00H)
	DD	00H
	DD	01H
; Function compile flags: /Ogsp
; File d:\lost saga for developer\youtube\tutorial\source\src\lsclient\iomissileweapon2.cpp
xdata$x	ENDS
;	COMDAT ?SetEndState@ioMissileWeapon2@@QAEX_N0@Z
_TEXT	SEGMENT
_kPacket$584560 = -32808				; size = 32792
__$ArrayPad$ = -16					; size = 4
__$EHRec$ = -12						; size = 12
_bSkillEnd$ = 8						; size = 1
_bSendNet$ = 12						; size = 1
?SetEndState@ioMissileWeapon2@@QAEX_N0@Z PROC		; ioMissileWeapon2::SetEndState, COMDAT
; _this$ = ecx

; 452  : {

  00000	55		 push	 ebp
  00001	8b ec		 mov	 ebp, esp
  00003	6a ff		 push	 -1
  00005	68 00 00 00 00	 push	 __ehhandler$?SetEndState@ioMissileWeapon2@@QAEX_N0@Z
  0000a	64 a1 00 00 00
	00		 mov	 eax, DWORD PTR fs:0
  00010	50		 push	 eax
  00011	b8 1c 80 00 00	 mov	 eax, 32796		; 0000801cH
  00016	e8 00 00 00 00	 call	 __chkstk
  0001b	a1 00 00 00 00	 mov	 eax, DWORD PTR ___security_cookie
  00020	33 c5		 xor	 eax, ebp
  00022	89 45 f0	 mov	 DWORD PTR __$ArrayPad$[ebp], eax
  00025	53		 push	 ebx
  00026	56		 push	 esi
  00027	57		 push	 edi
  00028	50		 push	 eax
  00029	8d 45 f4	 lea	 eax, DWORD PTR __$EHRec$[ebp]
  0002c	64 a3 00 00 00
	00		 mov	 DWORD PTR fs:0, eax

; 453  : 	if( m_WeaponState == WS_END )

  00032	33 c0		 xor	 eax, eax
  00034	8b f1		 mov	 esi, ecx
  00036	40		 inc	 eax
  00037	39 86 94 08 00
	00		 cmp	 DWORD PTR [esi+2196], eax
  0003d	0f 84 02 01 00
	00		 je	 $LN1@SetEndStat

; 454  : 		return;
; 455  : 
; 456  : 	m_WeaponState = WS_END;
; 457  : 	UpdateWorldAttackBox( 0, true );

  00043	0f 57 c0	 xorps	 xmm0, xmm0
  00046	8b 16		 mov	 edx, DWORD PTR [esi]
  00048	50		 push	 eax
  00049	51		 push	 ecx
  0004a	89 86 94 08 00
	00		 mov	 DWORD PTR [esi+2196], eax
  00050	f3 0f 11 04 24	 movss	 DWORD PTR [esp], xmm0
  00055	ff 92 38 01 00
	00		 call	 DWORD PTR [edx+312]

; 458  : 	StopLoopSound();

  0005b	8b 06		 mov	 eax, DWORD PTR [esi]
  0005d	8b ce		 mov	 ecx, esi
  0005f	ff 50 60	 call	 DWORD PTR [eax+96]

; 459  : 
; 460  : 	ioBaseChar *pOwner = GetOwner();

  00062	8b ce		 mov	 ecx, esi
  00064	e8 00 00 00 00	 call	 ?GetOwner@ioWeapon@@QBEPAVioBaseChar@@XZ ; ioWeapon::GetOwner
  00069	8b d8		 mov	 ebx, eax

; 461  : 	if( !pOwner ) return;

  0006b	85 db		 test	 ebx, ebx
  0006d	0f 84 d2 00 00
	00		 je	 $LN1@SetEndStat

; 462  : 
; 463  : 	ioTargetWarpSkill *pTargetWarpSkill = ToTargetWarpSkill( pOwner->GetCurActiveSkill() );

  00073	8b cb		 mov	 ecx, ebx
  00075	e8 00 00 00 00	 call	 ?GetCurActiveSkill@ioBaseChar@@QAEPAVioSkill@@XZ ; ioBaseChar::GetCurActiveSkill
  0007a	50		 push	 eax
  0007b	e8 00 00 00 00	 call	 ?ToTargetWarpSkill@@YAPAVioTargetWarpSkill@@PAVioSkill@@@Z ; ToTargetWarpSkill

; 464  : 	if( bSkillEnd && pTargetWarpSkill )

  00080	80 7d 08 00	 cmp	 BYTE PTR _bSkillEnd$[ebp], 0
  00084	59		 pop	 ecx
  00085	8b f8		 mov	 edi, eax
  00087	74 22		 je	 SHORT $LN3@SetEndStat
  00089	85 ff		 test	 edi, edi
  0008b	74 1e		 je	 SHORT $LN3@SetEndStat

; 465  : 	{
; 466  : 		if( pTargetWarpSkill->GetName() == GetWeaponBySkillName() )

  0008d	8b ce		 mov	 ecx, esi
  0008f	e8 00 00 00 00	 call	 ?GetWeaponBySkillName@ioWeapon@@QBEABVioHashString@@XZ ; ioWeapon::GetWeaponBySkillName
  00094	50		 push	 eax
  00095	8d 4f 24	 lea	 ecx, DWORD PTR [edi+36]
  00098	ff 15 00 00 00
	00		 call	 DWORD PTR __imp_??8ioHashString@@QBE_NABV0@@Z
  0009e	84 c0		 test	 al, al
  000a0	74 09		 je	 SHORT $LN3@SetEndStat

; 467  : 			pTargetWarpSkill->SetWarpMotionState( pOwner, this );

  000a2	56		 push	 esi
  000a3	53		 push	 ebx
  000a4	8b cf		 mov	 ecx, edi
  000a6	e8 00 00 00 00	 call	 ?SetWarpMotionState@ioTargetWarpSkill@@QAEXPAVioBaseChar@@PAVioWeapon@@@Z ; ioTargetWarpSkill::SetWarpMotionState
$LN3@SetEndStat:

; 468  : 	}
; 469  : 
; 470  : 	if( m_pFireBall )

  000ab	8b 8e 98 08 00
	00		 mov	 ecx, DWORD PTR [esi+2200]
  000b1	85 c9		 test	 ecx, ecx
  000b3	74 06		 je	 SHORT $LN2@SetEndStat

; 471  : 		m_pFireBall->EndEffectGrace();

  000b5	ff 15 00 00 00
	00		 call	 DWORD PTR __imp_?EndEffectGrace@ioEffect@@QAEXXZ
$LN2@SetEndStat:

; 472  : 
; 473  : 	if( bSendNet && pOwner->IsNeedSendNetwork() )

  000bb	80 7d 0c 00	 cmp	 BYTE PTR _bSendNet$[ebp], 0
  000bf	0f 84 80 00 00
	00		 je	 $LN1@SetEndStat
  000c5	8b 03		 mov	 eax, DWORD PTR [ebx]
  000c7	8b cb		 mov	 ecx, ebx
  000c9	ff 90 04 01 00
	00		 call	 DWORD PTR [eax+260]
  000cf	84 c0		 test	 al, al
  000d1	74 72		 je	 SHORT $LN1@SetEndStat

; 474  : 	{
; 475  : 		SP2Packet kPacket( CUPK_WEAPON_SYNC );

  000d3	68 16 42 00 00	 push	 16918			; 00004216H
  000d8	8d 8d d8 7f ff
	ff		 lea	 ecx, DWORD PTR _kPacket$584560[ebp]
  000de	e8 00 00 00 00	 call	 ??0SP2Packet@@QAE@K@Z	; SP2Packet::SP2Packet
  000e3	83 65 fc 00	 and	 DWORD PTR __$EHRec$[ebp+8], 0

; 476  : 		kPacket << GetOwnerName();

  000e7	8d 46 10	 lea	 eax, DWORD PTR [esi+16]
  000ea	50		 push	 eax
  000eb	8d 8d d8 7f ff
	ff		 lea	 ecx, DWORD PTR _kPacket$584560[ebp]
  000f1	e8 00 00 00 00	 call	 ??6SP2Packet@@QAEAAV0@ABVioHashString@@@Z ; SP2Packet::operator<<

; 477  : 		kPacket << m_dwWeaponIdx;

  000f6	ff b6 b8 04 00
	00		 push	 DWORD PTR [esi+1208]
  000fc	8d 8d d8 7f ff
	ff		 lea	 ecx, DWORD PTR _kPacket$584560[ebp]
  00102	e8 00 00 00 00	 call	 ??6SP2Packet@@QAEAAV0@K@Z ; SP2Packet::operator<<

; 478  : 		kPacket << m_WeaponState;

  00107	ff b6 94 08 00
	00		 push	 DWORD PTR [esi+2196]
  0010d	8d 8d d8 7f ff
	ff		 lea	 ecx, DWORD PTR _kPacket$584560[ebp]
  00113	e8 00 00 00 00	 call	 ??6SP2Packet@@QAEAAV0@H@Z ; SP2Packet::operator<<

; 479  : 		kPacket << bSkillEnd;

  00118	ff 75 08	 push	 DWORD PTR _bSkillEnd$[ebp]
  0011b	8d 8d d8 7f ff
	ff		 lea	 ecx, DWORD PTR _kPacket$584560[ebp]
  00121	e8 00 00 00 00	 call	 ??6SP2Packet@@QAEAAV0@_N@Z ; SP2Packet::operator<<

; 480  : 		P2PNetwork::SendToAllPlayingUser( kPacket );

  00126	8d 85 d8 7f ff
	ff		 lea	 eax, DWORD PTR _kPacket$584560[ebp]
  0012c	6a 00		 push	 0
  0012e	50		 push	 eax
  0012f	e8 00 00 00 00	 call	 ?SendToAllPlayingUser@P2PNetwork@@YAXAAVSP2Packet@@PAVioBaseChar@@@Z ; P2PNetwork::SendToAllPlayingUser

; 481  : 	}

  00134	83 4d fc ff	 or	 DWORD PTR __$EHRec$[ebp+8], -1
  00138	59		 pop	 ecx
  00139	59		 pop	 ecx
  0013a	8d 8d d8 7f ff
	ff		 lea	 ecx, DWORD PTR _kPacket$584560[ebp]
  00140	e8 00 00 00 00	 call	 ??1SP2Packet@@UAE@XZ	; SP2Packet::~SP2Packet
$LN1@SetEndStat:

; 482  : }

  00145	8b 4d f4	 mov	 ecx, DWORD PTR __$EHRec$[ebp]
  00148	64 89 0d 00 00
	00 00		 mov	 DWORD PTR fs:0, ecx
  0014f	59		 pop	 ecx
  00150	5f		 pop	 edi
  00151	5e		 pop	 esi
  00152	5b		 pop	 ebx
  00153	8b 4d f0	 mov	 ecx, DWORD PTR __$ArrayPad$[ebp]
  00156	33 cd		 xor	 ecx, ebp
  00158	e8 00 00 00 00	 call	 @__security_check_cookie@4
  0015d	c9		 leave
  0015e	c2 08 00	 ret	 8
_TEXT	ENDS
;	COMDAT text$x
text$x	SEGMENT
__unwindfunclet$?SetEndState@ioMissileWeapon2@@QAEX_N0@Z$0:
  00000	8d 8d d8 7f ff
	ff		 lea	 ecx, DWORD PTR _kPacket$584560[ebp]
  00006	e9 00 00 00 00	 jmp	 ??1SP2Packet@@UAE@XZ	; SP2Packet::~SP2Packet
__ehhandler$?SetEndState@ioMissileWeapon2@@QAEX_N0@Z:
  0000b	8b 54 24 08	 mov	 edx, DWORD PTR [esp+8]
  0000f	8d 42 0c	 lea	 eax, DWORD PTR [edx+12]
  00012	8b 8a d4 7f ff
	ff		 mov	 ecx, DWORD PTR [edx-32812]
  00018	33 c8		 xor	 ecx, eax
  0001a	e8 00 00 00 00	 call	 @__security_check_cookie@4
  0001f	8b 4a fc	 mov	 ecx, DWORD PTR [edx-4]
  00022	33 c8		 xor	 ecx, eax
  00024	e8 00 00 00 00	 call	 @__security_check_cookie@4
  00029	b8 00 00 00 00	 mov	 eax, OFFSET __ehfuncinfo$?SetEndState@ioMissileWeapon2@@QAEX_N0@Z
  0002e	e9 00 00 00 00	 jmp	 ___CxxFrameHandler3
text$x	ENDS
?SetEndState@ioMissileWeapon2@@QAEX_N0@Z ENDP		; ioMissileWeapon2::SetEndState
PUBLIC	?ApplyWeaponSync@ioMissileWeapon2@@UAEXAAVSP2Packet@@PAVioPlayStage@@@Z ; ioMissileWeapon2::ApplyWeaponSync
EXTRN	??5SP2Packet@@QAEAAV0@AA_N@Z:PROC		; SP2Packet::operator>>
EXTRN	??5SP2Packet@@QAEAAV0@AAH@Z:PROC		; SP2Packet::operator>>
; Function compile flags: /Ogsp
;	COMDAT ?ApplyWeaponSync@ioMissileWeapon2@@UAEXAAVSP2Packet@@PAVioPlayStage@@@Z
_TEXT	SEGMENT
_iState$ = -4						; size = 4
_bSkillEnd$584572 = 8					; size = 1
_rkPacket$ = 8						; size = 4
_pStage$ = 12						; size = 4
?ApplyWeaponSync@ioMissileWeapon2@@UAEXAAVSP2Packet@@PAVioPlayStage@@@Z PROC ; ioMissileWeapon2::ApplyWeaponSync, COMDAT
; _this$ = ecx

; 485  : {

  00000	55		 push	 ebp
  00001	8b ec		 mov	 ebp, esp
  00003	51		 push	 ecx
  00004	56		 push	 esi

; 486  : 	int iState;
; 487  : 	rkPacket >> iState;

  00005	8d 45 fc	 lea	 eax, DWORD PTR _iState$[ebp]
  00008	8b f1		 mov	 esi, ecx
  0000a	8b 4d 08	 mov	 ecx, DWORD PTR _rkPacket$[ebp]
  0000d	50		 push	 eax
  0000e	e8 00 00 00 00	 call	 ??5SP2Packet@@QAEAAV0@AAH@Z ; SP2Packet::operator>>

; 488  : 
; 489  : 	switch( iState )

  00013	8b 45 fc	 mov	 eax, DWORD PTR _iState$[ebp]
  00016	48		 dec	 eax
  00017	75 18		 jne	 SHORT $LN2@ApplyWeapo

; 490  : 	{
; 491  : 	case WS_END:
; 492  : 		{
; 493  : 			bool bSkillEnd;
; 494  : 			rkPacket >> bSkillEnd;

  00019	8b 4d 08	 mov	 ecx, DWORD PTR _rkPacket$[ebp]
  0001c	8d 45 08	 lea	 eax, DWORD PTR _bSkillEnd$584572[ebp]
  0001f	50		 push	 eax
  00020	e8 00 00 00 00	 call	 ??5SP2Packet@@QAEAAV0@AA_N@Z ; SP2Packet::operator>>

; 495  : 
; 496  : 			SetEndState( bSkillEnd, false );

  00025	6a 00		 push	 0
  00027	ff 75 08	 push	 DWORD PTR _bSkillEnd$584572[ebp]
  0002a	8b ce		 mov	 ecx, esi
  0002c	e8 00 00 00 00	 call	 ?SetEndState@ioMissileWeapon2@@QAEX_N0@Z ; ioMissileWeapon2::SetEndState
$LN2@ApplyWeapo:
  00031	5e		 pop	 esi

; 497  : 		}
; 498  : 		break;
; 499  : 	}
; 500  : }

  00032	c9		 leave
  00033	c2 08 00	 ret	 8
?ApplyWeaponSync@ioMissileWeapon2@@UAEXAAVSP2Packet@@PAVioPlayStage@@@Z ENDP ; ioMissileWeapon2::ApplyWeaponSync
_TEXT	ENDS
PUBLIC	?CheckPreCollision@ioMissileWeapon2@@UAEXPAVioPlayEntity@@PAVioPlayStage@@@Z ; ioMissileWeapon2::CheckPreCollision
; Function compile flags: /Ogsp
;	COMDAT ?CheckPreCollision@ioMissileWeapon2@@UAEXPAVioPlayEntity@@PAVioPlayStage@@@Z
_TEXT	SEGMENT
_pTarget$ = 8						; size = 4
_pStage$ = 12						; size = 4
?CheckPreCollision@ioMissileWeapon2@@UAEXPAVioPlayEntity@@PAVioPlayStage@@@Z PROC ; ioMissileWeapon2::CheckPreCollision, COMDAT
; _this$ = ecx

; 503  : {

  00000	55		 push	 ebp
  00001	8b ec		 mov	 ebp, esp
  00003	53		 push	 ebx
  00004	8b d9		 mov	 ebx, ecx

; 504  : 	ioBaseChar *pOwner = GetOwner();

  00006	e8 00 00 00 00	 call	 ?GetOwner@ioWeapon@@QBEPAVioBaseChar@@XZ ; ioWeapon::GetOwner

; 505  : 	if( !pOwner || !pOwner->IsNeedProcess() )

  0000b	85 c0		 test	 eax, eax
  0000d	74 71		 je	 SHORT $LN4@CheckPreCo
  0000f	8b 10		 mov	 edx, DWORD PTR [eax]
  00011	8b c8		 mov	 ecx, eax
  00013	ff 92 00 01 00
	00		 call	 DWORD PTR [edx+256]
  00019	84 c0		 test	 al, al
  0001b	74 63		 je	 SHORT $LN4@CheckPreCo

; 506  : 		return;
; 507  : 
; 508  : 	if( pTarget->IsWoundedCollision( GetWorldAttackBox() ) )

  0001d	56		 push	 esi
  0001e	57		 push	 edi
  0001f	8b 7d 08	 mov	 edi, DWORD PTR _pTarget$[ebp]
  00022	8b 37		 mov	 esi, DWORD PTR [edi]
  00024	6a 00		 push	 0
  00026	6a 00		 push	 0
  00028	8b cb		 mov	 ecx, ebx
  0002a	e8 00 00 00 00	 call	 ?GetWorldAttackBox@ioWeapon@@QBEABVioOrientBox@@_N@Z ; ioWeapon::GetWorldAttackBox
  0002f	50		 push	 eax
  00030	8b cf		 mov	 ecx, edi
  00032	ff 96 90 00 00
	00		 call	 DWORD PTR [esi+144]
  00038	84 c0		 test	 al, al
  0003a	74 42		 je	 SHORT $LN8@CheckPreCo

; 509  : 	{
; 510  : 		if( ToSymbolStruct(pTarget) || ToPushStruct(pTarget) || ToBallStruct(pTarget) ||
; 511  : 			ToDummyChar(pTarget) || ToWallZone(pTarget) )

  0003c	57		 push	 edi
  0003d	e8 00 00 00 00	 call	 ?ToSymbolStruct@@YAPAVioSymbolStruct@@PAVioGameEntity@@@Z ; ToSymbolStruct
  00042	59		 pop	 ecx
  00043	85 c0		 test	 eax, eax
  00045	75 2c		 jne	 SHORT $LN1@CheckPreCo
  00047	57		 push	 edi
  00048	e8 00 00 00 00	 call	 ?ToPushStruct@@YAPAVioPushStruct@@PAVioGameEntity@@@Z ; ToPushStruct
  0004d	59		 pop	 ecx
  0004e	85 c0		 test	 eax, eax
  00050	75 21		 jne	 SHORT $LN1@CheckPreCo
  00052	57		 push	 edi
  00053	e8 00 00 00 00	 call	 ?ToBallStruct@@YAPAVioBall@@PAVioGameEntity@@@Z ; ToBallStruct
  00058	59		 pop	 ecx
  00059	85 c0		 test	 eax, eax
  0005b	75 16		 jne	 SHORT $LN1@CheckPreCo
  0005d	57		 push	 edi
  0005e	e8 00 00 00 00	 call	 ?ToDummyChar@@YAPAVioDummyChar@@PAVioGameEntity@@@Z ; ToDummyChar
  00063	59		 pop	 ecx
  00064	85 c0		 test	 eax, eax
  00066	75 0b		 jne	 SHORT $LN1@CheckPreCo
  00068	57		 push	 edi
  00069	e8 00 00 00 00	 call	 ?ToWallZone@@YAPAVioWallZone@@PAVioGameEntity@@@Z ; ToWallZone
  0006e	59		 pop	 ecx
  0006f	85 c0		 test	 eax, eax
  00071	74 0b		 je	 SHORT $LN8@CheckPreCo
$LN1@CheckPreCo:

; 512  : 		{
; 513  : 			SetEndState( true, true );

  00073	6a 01		 push	 1
  00075	6a 01		 push	 1
  00077	8b cb		 mov	 ecx, ebx
  00079	e8 00 00 00 00	 call	 ?SetEndState@ioMissileWeapon2@@QAEX_N0@Z ; ioMissileWeapon2::SetEndState
$LN8@CheckPreCo:
  0007e	5f		 pop	 edi
  0007f	5e		 pop	 esi
$LN4@CheckPreCo:
  00080	5b		 pop	 ebx

; 514  : 			return;
; 515  : 		}
; 516  : 	}
; 517  : }

  00081	5d		 pop	 ebp
  00082	c2 08 00	 ret	 8
?CheckPreCollision@ioMissileWeapon2@@UAEXPAVioPlayEntity@@PAVioPlayStage@@@Z ENDP ; ioMissileWeapon2::CheckPreCollision
_TEXT	ENDS
PUBLIC	?TestMapCollision@ioMissileWeapon2@@UAE_NPAVioOpcodeShape@@PAVioPlayStage@@PBUD3DXMATRIX@@@Z ; ioMissileWeapon2::TestMapCollision
EXTRN	?CreateMapEffect@ioPlayStage@@QAEPAVioMapEffect@@ABVioHashString@@ABUD3DXVECTOR3@@1@Z:PROC ; ioPlayStage::CreateMapEffect
EXTRN	?GetExplosionEffectName@ioWeapon@@QBEABVioHashString@@XZ:PROC ; ioWeapon::GetExplosionEffectName
EXTRN	__imp_?GetCenter@ioOrientBox@@QBEABUD3DXVECTOR3@@XZ:PROC
; Function compile flags: /Ogsp
;	COMDAT ?TestMapCollision@ioMissileWeapon2@@UAE_NPAVioOpcodeShape@@PAVioPlayStage@@PBUD3DXMATRIX@@@Z
_TEXT	SEGMENT
_pShape$ = 8						; size = 4
_pStage$ = 12						; size = 4
_pShapeWorldMat$ = 16					; size = 4
?TestMapCollision@ioMissileWeapon2@@UAE_NPAVioOpcodeShape@@PAVioPlayStage@@PBUD3DXMATRIX@@@Z PROC ; ioMissileWeapon2::TestMapCollision, COMDAT
; _this$ = ecx

; 520  : {

  00000	55		 push	 ebp
  00001	8b ec		 mov	 ebp, esp
  00003	56		 push	 esi
  00004	8b f1		 mov	 esi, ecx

; 521  : 	//pShape        TRUE
; 522  : 	//     1   N   TestMapCollision()   
; 523  : 
; 524  : 	if( m_WeaponState == WS_END )

  00006	83 be 94 08 00
	00 01		 cmp	 DWORD PTR [esi+2196], 1
  0000d	75 04		 jne	 SHORT $LN3@TestMapCol
$LN1@TestMapCol:

; 525  : 		return true;

  0000f	b0 01		 mov	 al, 1
  00011	eb 78		 jmp	 SHORT $LN4@TestMapCol
$LN3@TestMapCol:
  00013	53		 push	 ebx

; 526  : 
; 527  : 	if( pShape->TestIntersection( pShapeWorldMat, GetWorldAttackBox(true) ) )

  00014	8b 5d 08	 mov	 ebx, DWORD PTR _pShape$[ebp]
  00017	57		 push	 edi
  00018	8b 3b		 mov	 edi, DWORD PTR [ebx]
  0001a	6a 01		 push	 1
  0001c	e8 00 00 00 00	 call	 ?GetWorldAttackBox@ioWeapon@@QBEABVioOrientBox@@_N@Z ; ioWeapon::GetWorldAttackBox
  00021	50		 push	 eax
  00022	ff 75 10	 push	 DWORD PTR _pShapeWorldMat$[ebp]
  00025	8b cb		 mov	 ecx, ebx
  00027	ff 57 24	 call	 DWORD PTR [edi+36]
  0002a	5f		 pop	 edi
  0002b	5b		 pop	 ebx
  0002c	84 c0		 test	 al, al
  0002e	74 59		 je	 SHORT $LN2@TestMapCol

; 528  : 	{
; 529  : 		ioBaseChar *pOwner = GetOwner();

  00030	8b ce		 mov	 ecx, esi
  00032	e8 00 00 00 00	 call	 ?GetOwner@ioWeapon@@QBEPAVioBaseChar@@XZ ; ioWeapon::GetOwner

; 530  : 		if( pOwner && pOwner->IsNeedProcess() )

  00037	85 c0		 test	 eax, eax
  00039	74 d4		 je	 SHORT $LN1@TestMapCol
  0003b	8b 10		 mov	 edx, DWORD PTR [eax]
  0003d	8b c8		 mov	 ecx, eax
  0003f	ff 92 00 01 00
	00		 call	 DWORD PTR [edx+256]
  00045	84 c0		 test	 al, al
  00047	74 c6		 je	 SHORT $LN1@TestMapCol

; 531  : 		{
; 532  : 			pStage->CreateMapEffect( GetExplosionEffectName(), GetWorldAttackBox(true).GetCenter(), GetScale() );

  00049	8b ce		 mov	 ecx, esi
  0004b	e8 00 00 00 00	 call	 ?GetScale@ioWeapon@@QBEABUD3DXVECTOR3@@XZ ; ioWeapon::GetScale
  00050	50		 push	 eax
  00051	6a 01		 push	 1
  00053	8b ce		 mov	 ecx, esi
  00055	e8 00 00 00 00	 call	 ?GetWorldAttackBox@ioWeapon@@QBEABVioOrientBox@@_N@Z ; ioWeapon::GetWorldAttackBox
  0005a	8b c8		 mov	 ecx, eax
  0005c	ff 15 00 00 00
	00		 call	 DWORD PTR __imp_?GetCenter@ioOrientBox@@QBEABUD3DXVECTOR3@@XZ
  00062	50		 push	 eax
  00063	8b ce		 mov	 ecx, esi
  00065	e8 00 00 00 00	 call	 ?GetExplosionEffectName@ioWeapon@@QBEABVioHashString@@XZ ; ioWeapon::GetExplosionEffectName
  0006a	8b 4d 0c	 mov	 ecx, DWORD PTR _pStage$[ebp]
  0006d	50		 push	 eax
  0006e	e8 00 00 00 00	 call	 ?CreateMapEffect@ioPlayStage@@QAEPAVioMapEffect@@ABVioHashString@@ABUD3DXVECTOR3@@1@Z ; ioPlayStage::CreateMapEffect

; 533  : 
; 534  : 			PlayWoundedSound( NULL );

  00073	8b 06		 mov	 eax, DWORD PTR [esi]
  00075	6a 00		 push	 0
  00077	8b ce		 mov	 ecx, esi
  00079	ff 50 54	 call	 DWORD PTR [eax+84]

; 535  : 			SetEndState( true, true );

  0007c	6a 01		 push	 1
  0007e	6a 01		 push	 1
  00080	8b ce		 mov	 ecx, esi
  00082	e8 00 00 00 00	 call	 ?SetEndState@ioMissileWeapon2@@QAEX_N0@Z ; ioMissileWeapon2::SetEndState

; 536  : 		}
; 537  : 
; 538  : 		return true;

  00087	eb 86		 jmp	 SHORT $LN1@TestMapCol
$LN2@TestMapCol:

; 539  : 	}
; 540  : 
; 541  : 	return false;

  00089	32 c0		 xor	 al, al
$LN4@TestMapCol:
  0008b	5e		 pop	 esi

; 542  : }

  0008c	5d		 pop	 ebp
  0008d	c2 0c 00	 ret	 12			; 0000000cH
?TestMapCollision@ioMissileWeapon2@@UAE_NPAVioOpcodeShape@@PAVioPlayStage@@PBUD3DXMATRIX@@@Z ENDP ; ioMissileWeapon2::TestMapCollision
_TEXT	ENDS
PUBLIC	?CheckTargetColState@ioMissileWeapon2@@QAEXPAVioBaseChar@@@Z ; ioMissileWeapon2::CheckTargetColState
; Function compile flags: /Ogsp
;	COMDAT ?CheckTargetColState@ioMissileWeapon2@@QAEXPAVioBaseChar@@@Z
_TEXT	SEGMENT
_pChar$ = 8						; size = 4
?CheckTargetColState@ioMissileWeapon2@@QAEXPAVioBaseChar@@@Z PROC ; ioMissileWeapon2::CheckTargetColState, COMDAT
; _this$ = ecx

; 545  : {

  00000	55		 push	 ebp
  00001	8b ec		 mov	 ebp, esp
  00003	56		 push	 esi
  00004	8b f1		 mov	 esi, ecx

; 546  : 	if( !pChar ) return;

  00006	8b 4d 08	 mov	 ecx, DWORD PTR _pChar$[ebp]
  00009	85 c9		 test	 ecx, ecx
  0000b	74 17		 je	 SHORT $LN3@CheckTarge

; 547  : 	if( !pChar->IsNeedProcess() )

  0000d	8b 01		 mov	 eax, DWORD PTR [ecx]
  0000f	ff 90 00 01 00
	00		 call	 DWORD PTR [eax+256]
  00015	84 c0		 test	 al, al
  00017	74 0b		 je	 SHORT $LN3@CheckTarge

; 548  : 		return;
; 549  : 
; 550  : 	SetEndState( true, true );

  00019	6a 01		 push	 1
  0001b	6a 01		 push	 1
  0001d	8b ce		 mov	 ecx, esi
  0001f	e8 00 00 00 00	 call	 ?SetEndState@ioMissileWeapon2@@QAEX_N0@Z ; ioMissileWeapon2::SetEndState
$LN3@CheckTarge:
  00024	5e		 pop	 esi

; 551  : }

  00025	5d		 pop	 ebp
  00026	c2 04 00	 ret	 4
?CheckTargetColState@ioMissileWeapon2@@QAEXPAVioBaseChar@@@Z ENDP ; ioMissileWeapon2::CheckTargetColState
_TEXT	ENDS
PUBLIC	??$_Destroy_range@V?$allocator@UChangeDirInfo@@@std@@@std@@YAXPAUChangeDirInfo@@0AAV?$allocator@UChangeDirInfo@@@0@U_Nonscalar_ptr_iterator_tag@0@@Z ; std::_Destroy_range<std::allocator<ChangeDirInfo> >
; Function compile flags: /Ogsp
; File c:\program files (x86)\microsoft visual studio 10.0\vc\include\xmemory
;	COMDAT ??$_Destroy_range@V?$allocator@UChangeDirInfo@@@std@@@std@@YAXPAUChangeDirInfo@@0AAV?$allocator@UChangeDirInfo@@@0@U_Nonscalar_ptr_iterator_tag@0@@Z
_TEXT	SEGMENT
__First$ = 8						; size = 4
__Last$ = 12						; size = 4
__Al$ = 16						; size = 4
___formal$ = 20						; size = 1
??$_Destroy_range@V?$allocator@UChangeDirInfo@@@std@@@std@@YAXPAUChangeDirInfo@@0AAV?$allocator@UChangeDirInfo@@@0@U_Nonscalar_ptr_iterator_tag@0@@Z PROC ; std::_Destroy_range<std::allocator<ChangeDirInfo> >, COMDAT

; 96   : 	for (; _First != _Last; ++_First)
; 97   : 		_Dest_val(_Al, _First);
; 98   : 	}

  00000	c3		 ret	 0
??$_Destroy_range@V?$allocator@UChangeDirInfo@@@std@@@std@@YAXPAUChangeDirInfo@@0AAV?$allocator@UChangeDirInfo@@@0@U_Nonscalar_ptr_iterator_tag@0@@Z ENDP ; std::_Destroy_range<std::allocator<ChangeDirInfo> >
_TEXT	ENDS
PUBLIC	??$_Destroy_range@V?$allocator@USecondAttribute@@@std@@@std@@YAXPAUSecondAttribute@@0AAV?$allocator@USecondAttribute@@@0@U_Nonscalar_ptr_iterator_tag@0@@Z ; std::_Destroy_range<std::allocator<SecondAttribute> >
; Function compile flags: /Ogsp
;	COMDAT ??$_Destroy_range@V?$allocator@USecondAttribute@@@std@@@std@@YAXPAUSecondAttribute@@0AAV?$allocator@USecondAttribute@@@0@U_Nonscalar_ptr_iterator_tag@0@@Z
_TEXT	SEGMENT
__First$ = 8						; size = 4
__Last$ = 12						; size = 4
__Al$ = 16						; size = 4
___formal$ = 20						; size = 1
??$_Destroy_range@V?$allocator@USecondAttribute@@@std@@@std@@YAXPAUSecondAttribute@@0AAV?$allocator@USecondAttribute@@@0@U_Nonscalar_ptr_iterator_tag@0@@Z PROC ; std::_Destroy_range<std::allocator<SecondAttribute> >, COMDAT

; 96   : 	for (; _First != _Last; ++_First)
; 97   : 		_Dest_val(_Al, _First);
; 98   : 	}

  00000	c3		 ret	 0
??$_Destroy_range@V?$allocator@USecondAttribute@@@std@@@std@@YAXPAUSecondAttribute@@0AAV?$allocator@USecondAttribute@@@0@U_Nonscalar_ptr_iterator_tag@0@@Z ENDP ; std::_Destroy_range<std::allocator<SecondAttribute> >
_TEXT	ENDS
PUBLIC	??$_Insertion_sort@PAUChangeDirInfo@@VChangeDirSort@@@std@@YAXPAUChangeDirInfo@@0VChangeDirSort@@@Z ; std::_Insertion_sort<ChangeDirInfo *,ChangeDirSort>
; Function compile flags: /Ogsp
; File c:\program files (x86)\microsoft visual studio 10.0\vc\include\algorithm
;	COMDAT ??$_Insertion_sort@PAUChangeDirInfo@@VChangeDirSort@@@std@@YAXPAUChangeDirInfo@@0VChangeDirSort@@@Z
_TEXT	SEGMENT
__First$ = 8						; size = 4
__Last$ = 12						; size = 4
__Pred$ = 16						; size = 1
??$_Insertion_sort@PAUChangeDirInfo@@VChangeDirSort@@@std@@YAXPAUChangeDirInfo@@0VChangeDirSort@@@Z PROC ; std::_Insertion_sort<ChangeDirInfo *,ChangeDirSort>, COMDAT

; 3676 : 	{	// insertion sort [_First, _Last), using _Pred

  00000	55		 push	 ebp
  00001	8b ec		 mov	 ebp, esp

; 3677 : 	_Insertion_sort1(_First, _Last, _Pred, _Val_type(_First));

  00003	6a 00		 push	 0
  00005	ff 75 10	 push	 DWORD PTR __Pred$[ebp]
  00008	ff 75 0c	 push	 DWORD PTR __Last$[ebp]
  0000b	ff 75 08	 push	 DWORD PTR __First$[ebp]
  0000e	e8 00 00 00 00	 call	 ??$_Insertion_sort1@PAUChangeDirInfo@@VChangeDirSort@@U1@@std@@YAXPAUChangeDirInfo@@0VChangeDirSort@@0@Z ; std::_Insertion_sort1<ChangeDirInfo *,ChangeDirSort,ChangeDirInfo>
  00013	83 c4 10	 add	 esp, 16			; 00000010H

; 3678 : 	}

  00016	5d		 pop	 ebp
  00017	c3		 ret	 0
??$_Insertion_sort@PAUChangeDirInfo@@VChangeDirSort@@@std@@YAXPAUChangeDirInfo@@0VChangeDirSort@@@Z ENDP ; std::_Insertion_sort<ChangeDirInfo *,ChangeDirSort>
_TEXT	ENDS
PUBLIC	??$_Uninit_move@PAUChangeDirInfo@@PAU1@V?$allocator@UChangeDirInfo@@@std@@U1@@std@@YAPAUChangeDirInfo@@PAU1@00AAV?$allocator@UChangeDirInfo@@@0@0U_Nonscalar_ptr_iterator_tag@0@@Z ; std::_Uninit_move<ChangeDirInfo *,ChangeDirInfo *,std::allocator<ChangeDirInfo>,ChangeDirInfo>
; Function compile flags: /Ogsp
; File c:\program files (x86)\microsoft visual studio 10.0\vc\include\memory
;	COMDAT ??$_Uninit_move@PAUChangeDirInfo@@PAU1@V?$allocator@UChangeDirInfo@@@std@@U1@@std@@YAPAUChangeDirInfo@@PAU1@00AAV?$allocator@UChangeDirInfo@@@0@0U_Nonscalar_ptr_iterator_tag@0@@Z
_TEXT	SEGMENT
__First$ = 8						; size = 4
__Last$ = 12						; size = 4
__Dest$ = 16						; size = 4
__Al$ = 20						; size = 4
___formal$ = 24						; size = 4
___formal$ = 28						; size = 1
??$_Uninit_move@PAUChangeDirInfo@@PAU1@V?$allocator@UChangeDirInfo@@@std@@U1@@std@@YAPAUChangeDirInfo@@PAU1@00AAV?$allocator@UChangeDirInfo@@@0@0U_Nonscalar_ptr_iterator_tag@0@@Z PROC ; std::_Uninit_move<ChangeDirInfo *,ChangeDirInfo *,std::allocator<ChangeDirInfo>,ChangeDirInfo>, COMDAT

; 424  : 	{	// move [_First, _Last) to raw _Dest, using _Al, arbitrary type

  00000	55		 push	 ebp
  00001	8b ec		 mov	 ebp, esp
  00003	56		 push	 esi

; 425  : 	_DEBUG_RANGE(_First, _Last);
; 426  : 	_DEBUG_POINTER(_Dest);
; 427  : 	_FwdIt _Next = _Dest;
; 428  : 
; 429  : 	_TRY_BEGIN
; 430  : 	for (; _First != _Last; ++_Dest, ++_First)

  00004	8b 75 08	 mov	 esi, DWORD PTR __First$[ebp]
  00007	eb 16		 jmp	 SHORT $LN24@Uninit_mov
$LL6@Uninit_mov:

; 431  : 		_Cons_val(_Al, _Dest, (_Valty &&)*_First);

  00009	56		 push	 esi
  0000a	ff 75 10	 push	 DWORD PTR __Dest$[ebp]
  0000d	ff 75 14	 push	 DWORD PTR __Al$[ebp]
  00010	e8 00 00 00 00	 call	 ??$_Cons_val@V?$allocator@UChangeDirInfo@@@std@@UChangeDirInfo@@U3@@std@@YAXAAV?$allocator@UChangeDirInfo@@@0@PAUChangeDirInfo@@$$QAU2@@Z ; std::_Cons_val<std::allocator<ChangeDirInfo>,ChangeDirInfo,ChangeDirInfo>
  00015	83 45 10 1c	 add	 DWORD PTR __Dest$[ebp], 28 ; 0000001cH
  00019	83 c4 0c	 add	 esp, 12			; 0000000cH
  0001c	83 c6 1c	 add	 esi, 28			; 0000001cH
$LN24@Uninit_mov:

; 425  : 	_DEBUG_RANGE(_First, _Last);
; 426  : 	_DEBUG_POINTER(_Dest);
; 427  : 	_FwdIt _Next = _Dest;
; 428  : 
; 429  : 	_TRY_BEGIN
; 430  : 	for (; _First != _Last; ++_Dest, ++_First)

  0001f	3b 75 0c	 cmp	 esi, DWORD PTR __Last$[ebp]
  00022	75 e5		 jne	 SHORT $LL6@Uninit_mov

; 432  : 	_CATCH_ALL
; 433  : 	for (; _Next != _Dest; ++_Next)
; 434  : 		_Dest_val(_Al, _Next);
; 435  : 	_RERAISE;
; 436  : 	_CATCH_END
; 437  : 	return (_Dest);

  00024	8b 45 10	 mov	 eax, DWORD PTR __Dest$[ebp]
  00027	5e		 pop	 esi

; 438  : 	}

  00028	5d		 pop	 ebp
  00029	c3		 ret	 0
??$_Uninit_move@PAUChangeDirInfo@@PAU1@V?$allocator@UChangeDirInfo@@@std@@U1@@std@@YAPAUChangeDirInfo@@PAU1@00AAV?$allocator@UChangeDirInfo@@@0@0U_Nonscalar_ptr_iterator_tag@0@@Z ENDP ; std::_Uninit_move<ChangeDirInfo *,ChangeDirInfo *,std::allocator<ChangeDirInfo>,ChangeDirInfo>
_TEXT	ENDS
PUBLIC	??$_Uninit_move@PAUSecondAttribute@@PAU1@V?$allocator@USecondAttribute@@@std@@U1@@std@@YAPAUSecondAttribute@@PAU1@00AAV?$allocator@USecondAttribute@@@0@0U_Nonscalar_ptr_iterator_tag@0@@Z ; std::_Uninit_move<SecondAttribute *,SecondAttribute *,std::allocator<SecondAttribute>,SecondAttribute>
; Function compile flags: /Ogsp
;	COMDAT ??$_Uninit_move@PAUSecondAttribute@@PAU1@V?$allocator@USecondAttribute@@@std@@U1@@std@@YAPAUSecondAttribute@@PAU1@00AAV?$allocator@USecondAttribute@@@0@0U_Nonscalar_ptr_iterator_tag@0@@Z
_TEXT	SEGMENT
__First$ = 8						; size = 4
__Last$ = 12						; size = 4
__Dest$ = 16						; size = 4
__Al$ = 20						; size = 4
___formal$ = 24						; size = 4
___formal$ = 28						; size = 1
??$_Uninit_move@PAUSecondAttribute@@PAU1@V?$allocator@USecondAttribute@@@std@@U1@@std@@YAPAUSecondAttribute@@PAU1@00AAV?$allocator@USecondAttribute@@@0@0U_Nonscalar_ptr_iterator_tag@0@@Z PROC ; std::_Uninit_move<SecondAttribute *,SecondAttribute *,std::allocator<SecondAttribute>,SecondAttribute>, COMDAT

; 424  : 	{	// move [_First, _Last) to raw _Dest, using _Al, arbitrary type

  00000	55		 push	 ebp
  00001	8b ec		 mov	 ebp, esp
  00003	56		 push	 esi

; 425  : 	_DEBUG_RANGE(_First, _Last);
; 426  : 	_DEBUG_POINTER(_Dest);
; 427  : 	_FwdIt _Next = _Dest;
; 428  : 
; 429  : 	_TRY_BEGIN
; 430  : 	for (; _First != _Last; ++_Dest, ++_First)

  00004	8b 75 08	 mov	 esi, DWORD PTR __First$[ebp]
  00007	eb 16		 jmp	 SHORT $LN24@Uninit_mov@2
$LL6@Uninit_mov@2:

; 431  : 		_Cons_val(_Al, _Dest, (_Valty &&)*_First);

  00009	56		 push	 esi
  0000a	ff 75 10	 push	 DWORD PTR __Dest$[ebp]
  0000d	ff 75 14	 push	 DWORD PTR __Al$[ebp]
  00010	e8 00 00 00 00	 call	 ??$_Cons_val@V?$allocator@USecondAttribute@@@std@@USecondAttribute@@U3@@std@@YAXAAV?$allocator@USecondAttribute@@@0@PAUSecondAttribute@@$$QAU2@@Z ; std::_Cons_val<std::allocator<SecondAttribute>,SecondAttribute,SecondAttribute>
  00015	83 45 10 08	 add	 DWORD PTR __Dest$[ebp], 8
  00019	83 c4 0c	 add	 esp, 12			; 0000000cH
  0001c	83 c6 08	 add	 esi, 8
$LN24@Uninit_mov@2:

; 425  : 	_DEBUG_RANGE(_First, _Last);
; 426  : 	_DEBUG_POINTER(_Dest);
; 427  : 	_FwdIt _Next = _Dest;
; 428  : 
; 429  : 	_TRY_BEGIN
; 430  : 	for (; _First != _Last; ++_Dest, ++_First)

  0001f	3b 75 0c	 cmp	 esi, DWORD PTR __Last$[ebp]
  00022	75 e5		 jne	 SHORT $LL6@Uninit_mov@2

; 432  : 	_CATCH_ALL
; 433  : 	for (; _Next != _Dest; ++_Next)
; 434  : 		_Dest_val(_Al, _Next);
; 435  : 	_RERAISE;
; 436  : 	_CATCH_END
; 437  : 	return (_Dest);

  00024	8b 45 10	 mov	 eax, DWORD PTR __Dest$[ebp]
  00027	5e		 pop	 esi

; 438  : 	}

  00028	5d		 pop	 ebp
  00029	c3		 ret	 0
??$_Uninit_move@PAUSecondAttribute@@PAU1@V?$allocator@USecondAttribute@@@std@@U1@@std@@YAPAUSecondAttribute@@PAU1@00AAV?$allocator@USecondAttribute@@@0@0U_Nonscalar_ptr_iterator_tag@0@@Z ENDP ; std::_Uninit_move<SecondAttribute *,SecondAttribute *,std::allocator<SecondAttribute>,SecondAttribute>
_TEXT	ENDS
PUBLIC	??$_Median@PAUChangeDirInfo@@VChangeDirSort@@@std@@YAXPAUChangeDirInfo@@00VChangeDirSort@@@Z ; std::_Median<ChangeDirInfo *,ChangeDirSort>
; Function compile flags: /Ogsp
; File c:\program files (x86)\microsoft visual studio 10.0\vc\include\algorithm
;	COMDAT ??$_Median@PAUChangeDirInfo@@VChangeDirSort@@@std@@YAXPAUChangeDirInfo@@00VChangeDirSort@@@Z
_TEXT	SEGMENT
tv200 = 8						; size = 4
__First$ = 8						; size = 4
__Mid$ = 12						; size = 4
tv203 = 16						; size = 4
__Last$ = 16						; size = 4
__Pred$ = 20						; size = 1
??$_Median@PAUChangeDirInfo@@VChangeDirSort@@@std@@YAXPAUChangeDirInfo@@00VChangeDirSort@@@Z PROC ; std::_Median<ChangeDirInfo *,ChangeDirSort>, COMDAT

; 3695 : 	{	// sort median element to middle

  00000	55		 push	 ebp
  00001	8b ec		 mov	 ebp, esp

; 3696 : 	if (40 < _Last - _First)

  00003	8b 4d 08	 mov	 ecx, DWORD PTR __First$[ebp]
  00006	53		 push	 ebx
  00007	8b 5d 10	 mov	 ebx, DWORD PTR __Last$[ebp]
  0000a	56		 push	 esi
  0000b	8b c3		 mov	 eax, ebx
  0000d	2b c1		 sub	 eax, ecx
  0000f	6a 1c		 push	 28			; 0000001cH
  00011	99		 cdq
  00012	5e		 pop	 esi
  00013	f7 fe		 idiv	 esi
  00015	83 f8 28	 cmp	 eax, 40			; 00000028H
  00018	7e 68		 jle	 SHORT $LN2@Median

; 3697 : 		{	// median of nine
; 3698 : 		size_t _Step = (_Last - _First + 1) / 8;

  0001a	40		 inc	 eax
  0001b	99		 cdq
  0001c	83 e2 07	 and	 edx, 7
  0001f	03 c2		 add	 eax, edx
  00021	57		 push	 edi

; 3699 : 		_Med3(_First, _First + _Step, _First + 2 * _Step, _Pred);

  00022	ff 75 14	 push	 DWORD PTR __Pred$[ebp]
  00025	c1 f8 03	 sar	 eax, 3
  00028	8b f8		 mov	 edi, eax
  0002a	8b f0		 mov	 esi, eax
  0002c	6b ff 38	 imul	 edi, 56			; 00000038H
  0002f	6b f6 1c	 imul	 esi, 28			; 0000001cH
  00032	8d 14 0f	 lea	 edx, DWORD PTR [edi+ecx]
  00035	8d 04 0e	 lea	 eax, DWORD PTR [esi+ecx]
  00038	52		 push	 edx
  00039	50		 push	 eax
  0003a	51		 push	 ecx
  0003b	89 45 08	 mov	 DWORD PTR tv200[ebp], eax
  0003e	e8 00 00 00 00	 call	 ??$_Med3@PAUChangeDirInfo@@VChangeDirSort@@@std@@YAXPAUChangeDirInfo@@00VChangeDirSort@@@Z ; std::_Med3<ChangeDirInfo *,ChangeDirSort>

; 3700 : 		_Med3(_Mid - _Step, _Mid, _Mid + _Step, _Pred);

  00043	8b 45 0c	 mov	 eax, DWORD PTR __Mid$[ebp]
  00046	ff 75 14	 push	 DWORD PTR __Pred$[ebp]
  00049	8d 0c 06	 lea	 ecx, DWORD PTR [esi+eax]
  0004c	51		 push	 ecx
  0004d	50		 push	 eax
  0004e	2b c6		 sub	 eax, esi
  00050	50		 push	 eax
  00051	e8 00 00 00 00	 call	 ??$_Med3@PAUChangeDirInfo@@VChangeDirSort@@@std@@YAXPAUChangeDirInfo@@00VChangeDirSort@@@Z ; std::_Med3<ChangeDirInfo *,ChangeDirSort>

; 3701 : 		_Med3(_Last - 2 * _Step, _Last - _Step, _Last, _Pred);

  00056	ff 75 14	 push	 DWORD PTR __Pred$[ebp]
  00059	89 5d 10	 mov	 DWORD PTR tv203[ebp], ebx
  0005c	29 75 10	 sub	 DWORD PTR tv203[ebp], esi
  0005f	53		 push	 ebx
  00060	ff 75 10	 push	 DWORD PTR tv203[ebp]
  00063	2b df		 sub	 ebx, edi
  00065	53		 push	 ebx
  00066	e8 00 00 00 00	 call	 ??$_Med3@PAUChangeDirInfo@@VChangeDirSort@@@std@@YAXPAUChangeDirInfo@@00VChangeDirSort@@@Z ; std::_Med3<ChangeDirInfo *,ChangeDirSort>

; 3702 : 		_Med3(_First + _Step, _Mid, _Last - _Step, _Pred);

  0006b	ff 75 14	 push	 DWORD PTR __Pred$[ebp]
  0006e	ff 75 10	 push	 DWORD PTR tv203[ebp]
  00071	ff 75 0c	 push	 DWORD PTR __Mid$[ebp]
  00074	ff 75 08	 push	 DWORD PTR tv200[ebp]
  00077	e8 00 00 00 00	 call	 ??$_Med3@PAUChangeDirInfo@@VChangeDirSort@@@std@@YAXPAUChangeDirInfo@@00VChangeDirSort@@@Z ; std::_Med3<ChangeDirInfo *,ChangeDirSort>
  0007c	83 c4 40	 add	 esp, 64			; 00000040H
  0007f	5f		 pop	 edi

; 3703 : 		}
; 3704 : 	else

  00080	eb 10		 jmp	 SHORT $LN1@Median
$LN2@Median:

; 3705 : 		_Med3(_First, _Mid, _Last, _Pred);

  00082	ff 75 14	 push	 DWORD PTR __Pred$[ebp]
  00085	53		 push	 ebx
  00086	ff 75 0c	 push	 DWORD PTR __Mid$[ebp]
  00089	51		 push	 ecx
  0008a	e8 00 00 00 00	 call	 ??$_Med3@PAUChangeDirInfo@@VChangeDirSort@@@std@@YAXPAUChangeDirInfo@@00VChangeDirSort@@@Z ; std::_Med3<ChangeDirInfo *,ChangeDirSort>
  0008f	83 c4 10	 add	 esp, 16			; 00000010H
$LN1@Median:
  00092	5e		 pop	 esi
  00093	5b		 pop	 ebx

; 3706 : 	}

  00094	5d		 pop	 ebp
  00095	c3		 ret	 0
??$_Median@PAUChangeDirInfo@@VChangeDirSort@@@std@@YAXPAUChangeDirInfo@@00VChangeDirSort@@@Z ENDP ; std::_Median<ChangeDirInfo *,ChangeDirSort>
_TEXT	ENDS
PUBLIC	??$_Make_heap@PAUChangeDirInfo@@HU1@VChangeDirSort@@@std@@YAXPAUChangeDirInfo@@0VChangeDirSort@@PAH0@Z ; std::_Make_heap<ChangeDirInfo *,int,ChangeDirInfo,ChangeDirSort>
; Function compile flags: /Ogsp
;	COMDAT ??$_Make_heap@PAUChangeDirInfo@@HU1@VChangeDirSort@@@std@@YAXPAUChangeDirInfo@@0VChangeDirSort@@PAH0@Z
_TEXT	SEGMENT
__Val$586942 = -32					; size = 28
__Bottom$ = -4						; size = 4
__First$ = 8						; size = 4
tv149 = 12						; size = 4
__Last$ = 12						; size = 4
__Pred$ = 16						; size = 1
___formal$ = 20						; size = 4
___formal$ = 24						; size = 4
??$_Make_heap@PAUChangeDirInfo@@HU1@VChangeDirSort@@@std@@YAXPAUChangeDirInfo@@0VChangeDirSort@@PAH0@Z PROC ; std::_Make_heap<ChangeDirInfo *,int,ChangeDirInfo,ChangeDirSort>, COMDAT

; 2658 : 	{	// make nontrivial [_First, _Last) into a heap, using _Pred

  00000	55		 push	 ebp
  00001	8b ec		 mov	 ebp, esp
  00003	83 ec 20	 sub	 esp, 32			; 00000020H

; 2659 : 	_Diff _Bottom = _Last - _First;

  00006	8b 45 0c	 mov	 eax, DWORD PTR __Last$[ebp]
  00009	2b 45 08	 sub	 eax, DWORD PTR __First$[ebp]
  0000c	53		 push	 ebx
  0000d	99		 cdq
  0000e	6a 1c		 push	 28			; 0000001cH
  00010	59		 pop	 ecx
  00011	f7 f9		 idiv	 ecx
  00013	89 45 fc	 mov	 DWORD PTR __Bottom$[ebp], eax

; 2660 : 	for (_Diff _Hole = _Bottom / 2; 0 < _Hole; )

  00016	99		 cdq
  00017	2b c2		 sub	 eax, edx
  00019	8b d8		 mov	 ebx, eax
  0001b	d1 fb		 sar	 ebx, 1
  0001d	85 db		 test	 ebx, ebx
  0001f	7e 3a		 jle	 SHORT $LN1@Make_heap

; 2659 : 	_Diff _Bottom = _Last - _First;

  00021	56		 push	 esi
  00022	8b f3		 mov	 esi, ebx
  00024	6b f6 1c	 imul	 esi, 28			; 0000001cH
  00027	03 75 08	 add	 esi, DWORD PTR __First$[ebp]
  0002a	57		 push	 edi
  0002b	eb 03		 jmp	 SHORT $LN2@Make_heap
$LL11@Make_heap:
  0002d	8b 75 0c	 mov	 esi, DWORD PTR tv149[ebp]
$LN2@Make_heap:

; 2661 : 		{	// reheap top half, bottom to top
; 2662 : 		--_Hole;
; 2663 : 		_Ty _Val = _Move(*(_First + _Hole));

  00030	6a 07		 push	 7
  00032	59		 pop	 ecx

; 2664 : 		_Adjust_heap(_First, _Hole, _Bottom,
; 2665 : 			_Move(_Val), _Pred);

  00033	ff 75 10	 push	 DWORD PTR __Pred$[ebp]
  00036	8d 45 e0	 lea	 eax, DWORD PTR __Val$586942[ebp]
  00039	50		 push	 eax
  0003a	ff 75 fc	 push	 DWORD PTR __Bottom$[ebp]
  0003d	4b		 dec	 ebx
  0003e	83 ee 1c	 sub	 esi, 28			; 0000001cH
  00041	53		 push	 ebx
  00042	ff 75 08	 push	 DWORD PTR __First$[ebp]
  00045	8d 7d e0	 lea	 edi, DWORD PTR __Val$586942[ebp]
  00048	89 75 0c	 mov	 DWORD PTR tv149[ebp], esi
  0004b	f3 a5		 rep movsd
  0004d	e8 00 00 00 00	 call	 ??$_Adjust_heap@PAUChangeDirInfo@@HU1@VChangeDirSort@@@std@@YAXPAUChangeDirInfo@@HH$$QAU1@VChangeDirSort@@@Z ; std::_Adjust_heap<ChangeDirInfo *,int,ChangeDirInfo,ChangeDirSort>
  00052	83 c4 14	 add	 esp, 20			; 00000014H
  00055	85 db		 test	 ebx, ebx
  00057	7f d4		 jg	 SHORT $LL11@Make_heap
  00059	5f		 pop	 edi
  0005a	5e		 pop	 esi
$LN1@Make_heap:
  0005b	5b		 pop	 ebx

; 2666 : 		}
; 2667 : 	}

  0005c	c9		 leave
  0005d	c3		 ret	 0
??$_Make_heap@PAUChangeDirInfo@@HU1@VChangeDirSort@@@std@@YAXPAUChangeDirInfo@@0VChangeDirSort@@PAH0@Z ENDP ; std::_Make_heap<ChangeDirInfo *,int,ChangeDirInfo,ChangeDirSort>
_TEXT	ENDS
PUBLIC	??$_Pop_heap_0@PAUChangeDirInfo@@U1@VChangeDirSort@@@std@@YAXPAUChangeDirInfo@@0VChangeDirSort@@0@Z ; std::_Pop_heap_0<ChangeDirInfo *,ChangeDirInfo,ChangeDirSort>
; Function compile flags: /Ogsp
;	COMDAT ??$_Pop_heap_0@PAUChangeDirInfo@@U1@VChangeDirSort@@@std@@YAXPAUChangeDirInfo@@0VChangeDirSort@@0@Z
_TEXT	SEGMENT
__Val$ = -28						; size = 28
__First$ = 8						; size = 4
__Last$ = 12						; size = 4
__Pred$ = 16						; size = 1
___formal$ = 20						; size = 4
??$_Pop_heap_0@PAUChangeDirInfo@@U1@VChangeDirSort@@@std@@YAXPAUChangeDirInfo@@0VChangeDirSort@@0@Z PROC ; std::_Pop_heap_0<ChangeDirInfo *,ChangeDirInfo,ChangeDirSort>, COMDAT

; 2601 : 	{	// pop *_First to *(_Last - 1) and reheap, using _Pred

  00000	55		 push	 ebp
  00001	8b ec		 mov	 ebp, esp

; 2602 : 	_Ty _Val = _Move(*(_Last - 1));

  00003	8b 45 0c	 mov	 eax, DWORD PTR __Last$[ebp]
  00006	83 ec 1c	 sub	 esp, 28			; 0000001cH
  00009	56		 push	 esi
  0000a	57		 push	 edi
  0000b	6a 07		 push	 7
  0000d	59		 pop	 ecx
  0000e	83 c0 e4	 add	 eax, -28		; ffffffe4H

; 2603 : 	_Pop_heap(_First, _Last - 1, _Last - 1,
; 2604 : 		_Move(_Val), _Pred, _Dist_type(_First));

  00011	6a 00		 push	 0
  00013	ff 75 10	 push	 DWORD PTR __Pred$[ebp]
  00016	8b f0		 mov	 esi, eax
  00018	8d 7d e4	 lea	 edi, DWORD PTR __Val$[ebp]
  0001b	f3 a5		 rep movsd
  0001d	8d 4d e4	 lea	 ecx, DWORD PTR __Val$[ebp]
  00020	51		 push	 ecx
  00021	50		 push	 eax
  00022	50		 push	 eax
  00023	ff 75 08	 push	 DWORD PTR __First$[ebp]
  00026	e8 00 00 00 00	 call	 ??$_Pop_heap@PAUChangeDirInfo@@HU1@VChangeDirSort@@@std@@YAXPAUChangeDirInfo@@00$$QAU1@VChangeDirSort@@PAH@Z ; std::_Pop_heap<ChangeDirInfo *,int,ChangeDirInfo,ChangeDirSort>
  0002b	83 c4 18	 add	 esp, 24			; 00000018H
  0002e	5f		 pop	 edi
  0002f	5e		 pop	 esi

; 2605 : 	}

  00030	c9		 leave
  00031	c3		 ret	 0
??$_Pop_heap_0@PAUChangeDirInfo@@U1@VChangeDirSort@@@std@@YAXPAUChangeDirInfo@@0VChangeDirSort@@0@Z ENDP ; std::_Pop_heap_0<ChangeDirInfo *,ChangeDirInfo,ChangeDirSort>
_TEXT	ENDS
PUBLIC	??$_Destroy_range@V?$allocator@UChangeDirInfo@@@std@@@std@@YAXPAUChangeDirInfo@@0AAV?$allocator@UChangeDirInfo@@@0@@Z ; std::_Destroy_range<std::allocator<ChangeDirInfo> >
; Function compile flags: /Ogsp
; File c:\program files (x86)\microsoft visual studio 10.0\vc\include\xmemory
;	COMDAT ??$_Destroy_range@V?$allocator@UChangeDirInfo@@@std@@@std@@YAXPAUChangeDirInfo@@0AAV?$allocator@UChangeDirInfo@@@0@@Z
_TEXT	SEGMENT
__First$ = 8						; size = 4
__Last$ = 12						; size = 4
__Al$ = 16						; size = 4
??$_Destroy_range@V?$allocator@UChangeDirInfo@@@std@@@std@@YAXPAUChangeDirInfo@@0AAV?$allocator@UChangeDirInfo@@@0@@Z PROC ; std::_Destroy_range<std::allocator<ChangeDirInfo> >, COMDAT

; 88   : 	_Destroy_range(_First, _Last, _Al, _Ptr_cat(_First, _Last));
; 89   : 	}

  00000	c3		 ret	 0
??$_Destroy_range@V?$allocator@UChangeDirInfo@@@std@@@std@@YAXPAUChangeDirInfo@@0AAV?$allocator@UChangeDirInfo@@@0@@Z ENDP ; std::_Destroy_range<std::allocator<ChangeDirInfo> >
_TEXT	ENDS
PUBLIC	??$_Destroy_range@V?$allocator@USecondAttribute@@@std@@@std@@YAXPAUSecondAttribute@@0AAV?$allocator@USecondAttribute@@@0@@Z ; std::_Destroy_range<std::allocator<SecondAttribute> >
; Function compile flags: /Ogsp
;	COMDAT ??$_Destroy_range@V?$allocator@USecondAttribute@@@std@@@std@@YAXPAUSecondAttribute@@0AAV?$allocator@USecondAttribute@@@0@@Z
_TEXT	SEGMENT
__First$ = 8						; size = 4
__Last$ = 12						; size = 4
__Al$ = 16						; size = 4
??$_Destroy_range@V?$allocator@USecondAttribute@@@std@@@std@@YAXPAUSecondAttribute@@0AAV?$allocator@USecondAttribute@@@0@@Z PROC ; std::_Destroy_range<std::allocator<SecondAttribute> >, COMDAT

; 88   : 	_Destroy_range(_First, _Last, _Al, _Ptr_cat(_First, _Last));
; 89   : 	}

  00000	c3		 ret	 0
??$_Destroy_range@V?$allocator@USecondAttribute@@@std@@@std@@YAXPAUSecondAttribute@@0AAV?$allocator@USecondAttribute@@@0@@Z ENDP ; std::_Destroy_range<std::allocator<SecondAttribute> >
_TEXT	ENDS
PUBLIC	??$_Uninitialized_move@PAUChangeDirInfo@@PAU1@V?$allocator@UChangeDirInfo@@@std@@@std@@YAPAUChangeDirInfo@@PAU1@00AAV?$allocator@UChangeDirInfo@@@0@@Z ; std::_Uninitialized_move<ChangeDirInfo *,ChangeDirInfo *,std::allocator<ChangeDirInfo> >
; Function compile flags: /Ogsp
; File c:\program files (x86)\microsoft visual studio 10.0\vc\include\memory
;	COMDAT ??$_Uninitialized_move@PAUChangeDirInfo@@PAU1@V?$allocator@UChangeDirInfo@@@std@@@std@@YAPAUChangeDirInfo@@PAU1@00AAV?$allocator@UChangeDirInfo@@@0@@Z
_TEXT	SEGMENT
__Cat$589939 = -4					; size = 1
__First$ = 8						; size = 4
__Last$ = 12						; size = 4
__Dest$ = 16						; size = 4
__Al$ = 20						; size = 4
??$_Uninitialized_move@PAUChangeDirInfo@@PAU1@V?$allocator@UChangeDirInfo@@@std@@@std@@YAPAUChangeDirInfo@@PAU1@00AAV?$allocator@UChangeDirInfo@@@0@@Z PROC ; std::_Uninitialized_move<ChangeDirInfo *,ChangeDirInfo *,std::allocator<ChangeDirInfo> >, COMDAT

; 469  : 	{	// move [_First, _Last) to raw _Dest, using _Al

  00000	55		 push	 ebp
  00001	8b ec		 mov	 ebp, esp
  00003	51		 push	 ecx

; 470  : 	return (_Uninit_move(_First, _Last, _Dest, _Al,
; 471  : 		_Val_type(_First), _Ptr_cat(_First, _Dest)));

  00004	ff 75 fc	 push	 DWORD PTR __Cat$589939[ebp]
  00007	6a 00		 push	 0
  00009	ff 75 14	 push	 DWORD PTR __Al$[ebp]
  0000c	ff 75 10	 push	 DWORD PTR __Dest$[ebp]
  0000f	ff 75 0c	 push	 DWORD PTR __Last$[ebp]
  00012	ff 75 08	 push	 DWORD PTR __First$[ebp]
  00015	e8 00 00 00 00	 call	 ??$_Uninit_move@PAUChangeDirInfo@@PAU1@V?$allocator@UChangeDirInfo@@@std@@U1@@std@@YAPAUChangeDirInfo@@PAU1@00AAV?$allocator@UChangeDirInfo@@@0@0U_Nonscalar_ptr_iterator_tag@0@@Z ; std::_Uninit_move<ChangeDirInfo *,ChangeDirInfo *,std::allocator<ChangeDirInfo>,ChangeDirInfo>
  0001a	83 c4 18	 add	 esp, 24			; 00000018H

; 472  : 	}

  0001d	c9		 leave
  0001e	c3		 ret	 0
??$_Uninitialized_move@PAUChangeDirInfo@@PAU1@V?$allocator@UChangeDirInfo@@@std@@@std@@YAPAUChangeDirInfo@@PAU1@00AAV?$allocator@UChangeDirInfo@@@0@@Z ENDP ; std::_Uninitialized_move<ChangeDirInfo *,ChangeDirInfo *,std::allocator<ChangeDirInfo> >
_TEXT	ENDS
PUBLIC	??$_Uninitialized_move@PAUSecondAttribute@@PAU1@V?$allocator@USecondAttribute@@@std@@@std@@YAPAUSecondAttribute@@PAU1@00AAV?$allocator@USecondAttribute@@@0@@Z ; std::_Uninitialized_move<SecondAttribute *,SecondAttribute *,std::allocator<SecondAttribute> >
; Function compile flags: /Ogsp
;	COMDAT ??$_Uninitialized_move@PAUSecondAttribute@@PAU1@V?$allocator@USecondAttribute@@@std@@@std@@YAPAUSecondAttribute@@PAU1@00AAV?$allocator@USecondAttribute@@@0@@Z
_TEXT	SEGMENT
__Cat$589949 = -4					; size = 1
__First$ = 8						; size = 4
__Last$ = 12						; size = 4
__Dest$ = 16						; size = 4
__Al$ = 20						; size = 4
??$_Uninitialized_move@PAUSecondAttribute@@PAU1@V?$allocator@USecondAttribute@@@std@@@std@@YAPAUSecondAttribute@@PAU1@00AAV?$allocator@USecondAttribute@@@0@@Z PROC ; std::_Uninitialized_move<SecondAttribute *,SecondAttribute *,std::allocator<SecondAttribute> >, COMDAT

; 469  : 	{	// move [_First, _Last) to raw _Dest, using _Al

  00000	55		 push	 ebp
  00001	8b ec		 mov	 ebp, esp
  00003	51		 push	 ecx

; 470  : 	return (_Uninit_move(_First, _Last, _Dest, _Al,
; 471  : 		_Val_type(_First), _Ptr_cat(_First, _Dest)));

  00004	ff 75 fc	 push	 DWORD PTR __Cat$589949[ebp]
  00007	6a 00		 push	 0
  00009	ff 75 14	 push	 DWORD PTR __Al$[ebp]
  0000c	ff 75 10	 push	 DWORD PTR __Dest$[ebp]
  0000f	ff 75 0c	 push	 DWORD PTR __Last$[ebp]
  00012	ff 75 08	 push	 DWORD PTR __First$[ebp]
  00015	e8 00 00 00 00	 call	 ??$_Uninit_move@PAUSecondAttribute@@PAU1@V?$allocator@USecondAttribute@@@std@@U1@@std@@YAPAUSecondAttribute@@PAU1@00AAV?$allocator@USecondAttribute@@@0@0U_Nonscalar_ptr_iterator_tag@0@@Z ; std::_Uninit_move<SecondAttribute *,SecondAttribute *,std::allocator<SecondAttribute>,SecondAttribute>
  0001a	83 c4 18	 add	 esp, 24			; 00000018H

; 472  : 	}

  0001d	c9		 leave
  0001e	c3		 ret	 0
??$_Uninitialized_move@PAUSecondAttribute@@PAU1@V?$allocator@USecondAttribute@@@std@@@std@@YAPAUSecondAttribute@@PAU1@00AAV?$allocator@USecondAttribute@@@0@@Z ENDP ; std::_Uninitialized_move<SecondAttribute *,SecondAttribute *,std::allocator<SecondAttribute> >
_TEXT	ENDS
PUBLIC	??$_Unguarded_partition@PAUChangeDirInfo@@VChangeDirSort@@@std@@YA?AU?$pair@PAUChangeDirInfo@@PAU1@@0@PAUChangeDirInfo@@0VChangeDirSort@@@Z ; std::_Unguarded_partition<ChangeDirInfo *,ChangeDirSort>
; Function compile flags: /Ogsp
; File c:\program files (x86)\microsoft visual studio 10.0\vc\include\algorithm
;	COMDAT ??$_Unguarded_partition@PAUChangeDirInfo@@VChangeDirSort@@@std@@YA?AU?$pair@PAUChangeDirInfo@@PAU1@@0@PAUChangeDirInfo@@0VChangeDirSort@@@Z
_TEXT	SEGMENT
tv426 = -8						; size = 4
__Glast$ = -4						; size = 4
___$ReturnUdt$ = 8					; size = 4
__First$ = 12						; size = 4
__Last$ = 16						; size = 4
__Pred$ = 20						; size = 1
??$_Unguarded_partition@PAUChangeDirInfo@@VChangeDirSort@@@std@@YA?AU?$pair@PAUChangeDirInfo@@PAU1@@0@PAUChangeDirInfo@@0VChangeDirSort@@@Z PROC ; std::_Unguarded_partition<ChangeDirInfo *,ChangeDirSort>, COMDAT

; 3712 : 	{	// partition [_First, _Last), using _Pred

  00000	55		 push	 ebp
  00001	8b ec		 mov	 ebp, esp
  00003	51		 push	 ecx
  00004	51		 push	 ecx

; 3713 : 	_RanIt _Mid = _First + (_Last - _First) / 2;

  00005	8b 4d 10	 mov	 ecx, DWORD PTR __Last$[ebp]
  00008	53		 push	 ebx
  00009	56		 push	 esi
  0000a	57		 push	 edi
  0000b	8b 7d 0c	 mov	 edi, DWORD PTR __First$[ebp]
  0000e	8b c1		 mov	 eax, ecx
  00010	2b c7		 sub	 eax, edi
  00012	6a 1c		 push	 28			; 0000001cH
  00014	5e		 pop	 esi
  00015	99		 cdq
  00016	f7 fe		 idiv	 esi

; 3714 : 	_Median(_First, _Mid, _Last - 1, _Pred);

  00018	ff 75 14	 push	 DWORD PTR __Pred$[ebp]
  0001b	83 c1 e4	 add	 ecx, -28		; ffffffe4H
  0001e	51		 push	 ecx
  0001f	99		 cdq
  00020	2b c2		 sub	 eax, edx
  00022	8b f0		 mov	 esi, eax
  00024	d1 fe		 sar	 esi, 1
  00026	6b f6 1c	 imul	 esi, 28			; 0000001cH
  00029	03 f7		 add	 esi, edi
  0002b	56		 push	 esi
  0002c	57		 push	 edi
  0002d	e8 00 00 00 00	 call	 ??$_Median@PAUChangeDirInfo@@VChangeDirSort@@@std@@YAXPAUChangeDirInfo@@00VChangeDirSort@@@Z ; std::_Median<ChangeDirInfo *,ChangeDirSort>
  00032	83 c4 10	 add	 esp, 16			; 00000010H

; 3715 : 	_RanIt _Pfirst = _Mid;
; 3716 : 	_RanIt _Plast = _Pfirst + 1;

  00035	8d 5e 1c	 lea	 ebx, DWORD PTR [esi+28]
  00038	eb 76		 jmp	 SHORT $LN132@Unguarded_
$LL27@Unguarded_:

; 3717 : 
; 3718 : 	while (_First < _Pfirst
; 3719 : 		&& !_DEBUG_LT_PRED(_Pred, *(_Pfirst - 1), *_Pfirst)
; 3720 : 		&& !_Pred(*_Pfirst, *(_Pfirst - 1)))

  0003a	f3 0f 10 46 e4	 movss	 xmm0, DWORD PTR [esi-28]
  0003f	f3 0f 10 0e	 movss	 xmm1, DWORD PTR [esi]
  00043	0f 5a d0	 cvtps2pd xmm2, xmm0
  00046	0f 5a d9	 cvtps2pd xmm3, xmm1
  00049	66 0f 2f da	 comisd	 xmm3, xmm2
  0004d	77 65		 ja	 SHORT $LN120@Unguarded_
  0004f	0f 57 d2	 xorps	 xmm2, xmm2
  00052	0f 57 db	 xorps	 xmm3, xmm3
  00055	0f 5a d0	 cvtps2pd xmm2, xmm0
  00058	0f 5a d9	 cvtps2pd xmm3, xmm1
  0005b	66 0f 2e d3	 ucomisd xmm2, xmm3
  0005f	9f		 lahf
  00060	f6 c4 44	 test	 ah, 68			; 00000044H
  00063	7a 16		 jp	 SHORT $LN30@Unguarded_
  00065	f3 0f 10 56 f0	 movss	 xmm2, DWORD PTR [esi-16]
  0006a	f3 0f 10 5e 0c	 movss	 xmm3, DWORD PTR [esi+12]
  0006f	0f 5a d2	 cvtps2pd xmm2, xmm2
  00072	0f 5a db	 cvtps2pd xmm3, xmm3
  00075	66 0f 2f da	 comisd	 xmm3, xmm2
  00079	77 39		 ja	 SHORT $LN120@Unguarded_
$LN30@Unguarded_:
  0007b	0f 5a d1	 cvtps2pd xmm2, xmm1
  0007e	0f 5a d8	 cvtps2pd xmm3, xmm0
  00081	66 0f 2f da	 comisd	 xmm3, xmm2
  00085	77 2d		 ja	 SHORT $LN120@Unguarded_
  00087	0f 5a c9	 cvtps2pd xmm1, xmm1
  0008a	0f 5a c0	 cvtps2pd xmm0, xmm0
  0008d	66 0f 2e c8	 ucomisd xmm1, xmm0
  00091	9f		 lahf
  00092	f6 c4 44	 test	 ah, 68			; 00000044H
  00095	7a 16		 jp	 SHORT $LN36@Unguarded_
  00097	f3 0f 10 46 0c	 movss	 xmm0, DWORD PTR [esi+12]
  0009c	f3 0f 10 4e f0	 movss	 xmm1, DWORD PTR [esi-16]
  000a1	0f 5a c0	 cvtps2pd xmm0, xmm0
  000a4	0f 5a c9	 cvtps2pd xmm1, xmm1
  000a7	66 0f 2f c8	 comisd	 xmm1, xmm0
  000ab	77 07		 ja	 SHORT $LN120@Unguarded_
$LN36@Unguarded_:

; 3721 : 		--_Pfirst;

  000ad	83 c6 e4	 add	 esi, -28		; ffffffe4H
$LN132@Unguarded_:

; 3717 : 
; 3718 : 	while (_First < _Pfirst
; 3719 : 		&& !_DEBUG_LT_PRED(_Pred, *(_Pfirst - 1), *_Pfirst)
; 3720 : 		&& !_Pred(*_Pfirst, *(_Pfirst - 1)))

  000b0	3b fe		 cmp	 edi, esi
  000b2	72 86		 jb	 SHORT $LL27@Unguarded_
$LN120@Unguarded_:

; 3722 : 	while (_Plast < _Last
; 3723 : 		&& !_DEBUG_LT_PRED(_Pred, *_Plast, *_Pfirst)
; 3724 : 		&& !_Pred(*_Pfirst, *_Plast))

  000b4	3b 5d 10	 cmp	 ebx, DWORD PTR __Last$[ebp]
  000b7	0f 83 8b 00 00
	00		 jae	 $LN124@Unguarded_
  000bd	f3 0f 10 0e	 movss	 xmm1, DWORD PTR [esi]
$LL25@Unguarded_:
  000c1	f3 0f 10 03	 movss	 xmm0, DWORD PTR [ebx]
  000c5	0f 57 db	 xorps	 xmm3, xmm3
  000c8	0f 5a d0	 cvtps2pd xmm2, xmm0
  000cb	f3 0f 5a d9	 cvtss2sd xmm3, xmm1
  000cf	66 0f 2f da	 comisd	 xmm3, xmm2
  000d3	77 73		 ja	 SHORT $LN124@Unguarded_
  000d5	0f 57 d2	 xorps	 xmm2, xmm2
  000d8	0f 57 db	 xorps	 xmm3, xmm3
  000db	0f 5a d0	 cvtps2pd xmm2, xmm0
  000de	f3 0f 5a d9	 cvtss2sd xmm3, xmm1
  000e2	66 0f 2e d3	 ucomisd xmm2, xmm3
  000e6	9f		 lahf
  000e7	f6 c4 44	 test	 ah, 68			; 00000044H
  000ea	7a 16		 jp	 SHORT $LN42@Unguarded_
  000ec	f3 0f 10 53 0c	 movss	 xmm2, DWORD PTR [ebx+12]
  000f1	f3 0f 10 5e 0c	 movss	 xmm3, DWORD PTR [esi+12]
  000f6	0f 5a d2	 cvtps2pd xmm2, xmm2
  000f9	0f 5a db	 cvtps2pd xmm3, xmm3
  000fc	66 0f 2f da	 comisd	 xmm3, xmm2
  00100	77 46		 ja	 SHORT $LN124@Unguarded_
$LN42@Unguarded_:
  00102	0f 57 d2	 xorps	 xmm2, xmm2
  00105	f3 0f 5a d1	 cvtss2sd xmm2, xmm1
  00109	0f 5a d8	 cvtps2pd xmm3, xmm0
  0010c	66 0f 2f da	 comisd	 xmm3, xmm2
  00110	77 36		 ja	 SHORT $LN124@Unguarded_
  00112	0f 57 d2	 xorps	 xmm2, xmm2
  00115	f3 0f 5a d1	 cvtss2sd xmm2, xmm1
  00119	0f 5a c0	 cvtps2pd xmm0, xmm0
  0011c	66 0f 2e d0	 ucomisd xmm2, xmm0
  00120	9f		 lahf
  00121	f6 c4 44	 test	 ah, 68			; 00000044H
  00124	7a 16		 jp	 SHORT $LN48@Unguarded_
  00126	f3 0f 10 46 0c	 movss	 xmm0, DWORD PTR [esi+12]
  0012b	f3 0f 10 53 0c	 movss	 xmm2, DWORD PTR [ebx+12]
  00130	0f 5a c0	 cvtps2pd xmm0, xmm0
  00133	0f 5a d2	 cvtps2pd xmm2, xmm2
  00136	66 0f 2f d0	 comisd	 xmm2, xmm0
  0013a	77 0c		 ja	 SHORT $LN124@Unguarded_
$LN48@Unguarded_:

; 3725 : 		++_Plast;

  0013c	83 c3 1c	 add	 ebx, 28			; 0000001cH
  0013f	3b 5d 10	 cmp	 ebx, DWORD PTR __Last$[ebp]
  00142	0f 82 79 ff ff
	ff		 jb	 $LL25@Unguarded_
$LN124@Unguarded_:

; 3726 : 
; 3727 : 	_RanIt _Gfirst = _Plast;

  00148	8b fb		 mov	 edi, ebx

; 3728 : 	_RanIt _Glast = _Pfirst;

  0014a	89 75 fc	 mov	 DWORD PTR __Glast$[ebp], esi

; 3729 : 
; 3730 : 	for (; ; )
; 3731 : 		{	// partition
; 3732 : 		for (; _Gfirst < _Last; ++_Gfirst)

  0014d	e9 83 00 00 00	 jmp	 $LN134@Unguarded_
$LL21@Unguarded_:

; 3733 : 			if (_DEBUG_LT_PRED(_Pred, *_Pfirst, *_Gfirst))

  00152	f3 0f 10 06	 movss	 xmm0, DWORD PTR [esi]
  00156	f3 0f 10 0f	 movss	 xmm1, DWORD PTR [edi]
  0015a	0f 5a d0	 cvtps2pd xmm2, xmm0
  0015d	0f 5a d9	 cvtps2pd xmm3, xmm1
  00160	66 0f 2f da	 comisd	 xmm3, xmm2
  00164	77 6c		 ja	 SHORT $LN20@Unguarded_
  00166	0f 57 d2	 xorps	 xmm2, xmm2
  00169	0f 57 db	 xorps	 xmm3, xmm3
  0016c	0f 5a d0	 cvtps2pd xmm2, xmm0
  0016f	0f 5a d9	 cvtps2pd xmm3, xmm1
  00172	66 0f 2e d3	 ucomisd xmm2, xmm3
  00176	9f		 lahf
  00177	f6 c4 44	 test	 ah, 68			; 00000044H
  0017a	7a 16		 jp	 SHORT $LN54@Unguarded_
  0017c	f3 0f 10 56 0c	 movss	 xmm2, DWORD PTR [esi+12]
  00181	f3 0f 10 5f 0c	 movss	 xmm3, DWORD PTR [edi+12]
  00186	0f 5a d2	 cvtps2pd xmm2, xmm2
  00189	0f 5a db	 cvtps2pd xmm3, xmm3
  0018c	66 0f 2f da	 comisd	 xmm3, xmm2
  00190	77 40		 ja	 SHORT $LN20@Unguarded_
$LN54@Unguarded_:

; 3734 : 				;
; 3735 : 			else if (_Pred(*_Gfirst, *_Pfirst))

  00192	0f 5a d1	 cvtps2pd xmm2, xmm1
  00195	0f 5a d8	 cvtps2pd xmm3, xmm0
  00198	66 0f 2f da	 comisd	 xmm3, xmm2
  0019c	77 40		 ja	 SHORT $LN130@Unguarded_
  0019e	0f 5a c9	 cvtps2pd xmm1, xmm1
  001a1	0f 5a c0	 cvtps2pd xmm0, xmm0
  001a4	66 0f 2e c8	 ucomisd xmm1, xmm0
  001a8	9f		 lahf
  001a9	f6 c4 44	 test	 ah, 68			; 00000044H
  001ac	7a 16		 jp	 SHORT $LN60@Unguarded_
  001ae	f3 0f 10 47 0c	 movss	 xmm0, DWORD PTR [edi+12]
  001b3	f3 0f 10 4e 0c	 movss	 xmm1, DWORD PTR [esi+12]
  001b8	0f 5a c0	 cvtps2pd xmm0, xmm0
  001bb	0f 5a c9	 cvtps2pd xmm1, xmm1
  001be	66 0f 2f c8	 comisd	 xmm1, xmm0
  001c2	77 1a		 ja	 SHORT $LN130@Unguarded_
$LN60@Unguarded_:

; 3736 : 				break;
; 3737 : 			else
; 3738 : 				_STD iter_swap(_Plast++, _Gfirst);

  001c4	8b c3		 mov	 eax, ebx
  001c6	57		 push	 edi
  001c7	83 c3 1c	 add	 ebx, 28			; 0000001cH
  001ca	50		 push	 eax
$LN135@Unguarded_:
  001cb	e8 00 00 00 00	 call	 ??$swap@UChangeDirInfo@@@std@@YAXAAUChangeDirInfo@@0@Z ; std::swap<ChangeDirInfo>
  001d0	59		 pop	 ecx
  001d1	59		 pop	 ecx
$LN20@Unguarded_:

; 3729 : 
; 3730 : 	for (; ; )
; 3731 : 		{	// partition
; 3732 : 		for (; _Gfirst < _Last; ++_Gfirst)

  001d2	83 c7 1c	 add	 edi, 28			; 0000001cH
$LN134@Unguarded_:
  001d5	3b 7d 10	 cmp	 edi, DWORD PTR __Last$[ebp]
  001d8	0f 82 74 ff ff
	ff		 jb	 $LL21@Unguarded_
$LN130@Unguarded_:

; 3739 : 		for (; _First < _Glast; --_Glast)

  001de	8b 45 0c	 mov	 eax, DWORD PTR __First$[ebp]
  001e1	3b 45 fc	 cmp	 eax, DWORD PTR __Glast$[ebp]
  001e4	0f 83 96 00 00
	00		 jae	 $LN131@Unguarded_
$LL129@Unguarded_:
  001ea	8b 55 fc	 mov	 edx, DWORD PTR __Glast$[ebp]

; 3740 : 			if (_DEBUG_LT_PRED(_Pred, *(_Glast - 1), *_Pfirst))

  001ed	f3 0f 10 0e	 movss	 xmm1, DWORD PTR [esi]
  001f1	8d 4a e4	 lea	 ecx, DWORD PTR [edx-28]
  001f4	f3 0f 10 01	 movss	 xmm0, DWORD PTR [ecx]
  001f8	0f 5a d0	 cvtps2pd xmm2, xmm0
  001fb	0f 5a d9	 cvtps2pd xmm3, xmm1
  001fe	66 0f 2f da	 comisd	 xmm3, xmm2
  00202	89 4d f8	 mov	 DWORD PTR tv426[ebp], ecx
  00205	77 6d		 ja	 SHORT $LN13@Unguarded_
  00207	0f 57 d2	 xorps	 xmm2, xmm2
  0020a	0f 57 db	 xorps	 xmm3, xmm3
  0020d	0f 5a d0	 cvtps2pd xmm2, xmm0
  00210	0f 5a d9	 cvtps2pd xmm3, xmm1
  00213	66 0f 2e d3	 ucomisd xmm2, xmm3
  00217	9f		 lahf
  00218	f6 c4 44	 test	 ah, 68			; 00000044H
  0021b	7a 16		 jp	 SHORT $LN68@Unguarded_
  0021d	f3 0f 10 52 f0	 movss	 xmm2, DWORD PTR [edx-16]
  00222	f3 0f 10 5e 0c	 movss	 xmm3, DWORD PTR [esi+12]
  00227	0f 5a d2	 cvtps2pd xmm2, xmm2
  0022a	0f 5a db	 cvtps2pd xmm3, xmm3
  0022d	66 0f 2f da	 comisd	 xmm3, xmm2
  00231	77 41		 ja	 SHORT $LN13@Unguarded_
$LN68@Unguarded_:

; 3741 : 				;
; 3742 : 			else if (_Pred(*_Pfirst, *(_Glast - 1)))

  00233	0f 5a d1	 cvtps2pd xmm2, xmm1
  00236	0f 5a d8	 cvtps2pd xmm3, xmm0
  00239	66 0f 2f da	 comisd	 xmm3, xmm2
  0023d	77 41		 ja	 SHORT $LN131@Unguarded_
  0023f	0f 5a c9	 cvtps2pd xmm1, xmm1
  00242	0f 5a c0	 cvtps2pd xmm0, xmm0
  00245	66 0f 2e c8	 ucomisd xmm1, xmm0
  00249	9f		 lahf
  0024a	f6 c4 44	 test	 ah, 68			; 00000044H
  0024d	7a 16		 jp	 SHORT $LN74@Unguarded_
  0024f	f3 0f 10 46 0c	 movss	 xmm0, DWORD PTR [esi+12]
  00254	f3 0f 10 4a f0	 movss	 xmm1, DWORD PTR [edx-16]
  00259	0f 5a c0	 cvtps2pd xmm0, xmm0
  0025c	0f 5a c9	 cvtps2pd xmm1, xmm1
  0025f	66 0f 2f c8	 comisd	 xmm1, xmm0
  00263	77 1b		 ja	 SHORT $LN131@Unguarded_
$LN74@Unguarded_:

; 3743 : 				break;
; 3744 : 			else
; 3745 : 				_STD iter_swap(--_Pfirst, _Glast - 1);

  00265	83 ee 1c	 sub	 esi, 28			; 0000001cH
  00268	51		 push	 ecx
  00269	56		 push	 esi
  0026a	e8 00 00 00 00	 call	 ??$swap@UChangeDirInfo@@@std@@YAXAAUChangeDirInfo@@0@Z ; std::swap<ChangeDirInfo>
  0026f	59		 pop	 ecx
  00270	59		 pop	 ecx
  00271	8b 4d f8	 mov	 ecx, DWORD PTR tv426[ebp]
$LN13@Unguarded_:

; 3739 : 		for (; _First < _Glast; --_Glast)

  00274	89 4d fc	 mov	 DWORD PTR __Glast$[ebp], ecx
  00277	39 4d 0c	 cmp	 DWORD PTR __First$[ebp], ecx
  0027a	0f 82 6a ff ff
	ff		 jb	 $LL129@Unguarded_
$LN131@Unguarded_:

; 3746 : 		if (_Glast == _First && _Gfirst == _Last)

  00280	8b 45 fc	 mov	 eax, DWORD PTR __Glast$[ebp]
  00283	3b 45 0c	 cmp	 eax, DWORD PTR __First$[ebp]
  00286	75 1f		 jne	 SHORT $LN6@Unguarded_
  00288	3b 7d 10	 cmp	 edi, DWORD PTR __Last$[ebp]
  0028b	74 50		 je	 SHORT $LN112@Unguarded_

; 3748 : 
; 3749 : 		if (_Glast == _First)
; 3750 : 			{	// no room at bottom, rotate pivot upward
; 3751 : 			if (_Plast != _Gfirst)

  0028d	3b df		 cmp	 ebx, edi
  0028f	74 09		 je	 SHORT $LN94@Unguarded_

; 3752 : 				_STD iter_swap(_Pfirst, _Plast);

  00291	53		 push	 ebx
  00292	56		 push	 esi
  00293	e8 00 00 00 00	 call	 ??$swap@UChangeDirInfo@@@std@@YAXAAUChangeDirInfo@@0@Z ; std::swap<ChangeDirInfo>
  00298	59		 pop	 ecx
  00299	59		 pop	 ecx
$LN94@Unguarded_:

; 3753 : 			++_Plast;
; 3754 : 			_STD iter_swap(_Pfirst++, _Gfirst++);

  0029a	57		 push	 edi
  0029b	56		 push	 esi
  0029c	83 c3 1c	 add	 ebx, 28			; 0000001cH
  0029f	83 c6 1c	 add	 esi, 28			; 0000001cH
  002a2	83 c7 1c	 add	 edi, 28			; 0000001cH
  002a5	eb 21		 jmp	 SHORT $LN133@Unguarded_
$LN6@Unguarded_:

; 3755 : 			}
; 3756 : 		else if (_Gfirst == _Last)
; 3757 : 			{	// no room at top, rotate pivot downward
; 3758 : 			if (--_Glast != --_Pfirst)

  002a7	83 6d fc 1c	 sub	 DWORD PTR __Glast$[ebp], 28 ; 0000001cH
  002ab	3b 7d 10	 cmp	 edi, DWORD PTR __Last$[ebp]
  002ae	75 24		 jne	 SHORT $LN3@Unguarded_
  002b0	83 ee 1c	 sub	 esi, 28			; 0000001cH
  002b3	39 75 fc	 cmp	 DWORD PTR __Glast$[ebp], esi
  002b6	74 0b		 je	 SHORT $LN98@Unguarded_

; 3759 : 				_STD iter_swap(_Glast, _Pfirst);

  002b8	56		 push	 esi
  002b9	ff 75 fc	 push	 DWORD PTR __Glast$[ebp]
  002bc	e8 00 00 00 00	 call	 ??$swap@UChangeDirInfo@@@std@@YAXAAUChangeDirInfo@@0@Z ; std::swap<ChangeDirInfo>
  002c1	59		 pop	 ecx
  002c2	59		 pop	 ecx
$LN98@Unguarded_:

; 3760 : 			_STD iter_swap(_Pfirst, --_Plast);

  002c3	83 eb 1c	 sub	 ebx, 28			; 0000001cH
  002c6	53		 push	 ebx
  002c7	56		 push	 esi
$LN133@Unguarded_:
  002c8	e8 00 00 00 00	 call	 ??$swap@UChangeDirInfo@@@std@@YAXAAUChangeDirInfo@@0@Z ; std::swap<ChangeDirInfo>
  002cd	59		 pop	 ecx
  002ce	59		 pop	 ecx

; 3761 : 			}
; 3762 : 		else

  002cf	e9 01 ff ff ff	 jmp	 $LN134@Unguarded_
$LN3@Unguarded_:

; 3763 : 			_STD iter_swap(_Gfirst++, --_Glast);

  002d4	ff 75 fc	 push	 DWORD PTR __Glast$[ebp]
  002d7	57		 push	 edi

; 3764 : 		}

  002d8	e9 ee fe ff ff	 jmp	 $LN135@Unguarded_
$LN112@Unguarded_:

; 3747 : 			return (_STD pair<_RanIt, _RanIt>(_Pfirst, _Plast));

  002dd	8b 45 08	 mov	 eax, DWORD PTR ___$ReturnUdt$[ebp]
  002e0	5f		 pop	 edi
  002e1	89 30		 mov	 DWORD PTR [eax], esi
  002e3	5e		 pop	 esi
  002e4	89 58 04	 mov	 DWORD PTR [eax+4], ebx
  002e7	5b		 pop	 ebx

; 3765 : 	}

  002e8	c9		 leave
  002e9	c3		 ret	 0
??$_Unguarded_partition@PAUChangeDirInfo@@VChangeDirSort@@@std@@YA?AU?$pair@PAUChangeDirInfo@@PAU1@@0@PAUChangeDirInfo@@0VChangeDirSort@@@Z ENDP ; std::_Unguarded_partition<ChangeDirInfo *,ChangeDirSort>
_TEXT	ENDS
PUBLIC	??$make_heap@PAUChangeDirInfo@@VChangeDirSort@@@std@@YAXPAUChangeDirInfo@@0VChangeDirSort@@@Z ; std::make_heap<ChangeDirInfo *,ChangeDirSort>
; Function compile flags: /Ogsp
;	COMDAT ??$make_heap@PAUChangeDirInfo@@VChangeDirSort@@@std@@YAXPAUChangeDirInfo@@0VChangeDirSort@@@Z
_TEXT	SEGMENT
__First$ = 8						; size = 4
__Last$ = 12						; size = 4
__Pred$ = 16						; size = 1
??$make_heap@PAUChangeDirInfo@@VChangeDirSort@@@std@@YAXPAUChangeDirInfo@@0VChangeDirSort@@@Z PROC ; std::make_heap<ChangeDirInfo *,ChangeDirSort>, COMDAT

; 2672 : 	{	// make [_First, _Last) into a heap, using _Pred

  00000	55		 push	 ebp
  00001	8b ec		 mov	 ebp, esp

; 2673 : 	_DEBUG_RANGE(_First, _Last);
; 2674 : 	_DEBUG_POINTER(_Pred);
; 2675 : 	if (1 < _Last - _First)

  00003	8b 45 0c	 mov	 eax, DWORD PTR __Last$[ebp]
  00006	2b 45 08	 sub	 eax, DWORD PTR __First$[ebp]
  00009	6a 1c		 push	 28			; 0000001cH
  0000b	99		 cdq
  0000c	59		 pop	 ecx
  0000d	f7 f9		 idiv	 ecx
  0000f	83 f8 01	 cmp	 eax, 1
  00012	7e 15		 jle	 SHORT $LN1@make_heap

; 2676 : 		_Make_heap(_Unchecked(_First), _Unchecked(_Last), _Pred,
; 2677 : 			_Dist_type(_First), _Val_type(_First));

  00014	6a 00		 push	 0
  00016	6a 00		 push	 0
  00018	ff 75 10	 push	 DWORD PTR __Pred$[ebp]
  0001b	ff 75 0c	 push	 DWORD PTR __Last$[ebp]
  0001e	ff 75 08	 push	 DWORD PTR __First$[ebp]
  00021	e8 00 00 00 00	 call	 ??$_Make_heap@PAUChangeDirInfo@@HU1@VChangeDirSort@@@std@@YAXPAUChangeDirInfo@@0VChangeDirSort@@PAH0@Z ; std::_Make_heap<ChangeDirInfo *,int,ChangeDirInfo,ChangeDirSort>
  00026	83 c4 14	 add	 esp, 20			; 00000014H
$LN1@make_heap:

; 2678 : 	}

  00029	5d		 pop	 ebp
  0002a	c3		 ret	 0
??$make_heap@PAUChangeDirInfo@@VChangeDirSort@@@std@@YAXPAUChangeDirInfo@@0VChangeDirSort@@@Z ENDP ; std::make_heap<ChangeDirInfo *,ChangeDirSort>
_TEXT	ENDS
PUBLIC	??$_Pop_heap@PAUChangeDirInfo@@VChangeDirSort@@@std@@YAXPAUChangeDirInfo@@0VChangeDirSort@@@Z ; std::_Pop_heap<ChangeDirInfo *,ChangeDirSort>
; Function compile flags: /Ogsp
;	COMDAT ??$_Pop_heap@PAUChangeDirInfo@@VChangeDirSort@@@std@@YAXPAUChangeDirInfo@@0VChangeDirSort@@@Z
_TEXT	SEGMENT
__First$ = 8						; size = 4
__Last$ = 12						; size = 4
__Pred$ = 16						; size = 1
??$_Pop_heap@PAUChangeDirInfo@@VChangeDirSort@@@std@@YAXPAUChangeDirInfo@@0VChangeDirSort@@@Z PROC ; std::_Pop_heap<ChangeDirInfo *,ChangeDirSort>, COMDAT

; 2610 : 	{	// pop *_First to *(_Last - 1) and reheap, using _Pred

  00000	55		 push	 ebp
  00001	8b ec		 mov	 ebp, esp

; 2611 : 	_Pop_heap_0(_Unchecked(_First), _Unchecked(_Last), _Pred,
; 2612 : 		_Val_type(_First));

  00003	6a 00		 push	 0
  00005	ff 75 10	 push	 DWORD PTR __Pred$[ebp]
  00008	ff 75 0c	 push	 DWORD PTR __Last$[ebp]
  0000b	ff 75 08	 push	 DWORD PTR __First$[ebp]
  0000e	e8 00 00 00 00	 call	 ??$_Pop_heap_0@PAUChangeDirInfo@@U1@VChangeDirSort@@@std@@YAXPAUChangeDirInfo@@0VChangeDirSort@@0@Z ; std::_Pop_heap_0<ChangeDirInfo *,ChangeDirInfo,ChangeDirSort>
  00013	83 c4 10	 add	 esp, 16			; 00000010H

; 2613 : 	}

  00016	5d		 pop	 ebp
  00017	c3		 ret	 0
??$_Pop_heap@PAUChangeDirInfo@@VChangeDirSort@@@std@@YAXPAUChangeDirInfo@@0VChangeDirSort@@@Z ENDP ; std::_Pop_heap<ChangeDirInfo *,ChangeDirSort>
_TEXT	ENDS
PUBLIC	?_Destroy@?$vector@UChangeDirInfo@@V?$allocator@UChangeDirInfo@@@std@@@std@@IAEXPAUChangeDirInfo@@0@Z ; std::vector<ChangeDirInfo,std::allocator<ChangeDirInfo> >::_Destroy
; Function compile flags: /Ogsp
; File c:\program files (x86)\microsoft visual studio 10.0\vc\include\vector
;	COMDAT ?_Destroy@?$vector@UChangeDirInfo@@V?$allocator@UChangeDirInfo@@@std@@@std@@IAEXPAUChangeDirInfo@@0@Z
_TEXT	SEGMENT
__First$ = 8						; size = 4
__Last$ = 12						; size = 4
?_Destroy@?$vector@UChangeDirInfo@@V?$allocator@UChangeDirInfo@@@std@@@std@@IAEXPAUChangeDirInfo@@0@Z PROC ; std::vector<ChangeDirInfo,std::allocator<ChangeDirInfo> >::_Destroy, COMDAT
; _this$ = ecx

; 1270 : 		_Destroy_range(_First, _Last, this->_Alval);
; 1271 : 		}

  00000	c2 08 00	 ret	 8
?_Destroy@?$vector@UChangeDirInfo@@V?$allocator@UChangeDirInfo@@@std@@@std@@IAEXPAUChangeDirInfo@@0@Z ENDP ; std::vector<ChangeDirInfo,std::allocator<ChangeDirInfo> >::_Destroy
_TEXT	ENDS
PUBLIC	?_Tidy@?$vector@UChangeDirInfo@@V?$allocator@UChangeDirInfo@@@std@@@std@@IAEXXZ ; std::vector<ChangeDirInfo,std::allocator<ChangeDirInfo> >::_Tidy
EXTRN	__imp_?_Orphan_all@_Container_base0@std@@QAEXXZ:PROC
; Function compile flags: /Ogsp
;	COMDAT ?_Tidy@?$vector@UChangeDirInfo@@V?$allocator@UChangeDirInfo@@@std@@@std@@IAEXXZ
_TEXT	SEGMENT
?_Tidy@?$vector@UChangeDirInfo@@V?$allocator@UChangeDirInfo@@@std@@@std@@IAEXXZ PROC ; std::vector<ChangeDirInfo,std::allocator<ChangeDirInfo> >::_Tidy, COMDAT
; _this$ = ecx

; 1301 : 		{	// free all storage

  00000	56		 push	 esi
  00001	8b f1		 mov	 esi, ecx

; 1302 : 		if (this->_Myfirst != 0)

  00003	83 3e 00	 cmp	 DWORD PTR [esi], 0
  00006	74 0e		 je	 SHORT $LN21@Tidy

; 1303 : 			{	// something to free, destroy and deallocate it
; 1304 : 			this->_Orphan_all();

  00008	ff 15 00 00 00
	00		 call	 DWORD PTR __imp_?_Orphan_all@_Container_base0@std@@QAEXXZ

; 1305 : 			_Destroy(this->_Myfirst, this->_Mylast);
; 1306 : 			this->_Alval.deallocate(this->_Myfirst,
; 1307 : 				this->_Myend - this->_Myfirst);

  0000e	ff 36		 push	 DWORD PTR [esi]
  00010	e8 00 00 00 00	 call	 ??3@YAXPAX@Z		; operator delete
  00015	59		 pop	 ecx
$LN21@Tidy:

; 1308 : 			}
; 1309 : 		this->_Myfirst = 0;

  00016	83 26 00	 and	 DWORD PTR [esi], 0

; 1310 : 		this->_Mylast = 0;

  00019	83 66 04 00	 and	 DWORD PTR [esi+4], 0

; 1311 : 		this->_Myend = 0;

  0001d	83 66 08 00	 and	 DWORD PTR [esi+8], 0
  00021	5e		 pop	 esi

; 1312 : 		}

  00022	c3		 ret	 0
?_Tidy@?$vector@UChangeDirInfo@@V?$allocator@UChangeDirInfo@@@std@@@std@@IAEXXZ ENDP ; std::vector<ChangeDirInfo,std::allocator<ChangeDirInfo> >::_Tidy
_TEXT	ENDS
PUBLIC	?_Destroy@?$vector@USecondAttribute@@V?$allocator@USecondAttribute@@@std@@@std@@IAEXPAUSecondAttribute@@0@Z ; std::vector<SecondAttribute,std::allocator<SecondAttribute> >::_Destroy
; Function compile flags: /Ogsp
;	COMDAT ?_Destroy@?$vector@USecondAttribute@@V?$allocator@USecondAttribute@@@std@@@std@@IAEXPAUSecondAttribute@@0@Z
_TEXT	SEGMENT
__First$ = 8						; size = 4
__Last$ = 12						; size = 4
?_Destroy@?$vector@USecondAttribute@@V?$allocator@USecondAttribute@@@std@@@std@@IAEXPAUSecondAttribute@@0@Z PROC ; std::vector<SecondAttribute,std::allocator<SecondAttribute> >::_Destroy, COMDAT
; _this$ = ecx

; 1270 : 		_Destroy_range(_First, _Last, this->_Alval);
; 1271 : 		}

  00000	c2 08 00	 ret	 8
?_Destroy@?$vector@USecondAttribute@@V?$allocator@USecondAttribute@@@std@@@std@@IAEXPAUSecondAttribute@@0@Z ENDP ; std::vector<SecondAttribute,std::allocator<SecondAttribute> >::_Destroy
_TEXT	ENDS
PUBLIC	??$_Umove@PAUChangeDirInfo@@@?$vector@UChangeDirInfo@@V?$allocator@UChangeDirInfo@@@std@@@std@@IAEPAUChangeDirInfo@@PAU2@00@Z ; std::vector<ChangeDirInfo,std::allocator<ChangeDirInfo> >::_Umove<ChangeDirInfo *>
; Function compile flags: /Ogsp
;	COMDAT ??$_Umove@PAUChangeDirInfo@@@?$vector@UChangeDirInfo@@V?$allocator@UChangeDirInfo@@@std@@@std@@IAEPAUChangeDirInfo@@PAU2@00@Z
_TEXT	SEGMENT
__First$ = 8						; size = 4
__Last$ = 12						; size = 4
__Ptr$ = 16						; size = 4
??$_Umove@PAUChangeDirInfo@@@?$vector@UChangeDirInfo@@V?$allocator@UChangeDirInfo@@@std@@@std@@IAEPAUChangeDirInfo@@PAU2@00@Z PROC ; std::vector<ChangeDirInfo,std::allocator<ChangeDirInfo> >::_Umove<ChangeDirInfo *>, COMDAT
; _this$ = ecx

; 1322 : 		pointer _Umove(_Iter _First, _Iter _Last, pointer _Ptr)

  00000	55		 push	 ebp
  00001	8b ec		 mov	 ebp, esp

; 1323 : 		{	// move initializing [_First, _Last), using allocator
; 1324 : 		return (_Uninitialized_move(_First, _Last,
; 1325 : 			_Ptr, this->_Alval));

  00003	83 c1 0c	 add	 ecx, 12			; 0000000cH
  00006	51		 push	 ecx
  00007	ff 75 10	 push	 DWORD PTR __Ptr$[ebp]
  0000a	ff 75 0c	 push	 DWORD PTR __Last$[ebp]
  0000d	ff 75 08	 push	 DWORD PTR __First$[ebp]
  00010	e8 00 00 00 00	 call	 ??$_Uninitialized_move@PAUChangeDirInfo@@PAU1@V?$allocator@UChangeDirInfo@@@std@@@std@@YAPAUChangeDirInfo@@PAU1@00AAV?$allocator@UChangeDirInfo@@@0@@Z ; std::_Uninitialized_move<ChangeDirInfo *,ChangeDirInfo *,std::allocator<ChangeDirInfo> >
  00015	83 c4 10	 add	 esp, 16			; 00000010H

; 1326 : 		}

  00018	5d		 pop	 ebp
  00019	c2 0c 00	 ret	 12			; 0000000cH
??$_Umove@PAUChangeDirInfo@@@?$vector@UChangeDirInfo@@V?$allocator@UChangeDirInfo@@@std@@@std@@IAEPAUChangeDirInfo@@PAU2@00@Z ENDP ; std::vector<ChangeDirInfo,std::allocator<ChangeDirInfo> >::_Umove<ChangeDirInfo *>
_TEXT	ENDS
PUBLIC	??$_Umove@PAUSecondAttribute@@@?$vector@USecondAttribute@@V?$allocator@USecondAttribute@@@std@@@std@@IAEPAUSecondAttribute@@PAU2@00@Z ; std::vector<SecondAttribute,std::allocator<SecondAttribute> >::_Umove<SecondAttribute *>
; Function compile flags: /Ogsp
;	COMDAT ??$_Umove@PAUSecondAttribute@@@?$vector@USecondAttribute@@V?$allocator@USecondAttribute@@@std@@@std@@IAEPAUSecondAttribute@@PAU2@00@Z
_TEXT	SEGMENT
__First$ = 8						; size = 4
__Last$ = 12						; size = 4
__Ptr$ = 16						; size = 4
??$_Umove@PAUSecondAttribute@@@?$vector@USecondAttribute@@V?$allocator@USecondAttribute@@@std@@@std@@IAEPAUSecondAttribute@@PAU2@00@Z PROC ; std::vector<SecondAttribute,std::allocator<SecondAttribute> >::_Umove<SecondAttribute *>, COMDAT
; _this$ = ecx

; 1322 : 		pointer _Umove(_Iter _First, _Iter _Last, pointer _Ptr)

  00000	55		 push	 ebp
  00001	8b ec		 mov	 ebp, esp

; 1323 : 		{	// move initializing [_First, _Last), using allocator
; 1324 : 		return (_Uninitialized_move(_First, _Last,
; 1325 : 			_Ptr, this->_Alval));

  00003	83 c1 0c	 add	 ecx, 12			; 0000000cH
  00006	51		 push	 ecx
  00007	ff 75 10	 push	 DWORD PTR __Ptr$[ebp]
  0000a	ff 75 0c	 push	 DWORD PTR __Last$[ebp]
  0000d	ff 75 08	 push	 DWORD PTR __First$[ebp]
  00010	e8 00 00 00 00	 call	 ??$_Uninitialized_move@PAUSecondAttribute@@PAU1@V?$allocator@USecondAttribute@@@std@@@std@@YAPAUSecondAttribute@@PAU1@00AAV?$allocator@USecondAttribute@@@0@@Z ; std::_Uninitialized_move<SecondAttribute *,SecondAttribute *,std::allocator<SecondAttribute> >
  00015	83 c4 10	 add	 esp, 16			; 00000010H

; 1326 : 		}

  00018	5d		 pop	 ebp
  00019	c2 0c 00	 ret	 12			; 0000000cH
??$_Umove@PAUSecondAttribute@@@?$vector@USecondAttribute@@V?$allocator@USecondAttribute@@@std@@@std@@IAEPAUSecondAttribute@@PAU2@00@Z ENDP ; std::vector<SecondAttribute,std::allocator<SecondAttribute> >::_Umove<SecondAttribute *>
_TEXT	ENDS
PUBLIC	??$_Sort_heap@PAUChangeDirInfo@@VChangeDirSort@@@std@@YAXPAUChangeDirInfo@@0VChangeDirSort@@@Z ; std::_Sort_heap<ChangeDirInfo *,ChangeDirSort>
; Function compile flags: /Ogsp
; File c:\program files (x86)\microsoft visual studio 10.0\vc\include\algorithm
;	COMDAT ??$_Sort_heap@PAUChangeDirInfo@@VChangeDirSort@@@std@@YAXPAUChangeDirInfo@@0VChangeDirSort@@@Z
_TEXT	SEGMENT
__First$ = 8						; size = 4
__Last$ = 12						; size = 4
__Pred$ = 16						; size = 1
??$_Sort_heap@PAUChangeDirInfo@@VChangeDirSort@@@std@@YAXPAUChangeDirInfo@@0VChangeDirSort@@@Z PROC ; std::_Sort_heap<ChangeDirInfo *,ChangeDirSort>, COMDAT

; 2700 : 	{	// order heap by repeatedly popping, using _Pred

  00000	55		 push	 ebp
  00001	8b ec		 mov	 ebp, esp

; 2701 : 	for (; 1 < _Last - _First; --_Last)

  00003	8b 4d 0c	 mov	 ecx, DWORD PTR __Last$[ebp]
  00006	2b 4d 08	 sub	 ecx, DWORD PTR __First$[ebp]
  00009	57		 push	 edi
  0000a	8b c1		 mov	 eax, ecx
  0000c	6a 1c		 push	 28			; 0000001cH
  0000e	99		 cdq
  0000f	5f		 pop	 edi
  00010	f7 ff		 idiv	 edi
  00012	83 f8 01	 cmp	 eax, 1
  00015	7e 29		 jle	 SHORT $LN1@Sort_heap
  00017	8b f9		 mov	 edi, ecx
$LL3@Sort_heap:

; 2702 : 		_Pop_heap(_First, _Last, _Pred);

  00019	6a 00		 push	 0
  0001b	ff 75 10	 push	 DWORD PTR __Pred$[ebp]
  0001e	ff 75 0c	 push	 DWORD PTR __Last$[ebp]
  00021	ff 75 08	 push	 DWORD PTR __First$[ebp]
  00024	e8 00 00 00 00	 call	 ??$_Pop_heap_0@PAUChangeDirInfo@@U1@VChangeDirSort@@@std@@YAXPAUChangeDirInfo@@0VChangeDirSort@@0@Z ; std::_Pop_heap_0<ChangeDirInfo *,ChangeDirInfo,ChangeDirSort>
  00029	83 c4 10	 add	 esp, 16			; 00000010H
  0002c	83 ef 1c	 sub	 edi, 28			; 0000001cH
  0002f	8b c7		 mov	 eax, edi
  00031	6a 1c		 push	 28			; 0000001cH
  00033	99		 cdq
  00034	59		 pop	 ecx
  00035	f7 f9		 idiv	 ecx
  00037	83 6d 0c 1c	 sub	 DWORD PTR __Last$[ebp], 28 ; 0000001cH
  0003b	83 f8 01	 cmp	 eax, 1
  0003e	7f d9		 jg	 SHORT $LL3@Sort_heap
$LN1@Sort_heap:
  00040	5f		 pop	 edi

; 2703 : 	}

  00041	5d		 pop	 ebp
  00042	c3		 ret	 0
??$_Sort_heap@PAUChangeDirInfo@@VChangeDirSort@@@std@@YAXPAUChangeDirInfo@@0VChangeDirSort@@@Z ENDP ; std::_Sort_heap<ChangeDirInfo *,ChangeDirSort>
_TEXT	ENDS
PUBLIC	??1?$vector@UChangeDirInfo@@V?$allocator@UChangeDirInfo@@@std@@@std@@QAE@XZ ; std::vector<ChangeDirInfo,std::allocator<ChangeDirInfo> >::~vector<ChangeDirInfo,std::allocator<ChangeDirInfo> >
; Function compile flags: /Ogsp
; File c:\program files (x86)\microsoft visual studio 10.0\vc\include\vector
;	COMDAT ??1?$vector@UChangeDirInfo@@V?$allocator@UChangeDirInfo@@@std@@@std@@QAE@XZ
_TEXT	SEGMENT
??1?$vector@UChangeDirInfo@@V?$allocator@UChangeDirInfo@@@std@@@std@@QAE@XZ PROC ; std::vector<ChangeDirInfo,std::allocator<ChangeDirInfo> >::~vector<ChangeDirInfo,std::allocator<ChangeDirInfo> >, COMDAT
; _this$ = ecx

; 705  : 		_Tidy();

  00000	e9 00 00 00 00	 jmp	 ?_Tidy@?$vector@UChangeDirInfo@@V?$allocator@UChangeDirInfo@@@std@@@std@@IAEXXZ ; std::vector<ChangeDirInfo,std::allocator<ChangeDirInfo> >::_Tidy
??1?$vector@UChangeDirInfo@@V?$allocator@UChangeDirInfo@@@std@@@std@@QAE@XZ ENDP ; std::vector<ChangeDirInfo,std::allocator<ChangeDirInfo> >::~vector<ChangeDirInfo,std::allocator<ChangeDirInfo> >
_TEXT	ENDS
PUBLIC	?reserve@?$vector@UChangeDirInfo@@V?$allocator@UChangeDirInfo@@@std@@@std@@QAEXI@Z ; std::vector<ChangeDirInfo,std::allocator<ChangeDirInfo> >::reserve
EXTRN	__EH_epilog3:PROC
EXTRN	__EH_prolog3_catch:PROC
;	COMDAT xdata$x
; File c:\program files (x86)\microsoft visual studio 10.0\vc\include\xmemory
xdata$x	SEGMENT
__catchsym$?reserve@?$vector@UChangeDirInfo@@V?$allocator@UChangeDirInfo@@@std@@@std@@QAEXI@Z$2 DD 040H
	DD	00H
	DD	00H
	DD	FLAT:__catch$?reserve@?$vector@UChangeDirInfo@@V?$allocator@UChangeDirInfo@@@std@@@std@@QAEXI@Z$0
__unwindtable$?reserve@?$vector@UChangeDirInfo@@V?$allocator@UChangeDirInfo@@@std@@@std@@QAEXI@Z DD 0ffffffffH
	DD	00H
	DD	0ffffffffH
	DD	00H
__tryblocktable$?reserve@?$vector@UChangeDirInfo@@V?$allocator@UChangeDirInfo@@@std@@@std@@QAEXI@Z DD 00H
	DD	00H
	DD	01H
	DD	01H
	DD	FLAT:__catchsym$?reserve@?$vector@UChangeDirInfo@@V?$allocator@UChangeDirInfo@@@std@@@std@@QAEXI@Z$2
__ehfuncinfo$?reserve@?$vector@UChangeDirInfo@@V?$allocator@UChangeDirInfo@@@std@@@std@@QAEXI@Z DD 019930522H
	DD	02H
	DD	FLAT:__unwindtable$?reserve@?$vector@UChangeDirInfo@@V?$allocator@UChangeDirInfo@@@std@@@std@@QAEXI@Z
	DD	01H
	DD	FLAT:__tryblocktable$?reserve@?$vector@UChangeDirInfo@@V?$allocator@UChangeDirInfo@@@std@@@std@@QAEXI@Z
	DD	2 DUP(00H)
	DD	00H
	DD	01H
; Function compile flags: /Ogsp
; File c:\program files (x86)\microsoft visual studio 10.0\vc\include\vector
xdata$x	ENDS
;	COMDAT ?reserve@?$vector@UChangeDirInfo@@V?$allocator@UChangeDirInfo@@@std@@@std@@QAEXI@Z
_TEXT	SEGMENT
__$EHRec$ = -16						; size = 16
__Ptr$584674 = 8					; size = 4
__Count$ = 8						; size = 4
?reserve@?$vector@UChangeDirInfo@@V?$allocator@UChangeDirInfo@@@std@@@std@@QAEXI@Z PROC ; std::vector<ChangeDirInfo,std::allocator<ChangeDirInfo> >::reserve, COMDAT
; _this$ = ecx

; 746  : 		{	// determine new minimum length of allocated storage

  00000	6a 04		 push	 4
  00002	b8 00 00 00 00	 mov	 eax, __ehhandler$?reserve@?$vector@UChangeDirInfo@@V?$allocator@UChangeDirInfo@@@std@@@std@@QAEXI@Z
  00007	e8 00 00 00 00	 call	 __EH_prolog3_catch
  0000c	8b f1		 mov	 esi, ecx

; 747  : 		if (max_size() < _Count)

  0000e	8b 5d 08	 mov	 ebx, DWORD PTR __Count$[ebp]
  00011	81 fb 49 92 24
	09		 cmp	 ebx, 153391689		; 09249249H
  00017	76 0b		 jbe	 SHORT $LN5@reserve

; 748  : 			_Xlen();	// result too long

  00019	68 00 00 00 00	 push	 OFFSET ??_C@_0BD@OLBABOEK@vector?$DMT?$DO?5too?5long?$AA@
  0001e	ff 15 00 00 00
	00		 call	 DWORD PTR __imp_?_Xlength_error@std@@YAXPBD@Z
$LN56@reserve:
$LN5@reserve:

; 749  : 		else if (capacity() < _Count)

  00024	8b 46 08	 mov	 eax, DWORD PTR [esi+8]
  00027	2b 06		 sub	 eax, DWORD PTR [esi]
  00029	6a 1c		 push	 28			; 0000001cH
  0002b	99		 cdq
  0002c	59		 pop	 ecx
  0002d	f7 f9		 idiv	 ecx
  0002f	3b c3		 cmp	 eax, ebx
  00031	73 6b		 jae	 SHORT $LN3@reserve

; 750  : 			{	// not enough room, reallocate
; 751  : 			pointer _Ptr = this->_Alval.allocate(_Count);

  00033	6a 00		 push	 0
  00035	53		 push	 ebx
  00036	e8 00 00 00 00	 call	 ??$_Allocate@UChangeDirInfo@@@std@@YAPAUChangeDirInfo@@IPAU1@@Z ; std::_Allocate<ChangeDirInfo>

; 752  : 
; 753  : 			_TRY_BEGIN
; 754  : 			_Umove(this->_Myfirst, this->_Mylast, _Ptr);

  0003b	8b 0e		 mov	 ecx, DWORD PTR [esi]
  0003d	83 65 fc 00	 and	 DWORD PTR __$EHRec$[ebp+12], 0
  00041	8d 56 0c	 lea	 edx, DWORD PTR [esi+12]
  00044	52		 push	 edx
  00045	89 45 08	 mov	 DWORD PTR __Ptr$584674[ebp], eax
  00048	ff 75 08	 push	 DWORD PTR __Ptr$584674[ebp]
  0004b	8b 46 04	 mov	 eax, DWORD PTR [esi+4]
  0004e	50		 push	 eax
  0004f	51		 push	 ecx
  00050	e8 00 00 00 00	 call	 ??$_Uninitialized_move@PAUChangeDirInfo@@PAU1@V?$allocator@UChangeDirInfo@@@std@@@std@@YAPAUChangeDirInfo@@PAU1@00AAV?$allocator@UChangeDirInfo@@@0@@Z ; std::_Uninitialized_move<ChangeDirInfo *,ChangeDirInfo *,std::allocator<ChangeDirInfo> >

; 758  : 			_CATCH_END
; 759  : 
; 760  : 			size_type _Size = size();

  00055	8b 0e		 mov	 ecx, DWORD PTR [esi]
  00057	8b 46 04	 mov	 eax, DWORD PTR [esi+4]
  0005a	83 c4 18	 add	 esp, 24			; 00000018H
  0005d	2b c1		 sub	 eax, ecx
  0005f	6a 1c		 push	 28			; 0000001cH
  00061	99		 cdq
  00062	5f		 pop	 edi
  00063	f7 ff		 idiv	 edi
  00065	83 4d fc ff	 or	 DWORD PTR __$EHRec$[ebp+12], -1
  00069	8b f8		 mov	 edi, eax
  0006b	85 c9		 test	 ecx, ecx
  0006d	74 12		 je	 SHORT $LN48@reserve

; 761  : 			if (this->_Myfirst != 0)

  0006f	eb 03		 jmp	 SHORT $LN55@reserve

; 762  : 				{	// destroy and deallocate old array
; 763  : 				_Destroy(this->_Myfirst, this->_Mylast);

$LL39@reserve:
  00071	83 c1 1c	 add	 ecx, 28			; 0000001cH
$LN55@reserve:
  00074	3b 4e 04	 cmp	 ecx, DWORD PTR [esi+4]
  00077	75 f8		 jne	 SHORT $LL39@reserve

; 764  : 				this->_Alval.deallocate(this->_Myfirst,
; 765  : 					this->_Myend - this->_Myfirst);

  00079	ff 36		 push	 DWORD PTR [esi]
  0007b	e8 00 00 00 00	 call	 ??3@YAXPAX@Z		; operator delete
  00080	59		 pop	 ecx
$LN48@reserve:

; 766  : 				}
; 767  : 
; 768  : 			this->_Orphan_all();

  00081	8b ce		 mov	 ecx, esi
  00083	ff 15 00 00 00
	00		 call	 DWORD PTR __imp_?_Orphan_all@_Container_base0@std@@QAEXXZ

; 769  : 			this->_Myend = _Ptr + _Count;

  00089	6b db 1c	 imul	 ebx, 28			; 0000001cH

; 770  : 			this->_Mylast = _Ptr + _Size;

  0008c	6b ff 1c	 imul	 edi, 28			; 0000001cH
  0008f	8b 45 08	 mov	 eax, DWORD PTR __Ptr$584674[ebp]
  00092	03 d8		 add	 ebx, eax
  00094	03 f8		 add	 edi, eax
  00096	89 5e 08	 mov	 DWORD PTR [esi+8], ebx
  00099	89 7e 04	 mov	 DWORD PTR [esi+4], edi

; 771  : 			this->_Myfirst = _Ptr;

  0009c	89 06		 mov	 DWORD PTR [esi], eax
$LN3@reserve:

; 772  : 			}
; 773  : 		}

  0009e	e8 00 00 00 00	 call	 __EH_epilog3
  000a3	c2 04 00	 ret	 4
__catch$?reserve@?$vector@UChangeDirInfo@@V?$allocator@UChangeDirInfo@@@std@@@std@@QAEXI@Z$0:

; 755  : 			_CATCH_ALL
; 756  : 			this->_Alval.deallocate(_Ptr, _Count);

  000a6	ff 75 08	 push	 DWORD PTR __Ptr$584674[ebp]
  000a9	e8 00 00 00 00	 call	 ??3@YAXPAX@Z		; operator delete
  000ae	59		 pop	 ecx

; 757  : 			_RERAISE;

  000af	6a 00		 push	 0
  000b1	6a 00		 push	 0
  000b3	e8 00 00 00 00	 call	 __CxxThrowException@8
$LN57@reserve:
$LN54@reserve:
  000b8	cc		 int	 3
_TEXT	ENDS
;	COMDAT text$x
text$x	SEGMENT
__ehhandler$?reserve@?$vector@UChangeDirInfo@@V?$allocator@UChangeDirInfo@@@std@@@std@@QAEXI@Z:
  00000	8b 54 24 08	 mov	 edx, DWORD PTR [esp+8]
  00004	8d 42 0c	 lea	 eax, DWORD PTR [edx+12]
  00007	8b 4a ec	 mov	 ecx, DWORD PTR [edx-20]
  0000a	33 c8		 xor	 ecx, eax
  0000c	e8 00 00 00 00	 call	 @__security_check_cookie@4
  00011	b8 00 00 00 00	 mov	 eax, OFFSET __ehfuncinfo$?reserve@?$vector@UChangeDirInfo@@V?$allocator@UChangeDirInfo@@@std@@@std@@QAEXI@Z
  00016	e9 00 00 00 00	 jmp	 ___CxxFrameHandler3
text$x	ENDS
?reserve@?$vector@UChangeDirInfo@@V?$allocator@UChangeDirInfo@@@std@@@std@@QAEXI@Z ENDP ; std::vector<ChangeDirInfo,std::allocator<ChangeDirInfo> >::reserve
PUBLIC	?erase@?$vector@UChangeDirInfo@@V?$allocator@UChangeDirInfo@@@std@@@std@@QAE?AV?$_Vector_iterator@V?$_Vector_val@UChangeDirInfo@@V?$allocator@UChangeDirInfo@@@std@@@std@@@2@V?$_Vector_const_iterator@V?$_Vector_val@UChangeDirInfo@@V?$allocator@UChangeDirInfo@@@std@@@std@@@2@@Z ; std::vector<ChangeDirInfo,std::allocator<ChangeDirInfo> >::erase
; Function compile flags: /Ogsp
;	COMDAT ?erase@?$vector@UChangeDirInfo@@V?$allocator@UChangeDirInfo@@@std@@@std@@QAE?AV?$_Vector_iterator@V?$_Vector_val@UChangeDirInfo@@V?$allocator@UChangeDirInfo@@@std@@@std@@@2@V?$_Vector_const_iterator@V?$_Vector_val@UChangeDirInfo@@V?$allocator@UChangeDirInfo@@@std@@@std@@@2@@Z
_TEXT	SEGMENT
___$ReturnUdt$ = 8					; size = 4
__Cat$590518 = 12					; size = 1
__Where$ = 12						; size = 4
?erase@?$vector@UChangeDirInfo@@V?$allocator@UChangeDirInfo@@@std@@@std@@QAE?AV?$_Vector_iterator@V?$_Vector_val@UChangeDirInfo@@V?$allocator@UChangeDirInfo@@@std@@@std@@@2@V?$_Vector_const_iterator@V?$_Vector_val@UChangeDirInfo@@V?$allocator@UChangeDirInfo@@@std@@@std@@@2@@Z PROC ; std::vector<ChangeDirInfo,std::allocator<ChangeDirInfo> >::erase, COMDAT
; _this$ = ecx

; 1179 : 		{	// erase element at where

  00000	55		 push	 ebp
  00001	8b ec		 mov	 ebp, esp

; 1180 : 		_Move(_VIPTR(_Where) + 1, this->_Mylast,
; 1181 : 			_VIPTR(_Where));

  00003	8b 45 0c	 mov	 eax, DWORD PTR __Where$[ebp]
  00006	56		 push	 esi
  00007	ff 75 0c	 push	 DWORD PTR __Cat$590518[ebp]
  0000a	8b f1		 mov	 esi, ecx
  0000c	50		 push	 eax
  0000d	ff 76 04	 push	 DWORD PTR [esi+4]
  00010	83 c0 1c	 add	 eax, 28			; 0000001cH
  00013	50		 push	 eax
  00014	e8 00 00 00 00	 call	 ??$_Move@PAUChangeDirInfo@@PAU1@@std@@YAPAUChangeDirInfo@@PAU1@00U_Nonscalar_ptr_iterator_tag@0@@Z ; std::_Move<ChangeDirInfo *,ChangeDirInfo *>

; 1182 : 		_Destroy(this->_Mylast - 1, this->_Mylast);
; 1183 : 		--this->_Mylast;
; 1184 : 		return (_Make_iter(_Where));

  00019	8b 45 08	 mov	 eax, DWORD PTR ___$ReturnUdt$[ebp]
  0001c	8b 4d 0c	 mov	 ecx, DWORD PTR __Where$[ebp]
  0001f	83 c4 10	 add	 esp, 16			; 00000010H
  00022	83 46 04 e4	 add	 DWORD PTR [esi+4], -28	; ffffffe4H
  00026	89 08		 mov	 DWORD PTR [eax], ecx
  00028	5e		 pop	 esi

; 1185 : 		}

  00029	5d		 pop	 ebp
  0002a	c2 08 00	 ret	 8
?erase@?$vector@UChangeDirInfo@@V?$allocator@UChangeDirInfo@@@std@@@std@@QAE?AV?$_Vector_iterator@V?$_Vector_val@UChangeDirInfo@@V?$allocator@UChangeDirInfo@@@std@@@std@@@2@V?$_Vector_const_iterator@V?$_Vector_val@UChangeDirInfo@@V?$allocator@UChangeDirInfo@@@std@@@std@@@2@@Z ENDP ; std::vector<ChangeDirInfo,std::allocator<ChangeDirInfo> >::erase
_TEXT	ENDS
PUBLIC	?erase@?$vector@UChangeDirInfo@@V?$allocator@UChangeDirInfo@@@std@@@std@@QAE?AV?$_Vector_iterator@V?$_Vector_val@UChangeDirInfo@@V?$allocator@UChangeDirInfo@@@std@@@std@@@2@V?$_Vector_const_iterator@V?$_Vector_val@UChangeDirInfo@@V?$allocator@UChangeDirInfo@@@std@@@std@@@2@0@Z ; std::vector<ChangeDirInfo,std::allocator<ChangeDirInfo> >::erase
; Function compile flags: /Ogsp
;	COMDAT ?erase@?$vector@UChangeDirInfo@@V?$allocator@UChangeDirInfo@@@std@@@std@@QAE?AV?$_Vector_iterator@V?$_Vector_val@UChangeDirInfo@@V?$allocator@UChangeDirInfo@@@std@@@std@@@2@V?$_Vector_const_iterator@V?$_Vector_val@UChangeDirInfo@@V?$allocator@UChangeDirInfo@@@std@@@std@@@2@0@Z
_TEXT	SEGMENT
___$ReturnUdt$ = 8					; size = 4
__First_arg$ = 12					; size = 4
__Cat$590692 = 16					; size = 1
__Last_arg$ = 16					; size = 4
?erase@?$vector@UChangeDirInfo@@V?$allocator@UChangeDirInfo@@@std@@@std@@QAE?AV?$_Vector_iterator@V?$_Vector_val@UChangeDirInfo@@V?$allocator@UChangeDirInfo@@@std@@@std@@@2@V?$_Vector_const_iterator@V?$_Vector_val@UChangeDirInfo@@V?$allocator@UChangeDirInfo@@@std@@@std@@@2@0@Z PROC ; std::vector<ChangeDirInfo,std::allocator<ChangeDirInfo> >::erase, COMDAT
; _this$ = ecx

; 1190 : 		{	// erase [_First, _Last)

  00000	55		 push	 ebp
  00001	8b ec		 mov	 ebp, esp

; 1191 : 		iterator _First = _Make_iter(_First_arg);

  00003	8b 45 0c	 mov	 eax, DWORD PTR __First_arg$[ebp]
  00006	56		 push	 esi
  00007	57		 push	 edi
  00008	8b 7d 08	 mov	 edi, DWORD PTR ___$ReturnUdt$[ebp]
  0000b	8b f1		 mov	 esi, ecx
  0000d	89 07		 mov	 DWORD PTR [edi], eax

; 1192 : 		iterator _Last = _Make_iter(_Last_arg);
; 1193 : 
; 1194 : 		if (_First != _Last)

  0000f	3b 45 10	 cmp	 eax, DWORD PTR __Last_arg$[ebp]
  00012	74 16		 je	 SHORT $LN1@erase

; 1195 : 			{	// worth doing, copy down over hole
; 1196 :  #if _ITERATOR_DEBUG_LEVEL == 2
; 1197 : 			if (_Last < _First || _VICONT(_First) != this
; 1198 : 				|| _VIPTR(_First) < this->_Myfirst
; 1199 : 				|| this->_Mylast < _VIPTR(_Last))
; 1200 : 				_DEBUG_ERROR("vector erase iterator outside range");
; 1201 : 			pointer _Ptr = _Move(_VIPTR(_Last), this->_Mylast,
; 1202 : 				_VIPTR(_First));
; 1203 : 			_Orphan_range(_VIPTR(_First), this->_Mylast);
; 1204 : 
; 1205 :  #else /* _ITERATOR_DEBUG_LEVEL == 2 */
; 1206 : 			pointer _Ptr = _Move(_VIPTR(_Last), this->_Mylast,
; 1207 : 				_VIPTR(_First));

  00014	ff 75 10	 push	 DWORD PTR __Cat$590692[ebp]
  00017	8b 4e 04	 mov	 ecx, DWORD PTR [esi+4]
  0001a	50		 push	 eax
  0001b	51		 push	 ecx
  0001c	ff 75 10	 push	 DWORD PTR __Last_arg$[ebp]
  0001f	e8 00 00 00 00	 call	 ??$_Move@PAUChangeDirInfo@@PAU1@@std@@YAPAUChangeDirInfo@@PAU1@00U_Nonscalar_ptr_iterator_tag@0@@Z ; std::_Move<ChangeDirInfo *,ChangeDirInfo *>
  00024	83 c4 10	 add	 esp, 16			; 00000010H

; 1208 :  #endif /* _ITERATOR_DEBUG_LEVEL == 2 */
; 1209 : 
; 1210 : 			_Destroy(_Ptr, this->_Mylast);
; 1211 : 			this->_Mylast = _Ptr;

  00027	89 46 04	 mov	 DWORD PTR [esi+4], eax
$LN1@erase:

; 1212 : 			}
; 1213 : 		return (_First);

  0002a	8b c7		 mov	 eax, edi
  0002c	5f		 pop	 edi
  0002d	5e		 pop	 esi

; 1214 : 		}

  0002e	5d		 pop	 ebp
  0002f	c2 0c 00	 ret	 12			; 0000000cH
?erase@?$vector@UChangeDirInfo@@V?$allocator@UChangeDirInfo@@@std@@@std@@QAE?AV?$_Vector_iterator@V?$_Vector_val@UChangeDirInfo@@V?$allocator@UChangeDirInfo@@@std@@@std@@@2@V?$_Vector_const_iterator@V?$_Vector_val@UChangeDirInfo@@V?$allocator@UChangeDirInfo@@@std@@@std@@@2@0@Z ENDP ; std::vector<ChangeDirInfo,std::allocator<ChangeDirInfo> >::erase
_TEXT	ENDS
PUBLIC	?_Reserve@?$vector@UChangeDirInfo@@V?$allocator@UChangeDirInfo@@@std@@@std@@IAEXI@Z ; std::vector<ChangeDirInfo,std::allocator<ChangeDirInfo> >::_Reserve
; Function compile flags: /Ogsp
;	COMDAT ?_Reserve@?$vector@UChangeDirInfo@@V?$allocator@UChangeDirInfo@@@std@@@std@@IAEXI@Z
_TEXT	SEGMENT
__Count$ = 8						; size = 4
?_Reserve@?$vector@UChangeDirInfo@@V?$allocator@UChangeDirInfo@@@std@@@std@@IAEXI@Z PROC ; std::vector<ChangeDirInfo,std::allocator<ChangeDirInfo> >::_Reserve, COMDAT
; _this$ = ecx

; 1290 : 		{	// ensure room for _Count new elements, grow exponentially

  00000	55		 push	 ebp
  00001	8b ec		 mov	 ebp, esp
  00003	56		 push	 esi
  00004	8b f1		 mov	 esi, ecx

; 1291 : 		size_type _Size = size();

  00006	8b 0e		 mov	 ecx, DWORD PTR [esi]
  00008	8b 46 04	 mov	 eax, DWORD PTR [esi+4]
  0000b	2b c1		 sub	 eax, ecx
  0000d	57		 push	 edi
  0000e	99		 cdq
  0000f	6a 1c		 push	 28			; 0000001cH
  00011	5f		 pop	 edi
  00012	f7 ff		 idiv	 edi
  00014	8b f8		 mov	 edi, eax

; 1292 : 		if (max_size() - _Count < _Size)

  00016	b8 49 92 24 09	 mov	 eax, 153391689		; 09249249H
  0001b	2b 45 08	 sub	 eax, DWORD PTR __Count$[ebp]
  0001e	3b c7		 cmp	 eax, edi
  00020	73 0b		 jae	 SHORT $LN4@Reserve

; 1293 : 			_Xlen();

  00022	68 00 00 00 00	 push	 OFFSET ??_C@_0BD@OLBABOEK@vector?$DMT?$DO?5too?5long?$AA@
  00027	ff 15 00 00 00
	00		 call	 DWORD PTR __imp_?_Xlength_error@std@@YAXPBD@Z
$LN21@Reserve:
$LN4@Reserve:

; 1294 : 		else if ((_Size += _Count) <= capacity())

  0002d	8b 46 08	 mov	 eax, DWORD PTR [esi+8]
  00030	2b c1		 sub	 eax, ecx
  00032	6a 1c		 push	 28			; 0000001cH
  00034	99		 cdq
  00035	59		 pop	 ecx
  00036	f7 f9		 idiv	 ecx
  00038	03 7d 08	 add	 edi, DWORD PTR __Count$[ebp]
  0003b	3b f8		 cmp	 edi, eax
  0003d	76 10		 jbe	 SHORT $LN1@Reserve

; 1295 : 			;
; 1296 : 		else
; 1297 : 			reserve(_Grow_to(_Size));

  0003f	57		 push	 edi
  00040	8b ce		 mov	 ecx, esi
  00042	e8 00 00 00 00	 call	 ?_Grow_to@?$vector@UChangeDirInfo@@V?$allocator@UChangeDirInfo@@@std@@@std@@IBEII@Z ; std::vector<ChangeDirInfo,std::allocator<ChangeDirInfo> >::_Grow_to
  00047	50		 push	 eax
  00048	8b ce		 mov	 ecx, esi
  0004a	e8 00 00 00 00	 call	 ?reserve@?$vector@UChangeDirInfo@@V?$allocator@UChangeDirInfo@@@std@@@std@@QAEXI@Z ; std::vector<ChangeDirInfo,std::allocator<ChangeDirInfo> >::reserve
$LN1@Reserve:
  0004f	5f		 pop	 edi
  00050	5e		 pop	 esi

; 1298 : 		}

  00051	5d		 pop	 ebp
  00052	c2 04 00	 ret	 4
$LN20@Reserve:
?_Reserve@?$vector@UChangeDirInfo@@V?$allocator@UChangeDirInfo@@@std@@@std@@IAEXI@Z ENDP ; std::vector<ChangeDirInfo,std::allocator<ChangeDirInfo> >::_Reserve
_TEXT	ENDS
PUBLIC	?erase@?$vector@USecondAttribute@@V?$allocator@USecondAttribute@@@std@@@std@@QAE?AV?$_Vector_iterator@V?$_Vector_val@USecondAttribute@@V?$allocator@USecondAttribute@@@std@@@std@@@2@V?$_Vector_const_iterator@V?$_Vector_val@USecondAttribute@@V?$allocator@USecondAttribute@@@std@@@std@@@2@0@Z ; std::vector<SecondAttribute,std::allocator<SecondAttribute> >::erase
; Function compile flags: /Ogsp
;	COMDAT ?erase@?$vector@USecondAttribute@@V?$allocator@USecondAttribute@@@std@@@std@@QAE?AV?$_Vector_iterator@V?$_Vector_val@USecondAttribute@@V?$allocator@USecondAttribute@@@std@@@std@@@2@V?$_Vector_const_iterator@V?$_Vector_val@USecondAttribute@@V?$allocator@USecondAttribute@@@std@@@std@@@2@0@Z
_TEXT	SEGMENT
___$ReturnUdt$ = 8					; size = 4
__First_arg$ = 12					; size = 4
__Cat$590875 = 16					; size = 1
__Last_arg$ = 16					; size = 4
?erase@?$vector@USecondAttribute@@V?$allocator@USecondAttribute@@@std@@@std@@QAE?AV?$_Vector_iterator@V?$_Vector_val@USecondAttribute@@V?$allocator@USecondAttribute@@@std@@@std@@@2@V?$_Vector_const_iterator@V?$_Vector_val@USecondAttribute@@V?$allocator@USecondAttribute@@@std@@@std@@@2@0@Z PROC ; std::vector<SecondAttribute,std::allocator<SecondAttribute> >::erase, COMDAT
; _this$ = ecx

; 1190 : 		{	// erase [_First, _Last)

  00000	55		 push	 ebp
  00001	8b ec		 mov	 ebp, esp

; 1191 : 		iterator _First = _Make_iter(_First_arg);

  00003	8b 45 0c	 mov	 eax, DWORD PTR __First_arg$[ebp]
  00006	56		 push	 esi
  00007	57		 push	 edi
  00008	8b 7d 08	 mov	 edi, DWORD PTR ___$ReturnUdt$[ebp]
  0000b	8b f1		 mov	 esi, ecx
  0000d	89 07		 mov	 DWORD PTR [edi], eax

; 1192 : 		iterator _Last = _Make_iter(_Last_arg);
; 1193 : 
; 1194 : 		if (_First != _Last)

  0000f	3b 45 10	 cmp	 eax, DWORD PTR __Last_arg$[ebp]
  00012	74 16		 je	 SHORT $LN1@erase@2

; 1195 : 			{	// worth doing, copy down over hole
; 1196 :  #if _ITERATOR_DEBUG_LEVEL == 2
; 1197 : 			if (_Last < _First || _VICONT(_First) != this
; 1198 : 				|| _VIPTR(_First) < this->_Myfirst
; 1199 : 				|| this->_Mylast < _VIPTR(_Last))
; 1200 : 				_DEBUG_ERROR("vector erase iterator outside range");
; 1201 : 			pointer _Ptr = _Move(_VIPTR(_Last), this->_Mylast,
; 1202 : 				_VIPTR(_First));
; 1203 : 			_Orphan_range(_VIPTR(_First), this->_Mylast);
; 1204 : 
; 1205 :  #else /* _ITERATOR_DEBUG_LEVEL == 2 */
; 1206 : 			pointer _Ptr = _Move(_VIPTR(_Last), this->_Mylast,
; 1207 : 				_VIPTR(_First));

  00014	ff 75 10	 push	 DWORD PTR __Cat$590875[ebp]
  00017	8b 4e 04	 mov	 ecx, DWORD PTR [esi+4]
  0001a	50		 push	 eax
  0001b	51		 push	 ecx
  0001c	ff 75 10	 push	 DWORD PTR __Last_arg$[ebp]
  0001f	e8 00 00 00 00	 call	 ??$_Move@PAUSecondAttribute@@PAU1@@std@@YAPAUSecondAttribute@@PAU1@00U_Nonscalar_ptr_iterator_tag@0@@Z ; std::_Move<SecondAttribute *,SecondAttribute *>
  00024	83 c4 10	 add	 esp, 16			; 00000010H

; 1208 :  #endif /* _ITERATOR_DEBUG_LEVEL == 2 */
; 1209 : 
; 1210 : 			_Destroy(_Ptr, this->_Mylast);
; 1211 : 			this->_Mylast = _Ptr;

  00027	89 46 04	 mov	 DWORD PTR [esi+4], eax
$LN1@erase@2:

; 1212 : 			}
; 1213 : 		return (_First);

  0002a	8b c7		 mov	 eax, edi
  0002c	5f		 pop	 edi
  0002d	5e		 pop	 esi

; 1214 : 		}

  0002e	5d		 pop	 ebp
  0002f	c2 0c 00	 ret	 12			; 0000000cH
?erase@?$vector@USecondAttribute@@V?$allocator@USecondAttribute@@@std@@@std@@QAE?AV?$_Vector_iterator@V?$_Vector_val@USecondAttribute@@V?$allocator@USecondAttribute@@@std@@@std@@@2@V?$_Vector_const_iterator@V?$_Vector_val@USecondAttribute@@V?$allocator@USecondAttribute@@@std@@@std@@@2@0@Z ENDP ; std::vector<SecondAttribute,std::allocator<SecondAttribute> >::erase
_TEXT	ENDS
PUBLIC	?_Tidy@?$vector@USecondAttribute@@V?$allocator@USecondAttribute@@@std@@@std@@IAEXXZ ; std::vector<SecondAttribute,std::allocator<SecondAttribute> >::_Tidy
; Function compile flags: /Ogsp
;	COMDAT ?_Tidy@?$vector@USecondAttribute@@V?$allocator@USecondAttribute@@@std@@@std@@IAEXXZ
_TEXT	SEGMENT
?_Tidy@?$vector@USecondAttribute@@V?$allocator@USecondAttribute@@@std@@@std@@IAEXXZ PROC ; std::vector<SecondAttribute,std::allocator<SecondAttribute> >::_Tidy, COMDAT
; _this$ = ecx

; 1301 : 		{	// free all storage

  00000	56		 push	 esi
  00001	8b f1		 mov	 esi, ecx

; 1302 : 		if (this->_Myfirst != 0)

  00003	83 3e 00	 cmp	 DWORD PTR [esi], 0
  00006	74 0e		 je	 SHORT $LN21@Tidy@2

; 1303 : 			{	// something to free, destroy and deallocate it
; 1304 : 			this->_Orphan_all();

  00008	ff 15 00 00 00
	00		 call	 DWORD PTR __imp_?_Orphan_all@_Container_base0@std@@QAEXXZ

; 1305 : 			_Destroy(this->_Myfirst, this->_Mylast);
; 1306 : 			this->_Alval.deallocate(this->_Myfirst,
; 1307 : 				this->_Myend - this->_Myfirst);

  0000e	ff 36		 push	 DWORD PTR [esi]
  00010	e8 00 00 00 00	 call	 ??3@YAXPAX@Z		; operator delete
  00015	59		 pop	 ecx
$LN21@Tidy@2:

; 1308 : 			}
; 1309 : 		this->_Myfirst = 0;

  00016	83 26 00	 and	 DWORD PTR [esi], 0

; 1310 : 		this->_Mylast = 0;

  00019	83 66 04 00	 and	 DWORD PTR [esi+4], 0

; 1311 : 		this->_Myend = 0;

  0001d	83 66 08 00	 and	 DWORD PTR [esi+8], 0
  00021	5e		 pop	 esi

; 1312 : 		}

  00022	c3		 ret	 0
?_Tidy@?$vector@USecondAttribute@@V?$allocator@USecondAttribute@@@std@@@std@@IAEXXZ ENDP ; std::vector<SecondAttribute,std::allocator<SecondAttribute> >::_Tidy
_TEXT	ENDS
PUBLIC	?reserve@?$vector@USecondAttribute@@V?$allocator@USecondAttribute@@@std@@@std@@QAEXI@Z ; std::vector<SecondAttribute,std::allocator<SecondAttribute> >::reserve
;	COMDAT xdata$x
; File c:\program files (x86)\microsoft visual studio 10.0\vc\include\xmemory
xdata$x	SEGMENT
__catchsym$?reserve@?$vector@USecondAttribute@@V?$allocator@USecondAttribute@@@std@@@std@@QAEXI@Z$2 DD 040H
	DD	00H
	DD	00H
	DD	FLAT:__catch$?reserve@?$vector@USecondAttribute@@V?$allocator@USecondAttribute@@@std@@@std@@QAEXI@Z$0
__unwindtable$?reserve@?$vector@USecondAttribute@@V?$allocator@USecondAttribute@@@std@@@std@@QAEXI@Z DD 0ffffffffH
	DD	00H
	DD	0ffffffffH
	DD	00H
__tryblocktable$?reserve@?$vector@USecondAttribute@@V?$allocator@USecondAttribute@@@std@@@std@@QAEXI@Z DD 00H
	DD	00H
	DD	01H
	DD	01H
	DD	FLAT:__catchsym$?reserve@?$vector@USecondAttribute@@V?$allocator@USecondAttribute@@@std@@@std@@QAEXI@Z$2
__ehfuncinfo$?reserve@?$vector@USecondAttribute@@V?$allocator@USecondAttribute@@@std@@@std@@QAEXI@Z DD 019930522H
	DD	02H
	DD	FLAT:__unwindtable$?reserve@?$vector@USecondAttribute@@V?$allocator@USecondAttribute@@@std@@@std@@QAEXI@Z
	DD	01H
	DD	FLAT:__tryblocktable$?reserve@?$vector@USecondAttribute@@V?$allocator@USecondAttribute@@@std@@@std@@QAEXI@Z
	DD	2 DUP(00H)
	DD	00H
	DD	01H
; Function compile flags: /Ogsp
; File c:\program files (x86)\microsoft visual studio 10.0\vc\include\vector
xdata$x	ENDS
;	COMDAT ?reserve@?$vector@USecondAttribute@@V?$allocator@USecondAttribute@@@std@@@std@@QAEXI@Z
_TEXT	SEGMENT
__Ptr$585129 = -20					; size = 4
__$EHRec$ = -16						; size = 16
__Count$ = 8						; size = 4
?reserve@?$vector@USecondAttribute@@V?$allocator@USecondAttribute@@@std@@@std@@QAEXI@Z PROC ; std::vector<SecondAttribute,std::allocator<SecondAttribute> >::reserve, COMDAT
; _this$ = ecx

; 746  : 		{	// determine new minimum length of allocated storage

  00000	6a 08		 push	 8
  00002	b8 00 00 00 00	 mov	 eax, __ehhandler$?reserve@?$vector@USecondAttribute@@V?$allocator@USecondAttribute@@@std@@@std@@QAEXI@Z
  00007	e8 00 00 00 00	 call	 __EH_prolog3_catch
  0000c	8b f1		 mov	 esi, ecx

; 747  : 		if (max_size() < _Count)

  0000e	81 7d 08 ff ff
	ff 1f		 cmp	 DWORD PTR __Count$[ebp], 536870911 ; 1fffffffH
  00015	76 0b		 jbe	 SHORT $LN5@reserve@2

; 748  : 			_Xlen();	// result too long

  00017	68 00 00 00 00	 push	 OFFSET ??_C@_0BD@OLBABOEK@vector?$DMT?$DO?5too?5long?$AA@
  0001c	ff 15 00 00 00
	00		 call	 DWORD PTR __imp_?_Xlength_error@std@@YAXPBD@Z
$LN56@reserve@2:
$LN5@reserve@2:

; 749  : 		else if (capacity() < _Count)

  00022	8b 46 08	 mov	 eax, DWORD PTR [esi+8]
  00025	2b 06		 sub	 eax, DWORD PTR [esi]
  00027	c1 f8 03	 sar	 eax, 3
  0002a	3b 45 08	 cmp	 eax, DWORD PTR __Count$[ebp]
  0002d	73 65		 jae	 SHORT $LN3@reserve@2

; 750  : 			{	// not enough room, reallocate
; 751  : 			pointer _Ptr = this->_Alval.allocate(_Count);

  0002f	6a 00		 push	 0
  00031	ff 75 08	 push	 DWORD PTR __Count$[ebp]
  00034	e8 00 00 00 00	 call	 ??$_Allocate@USecondAttribute@@@std@@YAPAUSecondAttribute@@IPAU1@@Z ; std::_Allocate<SecondAttribute>

; 752  : 
; 753  : 			_TRY_BEGIN
; 754  : 			_Umove(this->_Myfirst, this->_Mylast, _Ptr);

  00039	8b 0e		 mov	 ecx, DWORD PTR [esi]
  0003b	83 65 fc 00	 and	 DWORD PTR __$EHRec$[ebp+12], 0
  0003f	8b d8		 mov	 ebx, eax
  00041	8b 46 04	 mov	 eax, DWORD PTR [esi+4]
  00044	8d 56 0c	 lea	 edx, DWORD PTR [esi+12]
  00047	52		 push	 edx
  00048	53		 push	 ebx
  00049	50		 push	 eax
  0004a	51		 push	 ecx
  0004b	89 5d ec	 mov	 DWORD PTR __Ptr$585129[ebp], ebx
  0004e	e8 00 00 00 00	 call	 ??$_Uninitialized_move@PAUSecondAttribute@@PAU1@V?$allocator@USecondAttribute@@@std@@@std@@YAPAUSecondAttribute@@PAU1@00AAV?$allocator@USecondAttribute@@@0@@Z ; std::_Uninitialized_move<SecondAttribute *,SecondAttribute *,std::allocator<SecondAttribute> >

; 758  : 			_CATCH_END
; 759  : 
; 760  : 			size_type _Size = size();

  00053	8b 4e 04	 mov	 ecx, DWORD PTR [esi+4]
  00056	8b 06		 mov	 eax, DWORD PTR [esi]
  00058	83 4d fc ff	 or	 DWORD PTR __$EHRec$[ebp+12], -1
  0005c	8b f9		 mov	 edi, ecx
  0005e	2b f8		 sub	 edi, eax
  00060	83 c4 18	 add	 esp, 24			; 00000018H
  00063	c1 ff 03	 sar	 edi, 3
  00066	85 c0		 test	 eax, eax
  00068	74 11		 je	 SHORT $LN48@reserve@2

; 761  : 			if (this->_Myfirst != 0)

  0006a	eb 03		 jmp	 SHORT $LN55@reserve@2

; 762  : 				{	// destroy and deallocate old array
; 763  : 				_Destroy(this->_Myfirst, this->_Mylast);

$LL39@reserve@2:
  0006c	83 c0 08	 add	 eax, 8
$LN55@reserve@2:
  0006f	3b c1		 cmp	 eax, ecx
  00071	75 f9		 jne	 SHORT $LL39@reserve@2

; 764  : 				this->_Alval.deallocate(this->_Myfirst,
; 765  : 					this->_Myend - this->_Myfirst);

  00073	ff 36		 push	 DWORD PTR [esi]
  00075	e8 00 00 00 00	 call	 ??3@YAXPAX@Z		; operator delete
  0007a	59		 pop	 ecx
$LN48@reserve@2:

; 766  : 				}
; 767  : 
; 768  : 			this->_Orphan_all();

  0007b	8b ce		 mov	 ecx, esi
  0007d	ff 15 00 00 00
	00		 call	 DWORD PTR __imp_?_Orphan_all@_Container_base0@std@@QAEXXZ

; 769  : 			this->_Myend = _Ptr + _Count;

  00083	8b 45 08	 mov	 eax, DWORD PTR __Count$[ebp]
  00086	8d 04 c3	 lea	 eax, DWORD PTR [ebx+eax*8]
  00089	89 46 08	 mov	 DWORD PTR [esi+8], eax

; 770  : 			this->_Mylast = _Ptr + _Size;

  0008c	8d 04 fb	 lea	 eax, DWORD PTR [ebx+edi*8]
  0008f	89 46 04	 mov	 DWORD PTR [esi+4], eax

; 771  : 			this->_Myfirst = _Ptr;

  00092	89 1e		 mov	 DWORD PTR [esi], ebx
$LN3@reserve@2:

; 772  : 			}
; 773  : 		}

  00094	e8 00 00 00 00	 call	 __EH_epilog3
  00099	c2 04 00	 ret	 4
__catch$?reserve@?$vector@USecondAttribute@@V?$allocator@USecondAttribute@@@std@@@std@@QAEXI@Z$0:

; 755  : 			_CATCH_ALL
; 756  : 			this->_Alval.deallocate(_Ptr, _Count);

  0009c	ff 75 ec	 push	 DWORD PTR __Ptr$585129[ebp]
  0009f	e8 00 00 00 00	 call	 ??3@YAXPAX@Z		; operator delete
  000a4	59		 pop	 ecx

; 757  : 			_RERAISE;

  000a5	6a 00		 push	 0
  000a7	6a 00		 push	 0
  000a9	e8 00 00 00 00	 call	 __CxxThrowException@8
$LN57@reserve@2:
$LN54@reserve@2:
  000ae	cc		 int	 3
_TEXT	ENDS
;	COMDAT text$x
text$x	SEGMENT
__ehhandler$?reserve@?$vector@USecondAttribute@@V?$allocator@USecondAttribute@@@std@@@std@@QAEXI@Z:
  00000	8b 54 24 08	 mov	 edx, DWORD PTR [esp+8]
  00004	8d 42 0c	 lea	 eax, DWORD PTR [edx+12]
  00007	8b 4a e8	 mov	 ecx, DWORD PTR [edx-24]
  0000a	33 c8		 xor	 ecx, eax
  0000c	e8 00 00 00 00	 call	 @__security_check_cookie@4
  00011	b8 00 00 00 00	 mov	 eax, OFFSET __ehfuncinfo$?reserve@?$vector@USecondAttribute@@V?$allocator@USecondAttribute@@@std@@@std@@QAEXI@Z
  00016	e9 00 00 00 00	 jmp	 ___CxxFrameHandler3
text$x	ENDS
?reserve@?$vector@USecondAttribute@@V?$allocator@USecondAttribute@@@std@@@std@@QAEXI@Z ENDP ; std::vector<SecondAttribute,std::allocator<SecondAttribute> >::reserve
PUBLIC	??$sort_heap@PAUChangeDirInfo@@VChangeDirSort@@@std@@YAXPAUChangeDirInfo@@0VChangeDirSort@@@Z ; std::sort_heap<ChangeDirInfo *,ChangeDirSort>
; Function compile flags: /Ogsp
; File c:\program files (x86)\microsoft visual studio 10.0\vc\include\algorithm
;	COMDAT ??$sort_heap@PAUChangeDirInfo@@VChangeDirSort@@@std@@YAXPAUChangeDirInfo@@0VChangeDirSort@@@Z
_TEXT	SEGMENT
__First$ = 8						; size = 4
__Last$ = 12						; size = 4
__Pred$ = 16						; size = 1
??$sort_heap@PAUChangeDirInfo@@VChangeDirSort@@@std@@YAXPAUChangeDirInfo@@0VChangeDirSort@@@Z PROC ; std::sort_heap<ChangeDirInfo *,ChangeDirSort>, COMDAT

; 2708 : 	{	// order heap by repeatedly popping, using _Pred

  00000	55		 push	 ebp
  00001	8b ec		 mov	 ebp, esp

; 2709 : 	_DEBUG_RANGE(_First, _Last);
; 2710 : 	_DEBUG_POINTER(_Pred);
; 2711 : 	_DEBUG_HEAP_PRED(_First, _Last, _Pred);
; 2712 : 	_Sort_heap(_Unchecked(_First), _Unchecked(_Last), _Pred);

  00003	ff 75 10	 push	 DWORD PTR __Pred$[ebp]
  00006	ff 75 0c	 push	 DWORD PTR __Last$[ebp]
  00009	ff 75 08	 push	 DWORD PTR __First$[ebp]
  0000c	e8 00 00 00 00	 call	 ??$_Sort_heap@PAUChangeDirInfo@@VChangeDirSort@@@std@@YAXPAUChangeDirInfo@@0VChangeDirSort@@@Z ; std::_Sort_heap<ChangeDirInfo *,ChangeDirSort>
  00011	83 c4 0c	 add	 esp, 12			; 0000000cH

; 2713 : 	}

  00014	5d		 pop	 ebp
  00015	c3		 ret	 0
??$sort_heap@PAUChangeDirInfo@@VChangeDirSort@@@std@@YAXPAUChangeDirInfo@@0VChangeDirSort@@@Z ENDP ; std::sort_heap<ChangeDirInfo *,ChangeDirSort>
_TEXT	ENDS
PUBLIC	?CheckChangeDir@ioMissileWeapon2@@QAEXXZ	; ioMissileWeapon2::CheckChangeDir
; Function compile flags: /Ogsp
; File d:\lost saga for developer\youtube\tutorial\source\src\lsclient\iomissileweapon2.cpp
;	COMDAT ?CheckChangeDir@ioMissileWeapon2@@QAEXXZ
_TEXT	SEGMENT
$T591180 = -4						; size = 4
?CheckChangeDir@ioMissileWeapon2@@QAEXXZ PROC		; ioMissileWeapon2::CheckChangeDir, COMDAT
; _this$ = ecx

; 167  : {

  00000	55		 push	 ebp
  00001	8b ec		 mov	 ebp, esp
  00003	51		 push	 ecx
  00004	56		 push	 esi

; 168  : 	if( m_ChangeDirInfoList.empty() ) return;

  00005	8d b1 cc 08 00
	00		 lea	 esi, DWORD PTR [ecx+2252]
  0000b	8b 06		 mov	 eax, DWORD PTR [esi]
  0000d	3b 46 04	 cmp	 eax, DWORD PTR [esi+4]
  00010	74 57		 je	 SHORT $LN2@CheckChang

; 169  : 
; 170  : 	float fChangeRange = m_ChangeDirInfoList[0].m_fChangeRange;
; 171  : 
; 172  : 	if( m_fCurMoveRange >= fChangeRange )

  00012	f3 0f 10 81 a0
	08 00 00	 movss	 xmm0, DWORD PTR [ecx+2208]
  0001a	f3 0f 10 08	 movss	 xmm1, DWORD PTR [eax]
  0001e	0f 5a c0	 cvtps2pd xmm0, xmm0
  00021	0f 5a c9	 cvtps2pd xmm1, xmm1
  00024	66 0f 2f c1	 comisd	 xmm0, xmm1
  00028	72 3f		 jb	 SHORT $LN2@CheckChang

; 173  : 	{
; 174  : 		if( m_ChangeDirInfoList[0].m_fChangeSpeed > 0.0f )

  0002a	f3 0f 10 40 04	 movss	 xmm0, DWORD PTR [eax+4]
  0002f	0f 2f 05 00 00
	00 00		 comiss	 xmm0, DWORD PTR __real@00000000
  00036	76 08		 jbe	 SHORT $LN1@CheckChang

; 175  : 			m_fCurMoveSpeed = m_ChangeDirInfoList[0].m_fChangeSpeed;

  00038	f3 0f 11 81 9c
	08 00 00	 movss	 DWORD PTR [ecx+2204], xmm0
$LN1@CheckChang:

; 176  : 
; 177  : 		RotateMoveDir( m_ChangeDirInfoList[0].m_fChangeAngleH, m_ChangeDirInfoList[0].m_fChangeAngleV );

  00040	f3 0f 10 40 0c	 movss	 xmm0, DWORD PTR [eax+12]
  00045	51		 push	 ecx
  00046	51		 push	 ecx
  00047	f3 0f 11 44 24
	04		 movss	 DWORD PTR [esp+4], xmm0
  0004d	f3 0f 10 40 08	 movss	 xmm0, DWORD PTR [eax+8]
  00052	f3 0f 11 04 24	 movss	 DWORD PTR [esp], xmm0
  00057	e8 00 00 00 00	 call	 ?RotateMoveDir@ioMissileWeapon2@@QAEXMM@Z ; ioMissileWeapon2::RotateMoveDir

; 178  : 		m_ChangeDirInfoList.erase( m_ChangeDirInfoList.begin() );

  0005c	ff 36		 push	 DWORD PTR [esi]
  0005e	8d 45 fc	 lea	 eax, DWORD PTR $T591180[ebp]
  00061	50		 push	 eax
  00062	8b ce		 mov	 ecx, esi
  00064	e8 00 00 00 00	 call	 ?erase@?$vector@UChangeDirInfo@@V?$allocator@UChangeDirInfo@@@std@@@std@@QAE?AV?$_Vector_iterator@V?$_Vector_val@UChangeDirInfo@@V?$allocator@UChangeDirInfo@@@std@@@std@@@2@V?$_Vector_const_iterator@V?$_Vector_val@UChangeDirInfo@@V?$allocator@UChangeDirInfo@@@std@@@std@@@2@@Z ; std::vector<ChangeDirInfo,std::allocator<ChangeDirInfo> >::erase
$LN2@CheckChang:
  00069	5e		 pop	 esi

; 179  : 	}
; 180  : }

  0006a	c9		 leave
  0006b	c3		 ret	 0
?CheckChangeDir@ioMissileWeapon2@@QAEXXZ ENDP		; ioMissileWeapon2::CheckChangeDir
_TEXT	ENDS
PUBLIC	__$ArrayPad$
PUBLIC	?Process@ioMissileWeapon2@@UAEXMPAVioPlayStage@@@Z ; ioMissileWeapon2::Process
EXTRN	__imp_?IsLive@ioEffect@@QBE_NXZ:PROC
; Function compile flags: /Ogsp
;	COMDAT ?Process@ioMissileWeapon2@@UAEXMPAVioPlayStage@@@Z
_TEXT	SEGMENT
tv370 = -20						; size = 4
tv367 = -20						; size = 4
_value$591247 = -20					; size = 4
_fMaxRange$584443 = -20					; size = 4
_fMoveDist$584441 = -20					; size = 4
$T584442 = -16						; size = 12
__$ArrayPad$ = -4					; size = 4
_fTimePerSec$ = 8					; size = 4
_pStage$ = 12						; size = 4
?Process@ioMissileWeapon2@@UAEXMPAVioPlayStage@@@Z PROC	; ioMissileWeapon2::Process, COMDAT
; _this$ = ecx

; 223  : {

  00000	55		 push	 ebp
  00001	8b ec		 mov	 ebp, esp
  00003	83 ec 14	 sub	 esp, 20			; 00000014H
  00006	a1 00 00 00 00	 mov	 eax, DWORD PTR ___security_cookie
  0000b	33 c5		 xor	 eax, ebp
  0000d	89 45 fc	 mov	 DWORD PTR __$ArrayPad$[ebp], eax
  00010	53		 push	 ebx
  00011	56		 push	 esi
  00012	57		 push	 edi
  00013	8b 7d 0c	 mov	 edi, DWORD PTR _pStage$[ebp]
  00016	8b f1		 mov	 esi, ecx

; 224  : 	if( !CheckPiercing() )

  00018	8b 06		 mov	 eax, DWORD PTR [esi]
  0001a	33 db		 xor	 ebx, ebx
  0001c	53		 push	 ebx
  0001d	ff 90 48 01 00
	00		 call	 DWORD PTR [eax+328]
  00023	84 c0		 test	 al, al
  00025	0f 84 6c 01 00
	00		 je	 $LN1@Process

; 225  : 		return;
; 226  : 
; 227  : 	switch( m_WeaponState )

  0002b	8b 86 94 08 00
	00		 mov	 eax, DWORD PTR [esi+2196]
  00031	2b c3		 sub	 eax, ebx
  00033	74 40		 je	 SHORT $LN9@Process
  00035	48		 dec	 eax
  00036	0f 85 23 01 00
	00		 jne	 $LN25@Process

; 254  : 		}
; 255  : 		break;
; 256  : 	case WS_END:
; 257  : 		if( !m_pFireBall || !m_pFireBall->IsLive() )

  0003c	8b 8e 98 08 00
	00		 mov	 ecx, DWORD PTR [esi+2200]
  00042	3b cb		 cmp	 ecx, ebx
  00044	74 0e		 je	 SHORT $LN2@Process
  00046	ff 15 00 00 00
	00		 call	 DWORD PTR __imp_?IsLive@ioEffect@@QBE_NXZ
  0004c	84 c0		 test	 al, al
  0004e	0f 85 0b 01 00
	00		 jne	 $LN25@Process
$LN2@Process:

; 258  : 		{
; 259  : 			CheckCreateWeaponList();

  00054	8b 06		 mov	 eax, DWORD PTR [esi]
  00056	8b ce		 mov	 ecx, esi
  00058	ff 90 50 01 00
	00		 call	 DWORD PTR [eax+336]

; 260  : 			DestroyResource( pStage );

  0005e	8b 06		 mov	 eax, DWORD PTR [esi]
  00060	57		 push	 edi
  00061	8b ce		 mov	 ecx, esi
  00063	ff 90 9c 00 00
	00		 call	 DWORD PTR [eax+156]

; 261  : 			SetWeaponDead();

  00069	8b 06		 mov	 eax, DWORD PTR [esi]
  0006b	8b ce		 mov	 ecx, esi
  0006d	ff 50 4c	 call	 DWORD PTR [eax+76]

; 262  : 			return;

  00070	e9 22 01 00 00	 jmp	 $LN1@Process
$LN9@Process:

; 228  : 	{
; 229  : 	case WS_MOVE:
; 230  : 		{
; 231  : 			if( !m_bFirst )

  00075	38 9e dd 08 00
	00		 cmp	 BYTE PTR [esi+2269], bl
  0007b	0f 85 d8 00 00
	00		 jne	 $LN5@Process

; 232  : 			{
; 233  : 				CheckChangeDir();

  00081	8b ce		 mov	 ecx, esi
  00083	e8 00 00 00 00	 call	 ?CheckChangeDir@ioMissileWeapon2@@QAEXXZ ; ioMissileWeapon2::CheckChangeDir

; 234  : 
; 235  : 				float fMoveDist = GetMoveSpeed() * fTimePerSec;

  00088	8b ce		 mov	 ecx, esi
  0008a	e8 00 00 00 00	 call	 ?GetMoveSpeed@ioMissileWeapon2@@QAEMXZ ; ioMissileWeapon2::GetMoveSpeed
  0008f	d8 4d 08	 fmul	 DWORD PTR _fTimePerSec$[ebp]

; 236  : 				GetParentSceneNode()->Translate( m_vMoveDir * fMoveDist );

  00092	8b 4e 04	 mov	 ecx, DWORD PTR [esi+4]
  00095	6a 01		 push	 1
  00097	d9 5d ec	 fstp	 DWORD PTR _fMoveDist$584441[ebp]
  0009a	8d 55 f0	 lea	 edx, DWORD PTR $T584442[ebp]
  0009d	d9 86 c0 08 00
	00		 fld	 DWORD PTR [esi+2240]
  000a3	52		 push	 edx
  000a4	d8 4d ec	 fmul	 DWORD PTR _fMoveDist$584441[ebp]
  000a7	d9 5d f0	 fstp	 DWORD PTR $T584442[ebp]
  000aa	d9 86 c4 08 00
	00		 fld	 DWORD PTR [esi+2244]
  000b0	d8 4d ec	 fmul	 DWORD PTR _fMoveDist$584441[ebp]
  000b3	d9 5d f4	 fstp	 DWORD PTR $T584442[ebp+4]
  000b6	d9 86 c8 08 00
	00		 fld	 DWORD PTR [esi+2248]
  000bc	d8 4d ec	 fmul	 DWORD PTR _fMoveDist$584441[ebp]
  000bf	d9 5d f8	 fstp	 DWORD PTR $T584442[ebp+8]
  000c2	8b 01		 mov	 eax, DWORD PTR [ecx]
  000c4	ff 50 3c	 call	 DWORD PTR [eax+60]

; 237  : 				m_fCurMoveRange += fMoveDist;

  000c7	d9 86 a0 08 00
	00		 fld	 DWORD PTR [esi+2208]
  000cd	d8 45 ec	 fadd	 DWORD PTR _fMoveDist$584441[ebp]

; 238  : 
; 239  : 				float fMaxRange = GetMaxRange() + m_fGrowthMoveRange;

  000d0	8d 45 ec	 lea	 eax, DWORD PTR _value$591247[ebp]
  000d3	50		 push	 eax
  000d4	8d 8e 60 03 00
	00		 lea	 ecx, DWORD PTR [esi+864]
  000da	d9 9e a0 08 00
	00		 fstp	 DWORD PTR [esi+2208]
  000e0	e8 00 00 00 00	 call	 ?DecryptValueToPool@?$CEncrypt@M@@QAEXPAM@Z ; CEncrypt<float>::DecryptValueToPool
  000e5	8b ce		 mov	 ecx, esi
  000e7	e8 00 00 00 00	 call	 ?GetMaxRange@ioMissileWeapon2@@QAEMXZ ; ioMissileWeapon2::GetMaxRange
  000ec	d8 45 ec	 fadd	 DWORD PTR _value$591247[ebp]
  000ef	d9 5d ec	 fstp	 DWORD PTR _fMaxRange$584443[ebp]

; 240  : 				if( fMaxRange > 0.0f )

  000f2	d9 ee		 fldz
  000f4	d9 45 ec	 fld	 DWORD PTR _fMaxRange$584443[ebp]
  000f7	df f1		 fcomip	 ST(1)
  000f9	dd d8		 fstp	 ST(0)
  000fb	76 23		 jbe	 SHORT $LN7@Process

; 241  : 					m_fCurMoveRate = m_fCurMoveRange / fMaxRange;

  000fd	f3 0f 10 86 a0
	08 00 00	 movss	 xmm0, DWORD PTR [esi+2208]
  00105	f3 0f 10 4d ec	 movss	 xmm1, DWORD PTR _fMaxRange$584443[ebp]
  0010a	0f 5a c0	 cvtps2pd xmm0, xmm0
  0010d	0f 5a c9	 cvtps2pd xmm1, xmm1
  00110	f2 0f 5e c1	 divsd	 xmm0, xmm1
  00114	66 0f 5a c0	 cvtpd2ps xmm0, xmm0
  00118	f3 0f 11 86 a4
	08 00 00	 movss	 DWORD PTR [esi+2212], xmm0
$LN7@Process:

; 242  : 
; 243  : 				if( m_fCurMoveRange < fMaxRange )

  00120	f3 0f 10 86 a0
	08 00 00	 movss	 xmm0, DWORD PTR [esi+2208]
  00128	f3 0f 10 4d ec	 movss	 xmm1, DWORD PTR _fMaxRange$584443[ebp]
  0012d	0f 5a c0	 cvtps2pd xmm0, xmm0
  00130	0f 5a c9	 cvtps2pd xmm1, xmm1
  00133	66 0f 2f c8	 comisd	 xmm1, xmm0

; 244  : 				{
; 245  : 					UpdateWorldAttackBox( fTimePerSec, false );

  00137	53		 push	 ebx
  00138	76 17		 jbe	 SHORT $LN6@Process
  0013a	f3 0f 10 45 08	 movss	 xmm0, DWORD PTR _fTimePerSec$[ebp]
  0013f	8b 06		 mov	 eax, DWORD PTR [esi]
  00141	51		 push	 ecx
  00142	8b ce		 mov	 ecx, esi
  00144	f3 0f 11 04 24	 movss	 DWORD PTR [esp], xmm0
  00149	ff 90 38 01 00
	00		 call	 DWORD PTR [eax+312]

; 246  : 				}
; 247  : 				else

  0014f	eb 08		 jmp	 SHORT $LN5@Process
$LN6@Process:

; 248  : 				{
; 249  : 					SetEndState( false, false );

  00151	53		 push	 ebx
  00152	8b ce		 mov	 ecx, esi
  00154	e8 00 00 00 00	 call	 ?SetEndState@ioMissileWeapon2@@QAEX_N0@Z ; ioMissileWeapon2::SetEndState
$LN5@Process:

; 250  : 				}
; 251  : 			}
; 252  : 
; 253  : 			m_bFirst = false;

  00159	88 9e dd 08 00
	00		 mov	 BYTE PTR [esi+2269], bl
$LN25@Process:

; 263  : 		}
; 264  : 		break;
; 265  : 	}
; 266  : 	
; 267  : 	if( m_pFireBall )

  0015f	39 9e 98 08 00
	00		 cmp	 DWORD PTR [esi+2200], ebx
  00165	74 30		 je	 SHORT $LN1@Process

; 268  : 	{
; 269  : 		m_pFireBall->Update( fTimePerSec * FLOAT1000 );

  00167	b8 e8 03 00 00	 mov	 eax, 1000		; 000003e8H
  0016c	8b 8e 98 08 00
	00		 mov	 ecx, DWORD PTR [esi+2200]
  00172	83 c1 14	 add	 ecx, 20			; 00000014H
  00175	8b 11		 mov	 edx, DWORD PTR [ecx]
  00177	89 45 ec	 mov	 DWORD PTR tv370[ebp], eax
  0017a	db 45 ec	 fild	 DWORD PTR tv370[ebp]
  0017d	85 c0		 test	 eax, eax
  0017f	79 06		 jns	 SHORT $LN26@Process
  00181	d8 05 00 00 00
	00		 fadd	 DWORD PTR __real@4f800000
$LN26@Process:
  00187	d8 4d 08	 fmul	 DWORD PTR _fTimePerSec$[ebp]
  0018a	51		 push	 ecx
  0018b	d9 5d ec	 fstp	 DWORD PTR tv367[ebp]
  0018e	d9 45 ec	 fld	 DWORD PTR tv367[ebp]
  00191	d9 1c 24	 fstp	 DWORD PTR [esp]
  00194	ff 52 40	 call	 DWORD PTR [edx+64]
$LN1@Process:

; 270  : 	}
; 271  : }

  00197	8b 4d fc	 mov	 ecx, DWORD PTR __$ArrayPad$[ebp]
  0019a	5f		 pop	 edi
  0019b	5e		 pop	 esi
  0019c	33 cd		 xor	 ecx, ebp
  0019e	5b		 pop	 ebx
  0019f	e8 00 00 00 00	 call	 @__security_check_cookie@4
  001a4	c9		 leave
  001a5	c2 08 00	 ret	 8
?Process@ioMissileWeapon2@@UAEXMPAVioPlayStage@@@Z ENDP	; ioMissileWeapon2::Process
_TEXT	ENDS
PUBLIC	?push_back@?$vector@UChangeDirInfo@@V?$allocator@UChangeDirInfo@@@std@@@std@@QAEXABUChangeDirInfo@@@Z ; std::vector<ChangeDirInfo,std::allocator<ChangeDirInfo> >::push_back
; Function compile flags: /Ogsp
; File c:\program files (x86)\microsoft visual studio 10.0\vc\include\vector
;	COMDAT ?push_back@?$vector@UChangeDirInfo@@V?$allocator@UChangeDirInfo@@@std@@@std@@QAEXABUChangeDirInfo@@@Z
_TEXT	SEGMENT
__Val$ = 8						; size = 4
?push_back@?$vector@UChangeDirInfo@@V?$allocator@UChangeDirInfo@@@std@@@std@@QAEXABUChangeDirInfo@@@Z PROC ; std::vector<ChangeDirInfo,std::allocator<ChangeDirInfo> >::push_back, COMDAT
; _this$ = ecx

; 976  : 		{	// insert element at end

  00000	55		 push	 ebp
  00001	8b ec		 mov	 ebp, esp
  00003	56		 push	 esi
  00004	8b f1		 mov	 esi, ecx

; 977  : 		if (_Inside(_STD addressof(_Val)))

  00006	8b 4e 04	 mov	 ecx, DWORD PTR [esi+4]
  00009	57		 push	 edi
  0000a	8b 7d 08	 mov	 edi, DWORD PTR __Val$[ebp]
  0000d	3b f9		 cmp	 edi, ecx
  0000f	73 34		 jae	 SHORT $LN4@push_back
  00011	8b 16		 mov	 edx, DWORD PTR [esi]
  00013	3b d7		 cmp	 edx, edi
  00015	77 2e		 ja	 SHORT $LN4@push_back

; 978  : 			{	// push back an element
; 979  : 			size_type _Idx = _STD addressof(_Val) - this->_Myfirst;

  00017	8b c7		 mov	 eax, edi
  00019	2b c2		 sub	 eax, edx
  0001b	6a 1c		 push	 28			; 0000001cH
  0001d	99		 cdq
  0001e	5f		 pop	 edi
  0001f	f7 ff		 idiv	 edi
  00021	8b f8		 mov	 edi, eax

; 980  : 			if (this->_Mylast == this->_Myend)

  00023	3b 4e 08	 cmp	 ecx, DWORD PTR [esi+8]
  00026	75 09		 jne	 SHORT $LN3@push_back

; 981  : 				_Reserve(1);

  00028	6a 01		 push	 1
  0002a	8b ce		 mov	 ecx, esi
  0002c	e8 00 00 00 00	 call	 ?_Reserve@?$vector@UChangeDirInfo@@V?$allocator@UChangeDirInfo@@@std@@@std@@IAEXI@Z ; std::vector<ChangeDirInfo,std::allocator<ChangeDirInfo> >::_Reserve
$LN3@push_back:

; 982  : 			_Orphan_range(this->_Mylast, this->_Mylast);
; 983  : 			_Cons_val(this->_Alval,
; 984  : 				this->_Mylast,
; 985  : 				this->_Myfirst[_Idx]);

  00031	6b ff 1c	 imul	 edi, 28			; 0000001cH
  00034	03 3e		 add	 edi, DWORD PTR [esi]
  00036	8d 46 0c	 lea	 eax, DWORD PTR [esi+12]
  00039	57		 push	 edi
  0003a	ff 76 04	 push	 DWORD PTR [esi+4]
  0003d	50		 push	 eax
  0003e	e8 00 00 00 00	 call	 ??$_Cons_val@V?$allocator@UChangeDirInfo@@@std@@UChangeDirInfo@@AAU3@@std@@YAXAAV?$allocator@UChangeDirInfo@@@0@PAUChangeDirInfo@@AAU2@@Z ; std::_Cons_val<std::allocator<ChangeDirInfo>,ChangeDirInfo,ChangeDirInfo &>

; 986  : 			++this->_Mylast;
; 987  : 			}
; 988  : 		else

  00043	eb 1b		 jmp	 SHORT $LN20@push_back
$LN4@push_back:

; 989  : 			{	// push back a non-element
; 990  : 			if (this->_Mylast == this->_Myend)

  00045	3b 4e 08	 cmp	 ecx, DWORD PTR [esi+8]
  00048	75 09		 jne	 SHORT $LN1@push_back

; 991  : 				_Reserve(1);

  0004a	6a 01		 push	 1
  0004c	8b ce		 mov	 ecx, esi
  0004e	e8 00 00 00 00	 call	 ?_Reserve@?$vector@UChangeDirInfo@@V?$allocator@UChangeDirInfo@@@std@@@std@@IAEXI@Z ; std::vector<ChangeDirInfo,std::allocator<ChangeDirInfo> >::_Reserve
$LN1@push_back:

; 992  : 			_Orphan_range(this->_Mylast, this->_Mylast);
; 993  : 			_Cons_val(this->_Alval,
; 994  : 				this->_Mylast,
; 995  : 				_Val);

  00053	57		 push	 edi
  00054	ff 76 04	 push	 DWORD PTR [esi+4]
  00057	8d 46 0c	 lea	 eax, DWORD PTR [esi+12]
  0005a	50		 push	 eax
  0005b	e8 00 00 00 00	 call	 ??$_Cons_val@V?$allocator@UChangeDirInfo@@@std@@UChangeDirInfo@@ABU3@@std@@YAXAAV?$allocator@UChangeDirInfo@@@0@PAUChangeDirInfo@@ABU2@@Z ; std::_Cons_val<std::allocator<ChangeDirInfo>,ChangeDirInfo,ChangeDirInfo const &>
$LN20@push_back:
  00060	83 c4 0c	 add	 esp, 12			; 0000000cH

; 996  : 			++this->_Mylast;

  00063	83 46 04 1c	 add	 DWORD PTR [esi+4], 28	; 0000001cH
  00067	5f		 pop	 edi
  00068	5e		 pop	 esi

; 997  : 			}
; 998  : 		}

  00069	5d		 pop	 ebp
  0006a	c2 04 00	 ret	 4
?push_back@?$vector@UChangeDirInfo@@V?$allocator@UChangeDirInfo@@@std@@@std@@QAEXABUChangeDirInfo@@@Z ENDP ; std::vector<ChangeDirInfo,std::allocator<ChangeDirInfo> >::push_back
_TEXT	ENDS
PUBLIC	?clear@?$vector@UChangeDirInfo@@V?$allocator@UChangeDirInfo@@@std@@@std@@QAEXXZ ; std::vector<ChangeDirInfo,std::allocator<ChangeDirInfo> >::clear
; Function compile flags: /Ogsp
;	COMDAT ?clear@?$vector@UChangeDirInfo@@V?$allocator@UChangeDirInfo@@@std@@@std@@QAEXXZ
_TEXT	SEGMENT
$T591286 = -4						; size = 4
?clear@?$vector@UChangeDirInfo@@V?$allocator@UChangeDirInfo@@@std@@@std@@QAEXXZ PROC ; std::vector<ChangeDirInfo,std::allocator<ChangeDirInfo> >::clear, COMDAT
; _this$ = ecx

; 1217 : 		{	// erase all

  00000	55		 push	 ebp
  00001	8b ec		 mov	 ebp, esp
  00003	51		 push	 ecx

; 1218 : 		erase(begin(), end());

  00004	8b 41 04	 mov	 eax, DWORD PTR [ecx+4]
  00007	8b 11		 mov	 edx, DWORD PTR [ecx]
  00009	50		 push	 eax
  0000a	52		 push	 edx
  0000b	8d 45 fc	 lea	 eax, DWORD PTR $T591286[ebp]
  0000e	50		 push	 eax
  0000f	e8 00 00 00 00	 call	 ?erase@?$vector@UChangeDirInfo@@V?$allocator@UChangeDirInfo@@@std@@@std@@QAE?AV?$_Vector_iterator@V?$_Vector_val@UChangeDirInfo@@V?$allocator@UChangeDirInfo@@@std@@@std@@@2@V?$_Vector_const_iterator@V?$_Vector_val@UChangeDirInfo@@V?$allocator@UChangeDirInfo@@@std@@@std@@@2@0@Z ; std::vector<ChangeDirInfo,std::allocator<ChangeDirInfo> >::erase

; 1219 : 		}

  00014	c9		 leave
  00015	c3		 ret	 0
?clear@?$vector@UChangeDirInfo@@V?$allocator@UChangeDirInfo@@@std@@@std@@QAEXXZ ENDP ; std::vector<ChangeDirInfo,std::allocator<ChangeDirInfo> >::clear
_TEXT	ENDS
PUBLIC	??1?$vector@USecondAttribute@@V?$allocator@USecondAttribute@@@std@@@std@@QAE@XZ ; std::vector<SecondAttribute,std::allocator<SecondAttribute> >::~vector<SecondAttribute,std::allocator<SecondAttribute> >
; Function compile flags: /Ogsp
;	COMDAT ??1?$vector@USecondAttribute@@V?$allocator@USecondAttribute@@@std@@@std@@QAE@XZ
_TEXT	SEGMENT
??1?$vector@USecondAttribute@@V?$allocator@USecondAttribute@@@std@@@std@@QAE@XZ PROC ; std::vector<SecondAttribute,std::allocator<SecondAttribute> >::~vector<SecondAttribute,std::allocator<SecondAttribute> >, COMDAT
; _this$ = ecx

; 705  : 		_Tidy();

  00000	e9 00 00 00 00	 jmp	 ?_Tidy@?$vector@USecondAttribute@@V?$allocator@USecondAttribute@@@std@@@std@@IAEXXZ ; std::vector<SecondAttribute,std::allocator<SecondAttribute> >::_Tidy
??1?$vector@USecondAttribute@@V?$allocator@USecondAttribute@@@std@@@std@@QAE@XZ ENDP ; std::vector<SecondAttribute,std::allocator<SecondAttribute> >::~vector<SecondAttribute,std::allocator<SecondAttribute> >
_TEXT	ENDS
PUBLIC	?clear@?$vector@USecondAttribute@@V?$allocator@USecondAttribute@@@std@@@std@@QAEXXZ ; std::vector<SecondAttribute,std::allocator<SecondAttribute> >::clear
; Function compile flags: /Ogsp
;	COMDAT ?clear@?$vector@USecondAttribute@@V?$allocator@USecondAttribute@@@std@@@std@@QAEXXZ
_TEXT	SEGMENT
$T591350 = -4						; size = 4
?clear@?$vector@USecondAttribute@@V?$allocator@USecondAttribute@@@std@@@std@@QAEXXZ PROC ; std::vector<SecondAttribute,std::allocator<SecondAttribute> >::clear, COMDAT
; _this$ = ecx

; 1217 : 		{	// erase all

  00000	55		 push	 ebp
  00001	8b ec		 mov	 ebp, esp
  00003	51		 push	 ecx

; 1218 : 		erase(begin(), end());

  00004	8b 41 04	 mov	 eax, DWORD PTR [ecx+4]
  00007	8b 11		 mov	 edx, DWORD PTR [ecx]
  00009	50		 push	 eax
  0000a	52		 push	 edx
  0000b	8d 45 fc	 lea	 eax, DWORD PTR $T591350[ebp]
  0000e	50		 push	 eax
  0000f	e8 00 00 00 00	 call	 ?erase@?$vector@USecondAttribute@@V?$allocator@USecondAttribute@@@std@@@std@@QAE?AV?$_Vector_iterator@V?$_Vector_val@USecondAttribute@@V?$allocator@USecondAttribute@@@std@@@std@@@2@V?$_Vector_const_iterator@V?$_Vector_val@USecondAttribute@@V?$allocator@USecondAttribute@@@std@@@std@@@2@0@Z ; std::vector<SecondAttribute,std::allocator<SecondAttribute> >::erase

; 1219 : 		}

  00014	c9		 leave
  00015	c3		 ret	 0
?clear@?$vector@USecondAttribute@@V?$allocator@USecondAttribute@@@std@@@std@@QAEXXZ ENDP ; std::vector<SecondAttribute,std::allocator<SecondAttribute> >::clear
_TEXT	ENDS
PUBLIC	?_Reserve@?$vector@USecondAttribute@@V?$allocator@USecondAttribute@@@std@@@std@@IAEXI@Z ; std::vector<SecondAttribute,std::allocator<SecondAttribute> >::_Reserve
; Function compile flags: /Ogsp
;	COMDAT ?_Reserve@?$vector@USecondAttribute@@V?$allocator@USecondAttribute@@@std@@@std@@IAEXI@Z
_TEXT	SEGMENT
__Count$ = 8						; size = 4
?_Reserve@?$vector@USecondAttribute@@V?$allocator@USecondAttribute@@@std@@@std@@IAEXI@Z PROC ; std::vector<SecondAttribute,std::allocator<SecondAttribute> >::_Reserve, COMDAT
; _this$ = ecx

; 1290 : 		{	// ensure room for _Count new elements, grow exponentially

  00000	55		 push	 ebp
  00001	8b ec		 mov	 ebp, esp
  00003	56		 push	 esi
  00004	8b f1		 mov	 esi, ecx

; 1291 : 		size_type _Size = size();

  00006	8b 0e		 mov	 ecx, DWORD PTR [esi]
  00008	8b 46 04	 mov	 eax, DWORD PTR [esi+4]
  0000b	2b c1		 sub	 eax, ecx

; 1292 : 		if (max_size() - _Count < _Size)

  0000d	ba ff ff ff 1f	 mov	 edx, 536870911		; 1fffffffH
  00012	2b 55 08	 sub	 edx, DWORD PTR __Count$[ebp]
  00015	c1 f8 03	 sar	 eax, 3
  00018	3b d0		 cmp	 edx, eax
  0001a	73 0b		 jae	 SHORT $LN4@Reserve@2

; 1293 : 			_Xlen();

  0001c	68 00 00 00 00	 push	 OFFSET ??_C@_0BD@OLBABOEK@vector?$DMT?$DO?5too?5long?$AA@
  00021	ff 15 00 00 00
	00		 call	 DWORD PTR __imp_?_Xlength_error@std@@YAXPBD@Z
$LN21@Reserve@2:
$LN4@Reserve@2:

; 1294 : 		else if ((_Size += _Count) <= capacity())

  00027	8b 56 08	 mov	 edx, DWORD PTR [esi+8]
  0002a	03 45 08	 add	 eax, DWORD PTR __Count$[ebp]
  0002d	2b d1		 sub	 edx, ecx
  0002f	c1 fa 03	 sar	 edx, 3
  00032	3b c2		 cmp	 eax, edx
  00034	76 10		 jbe	 SHORT $LN1@Reserve@2

; 1295 : 			;
; 1296 : 		else
; 1297 : 			reserve(_Grow_to(_Size));

  00036	50		 push	 eax
  00037	8b ce		 mov	 ecx, esi
  00039	e8 00 00 00 00	 call	 ?_Grow_to@?$vector@USecondAttribute@@V?$allocator@USecondAttribute@@@std@@@std@@IBEII@Z ; std::vector<SecondAttribute,std::allocator<SecondAttribute> >::_Grow_to
  0003e	50		 push	 eax
  0003f	8b ce		 mov	 ecx, esi
  00041	e8 00 00 00 00	 call	 ?reserve@?$vector@USecondAttribute@@V?$allocator@USecondAttribute@@@std@@@std@@QAEXI@Z ; std::vector<SecondAttribute,std::allocator<SecondAttribute> >::reserve
$LN1@Reserve@2:
  00046	5e		 pop	 esi

; 1298 : 		}

  00047	5d		 pop	 ebp
  00048	c2 04 00	 ret	 4
$LN20@Reserve@2:
?_Reserve@?$vector@USecondAttribute@@V?$allocator@USecondAttribute@@@std@@@std@@IAEXI@Z ENDP ; std::vector<SecondAttribute,std::allocator<SecondAttribute> >::_Reserve
_TEXT	ENDS
PUBLIC	??$_Sort@PAUChangeDirInfo@@HVChangeDirSort@@@std@@YAXPAUChangeDirInfo@@0HVChangeDirSort@@@Z ; std::_Sort<ChangeDirInfo *,int,ChangeDirSort>
; Function compile flags: /Ogsp
; File c:\program files (x86)\microsoft visual studio 10.0\vc\include\algorithm
;	COMDAT ??$_Sort@PAUChangeDirInfo@@HVChangeDirSort@@@std@@YAXPAUChangeDirInfo@@0HVChangeDirSort@@@Z
_TEXT	SEGMENT
__Mid$586451 = -8					; size = 8
__First$ = 8						; size = 4
__Last$ = 12						; size = 4
__Ideal$ = 16						; size = 4
__Pred$ = 20						; size = 1
??$_Sort@PAUChangeDirInfo@@HVChangeDirSort@@@std@@YAXPAUChangeDirInfo@@0HVChangeDirSort@@@Z PROC ; std::_Sort<ChangeDirInfo *,int,ChangeDirSort>, COMDAT

; 3771 : 	{	// order [_First, _Last), using _Pred

  00000	55		 push	 ebp
  00001	8b ec		 mov	 ebp, esp
  00003	51		 push	 ecx
  00004	51		 push	 ecx
  00005	53		 push	 ebx

; 3772 : 	_Diff _Count;
; 3773 : 	for (; _ISORT_MAX < (_Count = _Last - _First) && 0 < _Ideal; )

  00006	8b 5d 08	 mov	 ebx, DWORD PTR __First$[ebp]
  00009	57		 push	 edi
  0000a	8b 7d 0c	 mov	 edi, DWORD PTR __Last$[ebp]
  0000d	8b c7		 mov	 eax, edi
  0000f	2b c3		 sub	 eax, ebx
  00011	6a 1c		 push	 28			; 0000001cH
  00013	99		 cdq
  00014	59		 pop	 ecx
  00015	f7 f9		 idiv	 ecx
  00017	83 f8 20	 cmp	 eax, 32			; 00000020H
  0001a	0f 8e 9c 00 00
	00		 jle	 $LN22@Sort
  00020	56		 push	 esi
  00021	8b 75 10	 mov	 esi, DWORD PTR __Ideal$[ebp]
$LL7@Sort:
  00024	85 f6		 test	 esi, esi
  00026	7e 75		 jle	 SHORT $LN6@Sort

; 3774 : 		{	// divide and conquer by quicksort
; 3775 : 		_STD pair<_RanIt, _RanIt> _Mid =
; 3776 : 			_Unguarded_partition(_First, _Last, _Pred);

  00028	ff 75 14	 push	 DWORD PTR __Pred$[ebp]
  0002b	8d 45 f8	 lea	 eax, DWORD PTR __Mid$586451[ebp]
  0002e	57		 push	 edi
  0002f	53		 push	 ebx
  00030	50		 push	 eax
  00031	e8 00 00 00 00	 call	 ??$_Unguarded_partition@PAUChangeDirInfo@@VChangeDirSort@@@std@@YA?AU?$pair@PAUChangeDirInfo@@PAU1@@0@PAUChangeDirInfo@@0VChangeDirSort@@@Z ; std::_Unguarded_partition<ChangeDirInfo *,ChangeDirSort>

; 3777 : 		_Ideal /= 2, _Ideal += _Ideal / 2;	// allow 1.5 log2(N) divisions

  00036	8b c6		 mov	 eax, esi
  00038	99		 cdq
  00039	2b c2		 sub	 eax, edx
  0003b	d1 f8		 sar	 eax, 1
  0003d	8b f0		 mov	 esi, eax
  0003f	99		 cdq
  00040	2b c2		 sub	 eax, edx
  00042	d1 f8		 sar	 eax, 1
  00044	03 f0		 add	 esi, eax
  00046	83 c4 10	 add	 esp, 16			; 00000010H

; 3778 : 
; 3779 : 		if (_Mid.first - _First < _Last - _Mid.second)

  00049	8b c7		 mov	 eax, edi
  0004b	2b 45 fc	 sub	 eax, DWORD PTR __Mid$586451[ebp+4]
  0004e	6a 1c		 push	 28			; 0000001cH
  00050	99		 cdq
  00051	59		 pop	 ecx
  00052	f7 f9		 idiv	 ecx
  00054	6a 1c		 push	 28			; 0000001cH
  00056	8b c8		 mov	 ecx, eax
  00058	8b 45 f8	 mov	 eax, DWORD PTR __Mid$586451[ebp]
  0005b	2b c3		 sub	 eax, ebx
  0005d	5b		 pop	 ebx
  0005e	99		 cdq
  0005f	f7 fb		 idiv	 ebx

; 3780 : 			{	// loop on second half
; 3781 : 			_Sort(_First, _Mid.first, _Ideal, _Pred);

  00061	ff 75 14	 push	 DWORD PTR __Pred$[ebp]
  00064	56		 push	 esi
  00065	3b c1		 cmp	 eax, ecx
  00067	7d 13		 jge	 SHORT $LN5@Sort
  00069	ff 75 f8	 push	 DWORD PTR __Mid$586451[ebp]
  0006c	ff 75 08	 push	 DWORD PTR __First$[ebp]
  0006f	e8 00 00 00 00	 call	 ??$_Sort@PAUChangeDirInfo@@HVChangeDirSort@@@std@@YAXPAUChangeDirInfo@@0HVChangeDirSort@@@Z ; std::_Sort<ChangeDirInfo *,int,ChangeDirSort>

; 3782 : 			_First = _Mid.second;

  00074	8b 5d fc	 mov	 ebx, DWORD PTR __Mid$586451[ebp+4]
  00077	89 5d 08	 mov	 DWORD PTR __First$[ebp], ebx

; 3783 : 			}
; 3784 : 		else

  0007a	eb 0f		 jmp	 SHORT $LN23@Sort
$LN5@Sort:

; 3785 : 			{	// loop on first half
; 3786 : 			_Sort(_Mid.second, _Last, _Ideal, _Pred);

  0007c	57		 push	 edi
  0007d	ff 75 fc	 push	 DWORD PTR __Mid$586451[ebp+4]
  00080	e8 00 00 00 00	 call	 ??$_Sort@PAUChangeDirInfo@@HVChangeDirSort@@@std@@YAXPAUChangeDirInfo@@0HVChangeDirSort@@@Z ; std::_Sort<ChangeDirInfo *,int,ChangeDirSort>

; 3787 : 			_Last = _Mid.first;

  00085	8b 7d f8	 mov	 edi, DWORD PTR __Mid$586451[ebp]
  00088	8b 5d 08	 mov	 ebx, DWORD PTR __First$[ebp]
$LN23@Sort:

; 3772 : 	_Diff _Count;
; 3773 : 	for (; _ISORT_MAX < (_Count = _Last - _First) && 0 < _Ideal; )

  0008b	83 c4 10	 add	 esp, 16			; 00000010H
  0008e	8b c7		 mov	 eax, edi
  00090	2b c3		 sub	 eax, ebx
  00092	6a 1c		 push	 28			; 0000001cH
  00094	99		 cdq
  00095	59		 pop	 ecx
  00096	f7 f9		 idiv	 ecx
  00098	83 f8 20	 cmp	 eax, 32			; 00000020H
  0009b	7f 87		 jg	 SHORT $LL7@Sort
$LN6@Sort:
  0009d	5e		 pop	 esi

; 3788 : 			}
; 3789 : 		}
; 3790 : 
; 3791 : 	if (_ISORT_MAX < _Count)

  0009e	83 f8 20	 cmp	 eax, 32			; 00000020H
  000a1	7e 19		 jle	 SHORT $LN22@Sort

; 3792 : 		{	// heap sort if too many divisions
; 3793 : 		_STD make_heap(_First, _Last, _Pred);

  000a3	ff 75 14	 push	 DWORD PTR __Pred$[ebp]
  000a6	57		 push	 edi
  000a7	53		 push	 ebx
  000a8	e8 00 00 00 00	 call	 ??$make_heap@PAUChangeDirInfo@@VChangeDirSort@@@std@@YAXPAUChangeDirInfo@@0VChangeDirSort@@@Z ; std::make_heap<ChangeDirInfo *,ChangeDirSort>

; 3794 : 		_STD sort_heap(_First, _Last, _Pred);

  000ad	ff 75 14	 push	 DWORD PTR __Pred$[ebp]
  000b0	57		 push	 edi
  000b1	53		 push	 ebx
  000b2	e8 00 00 00 00	 call	 ??$_Sort_heap@PAUChangeDirInfo@@VChangeDirSort@@@std@@YAXPAUChangeDirInfo@@0VChangeDirSort@@@Z ; std::_Sort_heap<ChangeDirInfo *,ChangeDirSort>
  000b7	83 c4 18	 add	 esp, 24			; 00000018H
  000ba	eb 14		 jmp	 SHORT $LN16@Sort
$LN22@Sort:

; 3795 : 		}
; 3796 : 	else if (1 < _Count)

  000bc	83 f8 01	 cmp	 eax, 1
  000bf	7e 0f		 jle	 SHORT $LN16@Sort

; 3797 : 		_Insertion_sort(_First, _Last, _Pred);	// small

  000c1	6a 00		 push	 0
  000c3	ff 75 14	 push	 DWORD PTR __Pred$[ebp]
  000c6	57		 push	 edi
  000c7	53		 push	 ebx
  000c8	e8 00 00 00 00	 call	 ??$_Insertion_sort1@PAUChangeDirInfo@@VChangeDirSort@@U1@@std@@YAXPAUChangeDirInfo@@0VChangeDirSort@@0@Z ; std::_Insertion_sort1<ChangeDirInfo *,ChangeDirSort,ChangeDirInfo>
  000cd	83 c4 10	 add	 esp, 16			; 00000010H
$LN16@Sort:
  000d0	5f		 pop	 edi
  000d1	5b		 pop	 ebx

; 3798 : 	}

  000d2	c9		 leave
  000d3	c3		 ret	 0
??$_Sort@PAUChangeDirInfo@@HVChangeDirSort@@@std@@YAXPAUChangeDirInfo@@0HVChangeDirSort@@@Z ENDP ; std::_Sort<ChangeDirInfo *,int,ChangeDirSort>
_TEXT	ENDS
PUBLIC	??_7ioMissileWeapon2@@6B@			; ioMissileWeapon2::`vftable'
PUBLIC	??0ioMissileWeapon2@@QAE@PAVioBaseChar@@PBUWeaponAttribute@@@Z ; ioMissileWeapon2::ioMissileWeapon2
PUBLIC	??_R4ioMissileWeapon2@@6B@			; ioMissileWeapon2::`RTTI Complete Object Locator'
PUBLIC	??_R0?AVioMissileWeapon2@@@8			; ioMissileWeapon2 `RTTI Type Descriptor'
PUBLIC	??_R3ioMissileWeapon2@@8			; ioMissileWeapon2::`RTTI Class Hierarchy Descriptor'
PUBLIC	??_R2ioMissileWeapon2@@8			; ioMissileWeapon2::`RTTI Base Class Array'
PUBLIC	??_R1A@?0A@EA@ioMissileWeapon2@@8		; ioMissileWeapon2::`RTTI Base Class Descriptor at (0,-1,0,64)'
PUBLIC	??_R1A@?0A@EA@ioWeapon@@8			; ioWeapon::`RTTI Base Class Descriptor at (0,-1,0,64)'
PUBLIC	??_R0?AVioWeapon@@@8				; ioWeapon `RTTI Type Descriptor'
PUBLIC	??_R3ioWeapon@@8				; ioWeapon::`RTTI Class Hierarchy Descriptor'
PUBLIC	??_R2ioWeapon@@8				; ioWeapon::`RTTI Base Class Array'
PUBLIC	?LoadProperty@ioMissileWeapon2@@UAEXAAVioINILoader@@@Z ; ioMissileWeapon2::LoadProperty
EXTRN	??1ioWeapon@@UAE@XZ:PROC			; ioWeapon::~ioWeapon
EXTRN	?SetPeculiarity@ioWeapon@@QAEXK@Z:PROC		; ioWeapon::SetPeculiarity
EXTRN	??0ioWeapon@@QAE@PAVioBaseChar@@PBUWeaponAttribute@@@Z:PROC ; ioWeapon::ioWeapon
EXTRN	__EH_prolog3:PROC
EXTRN	?IsAlreadyCollisioned@ioWeapon@@UAE_NPAVioPlayEntity@@@Z:PROC ; ioWeapon::IsAlreadyCollisioned
EXTRN	?AddCollisionEntity@ioWeapon@@UAEXPAVioPlayEntity@@@Z:PROC ; ioWeapon::AddCollisionEntity
EXTRN	?SetOwnerDamageRate@ioWeapon@@UAEXM@Z:PROC	; ioWeapon::SetOwnerDamageRate
EXTRN	?SetOwnerChargeDamageRate@ioWeapon@@UAEXM@Z:PROC ; ioWeapon::SetOwnerChargeDamageRate
EXTRN	?SetOwnerChargeForceRate@ioWeapon@@UAEXM@Z:PROC	; ioWeapon::SetOwnerChargeForceRate
EXTRN	?SetOwnerChargeRangeRate@ioWeapon@@UAEXM@Z:PROC	; ioWeapon::SetOwnerChargeRangeRate
EXTRN	?SetOwnerChargeSpeedRate@ioWeapon@@UAEXM@Z:PROC	; ioWeapon::SetOwnerChargeSpeedRate
EXTRN	?SetOwnerChargeBlowRate@ioWeapon@@UAEXM@Z:PROC	; ioWeapon::SetOwnerChargeBlowRate
EXTRN	?SetOwnerChargeFloatRate@ioWeapon@@UAEXM@Z:PROC	; ioWeapon::SetOwnerChargeFloatRate
EXTRN	?SetOwnerChargeScaleRate@ioWeapon@@UAEXM@Z:PROC	; ioWeapon::SetOwnerChargeScaleRate
EXTRN	?SetOwnerChargeExplosionRate@ioWeapon@@UAEXM@Z:PROC ; ioWeapon::SetOwnerChargeExplosionRate
EXTRN	?SetOwnerChargeWoundedTimeRate@ioWeapon@@UAEXM@Z:PROC ; ioWeapon::SetOwnerChargeWoundedTimeRate
EXTRN	?SetOwnerChargeLiveTimeRate@ioWeapon@@UAEXM@Z:PROC ; ioWeapon::SetOwnerChargeLiveTimeRate
EXTRN	?SetOwnerChargeBuffLiveTimeRate@ioWeapon@@UAEXM@Z:PROC ; ioWeapon::SetOwnerChargeBuffLiveTimeRate
EXTRN	?SetWeaponIndex@ioWeapon@@UAEXK@Z:PROC		; ioWeapon::SetWeaponIndex
EXTRN	?SetGrapplingTargetName@ioWeapon@@UAEXABVioHashString@@@Z:PROC ; ioWeapon::SetGrapplingTargetName
EXTRN	?SetCreateItem@ioWeapon@@UAEXABVioHashString@@@Z:PROC ; ioWeapon::SetCreateItem
EXTRN	?SetTeam@ioWeapon@@UAEXPAVioPlayStage@@W4TeamType@@@Z:PROC ; ioWeapon::SetTeam
EXTRN	?CallReserveAreaWeapon@ioWeapon@@UAEXXZ:PROC	; ioWeapon::CallReserveAreaWeapon
EXTRN	?SetWeaponDead@ioWeapon@@UAEXXZ:PROC		; ioWeapon::SetWeaponDead
EXTRN	?PlayExplosionSound@ioWeapon@@UAEXXZ:PROC	; ioWeapon::PlayExplosionSound
EXTRN	?PlayWoundedSound@ioWeapon@@UAEXPAVioPlayEntity@@@Z:PROC ; ioWeapon::PlayWoundedSound
EXTRN	?PlayDefensedSound@ioWeapon@@UAEXPAVioPlayEntity@@@Z:PROC ; ioWeapon::PlayDefensedSound
EXTRN	?PlayLoopSound@ioWeapon@@UAEXXZ:PROC		; ioWeapon::PlayLoopSound
EXTRN	?StopLoopSound@ioWeapon@@UAEXXZ:PROC		; ioWeapon::StopLoopSound
EXTRN	?GetTargetAirBuffList@ioWeapon@@UBEABV?$vector@UBuffInfoStruct@@V?$allocator@UBuffInfoStruct@@@std@@@std@@XZ:PROC ; ioWeapon::GetTargetAirBuffList
EXTRN	?GetTargetBuffList@ioWeapon@@UBEABV?$vector@UBuffInfoStruct@@V?$allocator@UBuffInfoStruct@@@std@@@std@@XZ:PROC ; ioWeapon::GetTargetBuffList
EXTRN	?GetTargetDownBuffList@ioWeapon@@UBEABV?$vector@UBuffInfoStruct@@V?$allocator@UBuffInfoStruct@@@std@@@std@@XZ:PROC ; ioWeapon::GetTargetDownBuffList
EXTRN	?GetPosition@ioWeapon@@UBEABUD3DXVECTOR3@@XZ:PROC ; ioWeapon::GetPosition
EXTRN	?GetBlowType@ioWeapon@@UBE?AW4BlowTargetType@@XZ:PROC ; ioWeapon::GetBlowType
EXTRN	?GetPushPower@ioWeapon@@UBEMM@Z:PROC		; ioWeapon::GetPushPower
EXTRN	?GetBlowPower@ioWeapon@@UBEMM@Z:PROC		; ioWeapon::GetBlowPower
EXTRN	?GetAirPushPower@ioWeapon@@UBEMM@Z:PROC		; ioWeapon::GetAirPushPower
EXTRN	?GetAirBlowPower@ioWeapon@@UBEMM@Z:PROC		; ioWeapon::GetAirBlowPower
EXTRN	?GetDefensePushPower@ioWeapon@@UBEMM@Z:PROC	; ioWeapon::GetDefensePushPower
EXTRN	?GetCollisionEnableTime@ioWeapon@@UBEKXZ:PROC	; ioWeapon::GetCollisionEnableTime
EXTRN	?SetSylphid@ioWeapon@@UAEHXZ:PROC		; ioWeapon::SetSylphid
EXTRN	?ApplyExtraReserveWeaponByWeaponInfo@ioWeapon@@UAEXPAV1@@Z:PROC ; ioWeapon::ApplyExtraReserveWeaponByWeaponInfo
EXTRN	?SetResistanceAttr@ioWeapon@@UAEXH@Z:PROC	; ioWeapon::SetResistanceAttr
EXTRN	?SetStartCollisionBox@ioWeapon@@UAEXXZ:PROC	; ioWeapon::SetStartCollisionBox
EXTRN	?SetLiveTime@ioWeapon@@UAEXK@Z:PROC		; ioWeapon::SetLiveTime
EXTRN	?SetFloatPower@ioWeapon@@UAEXM@Z:PROC		; ioWeapon::SetFloatPower
EXTRN	?CheckStructAndDummy@ioWeapon@@UAEXPAVioPlayEntity@@PAVioPlayStage@@@Z:PROC ; ioWeapon::CheckStructAndDummy
EXTRN	?GetDamage@ioWeapon@@UAEMPAVioPlayEntity@@@Z:PROC ; ioWeapon::GetDamage
EXTRN	?GetBaseDamage@ioWeapon@@UAEMPAVioPlayEntity@@@Z:PROC ; ioWeapon::GetBaseDamage
EXTRN	?GetPushAngle@ioWeapon@@UBEMXZ:PROC		; ioWeapon::GetPushAngle
EXTRN	?IsResistanceMagic@ioWeapon@@UAEHPAVioBaseChar@@@Z:PROC ; ioWeapon::IsResistanceMagic
EXTRN	?IsResistanceBomb@ioWeapon@@UAEHPAVioBaseChar@@@Z:PROC ; ioWeapon::IsResistanceBomb
EXTRN	?IsCanMineExplosion@ioWeapon@@UAE_NXZ:PROC	; ioWeapon::IsCanMineExplosion
EXTRN	?CheckGrapplingState@ioWeapon@@UAE?AW4GrapplingType@@XZ:PROC ; ioWeapon::CheckGrapplingState
EXTRN	?CheckItemNotDrop@ioWeapon@@UAE_NPAVioBaseChar@@@Z:PROC ; ioWeapon::CheckItemNotDrop
EXTRN	?GetWorldAttackBoxList@ioWeapon@@UAEXAAV?$vector@VioOrientBox@@V?$allocator@VioOrientBox@@@std@@@std@@@Z:PROC ; ioWeapon::GetWorldAttackBoxList
EXTRN	?GetLiveTime@ioWeapon@@UAEKXZ:PROC		; ioWeapon::GetLiveTime
EXTRN	?GetMoveDir@ioWeapon@@UAE?AUD3DXVECTOR3@@XZ:PROC ; ioWeapon::GetMoveDir
EXTRN	?CheckWeaponCollision@ioWeapon@@UAEXXZ:PROC	; ioWeapon::CheckWeaponCollision
EXTRN	?GetRefreshDuration@ioWeapon@@UAEKXZ:PROC	; ioWeapon::GetRefreshDuration
EXTRN	?GetIgnoreDuration@ioWeapon@@UAEKXZ:PROC	; ioWeapon::GetIgnoreDuration
EXTRN	?GetIgnoreTimeTypeDuration@ioWeapon@@UAEKXZ:PROC ; ioWeapon::GetIgnoreTimeTypeDuration
EXTRN	?GetIgnoreTimeType@ioWeapon@@UAEKXZ:PROC	; ioWeapon::GetIgnoreTimeType
EXTRN	?IsSkillDependency@ioWeapon@@UAE_NABVioHashString@@@Z:PROC ; ioWeapon::IsSkillDependency
EXTRN	?SetSkillDependencyAction@ioWeapon@@UAEXXZ:PROC	; ioWeapon::SetSkillDependencyAction
EXTRN	?CalcFinalDamage@ioWeapon@@MAEMXZ:PROC		; ioWeapon::CalcFinalDamage
EXTRN	?CalcFinalBoundDamage@ioWeapon@@MAEMXZ:PROC	; ioWeapon::CalcFinalBoundDamage
EXTRN	?CheckPiercing@ioWeapon@@MAE_N_N@Z:PROC		; ioWeapon::CheckPiercing
EXTRN	?ClearCollisionList@ioWeapon@@MAEXXZ:PROC	; ioWeapon::ClearCollisionList
EXTRN	?CheckCreateWeaponList@ioWeapon@@MAEXXZ:PROC	; ioWeapon::CheckCreateWeaponList
EXTRN	?CreateCollisionAreaWeapon@ioWeapon@@MAEXXZ:PROC ; ioWeapon::CreateCollisionAreaWeapon
EXTRN	?SetMapCollision@ioWeapon@@UAEXXZ:PROC		; ioWeapon::SetMapCollision
EXTRN	?IsIgnoreMapCollision@ioWeapon@@UBE_NXZ:PROC	; ioWeapon::IsIgnoreMapCollision
EXTRN	?IsIgnoreTestMapCollision@ioWeapon@@UBE_NXZ:PROC ; ioWeapon::IsIgnoreTestMapCollision
EXTRN	?IsIgnoreMapCollisionEffect@ioWeapon@@UBE_NXZ:PROC ; ioWeapon::IsIgnoreMapCollisionEffect
EXTRN	?AddEffectEvent@ioWeapon@@MAEXPAVioEffect@@@Z:PROC ; ioWeapon::AddEffectEvent
EXTRN	??_EioMissileWeapon2@@UAEPAXI@Z:PROC		; ioMissileWeapon2::`vector deleting destructor'
;	COMDAT ??_R2ioWeapon@@8
; File c:\program files (x86)\microsoft visual studio 10.0\vc\include\xmemory
rdata$r	SEGMENT
??_R2ioWeapon@@8 DD FLAT:??_R1A@?0A@EA@ioWeapon@@8	; ioWeapon::`RTTI Base Class Array'
rdata$r	ENDS
;	COMDAT ??_R3ioWeapon@@8
rdata$r	SEGMENT
??_R3ioWeapon@@8 DD 00H					; ioWeapon::`RTTI Class Hierarchy Descriptor'
	DD	00H
	DD	01H
	DD	FLAT:??_R2ioWeapon@@8
rdata$r	ENDS
;	COMDAT ??_R0?AVioWeapon@@@8
_DATA	SEGMENT
??_R0?AVioWeapon@@@8 DD FLAT:??_7type_info@@6B@		; ioWeapon `RTTI Type Descriptor'
	DD	00H
	DB	'.?AVioWeapon@@', 00H
_DATA	ENDS
;	COMDAT ??_R1A@?0A@EA@ioWeapon@@8
rdata$r	SEGMENT
??_R1A@?0A@EA@ioWeapon@@8 DD FLAT:??_R0?AVioWeapon@@@8	; ioWeapon::`RTTI Base Class Descriptor at (0,-1,0,64)'
	DD	00H
	DD	00H
	DD	0ffffffffH
	DD	00H
	DD	040H
	DD	FLAT:??_R3ioWeapon@@8
rdata$r	ENDS
;	COMDAT ??_R1A@?0A@EA@ioMissileWeapon2@@8
rdata$r	SEGMENT
??_R1A@?0A@EA@ioMissileWeapon2@@8 DD FLAT:??_R0?AVioMissileWeapon2@@@8 ; ioMissileWeapon2::`RTTI Base Class Descriptor at (0,-1,0,64)'
	DD	01H
	DD	00H
	DD	0ffffffffH
	DD	00H
	DD	040H
	DD	FLAT:??_R3ioMissileWeapon2@@8
rdata$r	ENDS
;	COMDAT ??_R2ioMissileWeapon2@@8
rdata$r	SEGMENT
??_R2ioMissileWeapon2@@8 DD FLAT:??_R1A@?0A@EA@ioMissileWeapon2@@8 ; ioMissileWeapon2::`RTTI Base Class Array'
	DD	FLAT:??_R1A@?0A@EA@ioWeapon@@8
rdata$r	ENDS
;	COMDAT ??_R3ioMissileWeapon2@@8
rdata$r	SEGMENT
??_R3ioMissileWeapon2@@8 DD 00H				; ioMissileWeapon2::`RTTI Class Hierarchy Descriptor'
	DD	00H
	DD	02H
	DD	FLAT:??_R2ioMissileWeapon2@@8
rdata$r	ENDS
;	COMDAT ??_R0?AVioMissileWeapon2@@@8
_DATA	SEGMENT
??_R0?AVioMissileWeapon2@@@8 DD FLAT:??_7type_info@@6B@	; ioMissileWeapon2 `RTTI Type Descriptor'
	DD	00H
	DB	'.?AVioMissileWeapon2@@', 00H
_DATA	ENDS
;	COMDAT ??_R4ioMissileWeapon2@@6B@
rdata$r	SEGMENT
??_R4ioMissileWeapon2@@6B@ DD 00H			; ioMissileWeapon2::`RTTI Complete Object Locator'
	DD	00H
	DD	00H
	DD	FLAT:??_R0?AVioMissileWeapon2@@@8
	DD	FLAT:??_R3ioMissileWeapon2@@8
rdata$r	ENDS
;	COMDAT ??_7ioMissileWeapon2@@6B@
CONST	SEGMENT
??_7ioMissileWeapon2@@6B@ DD FLAT:??_R4ioMissileWeapon2@@6B@ ; ioMissileWeapon2::`vftable'
	DD	FLAT:?IsAlreadyCollisioned@ioWeapon@@UAE_NPAVioPlayEntity@@@Z
	DD	FLAT:?AddCollisionEntity@ioWeapon@@UAEXPAVioPlayEntity@@@Z
	DD	FLAT:?SetOwnerDamageRate@ioWeapon@@UAEXM@Z
	DD	FLAT:?SetOwnerChargeDamageRate@ioWeapon@@UAEXM@Z
	DD	FLAT:?SetOwnerChargeForceRate@ioWeapon@@UAEXM@Z
	DD	FLAT:?SetOwnerChargeRangeRate@ioWeapon@@UAEXM@Z
	DD	FLAT:?SetOwnerChargeSpeedRate@ioWeapon@@UAEXM@Z
	DD	FLAT:?SetOwnerChargeBlowRate@ioWeapon@@UAEXM@Z
	DD	FLAT:?SetOwnerChargeFloatRate@ioWeapon@@UAEXM@Z
	DD	FLAT:?SetOwnerChargeScaleRate@ioWeapon@@UAEXM@Z
	DD	FLAT:?SetOwnerChargeExplosionRate@ioWeapon@@UAEXM@Z
	DD	FLAT:?SetOwnerChargeWoundedTimeRate@ioWeapon@@UAEXM@Z
	DD	FLAT:?SetOwnerChargeLiveTimeRate@ioWeapon@@UAEXM@Z
	DD	FLAT:?SetOwnerChargeBuffLiveTimeRate@ioWeapon@@UAEXM@Z
	DD	FLAT:?SetWeaponIndex@ioWeapon@@UAEXK@Z
	DD	FLAT:?SetGrapplingTargetName@ioWeapon@@UAEXABVioHashString@@@Z
	DD	FLAT:?SetCreateItem@ioWeapon@@UAEXABVioHashString@@@Z
	DD	FLAT:?SetTeam@ioWeapon@@UAEXPAVioPlayStage@@W4TeamType@@@Z
	DD	FLAT:?CallReserveAreaWeapon@ioWeapon@@UAEXXZ
	DD	FLAT:?SetWeaponDead@ioWeapon@@UAEXXZ
	DD	FLAT:?PlayExplosionSound@ioWeapon@@UAEXXZ
	DD	FLAT:?PlayWoundedSound@ioWeapon@@UAEXPAVioPlayEntity@@@Z
	DD	FLAT:?PlayDefensedSound@ioWeapon@@UAEXPAVioPlayEntity@@@Z
	DD	FLAT:?PlayLoopSound@ioWeapon@@UAEXXZ
	DD	FLAT:?StopLoopSound@ioWeapon@@UAEXXZ
	DD	FLAT:?GetTargetAirBuffList@ioWeapon@@UBEABV?$vector@UBuffInfoStruct@@V?$allocator@UBuffInfoStruct@@@std@@@std@@XZ
	DD	FLAT:?GetTargetBuffList@ioWeapon@@UBEABV?$vector@UBuffInfoStruct@@V?$allocator@UBuffInfoStruct@@@std@@@std@@XZ
	DD	FLAT:?GetTargetDownBuffList@ioWeapon@@UBEABV?$vector@UBuffInfoStruct@@V?$allocator@UBuffInfoStruct@@@std@@@std@@XZ
	DD	FLAT:?GetPosition@ioWeapon@@UBEABUD3DXVECTOR3@@XZ
	DD	FLAT:?GetBlowType@ioWeapon@@UBE?AW4BlowTargetType@@XZ
	DD	FLAT:?GetPushPower@ioWeapon@@UBEMM@Z
	DD	FLAT:?GetBlowPower@ioWeapon@@UBEMM@Z
	DD	FLAT:?GetAirPushPower@ioWeapon@@UBEMM@Z
	DD	FLAT:?GetAirBlowPower@ioWeapon@@UBEMM@Z
	DD	FLAT:?GetDefensePushPower@ioWeapon@@UBEMM@Z
	DD	FLAT:?GetCollisionEnableTime@ioWeapon@@UBEKXZ
	DD	FLAT:?SetSylphid@ioWeapon@@UAEHXZ
	DD	FLAT:?ApplyExtraReserveWeaponByWeaponInfo@ioWeapon@@UAEXPAV1@@Z
	DD	FLAT:?InitResource@ioMissileWeapon2@@UAE_NXZ
	DD	FLAT:?DestroyResource@ioMissileWeapon2@@UAEXPAVioPlayStage@@@Z
	DD	FLAT:?LoadProperty@ioMissileWeapon2@@UAEXAAVioINILoader@@@Z
	DD	FLAT:?SetResistanceAttr@ioWeapon@@UAEXH@Z
	DD	FLAT:?SetStartCollisionBox@ioWeapon@@UAEXXZ
	DD	FLAT:?SetLiveTime@ioWeapon@@UAEXK@Z
	DD	FLAT:?SetMoveDir@ioMissileWeapon2@@UAEXABUD3DXVECTOR3@@@Z
	DD	FLAT:?SetMoveSpeed@ioMissileWeapon2@@UAEXM@Z
	DD	FLAT:?SetFloatPower@ioWeapon@@UAEXM@Z
	DD	FLAT:?SetStartPosition@ioMissileWeapon2@@UAEXABUD3DXVECTOR3@@PAVioPlayStage@@@Z
	DD	FLAT:?Process@ioMissileWeapon2@@UAEXMPAVioPlayStage@@@Z
	DD	FLAT:?IsCollision@ioMissileWeapon2@@UAE_NPAVioPlayEntity@@_N@Z
	DD	FLAT:?TestMapCollision@ioMissileWeapon2@@UAE_NPAVioOpcodeShape@@PAVioPlayStage@@PBUD3DXMATRIX@@@Z
	DD	FLAT:?CheckPreCollision@ioMissileWeapon2@@UAEXPAVioPlayEntity@@PAVioPlayStage@@@Z
	DD	FLAT:?CheckStructAndDummy@ioWeapon@@UAEXPAVioPlayEntity@@PAVioPlayStage@@@Z
	DD	FLAT:?GetDamage@ioWeapon@@UAEMPAVioPlayEntity@@@Z
	DD	FLAT:?GetBaseDamage@ioWeapon@@UAEMPAVioPlayEntity@@@Z
	DD	FLAT:?GetPushAngle@ioWeapon@@UBEMXZ
	DD	FLAT:?IsResistanceMagic@ioWeapon@@UAEHPAVioBaseChar@@@Z
	DD	FLAT:?IsResistanceBomb@ioWeapon@@UAEHPAVioBaseChar@@@Z
	DD	FLAT:?IsCanMineExplosion@ioWeapon@@UAE_NXZ
	DD	FLAT:?CheckGrapplingState@ioWeapon@@UAE?AW4GrapplingType@@XZ
	DD	FLAT:?CheckCurAttribute@ioMissileWeapon2@@UAEXPBVioPlayEntity@@@Z
	DD	FLAT:?CheckItemNotDrop@ioWeapon@@UAE_NPAVioBaseChar@@@Z
	DD	FLAT:?GetWorldAttackBoxList@ioWeapon@@UAEXAAV?$vector@VioOrientBox@@V?$allocator@VioOrientBox@@@std@@@std@@@Z
	DD	FLAT:?GetAttackDir@ioMissileWeapon2@@UBE?AUD3DXVECTOR3@@PBVioPlayEntity@@@Z
	DD	FLAT:?GetLocalAttackBox@ioMissileWeapon2@@UBEABVioOrientBox@@XZ
	DD	FLAT:?GetLiveTime@ioWeapon@@UAEKXZ
	DD	FLAT:?GetMoveDir@ioWeapon@@UAE?AUD3DXVECTOR3@@XZ
	DD	FLAT:?CheckWeaponCollision@ioWeapon@@UAEXXZ
	DD	FLAT:?GetType@ioMissileWeapon2@@UBE?AW4WeaponType@ioWeapon@@XZ
	DD	FLAT:?GetActionStopType@ioMissileWeapon2@@UBE?AW4ActionStopType@@XZ
	DD	FLAT:?GetDieActionStopType@ioMissileWeapon2@@UBE?AW4ActionStopType@@XZ
	DD	FLAT:?GetRefreshDuration@ioWeapon@@UAEKXZ
	DD	FLAT:?GetIgnoreDuration@ioWeapon@@UAEKXZ
	DD	FLAT:?GetIgnoreTimeTypeDuration@ioWeapon@@UAEKXZ
	DD	FLAT:?GetIgnoreTimeType@ioWeapon@@UAEKXZ
	DD	FLAT:?ApplyWeaponSync@ioMissileWeapon2@@UAEXAAVSP2Packet@@PAVioPlayStage@@@Z
	DD	FLAT:?IsSkillDependency@ioWeapon@@UAE_NABVioHashString@@@Z
	DD	FLAT:?SetSkillDependencyAction@ioWeapon@@UAEXXZ
	DD	FLAT:?UpdateWorldAttackBox@ioMissileWeapon2@@MAEXM_N@Z
	DD	FLAT:?GetAttribute@ioMissileWeapon2@@MBEPBUWeaponAttribute@@XZ
	DD	FLAT:?CalcFinalDamage@ioWeapon@@MAEMXZ
	DD	FLAT:?CalcFinalBoundDamage@ioWeapon@@MAEMXZ
	DD	FLAT:?CheckPiercing@ioWeapon@@MAE_N_N@Z
	DD	FLAT:?ClearCollisionList@ioWeapon@@MAEXXZ
	DD	FLAT:?CheckCreateWeaponList@ioWeapon@@MAEXXZ
	DD	FLAT:?CreateCollisionAreaWeapon@ioWeapon@@MAEXXZ
	DD	FLAT:?SetMapCollision@ioWeapon@@UAEXXZ
	DD	FLAT:?IsIgnoreMapCollision@ioWeapon@@UBE_NXZ
	DD	FLAT:?IsIgnoreTestMapCollision@ioWeapon@@UBE_NXZ
	DD	FLAT:?IsIgnoreMapCollisionEffect@ioWeapon@@UBE_NXZ
	DD	FLAT:?AddEffectEvent@ioWeapon@@MAEXPAVioEffect@@@Z
	DD	FLAT:??_EioMissileWeapon2@@UAEPAXI@Z
CONST	ENDS
;	COMDAT xdata$x
xdata$x	SEGMENT
__unwindtable$??0ioMissileWeapon2@@QAE@PAVioBaseChar@@PBUWeaponAttribute@@@Z DD 0ffffffffH
	DD	FLAT:__unwindfunclet$??0ioMissileWeapon2@@QAE@PAVioBaseChar@@PBUWeaponAttribute@@@Z$0
	DD	00H
	DD	FLAT:__unwindfunclet$??0ioMissileWeapon2@@QAE@PAVioBaseChar@@PBUWeaponAttribute@@@Z$1
	DD	01H
	DD	FLAT:__unwindfunclet$??0ioMissileWeapon2@@QAE@PAVioBaseChar@@PBUWeaponAttribute@@@Z$2
__ehfuncinfo$??0ioMissileWeapon2@@QAE@PAVioBaseChar@@PBUWeaponAttribute@@@Z DD 019930522H
	DD	03H
	DD	FLAT:__unwindtable$??0ioMissileWeapon2@@QAE@PAVioBaseChar@@PBUWeaponAttribute@@@Z
	DD	2 DUP(00H)
	DD	2 DUP(00H)
	DD	00H
	DD	01H
; Function compile flags: /Ogsp
; File d:\lost saga for developer\youtube\tutorial\source\src\lsclient\iomissileweapon2.cpp
xdata$x	ENDS
;	COMDAT ??0ioMissileWeapon2@@QAE@PAVioBaseChar@@PBUWeaponAttribute@@@Z
_TEXT	SEGMENT
_this$ = -16						; size = 4
__$EHRec$ = -12						; size = 12
_pOwner$ = 8						; size = 4
_pAttr$ = 12						; size = 4
??0ioMissileWeapon2@@QAE@PAVioBaseChar@@PBUWeaponAttribute@@@Z PROC ; ioMissileWeapon2::ioMissileWeapon2, COMDAT
; _this$ = ecx

; 17   : {

  00000	6a 04		 push	 4
  00002	b8 00 00 00 00	 mov	 eax, __ehhandler$??0ioMissileWeapon2@@QAE@PAVioBaseChar@@PBUWeaponAttribute@@@Z
  00007	e8 00 00 00 00	 call	 __EH_prolog3
  0000c	8b f1		 mov	 esi, ecx
  0000e	89 75 f0	 mov	 DWORD PTR _this$[ebp], esi
  00011	ff 75 0c	 push	 DWORD PTR _pAttr$[ebp]
  00014	ff 75 08	 push	 DWORD PTR _pOwner$[ebp]
  00017	e8 00 00 00 00	 call	 ??0ioWeapon@@QAE@PAVioBaseChar@@PBUWeaponAttribute@@@Z ; ioWeapon::ioWeapon
  0001c	33 ff		 xor	 edi, edi
  0001e	c7 06 00 00 00
	00		 mov	 DWORD PTR [esi], OFFSET ??_7ioMissileWeapon2@@6B@
  00024	89 7d fc	 mov	 DWORD PTR __$EHRec$[ebp+8], edi
  00027	89 be cc 08 00
	00		 mov	 DWORD PTR [esi+2252], edi
  0002d	89 be d0 08 00
	00		 mov	 DWORD PTR [esi+2256], edi
  00033	89 be d4 08 00
	00		 mov	 DWORD PTR [esi+2260], edi
  00039	89 be e4 08 00
	00		 mov	 DWORD PTR [esi+2276], edi
  0003f	89 be e8 08 00
	00		 mov	 DWORD PTR [esi+2280], edi
  00045	89 be ec 08 00
	00		 mov	 DWORD PTR [esi+2284], edi

; 18   : 	SetPeculiarity( WP_DIVIDE_ACTION );

  0004b	68 00 01 00 00	 push	 256			; 00000100H
  00050	8b ce		 mov	 ecx, esi
  00052	c6 45 fc 02	 mov	 BYTE PTR __$EHRec$[ebp+8], 2
  00056	e8 00 00 00 00	 call	 ?SetPeculiarity@ioWeapon@@QAEXK@Z ; ioWeapon::SetPeculiarity

; 19   : 
; 20   : 	m_pFireBall = NULL;
; 21   : 
; 22   : 	m_fCurMoveSpeed = 0.0f;

  0005b	0f 57 c0	 xorps	 xmm0, xmm0
  0005e	89 be 98 08 00
	00		 mov	 DWORD PTR [esi+2200], edi
  00064	f3 0f 11 86 9c
	08 00 00	 movss	 DWORD PTR [esi+2204], xmm0

; 23   : 	m_fCurMoveRange = 0.0f;

  0006c	f3 0f 11 86 a0
	08 00 00	 movss	 DWORD PTR [esi+2208], xmm0

; 24   : 	m_fCurMoveRate = 0.0f;

  00074	f3 0f 11 86 a4
	08 00 00	 movss	 DWORD PTR [esi+2212], xmm0

; 25   : 
; 26   : 	m_bFirst = true;

  0007c	c6 86 dd 08 00
	00 01		 mov	 BYTE PTR [esi+2269], 1

; 27   : 
; 28   : 	m_pSecondAttr = NULL;

  00083	89 be e0 08 00
	00		 mov	 DWORD PTR [esi+2272], edi

; 29   : 	
; 30   : 	m_WeaponState = WS_MOVE;

  00089	89 be 94 08 00
	00		 mov	 DWORD PTR [esi+2196], edi

; 31   : }

  0008f	8b c6		 mov	 eax, esi
  00091	e8 00 00 00 00	 call	 __EH_epilog3
  00096	c2 08 00	 ret	 8
_TEXT	ENDS
;	COMDAT text$x
text$x	SEGMENT
__unwindfunclet$??0ioMissileWeapon2@@QAE@PAVioBaseChar@@PBUWeaponAttribute@@@Z$0:
  00000	8b 4d f0	 mov	 ecx, DWORD PTR _this$[ebp]
  00003	e9 00 00 00 00	 jmp	 ??1ioWeapon@@UAE@XZ	; ioWeapon::~ioWeapon
__unwindfunclet$??0ioMissileWeapon2@@QAE@PAVioBaseChar@@PBUWeaponAttribute@@@Z$1:
  00008	8b 4d f0	 mov	 ecx, DWORD PTR _this$[ebp]
  0000b	81 c1 cc 08 00
	00		 add	 ecx, 2252		; 000008ccH
  00011	e9 00 00 00 00	 jmp	 ??1?$vector@UChangeDirInfo@@V?$allocator@UChangeDirInfo@@@std@@@std@@QAE@XZ ; std::vector<ChangeDirInfo,std::allocator<ChangeDirInfo> >::~vector<ChangeDirInfo,std::allocator<ChangeDirInfo> >
__unwindfunclet$??0ioMissileWeapon2@@QAE@PAVioBaseChar@@PBUWeaponAttribute@@@Z$2:
  00016	8b 4d f0	 mov	 ecx, DWORD PTR _this$[ebp]
  00019	81 c1 e4 08 00
	00		 add	 ecx, 2276		; 000008e4H
  0001f	e9 00 00 00 00	 jmp	 ??1?$vector@USecondAttribute@@V?$allocator@USecondAttribute@@@std@@@std@@QAE@XZ ; std::vector<SecondAttribute,std::allocator<SecondAttribute> >::~vector<SecondAttribute,std::allocator<SecondAttribute> >
__ehhandler$??0ioMissileWeapon2@@QAE@PAVioBaseChar@@PBUWeaponAttribute@@@Z:
  00024	8b 54 24 08	 mov	 edx, DWORD PTR [esp+8]
  00028	8d 42 0c	 lea	 eax, DWORD PTR [edx+12]
  0002b	8b 4a ec	 mov	 ecx, DWORD PTR [edx-20]
  0002e	33 c8		 xor	 ecx, eax
  00030	e8 00 00 00 00	 call	 @__security_check_cookie@4
  00035	b8 00 00 00 00	 mov	 eax, OFFSET __ehfuncinfo$??0ioMissileWeapon2@@QAE@PAVioBaseChar@@PBUWeaponAttribute@@@Z
  0003a	e9 00 00 00 00	 jmp	 ___CxxFrameHandler3
text$x	ENDS
??0ioMissileWeapon2@@QAE@PAVioBaseChar@@PBUWeaponAttribute@@@Z ENDP ; ioMissileWeapon2::ioMissileWeapon2
PUBLIC	??_C@_0DI@INEJIDJK@ioMissileWeapon2?3?3?$HOioMissileWeap@ ; `string'
PUBLIC	??1ioMissileWeapon2@@UAE@XZ			; ioMissileWeapon2::~ioMissileWeapon2
EXTRN	__imp_?PrintTimeAndLog@CLog@@QAAXHPADZZ:PROC
EXTRN	__imp_?LOG@@3VCLog@@A:BYTE
;	COMDAT ??_C@_0DI@INEJIDJK@ioMissileWeapon2?3?3?$HOioMissileWeap@
; File c:\program files (x86)\microsoft visual studio 10.0\vc\include\vector
CONST	SEGMENT
??_C@_0DI@INEJIDJK@ioMissileWeapon2?3?3?$HOioMissileWeap@ DB 'ioMissileWe'
	DB	'apon2::~ioMissileWeapon - UnReleased Resouce', 00H ; `string'
CONST	ENDS
;	COMDAT xdata$x
xdata$x	SEGMENT
__unwindtable$??1ioMissileWeapon2@@UAE@XZ DD 0ffffffffH
	DD	FLAT:__unwindfunclet$??1ioMissileWeapon2@@UAE@XZ$0
	DD	00H
	DD	FLAT:__unwindfunclet$??1ioMissileWeapon2@@UAE@XZ$1
	DD	01H
	DD	FLAT:__unwindfunclet$??1ioMissileWeapon2@@UAE@XZ$2
__ehfuncinfo$??1ioMissileWeapon2@@UAE@XZ DD 019930522H
	DD	03H
	DD	FLAT:__unwindtable$??1ioMissileWeapon2@@UAE@XZ
	DD	2 DUP(00H)
	DD	2 DUP(00H)
	DD	00H
	DD	01H
; Function compile flags: /Ogsp
; File d:\lost saga for developer\youtube\tutorial\source\src\lsclient\iomissileweapon2.cpp
xdata$x	ENDS
;	COMDAT ??1ioMissileWeapon2@@UAE@XZ
_TEXT	SEGMENT
$T591596 = -20						; size = 4
_this$ = -16						; size = 4
__$EHRec$ = -12						; size = 12
??1ioMissileWeapon2@@UAE@XZ PROC			; ioMissileWeapon2::~ioMissileWeapon2, COMDAT
; _this$ = ecx

; 34   : {

  00000	6a 08		 push	 8
  00002	b8 00 00 00 00	 mov	 eax, __ehhandler$??1ioMissileWeapon2@@UAE@XZ
  00007	e8 00 00 00 00	 call	 __EH_prolog3
  0000c	8b f9		 mov	 edi, ecx
  0000e	89 7d f0	 mov	 DWORD PTR _this$[ebp], edi
  00011	c7 07 00 00 00
	00		 mov	 DWORD PTR [edi], OFFSET ??_7ioMissileWeapon2@@6B@

; 35   : 	if( m_pFireBall )

  00017	83 bf 98 08 00
	00 00		 cmp	 DWORD PTR [edi+2200], 0
  0001e	c7 45 fc 02 00
	00 00		 mov	 DWORD PTR __$EHRec$[ebp+8], 2
  00025	74 16		 je	 SHORT $LN1@ioMissileW

; 36   : 	{
; 37   : 		LOG.PrintTimeAndLog( 0, "ioMissileWeapon2::~ioMissileWeapon - UnReleased Resouce" );

  00027	68 00 00 00 00	 push	 OFFSET ??_C@_0DI@INEJIDJK@ioMissileWeapon2?3?3?$HOioMissileWeap@
  0002c	6a 00		 push	 0
  0002e	ff 35 00 00 00
	00		 push	 DWORD PTR __imp_?LOG@@3VCLog@@A
  00034	ff 15 00 00 00
	00		 call	 DWORD PTR __imp_?PrintTimeAndLog@CLog@@QAAXHPADZZ
  0003a	83 c4 0c	 add	 esp, 12			; 0000000cH
$LN1@ioMissileW:

; 38   : 	}
; 39   : 
; 40   : 	m_vSecondAttrList.clear();

  0003d	8b 87 e8 08 00
	00		 mov	 eax, DWORD PTR [edi+2280]
  00043	8b 8f e4 08 00
	00		 mov	 ecx, DWORD PTR [edi+2276]
  00049	50		 push	 eax
  0004a	51		 push	 ecx
  0004b	8d 45 ec	 lea	 eax, DWORD PTR $T591596[ebp]
  0004e	50		 push	 eax
  0004f	8d 8f e4 08 00
	00		 lea	 ecx, DWORD PTR [edi+2276]
  00055	e8 00 00 00 00	 call	 ?erase@?$vector@USecondAttribute@@V?$allocator@USecondAttribute@@@std@@@std@@QAE?AV?$_Vector_iterator@V?$_Vector_val@USecondAttribute@@V?$allocator@USecondAttribute@@@std@@@std@@@2@V?$_Vector_const_iterator@V?$_Vector_val@USecondAttribute@@V?$allocator@USecondAttribute@@@std@@@std@@@2@0@Z ; std::vector<SecondAttribute,std::allocator<SecondAttribute> >::erase

; 41   : }

  0005a	8d 8f e4 08 00
	00		 lea	 ecx, DWORD PTR [edi+2276]
  00060	c6 45 fc 01	 mov	 BYTE PTR __$EHRec$[ebp+8], 1
  00064	e8 00 00 00 00	 call	 ?_Tidy@?$vector@USecondAttribute@@V?$allocator@USecondAttribute@@@std@@@std@@IAEXXZ ; std::vector<SecondAttribute,std::allocator<SecondAttribute> >::_Tidy
  00069	8d 8f cc 08 00
	00		 lea	 ecx, DWORD PTR [edi+2252]
  0006f	c6 45 fc 00	 mov	 BYTE PTR __$EHRec$[ebp+8], 0
  00073	e8 00 00 00 00	 call	 ?_Tidy@?$vector@UChangeDirInfo@@V?$allocator@UChangeDirInfo@@@std@@@std@@IAEXXZ ; std::vector<ChangeDirInfo,std::allocator<ChangeDirInfo> >::_Tidy
  00078	83 4d fc ff	 or	 DWORD PTR __$EHRec$[ebp+8], -1
  0007c	8b cf		 mov	 ecx, edi
  0007e	e8 00 00 00 00	 call	 ??1ioWeapon@@UAE@XZ	; ioWeapon::~ioWeapon
  00083	e8 00 00 00 00	 call	 __EH_epilog3
  00088	c3		 ret	 0
_TEXT	ENDS
;	COMDAT text$x
text$x	SEGMENT
__unwindfunclet$??1ioMissileWeapon2@@UAE@XZ$0:
  00000	8b 4d f0	 mov	 ecx, DWORD PTR _this$[ebp]
  00003	e9 00 00 00 00	 jmp	 ??1ioWeapon@@UAE@XZ	; ioWeapon::~ioWeapon
__unwindfunclet$??1ioMissileWeapon2@@UAE@XZ$1:
  00008	8b 4d f0	 mov	 ecx, DWORD PTR _this$[ebp]
  0000b	81 c1 cc 08 00
	00		 add	 ecx, 2252		; 000008ccH
  00011	e9 00 00 00 00	 jmp	 ??1?$vector@UChangeDirInfo@@V?$allocator@UChangeDirInfo@@@std@@@std@@QAE@XZ ; std::vector<ChangeDirInfo,std::allocator<ChangeDirInfo> >::~vector<ChangeDirInfo,std::allocator<ChangeDirInfo> >
__unwindfunclet$??1ioMissileWeapon2@@UAE@XZ$2:
  00016	8b 4d f0	 mov	 ecx, DWORD PTR _this$[ebp]
  00019	81 c1 e4 08 00
	00		 add	 ecx, 2276		; 000008e4H
  0001f	e9 00 00 00 00	 jmp	 ??1?$vector@USecondAttribute@@V?$allocator@USecondAttribute@@@std@@@std@@QAE@XZ ; std::vector<SecondAttribute,std::allocator<SecondAttribute> >::~vector<SecondAttribute,std::allocator<SecondAttribute> >
__ehhandler$??1ioMissileWeapon2@@UAE@XZ:
  00024	8b 54 24 08	 mov	 edx, DWORD PTR [esp+8]
  00028	8d 42 0c	 lea	 eax, DWORD PTR [edx+12]
  0002b	8b 4a e8	 mov	 ecx, DWORD PTR [edx-24]
  0002e	33 c8		 xor	 ecx, eax
  00030	e8 00 00 00 00	 call	 @__security_check_cookie@4
  00035	b8 00 00 00 00	 mov	 eax, OFFSET __ehfuncinfo$??1ioMissileWeapon2@@UAE@XZ
  0003a	e9 00 00 00 00	 jmp	 ___CxxFrameHandler3
text$x	ENDS
??1ioMissileWeapon2@@UAE@XZ ENDP			; ioMissileWeapon2::~ioMissileWeapon2
PUBLIC	?push_back@?$vector@USecondAttribute@@V?$allocator@USecondAttribute@@@std@@@std@@QAEXABUSecondAttribute@@@Z ; std::vector<SecondAttribute,std::allocator<SecondAttribute> >::push_back
; Function compile flags: /Ogsp
; File c:\program files (x86)\microsoft visual studio 10.0\vc\include\vector
;	COMDAT ?push_back@?$vector@USecondAttribute@@V?$allocator@USecondAttribute@@@std@@@std@@QAEXABUSecondAttribute@@@Z
_TEXT	SEGMENT
__Val$ = 8						; size = 4
?push_back@?$vector@USecondAttribute@@V?$allocator@USecondAttribute@@@std@@@std@@QAEXABUSecondAttribute@@@Z PROC ; std::vector<SecondAttribute,std::allocator<SecondAttribute> >::push_back, COMDAT
; _this$ = ecx

; 976  : 		{	// insert element at end

  00000	55		 push	 ebp
  00001	8b ec		 mov	 ebp, esp
  00003	56		 push	 esi
  00004	8b f1		 mov	 esi, ecx

; 977  : 		if (_Inside(_STD addressof(_Val)))

  00006	8b 46 04	 mov	 eax, DWORD PTR [esi+4]
  00009	57		 push	 edi
  0000a	8b 7d 08	 mov	 edi, DWORD PTR __Val$[ebp]
  0000d	3b f8		 cmp	 edi, eax
  0000f	73 2d		 jae	 SHORT $LN4@push_back@2
  00011	8b 0e		 mov	 ecx, DWORD PTR [esi]
  00013	3b cf		 cmp	 ecx, edi
  00015	77 27		 ja	 SHORT $LN4@push_back@2

; 978  : 			{	// push back an element
; 979  : 			size_type _Idx = _STD addressof(_Val) - this->_Myfirst;

  00017	2b f9		 sub	 edi, ecx
  00019	c1 ff 03	 sar	 edi, 3

; 980  : 			if (this->_Mylast == this->_Myend)

  0001c	3b 46 08	 cmp	 eax, DWORD PTR [esi+8]
  0001f	75 09		 jne	 SHORT $LN3@push_back@2

; 981  : 				_Reserve(1);

  00021	6a 01		 push	 1
  00023	8b ce		 mov	 ecx, esi
  00025	e8 00 00 00 00	 call	 ?_Reserve@?$vector@USecondAttribute@@V?$allocator@USecondAttribute@@@std@@@std@@IAEXI@Z ; std::vector<SecondAttribute,std::allocator<SecondAttribute> >::_Reserve
$LN3@push_back@2:

; 982  : 			_Orphan_range(this->_Mylast, this->_Mylast);
; 983  : 			_Cons_val(this->_Alval,
; 984  : 				this->_Mylast,
; 985  : 				this->_Myfirst[_Idx]);

  0002a	8b 06		 mov	 eax, DWORD PTR [esi]
  0002c	8d 04 f8	 lea	 eax, DWORD PTR [eax+edi*8]
  0002f	50		 push	 eax
  00030	ff 76 04	 push	 DWORD PTR [esi+4]
  00033	8d 46 0c	 lea	 eax, DWORD PTR [esi+12]
  00036	50		 push	 eax
  00037	e8 00 00 00 00	 call	 ??$_Cons_val@V?$allocator@USecondAttribute@@@std@@USecondAttribute@@AAU3@@std@@YAXAAV?$allocator@USecondAttribute@@@0@PAUSecondAttribute@@AAU2@@Z ; std::_Cons_val<std::allocator<SecondAttribute>,SecondAttribute,SecondAttribute &>

; 986  : 			++this->_Mylast;
; 987  : 			}
; 988  : 		else

  0003c	eb 1b		 jmp	 SHORT $LN20@push_back@2
$LN4@push_back@2:

; 989  : 			{	// push back a non-element
; 990  : 			if (this->_Mylast == this->_Myend)

  0003e	3b 46 08	 cmp	 eax, DWORD PTR [esi+8]
  00041	75 09		 jne	 SHORT $LN1@push_back@2

; 991  : 				_Reserve(1);

  00043	6a 01		 push	 1
  00045	8b ce		 mov	 ecx, esi
  00047	e8 00 00 00 00	 call	 ?_Reserve@?$vector@USecondAttribute@@V?$allocator@USecondAttribute@@@std@@@std@@IAEXI@Z ; std::vector<SecondAttribute,std::allocator<SecondAttribute> >::_Reserve
$LN1@push_back@2:

; 992  : 			_Orphan_range(this->_Mylast, this->_Mylast);
; 993  : 			_Cons_val(this->_Alval,
; 994  : 				this->_Mylast,
; 995  : 				_Val);

  0004c	57		 push	 edi
  0004d	ff 76 04	 push	 DWORD PTR [esi+4]
  00050	8d 46 0c	 lea	 eax, DWORD PTR [esi+12]
  00053	50		 push	 eax
  00054	e8 00 00 00 00	 call	 ??$_Cons_val@V?$allocator@USecondAttribute@@@std@@USecondAttribute@@ABU3@@std@@YAXAAV?$allocator@USecondAttribute@@@0@PAUSecondAttribute@@ABU2@@Z ; std::_Cons_val<std::allocator<SecondAttribute>,SecondAttribute,SecondAttribute const &>
$LN20@push_back@2:
  00059	83 c4 0c	 add	 esp, 12			; 0000000cH

; 996  : 			++this->_Mylast;

  0005c	83 46 04 08	 add	 DWORD PTR [esi+4], 8
  00060	5f		 pop	 edi
  00061	5e		 pop	 esi

; 997  : 			}
; 998  : 		}

  00062	5d		 pop	 ebp
  00063	c2 04 00	 ret	 4
?push_back@?$vector@USecondAttribute@@V?$allocator@USecondAttribute@@@std@@@std@@QAEXABUSecondAttribute@@@Z ENDP ; std::vector<SecondAttribute,std::allocator<SecondAttribute> >::push_back
_TEXT	ENDS
PUBLIC	??$sort@V?$_Vector_iterator@V?$_Vector_val@UChangeDirInfo@@V?$allocator@UChangeDirInfo@@@std@@@std@@@std@@VChangeDirSort@@@std@@YAXV?$_Vector_iterator@V?$_Vector_val@UChangeDirInfo@@V?$allocator@UChangeDirInfo@@@std@@@std@@@0@0VChangeDirSort@@@Z ; std::sort<std::_Vector_iterator<std::_Vector_val<ChangeDirInfo,std::allocator<ChangeDirInfo> > >,ChangeDirSort>
; Function compile flags: /Ogsp
; File c:\program files (x86)\microsoft visual studio 10.0\vc\include\algorithm
;	COMDAT ??$sort@V?$_Vector_iterator@V?$_Vector_val@UChangeDirInfo@@V?$allocator@UChangeDirInfo@@@std@@@std@@@std@@VChangeDirSort@@@std@@YAXV?$_Vector_iterator@V?$_Vector_val@UChangeDirInfo@@V?$allocator@UChangeDirInfo@@@std@@@std@@@0@0VChangeDirSort@@@Z
_TEXT	SEGMENT
__First$ = 8						; size = 4
__Last$ = 12						; size = 4
__Pred$ = 16						; size = 1
??$sort@V?$_Vector_iterator@V?$_Vector_val@UChangeDirInfo@@V?$allocator@UChangeDirInfo@@@std@@@std@@@std@@VChangeDirSort@@@std@@YAXV?$_Vector_iterator@V?$_Vector_val@UChangeDirInfo@@V?$allocator@UChangeDirInfo@@@std@@@std@@@0@0VChangeDirSort@@@Z PROC ; std::sort<std::_Vector_iterator<std::_Vector_val<ChangeDirInfo,std::allocator<ChangeDirInfo> > >,ChangeDirSort>, COMDAT

; 3803 : 	{	// order [_First, _Last), using _Pred

  00000	55		 push	 ebp
  00001	8b ec		 mov	 ebp, esp

; 3804 : 	_DEBUG_RANGE(_First, _Last);
; 3805 : 	_DEBUG_POINTER(_Pred);
; 3806 : 	_Sort(_Unchecked(_First), _Unchecked(_Last), _Last - _First, _Pred);

  00003	ff 75 10	 push	 DWORD PTR __Pred$[ebp]
  00006	8b 45 0c	 mov	 eax, DWORD PTR __Last$[ebp]
  00009	2b 45 08	 sub	 eax, DWORD PTR __First$[ebp]
  0000c	6a 1c		 push	 28			; 0000001cH
  0000e	59		 pop	 ecx
  0000f	99		 cdq
  00010	f7 f9		 idiv	 ecx
  00012	50		 push	 eax
  00013	ff 75 0c	 push	 DWORD PTR __Last$[ebp]
  00016	ff 75 08	 push	 DWORD PTR __First$[ebp]
  00019	e8 00 00 00 00	 call	 ??$_Sort@PAUChangeDirInfo@@HVChangeDirSort@@@std@@YAXPAUChangeDirInfo@@0HVChangeDirSort@@@Z ; std::_Sort<ChangeDirInfo *,int,ChangeDirSort>
  0001e	83 c4 10	 add	 esp, 16			; 00000010H

; 3807 : 	}

  00021	5d		 pop	 ebp
  00022	c3		 ret	 0
??$sort@V?$_Vector_iterator@V?$_Vector_val@UChangeDirInfo@@V?$allocator@UChangeDirInfo@@@std@@@std@@@std@@VChangeDirSort@@@std@@YAXV?$_Vector_iterator@V?$_Vector_val@UChangeDirInfo@@V?$allocator@UChangeDirInfo@@@std@@@std@@@0@0VChangeDirSort@@@Z ENDP ; std::sort<std::_Vector_iterator<std::_Vector_val<ChangeDirInfo,std::allocator<ChangeDirInfo> > >,ChangeDirSort>
; Function compile flags: /Ogsp
_TEXT	ENDS
;	COMDAT ??_GioMissileWeapon2@@UAEPAXI@Z
_TEXT	SEGMENT
___flags$ = 8						; size = 4
??_GioMissileWeapon2@@UAEPAXI@Z PROC			; ioMissileWeapon2::`scalar deleting destructor', COMDAT
; _this$ = ecx
  00000	55		 push	 ebp
  00001	8b ec		 mov	 ebp, esp
  00003	56		 push	 esi
  00004	8b f1		 mov	 esi, ecx
  00006	e8 00 00 00 00	 call	 ??1ioMissileWeapon2@@UAE@XZ ; ioMissileWeapon2::~ioMissileWeapon2
  0000b	f6 45 08 01	 test	 BYTE PTR ___flags$[ebp], 1
  0000f	74 07		 je	 SHORT $LN1@scalar@2
  00011	56		 push	 esi
  00012	e8 00 00 00 00	 call	 ??3@YAXPAX@Z		; operator delete
  00017	59		 pop	 ecx
$LN1@scalar@2:
  00018	8b c6		 mov	 eax, esi
  0001a	5e		 pop	 esi
  0001b	5d		 pop	 ebp
  0001c	c2 04 00	 ret	 4
??_GioMissileWeapon2@@UAEPAXI@Z ENDP			; ioMissileWeapon2::`scalar deleting destructor'
_TEXT	ENDS
PUBLIC	_rkLoader$GSCopy$
PUBLIC	_this$GSCopy$
PUBLIC	__$ArrayPad$
EXTRN	__imp__wsprintfA:PROC
EXTRN	?LoadProperty@ioWeapon@@UAEXAAVioINILoader@@@Z:PROC ; ioWeapon::LoadProperty
EXTRN	_memset:PROC
; Function compile flags: /Ogsp
; File d:\lost saga for developer\youtube\tutorial\source\src\lsclient\iomissileweapon2.cpp
;	COMDAT ?LoadProperty@ioMissileWeapon2@@UAEXAAVioINILoader@@@Z
_TEXT	SEGMENT
_rkLoader$GSCopy$ = -336				; size = 4
$T591699 = -332						; size = 1
_this$GSCopy$ = -332					; size = 4
tv6652 = -328						; size = 4
$T592389 = -324						; size = 4
tv1621 = -324						; size = 4
tv7838 = -320						; size = 4
_kInfo$583599 = -316					; size = 28
_szBuf$ = -288						; size = 260
__k$591717 = -28					; size = 20
___encStr$584060 = -28					; size = 17
___encStr$583908 = -28					; size = 17
__k$592230 = -24					; size = 15
__k$592105 = -24					; size = 15
__k$591980 = -24					; size = 15
__k$591842 = -24					; size = 15
___encStr$583756 = -24					; size = 15
___encStr$583603 = -24					; size = 15
__$ArrayPad$ = -4					; size = 4
_rkLoader$ = 8						; size = 4
?LoadProperty@ioMissileWeapon2@@UAEXAAVioINILoader@@@Z PROC ; ioMissileWeapon2::LoadProperty, COMDAT
; _this$ = ecx

; 55   : {

  00000	55		 push	 ebp
  00001	8b ec		 mov	 ebp, esp
  00003	81 ec 50 01 00
	00		 sub	 esp, 336		; 00000150H
  00009	a1 00 00 00 00	 mov	 eax, DWORD PTR ___security_cookie
  0000e	33 c5		 xor	 eax, ebp
  00010	89 45 fc	 mov	 DWORD PTR __$ArrayPad$[ebp], eax
  00013	53		 push	 ebx
  00014	56		 push	 esi
  00015	57		 push	 edi
  00016	8b 7d 08	 mov	 edi, DWORD PTR _rkLoader$[ebp]
  00019	8b f1		 mov	 esi, ecx

; 56   : 	ioWeapon::LoadProperty( rkLoader );

  0001b	57		 push	 edi

; 84   : 
; 85   : 		wsprintf_e( szBuf, "change_angle_v%d", i+1 );

  0001c	89 b5 b4 fe ff
	ff		 mov	 DWORD PTR _this$GSCopy$[ebp], esi
  00022	89 bd b0 fe ff
	ff		 mov	 DWORD PTR _rkLoader$GSCopy$[ebp], edi
  00028	e8 00 00 00 00	 call	 ?LoadProperty@ioWeapon@@UAEXAAVioINILoader@@@Z ; ioWeapon::LoadProperty
  0002d	68 03 01 00 00	 push	 259			; 00000103H
  00032	8d 85 e1 fe ff
	ff		 lea	 eax, DWORD PTR _szBuf$[ebp+1]
  00038	6a 00		 push	 0
  0003a	50		 push	 eax
  0003b	c6 85 e0 fe ff
	ff 00		 mov	 BYTE PTR _szBuf$[ebp], 0
  00042	e8 00 00 00 00	 call	 _memset
  00047	83 c4 0c	 add	 esp, 12			; 0000000cH
  0004a	6a 04		 push	 4
  0004c	c7 45 e4 89 85
	98 8b		 mov	 DWORD PTR __k$591717[ebp], -1952938615 ; 8b988589H
  00053	c7 45 e8 8f 80
	8e b5		 mov	 DWORD PTR __k$591717[ebp+4], -1248952177 ; b58e808fH
  0005a	c7 45 ec 82 9b
	85 8f		 mov	 DWORD PTR __k$591717[ebp+8], -1887069310 ; 8f859b82H
  00061	c7 45 f0 9f b3
	98 89		 mov	 DWORD PTR __k$591717[ebp+12], -1986481249 ; 8998b39fH
  00068	8d 45 e4	 lea	 eax, DWORD PTR __k$591717[ebp]
  0006b	c7 45 f4 8c 80
	8e 00		 mov	 DWORD PTR __k$591717[ebp+16], 9339020 ; 008e808cH
  00072	59		 pop	 ecx
$LL506@LoadProper:

; 57   : 
; 58   : 	char szBuf[MAX_PATH] = "";
; 59   : 	
; 60   : 	m_bDisableOwnerScale = rkLoader.LoadBool_e( "disable_owner_scale", false );

  00073	81 30 ed ec eb
	ea		 xor	 DWORD PTR [eax], -353637139 ; eaebecedH
  00079	83 c0 04	 add	 eax, 4
  0007c	49		 dec	 ecx
  0007d	75 f4		 jne	 SHORT $LL506@LoadProper
  0007f	6a 10		 push	 16			; 00000010H
  00081	58		 pop	 eax
$LL503@LoadProper:
  00082	8b c8		 mov	 ecx, eax
  00084	81 e1 03 00 00
	80		 and	 ecx, -2147483645	; 80000003H
  0008a	79 05		 jns	 SHORT $LN1042@LoadProper
  0008c	49		 dec	 ecx
  0008d	83 c9 fc	 or	 ecx, -4			; fffffffcH
  00090	41		 inc	 ecx
$LN1042@LoadProper:
  00091	b2 ed		 mov	 dl, -19			; ffffffedH
  00093	2a d1		 sub	 dl, cl
  00095	30 54 05 e4	 xor	 BYTE PTR __k$591717[ebp+eax], dl
  00099	40		 inc	 eax
  0009a	83 f8 13	 cmp	 eax, 19			; 00000013H
  0009d	7c e3		 jl	 SHORT $LL503@LoadProper
  0009f	6a 00		 push	 0
  000a1	8d 45 e4	 lea	 eax, DWORD PTR __k$591717[ebp]
  000a4	50		 push	 eax
  000a5	8b cf		 mov	 ecx, edi
  000a7	ff 15 00 00 00
	00		 call	 DWORD PTR __imp_?LoadBool@ioINILoader@@QAE_NPBD_N@Z
  000ad	6a 03		 push	 3
  000af	5b		 pop	 ebx
  000b0	88 86 de 08 00
	00		 mov	 BYTE PTR [esi+2270], al

; 61   : 
; 62   : 	m_vStartOffSet.x = rkLoader.LoadFloat_e( "start_offset_x", 0.0f );

  000b6	c7 45 e8 9e 98
	8a 98		 mov	 DWORD PTR __k$591842[ebp], -1735747426 ; 988a989eH
  000bd	c7 45 ec 99 b3
	84 8c		 mov	 DWORD PTR __k$591842[ebp+4], -1937460327 ; 8c84b399H
  000c4	c7 45 f0 8b 9f
	8e 9e		 mov	 DWORD PTR __k$591842[ebp+8], -1634820213 ; 9e8e9f8bH
  000cb	66 c7 45 f4 b2
	94		 mov	 WORD PTR __k$591842[ebp+12], 38066 ; 000094b2H
  000d1	8d 45 e8	 lea	 eax, DWORD PTR __k$591842[ebp]
  000d4	c6 45 f6 00	 mov	 BYTE PTR __k$591842[ebp+14], 0
  000d8	8b cb		 mov	 ecx, ebx
$LL612@LoadProper:
  000da	81 30 ed ec eb
	ea		 xor	 DWORD PTR [eax], -353637139 ; eaebecedH
  000e0	83 c0 04	 add	 eax, 4
  000e3	49		 dec	 ecx
  000e4	75 f4		 jne	 SHORT $LL612@LoadProper
  000e6	6a 0c		 push	 12			; 0000000cH
  000e8	58		 pop	 eax
$LL609@LoadProper:
  000e9	8b c8		 mov	 ecx, eax
  000eb	81 e1 03 00 00
	80		 and	 ecx, -2147483645	; 80000003H
  000f1	79 05		 jns	 SHORT $LN1043@LoadProper
  000f3	49		 dec	 ecx
  000f4	83 c9 fc	 or	 ecx, -4			; fffffffcH
  000f7	41		 inc	 ecx
$LN1043@LoadProper:
  000f8	b2 ed		 mov	 dl, -19			; ffffffedH
  000fa	2a d1		 sub	 dl, cl
  000fc	30 54 05 e8	 xor	 BYTE PTR __k$591842[ebp+eax], dl
  00100	40		 inc	 eax
  00101	83 f8 0e	 cmp	 eax, 14			; 0000000eH
  00104	7c e3		 jl	 SHORT $LL609@LoadProper
  00106	0f 57 c0	 xorps	 xmm0, xmm0
  00109	51		 push	 ecx
  0010a	8d 45 e8	 lea	 eax, DWORD PTR __k$591842[ebp]
  0010d	f3 0f 11 04 24	 movss	 DWORD PTR [esp], xmm0
  00112	50		 push	 eax
  00113	8b cf		 mov	 ecx, edi
  00115	ff 15 00 00 00
	00		 call	 DWORD PTR __imp_?LoadFloat@ioINILoader@@QAEMPBDM@Z
  0011b	d9 9e a8 08 00
	00		 fstp	 DWORD PTR [esi+2216]

; 63   : 	m_vStartOffSet.y = rkLoader.LoadFloat_e( "start_offset_y", 0.0f );

  00121	c7 45 e8 9e 98
	8a 98		 mov	 DWORD PTR __k$591980[ebp], -1735747426 ; 988a989eH
  00128	c7 45 ec 99 b3
	84 8c		 mov	 DWORD PTR __k$591980[ebp+4], -1937460327 ; 8c84b399H
  0012f	c7 45 f0 8b 9f
	8e 9e		 mov	 DWORD PTR __k$591980[ebp+8], -1634820213 ; 9e8e9f8bH
  00136	66 c7 45 f4 b2
	95		 mov	 WORD PTR __k$591980[ebp+12], 38322 ; 000095b2H
  0013c	8d 45 e8	 lea	 eax, DWORD PTR __k$591980[ebp]
  0013f	c6 45 f6 00	 mov	 BYTE PTR __k$591980[ebp+14], 0
  00143	8b cb		 mov	 ecx, ebx
$LL718@LoadProper:
  00145	81 30 ed ec eb
	ea		 xor	 DWORD PTR [eax], -353637139 ; eaebecedH
  0014b	83 c0 04	 add	 eax, 4
  0014e	49		 dec	 ecx
  0014f	75 f4		 jne	 SHORT $LL718@LoadProper
  00151	6a 0c		 push	 12			; 0000000cH
  00153	58		 pop	 eax
$LL715@LoadProper:
  00154	8b c8		 mov	 ecx, eax
  00156	81 e1 03 00 00
	80		 and	 ecx, -2147483645	; 80000003H
  0015c	79 05		 jns	 SHORT $LN1044@LoadProper
  0015e	49		 dec	 ecx
  0015f	83 c9 fc	 or	 ecx, -4			; fffffffcH
  00162	41		 inc	 ecx
$LN1044@LoadProper:
  00163	b2 ed		 mov	 dl, -19			; ffffffedH
  00165	2a d1		 sub	 dl, cl
  00167	30 54 05 e8	 xor	 BYTE PTR __k$591980[ebp+eax], dl
  0016b	40		 inc	 eax
  0016c	83 f8 0e	 cmp	 eax, 14			; 0000000eH
  0016f	7c e3		 jl	 SHORT $LL715@LoadProper
  00171	0f 57 c0	 xorps	 xmm0, xmm0
  00174	51		 push	 ecx
  00175	8d 45 e8	 lea	 eax, DWORD PTR __k$591980[ebp]
  00178	f3 0f 11 04 24	 movss	 DWORD PTR [esp], xmm0
  0017d	50		 push	 eax
  0017e	8b cf		 mov	 ecx, edi
  00180	ff 15 00 00 00
	00		 call	 DWORD PTR __imp_?LoadFloat@ioINILoader@@QAEMPBDM@Z
  00186	d9 9e ac 08 00
	00		 fstp	 DWORD PTR [esi+2220]

; 64   : 	m_vStartOffSet.z = rkLoader.LoadFloat_e( "start_offset_z", 0.0f );

  0018c	c7 45 e8 9e 98
	8a 98		 mov	 DWORD PTR __k$592105[ebp], -1735747426 ; 988a989eH
  00193	c7 45 ec 99 b3
	84 8c		 mov	 DWORD PTR __k$592105[ebp+4], -1937460327 ; 8c84b399H
  0019a	c7 45 f0 8b 9f
	8e 9e		 mov	 DWORD PTR __k$592105[ebp+8], -1634820213 ; 9e8e9f8bH
  001a1	66 c7 45 f4 b2
	96		 mov	 WORD PTR __k$592105[ebp+12], 38578 ; 000096b2H
  001a7	8d 45 e8	 lea	 eax, DWORD PTR __k$592105[ebp]
  001aa	c6 45 f6 00	 mov	 BYTE PTR __k$592105[ebp+14], 0
  001ae	8b cb		 mov	 ecx, ebx
$LL824@LoadProper:
  001b0	81 30 ed ec eb
	ea		 xor	 DWORD PTR [eax], -353637139 ; eaebecedH
  001b6	83 c0 04	 add	 eax, 4
  001b9	49		 dec	 ecx
  001ba	75 f4		 jne	 SHORT $LL824@LoadProper
  001bc	6a 0c		 push	 12			; 0000000cH
  001be	58		 pop	 eax
$LL821@LoadProper:
  001bf	8b c8		 mov	 ecx, eax
  001c1	81 e1 03 00 00
	80		 and	 ecx, -2147483645	; 80000003H
  001c7	79 05		 jns	 SHORT $LN1045@LoadProper
  001c9	49		 dec	 ecx
  001ca	83 c9 fc	 or	 ecx, -4			; fffffffcH
  001cd	41		 inc	 ecx
$LN1045@LoadProper:
  001ce	b2 ed		 mov	 dl, -19			; ffffffedH
  001d0	2a d1		 sub	 dl, cl
  001d2	30 54 05 e8	 xor	 BYTE PTR __k$592105[ebp+eax], dl
  001d6	40		 inc	 eax
  001d7	83 f8 0e	 cmp	 eax, 14			; 0000000eH
  001da	7c e3		 jl	 SHORT $LL821@LoadProper
  001dc	0f 57 c0	 xorps	 xmm0, xmm0
  001df	51		 push	 ecx
  001e0	8d 45 e8	 lea	 eax, DWORD PTR __k$592105[ebp]
  001e3	f3 0f 11 04 24	 movss	 DWORD PTR [esp], xmm0
  001e8	50		 push	 eax
  001e9	8b cf		 mov	 ecx, edi
  001eb	ff 15 00 00 00
	00		 call	 DWORD PTR __imp_?LoadFloat@ioINILoader@@QAEMPBDM@Z
  001f1	d9 9e b0 08 00
	00		 fstp	 DWORD PTR [esi+2224]

; 65   : 
; 66   : 	int iCnt = rkLoader.LoadInt_e( "change_dir_cnt", 0 );

  001f7	c7 45 e8 8e 84
	8a 84		 mov	 DWORD PTR __k$592230[ebp], -2071296882 ; 848a848eH
  001fe	c7 45 ec 8a 89
	b4 8e		 mov	 DWORD PTR __k$592230[ebp+4], -1900770934 ; 8eb4898aH
  00205	c7 45 f0 84 9e
	b4 89		 mov	 DWORD PTR __k$592230[ebp+8], -1984651644 ; 89b49e84H
  0020c	66 c7 45 f4 83
	98		 mov	 WORD PTR __k$592230[ebp+12], 39043 ; 00009883H
  00212	8d 45 e8	 lea	 eax, DWORD PTR __k$592230[ebp]
  00215	c6 45 f6 00	 mov	 BYTE PTR __k$592230[ebp+14], 0
  00219	8b cb		 mov	 ecx, ebx
$LL930@LoadProper:
  0021b	81 30 ed ec eb
	ea		 xor	 DWORD PTR [eax], -353637139 ; eaebecedH
  00221	83 c0 04	 add	 eax, 4
  00224	49		 dec	 ecx
  00225	75 f4		 jne	 SHORT $LL930@LoadProper
  00227	6a 0c		 push	 12			; 0000000cH
  00229	58		 pop	 eax
$LL927@LoadProper:
  0022a	8b c8		 mov	 ecx, eax
  0022c	81 e1 03 00 00
	80		 and	 ecx, -2147483645	; 80000003H
  00232	79 05		 jns	 SHORT $LN1046@LoadProper
  00234	49		 dec	 ecx
  00235	83 c9 fc	 or	 ecx, -4			; fffffffcH
  00238	41		 inc	 ecx
$LN1046@LoadProper:
  00239	b2 ed		 mov	 dl, -19			; ffffffedH
  0023b	2a d1		 sub	 dl, cl
  0023d	30 54 05 e8	 xor	 BYTE PTR __k$592230[ebp+eax], dl
  00241	40		 inc	 eax
  00242	83 f8 0e	 cmp	 eax, 14			; 0000000eH
  00245	7c e3		 jl	 SHORT $LL927@LoadProper
  00247	6a 00		 push	 0
  00249	8d 45 e8	 lea	 eax, DWORD PTR __k$592230[ebp]
  0024c	50		 push	 eax
  0024d	8b cf		 mov	 ecx, edi
  0024f	ff 15 00 00 00
	00		 call	 DWORD PTR __imp_?LoadInt@ioINILoader@@QAEHPBDH@Z
  00255	8b d8		 mov	 ebx, eax

; 67   : 	if( iCnt <= 0 ) return;

  00257	85 db		 test	 ebx, ebx
  00259	0f 8e 6f 02 00
	00		 jle	 $LN401@LoadProper

; 68   : 
; 69   : 	m_ChangeDirInfoList.clear();

  0025f	8d be cc 08 00
	00		 lea	 edi, DWORD PTR [esi+2252]
  00265	8b 47 04	 mov	 eax, DWORD PTR [edi+4]
  00268	8b 0f		 mov	 ecx, DWORD PTR [edi]
  0026a	50		 push	 eax
  0026b	51		 push	 ecx
  0026c	8d 85 bc fe ff
	ff		 lea	 eax, DWORD PTR $T592389[ebp]
  00272	50		 push	 eax
  00273	8b cf		 mov	 ecx, edi
  00275	89 bd b8 fe ff
	ff		 mov	 DWORD PTR tv6652[ebp], edi
  0027b	e8 00 00 00 00	 call	 ?erase@?$vector@UChangeDirInfo@@V?$allocator@UChangeDirInfo@@@std@@@std@@QAE?AV?$_Vector_iterator@V?$_Vector_val@UChangeDirInfo@@V?$allocator@UChangeDirInfo@@@std@@@std@@@2@V?$_Vector_const_iterator@V?$_Vector_val@UChangeDirInfo@@V?$allocator@UChangeDirInfo@@@std@@@std@@@2@0@Z ; std::vector<ChangeDirInfo,std::allocator<ChangeDirInfo> >::erase

; 70   : 	m_ChangeDirInfoList.reserve( iCnt );

  00280	53		 push	 ebx
  00281	8b cf		 mov	 ecx, edi
  00283	e8 00 00 00 00	 call	 ?reserve@?$vector@UChangeDirInfo@@V?$allocator@UChangeDirInfo@@@std@@@std@@QAEXI@Z ; std::vector<ChangeDirInfo,std::allocator<ChangeDirInfo> >::reserve

; 71   : 
; 72   : 	for( int i=0; i < iCnt; ++i )

  00288	85 db		 test	 ebx, ebx
  0028a	0f 8e 26 02 00
	00		 jle	 $LN397@LoadProper

; 68   : 
; 69   : 	m_ChangeDirInfoList.clear();

  00290	89 9d bc fe ff
	ff		 mov	 DWORD PTR tv1621[ebp], ebx
  00296	8b 1d 00 00 00
	00		 mov	 ebx, DWORD PTR __imp__wsprintfA
  0029c	c7 85 c0 fe ff
	ff 01 00 00 00	 mov	 DWORD PTR tv7838[ebp], 1
$LL1041@LoadProper:

; 73   : 	{
; 74   : 		ChangeDirInfo kInfo;

  002a6	8b 35 00 00 00
	00		 mov	 esi, DWORD PTR __imp_?VEC3_ZERO@ioMath@@2UD3DXVECTOR3@@A
  002ac	8d bd d4 fe ff
	ff		 lea	 edi, DWORD PTR _kInfo$583599[ebp+16]
  002b2	a5		 movsd
  002b3	a5		 movsd
  002b4	6a 03		 push	 3
  002b6	a5		 movsd

; 75   : 
; 76   : 		wsprintf_e( szBuf, "change_range%d", i+1 );

  002b7	c7 45 e8 8e 84
	8a 84		 mov	 DWORD PTR ___encStr$583603[ebp], -2071296882 ; 848a848eH
  002be	c7 45 ec 8a 89
	b4 98		 mov	 DWORD PTR ___encStr$583603[ebp+4], -1732998774 ; 98b4898aH
  002c5	c7 45 f0 8c 82
	8c 8f		 mov	 DWORD PTR ___encStr$583603[ebp+8], -1886616948 ; 8f8c828cH
  002cc	66 c7 45 f4 c8
	88		 mov	 WORD PTR ___encStr$583603[ebp+12], 35016 ; 000088c8H
  002d2	8d 45 e8	 lea	 eax, DWORD PTR ___encStr$583603[ebp]
  002d5	c6 45 f6 00	 mov	 BYTE PTR ___encStr$583603[ebp+14], 0
  002d9	59		 pop	 ecx
$LL960@LoadProper:
  002da	81 30 ed ec eb
	ea		 xor	 DWORD PTR [eax], -353637139 ; eaebecedH
  002e0	83 c0 04	 add	 eax, 4
  002e3	49		 dec	 ecx
  002e4	75 f4		 jne	 SHORT $LL960@LoadProper
  002e6	6a 0c		 push	 12			; 0000000cH
  002e8	5e		 pop	 esi
$LL957@LoadProper:
  002e9	8b c6		 mov	 eax, esi
  002eb	25 03 00 00 80	 and	 eax, -2147483645	; 80000003H
  002f0	79 05		 jns	 SHORT $LN1047@LoadProper
  002f2	48		 dec	 eax
  002f3	83 c8 fc	 or	 eax, -4			; fffffffcH
  002f6	40		 inc	 eax
$LN1047@LoadProper:
  002f7	b1 ed		 mov	 cl, -19			; ffffffedH
  002f9	2a c8		 sub	 cl, al
  002fb	30 4c 35 e8	 xor	 BYTE PTR ___encStr$583603[ebp+esi], cl
  002ff	46		 inc	 esi
  00300	83 fe 0e	 cmp	 esi, 14			; 0000000eH
  00303	7c e4		 jl	 SHORT $LL957@LoadProper
  00305	ff b5 c0 fe ff
	ff		 push	 DWORD PTR tv7838[ebp]
  0030b	8d 45 e8	 lea	 eax, DWORD PTR ___encStr$583603[ebp]
  0030e	50		 push	 eax
  0030f	8d 85 e0 fe ff
	ff		 lea	 eax, DWORD PTR _szBuf$[ebp]
  00315	50		 push	 eax
  00316	ff d3		 call	 ebx

; 77   : 		kInfo.m_fChangeRange = rkLoader.LoadFloat( szBuf, 0.0f );

  00318	0f 57 c0	 xorps	 xmm0, xmm0
  0031b	8b bd b0 fe ff
	ff		 mov	 edi, DWORD PTR _rkLoader$GSCopy$[ebp]
  00321	59		 pop	 ecx
  00322	59		 pop	 ecx
  00323	8d 85 e0 fe ff
	ff		 lea	 eax, DWORD PTR _szBuf$[ebp]
  00329	f3 0f 11 04 24	 movss	 DWORD PTR [esp], xmm0
  0032e	50		 push	 eax
  0032f	8b cf		 mov	 ecx, edi
  00331	ff 15 00 00 00
	00		 call	 DWORD PTR __imp_?LoadFloat@ioINILoader@@QAEMPBDM@Z
  00337	d9 9d c4 fe ff
	ff		 fstp	 DWORD PTR _kInfo$583599[ebp]
  0033d	6a 03		 push	 3

; 78   : 
; 79   : 		wsprintf_e( szBuf, "change_speed%d", i+1 );

  0033f	c7 45 e8 8e 84
	8a 84		 mov	 DWORD PTR ___encStr$583756[ebp], -2071296882 ; 848a848eH
  00346	c7 45 ec 8a 89
	b4 99		 mov	 DWORD PTR ___encStr$583756[ebp+4], -1716221558 ; 99b4898aH
  0034d	c7 45 f0 9d 89
	8e 8e		 mov	 DWORD PTR ___encStr$583756[ebp+8], -1903261283 ; 8e8e899dH
  00354	66 c7 45 f4 c8
	88		 mov	 WORD PTR ___encStr$583756[ebp+12], 35016 ; 000088c8H
  0035a	8d 45 e8	 lea	 eax, DWORD PTR ___encStr$583756[ebp]
  0035d	c6 45 f6 00	 mov	 BYTE PTR ___encStr$583756[ebp+14], 0
  00361	59		 pop	 ecx
$LL968@LoadProper:
  00362	81 30 ed ec eb
	ea		 xor	 DWORD PTR [eax], -353637139 ; eaebecedH
  00368	83 c0 04	 add	 eax, 4
  0036b	49		 dec	 ecx
  0036c	75 f4		 jne	 SHORT $LL968@LoadProper
  0036e	6a 0c		 push	 12			; 0000000cH
  00370	5e		 pop	 esi
$LL965@LoadProper:
  00371	8b c6		 mov	 eax, esi
  00373	25 03 00 00 80	 and	 eax, -2147483645	; 80000003H
  00378	79 05		 jns	 SHORT $LN1048@LoadProper
  0037a	48		 dec	 eax
  0037b	83 c8 fc	 or	 eax, -4			; fffffffcH
  0037e	40		 inc	 eax
$LN1048@LoadProper:
  0037f	b1 ed		 mov	 cl, -19			; ffffffedH
  00381	2a c8		 sub	 cl, al
  00383	30 4c 35 e8	 xor	 BYTE PTR ___encStr$583756[ebp+esi], cl
  00387	46		 inc	 esi
  00388	83 fe 0e	 cmp	 esi, 14			; 0000000eH
  0038b	7c e4		 jl	 SHORT $LL965@LoadProper
  0038d	ff b5 c0 fe ff
	ff		 push	 DWORD PTR tv7838[ebp]
  00393	8d 45 e8	 lea	 eax, DWORD PTR ___encStr$583756[ebp]
  00396	50		 push	 eax
  00397	8d 85 e0 fe ff
	ff		 lea	 eax, DWORD PTR _szBuf$[ebp]
  0039d	50		 push	 eax
  0039e	ff d3		 call	 ebx

; 80   : 		kInfo.m_fChangeSpeed = rkLoader.LoadFloat( szBuf, 0.0f );

  003a0	0f 57 c0	 xorps	 xmm0, xmm0
  003a3	59		 pop	 ecx
  003a4	59		 pop	 ecx
  003a5	8d 85 e0 fe ff
	ff		 lea	 eax, DWORD PTR _szBuf$[ebp]
  003ab	f3 0f 11 04 24	 movss	 DWORD PTR [esp], xmm0
  003b0	50		 push	 eax
  003b1	8b cf		 mov	 ecx, edi
  003b3	ff 15 00 00 00
	00		 call	 DWORD PTR __imp_?LoadFloat@ioINILoader@@QAEMPBDM@Z
  003b9	d9 9d c8 fe ff
	ff		 fstp	 DWORD PTR _kInfo$583599[ebp+4]
  003bf	6a 04		 push	 4
  003c1	5e		 pop	 esi

; 81   : 
; 82   : 		wsprintf_e( szBuf, "change_angle_h%d", i+1 );

  003c2	c7 45 e4 8e 84
	8a 84		 mov	 DWORD PTR ___encStr$583908[ebp], -2071296882 ; 848a848eH
  003c9	c7 45 e8 8a 89
	b4 8b		 mov	 DWORD PTR ___encStr$583908[ebp+4], -1951102582 ; 8bb4898aH
  003d0	c7 45 ec 83 8b
	87 8f		 mov	 DWORD PTR ___encStr$583908[ebp+8], -1886942333 ; 8f878b83H
  003d7	c7 45 f0 b2 84
	ce 8e		 mov	 DWORD PTR ___encStr$583908[ebp+12], -1899068238 ; 8ece84b2H
  003de	8d 45 e4	 lea	 eax, DWORD PTR ___encStr$583908[ebp]
  003e1	c6 45 f4 00	 mov	 BYTE PTR ___encStr$583908[ebp+16], 0
  003e5	8b ce		 mov	 ecx, esi
$LL976@LoadProper:
  003e7	81 30 ed ec eb
	ea		 xor	 DWORD PTR [eax], -353637139 ; eaebecedH
  003ed	03 c6		 add	 eax, esi
  003ef	49		 dec	 ecx
  003f0	75 f5		 jne	 SHORT $LL976@LoadProper
  003f2	ff b5 c0 fe ff
	ff		 push	 DWORD PTR tv7838[ebp]
  003f8	8d 45 e4	 lea	 eax, DWORD PTR ___encStr$583908[ebp]
  003fb	50		 push	 eax
  003fc	8d 85 e0 fe ff
	ff		 lea	 eax, DWORD PTR _szBuf$[ebp]
  00402	50		 push	 eax
  00403	ff d3		 call	 ebx

; 83   : 		kInfo.m_fChangeAngleH = rkLoader.LoadFloat( szBuf, 0.0f );

  00405	0f 57 c0	 xorps	 xmm0, xmm0
  00408	59		 pop	 ecx
  00409	59		 pop	 ecx
  0040a	8d 85 e0 fe ff
	ff		 lea	 eax, DWORD PTR _szBuf$[ebp]
  00410	f3 0f 11 04 24	 movss	 DWORD PTR [esp], xmm0
  00415	50		 push	 eax
  00416	8b cf		 mov	 ecx, edi
  00418	ff 15 00 00 00
	00		 call	 DWORD PTR __imp_?LoadFloat@ioINILoader@@QAEMPBDM@Z
  0041e	d9 9d cc fe ff
	ff		 fstp	 DWORD PTR _kInfo$583599[ebp+8]

; 84   : 
; 85   : 		wsprintf_e( szBuf, "change_angle_v%d", i+1 );

  00424	c7 45 e4 8e 84
	8a 84		 mov	 DWORD PTR ___encStr$584060[ebp], -2071296882 ; 848a848eH
  0042b	c7 45 e8 8a 89
	b4 8b		 mov	 DWORD PTR ___encStr$584060[ebp+4], -1951102582 ; 8bb4898aH
  00432	c7 45 ec 83 8b
	87 8f		 mov	 DWORD PTR ___encStr$584060[ebp+8], -1886942333 ; 8f878b83H
  00439	c7 45 f0 b2 9a
	ce 8e		 mov	 DWORD PTR ___encStr$584060[ebp+12], -1899062606 ; 8ece9ab2H
  00440	8d 45 e4	 lea	 eax, DWORD PTR ___encStr$584060[ebp]
  00443	c6 45 f4 00	 mov	 BYTE PTR ___encStr$584060[ebp+16], 0
  00447	8b ce		 mov	 ecx, esi
$LL984@LoadProper:
  00449	81 30 ed ec eb
	ea		 xor	 DWORD PTR [eax], -353637139 ; eaebecedH
  0044f	03 c6		 add	 eax, esi
  00451	49		 dec	 ecx
  00452	75 f5		 jne	 SHORT $LL984@LoadProper
  00454	ff b5 c0 fe ff
	ff		 push	 DWORD PTR tv7838[ebp]
  0045a	8d 45 e4	 lea	 eax, DWORD PTR ___encStr$584060[ebp]
  0045d	50		 push	 eax
  0045e	8d 85 e0 fe ff
	ff		 lea	 eax, DWORD PTR _szBuf$[ebp]
  00464	50		 push	 eax
  00465	ff d3		 call	 ebx

; 86   : 		kInfo.m_fChangeAngleV = rkLoader.LoadFloat( szBuf, 0.0f );

  00467	0f 57 c0	 xorps	 xmm0, xmm0
  0046a	59		 pop	 ecx
  0046b	59		 pop	 ecx
  0046c	8d 85 e0 fe ff
	ff		 lea	 eax, DWORD PTR _szBuf$[ebp]
  00472	f3 0f 11 04 24	 movss	 DWORD PTR [esp], xmm0
  00477	50		 push	 eax
  00478	8b cf		 mov	 ecx, edi
  0047a	ff 15 00 00 00
	00		 call	 DWORD PTR __imp_?LoadFloat@ioINILoader@@QAEMPBDM@Z
  00480	d9 9d d0 fe ff
	ff		 fstp	 DWORD PTR _kInfo$583599[ebp+12]

; 87   : 
; 88   : 		m_ChangeDirInfoList.push_back( kInfo );

  00486	8b 8d b8 fe ff
	ff		 mov	 ecx, DWORD PTR tv6652[ebp]
  0048c	8d 85 c4 fe ff
	ff		 lea	 eax, DWORD PTR _kInfo$583599[ebp]
  00492	50		 push	 eax
  00493	e8 00 00 00 00	 call	 ?push_back@?$vector@UChangeDirInfo@@V?$allocator@UChangeDirInfo@@@std@@@std@@QAEXABUChangeDirInfo@@@Z ; std::vector<ChangeDirInfo,std::allocator<ChangeDirInfo> >::push_back
  00498	ff 85 c0 fe ff
	ff		 inc	 DWORD PTR tv7838[ebp]
  0049e	ff 8d bc fe ff
	ff		 dec	 DWORD PTR tv1621[ebp]
  004a4	0f 85 fc fd ff
	ff		 jne	 $LL1041@LoadProper

; 71   : 
; 72   : 	for( int i=0; i < iCnt; ++i )

  004aa	8b b5 b4 fe ff
	ff		 mov	 esi, DWORD PTR _this$GSCopy$[ebp]
  004b0	8b bd b8 fe ff
	ff		 mov	 edi, DWORD PTR tv6652[ebp]
$LN397@LoadProper:

; 89   : 	}
; 90   : 
; 91   : 	std::sort( m_ChangeDirInfoList.begin(), m_ChangeDirInfoList.end(), ChangeDirSort() );

  004b6	ff b5 b4 fe ff
	ff		 push	 DWORD PTR $T591699[ebp]
  004bc	8b b6 d0 08 00
	00		 mov	 esi, DWORD PTR [esi+2256]
  004c2	8b 3f		 mov	 edi, DWORD PTR [edi]
  004c4	56		 push	 esi
  004c5	57		 push	 edi
  004c6	e8 00 00 00 00	 call	 ??$sort@V?$_Vector_iterator@V?$_Vector_val@UChangeDirInfo@@V?$allocator@UChangeDirInfo@@@std@@@std@@@std@@VChangeDirSort@@@std@@YAXV?$_Vector_iterator@V?$_Vector_val@UChangeDirInfo@@V?$allocator@UChangeDirInfo@@@std@@@std@@@0@0VChangeDirSort@@@Z ; std::sort<std::_Vector_iterator<std::_Vector_val<ChangeDirInfo,std::allocator<ChangeDirInfo> > >,ChangeDirSort>
  004cb	83 c4 0c	 add	 esp, 12			; 0000000cH
$LN401@LoadProper:

; 92   : }

  004ce	8b 4d fc	 mov	 ecx, DWORD PTR __$ArrayPad$[ebp]
  004d1	5f		 pop	 edi
  004d2	5e		 pop	 esi
  004d3	33 cd		 xor	 ecx, ebp
  004d5	5b		 pop	 ebx
  004d6	e8 00 00 00 00	 call	 @__security_check_cookie@4
  004db	c9		 leave
  004dc	c2 04 00	 ret	 4
?LoadProperty@ioMissileWeapon2@@UAEXAAVioINILoader@@@Z ENDP ; ioMissileWeapon2::LoadProperty
_TEXT	ENDS
PUBLIC	?SetSecondAttribute@ioMissileWeapon2@@QAEXV?$vector@USecondAttribute@@V?$allocator@USecondAttribute@@@std@@@std@@@Z ; ioMissileWeapon2::SetSecondAttribute
;	COMDAT xdata$x
; File c:\program files (x86)\microsoft visual studio 10.0\vc\include\vector
xdata$x	SEGMENT
__unwindtable$?SetSecondAttribute@ioMissileWeapon2@@QAEXV?$vector@USecondAttribute@@V?$allocator@USecondAttribute@@@std@@@std@@@Z DD 0ffffffffH
	DD	FLAT:__unwindfunclet$?SetSecondAttribute@ioMissileWeapon2@@QAEXV?$vector@USecondAttribute@@V?$allocator@USecondAttribute@@@std@@@std@@@Z$0
__ehfuncinfo$?SetSecondAttribute@ioMissileWeapon2@@QAEXV?$vector@USecondAttribute@@V?$allocator@USecondAttribute@@@std@@@std@@@Z DD 019930522H
	DD	01H
	DD	FLAT:__unwindtable$?SetSecondAttribute@ioMissileWeapon2@@QAEXV?$vector@USecondAttribute@@V?$allocator@USecondAttribute@@@std@@@std@@@Z
	DD	2 DUP(00H)
	DD	2 DUP(00H)
	DD	00H
	DD	01H
; Function compile flags: /Ogsp
; File d:\lost saga for developer\youtube\tutorial\source\src\lsclient\iomissileweapon2.cpp
xdata$x	ENDS
;	COMDAT ?SetSecondAttribute@ioMissileWeapon2@@QAEXV?$vector@USecondAttribute@@V?$allocator@USecondAttribute@@@std@@@std@@@Z
_TEXT	SEGMENT
_kSecondAttr$584509 = -20				; size = 8
__$EHRec$ = -12						; size = 12
_vSecondList$ = 8					; size = 16
?SetSecondAttribute@ioMissileWeapon2@@QAEXV?$vector@USecondAttribute@@V?$allocator@USecondAttribute@@@std@@@std@@@Z PROC ; ioMissileWeapon2::SetSecondAttribute, COMDAT
; _this$ = ecx

; 373  : {

  00000	6a 08		 push	 8
  00002	b8 00 00 00 00	 mov	 eax, __ehhandler$?SetSecondAttribute@ioMissileWeapon2@@QAEXV?$vector@USecondAttribute@@V?$allocator@USecondAttribute@@@std@@@std@@@Z
  00007	e8 00 00 00 00	 call	 __EH_prolog3

; 374  : 	int iSize = vSecondList.size();

  0000c	8b 75 0c	 mov	 esi, DWORD PTR _vSecondList$[ebp+4]
  0000f	8b 45 08	 mov	 eax, DWORD PTR _vSecondList$[ebp]
  00012	2b f0		 sub	 esi, eax
  00014	33 ff		 xor	 edi, edi
  00016	c1 fe 03	 sar	 esi, 3
  00019	89 7d fc	 mov	 DWORD PTR __$EHRec$[ebp+8], edi

; 375  : 	for( int i=0; i < iSize; ++i )

  0001c	3b f7		 cmp	 esi, edi
  0001e	7e 28		 jle	 SHORT $LN1@SetSecondA
  00020	8d 99 e4 08 00
	00		 lea	 ebx, DWORD PTR [ecx+2276]
  00026	eb 03		 jmp	 SHORT $LN3@SetSecondA
$LL17@SetSecondA:
  00028	8b 45 08	 mov	 eax, DWORD PTR _vSecondList$[ebp]
$LN3@SetSecondA:

; 376  : 	{
; 377  : 		SecondAttribute kSecondAttr = vSecondList[i];

  0002b	8b 0c f8	 mov	 ecx, DWORD PTR [eax+edi*8]
  0002e	8b 44 f8 04	 mov	 eax, DWORD PTR [eax+edi*8+4]
  00032	89 45 f0	 mov	 DWORD PTR _kSecondAttr$584509[ebp+4], eax

; 378  : 		m_vSecondAttrList.push_back( kSecondAttr );

  00035	8d 45 ec	 lea	 eax, DWORD PTR _kSecondAttr$584509[ebp]
  00038	89 4d ec	 mov	 DWORD PTR _kSecondAttr$584509[ebp], ecx
  0003b	50		 push	 eax
  0003c	8b cb		 mov	 ecx, ebx
  0003e	e8 00 00 00 00	 call	 ?push_back@?$vector@USecondAttribute@@V?$allocator@USecondAttribute@@@std@@@std@@QAEXABUSecondAttribute@@@Z ; std::vector<SecondAttribute,std::allocator<SecondAttribute> >::push_back
  00043	47		 inc	 edi
  00044	3b fe		 cmp	 edi, esi
  00046	7c e0		 jl	 SHORT $LL17@SetSecondA
$LN1@SetSecondA:

; 379  : 	}
; 380  : }

  00048	83 4d fc ff	 or	 DWORD PTR __$EHRec$[ebp+8], -1
  0004c	8d 4d 08	 lea	 ecx, DWORD PTR _vSecondList$[ebp]
  0004f	e8 00 00 00 00	 call	 ?_Tidy@?$vector@USecondAttribute@@V?$allocator@USecondAttribute@@@std@@@std@@IAEXXZ ; std::vector<SecondAttribute,std::allocator<SecondAttribute> >::_Tidy
  00054	e8 00 00 00 00	 call	 __EH_epilog3
  00059	c2 10 00	 ret	 16			; 00000010H
_TEXT	ENDS
;	COMDAT text$x
text$x	SEGMENT
__unwindfunclet$?SetSecondAttribute@ioMissileWeapon2@@QAEXV?$vector@USecondAttribute@@V?$allocator@USecondAttribute@@@std@@@std@@@Z$0:
  00000	8d 4d 08	 lea	 ecx, DWORD PTR _vSecondList$[ebp]
  00003	e9 00 00 00 00	 jmp	 ??1?$vector@USecondAttribute@@V?$allocator@USecondAttribute@@@std@@@std@@QAE@XZ ; std::vector<SecondAttribute,std::allocator<SecondAttribute> >::~vector<SecondAttribute,std::allocator<SecondAttribute> >
__ehhandler$?SetSecondAttribute@ioMissileWeapon2@@QAEXV?$vector@USecondAttribute@@V?$allocator@USecondAttribute@@@std@@@std@@@Z:
  00008	8b 54 24 08	 mov	 edx, DWORD PTR [esp+8]
  0000c	8d 42 0c	 lea	 eax, DWORD PTR [edx+12]
  0000f	8b 4a e8	 mov	 ecx, DWORD PTR [edx-24]
  00012	33 c8		 xor	 ecx, eax
  00014	e8 00 00 00 00	 call	 @__security_check_cookie@4
  00019	b8 00 00 00 00	 mov	 eax, OFFSET __ehfuncinfo$?SetSecondAttribute@ioMissileWeapon2@@QAEXV?$vector@USecondAttribute@@V?$allocator@USecondAttribute@@@std@@@std@@@Z
  0001e	e9 00 00 00 00	 jmp	 ___CxxFrameHandler3
text$x	ENDS
?SetSecondAttribute@ioMissileWeapon2@@QAEXV?$vector@USecondAttribute@@V?$allocator@USecondAttribute@@@std@@@std@@@Z ENDP ; ioMissileWeapon2::SetSecondAttribute
END
