; Listing generated by Microsoft (R) Optimizing Compiler Version 16.00.30319.01 

	TITLE	D:\Lost Saga For Developer\Youtube\Tutorial\Source\src\LSClient\ioMissionManager.cpp
	.686P
	.XMM
	include listing.inc
	.model	flat

INCLUDELIB MSVCRT
INCLUDELIB OLDNAMES

PUBLIC	?ms_Singleton@?$Singleton@VioMissionManager@@@@1PAVioMissionManager@@A ; Singleton<ioMissionManager>::ms_Singleton
;	COMDAT ?ms_Singleton@?$Singleton@VioMissionManager@@@@1PAVioMissionManager@@A
_BSS	SEGMENT
?ms_Singleton@?$Singleton@VioMissionManager@@@@1PAVioMissionManager@@A DD 01H DUP (?) ; Singleton<ioMissionManager>::ms_Singleton
_BSS	ENDS
PUBLIC	?GetMagicCode@ioMission@@QBEABHXZ		; ioMission::GetMagicCode
; Function compile flags: /Ogsp
; File d:\lost saga for developer\youtube\tutorial\source\src\lsclient\iomission.h
;	COMDAT ?GetMagicCode@ioMission@@QBEABHXZ
_TEXT	SEGMENT
?GetMagicCode@ioMission@@QBEABHXZ PROC			; ioMission::GetMagicCode, COMDAT
; _this$ = ecx

; 102  : 	const int&							GetMagicCode()			const { return m_iMagicCode; }

  00000	8d 41 08	 lea	 eax, DWORD PTR [ecx+8]
  00003	c3		 ret	 0
?GetMagicCode@ioMission@@QBEABHXZ ENDP			; ioMission::GetMagicCode
_TEXT	ENDS
PUBLIC	?GetMissionType@ioMission@@QBEABHXZ		; ioMission::GetMissionType
; Function compile flags: /Ogsp
;	COMDAT ?GetMissionType@ioMission@@QBEABHXZ
_TEXT	SEGMENT
?GetMissionType@ioMission@@QBEABHXZ PROC		; ioMission::GetMissionType, COMDAT
; _this$ = ecx

; 103  : 	const int&							GetMissionType()		const { return m_iMissionType; }

  00000	8d 41 0c	 lea	 eax, DWORD PTR [ecx+12]
  00003	c3		 ret	 0
?GetMissionType@ioMission@@QBEABHXZ ENDP		; ioMission::GetMissionType
_TEXT	ENDS
PUBLIC	?GetClearMissionType@ioMission@@QBEABEXZ	; ioMission::GetClearMissionType
; Function compile flags: /Ogsp
;	COMDAT ?GetClearMissionType@ioMission@@QBEABEXZ
_TEXT	SEGMENT
?GetClearMissionType@ioMission@@QBEABEXZ PROC		; ioMission::GetClearMissionType, COMDAT
; _this$ = ecx

; 105  : 	const BYTE&							GetClearMissionType()	const { return m_byClearMissionType; }

  00000	8d 41 30	 lea	 eax, DWORD PTR [ecx+48]
  00003	c3		 ret	 0
?GetClearMissionType@ioMission@@QBEABEXZ ENDP		; ioMission::GetClearMissionType
_TEXT	ENDS
PUBLIC	?GetMissionSortType@ioMission@@QBEABW4MissionSortType@@XZ ; ioMission::GetMissionSortType
; Function compile flags: /Ogsp
;	COMDAT ?GetMissionSortType@ioMission@@QBEABW4MissionSortType@@XZ
_TEXT	SEGMENT
?GetMissionSortType@ioMission@@QBEABW4MissionSortType@@XZ PROC ; ioMission::GetMissionSortType, COMDAT
; _this$ = ecx

; 112  : 	const MissionSortType&				GetMissionSortType()	const { return m_MissionSortType; }

  00000	8d 41 64	 lea	 eax, DWORD PTR [ecx+100]
  00003	c3		 ret	 0
?GetMissionSortType@ioMission@@QBEABW4MissionSortType@@XZ ENDP ; ioMission::GetMissionSortType
_TEXT	ENDS
PUBLIC	?ChangeMission@ioMissionManager@@QAEXXZ		; ioMissionManager::ChangeMission
; Function compile flags: /Ogsp
; File d:\lost saga for developer\youtube\tutorial\source\src\lsclient\iomissionmanager.h
;	COMDAT ?ChangeMission@ioMissionManager@@QAEXXZ
_TEXT	SEGMENT
?ChangeMission@ioMissionManager@@QAEXXZ PROC		; ioMissionManager::ChangeMission, COMDAT
; _this$ = ecx

; 74   : 	void						ChangeMission() { m_bChangeMission = true; }

  00000	c6 41 6c 01	 mov	 BYTE PTR [ecx+108], 1
  00004	c3		 ret	 0
?ChangeMission@ioMissionManager@@QAEXXZ ENDP		; ioMissionManager::ChangeMission
_TEXT	ENDS
PUBLIC	??_GioMission@@QAEPAXI@Z			; ioMission::`scalar deleting destructor'
EXTRN	??3@YAXPAX@Z:PROC				; operator delete
EXTRN	??1ioMission@@QAE@XZ:PROC			; ioMission::~ioMission
; Function compile flags: /Ogsp
;	COMDAT ??_GioMission@@QAEPAXI@Z
_TEXT	SEGMENT
___flags$ = 8						; size = 4
??_GioMission@@QAEPAXI@Z PROC				; ioMission::`scalar deleting destructor', COMDAT
; _this$ = ecx
  00000	55		 push	 ebp
  00001	8b ec		 mov	 ebp, esp
  00003	56		 push	 esi
  00004	8b f1		 mov	 esi, ecx
  00006	e8 00 00 00 00	 call	 ??1ioMission@@QAE@XZ	; ioMission::~ioMission
  0000b	f6 45 08 01	 test	 BYTE PTR ___flags$[ebp], 1
  0000f	74 07		 je	 SHORT $LN1@scalar
  00011	56		 push	 esi
  00012	e8 00 00 00 00	 call	 ??3@YAXPAX@Z		; operator delete
  00017	59		 pop	 ecx
$LN1@scalar:
  00018	8b c6		 mov	 eax, esi
  0001a	5e		 pop	 esi
  0001b	5d		 pop	 ebp
  0001c	c2 04 00	 ret	 4
??_GioMission@@QAEPAXI@Z ENDP				; ioMission::`scalar deleting destructor'
_TEXT	ENDS
PUBLIC	??_7bad_alloc@std@@6B@				; std::bad_alloc::`vftable'
PUBLIC	??0bad_alloc@std@@QAE@PBD@Z			; std::bad_alloc::bad_alloc
PUBLIC	??_R4bad_alloc@std@@6B@				; std::bad_alloc::`RTTI Complete Object Locator'
PUBLIC	??_R0?AVbad_alloc@std@@@8			; std::bad_alloc `RTTI Type Descriptor'
PUBLIC	??_R3bad_alloc@std@@8				; std::bad_alloc::`RTTI Class Hierarchy Descriptor'
PUBLIC	??_R2bad_alloc@std@@8				; std::bad_alloc::`RTTI Base Class Array'
PUBLIC	??_R1A@?0A@EA@bad_alloc@std@@8			; std::bad_alloc::`RTTI Base Class Descriptor at (0,-1,0,64)'
PUBLIC	??_R1A@?0A@EA@exception@std@@8			; std::exception::`RTTI Base Class Descriptor at (0,-1,0,64)'
PUBLIC	??_R0?AVexception@std@@@8			; std::exception `RTTI Type Descriptor'
PUBLIC	??_R3exception@std@@8				; std::exception::`RTTI Class Hierarchy Descriptor'
PUBLIC	??_R2exception@std@@8				; std::exception::`RTTI Base Class Array'
EXTRN	__imp_??0exception@std@@QAE@ABQBD@Z:PROC
EXTRN	??_7type_info@@6B@:QWORD			; type_info::`vftable'
EXTRN	??_Ebad_alloc@std@@UAEPAXI@Z:PROC		; std::bad_alloc::`vector deleting destructor'
EXTRN	?what@exception@std@@UBEPBDXZ:PROC		; std::exception::what
;	COMDAT ??_R2exception@std@@8
; File c:\program files (x86)\microsoft visual studio 10.0\vc\include\exception
rdata$r	SEGMENT
??_R2exception@std@@8 DD FLAT:??_R1A@?0A@EA@exception@std@@8 ; std::exception::`RTTI Base Class Array'
rdata$r	ENDS
;	COMDAT ??_R3exception@std@@8
rdata$r	SEGMENT
??_R3exception@std@@8 DD 00H				; std::exception::`RTTI Class Hierarchy Descriptor'
	DD	00H
	DD	01H
	DD	FLAT:??_R2exception@std@@8
rdata$r	ENDS
;	COMDAT ??_R0?AVexception@std@@@8
_DATA	SEGMENT
??_R0?AVexception@std@@@8 DD FLAT:??_7type_info@@6B@	; std::exception `RTTI Type Descriptor'
	DD	00H
	DB	'.?AVexception@std@@', 00H
_DATA	ENDS
;	COMDAT ??_R1A@?0A@EA@exception@std@@8
rdata$r	SEGMENT
??_R1A@?0A@EA@exception@std@@8 DD FLAT:??_R0?AVexception@std@@@8 ; std::exception::`RTTI Base Class Descriptor at (0,-1,0,64)'
	DD	00H
	DD	00H
	DD	0ffffffffH
	DD	00H
	DD	040H
	DD	FLAT:??_R3exception@std@@8
rdata$r	ENDS
;	COMDAT ??_R1A@?0A@EA@bad_alloc@std@@8
rdata$r	SEGMENT
??_R1A@?0A@EA@bad_alloc@std@@8 DD FLAT:??_R0?AVbad_alloc@std@@@8 ; std::bad_alloc::`RTTI Base Class Descriptor at (0,-1,0,64)'
	DD	01H
	DD	00H
	DD	0ffffffffH
	DD	00H
	DD	040H
	DD	FLAT:??_R3bad_alloc@std@@8
rdata$r	ENDS
;	COMDAT ??_R2bad_alloc@std@@8
rdata$r	SEGMENT
??_R2bad_alloc@std@@8 DD FLAT:??_R1A@?0A@EA@bad_alloc@std@@8 ; std::bad_alloc::`RTTI Base Class Array'
	DD	FLAT:??_R1A@?0A@EA@exception@std@@8
rdata$r	ENDS
;	COMDAT ??_R3bad_alloc@std@@8
rdata$r	SEGMENT
??_R3bad_alloc@std@@8 DD 00H				; std::bad_alloc::`RTTI Class Hierarchy Descriptor'
	DD	00H
	DD	02H
	DD	FLAT:??_R2bad_alloc@std@@8
rdata$r	ENDS
;	COMDAT ??_R0?AVbad_alloc@std@@@8
_DATA	SEGMENT
??_R0?AVbad_alloc@std@@@8 DD FLAT:??_7type_info@@6B@	; std::bad_alloc `RTTI Type Descriptor'
	DD	00H
	DB	'.?AVbad_alloc@std@@', 00H
_DATA	ENDS
;	COMDAT ??_R4bad_alloc@std@@6B@
rdata$r	SEGMENT
??_R4bad_alloc@std@@6B@ DD 00H				; std::bad_alloc::`RTTI Complete Object Locator'
	DD	00H
	DD	00H
	DD	FLAT:??_R0?AVbad_alloc@std@@@8
	DD	FLAT:??_R3bad_alloc@std@@8
rdata$r	ENDS
;	COMDAT ??_7bad_alloc@std@@6B@
CONST	SEGMENT
??_7bad_alloc@std@@6B@ DD FLAT:??_R4bad_alloc@std@@6B@	; std::bad_alloc::`vftable'
	DD	FLAT:??_Ebad_alloc@std@@UAEPAXI@Z
	DD	FLAT:?what@exception@std@@UBEPBDXZ
; Function compile flags: /Ogsp
CONST	ENDS
;	COMDAT ??0bad_alloc@std@@QAE@PBD@Z
_TEXT	SEGMENT
__Message$ = 8						; size = 4
??0bad_alloc@std@@QAE@PBD@Z PROC			; std::bad_alloc::bad_alloc, COMDAT
; _this$ = ecx

; 345  : 		{	// construct from message string

  00000	55		 push	 ebp
  00001	8b ec		 mov	 ebp, esp
  00003	56		 push	 esi
  00004	8d 45 08	 lea	 eax, DWORD PTR __Message$[ebp]
  00007	50		 push	 eax
  00008	8b f1		 mov	 esi, ecx
  0000a	ff 15 00 00 00
	00		 call	 DWORD PTR __imp_??0exception@std@@QAE@ABQBD@Z
  00010	c7 06 00 00 00
	00		 mov	 DWORD PTR [esi], OFFSET ??_7bad_alloc@std@@6B@

; 346  : 		}

  00016	8b c6		 mov	 eax, esi
  00018	5e		 pop	 esi
  00019	5d		 pop	 ebp
  0001a	c2 04 00	 ret	 4
??0bad_alloc@std@@QAE@PBD@Z ENDP			; std::bad_alloc::bad_alloc
_TEXT	ENDS
PUBLIC	??1bad_alloc@std@@UAE@XZ			; std::bad_alloc::~bad_alloc
EXTRN	__imp_??1exception@std@@UAE@XZ:PROC
; Function compile flags: /Ogsp
;	COMDAT ??1bad_alloc@std@@UAE@XZ
_TEXT	SEGMENT
??1bad_alloc@std@@UAE@XZ PROC				; std::bad_alloc::~bad_alloc, COMDAT
; _this$ = ecx

; 354  : 		{	// destroy the object

  00000	c7 01 00 00 00
	00		 mov	 DWORD PTR [ecx], OFFSET ??_7bad_alloc@std@@6B@

; 355  : 		}

  00006	ff 25 00 00 00
	00		 jmp	 DWORD PTR __imp_??1exception@std@@UAE@XZ
??1bad_alloc@std@@UAE@XZ ENDP				; std::bad_alloc::~bad_alloc
; Function compile flags: /Ogsp
_TEXT	ENDS
;	COMDAT ??_Gbad_alloc@std@@UAEPAXI@Z
_TEXT	SEGMENT
___flags$ = 8						; size = 4
??_Gbad_alloc@std@@UAEPAXI@Z PROC			; std::bad_alloc::`scalar deleting destructor', COMDAT
; _this$ = ecx
  00000	55		 push	 ebp
  00001	8b ec		 mov	 ebp, esp
  00003	56		 push	 esi
  00004	8b f1		 mov	 esi, ecx
  00006	c7 06 00 00 00
	00		 mov	 DWORD PTR [esi], OFFSET ??_7bad_alloc@std@@6B@
  0000c	ff 15 00 00 00
	00		 call	 DWORD PTR __imp_??1exception@std@@UAE@XZ
  00012	f6 45 08 01	 test	 BYTE PTR ___flags$[ebp], 1
  00016	74 07		 je	 SHORT $LN1@scalar@2
  00018	56		 push	 esi
  00019	e8 00 00 00 00	 call	 ??3@YAXPAX@Z		; operator delete
  0001e	59		 pop	 ecx
$LN1@scalar@2:
  0001f	8b c6		 mov	 eax, esi
  00021	5e		 pop	 esi
  00022	5d		 pop	 ebp
  00023	c2 04 00	 ret	 4
??_Gbad_alloc@std@@UAEPAXI@Z ENDP			; std::bad_alloc::`scalar deleting destructor'
_TEXT	ENDS
PUBLIC	??2@YAPAXIPAX@Z					; operator new
; Function compile flags: /Ogsp
; File c:\program files (x86)\microsoft visual studio 10.0\vc\include\new
;	COMDAT ??2@YAPAXIPAX@Z
_TEXT	SEGMENT
___formal$ = 8						; size = 4
__Where$ = 12						; size = 4
??2@YAPAXIPAX@Z PROC					; operator new, COMDAT

; 56   : 	{	// construct array with placement at _Where

  00000	55		 push	 ebp
  00001	8b ec		 mov	 ebp, esp

; 57   : 	return (_Where);

  00003	8b 45 0c	 mov	 eax, DWORD PTR __Where$[ebp]

; 58   : 	}

  00006	5d		 pop	 ebp
  00007	c3		 ret	 0
??2@YAPAXIPAX@Z ENDP					; operator new
_TEXT	ENDS
PUBLIC	??3@YAXPAX0@Z					; operator delete
; Function compile flags: /Ogsp
;	COMDAT ??3@YAXPAX0@Z
_TEXT	SEGMENT
___formal$ = 8						; size = 4
___formal$ = 12						; size = 4
??3@YAXPAX0@Z PROC					; operator delete, COMDAT

; 62   : 	}

  00000	c3		 ret	 0
??3@YAXPAX0@Z ENDP					; operator delete
_TEXT	ENDS
PUBLIC	??1ioINILoader_e@@QAE@XZ			; ioINILoader_e::~ioINILoader_e
EXTRN	__imp_??1ioINILoader@@QAE@XZ:PROC
; Function compile flags: /Ogsp
;	COMDAT ??1ioINILoader_e@@QAE@XZ
_TEXT	SEGMENT
??1ioINILoader_e@@QAE@XZ PROC				; ioINILoader_e::~ioINILoader_e, COMDAT
; _this$ = ecx
  00000	ff 25 00 00 00
	00		 jmp	 DWORD PTR __imp_??1ioINILoader@@QAE@XZ
??1ioINILoader_e@@QAE@XZ ENDP				; ioINILoader_e::~ioINILoader_e
_TEXT	ENDS
PUBLIC	??_C@_0BL@BDGCEAHJ@?$CFs?5UNKOWN?5Mission?5Type?5?3?$CFd?$AA@ ; `string'
PUBLIC	??_C@_0CA@DEJADGMA@ioMissionManager?3?3CreateMission?$AA@ ; `string'
PUBLIC	?CreateMission@ioMissionManager@@IAEPAVioMission@@ABH@Z ; ioMissionManager::CreateMission
EXTRN	__imp_?PrintTimeAndLog@CLog@@QAAXHPADZZ:PROC
EXTRN	__imp_?LOG@@3VCLog@@A:BYTE
EXTRN	??0ioAdditiveUseMission@@QAE@XZ:PROC		; ioAdditiveUseMission::ioAdditiveUseMission
EXTRN	??0ioMonthlyAllClearMission@@QAE@XZ:PROC	; ioMonthlyAllClearMission::ioMonthlyAllClearMission
EXTRN	??0ioWeeklyAllClearMission@@QAE@XZ:PROC		; ioWeeklyAllClearMission::ioWeeklyAllClearMission
EXTRN	??0ioWeeklyCompleteMission@@QAE@XZ:PROC		; ioWeeklyCompleteMission::ioWeeklyCompleteMission
EXTRN	??0ioDailyAllClearMisson@@QAE@XZ:PROC		; ioDailyAllClearMisson::ioDailyAllClearMisson
EXTRN	??0ioDailyCompleteMisson@@QAE@XZ:PROC		; ioDailyCompleteMisson::ioDailyCompleteMisson
EXTRN	??0ioModePlayMission@@QAE@XZ:PROC		; ioModePlayMission::ioModePlayMission
EXTRN	??0ioItemReinforceMission@@QAE@XZ:PROC		; ioItemReinforceMission::ioItemReinforceMission
EXTRN	??0ioItemUseMission@@QAE@XZ:PROC		; ioItemUseMission::ioItemUseMission
EXTRN	??0ioExcavationMission@@QAE@XZ:PROC		; ioExcavationMission::ioExcavationMission
EXTRN	??0ioCloverMission@@QAE@XZ:PROC			; ioCloverMission::ioCloverMission
EXTRN	??0ioItemBuyMission@@QAE@XZ:PROC		; ioItemBuyMission::ioItemBuyMission
EXTRN	??0ioMonsterKillMission@@QAE@XZ:PROC		; ioMonsterKillMission::ioMonsterKillMission
EXTRN	??0ioPesoCollectMission@@QAE@XZ:PROC		; ioPesoCollectMission::ioPesoCollectMission
EXTRN	??0ioFishingMission@@QAE@XZ:PROC		; ioFishingMission::ioFishingMission
EXTRN	??0ioLoginTimeMission@@QAE@XZ:PROC		; ioLoginTimeMission::ioLoginTimeMission
EXTRN	??2@YAPAXI@Z:PROC				; operator new
EXTRN	___CxxFrameHandler3:PROC
EXTRN	@__security_check_cookie@4:PROC
EXTRN	__EH_epilog3:PROC
EXTRN	__EH_prolog3:PROC
;	COMDAT ??_C@_0BL@BDGCEAHJ@?$CFs?5UNKOWN?5Mission?5Type?5?3?$CFd?$AA@
; File d:\lost saga for developer\youtube\tutorial\source\src\lsclient\iomissionmanager.cpp
CONST	SEGMENT
??_C@_0BL@BDGCEAHJ@?$CFs?5UNKOWN?5Mission?5Type?5?3?$CFd?$AA@ DB '%s UNKO'
	DB	'WN Mission Type :%d', 00H			; `string'
CONST	ENDS
;	COMDAT ??_C@_0CA@DEJADGMA@ioMissionManager?3?3CreateMission?$AA@
CONST	SEGMENT
??_C@_0CA@DEJADGMA@ioMissionManager?3?3CreateMission?$AA@ DB 'ioMissionMa'
	DB	'nager::CreateMission', 00H			; `string'
CONST	ENDS
;	COMDAT xdata$x
xdata$x	SEGMENT
__ehfuncinfo$?CreateMission@ioMissionManager@@IAEPAVioMission@@ABH@Z DD 019930522H
	DD	010H
	DD	FLAT:__unwindtable$?CreateMission@ioMissionManager@@IAEPAVioMission@@ABH@Z
	DD	2 DUP(00H)
	DD	2 DUP(00H)
	DD	00H
	DD	01H
__unwindtable$?CreateMission@ioMissionManager@@IAEPAVioMission@@ABH@Z DD 0ffffffffH
	DD	FLAT:__unwindfunclet$?CreateMission@ioMissionManager@@IAEPAVioMission@@ABH@Z$0
	DD	0ffffffffH
	DD	FLAT:__unwindfunclet$?CreateMission@ioMissionManager@@IAEPAVioMission@@ABH@Z$1
	DD	0ffffffffH
	DD	FLAT:__unwindfunclet$?CreateMission@ioMissionManager@@IAEPAVioMission@@ABH@Z$2
	DD	0ffffffffH
	DD	FLAT:__unwindfunclet$?CreateMission@ioMissionManager@@IAEPAVioMission@@ABH@Z$3
	DD	0ffffffffH
	DD	FLAT:__unwindfunclet$?CreateMission@ioMissionManager@@IAEPAVioMission@@ABH@Z$4
	DD	0ffffffffH
	DD	FLAT:__unwindfunclet$?CreateMission@ioMissionManager@@IAEPAVioMission@@ABH@Z$5
	DD	0ffffffffH
	DD	FLAT:__unwindfunclet$?CreateMission@ioMissionManager@@IAEPAVioMission@@ABH@Z$6
	DD	0ffffffffH
	DD	FLAT:__unwindfunclet$?CreateMission@ioMissionManager@@IAEPAVioMission@@ABH@Z$7
	DD	0ffffffffH
	DD	FLAT:__unwindfunclet$?CreateMission@ioMissionManager@@IAEPAVioMission@@ABH@Z$8
	DD	0ffffffffH
	DD	FLAT:__unwindfunclet$?CreateMission@ioMissionManager@@IAEPAVioMission@@ABH@Z$9
	DD	0ffffffffH
	DD	FLAT:__unwindfunclet$?CreateMission@ioMissionManager@@IAEPAVioMission@@ABH@Z$10
	DD	0ffffffffH
	DD	FLAT:__unwindfunclet$?CreateMission@ioMissionManager@@IAEPAVioMission@@ABH@Z$11
	DD	0ffffffffH
	DD	FLAT:__unwindfunclet$?CreateMission@ioMissionManager@@IAEPAVioMission@@ABH@Z$12
	DD	0ffffffffH
	DD	FLAT:__unwindfunclet$?CreateMission@ioMissionManager@@IAEPAVioMission@@ABH@Z$13
	DD	0ffffffffH
	DD	FLAT:__unwindfunclet$?CreateMission@ioMissionManager@@IAEPAVioMission@@ABH@Z$14
	DD	0ffffffffH
	DD	FLAT:__unwindfunclet$?CreateMission@ioMissionManager@@IAEPAVioMission@@ABH@Z$15
; Function compile flags: /Ogsp
xdata$x	ENDS
;	COMDAT ?CreateMission@ioMissionManager@@IAEPAVioMission@@ABH@Z
_TEXT	SEGMENT
__$EHRec$ = -12						; size = 12
$T510029 = 8						; size = 4
$T510025 = 8						; size = 4
$T510021 = 8						; size = 4
$T510017 = 8						; size = 4
$T510013 = 8						; size = 4
$T510009 = 8						; size = 4
$T510005 = 8						; size = 4
$T510001 = 8						; size = 4
$T509997 = 8						; size = 4
$T509993 = 8						; size = 4
$T509989 = 8						; size = 4
$T509985 = 8						; size = 4
$T509981 = 8						; size = 4
$T509977 = 8						; size = 4
$T509973 = 8						; size = 4
$T509969 = 8						; size = 4
_iType$ = 8						; size = 4
?CreateMission@ioMissionManager@@IAEPAVioMission@@ABH@Z PROC ; ioMissionManager::CreateMission, COMDAT
; _this$ = ecx

; 87   : {

  00000	6a 00		 push	 0
  00002	b8 00 00 00 00	 mov	 eax, __ehhandler$?CreateMission@ioMissionManager@@IAEPAVioMission@@ABH@Z
  00007	e8 00 00 00 00	 call	 __EH_prolog3

; 88   : 	switch( iType )

  0000c	8b 45 08	 mov	 eax, DWORD PTR _iType$[ebp]
  0000f	8b 00		 mov	 eax, DWORD PTR [eax]
  00011	8d 48 ff	 lea	 ecx, DWORD PTR [eax-1]
  00014	83 f9 0f	 cmp	 ecx, 15			; 0000000fH
  00017	0f 87 4f 02 00
	00		 ja	 $LN1@CreateMiss
  0001d	ff 24 8d 00 00
	00 00		 jmp	 DWORD PTR $LN71@CreateMiss[ecx*4]
$LN17@CreateMiss:

; 89   : 	{
; 90   : 	case MISSION_CLASS_LOGINTIME_CHECK:
; 91   : 		return new ioLoginTimeMission;

  00024	68 80 00 00 00	 push	 128			; 00000080H
  00029	e8 00 00 00 00	 call	 ??2@YAPAXI@Z		; operator new
  0002e	59		 pop	 ecx
  0002f	8b c8		 mov	 ecx, eax
  00031	89 4d 08	 mov	 DWORD PTR $T509969[ebp], ecx
  00034	83 65 fc 00	 and	 DWORD PTR __$EHRec$[ebp+8], 0
  00038	85 c9		 test	 ecx, ecx
  0003a	0f 84 48 02 00
	00		 je	 $LN22@CreateMiss
  00040	e8 00 00 00 00	 call	 ??0ioLoginTimeMission@@QAE@XZ ; ioLoginTimeMission::ioLoginTimeMission
  00045	e9 40 02 00 00	 jmp	 $LN18@CreateMiss
$LN16@CreateMiss:

; 92   : 	case MISSION_CLASS_FISHING:
; 93   : 		return new ioFishingMission;

  0004a	6a 6c		 push	 108			; 0000006cH
  0004c	e8 00 00 00 00	 call	 ??2@YAPAXI@Z		; operator new
  00051	59		 pop	 ecx
  00052	8b c8		 mov	 ecx, eax
  00054	89 4d 08	 mov	 DWORD PTR $T509973[ebp], ecx
  00057	c7 45 fc 01 00
	00 00		 mov	 DWORD PTR __$EHRec$[ebp+8], 1
  0005e	85 c9		 test	 ecx, ecx
  00060	0f 84 22 02 00
	00		 je	 $LN22@CreateMiss
  00066	e8 00 00 00 00	 call	 ??0ioFishingMission@@QAE@XZ ; ioFishingMission::ioFishingMission
  0006b	e9 1a 02 00 00	 jmp	 $LN18@CreateMiss
$LN15@CreateMiss:

; 94   : 	case MISSION_CLASS_PESO_COLLECT:
; 95   : 		return new ioPesoCollectMission;

  00070	6a 6c		 push	 108			; 0000006cH
  00072	e8 00 00 00 00	 call	 ??2@YAPAXI@Z		; operator new
  00077	59		 pop	 ecx
  00078	8b c8		 mov	 ecx, eax
  0007a	89 4d 08	 mov	 DWORD PTR $T509977[ebp], ecx
  0007d	c7 45 fc 02 00
	00 00		 mov	 DWORD PTR __$EHRec$[ebp+8], 2
  00084	85 c9		 test	 ecx, ecx
  00086	0f 84 fc 01 00
	00		 je	 $LN22@CreateMiss
  0008c	e8 00 00 00 00	 call	 ??0ioPesoCollectMission@@QAE@XZ ; ioPesoCollectMission::ioPesoCollectMission
  00091	e9 f4 01 00 00	 jmp	 $LN18@CreateMiss
$LN14@CreateMiss:

; 96   : 	case MISSION_CLASS_MONSTER_KILL:
; 97   : 		return new ioMonsterKillMission;

  00096	6a 6c		 push	 108			; 0000006cH
  00098	e8 00 00 00 00	 call	 ??2@YAPAXI@Z		; operator new
  0009d	59		 pop	 ecx
  0009e	8b c8		 mov	 ecx, eax
  000a0	89 4d 08	 mov	 DWORD PTR $T509981[ebp], ecx
  000a3	c7 45 fc 03 00
	00 00		 mov	 DWORD PTR __$EHRec$[ebp+8], 3
  000aa	85 c9		 test	 ecx, ecx
  000ac	0f 84 d6 01 00
	00		 je	 $LN22@CreateMiss
  000b2	e8 00 00 00 00	 call	 ??0ioMonsterKillMission@@QAE@XZ ; ioMonsterKillMission::ioMonsterKillMission
  000b7	e9 ce 01 00 00	 jmp	 $LN18@CreateMiss
$LN13@CreateMiss:

; 98   : 	case MISSION_CLASS_ITEM_BUY:
; 99   : 		return new ioItemBuyMission;

  000bc	6a 6c		 push	 108			; 0000006cH
  000be	e8 00 00 00 00	 call	 ??2@YAPAXI@Z		; operator new
  000c3	59		 pop	 ecx
  000c4	8b c8		 mov	 ecx, eax
  000c6	89 4d 08	 mov	 DWORD PTR $T509985[ebp], ecx
  000c9	c7 45 fc 04 00
	00 00		 mov	 DWORD PTR __$EHRec$[ebp+8], 4
  000d0	85 c9		 test	 ecx, ecx
  000d2	0f 84 b0 01 00
	00		 je	 $LN22@CreateMiss
  000d8	e8 00 00 00 00	 call	 ??0ioItemBuyMission@@QAE@XZ ; ioItemBuyMission::ioItemBuyMission
  000dd	e9 a8 01 00 00	 jmp	 $LN18@CreateMiss
$LN12@CreateMiss:

; 100  : 	case MISSION_CLASS_CLOVER:
; 101  : 		return new ioCloverMission;

  000e2	6a 6c		 push	 108			; 0000006cH
  000e4	e8 00 00 00 00	 call	 ??2@YAPAXI@Z		; operator new
  000e9	59		 pop	 ecx
  000ea	8b c8		 mov	 ecx, eax
  000ec	89 4d 08	 mov	 DWORD PTR $T509989[ebp], ecx
  000ef	c7 45 fc 05 00
	00 00		 mov	 DWORD PTR __$EHRec$[ebp+8], 5
  000f6	85 c9		 test	 ecx, ecx
  000f8	0f 84 8a 01 00
	00		 je	 $LN22@CreateMiss
  000fe	e8 00 00 00 00	 call	 ??0ioCloverMission@@QAE@XZ ; ioCloverMission::ioCloverMission
  00103	e9 82 01 00 00	 jmp	 $LN18@CreateMiss
$LN11@CreateMiss:

; 102  : 	case MISSION_CLASS_EXCAVATION:
; 103  : 		return new ioExcavationMission;

  00108	6a 6c		 push	 108			; 0000006cH
  0010a	e8 00 00 00 00	 call	 ??2@YAPAXI@Z		; operator new
  0010f	59		 pop	 ecx
  00110	8b c8		 mov	 ecx, eax
  00112	89 4d 08	 mov	 DWORD PTR $T509993[ebp], ecx
  00115	c7 45 fc 06 00
	00 00		 mov	 DWORD PTR __$EHRec$[ebp+8], 6
  0011c	85 c9		 test	 ecx, ecx
  0011e	0f 84 64 01 00
	00		 je	 $LN22@CreateMiss
  00124	e8 00 00 00 00	 call	 ??0ioExcavationMission@@QAE@XZ ; ioExcavationMission::ioExcavationMission
  00129	e9 5c 01 00 00	 jmp	 $LN18@CreateMiss
$LN10@CreateMiss:

; 104  : 	case MISSION_CLASS_ITEM_USE:
; 105  : 		return new ioItemUseMission;

  0012e	6a 6c		 push	 108			; 0000006cH
  00130	e8 00 00 00 00	 call	 ??2@YAPAXI@Z		; operator new
  00135	59		 pop	 ecx
  00136	8b c8		 mov	 ecx, eax
  00138	89 4d 08	 mov	 DWORD PTR $T509997[ebp], ecx
  0013b	c7 45 fc 07 00
	00 00		 mov	 DWORD PTR __$EHRec$[ebp+8], 7
  00142	85 c9		 test	 ecx, ecx
  00144	0f 84 3e 01 00
	00		 je	 $LN22@CreateMiss
  0014a	e8 00 00 00 00	 call	 ??0ioItemUseMission@@QAE@XZ ; ioItemUseMission::ioItemUseMission
  0014f	e9 36 01 00 00	 jmp	 $LN18@CreateMiss
$LN9@CreateMiss:

; 106  : 	case MISSION_CLASS_ITEMREINFORCE:
; 107  : 		return new ioItemReinforceMission;

  00154	6a 6c		 push	 108			; 0000006cH
  00156	e8 00 00 00 00	 call	 ??2@YAPAXI@Z		; operator new
  0015b	59		 pop	 ecx
  0015c	8b c8		 mov	 ecx, eax
  0015e	89 4d 08	 mov	 DWORD PTR $T510001[ebp], ecx
  00161	c7 45 fc 08 00
	00 00		 mov	 DWORD PTR __$EHRec$[ebp+8], 8
  00168	85 c9		 test	 ecx, ecx
  0016a	0f 84 18 01 00
	00		 je	 $LN22@CreateMiss
  00170	e8 00 00 00 00	 call	 ??0ioItemReinforceMission@@QAE@XZ ; ioItemReinforceMission::ioItemReinforceMission
  00175	e9 10 01 00 00	 jmp	 $LN18@CreateMiss
$LN8@CreateMiss:

; 108  : 	case MISSION_CLASS_MODEPLAY:
; 109  : 		return new ioModePlayMission;

  0017a	6a 6c		 push	 108			; 0000006cH
  0017c	e8 00 00 00 00	 call	 ??2@YAPAXI@Z		; operator new
  00181	59		 pop	 ecx
  00182	8b c8		 mov	 ecx, eax
  00184	89 4d 08	 mov	 DWORD PTR $T510005[ebp], ecx
  00187	c7 45 fc 09 00
	00 00		 mov	 DWORD PTR __$EHRec$[ebp+8], 9
  0018e	85 c9		 test	 ecx, ecx
  00190	0f 84 f2 00 00
	00		 je	 $LN22@CreateMiss
  00196	e8 00 00 00 00	 call	 ??0ioModePlayMission@@QAE@XZ ; ioModePlayMission::ioModePlayMission
  0019b	e9 ea 00 00 00	 jmp	 $LN18@CreateMiss
$LN7@CreateMiss:

; 110  : 	case MISSION_CLASS_DAILY_COMPLETE:
; 111  : 		return new ioDailyCompleteMisson;

  001a0	6a 6c		 push	 108			; 0000006cH
  001a2	e8 00 00 00 00	 call	 ??2@YAPAXI@Z		; operator new
  001a7	59		 pop	 ecx
  001a8	8b c8		 mov	 ecx, eax
  001aa	89 4d 08	 mov	 DWORD PTR $T510009[ebp], ecx
  001ad	c7 45 fc 0a 00
	00 00		 mov	 DWORD PTR __$EHRec$[ebp+8], 10 ; 0000000aH
  001b4	85 c9		 test	 ecx, ecx
  001b6	0f 84 cc 00 00
	00		 je	 $LN22@CreateMiss
  001bc	e8 00 00 00 00	 call	 ??0ioDailyCompleteMisson@@QAE@XZ ; ioDailyCompleteMisson::ioDailyCompleteMisson
  001c1	e9 c4 00 00 00	 jmp	 $LN18@CreateMiss
$LN6@CreateMiss:

; 112  : 	case MISSION_CLASS_DAILY_ALL_CLEAR:
; 113  : 		return new ioDailyAllClearMisson;

  001c6	6a 6c		 push	 108			; 0000006cH
  001c8	e8 00 00 00 00	 call	 ??2@YAPAXI@Z		; operator new
  001cd	59		 pop	 ecx
  001ce	8b c8		 mov	 ecx, eax
  001d0	89 4d 08	 mov	 DWORD PTR $T510013[ebp], ecx
  001d3	c7 45 fc 0b 00
	00 00		 mov	 DWORD PTR __$EHRec$[ebp+8], 11 ; 0000000bH
  001da	85 c9		 test	 ecx, ecx
  001dc	0f 84 a6 00 00
	00		 je	 $LN22@CreateMiss
  001e2	e8 00 00 00 00	 call	 ??0ioDailyAllClearMisson@@QAE@XZ ; ioDailyAllClearMisson::ioDailyAllClearMisson
  001e7	e9 9e 00 00 00	 jmp	 $LN18@CreateMiss
$LN5@CreateMiss:

; 114  : 	case MISSION_CLASS_WEEKLY_COMPLETE:
; 115  : 		return new ioWeeklyCompleteMission;

  001ec	6a 6c		 push	 108			; 0000006cH
  001ee	e8 00 00 00 00	 call	 ??2@YAPAXI@Z		; operator new
  001f3	59		 pop	 ecx
  001f4	8b c8		 mov	 ecx, eax
  001f6	89 4d 08	 mov	 DWORD PTR $T510017[ebp], ecx
  001f9	c7 45 fc 0c 00
	00 00		 mov	 DWORD PTR __$EHRec$[ebp+8], 12 ; 0000000cH
  00200	85 c9		 test	 ecx, ecx
  00202	0f 84 80 00 00
	00		 je	 $LN22@CreateMiss
  00208	e8 00 00 00 00	 call	 ??0ioWeeklyCompleteMission@@QAE@XZ ; ioWeeklyCompleteMission::ioWeeklyCompleteMission
  0020d	eb 7b		 jmp	 SHORT $LN18@CreateMiss
$LN4@CreateMiss:

; 116  : 	case MISSION_CLASS_WEEKLY_ALL_CLEAR:
; 117  : 		return new ioWeeklyAllClearMission;

  0020f	6a 6c		 push	 108			; 0000006cH
  00211	e8 00 00 00 00	 call	 ??2@YAPAXI@Z		; operator new
  00216	59		 pop	 ecx
  00217	8b c8		 mov	 ecx, eax
  00219	89 4d 08	 mov	 DWORD PTR $T510021[ebp], ecx
  0021c	c7 45 fc 0d 00
	00 00		 mov	 DWORD PTR __$EHRec$[ebp+8], 13 ; 0000000dH
  00223	85 c9		 test	 ecx, ecx
  00225	74 61		 je	 SHORT $LN22@CreateMiss
  00227	e8 00 00 00 00	 call	 ??0ioWeeklyAllClearMission@@QAE@XZ ; ioWeeklyAllClearMission::ioWeeklyAllClearMission
  0022c	eb 5c		 jmp	 SHORT $LN18@CreateMiss
$LN3@CreateMiss:

; 118  : 	case MISSION_CLASS_MONTHLY_ALL_CLEAR:
; 119  : 		return new ioMonthlyAllClearMission;

  0022e	6a 6c		 push	 108			; 0000006cH
  00230	e8 00 00 00 00	 call	 ??2@YAPAXI@Z		; operator new
  00235	59		 pop	 ecx
  00236	8b c8		 mov	 ecx, eax
  00238	89 4d 08	 mov	 DWORD PTR $T510025[ebp], ecx
  0023b	c7 45 fc 0e 00
	00 00		 mov	 DWORD PTR __$EHRec$[ebp+8], 14 ; 0000000eH
  00242	85 c9		 test	 ecx, ecx
  00244	74 42		 je	 SHORT $LN22@CreateMiss
  00246	e8 00 00 00 00	 call	 ??0ioMonthlyAllClearMission@@QAE@XZ ; ioMonthlyAllClearMission::ioMonthlyAllClearMission
  0024b	eb 3d		 jmp	 SHORT $LN18@CreateMiss
$LN2@CreateMiss:

; 120  : 	case MISSION_CLASS_ADDITIVE_USE:
; 121  : 		return new ioAdditiveUseMission;

  0024d	6a 6c		 push	 108			; 0000006cH
  0024f	e8 00 00 00 00	 call	 ??2@YAPAXI@Z		; operator new
  00254	59		 pop	 ecx
  00255	8b c8		 mov	 ecx, eax
  00257	89 4d 08	 mov	 DWORD PTR $T510029[ebp], ecx
  0025a	c7 45 fc 0f 00
	00 00		 mov	 DWORD PTR __$EHRec$[ebp+8], 15 ; 0000000fH
  00261	85 c9		 test	 ecx, ecx
  00263	74 23		 je	 SHORT $LN22@CreateMiss
  00265	e8 00 00 00 00	 call	 ??0ioAdditiveUseMission@@QAE@XZ ; ioAdditiveUseMission::ioAdditiveUseMission
  0026a	eb 1e		 jmp	 SHORT $LN18@CreateMiss
$LN1@CreateMiss:

; 122  : 	default:
; 123  : 		{
; 124  : 			LOG.PrintTimeAndLog( 0, "%s UNKOWN Mission Type :%d", __FUNCTION__, iType );

  0026c	50		 push	 eax
  0026d	68 00 00 00 00	 push	 OFFSET ??_C@_0CA@DEJADGMA@ioMissionManager?3?3CreateMission?$AA@
  00272	68 00 00 00 00	 push	 OFFSET ??_C@_0BL@BDGCEAHJ@?$CFs?5UNKOWN?5Mission?5Type?5?3?$CFd?$AA@
  00277	6a 00		 push	 0
  00279	ff 35 00 00 00
	00		 push	 DWORD PTR __imp_?LOG@@3VCLog@@A
  0027f	ff 15 00 00 00
	00		 call	 DWORD PTR __imp_?PrintTimeAndLog@CLog@@QAAXHPADZZ
  00285	83 c4 14	 add	 esp, 20			; 00000014H
$LN22@CreateMiss:

; 125  : 			return NULL;

  00288	33 c0		 xor	 eax, eax
$LN18@CreateMiss:

; 126  : 		}
; 127  : 	}
; 128  : }

  0028a	e8 00 00 00 00	 call	 __EH_epilog3
  0028f	c2 04 00	 ret	 4
  00292	8b ff		 npad	 2
$LN71@CreateMiss:
  00294	00 00 00 00	 DD	 $LN17@CreateMiss
  00298	00 00 00 00	 DD	 $LN16@CreateMiss
  0029c	00 00 00 00	 DD	 $LN15@CreateMiss
  002a0	00 00 00 00	 DD	 $LN14@CreateMiss
  002a4	00 00 00 00	 DD	 $LN13@CreateMiss
  002a8	00 00 00 00	 DD	 $LN12@CreateMiss
  002ac	00 00 00 00	 DD	 $LN11@CreateMiss
  002b0	00 00 00 00	 DD	 $LN10@CreateMiss
  002b4	00 00 00 00	 DD	 $LN9@CreateMiss
  002b8	00 00 00 00	 DD	 $LN8@CreateMiss
  002bc	00 00 00 00	 DD	 $LN7@CreateMiss
  002c0	00 00 00 00	 DD	 $LN6@CreateMiss
  002c4	00 00 00 00	 DD	 $LN5@CreateMiss
  002c8	00 00 00 00	 DD	 $LN4@CreateMiss
  002cc	00 00 00 00	 DD	 $LN3@CreateMiss
  002d0	00 00 00 00	 DD	 $LN2@CreateMiss
_TEXT	ENDS
;	COMDAT text$x
text$x	SEGMENT
__unwindfunclet$?CreateMission@ioMissionManager@@IAEPAVioMission@@ABH@Z$0:
  00000	ff 75 08	 push	 DWORD PTR $T509969[ebp]
  00003	e8 00 00 00 00	 call	 ??3@YAXPAX@Z		; operator delete
  00008	59		 pop	 ecx
  00009	c3		 ret	 0
__unwindfunclet$?CreateMission@ioMissionManager@@IAEPAVioMission@@ABH@Z$1:
  0000a	ff 75 08	 push	 DWORD PTR $T509973[ebp]
  0000d	e8 00 00 00 00	 call	 ??3@YAXPAX@Z		; operator delete
  00012	59		 pop	 ecx
  00013	c3		 ret	 0
__unwindfunclet$?CreateMission@ioMissionManager@@IAEPAVioMission@@ABH@Z$2:
  00014	ff 75 08	 push	 DWORD PTR $T509977[ebp]
  00017	e8 00 00 00 00	 call	 ??3@YAXPAX@Z		; operator delete
  0001c	59		 pop	 ecx
  0001d	c3		 ret	 0
__unwindfunclet$?CreateMission@ioMissionManager@@IAEPAVioMission@@ABH@Z$3:
  0001e	ff 75 08	 push	 DWORD PTR $T509981[ebp]
  00021	e8 00 00 00 00	 call	 ??3@YAXPAX@Z		; operator delete
  00026	59		 pop	 ecx
  00027	c3		 ret	 0
__unwindfunclet$?CreateMission@ioMissionManager@@IAEPAVioMission@@ABH@Z$4:
  00028	ff 75 08	 push	 DWORD PTR $T509985[ebp]
  0002b	e8 00 00 00 00	 call	 ??3@YAXPAX@Z		; operator delete
  00030	59		 pop	 ecx
  00031	c3		 ret	 0
__unwindfunclet$?CreateMission@ioMissionManager@@IAEPAVioMission@@ABH@Z$5:
  00032	ff 75 08	 push	 DWORD PTR $T509989[ebp]
  00035	e8 00 00 00 00	 call	 ??3@YAXPAX@Z		; operator delete
  0003a	59		 pop	 ecx
  0003b	c3		 ret	 0
__unwindfunclet$?CreateMission@ioMissionManager@@IAEPAVioMission@@ABH@Z$6:
  0003c	ff 75 08	 push	 DWORD PTR $T509993[ebp]
  0003f	e8 00 00 00 00	 call	 ??3@YAXPAX@Z		; operator delete
  00044	59		 pop	 ecx
  00045	c3		 ret	 0
__unwindfunclet$?CreateMission@ioMissionManager@@IAEPAVioMission@@ABH@Z$7:
  00046	ff 75 08	 push	 DWORD PTR $T509997[ebp]
  00049	e8 00 00 00 00	 call	 ??3@YAXPAX@Z		; operator delete
  0004e	59		 pop	 ecx
  0004f	c3		 ret	 0
__unwindfunclet$?CreateMission@ioMissionManager@@IAEPAVioMission@@ABH@Z$8:
  00050	ff 75 08	 push	 DWORD PTR $T510001[ebp]
  00053	e8 00 00 00 00	 call	 ??3@YAXPAX@Z		; operator delete
  00058	59		 pop	 ecx
  00059	c3		 ret	 0
__unwindfunclet$?CreateMission@ioMissionManager@@IAEPAVioMission@@ABH@Z$9:
  0005a	ff 75 08	 push	 DWORD PTR $T510005[ebp]
  0005d	e8 00 00 00 00	 call	 ??3@YAXPAX@Z		; operator delete
  00062	59		 pop	 ecx
  00063	c3		 ret	 0
__unwindfunclet$?CreateMission@ioMissionManager@@IAEPAVioMission@@ABH@Z$10:
  00064	ff 75 08	 push	 DWORD PTR $T510009[ebp]
  00067	e8 00 00 00 00	 call	 ??3@YAXPAX@Z		; operator delete
  0006c	59		 pop	 ecx
  0006d	c3		 ret	 0
__unwindfunclet$?CreateMission@ioMissionManager@@IAEPAVioMission@@ABH@Z$11:
  0006e	ff 75 08	 push	 DWORD PTR $T510013[ebp]
  00071	e8 00 00 00 00	 call	 ??3@YAXPAX@Z		; operator delete
  00076	59		 pop	 ecx
  00077	c3		 ret	 0
__unwindfunclet$?CreateMission@ioMissionManager@@IAEPAVioMission@@ABH@Z$12:
  00078	ff 75 08	 push	 DWORD PTR $T510017[ebp]
  0007b	e8 00 00 00 00	 call	 ??3@YAXPAX@Z		; operator delete
  00080	59		 pop	 ecx
  00081	c3		 ret	 0
__unwindfunclet$?CreateMission@ioMissionManager@@IAEPAVioMission@@ABH@Z$13:
  00082	ff 75 08	 push	 DWORD PTR $T510021[ebp]
  00085	e8 00 00 00 00	 call	 ??3@YAXPAX@Z		; operator delete
  0008a	59		 pop	 ecx
  0008b	c3		 ret	 0
__unwindfunclet$?CreateMission@ioMissionManager@@IAEPAVioMission@@ABH@Z$14:
  0008c	ff 75 08	 push	 DWORD PTR $T510025[ebp]
  0008f	e8 00 00 00 00	 call	 ??3@YAXPAX@Z		; operator delete
  00094	59		 pop	 ecx
  00095	c3		 ret	 0
__unwindfunclet$?CreateMission@ioMissionManager@@IAEPAVioMission@@ABH@Z$15:
  00096	ff 75 08	 push	 DWORD PTR $T510029[ebp]
  00099	e8 00 00 00 00	 call	 ??3@YAXPAX@Z		; operator delete
  0009e	59		 pop	 ecx
  0009f	c3		 ret	 0
__ehhandler$?CreateMission@ioMissionManager@@IAEPAVioMission@@ABH@Z:
  000a0	8b 54 24 08	 mov	 edx, DWORD PTR [esp+8]
  000a4	8d 42 0c	 lea	 eax, DWORD PTR [edx+12]
  000a7	8b 4a f0	 mov	 ecx, DWORD PTR [edx-16]
  000aa	33 c8		 xor	 ecx, eax
  000ac	e8 00 00 00 00	 call	 @__security_check_cookie@4
  000b1	b8 00 00 00 00	 mov	 eax, OFFSET __ehfuncinfo$?CreateMission@ioMissionManager@@IAEPAVioMission@@ABH@Z
  000b6	e9 00 00 00 00	 jmp	 ___CxxFrameHandler3
text$x	ENDS
?CreateMission@ioMissionManager@@IAEPAVioMission@@ABH@Z ENDP ; ioMissionManager::CreateMission
PUBLIC	?MissionProcess@ioMissionManager@@QAEXABH@Z	; ioMissionManager::MissionProcess
; Function compile flags: /Ogsp
;	COMDAT ?MissionProcess@ioMissionManager@@QAEXABH@Z
_TEXT	SEGMENT
_CurModeType$ = 8					; size = 4
?MissionProcess@ioMissionManager@@QAEXABH@Z PROC	; ioMissionManager::MissionProcess, COMDAT
; _this$ = ecx

; 132  : 	if ( m_bChangeMission )

  00000	80 79 6c 00	 cmp	 BYTE PTR [ecx+108], 0
  00004	74 04		 je	 SHORT $LN1@MissionPro

; 133  : 		m_bChangeMission = false;

  00006	c6 41 6c 00	 mov	 BYTE PTR [ecx+108], 0
$LN1@MissionPro:

; 134  : 
; 135  : 	/*
; 136  : 	// 현재 프로세스를 사용하는 미션은 존재하지 않음. 
; 137  : 	// 추후 사용할 경우 추가.
; 138  : 	for( int iType=MDT_DAILY ; iType<MDT_MAX ; ++iType )
; 139  : 	{
; 140  : 		for ( vMissionList::iterator iter = m_CurDayMissionList[iType].begin() ; 
; 141  : 			iter != m_CurDayMissionList[iType].end() ; ++iter )
; 142  : 			if( (*iter)->Process() )
; 143  : 				ChangeMission();
; 144  : 	}
; 145  : 	*/
; 146  : 	
; 147  : 	// 미션 갱신시간을 클라가 요청하는 것이 아닌
; 148  : 	// 서버에서 자동으로 갱신시 응답받도록 수정.
; 149  : 	/*
; 150  : 	DWORD dwCurTime = FRAMEGETTIME();
; 151  : 	if ( m_dwProcessTime + m_dwProcessTicTime < dwCurTime )
; 152  : 	{
; 153  : 		m_dwProcessTime = dwCurTime;
; 154  : 
; 155  : 		//현재 로비가 아니거나 미션 UI가 없다면 Return
; 156  : 		if ( CurModeType != MT_MYROOM && !g_GUIMgr.IsShow( MISSION_QUEST_MAIN_WND ) )
; 157  : 			return;
; 158  : 
; 159  : 		SYSTEMTIME rkServerTime;
; 160  : 		g_MyInfo.GetServerTime( rkServerTime );
; 161  : 		CTime ServerTime( rkServerTime.wYear, rkServerTime.wMonth, rkServerTime.wDay, rkServerTime.wHour, rkServerTime.wMinute, rkServerTime.wSecond );
; 162  : 		//다음 갱신 시간 - 현재 시간 <=0 이면 갱신 요청
; 163  : 		CTimeSpan TimeGap = m_RequestDateTime - ServerTime;
; 164  : 		int iGapapap = TimeGap.GetTotalMinutes();
; 165  : 		if ( TimeGap.GetTotalMinutes() <= 0 )
; 166  : 		{
; 167  : 			SP2Packet kPacket( CTPK_MISSION_INFO );
; 168  : 			TCPNetwork::SendToServer( kPacket );
; 169  : 		}
; 170  : 	}
; 171  : 	*/
; 172  : }

  0000a	c2 04 00	 ret	 4
?MissionProcess@ioMissionManager@@QAEXABH@Z ENDP	; ioMissionManager::MissionProcess
_TEXT	ENDS
PUBLIC	??_C@_0FC@BEBHGMOB@MissionDataSort?3?3operator?5?3?5Exis@ ; `string'
PUBLIC	??RMissionDataSort@@QBE_NPBVioMission@@0@Z	; MissionDataSort::operator()
;	COMDAT ??_C@_0FC@BEBHGMOB@MissionDataSort?3?3operator?5?3?5Exis@
; File d:\lost saga for developer\youtube\tutorial\source\src\lsclient\iomission.h
CONST	SEGMENT
??_C@_0FC@BEBHGMOB@MissionDataSort?3?3operator?5?3?5Exis@ DB 'MissionData'
	DB	'Sort::operator : Exist Same MagicCode Left code : %d , Right '
	DB	'code : %d', 00H				; `string'
; Function compile flags: /Ogsp
; File d:\lost saga for developer\youtube\tutorial\source\src\lsclient\iomissionmanager.cpp
CONST	ENDS
;	COMDAT ??RMissionDataSort@@QBE_NPBVioMission@@0@Z
_TEXT	SEGMENT
_lhs$ = 8						; size = 4
_rhs$ = 12						; size = 4
??RMissionDataSort@@QBE_NPBVioMission@@0@Z PROC		; MissionDataSort::operator(), COMDAT
; _this$ = ecx

; 424  : {

  00000	55		 push	 ebp
  00001	8b ec		 mov	 ebp, esp
  00003	56		 push	 esi
  00004	57		 push	 edi

; 425  : 	if( !lhs || !rhs )

  00005	8b 7d 08	 mov	 edi, DWORD PTR _lhs$[ebp]
  00008	85 ff		 test	 edi, edi
  0000a	74 43		 je	 SHORT $LN8@operator
  0000c	8b 75 0c	 mov	 esi, DWORD PTR _rhs$[ebp]
  0000f	85 f6		 test	 esi, esi
  00011	74 3c		 je	 SHORT $LN8@operator

; 427  : 	if( lhs->GetMissionSortType() < rhs->GetMissionSortType() )

  00013	8b 47 64	 mov	 eax, DWORD PTR [edi+100]
  00016	8b 4e 64	 mov	 ecx, DWORD PTR [esi+100]
  00019	3b c1		 cmp	 eax, ecx
  0001b	7d 04		 jge	 SHORT $LN36@operator
$LN38@operator:

; 428  : 		return true;

  0001d	b0 01		 mov	 al, 1
  0001f	eb 30		 jmp	 SHORT $LN10@operator
$LN36@operator:

; 429  : 	else if( lhs->GetMissionSortType() == rhs->GetMissionSortType() )

  00021	75 2c		 jne	 SHORT $LN8@operator

; 430  : 	{
; 431  : 		if( lhs->GetMagicCode() < rhs->GetMagicCode() )

  00023	8b 47 08	 mov	 eax, DWORD PTR [edi+8]
  00026	8b 4e 08	 mov	 ecx, DWORD PTR [esi+8]
  00029	3b c1		 cmp	 eax, ecx

; 432  : 			return true;

  0002b	7c f0		 jl	 SHORT $LN38@operator

; 433  : 		else if( lhs->GetMagicCode() == rhs->GetMagicCode() )

  0002d	75 20		 jne	 SHORT $LN8@operator

; 434  : 		{
; 435  : 			LOG.PrintTimeAndLog( 0, "MissionDataSort::operator : Exist Same MagicCode Left code : %d , Right code : %d", lhs->GetMagicCode(), rhs->GetMagicCode() );

  0002f	51		 push	 ecx
  00030	50		 push	 eax
  00031	68 00 00 00 00	 push	 OFFSET ??_C@_0FC@BEBHGMOB@MissionDataSort?3?3operator?5?3?5Exis@
  00036	6a 00		 push	 0
  00038	ff 35 00 00 00
	00		 push	 DWORD PTR __imp_?LOG@@3VCLog@@A
  0003e	ff 15 00 00 00
	00		 call	 DWORD PTR __imp_?PrintTimeAndLog@CLog@@QAAXHPADZZ

; 436  : 			if( lhs->GetMissionType() < rhs->GetMissionType() )

  00044	8b 47 0c	 mov	 eax, DWORD PTR [edi+12]
  00047	83 c4 14	 add	 esp, 20			; 00000014H
  0004a	3b 46 0c	 cmp	 eax, DWORD PTR [esi+12]

; 437  : 				return true;

  0004d	7c ce		 jl	 SHORT $LN38@operator
$LN8@operator:

; 426  : 		return false;

  0004f	32 c0		 xor	 al, al
$LN10@operator:
  00051	5f		 pop	 edi
  00052	5e		 pop	 esi

; 438  : 		}
; 439  : 	}
; 440  : 	return false;
; 441  : }

  00053	5d		 pop	 ebp
  00054	c2 08 00	 ret	 8
??RMissionDataSort@@QBE_NPBVioMission@@0@Z ENDP		; MissionDataSort::operator()
_TEXT	ENDS
PUBLIC	??0?$Singleton@VioMissionManager@@@@QAE@XZ	; Singleton<ioMissionManager>::Singleton<ioMissionManager>
; Function compile flags: /Ogsp
; File d:\lost saga for developer\youtube\tutorial\source\src\io3dengine\iosingleton.h
;	COMDAT ??0?$Singleton@VioMissionManager@@@@QAE@XZ
_TEXT	SEGMENT
??0?$Singleton@VioMissionManager@@@@QAE@XZ PROC		; Singleton<ioMissionManager>::Singleton<ioMissionManager>, COMDAT
; _this$ = ecx

; 27   : 	Singleton()

  00000	8b c1		 mov	 eax, ecx

; 28   : 	{
; 29   : 		assert( !ms_Singleton );
; 30   : 		int offset = (int)(T*)1 - (int)(Singleton <T>*)(T*)1;
; 31   : 		ms_Singleton = (T*)((int)this + offset);

  00002	8d 48 fc	 lea	 ecx, DWORD PTR [eax-4]
  00005	89 0d 00 00 00
	00		 mov	 DWORD PTR ?ms_Singleton@?$Singleton@VioMissionManager@@@@1PAVioMissionManager@@A, ecx ; Singleton<ioMissionManager>::ms_Singleton

; 32   : 	}

  0000b	c3		 ret	 0
??0?$Singleton@VioMissionManager@@@@QAE@XZ ENDP		; Singleton<ioMissionManager>::Singleton<ioMissionManager>
_TEXT	ENDS
PUBLIC	??1?$Singleton@VioMissionManager@@@@QAE@XZ	; Singleton<ioMissionManager>::~Singleton<ioMissionManager>
; Function compile flags: /Ogsp
;	COMDAT ??1?$Singleton@VioMissionManager@@@@QAE@XZ
_TEXT	SEGMENT
??1?$Singleton@VioMissionManager@@@@QAE@XZ PROC		; Singleton<ioMissionManager>::~Singleton<ioMissionManager>, COMDAT
; _this$ = ecx

; 36   : 		assert( ms_Singleton );
; 37   : 		ms_Singleton = 0;

  00000	83 25 00 00 00
	00 00		 and	 DWORD PTR ?ms_Singleton@?$Singleton@VioMissionManager@@@@1PAVioMissionManager@@A, 0 ; Singleton<ioMissionManager>::ms_Singleton

; 38   : 	}

  00007	c3		 ret	 0
??1?$Singleton@VioMissionManager@@@@QAE@XZ ENDP		; Singleton<ioMissionManager>::~Singleton<ioMissionManager>
_TEXT	ENDS
PUBLIC	?GetSingleton@?$Singleton@VioMissionManager@@@@SAAAVioMissionManager@@XZ ; Singleton<ioMissionManager>::GetSingleton
; Function compile flags: /Ogsp
;	COMDAT ?GetSingleton@?$Singleton@VioMissionManager@@@@SAAAVioMissionManager@@XZ
_TEXT	SEGMENT
?GetSingleton@?$Singleton@VioMissionManager@@@@SAAAVioMissionManager@@XZ PROC ; Singleton<ioMissionManager>::GetSingleton, COMDAT

; 42   : 		assert( ms_Singleton );
; 43   : 		return (*ms_Singleton);

  00000	a1 00 00 00 00	 mov	 eax, DWORD PTR ?ms_Singleton@?$Singleton@VioMissionManager@@@@1PAVioMissionManager@@A ; Singleton<ioMissionManager>::ms_Singleton

; 44   : 	}

  00005	c3		 ret	 0
?GetSingleton@?$Singleton@VioMissionManager@@@@SAAAVioMissionManager@@XZ ENDP ; Singleton<ioMissionManager>::GetSingleton
_TEXT	ENDS
PUBLIC	?_Adopt@_Iterator_base0@std@@QAEXPBX@Z		; std::_Iterator_base0::_Adopt
; Function compile flags: /Ogsp
; File c:\program files (x86)\microsoft visual studio 10.0\vc\include\xutility
;	COMDAT ?_Adopt@_Iterator_base0@std@@QAEXPBX@Z
_TEXT	SEGMENT
___formal$ = 8						; size = 4
?_Adopt@_Iterator_base0@std@@QAEXPBX@Z PROC		; std::_Iterator_base0::_Adopt, COMDAT
; _this$ = ecx

; 49   : 		}

  00000	c2 04 00	 ret	 4
?_Adopt@_Iterator_base0@std@@QAEXPBX@Z ENDP		; std::_Iterator_base0::_Adopt
_TEXT	ENDS
PUBLIC	?size@?$vector@PAVioMission@@V?$allocator@PAVioMission@@@std@@@std@@QBEIXZ ; std::vector<ioMission *,std::allocator<ioMission *> >::size
; Function compile flags: /Ogsp
; File c:\program files (x86)\microsoft visual studio 10.0\vc\include\vector
;	COMDAT ?size@?$vector@PAVioMission@@V?$allocator@PAVioMission@@@std@@@std@@QBEIXZ
_TEXT	SEGMENT
?size@?$vector@PAVioMission@@V?$allocator@PAVioMission@@@std@@@std@@QBEIXZ PROC ; std::vector<ioMission *,std::allocator<ioMission *> >::size, COMDAT
; _this$ = ecx

; 879  : 		return (this->_Mylast - this->_Myfirst);

  00000	8b 41 04	 mov	 eax, DWORD PTR [ecx+4]
  00003	2b 01		 sub	 eax, DWORD PTR [ecx]
  00005	c1 f8 02	 sar	 eax, 2

; 880  : 		}

  00008	c3		 ret	 0
?size@?$vector@PAVioMission@@V?$allocator@PAVioMission@@@std@@@std@@QBEIXZ ENDP ; std::vector<ioMission *,std::allocator<ioMission *> >::size
_TEXT	ENDS
PUBLIC	??A?$vector@PAVioMission@@V?$allocator@PAVioMission@@@std@@@std@@QBEABQAVioMission@@I@Z ; std::vector<ioMission *,std::allocator<ioMission *> >::operator[]
; Function compile flags: /Ogsp
;	COMDAT ??A?$vector@PAVioMission@@V?$allocator@PAVioMission@@@std@@@std@@QBEABQAVioMission@@I@Z
_TEXT	SEGMENT
__Pos$ = 8						; size = 4
??A?$vector@PAVioMission@@V?$allocator@PAVioMission@@@std@@@std@@QBEABQAVioMission@@I@Z PROC ; std::vector<ioMission *,std::allocator<ioMission *> >::operator[], COMDAT
; _this$ = ecx

; 912  : 		{	// subscript nonmutable sequence

  00000	55		 push	 ebp
  00001	8b ec		 mov	 ebp, esp

; 913  :  #if _ITERATOR_DEBUG_LEVEL == 2
; 914  : 		if (size() <= _Pos)
; 915  : 			{	// report error
; 916  : 			_DEBUG_ERROR("vector subscript out of range");
; 917  : 			_SCL_SECURE_OUT_OF_RANGE;
; 918  : 			}
; 919  : 
; 920  :  #elif _ITERATOR_DEBUG_LEVEL == 1
; 921  : 		_SCL_SECURE_VALIDATE_RANGE(_Pos < size());
; 922  :  #endif /* _ITERATOR_DEBUG_LEVEL */
; 923  : 
; 924  : 		return (*(this->_Myfirst + _Pos));

  00003	8b 01		 mov	 eax, DWORD PTR [ecx]
  00005	8b 4d 08	 mov	 ecx, DWORD PTR __Pos$[ebp]
  00008	8d 04 88	 lea	 eax, DWORD PTR [eax+ecx*4]

; 925  : 		}

  0000b	5d		 pop	 ebp
  0000c	c2 04 00	 ret	 4
??A?$vector@PAVioMission@@V?$allocator@PAVioMission@@@std@@@std@@QBEABQAVioMission@@I@Z ENDP ; std::vector<ioMission *,std::allocator<ioMission *> >::operator[]
_TEXT	ENDS
PUBLIC	??A?$vector@PAVioMission@@V?$allocator@PAVioMission@@@std@@@std@@QAEAAPAVioMission@@I@Z ; std::vector<ioMission *,std::allocator<ioMission *> >::operator[]
; Function compile flags: /Ogsp
;	COMDAT ??A?$vector@PAVioMission@@V?$allocator@PAVioMission@@@std@@@std@@QAEAAPAVioMission@@I@Z
_TEXT	SEGMENT
__Pos$ = 8						; size = 4
??A?$vector@PAVioMission@@V?$allocator@PAVioMission@@@std@@@std@@QAEAAPAVioMission@@I@Z PROC ; std::vector<ioMission *,std::allocator<ioMission *> >::operator[], COMDAT
; _this$ = ecx

; 928  : 		{	// subscript mutable sequence

  00000	55		 push	 ebp
  00001	8b ec		 mov	 ebp, esp

; 929  :  #if _ITERATOR_DEBUG_LEVEL == 2
; 930  : 		if (size() <= _Pos)
; 931  : 			{	// report error
; 932  : 			_DEBUG_ERROR("vector subscript out of range");
; 933  : 			_SCL_SECURE_OUT_OF_RANGE;
; 934  : 			}
; 935  : 
; 936  :  #elif _ITERATOR_DEBUG_LEVEL == 1
; 937  : 		_SCL_SECURE_VALIDATE_RANGE(_Pos < size());
; 938  :  #endif /* _ITERATOR_DEBUG_LEVEL */
; 939  : 
; 940  : 		return (*(this->_Myfirst + _Pos));

  00003	8b 01		 mov	 eax, DWORD PTR [ecx]
  00005	8b 4d 08	 mov	 ecx, DWORD PTR __Pos$[ebp]
  00008	8d 04 88	 lea	 eax, DWORD PTR [eax+ecx*4]

; 941  : 		}

  0000b	5d		 pop	 ebp
  0000c	c2 04 00	 ret	 4
??A?$vector@PAVioMission@@V?$allocator@PAVioMission@@@std@@@std@@QAEAAPAVioMission@@I@Z ENDP ; std::vector<ioMission *,std::allocator<ioMission *> >::operator[]
_TEXT	ENDS
PUBLIC	?_Inside@?$vector@PAVioMission@@V?$allocator@PAVioMission@@@std@@@std@@IBE_NPBQAVioMission@@@Z ; std::vector<ioMission *,std::allocator<ioMission *> >::_Inside
; Function compile flags: /Ogsp
;	COMDAT ?_Inside@?$vector@PAVioMission@@V?$allocator@PAVioMission@@@std@@@std@@IBE_NPBQAVioMission@@@Z
_TEXT	SEGMENT
__Ptr$ = 8						; size = 4
?_Inside@?$vector@PAVioMission@@V?$allocator@PAVioMission@@@std@@@std@@IBE_NPBQAVioMission@@@Z PROC ; std::vector<ioMission *,std::allocator<ioMission *> >::_Inside, COMDAT
; _this$ = ecx

; 1285 : 		{	// test if _Ptr points inside vector

  00000	55		 push	 ebp
  00001	8b ec		 mov	 ebp, esp

; 1286 : 		return (_Ptr < this->_Mylast && this->_Myfirst <= _Ptr);

  00003	8b 45 08	 mov	 eax, DWORD PTR __Ptr$[ebp]
  00006	3b 41 04	 cmp	 eax, DWORD PTR [ecx+4]
  00009	73 09		 jae	 SHORT $LN3@Inside
  0000b	39 01		 cmp	 DWORD PTR [ecx], eax
  0000d	77 05		 ja	 SHORT $LN3@Inside
  0000f	33 c0		 xor	 eax, eax
  00011	40		 inc	 eax
  00012	eb 02		 jmp	 SHORT $LN4@Inside
$LN3@Inside:
  00014	33 c0		 xor	 eax, eax
$LN4@Inside:

; 1287 : 		}

  00016	5d		 pop	 ebp
  00017	c2 04 00	 ret	 4
?_Inside@?$vector@PAVioMission@@V?$allocator@PAVioMission@@@std@@@std@@IBE_NPBQAVioMission@@@Z ENDP ; std::vector<ioMission *,std::allocator<ioMission *> >::_Inside
_TEXT	ENDS
PUBLIC	?_Orphan_range@?$vector@PAVioMission@@V?$allocator@PAVioMission@@@std@@@std@@IBEXPAPAVioMission@@0@Z ; std::vector<ioMission *,std::allocator<ioMission *> >::_Orphan_range
; Function compile flags: /Ogsp
;	COMDAT ?_Orphan_range@?$vector@PAVioMission@@V?$allocator@PAVioMission@@@std@@@std@@IBEXPAPAVioMission@@0@Z
_TEXT	SEGMENT
___formal$ = 8						; size = 4
___formal$ = 12						; size = 4
?_Orphan_range@?$vector@PAVioMission@@V?$allocator@PAVioMission@@@std@@@std@@IBEXPAPAVioMission@@0@Z PROC ; std::vector<ioMission *,std::allocator<ioMission *> >::_Orphan_range, COMDAT
; _this$ = ecx

; 1454 : 		}

  00000	c2 08 00	 ret	 8
?_Orphan_range@?$vector@PAVioMission@@V?$allocator@PAVioMission@@@std@@@std@@IBEXPAPAVioMission@@0@Z ENDP ; std::vector<ioMission *,std::allocator<ioMission *> >::_Orphan_range
_TEXT	ENDS
PUBLIC	??1?$_Vector_val@PAVioMission@@V?$allocator@PAVioMission@@@std@@@std@@QAE@XZ ; std::_Vector_val<ioMission *,std::allocator<ioMission *> >::~_Vector_val<ioMission *,std::allocator<ioMission *> >
; Function compile flags: /Ogsp
;	COMDAT ??1?$_Vector_val@PAVioMission@@V?$allocator@PAVioMission@@@std@@@std@@QAE@XZ
_TEXT	SEGMENT
??1?$_Vector_val@PAVioMission@@V?$allocator@PAVioMission@@@std@@@std@@QAE@XZ PROC ; std::_Vector_val<ioMission *,std::allocator<ioMission *> >::~_Vector_val<ioMission *,std::allocator<ioMission *> >, COMDAT
; _this$ = ecx

; 434  : 		}

  00000	c3		 ret	 0
??1?$_Vector_val@PAVioMission@@V?$allocator@PAVioMission@@@std@@@std@@QAE@XZ ENDP ; std::_Vector_val<ioMission *,std::allocator<ioMission *> >::~_Vector_val<ioMission *,std::allocator<ioMission *> >
_TEXT	ENDS
PUBLIC	??0?$allocator@PAVioMission@@@std@@QAE@XZ	; std::allocator<ioMission *>::allocator<ioMission *>
; Function compile flags: /Ogsp
; File c:\program files (x86)\microsoft visual studio 10.0\vc\include\xmemory
;	COMDAT ??0?$allocator@PAVioMission@@@std@@QAE@XZ
_TEXT	SEGMENT
??0?$allocator@PAVioMission@@@std@@QAE@XZ PROC		; std::allocator<ioMission *>::allocator<ioMission *>, COMDAT
; _this$ = ecx

; 161  : 	_ALLOCATOR() _THROW0()

  00000	8b c1		 mov	 eax, ecx

; 162  : 		{	// construct default allocator (do nothing)
; 163  : 		}

  00002	c3		 ret	 0
??0?$allocator@PAVioMission@@@std@@QAE@XZ ENDP		; std::allocator<ioMission *>::allocator<ioMission *>
_TEXT	ENDS
PUBLIC	?capacity@?$vector@PAVioMission@@V?$allocator@PAVioMission@@@std@@@std@@QBEIXZ ; std::vector<ioMission *,std::allocator<ioMission *> >::capacity
; Function compile flags: /Ogsp
; File c:\program files (x86)\microsoft visual studio 10.0\vc\include\vector
;	COMDAT ?capacity@?$vector@PAVioMission@@V?$allocator@PAVioMission@@@std@@@std@@QBEIXZ
_TEXT	SEGMENT
?capacity@?$vector@PAVioMission@@V?$allocator@PAVioMission@@@std@@@std@@QBEIXZ PROC ; std::vector<ioMission *,std::allocator<ioMission *> >::capacity, COMDAT
; _this$ = ecx

; 777  : 		return (this->_Myend - this->_Myfirst);

  00000	8b 41 08	 mov	 eax, DWORD PTR [ecx+8]
  00003	2b 01		 sub	 eax, DWORD PTR [ecx]
  00005	c1 f8 02	 sar	 eax, 2

; 778  : 		}

  00008	c3		 ret	 0
?capacity@?$vector@PAVioMission@@V?$allocator@PAVioMission@@@std@@@std@@QBEIXZ ENDP ; std::vector<ioMission *,std::allocator<ioMission *> >::capacity
_TEXT	ENDS
PUBLIC	??_C@_0BD@OLBABOEK@vector?$DMT?$DO?5too?5long?$AA@ ; `string'
PUBLIC	?_Xlen@?$vector@PAVioMission@@V?$allocator@PAVioMission@@@std@@@std@@IBEXXZ ; std::vector<ioMission *,std::allocator<ioMission *> >::_Xlen
EXTRN	__imp_?_Xlength_error@std@@YAXPBD@Z:PROC
;	COMDAT ??_C@_0BD@OLBABOEK@vector?$DMT?$DO?5too?5long?$AA@
CONST	SEGMENT
??_C@_0BD@OLBABOEK@vector?$DMT?$DO?5too?5long?$AA@ DB 'vector<T> too long'
	DB	00H						; `string'
; Function compile flags: /Ogsp
CONST	ENDS
;	COMDAT ?_Xlen@?$vector@PAVioMission@@V?$allocator@PAVioMission@@@std@@@std@@IBEXXZ
_TEXT	SEGMENT
?_Xlen@?$vector@PAVioMission@@V?$allocator@PAVioMission@@@std@@@std@@IBEXXZ PROC ; std::vector<ioMission *,std::allocator<ioMission *> >::_Xlen, COMDAT
; _this$ = ecx

; 1427 : 		_Xlength_error("vector<T> too long");

  00000	68 00 00 00 00	 push	 OFFSET ??_C@_0BD@OLBABOEK@vector?$DMT?$DO?5too?5long?$AA@
  00005	ff 15 00 00 00
	00		 call	 DWORD PTR __imp_?_Xlength_error@std@@YAXPBD@Z
$LN4@Xlen:
$LN3@Xlen:
  0000b	cc		 int	 3
?_Xlen@?$vector@PAVioMission@@V?$allocator@PAVioMission@@@std@@@std@@IBEXXZ ENDP ; std::vector<ioMission *,std::allocator<ioMission *> >::_Xlen
_TEXT	ENDS
PUBLIC	??0?$allocator@PAVioMission@@@std@@QAE@ABV01@@Z	; std::allocator<ioMission *>::allocator<ioMission *>
; Function compile flags: /Ogsp
; File c:\program files (x86)\microsoft visual studio 10.0\vc\include\xmemory
;	COMDAT ??0?$allocator@PAVioMission@@@std@@QAE@ABV01@@Z
_TEXT	SEGMENT
___formal$ = 8						; size = 4
??0?$allocator@PAVioMission@@@std@@QAE@ABV01@@Z PROC	; std::allocator<ioMission *>::allocator<ioMission *>, COMDAT
; _this$ = ecx

; 165  : 	_ALLOCATOR(const _ALLOCATOR<_Ty>&) _THROW0()

  00000	8b c1		 mov	 eax, ecx

; 166  : 		{	// construct by copying (do nothing)
; 167  : 		}

  00002	c2 04 00	 ret	 4
??0?$allocator@PAVioMission@@@std@@QAE@ABV01@@Z ENDP	; std::allocator<ioMission *>::allocator<ioMission *>
_TEXT	ENDS
PUBLIC	?deallocate@?$allocator@PAVioMission@@@std@@QAEXPAPAVioMission@@I@Z ; std::allocator<ioMission *>::deallocate
; Function compile flags: /Ogsp
;	COMDAT ?deallocate@?$allocator@PAVioMission@@@std@@QAEXPAPAVioMission@@I@Z
_TEXT	SEGMENT
__Ptr$ = 8						; size = 4
___formal$ = 12						; size = 4
?deallocate@?$allocator@PAVioMission@@@std@@QAEXPAPAVioMission@@I@Z PROC ; std::allocator<ioMission *>::deallocate, COMDAT
; _this$ = ecx

; 181  : 		{	// deallocate object at _Ptr, ignore size

  00000	55		 push	 ebp
  00001	8b ec		 mov	 ebp, esp

; 182  : 		::operator delete(_Ptr);

  00003	ff 75 08	 push	 DWORD PTR __Ptr$[ebp]
  00006	e8 00 00 00 00	 call	 ??3@YAXPAX@Z		; operator delete
  0000b	59		 pop	 ecx

; 183  : 		}

  0000c	5d		 pop	 ebp
  0000d	c2 08 00	 ret	 8
?deallocate@?$allocator@PAVioMission@@@std@@QAEXPAPAVioMission@@I@Z ENDP ; std::allocator<ioMission *>::deallocate
_TEXT	ENDS
PUBLIC	??0?$_Vector_const_iterator@V?$_Vector_val@PAVioMission@@V?$allocator@PAVioMission@@@std@@@std@@@std@@QAE@PAPAVioMission@@PBU_Container_base0@1@@Z ; std::_Vector_const_iterator<std::_Vector_val<ioMission *,std::allocator<ioMission *> > >::_Vector_const_iterator<std::_Vector_val<ioMission *,std::allocator<ioMission *> > >
; Function compile flags: /Ogsp
; File c:\program files (x86)\microsoft visual studio 10.0\vc\include\vector
;	COMDAT ??0?$_Vector_const_iterator@V?$_Vector_val@PAVioMission@@V?$allocator@PAVioMission@@@std@@@std@@@std@@QAE@PAPAVioMission@@PBU_Container_base0@1@@Z
_TEXT	SEGMENT
__Parg$ = 8						; size = 4
__Pvector$ = 12						; size = 4
??0?$_Vector_const_iterator@V?$_Vector_val@PAVioMission@@V?$allocator@PAVioMission@@@std@@@std@@@std@@QAE@PAPAVioMission@@PBU_Container_base0@1@@Z PROC ; std::_Vector_const_iterator<std::_Vector_val<ioMission *,std::allocator<ioMission *> > >::_Vector_const_iterator<std::_Vector_val<ioMission *,std::allocator<ioMission *> > >, COMDAT
; _this$ = ecx

; 45   : 		{	// construct with pointer _Parg

  00000	55		 push	 ebp
  00001	8b ec		 mov	 ebp, esp
  00003	8b c1		 mov	 eax, ecx
  00005	8b 4d 08	 mov	 ecx, DWORD PTR __Parg$[ebp]
  00008	89 08		 mov	 DWORD PTR [eax], ecx

; 46   : 		this->_Adopt(_Pvector);
; 47   : 		}

  0000a	5d		 pop	 ebp
  0000b	c2 08 00	 ret	 8
??0?$_Vector_const_iterator@V?$_Vector_val@PAVioMission@@V?$allocator@PAVioMission@@@std@@@std@@@std@@QAE@PAPAVioMission@@PBU_Container_base0@1@@Z ENDP ; std::_Vector_const_iterator<std::_Vector_val<ioMission *,std::allocator<ioMission *> > >::_Vector_const_iterator<std::_Vector_val<ioMission *,std::allocator<ioMission *> > >
_TEXT	ENDS
PUBLIC	?max_size@?$allocator@PAVioMission@@@std@@QBEIXZ ; std::allocator<ioMission *>::max_size
; Function compile flags: /Ogsp
; File c:\program files (x86)\microsoft visual studio 10.0\vc\include\xmemory
;	COMDAT ?max_size@?$allocator@PAVioMission@@@std@@QBEIXZ
_TEXT	SEGMENT
?max_size@?$allocator@PAVioMission@@@std@@QBEIXZ PROC	; std::allocator<ioMission *>::max_size, COMDAT
; _this$ = ecx

; 218  : 		_SIZT _Count = (_SIZT)(-1) / sizeof (_Ty);
; 219  : 		return (0 < _Count ? _Count : 1);

  00000	b8 ff ff ff 3f	 mov	 eax, 1073741823		; 3fffffffH

; 220  : 		}

  00005	c3		 ret	 0
?max_size@?$allocator@PAVioMission@@@std@@QBEIXZ ENDP	; std::allocator<ioMission *>::max_size
_TEXT	ENDS
PUBLIC	?_Compat@?$_Vector_const_iterator@V?$_Vector_val@PAVioMission@@V?$allocator@PAVioMission@@@std@@@std@@@std@@QBEXABV12@@Z ; std::_Vector_const_iterator<std::_Vector_val<ioMission *,std::allocator<ioMission *> > >::_Compat
; Function compile flags: /Ogsp
; File c:\program files (x86)\microsoft visual studio 10.0\vc\include\vector
;	COMDAT ?_Compat@?$_Vector_const_iterator@V?$_Vector_val@PAVioMission@@V?$allocator@PAVioMission@@@std@@@std@@@std@@QBEXABV12@@Z
_TEXT	SEGMENT
___formal$ = 8						; size = 4
?_Compat@?$_Vector_const_iterator@V?$_Vector_val@PAVioMission@@V?$allocator@PAVioMission@@@std@@@std@@@std@@QBEXABV12@@Z PROC ; std::_Vector_const_iterator<std::_Vector_val<ioMission *,std::allocator<ioMission *> > >::_Compat, COMDAT
; _this$ = ecx

; 253  : 		}

  00000	c2 04 00	 ret	 4
?_Compat@?$_Vector_const_iterator@V?$_Vector_val@PAVioMission@@V?$allocator@PAVioMission@@@std@@@std@@@std@@QBEXABV12@@Z ENDP ; std::_Vector_const_iterator<std::_Vector_val<ioMission *,std::allocator<ioMission *> > >::_Compat
_TEXT	ENDS
PUBLIC	??$sprintf_s@$0BAE@@@YAHAAY0BAE@DPBDZZ		; sprintf_s<260>
EXTRN	__imp__vsprintf_s:PROC
; Function compile flags: /Ogsp
; File c:\program files (x86)\microsoft visual studio 10.0\vc\include\stdio.h
;	COMDAT ??$sprintf_s@$0BAE@@@YAHAAY0BAE@DPBDZZ
_TEXT	SEGMENT
__Dest$ = 8						; size = 4
__Format$ = 12						; size = 4
??$sprintf_s@$0BAE@@@YAHAAY0BAE@DPBDZZ PROC		; sprintf_s<260>, COMDAT

; 323  : __DEFINE_CPP_OVERLOAD_SECURE_FUNC_0_1_ARGLIST(int, sprintf_s, vsprintf_s, _Deref_post_z_ char, _Dest, _In_z_ _Printf_format_string_ const char *, _Format)

  00000	55		 push	 ebp
  00001	8b ec		 mov	 ebp, esp
  00003	8d 45 10	 lea	 eax, DWORD PTR __Format$[ebp+4]
  00006	50		 push	 eax
  00007	ff 75 0c	 push	 DWORD PTR __Format$[ebp]
  0000a	68 04 01 00 00	 push	 260			; 00000104H
  0000f	ff 75 08	 push	 DWORD PTR __Dest$[ebp]
  00012	ff 15 00 00 00
	00		 call	 DWORD PTR __imp__vsprintf_s
  00018	83 c4 10	 add	 esp, 16			; 00000010H
  0001b	5d		 pop	 ebp
  0001c	c3		 ret	 0
??$sprintf_s@$0BAE@@@YAHAAY0BAE@DPBDZZ ENDP		; sprintf_s<260>
_TEXT	ENDS
PUBLIC	??$addressof@QAVioMission@@@std@@YAPBQAVioMission@@ABQAV1@@Z ; std::addressof<ioMission * const>
; Function compile flags: /Ogsp
; File c:\program files (x86)\microsoft visual studio 10.0\vc\include\xmemory
;	COMDAT ??$addressof@QAVioMission@@@std@@YAPBQAVioMission@@ABQAV1@@Z
_TEXT	SEGMENT
__Val$ = 8						; size = 4
??$addressof@QAVioMission@@@std@@YAPBQAVioMission@@ABQAV1@@Z PROC ; std::addressof<ioMission * const>, COMDAT

; 110  : 	{	// return address of _Val

  00000	55		 push	 ebp
  00001	8b ec		 mov	 ebp, esp

; 111  : 	return ((_Ty *) &(char&)_Val);

  00003	8b 45 08	 mov	 eax, DWORD PTR __Val$[ebp]

; 112  : 	}

  00006	5d		 pop	 ebp
  00007	c3		 ret	 0
??$addressof@QAVioMission@@@std@@YAPBQAVioMission@@ABQAV1@@Z ENDP ; std::addressof<ioMission * const>
_TEXT	ENDS
PUBLIC	__TI2?AVbad_alloc@std@@
PUBLIC	??$_Allocate@PAVioMission@@@std@@YAPAPAVioMission@@IPAPAV1@@Z ; std::_Allocate<ioMission *>
PUBLIC	__CTA2?AVbad_alloc@std@@
PUBLIC	__CT??_R0?AVbad_alloc@std@@@8??0bad_alloc@std@@QAE@ABV01@@Z12
PUBLIC	??0bad_alloc@std@@QAE@ABV01@@Z			; std::bad_alloc::bad_alloc
PUBLIC	__CT??_R0?AVexception@std@@@8??0exception@std@@QAE@ABV01@@Z12
EXTRN	__CxxThrowException@8:PROC
EXTRN	??0exception@std@@QAE@ABV01@@Z:PROC		; std::exception::exception
;	COMDAT __CT??_R0?AVexception@std@@@8??0exception@std@@QAE@ABV01@@Z12
; File c:\program files (x86)\microsoft visual studio 10.0\vc\include\exception
xdata$x	SEGMENT
__CT??_R0?AVexception@std@@@8??0exception@std@@QAE@ABV01@@Z12 DD 00H
	DD	FLAT:??_R0?AVexception@std@@@8
	DD	00H
	DD	0ffffffffH
	ORG $+4
	DD	0cH
	DD	FLAT:??0exception@std@@QAE@ABV01@@Z
xdata$x	ENDS
;	COMDAT __CT??_R0?AVbad_alloc@std@@@8??0bad_alloc@std@@QAE@ABV01@@Z12
xdata$x	SEGMENT
__CT??_R0?AVbad_alloc@std@@@8??0bad_alloc@std@@QAE@ABV01@@Z12 DD 00H
	DD	FLAT:??_R0?AVbad_alloc@std@@@8
	DD	00H
	DD	0ffffffffH
	ORG $+4
	DD	0cH
	DD	FLAT:??0bad_alloc@std@@QAE@ABV01@@Z
xdata$x	ENDS
;	COMDAT __CTA2?AVbad_alloc@std@@
xdata$x	SEGMENT
__CTA2?AVbad_alloc@std@@ DD 02H
	DD	FLAT:__CT??_R0?AVbad_alloc@std@@@8??0bad_alloc@std@@QAE@ABV01@@Z12
	DD	FLAT:__CT??_R0?AVexception@std@@@8??0exception@std@@QAE@ABV01@@Z12
xdata$x	ENDS
;	COMDAT __TI2?AVbad_alloc@std@@
xdata$x	SEGMENT
__TI2?AVbad_alloc@std@@ DD 00H
	DD	FLAT:??1bad_alloc@std@@UAE@XZ
	DD	00H
	DD	FLAT:__CTA2?AVbad_alloc@std@@
; Function compile flags: /Ogsp
; File c:\program files (x86)\microsoft visual studio 10.0\vc\include\xmemory
xdata$x	ENDS
;	COMDAT ??$_Allocate@PAVioMission@@@std@@YAPAPAVioMission@@IPAPAV1@@Z
_TEXT	SEGMENT
$T510171 = -12						; size = 12
$T510176 = 8						; size = 4
__Count$ = 8						; size = 4
___formal$ = 12						; size = 4
??$_Allocate@PAVioMission@@@std@@YAPAPAVioMission@@IPAPAV1@@Z PROC ; std::_Allocate<ioMission *>, COMDAT

; 30   : 	{	// allocate storage for _Count elements of type _Ty

  00000	55		 push	 ebp
  00001	8b ec		 mov	 ebp, esp

; 31   : 	void *_Ptr = 0;
; 32   : 
; 33   : 	if (_Count <= 0)

  00003	8b 4d 08	 mov	 ecx, DWORD PTR __Count$[ebp]
  00006	83 ec 0c	 sub	 esp, 12			; 0000000cH
  00009	33 c0		 xor	 eax, eax
  0000b	85 c9		 test	 ecx, ecx

; 34   : 		_Count = 0;
; 35   : 	else if (((_SIZT)(-1) / sizeof (_Ty) < _Count)

  0000d	74 3e		 je	 SHORT $LN5@Allocate

; 36   : 		|| (_Ptr = ::operator new(_Count * sizeof (_Ty))) == 0)

  0000f	81 f9 ff ff ff
	3f		 cmp	 ecx, 1073741823		; 3fffffffH
  00015	77 10		 ja	 SHORT $LN1@Allocate
  00017	8b c1		 mov	 eax, ecx
  00019	c1 e0 02	 shl	 eax, 2
  0001c	50		 push	 eax
  0001d	e8 00 00 00 00	 call	 ??2@YAPAXI@Z		; operator new
  00022	59		 pop	 ecx
  00023	85 c0		 test	 eax, eax

; 38   : 
; 39   : 	return ((_Ty _FARQ *)_Ptr);

  00025	75 26		 jne	 SHORT $LN5@Allocate
$LN1@Allocate:

; 37   : 		_THROW_NCEE(bad_alloc, 0);

  00027	83 65 08 00	 and	 DWORD PTR $T510176[ebp], 0
  0002b	8d 45 08	 lea	 eax, DWORD PTR $T510176[ebp]
  0002e	50		 push	 eax
  0002f	8d 4d f4	 lea	 ecx, DWORD PTR $T510171[ebp]
  00032	ff 15 00 00 00
	00		 call	 DWORD PTR __imp_??0exception@std@@QAE@ABQBD@Z
  00038	68 00 00 00 00	 push	 OFFSET __TI2?AVbad_alloc@std@@
  0003d	8d 45 f4	 lea	 eax, DWORD PTR $T510171[ebp]
  00040	50		 push	 eax
  00041	c7 45 f4 00 00
	00 00		 mov	 DWORD PTR $T510171[ebp], OFFSET ??_7bad_alloc@std@@6B@
  00048	e8 00 00 00 00	 call	 __CxxThrowException@8
$LN10@Allocate:
$LN5@Allocate:

; 40   : 	}

  0004d	c9		 leave
  0004e	c3		 ret	 0
$LN9@Allocate:
??$_Allocate@PAVioMission@@@std@@YAPAPAVioMission@@IPAPAV1@@Z ENDP ; std::_Allocate<ioMission *>
_TEXT	ENDS
PUBLIC	??G?$_Vector_const_iterator@V?$_Vector_val@PAVioMission@@V?$allocator@PAVioMission@@@std@@@std@@@std@@QBEHABV01@@Z ; std::_Vector_const_iterator<std::_Vector_val<ioMission *,std::allocator<ioMission *> > >::operator-
; Function compile flags: /Ogsp
; File c:\program files (x86)\microsoft visual studio 10.0\vc\include\vector
;	COMDAT ??G?$_Vector_const_iterator@V?$_Vector_val@PAVioMission@@V?$allocator@PAVioMission@@@std@@@std@@@std@@QBEHABV01@@Z
_TEXT	SEGMENT
__Right$ = 8						; size = 4
??G?$_Vector_const_iterator@V?$_Vector_val@PAVioMission@@V?$allocator@PAVioMission@@@std@@@std@@@std@@QBEHABV01@@Z PROC ; std::_Vector_const_iterator<std::_Vector_val<ioMission *,std::allocator<ioMission *> > >::operator-, COMDAT
; _this$ = ecx

; 190  : 		{	// return difference of iterators

  00000	55		 push	 ebp
  00001	8b ec		 mov	 ebp, esp

; 191  : 		_Compat(_Right);
; 192  : 		return (this->_Ptr - _Right._Ptr);

  00003	8b 01		 mov	 eax, DWORD PTR [ecx]
  00005	8b 4d 08	 mov	 ecx, DWORD PTR __Right$[ebp]
  00008	2b 01		 sub	 eax, DWORD PTR [ecx]
  0000a	c1 f8 02	 sar	 eax, 2

; 193  : 		}

  0000d	5d		 pop	 ebp
  0000e	c2 04 00	 ret	 4
??G?$_Vector_const_iterator@V?$_Vector_val@PAVioMission@@V?$allocator@PAVioMission@@@std@@@std@@@std@@QBEHABV01@@Z ENDP ; std::_Vector_const_iterator<std::_Vector_val<ioMission *,std::allocator<ioMission *> > >::operator-
_TEXT	ENDS
PUBLIC	??$forward@AAPAVioMission@@@std@@YAAAPAVioMission@@AAPAV1@@Z ; std::forward<ioMission * &>
; Function compile flags: /Ogsp
; File c:\program files (x86)\microsoft visual studio 10.0\vc\include\utility
;	COMDAT ??$forward@AAPAVioMission@@@std@@YAAAPAVioMission@@AAPAV1@@Z
_TEXT	SEGMENT
__Arg$ = 8						; size = 4
??$forward@AAPAVioMission@@@std@@YAAAPAVioMission@@AAPAV1@@Z PROC ; std::forward<ioMission * &>, COMDAT

; 78   : 	{	// forward _Arg, given explicitly specified type parameter

  00000	55		 push	 ebp
  00001	8b ec		 mov	 ebp, esp

; 79   : 	return ((_Ty&&)_Arg);

  00003	8b 45 08	 mov	 eax, DWORD PTR __Arg$[ebp]

; 80   : 	}

  00006	5d		 pop	 ebp
  00007	c3		 ret	 0
??$forward@AAPAVioMission@@@std@@YAAAPAVioMission@@AAPAV1@@Z ENDP ; std::forward<ioMission * &>
_TEXT	ENDS
PUBLIC	??$construct@AAPAVioMission@@@?$allocator@PAVioMission@@@std@@QAEXPAPAVioMission@@AAPAV2@@Z ; std::allocator<ioMission *>::construct<ioMission * &>
; Function compile flags: /Ogsp
; File c:\program files (x86)\microsoft visual studio 10.0\vc\include\xmemory
;	COMDAT ??$construct@AAPAVioMission@@@?$allocator@PAVioMission@@@std@@QAEXPAPAVioMission@@AAPAV2@@Z
_TEXT	SEGMENT
__Ptr$ = 8						; size = 4
__Val$ = 12						; size = 4
??$construct@AAPAVioMission@@@?$allocator@PAVioMission@@@std@@QAEXPAPAVioMission@@AAPAV2@@Z PROC ; std::allocator<ioMission *>::construct<ioMission * &>, COMDAT
; _this$ = ecx

; 206  : 		void construct(pointer _Ptr, _Other&& _Val)

  00000	55		 push	 ebp
  00001	8b ec		 mov	 ebp, esp

; 207  : 		{	// construct object at _Ptr with value _Val
; 208  : 		::new ((void _FARQ *)_Ptr) _Ty(_STD forward<_Other>(_Val));

  00003	8b 45 08	 mov	 eax, DWORD PTR __Ptr$[ebp]
  00006	85 c0		 test	 eax, eax
  00008	74 07		 je	 SHORT $LN3@construct
  0000a	8b 4d 0c	 mov	 ecx, DWORD PTR __Val$[ebp]
  0000d	8b 09		 mov	 ecx, DWORD PTR [ecx]
  0000f	89 08		 mov	 DWORD PTR [eax], ecx
$LN3@construct:

; 209  : 		}

  00011	5d		 pop	 ebp
  00012	c2 08 00	 ret	 8
??$construct@AAPAVioMission@@@?$allocator@PAVioMission@@@std@@QAEXPAPAVioMission@@AAPAV2@@Z ENDP ; std::allocator<ioMission *>::construct<ioMission * &>
_TEXT	ENDS
PUBLIC	??$forward@ABQAVioMission@@@std@@YAABQAVioMission@@ABQAV1@@Z ; std::forward<ioMission * const &>
; Function compile flags: /Ogsp
; File c:\program files (x86)\microsoft visual studio 10.0\vc\include\utility
;	COMDAT ??$forward@ABQAVioMission@@@std@@YAABQAVioMission@@ABQAV1@@Z
_TEXT	SEGMENT
__Arg$ = 8						; size = 4
??$forward@ABQAVioMission@@@std@@YAABQAVioMission@@ABQAV1@@Z PROC ; std::forward<ioMission * const &>, COMDAT

; 78   : 	{	// forward _Arg, given explicitly specified type parameter

  00000	55		 push	 ebp
  00001	8b ec		 mov	 ebp, esp

; 79   : 	return ((_Ty&&)_Arg);

  00003	8b 45 08	 mov	 eax, DWORD PTR __Arg$[ebp]

; 80   : 	}

  00006	5d		 pop	 ebp
  00007	c3		 ret	 0
??$forward@ABQAVioMission@@@std@@YAABQAVioMission@@ABQAV1@@Z ENDP ; std::forward<ioMission * const &>
_TEXT	ENDS
PUBLIC	??$_Ptr_cat@PAVioMission@@PAV1@@std@@YA?AU_Scalar_ptr_iterator_tag@0@PAPAVioMission@@0@Z ; std::_Ptr_cat<ioMission *,ioMission *>
; Function compile flags: /Ogsp
; File c:\program files (x86)\microsoft visual studio 10.0\vc\include\xutility
;	COMDAT ??$_Ptr_cat@PAVioMission@@PAV1@@std@@YA?AU_Scalar_ptr_iterator_tag@0@PAPAVioMission@@0@Z
_TEXT	SEGMENT
__Cat$ = -1						; size = 1
___formal$ = 8						; size = 4
___formal$ = 12						; size = 4
??$_Ptr_cat@PAVioMission@@PAV1@@std@@YA?AU_Scalar_ptr_iterator_tag@0@PAPAVioMission@@0@Z PROC ; std::_Ptr_cat<ioMission *,ioMission *>, COMDAT

; 516  : 	{	// return pointer category from pointers

  00000	55		 push	 ebp
  00001	8b ec		 mov	 ebp, esp
  00003	51		 push	 ecx

; 517  : 	typename _Ptr_cat_helper<_Elem1, _Elem2>::_Type _Cat;
; 518  : 	return (_Cat);

  00004	8a 45 ff	 mov	 al, BYTE PTR __Cat$[ebp]

; 519  : 	}

  00007	c9		 leave
  00008	c3		 ret	 0
??$_Ptr_cat@PAVioMission@@PAV1@@std@@YA?AU_Scalar_ptr_iterator_tag@0@PAPAVioMission@@0@Z ENDP ; std::_Ptr_cat<ioMission *,ioMission *>
_TEXT	ENDS
PUBLIC	??$_Move@PAPAVioMission@@PAPAV1@@std@@YAPAPAVioMission@@PAPAV1@00U_Scalar_ptr_iterator_tag@0@@Z ; std::_Move<ioMission * *,ioMission * *>
EXTRN	__imp__memmove:PROC
; Function compile flags: /Ogsp
;	COMDAT ??$_Move@PAPAVioMission@@PAPAV1@@std@@YAPAPAVioMission@@PAPAV1@00U_Scalar_ptr_iterator_tag@0@@Z
_TEXT	SEGMENT
__First$ = 8						; size = 4
__Last$ = 12						; size = 4
__Dest$ = 16						; size = 4
___formal$ = 20						; size = 1
??$_Move@PAPAVioMission@@PAPAV1@@std@@YAPAPAVioMission@@PAPAV1@00U_Scalar_ptr_iterator_tag@0@@Z PROC ; std::_Move<ioMission * *,ioMission * *>, COMDAT

; 2522 : 	{	// move [_First, _Last) to [_Dest, ...), pointers to scalars

  00000	55		 push	 ebp
  00001	8b ec		 mov	 ebp, esp
  00003	56		 push	 esi

; 2523 : 	ptrdiff_t _Count = _Last - _First;

  00004	8b 75 0c	 mov	 esi, DWORD PTR __Last$[ebp]
  00007	2b 75 08	 sub	 esi, DWORD PTR __First$[ebp]
  0000a	57		 push	 edi

; 2524 : 	_CSTD memmove(&*_Dest, &*_First,
; 2525 : 		_Count * sizeof (*_First));

  0000b	8b 7d 10	 mov	 edi, DWORD PTR __Dest$[ebp]
  0000e	c1 fe 02	 sar	 esi, 2
  00011	c1 e6 02	 shl	 esi, 2
  00014	56		 push	 esi
  00015	ff 75 08	 push	 DWORD PTR __First$[ebp]
  00018	57		 push	 edi
  00019	ff 15 00 00 00
	00		 call	 DWORD PTR __imp__memmove
  0001f	83 c4 0c	 add	 esp, 12			; 0000000cH

; 2526 : 	return (_Dest + _Count);

  00022	8d 04 3e	 lea	 eax, DWORD PTR [esi+edi]
  00025	5f		 pop	 edi
  00026	5e		 pop	 esi

; 2527 : 	}

  00027	5d		 pop	 ebp
  00028	c3		 ret	 0
??$_Move@PAPAVioMission@@PAPAV1@@std@@YAPAPAVioMission@@PAPAV1@00U_Scalar_ptr_iterator_tag@0@@Z ENDP ; std::_Move<ioMission * *,ioMission * *>
_TEXT	ENDS
PUBLIC	??$_Destroy_range@V?$allocator@PAVioMission@@@std@@@std@@YAXPAPAVioMission@@0AAV?$allocator@PAVioMission@@@0@U_Scalar_ptr_iterator_tag@0@@Z ; std::_Destroy_range<std::allocator<ioMission *> >
; Function compile flags: /Ogsp
; File c:\program files (x86)\microsoft visual studio 10.0\vc\include\xmemory
;	COMDAT ??$_Destroy_range@V?$allocator@PAVioMission@@@std@@@std@@YAXPAPAVioMission@@0AAV?$allocator@PAVioMission@@@0@U_Scalar_ptr_iterator_tag@0@@Z
_TEXT	SEGMENT
__First$ = 8						; size = 4
__Last$ = 12						; size = 4
__Al$ = 16						; size = 4
___formal$ = 20						; size = 1
??$_Destroy_range@V?$allocator@PAVioMission@@@std@@@std@@YAXPAPAVioMission@@0AAV?$allocator@PAVioMission@@@0@U_Scalar_ptr_iterator_tag@0@@Z PROC ; std::_Destroy_range<std::allocator<ioMission *> >, COMDAT

; 105  : 	}

  00000	c3		 ret	 0
??$_Destroy_range@V?$allocator@PAVioMission@@@std@@@std@@YAXPAPAVioMission@@0AAV?$allocator@PAVioMission@@@0@U_Scalar_ptr_iterator_tag@0@@Z ENDP ; std::_Destroy_range<std::allocator<ioMission *> >
_TEXT	ENDS
PUBLIC	??$_Construct@PAVioMission@@ABQAV1@@std@@YAXPAPAVioMission@@ABQAV1@@Z ; std::_Construct<ioMission *,ioMission * const &>
; Function compile flags: /Ogsp
;	COMDAT ??$_Construct@PAVioMission@@ABQAV1@@std@@YAXPAPAVioMission@@ABQAV1@@Z
_TEXT	SEGMENT
__Ptr$ = 8						; size = 4
__Val$ = 12						; size = 4
??$_Construct@PAVioMission@@ABQAV1@@std@@YAXPAPAVioMission@@ABQAV1@@Z PROC ; std::_Construct<ioMission *,ioMission * const &>, COMDAT

; 46   : 	{	// construct object at _Ptr with value _Val

  00000	55		 push	 ebp
  00001	8b ec		 mov	 ebp, esp

; 47   : 	void _FARQ *_Vptr = _Ptr;
; 48   : 	::new (_Vptr) _Ty1(_STD forward<_Ty2>(_Val));

  00003	8b 45 08	 mov	 eax, DWORD PTR __Ptr$[ebp]
  00006	85 c0		 test	 eax, eax
  00008	74 07		 je	 SHORT $LN3@Construct
  0000a	8b 4d 0c	 mov	 ecx, DWORD PTR __Val$[ebp]
  0000d	8b 09		 mov	 ecx, DWORD PTR [ecx]
  0000f	89 08		 mov	 DWORD PTR [eax], ecx
$LN3@Construct:

; 49   : 	}

  00011	5d		 pop	 ebp
  00012	c3		 ret	 0
??$_Construct@PAVioMission@@ABQAV1@@std@@YAXPAPAVioMission@@ABQAV1@@Z ENDP ; std::_Construct<ioMission *,ioMission * const &>
_TEXT	ENDS
PUBLIC	?_Unchecked@?$_Vector_iterator@V?$_Vector_val@PAVioMission@@V?$allocator@PAVioMission@@@std@@@std@@@std@@QBEPAPAVioMission@@XZ ; std::_Vector_iterator<std::_Vector_val<ioMission *,std::allocator<ioMission *> > >::_Unchecked
; Function compile flags: /Ogsp
; File c:\program files (x86)\microsoft visual studio 10.0\vc\include\vector
;	COMDAT ?_Unchecked@?$_Vector_iterator@V?$_Vector_val@PAVioMission@@V?$allocator@PAVioMission@@@std@@@std@@@std@@QBEPAPAVioMission@@XZ
_TEXT	SEGMENT
?_Unchecked@?$_Vector_iterator@V?$_Vector_val@PAVioMission@@V?$allocator@PAVioMission@@@std@@@std@@@std@@QBEPAPAVioMission@@XZ PROC ; std::_Vector_iterator<std::_Vector_val<ioMission *,std::allocator<ioMission *> > >::_Unchecked, COMDAT
; _this$ = ecx

; 317  : 		return (_Unchecked_type(this->_Ptr));

  00000	8b 01		 mov	 eax, DWORD PTR [ecx]

; 318  : 		}

  00002	c3		 ret	 0
?_Unchecked@?$_Vector_iterator@V?$_Vector_val@PAVioMission@@V?$allocator@PAVioMission@@@std@@@std@@@std@@QBEPAPAVioMission@@XZ ENDP ; std::_Vector_iterator<std::_Vector_val<ioMission *,std::allocator<ioMission *> > >::_Unchecked
_TEXT	ENDS
PUBLIC	??$_Val_type@PAPAVioMission@@@std@@YAPAPAVioMission@@PAPAV1@@Z ; std::_Val_type<ioMission * *>
; Function compile flags: /Ogsp
; File c:\program files (x86)\microsoft visual studio 10.0\vc\include\xutility
;	COMDAT ??$_Val_type@PAPAVioMission@@@std@@YAPAPAVioMission@@PAPAV1@@Z
_TEXT	SEGMENT
___formal$ = 8						; size = 4
??$_Val_type@PAPAVioMission@@@std@@YAPAPAVioMission@@PAPAV1@@Z PROC ; std::_Val_type<ioMission * *>, COMDAT

; 790  : 	return (0);

  00000	33 c0		 xor	 eax, eax

; 791  : 	}

  00002	c3		 ret	 0
??$_Val_type@PAPAVioMission@@@std@@YAPAPAVioMission@@PAPAV1@@Z ENDP ; std::_Val_type<ioMission * *>
_TEXT	ENDS
PUBLIC	??$_Uninit_move@PAVioMission@@PAV1@PAV1@@std@@YAPAPAVioMission@@PAPAV1@00AAV?$allocator@PAVioMission@@@0@0U_Scalar_ptr_iterator_tag@0@@Z ; std::_Uninit_move<ioMission *,ioMission *,ioMission *>
; Function compile flags: /Ogsp
; File c:\program files (x86)\microsoft visual studio 10.0\vc\include\memory
;	COMDAT ??$_Uninit_move@PAVioMission@@PAV1@PAV1@@std@@YAPAPAVioMission@@PAPAV1@00AAV?$allocator@PAVioMission@@@0@0U_Scalar_ptr_iterator_tag@0@@Z
_TEXT	SEGMENT
__First$ = 8						; size = 4
__Last$ = 12						; size = 4
__Dest$ = 16						; size = 4
___formal$ = 20						; size = 4
___formal$ = 24						; size = 4
___formal$ = 28						; size = 1
??$_Uninit_move@PAVioMission@@PAV1@PAV1@@std@@YAPAPAVioMission@@PAPAV1@00AAV?$allocator@PAVioMission@@@0@0U_Scalar_ptr_iterator_tag@0@@Z PROC ; std::_Uninit_move<ioMission *,ioMission *,ioMission *>, COMDAT

; 456  : 	{	// move [_First, _Last) to raw _Dest, scalar type

  00000	55		 push	 ebp
  00001	8b ec		 mov	 ebp, esp
  00003	56		 push	 esi

; 457  : 	_DEBUG_RANGE(_First, _Last);
; 458  : 	_DEBUG_POINTER(_Dest);
; 459  : 	size_t _Count = (size_t)(_Last - _First);

  00004	8b 75 0c	 mov	 esi, DWORD PTR __Last$[ebp]
  00007	2b 75 08	 sub	 esi, DWORD PTR __First$[ebp]
  0000a	c1 fe 02	 sar	 esi, 2

; 460  : 	return ((_Ty2 *)_CSTD memmove(&*_Dest, &*_First,
; 461  : 		_Count * sizeof (*_First)) + _Count);	// NB: non-overlapping move

  0000d	c1 e6 02	 shl	 esi, 2
  00010	56		 push	 esi
  00011	ff 75 08	 push	 DWORD PTR __First$[ebp]
  00014	ff 75 10	 push	 DWORD PTR __Dest$[ebp]
  00017	ff 15 00 00 00
	00		 call	 DWORD PTR __imp__memmove
  0001d	83 c4 0c	 add	 esp, 12			; 0000000cH
  00020	03 c6		 add	 eax, esi
  00022	5e		 pop	 esi

; 462  : 	}

  00023	5d		 pop	 ebp
  00024	c3		 ret	 0
??$_Uninit_move@PAVioMission@@PAV1@PAV1@@std@@YAPAPAVioMission@@PAPAV1@00AAV?$allocator@PAVioMission@@@0@0U_Scalar_ptr_iterator_tag@0@@Z ENDP ; std::_Uninit_move<ioMission *,ioMission *,ioMission *>
_TEXT	ENDS
PUBLIC	??$_Unchecked@PAPAVioMission@@@std@@YAPAPAVioMission@@PAPAV1@@Z ; std::_Unchecked<ioMission * *>
; Function compile flags: /Ogsp
; File c:\program files (x86)\microsoft visual studio 10.0\vc\include\xutility
;	COMDAT ??$_Unchecked@PAPAVioMission@@@std@@YAPAPAVioMission@@PAPAV1@@Z
_TEXT	SEGMENT
__Src$ = 8						; size = 4
??$_Unchecked@PAPAVioMission@@@std@@YAPAPAVioMission@@PAPAV1@@Z PROC ; std::_Unchecked<ioMission * *>, COMDAT

; 266  : 	{	// construct unchecked from checked, generic

  00000	55		 push	 ebp
  00001	8b ec		 mov	 ebp, esp

; 267  : 	return (_Src);

  00003	8b 45 08	 mov	 eax, DWORD PTR __Src$[ebp]

; 268  : 	}

  00006	5d		 pop	 ebp
  00007	c3		 ret	 0
??$_Unchecked@PAPAVioMission@@@std@@YAPAPAVioMission@@PAPAV1@@Z ENDP ; std::_Unchecked<ioMission * *>
_TEXT	ENDS
PUBLIC	??$_Dist_type@PAPAVioMission@@@std@@YAPAHPAPAVioMission@@@Z ; std::_Dist_type<ioMission * *>
; Function compile flags: /Ogsp
;	COMDAT ??$_Dist_type@PAPAVioMission@@@std@@YAPAHPAPAVioMission@@@Z
_TEXT	SEGMENT
___formal$ = 8						; size = 4
??$_Dist_type@PAPAVioMission@@@std@@YAPAHPAPAVioMission@@@Z PROC ; std::_Dist_type<ioMission * *>, COMDAT

; 850  : 	return (0);

  00000	33 c0		 xor	 eax, eax

; 851  : 	}

  00002	c3		 ret	 0
??$_Dist_type@PAPAVioMission@@@std@@YAPAHPAPAVioMission@@@Z ENDP ; std::_Dist_type<ioMission * *>
_TEXT	ENDS
PUBLIC	??$forward@AAPAPAVioMission@@@std@@YAAAPAPAVioMission@@AAPAPAV1@@Z ; std::forward<ioMission * * &>
; Function compile flags: /Ogsp
; File c:\program files (x86)\microsoft visual studio 10.0\vc\include\utility
;	COMDAT ??$forward@AAPAPAVioMission@@@std@@YAAAPAPAVioMission@@AAPAPAV1@@Z
_TEXT	SEGMENT
__Arg$ = 8						; size = 4
??$forward@AAPAPAVioMission@@@std@@YAAAPAPAVioMission@@AAPAPAV1@@Z PROC ; std::forward<ioMission * * &>, COMDAT

; 78   : 	{	// forward _Arg, given explicitly specified type parameter

  00000	55		 push	 ebp
  00001	8b ec		 mov	 ebp, esp

; 79   : 	return ((_Ty&&)_Arg);

  00003	8b 45 08	 mov	 eax, DWORD PTR __Arg$[ebp]

; 80   : 	}

  00006	5d		 pop	 ebp
  00007	c3		 ret	 0
??$forward@AAPAPAVioMission@@@std@@YAAAPAPAVioMission@@AAPAPAV1@@Z ENDP ; std::forward<ioMission * * &>
_TEXT	ENDS
PUBLIC	??$?0AAPAPAVioMission@@AAPAPAV0@@?$_Pair_base@PAPAVioMission@@PAPAV1@@std@@QAE@AAPAPAVioMission@@0@Z ; std::_Pair_base<ioMission * *,ioMission * *>::_Pair_base<ioMission * *,ioMission * *><ioMission * * &,ioMission * * &>
; Function compile flags: /Ogsp
;	COMDAT ??$?0AAPAPAVioMission@@AAPAPAV0@@?$_Pair_base@PAPAVioMission@@PAPAV1@@std@@QAE@AAPAPAVioMission@@0@Z
_TEXT	SEGMENT
__Val1$ = 8						; size = 4
__Val2$ = 12						; size = 4
??$?0AAPAPAVioMission@@AAPAPAV0@@?$_Pair_base@PAPAVioMission@@PAPAV1@@std@@QAE@AAPAPAVioMission@@0@Z PROC ; std::_Pair_base<ioMission * *,ioMission * *>::_Pair_base<ioMission * *,ioMission * *><ioMission * * &,ioMission * * &>, COMDAT
; _this$ = ecx

; 163  : 		{	// construct from moved values

  00000	55		 push	 ebp
  00001	8b ec		 mov	 ebp, esp
  00003	8b c1		 mov	 eax, ecx
  00005	8b 4d 08	 mov	 ecx, DWORD PTR __Val1$[ebp]
  00008	8b 09		 mov	 ecx, DWORD PTR [ecx]
  0000a	89 08		 mov	 DWORD PTR [eax], ecx
  0000c	8b 4d 0c	 mov	 ecx, DWORD PTR __Val2$[ebp]
  0000f	8b 09		 mov	 ecx, DWORD PTR [ecx]
  00011	89 48 04	 mov	 DWORD PTR [eax+4], ecx

; 164  : 		}

  00014	5d		 pop	 ebp
  00015	c2 08 00	 ret	 8
??$?0AAPAPAVioMission@@AAPAPAV0@@?$_Pair_base@PAPAVioMission@@PAPAV1@@std@@QAE@AAPAPAVioMission@@0@Z ENDP ; std::_Pair_base<ioMission * *,ioMission * *>::_Pair_base<ioMission * *,ioMission * *><ioMission * * &,ioMission * * &>
_TEXT	ENDS
PUBLIC	??$_Move@AAPAVioMission@@@std@@YA$$QAPAVioMission@@AAPAV1@@Z ; std::_Move<ioMission * &>
; Function compile flags: /Ogsp
;	COMDAT ??$_Move@AAPAVioMission@@@std@@YA$$QAPAVioMission@@AAPAV1@@Z
_TEXT	SEGMENT
__Arg$ = 8						; size = 4
??$_Move@AAPAVioMission@@@std@@YA$$QAPAVioMission@@AAPAV1@@Z PROC ; std::_Move<ioMission * &>, COMDAT

; 94   : 	{	// forward _Arg as movable

  00000	55		 push	 ebp
  00001	8b ec		 mov	 ebp, esp

; 95   : 	return ((typename tr1::_Remove_reference<_Ty>::_Type&&)_Arg);

  00003	8b 45 08	 mov	 eax, DWORD PTR __Arg$[ebp]

; 96   : 	}

  00006	5d		 pop	 ebp
  00007	c3		 ret	 0
??$_Move@AAPAVioMission@@@std@@YA$$QAPAVioMission@@AAPAV1@@Z ENDP ; std::_Move<ioMission * &>
_TEXT	ENDS
PUBLIC	??$_Push_heap@PAPAVioMission@@HPAV1@VMissionDataSort@@@std@@YAXPAPAVioMission@@HH$$QAPAV1@VMissionDataSort@@@Z ; std::_Push_heap<ioMission * *,int,ioMission *,MissionDataSort>
; Function compile flags: /Ogsp
; File c:\program files (x86)\microsoft visual studio 10.0\vc\include\algorithm
;	COMDAT ??$_Push_heap@PAPAVioMission@@HPAV1@VMissionDataSort@@@std@@YAXPAPAVioMission@@HH$$QAPAV1@VMissionDataSort@@@Z
_TEXT	SEGMENT
__First$ = 8						; size = 4
__Hole$ = 12						; size = 4
__Top$ = 16						; size = 4
__Val$ = 20						; size = 4
__Pred$ = 24						; size = 1
??$_Push_heap@PAPAVioMission@@HPAV1@VMissionDataSort@@@std@@YAXPAPAVioMission@@HH$$QAPAV1@VMissionDataSort@@@Z PROC ; std::_Push_heap<ioMission * *,int,ioMission *,MissionDataSort>, COMDAT

; 2455 : 	{	// percolate _Hole to _Top or where _Val belongs, using operator<

  00000	55		 push	 ebp
  00001	8b ec		 mov	 ebp, esp
  00003	53		 push	 ebx

; 2456 : 	for (_Diff _Idx = (_Hole - 1) / 2;
; 2457 : 		_Top < _Hole && _DEBUG_LT_PRED(_Pred, *(_First + _Idx), _Val);
; 2458 : 		_Idx = (_Hole - 1) / 2)

  00004	8b 5d 08	 mov	 ebx, DWORD PTR __First$[ebp]
  00007	56		 push	 esi
  00008	57		 push	 edi
  00009	8b 7d 0c	 mov	 edi, DWORD PTR __Hole$[ebp]
  0000c	8d 47 ff	 lea	 eax, DWORD PTR [edi-1]
  0000f	99		 cdq
  00010	2b c2		 sub	 eax, edx
  00012	8b f0		 mov	 esi, eax
  00014	d1 fe		 sar	 esi, 1
  00016	eb 26		 jmp	 SHORT $LN12@Push_heap
$LL3@Push_heap:
  00018	8b 45 14	 mov	 eax, DWORD PTR __Val$[ebp]
  0001b	ff 30		 push	 DWORD PTR [eax]
  0001d	8d 4d 18	 lea	 ecx, DWORD PTR __Pred$[ebp]
  00020	ff 34 b3	 push	 DWORD PTR [ebx+esi*4]
  00023	e8 00 00 00 00	 call	 ??RMissionDataSort@@QBE_NPBVioMission@@0@Z ; MissionDataSort::operator()
  00028	84 c0		 test	 al, al
  0002a	74 17		 je	 SHORT $LN1@Push_heap

; 2459 : 		{	// move _Hole up to parent
; 2460 : 		*(_First + _Hole) = _Move(*(_First + _Idx));

  0002c	8b 04 b3	 mov	 eax, DWORD PTR [ebx+esi*4]
  0002f	89 04 bb	 mov	 DWORD PTR [ebx+edi*4], eax
  00032	8d 46 ff	 lea	 eax, DWORD PTR [esi-1]
  00035	99		 cdq
  00036	2b c2		 sub	 eax, edx
  00038	d1 f8		 sar	 eax, 1

; 2461 : 		_Hole = _Idx;

  0003a	8b fe		 mov	 edi, esi
  0003c	8b f0		 mov	 esi, eax
$LN12@Push_heap:

; 2456 : 	for (_Diff _Idx = (_Hole - 1) / 2;
; 2457 : 		_Top < _Hole && _DEBUG_LT_PRED(_Pred, *(_First + _Idx), _Val);
; 2458 : 		_Idx = (_Hole - 1) / 2)

  0003e	39 7d 10	 cmp	 DWORD PTR __Top$[ebp], edi
  00041	7c d5		 jl	 SHORT $LL3@Push_heap
$LN1@Push_heap:

; 2462 : 		}
; 2463 : 
; 2464 : 	*(_First + _Hole) = _Move(_Val);	// drop _Val into final hole

  00043	8b 45 14	 mov	 eax, DWORD PTR __Val$[ebp]
  00046	8b 00		 mov	 eax, DWORD PTR [eax]
  00048	89 04 bb	 mov	 DWORD PTR [ebx+edi*4], eax
  0004b	5f		 pop	 edi
  0004c	5e		 pop	 esi
  0004d	5b		 pop	 ebx

; 2465 : 	}

  0004e	5d		 pop	 ebp
  0004f	c3		 ret	 0
??$_Push_heap@PAPAVioMission@@HPAV1@VMissionDataSort@@@std@@YAXPAPAVioMission@@HH$$QAPAV1@VMissionDataSort@@@Z ENDP ; std::_Push_heap<ioMission * *,int,ioMission *,MissionDataSort>
_TEXT	ENDS
PUBLIC	??$_Move_backward@PAPAVioMission@@PAPAV1@@std@@YAPAPAVioMission@@PAPAV1@00U_Scalar_ptr_iterator_tag@0@@Z ; std::_Move_backward<ioMission * *,ioMission * *>
; Function compile flags: /Ogsp
; File c:\program files (x86)\microsoft visual studio 10.0\vc\include\xutility
;	COMDAT ??$_Move_backward@PAPAVioMission@@PAPAV1@@std@@YAPAPAVioMission@@PAPAV1@00U_Scalar_ptr_iterator_tag@0@@Z
_TEXT	SEGMENT
__First$ = 8						; size = 4
__Last$ = 12						; size = 4
__Dest$ = 16						; size = 4
___formal$ = 20						; size = 1
??$_Move_backward@PAPAVioMission@@PAPAV1@@std@@YAPAPAVioMission@@PAPAV1@00U_Scalar_ptr_iterator_tag@0@@Z PROC ; std::_Move_backward<ioMission * *,ioMission * *>, COMDAT

; 2627 : 	{	// move [_First, _Last) backwards to [..., _Dest), pointers to scalars

  00000	55		 push	 ebp
  00001	8b ec		 mov	 ebp, esp

; 2628 : 	ptrdiff_t _Count = _Last - _First;

  00003	8b 45 0c	 mov	 eax, DWORD PTR __Last$[ebp]
  00006	2b 45 08	 sub	 eax, DWORD PTR __First$[ebp]
  00009	56		 push	 esi

; 2629 : 	_CSTD memmove(&*_Dest - _Count, &*_First,
; 2630 : 		_Count * sizeof (*_First));

  0000a	8b 75 10	 mov	 esi, DWORD PTR __Dest$[ebp]
  0000d	83 e0 fc	 and	 eax, -4			; fffffffcH
  00010	50		 push	 eax
  00011	ff 75 08	 push	 DWORD PTR __First$[ebp]
  00014	2b f0		 sub	 esi, eax
  00016	56		 push	 esi
  00017	ff 15 00 00 00
	00		 call	 DWORD PTR __imp__memmove
  0001d	83 c4 0c	 add	 esp, 12			; 0000000cH

; 2631 : 	return (_Dest - _Count);

  00020	8b c6		 mov	 eax, esi
  00022	5e		 pop	 esi

; 2632 : 	}

  00023	5d		 pop	 ebp
  00024	c3		 ret	 0
??$_Move_backward@PAPAVioMission@@PAPAV1@@std@@YAPAPAVioMission@@PAPAV1@00U_Scalar_ptr_iterator_tag@0@@Z ENDP ; std::_Move_backward<ioMission * *,ioMission * *>
_TEXT	ENDS
PUBLIC	??0CAtlException@ATL@@QAE@J@Z			; ATL::CAtlException::CAtlException
; Function compile flags: /Ogsp
; File c:\program files (x86)\microsoft visual studio 10.0\vc\atlmfc\include\atlexcept.h
;	COMDAT ??0CAtlException@ATL@@QAE@J@Z
_TEXT	SEGMENT
_hr$ = 8						; size = 4
??0CAtlException@ATL@@QAE@J@Z PROC			; ATL::CAtlException::CAtlException, COMDAT
; _this$ = ecx

; 44   : 	{

  00000	55		 push	 ebp
  00001	8b ec		 mov	 ebp, esp
  00003	8b c1		 mov	 eax, ecx
  00005	8b 4d 08	 mov	 ecx, DWORD PTR _hr$[ebp]
  00008	89 08		 mov	 DWORD PTR [eax], ecx

; 45   : 	}

  0000a	5d		 pop	 ebp
  0000b	c2 04 00	 ret	 4
??0CAtlException@ATL@@QAE@J@Z ENDP			; ATL::CAtlException::CAtlException
_TEXT	ENDS
PUBLIC	__TI1?AVCAtlException@ATL@@
PUBLIC	?AtlThrowImpl@ATL@@YGXJ@Z			; ATL::AtlThrowImpl
PUBLIC	__CTA1?AVCAtlException@ATL@@
PUBLIC	__CT??_R0?AVCAtlException@ATL@@@84
PUBLIC	??_R0?AVCAtlException@ATL@@@8			; ATL::CAtlException `RTTI Type Descriptor'
;	COMDAT ??_R0?AVCAtlException@ATL@@@8
_DATA	SEGMENT
??_R0?AVCAtlException@ATL@@@8 DD FLAT:??_7type_info@@6B@ ; ATL::CAtlException `RTTI Type Descriptor'
	DD	00H
	DB	'.?AVCAtlException@ATL@@', 00H
_DATA	ENDS
;	COMDAT __CT??_R0?AVCAtlException@ATL@@@84
xdata$x	SEGMENT
__CT??_R0?AVCAtlException@ATL@@@84 DD 00H
	DD	FLAT:??_R0?AVCAtlException@ATL@@@8
	DD	00H
	DD	0ffffffffH
	ORG $+4
	DD	04H
	DD	00H
xdata$x	ENDS
;	COMDAT __CTA1?AVCAtlException@ATL@@
xdata$x	SEGMENT
__CTA1?AVCAtlException@ATL@@ DD 01H
	DD	FLAT:__CT??_R0?AVCAtlException@ATL@@@84
xdata$x	ENDS
;	COMDAT __TI1?AVCAtlException@ATL@@
xdata$x	SEGMENT
__TI1?AVCAtlException@ATL@@ DD 00H
	DD	00H
	DD	00H
	DD	FLAT:__CTA1?AVCAtlException@ATL@@
; Function compile flags: /Ogsp
xdata$x	ENDS
;	COMDAT ?AtlThrowImpl@ATL@@YGXJ@Z
_TEXT	SEGMENT
$T510263 = 8						; size = 4
_hr$ = 8						; size = 4
?AtlThrowImpl@ATL@@YGXJ@Z PROC				; ATL::AtlThrowImpl, COMDAT

; 65   : {

  00000	55		 push	 ebp
  00001	8b ec		 mov	 ebp, esp

; 66   : 	ATLTRACE(atlTraceException, 0, _T("AtlThrow: hr = 0x%x\n"), hr );
; 67   : #ifdef _AFX
; 68   : 	if( hr == E_OUTOFMEMORY )
; 69   : 	{
; 70   : 		AfxThrowMemoryException();
; 71   : 	}
; 72   : 	else
; 73   : 	{
; 74   : 		AfxThrowOleException( hr );
; 75   : 	}
; 76   : #else
; 77   : 	throw CAtlException( hr );

  00003	8b 45 08	 mov	 eax, DWORD PTR _hr$[ebp]
  00006	89 45 08	 mov	 DWORD PTR $T510263[ebp], eax
  00009	68 00 00 00 00	 push	 OFFSET __TI1?AVCAtlException@ATL@@
  0000e	8d 45 08	 lea	 eax, DWORD PTR $T510263[ebp]
  00011	50		 push	 eax
  00012	e8 00 00 00 00	 call	 __CxxThrowException@8
$LN6@AtlThrowIm:
$LN5@AtlThrowIm:
  00017	cc		 int	 3
?AtlThrowImpl@ATL@@YGXJ@Z ENDP				; ATL::AtlThrowImpl
_TEXT	ENDS
PUBLIC	??0CTime@ATL@@QAE@_J@Z				; ATL::CTime::CTime
; Function compile flags: /Ogsp
; File c:\program files (x86)\microsoft visual studio 10.0\vc\atlmfc\include\atltime.inl
;	COMDAT ??0CTime@ATL@@QAE@_J@Z
_TEXT	SEGMENT
_time$ = 8						; size = 8
??0CTime@ATL@@QAE@_J@Z PROC				; ATL::CTime::CTime, COMDAT
; _this$ = ecx

; 171  : {

  00000	55		 push	 ebp
  00001	8b ec		 mov	 ebp, esp
  00003	8b c1		 mov	 eax, ecx
  00005	8b 4d 08	 mov	 ecx, DWORD PTR _time$[ebp]
  00008	89 08		 mov	 DWORD PTR [eax], ecx
  0000a	8b 4d 0c	 mov	 ecx, DWORD PTR _time$[ebp+4]
  0000d	89 48 04	 mov	 DWORD PTR [eax+4], ecx

; 172  : }

  00010	5d		 pop	 ebp
  00011	c2 08 00	 ret	 8
??0CTime@ATL@@QAE@_J@Z ENDP				; ATL::CTime::CTime
_TEXT	ENDS
PUBLIC	__$ArrayPad$
PUBLIC	??0CTime@ATL@@QAE@HHHHHHH@Z			; ATL::CTime::CTime
EXTRN	__imp___mktime64:PROC
EXTRN	___security_cookie:DWORD
; Function compile flags: /Ogsp
;	COMDAT ??0CTime@ATL@@QAE@HHHHHHH@Z
_TEXT	SEGMENT
_atm$ = -40						; size = 36
__$ArrayPad$ = -4					; size = 4
_nYear$ = 8						; size = 4
_nMonth$ = 12						; size = 4
_nDay$ = 16						; size = 4
_nHour$ = 20						; size = 4
_nMin$ = 24						; size = 4
_nSec$ = 28						; size = 4
_nDST$ = 32						; size = 4
??0CTime@ATL@@QAE@HHHHHHH@Z PROC			; ATL::CTime::CTime, COMDAT
; _this$ = ecx

; 182  : {

  00000	55		 push	 ebp
  00001	8b ec		 mov	 ebp, esp
  00003	83 ec 28	 sub	 esp, 40			; 00000028H
  00006	a1 00 00 00 00	 mov	 eax, DWORD PTR ___security_cookie
  0000b	33 c5		 xor	 eax, ebp
  0000d	89 45 fc	 mov	 DWORD PTR __$ArrayPad$[ebp], eax

; 183  : #pragma warning (push)
; 184  : #pragma warning (disable: 4127)  // conditional expression constant
; 185  : 
; 186  : 	ATLENSURE( nYear >= 1900 );

  00010	81 7d 08 6c 07
	00 00		 cmp	 DWORD PTR _nYear$[ebp], 1900 ; 0000076cH
  00017	56		 push	 esi
  00018	8b f1		 mov	 esi, ecx
  0001a	7d 0a		 jge	 SHORT $LN66@CTime
$LN81@CTime:
  0001c	68 05 40 00 80	 push	 -2147467259		; 80004005H
$LN82@CTime:
  00021	e8 00 00 00 00	 call	 ?AtlThrowImpl@ATL@@YGXJ@Z ; ATL::AtlThrowImpl
$LN83@CTime:
$LN66@CTime:
  00026	53		 push	 ebx

; 187  : 	ATLENSURE( nMonth >= 1 && nMonth <= 12 );

  00027	8b 5d 0c	 mov	 ebx, DWORD PTR _nMonth$[ebp]
  0002a	8d 43 ff	 lea	 eax, DWORD PTR [ebx-1]
  0002d	57		 push	 edi
  0002e	83 f8 0b	 cmp	 eax, 11			; 0000000bH
  00031	77 e9		 ja	 SHORT $LN81@CTime

; 188  : 	ATLENSURE( nDay >= 1 && nDay <= 31 );

  00033	8b 55 10	 mov	 edx, DWORD PTR _nDay$[ebp]
  00036	8d 42 ff	 lea	 eax, DWORD PTR [edx-1]
  00039	83 f8 1e	 cmp	 eax, 30			; 0000001eH
  0003c	77 de		 ja	 SHORT $LN81@CTime

; 189  : 	ATLENSURE( nHour >= 0 && nHour <= 23 );

  0003e	8b 7d 14	 mov	 edi, DWORD PTR _nHour$[ebp]
  00041	83 ff 17	 cmp	 edi, 23			; 00000017H
  00044	77 d6		 ja	 SHORT $LN81@CTime

; 190  : 	ATLENSURE( nMin >= 0 && nMin <= 59 );

  00046	8b 4d 18	 mov	 ecx, DWORD PTR _nMin$[ebp]
  00049	83 f9 3b	 cmp	 ecx, 59			; 0000003bH
  0004c	77 ce		 ja	 SHORT $LN81@CTime

; 191  : 	ATLENSURE( nSec >= 0 && nSec <= 59 );

  0004e	8b 45 1c	 mov	 eax, DWORD PTR _nSec$[ebp]
  00051	83 f8 3b	 cmp	 eax, 59			; 0000003bH
  00054	77 c6		 ja	 SHORT $LN81@CTime

; 192  : 
; 193  : #pragma warning (pop)
; 194  : 
; 195  : 	struct tm atm;
; 196  : 
; 197  : 	atm.tm_sec = nSec;

  00056	89 45 d8	 mov	 DWORD PTR _atm$[ebp], eax

; 198  : 	atm.tm_min = nMin;
; 199  : 	atm.tm_hour = nHour;
; 200  : 	atm.tm_mday = nDay;
; 201  : 	atm.tm_mon = nMonth - 1;        // tm_mon is 0 based
; 202  : 	atm.tm_year = nYear - 1900;     // tm_year is 1900 based

  00059	8b 45 08	 mov	 eax, DWORD PTR _nYear$[ebp]
  0005c	05 94 f8 ff ff	 add	 eax, -1900		; fffff894H
  00061	89 45 ec	 mov	 DWORD PTR _atm$[ebp+20], eax

; 203  : 	atm.tm_isdst = nDST;

  00064	8b 45 20	 mov	 eax, DWORD PTR _nDST$[ebp]
  00067	89 45 f8	 mov	 DWORD PTR _atm$[ebp+32], eax

; 204  : 
; 205  : 	m_time = _mktime64(&atm);

  0006a	8d 45 d8	 lea	 eax, DWORD PTR _atm$[ebp]
  0006d	4b		 dec	 ebx
  0006e	50		 push	 eax
  0006f	89 4d dc	 mov	 DWORD PTR _atm$[ebp+4], ecx
  00072	89 7d e0	 mov	 DWORD PTR _atm$[ebp+8], edi
  00075	89 55 e4	 mov	 DWORD PTR _atm$[ebp+12], edx
  00078	89 5d e8	 mov	 DWORD PTR _atm$[ebp+16], ebx
  0007b	ff 15 00 00 00
	00		 call	 DWORD PTR __imp___mktime64
  00081	59		 pop	 ecx
  00082	89 06		 mov	 DWORD PTR [esi], eax

; 206  : 	ATLASSUME(m_time != -1);       // indicates an illegal input time
; 207  : 	if(m_time == -1)

  00084	23 c2		 and	 eax, edx
  00086	5f		 pop	 edi
  00087	89 56 04	 mov	 DWORD PTR [esi+4], edx
  0008a	5b		 pop	 ebx
  0008b	83 f8 ff	 cmp	 eax, -1
  0008e	75 07		 jne	 SHORT $LN1@CTime

; 208  : 	{
; 209  : 		AtlThrow(E_INVALIDARG);

  00090	68 57 00 07 80	 push	 -2147024809		; 80070057H
  00095	eb 8a		 jmp	 SHORT $LN82@CTime
$LN1@CTime:

; 210  : 	}
; 211  : }

  00097	8b 4d fc	 mov	 ecx, DWORD PTR __$ArrayPad$[ebp]
  0009a	8b c6		 mov	 eax, esi
  0009c	33 cd		 xor	 ecx, ebp
  0009e	5e		 pop	 esi
  0009f	e8 00 00 00 00	 call	 @__security_check_cookie@4
  000a4	c9		 leave
  000a5	c2 1c 00	 ret	 28			; 0000001cH
$LN80@CTime:
??0CTime@ATL@@QAE@HHHHHHH@Z ENDP			; ATL::CTime::CTime
_TEXT	ENDS
PUBLIC	__$ArrayPad$
PUBLIC	?GetLocalTm@CTime@ATL@@QBEPAUtm@@PAU3@@Z	; ATL::CTime::GetLocalTm
EXTRN	__imp___localtime64_s:PROC
; Function compile flags: /Ogsp
;	COMDAT ?GetLocalTm@CTime@ATL@@QBEPAUtm@@PAU3@@Z
_TEXT	SEGMENT
_ptmTemp$210365 = -40					; size = 36
__$ArrayPad$ = -4					; size = 4
_ptm$ = 8						; size = 4
?GetLocalTm@CTime@ATL@@QBEPAUtm@@PAU3@@Z PROC		; ATL::CTime::GetLocalTm, COMDAT
; _this$ = ecx

; 369  : {

  00000	55		 push	 ebp
  00001	8b ec		 mov	 ebp, esp
  00003	83 ec 28	 sub	 esp, 40			; 00000028H
  00006	a1 00 00 00 00	 mov	 eax, DWORD PTR ___security_cookie
  0000b	33 c5		 xor	 eax, ebp
  0000d	89 45 fc	 mov	 DWORD PTR __$ArrayPad$[ebp], eax
  00010	53		 push	 ebx
  00011	8b 5d 08	 mov	 ebx, DWORD PTR _ptm$[ebp]

; 370  : 	// Ensure ptm is valid
; 371  : 	ATLENSURE( ptm != NULL );

  00014	85 db		 test	 ebx, ebx
  00016	75 0a		 jne	 SHORT $LN15@GetLocalTm
  00018	68 05 40 00 80	 push	 -2147467259		; 80004005H
  0001d	e8 00 00 00 00	 call	 ?AtlThrowImpl@ATL@@YGXJ@Z ; ATL::AtlThrowImpl
$LN17@GetLocalTm:
$LN15@GetLocalTm:

; 372  : 
; 373  : 	if (ptm != NULL)
; 374  : 	{
; 375  : 		struct tm ptmTemp;
; 376  : 		errno_t err = _localtime64_s(&ptmTemp, &m_time);

  00022	51		 push	 ecx
  00023	8d 45 d8	 lea	 eax, DWORD PTR _ptmTemp$210365[ebp]
  00026	50		 push	 eax
  00027	ff 15 00 00 00
	00		 call	 DWORD PTR __imp___localtime64_s
  0002d	59		 pop	 ecx
  0002e	59		 pop	 ecx

; 377  : 
; 378  : 		if (err != 0)

  0002f	85 c0		 test	 eax, eax
  00031	74 04		 je	 SHORT $LN1@GetLocalTm

; 379  : 		{
; 380  : 			return NULL;    // indicates that m_time was not initialized!

  00033	33 c0		 xor	 eax, eax
  00035	eb 10		 jmp	 SHORT $LN13@GetLocalTm
$LN1@GetLocalTm:
  00037	56		 push	 esi
  00038	57		 push	 edi

; 381  : 		}
; 382  : 
; 383  : 		*ptm = ptmTemp;

  00039	6a 09		 push	 9
  0003b	59		 pop	 ecx
  0003c	8d 75 d8	 lea	 esi, DWORD PTR _ptmTemp$210365[ebp]
  0003f	8b fb		 mov	 edi, ebx
  00041	f3 a5		 rep movsd
  00043	5f		 pop	 edi

; 384  : 		return ptm;

  00044	8b c3		 mov	 eax, ebx
  00046	5e		 pop	 esi
$LN13@GetLocalTm:

; 385  : 	}
; 386  : 
; 387  : 	return NULL;
; 388  : }

  00047	8b 4d fc	 mov	 ecx, DWORD PTR __$ArrayPad$[ebp]
  0004a	33 cd		 xor	 ecx, ebp
  0004c	5b		 pop	 ebx
  0004d	e8 00 00 00 00	 call	 @__security_check_cookie@4
  00052	c9		 leave
  00053	c2 04 00	 ret	 4
$LN16@GetLocalTm:
?GetLocalTm@CTime@ATL@@QBEPAUtm@@PAU3@@Z ENDP		; ATL::CTime::GetLocalTm
_TEXT	ENDS
PUBLIC	__$ArrayPad$
PUBLIC	?GetYear@CTime@ATL@@QBEHXZ			; ATL::CTime::GetYear
; Function compile flags: /Ogsp
;	COMDAT ?GetYear@CTime@ATL@@QBEHXZ
_TEXT	SEGMENT
_ttm$ = -40						; size = 36
__$ArrayPad$ = -4					; size = 4
?GetYear@CTime@ATL@@QBEHXZ PROC				; ATL::CTime::GetYear, COMDAT
; _this$ = ecx

; 419  : {

  00000	55		 push	 ebp
  00001	8b ec		 mov	 ebp, esp
  00003	83 ec 28	 sub	 esp, 40			; 00000028H
  00006	a1 00 00 00 00	 mov	 eax, DWORD PTR ___security_cookie
  0000b	33 c5		 xor	 eax, ebp
  0000d	89 45 fc	 mov	 DWORD PTR __$ArrayPad$[ebp], eax

; 420  : 	struct tm ttm;
; 421  : 	struct tm * ptm;
; 422  : 
; 423  : 	ptm = GetLocalTm(&ttm);

  00010	8d 45 d8	 lea	 eax, DWORD PTR _ttm$[ebp]
  00013	50		 push	 eax
  00014	e8 00 00 00 00	 call	 ?GetLocalTm@CTime@ATL@@QBEPAUtm@@PAU3@@Z ; ATL::CTime::GetLocalTm

; 424  : 	return ptm ? (ptm->tm_year) + 1900 : 0 ;

  00019	85 c0		 test	 eax, eax
  0001b	74 0a		 je	 SHORT $LN3@GetYear
  0001d	8b 40 14	 mov	 eax, DWORD PTR [eax+20]
  00020	05 6c 07 00 00	 add	 eax, 1900		; 0000076cH
  00025	eb 02		 jmp	 SHORT $LN4@GetYear
$LN3@GetYear:
  00027	33 c0		 xor	 eax, eax
$LN4@GetYear:

; 425  : }

  00029	8b 4d fc	 mov	 ecx, DWORD PTR __$ArrayPad$[ebp]
  0002c	33 cd		 xor	 ecx, ebp
  0002e	e8 00 00 00 00	 call	 @__security_check_cookie@4
  00033	c9		 leave
  00034	c3		 ret	 0
?GetYear@CTime@ATL@@QBEHXZ ENDP				; ATL::CTime::GetYear
_TEXT	ENDS
PUBLIC	__$ArrayPad$
PUBLIC	?GetMonth@CTime@ATL@@QBEHXZ			; ATL::CTime::GetMonth
; Function compile flags: /Ogsp
;	COMDAT ?GetMonth@CTime@ATL@@QBEHXZ
_TEXT	SEGMENT
_ttm$ = -40						; size = 36
__$ArrayPad$ = -4					; size = 4
?GetMonth@CTime@ATL@@QBEHXZ PROC			; ATL::CTime::GetMonth, COMDAT
; _this$ = ecx

; 428  : {

  00000	55		 push	 ebp
  00001	8b ec		 mov	 ebp, esp
  00003	83 ec 28	 sub	 esp, 40			; 00000028H
  00006	a1 00 00 00 00	 mov	 eax, DWORD PTR ___security_cookie
  0000b	33 c5		 xor	 eax, ebp
  0000d	89 45 fc	 mov	 DWORD PTR __$ArrayPad$[ebp], eax

; 429  : 	struct tm ttm;
; 430  : 	struct tm * ptm;
; 431  : 
; 432  : 	ptm = GetLocalTm(&ttm);

  00010	8d 45 d8	 lea	 eax, DWORD PTR _ttm$[ebp]
  00013	50		 push	 eax
  00014	e8 00 00 00 00	 call	 ?GetLocalTm@CTime@ATL@@QBEPAUtm@@PAU3@@Z ; ATL::CTime::GetLocalTm

; 433  : 	return ptm ? ptm->tm_mon + 1 : 0;

  00019	85 c0		 test	 eax, eax
  0001b	74 06		 je	 SHORT $LN3@GetMonth
  0001d	8b 40 10	 mov	 eax, DWORD PTR [eax+16]
  00020	40		 inc	 eax
  00021	eb 02		 jmp	 SHORT $LN4@GetMonth
$LN3@GetMonth:
  00023	33 c0		 xor	 eax, eax
$LN4@GetMonth:

; 434  : }

  00025	8b 4d fc	 mov	 ecx, DWORD PTR __$ArrayPad$[ebp]
  00028	33 cd		 xor	 ecx, ebp
  0002a	e8 00 00 00 00	 call	 @__security_check_cookie@4
  0002f	c9		 leave
  00030	c3		 ret	 0
?GetMonth@CTime@ATL@@QBEHXZ ENDP			; ATL::CTime::GetMonth
_TEXT	ENDS
PUBLIC	__$ArrayPad$
PUBLIC	?GetDay@CTime@ATL@@QBEHXZ			; ATL::CTime::GetDay
; Function compile flags: /Ogsp
;	COMDAT ?GetDay@CTime@ATL@@QBEHXZ
_TEXT	SEGMENT
_ttm$ = -40						; size = 36
__$ArrayPad$ = -4					; size = 4
?GetDay@CTime@ATL@@QBEHXZ PROC				; ATL::CTime::GetDay, COMDAT
; _this$ = ecx

; 437  : {

  00000	55		 push	 ebp
  00001	8b ec		 mov	 ebp, esp
  00003	83 ec 28	 sub	 esp, 40			; 00000028H
  00006	a1 00 00 00 00	 mov	 eax, DWORD PTR ___security_cookie
  0000b	33 c5		 xor	 eax, ebp
  0000d	89 45 fc	 mov	 DWORD PTR __$ArrayPad$[ebp], eax

; 438  : 	struct tm ttm;
; 439  : 	struct tm * ptm;
; 440  : 
; 441  : 	ptm = GetLocalTm(&ttm);

  00010	8d 45 d8	 lea	 eax, DWORD PTR _ttm$[ebp]
  00013	50		 push	 eax
  00014	e8 00 00 00 00	 call	 ?GetLocalTm@CTime@ATL@@QBEPAUtm@@PAU3@@Z ; ATL::CTime::GetLocalTm

; 442  : 	return ptm ? ptm->tm_mday : 0 ;

  00019	85 c0		 test	 eax, eax
  0001b	74 05		 je	 SHORT $LN3@GetDay
  0001d	8b 40 0c	 mov	 eax, DWORD PTR [eax+12]
  00020	eb 02		 jmp	 SHORT $LN4@GetDay
$LN3@GetDay:
  00022	33 c0		 xor	 eax, eax
$LN4@GetDay:

; 443  : }

  00024	8b 4d fc	 mov	 ecx, DWORD PTR __$ArrayPad$[ebp]
  00027	33 cd		 xor	 ecx, ebp
  00029	e8 00 00 00 00	 call	 @__security_check_cookie@4
  0002e	c9		 leave
  0002f	c3		 ret	 0
?GetDay@CTime@ATL@@QBEHXZ ENDP				; ATL::CTime::GetDay
_TEXT	ENDS
PUBLIC	__$ArrayPad$
PUBLIC	?GetHour@CTime@ATL@@QBEHXZ			; ATL::CTime::GetHour
; Function compile flags: /Ogsp
;	COMDAT ?GetHour@CTime@ATL@@QBEHXZ
_TEXT	SEGMENT
_ttm$ = -40						; size = 36
__$ArrayPad$ = -4					; size = 4
?GetHour@CTime@ATL@@QBEHXZ PROC				; ATL::CTime::GetHour, COMDAT
; _this$ = ecx

; 446  : {

  00000	55		 push	 ebp
  00001	8b ec		 mov	 ebp, esp
  00003	83 ec 28	 sub	 esp, 40			; 00000028H
  00006	a1 00 00 00 00	 mov	 eax, DWORD PTR ___security_cookie
  0000b	33 c5		 xor	 eax, ebp
  0000d	89 45 fc	 mov	 DWORD PTR __$ArrayPad$[ebp], eax

; 447  : 	struct tm ttm;
; 448  : 	struct tm * ptm;
; 449  : 
; 450  : 	ptm = GetLocalTm(&ttm);

  00010	8d 45 d8	 lea	 eax, DWORD PTR _ttm$[ebp]
  00013	50		 push	 eax
  00014	e8 00 00 00 00	 call	 ?GetLocalTm@CTime@ATL@@QBEPAUtm@@PAU3@@Z ; ATL::CTime::GetLocalTm

; 451  : 	return ptm ? ptm->tm_hour : -1 ;

  00019	85 c0		 test	 eax, eax
  0001b	74 05		 je	 SHORT $LN3@GetHour
  0001d	8b 40 08	 mov	 eax, DWORD PTR [eax+8]
  00020	eb 03		 jmp	 SHORT $LN4@GetHour
$LN3@GetHour:
  00022	83 c8 ff	 or	 eax, -1
$LN4@GetHour:

; 452  : }

  00025	8b 4d fc	 mov	 ecx, DWORD PTR __$ArrayPad$[ebp]
  00028	33 cd		 xor	 ecx, ebp
  0002a	e8 00 00 00 00	 call	 @__security_check_cookie@4
  0002f	c9		 leave
  00030	c3		 ret	 0
?GetHour@CTime@ATL@@QBEHXZ ENDP				; ATL::CTime::GetHour
_TEXT	ENDS
PUBLIC	?_DECSTR@@YAXPADH@Z				; _DECSTR
; Function compile flags: /Ogsp
; File d:\lost saga for developer\youtube\tutorial\source\src\lsclient\stringprotect.h
;	COMDAT ?_DECSTR@@YAXPADH@Z
_TEXT	SEGMENT
_s$ = 8							; size = 4
_l$ = 12						; size = 4
?_DECSTR@@YAXPADH@Z PROC				; _DECSTR, COMDAT

; 40   : __forceinline void _DECSTR(char* s, int l){int i=0,l4=(l-1)/4,*p=(int*)s;s[l-1]=0;for(;i<l4;++i)*(p++)^=0xEAEBECED;for(i=l4*4;i<l-1;++i)s[i]^=0xED-i%4;}

  00000	55		 push	 ebp
  00001	8b ec		 mov	 ebp, esp
  00003	8b 4d 0c	 mov	 ecx, DWORD PTR _l$[ebp]
  00006	56		 push	 esi
  00007	8b 75 08	 mov	 esi, DWORD PTR _s$[ebp]
  0000a	57		 push	 edi
  0000b	8d 79 ff	 lea	 edi, DWORD PTR [ecx-1]
  0000e	8b c7		 mov	 eax, edi
  00010	99		 cdq
  00011	83 e2 03	 and	 edx, 3
  00014	03 c2		 add	 eax, edx
  00016	c1 f8 02	 sar	 eax, 2
  00019	8b d6		 mov	 edx, esi
  0001b	c6 44 0e ff 00	 mov	 BYTE PTR [esi+ecx-1], 0
  00020	85 c0		 test	 eax, eax
  00022	7e 0e		 jle	 SHORT $LN4@DECSTR
  00024	8b c8		 mov	 ecx, eax
$LL6@DECSTR:
  00026	81 32 ed ec eb
	ea		 xor	 DWORD PTR [edx], -353637139 ; eaebecedH
  0002c	83 c2 04	 add	 edx, 4
  0002f	49		 dec	 ecx
  00030	75 f4		 jne	 SHORT $LL6@DECSTR
$LN4@DECSTR:
  00032	c1 e0 02	 shl	 eax, 2
  00035	eb 17		 jmp	 SHORT $LN14@DECSTR
$LL3@DECSTR:
  00037	8b c8		 mov	 ecx, eax
  00039	81 e1 03 00 00
	80		 and	 ecx, -2147483645	; 80000003H
  0003f	79 05		 jns	 SHORT $LN13@DECSTR
  00041	49		 dec	 ecx
  00042	83 c9 fc	 or	 ecx, -4			; fffffffcH
  00045	41		 inc	 ecx
$LN13@DECSTR:
  00046	b2 ed		 mov	 dl, -19			; ffffffedH
  00048	2a d1		 sub	 dl, cl
  0004a	30 14 30	 xor	 BYTE PTR [eax+esi], dl
  0004d	40		 inc	 eax
$LN14@DECSTR:
  0004e	3b c7		 cmp	 eax, edi
  00050	7c e5		 jl	 SHORT $LL3@DECSTR
  00052	5f		 pop	 edi
  00053	5e		 pop	 esi
  00054	5d		 pop	 ebp
  00055	c3		 ret	 0
?_DECSTR@@YAXPADH@Z ENDP				; _DECSTR
_TEXT	ENDS
EXTRN	__imp_??0exception@std@@QAE@ABV01@@Z:PROC
; Function compile flags: /Ogsp
;	COMDAT ??0bad_alloc@std@@QAE@ABV01@@Z
_TEXT	SEGMENT
___that$ = 8						; size = 4
??0bad_alloc@std@@QAE@ABV01@@Z PROC			; std::bad_alloc::bad_alloc, COMDAT
; _this$ = ecx
  00000	55		 push	 ebp
  00001	8b ec		 mov	 ebp, esp
  00003	56		 push	 esi
  00004	ff 75 08	 push	 DWORD PTR ___that$[ebp]
  00007	8b f1		 mov	 esi, ecx
  00009	ff 15 00 00 00
	00		 call	 DWORD PTR __imp_??0exception@std@@QAE@ABV01@@Z
  0000f	c7 06 00 00 00
	00		 mov	 DWORD PTR [esi], OFFSET ??_7bad_alloc@std@@6B@
  00015	8b c6		 mov	 eax, esi
  00017	5e		 pop	 esi
  00018	5d		 pop	 ebp
  00019	c2 04 00	 ret	 4
??0bad_alloc@std@@QAE@ABV01@@Z ENDP			; std::bad_alloc::bad_alloc
_TEXT	ENDS
PUBLIC	?GetSingleton@ioMissionManager@@SAAAV1@XZ	; ioMissionManager::GetSingleton
; Function compile flags: /Ogsp
; File d:\lost saga for developer\youtube\tutorial\source\src\lsclient\iomissionmanager.cpp
;	COMDAT ?GetSingleton@ioMissionManager@@SAAAV1@XZ
_TEXT	SEGMENT
?GetSingleton@ioMissionManager@@SAAAV1@XZ PROC		; ioMissionManager::GetSingleton, COMDAT

; 22   : 	return Singleton< ioMissionManager >::GetSingleton();

  00000	a1 00 00 00 00	 mov	 eax, DWORD PTR ?ms_Singleton@?$Singleton@VioMissionManager@@@@1PAVioMissionManager@@A ; Singleton<ioMissionManager>::ms_Singleton

; 23   : }

  00005	c3		 ret	 0
?GetSingleton@ioMissionManager@@SAAAV1@XZ ENDP		; ioMissionManager::GetSingleton
_TEXT	ENDS
PUBLIC	?GetMissionToArray@ioMissionManager@@QBEQBVioMission@@ABH0@Z ; ioMissionManager::GetMissionToArray
; Function compile flags: /Ogsp
;	COMDAT ?GetMissionToArray@ioMissionManager@@QBEQBVioMission@@ABH0@Z
_TEXT	SEGMENT
_iType$ = 8						; size = 4
_iArray$ = 12						; size = 4
?GetMissionToArray@ioMissionManager@@QBEQBVioMission@@ABH0@Z PROC ; ioMissionManager::GetMissionToArray, COMDAT
; _this$ = ecx

; 302  : {

  00000	55		 push	 ebp
  00001	8b ec		 mov	 ebp, esp

; 303  : 	if ( !COMPARE( iType, MDT_DAILY, MDT_MAX ) )

  00003	8b 45 08	 mov	 eax, DWORD PTR _iType$[ebp]
  00006	8b 00		 mov	 eax, DWORD PTR [eax]
  00008	85 c0		 test	 eax, eax
  0000a	78 27		 js	 SHORT $LN3@GetMission
  0000c	83 f8 03	 cmp	 eax, 3
  0000f	7d 22		 jge	 SHORT $LN3@GetMission

; 305  : 
; 306  : 	int iSize = (int)m_CurDayMissionList[iType].size();

  00011	03 c0		 add	 eax, eax
  00013	8d 44 c1 04	 lea	 eax, DWORD PTR [ecx+eax*8+4]

; 307  : 	if ( !COMPARE( iArray, 0, iSize ) )

  00017	8b 4d 0c	 mov	 ecx, DWORD PTR _iArray$[ebp]
  0001a	8b 09		 mov	 ecx, DWORD PTR [ecx]
  0001c	85 c9		 test	 ecx, ecx
  0001e	78 13		 js	 SHORT $LN3@GetMission

; 305  : 
; 306  : 	int iSize = (int)m_CurDayMissionList[iType].size();

  00020	8b 50 04	 mov	 edx, DWORD PTR [eax+4]
  00023	2b 10		 sub	 edx, DWORD PTR [eax]
  00025	c1 fa 02	 sar	 edx, 2

; 307  : 	if ( !COMPARE( iArray, 0, iSize ) )

  00028	3b ca		 cmp	 ecx, edx
  0002a	7d 07		 jge	 SHORT $LN3@GetMission

; 308  : 		return NULL;
; 309  : 
; 310  : 	return m_CurDayMissionList[iType][iArray];

  0002c	8b 00		 mov	 eax, DWORD PTR [eax]
  0002e	8b 04 88	 mov	 eax, DWORD PTR [eax+ecx*4]
  00031	eb 02		 jmp	 SHORT $LN5@GetMission
$LN3@GetMission:

; 304  : 		return NULL;

  00033	33 c0		 xor	 eax, eax
$LN5@GetMission:

; 311  : }

  00035	5d		 pop	 ebp
  00036	c2 08 00	 ret	 8
?GetMissionToArray@ioMissionManager@@QBEQBVioMission@@ABH0@Z ENDP ; ioMissionManager::GetMissionToArray
_TEXT	ENDS
PUBLIC	?GetMissionToCode@ioMissionManager@@QBEQBVioMission@@ABH0@Z ; ioMissionManager::GetMissionToCode
; Function compile flags: /Ogsp
;	COMDAT ?GetMissionToCode@ioMissionManager@@QBEQBVioMission@@ABH0@Z
_TEXT	SEGMENT
_iType$ = 8						; size = 4
_iCode$ = 12						; size = 4
?GetMissionToCode@ioMissionManager@@QBEQBVioMission@@ABH0@Z PROC ; ioMissionManager::GetMissionToCode, COMDAT
; _this$ = ecx

; 314  : {

  00000	55		 push	 ebp
  00001	8b ec		 mov	 ebp, esp

; 315  : 	if ( !COMPARE( iType, MDT_DAILY, MDT_MAX ) )

  00003	8b 45 08	 mov	 eax, DWORD PTR _iType$[ebp]
  00006	8b 00		 mov	 eax, DWORD PTR [eax]
  00008	53		 push	 ebx
  00009	56		 push	 esi
  0000a	57		 push	 edi
  0000b	85 c0		 test	 eax, eax
  0000d	78 3a		 js	 SHORT $LN5@GetMission@2
  0000f	83 f8 03	 cmp	 eax, 3
  00012	7d 35		 jge	 SHORT $LN5@GetMission@2

; 317  : 
; 318  : 	for ( int i=0 ; i<(int)m_CurDayMissionList[iType].size() ; ++i )

  00014	03 c0		 add	 eax, eax
  00016	8d 44 c1 04	 lea	 eax, DWORD PTR [ecx+eax*8+4]
  0001a	8b 48 04	 mov	 ecx, DWORD PTR [eax+4]
  0001d	2b 08		 sub	 ecx, DWORD PTR [eax]
  0001f	33 ff		 xor	 edi, edi
  00021	f7 c1 fc ff ff
	ff		 test	 ecx, -4			; fffffffcH
  00027	7e 20		 jle	 SHORT $LN5@GetMission@2
  00029	8b 08		 mov	 ecx, DWORD PTR [eax]
  0002b	8b 55 0c	 mov	 edx, DWORD PTR _iCode$[ebp]
  0002e	8b 12		 mov	 edx, DWORD PTR [edx]
  00030	8b f1		 mov	 esi, ecx
$LL4@GetMission@2:

; 319  : 	{
; 320  : 		if ( m_CurDayMissionList[iType][i]->GetMagicCode() == iCode )

  00032	8b 1e		 mov	 ebx, DWORD PTR [esi]
  00034	39 53 08	 cmp	 DWORD PTR [ebx+8], edx
  00037	74 19		 je	 SHORT $LN18@GetMission@2

; 317  : 
; 318  : 	for ( int i=0 ; i<(int)m_CurDayMissionList[iType].size() ; ++i )

  00039	8b 58 04	 mov	 ebx, DWORD PTR [eax+4]
  0003c	2b d9		 sub	 ebx, ecx
  0003e	47		 inc	 edi
  0003f	c1 fb 02	 sar	 ebx, 2
  00042	83 c6 04	 add	 esi, 4
  00045	3b fb		 cmp	 edi, ebx
  00047	7c e9		 jl	 SHORT $LL4@GetMission@2
$LN5@GetMission@2:

; 316  : 		return NULL;

  00049	33 c0		 xor	 eax, eax
$LN7@GetMission@2:
  0004b	5f		 pop	 edi
  0004c	5e		 pop	 esi
  0004d	5b		 pop	 ebx

; 322  : 	}
; 323  : 
; 324  : 	return NULL;
; 325  : }

  0004e	5d		 pop	 ebp
  0004f	c2 08 00	 ret	 8
$LN18@GetMission@2:

; 321  : 			return m_CurDayMissionList[iType][i];

  00052	8b 04 b9	 mov	 eax, DWORD PTR [ecx+edi*4]
  00055	eb f4		 jmp	 SHORT $LN7@GetMission@2
?GetMissionToCode@ioMissionManager@@QBEQBVioMission@@ABH0@Z ENDP ; ioMissionManager::GetMissionToCode
_TEXT	ENDS
PUBLIC	?GetMissionToCode@ioMissionManager@@QBEQBVioMission@@ABH@Z ; ioMissionManager::GetMissionToCode
; Function compile flags: /Ogsp
;	COMDAT ?GetMissionToCode@ioMissionManager@@QBEQBVioMission@@ABH@Z
_TEXT	SEGMENT
_this$ = -8						; size = 4
_i$507881 = -4						; size = 4
_iCode$ = 8						; size = 4
?GetMissionToCode@ioMissionManager@@QBEQBVioMission@@ABH@Z PROC ; ioMissionManager::GetMissionToCode, COMDAT
; _this$ = ecx

; 328  : {

  00000	55		 push	 ebp
  00001	8b ec		 mov	 ebp, esp
  00003	51		 push	 ecx
  00004	51		 push	 ecx
  00005	53		 push	 ebx
  00006	8b c1		 mov	 eax, ecx
  00008	56		 push	 esi
  00009	89 45 f8	 mov	 DWORD PTR _this$[ebp], eax

; 329  : 	for( int iType=MDT_DAILY ; iType<MDT_MAX ; ++iType )

  0000c	33 f6		 xor	 esi, esi
  0000e	57		 push	 edi
  0000f	83 c0 04	 add	 eax, 4
$LL23@GetMission@3:

; 330  : 	{
; 331  : 		for ( int i=0 ; i<(int)m_CurDayMissionList[iType].size() ; ++i )

  00012	8b 50 04	 mov	 edx, DWORD PTR [eax+4]
  00015	2b 10		 sub	 edx, DWORD PTR [eax]
  00017	83 65 fc 00	 and	 DWORD PTR _i$507881[ebp], 0
  0001b	c1 fa 02	 sar	 edx, 2
  0001e	85 d2		 test	 edx, edx
  00020	7e 19		 jle	 SHORT $LN6@GetMission@3
  00022	8b 4d 08	 mov	 ecx, DWORD PTR _iCode$[ebp]
  00025	8b 09		 mov	 ecx, DWORD PTR [ecx]
  00027	8b 38		 mov	 edi, DWORD PTR [eax]
$LL4@GetMission@3:

; 332  : 		{
; 333  : 			if ( m_CurDayMissionList[iType][i]->GetMagicCode() == iCode )

  00029	8b 1f		 mov	 ebx, DWORD PTR [edi]
  0002b	39 4b 08	 cmp	 DWORD PTR [ebx+8], ecx
  0002e	74 1d		 je	 SHORT $LN20@GetMission@3

; 330  : 	{
; 331  : 		for ( int i=0 ; i<(int)m_CurDayMissionList[iType].size() ; ++i )

  00030	ff 45 fc	 inc	 DWORD PTR _i$507881[ebp]
  00033	83 c7 04	 add	 edi, 4
  00036	39 55 fc	 cmp	 DWORD PTR _i$507881[ebp], edx
  00039	7c ee		 jl	 SHORT $LL4@GetMission@3
$LN6@GetMission@3:

; 329  : 	for( int iType=MDT_DAILY ; iType<MDT_MAX ; ++iType )

  0003b	46		 inc	 esi
  0003c	83 c0 10	 add	 eax, 16			; 00000010H
  0003f	83 fe 03	 cmp	 esi, 3
  00042	7c ce		 jl	 SHORT $LL23@GetMission@3

; 335  : 		}
; 336  : 	}
; 337  : 
; 338  : 	return NULL;

  00044	33 c0		 xor	 eax, eax
$LN8@GetMission@3:
  00046	5f		 pop	 edi
  00047	5e		 pop	 esi
  00048	5b		 pop	 ebx

; 339  : }

  00049	c9		 leave
  0004a	c2 04 00	 ret	 4
$LN20@GetMission@3:

; 334  : 				return m_CurDayMissionList[iType][i];

  0004d	8b 45 f8	 mov	 eax, DWORD PTR _this$[ebp]
  00050	8b 4d fc	 mov	 ecx, DWORD PTR _i$507881[ebp]
  00053	03 f6		 add	 esi, esi
  00055	8d 44 f0 04	 lea	 eax, DWORD PTR [eax+esi*8+4]
  00059	8b 00		 mov	 eax, DWORD PTR [eax]
  0005b	8b 04 88	 mov	 eax, DWORD PTR [eax+ecx*4]
  0005e	eb e6		 jmp	 SHORT $LN8@GetMission@3
?GetMissionToCode@ioMissionManager@@QBEQBVioMission@@ABH@Z ENDP ; ioMissionManager::GetMissionToCode
_TEXT	ENDS
PUBLIC	?GetMissionCountToType@ioMissionManager@@QBEHABH@Z ; ioMissionManager::GetMissionCountToType
; Function compile flags: /Ogsp
;	COMDAT ?GetMissionCountToType@ioMissionManager@@QBEHABH@Z
_TEXT	SEGMENT
_iType$ = 8						; size = 4
?GetMissionCountToType@ioMissionManager@@QBEHABH@Z PROC	; ioMissionManager::GetMissionCountToType, COMDAT
; _this$ = ecx

; 342  : {

  00000	55		 push	 ebp
  00001	8b ec		 mov	 ebp, esp

; 343  : 	if ( !COMPARE( iType, MDT_DAILY, MDT_MAX ) )

  00003	8b 45 08	 mov	 eax, DWORD PTR _iType$[ebp]
  00006	8b 00		 mov	 eax, DWORD PTR [eax]
  00008	85 c0		 test	 eax, eax
  0000a	78 15		 js	 SHORT $LN1@GetMission@4
  0000c	83 f8 03	 cmp	 eax, 3
  0000f	7d 10		 jge	 SHORT $LN1@GetMission@4

; 345  : 
; 346  : 	return m_CurDayMissionList[iType].size();

  00011	03 c0		 add	 eax, eax
  00013	8d 4c c1 04	 lea	 ecx, DWORD PTR [ecx+eax*8+4]
  00017	8b 41 04	 mov	 eax, DWORD PTR [ecx+4]
  0001a	2b 01		 sub	 eax, DWORD PTR [ecx]
  0001c	c1 f8 02	 sar	 eax, 2
  0001f	eb 03		 jmp	 SHORT $LN3@GetMission@4
$LN1@GetMission@4:

; 344  : 		return -1;

  00021	83 c8 ff	 or	 eax, -1
$LN3@GetMission@4:

; 347  : }

  00024	5d		 pop	 ebp
  00025	c2 04 00	 ret	 4
?GetMissionCountToType@ioMissionManager@@QBEHABH@Z ENDP	; ioMissionManager::GetMissionCountToType
_TEXT	ENDS
PUBLIC	?GetClearTypeCountToType@ioMissionManager@@QBEHABH0@Z ; ioMissionManager::GetClearTypeCountToType
; Function compile flags: /Ogsp
;	COMDAT ?GetClearTypeCountToType@ioMissionManager@@QBEHABH0@Z
_TEXT	SEGMENT
_iType$ = 8						; size = 4
_iClearType$ = 12					; size = 4
?GetClearTypeCountToType@ioMissionManager@@QBEHABH0@Z PROC ; ioMissionManager::GetClearTypeCountToType, COMDAT
; _this$ = ecx

; 350  : {

  00000	55		 push	 ebp
  00001	8b ec		 mov	 ebp, esp

; 351  : 	if ( !COMPARE( iType, MDT_DAILY, MDT_MAX ) )

  00003	8b 45 08	 mov	 eax, DWORD PTR _iType$[ebp]
  00006	8b 10		 mov	 edx, DWORD PTR [eax]
  00008	57		 push	 edi
  00009	85 d2		 test	 edx, edx
  0000b	78 4e		 js	 SHORT $LN7@GetClearTy
  0000d	83 fa 03	 cmp	 edx, 3
  00010	7d 49		 jge	 SHORT $LN7@GetClearTy

; 353  : 
; 354  : 	if ( !COMPARE( iClearType, MIS_PROGRESS, MIS_COMPLETE + 1 ) )

  00012	8b 45 0c	 mov	 eax, DWORD PTR _iClearType$[ebp]
  00015	8b 38		 mov	 edi, DWORD PTR [eax]
  00017	83 ff 01	 cmp	 edi, 1
  0001a	7c 3f		 jl	 SHORT $LN7@GetClearTy
  0001c	83 ff 04	 cmp	 edi, 4
  0001f	7d 3a		 jge	 SHORT $LN7@GetClearTy

; 358  : 	for ( int i=0 ; i<(int)m_CurDayMissionList[iType].size() ; ++i )

  00021	03 d2		 add	 edx, edx
  00023	8d 4c d1 04	 lea	 ecx, DWORD PTR [ecx+edx*8+4]
  00027	8b 51 04	 mov	 edx, DWORD PTR [ecx+4]
  0002a	2b 11		 sub	 edx, DWORD PTR [ecx]
  0002c	56		 push	 esi
  0002d	33 c0		 xor	 eax, eax
  0002f	33 f6		 xor	 esi, esi
  00031	f7 c2 fc ff ff
	ff		 test	 edx, -4			; fffffffcH
  00037	7e 1f		 jle	 SHORT $LN2@GetClearTy

; 355  : 		return -1;
; 356  : 
; 357  : 	int iCount = 0;

  00039	8b 11		 mov	 edx, DWORD PTR [ecx]
  0003b	53		 push	 ebx
$LL4@GetClearTy:

; 359  : 	{
; 360  : 		if ( m_CurDayMissionList[iType][i]->GetClearMissionType() == iClearType )

  0003c	8b 1a		 mov	 ebx, DWORD PTR [edx]
  0003e	0f b6 5b 30	 movzx	 ebx, BYTE PTR [ebx+48]
  00042	3b df		 cmp	 ebx, edi
  00044	75 01		 jne	 SHORT $LN3@GetClearTy

; 361  : 			iCount++;

  00046	40		 inc	 eax
$LN3@GetClearTy:

; 358  : 	for ( int i=0 ; i<(int)m_CurDayMissionList[iType].size() ; ++i )

  00047	8b 59 04	 mov	 ebx, DWORD PTR [ecx+4]
  0004a	2b 19		 sub	 ebx, DWORD PTR [ecx]
  0004c	46		 inc	 esi
  0004d	c1 fb 02	 sar	 ebx, 2
  00050	83 c2 04	 add	 edx, 4
  00053	3b f3		 cmp	 esi, ebx
  00055	7c e5		 jl	 SHORT $LL4@GetClearTy
  00057	5b		 pop	 ebx
$LN2@GetClearTy:
  00058	5e		 pop	 esi

; 362  : 	}
; 363  : 
; 364  : 	return iCount;

  00059	eb 03		 jmp	 SHORT $LN9@GetClearTy
$LN7@GetClearTy:

; 352  : 		return -1;

  0005b	83 c8 ff	 or	 eax, -1
$LN9@GetClearTy:
  0005e	5f		 pop	 edi

; 365  : }

  0005f	5d		 pop	 ebp
  00060	c2 08 00	 ret	 8
?GetClearTypeCountToType@ioMissionManager@@QBEHABH0@Z ENDP ; ioMissionManager::GetClearTypeCountToType
_TEXT	ENDS
PUBLIC	?GetAttinCountToType@ioMissionManager@@QBEHABH@Z ; ioMissionManager::GetAttinCountToType
; Function compile flags: /Ogsp
;	COMDAT ?GetAttinCountToType@ioMissionManager@@QBEHABH@Z
_TEXT	SEGMENT
_iType$ = 8						; size = 4
?GetAttinCountToType@ioMissionManager@@QBEHABH@Z PROC	; ioMissionManager::GetAttinCountToType, COMDAT
; _this$ = ecx

; 368  : {

  00000	55		 push	 ebp
  00001	8b ec		 mov	 ebp, esp

; 369  : 	if ( !COMPARE( iType, MDT_DAILY, MDT_MAX ) )

  00003	8b 45 08	 mov	 eax, DWORD PTR _iType$[ebp]
  00006	8b 10		 mov	 edx, DWORD PTR [eax]
  00008	85 d2		 test	 edx, edx
  0000a	78 3d		 js	 SHORT $LN5@GetAttinCo
  0000c	83 fa 03	 cmp	 edx, 3
  0000f	7d 38		 jge	 SHORT $LN5@GetAttinCo

; 373  : 	for ( int i=0 ; i<(int)m_CurDayMissionList[iType].size() ; ++i )

  00011	03 d2		 add	 edx, edx
  00013	8d 4c d1 04	 lea	 ecx, DWORD PTR [ecx+edx*8+4]
  00017	8b 51 04	 mov	 edx, DWORD PTR [ecx+4]
  0001a	2b 11		 sub	 edx, DWORD PTR [ecx]
  0001c	56		 push	 esi
  0001d	33 c0		 xor	 eax, eax
  0001f	33 f6		 xor	 esi, esi
  00021	f7 c2 fc ff ff
	ff		 test	 edx, -4			; fffffffcH
  00027	7e 1d		 jle	 SHORT $LN2@GetAttinCo

; 371  : 
; 372  : 	int iCount = 0;

  00029	8b 11		 mov	 edx, DWORD PTR [ecx]
  0002b	57		 push	 edi
$LL4@GetAttinCo:

; 374  : 	{
; 375  : 		if ( m_CurDayMissionList[iType][i]->GetClearMissionType() == MIS_ATTAIN )

  0002c	8b 3a		 mov	 edi, DWORD PTR [edx]
  0002e	80 7f 30 02	 cmp	 BYTE PTR [edi+48], 2
  00032	75 01		 jne	 SHORT $LN3@GetAttinCo

; 376  : 			iCount++;

  00034	40		 inc	 eax
$LN3@GetAttinCo:

; 373  : 	for ( int i=0 ; i<(int)m_CurDayMissionList[iType].size() ; ++i )

  00035	8b 79 04	 mov	 edi, DWORD PTR [ecx+4]
  00038	2b 39		 sub	 edi, DWORD PTR [ecx]
  0003a	46		 inc	 esi
  0003b	c1 ff 02	 sar	 edi, 2
  0003e	83 c2 04	 add	 edx, 4
  00041	3b f7		 cmp	 esi, edi
  00043	7c e7		 jl	 SHORT $LL4@GetAttinCo
  00045	5f		 pop	 edi
$LN2@GetAttinCo:
  00046	5e		 pop	 esi

; 377  : 	}
; 378  : 
; 379  : 	return iCount;

  00047	eb 03		 jmp	 SHORT $LN7@GetAttinCo
$LN5@GetAttinCo:

; 370  : 		return -1;

  00049	83 c8 ff	 or	 eax, -1
$LN7@GetAttinCo:

; 380  : }

  0004c	5d		 pop	 ebp
  0004d	c2 04 00	 ret	 4
?GetAttinCountToType@ioMissionManager@@QBEHABH@Z ENDP	; ioMissionManager::GetAttinCountToType
_TEXT	ENDS
PUBLIC	??_C@_0EG@HGDHPCPB@ioMissionManager?3?3SetMissionToCo@ ; `string'
PUBLIC	?SetMissionToCode@ioMissionManager@@QAEXHHE@Z	; ioMissionManager::SetMissionToCode
EXTRN	?SetMissionState@ioMission@@QAEXHE@Z:PROC	; ioMission::SetMissionState
;	COMDAT ??_C@_0EG@HGDHPCPB@ioMissionManager?3?3SetMissionToCo@
; File c:\program files (x86)\microsoft visual studio 10.0\vc\include\vector
CONST	SEGMENT
??_C@_0EG@HGDHPCPB@ioMissionManager?3?3SetMissionToCo@ DB 'ioMissionManag'
	DB	'er::SetMissionToCode : MissionCode Not Exist, code : %d', 00H ; `string'
; Function compile flags: /Ogsp
; File d:\lost saga for developer\youtube\tutorial\source\src\lsclient\iomissionmanager.cpp
CONST	ENDS
;	COMDAT ?SetMissionToCode@ioMissionManager@@QAEXHHE@Z
_TEXT	SEGMENT
tv129 = -8						; size = 4
_pMission$ = -4						; size = 4
tv263 = 8						; size = 4
_iCode$ = 8						; size = 4
_iValue$ = 12						; size = 4
_iClearMissionType$ = 16				; size = 1
?SetMissionToCode@ioMissionManager@@QAEXHHE@Z PROC	; ioMissionManager::SetMissionToCode, COMDAT
; _this$ = ecx

; 384  : {

  00000	55		 push	 ebp
  00001	8b ec		 mov	 ebp, esp
  00003	51		 push	 ecx
  00004	51		 push	 ecx

; 385  : 	ioMission* pMission = NULL;

  00005	83 65 fc 00	 and	 DWORD PTR _pMission$[ebp], 0
  00009	53		 push	 ebx
  0000a	56		 push	 esi
  0000b	8d 51 04	 lea	 edx, DWORD PTR [ecx+4]
  0000e	8b 4d 08	 mov	 ecx, DWORD PTR _iCode$[ebp]
  00011	c7 45 f8 03 00
	00 00		 mov	 DWORD PTR tv129[ebp], 3
  00018	57		 push	 edi
$LL25@SetMission:

; 387  : 	{
; 388  : 		for ( int i=0 ; i<(int)m_CurDayMissionList[iType].size() ; ++i )

  00019	8b 42 04	 mov	 eax, DWORD PTR [edx+4]
  0001c	2b 02		 sub	 eax, DWORD PTR [edx]
  0001e	33 ff		 xor	 edi, edi
  00020	c1 f8 02	 sar	 eax, 2
  00023	85 c0		 test	 eax, eax
  00025	7e 20		 jle	 SHORT $LN8@SetMission
  00027	8b 32		 mov	 esi, DWORD PTR [edx]
  00029	89 75 08	 mov	 DWORD PTR tv263[ebp], esi
$LL6@SetMission:

; 389  : 		{
; 390  : 			if ( m_CurDayMissionList[iType][i]->GetMagicCode() == iCode )

  0002c	8b 5d 08	 mov	 ebx, DWORD PTR tv263[ebp]
  0002f	8b 1b		 mov	 ebx, DWORD PTR [ebx]
  00031	39 4b 08	 cmp	 DWORD PTR [ebx+8], ecx
  00034	74 0b		 je	 SHORT $LN22@SetMission

; 387  : 	{
; 388  : 		for ( int i=0 ; i<(int)m_CurDayMissionList[iType].size() ; ++i )

  00036	83 45 08 04	 add	 DWORD PTR tv263[ebp], 4
  0003a	47		 inc	 edi
  0003b	3b f8		 cmp	 edi, eax
  0003d	7c ed		 jl	 SHORT $LL6@SetMission

; 389  : 		{
; 390  : 			if ( m_CurDayMissionList[iType][i]->GetMagicCode() == iCode )

  0003f	eb 06		 jmp	 SHORT $LN8@SetMission
$LN22@SetMission:

; 391  : 			{
; 392  : 				pMission= m_CurDayMissionList[iType][i];

  00041	8b 04 be	 mov	 eax, DWORD PTR [esi+edi*4]
  00044	89 45 fc	 mov	 DWORD PTR _pMission$[ebp], eax
$LN8@SetMission:

; 386  : 	for( int iType=MDT_DAILY ; iType<MDT_MAX ; ++iType )

  00047	83 c2 10	 add	 edx, 16			; 00000010H
  0004a	ff 4d f8	 dec	 DWORD PTR tv129[ebp]
  0004d	75 ca		 jne	 SHORT $LL25@SetMission

; 393  : 				break;
; 394  : 			}
; 395  : 		}
; 396  : 	}
; 397  : 	if ( pMission )

  0004f	83 7d fc 00	 cmp	 DWORD PTR _pMission$[ebp], 0
  00053	5f		 pop	 edi
  00054	5e		 pop	 esi
  00055	5b		 pop	 ebx
  00056	74 10		 je	 SHORT $LN2@SetMission

; 398  : 		pMission->SetMissionState( iValue, iClearMissionType );

  00058	ff 75 10	 push	 DWORD PTR _iClearMissionType$[ebp]
  0005b	8b 4d fc	 mov	 ecx, DWORD PTR _pMission$[ebp]
  0005e	ff 75 0c	 push	 DWORD PTR _iValue$[ebp]
  00061	e8 00 00 00 00	 call	 ?SetMissionState@ioMission@@QAEXHE@Z ; ioMission::SetMissionState

; 399  : 	else

  00066	eb 17		 jmp	 SHORT $LN1@SetMission
$LN2@SetMission:

; 400  : 		LOG.PrintTimeAndLog( 0, "ioMissionManager::SetMissionToCode : MissionCode Not Exist, code : %d", iCode );

  00068	51		 push	 ecx
  00069	68 00 00 00 00	 push	 OFFSET ??_C@_0EG@HGDHPCPB@ioMissionManager?3?3SetMissionToCo@
  0006e	6a 00		 push	 0
  00070	ff 35 00 00 00
	00		 push	 DWORD PTR __imp_?LOG@@3VCLog@@A
  00076	ff 15 00 00 00
	00		 call	 DWORD PTR __imp_?PrintTimeAndLog@CLog@@QAAXHPADZZ
  0007c	83 c4 10	 add	 esp, 16			; 00000010H
$LN1@SetMission:

; 401  : 		
; 402  : }

  0007f	c9		 leave
  00080	c2 0c 00	 ret	 12			; 0000000cH
?SetMissionToCode@ioMissionManager@@QAEXHHE@Z ENDP	; ioMissionManager::SetMissionToCode
_TEXT	ENDS
PUBLIC	__$ArrayPad$
PUBLIC	?SetMacroMinute@ioMissionManager@@QAEXH@Z	; ioMissionManager::SetMacroMinute
; Function compile flags: /Ogsp
;	COMDAT ?SetMacroMinute@ioMissionManager@@QAEXH@Z
_TEXT	SEGMENT
__$ArrayPad$ = -4					; size = 4
_MacroMinute$ = 8					; size = 4
?SetMacroMinute@ioMissionManager@@QAEXH@Z PROC		; ioMissionManager::SetMacroMinute, COMDAT
; _this$ = ecx

; 405  : {

  00000	55		 push	 ebp
  00001	8b ec		 mov	 ebp, esp
  00003	51		 push	 ecx
  00004	a1 00 00 00 00	 mov	 eax, DWORD PTR ___security_cookie
  00009	33 c5		 xor	 eax, ebp
  0000b	89 45 fc	 mov	 DWORD PTR __$ArrayPad$[ebp], eax

; 406  : 	// 매크로( /다음미션, /미션 ) 역시 미션 갱신시간을 클라가 요청하는 것이 아닌
; 407  : 	// 서버에서 자동으로 갱신시 응답받도록 수정.
; 408  : 	return;
; 409  : 
; 410  : 
; 411  : 
; 412  : 	if ( MacroMinute != 0 )
; 413  : 	{
; 414  : 		SYSTEMTIME rkServerTime;
; 415  : 		g_MyInfo.GetServerTime( rkServerTime );
; 416  : 		rkServerTime.wMinute+=MacroMinute;
; 417  : 		m_RequestDateTime = CTime( rkServerTime.wYear, rkServerTime.wMonth, rkServerTime.wDay, rkServerTime.wHour, rkServerTime.wMinute, rkServerTime.wSecond );
; 418  : 		m_dwProcessTicTime = MACRO_TIC;
; 419  : 	}
; 420  : }

  0000e	8b 4d fc	 mov	 ecx, DWORD PTR __$ArrayPad$[ebp]
  00011	33 cd		 xor	 ecx, ebp
  00013	e8 00 00 00 00	 call	 @__security_check_cookie@4
  00018	c9		 leave
  00019	c2 04 00	 ret	 4
?SetMacroMinute@ioMissionManager@@QAEXH@Z ENDP		; ioMissionManager::SetMacroMinute
_TEXT	ENDS
PUBLIC	??0?$_Vector_val@PAVioMission@@V?$allocator@PAVioMission@@@std@@@std@@QAE@V?$allocator@PAVioMission@@@1@@Z ; std::_Vector_val<ioMission *,std::allocator<ioMission *> >::_Vector_val<ioMission *,std::allocator<ioMission *> >
; Function compile flags: /Ogsp
; File c:\program files (x86)\microsoft visual studio 10.0\vc\include\vector
;	COMDAT ??0?$_Vector_val@PAVioMission@@V?$allocator@PAVioMission@@@std@@@std@@QAE@V?$allocator@PAVioMission@@@1@@Z
_TEXT	SEGMENT
__Al$ = 8						; size = 1
??0?$_Vector_val@PAVioMission@@V?$allocator@PAVioMission@@@std@@@std@@QAE@V?$allocator@PAVioMission@@@1@@Z PROC ; std::_Vector_val<ioMission *,std::allocator<ioMission *> >::_Vector_val<ioMission *,std::allocator<ioMission *> >, COMDAT
; _this$ = ecx

; 426  : 		{	// construct allocator from _Al

  00000	8b c1		 mov	 eax, ecx

; 427  : 		_Myfirst = 0;

  00002	33 c9		 xor	 ecx, ecx
  00004	89 08		 mov	 DWORD PTR [eax], ecx

; 428  : 		_Mylast = 0;

  00006	89 48 04	 mov	 DWORD PTR [eax+4], ecx

; 429  : 		_Myend = 0;

  00009	89 48 08	 mov	 DWORD PTR [eax+8], ecx

; 430  : 		}

  0000c	c2 04 00	 ret	 4
??0?$_Vector_val@PAVioMission@@V?$allocator@PAVioMission@@@std@@@std@@QAE@V?$allocator@PAVioMission@@@1@@Z ENDP ; std::_Vector_val<ioMission *,std::allocator<ioMission *> >::_Vector_val<ioMission *,std::allocator<ioMission *> >
_TEXT	ENDS
PUBLIC	??0?$_Vector_iterator@V?$_Vector_val@PAVioMission@@V?$allocator@PAVioMission@@@std@@@std@@@std@@QAE@PAPAVioMission@@PBU_Container_base0@1@@Z ; std::_Vector_iterator<std::_Vector_val<ioMission *,std::allocator<ioMission *> > >::_Vector_iterator<std::_Vector_val<ioMission *,std::allocator<ioMission *> > >
; Function compile flags: /Ogsp
;	COMDAT ??0?$_Vector_iterator@V?$_Vector_val@PAVioMission@@V?$allocator@PAVioMission@@@std@@@std@@@std@@QAE@PAPAVioMission@@PBU_Container_base0@1@@Z
_TEXT	SEGMENT
__Parg$ = 8						; size = 4
__Pvector$ = 12						; size = 4
??0?$_Vector_iterator@V?$_Vector_val@PAVioMission@@V?$allocator@PAVioMission@@@std@@@std@@@std@@QAE@PAPAVioMission@@PBU_Container_base0@1@@Z PROC ; std::_Vector_iterator<std::_Vector_val<ioMission *,std::allocator<ioMission *> > >::_Vector_iterator<std::_Vector_val<ioMission *,std::allocator<ioMission *> > >, COMDAT
; _this$ = ecx

; 304  : 		{	// construct with pointer _Parg

  00000	55		 push	 ebp
  00001	8b ec		 mov	 ebp, esp
  00003	8b c1		 mov	 eax, ecx
  00005	8b 4d 08	 mov	 ecx, DWORD PTR __Parg$[ebp]
  00008	89 08		 mov	 DWORD PTR [eax], ecx

; 305  : 		}

  0000a	5d		 pop	 ebp
  0000b	c2 08 00	 ret	 8
??0?$_Vector_iterator@V?$_Vector_val@PAVioMission@@V?$allocator@PAVioMission@@@std@@@std@@@std@@QAE@PAPAVioMission@@PBU_Container_base0@1@@Z ENDP ; std::_Vector_iterator<std::_Vector_val<ioMission *,std::allocator<ioMission *> > >::_Vector_iterator<std::_Vector_val<ioMission *,std::allocator<ioMission *> > >
_TEXT	ENDS
PUBLIC	?_Make_iter@?$vector@PAVioMission@@V?$allocator@PAVioMission@@@std@@@std@@QBE?AV?$_Vector_iterator@V?$_Vector_val@PAVioMission@@V?$allocator@PAVioMission@@@std@@@std@@@2@V?$_Vector_const_iterator@V?$_Vector_val@PAVioMission@@V?$allocator@PAVioMission@@@std@@@std@@@2@@Z ; std::vector<ioMission *,std::allocator<ioMission *> >::_Make_iter
; Function compile flags: /Ogsp
;	COMDAT ?_Make_iter@?$vector@PAVioMission@@V?$allocator@PAVioMission@@@std@@@std@@QBE?AV?$_Vector_iterator@V?$_Vector_val@PAVioMission@@V?$allocator@PAVioMission@@@std@@@std@@@2@V?$_Vector_const_iterator@V?$_Vector_val@PAVioMission@@V?$allocator@PAVioMission@@@std@@@std@@@2@@Z
_TEXT	SEGMENT
___$ReturnUdt$ = 8					; size = 4
__Where$ = 12						; size = 4
?_Make_iter@?$vector@PAVioMission@@V?$allocator@PAVioMission@@@std@@@std@@QBE?AV?$_Vector_iterator@V?$_Vector_val@PAVioMission@@V?$allocator@PAVioMission@@@std@@@std@@@2@V?$_Vector_const_iterator@V?$_Vector_val@PAVioMission@@V?$allocator@PAVioMission@@@std@@@std@@@2@@Z PROC ; std::vector<ioMission *,std::allocator<ioMission *> >::_Make_iter, COMDAT
; _this$ = ecx

; 801  : 		{	// make iterator from const_iterator

  00000	55		 push	 ebp
  00001	8b ec		 mov	 ebp, esp

; 802  : 		return (iterator(_Where._Ptr, this));

  00003	8b 45 08	 mov	 eax, DWORD PTR ___$ReturnUdt$[ebp]
  00006	8b 4d 0c	 mov	 ecx, DWORD PTR __Where$[ebp]
  00009	89 08		 mov	 DWORD PTR [eax], ecx

; 803  : 		}

  0000b	5d		 pop	 ebp
  0000c	c2 08 00	 ret	 8
?_Make_iter@?$vector@PAVioMission@@V?$allocator@PAVioMission@@@std@@@std@@QBE?AV?$_Vector_iterator@V?$_Vector_val@PAVioMission@@V?$allocator@PAVioMission@@@std@@@std@@@2@V?$_Vector_const_iterator@V?$_Vector_val@PAVioMission@@V?$allocator@PAVioMission@@@std@@@std@@@2@@Z ENDP ; std::vector<ioMission *,std::allocator<ioMission *> >::_Make_iter
_TEXT	ENDS
PUBLIC	?max_size@?$vector@PAVioMission@@V?$allocator@PAVioMission@@@std@@@std@@QBEIXZ ; std::vector<ioMission *,std::allocator<ioMission *> >::max_size
; Function compile flags: /Ogsp
;	COMDAT ?max_size@?$vector@PAVioMission@@V?$allocator@PAVioMission@@@std@@@std@@QBEIXZ
_TEXT	SEGMENT
?max_size@?$vector@PAVioMission@@V?$allocator@PAVioMission@@@std@@@std@@QBEIXZ PROC ; std::vector<ioMission *,std::allocator<ioMission *> >::max_size, COMDAT
; _this$ = ecx

; 884  : 		return (this->_Alval.max_size());

  00000	b8 ff ff ff 3f	 mov	 eax, 1073741823		; 3fffffffH

; 885  : 		}

  00005	c3		 ret	 0
?max_size@?$vector@PAVioMission@@V?$allocator@PAVioMission@@@std@@@std@@QBEIXZ ENDP ; std::vector<ioMission *,std::allocator<ioMission *> >::max_size
_TEXT	ENDS
PUBLIC	?_Grow_to@?$vector@PAVioMission@@V?$allocator@PAVioMission@@@std@@@std@@IBEII@Z ; std::vector<ioMission *,std::allocator<ioMission *> >::_Grow_to
; Function compile flags: /Ogsp
;	COMDAT ?_Grow_to@?$vector@PAVioMission@@V?$allocator@PAVioMission@@@std@@@std@@IBEII@Z
_TEXT	SEGMENT
__Count$ = 8						; size = 4
?_Grow_to@?$vector@PAVioMission@@V?$allocator@PAVioMission@@@std@@@std@@IBEII@Z PROC ; std::vector<ioMission *,std::allocator<ioMission *> >::_Grow_to, COMDAT
; _this$ = ecx

; 1274 : 		{	// grow by 50% or at least to _Count

  00000	55		 push	 ebp
  00001	8b ec		 mov	 ebp, esp

; 1275 : 		size_type _Capacity = capacity();

  00003	8b 41 08	 mov	 eax, DWORD PTR [ecx+8]
  00006	2b 01		 sub	 eax, DWORD PTR [ecx]

; 1276 : 
; 1277 : 		_Capacity = max_size() - _Capacity / 2 < _Capacity
; 1278 : 			? 0 : _Capacity + _Capacity / 2;	// try to grow by 50%

  00008	ba ff ff ff 3f	 mov	 edx, 1073741823		; 3fffffffH
  0000d	c1 f8 02	 sar	 eax, 2
  00010	8b c8		 mov	 ecx, eax
  00012	d1 e9		 shr	 ecx, 1
  00014	2b d1		 sub	 edx, ecx
  00016	3b d0		 cmp	 edx, eax
  00018	73 04		 jae	 SHORT $LN4@Grow_to
  0001a	33 c0		 xor	 eax, eax
  0001c	eb 02		 jmp	 SHORT $LN5@Grow_to
$LN4@Grow_to:
  0001e	03 c1		 add	 eax, ecx
$LN5@Grow_to:

; 1279 : 		if (_Capacity < _Count)

  00020	3b 45 08	 cmp	 eax, DWORD PTR __Count$[ebp]

; 1280 : 			_Capacity = _Count;

  00023	0f 42 45 08	 cmovb	 eax, DWORD PTR __Count$[ebp]

; 1281 : 		return (_Capacity);
; 1282 : 		}

  00027	5d		 pop	 ebp
  00028	c2 04 00	 ret	 4
?_Grow_to@?$vector@PAVioMission@@V?$allocator@PAVioMission@@@std@@@std@@IBEII@Z ENDP ; std::vector<ioMission *,std::allocator<ioMission *> >::_Grow_to
_TEXT	ENDS
PUBLIC	?allocate@?$allocator@PAVioMission@@@std@@QAEPAPAVioMission@@I@Z ; std::allocator<ioMission *>::allocate
; Function compile flags: /Ogsp
; File c:\program files (x86)\microsoft visual studio 10.0\vc\include\xmemory
;	COMDAT ?allocate@?$allocator@PAVioMission@@@std@@QAEPAPAVioMission@@I@Z
_TEXT	SEGMENT
__Count$ = 8						; size = 4
?allocate@?$allocator@PAVioMission@@@std@@QAEPAPAVioMission@@I@Z PROC ; std::allocator<ioMission *>::allocate, COMDAT
; _this$ = ecx

; 186  : 		{	// allocate array of _Count elements

  00000	55		 push	 ebp
  00001	8b ec		 mov	 ebp, esp

; 187  : 		return (_Allocate(_Count, (pointer)0));

  00003	6a 00		 push	 0
  00005	ff 75 08	 push	 DWORD PTR __Count$[ebp]
  00008	e8 00 00 00 00	 call	 ??$_Allocate@PAVioMission@@@std@@YAPAPAVioMission@@IPAPAV1@@Z ; std::_Allocate<ioMission *>
  0000d	59		 pop	 ecx
  0000e	59		 pop	 ecx

; 188  : 		}

  0000f	5d		 pop	 ebp
  00010	c2 04 00	 ret	 4
?allocate@?$allocator@PAVioMission@@@std@@QAEPAPAVioMission@@I@Z ENDP ; std::allocator<ioMission *>::allocate
_TEXT	ENDS
PUBLIC	??8?$_Vector_const_iterator@V?$_Vector_val@PAVioMission@@V?$allocator@PAVioMission@@@std@@@std@@@std@@QBE_NABV01@@Z ; std::_Vector_const_iterator<std::_Vector_val<ioMission *,std::allocator<ioMission *> > >::operator==
; Function compile flags: /Ogsp
; File c:\program files (x86)\microsoft visual studio 10.0\vc\include\vector
;	COMDAT ??8?$_Vector_const_iterator@V?$_Vector_val@PAVioMission@@V?$allocator@PAVioMission@@@std@@@std@@@std@@QBE_NABV01@@Z
_TEXT	SEGMENT
__Right$ = 8						; size = 4
??8?$_Vector_const_iterator@V?$_Vector_val@PAVioMission@@V?$allocator@PAVioMission@@@std@@@std@@@std@@QBE_NABV01@@Z PROC ; std::_Vector_const_iterator<std::_Vector_val<ioMission *,std::allocator<ioMission *> > >::operator==, COMDAT
; _this$ = ecx

; 201  : 		{	// test for iterator equality

  00000	55		 push	 ebp
  00001	8b ec		 mov	 ebp, esp

; 202  : 		_Compat(_Right);
; 203  : 		return (this->_Ptr == _Right._Ptr);

  00003	8b 01		 mov	 eax, DWORD PTR [ecx]
  00005	8b 4d 08	 mov	 ecx, DWORD PTR __Right$[ebp]
  00008	2b 01		 sub	 eax, DWORD PTR [ecx]
  0000a	f7 d8		 neg	 eax
  0000c	1b c0		 sbb	 eax, eax
  0000e	40		 inc	 eax

; 204  : 		}

  0000f	5d		 pop	 ebp
  00010	c2 04 00	 ret	 4
??8?$_Vector_const_iterator@V?$_Vector_val@PAVioMission@@V?$allocator@PAVioMission@@@std@@@std@@@std@@QBE_NABV01@@Z ENDP ; std::_Vector_const_iterator<std::_Vector_val<ioMission *,std::allocator<ioMission *> > >::operator==
_TEXT	ENDS
PUBLIC	__$ArrayPad$
PUBLIC	??$SetFileName_e@$0BO@@ioINILoader@@QAEXAAY0BO@$$CBD_N@Z ; ioINILoader::SetFileName_e<30>
EXTRN	__imp_?SetFileName@ioINILoader@@QAEXPBD_N@Z:PROC
; Function compile flags: /Ogsp
; File d:\lost saga for developer\youtube\tutorial\source\src\io3dengine\ioiniloader.h
;	COMDAT ??$SetFileName_e@$0BO@@ioINILoader@@QAEXAAY0BO@$$CBD_N@Z
_TEXT	SEGMENT
__f$ = -40						; size = 30
__$ArrayPad$ = -4					; size = 4
_f$ = 8							; size = 4
_b$ = 12						; size = 1
??$SetFileName_e@$0BO@@ioINILoader@@QAEXAAY0BO@$$CBD_N@Z PROC ; ioINILoader::SetFileName_e<30>, COMDAT
; _this$ = ecx

; 196  : 	{

  00000	55		 push	 ebp
  00001	8b ec		 mov	 ebp, esp
  00003	83 ec 28	 sub	 esp, 40			; 00000028H
  00006	a1 00 00 00 00	 mov	 eax, DWORD PTR ___security_cookie
  0000b	33 c5		 xor	 eax, ebp
  0000d	89 45 fc	 mov	 DWORD PTR __$ArrayPad$[ebp], eax
  00010	8b 45 08	 mov	 eax, DWORD PTR _f$[ebp]

; 197  : 		_ENCSTR(f, _f);

  00013	8a 10		 mov	 dl, BYTE PTR [eax]
  00015	53		 push	 ebx
  00016	56		 push	 esi
  00017	8b f1		 mov	 esi, ecx
  00019	84 d2		 test	 dl, dl
  0001b	0f 84 dd 02 00
	00		 je	 $LN96@SetFileNam
  00021	80 f2 ed	 xor	 dl, -19			; ffffffedH
  00024	88 55 d8	 mov	 BYTE PTR __f$[ebp], dl
  00027	8a 50 01	 mov	 dl, BYTE PTR [eax+1]
  0002a	84 d2		 test	 dl, dl
  0002c	0f 84 c6 02 00
	00		 je	 $LN95@SetFileNam
  00032	80 f2 ec	 xor	 dl, -20			; ffffffecH
  00035	88 55 d9	 mov	 BYTE PTR __f$[ebp+1], dl
  00038	8a 50 02	 mov	 dl, BYTE PTR [eax+2]
  0003b	84 d2		 test	 dl, dl
  0003d	0f 84 af 02 00
	00		 je	 $LN94@SetFileNam
  00043	b1 eb		 mov	 cl, -21			; ffffffebH
  00045	32 d1		 xor	 dl, cl
  00047	88 55 da	 mov	 BYTE PTR __f$[ebp+2], dl
  0004a	8a 50 03	 mov	 dl, BYTE PTR [eax+3]
  0004d	84 d2		 test	 dl, dl
  0004f	0f 84 97 02 00
	00		 je	 $LN93@SetFileNam
  00055	b3 ea		 mov	 bl, -22			; ffffffeaH
  00057	32 d3		 xor	 dl, bl
  00059	88 55 db	 mov	 BYTE PTR __f$[ebp+3], dl
  0005c	8a 50 04	 mov	 dl, BYTE PTR [eax+4]
  0005f	84 d2		 test	 dl, dl
  00061	0f 84 7f 02 00
	00		 je	 $LN92@SetFileNam
  00067	80 f2 ed	 xor	 dl, -19			; ffffffedH
  0006a	88 55 dc	 mov	 BYTE PTR __f$[ebp+4], dl
  0006d	8a 50 05	 mov	 dl, BYTE PTR [eax+5]
  00070	84 d2		 test	 dl, dl
  00072	0f 84 68 02 00
	00		 je	 $LN91@SetFileNam
  00078	80 f2 ec	 xor	 dl, -20			; ffffffecH
  0007b	88 55 dd	 mov	 BYTE PTR __f$[ebp+5], dl
  0007e	8a 50 06	 mov	 dl, BYTE PTR [eax+6]
  00081	84 d2		 test	 dl, dl
  00083	0f 84 52 02 00
	00		 je	 $LN90@SetFileNam
  00089	32 d1		 xor	 dl, cl
  0008b	88 55 de	 mov	 BYTE PTR __f$[ebp+6], dl
  0008e	8a 50 07	 mov	 dl, BYTE PTR [eax+7]
  00091	84 d2		 test	 dl, dl
  00093	0f 84 3d 02 00
	00		 je	 $LN89@SetFileNam
  00099	32 d3		 xor	 dl, bl
  0009b	88 55 df	 mov	 BYTE PTR __f$[ebp+7], dl
  0009e	8a 50 08	 mov	 dl, BYTE PTR [eax+8]
  000a1	84 d2		 test	 dl, dl
  000a3	0f 84 27 02 00
	00		 je	 $LN88@SetFileNam
  000a9	80 f2 ed	 xor	 dl, -19			; ffffffedH
  000ac	88 55 e0	 mov	 BYTE PTR __f$[ebp+8], dl
  000af	8a 50 09	 mov	 dl, BYTE PTR [eax+9]
  000b2	84 d2		 test	 dl, dl
  000b4	0f 84 10 02 00
	00		 je	 $LN87@SetFileNam
  000ba	80 f2 ec	 xor	 dl, -20			; ffffffecH
  000bd	88 55 e1	 mov	 BYTE PTR __f$[ebp+9], dl
  000c0	8a 50 0a	 mov	 dl, BYTE PTR [eax+10]
  000c3	84 d2		 test	 dl, dl
  000c5	0f 84 fa 01 00
	00		 je	 $LN86@SetFileNam
  000cb	32 d1		 xor	 dl, cl
  000cd	88 55 e2	 mov	 BYTE PTR __f$[ebp+10], dl
  000d0	8a 50 0b	 mov	 dl, BYTE PTR [eax+11]
  000d3	84 d2		 test	 dl, dl
  000d5	0f 84 e5 01 00
	00		 je	 $LN85@SetFileNam
  000db	32 d3		 xor	 dl, bl
  000dd	88 55 e3	 mov	 BYTE PTR __f$[ebp+11], dl
  000e0	8a 50 0c	 mov	 dl, BYTE PTR [eax+12]
  000e3	84 d2		 test	 dl, dl
  000e5	0f 84 cf 01 00
	00		 je	 $LN84@SetFileNam
  000eb	80 f2 ed	 xor	 dl, -19			; ffffffedH
  000ee	88 55 e4	 mov	 BYTE PTR __f$[ebp+12], dl
  000f1	8a 50 0d	 mov	 dl, BYTE PTR [eax+13]
  000f4	84 d2		 test	 dl, dl
  000f6	0f 84 b8 01 00
	00		 je	 $LN83@SetFileNam
  000fc	80 f2 ec	 xor	 dl, -20			; ffffffecH
  000ff	88 55 e5	 mov	 BYTE PTR __f$[ebp+13], dl
  00102	8a 50 0e	 mov	 dl, BYTE PTR [eax+14]
  00105	84 d2		 test	 dl, dl
  00107	0f 84 a2 01 00
	00		 je	 $LN82@SetFileNam
  0010d	32 d1		 xor	 dl, cl
  0010f	88 55 e6	 mov	 BYTE PTR __f$[ebp+14], dl
  00112	8a 50 0f	 mov	 dl, BYTE PTR [eax+15]
  00115	84 d2		 test	 dl, dl
  00117	0f 84 8d 01 00
	00		 je	 $LN81@SetFileNam
  0011d	32 d3		 xor	 dl, bl
  0011f	88 55 e7	 mov	 BYTE PTR __f$[ebp+15], dl
  00122	8a 50 10	 mov	 dl, BYTE PTR [eax+16]
  00125	84 d2		 test	 dl, dl
  00127	0f 84 77 01 00
	00		 je	 $LN80@SetFileNam
  0012d	80 f2 ed	 xor	 dl, -19			; ffffffedH
  00130	88 55 e8	 mov	 BYTE PTR __f$[ebp+16], dl
  00133	8a 50 11	 mov	 dl, BYTE PTR [eax+17]
  00136	84 d2		 test	 dl, dl
  00138	0f 84 60 01 00
	00		 je	 $LN79@SetFileNam
  0013e	80 f2 ec	 xor	 dl, -20			; ffffffecH
  00141	88 55 e9	 mov	 BYTE PTR __f$[ebp+17], dl
  00144	8a 50 12	 mov	 dl, BYTE PTR [eax+18]
  00147	84 d2		 test	 dl, dl
  00149	0f 84 4a 01 00
	00		 je	 $LN78@SetFileNam
  0014f	32 d1		 xor	 dl, cl
  00151	88 55 ea	 mov	 BYTE PTR __f$[ebp+18], dl
  00154	8a 50 13	 mov	 dl, BYTE PTR [eax+19]
  00157	84 d2		 test	 dl, dl
  00159	0f 84 35 01 00
	00		 je	 $LN77@SetFileNam
  0015f	32 d3		 xor	 dl, bl
  00161	88 55 eb	 mov	 BYTE PTR __f$[ebp+19], dl
  00164	8a 50 14	 mov	 dl, BYTE PTR [eax+20]
  00167	84 d2		 test	 dl, dl
  00169	0f 84 1f 01 00
	00		 je	 $LN76@SetFileNam
  0016f	80 f2 ed	 xor	 dl, -19			; ffffffedH
  00172	88 55 ec	 mov	 BYTE PTR __f$[ebp+20], dl
  00175	8a 50 15	 mov	 dl, BYTE PTR [eax+21]
  00178	84 d2		 test	 dl, dl
  0017a	0f 84 08 01 00
	00		 je	 $LN75@SetFileNam
  00180	80 f2 ec	 xor	 dl, -20			; ffffffecH
  00183	88 55 ed	 mov	 BYTE PTR __f$[ebp+21], dl
  00186	8a 50 16	 mov	 dl, BYTE PTR [eax+22]
  00189	84 d2		 test	 dl, dl
  0018b	0f 84 f2 00 00
	00		 je	 $LN74@SetFileNam
  00191	32 d1		 xor	 dl, cl
  00193	88 55 ee	 mov	 BYTE PTR __f$[ebp+22], dl
  00196	8a 50 17	 mov	 dl, BYTE PTR [eax+23]
  00199	84 d2		 test	 dl, dl
  0019b	0f 84 dd 00 00
	00		 je	 $LN73@SetFileNam
  001a1	32 d3		 xor	 dl, bl
  001a3	88 55 ef	 mov	 BYTE PTR __f$[ebp+23], dl
  001a6	8a 50 18	 mov	 dl, BYTE PTR [eax+24]
  001a9	84 d2		 test	 dl, dl
  001ab	0f 84 c4 00 00
	00		 je	 $LN72@SetFileNam
  001b1	80 f2 ed	 xor	 dl, -19			; ffffffedH
  001b4	88 55 f0	 mov	 BYTE PTR __f$[ebp+24], dl
  001b7	8a 50 19	 mov	 dl, BYTE PTR [eax+25]
  001ba	84 d2		 test	 dl, dl
  001bc	0f 84 aa 00 00
	00		 je	 $LN71@SetFileNam
  001c2	80 f2 ec	 xor	 dl, -20			; ffffffecH
  001c5	88 55 f1	 mov	 BYTE PTR __f$[ebp+25], dl
  001c8	8a 50 1a	 mov	 dl, BYTE PTR [eax+26]
  001cb	84 d2		 test	 dl, dl
  001cd	0f 84 91 00 00
	00		 je	 $LN70@SetFileNam
  001d3	32 d1		 xor	 dl, cl
  001d5	88 55 f2	 mov	 BYTE PTR __f$[ebp+26], dl
  001d8	8a 50 1b	 mov	 dl, BYTE PTR [eax+27]
  001db	84 d2		 test	 dl, dl
  001dd	74 7d		 je	 SHORT $LN69@SetFileNam
  001df	32 d3		 xor	 dl, bl
  001e1	88 55 f3	 mov	 BYTE PTR __f$[ebp+27], dl
  001e4	8a 50 1c	 mov	 dl, BYTE PTR [eax+28]
  001e7	84 d2		 test	 dl, dl
  001e9	74 68		 je	 SHORT $LN68@SetFileNam
  001eb	80 f2 ed	 xor	 dl, -19			; ffffffedH
  001ee	80 78 1d 00	 cmp	 BYTE PTR [eax+29], 0
  001f2	88 55 f4	 mov	 BYTE PTR __f$[ebp+28], dl
  001f5	0f 84 07 01 00
	00		 je	 $LN1@SetFileNam
  001fb	8a 50 1e	 mov	 dl, BYTE PTR [eax+30]
  001fe	84 d2		 test	 dl, dl
  00200	74 49		 je	 SHORT $LN66@SetFileNam
  00202	32 d1		 xor	 dl, cl
  00204	88 55 f6	 mov	 BYTE PTR __f$[ebp+30], dl
  00207	8a 50 1f	 mov	 dl, BYTE PTR [eax+31]
  0020a	84 d2		 test	 dl, dl
  0020c	74 35		 je	 SHORT $LN65@SetFileNam
  0020e	32 d3		 xor	 dl, bl
  00210	88 55 f7	 mov	 BYTE PTR __f$[ebp+31], dl
  00213	8a 50 20	 mov	 dl, BYTE PTR [eax+32]
  00216	84 d2		 test	 dl, dl
  00218	74 20		 je	 SHORT $LN64@SetFileNam
  0021a	8a 40 21	 mov	 al, BYTE PTR [eax+33]
  0021d	80 f2 ed	 xor	 dl, -19			; ffffffedH
  00220	88 55 f8	 mov	 BYTE PTR __f$[ebp+32], dl
  00223	84 c0		 test	 al, al
  00225	74 0a		 je	 SHORT $LN63@SetFileNam
  00227	34 ec		 xor	 al, -20			; ffffffecH
  00229	88 45 f9	 mov	 BYTE PTR __f$[ebp+33], al
  0022c	e9 d1 00 00 00	 jmp	 $LN1@SetFileNam
$LN63@SetFileNam:
  00231	c6 45 f9 ec	 mov	 BYTE PTR __f$[ebp+33], -20 ; ffffffecH
  00235	e9 c8 00 00 00	 jmp	 $LN1@SetFileNam
$LN64@SetFileNam:
  0023a	c6 45 f8 ed	 mov	 BYTE PTR __f$[ebp+32], -19 ; ffffffedH
  0023e	e9 bf 00 00 00	 jmp	 $LN1@SetFileNam
$LN65@SetFileNam:
  00243	88 5d f7	 mov	 BYTE PTR __f$[ebp+31], bl
  00246	e9 b7 00 00 00	 jmp	 $LN1@SetFileNam
$LN66@SetFileNam:
  0024b	88 4d f6	 mov	 BYTE PTR __f$[ebp+30], cl
  0024e	e9 af 00 00 00	 jmp	 $LN1@SetFileNam
$LN68@SetFileNam:
  00253	c6 45 f4 ed	 mov	 BYTE PTR __f$[ebp+28], -19 ; ffffffedH
  00257	e9 a6 00 00 00	 jmp	 $LN1@SetFileNam
$LN69@SetFileNam:
  0025c	88 5d f3	 mov	 BYTE PTR __f$[ebp+27], bl
  0025f	e9 9e 00 00 00	 jmp	 $LN1@SetFileNam
$LN70@SetFileNam:
  00264	88 4d f2	 mov	 BYTE PTR __f$[ebp+26], cl
  00267	e9 96 00 00 00	 jmp	 $LN1@SetFileNam
$LN71@SetFileNam:
  0026c	c6 45 f1 ec	 mov	 BYTE PTR __f$[ebp+25], -20 ; ffffffecH
  00270	e9 8d 00 00 00	 jmp	 $LN1@SetFileNam
$LN72@SetFileNam:
  00275	c6 45 f0 ed	 mov	 BYTE PTR __f$[ebp+24], -19 ; ffffffedH
  00279	e9 84 00 00 00	 jmp	 $LN1@SetFileNam
$LN73@SetFileNam:
  0027e	88 5d ef	 mov	 BYTE PTR __f$[ebp+23], bl
  00281	eb 7f		 jmp	 SHORT $LN1@SetFileNam
$LN74@SetFileNam:
  00283	88 4d ee	 mov	 BYTE PTR __f$[ebp+22], cl
  00286	eb 7a		 jmp	 SHORT $LN1@SetFileNam
$LN75@SetFileNam:
  00288	c6 45 ed ec	 mov	 BYTE PTR __f$[ebp+21], -20 ; ffffffecH
  0028c	eb 74		 jmp	 SHORT $LN1@SetFileNam
$LN76@SetFileNam:
  0028e	c6 45 ec ed	 mov	 BYTE PTR __f$[ebp+20], -19 ; ffffffedH
  00292	eb 6e		 jmp	 SHORT $LN1@SetFileNam
$LN77@SetFileNam:
  00294	88 5d eb	 mov	 BYTE PTR __f$[ebp+19], bl
  00297	eb 69		 jmp	 SHORT $LN1@SetFileNam
$LN78@SetFileNam:
  00299	88 4d ea	 mov	 BYTE PTR __f$[ebp+18], cl
  0029c	eb 64		 jmp	 SHORT $LN1@SetFileNam
$LN79@SetFileNam:
  0029e	c6 45 e9 ec	 mov	 BYTE PTR __f$[ebp+17], -20 ; ffffffecH
  002a2	eb 5e		 jmp	 SHORT $LN1@SetFileNam
$LN80@SetFileNam:
  002a4	c6 45 e8 ed	 mov	 BYTE PTR __f$[ebp+16], -19 ; ffffffedH
  002a8	eb 58		 jmp	 SHORT $LN1@SetFileNam
$LN81@SetFileNam:
  002aa	88 5d e7	 mov	 BYTE PTR __f$[ebp+15], bl
  002ad	eb 53		 jmp	 SHORT $LN1@SetFileNam
$LN82@SetFileNam:
  002af	88 4d e6	 mov	 BYTE PTR __f$[ebp+14], cl
  002b2	eb 4e		 jmp	 SHORT $LN1@SetFileNam
$LN83@SetFileNam:
  002b4	c6 45 e5 ec	 mov	 BYTE PTR __f$[ebp+13], -20 ; ffffffecH
  002b8	eb 48		 jmp	 SHORT $LN1@SetFileNam
$LN84@SetFileNam:
  002ba	c6 45 e4 ed	 mov	 BYTE PTR __f$[ebp+12], -19 ; ffffffedH
  002be	eb 42		 jmp	 SHORT $LN1@SetFileNam
$LN85@SetFileNam:
  002c0	88 5d e3	 mov	 BYTE PTR __f$[ebp+11], bl
  002c3	eb 3d		 jmp	 SHORT $LN1@SetFileNam
$LN86@SetFileNam:
  002c5	88 4d e2	 mov	 BYTE PTR __f$[ebp+10], cl
  002c8	eb 38		 jmp	 SHORT $LN1@SetFileNam
$LN87@SetFileNam:
  002ca	c6 45 e1 ec	 mov	 BYTE PTR __f$[ebp+9], -20 ; ffffffecH
  002ce	eb 32		 jmp	 SHORT $LN1@SetFileNam
$LN88@SetFileNam:
  002d0	c6 45 e0 ed	 mov	 BYTE PTR __f$[ebp+8], -19 ; ffffffedH
  002d4	eb 2c		 jmp	 SHORT $LN1@SetFileNam
$LN89@SetFileNam:
  002d6	88 5d df	 mov	 BYTE PTR __f$[ebp+7], bl
  002d9	eb 27		 jmp	 SHORT $LN1@SetFileNam
$LN90@SetFileNam:
  002db	88 4d de	 mov	 BYTE PTR __f$[ebp+6], cl
  002de	eb 22		 jmp	 SHORT $LN1@SetFileNam
$LN91@SetFileNam:
  002e0	c6 45 dd ec	 mov	 BYTE PTR __f$[ebp+5], -20 ; ffffffecH
  002e4	eb 1c		 jmp	 SHORT $LN1@SetFileNam
$LN92@SetFileNam:
  002e6	c6 45 dc ed	 mov	 BYTE PTR __f$[ebp+4], -19 ; ffffffedH
  002ea	eb 16		 jmp	 SHORT $LN1@SetFileNam
$LN93@SetFileNam:
  002ec	c6 45 db ea	 mov	 BYTE PTR __f$[ebp+3], -22 ; ffffffeaH
  002f0	eb 10		 jmp	 SHORT $LN1@SetFileNam
$LN94@SetFileNam:
  002f2	c6 45 da eb	 mov	 BYTE PTR __f$[ebp+2], -21 ; ffffffebH
  002f6	eb 0a		 jmp	 SHORT $LN1@SetFileNam
$LN95@SetFileNam:
  002f8	c6 45 d9 ec	 mov	 BYTE PTR __f$[ebp+1], -20 ; ffffffecH
  002fc	eb 04		 jmp	 SHORT $LN1@SetFileNam
$LN96@SetFileNam:
  002fe	c6 45 d8 ed	 mov	 BYTE PTR __f$[ebp], -19	; ffffffedH
$LN1@SetFileNam:
  00302	6a 07		 push	 7
  00304	8d 45 d8	 lea	 eax, DWORD PTR __f$[ebp]
  00307	c6 45 f5 00	 mov	 BYTE PTR __f$[ebp+29], 0
  0030b	5a		 pop	 edx
$LL104@SetFileNam:
  0030c	81 30 ed ec eb
	ea		 xor	 DWORD PTR [eax], -353637139 ; eaebecedH
  00312	83 c0 04	 add	 eax, 4
  00315	4a		 dec	 edx
  00316	75 f4		 jne	 SHORT $LL104@SetFileNam

; 198  : 		SetFileName(_f, b);

  00318	ff 75 0c	 push	 DWORD PTR _b$[ebp]
  0031b	80 75 f4 ed	 xor	 BYTE PTR __f$[ebp+28], -19 ; ffffffedH
  0031f	8d 45 d8	 lea	 eax, DWORD PTR __f$[ebp]
  00322	50		 push	 eax
  00323	8b ce		 mov	 ecx, esi
  00325	ff 15 00 00 00
	00		 call	 DWORD PTR __imp_?SetFileName@ioINILoader@@QAEXPBD_N@Z

; 199  : 	}

  0032b	8b 4d fc	 mov	 ecx, DWORD PTR __$ArrayPad$[ebp]
  0032e	5e		 pop	 esi
  0032f	33 cd		 xor	 ecx, ebp
  00331	5b		 pop	 ebx
  00332	e8 00 00 00 00	 call	 @__security_check_cookie@4
  00337	c9		 leave
  00338	c2 08 00	 ret	 8
??$SetFileName_e@$0BO@@ioINILoader@@QAEXAAY0BO@$$CBD_N@Z ENDP ; ioINILoader::SetFileName_e<30>
_TEXT	ENDS
PUBLIC	__$ArrayPad$
PUBLIC	??$SetFileName_e@$0BP@@ioINILoader@@QAEXAAY0BP@$$CBD_N@Z ; ioINILoader::SetFileName_e<31>
; Function compile flags: /Ogsp
;	COMDAT ??$SetFileName_e@$0BP@@ioINILoader@@QAEXAAY0BP@$$CBD_N@Z
_TEXT	SEGMENT
__f$ = -40						; size = 31
__$ArrayPad$ = -4					; size = 4
_f$ = 8							; size = 4
_b$ = 12						; size = 1
??$SetFileName_e@$0BP@@ioINILoader@@QAEXAAY0BP@$$CBD_N@Z PROC ; ioINILoader::SetFileName_e<31>, COMDAT
; _this$ = ecx

; 196  : 	{

  00000	55		 push	 ebp
  00001	8b ec		 mov	 ebp, esp
  00003	83 ec 28	 sub	 esp, 40			; 00000028H
  00006	a1 00 00 00 00	 mov	 eax, DWORD PTR ___security_cookie
  0000b	33 c5		 xor	 eax, ebp
  0000d	89 45 fc	 mov	 DWORD PTR __$ArrayPad$[ebp], eax
  00010	8b 45 08	 mov	 eax, DWORD PTR _f$[ebp]

; 197  : 		_ENCSTR(f, _f);

  00013	8a 10		 mov	 dl, BYTE PTR [eax]
  00015	53		 push	 ebx
  00016	56		 push	 esi
  00017	8b f1		 mov	 esi, ecx
  00019	84 d2		 test	 dl, dl
  0001b	0f 84 f5 02 00
	00		 je	 $LN96@SetFileNam@2
  00021	80 f2 ed	 xor	 dl, -19			; ffffffedH
  00024	88 55 d8	 mov	 BYTE PTR __f$[ebp], dl
  00027	8a 50 01	 mov	 dl, BYTE PTR [eax+1]
  0002a	84 d2		 test	 dl, dl
  0002c	0f 84 de 02 00
	00		 je	 $LN95@SetFileNam@2
  00032	b1 ec		 mov	 cl, -20			; ffffffecH
  00034	32 d1		 xor	 dl, cl
  00036	88 55 d9	 mov	 BYTE PTR __f$[ebp+1], dl
  00039	8a 50 02	 mov	 dl, BYTE PTR [eax+2]
  0003c	84 d2		 test	 dl, dl
  0003e	0f 84 c6 02 00
	00		 je	 $LN94@SetFileNam@2
  00044	80 f2 eb	 xor	 dl, -21			; ffffffebH
  00047	88 55 da	 mov	 BYTE PTR __f$[ebp+2], dl
  0004a	8a 50 03	 mov	 dl, BYTE PTR [eax+3]
  0004d	84 d2		 test	 dl, dl
  0004f	0f 84 af 02 00
	00		 je	 $LN93@SetFileNam@2
  00055	b3 ea		 mov	 bl, -22			; ffffffeaH
  00057	32 d3		 xor	 dl, bl
  00059	88 55 db	 mov	 BYTE PTR __f$[ebp+3], dl
  0005c	8a 50 04	 mov	 dl, BYTE PTR [eax+4]
  0005f	84 d2		 test	 dl, dl
  00061	0f 84 97 02 00
	00		 je	 $LN92@SetFileNam@2
  00067	80 f2 ed	 xor	 dl, -19			; ffffffedH
  0006a	88 55 dc	 mov	 BYTE PTR __f$[ebp+4], dl
  0006d	8a 50 05	 mov	 dl, BYTE PTR [eax+5]
  00070	84 d2		 test	 dl, dl
  00072	0f 84 81 02 00
	00		 je	 $LN91@SetFileNam@2
  00078	32 d1		 xor	 dl, cl
  0007a	88 55 dd	 mov	 BYTE PTR __f$[ebp+5], dl
  0007d	8a 50 06	 mov	 dl, BYTE PTR [eax+6]
  00080	84 d2		 test	 dl, dl
  00082	0f 84 6b 02 00
	00		 je	 $LN90@SetFileNam@2
  00088	80 f2 eb	 xor	 dl, -21			; ffffffebH
  0008b	88 55 de	 mov	 BYTE PTR __f$[ebp+6], dl
  0008e	8a 50 07	 mov	 dl, BYTE PTR [eax+7]
  00091	84 d2		 test	 dl, dl
  00093	0f 84 55 02 00
	00		 je	 $LN89@SetFileNam@2
  00099	32 d3		 xor	 dl, bl
  0009b	88 55 df	 mov	 BYTE PTR __f$[ebp+7], dl
  0009e	8a 50 08	 mov	 dl, BYTE PTR [eax+8]
  000a1	84 d2		 test	 dl, dl
  000a3	0f 84 3f 02 00
	00		 je	 $LN88@SetFileNam@2
  000a9	80 f2 ed	 xor	 dl, -19			; ffffffedH
  000ac	88 55 e0	 mov	 BYTE PTR __f$[ebp+8], dl
  000af	8a 50 09	 mov	 dl, BYTE PTR [eax+9]
  000b2	84 d2		 test	 dl, dl
  000b4	0f 84 29 02 00
	00		 je	 $LN87@SetFileNam@2
  000ba	32 d1		 xor	 dl, cl
  000bc	88 55 e1	 mov	 BYTE PTR __f$[ebp+9], dl
  000bf	8a 50 0a	 mov	 dl, BYTE PTR [eax+10]
  000c2	84 d2		 test	 dl, dl
  000c4	0f 84 13 02 00
	00		 je	 $LN86@SetFileNam@2
  000ca	80 f2 eb	 xor	 dl, -21			; ffffffebH
  000cd	88 55 e2	 mov	 BYTE PTR __f$[ebp+10], dl
  000d0	8a 50 0b	 mov	 dl, BYTE PTR [eax+11]
  000d3	84 d2		 test	 dl, dl
  000d5	0f 84 fd 01 00
	00		 je	 $LN85@SetFileNam@2
  000db	32 d3		 xor	 dl, bl
  000dd	88 55 e3	 mov	 BYTE PTR __f$[ebp+11], dl
  000e0	8a 50 0c	 mov	 dl, BYTE PTR [eax+12]
  000e3	84 d2		 test	 dl, dl
  000e5	0f 84 e7 01 00
	00		 je	 $LN84@SetFileNam@2
  000eb	80 f2 ed	 xor	 dl, -19			; ffffffedH
  000ee	88 55 e4	 mov	 BYTE PTR __f$[ebp+12], dl
  000f1	8a 50 0d	 mov	 dl, BYTE PTR [eax+13]
  000f4	84 d2		 test	 dl, dl
  000f6	0f 84 d1 01 00
	00		 je	 $LN83@SetFileNam@2
  000fc	32 d1		 xor	 dl, cl
  000fe	88 55 e5	 mov	 BYTE PTR __f$[ebp+13], dl
  00101	8a 50 0e	 mov	 dl, BYTE PTR [eax+14]
  00104	84 d2		 test	 dl, dl
  00106	0f 84 bb 01 00
	00		 je	 $LN82@SetFileNam@2
  0010c	80 f2 eb	 xor	 dl, -21			; ffffffebH
  0010f	88 55 e6	 mov	 BYTE PTR __f$[ebp+14], dl
  00112	8a 50 0f	 mov	 dl, BYTE PTR [eax+15]
  00115	84 d2		 test	 dl, dl
  00117	0f 84 a5 01 00
	00		 je	 $LN81@SetFileNam@2
  0011d	32 d3		 xor	 dl, bl
  0011f	88 55 e7	 mov	 BYTE PTR __f$[ebp+15], dl
  00122	8a 50 10	 mov	 dl, BYTE PTR [eax+16]
  00125	84 d2		 test	 dl, dl
  00127	0f 84 8f 01 00
	00		 je	 $LN80@SetFileNam@2
  0012d	80 f2 ed	 xor	 dl, -19			; ffffffedH
  00130	88 55 e8	 mov	 BYTE PTR __f$[ebp+16], dl
  00133	8a 50 11	 mov	 dl, BYTE PTR [eax+17]
  00136	84 d2		 test	 dl, dl
  00138	0f 84 79 01 00
	00		 je	 $LN79@SetFileNam@2
  0013e	32 d1		 xor	 dl, cl
  00140	88 55 e9	 mov	 BYTE PTR __f$[ebp+17], dl
  00143	8a 50 12	 mov	 dl, BYTE PTR [eax+18]
  00146	84 d2		 test	 dl, dl
  00148	0f 84 63 01 00
	00		 je	 $LN78@SetFileNam@2
  0014e	80 f2 eb	 xor	 dl, -21			; ffffffebH
  00151	88 55 ea	 mov	 BYTE PTR __f$[ebp+18], dl
  00154	8a 50 13	 mov	 dl, BYTE PTR [eax+19]
  00157	84 d2		 test	 dl, dl
  00159	0f 84 4d 01 00
	00		 je	 $LN77@SetFileNam@2
  0015f	32 d3		 xor	 dl, bl
  00161	88 55 eb	 mov	 BYTE PTR __f$[ebp+19], dl
  00164	8a 50 14	 mov	 dl, BYTE PTR [eax+20]
  00167	84 d2		 test	 dl, dl
  00169	0f 84 37 01 00
	00		 je	 $LN76@SetFileNam@2
  0016f	80 f2 ed	 xor	 dl, -19			; ffffffedH
  00172	88 55 ec	 mov	 BYTE PTR __f$[ebp+20], dl
  00175	8a 50 15	 mov	 dl, BYTE PTR [eax+21]
  00178	84 d2		 test	 dl, dl
  0017a	0f 84 21 01 00
	00		 je	 $LN75@SetFileNam@2
  00180	32 d1		 xor	 dl, cl
  00182	88 55 ed	 mov	 BYTE PTR __f$[ebp+21], dl
  00185	8a 50 16	 mov	 dl, BYTE PTR [eax+22]
  00188	84 d2		 test	 dl, dl
  0018a	0f 84 0b 01 00
	00		 je	 $LN74@SetFileNam@2
  00190	80 f2 eb	 xor	 dl, -21			; ffffffebH
  00193	88 55 ee	 mov	 BYTE PTR __f$[ebp+22], dl
  00196	8a 50 17	 mov	 dl, BYTE PTR [eax+23]
  00199	84 d2		 test	 dl, dl
  0019b	0f 84 f5 00 00
	00		 je	 $LN73@SetFileNam@2
  001a1	32 d3		 xor	 dl, bl
  001a3	88 55 ef	 mov	 BYTE PTR __f$[ebp+23], dl
  001a6	8a 50 18	 mov	 dl, BYTE PTR [eax+24]
  001a9	84 d2		 test	 dl, dl
  001ab	0f 84 dc 00 00
	00		 je	 $LN72@SetFileNam@2
  001b1	80 f2 ed	 xor	 dl, -19			; ffffffedH
  001b4	88 55 f0	 mov	 BYTE PTR __f$[ebp+24], dl
  001b7	8a 50 19	 mov	 dl, BYTE PTR [eax+25]
  001ba	84 d2		 test	 dl, dl
  001bc	0f 84 c3 00 00
	00		 je	 $LN71@SetFileNam@2
  001c2	32 d1		 xor	 dl, cl
  001c4	88 55 f1	 mov	 BYTE PTR __f$[ebp+25], dl
  001c7	8a 50 1a	 mov	 dl, BYTE PTR [eax+26]
  001ca	84 d2		 test	 dl, dl
  001cc	0f 84 aa 00 00
	00		 je	 $LN70@SetFileNam@2
  001d2	80 f2 eb	 xor	 dl, -21			; ffffffebH
  001d5	88 55 f2	 mov	 BYTE PTR __f$[ebp+26], dl
  001d8	8a 50 1b	 mov	 dl, BYTE PTR [eax+27]
  001db	84 d2		 test	 dl, dl
  001dd	0f 84 91 00 00
	00		 je	 $LN69@SetFileNam@2
  001e3	32 d3		 xor	 dl, bl
  001e5	88 55 f3	 mov	 BYTE PTR __f$[ebp+27], dl
  001e8	8a 50 1c	 mov	 dl, BYTE PTR [eax+28]
  001eb	84 d2		 test	 dl, dl
  001ed	74 7c		 je	 SHORT $LN68@SetFileNam@2
  001ef	80 f2 ed	 xor	 dl, -19			; ffffffedH
  001f2	88 55 f4	 mov	 BYTE PTR __f$[ebp+28], dl
  001f5	8a 50 1d	 mov	 dl, BYTE PTR [eax+29]
  001f8	84 d2		 test	 dl, dl
  001fa	74 67		 je	 SHORT $LN67@SetFileNam@2
  001fc	32 d1		 xor	 dl, cl
  001fe	80 78 1e 00	 cmp	 BYTE PTR [eax+30], 0
  00202	88 55 f5	 mov	 BYTE PTR __f$[ebp+29], dl
  00205	0f 84 0f 01 00
	00		 je	 $LN1@SetFileNam@2
  0020b	8a 50 1f	 mov	 dl, BYTE PTR [eax+31]
  0020e	84 d2		 test	 dl, dl
  00210	74 49		 je	 SHORT $LN65@SetFileNam@2
  00212	32 d3		 xor	 dl, bl
  00214	88 55 f7	 mov	 BYTE PTR __f$[ebp+31], dl
  00217	8a 50 20	 mov	 dl, BYTE PTR [eax+32]
  0021a	84 d2		 test	 dl, dl
  0021c	74 34		 je	 SHORT $LN64@SetFileNam@2
  0021e	80 f2 ed	 xor	 dl, -19			; ffffffedH
  00221	88 55 f8	 mov	 BYTE PTR __f$[ebp+32], dl
  00224	8a 50 21	 mov	 dl, BYTE PTR [eax+33]
  00227	84 d2		 test	 dl, dl
  00229	74 1f		 je	 SHORT $LN63@SetFileNam@2
  0022b	8a 40 22	 mov	 al, BYTE PTR [eax+34]
  0022e	32 d1		 xor	 dl, cl
  00230	88 55 f9	 mov	 BYTE PTR __f$[ebp+33], dl
  00233	84 c0		 test	 al, al
  00235	74 0a		 je	 SHORT $LN62@SetFileNam@2
  00237	34 eb		 xor	 al, -21			; ffffffebH
  00239	88 45 fa	 mov	 BYTE PTR __f$[ebp+34], al
  0023c	e9 d9 00 00 00	 jmp	 $LN1@SetFileNam@2
$LN62@SetFileNam@2:
  00241	c6 45 fa eb	 mov	 BYTE PTR __f$[ebp+34], -21 ; ffffffebH
  00245	e9 d0 00 00 00	 jmp	 $LN1@SetFileNam@2
$LN63@SetFileNam@2:
  0024a	88 4d f9	 mov	 BYTE PTR __f$[ebp+33], cl
  0024d	e9 c8 00 00 00	 jmp	 $LN1@SetFileNam@2
$LN64@SetFileNam@2:
  00252	c6 45 f8 ed	 mov	 BYTE PTR __f$[ebp+32], -19 ; ffffffedH
  00256	e9 bf 00 00 00	 jmp	 $LN1@SetFileNam@2
$LN65@SetFileNam@2:
  0025b	88 5d f7	 mov	 BYTE PTR __f$[ebp+31], bl
  0025e	e9 b7 00 00 00	 jmp	 $LN1@SetFileNam@2
$LN67@SetFileNam@2:
  00263	88 4d f5	 mov	 BYTE PTR __f$[ebp+29], cl
  00266	e9 af 00 00 00	 jmp	 $LN1@SetFileNam@2
$LN68@SetFileNam@2:
  0026b	c6 45 f4 ed	 mov	 BYTE PTR __f$[ebp+28], -19 ; ffffffedH
  0026f	e9 a6 00 00 00	 jmp	 $LN1@SetFileNam@2
$LN69@SetFileNam@2:
  00274	88 5d f3	 mov	 BYTE PTR __f$[ebp+27], bl
  00277	e9 9e 00 00 00	 jmp	 $LN1@SetFileNam@2
$LN70@SetFileNam@2:
  0027c	c6 45 f2 eb	 mov	 BYTE PTR __f$[ebp+26], -21 ; ffffffebH
  00280	e9 95 00 00 00	 jmp	 $LN1@SetFileNam@2
$LN71@SetFileNam@2:
  00285	88 4d f1	 mov	 BYTE PTR __f$[ebp+25], cl
  00288	e9 8d 00 00 00	 jmp	 $LN1@SetFileNam@2
$LN72@SetFileNam@2:
  0028d	c6 45 f0 ed	 mov	 BYTE PTR __f$[ebp+24], -19 ; ffffffedH
  00291	e9 84 00 00 00	 jmp	 $LN1@SetFileNam@2
$LN73@SetFileNam@2:
  00296	88 5d ef	 mov	 BYTE PTR __f$[ebp+23], bl
  00299	eb 7f		 jmp	 SHORT $LN1@SetFileNam@2
$LN74@SetFileNam@2:
  0029b	c6 45 ee eb	 mov	 BYTE PTR __f$[ebp+22], -21 ; ffffffebH
  0029f	eb 79		 jmp	 SHORT $LN1@SetFileNam@2
$LN75@SetFileNam@2:
  002a1	88 4d ed	 mov	 BYTE PTR __f$[ebp+21], cl
  002a4	eb 74		 jmp	 SHORT $LN1@SetFileNam@2
$LN76@SetFileNam@2:
  002a6	c6 45 ec ed	 mov	 BYTE PTR __f$[ebp+20], -19 ; ffffffedH
  002aa	eb 6e		 jmp	 SHORT $LN1@SetFileNam@2
$LN77@SetFileNam@2:
  002ac	88 5d eb	 mov	 BYTE PTR __f$[ebp+19], bl
  002af	eb 69		 jmp	 SHORT $LN1@SetFileNam@2
$LN78@SetFileNam@2:
  002b1	c6 45 ea eb	 mov	 BYTE PTR __f$[ebp+18], -21 ; ffffffebH
  002b5	eb 63		 jmp	 SHORT $LN1@SetFileNam@2
$LN79@SetFileNam@2:
  002b7	88 4d e9	 mov	 BYTE PTR __f$[ebp+17], cl
  002ba	eb 5e		 jmp	 SHORT $LN1@SetFileNam@2
$LN80@SetFileNam@2:
  002bc	c6 45 e8 ed	 mov	 BYTE PTR __f$[ebp+16], -19 ; ffffffedH
  002c0	eb 58		 jmp	 SHORT $LN1@SetFileNam@2
$LN81@SetFileNam@2:
  002c2	88 5d e7	 mov	 BYTE PTR __f$[ebp+15], bl
  002c5	eb 53		 jmp	 SHORT $LN1@SetFileNam@2
$LN82@SetFileNam@2:
  002c7	c6 45 e6 eb	 mov	 BYTE PTR __f$[ebp+14], -21 ; ffffffebH
  002cb	eb 4d		 jmp	 SHORT $LN1@SetFileNam@2
$LN83@SetFileNam@2:
  002cd	88 4d e5	 mov	 BYTE PTR __f$[ebp+13], cl
  002d0	eb 48		 jmp	 SHORT $LN1@SetFileNam@2
$LN84@SetFileNam@2:
  002d2	c6 45 e4 ed	 mov	 BYTE PTR __f$[ebp+12], -19 ; ffffffedH
  002d6	eb 42		 jmp	 SHORT $LN1@SetFileNam@2
$LN85@SetFileNam@2:
  002d8	88 5d e3	 mov	 BYTE PTR __f$[ebp+11], bl
  002db	eb 3d		 jmp	 SHORT $LN1@SetFileNam@2
$LN86@SetFileNam@2:
  002dd	c6 45 e2 eb	 mov	 BYTE PTR __f$[ebp+10], -21 ; ffffffebH
  002e1	eb 37		 jmp	 SHORT $LN1@SetFileNam@2
$LN87@SetFileNam@2:
  002e3	88 4d e1	 mov	 BYTE PTR __f$[ebp+9], cl
  002e6	eb 32		 jmp	 SHORT $LN1@SetFileNam@2
$LN88@SetFileNam@2:
  002e8	c6 45 e0 ed	 mov	 BYTE PTR __f$[ebp+8], -19 ; ffffffedH
  002ec	eb 2c		 jmp	 SHORT $LN1@SetFileNam@2
$LN89@SetFileNam@2:
  002ee	88 5d df	 mov	 BYTE PTR __f$[ebp+7], bl
  002f1	eb 27		 jmp	 SHORT $LN1@SetFileNam@2
$LN90@SetFileNam@2:
  002f3	c6 45 de eb	 mov	 BYTE PTR __f$[ebp+6], -21 ; ffffffebH
  002f7	eb 21		 jmp	 SHORT $LN1@SetFileNam@2
$LN91@SetFileNam@2:
  002f9	88 4d dd	 mov	 BYTE PTR __f$[ebp+5], cl
  002fc	eb 1c		 jmp	 SHORT $LN1@SetFileNam@2
$LN92@SetFileNam@2:
  002fe	c6 45 dc ed	 mov	 BYTE PTR __f$[ebp+4], -19 ; ffffffedH
  00302	eb 16		 jmp	 SHORT $LN1@SetFileNam@2
$LN93@SetFileNam@2:
  00304	c6 45 db ea	 mov	 BYTE PTR __f$[ebp+3], -22 ; ffffffeaH
  00308	eb 10		 jmp	 SHORT $LN1@SetFileNam@2
$LN94@SetFileNam@2:
  0030a	c6 45 da eb	 mov	 BYTE PTR __f$[ebp+2], -21 ; ffffffebH
  0030e	eb 0a		 jmp	 SHORT $LN1@SetFileNam@2
$LN95@SetFileNam@2:
  00310	c6 45 d9 ec	 mov	 BYTE PTR __f$[ebp+1], -20 ; ffffffecH
  00314	eb 04		 jmp	 SHORT $LN1@SetFileNam@2
$LN96@SetFileNam@2:
  00316	c6 45 d8 ed	 mov	 BYTE PTR __f$[ebp], -19	; ffffffedH
$LN1@SetFileNam@2:
  0031a	6a 07		 push	 7
  0031c	8d 45 d8	 lea	 eax, DWORD PTR __f$[ebp]
  0031f	c6 45 f6 00	 mov	 BYTE PTR __f$[ebp+30], 0
  00323	5a		 pop	 edx
$LL104@SetFileNam@2:
  00324	81 30 ed ec eb
	ea		 xor	 DWORD PTR [eax], -353637139 ; eaebecedH
  0032a	83 c0 04	 add	 eax, 4
  0032d	4a		 dec	 edx
  0032e	75 f4		 jne	 SHORT $LL104@SetFileNam@2
  00330	6a 1c		 push	 28			; 0000001cH
  00332	58		 pop	 eax
$LL101@SetFileNam@2:
  00333	8b c8		 mov	 ecx, eax
  00335	81 e1 03 00 00
	80		 and	 ecx, -2147483645	; 80000003H
  0033b	79 05		 jns	 SHORT $LN111@SetFileNam@2
  0033d	49		 dec	 ecx
  0033e	83 c9 fc	 or	 ecx, -4			; fffffffcH
  00341	41		 inc	 ecx
$LN111@SetFileNam@2:
  00342	b2 ed		 mov	 dl, -19			; ffffffedH
  00344	2a d1		 sub	 dl, cl
  00346	30 54 05 d8	 xor	 BYTE PTR __f$[ebp+eax], dl
  0034a	40		 inc	 eax
  0034b	83 f8 1e	 cmp	 eax, 30			; 0000001eH
  0034e	7c e3		 jl	 SHORT $LL101@SetFileNam@2

; 198  : 		SetFileName(_f, b);

  00350	ff 75 0c	 push	 DWORD PTR _b$[ebp]
  00353	8d 45 d8	 lea	 eax, DWORD PTR __f$[ebp]
  00356	50		 push	 eax
  00357	8b ce		 mov	 ecx, esi
  00359	ff 15 00 00 00
	00		 call	 DWORD PTR __imp_?SetFileName@ioINILoader@@QAEXPBD_N@Z

; 199  : 	}

  0035f	8b 4d fc	 mov	 ecx, DWORD PTR __$ArrayPad$[ebp]
  00362	5e		 pop	 esi
  00363	33 cd		 xor	 ecx, ebp
  00365	5b		 pop	 ebx
  00366	e8 00 00 00 00	 call	 @__security_check_cookie@4
  0036b	c9		 leave
  0036c	c2 08 00	 ret	 8
??$SetFileName_e@$0BP@@ioINILoader@@QAEXAAY0BP@$$CBD_N@Z ENDP ; ioINILoader::SetFileName_e<31>
_TEXT	ENDS
PUBLIC	__$ArrayPad$
PUBLIC	??$LoadInt_e@$0L@@ioINILoader@@QAEHAAY0L@$$CBDH@Z ; ioINILoader::LoadInt_e<11>
EXTRN	__imp_?LoadInt@ioINILoader@@QAEHPBDH@Z:PROC
; Function compile flags: /Ogsp
;	COMDAT ??$LoadInt_e@$0L@@ioINILoader@@QAEHAAY0L@$$CBDH@Z
_TEXT	SEGMENT
__k$ = -20						; size = 11
__$ArrayPad$ = -4					; size = 4
_k$ = 8							; size = 4
_i$ = 12						; size = 4
??$LoadInt_e@$0L@@ioINILoader@@QAEHAAY0L@$$CBDH@Z PROC	; ioINILoader::LoadInt_e<11>, COMDAT
; _this$ = ecx

; 118  : 	{

  00000	55		 push	 ebp
  00001	8b ec		 mov	 ebp, esp
  00003	83 ec 14	 sub	 esp, 20			; 00000014H
  00006	a1 00 00 00 00	 mov	 eax, DWORD PTR ___security_cookie
  0000b	33 c5		 xor	 eax, ebp
  0000d	89 45 fc	 mov	 DWORD PTR __$ArrayPad$[ebp], eax
  00010	8b 45 08	 mov	 eax, DWORD PTR _k$[ebp]

; 119  : 		_ENCSTR(k, _k);

  00013	8a 10		 mov	 dl, BYTE PTR [eax]
  00015	56		 push	 esi
  00016	8b f1		 mov	 esi, ecx
  00018	84 d2		 test	 dl, dl
  0001a	0f 84 24 01 00
	00		 je	 $LN96@LoadInt_e
  00020	80 f2 ed	 xor	 dl, -19			; ffffffedH
  00023	88 55 ec	 mov	 BYTE PTR __k$[ebp], dl
  00026	8a 50 01	 mov	 dl, BYTE PTR [eax+1]
  00029	84 d2		 test	 dl, dl
  0002b	0f 84 0d 01 00
	00		 je	 $LN95@LoadInt_e
  00031	80 f2 ec	 xor	 dl, -20			; ffffffecH
  00034	88 55 ed	 mov	 BYTE PTR __k$[ebp+1], dl
  00037	8a 50 02	 mov	 dl, BYTE PTR [eax+2]
  0003a	84 d2		 test	 dl, dl
  0003c	0f 84 f6 00 00
	00		 je	 $LN94@LoadInt_e
  00042	80 f2 eb	 xor	 dl, -21			; ffffffebH
  00045	88 55 ee	 mov	 BYTE PTR __k$[ebp+2], dl
  00048	8a 50 03	 mov	 dl, BYTE PTR [eax+3]
  0004b	84 d2		 test	 dl, dl
  0004d	0f 84 df 00 00
	00		 je	 $LN93@LoadInt_e
  00053	80 f2 ea	 xor	 dl, -22			; ffffffeaH
  00056	88 55 ef	 mov	 BYTE PTR __k$[ebp+3], dl
  00059	8a 50 04	 mov	 dl, BYTE PTR [eax+4]
  0005c	84 d2		 test	 dl, dl
  0005e	0f 84 c8 00 00
	00		 je	 $LN92@LoadInt_e
  00064	80 f2 ed	 xor	 dl, -19			; ffffffedH
  00067	88 55 f0	 mov	 BYTE PTR __k$[ebp+4], dl
  0006a	8a 50 05	 mov	 dl, BYTE PTR [eax+5]
  0006d	84 d2		 test	 dl, dl
  0006f	0f 84 b1 00 00
	00		 je	 $LN91@LoadInt_e
  00075	80 f2 ec	 xor	 dl, -20			; ffffffecH
  00078	88 55 f1	 mov	 BYTE PTR __k$[ebp+5], dl
  0007b	8a 50 06	 mov	 dl, BYTE PTR [eax+6]
  0007e	84 d2		 test	 dl, dl
  00080	0f 84 9a 00 00
	00		 je	 $LN90@LoadInt_e
  00086	80 f2 eb	 xor	 dl, -21			; ffffffebH
  00089	88 55 f2	 mov	 BYTE PTR __k$[ebp+6], dl
  0008c	8a 50 07	 mov	 dl, BYTE PTR [eax+7]
  0008f	84 d2		 test	 dl, dl
  00091	0f 84 83 00 00
	00		 je	 $LN89@LoadInt_e
  00097	80 f2 ea	 xor	 dl, -22			; ffffffeaH
  0009a	88 55 f3	 mov	 BYTE PTR __k$[ebp+7], dl
  0009d	8a 50 08	 mov	 dl, BYTE PTR [eax+8]
  000a0	84 d2		 test	 dl, dl
  000a2	74 70		 je	 SHORT $LN88@LoadInt_e
  000a4	80 f2 ed	 xor	 dl, -19			; ffffffedH
  000a7	88 55 f4	 mov	 BYTE PTR __k$[ebp+8], dl
  000aa	8a 50 09	 mov	 dl, BYTE PTR [eax+9]
  000ad	84 d2		 test	 dl, dl
  000af	74 5d		 je	 SHORT $LN87@LoadInt_e
  000b1	80 f2 ec	 xor	 dl, -20			; ffffffecH
  000b4	80 78 0a 00	 cmp	 BYTE PTR [eax+10], 0
  000b8	88 55 f5	 mov	 BYTE PTR __k$[ebp+9], dl
  000bb	0f 84 87 00 00
	00		 je	 $LN1@LoadInt_e
  000c1	8a 50 0b	 mov	 dl, BYTE PTR [eax+11]
  000c4	84 d2		 test	 dl, dl
  000c6	74 40		 je	 SHORT $LN85@LoadInt_e
  000c8	80 f2 ea	 xor	 dl, -22			; ffffffeaH
  000cb	88 55 f7	 mov	 BYTE PTR __k$[ebp+11], dl
  000ce	8a 50 0c	 mov	 dl, BYTE PTR [eax+12]
  000d1	84 d2		 test	 dl, dl
  000d3	74 2d		 je	 SHORT $LN84@LoadInt_e
  000d5	80 f2 ed	 xor	 dl, -19			; ffffffedH
  000d8	88 55 f8	 mov	 BYTE PTR __k$[ebp+12], dl
  000db	8a 50 0d	 mov	 dl, BYTE PTR [eax+13]
  000de	84 d2		 test	 dl, dl
  000e0	74 1a		 je	 SHORT $LN83@LoadInt_e
  000e2	8a 40 0e	 mov	 al, BYTE PTR [eax+14]
  000e5	80 f2 ec	 xor	 dl, -20			; ffffffecH
  000e8	88 55 f9	 mov	 BYTE PTR __k$[ebp+13], dl
  000eb	84 c0		 test	 al, al
  000ed	74 07		 je	 SHORT $LN82@LoadInt_e
  000ef	34 eb		 xor	 al, -21			; ffffffebH
  000f1	88 45 fa	 mov	 BYTE PTR __k$[ebp+14], al
  000f4	eb 52		 jmp	 SHORT $LN1@LoadInt_e
$LN82@LoadInt_e:
  000f6	c6 45 fa eb	 mov	 BYTE PTR __k$[ebp+14], -21 ; ffffffebH
  000fa	eb 4c		 jmp	 SHORT $LN1@LoadInt_e
$LN83@LoadInt_e:
  000fc	c6 45 f9 ec	 mov	 BYTE PTR __k$[ebp+13], -20 ; ffffffecH
  00100	eb 46		 jmp	 SHORT $LN1@LoadInt_e
$LN84@LoadInt_e:
  00102	c6 45 f8 ed	 mov	 BYTE PTR __k$[ebp+12], -19 ; ffffffedH
  00106	eb 40		 jmp	 SHORT $LN1@LoadInt_e
$LN85@LoadInt_e:
  00108	c6 45 f7 ea	 mov	 BYTE PTR __k$[ebp+11], -22 ; ffffffeaH
  0010c	eb 3a		 jmp	 SHORT $LN1@LoadInt_e
$LN87@LoadInt_e:
  0010e	c6 45 f5 ec	 mov	 BYTE PTR __k$[ebp+9], -20 ; ffffffecH
  00112	eb 34		 jmp	 SHORT $LN1@LoadInt_e
$LN88@LoadInt_e:
  00114	c6 45 f4 ed	 mov	 BYTE PTR __k$[ebp+8], -19 ; ffffffedH
  00118	eb 2e		 jmp	 SHORT $LN1@LoadInt_e
$LN89@LoadInt_e:
  0011a	c6 45 f3 ea	 mov	 BYTE PTR __k$[ebp+7], -22 ; ffffffeaH
  0011e	eb 28		 jmp	 SHORT $LN1@LoadInt_e
$LN90@LoadInt_e:
  00120	c6 45 f2 eb	 mov	 BYTE PTR __k$[ebp+6], -21 ; ffffffebH
  00124	eb 22		 jmp	 SHORT $LN1@LoadInt_e
$LN91@LoadInt_e:
  00126	c6 45 f1 ec	 mov	 BYTE PTR __k$[ebp+5], -20 ; ffffffecH
  0012a	eb 1c		 jmp	 SHORT $LN1@LoadInt_e
$LN92@LoadInt_e:
  0012c	c6 45 f0 ed	 mov	 BYTE PTR __k$[ebp+4], -19 ; ffffffedH
  00130	eb 16		 jmp	 SHORT $LN1@LoadInt_e
$LN93@LoadInt_e:
  00132	c6 45 ef ea	 mov	 BYTE PTR __k$[ebp+3], -22 ; ffffffeaH
  00136	eb 10		 jmp	 SHORT $LN1@LoadInt_e
$LN94@LoadInt_e:
  00138	c6 45 ee eb	 mov	 BYTE PTR __k$[ebp+2], -21 ; ffffffebH
  0013c	eb 0a		 jmp	 SHORT $LN1@LoadInt_e
$LN95@LoadInt_e:
  0013e	c6 45 ed ec	 mov	 BYTE PTR __k$[ebp+1], -20 ; ffffffecH
  00142	eb 04		 jmp	 SHORT $LN1@LoadInt_e
$LN96@LoadInt_e:
  00144	c6 45 ec ed	 mov	 BYTE PTR __k$[ebp], -19	; ffffffedH
$LN1@LoadInt_e:
  00148	6a 02		 push	 2
  0014a	8d 45 ec	 lea	 eax, DWORD PTR __k$[ebp]
  0014d	c6 45 f6 00	 mov	 BYTE PTR __k$[ebp+10], 0
  00151	5a		 pop	 edx
$LL104@LoadInt_e:
  00152	81 30 ed ec eb
	ea		 xor	 DWORD PTR [eax], -353637139 ; eaebecedH
  00158	83 c0 04	 add	 eax, 4
  0015b	4a		 dec	 edx
  0015c	75 f4		 jne	 SHORT $LL104@LoadInt_e
  0015e	6a 08		 push	 8
  00160	58		 pop	 eax
$LL101@LoadInt_e:
  00161	8b c8		 mov	 ecx, eax
  00163	81 e1 03 00 00
	80		 and	 ecx, -2147483645	; 80000003H
  00169	79 05		 jns	 SHORT $LN111@LoadInt_e
  0016b	49		 dec	 ecx
  0016c	83 c9 fc	 or	 ecx, -4			; fffffffcH
  0016f	41		 inc	 ecx
$LN111@LoadInt_e:
  00170	b2 ed		 mov	 dl, -19			; ffffffedH
  00172	2a d1		 sub	 dl, cl
  00174	30 54 05 ec	 xor	 BYTE PTR __k$[ebp+eax], dl
  00178	40		 inc	 eax
  00179	83 f8 0a	 cmp	 eax, 10			; 0000000aH
  0017c	7c e3		 jl	 SHORT $LL101@LoadInt_e

; 120  : 		return LoadInt(_k, i);

  0017e	ff 75 0c	 push	 DWORD PTR _i$[ebp]
  00181	8d 45 ec	 lea	 eax, DWORD PTR __k$[ebp]
  00184	50		 push	 eax
  00185	8b ce		 mov	 ecx, esi
  00187	ff 15 00 00 00
	00		 call	 DWORD PTR __imp_?LoadInt@ioINILoader@@QAEHPBDH@Z

; 121  : 	}

  0018d	8b 4d fc	 mov	 ecx, DWORD PTR __$ArrayPad$[ebp]
  00190	33 cd		 xor	 ecx, ebp
  00192	5e		 pop	 esi
  00193	e8 00 00 00 00	 call	 @__security_check_cookie@4
  00198	c9		 leave
  00199	c2 08 00	 ret	 8
??$LoadInt_e@$0L@@ioINILoader@@QAEHAAY0L@$$CBDH@Z ENDP	; ioINILoader::LoadInt_e<11>
_TEXT	ENDS
PUBLIC	??$_Cons_val@V?$allocator@PAVioMission@@@std@@PAVioMission@@AAPAV3@@std@@YAXAAV?$allocator@PAVioMission@@@0@PAPAVioMission@@AAPAV2@@Z ; std::_Cons_val<std::allocator<ioMission *>,ioMission *,ioMission * &>
; Function compile flags: /Ogsp
; File c:\program files (x86)\microsoft visual studio 10.0\vc\include\xmemory
;	COMDAT ??$_Cons_val@V?$allocator@PAVioMission@@@std@@PAVioMission@@AAPAV3@@std@@YAXAAV?$allocator@PAVioMission@@@0@PAPAVioMission@@AAPAV2@@Z
_TEXT	SEGMENT
__Alval$ = 8						; size = 4
__Pdest$ = 12						; size = 4
__Src$ = 16						; size = 4
??$_Cons_val@V?$allocator@PAVioMission@@@std@@PAVioMission@@AAPAV3@@std@@YAXAAV?$allocator@PAVioMission@@@0@PAPAVioMission@@AAPAV2@@Z PROC ; std::_Cons_val<std::allocator<ioMission *>,ioMission *,ioMission * &>, COMDAT

; 279  : 	{	// construct using allocator

  00000	55		 push	 ebp
  00001	8b ec		 mov	 ebp, esp

; 280  : 	_Alval.construct(_Pdest, _STD forward<_Ty2>(_Src));

  00003	8b 45 0c	 mov	 eax, DWORD PTR __Pdest$[ebp]
  00006	85 c0		 test	 eax, eax
  00008	74 07		 je	 SHORT $LN7@Cons_val
  0000a	8b 4d 10	 mov	 ecx, DWORD PTR __Src$[ebp]
  0000d	8b 09		 mov	 ecx, DWORD PTR [ecx]
  0000f	89 08		 mov	 DWORD PTR [eax], ecx
$LN7@Cons_val:

; 281  : 	}

  00011	5d		 pop	 ebp
  00012	c3		 ret	 0
??$_Cons_val@V?$allocator@PAVioMission@@@std@@PAVioMission@@AAPAV3@@std@@YAXAAV?$allocator@PAVioMission@@@0@PAPAVioMission@@AAPAV2@@Z ENDP ; std::_Cons_val<std::allocator<ioMission *>,ioMission *,ioMission * &>
_TEXT	ENDS
PUBLIC	??$_Move@PAPAVioMission@@PAPAV1@@std@@YAPAPAVioMission@@PAPAV1@00@Z ; std::_Move<ioMission * *,ioMission * *>
; Function compile flags: /Ogsp
; File c:\program files (x86)\microsoft visual studio 10.0\vc\include\xutility
;	COMDAT ??$_Move@PAPAVioMission@@PAPAV1@@std@@YAPAPAVioMission@@PAPAV1@00@Z
_TEXT	SEGMENT
__Cat$510618 = -4					; size = 1
__First$ = 8						; size = 4
__Last$ = 12						; size = 4
__Dest$ = 16						; size = 4
??$_Move@PAPAVioMission@@PAPAV1@@std@@YAPAPAVioMission@@PAPAV1@00@Z PROC ; std::_Move<ioMission * *,ioMission * *>, COMDAT

; 2533 : 	{	// move [_First, _Last) to [_Dest, ...), unchecked

  00000	55		 push	 ebp
  00001	8b ec		 mov	 ebp, esp
  00003	51		 push	 ecx

; 2534 : 	return (_Move(_First, _Last,
; 2535 : 		_Dest, _Ptr_cat(_First, _Dest)));

  00004	ff 75 fc	 push	 DWORD PTR __Cat$510618[ebp]
  00007	ff 75 10	 push	 DWORD PTR __Dest$[ebp]
  0000a	ff 75 0c	 push	 DWORD PTR __Last$[ebp]
  0000d	ff 75 08	 push	 DWORD PTR __First$[ebp]
  00010	e8 00 00 00 00	 call	 ??$_Move@PAPAVioMission@@PAPAV1@@std@@YAPAPAVioMission@@PAPAV1@00U_Scalar_ptr_iterator_tag@0@@Z ; std::_Move<ioMission * *,ioMission * *>
  00015	83 c4 10	 add	 esp, 16			; 00000010H

; 2536 : 	}

  00018	c9		 leave
  00019	c3		 ret	 0
??$_Move@PAPAVioMission@@PAPAV1@@std@@YAPAPAVioMission@@PAPAV1@00@Z ENDP ; std::_Move<ioMission * *,ioMission * *>
_TEXT	ENDS
PUBLIC	??$_Destroy_range@V?$allocator@PAVioMission@@@std@@@std@@YAXPAPAVioMission@@0AAV?$allocator@PAVioMission@@@0@@Z ; std::_Destroy_range<std::allocator<ioMission *> >
; Function compile flags: /Ogsp
; File c:\program files (x86)\microsoft visual studio 10.0\vc\include\xmemory
;	COMDAT ??$_Destroy_range@V?$allocator@PAVioMission@@@std@@@std@@YAXPAPAVioMission@@0AAV?$allocator@PAVioMission@@@0@@Z
_TEXT	SEGMENT
__First$ = 8						; size = 4
__Last$ = 12						; size = 4
__Al$ = 16						; size = 4
??$_Destroy_range@V?$allocator@PAVioMission@@@std@@@std@@YAXPAPAVioMission@@0AAV?$allocator@PAVioMission@@@0@@Z PROC ; std::_Destroy_range<std::allocator<ioMission *> >, COMDAT

; 88   : 	_Destroy_range(_First, _Last, _Al, _Ptr_cat(_First, _Last));
; 89   : 	}

  00000	c3		 ret	 0
??$_Destroy_range@V?$allocator@PAVioMission@@@std@@@std@@YAXPAPAVioMission@@0AAV?$allocator@PAVioMission@@@0@@Z ENDP ; std::_Destroy_range<std::allocator<ioMission *> >
_TEXT	ENDS
PUBLIC	?construct@?$allocator@PAVioMission@@@std@@QAEXPAPAVioMission@@ABQAV3@@Z ; std::allocator<ioMission *>::construct
; Function compile flags: /Ogsp
;	COMDAT ?construct@?$allocator@PAVioMission@@@std@@QAEXPAPAVioMission@@ABQAV3@@Z
_TEXT	SEGMENT
__Ptr$ = 8						; size = 4
__Val$ = 12						; size = 4
?construct@?$allocator@PAVioMission@@@std@@QAEXPAPAVioMission@@ABQAV3@@Z PROC ; std::allocator<ioMission *>::construct, COMDAT
; _this$ = ecx

; 196  : 		{	// construct object at _Ptr with value _Val

  00000	55		 push	 ebp
  00001	8b ec		 mov	 ebp, esp

; 197  : 		_Construct(_Ptr, _Val);

  00003	8b 45 08	 mov	 eax, DWORD PTR __Ptr$[ebp]
  00006	85 c0		 test	 eax, eax
  00008	74 07		 je	 SHORT $LN5@construct@2
  0000a	8b 4d 0c	 mov	 ecx, DWORD PTR __Val$[ebp]
  0000d	8b 09		 mov	 ecx, DWORD PTR [ecx]
  0000f	89 08		 mov	 DWORD PTR [eax], ecx
$LN5@construct@2:

; 198  : 		}

  00011	5d		 pop	 ebp
  00012	c2 08 00	 ret	 8
?construct@?$allocator@PAVioMission@@@std@@QAEXPAPAVioMission@@ABQAV3@@Z ENDP ; std::allocator<ioMission *>::construct
_TEXT	ENDS
PUBLIC	??G?$_Vector_iterator@V?$_Vector_val@PAVioMission@@V?$allocator@PAVioMission@@@std@@@std@@@std@@QBEHABV?$_Vector_const_iterator@V?$_Vector_val@PAVioMission@@V?$allocator@PAVioMission@@@std@@@std@@@1@@Z ; std::_Vector_iterator<std::_Vector_val<ioMission *,std::allocator<ioMission *> > >::operator-
; Function compile flags: /Ogsp
; File c:\program files (x86)\microsoft visual studio 10.0\vc\include\vector
;	COMDAT ??G?$_Vector_iterator@V?$_Vector_val@PAVioMission@@V?$allocator@PAVioMission@@@std@@@std@@@std@@QBEHABV?$_Vector_const_iterator@V?$_Vector_val@PAVioMission@@V?$allocator@PAVioMission@@@std@@@std@@@1@@Z
_TEXT	SEGMENT
__Right$ = 8						; size = 4
??G?$_Vector_iterator@V?$_Vector_val@PAVioMission@@V?$allocator@PAVioMission@@@std@@@std@@@std@@QBEHABV?$_Vector_const_iterator@V?$_Vector_val@PAVioMission@@V?$allocator@PAVioMission@@@std@@@std@@@1@@Z PROC ; std::_Vector_iterator<std::_Vector_val<ioMission *,std::allocator<ioMission *> > >::operator-, COMDAT
; _this$ = ecx

; 380  : 		{	// return difference of iterators

  00000	55		 push	 ebp
  00001	8b ec		 mov	 ebp, esp

; 381  : 		return (*(_Mybase *)this - _Right);

  00003	8b 01		 mov	 eax, DWORD PTR [ecx]
  00005	8b 4d 08	 mov	 ecx, DWORD PTR __Right$[ebp]
  00008	2b 01		 sub	 eax, DWORD PTR [ecx]
  0000a	c1 f8 02	 sar	 eax, 2

; 382  : 		}

  0000d	5d		 pop	 ebp
  0000e	c2 04 00	 ret	 4
??G?$_Vector_iterator@V?$_Vector_val@PAVioMission@@V?$allocator@PAVioMission@@@std@@@std@@@std@@QBEHABV?$_Vector_const_iterator@V?$_Vector_val@PAVioMission@@V?$allocator@PAVioMission@@@std@@@std@@@1@@Z ENDP ; std::_Vector_iterator<std::_Vector_val<ioMission *,std::allocator<ioMission *> > >::operator-
_TEXT	ENDS
PUBLIC	??$encodeString@$0BN@@ioINILoader_e@@AAEPADAAY0BN@$$CBDPAD@Z ; ioINILoader_e::encodeString<29>
; Function compile flags: /Ogsp
; File d:\lost saga for developer\youtube\tutorial\source\src\io3dengine\ioiniloader.h
;	COMDAT ??$encodeString@$0BN@@ioINILoader_e@@AAEPADAAY0BN@$$CBDPAD@Z
_TEXT	SEGMENT
_s$ = 8							; size = 4
_e$ = 12						; size = 4
??$encodeString@$0BN@@ioINILoader_e@@AAEPADAAY0BN@$$CBDPAD@Z PROC ; ioINILoader_e::encodeString<29>, COMDAT
; _this$ = ecx

; 215  : 	{

  00000	55		 push	 ebp
  00001	8b ec		 mov	 ebp, esp

; 216  : 		__ENCSTR(s, e);

  00003	8b 4d 08	 mov	 ecx, DWORD PTR _s$[ebp]
  00006	8a 11		 mov	 dl, BYTE PTR [ecx]
  00008	8b 45 0c	 mov	 eax, DWORD PTR _e$[ebp]
  0000b	53		 push	 ebx
  0000c	84 d2		 test	 dl, dl
  0000e	0f 84 6a 04 00
	00		 je	 $LN96@encodeStri
  00014	80 f2 ed	 xor	 dl, -19			; ffffffedH
  00017	88 10		 mov	 BYTE PTR [eax], dl
  00019	8a 51 01	 mov	 dl, BYTE PTR [ecx+1]
  0001c	84 d2		 test	 dl, dl
  0001e	0f 84 54 04 00
	00		 je	 $LN95@encodeStri
  00024	80 f2 ec	 xor	 dl, -20			; ffffffecH
  00027	88 50 01	 mov	 BYTE PTR [eax+1], dl
  0002a	8a 51 02	 mov	 dl, BYTE PTR [ecx+2]
  0002d	84 d2		 test	 dl, dl
  0002f	0f 84 3d 04 00
	00		 je	 $LN94@encodeStri
  00035	b3 eb		 mov	 bl, -21			; ffffffebH
  00037	32 d3		 xor	 dl, bl
  00039	88 50 02	 mov	 BYTE PTR [eax+2], dl
  0003c	8a 51 03	 mov	 dl, BYTE PTR [ecx+3]
  0003f	84 d2		 test	 dl, dl
  00041	0f 84 25 04 00
	00		 je	 $LN93@encodeStri
  00047	80 f2 ea	 xor	 dl, -22			; ffffffeaH
  0004a	88 50 03	 mov	 BYTE PTR [eax+3], dl
  0004d	8a 51 04	 mov	 dl, BYTE PTR [ecx+4]
  00050	84 d2		 test	 dl, dl
  00052	0f 84 0e 04 00
	00		 je	 $LN92@encodeStri
  00058	80 f2 ed	 xor	 dl, -19			; ffffffedH
  0005b	88 50 04	 mov	 BYTE PTR [eax+4], dl
  0005e	8a 51 05	 mov	 dl, BYTE PTR [ecx+5]
  00061	84 d2		 test	 dl, dl
  00063	0f 84 f7 03 00
	00		 je	 $LN91@encodeStri
  00069	80 f2 ec	 xor	 dl, -20			; ffffffecH
  0006c	88 50 05	 mov	 BYTE PTR [eax+5], dl
  0006f	8a 51 06	 mov	 dl, BYTE PTR [ecx+6]
  00072	84 d2		 test	 dl, dl
  00074	0f 84 e1 03 00
	00		 je	 $LN90@encodeStri
  0007a	32 d3		 xor	 dl, bl
  0007c	88 50 06	 mov	 BYTE PTR [eax+6], dl
  0007f	8a 51 07	 mov	 dl, BYTE PTR [ecx+7]
  00082	84 d2		 test	 dl, dl
  00084	0f 84 cb 03 00
	00		 je	 $LN89@encodeStri
  0008a	80 f2 ea	 xor	 dl, -22			; ffffffeaH
  0008d	88 50 07	 mov	 BYTE PTR [eax+7], dl
  00090	8a 51 08	 mov	 dl, BYTE PTR [ecx+8]
  00093	84 d2		 test	 dl, dl
  00095	0f 84 b4 03 00
	00		 je	 $LN88@encodeStri
  0009b	80 f2 ed	 xor	 dl, -19			; ffffffedH
  0009e	88 50 08	 mov	 BYTE PTR [eax+8], dl
  000a1	8a 51 09	 mov	 dl, BYTE PTR [ecx+9]
  000a4	84 d2		 test	 dl, dl
  000a6	0f 84 9d 03 00
	00		 je	 $LN87@encodeStri
  000ac	80 f2 ec	 xor	 dl, -20			; ffffffecH
  000af	88 50 09	 mov	 BYTE PTR [eax+9], dl
  000b2	8a 51 0a	 mov	 dl, BYTE PTR [ecx+10]
  000b5	84 d2		 test	 dl, dl
  000b7	0f 84 87 03 00
	00		 je	 $LN86@encodeStri
  000bd	32 d3		 xor	 dl, bl
  000bf	88 50 0a	 mov	 BYTE PTR [eax+10], dl
  000c2	8a 51 0b	 mov	 dl, BYTE PTR [ecx+11]
  000c5	84 d2		 test	 dl, dl
  000c7	0f 84 71 03 00
	00		 je	 $LN85@encodeStri
  000cd	80 f2 ea	 xor	 dl, -22			; ffffffeaH
  000d0	88 50 0b	 mov	 BYTE PTR [eax+11], dl
  000d3	8a 51 0c	 mov	 dl, BYTE PTR [ecx+12]
  000d6	84 d2		 test	 dl, dl
  000d8	0f 84 5a 03 00
	00		 je	 $LN84@encodeStri
  000de	80 f2 ed	 xor	 dl, -19			; ffffffedH
  000e1	88 50 0c	 mov	 BYTE PTR [eax+12], dl
  000e4	8a 51 0d	 mov	 dl, BYTE PTR [ecx+13]
  000e7	84 d2		 test	 dl, dl
  000e9	0f 84 43 03 00
	00		 je	 $LN83@encodeStri
  000ef	80 f2 ec	 xor	 dl, -20			; ffffffecH
  000f2	88 50 0d	 mov	 BYTE PTR [eax+13], dl
  000f5	8a 51 0e	 mov	 dl, BYTE PTR [ecx+14]
  000f8	84 d2		 test	 dl, dl
  000fa	0f 84 2d 03 00
	00		 je	 $LN82@encodeStri
  00100	32 d3		 xor	 dl, bl
  00102	88 50 0e	 mov	 BYTE PTR [eax+14], dl
  00105	8a 51 0f	 mov	 dl, BYTE PTR [ecx+15]
  00108	84 d2		 test	 dl, dl
  0010a	0f 84 17 03 00
	00		 je	 $LN81@encodeStri
  00110	80 f2 ea	 xor	 dl, -22			; ffffffeaH
  00113	88 50 0f	 mov	 BYTE PTR [eax+15], dl
  00116	8a 51 10	 mov	 dl, BYTE PTR [ecx+16]
  00119	84 d2		 test	 dl, dl
  0011b	0f 84 00 03 00
	00		 je	 $LN80@encodeStri
  00121	80 f2 ed	 xor	 dl, -19			; ffffffedH
  00124	88 50 10	 mov	 BYTE PTR [eax+16], dl
  00127	8a 51 11	 mov	 dl, BYTE PTR [ecx+17]
  0012a	84 d2		 test	 dl, dl
  0012c	0f 84 e9 02 00
	00		 je	 $LN79@encodeStri
  00132	80 f2 ec	 xor	 dl, -20			; ffffffecH
  00135	88 50 11	 mov	 BYTE PTR [eax+17], dl
  00138	8a 51 12	 mov	 dl, BYTE PTR [ecx+18]
  0013b	84 d2		 test	 dl, dl
  0013d	0f 84 d3 02 00
	00		 je	 $LN78@encodeStri
  00143	32 d3		 xor	 dl, bl
  00145	88 50 12	 mov	 BYTE PTR [eax+18], dl
  00148	8a 51 13	 mov	 dl, BYTE PTR [ecx+19]
  0014b	84 d2		 test	 dl, dl
  0014d	0f 84 bd 02 00
	00		 je	 $LN77@encodeStri
  00153	80 f2 ea	 xor	 dl, -22			; ffffffeaH
  00156	88 50 13	 mov	 BYTE PTR [eax+19], dl
  00159	8a 51 14	 mov	 dl, BYTE PTR [ecx+20]
  0015c	84 d2		 test	 dl, dl
  0015e	0f 84 a6 02 00
	00		 je	 $LN76@encodeStri
  00164	80 f2 ed	 xor	 dl, -19			; ffffffedH
  00167	88 50 14	 mov	 BYTE PTR [eax+20], dl
  0016a	8a 51 15	 mov	 dl, BYTE PTR [ecx+21]
  0016d	84 d2		 test	 dl, dl
  0016f	0f 84 8f 02 00
	00		 je	 $LN75@encodeStri
  00175	80 f2 ec	 xor	 dl, -20			; ffffffecH
  00178	88 50 15	 mov	 BYTE PTR [eax+21], dl
  0017b	8a 51 16	 mov	 dl, BYTE PTR [ecx+22]
  0017e	84 d2		 test	 dl, dl
  00180	0f 84 79 02 00
	00		 je	 $LN74@encodeStri
  00186	32 d3		 xor	 dl, bl
  00188	88 50 16	 mov	 BYTE PTR [eax+22], dl
  0018b	8a 51 17	 mov	 dl, BYTE PTR [ecx+23]
  0018e	84 d2		 test	 dl, dl
  00190	0f 84 60 02 00
	00		 je	 $LN73@encodeStri
  00196	80 f2 ea	 xor	 dl, -22			; ffffffeaH
  00199	88 50 17	 mov	 BYTE PTR [eax+23], dl
  0019c	8a 51 18	 mov	 dl, BYTE PTR [ecx+24]
  0019f	84 d2		 test	 dl, dl
  001a1	0f 84 46 02 00
	00		 je	 $LN72@encodeStri
  001a7	80 f2 ed	 xor	 dl, -19			; ffffffedH
  001aa	88 50 18	 mov	 BYTE PTR [eax+24], dl
  001ad	8a 51 19	 mov	 dl, BYTE PTR [ecx+25]
  001b0	84 d2		 test	 dl, dl
  001b2	0f 84 2c 02 00
	00		 je	 $LN71@encodeStri
  001b8	80 f2 ec	 xor	 dl, -20			; ffffffecH
  001bb	88 50 19	 mov	 BYTE PTR [eax+25], dl
  001be	8a 51 1a	 mov	 dl, BYTE PTR [ecx+26]
  001c1	84 d2		 test	 dl, dl
  001c3	0f 84 13 02 00
	00		 je	 $LN70@encodeStri
  001c9	32 d3		 xor	 dl, bl
  001cb	88 50 1a	 mov	 BYTE PTR [eax+26], dl
  001ce	8a 51 1b	 mov	 dl, BYTE PTR [ecx+27]
  001d1	84 d2		 test	 dl, dl
  001d3	0f 84 fa 01 00
	00		 je	 $LN69@encodeStri
  001d9	80 f2 ea	 xor	 dl, -22			; ffffffeaH
  001dc	88 50 1b	 mov	 BYTE PTR [eax+27], dl
  001df	8a 51 1c	 mov	 dl, BYTE PTR [ecx+28]
  001e2	84 d2		 test	 dl, dl
  001e4	0f 84 e0 01 00
	00		 je	 $LN68@encodeStri
  001ea	80 f2 ed	 xor	 dl, -19			; ffffffedH
  001ed	88 50 1c	 mov	 BYTE PTR [eax+28], dl
  001f0	8a 51 1d	 mov	 dl, BYTE PTR [ecx+29]
  001f3	84 d2		 test	 dl, dl
  001f5	0f 84 c6 01 00
	00		 je	 $LN67@encodeStri
  001fb	80 f2 ec	 xor	 dl, -20			; ffffffecH
  001fe	88 50 1d	 mov	 BYTE PTR [eax+29], dl
  00201	8a 51 1e	 mov	 dl, BYTE PTR [ecx+30]
  00204	84 d2		 test	 dl, dl
  00206	0f 84 ad 01 00
	00		 je	 $LN66@encodeStri
  0020c	32 d3		 xor	 dl, bl
  0020e	88 50 1e	 mov	 BYTE PTR [eax+30], dl
  00211	8a 51 1f	 mov	 dl, BYTE PTR [ecx+31]
  00214	84 d2		 test	 dl, dl
  00216	0f 84 94 01 00
	00		 je	 $LN65@encodeStri
  0021c	80 f2 ea	 xor	 dl, -22			; ffffffeaH
  0021f	88 50 1f	 mov	 BYTE PTR [eax+31], dl
  00222	8a 51 20	 mov	 dl, BYTE PTR [ecx+32]
  00225	84 d2		 test	 dl, dl
  00227	0f 84 7a 01 00
	00		 je	 $LN64@encodeStri
  0022d	80 f2 ed	 xor	 dl, -19			; ffffffedH
  00230	88 50 20	 mov	 BYTE PTR [eax+32], dl
  00233	8a 51 21	 mov	 dl, BYTE PTR [ecx+33]
  00236	84 d2		 test	 dl, dl
  00238	0f 84 60 01 00
	00		 je	 $LN63@encodeStri
  0023e	80 f2 ec	 xor	 dl, -20			; ffffffecH
  00241	88 50 21	 mov	 BYTE PTR [eax+33], dl
  00244	8a 51 22	 mov	 dl, BYTE PTR [ecx+34]
  00247	84 d2		 test	 dl, dl
  00249	0f 84 47 01 00
	00		 je	 $LN62@encodeStri
  0024f	32 d3		 xor	 dl, bl
  00251	88 50 22	 mov	 BYTE PTR [eax+34], dl
  00254	8a 51 23	 mov	 dl, BYTE PTR [ecx+35]
  00257	84 d2		 test	 dl, dl
  00259	0f 84 2e 01 00
	00		 je	 $LN61@encodeStri
  0025f	80 f2 ea	 xor	 dl, -22			; ffffffeaH
  00262	88 50 23	 mov	 BYTE PTR [eax+35], dl
  00265	8a 51 24	 mov	 dl, BYTE PTR [ecx+36]
  00268	84 d2		 test	 dl, dl
  0026a	0f 84 14 01 00
	00		 je	 $LN60@encodeStri
  00270	80 f2 ed	 xor	 dl, -19			; ffffffedH
  00273	88 50 24	 mov	 BYTE PTR [eax+36], dl
  00276	8a 51 25	 mov	 dl, BYTE PTR [ecx+37]
  00279	84 d2		 test	 dl, dl
  0027b	0f 84 fa 00 00
	00		 je	 $LN59@encodeStri
  00281	80 f2 ec	 xor	 dl, -20			; ffffffecH
  00284	88 50 25	 mov	 BYTE PTR [eax+37], dl
  00287	8a 51 26	 mov	 dl, BYTE PTR [ecx+38]
  0028a	84 d2		 test	 dl, dl
  0028c	0f 84 e1 00 00
	00		 je	 $LN58@encodeStri
  00292	32 d3		 xor	 dl, bl
  00294	88 50 26	 mov	 BYTE PTR [eax+38], dl
  00297	8a 51 27	 mov	 dl, BYTE PTR [ecx+39]
  0029a	84 d2		 test	 dl, dl
  0029c	0f 84 c8 00 00
	00		 je	 $LN57@encodeStri
  002a2	80 f2 ea	 xor	 dl, -22			; ffffffeaH
  002a5	88 50 27	 mov	 BYTE PTR [eax+39], dl
  002a8	8a 51 28	 mov	 dl, BYTE PTR [ecx+40]
  002ab	84 d2		 test	 dl, dl
  002ad	0f 84 ae 00 00
	00		 je	 $LN56@encodeStri
  002b3	80 f2 ed	 xor	 dl, -19			; ffffffedH
  002b6	88 50 28	 mov	 BYTE PTR [eax+40], dl
  002b9	8a 51 29	 mov	 dl, BYTE PTR [ecx+41]
  002bc	84 d2		 test	 dl, dl
  002be	0f 84 94 00 00
	00		 je	 $LN55@encodeStri
  002c4	80 f2 ec	 xor	 dl, -20			; ffffffecH
  002c7	88 50 29	 mov	 BYTE PTR [eax+41], dl
  002ca	8a 51 2a	 mov	 dl, BYTE PTR [ecx+42]
  002cd	84 d2		 test	 dl, dl
  002cf	74 7f		 je	 SHORT $LN54@encodeStri
  002d1	32 d3		 xor	 dl, bl
  002d3	88 50 2a	 mov	 BYTE PTR [eax+42], dl
  002d6	8a 51 2b	 mov	 dl, BYTE PTR [ecx+43]
  002d9	84 d2		 test	 dl, dl
  002db	74 6a		 je	 SHORT $LN53@encodeStri
  002dd	80 f2 ea	 xor	 dl, -22			; ffffffeaH
  002e0	88 50 2b	 mov	 BYTE PTR [eax+43], dl
  002e3	8a 51 2c	 mov	 dl, BYTE PTR [ecx+44]
  002e6	84 d2		 test	 dl, dl
  002e8	74 54		 je	 SHORT $LN52@encodeStri
  002ea	80 f2 ed	 xor	 dl, -19			; ffffffedH
  002ed	88 50 2c	 mov	 BYTE PTR [eax+44], dl
  002f0	8a 51 2d	 mov	 dl, BYTE PTR [ecx+45]
  002f3	84 d2		 test	 dl, dl
  002f5	74 3e		 je	 SHORT $LN51@encodeStri
  002f7	80 f2 ec	 xor	 dl, -20			; ffffffecH
  002fa	88 50 2d	 mov	 BYTE PTR [eax+45], dl
  002fd	8a 51 2e	 mov	 dl, BYTE PTR [ecx+46]
  00300	84 d2		 test	 dl, dl
  00302	74 29		 je	 SHORT $LN50@encodeStri
  00304	32 d3		 xor	 dl, bl
  00306	88 50 2e	 mov	 BYTE PTR [eax+46], dl
  00309	8a 51 2f	 mov	 dl, BYTE PTR [ecx+47]
  0030c	84 d2		 test	 dl, dl
  0030e	74 14		 je	 SHORT $LN49@encodeStri
  00310	80 f2 ea	 xor	 dl, -22			; ffffffeaH
  00313	88 50 2f	 mov	 BYTE PTR [eax+47], dl
  00316	8a 49 30	 mov	 cl, BYTE PTR [ecx+48]
  00319	80 f1 ed	 xor	 cl, -19			; ffffffedH
  0031c	88 48 30	 mov	 BYTE PTR [eax+48], cl
  0031f	e9 5d 01 00 00	 jmp	 $LN1@encodeStri
$LN49@encodeStri:
  00324	c6 40 2f ea	 mov	 BYTE PTR [eax+47], -22	; ffffffeaH
  00328	e9 54 01 00 00	 jmp	 $LN1@encodeStri
$LN50@encodeStri:
  0032d	88 58 2e	 mov	 BYTE PTR [eax+46], bl
  00330	e9 4c 01 00 00	 jmp	 $LN1@encodeStri
$LN51@encodeStri:
  00335	c6 40 2d ec	 mov	 BYTE PTR [eax+45], -20	; ffffffecH
  00339	e9 43 01 00 00	 jmp	 $LN1@encodeStri
$LN52@encodeStri:
  0033e	c6 40 2c ed	 mov	 BYTE PTR [eax+44], -19	; ffffffedH
  00342	e9 3a 01 00 00	 jmp	 $LN1@encodeStri
$LN53@encodeStri:
  00347	c6 40 2b ea	 mov	 BYTE PTR [eax+43], -22	; ffffffeaH
  0034b	e9 31 01 00 00	 jmp	 $LN1@encodeStri
$LN54@encodeStri:
  00350	88 58 2a	 mov	 BYTE PTR [eax+42], bl
  00353	e9 29 01 00 00	 jmp	 $LN1@encodeStri
$LN55@encodeStri:
  00358	c6 40 29 ec	 mov	 BYTE PTR [eax+41], -20	; ffffffecH
  0035c	e9 20 01 00 00	 jmp	 $LN1@encodeStri
$LN56@encodeStri:
  00361	c6 40 28 ed	 mov	 BYTE PTR [eax+40], -19	; ffffffedH
  00365	e9 17 01 00 00	 jmp	 $LN1@encodeStri
$LN57@encodeStri:
  0036a	c6 40 27 ea	 mov	 BYTE PTR [eax+39], -22	; ffffffeaH
  0036e	e9 0e 01 00 00	 jmp	 $LN1@encodeStri
$LN58@encodeStri:
  00373	88 58 26	 mov	 BYTE PTR [eax+38], bl
  00376	e9 06 01 00 00	 jmp	 $LN1@encodeStri
$LN59@encodeStri:
  0037b	c6 40 25 ec	 mov	 BYTE PTR [eax+37], -20	; ffffffecH
  0037f	e9 fd 00 00 00	 jmp	 $LN1@encodeStri
$LN60@encodeStri:
  00384	c6 40 24 ed	 mov	 BYTE PTR [eax+36], -19	; ffffffedH
  00388	e9 f4 00 00 00	 jmp	 $LN1@encodeStri
$LN61@encodeStri:
  0038d	c6 40 23 ea	 mov	 BYTE PTR [eax+35], -22	; ffffffeaH
  00391	e9 eb 00 00 00	 jmp	 $LN1@encodeStri
$LN62@encodeStri:
  00396	88 58 22	 mov	 BYTE PTR [eax+34], bl
  00399	e9 e3 00 00 00	 jmp	 $LN1@encodeStri
$LN63@encodeStri:
  0039e	c6 40 21 ec	 mov	 BYTE PTR [eax+33], -20	; ffffffecH
  003a2	e9 da 00 00 00	 jmp	 $LN1@encodeStri
$LN64@encodeStri:
  003a7	c6 40 20 ed	 mov	 BYTE PTR [eax+32], -19	; ffffffedH
  003ab	e9 d1 00 00 00	 jmp	 $LN1@encodeStri
$LN65@encodeStri:
  003b0	c6 40 1f ea	 mov	 BYTE PTR [eax+31], -22	; ffffffeaH
  003b4	e9 c8 00 00 00	 jmp	 $LN1@encodeStri
$LN66@encodeStri:
  003b9	88 58 1e	 mov	 BYTE PTR [eax+30], bl
  003bc	e9 c0 00 00 00	 jmp	 $LN1@encodeStri
$LN67@encodeStri:
  003c1	c6 40 1d ec	 mov	 BYTE PTR [eax+29], -20	; ffffffecH
  003c5	e9 b7 00 00 00	 jmp	 $LN1@encodeStri
$LN68@encodeStri:
  003ca	c6 40 1c ed	 mov	 BYTE PTR [eax+28], -19	; ffffffedH
  003ce	e9 ae 00 00 00	 jmp	 $LN1@encodeStri
$LN69@encodeStri:
  003d3	c6 40 1b ea	 mov	 BYTE PTR [eax+27], -22	; ffffffeaH
  003d7	e9 a5 00 00 00	 jmp	 $LN1@encodeStri
$LN70@encodeStri:
  003dc	88 58 1a	 mov	 BYTE PTR [eax+26], bl
  003df	e9 9d 00 00 00	 jmp	 $LN1@encodeStri
$LN71@encodeStri:
  003e4	c6 40 19 ec	 mov	 BYTE PTR [eax+25], -20	; ffffffecH
  003e8	e9 94 00 00 00	 jmp	 $LN1@encodeStri
$LN72@encodeStri:
  003ed	c6 40 18 ed	 mov	 BYTE PTR [eax+24], -19	; ffffffedH
  003f1	e9 8b 00 00 00	 jmp	 $LN1@encodeStri
$LN73@encodeStri:
  003f6	c6 40 17 ea	 mov	 BYTE PTR [eax+23], -22	; ffffffeaH
  003fa	e9 82 00 00 00	 jmp	 $LN1@encodeStri
$LN74@encodeStri:
  003ff	88 58 16	 mov	 BYTE PTR [eax+22], bl
  00402	eb 7d		 jmp	 SHORT $LN1@encodeStri
$LN75@encodeStri:
  00404	c6 40 15 ec	 mov	 BYTE PTR [eax+21], -20	; ffffffecH
  00408	eb 77		 jmp	 SHORT $LN1@encodeStri
$LN76@encodeStri:
  0040a	c6 40 14 ed	 mov	 BYTE PTR [eax+20], -19	; ffffffedH
  0040e	eb 71		 jmp	 SHORT $LN1@encodeStri
$LN77@encodeStri:
  00410	c6 40 13 ea	 mov	 BYTE PTR [eax+19], -22	; ffffffeaH
  00414	eb 6b		 jmp	 SHORT $LN1@encodeStri
$LN78@encodeStri:
  00416	88 58 12	 mov	 BYTE PTR [eax+18], bl
  00419	eb 66		 jmp	 SHORT $LN1@encodeStri
$LN79@encodeStri:
  0041b	c6 40 11 ec	 mov	 BYTE PTR [eax+17], -20	; ffffffecH
  0041f	eb 60		 jmp	 SHORT $LN1@encodeStri
$LN80@encodeStri:
  00421	c6 40 10 ed	 mov	 BYTE PTR [eax+16], -19	; ffffffedH
  00425	eb 5a		 jmp	 SHORT $LN1@encodeStri
$LN81@encodeStri:
  00427	c6 40 0f ea	 mov	 BYTE PTR [eax+15], -22	; ffffffeaH
  0042b	eb 54		 jmp	 SHORT $LN1@encodeStri
$LN82@encodeStri:
  0042d	88 58 0e	 mov	 BYTE PTR [eax+14], bl
  00430	eb 4f		 jmp	 SHORT $LN1@encodeStri
$LN83@encodeStri:
  00432	c6 40 0d ec	 mov	 BYTE PTR [eax+13], -20	; ffffffecH
  00436	eb 49		 jmp	 SHORT $LN1@encodeStri
$LN84@encodeStri:
  00438	c6 40 0c ed	 mov	 BYTE PTR [eax+12], -19	; ffffffedH
  0043c	eb 43		 jmp	 SHORT $LN1@encodeStri
$LN85@encodeStri:
  0043e	c6 40 0b ea	 mov	 BYTE PTR [eax+11], -22	; ffffffeaH
  00442	eb 3d		 jmp	 SHORT $LN1@encodeStri
$LN86@encodeStri:
  00444	88 58 0a	 mov	 BYTE PTR [eax+10], bl
  00447	eb 38		 jmp	 SHORT $LN1@encodeStri
$LN87@encodeStri:
  00449	c6 40 09 ec	 mov	 BYTE PTR [eax+9], -20	; ffffffecH
  0044d	eb 32		 jmp	 SHORT $LN1@encodeStri
$LN88@encodeStri:
  0044f	c6 40 08 ed	 mov	 BYTE PTR [eax+8], -19	; ffffffedH
  00453	eb 2c		 jmp	 SHORT $LN1@encodeStri
$LN89@encodeStri:
  00455	c6 40 07 ea	 mov	 BYTE PTR [eax+7], -22	; ffffffeaH
  00459	eb 26		 jmp	 SHORT $LN1@encodeStri
$LN90@encodeStri:
  0045b	88 58 06	 mov	 BYTE PTR [eax+6], bl
  0045e	eb 21		 jmp	 SHORT $LN1@encodeStri
$LN91@encodeStri:
  00460	c6 40 05 ec	 mov	 BYTE PTR [eax+5], -20	; ffffffecH
  00464	eb 1b		 jmp	 SHORT $LN1@encodeStri
$LN92@encodeStri:
  00466	c6 40 04 ed	 mov	 BYTE PTR [eax+4], -19	; ffffffedH
  0046a	eb 15		 jmp	 SHORT $LN1@encodeStri
$LN93@encodeStri:
  0046c	c6 40 03 ea	 mov	 BYTE PTR [eax+3], -22	; ffffffeaH
  00470	eb 0f		 jmp	 SHORT $LN1@encodeStri
$LN94@encodeStri:
  00472	c6 40 02 eb	 mov	 BYTE PTR [eax+2], -21	; ffffffebH
  00476	eb 09		 jmp	 SHORT $LN1@encodeStri
$LN95@encodeStri:
  00478	c6 40 01 ec	 mov	 BYTE PTR [eax+1], -20	; ffffffecH
  0047c	eb 03		 jmp	 SHORT $LN1@encodeStri
$LN96@encodeStri:
  0047e	c6 00 ed	 mov	 BYTE PTR [eax], -19	; ffffffedH
$LN1@encodeStri:
  00481	6a 07		 push	 7
  00483	5a		 pop	 edx
  00484	8b c8		 mov	 ecx, eax
  00486	c6 40 1c 00	 mov	 BYTE PTR [eax+28], 0
  0048a	5b		 pop	 ebx
$LL104@encodeStri:
  0048b	81 31 ed ec eb
	ea		 xor	 DWORD PTR [ecx], -353637139 ; eaebecedH
  00491	83 c1 04	 add	 ecx, 4
  00494	4a		 dec	 edx
  00495	75 f4		 jne	 SHORT $LL104@encodeStri

; 217  : 		return e;
; 218  : 	}

  00497	5d		 pop	 ebp
  00498	c2 08 00	 ret	 8
??$encodeString@$0BN@@ioINILoader_e@@AAEPADAAY0BN@$$CBDPAD@Z ENDP ; ioINILoader_e::encodeString<29>
_TEXT	ENDS
PUBLIC	??$_Unchecked@V?$_Vector_val@PAVioMission@@V?$allocator@PAVioMission@@@std@@@std@@@std@@YAPAPAVioMission@@V?$_Vector_iterator@V?$_Vector_val@PAVioMission@@V?$allocator@PAVioMission@@@std@@@std@@@0@@Z ; std::_Unchecked<std::_Vector_val<ioMission *,std::allocator<ioMission *> > >
; Function compile flags: /Ogsp
; File c:\program files (x86)\microsoft visual studio 10.0\vc\include\vector
;	COMDAT ??$_Unchecked@V?$_Vector_val@PAVioMission@@V?$allocator@PAVioMission@@@std@@@std@@@std@@YAPAPAVioMission@@V?$_Vector_iterator@V?$_Vector_val@PAVioMission@@V?$allocator@PAVioMission@@@std@@@std@@@0@@Z
_TEXT	SEGMENT
__Iter$ = 8						; size = 4
??$_Unchecked@V?$_Vector_val@PAVioMission@@V?$allocator@PAVioMission@@@std@@@std@@@std@@YAPAPAVioMission@@V?$_Vector_iterator@V?$_Vector_val@PAVioMission@@V?$allocator@PAVioMission@@@std@@@std@@@0@@Z PROC ; std::_Unchecked<std::_Vector_val<ioMission *,std::allocator<ioMission *> > >, COMDAT

; 393  : 	{	// convert to unchecked

  00000	55		 push	 ebp
  00001	8b ec		 mov	 ebp, esp

; 394  : 	return (_Iter._Unchecked());

  00003	8b 45 08	 mov	 eax, DWORD PTR __Iter$[ebp]

; 395  : 	}

  00006	5d		 pop	 ebp
  00007	c3		 ret	 0
??$_Unchecked@V?$_Vector_val@PAVioMission@@V?$allocator@PAVioMission@@@std@@@std@@@std@@YAPAPAVioMission@@V?$_Vector_iterator@V?$_Vector_val@PAVioMission@@V?$allocator@PAVioMission@@@std@@@std@@@0@@Z ENDP ; std::_Unchecked<std::_Vector_val<ioMission *,std::allocator<ioMission *> > >
_TEXT	ENDS
PUBLIC	??$_Uninitialized_move@PAPAVioMission@@PAPAV1@V?$allocator@PAVioMission@@@std@@@std@@YAPAPAVioMission@@PAPAV1@00AAV?$allocator@PAVioMission@@@0@@Z ; std::_Uninitialized_move<ioMission * *,ioMission * *,std::allocator<ioMission *> >
; Function compile flags: /Ogsp
; File c:\program files (x86)\microsoft visual studio 10.0\vc\include\memory
;	COMDAT ??$_Uninitialized_move@PAPAVioMission@@PAPAV1@V?$allocator@PAVioMission@@@std@@@std@@YAPAPAVioMission@@PAPAV1@00AAV?$allocator@PAVioMission@@@0@@Z
_TEXT	SEGMENT
__First$ = 8						; size = 4
__Last$ = 12						; size = 4
__Dest$ = 16						; size = 4
__Al$ = 20						; size = 4
??$_Uninitialized_move@PAPAVioMission@@PAPAV1@V?$allocator@PAVioMission@@@std@@@std@@YAPAPAVioMission@@PAPAV1@00AAV?$allocator@PAVioMission@@@0@@Z PROC ; std::_Uninitialized_move<ioMission * *,ioMission * *,std::allocator<ioMission *> >, COMDAT

; 469  : 	{	// move [_First, _Last) to raw _Dest, using _Al

  00000	55		 push	 ebp
  00001	8b ec		 mov	 ebp, esp
  00003	56		 push	 esi

; 470  : 	return (_Uninit_move(_First, _Last, _Dest, _Al,
; 471  : 		_Val_type(_First), _Ptr_cat(_First, _Dest)));

  00004	8b 75 0c	 mov	 esi, DWORD PTR __Last$[ebp]
  00007	2b 75 08	 sub	 esi, DWORD PTR __First$[ebp]
  0000a	c1 fe 02	 sar	 esi, 2
  0000d	c1 e6 02	 shl	 esi, 2
  00010	56		 push	 esi
  00011	ff 75 08	 push	 DWORD PTR __First$[ebp]
  00014	ff 75 10	 push	 DWORD PTR __Dest$[ebp]
  00017	ff 15 00 00 00
	00		 call	 DWORD PTR __imp__memmove
  0001d	83 c4 0c	 add	 esp, 12			; 0000000cH
  00020	03 c6		 add	 eax, esi
  00022	5e		 pop	 esi

; 472  : 	}

  00023	5d		 pop	 ebp
  00024	c3		 ret	 0
??$_Uninitialized_move@PAPAVioMission@@PAPAV1@V?$allocator@PAVioMission@@@std@@@std@@YAPAPAVioMission@@PAPAV1@00AAV?$allocator@PAVioMission@@@0@@Z ENDP ; std::_Uninitialized_move<ioMission * *,ioMission * *,std::allocator<ioMission *> >
_TEXT	ENDS
PUBLIC	??$?0AAPAPAVioMission@@AAPAPAV0@@?$pair@PAPAVioMission@@PAPAV1@@std@@QAE@AAPAPAVioMission@@0@Z ; std::pair<ioMission * *,ioMission * *>::pair<ioMission * *,ioMission * *><ioMission * * &,ioMission * * &>
; Function compile flags: /Ogsp
; File c:\program files (x86)\microsoft visual studio 10.0\vc\include\utility
;	COMDAT ??$?0AAPAPAVioMission@@AAPAPAV0@@?$pair@PAPAVioMission@@PAPAV1@@std@@QAE@AAPAPAVioMission@@0@Z
_TEXT	SEGMENT
__Val1$ = 8						; size = 4
__Val2$ = 12						; size = 4
??$?0AAPAPAVioMission@@AAPAPAV0@@?$pair@PAPAVioMission@@PAPAV1@@std@@QAE@AAPAPAVioMission@@0@Z PROC ; std::pair<ioMission * *,ioMission * *>::pair<ioMission * *,ioMission * *><ioMission * * &,ioMission * * &>, COMDAT
; _this$ = ecx

; 247  : 		{	// construct from moved values

  00000	55		 push	 ebp
  00001	8b ec		 mov	 ebp, esp
  00003	8b c1		 mov	 eax, ecx
  00005	8b 4d 08	 mov	 ecx, DWORD PTR __Val1$[ebp]
  00008	8b 09		 mov	 ecx, DWORD PTR [ecx]
  0000a	89 08		 mov	 DWORD PTR [eax], ecx
  0000c	8b 4d 0c	 mov	 ecx, DWORD PTR __Val2$[ebp]
  0000f	8b 09		 mov	 ecx, DWORD PTR [ecx]
  00011	89 48 04	 mov	 DWORD PTR [eax+4], ecx

; 248  : 		}

  00014	5d		 pop	 ebp
  00015	c2 08 00	 ret	 8
??$?0AAPAPAVioMission@@AAPAPAV0@@?$pair@PAPAVioMission@@PAPAV1@@std@@QAE@AAPAPAVioMission@@0@Z ENDP ; std::pair<ioMission * *,ioMission * *>::pair<ioMission * *,ioMission * *><ioMission * * &,ioMission * * &>
_TEXT	ENDS
PUBLIC	??$swap@PAVioMission@@@std@@YAXAAPAVioMission@@0@Z ; std::swap<ioMission *>
; Function compile flags: /Ogsp
;	COMDAT ??$swap@PAVioMission@@@std@@YAXAAPAVioMission@@0@Z
_TEXT	SEGMENT
__Left$ = 8						; size = 4
__Right$ = 12						; size = 4
??$swap@PAVioMission@@@std@@YAXAAPAVioMission@@0@Z PROC	; std::swap<ioMission *>, COMDAT

; 101  : 	{	// exchange values stored at _Left and _Right

  00000	55		 push	 ebp
  00001	8b ec		 mov	 ebp, esp

; 102  : 	_Ty _Tmp = _Move(_Left);
; 103  : 	_Left = _Move(_Right);

  00003	8b 55 0c	 mov	 edx, DWORD PTR __Right$[ebp]
  00006	8b 45 08	 mov	 eax, DWORD PTR __Left$[ebp]
  00009	8b 08		 mov	 ecx, DWORD PTR [eax]
  0000b	56		 push	 esi
  0000c	8b 32		 mov	 esi, DWORD PTR [edx]
  0000e	89 30		 mov	 DWORD PTR [eax], esi

; 104  : 	_Right = _Move(_Tmp);

  00010	89 0a		 mov	 DWORD PTR [edx], ecx
  00012	5e		 pop	 esi

; 105  : 	}

  00013	5d		 pop	 ebp
  00014	c3		 ret	 0
??$swap@PAVioMission@@@std@@YAXAAPAVioMission@@0@Z ENDP	; std::swap<ioMission *>
_TEXT	ENDS
PUBLIC	??$_Adjust_heap@PAPAVioMission@@HPAV1@VMissionDataSort@@@std@@YAXPAPAVioMission@@HH$$QAPAV1@VMissionDataSort@@@Z ; std::_Adjust_heap<ioMission * *,int,ioMission *,MissionDataSort>
; Function compile flags: /Ogsp
; File c:\program files (x86)\microsoft visual studio 10.0\vc\include\algorithm
;	COMDAT ??$_Adjust_heap@PAPAVioMission@@HPAV1@VMissionDataSort@@@std@@YAXPAPAVioMission@@HH$$QAPAV1@VMissionDataSort@@@Z
_TEXT	SEGMENT
__First$ = 8						; size = 4
__Top$ = 12						; size = 4
__Hole$ = 12						; size = 4
__Bottom$ = 16						; size = 4
__Val$ = 20						; size = 4
__Pred$ = 24						; size = 1
??$_Adjust_heap@PAPAVioMission@@HPAV1@VMissionDataSort@@@std@@YAXPAPAVioMission@@HH$$QAPAV1@VMissionDataSort@@@Z PROC ; std::_Adjust_heap<ioMission * *,int,ioMission *,MissionDataSort>, COMDAT

; 2565 : 	{	// percolate _Hole to _Bottom, then push _Val, using _Pred

  00000	55		 push	 ebp
  00001	8b ec		 mov	 ebp, esp

; 2566 : 	_Diff _Top = _Hole;
; 2567 : 	_Diff _Idx = 2 * _Hole + 2;
; 2568 : 
; 2569 : 	for (; _Idx < _Bottom; _Idx = 2 * _Idx + 2)

  00003	8b 45 10	 mov	 eax, DWORD PTR __Bottom$[ebp]
  00006	53		 push	 ebx
  00007	8b 5d 0c	 mov	 ebx, DWORD PTR __Hole$[ebp]
  0000a	56		 push	 esi
  0000b	8d 74 1b 02	 lea	 esi, DWORD PTR [ebx+ebx+2]
  0000f	57		 push	 edi
  00010	8b 7d 08	 mov	 edi, DWORD PTR __First$[ebp]
  00013	89 5d 0c	 mov	 DWORD PTR __Top$[ebp], ebx
  00016	3b f0		 cmp	 esi, eax
  00018	7d 2a		 jge	 SHORT $LN16@Adjust_hea
$LL5@Adjust_hea:

; 2570 : 		{	// move _Hole down to larger child
; 2571 : 		if (_DEBUG_LT_PRED(_Pred, *(_First + _Idx), *(_First + (_Idx - 1))))

  0001a	ff 74 b7 fc	 push	 DWORD PTR [edi+esi*4-4]
  0001e	8d 4d 18	 lea	 ecx, DWORD PTR __Pred$[ebp]
  00021	ff 34 b7	 push	 DWORD PTR [edi+esi*4]
  00024	e8 00 00 00 00	 call	 ??RMissionDataSort@@QBE_NPBVioMission@@0@Z ; MissionDataSort::operator()
  00029	84 c0		 test	 al, al
  0002b	74 01		 je	 SHORT $LN2@Adjust_hea

; 2572 : 			--_Idx;

  0002d	4e		 dec	 esi
$LN2@Adjust_hea:

; 2573 : 		*(_First + _Hole) = _Move(*(_First + _Idx));

  0002e	8b 04 b7	 mov	 eax, DWORD PTR [edi+esi*4]
  00031	89 04 9f	 mov	 DWORD PTR [edi+ebx*4], eax

; 2574 : 		_Hole = _Idx;

  00034	8b de		 mov	 ebx, esi
  00036	8d 74 36 02	 lea	 esi, DWORD PTR [esi+esi+2]
  0003a	3b 75 10	 cmp	 esi, DWORD PTR __Bottom$[ebp]
  0003d	7c db		 jl	 SHORT $LL5@Adjust_hea

; 2575 : 		}
; 2576 : 
; 2577 : 	if (_Idx == _Bottom)

  0003f	8b 45 10	 mov	 eax, DWORD PTR __Bottom$[ebp]
  00042	3b f0		 cmp	 esi, eax
$LN16@Adjust_hea:
  00044	75 0a		 jne	 SHORT $LN1@Adjust_hea

; 2578 : 		{	// only child at bottom, move _Hole down to it
; 2579 : 		*(_First + _Hole) = _Move(*(_First + (_Bottom - 1)));

  00046	8b 4c 87 fc	 mov	 ecx, DWORD PTR [edi+eax*4-4]
  0004a	89 0c 9f	 mov	 DWORD PTR [edi+ebx*4], ecx

; 2580 : 		_Hole = _Bottom - 1;

  0004d	8d 58 ff	 lea	 ebx, DWORD PTR [eax-1]
$LN1@Adjust_hea:

; 2581 : 		}
; 2582 : 	_Push_heap(_First, _Hole, _Top, _Move(_Val), _Pred);

  00050	ff 75 18	 push	 DWORD PTR __Pred$[ebp]
  00053	ff 75 14	 push	 DWORD PTR __Val$[ebp]
  00056	ff 75 0c	 push	 DWORD PTR __Top$[ebp]
  00059	53		 push	 ebx
  0005a	57		 push	 edi
  0005b	e8 00 00 00 00	 call	 ??$_Push_heap@PAPAVioMission@@HPAV1@VMissionDataSort@@@std@@YAXPAPAVioMission@@HH$$QAPAV1@VMissionDataSort@@@Z ; std::_Push_heap<ioMission * *,int,ioMission *,MissionDataSort>
  00060	83 c4 14	 add	 esp, 20			; 00000014H
  00063	5f		 pop	 edi
  00064	5e		 pop	 esi
  00065	5b		 pop	 ebx

; 2583 : 	}

  00066	5d		 pop	 ebp
  00067	c3		 ret	 0
??$_Adjust_heap@PAPAVioMission@@HPAV1@VMissionDataSort@@@std@@YAXPAPAVioMission@@HH$$QAPAV1@VMissionDataSort@@@Z ENDP ; std::_Adjust_heap<ioMission * *,int,ioMission *,MissionDataSort>
_TEXT	ENDS
PUBLIC	??$_Move_backward@PAPAVioMission@@PAPAV1@@std@@YAPAPAVioMission@@PAPAV1@00@Z ; std::_Move_backward<ioMission * *,ioMission * *>
; Function compile flags: /Ogsp
; File c:\program files (x86)\microsoft visual studio 10.0\vc\include\xutility
;	COMDAT ??$_Move_backward@PAPAVioMission@@PAPAV1@@std@@YAPAPAVioMission@@PAPAV1@00@Z
_TEXT	SEGMENT
__Cat$510753 = -4					; size = 1
__First$ = 8						; size = 4
__Last$ = 12						; size = 4
__Dest$ = 16						; size = 4
??$_Move_backward@PAPAVioMission@@PAPAV1@@std@@YAPAPAVioMission@@PAPAV1@00@Z PROC ; std::_Move_backward<ioMission * *,ioMission * *>, COMDAT

; 2638 : 	{	// move [_First, _Last) backwards to [..., _Dest), unchecked

  00000	55		 push	 ebp
  00001	8b ec		 mov	 ebp, esp
  00003	51		 push	 ecx

; 2639 : 	return (_Move_backward(_First, _Last,
; 2640 : 		_Dest, _Ptr_cat(_First, _Dest)));

  00004	ff 75 fc	 push	 DWORD PTR __Cat$510753[ebp]
  00007	ff 75 10	 push	 DWORD PTR __Dest$[ebp]
  0000a	ff 75 0c	 push	 DWORD PTR __Last$[ebp]
  0000d	ff 75 08	 push	 DWORD PTR __First$[ebp]
  00010	e8 00 00 00 00	 call	 ??$_Move_backward@PAPAVioMission@@PAPAV1@@std@@YAPAPAVioMission@@PAPAV1@00U_Scalar_ptr_iterator_tag@0@@Z ; std::_Move_backward<ioMission * *,ioMission * *>
  00015	83 c4 10	 add	 esp, 16			; 00000010H

; 2641 : 	}

  00018	c9		 leave
  00019	c3		 ret	 0
??$_Move_backward@PAPAVioMission@@PAPAV1@@std@@YAPAPAVioMission@@PAPAV1@00@Z ENDP ; std::_Move_backward<ioMission * *,ioMission * *>
_TEXT	ENDS
PUBLIC	??$_Pop_heap@PAPAVioMission@@HPAV1@VMissionDataSort@@@std@@YAXPAPAVioMission@@00$$QAPAV1@VMissionDataSort@@PAH@Z ; std::_Pop_heap<ioMission * *,int,ioMission *,MissionDataSort>
; Function compile flags: /Ogsp
; File c:\program files (x86)\microsoft visual studio 10.0\vc\include\algorithm
;	COMDAT ??$_Pop_heap@PAPAVioMission@@HPAV1@VMissionDataSort@@@std@@YAXPAPAVioMission@@00$$QAPAV1@VMissionDataSort@@PAH@Z
_TEXT	SEGMENT
__First$ = 8						; size = 4
__Last$ = 12						; size = 4
__Dest$ = 16						; size = 4
__Val$ = 20						; size = 4
__Pred$ = 24						; size = 1
___formal$ = 28						; size = 4
??$_Pop_heap@PAPAVioMission@@HPAV1@VMissionDataSort@@@std@@YAXPAPAVioMission@@00$$QAPAV1@VMissionDataSort@@PAH@Z PROC ; std::_Pop_heap<ioMission * *,int,ioMission *,MissionDataSort>, COMDAT

; 2591 : 	{	// pop *_First to *_Dest and reheap, using _Pred

  00000	55		 push	 ebp
  00001	8b ec		 mov	 ebp, esp

; 2592 : 	*_Dest = _Move(*_First);

  00003	8b 45 08	 mov	 eax, DWORD PTR __First$[ebp]
  00006	8b 08		 mov	 ecx, DWORD PTR [eax]
  00008	8b 55 10	 mov	 edx, DWORD PTR __Dest$[ebp]

; 2593 : 	_Adjust_heap(_First, _Diff(0), _Diff(_Last - _First),
; 2594 : 		_Move(_Val), _Pred);

  0000b	ff 75 18	 push	 DWORD PTR __Pred$[ebp]
  0000e	89 0a		 mov	 DWORD PTR [edx], ecx
  00010	8b 4d 0c	 mov	 ecx, DWORD PTR __Last$[ebp]
  00013	ff 75 14	 push	 DWORD PTR __Val$[ebp]
  00016	2b c8		 sub	 ecx, eax
  00018	c1 f9 02	 sar	 ecx, 2
  0001b	51		 push	 ecx
  0001c	6a 00		 push	 0
  0001e	50		 push	 eax
  0001f	e8 00 00 00 00	 call	 ??$_Adjust_heap@PAPAVioMission@@HPAV1@VMissionDataSort@@@std@@YAXPAPAVioMission@@HH$$QAPAV1@VMissionDataSort@@@Z ; std::_Adjust_heap<ioMission * *,int,ioMission *,MissionDataSort>
  00024	83 c4 14	 add	 esp, 20			; 00000014H

; 2595 : 	}

  00027	5d		 pop	 ebp
  00028	c3		 ret	 0
??$_Pop_heap@PAPAVioMission@@HPAV1@VMissionDataSort@@@std@@YAXPAPAVioMission@@00$$QAPAV1@VMissionDataSort@@PAH@Z ENDP ; std::_Pop_heap<ioMission * *,int,ioMission *,MissionDataSort>
_TEXT	ENDS
PUBLIC	?OnMissionStateChange@ioMissionManager@@QAEXAAVSP2Packet@@@Z ; ioMissionManager::OnMissionStateChange
EXTRN	??5SP2Packet@@QAEAAV0@AAE@Z:PROC		; SP2Packet::operator>>
EXTRN	??5SP2Packet@@QAEAAV0@AAH@Z:PROC		; SP2Packet::operator>>
; Function compile flags: /Ogsp
; File d:\lost saga for developer\youtube\tutorial\source\src\lsclient\iomissionmanager.cpp
;	COMDAT ?OnMissionStateChange@ioMissionManager@@QAEXAAVSP2Packet@@@Z
_TEXT	SEGMENT
_iCode$ = -8						; size = 4
_iValue$ = -4						; size = 4
_byClearState$ = 8					; size = 1
_rkPacket$ = 8						; size = 4
?OnMissionStateChange@ioMissionManager@@QAEXAAVSP2Packet@@@Z PROC ; ioMissionManager::OnMissionStateChange, COMDAT
; _this$ = ecx

; 196  : {

  00000	55		 push	 ebp
  00001	8b ec		 mov	 ebp, esp
  00003	51		 push	 ecx
  00004	51		 push	 ecx
  00005	56		 push	 esi

; 197  : 	int iCode,iValue;
; 198  : 	BYTE byClearState;
; 199  : 	rkPacket >> iCode >> byClearState >> iValue ;

  00006	8d 45 fc	 lea	 eax, DWORD PTR _iValue$[ebp]
  00009	50		 push	 eax
  0000a	8d 45 08	 lea	 eax, DWORD PTR _byClearState$[ebp]
  0000d	50		 push	 eax
  0000e	8d 45 f8	 lea	 eax, DWORD PTR _iCode$[ebp]
  00011	8b f1		 mov	 esi, ecx
  00013	8b 4d 08	 mov	 ecx, DWORD PTR _rkPacket$[ebp]
  00016	50		 push	 eax
  00017	e8 00 00 00 00	 call	 ??5SP2Packet@@QAEAAV0@AAH@Z ; SP2Packet::operator>>
  0001c	8b c8		 mov	 ecx, eax
  0001e	e8 00 00 00 00	 call	 ??5SP2Packet@@QAEAAV0@AAE@Z ; SP2Packet::operator>>
  00023	8b c8		 mov	 ecx, eax
  00025	e8 00 00 00 00	 call	 ??5SP2Packet@@QAEAAV0@AAH@Z ; SP2Packet::operator>>

; 200  : 	SetMissionToCode( iCode, iValue, byClearState );

  0002a	ff 75 08	 push	 DWORD PTR _byClearState$[ebp]
  0002d	8b ce		 mov	 ecx, esi
  0002f	ff 75 fc	 push	 DWORD PTR _iValue$[ebp]
  00032	ff 75 f8	 push	 DWORD PTR _iCode$[ebp]
  00035	e8 00 00 00 00	 call	 ?SetMissionToCode@ioMissionManager@@QAEXHHE@Z ; ioMissionManager::SetMissionToCode
  0003a	5e		 pop	 esi

; 201  : }

  0003b	c9		 leave
  0003c	c2 04 00	 ret	 4
?OnMissionStateChange@ioMissionManager@@QAEXAAVSP2Packet@@@Z ENDP ; ioMissionManager::OnMissionStateChange
_TEXT	ENDS
PUBLIC	??_C@_0CI@GLNCFBGO@ioMissionManager?3?3OnCompensation@ ; `string'
PUBLIC	??_C@_00CNPNBAHC@?$AA@				; `string'
PUBLIC	??_R0?AVioWnd@@@8				; ioWnd `RTTI Type Descriptor'
PUBLIC	??_R0?AVMissionAttainStateWnd@@@8		; MissionAttainStateWnd `RTTI Type Descriptor'
PUBLIC	?OnCompensationReceive@ioMissionManager@@QAEXAAVSP2Packet@@@Z ; ioMissionManager::OnCompensationReceive
EXTRN	?SetMsgBox@ioSP2GUIManager@@QAAXHPAVioWnd@@PBDZZ:PROC ; ioSP2GUIManager::SetMsgBox
EXTRN	__imp_?GetString@ioStringManager@@QAEPADPBD0HW4FileNamePrefix@1@@Z:PROC
EXTRN	__imp_?GetSingleton@ioStringManager@@SAAAV1@XZ:PROC
EXTRN	?ShowMissionAttainWnd@MissionAttainStateWnd@@QAEXQBVioMission@@@Z:PROC ; MissionAttainStateWnd::ShowMissionAttainWnd
EXTRN	__imp_?FindWnd@ioGUIManager@@QAEPAVioWnd@@K@Z:PROC
EXTRN	?GetSingleton@ioSP2GUIManager@@SAAAV1@XZ:PROC	; ioSP2GUIManager::GetSingleton
EXTRN	___RTDynamicCast:PROC
;	COMDAT ??_C@_0CI@GLNCFBGO@ioMissionManager?3?3OnCompensation@
CONST	SEGMENT
??_C@_0CI@GLNCFBGO@ioMissionManager?3?3OnCompensation@ DB 'ioMissionManag'
	DB	'er::OnCompensationReceive', 00H		; `string'
CONST	ENDS
;	COMDAT ??_C@_00CNPNBAHC@?$AA@
CONST	SEGMENT
??_C@_00CNPNBAHC@?$AA@ DB 00H				; `string'
CONST	ENDS
;	COMDAT ??_R0?AVioWnd@@@8
_DATA	SEGMENT
??_R0?AVioWnd@@@8 DD FLAT:??_7type_info@@6B@		; ioWnd `RTTI Type Descriptor'
	DD	00H
	DB	'.?AVioWnd@@', 00H
_DATA	ENDS
;	COMDAT ??_R0?AVMissionAttainStateWnd@@@8
_DATA	SEGMENT
??_R0?AVMissionAttainStateWnd@@@8 DD FLAT:??_7type_info@@6B@ ; MissionAttainStateWnd `RTTI Type Descriptor'
	DD	00H
	DB	'.?AVMissionAttainStateWnd@@', 00H
; Function compile flags: /Ogsp
_DATA	ENDS
;	COMDAT ?OnCompensationReceive@ioMissionManager@@QAEXAAVSP2Packet@@@Z
_TEXT	SEGMENT
_iType$ = -4						; size = 4
_iCode$507835 = 8					; size = 4
_rkPacket$ = 8						; size = 4
?OnCompensationReceive@ioMissionManager@@QAEXAAVSP2Packet@@@Z PROC ; ioMissionManager::OnCompensationReceive, COMDAT
; _this$ = ecx

; 269  : {

  00000	55		 push	 ebp
  00001	8b ec		 mov	 ebp, esp
  00003	51		 push	 ecx
  00004	53		 push	 ebx
  00005	56		 push	 esi
  00006	57		 push	 edi

; 270  : 	int iType;
; 271  : 	rkPacket >> iType;

  00007	8d 45 fc	 lea	 eax, DWORD PTR _iType$[ebp]
  0000a	8b d9		 mov	 ebx, ecx
  0000c	8b 4d 08	 mov	 ecx, DWORD PTR _rkPacket$[ebp]
  0000f	50		 push	 eax
  00010	e8 00 00 00 00	 call	 ??5SP2Packet@@QAEAAV0@AAH@Z ; SP2Packet::operator>>

; 272  : 
; 273  : 	if ( iType == COMPENSATION_RECV_OK )

  00015	8b 45 fc	 mov	 eax, DWORD PTR _iType$[ebp]
  00018	83 f8 01	 cmp	 eax, 1
  0001b	75 50		 jne	 SHORT $LN10@OnCompensa

; 274  : 	{
; 275  : 		//UI Open
; 276  : 		int iCode;
; 277  : 		rkPacket >> iCode;

  0001d	8b 4d 08	 mov	 ecx, DWORD PTR _rkPacket$[ebp]
  00020	8d 45 08	 lea	 eax, DWORD PTR _iCode$507835[ebp]
  00023	50		 push	 eax
  00024	e8 00 00 00 00	 call	 ??5SP2Packet@@QAEAAV0@AAH@Z ; SP2Packet::operator>>

; 278  : 		MissionAttainStateWnd* pMissionAttainStateWnd = dynamic_cast<MissionAttainStateWnd*>( g_GUIMgr.FindWnd( MISSION_ATTAIN_STATE_WND ) );

  00029	33 f6		 xor	 esi, esi
  0002b	56		 push	 esi
  0002c	68 00 00 00 00	 push	 OFFSET ??_R0?AVMissionAttainStateWnd@@@8
  00031	68 00 00 00 00	 push	 OFFSET ??_R0?AVioWnd@@@8
  00036	56		 push	 esi
  00037	68 7f 18 00 00	 push	 6271			; 0000187fH
  0003c	e8 00 00 00 00	 call	 ?GetSingleton@ioSP2GUIManager@@SAAAV1@XZ ; ioSP2GUIManager::GetSingleton
  00041	8b c8		 mov	 ecx, eax
  00043	ff 15 00 00 00
	00		 call	 DWORD PTR __imp_?FindWnd@ioGUIManager@@QAEPAVioWnd@@K@Z
  00049	50		 push	 eax
  0004a	e8 00 00 00 00	 call	 ___RTDynamicCast
  0004f	8b f8		 mov	 edi, eax
  00051	83 c4 14	 add	 esp, 20			; 00000014H

; 279  : 		if ( pMissionAttainStateWnd )

  00054	3b fe		 cmp	 edi, esi
  00056	74 6c		 je	 SHORT $LN1@OnCompensa

; 280  : 			pMissionAttainStateWnd->ShowMissionAttainWnd( GetMissionToCode( iCode ) );

  00058	8d 45 08	 lea	 eax, DWORD PTR _iCode$507835[ebp]
  0005b	50		 push	 eax
  0005c	8b cb		 mov	 ecx, ebx
  0005e	e8 00 00 00 00	 call	 ?GetMissionToCode@ioMissionManager@@QBEQBVioMission@@ABH@Z ; ioMissionManager::GetMissionToCode
  00063	50		 push	 eax
  00064	8b cf		 mov	 ecx, edi
  00066	e8 00 00 00 00	 call	 ?ShowMissionAttainWnd@MissionAttainStateWnd@@QAEXQBVioMission@@@Z ; MissionAttainStateWnd::ShowMissionAttainWnd

; 281  : 	}

  0006b	eb 57		 jmp	 SHORT $LN1@OnCompensa
$LN10@OnCompensa:

; 282  : 	else if ( iType == COMPENSATION_UNKNOWN_MISSION )

  0006d	83 f8 02	 cmp	 eax, 2
  00070	75 07		 jne	 SHORT $LN7@OnCompensa

; 283  : 	{
; 284  : 		g_GUIMgr.SetMsgBox( MB_OK, NULL, STR(1) );

  00072	33 f6		 xor	 esi, esi
  00074	56		 push	 esi
  00075	6a 01		 push	 1
  00077	eb 22		 jmp	 SHORT $LN13@OnCompensa
$LN7@OnCompensa:

; 285  : 	}
; 286  : 	else if ( iType == COMPENSATION_PROGRESS )

  00079	83 f8 03	 cmp	 eax, 3
  0007c	75 07		 jne	 SHORT $LN5@OnCompensa

; 287  : 	{
; 288  : 		g_GUIMgr.SetMsgBox( MB_OK, NULL, STR(2) );

  0007e	33 f6		 xor	 esi, esi
  00080	56		 push	 esi
  00081	6a 02		 push	 2
  00083	eb 16		 jmp	 SHORT $LN13@OnCompensa
$LN5@OnCompensa:

; 289  : 	}
; 290  : 	else if ( iType == COMPENSATION_ALREADY_RECV )

  00085	83 f8 04	 cmp	 eax, 4
  00088	75 07		 jne	 SHORT $LN3@OnCompensa

; 291  : 	{
; 292  : 		g_GUIMgr.SetMsgBox( MB_OK, NULL, STR(3) );

  0008a	33 f6		 xor	 esi, esi
  0008c	56		 push	 esi
  0008d	6a 03		 push	 3
  0008f	eb 0a		 jmp	 SHORT $LN13@OnCompensa
$LN3@OnCompensa:

; 293  : 	}
; 294  : 	else if ( iType == COMPENSATION_EXCEPTION )

  00091	83 f8 05	 cmp	 eax, 5
  00094	75 2e		 jne	 SHORT $LN1@OnCompensa

; 295  : 	{
; 296  : 		g_GUIMgr.SetMsgBox( MB_OK, NULL, STR(4) );

  00096	33 f6		 xor	 esi, esi
  00098	56		 push	 esi
  00099	6a 04		 push	 4
$LN13@OnCompensa:
  0009b	68 00 00 00 00	 push	 OFFSET ??_C@_00CNPNBAHC@?$AA@
  000a0	68 00 00 00 00	 push	 OFFSET ??_C@_0CI@GLNCFBGO@ioMissionManager?3?3OnCompensation@
  000a5	ff 15 00 00 00
	00		 call	 DWORD PTR __imp_?GetSingleton@ioStringManager@@SAAAV1@XZ
  000ab	8b c8		 mov	 ecx, eax
  000ad	ff 15 00 00 00
	00		 call	 DWORD PTR __imp_?GetString@ioStringManager@@QAEPADPBD0HW4FileNamePrefix@1@@Z
  000b3	50		 push	 eax
  000b4	56		 push	 esi
  000b5	56		 push	 esi
  000b6	e8 00 00 00 00	 call	 ?GetSingleton@ioSP2GUIManager@@SAAAV1@XZ ; ioSP2GUIManager::GetSingleton
  000bb	50		 push	 eax
  000bc	e8 00 00 00 00	 call	 ?SetMsgBox@ioSP2GUIManager@@QAAXHPAVioWnd@@PBDZZ ; ioSP2GUIManager::SetMsgBox
  000c1	83 c4 10	 add	 esp, 16			; 00000010H
$LN1@OnCompensa:
  000c4	5f		 pop	 edi
  000c5	5e		 pop	 esi
  000c6	5b		 pop	 ebx

; 297  : 	}
; 298  : }

  000c7	c9		 leave
  000c8	c2 04 00	 ret	 4
?OnCompensationReceive@ioMissionManager@@QAEXAAVSP2Packet@@@Z ENDP ; ioMissionManager::OnCompensationReceive
_TEXT	ENDS
PUBLIC	??0?$vector@PAVioMission@@V?$allocator@PAVioMission@@@std@@@std@@QAE@XZ ; std::vector<ioMission *,std::allocator<ioMission *> >::vector<ioMission *,std::allocator<ioMission *> >
; Function compile flags: /Ogsp
; File c:\program files (x86)\microsoft visual studio 10.0\vc\include\vector
;	COMDAT ??0?$vector@PAVioMission@@V?$allocator@PAVioMission@@@std@@@std@@QAE@XZ
_TEXT	SEGMENT
??0?$vector@PAVioMission@@V?$allocator@PAVioMission@@@std@@@std@@QAE@XZ PROC ; std::vector<ioMission *,std::allocator<ioMission *> >::vector<ioMission *,std::allocator<ioMission *> >, COMDAT
; _this$ = ecx

; 507  : 		{	// construct empty vector

  00000	8b c1		 mov	 eax, ecx
  00002	33 c9		 xor	 ecx, ecx
  00004	89 08		 mov	 DWORD PTR [eax], ecx
  00006	89 48 04	 mov	 DWORD PTR [eax+4], ecx
  00009	89 48 08	 mov	 DWORD PTR [eax+8], ecx

; 508  : 		}

  0000c	c3		 ret	 0
??0?$vector@PAVioMission@@V?$allocator@PAVioMission@@@std@@@std@@QAE@XZ ENDP ; std::vector<ioMission *,std::allocator<ioMission *> >::vector<ioMission *,std::allocator<ioMission *> >
_TEXT	ENDS
PUBLIC	?begin@?$vector@PAVioMission@@V?$allocator@PAVioMission@@@std@@@std@@QAE?AV?$_Vector_iterator@V?$_Vector_val@PAVioMission@@V?$allocator@PAVioMission@@@std@@@std@@@2@XZ ; std::vector<ioMission *,std::allocator<ioMission *> >::begin
; Function compile flags: /Ogsp
;	COMDAT ?begin@?$vector@PAVioMission@@V?$allocator@PAVioMission@@@std@@@std@@QAE?AV?$_Vector_iterator@V?$_Vector_val@PAVioMission@@V?$allocator@PAVioMission@@@std@@@std@@@2@XZ
_TEXT	SEGMENT
___$ReturnUdt$ = 8					; size = 4
?begin@?$vector@PAVioMission@@V?$allocator@PAVioMission@@@std@@@std@@QAE?AV?$_Vector_iterator@V?$_Vector_val@PAVioMission@@V?$allocator@PAVioMission@@@std@@@std@@@2@XZ PROC ; std::vector<ioMission *,std::allocator<ioMission *> >::begin, COMDAT
; _this$ = ecx

; 781  : 		{	// return iterator for beginning of mutable sequence

  00000	55		 push	 ebp
  00001	8b ec		 mov	 ebp, esp

; 782  : 		return (iterator(this->_Myfirst, this));

  00003	8b 09		 mov	 ecx, DWORD PTR [ecx]
  00005	8b 45 08	 mov	 eax, DWORD PTR ___$ReturnUdt$[ebp]
  00008	89 08		 mov	 DWORD PTR [eax], ecx

; 783  : 		}

  0000a	5d		 pop	 ebp
  0000b	c2 04 00	 ret	 4
?begin@?$vector@PAVioMission@@V?$allocator@PAVioMission@@@std@@@std@@QAE?AV?$_Vector_iterator@V?$_Vector_val@PAVioMission@@V?$allocator@PAVioMission@@@std@@@std@@@2@XZ ENDP ; std::vector<ioMission *,std::allocator<ioMission *> >::begin
_TEXT	ENDS
PUBLIC	?end@?$vector@PAVioMission@@V?$allocator@PAVioMission@@@std@@@std@@QAE?AV?$_Vector_iterator@V?$_Vector_val@PAVioMission@@V?$allocator@PAVioMission@@@std@@@std@@@2@XZ ; std::vector<ioMission *,std::allocator<ioMission *> >::end
; Function compile flags: /Ogsp
;	COMDAT ?end@?$vector@PAVioMission@@V?$allocator@PAVioMission@@@std@@@std@@QAE?AV?$_Vector_iterator@V?$_Vector_val@PAVioMission@@V?$allocator@PAVioMission@@@std@@@std@@@2@XZ
_TEXT	SEGMENT
___$ReturnUdt$ = 8					; size = 4
?end@?$vector@PAVioMission@@V?$allocator@PAVioMission@@@std@@@std@@QAE?AV?$_Vector_iterator@V?$_Vector_val@PAVioMission@@V?$allocator@PAVioMission@@@std@@@std@@@2@XZ PROC ; std::vector<ioMission *,std::allocator<ioMission *> >::end, COMDAT
; _this$ = ecx

; 791  : 		{	// return iterator for end of mutable sequence

  00000	55		 push	 ebp
  00001	8b ec		 mov	 ebp, esp

; 792  : 		return (iterator(this->_Mylast, this));

  00003	8b 49 04	 mov	 ecx, DWORD PTR [ecx+4]
  00006	8b 45 08	 mov	 eax, DWORD PTR ___$ReturnUdt$[ebp]
  00009	89 08		 mov	 DWORD PTR [eax], ecx

; 793  : 		}

  0000b	5d		 pop	 ebp
  0000c	c2 04 00	 ret	 4
?end@?$vector@PAVioMission@@V?$allocator@PAVioMission@@@std@@@std@@QAE?AV?$_Vector_iterator@V?$_Vector_val@PAVioMission@@V?$allocator@PAVioMission@@@std@@@std@@@2@XZ ENDP ; std::vector<ioMission *,std::allocator<ioMission *> >::end
_TEXT	ENDS
PUBLIC	?_Destroy@?$vector@PAVioMission@@V?$allocator@PAVioMission@@@std@@@std@@IAEXPAPAVioMission@@0@Z ; std::vector<ioMission *,std::allocator<ioMission *> >::_Destroy
; Function compile flags: /Ogsp
;	COMDAT ?_Destroy@?$vector@PAVioMission@@V?$allocator@PAVioMission@@@std@@@std@@IAEXPAPAVioMission@@0@Z
_TEXT	SEGMENT
__First$ = 8						; size = 4
__Last$ = 12						; size = 4
?_Destroy@?$vector@PAVioMission@@V?$allocator@PAVioMission@@@std@@@std@@IAEXPAPAVioMission@@0@Z PROC ; std::vector<ioMission *,std::allocator<ioMission *> >::_Destroy, COMDAT
; _this$ = ecx

; 1270 : 		_Destroy_range(_First, _Last, this->_Alval);
; 1271 : 		}

  00000	c2 08 00	 ret	 8
?_Destroy@?$vector@PAVioMission@@V?$allocator@PAVioMission@@@std@@@std@@IAEXPAPAVioMission@@0@Z ENDP ; std::vector<ioMission *,std::allocator<ioMission *> >::_Destroy
_TEXT	ENDS
PUBLIC	??9?$_Vector_const_iterator@V?$_Vector_val@PAVioMission@@V?$allocator@PAVioMission@@@std@@@std@@@std@@QBE_NABV01@@Z ; std::_Vector_const_iterator<std::_Vector_val<ioMission *,std::allocator<ioMission *> > >::operator!=
; Function compile flags: /Ogsp
;	COMDAT ??9?$_Vector_const_iterator@V?$_Vector_val@PAVioMission@@V?$allocator@PAVioMission@@@std@@@std@@@std@@QBE_NABV01@@Z
_TEXT	SEGMENT
__Right$ = 8						; size = 4
??9?$_Vector_const_iterator@V?$_Vector_val@PAVioMission@@V?$allocator@PAVioMission@@@std@@@std@@@std@@QBE_NABV01@@Z PROC ; std::_Vector_const_iterator<std::_Vector_val<ioMission *,std::allocator<ioMission *> > >::operator!=, COMDAT
; _this$ = ecx

; 207  : 		{	// test for iterator inequality

  00000	55		 push	 ebp
  00001	8b ec		 mov	 ebp, esp

; 208  : 		return (!(*this == _Right));

  00003	8b 01		 mov	 eax, DWORD PTR [ecx]
  00005	8b 55 08	 mov	 edx, DWORD PTR __Right$[ebp]
  00008	33 c9		 xor	 ecx, ecx
  0000a	3b 02		 cmp	 eax, DWORD PTR [edx]
  0000c	0f 95 c0	 setne	 al

; 209  : 		}

  0000f	5d		 pop	 ebp
  00010	c2 04 00	 ret	 4
??9?$_Vector_const_iterator@V?$_Vector_val@PAVioMission@@V?$allocator@PAVioMission@@@std@@@std@@@std@@QBE_NABV01@@Z ENDP ; std::_Vector_const_iterator<std::_Vector_val<ioMission *,std::allocator<ioMission *> > >::operator!=
_TEXT	ENDS
PUBLIC	??$?0$0BN@@ioINILoader_e@@QAE@AAY0BN@$$CBD_N@Z	; ioINILoader_e::ioINILoader_e<29>
EXTRN	__imp_??0ioINILoader@@QAE@PBD_N@Z:PROC
; Function compile flags: /Ogsp
; File d:\lost saga for developer\youtube\tutorial\source\src\io3dengine\ioiniloader.h
;	COMDAT ??$?0$0BN@@ioINILoader_e@@QAE@AAY0BN@$$CBD_N@Z
_TEXT	SEGMENT
_fn$ = 8						; size = 4
_b$ = 12						; size = 1
??$?0$0BN@@ioINILoader_e@@QAE@AAY0BN@$$CBD_N@Z PROC	; ioINILoader_e::ioINILoader_e<29>, COMDAT
; _this$ = ecx

; 224  : 	{

  00000	55		 push	 ebp
  00001	8b ec		 mov	 ebp, esp
  00003	53		 push	 ebx
  00004	56		 push	 esi
  00005	8b f1		 mov	 esi, ecx
  00007	8b 4d 08	 mov	 ecx, DWORD PTR _fn$[ebp]
  0000a	8a 11		 mov	 dl, BYTE PTR [ecx]
  0000c	8d 86 50 03 00
	00		 lea	 eax, DWORD PTR [esi+848]
  00012	84 d2		 test	 dl, dl
  00014	0f 84 6a 04 00
	00		 je	 $LN99@ioINILoade
  0001a	80 f2 ed	 xor	 dl, -19			; ffffffedH
  0001d	88 10		 mov	 BYTE PTR [eax], dl
  0001f	8a 51 01	 mov	 dl, BYTE PTR [ecx+1]
  00022	84 d2		 test	 dl, dl
  00024	0f 84 54 04 00
	00		 je	 $LN98@ioINILoade
  0002a	80 f2 ec	 xor	 dl, -20			; ffffffecH
  0002d	88 50 01	 mov	 BYTE PTR [eax+1], dl
  00030	8a 51 02	 mov	 dl, BYTE PTR [ecx+2]
  00033	84 d2		 test	 dl, dl
  00035	0f 84 3d 04 00
	00		 je	 $LN97@ioINILoade
  0003b	b3 eb		 mov	 bl, -21			; ffffffebH
  0003d	32 d3		 xor	 dl, bl
  0003f	88 50 02	 mov	 BYTE PTR [eax+2], dl
  00042	8a 51 03	 mov	 dl, BYTE PTR [ecx+3]
  00045	84 d2		 test	 dl, dl
  00047	0f 84 25 04 00
	00		 je	 $LN96@ioINILoade
  0004d	80 f2 ea	 xor	 dl, -22			; ffffffeaH
  00050	88 50 03	 mov	 BYTE PTR [eax+3], dl
  00053	8a 51 04	 mov	 dl, BYTE PTR [ecx+4]
  00056	84 d2		 test	 dl, dl
  00058	0f 84 0e 04 00
	00		 je	 $LN95@ioINILoade
  0005e	80 f2 ed	 xor	 dl, -19			; ffffffedH
  00061	88 50 04	 mov	 BYTE PTR [eax+4], dl
  00064	8a 51 05	 mov	 dl, BYTE PTR [ecx+5]
  00067	84 d2		 test	 dl, dl
  00069	0f 84 f7 03 00
	00		 je	 $LN94@ioINILoade
  0006f	80 f2 ec	 xor	 dl, -20			; ffffffecH
  00072	88 50 05	 mov	 BYTE PTR [eax+5], dl
  00075	8a 51 06	 mov	 dl, BYTE PTR [ecx+6]
  00078	84 d2		 test	 dl, dl
  0007a	0f 84 e1 03 00
	00		 je	 $LN93@ioINILoade
  00080	32 d3		 xor	 dl, bl
  00082	88 50 06	 mov	 BYTE PTR [eax+6], dl
  00085	8a 51 07	 mov	 dl, BYTE PTR [ecx+7]
  00088	84 d2		 test	 dl, dl
  0008a	0f 84 cb 03 00
	00		 je	 $LN92@ioINILoade
  00090	80 f2 ea	 xor	 dl, -22			; ffffffeaH
  00093	88 50 07	 mov	 BYTE PTR [eax+7], dl
  00096	8a 51 08	 mov	 dl, BYTE PTR [ecx+8]
  00099	84 d2		 test	 dl, dl
  0009b	0f 84 b4 03 00
	00		 je	 $LN91@ioINILoade
  000a1	80 f2 ed	 xor	 dl, -19			; ffffffedH
  000a4	88 50 08	 mov	 BYTE PTR [eax+8], dl
  000a7	8a 51 09	 mov	 dl, BYTE PTR [ecx+9]
  000aa	84 d2		 test	 dl, dl
  000ac	0f 84 9d 03 00
	00		 je	 $LN90@ioINILoade
  000b2	80 f2 ec	 xor	 dl, -20			; ffffffecH
  000b5	88 50 09	 mov	 BYTE PTR [eax+9], dl
  000b8	8a 51 0a	 mov	 dl, BYTE PTR [ecx+10]
  000bb	84 d2		 test	 dl, dl
  000bd	0f 84 87 03 00
	00		 je	 $LN89@ioINILoade
  000c3	32 d3		 xor	 dl, bl
  000c5	88 50 0a	 mov	 BYTE PTR [eax+10], dl
  000c8	8a 51 0b	 mov	 dl, BYTE PTR [ecx+11]
  000cb	84 d2		 test	 dl, dl
  000cd	0f 84 71 03 00
	00		 je	 $LN88@ioINILoade
  000d3	80 f2 ea	 xor	 dl, -22			; ffffffeaH
  000d6	88 50 0b	 mov	 BYTE PTR [eax+11], dl
  000d9	8a 51 0c	 mov	 dl, BYTE PTR [ecx+12]
  000dc	84 d2		 test	 dl, dl
  000de	0f 84 5a 03 00
	00		 je	 $LN87@ioINILoade
  000e4	80 f2 ed	 xor	 dl, -19			; ffffffedH
  000e7	88 50 0c	 mov	 BYTE PTR [eax+12], dl
  000ea	8a 51 0d	 mov	 dl, BYTE PTR [ecx+13]
  000ed	84 d2		 test	 dl, dl
  000ef	0f 84 43 03 00
	00		 je	 $LN86@ioINILoade
  000f5	80 f2 ec	 xor	 dl, -20			; ffffffecH
  000f8	88 50 0d	 mov	 BYTE PTR [eax+13], dl
  000fb	8a 51 0e	 mov	 dl, BYTE PTR [ecx+14]
  000fe	84 d2		 test	 dl, dl
  00100	0f 84 2d 03 00
	00		 je	 $LN85@ioINILoade
  00106	32 d3		 xor	 dl, bl
  00108	88 50 0e	 mov	 BYTE PTR [eax+14], dl
  0010b	8a 51 0f	 mov	 dl, BYTE PTR [ecx+15]
  0010e	84 d2		 test	 dl, dl
  00110	0f 84 17 03 00
	00		 je	 $LN84@ioINILoade
  00116	80 f2 ea	 xor	 dl, -22			; ffffffeaH
  00119	88 50 0f	 mov	 BYTE PTR [eax+15], dl
  0011c	8a 51 10	 mov	 dl, BYTE PTR [ecx+16]
  0011f	84 d2		 test	 dl, dl
  00121	0f 84 00 03 00
	00		 je	 $LN83@ioINILoade
  00127	80 f2 ed	 xor	 dl, -19			; ffffffedH
  0012a	88 50 10	 mov	 BYTE PTR [eax+16], dl
  0012d	8a 51 11	 mov	 dl, BYTE PTR [ecx+17]
  00130	84 d2		 test	 dl, dl
  00132	0f 84 e9 02 00
	00		 je	 $LN82@ioINILoade
  00138	80 f2 ec	 xor	 dl, -20			; ffffffecH
  0013b	88 50 11	 mov	 BYTE PTR [eax+17], dl
  0013e	8a 51 12	 mov	 dl, BYTE PTR [ecx+18]
  00141	84 d2		 test	 dl, dl
  00143	0f 84 d3 02 00
	00		 je	 $LN81@ioINILoade
  00149	32 d3		 xor	 dl, bl
  0014b	88 50 12	 mov	 BYTE PTR [eax+18], dl
  0014e	8a 51 13	 mov	 dl, BYTE PTR [ecx+19]
  00151	84 d2		 test	 dl, dl
  00153	0f 84 bd 02 00
	00		 je	 $LN80@ioINILoade
  00159	80 f2 ea	 xor	 dl, -22			; ffffffeaH
  0015c	88 50 13	 mov	 BYTE PTR [eax+19], dl
  0015f	8a 51 14	 mov	 dl, BYTE PTR [ecx+20]
  00162	84 d2		 test	 dl, dl
  00164	0f 84 a6 02 00
	00		 je	 $LN79@ioINILoade
  0016a	80 f2 ed	 xor	 dl, -19			; ffffffedH
  0016d	88 50 14	 mov	 BYTE PTR [eax+20], dl
  00170	8a 51 15	 mov	 dl, BYTE PTR [ecx+21]
  00173	84 d2		 test	 dl, dl
  00175	0f 84 8f 02 00
	00		 je	 $LN78@ioINILoade
  0017b	80 f2 ec	 xor	 dl, -20			; ffffffecH
  0017e	88 50 15	 mov	 BYTE PTR [eax+21], dl
  00181	8a 51 16	 mov	 dl, BYTE PTR [ecx+22]
  00184	84 d2		 test	 dl, dl
  00186	0f 84 79 02 00
	00		 je	 $LN77@ioINILoade
  0018c	32 d3		 xor	 dl, bl
  0018e	88 50 16	 mov	 BYTE PTR [eax+22], dl
  00191	8a 51 17	 mov	 dl, BYTE PTR [ecx+23]
  00194	84 d2		 test	 dl, dl
  00196	0f 84 60 02 00
	00		 je	 $LN76@ioINILoade
  0019c	80 f2 ea	 xor	 dl, -22			; ffffffeaH
  0019f	88 50 17	 mov	 BYTE PTR [eax+23], dl
  001a2	8a 51 18	 mov	 dl, BYTE PTR [ecx+24]
  001a5	84 d2		 test	 dl, dl
  001a7	0f 84 46 02 00
	00		 je	 $LN75@ioINILoade
  001ad	80 f2 ed	 xor	 dl, -19			; ffffffedH
  001b0	88 50 18	 mov	 BYTE PTR [eax+24], dl
  001b3	8a 51 19	 mov	 dl, BYTE PTR [ecx+25]
  001b6	84 d2		 test	 dl, dl
  001b8	0f 84 2c 02 00
	00		 je	 $LN74@ioINILoade
  001be	80 f2 ec	 xor	 dl, -20			; ffffffecH
  001c1	88 50 19	 mov	 BYTE PTR [eax+25], dl
  001c4	8a 51 1a	 mov	 dl, BYTE PTR [ecx+26]
  001c7	84 d2		 test	 dl, dl
  001c9	0f 84 13 02 00
	00		 je	 $LN73@ioINILoade
  001cf	32 d3		 xor	 dl, bl
  001d1	88 50 1a	 mov	 BYTE PTR [eax+26], dl
  001d4	8a 51 1b	 mov	 dl, BYTE PTR [ecx+27]
  001d7	84 d2		 test	 dl, dl
  001d9	0f 84 fa 01 00
	00		 je	 $LN72@ioINILoade
  001df	80 f2 ea	 xor	 dl, -22			; ffffffeaH
  001e2	88 50 1b	 mov	 BYTE PTR [eax+27], dl
  001e5	8a 51 1c	 mov	 dl, BYTE PTR [ecx+28]
  001e8	84 d2		 test	 dl, dl
  001ea	0f 84 e0 01 00
	00		 je	 $LN71@ioINILoade
  001f0	80 f2 ed	 xor	 dl, -19			; ffffffedH
  001f3	88 50 1c	 mov	 BYTE PTR [eax+28], dl
  001f6	8a 51 1d	 mov	 dl, BYTE PTR [ecx+29]
  001f9	84 d2		 test	 dl, dl
  001fb	0f 84 c6 01 00
	00		 je	 $LN70@ioINILoade
  00201	80 f2 ec	 xor	 dl, -20			; ffffffecH
  00204	88 50 1d	 mov	 BYTE PTR [eax+29], dl
  00207	8a 51 1e	 mov	 dl, BYTE PTR [ecx+30]
  0020a	84 d2		 test	 dl, dl
  0020c	0f 84 ad 01 00
	00		 je	 $LN69@ioINILoade
  00212	32 d3		 xor	 dl, bl
  00214	88 50 1e	 mov	 BYTE PTR [eax+30], dl
  00217	8a 51 1f	 mov	 dl, BYTE PTR [ecx+31]
  0021a	84 d2		 test	 dl, dl
  0021c	0f 84 94 01 00
	00		 je	 $LN68@ioINILoade
  00222	80 f2 ea	 xor	 dl, -22			; ffffffeaH
  00225	88 50 1f	 mov	 BYTE PTR [eax+31], dl
  00228	8a 51 20	 mov	 dl, BYTE PTR [ecx+32]
  0022b	84 d2		 test	 dl, dl
  0022d	0f 84 7a 01 00
	00		 je	 $LN67@ioINILoade
  00233	80 f2 ed	 xor	 dl, -19			; ffffffedH
  00236	88 50 20	 mov	 BYTE PTR [eax+32], dl
  00239	8a 51 21	 mov	 dl, BYTE PTR [ecx+33]
  0023c	84 d2		 test	 dl, dl
  0023e	0f 84 60 01 00
	00		 je	 $LN66@ioINILoade
  00244	80 f2 ec	 xor	 dl, -20			; ffffffecH
  00247	88 50 21	 mov	 BYTE PTR [eax+33], dl
  0024a	8a 51 22	 mov	 dl, BYTE PTR [ecx+34]
  0024d	84 d2		 test	 dl, dl
  0024f	0f 84 47 01 00
	00		 je	 $LN65@ioINILoade
  00255	32 d3		 xor	 dl, bl
  00257	88 50 22	 mov	 BYTE PTR [eax+34], dl
  0025a	8a 51 23	 mov	 dl, BYTE PTR [ecx+35]
  0025d	84 d2		 test	 dl, dl
  0025f	0f 84 2e 01 00
	00		 je	 $LN64@ioINILoade
  00265	80 f2 ea	 xor	 dl, -22			; ffffffeaH
  00268	88 50 23	 mov	 BYTE PTR [eax+35], dl
  0026b	8a 51 24	 mov	 dl, BYTE PTR [ecx+36]
  0026e	84 d2		 test	 dl, dl
  00270	0f 84 14 01 00
	00		 je	 $LN63@ioINILoade
  00276	80 f2 ed	 xor	 dl, -19			; ffffffedH
  00279	88 50 24	 mov	 BYTE PTR [eax+36], dl
  0027c	8a 51 25	 mov	 dl, BYTE PTR [ecx+37]
  0027f	84 d2		 test	 dl, dl
  00281	0f 84 fa 00 00
	00		 je	 $LN62@ioINILoade
  00287	80 f2 ec	 xor	 dl, -20			; ffffffecH
  0028a	88 50 25	 mov	 BYTE PTR [eax+37], dl
  0028d	8a 51 26	 mov	 dl, BYTE PTR [ecx+38]
  00290	84 d2		 test	 dl, dl
  00292	0f 84 e1 00 00
	00		 je	 $LN61@ioINILoade
  00298	32 d3		 xor	 dl, bl
  0029a	88 50 26	 mov	 BYTE PTR [eax+38], dl
  0029d	8a 51 27	 mov	 dl, BYTE PTR [ecx+39]
  002a0	84 d2		 test	 dl, dl
  002a2	0f 84 c8 00 00
	00		 je	 $LN60@ioINILoade
  002a8	80 f2 ea	 xor	 dl, -22			; ffffffeaH
  002ab	88 50 27	 mov	 BYTE PTR [eax+39], dl
  002ae	8a 51 28	 mov	 dl, BYTE PTR [ecx+40]
  002b1	84 d2		 test	 dl, dl
  002b3	0f 84 ae 00 00
	00		 je	 $LN59@ioINILoade
  002b9	80 f2 ed	 xor	 dl, -19			; ffffffedH
  002bc	88 50 28	 mov	 BYTE PTR [eax+40], dl
  002bf	8a 51 29	 mov	 dl, BYTE PTR [ecx+41]
  002c2	84 d2		 test	 dl, dl
  002c4	0f 84 94 00 00
	00		 je	 $LN58@ioINILoade
  002ca	80 f2 ec	 xor	 dl, -20			; ffffffecH
  002cd	88 50 29	 mov	 BYTE PTR [eax+41], dl
  002d0	8a 51 2a	 mov	 dl, BYTE PTR [ecx+42]
  002d3	84 d2		 test	 dl, dl
  002d5	74 7f		 je	 SHORT $LN57@ioINILoade
  002d7	32 d3		 xor	 dl, bl
  002d9	88 50 2a	 mov	 BYTE PTR [eax+42], dl
  002dc	8a 51 2b	 mov	 dl, BYTE PTR [ecx+43]
  002df	84 d2		 test	 dl, dl
  002e1	74 6a		 je	 SHORT $LN56@ioINILoade
  002e3	80 f2 ea	 xor	 dl, -22			; ffffffeaH
  002e6	88 50 2b	 mov	 BYTE PTR [eax+43], dl
  002e9	8a 51 2c	 mov	 dl, BYTE PTR [ecx+44]
  002ec	84 d2		 test	 dl, dl
  002ee	74 54		 je	 SHORT $LN55@ioINILoade
  002f0	80 f2 ed	 xor	 dl, -19			; ffffffedH
  002f3	88 50 2c	 mov	 BYTE PTR [eax+44], dl
  002f6	8a 51 2d	 mov	 dl, BYTE PTR [ecx+45]
  002f9	84 d2		 test	 dl, dl
  002fb	74 3e		 je	 SHORT $LN54@ioINILoade
  002fd	80 f2 ec	 xor	 dl, -20			; ffffffecH
  00300	88 50 2d	 mov	 BYTE PTR [eax+45], dl
  00303	8a 51 2e	 mov	 dl, BYTE PTR [ecx+46]
  00306	84 d2		 test	 dl, dl
  00308	74 29		 je	 SHORT $LN53@ioINILoade
  0030a	32 d3		 xor	 dl, bl
  0030c	88 50 2e	 mov	 BYTE PTR [eax+46], dl
  0030f	8a 51 2f	 mov	 dl, BYTE PTR [ecx+47]
  00312	84 d2		 test	 dl, dl
  00314	74 14		 je	 SHORT $LN52@ioINILoade
  00316	80 f2 ea	 xor	 dl, -22			; ffffffeaH
  00319	88 50 2f	 mov	 BYTE PTR [eax+47], dl
  0031c	8a 49 30	 mov	 cl, BYTE PTR [ecx+48]
  0031f	80 f1 ed	 xor	 cl, -19			; ffffffedH
  00322	88 48 30	 mov	 BYTE PTR [eax+48], cl
  00325	e9 5d 01 00 00	 jmp	 $LN4@ioINILoade
$LN52@ioINILoade:
  0032a	c6 40 2f ea	 mov	 BYTE PTR [eax+47], -22	; ffffffeaH
  0032e	e9 54 01 00 00	 jmp	 $LN4@ioINILoade
$LN53@ioINILoade:
  00333	88 58 2e	 mov	 BYTE PTR [eax+46], bl
  00336	e9 4c 01 00 00	 jmp	 $LN4@ioINILoade
$LN54@ioINILoade:
  0033b	c6 40 2d ec	 mov	 BYTE PTR [eax+45], -20	; ffffffecH
  0033f	e9 43 01 00 00	 jmp	 $LN4@ioINILoade
$LN55@ioINILoade:
  00344	c6 40 2c ed	 mov	 BYTE PTR [eax+44], -19	; ffffffedH
  00348	e9 3a 01 00 00	 jmp	 $LN4@ioINILoade
$LN56@ioINILoade:
  0034d	c6 40 2b ea	 mov	 BYTE PTR [eax+43], -22	; ffffffeaH
  00351	e9 31 01 00 00	 jmp	 $LN4@ioINILoade
$LN57@ioINILoade:
  00356	88 58 2a	 mov	 BYTE PTR [eax+42], bl
  00359	e9 29 01 00 00	 jmp	 $LN4@ioINILoade
$LN58@ioINILoade:
  0035e	c6 40 29 ec	 mov	 BYTE PTR [eax+41], -20	; ffffffecH
  00362	e9 20 01 00 00	 jmp	 $LN4@ioINILoade
$LN59@ioINILoade:
  00367	c6 40 28 ed	 mov	 BYTE PTR [eax+40], -19	; ffffffedH
  0036b	e9 17 01 00 00	 jmp	 $LN4@ioINILoade
$LN60@ioINILoade:
  00370	c6 40 27 ea	 mov	 BYTE PTR [eax+39], -22	; ffffffeaH
  00374	e9 0e 01 00 00	 jmp	 $LN4@ioINILoade
$LN61@ioINILoade:
  00379	88 58 26	 mov	 BYTE PTR [eax+38], bl
  0037c	e9 06 01 00 00	 jmp	 $LN4@ioINILoade
$LN62@ioINILoade:
  00381	c6 40 25 ec	 mov	 BYTE PTR [eax+37], -20	; ffffffecH
  00385	e9 fd 00 00 00	 jmp	 $LN4@ioINILoade
$LN63@ioINILoade:
  0038a	c6 40 24 ed	 mov	 BYTE PTR [eax+36], -19	; ffffffedH
  0038e	e9 f4 00 00 00	 jmp	 $LN4@ioINILoade
$LN64@ioINILoade:
  00393	c6 40 23 ea	 mov	 BYTE PTR [eax+35], -22	; ffffffeaH
  00397	e9 eb 00 00 00	 jmp	 $LN4@ioINILoade
$LN65@ioINILoade:
  0039c	88 58 22	 mov	 BYTE PTR [eax+34], bl
  0039f	e9 e3 00 00 00	 jmp	 $LN4@ioINILoade
$LN66@ioINILoade:
  003a4	c6 40 21 ec	 mov	 BYTE PTR [eax+33], -20	; ffffffecH
  003a8	e9 da 00 00 00	 jmp	 $LN4@ioINILoade
$LN67@ioINILoade:
  003ad	c6 40 20 ed	 mov	 BYTE PTR [eax+32], -19	; ffffffedH
  003b1	e9 d1 00 00 00	 jmp	 $LN4@ioINILoade
$LN68@ioINILoade:
  003b6	c6 40 1f ea	 mov	 BYTE PTR [eax+31], -22	; ffffffeaH
  003ba	e9 c8 00 00 00	 jmp	 $LN4@ioINILoade
$LN69@ioINILoade:
  003bf	88 58 1e	 mov	 BYTE PTR [eax+30], bl
  003c2	e9 c0 00 00 00	 jmp	 $LN4@ioINILoade
$LN70@ioINILoade:
  003c7	c6 40 1d ec	 mov	 BYTE PTR [eax+29], -20	; ffffffecH
  003cb	e9 b7 00 00 00	 jmp	 $LN4@ioINILoade
$LN71@ioINILoade:
  003d0	c6 40 1c ed	 mov	 BYTE PTR [eax+28], -19	; ffffffedH
  003d4	e9 ae 00 00 00	 jmp	 $LN4@ioINILoade
$LN72@ioINILoade:
  003d9	c6 40 1b ea	 mov	 BYTE PTR [eax+27], -22	; ffffffeaH
  003dd	e9 a5 00 00 00	 jmp	 $LN4@ioINILoade
$LN73@ioINILoade:
  003e2	88 58 1a	 mov	 BYTE PTR [eax+26], bl
  003e5	e9 9d 00 00 00	 jmp	 $LN4@ioINILoade
$LN74@ioINILoade:
  003ea	c6 40 19 ec	 mov	 BYTE PTR [eax+25], -20	; ffffffecH
  003ee	e9 94 00 00 00	 jmp	 $LN4@ioINILoade
$LN75@ioINILoade:
  003f3	c6 40 18 ed	 mov	 BYTE PTR [eax+24], -19	; ffffffedH
  003f7	e9 8b 00 00 00	 jmp	 $LN4@ioINILoade
$LN76@ioINILoade:
  003fc	c6 40 17 ea	 mov	 BYTE PTR [eax+23], -22	; ffffffeaH
  00400	e9 82 00 00 00	 jmp	 $LN4@ioINILoade
$LN77@ioINILoade:
  00405	88 58 16	 mov	 BYTE PTR [eax+22], bl
  00408	eb 7d		 jmp	 SHORT $LN4@ioINILoade
$LN78@ioINILoade:
  0040a	c6 40 15 ec	 mov	 BYTE PTR [eax+21], -20	; ffffffecH
  0040e	eb 77		 jmp	 SHORT $LN4@ioINILoade
$LN79@ioINILoade:
  00410	c6 40 14 ed	 mov	 BYTE PTR [eax+20], -19	; ffffffedH
  00414	eb 71		 jmp	 SHORT $LN4@ioINILoade
$LN80@ioINILoade:
  00416	c6 40 13 ea	 mov	 BYTE PTR [eax+19], -22	; ffffffeaH
  0041a	eb 6b		 jmp	 SHORT $LN4@ioINILoade
$LN81@ioINILoade:
  0041c	88 58 12	 mov	 BYTE PTR [eax+18], bl
  0041f	eb 66		 jmp	 SHORT $LN4@ioINILoade
$LN82@ioINILoade:
  00421	c6 40 11 ec	 mov	 BYTE PTR [eax+17], -20	; ffffffecH
  00425	eb 60		 jmp	 SHORT $LN4@ioINILoade
$LN83@ioINILoade:
  00427	c6 40 10 ed	 mov	 BYTE PTR [eax+16], -19	; ffffffedH
  0042b	eb 5a		 jmp	 SHORT $LN4@ioINILoade
$LN84@ioINILoade:
  0042d	c6 40 0f ea	 mov	 BYTE PTR [eax+15], -22	; ffffffeaH
  00431	eb 54		 jmp	 SHORT $LN4@ioINILoade
$LN85@ioINILoade:
  00433	88 58 0e	 mov	 BYTE PTR [eax+14], bl
  00436	eb 4f		 jmp	 SHORT $LN4@ioINILoade
$LN86@ioINILoade:
  00438	c6 40 0d ec	 mov	 BYTE PTR [eax+13], -20	; ffffffecH
  0043c	eb 49		 jmp	 SHORT $LN4@ioINILoade
$LN87@ioINILoade:
  0043e	c6 40 0c ed	 mov	 BYTE PTR [eax+12], -19	; ffffffedH
  00442	eb 43		 jmp	 SHORT $LN4@ioINILoade
$LN88@ioINILoade:
  00444	c6 40 0b ea	 mov	 BYTE PTR [eax+11], -22	; ffffffeaH
  00448	eb 3d		 jmp	 SHORT $LN4@ioINILoade
$LN89@ioINILoade:
  0044a	88 58 0a	 mov	 BYTE PTR [eax+10], bl
  0044d	eb 38		 jmp	 SHORT $LN4@ioINILoade
$LN90@ioINILoade:
  0044f	c6 40 09 ec	 mov	 BYTE PTR [eax+9], -20	; ffffffecH
  00453	eb 32		 jmp	 SHORT $LN4@ioINILoade
$LN91@ioINILoade:
  00455	c6 40 08 ed	 mov	 BYTE PTR [eax+8], -19	; ffffffedH
  00459	eb 2c		 jmp	 SHORT $LN4@ioINILoade
$LN92@ioINILoade:
  0045b	c6 40 07 ea	 mov	 BYTE PTR [eax+7], -22	; ffffffeaH
  0045f	eb 26		 jmp	 SHORT $LN4@ioINILoade
$LN93@ioINILoade:
  00461	88 58 06	 mov	 BYTE PTR [eax+6], bl
  00464	eb 21		 jmp	 SHORT $LN4@ioINILoade
$LN94@ioINILoade:
  00466	c6 40 05 ec	 mov	 BYTE PTR [eax+5], -20	; ffffffecH
  0046a	eb 1b		 jmp	 SHORT $LN4@ioINILoade
$LN95@ioINILoade:
  0046c	c6 40 04 ed	 mov	 BYTE PTR [eax+4], -19	; ffffffedH
  00470	eb 15		 jmp	 SHORT $LN4@ioINILoade
$LN96@ioINILoade:
  00472	c6 40 03 ea	 mov	 BYTE PTR [eax+3], -22	; ffffffeaH
  00476	eb 0f		 jmp	 SHORT $LN4@ioINILoade
$LN97@ioINILoade:
  00478	c6 40 02 eb	 mov	 BYTE PTR [eax+2], -21	; ffffffebH
  0047c	eb 09		 jmp	 SHORT $LN4@ioINILoade
$LN98@ioINILoade:
  0047e	c6 40 01 ec	 mov	 BYTE PTR [eax+1], -20	; ffffffecH
  00482	eb 03		 jmp	 SHORT $LN4@ioINILoade
$LN99@ioINILoade:
  00484	c6 00 ed	 mov	 BYTE PTR [eax], -19	; ffffffedH
$LN4@ioINILoade:
  00487	6a 07		 push	 7
  00489	8b c8		 mov	 ecx, eax
  0048b	c6 40 1c 00	 mov	 BYTE PTR [eax+28], 0
  0048f	5a		 pop	 edx
$LL107@ioINILoade:
  00490	81 31 ed ec eb
	ea		 xor	 DWORD PTR [ecx], -353637139 ; eaebecedH
  00496	83 c1 04	 add	 ecx, 4
  00499	4a		 dec	 edx
  0049a	75 f4		 jne	 SHORT $LL107@ioINILoade
  0049c	ff 75 0c	 push	 DWORD PTR _b$[ebp]
  0049f	8b ce		 mov	 ecx, esi
  004a1	50		 push	 eax
  004a2	ff 15 00 00 00
	00		 call	 DWORD PTR __imp_??0ioINILoader@@QAE@PBD_N@Z

; 225  : 	}

  004a8	8b c6		 mov	 eax, esi
  004aa	5e		 pop	 esi
  004ab	5b		 pop	 ebx
  004ac	5d		 pop	 ebp
  004ad	c2 08 00	 ret	 8
??$?0$0BN@@ioINILoader_e@@QAE@AAY0BN@$$CBD_N@Z ENDP	; ioINILoader_e::ioINILoader_e<29>
_TEXT	ENDS
PUBLIC	??$_Cons_val@V?$allocator@PAVioMission@@@std@@PAVioMission@@ABQAV3@@std@@YAXAAV?$allocator@PAVioMission@@@0@PAPAVioMission@@ABQAV2@@Z ; std::_Cons_val<std::allocator<ioMission *>,ioMission *,ioMission * const &>
; Function compile flags: /Ogsp
; File c:\program files (x86)\microsoft visual studio 10.0\vc\include\xmemory
;	COMDAT ??$_Cons_val@V?$allocator@PAVioMission@@@std@@PAVioMission@@ABQAV3@@std@@YAXAAV?$allocator@PAVioMission@@@0@PAPAVioMission@@ABQAV2@@Z
_TEXT	SEGMENT
__Alval$ = 8						; size = 4
__Pdest$ = 12						; size = 4
__Src$ = 16						; size = 4
??$_Cons_val@V?$allocator@PAVioMission@@@std@@PAVioMission@@ABQAV3@@std@@YAXAAV?$allocator@PAVioMission@@@0@PAPAVioMission@@ABQAV2@@Z PROC ; std::_Cons_val<std::allocator<ioMission *>,ioMission *,ioMission * const &>, COMDAT

; 279  : 	{	// construct using allocator

  00000	55		 push	 ebp
  00001	8b ec		 mov	 ebp, esp

; 280  : 	_Alval.construct(_Pdest, _STD forward<_Ty2>(_Src));

  00003	8b 45 0c	 mov	 eax, DWORD PTR __Pdest$[ebp]
  00006	85 c0		 test	 eax, eax
  00008	74 07		 je	 SHORT $LN9@Cons_val@2
  0000a	8b 4d 10	 mov	 ecx, DWORD PTR __Src$[ebp]
  0000d	8b 09		 mov	 ecx, DWORD PTR [ecx]
  0000f	89 08		 mov	 DWORD PTR [eax], ecx
$LN9@Cons_val@2:

; 281  : 	}

  00011	5d		 pop	 ebp
  00012	c3		 ret	 0
??$_Cons_val@V?$allocator@PAVioMission@@@std@@PAVioMission@@ABQAV3@@std@@YAXAAV?$allocator@PAVioMission@@@0@PAPAVioMission@@ABQAV2@@Z ENDP ; std::_Cons_val<std::allocator<ioMission *>,ioMission *,ioMission * const &>
_TEXT	ENDS
PUBLIC	??$_Umove@PAPAVioMission@@@?$vector@PAVioMission@@V?$allocator@PAVioMission@@@std@@@std@@IAEPAPAVioMission@@PAPAV2@00@Z ; std::vector<ioMission *,std::allocator<ioMission *> >::_Umove<ioMission * *>
; Function compile flags: /Ogsp
; File c:\program files (x86)\microsoft visual studio 10.0\vc\include\vector
;	COMDAT ??$_Umove@PAPAVioMission@@@?$vector@PAVioMission@@V?$allocator@PAVioMission@@@std@@@std@@IAEPAPAVioMission@@PAPAV2@00@Z
_TEXT	SEGMENT
__First$ = 8						; size = 4
__Last$ = 12						; size = 4
__Ptr$ = 16						; size = 4
??$_Umove@PAPAVioMission@@@?$vector@PAVioMission@@V?$allocator@PAVioMission@@@std@@@std@@IAEPAPAVioMission@@PAPAV2@00@Z PROC ; std::vector<ioMission *,std::allocator<ioMission *> >::_Umove<ioMission * *>, COMDAT
; _this$ = ecx

; 1322 : 		pointer _Umove(_Iter _First, _Iter _Last, pointer _Ptr)

  00000	55		 push	 ebp
  00001	8b ec		 mov	 ebp, esp

; 1323 : 		{	// move initializing [_First, _Last), using allocator
; 1324 : 		return (_Uninitialized_move(_First, _Last,
; 1325 : 			_Ptr, this->_Alval));

  00003	83 c1 0c	 add	 ecx, 12			; 0000000cH
  00006	51		 push	 ecx
  00007	ff 75 10	 push	 DWORD PTR __Ptr$[ebp]
  0000a	ff 75 0c	 push	 DWORD PTR __Last$[ebp]
  0000d	ff 75 08	 push	 DWORD PTR __First$[ebp]
  00010	e8 00 00 00 00	 call	 ??$_Uninitialized_move@PAPAVioMission@@PAPAV1@V?$allocator@PAVioMission@@@std@@@std@@YAPAPAVioMission@@PAPAV1@00AAV?$allocator@PAVioMission@@@0@@Z ; std::_Uninitialized_move<ioMission * *,ioMission * *,std::allocator<ioMission *> >
  00015	83 c4 10	 add	 esp, 16			; 00000010H

; 1326 : 		}

  00018	5d		 pop	 ebp
  00019	c2 0c 00	 ret	 12			; 0000000cH
??$_Umove@PAPAVioMission@@@?$vector@PAVioMission@@V?$allocator@PAVioMission@@@std@@@std@@IAEPAPAVioMission@@PAPAV2@00@Z ENDP ; std::vector<ioMission *,std::allocator<ioMission *> >::_Umove<ioMission * *>
_TEXT	ENDS
PUBLIC	??$iter_swap@PAPAVioMission@@PAPAV1@@std@@YAXPAPAVioMission@@0@Z ; std::iter_swap<ioMission * *,ioMission * *>
; Function compile flags: /Ogsp
; File c:\program files (x86)\microsoft visual studio 10.0\vc\include\xutility
;	COMDAT ??$iter_swap@PAPAVioMission@@PAPAV1@@std@@YAXPAPAVioMission@@0@Z
_TEXT	SEGMENT
__Left$ = 8						; size = 4
__Right$ = 12						; size = 4
??$iter_swap@PAPAVioMission@@PAPAV1@@std@@YAXPAPAVioMission@@0@Z PROC ; std::iter_swap<ioMission * *,ioMission * *>, COMDAT

; 2133 : 	{	// swap *_Left and *_Right

  00000	55		 push	 ebp
  00001	8b ec		 mov	 ebp, esp

; 2134 : 	swap(*_Left, *_Right);

  00003	8b 55 0c	 mov	 edx, DWORD PTR __Right$[ebp]
  00006	8b 45 08	 mov	 eax, DWORD PTR __Left$[ebp]
  00009	8b 08		 mov	 ecx, DWORD PTR [eax]
  0000b	56		 push	 esi
  0000c	8b 32		 mov	 esi, DWORD PTR [edx]
  0000e	89 30		 mov	 DWORD PTR [eax], esi
  00010	89 0a		 mov	 DWORD PTR [edx], ecx
  00012	5e		 pop	 esi

; 2135 : 	}

  00013	5d		 pop	 ebp
  00014	c3		 ret	 0
??$iter_swap@PAPAVioMission@@PAPAV1@@std@@YAXPAPAVioMission@@0@Z ENDP ; std::iter_swap<ioMission * *,ioMission * *>
_TEXT	ENDS
PUBLIC	??$_Make_heap@PAPAVioMission@@HPAV1@VMissionDataSort@@@std@@YAXPAPAVioMission@@0VMissionDataSort@@PAH0@Z ; std::_Make_heap<ioMission * *,int,ioMission *,MissionDataSort>
; Function compile flags: /Ogsp
; File c:\program files (x86)\microsoft visual studio 10.0\vc\include\algorithm
;	COMDAT ??$_Make_heap@PAPAVioMission@@HPAV1@VMissionDataSort@@@std@@YAXPAPAVioMission@@0VMissionDataSort@@PAH0@Z
_TEXT	SEGMENT
__First$ = 8						; size = 4
__Val$509555 = 12					; size = 4
__Last$ = 12						; size = 4
__Pred$ = 16						; size = 1
___formal$ = 20						; size = 4
___formal$ = 24						; size = 4
??$_Make_heap@PAPAVioMission@@HPAV1@VMissionDataSort@@@std@@YAXPAPAVioMission@@0VMissionDataSort@@PAH0@Z PROC ; std::_Make_heap<ioMission * *,int,ioMission *,MissionDataSort>, COMDAT

; 2658 : 	{	// make nontrivial [_First, _Last) into a heap, using _Pred

  00000	55		 push	 ebp
  00001	8b ec		 mov	 ebp, esp
  00003	53		 push	 ebx

; 2659 : 	_Diff _Bottom = _Last - _First;

  00004	8b 5d 08	 mov	 ebx, DWORD PTR __First$[ebp]
  00007	56		 push	 esi
  00008	57		 push	 edi
  00009	8b 7d 0c	 mov	 edi, DWORD PTR __Last$[ebp]
  0000c	2b fb		 sub	 edi, ebx
  0000e	c1 ff 02	 sar	 edi, 2

; 2660 : 	for (_Diff _Hole = _Bottom / 2; 0 < _Hole; )

  00011	8b c7		 mov	 eax, edi
  00013	99		 cdq
  00014	2b c2		 sub	 eax, edx
  00016	8b f0		 mov	 esi, eax
  00018	d1 fe		 sar	 esi, 1
  0001a	eb 19		 jmp	 SHORT $LN11@Make_heap
$LL2@Make_heap:

; 2661 : 		{	// reheap top half, bottom to top
; 2662 : 		--_Hole;
; 2663 : 		_Ty _Val = _Move(*(_First + _Hole));
; 2664 : 		_Adjust_heap(_First, _Hole, _Bottom,
; 2665 : 			_Move(_Val), _Pred);

  0001c	ff 75 10	 push	 DWORD PTR __Pred$[ebp]
  0001f	4e		 dec	 esi
  00020	8b 04 b3	 mov	 eax, DWORD PTR [ebx+esi*4]
  00023	89 45 0c	 mov	 DWORD PTR __Val$509555[ebp], eax
  00026	8d 45 0c	 lea	 eax, DWORD PTR __Val$509555[ebp]
  00029	50		 push	 eax
  0002a	57		 push	 edi
  0002b	56		 push	 esi
  0002c	53		 push	 ebx
  0002d	e8 00 00 00 00	 call	 ??$_Adjust_heap@PAPAVioMission@@HPAV1@VMissionDataSort@@@std@@YAXPAPAVioMission@@HH$$QAPAV1@VMissionDataSort@@@Z ; std::_Adjust_heap<ioMission * *,int,ioMission *,MissionDataSort>
  00032	83 c4 14	 add	 esp, 20			; 00000014H
$LN11@Make_heap:

; 2660 : 	for (_Diff _Hole = _Bottom / 2; 0 < _Hole; )

  00035	85 f6		 test	 esi, esi
  00037	7f e3		 jg	 SHORT $LL2@Make_heap
  00039	5f		 pop	 edi
  0003a	5e		 pop	 esi
  0003b	5b		 pop	 ebx

; 2666 : 		}
; 2667 : 	}

  0003c	5d		 pop	 ebp
  0003d	c3		 ret	 0
??$_Make_heap@PAPAVioMission@@HPAV1@VMissionDataSort@@@std@@YAXPAPAVioMission@@0VMissionDataSort@@PAH0@Z ENDP ; std::_Make_heap<ioMission * *,int,ioMission *,MissionDataSort>
_TEXT	ENDS
PUBLIC	??$_Insertion_sort1@PAPAVioMission@@VMissionDataSort@@PAV1@@std@@YAXPAPAVioMission@@0VMissionDataSort@@0@Z ; std::_Insertion_sort1<ioMission * *,MissionDataSort,ioMission *>
; Function compile flags: /Ogsp
;	COMDAT ??$_Insertion_sort1@PAPAVioMission@@VMissionDataSort@@PAV1@@std@@YAXPAPAVioMission@@0VMissionDataSort@@0@Z
_TEXT	SEGMENT
__Next1$509598 = -4					; size = 4
__First$ = 8						; size = 4
__Cat$511072 = 12					; size = 1
__Last$ = 12						; size = 4
__Pred$ = 16						; size = 1
___formal$ = 20						; size = 4
??$_Insertion_sort1@PAPAVioMission@@VMissionDataSort@@PAV1@@std@@YAXPAPAVioMission@@0VMissionDataSort@@0@Z PROC ; std::_Insertion_sort1<ioMission * *,MissionDataSort,ioMission *>, COMDAT

; 3650 : 	{	// insertion sort [_First, _Last), using _Pred

  00000	55		 push	 ebp
  00001	8b ec		 mov	 ebp, esp
  00003	51		 push	 ecx
  00004	57		 push	 edi

; 3651 : 	if (_First != _Last)

  00005	8b 7d 08	 mov	 edi, DWORD PTR __First$[ebp]
  00008	3b 7d 0c	 cmp	 edi, DWORD PTR __Last$[ebp]
  0000b	74 66		 je	 SHORT $LN6@Insertion_

; 3652 : 		for (_BidIt _Next = _First; ++_Next != _Last; )

  0000d	56		 push	 esi
  0000e	8d 77 04	 lea	 esi, DWORD PTR [edi+4]
  00011	3b 75 0c	 cmp	 esi, DWORD PTR __Last$[ebp]
  00014	74 5c		 je	 SHORT $LN26@Insertion_
  00016	53		 push	 ebx
$LL7@Insertion_:

; 3653 : 			{	// order next element
; 3654 : 			_BidIt _Next1 = _Next;
; 3655 : 			_Ty _Val = _Move(*_Next);
; 3656 : 
; 3657 : 			if (_DEBUG_LT_PRED(_Pred, _Val, *_First))

  00017	ff 37		 push	 DWORD PTR [edi]
  00019	8b 1e		 mov	 ebx, DWORD PTR [esi]
  0001b	53		 push	 ebx
  0001c	8d 4d 10	 lea	 ecx, DWORD PTR __Pred$[ebp]
  0001f	89 75 fc	 mov	 DWORD PTR __Next1$509598[ebp], esi
  00022	e8 00 00 00 00	 call	 ??RMissionDataSort@@QBE_NPBVioMission@@0@Z ; MissionDataSort::operator()
  00027	84 c0		 test	 al, al
  00029	74 15		 je	 SHORT $LN5@Insertion_

; 3658 : 				{	// found new earliest element, move to front
; 3659 : 				_Move_backward(_First, _Next, ++_Next1);

  0002b	ff 75 0c	 push	 DWORD PTR __Cat$511072[ebp]
  0002e	8d 46 04	 lea	 eax, DWORD PTR [esi+4]
  00031	50		 push	 eax
  00032	56		 push	 esi
  00033	57		 push	 edi
  00034	e8 00 00 00 00	 call	 ??$_Move_backward@PAPAVioMission@@PAPAV1@@std@@YAPAPAVioMission@@PAPAV1@00U_Scalar_ptr_iterator_tag@0@@Z ; std::_Move_backward<ioMission * *,ioMission * *>
  00039	83 c4 10	 add	 esp, 16			; 00000010H

; 3660 : 				*_First = _Move(_Val);

  0003c	89 1f		 mov	 DWORD PTR [edi], ebx

; 3661 : 				}
; 3662 : 			else

  0003e	eb 29		 jmp	 SHORT $LN4@Insertion_
$LN5@Insertion_:

; 3652 : 		for (_BidIt _Next = _First; ++_Next != _Last; )

  00040	8d 7e fc	 lea	 edi, DWORD PTR [esi-4]

; 3663 : 				{	// look for insertion point after first
; 3664 : 				for (_BidIt _First1 = _Next1;
; 3665 : 					_DEBUG_LT_PRED(_Pred, _Val, *--_First1);
; 3666 : 					_Next1 = _First1)

  00043	eb 0d		 jmp	 SHORT $LN29@Insertion_
$LL3@Insertion_:

; 3667 : 					*_Next1 = _Move(*_First1);	// move hole down

  00045	8b 07		 mov	 eax, DWORD PTR [edi]
  00047	8b 4d fc	 mov	 ecx, DWORD PTR __Next1$509598[ebp]
  0004a	89 7d fc	 mov	 DWORD PTR __Next1$509598[ebp], edi
  0004d	89 01		 mov	 DWORD PTR [ecx], eax
  0004f	83 ef 04	 sub	 edi, 4
$LN29@Insertion_:

; 3663 : 				{	// look for insertion point after first
; 3664 : 				for (_BidIt _First1 = _Next1;
; 3665 : 					_DEBUG_LT_PRED(_Pred, _Val, *--_First1);
; 3666 : 					_Next1 = _First1)

  00052	ff 37		 push	 DWORD PTR [edi]
  00054	8d 4d 10	 lea	 ecx, DWORD PTR __Pred$[ebp]
  00057	53		 push	 ebx
  00058	e8 00 00 00 00	 call	 ??RMissionDataSort@@QBE_NPBVioMission@@0@Z ; MissionDataSort::operator()
  0005d	84 c0		 test	 al, al
  0005f	75 e4		 jne	 SHORT $LL3@Insertion_

; 3668 : 				*_Next1 = _Move(_Val);	// insert element in hole

  00061	8b 45 fc	 mov	 eax, DWORD PTR __Next1$509598[ebp]
  00064	8b 7d 08	 mov	 edi, DWORD PTR __First$[ebp]
  00067	89 18		 mov	 DWORD PTR [eax], ebx
$LN4@Insertion_:

; 3652 : 		for (_BidIt _Next = _First; ++_Next != _Last; )

  00069	83 c6 04	 add	 esi, 4
  0006c	3b 75 0c	 cmp	 esi, DWORD PTR __Last$[ebp]
  0006f	75 a6		 jne	 SHORT $LL7@Insertion_
  00071	5b		 pop	 ebx
$LN26@Insertion_:
  00072	5e		 pop	 esi
$LN6@Insertion_:
  00073	5f		 pop	 edi

; 3669 : 				}
; 3670 : 			}
; 3671 : 	}

  00074	c9		 leave
  00075	c3		 ret	 0
??$_Insertion_sort1@PAPAVioMission@@VMissionDataSort@@PAV1@@std@@YAXPAPAVioMission@@0VMissionDataSort@@0@Z ENDP ; std::_Insertion_sort1<ioMission * *,MissionDataSort,ioMission *>
_TEXT	ENDS
PUBLIC	??$_Med3@PAPAVioMission@@VMissionDataSort@@@std@@YAXPAPAVioMission@@00VMissionDataSort@@@Z ; std::_Med3<ioMission * *,MissionDataSort>
; Function compile flags: /Ogsp
;	COMDAT ??$_Med3@PAPAVioMission@@VMissionDataSort@@@std@@YAXPAPAVioMission@@00VMissionDataSort@@@Z
_TEXT	SEGMENT
__First$ = 8						; size = 4
__Mid$ = 12						; size = 4
__Last$ = 16						; size = 4
__Pred$ = 20						; size = 1
??$_Med3@PAPAVioMission@@VMissionDataSort@@@std@@YAXPAPAVioMission@@00VMissionDataSort@@@Z PROC ; std::_Med3<ioMission * *,MissionDataSort>, COMDAT

; 3683 : 	{	// sort median of three elements to middle

  00000	55		 push	 ebp
  00001	8b ec		 mov	 ebp, esp
  00003	56		 push	 esi

; 3684 : 	if (_DEBUG_LT_PRED(_Pred, *_Mid, *_First))

  00004	8b 75 0c	 mov	 esi, DWORD PTR __Mid$[ebp]
  00007	57		 push	 edi
  00008	8b 7d 08	 mov	 edi, DWORD PTR __First$[ebp]
  0000b	ff 37		 push	 DWORD PTR [edi]
  0000d	8d 4d 14	 lea	 ecx, DWORD PTR __Pred$[ebp]
  00010	ff 36		 push	 DWORD PTR [esi]
  00012	e8 00 00 00 00	 call	 ??RMissionDataSort@@QBE_NPBVioMission@@0@Z ; MissionDataSort::operator()
  00017	84 c0		 test	 al, al
  00019	74 08		 je	 SHORT $LN8@Med3

; 3685 : 		_STD iter_swap(_Mid, _First);

  0001b	8b 0f		 mov	 ecx, DWORD PTR [edi]
  0001d	8b 06		 mov	 eax, DWORD PTR [esi]
  0001f	89 0e		 mov	 DWORD PTR [esi], ecx
  00021	89 07		 mov	 DWORD PTR [edi], eax
$LN8@Med3:

; 3686 : 	if (_DEBUG_LT_PRED(_Pred, *_Last, *_Mid))

  00023	53		 push	 ebx
  00024	ff 36		 push	 DWORD PTR [esi]
  00026	8b 5d 10	 mov	 ebx, DWORD PTR __Last$[ebp]
  00029	ff 33		 push	 DWORD PTR [ebx]
  0002b	8d 4d 14	 lea	 ecx, DWORD PTR __Pred$[ebp]
  0002e	e8 00 00 00 00	 call	 ??RMissionDataSort@@QBE_NPBVioMission@@0@Z ; MissionDataSort::operator()
  00033	84 c0		 test	 al, al
  00035	74 08		 je	 SHORT $LN18@Med3

; 3687 : 		_STD iter_swap(_Last, _Mid);

  00037	8b 0e		 mov	 ecx, DWORD PTR [esi]
  00039	8b 03		 mov	 eax, DWORD PTR [ebx]
  0003b	89 0b		 mov	 DWORD PTR [ebx], ecx
  0003d	89 06		 mov	 DWORD PTR [esi], eax
$LN18@Med3:

; 3688 : 	if (_DEBUG_LT_PRED(_Pred, *_Mid, *_First))

  0003f	ff 37		 push	 DWORD PTR [edi]
  00041	8d 4d 14	 lea	 ecx, DWORD PTR __Pred$[ebp]
  00044	ff 36		 push	 DWORD PTR [esi]
  00046	e8 00 00 00 00	 call	 ??RMissionDataSort@@QBE_NPBVioMission@@0@Z ; MissionDataSort::operator()
  0004b	5b		 pop	 ebx
  0004c	84 c0		 test	 al, al
  0004e	74 08		 je	 SHORT $LN28@Med3

; 3689 : 		_STD iter_swap(_Mid, _First);

  00050	8b 0f		 mov	 ecx, DWORD PTR [edi]
  00052	8b 06		 mov	 eax, DWORD PTR [esi]
  00054	89 0e		 mov	 DWORD PTR [esi], ecx
  00056	89 07		 mov	 DWORD PTR [edi], eax
$LN28@Med3:
  00058	5f		 pop	 edi
  00059	5e		 pop	 esi

; 3690 : 	}

  0005a	5d		 pop	 ebp
  0005b	c3		 ret	 0
??$_Med3@PAPAVioMission@@VMissionDataSort@@@std@@YAXPAPAVioMission@@00VMissionDataSort@@@Z ENDP ; std::_Med3<ioMission * *,MissionDataSort>
_TEXT	ENDS
PUBLIC	??$_Pop_heap_0@PAPAVioMission@@PAV1@VMissionDataSort@@@std@@YAXPAPAVioMission@@0VMissionDataSort@@0@Z ; std::_Pop_heap_0<ioMission * *,ioMission *,MissionDataSort>
; Function compile flags: /Ogsp
;	COMDAT ??$_Pop_heap_0@PAPAVioMission@@PAV1@VMissionDataSort@@@std@@YAXPAPAVioMission@@0VMissionDataSort@@0@Z
_TEXT	SEGMENT
__First$ = 8						; size = 4
__Val$ = 12						; size = 4
__Last$ = 12						; size = 4
__Pred$ = 16						; size = 1
___formal$ = 20						; size = 4
??$_Pop_heap_0@PAPAVioMission@@PAV1@VMissionDataSort@@@std@@YAXPAPAVioMission@@0VMissionDataSort@@0@Z PROC ; std::_Pop_heap_0<ioMission * *,ioMission *,MissionDataSort>, COMDAT

; 2601 : 	{	// pop *_First to *(_Last - 1) and reheap, using _Pred

  00000	55		 push	 ebp
  00001	8b ec		 mov	 ebp, esp

; 2602 : 	_Ty _Val = _Move(*(_Last - 1));

  00003	8b 45 0c	 mov	 eax, DWORD PTR __Last$[ebp]
  00006	83 c0 fc	 add	 eax, -4			; fffffffcH
  00009	8b 08		 mov	 ecx, DWORD PTR [eax]

; 2603 : 	_Pop_heap(_First, _Last - 1, _Last - 1,
; 2604 : 		_Move(_Val), _Pred, _Dist_type(_First));

  0000b	6a 00		 push	 0
  0000d	ff 75 10	 push	 DWORD PTR __Pred$[ebp]
  00010	89 4d 0c	 mov	 DWORD PTR __Val$[ebp], ecx
  00013	8d 4d 0c	 lea	 ecx, DWORD PTR __Val$[ebp]
  00016	51		 push	 ecx
  00017	50		 push	 eax
  00018	50		 push	 eax
  00019	ff 75 08	 push	 DWORD PTR __First$[ebp]
  0001c	e8 00 00 00 00	 call	 ??$_Pop_heap@PAPAVioMission@@HPAV1@VMissionDataSort@@@std@@YAXPAPAVioMission@@00$$QAPAV1@VMissionDataSort@@PAH@Z ; std::_Pop_heap<ioMission * *,int,ioMission *,MissionDataSort>
  00021	83 c4 18	 add	 esp, 24			; 00000018H

; 2605 : 	}

  00024	5d		 pop	 ebp
  00025	c3		 ret	 0
??$_Pop_heap_0@PAPAVioMission@@PAV1@VMissionDataSort@@@std@@YAXPAPAVioMission@@0VMissionDataSort@@0@Z ENDP ; std::_Pop_heap_0<ioMission * *,ioMission *,MissionDataSort>
_TEXT	ENDS
PUBLIC	?erase@?$vector@PAVioMission@@V?$allocator@PAVioMission@@@std@@@std@@QAE?AV?$_Vector_iterator@V?$_Vector_val@PAVioMission@@V?$allocator@PAVioMission@@@std@@@std@@@2@V?$_Vector_const_iterator@V?$_Vector_val@PAVioMission@@V?$allocator@PAVioMission@@@std@@@std@@@2@0@Z ; std::vector<ioMission *,std::allocator<ioMission *> >::erase
; Function compile flags: /Ogsp
; File c:\program files (x86)\microsoft visual studio 10.0\vc\include\vector
;	COMDAT ?erase@?$vector@PAVioMission@@V?$allocator@PAVioMission@@@std@@@std@@QAE?AV?$_Vector_iterator@V?$_Vector_val@PAVioMission@@V?$allocator@PAVioMission@@@std@@@std@@@2@V?$_Vector_const_iterator@V?$_Vector_val@PAVioMission@@V?$allocator@PAVioMission@@@std@@@std@@@2@0@Z
_TEXT	SEGMENT
___$ReturnUdt$ = 8					; size = 4
__First_arg$ = 12					; size = 4
__Cat$511271 = 16					; size = 1
__Last_arg$ = 16					; size = 4
?erase@?$vector@PAVioMission@@V?$allocator@PAVioMission@@@std@@@std@@QAE?AV?$_Vector_iterator@V?$_Vector_val@PAVioMission@@V?$allocator@PAVioMission@@@std@@@std@@@2@V?$_Vector_const_iterator@V?$_Vector_val@PAVioMission@@V?$allocator@PAVioMission@@@std@@@std@@@2@0@Z PROC ; std::vector<ioMission *,std::allocator<ioMission *> >::erase, COMDAT
; _this$ = ecx

; 1190 : 		{	// erase [_First, _Last)

  00000	55		 push	 ebp
  00001	8b ec		 mov	 ebp, esp

; 1191 : 		iterator _First = _Make_iter(_First_arg);

  00003	8b 45 0c	 mov	 eax, DWORD PTR __First_arg$[ebp]
  00006	56		 push	 esi
  00007	57		 push	 edi
  00008	8b 7d 08	 mov	 edi, DWORD PTR ___$ReturnUdt$[ebp]
  0000b	8b f1		 mov	 esi, ecx
  0000d	89 07		 mov	 DWORD PTR [edi], eax

; 1192 : 		iterator _Last = _Make_iter(_Last_arg);
; 1193 : 
; 1194 : 		if (_First != _Last)

  0000f	3b 45 10	 cmp	 eax, DWORD PTR __Last_arg$[ebp]
  00012	74 16		 je	 SHORT $LN1@erase

; 1195 : 			{	// worth doing, copy down over hole
; 1196 :  #if _ITERATOR_DEBUG_LEVEL == 2
; 1197 : 			if (_Last < _First || _VICONT(_First) != this
; 1198 : 				|| _VIPTR(_First) < this->_Myfirst
; 1199 : 				|| this->_Mylast < _VIPTR(_Last))
; 1200 : 				_DEBUG_ERROR("vector erase iterator outside range");
; 1201 : 			pointer _Ptr = _Move(_VIPTR(_Last), this->_Mylast,
; 1202 : 				_VIPTR(_First));
; 1203 : 			_Orphan_range(_VIPTR(_First), this->_Mylast);
; 1204 : 
; 1205 :  #else /* _ITERATOR_DEBUG_LEVEL == 2 */
; 1206 : 			pointer _Ptr = _Move(_VIPTR(_Last), this->_Mylast,
; 1207 : 				_VIPTR(_First));

  00014	ff 75 10	 push	 DWORD PTR __Cat$511271[ebp]
  00017	8b 4e 04	 mov	 ecx, DWORD PTR [esi+4]
  0001a	50		 push	 eax
  0001b	51		 push	 ecx
  0001c	ff 75 10	 push	 DWORD PTR __Last_arg$[ebp]
  0001f	e8 00 00 00 00	 call	 ??$_Move@PAPAVioMission@@PAPAV1@@std@@YAPAPAVioMission@@PAPAV1@00U_Scalar_ptr_iterator_tag@0@@Z ; std::_Move<ioMission * *,ioMission * *>
  00024	83 c4 10	 add	 esp, 16			; 00000010H

; 1208 :  #endif /* _ITERATOR_DEBUG_LEVEL == 2 */
; 1209 : 
; 1210 : 			_Destroy(_Ptr, this->_Mylast);
; 1211 : 			this->_Mylast = _Ptr;

  00027	89 46 04	 mov	 DWORD PTR [esi+4], eax
$LN1@erase:

; 1212 : 			}
; 1213 : 		return (_First);

  0002a	8b c7		 mov	 eax, edi
  0002c	5f		 pop	 edi
  0002d	5e		 pop	 esi

; 1214 : 		}

  0002e	5d		 pop	 ebp
  0002f	c2 0c 00	 ret	 12			; 0000000cH
?erase@?$vector@PAVioMission@@V?$allocator@PAVioMission@@@std@@@std@@QAE?AV?$_Vector_iterator@V?$_Vector_val@PAVioMission@@V?$allocator@PAVioMission@@@std@@@std@@@2@V?$_Vector_const_iterator@V?$_Vector_val@PAVioMission@@V?$allocator@PAVioMission@@@std@@@std@@@2@0@Z ENDP ; std::vector<ioMission *,std::allocator<ioMission *> >::erase
_TEXT	ENDS
PUBLIC	?_Tidy@?$vector@PAVioMission@@V?$allocator@PAVioMission@@@std@@@std@@IAEXXZ ; std::vector<ioMission *,std::allocator<ioMission *> >::_Tidy
EXTRN	__imp_?_Orphan_all@_Container_base0@std@@QAEXXZ:PROC
; Function compile flags: /Ogsp
;	COMDAT ?_Tidy@?$vector@PAVioMission@@V?$allocator@PAVioMission@@@std@@@std@@IAEXXZ
_TEXT	SEGMENT
?_Tidy@?$vector@PAVioMission@@V?$allocator@PAVioMission@@@std@@@std@@IAEXXZ PROC ; std::vector<ioMission *,std::allocator<ioMission *> >::_Tidy, COMDAT
; _this$ = ecx

; 1301 : 		{	// free all storage

  00000	56		 push	 esi
  00001	8b f1		 mov	 esi, ecx

; 1302 : 		if (this->_Myfirst != 0)

  00003	83 3e 00	 cmp	 DWORD PTR [esi], 0
  00006	74 0e		 je	 SHORT $LN12@Tidy

; 1303 : 			{	// something to free, destroy and deallocate it
; 1304 : 			this->_Orphan_all();

  00008	ff 15 00 00 00
	00		 call	 DWORD PTR __imp_?_Orphan_all@_Container_base0@std@@QAEXXZ

; 1305 : 			_Destroy(this->_Myfirst, this->_Mylast);
; 1306 : 			this->_Alval.deallocate(this->_Myfirst,
; 1307 : 				this->_Myend - this->_Myfirst);

  0000e	ff 36		 push	 DWORD PTR [esi]
  00010	e8 00 00 00 00	 call	 ??3@YAXPAX@Z		; operator delete
  00015	59		 pop	 ecx
$LN12@Tidy:

; 1308 : 			}
; 1309 : 		this->_Myfirst = 0;

  00016	83 26 00	 and	 DWORD PTR [esi], 0

; 1310 : 		this->_Mylast = 0;

  00019	83 66 04 00	 and	 DWORD PTR [esi+4], 0

; 1311 : 		this->_Myend = 0;

  0001d	83 66 08 00	 and	 DWORD PTR [esi+8], 0
  00021	5e		 pop	 esi

; 1312 : 		}

  00022	c3		 ret	 0
?_Tidy@?$vector@PAVioMission@@V?$allocator@PAVioMission@@@std@@@std@@IAEXXZ ENDP ; std::vector<ioMission *,std::allocator<ioMission *> >::_Tidy
_TEXT	ENDS
PUBLIC	?reserve@?$vector@PAVioMission@@V?$allocator@PAVioMission@@@std@@@std@@QAEXI@Z ; std::vector<ioMission *,std::allocator<ioMission *> >::reserve
; Function compile flags: /Ogsp
;	COMDAT ?reserve@?$vector@PAVioMission@@V?$allocator@PAVioMission@@@std@@@std@@QAEXI@Z
_TEXT	SEGMENT
__Count$ = 8						; size = 4
?reserve@?$vector@PAVioMission@@V?$allocator@PAVioMission@@@std@@@std@@QAEXI@Z PROC ; std::vector<ioMission *,std::allocator<ioMission *> >::reserve, COMDAT
; _this$ = ecx

; 746  : 		{	// determine new minimum length of allocated storage

  00000	55		 push	 ebp
  00001	8b ec		 mov	 ebp, esp

; 747  : 		if (max_size() < _Count)

  00003	81 7d 08 ff ff
	ff 3f		 cmp	 DWORD PTR __Count$[ebp], 1073741823 ; 3fffffffH
  0000a	56		 push	 esi
  0000b	8b f1		 mov	 esi, ecx
  0000d	76 0b		 jbe	 SHORT $LN5@reserve

; 748  : 			_Xlen();	// result too long

  0000f	68 00 00 00 00	 push	 OFFSET ??_C@_0BD@OLBABOEK@vector?$DMT?$DO?5too?5long?$AA@
  00014	ff 15 00 00 00
	00		 call	 DWORD PTR __imp_?_Xlength_error@std@@YAXPBD@Z
$LN43@reserve:
$LN5@reserve:

; 749  : 		else if (capacity() < _Count)

  0001a	8b 46 08	 mov	 eax, DWORD PTR [esi+8]
  0001d	2b 06		 sub	 eax, DWORD PTR [esi]
  0001f	c1 f8 02	 sar	 eax, 2
  00022	3b 45 08	 cmp	 eax, DWORD PTR __Count$[ebp]
  00025	73 52		 jae	 SHORT $LN3@reserve

; 750  : 			{	// not enough room, reallocate
; 751  : 			pointer _Ptr = this->_Alval.allocate(_Count);

  00027	53		 push	 ebx
  00028	57		 push	 edi
  00029	6a 00		 push	 0
  0002b	ff 75 08	 push	 DWORD PTR __Count$[ebp]
  0002e	e8 00 00 00 00	 call	 ??$_Allocate@PAVioMission@@@std@@YAPAPAVioMission@@IPAPAV1@@Z ; std::_Allocate<ioMission *>

; 752  : 
; 753  : 			_TRY_BEGIN
; 754  : 			_Umove(this->_Myfirst, this->_Mylast, _Ptr);

  00033	8b 0e		 mov	 ecx, DWORD PTR [esi]
  00035	8d 56 0c	 lea	 edx, DWORD PTR [esi+12]
  00038	52		 push	 edx
  00039	8b d8		 mov	 ebx, eax
  0003b	8b 46 04	 mov	 eax, DWORD PTR [esi+4]
  0003e	53		 push	 ebx
  0003f	50		 push	 eax
  00040	51		 push	 ecx
  00041	e8 00 00 00 00	 call	 ??$_Uninitialized_move@PAPAVioMission@@PAPAV1@V?$allocator@PAVioMission@@@std@@@std@@YAPAPAVioMission@@PAPAV1@00AAV?$allocator@PAVioMission@@@0@@Z ; std::_Uninitialized_move<ioMission * *,ioMission * *,std::allocator<ioMission *> >

; 755  : 			_CATCH_ALL
; 756  : 			this->_Alval.deallocate(_Ptr, _Count);
; 757  : 			_RERAISE;
; 758  : 			_CATCH_END
; 759  : 
; 760  : 			size_type _Size = size();

  00046	8b 06		 mov	 eax, DWORD PTR [esi]
  00048	8b 7e 04	 mov	 edi, DWORD PTR [esi+4]
  0004b	2b f8		 sub	 edi, eax
  0004d	83 c4 18	 add	 esp, 24			; 00000018H
  00050	c1 ff 02	 sar	 edi, 2

; 761  : 			if (this->_Myfirst != 0)

  00053	85 c0		 test	 eax, eax
  00055	74 07		 je	 SHORT $LN39@reserve

; 762  : 				{	// destroy and deallocate old array
; 763  : 				_Destroy(this->_Myfirst, this->_Mylast);
; 764  : 				this->_Alval.deallocate(this->_Myfirst,
; 765  : 					this->_Myend - this->_Myfirst);

  00057	50		 push	 eax
  00058	e8 00 00 00 00	 call	 ??3@YAXPAX@Z		; operator delete
  0005d	59		 pop	 ecx
$LN39@reserve:

; 766  : 				}
; 767  : 
; 768  : 			this->_Orphan_all();

  0005e	8b ce		 mov	 ecx, esi
  00060	ff 15 00 00 00
	00		 call	 DWORD PTR __imp_?_Orphan_all@_Container_base0@std@@QAEXXZ

; 769  : 			this->_Myend = _Ptr + _Count;

  00066	8b 45 08	 mov	 eax, DWORD PTR __Count$[ebp]
  00069	8d 04 83	 lea	 eax, DWORD PTR [ebx+eax*4]
  0006c	89 46 08	 mov	 DWORD PTR [esi+8], eax

; 770  : 			this->_Mylast = _Ptr + _Size;

  0006f	8d 04 bb	 lea	 eax, DWORD PTR [ebx+edi*4]
  00072	5f		 pop	 edi

; 771  : 			this->_Myfirst = _Ptr;

  00073	89 1e		 mov	 DWORD PTR [esi], ebx
  00075	89 46 04	 mov	 DWORD PTR [esi+4], eax
  00078	5b		 pop	 ebx
$LN3@reserve:
  00079	5e		 pop	 esi

; 772  : 			}
; 773  : 		}

  0007a	5d		 pop	 ebp
  0007b	c2 04 00	 ret	 4
$LN42@reserve:
?reserve@?$vector@PAVioMission@@V?$allocator@PAVioMission@@@std@@@std@@QAEXI@Z ENDP ; std::vector<ioMission *,std::allocator<ioMission *> >::reserve
_TEXT	ENDS
PUBLIC	??$make_heap@PAPAVioMission@@VMissionDataSort@@@std@@YAXPAPAVioMission@@0VMissionDataSort@@@Z ; std::make_heap<ioMission * *,MissionDataSort>
; Function compile flags: /Ogsp
; File c:\program files (x86)\microsoft visual studio 10.0\vc\include\algorithm
;	COMDAT ??$make_heap@PAPAVioMission@@VMissionDataSort@@@std@@YAXPAPAVioMission@@0VMissionDataSort@@@Z
_TEXT	SEGMENT
__First$ = 8						; size = 4
__Last$ = 12						; size = 4
__Pred$ = 16						; size = 1
??$make_heap@PAPAVioMission@@VMissionDataSort@@@std@@YAXPAPAVioMission@@0VMissionDataSort@@@Z PROC ; std::make_heap<ioMission * *,MissionDataSort>, COMDAT

; 2672 : 	{	// make [_First, _Last) into a heap, using _Pred

  00000	55		 push	 ebp
  00001	8b ec		 mov	 ebp, esp

; 2673 : 	_DEBUG_RANGE(_First, _Last);
; 2674 : 	_DEBUG_POINTER(_Pred);
; 2675 : 	if (1 < _Last - _First)

  00003	8b 45 0c	 mov	 eax, DWORD PTR __Last$[ebp]
  00006	2b 45 08	 sub	 eax, DWORD PTR __First$[ebp]
  00009	83 e0 fc	 and	 eax, -4			; fffffffcH
  0000c	83 f8 04	 cmp	 eax, 4
  0000f	7e 15		 jle	 SHORT $LN1@make_heap

; 2676 : 		_Make_heap(_Unchecked(_First), _Unchecked(_Last), _Pred,
; 2677 : 			_Dist_type(_First), _Val_type(_First));

  00011	6a 00		 push	 0
  00013	6a 00		 push	 0
  00015	ff 75 10	 push	 DWORD PTR __Pred$[ebp]
  00018	ff 75 0c	 push	 DWORD PTR __Last$[ebp]
  0001b	ff 75 08	 push	 DWORD PTR __First$[ebp]
  0001e	e8 00 00 00 00	 call	 ??$_Make_heap@PAPAVioMission@@HPAV1@VMissionDataSort@@@std@@YAXPAPAVioMission@@0VMissionDataSort@@PAH0@Z ; std::_Make_heap<ioMission * *,int,ioMission *,MissionDataSort>
  00023	83 c4 14	 add	 esp, 20			; 00000014H
$LN1@make_heap:

; 2678 : 	}

  00026	5d		 pop	 ebp
  00027	c3		 ret	 0
??$make_heap@PAPAVioMission@@VMissionDataSort@@@std@@YAXPAPAVioMission@@0VMissionDataSort@@@Z ENDP ; std::make_heap<ioMission * *,MissionDataSort>
_TEXT	ENDS
PUBLIC	??$_Insertion_sort@PAPAVioMission@@VMissionDataSort@@@std@@YAXPAPAVioMission@@0VMissionDataSort@@@Z ; std::_Insertion_sort<ioMission * *,MissionDataSort>
; Function compile flags: /Ogsp
;	COMDAT ??$_Insertion_sort@PAPAVioMission@@VMissionDataSort@@@std@@YAXPAPAVioMission@@0VMissionDataSort@@@Z
_TEXT	SEGMENT
__First$ = 8						; size = 4
__Last$ = 12						; size = 4
__Pred$ = 16						; size = 1
??$_Insertion_sort@PAPAVioMission@@VMissionDataSort@@@std@@YAXPAPAVioMission@@0VMissionDataSort@@@Z PROC ; std::_Insertion_sort<ioMission * *,MissionDataSort>, COMDAT

; 3676 : 	{	// insertion sort [_First, _Last), using _Pred

  00000	55		 push	 ebp
  00001	8b ec		 mov	 ebp, esp

; 3677 : 	_Insertion_sort1(_First, _Last, _Pred, _Val_type(_First));

  00003	6a 00		 push	 0
  00005	ff 75 10	 push	 DWORD PTR __Pred$[ebp]
  00008	ff 75 0c	 push	 DWORD PTR __Last$[ebp]
  0000b	ff 75 08	 push	 DWORD PTR __First$[ebp]
  0000e	e8 00 00 00 00	 call	 ??$_Insertion_sort1@PAPAVioMission@@VMissionDataSort@@PAV1@@std@@YAXPAPAVioMission@@0VMissionDataSort@@0@Z ; std::_Insertion_sort1<ioMission * *,MissionDataSort,ioMission *>
  00013	83 c4 10	 add	 esp, 16			; 00000010H

; 3678 : 	}

  00016	5d		 pop	 ebp
  00017	c3		 ret	 0
??$_Insertion_sort@PAPAVioMission@@VMissionDataSort@@@std@@YAXPAPAVioMission@@0VMissionDataSort@@@Z ENDP ; std::_Insertion_sort<ioMission * *,MissionDataSort>
_TEXT	ENDS
PUBLIC	??$_Median@PAPAVioMission@@VMissionDataSort@@@std@@YAXPAPAVioMission@@00VMissionDataSort@@@Z ; std::_Median<ioMission * *,MissionDataSort>
; Function compile flags: /Ogsp
;	COMDAT ??$_Median@PAPAVioMission@@VMissionDataSort@@@std@@YAXPAPAVioMission@@00VMissionDataSort@@@Z
_TEXT	SEGMENT
tv200 = 8						; size = 4
__First$ = 8						; size = 4
__Mid$ = 12						; size = 4
tv203 = 16						; size = 4
__Last$ = 16						; size = 4
__Pred$ = 20						; size = 1
??$_Median@PAPAVioMission@@VMissionDataSort@@@std@@YAXPAPAVioMission@@00VMissionDataSort@@@Z PROC ; std::_Median<ioMission * *,MissionDataSort>, COMDAT

; 3695 : 	{	// sort median element to middle

  00000	55		 push	 ebp
  00001	8b ec		 mov	 ebp, esp

; 3696 : 	if (40 < _Last - _First)

  00003	8b 4d 08	 mov	 ecx, DWORD PTR __First$[ebp]
  00006	57		 push	 edi
  00007	8b 7d 10	 mov	 edi, DWORD PTR __Last$[ebp]
  0000a	8b c7		 mov	 eax, edi
  0000c	2b c1		 sub	 eax, ecx
  0000e	c1 f8 02	 sar	 eax, 2
  00011	83 f8 28	 cmp	 eax, 40			; 00000028H
  00014	7e 6a		 jle	 SHORT $LN2@Median

; 3697 : 		{	// median of nine
; 3698 : 		size_t _Step = (_Last - _First + 1) / 8;

  00016	40		 inc	 eax
  00017	99		 cdq
  00018	83 e2 07	 and	 edx, 7
  0001b	53		 push	 ebx
  0001c	03 c2		 add	 eax, edx
  0001e	c1 f8 03	 sar	 eax, 3
  00021	56		 push	 esi

; 3699 : 		_Med3(_First, _First + _Step, _First + 2 * _Step, _Pred);

  00022	ff 75 14	 push	 DWORD PTR __Pred$[ebp]
  00025	8b d8		 mov	 ebx, eax
  00027	8b f0		 mov	 esi, eax
  00029	c1 e3 03	 shl	 ebx, 3
  0002c	8d 14 0b	 lea	 edx, DWORD PTR [ebx+ecx]
  0002f	c1 e6 02	 shl	 esi, 2
  00032	8d 04 0e	 lea	 eax, DWORD PTR [esi+ecx]
  00035	52		 push	 edx
  00036	50		 push	 eax
  00037	51		 push	 ecx
  00038	89 45 08	 mov	 DWORD PTR tv200[ebp], eax
  0003b	e8 00 00 00 00	 call	 ??$_Med3@PAPAVioMission@@VMissionDataSort@@@std@@YAXPAPAVioMission@@00VMissionDataSort@@@Z ; std::_Med3<ioMission * *,MissionDataSort>

; 3700 : 		_Med3(_Mid - _Step, _Mid, _Mid + _Step, _Pred);

  00040	ff 75 14	 push	 DWORD PTR __Pred$[ebp]
  00043	8b 45 0c	 mov	 eax, DWORD PTR __Mid$[ebp]
  00046	8d 0c 06	 lea	 ecx, DWORD PTR [esi+eax]
  00049	51		 push	 ecx
  0004a	50		 push	 eax
  0004b	2b c6		 sub	 eax, esi
  0004d	50		 push	 eax
  0004e	e8 00 00 00 00	 call	 ??$_Med3@PAPAVioMission@@VMissionDataSort@@@std@@YAXPAPAVioMission@@00VMissionDataSort@@@Z ; std::_Med3<ioMission * *,MissionDataSort>

; 3701 : 		_Med3(_Last - 2 * _Step, _Last - _Step, _Last, _Pred);

  00053	ff 75 14	 push	 DWORD PTR __Pred$[ebp]
  00056	89 7d 10	 mov	 DWORD PTR tv203[ebp], edi
  00059	29 75 10	 sub	 DWORD PTR tv203[ebp], esi
  0005c	57		 push	 edi
  0005d	ff 75 10	 push	 DWORD PTR tv203[ebp]
  00060	2b fb		 sub	 edi, ebx
  00062	57		 push	 edi
  00063	e8 00 00 00 00	 call	 ??$_Med3@PAPAVioMission@@VMissionDataSort@@@std@@YAXPAPAVioMission@@00VMissionDataSort@@@Z ; std::_Med3<ioMission * *,MissionDataSort>

; 3702 : 		_Med3(_First + _Step, _Mid, _Last - _Step, _Pred);

  00068	ff 75 14	 push	 DWORD PTR __Pred$[ebp]
  0006b	ff 75 10	 push	 DWORD PTR tv203[ebp]
  0006e	ff 75 0c	 push	 DWORD PTR __Mid$[ebp]
  00071	ff 75 08	 push	 DWORD PTR tv200[ebp]
  00074	e8 00 00 00 00	 call	 ??$_Med3@PAPAVioMission@@VMissionDataSort@@@std@@YAXPAPAVioMission@@00VMissionDataSort@@@Z ; std::_Med3<ioMission * *,MissionDataSort>
  00079	83 c4 40	 add	 esp, 64			; 00000040H
  0007c	5e		 pop	 esi
  0007d	5b		 pop	 ebx

; 3703 : 		}
; 3704 : 	else

  0007e	eb 10		 jmp	 SHORT $LN1@Median
$LN2@Median:

; 3705 : 		_Med3(_First, _Mid, _Last, _Pred);

  00080	ff 75 14	 push	 DWORD PTR __Pred$[ebp]
  00083	57		 push	 edi
  00084	ff 75 0c	 push	 DWORD PTR __Mid$[ebp]
  00087	51		 push	 ecx
  00088	e8 00 00 00 00	 call	 ??$_Med3@PAPAVioMission@@VMissionDataSort@@@std@@YAXPAPAVioMission@@00VMissionDataSort@@@Z ; std::_Med3<ioMission * *,MissionDataSort>
  0008d	83 c4 10	 add	 esp, 16			; 00000010H
$LN1@Median:
  00090	5f		 pop	 edi

; 3706 : 	}

  00091	5d		 pop	 ebp
  00092	c3		 ret	 0
??$_Median@PAPAVioMission@@VMissionDataSort@@@std@@YAXPAPAVioMission@@00VMissionDataSort@@@Z ENDP ; std::_Median<ioMission * *,MissionDataSort>
_TEXT	ENDS
PUBLIC	??$_Pop_heap@PAPAVioMission@@VMissionDataSort@@@std@@YAXPAPAVioMission@@0VMissionDataSort@@@Z ; std::_Pop_heap<ioMission * *,MissionDataSort>
; Function compile flags: /Ogsp
;	COMDAT ??$_Pop_heap@PAPAVioMission@@VMissionDataSort@@@std@@YAXPAPAVioMission@@0VMissionDataSort@@@Z
_TEXT	SEGMENT
__First$ = 8						; size = 4
__Last$ = 12						; size = 4
__Pred$ = 16						; size = 1
??$_Pop_heap@PAPAVioMission@@VMissionDataSort@@@std@@YAXPAPAVioMission@@0VMissionDataSort@@@Z PROC ; std::_Pop_heap<ioMission * *,MissionDataSort>, COMDAT

; 2610 : 	{	// pop *_First to *(_Last - 1) and reheap, using _Pred

  00000	55		 push	 ebp
  00001	8b ec		 mov	 ebp, esp

; 2611 : 	_Pop_heap_0(_Unchecked(_First), _Unchecked(_Last), _Pred,
; 2612 : 		_Val_type(_First));

  00003	6a 00		 push	 0
  00005	ff 75 10	 push	 DWORD PTR __Pred$[ebp]
  00008	ff 75 0c	 push	 DWORD PTR __Last$[ebp]
  0000b	ff 75 08	 push	 DWORD PTR __First$[ebp]
  0000e	e8 00 00 00 00	 call	 ??$_Pop_heap_0@PAPAVioMission@@PAV1@VMissionDataSort@@@std@@YAXPAPAVioMission@@0VMissionDataSort@@0@Z ; std::_Pop_heap_0<ioMission * *,ioMission *,MissionDataSort>
  00013	83 c4 10	 add	 esp, 16			; 00000010H

; 2613 : 	}

  00016	5d		 pop	 ebp
  00017	c3		 ret	 0
??$_Pop_heap@PAPAVioMission@@VMissionDataSort@@@std@@YAXPAPAVioMission@@0VMissionDataSort@@@Z ENDP ; std::_Pop_heap<ioMission * *,MissionDataSort>
_TEXT	ENDS
PUBLIC	??1?$vector@PAVioMission@@V?$allocator@PAVioMission@@@std@@@std@@QAE@XZ ; std::vector<ioMission *,std::allocator<ioMission *> >::~vector<ioMission *,std::allocator<ioMission *> >
; Function compile flags: /Ogsp
; File c:\program files (x86)\microsoft visual studio 10.0\vc\include\vector
;	COMDAT ??1?$vector@PAVioMission@@V?$allocator@PAVioMission@@@std@@@std@@QAE@XZ
_TEXT	SEGMENT
??1?$vector@PAVioMission@@V?$allocator@PAVioMission@@@std@@@std@@QAE@XZ PROC ; std::vector<ioMission *,std::allocator<ioMission *> >::~vector<ioMission *,std::allocator<ioMission *> >, COMDAT
; _this$ = ecx

; 705  : 		_Tidy();

  00000	e9 00 00 00 00	 jmp	 ?_Tidy@?$vector@PAVioMission@@V?$allocator@PAVioMission@@@std@@@std@@IAEXXZ ; std::vector<ioMission *,std::allocator<ioMission *> >::_Tidy
??1?$vector@PAVioMission@@V?$allocator@PAVioMission@@@std@@@std@@QAE@XZ ENDP ; std::vector<ioMission *,std::allocator<ioMission *> >::~vector<ioMission *,std::allocator<ioMission *> >
_TEXT	ENDS
PUBLIC	?clear@?$vector@PAVioMission@@V?$allocator@PAVioMission@@@std@@@std@@QAEXXZ ; std::vector<ioMission *,std::allocator<ioMission *> >::clear
; Function compile flags: /Ogsp
;	COMDAT ?clear@?$vector@PAVioMission@@V?$allocator@PAVioMission@@@std@@@std@@QAEXXZ
_TEXT	SEGMENT
$T511466 = -4						; size = 4
?clear@?$vector@PAVioMission@@V?$allocator@PAVioMission@@@std@@@std@@QAEXXZ PROC ; std::vector<ioMission *,std::allocator<ioMission *> >::clear, COMDAT
; _this$ = ecx

; 1217 : 		{	// erase all

  00000	55		 push	 ebp
  00001	8b ec		 mov	 ebp, esp
  00003	51		 push	 ecx

; 1218 : 		erase(begin(), end());

  00004	8b 41 04	 mov	 eax, DWORD PTR [ecx+4]
  00007	8b 11		 mov	 edx, DWORD PTR [ecx]
  00009	50		 push	 eax
  0000a	52		 push	 edx
  0000b	8d 45 fc	 lea	 eax, DWORD PTR $T511466[ebp]
  0000e	50		 push	 eax
  0000f	e8 00 00 00 00	 call	 ?erase@?$vector@PAVioMission@@V?$allocator@PAVioMission@@@std@@@std@@QAE?AV?$_Vector_iterator@V?$_Vector_val@PAVioMission@@V?$allocator@PAVioMission@@@std@@@std@@@2@V?$_Vector_const_iterator@V?$_Vector_val@PAVioMission@@V?$allocator@PAVioMission@@@std@@@std@@@2@0@Z ; std::vector<ioMission *,std::allocator<ioMission *> >::erase

; 1219 : 		}

  00014	c9		 leave
  00015	c3		 ret	 0
?clear@?$vector@PAVioMission@@V?$allocator@PAVioMission@@@std@@@std@@QAEXXZ ENDP ; std::vector<ioMission *,std::allocator<ioMission *> >::clear
_TEXT	ENDS
PUBLIC	?_Reserve@?$vector@PAVioMission@@V?$allocator@PAVioMission@@@std@@@std@@IAEXI@Z ; std::vector<ioMission *,std::allocator<ioMission *> >::_Reserve
; Function compile flags: /Ogsp
;	COMDAT ?_Reserve@?$vector@PAVioMission@@V?$allocator@PAVioMission@@@std@@@std@@IAEXI@Z
_TEXT	SEGMENT
__Count$ = 8						; size = 4
?_Reserve@?$vector@PAVioMission@@V?$allocator@PAVioMission@@@std@@@std@@IAEXI@Z PROC ; std::vector<ioMission *,std::allocator<ioMission *> >::_Reserve, COMDAT
; _this$ = ecx

; 1290 : 		{	// ensure room for _Count new elements, grow exponentially

  00000	55		 push	 ebp
  00001	8b ec		 mov	 ebp, esp
  00003	56		 push	 esi
  00004	8b f1		 mov	 esi, ecx

; 1291 : 		size_type _Size = size();

  00006	8b 0e		 mov	 ecx, DWORD PTR [esi]
  00008	8b 46 04	 mov	 eax, DWORD PTR [esi+4]
  0000b	2b c1		 sub	 eax, ecx

; 1292 : 		if (max_size() - _Count < _Size)

  0000d	ba ff ff ff 3f	 mov	 edx, 1073741823		; 3fffffffH
  00012	2b 55 08	 sub	 edx, DWORD PTR __Count$[ebp]
  00015	c1 f8 02	 sar	 eax, 2
  00018	3b d0		 cmp	 edx, eax
  0001a	73 0b		 jae	 SHORT $LN4@Reserve

; 1293 : 			_Xlen();

  0001c	68 00 00 00 00	 push	 OFFSET ??_C@_0BD@OLBABOEK@vector?$DMT?$DO?5too?5long?$AA@
  00021	ff 15 00 00 00
	00		 call	 DWORD PTR __imp_?_Xlength_error@std@@YAXPBD@Z
$LN21@Reserve:
$LN4@Reserve:

; 1294 : 		else if ((_Size += _Count) <= capacity())

  00027	8b 56 08	 mov	 edx, DWORD PTR [esi+8]
  0002a	03 45 08	 add	 eax, DWORD PTR __Count$[ebp]
  0002d	2b d1		 sub	 edx, ecx
  0002f	c1 fa 02	 sar	 edx, 2
  00032	3b c2		 cmp	 eax, edx
  00034	76 10		 jbe	 SHORT $LN1@Reserve

; 1295 : 			;
; 1296 : 		else
; 1297 : 			reserve(_Grow_to(_Size));

  00036	50		 push	 eax
  00037	8b ce		 mov	 ecx, esi
  00039	e8 00 00 00 00	 call	 ?_Grow_to@?$vector@PAVioMission@@V?$allocator@PAVioMission@@@std@@@std@@IBEII@Z ; std::vector<ioMission *,std::allocator<ioMission *> >::_Grow_to
  0003e	50		 push	 eax
  0003f	8b ce		 mov	 ecx, esi
  00041	e8 00 00 00 00	 call	 ?reserve@?$vector@PAVioMission@@V?$allocator@PAVioMission@@@std@@@std@@QAEXI@Z ; std::vector<ioMission *,std::allocator<ioMission *> >::reserve
$LN1@Reserve:
  00046	5e		 pop	 esi

; 1298 : 		}

  00047	5d		 pop	 ebp
  00048	c2 04 00	 ret	 4
$LN20@Reserve:
?_Reserve@?$vector@PAVioMission@@V?$allocator@PAVioMission@@@std@@@std@@IAEXI@Z ENDP ; std::vector<ioMission *,std::allocator<ioMission *> >::_Reserve
_TEXT	ENDS
PUBLIC	??$_Unguarded_partition@PAPAVioMission@@VMissionDataSort@@@std@@YA?AU?$pair@PAPAVioMission@@PAPAV1@@0@PAPAVioMission@@0VMissionDataSort@@@Z ; std::_Unguarded_partition<ioMission * *,MissionDataSort>
; Function compile flags: /Ogsp
; File c:\program files (x86)\microsoft visual studio 10.0\vc\include\algorithm
;	COMDAT ??$_Unguarded_partition@PAPAVioMission@@VMissionDataSort@@@std@@YA?AU?$pair@PAPAVioMission@@PAPAV1@@0@PAPAVioMission@@0VMissionDataSort@@@Z
_TEXT	SEGMENT
tv291 = -8						; size = 4
tv266 = -8						; size = 4
__Tmp$511702 = -8					; size = 4
__Glast$ = -4						; size = 4
___$ReturnUdt$ = 8					; size = 4
__First$ = 12						; size = 4
__Last$ = 16						; size = 4
__Pred$ = 20						; size = 1
??$_Unguarded_partition@PAPAVioMission@@VMissionDataSort@@@std@@YA?AU?$pair@PAPAVioMission@@PAPAV1@@0@PAPAVioMission@@0VMissionDataSort@@@Z PROC ; std::_Unguarded_partition<ioMission * *,MissionDataSort>, COMDAT

; 3712 : 	{	// partition [_First, _Last), using _Pred

  00000	55		 push	 ebp
  00001	8b ec		 mov	 ebp, esp
  00003	51		 push	 ecx
  00004	51		 push	 ecx

; 3713 : 	_RanIt _Mid = _First + (_Last - _First) / 2;

  00005	8b 4d 10	 mov	 ecx, DWORD PTR __Last$[ebp]
  00008	53		 push	 ebx
  00009	56		 push	 esi
  0000a	57		 push	 edi
  0000b	8b 7d 0c	 mov	 edi, DWORD PTR __First$[ebp]

; 3714 : 	_Median(_First, _Mid, _Last - 1, _Pred);

  0000e	ff 75 14	 push	 DWORD PTR __Pred$[ebp]
  00011	8b c1		 mov	 eax, ecx
  00013	2b c7		 sub	 eax, edi
  00015	c1 f8 02	 sar	 eax, 2
  00018	99		 cdq
  00019	2b c2		 sub	 eax, edx
  0001b	d1 f8		 sar	 eax, 1
  0001d	83 c1 fc	 add	 ecx, -4			; fffffffcH
  00020	51		 push	 ecx
  00021	8d 34 87	 lea	 esi, DWORD PTR [edi+eax*4]
  00024	56		 push	 esi
  00025	57		 push	 edi
  00026	e8 00 00 00 00	 call	 ??$_Median@PAPAVioMission@@VMissionDataSort@@@std@@YAXPAPAVioMission@@00VMissionDataSort@@@Z ; std::_Median<ioMission * *,MissionDataSort>
  0002b	83 c4 10	 add	 esp, 16			; 00000010H

; 3715 : 	_RanIt _Pfirst = _Mid;
; 3716 : 	_RanIt _Plast = _Pfirst + 1;

  0002e	8d 5e 04	 lea	 ebx, DWORD PTR [esi+4]
  00031	eb 2c		 jmp	 SHORT $LN130@Unguarded_
$LL27@Unguarded_:

; 3717 : 
; 3718 : 	while (_First < _Pfirst
; 3719 : 		&& !_DEBUG_LT_PRED(_Pred, *(_Pfirst - 1), *_Pfirst)
; 3720 : 		&& !_Pred(*_Pfirst, *(_Pfirst - 1)))

  00033	ff 36		 push	 DWORD PTR [esi]
  00035	8d 46 fc	 lea	 eax, DWORD PTR [esi-4]
  00038	ff 30		 push	 DWORD PTR [eax]
  0003a	8d 4d 14	 lea	 ecx, DWORD PTR __Pred$[ebp]
  0003d	89 45 f8	 mov	 DWORD PTR tv266[ebp], eax
  00040	e8 00 00 00 00	 call	 ??RMissionDataSort@@QBE_NPBVioMission@@0@Z ; MissionDataSort::operator()
  00045	84 c0		 test	 al, al
  00047	75 3f		 jne	 SHORT $LN131@Unguarded_
  00049	8b 45 f8	 mov	 eax, DWORD PTR tv266[ebp]
  0004c	ff 30		 push	 DWORD PTR [eax]
  0004e	8d 4d 14	 lea	 ecx, DWORD PTR __Pred$[ebp]
  00051	ff 36		 push	 DWORD PTR [esi]
  00053	e8 00 00 00 00	 call	 ??RMissionDataSort@@QBE_NPBVioMission@@0@Z ; MissionDataSort::operator()
  00058	84 c0		 test	 al, al
  0005a	75 2c		 jne	 SHORT $LN131@Unguarded_

; 3721 : 		--_Pfirst;

  0005c	8b 75 f8	 mov	 esi, DWORD PTR tv266[ebp]
$LN130@Unguarded_:

; 3717 : 
; 3718 : 	while (_First < _Pfirst
; 3719 : 		&& !_DEBUG_LT_PRED(_Pred, *(_Pfirst - 1), *_Pfirst)
; 3720 : 		&& !_Pred(*_Pfirst, *(_Pfirst - 1)))

  0005f	3b fe		 cmp	 edi, esi
  00061	72 d0		 jb	 SHORT $LL27@Unguarded_

; 3725 : 		++_Plast;

  00063	eb 23		 jmp	 SHORT $LN131@Unguarded_
$LL25@Unguarded_:

; 3722 : 	while (_Plast < _Last
; 3723 : 		&& !_DEBUG_LT_PRED(_Pred, *_Plast, *_Pfirst)
; 3724 : 		&& !_Pred(*_Pfirst, *_Plast))

  00065	ff 36		 push	 DWORD PTR [esi]
  00067	8d 4d 14	 lea	 ecx, DWORD PTR __Pred$[ebp]
  0006a	ff 33		 push	 DWORD PTR [ebx]
  0006c	e8 00 00 00 00	 call	 ??RMissionDataSort@@QBE_NPBVioMission@@0@Z ; MissionDataSort::operator()
  00071	84 c0		 test	 al, al
  00073	75 18		 jne	 SHORT $LN24@Unguarded_
  00075	ff 33		 push	 DWORD PTR [ebx]
  00077	8d 4d 14	 lea	 ecx, DWORD PTR __Pred$[ebp]
  0007a	ff 36		 push	 DWORD PTR [esi]
  0007c	e8 00 00 00 00	 call	 ??RMissionDataSort@@QBE_NPBVioMission@@0@Z ; MissionDataSort::operator()
  00081	84 c0		 test	 al, al
  00083	75 08		 jne	 SHORT $LN24@Unguarded_

; 3725 : 		++_Plast;

  00085	83 c3 04	 add	 ebx, 4
$LN131@Unguarded_:

; 3722 : 	while (_Plast < _Last
; 3723 : 		&& !_DEBUG_LT_PRED(_Pred, *_Plast, *_Pfirst)
; 3724 : 		&& !_Pred(*_Pfirst, *_Plast))

  00088	3b 5d 10	 cmp	 ebx, DWORD PTR __Last$[ebp]
  0008b	72 d8		 jb	 SHORT $LL25@Unguarded_
$LN24@Unguarded_:

; 3726 : 
; 3727 : 	_RanIt _Gfirst = _Plast;

  0008d	8b fb		 mov	 edi, ebx

; 3728 : 	_RanIt _Glast = _Pfirst;

  0008f	89 75 fc	 mov	 DWORD PTR __Glast$[ebp], esi

; 3729 : 
; 3730 : 	for (; ; )
; 3731 : 		{	// partition
; 3732 : 		for (; _Gfirst < _Last; ++_Gfirst)

  00092	eb 30		 jmp	 SHORT $LN132@Unguarded_
$LL21@Unguarded_:

; 3733 : 			if (_DEBUG_LT_PRED(_Pred, *_Pfirst, *_Gfirst))

  00094	ff 37		 push	 DWORD PTR [edi]
  00096	8d 4d 14	 lea	 ecx, DWORD PTR __Pred$[ebp]
  00099	ff 36		 push	 DWORD PTR [esi]
  0009b	e8 00 00 00 00	 call	 ??RMissionDataSort@@QBE_NPBVioMission@@0@Z ; MissionDataSort::operator()
  000a0	84 c0		 test	 al, al
  000a2	75 1d		 jne	 SHORT $LN20@Unguarded_

; 3734 : 				;
; 3735 : 			else if (_Pred(*_Gfirst, *_Pfirst))

  000a4	ff 36		 push	 DWORD PTR [esi]
  000a6	8d 4d 14	 lea	 ecx, DWORD PTR __Pred$[ebp]
  000a9	ff 37		 push	 DWORD PTR [edi]
  000ab	e8 00 00 00 00	 call	 ??RMissionDataSort@@QBE_NPBVioMission@@0@Z ; MissionDataSort::operator()
  000b0	84 c0		 test	 al, al
  000b2	75 15		 jne	 SHORT $LN126@Unguarded_

; 3736 : 				break;
; 3737 : 			else
; 3738 : 				_STD iter_swap(_Plast++, _Gfirst);

  000b4	8b 17		 mov	 edx, DWORD PTR [edi]
  000b6	8b c3		 mov	 eax, ebx
  000b8	8b 08		 mov	 ecx, DWORD PTR [eax]
  000ba	89 10		 mov	 DWORD PTR [eax], edx
  000bc	89 0f		 mov	 DWORD PTR [edi], ecx
$LN133@Unguarded_:
  000be	83 c3 04	 add	 ebx, 4
$LN20@Unguarded_:

; 3729 : 
; 3730 : 	for (; ; )
; 3731 : 		{	// partition
; 3732 : 		for (; _Gfirst < _Last; ++_Gfirst)

  000c1	83 c7 04	 add	 edi, 4
$LN132@Unguarded_:
  000c4	3b 7d 10	 cmp	 edi, DWORD PTR __Last$[ebp]
  000c7	72 cb		 jb	 SHORT $LL21@Unguarded_
$LN126@Unguarded_:

; 3739 : 		for (; _First < _Glast; --_Glast)

  000c9	8b 45 0c	 mov	 eax, DWORD PTR __First$[ebp]
  000cc	3b 45 fc	 cmp	 eax, DWORD PTR __Glast$[ebp]
  000cf	73 47		 jae	 SHORT $LN129@Unguarded_
$LL127@Unguarded_:
  000d1	8b 45 fc	 mov	 eax, DWORD PTR __Glast$[ebp]

; 3740 : 			if (_DEBUG_LT_PRED(_Pred, *(_Glast - 1), *_Pfirst))

  000d4	ff 36		 push	 DWORD PTR [esi]
  000d6	83 c0 fc	 add	 eax, -4			; fffffffcH
  000d9	ff 30		 push	 DWORD PTR [eax]
  000db	8d 4d 14	 lea	 ecx, DWORD PTR __Pred$[ebp]
  000de	89 45 f8	 mov	 DWORD PTR tv291[ebp], eax
  000e1	e8 00 00 00 00	 call	 ??RMissionDataSort@@QBE_NPBVioMission@@0@Z ; MissionDataSort::operator()
  000e6	84 c0		 test	 al, al
  000e8	75 23		 jne	 SHORT $LN128@Unguarded_

; 3741 : 				;
; 3742 : 			else if (_Pred(*_Pfirst, *(_Glast - 1)))

  000ea	8b 45 f8	 mov	 eax, DWORD PTR tv291[ebp]
  000ed	ff 30		 push	 DWORD PTR [eax]
  000ef	8d 4d 14	 lea	 ecx, DWORD PTR __Pred$[ebp]
  000f2	ff 36		 push	 DWORD PTR [esi]
  000f4	e8 00 00 00 00	 call	 ??RMissionDataSort@@QBE_NPBVioMission@@0@Z ; MissionDataSort::operator()
  000f9	84 c0		 test	 al, al
  000fb	75 1b		 jne	 SHORT $LN129@Unguarded_

; 3743 : 				break;
; 3744 : 			else
; 3745 : 				_STD iter_swap(--_Pfirst, _Glast - 1);

  000fd	8b 4d f8	 mov	 ecx, DWORD PTR tv291[ebp]
  00100	8b 11		 mov	 edx, DWORD PTR [ecx]
  00102	83 ee 04	 sub	 esi, 4
  00105	8b 06		 mov	 eax, DWORD PTR [esi]
  00107	89 16		 mov	 DWORD PTR [esi], edx
  00109	89 01		 mov	 DWORD PTR [ecx], eax
  0010b	eb 03		 jmp	 SHORT $LN13@Unguarded_
$LN128@Unguarded_:
  0010d	8b 4d f8	 mov	 ecx, DWORD PTR tv291[ebp]
$LN13@Unguarded_:

; 3739 : 		for (; _First < _Glast; --_Glast)

  00110	89 4d fc	 mov	 DWORD PTR __Glast$[ebp], ecx
  00113	39 4d 0c	 cmp	 DWORD PTR __First$[ebp], ecx
  00116	72 b9		 jb	 SHORT $LL127@Unguarded_
$LN129@Unguarded_:

; 3746 : 		if (_Glast == _First && _Gfirst == _Last)

  00118	8b 4d fc	 mov	 ecx, DWORD PTR __Glast$[ebp]
  0011b	3b 4d 0c	 cmp	 ecx, DWORD PTR __First$[ebp]
  0011e	75 2b		 jne	 SHORT $LN6@Unguarded_
  00120	3b 7d 10	 cmp	 edi, DWORD PTR __Last$[ebp]
  00123	74 5d		 je	 SHORT $LN120@Unguarded_

; 3748 : 
; 3749 : 		if (_Glast == _First)
; 3750 : 			{	// no room at bottom, rotate pivot upward
; 3751 : 			if (_Plast != _Gfirst)

  00125	3b df		 cmp	 ebx, edi
  00127	74 08		 je	 SHORT $LN64@Unguarded_

; 3752 : 				_STD iter_swap(_Pfirst, _Plast);

  00129	8b 0b		 mov	 ecx, DWORD PTR [ebx]
  0012b	8b 06		 mov	 eax, DWORD PTR [esi]
  0012d	89 0e		 mov	 DWORD PTR [esi], ecx
  0012f	89 03		 mov	 DWORD PTR [ebx], eax
$LN64@Unguarded_:

; 3753 : 			++_Plast;
; 3754 : 			_STD iter_swap(_Pfirst++, _Gfirst++);

  00131	8b ce		 mov	 ecx, esi
  00133	8b 11		 mov	 edx, DWORD PTR [ecx]
  00135	8b c7		 mov	 eax, edi
  00137	89 55 f8	 mov	 DWORD PTR __Tmp$511702[ebp], edx
  0013a	8b 10		 mov	 edx, DWORD PTR [eax]
  0013c	89 11		 mov	 DWORD PTR [ecx], edx
  0013e	8b 4d f8	 mov	 ecx, DWORD PTR __Tmp$511702[ebp]
  00141	83 c6 04	 add	 esi, 4
  00144	89 08		 mov	 DWORD PTR [eax], ecx
  00146	e9 73 ff ff ff	 jmp	 $LN133@Unguarded_
$LN6@Unguarded_:

; 3755 : 			}
; 3756 : 		else if (_Gfirst == _Last)
; 3757 : 			{	// no room at top, rotate pivot downward
; 3758 : 			if (--_Glast != --_Pfirst)

  0014b	83 e9 04	 sub	 ecx, 4
  0014e	89 4d fc	 mov	 DWORD PTR __Glast$[ebp], ecx
  00151	3b 7d 10	 cmp	 edi, DWORD PTR __Last$[ebp]
  00154	75 1f		 jne	 SHORT $LN3@Unguarded_
  00156	83 ee 04	 sub	 esi, 4
  00159	3b ce		 cmp	 ecx, esi
  0015b	74 08		 je	 SHORT $LN84@Unguarded_

; 3759 : 				_STD iter_swap(_Glast, _Pfirst);

  0015d	8b 16		 mov	 edx, DWORD PTR [esi]
  0015f	8b 01		 mov	 eax, DWORD PTR [ecx]
  00161	89 11		 mov	 DWORD PTR [ecx], edx
  00163	89 06		 mov	 DWORD PTR [esi], eax
$LN84@Unguarded_:

; 3760 : 			_STD iter_swap(_Pfirst, --_Plast);

  00165	8b 06		 mov	 eax, DWORD PTR [esi]
  00167	83 eb 04	 sub	 ebx, 4
  0016a	8b 0b		 mov	 ecx, DWORD PTR [ebx]
  0016c	89 0e		 mov	 DWORD PTR [esi], ecx
  0016e	89 03		 mov	 DWORD PTR [ebx], eax

; 3761 : 			}
; 3762 : 		else

  00170	e9 4f ff ff ff	 jmp	 $LN132@Unguarded_
$LN3@Unguarded_:

; 3763 : 			_STD iter_swap(_Gfirst++, --_Glast);

  00175	8b 11		 mov	 edx, DWORD PTR [ecx]
  00177	8b 07		 mov	 eax, DWORD PTR [edi]
  00179	89 17		 mov	 DWORD PTR [edi], edx
  0017b	89 01		 mov	 DWORD PTR [ecx], eax

; 3764 : 		}

  0017d	e9 3f ff ff ff	 jmp	 $LN20@Unguarded_
$LN120@Unguarded_:

; 3747 : 			return (_STD pair<_RanIt, _RanIt>(_Pfirst, _Plast));

  00182	8b 45 08	 mov	 eax, DWORD PTR ___$ReturnUdt$[ebp]
  00185	5f		 pop	 edi
  00186	89 30		 mov	 DWORD PTR [eax], esi
  00188	5e		 pop	 esi
  00189	89 58 04	 mov	 DWORD PTR [eax+4], ebx
  0018c	5b		 pop	 ebx

; 3765 : 	}

  0018d	c9		 leave
  0018e	c3		 ret	 0
??$_Unguarded_partition@PAPAVioMission@@VMissionDataSort@@@std@@YA?AU?$pair@PAPAVioMission@@PAPAV1@@0@PAPAVioMission@@0VMissionDataSort@@@Z ENDP ; std::_Unguarded_partition<ioMission * *,MissionDataSort>
_TEXT	ENDS
PUBLIC	??$_Sort_heap@PAPAVioMission@@VMissionDataSort@@@std@@YAXPAPAVioMission@@0VMissionDataSort@@@Z ; std::_Sort_heap<ioMission * *,MissionDataSort>
; Function compile flags: /Ogsp
;	COMDAT ??$_Sort_heap@PAPAVioMission@@VMissionDataSort@@@std@@YAXPAPAVioMission@@0VMissionDataSort@@@Z
_TEXT	SEGMENT
__First$ = 8						; size = 4
__Last$ = 12						; size = 4
__Pred$ = 16						; size = 1
??$_Sort_heap@PAPAVioMission@@VMissionDataSort@@@std@@YAXPAPAVioMission@@0VMissionDataSort@@@Z PROC ; std::_Sort_heap<ioMission * *,MissionDataSort>, COMDAT

; 2700 : 	{	// order heap by repeatedly popping, using _Pred

  00000	55		 push	 ebp
  00001	8b ec		 mov	 ebp, esp

; 2701 : 	for (; 1 < _Last - _First; --_Last)

  00003	8b 45 0c	 mov	 eax, DWORD PTR __Last$[ebp]
  00006	2b 45 08	 sub	 eax, DWORD PTR __First$[ebp]
  00009	8b c8		 mov	 ecx, eax
  0000b	83 e1 fc	 and	 ecx, -4			; fffffffcH
  0000e	83 f9 04	 cmp	 ecx, 4
  00011	7e 28		 jle	 SHORT $LN1@Sort_heap
  00013	57		 push	 edi
  00014	8b f8		 mov	 edi, eax
$LL3@Sort_heap:

; 2702 : 		_Pop_heap(_First, _Last, _Pred);

  00016	6a 00		 push	 0
  00018	ff 75 10	 push	 DWORD PTR __Pred$[ebp]
  0001b	ff 75 0c	 push	 DWORD PTR __Last$[ebp]
  0001e	ff 75 08	 push	 DWORD PTR __First$[ebp]
  00021	e8 00 00 00 00	 call	 ??$_Pop_heap_0@PAPAVioMission@@PAV1@VMissionDataSort@@@std@@YAXPAPAVioMission@@0VMissionDataSort@@0@Z ; std::_Pop_heap_0<ioMission * *,ioMission *,MissionDataSort>
  00026	83 6d 0c 04	 sub	 DWORD PTR __Last$[ebp], 4
  0002a	83 ef 04	 sub	 edi, 4
  0002d	8b c7		 mov	 eax, edi
  0002f	83 e0 fc	 and	 eax, -4			; fffffffcH
  00032	83 c4 10	 add	 esp, 16			; 00000010H
  00035	83 f8 04	 cmp	 eax, 4
  00038	7f dc		 jg	 SHORT $LL3@Sort_heap
  0003a	5f		 pop	 edi
$LN1@Sort_heap:

; 2703 : 	}

  0003b	5d		 pop	 ebp
  0003c	c3		 ret	 0
??$_Sort_heap@PAPAVioMission@@VMissionDataSort@@@std@@YAXPAPAVioMission@@0VMissionDataSort@@@Z ENDP ; std::_Sort_heap<ioMission * *,MissionDataSort>
_TEXT	ENDS
PUBLIC	??_7ioMissionManager@@6B@			; ioMissionManager::`vftable'
PUBLIC	??0ioMissionManager@@QAE@XZ			; ioMissionManager::ioMissionManager
PUBLIC	??_R4ioMissionManager@@6B@			; ioMissionManager::`RTTI Complete Object Locator'
PUBLIC	??_R0?AVioMissionManager@@@8			; ioMissionManager `RTTI Type Descriptor'
PUBLIC	??_R3ioMissionManager@@8			; ioMissionManager::`RTTI Class Hierarchy Descriptor'
PUBLIC	??_R2ioMissionManager@@8			; ioMissionManager::`RTTI Base Class Array'
PUBLIC	??_R1A@?0A@EA@ioMissionManager@@8		; ioMissionManager::`RTTI Base Class Descriptor at (0,-1,0,64)'
PUBLIC	??_R13?0A@EA@?$Singleton@VioMissionManager@@@@8	; Singleton<ioMissionManager>::`RTTI Base Class Descriptor at (4,-1,0,64)'
PUBLIC	??_R0?AV?$Singleton@VioMissionManager@@@@@8	; Singleton<ioMissionManager> `RTTI Type Descriptor'
PUBLIC	??_R3?$Singleton@VioMissionManager@@@@8		; Singleton<ioMissionManager>::`RTTI Class Hierarchy Descriptor'
PUBLIC	??_R2?$Singleton@VioMissionManager@@@@8		; Singleton<ioMissionManager>::`RTTI Base Class Array'
PUBLIC	??_R1A@?0A@EA@?$Singleton@VioMissionManager@@@@8 ; Singleton<ioMissionManager>::`RTTI Base Class Descriptor at (0,-1,0,64)'
EXTRN	??_M@YGXPAXIHP6EX0@Z@Z:PROC			; `eh vector destructor iterator'
EXTRN	??_L@YGXPAXIHP6EX0@Z1@Z:PROC			; `eh vector constructor iterator'
EXTRN	??_EioMissionManager@@UAEPAXI@Z:PROC		; ioMissionManager::`vector deleting destructor'
;	COMDAT ??_R1A@?0A@EA@?$Singleton@VioMissionManager@@@@8
; File c:\program files (x86)\microsoft visual studio 10.0\vc\atlmfc\include\atltime.inl
rdata$r	SEGMENT
??_R1A@?0A@EA@?$Singleton@VioMissionManager@@@@8 DD FLAT:??_R0?AV?$Singleton@VioMissionManager@@@@@8 ; Singleton<ioMissionManager>::`RTTI Base Class Descriptor at (0,-1,0,64)'
	DD	00H
	DD	00H
	DD	0ffffffffH
	DD	00H
	DD	040H
	DD	FLAT:??_R3?$Singleton@VioMissionManager@@@@8
rdata$r	ENDS
;	COMDAT ??_R2?$Singleton@VioMissionManager@@@@8
rdata$r	SEGMENT
??_R2?$Singleton@VioMissionManager@@@@8 DD FLAT:??_R1A@?0A@EA@?$Singleton@VioMissionManager@@@@8 ; Singleton<ioMissionManager>::`RTTI Base Class Array'
rdata$r	ENDS
;	COMDAT ??_R3?$Singleton@VioMissionManager@@@@8
rdata$r	SEGMENT
??_R3?$Singleton@VioMissionManager@@@@8 DD 00H		; Singleton<ioMissionManager>::`RTTI Class Hierarchy Descriptor'
	DD	00H
	DD	01H
	DD	FLAT:??_R2?$Singleton@VioMissionManager@@@@8
rdata$r	ENDS
;	COMDAT ??_R0?AV?$Singleton@VioMissionManager@@@@@8
_DATA	SEGMENT
??_R0?AV?$Singleton@VioMissionManager@@@@@8 DD FLAT:??_7type_info@@6B@ ; Singleton<ioMissionManager> `RTTI Type Descriptor'
	DD	00H
	DB	'.?AV?$Singleton@VioMissionManager@@@@', 00H
_DATA	ENDS
;	COMDAT ??_R13?0A@EA@?$Singleton@VioMissionManager@@@@8
rdata$r	SEGMENT
??_R13?0A@EA@?$Singleton@VioMissionManager@@@@8 DD FLAT:??_R0?AV?$Singleton@VioMissionManager@@@@@8 ; Singleton<ioMissionManager>::`RTTI Base Class Descriptor at (4,-1,0,64)'
	DD	00H
	DD	04H
	DD	0ffffffffH
	DD	00H
	DD	040H
	DD	FLAT:??_R3?$Singleton@VioMissionManager@@@@8
rdata$r	ENDS
;	COMDAT ??_R1A@?0A@EA@ioMissionManager@@8
rdata$r	SEGMENT
??_R1A@?0A@EA@ioMissionManager@@8 DD FLAT:??_R0?AVioMissionManager@@@8 ; ioMissionManager::`RTTI Base Class Descriptor at (0,-1,0,64)'
	DD	01H
	DD	00H
	DD	0ffffffffH
	DD	00H
	DD	040H
	DD	FLAT:??_R3ioMissionManager@@8
rdata$r	ENDS
;	COMDAT ??_R2ioMissionManager@@8
rdata$r	SEGMENT
??_R2ioMissionManager@@8 DD FLAT:??_R1A@?0A@EA@ioMissionManager@@8 ; ioMissionManager::`RTTI Base Class Array'
	DD	FLAT:??_R13?0A@EA@?$Singleton@VioMissionManager@@@@8
rdata$r	ENDS
;	COMDAT ??_R3ioMissionManager@@8
rdata$r	SEGMENT
??_R3ioMissionManager@@8 DD 00H				; ioMissionManager::`RTTI Class Hierarchy Descriptor'
	DD	00H
	DD	02H
	DD	FLAT:??_R2ioMissionManager@@8
rdata$r	ENDS
;	COMDAT ??_R0?AVioMissionManager@@@8
_DATA	SEGMENT
??_R0?AVioMissionManager@@@8 DD FLAT:??_7type_info@@6B@	; ioMissionManager `RTTI Type Descriptor'
	DD	00H
	DB	'.?AVioMissionManager@@', 00H
_DATA	ENDS
;	COMDAT ??_R4ioMissionManager@@6B@
rdata$r	SEGMENT
??_R4ioMissionManager@@6B@ DD 00H			; ioMissionManager::`RTTI Complete Object Locator'
	DD	00H
	DD	00H
	DD	FLAT:??_R0?AVioMissionManager@@@8
	DD	FLAT:??_R3ioMissionManager@@8
rdata$r	ENDS
;	COMDAT ??_7ioMissionManager@@6B@
CONST	SEGMENT
??_7ioMissionManager@@6B@ DD FLAT:??_R4ioMissionManager@@6B@ ; ioMissionManager::`vftable'
	DD	FLAT:??_EioMissionManager@@UAEPAXI@Z
CONST	ENDS
;	COMDAT xdata$x
xdata$x	SEGMENT
__unwindtable$??0ioMissionManager@@QAE@XZ DD 0ffffffffH
	DD	FLAT:__unwindfunclet$??0ioMissionManager@@QAE@XZ$0
	DD	00H
	DD	FLAT:__unwindfunclet$??0ioMissionManager@@QAE@XZ$1
__ehfuncinfo$??0ioMissionManager@@QAE@XZ DD 019930522H
	DD	02H
	DD	FLAT:__unwindtable$??0ioMissionManager@@QAE@XZ
	DD	2 DUP(00H)
	DD	2 DUP(00H)
	DD	00H
	DD	01H
; Function compile flags: /Ogsp
; File d:\lost saga for developer\youtube\tutorial\source\src\lsclient\iomissionmanager.cpp
xdata$x	ENDS
;	COMDAT ??0ioMissionManager@@QAE@XZ
_TEXT	SEGMENT
_this$ = -16						; size = 4
__$EHRec$ = -12						; size = 12
??0ioMissionManager@@QAE@XZ PROC			; ioMissionManager::ioMissionManager, COMDAT
; _this$ = ecx

; 11   : {

  00000	6a 04		 push	 4
  00002	b8 00 00 00 00	 mov	 eax, __ehhandler$??0ioMissionManager@@QAE@XZ
  00007	e8 00 00 00 00	 call	 __EH_prolog3
  0000c	8b f1		 mov	 esi, ecx
  0000e	89 75 f0	 mov	 DWORD PTR _this$[ebp], esi
  00011	8d 46 04	 lea	 eax, DWORD PTR [esi+4]
  00014	8d 48 fc	 lea	 ecx, DWORD PTR [eax-4]
  00017	89 0d 00 00 00
	00		 mov	 DWORD PTR ?ms_Singleton@?$Singleton@VioMissionManager@@@@1PAVioMissionManager@@A, ecx ; Singleton<ioMissionManager>::ms_Singleton
  0001d	83 65 fc 00	 and	 DWORD PTR __$EHRec$[ebp+8], 0
  00021	bb 00 00 00 00	 mov	 ebx, OFFSET ??1?$vector@PAVioMission@@V?$allocator@PAVioMission@@@std@@@std@@QAE@XZ ; std::vector<ioMission *,std::allocator<ioMission *> >::~vector<ioMission *,std::allocator<ioMission *> >
  00026	53		 push	 ebx
  00027	bf 00 00 00 00	 mov	 edi, OFFSET ??0?$vector@PAVioMission@@V?$allocator@PAVioMission@@@std@@@std@@QAE@XZ ; std::vector<ioMission *,std::allocator<ioMission *> >::vector<ioMission *,std::allocator<ioMission *> >
  0002c	57		 push	 edi
  0002d	6a 03		 push	 3
  0002f	6a 10		 push	 16			; 00000010H
  00031	50		 push	 eax
  00032	c7 06 00 00 00
	00		 mov	 DWORD PTR [esi], OFFSET ??_7ioMissionManager@@6B@
  00038	e8 00 00 00 00	 call	 ??_L@YGXPAXIHP6EX0@Z1@Z
  0003d	53		 push	 ebx
  0003e	57		 push	 edi
  0003f	6a 03		 push	 3
  00041	6a 10		 push	 16			; 00000010H
  00043	8d 46 34	 lea	 eax, DWORD PTR [esi+52]
  00046	50		 push	 eax
  00047	c6 45 fc 01	 mov	 BYTE PTR __$EHRec$[ebp+8], 1
  0004b	e8 00 00 00 00	 call	 ??_L@YGXPAXIHP6EX0@Z1@Z
  00050	33 c0		 xor	 eax, eax
  00052	89 46 64	 mov	 DWORD PTR [esi+100], eax
  00055	89 46 68	 mov	 DWORD PTR [esi+104], eax
  00058	88 46 6c	 mov	 BYTE PTR [esi+108], al
  0005b	89 46 70	 mov	 DWORD PTR [esi+112], eax
  0005e	c7 46 74 60 ea
	00 00		 mov	 DWORD PTR [esi+116], 60000 ; 0000ea60H

; 12   : }

  00065	8b c6		 mov	 eax, esi
  00067	e8 00 00 00 00	 call	 __EH_epilog3
  0006c	c3		 ret	 0
_TEXT	ENDS
;	COMDAT text$x
text$x	SEGMENT
__unwindfunclet$??0ioMissionManager@@QAE@XZ$0:
  00000	8b 4d f0	 mov	 ecx, DWORD PTR _this$[ebp]
  00003	83 c1 04	 add	 ecx, 4
  00006	e9 00 00 00 00	 jmp	 ??1?$Singleton@VioMissionManager@@@@QAE@XZ ; Singleton<ioMissionManager>::~Singleton<ioMissionManager>
__unwindfunclet$??0ioMissionManager@@QAE@XZ$1:
  0000b	68 00 00 00 00	 push	 OFFSET ??1?$vector@PAVioMission@@V?$allocator@PAVioMission@@@std@@@std@@QAE@XZ ; std::vector<ioMission *,std::allocator<ioMission *> >::~vector<ioMission *,std::allocator<ioMission *> >
  00010	6a 03		 push	 3
  00012	6a 10		 push	 16			; 00000010H
  00014	8b 45 f0	 mov	 eax, DWORD PTR _this$[ebp]
  00017	83 c0 04	 add	 eax, 4
  0001a	50		 push	 eax
  0001b	e8 00 00 00 00	 call	 ??_M@YGXPAXIHP6EX0@Z@Z
  00020	c3		 ret	 0
__ehhandler$??0ioMissionManager@@QAE@XZ:
  00021	8b 54 24 08	 mov	 edx, DWORD PTR [esp+8]
  00025	8d 42 0c	 lea	 eax, DWORD PTR [edx+12]
  00028	8b 4a ec	 mov	 ecx, DWORD PTR [edx-20]
  0002b	33 c8		 xor	 ecx, eax
  0002d	e8 00 00 00 00	 call	 @__security_check_cookie@4
  00032	b8 00 00 00 00	 mov	 eax, OFFSET __ehfuncinfo$??0ioMissionManager@@QAE@XZ
  00037	e9 00 00 00 00	 jmp	 ___CxxFrameHandler3
text$x	ENDS
??0ioMissionManager@@QAE@XZ ENDP			; ioMissionManager::ioMissionManager
PUBLIC	?ClreaAllMissionList@ioMissionManager@@IAEXXZ	; ioMissionManager::ClreaAllMissionList
; Function compile flags: /Ogsp
;	COMDAT ?ClreaAllMissionList@ioMissionManager@@IAEXXZ
_TEXT	SEGMENT
$T511962 = -8						; size = 4
tv69 = -4						; size = 4
?ClreaAllMissionList@ioMissionManager@@IAEXXZ PROC	; ioMissionManager::ClreaAllMissionList, COMDAT
; _this$ = ecx

; 26   : {

  00000	55		 push	 ebp
  00001	8b ec		 mov	 ebp, esp
  00003	51		 push	 ecx
  00004	51		 push	 ecx
  00005	53		 push	 ebx
  00006	56		 push	 esi
  00007	57		 push	 edi

; 27   : 	for ( int iType = MDT_DAILY ; iType<MDT_MAX ; ++iType)

  00008	8d 71 34	 lea	 esi, DWORD PTR [ecx+52]
  0000b	c7 45 fc 03 00
	00 00		 mov	 DWORD PTR tv69[ebp], 3
$LL7@ClreaAllMi:

; 28   : 	{
; 29   : 		for ( int i=0 ; i<(int)m_AllDayMissionList[iType].size() ; ++i )

  00012	8b 46 04	 mov	 eax, DWORD PTR [esi+4]
  00015	2b 06		 sub	 eax, DWORD PTR [esi]
  00017	33 ff		 xor	 edi, edi
  00019	a9 fc ff ff ff	 test	 eax, -4			; fffffffcH
  0001e	7e 31		 jle	 SHORT $LN2@ClreaAllMi
$LL45@ClreaAllMi:
  00020	8b 06		 mov	 eax, DWORD PTR [esi]
  00022	8d 04 b8	 lea	 eax, DWORD PTR [eax+edi*4]

; 30   : 			SAFEDELETE( m_AllDayMissionList[iType][i] );

  00025	83 38 00	 cmp	 DWORD PTR [eax], 0
  00028	74 1a		 je	 SHORT $LN3@ClreaAllMi
  0002a	8b 18		 mov	 ebx, DWORD PTR [eax]
  0002c	85 db		 test	 ebx, ebx
  0002e	74 0e		 je	 SHORT $LN18@ClreaAllMi
  00030	8b cb		 mov	 ecx, ebx
  00032	e8 00 00 00 00	 call	 ??1ioMission@@QAE@XZ	; ioMission::~ioMission
  00037	53		 push	 ebx
  00038	e8 00 00 00 00	 call	 ??3@YAXPAX@Z		; operator delete
  0003d	59		 pop	 ecx
$LN18@ClreaAllMi:
  0003e	8b 06		 mov	 eax, DWORD PTR [esi]
  00040	83 24 b8 00	 and	 DWORD PTR [eax+edi*4], 0
$LN3@ClreaAllMi:

; 28   : 	{
; 29   : 		for ( int i=0 ; i<(int)m_AllDayMissionList[iType].size() ; ++i )

  00044	8b 46 04	 mov	 eax, DWORD PTR [esi+4]
  00047	2b 06		 sub	 eax, DWORD PTR [esi]
  00049	47		 inc	 edi
  0004a	c1 f8 02	 sar	 eax, 2
  0004d	3b f8		 cmp	 edi, eax
  0004f	7c cf		 jl	 SHORT $LL45@ClreaAllMi
$LN2@ClreaAllMi:

; 31   : 		m_AllDayMissionList[iType].clear();

  00051	8b 46 04	 mov	 eax, DWORD PTR [esi+4]
  00054	8b 0e		 mov	 ecx, DWORD PTR [esi]
  00056	50		 push	 eax
  00057	51		 push	 ecx
  00058	8d 45 f8	 lea	 eax, DWORD PTR $T511962[ebp]
  0005b	50		 push	 eax
  0005c	8b ce		 mov	 ecx, esi
  0005e	e8 00 00 00 00	 call	 ?erase@?$vector@PAVioMission@@V?$allocator@PAVioMission@@@std@@@std@@QAE?AV?$_Vector_iterator@V?$_Vector_val@PAVioMission@@V?$allocator@PAVioMission@@@std@@@std@@@2@V?$_Vector_const_iterator@V?$_Vector_val@PAVioMission@@V?$allocator@PAVioMission@@@std@@@std@@@2@0@Z ; std::vector<ioMission *,std::allocator<ioMission *> >::erase
  00063	83 c6 10	 add	 esi, 16			; 00000010H
  00066	ff 4d fc	 dec	 DWORD PTR tv69[ebp]
  00069	75 a7		 jne	 SHORT $LL7@ClreaAllMi
  0006b	5f		 pop	 edi
  0006c	5e		 pop	 esi
  0006d	5b		 pop	 ebx

; 32   : 	}
; 33   : }

  0006e	c9		 leave
  0006f	c3		 ret	 0
?ClreaAllMissionList@ioMissionManager@@IAEXXZ ENDP	; ioMissionManager::ClreaAllMissionList
_TEXT	ENDS
PUBLIC	?ClreaCurMissionList@ioMissionManager@@IAEXXZ	; ioMissionManager::ClreaCurMissionList
; Function compile flags: /Ogsp
;	COMDAT ?ClreaCurMissionList@ioMissionManager@@IAEXXZ
_TEXT	SEGMENT
$T512069 = -8						; size = 4
tv69 = -4						; size = 4
?ClreaCurMissionList@ioMissionManager@@IAEXXZ PROC	; ioMissionManager::ClreaCurMissionList, COMDAT
; _this$ = ecx

; 36   : {

  00000	55		 push	 ebp
  00001	8b ec		 mov	 ebp, esp
  00003	51		 push	 ecx
  00004	51		 push	 ecx
  00005	53		 push	 ebx
  00006	56		 push	 esi
  00007	57		 push	 edi

; 37   : 	for ( int iType = MDT_DAILY ; iType<MDT_MAX ; ++iType)

  00008	8d 71 04	 lea	 esi, DWORD PTR [ecx+4]
  0000b	c7 45 fc 03 00
	00 00		 mov	 DWORD PTR tv69[ebp], 3
$LL7@ClreaCurMi:

; 38   : 	{
; 39   : 		for ( int i=0 ; i<(int)m_CurDayMissionList[iType].size() ; ++i )

  00012	8b 46 04	 mov	 eax, DWORD PTR [esi+4]
  00015	2b 06		 sub	 eax, DWORD PTR [esi]
  00017	33 ff		 xor	 edi, edi
  00019	a9 fc ff ff ff	 test	 eax, -4			; fffffffcH
  0001e	7e 31		 jle	 SHORT $LN2@ClreaCurMi
$LL45@ClreaCurMi:
  00020	8b 06		 mov	 eax, DWORD PTR [esi]
  00022	8d 04 b8	 lea	 eax, DWORD PTR [eax+edi*4]

; 40   : 			SAFEDELETE( m_CurDayMissionList[iType][i] );

  00025	83 38 00	 cmp	 DWORD PTR [eax], 0
  00028	74 1a		 je	 SHORT $LN3@ClreaCurMi
  0002a	8b 18		 mov	 ebx, DWORD PTR [eax]
  0002c	85 db		 test	 ebx, ebx
  0002e	74 0e		 je	 SHORT $LN18@ClreaCurMi
  00030	8b cb		 mov	 ecx, ebx
  00032	e8 00 00 00 00	 call	 ??1ioMission@@QAE@XZ	; ioMission::~ioMission
  00037	53		 push	 ebx
  00038	e8 00 00 00 00	 call	 ??3@YAXPAX@Z		; operator delete
  0003d	59		 pop	 ecx
$LN18@ClreaCurMi:
  0003e	8b 06		 mov	 eax, DWORD PTR [esi]
  00040	83 24 b8 00	 and	 DWORD PTR [eax+edi*4], 0
$LN3@ClreaCurMi:

; 38   : 	{
; 39   : 		for ( int i=0 ; i<(int)m_CurDayMissionList[iType].size() ; ++i )

  00044	8b 46 04	 mov	 eax, DWORD PTR [esi+4]
  00047	2b 06		 sub	 eax, DWORD PTR [esi]
  00049	47		 inc	 edi
  0004a	c1 f8 02	 sar	 eax, 2
  0004d	3b f8		 cmp	 edi, eax
  0004f	7c cf		 jl	 SHORT $LL45@ClreaCurMi
$LN2@ClreaCurMi:

; 41   : 		m_CurDayMissionList[iType].clear();

  00051	8b 46 04	 mov	 eax, DWORD PTR [esi+4]
  00054	8b 0e		 mov	 ecx, DWORD PTR [esi]
  00056	50		 push	 eax
  00057	51		 push	 ecx
  00058	8d 45 f8	 lea	 eax, DWORD PTR $T512069[ebp]
  0005b	50		 push	 eax
  0005c	8b ce		 mov	 ecx, esi
  0005e	e8 00 00 00 00	 call	 ?erase@?$vector@PAVioMission@@V?$allocator@PAVioMission@@@std@@@std@@QAE?AV?$_Vector_iterator@V?$_Vector_val@PAVioMission@@V?$allocator@PAVioMission@@@std@@@std@@@2@V?$_Vector_const_iterator@V?$_Vector_val@PAVioMission@@V?$allocator@PAVioMission@@@std@@@std@@@2@0@Z ; std::vector<ioMission *,std::allocator<ioMission *> >::erase
  00063	83 c6 10	 add	 esi, 16			; 00000010H
  00066	ff 4d fc	 dec	 DWORD PTR tv69[ebp]
  00069	75 a7		 jne	 SHORT $LL7@ClreaCurMi
  0006b	5f		 pop	 edi
  0006c	5e		 pop	 esi
  0006d	5b		 pop	 ebx

; 42   : 	}
; 43   : }

  0006e	c9		 leave
  0006f	c3		 ret	 0
?ClreaCurMissionList@ioMissionManager@@IAEXXZ ENDP	; ioMissionManager::ClreaCurMissionList
_TEXT	ENDS
PUBLIC	?push_back@?$vector@PAVioMission@@V?$allocator@PAVioMission@@@std@@@std@@QAEXABQAVioMission@@@Z ; std::vector<ioMission *,std::allocator<ioMission *> >::push_back
; Function compile flags: /Ogsp
; File c:\program files (x86)\microsoft visual studio 10.0\vc\include\vector
;	COMDAT ?push_back@?$vector@PAVioMission@@V?$allocator@PAVioMission@@@std@@@std@@QAEXABQAVioMission@@@Z
_TEXT	SEGMENT
__Val$ = 8						; size = 4
?push_back@?$vector@PAVioMission@@V?$allocator@PAVioMission@@@std@@@std@@QAEXABQAVioMission@@@Z PROC ; std::vector<ioMission *,std::allocator<ioMission *> >::push_back, COMDAT
; _this$ = ecx

; 976  : 		{	// insert element at end

  00000	55		 push	 ebp
  00001	8b ec		 mov	 ebp, esp
  00003	56		 push	 esi
  00004	8b f1		 mov	 esi, ecx

; 977  : 		if (_Inside(_STD addressof(_Val)))

  00006	8b 46 04	 mov	 eax, DWORD PTR [esi+4]
  00009	57		 push	 edi
  0000a	8b 7d 08	 mov	 edi, DWORD PTR __Val$[ebp]
  0000d	3b f8		 cmp	 edi, eax
  0000f	73 27		 jae	 SHORT $LN4@push_back
  00011	8b 0e		 mov	 ecx, DWORD PTR [esi]
  00013	3b cf		 cmp	 ecx, edi
  00015	77 21		 ja	 SHORT $LN4@push_back

; 978  : 			{	// push back an element
; 979  : 			size_type _Idx = _STD addressof(_Val) - this->_Myfirst;

  00017	2b f9		 sub	 edi, ecx
  00019	c1 ff 02	 sar	 edi, 2

; 980  : 			if (this->_Mylast == this->_Myend)

  0001c	3b 46 08	 cmp	 eax, DWORD PTR [esi+8]
  0001f	75 09		 jne	 SHORT $LN3@push_back

; 981  : 				_Reserve(1);

  00021	6a 01		 push	 1
  00023	8b ce		 mov	 ecx, esi
  00025	e8 00 00 00 00	 call	 ?_Reserve@?$vector@PAVioMission@@V?$allocator@PAVioMission@@@std@@@std@@IAEXI@Z ; std::vector<ioMission *,std::allocator<ioMission *> >::_Reserve
$LN3@push_back:

; 982  : 			_Orphan_range(this->_Mylast, this->_Mylast);
; 983  : 			_Cons_val(this->_Alval,
; 984  : 				this->_Mylast,
; 985  : 				this->_Myfirst[_Idx]);

  0002a	8b 46 04	 mov	 eax, DWORD PTR [esi+4]
  0002d	85 c0		 test	 eax, eax
  0002f	74 20		 je	 SHORT $LN39@push_back
  00031	8b 0e		 mov	 ecx, DWORD PTR [esi]
  00033	8b 0c b9	 mov	 ecx, DWORD PTR [ecx+edi*4]

; 986  : 			++this->_Mylast;
; 987  : 			}
; 988  : 		else

  00036	eb 17		 jmp	 SHORT $LN46@push_back
$LN4@push_back:

; 989  : 			{	// push back a non-element
; 990  : 			if (this->_Mylast == this->_Myend)

  00038	3b 46 08	 cmp	 eax, DWORD PTR [esi+8]
  0003b	75 09		 jne	 SHORT $LN1@push_back

; 991  : 				_Reserve(1);

  0003d	6a 01		 push	 1
  0003f	8b ce		 mov	 ecx, esi
  00041	e8 00 00 00 00	 call	 ?_Reserve@?$vector@PAVioMission@@V?$allocator@PAVioMission@@@std@@@std@@IAEXI@Z ; std::vector<ioMission *,std::allocator<ioMission *> >::_Reserve
$LN1@push_back:

; 992  : 			_Orphan_range(this->_Mylast, this->_Mylast);
; 993  : 			_Cons_val(this->_Alval,
; 994  : 				this->_Mylast,
; 995  : 				_Val);

  00046	8b 46 04	 mov	 eax, DWORD PTR [esi+4]
  00049	85 c0		 test	 eax, eax
  0004b	74 04		 je	 SHORT $LN39@push_back
  0004d	8b 0f		 mov	 ecx, DWORD PTR [edi]
$LN46@push_back:
  0004f	89 08		 mov	 DWORD PTR [eax], ecx
$LN39@push_back:

; 996  : 			++this->_Mylast;

  00051	83 46 04 04	 add	 DWORD PTR [esi+4], 4
  00055	5f		 pop	 edi
  00056	5e		 pop	 esi

; 997  : 			}
; 998  : 		}

  00057	5d		 pop	 ebp
  00058	c2 04 00	 ret	 4
?push_back@?$vector@PAVioMission@@V?$allocator@PAVioMission@@@std@@@std@@QAEXABQAVioMission@@@Z ENDP ; std::vector<ioMission *,std::allocator<ioMission *> >::push_back
_TEXT	ENDS
PUBLIC	??$sort_heap@PAPAVioMission@@VMissionDataSort@@@std@@YAXPAPAVioMission@@0VMissionDataSort@@@Z ; std::sort_heap<ioMission * *,MissionDataSort>
; Function compile flags: /Ogsp
; File c:\program files (x86)\microsoft visual studio 10.0\vc\include\algorithm
;	COMDAT ??$sort_heap@PAPAVioMission@@VMissionDataSort@@@std@@YAXPAPAVioMission@@0VMissionDataSort@@@Z
_TEXT	SEGMENT
__First$ = 8						; size = 4
__Last$ = 12						; size = 4
__Pred$ = 16						; size = 1
??$sort_heap@PAPAVioMission@@VMissionDataSort@@@std@@YAXPAPAVioMission@@0VMissionDataSort@@@Z PROC ; std::sort_heap<ioMission * *,MissionDataSort>, COMDAT

; 2708 : 	{	// order heap by repeatedly popping, using _Pred

  00000	55		 push	 ebp
  00001	8b ec		 mov	 ebp, esp

; 2709 : 	_DEBUG_RANGE(_First, _Last);
; 2710 : 	_DEBUG_POINTER(_Pred);
; 2711 : 	_DEBUG_HEAP_PRED(_First, _Last, _Pred);
; 2712 : 	_Sort_heap(_Unchecked(_First), _Unchecked(_Last), _Pred);

  00003	ff 75 10	 push	 DWORD PTR __Pred$[ebp]
  00006	ff 75 0c	 push	 DWORD PTR __Last$[ebp]
  00009	ff 75 08	 push	 DWORD PTR __First$[ebp]
  0000c	e8 00 00 00 00	 call	 ??$_Sort_heap@PAPAVioMission@@VMissionDataSort@@@std@@YAXPAPAVioMission@@0VMissionDataSort@@@Z ; std::_Sort_heap<ioMission * *,MissionDataSort>
  00011	83 c4 0c	 add	 esp, 12			; 0000000cH

; 2713 : 	}

  00014	5d		 pop	 ebp
  00015	c3		 ret	 0
??$sort_heap@PAPAVioMission@@VMissionDataSort@@@std@@YAXPAPAVioMission@@0VMissionDataSort@@@Z ENDP ; std::sort_heap<ioMission * *,MissionDataSort>
_TEXT	ENDS
PUBLIC	??1ioMissionManager@@UAE@XZ			; ioMissionManager::~ioMissionManager
;	COMDAT xdata$x
; File d:\lost saga for developer\youtube\tutorial\source\src\io3dengine\iosingleton.h
xdata$x	SEGMENT
__unwindtable$??1ioMissionManager@@UAE@XZ DD 0ffffffffH
	DD	FLAT:__unwindfunclet$??1ioMissionManager@@UAE@XZ$0
	DD	00H
	DD	FLAT:__unwindfunclet$??1ioMissionManager@@UAE@XZ$1
	DD	01H
	DD	FLAT:__unwindfunclet$??1ioMissionManager@@UAE@XZ$2
__ehfuncinfo$??1ioMissionManager@@UAE@XZ DD 019930522H
	DD	03H
	DD	FLAT:__unwindtable$??1ioMissionManager@@UAE@XZ
	DD	2 DUP(00H)
	DD	2 DUP(00H)
	DD	00H
	DD	01H
; Function compile flags: /Ogsp
; File d:\lost saga for developer\youtube\tutorial\source\src\lsclient\iomissionmanager.cpp
xdata$x	ENDS
;	COMDAT ??1ioMissionManager@@UAE@XZ
_TEXT	SEGMENT
_this$ = -16						; size = 4
__$EHRec$ = -12						; size = 12
??1ioMissionManager@@UAE@XZ PROC			; ioMissionManager::~ioMissionManager, COMDAT
; _this$ = ecx

; 15   : {

  00000	6a 04		 push	 4
  00002	b8 00 00 00 00	 mov	 eax, __ehhandler$??1ioMissionManager@@UAE@XZ
  00007	e8 00 00 00 00	 call	 __EH_prolog3
  0000c	8b f1		 mov	 esi, ecx
  0000e	89 75 f0	 mov	 DWORD PTR _this$[ebp], esi
  00011	c7 06 00 00 00
	00		 mov	 DWORD PTR [esi], OFFSET ??_7ioMissionManager@@6B@
  00017	c7 45 fc 02 00
	00 00		 mov	 DWORD PTR __$EHRec$[ebp+8], 2

; 16   : 	ClreaAllMissionList();

  0001e	e8 00 00 00 00	 call	 ?ClreaAllMissionList@ioMissionManager@@IAEXXZ ; ioMissionManager::ClreaAllMissionList

; 17   : 	ClreaCurMissionList();

  00023	8b ce		 mov	 ecx, esi
  00025	e8 00 00 00 00	 call	 ?ClreaCurMissionList@ioMissionManager@@IAEXXZ ; ioMissionManager::ClreaCurMissionList

; 18   : }

  0002a	bf 00 00 00 00	 mov	 edi, OFFSET ??1?$vector@PAVioMission@@V?$allocator@PAVioMission@@@std@@@std@@QAE@XZ ; std::vector<ioMission *,std::allocator<ioMission *> >::~vector<ioMission *,std::allocator<ioMission *> >
  0002f	57		 push	 edi
  00030	6a 03		 push	 3
  00032	6a 10		 push	 16			; 00000010H
  00034	8d 46 34	 lea	 eax, DWORD PTR [esi+52]
  00037	50		 push	 eax
  00038	c6 45 fc 01	 mov	 BYTE PTR __$EHRec$[ebp+8], 1
  0003c	e8 00 00 00 00	 call	 ??_M@YGXPAXIHP6EX0@Z@Z
  00041	57		 push	 edi
  00042	6a 03		 push	 3
  00044	6a 10		 push	 16			; 00000010H
  00046	83 c6 04	 add	 esi, 4
  00049	56		 push	 esi
  0004a	c6 45 fc 00	 mov	 BYTE PTR __$EHRec$[ebp+8], 0
  0004e	e8 00 00 00 00	 call	 ??_M@YGXPAXIHP6EX0@Z@Z
  00053	83 25 00 00 00
	00 00		 and	 DWORD PTR ?ms_Singleton@?$Singleton@VioMissionManager@@@@1PAVioMissionManager@@A, 0 ; Singleton<ioMissionManager>::ms_Singleton
  0005a	e8 00 00 00 00	 call	 __EH_epilog3
  0005f	c3		 ret	 0
_TEXT	ENDS
;	COMDAT text$x
text$x	SEGMENT
__unwindfunclet$??1ioMissionManager@@UAE@XZ$0:
  00000	8b 4d f0	 mov	 ecx, DWORD PTR _this$[ebp]
  00003	83 c1 04	 add	 ecx, 4
  00006	e9 00 00 00 00	 jmp	 ??1?$Singleton@VioMissionManager@@@@QAE@XZ ; Singleton<ioMissionManager>::~Singleton<ioMissionManager>
__unwindfunclet$??1ioMissionManager@@UAE@XZ$1:
  0000b	68 00 00 00 00	 push	 OFFSET ??1?$vector@PAVioMission@@V?$allocator@PAVioMission@@@std@@@std@@QAE@XZ ; std::vector<ioMission *,std::allocator<ioMission *> >::~vector<ioMission *,std::allocator<ioMission *> >
  00010	6a 03		 push	 3
  00012	6a 10		 push	 16			; 00000010H
  00014	8b 45 f0	 mov	 eax, DWORD PTR _this$[ebp]
  00017	83 c0 04	 add	 eax, 4
  0001a	50		 push	 eax
  0001b	e8 00 00 00 00	 call	 ??_M@YGXPAXIHP6EX0@Z@Z
  00020	c3		 ret	 0
__unwindfunclet$??1ioMissionManager@@UAE@XZ$2:
  00021	68 00 00 00 00	 push	 OFFSET ??1?$vector@PAVioMission@@V?$allocator@PAVioMission@@@std@@@std@@QAE@XZ ; std::vector<ioMission *,std::allocator<ioMission *> >::~vector<ioMission *,std::allocator<ioMission *> >
  00026	6a 03		 push	 3
  00028	6a 10		 push	 16			; 00000010H
  0002a	8b 45 f0	 mov	 eax, DWORD PTR _this$[ebp]
  0002d	83 c0 34	 add	 eax, 52			; 00000034H
  00030	50		 push	 eax
  00031	e8 00 00 00 00	 call	 ??_M@YGXPAXIHP6EX0@Z@Z
  00036	c3		 ret	 0
__ehhandler$??1ioMissionManager@@UAE@XZ:
  00037	8b 54 24 08	 mov	 edx, DWORD PTR [esp+8]
  0003b	8d 42 0c	 lea	 eax, DWORD PTR [edx+12]
  0003e	8b 4a ec	 mov	 ecx, DWORD PTR [edx-20]
  00041	33 c8		 xor	 ecx, eax
  00043	e8 00 00 00 00	 call	 @__security_check_cookie@4
  00048	b8 00 00 00 00	 mov	 eax, OFFSET __ehfuncinfo$??1ioMissionManager@@UAE@XZ
  0004d	e9 00 00 00 00	 jmp	 ___CxxFrameHandler3
text$x	ENDS
??1ioMissionManager@@UAE@XZ ENDP			; ioMissionManager::~ioMissionManager
PUBLIC	_this$GSCopy$
PUBLIC	?Initialize@ioMissionManager@@QAEXXZ		; ioMissionManager::Initialize
EXTRN	__imp_?SetTitle@ioINILoader@@QAEXPBD@Z:PROC
EXTRN	__EH_epilog3_GS:PROC
EXTRN	__EH_prolog3_GS:PROC
;	COMDAT xdata$x
xdata$x	SEGMENT
__unwindtable$?Initialize@ioMissionManager@@QAEXXZ DD 0ffffffffH
	DD	FLAT:__unwindfunclet$?Initialize@ioMissionManager@@QAEXXZ$0
__ehfuncinfo$?Initialize@ioMissionManager@@QAEXXZ DD 019930522H
	DD	01H
	DD	FLAT:__unwindtable$?Initialize@ioMissionManager@@QAEXXZ
	DD	2 DUP(00H)
	DD	2 DUP(00H)
	DD	00H
	DD	01H
; Function compile flags: /Ogsp
xdata$x	ENDS
;	COMDAT ?Initialize@ioMissionManager@@QAEXXZ
_TEXT	SEGMENT
_this$GSCopy$ = -1548					; size = 4
_pMission$507376 = -1544				; size = 4
_iType$507375 = -1544					; size = 4
_iDate$506896 = -1540					; size = 4
_iDateType$506879 = -1536				; size = 4
_iCode$507065 = -1532					; size = 4
_kLoader$ = -1528					; size = 912
_szInIKey$ = -616					; size = 260
_szBuf$ = -356						; size = 260
__k$512754 = -96					; size = 11
___encStr$507381 = -80					; size = 10
___encStr$506903 = -64					; size = 7
__f$512617 = -52					; size = 31
__f$512492 = -52					; size = 30
___encStr$507226 = -36					; size = 15
___encStr$507072 = -36					; size = 15
__$EHRec$ = -12						; size = 12
?Initialize@ioMissionManager@@QAEXXZ PROC		; ioMissionManager::Initialize, COMDAT
; _this$ = ecx

; 46   : {

  00000	68 00 06 00 00	 push	 1536			; 00000600H
  00005	b8 00 00 00 00	 mov	 eax, __ehhandler$?Initialize@ioMissionManager@@QAEXXZ
  0000a	e8 00 00 00 00	 call	 __EH_prolog3_GS

; 47   : 	char szBuf[MAX_PATH],szInIKey[MAX_PATH];
; 48   : 	enum{ MAX_DATE = 1000, MAX_MISSION_CODE = 1000, };
; 49   : 	ioINILoader_e kLoader( "config/sp2_daily_mission.ini" );

  0000f	33 db		 xor	 ebx, ebx
  00011	6a 07		 push	 7
  00013	89 8d f4 f9 ff
	ff		 mov	 DWORD PTR _this$GSCopy$[ebp], ecx
  00019	c7 85 58 fd ff
	ff 8e 83 85 8c	 mov	 DWORD PTR _kLoader$[ebp+848], -1937407090 ; 8c85838eH
  00023	c7 85 5c fd ff
	ff 84 8b c4 99	 mov	 DWORD PTR _kLoader$[ebp+852], -1715172476 ; 99c48b84H
  0002d	c7 85 60 fd ff
	ff 9d de b4 8e	 mov	 DWORD PTR _kLoader$[ebp+856], -1900749155 ; 8eb4de9dH
  00037	c7 85 64 fd ff
	ff 8c 85 87 93	 mov	 DWORD PTR _kLoader$[ebp+860], -1819834996 ; 9387858cH
  00041	c7 85 68 fd ff
	ff b2 81 82 99	 mov	 DWORD PTR _kLoader$[ebp+864], -1719500366 ; 998281b2H
  0004b	c7 85 6c fd ff
	ff 9e 85 84 84	 mov	 DWORD PTR _kLoader$[ebp+868], -2071689826 ; 8484859eH
  00055	c7 85 70 fd ff
	ff c3 85 85 83	 mov	 DWORD PTR _kLoader$[ebp+872], -2088401469 ; 838585c3H
  0005f	8d 85 58 fd ff
	ff		 lea	 eax, DWORD PTR _kLoader$[ebp+848]
  00065	88 9d 74 fd ff
	ff		 mov	 BYTE PTR _kLoader$[ebp+876], bl
  0006b	59		 pop	 ecx
  0006c	bf ed ec eb ea	 mov	 edi, -353637139		; eaebecedH
$LL521@Initialize:
  00071	31 38		 xor	 DWORD PTR [eax], edi
  00073	83 c0 04	 add	 eax, 4
  00076	49		 dec	 ecx
  00077	75 f8		 jne	 SHORT $LL521@Initialize
  00079	6a 01		 push	 1
  0007b	8d 85 58 fd ff
	ff		 lea	 eax, DWORD PTR _kLoader$[ebp+848]
  00081	50		 push	 eax
  00082	8d 8d 08 fa ff
	ff		 lea	 ecx, DWORD PTR _kLoader$[ebp]
  00088	ff 15 00 00 00
	00		 call	 DWORD PTR __imp_??0ioINILoader@@QAE@PBD_N@Z
  0008e	89 5d fc	 mov	 DWORD PTR __$EHRec$[ebp+8], ebx

; 50   : 	for ( int iDateType = MDT_DAILY ; iDateType<MDT_MAX ; ++iDateType )

  00091	89 9d 00 fa ff
	ff		 mov	 DWORD PTR _iDateType$506879[ebp], ebx
$LN411@Initialize:

; 51   : 	{
; 52   : 		if ( iDateType == MDT_WEEKLY )

  00097	83 bd 00 fa ff
	ff 01		 cmp	 DWORD PTR _iDateType$506879[ebp], 1
  0009e	75 4e		 jne	 SHORT $LN408@Initialize

; 53   : 			kLoader.SetFileName_e( "config/sp2_weekly_mission.ini" );

  000a0	6a 07		 push	 7
  000a2	c7 45 cc 8e 83
	85 8c		 mov	 DWORD PTR __f$512492[ebp], -1937407090 ; 8c85838eH
  000a9	c7 45 d0 84 8b
	c4 99		 mov	 DWORD PTR __f$512492[ebp+4], -1715172476 ; 99c48b84H
  000b0	c7 45 d4 9d de
	b4 9d		 mov	 DWORD PTR __f$512492[ebp+8], -1649090915 ; 9db4de9dH
  000b7	c7 45 d8 88 89
	80 86		 mov	 DWORD PTR __f$512492[ebp+12], -2038396536 ; 86808988H
  000be	c7 45 dc 94 b3
	86 83		 mov	 DWORD PTR __f$512492[ebp+16], -2088324204 ; 8386b394H
  000c5	c7 45 e0 9e 9f
	82 85		 mov	 DWORD PTR __f$512492[ebp+20], -2055037026 ; 85829f9eH
  000cc	c7 45 e4 83 c2
	82 84		 mov	 DWORD PTR __f$512492[ebp+24], -2071805309 ; 8482c283H
  000d3	8d 45 cc	 lea	 eax, DWORD PTR __f$512492[ebp]
  000d6	66 c7 45 e8 84
	00		 mov	 WORD PTR __f$512492[ebp+28], 132 ; 00000084H
  000dc	59		 pop	 ecx
$LL627@Initialize:
  000dd	31 38		 xor	 DWORD PTR [eax], edi
  000df	83 c0 04	 add	 eax, 4
  000e2	49		 dec	 ecx
  000e3	75 f8		 jne	 SHORT $LL627@Initialize
  000e5	80 75 e8 ed	 xor	 BYTE PTR __f$512492[ebp+28], -19 ; ffffffedH
  000e9	8d 45 cc	 lea	 eax, DWORD PTR __f$512492[ebp]
  000ec	eb 73		 jmp	 SHORT $LN929@Initialize
$LN408@Initialize:

; 54   : 		else if (iDateType == MDT_MONTHLY)

  000ee	83 bd 00 fa ff
	ff 02		 cmp	 DWORD PTR _iDateType$506879[ebp], 2
  000f5	75 79		 jne	 SHORT $LN726@Initialize

; 55   : 			kLoader.SetFileName_e( "config/sp2_monthly_mission.ini" );

  000f7	6a 07		 push	 7
  000f9	c7 45 cc 8e 83
	85 8c		 mov	 DWORD PTR __f$512617[ebp], -1937407090 ; 8c85838eH
  00100	c7 45 d0 84 8b
	c4 99		 mov	 DWORD PTR __f$512617[ebp+4], -1715172476 ; 99c48b84H
  00107	c7 45 d4 9d de
	b4 87		 mov	 DWORD PTR __f$512617[ebp+8], -2018189667 ; 87b4de9dH
  0010e	c7 45 d8 82 82
	9f 82		 mov	 DWORD PTR __f$512617[ebp+12], -2103475582 ; 829f8282H
  00115	c7 45 dc 81 95
	b4 87		 mov	 DWORD PTR __f$512617[ebp+16], -2018208383 ; 87b49581H
  0011c	c7 45 e0 84 9f
	98 83		 mov	 DWORD PTR __f$512617[ebp+20], -2087149692 ; 83989f84H
  00123	c7 45 e4 82 82
	c5 83		 mov	 DWORD PTR __f$512617[ebp+24], -2084207998 ; 83c58282H
  0012a	66 c7 45 e8 83
	85		 mov	 WORD PTR __f$512617[ebp+28], 34179 ; 00008583H
  00130	8d 45 cc	 lea	 eax, DWORD PTR __f$512617[ebp]
  00133	88 5d ea	 mov	 BYTE PTR __f$512617[ebp+30], bl
  00136	59		 pop	 ecx
$LL733@Initialize:
  00137	31 38		 xor	 DWORD PTR [eax], edi
  00139	83 c0 04	 add	 eax, 4
  0013c	49		 dec	 ecx
  0013d	75 f8		 jne	 SHORT $LL733@Initialize
  0013f	6a 1c		 push	 28			; 0000001cH
  00141	5e		 pop	 esi
$LL730@Initialize:
  00142	8b c6		 mov	 eax, esi
  00144	25 03 00 00 80	 and	 eax, -2147483645	; 80000003H
  00149	79 05		 jns	 SHORT $LN924@Initialize
  0014b	48		 dec	 eax
  0014c	83 c8 fc	 or	 eax, -4			; fffffffcH
  0014f	40		 inc	 eax
$LN924@Initialize:
  00150	b1 ed		 mov	 cl, -19			; ffffffedH
  00152	2a c8		 sub	 cl, al
  00154	30 4c 35 cc	 xor	 BYTE PTR __f$512617[ebp+esi], cl
  00158	46		 inc	 esi
  00159	83 fe 1e	 cmp	 esi, 30			; 0000001eH
  0015c	7c e4		 jl	 SHORT $LL730@Initialize
  0015e	8d 45 cc	 lea	 eax, DWORD PTR __f$512617[ebp]
$LN929@Initialize:
  00161	6a 01		 push	 1
  00163	50		 push	 eax
  00164	8d 8d 08 fa ff
	ff		 lea	 ecx, DWORD PTR _kLoader$[ebp]
  0016a	ff 15 00 00 00
	00		 call	 DWORD PTR __imp_?SetFileName@ioINILoader@@QAEXPBD_N@Z
$LN726@Initialize:

; 56   : 		
; 57   : 		for(int iDate = 1; iDate < MAX_DATE; ++iDate )

  00170	c7 85 fc f9 ff
	ff 01 00 00 00	 mov	 DWORD PTR _iDate$506896[ebp], 1
$LN405@Initialize:

; 58   : 		{
; 59   : 			sprintf_s_e( szBuf, "date%d", iDate );

  0017a	6a 04		 push	 4
  0017c	c7 45 c0 89 8d
	9f 8f		 mov	 DWORD PTR ___encStr$506903[ebp], -1885368951 ; 8f9f8d89H
  00183	31 7d c0	 xor	 DWORD PTR ___encStr$506903[ebp], edi
  00186	66 c7 45 c4 c8
	88		 mov	 WORD PTR ___encStr$506903[ebp+4], 35016 ; 000088c8H
  0018c	88 5d c6	 mov	 BYTE PTR ___encStr$506903[ebp+6], bl
  0018f	5e		 pop	 esi
$LL738@Initialize:
  00190	8b c6		 mov	 eax, esi
  00192	25 03 00 00 80	 and	 eax, -2147483645	; 80000003H
  00197	79 05		 jns	 SHORT $LN925@Initialize
  00199	48		 dec	 eax
  0019a	83 c8 fc	 or	 eax, -4			; fffffffcH
  0019d	40		 inc	 eax
$LN925@Initialize:
  0019e	b1 ed		 mov	 cl, -19			; ffffffedH
  001a0	2a c8		 sub	 cl, al
  001a2	30 4c 35 c0	 xor	 BYTE PTR ___encStr$506903[ebp+esi], cl
  001a6	46		 inc	 esi
  001a7	83 fe 06	 cmp	 esi, 6
  001aa	7c e4		 jl	 SHORT $LL738@Initialize
  001ac	ff b5 fc f9 ff
	ff		 push	 DWORD PTR _iDate$506896[ebp]
  001b2	8d 45 c0	 lea	 eax, DWORD PTR ___encStr$506903[ebp]
  001b5	50		 push	 eax
  001b6	8d 85 9c fe ff
	ff		 lea	 eax, DWORD PTR _szBuf$[ebp]
  001bc	50		 push	 eax
  001bd	e8 00 00 00 00	 call	 ??$sprintf_s@$0BAE@@@YAHAAY0BAE@DPBDZZ ; sprintf_s<260>
  001c2	83 c4 0c	 add	 esp, 12			; 0000000cH

; 60   : 			kLoader.SetTitle( szBuf );

  001c5	8d 85 9c fe ff
	ff		 lea	 eax, DWORD PTR _szBuf$[ebp]
  001cb	50		 push	 eax
  001cc	8d 8d 08 fa ff
	ff		 lea	 ecx, DWORD PTR _kLoader$[ebp]
  001d2	ff 15 00 00 00
	00		 call	 DWORD PTR __imp_?SetTitle@ioINILoader@@QAEXPBD@Z
  001d8	6a 02		 push	 2

; 61   : 			int iStartDay = kLoader.LoadInt_e( "start_date", 0 );

  001da	c7 45 a0 9e 98
	8a 98		 mov	 DWORD PTR __k$512754[ebp], -1735747426 ; 988a989eH
  001e1	c7 45 a4 99 b3
	8f 8b		 mov	 DWORD PTR __k$512754[ebp+4], -1953516647 ; 8b8fb399H
  001e8	66 c7 45 a8 99
	89		 mov	 WORD PTR __k$512754[ebp+8], 35225 ; 00008999H
  001ee	8d 45 a0	 lea	 eax, DWORD PTR __k$512754[ebp]
  001f1	88 5d aa	 mov	 BYTE PTR __k$512754[ebp+10], bl
  001f4	59		 pop	 ecx
$LL847@Initialize:
  001f5	31 38		 xor	 DWORD PTR [eax], edi
  001f7	83 c0 04	 add	 eax, 4
  001fa	49		 dec	 ecx
  001fb	75 f8		 jne	 SHORT $LL847@Initialize
  001fd	6a 08		 push	 8
  001ff	5e		 pop	 esi
$LL844@Initialize:
  00200	8b c6		 mov	 eax, esi
  00202	25 03 00 00 80	 and	 eax, -2147483645	; 80000003H
  00207	79 05		 jns	 SHORT $LN926@Initialize
  00209	48		 dec	 eax
  0020a	83 c8 fc	 or	 eax, -4			; fffffffcH
  0020d	40		 inc	 eax
$LN926@Initialize:
  0020e	b1 ed		 mov	 cl, -19			; ffffffedH
  00210	2a c8		 sub	 cl, al
  00212	30 4c 35 a0	 xor	 BYTE PTR __k$512754[ebp+esi], cl
  00216	46		 inc	 esi
  00217	83 fe 0a	 cmp	 esi, 10			; 0000000aH
  0021a	7c e4		 jl	 SHORT $LL844@Initialize
  0021c	53		 push	 ebx
  0021d	8d 45 a0	 lea	 eax, DWORD PTR __k$512754[ebp]
  00220	50		 push	 eax
  00221	8d 8d 08 fa ff
	ff		 lea	 ecx, DWORD PTR _kLoader$[ebp]
  00227	ff 15 00 00 00
	00		 call	 DWORD PTR __imp_?LoadInt@ioINILoader@@QAEHPBDH@Z

; 62   : 			if ( iStartDay == 0 )

  0022d	3b c3		 cmp	 eax, ebx
  0022f	0f 84 b2 01 00
	00		 je	 $LN404@Initialize

; 63   : 				continue;
; 64   : 
; 65   : 			for(int iCode = 1; iCode < MAX_MISSION_CODE; ++iCode )

  00235	c7 85 04 fa ff
	ff 01 00 00 00	 mov	 DWORD PTR _iCode$507065[ebp], 1
$LN302@Initialize:

; 61   : 			int iStartDay = kLoader.LoadInt_e( "start_date", 0 );

  0023f	6a 03		 push	 3

; 66   : 			{
; 67   : 				sprintf_s_e( szBuf, "mission%d_code", iCode );

  00241	c7 45 dc 80 85
	98 99		 mov	 DWORD PTR ___encStr$507072[ebp], -1718057600 ; 99988580H
  00248	c7 45 e0 84 83
	85 cf		 mov	 DWORD PTR ___encStr$507072[ebp+4], -813333628 ; cf858384H
  0024f	c7 45 e4 89 b3
	88 85		 mov	 DWORD PTR ___encStr$507072[ebp+8], -2054638711 ; 8588b389H
  00256	66 c7 45 e8 89
	89		 mov	 WORD PTR ___encStr$507072[ebp+12], 35209 ; 00008989H
  0025c	8d 45 dc	 lea	 eax, DWORD PTR ___encStr$507072[ebp]
  0025f	88 5d ea	 mov	 BYTE PTR ___encStr$507072[ebp+14], bl
  00262	59		 pop	 ecx
$LL855@Initialize:
  00263	31 38		 xor	 DWORD PTR [eax], edi
  00265	83 c0 04	 add	 eax, 4
  00268	49		 dec	 ecx
  00269	75 f8		 jne	 SHORT $LL855@Initialize
  0026b	6a 0c		 push	 12			; 0000000cH
  0026d	5e		 pop	 esi
$LL852@Initialize:
  0026e	8b c6		 mov	 eax, esi
  00270	25 03 00 00 80	 and	 eax, -2147483645	; 80000003H
  00275	79 05		 jns	 SHORT $LN927@Initialize
  00277	48		 dec	 eax
  00278	83 c8 fc	 or	 eax, -4			; fffffffcH
  0027b	40		 inc	 eax
$LN927@Initialize:
  0027c	b1 ed		 mov	 cl, -19			; ffffffedH
  0027e	2a c8		 sub	 cl, al
  00280	30 4c 35 dc	 xor	 BYTE PTR ___encStr$507072[ebp+esi], cl
  00284	46		 inc	 esi
  00285	83 fe 0e	 cmp	 esi, 14			; 0000000eH
  00288	7c e4		 jl	 SHORT $LL852@Initialize
  0028a	ff b5 04 fa ff
	ff		 push	 DWORD PTR _iCode$507065[ebp]
  00290	8d 45 dc	 lea	 eax, DWORD PTR ___encStr$507072[ebp]
  00293	50		 push	 eax
  00294	8d 85 9c fe ff
	ff		 lea	 eax, DWORD PTR _szBuf$[ebp]
  0029a	50		 push	 eax
  0029b	e8 00 00 00 00	 call	 ??$sprintf_s@$0BAE@@@YAHAAY0BAE@DPBDZZ ; sprintf_s<260>
  002a0	83 c4 0c	 add	 esp, 12			; 0000000cH

; 68   : 				int iINIMissionCode = kLoader.LoadInt( szBuf, 0 );

  002a3	53		 push	 ebx
  002a4	8d 85 9c fe ff
	ff		 lea	 eax, DWORD PTR _szBuf$[ebp]
  002aa	50		 push	 eax
  002ab	8d 8d 08 fa ff
	ff		 lea	 ecx, DWORD PTR _kLoader$[ebp]
  002b1	ff 15 00 00 00
	00		 call	 DWORD PTR __imp_?LoadInt@ioINILoader@@QAEHPBDH@Z

; 69   : 				if ( iINIMissionCode == 0 )

  002b7	3b c3		 cmp	 eax, ebx
  002b9	0f 84 28 01 00
	00		 je	 $LN404@Initialize

; 70   : 					break;
; 71   : 
; 72   : 				sprintf_s_e( szBuf, "mission%d_type", iCode );

  002bf	6a 03		 push	 3
  002c1	c7 45 dc 80 85
	98 99		 mov	 DWORD PTR ___encStr$507226[ebp], -1718057600 ; 99988580H
  002c8	c7 45 e0 84 83
	85 cf		 mov	 DWORD PTR ___encStr$507226[ebp+4], -813333628 ; cf858384H
  002cf	c7 45 e4 89 b3
	9f 93		 mov	 DWORD PTR ___encStr$507226[ebp+8], -1818250359 ; 939fb389H
  002d6	66 c7 45 e8 9d
	89		 mov	 WORD PTR ___encStr$507226[ebp+12], 35229 ; 0000899dH
  002dc	8d 45 dc	 lea	 eax, DWORD PTR ___encStr$507226[ebp]
  002df	88 5d ea	 mov	 BYTE PTR ___encStr$507226[ebp+14], bl
  002e2	59		 pop	 ecx
$LL863@Initialize:
  002e3	31 38		 xor	 DWORD PTR [eax], edi
  002e5	83 c0 04	 add	 eax, 4
  002e8	49		 dec	 ecx
  002e9	75 f8		 jne	 SHORT $LL863@Initialize
  002eb	6a 0c		 push	 12			; 0000000cH
  002ed	5e		 pop	 esi
$LL860@Initialize:
  002ee	8b c6		 mov	 eax, esi
  002f0	25 03 00 00 80	 and	 eax, -2147483645	; 80000003H
  002f5	79 05		 jns	 SHORT $LN928@Initialize
  002f7	48		 dec	 eax
  002f8	83 c8 fc	 or	 eax, -4			; fffffffcH
  002fb	40		 inc	 eax
$LN928@Initialize:
  002fc	b1 ed		 mov	 cl, -19			; ffffffedH
  002fe	2a c8		 sub	 cl, al
  00300	30 4c 35 dc	 xor	 BYTE PTR ___encStr$507226[ebp+esi], cl
  00304	46		 inc	 esi
  00305	83 fe 0e	 cmp	 esi, 14			; 0000000eH
  00308	7c e4		 jl	 SHORT $LL860@Initialize
  0030a	ff b5 04 fa ff
	ff		 push	 DWORD PTR _iCode$507065[ebp]
  00310	8d 45 dc	 lea	 eax, DWORD PTR ___encStr$507226[ebp]
  00313	50		 push	 eax
  00314	8d 85 9c fe ff
	ff		 lea	 eax, DWORD PTR _szBuf$[ebp]
  0031a	50		 push	 eax
  0031b	e8 00 00 00 00	 call	 ??$sprintf_s@$0BAE@@@YAHAAY0BAE@DPBDZZ ; sprintf_s<260>
  00320	83 c4 0c	 add	 esp, 12			; 0000000cH

; 73   : 				int iType = kLoader.LoadInt( szBuf, 0 );

  00323	53		 push	 ebx
  00324	8d 85 9c fe ff
	ff		 lea	 eax, DWORD PTR _szBuf$[ebp]
  0032a	50		 push	 eax
  0032b	8d 8d 08 fa ff
	ff		 lea	 ecx, DWORD PTR _kLoader$[ebp]
  00331	ff 15 00 00 00
	00		 call	 DWORD PTR __imp_?LoadInt@ioINILoader@@QAEHPBDH@Z

; 74   : 				ioMission* pMission = CreateMission( iType );

  00337	8b 8d f4 f9 ff
	ff		 mov	 ecx, DWORD PTR _this$GSCopy$[ebp]
  0033d	89 85 f8 f9 ff
	ff		 mov	 DWORD PTR _iType$507375[ebp], eax
  00343	8d 85 f8 f9 ff
	ff		 lea	 eax, DWORD PTR _iType$507375[ebp]
  00349	50		 push	 eax
  0034a	e8 00 00 00 00	 call	 ?CreateMission@ioMissionManager@@IAEPAVioMission@@ABH@Z ; ioMissionManager::CreateMission
  0034f	8b f0		 mov	 esi, eax
  00351	89 b5 f8 f9 ff
	ff		 mov	 DWORD PTR _pMission$507376[ebp], esi

; 75   : 				if ( !pMission ) return;

  00357	3b f3		 cmp	 esi, ebx
  00359	0f 84 b1 00 00
	00		 je	 $LN409@Initialize

; 76   : 
; 77   : 				sprintf_s_e( szInIKey, "mission%d", iCode );

  0035f	6a 02		 push	 2
  00361	c7 45 b0 80 85
	98 99		 mov	 DWORD PTR ___encStr$507381[ebp], -1718057600 ; 99988580H
  00368	c7 45 b4 84 83
	85 cf		 mov	 DWORD PTR ___encStr$507381[ebp+4], -813333628 ; cf858384H
  0036f	8d 45 b0	 lea	 eax, DWORD PTR ___encStr$507381[ebp]
  00372	66 c7 45 b8 89
	00		 mov	 WORD PTR ___encStr$507381[ebp+8], 137 ; 00000089H
  00378	59		 pop	 ecx
$LL874@Initialize:
  00379	31 38		 xor	 DWORD PTR [eax], edi
  0037b	83 c0 04	 add	 eax, 4
  0037e	49		 dec	 ecx
  0037f	75 f8		 jne	 SHORT $LL874@Initialize
  00381	ff b5 04 fa ff
	ff		 push	 DWORD PTR _iCode$507065[ebp]
  00387	80 75 b8 ed	 xor	 BYTE PTR ___encStr$507381[ebp+8], -19 ; ffffffedH
  0038b	8d 45 b0	 lea	 eax, DWORD PTR ___encStr$507381[ebp]
  0038e	50		 push	 eax
  0038f	8d 85 98 fd ff
	ff		 lea	 eax, DWORD PTR _szInIKey$[ebp]
  00395	50		 push	 eax
  00396	e8 00 00 00 00	 call	 ??$sprintf_s@$0BAE@@@YAHAAY0BAE@DPBDZZ ; sprintf_s<260>

; 78   : 				pMission->Init( szInIKey, kLoader );

  0039b	8b 06		 mov	 eax, DWORD PTR [esi]
  0039d	83 c4 0c	 add	 esp, 12			; 0000000cH
  003a0	8d 8d 08 fa ff
	ff		 lea	 ecx, DWORD PTR _kLoader$[ebp]
  003a6	51		 push	 ecx
  003a7	8d 8d 98 fd ff
	ff		 lea	 ecx, DWORD PTR _szInIKey$[ebp]
  003ad	51		 push	 ecx
  003ae	8b ce		 mov	 ecx, esi
  003b0	ff 50 04	 call	 DWORD PTR [eax+4]

; 79   : 
; 80   : 				m_AllDayMissionList[iDateType].push_back( pMission );

  003b3	8b 8d f4 f9 ff
	ff		 mov	 ecx, DWORD PTR _this$GSCopy$[ebp]
  003b9	8d 85 f8 f9 ff
	ff		 lea	 eax, DWORD PTR _pMission$507376[ebp]
  003bf	50		 push	 eax
  003c0	8b 85 00 fa ff
	ff		 mov	 eax, DWORD PTR _iDateType$506879[ebp]
  003c6	03 c0		 add	 eax, eax
  003c8	8d 4c c1 34	 lea	 ecx, DWORD PTR [ecx+eax*8+52]
  003cc	e8 00 00 00 00	 call	 ?push_back@?$vector@PAVioMission@@V?$allocator@PAVioMission@@@std@@@std@@QAEXABQAVioMission@@@Z ; std::vector<ioMission *,std::allocator<ioMission *> >::push_back
  003d1	ff 85 04 fa ff
	ff		 inc	 DWORD PTR _iCode$507065[ebp]
  003d7	81 bd 04 fa ff
	ff e8 03 00 00	 cmp	 DWORD PTR _iCode$507065[ebp], 1000 ; 000003e8H
  003e1	0f 8c 58 fe ff
	ff		 jl	 $LN302@Initialize
$LN404@Initialize:

; 56   : 		
; 57   : 		for(int iDate = 1; iDate < MAX_DATE; ++iDate )

  003e7	ff 85 fc f9 ff
	ff		 inc	 DWORD PTR _iDate$506896[ebp]
  003ed	81 bd fc f9 ff
	ff e8 03 00 00	 cmp	 DWORD PTR _iDate$506896[ebp], 1000 ; 000003e8H
  003f7	0f 8c 7d fd ff
	ff		 jl	 $LN405@Initialize

; 50   : 	for ( int iDateType = MDT_DAILY ; iDateType<MDT_MAX ; ++iDateType )

  003fd	ff 85 00 fa ff
	ff		 inc	 DWORD PTR _iDateType$506879[ebp]
  00403	83 bd 00 fa ff
	ff 03		 cmp	 DWORD PTR _iDateType$506879[ebp], 3
  0040a	0f 8c 87 fc ff
	ff		 jl	 $LN411@Initialize
$LN409@Initialize:

; 81   : 			}
; 82   : 		}
; 83   : 	}
; 84   : }

  00410	83 4d fc ff	 or	 DWORD PTR __$EHRec$[ebp+8], -1
  00414	8d 8d 08 fa ff
	ff		 lea	 ecx, DWORD PTR _kLoader$[ebp]
  0041a	ff 15 00 00 00
	00		 call	 DWORD PTR __imp_??1ioINILoader@@QAE@XZ
  00420	e8 00 00 00 00	 call	 __EH_epilog3_GS
  00425	c3		 ret	 0
_TEXT	ENDS
;	COMDAT text$x
text$x	SEGMENT
__unwindfunclet$?Initialize@ioMissionManager@@QAEXXZ$0:
  00000	8d 8d 08 fa ff
	ff		 lea	 ecx, DWORD PTR _kLoader$[ebp]
  00006	e9 00 00 00 00	 jmp	 ??1ioINILoader_e@@QAE@XZ
__ehhandler$?Initialize@ioMissionManager@@QAEXXZ:
  0000b	8b 54 24 08	 mov	 edx, DWORD PTR [esp+8]
  0000f	8d 42 0c	 lea	 eax, DWORD PTR [edx+12]
  00012	8b 8a f0 f9 ff
	ff		 mov	 ecx, DWORD PTR [edx-1552]
  00018	33 c8		 xor	 ecx, eax
  0001a	e8 00 00 00 00	 call	 @__security_check_cookie@4
  0001f	8b 4a fc	 mov	 ecx, DWORD PTR [edx-4]
  00022	33 c8		 xor	 ecx, eax
  00024	e8 00 00 00 00	 call	 @__security_check_cookie@4
  00029	b8 00 00 00 00	 mov	 eax, OFFSET __ehfuncinfo$?Initialize@ioMissionManager@@QAEXXZ
  0002e	e9 00 00 00 00	 jmp	 ___CxxFrameHandler3
text$x	ENDS
?Initialize@ioMissionManager@@QAEXXZ ENDP		; ioMissionManager::Initialize
PUBLIC	??_C@_0BN@EEEHHBKH@?$CFs?5Success?5Mission?$CB?5Code?5?3?$CFd?$AA@ ; `string'
PUBLIC	??_C@_0BL@PCIGOPLA@?$CFs?5UNKOWN?5Mission?5Code?5?3?$CFd?$AA@ ; `string'
PUBLIC	??_C@_0CA@PCBKHBBJ@?$CFs?5UNKOWN?5Mission?5Date?5Type?5?3?$CFd?$AA@ ; `string'
PUBLIC	??_C@_0BO@JOHLCAED@ioMissionManager?3?3LoadMission?$AA@ ; `string'
PUBLIC	?LoadMission@ioMissionManager@@IAEXAAVSP2Packet@@@Z ; ioMissionManager::LoadMission
EXTRN	?IsMeDeveloper@ioApplication@@QAE_NXZ:PROC	; ioApplication::IsMeDeveloper
EXTRN	?GetSingleton@ioApplication@@SAAAV1@XZ:PROC	; ioApplication::GetSingleton
;	COMDAT ??_C@_0BN@EEEHHBKH@?$CFs?5Success?5Mission?$CB?5Code?5?3?$CFd?$AA@
; File c:\program files (x86)\microsoft visual studio 10.0\vc\include\vector
CONST	SEGMENT
??_C@_0BN@EEEHHBKH@?$CFs?5Success?5Mission?$CB?5Code?5?3?$CFd?$AA@ DB '%s'
	DB	' Success Mission! Code :%d', 00H		; `string'
CONST	ENDS
;	COMDAT ??_C@_0BL@PCIGOPLA@?$CFs?5UNKOWN?5Mission?5Code?5?3?$CFd?$AA@
CONST	SEGMENT
??_C@_0BL@PCIGOPLA@?$CFs?5UNKOWN?5Mission?5Code?5?3?$CFd?$AA@ DB '%s UNKO'
	DB	'WN Mission Code :%d', 00H			; `string'
CONST	ENDS
;	COMDAT ??_C@_0CA@PCBKHBBJ@?$CFs?5UNKOWN?5Mission?5Date?5Type?5?3?$CFd?$AA@
CONST	SEGMENT
??_C@_0CA@PCBKHBBJ@?$CFs?5UNKOWN?5Mission?5Date?5Type?5?3?$CFd?$AA@ DB '%'
	DB	's UNKOWN Mission Date Type :%d', 00H	; `string'
CONST	ENDS
;	COMDAT ??_C@_0BO@JOHLCAED@ioMissionManager?3?3LoadMission?$AA@
CONST	SEGMENT
??_C@_0BO@JOHLCAED@ioMissionManager?3?3LoadMission?$AA@ DB 'ioMissionMana'
	DB	'ger::LoadMission', 00H			; `string'
; Function compile flags: /Ogsp
; File d:\lost saga for developer\youtube\tutorial\source\src\lsclient\iomissionmanager.cpp
CONST	ENDS
;	COMDAT ?LoadMission@ioMissionManager@@IAEXAAVSP2Packet@@@Z
_TEXT	SEGMENT
_iPacketCurValue$ = -20					; size = 4
_PacketMissionState$ = -16				; size = 1
_iPacketMissionCode$ = -12				; size = 4
tv293 = -8						; size = 4
_pMission$ = -8						; size = 4
_i$507818 = -4						; size = 4
_rkPacket$ = 8						; size = 4
_iDateType$ = 11					; size = 1
?LoadMission@ioMissionManager@@IAEXAAVSP2Packet@@@Z PROC ; ioMissionManager::LoadMission, COMDAT
; _this$ = ecx

; 236  : {

  00000	55		 push	 ebp
  00001	8b ec		 mov	 ebp, esp
  00003	83 ec 18	 sub	 esp, 24			; 00000018H
  00006	53		 push	 ebx
  00007	56		 push	 esi

; 237  : 	BYTE iDateType;
; 238  : 	int iPacketMissionCode, iPacketCurValue;
; 239  : 	BYTE PacketMissionState;
; 240  : 	rkPacket >> iDateType;

  00008	8b 75 08	 mov	 esi, DWORD PTR _rkPacket$[ebp]
  0000b	57		 push	 edi
  0000c	8d 45 0b	 lea	 eax, DWORD PTR _iDateType$[ebp]
  0000f	8b d9		 mov	 ebx, ecx
  00011	50		 push	 eax
  00012	8b ce		 mov	 ecx, esi
  00014	e8 00 00 00 00	 call	 ??5SP2Packet@@QAEAAV0@AAE@Z ; SP2Packet::operator>>

; 241  : 	rkPacket >> iPacketMissionCode;

  00019	8d 45 f4	 lea	 eax, DWORD PTR _iPacketMissionCode$[ebp]
  0001c	50		 push	 eax
  0001d	8b ce		 mov	 ecx, esi
  0001f	e8 00 00 00 00	 call	 ??5SP2Packet@@QAEAAV0@AAH@Z ; SP2Packet::operator>>

; 242  : 	rkPacket >> PacketMissionState;

  00024	8d 45 f0	 lea	 eax, DWORD PTR _PacketMissionState$[ebp]
  00027	50		 push	 eax
  00028	8b ce		 mov	 ecx, esi
  0002a	e8 00 00 00 00	 call	 ??5SP2Packet@@QAEAAV0@AAE@Z ; SP2Packet::operator>>

; 243  : 	rkPacket >> iPacketCurValue;

  0002f	8d 45 ec	 lea	 eax, DWORD PTR _iPacketCurValue$[ebp]
  00032	50		 push	 eax
  00033	8b ce		 mov	 ecx, esi
  00035	e8 00 00 00 00	 call	 ??5SP2Packet@@QAEAAV0@AAH@Z ; SP2Packet::operator>>

; 244  : 
; 245  : 	if ( !COMPARE( iDateType, MDT_DAILY, MDT_MAX ) )

  0003a	80 7d 0b 03	 cmp	 BYTE PTR _iDateType$[ebp], 3
  0003e	8b 35 00 00 00
	00		 mov	 esi, DWORD PTR __imp_?PrintTimeAndLog@CLog@@QAAXHPADZZ
  00044	bf 00 00 00 00	 mov	 edi, OFFSET ??_C@_0BO@JOHLCAED@ioMissionManager?3?3LoadMission?$AA@
  00049	72 18		 jb	 SHORT $LN9@LoadMissio

; 246  : 		LOG.PrintTimeAndLog( 0, "%s UNKOWN Mission Date Type :%d", __FUNCTION__, iDateType );

  0004b	0f b6 45 0b	 movzx	 eax, BYTE PTR _iDateType$[ebp]
  0004f	50		 push	 eax
  00050	57		 push	 edi
  00051	68 00 00 00 00	 push	 OFFSET ??_C@_0CA@PCBKHBBJ@?$CFs?5UNKOWN?5Mission?5Date?5Type?5?3?$CFd?$AA@
  00056	6a 00		 push	 0
  00058	ff 35 00 00 00
	00		 push	 DWORD PTR __imp_?LOG@@3VCLog@@A
  0005e	ff d6		 call	 esi
  00060	83 c4 14	 add	 esp, 20			; 00000014H
$LN9@LoadMissio:

; 247  : 
; 248  : 	ioMission* pMission = NULL;
; 249  : 	for( int i=0 ; i < (int)m_AllDayMissionList[iDateType].size() ; ++i )

  00063	0f b6 45 0b	 movzx	 eax, BYTE PTR _iDateType$[ebp]
  00067	83 65 fc 00	 and	 DWORD PTR _i$507818[ebp], 0
  0006b	03 c0		 add	 eax, eax
  0006d	8d 44 c3 34	 lea	 eax, DWORD PTR [ebx+eax*8+52]
  00071	8b 48 04	 mov	 ecx, DWORD PTR [eax+4]
  00074	2b 08		 sub	 ecx, DWORD PTR [eax]
  00076	f7 c1 fc ff ff
	ff		 test	 ecx, -4			; fffffffcH
  0007c	7e 26		 jle	 SHORT $LN25@LoadMissio
  0007e	8b 08		 mov	 ecx, DWORD PTR [eax]
  00080	89 4d f8	 mov	 DWORD PTR tv293[ebp], ecx
$LL24@LoadMissio:

; 250  : 	{
; 251  : 		if ( m_AllDayMissionList[iDateType][i]->GetMagicCode() == iPacketMissionCode )

  00083	8b 55 f8	 mov	 edx, DWORD PTR tv293[ebp]
  00086	8b 12		 mov	 edx, DWORD PTR [edx]
  00088	8b 52 08	 mov	 edx, DWORD PTR [edx+8]
  0008b	3b 55 f4	 cmp	 edx, DWORD PTR _iPacketMissionCode$[ebp]
  0008e	74 31		 je	 SHORT $LN21@LoadMissio

; 247  : 
; 248  : 	ioMission* pMission = NULL;
; 249  : 	for( int i=0 ; i < (int)m_AllDayMissionList[iDateType].size() ; ++i )

  00090	8b 50 04	 mov	 edx, DWORD PTR [eax+4]
  00093	ff 45 fc	 inc	 DWORD PTR _i$507818[ebp]
  00096	83 45 f8 04	 add	 DWORD PTR tv293[ebp], 4
  0009a	2b d1		 sub	 edx, ecx
  0009c	c1 fa 02	 sar	 edx, 2
  0009f	39 55 fc	 cmp	 DWORD PTR _i$507818[ebp], edx
  000a2	7c df		 jl	 SHORT $LL24@LoadMissio
$LN25@LoadMissio:

; 265  : 		LOG.PrintTimeAndLog( 0, "%s UNKOWN Mission Code :%d", __FUNCTION__, iPacketMissionCode );

  000a4	ff 75 f4	 push	 DWORD PTR _iPacketMissionCode$[ebp]
  000a7	57		 push	 edi
  000a8	68 00 00 00 00	 push	 OFFSET ??_C@_0BL@PCIGOPLA@?$CFs?5UNKOWN?5Mission?5Code?5?3?$CFd?$AA@
$LN26@LoadMissio:
  000ad	6a 00		 push	 0
  000af	ff 35 00 00 00
	00		 push	 DWORD PTR __imp_?LOG@@3VCLog@@A
  000b5	ff d6		 call	 esi
  000b7	83 c4 14	 add	 esp, 20			; 00000014H
$LN1@LoadMissio:
  000ba	5f		 pop	 edi
  000bb	5e		 pop	 esi
  000bc	5b		 pop	 ebx

; 266  : }

  000bd	c9		 leave
  000be	c2 04 00	 ret	 4
$LN21@LoadMissio:

; 252  : 		{
; 253  : 			pMission = m_AllDayMissionList[iDateType][i]->Clone();

  000c1	8b 45 fc	 mov	 eax, DWORD PTR _i$507818[ebp]
  000c4	8b 0c 81	 mov	 ecx, DWORD PTR [ecx+eax*4]
  000c7	8b 01		 mov	 eax, DWORD PTR [ecx]
  000c9	ff 50 0c	 call	 DWORD PTR [eax+12]
  000cc	89 45 f8	 mov	 DWORD PTR _pMission$[ebp], eax

; 254  : 			break;
; 255  : 		}
; 256  : 	}
; 257  : 	if ( pMission )

  000cf	85 c0		 test	 eax, eax
  000d1	74 d1		 je	 SHORT $LN25@LoadMissio

; 258  : 	{
; 259  : 		pMission->SetMissionState( iPacketCurValue, PacketMissionState );

  000d3	ff 75 f0	 push	 DWORD PTR _PacketMissionState$[ebp]
  000d6	8b c8		 mov	 ecx, eax
  000d8	ff 75 ec	 push	 DWORD PTR _iPacketCurValue$[ebp]
  000db	e8 00 00 00 00	 call	 ?SetMissionState@ioMission@@QAEXHE@Z ; ioMission::SetMissionState

; 260  : 		m_CurDayMissionList[iDateType].push_back( pMission );

  000e0	8d 45 f8	 lea	 eax, DWORD PTR _pMission$[ebp]
  000e3	50		 push	 eax
  000e4	0f b6 45 0b	 movzx	 eax, BYTE PTR _iDateType$[ebp]
  000e8	03 c0		 add	 eax, eax
  000ea	8b cb		 mov	 ecx, ebx
  000ec	8d 4c c1 04	 lea	 ecx, DWORD PTR [ecx+eax*8+4]
  000f0	e8 00 00 00 00	 call	 ?push_back@?$vector@PAVioMission@@V?$allocator@PAVioMission@@@std@@@std@@QAEXABQAVioMission@@@Z ; std::vector<ioMission *,std::allocator<ioMission *> >::push_back

; 261  : 		if( g_App.IsMeDeveloper() )

  000f5	e8 00 00 00 00	 call	 ?GetSingleton@ioApplication@@SAAAV1@XZ ; ioApplication::GetSingleton
  000fa	8b c8		 mov	 ecx, eax
  000fc	e8 00 00 00 00	 call	 ?IsMeDeveloper@ioApplication@@QAE_NXZ ; ioApplication::IsMeDeveloper
  00101	84 c0		 test	 al, al
  00103	74 b5		 je	 SHORT $LN1@LoadMissio

; 262  : 			LOG.PrintTimeAndLog( 0, "%s Success Mission! Code :%d", __FUNCTION__, iPacketMissionCode );

  00105	ff 75 f4	 push	 DWORD PTR _iPacketMissionCode$[ebp]
  00108	57		 push	 edi
  00109	68 00 00 00 00	 push	 OFFSET ??_C@_0BN@EEEHHBKH@?$CFs?5Success?5Mission?$CB?5Code?5?3?$CFd?$AA@

; 263  : 	}
; 264  : 	else

  0010e	eb 9d		 jmp	 SHORT $LN26@LoadMissio
?LoadMission@ioMissionManager@@IAEXAAVSP2Packet@@@Z ENDP ; ioMissionManager::LoadMission
_TEXT	ENDS
PUBLIC	??$_Sort@PAPAVioMission@@HVMissionDataSort@@@std@@YAXPAPAVioMission@@0HVMissionDataSort@@@Z ; std::_Sort<ioMission * *,int,MissionDataSort>
; Function compile flags: /Ogsp
; File c:\program files (x86)\microsoft visual studio 10.0\vc\include\algorithm
;	COMDAT ??$_Sort@PAPAVioMission@@HVMissionDataSort@@@std@@YAXPAPAVioMission@@0HVMissionDataSort@@@Z
_TEXT	SEGMENT
__Mid$509252 = -8					; size = 8
__First$ = 8						; size = 4
__Last$ = 12						; size = 4
__Ideal$ = 16						; size = 4
__Pred$ = 20						; size = 1
??$_Sort@PAPAVioMission@@HVMissionDataSort@@@std@@YAXPAPAVioMission@@0HVMissionDataSort@@@Z PROC ; std::_Sort<ioMission * *,int,MissionDataSort>, COMDAT

; 3771 : 	{	// order [_First, _Last), using _Pred

  00000	55		 push	 ebp
  00001	8b ec		 mov	 ebp, esp
  00003	51		 push	 ecx
  00004	51		 push	 ecx
  00005	53		 push	 ebx

; 3772 : 	_Diff _Count;
; 3773 : 	for (; _ISORT_MAX < (_Count = _Last - _First) && 0 < _Ideal; )

  00006	8b 5d 08	 mov	 ebx, DWORD PTR __First$[ebp]
  00009	57		 push	 edi
  0000a	8b 7d 0c	 mov	 edi, DWORD PTR __Last$[ebp]
  0000d	8b c7		 mov	 eax, edi
  0000f	2b c3		 sub	 eax, ebx
  00011	c1 f8 02	 sar	 eax, 2
  00014	83 f8 20	 cmp	 eax, 32			; 00000020H
  00017	0f 8e 89 00 00
	00		 jle	 $LN22@Sort
  0001d	56		 push	 esi
  0001e	8b 75 10	 mov	 esi, DWORD PTR __Ideal$[ebp]
$LL7@Sort:
  00021	85 f6		 test	 esi, esi
  00023	7e 62		 jle	 SHORT $LN6@Sort

; 3774 : 		{	// divide and conquer by quicksort
; 3775 : 		_STD pair<_RanIt, _RanIt> _Mid =
; 3776 : 			_Unguarded_partition(_First, _Last, _Pred);

  00025	ff 75 14	 push	 DWORD PTR __Pred$[ebp]
  00028	8d 45 f8	 lea	 eax, DWORD PTR __Mid$509252[ebp]
  0002b	57		 push	 edi
  0002c	53		 push	 ebx
  0002d	50		 push	 eax
  0002e	e8 00 00 00 00	 call	 ??$_Unguarded_partition@PAPAVioMission@@VMissionDataSort@@@std@@YA?AU?$pair@PAPAVioMission@@PAPAV1@@0@PAPAVioMission@@0VMissionDataSort@@@Z ; std::_Unguarded_partition<ioMission * *,MissionDataSort>

; 3777 : 		_Ideal /= 2, _Ideal += _Ideal / 2;	// allow 1.5 log2(N) divisions
; 3778 : 
; 3779 : 		if (_Mid.first - _First < _Last - _Mid.second)

  00033	8b 4d f8	 mov	 ecx, DWORD PTR __Mid$509252[ebp]
  00036	8b c6		 mov	 eax, esi
  00038	99		 cdq
  00039	2b c2		 sub	 eax, edx
  0003b	d1 f8		 sar	 eax, 1
  0003d	8b f0		 mov	 esi, eax
  0003f	99		 cdq
  00040	2b c2		 sub	 eax, edx
  00042	d1 f8		 sar	 eax, 1
  00044	03 f0		 add	 esi, eax
  00046	8b c7		 mov	 eax, edi
  00048	2b 45 fc	 sub	 eax, DWORD PTR __Mid$509252[ebp+4]
  0004b	83 c4 10	 add	 esp, 16			; 00000010H

; 3780 : 			{	// loop on second half
; 3781 : 			_Sort(_First, _Mid.first, _Ideal, _Pred);

  0004e	ff 75 14	 push	 DWORD PTR __Pred$[ebp]
  00051	2b cb		 sub	 ecx, ebx
  00053	83 e0 fc	 and	 eax, -4			; fffffffcH
  00056	83 e1 fc	 and	 ecx, -4			; fffffffcH
  00059	56		 push	 esi
  0005a	3b c8		 cmp	 ecx, eax
  0005c	7d 0e		 jge	 SHORT $LN5@Sort
  0005e	ff 75 f8	 push	 DWORD PTR __Mid$509252[ebp]
  00061	53		 push	 ebx
  00062	e8 00 00 00 00	 call	 ??$_Sort@PAPAVioMission@@HVMissionDataSort@@@std@@YAXPAPAVioMission@@0HVMissionDataSort@@@Z ; std::_Sort<ioMission * *,int,MissionDataSort>

; 3782 : 			_First = _Mid.second;

  00067	8b 5d fc	 mov	 ebx, DWORD PTR __Mid$509252[ebp+4]

; 3783 : 			}
; 3784 : 		else

  0006a	eb 0c		 jmp	 SHORT $LN23@Sort
$LN5@Sort:

; 3785 : 			{	// loop on first half
; 3786 : 			_Sort(_Mid.second, _Last, _Ideal, _Pred);

  0006c	57		 push	 edi
  0006d	ff 75 fc	 push	 DWORD PTR __Mid$509252[ebp+4]
  00070	e8 00 00 00 00	 call	 ??$_Sort@PAPAVioMission@@HVMissionDataSort@@@std@@YAXPAPAVioMission@@0HVMissionDataSort@@@Z ; std::_Sort<ioMission * *,int,MissionDataSort>

; 3787 : 			_Last = _Mid.first;

  00075	8b 7d f8	 mov	 edi, DWORD PTR __Mid$509252[ebp]
$LN23@Sort:

; 3772 : 	_Diff _Count;
; 3773 : 	for (; _ISORT_MAX < (_Count = _Last - _First) && 0 < _Ideal; )

  00078	8b c7		 mov	 eax, edi
  0007a	2b c3		 sub	 eax, ebx
  0007c	c1 f8 02	 sar	 eax, 2

; 3785 : 			{	// loop on first half
; 3786 : 			_Sort(_Mid.second, _Last, _Ideal, _Pred);

  0007f	83 c4 10	 add	 esp, 16			; 00000010H
  00082	83 f8 20	 cmp	 eax, 32			; 00000020H
  00085	7f 9a		 jg	 SHORT $LL7@Sort
$LN6@Sort:
  00087	5e		 pop	 esi

; 3788 : 			}
; 3789 : 		}
; 3790 : 
; 3791 : 	if (_ISORT_MAX < _Count)

  00088	83 f8 20	 cmp	 eax, 32			; 00000020H
  0008b	7e 19		 jle	 SHORT $LN22@Sort

; 3792 : 		{	// heap sort if too many divisions
; 3793 : 		_STD make_heap(_First, _Last, _Pred);

  0008d	ff 75 14	 push	 DWORD PTR __Pred$[ebp]
  00090	57		 push	 edi
  00091	53		 push	 ebx
  00092	e8 00 00 00 00	 call	 ??$make_heap@PAPAVioMission@@VMissionDataSort@@@std@@YAXPAPAVioMission@@0VMissionDataSort@@@Z ; std::make_heap<ioMission * *,MissionDataSort>

; 3794 : 		_STD sort_heap(_First, _Last, _Pred);

  00097	ff 75 14	 push	 DWORD PTR __Pred$[ebp]
  0009a	57		 push	 edi
  0009b	53		 push	 ebx
  0009c	e8 00 00 00 00	 call	 ??$_Sort_heap@PAPAVioMission@@VMissionDataSort@@@std@@YAXPAPAVioMission@@0VMissionDataSort@@@Z ; std::_Sort_heap<ioMission * *,MissionDataSort>
  000a1	83 c4 18	 add	 esp, 24			; 00000018H
  000a4	eb 14		 jmp	 SHORT $LN16@Sort
$LN22@Sort:

; 3795 : 		}
; 3796 : 	else if (1 < _Count)

  000a6	83 f8 01	 cmp	 eax, 1
  000a9	7e 0f		 jle	 SHORT $LN16@Sort

; 3797 : 		_Insertion_sort(_First, _Last, _Pred);	// small

  000ab	6a 00		 push	 0
  000ad	ff 75 14	 push	 DWORD PTR __Pred$[ebp]
  000b0	57		 push	 edi
  000b1	53		 push	 ebx
  000b2	e8 00 00 00 00	 call	 ??$_Insertion_sort1@PAPAVioMission@@VMissionDataSort@@PAV1@@std@@YAXPAPAVioMission@@0VMissionDataSort@@0@Z ; std::_Insertion_sort1<ioMission * *,MissionDataSort,ioMission *>
  000b7	83 c4 10	 add	 esp, 16			; 00000010H
$LN16@Sort:
  000ba	5f		 pop	 edi
  000bb	5b		 pop	 ebx

; 3798 : 	}

  000bc	c9		 leave
  000bd	c3		 ret	 0
??$_Sort@PAPAVioMission@@HVMissionDataSort@@@std@@YAXPAPAVioMission@@0HVMissionDataSort@@@Z ENDP ; std::_Sort<ioMission * *,int,MissionDataSort>
; Function compile flags: /Ogsp
_TEXT	ENDS
;	COMDAT ??_GioMissionManager@@UAEPAXI@Z
_TEXT	SEGMENT
___flags$ = 8						; size = 4
??_GioMissionManager@@UAEPAXI@Z PROC			; ioMissionManager::`scalar deleting destructor', COMDAT
; _this$ = ecx
  00000	55		 push	 ebp
  00001	8b ec		 mov	 ebp, esp
  00003	56		 push	 esi
  00004	8b f1		 mov	 esi, ecx
  00006	e8 00 00 00 00	 call	 ??1ioMissionManager@@UAE@XZ ; ioMissionManager::~ioMissionManager
  0000b	f6 45 08 01	 test	 BYTE PTR ___flags$[ebp], 1
  0000f	74 07		 je	 SHORT $LN1@scalar@3
  00011	56		 push	 esi
  00012	e8 00 00 00 00	 call	 ??3@YAXPAX@Z		; operator delete
  00017	59		 pop	 ecx
$LN1@scalar@3:
  00018	8b c6		 mov	 eax, esi
  0001a	5e		 pop	 esi
  0001b	5d		 pop	 ebp
  0001c	c2 04 00	 ret	 4
??_GioMissionManager@@UAEPAXI@Z ENDP			; ioMissionManager::`scalar deleting destructor'
_TEXT	ENDS
PUBLIC	??_C@_0DG@KIKNDAGF@?$CFs?5Request?5Date?5Time?5?$CFd?5?$CFd?5?$CFd?5?$CFd@ ; `string'
PUBLIC	??_C@_0BN@DLFLJLOP@?$CFs?5Fail?5Update?5Mission?5Info?5?$AA@ ; `string'
PUBLIC	??_C@_0CD@JAHENDKK@ioMissionManager?3?3OnSetMissionIn@ ; `string'
PUBLIC	?OnSetMissionInfo@ioMissionManager@@QAEXAAVSP2Packet@@@Z ; ioMissionManager::OnSetMissionInfo
EXTRN	??5SP2Packet@@QAEAAV0@AAK@Z:PROC		; SP2Packet::operator>>
;	COMDAT ??_C@_0DG@KIKNDAGF@?$CFs?5Request?5Date?5Time?5?$CFd?5?$CFd?5?$CFd?5?$CFd@
; File c:\program files (x86)\microsoft visual studio 10.0\vc\atlmfc\include\atltime.inl
CONST	SEGMENT
??_C@_0DG@KIKNDAGF@?$CFs?5Request?5Date?5Time?5?$CFd?5?$CFd?5?$CFd?5?$CFd@ DB '%'
	DB	's Request Date Time %d %d %d %d, Mission Size : %d  ', 00H ; `string'
CONST	ENDS
;	COMDAT ??_C@_0BN@DLFLJLOP@?$CFs?5Fail?5Update?5Mission?5Info?5?$AA@
CONST	SEGMENT
??_C@_0BN@DLFLJLOP@?$CFs?5Fail?5Update?5Mission?5Info?5?$AA@ DB '%s Fail '
	DB	'Update Mission Info ', 00H			; `string'
CONST	ENDS
;	COMDAT ??_C@_0CD@JAHENDKK@ioMissionManager?3?3OnSetMissionIn@
CONST	SEGMENT
??_C@_0CD@JAHENDKK@ioMissionManager?3?3OnSetMissionIn@ DB 'ioMissionManag'
	DB	'er::OnSetMissionInfo', 00H			; `string'
; Function compile flags: /Ogsp
; File d:\lost saga for developer\youtube\tutorial\source\src\lsclient\iomissionmanager.cpp
CONST	ENDS
;	COMDAT ?OnSetMissionInfo@ioMissionManager@@QAEXAAVSP2Packet@@@Z
_TEXT	SEGMENT
_dwNextDayTime$507796 = -12				; size = 4
_iMissionCnt$507798 = -8				; size = 4
_byType$ = -1						; size = 1
_rkPacket$ = 8						; size = 4
?OnSetMissionInfo@ioMissionManager@@QAEXAAVSP2Packet@@@Z PROC ; ioMissionManager::OnSetMissionInfo, COMDAT
; _this$ = ecx

; 205  : {

  00000	55		 push	 ebp
  00001	8b ec		 mov	 ebp, esp
  00003	83 ec 0c	 sub	 esp, 12			; 0000000cH
  00006	57		 push	 edi

; 206  : 	BYTE byType;
; 207  : 	rkPacket >> byType; 

  00007	8d 45 ff	 lea	 eax, DWORD PTR _byType$[ebp]
  0000a	8b f9		 mov	 edi, ecx
  0000c	8b 4d 08	 mov	 ecx, DWORD PTR _rkPacket$[ebp]
  0000f	50		 push	 eax
  00010	e8 00 00 00 00	 call	 ??5SP2Packet@@QAEAAV0@AAE@Z ; SP2Packet::operator>>

; 208  : 	if ( byType == MISSION_INFO_FAIL )

  00015	80 7d ff 02	 cmp	 BYTE PTR _byType$[ebp], 2
  00019	75 20		 jne	 SHORT $LN7@OnSetMissi

; 209  : 	{
; 210  : 		LOG.PrintTimeAndLog( 0, "%s Fail Update Mission Info ", __FUNCTION__ );

  0001b	68 00 00 00 00	 push	 OFFSET ??_C@_0CD@JAHENDKK@ioMissionManager?3?3OnSetMissionIn@
  00020	68 00 00 00 00	 push	 OFFSET ??_C@_0BN@DLFLJLOP@?$CFs?5Fail?5Update?5Mission?5Info?5?$AA@
  00025	6a 00		 push	 0
  00027	ff 35 00 00 00
	00		 push	 DWORD PTR __imp_?LOG@@3VCLog@@A
  0002d	ff 15 00 00 00
	00		 call	 DWORD PTR __imp_?PrintTimeAndLog@CLog@@QAAXHPADZZ
  00033	83 c4 10	 add	 esp, 16			; 00000010H
  00036	e9 ae 00 00 00	 jmp	 $LN5@OnSetMissi
$LN7@OnSetMissi:

; 211  : 	}
; 212  : 	else if ( byType == MISSION_INFO_SUCCESS )

  0003b	80 7d ff 01	 cmp	 BYTE PTR _byType$[ebp], 1
  0003f	0f 85 a4 00 00
	00		 jne	 $LN5@OnSetMissi

; 213  : 	{
; 214  : 		DWORD dwNextDayTime = 0;
; 215  : 		rkPacket >> dwNextDayTime; 

  00045	8b 4d 08	 mov	 ecx, DWORD PTR _rkPacket$[ebp]
  00048	83 65 f4 00	 and	 DWORD PTR _dwNextDayTime$507796[ebp], 0
  0004c	56		 push	 esi
  0004d	8d 45 f4	 lea	 eax, DWORD PTR _dwNextDayTime$507796[ebp]
  00050	50		 push	 eax
  00051	e8 00 00 00 00	 call	 ??5SP2Packet@@QAEAAV0@AAK@Z ; SP2Packet::operator>>

; 216  : 
; 217  : 		//다음 미션 요청 날짜 갱신
; 218  : 		m_RequestDateTime = CTime( dwNextDayTime );

  00056	8b 45 f4	 mov	 eax, DWORD PTR _dwNextDayTime$507796[ebp]
  00059	33 c9		 xor	 ecx, ecx
  0005b	89 4f 68	 mov	 DWORD PTR [edi+104], ecx

; 219  : 		ClreaCurMissionList();

  0005e	8b cf		 mov	 ecx, edi
  00060	89 47 64	 mov	 DWORD PTR [edi+100], eax
  00063	e8 00 00 00 00	 call	 ?ClreaCurMissionList@ioMissionManager@@IAEXXZ ; ioMissionManager::ClreaCurMissionList

; 220  : 		int iMissionCnt = 0;
; 221  : 		rkPacket >> iMissionCnt;

  00068	8b 4d 08	 mov	 ecx, DWORD PTR _rkPacket$[ebp]
  0006b	83 65 f8 00	 and	 DWORD PTR _iMissionCnt$507798[ebp], 0
  0006f	8d 45 f8	 lea	 eax, DWORD PTR _iMissionCnt$507798[ebp]
  00072	50		 push	 eax
  00073	e8 00 00 00 00	 call	 ??5SP2Packet@@QAEAAV0@AAH@Z ; SP2Packet::operator>>

; 222  : 		if( g_App.IsMeDeveloper() )

  00078	e8 00 00 00 00	 call	 ?GetSingleton@ioApplication@@SAAAV1@XZ ; ioApplication::GetSingleton
  0007d	8b c8		 mov	 ecx, eax
  0007f	e8 00 00 00 00	 call	 ?IsMeDeveloper@ioApplication@@QAE_NXZ ; ioApplication::IsMeDeveloper
  00084	84 c0		 test	 al, al
  00086	74 42		 je	 SHORT $LN4@OnSetMissi

; 223  : 		{
; 224  : 			LOG.PrintTimeAndLog( 0, "%s Request Date Time %d %d %d %d, Mission Size : %d  ", __FUNCTION__, m_RequestDateTime.GetYear(),
; 225  : 				m_RequestDateTime.GetMonth(), m_RequestDateTime.GetDay(), m_RequestDateTime.GetHour(), iMissionCnt );

  00088	ff 75 f8	 push	 DWORD PTR _iMissionCnt$507798[ebp]
  0008b	8d 4f 64	 lea	 ecx, DWORD PTR [edi+100]
  0008e	e8 00 00 00 00	 call	 ?GetHour@CTime@ATL@@QBEHXZ ; ATL::CTime::GetHour
  00093	50		 push	 eax
  00094	8d 4f 64	 lea	 ecx, DWORD PTR [edi+100]
  00097	e8 00 00 00 00	 call	 ?GetDay@CTime@ATL@@QBEHXZ ; ATL::CTime::GetDay
  0009c	50		 push	 eax
  0009d	8d 4f 64	 lea	 ecx, DWORD PTR [edi+100]
  000a0	e8 00 00 00 00	 call	 ?GetMonth@CTime@ATL@@QBEHXZ ; ATL::CTime::GetMonth
  000a5	50		 push	 eax
  000a6	8d 4f 64	 lea	 ecx, DWORD PTR [edi+100]
  000a9	e8 00 00 00 00	 call	 ?GetYear@CTime@ATL@@QBEHXZ ; ATL::CTime::GetYear
  000ae	50		 push	 eax
  000af	68 00 00 00 00	 push	 OFFSET ??_C@_0CD@JAHENDKK@ioMissionManager?3?3OnSetMissionIn@
  000b4	68 00 00 00 00	 push	 OFFSET ??_C@_0DG@KIKNDAGF@?$CFs?5Request?5Date?5Time?5?$CFd?5?$CFd?5?$CFd?5?$CFd@
  000b9	6a 00		 push	 0
  000bb	ff 35 00 00 00
	00		 push	 DWORD PTR __imp_?LOG@@3VCLog@@A
  000c1	ff 15 00 00 00
	00		 call	 DWORD PTR __imp_?PrintTimeAndLog@CLog@@QAAXHPADZZ
  000c7	83 c4 24	 add	 esp, 36			; 00000024H
$LN4@OnSetMissi:

; 226  : 		}
; 227  : 		for( int i = 0;i < iMissionCnt;++i)

  000ca	33 f6		 xor	 esi, esi
  000cc	39 75 f8	 cmp	 DWORD PTR _iMissionCnt$507798[ebp], esi
  000cf	7e 10		 jle	 SHORT $LN1@OnSetMissi
$LL3@OnSetMissi:

; 228  : 			LoadMission( rkPacket ); 

  000d1	ff 75 08	 push	 DWORD PTR _rkPacket$[ebp]
  000d4	8b cf		 mov	 ecx, edi
  000d6	e8 00 00 00 00	 call	 ?LoadMission@ioMissionManager@@IAEXAAVSP2Packet@@@Z ; ioMissionManager::LoadMission
  000db	46		 inc	 esi
  000dc	3b 75 f8	 cmp	 esi, DWORD PTR _iMissionCnt$507798[ebp]
  000df	7c f0		 jl	 SHORT $LL3@OnSetMissi
$LN1@OnSetMissi:

; 229  : 
; 230  : 		m_dwProcessTicTime = PROCESS_TIC;

  000e1	c7 47 74 60 ea
	00 00		 mov	 DWORD PTR [edi+116], 60000 ; 0000ea60H
  000e8	5e		 pop	 esi
$LN5@OnSetMissi:
  000e9	5f		 pop	 edi

; 231  : 	}
; 232  : }

  000ea	c9		 leave
  000eb	c2 04 00	 ret	 4
?OnSetMissionInfo@ioMissionManager@@QAEXAAVSP2Packet@@@Z ENDP ; ioMissionManager::OnSetMissionInfo
_TEXT	ENDS
PUBLIC	??$sort@V?$_Vector_iterator@V?$_Vector_val@PAVioMission@@V?$allocator@PAVioMission@@@std@@@std@@@std@@VMissionDataSort@@@std@@YAXV?$_Vector_iterator@V?$_Vector_val@PAVioMission@@V?$allocator@PAVioMission@@@std@@@std@@@0@0VMissionDataSort@@@Z ; std::sort<std::_Vector_iterator<std::_Vector_val<ioMission *,std::allocator<ioMission *> > >,MissionDataSort>
; Function compile flags: /Ogsp
; File c:\program files (x86)\microsoft visual studio 10.0\vc\include\algorithm
;	COMDAT ??$sort@V?$_Vector_iterator@V?$_Vector_val@PAVioMission@@V?$allocator@PAVioMission@@@std@@@std@@@std@@VMissionDataSort@@@std@@YAXV?$_Vector_iterator@V?$_Vector_val@PAVioMission@@V?$allocator@PAVioMission@@@std@@@std@@@0@0VMissionDataSort@@@Z
_TEXT	SEGMENT
__First$ = 8						; size = 4
__Last$ = 12						; size = 4
__Pred$ = 16						; size = 1
??$sort@V?$_Vector_iterator@V?$_Vector_val@PAVioMission@@V?$allocator@PAVioMission@@@std@@@std@@@std@@VMissionDataSort@@@std@@YAXV?$_Vector_iterator@V?$_Vector_val@PAVioMission@@V?$allocator@PAVioMission@@@std@@@std@@@0@0VMissionDataSort@@@Z PROC ; std::sort<std::_Vector_iterator<std::_Vector_val<ioMission *,std::allocator<ioMission *> > >,MissionDataSort>, COMDAT

; 3803 : 	{	// order [_First, _Last), using _Pred

  00000	55		 push	 ebp
  00001	8b ec		 mov	 ebp, esp

; 3804 : 	_DEBUG_RANGE(_First, _Last);
; 3805 : 	_DEBUG_POINTER(_Pred);
; 3806 : 	_Sort(_Unchecked(_First), _Unchecked(_Last), _Last - _First, _Pred);

  00003	8b 45 0c	 mov	 eax, DWORD PTR __Last$[ebp]
  00006	ff 75 10	 push	 DWORD PTR __Pred$[ebp]
  00009	2b 45 08	 sub	 eax, DWORD PTR __First$[ebp]
  0000c	c1 f8 02	 sar	 eax, 2
  0000f	50		 push	 eax
  00010	ff 75 0c	 push	 DWORD PTR __Last$[ebp]
  00013	ff 75 08	 push	 DWORD PTR __First$[ebp]
  00016	e8 00 00 00 00	 call	 ??$_Sort@PAPAVioMission@@HVMissionDataSort@@@std@@YAXPAPAVioMission@@0HVMissionDataSort@@@Z ; std::_Sort<ioMission * *,int,MissionDataSort>
  0001b	83 c4 10	 add	 esp, 16			; 00000010H

; 3807 : 	}

  0001e	5d		 pop	 ebp
  0001f	c3		 ret	 0
??$sort@V?$_Vector_iterator@V?$_Vector_val@PAVioMission@@V?$allocator@PAVioMission@@@std@@@std@@@std@@VMissionDataSort@@@std@@YAXV?$_Vector_iterator@V?$_Vector_val@PAVioMission@@V?$allocator@PAVioMission@@@std@@@std@@@0@0VMissionDataSort@@@Z ENDP ; std::sort<std::_Vector_iterator<std::_Vector_val<ioMission *,std::allocator<ioMission *> > >,MissionDataSort>
_TEXT	ENDS
PUBLIC	?ProcessTCPPacket@ioMissionManager@@QAEXAAVSP2Packet@@@Z ; ioMissionManager::ProcessTCPPacket
EXTRN	__imp_?GetPacketID@CPacket@@QBEKXZ:PROC
; Function compile flags: /Ogsp
; File d:\lost saga for developer\youtube\tutorial\source\src\lsclient\iomissionmanager.cpp
;	COMDAT ?ProcessTCPPacket@ioMissionManager@@QAEXAAVSP2Packet@@@Z
_TEXT	SEGMENT
$T513062 = 8						; size = 1
_rkPacket$ = 8						; size = 4
?ProcessTCPPacket@ioMissionManager@@QAEXAAVSP2Packet@@@Z PROC ; ioMissionManager::ProcessTCPPacket, COMDAT
; _this$ = ecx

; 176  : {

  00000	55		 push	 ebp
  00001	8b ec		 mov	 ebp, esp
  00003	53		 push	 ebx
  00004	56		 push	 esi

; 177  : 	switch( rkPacket.GetPacketID() )

  00005	8b 75 08	 mov	 esi, DWORD PTR _rkPacket$[ebp]
  00008	57		 push	 edi
  00009	8b f9		 mov	 edi, ecx
  0000b	8b ce		 mov	 ecx, esi
  0000d	ff 15 00 00 00
	00		 call	 DWORD PTR __imp_?GetPacketID@CPacket@@QBEKXZ
  00013	2d 22 25 00 00	 sub	 eax, 9506		; 00002522H
  00018	74 1a		 je	 SHORT $LN6@ProcessTCP
  0001a	48		 dec	 eax
  0001b	74 0d		 je	 SHORT $LN5@ProcessTCP
  0001d	48		 dec	 eax
  0001e	75 1c		 jne	 SHORT $LN7@ProcessTCP

; 185  : 	case STPK_MISSION_COMPENSATION_RECV:
; 186  : 		OnCompensationReceive( rkPacket );

  00020	56		 push	 esi
  00021	8b cf		 mov	 ecx, edi
  00023	e8 00 00 00 00	 call	 ?OnCompensationReceive@ioMissionManager@@QAEXAAVSP2Packet@@@Z ; ioMissionManager::OnCompensationReceive

; 187  : 		break;

  00028	eb 12		 jmp	 SHORT $LN7@ProcessTCP
$LN5@ProcessTCP:

; 181  : 		break;
; 182  : 	case STPK_MISSION_INFO:
; 183  : 		OnSetMissionInfo( rkPacket );

  0002a	56		 push	 esi
  0002b	8b cf		 mov	 ecx, edi
  0002d	e8 00 00 00 00	 call	 ?OnSetMissionInfo@ioMissionManager@@QAEXAAVSP2Packet@@@Z ; ioMissionManager::OnSetMissionInfo

; 184  : 		break;

  00032	eb 08		 jmp	 SHORT $LN7@ProcessTCP
$LN6@ProcessTCP:

; 178  : 	{
; 179  : 	case STPK_MISSION_STATE_CHANGE:
; 180  : 		OnMissionStateChange( rkPacket );

  00034	56		 push	 esi
  00035	8b cf		 mov	 ecx, edi
  00037	e8 00 00 00 00	 call	 ?OnMissionStateChange@ioMissionManager@@QAEXAAVSP2Packet@@@Z ; ioMissionManager::OnMissionStateChange
$LN7@ProcessTCP:

; 188  : 	}
; 189  : 	for ( int iType = MDT_DAILY ; iType<MDT_MAX ; ++iType)

  0003c	6a 03		 push	 3
  0003e	8d 77 04	 lea	 esi, DWORD PTR [edi+4]
  00041	5b		 pop	 ebx
$LL3@ProcessTCP:

; 190  : 		std::sort( m_CurDayMissionList[iType].begin(), m_CurDayMissionList[iType].end(), MissionDataSort() );

  00042	ff 75 08	 push	 DWORD PTR $T513062[ebp]
  00045	8b 46 04	 mov	 eax, DWORD PTR [esi+4]
  00048	8b 0e		 mov	 ecx, DWORD PTR [esi]
  0004a	50		 push	 eax
  0004b	51		 push	 ecx
  0004c	e8 00 00 00 00	 call	 ??$sort@V?$_Vector_iterator@V?$_Vector_val@PAVioMission@@V?$allocator@PAVioMission@@@std@@@std@@@std@@VMissionDataSort@@@std@@YAXV?$_Vector_iterator@V?$_Vector_val@PAVioMission@@V?$allocator@PAVioMission@@@std@@@std@@@0@0VMissionDataSort@@@Z ; std::sort<std::_Vector_iterator<std::_Vector_val<ioMission *,std::allocator<ioMission *> > >,MissionDataSort>
  00051	83 c4 0c	 add	 esp, 12			; 0000000cH
  00054	83 c6 10	 add	 esi, 16			; 00000010H
  00057	4b		 dec	 ebx
  00058	75 e8		 jne	 SHORT $LL3@ProcessTCP

; 191  : 	ChangeMission();

  0005a	c6 47 6c 01	 mov	 BYTE PTR [edi+108], 1
  0005e	5f		 pop	 edi
  0005f	5e		 pop	 esi
  00060	5b		 pop	 ebx

; 192  : }

  00061	5d		 pop	 ebp
  00062	c2 04 00	 ret	 4
?ProcessTCPPacket@ioMissionManager@@QAEXAAVSP2Packet@@@Z ENDP ; ioMissionManager::ProcessTCPPacket
_TEXT	ENDS
END
